
tests2.0/16-part2-test3.elf:     file format elf32-littlearm


Disassembly of section .text:

00008000 <__code_start__>:
    8000:	e3a00013 	mov	r0, #19
    8004:	e129f000 	msr	CPSR_fc, r0
    8008:	e3a01000 	mov	r1, #0
    800c:	ee073f95 	mcr	15, 0, r3, cr7, cr5, {4}
    8010:	e3a0d302 	mov	sp, #134217728	; 0x8000000
    8014:	e3a0b000 	mov	fp, #0
    8018:	eb000518 	bl	9480 <_cstart>
    801c:	eb000580 	bl	9624 <rpi_reboot>

00008020 <eps_A>:
    8020:	e12fff1e 	bx	lr

00008024 <eps_B>:
    8024:	e3a00001 	mov	r0, #1
    8028:	e12fff1e 	bx	lr

0000802c <eps_init>:
    802c:	e12fff1e 	bx	lr

00008030 <eps_check>:
    8030:	e5903030 	ldr	r3, [r0, #48]	; 0x30
    8034:	e3530000 	cmp	r3, #0
    8038:	0a000001 	beq	8044 <eps_check+0x14>
    803c:	e3a00000 	mov	r0, #0
    8040:	e12fff1e 	bx	lr
    8044:	e3a00001 	mov	r0, #1
    8048:	e12fff1e 	bx	lr

0000804c <eps_mk_checker>:
    804c:	e1a03000 	mov	r3, r0
    8050:	e3a02000 	mov	r2, #0
    8054:	e4832004 	str	r2, [r3], #4
    8058:	e2833008 	add	r3, r3, #8
    805c:	e4832004 	str	r2, [r3], #4
    8060:	e4832004 	str	r2, [r3], #4
    8064:	e4832004 	str	r2, [r3], #4
    8068:	e4832004 	str	r2, [r3], #4
    806c:	e4832004 	str	r2, [r3], #4
    8070:	e4832004 	str	r2, [r3], #4
    8074:	e4832004 	str	r2, [r3], #4
    8078:	e4832004 	str	r2, [r3], #4
    807c:	e4832004 	str	r2, [r3], #4
    8080:	e4832004 	str	r2, [r3], #4
    8084:	e5832000 	str	r2, [r3]
    8088:	e59f301c 	ldr	r3, [pc, #28]	; 80ac <eps_mk_checker+0x60>
    808c:	e5803004 	str	r3, [r0, #4]
    8090:	e59f3018 	ldr	r3, [pc, #24]	; 80b0 <eps_mk_checker+0x64>
    8094:	e5803008 	str	r3, [r0, #8]
    8098:	e59f3014 	ldr	r3, [pc, #20]	; 80b4 <eps_mk_checker+0x68>
    809c:	e580300c 	str	r3, [r0, #12]
    80a0:	e59f3010 	ldr	r3, [pc, #16]	; 80b8 <eps_mk_checker+0x6c>
    80a4:	e5803010 	str	r3, [r0, #16]
    80a8:	e12fff1e 	bx	lr
    80ac:	00008020 	andeq	r8, r0, r0, lsr #32
    80b0:	00008024 	andeq	r8, r0, r4, lsr #32
    80b4:	0000802c 	andeq	r8, r0, ip, lsr #32
    80b8:	00008030 	andeq	r8, r0, r0, lsr r0

000080bc <notmain>:
    80bc:	e52de004 	push	{lr}		; (str lr, [sp, #-4]!)
    80c0:	e24dd044 	sub	sp, sp, #68	; 0x44
    80c4:	eb0004da 	bl	9434 <enable_cache>
    80c8:	e3a02000 	mov	r2, #0
    80cc:	e59f30c4 	ldr	r3, [pc, #196]	; 8198 <notmain+0xdc>
    80d0:	e5832000 	str	r2, [r3]
    80d4:	e28d0008 	add	r0, sp, #8
    80d8:	ebffffdb 	bl	804c <eps_mk_checker>
    80dc:	e28d0008 	add	r0, sp, #8
    80e0:	eb000330 	bl	8da8 <check>
    80e4:	e3500000 	cmp	r0, #0
    80e8:	0a000014 	beq	8140 <notmain+0x84>
    80ec:	e59d3034 	ldr	r3, [sp, #52]	; 0x34
    80f0:	e3530000 	cmp	r3, #0
    80f4:	0a000008 	beq	811c <notmain+0x60>
    80f8:	eb000358 	bl	8e60 <rpi_reset_putc>
    80fc:	e59f3098 	ldr	r3, [pc, #152]	; 819c <notmain+0xe0>
    8100:	e58d3000 	str	r3, [sp]
    8104:	e59f0094 	ldr	r0, [pc, #148]	; 81a0 <notmain+0xe4>
    8108:	e59f1094 	ldr	r1, [pc, #148]	; 81a4 <notmain+0xe8>
    810c:	e59f2094 	ldr	r2, [pc, #148]	; 81a8 <notmain+0xec>
    8110:	e3a03021 	mov	r3, #33	; 0x21
    8114:	eb000336 	bl	8df4 <printk>
    8118:	eb0004cd 	bl	9454 <clean_reboot>
    811c:	eb00034f 	bl	8e60 <rpi_reset_putc>
    8120:	e59d3030 	ldr	r3, [sp, #48]	; 0x30
    8124:	e58d3000 	str	r3, [sp]
    8128:	e59f007c 	ldr	r0, [pc, #124]	; 81ac <notmain+0xf0>
    812c:	e59f1070 	ldr	r1, [pc, #112]	; 81a4 <notmain+0xe8>
    8130:	e59f2070 	ldr	r2, [pc, #112]	; 81a8 <notmain+0xec>
    8134:	e3a03023 	mov	r3, #35	; 0x23
    8138:	eb00032d 	bl	8df4 <printk>
    813c:	eb0004c4 	bl	9454 <clean_reboot>
    8140:	e59f0068 	ldr	r0, [pc, #104]	; 81b0 <notmain+0xf4>
    8144:	e59d1030 	ldr	r1, [sp, #48]	; 0x30
    8148:	e59d2034 	ldr	r2, [sp, #52]	; 0x34
    814c:	eb000328 	bl	8df4 <printk>
    8150:	e59d3030 	ldr	r3, [sp, #48]	; 0x30
    8154:	e59d2034 	ldr	r2, [sp, #52]	; 0x34
    8158:	e1520003 	cmp	r2, r3
    815c:	0a000008 	beq	8184 <notmain+0xc8>
    8160:	eb00033e 	bl	8e60 <rpi_reset_putc>
    8164:	e59f3048 	ldr	r3, [pc, #72]	; 81b4 <notmain+0xf8>
    8168:	e58d3000 	str	r3, [sp]
    816c:	e59f002c 	ldr	r0, [pc, #44]	; 81a0 <notmain+0xe4>
    8170:	e59f102c 	ldr	r1, [pc, #44]	; 81a4 <notmain+0xe8>
    8174:	e59f202c 	ldr	r2, [pc, #44]	; 81a8 <notmain+0xec>
    8178:	e3a03027 	mov	r3, #39	; 0x27
    817c:	eb00031c 	bl	8df4 <printk>
    8180:	eb0004b3 	bl	9454 <clean_reboot>
    8184:	e59f002c 	ldr	r0, [pc, #44]	; 81b8 <notmain+0xfc>
    8188:	eb000319 	bl	8df4 <printk>
    818c:	e59f0028 	ldr	r0, [pc, #40]	; 81bc <notmain+0x100>
    8190:	eb000317 	bl	8df4 <printk>
    8194:	eb0004ae 	bl	9454 <clean_reboot>
    8198:	0000a218 	andeq	sl, r0, r8, lsl r2
    819c:	00009a38 	andeq	r9, r0, r8, lsr sl
    81a0:	00009a08 	andeq	r9, r0, r8, lsl #20
    81a4:	00009a1c 	andeq	r9, r0, ip, lsl sl
    81a8:	00009b18 	andeq	r9, r0, r8, lsl fp
    81ac:	00009a44 	andeq	r9, r0, r4, asr #20
    81b0:	00009a7c 	andeq	r9, r0, ip, ror sl
    81b4:	00009aa4 	andeq	r9, r0, r4, lsr #21
    81b8:	00009abc 			; <UNDEFINED> instruction: 0x00009abc
    81bc:	00009ac8 	andeq	r9, r0, r8, asr #21

000081c0 <watchpt_set0>:
    81c0:	e52de004 	push	{lr}		; (str lr, [sp, #-4]!)
    81c4:	e24dd00c 	sub	sp, sp, #12
    81c8:	ee103ef0 	mrc	14, 0, r3, cr0, cr0, {7}
    81cc:	e3c33001 	bic	r3, r3, #1
    81d0:	ee003ef0 	mcr	14, 0, r3, cr0, cr0, {7}
    81d4:	ee102ef0 	mrc	14, 0, r2, cr0, cr0, {7}
    81d8:	e1530002 	cmp	r3, r2
    81dc:	0a000008 	beq	8204 <watchpt_set0+0x44>
    81e0:	eb00031e 	bl	8e60 <rpi_reset_putc>
    81e4:	e59f306c 	ldr	r3, [pc, #108]	; 8258 <watchpt_set0+0x98>
    81e8:	e58d3000 	str	r3, [sp]
    81ec:	e59f0068 	ldr	r0, [pc, #104]	; 825c <watchpt_set0+0x9c>
    81f0:	e59f1068 	ldr	r1, [pc, #104]	; 8260 <watchpt_set0+0xa0>
    81f4:	e59f2068 	ldr	r2, [pc, #104]	; 8264 <watchpt_set0+0xa4>
    81f8:	e3a03041 	mov	r3, #65	; 0x41
    81fc:	eb0002fc 	bl	8df4 <printk>
    8200:	eb000493 	bl	9454 <clean_reboot>
    8204:	ee000ed0 	mcr	14, 0, r0, cr0, cr0, {6}
    8208:	e59f3058 	ldr	r3, [pc, #88]	; 8268 <watchpt_set0+0xa8>
    820c:	ee003ef0 	mcr	14, 0, r3, cr0, cr0, {7}
    8210:	ee102ef0 	mrc	14, 0, r2, cr0, cr0, {7}
    8214:	e1520003 	cmp	r2, r3
    8218:	0a000008 	beq	8240 <watchpt_set0+0x80>
    821c:	eb00030f 	bl	8e60 <rpi_reset_putc>
    8220:	e59f3030 	ldr	r3, [pc, #48]	; 8258 <watchpt_set0+0x98>
    8224:	e58d3000 	str	r3, [sp]
    8228:	e59f002c 	ldr	r0, [pc, #44]	; 825c <watchpt_set0+0x9c>
    822c:	e59f102c 	ldr	r1, [pc, #44]	; 8260 <watchpt_set0+0xa0>
    8230:	e59f202c 	ldr	r2, [pc, #44]	; 8264 <watchpt_set0+0xa4>
    8234:	e3a03052 	mov	r3, #82	; 0x52
    8238:	eb0002ed 	bl	8df4 <printk>
    823c:	eb000484 	bl	9454 <clean_reboot>
    8240:	e3a03000 	mov	r3, #0
    8244:	ee073f95 	mcr	15, 0, r3, cr7, cr5, {4}
    8248:	e59f301c 	ldr	r3, [pc, #28]	; 826c <watchpt_set0+0xac>
    824c:	e5831000 	str	r1, [r3]
    8250:	e28dd00c 	add	sp, sp, #12
    8254:	e49df004 	pop	{pc}		; (ldr pc, [sp], #4)
    8258:	00009b30 	andeq	r9, r0, r0, lsr fp
    825c:	00009a08 	andeq	r9, r0, r8, lsl #20
    8260:	00009b20 	andeq	r9, r0, r0, lsr #22
    8264:	00009c48 	andeq	r9, r0, r8, asr #24
    8268:	000001ff 	strdeq	r0, [r0], -pc	; <UNPREDICTABLE>
    826c:	0000a210 	andeq	sl, r0, r0, lsl r2

00008270 <data_abort_vector>:
    8270:	e52de004 	push	{lr}		; (str lr, [sp, #-4]!)
    8274:	e24dd00c 	sub	sp, sp, #12
    8278:	e1a01000 	mov	r1, r0
    827c:	ee153f10 	mrc	15, 0, r3, cr5, cr0, {0}
    8280:	ee153f10 	mrc	15, 0, r3, cr5, cr0, {0}
    8284:	e203300f 	and	r3, r3, #15
    8288:	e3530002 	cmp	r3, #2
    828c:	0a000006 	beq	82ac <data_abort_vector+0x3c>
    8290:	eb0002f2 	bl	8e60 <rpi_reset_putc>
    8294:	e59f008c 	ldr	r0, [pc, #140]	; 8328 <data_abort_vector+0xb8>
    8298:	e59f108c 	ldr	r1, [pc, #140]	; 832c <data_abort_vector+0xbc>
    829c:	e59f208c 	ldr	r2, [pc, #140]	; 8330 <data_abort_vector+0xc0>
    82a0:	e3a03079 	mov	r3, #121	; 0x79
    82a4:	eb0002d2 	bl	8df4 <printk>
    82a8:	eb000469 	bl	9454 <clean_reboot>
    82ac:	ee103e16 	mrc	14, 0, r3, cr0, cr6, {0}
    82b0:	e2433004 	sub	r3, r3, #4
    82b4:	e1530000 	cmp	r3, r0
    82b8:	0a000008 	beq	82e0 <data_abort_vector+0x70>
    82bc:	eb0002e7 	bl	8e60 <rpi_reset_putc>
    82c0:	e59f306c 	ldr	r3, [pc, #108]	; 8334 <data_abort_vector+0xc4>
    82c4:	e58d3000 	str	r3, [sp]
    82c8:	e59f0068 	ldr	r0, [pc, #104]	; 8338 <data_abort_vector+0xc8>
    82cc:	e59f1068 	ldr	r1, [pc, #104]	; 833c <data_abort_vector+0xcc>
    82d0:	e59f2068 	ldr	r2, [pc, #104]	; 8340 <data_abort_vector+0xd0>
    82d4:	e3a03067 	mov	r3, #103	; 0x67
    82d8:	eb0002c5 	bl	8df4 <printk>
    82dc:	eb00045c 	bl	9454 <clean_reboot>
    82e0:	e59f305c 	ldr	r3, [pc, #92]	; 8344 <data_abort_vector+0xd4>
    82e4:	e5933000 	ldr	r3, [r3]
    82e8:	e3530000 	cmp	r3, #0
    82ec:	1a000008 	bne	8314 <data_abort_vector+0xa4>
    82f0:	eb0002da 	bl	8e60 <rpi_reset_putc>
    82f4:	e59f304c 	ldr	r3, [pc, #76]	; 8348 <data_abort_vector+0xd8>
    82f8:	e58d3000 	str	r3, [sp]
    82fc:	e59f0034 	ldr	r0, [pc, #52]	; 8338 <data_abort_vector+0xc8>
    8300:	e59f1034 	ldr	r1, [pc, #52]	; 833c <data_abort_vector+0xcc>
    8304:	e59f2034 	ldr	r2, [pc, #52]	; 8340 <data_abort_vector+0xd0>
    8308:	e3a03069 	mov	r3, #105	; 0x69
    830c:	eb0002b8 	bl	8df4 <printk>
    8310:	eb00044f 	bl	9454 <clean_reboot>
    8314:	ee162f10 	mrc	15, 0, r2, cr6, cr0, {0}
    8318:	e3a00000 	mov	r0, #0
    831c:	e12fff33 	blx	r3
    8320:	e28dd00c 	add	sp, sp, #12
    8324:	e49df004 	pop	{pc}		; (ldr pc, [sp], #4)
    8328:	00009b48 	andeq	r9, r0, r8, asr #22
    832c:	00009b80 	andeq	r9, r0, r0, lsl #23
    8330:	00009c6c 	andeq	r9, r0, ip, ror #24
    8334:	00009b90 	muleq	r0, r0, fp
    8338:	00009a08 	andeq	r9, r0, r8, lsl #20
    833c:	00009b20 	andeq	r9, r0, r0, lsr #22
    8340:	00009c58 	andeq	r9, r0, r8, asr ip
    8344:	0000a210 	andeq	sl, r0, r0, lsl r2
    8348:	00009ba4 	andeq	r9, r0, r4, lsr #23

0000834c <cp14_enable>:
    834c:	e92d4008 	push	{r3, lr}
    8350:	e59f302c 	ldr	r3, [pc, #44]	; 8384 <cp14_enable+0x38>
    8354:	e5933000 	ldr	r3, [r3]
    8358:	e3530000 	cmp	r3, #0
    835c:	1a000003 	bne	8370 <cp14_enable+0x24>
    8360:	eb000489 	bl	958c <int_init>
    8364:	e3a02001 	mov	r2, #1
    8368:	e59f3014 	ldr	r3, [pc, #20]	; 8384 <cp14_enable+0x38>
    836c:	e5832000 	str	r2, [r3]
    8370:	e3a03902 	mov	r3, #32768	; 0x8000
    8374:	ee003e11 	mcr	14, 0, r3, cr0, cr1, {0}
    8378:	e3a03000 	mov	r3, #0
    837c:	ee073f95 	mcr	15, 0, r3, cr7, cr5, {4}
    8380:	e8bd8008 	pop	{r3, pc}
    8384:	0000a220 	andeq	sl, r0, r0, lsr #4

00008388 <brkpt_set0>:
    8388:	ee103eb0 	mrc	14, 0, r3, cr0, cr0, {5}
    838c:	e3c33001 	bic	r3, r3, #1
    8390:	ee003eb0 	mcr	14, 0, r3, cr0, cr0, {5}
    8394:	ee000e90 	mcr	14, 0, r0, cr0, cr0, {4}
    8398:	e59f3014 	ldr	r3, [pc, #20]	; 83b4 <brkpt_set0+0x2c>
    839c:	ee003eb0 	mcr	14, 0, r3, cr0, cr0, {5}
    83a0:	e3a03000 	mov	r3, #0
    83a4:	ee073f95 	mcr	15, 0, r3, cr7, cr5, {4}
    83a8:	e59f3008 	ldr	r3, [pc, #8]	; 83b8 <brkpt_set0+0x30>
    83ac:	e5831000 	str	r1, [r3]
    83b0:	e12fff1e 	bx	lr
    83b4:	000001e7 	andeq	r0, r0, r7, ror #3
    83b8:	0000a214 	andeq	sl, r0, r4, lsl r2

000083bc <prefetch_abort_vector>:
    83bc:	e52de004 	push	{lr}		; (str lr, [sp, #-4]!)
    83c0:	e24dd00c 	sub	sp, sp, #12
    83c4:	e1a01000 	mov	r1, r0
    83c8:	ee153f30 	mrc	15, 0, r3, cr5, cr0, {1}
    83cc:	e203300f 	and	r3, r3, #15
    83d0:	e3530002 	cmp	r3, #2
    83d4:	0a000006 	beq	83f4 <prefetch_abort_vector+0x38>
    83d8:	eb0002a0 	bl	8e60 <rpi_reset_putc>
    83dc:	e59f0058 	ldr	r0, [pc, #88]	; 843c <prefetch_abort_vector+0x80>
    83e0:	e59f1058 	ldr	r1, [pc, #88]	; 8440 <prefetch_abort_vector+0x84>
    83e4:	e59f2058 	ldr	r2, [pc, #88]	; 8444 <prefetch_abort_vector+0x88>
    83e8:	e3a030c7 	mov	r3, #199	; 0xc7
    83ec:	eb000280 	bl	8df4 <printk>
    83f0:	eb000417 	bl	9454 <clean_reboot>
    83f4:	e59f304c 	ldr	r3, [pc, #76]	; 8448 <prefetch_abort_vector+0x8c>
    83f8:	e5933000 	ldr	r3, [r3]
    83fc:	e3530000 	cmp	r3, #0
    8400:	1a000008 	bne	8428 <prefetch_abort_vector+0x6c>
    8404:	eb000295 	bl	8e60 <rpi_reset_putc>
    8408:	e59f303c 	ldr	r3, [pc, #60]	; 844c <prefetch_abort_vector+0x90>
    840c:	e58d3000 	str	r3, [sp]
    8410:	e59f0038 	ldr	r0, [pc, #56]	; 8450 <prefetch_abort_vector+0x94>
    8414:	e59f1024 	ldr	r1, [pc, #36]	; 8440 <prefetch_abort_vector+0x84>
    8418:	e59f2024 	ldr	r2, [pc, #36]	; 8444 <prefetch_abort_vector+0x88>
    841c:	e3a030c8 	mov	r3, #200	; 0xc8
    8420:	eb000273 	bl	8df4 <printk>
    8424:	eb00040a 	bl	9454 <clean_reboot>
    8428:	ee162f10 	mrc	15, 0, r2, cr6, cr0, {0}
    842c:	e3a00000 	mov	r0, #0
    8430:	e12fff33 	blx	r3
    8434:	e28dd00c 	add	sp, sp, #12
    8438:	e49df004 	pop	{pc}		; (ldr pc, [sp], #4)
    843c:	00009bb8 			; <UNDEFINED> instruction: 0x00009bb8
    8440:	00009b20 	andeq	r9, r0, r0, lsr #22
    8444:	00009c80 	andeq	r9, r0, r0, lsl #25
    8448:	0000a214 	andeq	sl, r0, r4, lsl r2
    844c:	00009bf0 	strdeq	r9, [r0], -r0
    8450:	00009a08 	andeq	r9, r0, r8, lsl #20

00008454 <interrupt_vector>:
    8454:	e12fff1e 	bx	lr

00008458 <brk_no_ret_error>:
    8458:	e92d4008 	push	{r3, lr}
    845c:	eb00027f 	bl	8e60 <rpi_reset_putc>
    8460:	e59f0010 	ldr	r0, [pc, #16]	; 8478 <brk_no_ret_error+0x20>
    8464:	e59f1010 	ldr	r1, [pc, #16]	; 847c <brk_no_ret_error+0x24>
    8468:	e59f2010 	ldr	r2, [pc, #16]	; 8480 <brk_no_ret_error+0x28>
    846c:	e3a030d9 	mov	r3, #217	; 0xd9
    8470:	eb00025f 	bl	8df4 <printk>
    8474:	eb0003f6 	bl	9454 <clean_reboot>
    8478:	00009c00 	andeq	r9, r0, r0, lsl #24
    847c:	00009b20 	andeq	r9, r0, r0, lsr #22
    8480:	00009c98 	muleq	r0, r8, ip

00008484 <brkpt_mismatch_set0>:
    8484:	ee103eb0 	mrc	14, 0, r3, cr0, cr0, {5}
    8488:	e3c33001 	bic	r3, r3, #1
    848c:	ee003eb0 	mcr	14, 0, r3, cr0, cr0, {5}
    8490:	ee000e90 	mcr	14, 0, r0, cr0, cr0, {4}
    8494:	e59f3014 	ldr	r3, [pc, #20]	; 84b0 <brkpt_mismatch_set0+0x2c>
    8498:	ee003eb0 	mcr	14, 0, r3, cr0, cr0, {5}
    849c:	e3a03000 	mov	r3, #0
    84a0:	ee073f95 	mcr	15, 0, r3, cr7, cr5, {4}
    84a4:	e59f3008 	ldr	r3, [pc, #8]	; 84b4 <brkpt_mismatch_set0+0x30>
    84a8:	e5831000 	str	r1, [r3]
    84ac:	e12fff1e 	bx	lr
    84b0:	004001e7 	subeq	r0, r0, r7, ror #3
    84b4:	0000a214 	andeq	sl, r0, r4, lsl r2

000084b8 <brkpt_mismatch_disable0>:
    84b8:	e59f3004 	ldr	r3, [pc, #4]	; 84c4 <brkpt_mismatch_disable0+0xc>
    84bc:	ee003eb0 	mcr	14, 0, r3, cr0, cr0, {5}
    84c0:	e12fff1e 	bx	lr
    84c4:	004001e6 	subeq	r0, r0, r6, ror #3

000084c8 <syscall_vector>:
    84c8:	e92d4008 	push	{r3, lr}
    84cc:	e5903000 	ldr	r3, [r0]
    84d0:	e3c334ff 	bic	r3, r3, #-16777216	; 0xff000000
    84d4:	e3530001 	cmp	r3, #1
    84d8:	1a000002 	bne	84e8 <syscall_vector+0x20>
    84dc:	e169f001 	msr	SPSR_fc, r1
    84e0:	e3a00000 	mov	r0, #0
    84e4:	e8bd8008 	pop	{r3, pc}
    84e8:	e3530002 	cmp	r3, #2
    84ec:	1a000005 	bne	8508 <syscall_vector+0x40>
    84f0:	e5913000 	ldr	r3, [r1]
    84f4:	e3530000 	cmp	r3, #0
    84f8:	1a000009 	bne	8524 <syscall_vector+0x5c>
    84fc:	e3a00001 	mov	r0, #1
    8500:	e5810000 	str	r0, [r1]
    8504:	e8bd8008 	pop	{r3, pc}
    8508:	e3530003 	cmp	r3, #3
    850c:	0a000006 	beq	852c <syscall_vector+0x64>
    8510:	e59f001c 	ldr	r0, [pc, #28]	; 8534 <syscall_vector+0x6c>
    8514:	e1a01003 	mov	r1, r3
    8518:	eb000235 	bl	8df4 <printk>
    851c:	e3a00000 	mov	r0, #0
    8520:	e8bd8008 	pop	{r3, pc}
    8524:	e3a00000 	mov	r0, #0
    8528:	e8bd8008 	pop	{r3, pc}
    852c:	e3a00003 	mov	r0, #3
    8530:	e8bd8008 	pop	{r3, pc}
    8534:	00009c30 	andeq	r9, r0, r0, lsr ip

00008538 <_interrupt_table>:
    8538:	e59ff020 	ldr	pc, [pc, #32]	; 8560 <_reset_asm>
    853c:	e59ff020 	ldr	pc, [pc, #32]	; 8564 <_undefined_instruction_asm>
    8540:	e59ff020 	ldr	pc, [pc, #32]	; 8568 <_software_interrupt_asm>
    8544:	e59ff020 	ldr	pc, [pc, #32]	; 856c <_prefetch_abort_asm>
    8548:	e59ff020 	ldr	pc, [pc, #32]	; 8570 <_data_abort_asm>
    854c:	e59ff00c 	ldr	pc, [pc, #12]	; 8560 <_reset_asm>
    8550:	e59ff01c 	ldr	pc, [pc, #28]	; 8574 <_interrupt_asm>

00008554 <fast_interrupt_asm>:
    8554:	e3a0d409 	mov	sp, #150994944	; 0x9000000
    8558:	e24ee004 	sub	lr, lr, #4
    855c:	eb0003d5 	bl	94b8 <fast_interrupt_vector>

00008560 <_reset_asm>:
    8560:	00008590 	muleq	r0, r0, r5

00008564 <_undefined_instruction_asm>:
    8564:	000085d4 	ldrdeq	r8, [r0], -r4

00008568 <_software_interrupt_asm>:
    8568:	000085e0 	andeq	r8, r0, r0, ror #11

0000856c <_prefetch_abort_asm>:
    856c:	000085b8 			; <UNDEFINED> instruction: 0x000085b8

00008570 <_data_abort_asm>:
    8570:	0000859c 	muleq	r0, ip, r5

00008574 <_interrupt_asm>:
    8574:	00008578 	andeq	r8, r0, r8, ror r5

00008578 <_interrupt_table_end>:
    8578:	e3a0d409 	mov	sp, #150994944	; 0x9000000
    857c:	e24ee004 	sub	lr, lr, #4
    8580:	e92d5fff 	push	{r0, r1, r2, r3, r4, r5, r6, r7, r8, r9, sl, fp, ip, lr}
    8584:	e1a0000e 	mov	r0, lr
    8588:	e8bd5fff 	pop	{r0, r1, r2, r3, r4, r5, r6, r7, r8, r9, sl, fp, ip, lr}
    858c:	e1b0f00e 	movs	pc, lr

00008590 <reset_asm>:
    8590:	e3a0d409 	mov	sp, #150994944	; 0x9000000
    8594:	e24ee004 	sub	lr, lr, #4
    8598:	eb0003d7 	bl	94fc <reset_vector>

0000859c <data_abort_asm>:
    859c:	e24ee008 	sub	lr, lr, #8
    85a0:	e3a0d409 	mov	sp, #150994944	; 0x9000000
    85a4:	e92d5fff 	push	{r0, r1, r2, r3, r4, r5, r6, r7, r8, r9, sl, fp, ip, lr}
    85a8:	e1a0000e 	mov	r0, lr
    85ac:	ebffff2f 	bl	8270 <data_abort_vector>
    85b0:	e8bd5fff 	pop	{r0, r1, r2, r3, r4, r5, r6, r7, r8, r9, sl, fp, ip, lr}
    85b4:	e1b0f00e 	movs	pc, lr

000085b8 <prefetch_abort_asm>:
    85b8:	e24ee004 	sub	lr, lr, #4
    85bc:	e3a0d409 	mov	sp, #150994944	; 0x9000000
    85c0:	e92d5fff 	push	{r0, r1, r2, r3, r4, r5, r6, r7, r8, r9, sl, fp, ip, lr}
    85c4:	e1a0000e 	mov	r0, lr
    85c8:	ebffff7b 	bl	83bc <prefetch_abort_vector>
    85cc:	e8bd5fff 	pop	{r0, r1, r2, r3, r4, r5, r6, r7, r8, r9, sl, fp, ip, lr}
    85d0:	e1b0f00e 	movs	pc, lr

000085d4 <undefined_instruction_asm>:
    85d4:	e3a0d409 	mov	sp, #150994944	; 0x9000000
    85d8:	e24ee004 	sub	lr, lr, #4
    85dc:	eb0003d7 	bl	9540 <undefined_instruction_vector>

000085e0 <software_interrupt_asm>:
    85e0:	e92d5ff0 	push	{r4, r5, r6, r7, r8, r9, sl, fp, ip, lr}
    85e4:	e24ee004 	sub	lr, lr, #4
    85e8:	e1a01000 	mov	r1, r0
    85ec:	e1a0000e 	mov	r0, lr
    85f0:	ebffffb4 	bl	84c8 <syscall_vector>
    85f4:	e8bd5ff0 	pop	{r4, r5, r6, r7, r8, r9, sl, fp, ip, lr}
    85f8:	e1b0f00e 	movs	pc, lr

000085fc <user_trampoline_no_ret>:
    85fc:	e1a0200d 	mov	r2, sp
    8600:	e129f000 	msr	CPSR_fc, r0
    8604:	e10f5000 	mrs	r5, CPSR
    8608:	ee070f95 	mcr	15, 0, r0, cr7, cr5, {4}
    860c:	e1a0d002 	mov	sp, r2
    8610:	e92d5ff0 	push	{r4, r5, r6, r7, r8, r9, sl, fp, ip, lr}
    8614:	e12fff31 	blx	r1
    8618:	e8bd5ff0 	pop	{r4, r5, r6, r7, r8, r9, sl, fp, ip, lr}
    861c:	eb00038c 	bl	9454 <clean_reboot>
    8620:	ebffff8c 	bl	8458 <brk_no_ret_error>

00008624 <user_trampoline_ret>:
    8624:	e92d5ff0 	push	{r4, r5, r6, r7, r8, r9, sl, fp, ip, lr}
    8628:	e10f4000 	mrs	r4, CPSR
    862c:	e129f000 	msr	CPSR_fc, r0
    8630:	ee070f95 	mcr	15, 0, r0, cr7, cr5, {4}
    8634:	e3a0d407 	mov	sp, #117440512	; 0x7000000
    8638:	e1a00002 	mov	r0, r2
    863c:	e12fff31 	blx	r1
    8640:	e1a00004 	mov	r0, r4
    8644:	ef000001 	svc	0x00000001
    8648:	e8bd5ff0 	pop	{r4, r5, r6, r7, r8, r9, sl, fp, ip, lr}
    864c:	e12fff1e 	bx	lr

00008650 <sys_try_lock_asm>:
    8650:	e92d5ff0 	push	{r4, r5, r6, r7, r8, r9, sl, fp, ip, lr}
    8654:	ef000002 	svc	0x00000002
    8658:	e8bd5ff0 	pop	{r4, r5, r6, r7, r8, r9, sl, fp, ip, lr}
    865c:	e12fff1e 	bx	lr

00008660 <sys_foo_asm>:
    8660:	e92d5ff0 	push	{r4, r5, r6, r7, r8, r9, sl, fp, ip, lr}
    8664:	ef000003 	svc	0x00000003
    8668:	e8bd5ff0 	pop	{r4, r5, r6, r7, r8, r9, sl, fp, ip, lr}
    866c:	e12fff1e 	bx	lr

00008670 <single_step_handler>:
    8670:	e92d4030 	push	{r4, r5, lr}
    8674:	e24dd00c 	sub	sp, sp, #12
    8678:	e1a05001 	mov	r5, r1
    867c:	e59f3164 	ldr	r3, [pc, #356]	; 87e8 <single_step_handler+0x178>
    8680:	e5933000 	ldr	r3, [r3]
    8684:	e3530000 	cmp	r3, #0
    8688:	0a000005 	beq	86a4 <single_step_handler+0x34>
    868c:	e58d1000 	str	r1, [sp]
    8690:	e59f0154 	ldr	r0, [pc, #340]	; 87ec <single_step_handler+0x17c>
    8694:	e59f1154 	ldr	r1, [pc, #340]	; 87f0 <single_step_handler+0x180>
    8698:	e59f2154 	ldr	r2, [pc, #340]	; 87f4 <single_step_handler+0x184>
    869c:	e3a0300c 	mov	r3, #12
    86a0:	eb0001d3 	bl	8df4 <printk>
    86a4:	ee153f30 	mrc	15, 0, r3, cr5, cr0, {1}
    86a8:	e203300f 	and	r3, r3, #15
    86ac:	e3530002 	cmp	r3, #2
    86b0:	0a000006 	beq	86d0 <single_step_handler+0x60>
    86b4:	eb0001e9 	bl	8e60 <rpi_reset_putc>
    86b8:	e59f0138 	ldr	r0, [pc, #312]	; 87f8 <single_step_handler+0x188>
    86bc:	e59f112c 	ldr	r1, [pc, #300]	; 87f0 <single_step_handler+0x180>
    86c0:	e59f212c 	ldr	r2, [pc, #300]	; 87f4 <single_step_handler+0x184>
    86c4:	e3a0300e 	mov	r3, #14
    86c8:	eb0001c9 	bl	8df4 <printk>
    86cc:	eb000360 	bl	9454 <clean_reboot>
    86d0:	e59f3124 	ldr	r3, [pc, #292]	; 87fc <single_step_handler+0x18c>
    86d4:	e5934000 	ldr	r4, [r3]
    86d8:	e594201c 	ldr	r2, [r4, #28]
    86dc:	e5943018 	ldr	r3, [r4, #24]
    86e0:	e1520003 	cmp	r2, r3
    86e4:	1a000016 	bne	8744 <single_step_handler+0xd4>
    86e8:	e59f0110 	ldr	r0, [pc, #272]	; 8800 <single_step_handler+0x190>
    86ec:	e1a01005 	mov	r1, r5
    86f0:	e5942008 	ldr	r2, [r4, #8]
    86f4:	eb0001be 	bl	8df4 <printk>
    86f8:	e5943008 	ldr	r3, [r4, #8]
    86fc:	e1a00004 	mov	r0, r4
    8700:	e12fff33 	blx	r3
    8704:	e3500000 	cmp	r0, #0
    8708:	0a00000a 	beq	8738 <single_step_handler+0xc8>
    870c:	e1a00005 	mov	r0, r5
    8710:	ebffff68 	bl	84b8 <brkpt_mismatch_disable0>
    8714:	e5845020 	str	r5, [r4, #32]
    8718:	e3a03001 	mov	r3, #1
    871c:	e5843024 	str	r3, [r4, #36]	; 0x24
    8720:	e5943014 	ldr	r3, [r4, #20]
    8724:	e2833001 	add	r3, r3, #1
    8728:	e5843014 	str	r3, [r4, #20]
    872c:	e59f00d0 	ldr	r0, [pc, #208]	; 8804 <single_step_handler+0x194>
    8730:	eb0001af 	bl	8df4 <printk>
    8734:	ea000029 	b	87e0 <single_step_handler+0x170>
    8738:	e5943018 	ldr	r3, [r4, #24]
    873c:	e2833001 	add	r3, r3, #1
    8740:	e5843018 	str	r3, [r4, #24]
    8744:	e594201c 	ldr	r2, [r4, #28]
    8748:	e5943018 	ldr	r3, [r4, #24]
    874c:	e1520003 	cmp	r2, r3
    8750:	3a000008 	bcc	8778 <single_step_handler+0x108>
    8754:	eb0001c1 	bl	8e60 <rpi_reset_putc>
    8758:	e59f30a8 	ldr	r3, [pc, #168]	; 8808 <single_step_handler+0x198>
    875c:	e58d3000 	str	r3, [sp]
    8760:	e59f00a4 	ldr	r0, [pc, #164]	; 880c <single_step_handler+0x19c>
    8764:	e59f1084 	ldr	r1, [pc, #132]	; 87f0 <single_step_handler+0x180>
    8768:	e59f2084 	ldr	r2, [pc, #132]	; 87f4 <single_step_handler+0x184>
    876c:	e3a03023 	mov	r3, #35	; 0x23
    8770:	eb00019f 	bl	8df4 <printk>
    8774:	eb000336 	bl	9454 <clean_reboot>
    8778:	e594301c 	ldr	r3, [r4, #28]
    877c:	e2833001 	add	r3, r3, #1
    8780:	e584301c 	str	r3, [r4, #28]
    8784:	e59f305c 	ldr	r3, [pc, #92]	; 87e8 <single_step_handler+0x178>
    8788:	e5933000 	ldr	r3, [r3]
    878c:	e3530000 	cmp	r3, #0
    8790:	0a000005 	beq	87ac <single_step_handler+0x13c>
    8794:	e58d5000 	str	r5, [sp]
    8798:	e59f0070 	ldr	r0, [pc, #112]	; 8810 <single_step_handler+0x1a0>
    879c:	e59f104c 	ldr	r1, [pc, #76]	; 87f0 <single_step_handler+0x180>
    87a0:	e59f204c 	ldr	r2, [pc, #76]	; 87f4 <single_step_handler+0x184>
    87a4:	e3a03026 	mov	r3, #38	; 0x26
    87a8:	eb000191 	bl	8df4 <printk>
    87ac:	e1a00005 	mov	r0, r5
    87b0:	e59f105c 	ldr	r1, [pc, #92]	; 8814 <single_step_handler+0x1a4>
    87b4:	ebffff32 	bl	8484 <brkpt_mismatch_set0>
    87b8:	e59f3028 	ldr	r3, [pc, #40]	; 87e8 <single_step_handler+0x178>
    87bc:	e5933000 	ldr	r3, [r3]
    87c0:	e3530000 	cmp	r3, #0
    87c4:	0a000005 	beq	87e0 <single_step_handler+0x170>
    87c8:	e58d5000 	str	r5, [sp]
    87cc:	e59f0044 	ldr	r0, [pc, #68]	; 8818 <single_step_handler+0x1a8>
    87d0:	e59f1018 	ldr	r1, [pc, #24]	; 87f0 <single_step_handler+0x180>
    87d4:	e59f2018 	ldr	r2, [pc, #24]	; 87f4 <single_step_handler+0x184>
    87d8:	e3a03028 	mov	r3, #40	; 0x28
    87dc:	eb000184 	bl	8df4 <printk>
    87e0:	e28dd00c 	add	sp, sp, #12
    87e4:	e8bd8030 	pop	{r4, r5, pc}
    87e8:	0000a218 	andeq	sl, r0, r8, lsl r2
    87ec:	00009cac 	andeq	r9, r0, ip, lsr #25
    87f0:	00009ccc 	andeq	r9, r0, ip, asr #25
    87f4:	00009fb0 			; <UNDEFINED> instruction: 0x00009fb0
    87f8:	00009bb8 			; <UNDEFINED> instruction: 0x00009bb8
    87fc:	0000a224 	andeq	sl, r0, r4, lsr #4
    8800:	00009ce0 	andeq	r9, r0, r0, ror #25
    8804:	00009d00 	andeq	r9, r0, r0, lsl #26
    8808:	00009d28 	andeq	r9, r0, r8, lsr #26
    880c:	00009a08 	andeq	r9, r0, r8, lsl #20
    8810:	00009d4c 	andeq	r9, r0, ip, asr #26
    8814:	00008670 	andeq	r8, r0, r0, ror r6
    8818:	00009d74 	andeq	r9, r0, r4, ror sp

0000881c <check_one_cswitch>:
    881c:	e92d4ff0 	push	{r4, r5, r6, r7, r8, r9, sl, fp, lr}
    8820:	e24dd00c 	sub	sp, sp, #12
    8824:	e1a04000 	mov	r4, r0
    8828:	e10f8000 	mrs	r8, CPSR
    882c:	e3c8701f 	bic	r7, r8, #31
    8830:	e3877010 	orr	r7, r7, #16
    8834:	e59f3460 	ldr	r3, [pc, #1120]	; 8c9c <check_one_cswitch+0x480>
    8838:	e5830000 	str	r0, [r3]
    883c:	e3a03001 	mov	r3, #1
    8840:	e5803030 	str	r3, [r0, #48]	; 0x30
    8844:	e59f6454 	ldr	r6, [pc, #1108]	; 8ca0 <check_one_cswitch+0x484>
    8848:	e59fb454 	ldr	fp, [pc, #1108]	; 8ca4 <check_one_cswitch+0x488>
    884c:	e59fa454 	ldr	sl, [pc, #1108]	; 8ca8 <check_one_cswitch+0x48c>
    8850:	e59f9454 	ldr	r9, [pc, #1108]	; 8cac <check_one_cswitch+0x490>
    8854:	e59f5454 	ldr	r5, [pc, #1108]	; 8cb0 <check_one_cswitch+0x494>
    8858:	e594300c 	ldr	r3, [r4, #12]
    885c:	e1a00004 	mov	r0, r4
    8860:	e12fff33 	blx	r3
    8864:	e5963000 	ldr	r3, [r6]
    8868:	e3530000 	cmp	r3, #0
    886c:	0a000006 	beq	888c <check_one_cswitch+0x70>
    8870:	e5943028 	ldr	r3, [r4, #40]	; 0x28
    8874:	e58d3000 	str	r3, [sp]
    8878:	e1a0000b 	mov	r0, fp
    887c:	e1a0100a 	mov	r1, sl
    8880:	e1a02009 	mov	r2, r9
    8884:	e3a03034 	mov	r3, #52	; 0x34
    8888:	eb000159 	bl	8df4 <printk>
    888c:	e3a00000 	mov	r0, #0
    8890:	e1a01005 	mov	r1, r5
    8894:	ebfffefa 	bl	8484 <brkpt_mismatch_set0>
    8898:	e5943018 	ldr	r3, [r4, #24]
    889c:	e2833001 	add	r3, r3, #1
    88a0:	e5843018 	str	r3, [r4, #24]
    88a4:	e3a03000 	mov	r3, #0
    88a8:	e584301c 	str	r3, [r4, #28]
    88ac:	e5843024 	str	r3, [r4, #36]	; 0x24
    88b0:	e1a00007 	mov	r0, r7
    88b4:	e5941004 	ldr	r1, [r4, #4]
    88b8:	e1a02004 	mov	r2, r4
    88bc:	ebffff58 	bl	8624 <user_trampoline_ret>
    88c0:	e5943024 	ldr	r3, [r4, #36]	; 0x24
    88c4:	e3530000 	cmp	r3, #0
    88c8:	1a000002 	bne	88d8 <check_one_cswitch+0xbc>
    88cc:	e5943008 	ldr	r3, [r4, #8]
    88d0:	e1a00004 	mov	r0, r4
    88d4:	e12fff33 	blx	r3
    88d8:	e5943010 	ldr	r3, [r4, #16]
    88dc:	e1a00004 	mov	r0, r4
    88e0:	e12fff33 	blx	r3
    88e4:	e3500000 	cmp	r0, #0
    88e8:	1a000006 	bne	8908 <check_one_cswitch+0xec>
    88ec:	e5941020 	ldr	r1, [r4, #32]
    88f0:	e5942018 	ldr	r2, [r4, #24]
    88f4:	e59f03b8 	ldr	r0, [pc, #952]	; 8cb4 <check_one_cswitch+0x498>
    88f8:	eb00013d 	bl	8df4 <printk>
    88fc:	e594302c 	ldr	r3, [r4, #44]	; 0x2c
    8900:	e2833001 	add	r3, r3, #1
    8904:	e584302c 	str	r3, [r4, #44]	; 0x2c
    8908:	e5942028 	ldr	r2, [r4, #40]	; 0x28
    890c:	e2822001 	add	r2, r2, #1
    8910:	e5842028 	str	r2, [r4, #40]	; 0x28
    8914:	e5943024 	ldr	r3, [r4, #36]	; 0x24
    8918:	e3530000 	cmp	r3, #0
    891c:	1affffcd 	bne	8858 <check_one_cswitch+0x3c>
    8920:	e5941014 	ldr	r1, [r4, #20]
    8924:	e59f038c 	ldr	r0, [pc, #908]	; 8cb8 <check_one_cswitch+0x49c>
    8928:	e594302c 	ldr	r3, [r4, #44]	; 0x2c
    892c:	eb000130 	bl	8df4 <printk>
    8930:	e208301f 	and	r3, r8, #31
    8934:	e3530012 	cmp	r3, #18
    8938:	13530010 	cmpne	r3, #16
    893c:	0a000006 	beq	895c <check_one_cswitch+0x140>
    8940:	e3530017 	cmp	r3, #23
    8944:	13530013 	cmpne	r3, #19
    8948:	0a000005 	beq	8964 <check_one_cswitch+0x148>
    894c:	e353001f 	cmp	r3, #31
    8950:	1a000005 	bne	896c <check_one_cswitch+0x150>
    8954:	e3a02001 	mov	r2, #1
    8958:	ea000004 	b	8970 <check_one_cswitch+0x154>
    895c:	e3a02001 	mov	r2, #1
    8960:	ea000002 	b	8970 <check_one_cswitch+0x154>
    8964:	e3a02001 	mov	r2, #1
    8968:	ea000000 	b	8970 <check_one_cswitch+0x154>
    896c:	e3a02000 	mov	r2, #0
    8970:	e3520000 	cmp	r2, #0
    8974:	1a000008 	bne	899c <check_one_cswitch+0x180>
    8978:	eb000138 	bl	8e60 <rpi_reset_putc>
    897c:	e59f3338 	ldr	r3, [pc, #824]	; 8cbc <check_one_cswitch+0x4a0>
    8980:	e58d3000 	str	r3, [sp]
    8984:	e59f0334 	ldr	r0, [pc, #820]	; 8cc0 <check_one_cswitch+0x4a4>
    8988:	e59f1334 	ldr	r1, [pc, #820]	; 8cc4 <check_one_cswitch+0x4a8>
    898c:	e59f2334 	ldr	r2, [pc, #820]	; 8cc8 <check_one_cswitch+0x4ac>
    8990:	e3a03011 	mov	r3, #17
    8994:	eb000116 	bl	8df4 <printk>
    8998:	eb0002ad 	bl	9454 <clean_reboot>
    899c:	e2433010 	sub	r3, r3, #16
    89a0:	e353000f 	cmp	r3, #15
    89a4:	979ff103 	ldrls	pc, [pc, r3, lsl #2]
    89a8:	ea000019 	b	8a14 <check_one_cswitch+0x1f8>
    89ac:	00008a34 	andeq	r8, r0, r4, lsr sl
    89b0:	00008a3c 	andeq	r8, r0, ip, lsr sl
    89b4:	000089ec 	andeq	r8, r0, ip, ror #19
    89b8:	000089f4 	strdeq	r8, [r0], -r4
    89bc:	00008a14 	andeq	r8, r0, r4, lsl sl
    89c0:	00008a14 	andeq	r8, r0, r4, lsl sl
    89c4:	00008a14 	andeq	r8, r0, r4, lsl sl
    89c8:	000089fc 	strdeq	r8, [r0], -ip
    89cc:	00008a14 	andeq	r8, r0, r4, lsl sl
    89d0:	00008a14 	andeq	r8, r0, r4, lsl sl
    89d4:	00008a14 	andeq	r8, r0, r4, lsl sl
    89d8:	00008a04 	andeq	r8, r0, r4, lsl #20
    89dc:	00008a14 	andeq	r8, r0, r4, lsl sl
    89e0:	00008a14 	andeq	r8, r0, r4, lsl sl
    89e4:	00008a14 	andeq	r8, r0, r4, lsl sl
    89e8:	00008a0c 	andeq	r8, r0, ip, lsl #20
    89ec:	e59f12d8 	ldr	r1, [pc, #728]	; 8ccc <check_one_cswitch+0x4b0>
    89f0:	ea000012 	b	8a40 <check_one_cswitch+0x224>
    89f4:	e59f12d4 	ldr	r1, [pc, #724]	; 8cd0 <check_one_cswitch+0x4b4>
    89f8:	ea000010 	b	8a40 <check_one_cswitch+0x224>
    89fc:	e59f12d0 	ldr	r1, [pc, #720]	; 8cd4 <check_one_cswitch+0x4b8>
    8a00:	ea00000e 	b	8a40 <check_one_cswitch+0x224>
    8a04:	e59f12cc 	ldr	r1, [pc, #716]	; 8cd8 <check_one_cswitch+0x4bc>
    8a08:	ea00000c 	b	8a40 <check_one_cswitch+0x224>
    8a0c:	e59f12c8 	ldr	r1, [pc, #712]	; 8cdc <check_one_cswitch+0x4c0>
    8a10:	ea00000a 	b	8a40 <check_one_cswitch+0x224>
    8a14:	eb000111 	bl	8e60 <rpi_reset_putc>
    8a18:	e58d8000 	str	r8, [sp]
    8a1c:	e59f02bc 	ldr	r0, [pc, #700]	; 8ce0 <check_one_cswitch+0x4c4>
    8a20:	e59f129c 	ldr	r1, [pc, #668]	; 8cc4 <check_one_cswitch+0x4a8>
    8a24:	e59f22b8 	ldr	r2, [pc, #696]	; 8ce4 <check_one_cswitch+0x4c8>
    8a28:	e3a03021 	mov	r3, #33	; 0x21
    8a2c:	eb0000f0 	bl	8df4 <printk>
    8a30:	eb000287 	bl	9454 <clean_reboot>
    8a34:	e59f12ac 	ldr	r1, [pc, #684]	; 8ce8 <check_one_cswitch+0x4cc>
    8a38:	ea000000 	b	8a40 <check_one_cswitch+0x224>
    8a3c:	e59f12a8 	ldr	r1, [pc, #680]	; 8cec <check_one_cswitch+0x4d0>
    8a40:	e59f02a8 	ldr	r0, [pc, #680]	; 8cf0 <check_one_cswitch+0x4d4>
    8a44:	e1a02008 	mov	r2, r8
    8a48:	eb0000e9 	bl	8df4 <printk>
    8a4c:	e10f5000 	mrs	r5, CPSR
    8a50:	e205301f 	and	r3, r5, #31
    8a54:	e3530012 	cmp	r3, #18
    8a58:	13530010 	cmpne	r3, #16
    8a5c:	0a000006 	beq	8a7c <check_one_cswitch+0x260>
    8a60:	e3530017 	cmp	r3, #23
    8a64:	13530013 	cmpne	r3, #19
    8a68:	0a000005 	beq	8a84 <check_one_cswitch+0x268>
    8a6c:	e353001f 	cmp	r3, #31
    8a70:	1a000005 	bne	8a8c <check_one_cswitch+0x270>
    8a74:	e3a02001 	mov	r2, #1
    8a78:	ea000004 	b	8a90 <check_one_cswitch+0x274>
    8a7c:	e3a02001 	mov	r2, #1
    8a80:	ea000002 	b	8a90 <check_one_cswitch+0x274>
    8a84:	e3a02001 	mov	r2, #1
    8a88:	ea000000 	b	8a90 <check_one_cswitch+0x274>
    8a8c:	e3a02000 	mov	r2, #0
    8a90:	e3520000 	cmp	r2, #0
    8a94:	1a000008 	bne	8abc <check_one_cswitch+0x2a0>
    8a98:	eb0000f0 	bl	8e60 <rpi_reset_putc>
    8a9c:	e59f3218 	ldr	r3, [pc, #536]	; 8cbc <check_one_cswitch+0x4a0>
    8aa0:	e58d3000 	str	r3, [sp]
    8aa4:	e59f0214 	ldr	r0, [pc, #532]	; 8cc0 <check_one_cswitch+0x4a4>
    8aa8:	e59f1214 	ldr	r1, [pc, #532]	; 8cc4 <check_one_cswitch+0x4a8>
    8aac:	e59f2214 	ldr	r2, [pc, #532]	; 8cc8 <check_one_cswitch+0x4ac>
    8ab0:	e3a03011 	mov	r3, #17
    8ab4:	eb0000ce 	bl	8df4 <printk>
    8ab8:	eb000265 	bl	9454 <clean_reboot>
    8abc:	e2433010 	sub	r3, r3, #16
    8ac0:	e353000f 	cmp	r3, #15
    8ac4:	979ff103 	ldrls	pc, [pc, r3, lsl #2]
    8ac8:	ea000019 	b	8b34 <check_one_cswitch+0x318>
    8acc:	00008b54 	andeq	r8, r0, r4, asr fp
    8ad0:	00008b5c 	andeq	r8, r0, ip, asr fp
    8ad4:	00008b0c 	andeq	r8, r0, ip, lsl #22
    8ad8:	00008b14 	andeq	r8, r0, r4, lsl fp
    8adc:	00008b34 	andeq	r8, r0, r4, lsr fp
    8ae0:	00008b34 	andeq	r8, r0, r4, lsr fp
    8ae4:	00008b34 	andeq	r8, r0, r4, lsr fp
    8ae8:	00008b1c 	andeq	r8, r0, ip, lsl fp
    8aec:	00008b34 	andeq	r8, r0, r4, lsr fp
    8af0:	00008b34 	andeq	r8, r0, r4, lsr fp
    8af4:	00008b34 	andeq	r8, r0, r4, lsr fp
    8af8:	00008b24 	andeq	r8, r0, r4, lsr #22
    8afc:	00008b34 	andeq	r8, r0, r4, lsr fp
    8b00:	00008b34 	andeq	r8, r0, r4, lsr fp
    8b04:	00008b34 	andeq	r8, r0, r4, lsr fp
    8b08:	00008b2c 	andeq	r8, r0, ip, lsr #22
    8b0c:	e59f11b8 	ldr	r1, [pc, #440]	; 8ccc <check_one_cswitch+0x4b0>
    8b10:	ea000012 	b	8b60 <check_one_cswitch+0x344>
    8b14:	e59f11b4 	ldr	r1, [pc, #436]	; 8cd0 <check_one_cswitch+0x4b4>
    8b18:	ea000010 	b	8b60 <check_one_cswitch+0x344>
    8b1c:	e59f11b0 	ldr	r1, [pc, #432]	; 8cd4 <check_one_cswitch+0x4b8>
    8b20:	ea00000e 	b	8b60 <check_one_cswitch+0x344>
    8b24:	e59f11ac 	ldr	r1, [pc, #428]	; 8cd8 <check_one_cswitch+0x4bc>
    8b28:	ea00000c 	b	8b60 <check_one_cswitch+0x344>
    8b2c:	e59f11a8 	ldr	r1, [pc, #424]	; 8cdc <check_one_cswitch+0x4c0>
    8b30:	ea00000a 	b	8b60 <check_one_cswitch+0x344>
    8b34:	eb0000c9 	bl	8e60 <rpi_reset_putc>
    8b38:	e58d5000 	str	r5, [sp]
    8b3c:	e59f019c 	ldr	r0, [pc, #412]	; 8ce0 <check_one_cswitch+0x4c4>
    8b40:	e59f117c 	ldr	r1, [pc, #380]	; 8cc4 <check_one_cswitch+0x4a8>
    8b44:	e59f2198 	ldr	r2, [pc, #408]	; 8ce4 <check_one_cswitch+0x4c8>
    8b48:	e3a03021 	mov	r3, #33	; 0x21
    8b4c:	eb0000a8 	bl	8df4 <printk>
    8b50:	eb00023f 	bl	9454 <clean_reboot>
    8b54:	e59f118c 	ldr	r1, [pc, #396]	; 8ce8 <check_one_cswitch+0x4cc>
    8b58:	ea000000 	b	8b60 <check_one_cswitch+0x344>
    8b5c:	e59f1188 	ldr	r1, [pc, #392]	; 8cec <check_one_cswitch+0x4d0>
    8b60:	e10f2000 	mrs	r2, CPSR
    8b64:	e59f0188 	ldr	r0, [pc, #392]	; 8cf4 <check_one_cswitch+0x4d8>
    8b68:	eb0000a1 	bl	8df4 <printk>
    8b6c:	e3a00000 	mov	r0, #0
    8b70:	ebfffe50 	bl	84b8 <brkpt_mismatch_disable0>
    8b74:	e208801f 	and	r8, r8, #31
    8b78:	e3580012 	cmp	r8, #18
    8b7c:	13580010 	cmpne	r8, #16
    8b80:	0a000006 	beq	8ba0 <check_one_cswitch+0x384>
    8b84:	e3580017 	cmp	r8, #23
    8b88:	13580013 	cmpne	r8, #19
    8b8c:	0a000005 	beq	8ba8 <check_one_cswitch+0x38c>
    8b90:	e358001f 	cmp	r8, #31
    8b94:	1a000005 	bne	8bb0 <check_one_cswitch+0x394>
    8b98:	e3a03001 	mov	r3, #1
    8b9c:	ea000004 	b	8bb4 <check_one_cswitch+0x398>
    8ba0:	e3a03001 	mov	r3, #1
    8ba4:	ea000002 	b	8bb4 <check_one_cswitch+0x398>
    8ba8:	e3a03001 	mov	r3, #1
    8bac:	ea000000 	b	8bb4 <check_one_cswitch+0x398>
    8bb0:	e3a03000 	mov	r3, #0
    8bb4:	e3530000 	cmp	r3, #0
    8bb8:	1a000008 	bne	8be0 <check_one_cswitch+0x3c4>
    8bbc:	eb0000a7 	bl	8e60 <rpi_reset_putc>
    8bc0:	e59f30f4 	ldr	r3, [pc, #244]	; 8cbc <check_one_cswitch+0x4a0>
    8bc4:	e58d3000 	str	r3, [sp]
    8bc8:	e59f00f0 	ldr	r0, [pc, #240]	; 8cc0 <check_one_cswitch+0x4a4>
    8bcc:	e59f10f0 	ldr	r1, [pc, #240]	; 8cc4 <check_one_cswitch+0x4a8>
    8bd0:	e59f20f0 	ldr	r2, [pc, #240]	; 8cc8 <check_one_cswitch+0x4ac>
    8bd4:	e3a03011 	mov	r3, #17
    8bd8:	eb000085 	bl	8df4 <printk>
    8bdc:	eb00021c 	bl	9454 <clean_reboot>
    8be0:	e10f3000 	mrs	r3, CPSR
    8be4:	e203301f 	and	r3, r3, #31
    8be8:	e3530012 	cmp	r3, #18
    8bec:	13530010 	cmpne	r3, #16
    8bf0:	0a000006 	beq	8c10 <check_one_cswitch+0x3f4>
    8bf4:	e3530017 	cmp	r3, #23
    8bf8:	13530013 	cmpne	r3, #19
    8bfc:	0a000005 	beq	8c18 <check_one_cswitch+0x3fc>
    8c00:	e353001f 	cmp	r3, #31
    8c04:	1a000005 	bne	8c20 <check_one_cswitch+0x404>
    8c08:	e3a02001 	mov	r2, #1
    8c0c:	ea000004 	b	8c24 <check_one_cswitch+0x408>
    8c10:	e3a02001 	mov	r2, #1
    8c14:	ea000002 	b	8c24 <check_one_cswitch+0x408>
    8c18:	e3a02001 	mov	r2, #1
    8c1c:	ea000000 	b	8c24 <check_one_cswitch+0x408>
    8c20:	e3a02000 	mov	r2, #0
    8c24:	e3520000 	cmp	r2, #0
    8c28:	1a000008 	bne	8c50 <check_one_cswitch+0x434>
    8c2c:	eb00008b 	bl	8e60 <rpi_reset_putc>
    8c30:	e59f3084 	ldr	r3, [pc, #132]	; 8cbc <check_one_cswitch+0x4a0>
    8c34:	e58d3000 	str	r3, [sp]
    8c38:	e59f0080 	ldr	r0, [pc, #128]	; 8cc0 <check_one_cswitch+0x4a4>
    8c3c:	e59f1080 	ldr	r1, [pc, #128]	; 8cc4 <check_one_cswitch+0x4a8>
    8c40:	e59f2080 	ldr	r2, [pc, #128]	; 8cc8 <check_one_cswitch+0x4ac>
    8c44:	e3a03011 	mov	r3, #17
    8c48:	eb000069 	bl	8df4 <printk>
    8c4c:	eb000200 	bl	9454 <clean_reboot>
    8c50:	e1580003 	cmp	r8, r3
    8c54:	0a000008 	beq	8c7c <check_one_cswitch+0x460>
    8c58:	eb000080 	bl	8e60 <rpi_reset_putc>
    8c5c:	e59f3094 	ldr	r3, [pc, #148]	; 8cf8 <check_one_cswitch+0x4dc>
    8c60:	e58d3000 	str	r3, [sp]
    8c64:	e59f0054 	ldr	r0, [pc, #84]	; 8cc0 <check_one_cswitch+0x4a4>
    8c68:	e59f1038 	ldr	r1, [pc, #56]	; 8ca8 <check_one_cswitch+0x48c>
    8c6c:	e59f2038 	ldr	r2, [pc, #56]	; 8cac <check_one_cswitch+0x490>
    8c70:	e3a03058 	mov	r3, #88	; 0x58
    8c74:	eb00005e 	bl	8df4 <printk>
    8c78:	eb0001f5 	bl	9454 <clean_reboot>
    8c7c:	e3a03000 	mov	r3, #0
    8c80:	e5843030 	str	r3, [r4, #48]	; 0x30
    8c84:	e594002c 	ldr	r0, [r4, #44]	; 0x2c
    8c88:	e1500003 	cmp	r0, r3
    8c8c:	13a00000 	movne	r0, #0
    8c90:	03a00001 	moveq	r0, #1
    8c94:	e28dd00c 	add	sp, sp, #12
    8c98:	e8bd8ff0 	pop	{r4, r5, r6, r7, r8, r9, sl, fp, pc}
    8c9c:	0000a224 	andeq	sl, r0, r4, lsr #4
    8ca0:	0000a218 	andeq	sl, r0, r8, lsl r2
    8ca4:	00009df4 	strdeq	r9, [r0], -r4
    8ca8:	00009ccc 	andeq	r9, r0, ip, asr #25
    8cac:	00009f9c 	muleq	r0, ip, pc	; <UNPREDICTABLE>
    8cb0:	00008670 	andeq	r8, r0, r0, ror r6
    8cb4:	00009e2c 	andeq	r9, r0, ip, lsr #28
    8cb8:	00009e74 	andeq	r9, r0, r4, ror lr
    8cbc:	00009eb4 			; <UNDEFINED> instruction: 0x00009eb4
    8cc0:	00009a08 	andeq	r9, r0, r8, lsl #20
    8cc4:	00009ea8 	andeq	r9, r0, r8, lsr #29
    8cc8:	00009fe8 	andeq	r9, r0, r8, ror #31
    8ccc:	00009db8 			; <UNDEFINED> instruction: 0x00009db8
    8cd0:	00009dc4 	andeq	r9, r0, r4, asr #27
    8cd4:	00009dd0 	ldrdeq	r9, [r0], -r0
    8cd8:	00009ddc 	ldrdeq	r9, [r0], -ip
    8cdc:	00009de8 	andeq	r9, r0, r8, ror #27
    8ce0:	00009ec8 	andeq	r9, r0, r8, asr #29
    8ce4:	00009fdc 	ldrdeq	r9, [r0], -ip
    8ce8:	00009da0 	andeq	r9, r0, r0, lsr #27
    8cec:	00009dac 	andeq	r9, r0, ip, lsr #27
    8cf0:	00009eec 	andeq	r9, r0, ip, ror #29
    8cf4:	00009f08 	andeq	r9, r0, r8, lsl #30
    8cf8:	00009f20 	andeq	r9, r0, r0, lsr #30

00008cfc <check_sequential>:
    8cfc:	e92d4038 	push	{r3, r4, r5, lr}
    8d00:	e1a04000 	mov	r4, r0
    8d04:	e3a05000 	mov	r5, #0
    8d08:	ea000015 	b	8d64 <check_sequential+0x68>
    8d0c:	e594300c 	ldr	r3, [r4, #12]
    8d10:	e1a00004 	mov	r0, r4
    8d14:	e12fff33 	blx	r3
    8d18:	e5943004 	ldr	r3, [r4, #4]
    8d1c:	e1a00004 	mov	r0, r4
    8d20:	e12fff33 	blx	r3
    8d24:	e5943008 	ldr	r3, [r4, #8]
    8d28:	e1a00004 	mov	r0, r4
    8d2c:	e12fff33 	blx	r3
    8d30:	e5943010 	ldr	r3, [r4, #16]
    8d34:	e1a00004 	mov	r0, r4
    8d38:	e12fff33 	blx	r3
    8d3c:	e3500000 	cmp	r0, #0
    8d40:	1a000006 	bne	8d60 <check_sequential+0x64>
    8d44:	eb000045 	bl	8e60 <rpi_reset_putc>
    8d48:	e59f0024 	ldr	r0, [pc, #36]	; 8d74 <check_sequential+0x78>
    8d4c:	e59f1024 	ldr	r1, [pc, #36]	; 8d78 <check_sequential+0x7c>
    8d50:	e59f2024 	ldr	r2, [pc, #36]	; 8d7c <check_sequential+0x80>
    8d54:	e3a0306e 	mov	r3, #110	; 0x6e
    8d58:	eb000025 	bl	8df4 <printk>
    8d5c:	eb0001bc 	bl	9454 <clean_reboot>
    8d60:	e2855001 	add	r5, r5, #1
    8d64:	e3550063 	cmp	r5, #99	; 0x63
    8d68:	9affffe7 	bls	8d0c <check_sequential+0x10>
    8d6c:	e3a00001 	mov	r0, #1
    8d70:	e8bd8038 	pop	{r3, r4, r5, pc}
    8d74:	00009f4c 	andeq	r9, r0, ip, asr #30
    8d78:	00009ccc 	andeq	r9, r0, ip, asr #25
    8d7c:	00009f88 	andeq	r9, r0, r8, lsl #31

00008d80 <check_zero>:
    8d80:	e3a03000 	mov	r3, #0
    8d84:	e5803030 	str	r3, [r0, #48]	; 0x30
    8d88:	e580302c 	str	r3, [r0, #44]	; 0x2c
    8d8c:	e5803028 	str	r3, [r0, #40]	; 0x28
    8d90:	e5803024 	str	r3, [r0, #36]	; 0x24
    8d94:	e5803020 	str	r3, [r0, #32]
    8d98:	e580301c 	str	r3, [r0, #28]
    8d9c:	e5803018 	str	r3, [r0, #24]
    8da0:	e5803014 	str	r3, [r0, #20]
    8da4:	e12fff1e 	bx	lr

00008da8 <check>:
    8da8:	e92d4010 	push	{r4, lr}
    8dac:	e1a04000 	mov	r4, r0
    8db0:	ebfffd65 	bl	834c <cp14_enable>
    8db4:	e1a00004 	mov	r0, r4
    8db8:	ebfffff0 	bl	8d80 <check_zero>
    8dbc:	e1a00004 	mov	r0, r4
    8dc0:	ebffffcd 	bl	8cfc <check_sequential>
    8dc4:	e3500000 	cmp	r0, #0
    8dc8:	0a000005 	beq	8de4 <check+0x3c>
    8dcc:	e1a00004 	mov	r0, r4
    8dd0:	ebfffe91 	bl	881c <check_one_cswitch>
    8dd4:	e3500000 	cmp	r0, #0
    8dd8:	0a000003 	beq	8dec <check+0x44>
    8ddc:	e3a00001 	mov	r0, #1
    8de0:	e8bd8010 	pop	{r4, pc}
    8de4:	e3a00000 	mov	r0, #0
    8de8:	e8bd8010 	pop	{r4, pc}
    8dec:	e3a00000 	mov	r0, #0
    8df0:	e8bd8010 	pop	{r4, pc}

00008df4 <printk>:
    8df4:	e92d000f 	push	{r0, r1, r2, r3}
    8df8:	e92d4030 	push	{r4, r5, lr}
    8dfc:	e24dd00c 	sub	sp, sp, #12
    8e00:	e28d301c 	add	r3, sp, #28
    8e04:	e58d3004 	str	r3, [sp, #4]
    8e08:	e59f4034 	ldr	r4, [pc, #52]	; 8e44 <printk+0x50>
    8e0c:	e1a00004 	mov	r0, r4
    8e10:	e3a01b01 	mov	r1, #1024	; 0x400
    8e14:	e59d2018 	ldr	r2, [sp, #24]
    8e18:	eb0000d0 	bl	9160 <va_printk>
    8e1c:	e1a05000 	mov	r5, r0
    8e20:	e59f3020 	ldr	r3, [pc, #32]	; 8e48 <printk+0x54>
    8e24:	e5933000 	ldr	r3, [r3]
    8e28:	e1a00004 	mov	r0, r4
    8e2c:	e12fff33 	blx	r3
    8e30:	e1a00005 	mov	r0, r5
    8e34:	e28dd00c 	add	sp, sp, #12
    8e38:	e8bd4030 	pop	{r4, r5, lr}
    8e3c:	e28dd010 	add	sp, sp, #16
    8e40:	e12fff1e 	bx	lr
    8e44:	0000a22c 	andeq	sl, r0, ip, lsr #4
    8e48:	00009a04 	andeq	r9, r0, r4, lsl #20

00008e4c <internal_putchar>:
    8e4c:	e92d4010 	push	{r4, lr}
    8e50:	e1a04000 	mov	r4, r0
    8e54:	eb000291 	bl	98a0 <uart_putc>
    8e58:	e1a00004 	mov	r0, r4
    8e5c:	e8bd8010 	pop	{r4, pc}

00008e60 <rpi_reset_putc>:
    8e60:	e59f2008 	ldr	r2, [pc, #8]	; 8e70 <rpi_reset_putc+0x10>
    8e64:	e59f3008 	ldr	r3, [pc, #8]	; 8e74 <rpi_reset_putc+0x14>
    8e68:	e5832000 	str	r2, [r3]
    8e6c:	e12fff1e 	bx	lr
    8e70:	00008e4c 	andeq	r8, r0, ip, asr #28
    8e74:	00009a00 	andeq	r9, r0, r0, lsl #20

00008e78 <rpi_set_putc>:
    8e78:	e59f3004 	ldr	r3, [pc, #4]	; 8e84 <rpi_set_putc+0xc>
    8e7c:	e5830000 	str	r0, [r3]
    8e80:	e12fff1e 	bx	lr
    8e84:	00009a00 	andeq	r9, r0, r0, lsl #20

00008e88 <internal_putk>:
    8e88:	e92d4038 	push	{r3, r4, r5, lr}
    8e8c:	e1a04000 	mov	r4, r0
    8e90:	e59f5020 	ldr	r5, [pc, #32]	; 8eb8 <internal_putk+0x30>
    8e94:	ea000002 	b	8ea4 <internal_putk+0x1c>
    8e98:	e5953000 	ldr	r3, [r5]
    8e9c:	e12fff33 	blx	r3
    8ea0:	e2844001 	add	r4, r4, #1
    8ea4:	e5d40000 	ldrb	r0, [r4]
    8ea8:	e3500000 	cmp	r0, #0
    8eac:	1afffff9 	bne	8e98 <internal_putk+0x10>
    8eb0:	e3a00001 	mov	r0, #1
    8eb4:	e8bd8038 	pop	{r3, r4, r5, pc}
    8eb8:	00009a00 	andeq	r9, r0, r0, lsl #20

00008ebc <isdigit>:
    8ebc:	e2400030 	sub	r0, r0, #48	; 0x30
    8ec0:	e3500009 	cmp	r0, #9
    8ec4:	83a00000 	movhi	r0, #0
    8ec8:	93a00001 	movls	r0, #1
    8ecc:	e12fff1e 	bx	lr

00008ed0 <pad>:
    8ed0:	e0611000 	rsb	r1, r1, r0
    8ed4:	e3a03020 	mov	r3, #32
    8ed8:	ea000002 	b	8ee8 <pad+0x18>
    8edc:	e5c03000 	strb	r3, [r0]
    8ee0:	e2811001 	add	r1, r1, #1
    8ee4:	e2800001 	add	r0, r0, #1
    8ee8:	e1510002 	cmp	r1, r2
    8eec:	bafffffa 	blt	8edc <pad+0xc>
    8ef0:	e3a03000 	mov	r3, #0
    8ef4:	e5c03000 	strb	r3, [r0]
    8ef8:	e12fff1e 	bx	lr

00008efc <reverse>:
    8efc:	e063c002 	rsb	ip, r3, r2
    8f00:	e28cc001 	add	ip, ip, #1
    8f04:	e15c0001 	cmp	ip, r1
    8f08:	c061100c 	rsbgt	r1, r1, ip
    8f0c:	c0833001 	addgt	r3, r3, r1
    8f10:	e2422001 	sub	r2, r2, #1
    8f14:	e1a01000 	mov	r1, r0
    8f18:	ea000002 	b	8f28 <reverse+0x2c>
    8f1c:	e452c001 	ldrb	ip, [r2], #-1
    8f20:	e5c1c000 	strb	ip, [r1]
    8f24:	e2811001 	add	r1, r1, #1
    8f28:	e1520003 	cmp	r2, r3
    8f2c:	2afffffa 	bcs	8f1c <reverse+0x20>
    8f30:	e3a03000 	mov	r3, #0
    8f34:	e5c13000 	strb	r3, [r1]
    8f38:	e12fff1e 	bx	lr

00008f3c <emit>:
    8f3c:	e92d41f0 	push	{r4, r5, r6, r7, r8, lr}
    8f40:	e24dd048 	sub	sp, sp, #72	; 0x48
    8f44:	e1a05001 	mov	r5, r1
    8f48:	e1a04002 	mov	r4, r2
    8f4c:	e59d2060 	ldr	r2, [sp, #96]	; 0x60
    8f50:	e1520004 	cmp	r2, r4
    8f54:	c2442001 	subgt	r2, r4, #1
    8f58:	e1a0c003 	mov	ip, r3
    8f5c:	e2400002 	sub	r0, r0, #2
    8f60:	e350000e 	cmp	r0, #14
    8f64:	979ff100 	ldrls	pc, [pc, r0, lsl #2]
    8f68:	ea000048 	b	9090 <emit+0x154>
    8f6c:	00009068 	andeq	r9, r0, r8, rrx
    8f70:	00009090 	muleq	r0, r0, r0
    8f74:	00009090 	muleq	r0, r0, r0
    8f78:	00009090 	muleq	r0, r0, r0
    8f7c:	00009090 	muleq	r0, r0, r0
    8f80:	00009090 	muleq	r0, r0, r0
    8f84:	0000905c 	andeq	r9, r0, ip, asr r0
    8f88:	00009090 	muleq	r0, r0, r0
    8f8c:	00008fa8 	andeq	r8, r0, r8, lsr #31
    8f90:	00009090 	muleq	r0, r0, r0
    8f94:	00009090 	muleq	r0, r0, r0
    8f98:	00009090 	muleq	r0, r0, r0
    8f9c:	00009090 	muleq	r0, r0, r0
    8fa0:	00009090 	muleq	r0, r0, r0
    8fa4:	0000901c 	andeq	r9, r0, ip, lsl r0
    8fa8:	e59d1064 	ldr	r1, [sp, #100]	; 0x64
    8fac:	e2911000 	adds	r1, r1, #0
    8fb0:	13a01001 	movne	r1, #1
    8fb4:	e0111fa3 	ands	r1, r1, r3, lsr #31
    8fb8:	1263c000 	rsbne	ip, r3, #0
    8fbc:	13a08001 	movne	r8, #1
    8fc0:	03a08000 	moveq	r8, #0
    8fc4:	e28d1008 	add	r1, sp, #8
    8fc8:	e59f7108 	ldr	r7, [pc, #264]	; 90d8 <emit+0x19c>
    8fcc:	e59f6108 	ldr	r6, [pc, #264]	; 90dc <emit+0x1a0>
    8fd0:	ea000000 	b	8fd8 <emit+0x9c>
    8fd4:	e1a01000 	mov	r1, r0
    8fd8:	e2810001 	add	r0, r1, #1
    8fdc:	e083ec97 	umull	lr, r3, r7, ip
    8fe0:	e1a031a3 	lsr	r3, r3, #3
    8fe4:	e1a0e003 	mov	lr, r3
    8fe8:	e0833103 	add	r3, r3, r3, lsl #2
    8fec:	e1a03083 	lsl	r3, r3, #1
    8ff0:	e063300c 	rsb	r3, r3, ip
    8ff4:	e7d63003 	ldrb	r3, [r6, r3]
    8ff8:	e5c13000 	strb	r3, [r1]
    8ffc:	e1a0c00e 	mov	ip, lr
    9000:	e35e0000 	cmp	lr, #0
    9004:	1afffff2 	bne	8fd4 <emit+0x98>
    9008:	e3580000 	cmp	r8, #0
    900c:	12810002 	addne	r0, r1, #2
    9010:	13a0302d 	movne	r3, #45	; 0x2d
    9014:	15c13001 	strbne	r3, [r1, #1]
    9018:	ea000025 	b	90b4 <emit+0x178>
    901c:	e28d3008 	add	r3, sp, #8
    9020:	e59fe0b8 	ldr	lr, [pc, #184]	; 90e0 <emit+0x1a4>
    9024:	ea000000 	b	902c <emit+0xf0>
    9028:	e1a03000 	mov	r3, r0
    902c:	e2830001 	add	r0, r3, #1
    9030:	e20c100f 	and	r1, ip, #15
    9034:	e7de1001 	ldrb	r1, [lr, r1]
    9038:	e5c31000 	strb	r1, [r3]
    903c:	e1b0c22c 	lsrs	ip, ip, #4
    9040:	1afffff8 	bne	9028 <emit+0xec>
    9044:	e3a01078 	mov	r1, #120	; 0x78
    9048:	e5c31001 	strb	r1, [r3, #1]
    904c:	e2830003 	add	r0, r3, #3
    9050:	e3a01030 	mov	r1, #48	; 0x30
    9054:	e5c31002 	strb	r1, [r3, #2]
    9058:	ea000015 	b	90b4 <emit+0x178>
    905c:	e5cd3008 	strb	r3, [sp, #8]
    9060:	e28d0009 	add	r0, sp, #9
    9064:	ea000012 	b	90b4 <emit+0x178>
    9068:	e28d3008 	add	r3, sp, #8
    906c:	e59fe070 	ldr	lr, [pc, #112]	; 90e4 <emit+0x1a8>
    9070:	e2830001 	add	r0, r3, #1
    9074:	e20c1001 	and	r1, ip, #1
    9078:	e7de1001 	ldrb	r1, [lr, r1]
    907c:	e5c31000 	strb	r1, [r3]
    9080:	e1a03000 	mov	r3, r0
    9084:	e1b0c0ac 	lsrs	ip, ip, #1
    9088:	1afffff8 	bne	9070 <emit+0x134>
    908c:	ea000008 	b	90b4 <emit+0x178>
    9090:	ebffff72 	bl	8e60 <rpi_reset_putc>
    9094:	e59f304c 	ldr	r3, [pc, #76]	; 90e8 <emit+0x1ac>
    9098:	e58d3000 	str	r3, [sp]
    909c:	e59f0048 	ldr	r0, [pc, #72]	; 90ec <emit+0x1b0>
    90a0:	e59f1048 	ldr	r1, [pc, #72]	; 90f0 <emit+0x1b4>
    90a4:	e59f2048 	ldr	r2, [pc, #72]	; 90f4 <emit+0x1b8>
    90a8:	e3a03077 	mov	r3, #119	; 0x77
    90ac:	ebffff50 	bl	8df4 <printk>
    90b0:	eb0000e7 	bl	9454 <clean_reboot>
    90b4:	e28d1008 	add	r1, sp, #8
    90b8:	ebffff84 	bl	8ed0 <pad>
    90bc:	e1a02000 	mov	r2, r0
    90c0:	e1a00005 	mov	r0, r5
    90c4:	e1a01004 	mov	r1, r4
    90c8:	e28d3008 	add	r3, sp, #8
    90cc:	ebffff8a 	bl	8efc <reverse>
    90d0:	e28dd048 	add	sp, sp, #72	; 0x48
    90d4:	e8bd81f0 	pop	{r4, r5, r6, r7, r8, pc}
    90d8:	cccccccd 	stclgt	12, cr12, [ip], {205}	; 0xcd
    90dc:	0000a03c 	andeq	sl, r0, ip, lsr r0
    90e0:	0000a048 	andeq	sl, r0, r8, asr #32
    90e4:	0000a05c 	andeq	sl, r0, ip, asr r0
    90e8:	0000a038 	andeq	sl, r0, r8, lsr r0
    90ec:	00009a08 	andeq	r9, r0, r8, lsl #20
    90f0:	0000a024 	andeq	sl, r0, r4, lsr #32
    90f4:	0000a000 	andeq	sl, r0, r0

000090f8 <rpi_set_output>:
    90f8:	e52de004 	push	{lr}		; (str lr, [sp, #-4]!)
    90fc:	e24dd00c 	sub	sp, sp, #12
    9100:	e3500000 	cmp	r0, #0
    9104:	1a000008 	bne	912c <rpi_set_output+0x34>
    9108:	ebffff54 	bl	8e60 <rpi_reset_putc>
    910c:	e59f3034 	ldr	r3, [pc, #52]	; 9148 <rpi_set_output+0x50>
    9110:	e58d3000 	str	r3, [sp]
    9114:	e59f0030 	ldr	r0, [pc, #48]	; 914c <rpi_set_output+0x54>
    9118:	e59f1030 	ldr	r1, [pc, #48]	; 9150 <rpi_set_output+0x58>
    911c:	e59f2030 	ldr	r2, [pc, #48]	; 9154 <rpi_set_output+0x5c>
    9120:	e3a03020 	mov	r3, #32
    9124:	ebffff32 	bl	8df4 <printk>
    9128:	eb0000c9 	bl	9454 <clean_reboot>
    912c:	e59f3024 	ldr	r3, [pc, #36]	; 9158 <rpi_set_output+0x60>
    9130:	e5830000 	str	r0, [r3]
    9134:	e3510000 	cmp	r1, #0
    9138:	159f301c 	ldrne	r3, [pc, #28]	; 915c <rpi_set_output+0x64>
    913c:	15831000 	strne	r1, [r3]
    9140:	e28dd00c 	add	sp, sp, #12
    9144:	e49df004 	pop	{pc}		; (ldr pc, [sp], #4)
    9148:	0000a060 	andeq	sl, r0, r0, rrx
    914c:	00009a08 	andeq	r9, r0, r8, lsl #20
    9150:	0000a024 	andeq	sl, r0, r4, lsr #32
    9154:	0000a008 	andeq	sl, r0, r8
    9158:	00009a00 	andeq	r9, r0, r0, lsl #20
    915c:	00009a04 	andeq	r9, r0, r4, lsl #20

00009160 <va_printk>:
    9160:	e92d4ff0 	push	{r4, r5, r6, r7, r8, r9, sl, fp, lr}
    9164:	e24dd094 	sub	sp, sp, #148	; 0x94
    9168:	e1a0b000 	mov	fp, r0
    916c:	e58d200c 	str	r2, [sp, #12]
    9170:	e1a0a003 	mov	sl, r3
    9174:	e2411001 	sub	r1, r1, #1
    9178:	e0808001 	add	r8, r0, r1
    917c:	e3a03000 	mov	r3, #0
    9180:	e5c03000 	strb	r3, [r0]
    9184:	e1a04000 	mov	r4, r0
    9188:	e1a06002 	mov	r6, r2
    918c:	ea000095 	b	93e8 <va_printk+0x288>
    9190:	e3530025 	cmp	r3, #37	; 0x25
    9194:	12866001 	addne	r6, r6, #1
    9198:	15c43000 	strbne	r3, [r4]
    919c:	12844001 	addne	r4, r4, #1
    91a0:	1a000090 	bne	93e8 <va_printk+0x288>
    91a4:	e5d62001 	ldrb	r2, [r6, #1]
    91a8:	e3520025 	cmp	r2, #37	; 0x25
    91ac:	05c43000 	strbeq	r3, [r4]
    91b0:	02866002 	addeq	r6, r6, #2
    91b4:	02844001 	addeq	r4, r4, #1
    91b8:	0a00008a 	beq	93e8 <va_printk+0x288>
    91bc:	e2866001 	add	r6, r6, #1
    91c0:	e3a07000 	mov	r7, #0
    91c4:	ea000004 	b	91dc <va_printk+0x7c>
    91c8:	e0877107 	add	r7, r7, r7, lsl #2
    91cc:	e1a07087 	lsl	r7, r7, #1
    91d0:	e0877005 	add	r7, r7, r5
    91d4:	e2477030 	sub	r7, r7, #48	; 0x30
    91d8:	e2866001 	add	r6, r6, #1
    91dc:	e5d65000 	ldrb	r5, [r6]
    91e0:	e1a09005 	mov	r9, r5
    91e4:	e1a00005 	mov	r0, r5
    91e8:	ebffff33 	bl	8ebc <isdigit>
    91ec:	e3500000 	cmp	r0, #0
    91f0:	1afffff4 	bne	91c8 <va_printk+0x68>
    91f4:	e357001f 	cmp	r7, #31
    91f8:	9a000008 	bls	9220 <va_printk+0xc0>
    91fc:	ebffff17 	bl	8e60 <rpi_reset_putc>
    9200:	e59f320c 	ldr	r3, [pc, #524]	; 9414 <va_printk+0x2b4>
    9204:	e58d3000 	str	r3, [sp]
    9208:	e59f0208 	ldr	r0, [pc, #520]	; 9418 <va_printk+0x2b8>
    920c:	e59f1208 	ldr	r1, [pc, #520]	; 941c <va_printk+0x2bc>
    9210:	e59f2208 	ldr	r2, [pc, #520]	; 9420 <va_printk+0x2c0>
    9214:	e3a03095 	mov	r3, #149	; 0x95
    9218:	ebfffef5 	bl	8df4 <printk>
    921c:	eb00008c 	bl	9454 <clean_reboot>
    9220:	e2455062 	sub	r5, r5, #98	; 0x62
    9224:	e3550016 	cmp	r5, #22
    9228:	979ff105 	ldrls	pc, [pc, r5, lsl #2]
    922c:	ea000052 	b	937c <va_printk+0x21c>
    9230:	00009320 	andeq	r9, r0, r0, lsr #6
    9234:	00009354 	andeq	r9, r0, r4, asr r3
    9238:	000092a8 	andeq	r9, r0, r8, lsr #5
    923c:	0000937c 	andeq	r9, r0, ip, ror r3
    9240:	0000928c 	andeq	r9, r0, ip, lsl #5
    9244:	0000937c 	andeq	r9, r0, ip, ror r3
    9248:	0000937c 	andeq	r9, r0, ip, ror r3
    924c:	0000937c 	andeq	r9, r0, ip, ror r3
    9250:	0000937c 	andeq	r9, r0, ip, ror r3
    9254:	0000937c 	andeq	r9, r0, ip, ror r3
    9258:	0000937c 	andeq	r9, r0, ip, ror r3
    925c:	0000937c 	andeq	r9, r0, ip, ror r3
    9260:	0000937c 	andeq	r9, r0, ip, ror r3
    9264:	0000937c 	andeq	r9, r0, ip, ror r3
    9268:	000092f8 	strdeq	r9, [r0], -r8
    926c:	0000937c 	andeq	r9, r0, ip, ror r3
    9270:	0000937c 	andeq	r9, r0, ip, ror r3
    9274:	00009348 	andeq	r9, r0, r8, asr #6
    9278:	0000937c 	andeq	r9, r0, ip, ror r3
    927c:	000092d0 	ldrdeq	r9, [r0], -r0
    9280:	0000937c 	andeq	r9, r0, ip, ror r3
    9284:	0000937c 	andeq	r9, r0, ip, ror r3
    9288:	000092f8 	strdeq	r9, [r0], -r8
    928c:	ebfffef3 	bl	8e60 <rpi_reset_putc>
    9290:	e59f018c 	ldr	r0, [pc, #396]	; 9424 <va_printk+0x2c4>
    9294:	e59f1180 	ldr	r1, [pc, #384]	; 941c <va_printk+0x2bc>
    9298:	e59f2180 	ldr	r2, [pc, #384]	; 9420 <va_printk+0x2c0>
    929c:	e3a0309b 	mov	r3, #155	; 0x9b
    92a0:	ebfffed3 	bl	8df4 <printk>
    92a4:	eb00006a 	bl	9454 <clean_reboot>
    92a8:	e59a3000 	ldr	r3, [sl]
    92ac:	e28aa004 	add	sl, sl, #4
    92b0:	e58d7000 	str	r7, [sp]
    92b4:	e3a02001 	mov	r2, #1
    92b8:	e58d2004 	str	r2, [sp, #4]
    92bc:	e3a0000a 	mov	r0, #10
    92c0:	e28d1010 	add	r1, sp, #16
    92c4:	e3a02080 	mov	r2, #128	; 0x80
    92c8:	ebffff1b 	bl	8f3c <emit>
    92cc:	ea00003b 	b	93c0 <va_printk+0x260>
    92d0:	e59a3000 	ldr	r3, [sl]
    92d4:	e28aa004 	add	sl, sl, #4
    92d8:	e58d7000 	str	r7, [sp]
    92dc:	e3a02000 	mov	r2, #0
    92e0:	e58d2004 	str	r2, [sp, #4]
    92e4:	e3a0000a 	mov	r0, #10
    92e8:	e28d1010 	add	r1, sp, #16
    92ec:	e3a02080 	mov	r2, #128	; 0x80
    92f0:	ebffff11 	bl	8f3c <emit>
    92f4:	ea000031 	b	93c0 <va_printk+0x260>
    92f8:	e59a3000 	ldr	r3, [sl]
    92fc:	e28aa004 	add	sl, sl, #4
    9300:	e58d7000 	str	r7, [sp]
    9304:	e3a02000 	mov	r2, #0
    9308:	e58d2004 	str	r2, [sp, #4]
    930c:	e3a00010 	mov	r0, #16
    9310:	e08d1000 	add	r1, sp, r0
    9314:	e3a02080 	mov	r2, #128	; 0x80
    9318:	ebffff07 	bl	8f3c <emit>
    931c:	ea000027 	b	93c0 <va_printk+0x260>
    9320:	e59a3000 	ldr	r3, [sl]
    9324:	e28aa004 	add	sl, sl, #4
    9328:	e58d7000 	str	r7, [sp]
    932c:	e3a02000 	mov	r2, #0
    9330:	e58d2004 	str	r2, [sp, #4]
    9334:	e3a00002 	mov	r0, #2
    9338:	e28d1010 	add	r1, sp, #16
    933c:	e3a02080 	mov	r2, #128	; 0x80
    9340:	ebfffefd 	bl	8f3c <emit>
    9344:	ea00001d 	b	93c0 <va_printk+0x260>
    9348:	e59a0000 	ldr	r0, [sl]
    934c:	e28aa004 	add	sl, sl, #4
    9350:	ea00001a 	b	93c0 <va_printk+0x260>
    9354:	e59a3000 	ldr	r3, [sl]
    9358:	e28aa004 	add	sl, sl, #4
    935c:	e58d7000 	str	r7, [sp]
    9360:	e3a02000 	mov	r2, #0
    9364:	e58d2004 	str	r2, [sp, #4]
    9368:	e3a00008 	mov	r0, #8
    936c:	e28d1010 	add	r1, sp, #16
    9370:	e3a02080 	mov	r2, #128	; 0x80
    9374:	ebfffef0 	bl	8f3c <emit>
    9378:	ea000010 	b	93c0 <va_printk+0x260>
    937c:	e3a03000 	mov	r3, #0
    9380:	e5c63001 	strb	r3, [r6, #1]
    9384:	e59f009c 	ldr	r0, [pc, #156]	; 9428 <va_printk+0x2c8>
    9388:	e1a01009 	mov	r1, r9
    938c:	e1a02009 	mov	r2, r9
    9390:	ebfffe97 	bl	8df4 <printk>
    9394:	e59f3090 	ldr	r3, [pc, #144]	; 942c <va_printk+0x2cc>
    9398:	e5933000 	ldr	r3, [r3]
    939c:	e59d000c 	ldr	r0, [sp, #12]
    93a0:	e12fff33 	blx	r3
    93a4:	ebfffead 	bl	8e60 <rpi_reset_putc>
    93a8:	e59f0080 	ldr	r0, [pc, #128]	; 9430 <va_printk+0x2d0>
    93ac:	e59f1068 	ldr	r1, [pc, #104]	; 941c <va_printk+0x2bc>
    93b0:	e59f2068 	ldr	r2, [pc, #104]	; 9420 <va_printk+0x2c0>
    93b4:	e3a030bf 	mov	r3, #191	; 0xbf
    93b8:	ebfffe8d 	bl	8df4 <printk>
    93bc:	eb000024 	bl	9454 <clean_reboot>
    93c0:	e2866001 	add	r6, r6, #1
    93c4:	ea000002 	b	93d4 <va_printk+0x274>
    93c8:	e2800001 	add	r0, r0, #1
    93cc:	e5c43000 	strb	r3, [r4]
    93d0:	e2844001 	add	r4, r4, #1
    93d4:	e1540008 	cmp	r4, r8
    93d8:	2a000002 	bcs	93e8 <va_printk+0x288>
    93dc:	e5d03000 	ldrb	r3, [r0]
    93e0:	e3530000 	cmp	r3, #0
    93e4:	1afffff7 	bne	93c8 <va_printk+0x268>
    93e8:	e5d63000 	ldrb	r3, [r6]
    93ec:	e3530000 	cmp	r3, #0
    93f0:	0a000001 	beq	93fc <va_printk+0x29c>
    93f4:	e1540008 	cmp	r4, r8
    93f8:	3affff64 	bcc	9190 <va_printk+0x30>
    93fc:	e2840001 	add	r0, r4, #1
    9400:	e3a03000 	mov	r3, #0
    9404:	e5c43000 	strb	r3, [r4]
    9408:	e06b0000 	rsb	r0, fp, r0
    940c:	e28dd094 	add	sp, sp, #148	; 0x94
    9410:	e8bd8ff0 	pop	{r4, r5, r6, r7, r8, r9, sl, fp, pc}
    9414:	0000a068 	andeq	sl, r0, r8, rrx
    9418:	00009a08 	andeq	r9, r0, r8, lsl #20
    941c:	0000a024 	andeq	sl, r0, r4, lsr #32
    9420:	0000a018 	andeq	sl, r0, r8, lsl r0
    9424:	0000a074 	andeq	sl, r0, r4, ror r0
    9428:	0000a09c 	muleq	r0, ip, r0
    942c:	00009a04 	andeq	r9, r0, r4, lsl #20
    9430:	0000a0cc 	andeq	sl, r0, ip, asr #1

00009434 <enable_cache>:
    9434:	ee113f10 	mrc	15, 0, r3, cr1, cr0, {0}
    9438:	e3833b06 	orr	r3, r3, #6144	; 0x1800
    943c:	ee013f10 	mcr	15, 0, r3, cr1, cr0, {0}
    9440:	e12fff1e 	bx	lr

00009444 <disable_cache>:
    9444:	ee113f10 	mrc	15, 0, r3, cr1, cr0, {0}
    9448:	e3c33b06 	bic	r3, r3, #6144	; 0x1800
    944c:	ee013f10 	mcr	15, 0, r3, cr1, cr0, {0}
    9450:	e12fff1e 	bx	lr

00009454 <clean_reboot>:
    9454:	e92d4008 	push	{r3, lr}
    9458:	eb00004a 	bl	9588 <reboot_handler>
    945c:	e59f3014 	ldr	r3, [pc, #20]	; 9478 <clean_reboot+0x24>
    9460:	e5933000 	ldr	r3, [r3]
    9464:	e59f0010 	ldr	r0, [pc, #16]	; 947c <clean_reboot+0x28>
    9468:	e12fff33 	blx	r3
    946c:	e3a00064 	mov	r0, #100	; 0x64
    9470:	eb000099 	bl	96dc <delay_ms>
    9474:	eb00006a 	bl	9624 <rpi_reboot>
    9478:	00009a04 	andeq	r9, r0, r4, lsl #20
    947c:	0000a0ec 	andeq	sl, r0, ip, ror #1

00009480 <_cstart>:
    9480:	e92d4008 	push	{r3, lr}
    9484:	e59f3024 	ldr	r3, [pc, #36]	; 94b0 <_cstart+0x30>
    9488:	e59f2024 	ldr	r2, [pc, #36]	; 94b4 <_cstart+0x34>
    948c:	e3a01000 	mov	r1, #0
    9490:	ea000001 	b	949c <_cstart+0x1c>
    9494:	e5831000 	str	r1, [r3]
    9498:	e2833004 	add	r3, r3, #4
    949c:	e1530002 	cmp	r3, r2
    94a0:	3afffffb 	bcc	9494 <_cstart+0x14>
    94a4:	eb000036 	bl	9584 <cstart_handler>
    94a8:	ebfffb03 	bl	80bc <notmain>
    94ac:	ebffffe8 	bl	9454 <clean_reboot>
    94b0:	0000a210 	andeq	sl, r0, r0, lsl r2
    94b4:	0000a630 	andeq	sl, r0, r0, lsr r6

000094b8 <fast_interrupt_vector>:
    94b8:	e52de004 	push	{lr}		; (str lr, [sp, #-4]!)
    94bc:	e24dd00c 	sub	sp, sp, #12
    94c0:	e1a04000 	mov	r4, r0
    94c4:	ebfffe65 	bl	8e60 <rpi_reset_putc>
    94c8:	e59f301c 	ldr	r3, [pc, #28]	; 94ec <fast_interrupt_vector+0x34>
    94cc:	e58d3000 	str	r3, [sp]
    94d0:	e58d4004 	str	r4, [sp, #4]
    94d4:	e59f0014 	ldr	r0, [pc, #20]	; 94f0 <fast_interrupt_vector+0x38>
    94d8:	e59f1014 	ldr	r1, [pc, #20]	; 94f4 <fast_interrupt_vector+0x3c>
    94dc:	e59f2014 	ldr	r2, [pc, #20]	; 94f8 <fast_interrupt_vector+0x40>
    94e0:	e3a03002 	mov	r3, #2
    94e4:	ebfffe42 	bl	8df4 <printk>
    94e8:	ebffffd9 	bl	9454 <clean_reboot>
    94ec:	0000a170 	andeq	sl, r0, r0, ror r1
    94f0:	0000a110 	andeq	sl, r0, r0, lsl r1
    94f4:	0000a14c 	andeq	sl, r0, ip, asr #2
    94f8:	0000a0f8 	strdeq	sl, [r0], -r8

000094fc <reset_vector>:
    94fc:	e52de004 	push	{lr}		; (str lr, [sp, #-4]!)
    9500:	e24dd00c 	sub	sp, sp, #12
    9504:	e1a04000 	mov	r4, r0
    9508:	ebfffe54 	bl	8e60 <rpi_reset_putc>
    950c:	e59f301c 	ldr	r3, [pc, #28]	; 9530 <reset_vector+0x34>
    9510:	e58d3000 	str	r3, [sp]
    9514:	e58d4004 	str	r4, [sp, #4]
    9518:	e59f0014 	ldr	r0, [pc, #20]	; 9534 <reset_vector+0x38>
    951c:	e59f1014 	ldr	r1, [pc, #20]	; 9538 <reset_vector+0x3c>
    9520:	e59f2014 	ldr	r2, [pc, #20]	; 953c <reset_vector+0x40>
    9524:	e3a03002 	mov	r3, #2
    9528:	ebfffe31 	bl	8df4 <printk>
    952c:	ebffffc8 	bl	9454 <clean_reboot>
    9530:	0000a1ac 	andeq	sl, r0, ip, lsr #3
    9534:	0000a110 	andeq	sl, r0, r0, lsl r1
    9538:	0000a188 	andeq	sl, r0, r8, lsl #3
    953c:	0000a178 	andeq	sl, r0, r8, ror r1

00009540 <undefined_instruction_vector>:
    9540:	e52de004 	push	{lr}		; (str lr, [sp, #-4]!)
    9544:	e24dd00c 	sub	sp, sp, #12
    9548:	e1a04000 	mov	r4, r0
    954c:	ebfffe43 	bl	8e60 <rpi_reset_putc>
    9550:	e59f301c 	ldr	r3, [pc, #28]	; 9574 <undefined_instruction_vector+0x34>
    9554:	e58d3000 	str	r3, [sp]
    9558:	e58d4004 	str	r4, [sp, #4]
    955c:	e59f0014 	ldr	r0, [pc, #20]	; 9578 <undefined_instruction_vector+0x38>
    9560:	e59f1014 	ldr	r1, [pc, #20]	; 957c <undefined_instruction_vector+0x3c>
    9564:	e59f2014 	ldr	r2, [pc, #20]	; 9580 <undefined_instruction_vector+0x40>
    9568:	e3a03002 	mov	r3, #2
    956c:	ebfffe20 	bl	8df4 <printk>
    9570:	ebffffb7 	bl	9454 <clean_reboot>
    9574:	0000a200 	andeq	sl, r0, r0, lsl #4
    9578:	0000a110 	andeq	sl, r0, r0, lsl r1
    957c:	0000a1d4 	ldrdeq	sl, [r0], -r4
    9580:	0000a1b4 			; <UNDEFINED> instruction: 0x0000a1b4

00009584 <cstart_handler>:
    9584:	e12fff1e 	bx	lr

00009588 <reboot_handler>:
    9588:	e12fff1e 	bx	lr

0000958c <int_init>:
    958c:	e92d4008 	push	{r3, lr}
    9590:	eb00005b 	bl	9704 <dev_barrier>
    9594:	e59f004c 	ldr	r0, [pc, #76]	; 95e8 <int_init+0x5c>
    9598:	e3e01000 	mvn	r1, #0
    959c:	eb000060 	bl	9724 <PUT32>
    95a0:	e59f0044 	ldr	r0, [pc, #68]	; 95ec <int_init+0x60>
    95a4:	e3e01000 	mvn	r1, #0
    95a8:	eb00005d 	bl	9724 <PUT32>
    95ac:	eb000054 	bl	9704 <dev_barrier>
    95b0:	e59f3038 	ldr	r3, [pc, #56]	; 95f0 <int_init+0x64>
    95b4:	e59f0038 	ldr	r0, [pc, #56]	; 95f4 <int_init+0x68>
    95b8:	e0630000 	rsb	r0, r3, r0
    95bc:	e1a00140 	asr	r0, r0, #2
    95c0:	e3a03000 	mov	r3, #0
    95c4:	e59fc024 	ldr	ip, [pc, #36]	; 95f0 <int_init+0x64>
    95c8:	ea000003 	b	95dc <int_init+0x50>
    95cc:	e1a02103 	lsl	r2, r3, #2
    95d0:	e79c1103 	ldr	r1, [ip, r3, lsl #2]
    95d4:	e5821000 	str	r1, [r2]
    95d8:	e2833001 	add	r3, r3, #1
    95dc:	e1530000 	cmp	r3, r0
    95e0:	3afffff9 	bcc	95cc <int_init+0x40>
    95e4:	e8bd8008 	pop	{r3, pc}
    95e8:	2000b21c 	andcs	fp, r0, ip, lsl r2
    95ec:	2000b220 	andcs	fp, r0, r0, lsr #4
    95f0:	00008538 	andeq	r8, r0, r8, lsr r5
    95f4:	00008578 	andeq	r8, r0, r8, ror r5

000095f8 <at_user_level>:
    95f8:	e10f0000 	mrs	r0, CPSR
    95fc:	e200001f 	and	r0, r0, #31
    9600:	e3500010 	cmp	r0, #16
    9604:	13a00000 	movne	r0, #0
    9608:	03a00001 	moveq	r0, #1
    960c:	e12fff1e 	bx	lr

00009610 <set_user_level>:
    9610:	e10f3000 	mrs	r3, CPSR
    9614:	e3c3301f 	bic	r3, r3, #31
    9618:	e3833010 	orr	r3, r3, #16
    961c:	e129f003 	msr	CPSR_fc, r3
    9620:	e12fff1e 	bx	lr

00009624 <rpi_reboot>:
    9624:	e92d4008 	push	{r3, lr}
    9628:	ebfffff2 	bl	95f8 <at_user_level>
    962c:	e3500000 	cmp	r0, #0
    9630:	0a000000 	beq	9638 <rpi_reboot+0x14>
    9634:	ebfffff5 	bl	9610 <set_user_level>
    9638:	e3a0001e 	mov	r0, #30
    963c:	eb000026 	bl	96dc <delay_ms>
    9640:	e59f0014 	ldr	r0, [pc, #20]	; 965c <rpi_reboot+0x38>
    9644:	e59f1014 	ldr	r1, [pc, #20]	; 9660 <rpi_reboot+0x3c>
    9648:	eb000035 	bl	9724 <PUT32>
    964c:	e59f0010 	ldr	r0, [pc, #16]	; 9664 <rpi_reboot+0x40>
    9650:	e59f1010 	ldr	r1, [pc, #16]	; 9668 <rpi_reboot+0x44>
    9654:	eb000032 	bl	9724 <PUT32>
    9658:	eafffffe 	b	9658 <rpi_reboot+0x34>
    965c:	20100024 	andscs	r0, r0, r4, lsr #32
    9660:	5a000001 	bpl	966c <delay_cycles>
    9664:	2010001c 	andscs	r0, r0, ip, lsl r0
    9668:	5a000020 	bpl	96f0 <delay_sec>

0000966c <delay_cycles>:
    966c:	ea000001 	b	9678 <delay_cycles+0xc>
    9670:	e2811000 	add	r1, r1, #0
    9674:	e1a00003 	mov	r0, r3
    9678:	e2403001 	sub	r3, r0, #1
    967c:	e3500000 	cmp	r0, #0
    9680:	1afffffa 	bne	9670 <delay_cycles+0x4>
    9684:	e12fff1e 	bx	lr

00009688 <timer_get_usec_raw>:
    9688:	e92d4008 	push	{r3, lr}
    968c:	e59f0004 	ldr	r0, [pc, #4]	; 9698 <timer_get_usec_raw+0x10>
    9690:	eb00002f 	bl	9754 <GET32>
    9694:	e8bd8008 	pop	{r3, pc}
    9698:	20003004 	andcs	r3, r0, r4

0000969c <timer_get_usec>:
    969c:	e92d4010 	push	{r4, lr}
    96a0:	eb000017 	bl	9704 <dev_barrier>
    96a4:	ebfffff7 	bl	9688 <timer_get_usec_raw>
    96a8:	e1a04000 	mov	r4, r0
    96ac:	eb000014 	bl	9704 <dev_barrier>
    96b0:	e1a00004 	mov	r0, r4
    96b4:	e8bd8010 	pop	{r4, pc}

000096b8 <delay_us>:
    96b8:	e92d4038 	push	{r3, r4, r5, lr}
    96bc:	e1a05000 	mov	r5, r0
    96c0:	ebfffff5 	bl	969c <timer_get_usec>
    96c4:	e1a04000 	mov	r4, r0
    96c8:	ebfffff3 	bl	969c <timer_get_usec>
    96cc:	e0640000 	rsb	r0, r4, r0
    96d0:	e1500005 	cmp	r0, r5
    96d4:	3afffffb 	bcc	96c8 <delay_us+0x10>
    96d8:	e8bd8038 	pop	{r3, r4, r5, pc}

000096dc <delay_ms>:
    96dc:	e92d4008 	push	{r3, lr}
    96e0:	e3a03ffa 	mov	r3, #1000	; 0x3e8
    96e4:	e0000093 	mul	r0, r3, r0
    96e8:	ebfffff2 	bl	96b8 <delay_us>
    96ec:	e8bd8008 	pop	{r3, pc}

000096f0 <delay_sec>:
    96f0:	e92d4008 	push	{r3, lr}
    96f4:	e3a03ffa 	mov	r3, #1000	; 0x3e8
    96f8:	e0000093 	mul	r0, r3, r0
    96fc:	ebfffff6 	bl	96dc <delay_ms>
    9700:	e8bd8008 	pop	{r3, pc}

00009704 <dev_barrier>:
    9704:	ea000002 	b	9714 <dsb>

00009708 <dmb>:
    9708:	e3a00000 	mov	r0, #0
    970c:	ee070fba 	mcr	15, 0, r0, cr7, cr10, {5}
    9710:	e12fff1e 	bx	lr

00009714 <dsb>:
    9714:	ee070f9a 	mcr	15, 0, r0, cr7, cr10, {4}
    9718:	e12fff1e 	bx	lr

0000971c <put32>:
    971c:	e5801000 	str	r1, [r0]
    9720:	e12fff1e 	bx	lr

00009724 <PUT32>:
    9724:	e5801000 	str	r1, [r0]
    9728:	e12fff1e 	bx	lr

0000972c <put16>:
    972c:	e1c010b0 	strh	r1, [r0]
    9730:	e12fff1e 	bx	lr

00009734 <PUT16>:
    9734:	e1c010b0 	strh	r1, [r0]
    9738:	e12fff1e 	bx	lr

0000973c <put8>:
    973c:	e5c01000 	strb	r1, [r0]
    9740:	e12fff1e 	bx	lr

00009744 <PUT8>:
    9744:	e5c01000 	strb	r1, [r0]
    9748:	e12fff1e 	bx	lr

0000974c <get32>:
    974c:	e5900000 	ldr	r0, [r0]
    9750:	e12fff1e 	bx	lr

00009754 <GET32>:
    9754:	e5900000 	ldr	r0, [r0]
    9758:	e12fff1e 	bx	lr

0000975c <GETPC>:
    975c:	e1a0000e 	mov	r0, lr
    9760:	e12fff1e 	bx	lr

00009764 <dummy>:
    9764:	e12fff1e 	bx	lr

00009768 <or_in32>:
    9768:	e92d4070 	push	{r4, r5, r6, lr}
    976c:	e1a04000 	mov	r4, r0
    9770:	e1a05001 	mov	r5, r1
    9774:	ebfffff4 	bl	974c <get32>
    9778:	e1801005 	orr	r1, r0, r5
    977c:	e1a00004 	mov	r0, r4
    9780:	ebffffe5 	bl	971c <put32>
    9784:	e8bd8070 	pop	{r4, r5, r6, pc}

00009788 <uart_init>:
    9788:	e92d4010 	push	{r4, lr}
    978c:	e3a01002 	mov	r1, #2
    9790:	e3a0000e 	mov	r0, #14
    9794:	eb000051 	bl	98e0 <gpio_set_function>
    9798:	e3a01002 	mov	r1, #2
    979c:	e3a0000f 	mov	r0, #15
    97a0:	eb00004e 	bl	98e0 <gpio_set_function>
    97a4:	ebffffd6 	bl	9704 <dev_barrier>
    97a8:	e3a01001 	mov	r1, #1
    97ac:	e59f0064 	ldr	r0, [pc, #100]	; 9818 <uart_init+0x90>
    97b0:	ebffffec 	bl	9768 <or_in32>
    97b4:	ebffffd2 	bl	9704 <dev_barrier>
    97b8:	e59f405c 	ldr	r4, [pc, #92]	; 981c <uart_init+0x94>
    97bc:	e3a01000 	mov	r1, #0
    97c0:	e1a00004 	mov	r0, r4
    97c4:	ebffffd4 	bl	971c <put32>
    97c8:	e3a01000 	mov	r1, #0
    97cc:	e59f004c 	ldr	r0, [pc, #76]	; 9820 <uart_init+0x98>
    97d0:	ebffffd1 	bl	971c <put32>
    97d4:	e3a01003 	mov	r1, #3
    97d8:	e59f0044 	ldr	r0, [pc, #68]	; 9824 <uart_init+0x9c>
    97dc:	ebffffce 	bl	971c <put32>
    97e0:	e3a01000 	mov	r1, #0
    97e4:	e59f003c 	ldr	r0, [pc, #60]	; 9828 <uart_init+0xa0>
    97e8:	ebffffcb 	bl	971c <put32>
    97ec:	e3a010c7 	mov	r1, #199	; 0xc7
    97f0:	e59f0034 	ldr	r0, [pc, #52]	; 982c <uart_init+0xa4>
    97f4:	ebffffc8 	bl	971c <put32>
    97f8:	e59f1030 	ldr	r1, [pc, #48]	; 9830 <uart_init+0xa8>
    97fc:	e59f0030 	ldr	r0, [pc, #48]	; 9834 <uart_init+0xac>
    9800:	ebffffc5 	bl	971c <put32>
    9804:	e3a01003 	mov	r1, #3
    9808:	e1a00004 	mov	r0, r4
    980c:	ebffffc2 	bl	971c <put32>
    9810:	ebffffbb 	bl	9704 <dev_barrier>
    9814:	e8bd8010 	pop	{r4, pc}
    9818:	20215004 	eorcs	r5, r1, r4
    981c:	20215060 	eorcs	r5, r1, r0, rrx
    9820:	20215044 	eorcs	r5, r1, r4, asr #32
    9824:	2021504c 	eorcs	r5, r1, ip, asr #32
    9828:	20215050 	eorcs	r5, r1, r0, asr r0
    982c:	20215048 	eorcs	r5, r1, r8, asr #32
    9830:	0000010e 	andeq	r0, r0, lr, lsl #2
    9834:	20215068 	eorcs	r5, r1, r8, rrx

00009838 <uart_can_getc>:
    9838:	e92d4010 	push	{r4, lr}
    983c:	e59f0008 	ldr	r0, [pc, #8]	; 984c <uart_can_getc+0x14>
    9840:	ebffffc1 	bl	974c <get32>
    9844:	e2000001 	and	r0, r0, #1
    9848:	e8bd8010 	pop	{r4, pc}
    984c:	20215064 	eorcs	r5, r1, r4, rrx

00009850 <uart_can_putc>:
    9850:	e92d4010 	push	{r4, lr}
    9854:	e59f0010 	ldr	r0, [pc, #16]	; 986c <uart_can_putc+0x1c>
    9858:	ebffffbb 	bl	974c <get32>
    985c:	e3100002 	tst	r0, #2
    9860:	13a00001 	movne	r0, #1
    9864:	03a00000 	moveq	r0, #0
    9868:	e8bd8010 	pop	{r4, pc}
    986c:	20215064 	eorcs	r5, r1, r4, rrx

00009870 <uart_getc>:
    9870:	e92d4010 	push	{r4, lr}
    9874:	ebffffa2 	bl	9704 <dev_barrier>
    9878:	ebffffee 	bl	9838 <uart_can_getc>
    987c:	e3500000 	cmp	r0, #0
    9880:	0afffffc 	beq	9878 <uart_getc+0x8>
    9884:	e59f0010 	ldr	r0, [pc, #16]	; 989c <uart_getc+0x2c>
    9888:	ebffffaf 	bl	974c <get32>
    988c:	e6ef4070 	uxtb	r4, r0
    9890:	ebffff9b 	bl	9704 <dev_barrier>
    9894:	e1a00004 	mov	r0, r4
    9898:	e8bd8010 	pop	{r4, pc}
    989c:	20215040 	eorcs	r5, r1, r0, asr #32

000098a0 <uart_putc>:
    98a0:	e92d4010 	push	{r4, lr}
    98a4:	e1a04000 	mov	r4, r0
    98a8:	ebffff95 	bl	9704 <dev_barrier>
    98ac:	ebffffe7 	bl	9850 <uart_can_putc>
    98b0:	e3500000 	cmp	r0, #0
    98b4:	0afffffc 	beq	98ac <uart_putc+0xc>
    98b8:	e6ef1074 	uxtb	r1, r4
    98bc:	e59f0008 	ldr	r0, [pc, #8]	; 98cc <uart_putc+0x2c>
    98c0:	ebffff95 	bl	971c <put32>
    98c4:	ebffff8e 	bl	9704 <dev_barrier>
    98c8:	e8bd8010 	pop	{r4, pc}
    98cc:	20215040 	eorcs	r5, r1, r0, asr #32

000098d0 <uart_has_data>:
    98d0:	e92d4010 	push	{r4, lr}
    98d4:	ebffff8a 	bl	9704 <dev_barrier>
    98d8:	ebffffd6 	bl	9838 <uart_can_getc>
    98dc:	e8bd8010 	pop	{r4, pc}

000098e0 <gpio_set_function>:
    98e0:	e350001f 	cmp	r0, #31
    98e4:	812fff1e 	bxhi	lr
    98e8:	e3d13007 	bics	r3, r1, #7
    98ec:	112fff1e 	bxne	lr
    98f0:	e92d4070 	push	{r4, r5, r6, lr}
    98f4:	e1a05001 	mov	r5, r1
    98f8:	e59f3044 	ldr	r3, [pc, #68]	; 9944 <gpio_set_function+0x64>
    98fc:	e0832093 	umull	r2, r3, r3, r0
    9900:	e1a031a3 	lsr	r3, r3, #3
    9904:	e1a06003 	mov	r6, r3
    9908:	e0833103 	add	r3, r3, r3, lsl #2
    990c:	e1a02083 	lsl	r2, r3, #1
    9910:	e0403002 	sub	r3, r0, r2
    9914:	e0834083 	add	r4, r3, r3, lsl #1
    9918:	e2866302 	add	r6, r6, #134217728	; 0x8000000
    991c:	e2866702 	add	r6, r6, #524288	; 0x80000
    9920:	e1a06106 	lsl	r6, r6, #2
    9924:	e1a00006 	mov	r0, r6
    9928:	ebffff89 	bl	9754 <GET32>
    992c:	e3a01007 	mov	r1, #7
    9930:	e1c01411 	bic	r1, r0, r1, lsl r4
    9934:	e1811415 	orr	r1, r1, r5, lsl r4
    9938:	e1a00006 	mov	r0, r6
    993c:	ebffff78 	bl	9724 <PUT32>
    9940:	e8bd8070 	pop	{r4, r5, r6, pc}
    9944:	cccccccd 	stclgt	12, cr12, [ip], {205}	; 0xcd

00009948 <gpio_set_output>:
    9948:	e92d4010 	push	{r4, lr}
    994c:	e3a01001 	mov	r1, #1
    9950:	ebffffe2 	bl	98e0 <gpio_set_function>
    9954:	e8bd8010 	pop	{r4, pc}

00009958 <gpio_set_on>:
    9958:	e350001f 	cmp	r0, #31
    995c:	812fff1e 	bxhi	lr
    9960:	e92d4010 	push	{r4, lr}
    9964:	e3a01001 	mov	r1, #1
    9968:	e1a01011 	lsl	r1, r1, r0
    996c:	e59f0004 	ldr	r0, [pc, #4]	; 9978 <gpio_set_on+0x20>
    9970:	ebffff6b 	bl	9724 <PUT32>
    9974:	e8bd8010 	pop	{r4, pc}
    9978:	2020001c 	eorcs	r0, r0, ip, lsl r0

0000997c <gpio_set_off>:
    997c:	e350001f 	cmp	r0, #31
    9980:	812fff1e 	bxhi	lr
    9984:	e92d4010 	push	{r4, lr}
    9988:	e3a01001 	mov	r1, #1
    998c:	e1a01011 	lsl	r1, r1, r0
    9990:	e59f0004 	ldr	r0, [pc, #4]	; 999c <gpio_set_off+0x20>
    9994:	ebffff62 	bl	9724 <PUT32>
    9998:	e8bd8010 	pop	{r4, pc}
    999c:	20200028 	eorcs	r0, r0, r8, lsr #32

000099a0 <gpio_set_input>:
    99a0:	e92d4010 	push	{r4, lr}
    99a4:	e3a01000 	mov	r1, #0
    99a8:	ebffffcc 	bl	98e0 <gpio_set_function>
    99ac:	e8bd8010 	pop	{r4, pc}

000099b0 <gpio_write>:
    99b0:	e92d4010 	push	{r4, lr}
    99b4:	e3510000 	cmp	r1, #0
    99b8:	1a000001 	bne	99c4 <gpio_write+0x14>
    99bc:	ebffffee 	bl	997c <gpio_set_off>
    99c0:	e8bd8010 	pop	{r4, pc}
    99c4:	ebffffe3 	bl	9958 <gpio_set_on>
    99c8:	e8bd8010 	pop	{r4, pc}

000099cc <gpio_read>:
    99cc:	e350001f 	cmp	r0, #31
    99d0:	8a000007 	bhi	99f4 <gpio_read+0x28>
    99d4:	e92d4010 	push	{r4, lr}
    99d8:	e200401f 	and	r4, r0, #31
    99dc:	e59f3018 	ldr	r3, [pc, #24]	; 99fc <gpio_read+0x30>
    99e0:	e08302a0 	add	r0, r3, r0, lsr #5
    99e4:	ebffff5a 	bl	9754 <GET32>
    99e8:	e1a00430 	lsr	r0, r0, r4
    99ec:	e2000001 	and	r0, r0, #1
    99f0:	e8bd8010 	pop	{r4, pc}
    99f4:	e3e00000 	mvn	r0, #0
    99f8:	e12fff1e 	bx	lr
    99fc:	20200034 	eorcs	r0, r0, r4, lsr r0

Disassembly of section .data:

00009a00 <__data_start__>:
    9a00:	00008e4c 	andeq	r8, r0, ip, asr #28

00009a04 <putk>:
    9a04:	00008e88 	andeq	r8, r0, r8, lsl #29

Disassembly of section .rodata:

00009a08 <C.0.4400-0xd8>:
    9a08:	494e4150 	stmdbmi	lr, {r4, r6, r8, lr}^
    9a0c:	73253a43 	teqvc	r5, #274432	; 0x43000
    9a10:	3a73253a 	bcc	1cd2f00 <__bss_end__+0x1cc88d0>
    9a14:	253a6425 	ldrcs	r6, [sl, #-1061]!	; 0x425
    9a18:	00000a73 	andeq	r0, r0, r3, ror sl
    9a1c:	74736574 	ldrbtvc	r6, [r3], #-1396	; 0x574
    9a20:	302e3273 	eorcc	r3, lr, r3, ror r2
    9a24:	2d36312f 	ldfcss	f3, [r6, #-188]!	; 0xffffff44
    9a28:	74726170 	ldrbtvc	r6, [r2], #-368	; 0x170
    9a2c:	65742d32 	ldrbvs	r2, [r4, #-3378]!	; 0xd32
    9a30:	2e337473 	mrccs	4, 1, r7, cr3, cr3, {3}
    9a34:	00000063 	andeq	r0, r0, r3, rrx
    9a38:	6e2e6321 	cdpvs	3, 2, cr6, cr14, cr1, {1}
    9a3c:	6f727265 	svcvs	0x00727265
    9a40:	00007372 	andeq	r7, r0, r2, ror r3
    9a44:	494e4150 	stmdbmi	lr, {r4, r6, r8, lr}^
    9a48:	73253a43 	teqvc	r5, #274432	; 0x43000
    9a4c:	3a73253a 	bcc	1cd2f3c <__bss_end__+0x1cc890c>
    9a50:	633a6425 	teqvs	sl, #620756992	; 0x25000000
    9a54:	6b636568 	blvs	18e2ffc <__bss_end__+0x18d89cc>
    9a58:	6f687320 	svcvs	0x00687320
    9a5c:	20646c75 	rsbcs	r6, r4, r5, ror ip
    9a60:	65766168 	ldrbvs	r6, [r6, #-360]!	; 0x168
    9a64:	69616620 	stmdbvs	r1!, {r5, r9, sl, sp, lr}^
    9a68:	2c64656c 	cfstr64cs	mvdx6, [r4], #-432	; 0xfffffe50
    9a6c:	69727420 	ldmdbvs	r2!, {r5, sl, ip, sp, lr}^
    9a70:	3d736c61 	ldclcc	12, cr6, [r3, #-388]!	; 0xfffffe7c
    9a74:	21216425 	teqcs	r1, r5, lsr #8
    9a78:	00000a0a 	andeq	r0, r0, sl, lsl #20
    9a7c:	656e6f64 	strbvs	r6, [lr, #-3940]!	; 0xf64
    9a80:	65686320 	strbvs	r6, [r8, #-800]!	; 0x320
    9a84:	6e696b63 	vnmulvs.f64	d22, d9, d19
    9a88:	74203a67 	strtvc	r3, [r0], #-2663	; 0xa67
    9a8c:	6c616972 	stclvs	9, cr6, [r1], #-456	; 0xfffffe38
    9a90:	64253d73 	strtvs	r3, [r5], #-3443	; 0xd73
    9a94:	72726520 	rsbsvc	r6, r2, #32, 10	; 0x8000000
    9a98:	3d73726f 	lfmcc	f7, 2, [r3, #-444]!	; 0xfffffe44
    9a9c:	21216425 	teqcs	r1, r5, lsr #8
    9aa0:	0000000a 	andeq	r0, r0, sl
    9aa4:	656e2e63 	strbvs	r2, [lr, #-3683]!	; 0xe63
    9aa8:	726f7272 	rsbvc	r7, pc, #536870919	; 0x20000007
    9aac:	3d3d2073 	ldccc	0, cr2, [sp, #-460]!	; 0xfffffe34
    9ab0:	6e2e6320 	cdpvs	3, 2, cr6, cr14, cr0, {1}
    9ab4:	61697274 	smcvs	38692	; 0x9724
    9ab8:	0000736c 	andeq	r7, r0, ip, ror #6
    9abc:	43435553 	movtmi	r5, #13651	; 0x3553
    9ac0:	3a535345 	bcc	14de7dc <__bss_end__+0x14d41ac>
    9ac4:	00000000 	andeq	r0, r0, r0
    9ac8:	6c696166 	stfvse	f6, [r9], #-408	; 0xfffffe68
    9acc:	61206465 	teqvs	r0, r5, ror #8
    9ad0:	78652073 	stmdavc	r5!, {r0, r1, r4, r5, r6, sp}^
    9ad4:	74636570 	strbtvc	r6, [r3], #-1392	; 0x570
    9ad8:	0a216465 	beq	862c74 <__bss_end__+0x858644>
    9adc:	00000000 	andeq	r0, r0, r0

00009ae0 <C.0.4400>:
    9ae0:	00000000 	andeq	r0, r0, r0
    9ae4:	00008020 	andeq	r8, r0, r0, lsr #32
    9ae8:	00008024 	andeq	r8, r0, r4, lsr #32
    9aec:	0000802c 	andeq	r8, r0, ip, lsr #32
    9af0:	00008030 	andeq	r8, r0, r0, lsr r0
	...

00009b18 <__FUNCTION__.4406>:
    9b18:	6d746f6e 	ldclvs	15, cr6, [r4, #-440]!	; 0xfffffe48
    9b1c:	006e6961 	rsbeq	r6, lr, r1, ror #18
    9b20:	34317063 	ldrtcc	r7, [r1], #-99	; 0x63
    9b24:	6265642d 	rsbvs	r6, r5, #754974720	; 0x2d000000
    9b28:	632e6775 	teqvs	lr, #30670848	; 0x1d40000
    9b2c:	00000000 	andeq	r0, r0, r0
    9b30:	30726377 	rsbscc	r6, r2, r7, ror r3
    9b34:	6765725f 			; <UNDEFINED> instruction: 0x6765725f
    9b38:	203d3d20 	eorscs	r3, sp, r0, lsr #26
    9b3c:	30726377 	rsbscc	r6, r2, r7, ror r3
    9b40:	7465675f 	strbtvc	r6, [r5], #-1887	; 0x75f
    9b44:	00002928 	andeq	r2, r0, r8, lsr #18
    9b48:	494e4150 	stmdbmi	lr, {r4, r6, r8, lr}^
    9b4c:	73253a43 	teqvc	r5, #274432	; 0x43000
    9b50:	3a73253a 	bcc	1cd3040 <__bss_end__+0x1cc8a10>
    9b54:	693a6425 	ldmdbvs	sl!, {r0, r2, r5, sl, sp, lr}
    9b58:	736f706d 	cmnvc	pc, #109	; 0x6d
    9b5c:	6c626973 	stclvs	9, cr6, [r2], #-460	; 0xfffffe34
    9b60:	73203a65 	teqvc	r0, #413696	; 0x65000
    9b64:	6c756f68 	ldclvs	15, cr6, [r5], #-416	; 0xfffffe60
    9b68:	6e6f2064 	cdpvs	0, 6, cr2, cr15, cr4, {3}
    9b6c:	6720796c 	strvs	r7, [r0, -ip, ror #18]!
    9b70:	64207465 	strtvs	r7, [r0], #-1125	; 0x465
    9b74:	66617461 	strbtvs	r7, [r1], -r1, ror #8
    9b78:	746c7561 	strbtvc	r7, [ip], #-1377	; 0x561
    9b7c:	000a0a73 	andeq	r0, sl, r3, ror sl
    9b80:	34317063 	ldrtcc	r7, [r1], #-99	; 0x63
    9b84:	6265642d 	rsbvs	r6, r5, #754974720	; 0x2d000000
    9b88:	682e6775 	stmdavs	lr!, {r0, r2, r4, r5, r6, r8, r9, sl, sp, lr}
    9b8c:	00000000 	andeq	r0, r0, r0
    9b90:	72616677 	rsbvc	r6, r1, #124780544	; 0x7700000
    9b94:	7465675f 	strbtvc	r6, [r5], #-1887	; 0x75f
    9b98:	342d2928 	strtcc	r2, [sp], #-2344	; 0x928
    9b9c:	203d3d20 	eorscs	r3, sp, r0, lsr #26
    9ba0:	00006370 	andeq	r6, r0, r0, ror r3
    9ba4:	63746177 	cmnvs	r4, #-1073741795	; 0xc000001d
    9ba8:	5f747068 	svcpl	0x00747068
    9bac:	646e6168 	strbtvs	r6, [lr], #-360	; 0x168
    9bb0:	3072656c 	rsbscc	r6, r2, ip, ror #10
    9bb4:	00000000 	andeq	r0, r0, r0
    9bb8:	494e4150 	stmdbmi	lr, {r4, r6, r8, lr}^
    9bbc:	73253a43 	teqvc	r5, #274432	; 0x43000
    9bc0:	3a73253a 	bcc	1cd30b0 <__bss_end__+0x1cc8a80>
    9bc4:	693a6425 	ldmdbvs	sl!, {r0, r2, r5, sl, sp, lr}
    9bc8:	736f706d 	cmnvc	pc, #109	; 0x6d
    9bcc:	6c626973 	stclvs	9, cr6, [r2], #-460	; 0xfffffe34
    9bd0:	73203a65 	teqvc	r0, #413696	; 0x65000
    9bd4:	6c756f68 	ldclvs	15, cr6, [r5], #-416	; 0xfffffe60
    9bd8:	65672064 	strbvs	r2, [r7, #-100]!	; 0x64
    9bdc:	6f6e2074 	svcvs	0x006e2074
    9be0:	68746f20 	ldmdavs	r4!, {r5, r8, r9, sl, fp, sp, lr}^
    9be4:	66207265 	strtvs	r7, [r0], -r5, ror #4
    9be8:	746c7561 	strbtvc	r7, [ip], #-1377	; 0x561
    9bec:	000a0a73 	andeq	r0, sl, r3, ror sl
    9bf0:	706b7262 	rsbvc	r7, fp, r2, ror #4
    9bf4:	61685f74 	smcvs	34292	; 0x85f4
    9bf8:	656c646e 	strbvs	r6, [ip, #-1134]!	; 0x46e
    9bfc:	00003072 	andeq	r3, r0, r2, ror r0
    9c00:	494e4150 	stmdbmi	lr, {r4, r6, r8, lr}^
    9c04:	73253a43 	teqvc	r5, #274432	; 0x43000
    9c08:	3a73253a 	bcc	1cd30f8 <__bss_end__+0x1cc8ac8>
    9c0c:	723a6425 	eorsvc	r6, sl, #620756992	; 0x25000000
    9c10:	72757465 	rsbsvc	r7, r5, #1694498816	; 0x65000000
    9c14:	2064656e 	rsbcs	r6, r4, lr, ror #10
    9c18:	20646e61 	rsbcs	r6, r4, r1, ror #28
    9c1c:	756f6873 	strbvc	r6, [pc, #-2163]!	; 93b1 <va_printk+0x251>
    9c20:	6e20646c 	cdpvs	4, 2, cr6, cr0, cr12, {3}
    9c24:	6820746f 	stmdavs	r0!, {r0, r1, r2, r3, r5, r6, sl, ip, sp, lr}
    9c28:	21657661 	cmncs	r5, r1, ror #12
    9c2c:	00000a0a 	andeq	r0, r0, sl, lsl #20
    9c30:	656c6c69 	strbvs	r6, [ip, #-3177]!	; 0xc69
    9c34:	206c6167 	rsbcs	r6, ip, r7, ror #2
    9c38:	74737973 	ldrbtvc	r7, [r3], #-2419	; 0x973
    9c3c:	63206d65 	teqvs	r0, #6464	; 0x1940
    9c40:	206c6c61 	rsbcs	r6, ip, r1, ror #24
    9c44:	000a6425 	andeq	r6, sl, r5, lsr #8

00009c48 <__FUNCTION__.4393>:
    9c48:	63746177 	cmnvs	r4, #-1073741795	; 0xc000001d
    9c4c:	5f747068 	svcpl	0x00747068
    9c50:	30746573 	rsbscc	r6, r4, r3, ror r5
    9c54:	00000000 	andeq	r0, r0, r0

00009c58 <__FUNCTION__.4399>:
    9c58:	61746164 	cmnvs	r4, r4, ror #2
    9c5c:	6f62615f 	svcvs	0x0062615f
    9c60:	765f7472 			; <UNDEFINED> instruction: 0x765f7472
    9c64:	6f746365 	svcvs	0x00746365
    9c68:	00000072 	andeq	r0, r0, r2, ror r0

00009c6c <__FUNCTION__.4306>:
    9c6c:	5f736177 	svcpl	0x00736177
    9c70:	75626564 	strbvc	r6, [r2, #-1380]!	; 0x564
    9c74:	61645f67 	cmnvs	r4, r7, ror #30
    9c78:	61666174 	smcvs	26132	; 0x6614
    9c7c:	00746c75 	rsbseq	r6, r4, r5, ror ip

00009c80 <__FUNCTION__.4443>:
    9c80:	66657270 			; <UNDEFINED> instruction: 0x66657270
    9c84:	68637465 	stmdavs	r3!, {r0, r2, r5, r6, sl, ip, sp, lr}^
    9c88:	6f62615f 	svcvs	0x0062615f
    9c8c:	765f7472 			; <UNDEFINED> instruction: 0x765f7472
    9c90:	6f746365 	svcvs	0x00746365
    9c94:	00000072 	andeq	r0, r0, r2, ror r0

00009c98 <__FUNCTION__.4451>:
    9c98:	5f6b7262 	svcpl	0x006b7262
    9c9c:	725f6f6e 	subsvc	r6, pc, #440	; 0x1b8
    9ca0:	655f7465 	ldrbvs	r7, [pc, #-1125]	; 9843 <uart_can_getc+0xb>
    9ca4:	726f7272 	rsbvc	r7, pc, #536870919	; 0x20000007
    9ca8:	00000000 	andeq	r0, r0, r0
    9cac:	253a7325 	ldrcs	r7, [sl, #-805]!	; 0x325
    9cb0:	64253a73 	strtvs	r3, [r5], #-2675	; 0xa73
    9cb4:	6572703a 	ldrbvs	r7, [r2, #-58]!	; 0x3a
    9cb8:	63746566 	cmnvs	r4, #427819008	; 0x19800000
    9cbc:	62612068 	rsbvs	r2, r1, #104	; 0x68
    9cc0:	2074726f 	rsbscs	r7, r4, pc, ror #4
    9cc4:	25207461 	strcs	r7, [r0, #-1121]!	; 0x461
    9cc8:	00000a70 	andeq	r0, r0, r0, ror sl
    9ccc:	63656863 	cmnvs	r5, #6488064	; 0x630000
    9cd0:	6e692d6b 	cdpvs	13, 6, cr2, cr9, cr11, {3}
    9cd4:	6c726574 	cfldr64vs	mvdx6, [r2], #-464	; 0xfffffe30
    9cd8:	65766165 	ldrbvs	r6, [r6, #-357]!	; 0x165
    9cdc:	0000632e 	andeq	r6, r0, lr, lsr #6
    9ce0:	756f6261 	strbvc	r6, [pc, #-609]!	; 9a87 <__data_end__+0x7f>
    9ce4:	6f742074 	svcvs	0x00742074
    9ce8:	69777320 	ldmdbvs	r7!, {r5, r8, r9, ip, sp, lr}^
    9cec:	20686374 	rsbcs	r6, r8, r4, ror r3
    9cf0:	6d6f7266 	sfmvs	f7, 2, [pc, #-408]!	; 9b60 <__FUNCTION__.4406+0x48>
    9cf4:	20702520 	rsbscs	r2, r0, r0, lsr #10
    9cf8:	25206f74 	strcs	r6, [r0, #-3956]!	; 0xf74
    9cfc:	00000a70 	andeq	r0, r0, r0, ror sl
    9d00:	656e6f64 	strbvs	r6, [lr, #-3940]!	; 0xf64
    9d04:	6e757220 	cdpvs	2, 7, cr7, cr5, cr0, {1}
    9d08:	676e696e 	strbvs	r6, [lr, -lr, ror #18]!
    9d0c:	202c4220 	eorcs	r4, ip, r0, lsr #4
    9d10:	6e696f67 	cdpvs	15, 6, cr6, cr9, cr7, {3}
    9d14:	6f742067 	svcvs	0x00742067
    9d18:	74657220 	strbtvc	r7, [r5], #-544	; 0x220
    9d1c:	206e7275 	rsbcs	r7, lr, r5, ror r2
    9d20:	41206f74 	teqmi	r0, r4, ror pc
    9d24:	0000000a 	andeq	r0, r0, sl
    9d28:	693e2d63 	ldmdbvs	lr!, {r0, r1, r5, r6, r8, sl, fp, sp}
    9d2c:	5f74736e 	svcpl	0x0074736e
    9d30:	6e756f63 	cdpvs	15, 7, cr6, cr5, cr3, {3}
    9d34:	203c2074 	eorscs	r2, ip, r4, ror r0
    9d38:	733e2d63 	teqvc	lr, #6336	; 0x18c0
    9d3c:	63746977 	cmnvs	r4, #1949696	; 0x1dc000
    9d40:	6e6f5f68 	cdpvs	15, 6, cr5, cr15, cr8, {3}
    9d44:	736e695f 	cmnvc	lr, #1556480	; 0x17c000
    9d48:	006e5f74 	rsbeq	r5, lr, r4, ror pc
    9d4c:	253a7325 	ldrcs	r7, [sl, #-805]!	; 0x325
    9d50:	64253a73 	strtvs	r3, [r5], #-2675	; 0xa73
    9d54:	7465733a 	strbtvc	r7, [r5], #-826	; 0x33a
    9d58:	676e6974 			; <UNDEFINED> instruction: 0x676e6974
    9d5c:	20707520 	rsbscs	r7, r0, r0, lsr #10
    9d60:	696d2061 	stmdbvs	sp!, {r0, r5, r6, sp}^
    9d64:	74616d73 	strbtvc	r6, [r1], #-3443	; 0xd73
    9d68:	6f206863 	svcvs	0x00206863
    9d6c:	7025206e 	eorvc	r2, r5, lr, rrx
    9d70:	0000000a 	andeq	r0, r0, sl
    9d74:	253a7325 	ldrcs	r7, [sl, #-805]!	; 0x325
    9d78:	64253a73 	strtvs	r3, [r5], #-2675	; 0xa73
    9d7c:	6e6f643a 	mcrvs	4, 3, r6, cr15, cr10, {1}
    9d80:	65732065 	ldrbvs	r2, [r3, #-101]!	; 0x65
    9d84:	6e697474 	mcrvs	4, 3, r7, cr9, cr4, {3}
    9d88:	70752067 	rsbsvc	r2, r5, r7, rrx
    9d8c:	6d206120 	stfvss	f6, [r0, #-128]!	; 0xffffff80
    9d90:	616d7369 	cmnvs	sp, r9, ror #6
    9d94:	20686374 	rsbcs	r6, r8, r4, ror r3
    9d98:	25206e6f 	strcs	r6, [r0, #-3695]!	; 0xe6f
    9d9c:	00000a70 	andeq	r0, r0, r0, ror sl
    9da0:	52455355 	subpl	r5, r5, #1409286145	; 0x54000001
    9da4:	444f4d20 	strbmi	r4, [pc], #-3360	; 9dac <__FUNCTION__.4451+0x114>
    9da8:	00000045 	andeq	r0, r0, r5, asr #32
    9dac:	20514946 	subscs	r4, r1, r6, asr #18
    9db0:	45444f4d 	strbmi	r4, [r4, #-3917]	; 0xf4d
    9db4:	00000000 	andeq	r0, r0, r0
    9db8:	20515249 	subscs	r5, r1, r9, asr #4
    9dbc:	45444f4d 	strbmi	r4, [r4, #-3917]	; 0xf4d
    9dc0:	00000000 	andeq	r0, r0, r0
    9dc4:	45505553 	ldrbmi	r5, [r0, #-1363]	; 0x553
    9dc8:	4f4d2052 	svcmi	0x004d2052
    9dcc:	00004544 	andeq	r4, r0, r4, asr #10
    9dd0:	524f4241 	subpl	r4, pc, #268435460	; 0x10000004
    9dd4:	4f4d2054 	svcmi	0x004d2054
    9dd8:	00004544 	andeq	r4, r0, r4, asr #10
    9ddc:	45444e55 	strbmi	r4, [r4, #-3669]	; 0xe55
    9de0:	4f4d2046 	svcmi	0x004d2046
    9de4:	00004544 	andeq	r4, r0, r4, asr #10
    9de8:	20535953 	subscs	r5, r3, r3, asr r9
    9dec:	45444f4d 	strbmi	r4, [r4, #-3917]	; 0xf4d
    9df0:	00000000 	andeq	r0, r0, r0
    9df4:	253a7325 	ldrcs	r7, [sl, #-805]!	; 0x325
    9df8:	64253a73 	strtvs	r3, [r5], #-2675	; 0xa73
    9dfc:	6972743a 	ldmdbvs	r2!, {r1, r3, r4, r5, sl, ip, sp, lr}^
    9e00:	253d6c61 	ldrcs	r6, [sp, #-3169]!	; 0xc61
    9e04:	61203a64 	teqvs	r0, r4, ror #20
    9e08:	74756f62 	ldrbtvc	r6, [r5], #-3938	; 0xf62
    9e0c:	206f7420 	rsbcs	r7, pc, r0, lsr #8
    9e10:	20746573 	rsbscs	r6, r4, r3, ror r5
    9e14:	6d73696d 	ldclvs	9, cr6, [r3, #-436]!	; 0xfffffe4c
    9e18:	68637461 	stmdavs	r3!, {r0, r5, r6, sl, ip, sp, lr}^
    9e1c:	6b726220 	blvs	1ca26a4 <__bss_end__+0x1c98074>
    9e20:	66207470 			; <UNDEFINED> instruction: 0x66207470
    9e24:	4120726f 	teqmi	r0, pc, ror #4
    9e28:	0000000a 	andeq	r0, r0, sl
    9e2c:	4f525245 	svcmi	0x00525245
    9e30:	63203a52 	teqvs	r0, #335872	; 0x52000
    9e34:	6b636568 	blvs	18e33dc <__bss_end__+0x18d8dac>
    9e38:	69616620 	stmdbvs	r1!, {r5, r9, sl, sp, lr}^
    9e3c:	2064656c 	rsbcs	r6, r4, ip, ror #10
    9e40:	6e656877 	mcrvs	8, 3, r6, cr5, cr7, {3}
    9e44:	69777320 	ldmdbvs	r7!, {r5, r8, r9, ip, sp, lr}^
    9e48:	65686374 	strbvs	r6, [r8, #-884]!	; 0x374
    9e4c:	6e6f2064 	cdpvs	0, 6, cr2, cr15, cr4, {3}
    9e50:	64646120 	strbtvs	r6, [r4], #-288	; 0x120
    9e54:	73736572 	cmnvc	r3, #478150656	; 0x1c800000
    9e58:	2c702520 	cfldr64cs	mvdx2, [r0], #-128	; 0xffffff80
    9e5c:	74666120 	strbtvc	r6, [r6], #-288	; 0x120
    9e60:	25207265 	strcs	r7, [r0, #-613]!	; 0x265
    9e64:	6e692064 	cdpvs	0, 6, cr2, cr9, cr4, {3}
    9e68:	75727473 	ldrbvc	r7, [r2, #-1139]!	; 0x473
    9e6c:	6f697463 	svcvs	0x00697463
    9e70:	000a736e 	andeq	r7, sl, lr, ror #6
    9e74:	656e6f64 	strbvs	r6, [lr, #-3940]!	; 0xf64
    9e78:	64202021 	strtvs	r2, [r0], #-33	; 0x21
    9e7c:	63206469 	teqvs	r0, #1761607680	; 0x69000000
    9e80:	736e3e2d 	cmnvc	lr, #720	; 0x2d0
    9e84:	63746977 	cmnvs	r4, #1949696	; 0x1dc000
    9e88:	3d736568 	cfldr64cc	mvdx6, [r3, #-416]!	; 0xfffffe60
    9e8c:	202c6425 	eorcs	r6, ip, r5, lsr #8
    9e90:	6972746e 	ldmdbvs	r2!, {r1, r2, r3, r5, r6, sl, ip, sp, lr}^
    9e94:	3d736c61 	ldclcc	12, cr6, [r3, #-388]!	; 0xfffffe7c
    9e98:	202c6425 	eorcs	r6, ip, r5, lsr #8
    9e9c:	7272656e 	rsbsvc	r6, r2, #461373440	; 0x1b800000
    9ea0:	3d73726f 	lfmcc	f7, 2, [r3, #-444]!	; 0xfffffe44
    9ea4:	000a6425 	andeq	r6, sl, r5, lsr #8
    9ea8:	72737063 	rsbsvc	r7, r3, #99	; 0x63
    9eac:	6974752d 	ldmdbvs	r4!, {r0, r2, r3, r5, r8, sl, ip, sp, lr}^
    9eb0:	00682e6c 	rsbeq	r2, r8, ip, ror #28
    9eb4:	65646f6d 	strbvs	r6, [r4, #-3949]!	; 0xf6d
    9eb8:	67656c5f 			; <UNDEFINED> instruction: 0x67656c5f
    9ebc:	6d286c61 	stcvs	12, cr6, [r8, #-388]!	; 0xfffffe7c
    9ec0:	2965646f 	stmdbcs	r5!, {r0, r1, r2, r3, r5, r6, sl, sp, lr}^
    9ec4:	00000000 	andeq	r0, r0, r0
    9ec8:	494e4150 	stmdbmi	lr, {r4, r6, r8, lr}^
    9ecc:	73253a43 	teqvc	r5, #274432	; 0x43000
    9ed0:	3a73253a 	bcc	1cd33c0 <__bss_end__+0x1cc8d90>
    9ed4:	753a6425 	ldrvc	r6, [sl, #-1061]!	; 0x425
    9ed8:	6f6e6b6e 	svcvs	0x006e6b6e
    9edc:	6d206e77 	stcvs	14, cr6, [r0, #-476]!	; 0xfffffe24
    9ee0:	3a65646f 	bcc	19630a4 <__bss_end__+0x1958a74>
    9ee4:	78253c20 	stmdavc	r5!, {r5, sl, fp, ip, sp}
    9ee8:	000a0a3e 	andeq	r0, sl, lr, lsr sl
    9eec:	65707865 	ldrbvs	r7, [r0, #-2149]!	; 0x865
    9ef0:	64657463 	strbtvs	r7, [r5], #-1123	; 0x463
    9ef4:	646f6d20 	strbtvs	r6, [pc], #-3360	; 9efc <__FUNCTION__.4451+0x264>
    9ef8:	203d2065 	eorscs	r2, sp, r5, rrx
    9efc:	28207325 	stmdacs	r0!, {r0, r2, r5, r8, r9, ip, sp, lr}
    9f00:	0a297825 	beq	a67f9c <__bss_end__+0xa5d96c>
    9f04:	00000000 	andeq	r0, r0, r0
    9f08:	72727563 	rsbsvc	r7, r2, #415236096	; 0x18c00000
    9f0c:	20746e65 	rsbscs	r6, r4, r5, ror #28
    9f10:	65646f6d 	strbvs	r6, [r4, #-3949]!	; 0xf6d
    9f14:	25203d20 	strcs	r3, [r0, #-3360]!	; 0xd20
    9f18:	25282073 	strcs	r2, [r8, #-115]!	; 0x73
    9f1c:	000a2978 	andeq	r2, sl, r8, ror r9
    9f20:	65646f6d 	strbvs	r6, [r4, #-3949]!	; 0xf6d
    9f24:	7465675f 	strbtvc	r6, [r5], #-1887	; 0x75f
    9f28:	73706328 	cmnvc	r0, #40, 6	; 0xa0000000
    9f2c:	6c6f5f72 	stclvs	15, cr5, [pc], #-456	; 9d6c <__FUNCTION__.4451+0xd4>
    9f30:	3d202964 	stccc	9, cr2, [r0, #-400]!	; 0xfffffe70
    9f34:	6f6d203d 	svcvs	0x006d203d
    9f38:	675f6564 	ldrbvs	r6, [pc, -r4, ror #10]
    9f3c:	63287465 	teqvs	r8, #1694498816	; 0x65000000
    9f40:	5f727370 	svcpl	0x00727370
    9f44:	28746567 	ldmdacs	r4!, {r0, r1, r2, r5, r6, r8, sl, sp, lr}^
    9f48:	00002929 	andeq	r2, r0, r9, lsr #18
    9f4c:	494e4150 	stmdbmi	lr, {r4, r6, r8, lr}^
    9f50:	73253a43 	teqvc	r5, #274432	; 0x43000
    9f54:	3a73253a 	bcc	1cd3444 <__bss_end__+0x1cc8e14>
    9f58:	633a6425 	teqvs	sl, #620756992	; 0x25000000
    9f5c:	6b636568 	blvs	18e3504 <__bss_end__+0x18d8ed4>
    9f60:	69616620 	stmdbvs	r1!, {r5, r9, sl, sp, lr}^
    9f64:	2064656c 	rsbcs	r6, r4, ip, ror #10
    9f68:	75716573 	ldrbvc	r6, [r1, #-1395]!	; 0x573
    9f6c:	69746e65 	ldmdbvs	r4!, {r0, r2, r5, r6, r9, sl, fp, sp, lr}^
    9f70:	796c6c61 	stmdbvc	ip!, {r0, r5, r6, sl, fp, sp, lr}^
    9f74:	6f63203a 	svcvs	0x0063203a
    9f78:	69206564 	stmdbvs	r0!, {r2, r5, r6, r8, sl, sp, lr}
    9f7c:	72622073 	rsbvc	r2, r2, #115	; 0x73
    9f80:	6e656b6f 	vnmulvs.f64	d22, d5, d31
    9f84:	00000a0a 	andeq	r0, r0, sl, lsl #20

00009f88 <__FUNCTION__.4432>:
    9f88:	63656863 	cmnvs	r5, #6488064	; 0x630000
    9f8c:	65735f6b 	ldrbvs	r5, [r3, #-3947]!	; 0xf6b
    9f90:	6e657571 	mcrvs	5, 3, r7, cr5, cr1, {3}
    9f94:	6c616974 	stclvs	9, cr6, [r1], #-464	; 0xfffffe30
    9f98:	00000000 	andeq	r0, r0, r0

00009f9c <__FUNCTION__.4424>:
    9f9c:	63656863 	cmnvs	r5, #6488064	; 0x630000
    9fa0:	6e6f5f6b 	cdpvs	15, 6, cr5, cr15, cr11, {3}
    9fa4:	73635f65 	cmnvc	r3, #404	; 0x194
    9fa8:	63746977 	cmnvs	r4, #1949696	; 0x1dc000
    9fac:	00000068 	andeq	r0, r0, r8, rrx

00009fb0 <__FUNCTION__.4417>:
    9fb0:	676e6973 			; <UNDEFINED> instruction: 0x676e6973
    9fb4:	735f656c 	cmpvc	pc, #108, 10	; 0x1b000000
    9fb8:	5f706574 	svcpl	0x00706574
    9fbc:	646e6168 	strbtvs	r6, [lr], #-360	; 0x168
    9fc0:	0072656c 	rsbseq	r6, r2, ip, ror #10

00009fc4 <__FUNCTION__.4397>:
    9fc4:	65646f6d 	strbvs	r6, [r4, #-3949]!	; 0xf6d
    9fc8:	7465735f 	strbtvc	r7, [r5], #-863	; 0x35f
    9fcc:	00000000 	andeq	r0, r0, r0

00009fd0 <__FUNCTION__.4258>:
    9fd0:	73746962 	cmnvc	r4, #1605632	; 0x188000
    9fd4:	726c635f 	rsbvc	r6, ip, #2080374785	; 0x7c000001
    9fd8:	00000000 	andeq	r0, r0, r0

00009fdc <__FUNCTION__.4409>:
    9fdc:	65646f6d 	strbvs	r6, [r4, #-3949]!	; 0xf6d
    9fe0:	7274735f 	rsbsvc	r7, r4, #2080374785	; 0x7c000001
    9fe4:	00000000 	andeq	r0, r0, r0

00009fe8 <__FUNCTION__.4392>:
    9fe8:	65646f6d 	strbvs	r6, [r4, #-3949]!	; 0xf6d
    9fec:	7465675f 	strbtvc	r6, [r5], #-1887	; 0x75f
    9ff0:	00000000 	andeq	r0, r0, r0

00009ff4 <__FUNCTION__.4251>:
    9ff4:	73746962 	cmnvc	r4, #1605632	; 0x188000
    9ff8:	7465675f 	strbtvc	r6, [r5], #-1887	; 0x75f
    9ffc:	00000000 	andeq	r0, r0, r0

0000a000 <__FUNCTION__.4249>:
    a000:	74696d65 	strbtvc	r6, [r9], #-3429	; 0xd65
    a004:	00000000 	andeq	r0, r0, r0

0000a008 <__FUNCTION__.4197>:
    a008:	5f697072 	svcpl	0x00697072
    a00c:	5f746573 	svcpl	0x00746573
    a010:	7074756f 	rsbsvc	r7, r4, pc, ror #10
    a014:	00007475 	andeq	r7, r0, r5, ror r4

0000a018 <__FUNCTION__.4272>:
    a018:	705f6176 	subsvc	r6, pc, r6, ror r1	; <UNPREDICTABLE>
    a01c:	746e6972 	strbtvc	r6, [lr], #-2418	; 0x972
    a020:	0000006b 	andeq	r0, r0, fp, rrx
    a024:	6362696c 	cmnvs	r2, #108, 18	; 0x1b0000
    a028:	2d61762f 	stclcs	6, cr7, [r1, #-188]!	; 0xffffff44
    a02c:	6e697270 	mcrvs	2, 3, r7, cr9, cr0, {3}
    a030:	632e6b74 	teqvs	lr, #116, 22	; 0x1d000
    a034:	00000000 	andeq	r0, r0, r0
    a038:	00000030 	andeq	r0, r0, r0, lsr r0
    a03c:	33323130 	teqcc	r2, #48, 2
    a040:	37363534 			; <UNDEFINED> instruction: 0x37363534
    a044:	00003938 	andeq	r3, r0, r8, lsr r9
    a048:	33323130 	teqcc	r2, #48, 2
    a04c:	37363534 			; <UNDEFINED> instruction: 0x37363534
    a050:	62613938 	rsbvs	r3, r1, #56, 18	; 0xe0000
    a054:	66656463 	strbtvs	r6, [r5], -r3, ror #8
    a058:	00000000 	andeq	r0, r0, r0
    a05c:	00003130 	andeq	r3, r0, r0, lsr r1
    a060:	63747570 	cmnvs	r4, #112, 10	; 0x1c000000
    a064:	0070665f 	rsbseq	r6, r0, pc, asr r6
    a068:	74646977 	strbtvc	r6, [r4], #-2423	; 0x977
    a06c:	203c2068 	eorscs	r2, ip, r8, rrx
    a070:	00003233 	andeq	r3, r0, r3, lsr r2
    a074:	494e4150 	stmdbmi	lr, {r4, r6, r8, lr}^
    a078:	73253a43 	teqvc	r5, #274432	; 0x43000
    a07c:	3a73253a 	bcc	1cd356c <__bss_end__+0x1cc8f3c>
    a080:	663a6425 	ldrtvs	r6, [sl], -r5, lsr #8
    a084:	74616f6c 	strbtvc	r6, [r1], #-3948	; 0xf6c
    a088:	746f6e20 	strbtvc	r6, [pc], #-3616	; a090 <__FUNCTION__.4272+0x78>
    a08c:	616e6520 	cmnvs	lr, r0, lsr #10
    a090:	64656c62 	strbtvs	r6, [r5], #-3170	; 0xc62
    a094:	0a212121 	beq	852520 <__bss_end__+0x847ef0>
    a098:	00000000 	andeq	r0, r0, r0
    a09c:	6e697270 	mcrvs	2, 3, r7, cr9, cr0, {3}
    a0a0:	203a6b74 	eorscs	r6, sl, r4, ror fp
    a0a4:	20746f6e 	rsbscs	r6, r4, lr, ror #30
    a0a8:	646e6168 	strbtvs	r6, [lr], #-360	; 0x168
    a0ac:	676e696c 	strbvs	r6, [lr, -ip, ror #18]!
    a0b0:	65707320 	ldrbvs	r7, [r0, #-800]!	; 0x320
    a0b4:	69666963 	stmdbvs	r6!, {r0, r1, r5, r6, r8, fp, sp, lr}^
    a0b8:	27207265 	strcs	r7, [r0, -r5, ror #4]!
    a0bc:	20276325 	eorcs	r6, r7, r5, lsr #6
    a0c0:	63736128 	cmnvs	r3, #40, 2
    a0c4:	253d6969 	ldrcs	r6, [sp, #-2409]!	; 0x969
    a0c8:	000a2964 	andeq	r2, sl, r4, ror #18
    a0cc:	494e4150 	stmdbmi	lr, {r4, r6, r8, lr}^
    a0d0:	73253a43 	teqvc	r5, #274432	; 0x43000
    a0d4:	3a73253a 	bcc	1cd35c4 <__bss_end__+0x1cc8f94>
    a0d8:	703a6425 	eorsvc	r6, sl, r5, lsr #8
    a0dc:	746e6972 	strbtvc	r6, [lr], #-2418	; 0x972
    a0e0:	7265206b 	rsbvc	r2, r5, #107	; 0x6b
    a0e4:	0a726f72 	beq	1ca5eb4 <__bss_end__+0x1c9b884>
    a0e8:	0000000a 	andeq	r0, r0, sl
    a0ec:	454e4f44 	strbmi	r4, [lr, #-3908]	; 0xf44
    a0f0:	0a212121 	beq	85257c <__bss_end__+0x847f4c>
    a0f4:	00000000 	andeq	r0, r0, r0

0000a0f8 <__FUNCTION__.4220>:
    a0f8:	74736166 	ldrbtvc	r6, [r3], #-358	; 0x166
    a0fc:	746e695f 	strbtvc	r6, [lr], #-2399	; 0x95f
    a100:	75727265 	ldrbvc	r7, [r2, #-613]!	; 0x265
    a104:	765f7470 			; <UNDEFINED> instruction: 0x765f7470
    a108:	6f746365 	svcvs	0x00746365
    a10c:	00000072 	andeq	r0, r0, r2, ror r0
    a110:	494e4150 	stmdbmi	lr, {r4, r6, r8, lr}^
    a114:	73253a43 	teqvc	r5, #274432	; 0x43000
    a118:	3a73253a 	bcc	1cd3608 <__bss_end__+0x1cc8fd8>
    a11c:	453a6425 	ldrmi	r6, [sl, #-1061]!	; 0x425
    a120:	524f5252 	subpl	r5, pc, #536870917	; 0x20000005
    a124:	6e75203a 	mrcvs	0, 3, r2, cr5, cr10, {1}
    a128:	646e6168 	strbtvs	r6, [lr], #-360	; 0x168
    a12c:	2064656c 	rsbcs	r6, r4, ip, ror #10
    a130:	65637865 	strbvs	r7, [r3, #-2149]!	; 0x865
    a134:	6f697470 	svcvs	0x00697470
    a138:	253c206e 	ldrcs	r2, [ip, #-110]!	; 0x6e
    a13c:	61203e73 	teqvs	r0, r3, ror lr
    a140:	43502074 	cmpmi	r0, #116	; 0x74
    a144:	0a78253d 	beq	1e13640 <__bss_end__+0x1e09010>
    a148:	0000000a 	andeq	r0, r0, sl
    a14c:	66617473 			; <UNDEFINED> instruction: 0x66617473
    a150:	72732d66 	rsbsvc	r2, r3, #6528	; 0x1980
    a154:	65642f63 	strbvs	r2, [r4, #-3939]!	; 0xf63
    a158:	6c756166 	ldfvse	f6, [r5], #-408	; 0xfffffe68
    a15c:	61682d74 	smcvs	33492	; 0x82d4
    a160:	656c646e 	strbvs	r6, [ip, #-1134]!	; 0x46e
    a164:	61662d72 	smcvs	25298	; 0x62d2
    a168:	632e7473 	teqvs	lr, #1929379840	; 0x73000000
    a16c:	00000000 	andeq	r0, r0, r0
    a170:	74736166 	ldrbtvc	r6, [r3], #-358	; 0x166
    a174:	00000000 	andeq	r0, r0, r0

0000a178 <__FUNCTION__.4220>:
    a178:	65736572 	ldrbvs	r6, [r3, #-1394]!	; 0x572
    a17c:	65765f74 	ldrbvs	r5, [r6, #-3956]!	; 0xf74
    a180:	726f7463 	rsbvc	r7, pc, #1660944384	; 0x63000000
    a184:	00000000 	andeq	r0, r0, r0
    a188:	66617473 			; <UNDEFINED> instruction: 0x66617473
    a18c:	72732d66 	rsbsvc	r2, r3, #6528	; 0x1980
    a190:	65642f63 	strbvs	r2, [r4, #-3939]!	; 0xf63
    a194:	6c756166 	ldfvse	f6, [r5], #-408	; 0xfffffe68
    a198:	61682d74 	smcvs	33492	; 0x82d4
    a19c:	656c646e 	strbvs	r6, [ip, #-1134]!	; 0x46e
    a1a0:	65722d72 	ldrbvs	r2, [r2, #-3442]!	; 0xd72
    a1a4:	2e746573 	mrccs	5, 3, r6, cr4, cr3, {3}
    a1a8:	00000063 	andeq	r0, r0, r3, rrx
    a1ac:	65736572 	ldrbvs	r6, [r3, #-1394]!	; 0x572
    a1b0:	00000074 	andeq	r0, r0, r4, ror r0

0000a1b4 <__FUNCTION__.4220>:
    a1b4:	65646e75 	strbvs	r6, [r4, #-3701]!	; 0xe75
    a1b8:	656e6966 	strbvs	r6, [lr, #-2406]!	; 0x966
    a1bc:	6e695f64 	cdpvs	15, 6, cr5, cr9, cr4, {3}
    a1c0:	75727473 	ldrbvc	r7, [r2, #-1139]!	; 0x473
    a1c4:	6f697463 	svcvs	0x00697463
    a1c8:	65765f6e 	ldrbvs	r5, [r6, #-3950]!	; 0xf6e
    a1cc:	726f7463 	rsbvc	r7, pc, #1660944384	; 0x63000000
    a1d0:	00000000 	andeq	r0, r0, r0
    a1d4:	66617473 			; <UNDEFINED> instruction: 0x66617473
    a1d8:	72732d66 	rsbsvc	r2, r3, #6528	; 0x1980
    a1dc:	65642f63 	strbvs	r2, [r4, #-3939]!	; 0xf63
    a1e0:	6c756166 	ldfvse	f6, [r5], #-408	; 0xfffffe68
    a1e4:	61682d74 	smcvs	33492	; 0x82d4
    a1e8:	656c646e 	strbvs	r6, [ip, #-1134]!	; 0x46e
    a1ec:	6e752d72 	mrcvs	13, 3, r2, cr5, cr2, {3}
    a1f0:	69666564 	stmdbvs	r6!, {r2, r5, r6, r8, sl, sp, lr}^
    a1f4:	2d64656e 	cfstr64cs	mvdx6, [r4, #-440]!	; 0xfffffe48
    a1f8:	74736e69 	ldrbtvc	r6, [r3], #-3689	; 0xe69
    a1fc:	0000632e 	andeq	r6, r0, lr, lsr #6
    a200:	65646e75 	strbvs	r6, [r4, #-3701]!	; 0xe75
    a204:	656e6966 	strbvs	r6, [lr, #-2406]!	; 0x966
    a208:	6e692064 	cdpvs	0, 6, cr2, cr9, cr4, {3}
    a20c:	00007473 	andeq	r7, r0, r3, ror r4

Disassembly of section .bss:

0000a210 <__bss_start__>:
    a210:	00000000 	andeq	r0, r0, r0

0000a214 <brkpt_handler0>:
    a214:	00000000 	andeq	r0, r0, r0

0000a218 <brk_verbose_p>:
    a218:	00000000 	andeq	r0, r0, r0

0000a21c <nfaults.4398>:
    a21c:	00000000 	andeq	r0, r0, r0

0000a220 <init_p.4404>:
    a220:	00000000 	andeq	r0, r0, r0

0000a224 <checker>:
    a224:	00000000 	andeq	r0, r0, r0

0000a228 <expected_handle>:
    a228:	00000000 	andeq	r0, r0, r0

0000a22c <buf.4189>:
	...

Disassembly of section .ARM.attributes:

00000000 <.ARM.attributes>:
   0:	00002a41 	andeq	r2, r0, r1, asr #20
   4:	61656100 	cmnvs	r5, r0, lsl #2
   8:	01006962 	tsteq	r0, r2, ror #18
   c:	00000020 	andeq	r0, r0, r0, lsr #32
  10:	4b5a3605 	blmi	168d82c <__bss_end__+0x16831fc>
  14:	08070600 	stmdaeq	r7, {r9, sl}
  18:	12010901 	andne	r0, r1, #16384	; 0x4000
  1c:	15011404 	strne	r1, [r1, #-1028]	; 0x404
  20:	18031701 	stmdane	r3, {r0, r8, r9, sl, ip}
  24:	22011a01 	andcs	r1, r1, #4096	; 0x1000
  28:	Address 0x0000000000000028 is out of bounds.


Disassembly of section .comment:

00000000 <.comment>:
   0:	3a434347 	bcc	10d0d24 <__bss_end__+0x10c66f4>
   4:	4e472820 	cdpmi	8, 4, cr2, cr7, cr0, {1}
   8:	34202955 	strtcc	r2, [r0], #-2389	; 0x955
   c:	332e382e 	teqcc	lr, #3014656	; 0x2e0000
  10:	43434700 	movtmi	r4, #14080	; 0x3700
  14:	3128203a 	teqcc	r8, sl, lsr r0
  18:	2e363a35 	mrccs	10, 1, r3, cr6, cr5, {1}
  1c:	2b312e33 	blcs	c4b8f0 <__bss_end__+0xc412c0>
  20:	326e7673 	rsbcc	r7, lr, #120586240	; 0x7300000
  24:	33303335 	teqcc	r0, #-738197504	; 0xd4000000
  28:	62312d39 	eorsvs	r2, r1, #3648	; 0xe40
  2c:	646c6975 	strbtvs	r6, [ip], #-2421	; 0x975
  30:	36202931 			; <UNDEFINED> instruction: 0x36202931
  34:	312e332e 	teqcc	lr, lr, lsr #6
  38:	31303220 	teqcc	r0, r0, lsr #4
  3c:	32363037 	eorscc	r3, r6, #55	; 0x37
  40:	Address 0x0000000000000040 is out of bounds.


Disassembly of section .debug_info:

00000000 <.debug_info>:
       0:	00000454 	andeq	r0, r0, r4, asr r4
       4:	00000004 	andeq	r0, r0, r4
       8:	01040000 	mrseq	r0, (UNDEF: 4)
       c:	00000146 	andeq	r0, r0, r6, asr #2
      10:	00012c01 	andeq	r2, r1, r1, lsl #24
      14:	00002e00 	andeq	r2, r0, r0, lsl #28
      18:	00802000 	addeq	r2, r0, r0
      1c:	0001a000 	andeq	sl, r1, r0
      20:	00000000 	andeq	r0, r0, r0
      24:	05040200 	streq	r0, [r4, #-512]	; 0x200
      28:	00746e69 	rsbseq	r6, r4, r9, ror #28
      2c:	bd070403 	cfstrslt	mvf0, [r7, #-12]
      30:	03000001 	movweq	r0, #1
      34:	00c20601 	sbceq	r0, r2, r1, lsl #12
      38:	02030000 	andeq	r0, r3, #0
      3c:	00000f05 	andeq	r0, r0, r5, lsl #30
      40:	05040300 	streq	r0, [r4, #-768]	; 0x300
      44:	000001f1 	strdeq	r0, [r0], -r1
      48:	ec050803 	stc	8, cr0, [r5], {3}
      4c:	03000001 	movweq	r0, #1
      50:	00c00801 	sbceq	r0, r0, r1, lsl #16
      54:	02030000 	andeq	r0, r3, #0
      58:	0000e607 	andeq	lr, r0, r7, lsl #12
      5c:	021b0400 	andseq	r0, fp, #0, 8
      60:	34040000 	strcc	r0, [r4], #-0
      64:	00000068 	andeq	r0, r0, r8, rrx
      68:	b8070403 	stmdalt	r7, {r0, r1, sl}
      6c:	03000001 	movweq	r0, #1
      70:	01b30708 			; <UNDEFINED> instruction: 0x01b30708
      74:	04030000 	streq	r0, [r3], #-0
      78:	0001e307 	andeq	lr, r1, r7, lsl #6
      7c:	08010300 	stmdaeq	r1, {r8, r9}
      80:	000000c9 	andeq	r0, r0, r9, asr #1
      84:	008a0405 	addeq	r0, sl, r5, lsl #8
      88:	7d060000 	stcvc	0, cr0, [r6, #-0]
      8c:	07000000 	streq	r0, [r0, -r0]
      90:	0000007d 	andeq	r0, r0, sp, ror r0
      94:	0000009f 	muleq	r0, pc, r0	; <UNPREDICTABLE>
      98:	00007608 	andeq	r7, r0, r8, lsl #12
      9c:	09000700 	stmdbeq	r0, {r8, r9, sl}
      a0:	000001d1 	ldrdeq	r0, [r0], -r1
      a4:	500a0338 	andpl	r0, sl, r8, lsr r3
      a8:	0a000001 	beq	b4 <__code_start__-0x7f4c>
      ac:	00000a44 	andeq	r0, r0, r4, asr #20
      b0:	01500f03 	cmpeq	r0, r3, lsl #30
      b4:	0b000000 	bleq	bc <__code_start__-0x7f44>
      b8:	12030041 	andne	r0, r3, #65	; 0x41
      bc:	00000168 	andeq	r0, r0, r8, ror #2
      c0:	00420b04 	subeq	r0, r2, r4, lsl #22
      c4:	017d1303 	cmneq	sp, r3, lsl #6
      c8:	0a080000 	beq	2000d0 <__bss_end__+0x1f5aa0>
      cc:	0000010b 	andeq	r0, r0, fp, lsl #2
      d0:	01681603 	cmneq	r8, r3, lsl #12
      d4:	0a0c0000 	beq	3000dc <__bss_end__+0x2f5aac>
      d8:	00000028 	andeq	r0, r0, r8, lsr #32
      dc:	017d1803 	cmneq	sp, r3, lsl #16
      e0:	0a100000 	beq	4000e8 <__bss_end__+0x3f5ab8>
      e4:	000001d9 	ldrdeq	r0, [r0], -r9
      e8:	01831f03 	orreq	r1, r3, r3, lsl #30
      ec:	0a140000 	beq	5000f4 <__bss_end__+0x4f5ac4>
      f0:	000000af 	andeq	r0, r0, pc, lsr #1
      f4:	01833103 	orreq	r3, r3, r3, lsl #2
      f8:	0a180000 	beq	600100 <__bss_end__+0x5f5ad0>
      fc:	000000db 	ldrdeq	r0, [r0], -fp
     100:	01883603 	orreq	r3, r8, r3, lsl #12
     104:	0a1c0000 	beq	70010c <__bss_end__+0x6f5adc>
     108:	00000202 	andeq	r0, r0, r2, lsl #4
     10c:	01883a03 	orreq	r3, r8, r3, lsl #20
     110:	0a200000 	beq	800118 <__bss_end__+0x7f5ae8>
     114:	00000019 	andeq	r0, r0, r9, lsl r0
     118:	01833f03 	orreq	r3, r3, r3, lsl #30
     11c:	0a240000 	beq	900124 <__bss_end__+0x8f5af4>
     120:	000001fa 	strdeq	r0, [r0], -sl
     124:	002c4203 	eoreq	r4, ip, r3, lsl #4
     128:	0a280000 	beq	a00130 <__bss_end__+0x9f5b00>
     12c:	000000a7 	andeq	r0, r0, r7, lsr #1
     130:	002c4303 	eoreq	r4, ip, r3, lsl #6
     134:	0a2c0000 	beq	b0013c <__bss_end__+0xaf5b0c>
     138:	0000011d 	andeq	r0, r0, sp, lsl r1
     13c:	002c4603 	eoreq	r4, ip, r3, lsl #12
     140:	0a300000 	beq	c00148 <__bss_end__+0xbf5b18>
     144:	00000224 	andeq	r0, r0, r4, lsr #4
     148:	01884803 	orreq	r4, r8, r3, lsl #16
     14c:	00340000 	eorseq	r0, r4, r0
     150:	01560405 	cmpeq	r6, r5, lsl #8
     154:	0d0c0000 	stceq	0, cr0, [ip, #-0]
     158:	00000162 	andeq	r0, r0, r2, ror #2
     15c:	0001620e 	andeq	r6, r1, lr, lsl #4
     160:	04050000 	streq	r0, [r5], #-0
     164:	0000009f 	muleq	r0, pc, r0	; <UNPREDICTABLE>
     168:	01570405 	cmpeq	r7, r5, lsl #8
     16c:	250f0000 	strcs	r0, [pc, #-0]	; 174 <__code_start__-0x7e8c>
     170:	7d000000 	stcvc	0, cr0, [r0, #-0]
     174:	0e000001 	cdpeq	0, 0, cr0, cr0, cr1, {0}
     178:	00000162 	andeq	r0, r0, r2, ror #2
     17c:	6e040500 	cfsh32vs	mvfx0, mvfx4, #0
     180:	10000001 	andne	r0, r0, r1
     184:	0000002c 	andeq	r0, r0, ip, lsr #32
     188:	00005d10 	andeq	r5, r0, r0, lsl sp
     18c:	00050400 	andeq	r0, r5, r0, lsl #8
     190:	49030000 	stmdbmi	r3, {}	; <UNPREDICTABLE>
     194:	0000009f 	muleq	r0, pc, r0	; <UNPREDICTABLE>
     198:	00009511 	andeq	r9, r0, r1, lsl r5
     19c:	03c30200 	biceq	r0, r3, #0, 4
     1a0:	000001b0 			; <UNDEFINED> instruction: 0x000001b0
     1a4:	00000012 	andeq	r0, r0, r2, lsl r0
     1a8:	25c30200 	strbcs	r0, [r3, #512]	; 0x200
     1ac:	00000000 	andeq	r0, r0, r0
     1b0:	00008f13 	andeq	r8, r0, r3, lsl pc
     1b4:	20050100 	andcs	r0, r5, r0, lsl #2
     1b8:	04000080 	streq	r0, [r0], #-128	; 0x80
     1bc:	01000000 	mrseq	r0, (UNDEF: 0)
     1c0:	0001d19c 	muleq	r1, ip, r1
     1c4:	00631400 	rsbeq	r1, r3, r0, lsl #8
     1c8:	01d10501 	bicseq	r0, r1, r1, lsl #10
     1cc:	50010000 	andpl	r0, r1, r0
     1d0:	8d040500 	cfstr32hi	mvfx0, [r4, #-0]
     1d4:	15000001 	strne	r0, [r0, #-1]
     1d8:	000000a1 	andeq	r0, r0, r1, lsr #1
     1dc:	00250601 	eoreq	r0, r5, r1, lsl #12
     1e0:	80240000 	eorhi	r0, r4, r0
     1e4:	00080000 	andeq	r0, r8, r0
     1e8:	9c010000 	stcls	0, cr0, [r1], {-0}
     1ec:	000001fe 	strdeq	r0, [r0], -lr
     1f0:	01006316 	tsteq	r0, r6, lsl r3
     1f4:	0001d106 	andeq	sp, r1, r6, lsl #2
     1f8:	00000000 	andeq	r0, r0, r0
     1fc:	07130000 	ldreq	r0, [r3, -r0]
     200:	01000001 	tsteq	r0, r1
     204:	00802c07 	addeq	r2, r0, r7, lsl #24
     208:	00000400 	andeq	r0, r0, r0, lsl #8
     20c:	1f9c0100 	svcne	0x009c0100
     210:	14000002 	strne	r0, [r0], #-2
     214:	07010063 	streq	r0, [r1, -r3, rrx]
     218:	000001d1 	ldrdeq	r0, [r0], -r1
     21c:	15005001 	strne	r5, [r0, #-1]
     220:	00000024 	andeq	r0, r0, r4, lsr #32
     224:	00250901 	eoreq	r0, r5, r1, lsl #18
     228:	80300000 	eorshi	r0, r0, r0
     22c:	001c0000 	andseq	r0, ip, r0
     230:	9c010000 	stcls	0, cr0, [r1], {-0}
     234:	00000246 	andeq	r0, r0, r6, asr #4
     238:	01006316 	tsteq	r0, r6, lsl r3
     23c:	0001d109 	andeq	sp, r1, r9, lsl #2
     240:	00002100 	andeq	r2, r0, r0, lsl #2
     244:	ca170000 	bgt	5c024c <__bss_end__+0x5b5c1c>
     248:	01000001 	tsteq	r0, r1
     24c:	00018d0f 	andeq	r8, r1, pc, lsl #26
     250:	00804c00 	addeq	r4, r0, r0, lsl #24
     254:	00007000 	andeq	r7, r0, r0
     258:	189c0100 	ldmne	ip, {r8}
     25c:	00000087 	andeq	r0, r0, r7, lsl #1
     260:	80bc1901 	adcshi	r1, ip, r1, lsl #18
     264:	01040000 	mrseq	r0, (UNDEF: 4)
     268:	9c010000 	stcls	0, cr0, [r1], {-0}
     26c:	00000407 	andeq	r0, r0, r7, lsl #8
     270:	01006319 	tsteq	r0, r9, lsl r3
     274:	00009f1e 	andeq	r9, r0, lr, lsl pc
     278:	40910200 	addsmi	r0, r1, r0, lsl #4
     27c:	01006e1a 	tsteq	r0, sl, lsl lr
     280:	0000251f 	andeq	r2, r0, pc, lsl r5
     284:	01101b00 	tsteq	r0, r0, lsl #22
     288:	04070000 	streq	r0, [r7], #-0
     28c:	03050000 	movweq	r0, #20480	; 0x5000
     290:	00009b18 	andeq	r9, r0, r8, lsl fp
     294:	0001981c 	andeq	r9, r1, ip, lsl r8
     298:	0080c800 	addeq	ip, r0, r0, lsl #16
     29c:	00000c00 	andeq	r0, r0, r0, lsl #24
     2a0:	ae1d0100 	mufgee	f0, f5, f0
     2a4:	1d000002 	stcne	0, cr0, [r0, #-8]
     2a8:	000001a4 	andeq	r0, r0, r4, lsr #3
     2ac:	c81e0000 	ldmdagt	lr, {}	; <UNPREDICTABLE>
     2b0:	17000080 	strne	r0, [r0, -r0, lsl #1]
     2b4:	1f000004 	svcne	0x00000004
     2b8:	000080dc 	ldrdeq	r8, [r0], -ip
     2bc:	00000246 	andeq	r0, r0, r6, asr #4
     2c0:	000002cc 	andeq	r0, r0, ip, asr #5
     2c4:	03500120 	cmpeq	r0, #32, 2
     2c8:	007fb891 			; <UNDEFINED> instruction: 0x007fb891
     2cc:	0080e41f 	addeq	lr, r0, pc, lsl r4
     2d0:	00041e00 	andeq	r1, r4, r0, lsl #28
     2d4:	0002e100 	andeq	lr, r2, r0, lsl #2
     2d8:	50012000 	andpl	r2, r1, r0
     2dc:	7fb89103 	svcvc	0x00b89103
     2e0:	80fc1e00 	rscshi	r1, ip, r0, lsl #28
     2e4:	04330000 	ldrteq	r0, [r3], #-0
     2e8:	181f0000 	ldmdane	pc, {}	; <UNPREDICTABLE>
     2ec:	3a000081 	bcc	4f8 <__code_start__-0x7b08>
     2f0:	23000004 	movwcs	r0, #4
     2f4:	20000003 	andcs	r0, r0, r3
     2f8:	08025301 	stmdaeq	r2, {r0, r8, r9, ip, lr}
     2fc:	52012021 	andpl	r2, r1, #33	; 0x21
     300:	9b180305 	blls	600f1c <__bss_end__+0x5f68ec>
     304:	01200000 	teqeq	r0, r0
     308:	1c030551 	cfstr32ne	mvfx0, [r3], {81}	; 0x51
     30c:	2000009a 	mulcs	r0, sl, r0
     310:	03055001 	movweq	r5, #20481	; 0x5001
     314:	00009a08 	andeq	r9, r0, r8, lsl #20
     318:	007d0220 	rsbseq	r0, sp, r0, lsr #4
     31c:	9a380305 	bls	e00f38 <__bss_end__+0xdf6908>
     320:	1e000000 	cdpne	0, 0, cr0, cr0, cr0, {0}
     324:	0000811c 	andeq	r8, r0, ip, lsl r1
     328:	00000450 	andeq	r0, r0, r0, asr r4
     32c:	0081201e 	addeq	r2, r1, lr, lsl r0
     330:	00043300 	andeq	r3, r4, r0, lsl #6
     334:	813c1f00 	teqhi	ip, r0, lsl #30
     338:	043a0000 	ldrteq	r0, [sl], #-0
     33c:	03640000 	cmneq	r4, #0
     340:	01200000 	teqeq	r0, r0
     344:	23080253 	movwcs	r0, #33363	; 0x8253
     348:	05520120 	ldrbeq	r0, [r2, #-288]	; 0x120
     34c:	009b1803 	addseq	r1, fp, r3, lsl #16
     350:	51012000 	mrspl	r2, (UNDEF: 1)
     354:	9a1c0305 	bls	700f70 <__bss_end__+0x6f6940>
     358:	01200000 	teqeq	r0, r0
     35c:	44030550 	strmi	r0, [r3], #-1360	; 0x550
     360:	0000009a 	muleq	r0, sl, r0
     364:	0081401e 	addeq	r4, r1, lr, lsl r0
     368:	00045000 	andeq	r5, r4, r0
     36c:	81501f00 	cmphi	r0, r0, lsl #30
     370:	043a0000 	ldrteq	r0, [sl], #-0
     374:	03840000 	orreq	r0, r4, #0
     378:	01200000 	teqeq	r0, r0
     37c:	7c030550 	cfstr32vc	mvfx0, [r3], {80}	; 0x50
     380:	0000009a 	muleq	r0, sl, r0
     384:	0081641e 	addeq	r6, r1, lr, lsl r4
     388:	00043300 	andeq	r3, r4, r0, lsl #6
     38c:	81801f00 	orrhi	r1, r0, r0, lsl #30
     390:	043a0000 	ldrteq	r0, [sl], #-0
     394:	03c60000 	biceq	r0, r6, #0
     398:	01200000 	teqeq	r0, r0
     39c:	27080253 	smlsdcs	r8, r3, r2, r0
     3a0:	05520120 	ldrbeq	r0, [r2, #-288]	; 0x120
     3a4:	009b1803 	addseq	r1, fp, r3, lsl #16
     3a8:	51012000 	mrspl	r2, (UNDEF: 1)
     3ac:	9a1c0305 	bls	700fc8 <__bss_end__+0x6f6998>
     3b0:	01200000 	teqeq	r0, r0
     3b4:	08030550 	stmdaeq	r3, {r4, r6, r8, sl}
     3b8:	2000009a 	mulcs	r0, sl, r0
     3bc:	05007d02 	streq	r7, [r0, #-3330]	; 0xd02
     3c0:	009aa403 	addseq	sl, sl, r3, lsl #8
     3c4:	841e0000 	ldrhi	r0, [lr], #-0
     3c8:	50000081 	andpl	r0, r0, r1, lsl #1
     3cc:	1f000004 	svcne	0x00000004
     3d0:	0000818c 	andeq	r8, r0, ip, lsl #3
     3d4:	0000043a 	andeq	r0, r0, sl, lsr r4
     3d8:	000003e6 	andeq	r0, r0, r6, ror #7
     3dc:	05500120 	ldrbeq	r0, [r0, #-288]	; 0x120
     3e0:	009abc03 	addseq	fp, sl, r3, lsl #24
     3e4:	941f0000 	ldrls	r0, [pc], #-0	; 3ec <__code_start__-0x7c14>
     3e8:	3a000081 	bcc	5f4 <__code_start__-0x7a0c>
     3ec:	fd000004 	stc2	0, cr0, [r0, #-16]
     3f0:	20000003 	andcs	r0, r0, r3
     3f4:	03055001 	movweq	r5, #20481	; 0x5001
     3f8:	00009ac8 	andeq	r9, r0, r8, asr #21
     3fc:	81981e00 	orrshi	r1, r8, r0, lsl #28
     400:	04500000 	ldrbeq	r0, [r0], #-0
     404:	06000000 	streq	r0, [r0], -r0
     408:	0000008f 	andeq	r0, r0, pc, lsl #1
     40c:	0000f921 	andeq	pc, r0, r1, lsr #18
     410:	25c20200 	strbcs	r0, [r2, #512]	; 0x200
     414:	22000000 	andcs	r0, r0, #0
     418:	0000020e 	andeq	r0, r0, lr, lsl #4
     41c:	28238d05 	stmdacs	r3!, {r0, r2, r8, sl, fp, pc}
     420:	03000000 	movweq	r0, #0
     424:	0000254e 	andeq	r2, r0, lr, asr #10
     428:	00043300 	andeq	r3, r4, r0, lsl #6
     42c:	01d10e00 	bicseq	r0, r1, r0, lsl #28
     430:	22000000 	andcs	r0, r0, #0
     434:	0000022a 	andeq	r0, r0, sl, lsr #4
     438:	7d231e05 	stcvc	14, cr1, [r3, #-20]!	; 0xffffffec
     43c:	05000005 	streq	r0, [r0, #-5]
     440:	00002529 	andeq	r2, r0, r9, lsr #10
     444:	00045000 	andeq	r5, r4, r0
     448:	00840e00 	addeq	r0, r4, r0, lsl #28
     44c:	00240000 	eoreq	r0, r4, r0
     450:	0000ce22 	andeq	ip, r0, r2, lsr #28
     454:	00650500 	rsbeq	r0, r5, r0, lsl #10
     458:	00000bd7 	ldrdeq	r0, [r0], -r7
     45c:	01f20004 	mvnseq	r0, r4
     460:	01040000 	mrseq	r0, (UNDEF: 4)
     464:	00000146 	andeq	r0, r0, r6, asr #2
     468:	00027501 	andeq	r7, r2, r1, lsl #10
     46c:	00002e00 	andeq	r2, r0, r0, lsl #28
     470:	0081c000 	addeq	ip, r1, r0
     474:	00037800 	andeq	r7, r3, r0, lsl #16
     478:	00015900 	andeq	r5, r1, r0, lsl #18
     47c:	05040200 	streq	r0, [r4, #-512]	; 0x200
     480:	00746e69 	rsbseq	r6, r4, r9, ror #28
     484:	bd070403 	cfstrslt	mvf0, [r7, #-12]
     488:	03000001 	movweq	r0, #1
     48c:	00c20601 	sbceq	r0, r2, r1, lsl #12
     490:	02030000 	andeq	r0, r3, #0
     494:	00000f05 	andeq	r0, r0, r5, lsl #30
     498:	05040300 	streq	r0, [r4, #-768]	; 0x300
     49c:	000001f1 	strdeq	r0, [r0], -r1
     4a0:	ec050803 	stc	8, cr0, [r5], {3}
     4a4:	03000001 	movweq	r0, #1
     4a8:	00c00801 	sbceq	r0, r0, r1, lsl #16
     4ac:	02030000 	andeq	r0, r3, #0
     4b0:	0000e607 	andeq	lr, r0, r7, lsl #12
     4b4:	021b0400 	andseq	r0, fp, #0, 8
     4b8:	34030000 	strcc	r0, [r3], #-0
     4bc:	00000068 	andeq	r0, r0, r8, rrx
     4c0:	b8070403 	stmdalt	r7, {r0, r1, sl}
     4c4:	03000001 	movweq	r0, #1
     4c8:	01b30708 			; <UNDEFINED> instruction: 0x01b30708
     4cc:	04030000 	streq	r0, [r3], #-0
     4d0:	0001e307 	andeq	lr, r1, r7, lsl #6
     4d4:	03040500 	movweq	r0, #17664	; 0x4500
     4d8:	00c90801 	sbceq	r0, r9, r1, lsl #16
     4dc:	04060000 	streq	r0, [r6], #-0
     4e0:	0000008c 	andeq	r0, r0, ip, lsl #1
     4e4:	00007f07 	andeq	r7, r0, r7, lsl #30
     4e8:	03ed0400 	mvneq	r0, #0, 8
     4ec:	8a020000 	bhi	804f4 <__bss_end__+0x75ec4>
     4f0:	0000009c 	muleq	r0, ip, r0
     4f4:	00a20406 	adceq	r0, r2, r6, lsl #8
     4f8:	b7080000 	strlt	r0, [r8, -r0]
     4fc:	09000000 	stmdbeq	r0, {}	; <UNPREDICTABLE>
     500:	000000b7 	strheq	r0, [r0], -r7
     504:	00005d09 	andeq	r5, r0, r9, lsl #26
     508:	005d0900 	subseq	r0, sp, r0, lsl #18
     50c:	06000000 	streq	r0, [r0], -r0
     510:	00005d04 	andeq	r5, r0, r4, lsl #26
     514:	03b90a00 			; <UNDEFINED> instruction: 0x03b90a00
     518:	5f020000 	svcpl	0x00020000
     51c:	0000005d 	andeq	r0, r0, sp, asr r0
     520:	0000d903 	andeq	sp, r0, r3, lsl #18
     524:	65720b00 	ldrbvs	r0, [r2, #-2816]!	; 0xb00
     528:	5f020074 	svcpl	0x00020074
     52c:	0000005d 	andeq	r0, r0, sp, asr r0
     530:	03390a00 	teqeq	r9, #0, 20
     534:	a6020000 	strge	r0, [r2], -r0
     538:	0000005d 	andeq	r0, r0, sp, asr r0
     53c:	0000f503 	andeq	pc, r0, r3, lsl #10
     540:	65720b00 	ldrbvs	r0, [r2, #-2816]!	; 0xb00
     544:	a6020074 			; <UNDEFINED> instruction: 0xa6020074
     548:	0000005d 	andeq	r0, r0, sp, asr r0
     54c:	038b0a00 	orreq	r0, fp, #0, 20
     550:	70020000 	andvc	r0, r2, r0
     554:	0000002c 	andeq	r0, r0, ip, lsr #32
     558:	00010f03 	andeq	r0, r1, r3, lsl #30
     55c:	00720c00 	rsbseq	r0, r2, r0, lsl #24
     560:	005d7002 	subseq	r7, sp, r2
     564:	0a000000 	beq	56c <__code_start__-0x7a94>
     568:	000002a8 	andeq	r0, r0, r8, lsr #5
     56c:	005d1801 	subseq	r1, sp, r1, lsl #16
     570:	2b030000 	blcs	c0578 <__bss_end__+0xb5f48>
     574:	0b000001 	bleq	580 <__code_start__-0x7a80>
     578:	00746572 	rsbseq	r6, r4, r2, ror r5
     57c:	005d1801 	subseq	r1, sp, r1, lsl #16
     580:	0d000000 	stceq	0, cr0, [r0, #-0]
     584:	00000413 	andeq	r0, r0, r3, lsl r4
     588:	41031e01 	tstmi	r3, r1, lsl #28
     58c:	0c000001 	stceq	0, cr0, [r0], {1}
     590:	1e010076 	mcrne	0, 0, r0, cr1, cr6, {3}
     594:	0000005d 	andeq	r0, r0, sp, asr r0
     598:	02eb0d00 	rsceq	r0, fp, #0, 26
     59c:	26010000 	strcs	r0, [r1], -r0
     5a0:	00015703 	andeq	r5, r1, r3, lsl #14
     5a4:	00760c00 	rsbseq	r0, r6, r0, lsl #24
     5a8:	005d2601 	subseq	r2, sp, r1, lsl #12
     5ac:	0d000000 	stceq	0, cr0, [r0, #-0]
     5b0:	000003d1 	ldrdeq	r0, [r0], -r1
     5b4:	6d030d01 	stcvs	13, cr0, [r3, #-4]
     5b8:	0c000001 	stceq	0, cr0, [r0], {1}
     5bc:	0d010076 	stceq	0, cr0, [r1, #-472]	; 0xfffffe28
     5c0:	0000005d 	andeq	r0, r0, sp, asr r0
     5c4:	036b0a00 	cmneq	fp, #0, 20
     5c8:	66020000 	strvs	r0, [r2], -r0
     5cc:	0000002c 	andeq	r0, r0, ip, lsr #32
     5d0:	00018903 	andeq	r8, r1, r3, lsl #18
     5d4:	03270e00 	teqeq	r7, #0, 28
     5d8:	67020000 	strvs	r0, [r2, -r0]
     5dc:	0000005d 	andeq	r0, r0, sp, asr r0
     5e0:	03f70a00 	mvnseq	r0, #0, 20
     5e4:	56020000 	strpl	r0, [r2], -r0
     5e8:	0000005d 	andeq	r0, r0, sp, asr r0
     5ec:	0001a503 	andeq	sl, r1, r3, lsl #10
     5f0:	65720b00 	ldrbvs	r0, [r2, #-2816]!	; 0xb00
     5f4:	56020074 			; <UNDEFINED> instruction: 0x56020074
     5f8:	0000005d 	andeq	r0, r0, sp, asr r0
     5fc:	03310a00 	teqeq	r1, #0, 20
     600:	63020000 	movwvs	r0, #8192	; 0x2000
     604:	0000005d 	andeq	r0, r0, sp, asr r0
     608:	0001c103 	andeq	ip, r1, r3, lsl #2
     60c:	65720b00 	ldrbvs	r0, [r2, #-2816]!	; 0xb00
     610:	63020074 	movwvs	r0, #8308	; 0x2074
     614:	0000005d 	andeq	r0, r0, sp, asr r0
     618:	02960d00 	addseq	r0, r6, #0, 26
     61c:	32010000 	andcc	r0, r1, #0
     620:	0001d703 	andeq	sp, r1, r3, lsl #14
     624:	00760c00 	rsbseq	r0, r6, r0, lsl #24
     628:	005d3201 	subseq	r3, sp, r1, lsl #4
     62c:	0a000000 	beq	634 <__code_start__-0x79cc>
     630:	00000305 	andeq	r0, r0, r5, lsl #6
     634:	005d8d01 	subseq	r8, sp, r1, lsl #26
     638:	f3030000 	vhadd.u8	d0, d3, d0
     63c:	0b000001 	bleq	648 <__code_start__-0x79b8>
     640:	00746572 	rsbseq	r6, r4, r2, ror r5
     644:	005d8d01 	subseq	r8, sp, r1, lsl #26
     648:	0d000000 	stceq	0, cr0, [r0, #-0]
     64c:	000002c7 	andeq	r0, r0, r7, asr #5
     650:	09038e01 	stmdbeq	r3, {r0, r9, sl, fp, pc}
     654:	0c000002 	stceq	0, cr0, [r0], {2}
     658:	8e010076 	mcrhi	0, 0, r0, cr1, cr6, {3}
     65c:	0000005d 	andeq	r0, r0, sp, asr r0
     660:	037d0d00 	cmneq	sp, #0, 26
     664:	8c010000 	stchi	0, cr0, [r1], {-0}
     668:	00021f03 	andeq	r1, r2, r3, lsl #30
     66c:	00760c00 	rsbseq	r0, r6, r0, lsl #24
     670:	005d8c01 	subseq	r8, sp, r1, lsl #24
     674:	0a000000 	beq	67c <__code_start__-0x7984>
     678:	00000282 	andeq	r0, r0, r2, lsl #5
     67c:	002ca902 	eoreq	sl, ip, r2, lsl #18
     680:	39030000 	stmdbcc	r3, {}	; <UNPREDICTABLE>
     684:	0b000002 	bleq	694 <__code_start__-0x796c>
     688:	aa020072 	bge	80858 <__bss_end__+0x76228>
     68c:	0000002c 	andeq	r0, r0, ip, lsr #32
     690:	03300a00 	teqeq	r0, #0, 20
     694:	97020000 	strls	r0, [r2, -r0]
     698:	0000005d 	andeq	r0, r0, sp, asr r0
     69c:	00025503 	andeq	r5, r2, r3, lsl #10
     6a0:	65720b00 	ldrbvs	r0, [r2, #-2816]!	; 0xb00
     6a4:	97020074 	smlsdxls	r2, r4, r0, r0
     6a8:	0000005d 	andeq	r0, r0, sp, asr r0
     6ac:	02de0f00 	sbcseq	r0, lr, #0, 30
     6b0:	36010000 	strcc	r0, [r1], -r0
     6b4:	000081c0 	andeq	r8, r0, r0, asr #3
     6b8:	000000b0 	strheq	r0, [r0], -r0	; <UNPREDICTABLE>
     6bc:	04309c01 	ldrteq	r9, [r0], #-3073	; 0xc01
     6c0:	08100000 	ldmdaeq	r0, {}	; <UNPREDICTABLE>
     6c4:	01000002 	tsteq	r0, r2
     6c8:	00007d36 	andeq	r7, r0, r6, lsr sp
     6cc:	00005b00 	andeq	r5, r0, r0, lsl #22
     6d0:	04311000 	ldrteq	r1, [r1], #-0
     6d4:	36010000 	strcc	r0, [r1], -r0
     6d8:	00000091 	muleq	r0, r1, r0
     6dc:	000000a0 	andeq	r0, r0, r0, lsr #1
     6e0:	00029f11 	andeq	r9, r2, r1, lsl pc
     6e4:	5d390100 	ldfpls	f0, [r9, #-0]
     6e8:	e5000000 	str	r0, [r0, #-0]
     6ec:	12000000 	andne	r0, r0, #0
     6f0:	00000110 	andeq	r0, r0, r0, lsl r1
     6f4:	00000440 	andeq	r0, r0, r0, asr #8
     6f8:	9c480305 	mcrrls	3, 0, r0, r8, cr5
     6fc:	d5110000 	ldrle	r0, [r1, #-0]
     700:	01000002 	tsteq	r0, r2
     704:	00005d43 	andeq	r5, r0, r3, asr #26
     708:	00011100 	andeq	r1, r1, r0, lsl #2
     70c:	010f1300 	mrseq	r1, SP_hyp
     710:	81c80000 	bichi	r0, r8, r0
     714:	00040000 	andeq	r0, r4, r0
     718:	39010000 	stmdbcc	r1, {}	; <UNPREDICTABLE>
     71c:	000002dc 	ldrdeq	r0, [r0], -ip
     720:	0081c814 	addeq	ip, r1, r4, lsl r8
     724:	00000400 	andeq	r0, r0, r0, lsl #8
     728:	011f1500 	tsteq	pc, r0, lsl #10
     72c:	013d0000 	teqeq	sp, r0
     730:	00000000 	andeq	r0, r0, r0
     734:	00012b13 	andeq	r2, r1, r3, lsl fp
     738:	0081d000 	addeq	sp, r1, r0
     73c:	00000400 	andeq	r0, r0, r0, lsl #8
     740:	f93f0100 			; <UNDEFINED> instruction: 0xf93f0100
     744:	16000002 	strne	r0, [r0], -r2
     748:	00000137 	andeq	r0, r0, r7, lsr r1
     74c:	00000150 	andeq	r0, r0, r0, asr r1
     750:	010f1300 	mrseq	r1, SP_hyp
     754:	81d40000 	bicshi	r0, r4, r0
     758:	00040000 	andeq	r0, r4, r0
     75c:	41010000 	mrsmi	r0, (UNDEF: 1)
     760:	00000320 	andeq	r0, r0, r0, lsr #6
     764:	0081d414 	addeq	sp, r1, r4, lsl r4
     768:	00000400 	andeq	r0, r0, r0, lsl #8
     76c:	011f1500 	tsteq	pc, r0, lsl #10
     770:	016e0000 	cmneq	lr, r0
     774:	00000000 	andeq	r0, r0, r0
     778:	00014113 	andeq	r4, r1, r3, lsl r1
     77c:	00820400 	addeq	r0, r2, r0, lsl #8
     780:	00000400 	andeq	r0, r0, r0, lsl #8
     784:	3d460100 	stfcce	f0, [r6, #-0]
     788:	16000003 	strne	r0, [r0], -r3
     78c:	0000014d 	andeq	r0, r0, sp, asr #2
     790:	00000111 	andeq	r0, r0, r1, lsl r1
     794:	012b1300 	teqeq	fp, r0, lsl #6
     798:	82080000 	andhi	r0, r8, #0
     79c:	00080000 	andeq	r0, r8, r0
     7a0:	50010000 	andpl	r0, r1, r0
     7a4:	00000358 	andeq	r0, r0, r8, asr r3
     7a8:	00013717 	andeq	r3, r1, r7, lsl r7
     7ac:	0001ff00 	andeq	pc, r1, r0, lsl #30
     7b0:	00010f13 	andeq	r0, r1, r3, lsl pc
     7b4:	00821000 	addeq	r1, r2, r0
     7b8:	00000400 	andeq	r0, r0, r0, lsl #8
     7bc:	7f520100 	svcvc	0x00520100
     7c0:	14000003 	strne	r0, [r0], #-3
     7c4:	00008210 	andeq	r8, r0, r0, lsl r2
     7c8:	00000004 	andeq	r0, r0, r4
     7cc:	00011f15 	andeq	r1, r1, r5, lsl pc
     7d0:	00018c00 	andeq	r8, r1, r0, lsl #24
     7d4:	13000000 	movwne	r0, #0
     7d8:	00000157 	andeq	r0, r0, r7, asr r1
     7dc:	00008240 	andeq	r8, r0, r0, asr #4
     7e0:	00000008 	andeq	r0, r0, r8
     7e4:	03995401 	orrseq	r5, r9, #16777216	; 0x1000000
     7e8:	63180000 	tstvs	r8, #0
     7ec:	00000001 	andeq	r0, r0, r1
     7f0:	81e41900 	mvnhi	r1, r0, lsl #18
     7f4:	0baf0000 	bleq	febc07fc <__bss_end__+0xfebb61cc>
     7f8:	001a0000 	andseq	r0, sl, r0
     7fc:	b6000082 	strlt	r0, [r0], -r2, lsl #1
     800:	db00000b 	blle	834 <__code_start__-0x77cc>
     804:	1b000003 	blne	818 <__code_start__-0x77e8>
     808:	08025301 	stmdaeq	r2, {r0, r8, r9, ip, lr}
     80c:	52011b41 	andpl	r1, r1, #66560	; 0x10400
     810:	9c480305 	mcrrls	3, 0, r0, r8, cr5
     814:	011b0000 	tsteq	fp, r0
     818:	20030551 	andcs	r0, r3, r1, asr r5
     81c:	1b00009b 	blne	a90 <__code_start__-0x7570>
     820:	03055001 	movweq	r5, #20481	; 0x5001
     824:	00009a08 	andeq	r9, r0, r8, lsl #20
     828:	007d021b 	rsbseq	r0, sp, fp, lsl r2
     82c:	9b300305 	blls	c01448 <__bss_end__+0xbf6e18>
     830:	19000000 	stmdbne	r0, {}	; <UNPREDICTABLE>
     834:	00008204 	andeq	r8, r0, r4, lsl #4
     838:	00000bcc 	andeq	r0, r0, ip, asr #23
     83c:	00822019 	addeq	r2, r2, r9, lsl r0
     840:	000baf00 	andeq	sl, fp, r0, lsl #30
     844:	823c1a00 	eorshi	r1, ip, #0, 20
     848:	0bb60000 	bleq	fed80850 <__bss_end__+0xfed76220>
     84c:	04260000 	strteq	r0, [r6], #-0
     850:	011b0000 	tsteq	fp, r0
     854:	52080253 	andpl	r0, r8, #805306373	; 0x30000005
     858:	0552011b 	ldrbeq	r0, [r2, #-283]	; 0x11b
     85c:	009c4803 	addseq	r4, ip, r3, lsl #16
     860:	51011b00 	tstpl	r1, r0, lsl #22
     864:	9b200305 	blls	801480 <__bss_end__+0x7f6e50>
     868:	011b0000 	tsteq	fp, r0
     86c:	08030550 	stmdaeq	r3, {r4, r6, r8, sl}
     870:	1b00009a 	blne	ae0 <__code_start__-0x7520>
     874:	05007d02 	streq	r7, [r0, #-3330]	; 0xd02
     878:	009b3003 	addseq	r3, fp, r3
     87c:	40190000 	andsmi	r0, r9, r0
     880:	cc000082 	stcgt	0, cr0, [r0], {130}	; 0x82
     884:	0000000b 	andeq	r0, r0, fp
     888:	00007f1c 	andeq	r7, r0, ip, lsl pc
     88c:	00044000 	andeq	r4, r4, r0
     890:	00761d00 	rsbseq	r1, r6, r0, lsl #26
     894:	000c0000 	andeq	r0, ip, r0
     898:	00043007 	andeq	r3, r4, r7
     89c:	02610a00 	rsbeq	r0, r1, #0, 20
     8a0:	76020000 	strvc	r0, [r2], -r0
     8a4:	0000002c 	andeq	r0, r0, ip, lsr #32
     8a8:	00046c03 	andeq	r6, r4, r3, lsl #24
     8ac:	00720b00 	rsbseq	r0, r2, r0, lsl #22
     8b0:	002c7702 	eoreq	r7, ip, r2, lsl #14
     8b4:	101e0000 	andsne	r0, lr, r0
     8b8:	7c000001 	stcvc	0, cr0, [r0], {1}
     8bc:	61000004 	tstvs	r0, r4
     8c0:	00000002 	andeq	r0, r0, r2
     8c4:	00007f1c 	andeq	r7, r0, ip, lsl pc
     8c8:	00047c00 	andeq	r7, r4, r0, lsl #24
     8cc:	00761d00 	rsbseq	r1, r6, r0, lsl #26
     8d0:	00130000 	andseq	r0, r3, r0
     8d4:	00046c07 	andeq	r6, r4, r7, lsl #24
     8d8:	02390f00 	eorseq	r0, r9, #0, 30
     8dc:	59010000 	stmdbpl	r1, {}	; <UNPREDICTABLE>
     8e0:	00008270 	andeq	r8, r0, r0, ror r2
     8e4:	000000dc 	ldrdeq	r0, [r0], -ip
     8e8:	06b09c01 	ldrteq	r9, [r0], r1, lsl #24
     8ec:	701f0000 	andsvc	r0, pc, r0
     8f0:	59010063 	stmdbpl	r1, {r0, r1, r5, r6}
     8f4:	0000002c 	andeq	r0, r0, ip, lsr #32
     8f8:	000001aa 	andeq	r0, r0, sl, lsr #3
     8fc:	0003a820 	andeq	sl, r3, r0, lsr #16
     900:	255a0100 	ldrbcs	r0, [sl, #-256]	; 0x100
     904:	05000000 	streq	r0, [r0, #-0]
     908:	00a21c03 	adceq	r1, r2, r3, lsl #24
     90c:	01101200 	tsteq	r0, r0, lsl #4
     910:	06c00000 	strbeq	r0, [r0], r0
     914:	03050000 	movweq	r0, #20480	; 0x5000
     918:	00009c58 	andeq	r9, r0, r8, asr ip
     91c:	0002090e 	andeq	r0, r2, lr, lsl #18
     920:	5d6b0100 	stfple	f0, [fp, #-0]
     924:	13000000 	movwne	r0, #0
     928:	0000016d 	andeq	r0, r0, sp, ror #2
     92c:	0000827c 	andeq	r8, r0, ip, ror r2
     930:	00000004 	andeq	r0, r0, r4
     934:	05115c01 	ldreq	r5, [r1, #-3073]	; 0xc01
     938:	7c140000 	ldcvc	0, cr0, [r4], {-0}
     93c:	04000082 	streq	r0, [r0], #-130	; 0x82
     940:	21000000 	mrscs	r0, (UNDEF: 0)
     944:	0000017d 	andeq	r0, r0, sp, ror r1
     948:	0000bd22 	andeq	fp, r0, r2, lsr #26
     94c:	00827c00 	addeq	r7, r2, r0, lsl #24
     950:	00000400 	andeq	r0, r0, r0, lsl #8
     954:	14670200 	strbtne	r0, [r7], #-512	; 0x200
     958:	0000827c 	andeq	r8, r0, ip, ror r2
     95c:	00000004 	andeq	r0, r0, r4
     960:	0000cd21 	andeq	ip, r0, r1, lsr #26
     964:	00000000 	andeq	r0, r0, r0
     968:	04451300 	strbeq	r1, [r5], #-768	; 0x300
     96c:	82800000 	addhi	r0, r0, #0
     970:	002c0000 	eoreq	r0, ip, r0
     974:	62010000 	andvs	r0, r1, #0
     978:	000005c4 	andeq	r0, r0, r4, asr #11
     97c:	00828014 	addeq	r8, r2, r4, lsl r0
     980:	00002c00 	andeq	r2, r0, r0, lsl #24
     984:	04552100 	ldrbeq	r2, [r5], #-256	; 0x100
     988:	5e230000 	cdppl	0, 2, cr0, cr3, cr0, {0}
     98c:	05000004 	streq	r0, [r0, #-4]
     990:	009c6c03 	addseq	r6, ip, r3, lsl #24
     994:	00bd1300 	adcseq	r1, sp, r0, lsl #6
     998:	82800000 	addhi	r0, r0, #0
     99c:	00040000 	andeq	r0, r4, r0
     9a0:	77020000 	strvc	r0, [r2, -r0]
     9a4:	00000564 	andeq	r0, r0, r4, ror #10
     9a8:	00828014 	addeq	r8, r2, r4, lsl r0
     9ac:	00000400 	andeq	r0, r0, r0, lsl #8
     9b0:	00cd1500 	sbceq	r1, sp, r0, lsl #10
     9b4:	02210000 	eoreq	r0, r1, #0
     9b8:	00000000 	andeq	r0, r0, r0
     9bc:	0000f513 	andeq	pc, r0, r3, lsl r5	; <UNPREDICTABLE>
     9c0:	00828400 	addeq	r8, r2, r0, lsl #8
     9c4:	00000400 	andeq	r0, r0, r0, lsl #8
     9c8:	81780200 	cmnhi	r8, r0, lsl #4
     9cc:	16000005 	strne	r0, [r0], -r5
     9d0:	00000105 	andeq	r0, r0, r5, lsl #2
     9d4:	00000221 	andeq	r0, r0, r1, lsr #4
     9d8:	82941900 	addshi	r1, r4, #0, 18
     9dc:	0baf0000 	bleq	febc09e4 <__bss_end__+0xfebb63b4>
     9e0:	a81a0000 	ldmdage	sl, {}	; <UNPREDICTABLE>
     9e4:	b6000082 	strlt	r0, [r0], -r2, lsl #1
     9e8:	b900000b 	stmdblt	r0, {r0, r1, r3}
     9ec:	1b000005 	blne	a08 <__code_start__-0x75f8>
     9f0:	08025301 	stmdaeq	r2, {r0, r8, r9, ip, lr}
     9f4:	52011b79 	andpl	r1, r1, #123904	; 0x1e400
     9f8:	9c6c0305 	stclls	3, cr0, [ip], #-20	; 0xffffffec
     9fc:	011b0000 	tsteq	fp, r0
     a00:	80030551 	andhi	r0, r3, r1, asr r5
     a04:	1b00009b 	blne	c78 <__code_start__-0x7388>
     a08:	03055001 	movweq	r5, #20481	; 0x5001
     a0c:	00009b48 	andeq	r9, r0, r8, asr #22
     a10:	82ac1900 	adchi	r1, ip, #0, 18
     a14:	0bcc0000 	bleq	ff300a1c <__bss_end__+0xff2f63ec>
     a18:	00000000 	andeq	r0, r0, r0
     a1c:	00018913 	andeq	r8, r1, r3, lsl r9
     a20:	0082ac00 	addeq	sl, r2, r0, lsl #24
     a24:	00000400 	andeq	r0, r0, r0, lsl #8
     a28:	eb670100 	bl	19c0e30 <__bss_end__+0x19b6800>
     a2c:	14000005 	strne	r0, [r0], #-5
     a30:	000082ac 	andeq	r8, r0, ip, lsr #5
     a34:	00000004 	andeq	r0, r0, r4
     a38:	00019915 	andeq	r9, r1, r5, lsl r9
     a3c:	00023400 	andeq	r3, r2, r0, lsl #8
     a40:	13000000 	movwne	r0, #0
     a44:	000001a5 	andeq	r0, r0, r5, lsr #3
     a48:	00008314 	andeq	r8, r0, r4, lsl r3
     a4c:	00000004 	andeq	r0, r0, r4
     a50:	060e6b01 	streq	r6, [lr], -r1, lsl #22
     a54:	14140000 	ldrne	r0, [r4], #-0
     a58:	04000083 	streq	r0, [r0], #-131	; 0x83
     a5c:	21000000 	mrscs	r0, (UNDEF: 0)
     a60:	000001b5 			; <UNDEFINED> instruction: 0x000001b5
     a64:	c0190000 	andsgt	r0, r9, r0
     a68:	af000082 	svcge	0x00000082
     a6c:	1a00000b 	bne	aa0 <__code_start__-0x7560>
     a70:	000082dc 	ldrdeq	r8, [r0], -ip
     a74:	00000bb6 			; <UNDEFINED> instruction: 0x00000bb6
     a78:	00000650 	andeq	r0, r0, r0, asr r6
     a7c:	0253011b 	subseq	r0, r3, #-1073741818	; 0xc0000006
     a80:	011b6708 	tsteq	fp, r8, lsl #14
     a84:	58030552 	stmdapl	r3, {r1, r4, r6, r8, sl}
     a88:	1b00009c 	blne	d00 <__code_start__-0x7300>
     a8c:	03055101 	movweq	r5, #20737	; 0x5101
     a90:	00009b20 	andeq	r9, r0, r0, lsr #22
     a94:	0550011b 	ldrbeq	r0, [r0, #-283]	; 0x11b
     a98:	009a0803 	addseq	r0, sl, r3, lsl #16
     a9c:	7d021b00 	vstrvc	d1, [r2, #-0]
     aa0:	90030500 	andls	r0, r3, r0, lsl #10
     aa4:	0000009b 	muleq	r0, fp, r0
     aa8:	0082e019 	addeq	lr, r2, r9, lsl r0
     aac:	000bcc00 	andeq	ip, fp, r0, lsl #24
     ab0:	82f41900 	rscshi	r1, r4, #0, 18
     ab4:	0baf0000 	bleq	febc0abc <__bss_end__+0xfebb648c>
     ab8:	101a0000 	andsne	r0, sl, r0
     abc:	b6000083 	strlt	r0, [r0], -r3, lsl #1
     ac0:	9b00000b 	blls	af4 <__code_start__-0x750c>
     ac4:	1b000006 	blne	ae4 <__code_start__-0x751c>
     ac8:	08025301 	stmdaeq	r2, {r0, r8, r9, ip, lr}
     acc:	52011b69 	andpl	r1, r1, #107520	; 0x1a400
     ad0:	9c580305 	mrrcls	3, 0, r0, r8, cr5
     ad4:	011b0000 	tsteq	fp, r0
     ad8:	20030551 	andcs	r0, r3, r1, asr r5
     adc:	1b00009b 	blne	d50 <__code_start__-0x72b0>
     ae0:	03055001 	movweq	r5, #20481	; 0x5001
     ae4:	00009a08 	andeq	r9, r0, r8, lsl #20
     ae8:	007d021b 	rsbseq	r0, sp, fp, lsl r2
     aec:	9ba40305 	blls	fe901708 <__bss_end__+0xfe8f70d8>
     af0:	19000000 	stmdbne	r0, {}	; <UNPREDICTABLE>
     af4:	00008314 	andeq	r8, r0, r4, lsl r3
     af8:	00000bcc 	andeq	r0, r0, ip, asr #23
     afc:	00832024 	addeq	r2, r3, r4, lsr #32
     b00:	50011b00 	andpl	r1, r1, r0, lsl #22
     b04:	00003001 	andeq	r3, r0, r1
     b08:	00007f1c 	andeq	r7, r0, ip, lsl pc
     b0c:	0006c000 	andeq	ip, r6, r0
     b10:	00761d00 	rsbseq	r1, r6, r0, lsl #26
     b14:	00110000 	andseq	r0, r1, r0
     b18:	0006b007 	andeq	fp, r6, r7
     b1c:	039c0f00 	orrseq	r0, ip, #0, 30
     b20:	72010000 	andvc	r0, r1, #0
     b24:	0000834c 	andeq	r8, r0, ip, asr #6
     b28:	0000003c 	andeq	r0, r0, ip, lsr r0
     b2c:	07359c01 	ldreq	r9, [r5, -r1, lsl #24]!
     b30:	b1200000 	teqlt	r0, r0
     b34:	01000002 	tsteq	r0, r2
     b38:	00002573 	andeq	r2, r0, r3, ror r5
     b3c:	20030500 	andcs	r0, r3, r0, lsl #10
     b40:	250000a2 	strcs	r0, [r0, #-162]	; 0xa2
     b44:	7c010076 	stcvc	0, cr0, [r1], {118}	; 0x76
     b48:	0000005d 	andeq	r0, r0, sp, asr r0
     b4c:	c1138000 	tstgt	r3, r0
     b50:	70000001 	andvc	r0, r0, r1
     b54:	08000083 	stmdaeq	r0, {r0, r1, r7}
     b58:	01000000 	mrseq	r0, (UNDEF: 0)
     b5c:	0007117e 	andeq	r1, r7, lr, ror r1
     b60:	01cd1700 	biceq	r1, sp, r0, lsl #14
     b64:	80000000 	andhi	r0, r0, r0
     b68:	01571300 	cmpeq	r7, r0, lsl #6
     b6c:	83780000 	cmnhi	r8, #0
     b70:	00100000 	andseq	r0, r0, r0
     b74:	80010000 	andhi	r0, r1, r0
     b78:	0000072b 	andeq	r0, r0, fp, lsr #14
     b7c:	00016318 	andeq	r6, r1, r8, lsl r3
     b80:	19000000 	stmdbne	r0, {}	; <UNPREDICTABLE>
     b84:	00008364 	andeq	r8, r0, r4, ror #6
     b88:	00000bd3 	ldrdeq	r0, [r0], -r3
     b8c:	04080f00 	streq	r0, [r8], #-3840	; 0xf00
     b90:	a8010000 	stmdage	r1, {}	; <UNPREDICTABLE>
     b94:	00008388 	andeq	r8, r0, r8, lsl #7
     b98:	00000034 	andeq	r0, r0, r4, lsr r0
     b9c:	08119c01 	ldmdaeq	r1, {r0, sl, fp, ip, pc}
     ba0:	09260000 	stmdbeq	r6!, {}	; <UNPREDICTABLE>
     ba4:	01000002 	tsteq	r0, r2
     ba8:	00005da8 	andeq	r5, r0, r8, lsr #27
     bac:	26500100 	ldrbcs	r0, [r0], -r0, lsl #2
     bb0:	00000431 	andeq	r0, r0, r1, lsr r4
     bb4:	0091a801 	addseq	sl, r1, r1, lsl #16
     bb8:	51010000 	mrspl	r0, (UNDEF: 1)
     bbc:	0003e411 	andeq	lr, r3, r1, lsl r4
     bc0:	5da90100 	stfpls	f0, [r9]
     bc4:	61000000 	mrsvs	r0, (UNDEF: 0)
     bc8:	20000002 	andcs	r0, r0, r2
     bcc:	000003b0 			; <UNDEFINED> instruction: 0x000003b0
     bd0:	005db101 	subseq	fp, sp, r1, lsl #2
     bd4:	50010000 	andpl	r0, r1, r0
     bd8:	0001d713 	andeq	sp, r1, r3, lsl r7
     bdc:	00838800 	addeq	r8, r3, r0, lsl #16
     be0:	00000400 	andeq	r0, r0, r0, lsl #8
     be4:	a7a90100 	strge	r0, [r9, r0, lsl #2]!
     be8:	14000007 	strne	r0, [r0], #-7
     bec:	00008388 	andeq	r8, r0, r8, lsl #7
     bf0:	00000004 	andeq	r0, r0, r4
     bf4:	0001e715 	andeq	lr, r1, r5, lsl r7
     bf8:	00028200 	andeq	r8, r2, r0, lsl #4
     bfc:	13000000 	movwne	r0, #0
     c00:	000001f3 	strdeq	r0, [r0], -r3
     c04:	00008390 	muleq	r0, r0, r3
     c08:	00000004 	andeq	r0, r0, r4
     c0c:	07c4af01 	strbeq	sl, [r4, r1, lsl #30]
     c10:	ff160000 			; <UNDEFINED> instruction: 0xff160000
     c14:	95000001 	strls	r0, [r0, #-1]
     c18:	00000002 	andeq	r0, r0, r2
     c1c:	00020913 	andeq	r0, r2, r3, lsl r9
     c20:	00839400 	addeq	r9, r3, r0, lsl #8
     c24:	00000400 	andeq	r0, r0, r0, lsl #8
     c28:	dfb40100 	svcle	0x00b40100
     c2c:	27000007 	strcs	r0, [r0, -r7]
     c30:	00000215 	andeq	r0, r0, r5, lsl r2
     c34:	13005001 	movwne	r5, #1
     c38:	000001f3 	strdeq	r0, [r0], -r3
     c3c:	00008398 	muleq	r0, r8, r3
     c40:	00000008 	andeq	r0, r0, r8
     c44:	07fabe01 	ldrbeq	fp, [sl, r1, lsl #28]!
     c48:	ff170000 			; <UNDEFINED> instruction: 0xff170000
     c4c:	e7000001 	str	r0, [r0, -r1]
     c50:	57220001 	strpl	r0, [r2, -r1]!
     c54:	a0000001 	andge	r0, r0, r1
     c58:	08000083 	stmdaeq	r0, {r0, r1, r7}
     c5c:	01000000 	mrseq	r0, (UNDEF: 0)
     c60:	016318bf 	strheq	r1, [r3, #-143]!	; 0xffffff71
     c64:	00000000 	andeq	r0, r0, r0
     c68:	024b0f00 	subeq	r0, fp, #0, 30
     c6c:	c4010000 	strgt	r0, [r1], #-0
     c70:	000083bc 			; <UNDEFINED> instruction: 0x000083bc
     c74:	00000098 	muleq	r0, r8, r0
     c78:	09449c01 	stmdbeq	r4, {r0, sl, fp, ip, pc}^
     c7c:	701f0000 	andsvc	r0, pc, r0
     c80:	c4010063 	strgt	r0, [r1], #-99	; 0x63
     c84:	0000002c 	andeq	r0, r0, ip, lsr #32
     c88:	000002a8 	andeq	r0, r0, r8, lsr #5
     c8c:	00011012 	andeq	r1, r1, r2, lsl r0
     c90:	00095400 	andeq	r5, r9, r0, lsl #8
     c94:	80030500 	andhi	r0, r3, r0, lsl #10
     c98:	1300009c 	movwne	r0, #156	; 0x9c
     c9c:	0000021f 	andeq	r0, r0, pc, lsl r2
     ca0:	000083c8 	andeq	r8, r0, r8, asr #7
     ca4:	00000008 	andeq	r0, r0, r8
     ca8:	0889c601 	stmeq	r9, {r0, r9, sl, lr, pc}
     cac:	c8140000 	ldmdagt	r4, {}	; <UNPREDICTABLE>
     cb0:	08000083 	stmdaeq	r0, {r0, r1, r7}
     cb4:	21000000 	mrscs	r0, (UNDEF: 0)
     cb8:	0000022f 	andeq	r0, r0, pc, lsr #4
     cbc:	0000d922 	andeq	sp, r0, r2, lsr #18
     cc0:	0083c800 	addeq	ip, r3, r0, lsl #16
     cc4:	00000400 	andeq	r0, r0, r0, lsl #8
     cc8:	14aa0200 	strtne	r0, [sl], #512	; 0x200
     ccc:	000083c8 	andeq	r8, r0, r8, asr #7
     cd0:	00000004 	andeq	r0, r0, r4
     cd4:	0000e915 	andeq	lr, r0, r5, lsl r9
     cd8:	00030600 	andeq	r0, r3, r0, lsl #12
     cdc:	00000000 	andeq	r0, r0, r0
     ce0:	02391300 	eorseq	r1, r9, #0, 6
     ce4:	84280000 	strthi	r0, [r8], #-0
     ce8:	00040000 	andeq	r0, r4, r0
     cec:	ca010000 	bgt	40cf4 <__bss_end__+0x366c4>
     cf0:	000008ac 	andeq	r0, r0, ip, lsr #17
     cf4:	00842814 	addeq	r2, r4, r4, lsl r8
     cf8:	00000400 	andeq	r0, r0, r0, lsl #8
     cfc:	02492100 	subeq	r2, r9, #0, 2
     d00:	00000000 	andeq	r0, r0, r0
     d04:	0083dc19 	addeq	sp, r3, r9, lsl ip
     d08:	000baf00 	andeq	sl, fp, r0, lsl #30
     d0c:	83f01a00 	mvnshi	r1, #0, 20
     d10:	0bb60000 	bleq	fed80d18 <__bss_end__+0xfed766e8>
     d14:	08e40000 	stmiaeq	r4!, {}^	; <UNPREDICTABLE>
     d18:	011b0000 	tsteq	fp, r0
     d1c:	c7080253 	smlsdgt	r8, r3, r2, r0
     d20:	0552011b 	ldrbeq	r0, [r2, #-283]	; 0x11b
     d24:	009c8003 	addseq	r8, ip, r3
     d28:	51011b00 	tstpl	r1, r0, lsl #22
     d2c:	9b200305 	blls	801948 <__bss_end__+0x7f7318>
     d30:	011b0000 	tsteq	fp, r0
     d34:	b8030550 	stmdalt	r3, {r4, r6, r8, sl}
     d38:	0000009b 	muleq	r0, fp, r0
     d3c:	0083f419 	addeq	pc, r3, r9, lsl r4	; <UNPREDICTABLE>
     d40:	000bcc00 	andeq	ip, fp, r0, lsl #24
     d44:	84081900 	strhi	r1, [r8], #-2304	; 0x900
     d48:	0baf0000 	bleq	febc0d50 <__bss_end__+0xfebb6720>
     d4c:	241a0000 	ldrcs	r0, [sl], #-0
     d50:	b6000084 	strlt	r0, [r0], -r4, lsl #1
     d54:	2f00000b 	svccs	0x0000000b
     d58:	1b000009 	blne	d84 <__code_start__-0x727c>
     d5c:	08025301 	stmdaeq	r2, {r0, r8, r9, ip, lr}
     d60:	52011bc8 	andpl	r1, r1, #200, 22	; 0x32000
     d64:	9c800305 	stcls	3, cr0, [r0], {5}
     d68:	011b0000 	tsteq	fp, r0
     d6c:	20030551 	andcs	r0, r3, r1, asr r5
     d70:	1b00009b 	blne	fe4 <__code_start__-0x701c>
     d74:	03055001 	movweq	r5, #20481	; 0x5001
     d78:	00009a08 	andeq	r9, r0, r8, lsl #20
     d7c:	007d021b 	rsbseq	r0, sp, fp, lsl r2
     d80:	9bf00305 	blls	ffc0199c <__bss_end__+0xffbf736c>
     d84:	19000000 	stmdbne	r0, {}	; <UNPREDICTABLE>
     d88:	00008428 	andeq	r8, r0, r8, lsr #8
     d8c:	00000bcc 	andeq	r0, r0, ip, asr #23
     d90:	00843424 	addeq	r3, r4, r4, lsr #8
     d94:	50011b00 	andpl	r1, r1, r0, lsl #22
     d98:	00003001 	andeq	r3, r0, r1
     d9c:	00007f1c 	andeq	r7, r0, ip, lsl pc
     da0:	00095400 	andeq	r5, r9, r0, lsl #8
     da4:	00761d00 	rsbseq	r1, r6, r0, lsl #26
     da8:	00150000 	andseq	r0, r5, r0
     dac:	00094407 	andeq	r4, r9, r7, lsl #8
     db0:	07680f00 	strbeq	r0, [r8, -r0, lsl #30]!
     db4:	cd010000 	stcgt	0, cr0, [r1, #-0]
     db8:	00008454 	andeq	r8, r0, r4, asr r4
     dbc:	00000004 	andeq	r0, r0, r4
     dc0:	097b9c01 	ldmdbeq	fp!, {r0, sl, fp, ip, pc}^
     dc4:	70280000 	eorvc	r0, r8, r0
     dc8:	cd010063 	stcgt	0, cr0, [r1, #-396]	; 0xfffffe74
     dcc:	0000002c 	andeq	r0, r0, ip, lsr #32
     dd0:	0f005001 	svceq	0x00005001
     dd4:	000002f4 	strdeq	r0, [r0], -r4
     dd8:	8458d801 	ldrbhi	sp, [r8], #-2049	; 0x801
     ddc:	002c0000 	eoreq	r0, ip, r0
     de0:	9c010000 	stcls	0, cr0, [r1], {-0}
     de4:	000009e1 	andeq	r0, r0, r1, ror #19
     de8:	00011012 	andeq	r1, r1, r2, lsl r0
     dec:	0009f100 	andeq	pc, r9, r0, lsl #2
     df0:	98030500 	stmdals	r3, {r8, sl}
     df4:	1900009c 	stmdbne	r0, {r2, r3, r4, r7}
     df8:	00008460 	andeq	r8, r0, r0, ror #8
     dfc:	00000baf 	andeq	r0, r0, pc, lsr #23
     e00:	0084741a 	addeq	r7, r4, sl, lsl r4
     e04:	000bb600 	andeq	fp, fp, r0, lsl #12
     e08:	0009d700 	andeq	sp, r9, r0, lsl #14
     e0c:	53011b00 	movwpl	r1, #6912	; 0x1b00
     e10:	1bd90802 	blne	ff642e20 <__bss_end__+0xff6387f0>
     e14:	03055201 	movweq	r5, #20993	; 0x5201
     e18:	00009c98 	muleq	r0, r8, ip
     e1c:	0551011b 	ldrbeq	r0, [r1, #-283]	; 0x11b
     e20:	009b2003 	addseq	r2, fp, r3
     e24:	50011b00 	andpl	r1, r1, r0, lsl #22
     e28:	9c000305 	stcls	3, cr0, [r0], {5}
     e2c:	19000000 	stmdbne	r0, {}	; <UNPREDICTABLE>
     e30:	00008478 	andeq	r8, r0, r8, ror r4
     e34:	00000bcc 	andeq	r0, r0, ip, asr #23
     e38:	007f1c00 	rsbseq	r1, pc, r0, lsl #24
     e3c:	09f10000 	ldmibeq	r1!, {}^	; <UNPREDICTABLE>
     e40:	761d0000 	ldrvc	r0, [sp], -r0
     e44:	10000000 	andne	r0, r0, r0
     e48:	09e10700 	stmibeq	r1!, {r8, r9, sl}^
     e4c:	130f0000 	movwne	r0, #61440	; 0xf000
     e50:	01000003 	tsteq	r0, r3
     e54:	008484dc 	ldrdeq	r8, [r4], ip
     e58:	00003400 	andeq	r3, r0, r0, lsl #8
     e5c:	d49c0100 	ldrle	r0, [ip], #256	; 0x100
     e60:	2600000a 	strcs	r0, [r0], -sl
     e64:	00000209 	andeq	r0, r0, r9, lsl #4
     e68:	005ddc01 	subseq	sp, sp, r1, lsl #24
     e6c:	50010000 	andpl	r0, r1, r0
     e70:	00043126 	andeq	r3, r4, r6, lsr #2
     e74:	91dc0100 	bicsls	r0, ip, r0, lsl #2
     e78:	01000000 	mrseq	r0, (UNDEF: 0)
     e7c:	03e41151 	mvneq	r1, #1073741844	; 0x40000014
     e80:	dd010000 	stcle	0, cr0, [r1, #-0]
     e84:	0000005d 	andeq	r0, r0, sp, asr r0
     e88:	00000319 	andeq	r0, r0, r9, lsl r3
     e8c:	0003b020 	andeq	fp, r3, r0, lsr #32
     e90:	5de50100 	stfple	f0, [r5]
     e94:	01000000 	mrseq	r0, (UNDEF: 0)
     e98:	01d71350 	bicseq	r1, r7, r0, asr r3
     e9c:	84840000 	strhi	r0, [r4], #0
     ea0:	00040000 	andeq	r0, r4, r0
     ea4:	dd010000 	stcle	0, cr0, [r1, #-0]
     ea8:	00000a68 	andeq	r0, r0, r8, ror #20
     eac:	00848414 	addeq	r8, r4, r4, lsl r4
     eb0:	00000400 	andeq	r0, r0, r0, lsl #8
     eb4:	01e71500 	mvneq	r1, r0, lsl #10
     eb8:	033c0000 	teqeq	ip, #0
     ebc:	00000000 	andeq	r0, r0, r0
     ec0:	0001f313 	andeq	pc, r1, r3, lsl r3	; <UNPREDICTABLE>
     ec4:	00848c00 	addeq	r8, r4, r0, lsl #24
     ec8:	00000400 	andeq	r0, r0, r0, lsl #8
     ecc:	85e30100 	strbhi	r0, [r3, #256]!	; 0x100
     ed0:	1600000a 	strne	r0, [r0], -sl
     ed4:	000001ff 	strdeq	r0, [r0], -pc	; <UNPREDICTABLE>
     ed8:	0000034f 	andeq	r0, r0, pc, asr #6
     edc:	02091300 	andeq	r1, r9, #0, 6
     ee0:	84900000 	ldrhi	r0, [r0], #0
     ee4:	00040000 	andeq	r0, r4, r0
     ee8:	e8010000 	stmda	r1, {}	; <UNPREDICTABLE>
     eec:	00000aa0 	andeq	r0, r0, r0, lsr #21
     ef0:	00021527 	andeq	r1, r2, r7, lsr #10
     ef4:	00500100 	subseq	r0, r0, r0, lsl #2
     ef8:	0001f313 	andeq	pc, r1, r3, lsl r3	; <UNPREDICTABLE>
     efc:	00849400 	addeq	r9, r4, r0, lsl #8
     f00:	00000800 	andeq	r0, r0, r0, lsl #16
     f04:	bdf20100 	ldflte	f0, [r2]
     f08:	2900000a 	stmdbcs	r0, {r1, r3}
     f0c:	000001ff 	strdeq	r0, [r0], -pc	; <UNPREDICTABLE>
     f10:	004001e7 	subeq	r0, r0, r7, ror #3
     f14:	01572200 	cmpeq	r7, r0, lsl #4
     f18:	849c0000 	ldrhi	r0, [ip], #0
     f1c:	00080000 	andeq	r0, r8, r0
     f20:	f3010000 	vhadd.u8	d0, d1, d0
     f24:	00016318 	andeq	r6, r1, r8, lsl r3
     f28:	00000000 	andeq	r0, r0, r0
     f2c:	0003530f 	andeq	r5, r3, pc, lsl #6
     f30:	b8f80100 	ldmlt	r8!, {r8}^
     f34:	10000084 	andne	r0, r0, r4, lsl #1
     f38:	01000000 	mrseq	r0, (UNDEF: 0)
     f3c:	000b209c 	muleq	fp, ip, r0
     f40:	02092600 	andeq	r2, r9, #0, 12
     f44:	f8010000 			; <UNDEFINED> instruction: 0xf8010000
     f48:	0000005d 	andeq	r0, r0, sp, asr r0
     f4c:	e42a5001 	strt	r5, [sl], #-1
     f50:	01000003 	tsteq	r0, r3
     f54:	00005df9 	strdeq	r5, [r0], -r9
     f58:	4001e600 	andmi	lr, r1, r0, lsl #12
     f5c:	01f32b00 	mvnseq	r2, r0, lsl #22
     f60:	84b80000 	ldrthi	r0, [r8], #0
     f64:	00100000 	andseq	r0, r0, r0
     f68:	00010000 	andeq	r0, r1, r0
     f6c:	01ff2901 	mvnseq	r2, r1, lsl #18
     f70:	01e60000 	mvneq	r0, r0
     f74:	00000040 	andeq	r0, r0, r0, asr #32
     f78:	0003c22c 	andeq	ip, r3, ip, lsr #4
     f7c:	01090100 	mrseq	r0, (UNDEF: 25)
     f80:	00000025 	andeq	r0, r0, r5, lsr #32
     f84:	000084c8 	andeq	r8, r0, r8, asr #9
     f88:	00000070 	andeq	r0, r0, r0, ror r0
     f8c:	0b7c9c01 	bleq	1f27f98 <__bss_end__+0x1f1d968>
     f90:	702d0000 	eorvc	r0, sp, r0
     f94:	09010063 	stmdbeq	r1, {r0, r1, r5, r6}
     f98:	00002c01 	andeq	r2, r0, r1, lsl #24
     f9c:	00036200 	andeq	r6, r3, r0, lsl #4
     fa0:	30722d00 	rsbscc	r2, r2, r0, lsl #26
     fa4:	01090100 	mrseq	r0, (UNDEF: 25)
     fa8:	0000005d 	andeq	r0, r0, sp, asr r0
     fac:	000003e7 	andeq	r0, r0, r7, ror #7
     fb0:	0004002e 	andeq	r0, r4, lr, lsr #32
     fb4:	010a0100 	mrseq	r0, (UNDEF: 26)
     fb8:	0000005d 	andeq	r0, r0, sp, asr r0
     fbc:	00000413 	andeq	r0, r0, r3, lsl r4
     fc0:	00851c2f 	addeq	r1, r5, pc, lsr #24
     fc4:	000bb600 	andeq	fp, fp, r0, lsl #12
     fc8:	50011b00 	andpl	r1, r1, r0, lsl #22
     fcc:	9c300305 	ldcls	3, cr0, [r0], #-20	; 0xffffffec
     fd0:	00000000 	andeq	r0, r0, r0
     fd4:	00034220 	andeq	r4, r3, r0, lsr #4
     fd8:	910b0100 	mrsls	r0, (UNDEF: 27)
     fdc:	05000000 	streq	r0, [r0, #-0]
     fe0:	00a21003 	adceq	r1, r2, r3
     fe4:	02b82000 	adcseq	r2, r8, #0
     fe8:	89010000 	stmdbhi	r1, {}	; <UNPREDICTABLE>
     fec:	00000091 	muleq	r0, r1, r0
     ff0:	a2140305 	andsge	r0, r4, #335544320	; 0x14000000
     ff4:	f9300000 			; <UNDEFINED> instruction: 0xf9300000
     ff8:	01000000 	mrseq	r0, (UNDEF: 0)
     ffc:	000025d5 	ldrdeq	r2, [r0], -r5
    1000:	18030500 	stmdane	r3, {r8, sl}
    1004:	310000a2 	smlatbcc	r0, r2, r0, r0
    1008:	0000022a 	andeq	r0, r0, sl, lsr #4
    100c:	7d321e04 	ldcvc	14, cr1, [r2, #-16]!
    1010:	04000005 	streq	r0, [r0], #-5
    1014:	00002529 	andeq	r2, r0, r9, lsr #10
    1018:	000bcc00 	andeq	ip, fp, r0, lsl #24
    101c:	00860900 	addeq	r0, r6, r0, lsl #18
    1020:	00330000 	eorseq	r0, r3, r0
    1024:	0000ce31 	andeq	ip, r0, r1, lsr lr
    1028:	31650400 	cmncc	r5, r0, lsl #8
    102c:	0000041c 	andeq	r0, r0, ip, lsl r4
    1030:	ff003605 			; <UNDEFINED> instruction: 0xff003605
    1034:	0400000e 	streq	r0, [r0], #-14
    1038:	00048500 	andeq	r8, r4, r0, lsl #10
    103c:	46010400 	strmi	r0, [r1], -r0, lsl #8
    1040:	01000001 	tsteq	r0, r1
    1044:	00000444 	andeq	r0, r0, r4, asr #8
    1048:	0000002e 	andeq	r0, r0, lr, lsr #32
    104c:	00008670 	andeq	r8, r0, r0, ror r6
    1050:	00000784 	andeq	r0, r0, r4, lsl #15
    1054:	00000351 	andeq	r0, r0, r1, asr r3
    1058:	69050402 	stmdbvs	r5, {r1, sl}
    105c:	0300746e 	movweq	r7, #1134	; 0x46e
    1060:	01bd0704 			; <UNDEFINED> instruction: 0x01bd0704
    1064:	01030000 	mrseq	r0, (UNDEF: 3)
    1068:	0000c206 	andeq	ip, r0, r6, lsl #4
    106c:	05020300 	streq	r0, [r2, #-768]	; 0x300
    1070:	0000000f 	andeq	r0, r0, pc
    1074:	f1050403 			; <UNDEFINED> instruction: 0xf1050403
    1078:	03000001 	movweq	r0, #1
    107c:	01ec0508 	mvneq	r0, r8, lsl #10
    1080:	01030000 	mrseq	r0, (UNDEF: 3)
    1084:	0000c008 	andeq	ip, r0, r8
    1088:	07020300 	streq	r0, [r2, -r0, lsl #6]
    108c:	000000e6 	andeq	r0, r0, r6, ror #1
    1090:	00021b04 	andeq	r1, r2, r4, lsl #22
    1094:	68340600 	ldmdavs	r4!, {r9, sl}
    1098:	03000000 	movweq	r0, #0
    109c:	01b80704 			; <UNDEFINED> instruction: 0x01b80704
    10a0:	08030000 	stmdaeq	r3, {}	; <UNPREDICTABLE>
    10a4:	0001b307 	andeq	fp, r1, r7, lsl #6
    10a8:	07040300 	streq	r0, [r4, -r0, lsl #6]
    10ac:	000001e3 	andeq	r0, r0, r3, ror #3
    10b0:	01030405 	tsteq	r3, r5, lsl #8
    10b4:	0000c908 	andeq	ip, r0, r8, lsl #18
    10b8:	8c040600 	stchi	6, cr0, [r4], {-0}
    10bc:	07000000 	streq	r0, [r0, -r0]
    10c0:	0000007f 	andeq	r0, r0, pc, ror r0
    10c4:	0003ed04 	andeq	lr, r3, r4, lsl #26
    10c8:	9c8a0200 	sfmls	f0, 4, [sl], {0}
    10cc:	06000000 	streq	r0, [r0], -r0
    10d0:	0000a204 	andeq	sl, r0, r4, lsl #4
    10d4:	00b70800 	adcseq	r0, r7, r0, lsl #16
    10d8:	b7090000 	strlt	r0, [r9, -r0]
    10dc:	09000000 	stmdbeq	r0, {}	; <UNPREDICTABLE>
    10e0:	0000005d 	andeq	r0, r0, sp, asr r0
    10e4:	00005d09 	andeq	r5, r0, r9, lsl #26
    10e8:	04060000 	streq	r0, [r6], #-0
    10ec:	0000005d 	andeq	r0, r0, sp, asr r0
    10f0:	0001d10a 	andeq	sp, r1, sl, lsl #2
    10f4:	0a073800 	beq	1cf0fc <__bss_end__+0x1c4acc>
    10f8:	0000016e 	andeq	r0, r0, lr, ror #2
    10fc:	000a440b 	andeq	r4, sl, fp, lsl #8
    1100:	6e0f0700 	cdpvs	7, 0, cr0, cr15, cr0, {0}
    1104:	00000001 	andeq	r0, r0, r1
    1108:	0700410c 	streq	r4, [r0, -ip, lsl #2]
    110c:	00018612 	andeq	r8, r1, r2, lsl r6
    1110:	420c0400 	andmi	r0, ip, #0, 8
    1114:	9b130700 	blls	4c2d1c <__bss_end__+0x4b86ec>
    1118:	08000001 	stmdaeq	r0, {r0}
    111c:	00010b0b 	andeq	r0, r1, fp, lsl #22
    1120:	86160700 	ldrhi	r0, [r6], -r0, lsl #14
    1124:	0c000001 	stceq	0, cr0, [r0], {1}
    1128:	0000280b 	andeq	r2, r0, fp, lsl #16
    112c:	9b180700 	blls	602d34 <__bss_end__+0x5f8704>
    1130:	10000001 	andne	r0, r0, r1
    1134:	0001d90b 	andeq	sp, r1, fp, lsl #18
    1138:	a11f0700 	tstge	pc, r0, lsl #14
    113c:	14000001 	strne	r0, [r0], #-1
    1140:	0000af0b 	andeq	sl, r0, fp, lsl #30
    1144:	a1310700 	teqge	r1, r0, lsl #14
    1148:	18000001 	stmdane	r0, {r0}
    114c:	0000db0b 	andeq	sp, r0, fp, lsl #22
    1150:	a6360700 	ldrtge	r0, [r6], -r0, lsl #14
    1154:	1c000001 	stcne	0, cr0, [r0], {1}
    1158:	0002020b 	andeq	r0, r2, fp, lsl #4
    115c:	a63a0700 	ldrtge	r0, [sl], -r0, lsl #14
    1160:	20000001 	andcs	r0, r0, r1
    1164:	0000190b 	andeq	r1, r0, fp, lsl #18
    1168:	a13f0700 	teqge	pc, r0, lsl #14
    116c:	24000001 	strcs	r0, [r0], #-1
    1170:	0001fa0b 	andeq	pc, r1, fp, lsl #20
    1174:	2c420700 	mcrrcs	7, 0, r0, r2, cr0
    1178:	28000000 	stmdacs	r0, {}	; <UNPREDICTABLE>
    117c:	0000a70b 	andeq	sl, r0, fp, lsl #14
    1180:	2c430700 	mcrrcs	7, 0, r0, r3, cr0
    1184:	2c000000 	stccs	0, cr0, [r0], {-0}
    1188:	00011d0b 	andeq	r1, r1, fp, lsl #26
    118c:	2c460700 	mcrrcs	7, 0, r0, r6, cr0
    1190:	30000000 	andcc	r0, r0, r0
    1194:	0002240b 	andeq	r2, r2, fp, lsl #8
    1198:	a6480700 	strbge	r0, [r8], -r0, lsl #14
    119c:	34000001 	strcc	r0, [r0], #-1
    11a0:	74040600 	strvc	r0, [r4], #-1536	; 0x600
    11a4:	0d000001 	stceq	0, cr0, [r0, #-4]
    11a8:	00018008 	andeq	r8, r1, r8
    11ac:	01800900 	orreq	r0, r0, r0, lsl #18
    11b0:	06000000 	streq	r0, [r0], -r0
    11b4:	0000bd04 	andeq	fp, r0, r4, lsl #26
    11b8:	75040600 	strvc	r0, [r4, #-1536]	; 0x600
    11bc:	0e000001 	cdpeq	0, 0, cr0, cr0, cr1, {0}
    11c0:	00000025 	andeq	r0, r0, r5, lsr #32
    11c4:	0000019b 	muleq	r0, fp, r1
    11c8:	00018009 	andeq	r8, r1, r9
    11cc:	04060000 	streq	r0, [r6], #-0
    11d0:	0000018c 	andeq	r0, r0, ip, lsl #3
    11d4:	00002c0f 	andeq	r2, r0, pc, lsl #24
    11d8:	005d0f00 	subseq	r0, sp, r0, lsl #30
    11dc:	05040000 	streq	r0, [r4, #-0]
    11e0:	07000000 	streq	r0, [r0, -r0]
    11e4:	0000bd49 	andeq	fp, r0, r9, asr #26
    11e8:	03391000 	teqeq	r9, #0
    11ec:	a6020000 	strge	r0, [r2], -r0
    11f0:	0000005d 	andeq	r0, r0, sp, asr r0
    11f4:	0001d203 	andeq	sp, r1, r3, lsl #4
    11f8:	65721100 	ldrbvs	r1, [r2, #-256]!	; 0x100
    11fc:	a6020074 			; <UNDEFINED> instruction: 0xa6020074
    1200:	0000005d 	andeq	r0, r0, sp, asr r0
    1204:	04e81000 	strbteq	r1, [r8], #0
    1208:	07050000 	streq	r0, [r5, -r0]
    120c:	00000025 	andeq	r0, r0, r5, lsr #32
    1210:	0001ee03 	andeq	lr, r1, r3, lsl #28
    1214:	05011200 	streq	r1, [r1, #-512]	; 0x200
    1218:	07050000 	streq	r0, [r5, -r0]
    121c:	0000002c 	andeq	r0, r0, ip, lsr #32
    1220:	046b1000 	strbteq	r1, [fp], #-0
    1224:	26030000 	strcs	r0, [r3], -r0
    1228:	0000005d 	andeq	r0, r0, sp, asr r0
    122c:	00020a03 	andeq	r0, r2, r3, lsl #20
    1230:	04e31300 	strbteq	r1, [r3], #768	; 0x300
    1234:	27030000 	strcs	r0, [r3, -r0]
    1238:	0000005d 	andeq	r0, r0, sp, asr r0
    123c:	02821000 	addeq	r1, r2, #0
    1240:	a9020000 	stmdbge	r2, {}	; <UNPREDICTABLE>
    1244:	0000002c 	andeq	r0, r0, ip, lsr #32
    1248:	00022403 	andeq	r2, r2, r3, lsl #8
    124c:	00721100 	rsbseq	r1, r2, r0, lsl #2
    1250:	002caa02 	eoreq	sl, ip, r2, lsl #20
    1254:	14000000 	strne	r0, [r0], #-0
    1258:	00000425 	andeq	r0, r0, r5, lsr #8
    125c:	86700b01 	ldrbthi	r0, [r0], -r1, lsl #22
    1260:	01ac0000 			; <UNDEFINED> instruction: 0x01ac0000
    1264:	9c010000 	stcls	0, cr0, [r1], {-0}
    1268:	00000465 	andeq	r0, r0, r5, ror #8
    126c:	0004fc15 	andeq	pc, r4, r5, lsl ip	; <UNPREDICTABLE>
    1270:	b70b0100 	strlt	r0, [fp, -r0, lsl #2]
    1274:	8e000000 	cdphi	0, 0, cr0, cr0, cr0, {0}
    1278:	16000004 	strne	r0, [r0], -r4
    127c:	01006370 	tsteq	r0, r0, ror r3
    1280:	00005d0b 	andeq	r5, r0, fp, lsl #26
    1284:	0004af00 	andeq	sl, r4, r0, lsl #30
    1288:	02091500 	andeq	r1, r9, #0, 10
    128c:	0b010000 	bleq	41294 <__bss_end__+0x36c64>
    1290:	0000005d 	andeq	r0, r0, sp, asr r0
    1294:	000004db 	ldrdeq	r0, [r0], -fp
    1298:	00011017 	andeq	r1, r1, r7, lsl r0
    129c:	00047500 	andeq	r7, r4, r0, lsl #10
    12a0:	b0030500 	andlt	r0, r3, r0, lsl #10
    12a4:	1800009f 	stmdane	r0, {r0, r1, r2, r3, r4, r7}
    12a8:	10010063 	andne	r0, r1, r3, rrx
    12ac:	0000047a 	andeq	r0, r0, sl, ror r4
    12b0:	000004fc 	strdeq	r0, [r0], -ip
    12b4:	00020a19 	andeq	r0, r2, r9, lsl sl
    12b8:	0086a400 	addeq	sl, r6, r0, lsl #8
    12bc:	00000800 	andeq	r0, r0, r0, lsl #16
    12c0:	c70d0100 	strgt	r0, [sp, -r0, lsl #2]
    12c4:	1a000002 	bne	12d4 <__code_start__-0x6d2c>
    12c8:	000086a4 	andeq	r8, r0, r4, lsr #13
    12cc:	00000008 	andeq	r0, r0, r8
    12d0:	00021a1b 	andeq	r1, r2, fp, lsl sl
    12d4:	01b61c00 			; <UNDEFINED> instruction: 0x01b61c00
    12d8:	86a40000 	strthi	r0, [r4], r0
    12dc:	00040000 	andeq	r0, r4, r0
    12e0:	aa020000 	bge	812e8 <__bss_end__+0x76cb8>
    12e4:	0086a41a 	addeq	sl, r6, sl, lsl r4
    12e8:	00000400 	andeq	r0, r0, r0, lsl #8
    12ec:	01c61d00 	biceq	r1, r6, r0, lsl #26
    12f0:	050f0000 	streq	r0, [pc, #-0]	; 12f8 <__code_start__-0x6d08>
    12f4:	00000000 	andeq	r0, r0, r0
    12f8:	a41e0000 	ldrge	r0, [lr], #-0
    12fc:	84000086 	strhi	r0, [r0], #-134	; 0x86
    1300:	fc00000e 	stc2	0, cr0, [r0], {14}
    1304:	1f000002 	svcne	0x00000002
    1308:	3c015301 	stccc	3, cr5, [r1], {1}
    130c:	0552011f 	ldrbeq	r0, [r2, #-287]	; 0x11f
    1310:	009fb003 	addseq	fp, pc, r3
    1314:	51011f00 	tstpl	r1, r0, lsl #30
    1318:	9ccc0305 	stclls	3, cr0, [ip], {5}
    131c:	011f0000 	tsteq	pc, r0
    1320:	ac030550 	cfstr32ge	mvfx0, [r3], {80}	; 0x50
    1324:	1f00009c 	svcne	0x0000009c
    1328:	02007d02 	andeq	r7, r0, #2, 26	; 0x80
    132c:	20000075 	andcs	r0, r0, r5, ror r0
    1330:	000086b8 			; <UNDEFINED> instruction: 0x000086b8
    1334:	00000e9a 	muleq	r0, sl, lr
    1338:	0086cc1e 	addeq	ip, r6, lr, lsl ip
    133c:	000e8400 	andeq	r8, lr, r0, lsl #8
    1340:	00033300 	andeq	r3, r3, r0, lsl #6
    1344:	53011f00 	movwpl	r1, #7936	; 0x1f00
    1348:	011f3e01 	tsteq	pc, r1, lsl #28
    134c:	b0030552 	andlt	r0, r3, r2, asr r5
    1350:	1f00009f 	svcne	0x0000009f
    1354:	03055101 	movweq	r5, #20737	; 0x5101
    1358:	00009ccc 	andeq	r9, r0, ip, asr #25
    135c:	0550011f 	ldrbeq	r0, [r0, #-287]	; 0x11f
    1360:	009bb803 	addseq	fp, fp, r3, lsl #16
    1364:	d0200000 	eorle	r0, r0, r0
    1368:	a1000086 	smlabbge	r0, r6, r0, r0
    136c:	1e00000e 	cdpne	0, 0, cr0, cr0, cr14, {0}
    1370:	000086f8 	strdeq	r8, [r0], -r8	; <UNPREDICTABLE>
    1374:	00000e84 	andeq	r0, r0, r4, lsl #29
    1378:	00000359 	andeq	r0, r0, r9, asr r3
    137c:	0251011f 	subseq	r0, r1, #-1073741817	; 0xc0000007
    1380:	011f0075 	tsteq	pc, r5, ror r0	; <UNPREDICTABLE>
    1384:	e0030550 	and	r0, r3, r0, asr r5
    1388:	0000009c 	muleq	r0, ip, r0
    138c:	00870421 	addeq	r0, r7, r1, lsr #8
    1390:	00036900 	andeq	r6, r3, r0, lsl #18
    1394:	50011f00 	andpl	r1, r1, r0, lsl #30
    1398:	00007402 	andeq	r7, r0, r2, lsl #8
    139c:	0087141e 	addeq	r1, r7, lr, lsl r4
    13a0:	000ea800 	andeq	sl, lr, r0, lsl #16
    13a4:	00037d00 	andeq	r7, r3, r0, lsl #26
    13a8:	50011f00 	andpl	r1, r1, r0, lsl #30
    13ac:	00007502 	andeq	r7, r0, r2, lsl #10
    13b0:	0087341e 	addeq	r3, r7, lr, lsl r4
    13b4:	000e8400 	andeq	r8, lr, r0, lsl #8
    13b8:	00039400 	andeq	r9, r3, r0, lsl #8
    13bc:	50011f00 	andpl	r1, r1, r0, lsl #30
    13c0:	9d000305 	stcls	3, cr0, [r0, #-20]	; 0xffffffec
    13c4:	20000000 	andcs	r0, r0, r0
    13c8:	00008758 	andeq	r8, r0, r8, asr r7
    13cc:	00000e9a 	muleq	r0, sl, lr
    13d0:	0087741e 	addeq	r7, r7, lr, lsl r4
    13d4:	000e8400 	andeq	r8, lr, r0, lsl #8
    13d8:	0003d600 	andeq	sp, r3, r0, lsl #12
    13dc:	53011f00 	movwpl	r1, #7936	; 0x1f00
    13e0:	1f230802 	svcne	0x00230802
    13e4:	03055201 	movweq	r5, #20993	; 0x5201
    13e8:	00009fb0 			; <UNDEFINED> instruction: 0x00009fb0
    13ec:	0551011f 	ldrbeq	r0, [r1, #-287]	; 0x11f
    13f0:	009ccc03 	addseq	ip, ip, r3, lsl #24
    13f4:	50011f00 	andpl	r1, r1, r0, lsl #30
    13f8:	9a080305 	bls	202014 <__bss_end__+0x1f79e4>
    13fc:	021f0000 	andseq	r0, pc, #0
    1400:	0305007d 	movweq	r0, #20605	; 0x507d
    1404:	00009d28 	andeq	r9, r0, r8, lsr #26
    1408:	87782000 	ldrbhi	r2, [r8, -r0]!
    140c:	0ea10000 	cdpeq	0, 10, cr0, cr1, cr0, {0}
    1410:	ac1e0000 	ldcge	0, cr0, [lr], {-0}
    1414:	84000087 	strhi	r0, [r0], #-135	; 0x87
    1418:	1500000e 	strne	r0, [r0, #-14]
    141c:	1f000004 	svcne	0x00000004
    1420:	08025301 	stmdaeq	r2, {r0, r8, r9, ip, lr}
    1424:	52011f26 	andpl	r1, r1, #38, 30	; 0x98
    1428:	9fb00305 	svcls	0x00b00305
    142c:	011f0000 	tsteq	pc, r0
    1430:	cc030551 	cfstr32gt	mvfx0, [r3], {81}	; 0x51
    1434:	1f00009c 	svcne	0x0000009c
    1438:	03055001 	movweq	r5, #20481	; 0x5001
    143c:	00009d4c 	andeq	r9, r0, ip, asr #26
    1440:	007d021f 	rsbseq	r0, sp, pc, lsl r2
    1444:	00007502 	andeq	r7, r0, r2, lsl #10
    1448:	0087b81e 	addeq	fp, r7, lr, lsl r8
    144c:	000eb900 	andeq	fp, lr, r0, lsl #18
    1450:	00043200 	andeq	r3, r4, r0, lsl #4
    1454:	51011f00 	tstpl	r1, r0, lsl #30
    1458:	86700305 	ldrbthi	r0, [r0], -r5, lsl #6
    145c:	011f0000 	tsteq	pc, r0
    1460:	00750250 	rsbseq	r0, r5, r0, asr r2
    1464:	87e02200 	strbhi	r2, [r0, r0, lsl #4]!
    1468:	0e840000 	cdpeq	0, 8, cr0, cr4, cr0, {0}
    146c:	011f0000 	tsteq	pc, r0
    1470:	28080253 	stmdacs	r8, {r0, r1, r4, r6, r9}
    1474:	0552011f 	ldrbeq	r0, [r2, #-287]	; 0x11f
    1478:	009fb003 	addseq	fp, pc, r3
    147c:	51011f00 	tstpl	r1, r0, lsl #30
    1480:	9ccc0305 	stclls	3, cr0, [ip], {5}
    1484:	011f0000 	tsteq	pc, r0
    1488:	74030550 	strvc	r0, [r3], #-1360	; 0x550
    148c:	1f00009d 	svcne	0x0000009d
    1490:	02007d02 	andeq	r7, r0, #2, 26	; 0x80
    1494:	00000075 	andeq	r0, r0, r5, ror r0
    1498:	00007f23 	andeq	r7, r0, r3, lsr #30
    149c:	00047500 	andeq	r7, r4, r0, lsl #10
    14a0:	00762400 	rsbseq	r2, r6, r0, lsl #8
    14a4:	00130000 	andseq	r0, r3, r0
    14a8:	00046507 	andeq	r6, r4, r7, lsl #10
    14ac:	ab040600 	blge	102cb4 <__bss_end__+0xf8684>
    14b0:	10000001 	andne	r0, r0, r1
    14b4:	000004ad 	andeq	r0, r0, sp, lsr #9
    14b8:	005d1405 	subseq	r1, sp, r5, lsl #8
    14bc:	b4030000 	strlt	r0, [r3], #-0
    14c0:	12000004 	andne	r0, r0, #4
    14c4:	000004e3 	andeq	r0, r0, r3, ror #9
    14c8:	005d1405 	subseq	r1, sp, r5, lsl #8
    14cc:	01120000 	tsteq	r2, r0
    14d0:	05000005 	streq	r0, [r0, #-5]
    14d4:	00002c14 	andeq	r2, r0, r4, lsl ip
    14d8:	01102500 	tsteq	r0, r0, lsl #10
    14dc:	04c40000 	strbeq	r0, [r4], #0
    14e0:	04ad0000 	strteq	r0, [sp], #0
    14e4:	23000000 	movwcs	r0, #0
    14e8:	0000007f 	andeq	r0, r0, pc, ror r0
    14ec:	000004c4 	andeq	r0, r0, r4, asr #9
    14f0:	00007624 	andeq	r7, r0, r4, lsr #12
    14f4:	07000800 	streq	r0, [r0, -r0, lsl #16]
    14f8:	000004b4 			; <UNDEFINED> instruction: 0x000004b4
    14fc:	00048910 	andeq	r8, r4, r0, lsl r9
    1500:	5d250400 	cfstrspl	mvf0, [r5, #-0]
    1504:	03000000 	movweq	r0, #0
    1508:	00000518 	andeq	r0, r0, r8, lsl r5
    150c:	04007826 	streq	r7, [r0], #-2086	; 0x826
    1510:	00005d25 	andeq	r5, r0, r5, lsr #26
    1514:	626c2600 	rsbvs	r2, ip, #0, 12
    1518:	2c250400 	cfstrscs	mvf0, [r5], #-0
    151c:	26000000 	strcs	r0, [r0], -r0
    1520:	04006275 	streq	r6, [r0], #-629	; 0x275
    1524:	00002c25 	andeq	r2, r0, r5, lsr #24
    1528:	01102500 	tsteq	r0, r0, lsl #10
    152c:	05180000 	ldreq	r0, [r8, #-0]
    1530:	04890000 	streq	r0, [r9], #0
    1534:	6e110000 	cdpvs	0, 1, cr0, cr1, cr0, {0}
    1538:	2c280400 	cfstrscs	mvf0, [r8], #-0
    153c:	13000000 	movwne	r0, #0
    1540:	00000484 	andeq	r0, r0, r4, lsl #9
    1544:	002c2a04 	eoreq	r2, ip, r4, lsl #20
    1548:	07000000 	streq	r0, [r0, -r0]
    154c:	000004b4 			; <UNDEFINED> instruction: 0x000004b4
    1550:	0004a410 	andeq	sl, r4, r0, lsl r4
    1554:	86180500 	ldrhi	r0, [r8], -r0, lsl #10
    1558:	03000000 	movweq	r0, #0
    155c:	00000546 	andeq	r0, r0, r6, asr #10
    1560:	0004e312 	andeq	lr, r4, r2, lsl r3
    1564:	5d180500 	cfldr32pl	mvfx0, [r8, #-0]
    1568:	25000000 	strcs	r0, [r0, #-0]
    156c:	00000110 	andeq	r0, r0, r0, lsl r1
    1570:	00000546 	andeq	r0, r0, r6, asr #10
    1574:	000004a4 	andeq	r0, r0, r4, lsr #9
    1578:	04b40700 	ldrteq	r0, [r4], #1792	; 0x700
    157c:	f3100000 	vhadd.u16	d0, d0, d0
    1580:	05000004 	streq	r0, [r0, #-4]
    1584:	00005d0f 	andeq	r5, r0, pc, lsl #26
    1588:	057f0300 	ldrbeq	r0, [pc, #-768]!	; 1290 <__code_start__-0x6d70>
    158c:	e3120000 	tst	r2, #0
    1590:	05000004 	streq	r0, [r0, #-4]
    1594:	00005d0f 	andeq	r5, r0, pc, lsl #26
    1598:	05011300 	streq	r1, [r1, #-768]	; 0x300
    159c:	10050000 	andne	r0, r5, r0
    15a0:	0000002c 	andeq	r0, r0, ip, lsr #32
    15a4:	00011025 	andeq	r1, r1, r5, lsr #32
    15a8:	00057f00 	andeq	r7, r5, r0, lsl #30
    15ac:	0004f300 	andeq	pc, r4, r0, lsl #6
    15b0:	b4070000 	strlt	r0, [r7], #-0
    15b4:	10000004 	andne	r0, r0, r4
    15b8:	000004d0 	ldrdeq	r0, [r0], -r0	; <UNPREDICTABLE>
    15bc:	005d1c04 	subseq	r1, sp, r4, lsl #24
    15c0:	c8030000 	stmdagt	r3, {}	; <UNPREDICTABLE>
    15c4:	26000005 	strcs	r0, [r0], -r5
    15c8:	1c040078 	stcne	0, cr0, [r4], {120}	; 0x78
    15cc:	0000005d 	andeq	r0, r0, sp, asr r0
    15d0:	00626c26 	rsbeq	r6, r2, r6, lsr #24
    15d4:	002c1c04 	eoreq	r1, ip, r4, lsl #24
    15d8:	75260000 	strvc	r0, [r6, #-0]!
    15dc:	1c040062 	stcne	0, cr0, [r4], {98}	; 0x62
    15e0:	0000002c 	andeq	r0, r0, ip, lsr #32
    15e4:	00011025 	andeq	r1, r1, r5, lsr #32
    15e8:	0005c800 	andeq	ip, r5, r0, lsl #16
    15ec:	0004d000 	andeq	sp, r4, r0
    15f0:	006e1100 	rsbeq	r1, lr, r0, lsl #2
    15f4:	002c1f04 	eoreq	r1, ip, r4, lsl #30
    15f8:	07000000 	streq	r0, [r0, -r0]
    15fc:	000004b4 			; <UNDEFINED> instruction: 0x000004b4
    1600:	00049227 	andeq	r9, r4, r7, lsr #4
    1604:	2c2b0100 	stfcss	f0, [fp], #-0
    1608:	1c000000 	stcne	0, cr0, [r0], {-0}
    160c:	e0000088 	and	r0, r0, r8, lsl #1
    1610:	01000004 	tsteq	r0, r4
    1614:	000ce09c 	muleq	ip, ip, r0
    1618:	00631600 	rsbeq	r1, r3, r0, lsl #12
    161c:	047a2b01 	ldrbteq	r2, [sl], #-2817	; 0xb01
    1620:	05220000 	streq	r0, [r2, #-0]!
    1624:	c7280000 	strgt	r0, [r8, -r0]!
    1628:	01000004 	tsteq	r0, r4
    162c:	00005d2c 	andeq	r5, r0, ip, lsr #26
    1630:	13580100 	cmpne	r8, #0, 2
    1634:	000004d9 	ldrdeq	r0, [r0], -r9
    1638:	005d2d01 	subseq	r2, sp, r1, lsl #26
    163c:	10170000 	andsne	r0, r7, r0
    1640:	f0000001 			; <UNDEFINED> instruction: 0xf0000001
    1644:	0500000c 	streq	r0, [r0, #-12]
    1648:	009f9c03 	addseq	r9, pc, r3, lsl #24
    164c:	01ee1900 	mvneq	r1, r0, lsl #18
    1650:	88280000 	stmdahi	r8!, {}	; <UNPREDICTABLE>
    1654:	00040000 	andeq	r0, r4, r0
    1658:	2c010000 	stccs	0, cr0, [r1], {-0}
    165c:	00000641 	andeq	r0, r0, r1, asr #12
    1660:	0088281a 	addeq	r2, r8, sl, lsl r8
    1664:	00000400 	andeq	r0, r0, r0, lsl #8
    1668:	01fe1d00 	mvnseq	r1, r0, lsl #26
    166c:	054e0000 	strbeq	r0, [lr, #-0]
    1670:	00000000 	andeq	r0, r0, r0
    1674:	00048019 	andeq	r8, r4, r9, lsl r0
    1678:	00882c00 	addeq	r2, r8, r0, lsl #24
    167c:	00000800 	andeq	r0, r0, r0, lsl #16
    1680:	bf2d0100 	svclt	0x002d0100
    1684:	29000006 	stmdbcs	r0, {r1, r2}
    1688:	0000049b 	muleq	r0, fp, r4
    168c:	04902a10 	ldreq	r2, [r0], #2576	; 0xa10
    1690:	054e0000 	strbeq	r0, [lr, #-0]
    1694:	2c1a0000 	ldccs	0, cr0, [sl], {-0}
    1698:	08000088 	stmdaeq	r0, {r3, r7}
    169c:	2b000000 	blcs	16a4 <__code_start__-0x695c>
    16a0:	000004a6 	andeq	r0, r0, r6, lsr #9
    16a4:	9fc40305 	svcls	0x00c40305
    16a8:	c91c0000 	ldmdbgt	ip, {}	; <UNPREDICTABLE>
    16ac:	2c000004 	stccs	0, cr0, [r0], {4}
    16b0:	04000088 	streq	r0, [r0], #-136	; 0x88
    16b4:	05000000 	streq	r0, [r0, #-0]
    16b8:	04ec2916 	strbteq	r2, [ip], #2326	; 0x916
    16bc:	29040000 	stmdbcs	r4, {}	; <UNPREDICTABLE>
    16c0:	000004e2 	andeq	r0, r0, r2, ror #9
    16c4:	04d92a00 	ldrbeq	r2, [r9], #2560	; 0xa00
    16c8:	054e0000 	strbeq	r0, [lr, #-0]
    16cc:	2c1a0000 	ldccs	0, cr0, [sl], {-0}
    16d0:	04000088 	streq	r0, [r0], #-136	; 0x88
    16d4:	2c000000 	stccs	0, cr0, [r0], {-0}
    16d8:	00000503 	andeq	r0, r0, r3, lsl #10
    16dc:	050c2c05 	streq	r2, [ip, #-3077]	; 0xc05
    16e0:	2b1f0000 	blcs	7c16e8 <__bss_end__+0x7b70b8>
    16e4:	000004f6 	strdeq	r0, [r0], -r6
    16e8:	9fd00305 	svcls	0x00d00305
    16ec:	00000000 	andeq	r0, r0, r0
    16f0:	1d190000 	ldcne	0, cr0, [r9, #-0]
    16f4:	30000005 	andcc	r0, r0, r5
    16f8:	10000089 	andne	r0, r0, r9, lsl #1
    16fc:	01000001 	tsteq	r0, r1
    1700:	00081753 	andeq	r1, r8, r3, asr r7
    1704:	052d2a00 	streq	r2, [sp, #-2560]!	; 0xa00
    1708:	05610000 	strbeq	r0, [r1, #-0]!
    170c:	301a0000 	andscc	r0, sl, r0
    1710:	10000089 	andne	r0, r0, r9, lsl #1
    1714:	2b000001 	blcs	1720 <__code_start__-0x68e0>
    1718:	00000538 	andeq	r0, r0, r8, lsr r5
    171c:	9fdc0305 	svcls	0x00dc0305
    1720:	4b190000 	blmi	641728 <__bss_end__+0x6370f8>
    1724:	30000005 	andcc	r0, r0, r5
    1728:	6c000089 	stcvs	0, cr0, [r0], {137}	; 0x89
    172c:	05000000 	streq	r0, [r0, #-0]
    1730:	0007cd19 	andeq	ip, r7, r9, lsl sp
    1734:	055b2a00 	ldrbeq	r2, [fp, #-2560]	; 0xa00
    1738:	05610000 	strbeq	r0, [r1, #-0]!
    173c:	301a0000 	andscc	r0, sl, r0
    1740:	6c000089 	stcvs	0, cr0, [r0], {137}	; 0x89
    1744:	1b000000 	blne	174c <__code_start__-0x68b4>
    1748:	00000566 	andeq	r0, r0, r6, ror #10
    174c:	0005712b 	andeq	r7, r5, fp, lsr #2
    1750:	e8030500 	stmda	r3, {r8, sl}
    1754:	1900009f 	stmdbne	r0, {r0, r1, r2, r3, r4, r7}
    1758:	00000584 	andeq	r0, r0, r4, lsl #11
    175c:	00008930 	andeq	r8, r0, r0, lsr r9
    1760:	00000004 	andeq	r0, r0, r4
    1764:	07681005 	strbeq	r1, [r8, -r5]!
    1768:	a7290000 	strge	r0, [r9, -r0]!
    176c:	04000005 	streq	r0, [r0], #-5
    1770:	00059d29 	andeq	r9, r5, r9, lsr #26
    1774:	942a0000 	strtls	r0, [sl], #-0
    1778:	61000005 	tstvs	r0, r5
    177c:	1a000005 	bne	1798 <__code_start__-0x6868>
    1780:	00008930 	andeq	r8, r0, r0, lsr r9
    1784:	00000004 	andeq	r0, r0, r4
    1788:	0005be2c 	andeq	fp, r5, ip, lsr #28
    178c:	b12b0500 	teqlt	fp, r0, lsl #10
    1790:	05000005 	streq	r0, [r0, #-5]
    1794:	009ff403 	addseq	pc, pc, r3, lsl #8
    1798:	19000000 	stmdbne	r0, {}	; <UNPREDICTABLE>
    179c:	000001d2 	ldrdeq	r0, [r0], -r2
    17a0:	00008934 	andeq	r8, r0, r4, lsr r9
    17a4:	0000003c 	andeq	r0, r0, ip, lsr r0
    17a8:	07811105 	streq	r1, [r1, r5, lsl #2]
    17ac:	e22d0000 	eor	r0, sp, #0
    17b0:	00000001 	andeq	r0, r0, r1
    17b4:	00897c20 	addeq	r7, r9, r0, lsr #24
    17b8:	000e9a00 	andeq	r9, lr, r0, lsl #20
    17bc:	89981e00 	ldmibhi	r8, {r9, sl, fp, ip}
    17c0:	0e840000 	cdpeq	0, 8, cr0, cr4, cr0, {0}
    17c4:	07c20000 	strbeq	r0, [r2, r0]
    17c8:	011f0000 	tsteq	pc, r0
    17cc:	1f410153 	svcne	0x00410153
    17d0:	03055201 	movweq	r5, #20993	; 0x5201
    17d4:	00009fe8 	andeq	r9, r0, r8, ror #31
    17d8:	0551011f 	ldrbeq	r0, [r1, #-287]	; 0x11f
    17dc:	009ea803 	addseq	sl, lr, r3, lsl #16
    17e0:	50011f00 	andpl	r1, r1, r0, lsl #30
    17e4:	9a080305 	bls	202400 <__bss_end__+0x1f7dd0>
    17e8:	021f0000 	andseq	r0, pc, #0
    17ec:	0305007d 	movweq	r0, #20605	; 0x507d
    17f0:	00009eb4 			; <UNDEFINED> instruction: 0x00009eb4
    17f4:	899c2000 	ldmibhi	ip, {sp}
    17f8:	0ea10000 	cdpeq	0, 10, cr0, cr1, cr0, {0}
    17fc:	00000000 	andeq	r0, r0, r0
    1800:	008a1820 	addeq	r1, sl, r0, lsr #16
    1804:	000e9a00 	andeq	r9, lr, r0, lsl #20
    1808:	8a301e00 	bhi	c09010 <__bss_end__+0xbfe9e0>
    180c:	0e840000 	cdpeq	0, 8, cr0, cr4, cr0, {0}
    1810:	080c0000 	stmdaeq	ip, {}	; <UNPREDICTABLE>
    1814:	011f0000 	tsteq	pc, r0
    1818:	21080253 	tstcs	r8, r3, asr r2
    181c:	0552011f 	ldrbeq	r0, [r2, #-287]	; 0x11f
    1820:	009fdc03 	addseq	sp, pc, r3, lsl #24
    1824:	51011f00 	tstpl	r1, r0, lsl #30
    1828:	9ea80305 	cdpls	3, 10, cr0, cr8, cr5, {0}
    182c:	011f0000 	tsteq	pc, r0
    1830:	c8030550 	stmdagt	r3, {r4, r6, r8, sl}
    1834:	1f00009e 	svcne	0x0000009e
    1838:	02007d02 	andeq	r7, r0, #2, 26	; 0x80
    183c:	20000078 	andcs	r0, r0, r8, ror r0
    1840:	00008a34 	andeq	r8, r0, r4, lsr sl
    1844:	00000ea1 	andeq	r0, r0, r1, lsr #29
    1848:	ee190000 	cdp	0, 1, cr0, cr9, cr0, {0}
    184c:	4c000001 	stcmi	0, cr0, [r0], {1}
    1850:	0400008a 	streq	r0, [r0], #-138	; 0x8a
    1854:	01000000 	mrseq	r0, (UNDEF: 0)
    1858:	00083e54 	andeq	r3, r8, r4, asr lr
    185c:	8a4c1a00 	bhi	1308064 <__bss_end__+0x12fda34>
    1860:	00040000 	andeq	r0, r4, r0
    1864:	fe1d0000 	cdp2	0, 1, cr0, cr13, cr0, {0}
    1868:	74000001 	strvc	r0, [r0], #-1
    186c:	00000005 	andeq	r0, r0, r5
    1870:	051d1900 	ldreq	r1, [sp, #-2304]	; 0x900
    1874:	8a500000 	bhi	140187c <__bss_end__+0x13f724c>
    1878:	01100000 	tsteq	r0, r0
    187c:	54010000 	strpl	r0, [r1], #-0
    1880:	00000996 	muleq	r0, r6, r9
    1884:	00052d2a 	andeq	r2, r5, sl, lsr #26
    1888:	00057400 	andeq	r7, r5, r0, lsl #8
    188c:	8a501a00 	bhi	1408094 <__bss_end__+0x13fda64>
    1890:	01100000 	tsteq	r0, r0
    1894:	382b0000 	stmdacc	fp!, {}	; <UNPREDICTABLE>
    1898:	05000005 	streq	r0, [r0, #-5]
    189c:	009fdc03 	addseq	sp, pc, r3, lsl #24
    18a0:	054b1900 	strbeq	r1, [fp, #-2304]	; 0x900
    18a4:	8a500000 	bhi	14018ac <__bss_end__+0x13f727c>
    18a8:	006c0000 	rsbeq	r0, ip, r0
    18ac:	19050000 	stmdbne	r5, {}	; <UNPREDICTABLE>
    18b0:	0000094c 	andeq	r0, r0, ip, asr #18
    18b4:	00055b2a 	andeq	r5, r5, sl, lsr #22
    18b8:	00057400 	andeq	r7, r5, r0, lsl #8
    18bc:	8a501a00 	bhi	14080c4 <__bss_end__+0x13fda94>
    18c0:	006c0000 	rsbeq	r0, ip, r0
    18c4:	661b0000 	ldrvs	r0, [fp], -r0
    18c8:	2b000005 	blcs	18e4 <__code_start__-0x671c>
    18cc:	00000571 	andeq	r0, r0, r1, ror r5
    18d0:	9fe80305 	svcls	0x00e80305
    18d4:	84190000 	ldrhi	r0, [r9], #-0
    18d8:	50000005 	andpl	r0, r0, r5
    18dc:	0400008a 	streq	r0, [r0], #-138	; 0x8a
    18e0:	05000000 	streq	r0, [r0, #-0]
    18e4:	0008e710 	andeq	lr, r8, r0, lsl r7
    18e8:	05a72900 	streq	r2, [r7, #2304]!	; 0x900
    18ec:	29040000 	stmdbcs	r4, {}	; <UNPREDICTABLE>
    18f0:	0000059d 	muleq	r0, sp, r5
    18f4:	05942a00 	ldreq	r2, [r4, #2560]	; 0xa00
    18f8:	05740000 	ldrbeq	r0, [r4, #-0]!
    18fc:	501a0000 	andspl	r0, sl, r0
    1900:	0400008a 	streq	r0, [r0], #-138	; 0x8a
    1904:	2c000000 	stccs	0, cr0, [r0], {-0}
    1908:	000005be 			; <UNDEFINED> instruction: 0x000005be
    190c:	05b12b05 	ldreq	r2, [r1, #2821]!	; 0xb05
    1910:	03050000 	movweq	r0, #20480	; 0x5000
    1914:	00009ff4 	strdeq	r9, [r0], -r4
    1918:	d2190000 	andsle	r0, r9, #0
    191c:	54000001 	strpl	r0, [r0], #-1
    1920:	3c00008a 	stccc	0, cr0, [r0], {138}	; 0x8a
    1924:	05000000 	streq	r0, [r0, #-0]
    1928:	00090011 	andeq	r0, r9, r1, lsl r0
    192c:	01e22d00 	mvneq	r2, r0, lsl #26
    1930:	20000000 	andcs	r0, r0, r0
    1934:	00008a9c 	muleq	r0, ip, sl
    1938:	00000e9a 	muleq	r0, sl, lr
    193c:	008ab81e 	addeq	fp, sl, lr, lsl r8
    1940:	000e8400 	andeq	r8, lr, r0, lsl #8
    1944:	00094100 	andeq	r4, r9, r0, lsl #2
    1948:	53011f00 	movwpl	r1, #7936	; 0x1f00
    194c:	011f4101 	tsteq	pc, r1, lsl #2
    1950:	e8030552 	stmda	r3, {r1, r4, r6, r8, sl}
    1954:	1f00009f 	svcne	0x0000009f
    1958:	03055101 	movweq	r5, #20737	; 0x5101
    195c:	00009ea8 	andeq	r9, r0, r8, lsr #29
    1960:	0550011f 	ldrbeq	r0, [r0, #-287]	; 0x11f
    1964:	009a0803 	addseq	r0, sl, r3, lsl #16
    1968:	7d021f00 	stcvc	15, cr1, [r2, #-0]
    196c:	b4030500 	strlt	r0, [r3], #-1280	; 0x500
    1970:	0000009e 	muleq	r0, lr, r0
    1974:	008abc20 	addeq	fp, sl, r0, lsr #24
    1978:	000ea100 	andeq	sl, lr, r0, lsl #2
    197c:	20000000 	andcs	r0, r0, r0
    1980:	00008b38 	andeq	r8, r0, r8, lsr fp
    1984:	00000e9a 	muleq	r0, sl, lr
    1988:	008b501e 	addeq	r5, fp, lr, lsl r0
    198c:	000e8400 	andeq	r8, lr, r0, lsl #8
    1990:	00098b00 	andeq	r8, r9, r0, lsl #22
    1994:	53011f00 	movwpl	r1, #7936	; 0x1f00
    1998:	1f210802 	svcne	0x00210802
    199c:	03055201 	movweq	r5, #20993	; 0x5201
    19a0:	00009fdc 	ldrdeq	r9, [r0], -ip
    19a4:	0551011f 	ldrbeq	r0, [r1, #-287]	; 0x11f
    19a8:	009ea803 	addseq	sl, lr, r3, lsl #16
    19ac:	50011f00 	andpl	r1, r1, r0, lsl #30
    19b0:	9ec80305 	cdpls	3, 12, cr0, cr8, cr5, {0}
    19b4:	021f0000 	andseq	r0, pc, #0
    19b8:	7502007d 	strvc	r0, [r2, #-125]	; 0x7d
    19bc:	54200000 	strtpl	r0, [r0], #-0
    19c0:	a100008b 	smlabbge	r0, fp, r0, r0
    19c4:	0000000e 	andeq	r0, r0, lr
    19c8:	01ee1900 	mvneq	r1, r0, lsl #18
    19cc:	8b600000 	blhi	18019d4 <__bss_end__+0x17f73a4>
    19d0:	00040000 	andeq	r0, r4, r0
    19d4:	54010000 	strpl	r0, [r1], #-0
    19d8:	000009b9 			; <UNDEFINED> instruction: 0x000009b9
    19dc:	008b601a 	addeq	r6, fp, sl, lsl r0
    19e0:	00000400 	andeq	r0, r0, r0, lsl #8
    19e4:	01fe1b00 	mvnseq	r1, r0, lsl #22
    19e8:	00000000 	andeq	r0, r0, r0
    19ec:	00054b19 	andeq	r4, r5, r9, lsl fp
    19f0:	008b7400 	addeq	r7, fp, r0, lsl #8
    19f4:	00006c00 	andeq	r6, r0, r0, lsl #24
    19f8:	97580100 	ldrbls	r0, [r8, -r0, lsl #2]
    19fc:	2a00000a 	bcs	1a2c <__code_start__-0x65d4>
    1a00:	0000055b 	andeq	r0, r0, fp, asr r5
    1a04:	00000587 	andeq	r0, r0, r7, lsl #11
    1a08:	008b741a 	addeq	r7, fp, sl, lsl r4
    1a0c:	00006c00 	andeq	r6, r0, r0, lsl #24
    1a10:	05661b00 	strbeq	r1, [r6, #-2816]!	; 0xb00
    1a14:	712b0000 	teqvc	fp, r0
    1a18:	05000005 	streq	r0, [r0, #-5]
    1a1c:	009fe803 	addseq	lr, pc, r3, lsl #16
    1a20:	05841900 	streq	r1, [r4, #2304]	; 0x900
    1a24:	8b740000 	blhi	1d01a2c <__bss_end__+0x1cf73fc>
    1a28:	00040000 	andeq	r0, r4, r0
    1a2c:	10050000 	andne	r0, r5, r0
    1a30:	00000a32 	andeq	r0, r0, r2, lsr sl
    1a34:	0005a729 	andeq	sl, r5, r9, lsr #14
    1a38:	9d290400 	cfstrsls	mvf0, [r9, #-0]
    1a3c:	00000005 	andeq	r0, r0, r5
    1a40:	0005942a 	andeq	r9, r5, sl, lsr #8
    1a44:	00058700 	andeq	r8, r5, r0, lsl #14
    1a48:	8b741a00 	blhi	1d08250 <__bss_end__+0x1cfdc20>
    1a4c:	00040000 	andeq	r0, r4, r0
    1a50:	be2c0000 	cdplt	0, 2, cr0, cr12, cr0, {0}
    1a54:	05000005 	streq	r0, [r0, #-5]
    1a58:	0005b12b 	andeq	fp, r5, fp, lsr #2
    1a5c:	f4030500 	vst3.8	{d0,d2,d4}, [r3], r0
    1a60:	0000009f 	muleq	r0, pc, r0	; <UNPREDICTABLE>
    1a64:	01d21900 	bicseq	r1, r2, r0, lsl #18
    1a68:	8b780000 	blhi	1e01a70 <__bss_end__+0x1df7440>
    1a6c:	003c0000 	eorseq	r0, ip, r0
    1a70:	11050000 	mrsne	r0, (UNDEF: 5)
    1a74:	00000a4b 	andeq	r0, r0, fp, asr #20
    1a78:	0001e22d 	andeq	lr, r1, sp, lsr #4
    1a7c:	c0200000 	eorgt	r0, r0, r0
    1a80:	9a00008b 	bls	1cb4 <__code_start__-0x634c>
    1a84:	1e00000e 	cdpne	0, 0, cr0, cr0, cr14, {0}
    1a88:	00008bdc 	ldrdeq	r8, [r0], -ip
    1a8c:	00000e84 	andeq	r0, r0, r4, lsl #29
    1a90:	00000a8c 	andeq	r0, r0, ip, lsl #21
    1a94:	0153011f 	cmpeq	r3, pc, lsl r1
    1a98:	52011f41 	andpl	r1, r1, #260	; 0x104
    1a9c:	9fe80305 	svcls	0x00e80305
    1aa0:	011f0000 	tsteq	pc, r0
    1aa4:	a8030551 	stmdage	r3, {r0, r4, r6, r8, sl}
    1aa8:	1f00009e 	svcne	0x0000009e
    1aac:	03055001 	movweq	r5, #20481	; 0x5001
    1ab0:	00009a08 	andeq	r9, r0, r8, lsl #20
    1ab4:	007d021f 	rsbseq	r0, sp, pc, lsl r2
    1ab8:	9eb40305 	cdpls	3, 11, cr0, cr4, cr5, {0}
    1abc:	20000000 	andcs	r0, r0, r0
    1ac0:	00008be0 	andeq	r8, r0, r0, ror #23
    1ac4:	00000ea1 	andeq	r0, r0, r1, lsr #29
    1ac8:	ee190000 	cdp	0, 1, cr0, cr9, cr0, {0}
    1acc:	e0000001 	and	r0, r0, r1
    1ad0:	0400008b 	streq	r0, [r0], #-139	; 0x8b
    1ad4:	01000000 	mrseq	r0, (UNDEF: 0)
    1ad8:	000abe58 	andeq	fp, sl, r8, asr lr
    1adc:	8be01a00 	blhi	ff8082e4 <__bss_end__+0xff7fdcb4>
    1ae0:	00040000 	andeq	r0, r4, r0
    1ae4:	fe1d0000 	cdp2	0, 1, cr0, cr13, cr0, {0}
    1ae8:	9a000001 	bls	1af4 <__code_start__-0x650c>
    1aec:	00000005 	andeq	r0, r0, r5
    1af0:	054b1900 	strbeq	r1, [fp, #-2304]	; 0x900
    1af4:	8be40000 	blhi	ff901afc <__bss_end__+0xff8f74cc>
    1af8:	006c0000 	rsbeq	r0, ip, r0
    1afc:	58010000 	stmdapl	r1, {}	; <UNPREDICTABLE>
    1b00:	00000b9c 	muleq	r0, ip, fp
    1b04:	00055b2a 	andeq	r5, r5, sl, lsr #22
    1b08:	00059a00 	andeq	r9, r5, r0, lsl #20
    1b0c:	8be41a00 	blhi	ff908314 <__bss_end__+0xff8fdce4>
    1b10:	006c0000 	rsbeq	r0, ip, r0
    1b14:	661b0000 	ldrvs	r0, [fp], -r0
    1b18:	2b000005 	blcs	1b34 <__code_start__-0x64cc>
    1b1c:	00000571 	andeq	r0, r0, r1, ror r5
    1b20:	9fe80305 	svcls	0x00e80305
    1b24:	84190000 	ldrhi	r0, [r9], #-0
    1b28:	e4000005 	str	r0, [r0], #-5
    1b2c:	0400008b 	streq	r0, [r0], #-139	; 0x8b
    1b30:	05000000 	streq	r0, [r0, #-0]
    1b34:	000b3710 	andeq	r3, fp, r0, lsl r7
    1b38:	05a72900 	streq	r2, [r7, #2304]!	; 0x900
    1b3c:	29040000 	stmdbcs	r4, {}	; <UNPREDICTABLE>
    1b40:	0000059d 	muleq	r0, sp, r5
    1b44:	05942a00 	ldreq	r2, [r4, #2560]	; 0xa00
    1b48:	059a0000 	ldreq	r0, [sl]
    1b4c:	e41a0000 	ldr	r0, [sl], #-0
    1b50:	0400008b 	streq	r0, [r0], #-139	; 0x8b
    1b54:	2c000000 	stccs	0, cr0, [r0], {-0}
    1b58:	000005be 			; <UNDEFINED> instruction: 0x000005be
    1b5c:	05b12b05 	ldreq	r2, [r1, #2821]!	; 0xb05
    1b60:	03050000 	movweq	r0, #20480	; 0x5000
    1b64:	00009ff4 	strdeq	r9, [r0], -r4
    1b68:	d2190000 	andsle	r0, r9, #0
    1b6c:	e8000001 	stmda	r0, {r0}
    1b70:	3c00008b 	stccc	0, cr0, [r0], {139}	; 0x8b
    1b74:	05000000 	streq	r0, [r0, #-0]
    1b78:	000b5011 	andeq	r5, fp, r1, lsl r0
    1b7c:	01e22d00 	mvneq	r2, r0, lsl #26
    1b80:	20000000 	andcs	r0, r0, r0
    1b84:	00008c30 	andeq	r8, r0, r0, lsr ip
    1b88:	00000e9a 	muleq	r0, sl, lr
    1b8c:	008c4c1e 	addeq	r4, ip, lr, lsl ip
    1b90:	000e8400 	andeq	r8, lr, r0, lsl #8
    1b94:	000b9100 	andeq	r9, fp, r0, lsl #2
    1b98:	53011f00 	movwpl	r1, #7936	; 0x1f00
    1b9c:	011f4101 	tsteq	pc, r1, lsl #2
    1ba0:	e8030552 	stmda	r3, {r1, r4, r6, r8, sl}
    1ba4:	1f00009f 	svcne	0x0000009f
    1ba8:	03055101 	movweq	r5, #20737	; 0x5101
    1bac:	00009ea8 	andeq	r9, r0, r8, lsr #29
    1bb0:	0550011f 	ldrbeq	r0, [r0, #-287]	; 0x11f
    1bb4:	009a0803 	addseq	r0, sl, r3, lsl #16
    1bb8:	7d021f00 	stcvc	15, cr1, [r2, #-0]
    1bbc:	b4030500 	strlt	r0, [r3], #-1280	; 0x500
    1bc0:	0000009e 	muleq	r0, lr, r0
    1bc4:	008c5020 	addeq	r5, ip, r0, lsr #32
    1bc8:	000ea100 	andeq	sl, lr, r0, lsl #2
    1bcc:	21000000 	mrscs	r0, (UNDEF: 0)
    1bd0:	00008864 	andeq	r8, r0, r4, ror #16
    1bd4:	00000bac 	andeq	r0, r0, ip, lsr #23
    1bd8:	0250011f 	subseq	r0, r0, #-1073741817	; 0xc0000007
    1bdc:	1e000074 	mcrne	0, 0, r0, cr0, cr4, {3}
    1be0:	0000888c 	andeq	r8, r0, ip, lsl #17
    1be4:	00000e84 	andeq	r0, r0, r4, lsl #29
    1be8:	00000bd2 	ldrdeq	r0, [r0], -r2
    1bec:	0253011f 	subseq	r0, r3, #-1073741817	; 0xc0000007
    1bf0:	011f3408 	tsteq	pc, r8, lsl #8
    1bf4:	00790252 	rsbseq	r0, r9, r2, asr r2
    1bf8:	0251011f 	subseq	r0, r1, #-1073741817	; 0xc0000007
    1bfc:	011f007a 	tsteq	pc, sl, ror r0	; <UNPREDICTABLE>
    1c00:	007b0250 	rsbseq	r0, fp, r0, asr r2
    1c04:	88981e00 	ldmhi	r8, {r9, sl, fp, ip}
    1c08:	0eb90000 	cdpeq	0, 11, cr0, cr9, cr0, {0}
    1c0c:	0beb0000 	bleq	ffac1c14 <__bss_end__+0xffab75e4>
    1c10:	011f0000 	tsteq	pc, r0
    1c14:	00750251 	rsbseq	r0, r5, r1, asr r2
    1c18:	0150011f 	cmpeq	r0, pc, lsl r1
    1c1c:	c01e0030 	andsgt	r0, lr, r0, lsr r0
    1c20:	cf000088 	svcgt	0x00000088
    1c24:	0500000e 	streq	r0, [r0, #-14]
    1c28:	1f00000c 	svcne	0x0000000c
    1c2c:	74025201 	strvc	r5, [r2], #-513	; 0x201
    1c30:	50011f00 	andpl	r1, r1, r0, lsl #30
    1c34:	00007702 	andeq	r7, r0, r2, lsl #14
    1c38:	0088d821 	addeq	sp, r8, r1, lsr #16
    1c3c:	000c1500 	andeq	r1, ip, r0, lsl #10
    1c40:	50011f00 	andpl	r1, r1, r0, lsl #30
    1c44:	00007402 	andeq	r7, r0, r2, lsl #8
    1c48:	0088e421 	addeq	lr, r8, r1, lsr #8
    1c4c:	000c2500 	andeq	r2, ip, r0, lsl #10
    1c50:	50011f00 	andpl	r1, r1, r0, lsl #30
    1c54:	00007402 	andeq	r7, r0, r2, lsl #8
    1c58:	0088fc1e 	addeq	pc, r8, lr, lsl ip	; <UNPREDICTABLE>
    1c5c:	000e8400 	andeq	r8, lr, r0, lsl #8
    1c60:	000c3c00 	andeq	r3, ip, r0, lsl #24
    1c64:	50011f00 	andpl	r1, r1, r0, lsl #30
    1c68:	9e2c0305 	cdpls	3, 2, cr0, cr12, cr5, {0}
    1c6c:	1e000000 	cdpne	0, 0, cr0, cr0, cr0, {0}
    1c70:	00008930 	andeq	r8, r0, r0, lsr r9
    1c74:	00000e84 	andeq	r0, r0, r4, lsl #29
    1c78:	00000c53 	andeq	r0, r0, r3, asr ip
    1c7c:	0550011f 	ldrbeq	r0, [r0, #-287]	; 0x11f
    1c80:	009e7403 	addseq	r7, lr, r3, lsl #8
    1c84:	4c1e0000 	ldcmi	0, cr0, [lr], {-0}
    1c88:	8400008a 	strhi	r0, [r0], #-138	; 0x8a
    1c8c:	7000000e 	andvc	r0, r0, lr
    1c90:	1f00000c 	svcne	0x0000000c
    1c94:	78025201 	stmdavc	r2, {r0, r9, ip, lr}
    1c98:	50011f00 	andpl	r1, r1, r0, lsl #30
    1c9c:	9eec0305 	cdpls	3, 14, cr0, cr12, cr5, {0}
    1ca0:	1e000000 	cdpne	0, 0, cr0, cr0, cr0, {0}
    1ca4:	00008b6c 	andeq	r8, r0, ip, ror #22
    1ca8:	00000e84 	andeq	r0, r0, r4, lsl #29
    1cac:	00000c87 	andeq	r0, r0, r7, lsl #25
    1cb0:	0550011f 	ldrbeq	r0, [r0, #-287]	; 0x11f
    1cb4:	009f0803 	addseq	r0, pc, r3, lsl #16
    1cb8:	741e0000 	ldrvc	r0, [lr], #-0
    1cbc:	a800008b 	stmdage	r0, {r0, r1, r3, r7}
    1cc0:	9a00000e 	bls	1d00 <__code_start__-0x6300>
    1cc4:	1f00000c 	svcne	0x0000000c
    1cc8:	30015001 	andcc	r5, r1, r1
    1ccc:	8c5c2000 	mrahi	r2, ip, acc0
    1cd0:	0e9a0000 	cdpeq	0, 9, cr0, cr10, cr0, {0}
    1cd4:	781e0000 	ldmdavc	lr, {}	; <UNPREDICTABLE>
    1cd8:	8400008c 	strhi	r0, [r0], #-140	; 0x8c
    1cdc:	d600000e 	strle	r0, [r0], -lr
    1ce0:	1f00000c 	svcne	0x0000000c
    1ce4:	08025301 	stmdaeq	r2, {r0, r8, r9, ip, lr}
    1ce8:	52011f58 	andpl	r1, r1, #88, 30	; 0x160
    1cec:	1f007902 	svcne	0x00007902
    1cf0:	7a025101 	bvc	960fc <__bss_end__+0x8bacc>
    1cf4:	50011f00 	andpl	r1, r1, r0, lsl #30
    1cf8:	9a080305 	bls	202914 <__bss_end__+0x1f82e4>
    1cfc:	021f0000 	andseq	r0, pc, #0
    1d00:	0305007d 	movweq	r0, #20605	; 0x507d
    1d04:	00009f20 	andeq	r9, r0, r0, lsr #30
    1d08:	8c7c2000 	ldclhi	0, cr2, [ip], #-0
    1d0c:	0ea10000 	cdpeq	0, 10, cr0, cr1, cr0, {0}
    1d10:	23000000 	movwcs	r0, #0
    1d14:	0000007f 	andeq	r0, r0, pc, ror r0
    1d18:	00000cf0 	strdeq	r0, [r0], -r0	; <UNPREDICTABLE>
    1d1c:	00007624 	andeq	r7, r0, r4, lsr #12
    1d20:	07001100 	streq	r1, [r0, -r0, lsl #2]
    1d24:	00000ce0 	andeq	r0, r0, r0, ror #25
    1d28:	0004b627 	andeq	fp, r4, r7, lsr #12
    1d2c:	2c640100 	stfcse	f0, [r4], #-0
    1d30:	fc000000 	stc2	0, cr0, [r0], {-0}
    1d34:	8400008c 	strhi	r0, [r0], #-140	; 0x8c
    1d38:	01000000 	mrseq	r0, (UNDEF: 0)
    1d3c:	000db99c 	muleq	sp, ip, r9
    1d40:	00631600 	rsbeq	r1, r3, r0, lsl #12
    1d44:	047a6401 	ldrbteq	r6, [sl], #-1025	; 0x401
    1d48:	05ad0000 	streq	r0, [sp, #0]!
    1d4c:	69180000 	ldmdbvs	r8, {}	; <UNPREDICTABLE>
    1d50:	2c670100 	stfcse	f0, [r7], #-0
    1d54:	cb000000 	blgt	1d5c <__code_start__-0x62a4>
    1d58:	17000005 	strne	r0, [r0, -r5]
    1d5c:	00000110 	andeq	r0, r0, r0, lsl r1
    1d60:	00000dc9 	andeq	r0, r0, r9, asr #27
    1d64:	9f880305 	svcls	0x00880305
    1d68:	18210000 	stmdane	r1!, {}	; <UNPREDICTABLE>
    1d6c:	4700008d 	strmi	r0, [r0, -sp, lsl #1]
    1d70:	1f00000d 	svcne	0x0000000d
    1d74:	74025001 	strvc	r5, [r2], #-1
    1d78:	24210000 	strtcs	r0, [r1], #-0
    1d7c:	5700008d 	strpl	r0, [r0, -sp, lsl #1]
    1d80:	1f00000d 	svcne	0x0000000d
    1d84:	74025001 	strvc	r5, [r2], #-1
    1d88:	30210000 	eorcc	r0, r1, r0
    1d8c:	6700008d 	strvs	r0, [r0, -sp, lsl #1]
    1d90:	1f00000d 	svcne	0x0000000d
    1d94:	74025001 	strvc	r5, [r2], #-1
    1d98:	3c210000 	stccc	0, cr0, [r1], #-0
    1d9c:	7700008d 	strvc	r0, [r0, -sp, lsl #1]
    1da0:	1f00000d 	svcne	0x0000000d
    1da4:	74025001 	strvc	r5, [r2], #-1
    1da8:	48200000 	stmdami	r0!, {}	; <UNPREDICTABLE>
    1dac:	9a00008d 	bls	1fe8 <__code_start__-0x6018>
    1db0:	1e00000e 	cdpne	0, 0, cr0, cr0, cr14, {0}
    1db4:	00008d5c 	andeq	r8, r0, ip, asr sp
    1db8:	00000e84 	andeq	r0, r0, r4, lsl #29
    1dbc:	00000daf 	andeq	r0, r0, pc, lsr #27
    1dc0:	0253011f 	subseq	r0, r3, #-1073741817	; 0xc0000007
    1dc4:	011f6e08 	tsteq	pc, r8, lsl #28
    1dc8:	88030552 	stmdahi	r3, {r1, r4, r6, r8, sl}
    1dcc:	1f00009f 	svcne	0x0000009f
    1dd0:	03055101 	movweq	r5, #20737	; 0x5101
    1dd4:	00009ccc 	andeq	r9, r0, ip, asr #25
    1dd8:	0550011f 	ldrbeq	r0, [r0, #-287]	; 0x11f
    1ddc:	009f4c03 	addseq	r4, pc, r3, lsl #24
    1de0:	60200000 	eorvs	r0, r0, r0
    1de4:	a100008d 	smlabbge	r0, sp, r0, r0
    1de8:	0000000e 	andeq	r0, r0, lr
    1dec:	00007f23 	andeq	r7, r0, r3, lsr #30
    1df0:	000dc900 	andeq	ip, sp, r0, lsl #18
    1df4:	00762400 	rsbseq	r2, r6, r0, lsl #8
    1df8:	00100000 	andseq	r0, r0, r0
    1dfc:	000db907 	andeq	fp, sp, r7, lsl #18
    1e00:	04391400 	ldrteq	r1, [r9], #-1024	; 0x400
    1e04:	7d010000 	stcvc	0, cr0, [r1, #-0]
    1e08:	00008d80 	andeq	r8, r0, r0, lsl #27
    1e0c:	00000028 	andeq	r0, r0, r8, lsr #32
    1e10:	0def9c01 	stcleq	12, cr9, [pc, #4]!	; 1e1c <__code_start__-0x61e4>
    1e14:	632e0000 	teqvs	lr, #0
    1e18:	7a7d0100 	bvc	1f42220 <__bss_end__+0x1f37bf0>
    1e1c:	01000004 	tsteq	r0, r4
    1e20:	282f0050 	stmdacs	pc!, {r4, r6}	; <UNPREDICTABLE>
    1e24:	01000000 	mrseq	r0, (UNDEF: 0)
    1e28:	00002588 	andeq	r2, r0, r8, lsl #11
    1e2c:	008da800 	addeq	sl, sp, r0, lsl #16
    1e30:	00004c00 	andeq	r4, r0, r0, lsl #24
    1e34:	579c0100 	ldrpl	r0, [ip, r0, lsl #2]
    1e38:	1600000e 	strne	r0, [r0], -lr
    1e3c:	88010063 	stmdahi	r1, {r0, r1, r5, r6}
    1e40:	0000047a 	andeq	r0, r0, sl, ror r4
    1e44:	000005ea 	andeq	r0, r0, sl, ror #11
    1e48:	008db420 	addeq	fp, sp, r0, lsr #8
    1e4c:	000efb00 	andeq	pc, lr, r0, lsl #22
    1e50:	8dbc1e00 	ldchi	14, cr1, [ip]
    1e54:	0dce0000 	stcleq	0, cr0, [lr]
    1e58:	0e320000 	cdpeq	0, 3, cr0, cr2, cr0, {0}
    1e5c:	011f0000 	tsteq	pc, r0
    1e60:	00740250 	rsbseq	r0, r4, r0, asr r2
    1e64:	8dc41e00 	stclhi	14, cr1, [r4]
    1e68:	0cf50000 	ldcleq	0, cr0, [r5]
    1e6c:	0e460000 	cdpeq	0, 4, cr0, cr6, cr0, {0}
    1e70:	011f0000 	tsteq	pc, r0
    1e74:	00740250 	rsbseq	r0, r4, r0, asr r2
    1e78:	8dd42200 	lfmhi	f2, 2, [r4]
    1e7c:	05cd0000 	strbeq	r0, [sp]
    1e80:	011f0000 	tsteq	pc, r0
    1e84:	00740250 	rsbseq	r0, r4, r0, asr r2
    1e88:	d1280000 	teqle	r8, r0
    1e8c:	01000001 	tsteq	r0, r1
    1e90:	00047a06 	andeq	r7, r4, r6, lsl #20
    1e94:	24030500 	strcs	r0, [r3], #-1280	; 0x500
    1e98:	280000a2 	stmdacs	r0, {r1, r5, r7}
    1e9c:	00000474 	andeq	r0, r0, r4, ror r4
    1ea0:	007d0801 	rsbseq	r0, sp, r1, lsl #16
    1ea4:	03050000 	movweq	r0, #20480	; 0x5000
    1ea8:	0000a228 	andeq	sl, r0, r8, lsr #4
    1eac:	0000f930 	andeq	pc, r0, r0, lsr r9	; <UNPREDICTABLE>
    1eb0:	25c20200 	strbcs	r0, [r2, #512]	; 0x200
    1eb4:	31000000 	mrscc	r0, (UNDEF: 0)
    1eb8:	0000057d 	andeq	r0, r0, sp, ror r5
    1ebc:	00252908 	eoreq	r2, r5, r8, lsl #18
    1ec0:	0e9a0000 	cdpeq	0, 9, cr0, cr10, cr0, {0}
    1ec4:	86090000 	strhi	r0, [r9], -r0
    1ec8:	32000000 	andcc	r0, r0, #0
    1ecc:	022a3300 	eoreq	r3, sl, #0, 6
    1ed0:	1e080000 	cdpne	0, 0, cr0, cr8, cr0, {0}
    1ed4:	0000ce33 	andeq	ip, r0, r3, lsr lr
    1ed8:	34650800 	strbtcc	r0, [r5], #-2048	; 0x800
    1edc:	00000353 	andeq	r0, r0, r3, asr r3
    1ee0:	0eb9e302 	cdpeq	3, 11, cr14, cr9, cr2, {0}
    1ee4:	5d090000 	stcpl	0, cr0, [r9, #-0]
    1ee8:	00000000 	andeq	r0, r0, r0
    1eec:	00031334 	andeq	r1, r3, r4, lsr r3
    1ef0:	cfd90200 	svcgt	0x00d90200
    1ef4:	0900000e 	stmdbeq	r0, {r1, r2, r3}
    1ef8:	0000005d 	andeq	r0, r0, sp, asr r0
    1efc:	00009109 	andeq	r9, r0, r9, lsl #2
    1f00:	57340000 	ldrpl	r0, [r4, -r0]!
    1f04:	02000004 	andeq	r0, r0, #4
    1f08:	000eeaf3 	strdeq	lr, [lr], -r3
    1f0c:	005d0900 	subseq	r0, sp, r0, lsl #18
    1f10:	ea090000 	b	241f18 <__bss_end__+0x2378e8>
    1f14:	0900000e 	stmdbeq	r0, {r1, r2, r3}
    1f18:	0000007d 	andeq	r0, r0, sp, ror r0
    1f1c:	f0040600 			; <UNDEFINED> instruction: 0xf0040600
    1f20:	0800000e 	stmdaeq	r0, {r1, r2, r3}
    1f24:	00000efb 	strdeq	r0, [r0], -fp
    1f28:	00007d09 	andeq	r7, r0, r9, lsl #26
    1f2c:	9c330000 	ldcls	0, cr0, [r3], #-0
    1f30:	02000003 	andeq	r0, r0, #3
    1f34:	01910090 			; <UNDEFINED> instruction: 0x01910090
    1f38:	00040000 	andeq	r0, r4, r0
    1f3c:	00000720 	andeq	r0, r0, r0, lsr #14
    1f40:	05230104 	streq	r0, [r3, #-260]!	; 0x104
    1f44:	15010000 	strne	r0, [r1, #-0]
    1f48:	8e000005 	cdphi	0, 0, cr0, cr0, cr5, {0}
    1f4c:	f4000005 	vst4.8	{d0-d3}, [r0], r5
    1f50:	5800008d 	stmdapl	r0, {r0, r2, r3, r7}
    1f54:	bc000000 	stclt	0, cr0, [r0], {-0}
    1f58:	02000005 	andeq	r0, r0, #5
    1f5c:	00000506 	andeq	r0, r0, r6, lsl #10
    1f60:	00302802 	eorseq	r2, r0, r2, lsl #16
    1f64:	84030000 	strhi	r0, [r3], #-0
    1f68:	04000005 	streq	r0, [r0], #-5
    1f6c:	00470003 	subeq	r0, r7, r3
    1f70:	d4040000 	strle	r0, [r4], #-0
    1f74:	47000005 	strmi	r0, [r0, -r5]
    1f78:	00000000 	andeq	r0, r0, r0
    1f7c:	02040500 	andeq	r0, r4, #0, 10
    1f80:	00000586 	andeq	r0, r0, r6, lsl #11
    1f84:	00256202 	eoreq	r6, r5, r2, lsl #4
    1f88:	04060000 	streq	r0, [r6], #-0
    1f8c:	746e6905 	strbtvc	r6, [lr], #-2309	; 0x905
    1f90:	07040700 	streq	r0, [r4, -r0, lsl #14]
    1f94:	000001bd 			; <UNDEFINED> instruction: 0x000001bd
    1f98:	c2060107 	andgt	r0, r6, #-1073741823	; 0xc0000001
    1f9c:	07000000 	streq	r0, [r0, -r0]
    1fa0:	000f0502 	andeq	r0, pc, r2, lsl #10
    1fa4:	04070000 	streq	r0, [r7], #-0
    1fa8:	0001f105 	andeq	pc, r1, r5, lsl #2
    1fac:	05080700 	streq	r0, [r8, #-1792]	; 0x700
    1fb0:	000001ec 	andeq	r0, r0, ip, ror #3
    1fb4:	c0080107 	andgt	r0, r8, r7, lsl #2
    1fb8:	07000000 	streq	r0, [r0, -r0]
    1fbc:	00e60702 	rsceq	r0, r6, r2, lsl #14
    1fc0:	04070000 	streq	r0, [r7], #-0
    1fc4:	0001b807 	andeq	fp, r1, r7, lsl #16
    1fc8:	07080700 	streq	r0, [r8, -r0, lsl #14]
    1fcc:	000001b3 			; <UNDEFINED> instruction: 0x000001b3
    1fd0:	e3070407 	movw	r0, #29703	; 0x7407
    1fd4:	08000001 	stmdaeq	r0, {r0}
    1fd8:	0000a704 	andeq	sl, r0, r4, lsl #14
    1fdc:	08010700 	stmdaeq	r1, {r8, r9, sl}
    1fe0:	000000c9 	andeq	r0, r0, r9, asr #1
    1fe4:	00b40408 	adcseq	r0, r4, r8, lsl #8
    1fe8:	a7090000 	strge	r0, [r9, -r0]
    1fec:	0a000000 	beq	1ff4 <__code_start__-0x600c>
    1ff0:	0000057d 	andeq	r0, r0, sp, ror r5
    1ff4:	00540601 	subseq	r0, r4, r1, lsl #12
    1ff8:	8df40000 	ldclhi	0, cr0, [r4]
    1ffc:	00580000 	subseq	r0, r8, r0
    2000:	9c010000 	stcls	0, cr0, [r1], {-0}
    2004:	00000143 	andeq	r0, r0, r3, asr #2
    2008:	746d660b 	strbtvc	r6, [sp], #-1547	; 0x60b
    200c:	ae060100 	adfges	f0, f6, f0
    2010:	02000000 	andeq	r0, r0, #0
    2014:	0d0c7091 	stceq	0, cr7, [ip, #-580]	; 0xfffffdbc
    2018:	00667562 	rsbeq	r7, r6, r2, ror #10
    201c:	01430801 	cmpeq	r3, r1, lsl #16
    2020:	03050000 	movweq	r0, #20480	; 0x5000
    2024:	0000a22c 	andeq	sl, r0, ip, lsr #4
    2028:	000a900e 	andeq	r9, sl, lr
    202c:	49090100 	stmdbmi	r9, {r8}
    2030:	02000000 	andeq	r0, r0, #0
    2034:	730f5c91 	movwvc	r5, #64657	; 0xfc91
    2038:	0c01007a 	stceq	0, cr0, [r1], {122}	; 0x7a
    203c:	00000054 	andeq	r0, r0, r4, asr r0
    2040:	00000608 	andeq	r0, r0, r8, lsl #12
    2044:	008e1c10 	addeq	r1, lr, r0, lsl ip
    2048:	00017400 	andeq	r7, r1, r0, lsl #8
    204c:	00013600 	andeq	r3, r1, r0, lsl #12
    2050:	53011100 	movwpl	r1, #4352	; 0x1100
    2054:	114c9102 	cmpne	ip, r2, lsl #2
    2058:	91035201 	tstls	r3, r1, lsl #4
    205c:	01110648 	tsteq	r1, r8, asr #12
    2060:	000a0351 	andeq	r0, sl, r1, asr r3
    2064:	50011104 	andpl	r1, r1, r4, lsl #2
    2068:	00007402 	andeq	r7, r0, r2, lsl #8
    206c:	008e3012 	addeq	r3, lr, r2, lsl r0
    2070:	50011100 	andpl	r1, r1, r0, lsl #2
    2074:	00007402 	andeq	r7, r0, r2, lsl #8
    2078:	00a71300 	adceq	r1, r7, r0, lsl #6
    207c:	01540000 	cmpeq	r4, r0
    2080:	9a140000 	bls	502088 <__bss_end__+0x4f7a58>
    2084:	ff000000 			; <UNDEFINED> instruction: 0xff000000
    2088:	54150003 	ldrpl	r0, [r5], #-3
    208c:	63000000 	movwvs	r0, #0
    2090:	16000001 	strne	r0, [r0], -r1
    2094:	000000ae 	andeq	r0, r0, lr, lsr #1
    2098:	06311700 	ldrteq	r1, [r1], -r0, lsl #14
    209c:	22040000 	andcs	r0, r4, #0
    20a0:	0000016e 	andeq	r0, r0, lr, ror #2
    20a4:	01540408 	cmpeq	r4, r8, lsl #8
    20a8:	7a180000 	bvc	6020b0 <__bss_end__+0x5f7a80>
    20ac:	05000005 	streq	r0, [r0, #-5]
    20b0:	00005402 	andeq	r5, r0, r2, lsl #8
    20b4:	00a11600 	adceq	r1, r1, r0, lsl #12
    20b8:	54160000 	ldrpl	r0, [r6], #-0
    20bc:	16000000 	strne	r0, [r0], -r0
    20c0:	000000ae 	andeq	r0, r0, lr, lsr #1
    20c4:	00004916 	andeq	r4, r0, r6, lsl r9
    20c8:	13000000 	movwne	r0, #0
    20cc:	04000001 	streq	r0, [r0], #-1
    20d0:	00085100 	andeq	r5, r8, r0, lsl #2
    20d4:	23010400 	movwcs	r0, #5120	; 0x1400
    20d8:	01000005 	tsteq	r0, r5
    20dc:	00000600 	andeq	r0, r0, r0, lsl #12
    20e0:	0000058e 	andeq	r0, r0, lr, lsl #11
    20e4:	00008e4c 	andeq	r8, r0, ip, asr #28
    20e8:	0000003c 	andeq	r0, r0, ip, lsr r0
    20ec:	000006cc 	andeq	r0, r0, ip, asr #13
    20f0:	69050402 	stmdbvs	r5, {r1, sl}
    20f4:	0300746e 	movweq	r7, #1134	; 0x46e
    20f8:	01bd0704 			; <UNDEFINED> instruction: 0x01bd0704
    20fc:	01030000 	mrseq	r0, (UNDEF: 3)
    2100:	0000c206 	andeq	ip, r0, r6, lsl #4
    2104:	05020300 	streq	r0, [r2, #-768]	; 0x300
    2108:	0000000f 	andeq	r0, r0, pc
    210c:	f1050403 			; <UNDEFINED> instruction: 0xf1050403
    2110:	03000001 	movweq	r0, #1
    2114:	01ec0508 	mvneq	r0, r8, lsl #10
    2118:	01030000 	mrseq	r0, (UNDEF: 3)
    211c:	0000c008 	andeq	ip, r0, r8
    2120:	07020300 	streq	r0, [r2, -r0, lsl #6]
    2124:	000000e6 	andeq	r0, r0, r6, ror #1
    2128:	b8070403 	stmdalt	r7, {r0, r1, sl}
    212c:	03000001 	movweq	r0, #1
    2130:	01b30708 			; <UNDEFINED> instruction: 0x01b30708
    2134:	04030000 	streq	r0, [r3], #-0
    2138:	0001e307 	andeq	lr, r1, r7, lsl #6
    213c:	08010300 	stmdaeq	r1, {r8, r9}
    2140:	000000c9 	andeq	r0, r0, r9, asr #1
    2144:	0005e304 	andeq	lr, r5, r4, lsl #6
    2148:	25030100 	strcs	r0, [r3, #-256]	; 0x100
    214c:	4c000000 	stcmi	0, cr0, [r0], {-0}
    2150:	1400008e 	strne	r0, [r0], #-142	; 0x8e
    2154:	01000000 	mrseq	r0, (UNDEF: 0)
    2158:	0000b09c 	muleq	r0, ip, r0
    215c:	00630500 	rsbeq	r0, r3, r0, lsl #10
    2160:	00250301 	eoreq	r0, r5, r1, lsl #6
    2164:	06310000 	ldrteq	r0, [r1], -r0
    2168:	58060000 	stmdapl	r6, {}	; <UNPREDICTABLE>
    216c:	0900008e 	stmdbeq	r0, {r1, r2, r3, r7}
    2170:	07000001 	streq	r0, [r0, -r1]
    2174:	74025001 	strvc	r5, [r2], #-1
    2178:	08000000 	stmdaeq	r0, {}	; <UNPREDICTABLE>
    217c:	0000022a 	andeq	r0, r0, sl, lsr #4
    2180:	8e600801 	cdphi	8, 6, cr0, cr0, cr1, {0}
    2184:	00180000 	andseq	r0, r8, r0
    2188:	9c010000 	stcls	0, cr0, [r1], {-0}
    218c:	00060f09 	andeq	r0, r6, r9, lsl #30
    2190:	780b0100 	stmdavc	fp, {r8}
    2194:	1000008e 	andne	r0, r0, lr, lsl #1
    2198:	01000000 	mrseq	r0, (UNDEF: 0)
    219c:	0000e39c 	muleq	r0, ip, r3
    21a0:	70660a00 	rsbvc	r0, r6, r0, lsl #20
    21a4:	f20b0100 	vrhadd.s8	d0, d11, d0
    21a8:	01000000 	mrseq	r0, (UNDEF: 0)
    21ac:	250b0050 	strcs	r0, [fp, #-80]	; 0x50
    21b0:	f2000000 	vhadd.s8	d0, d0, d0
    21b4:	0c000000 	stceq	0, cr0, [r0], {-0}
    21b8:	00000025 	andeq	r0, r0, r5, lsr #32
    21bc:	e3040d00 	movw	r0, #19712	; 0x4d00
    21c0:	0e000000 	cdpeq	0, 0, cr0, cr0, cr0, {0}
    21c4:	000005f4 	strdeq	r0, [r0], -r4
    21c8:	00f20601 	rscseq	r0, r2, r1, lsl #12
    21cc:	03050000 	movweq	r0, #20480	; 0x5000
    21d0:	00009a00 	andeq	r9, r0, r0, lsl #20
    21d4:	0005d90f 	andeq	sp, r5, pc, lsl #18
    21d8:	0c3c0200 	lfmeq	f0, 4, [ip], #-0
    21dc:	0000002c 	andeq	r0, r0, ip, lsr #32
    21e0:	00ee0000 	rsceq	r0, lr, r0
    21e4:	00040000 	andeq	r0, r4, r0
    21e8:	00000939 	andeq	r0, r0, r9, lsr r9
    21ec:	05230104 	streq	r0, [r3, #-260]!	; 0x104
    21f0:	1c010000 	stcne	0, cr0, [r1], {-0}
    21f4:	8e000006 	cdphi	0, 0, cr0, cr0, cr6, {0}
    21f8:	88000005 	stmdahi	r0, {r0, r2}
    21fc:	3400008e 	strcc	r0, [r0], #-142	; 0x8e
    2200:	64000000 	strvs	r0, [r0], #-0
    2204:	02000007 	andeq	r0, r0, #7
    2208:	6e690504 	cdpvs	5, 6, cr0, cr9, cr4, {0}
    220c:	04030074 	streq	r0, [r3], #-116	; 0x74
    2210:	0001bd07 	andeq	fp, r1, r7, lsl #26
    2214:	06010300 	streq	r0, [r1], -r0, lsl #6
    2218:	000000c2 	andeq	r0, r0, r2, asr #1
    221c:	0f050203 	svceq	0x00050203
    2220:	03000000 	movweq	r0, #0
    2224:	01f10504 	mvnseq	r0, r4, lsl #10
    2228:	08030000 	stmdaeq	r3, {}	; <UNPREDICTABLE>
    222c:	0001ec05 	andeq	lr, r1, r5, lsl #24
    2230:	08010300 	stmdaeq	r1, {r8, r9}
    2234:	000000c0 	andeq	r0, r0, r0, asr #1
    2238:	e6070203 	str	r0, [r7], -r3, lsl #4
    223c:	03000000 	movweq	r0, #0
    2240:	01b80704 			; <UNDEFINED> instruction: 0x01b80704
    2244:	08030000 	stmdaeq	r3, {}	; <UNPREDICTABLE>
    2248:	0001b307 	andeq	fp, r1, r7, lsl #6
    224c:	07040300 	streq	r0, [r4, -r0, lsl #6]
    2250:	000001e3 	andeq	r0, r0, r3, ror #3
    2254:	c9080103 	stmdbgt	r8, {r0, r1, r8}
    2258:	04000000 	streq	r0, [r0], #-0
    225c:	00007f04 	andeq	r7, r0, r4, lsl #30
    2260:	00720500 	rsbseq	r0, r2, r0, lsl #10
    2264:	28060000 	stmdacs	r6, {}	; <UNPREDICTABLE>
    2268:	01000006 	tsteq	r0, r6
    226c:	00002504 	andeq	r2, r0, r4, lsl #10
    2270:	008e8800 	addeq	r8, lr, r0, lsl #16
    2274:	00003400 	andeq	r3, r0, r0, lsl #8
    2278:	ab9c0100 	blge	fe702680 <__bss_end__+0xfe6f8050>
    227c:	07000000 	streq	r0, [r0, -r0]
    2280:	04010070 	streq	r0, [r1], #-112	; 0x70
    2284:	00000079 	andeq	r0, r0, r9, ror r0
    2288:	0000064f 	andeq	r0, r0, pc, asr #12
    228c:	00250800 	eoreq	r0, r5, r0, lsl #16
    2290:	00ba0000 	adcseq	r0, sl, r0
    2294:	25090000 	strcs	r0, [r9, #-0]
    2298:	00000000 	andeq	r0, r0, r0
    229c:	0005f40a 	andeq	pc, r5, sl, lsl #8
    22a0:	c51d0200 	ldrgt	r0, [sp, #-512]	; 0x200
    22a4:	04000000 	streq	r0, [r0], #-0
    22a8:	0000ab04 	andeq	sl, r0, r4, lsl #22
    22ac:	00250800 	eoreq	r0, r5, r0, lsl #16
    22b0:	00da0000 	sbcseq	r0, sl, r0
    22b4:	79090000 	stmdbvc	r9, {}	; <UNPREDICTABLE>
    22b8:	00000000 	andeq	r0, r0, r0
    22bc:	0006310b 	andeq	r3, r6, fp, lsl #2
    22c0:	eb0c0100 	bl	3026c8 <__bss_end__+0x2f8098>
    22c4:	05000000 	streq	r0, [r0, #-0]
    22c8:	009a0403 	addseq	r0, sl, r3, lsl #8
    22cc:	cb040400 	blgt	1032d4 <__bss_end__+0xf8ca4>
    22d0:	00000000 	andeq	r0, r0, r0
    22d4:	000006e5 	andeq	r0, r0, r5, ror #13
    22d8:	09d20004 	ldmibeq	r2, {r2}^
    22dc:	01040000 	mrseq	r0, (UNDEF: 4)
    22e0:	00000523 	andeq	r0, r0, r3, lsr #10
    22e4:	00066701 	andeq	r6, r6, r1, lsl #14
    22e8:	00058e00 	andeq	r8, r5, r0, lsl #28
    22ec:	008ebc00 	addeq	fp, lr, r0, lsl #24
    22f0:	00057800 	andeq	r7, r5, r0, lsl #16
    22f4:	00080800 	andeq	r0, r8, r0, lsl #16
    22f8:	05040200 	streq	r0, [r4, #-512]	; 0x200
    22fc:	00746e69 	rsbseq	r6, r4, r9, ror #28
    2300:	bd070403 	cfstrslt	mvf0, [r7, #-12]
    2304:	03000001 	movweq	r0, #1
    2308:	00c20601 	sbceq	r0, r2, r1, lsl #12
    230c:	02030000 	andeq	r0, r3, #0
    2310:	00000f05 	andeq	r0, r0, r5, lsl #30
    2314:	05040300 	streq	r0, [r4, #-768]	; 0x300
    2318:	000001f1 	strdeq	r0, [r0], -r1
    231c:	ec050803 	stc	8, cr0, [r5], {3}
    2320:	03000001 	movweq	r0, #1
    2324:	00c00801 	sbceq	r0, r0, r1, lsl #16
    2328:	02030000 	andeq	r0, r3, #0
    232c:	0000e607 	andeq	lr, r0, r7, lsl #12
    2330:	07040300 	streq	r0, [r4, -r0, lsl #6]
    2334:	000001b8 			; <UNDEFINED> instruction: 0x000001b8
    2338:	b3070803 	movwlt	r0, #30723	; 0x7803
    233c:	03000001 	movweq	r0, #1
    2340:	01e30704 	mvneq	r0, r4, lsl #14
    2344:	04040000 	streq	r0, [r4], #-0
    2348:	007a0405 	rsbseq	r0, sl, r5, lsl #8
    234c:	01030000 	mrseq	r0, (UNDEF: 3)
    2350:	0000c908 	andeq	ip, r0, r8, lsl #18
    2354:	87040500 	strhi	r0, [r4, -r0, lsl #10]
    2358:	06000000 	streq	r0, [r0], -r0
    235c:	0000007a 	andeq	r0, r0, sl, ror r0
    2360:	00050607 	andeq	r0, r5, r7, lsl #12
    2364:	97280200 	strls	r0, [r8, -r0, lsl #4]!
    2368:	08000000 	stmdaeq	r0, {}	; <UNPREDICTABLE>
    236c:	00000584 	andeq	r0, r0, r4, lsl #11
    2370:	ae000404 	cdpge	4, 0, cr0, cr0, cr4, {0}
    2374:	09000000 	stmdbeq	r0, {}	; <UNPREDICTABLE>
    2378:	000005d4 	ldrdeq	r0, [r0], -r4
    237c:	00000072 	andeq	r0, r0, r2, ror r0
    2380:	86070000 	strhi	r0, [r7], -r0
    2384:	02000005 	andeq	r0, r0, #5
    2388:	00008c62 	andeq	r8, r0, r2, ror #24
    238c:	064e0a00 	strbeq	r0, [lr], -r0, lsl #20
    2390:	27010000 	strcs	r0, [r1, -r0]
    2394:	00000025 	andeq	r0, r0, r5, lsr #32
    2398:	00008ebc 			; <UNDEFINED> instruction: 0x00008ebc
    239c:	00000014 	andeq	r0, r0, r4, lsl r0
    23a0:	00e09c01 	rsceq	r9, r0, r1, lsl #24
    23a4:	630b0000 	movwvs	r0, #45056	; 0xb000
    23a8:	25270100 	strcs	r0, [r7, #-256]!	; 0x100
    23ac:	6d000000 	stcvs	0, cr0, [r0, #-0]
    23b0:	00000006 	andeq	r0, r0, r6
    23b4:	6461700c 	strbtvs	r7, [r1], #-12
    23b8:	742e0100 	strtvc	r0, [lr], #-256	; 0x100
    23bc:	d0000000 	andle	r0, r0, r0
    23c0:	2c00008e 	stccs	0, cr0, [r0], {142}	; 0x8e
    23c4:	01000000 	mrseq	r0, (UNDEF: 0)
    23c8:	0001309c 	muleq	r1, ip, r0
    23cc:	00700b00 	rsbseq	r0, r0, r0, lsl #22
    23d0:	00742e01 	rsbseq	r2, r4, r1, lsl #28
    23d4:	069b0000 	ldreq	r0, [fp], r0
    23d8:	6e0d0000 	cdpvs	0, 0, cr0, cr13, cr0, {0}
    23dc:	0100000a 	tsteq	r0, sl
    23e0:	0000742e 	andeq	r7, r0, lr, lsr #8
    23e4:	0006c600 	andeq	ip, r6, r0, lsl #12
    23e8:	06870e00 	streq	r0, [r7], r0, lsl #28
    23ec:	2e010000 	cdpcs	0, 0, cr0, cr1, cr0, {0}
    23f0:	00000025 	andeq	r0, r0, r5, lsr #32
    23f4:	6c0f5201 	sfmvs	f5, 4, [pc], {1}
    23f8:	01006e65 	tsteq	r0, r5, ror #28
    23fc:	0000252f 	andeq	r2, r0, pc, lsr #10
    2400:	00510100 	subseq	r0, r1, r0, lsl #2
    2404:	0006460a 	andeq	r4, r6, sl, lsl #12
    2408:	74370100 	ldrtvc	r0, [r7], #-256	; 0x100
    240c:	fc000000 	stc2	0, cr0, [r0], {-0}
    2410:	4000008e 	andmi	r0, r0, lr, lsl #1
    2414:	01000000 	mrseq	r0, (UNDEF: 0)
    2418:	00019c9c 	muleq	r1, ip, ip
    241c:	73640b00 	cmnvc	r4, #0, 22
    2420:	37010074 	smlsdxcc	r1, r4, r0, r0
    2424:	00000074 	andeq	r0, r0, r4, ror r0
    2428:	000006e7 	andeq	r0, r0, r7, ror #13
    242c:	01006e0b 	tsteq	r0, fp, lsl #28
    2430:	00002537 	andeq	r2, r0, r7, lsr r5
    2434:	00071f00 	andeq	r1, r7, r0, lsl #30
    2438:	00700b00 	rsbseq	r0, r0, r0, lsl #22
    243c:	00743701 	rsbseq	r3, r4, r1, lsl #14
    2440:	07400000 	strbeq	r0, [r0, -r0]
    2444:	3a0d0000 	bcc	34244c <__bss_end__+0x337e1c>
    2448:	01000006 	tsteq	r0, r6
    244c:	00007437 	andeq	r7, r0, r7, lsr r4
    2450:	00077600 	andeq	r7, r7, r0, lsl #12
    2454:	656c1000 	strbvs	r1, [ip, #-0]!
    2458:	3901006e 	stmdbcc	r1, {r1, r2, r3, r5, r6}
    245c:	00000025 	andeq	r0, r0, r5, lsr #32
    2460:	00000794 	muleq	r0, r4, r7
    2464:	0100730f 	tsteq	r0, pc, lsl #6
    2468:	0000743d 	andeq	r7, r0, sp, lsr r4
    246c:	00500100 	subseq	r0, r0, r0, lsl #2
    2470:	0006950a 	andeq	r9, r6, sl, lsl #10
    2474:	74470100 	strbvc	r0, [r7], #-256	; 0x100
    2478:	3c000000 	stccc	0, cr0, [r0], {-0}
    247c:	bc00008f 	stclt	0, cr0, [r0], {143}	; 0x8f
    2480:	01000001 	tsteq	r0, r1
    2484:	0002df9c 	muleq	r2, ip, pc	; <UNPREDICTABLE>
    2488:	0a6e0d00 	beq	1b85890 <__bss_end__+0x1b7b260>
    248c:	47010000 	strmi	r0, [r1, -r0]
    2490:	0000002c 	andeq	r0, r0, ip, lsr #32
    2494:	000007bb 			; <UNDEFINED> instruction: 0x000007bb
    2498:	7473640b 	ldrbtvc	r6, [r3], #-1035	; 0x40b
    249c:	74470100 	strbvc	r0, [r7], #-256	; 0x100
    24a0:	e9000000 	stmdb	r0, {}	; <UNPREDICTABLE>
    24a4:	0b000007 	bleq	24c8 <__code_start__-0x5b38>
    24a8:	4701006e 	strmi	r0, [r1, -lr, rrx]
    24ac:	00000025 	andeq	r0, r0, r5, lsr #32
    24b0:	00000857 	andeq	r0, r0, r7, asr r8
    24b4:	6c61760b 	stclvs	6, cr7, [r1], #-44	; 0xffffffd4
    24b8:	25470100 	strbcs	r0, [r7, #-256]	; 0x100
    24bc:	83000000 	movwhi	r0, #0
    24c0:	0d000008 	stceq	0, cr0, [r0, #-32]	; 0xffffffe0
    24c4:	00000687 	andeq	r0, r0, r7, lsl #13
    24c8:	00254701 	eoreq	r4, r5, r1, lsl #14
    24cc:	09020000 	stmdbeq	r2, {}	; <UNPREDICTABLE>
    24d0:	5e0e0000 	cdppl	0, 0, cr0, cr14, cr0, {0}
    24d4:	01000006 	tsteq	r0, r6
    24d8:	00002547 	andeq	r2, r0, r7, asr #10
    24dc:	04910200 	ldreq	r0, [r1], #512	; 0x200
    24e0:	6675620f 	ldrbtvs	r6, [r5], -pc, lsl #4
    24e4:	df4c0100 	svcle	0x004c0100
    24e8:	03000002 	movweq	r0, #2
    24ec:	107fa891 			; <UNDEFINED> instruction: 0x107fa891
    24f0:	4c010070 	stcmi	0, cr0, [r1], {112}	; 0x70
    24f4:	00000074 	andeq	r0, r0, r4, ror r0
    24f8:	0000092c 	andeq	r0, r0, ip, lsr #18
    24fc:	01007510 	tsteq	r0, r0, lsl r5
    2500:	00002c4d 	andeq	r2, r0, sp, asr #24
    2504:	000a1600 	andeq	r1, sl, r0, lsl #12
    2508:	01101100 	tsteq	r0, r0, lsl #2
    250c:	02ff0000 	rscseq	r0, pc, #0
    2510:	03050000 	movweq	r0, #20480	; 0x5000
    2514:	0000a000 	andeq	sl, r0, r0
    2518:	008fa812 	addeq	sl, pc, r2, lsl r8	; <UNPREDICTABLE>
    251c:	00007400 	andeq	r7, r0, r0, lsl #8
    2520:	00026100 	andeq	r6, r2, r0, lsl #2
    2524:	06401300 	strbeq	r1, [r0], -r0, lsl #6
    2528:	52010000 	andpl	r0, r1, #0
    252c:	0000002c 	andeq	r0, r0, ip, lsr #32
    2530:	00000ad9 	ldrdeq	r0, [r0], -r9
    2534:	90941400 	addsls	r1, r4, r0, lsl #8
    2538:	06c40000 	strbeq	r0, [r4], r0
    253c:	b0150000 	andslt	r0, r5, r0
    2540:	cb000090 	blgt	2788 <__code_start__-0x5878>
    2544:	a3000006 	movwge	r0, #6
    2548:	16000002 	strne	r0, [r0], -r2
    254c:	08025301 	stmdaeq	r2, {r0, r8, r9, ip, lr}
    2550:	52011677 	andpl	r1, r1, #124780544	; 0x7700000
    2554:	a0000305 	andge	r0, r0, r5, lsl #6
    2558:	01160000 	tsteq	r6, r0
    255c:	24030551 	strcs	r0, [r3], #-1361	; 0x551
    2560:	160000a0 	strne	r0, [r0], -r0, lsr #1
    2564:	03055001 	movweq	r5, #20481	; 0x5001
    2568:	00009a08 	andeq	r9, r0, r8, lsl #20
    256c:	007d0216 	rsbseq	r0, sp, r6, lsl r2
    2570:	a0380305 	eorsge	r0, r8, r5, lsl #6
    2574:	14000000 	strne	r0, [r0], #-0
    2578:	000090b4 	strheq	r9, [r0], -r4
    257c:	000006e1 	andeq	r0, r0, r1, ror #13
    2580:	0090bc15 	addseq	fp, r0, r5, lsl ip
    2584:	0000e000 	andeq	lr, r0, r0
    2588:	0002c100 	andeq	ip, r2, r0, lsl #2
    258c:	51011600 	tstpl	r1, r0, lsl #12
    2590:	7fa09103 	svcvc	0x00a09103
    2594:	90d01700 	sbcsls	r1, r0, r0, lsl #14
    2598:	01300000 	teqeq	r0, r0
    259c:	01160000 	tsteq	r6, r0
    25a0:	a0910353 	addsge	r0, r1, r3, asr r3
    25a4:	5101167f 	tstpl	r1, pc, ror r6
    25a8:	16007402 	strne	r7, [r0], -r2, lsl #8
    25ac:	75025001 	strvc	r5, [r2, #-1]
    25b0:	18000000 	stmdane	r0, {}	; <UNPREDICTABLE>
    25b4:	0000007a 	andeq	r0, r0, sl, ror r0
    25b8:	000002ef 	andeq	r0, r0, pc, ror #5
    25bc:	00006b19 	andeq	r6, r0, r9, lsl fp
    25c0:	18003f00 	stmdane	r0, {r8, r9, sl, fp, ip, sp}
    25c4:	0000007a 	andeq	r0, r0, sl, ror r0
    25c8:	000002ff 	strdeq	r0, [r0], -pc	; <UNPREDICTABLE>
    25cc:	00006b19 	andeq	r6, r0, r9, lsl fp
    25d0:	06000400 	streq	r0, [r0], -r0, lsl #8
    25d4:	000002ef 	andeq	r0, r0, pc, ror #5
    25d8:	0006781a 	andeq	r7, r6, sl, lsl r8
    25dc:	f81f0100 			; <UNDEFINED> instruction: 0xf81f0100
    25e0:	68000090 	stmdavs	r0, {r4, r7}
    25e4:	01000000 	mrseq	r0, (UNDEF: 0)
    25e8:	0003929c 	muleq	r3, ip, r2
    25ec:	068d0d00 	streq	r0, [sp], r0, lsl #26
    25f0:	1f010000 	svcne	0x00010000
    25f4:	000003a1 	andeq	r0, r0, r1, lsr #7
    25f8:	00000b05 	andeq	r0, r0, r5, lsl #22
    25fc:	0006560d 	andeq	r5, r6, sp, lsl #12
    2600:	b61f0100 	ldrlt	r0, [pc], -r0, lsl #2
    2604:	31000003 	tstcc	r0, r3
    2608:	1100000b 	tstne	r0, fp
    260c:	00000110 	andeq	r0, r0, r0, lsl r1
    2610:	000003cc 	andeq	r0, r0, ip, asr #7
    2614:	a0080305 	andge	r0, r8, r5, lsl #6
    2618:	0c140000 	ldceq	0, cr0, [r4], {-0}
    261c:	c4000091 	strgt	r0, [r0], #-145	; 0x91
    2620:	15000006 	strne	r0, [r0, #-6]
    2624:	00009128 	andeq	r9, r0, r8, lsr #2
    2628:	000006cb 	andeq	r0, r0, fp, asr #13
    262c:	00000388 	andeq	r0, r0, r8, lsl #7
    2630:	02530116 	subseq	r0, r3, #-2147483643	; 0x80000005
    2634:	01162008 	tsteq	r6, r8
    2638:	08030552 	stmdaeq	r3, {r1, r4, r6, r8, sl}
    263c:	160000a0 	strne	r0, [r0], -r0, lsr #1
    2640:	03055101 	movweq	r5, #20737	; 0x5101
    2644:	0000a024 	andeq	sl, r0, r4, lsr #32
    2648:	05500116 	ldrbeq	r0, [r0, #-278]	; 0x116
    264c:	009a0803 	addseq	r0, sl, r3, lsl #16
    2650:	7d021600 	stcvc	6, cr1, [r2, #-0]
    2654:	60030500 	andvs	r0, r3, r0, lsl #10
    2658:	000000a0 	andeq	r0, r0, r0, lsr #1
    265c:	00912c14 	addseq	r2, r1, r4, lsl ip
    2660:	0006e100 	andeq	lr, r6, r0, lsl #2
    2664:	251b0000 	ldrcs	r0, [fp, #-0]
    2668:	a1000000 	mrsge	r0, (UNDEF: 0)
    266c:	1c000003 	stcne	0, cr0, [r0], {3}
    2670:	00000025 	andeq	r0, r0, r5, lsr #32
    2674:	92040500 	andls	r0, r4, #0, 10
    2678:	1b000003 	blne	268c <__code_start__-0x5974>
    267c:	00000025 	andeq	r0, r0, r5, lsr #32
    2680:	000003b6 			; <UNDEFINED> instruction: 0x000003b6
    2684:	0000811c 	andeq	r8, r0, ip, lsl r1
    2688:	04050000 	streq	r0, [r5], #-0
    268c:	000003a7 	andeq	r0, r0, r7, lsr #7
    2690:	00007a18 	andeq	r7, r0, r8, lsl sl
    2694:	0003cc00 	andeq	ip, r3, r0, lsl #24
    2698:	006b1900 	rsbeq	r1, fp, r0, lsl #18
    269c:	000e0000 	andeq	r0, lr, r0
    26a0:	0003bc06 	andeq	fp, r3, r6, lsl #24
    26a4:	057a1d00 	ldrbeq	r1, [sl, #-3328]!	; 0xd00
    26a8:	7f010000 	svcvc	0x00010000
    26ac:	00000025 	andeq	r0, r0, r5, lsr #32
    26b0:	00009160 	andeq	r9, r0, r0, ror #2
    26b4:	000002d4 	ldrdeq	r0, [r0], -r4
    26b8:	06899c01 	streq	r9, [r9], r1, lsl #24
    26bc:	620b0000 	andvs	r0, fp, #0
    26c0:	01006675 	tsteq	r0, r5, ror r6
    26c4:	0000747f 	andeq	r7, r0, pc, ror r4
    26c8:	000b5d00 	andeq	r5, fp, r0, lsl #26
    26cc:	006e0b00 	rsbeq	r0, lr, r0, lsl #22
    26d0:	00257f01 	eoreq	r7, r5, r1, lsl #30
    26d4:	0b890000 	bleq	fe2426dc <__bss_end__+0xfe2380ac>
    26d8:	660b0000 	strvs	r0, [fp], -r0
    26dc:	0100746d 	tsteq	r0, sp, ror #8
    26e0:	0000817f 	andeq	r8, r0, pc, ror r1
    26e4:	000bb700 	andeq	fp, fp, r0, lsl #14
    26e8:	0a900d00 	beq	fe405af0 <__bss_end__+0xfe3fb4c0>
    26ec:	7f010000 	svcvc	0x00010000
    26f0:	000000ae 	andeq	r0, r0, lr, lsr #1
    26f4:	00000bd5 	ldrdeq	r0, [r0], -r5
    26f8:	01007010 	tsteq	r0, r0, lsl r0
    26fc:	00007480 	andeq	r7, r0, r0, lsl #9
    2700:	000be800 	andeq	lr, fp, r0, lsl #16
    2704:	00651000 	rsbeq	r1, r5, r0
    2708:	00748001 	rsbseq	r8, r4, r1
    270c:	0c660000 	stcleq	0, cr0, [r6], #-0
    2710:	36130000 	ldrcc	r0, [r3], -r0
    2714:	01000006 	tsteq	r0, r6
    2718:	00008183 	andeq	r8, r0, r3, lsl #3
    271c:	000c8d00 	andeq	r8, ip, r0, lsl #26
    2720:	01101100 	tsteq	r0, r0, lsl #2
    2724:	06990000 	ldreq	r0, [r9], r0
    2728:	03050000 	movweq	r0, #20480	; 0x5000
    272c:	0000a018 	andeq	sl, r0, r8, lsl r0
    2730:	0091bc1e 	addseq	fp, r1, lr, lsl ip
    2734:	00022c00 	andeq	r2, r2, r0, lsl #24
    2738:	00731000 	rsbseq	r1, r3, r0
    273c:	00748e01 	rsbseq	r8, r4, r1, lsl #28
    2740:	0cad0000 	stceq	0, cr0, [sp]
    2744:	6e0f0000 	cdpvs	0, 0, cr0, cr15, cr0, {0}
    2748:	01006d75 	tsteq	r0, r5, ror sp
    274c:	00069e8e 	andeq	r9, r6, lr, lsl #29
    2750:	d8910300 	ldmle	r1, {r8, r9}
    2754:	0687137e 			; <UNDEFINED> instruction: 0x0687137e
    2758:	8f010000 	svchi	0x00010000
    275c:	0000002c 	andeq	r0, r0, ip, lsr #32
    2760:	00000d02 	andeq	r0, r0, r2, lsl #26
    2764:	0091ec15 	addseq	lr, r1, r5, lsl ip
    2768:	0000b900 	andeq	fp, r0, r0, lsl #18
    276c:	0004a400 	andeq	sl, r4, r0, lsl #8
    2770:	50011600 	andpl	r1, r1, r0, lsl #12
    2774:	00007502 	andeq	r7, r0, r2, lsl #10
    2778:	00920014 	addseq	r0, r2, r4, lsl r0
    277c:	0006c400 	andeq	ip, r6, r0, lsl #8
    2780:	921c1500 	andsls	r1, ip, #0, 10
    2784:	06cb0000 	strbeq	r0, [fp], r0
    2788:	04e60000 	strbteq	r0, [r6], #0
    278c:	01160000 	tsteq	r6, r0
    2790:	95080253 	strls	r0, [r8, #-595]	; 0x253
    2794:	05520116 	ldrbeq	r0, [r2, #-278]	; 0x116
    2798:	00a01803 	adceq	r1, r0, r3, lsl #16
    279c:	51011600 	tstpl	r1, r0, lsl #12
    27a0:	a0240305 	eorge	r0, r4, r5, lsl #6
    27a4:	01160000 	tsteq	r6, r0
    27a8:	08030550 	stmdaeq	r3, {r4, r6, r8, sl}
    27ac:	1600009a 			; <UNDEFINED> instruction: 0x1600009a
    27b0:	05007d02 	streq	r7, [r0, #-3330]	; 0xd02
    27b4:	00a06803 	adceq	r6, r0, r3, lsl #16
    27b8:	20140000 	andscs	r0, r4, r0
    27bc:	e1000092 	swp	r0, r2, [r0]	; <UNPREDICTABLE>
    27c0:	14000006 	strne	r0, [r0], #-6
    27c4:	00009290 	muleq	r0, r0, r2
    27c8:	000006c4 	andeq	r0, r0, r4, asr #13
    27cc:	0092a415 	addseq	sl, r2, r5, lsl r4
    27d0:	0006cb00 	andeq	ip, r6, r0, lsl #22
    27d4:	00052700 	andeq	r2, r5, r0, lsl #14
    27d8:	53011600 	movwpl	r1, #5632	; 0x1600
    27dc:	169b0802 	ldrne	r0, [fp], r2, lsl #16
    27e0:	03055201 	movweq	r5, #20993	; 0x5201
    27e4:	0000a018 	andeq	sl, r0, r8, lsl r0
    27e8:	05510116 	ldrbeq	r0, [r1, #-278]	; 0x116
    27ec:	00a02403 	adceq	r2, r0, r3, lsl #8
    27f0:	50011600 	andpl	r1, r1, r0, lsl #12
    27f4:	a0740305 	rsbsge	r0, r4, r5, lsl #6
    27f8:	14000000 	strne	r0, [r0], #-0
    27fc:	000092a8 	andeq	r9, r0, r8, lsr #5
    2800:	000006e1 	andeq	r0, r0, r1, ror #13
    2804:	0092cc15 	addseq	ip, r2, r5, lsl ip
    2808:	00019c00 	andeq	r9, r1, r0, lsl #24
    280c:	00055d00 	andeq	r5, r5, r0, lsl #26
    2810:	52011600 	andpl	r1, r1, #0, 12
    2814:	16800802 	strne	r0, [r0], r2, lsl #16
    2818:	91035101 	tstls	r3, r1, lsl #2
    281c:	01167ed0 			; <UNDEFINED> instruction: 0x01167ed0
    2820:	163a0150 			; <UNDEFINED> instruction: 0x163a0150
    2824:	01047d02 	tsteq	r4, r2, lsl #26
    2828:	7d021631 	stcvc	6, cr1, [r2, #-196]	; 0xffffff3c
    282c:	00770200 	rsbseq	r0, r7, r0, lsl #4
    2830:	92f41500 	rscsls	r1, r4, #0, 10
    2834:	019c0000 	orrseq	r0, ip, r0
    2838:	058a0000 	streq	r0, [sl]
    283c:	01160000 	tsteq	r6, r0
    2840:	80080252 	andhi	r0, r8, r2, asr r2
    2844:	03510116 	cmpeq	r1, #-2147483643	; 0x80000005
    2848:	167ed091 			; <UNDEFINED> instruction: 0x167ed091
    284c:	3a015001 	bcc	56858 <__bss_end__+0x4c228>
    2850:	047d0216 	ldrbteq	r0, [sp], #-534	; 0x216
    2854:	02163001 	andseq	r3, r6, #1
    2858:	7702007d 	smlsdxvc	r2, sp, r0, r0
    285c:	1c150000 	ldcne	0, cr0, [r5], {-0}
    2860:	9c000093 	stcls	0, cr0, [r0], {147}	; 0x93
    2864:	b7000001 	strlt	r0, [r0, -r1]
    2868:	16000005 	strne	r0, [r0], -r5
    286c:	08025201 	stmdaeq	r2, {r0, r9, ip, lr}
    2870:	51011680 	smlabbpl	r1, r0, r6, r1
    2874:	7ed09103 	atnvcs	f1, f3
    2878:	01500116 	cmpeq	r0, r6, lsl r1
    287c:	7d021640 	stcvc	6, cr1, [r2, #-256]	; 0xffffff00
    2880:	16300104 	ldrtne	r0, [r0], -r4, lsl #2
    2884:	02007d02 	andeq	r7, r0, #2, 26	; 0x80
    2888:	15000077 	strne	r0, [r0, #-119]	; 0x77
    288c:	00009344 	andeq	r9, r0, r4, asr #6
    2890:	0000019c 	muleq	r0, ip, r1
    2894:	000005e4 	andeq	r0, r0, r4, ror #11
    2898:	02520116 	subseq	r0, r2, #-2147483643	; 0x80000005
    289c:	01168008 	tsteq	r6, r8
    28a0:	d0910351 	addsle	r0, r1, r1, asr r3
    28a4:	5001167e 	andpl	r1, r1, lr, ror r6
    28a8:	02163201 	andseq	r3, r6, #268435456	; 0x10000000
    28ac:	3001047d 	andcc	r0, r1, sp, ror r4
    28b0:	007d0216 	rsbseq	r0, sp, r6, lsl r2
    28b4:	00007702 	andeq	r7, r0, r2, lsl #14
    28b8:	00937815 	addseq	r7, r3, r5, lsl r8
    28bc:	00019c00 	andeq	r9, r1, r0, lsl #24
    28c0:	00061100 	andeq	r1, r6, r0, lsl #2
    28c4:	52011600 	andpl	r1, r1, #0, 12
    28c8:	16800802 	strne	r0, [r0], r2, lsl #16
    28cc:	91035101 	tstls	r3, r1, lsl #2
    28d0:	01167ed0 			; <UNDEFINED> instruction: 0x01167ed0
    28d4:	16380150 			; <UNDEFINED> instruction: 0x16380150
    28d8:	01047d02 	tsteq	r4, r2, lsl #26
    28dc:	7d021630 	stcvc	6, cr1, [r2, #-192]	; 0xffffff40
    28e0:	00770200 	rsbseq	r0, r7, r0, lsl #4
    28e4:	93941500 	orrsls	r1, r4, #0, 10
    28e8:	06cb0000 	strbeq	r0, [fp], r0
    28ec:	06340000 	ldrteq	r0, [r4], -r0
    28f0:	01160000 	tsteq	r6, r0
    28f4:	00790252 	rsbseq	r0, r9, r2, asr r2
    28f8:	02510116 	subseq	r0, r1, #-2147483643	; 0x80000005
    28fc:	01160079 	tsteq	r6, r9, ror r0
    2900:	9c030550 	cfstr32ls	mvfx0, [r3], {80}	; 0x50
    2904:	000000a0 	andeq	r0, r0, r0, lsr #1
    2908:	0093a41f 	addseq	sl, r3, pc, lsl r4
    290c:	00064600 	andeq	r4, r6, r0, lsl #12
    2910:	50011600 	andpl	r1, r1, r0, lsl #12
    2914:	7ecc9104 	acsvce	f1, f4
    2918:	a8140006 	ldmdage	r4, {r1, r2}
    291c:	c4000093 	strgt	r0, [r0], #-147	; 0x93
    2920:	15000006 	strne	r0, [r0, #-6]
    2924:	000093bc 			; <UNDEFINED> instruction: 0x000093bc
    2928:	000006cb 	andeq	r0, r0, fp, asr #13
    292c:	0000067e 	andeq	r0, r0, lr, ror r6
    2930:	02530116 	subseq	r0, r3, #-2147483643	; 0x80000005
    2934:	0116bf08 	tsteq	r6, r8, lsl #30
    2938:	18030552 	stmdane	r3, {r1, r4, r6, r8, sl}
    293c:	160000a0 	strne	r0, [r0], -r0, lsr #1
    2940:	03055101 	movweq	r5, #20737	; 0x5101
    2944:	0000a024 	andeq	sl, r0, r4, lsr #32
    2948:	05500116 	ldrbeq	r0, [r0, #-278]	; 0x116
    294c:	00a0cc03 	adceq	ip, r0, r3, lsl #24
    2950:	c0140000 	andsgt	r0, r4, r0
    2954:	e1000093 	swp	r0, r3, [r0]	; <UNPREDICTABLE>
    2958:	00000006 	andeq	r0, r0, r6
    295c:	007a1800 	rsbseq	r1, sl, r0, lsl #16
    2960:	06990000 	ldreq	r0, [r9], r0
    2964:	6b190000 	blvs	64296c <__bss_end__+0x63833c>
    2968:	09000000 	stmdbeq	r0, {}	; <UNPREDICTABLE>
    296c:	06890600 	streq	r0, [r9], r0, lsl #12
    2970:	7a180000 	bvc	602978 <__bss_end__+0x5f8348>
    2974:	ae000000 	cdpge	0, 0, cr0, cr0, cr0, {0}
    2978:	19000006 	stmdbne	r0, {r1, r2}
    297c:	0000006b 	andeq	r0, r0, fp, rrx
    2980:	f420007f 	vld4.16	{d0-d3}, [r0 :256]
    2984:	03000005 	movweq	r0, #5
    2988:	0003a11d 	andeq	sl, r3, sp, lsl r1
    298c:	06312000 	ldrteq	r2, [r1], -r0
    2990:	22030000 	andcs	r0, r3, #0
    2994:	000003b6 			; <UNDEFINED> instruction: 0x000003b6
    2998:	00022a21 	andeq	r2, r2, r1, lsr #20
    299c:	221e0300 	andscs	r0, lr, #0, 6
    29a0:	0000057d 	andeq	r0, r0, sp, ror r5
    29a4:	00252903 	eoreq	r2, r5, r3, lsl #18
    29a8:	06e10000 	strbteq	r0, [r1], r0
    29ac:	811c0000 	tsthi	ip, r0
    29b0:	23000000 	movwcs	r0, #0
    29b4:	00ce2100 	sbceq	r2, lr, r0, lsl #2
    29b8:	65030000 	strvs	r0, [r3, #-0]
    29bc:	0000b800 	andeq	fp, r0, r0, lsl #16
    29c0:	bb000400 	bllt	39c8 <__code_start__-0x4638>
    29c4:	0400000b 	streq	r0, [r0], #-11
    29c8:	00052301 	andeq	r2, r5, r1, lsl #6
    29cc:	06a80100 	strteq	r0, [r8], r0, lsl #2
    29d0:	058e0000 	streq	r0, [lr]
    29d4:	94340000 	ldrtls	r0, [r4], #-0
    29d8:	00200000 	eoreq	r0, r0, r0
    29dc:	09fd0000 	ldmibeq	sp!, {}^	; <UNPREDICTABLE>
    29e0:	04020000 	streq	r0, [r2], #-0
    29e4:	746e6905 	strbtvc	r6, [lr], #-2309	; 0x905
    29e8:	07040300 	streq	r0, [r4, -r0, lsl #6]
    29ec:	000001bd 			; <UNDEFINED> instruction: 0x000001bd
    29f0:	c2060103 	andgt	r0, r6, #-1073741824	; 0xc0000000
    29f4:	03000000 	movweq	r0, #0
    29f8:	000f0502 	andeq	r0, pc, r2, lsl #10
    29fc:	04030000 	streq	r0, [r3], #-0
    2a00:	0001f105 	andeq	pc, r1, r5, lsl #2
    2a04:	05080300 	streq	r0, [r8, #-768]	; 0x300
    2a08:	000001ec 	andeq	r0, r0, ip, ror #3
    2a0c:	c0080103 	andgt	r0, r8, r3, lsl #2
    2a10:	03000000 	movweq	r0, #0
    2a14:	00e60702 	rsceq	r0, r6, r2, lsl #14
    2a18:	04030000 	streq	r0, [r3], #-0
    2a1c:	0001b807 	andeq	fp, r1, r7, lsl #16
    2a20:	07080300 	streq	r0, [r8, -r0, lsl #6]
    2a24:	000001b3 			; <UNDEFINED> instruction: 0x000001b3
    2a28:	e3070403 	movw	r0, #29699	; 0x7403
    2a2c:	03000001 	movweq	r0, #1
    2a30:	00c90801 	sbceq	r0, r9, r1, lsl #16
    2a34:	0e040000 	cdpeq	0, 0, cr0, cr4, cr0, {0}
    2a38:	01000002 	tsteq	r0, r2
    2a3c:	00943403 	addseq	r3, r4, r3, lsl #8
    2a40:	00001000 	andeq	r1, r0, r0
    2a44:	9c9c0100 	ldflss	f0, [ip], {0}
    2a48:	05000000 	streq	r0, [r0, #-0]
    2a4c:	04010072 	streq	r0, [r1], #-114	; 0x72
    2a50:	0000002c 	andeq	r0, r0, ip, lsr #32
    2a54:	00000d2c 	andeq	r0, r0, ip, lsr #26
    2a58:	069a0600 	ldreq	r0, [sl], r0, lsl #12
    2a5c:	0c010000 	stceq	0, cr0, [r1], {-0}
    2a60:	00009444 	andeq	r9, r0, r4, asr #8
    2a64:	00000010 	andeq	r0, r0, r0, lsl r0
    2a68:	72059c01 	andvc	r9, r5, #256	; 0x100
    2a6c:	2c0d0100 	stfcss	f0, [sp], {-0}
    2a70:	50000000 	andpl	r0, r0, r0
    2a74:	0000000d 	andeq	r0, r0, sp
    2a78:	00010f00 	andeq	r0, r1, r0, lsl #30
    2a7c:	26000400 	strcs	r0, [r0], -r0, lsl #8
    2a80:	0400000c 	streq	r0, [r0], #-12
    2a84:	00052301 	andeq	r2, r5, r1, lsl #6
    2a88:	06c90100 	strbeq	r0, [r9], r0, lsl #2
    2a8c:	058e0000 	streq	r0, [lr]
    2a90:	94540000 	ldrbls	r0, [r4], #-0
    2a94:	002c0000 	eoreq	r0, ip, r0
    2a98:	0a430000 	beq	10c2aa0 <__bss_end__+0x10b8470>
    2a9c:	04020000 	streq	r0, [r2], #-0
    2aa0:	746e6905 	strbtvc	r6, [lr], #-2309	; 0x905
    2aa4:	07040300 	streq	r0, [r4, -r0, lsl #6]
    2aa8:	000001bd 			; <UNDEFINED> instruction: 0x000001bd
    2aac:	c2060103 	andgt	r0, r6, #-1073741824	; 0xc0000000
    2ab0:	03000000 	movweq	r0, #0
    2ab4:	000f0502 	andeq	r0, pc, r2, lsl #10
    2ab8:	04030000 	streq	r0, [r3], #-0
    2abc:	0001f105 	andeq	pc, r1, r5, lsl #2
    2ac0:	05080300 	streq	r0, [r8, #-768]	; 0x300
    2ac4:	000001ec 	andeq	r0, r0, ip, ror #3
    2ac8:	c0080103 	andgt	r0, r8, r3, lsl #2
    2acc:	03000000 	movweq	r0, #0
    2ad0:	00e60702 	rsceq	r0, r6, r2, lsl #14
    2ad4:	04030000 	streq	r0, [r3], #-0
    2ad8:	0001b807 	andeq	fp, r1, r7, lsl #16
    2adc:	07080300 	streq	r0, [r8, -r0, lsl #6]
    2ae0:	000001b3 			; <UNDEFINED> instruction: 0x000001b3
    2ae4:	e3070403 	movw	r0, #29699	; 0x7403
    2ae8:	03000001 	movweq	r0, #1
    2aec:	00c90801 	sbceq	r0, r9, r1, lsl #16
    2af0:	04040000 	streq	r0, [r4], #-0
    2af4:	0000007f 	andeq	r0, r0, pc, ror r0
    2af8:	00007205 	andeq	r7, r0, r5, lsl #4
    2afc:	00ce0600 	sbceq	r0, lr, r0, lsl #12
    2b00:	04010000 	streq	r0, [r1], #-0
    2b04:	00009454 	andeq	r9, r0, r4, asr r4
    2b08:	0000002c 	andeq	r0, r0, ip, lsr #32
    2b0c:	00d39c01 	sbcseq	r9, r3, r1, lsl #24
    2b10:	5c070000 	stcpl	0, cr0, [r7], {-0}
    2b14:	f3000094 	vqadd.u8	d0, d16, d4
    2b18:	08000000 	stmdaeq	r0, {}	; <UNPREDICTABLE>
    2b1c:	0000946c 	andeq	r9, r0, ip, ror #8
    2b20:	000000b5 	strheq	r0, [r0], -r5
    2b24:	05500109 	ldrbeq	r0, [r0, #-265]	; 0x109
    2b28:	00a0ec03 	adceq	lr, r0, r3, lsl #24
    2b2c:	740a0000 	strvc	r0, [sl], #-0
    2b30:	fa000094 	blx	2d88 <__code_start__-0x5278>
    2b34:	c9000000 	stmdbgt	r0, {}	; <UNPREDICTABLE>
    2b38:	09000000 	stmdbeq	r0, {}	; <UNPREDICTABLE>
    2b3c:	08025001 	stmdaeq	r2, {r0, ip, lr}
    2b40:	78070064 	stmdavc	r7, {r2, r5, r6}
    2b44:	0b000094 	bleq	2d9c <__code_start__-0x5264>
    2b48:	00000001 	andeq	r0, r0, r1
    2b4c:	0000250b 	andeq	r2, r0, fp, lsl #10
    2b50:	0000e200 	andeq	lr, r0, r0, lsl #4
    2b54:	00790c00 	rsbseq	r0, r9, r0, lsl #24
    2b58:	0d000000 	stceq	0, cr0, [r0, #-0]
    2b5c:	00000631 	andeq	r0, r0, r1, lsr r6
    2b60:	00ed2202 	rsceq	r2, sp, r2, lsl #4
    2b64:	04040000 	streq	r0, [r4], #-0
    2b68:	000000d3 	ldrdeq	r0, [r0], -r3
    2b6c:	0006ba0e 	andeq	fp, r6, lr, lsl #20
    2b70:	0fdc0200 	svceq	0x00dc0200
    2b74:	000006ed 	andeq	r0, r0, sp, ror #13
    2b78:	010b4f02 	tsteq	fp, r2, lsl #30
    2b7c:	2c0c0000 	stccs	0, cr0, [ip], {-0}
    2b80:	00000000 	andeq	r0, r0, r0
    2b84:	0006e20e 	andeq	lr, r6, lr, lsl #4
    2b88:	00620200 	rsbeq	r0, r2, r0, lsl #4
    2b8c:	0000010f 	andeq	r0, r0, pc, lsl #2
    2b90:	0cf00004 	ldcleq	0, cr0, [r0], #16
    2b94:	01040000 	mrseq	r0, (UNDEF: 4)
    2b98:	00000523 	andeq	r0, r0, r3, lsr #10
    2b9c:	00072f01 	andeq	r2, r7, r1, lsl #30
    2ba0:	00058e00 	andeq	r8, r5, r0, lsl #28
    2ba4:	00948000 	addseq	r8, r4, r0
    2ba8:	00003800 	andeq	r3, r0, r0, lsl #16
    2bac:	000ae400 	andeq	lr, sl, r0, lsl #8
    2bb0:	05040200 	streq	r0, [r4, #-512]	; 0x200
    2bb4:	00746e69 	rsbseq	r6, r4, r9, ror #28
    2bb8:	bd070403 	cfstrslt	mvf0, [r7, #-12]
    2bbc:	03000001 	movweq	r0, #1
    2bc0:	00c20601 	sbceq	r0, r2, r1, lsl #12
    2bc4:	02030000 	andeq	r0, r3, #0
    2bc8:	00000f05 	andeq	r0, r0, r5, lsl #30
    2bcc:	05040300 	streq	r0, [r4, #-768]	; 0x300
    2bd0:	000001f1 	strdeq	r0, [r0], -r1
    2bd4:	ec050803 	stc	8, cr0, [r5], {3}
    2bd8:	03000001 	movweq	r0, #1
    2bdc:	00c00801 	sbceq	r0, r0, r1, lsl #16
    2be0:	02030000 	andeq	r0, r3, #0
    2be4:	0000e607 	andeq	lr, r0, r7, lsl #12
    2be8:	07040300 	streq	r0, [r4, -r0, lsl #6]
    2bec:	000001b8 			; <UNDEFINED> instruction: 0x000001b8
    2bf0:	b3070803 	movwlt	r0, #30723	; 0x7803
    2bf4:	03000001 	movweq	r0, #1
    2bf8:	01e30704 	mvneq	r0, r4, lsl #14
    2bfc:	01030000 	mrseq	r0, (UNDEF: 3)
    2c00:	0000c908 	andeq	ip, r0, r8, lsl #18
    2c04:	07270400 	streq	r0, [r7, -r0, lsl #8]!
    2c08:	0d010000 	stceq	0, cr0, [r1, #-0]
    2c0c:	00009480 	andeq	r9, r0, r0, lsl #9
    2c10:	00000038 	andeq	r0, r0, r8, lsr r0
    2c14:	00e19c01 	rsceq	r9, r1, r1, lsl #24
    2c18:	f6050000 			; <UNDEFINED> instruction: 0xf6050000
    2c1c:	01000006 	tsteq	r0, r6
    2c20:	0000250e 	andeq	r2, r0, lr, lsl #10
    2c24:	07040500 	streq	r0, [r4, -r0, lsl #10]
    2c28:	0e010000 	cdpeq	0, 0, cr0, cr1, cr0, {0}
    2c2c:	00000025 	andeq	r0, r0, r5, lsr #32
    2c30:	00008706 	andeq	r8, r0, r6, lsl #14
    2c34:	070f0100 	streq	r0, [pc, -r0, lsl #2]
    2c38:	00737362 	rsbseq	r7, r3, r2, ror #6
    2c3c:	00e11101 	rsceq	r1, r1, r1, lsl #2
    2c40:	0d740000 	ldcleq	0, cr0, [r4, #-0]
    2c44:	1f080000 	svcne	0x00080000
    2c48:	01000007 	tsteq	r0, r7
    2c4c:	0000e112 	andeq	lr, r0, r2, lsl r1
    2c50:	94a80900 	strtls	r0, [r8], #2304	; 0x900
    2c54:	00fd0000 	rscseq	r0, sp, r0
    2c58:	ac090000 	stcge	0, cr0, [r9], {-0}
    2c5c:	04000094 	streq	r0, [r0], #-148	; 0x94
    2c60:	09000001 	stmdbeq	r0, {r0}
    2c64:	000094b0 			; <UNDEFINED> instruction: 0x000094b0
    2c68:	0000010b 	andeq	r0, r0, fp, lsl #2
    2c6c:	25040a00 	strcs	r0, [r4, #-2560]	; 0xa00
    2c70:	05000000 	streq	r0, [r0, #-0]
    2c74:	000006f6 	strdeq	r0, [r0], -r6
    2c78:	00250e01 	eoreq	r0, r5, r1, lsl #28
    2c7c:	04050000 	streq	r0, [r5], #-0
    2c80:	01000007 	tsteq	r0, r7
    2c84:	0000250e 	andeq	r2, r0, lr, lsl #10
    2c88:	07100600 	ldreq	r0, [r0, -r0, lsl #12]
    2c8c:	da020000 	ble	82c94 <__bss_end__+0x78664>
    2c90:	00008706 	andeq	r8, r0, r6, lsl #14
    2c94:	06d70200 	ldrbeq	r0, [r7], r0, lsl #4
    2c98:	000000ce 	andeq	r0, r0, lr, asr #1
    2c9c:	3e006502 	cfsh32cc	mvfx6, mvfx0, #2
    2ca0:	04000001 	streq	r0, [r0], #-1
    2ca4:	000d8400 	andeq	r8, sp, r0, lsl #8
    2ca8:	23010400 	movwcs	r0, #5120	; 0x1400
    2cac:	01000005 	tsteq	r0, r5
    2cb0:	00000742 	andeq	r0, r0, r2, asr #14
    2cb4:	0000058e 	andeq	r0, r0, lr, lsl #11
    2cb8:	000094b8 			; <UNDEFINED> instruction: 0x000094b8
    2cbc:	00000044 	andeq	r0, r0, r4, asr #32
    2cc0:	00000b8e 	andeq	r0, r0, lr, lsl #23
    2cc4:	69050402 	stmdbvs	r5, {r1, sl}
    2cc8:	0300746e 	movweq	r7, #1134	; 0x46e
    2ccc:	01bd0704 			; <UNDEFINED> instruction: 0x01bd0704
    2cd0:	01030000 	mrseq	r0, (UNDEF: 3)
    2cd4:	0000c206 	andeq	ip, r0, r6, lsl #4
    2cd8:	05020300 	streq	r0, [r2, #-768]	; 0x300
    2cdc:	0000000f 	andeq	r0, r0, pc
    2ce0:	f1050403 			; <UNDEFINED> instruction: 0xf1050403
    2ce4:	03000001 	movweq	r0, #1
    2ce8:	01ec0508 	mvneq	r0, r8, lsl #10
    2cec:	01030000 	mrseq	r0, (UNDEF: 3)
    2cf0:	0000c008 	andeq	ip, r0, r8
    2cf4:	07020300 	streq	r0, [r2, -r0, lsl #6]
    2cf8:	000000e6 	andeq	r0, r0, r6, ror #1
    2cfc:	b8070403 	stmdalt	r7, {r0, r1, sl}
    2d00:	03000001 	movweq	r0, #1
    2d04:	01b30708 			; <UNDEFINED> instruction: 0x01b30708
    2d08:	04030000 	streq	r0, [r3], #-0
    2d0c:	0001e307 	andeq	lr, r1, r7, lsl #6
    2d10:	08010300 	stmdaeq	r1, {r8, r9}
    2d14:	000000c9 	andeq	r0, r0, r9, asr #1
    2d18:	007f0404 	rsbseq	r0, pc, r4, lsl #8
    2d1c:	72050000 	andvc	r0, r5, #0
    2d20:	06000000 	streq	r0, [r0], -r0
    2d24:	00000763 	andeq	r0, r0, r3, ror #14
    2d28:	94b80201 	ldrtls	r0, [r8], #513	; 0x201
    2d2c:	00440000 	subeq	r0, r4, r0
    2d30:	9c010000 	stcls	0, cr0, [r1], {-0}
    2d34:	00000108 	andeq	r0, r0, r8, lsl #2
    2d38:	00637007 	rsbeq	r7, r3, r7
    2d3c:	002c0201 	eoreq	r0, ip, r1, lsl #4
    2d40:	0d940000 	ldceq	0, cr0, [r4]
    2d44:	10080000 	andne	r0, r8, r0
    2d48:	18000001 	stmdane	r0, {r0}
    2d4c:	05000001 	streq	r0, [r0, #-1]
    2d50:	00a0f803 	adceq	pc, r0, r3, lsl #16
    2d54:	94c80900 	strbls	r0, [r8], #2304	; 0x900
    2d58:	011d0000 	tsteq	sp, r0
    2d5c:	e80a0000 	stmda	sl, {}	; <UNPREDICTABLE>
    2d60:	24000094 	strcs	r0, [r0], #-148	; 0x94
    2d64:	fe000001 	cdp2	0, 0, cr0, cr0, cr1, {0}
    2d68:	0b000000 	bleq	2d70 <__code_start__-0x5290>
    2d6c:	32015301 	andcc	r5, r1, #67108864	; 0x4000000
    2d70:	0552010b 	ldrbeq	r0, [r2, #-267]	; 0x10b
    2d74:	00a0f803 	adceq	pc, r0, r3, lsl #16
    2d78:	51010b00 	tstpl	r1, r0, lsl #22
    2d7c:	a14c0305 	cmpge	ip, r5, lsl #6
    2d80:	010b0000 	mrseq	r0, (UNDEF: 11)
    2d84:	10030550 	andne	r0, r3, r0, asr r5
    2d88:	0b0000a1 	bleq	3014 <__code_start__-0x4fec>
    2d8c:	02047d02 	andeq	r7, r4, #2, 26	; 0x80
    2d90:	020b0074 	andeq	r0, fp, #116	; 0x74
    2d94:	0305007d 	movweq	r0, #20605	; 0x507d
    2d98:	0000a170 	andeq	sl, r0, r0, ror r1
    2d9c:	94ec0900 	strbtls	r0, [ip], #2304	; 0x900
    2da0:	013a0000 	teqeq	sl, r0
    2da4:	0c000000 	stceq	0, cr0, [r0], {-0}
    2da8:	00000072 	andeq	r0, r0, r2, ror r0
    2dac:	00000118 	andeq	r0, r0, r8, lsl r1
    2db0:	00006b0d 	andeq	r6, r0, sp, lsl #22
    2db4:	05001500 	streq	r1, [r0, #-1280]	; 0x500
    2db8:	00000108 	andeq	r0, r0, r8, lsl #2
    2dbc:	00022a0e 	andeq	r2, r2, lr, lsl #20
    2dc0:	0f1e0200 	svceq	0x001e0200
    2dc4:	0000057d 	andeq	r0, r0, sp, ror r5
    2dc8:	00252902 	eoreq	r2, r5, r2, lsl #18
    2dcc:	013a0000 	teqeq	sl, r0
    2dd0:	79100000 	ldmdbvc	r0, {}	; <UNPREDICTABLE>
    2dd4:	11000000 	mrsne	r0, (UNDEF: 0)
    2dd8:	00ce0e00 	sbceq	r0, lr, r0, lsl #28
    2ddc:	65020000 	strvs	r0, [r2, #-0]
    2de0:	00013e00 	andeq	r3, r1, r0, lsl #28
    2de4:	5c000400 	cfstrspl	mvf0, [r0], {-0}
    2de8:	0400000e 	streq	r0, [r0], #-14
    2dec:	00052301 	andeq	r2, r5, r1, lsl #6
    2df0:	07860100 	streq	r0, [r6, r0, lsl #2]
    2df4:	058e0000 	streq	r0, [lr]
    2df8:	94fc0000 	ldrbtls	r0, [ip], #0
    2dfc:	00440000 	subeq	r0, r4, r0
    2e00:	0c340000 	ldceq	0, cr0, [r4], #-0
    2e04:	04020000 	streq	r0, [r2], #-0
    2e08:	746e6905 	strbtvc	r6, [lr], #-2309	; 0x905
    2e0c:	07040300 	streq	r0, [r4, -r0, lsl #6]
    2e10:	000001bd 			; <UNDEFINED> instruction: 0x000001bd
    2e14:	c2060103 	andgt	r0, r6, #-1073741824	; 0xc0000000
    2e18:	03000000 	movweq	r0, #0
    2e1c:	000f0502 	andeq	r0, pc, r2, lsl #10
    2e20:	04030000 	streq	r0, [r3], #-0
    2e24:	0001f105 	andeq	pc, r1, r5, lsl #2
    2e28:	05080300 	streq	r0, [r8, #-768]	; 0x300
    2e2c:	000001ec 	andeq	r0, r0, ip, ror #3
    2e30:	c0080103 	andgt	r0, r8, r3, lsl #2
    2e34:	03000000 	movweq	r0, #0
    2e38:	00e60702 	rsceq	r0, r6, r2, lsl #14
    2e3c:	04030000 	streq	r0, [r3], #-0
    2e40:	0001b807 	andeq	fp, r1, r7, lsl #16
    2e44:	07080300 	streq	r0, [r8, -r0, lsl #6]
    2e48:	000001b3 			; <UNDEFINED> instruction: 0x000001b3
    2e4c:	e3070403 	movw	r0, #29699	; 0x7403
    2e50:	03000001 	movweq	r0, #1
    2e54:	00c90801 	sbceq	r0, r9, r1, lsl #16
    2e58:	04040000 	streq	r0, [r4], #-0
    2e5c:	0000007f 	andeq	r0, r0, pc, ror r0
    2e60:	00007205 	andeq	r7, r0, r5, lsl #4
    2e64:	07790600 	ldrbeq	r0, [r9, -r0, lsl #12]!
    2e68:	02010000 	andeq	r0, r1, #0
    2e6c:	000094fc 	strdeq	r9, [r0], -ip
    2e70:	00000044 	andeq	r0, r0, r4, asr #32
    2e74:	01089c01 	tsteq	r8, r1, lsl #24
    2e78:	70070000 	andvc	r0, r7, r0
    2e7c:	02010063 	andeq	r0, r1, #99	; 0x63
    2e80:	0000002c 	andeq	r0, r0, ip, lsr #32
    2e84:	00000db2 			; <UNDEFINED> instruction: 0x00000db2
    2e88:	00011008 	andeq	r1, r1, r8
    2e8c:	00011800 	andeq	r1, r1, r0, lsl #16
    2e90:	78030500 	stmdavc	r3, {r8, sl}
    2e94:	090000a1 	stmdbeq	r0, {r0, r5, r7}
    2e98:	0000950c 	andeq	r9, r0, ip, lsl #10
    2e9c:	0000011d 	andeq	r0, r0, sp, lsl r1
    2ea0:	00952c0a 	addseq	r2, r5, sl, lsl #24
    2ea4:	00012400 	andeq	r2, r1, r0, lsl #8
    2ea8:	0000fe00 	andeq	pc, r0, r0, lsl #28
    2eac:	53010b00 	movwpl	r0, #6912	; 0x1b00
    2eb0:	010b3201 	tsteq	fp, r1, lsl #4
    2eb4:	78030552 	stmdavc	r3, {r1, r4, r6, r8, sl}
    2eb8:	0b0000a1 	bleq	3144 <__code_start__-0x4ebc>
    2ebc:	03055101 	movweq	r5, #20737	; 0x5101
    2ec0:	0000a188 	andeq	sl, r0, r8, lsl #3
    2ec4:	0550010b 	ldrbeq	r0, [r0, #-267]	; 0x10b
    2ec8:	00a11003 	adceq	r1, r1, r3
    2ecc:	7d020b00 	vstrvc	d0, [r2, #-0]
    2ed0:	00740204 	rsbseq	r0, r4, r4, lsl #4
    2ed4:	007d020b 	rsbseq	r0, sp, fp, lsl #4
    2ed8:	a1ac0305 			; <UNDEFINED> instruction: 0xa1ac0305
    2edc:	09000000 	stmdbeq	r0, {}	; <UNPREDICTABLE>
    2ee0:	00009530 	andeq	r9, r0, r0, lsr r5
    2ee4:	0000013a 	andeq	r0, r0, sl, lsr r1
    2ee8:	00720c00 	rsbseq	r0, r2, r0, lsl #24
    2eec:	01180000 	tsteq	r8, r0
    2ef0:	6b0d0000 	blvs	342ef8 <__bss_end__+0x3388c8>
    2ef4:	0c000000 	stceq	0, cr0, [r0], {-0}
    2ef8:	01080500 	tsteq	r8, r0, lsl #10
    2efc:	2a0e0000 	bcs	382f04 <__bss_end__+0x3788d4>
    2f00:	02000002 	andeq	r0, r0, #2
    2f04:	057d0f1e 	ldrbeq	r0, [sp, #-3870]!	; 0xf1e
    2f08:	29020000 	stmdbcs	r2, {}	; <UNPREDICTABLE>
    2f0c:	00000025 	andeq	r0, r0, r5, lsr #32
    2f10:	0000013a 	andeq	r0, r0, sl, lsr r1
    2f14:	00007910 	andeq	r7, r0, r0, lsl r9
    2f18:	0e001100 	adfeqs	f1, f0, f0
    2f1c:	000000ce 	andeq	r0, r0, lr, asr #1
    2f20:	3e006502 	cfsh32cc	mvfx6, mvfx0, #2
    2f24:	04000001 	streq	r0, [r0], #-1
    2f28:	000f3400 	andeq	r3, pc, r0, lsl #8
    2f2c:	23010400 	movwcs	r0, #5120	; 0x1400
    2f30:	01000005 	tsteq	r0, r5
    2f34:	000007a8 	andeq	r0, r0, r8, lsr #15
    2f38:	0000058e 	andeq	r0, r0, lr, lsl #11
    2f3c:	00009540 	andeq	r9, r0, r0, asr #10
    2f40:	00000044 	andeq	r0, r0, r4, asr #32
    2f44:	00000cdb 	ldrdeq	r0, [r0], -fp
    2f48:	69050402 	stmdbvs	r5, {r1, sl}
    2f4c:	0300746e 	movweq	r7, #1134	; 0x46e
    2f50:	01bd0704 			; <UNDEFINED> instruction: 0x01bd0704
    2f54:	01030000 	mrseq	r0, (UNDEF: 3)
    2f58:	0000c206 	andeq	ip, r0, r6, lsl #4
    2f5c:	05020300 	streq	r0, [r2, #-768]	; 0x300
    2f60:	0000000f 	andeq	r0, r0, pc
    2f64:	f1050403 			; <UNDEFINED> instruction: 0xf1050403
    2f68:	03000001 	movweq	r0, #1
    2f6c:	01ec0508 	mvneq	r0, r8, lsl #10
    2f70:	01030000 	mrseq	r0, (UNDEF: 3)
    2f74:	0000c008 	andeq	ip, r0, r8
    2f78:	07020300 	streq	r0, [r2, -r0, lsl #6]
    2f7c:	000000e6 	andeq	r0, r0, r6, ror #1
    2f80:	b8070403 	stmdalt	r7, {r0, r1, sl}
    2f84:	03000001 	movweq	r0, #1
    2f88:	01b30708 			; <UNDEFINED> instruction: 0x01b30708
    2f8c:	04030000 	streq	r0, [r3], #-0
    2f90:	0001e307 	andeq	lr, r1, r7, lsl #6
    2f94:	08010300 	stmdaeq	r1, {r8, r9}
    2f98:	000000c9 	andeq	r0, r0, r9, asr #1
    2f9c:	007f0404 	rsbseq	r0, pc, r4, lsl #8
    2fa0:	72050000 	andvc	r0, r5, #0
    2fa4:	06000000 	streq	r0, [r0], -r0
    2fa8:	000007d3 	ldrdeq	r0, [r0], -r3
    2fac:	95400201 	strbls	r0, [r0, #-513]	; 0x201
    2fb0:	00440000 	subeq	r0, r4, r0
    2fb4:	9c010000 	stcls	0, cr0, [r1], {-0}
    2fb8:	00000108 	andeq	r0, r0, r8, lsl #2
    2fbc:	00637007 	rsbeq	r7, r3, r7
    2fc0:	002c0201 	eoreq	r0, ip, r1, lsl #4
    2fc4:	0dd00000 	ldcleq	0, cr0, [r0]
    2fc8:	10080000 	andne	r0, r8, r0
    2fcc:	18000001 	stmdane	r0, {r0}
    2fd0:	05000001 	streq	r0, [r0, #-1]
    2fd4:	00a1b403 	adceq	fp, r1, r3, lsl #8
    2fd8:	95500900 	ldrbls	r0, [r0, #-2304]	; 0x900
    2fdc:	011d0000 	tsteq	sp, r0
    2fe0:	700a0000 	andvc	r0, sl, r0
    2fe4:	24000095 	strcs	r0, [r0], #-149	; 0x95
    2fe8:	fe000001 	cdp2	0, 0, cr0, cr0, cr1, {0}
    2fec:	0b000000 	bleq	2ff4 <__code_start__-0x500c>
    2ff0:	32015301 	andcc	r5, r1, #67108864	; 0x4000000
    2ff4:	0552010b 	ldrbeq	r0, [r2, #-267]	; 0x10b
    2ff8:	00a1b403 	adceq	fp, r1, r3, lsl #8
    2ffc:	51010b00 	tstpl	r1, r0, lsl #22
    3000:	a1d40305 	bicsge	r0, r4, r5, lsl #6
    3004:	010b0000 	mrseq	r0, (UNDEF: 11)
    3008:	10030550 	andne	r0, r3, r0, asr r5
    300c:	0b0000a1 	bleq	3298 <__code_start__-0x4d68>
    3010:	02047d02 	andeq	r7, r4, #2, 26	; 0x80
    3014:	020b0074 	andeq	r0, fp, #116	; 0x74
    3018:	0305007d 	movweq	r0, #20605	; 0x507d
    301c:	0000a200 	andeq	sl, r0, r0, lsl #4
    3020:	95740900 	ldrbls	r0, [r4, #-2304]!	; 0x900
    3024:	013a0000 	teqeq	sl, r0
    3028:	0c000000 	stceq	0, cr0, [r0], {-0}
    302c:	00000072 	andeq	r0, r0, r2, ror r0
    3030:	00000118 	andeq	r0, r0, r8, lsl r1
    3034:	00006b0d 	andeq	r6, r0, sp, lsl #22
    3038:	05001c00 	streq	r1, [r0, #-3072]	; 0xc00
    303c:	00000108 	andeq	r0, r0, r8, lsl #2
    3040:	00022a0e 	andeq	r2, r2, lr, lsl #20
    3044:	0f1e0200 	svceq	0x001e0200
    3048:	0000057d 	andeq	r0, r0, sp, ror r5
    304c:	00252902 	eoreq	r2, r5, r2, lsl #18
    3050:	013a0000 	teqeq	sl, r0
    3054:	79100000 	ldmdbvc	r0, {}	; <UNPREDICTABLE>
    3058:	11000000 	mrsne	r0, (UNDEF: 0)
    305c:	00ce0e00 	sbceq	r0, lr, r0, lsl #28
    3060:	65020000 	strvs	r0, [r2, #-0]
    3064:	00009800 	andeq	r9, r0, r0, lsl #16
    3068:	0c000400 	cfstrseq	mvf0, [r0], {-0}
    306c:	04000010 	streq	r0, [r0], #-16
    3070:	00052301 	andeq	r2, r5, r1, lsl #6
    3074:	07f00100 	ldrbeq	r0, [r0, r0, lsl #2]!
    3078:	058e0000 	streq	r0, [lr]
    307c:	95840000 	strls	r0, [r4]
    3080:	00080000 	andeq	r0, r8, r0
    3084:	0d8b0000 	stceq	0, cr0, [fp]
    3088:	04020000 	streq	r0, [r2], #-0
    308c:	746e6905 	strbtvc	r6, [lr], #-2309	; 0x905
    3090:	07040300 	streq	r0, [r4, -r0, lsl #6]
    3094:	000001bd 			; <UNDEFINED> instruction: 0x000001bd
    3098:	c2060103 	andgt	r0, r6, #-1073741824	; 0xc0000000
    309c:	03000000 	movweq	r0, #0
    30a0:	000f0502 	andeq	r0, pc, r2, lsl #10
    30a4:	04030000 	streq	r0, [r3], #-0
    30a8:	0001f105 	andeq	pc, r1, r5, lsl #2
    30ac:	05080300 	streq	r0, [r8, #-768]	; 0x300
    30b0:	000001ec 	andeq	r0, r0, ip, ror #3
    30b4:	c0080103 	andgt	r0, r8, r3, lsl #2
    30b8:	03000000 	movweq	r0, #0
    30bc:	00e60702 	rsceq	r0, r6, r2, lsl #14
    30c0:	04030000 	streq	r0, [r3], #-0
    30c4:	0001b807 	andeq	fp, r1, r7, lsl #16
    30c8:	07080300 	streq	r0, [r8, -r0, lsl #6]
    30cc:	000001b3 			; <UNDEFINED> instruction: 0x000001b3
    30d0:	e3070403 	movw	r0, #29699	; 0x7403
    30d4:	03000001 	movweq	r0, #1
    30d8:	00c90801 	sbceq	r0, r9, r1, lsl #16
    30dc:	10040000 	andne	r0, r4, r0
    30e0:	01000007 	tsteq	r0, r7
    30e4:	00958404 	addseq	r8, r5, r4, lsl #8
    30e8:	00000400 	andeq	r0, r0, r0, lsl #8
    30ec:	049c0100 	ldreq	r0, [ip], #256	; 0x100
    30f0:	000006ba 			; <UNDEFINED> instruction: 0x000006ba
    30f4:	95880501 	strls	r0, [r8, #1281]	; 0x501
    30f8:	00040000 	andeq	r0, r4, r0
    30fc:	9c010000 	stcls	0, cr0, [r1], {-0}
    3100:	0001d700 	andeq	sp, r1, r0, lsl #14
    3104:	4e000400 	cfcpysmi	mvf0, mvf0
    3108:	04000010 	streq	r0, [r0], #-16
    310c:	00052301 	andeq	r2, r5, r1, lsl #6
    3110:	08ac0100 	stmiaeq	ip!, {r8}
    3114:	058e0000 	streq	r0, [lr]
    3118:	958c0000 	strls	r0, [ip]
    311c:	006c0000 	rsbeq	r0, ip, r0
    3120:	0dd60000 	ldcleq	0, cr0, [r6]
    3124:	04020000 	streq	r0, [r2], #-0
    3128:	746e6905 	strbtvc	r6, [lr], #-2309	; 0x905
    312c:	07040300 	streq	r0, [r4, -r0, lsl #6]
    3130:	000001bd 			; <UNDEFINED> instruction: 0x000001bd
    3134:	c2060103 	andgt	r0, r6, #-1073741824	; 0xc0000000
    3138:	03000000 	movweq	r0, #0
    313c:	000f0502 	andeq	r0, pc, r2, lsl #10
    3140:	04030000 	streq	r0, [r3], #-0
    3144:	0001f105 	andeq	pc, r1, r5, lsl #2
    3148:	05080300 	streq	r0, [r8, #-768]	; 0x300
    314c:	000001ec 	andeq	r0, r0, ip, ror #3
    3150:	c0080103 	andgt	r0, r8, r3, lsl #2
    3154:	03000000 	movweq	r0, #0
    3158:	00e60702 	rsceq	r0, r6, r2, lsl #14
    315c:	04030000 	streq	r0, [r3], #-0
    3160:	0001b807 	andeq	fp, r1, r7, lsl #16
    3164:	07080300 	streq	r0, [r8, -r0, lsl #6]
    3168:	000001b3 			; <UNDEFINED> instruction: 0x000001b3
    316c:	e3070403 	movw	r0, #29699	; 0x7403
    3170:	03000001 	movweq	r0, #1
    3174:	00c90801 	sbceq	r0, r9, r1, lsl #16
    3178:	04040000 	streq	r0, [r4], #-0
    317c:	00f01402 	rscseq	r1, r0, r2, lsl #8
    3180:	c5050000 	strgt	r0, [r5, #-0]
    3184:	80000008 	andhi	r0, r0, r8
    3188:	028082e4 	addeq	r8, r0, #228, 4	; 0x4000000e
    318c:	00084b05 	andeq	r4, r8, r5, lsl #22
    3190:	82e48000 	rschi	r8, r4, #0
    3194:	f2050280 	vhsub.s8	d0, d21, d0
    3198:	84000008 	strhi	r0, [r0], #-8
    319c:	028082e4 	addeq	r8, r0, #228, 4	; 0x4000000e
    31a0:	00080d05 	andeq	r0, r8, r5, lsl #26
    31a4:	82e48800 	rschi	r8, r4, #0, 16
    31a8:	2e050280 	cdpcs	2, 0, cr0, cr5, cr0, {4}
    31ac:	8c000008 	stchi	0, cr0, [r0], {8}
    31b0:	028082e4 	addeq	r8, r0, #228, 4	; 0x4000000e
    31b4:	00086f05 	andeq	r6, r8, r5, lsl #30
    31b8:	82e49000 	rschi	r9, r4, #0
    31bc:	7d050280 	sfmvc	f0, 4, [r5, #-512]	; 0xfffffe00
    31c0:	94000008 	strls	r0, [r0], #-8
    31c4:	028082e4 	addeq	r8, r0, #228, 4	; 0x4000000e
    31c8:	00085d05 	andeq	r5, r8, r5, lsl #26
    31cc:	82e49800 	rschi	r9, r4, #0, 16
    31d0:	d4050280 	strle	r0, [r5], #-640	; 0x280
    31d4:	9c000008 	stcls	0, cr0, [r0], {8}
    31d8:	028082e4 	addeq	r8, r0, #228, 4	; 0x4000000e
    31dc:	0008e305 	andeq	lr, r8, r5, lsl #6
    31e0:	82e4a000 	rschi	sl, r4, #0
    31e4:	1b050280 	blne	143bec <__bss_end__+0x1395bc>
    31e8:	a4000008 	strge	r0, [r0], #-8
    31ec:	028082e4 	addeq	r8, r0, #228, 4	; 0x4000000e
    31f0:	041c0600 	ldreq	r0, [ip], #-1536	; 0x600
    31f4:	1b010000 	blne	431fc <__bss_end__+0x38bcc>
    31f8:	0000958c 	andeq	r9, r0, ip, lsl #11
    31fc:	0000006c 	andeq	r0, r0, ip, rrx
    3200:	01a59c01 			; <UNDEFINED> instruction: 0x01a59c01
    3204:	3a070000 	bcc	1c320c <__bss_end__+0x1b8bdc>
    3208:	01000008 	tsteq	r0, r8
    320c:	00002c23 	andeq	r2, r0, r3, lsr #24
    3210:	088b0700 	stmeq	fp, {r8, r9, sl}
    3214:	24010000 	strcs	r0, [r1], #-0
    3218:	0000002c 	andeq	r0, r0, ip, lsr #32
    321c:	74736408 	ldrbtvc	r6, [r3], #-1032	; 0x408
    3220:	a5270100 	strge	r0, [r7, #-256]!	; 0x100
    3224:	00000001 	andeq	r0, r0, r1
    3228:	63727309 	cmnvs	r2, #603979776	; 0x24000000
    322c:	a5280100 	strge	r0, [r8, #-256]!	; 0x100
    3230:	0a000001 	beq	323c <__code_start__-0x4dc4>
    3234:	2901006e 	stmdbcs	r1, {r1, r2, r3, r5, r6}
    3238:	0000002c 	andeq	r0, r0, ip, lsr #32
    323c:	c00b5001 	andgt	r5, fp, r1
    3240:	24000095 	strcs	r0, [r0], #-149	; 0x95
    3244:	58000000 	stmdapl	r0, {}	; <UNPREDICTABLE>
    3248:	0c000001 	stceq	0, cr0, [r0], {1}
    324c:	2a010069 	bcs	433f8 <__bss_end__+0x38dc8>
    3250:	00000025 	andeq	r0, r0, r5, lsr #32
    3254:	00000dee 	andeq	r0, r0, lr, ror #27
    3258:	95940d00 	ldrls	r0, [r4, #3328]	; 0xd00
    325c:	01c10000 	biceq	r0, r1, r0
    3260:	a00e0000 	andge	r0, lr, r0
    3264:	c8000095 	stmdagt	r0, {r0, r2, r4, r7}
    3268:	7e000001 	cdpvc	0, 0, cr0, cr0, cr1, {0}
    326c:	0f000001 	svceq	0x00000001
    3270:	09025101 	stmdbeq	r2, {r0, r8, ip, lr}
    3274:	50010fff 	strdpl	r0, [r1], -pc	; <UNPREDICTABLE>
    3278:	b21c0c05 	andslt	r0, ip, #1280	; 0x500
    327c:	0e002000 	cdpeq	0, 0, cr2, cr0, cr0, {0}
    3280:	000095ac 	andeq	r9, r0, ip, lsr #11
    3284:	000001c8 	andeq	r0, r0, r8, asr #3
    3288:	0000019b 	muleq	r0, fp, r1
    328c:	0251010f 	subseq	r0, r1, #-1073741821	; 0xc0000003
    3290:	010fff09 	tsteq	pc, r9, lsl #30
    3294:	200c0550 	andcs	r0, ip, r0, asr r5
    3298:	002000b2 	strhteq	r0, [r0], -r2
    329c:	0095b00d 	addseq	fp, r5, sp
    32a0:	0001c100 	andeq	ip, r1, r0, lsl #2
    32a4:	04100000 	ldreq	r0, [r0], #-0
    32a8:	0000002c 	andeq	r0, r0, ip, lsr #32
    32ac:	00083a07 	andeq	r3, r8, r7, lsl #20
    32b0:	2c230100 	stfcss	f0, [r3], #-0
    32b4:	07000000 	streq	r0, [r0, -r0]
    32b8:	0000088b 	andeq	r0, r0, fp, lsl #17
    32bc:	002c2401 	eoreq	r2, ip, r1, lsl #8
    32c0:	a0110000 	andsge	r0, r1, r0
    32c4:	03000008 	movweq	r0, #8
    32c8:	08ce1289 	stmiaeq	lr, {r0, r3, r7, r9, ip}^
    32cc:	9b030000 	blls	c32d4 <__bss_end__+0xb8ca4>
    32d0:	00002c13 	andeq	r2, r0, r3, lsl ip
    32d4:	002c1300 	eoreq	r1, ip, r0, lsl #6
    32d8:	00000000 	andeq	r0, r0, r0
    32dc:	000001ad 	andeq	r0, r0, sp, lsr #3
    32e0:	11540004 	cmpne	r4, r4
    32e4:	01040000 	mrseq	r0, (UNDEF: 4)
    32e8:	00000523 	andeq	r0, r0, r3, lsr #10
    32ec:	00090e01 	andeq	r0, r9, r1, lsl #28
    32f0:	00058e00 	andeq	r8, r5, r0, lsl #28
	...
    32fc:	000ea300 	andeq	sl, lr, r0, lsl #6
    3300:	05040200 	streq	r0, [r4, #-512]	; 0x200
    3304:	00746e69 	rsbseq	r6, r4, r9, ror #28
    3308:	bd070403 	cfstrslt	mvf0, [r7, #-12]
    330c:	03000001 	movweq	r0, #1
    3310:	00c20601 	sbceq	r0, r2, r1, lsl #12
    3314:	02030000 	andeq	r0, r3, #0
    3318:	00000f05 	andeq	r0, r0, r5, lsl #30
    331c:	05040300 	streq	r0, [r4, #-768]	; 0x300
    3320:	000001f1 	strdeq	r0, [r0], -r1
    3324:	ec050803 	stc	8, cr0, [r5], {3}
    3328:	03000001 	movweq	r0, #1
    332c:	00c00801 	sbceq	r0, r0, r1, lsl #16
    3330:	02030000 	andeq	r0, r3, #0
    3334:	0000e607 	andeq	lr, r0, r7, lsl #12
    3338:	07040300 	streq	r0, [r4, -r0, lsl #6]
    333c:	000001b8 			; <UNDEFINED> instruction: 0x000001b8
    3340:	b3070803 	movwlt	r0, #30723	; 0x7803
    3344:	03000001 	movweq	r0, #1
    3348:	01e30704 	mvneq	r0, r4, lsl #14
    334c:	01030000 	mrseq	r0, (UNDEF: 3)
    3350:	0000c908 	andeq	ip, r0, r8, lsl #18
    3354:	09000400 	stmdbeq	r0, {sl}
    3358:	0e010000 	cdpeq	0, 0, cr0, cr1, cr0, {0}
    335c:	00000025 	andeq	r0, r0, r5, lsr #32
    3360:	000095f8 	strdeq	r9, [r0], -r8
    3364:	00000018 	andeq	r0, r0, r8, lsl r0
    3368:	00a29c01 	adceq	r9, r2, r1, lsl #24
    336c:	e3050000 	movw	r0, #20480	; 0x5000
    3370:	01000004 	tsteq	r0, r4
    3374:	00002c0f 	andeq	r2, r0, pc, lsl #24
    3378:	000e0d00 	andeq	r0, lr, r0, lsl #26
    337c:	42060000 	andmi	r0, r6, #0
    3380:	01000009 	tsteq	r0, r9
    3384:	00961017 	addseq	r1, r6, r7, lsl r0
    3388:	00001400 	andeq	r1, r0, r0, lsl #8
    338c:	c79c0100 	ldrgt	r0, [ip, r0, lsl #2]
    3390:	05000000 	streq	r0, [r0, #-0]
    3394:	000004e3 	andeq	r0, r0, r3, ror #9
    3398:	002c1801 	eoreq	r1, ip, r1, lsl #16
    339c:	0e2c0000 	cdpeq	0, 2, cr0, cr12, cr0, {0}
    33a0:	06000000 	streq	r0, [r0], -r0
    33a4:	000006e2 	andeq	r0, r0, r2, ror #13
    33a8:	96241f01 	strtls	r1, [r4], -r1, lsl #30
    33ac:	00480000 	subeq	r0, r8, r0
    33b0:	9c010000 	stcls	0, cr0, [r1], {-0}
    33b4:	00000177 	andeq	r0, r0, r7, ror r1
    33b8:	00095d07 	andeq	r5, r9, r7, lsl #26
    33bc:	772a0100 	strvc	r0, [sl, -r0, lsl #2]!
    33c0:	1c000001 	stcne	0, cr0, [r0], {1}
    33c4:	07201000 	streq	r1, [r0, -r0]!
    33c8:	0000093a 	andeq	r0, r0, sl, lsr r9
    33cc:	01772b01 	cmneq	r7, r1, lsl #22
    33d0:	00240000 	eoreq	r0, r4, r0
    33d4:	51072010 	tstpl	r7, r0, lsl r0
    33d8:	01000009 	tsteq	r0, r9
    33dc:	0001772c 	andeq	r7, r1, ip, lsr #14
    33e0:	00000000 	andeq	r0, r0, r0
    33e4:	0921085a 	stmdbeq	r1!, {r1, r3, r4, r6, fp}
    33e8:	2d010000 	stccs	0, cr0, [r1, #-0]
    33ec:	00000177 	andeq	r0, r0, r7, ror r1
    33f0:	962c0920 	strtls	r0, [ip], -r0, lsr #18
    33f4:	00790000 	rsbseq	r0, r9, r0
    33f8:	38090000 	stmdacc	r9, {}	; <UNPREDICTABLE>
    33fc:	a2000096 	andge	r0, r0, #150	; 0x96
    3400:	0a000000 	beq	3408 <__code_start__-0x4bf8>
    3404:	00009640 	andeq	r9, r0, r0, asr #12
    3408:	0000018d 	andeq	r0, r0, sp, lsl #3
    340c:	0000013a 	andeq	r0, r0, sl, lsr r1
    3410:	0150010b 	cmpeq	r0, fp, lsl #2
    3414:	4c0a004e 	stcmi	0, cr0, [sl], {78}	; 0x4e
    3418:	9e000096 	mcrls	0, 0, r0, cr0, cr6, {4}
    341c:	5a000001 	bpl	3428 <__code_start__-0x4bd8>
    3420:	0b000001 	bleq	342c <__code_start__-0x4bd4>
    3424:	0c055101 	stfeqs	f5, [r5], {1}
    3428:	5a000001 	bpl	3434 <__code_start__-0x4bcc>
    342c:	0550010b 	ldrbeq	r0, [r0, #-267]	; 0x10b
    3430:	1000240c 	andne	r2, r0, ip, lsl #8
    3434:	580c0020 	stmdapl	ip, {r5}
    3438:	9e000096 	mcrls	0, 0, r0, cr0, cr6, {4}
    343c:	0b000001 	bleq	3448 <__code_start__-0x4bb8>
    3440:	0c055101 	stfeqs	f5, [r5], {1}
    3444:	5a000020 	bpl	34cc <__code_start__-0x4b34>
    3448:	0550010b 	ldrbeq	r0, [r0, #-267]	; 0x10b
    344c:	10001c0c 	andne	r1, r0, ip, lsl #24
    3450:	0d000020 	stceq	0, cr0, [r0, #-128]	; 0xffffff80
    3454:	00000025 	andeq	r0, r0, r5, lsr #32
    3458:	00090308 	andeq	r0, r9, r8, lsl #6
    345c:	880d0100 	stmdahi	sp, {r8}
    3460:	10000001 	andne	r0, r0, r1
    3464:	00002c0d 	andeq	r2, r0, sp, lsl #24
    3468:	06ed0e00 	strbteq	r0, [sp], r0, lsl #28
    346c:	4f020000 	svcmi	0x00020000
    3470:	0000019e 	muleq	r0, lr, r1
    3474:	00002c0f 	andeq	r2, r0, pc, lsl #24
    3478:	ce100000 	cdpgt	0, 1, cr0, cr0, cr0, {0}
    347c:	02000008 	andeq	r0, r0, #8
    3480:	002c0f9b 	mlaeq	ip, fp, pc, r0	; <UNPREDICTABLE>
    3484:	2c0f0000 	stccs	0, cr0, [pc], {-0}
    3488:	00000000 	andeq	r0, r0, r0
    348c:	0001f700 	andeq	pc, r1, r0, lsl #14
    3490:	42000400 	andmi	r0, r0, #0, 8
    3494:	04000012 	streq	r0, [r0], #-18
    3498:	00052301 	andeq	r2, r5, r1, lsl #6
    349c:	09820100 	stmibeq	r2, {r8}
    34a0:	058e0000 	streq	r0, [lr]
    34a4:	966c0000 	strbtls	r0, [ip], -r0
    34a8:	00980000 	addseq	r0, r8, r0
    34ac:	0f490000 	svceq	0x00490000
    34b0:	04020000 	streq	r0, [r2], #-0
    34b4:	746e6905 	strbtvc	r6, [lr], #-2309	; 0x905
    34b8:	07040300 	streq	r0, [r4, -r0, lsl #6]
    34bc:	000001bd 			; <UNDEFINED> instruction: 0x000001bd
    34c0:	c2060103 	andgt	r0, r6, #-1073741824	; 0xc0000000
    34c4:	03000000 	movweq	r0, #0
    34c8:	000f0502 	andeq	r0, pc, r2, lsl #10
    34cc:	04030000 	streq	r0, [r3], #-0
    34d0:	0001f105 	andeq	pc, r1, r5, lsl #2
    34d4:	05080300 	streq	r0, [r8, #-768]	; 0x300
    34d8:	000001ec 	andeq	r0, r0, ip, ror #3
    34dc:	c0080103 	andgt	r0, r8, r3, lsl #2
    34e0:	03000000 	movweq	r0, #0
    34e4:	00e60702 	rsceq	r0, r6, r2, lsl #14
    34e8:	04030000 	streq	r0, [r3], #-0
    34ec:	0001b807 	andeq	fp, r1, r7, lsl #16
    34f0:	07080300 	streq	r0, [r8, -r0, lsl #6]
    34f4:	000001b3 			; <UNDEFINED> instruction: 0x000001b3
    34f8:	e3070403 	movw	r0, #29699	; 0x7403
    34fc:	03000001 	movweq	r0, #1
    3500:	00c90801 	sbceq	r0, r9, r1, lsl #16
    3504:	a0040000 	andge	r0, r4, r0
    3508:	01000009 	tsteq	r0, r9
    350c:	00966c05 	addseq	r6, r6, r5, lsl #24
    3510:	00001c00 	andeq	r1, r0, r0, lsl #24
    3514:	9e9c0100 	fmllse	f0, f4, f0
    3518:	05000000 	streq	r0, [r0, #-0]
    351c:	0000099a 	muleq	r0, sl, r9
    3520:	002c0501 	eoreq	r0, ip, r1, lsl #10
    3524:	0e560000 	cdpeq	0, 5, cr0, cr6, cr0, {0}
    3528:	06000000 	streq	r0, [r0], -r0
    352c:	00000965 	andeq	r0, r0, r5, ror #18
    3530:	002c1101 	eoreq	r1, ip, r1, lsl #2
    3534:	96880000 	strls	r0, [r8], r0
    3538:	00140000 	andseq	r0, r4, r0
    353c:	9c010000 	stcls	0, cr0, [r1], {-0}
    3540:	000000cb 	andeq	r0, r0, fp, asr #1
    3544:	00969407 	addseq	r9, r6, r7, lsl #8
    3548:	0001de00 	andeq	sp, r1, r0, lsl #28
    354c:	50010800 	andpl	r0, r1, r0, lsl #16
    3550:	30040c05 	andcc	r0, r4, r5, lsl #24
    3554:	00002000 	andeq	r2, r0, r0
    3558:	0009b606 	andeq	fp, r9, r6, lsl #12
    355c:	2c160100 	ldfcss	f0, [r6], {-0}
    3560:	9c000000 	stcls	0, cr0, [r0], {-0}
    3564:	1c000096 	stcne	0, cr0, [r0], {150}	; 0x96
    3568:	01000000 	mrseq	r0, (UNDEF: 0)
    356c:	00010d9c 	muleq	r1, ip, sp
    3570:	00750900 	rsbseq	r0, r5, r0, lsl #18
    3574:	002c1a01 	eoreq	r1, ip, r1, lsl #20
    3578:	0e8a0000 	cdpeq	0, 8, cr0, cr10, cr0, {0}
    357c:	a40a0000 	strge	r0, [sl], #-0
    3580:	f3000096 	vqadd.u8	d0, d16, d6
    3584:	0a000001 	beq	3590 <__code_start__-0x4a70>
    3588:	000096a8 	andeq	r9, r0, r8, lsr #13
    358c:	0000009e 	muleq	r0, lr, r0
    3590:	0096b00a 	addseq	fp, r6, sl
    3594:	0001f300 	andeq	pc, r1, r0, lsl #6
    3598:	ad040000 	stcge	0, cr0, [r4, #-0]
    359c:	01000009 	tsteq	r0, r9
    35a0:	0096b81f 	addseq	fp, r6, pc, lsl r8
    35a4:	00002400 	andeq	r2, r0, r0, lsl #8
    35a8:	6b9c0100 	blvs	fe7039b0 <__bss_end__+0xfe6f9380>
    35ac:	0b000001 	bleq	35b8 <__code_start__-0x4a48>
    35b0:	01007375 	tsteq	r0, r5, ror r3
    35b4:	00002c1f 	andeq	r2, r0, pc, lsl ip
    35b8:	000ea800 	andeq	sl, lr, r0, lsl #16
    35bc:	62720c00 	rsbsvs	r0, r2, #0, 24
    35c0:	2c200100 	stfcss	f0, [r0], #-0
    35c4:	01000000 	mrseq	r0, (UNDEF: 0)
    35c8:	96c80d54 			; <UNDEFINED> instruction: 0x96c80d54
    35cc:	00100000 	andseq	r0, r0, r0
    35d0:	01610000 	cmneq	r1, r0
    35d4:	72090000 	andvc	r0, r9, #0
    35d8:	22010061 	andcs	r0, r1, #97	; 0x61
    35dc:	0000002c 	andeq	r0, r0, ip, lsr #32
    35e0:	00000ec6 	andeq	r0, r0, r6, asr #29
    35e4:	0096cc0a 	addseq	ip, r6, sl, lsl #24
    35e8:	0000cb00 	andeq	ip, r0, r0, lsl #22
    35ec:	c40a0000 	strgt	r0, [sl], #-0
    35f0:	cb000096 	blgt	3850 <__code_start__-0x47b0>
    35f4:	00000000 	andeq	r0, r0, r0
    35f8:	0006ed04 	andeq	lr, r6, r4, lsl #26
    35fc:	dc280100 	stfles	f0, [r8], #-0
    3600:	14000096 	strne	r0, [r0], #-150	; 0x96
    3604:	01000000 	mrseq	r0, (UNDEF: 0)
    3608:	0001a49c 	muleq	r1, ip, r4
    360c:	736d0b00 	cmnvc	sp, #0, 22
    3610:	2c280100 	stfcss	f0, [r8], #-0
    3614:	d9000000 	stmdble	r0, {}	; <UNPREDICTABLE>
    3618:	0700000e 	streq	r0, [r0, -lr]
    361c:	000096ec 	andeq	r9, r0, ip, ror #13
    3620:	0000010d 	andeq	r0, r0, sp, lsl #2
    3624:	07500108 	ldrbeq	r0, [r0, -r8, lsl #2]
    3628:	0a5001f3 	beq	1403dfc <__bss_end__+0x13f97cc>
    362c:	001e03e8 	andseq	r0, lr, r8, ror #7
    3630:	09780400 	ldmdbeq	r8!, {sl}^
    3634:	2b010000 	blcs	4363c <__bss_end__+0x3900c>
    3638:	000096f0 	strdeq	r9, [r0], -r0
    363c:	00000014 	andeq	r0, r0, r4, lsl r0
    3640:	01de9c01 	bicseq	r9, lr, r1, lsl #24
    3644:	730b0000 	movwvc	r0, #45056	; 0xb000
    3648:	01006365 	tsteq	r0, r5, ror #6
    364c:	00002c2b 	andeq	r2, r0, fp, lsr #24
    3650:	000efa00 	andeq	pc, lr, r0, lsl #20
    3654:	97000700 	strls	r0, [r0, -r0, lsl #14]
    3658:	016b0000 	cmneq	fp, r0
    365c:	01080000 	mrseq	r0, (UNDEF: 8)
    3660:	01f30750 	mvnseq	r0, r0, asr r7
    3664:	03e80a50 	mvneq	r0, #80, 20	; 0x50000
    3668:	0e00001e 	mcreq	0, 0, r0, cr0, cr14, {0}
    366c:	00000994 	muleq	r0, r4, r9
    3670:	002ca702 	eoreq	sl, ip, r2, lsl #14
    3674:	01f30000 	mvnseq	r0, r0
    3678:	2c0f0000 	stccs	0, cr0, [pc], {-0}
    367c:	00000000 	andeq	r0, r0, r0
    3680:	0008a010 	andeq	sl, r8, r0, lsl r0
    3684:	00890200 	addeq	r0, r9, r0, lsl #4
    3688:	00000cc5 	andeq	r0, r0, r5, asr #25
    368c:	13380004 	teqne	r8, #4
    3690:	01040000 	mrseq	r0, (UNDEF: 4)
    3694:	00000d61 	andeq	r0, r0, r1, ror #26
    3698:	000ac40c 	andeq	ip, sl, ip, lsl #8
    369c:	000adf00 	andeq	sp, sl, r0, lsl #30
    36a0:	00976800 	addseq	r6, r7, r0, lsl #16
    36a4:	00017800 	andeq	r7, r1, r0, lsl #16
    36a8:	000ffb00 	andeq	pc, pc, r0, lsl #22
    36ac:	05040200 	streq	r0, [r4, #-512]	; 0x200
    36b0:	00746e69 	rsbseq	r6, r4, r9, ror #28
    36b4:	bd070403 	cfstrslt	mvf0, [r7, #-12]
    36b8:	04000001 	streq	r0, [r0], #-1
    36bc:	0000002c 	andeq	r0, r0, ip, lsr #32
    36c0:	c2060103 	andgt	r0, r6, #-1073741824	; 0xc0000000
    36c4:	03000000 	movweq	r0, #0
    36c8:	000f0502 	andeq	r0, pc, r2, lsl #10
    36cc:	04030000 	streq	r0, [r3], #-0
    36d0:	0001f105 	andeq	pc, r1, r5, lsl #2
    36d4:	05080300 	streq	r0, [r8, #-768]	; 0x300
    36d8:	000001ec 	andeq	r0, r0, ip, ror #3
    36dc:	c0080103 	andgt	r0, r8, r3, lsl #2
    36e0:	03000000 	movweq	r0, #0
    36e4:	00e60702 	rsceq	r0, r6, r2, lsl #14
    36e8:	04030000 	streq	r0, [r3], #-0
    36ec:	0001b807 	andeq	fp, r1, r7, lsl #16
    36f0:	07080300 	streq	r0, [r8, -r0, lsl #6]
    36f4:	000001b3 			; <UNDEFINED> instruction: 0x000001b3
    36f8:	000c7605 	andeq	r7, ip, r5, lsl #12
    36fc:	25070200 	strcs	r0, [r7, #-512]	; 0x200
    3700:	05000000 	streq	r0, [r0, #-0]
    3704:	00000c60 	andeq	r0, r0, r0, ror #24
    3708:	00462c03 	subeq	r2, r6, r3, lsl #24
    370c:	3c050000 	stccc	0, cr0, [r5], {-0}
    3710:	0300000d 	movweq	r0, #13
    3714:	00004672 	andeq	r4, r0, r2, ror r6
    3718:	0c040600 	stceq	6, cr0, [r4], {-0}
    371c:	65040000 	strvs	r0, [r4, #-0]
    3720:	00002c01 	andeq	r2, r0, r1, lsl #24
    3724:	03040700 	movweq	r0, #18176	; 0x4700
    3728:	0000bca6 	andeq	fp, r0, r6, lsr #25
    372c:	0bef0800 	bleq	ffbc5734 <__bss_end__+0xffbbb104>
    3730:	a8030000 	stmdage	r3, {}	; <UNPREDICTABLE>
    3734:	00000091 	muleq	r0, r1, r0
    3738:	000b9708 	andeq	r9, fp, r8, lsl #14
    373c:	bca90300 	stclt	3, cr0, [r9]
    3740:	00000000 	andeq	r0, r0, r0
    3744:	00005409 	andeq	r5, r0, r9, lsl #8
    3748:	0000cc00 	andeq	ip, r0, r0, lsl #24
    374c:	00cc0a00 	sbceq	r0, ip, r0, lsl #20
    3750:	00030000 	andeq	r0, r3, r0
    3754:	e3070403 	movw	r0, #29699	; 0x7403
    3758:	0b000001 	bleq	3764 <__code_start__-0x489c>
    375c:	f4a30308 	vld4.8	{d0[0],d1[0],d2[0],d3[0]}, [r3], r8
    3760:	0c000000 	stceq	0, cr0, [r0], {-0}
    3764:	00000d21 	andeq	r0, r0, r1, lsr #26
    3768:	0025a503 	eoreq	sl, r5, r3, lsl #10
    376c:	0c000000 	stceq	0, cr0, [r0], {-0}
    3770:	00000d29 	andeq	r0, r0, r9, lsr #26
    3774:	009daa03 	addseq	sl, sp, r3, lsl #20
    3778:	00040000 	andeq	r0, r4, r0
    377c:	000cb405 	andeq	fp, ip, r5, lsl #8
    3780:	d3ab0300 			; <UNDEFINED> instruction: 0xd3ab0300
    3784:	05000000 	streq	r0, [r0, #-0]
    3788:	00000b60 	andeq	r0, r0, r0, ror #22
    378c:	0070af03 	rsbseq	sl, r0, r3, lsl #30
    3790:	040d0000 	streq	r0, [sp], #-0
    3794:	0112040e 	tsteq	r2, lr, lsl #8
    3798:	01030000 	mrseq	r0, (UNDEF: 3)
    379c:	0000c908 	andeq	ip, r0, r8, lsl #18
    37a0:	01120f00 	tsteq	r2, r0, lsl #30
    37a4:	de050000 	cdple	0, 0, cr0, cr5, cr0, {0}
    37a8:	0500000d 	streq	r0, [r0, #-13]
    37ac:	00006216 	andeq	r6, r0, r6, lsl r2
    37b0:	0b711000 	bleq	1c477b8 <__bss_end__+0x1c3d188>
    37b4:	05180000 	ldreq	r0, [r8, #-0]
    37b8:	00017c2d 	andeq	r7, r1, sp, lsr #24
    37bc:	0cd50c00 	ldcleq	12, cr0, [r5], {0}
    37c0:	2f050000 	svccs	0x00050000
    37c4:	0000017c 	andeq	r0, r0, ip, ror r1
    37c8:	6b5f1100 	blvs	17c7bd0 <__bss_end__+0x17bd5a0>
    37cc:	25300500 	ldrcs	r0, [r0, #-1280]!	; 0x500
    37d0:	04000000 	streq	r0, [r0], #-0
    37d4:	000d0c0c 	andeq	r0, sp, ip, lsl #24
    37d8:	25300500 	ldrcs	r0, [r0, #-1280]!	; 0x500
    37dc:	08000000 	stmdaeq	r0, {}	; <UNPREDICTABLE>
    37e0:	000b4c0c 	andeq	r4, fp, ip, lsl #24
    37e4:	25300500 	ldrcs	r0, [r0, #-1280]!	; 0x500
    37e8:	0c000000 	stceq	0, cr0, [r0], {-0}
    37ec:	000e250c 	andeq	r2, lr, ip, lsl #10
    37f0:	25300500 	ldrcs	r0, [r0, #-1280]!	; 0x500
    37f4:	10000000 	andne	r0, r0, r0
    37f8:	00785f11 	rsbseq	r5, r8, r1, lsl pc
    37fc:	01823105 	orreq	r3, r2, r5, lsl #2
    3800:	00140000 	andseq	r0, r4, r0
    3804:	0129040e 	teqeq	r9, lr, lsl #8
    3808:	1e090000 	cdpne	0, 0, cr0, cr9, cr0, {0}
    380c:	92000001 	andls	r0, r0, #1
    3810:	0a000001 	beq	381c <__code_start__-0x47e4>
    3814:	000000cc 	andeq	r0, r0, ip, asr #1
    3818:	92100000 	andsls	r0, r0, #0
    381c:	2400000b 	strcs	r0, [r0], #-11
    3820:	020b3505 	andeq	r3, fp, #20971520	; 0x1400000
    3824:	4a0c0000 	bmi	30382c <__bss_end__+0x2f91fc>
    3828:	0500000a 	streq	r0, [r0, #-10]
    382c:	00002537 	andeq	r2, r0, r7, lsr r5
    3830:	440c0000 	strmi	r0, [ip], #-0
    3834:	0500000d 	streq	r0, [r0, #-13]
    3838:	00002538 	andeq	r2, r0, r8, lsr r5
    383c:	780c0400 	stmdavc	ip, {sl}
    3840:	0500000a 	streq	r0, [r0, #-10]
    3844:	00002539 	andeq	r2, r0, r9, lsr r5
    3848:	150c0800 	strne	r0, [ip, #-2048]	; 0x800
    384c:	0500000f 	streq	r0, [r0, #-15]
    3850:	0000253a 	andeq	r2, r0, sl, lsr r5
    3854:	440c0c00 	strmi	r0, [ip], #-3072	; 0xc00
    3858:	0500000c 	streq	r0, [r0, #-12]
    385c:	0000253b 	andeq	r2, r0, fp, lsr r5
    3860:	190c1000 	stmdbne	ip, {ip}
    3864:	0500000c 	streq	r0, [r0, #-12]
    3868:	0000253c 	andeq	r2, r0, ip, lsr r5
    386c:	2a0c1400 	bcs	308874 <__bss_end__+0x2fe244>
    3870:	0500000e 	streq	r0, [r0, #-14]
    3874:	0000253d 	andeq	r2, r0, sp, lsr r5
    3878:	960c1800 	strls	r1, [ip], -r0, lsl #16
    387c:	0500000c 	streq	r0, [r0, #-12]
    3880:	0000253e 	andeq	r2, r0, lr, lsr r5
    3884:	dc0c1c00 	stcle	12, cr1, [ip], {-0}
    3888:	0500000e 	streq	r0, [r0, #-14]
    388c:	0000253f 	andeq	r2, r0, pc, lsr r5
    3890:	12002000 	andne	r2, r0, #0
    3894:	00000a87 	andeq	r0, r0, r7, lsl #21
    3898:	48050108 	stmdami	r5, {r3, r8}
    389c:	0000024b 	andeq	r0, r0, fp, asr #4
    38a0:	000b330c 	andeq	r3, fp, ip, lsl #6
    38a4:	4b490500 	blmi	1244cac <__bss_end__+0x123a67c>
    38a8:	00000002 	andeq	r0, r0, r2
    38ac:	0009c50c 	andeq	ip, r9, ip, lsl #10
    38b0:	4b4a0500 	blmi	1284cb8 <__bss_end__+0x127a688>
    38b4:	80000002 	andhi	r0, r0, r2
    38b8:	000dd013 	andeq	sp, sp, r3, lsl r0
    38bc:	1e4c0500 	cdpne	5, 4, cr0, cr12, cr0, {0}
    38c0:	00000001 	andeq	r0, r0, r1
    38c4:	0aac1301 	beq	feb084d0 <__bss_end__+0xfeafdea0>
    38c8:	4f050000 	svcmi	0x00050000
    38cc:	0000011e 	andeq	r0, r0, lr, lsl r1
    38d0:	09000104 	stmdbeq	r0, {r2, r8}
    38d4:	0000010a 	andeq	r0, r0, sl, lsl #2
    38d8:	0000025b 	andeq	r0, r0, fp, asr r2
    38dc:	0000cc0a 	andeq	ip, r0, sl, lsl #24
    38e0:	12001f00 	andne	r1, r0, #0, 30
    38e4:	00000c4d 	andeq	r0, r0, sp, asr #24
    38e8:	5b050190 	blpl	143f30 <__bss_end__+0x139900>
    38ec:	00000299 	muleq	r0, r9, r2
    38f0:	000cd50c 	andeq	sp, ip, ip, lsl #10
    38f4:	995c0500 	ldmdbls	ip, {r8, sl}^
    38f8:	00000002 	andeq	r0, r0, r2
    38fc:	000ced0c 	andeq	lr, ip, ip, lsl #26
    3900:	255d0500 	ldrbcs	r0, [sp, #-1280]	; 0x500
    3904:	04000000 	streq	r0, [r0], #-0
    3908:	000b470c 	andeq	r4, fp, ip, lsl #14
    390c:	9f5f0500 	svcls	0x005f0500
    3910:	08000002 	stmdaeq	r0, {r1}
    3914:	000a870c 	andeq	r8, sl, ip, lsl #14
    3918:	0b600500 	bleq	1804d20 <__bss_end__+0x17fa6f0>
    391c:	88000002 	stmdahi	r0, {r1}
    3920:	5b040e00 	blpl	107128 <__bss_end__+0xfcaf8>
    3924:	09000002 	stmdbeq	r0, {r1}
    3928:	000002af 	andeq	r0, r0, pc, lsr #5
    392c:	000002af 	andeq	r0, r0, pc, lsr #5
    3930:	0000cc0a 	andeq	ip, r0, sl, lsl #24
    3934:	0e001f00 	cdpeq	15, 0, cr1, cr0, cr0, {0}
    3938:	0002b504 	andeq	fp, r2, r4, lsl #10
    393c:	a0101400 	andsge	r1, r0, r0, lsl #8
    3940:	0800000c 	stmdaeq	r0, {r2, r3}
    3944:	02db7305 	sbcseq	r7, fp, #335544320	; 0x14000000
    3948:	6d0c0000 	stcvs	0, cr0, [ip, #-0]
    394c:	0500000a 	streq	r0, [r0, #-10]
    3950:	0002db74 	andeq	sp, r2, r4, ror fp
    3954:	d10c0000 	mrsle	r0, (UNDEF: 12)
    3958:	05000009 	streq	r0, [r0, #-9]
    395c:	00002575 	andeq	r2, r0, r5, ror r5
    3960:	0e000400 	cfcpyseq	mvf0, mvf0
    3964:	00005404 	andeq	r5, r0, r4, lsl #8
    3968:	0cbf1000 	ldceq	0, cr1, [pc]	; 3970 <__code_start__-0x4690>
    396c:	05680000 	strbeq	r0, [r8, #-0]!
    3970:	00040bb3 			; <UNDEFINED> instruction: 0x00040bb3
    3974:	705f1100 	subsvc	r1, pc, r0, lsl #2
    3978:	dbb40500 	blle	fed04d80 <__bss_end__+0xfecfa750>
    397c:	00000002 	andeq	r0, r0, r2
    3980:	00725f11 	rsbseq	r5, r2, r1, lsl pc
    3984:	0025b505 	eoreq	fp, r5, r5, lsl #10
    3988:	11040000 	mrsne	r0, (UNDEF: 4)
    398c:	0500775f 	streq	r7, [r0, #-1887]	; 0x75f
    3990:	000025b6 			; <UNDEFINED> instruction: 0x000025b6
    3994:	a50c0800 	strge	r0, [ip, #-2048]	; 0x800
    3998:	0500000a 	streq	r0, [r0, #-10]
    399c:	00003fb7 			; <UNDEFINED> instruction: 0x00003fb7
    39a0:	b80c0c00 	stmdalt	ip, {sl, fp}
    39a4:	0500000b 	streq	r0, [r0, #-11]
    39a8:	00003fb8 			; <UNDEFINED> instruction: 0x00003fb8
    39ac:	5f110e00 	svcpl	0x00110e00
    39b0:	05006662 	streq	r6, [r0, #-1634]	; 0x662
    39b4:	0002b6b9 			; <UNDEFINED> instruction: 0x0002b6b9
    39b8:	140c1000 	strne	r1, [ip], #-0
    39bc:	0500000a 	streq	r0, [r0, #-10]
    39c0:	000025ba 			; <UNDEFINED> instruction: 0x000025ba
    39c4:	950c1800 	strls	r1, [ip, #-2048]	; 0x800
    39c8:	0500000a 	streq	r0, [r0, #-10]
    39cc:	00010ac1 	andeq	r0, r1, r1, asr #21
    39d0:	3c0c1c00 	stccc	12, cr1, [ip], {-0}
    39d4:	0500000f 	streq	r0, [r0, #-15]
    39d8:	000566c3 	andeq	r6, r5, r3, asr #13
    39dc:	560c2000 	strpl	r2, [ip], -r0
    39e0:	0500000f 	streq	r0, [r0, #-15]
    39e4:	000590c5 	andeq	r9, r5, r5, asr #1
    39e8:	310c2400 	tstcc	ip, r0, lsl #8
    39ec:	0500000d 	streq	r0, [r0, #-13]
    39f0:	0005b4c8 	andeq	fp, r5, r8, asr #9
    39f4:	f60c2800 			; <UNDEFINED> instruction: 0xf60c2800
    39f8:	0500000e 	streq	r0, [r0, #-14]
    39fc:	0005cec9 	andeq	ip, r5, r9, asr #29
    3a00:	5f112c00 	svcpl	0x00112c00
    3a04:	05006275 	streq	r6, [r0, #-629]	; 0x275
    3a08:	0002b6cc 	andeq	fp, r2, ip, asr #13
    3a0c:	5f113000 	svcpl	0x00113000
    3a10:	05007075 	streq	r7, [r0, #-117]	; 0x75
    3a14:	0002dbcd 	andeq	sp, r2, sp, asr #23
    3a18:	5f113800 	svcpl	0x00113800
    3a1c:	05007275 	streq	r7, [r0, #-629]	; 0x275
    3a20:	000025ce 	andeq	r2, r0, lr, asr #11
    3a24:	580c3c00 	stmdapl	ip, {sl, fp, ip, sp}
    3a28:	0500000a 	streq	r0, [r0, #-10]
    3a2c:	0005d4d1 	ldrdeq	sp, [r5], -r1
    3a30:	a10c4000 	mrsge	r4, (UNDEF: 12)
    3a34:	0500000e 	streq	r0, [r0, #-14]
    3a38:	0005e4d2 	ldrdeq	lr, [r5], -r2
    3a3c:	5f114300 	svcpl	0x00114300
    3a40:	0500626c 	streq	r6, [r0, #-620]	; 0x26c
    3a44:	0002b6d5 	ldrdeq	fp, [r2], -r5
    3a48:	bb0c4400 	bllt	314a50 <__bss_end__+0x30a420>
    3a4c:	0500000a 	streq	r0, [r0, #-10]
    3a50:	000025d8 	ldrdeq	r2, [r0], -r8
    3a54:	230c4c00 	movwcs	r4, #52224	; 0xcc00
    3a58:	0500000c 	streq	r0, [r0, #-12]
    3a5c:	00007bd9 	ldrdeq	r7, [r0], -r9
    3a60:	8c0c5000 	stchi	0, cr5, [ip], {-0}
    3a64:	0500000e 	streq	r0, [r0, #-14]
    3a68:	000429dc 	ldrdeq	r2, [r4], -ip
    3a6c:	0b0c5400 	bleq	318a74 <__bss_end__+0x30e444>
    3a70:	0500000c 	streq	r0, [r0, #-12]
    3a74:	0000ffe0 	andeq	pc, r0, r0, ror #31
    3a78:	c70c5800 	strgt	r5, [ip, -r0, lsl #16]
    3a7c:	0500000c 	streq	r0, [r0, #-12]
    3a80:	0000f4e2 	andeq	pc, r0, r2, ror #9
    3a84:	110c5c00 	tstne	ip, r0, lsl #24
    3a88:	0500000c 	streq	r0, [r0, #-12]
    3a8c:	000025e3 	andeq	r2, r0, r3, ror #11
    3a90:	15006400 	strne	r6, [r0, #-1024]	; 0x400
    3a94:	00000025 	andeq	r0, r0, r5, lsr #32
    3a98:	00000429 	andeq	r0, r0, r9, lsr #8
    3a9c:	00042916 	andeq	r2, r4, r6, lsl r9
    3aa0:	010a1600 	tsteq	sl, r0, lsl #12
    3aa4:	0c160000 	ldceq	0, cr0, [r6], {-0}
    3aa8:	16000001 	strne	r0, [r0], -r1
    3aac:	00000025 	andeq	r0, r0, r5, lsr #32
    3ab0:	34040e00 	strcc	r0, [r4], #-3584	; 0xe00
    3ab4:	0f000004 	svceq	0x00000004
    3ab8:	00000429 	andeq	r0, r0, r9, lsr #8
    3abc:	000d1417 	andeq	r1, sp, r7, lsl r4
    3ac0:	05042800 	streq	r2, [r4, #-2048]	; 0x800
    3ac4:	05660238 	strbeq	r0, [r6, #-568]!	; 0x238
    3ac8:	8f180000 	svchi	0x00180000
    3acc:	0500000c 	streq	r0, [r0, #-12]
    3ad0:	0025023a 	eoreq	r0, r5, sl, lsr r2
    3ad4:	18000000 	stmdane	r0, {}	; <UNPREDICTABLE>
    3ad8:	00000ab4 			; <UNDEFINED> instruction: 0x00000ab4
    3adc:	3b023f05 	blcc	936f8 <__bss_end__+0x890c8>
    3ae0:	04000006 	streq	r0, [r0], #-6
    3ae4:	000ba818 	andeq	sl, fp, r8, lsl r8
    3ae8:	023f0500 	eorseq	r0, pc, #0, 10
    3aec:	0000063b 	andeq	r0, r0, fp, lsr r6
    3af0:	0b691808 	bleq	1a49b18 <__bss_end__+0x1a3f4e8>
    3af4:	3f050000 	svccc	0x00050000
    3af8:	00063b02 	andeq	r3, r6, r2, lsl #22
    3afc:	e8180c00 	ldmda	r8, {sl, fp}
    3b00:	0500000c 	streq	r0, [r0, #-12]
    3b04:	00250241 	eoreq	r0, r5, r1, asr #4
    3b08:	18100000 	ldmdane	r0, {}	; <UNPREDICTABLE>
    3b0c:	000009df 	ldrdeq	r0, [r0], -pc	; <UNPREDICTABLE>
    3b10:	1d024205 	sfmne	f4, 4, [r2, #-20]	; 0xffffffec
    3b14:	14000008 	strne	r0, [r0], #-8
    3b18:	000e0618 	andeq	r0, lr, r8, lsl r6
    3b1c:	02440500 	subeq	r0, r4, #0, 10
    3b20:	00000025 	andeq	r0, r0, r5, lsr #32
    3b24:	0cf21830 	ldcleq	8, cr1, [r2], #192	; 0xc0
    3b28:	45050000 	strmi	r0, [r5, #-0]
    3b2c:	00058a02 	andeq	r8, r5, r2, lsl #20
    3b30:	55183400 	ldrpl	r3, [r8, #-1024]	; 0x400
    3b34:	0500000c 	streq	r0, [r0, #-12]
    3b38:	00250247 	eoreq	r0, r5, r7, asr #4
    3b3c:	18380000 	ldmdane	r8!, {}	; <UNPREDICTABLE>
    3b40:	00000d02 	andeq	r0, r0, r2, lsl #26
    3b44:	38024905 	stmdacc	r2, {r0, r2, r8, fp, lr}
    3b48:	3c000008 	stccc	0, cr0, [r0], {8}
    3b4c:	000be718 	andeq	lr, fp, r8, lsl r7
    3b50:	024c0500 	subeq	r0, ip, #0, 10
    3b54:	0000017c 	andeq	r0, r0, ip, ror r1
    3b58:	0b881840 	bleq	fe209c60 <__bss_end__+0xfe1ff630>
    3b5c:	4d050000 	stcmi	0, cr0, [r5, #-0]
    3b60:	00002502 	andeq	r2, r0, r2, lsl #10
    3b64:	10184400 	andsne	r4, r8, r0, lsl #8
    3b68:	0500000f 	streq	r0, [r0, #-15]
    3b6c:	017c024e 	cmneq	ip, lr, asr #4
    3b70:	18480000 	stmdane	r8, {}^	; <UNPREDICTABLE>
    3b74:	00000c6c 	andeq	r0, r0, ip, ror #24
    3b78:	3e024f05 	cdpcc	15, 0, cr4, cr2, cr5, {0}
    3b7c:	4c000008 	stcmi	0, cr0, [r0], {8}
    3b80:	000bb018 	andeq	fp, fp, r8, lsl r0
    3b84:	02520500 	subseq	r0, r2, #0, 10
    3b88:	00000025 	andeq	r0, r0, r5, lsr #32
    3b8c:	0ad71850 	beq	ff5c9cd4 <__bss_end__+0xff5bf6a4>
    3b90:	53050000 	movwpl	r0, #20480	; 0x5000
    3b94:	00010c02 	andeq	r0, r1, r2, lsl #24
    3b98:	88185400 	ldmdahi	r8, {sl, ip, lr}
    3b9c:	0500000c 	streq	r0, [r0, #-12]
    3ba0:	07fb0276 			; <UNDEFINED> instruction: 0x07fb0276
    3ba4:	19580000 	ldmdbne	r8, {}^	; <UNPREDICTABLE>
    3ba8:	00000c4d 	andeq	r0, r0, sp, asr #24
    3bac:	99027a05 	stmdbls	r2, {r0, r2, r9, fp, ip, sp, lr}
    3bb0:	48000002 	stmdami	r0, {r1}
    3bb4:	0bc51901 	bleq	ff149fc0 <__bss_end__+0xff13f990>
    3bb8:	7b050000 	blvc	143bc0 <__bss_end__+0x139590>
    3bbc:	00025b02 	andeq	r5, r2, r2, lsl #22
    3bc0:	19014c00 	stmdbne	r1, {sl, fp, lr}
    3bc4:	00000e72 	andeq	r0, r0, r2, ror lr
    3bc8:	4f027f05 	svcmi	0x00027f05
    3bcc:	dc000008 	stcle	0, cr0, [r0], {8}
    3bd0:	0a9d1902 	beq	fe749fe0 <__bss_end__+0xfe73f9b0>
    3bd4:	84050000 	strhi	r0, [r5], #-0
    3bd8:	00060002 	andeq	r0, r6, r2
    3bdc:	1902e000 	stmdbne	r2, {sp, lr, pc}
    3be0:	00000a82 	andeq	r0, r0, r2, lsl #21
    3be4:	5b028505 	blpl	a5000 <__bss_end__+0x9a9d0>
    3be8:	ec000008 	stc	0, cr0, [r0], {8}
    3bec:	040e0002 	streq	r0, [lr], #-2
    3bf0:	0000040b 	andeq	r0, r0, fp, lsl #8
    3bf4:	00002515 	andeq	r2, r0, r5, lsl r5
    3bf8:	00058a00 	andeq	r8, r5, r0, lsl #20
    3bfc:	04291600 	strteq	r1, [r9], #-1536	; 0x600
    3c00:	0a160000 	beq	583c08 <__bss_end__+0x5795d8>
    3c04:	16000001 	strne	r0, [r0], -r1
    3c08:	0000058a 	andeq	r0, r0, sl, lsl #11
    3c0c:	00002516 	andeq	r2, r0, r6, lsl r5
    3c10:	040e0000 	streq	r0, [lr], #-0
    3c14:	00000119 	andeq	r0, r0, r9, lsl r1
    3c18:	056c040e 	strbeq	r0, [ip, #-1038]!	; 0x40e
    3c1c:	86150000 	ldrhi	r0, [r5], -r0
    3c20:	b4000000 	strlt	r0, [r0], #-0
    3c24:	16000005 	strne	r0, [r0], -r5
    3c28:	00000429 	andeq	r0, r0, r9, lsr #8
    3c2c:	00010a16 	andeq	r0, r1, r6, lsl sl
    3c30:	00861600 	addeq	r1, r6, r0, lsl #12
    3c34:	25160000 	ldrcs	r0, [r6, #-0]
    3c38:	00000000 	andeq	r0, r0, r0
    3c3c:	0596040e 	ldreq	r0, [r6, #1038]	; 0x40e
    3c40:	25150000 	ldrcs	r0, [r5, #-0]
    3c44:	ce000000 	cdpgt	0, 0, cr0, cr0, cr0, {0}
    3c48:	16000005 	strne	r0, [r0], -r5
    3c4c:	00000429 	andeq	r0, r0, r9, lsr #8
    3c50:	00010a16 	andeq	r0, r1, r6, lsl sl
    3c54:	040e0000 	streq	r0, [lr], #-0
    3c58:	000005ba 			; <UNDEFINED> instruction: 0x000005ba
    3c5c:	00005409 	andeq	r5, r0, r9, lsl #8
    3c60:	0005e400 	andeq	lr, r5, r0, lsl #8
    3c64:	00cc0a00 	sbceq	r0, ip, r0, lsl #20
    3c68:	00020000 	andeq	r0, r2, r0
    3c6c:	00005409 	andeq	r5, r0, r9, lsl #8
    3c70:	0005f400 	andeq	pc, r5, r0, lsl #8
    3c74:	00cc0a00 	sbceq	r0, ip, r0, lsl #20
    3c78:	00000000 	andeq	r0, r0, r0
    3c7c:	000cad06 	andeq	sl, ip, r6, lsl #26
    3c80:	011d0500 	tsteq	sp, r0, lsl #10
    3c84:	000002e1 	andeq	r0, r0, r1, ror #5
    3c88:	000e341a 	andeq	r3, lr, sl, lsl r4
    3c8c:	21050c00 	tstcs	r5, r0, lsl #24
    3c90:	00063501 	andeq	r3, r6, r1, lsl #10
    3c94:	0cd51800 	ldcleq	8, cr1, [r5], {0}
    3c98:	23050000 	movwcs	r0, #20480	; 0x5000
    3c9c:	00063501 	andeq	r3, r6, r1, lsl #10
    3ca0:	be180000 	cdplt	0, 1, cr0, cr8, cr0, {0}
    3ca4:	0500000b 	streq	r0, [r0, #-11]
    3ca8:	00250124 	eoreq	r0, r5, r4, lsr #2
    3cac:	18040000 	stmdane	r4, {}	; <UNPREDICTABLE>
    3cb0:	00000ca7 	andeq	r0, r0, r7, lsr #25
    3cb4:	3b012505 	blcc	4d0d0 <__bss_end__+0x42aa0>
    3cb8:	08000006 	stmdaeq	r0, {r1, r2}
    3cbc:	00040e00 	andeq	r0, r4, r0, lsl #28
    3cc0:	0e000006 	cdpeq	0, 0, cr0, cr0, cr6, {0}
    3cc4:	0005f404 	andeq	pc, r5, r4, lsl #8
    3cc8:	09d71a00 	ldmibeq	r7, {r9, fp, ip}^
    3ccc:	050e0000 	streq	r0, [lr, #-0]
    3cd0:	0676013d 			; <UNDEFINED> instruction: 0x0676013d
    3cd4:	1b180000 	blne	603cdc <__bss_end__+0x5f96ac>
    3cd8:	0500000d 	streq	r0, [r0, #-13]
    3cdc:	0676013e 			; <UNDEFINED> instruction: 0x0676013e
    3ce0:	18000000 	stmdane	r0, {}	; <UNPREDICTABLE>
    3ce4:	00000d55 	andeq	r0, r0, r5, asr sp
    3ce8:	76013f05 	strvc	r3, [r1], -r5, lsl #30
    3cec:	06000006 	streq	r0, [r0], -r6
    3cf0:	000dd918 	andeq	sp, sp, r8, lsl r9
    3cf4:	01400500 	cmpeq	r0, r0, lsl #10
    3cf8:	0000005b 	andeq	r0, r0, fp, asr r0
    3cfc:	5b09000c 	blpl	243d34 <__bss_end__+0x239704>
    3d00:	86000000 	strhi	r0, [r0], -r0
    3d04:	0a000006 	beq	3d24 <__code_start__-0x42dc>
    3d08:	000000cc 	andeq	r0, r0, ip, asr #1
    3d0c:	d01b0002 	andsle	r0, fp, r2
    3d10:	87025705 	strhi	r5, [r2, -r5, lsl #14]
    3d14:	18000007 	stmdane	r0, {r0, r1, r2}
    3d18:	00000e18 	andeq	r0, r0, r8, lsl lr
    3d1c:	2c025905 	stccs	9, cr5, [r2], {5}
    3d20:	00000000 	andeq	r0, r0, r0
    3d24:	000dc318 	andeq	ip, sp, r8, lsl r3
    3d28:	025a0500 	subseq	r0, sl, #0, 10
    3d2c:	0000010c 	andeq	r0, r0, ip, lsl #2
    3d30:	0bda1804 	bleq	ff689d48 <__bss_end__+0xff67f718>
    3d34:	5b050000 	blpl	143d3c <__bss_end__+0x13970c>
    3d38:	00078702 	andeq	r8, r7, r2, lsl #14
    3d3c:	e7180800 	ldr	r0, [r8, -r0, lsl #16]
    3d40:	0500000e 	streq	r0, [r0, #-14]
    3d44:	0192025c 	orrseq	r0, r2, ip, asr r2
    3d48:	18240000 	stmdane	r4!, {}	; <UNPREDICTABLE>
    3d4c:	00000b79 	andeq	r0, r0, r9, ror fp
    3d50:	25025d05 	strcs	r5, [r2, #-3333]	; 0xd05
    3d54:	48000000 	stmdami	r0, {}	; <UNPREDICTABLE>
    3d58:	000cd018 	andeq	sp, ip, r8, lsl r0
    3d5c:	025e0500 	subseq	r0, lr, #0, 10
    3d60:	00000069 	andeq	r0, r0, r9, rrx
    3d64:	0efd1850 	mrceq	8, 7, r1, cr13, cr0, {2}
    3d68:	5f050000 	svcpl	0x00050000
    3d6c:	00064102 	andeq	r4, r6, r2, lsl #2
    3d70:	db185800 	blle	619d78 <__bss_end__+0x60f748>
    3d74:	0500000c 	streq	r0, [r0, #-12]
    3d78:	00f40260 	rscseq	r0, r4, r0, ror #4
    3d7c:	18680000 	stmdane	r8!, {}^	; <UNPREDICTABLE>
    3d80:	00000f02 	andeq	r0, r0, r2, lsl #30
    3d84:	f4026105 	vst4.8	{d6,d8,d10,d12}, [r2], r5
    3d88:	70000000 	andvc	r0, r0, r0
    3d8c:	000a3c18 	andeq	r3, sl, r8, lsl ip
    3d90:	02620500 	rsbeq	r0, r2, #0, 10
    3d94:	000000f4 	strdeq	r0, [r0], -r4
    3d98:	0e541878 	mrceq	8, 2, r1, cr4, cr8, {3}
    3d9c:	63050000 	movwvs	r0, #20480	; 0x5000
    3da0:	00079702 	andeq	r9, r7, r2, lsl #14
    3da4:	ce188000 	cdpgt	0, 1, cr8, cr8, cr0, {0}
    3da8:	0500000b 	streq	r0, [r0, #-11]
    3dac:	07a70264 	streq	r0, [r7, r4, ror #4]!
    3db0:	18880000 	stmne	r8, {}	; <UNPREDICTABLE>
    3db4:	00000de6 	andeq	r0, r0, r6, ror #27
    3db8:	25026505 	strcs	r6, [r2, #-1285]	; 0x505
    3dbc:	a0000000 	andge	r0, r0, r0
    3dc0:	000b2518 	andeq	r2, fp, r8, lsl r5
    3dc4:	02660500 	rsbeq	r0, r6, #0, 10
    3dc8:	000000f4 	strdeq	r0, [r0], -r4
    3dcc:	0a2d18a4 	beq	b4a064 <__bss_end__+0xb3fa34>
    3dd0:	67050000 	strvs	r0, [r5, -r0]
    3dd4:	0000f402 	andeq	pc, r0, r2, lsl #8
    3dd8:	1418ac00 	ldrne	sl, [r8], #-3072	; 0xc00
    3ddc:	0500000b 	streq	r0, [r0, #-11]
    3de0:	00f40268 	rscseq	r0, r4, r8, ror #4
    3de4:	18b40000 	ldmne	r4!, {}	; <UNPREDICTABLE>
    3de8:	000009f4 	strdeq	r0, [r0], -r4
    3dec:	f4026905 	vst2.8	{d6,d8}, [r2], r5
    3df0:	bc000000 	stclt	0, cr0, [r0], {-0}
    3df4:	000a0318 	andeq	r0, sl, r8, lsl r3
    3df8:	026a0500 	rsbeq	r0, sl, #0, 10
    3dfc:	000000f4 	strdeq	r0, [r0], -r4
    3e00:	0c8d18c4 	stceq	8, cr1, [sp], {196}	; 0xc4
    3e04:	6b050000 	blvs	143e0c <__bss_end__+0x1397dc>
    3e08:	00002502 	andeq	r2, r0, r2, lsl #10
    3e0c:	0900cc00 	stmdbeq	r0, {sl, fp, lr, pc}
    3e10:	00000112 	andeq	r0, r0, r2, lsl r1
    3e14:	00000797 	muleq	r0, r7, r7
    3e18:	0000cc0a 	andeq	ip, r0, sl, lsl #24
    3e1c:	09001900 	stmdbeq	r0, {r8, fp, ip}
    3e20:	00000112 	andeq	r0, r0, r2, lsl r1
    3e24:	000007a7 	andeq	r0, r0, r7, lsr #15
    3e28:	0000cc0a 	andeq	ip, r0, sl, lsl #24
    3e2c:	09000700 	stmdbeq	r0, {r8, r9, sl}
    3e30:	00000112 	andeq	r0, r0, r2, lsl r1
    3e34:	000007b7 			; <UNDEFINED> instruction: 0x000007b7
    3e38:	0000cc0a 	andeq	ip, r0, sl, lsl #24
    3e3c:	1b001700 	blne	9a44 <__data_end__+0x3c>
    3e40:	027005f0 	rsbseq	r0, r0, #240, 10	; 0x3c000000
    3e44:	000007db 	ldrdeq	r0, [r0], -fp
    3e48:	000c3d18 	andeq	r3, ip, r8, lsl sp
    3e4c:	02730500 	rsbseq	r0, r3, #0, 10
    3e50:	000007db 	ldrdeq	r0, [r0], -fp
    3e54:	0e4b1800 	cdpeq	8, 4, cr1, cr11, cr0, {0}
    3e58:	74050000 	strvc	r0, [r5], #-0
    3e5c:	0007eb02 	andeq	lr, r7, r2, lsl #22
    3e60:	09007800 	stmdbeq	r0, {fp, ip, sp, lr}
    3e64:	000002db 	ldrdeq	r0, [r0], -fp
    3e68:	000007eb 	andeq	r0, r0, fp, ror #15
    3e6c:	0000cc0a 	andeq	ip, r0, sl, lsl #24
    3e70:	09001d00 	stmdbeq	r0, {r8, sl, fp, ip}
    3e74:	0000002c 	andeq	r0, r0, ip, lsr #32
    3e78:	000007fb 	strdeq	r0, [r0], -fp
    3e7c:	0000cc0a 	andeq	ip, r0, sl, lsl #24
    3e80:	1c001d00 	stcne	13, cr1, [r0], {-0}
    3e84:	025505f0 	subseq	r0, r5, #240, 10	; 0x3c000000
    3e88:	0000081d 	andeq	r0, r0, sp, lsl r8
    3e8c:	000d141d 	andeq	r1, sp, sp, lsl r4
    3e90:	026c0500 	rsbeq	r0, ip, #0, 10
    3e94:	00000686 	andeq	r0, r0, r6, lsl #13
    3e98:	000ea71d 	andeq	sl, lr, sp, lsl r7
    3e9c:	02750500 	rsbseq	r0, r5, #0, 10
    3ea0:	000007b7 			; <UNDEFINED> instruction: 0x000007b7
    3ea4:	01120900 	tsteq	r2, r0, lsl #18
    3ea8:	082d0000 	stmdaeq	sp!, {}	; <UNPREDICTABLE>
    3eac:	cc0a0000 	stcgt	0, cr0, [sl], {-0}
    3eb0:	18000000 	stmdane	r0, {}	; <UNPREDICTABLE>
    3eb4:	08381e00 	ldmdaeq	r8!, {r9, sl, fp, ip}
    3eb8:	29160000 	ldmdbcs	r6, {}	; <UNPREDICTABLE>
    3ebc:	00000004 	andeq	r0, r0, r4
    3ec0:	082d040e 	stmdaeq	sp!, {r1, r2, r3, sl}
    3ec4:	040e0000 	streq	r0, [lr], #-0
    3ec8:	0000017c 	andeq	r0, r0, ip, ror r1
    3ecc:	00084f1e 	andeq	r4, r8, lr, lsl pc
    3ed0:	00251600 	eoreq	r1, r5, r0, lsl #12
    3ed4:	0e000000 	cdpeq	0, 0, cr0, cr0, cr0, {0}
    3ed8:	00085504 	andeq	r5, r8, r4, lsl #10
    3edc:	44040e00 	strmi	r0, [r4], #-3584	; 0xe00
    3ee0:	09000008 	stmdbeq	r0, {r3}
    3ee4:	000005f4 	strdeq	r0, [r0], -r4
    3ee8:	0000086b 	andeq	r0, r0, fp, ror #16
    3eec:	0000cc0a 	andeq	ip, r0, sl, lsl #24
    3ef0:	1f000200 	svcne	0x00000200
    3ef4:	00000dfa 	strdeq	r0, [r0], -sl
    3ef8:	2902fd05 	stmdbcs	r2, {r0, r2, r8, sl, fp, ip, sp, lr, pc}
    3efc:	1f000004 	svcne	0x00000004
    3f00:	00000df3 	strdeq	r0, [r0], -r3
    3f04:	2f02fe05 	svccs	0x0002fe05
    3f08:	15000004 	strne	r0, [r0, #-4]
    3f0c:	00000025 	andeq	r0, r0, r5, lsr #32
    3f10:	00000892 	muleq	r0, r2, r8
    3f14:	00002516 	andeq	r2, r0, r6, lsl r5
    3f18:	f4200000 	vld4.8	{d0-d3}, [r0], r0
    3f1c:	06000005 	streq	r0, [r0], -r5
    3f20:	00089d1d 	andeq	r9, r8, sp, lsl sp
    3f24:	83040e00 	movwhi	r0, #19968	; 0x4e00
    3f28:	15000008 	strne	r0, [r0, #-8]
    3f2c:	00000025 	andeq	r0, r0, r5, lsr #32
    3f30:	000008b2 			; <UNDEFINED> instruction: 0x000008b2
    3f34:	00058a16 	andeq	r8, r5, r6, lsl sl
    3f38:	31200000 	teqcc	r0, r0
    3f3c:	06000006 	streq	r0, [r0], -r6
    3f40:	0008bd22 	andeq	fp, r8, r2, lsr #26
    3f44:	a3040e00 	movwge	r0, #19968	; 0x4e00
    3f48:	21000008 	tstcs	r0, r8
    3f4c:	00005401 	andeq	r5, r0, r1, lsl #8
    3f50:	000c0800 	andeq	r0, ip, r0, lsl #16
    3f54:	22000009 	andcs	r0, r0, #9
    3f58:	00000a1d 	andeq	r0, r0, sp, lsl sl
    3f5c:	0e3a2200 	cdpeq	2, 3, cr2, cr10, cr0, {0}
    3f60:	22010000 	andcs	r0, r1, #0
    3f64:	00000e92 	muleq	r0, r2, lr
    3f68:	0a5e2204 	beq	178c780 <__bss_end__+0x1782150>
    3f6c:	22050000 	andcs	r0, r5, #0
    3f70:	00000bf5 	strdeq	r0, [r0], -r5
    3f74:	0eaf2206 	cdpeq	2, 10, cr2, cr15, cr6, {0}
    3f78:	22070000 	andcs	r0, r7, #0
    3f7c:	00000ebe 			; <UNDEFINED> instruction: 0x00000ebe
    3f80:	0ecd2203 	cdpeq	2, 12, cr2, cr13, cr3, {0}
    3f84:	00020000 	andeq	r0, r2, r0
    3f88:	000acb10 	andeq	ip, sl, r0, lsl fp
    3f8c:	06072c00 	streq	r2, [r7], -r0, lsl #24
    3f90:	00000990 	muleq	r0, r0, r9
    3f94:	006f6911 	rsbeq	r6, pc, r1, lsl r9	; <UNPREDICTABLE>
    3f98:	00330907 	eorseq	r0, r3, r7, lsl #18
    3f9c:	11000000 	mrsne	r0, (UNDEF: 0)
    3fa0:	00726569 	rsbseq	r6, r2, r9, ror #10
    3fa4:	00330a07 	eorseq	r0, r3, r7, lsl #20
    3fa8:	11040000 	mrsne	r0, (UNDEF: 4)
    3fac:	00726969 	rsbseq	r6, r2, r9, ror #18
    3fb0:	00331107 	eorseq	r1, r3, r7, lsl #2
    3fb4:	11080000 	mrsne	r0, (UNDEF: 8)
    3fb8:	0072636c 	rsbseq	r6, r2, ip, ror #6
    3fbc:	00331307 	eorseq	r1, r3, r7, lsl #6
    3fc0:	110c0000 	mrsne	r0, (UNDEF: 12)
    3fc4:	0072636d 	rsbseq	r6, r2, sp, ror #6
    3fc8:	00331407 	eorseq	r1, r3, r7, lsl #8
    3fcc:	11100000 	tstne	r0, r0
    3fd0:	0072736c 	rsbseq	r7, r2, ip, ror #6
    3fd4:	00331507 	eorseq	r1, r3, r7, lsl #10
    3fd8:	11140000 	tstne	r4, r0
    3fdc:	0072736d 	rsbseq	r7, r2, sp, ror #6
    3fe0:	00331607 	eorseq	r1, r3, r7, lsl #12
    3fe4:	0c180000 	ldceq	0, cr0, [r8], {-0}
    3fe8:	00000d4d 	andeq	r0, r0, sp, asr #26
    3fec:	00331707 	eorseq	r1, r3, r7, lsl #14
    3ff0:	0c1c0000 	ldceq	0, cr0, [ip], {-0}
    3ff4:	00000a73 	andeq	r0, r0, r3, ror sl
    3ff8:	00331b07 	eorseq	r1, r3, r7, lsl #22
    3ffc:	0c200000 	stceq	0, cr0, [r0], #-0
    4000:	00000a53 	andeq	r0, r0, r3, asr sl
    4004:	00331d07 	eorseq	r1, r3, r7, lsl #26
    4008:	0c240000 	stceq	0, cr0, [r4], #-0
    400c:	00000d37 	andeq	r0, r0, r7, lsr sp
    4010:	00331e07 	eorseq	r1, r3, r7, lsl #28
    4014:	00280000 	eoreq	r0, r8, r0
    4018:	000b3b23 	andeq	r3, fp, r3, lsr #22
    401c:	a5070100 	strge	r0, [r7, #-256]	; 0x100
    4020:	04000009 	streq	r0, [r0], #-9
    4024:	0e202150 	mcreq	1, 1, r2, cr0, cr0, {2}
    4028:	00003304 	andeq	r3, r0, r4, lsl #6
    402c:	099f0f00 	ldmibeq	pc, {r8, r9, sl, fp}	; <UNPREDICTABLE>
    4030:	67230000 	strvs	r0, [r3, -r0]!
    4034:	0100000c 	tsteq	r0, ip
    4038:	0009bf28 	andeq	fp, r9, r8, lsr #30
    403c:	21504000 	cmpcs	r0, r0
    4040:	00040e20 	andeq	r0, r4, r0, lsr #28
    4044:	0f000009 	svceq	0x00000009
    4048:	000009b9 			; <UNDEFINED> instruction: 0x000009b9
    404c:	000e8424 	andeq	r8, lr, r4, lsr #8
    4050:	25a70100 	strcs	r0, [r7, #256]!	; 0x100
    4054:	d0000000 	andle	r0, r0, r0
    4058:	10000098 	mulne	r0, r8, r0
    405c:	01000000 	mrseq	r0, (UNDEF: 0)
    4060:	0009f09c 	muleq	r9, ip, r0
    4064:	98d82500 	ldmls	r8, {r8, sl, sp}^
    4068:	0c9c0000 	ldceq	0, cr0, [ip], {0}
    406c:	dc250000 	stcle	0, cr0, [r5], #-0
    4070:	d2000098 	andle	r0, r0, #152	; 0x98
    4074:	0000000a 	andeq	r0, r0, sl
    4078:	0005d926 	andeq	sp, r5, r6, lsr #18
    407c:	a09f0100 	addsge	r0, pc, r0, lsl #2
    4080:	30000098 	mulcc	r0, r8, r0
    4084:	01000000 	mrseq	r0, (UNDEF: 0)
    4088:	000a4e9c 	muleq	sl, ip, lr
    408c:	00632700 	rsbeq	r2, r3, r0, lsl #14
    4090:	002c9f01 	eoreq	r9, ip, r1, lsl #30
    4094:	0f1b0000 	svceq	0x001b0000
    4098:	ac250000 	stcge	0, cr0, [r5], #-0
    409c:	9c000098 	stcls	0, cr0, [r0], {152}	; 0x98
    40a0:	2500000c 	strcs	r0, [r0, #-12]
    40a4:	000098b0 			; <UNDEFINED> instruction: 0x000098b0
    40a8:	00000aa5 	andeq	r0, r0, r5, lsr #21
    40ac:	0098c428 	addseq	ip, r8, r8, lsr #8
    40b0:	000ca700 	andeq	sl, ip, r0, lsl #14
    40b4:	000a4400 	andeq	r4, sl, r0, lsl #8
    40b8:	50012900 	andpl	r2, r1, r0, lsl #18
    40bc:	50400c05 	subpl	r0, r0, r5, lsl #24
    40c0:	01292021 	teqeq	r9, r1, lsr #32
    40c4:	00740551 	rsbseq	r0, r4, r1, asr r5
    40c8:	001aff08 	andseq	pc, sl, r8, lsl #30
    40cc:	0098c825 	addseq	ip, r8, r5, lsr #16
    40d0:	000c9c00 	andeq	r9, ip, r0, lsl #24
    40d4:	9e240000 	cdpls	0, 2, cr0, cr4, cr0, {0}
    40d8:	0100000b 	tsteq	r0, fp
    40dc:	00002597 	muleq	r0, r7, r5
    40e0:	00987000 	addseq	r7, r8, r0
    40e4:	00003000 	andeq	r3, r0, r0
    40e8:	a59c0100 	ldrge	r0, [ip, #256]	; 0x100
    40ec:	2a00000a 	bcs	411c <__code_start__-0x3ee4>
    40f0:	9b010063 	blls	44284 <__bss_end__+0x39c54>
    40f4:	00000025 	andeq	r0, r0, r5, lsr #32
    40f8:	78255401 	stmdavc	r5!, {r0, sl, ip, lr}
    40fc:	9c000098 	stcls	0, cr0, [r0], {152}	; 0x98
    4100:	2500000c 	strcs	r0, [r0, #-12]
    4104:	0000987c 	andeq	r9, r0, ip, ror r8
    4108:	00000ad2 	ldrdeq	r0, [r0], -r2
    410c:	00988c28 	addseq	r8, r8, r8, lsr #24
    4110:	000cb200 	andeq	fp, ip, r0, lsl #4
    4114:	000a9b00 	andeq	r9, sl, r0, lsl #22
    4118:	50012900 	andpl	r2, r1, r0, lsl #18
    411c:	50400c05 	subpl	r0, r0, r5, lsl #24
    4120:	25002021 	strcs	r2, [r0, #-33]	; 0x21
    4124:	00009894 	muleq	r0, r4, r8
    4128:	00000c9c 	muleq	r0, ip, ip
    412c:	0b522400 	bleq	148d134 <__bss_end__+0x1482b04>
    4130:	88010000 	stmdahi	r1, {}	; <UNPREDICTABLE>
    4134:	00000025 	andeq	r0, r0, r5, lsr #32
    4138:	00009850 	andeq	r9, r0, r0, asr r8
    413c:	00000020 	andeq	r0, r0, r0, lsr #32
    4140:	0ad29c01 	beq	ff4ab14c <__bss_end__+0xff4a0b1c>
    4144:	5c2b0000 	stcpl	0, cr0, [fp], #-0
    4148:	b2000098 	andlt	r0, r0, #152	; 0x98
    414c:	2900000c 	stmdbcs	r0, {r2, r3}
    4150:	0c055001 	stceq	0, cr5, [r5], {1}
    4154:	20215064 	eorcs	r5, r1, r4, rrx
    4158:	64240000 	strtvs	r0, [r4], #-0
    415c:	0100000e 	tsteq	r0, lr
    4160:	0000257f 	andeq	r2, r0, pc, ror r5
    4164:	00983800 	addseq	r3, r8, r0, lsl #16
    4168:	00001800 	andeq	r1, r0, r0, lsl #16
    416c:	ff9c0100 			; <UNDEFINED> instruction: 0xff9c0100
    4170:	2b00000a 	blcs	41a0 <__code_start__-0x3e60>
    4174:	00009844 	andeq	r9, r0, r4, asr #16
    4178:	00000cb2 			; <UNDEFINED> instruction: 0x00000cb2
    417c:	05500129 	ldrbeq	r0, [r0, #-297]	; 0x129
    4180:	2150640c 	cmpcs	r0, ip, lsl #8
    4184:	26000020 	strcs	r0, [r0], -r0, lsr #32
    4188:	000009ea 	andeq	r0, r0, sl, ror #19
    418c:	97883a01 	strls	r3, [r8, r1, lsl #20]
    4190:	00b00000 	adcseq	r0, r0, r0
    4194:	9c010000 	stcls	0, cr0, [r1], {-0}
    4198:	00000c3d 	andeq	r0, r0, sp, lsr ip
    419c:	00979828 	addseq	r9, r7, r8, lsr #16
    41a0:	000cbd00 	andeq	fp, ip, r0, lsl #26
    41a4:	000b2c00 	andeq	r2, fp, r0, lsl #24
    41a8:	50012900 	andpl	r2, r1, r0, lsl #18
    41ac:	01293e01 	teqeq	r9, r1, lsl #28
    41b0:	00320151 	eorseq	r0, r2, r1, asr r1
    41b4:	0097a428 	addseq	sl, r7, r8, lsr #8
    41b8:	000cbd00 	andeq	fp, ip, r0, lsl #26
    41bc:	000b4400 	andeq	r4, fp, r0, lsl #8
    41c0:	50012900 	andpl	r2, r1, r0, lsl #18
    41c4:	01293f01 	teqeq	r9, r1, lsl #30
    41c8:	00320151 	eorseq	r0, r2, r1, asr r1
    41cc:	0097a825 	addseq	sl, r7, r5, lsr #16
    41d0:	000c9c00 	andeq	r9, ip, r0, lsl #24
    41d4:	97b42800 	ldrls	r2, [r4, r0, lsl #16]!
    41d8:	0c3d0000 	ldceq	0, cr0, [sp], #-0
    41dc:	0b690000 	bleq	1a441e4 <__bss_end__+0x1a39bb4>
    41e0:	01290000 	teqeq	r9, r0
    41e4:	040c0550 	streq	r0, [ip], #-1360	; 0x550
    41e8:	29202150 	stmdbcs	r0!, {r4, r6, r8, sp}
    41ec:	31015101 	tstcc	r1, r1, lsl #2
    41f0:	97b82500 	ldrls	r2, [r8, r0, lsl #10]!
    41f4:	0c9c0000 	ldceq	0, cr0, [ip], {0}
    41f8:	c8280000 	stmdagt	r8!, {}	; <UNPREDICTABLE>
    41fc:	a7000097 			; <UNDEFINED> instruction: 0xa7000097
    4200:	8b00000c 	blhi	4238 <__code_start__-0x3dc8>
    4204:	2900000b 	stmdbcs	r0, {r0, r1, r3}
    4208:	74025001 	strvc	r5, [r2], #-1
    420c:	51012900 	tstpl	r1, r0, lsl #18
    4210:	28003001 	stmdacs	r0, {r0, ip, sp}
    4214:	000097d4 	ldrdeq	r9, [r0], -r4
    4218:	00000ca7 	andeq	r0, r0, r7, lsr #25
    421c:	00000ba7 	andeq	r0, r0, r7, lsr #23
    4220:	05500129 	ldrbeq	r0, [r0, #-297]	; 0x129
    4224:	2150440c 	cmpcs	r0, ip, lsl #8
    4228:	51012920 	tstpl	r1, r0, lsr #18
    422c:	28003001 	stmdacs	r0, {r0, ip, sp}
    4230:	000097e0 	andeq	r9, r0, r0, ror #15
    4234:	00000ca7 	andeq	r0, r0, r7, lsr #25
    4238:	00000bc3 	andeq	r0, r0, r3, asr #23
    423c:	05500129 	ldrbeq	r0, [r0, #-297]	; 0x129
    4240:	21504c0c 	cmpcs	r0, ip, lsl #24
    4244:	51012920 	tstpl	r1, r0, lsr #18
    4248:	28003301 	stmdacs	r0, {r0, r8, r9, ip, sp}
    424c:	000097ec 	andeq	r9, r0, ip, ror #15
    4250:	00000ca7 	andeq	r0, r0, r7, lsr #25
    4254:	00000bdf 	ldrdeq	r0, [r0], -pc	; <UNPREDICTABLE>
    4258:	05500129 	ldrbeq	r0, [r0, #-297]	; 0x129
    425c:	2150500c 	cmpcs	r0, ip
    4260:	51012920 	tstpl	r1, r0, lsr #18
    4264:	28003001 	stmdacs	r0, {r0, ip, sp}
    4268:	000097f8 	strdeq	r9, [r0], -r8
    426c:	00000ca7 	andeq	r0, r0, r7, lsr #25
    4270:	00000bfc 	strdeq	r0, [r0], -ip
    4274:	05500129 	ldrbeq	r0, [r0, #-297]	; 0x129
    4278:	2150480c 	cmpcs	r0, ip, lsl #16
    427c:	51012920 	tstpl	r1, r0, lsr #18
    4280:	00c70802 	sbceq	r0, r7, r2, lsl #16
    4284:	00980428 	addseq	r0, r8, r8, lsr #8
    4288:	000ca700 	andeq	sl, ip, r0, lsl #14
    428c:	000c1a00 	andeq	r1, ip, r0, lsl #20
    4290:	50012900 	andpl	r2, r1, r0, lsl #18
    4294:	50680c05 	rsbpl	r0, r8, r5, lsl #24
    4298:	01292021 	teqeq	r9, r1, lsr #32
    429c:	0e0a0351 	mcreq	3, 0, r0, cr10, cr1, {2}
    42a0:	10280001 	eorne	r0, r8, r1
    42a4:	a7000098 			; <UNDEFINED> instruction: 0xa7000098
    42a8:	3300000c 	movwcc	r0, #12
    42ac:	2900000c 	stmdbcs	r0, {r2, r3}
    42b0:	74025001 	strvc	r5, [r2], #-1
    42b4:	51012900 	tstpl	r1, r0, lsl #18
    42b8:	25003301 	strcs	r3, [r0, #-769]	; 0x301
    42bc:	00009814 	andeq	r9, r0, r4, lsl r8
    42c0:	00000c9c 	muleq	r0, ip, ip
    42c4:	0e7c2c00 	cdpeq	12, 7, cr2, cr12, cr0, {0}
    42c8:	2d010000 	stccs	0, cr0, [r1, #-0]
    42cc:	00009768 	andeq	r9, r0, r8, ror #14
    42d0:	00000020 	andeq	r0, r0, r0, lsr #32
    42d4:	0c959c01 	ldceq	12, cr9, [r5], {1}
    42d8:	092d0000 	pusheq	{}	; <UNPREDICTABLE>
    42dc:	01000002 	tsteq	r0, r2
    42e0:	000c952d 	andeq	r9, ip, sp, lsr #10
    42e4:	000f3900 	andeq	r3, pc, r0, lsl #18
    42e8:	61762700 	cmnvs	r6, r0, lsl #14
    42ec:	2d01006c 	stccs	0, cr0, [r1, #-432]	; 0xfffffe50
    42f0:	0000002c 	andeq	r0, r0, ip, lsr #32
    42f4:	00000f57 	andeq	r0, r0, r7, asr pc
    42f8:	00977828 	addseq	r7, r7, r8, lsr #16
    42fc:	000cb200 	andeq	fp, ip, r0, lsl #4
    4300:	000c8400 	andeq	r8, ip, r0, lsl #8
    4304:	50012900 	andpl	r2, r1, r0, lsl #18
    4308:	00007402 	andeq	r7, r0, r2, lsl #8
    430c:	0097842b 	addseq	r8, r7, fp, lsr #8
    4310:	000ca700 	andeq	sl, ip, r0, lsl #14
    4314:	50012900 	andpl	r2, r1, r0, lsl #18
    4318:	00007402 	andeq	r7, r0, r2, lsl #8
    431c:	9b040e00 	blls	107b24 <__bss_end__+0xfd4f4>
    4320:	2e00000c 	cdpcs	0, 0, cr0, cr0, cr12, {0}
    4324:	0008a02f 	andeq	sl, r8, pc, lsr #32
    4328:	0008a000 	andeq	sl, r8, r0
    432c:	2f890600 	svccs	0x00890600
    4330:	00000d5b 	andeq	r0, r0, fp, asr sp
    4334:	00000d5b 	andeq	r0, r0, fp, asr sp
    4338:	5e2f9c06 	cdppl	12, 2, cr9, cr15, cr6, {0}
    433c:	5e00000e 	cdppl	0, 0, cr0, cr0, cr14, {0}
    4340:	0600000e 	streq	r0, [r0], -lr
    4344:	0c2b2fa8 	stceq	15, cr2, [fp], #-672	; 0xfffffd60
    4348:	0c2b0000 	stceq	0, cr0, [fp], #-0
    434c:	19080000 	stmdbne	r8, {}	; <UNPREDICTABLE>
    4350:	000b7000 	andeq	r7, fp, r0
    4354:	ac000400 	cfstrsge	mvf0, [r0], {-0}
    4358:	04000015 	streq	r0, [r0], #-21
    435c:	000d6101 	andeq	r6, sp, r1, lsl #2
    4360:	0f310c00 	svceq	0x00310c00
    4364:	0adf0000 	beq	ff7c436c <__bss_end__+0xff7b9d3c>
    4368:	98e00000 	stmials	r0!, {}^	; <UNPREDICTABLE>
    436c:	01200000 	teqeq	r0, r0
    4370:	11470000 	mrsne	r0, (UNDEF: 71)
    4374:	04020000 	streq	r0, [r2], #-0
    4378:	746e6905 	strbtvc	r6, [lr], #-2309	; 0x905
    437c:	07040300 	streq	r0, [r4, -r0, lsl #6]
    4380:	000001bd 			; <UNDEFINED> instruction: 0x000001bd
    4384:	00002c04 	andeq	r2, r0, r4, lsl #24
    4388:	06010300 	streq	r0, [r1], -r0, lsl #6
    438c:	000000c2 	andeq	r0, r0, r2, asr #1
    4390:	0f050203 	svceq	0x00050203
    4394:	03000000 	movweq	r0, #0
    4398:	01f10504 	mvnseq	r0, r4, lsl #10
    439c:	08030000 	stmdaeq	r3, {}	; <UNPREDICTABLE>
    43a0:	0001ec05 	andeq	lr, r1, r5, lsl #24
    43a4:	08010300 	stmdaeq	r1, {r8, r9}
    43a8:	000000c0 	andeq	r0, r0, r0, asr #1
    43ac:	e6070203 	str	r0, [r7], -r3, lsl #4
    43b0:	03000000 	movweq	r0, #0
    43b4:	01b80704 			; <UNDEFINED> instruction: 0x01b80704
    43b8:	08030000 	stmdaeq	r3, {}	; <UNPREDICTABLE>
    43bc:	0001b307 	andeq	fp, r1, r7, lsl #6
    43c0:	0c760500 	cfldr64eq	mvdx0, [r6], #-0
    43c4:	07020000 	streq	r0, [r2, -r0]
    43c8:	00000025 	andeq	r0, r0, r5, lsr #32
    43cc:	000c6005 	andeq	r6, ip, r5
    43d0:	462c0300 	strtmi	r0, [ip], -r0, lsl #6
    43d4:	05000000 	streq	r0, [r0, #-0]
    43d8:	00000d3c 	andeq	r0, r0, ip, lsr sp
    43dc:	00467203 	subeq	r7, r6, r3, lsl #4
    43e0:	04060000 	streq	r0, [r6], #-0
    43e4:	0400000c 	streq	r0, [r0], #-12
    43e8:	002c0165 	eoreq	r0, ip, r5, ror #2
    43ec:	04070000 	streq	r0, [r7], #-0
    43f0:	00bca603 	adcseq	sl, ip, r3, lsl #12
    43f4:	ef080000 	svc	0x00080000
    43f8:	0300000b 	movweq	r0, #11
    43fc:	000091a8 	andeq	r9, r0, r8, lsr #3
    4400:	0b970800 	bleq	fe5c6408 <__bss_end__+0xfe5bbdd8>
    4404:	a9030000 	stmdbge	r3, {}	; <UNPREDICTABLE>
    4408:	000000bc 	strheq	r0, [r0], -ip
    440c:	00540900 	subseq	r0, r4, r0, lsl #18
    4410:	00cc0000 	sbceq	r0, ip, r0
    4414:	cc0a0000 	stcgt	0, cr0, [sl], {-0}
    4418:	03000000 	movweq	r0, #0
    441c:	07040300 	streq	r0, [r4, -r0, lsl #6]
    4420:	000001e3 	andeq	r0, r0, r3, ror #3
    4424:	a303080b 	movwge	r0, #14347	; 0x380b
    4428:	000000f4 	strdeq	r0, [r0], -r4
    442c:	000d210c 	andeq	r2, sp, ip, lsl #2
    4430:	25a50300 	strcs	r0, [r5, #768]!	; 0x300
    4434:	00000000 	andeq	r0, r0, r0
    4438:	000d290c 	andeq	r2, sp, ip, lsl #18
    443c:	9daa0300 	stcls	3, cr0, [sl]
    4440:	04000000 	streq	r0, [r0], #-0
    4444:	0cb40500 	cfldr32eq	mvfx0, [r4]
    4448:	ab030000 	blge	c4450 <__bss_end__+0xb9e20>
    444c:	000000d3 	ldrdeq	r0, [r0], -r3
    4450:	000b6005 	andeq	r6, fp, r5
    4454:	70af0300 	adcvc	r0, pc, r0, lsl #6
    4458:	0d000000 	stceq	0, cr0, [r0, #-0]
    445c:	12040e04 	andne	r0, r4, #4, 28	; 0x40
    4460:	03000001 	movweq	r0, #1
    4464:	00c90801 	sbceq	r0, r9, r1, lsl #16
    4468:	12040000 	andne	r0, r4, #0
    446c:	05000001 	streq	r0, [r0, #-1]
    4470:	00000dde 	ldrdeq	r0, [r0], -lr
    4474:	00621605 	rsbeq	r1, r2, r5, lsl #12
    4478:	710f0000 	mrsvc	r0, CPSR
    447c:	1800000b 	stmdane	r0, {r0, r1, r3}
    4480:	017c2d05 	cmneq	ip, r5, lsl #26
    4484:	d50c0000 	strle	r0, [ip, #-0]
    4488:	0500000c 	streq	r0, [r0, #-12]
    448c:	00017c2f 	andeq	r7, r1, pc, lsr #24
    4490:	5f100000 	svcpl	0x00100000
    4494:	3005006b 	andcc	r0, r5, fp, rrx
    4498:	00000025 	andeq	r0, r0, r5, lsr #32
    449c:	0d0c0c04 	stceq	12, cr0, [ip, #-16]
    44a0:	30050000 	andcc	r0, r5, r0
    44a4:	00000025 	andeq	r0, r0, r5, lsr #32
    44a8:	0b4c0c08 	bleq	13074d0 <__bss_end__+0x12fcea0>
    44ac:	30050000 	andcc	r0, r5, r0
    44b0:	00000025 	andeq	r0, r0, r5, lsr #32
    44b4:	0e250c0c 	cdpeq	12, 2, cr0, cr5, cr12, {0}
    44b8:	30050000 	andcc	r0, r5, r0
    44bc:	00000025 	andeq	r0, r0, r5, lsr #32
    44c0:	785f1010 	ldmdavc	pc, {r4, ip}^	; <UNPREDICTABLE>
    44c4:	82310500 	eorshi	r0, r1, #0, 10
    44c8:	14000001 	strne	r0, [r0], #-1
    44cc:	29040e00 	stmdbcs	r4, {r9, sl, fp}
    44d0:	09000001 	stmdbeq	r0, {r0}
    44d4:	0000011e 	andeq	r0, r0, lr, lsl r1
    44d8:	00000192 	muleq	r0, r2, r1
    44dc:	0000cc0a 	andeq	ip, r0, sl, lsl #24
    44e0:	0f000000 	svceq	0x00000000
    44e4:	00000b92 	muleq	r0, r2, fp
    44e8:	0b350524 	bleq	d45980 <__bss_end__+0xd3b350>
    44ec:	0c000002 	stceq	0, cr0, [r0], {2}
    44f0:	00000a4a 	andeq	r0, r0, sl, asr #20
    44f4:	00253705 	eoreq	r3, r5, r5, lsl #14
    44f8:	0c000000 	stceq	0, cr0, [r0], {-0}
    44fc:	00000d44 	andeq	r0, r0, r4, asr #26
    4500:	00253805 	eoreq	r3, r5, r5, lsl #16
    4504:	0c040000 	stceq	0, cr0, [r4], {-0}
    4508:	00000a78 	andeq	r0, r0, r8, ror sl
    450c:	00253905 	eoreq	r3, r5, r5, lsl #18
    4510:	0c080000 	stceq	0, cr0, [r8], {-0}
    4514:	00000f15 	andeq	r0, r0, r5, lsl pc
    4518:	00253a05 	eoreq	r3, r5, r5, lsl #20
    451c:	0c0c0000 	stceq	0, cr0, [ip], {-0}
    4520:	00000c44 	andeq	r0, r0, r4, asr #24
    4524:	00253b05 	eoreq	r3, r5, r5, lsl #22
    4528:	0c100000 	ldceq	0, cr0, [r0], {-0}
    452c:	00000c19 	andeq	r0, r0, r9, lsl ip
    4530:	00253c05 	eoreq	r3, r5, r5, lsl #24
    4534:	0c140000 	ldceq	0, cr0, [r4], {-0}
    4538:	00000e2a 	andeq	r0, r0, sl, lsr #28
    453c:	00253d05 	eoreq	r3, r5, r5, lsl #26
    4540:	0c180000 	ldceq	0, cr0, [r8], {-0}
    4544:	00000c96 	muleq	r0, r6, ip
    4548:	00253e05 	eoreq	r3, r5, r5, lsl #28
    454c:	0c1c0000 	ldceq	0, cr0, [ip], {-0}
    4550:	00000edc 	ldrdeq	r0, [r0], -ip
    4554:	00253f05 	eoreq	r3, r5, r5, lsl #30
    4558:	00200000 	eoreq	r0, r0, r0
    455c:	000a8711 	andeq	r8, sl, r1, lsl r7
    4560:	05010800 	streq	r0, [r1, #-2048]	; 0x800
    4564:	00024b48 	andeq	r4, r2, r8, asr #22
    4568:	0b330c00 	bleq	cc7570 <__bss_end__+0xcbcf40>
    456c:	49050000 	stmdbmi	r5, {}	; <UNPREDICTABLE>
    4570:	0000024b 	andeq	r0, r0, fp, asr #4
    4574:	09c50c00 	stmibeq	r5, {sl, fp}^
    4578:	4a050000 	bmi	144580 <__bss_end__+0x139f50>
    457c:	0000024b 	andeq	r0, r0, fp, asr #4
    4580:	0dd01280 	lfmeq	f1, 2, [r0, #512]	; 0x200
    4584:	4c050000 	stcmi	0, cr0, [r5], {-0}
    4588:	0000011e 	andeq	r0, r0, lr, lsl r1
    458c:	ac120100 	ldfges	f0, [r2], {-0}
    4590:	0500000a 	streq	r0, [r0, #-10]
    4594:	00011e4f 	andeq	r1, r1, pc, asr #28
    4598:	00010400 	andeq	r0, r1, r0, lsl #8
    459c:	00010a09 	andeq	r0, r1, r9, lsl #20
    45a0:	00025b00 	andeq	r5, r2, r0, lsl #22
    45a4:	00cc0a00 	sbceq	r0, ip, r0, lsl #20
    45a8:	001f0000 	andseq	r0, pc, r0
    45ac:	000c4d11 	andeq	r4, ip, r1, lsl sp
    45b0:	05019000 	streq	r9, [r1, #-0]
    45b4:	0002995b 	andeq	r9, r2, fp, asr r9
    45b8:	0cd50c00 	ldcleq	12, cr0, [r5], {0}
    45bc:	5c050000 	stcpl	0, cr0, [r5], {-0}
    45c0:	00000299 	muleq	r0, r9, r2
    45c4:	0ced0c00 	stcleq	12, cr0, [sp]
    45c8:	5d050000 	stcpl	0, cr0, [r5, #-0]
    45cc:	00000025 	andeq	r0, r0, r5, lsr #32
    45d0:	0b470c04 	bleq	11c75e8 <__bss_end__+0x11bcfb8>
    45d4:	5f050000 	svcpl	0x00050000
    45d8:	0000029f 	muleq	r0, pc, r2	; <UNPREDICTABLE>
    45dc:	0a870c08 	beq	fe1c7604 <__bss_end__+0xfe1bcfd4>
    45e0:	60050000 	andvs	r0, r5, r0
    45e4:	0000020b 	andeq	r0, r0, fp, lsl #4
    45e8:	040e0088 	streq	r0, [lr], #-136	; 0x88
    45ec:	0000025b 	andeq	r0, r0, fp, asr r2
    45f0:	0002af09 	andeq	sl, r2, r9, lsl #30
    45f4:	0002af00 	andeq	sl, r2, r0, lsl #30
    45f8:	00cc0a00 	sbceq	r0, ip, r0, lsl #20
    45fc:	001f0000 	andseq	r0, pc, r0
    4600:	02b5040e 	adcseq	r0, r5, #234881024	; 0xe000000
    4604:	0f130000 	svceq	0x00130000
    4608:	00000ca0 	andeq	r0, r0, r0, lsr #25
    460c:	db730508 	blle	1cc5a34 <__bss_end__+0x1cbb404>
    4610:	0c000002 	stceq	0, cr0, [r0], {2}
    4614:	00000a6d 	andeq	r0, r0, sp, ror #20
    4618:	02db7405 	sbcseq	r7, fp, #83886080	; 0x5000000
    461c:	0c000000 	stceq	0, cr0, [r0], {-0}
    4620:	000009d1 	ldrdeq	r0, [r0], -r1
    4624:	00257505 	eoreq	r7, r5, r5, lsl #10
    4628:	00040000 	andeq	r0, r4, r0
    462c:	0054040e 	subseq	r0, r4, lr, lsl #8
    4630:	bf0f0000 	svclt	0x000f0000
    4634:	6800000c 	stmdavs	r0, {r2, r3}
    4638:	040bb305 	streq	fp, [fp], #-773	; 0x305
    463c:	5f100000 	svcpl	0x00100000
    4640:	b4050070 	strlt	r0, [r5], #-112	; 0x70
    4644:	000002db 	ldrdeq	r0, [r0], -fp
    4648:	725f1000 	subsvc	r1, pc, #0
    464c:	25b50500 	ldrcs	r0, [r5, #1280]!	; 0x500
    4650:	04000000 	streq	r0, [r0], #-0
    4654:	00775f10 	rsbseq	r5, r7, r0, lsl pc
    4658:	0025b605 	eoreq	fp, r5, r5, lsl #12
    465c:	0c080000 	stceq	0, cr0, [r8], {-0}
    4660:	00000aa5 	andeq	r0, r0, r5, lsr #21
    4664:	003fb705 	eorseq	fp, pc, r5, lsl #14
    4668:	0c0c0000 	stceq	0, cr0, [ip], {-0}
    466c:	00000bb8 			; <UNDEFINED> instruction: 0x00000bb8
    4670:	003fb805 	eorseq	fp, pc, r5, lsl #16
    4674:	100e0000 	andne	r0, lr, r0
    4678:	0066625f 	rsbeq	r6, r6, pc, asr r2
    467c:	02b6b905 	adcseq	fp, r6, #81920	; 0x14000
    4680:	0c100000 	ldceq	0, cr0, [r0], {-0}
    4684:	00000a14 	andeq	r0, r0, r4, lsl sl
    4688:	0025ba05 	eoreq	fp, r5, r5, lsl #20
    468c:	0c180000 	ldceq	0, cr0, [r8], {-0}
    4690:	00000a95 	muleq	r0, r5, sl
    4694:	010ac105 	tsteq	sl, r5, lsl #2
    4698:	0c1c0000 	ldceq	0, cr0, [ip], {-0}
    469c:	00000f3c 	andeq	r0, r0, ip, lsr pc
    46a0:	0566c305 	strbeq	ip, [r6, #-773]!	; 0x305
    46a4:	0c200000 	stceq	0, cr0, [r0], #-0
    46a8:	00000f56 	andeq	r0, r0, r6, asr pc
    46ac:	0590c505 	ldreq	ip, [r0, #1285]	; 0x505
    46b0:	0c240000 	stceq	0, cr0, [r4], #-0
    46b4:	00000d31 	andeq	r0, r0, r1, lsr sp
    46b8:	05b4c805 	ldreq	ip, [r4, #2053]!	; 0x805
    46bc:	0c280000 	stceq	0, cr0, [r8], #-0
    46c0:	00000ef6 	strdeq	r0, [r0], -r6
    46c4:	05cec905 	strbeq	ip, [lr, #2309]	; 0x905
    46c8:	102c0000 	eorne	r0, ip, r0
    46cc:	0062755f 	rsbeq	r7, r2, pc, asr r5
    46d0:	02b6cc05 	adcseq	ip, r6, #1280	; 0x500
    46d4:	10300000 	eorsne	r0, r0, r0
    46d8:	0070755f 	rsbseq	r7, r0, pc, asr r5
    46dc:	02dbcd05 	sbcseq	ip, fp, #320	; 0x140
    46e0:	10380000 	eorsne	r0, r8, r0
    46e4:	0072755f 	rsbseq	r7, r2, pc, asr r5
    46e8:	0025ce05 	eoreq	ip, r5, r5, lsl #28
    46ec:	0c3c0000 	ldceq	0, cr0, [ip], #-0
    46f0:	00000a58 	andeq	r0, r0, r8, asr sl
    46f4:	05d4d105 	ldrbeq	sp, [r4, #261]	; 0x105
    46f8:	0c400000 	mareq	acc0, r0, r0
    46fc:	00000ea1 	andeq	r0, r0, r1, lsr #29
    4700:	05e4d205 	strbeq	sp, [r4, #517]!	; 0x205
    4704:	10430000 	subne	r0, r3, r0
    4708:	00626c5f 	rsbeq	r6, r2, pc, asr ip
    470c:	02b6d505 	adcseq	sp, r6, #20971520	; 0x1400000
    4710:	0c440000 	mareq	acc0, r0, r4
    4714:	00000abb 			; <UNDEFINED> instruction: 0x00000abb
    4718:	0025d805 	eoreq	sp, r5, r5, lsl #16
    471c:	0c4c0000 	mareq	acc0, r0, ip
    4720:	00000c23 	andeq	r0, r0, r3, lsr #24
    4724:	007bd905 	rsbseq	sp, fp, r5, lsl #18
    4728:	0c500000 	mraeq	r0, r0, acc0
    472c:	00000e8c 	andeq	r0, r0, ip, lsl #29
    4730:	0429dc05 	strteq	sp, [r9], #-3077	; 0xc05
    4734:	0c540000 	mraeq	r0, r4, acc0
    4738:	00000c0b 	andeq	r0, r0, fp, lsl #24
    473c:	00ffe005 	rscseq	lr, pc, r5
    4740:	0c580000 	mraeq	r0, r8, acc0
    4744:	00000cc7 	andeq	r0, r0, r7, asr #25
    4748:	00f4e205 	rscseq	lr, r4, r5, lsl #4
    474c:	0c5c0000 	mraeq	r0, ip, acc0
    4750:	00000c11 	andeq	r0, r0, r1, lsl ip
    4754:	0025e305 	eoreq	lr, r5, r5, lsl #6
    4758:	00640000 	rsbeq	r0, r4, r0
    475c:	00002514 	andeq	r2, r0, r4, lsl r5
    4760:	00042900 	andeq	r2, r4, r0, lsl #18
    4764:	04291500 	strteq	r1, [r9], #-1280	; 0x500
    4768:	0a150000 	beq	544770 <__bss_end__+0x53a140>
    476c:	15000001 	strne	r0, [r0, #-1]
    4770:	0000010c 	andeq	r0, r0, ip, lsl #2
    4774:	00002515 	andeq	r2, r0, r5, lsl r5
    4778:	040e0000 	streq	r0, [lr], #-0
    477c:	00000434 	andeq	r0, r0, r4, lsr r4
    4780:	00042904 	andeq	r2, r4, r4, lsl #18
    4784:	0d141600 	ldceq	6, cr1, [r4, #-0]
    4788:	04280000 	strteq	r0, [r8], #-0
    478c:	66023805 	strvs	r3, [r2], -r5, lsl #16
    4790:	17000005 	strne	r0, [r0, -r5]
    4794:	00000c8f 	andeq	r0, r0, pc, lsl #25
    4798:	25023a05 	strcs	r3, [r2, #-2565]	; 0xa05
    479c:	00000000 	andeq	r0, r0, r0
    47a0:	000ab417 	andeq	fp, sl, r7, lsl r4
    47a4:	023f0500 	eorseq	r0, pc, #0, 10
    47a8:	0000063b 	andeq	r0, r0, fp, lsr r6
    47ac:	0ba81704 	bleq	fea0a3c4 <__bss_end__+0xfe9ffd94>
    47b0:	3f050000 	svccc	0x00050000
    47b4:	00063b02 	andeq	r3, r6, r2, lsl #22
    47b8:	69170800 	ldmdbvs	r7, {fp}
    47bc:	0500000b 	streq	r0, [r0, #-11]
    47c0:	063b023f 			; <UNDEFINED> instruction: 0x063b023f
    47c4:	170c0000 	strne	r0, [ip, -r0]
    47c8:	00000ce8 	andeq	r0, r0, r8, ror #25
    47cc:	25024105 	strcs	r4, [r2, #-261]	; 0x105
    47d0:	10000000 	andne	r0, r0, r0
    47d4:	0009df17 	andeq	sp, r9, r7, lsl pc
    47d8:	02420500 	subeq	r0, r2, #0, 10
    47dc:	0000081d 	andeq	r0, r0, sp, lsl r8
    47e0:	0e061714 	mcreq	7, 0, r1, cr6, cr4, {0}
    47e4:	44050000 	strmi	r0, [r5], #-0
    47e8:	00002502 	andeq	r2, r0, r2, lsl #10
    47ec:	f2173000 	vhadd.s16	d3, d7, d0
    47f0:	0500000c 	streq	r0, [r0, #-12]
    47f4:	058a0245 	streq	r0, [sl, #581]	; 0x245
    47f8:	17340000 	ldrne	r0, [r4, -r0]!
    47fc:	00000c55 	andeq	r0, r0, r5, asr ip
    4800:	25024705 	strcs	r4, [r2, #-1797]	; 0x705
    4804:	38000000 	stmdacc	r0, {}	; <UNPREDICTABLE>
    4808:	000d0217 	andeq	r0, sp, r7, lsl r2
    480c:	02490500 	subeq	r0, r9, #0, 10
    4810:	00000838 	andeq	r0, r0, r8, lsr r8
    4814:	0be7173c 	bleq	ff9ca50c <__bss_end__+0xff9bfedc>
    4818:	4c050000 	stcmi	0, cr0, [r5], {-0}
    481c:	00017c02 	andeq	r7, r1, r2, lsl #24
    4820:	88174000 	ldmdahi	r7, {lr}
    4824:	0500000b 	streq	r0, [r0, #-11]
    4828:	0025024d 	eoreq	r0, r5, sp, asr #4
    482c:	17440000 	strbne	r0, [r4, -r0]
    4830:	00000f10 	andeq	r0, r0, r0, lsl pc
    4834:	7c024e05 	stcvc	14, cr4, [r2], {5}
    4838:	48000001 	stmdami	r0, {r0}
    483c:	000c6c17 	andeq	r6, ip, r7, lsl ip
    4840:	024f0500 	subeq	r0, pc, #0, 10
    4844:	0000083e 	andeq	r0, r0, lr, lsr r8
    4848:	0bb0174c 	bleq	fec0a580 <__bss_end__+0xfebfff50>
    484c:	52050000 	andpl	r0, r5, #0
    4850:	00002502 	andeq	r2, r0, r2, lsl #10
    4854:	d7175000 	ldrle	r5, [r7, -r0]
    4858:	0500000a 	streq	r0, [r0, #-10]
    485c:	010c0253 	tsteq	ip, r3, asr r2
    4860:	17540000 	ldrbne	r0, [r4, -r0]
    4864:	00000c88 	andeq	r0, r0, r8, lsl #25
    4868:	fb027605 	blx	a2086 <__bss_end__+0x97a56>
    486c:	58000007 	stmdapl	r0, {r0, r1, r2}
    4870:	000c4d18 	andeq	r4, ip, r8, lsl sp
    4874:	027a0500 	rsbseq	r0, sl, #0, 10
    4878:	00000299 	muleq	r0, r9, r2
    487c:	c5180148 	ldrgt	r0, [r8, #-328]	; 0x148
    4880:	0500000b 	streq	r0, [r0, #-11]
    4884:	025b027b 	subseq	r0, fp, #-1342177273	; 0xb0000007
    4888:	014c0000 	mrseq	r0, (UNDEF: 76)
    488c:	000e7218 	andeq	r7, lr, r8, lsl r2
    4890:	027f0500 	rsbseq	r0, pc, #0, 10
    4894:	0000084f 	andeq	r0, r0, pc, asr #16
    4898:	9d1802dc 	lfmls	f0, 4, [r8, #-880]	; 0xfffffc90
    489c:	0500000a 	streq	r0, [r0, #-10]
    48a0:	06000284 	streq	r0, [r0], -r4, lsl #5
    48a4:	02e00000 	rsceq	r0, r0, #0
    48a8:	000a8218 	andeq	r8, sl, r8, lsl r2
    48ac:	02850500 	addeq	r0, r5, #0, 10
    48b0:	0000085b 	andeq	r0, r0, fp, asr r8
    48b4:	0e0002ec 	cdpeq	2, 0, cr0, cr0, cr12, {7}
    48b8:	00040b04 	andeq	r0, r4, r4, lsl #22
    48bc:	00251400 	eoreq	r1, r5, r0, lsl #8
    48c0:	058a0000 	streq	r0, [sl]
    48c4:	29150000 	ldmdbcs	r5, {}	; <UNPREDICTABLE>
    48c8:	15000004 	strne	r0, [r0, #-4]
    48cc:	0000010a 	andeq	r0, r0, sl, lsl #2
    48d0:	00058a15 	andeq	r8, r5, r5, lsl sl
    48d4:	00251500 	eoreq	r1, r5, r0, lsl #10
    48d8:	0e000000 	cdpeq	0, 0, cr0, cr0, cr0, {0}
    48dc:	00011904 	andeq	r1, r1, r4, lsl #18
    48e0:	6c040e00 	stcvs	14, cr0, [r4], {-0}
    48e4:	14000005 	strne	r0, [r0], #-5
    48e8:	00000086 	andeq	r0, r0, r6, lsl #1
    48ec:	000005b4 			; <UNDEFINED> instruction: 0x000005b4
    48f0:	00042915 	andeq	r2, r4, r5, lsl r9
    48f4:	010a1500 	tsteq	sl, r0, lsl #10
    48f8:	86150000 	ldrhi	r0, [r5], -r0
    48fc:	15000000 	strne	r0, [r0, #-0]
    4900:	00000025 	andeq	r0, r0, r5, lsr #32
    4904:	96040e00 	strls	r0, [r4], -r0, lsl #28
    4908:	14000005 	strne	r0, [r0], #-5
    490c:	00000025 	andeq	r0, r0, r5, lsr #32
    4910:	000005ce 	andeq	r0, r0, lr, asr #11
    4914:	00042915 	andeq	r2, r4, r5, lsl r9
    4918:	010a1500 	tsteq	sl, r0, lsl #10
    491c:	0e000000 	cdpeq	0, 0, cr0, cr0, cr0, {0}
    4920:	0005ba04 	andeq	fp, r5, r4, lsl #20
    4924:	00540900 	subseq	r0, r4, r0, lsl #18
    4928:	05e40000 	strbeq	r0, [r4, #0]!
    492c:	cc0a0000 	stcgt	0, cr0, [sl], {-0}
    4930:	02000000 	andeq	r0, r0, #0
    4934:	00540900 	subseq	r0, r4, r0, lsl #18
    4938:	05f40000 	ldrbeq	r0, [r4, #0]!
    493c:	cc0a0000 	stcgt	0, cr0, [sl], {-0}
    4940:	00000000 	andeq	r0, r0, r0
    4944:	0cad0600 	stceq	6, cr0, [sp]
    4948:	1d050000 	stcne	0, cr0, [r5, #-0]
    494c:	0002e101 	andeq	lr, r2, r1, lsl #2
    4950:	0e341900 	cdpeq	9, 3, cr1, cr4, cr0, {0}
    4954:	050c0000 	streq	r0, [ip, #-0]
    4958:	06350121 	ldrteq	r0, [r5], -r1, lsr #2
    495c:	d5170000 	ldrle	r0, [r7, #-0]
    4960:	0500000c 	streq	r0, [r0, #-12]
    4964:	06350123 	ldrteq	r0, [r5], -r3, lsr #2
    4968:	17000000 	strne	r0, [r0, -r0]
    496c:	00000bbe 			; <UNDEFINED> instruction: 0x00000bbe
    4970:	25012405 	strcs	r2, [r1, #-1029]	; 0x405
    4974:	04000000 	streq	r0, [r0], #-0
    4978:	000ca717 	andeq	sl, ip, r7, lsl r7
    497c:	01250500 	teqeq	r5, r0, lsl #10
    4980:	0000063b 	andeq	r0, r0, fp, lsr r6
    4984:	040e0008 	streq	r0, [lr], #-8
    4988:	00000600 	andeq	r0, r0, r0, lsl #12
    498c:	05f4040e 	ldrbeq	r0, [r4, #1038]!	; 0x40e
    4990:	d7190000 	ldrle	r0, [r9, -r0]
    4994:	0e000009 	cdpeq	0, 0, cr0, cr0, cr9, {0}
    4998:	76013d05 	strvc	r3, [r1], -r5, lsl #26
    499c:	17000006 	strne	r0, [r0, -r6]
    49a0:	00000d1b 	andeq	r0, r0, fp, lsl sp
    49a4:	76013e05 	strvc	r3, [r1], -r5, lsl #28
    49a8:	00000006 	andeq	r0, r0, r6
    49ac:	000d5517 	andeq	r5, sp, r7, lsl r5
    49b0:	013f0500 	teqeq	pc, r0, lsl #10
    49b4:	00000676 	andeq	r0, r0, r6, ror r6
    49b8:	0dd91706 	ldcleq	7, cr1, [r9, #24]
    49bc:	40050000 	andmi	r0, r5, r0
    49c0:	00005b01 	andeq	r5, r0, r1, lsl #22
    49c4:	09000c00 	stmdbeq	r0, {sl, fp}
    49c8:	0000005b 	andeq	r0, r0, fp, asr r0
    49cc:	00000686 	andeq	r0, r0, r6, lsl #13
    49d0:	0000cc0a 	andeq	ip, r0, sl, lsl #24
    49d4:	1a000200 	bne	51dc <__code_start__-0x2e24>
    49d8:	025705d0 	subseq	r0, r7, #208, 10	; 0x34000000
    49dc:	00000787 	andeq	r0, r0, r7, lsl #15
    49e0:	000e1817 	andeq	r1, lr, r7, lsl r8
    49e4:	02590500 	subseq	r0, r9, #0, 10
    49e8:	0000002c 	andeq	r0, r0, ip, lsr #32
    49ec:	0dc31700 	stcleq	7, cr1, [r3]
    49f0:	5a050000 	bpl	1449f8 <__bss_end__+0x13a3c8>
    49f4:	00010c02 	andeq	r0, r1, r2, lsl #24
    49f8:	da170400 	ble	5c5a00 <__bss_end__+0x5bb3d0>
    49fc:	0500000b 	streq	r0, [r0, #-11]
    4a00:	0787025b 			; <UNDEFINED> instruction: 0x0787025b
    4a04:	17080000 	strne	r0, [r8, -r0]
    4a08:	00000ee7 	andeq	r0, r0, r7, ror #29
    4a0c:	92025c05 	andls	r5, r2, #1280	; 0x500
    4a10:	24000001 	strcs	r0, [r0], #-1
    4a14:	000b7917 	andeq	r7, fp, r7, lsl r9
    4a18:	025d0500 	subseq	r0, sp, #0, 10
    4a1c:	00000025 	andeq	r0, r0, r5, lsr #32
    4a20:	0cd01748 	ldcleq	7, cr1, [r0], {72}	; 0x48
    4a24:	5e050000 	cdppl	0, 0, cr0, cr5, cr0, {0}
    4a28:	00006902 	andeq	r6, r0, r2, lsl #18
    4a2c:	fd175000 	ldc2	0, cr5, [r7, #-0]
    4a30:	0500000e 	streq	r0, [r0, #-14]
    4a34:	0641025f 			; <UNDEFINED> instruction: 0x0641025f
    4a38:	17580000 	ldrbne	r0, [r8, -r0]
    4a3c:	00000cdb 	ldrdeq	r0, [r0], -fp
    4a40:	f4026005 	vst4.8	{d6-d9}, [r2], r5
    4a44:	68000000 	stmdavs	r0, {}	; <UNPREDICTABLE>
    4a48:	000f0217 	andeq	r0, pc, r7, lsl r2	; <UNPREDICTABLE>
    4a4c:	02610500 	rsbeq	r0, r1, #0, 10
    4a50:	000000f4 	strdeq	r0, [r0], -r4
    4a54:	0a3c1770 	beq	f0a81c <__bss_end__+0xf001ec>
    4a58:	62050000 	andvs	r0, r5, #0
    4a5c:	0000f402 	andeq	pc, r0, r2, lsl #8
    4a60:	54177800 	ldrpl	r7, [r7], #-2048	; 0x800
    4a64:	0500000e 	streq	r0, [r0, #-14]
    4a68:	07970263 	ldreq	r0, [r7, r3, ror #4]
    4a6c:	17800000 	strne	r0, [r0, r0]
    4a70:	00000bce 	andeq	r0, r0, lr, asr #23
    4a74:	a7026405 	strge	r6, [r2, -r5, lsl #8]
    4a78:	88000007 	stmdahi	r0, {r0, r1, r2}
    4a7c:	000de617 	andeq	lr, sp, r7, lsl r6
    4a80:	02650500 	rsbeq	r0, r5, #0, 10
    4a84:	00000025 	andeq	r0, r0, r5, lsr #32
    4a88:	0b2517a0 	bleq	94a910 <__bss_end__+0x9402e0>
    4a8c:	66050000 	strvs	r0, [r5], -r0
    4a90:	0000f402 	andeq	pc, r0, r2, lsl #8
    4a94:	2d17a400 	cfldrscs	mvf10, [r7, #-0]
    4a98:	0500000a 	streq	r0, [r0, #-10]
    4a9c:	00f40267 	rscseq	r0, r4, r7, ror #4
    4aa0:	17ac0000 	strne	r0, [ip, r0]!
    4aa4:	00000b14 	andeq	r0, r0, r4, lsl fp
    4aa8:	f4026805 	vst2.8	{d6-d7}, [r2], r5
    4aac:	b4000000 	strlt	r0, [r0], #-0
    4ab0:	0009f417 	andeq	pc, r9, r7, lsl r4	; <UNPREDICTABLE>
    4ab4:	02690500 	rsbeq	r0, r9, #0, 10
    4ab8:	000000f4 	strdeq	r0, [r0], -r4
    4abc:	0a0317bc 	beq	ca9b4 <__bss_end__+0xc0384>
    4ac0:	6a050000 	bvs	144ac8 <__bss_end__+0x13a498>
    4ac4:	0000f402 	andeq	pc, r0, r2, lsl #8
    4ac8:	8d17c400 	cfldrshi	mvf12, [r7, #-0]
    4acc:	0500000c 	streq	r0, [r0, #-12]
    4ad0:	0025026b 	eoreq	r0, r5, fp, ror #4
    4ad4:	00cc0000 	sbceq	r0, ip, r0
    4ad8:	00011209 	andeq	r1, r1, r9, lsl #4
    4adc:	00079700 	andeq	r9, r7, r0, lsl #14
    4ae0:	00cc0a00 	sbceq	r0, ip, r0, lsl #20
    4ae4:	00190000 	andseq	r0, r9, r0
    4ae8:	00011209 	andeq	r1, r1, r9, lsl #4
    4aec:	0007a700 	andeq	sl, r7, r0, lsl #14
    4af0:	00cc0a00 	sbceq	r0, ip, r0, lsl #20
    4af4:	00070000 	andeq	r0, r7, r0
    4af8:	00011209 	andeq	r1, r1, r9, lsl #4
    4afc:	0007b700 	andeq	fp, r7, r0, lsl #14
    4b00:	00cc0a00 	sbceq	r0, ip, r0, lsl #20
    4b04:	00170000 	andseq	r0, r7, r0
    4b08:	7005f01a 	andvc	pc, r5, sl, lsl r0	; <UNPREDICTABLE>
    4b0c:	0007db02 	andeq	sp, r7, r2, lsl #22
    4b10:	0c3d1700 	ldceq	7, cr1, [sp], #-0
    4b14:	73050000 	movwvc	r0, #20480	; 0x5000
    4b18:	0007db02 	andeq	sp, r7, r2, lsl #22
    4b1c:	4b170000 	blmi	5c4b24 <__bss_end__+0x5ba4f4>
    4b20:	0500000e 	streq	r0, [r0, #-14]
    4b24:	07eb0274 			; <UNDEFINED> instruction: 0x07eb0274
    4b28:	00780000 	rsbseq	r0, r8, r0
    4b2c:	0002db09 	andeq	sp, r2, r9, lsl #22
    4b30:	0007eb00 	andeq	lr, r7, r0, lsl #22
    4b34:	00cc0a00 	sbceq	r0, ip, r0, lsl #20
    4b38:	001d0000 	andseq	r0, sp, r0
    4b3c:	00002c09 	andeq	r2, r0, r9, lsl #24
    4b40:	0007fb00 	andeq	pc, r7, r0, lsl #22
    4b44:	00cc0a00 	sbceq	r0, ip, r0, lsl #20
    4b48:	001d0000 	andseq	r0, sp, r0
    4b4c:	5505f01b 	strpl	pc, [r5, #-27]
    4b50:	00081d02 	andeq	r1, r8, r2, lsl #26
    4b54:	0d141c00 	ldceq	12, cr1, [r4, #-0]
    4b58:	6c050000 	stcvs	0, cr0, [r5], {-0}
    4b5c:	00068602 	andeq	r8, r6, r2, lsl #12
    4b60:	0ea71c00 	cdpeq	12, 10, cr1, cr7, cr0, {0}
    4b64:	75050000 	strvc	r0, [r5, #-0]
    4b68:	0007b702 	andeq	fp, r7, r2, lsl #14
    4b6c:	12090000 	andne	r0, r9, #0
    4b70:	2d000001 	stccs	0, cr0, [r0, #-4]
    4b74:	0a000008 	beq	4b9c <__code_start__-0x3464>
    4b78:	000000cc 	andeq	r0, r0, ip, asr #1
    4b7c:	381d0018 	ldmdacc	sp, {r3, r4}
    4b80:	15000008 	strne	r0, [r0, #-8]
    4b84:	00000429 	andeq	r0, r0, r9, lsr #8
    4b88:	2d040e00 	stccs	14, cr0, [r4, #-0]
    4b8c:	0e000008 	cdpeq	0, 0, cr0, cr0, cr8, {0}
    4b90:	00017c04 	andeq	r7, r1, r4, lsl #24
    4b94:	084f1d00 	stmdaeq	pc, {r8, sl, fp, ip}^	; <UNPREDICTABLE>
    4b98:	25150000 	ldrcs	r0, [r5, #-0]
    4b9c:	00000000 	andeq	r0, r0, r0
    4ba0:	0855040e 	ldmdaeq	r5, {r1, r2, r3, sl}^
    4ba4:	040e0000 	streq	r0, [lr], #-0
    4ba8:	00000844 	andeq	r0, r0, r4, asr #16
    4bac:	0005f409 	andeq	pc, r5, r9, lsl #8
    4bb0:	00086b00 	andeq	r6, r8, r0, lsl #22
    4bb4:	00cc0a00 	sbceq	r0, ip, r0, lsl #20
    4bb8:	00020000 	andeq	r0, r2, r0
    4bbc:	000dfa1e 	andeq	pc, sp, lr, lsl sl	; <UNPREDICTABLE>
    4bc0:	02fd0500 	rscseq	r0, sp, #0, 10
    4bc4:	00000429 	andeq	r0, r0, r9, lsr #8
    4bc8:	000df31e 	andeq	pc, sp, lr, lsl r3	; <UNPREDICTABLE>
    4bcc:	02fe0500 	rscseq	r0, lr, #0, 10
    4bd0:	0000042f 	andeq	r0, r0, pc, lsr #8
    4bd4:	00002514 	andeq	r2, r0, r4, lsl r5
    4bd8:	00089200 	andeq	r9, r8, r0, lsl #4
    4bdc:	00251500 	eoreq	r1, r5, r0, lsl #10
    4be0:	1f000000 	svcne	0x00000000
    4be4:	000005f4 	strdeq	r0, [r0], -r4
    4be8:	089d1d06 	ldmeq	sp, {r1, r2, r8, sl, fp, ip}
    4bec:	040e0000 	streq	r0, [lr], #-0
    4bf0:	00000883 	andeq	r0, r0, r3, lsl #17
    4bf4:	00002514 	andeq	r2, r0, r4, lsl r5
    4bf8:	0008b200 	andeq	fp, r8, r0, lsl #4
    4bfc:	058a1500 	streq	r1, [sl, #1280]	; 0x500
    4c00:	1f000000 	svcne	0x00000000
    4c04:	00000631 	andeq	r0, r0, r1, lsr r6
    4c08:	08bd2206 	popeq	{r1, r2, r9, sp}
    4c0c:	040e0000 	streq	r0, [lr], #-0
    4c10:	000008a3 	andeq	r0, r0, r3, lsr #17
    4c14:	00540120 	subseq	r0, r4, r0, lsr #2
    4c18:	0c070000 	stceq	0, cr0, [r7], {-0}
    4c1c:	00000900 	andeq	r0, r0, r0, lsl #18
    4c20:	000a1d21 	andeq	r1, sl, r1, lsr #26
    4c24:	3a210000 	bcc	844c2c <__bss_end__+0x83a5fc>
    4c28:	0100000e 	tsteq	r0, lr
    4c2c:	000e9221 	andeq	r9, lr, r1, lsr #4
    4c30:	5e210400 	cdppl	4, 2, cr0, cr1, cr0, {0}
    4c34:	0500000a 	streq	r0, [r0, #-10]
    4c38:	000bf521 	andeq	pc, fp, r1, lsr #10
    4c3c:	af210600 	svcge	0x00210600
    4c40:	0700000e 	streq	r0, [r0, -lr]
    4c44:	000ebe21 	andeq	fp, lr, r1, lsr #28
    4c48:	cd210300 	stcgt	3, cr0, [r1, #-0]
    4c4c:	0200000e 	andeq	r0, r0, #14
    4c50:	0f8c0500 	svceq	0x008c0500
    4c54:	15070000 	strne	r0, [r7, #-0]
    4c58:	000008c3 	andeq	r0, r0, r3, asr #17
    4c5c:	000f5d22 	andeq	r5, pc, r2, lsr #26
    4c60:	331d0100 	tstcc	sp, #0, 2
    4c64:	1c000000 	stcne	0, cr0, [r0], {-0}
    4c68:	22202000 	eorcs	r2, r0, #0
    4c6c:	00000f98 	muleq	r0, r8, pc	; <UNPREDICTABLE>
    4c70:	00331e01 	eorseq	r1, r3, r1, lsl #28
    4c74:	00280000 	eoreq	r0, r8, r0
    4c78:	67222020 	strvs	r2, [r2, -r0, lsr #32]!
    4c7c:	0100000f 	tsteq	r0, pc
    4c80:	0000331f 	andeq	r3, r0, pc, lsl r3
    4c84:	20003400 	andcs	r3, r0, r0, lsl #8
    4c88:	0f382320 	svceq	0x00382320
    4c8c:	56010000 	strpl	r0, [r1], -r0
    4c90:	00000025 	andeq	r0, r0, r5, lsr #32
    4c94:	000099cc 	andeq	r9, r0, ip, asr #19
    4c98:	00000034 	andeq	r0, r0, r4, lsr r0
    4c9c:	09989c01 	ldmibeq	r8, {r0, sl, fp, ip, pc}
    4ca0:	70240000 	eorvc	r0, r4, r0
    4ca4:	01006e69 	tsteq	r0, r9, ror #28
    4ca8:	00002c56 	andeq	r2, r0, r6, asr ip
    4cac:	000f7500 	andeq	r7, pc, r0, lsl #10
    4cb0:	0f2c2500 	svceq	0x002c2500
    4cb4:	59010000 	stmdbpl	r1, {}	; <UNPREDICTABLE>
    4cb8:	0000002c 	andeq	r0, r0, ip, lsr #32
    4cbc:	00000faf 	andeq	r0, r0, pc, lsr #31
    4cc0:	66666f26 	strbtvs	r6, [r6], -r6, lsr #30
    4cc4:	2c5a0100 	ldfcse	f0, [sl], {-0}
    4cc8:	ed000000 	stc	0, cr0, [r0, #-0]
    4ccc:	2700000f 	strcs	r0, [r0, -pc]
    4cd0:	000099e8 	andeq	r9, r0, r8, ror #19
    4cd4:	00000b5d 	andeq	r0, r0, sp, asr fp
    4cd8:	0b500128 	bleq	1405180 <__bss_end__+0x13fab50>
    4cdc:	355001f3 	ldrbcc	r0, [r0, #-499]	; 0x1f3
    4ce0:	80b42325 	adcshi	r2, r4, r5, lsr #6
    4ce4:	00028180 	andeq	r8, r2, r0, lsl #3
    4ce8:	0f522900 	svceq	0x00522900
    4cec:	4f010000 	svcmi	0x00010000
    4cf0:	000099b0 			; <UNDEFINED> instruction: 0x000099b0
    4cf4:	0000001c 	andeq	r0, r0, ip, lsl r0
    4cf8:	09e89c01 	stmibeq	r8!, {r0, sl, fp, ip, pc}^
    4cfc:	70240000 	eorvc	r0, r4, r0
    4d00:	01006e69 	tsteq	r0, r9, ror #28
    4d04:	00002c4f 	andeq	r2, r0, pc, asr #24
    4d08:	00100000 	andseq	r0, r0, r0
    4d0c:	00762400 	rsbseq	r2, r6, r0, lsl #8
    4d10:	002c4f01 	eoreq	r4, ip, r1, lsl #30
    4d14:	103a0000 	eorsne	r0, sl, r0
    4d18:	c02a0000 	eorgt	r0, sl, r0
    4d1c:	23000099 	movwcs	r0, #153	; 0x99
    4d20:	de00000a 	cdple	0, 0, cr0, cr0, cr10, {0}
    4d24:	28000009 	stmdacs	r0, {r0, r3}
    4d28:	f3035001 	vhadd.u8	d5, d3, d1
    4d2c:	2b005001 	blcs	18d38 <__bss_end__+0xe708>
    4d30:	000099c8 	andeq	r9, r0, r8, asr #19
    4d34:	00000a64 	andeq	r0, r0, r4, ror #20
    4d38:	0f712900 	svceq	0x00712900
    4d3c:	4a010000 	bmi	44d44 <__bss_end__+0x3a714>
    4d40:	000099a0 	andeq	r9, r0, r0, lsr #19
    4d44:	00000010 	andeq	r0, r0, r0, lsl r0
    4d48:	0a239c01 	beq	8ebd54 <__bss_end__+0x8e1724>
    4d4c:	70240000 	eorvc	r0, r4, r0
    4d50:	01006e69 	tsteq	r0, r9, ror #28
    4d54:	00002c4a 	andeq	r2, r0, sl, asr #24
    4d58:	00107400 	andseq	r7, r0, r0, lsl #8
    4d5c:	99ac2700 	stmibls	ip!, {r8, r9, sl, sp}
    4d60:	0ae00000 	beq	ff804d68 <__bss_end__+0xff7fa738>
    4d64:	01280000 	teqeq	r8, r0
    4d68:	01f30350 	mvnseq	r0, r0, asr r3
    4d6c:	51012850 	tstpl	r1, r0, asr r8
    4d70:	00003001 	andeq	r3, r0, r1
    4d74:	000f1f29 	andeq	r1, pc, r9, lsr #30
    4d78:	7c430100 	stfvce	f0, [r3], {-0}
    4d7c:	24000099 	strcs	r0, [r0], #-153	; 0x99
    4d80:	01000000 	mrseq	r0, (UNDEF: 0)
    4d84:	000a649c 	muleq	sl, ip, r4
    4d88:	69702400 	ldmdbvs	r0!, {sl, sp}^
    4d8c:	4301006e 	movwmi	r0, #4206	; 0x106e
    4d90:	0000002c 	andeq	r0, r0, ip, lsr #32
    4d94:	00001095 	muleq	r0, r5, r0
    4d98:	00999827 	addseq	r9, r9, r7, lsr #16
    4d9c:	000b6800 	andeq	r6, fp, r0, lsl #16
    4da0:	50012800 	andpl	r2, r1, r0, lsl #16
    4da4:	00280c05 	eoreq	r0, r8, r5, lsl #24
    4da8:	01282020 	teqeq	r8, r0, lsr #32
    4dac:	f3310551 	vqrshl.u64	q0, <illegal reg q0.5>, <illegal reg q0.5>
    4db0:	00245001 	eoreq	r5, r4, r1
    4db4:	0f802900 	svceq	0x00802900
    4db8:	3c010000 	stccc	0, cr0, [r1], {-0}
    4dbc:	00009958 	andeq	r9, r0, r8, asr r9
    4dc0:	00000024 	andeq	r0, r0, r4, lsr #32
    4dc4:	0aa59c01 	beq	fe96bdd0 <__bss_end__+0xfe9617a0>
    4dc8:	70240000 	eorvc	r0, r4, r0
    4dcc:	01006e69 	tsteq	r0, r9, ror #28
    4dd0:	00002c3c 	andeq	r2, r0, ip, lsr ip
    4dd4:	0010b600 	andseq	fp, r0, r0, lsl #12
    4dd8:	99742700 	ldmdbls	r4!, {r8, r9, sl, sp}^
    4ddc:	0b680000 	bleq	1a04de4 <__bss_end__+0x19fa7b4>
    4de0:	01280000 	teqeq	r8, r0
    4de4:	1c0c0550 	cfstr32ne	mvfx0, [ip], {80}	; 0x50
    4de8:	28202000 	stmdacs	r0!, {sp}
    4dec:	31055101 	tstcc	r5, r1, lsl #2
    4df0:	245001f3 	ldrbcs	r0, [r0], #-499	; 0x1f3
    4df4:	42290000 	eormi	r0, r9, #0
    4df8:	0100000f 	tsteq	r0, pc
    4dfc:	00994837 	addseq	r4, r9, r7, lsr r8
    4e00:	00001000 	andeq	r1, r0, r0
    4e04:	e09c0100 	adds	r0, ip, r0, lsl #2
    4e08:	2400000a 	strcs	r0, [r0], #-10
    4e0c:	006e6970 	rsbeq	r6, lr, r0, ror r9
    4e10:	002c3701 	eoreq	r3, ip, r1, lsl #14
    4e14:	10d70000 	sbcsne	r0, r7, r0
    4e18:	54270000 	strtpl	r0, [r7], #-0
    4e1c:	e0000099 	mul	r0, r9, r0
    4e20:	2800000a 	stmdacs	r0, {r1, r3}
    4e24:	f3035001 	vhadd.u8	d5, d3, d1
    4e28:	01285001 	teqeq	r8, r1
    4e2c:	00310151 	eorseq	r0, r1, r1, asr r1
    4e30:	0c2b2900 	stceq	9, cr2, [fp], #-0
    4e34:	28010000 	stmdacs	r1, {}	; <UNPREDICTABLE>
    4e38:	000098e0 	andeq	r9, r0, r0, ror #17
    4e3c:	00000068 	andeq	r0, r0, r8, rrx
    4e40:	0b5d9c01 	bleq	176be4c <__bss_end__+0x176181c>
    4e44:	70240000 	eorvc	r0, r4, r0
    4e48:	01006e69 	tsteq	r0, r9, ror #28
    4e4c:	00002c28 	andeq	r2, r0, r8, lsr #24
    4e50:	0010f800 	andseq	pc, r0, r0, lsl #16
    4e54:	0e772c00 	cdpeq	12, 7, cr2, cr7, cr0, {0}
    4e58:	28010000 	stmdacs	r1, {}	; <UNPREDICTABLE>
    4e5c:	00000900 	andeq	r0, r0, r0, lsl #18
    4e60:	00001119 	andeq	r1, r0, r9, lsl r1
    4e64:	66666f2d 	strbtvs	r6, [r6], -sp, lsr #30
    4e68:	2c2d0100 	stfcss	f0, [sp], #-0
    4e6c:	01000000 	mrseq	r0, (UNDEF: 0)
    4e70:	00672d54 	rsbeq	r2, r7, r4, asr sp
    4e74:	002c2f01 	eoreq	r2, ip, r1, lsl #30
    4e78:	56010000 	strpl	r0, [r1], -r0
    4e7c:	01007626 	tsteq	r0, r6, lsr #12
    4e80:	00002c31 	andeq	r2, r0, r1, lsr ip
    4e84:	00113a00 	andseq	r3, r1, r0, lsl #20
    4e88:	992c2a00 	stmdbls	ip!, {r9, fp, sp}
    4e8c:	0b5d0000 	bleq	1744e94 <__bss_end__+0x173a864>
    4e90:	0b4c0000 	bleq	1304e98 <__bss_end__+0x12fa868>
    4e94:	01280000 	teqeq	r8, r0
    4e98:	00760250 	rsbseq	r0, r6, r0, asr r2
    4e9c:	99402700 	stmdbls	r0, {r8, r9, sl, sp}^
    4ea0:	0b680000 	bleq	1a04ea8 <__bss_end__+0x19fa878>
    4ea4:	01280000 	teqeq	r8, r0
    4ea8:	00760250 	rsbseq	r0, r6, r0, asr r2
    4eac:	942e0000 	strtls	r0, [lr], #-0
    4eb0:	94000009 	strls	r0, [r0], #-9
    4eb4:	06000009 	streq	r0, [r0], -r9
    4eb8:	08ce2ea7 	stmiaeq	lr, {r0, r1, r2, r5, r7, r9, sl, fp, sp}^
    4ebc:	08ce0000 	stmiaeq	lr, {}^	; <UNPREDICTABLE>
    4ec0:	9b060000 	blls	184ec8 <__bss_end__+0x17a898>
	...

Disassembly of section .debug_abbrev:

00000000 <.debug_abbrev>:
       0:	25011101 	strcs	r1, [r1, #-257]	; 0x101
       4:	030b130e 	movweq	r1, #45838	; 0xb30e
       8:	110e1b0e 	tstne	lr, lr, lsl #22
       c:	10061201 	andne	r1, r6, r1, lsl #4
      10:	02000017 	andeq	r0, r0, #23
      14:	0b0b0024 	bleq	2c00ac <__bss_end__+0x2b5a7c>
      18:	08030b3e 	stmdaeq	r3, {r1, r2, r3, r4, r5, r8, r9, fp}
      1c:	24030000 	strcs	r0, [r3], #-0
      20:	3e0b0b00 	vmlacc.f64	d0, d11, d0
      24:	000e030b 	andeq	r0, lr, fp, lsl #6
      28:	00160400 	andseq	r0, r6, r0, lsl #8
      2c:	0b3a0e03 	bleq	e83840 <__bss_end__+0xe79210>
      30:	13490b3b 	movtne	r0, #39739	; 0x9b3b
      34:	0f050000 	svceq	0x00050000
      38:	490b0b00 	stmdbmi	fp, {r8, r9, fp}
      3c:	06000013 			; <UNDEFINED> instruction: 0x06000013
      40:	13490026 	movtne	r0, #36902	; 0x9026
      44:	01070000 	mrseq	r0, (UNDEF: 7)
      48:	01134901 	tsteq	r3, r1, lsl #18
      4c:	08000013 	stmdaeq	r0, {r0, r1, r4}
      50:	13490021 	movtne	r0, #36897	; 0x9021
      54:	00000b2f 	andeq	r0, r0, pc, lsr #22
      58:	03011309 	movweq	r1, #4873	; 0x1309
      5c:	3a0b0b0e 	bcc	2c2c9c <__bss_end__+0x2b866c>
      60:	010b3b0b 	tsteq	fp, fp, lsl #22
      64:	0a000013 	beq	b8 <__code_start__-0x7f48>
      68:	0e03000d 	cdpeq	0, 0, cr0, cr3, cr13, {0}
      6c:	0b3b0b3a 	bleq	ec2d5c <__bss_end__+0xeb872c>
      70:	0b381349 	bleq	e04d9c <__bss_end__+0xdfa76c>
      74:	0d0b0000 	stceq	0, cr0, [fp, #-0]
      78:	3a080300 	bcc	200c80 <__bss_end__+0x1f6650>
      7c:	490b3b0b 	stmdbmi	fp, {r0, r1, r3, r8, r9, fp, ip, sp}
      80:	000b3813 	andeq	r3, fp, r3, lsl r8
      84:	00350c00 	eorseq	r0, r5, r0, lsl #24
      88:	150d0000 	strne	r0, [sp, #-0]
      8c:	01192701 	tsteq	r9, r1, lsl #14
      90:	0e000013 	mcreq	0, 0, r0, cr0, cr3, {0}
      94:	13490005 	movtne	r0, #36869	; 0x9005
      98:	150f0000 	strne	r0, [pc, #-0]	; a0 <__code_start__-0x7f60>
      9c:	49192701 	ldmdbmi	r9, {r0, r8, r9, sl, sp}
      a0:	00130113 	andseq	r0, r3, r3, lsl r1
      a4:	00351000 	eorseq	r1, r5, r0
      a8:	00001349 	andeq	r1, r0, r9, asr #6
      ac:	03012e11 	movweq	r2, #7697	; 0x1e11
      b0:	3b0b3a0e 	blcc	2ce8f0 <__bss_end__+0x2c42c0>
      b4:	2019270b 	andscs	r2, r9, fp, lsl #14
      b8:	0013010b 	andseq	r0, r3, fp, lsl #2
      bc:	00051200 	andeq	r1, r5, r0, lsl #4
      c0:	0b3a0e03 	bleq	e838d4 <__bss_end__+0xe792a4>
      c4:	13490b3b 	movtne	r0, #39739	; 0x9b3b
      c8:	2e130000 	cdpcs	0, 1, cr0, cr3, cr0, {0}
      cc:	3a0e0301 	bcc	380cd8 <__bss_end__+0x3766a8>
      d0:	270b3b0b 	strcs	r3, [fp, -fp, lsl #22]
      d4:	12011119 	andne	r1, r1, #1073741830	; 0x40000006
      d8:	97184006 	ldrls	r4, [r8, -r6]
      dc:	13011942 	movwne	r1, #6466	; 0x1942
      e0:	05140000 	ldreq	r0, [r4, #-0]
      e4:	3a080300 	bcc	200cec <__bss_end__+0x1f66bc>
      e8:	490b3b0b 	stmdbmi	fp, {r0, r1, r3, r8, r9, fp, ip, sp}
      ec:	00180213 	andseq	r0, r8, r3, lsl r2
      f0:	012e1500 	teqeq	lr, r0, lsl #10
      f4:	0b3a0e03 	bleq	e83908 <__bss_end__+0xe792d8>
      f8:	19270b3b 	stmdbne	r7!, {r0, r1, r3, r4, r5, r8, r9, fp}
      fc:	01111349 	tsteq	r1, r9, asr #6
     100:	18400612 	stmdane	r0, {r1, r4, r9, sl}^
     104:	01194297 			; <UNDEFINED> instruction: 0x01194297
     108:	16000013 			; <UNDEFINED> instruction: 0x16000013
     10c:	08030005 	stmdaeq	r3, {r0, r2}
     110:	0b3b0b3a 	bleq	ec2e00 <__bss_end__+0xeb87d0>
     114:	17021349 	strne	r1, [r2, -r9, asr #6]
     118:	2e170000 	cdpcs	0, 1, cr0, cr7, cr0, {0}
     11c:	03193f00 	tsteq	r9, #0, 30
     120:	3b0b3a0e 	blcc	2ce960 <__bss_end__+0x2c4330>
     124:	4919270b 	ldmdbmi	r9, {r0, r1, r3, r8, r9, sl, sp}
     128:	12011113 	andne	r1, r1, #-1073741820	; 0xc0000004
     12c:	97184006 	ldrls	r4, [r8, -r6]
     130:	00001942 	andeq	r1, r0, r2, asr #18
     134:	3f012e18 	svccc	0x00012e18
     138:	3a0e0319 	bcc	380da4 <__bss_end__+0x376774>
     13c:	270b3b0b 	strcs	r3, [fp, -fp, lsl #22]
     140:	12011119 	andne	r1, r1, #1073741830	; 0x40000006
     144:	97184006 	ldrls	r4, [r8, -r6]
     148:	13011942 	movwne	r1, #6466	; 0x1942
     14c:	34190000 	ldrcc	r0, [r9], #-0
     150:	3a080300 	bcc	200d58 <__bss_end__+0x1f6728>
     154:	490b3b0b 	stmdbmi	fp, {r0, r1, r3, r8, r9, fp, ip, sp}
     158:	00180213 	andseq	r0, r8, r3, lsl r2
     15c:	00341a00 	eorseq	r1, r4, r0, lsl #20
     160:	0b3a0803 	bleq	e82174 <__bss_end__+0xe77b44>
     164:	13490b3b 	movtne	r0, #39739	; 0x9b3b
     168:	341b0000 	ldrcc	r0, [fp], #-0
     16c:	490e0300 	stmdbmi	lr, {r8, r9}
     170:	02193413 	andseq	r3, r9, #318767104	; 0x13000000
     174:	1c000018 	stcne	0, cr0, [r0], {24}
     178:	1331011d 	teqne	r1, #1073741831	; 0x40000007
     17c:	06120111 			; <UNDEFINED> instruction: 0x06120111
     180:	0b590b58 	bleq	1642ee8 <__bss_end__+0x16388b8>
     184:	00001301 	andeq	r1, r0, r1, lsl #6
     188:	3100051d 	tstcc	r0, sp, lsl r5
     18c:	000b1c13 	andeq	r1, fp, r3, lsl ip
     190:	82891e00 	addhi	r1, r9, #0, 28
     194:	01110001 	tsteq	r1, r1
     198:	00001331 	andeq	r1, r0, r1, lsr r3
     19c:	0182891f 	orreq	r8, r2, pc, lsl r9
     1a0:	31011101 	tstcc	r1, r1, lsl #2
     1a4:	00130113 	andseq	r0, r3, r3, lsl r1
     1a8:	828a2000 	addhi	r2, sl, #0
     1ac:	18020001 	stmdane	r2, {r0}
     1b0:	00184291 	mulseq	r8, r1, r2
     1b4:	00342100 	eorseq	r2, r4, r0, lsl #2
     1b8:	0b3a0e03 	bleq	e839cc <__bss_end__+0xe7939c>
     1bc:	13490b3b 	movtne	r0, #39739	; 0x9b3b
     1c0:	193c193f 	ldmdbne	ip!, {r0, r1, r2, r3, r4, r5, r8, fp, ip}
     1c4:	2e220000 	cdpcs	0, 2, cr0, cr2, cr0, {0}
     1c8:	03193f00 	tsteq	r9, #0, 30
     1cc:	3b0b3a0e 	blcc	2cea0c <__bss_end__+0x2c43dc>
     1d0:	3c19270b 	ldccc	7, cr2, [r9], {11}
     1d4:	23000019 	movwcs	r0, #25
     1d8:	193f012e 	ldmdbne	pc!, {r1, r2, r3, r5, r8}	; <UNPREDICTABLE>
     1dc:	0b3a0e03 	bleq	e839f0 <__bss_end__+0xe793c0>
     1e0:	19270b3b 	stmdbne	r7!, {r0, r1, r3, r4, r5, r8, r9, fp}
     1e4:	193c1349 	ldmdbne	ip!, {r0, r3, r6, r8, r9, ip}
     1e8:	00001301 	andeq	r1, r0, r1, lsl #6
     1ec:	00001824 	andeq	r1, r0, r4, lsr #16
     1f0:	11010000 	mrsne	r0, (UNDEF: 1)
     1f4:	130e2501 	movwne	r2, #58625	; 0xe501
     1f8:	1b0e030b 	blne	380e2c <__bss_end__+0x3767fc>
     1fc:	1201110e 	andne	r1, r1, #-2147483645	; 0x80000003
     200:	00171006 	andseq	r1, r7, r6
     204:	00240200 	eoreq	r0, r4, r0, lsl #4
     208:	0b3e0b0b 	bleq	f82e3c <__bss_end__+0xf7880c>
     20c:	00000803 	andeq	r0, r0, r3, lsl #16
     210:	0b002403 	bleq	9224 <va_printk+0xc4>
     214:	030b3e0b 	movweq	r3, #48651	; 0xbe0b
     218:	0400000e 	streq	r0, [r0], #-14
     21c:	0e030016 	mcreq	0, 0, r0, cr3, cr6, {0}
     220:	0b3b0b3a 	bleq	ec2f10 <__bss_end__+0xeb88e0>
     224:	00001349 	andeq	r1, r0, r9, asr #6
     228:	0b000f05 	bleq	3e44 <__code_start__-0x41bc>
     22c:	0600000b 	streq	r0, [r0], -fp
     230:	0b0b000f 	bleq	2c0274 <__bss_end__+0x2b5c44>
     234:	00001349 	andeq	r1, r0, r9, asr #6
     238:	49002607 	stmdbmi	r0, {r0, r1, r2, r9, sl, sp}
     23c:	08000013 	stmdaeq	r0, {r0, r1, r4}
     240:	19270115 	stmdbne	r7!, {r0, r2, r4, r8}
     244:	00001301 	andeq	r1, r0, r1, lsl #6
     248:	49000509 	stmdbmi	r0, {r0, r3, r8, sl}
     24c:	0a000013 	beq	2a0 <__code_start__-0x7d60>
     250:	0e03012e 	adfeqsp	f0, f3, #0.5
     254:	0b3b0b3a 	bleq	ec2f44 <__bss_end__+0xeb8914>
     258:	13491927 	movtne	r1, #39207	; 0x9927
     25c:	13010b20 	movwne	r0, #6944	; 0x1b20
     260:	340b0000 	strcc	r0, [fp], #-0
     264:	3a080300 	bcc	200e6c <__bss_end__+0x1f683c>
     268:	490b3b0b 	stmdbmi	fp, {r0, r1, r3, r8, r9, fp, ip, sp}
     26c:	0c000013 	stceq	0, cr0, [r0], {19}
     270:	08030005 	stmdaeq	r3, {r0, r2}
     274:	0b3b0b3a 	bleq	ec2f64 <__bss_end__+0xeb8934>
     278:	00001349 	andeq	r1, r0, r9, asr #6
     27c:	03012e0d 	movweq	r2, #7693	; 0x1e0d
     280:	3b0b3a0e 	blcc	2ceac0 <__bss_end__+0x2c4490>
     284:	2019270b 	andscs	r2, r9, fp, lsl #14
     288:	0013010b 	andseq	r0, r3, fp, lsl #2
     28c:	00340e00 	eorseq	r0, r4, r0, lsl #28
     290:	0b3a0e03 	bleq	e83aa4 <__bss_end__+0xe79474>
     294:	13490b3b 	movtne	r0, #39739	; 0x9b3b
     298:	2e0f0000 	cdpcs	0, 0, cr0, cr15, cr0, {0}
     29c:	03193f01 	tsteq	r9, #1, 30
     2a0:	3b0b3a0e 	blcc	2ceae0 <__bss_end__+0x2c44b0>
     2a4:	1119270b 	tstne	r9, fp, lsl #14
     2a8:	40061201 	andmi	r1, r6, r1, lsl #4
     2ac:	19429718 	stmdbne	r2, {r3, r4, r8, r9, sl, ip, pc}^
     2b0:	00001301 	andeq	r1, r0, r1, lsl #6
     2b4:	03000510 	movweq	r0, #1296	; 0x510
     2b8:	3b0b3a0e 	blcc	2ceaf8 <__bss_end__+0x2c44c8>
     2bc:	0213490b 	andseq	r4, r3, #180224	; 0x2c000
     2c0:	11000017 	tstne	r0, r7, lsl r0
     2c4:	0e030034 	mcreq	0, 0, r0, cr3, cr4, {1}
     2c8:	0b3b0b3a 	bleq	ec2fb8 <__bss_end__+0xeb8988>
     2cc:	17021349 	strne	r1, [r2, -r9, asr #6]
     2d0:	34120000 	ldrcc	r0, [r2], #-0
     2d4:	490e0300 	stmdbmi	lr, {r8, r9}
     2d8:	02193413 	andseq	r3, r9, #318767104	; 0x13000000
     2dc:	13000018 	movwne	r0, #24
     2e0:	1331011d 	teqne	r1, #1073741831	; 0x40000007
     2e4:	06120111 			; <UNDEFINED> instruction: 0x06120111
     2e8:	0b590b58 	bleq	1643050 <__bss_end__+0x1638a20>
     2ec:	00001301 	andeq	r1, r0, r1, lsl #6
     2f0:	11010b14 	tstne	r1, r4, lsl fp
     2f4:	00061201 	andeq	r1, r6, r1, lsl #4
     2f8:	00341500 	eorseq	r1, r4, r0, lsl #10
     2fc:	17021331 	smladxne	r2, r1, r3, r1
     300:	05160000 	ldreq	r0, [r6, #-0]
     304:	02133100 	andseq	r3, r3, #0, 2
     308:	17000017 	smladne	r0, r7, r0, r0
     30c:	13310005 	teqne	r1, #5
     310:	0000051c 	andeq	r0, r0, ip, lsl r5
     314:	31000518 	tstcc	r0, r8, lsl r5
     318:	000b1c13 	andeq	r1, fp, r3, lsl ip
     31c:	82891900 	addhi	r1, r9, #0, 18
     320:	01110001 	tsteq	r1, r1
     324:	00001331 	andeq	r1, r0, r1, lsr r3
     328:	0182891a 	orreq	r8, r2, sl, lsl r9
     32c:	31011101 	tstcc	r1, r1, lsl #2
     330:	00130113 	andseq	r0, r3, r3, lsl r1
     334:	828a1b00 	addhi	r1, sl, #0, 22
     338:	18020001 	stmdane	r2, {r0}
     33c:	00184291 	mulseq	r8, r1, r2
     340:	01011c00 	tsteq	r1, r0, lsl #24
     344:	13011349 	movwne	r1, #4937	; 0x1349
     348:	211d0000 	tstcs	sp, r0
     34c:	2f134900 	svccs	0x00134900
     350:	1e00000b 	cdpne	0, 0, cr0, cr0, cr11, {0}
     354:	0e030034 	mcreq	0, 0, r0, cr3, cr4, {1}
     358:	19341349 	ldmdbne	r4!, {r0, r3, r6, r8, r9, ip}
     35c:	00000e1c 	andeq	r0, r0, ip, lsl lr
     360:	0300051f 	movweq	r0, #1311	; 0x51f
     364:	3b0b3a08 	blcc	2ceb8c <__bss_end__+0x2c455c>
     368:	0213490b 	andseq	r4, r3, #180224	; 0x2c000
     36c:	20000017 	andcs	r0, r0, r7, lsl r0
     370:	0e030034 	mcreq	0, 0, r0, cr3, cr4, {1}
     374:	0b3b0b3a 	bleq	ec3064 <__bss_end__+0xeb8a34>
     378:	18021349 	stmdane	r2, {r0, r3, r6, r8, r9, ip}
     37c:	34210000 	strtcc	r0, [r1], #-0
     380:	00133100 	andseq	r3, r3, r0, lsl #2
     384:	011d2200 	tsteq	sp, r0, lsl #4
     388:	01111331 	tsteq	r1, r1, lsr r3
     38c:	0b580612 	bleq	1601bdc <__bss_end__+0x15f75ac>
     390:	00000b59 	andeq	r0, r0, r9, asr fp
     394:	31003423 	tstcc	r0, r3, lsr #8
     398:	00180213 	andseq	r0, r8, r3, lsl r2
     39c:	82892400 	addhi	r2, r9, #0, 8
     3a0:	01110101 	tsteq	r1, r1, lsl #2
     3a4:	34250000 	strtcc	r0, [r5], #-0
     3a8:	3a080300 	bcc	200fb0 <__bss_end__+0x1f6980>
     3ac:	490b3b0b 	stmdbmi	fp, {r0, r1, r3, r8, r9, fp, ip, sp}
     3b0:	00051c13 	andeq	r1, r5, r3, lsl ip
     3b4:	00052600 	andeq	r2, r5, r0, lsl #12
     3b8:	0b3a0e03 	bleq	e83bcc <__bss_end__+0xe7959c>
     3bc:	13490b3b 	movtne	r0, #39739	; 0x9b3b
     3c0:	00001802 	andeq	r1, r0, r2, lsl #16
     3c4:	31000527 	tstcc	r0, r7, lsr #10
     3c8:	00180213 	andseq	r0, r8, r3, lsl r2
     3cc:	00052800 	andeq	r2, r5, r0, lsl #16
     3d0:	0b3a0803 	bleq	e823e4 <__bss_end__+0xe77db4>
     3d4:	13490b3b 	movtne	r0, #39739	; 0x9b3b
     3d8:	00001802 	andeq	r1, r0, r2, lsl #16
     3dc:	31000529 	tstcc	r0, r9, lsr #10
     3e0:	00061c13 	andeq	r1, r6, r3, lsl ip
     3e4:	00342a00 	eorseq	r2, r4, r0, lsl #20
     3e8:	0b3a0e03 	bleq	e83bfc <__bss_end__+0xe795cc>
     3ec:	13490b3b 	movtne	r0, #39739	; 0x9b3b
     3f0:	0000061c 	andeq	r0, r0, ip, lsl r6
     3f4:	31011d2b 	tstcc	r1, fp, lsr #26
     3f8:	12011113 	andne	r1, r1, #-1073741820	; 0xc0000004
     3fc:	590b5806 	stmdbpl	fp, {r1, r2, fp, ip, lr}
     400:	2c000005 	stccs	0, cr0, [r0], {5}
     404:	193f012e 	ldmdbne	pc!, {r1, r2, r3, r5, r8}	; <UNPREDICTABLE>
     408:	0b3a0e03 	bleq	e83c1c <__bss_end__+0xe795ec>
     40c:	1927053b 	stmdbne	r7!, {r0, r1, r3, r4, r5, r8, sl}
     410:	01111349 	tsteq	r1, r9, asr #6
     414:	18400612 	stmdane	r0, {r1, r4, r9, sl}^
     418:	01194297 			; <UNDEFINED> instruction: 0x01194297
     41c:	2d000013 	stccs	0, cr0, [r0, #-76]	; 0xffffffb4
     420:	08030005 	stmdaeq	r3, {r0, r2}
     424:	053b0b3a 	ldreq	r0, [fp, #-2874]!	; 0xb3a
     428:	17021349 	strne	r1, [r2, -r9, asr #6]
     42c:	342e0000 	strtcc	r0, [lr], #-0
     430:	3a0e0300 	bcc	381038 <__bss_end__+0x376a08>
     434:	49053b0b 	stmdbmi	r5, {r0, r1, r3, r8, r9, fp, ip, sp}
     438:	00170213 	andseq	r0, r7, r3, lsl r2
     43c:	82892f00 	addhi	r2, r9, #0, 30
     440:	01110101 	tsteq	r1, r1, lsl #2
     444:	00001331 	andeq	r1, r0, r1, lsr r3
     448:	03003430 	movweq	r3, #1072	; 0x430
     44c:	3b0b3a0e 	blcc	2cec8c <__bss_end__+0x2c465c>
     450:	3f13490b 	svccc	0x0013490b
     454:	00180219 	andseq	r0, r8, r9, lsl r2
     458:	002e3100 	eoreq	r3, lr, r0, lsl #2
     45c:	0e03193f 	mcreq	9, 0, r1, cr3, cr15, {1}
     460:	0b3b0b3a 	bleq	ec3150 <__bss_end__+0xeb8b20>
     464:	193c1927 	ldmdbne	ip!, {r0, r1, r2, r5, r8, fp, ip}
     468:	2e320000 	cdpcs	0, 3, cr0, cr2, cr0, {0}
     46c:	03193f01 	tsteq	r9, #1, 30
     470:	3b0b3a0e 	blcc	2cecb0 <__bss_end__+0x2c4680>
     474:	4919270b 	ldmdbmi	r9, {r0, r1, r3, r8, r9, sl, sp}
     478:	01193c13 	tsteq	r9, r3, lsl ip
     47c:	33000013 	movwcc	r0, #19
     480:	00000018 	andeq	r0, r0, r8, lsl r0
     484:	01110100 	tsteq	r1, r0, lsl #2
     488:	0b130e25 	bleq	4c3d24 <__bss_end__+0x4b96f4>
     48c:	0e1b0e03 	cdpeq	14, 1, cr0, cr11, cr3, {0}
     490:	06120111 			; <UNDEFINED> instruction: 0x06120111
     494:	00001710 	andeq	r1, r0, r0, lsl r7
     498:	0b002402 	bleq	94a8 <_cstart+0x28>
     49c:	030b3e0b 	movweq	r3, #48651	; 0xbe0b
     4a0:	03000008 	movweq	r0, #8
     4a4:	0b0b0024 	bleq	2c053c <__bss_end__+0x2b5f0c>
     4a8:	0e030b3e 	vmoveq.16	d3[0], r0
     4ac:	16040000 	strne	r0, [r4], -r0
     4b0:	3a0e0300 	bcc	3810b8 <__bss_end__+0x376a88>
     4b4:	490b3b0b 	stmdbmi	fp, {r0, r1, r3, r8, r9, fp, ip, sp}
     4b8:	05000013 	streq	r0, [r0, #-19]
     4bc:	0b0b000f 	bleq	2c0500 <__bss_end__+0x2b5ed0>
     4c0:	0f060000 	svceq	0x00060000
     4c4:	490b0b00 	stmdbmi	fp, {r8, r9, fp}
     4c8:	07000013 	smladeq	r0, r3, r0, r0
     4cc:	13490026 	movtne	r0, #36902	; 0x9026
     4d0:	15080000 	strne	r0, [r8, #-0]
     4d4:	01192701 	tsteq	r9, r1, lsl #14
     4d8:	09000013 	stmdbeq	r0, {r0, r1, r4}
     4dc:	13490005 	movtne	r0, #36869	; 0x9005
     4e0:	130a0000 	movwne	r0, #40960	; 0xa000
     4e4:	0b0e0301 	bleq	3810f0 <__bss_end__+0x376ac0>
     4e8:	3b0b3a0b 	blcc	2ced1c <__bss_end__+0x2c46ec>
     4ec:	0013010b 	andseq	r0, r3, fp, lsl #2
     4f0:	000d0b00 	andeq	r0, sp, r0, lsl #22
     4f4:	0b3a0e03 	bleq	e83d08 <__bss_end__+0xe796d8>
     4f8:	13490b3b 	movtne	r0, #39739	; 0x9b3b
     4fc:	00000b38 	andeq	r0, r0, r8, lsr fp
     500:	03000d0c 	movweq	r0, #3340	; 0xd0c
     504:	3b0b3a08 	blcc	2ced2c <__bss_end__+0x2c46fc>
     508:	3813490b 	ldmdacc	r3, {r0, r1, r3, r8, fp, lr}
     50c:	0d00000b 	stceq	0, cr0, [r0, #-44]	; 0xffffffd4
     510:	00000035 	andeq	r0, r0, r5, lsr r0
     514:	2701150e 	strcs	r1, [r1, -lr, lsl #10]
     518:	01134919 	tsteq	r3, r9, lsl r9
     51c:	0f000013 	svceq	0x00000013
     520:	13490035 	movtne	r0, #36917	; 0x9035
     524:	2e100000 	cdpcs	0, 1, cr0, cr0, cr0, {0}
     528:	3a0e0301 	bcc	381134 <__bss_end__+0x376b04>
     52c:	270b3b0b 	strcs	r3, [fp, -fp, lsl #22]
     530:	20134919 	andscs	r4, r3, r9, lsl r9
     534:	0013010b 	andseq	r0, r3, fp, lsl #2
     538:	00341100 	eorseq	r1, r4, r0, lsl #2
     53c:	0b3a0803 	bleq	e82550 <__bss_end__+0xe77f20>
     540:	13490b3b 	movtne	r0, #39739	; 0x9b3b
     544:	05120000 	ldreq	r0, [r2, #-0]
     548:	3a0e0300 	bcc	381150 <__bss_end__+0x376b20>
     54c:	490b3b0b 	stmdbmi	fp, {r0, r1, r3, r8, r9, fp, ip, sp}
     550:	13000013 	movwne	r0, #19
     554:	0e030034 	mcreq	0, 0, r0, cr3, cr4, {1}
     558:	0b3b0b3a 	bleq	ec3248 <__bss_end__+0xeb8c18>
     55c:	00001349 	andeq	r1, r0, r9, asr #6
     560:	03012e14 	movweq	r2, #7700	; 0x1e14
     564:	3b0b3a0e 	blcc	2ceda4 <__bss_end__+0x2c4774>
     568:	1119270b 	tstne	r9, fp, lsl #14
     56c:	40061201 	andmi	r1, r6, r1, lsl #4
     570:	19429718 	stmdbne	r2, {r3, r4, r8, r9, sl, ip, pc}^
     574:	00001301 	andeq	r1, r0, r1, lsl #6
     578:	03000515 	movweq	r0, #1301	; 0x515
     57c:	3b0b3a0e 	blcc	2cedbc <__bss_end__+0x2c478c>
     580:	0213490b 	andseq	r4, r3, #180224	; 0x2c000
     584:	16000017 			; <UNDEFINED> instruction: 0x16000017
     588:	08030005 	stmdaeq	r3, {r0, r2}
     58c:	0b3b0b3a 	bleq	ec327c <__bss_end__+0xeb8c4c>
     590:	17021349 	strne	r1, [r2, -r9, asr #6]
     594:	34170000 	ldrcc	r0, [r7], #-0
     598:	490e0300 	stmdbmi	lr, {r8, r9}
     59c:	02193413 	andseq	r3, r9, #318767104	; 0x13000000
     5a0:	18000018 	stmdane	r0, {r3, r4}
     5a4:	08030034 	stmdaeq	r3, {r2, r4, r5}
     5a8:	0b3b0b3a 	bleq	ec3298 <__bss_end__+0xeb8c68>
     5ac:	17021349 	strne	r1, [r2, -r9, asr #6]
     5b0:	1d190000 	ldcne	0, cr0, [r9, #-0]
     5b4:	11133101 	tstne	r3, r1, lsl #2
     5b8:	58061201 	stmdapl	r6, {r0, r9, ip}
     5bc:	010b590b 	tsteq	fp, fp, lsl #18
     5c0:	1a000013 	bne	614 <__code_start__-0x79ec>
     5c4:	0111010b 	tsteq	r1, fp, lsl #2
     5c8:	00000612 	andeq	r0, r0, r2, lsl r6
     5cc:	3100341b 	tstcc	r0, fp, lsl r4
     5d0:	1c000013 	stcne	0, cr0, [r0], {19}
     5d4:	1331011d 	teqne	r1, #1073741831	; 0x40000007
     5d8:	06120111 			; <UNDEFINED> instruction: 0x06120111
     5dc:	0b590b58 	bleq	1643344 <__bss_end__+0x1638d14>
     5e0:	341d0000 	ldrcc	r0, [sp], #-0
     5e4:	02133100 	andseq	r3, r3, #0, 2
     5e8:	1e000017 	mcrne	0, 0, r0, cr0, cr7, {0}
     5ec:	01018289 	smlabbeq	r1, r9, r2, r8
     5f0:	13310111 	teqne	r1, #1073741828	; 0x40000004
     5f4:	00001301 	andeq	r1, r0, r1, lsl #6
     5f8:	01828a1f 	orreq	r8, r2, pc, lsl sl
     5fc:	91180200 	tstls	r8, r0, lsl #4
     600:	00001842 	andeq	r1, r0, r2, asr #16
     604:	01828920 	orreq	r8, r2, r0, lsr #18
     608:	31011100 	mrscc	r1, (UNDEF: 17)
     60c:	21000013 	tstcs	r0, r3, lsl r0
     610:	01018289 	smlabbeq	r1, r9, r2, r8
     614:	13010111 	movwne	r0, #4369	; 0x1111
     618:	89220000 	stmdbhi	r2!, {}	; <UNPREDICTABLE>
     61c:	11010182 	smlabbne	r1, r2, r1, r0
     620:	00133101 	andseq	r3, r3, r1, lsl #2
     624:	01012300 	mrseq	r2, SP_irq
     628:	13011349 	movwne	r1, #4937	; 0x1349
     62c:	21240000 	teqcs	r4, r0
     630:	2f134900 	svccs	0x00134900
     634:	2500000b 	strcs	r0, [r0, #-11]
     638:	0e030034 	mcreq	0, 0, r0, cr3, cr4, {1}
     63c:	19341349 	ldmdbne	r4!, {r0, r3, r6, r8, r9, ip}
     640:	00000e1c 	andeq	r0, r0, ip, lsl lr
     644:	03000526 	movweq	r0, #1318	; 0x526
     648:	3b0b3a08 	blcc	2cee70 <__bss_end__+0x2c4840>
     64c:	0013490b 	andseq	r4, r3, fp, lsl #18
     650:	012e2700 	teqeq	lr, r0, lsl #14
     654:	0b3a0e03 	bleq	e83e68 <__bss_end__+0xe79838>
     658:	19270b3b 	stmdbne	r7!, {r0, r1, r3, r4, r5, r8, r9, fp}
     65c:	01111349 	tsteq	r1, r9, asr #6
     660:	18400612 	stmdane	r0, {r1, r4, r9, sl}^
     664:	01194297 			; <UNDEFINED> instruction: 0x01194297
     668:	28000013 	stmdacs	r0, {r0, r1, r4}
     66c:	0e030034 	mcreq	0, 0, r0, cr3, cr4, {1}
     670:	0b3b0b3a 	bleq	ec3360 <__bss_end__+0xeb8d30>
     674:	18021349 	stmdane	r2, {r0, r3, r6, r8, r9, ip}
     678:	05290000 	streq	r0, [r9, #-0]!
     67c:	1c133100 	ldfnes	f3, [r3], {-0}
     680:	2a00000b 	bcs	6b4 <__code_start__-0x794c>
     684:	13310005 	teqne	r1, #5
     688:	00001702 	andeq	r1, r0, r2, lsl #14
     68c:	3100342b 	tstcc	r0, fp, lsr #8
     690:	00180213 	andseq	r0, r8, r3, lsl r2
     694:	00342c00 	eorseq	r2, r4, r0, lsl #24
     698:	0b1c1331 	bleq	705364 <__bss_end__+0x6fad34>
     69c:	052d0000 	streq	r0, [sp, #-0]!
     6a0:	00133100 	andseq	r3, r3, r0, lsl #2
     6a4:	00052e00 	andeq	r2, r5, r0, lsl #28
     6a8:	0b3a0803 	bleq	e826bc <__bss_end__+0xe7808c>
     6ac:	13490b3b 	movtne	r0, #39739	; 0x9b3b
     6b0:	00001802 	andeq	r1, r0, r2, lsl #16
     6b4:	3f012e2f 	svccc	0x00012e2f
     6b8:	3a0e0319 	bcc	381324 <__bss_end__+0x376cf4>
     6bc:	270b3b0b 	strcs	r3, [fp, -fp, lsl #22]
     6c0:	11134919 	tstne	r3, r9, lsl r9
     6c4:	40061201 	andmi	r1, r6, r1, lsl #4
     6c8:	19429718 	stmdbne	r2, {r3, r4, r8, r9, sl, ip, pc}^
     6cc:	00001301 	andeq	r1, r0, r1, lsl #6
     6d0:	03003430 	movweq	r3, #1072	; 0x430
     6d4:	3b0b3a0e 	blcc	2cef14 <__bss_end__+0x2c48e4>
     6d8:	3f13490b 	svccc	0x0013490b
     6dc:	00193c19 	andseq	r3, r9, r9, lsl ip
     6e0:	012e3100 	teqeq	lr, r0, lsl #2
     6e4:	0e03193f 	mcreq	9, 0, r1, cr3, cr15, {1}
     6e8:	0b3b0b3a 	bleq	ec33d8 <__bss_end__+0xeb8da8>
     6ec:	13491927 	movtne	r1, #39207	; 0x9927
     6f0:	1301193c 	movwne	r1, #6460	; 0x193c
     6f4:	18320000 	ldmdane	r2!, {}	; <UNPREDICTABLE>
     6f8:	33000000 	movwcc	r0, #0
     6fc:	193f002e 	ldmdbne	pc!, {r1, r2, r3, r5}	; <UNPREDICTABLE>
     700:	0b3a0e03 	bleq	e83f14 <__bss_end__+0xe798e4>
     704:	19270b3b 	stmdbne	r7!, {r0, r1, r3, r4, r5, r8, r9, fp}
     708:	0000193c 	andeq	r1, r0, ip, lsr r9
     70c:	3f012e34 	svccc	0x00012e34
     710:	3a0e0319 	bcc	38137c <__bss_end__+0x376d4c>
     714:	270b3b0b 	strcs	r3, [fp, -fp, lsl #22]
     718:	01193c19 	tsteq	r9, r9, lsl ip
     71c:	00000013 	andeq	r0, r0, r3, lsl r0
     720:	25011101 	strcs	r1, [r1, #-257]	; 0x101
     724:	030b130e 	movweq	r1, #45838	; 0xb30e
     728:	110e1b0e 	tstne	lr, lr, lsl #22
     72c:	10061201 	andne	r1, r6, r1, lsl #4
     730:	02000017 	andeq	r0, r0, #23
     734:	0e030016 	mcreq	0, 0, r0, cr3, cr6, {0}
     738:	0b3b0b3a 	bleq	ec3428 <__bss_end__+0xeb8df8>
     73c:	00001349 	andeq	r1, r0, r9, asr #6
     740:	03011303 	movweq	r1, #4867	; 0x1303
     744:	3a0b0b0e 	bcc	2c3384 <__bss_end__+0x2b8d54>
     748:	010b3b0b 	tsteq	fp, fp, lsl #22
     74c:	04000013 	streq	r0, [r0], #-19
     750:	0e03000d 	cdpeq	0, 0, cr0, cr3, cr13, {0}
     754:	0b381349 	bleq	e05480 <__bss_end__+0xdfae50>
     758:	00001934 	andeq	r1, r0, r4, lsr r9
     75c:	0b000f05 	bleq	4378 <__code_start__-0x3c88>
     760:	0600000b 	streq	r0, [r0], -fp
     764:	0b0b0024 	bleq	2c07fc <__bss_end__+0x2b61cc>
     768:	08030b3e 	stmdaeq	r3, {r1, r2, r3, r4, r5, r8, r9, fp}
     76c:	24070000 	strcs	r0, [r7], #-0
     770:	3e0b0b00 	vmlacc.f64	d0, d11, d0
     774:	000e030b 	andeq	r0, lr, fp, lsl #6
     778:	000f0800 	andeq	r0, pc, r0, lsl #16
     77c:	13490b0b 	movtne	r0, #39691	; 0x9b0b
     780:	26090000 	strcs	r0, [r9], -r0
     784:	00134900 	andseq	r4, r3, r0, lsl #18
     788:	012e0a00 	teqeq	lr, r0, lsl #20
     78c:	0e03193f 	mcreq	9, 0, r1, cr3, cr15, {1}
     790:	0b3b0b3a 	bleq	ec3480 <__bss_end__+0xeb8e50>
     794:	13491927 	movtne	r1, #39207	; 0x9927
     798:	06120111 			; <UNDEFINED> instruction: 0x06120111
     79c:	42971840 	addsmi	r1, r7, #64, 16	; 0x400000
     7a0:	00130119 	andseq	r0, r3, r9, lsl r1
     7a4:	00050b00 	andeq	r0, r5, r0, lsl #22
     7a8:	0b3a0803 	bleq	e827bc <__bss_end__+0xe7818c>
     7ac:	13490b3b 	movtne	r0, #39739	; 0x9b3b
     7b0:	00001802 	andeq	r1, r0, r2, lsl #16
     7b4:	0000180c 	andeq	r1, r0, ip, lsl #16
     7b8:	00340d00 	eorseq	r0, r4, r0, lsl #26
     7bc:	0b3a0803 	bleq	e827d0 <__bss_end__+0xe781a0>
     7c0:	13490b3b 	movtne	r0, #39739	; 0x9b3b
     7c4:	00001802 	andeq	r1, r0, r2, lsl #16
     7c8:	0300340e 	movweq	r3, #1038	; 0x40e
     7cc:	3b0b3a0e 	blcc	2cf00c <__bss_end__+0x2c49dc>
     7d0:	0213490b 	andseq	r4, r3, #180224	; 0x2c000
     7d4:	0f000018 	svceq	0x00000018
     7d8:	08030034 	stmdaeq	r3, {r2, r4, r5}
     7dc:	0b3b0b3a 	bleq	ec34cc <__bss_end__+0xeb8e9c>
     7e0:	17021349 	strne	r1, [r2, -r9, asr #6]
     7e4:	89100000 	ldmdbhi	r0, {}	; <UNPREDICTABLE>
     7e8:	11010182 	smlabbne	r1, r2, r1, r0
     7ec:	01133101 	tsteq	r3, r1, lsl #2
     7f0:	11000013 	tstne	r0, r3, lsl r0
     7f4:	0001828a 	andeq	r8, r1, sl, lsl #5
     7f8:	42911802 	addsmi	r1, r1, #131072	; 0x20000
     7fc:	12000018 	andne	r0, r0, #24
     800:	01018289 	smlabbeq	r1, r9, r2, r8
     804:	00000111 	andeq	r0, r0, r1, lsl r1
     808:	49010113 	stmdbmi	r1, {r0, r1, r4, r8}
     80c:	00130113 	andseq	r0, r3, r3, lsl r1
     810:	00211400 	eoreq	r1, r1, r0, lsl #8
     814:	052f1349 	streq	r1, [pc, #-841]!	; 4d3 <__code_start__-0x7b2d>
     818:	15150000 	ldrne	r0, [r5, #-0]
     81c:	49192701 	ldmdbmi	r9, {r0, r8, r9, sl, sp}
     820:	00130113 	andseq	r0, r3, r3, lsl r1
     824:	00051600 	andeq	r1, r5, r0, lsl #12
     828:	00001349 	andeq	r1, r0, r9, asr #6
     82c:	03003417 	movweq	r3, #1047	; 0x417
     830:	3b0b3a0e 	blcc	2cf070 <__bss_end__+0x2c4a40>
     834:	3f13490b 	svccc	0x0013490b
     838:	00193c19 	andseq	r3, r9, r9, lsl ip
     83c:	012e1800 	teqeq	lr, r0, lsl #16
     840:	0e03193f 	mcreq	9, 0, r1, cr3, cr15, {1}
     844:	0b3b0b3a 	bleq	ec3534 <__bss_end__+0xeb8f04>
     848:	13491927 	movtne	r1, #39207	; 0x9927
     84c:	0000193c 	andeq	r1, r0, ip, lsr r9
     850:	01110100 	tsteq	r1, r0, lsl #2
     854:	0b130e25 	bleq	4c40f0 <__bss_end__+0x4b9ac0>
     858:	0e1b0e03 	cdpeq	14, 1, cr0, cr11, cr3, {0}
     85c:	06120111 			; <UNDEFINED> instruction: 0x06120111
     860:	00001710 	andeq	r1, r0, r0, lsl r7
     864:	0b002402 	bleq	9874 <uart_getc+0x4>
     868:	030b3e0b 	movweq	r3, #48651	; 0xbe0b
     86c:	03000008 	movweq	r0, #8
     870:	0b0b0024 	bleq	2c0908 <__bss_end__+0x2b62d8>
     874:	0e030b3e 	vmoveq.16	d3[0], r0
     878:	2e040000 	cdpcs	0, 0, cr0, cr4, cr0, {0}
     87c:	3a0e0301 	bcc	381488 <__bss_end__+0x376e58>
     880:	270b3b0b 	strcs	r3, [fp, -fp, lsl #22]
     884:	11134919 	tstne	r3, r9, lsl r9
     888:	40061201 	andmi	r1, r6, r1, lsl #4
     88c:	19429718 	stmdbne	r2, {r3, r4, r8, r9, sl, ip, pc}^
     890:	00001301 	andeq	r1, r0, r1, lsl #6
     894:	03000505 	movweq	r0, #1285	; 0x505
     898:	3b0b3a08 	blcc	2cf0c0 <__bss_end__+0x2c4a90>
     89c:	0213490b 	andseq	r4, r3, #180224	; 0x2c000
     8a0:	06000017 			; <UNDEFINED> instruction: 0x06000017
     8a4:	01018289 	smlabbeq	r1, r9, r2, r8
     8a8:	13310111 	teqne	r1, #1073741828	; 0x40000004
     8ac:	8a070000 	bhi	1c08b4 <__bss_end__+0x1b6284>
     8b0:	02000182 	andeq	r0, r0, #-2147483616	; 0x80000020
     8b4:	18429118 	stmdane	r2, {r3, r4, r8, ip, pc}^
     8b8:	2e080000 	cdpcs	0, 0, cr0, cr8, cr0, {0}
     8bc:	03193f00 	tsteq	r9, #0, 30
     8c0:	3b0b3a0e 	blcc	2cf100 <__bss_end__+0x2c4ad0>
     8c4:	1119270b 	tstne	r9, fp, lsl #14
     8c8:	40061201 	andmi	r1, r6, r1, lsl #4
     8cc:	19429718 	stmdbne	r2, {r3, r4, r8, r9, sl, ip, pc}^
     8d0:	2e090000 	cdpcs	0, 0, cr0, cr9, cr0, {0}
     8d4:	03193f01 	tsteq	r9, #1, 30
     8d8:	3b0b3a0e 	blcc	2cf118 <__bss_end__+0x2c4ae8>
     8dc:	1119270b 	tstne	r9, fp, lsl #14
     8e0:	40061201 	andmi	r1, r6, r1, lsl #4
     8e4:	19429718 	stmdbne	r2, {r3, r4, r8, r9, sl, ip, pc}^
     8e8:	00001301 	andeq	r1, r0, r1, lsl #6
     8ec:	0300050a 	movweq	r0, #1290	; 0x50a
     8f0:	3b0b3a08 	blcc	2cf118 <__bss_end__+0x2c4ae8>
     8f4:	0213490b 	andseq	r4, r3, #180224	; 0x2c000
     8f8:	0b000018 	bleq	960 <__code_start__-0x76a0>
     8fc:	19270115 	stmdbne	r7!, {r0, r2, r4, r8}
     900:	13011349 	movwne	r1, #4937	; 0x1349
     904:	050c0000 	streq	r0, [ip, #-0]
     908:	00134900 	andseq	r4, r3, r0, lsl #18
     90c:	000f0d00 	andeq	r0, pc, r0, lsl #26
     910:	13490b0b 	movtne	r0, #39691	; 0x9b0b
     914:	340e0000 	strcc	r0, [lr], #-0
     918:	3a0e0300 	bcc	381520 <__bss_end__+0x376ef0>
     91c:	490b3b0b 	stmdbmi	fp, {r0, r1, r3, r8, r9, fp, ip, sp}
     920:	02193f13 	andseq	r3, r9, #19, 30	; 0x4c
     924:	0f000018 	svceq	0x00000018
     928:	193f012e 	ldmdbne	pc!, {r1, r2, r3, r5, r8}	; <UNPREDICTABLE>
     92c:	0b3a0e03 	bleq	e84140 <__bss_end__+0xe79b10>
     930:	19270b3b 	stmdbne	r7!, {r0, r1, r3, r4, r5, r8, r9, fp}
     934:	0000193c 	andeq	r1, r0, ip, lsr r9
     938:	01110100 	tsteq	r1, r0, lsl #2
     93c:	0b130e25 	bleq	4c41d8 <__bss_end__+0x4b9ba8>
     940:	0e1b0e03 	cdpeq	14, 1, cr0, cr11, cr3, {0}
     944:	06120111 			; <UNDEFINED> instruction: 0x06120111
     948:	00001710 	andeq	r1, r0, r0, lsl r7
     94c:	0b002402 	bleq	995c <gpio_set_on+0x4>
     950:	030b3e0b 	movweq	r3, #48651	; 0xbe0b
     954:	03000008 	movweq	r0, #8
     958:	0b0b0024 	bleq	2c09f0 <__bss_end__+0x2b63c0>
     95c:	0e030b3e 	vmoveq.16	d3[0], r0
     960:	0f040000 	svceq	0x00040000
     964:	490b0b00 	stmdbmi	fp, {r8, r9, fp}
     968:	05000013 	streq	r0, [r0, #-19]
     96c:	13490026 	movtne	r0, #36902	; 0x9026
     970:	2e060000 	cdpcs	0, 0, cr0, cr6, cr0, {0}
     974:	03193f01 	tsteq	r9, #1, 30
     978:	3b0b3a0e 	blcc	2cf1b8 <__bss_end__+0x2c4b88>
     97c:	4919270b 	ldmdbmi	r9, {r0, r1, r3, r8, r9, sl, sp}
     980:	12011113 	andne	r1, r1, #-1073741820	; 0xc0000004
     984:	96184006 	ldrls	r4, [r8], -r6
     988:	13011942 	movwne	r1, #6466	; 0x1942
     98c:	05070000 	streq	r0, [r7, #-0]
     990:	3a080300 	bcc	201598 <__bss_end__+0x1f6f68>
     994:	490b3b0b 	stmdbmi	fp, {r0, r1, r3, r8, r9, fp, ip, sp}
     998:	00170213 	andseq	r0, r7, r3, lsl r2
     99c:	01150800 	tsteq	r5, r0, lsl #16
     9a0:	13491927 	movtne	r1, #39207	; 0x9927
     9a4:	00001301 	andeq	r1, r0, r1, lsl #6
     9a8:	49000509 	stmdbmi	r0, {r0, r3, r8, sl}
     9ac:	0a000013 	beq	a00 <__code_start__-0x7600>
     9b0:	0e030034 	mcreq	0, 0, r0, cr3, cr4, {1}
     9b4:	0b3b0b3a 	bleq	ec36a4 <__bss_end__+0xeb9074>
     9b8:	193f1349 	ldmdbne	pc!, {r0, r3, r6, r8, r9, ip}	; <UNPREDICTABLE>
     9bc:	0000193c 	andeq	r1, r0, ip, lsr r9
     9c0:	0300340b 	movweq	r3, #1035	; 0x40b
     9c4:	3b0b3a0e 	blcc	2cf204 <__bss_end__+0x2c4bd4>
     9c8:	3f13490b 	svccc	0x0013490b
     9cc:	00180219 	andseq	r0, r8, r9, lsl r2
     9d0:	11010000 	mrsne	r0, (UNDEF: 1)
     9d4:	130e2501 	movwne	r2, #58625	; 0xe501
     9d8:	1b0e030b 	blne	38160c <__bss_end__+0x376fdc>
     9dc:	1201110e 	andne	r1, r1, #-2147483645	; 0x80000003
     9e0:	00171006 	andseq	r1, r7, r6
     9e4:	00240200 	eoreq	r0, r4, r0, lsl #4
     9e8:	0b3e0b0b 	bleq	f8361c <__bss_end__+0xf78fec>
     9ec:	00000803 	andeq	r0, r0, r3, lsl #16
     9f0:	0b002403 	bleq	9a04 <putk>
     9f4:	030b3e0b 	movweq	r3, #48651	; 0xbe0b
     9f8:	0400000e 	streq	r0, [r0], #-14
     9fc:	0b0b000f 	bleq	2c0a40 <__bss_end__+0x2b6410>
     a00:	0f050000 	svceq	0x00050000
     a04:	490b0b00 	stmdbmi	fp, {r8, r9, fp}
     a08:	06000013 			; <UNDEFINED> instruction: 0x06000013
     a0c:	13490026 	movtne	r0, #36902	; 0x9026
     a10:	16070000 	strne	r0, [r7], -r0
     a14:	3a0e0300 	bcc	38161c <__bss_end__+0x376fec>
     a18:	490b3b0b 	stmdbmi	fp, {r0, r1, r3, r8, r9, fp, ip, sp}
     a1c:	08000013 	stmdaeq	r0, {r0, r1, r4}
     a20:	0e030113 	mcreq	1, 0, r0, cr3, cr3, {0}
     a24:	0b3a0b0b 	bleq	e83658 <__bss_end__+0xe79028>
     a28:	13010b3b 	movwne	r0, #6971	; 0x1b3b
     a2c:	0d090000 	stceq	0, cr0, [r9, #-0]
     a30:	490e0300 	stmdbmi	lr, {r8, r9}
     a34:	340b3813 	strcc	r3, [fp], #-2067	; 0x813
     a38:	0a000019 	beq	aa4 <__code_start__-0x755c>
     a3c:	0e03012e 	adfeqsp	f0, f3, #0.5
     a40:	0b3b0b3a 	bleq	ec3730 <__bss_end__+0xeb9100>
     a44:	13491927 	movtne	r1, #39207	; 0x9927
     a48:	06120111 			; <UNDEFINED> instruction: 0x06120111
     a4c:	42971840 	addsmi	r1, r7, #64, 16	; 0x400000
     a50:	00130119 	andseq	r0, r3, r9, lsl r1
     a54:	00050b00 	andeq	r0, r5, r0, lsl #22
     a58:	0b3a0803 	bleq	e82a6c <__bss_end__+0xe7843c>
     a5c:	13490b3b 	movtne	r0, #39739	; 0x9b3b
     a60:	00001702 	andeq	r1, r0, r2, lsl #14
     a64:	03012e0c 	movweq	r2, #7692	; 0x1e0c
     a68:	3b0b3a08 	blcc	2cf290 <__bss_end__+0x2c4c60>
     a6c:	4919270b 	ldmdbmi	r9, {r0, r1, r3, r8, r9, sl, sp}
     a70:	12011113 	andne	r1, r1, #-1073741820	; 0xc0000004
     a74:	97184006 	ldrls	r4, [r8, -r6]
     a78:	13011942 	movwne	r1, #6466	; 0x1942
     a7c:	050d0000 	streq	r0, [sp, #-0]
     a80:	3a0e0300 	bcc	381688 <__bss_end__+0x377058>
     a84:	490b3b0b 	stmdbmi	fp, {r0, r1, r3, r8, r9, fp, ip, sp}
     a88:	00170213 	andseq	r0, r7, r3, lsl r2
     a8c:	00050e00 	andeq	r0, r5, r0, lsl #28
     a90:	0b3a0e03 	bleq	e842a4 <__bss_end__+0xe79c74>
     a94:	13490b3b 	movtne	r0, #39739	; 0x9b3b
     a98:	00001802 	andeq	r1, r0, r2, lsl #16
     a9c:	0300340f 	movweq	r3, #1039	; 0x40f
     aa0:	3b0b3a08 	blcc	2cf2c8 <__bss_end__+0x2c4c98>
     aa4:	0213490b 	andseq	r4, r3, #180224	; 0x2c000
     aa8:	10000018 	andne	r0, r0, r8, lsl r0
     aac:	08030034 	stmdaeq	r3, {r2, r4, r5}
     ab0:	0b3b0b3a 	bleq	ec37a0 <__bss_end__+0xeb9170>
     ab4:	17021349 	strne	r1, [r2, -r9, asr #6]
     ab8:	34110000 	ldrcc	r0, [r1], #-0
     abc:	490e0300 	stmdbmi	lr, {r8, r9}
     ac0:	02193413 	andseq	r3, r9, #318767104	; 0x13000000
     ac4:	12000018 	andne	r0, r0, #24
     ac8:	0111010b 	tsteq	r1, fp, lsl #2
     acc:	13010612 	movwne	r0, #5650	; 0x1612
     ad0:	34130000 	ldrcc	r0, [r3], #-0
     ad4:	3a0e0300 	bcc	3816dc <__bss_end__+0x3770ac>
     ad8:	490b3b0b 	stmdbmi	fp, {r0, r1, r3, r8, r9, fp, ip, sp}
     adc:	00170213 	andseq	r0, r7, r3, lsl r2
     ae0:	82891400 	addhi	r1, r9, #0, 8
     ae4:	01110001 	tsteq	r1, r1
     ae8:	00001331 	andeq	r1, r0, r1, lsr r3
     aec:	01828915 	orreq	r8, r2, r5, lsl r9
     af0:	31011101 	tstcc	r1, r1, lsl #2
     af4:	00130113 	andseq	r0, r3, r3, lsl r1
     af8:	828a1600 	addhi	r1, sl, #0, 12
     afc:	18020001 	stmdane	r2, {r0}
     b00:	00184291 	mulseq	r8, r1, r2
     b04:	82891700 	addhi	r1, r9, #0, 14
     b08:	01110101 	tsteq	r1, r1, lsl #2
     b0c:	00001331 	andeq	r1, r0, r1, lsr r3
     b10:	49010118 	stmdbmi	r1, {r3, r4, r8}
     b14:	00130113 	andseq	r0, r3, r3, lsl r1
     b18:	00211900 	eoreq	r1, r1, r0, lsl #18
     b1c:	0b2f1349 	bleq	bc5848 <__bss_end__+0xbbb218>
     b20:	2e1a0000 	cdpcs	0, 1, cr0, cr10, cr0, {0}
     b24:	03193f01 	tsteq	r9, #1, 30
     b28:	3b0b3a0e 	blcc	2cf368 <__bss_end__+0x2c4d38>
     b2c:	1119270b 	tstne	r9, fp, lsl #14
     b30:	40061201 	andmi	r1, r6, r1, lsl #4
     b34:	19429718 	stmdbne	r2, {r3, r4, r8, r9, sl, ip, pc}^
     b38:	00001301 	andeq	r1, r0, r1, lsl #6
     b3c:	2701151b 	smladcs	r1, fp, r5, r1
     b40:	01134919 	tsteq	r3, r9, lsl r9
     b44:	1c000013 	stcne	0, cr0, [r0], {19}
     b48:	13490005 	movtne	r0, #36869	; 0x9005
     b4c:	2e1d0000 	cdpcs	0, 1, cr0, cr13, cr0, {0}
     b50:	03193f01 	tsteq	r9, #1, 30
     b54:	3b0b3a0e 	blcc	2cf394 <__bss_end__+0x2c4d64>
     b58:	4919270b 	ldmdbmi	r9, {r0, r1, r3, r8, r9, sl, sp}
     b5c:	12011113 	andne	r1, r1, #-1073741820	; 0xc0000004
     b60:	97184006 	ldrls	r4, [r8, -r6]
     b64:	13011942 	movwne	r1, #6466	; 0x1942
     b68:	0b1e0000 	bleq	780b70 <__bss_end__+0x776540>
     b6c:	12011101 	andne	r1, r1, #1073741824	; 0x40000000
     b70:	1f000006 	svcne	0x00000006
     b74:	01018289 	smlabbeq	r1, r9, r2, r8
     b78:	13010111 	movwne	r0, #4369	; 0x1111
     b7c:	34200000 	strtcc	r0, [r0], #-0
     b80:	3a0e0300 	bcc	381788 <__bss_end__+0x377158>
     b84:	490b3b0b 	stmdbmi	fp, {r0, r1, r3, r8, r9, fp, ip, sp}
     b88:	3c193f13 	ldccc	15, cr3, [r9], {19}
     b8c:	21000019 	tstcs	r0, r9, lsl r0
     b90:	193f002e 	ldmdbne	pc!, {r1, r2, r3, r5}	; <UNPREDICTABLE>
     b94:	0b3a0e03 	bleq	e843a8 <__bss_end__+0xe79d78>
     b98:	19270b3b 	stmdbne	r7!, {r0, r1, r3, r4, r5, r8, r9, fp}
     b9c:	0000193c 	andeq	r1, r0, ip, lsr r9
     ba0:	3f012e22 	svccc	0x00012e22
     ba4:	3a0e0319 	bcc	381810 <__bss_end__+0x3771e0>
     ba8:	270b3b0b 	strcs	r3, [fp, -fp, lsl #22]
     bac:	3c134919 	ldccc	9, cr4, [r3], {25}
     bb0:	00130119 	andseq	r0, r3, r9, lsl r1
     bb4:	00182300 	andseq	r2, r8, r0, lsl #6
     bb8:	01000000 	mrseq	r0, (UNDEF: 0)
     bbc:	0e250111 	mcreq	1, 1, r0, cr5, cr1, {0}
     bc0:	0e030b13 	vmoveq.32	d3[0], r0
     bc4:	01110e1b 	tsteq	r1, fp, lsl lr
     bc8:	17100612 			; <UNDEFINED> instruction: 0x17100612
     bcc:	24020000 	strcs	r0, [r2], #-0
     bd0:	3e0b0b00 	vmlacc.f64	d0, d11, d0
     bd4:	0008030b 	andeq	r0, r8, fp, lsl #6
     bd8:	00240300 	eoreq	r0, r4, r0, lsl #6
     bdc:	0b3e0b0b 	bleq	f83810 <__bss_end__+0xf791e0>
     be0:	00000e03 	andeq	r0, r0, r3, lsl #28
     be4:	3f012e04 	svccc	0x00012e04
     be8:	3a0e0319 	bcc	381854 <__bss_end__+0x377224>
     bec:	270b3b0b 	strcs	r3, [fp, -fp, lsl #22]
     bf0:	12011119 	andne	r1, r1, #1073741830	; 0x40000006
     bf4:	97184006 	ldrls	r4, [r8, -r6]
     bf8:	13011942 	movwne	r1, #6466	; 0x1942
     bfc:	34050000 	strcc	r0, [r5], #-0
     c00:	3a080300 	bcc	201808 <__bss_end__+0x1f71d8>
     c04:	490b3b0b 	stmdbmi	fp, {r0, r1, r3, r8, r9, fp, ip, sp}
     c08:	00170213 	andseq	r0, r7, r3, lsl r2
     c0c:	012e0600 	teqeq	lr, r0, lsl #12
     c10:	0e03193f 	mcreq	9, 0, r1, cr3, cr15, {1}
     c14:	0b3b0b3a 	bleq	ec3904 <__bss_end__+0xeb92d4>
     c18:	01111927 	tsteq	r1, r7, lsr #18
     c1c:	18400612 	stmdane	r0, {r1, r4, r9, sl}^
     c20:	00194297 	mulseq	r9, r7, r2
     c24:	11010000 	mrsne	r0, (UNDEF: 1)
     c28:	130e2501 	movwne	r2, #58625	; 0xe501
     c2c:	1b0e030b 	blne	381860 <__bss_end__+0x377230>
     c30:	1201110e 	andne	r1, r1, #-2147483645	; 0x80000003
     c34:	00171006 	andseq	r1, r7, r6
     c38:	00240200 	eoreq	r0, r4, r0, lsl #4
     c3c:	0b3e0b0b 	bleq	f83870 <__bss_end__+0xf79240>
     c40:	00000803 	andeq	r0, r0, r3, lsl #16
     c44:	0b002403 	bleq	9c58 <__FUNCTION__.4399>
     c48:	030b3e0b 	movweq	r3, #48651	; 0xbe0b
     c4c:	0400000e 	streq	r0, [r0], #-14
     c50:	0b0b000f 	bleq	2c0c94 <__bss_end__+0x2b6664>
     c54:	00001349 	andeq	r1, r0, r9, asr #6
     c58:	49002605 	stmdbmi	r0, {r0, r2, r9, sl, sp}
     c5c:	06000013 			; <UNDEFINED> instruction: 0x06000013
     c60:	193f012e 	ldmdbne	pc!, {r1, r2, r3, r5, r8}	; <UNPREDICTABLE>
     c64:	0b3a0e03 	bleq	e84478 <__bss_end__+0xe79e48>
     c68:	19270b3b 	stmdbne	r7!, {r0, r1, r3, r4, r5, r8, r9, fp}
     c6c:	06120111 			; <UNDEFINED> instruction: 0x06120111
     c70:	42971840 	addsmi	r1, r7, #64, 16	; 0x400000
     c74:	00130119 	andseq	r0, r3, r9, lsl r1
     c78:	82890700 	addhi	r0, r9, #0, 14
     c7c:	01110001 	tsteq	r1, r1
     c80:	00001331 	andeq	r1, r0, r1, lsr r3
     c84:	01828908 	orreq	r8, r2, r8, lsl #18
     c88:	01011101 	tsteq	r1, r1, lsl #2
     c8c:	09000013 	stmdbeq	r0, {r0, r1, r4}
     c90:	0001828a 	andeq	r8, r1, sl, lsl #5
     c94:	42911802 	addsmi	r1, r1, #131072	; 0x20000
     c98:	0a000018 	beq	d00 <__code_start__-0x7300>
     c9c:	01018289 	smlabbeq	r1, r9, r2, r8
     ca0:	13310111 	teqne	r1, #1073741828	; 0x40000004
     ca4:	00001301 	andeq	r1, r0, r1, lsl #6
     ca8:	2701150b 	strcs	r1, [r1, -fp, lsl #10]
     cac:	01134919 	tsteq	r3, r9, lsl r9
     cb0:	0c000013 	stceq	0, cr0, [r0], {19}
     cb4:	13490005 	movtne	r0, #36869	; 0x9005
     cb8:	340d0000 	strcc	r0, [sp], #-0
     cbc:	3a0e0300 	bcc	3818c4 <__bss_end__+0x377294>
     cc0:	490b3b0b 	stmdbmi	fp, {r0, r1, r3, r8, r9, fp, ip, sp}
     cc4:	3c193f13 	ldccc	15, cr3, [r9], {19}
     cc8:	0e000019 	mcreq	0, 0, r0, cr0, cr9, {0}
     ccc:	193f002e 	ldmdbne	pc!, {r1, r2, r3, r5}	; <UNPREDICTABLE>
     cd0:	0b3a0e03 	bleq	e844e4 <__bss_end__+0xe79eb4>
     cd4:	19270b3b 	stmdbne	r7!, {r0, r1, r3, r4, r5, r8, r9, fp}
     cd8:	0000193c 	andeq	r1, r0, ip, lsr r9
     cdc:	3f012e0f 	svccc	0x00012e0f
     ce0:	3a0e0319 	bcc	38194c <__bss_end__+0x37731c>
     ce4:	270b3b0b 	strcs	r3, [fp, -fp, lsl #22]
     ce8:	01193c19 	tsteq	r9, r9, lsl ip
     cec:	00000013 	andeq	r0, r0, r3, lsl r0
     cf0:	25011101 	strcs	r1, [r1, #-257]	; 0x101
     cf4:	030b130e 	movweq	r1, #45838	; 0xb30e
     cf8:	110e1b0e 	tstne	lr, lr, lsl #22
     cfc:	10061201 	andne	r1, r6, r1, lsl #4
     d00:	02000017 	andeq	r0, r0, #23
     d04:	0b0b0024 	bleq	2c0d9c <__bss_end__+0x2b676c>
     d08:	08030b3e 	stmdaeq	r3, {r1, r2, r3, r4, r5, r8, r9, fp}
     d0c:	24030000 	strcs	r0, [r3], #-0
     d10:	3e0b0b00 	vmlacc.f64	d0, d11, d0
     d14:	000e030b 	andeq	r0, lr, fp, lsl #6
     d18:	012e0400 	teqeq	lr, r0, lsl #8
     d1c:	0e03193f 	mcreq	9, 0, r1, cr3, cr15, {1}
     d20:	0b3b0b3a 	bleq	ec3a10 <__bss_end__+0xeb93e0>
     d24:	06120111 			; <UNDEFINED> instruction: 0x06120111
     d28:	42971840 	addsmi	r1, r7, #64, 16	; 0x400000
     d2c:	00130119 	andseq	r0, r3, r9, lsl r1
     d30:	00340500 	eorseq	r0, r4, r0, lsl #10
     d34:	0b3a0e03 	bleq	e84548 <__bss_end__+0xe79f18>
     d38:	13490b3b 	movtne	r0, #39739	; 0x9b3b
     d3c:	193c193f 	ldmdbne	ip!, {r0, r1, r2, r3, r4, r5, r8, fp, ip}
     d40:	2e060000 	cdpcs	0, 0, cr0, cr6, cr0, {0}
     d44:	03193f00 	tsteq	r9, #0, 30
     d48:	3b0b3a0e 	blcc	2cf588 <__bss_end__+0x2c4f58>
     d4c:	3c19270b 	ldccc	7, cr2, [r9], {11}
     d50:	07000019 	smladeq	r0, r9, r0, r0
     d54:	08030034 	stmdaeq	r3, {r2, r4, r5}
     d58:	0b3b0b3a 	bleq	ec3a48 <__bss_end__+0xeb9418>
     d5c:	17021349 	strne	r1, [r2, -r9, asr #6]
     d60:	34080000 	strcc	r0, [r8], #-0
     d64:	3a0e0300 	bcc	38196c <__bss_end__+0x37733c>
     d68:	490b3b0b 	stmdbmi	fp, {r0, r1, r3, r8, r9, fp, ip, sp}
     d6c:	09000013 	stmdbeq	r0, {r0, r1, r4}
     d70:	00018289 	andeq	r8, r1, r9, lsl #5
     d74:	13310111 	teqne	r1, #1073741828	; 0x40000004
     d78:	0f0a0000 	svceq	0x000a0000
     d7c:	490b0b00 	stmdbmi	fp, {r8, r9, fp}
     d80:	00000013 	andeq	r0, r0, r3, lsl r0
     d84:	25011101 	strcs	r1, [r1, #-257]	; 0x101
     d88:	030b130e 	movweq	r1, #45838	; 0xb30e
     d8c:	110e1b0e 	tstne	lr, lr, lsl #22
     d90:	10061201 	andne	r1, r6, r1, lsl #4
     d94:	02000017 	andeq	r0, r0, #23
     d98:	0b0b0024 	bleq	2c0e30 <__bss_end__+0x2b6800>
     d9c:	08030b3e 	stmdaeq	r3, {r1, r2, r3, r4, r5, r8, r9, fp}
     da0:	24030000 	strcs	r0, [r3], #-0
     da4:	3e0b0b00 	vmlacc.f64	d0, d11, d0
     da8:	000e030b 	andeq	r0, lr, fp, lsl #6
     dac:	000f0400 	andeq	r0, pc, r0, lsl #8
     db0:	13490b0b 	movtne	r0, #39691	; 0x9b0b
     db4:	26050000 	strcs	r0, [r5], -r0
     db8:	00134900 	andseq	r4, r3, r0, lsl #18
     dbc:	012e0600 	teqeq	lr, r0, lsl #12
     dc0:	0e03193f 	mcreq	9, 0, r1, cr3, cr15, {1}
     dc4:	0b3b0b3a 	bleq	ec3ab4 <__bss_end__+0xeb9484>
     dc8:	01111927 	tsteq	r1, r7, lsr #18
     dcc:	18400612 	stmdane	r0, {r1, r4, r9, sl}^
     dd0:	01194297 			; <UNDEFINED> instruction: 0x01194297
     dd4:	07000013 	smladeq	r0, r3, r0, r0
     dd8:	08030005 	stmdaeq	r3, {r0, r2}
     ddc:	0b3b0b3a 	bleq	ec3acc <__bss_end__+0xeb949c>
     de0:	17021349 	strne	r1, [r2, -r9, asr #6]
     de4:	34080000 	strcc	r0, [r8], #-0
     de8:	490e0300 	stmdbmi	lr, {r8, r9}
     dec:	02193413 	andseq	r3, r9, #318767104	; 0x13000000
     df0:	09000018 	stmdbeq	r0, {r3, r4}
     df4:	00018289 	andeq	r8, r1, r9, lsl #5
     df8:	13310111 	teqne	r1, #1073741828	; 0x40000004
     dfc:	890a0000 	stmdbhi	sl, {}	; <UNPREDICTABLE>
     e00:	11010182 	smlabbne	r1, r2, r1, r0
     e04:	01133101 	tsteq	r3, r1, lsl #2
     e08:	0b000013 	bleq	e5c <__code_start__-0x71a4>
     e0c:	0001828a 	andeq	r8, r1, sl, lsl #5
     e10:	42911802 	addsmi	r1, r1, #131072	; 0x20000
     e14:	0c000018 	stceq	0, cr0, [r0], {24}
     e18:	13490101 	movtne	r0, #37121	; 0x9101
     e1c:	00001301 	andeq	r1, r0, r1, lsl #6
     e20:	4900210d 	stmdbmi	r0, {r0, r2, r3, r8, sp}
     e24:	000b2f13 	andeq	r2, fp, r3, lsl pc
     e28:	002e0e00 	eoreq	r0, lr, r0, lsl #28
     e2c:	0e03193f 	mcreq	9, 0, r1, cr3, cr15, {1}
     e30:	0b3b0b3a 	bleq	ec3b20 <__bss_end__+0xeb94f0>
     e34:	193c1927 	ldmdbne	ip!, {r0, r1, r2, r5, r8, fp, ip}
     e38:	2e0f0000 	cdpcs	0, 0, cr0, cr15, cr0, {0}
     e3c:	03193f01 	tsteq	r9, #1, 30
     e40:	3b0b3a0e 	blcc	2cf680 <__bss_end__+0x2c5050>
     e44:	4919270b 	ldmdbmi	r9, {r0, r1, r3, r8, r9, sl, sp}
     e48:	01193c13 	tsteq	r9, r3, lsl ip
     e4c:	10000013 	andne	r0, r0, r3, lsl r0
     e50:	13490005 	movtne	r0, #36869	; 0x9005
     e54:	18110000 	ldmdane	r1, {}	; <UNPREDICTABLE>
     e58:	00000000 	andeq	r0, r0, r0
     e5c:	25011101 	strcs	r1, [r1, #-257]	; 0x101
     e60:	030b130e 	movweq	r1, #45838	; 0xb30e
     e64:	110e1b0e 	tstne	lr, lr, lsl #22
     e68:	10061201 	andne	r1, r6, r1, lsl #4
     e6c:	02000017 	andeq	r0, r0, #23
     e70:	0b0b0024 	bleq	2c0f08 <__bss_end__+0x2b68d8>
     e74:	08030b3e 	stmdaeq	r3, {r1, r2, r3, r4, r5, r8, r9, fp}
     e78:	24030000 	strcs	r0, [r3], #-0
     e7c:	3e0b0b00 	vmlacc.f64	d0, d11, d0
     e80:	000e030b 	andeq	r0, lr, fp, lsl #6
     e84:	000f0400 	andeq	r0, pc, r0, lsl #8
     e88:	13490b0b 	movtne	r0, #39691	; 0x9b0b
     e8c:	26050000 	strcs	r0, [r5], -r0
     e90:	00134900 	andseq	r4, r3, r0, lsl #18
     e94:	012e0600 	teqeq	lr, r0, lsl #12
     e98:	0e03193f 	mcreq	9, 0, r1, cr3, cr15, {1}
     e9c:	0b3b0b3a 	bleq	ec3b8c <__bss_end__+0xeb955c>
     ea0:	01111927 	tsteq	r1, r7, lsr #18
     ea4:	18400612 	stmdane	r0, {r1, r4, r9, sl}^
     ea8:	01194297 			; <UNDEFINED> instruction: 0x01194297
     eac:	07000013 	smladeq	r0, r3, r0, r0
     eb0:	08030005 	stmdaeq	r3, {r0, r2}
     eb4:	0b3b0b3a 	bleq	ec3ba4 <__bss_end__+0xeb9574>
     eb8:	17021349 	strne	r1, [r2, -r9, asr #6]
     ebc:	34080000 	strcc	r0, [r8], #-0
     ec0:	490e0300 	stmdbmi	lr, {r8, r9}
     ec4:	02193413 	andseq	r3, r9, #318767104	; 0x13000000
     ec8:	09000018 	stmdbeq	r0, {r3, r4}
     ecc:	00018289 	andeq	r8, r1, r9, lsl #5
     ed0:	13310111 	teqne	r1, #1073741828	; 0x40000004
     ed4:	890a0000 	stmdbhi	sl, {}	; <UNPREDICTABLE>
     ed8:	11010182 	smlabbne	r1, r2, r1, r0
     edc:	01133101 	tsteq	r3, r1, lsl #2
     ee0:	0b000013 	bleq	f34 <__code_start__-0x70cc>
     ee4:	0001828a 	andeq	r8, r1, sl, lsl #5
     ee8:	42911802 	addsmi	r1, r1, #131072	; 0x20000
     eec:	0c000018 	stceq	0, cr0, [r0], {24}
     ef0:	13490101 	movtne	r0, #37121	; 0x9101
     ef4:	00001301 	andeq	r1, r0, r1, lsl #6
     ef8:	4900210d 	stmdbmi	r0, {r0, r2, r3, r8, sp}
     efc:	000b2f13 	andeq	r2, fp, r3, lsl pc
     f00:	002e0e00 	eoreq	r0, lr, r0, lsl #28
     f04:	0e03193f 	mcreq	9, 0, r1, cr3, cr15, {1}
     f08:	0b3b0b3a 	bleq	ec3bf8 <__bss_end__+0xeb95c8>
     f0c:	193c1927 	ldmdbne	ip!, {r0, r1, r2, r5, r8, fp, ip}
     f10:	2e0f0000 	cdpcs	0, 0, cr0, cr15, cr0, {0}
     f14:	03193f01 	tsteq	r9, #1, 30
     f18:	3b0b3a0e 	blcc	2cf758 <__bss_end__+0x2c5128>
     f1c:	4919270b 	ldmdbmi	r9, {r0, r1, r3, r8, r9, sl, sp}
     f20:	01193c13 	tsteq	r9, r3, lsl ip
     f24:	10000013 	andne	r0, r0, r3, lsl r0
     f28:	13490005 	movtne	r0, #36869	; 0x9005
     f2c:	18110000 	ldmdane	r1, {}	; <UNPREDICTABLE>
     f30:	00000000 	andeq	r0, r0, r0
     f34:	25011101 	strcs	r1, [r1, #-257]	; 0x101
     f38:	030b130e 	movweq	r1, #45838	; 0xb30e
     f3c:	110e1b0e 	tstne	lr, lr, lsl #22
     f40:	10061201 	andne	r1, r6, r1, lsl #4
     f44:	02000017 	andeq	r0, r0, #23
     f48:	0b0b0024 	bleq	2c0fe0 <__bss_end__+0x2b69b0>
     f4c:	08030b3e 	stmdaeq	r3, {r1, r2, r3, r4, r5, r8, r9, fp}
     f50:	24030000 	strcs	r0, [r3], #-0
     f54:	3e0b0b00 	vmlacc.f64	d0, d11, d0
     f58:	000e030b 	andeq	r0, lr, fp, lsl #6
     f5c:	000f0400 	andeq	r0, pc, r0, lsl #8
     f60:	13490b0b 	movtne	r0, #39691	; 0x9b0b
     f64:	26050000 	strcs	r0, [r5], -r0
     f68:	00134900 	andseq	r4, r3, r0, lsl #18
     f6c:	012e0600 	teqeq	lr, r0, lsl #12
     f70:	0e03193f 	mcreq	9, 0, r1, cr3, cr15, {1}
     f74:	0b3b0b3a 	bleq	ec3c64 <__bss_end__+0xeb9634>
     f78:	01111927 	tsteq	r1, r7, lsr #18
     f7c:	18400612 	stmdane	r0, {r1, r4, r9, sl}^
     f80:	01194297 			; <UNDEFINED> instruction: 0x01194297
     f84:	07000013 	smladeq	r0, r3, r0, r0
     f88:	08030005 	stmdaeq	r3, {r0, r2}
     f8c:	0b3b0b3a 	bleq	ec3c7c <__bss_end__+0xeb964c>
     f90:	17021349 	strne	r1, [r2, -r9, asr #6]
     f94:	34080000 	strcc	r0, [r8], #-0
     f98:	490e0300 	stmdbmi	lr, {r8, r9}
     f9c:	02193413 	andseq	r3, r9, #318767104	; 0x13000000
     fa0:	09000018 	stmdbeq	r0, {r3, r4}
     fa4:	00018289 	andeq	r8, r1, r9, lsl #5
     fa8:	13310111 	teqne	r1, #1073741828	; 0x40000004
     fac:	890a0000 	stmdbhi	sl, {}	; <UNPREDICTABLE>
     fb0:	11010182 	smlabbne	r1, r2, r1, r0
     fb4:	01133101 	tsteq	r3, r1, lsl #2
     fb8:	0b000013 	bleq	100c <__code_start__-0x6ff4>
     fbc:	0001828a 	andeq	r8, r1, sl, lsl #5
     fc0:	42911802 	addsmi	r1, r1, #131072	; 0x20000
     fc4:	0c000018 	stceq	0, cr0, [r0], {24}
     fc8:	13490101 	movtne	r0, #37121	; 0x9101
     fcc:	00001301 	andeq	r1, r0, r1, lsl #6
     fd0:	4900210d 	stmdbmi	r0, {r0, r2, r3, r8, sp}
     fd4:	000b2f13 	andeq	r2, fp, r3, lsl pc
     fd8:	002e0e00 	eoreq	r0, lr, r0, lsl #28
     fdc:	0e03193f 	mcreq	9, 0, r1, cr3, cr15, {1}
     fe0:	0b3b0b3a 	bleq	ec3cd0 <__bss_end__+0xeb96a0>
     fe4:	193c1927 	ldmdbne	ip!, {r0, r1, r2, r5, r8, fp, ip}
     fe8:	2e0f0000 	cdpcs	0, 0, cr0, cr15, cr0, {0}
     fec:	03193f01 	tsteq	r9, #1, 30
     ff0:	3b0b3a0e 	blcc	2cf830 <__bss_end__+0x2c5200>
     ff4:	4919270b 	ldmdbmi	r9, {r0, r1, r3, r8, r9, sl, sp}
     ff8:	01193c13 	tsteq	r9, r3, lsl ip
     ffc:	10000013 	andne	r0, r0, r3, lsl r0
    1000:	13490005 	movtne	r0, #36869	; 0x9005
    1004:	18110000 	ldmdane	r1, {}	; <UNPREDICTABLE>
    1008:	00000000 	andeq	r0, r0, r0
    100c:	25011101 	strcs	r1, [r1, #-257]	; 0x101
    1010:	030b130e 	movweq	r1, #45838	; 0xb30e
    1014:	110e1b0e 	tstne	lr, lr, lsl #22
    1018:	10061201 	andne	r1, r6, r1, lsl #4
    101c:	02000017 	andeq	r0, r0, #23
    1020:	0b0b0024 	bleq	2c10b8 <__bss_end__+0x2b6a88>
    1024:	08030b3e 	stmdaeq	r3, {r1, r2, r3, r4, r5, r8, r9, fp}
    1028:	24030000 	strcs	r0, [r3], #-0
    102c:	3e0b0b00 	vmlacc.f64	d0, d11, d0
    1030:	000e030b 	andeq	r0, lr, fp, lsl #6
    1034:	002e0400 	eoreq	r0, lr, r0, lsl #8
    1038:	0e03193f 	mcreq	9, 0, r1, cr3, cr15, {1}
    103c:	0b3b0b3a 	bleq	ec3d2c <__bss_end__+0xeb96fc>
    1040:	01111927 	tsteq	r1, r7, lsr #18
    1044:	18400612 	stmdane	r0, {r1, r4, r9, sl}^
    1048:	00194297 	mulseq	r9, r7, r2
    104c:	11010000 	mrsne	r0, (UNDEF: 1)
    1050:	130e2501 	movwne	r2, #58625	; 0xe501
    1054:	1b0e030b 	blne	381c88 <__bss_end__+0x377658>
    1058:	1201110e 	andne	r1, r1, #-2147483645	; 0x80000003
    105c:	00171006 	andseq	r1, r7, r6
    1060:	00240200 	eoreq	r0, r4, r0, lsl #4
    1064:	0b3e0b0b 	bleq	f83c98 <__bss_end__+0xf79668>
    1068:	00000803 	andeq	r0, r0, r3, lsl #16
    106c:	0b002403 	bleq	a080 <__FUNCTION__.4272+0x68>
    1070:	030b3e0b 	movweq	r3, #48651	; 0xbe0b
    1074:	0400000e 	streq	r0, [r0], #-14
    1078:	0b0b0104 	bleq	2c1490 <__bss_end__+0x2b6e60>
    107c:	0b3b0b3a 	bleq	ec3d6c <__bss_end__+0xeb973c>
    1080:	00001301 	andeq	r1, r0, r1, lsl #6
    1084:	03002805 	movweq	r2, #2053	; 0x805
    1088:	000d1c0e 	andeq	r1, sp, lr, lsl #24
    108c:	012e0600 	teqeq	lr, r0, lsl #12
    1090:	0e03193f 	mcreq	9, 0, r1, cr3, cr15, {1}
    1094:	0b3b0b3a 	bleq	ec3d84 <__bss_end__+0xeb9754>
    1098:	01111927 	tsteq	r1, r7, lsr #18
    109c:	18400612 	stmdane	r0, {r1, r4, r9, sl}^
    10a0:	01194297 			; <UNDEFINED> instruction: 0x01194297
    10a4:	07000013 	smladeq	r0, r3, r0, r0
    10a8:	0e030034 	mcreq	0, 0, r0, cr3, cr4, {1}
    10ac:	0b3b0b3a 	bleq	ec3d9c <__bss_end__+0xeb976c>
    10b0:	193f1349 	ldmdbne	pc!, {r0, r3, r6, r8, r9, ip}	; <UNPREDICTABLE>
    10b4:	0000193c 	andeq	r1, r0, ip, lsr r9
    10b8:	03003408 	movweq	r3, #1032	; 0x408
    10bc:	3b0b3a08 	blcc	2cf8e4 <__bss_end__+0x2c52b4>
    10c0:	1c13490b 	ldcne	9, cr4, [r3], {11}
    10c4:	0900000b 	stmdbeq	r0, {r0, r1, r3}
    10c8:	08030034 	stmdaeq	r3, {r2, r4, r5}
    10cc:	0b3b0b3a 	bleq	ec3dbc <__bss_end__+0xeb978c>
    10d0:	00001349 	andeq	r1, r0, r9, asr #6
    10d4:	0300340a 	movweq	r3, #1034	; 0x40a
    10d8:	3b0b3a08 	blcc	2cf900 <__bss_end__+0x2c52d0>
    10dc:	0213490b 	andseq	r4, r3, #180224	; 0x2c000
    10e0:	0b000018 	bleq	1148 <__code_start__-0x6eb8>
    10e4:	0111010b 	tsteq	r1, fp, lsl #2
    10e8:	13010612 	movwne	r0, #5650	; 0x1612
    10ec:	340c0000 	strcc	r0, [ip], #-0
    10f0:	3a080300 	bcc	201cf8 <__bss_end__+0x1f76c8>
    10f4:	490b3b0b 	stmdbmi	fp, {r0, r1, r3, r8, r9, fp, ip, sp}
    10f8:	00170213 	andseq	r0, r7, r3, lsl r2
    10fc:	82890d00 	addhi	r0, r9, #0, 26
    1100:	01110001 	tsteq	r1, r1
    1104:	00001331 	andeq	r1, r0, r1, lsr r3
    1108:	0182890e 	orreq	r8, r2, lr, lsl #18
    110c:	31011101 	tstcc	r1, r1, lsl #2
    1110:	00130113 	andseq	r0, r3, r3, lsl r1
    1114:	828a0f00 	addhi	r0, sl, #0, 30
    1118:	18020001 	stmdane	r2, {r0}
    111c:	00184291 	mulseq	r8, r1, r2
    1120:	000f1000 	andeq	r1, pc, r0
    1124:	13490b0b 	movtne	r0, #39691	; 0x9b0b
    1128:	2e110000 	cdpcs	0, 1, cr0, cr1, cr0, {0}
    112c:	03193f00 	tsteq	r9, #0, 30
    1130:	3b0b3a0e 	blcc	2cf970 <__bss_end__+0x2c5340>
    1134:	3c19270b 	ldccc	7, cr2, [r9], {11}
    1138:	12000019 	andne	r0, r0, #25
    113c:	193f012e 	ldmdbne	pc!, {r1, r2, r3, r5, r8}	; <UNPREDICTABLE>
    1140:	0b3a0e03 	bleq	e84954 <__bss_end__+0xe7a324>
    1144:	19270b3b 	stmdbne	r7!, {r0, r1, r3, r4, r5, r8, r9, fp}
    1148:	0000193c 	andeq	r1, r0, ip, lsr r9
    114c:	49000513 	stmdbmi	r0, {r0, r1, r4, r8, sl}
    1150:	00000013 	andeq	r0, r0, r3, lsl r0
    1154:	25011101 	strcs	r1, [r1, #-257]	; 0x101
    1158:	030b130e 	movweq	r1, #45838	; 0xb30e
    115c:	550e1b0e 	strpl	r1, [lr, #-2830]	; 0xb0e
    1160:	10011117 	andne	r1, r1, r7, lsl r1
    1164:	02000017 	andeq	r0, r0, #23
    1168:	0b0b0024 	bleq	2c1200 <__bss_end__+0x2b6bd0>
    116c:	08030b3e 	stmdaeq	r3, {r1, r2, r3, r4, r5, r8, r9, fp}
    1170:	24030000 	strcs	r0, [r3], #-0
    1174:	3e0b0b00 	vmlacc.f64	d0, d11, d0
    1178:	000e030b 	andeq	r0, lr, fp, lsl #6
    117c:	012e0400 	teqeq	lr, r0, lsl #8
    1180:	0e03193f 	mcreq	9, 0, r1, cr3, cr15, {1}
    1184:	0b3b0b3a 	bleq	ec3e74 <__bss_end__+0xeb9844>
    1188:	13491927 	movtne	r1, #39207	; 0x9927
    118c:	06120111 			; <UNDEFINED> instruction: 0x06120111
    1190:	42971840 	addsmi	r1, r7, #64, 16	; 0x400000
    1194:	00130119 	andseq	r0, r3, r9, lsl r1
    1198:	00340500 	eorseq	r0, r4, r0, lsl #10
    119c:	0b3a0e03 	bleq	e849b0 <__bss_end__+0xe7a380>
    11a0:	13490b3b 	movtne	r0, #39739	; 0x9b3b
    11a4:	00001702 	andeq	r1, r0, r2, lsl #14
    11a8:	3f012e06 	svccc	0x00012e06
    11ac:	3a0e0319 	bcc	381e18 <__bss_end__+0x3777e8>
    11b0:	270b3b0b 	strcs	r3, [fp, -fp, lsl #22]
    11b4:	12011119 	andne	r1, r1, #1073741830	; 0x40000006
    11b8:	97184006 	ldrls	r4, [r8, -r6]
    11bc:	13011942 	movwne	r1, #6466	; 0x1942
    11c0:	34070000 	strcc	r0, [r7], #-0
    11c4:	3a0e0300 	bcc	381dcc <__bss_end__+0x37779c>
    11c8:	490b3b0b 	stmdbmi	fp, {r0, r1, r3, r8, r9, fp, ip, sp}
    11cc:	00061c13 	andeq	r1, r6, r3, lsl ip
    11d0:	00340800 	eorseq	r0, r4, r0, lsl #16
    11d4:	0b3a0e03 	bleq	e849e8 <__bss_end__+0xe7a3b8>
    11d8:	13490b3b 	movtne	r0, #39739	; 0x9b3b
    11dc:	00000b1c 	andeq	r0, r0, ip, lsl fp
    11e0:	01828909 	orreq	r8, r2, r9, lsl #18
    11e4:	31011100 	mrscc	r1, (UNDEF: 17)
    11e8:	0a000013 	beq	123c <__code_start__-0x6dc4>
    11ec:	01018289 	smlabbeq	r1, r9, r2, r8
    11f0:	13310111 	teqne	r1, #1073741828	; 0x40000004
    11f4:	00001301 	andeq	r1, r0, r1, lsl #6
    11f8:	01828a0b 	orreq	r8, r2, fp, lsl #20
    11fc:	91180200 	tstls	r8, r0, lsl #4
    1200:	00001842 	andeq	r1, r0, r2, asr #16
    1204:	0182890c 	orreq	r8, r2, ip, lsl #18
    1208:	31011101 	tstcc	r1, r1, lsl #2
    120c:	0d000013 	stceq	0, cr0, [r0, #-76]	; 0xffffffb4
    1210:	13490026 	movtne	r0, #36902	; 0x9026
    1214:	2e0e0000 	cdpcs	0, 0, cr0, cr14, cr0, {0}
    1218:	03193f01 	tsteq	r9, #1, 30
    121c:	3b0b3a0e 	blcc	2cfa5c <__bss_end__+0x2c542c>
    1220:	3c19270b 	ldccc	7, cr2, [r9], {11}
    1224:	00130119 	andseq	r0, r3, r9, lsl r1
    1228:	00050f00 	andeq	r0, r5, r0, lsl #30
    122c:	00001349 	andeq	r1, r0, r9, asr #6
    1230:	3f012e10 	svccc	0x00012e10
    1234:	3a0e0319 	bcc	381ea0 <__bss_end__+0x377870>
    1238:	270b3b0b 	strcs	r3, [fp, -fp, lsl #22]
    123c:	00193c19 	andseq	r3, r9, r9, lsl ip
    1240:	11010000 	mrsne	r0, (UNDEF: 1)
    1244:	130e2501 	movwne	r2, #58625	; 0xe501
    1248:	1b0e030b 	blne	381e7c <__bss_end__+0x37784c>
    124c:	1201110e 	andne	r1, r1, #-2147483645	; 0x80000003
    1250:	00171006 	andseq	r1, r7, r6
    1254:	00240200 	eoreq	r0, r4, r0, lsl #4
    1258:	0b3e0b0b 	bleq	f83e8c <__bss_end__+0xf7985c>
    125c:	00000803 	andeq	r0, r0, r3, lsl #16
    1260:	0b002403 	bleq	a274 <buf.4189+0x48>
    1264:	030b3e0b 	movweq	r3, #48651	; 0xbe0b
    1268:	0400000e 	streq	r0, [r0], #-14
    126c:	193f012e 	ldmdbne	pc!, {r1, r2, r3, r5, r8}	; <UNPREDICTABLE>
    1270:	0b3a0e03 	bleq	e84a84 <__bss_end__+0xe7a454>
    1274:	19270b3b 	stmdbne	r7!, {r0, r1, r3, r4, r5, r8, r9, fp}
    1278:	06120111 			; <UNDEFINED> instruction: 0x06120111
    127c:	42971840 	addsmi	r1, r7, #64, 16	; 0x400000
    1280:	00130119 	andseq	r0, r3, r9, lsl r1
    1284:	00050500 	andeq	r0, r5, r0, lsl #10
    1288:	0b3a0e03 	bleq	e84a9c <__bss_end__+0xe7a46c>
    128c:	13490b3b 	movtne	r0, #39739	; 0x9b3b
    1290:	00001702 	andeq	r1, r0, r2, lsl #14
    1294:	3f012e06 	svccc	0x00012e06
    1298:	3a0e0319 	bcc	381f04 <__bss_end__+0x3778d4>
    129c:	270b3b0b 	strcs	r3, [fp, -fp, lsl #22]
    12a0:	11134919 	tstne	r3, r9, lsl r9
    12a4:	40061201 	andmi	r1, r6, r1, lsl #4
    12a8:	19429718 	stmdbne	r2, {r3, r4, r8, r9, sl, ip, pc}^
    12ac:	00001301 	andeq	r1, r0, r1, lsl #6
    12b0:	01828907 	orreq	r8, r2, r7, lsl #18
    12b4:	31011101 	tstcc	r1, r1, lsl #2
    12b8:	08000013 	stmdaeq	r0, {r0, r1, r4}
    12bc:	0001828a 	andeq	r8, r1, sl, lsl #5
    12c0:	42911802 	addsmi	r1, r1, #131072	; 0x20000
    12c4:	09000018 	stmdbeq	r0, {r3, r4}
    12c8:	08030034 	stmdaeq	r3, {r2, r4, r5}
    12cc:	0b3b0b3a 	bleq	ec3fbc <__bss_end__+0xeb998c>
    12d0:	17021349 	strne	r1, [r2, -r9, asr #6]
    12d4:	890a0000 	stmdbhi	sl, {}	; <UNPREDICTABLE>
    12d8:	11000182 	smlabbne	r0, r2, r1, r0
    12dc:	00133101 	andseq	r3, r3, r1, lsl #2
    12e0:	00050b00 	andeq	r0, r5, r0, lsl #22
    12e4:	0b3a0803 	bleq	e832f8 <__bss_end__+0xe78cc8>
    12e8:	13490b3b 	movtne	r0, #39739	; 0x9b3b
    12ec:	00001702 	andeq	r1, r0, r2, lsl #14
    12f0:	0300340c 	movweq	r3, #1036	; 0x40c
    12f4:	3b0b3a08 	blcc	2cfb1c <__bss_end__+0x2c54ec>
    12f8:	0213490b 	andseq	r4, r3, #180224	; 0x2c000
    12fc:	0d000018 	stceq	0, cr0, [r0, #-96]	; 0xffffffa0
    1300:	0111010b 	tsteq	r1, fp, lsl #2
    1304:	13010612 	movwne	r0, #5650	; 0x1612
    1308:	2e0e0000 	cdpcs	0, 0, cr0, cr14, cr0, {0}
    130c:	03193f01 	tsteq	r9, #1, 30
    1310:	3b0b3a0e 	blcc	2cfb50 <__bss_end__+0x2c5520>
    1314:	4919270b 	ldmdbmi	r9, {r0, r1, r3, r8, r9, sl, sp}
    1318:	01193c13 	tsteq	r9, r3, lsl ip
    131c:	0f000013 	svceq	0x00000013
    1320:	13490005 	movtne	r0, #36869	; 0x9005
    1324:	2e100000 	cdpcs	0, 1, cr0, cr0, cr0, {0}
    1328:	03193f00 	tsteq	r9, #0, 30
    132c:	3b0b3a0e 	blcc	2cfb6c <__bss_end__+0x2c553c>
    1330:	3c19270b 	ldccc	7, cr2, [r9], {11}
    1334:	00000019 	andeq	r0, r0, r9, lsl r0
    1338:	25011101 	strcs	r1, [r1, #-257]	; 0x101
    133c:	030b130e 	movweq	r1, #45838	; 0xb30e
    1340:	110e1b0e 	tstne	lr, lr, lsl #22
    1344:	10061201 	andne	r1, r6, r1, lsl #4
    1348:	02000017 	andeq	r0, r0, #23
    134c:	0b0b0024 	bleq	2c13e4 <__bss_end__+0x2b6db4>
    1350:	08030b3e 	stmdaeq	r3, {r1, r2, r3, r4, r5, r8, r9, fp}
    1354:	24030000 	strcs	r0, [r3], #-0
    1358:	3e0b0b00 	vmlacc.f64	d0, d11, d0
    135c:	000e030b 	andeq	r0, lr, fp, lsl #6
    1360:	00350400 	eorseq	r0, r5, r0, lsl #8
    1364:	00001349 	andeq	r1, r0, r9, asr #6
    1368:	03001605 	movweq	r1, #1541	; 0x605
    136c:	3b0b3a0e 	blcc	2cfbac <__bss_end__+0x2c557c>
    1370:	0013490b 	andseq	r4, r3, fp, lsl #18
    1374:	00160600 	andseq	r0, r6, r0, lsl #12
    1378:	0b3a0e03 	bleq	e84b8c <__bss_end__+0xe7a55c>
    137c:	1349053b 	movtne	r0, #38203	; 0x953b
    1380:	17070000 	strne	r0, [r7, -r0]
    1384:	3a0b0b01 	bcc	2c3f90 <__bss_end__+0x2b9960>
    1388:	010b3b0b 	tsteq	fp, fp, lsl #22
    138c:	08000013 	stmdaeq	r0, {r0, r1, r4}
    1390:	0e03000d 	cdpeq	0, 0, cr0, cr3, cr13, {0}
    1394:	0b3b0b3a 	bleq	ec4084 <__bss_end__+0xeb9a54>
    1398:	00001349 	andeq	r1, r0, r9, asr #6
    139c:	49010109 	stmdbmi	r1, {r0, r3, r8}
    13a0:	00130113 	andseq	r0, r3, r3, lsl r1
    13a4:	00210a00 	eoreq	r0, r1, r0, lsl #20
    13a8:	0b2f1349 	bleq	bc60d4 <__bss_end__+0xbbbaa4>
    13ac:	130b0000 	movwne	r0, #45056	; 0xb000
    13b0:	3a0b0b01 	bcc	2c3fbc <__bss_end__+0x2b998c>
    13b4:	010b3b0b 	tsteq	fp, fp, lsl #22
    13b8:	0c000013 	stceq	0, cr0, [r0], {19}
    13bc:	0e03000d 	cdpeq	0, 0, cr0, cr3, cr13, {0}
    13c0:	0b3b0b3a 	bleq	ec40b0 <__bss_end__+0xeb9a80>
    13c4:	0b381349 	bleq	e060f0 <__bss_end__+0xdfbac0>
    13c8:	0f0d0000 	svceq	0x000d0000
    13cc:	000b0b00 	andeq	r0, fp, r0, lsl #22
    13d0:	000f0e00 	andeq	r0, pc, r0, lsl #28
    13d4:	13490b0b 	movtne	r0, #39691	; 0x9b0b
    13d8:	260f0000 	strcs	r0, [pc], -r0
    13dc:	00134900 	andseq	r4, r3, r0, lsl #18
    13e0:	01131000 	tsteq	r3, r0
    13e4:	0b0b0e03 	bleq	2c4bf8 <__bss_end__+0x2ba5c8>
    13e8:	0b3b0b3a 	bleq	ec40d8 <__bss_end__+0xeb9aa8>
    13ec:	00001301 	andeq	r1, r0, r1, lsl #6
    13f0:	03000d11 	movweq	r0, #3345	; 0xd11
    13f4:	3b0b3a08 	blcc	2cfc1c <__bss_end__+0x2c55ec>
    13f8:	3813490b 	ldmdacc	r3, {r0, r1, r3, r8, fp, lr}
    13fc:	1200000b 	andne	r0, r0, #11
    1400:	0e030113 	mcreq	1, 0, r0, cr3, cr3, {0}
    1404:	0b3a050b 	bleq	e82838 <__bss_end__+0xe78208>
    1408:	13010b3b 	movwne	r0, #6971	; 0x1b3b
    140c:	0d130000 	ldceq	0, cr0, [r3, #-0]
    1410:	3a0e0300 	bcc	382018 <__bss_end__+0x3779e8>
    1414:	490b3b0b 	stmdbmi	fp, {r0, r1, r3, r8, r9, fp, ip, sp}
    1418:	00053813 	andeq	r3, r5, r3, lsl r8
    141c:	00151400 	andseq	r1, r5, r0, lsl #8
    1420:	00001927 	andeq	r1, r0, r7, lsr #18
    1424:	27011515 	smladcs	r1, r5, r5, r1
    1428:	01134919 	tsteq	r3, r9, lsl r9
    142c:	16000013 			; <UNDEFINED> instruction: 0x16000013
    1430:	13490005 	movtne	r0, #36869	; 0x9005
    1434:	13170000 	tstne	r7, #0
    1438:	0b0e0301 	bleq	382044 <__bss_end__+0x377a14>
    143c:	3b0b3a05 	blcc	2cfc58 <__bss_end__+0x2c5628>
    1440:	00130105 	andseq	r0, r3, r5, lsl #2
    1444:	000d1800 	andeq	r1, sp, r0, lsl #16
    1448:	0b3a0e03 	bleq	e84c5c <__bss_end__+0xe7a62c>
    144c:	1349053b 	movtne	r0, #38203	; 0x953b
    1450:	00000b38 	andeq	r0, r0, r8, lsr fp
    1454:	03000d19 	movweq	r0, #3353	; 0xd19
    1458:	3b0b3a0e 	blcc	2cfc98 <__bss_end__+0x2c5668>
    145c:	38134905 	ldmdacc	r3, {r0, r2, r8, fp, lr}
    1460:	1a000005 	bne	147c <__code_start__-0x6b84>
    1464:	0e030113 	mcreq	1, 0, r0, cr3, cr3, {0}
    1468:	0b3a0b0b 	bleq	e8409c <__bss_end__+0xe79a6c>
    146c:	1301053b 	movwne	r0, #5435	; 0x153b
    1470:	131b0000 	tstne	fp, #0
    1474:	3a0b0b01 	bcc	2c4080 <__bss_end__+0x2b9a50>
    1478:	01053b0b 	tsteq	r5, fp, lsl #22
    147c:	1c000013 	stcne	0, cr0, [r0], {19}
    1480:	0b0b0117 	bleq	2c18e4 <__bss_end__+0x2b72b4>
    1484:	053b0b3a 	ldreq	r0, [fp, #-2874]!	; 0xb3a
    1488:	00001301 	andeq	r1, r0, r1, lsl #6
    148c:	03000d1d 	movweq	r0, #3357	; 0xd1d
    1490:	3b0b3a0e 	blcc	2cfcd0 <__bss_end__+0x2c56a0>
    1494:	00134905 	andseq	r4, r3, r5, lsl #18
    1498:	01151e00 	tsteq	r5, r0, lsl #28
    149c:	13011927 	movwne	r1, #6439	; 0x1927
    14a0:	341f0000 	ldrcc	r0, [pc], #-0	; 14a8 <__code_start__-0x6b58>
    14a4:	3a0e0300 	bcc	3820ac <__bss_end__+0x377a7c>
    14a8:	49053b0b 	stmdbmi	r5, {r0, r1, r3, r8, r9, fp, ip, sp}
    14ac:	3c193f13 	ldccc	15, cr3, [r9], {19}
    14b0:	20000019 	andcs	r0, r0, r9, lsl r0
    14b4:	0e030034 	mcreq	0, 0, r0, cr3, cr4, {1}
    14b8:	0b3b0b3a 	bleq	ec41a8 <__bss_end__+0xeb9b78>
    14bc:	193f1349 	ldmdbne	pc!, {r0, r3, r6, r8, r9, ip}	; <UNPREDICTABLE>
    14c0:	0000193c 	andeq	r1, r0, ip, lsr r9
    14c4:	0b010421 	bleq	42550 <__bss_end__+0x37f20>
    14c8:	3a13490b 	bcc	4d38fc <__bss_end__+0x4c92cc>
    14cc:	010b3b0b 	tsteq	fp, fp, lsl #22
    14d0:	22000013 	andcs	r0, r0, #19
    14d4:	0e030028 	cdpeq	0, 0, cr0, cr3, cr8, {1}
    14d8:	00000b1c 	andeq	r0, r0, ip, lsl fp
    14dc:	03003423 	movweq	r3, #1059	; 0x423
    14e0:	3b0b3a0e 	blcc	2cfd20 <__bss_end__+0x2c56f0>
    14e4:	1c13490b 	ldcne	9, cr4, [r3], {11}
    14e8:	24000006 	strcs	r0, [r0], #-6
    14ec:	193f012e 	ldmdbne	pc!, {r1, r2, r3, r5, r8}	; <UNPREDICTABLE>
    14f0:	0b3a0e03 	bleq	e84d04 <__bss_end__+0xe7a6d4>
    14f4:	19270b3b 	stmdbne	r7!, {r0, r1, r3, r4, r5, r8, r9, fp}
    14f8:	01111349 	tsteq	r1, r9, asr #6
    14fc:	18400612 	stmdane	r0, {r1, r4, r9, sl}^
    1500:	01194297 			; <UNDEFINED> instruction: 0x01194297
    1504:	25000013 	strcs	r0, [r0, #-19]
    1508:	00018289 	andeq	r8, r1, r9, lsl #5
    150c:	13310111 	teqne	r1, #1073741828	; 0x40000004
    1510:	2e260000 	cdpcs	0, 2, cr0, cr6, cr0, {0}
    1514:	03193f01 	tsteq	r9, #1, 30
    1518:	3b0b3a0e 	blcc	2cfd58 <__bss_end__+0x2c5728>
    151c:	1119270b 	tstne	r9, fp, lsl #14
    1520:	40061201 	andmi	r1, r6, r1, lsl #4
    1524:	19429718 	stmdbne	r2, {r3, r4, r8, r9, sl, ip, pc}^
    1528:	00001301 	andeq	r1, r0, r1, lsl #6
    152c:	03000527 	movweq	r0, #1319	; 0x527
    1530:	3b0b3a08 	blcc	2cfd58 <__bss_end__+0x2c5728>
    1534:	0213490b 	andseq	r4, r3, #180224	; 0x2c000
    1538:	28000017 	stmdacs	r0, {r0, r1, r2, r4}
    153c:	01018289 	smlabbeq	r1, r9, r2, r8
    1540:	13310111 	teqne	r1, #1073741828	; 0x40000004
    1544:	00001301 	andeq	r1, r0, r1, lsl #6
    1548:	01828a29 	orreq	r8, r2, r9, lsr #20
    154c:	91180200 	tstls	r8, r0, lsl #4
    1550:	00001842 	andeq	r1, r0, r2, asr #16
    1554:	0300342a 	movweq	r3, #1066	; 0x42a
    1558:	3b0b3a08 	blcc	2cfd80 <__bss_end__+0x2c5750>
    155c:	0213490b 	andseq	r4, r3, #180224	; 0x2c000
    1560:	2b000018 	blcs	15c8 <__code_start__-0x6a38>
    1564:	01018289 	smlabbeq	r1, r9, r2, r8
    1568:	13310111 	teqne	r1, #1073741828	; 0x40000004
    156c:	2e2c0000 	cdpcs	0, 2, cr0, cr12, cr0, {0}
    1570:	3a0e0301 	bcc	38217c <__bss_end__+0x377b4c>
    1574:	270b3b0b 	strcs	r3, [fp, -fp, lsl #22]
    1578:	12011119 	andne	r1, r1, #1073741830	; 0x40000006
    157c:	97184006 	ldrls	r4, [r8, -r6]
    1580:	13011942 	movwne	r1, #6466	; 0x1942
    1584:	052d0000 	streq	r0, [sp, #-0]!
    1588:	3a0e0300 	bcc	382190 <__bss_end__+0x377b60>
    158c:	490b3b0b 	stmdbmi	fp, {r0, r1, r3, r8, r9, fp, ip, sp}
    1590:	00170213 	andseq	r0, r7, r3, lsl r2
    1594:	00352e00 	eorseq	r2, r5, r0, lsl #28
    1598:	2e2f0000 	cdpcs	0, 2, cr0, cr15, cr0, {0}
    159c:	3c193f00 	ldccc	15, cr3, [r9], {-0}
    15a0:	030e6e19 	movweq	r6, #60953	; 0xee19
    15a4:	3b0b3a0e 	blcc	2cfde4 <__bss_end__+0x2c57b4>
    15a8:	0000000b 	andeq	r0, r0, fp
    15ac:	25011101 	strcs	r1, [r1, #-257]	; 0x101
    15b0:	030b130e 	movweq	r1, #45838	; 0xb30e
    15b4:	110e1b0e 	tstne	lr, lr, lsl #22
    15b8:	10061201 	andne	r1, r6, r1, lsl #4
    15bc:	02000017 	andeq	r0, r0, #23
    15c0:	0b0b0024 	bleq	2c1658 <__bss_end__+0x2b7028>
    15c4:	08030b3e 	stmdaeq	r3, {r1, r2, r3, r4, r5, r8, r9, fp}
    15c8:	24030000 	strcs	r0, [r3], #-0
    15cc:	3e0b0b00 	vmlacc.f64	d0, d11, d0
    15d0:	000e030b 	andeq	r0, lr, fp, lsl #6
    15d4:	00260400 	eoreq	r0, r6, r0, lsl #8
    15d8:	00001349 	andeq	r1, r0, r9, asr #6
    15dc:	03001605 	movweq	r1, #1541	; 0x605
    15e0:	3b0b3a0e 	blcc	2cfe20 <__bss_end__+0x2c57f0>
    15e4:	0013490b 	andseq	r4, r3, fp, lsl #18
    15e8:	00160600 	andseq	r0, r6, r0, lsl #12
    15ec:	0b3a0e03 	bleq	e84e00 <__bss_end__+0xe7a7d0>
    15f0:	1349053b 	movtne	r0, #38203	; 0x953b
    15f4:	17070000 	strne	r0, [r7, -r0]
    15f8:	3a0b0b01 	bcc	2c4204 <__bss_end__+0x2b9bd4>
    15fc:	010b3b0b 	tsteq	fp, fp, lsl #22
    1600:	08000013 	stmdaeq	r0, {r0, r1, r4}
    1604:	0e03000d 	cdpeq	0, 0, cr0, cr3, cr13, {0}
    1608:	0b3b0b3a 	bleq	ec42f8 <__bss_end__+0xeb9cc8>
    160c:	00001349 	andeq	r1, r0, r9, asr #6
    1610:	49010109 	stmdbmi	r1, {r0, r3, r8}
    1614:	00130113 	andseq	r0, r3, r3, lsl r1
    1618:	00210a00 	eoreq	r0, r1, r0, lsl #20
    161c:	0b2f1349 	bleq	bc6348 <__bss_end__+0xbbbd18>
    1620:	130b0000 	movwne	r0, #45056	; 0xb000
    1624:	3a0b0b01 	bcc	2c4230 <__bss_end__+0x2b9c00>
    1628:	010b3b0b 	tsteq	fp, fp, lsl #22
    162c:	0c000013 	stceq	0, cr0, [r0], {19}
    1630:	0e03000d 	cdpeq	0, 0, cr0, cr3, cr13, {0}
    1634:	0b3b0b3a 	bleq	ec4324 <__bss_end__+0xeb9cf4>
    1638:	0b381349 	bleq	e06364 <__bss_end__+0xdfbd34>
    163c:	0f0d0000 	svceq	0x000d0000
    1640:	000b0b00 	andeq	r0, fp, r0, lsl #22
    1644:	000f0e00 	andeq	r0, pc, r0, lsl #28
    1648:	13490b0b 	movtne	r0, #39691	; 0x9b0b
    164c:	130f0000 	movwne	r0, #61440	; 0xf000
    1650:	0b0e0301 	bleq	38225c <__bss_end__+0x377c2c>
    1654:	3b0b3a0b 	blcc	2cfe88 <__bss_end__+0x2c5858>
    1658:	0013010b 	andseq	r0, r3, fp, lsl #2
    165c:	000d1000 	andeq	r1, sp, r0
    1660:	0b3a0803 	bleq	e83674 <__bss_end__+0xe79044>
    1664:	13490b3b 	movtne	r0, #39739	; 0x9b3b
    1668:	00000b38 	andeq	r0, r0, r8, lsr fp
    166c:	03011311 	movweq	r1, #4881	; 0x1311
    1670:	3a050b0e 	bcc	1442b0 <__bss_end__+0x139c80>
    1674:	010b3b0b 	tsteq	fp, fp, lsl #22
    1678:	12000013 	andne	r0, r0, #19
    167c:	0e03000d 	cdpeq	0, 0, cr0, cr3, cr13, {0}
    1680:	0b3b0b3a 	bleq	ec4370 <__bss_end__+0xeb9d40>
    1684:	05381349 	ldreq	r1, [r8, #-841]!	; 0x349
    1688:	15130000 	ldrne	r0, [r3, #-0]
    168c:	00192700 	andseq	r2, r9, r0, lsl #14
    1690:	01151400 	tsteq	r5, r0, lsl #8
    1694:	13491927 	movtne	r1, #39207	; 0x9927
    1698:	00001301 	andeq	r1, r0, r1, lsl #6
    169c:	49000515 	stmdbmi	r0, {r0, r2, r4, r8, sl}
    16a0:	16000013 			; <UNDEFINED> instruction: 0x16000013
    16a4:	0e030113 	mcreq	1, 0, r0, cr3, cr3, {0}
    16a8:	0b3a050b 	bleq	e82adc <__bss_end__+0xe784ac>
    16ac:	1301053b 	movwne	r0, #5435	; 0x153b
    16b0:	0d170000 	ldceq	0, cr0, [r7, #-0]
    16b4:	3a0e0300 	bcc	3822bc <__bss_end__+0x377c8c>
    16b8:	49053b0b 	stmdbmi	r5, {r0, r1, r3, r8, r9, fp, ip, sp}
    16bc:	000b3813 	andeq	r3, fp, r3, lsl r8
    16c0:	000d1800 	andeq	r1, sp, r0, lsl #16
    16c4:	0b3a0e03 	bleq	e84ed8 <__bss_end__+0xe7a8a8>
    16c8:	1349053b 	movtne	r0, #38203	; 0x953b
    16cc:	00000538 	andeq	r0, r0, r8, lsr r5
    16d0:	03011319 	movweq	r1, #4889	; 0x1319
    16d4:	3a0b0b0e 	bcc	2c4314 <__bss_end__+0x2b9ce4>
    16d8:	01053b0b 	tsteq	r5, fp, lsl #22
    16dc:	1a000013 	bne	1730 <__code_start__-0x68d0>
    16e0:	0b0b0113 	bleq	2c1b34 <__bss_end__+0x2b7504>
    16e4:	053b0b3a 	ldreq	r0, [fp, #-2874]!	; 0xb3a
    16e8:	00001301 	andeq	r1, r0, r1, lsl #6
    16ec:	0b01171b 	bleq	47360 <__bss_end__+0x3cd30>
    16f0:	3b0b3a0b 	blcc	2cff24 <__bss_end__+0x2c58f4>
    16f4:	00130105 	andseq	r0, r3, r5, lsl #2
    16f8:	000d1c00 	andeq	r1, sp, r0, lsl #24
    16fc:	0b3a0e03 	bleq	e84f10 <__bss_end__+0xe7a8e0>
    1700:	1349053b 	movtne	r0, #38203	; 0x953b
    1704:	151d0000 	ldrne	r0, [sp, #-0]
    1708:	01192701 	tsteq	r9, r1, lsl #14
    170c:	1e000013 	mcrne	0, 0, r0, cr0, cr3, {0}
    1710:	0e030034 	mcreq	0, 0, r0, cr3, cr4, {1}
    1714:	053b0b3a 	ldreq	r0, [fp, #-2874]!	; 0xb3a
    1718:	193f1349 	ldmdbne	pc!, {r0, r3, r6, r8, r9, ip}	; <UNPREDICTABLE>
    171c:	0000193c 	andeq	r1, r0, ip, lsr r9
    1720:	0300341f 	movweq	r3, #1055	; 0x41f
    1724:	3b0b3a0e 	blcc	2cff64 <__bss_end__+0x2c5934>
    1728:	3f13490b 	svccc	0x0013490b
    172c:	00193c19 	andseq	r3, r9, r9, lsl ip
    1730:	01042000 	mrseq	r2, (UNDEF: 4)
    1734:	13490b0b 	movtne	r0, #39691	; 0x9b0b
    1738:	0b3b0b3a 	bleq	ec4428 <__bss_end__+0xeb9df8>
    173c:	00001301 	andeq	r1, r0, r1, lsl #6
    1740:	03002821 	movweq	r2, #2081	; 0x821
    1744:	000b1c0e 	andeq	r1, fp, lr, lsl #24
    1748:	00342200 	eorseq	r2, r4, r0, lsl #4
    174c:	0b3a0e03 	bleq	e84f60 <__bss_end__+0xe7a930>
    1750:	13490b3b 	movtne	r0, #39739	; 0x9b3b
    1754:	0000061c 	andeq	r0, r0, ip, lsl r6
    1758:	3f012e23 	svccc	0x00012e23
    175c:	3a0e0319 	bcc	3823c8 <__bss_end__+0x377d98>
    1760:	270b3b0b 	strcs	r3, [fp, -fp, lsl #22]
    1764:	11134919 	tstne	r3, r9, lsl r9
    1768:	40061201 	andmi	r1, r6, r1, lsl #4
    176c:	19429718 	stmdbne	r2, {r3, r4, r8, r9, sl, ip, pc}^
    1770:	00001301 	andeq	r1, r0, r1, lsl #6
    1774:	03000524 	movweq	r0, #1316	; 0x524
    1778:	3b0b3a08 	blcc	2cffa0 <__bss_end__+0x2c5970>
    177c:	0213490b 	andseq	r4, r3, #180224	; 0x2c000
    1780:	25000017 	strcs	r0, [r0, #-23]
    1784:	0e030034 	mcreq	0, 0, r0, cr3, cr4, {1}
    1788:	0b3b0b3a 	bleq	ec4478 <__bss_end__+0xeb9e48>
    178c:	17021349 	strne	r1, [r2, -r9, asr #6]
    1790:	34260000 	strtcc	r0, [r6], #-0
    1794:	3a080300 	bcc	20239c <__bss_end__+0x1f7d6c>
    1798:	490b3b0b 	stmdbmi	fp, {r0, r1, r3, r8, r9, fp, ip, sp}
    179c:	00170213 	andseq	r0, r7, r3, lsl r2
    17a0:	82892700 	addhi	r2, r9, #0, 14
    17a4:	01110101 	tsteq	r1, r1, lsl #2
    17a8:	00001331 	andeq	r1, r0, r1, lsr r3
    17ac:	01828a28 	orreq	r8, r2, r8, lsr #20
    17b0:	91180200 	tstls	r8, r0, lsl #4
    17b4:	00001842 	andeq	r1, r0, r2, asr #16
    17b8:	3f012e29 	svccc	0x00012e29
    17bc:	3a0e0319 	bcc	382428 <__bss_end__+0x377df8>
    17c0:	270b3b0b 	strcs	r3, [fp, -fp, lsl #22]
    17c4:	12011119 	andne	r1, r1, #1073741830	; 0x40000006
    17c8:	97184006 	ldrls	r4, [r8, -r6]
    17cc:	13011942 	movwne	r1, #6466	; 0x1942
    17d0:	892a0000 	stmdbhi	sl!, {}	; <UNPREDICTABLE>
    17d4:	11010182 	smlabbne	r1, r2, r1, r0
    17d8:	01133101 	tsteq	r3, r1, lsl #2
    17dc:	2b000013 	blcs	1830 <__code_start__-0x67d0>
    17e0:	00018289 	andeq	r8, r1, r9, lsl #5
    17e4:	13310111 	teqne	r1, #1073741828	; 0x40000004
    17e8:	052c0000 	streq	r0, [ip, #-0]!
    17ec:	3a0e0300 	bcc	3823f4 <__bss_end__+0x377dc4>
    17f0:	490b3b0b 	stmdbmi	fp, {r0, r1, r3, r8, r9, fp, ip, sp}
    17f4:	00170213 	andseq	r0, r7, r3, lsl r2
    17f8:	00342d00 	eorseq	r2, r4, r0, lsl #26
    17fc:	0b3a0803 	bleq	e83810 <__bss_end__+0xe791e0>
    1800:	13490b3b 	movtne	r0, #39739	; 0x9b3b
    1804:	00001802 	andeq	r1, r0, r2, lsl #16
    1808:	3f002e2e 	svccc	0x00002e2e
    180c:	6e193c19 	mrcvs	12, 0, r3, cr9, cr9, {0}
    1810:	3a0e030e 	bcc	382450 <__bss_end__+0x377e20>
    1814:	000b3b0b 	andeq	r3, fp, fp, lsl #22
	...

Disassembly of section .debug_loc:

00000000 <.debug_loc>:
       0:	00000004 	andeq	r0, r0, r4
       4:	00000008 	andeq	r0, r0, r8
       8:	08500001 	ldmdaeq	r0, {r0}^
       c:	0c000000 	stceq	0, cr0, [r0], {-0}
      10:	04000000 	streq	r0, [r0], #-0
      14:	5001f300 	andpl	pc, r1, r0, lsl #6
      18:	0000009f 	muleq	r0, pc, r0	; <UNPREDICTABLE>
      1c:	00000000 	andeq	r0, r0, r0
      20:	00001000 	andeq	r1, r0, r0
      24:	00002000 	andeq	r2, r0, r0
      28:	50000100 	andpl	r0, r0, r0, lsl #2
      2c:	00000020 	andeq	r0, r0, r0, lsr #32
      30:	00000024 	andeq	r0, r0, r4, lsr #32
      34:	01f30004 	mvnseq	r0, r4
      38:	00249f50 	eoreq	r9, r4, r0, asr pc
      3c:	00280000 	eoreq	r0, r8, r0
      40:	00010000 	andeq	r0, r1, r0
      44:	00002850 	andeq	r2, r0, r0, asr r8
      48:	00002c00 	andeq	r2, r0, r0, lsl #24
      4c:	f3000400 	vshl.u8	d0, d0, d0
      50:	009f5001 	addseq	r5, pc, r1
	...
      5c:	23000000 	movwcs	r0, #0
      60:	01000000 	mrseq	r0, (UNDEF: 0)
      64:	00235000 	eoreq	r5, r3, r0
      68:	00440000 	subeq	r0, r4, r0
      6c:	00040000 	andeq	r0, r4, r0
      70:	9f5001f3 	svcls	0x005001f3
      74:	00000044 	andeq	r0, r0, r4, asr #32
      78:	0000005f 	andeq	r0, r0, pc, asr r0
      7c:	5f500001 	svcpl	0x00500001
      80:	80000000 	andhi	r0, r0, r0
      84:	04000000 	streq	r0, [r0], #-0
      88:	5001f300 	andpl	pc, r1, r0, lsl #6
      8c:	0000809f 	muleq	r0, pc, r0	; <UNPREDICTABLE>
      90:	0000b000 	andeq	fp, r0, r0
      94:	50000100 	andpl	r0, r0, r0, lsl #2
	...
      a4:	00000023 	andeq	r0, r0, r3, lsr #32
      a8:	23510001 	cmpcs	r1, #1
      ac:	44000000 	strmi	r0, [r0], #-0
      b0:	04000000 	streq	r0, [r0], #-0
      b4:	5101f300 	mrspl	pc, SP_irq	; <UNPREDICTABLE>
      b8:	0000449f 	muleq	r0, pc, r4	; <UNPREDICTABLE>
      bc:	00005f00 	andeq	r5, r0, r0, lsl #30
      c0:	51000100 	mrspl	r0, (UNDEF: 16)
      c4:	0000005f 	andeq	r0, r0, pc, asr r0
      c8:	00000080 	andeq	r0, r0, r0, lsl #1
      cc:	01f30004 	mvnseq	r0, r4
      d0:	00809f51 	addeq	r9, r0, r1, asr pc
      d4:	00b00000 	adcseq	r0, r0, r0
      d8:	00010000 	andeq	r0, r1, r0
      dc:	00000051 	andeq	r0, r0, r1, asr r0
      e0:	00000000 	andeq	r0, r0, r0
      e4:	00001000 	andeq	r1, r0, r0
      e8:	00002300 	andeq	r2, r0, r0, lsl #6
      ec:	53000100 	movwpl	r0, #256	; 0x100
      f0:	00000044 	andeq	r0, r0, r4, asr #32
      f4:	00000048 	andeq	r0, r0, r8, asr #32
      f8:	48530001 	ldmdami	r3, {r0}^
      fc:	b0000000 	andlt	r0, r0, r0
     100:	04000000 	streq	r0, [r0], #-0
     104:	01ff0a00 	mvnseq	r0, r0, lsl #20
     108:	0000009f 	muleq	r0, pc, r0	; <UNPREDICTABLE>
     10c:	00000000 	andeq	r0, r0, r0
     110:	00004400 	andeq	r4, r0, r0, lsl #8
     114:	00005f00 	andeq	r5, r0, r0, lsl #30
     118:	50000100 	andpl	r0, r0, r0, lsl #2
     11c:	0000005f 	andeq	r0, r0, pc, asr r0
     120:	00000080 	andeq	r0, r0, r0, lsl #1
     124:	01f30004 	mvnseq	r0, r4
     128:	00809f50 	addeq	r9, r0, r0, asr pc
     12c:	00b00000 	adcseq	r0, r0, r0
     130:	00010000 	andeq	r0, r1, r0
     134:	00000050 	andeq	r0, r0, r0, asr r0
     138:	00000000 	andeq	r0, r0, r0
     13c:	00000c00 	andeq	r0, r0, r0, lsl #24
     140:	00001000 	andeq	r1, r0, r0
     144:	53000100 	movwpl	r0, #256	; 0x100
	...
     150:	00000010 	andeq	r0, r0, r0, lsl r0
     154:	00000023 	andeq	r0, r0, r3, lsr #32
     158:	44530001 	ldrbmi	r0, [r3], #-1
     15c:	4c000000 	stcmi	0, cr0, [r0], {-0}
     160:	01000000 	mrseq	r0, (UNDEF: 0)
     164:	00005300 	andeq	r5, r0, r0, lsl #6
     168:	00000000 	andeq	r0, r0, r0
     16c:	00180000 	andseq	r0, r8, r0
     170:	00230000 	eoreq	r0, r3, r0
     174:	00010000 	andeq	r0, r1, r0
     178:	00004452 	andeq	r4, r0, r2, asr r4
     17c:	00005400 	andeq	r5, r0, r0, lsl #8
     180:	52000100 	andpl	r0, r0, #0, 2
	...
     18c:	00000054 	andeq	r0, r0, r4, asr r0
     190:	0000005f 	andeq	r0, r0, pc, asr r0
     194:	80520001 	subshi	r0, r2, r1
     198:	b0000000 	andlt	r0, r0, r0
     19c:	01000000 	mrseq	r0, (UNDEF: 0)
     1a0:	00005200 	andeq	r5, r0, r0, lsl #4
     1a4:	00000000 	andeq	r0, r0, r0
     1a8:	00b00000 	adcseq	r0, r0, r0
     1ac:	00d30000 	sbcseq	r0, r3, r0
     1b0:	00010000 	andeq	r0, r1, r0
     1b4:	0000d350 	andeq	sp, r0, r0, asr r3
     1b8:	0000ec00 	andeq	lr, r0, r0, lsl #24
     1bc:	f3000400 	vshl.u8	d0, d0, d0
     1c0:	ec9f5001 	ldc	0, cr5, [pc], {1}
     1c4:	ff000000 			; <UNDEFINED> instruction: 0xff000000
     1c8:	01000000 	mrseq	r0, (UNDEF: 0)
     1cc:	00ff5000 	rscseq	r5, pc, r0
     1d0:	01200000 	teqeq	r0, r0
     1d4:	00040000 	andeq	r0, r4, r0
     1d8:	9f5001f3 	svcls	0x005001f3
     1dc:	00000120 	andeq	r0, r0, r0, lsr #2
     1e0:	00000133 	andeq	r0, r0, r3, lsr r1
     1e4:	33500001 	cmpcc	r0, #1
     1e8:	54000001 	strpl	r0, [r0], #-1
     1ec:	04000001 	streq	r0, [r0], #-1
     1f0:	5001f300 	andpl	pc, r1, r0, lsl #6
     1f4:	0001549f 	muleq	r1, pc, r4	; <UNPREDICTABLE>
     1f8:	00015c00 	andeq	r5, r1, r0, lsl #24
     1fc:	50000100 	andpl	r0, r0, r0, lsl #2
     200:	0000015c 	andeq	r0, r0, ip, asr r1
     204:	0000015f 	andeq	r0, r0, pc, asr r1
     208:	5f510001 	svcpl	0x00510001
     20c:	8c000001 	stchi	0, cr0, [r0], {1}
     210:	04000001 	streq	r0, [r0], #-1
     214:	5001f300 	andpl	pc, r1, r0, lsl #6
     218:	0000009f 	muleq	r0, pc, r0	; <UNPREDICTABLE>
     21c:	00000000 	andeq	r0, r0, r0
     220:	0000c400 	andeq	ip, r0, r0, lsl #8
     224:	0000c800 	andeq	ip, r0, r0, lsl #16
     228:	53000100 	movwpl	r0, #256	; 0x100
	...
     234:	000000f0 	strdeq	r0, [r0], -r0	; <UNPREDICTABLE>
     238:	000000f4 	strdeq	r0, [r0], -r4
     23c:	f4530001 			; <UNDEFINED> instruction: 0xf4530001
     240:	ff000000 			; <UNDEFINED> instruction: 0xff000000
     244:	03000000 	movweq	r0, #0
     248:	9f047300 	svcls	0x00047300
     24c:	00000120 	andeq	r0, r0, r0, lsr #2
     250:	00000124 	andeq	r0, r0, r4, lsr #2
     254:	04730003 	ldrbteq	r0, [r3], #-3
     258:	0000009f 	muleq	r0, pc, r0	; <UNPREDICTABLE>
     25c:	00000000 	andeq	r0, r0, r0
     260:	0001d000 	andeq	sp, r1, r0
     264:	0001d800 	andeq	sp, r1, r0, lsl #16
     268:	53000100 	movwpl	r0, #256	; 0x100
     26c:	000001d8 	ldrdeq	r0, [r0], -r8
     270:	000001fc 	strdeq	r0, [r0], -ip
     274:	e70a0004 	str	r0, [sl, -r4]
     278:	00009f01 	andeq	r9, r0, r1, lsl #30
     27c:	00000000 	andeq	r0, r0, r0
     280:	01cc0000 	biceq	r0, ip, r0
     284:	01d00000 	bicseq	r0, r0, r0
     288:	00010000 	andeq	r0, r1, r0
     28c:	00000053 	andeq	r0, r0, r3, asr r0
     290:	00000000 	andeq	r0, r0, r0
     294:	0001d000 	andeq	sp, r1, r0
     298:	0001dc00 	andeq	sp, r1, r0, lsl #24
     29c:	53000100 	movwpl	r0, #256	; 0x100
	...
     2a8:	000001fc 	strdeq	r0, [r0], -ip
     2ac:	0000021b 	andeq	r0, r0, fp, lsl r2
     2b0:	1b500001 	blne	14002bc <__bss_end__+0x13f5c8c>
     2b4:	34000002 	strcc	r0, [r0], #-2
     2b8:	04000002 	streq	r0, [r0], #-2
     2bc:	5001f300 	andpl	pc, r1, r0, lsl #6
     2c0:	0002349f 	muleq	r2, pc, r4	; <UNPREDICTABLE>
     2c4:	00024700 	andeq	r4, r2, r0, lsl #14
     2c8:	50000100 	andpl	r0, r0, r0, lsl #2
     2cc:	00000247 	andeq	r0, r0, r7, asr #4
     2d0:	00000268 	andeq	r0, r0, r8, ror #4
     2d4:	01f30004 	mvnseq	r0, r4
     2d8:	02689f50 	rsbeq	r9, r8, #80, 30	; 0x140
     2dc:	02700000 	rsbseq	r0, r0, #0
     2e0:	00010000 	andeq	r0, r1, r0
     2e4:	00027050 	andeq	r7, r2, r0, asr r0
     2e8:	00027300 	andeq	r7, r2, r0, lsl #6
     2ec:	51000100 	mrspl	r0, (UNDEF: 16)
     2f0:	00000273 	andeq	r0, r0, r3, ror r2
     2f4:	00000294 	muleq	r0, r4, r2
     2f8:	01f30004 	mvnseq	r0, r4
     2fc:	00009f50 	andeq	r9, r0, r0, asr pc
     300:	00000000 	andeq	r0, r0, r0
     304:	020c0000 	andeq	r0, ip, #0
     308:	02100000 	andseq	r0, r0, #0
     30c:	00010000 	andeq	r0, r1, r0
     310:	00000053 	andeq	r0, r0, r3, asr r0
     314:	00000000 	andeq	r0, r0, r0
     318:	0002cc00 	andeq	ip, r2, r0, lsl #24
     31c:	0002d400 	andeq	sp, r2, r0, lsl #8
     320:	53000100 	movwpl	r0, #256	; 0x100
     324:	000002d4 	ldrdeq	r0, [r0], -r4
     328:	000002f8 	strdeq	r0, [r0], -r8
     32c:	e70c0006 	str	r0, [ip, -r6]
     330:	9f004001 	svcls	0x00004001
	...
     33c:	000002c8 	andeq	r0, r0, r8, asr #5
     340:	000002cc 	andeq	r0, r0, ip, asr #5
     344:	00530001 	subseq	r0, r3, r1
     348:	00000000 	andeq	r0, r0, r0
     34c:	cc000000 	stcgt	0, cr0, [r0], {-0}
     350:	d8000002 	stmdale	r0, {r1}
     354:	01000002 	tsteq	r0, r2
     358:	00005300 	andeq	r5, r0, r0, lsl #6
     35c:	00000000 	andeq	r0, r0, r0
     360:	03080000 	movweq	r0, #32768	; 0x8000
     364:	03240000 	teqeq	r4, #0
     368:	00010000 	andeq	r0, r1, r0
     36c:	00032450 	andeq	r2, r3, r0, asr r4
     370:	00032800 	andeq	r2, r3, r0, lsl #16
     374:	f3000400 	vshl.u8	d0, d0, d0
     378:	289f5001 	ldmcs	pc, {r0, ip, lr}	; <UNPREDICTABLE>
     37c:	40000003 	andmi	r0, r0, r3
     380:	01000003 	tsteq	r0, r3
     384:	03405000 	movteq	r5, #0
     388:	03480000 	movteq	r0, #32768	; 0x8000
     38c:	00040000 	andeq	r0, r4, r0
     390:	9f5001f3 	svcls	0x005001f3
     394:	00000348 	andeq	r0, r0, r8, asr #6
     398:	00000354 	andeq	r0, r0, r4, asr r3
     39c:	54500001 	ldrbpl	r0, [r0], #-1
     3a0:	64000003 	strvs	r0, [r0], #-3
     3a4:	04000003 	streq	r0, [r0], #-3
     3a8:	5001f300 	andpl	pc, r1, r0, lsl #6
     3ac:	0003649f 	muleq	r3, pc, r4	; <UNPREDICTABLE>
     3b0:	00036800 	andeq	r6, r3, r0, lsl #16
     3b4:	50000100 	andpl	r0, r0, r0, lsl #2
     3b8:	00000368 	andeq	r0, r0, r8, ror #6
     3bc:	0000036c 	andeq	r0, r0, ip, ror #6
     3c0:	01f30004 	mvnseq	r0, r4
     3c4:	036c9f50 	cmneq	ip, #80, 30	; 0x140
     3c8:	03700000 	cmneq	r0, #0
     3cc:	00010000 	andeq	r0, r1, r0
     3d0:	00037050 	andeq	r7, r3, r0, asr r0
     3d4:	00037800 	andeq	r7, r3, r0, lsl #16
     3d8:	f3000400 	vshl.u8	d0, d0, d0
     3dc:	009f5001 	addseq	r5, pc, r1
     3e0:	00000000 	andeq	r0, r0, r0
     3e4:	08000000 	stmdaeq	r0, {}	; <UNPREDICTABLE>
     3e8:	58000003 	stmdapl	r0, {r0, r1}
     3ec:	01000003 	tsteq	r0, r3
     3f0:	03585100 	cmpeq	r8, #0, 2
     3f4:	03640000 	cmneq	r4, #0
     3f8:	00040000 	andeq	r0, r4, r0
     3fc:	9f5101f3 	svcls	0x005101f3
     400:	00000364 	andeq	r0, r0, r4, ror #6
     404:	00000378 	andeq	r0, r0, r8, ror r3
     408:	00510001 	subseq	r0, r1, r1
     40c:	00000000 	andeq	r0, r0, r0
     410:	14000000 	strne	r0, [r0], #-0
     414:	34000003 	strcc	r0, [r0], #-3
     418:	01000003 	tsteq	r0, r3
     41c:	03345300 	teqeq	r4, #0, 6
     420:	03400000 	movteq	r0, #0
     424:	000a0000 	andeq	r0, sl, r0
     428:	0c060070 	stceq	0, cr0, [r6], {112}	; 0x70
     42c:	00ffffff 	ldrshteq	pc, [pc], #255	; <UNPREDICTABLE>
     430:	03409f1a 	movteq	r9, #3866	; 0xf1a
     434:	03440000 	movteq	r0, #16384	; 0x4000
     438:	000b0000 	andeq	r0, fp, r0
     43c:	065001f3 			; <UNDEFINED> instruction: 0x065001f3
     440:	ffffff0c 			; <UNDEFINED> instruction: 0xffffff0c
     444:	489f1a00 	ldmmi	pc, {r9, fp, ip}	; <UNPREDICTABLE>
     448:	5b000003 	blpl	45c <__code_start__-0x7ba4>
     44c:	01000003 	tsteq	r0, r3
     450:	03645300 	cmneq	r4, #0, 6
     454:	03680000 	cmneq	r8, #0
     458:	000a0000 	andeq	r0, sl, r0
     45c:	0c060070 	stceq	0, cr0, [r6], {112}	; 0x70
     460:	00ffffff 	ldrshteq	pc, [pc], #255	; <UNPREDICTABLE>
     464:	03689f1a 	cmneq	r8, #26, 30	; 0x68
     468:	036c0000 	cmneq	ip, #0
     46c:	000b0000 	andeq	r0, fp, r0
     470:	065001f3 			; <UNDEFINED> instruction: 0x065001f3
     474:	ffffff0c 			; <UNDEFINED> instruction: 0xffffff0c
     478:	6c9f1a00 	vldmiavs	pc, {s2-s1}
     47c:	78000003 	stmdavc	r0, {r0, r1}
     480:	01000003 	tsteq	r0, r3
     484:	00005300 	andeq	r5, r0, r0, lsl #6
	...
     490:	00240000 	eoreq	r0, r4, r0
     494:	00010000 	andeq	r0, r1, r0
     498:	00002450 	andeq	r2, r0, r0, asr r4
     49c:	0001ac00 	andeq	sl, r1, r0, lsl #24
     4a0:	f3000400 	vshl.u8	d0, d0, d0
     4a4:	009f5001 	addseq	r5, pc, r1
	...
     4b0:	28000000 	stmdacs	r0, {}	; <UNPREDICTABLE>
     4b4:	01000000 	mrseq	r0, (UNDEF: 0)
     4b8:	00285100 	eoreq	r5, r8, r0, lsl #2
     4bc:	01780000 	cmneq	r8, r0
     4c0:	00010000 	andeq	r0, r1, r0
     4c4:	00017855 	andeq	r7, r1, r5, asr r8
     4c8:	0001ac00 	andeq	sl, r1, r0, lsl #24
     4cc:	f3000400 	vshl.u8	d0, d0, d0
     4d0:	009f5101 	addseq	r5, pc, r1, lsl #2
	...
     4dc:	2c000000 	stccs	0, cr0, [r0], {-0}
     4e0:	01000000 	mrseq	r0, (UNDEF: 0)
     4e4:	002c5200 	eoreq	r5, ip, r0, lsl #4
     4e8:	01ac0000 			; <UNDEFINED> instruction: 0x01ac0000
     4ec:	00040000 	andeq	r0, r4, r0
     4f0:	9f5201f3 	svcls	0x005201f3
	...
     4fc:	00000068 	andeq	r0, r0, r8, rrx
     500:	00000178 	andeq	r0, r0, r8, ror r1
     504:	00540001 	subseq	r0, r4, r1
     508:	00000000 	andeq	r0, r0, r0
     50c:	38000000 	stmdacc	r0, {}	; <UNPREDICTABLE>
     510:	3c000000 	stccc	0, cr0, [r0], {-0}
     514:	01000000 	mrseq	r0, (UNDEF: 0)
     518:	00005300 	andeq	r5, r0, r0, lsl #6
     51c:	00000000 	andeq	r0, r0, r0
     520:	01ac0000 			; <UNDEFINED> instruction: 0x01ac0000
     524:	01e80000 	mvneq	r0, r0
     528:	00010000 	andeq	r0, r1, r0
     52c:	0001e850 	andeq	lr, r1, r0, asr r8
     530:	00062c00 	andeq	r2, r6, r0, lsl #24
     534:	54000100 	strpl	r0, [r0], #-256	; 0x100
     538:	0000062c 	andeq	r0, r0, ip, lsr #12
     53c:	0000068c 	andeq	r0, r0, ip, lsl #13
     540:	01f30004 	mvnseq	r0, r4
     544:	00009f50 	andeq	r9, r0, r0, asr pc
     548:	00000000 	andeq	r0, r0, r0
     54c:	01bc0000 			; <UNDEFINED> instruction: 0x01bc0000
     550:	05080000 	streq	r0, [r8, #-0]
     554:	00010000 	andeq	r0, r1, r0
     558:	00000058 	andeq	r0, r0, r8, asr r0
     55c:	00000000 	andeq	r0, r0, r0
     560:	0002c000 	andeq	ip, r2, r0
     564:	00050800 	andeq	r0, r5, r0, lsl #16
     568:	58000100 	stmdapl	r0, {r8}
	...
     574:	000003e0 	andeq	r0, r0, r0, ror #7
     578:	0000062c 	andeq	r0, r0, ip, lsr #12
     57c:	00550001 	subseq	r0, r5, r1
     580:	00000000 	andeq	r0, r0, r0
     584:	04000000 	streq	r0, [r0], #-0
     588:	08000005 	stmdaeq	r0, {r0, r2}
     58c:	01000005 	tsteq	r0, r5
     590:	00005800 	andeq	r5, r0, r0, lsl #16
     594:	00000000 	andeq	r0, r0, r0
     598:	05740000 	ldrbeq	r0, [r4, #-0]!
     59c:	05780000 	ldrbeq	r0, [r8, #-0]!
     5a0:	00010000 	andeq	r0, r1, r0
     5a4:	00000053 	andeq	r0, r0, r3, asr r0
     5a8:	00000000 	andeq	r0, r0, r0
     5ac:	00068c00 	andeq	r8, r6, r0, lsl #24
     5b0:	00069c00 	andeq	r9, r6, r0, lsl #24
     5b4:	50000100 	andpl	r0, r0, r0, lsl #2
     5b8:	0000069c 	muleq	r0, ip, r6
     5bc:	00000710 	andeq	r0, r0, r0, lsl r7
     5c0:	00540001 	subseq	r0, r4, r1
     5c4:	00000000 	andeq	r0, r0, r0
     5c8:	94000000 	strls	r0, [r0], #-0
     5cc:	9c000006 	stcls	0, cr0, [r0], {6}
     5d0:	02000006 	andeq	r0, r0, #6
     5d4:	9c9f3000 	ldcls	0, cr3, [pc], {0}
     5d8:	10000006 	andne	r0, r0, r6
     5dc:	01000007 	tsteq	r0, r7
     5e0:	00005500 	andeq	r5, r0, r0, lsl #10
     5e4:	00000000 	andeq	r0, r0, r0
     5e8:	07380000 	ldreq	r0, [r8, -r0]!
     5ec:	07430000 	strbeq	r0, [r3, -r0]
     5f0:	00010000 	andeq	r0, r1, r0
     5f4:	00074350 	andeq	r4, r7, r0, asr r3
     5f8:	00078400 	andeq	r8, r7, r0, lsl #8
     5fc:	54000100 	strpl	r0, [r0], #-256	; 0x100
	...
     608:	0000002c 	andeq	r0, r0, ip, lsr #32
     60c:	00000038 	andeq	r0, r0, r8, lsr r0
     610:	38500001 	ldmdacc	r0, {r0}^
     614:	48000000 	stmdami	r0, {}	; <UNPREDICTABLE>
     618:	01000000 	mrseq	r0, (UNDEF: 0)
     61c:	00485500 	subeq	r5, r8, r0, lsl #10
     620:	00580000 	subseq	r0, r8, r0
     624:	00010000 	andeq	r0, r1, r0
     628:	00000050 	andeq	r0, r0, r0, asr r0
	...
     634:	00000b00 	andeq	r0, r0, r0, lsl #22
     638:	50000100 	andpl	r0, r0, r0, lsl #2
     63c:	0000000b 	andeq	r0, r0, fp
     640:	00000014 	andeq	r0, r0, r4, lsl r0
     644:	00540001 	subseq	r0, r4, r1
	...
     650:	10000000 	andne	r0, r0, r0
     654:	01000000 	mrseq	r0, (UNDEF: 0)
     658:	00105000 	andseq	r5, r0, r0
     65c:	00340000 	eorseq	r0, r4, r0
     660:	00010000 	andeq	r0, r1, r0
     664:	00000054 	andeq	r0, r0, r4, asr r0
	...
     670:	00000400 	andeq	r0, r0, r0, lsl #8
     674:	50000100 	andpl	r0, r0, r0, lsl #2
     678:	00000004 	andeq	r0, r0, r4
     67c:	0000000c 	andeq	r0, r0, ip
     680:	30700003 	rsbscc	r0, r0, r3
     684:	00000c9f 	muleq	r0, pc, ip	; <UNPREDICTABLE>
     688:	00001400 	andeq	r1, r0, r0, lsl #8
     68c:	f3000400 	vshl.u8	d0, d0, d0
     690:	009f5001 	addseq	r5, pc, r1
     694:	00000000 	andeq	r0, r0, r0
     698:	14000000 	strne	r0, [r0], #-0
     69c:	20000000 	andcs	r0, r0, r0
     6a0:	01000000 	mrseq	r0, (UNDEF: 0)
     6a4:	00205000 	eoreq	r5, r0, r0
     6a8:	002c0000 	eoreq	r0, ip, r0
     6ac:	00030000 	andeq	r0, r3, r0
     6b0:	2c9f0170 	ldfcss	f0, [pc], {112}	; 0x70
     6b4:	40000000 	andmi	r0, r0, r0
     6b8:	01000000 	mrseq	r0, (UNDEF: 0)
     6bc:	00005000 	andeq	r5, r0, r0
     6c0:	00000000 	andeq	r0, r0, r0
     6c4:	00140000 	andseq	r0, r4, r0
     6c8:	00180000 	andseq	r0, r8, r0
     6cc:	00010000 	andeq	r0, r1, r0
     6d0:	00001851 	andeq	r1, r0, r1, asr r8
     6d4:	00004000 	andeq	r4, r0, r0
     6d8:	f3000400 	vshl.u8	d0, d0, d0
     6dc:	009f5101 	addseq	r5, pc, r1, lsl #2
     6e0:	00000000 	andeq	r0, r0, r0
     6e4:	40000000 	andmi	r0, r0, r0
     6e8:	60000000 	andvs	r0, r0, r0
     6ec:	01000000 	mrseq	r0, (UNDEF: 0)
     6f0:	00605000 	rsbeq	r5, r0, r0
     6f4:	006c0000 	rsbeq	r0, ip, r0
     6f8:	00030000 	andeq	r0, r3, r0
     6fc:	6c9f0171 	ldfvss	f0, [pc], {113}	; 0x71
     700:	74000000 	strvc	r0, [r0], #-0
     704:	01000000 	mrseq	r0, (UNDEF: 0)
     708:	00745100 	rsbseq	r5, r4, r0, lsl #2
     70c:	00800000 	addeq	r0, r0, r0
     710:	00030000 	andeq	r0, r3, r0
     714:	009f0171 	addseq	r0, pc, r1, ror r1	; <UNPREDICTABLE>
     718:	00000000 	andeq	r0, r0, r0
     71c:	40000000 	andmi	r0, r0, r0
     720:	50000000 	andpl	r0, r0, r0
     724:	01000000 	mrseq	r0, (UNDEF: 0)
     728:	00505100 	subseq	r5, r0, r0, lsl #2
     72c:	00800000 	addeq	r0, r0, r0
     730:	00040000 	andeq	r0, r4, r0
     734:	9f5101f3 	svcls	0x005101f3
	...
     740:	00000040 	andeq	r0, r0, r0, asr #32
     744:	00000058 	andeq	r0, r0, r8, asr r0
     748:	58520001 	ldmdapl	r2, {r0}^
     74c:	64000000 	strvs	r0, [r0], #-0
     750:	01000000 	mrseq	r0, (UNDEF: 0)
     754:	00645200 	rsbeq	r5, r4, r0, lsl #4
     758:	00680000 	rsbeq	r0, r8, r0
     75c:	00030000 	andeq	r0, r3, r0
     760:	689f0172 	ldmvs	pc, {r1, r4, r5, r6, r8}	; <UNPREDICTABLE>
     764:	80000000 	andhi	r0, r0, r0
     768:	01000000 	mrseq	r0, (UNDEF: 0)
     76c:	00005200 	andeq	r5, r0, r0, lsl #4
     770:	00000000 	andeq	r0, r0, r0
     774:	00400000 	subeq	r0, r0, r0
     778:	00540000 	subseq	r0, r4, r0
     77c:	00010000 	andeq	r0, r1, r0
     780:	00005453 	andeq	r5, r0, r3, asr r4
     784:	00007800 	andeq	r7, r0, r0, lsl #16
     788:	53000100 	movwpl	r0, #256	; 0x100
	...
     794:	00000048 	andeq	r0, r0, r8, asr #32
     798:	00000060 	andeq	r0, r0, r0, rrx
     79c:	605c0001 	subsvs	r0, ip, r1
     7a0:	80000000 	andhi	r0, r0, r0
     7a4:	0a000000 	beq	7ac <__code_start__-0x7854>
     7a8:	5201f300 	andpl	pc, r1, #0, 6
     7ac:	1c5301f3 	ldfnee	f0, [r3], {243}	; 0xf3
     7b0:	009f0123 	addseq	r0, pc, r3, lsr #2
     7b4:	00000000 	andeq	r0, r0, r0
     7b8:	80000000 	andhi	r0, r0, r0
     7bc:	a4000000 	strge	r0, [r0], #-0
     7c0:	01000000 	mrseq	r0, (UNDEF: 0)
     7c4:	00a45000 	adceq	r5, r4, r0
     7c8:	01180000 	tsteq	r8, r0
     7cc:	00030000 	andeq	r0, r3, r0
     7d0:	189f0270 	ldmne	pc, {r4, r5, r6, r9}	; <UNPREDICTABLE>
     7d4:	3c000001 	stccc	0, cr0, [r0], {1}
     7d8:	04000002 	streq	r0, [r0], #-2
     7dc:	5001f300 	andpl	pc, r1, r0, lsl #6
     7e0:	0000009f 	muleq	r0, pc, r0	; <UNPREDICTABLE>
     7e4:	00000000 	andeq	r0, r0, r0
     7e8:	00008000 	andeq	r8, r0, r0
     7ec:	0000f000 	andeq	pc, r0, r0
     7f0:	51000100 	mrspl	r0, (UNDEF: 16)
     7f4:	000000f0 	strdeq	r0, [r0], -r0	; <UNPREDICTABLE>
     7f8:	00000160 	andeq	r0, r0, r0, ror #2
     7fc:	60550001 	subsvs	r0, r5, r1
     800:	6c000001 	stcvs	0, cr0, [r0], {1}
     804:	01000001 	tsteq	r0, r1
     808:	016c5100 	cmneq	ip, r0, lsl #2
     80c:	01a00000 	moveq	r0, r0
     810:	00010000 	andeq	r0, r1, r0
     814:	0001a055 	andeq	sl, r1, r5, asr r0
     818:	0001b400 	andeq	fp, r1, r0, lsl #8
     81c:	51000100 	mrspl	r0, (UNDEF: 16)
     820:	000001b4 			; <UNDEFINED> instruction: 0x000001b4
     824:	000001d4 	ldrdeq	r0, [r0], -r4
     828:	d4550001 	ldrble	r0, [r5], #-1
     82c:	d7000001 	strle	r0, [r0, -r1]
     830:	01000001 	tsteq	r0, r1
     834:	01d75100 	bicseq	r5, r7, r0, lsl #2
     838:	021c0000 	andseq	r0, ip, #0
     83c:	00010000 	andeq	r0, r1, r0
     840:	00021c55 	andeq	r1, r2, r5, asr ip
     844:	00023c00 	andeq	r3, r2, r0, lsl #24
     848:	f3000400 	vshl.u8	d0, d0, d0
     84c:	009f5101 	addseq	r5, pc, r1, lsl #2
     850:	00000000 	andeq	r0, r0, r0
     854:	80000000 	andhi	r0, r0, r0
     858:	94000000 	strls	r0, [r0], #-0
     85c:	01000000 	mrseq	r0, (UNDEF: 0)
     860:	00945200 	addseq	r5, r4, r0, lsl #4
     864:	021c0000 	andseq	r0, ip, #0
     868:	00010000 	andeq	r0, r1, r0
     86c:	00021c54 	andeq	r1, r2, r4, asr ip
     870:	00023c00 	andeq	r3, r2, r0, lsl #24
     874:	f3000400 	vshl.u8	d0, d0, d0
     878:	009f5201 	addseq	r5, pc, r1, lsl #4
     87c:	00000000 	andeq	r0, r0, r0
     880:	80000000 	andhi	r0, r0, r0
     884:	00000000 	andeq	r0, r0, r0
     888:	01000001 	tsteq	r0, r1
     88c:	01045300 	mrseq	r5, LR_abt
     890:	01080000 	mrseq	r0, (UNDEF: 8)
     894:	00010000 	andeq	r0, r1, r0
     898:	00016053 	andeq	r6, r1, r3, asr r0
     89c:	00016400 	andeq	r6, r1, r0, lsl #8
     8a0:	53000100 	movwpl	r0, #256	; 0x100
     8a4:	00000164 	andeq	r0, r0, r4, ror #2
     8a8:	0000016c 	andeq	r0, r0, ip, ror #2
     8ac:	6c5c0001 	mrrcvs	0, 0, r0, ip, cr1
     8b0:	a0000001 	andge	r0, r0, r1
     8b4:	04000001 	streq	r0, [r0], #-1
     8b8:	5301f300 	movwpl	pc, #4864	; 0x1300	; <UNPREDICTABLE>
     8bc:	0001a09f 	muleq	r1, pc, r0	; <UNPREDICTABLE>
     8c0:	0001b000 	andeq	fp, r1, r0
     8c4:	53000100 	movwpl	r0, #256	; 0x100
     8c8:	000001b0 			; <UNDEFINED> instruction: 0x000001b0
     8cc:	000001b4 			; <UNDEFINED> instruction: 0x000001b4
     8d0:	b45c0001 	ldrblt	r0, [ip], #-1
     8d4:	d4000001 	strle	r0, [r0], #-1
     8d8:	04000001 	streq	r0, [r0], #-1
     8dc:	5301f300 	movwpl	pc, #4864	; 0x1300	; <UNPREDICTABLE>
     8e0:	0001d49f 	muleq	r1, pc, r4	; <UNPREDICTABLE>
     8e4:	0001d700 	andeq	sp, r1, r0, lsl #14
     8e8:	53000100 	movwpl	r0, #256	; 0x100
     8ec:	000001d7 	ldrdeq	r0, [r0], -r7
     8f0:	000001f8 	strdeq	r0, [r0], -r8
     8f4:	01f30004 	mvnseq	r0, r4
     8f8:	00009f53 	andeq	r9, r0, r3, asr pc
     8fc:	00000000 	andeq	r0, r0, r0
     900:	00800000 	addeq	r0, r0, r0
     904:	009c0000 	addseq	r0, ip, r0
     908:	00020000 	andeq	r0, r2, r0
     90c:	009c0091 	umullseq	r0, ip, r1, r0
     910:	01d70000 	bicseq	r0, r7, r0
     914:	00010000 	andeq	r0, r1, r0
     918:	0001f852 	andeq	pc, r1, r2, asr r8	; <UNPREDICTABLE>
     91c:	0001ff00 	andeq	pc, r1, r0, lsl #30
     920:	52000100 	andpl	r0, r0, #0, 2
	...
     92c:	0000009c 	muleq	r0, ip, r0
     930:	0000010c 	andeq	r0, r0, ip, lsl #2
     934:	a0910004 	addsge	r0, r1, r4
     938:	010c9f7f 	tsteq	ip, pc, ror pc
     93c:	01180000 	tsteq	r8, r0
     940:	00010000 	andeq	r0, r1, r0
     944:	00011851 	andeq	r1, r1, r1, asr r8
     948:	00011c00 	andeq	r1, r1, r0, lsl #24
     94c:	50000100 	andpl	r0, r0, r0, lsl #2
     950:	0000011c 	andeq	r0, r0, ip, lsl r1
     954:	00000120 	andeq	r0, r0, r0, lsr #2
     958:	20510001 	subscs	r0, r1, r1
     95c:	60000001 	andvs	r0, r0, r1
     960:	01000001 	tsteq	r0, r1
     964:	01605000 	cmneq	r0, r0
     968:	01640000 	cmneq	r4, r0
     96c:	00040000 	andeq	r0, r4, r0
     970:	9f7fa091 	svcls	0x007fa091
     974:	00000164 	andeq	r0, r0, r4, ror #2
     978:	0000016c 	andeq	r0, r0, ip, ror #2
     97c:	6c530001 	mrrcvs	0, 0, r0, r3, cr1
     980:	70000001 	andvc	r0, r0, r1
     984:	01000001 	tsteq	r0, r1
     988:	01705000 	cmneq	r0, r0
     98c:	01740000 	cmneq	r4, r0
     990:	00010000 	andeq	r0, r1, r0
     994:	00017453 	andeq	r7, r1, r3, asr r4
     998:	00018800 	andeq	r8, r1, r0, lsl #16
     99c:	50000100 	andpl	r0, r0, r0, lsl #2
     9a0:	00000188 	andeq	r0, r0, r8, lsl #3
     9a4:	00000194 	muleq	r0, r4, r1
     9a8:	01700003 	cmneq	r0, r3
     9ac:	0001949f 	muleq	r1, pc, r4	; <UNPREDICTABLE>
     9b0:	0001a000 	andeq	sl, r1, r0
     9b4:	50000100 	andpl	r0, r0, r0, lsl #2
     9b8:	000001a0 	andeq	r0, r0, r0, lsr #3
     9bc:	000001a8 	andeq	r0, r0, r8, lsr #3
     9c0:	a1910004 	orrsge	r0, r1, r4
     9c4:	01a89f7f 			; <UNDEFINED> instruction: 0x01a89f7f
     9c8:	01ac0000 			; <UNDEFINED> instruction: 0x01ac0000
     9cc:	00010000 	andeq	r0, r1, r0
     9d0:	0001ac50 	andeq	sl, r1, r0, asr ip
     9d4:	0001b000 	andeq	fp, r1, r0
     9d8:	91000400 	tstls	r0, r0, lsl #8
     9dc:	b09f7fa0 	addslt	r7, pc, r0, lsr #31
     9e0:	b8000001 	stmdalt	r0, {r0}
     9e4:	01000001 	tsteq	r0, r1
     9e8:	01b85300 			; <UNDEFINED> instruction: 0x01b85300
     9ec:	01d40000 	bicseq	r0, r4, r0
     9f0:	00010000 	andeq	r0, r1, r0
     9f4:	0001d450 	andeq	sp, r1, r0, asr r4
     9f8:	0001f800 	andeq	pc, r1, r0, lsl #16
     9fc:	91000400 	tstls	r0, r0, lsl #8
     a00:	f89f7fa0 			; <UNDEFINED> instruction: 0xf89f7fa0
     a04:	ff000001 			; <UNDEFINED> instruction: 0xff000001
     a08:	01000001 	tsteq	r0, r1
     a0c:	00005000 	andeq	r5, r0, r0
     a10:	00000000 	andeq	r0, r0, r0
     a14:	00a00000 	adceq	r0, r0, r0
     a18:	00ec0000 	rsceq	r0, ip, r0
     a1c:	00010000 	andeq	r0, r1, r0
     a20:	0000ec5c 	andeq	lr, r0, ip, asr ip
     a24:	00010000 	andeq	r0, r1, r0
     a28:	53000100 	movwpl	r0, #256	; 0x100
     a2c:	00000100 	andeq	r0, r0, r0, lsl #2
     a30:	00000104 	andeq	r0, r0, r4, lsl #2
     a34:	045c0001 	ldrbeq	r0, [ip], #-1
     a38:	08000001 	stmdaeq	r0, {r0}
     a3c:	01000001 	tsteq	r0, r1
     a40:	01085300 	mrseq	r5, (UNDEF: 56)
     a44:	01600000 	cmneq	r0, r0
     a48:	00010000 	andeq	r0, r1, r0
     a4c:	0001605c 	andeq	r6, r1, ip, asr r0
     a50:	00016400 	andeq	r6, r1, r0, lsl #8
     a54:	53000100 	movwpl	r0, #256	; 0x100
     a58:	00000164 	andeq	r0, r0, r4, ror #2
     a5c:	00000180 	andeq	r0, r0, r0, lsl #3
     a60:	805c0001 	subshi	r0, ip, r1
     a64:	84000001 	strhi	r0, [r0], #-1
     a68:	05000001 	streq	r0, [r0, #-1]
     a6c:	34007c00 	strcc	r7, [r0], #-3072	; 0xc00
     a70:	01849f25 	orreq	r9, r4, r5, lsr #30
     a74:	01a00000 	moveq	r0, r0
     a78:	00010000 	andeq	r0, r1, r0
     a7c:	0001a05c 	andeq	sl, r1, ip, asr r0
     a80:	0001b000 	andeq	fp, r1, r0
     a84:	53000100 	movwpl	r0, #256	; 0x100
     a88:	000001b0 			; <UNDEFINED> instruction: 0x000001b0
     a8c:	000001c4 	andeq	r0, r0, r4, asr #3
     a90:	c45c0001 	ldrbgt	r0, [ip], #-1
     a94:	cc000001 	stcgt	0, cr0, [r0], {1}
     a98:	05000001 	streq	r0, [r0, #-1]
     a9c:	31007c00 	tstcc	r0, r0, lsl #24
     aa0:	01cc9f25 	biceq	r9, ip, r5, lsr #30
     aa4:	01d40000 	bicseq	r0, r4, r0
     aa8:	00010000 	andeq	r0, r1, r0
     aac:	0001d45c 	andeq	sp, r1, ip, asr r4
     ab0:	0001d700 	andeq	sp, r1, r0, lsl #14
     ab4:	53000100 	movwpl	r0, #256	; 0x100
     ab8:	000001d7 	ldrdeq	r0, [r0], -r7
     abc:	000001f8 	strdeq	r0, [r0], -r8
     ac0:	01f30004 	mvnseq	r0, r4
     ac4:	01f89f53 	mvnseq	r9, r3, asr pc
     ac8:	01ff0000 	mvnseq	r0, r0
     acc:	00010000 	andeq	r0, r1, r0
     ad0:	0000005c 	andeq	r0, r0, ip, asr r0
     ad4:	00000000 	andeq	r0, r0, r0
     ad8:	0000ec00 	andeq	lr, r0, r0, lsl #24
     adc:	0000fc00 	andeq	pc, r0, r0, lsl #24
     ae0:	30000200 	andcc	r0, r0, r0, lsl #4
     ae4:	0000fc9f 	muleq	r0, pc, ip	; <UNPREDICTABLE>
     ae8:	00010400 	andeq	r0, r1, r0, lsl #8
     aec:	31000200 	mrscc	r0, R8_usr
     af0:	0001049f 	muleq	r1, pc, r4	; <UNPREDICTABLE>
     af4:	00010800 	andeq	r0, r1, r0, lsl #16
     af8:	30000200 	andcc	r0, r0, r0, lsl #4
     afc:	0000009f 	muleq	r0, pc, r0	; <UNPREDICTABLE>
     b00:	00000000 	andeq	r0, r0, r0
     b04:	00023c00 	andeq	r3, r2, r0, lsl #24
     b08:	00024f00 	andeq	r4, r2, r0, lsl #30
     b0c:	50000100 	andpl	r0, r0, r0, lsl #2
     b10:	0000024f 	andeq	r0, r0, pc, asr #4
     b14:	00000270 	andeq	r0, r0, r0, ror r2
     b18:	01f30004 	mvnseq	r0, r4
     b1c:	02709f50 	rsbseq	r9, r0, #80, 30	; 0x140
     b20:	02a40000 	adceq	r0, r4, #0
     b24:	00010000 	andeq	r0, r1, r0
     b28:	00000050 	andeq	r0, r0, r0, asr r0
     b2c:	00000000 	andeq	r0, r0, r0
     b30:	00023c00 	andeq	r3, r2, r0, lsl #24
     b34:	00024f00 	andeq	r4, r2, r0, lsl #30
     b38:	51000100 	mrspl	r0, (UNDEF: 16)
     b3c:	0000024f 	andeq	r0, r0, pc, asr #4
     b40:	00000270 	andeq	r0, r0, r0, ror r2
     b44:	01f30004 	mvnseq	r0, r4
     b48:	02709f51 	rsbseq	r9, r0, #324	; 0x144
     b4c:	02a40000 	adceq	r0, r4, #0
     b50:	00010000 	andeq	r0, r1, r0
     b54:	00000051 	andeq	r0, r0, r1, asr r0
     b58:	00000000 	andeq	r0, r0, r0
     b5c:	0002a400 	andeq	sl, r2, r0, lsl #8
     b60:	0002d400 	andeq	sp, r2, r0, lsl #8
     b64:	50000100 	andpl	r0, r0, r0, lsl #2
     b68:	000002d4 	ldrdeq	r0, [r0], -r4
     b6c:	00000558 	andeq	r0, r0, r8, asr r5
     b70:	585b0001 	ldmdapl	fp, {r0}^
     b74:	78000005 	stmdavc	r0, {r0, r2}
     b78:	04000005 	streq	r0, [r0], #-5
     b7c:	5001f300 	andpl	pc, r1, r0, lsl #6
     b80:	0000009f 	muleq	r0, pc, r0	; <UNPREDICTABLE>
     b84:	00000000 	andeq	r0, r0, r0
     b88:	0002a400 	andeq	sl, r2, r0, lsl #8
     b8c:	0002bc00 	andeq	fp, r2, r0, lsl #24
     b90:	51000100 	mrspl	r0, (UNDEF: 16)
     b94:	000002bc 			; <UNDEFINED> instruction: 0x000002bc
     b98:	000002d4 	ldrdeq	r0, [r0], -r4
     b9c:	01710003 	cmneq	r1, r3
     ba0:	0002d49f 	muleq	r2, pc, r4	; <UNPREDICTABLE>
     ba4:	00057800 	andeq	r7, r5, r0, lsl #16
     ba8:	f3000400 	vshl.u8	d0, d0, d0
     bac:	009f5101 	addseq	r5, pc, r1, lsl #2
     bb0:	00000000 	andeq	r0, r0, r0
     bb4:	a4000000 	strge	r0, [r0], #-0
     bb8:	d4000002 	strle	r0, [r0], #-2
     bbc:	01000002 	tsteq	r0, r2
     bc0:	02d45200 	sbcseq	r5, r4, #0, 4
     bc4:	05580000 	ldrbeq	r0, [r8, #-0]
     bc8:	00010000 	andeq	r0, r1, r0
     bcc:	00000056 	andeq	r0, r0, r6, asr r0
     bd0:	00000000 	andeq	r0, r0, r0
     bd4:	0002a400 	andeq	sl, r2, r0, lsl #8
     bd8:	0002c400 	andeq	ip, r2, r0, lsl #8
     bdc:	53000100 	movwpl	r0, #256	; 0x100
	...
     be8:	000002b8 			; <UNDEFINED> instruction: 0x000002b8
     bec:	000002d4 	ldrdeq	r0, [r0], -r4
     bf0:	d4500001 	ldrble	r0, [r0], #-1
     bf4:	d8000002 	stmdale	r0, {r1}
     bf8:	01000002 	tsteq	r0, r2
     bfc:	02d85400 	sbcseq	r5, r8, #0, 8
     c00:	02e40000 	rsceq	r0, r4, #0
     c04:	00030000 	andeq	r0, r3, r0
     c08:	e49f0174 	ldr	r0, [pc], #372	; c10 <__code_start__-0x73f0>
     c0c:	f0000002 			; <UNDEFINED> instruction: 0xf0000002
     c10:	01000002 	tsteq	r0, r2
     c14:	02f05400 	rscseq	r5, r0, #0, 8
     c18:	02fc0000 	rscseq	r0, ip, #0
     c1c:	00030000 	andeq	r0, r3, r0
     c20:	fc9f0174 	ldc2	1, cr0, [pc], {116}	; 0x74
     c24:	0c000002 	stceq	0, cr0, [r0], {2}
     c28:	01000005 	tsteq	r0, r5
     c2c:	050c5400 	streq	r5, [ip, #-1024]	; 0x400
     c30:	05180000 	ldreq	r0, [r8, #-0]
     c34:	00030000 	andeq	r0, r3, r0
     c38:	189f0174 	ldmne	pc, {r2, r4, r5, r6, r8}	; <UNPREDICTABLE>
     c3c:	44000005 	strmi	r0, [r0], #-5
     c40:	01000005 	tsteq	r0, r5
     c44:	05445400 	strbeq	r5, [r4, #-1024]	; 0x400
     c48:	05500000 	ldrbeq	r0, [r0, #-0]
     c4c:	00010000 	andeq	r0, r1, r0
     c50:	00055050 	andeq	r5, r5, r0, asr r0
     c54:	00055800 	andeq	r5, r5, r0, lsl #16
     c58:	74000300 	strvc	r0, [r0], #-768	; 0x300
     c5c:	00009f01 	andeq	r9, r0, r1, lsl #30
     c60:	00000000 	andeq	r0, r0, r0
     c64:	02c00000 	sbceq	r0, r0, #0
     c68:	05580000 	ldrbeq	r0, [r8, #-0]
     c6c:	00010000 	andeq	r0, r1, r0
     c70:	00055858 	andeq	r5, r5, r8, asr r8
     c74:	00057800 	andeq	r7, r5, r0, lsl #16
     c78:	f3000a00 	vpmax.u8	d0, d0, d0
     c7c:	01f35101 	mvnseq	r5, r1, lsl #2
     c80:	1c312250 	lfmne	f2, 4, [r1], #-320	; 0xfffffec0
     c84:	0000009f 	muleq	r0, pc, r0	; <UNPREDICTABLE>
     c88:	00000000 	andeq	r0, r0, r0
     c8c:	0002c800 	andeq	ip, r2, r0, lsl #16
     c90:	0002d400 	andeq	sp, r2, r0, lsl #8
     c94:	52000100 	andpl	r0, r0, #0, 2
     c98:	000002d4 	ldrdeq	r0, [r0], -r4
     c9c:	00000578 	andeq	r0, r0, r8, ror r5
     ca0:	cc910003 	ldcgt	0, cr0, [r1], {3}
     ca4:	0000007e 	andeq	r0, r0, lr, ror r0
     ca8:	00000000 	andeq	r0, r0, r0
     cac:	00041000 	andeq	r1, r4, r0
     cb0:	00041400 	andeq	r1, r4, r0, lsl #8
     cb4:	50000100 	andpl	r0, r0, r0, lsl #2
     cb8:	00000438 	andeq	r0, r0, r8, lsr r4
     cbc:	0000043c 	andeq	r0, r0, ip, lsr r4
     cc0:	60500001 	subsvs	r0, r0, r1
     cc4:	64000004 	strvs	r0, [r0], #-4
     cc8:	01000004 	tsteq	r0, r4
     ccc:	04885000 	streq	r5, [r8], #0
     cd0:	048c0000 	streq	r0, [ip], #0
     cd4:	00010000 	andeq	r0, r1, r0
     cd8:	00049450 	andeq	r9, r4, r0, asr r4
     cdc:	00049800 	andeq	r9, r4, r0, lsl #16
     ce0:	50000100 	andpl	r0, r0, r0, lsl #2
     ce4:	000004bc 			; <UNDEFINED> instruction: 0x000004bc
     ce8:	000004c0 	andeq	r0, r0, r0, asr #9
     cec:	04500001 	ldrbeq	r0, [r0], #-1
     cf0:	2c000005 	stccs	0, cr0, [r0], {5}
     cf4:	01000005 	tsteq	r0, r5
     cf8:	00005000 	andeq	r5, r0, r0
     cfc:	00000000 	andeq	r0, r0, r0
     d00:	03040000 	movweq	r0, #16384	; 0x4000
     d04:	030c0000 	movweq	r0, #49152	; 0xc000
     d08:	00020000 	andeq	r0, r2, r0
     d0c:	030c9f30 	movweq	r9, #53040	; 0xcf30
     d10:	03100000 	tsteq	r0, #0
     d14:	00010000 	andeq	r0, r1, r0
     d18:	00031c57 	andeq	r1, r3, r7, asr ip
     d1c:	00052c00 	andeq	r2, r5, r0, lsl #24
     d20:	57000100 	strpl	r0, [r0, -r0, lsl #2]
	...
     d2c:	00000004 	andeq	r0, r0, r4
     d30:	00000008 	andeq	r0, r0, r8
     d34:	00730007 	rsbseq	r0, r3, r7
     d38:	2110000a 	tstcs	r0, sl
     d3c:	0000089f 	muleq	r0, pc, r8	; <UNPREDICTABLE>
     d40:	00001000 	andeq	r1, r0, r0
     d44:	53000100 	movwpl	r0, #256	; 0x100
	...
     d50:	00000014 	andeq	r0, r0, r4, lsl r0
     d54:	00000018 	andeq	r0, r0, r8, lsl r0
     d58:	00730007 	rsbseq	r0, r3, r7
     d5c:	1aefff0b 	bne	ffc00990 <__bss_end__+0xffbf6360>
     d60:	0000189f 	muleq	r0, pc, r8	; <UNPREDICTABLE>
     d64:	00002000 	andeq	r2, r0, r0
     d68:	53000100 	movwpl	r0, #256	; 0x100
	...
     d74:	00000014 	andeq	r0, r0, r4, lsl r0
     d78:	0000001c 	andeq	r0, r0, ip, lsl r0
     d7c:	04730003 	ldrbteq	r0, [r3], #-3
     d80:	00001c9f 	muleq	r0, pc, ip	; <UNPREDICTABLE>
     d84:	00002700 	andeq	r2, r0, r0, lsl #14
     d88:	53000100 	movwpl	r0, #256	; 0x100
	...
     d98:	0000000f 	andeq	r0, r0, pc
     d9c:	0f500001 	svceq	0x00500001
     da0:	44000000 	strmi	r0, [r0], #-0
     da4:	01000000 	mrseq	r0, (UNDEF: 0)
     da8:	00005400 	andeq	r5, r0, r0, lsl #8
	...
     db4:	000f0000 	andeq	r0, pc, r0
     db8:	00010000 	andeq	r0, r1, r0
     dbc:	00000f50 	andeq	r0, r0, r0, asr pc
     dc0:	00004400 	andeq	r4, r0, r0, lsl #8
     dc4:	54000100 	strpl	r0, [r0], #-256	; 0x100
	...
     dd4:	0000000f 	andeq	r0, r0, pc
     dd8:	0f500001 	svceq	0x00500001
     ddc:	44000000 	strmi	r0, [r0], #-0
     de0:	01000000 	mrseq	r0, (UNDEF: 0)
     de4:	00005400 	andeq	r5, r0, r0, lsl #8
     de8:	00000000 	andeq	r0, r0, r0
     dec:	00340000 	eorseq	r0, r4, r0
     df0:	00400000 	subeq	r0, r0, r0
     df4:	00020000 	andeq	r0, r2, r0
     df8:	00409f30 	subeq	r9, r0, r0, lsr pc
     dfc:	006c0000 	rsbeq	r0, ip, r0
     e00:	00010000 	andeq	r0, r1, r0
     e04:	00000053 	andeq	r0, r0, r3, asr r0
     e08:	00000000 	andeq	r0, r0, r0
     e0c:	0095f800 	addseq	pc, r5, r0, lsl #16
     e10:	0095fc00 	addseq	pc, r5, r0, lsl #24
     e14:	30000200 	andcc	r0, r0, r0, lsl #4
     e18:	0095fc9f 	umullseq	pc, r5, pc, ip	; <UNPREDICTABLE>
     e1c:	00960000 	addseq	r0, r6, r0
     e20:	50000100 	andpl	r0, r0, r0, lsl #2
	...
     e2c:	00009610 	andeq	r9, r0, r0, lsl r6
     e30:	00009614 	andeq	r9, r0, r4, lsl r6
     e34:	9f300002 	svcls	0x00300002
     e38:	00009614 	andeq	r9, r0, r4, lsl r6
     e3c:	00009618 	andeq	r9, r0, r8, lsl r6
     e40:	1c530001 	mrrcne	0, 0, r0, r3, cr1
     e44:	24000096 	strcs	r0, [r0], #-150	; 0x96
     e48:	01000096 	swpeq	r0, r6, [r0]	; <UNPREDICTABLE>
     e4c:	00005300 	andeq	r5, r0, r0, lsl #6
	...
     e58:	00040000 	andeq	r0, r4, r0
     e5c:	00010000 	andeq	r0, r1, r0
     e60:	00000450 	andeq	r0, r0, r0, asr r4
     e64:	00000c00 	andeq	r0, r0, r0, lsl #24
     e68:	53000100 	movwpl	r0, #256	; 0x100
     e6c:	0000000c 	andeq	r0, r0, ip
     e70:	00000010 	andeq	r0, r0, r0, lsl r0
     e74:	10500001 	subsne	r0, r0, r1
     e78:	1c000000 	stcne	0, cr0, [r0], {-0}
     e7c:	01000000 	mrseq	r0, (UNDEF: 0)
     e80:	00005300 	andeq	r5, r0, r0, lsl #6
     e84:	00000000 	andeq	r0, r0, r0
     e88:	00400000 	subeq	r0, r0, r0
     e8c:	00430000 	subeq	r0, r3, r0
     e90:	00010000 	andeq	r0, r1, r0
     e94:	00004350 	andeq	r4, r0, r0, asr r3
     e98:	00004c00 	andeq	r4, r0, r0, lsl #24
     e9c:	54000100 	strpl	r0, [r0], #-256	; 0x100
	...
     ea8:	0000004c 	andeq	r0, r0, ip, asr #32
     eac:	00000057 	andeq	r0, r0, r7, asr r0
     eb0:	57500001 	ldrbpl	r0, [r0, -r1]
     eb4:	70000000 	andvc	r0, r0, r0
     eb8:	01000000 	mrseq	r0, (UNDEF: 0)
     ebc:	00005500 	andeq	r5, r0, r0, lsl #10
     ec0:	00000000 	andeq	r0, r0, r0
     ec4:	00600000 	rsbeq	r0, r0, r0
     ec8:	00640000 	rsbeq	r0, r4, r0
     ecc:	00010000 	andeq	r0, r1, r0
     ed0:	00000050 	andeq	r0, r0, r0, asr r0
     ed4:	00000000 	andeq	r0, r0, r0
     ed8:	00007000 	andeq	r7, r0, r0
     edc:	00007c00 	andeq	r7, r0, r0, lsl #24
     ee0:	50000100 	andpl	r0, r0, r0, lsl #2
     ee4:	0000007c 	andeq	r0, r0, ip, ror r0
     ee8:	00000084 	andeq	r0, r0, r4, lsl #1
     eec:	01f30004 	mvnseq	r0, r4
     ef0:	00009f50 	andeq	r9, r0, r0, asr pc
     ef4:	00000000 	andeq	r0, r0, r0
     ef8:	00840000 	addeq	r0, r4, r0
     efc:	00900000 	addseq	r0, r0, r0
     f00:	00010000 	andeq	r0, r1, r0
     f04:	00009050 	andeq	r9, r0, r0, asr r0
     f08:	00009800 	andeq	r9, r0, r0, lsl #16
     f0c:	f3000400 	vshl.u8	d0, d0, d0
     f10:	009f5001 	addseq	r5, pc, r1
     f14:	00000000 	andeq	r0, r0, r0
     f18:	38000000 	stmdacc	r0, {}	; <UNPREDICTABLE>
     f1c:	43000001 	movwmi	r0, #1
     f20:	01000001 	tsteq	r0, r1
     f24:	01435000 	mrseq	r5, (UNDEF: 67)
     f28:	01680000 	cmneq	r8, r0
     f2c:	00010000 	andeq	r0, r1, r0
     f30:	00000054 	andeq	r0, r0, r4, asr r0
	...
     f3c:	00000f00 	andeq	r0, r0, r0, lsl #30
     f40:	50000100 	andpl	r0, r0, r0, lsl #2
     f44:	0000000f 	andeq	r0, r0, pc
     f48:	00000020 	andeq	r0, r0, r0, lsr #32
     f4c:	00540001 	subseq	r0, r4, r1
	...
     f58:	0f000000 	svceq	0x00000000
     f5c:	01000000 	mrseq	r0, (UNDEF: 0)
     f60:	000f5100 	andeq	r5, pc, r0, lsl #2
     f64:	00200000 	eoreq	r0, r0, r0
     f68:	00010000 	andeq	r0, r1, r0
     f6c:	00000055 	andeq	r0, r0, r5, asr r0
     f70:	00000000 	andeq	r0, r0, r0
     f74:	0000ec00 	andeq	lr, r0, r0, lsl #24
     f78:	00010400 	andeq	r0, r1, r0, lsl #8
     f7c:	50000100 	andpl	r0, r0, r0, lsl #2
     f80:	00000104 	andeq	r0, r0, r4, lsl #2
     f84:	00000114 	andeq	r0, r0, r4, lsl r1
     f88:	01f30004 	mvnseq	r0, r4
     f8c:	01149f50 	tsteq	r4, r0, asr pc
     f90:	01180000 	tsteq	r8, r0
     f94:	00010000 	andeq	r0, r1, r0
     f98:	00011850 	andeq	r1, r1, r0, asr r8
     f9c:	00012000 	andeq	r2, r1, r0
     fa0:	f3000400 	vshl.u8	d0, d0, d0
     fa4:	009f5001 	addseq	r5, pc, r1
     fa8:	00000000 	andeq	r0, r0, r0
     fac:	f8000000 			; <UNDEFINED> instruction: 0xf8000000
     fb0:	04000000 	streq	r0, [r0], #-0
     fb4:	0b000001 	bleq	fc0 <__code_start__-0x7040>
     fb8:	35007000 	strcc	r7, [r0, #-0]
     fbc:	80b42325 	adcshi	r2, r4, r5, lsr #6
     fc0:	9f028180 	svcls	0x00028180
     fc4:	00000104 	andeq	r0, r0, r4, lsl #2
     fc8:	00000107 	andeq	r0, r0, r7, lsl #2
     fcc:	07500001 	ldrbeq	r0, [r0, -r1]
     fd0:	14000001 	strne	r0, [r0], #-1
     fd4:	0c000001 	stceq	0, cr0, [r0], {1}
     fd8:	5001f300 	andpl	pc, r1, r0, lsl #6
     fdc:	b4232535 	strtlt	r2, [r3], #-1333	; 0x535
     fe0:	02818080 	addeq	r8, r1, #128	; 0x80
     fe4:	0000009f 	muleq	r0, pc, r0	; <UNPREDICTABLE>
     fe8:	00000000 	andeq	r0, r0, r0
     fec:	0000fc00 	andeq	pc, r0, r0, lsl #24
     ff0:	00011400 	andeq	r1, r1, r0, lsl #8
     ff4:	54000100 	strpl	r0, [r0], #-256	; 0x100
	...
    1000:	000000d0 	ldrdeq	r0, [r0], -r0	; <UNPREDICTABLE>
    1004:	000000df 	ldrdeq	r0, [r0], -pc	; <UNPREDICTABLE>
    1008:	df500001 	svcle	0x00500001
    100c:	e4000000 	str	r0, [r0], #-0
    1010:	04000000 	streq	r0, [r0], #-0
    1014:	5001f300 	andpl	pc, r1, r0, lsl #6
    1018:	0000e49f 	muleq	r0, pc, r4	; <UNPREDICTABLE>
    101c:	0000e700 	andeq	lr, r0, r0, lsl #14
    1020:	50000100 	andpl	r0, r0, r0, lsl #2
    1024:	000000e7 	andeq	r0, r0, r7, ror #1
    1028:	000000ec 	andeq	r0, r0, ip, ror #1
    102c:	01f30004 	mvnseq	r0, r4
    1030:	00009f50 	andeq	r9, r0, r0, asr pc
    1034:	00000000 	andeq	r0, r0, r0
    1038:	00d00000 	sbcseq	r0, r0, r0
    103c:	00df0000 	sbcseq	r0, pc, r0
    1040:	00010000 	andeq	r0, r1, r0
    1044:	0000df51 	andeq	sp, r0, r1, asr pc
    1048:	0000e400 	andeq	lr, r0, r0, lsl #8
    104c:	f3000400 	vshl.u8	d0, d0, d0
    1050:	e49f5101 	ldr	r5, [pc], #257	; 1058 <__code_start__-0x6fa8>
    1054:	e7000000 	str	r0, [r0, -r0]
    1058:	01000000 	mrseq	r0, (UNDEF: 0)
    105c:	00e75100 	rsceq	r5, r7, r0, lsl #2
    1060:	00ec0000 	rsceq	r0, ip, r0
    1064:	00040000 	andeq	r0, r4, r0
    1068:	9f5101f3 	svcls	0x005101f3
	...
    1074:	000000c0 	andeq	r0, r0, r0, asr #1
    1078:	000000cb 	andeq	r0, r0, fp, asr #1
    107c:	cb500001 	blgt	1401088 <__bss_end__+0x13f6a58>
    1080:	d0000000 	andle	r0, r0, r0
    1084:	04000000 	streq	r0, [r0], #-0
    1088:	5001f300 	andpl	pc, r1, r0, lsl #6
    108c:	0000009f 	muleq	r0, pc, r0	; <UNPREDICTABLE>
    1090:	00000000 	andeq	r0, r0, r0
    1094:	00009c00 	andeq	r9, r0, r0, lsl #24
    1098:	0000b400 	andeq	fp, r0, r0, lsl #8
    109c:	50000100 	andpl	r0, r0, r0, lsl #2
    10a0:	000000b4 	strheq	r0, [r0], -r4
    10a4:	000000c0 	andeq	r0, r0, r0, asr #1
    10a8:	01f30004 	mvnseq	r0, r4
    10ac:	00009f50 	andeq	r9, r0, r0, asr pc
    10b0:	00000000 	andeq	r0, r0, r0
    10b4:	00780000 	rsbseq	r0, r8, r0
    10b8:	00900000 	addseq	r0, r0, r0
    10bc:	00010000 	andeq	r0, r1, r0
    10c0:	00009050 	andeq	r9, r0, r0, asr r0
    10c4:	00009c00 	andeq	r9, r0, r0, lsl #24
    10c8:	f3000400 	vshl.u8	d0, d0, d0
    10cc:	009f5001 	addseq	r5, pc, r1
    10d0:	00000000 	andeq	r0, r0, r0
    10d4:	68000000 	stmdavs	r0, {}	; <UNPREDICTABLE>
    10d8:	73000000 	movwvc	r0, #0
    10dc:	01000000 	mrseq	r0, (UNDEF: 0)
    10e0:	00735000 	rsbseq	r5, r3, r0
    10e4:	00780000 	rsbseq	r0, r8, r0
    10e8:	00040000 	andeq	r0, r4, r0
    10ec:	9f5001f3 	svcls	0x005001f3
	...
    10fc:	00000048 	andeq	r0, r0, r8, asr #32
    1100:	48500001 	ldmdami	r0, {r0}^
    1104:	68000000 	stmdavs	r0, {}	; <UNPREDICTABLE>
    1108:	04000000 	streq	r0, [r0], #-0
    110c:	5001f300 	andpl	pc, r1, r0, lsl #6
    1110:	0000009f 	muleq	r0, pc, r0	; <UNPREDICTABLE>
	...
    111c:	00004b00 	andeq	r4, r0, r0, lsl #22
    1120:	51000100 	mrspl	r0, (UNDEF: 16)
    1124:	0000004b 	andeq	r0, r0, fp, asr #32
    1128:	00000068 	andeq	r0, r0, r8, rrx
    112c:	01f30004 	mvnseq	r0, r4
    1130:	00009f51 	andeq	r9, r0, r1, asr pc
    1134:	00000000 	andeq	r0, r0, r0
    1138:	004c0000 	subeq	r0, ip, r0
    113c:	00540000 	subseq	r0, r4, r0
    1140:	00010000 	andeq	r0, r1, r0
    1144:	00005450 	andeq	r5, r0, r0, asr r4
    1148:	00005800 	andeq	r5, r0, r0, lsl #16
    114c:	75000900 	strvc	r0, [r0, #-2304]	; 0x900
    1150:	24007400 	strcs	r7, [r0], #-1024	; 0x400
    1154:	9f210071 	svcls	0x00210071
    1158:	00000058 	andeq	r0, r0, r8, asr r0
    115c:	0000005f 	andeq	r0, r0, pc, asr r0
    1160:	00510001 	subseq	r0, r1, r1
    1164:	00000000 	andeq	r0, r0, r0
    1168:	Address 0x0000000000001168 is out of bounds.


Disassembly of section .debug_aranges:

00000000 <.debug_aranges>:
   0:	0000001c 	andeq	r0, r0, ip, lsl r0
   4:	00000002 	andeq	r0, r0, r2
   8:	00040000 	andeq	r0, r4, r0
   c:	00000000 	andeq	r0, r0, r0
  10:	00008020 	andeq	r8, r0, r0, lsr #32
  14:	000001a0 	andeq	r0, r0, r0, lsr #3
	...
  20:	0000001c 	andeq	r0, r0, ip, lsl r0
  24:	04580002 	ldrbeq	r0, [r8], #-2
  28:	00040000 	andeq	r0, r4, r0
  2c:	00000000 	andeq	r0, r0, r0
  30:	000081c0 	andeq	r8, r0, r0, asr #3
  34:	00000378 	andeq	r0, r0, r8, ror r3
	...
  40:	0000001c 	andeq	r0, r0, ip, lsl r0
  44:	10330002 	eorsne	r0, r3, r2
  48:	00040000 	andeq	r0, r4, r0
  4c:	00000000 	andeq	r0, r0, r0
  50:	00008670 	andeq	r8, r0, r0, ror r6
  54:	00000784 	andeq	r0, r0, r4, lsl #15
	...
  60:	0000001c 	andeq	r0, r0, ip, lsl r0
  64:	1f360002 	svcne	0x00360002
  68:	00040000 	andeq	r0, r4, r0
  6c:	00000000 	andeq	r0, r0, r0
  70:	00008df4 	strdeq	r8, [r0], -r4
  74:	00000058 	andeq	r0, r0, r8, asr r0
	...
  80:	0000001c 	andeq	r0, r0, ip, lsl r0
  84:	20cb0002 	sbccs	r0, fp, r2
  88:	00040000 	andeq	r0, r4, r0
  8c:	00000000 	andeq	r0, r0, r0
  90:	00008e4c 	andeq	r8, r0, ip, asr #28
  94:	0000003c 	andeq	r0, r0, ip, lsr r0
	...
  a0:	0000001c 	andeq	r0, r0, ip, lsl r0
  a4:	21e20002 	mvncs	r0, r2
  a8:	00040000 	andeq	r0, r4, r0
  ac:	00000000 	andeq	r0, r0, r0
  b0:	00008e88 	andeq	r8, r0, r8, lsl #29
  b4:	00000034 	andeq	r0, r0, r4, lsr r0
	...
  c0:	0000001c 	andeq	r0, r0, ip, lsl r0
  c4:	22d40002 	sbcscs	r0, r4, #2
  c8:	00040000 	andeq	r0, r4, r0
  cc:	00000000 	andeq	r0, r0, r0
  d0:	00008ebc 			; <UNDEFINED> instruction: 0x00008ebc
  d4:	00000578 	andeq	r0, r0, r8, ror r5
	...
  e0:	0000001c 	andeq	r0, r0, ip, lsl r0
  e4:	29bd0002 	ldmibcs	sp!, {r1}
  e8:	00040000 	andeq	r0, r4, r0
  ec:	00000000 	andeq	r0, r0, r0
  f0:	00009434 	andeq	r9, r0, r4, lsr r4
  f4:	00000020 	andeq	r0, r0, r0, lsr #32
	...
 100:	0000001c 	andeq	r0, r0, ip, lsl r0
 104:	2a790002 	bcs	1e40114 <__bss_end__+0x1e35ae4>
 108:	00040000 	andeq	r0, r4, r0
 10c:	00000000 	andeq	r0, r0, r0
 110:	00009454 	andeq	r9, r0, r4, asr r4
 114:	0000002c 	andeq	r0, r0, ip, lsr #32
	...
 120:	0000001c 	andeq	r0, r0, ip, lsl r0
 124:	2b8c0002 	blcs	fe300134 <__bss_end__+0xfe2f5b04>
 128:	00040000 	andeq	r0, r4, r0
 12c:	00000000 	andeq	r0, r0, r0
 130:	00009480 	andeq	r9, r0, r0, lsl #9
 134:	00000038 	andeq	r0, r0, r8, lsr r0
	...
 140:	0000001c 	andeq	r0, r0, ip, lsl r0
 144:	2c9f0002 	ldccs	0, cr0, [pc], {2}
 148:	00040000 	andeq	r0, r4, r0
 14c:	00000000 	andeq	r0, r0, r0
 150:	000094b8 			; <UNDEFINED> instruction: 0x000094b8
 154:	00000044 	andeq	r0, r0, r4, asr #32
	...
 160:	0000001c 	andeq	r0, r0, ip, lsl r0
 164:	2de10002 	stclcs	0, cr0, [r1, #8]!
 168:	00040000 	andeq	r0, r4, r0
 16c:	00000000 	andeq	r0, r0, r0
 170:	000094fc 	strdeq	r9, [r0], -ip
 174:	00000044 	andeq	r0, r0, r4, asr #32
	...
 180:	0000001c 	andeq	r0, r0, ip, lsl r0
 184:	2f230002 	svccs	0x00230002
 188:	00040000 	andeq	r0, r4, r0
 18c:	00000000 	andeq	r0, r0, r0
 190:	00009540 	andeq	r9, r0, r0, asr #10
 194:	00000044 	andeq	r0, r0, r4, asr #32
	...
 1a0:	0000001c 	andeq	r0, r0, ip, lsl r0
 1a4:	30650002 	rsbcc	r0, r5, r2
 1a8:	00040000 	andeq	r0, r4, r0
 1ac:	00000000 	andeq	r0, r0, r0
 1b0:	00009584 	andeq	r9, r0, r4, lsl #11
 1b4:	00000008 	andeq	r0, r0, r8
	...
 1c0:	0000001c 	andeq	r0, r0, ip, lsl r0
 1c4:	31010002 	tstcc	r1, r2
 1c8:	00040000 	andeq	r0, r4, r0
 1cc:	00000000 	andeq	r0, r0, r0
 1d0:	0000958c 	andeq	r9, r0, ip, lsl #11
 1d4:	0000006c 	andeq	r0, r0, ip, rrx
	...
 1e0:	0000001c 	andeq	r0, r0, ip, lsl r0
 1e4:	32dc0002 	sbcscc	r0, ip, #2
 1e8:	00040000 	andeq	r0, r4, r0
 1ec:	00000000 	andeq	r0, r0, r0
 1f0:	000095f8 	strdeq	r9, [r0], -r8
 1f4:	00000074 	andeq	r0, r0, r4, ror r0
	...
 200:	0000001c 	andeq	r0, r0, ip, lsl r0
 204:	348d0002 	strcc	r0, [sp], #2
 208:	00040000 	andeq	r0, r4, r0
 20c:	00000000 	andeq	r0, r0, r0
 210:	0000966c 	andeq	r9, r0, ip, ror #12
 214:	00000098 	muleq	r0, r8, r0
	...
 220:	0000001c 	andeq	r0, r0, ip, lsl r0
 224:	36880002 	strcc	r0, [r8], r2
 228:	00040000 	andeq	r0, r4, r0
 22c:	00000000 	andeq	r0, r0, r0
 230:	00009768 	andeq	r9, r0, r8, ror #14
 234:	00000178 	andeq	r0, r0, r8, ror r1
	...
 240:	0000001c 	andeq	r0, r0, ip, lsl r0
 244:	43510002 	cmpmi	r1, #2
 248:	00040000 	andeq	r0, r4, r0
 24c:	00000000 	andeq	r0, r0, r0
 250:	000098e0 	andeq	r9, r0, r0, ror #17
 254:	00000120 	andeq	r0, r0, r0, lsr #2
	...

Disassembly of section .debug_line:

00000000 <.debug_line>:
       0:	00000155 	andeq	r0, r0, r5, asr r1
       4:	01100002 	tsteq	r0, r2
       8:	01020000 	mrseq	r0, (UNDEF: 2)
       c:	000d0efb 	strdeq	r0, [sp], -fp
      10:	01010101 	tsteq	r1, r1, lsl #2
      14:	01000000 	mrseq	r0, (UNDEF: 0)
      18:	74010000 	strvc	r0, [r1], #-0
      1c:	73747365 	cmnvc	r4, #-1811939327	; 0x94000001
      20:	00302e32 	eorseq	r2, r0, r2, lsr lr
      24:	752f002e 	strvc	r0, [pc, #-46]!	; fffffffe <__bss_end__+0xffff59ce>
      28:	6c2f7273 	sfmvs	f7, 4, [pc], #-460	; fffffe64 <__bss_end__+0xffff5834>
      2c:	6c61636f 	stclvs	3, cr6, [r1], #-444	; 0xfffffe44
      30:	6c65432f 	stclvs	3, cr4, [r5], #-188	; 0xffffff44
      34:	2f72616c 	svccs	0x0072616c
      38:	2d6d7261 	sfmcs	f7, 2, [sp, #-388]!	; 0xfffffe7c
      3c:	656e6f6e 	strbvs	r6, [lr, #-3950]!	; 0xf6e
      40:	6261652d 	rsbvs	r6, r1, #188743680	; 0xb400000
      44:	2e342f69 	cdpcs	15, 3, cr2, cr4, cr9, {3}
      48:	2d332e38 	ldccs	14, cr2, [r3, #-224]!	; 0xffffff20
      4c:	37317363 	ldrcc	r7, [r1, -r3, ror #6]!
      50:	6c2f6530 	cfstr32vs	mvfx6, [pc], #-192	; ffffff98 <__bss_end__+0xffff5968>
      54:	672f6269 	strvs	r6, [pc, -r9, ror #4]!
      58:	612f6363 	teqvs	pc, r3, ror #6
      5c:	6e2d6d72 	mcrvs	13, 1, r6, cr13, cr2, {3}
      60:	2d656e6f 	stclcs	14, cr6, [r5, #-444]!	; 0xfffffe44
      64:	69626165 	stmdbvs	r2!, {r0, r2, r5, r6, r8, sp, lr}^
      68:	382e342f 	stmdacc	lr!, {r0, r1, r2, r3, r5, sl, ip, sp}
      6c:	692f332e 	stmdbvs	pc!, {r1, r2, r3, r5, r8, r9, ip, sp}	; <UNPREDICTABLE>
      70:	756c636e 	strbvc	r6, [ip, #-878]!	; 0x36e
      74:	2f006564 	svccs	0x00006564
      78:	72657355 	rsbvc	r7, r5, #1409286145	; 0x54000001
      7c:	72622f73 	rsbvc	r2, r2, #460	; 0x1cc
      80:	6a6e6169 	bvs	1b9862c <__bss_end__+0x1b8dffc>
      84:	442f6e75 	strtmi	r6, [pc], #-3701	; 8c <__code_start__-0x7f74>
      88:	746b7365 	strbtvc	r7, [fp], #-869	; 0x365
      8c:	732f706f 	teqvc	pc, #111	; 0x6f
      90:	6f6f6863 	svcvs	0x006f6863
      94:	70532f6c 	subsvc	r2, r3, ip, ror #30
      98:	676e6972 			; <UNDEFINED> instruction: 0x676e6972
      9c:	30323931 	eorscc	r3, r2, r1, lsr r9
      a0:	3253432f 	subscc	r4, r3, #-1140850688	; 0xbc000000
      a4:	584c3034 	stmdapl	ip, {r2, r4, r5, ip, sp}^
      a8:	3273632f 	rsbscc	r6, r3, #-1140850688	; 0xbc000000
      ac:	786c3034 	stmdavc	ip!, {r2, r4, r5, ip, sp}^
      b0:	7330322d 	teqvc	r0, #-805306366	; 0xd0000002
      b4:	6c2f7270 	sfmvs	f7, 4, [pc], #-448	; fffffefc <__bss_end__+0xffff58cc>
      b8:	69706269 	ldmdbvs	r0!, {r0, r3, r5, r6, r9, sp, lr}^
      bc:	636e692f 	cmnvs	lr, #770048	; 0xbc000
      c0:	6564756c 	strbvs	r7, [r4, #-1388]!	; 0x56c
      c4:	36310000 	ldrtcc	r0, [r1], -r0
      c8:	7261702d 	rsbvc	r7, r1, #45	; 0x2d
      cc:	742d3274 	strtvc	r3, [sp], #-628	; 0x274
      d0:	33747365 	cmncc	r4, #-1811939327	; 0x94000001
      d4:	0100632e 	tsteq	r0, lr, lsr #6
      d8:	70630000 	rsbvc	r0, r3, r0
      dc:	642d3431 	strtvs	r3, [sp], #-1073	; 0x431
      e0:	67756265 	ldrbvs	r6, [r5, -r5, ror #4]!
      e4:	0200682e 	andeq	r6, r0, #3014656	; 0x2e0000
      e8:	68630000 	stmdavs	r3!, {}^	; <UNPREDICTABLE>
      ec:	2d6b6365 	stclcs	3, cr6, [fp, #-404]!	; 0xfffffe6c
      f0:	65746e69 	ldrbvs	r6, [r4, #-3689]!	; 0xe69
      f4:	61656c72 	smcvs	22210	; 0x56c2
      f8:	682e6576 	stmdavs	lr!, {r1, r2, r4, r5, r6, r8, sl, sp, lr}
      fc:	00000200 	andeq	r0, r0, r0, lsl #4
     100:	69647473 	stmdbvs	r4!, {r0, r1, r4, r5, r6, sl, ip, sp, lr}^
     104:	672d746e 	strvs	r7, [sp, -lr, ror #8]!
     108:	682e6363 	stmdavs	lr!, {r0, r1, r5, r6, r8, r9, sp, lr}
     10c:	00000300 	andeq	r0, r0, r0, lsl #6
     110:	2e697072 	mcrcs	0, 3, r7, cr9, cr2, {3}
     114:	00040068 	andeq	r0, r4, r8, rrx
     118:	05000000 	streq	r0, [r0, #-0]
     11c:	00802002 	addeq	r2, r0, r2
     120:	012f1600 	teqeq	pc, r0, lsl #12
     124:	6713304b 	ldrvs	r3, [r3, -fp, asr #32]
     128:	13302f4b 	teqne	r0, #300	; 0x12c
     12c:	a0192e02 	andsge	r2, r9, r2, lsl #28
     130:	0302044c 	movweq	r0, #9292	; 0x244c
     134:	042e01a8 	strteq	r0, [lr], #-424	; 0x1a8
     138:	7edb0301 	cdpvc	3, 13, cr0, cr11, cr1, {0}
     13c:	00834c66 	addeq	r4, r3, r6, ror #24
     140:	06010402 	streq	r0, [r1], -r2, lsl #8
     144:	21080666 	tstcs	r8, r6, ror #12
     148:	00842308 	addeq	r2, r4, r8, lsl #6
     14c:	06010402 	streq	r0, [r1], -r2, lsl #8
     150:	21080682 	smlabbcs	r8, r2, r6, r0
     154:	01001e02 	tsteq	r0, r2, lsl #28
     158:	0001f401 	andeq	pc, r1, r1, lsl #8
     15c:	ff000200 			; <UNDEFINED> instruction: 0xff000200
     160:	02000000 	andeq	r0, r0, #0
     164:	0d0efb01 	vstreq	d15, [lr, #-4]
     168:	01010100 	mrseq	r0, (UNDEF: 17)
     16c:	00000001 	andeq	r0, r0, r1
     170:	01000001 	tsteq	r0, r1
     174:	7273752f 	rsbsvc	r7, r3, #197132288	; 0xbc00000
     178:	636f6c2f 	cmnvs	pc, #12032	; 0x2f00
     17c:	432f6c61 	teqmi	pc, #24832	; 0x6100
     180:	616c6c65 	cmnvs	ip, r5, ror #24
     184:	72612f72 	rsbvc	r2, r1, #456	; 0x1c8
     188:	6f6e2d6d 	svcvs	0x006e2d6d
     18c:	652d656e 	strvs	r6, [sp, #-1390]!	; 0x56e
     190:	2f696261 	svccs	0x00696261
     194:	2e382e34 	mrccs	14, 1, r2, cr8, cr4, {1}
     198:	73632d33 	cmnvc	r3, #3264	; 0xcc0
     19c:	65303731 	ldrvs	r3, [r0, #-1841]!	; 0x731
     1a0:	62696c2f 	rsbvs	r6, r9, #12032	; 0x2f00
     1a4:	6363672f 	cmnvs	r3, #12320768	; 0xbc0000
     1a8:	6d72612f 	ldfvse	f6, [r2, #-188]!	; 0xffffff44
     1ac:	6e6f6e2d 	cdpvs	14, 6, cr6, cr15, cr13, {1}
     1b0:	61652d65 	cmnvs	r5, r5, ror #26
     1b4:	342f6962 	strtcc	r6, [pc], #-2402	; 1bc <__code_start__-0x7e44>
     1b8:	332e382e 	teqcc	lr, #3014656	; 0x2e0000
     1bc:	636e692f 	cmnvs	lr, #770048	; 0xbc000
     1c0:	6564756c 	strbvs	r7, [r4, #-1388]!	; 0x56c
     1c4:	73552f00 	cmpvc	r5, #0, 30
     1c8:	2f737265 	svccs	0x00737265
     1cc:	61697262 	cmnvs	r9, r2, ror #4
     1d0:	6e756a6e 	vsubvs.f32	s13, s10, s29
     1d4:	7365442f 	cmnvc	r5, #788529152	; 0x2f000000
     1d8:	706f746b 	rsbvc	r7, pc, fp, ror #8
     1dc:	6863732f 	stmdavs	r3!, {r0, r1, r2, r3, r5, r8, r9, ip, sp, lr}^
     1e0:	2f6c6f6f 	svccs	0x006c6f6f
     1e4:	69727053 	ldmdbvs	r2!, {r0, r1, r4, r6, ip, sp, lr}^
     1e8:	3931676e 	ldmdbcc	r1!, {r1, r2, r3, r5, r6, r8, r9, sl, sp, lr}
     1ec:	432f3032 	teqmi	pc, #50	; 0x32
     1f0:	30343253 	eorscc	r3, r4, r3, asr r2
     1f4:	632f584c 	teqvs	pc, #76, 16	; 0x4c0000
     1f8:	30343273 	eorscc	r3, r4, r3, ror r2
     1fc:	322d786c 	eorcc	r7, sp, #108, 16	; 0x6c0000
     200:	72707330 	rsbsvc	r7, r0, #48, 6	; 0xc0000000
     204:	62696c2f 	rsbvs	r6, r9, #12032	; 0x2f00
     208:	692f6970 	stmdbvs	pc!, {r4, r5, r6, r8, fp, sp, lr}	; <UNPREDICTABLE>
     20c:	756c636e 	strbvc	r6, [ip, #-878]!	; 0x36e
     210:	00006564 	andeq	r6, r0, r4, ror #10
     214:	34317063 	ldrtcc	r7, [r1], #-99	; 0x63
     218:	6265642d 	rsbvs	r6, r5, #754974720	; 0x2d000000
     21c:	632e6775 	teqvs	lr, #30670848	; 0x1d40000
     220:	00000000 	andeq	r0, r0, r0
     224:	34317063 	ldrtcc	r7, [r1], #-99	; 0x63
     228:	6265642d 	rsbvs	r6, r5, #754974720	; 0x2d000000
     22c:	682e6775 	stmdavs	lr!, {r0, r2, r4, r5, r6, r8, r9, sl, sp, lr}
     230:	00000000 	andeq	r0, r0, r0
     234:	69647473 	stmdbvs	r4!, {r0, r1, r4, r5, r6, sl, ip, sp, lr}^
     238:	672d746e 	strvs	r7, [sp, -lr, ror #8]!
     23c:	682e6363 	stmdavs	lr!, {r0, r1, r5, r6, r8, r9, sp, lr}
     240:	00000100 	andeq	r0, r0, r0, lsl #2
     244:	2e697072 	mcrcs	0, 3, r7, cr9, cr2, {3}
     248:	00020068 	andeq	r0, r2, r8, rrx
     24c:	69707200 	ldmdbvs	r0!, {r9, ip, sp, lr}^
     250:	746e692d 	strbtvc	r6, [lr], #-2349	; 0x92d
     254:	75727265 	ldrbvc	r7, [r2, #-613]!	; 0x265
     258:	2e737470 	mrccs	4, 3, r7, cr3, cr0, {3}
     25c:	00020068 	andeq	r0, r2, r8, rrx
     260:	05000000 	streq	r0, [r0, #-0]
     264:	0081c002 	addeq	ip, r1, r2
     268:	01350300 	teqeq	r5, r0, lsl #6
     26c:	034a6203 	movteq	r6, #41475	; 0xa203
     270:	62032e24 	andvs	r2, r3, #36, 28	; 0x240
     274:	2e7a032e 	cdpcs	3, 7, cr0, cr10, cr14, {1}
     278:	002e2903 	eoreq	r2, lr, r3, lsl #18
     27c:	06010402 	streq	r0, [r1], -r2, lsl #8
     280:	6503064a 	strvs	r0, [r3, #-1610]	; 0x64a
     284:	78032008 	stmdavc	r3, {r3, sp}
     288:	4a7a032e 	bmi	1e80f48 <__bss_end__+0x1e76918>
     28c:	002e3a03 	eoreq	r3, lr, r3, lsl #20
     290:	06010402 	streq	r0, [r1], -r2, lsl #8
     294:	bb03064a 	bllt	c1bc4 <__bss_end__+0xb7594>
     298:	0320087f 	teqeq	r0, #8323072	; 0x7f0000
     29c:	4b4a00c8 	blmi	12805c4 <__bss_end__+0x1275f94>
     2a0:	6c0204f5 	cfstrsvs	mvf0, [r2], {245}	; 0xf5
     2a4:	344a1303 	strbcc	r1, [sl], #-771	; 0x303
     2a8:	d65d034b 	ldrble	r0, [sp], -fp, asr #6
     2ac:	11030104 	tstne	r3, r4, lsl #2
     2b0:	0402002e 	streq	r0, [r2], #-46	; 0x2e
     2b4:	06660601 	strbteq	r0, [r6], -r1, lsl #12
     2b8:	02002208 	andeq	r2, r0, #8, 4	; 0x80000000
     2bc:	82060104 	andhi	r0, r6, #4, 2
     2c0:	03060204 	movweq	r0, #25092	; 0x6204
     2c4:	0420087a 	strteq	r0, [r0], #-2170	; 0x87a
     2c8:	2e0c0301 	cdpcs	3, 0, cr0, cr12, cr1, {0}
     2cc:	315a084b 	cmpcc	sl, fp, asr #16
     2d0:	bb032f83 	bllt	cc0e4 <__bss_end__+0xc1ab4>
     2d4:	5b03667f 	blpl	d9cd8 <__bss_end__+0xcf6a8>
     2d8:	019b034a 	orrseq	r0, fp, sl, asr #6
     2dc:	01650382 	smulbbeq	r5, r2, r3
     2e0:	032e1f03 	teqeq	lr, #3, 30
     2e4:	302c2e62 	eorcc	r2, ip, r2, ror #28
     2e8:	4a7eff03 	bmi	1fbfefc <__bss_end__+0x1fb58cc>
     2ec:	4a01b303 	bmi	6cf00 <__bss_end__+0x628d0>
     2f0:	030204a2 	movweq	r0, #9378	; 0x24a2
     2f4:	04336662 	ldrteq	r6, [r3], #-1634	; 0x662
     2f8:	2e1b0301 	cdpcs	3, 1, cr0, cr11, cr1, {0}
     2fc:	0200d74b 	andeq	sp, r0, #19660800	; 0x12c0000
     300:	82060104 	andhi	r0, r6, #4, 2
     304:	03060204 	movweq	r0, #25092	; 0x6204
     308:	0420084f 	strteq	r0, [r0], #-2127	; 0x84f
     30c:	2e330301 	cdpcs	3, 3, cr0, cr3, cr1, {0}
     310:	0b03f44b 	bleq	fd444 <__bss_end__+0xf2e14>
     314:	082f012e 	stmdaeq	pc!, {r1, r2, r3, r5, r8}	; <UNPREDICTABLE>
     318:	7fb1033f 	svcvc	0x00b1033f
     31c:	00d30301 	sbcseq	r0, r3, r1, lsl #6
     320:	7fae032e 	svcvc	0x00ae032e
     324:	03302c2e 	teqeq	r0, #11776	; 0x2e00
     328:	034a7eff 	movteq	r7, #44799	; 0xaeff
     32c:	a24a01e7 	subge	r0, sl, #-1073741767	; 0xc0000039
     330:	017f9603 	cmneq	pc, r3, lsl #12
     334:	8200fb03 	andhi	pc, r0, #3072	; 0xc00
     338:	034b4b31 	movteq	r4, #47921	; 0xbb31
     33c:	71032e10 	tstvc	r3, r0, lsl lr
     340:	4b674c4a 	blmi	19d3470 <__bss_end__+0x19c8e40>
     344:	03694e32 	cmneq	r9, #800	; 0x320
     348:	354d4a77 	strbcc	r4, [sp, #-2679]	; 0xa77
     34c:	01000402 	tsteq	r0, r2, lsl #8
     350:	00026701 	andeq	r6, r2, r1, lsl #14
     354:	3b000200 	blcc	b5c <__code_start__-0x74a4>
     358:	02000001 	andeq	r0, r0, #1
     35c:	0d0efb01 	vstreq	d15, [lr, #-4]
     360:	01010100 	mrseq	r0, (UNDEF: 17)
     364:	00000001 	andeq	r0, r0, r1
     368:	01000001 	tsteq	r0, r1
     36c:	6573552f 	ldrbvs	r5, [r3, #-1327]!	; 0x52f
     370:	622f7372 	eorvs	r7, pc, #-939524095	; 0xc8000001
     374:	6e616972 	mcrvs	9, 3, r6, cr1, cr2, {3}
     378:	2f6e756a 	svccs	0x006e756a
     37c:	6b736544 	blvs	1cd9894 <__bss_end__+0x1ccf264>
     380:	2f706f74 	svccs	0x00706f74
     384:	6f686373 	svcvs	0x00686373
     388:	532f6c6f 	teqpl	pc, #28416	; 0x6f00
     38c:	6e697270 	mcrvs	2, 3, r7, cr9, cr0, {3}
     390:	32393167 	eorscc	r3, r9, #-1073741799	; 0xc0000019
     394:	53432f30 	movtpl	r2, #16176	; 0x3f30
     398:	4c303432 	cfldrsmi	mvf3, [r0], #-200	; 0xffffff38
     39c:	73632f58 	cmnvc	r3, #88, 30	; 0x160
     3a0:	6c303432 	cfldrsvs	mvf3, [r0], #-200	; 0xffffff38
     3a4:	30322d78 	eorscc	r2, r2, r8, ror sp
     3a8:	2f727073 	svccs	0x00727073
     3ac:	7062696c 	rsbvc	r6, r2, ip, ror #18
     3b0:	6e692f69 	cdpvs	15, 6, cr2, cr9, cr9, {3}
     3b4:	64756c63 	ldrbtvs	r6, [r5], #-3171	; 0xc63
     3b8:	752f0065 	strvc	r0, [pc, #-101]!	; 35b <__code_start__-0x7ca5>
     3bc:	6c2f7273 	sfmvs	f7, 4, [pc], #-460	; 1f8 <__code_start__-0x7e08>
     3c0:	6c61636f 	stclvs	3, cr6, [r1], #-444	; 0xfffffe44
     3c4:	6c65432f 	stclvs	3, cr4, [r5], #-188	; 0xffffff44
     3c8:	2f72616c 	svccs	0x0072616c
     3cc:	2d6d7261 	sfmcs	f7, 2, [sp, #-388]!	; 0xfffffe7c
     3d0:	656e6f6e 	strbvs	r6, [lr, #-3950]!	; 0xf6e
     3d4:	6261652d 	rsbvs	r6, r1, #188743680	; 0xb400000
     3d8:	2e342f69 	cdpcs	15, 3, cr2, cr4, cr9, {3}
     3dc:	2d332e38 	ldccs	14, cr2, [r3, #-224]!	; 0xffffff20
     3e0:	37317363 	ldrcc	r7, [r1, -r3, ror #6]!
     3e4:	6c2f6530 	cfstr32vs	mvfx6, [pc], #-192	; 32c <__code_start__-0x7cd4>
     3e8:	672f6269 	strvs	r6, [pc, -r9, ror #4]!
     3ec:	612f6363 	teqvs	pc, r3, ror #6
     3f0:	6e2d6d72 	mcrvs	13, 1, r6, cr13, cr2, {3}
     3f4:	2d656e6f 	stclcs	14, cr6, [r5, #-444]!	; 0xfffffe44
     3f8:	69626165 	stmdbvs	r2!, {r0, r2, r5, r6, r8, sp, lr}^
     3fc:	382e342f 	stmdacc	lr!, {r0, r1, r2, r3, r5, sl, ip, sp}
     400:	692f332e 	stmdbvs	pc!, {r1, r2, r3, r5, r8, r9, ip, sp}	; <UNPREDICTABLE>
     404:	756c636e 	strbvc	r6, [ip, #-878]!	; 0x36e
     408:	00006564 	andeq	r6, r0, r4, ror #10
     40c:	63656863 	cmnvs	r5, #6488064	; 0x630000
     410:	6e692d6b 	cdpvs	13, 6, cr2, cr9, cr11, {3}
     414:	6c726574 	cfldr64vs	mvdx6, [r2], #-464	; 0xfffffe30
     418:	65766165 	ldrbvs	r6, [r6, #-357]!	; 0x165
     41c:	0000632e 	andeq	r6, r0, lr, lsr #6
     420:	70630000 	rsbvc	r0, r3, r0
     424:	642d3431 	strtvs	r3, [sp], #-1073	; 0x431
     428:	67756265 	ldrbvs	r6, [r5, -r5, ror #4]!
     42c:	0000682e 	andeq	r6, r0, lr, lsr #16
     430:	70720000 	rsbsvc	r0, r2, r0
     434:	6e692d69 	cdpvs	13, 6, cr2, cr9, cr9, {3}
     438:	72726574 	rsbsvc	r6, r2, #116, 10	; 0x1d000000
     43c:	73747075 	cmnvc	r4, #117	; 0x75
     440:	0100682e 	tsteq	r0, lr, lsr #16
     444:	69620000 	stmdbvs	r2!, {}^	; <UNPREDICTABLE>
     448:	75732d74 	ldrbvc	r2, [r3, #-3444]!	; 0xd74
     44c:	726f7070 	rsbvc	r7, pc, #112	; 0x70
     450:	00682e74 	rsbeq	r2, r8, r4, ror lr
     454:	63000000 	movwvs	r0, #0
     458:	2d727370 	ldclcs	3, cr7, [r2, #-448]!	; 0xfffffe40
     45c:	6c697475 	cfstrdvs	mvd7, [r9], #-468	; 0xfffffe2c
     460:	0000682e 	andeq	r6, r0, lr, lsr #16
     464:	74730000 	ldrbtvc	r0, [r3], #-0
     468:	746e6964 	strbtvc	r6, [lr], #-2404	; 0x964
     46c:	6363672d 	cmnvs	r3, #11796480	; 0xb40000
     470:	0200682e 	andeq	r6, r0, #3014656	; 0x2e0000
     474:	68630000 	stmdavs	r3!, {}^	; <UNPREDICTABLE>
     478:	2d6b6365 	stclcs	3, cr6, [fp, #-404]!	; 0xfffffe6c
     47c:	65746e69 	ldrbvs	r6, [r4, #-3689]!	; 0xe69
     480:	61656c72 	smcvs	22210	; 0x56c2
     484:	682e6576 	stmdavs	lr!, {r1, r2, r4, r5, r6, r8, sl, sp, lr}
     488:	00000000 	andeq	r0, r0, r0
     48c:	2e697072 	mcrcs	0, 3, r7, cr9, cr2, {3}
     490:	00010068 	andeq	r0, r1, r8, rrx
     494:	05000000 	streq	r0, [r0, #-0]
     498:	00867002 	addeq	r7, r6, r2
     49c:	010a0300 	mrseq	r0, (UNDEF: 58)
     4a0:	04020067 	streq	r0, [r2], #-103	; 0x67
     4a4:	04820601 	streq	r0, [r2], #1537	; 0x601
     4a8:	9a030602 	bls	c1cb8 <__bss_end__+0xb7688>
     4ac:	0433ba01 	ldrteq	fp, [r3], #-2561	; 0xa01
     4b0:	7ee20301 	cdpvc	3, 14, cr0, cr2, cr1, {0}
     4b4:	4dd84b2e 	vldrmi	d20, [r8, #184]	; 0xb8
     4b8:	4ba38383 	blmi	fe8e12cc <__bss_end__+0xfe8d6c9c>
     4bc:	4b674b2f 	blmi	19d3180 <__bss_end__+0x19c8b50>
     4c0:	02006830 	andeq	r6, r0, #48, 16	; 0x300000
     4c4:	82060104 	andhi	r0, r6, #4, 2
     4c8:	68210806 	stmdavs	r1!, {r1, r2, fp}
     4cc:	01040200 	mrseq	r0, R12_usr
     4d0:	bb068206 	bllt	1a0cf0 <__bss_end__+0x1966c0>
     4d4:	04020067 	streq	r0, [r2], #-103	; 0x67
     4d8:	06820601 	streq	r0, [r2], r1, lsl #12
     4dc:	04ca08bb 	strbeq	r0, [sl], #2235	; 0x8bb
     4e0:	04046303 	streq	r6, [r4], #-771	; 0x303
     4e4:	03050431 	movweq	r0, #21553	; 0x5431
     4e8:	01042e6b 	tsteq	r4, fp, ror #28
     4ec:	4b2e1903 	blmi	b86900 <__bss_end__+0xb7c2d0>
     4f0:	682a844e 	stmdavs	sl!, {r1, r2, r3, r6, sl, pc}
     4f4:	01040200 	mrseq	r0, R12_usr
     4f8:	d8066606 	stmdale	r6, {r1, r2, r9, sl, sp, lr}
     4fc:	314b676a 	cmpcc	fp, sl, ror #14
     500:	9f696784 	svcls	0x00696784
     504:	68686984 	stmdavs	r8!, {r2, r7, r8, fp, sp, lr}^
     508:	51030404 	tstpl	r3, r4, lsl #8
     50c:	03050482 	movweq	r0, #21634	; 0x5482
     510:	67652e6c 	strbvs	r2, [r5, -ip, ror #28]!
     514:	60082508 	andvs	r2, r8, r8, lsl #10
     518:	4b152802 	blmi	54a528 <__bss_end__+0x53fef8>
     51c:	4b4b4b4b 	blmi	12d3250 <__bss_end__+0x12c8c20>
     520:	4bf27903 	blmi	ffc9e934 <__bss_end__+0xffc94304>
     524:	38030104 	stmdacc	r3, {r2, r8}
     528:	0303042e 	movweq	r0, #13358	; 0x342e
     52c:	04046655 	streq	r6, [r4], #-1621	; 0x655
     530:	042e7803 	strteq	r7, [lr], #-2051	; 0x803
     534:	2e6c0305 	cdpcs	3, 6, cr0, cr12, cr5, {0}
     538:	25086765 	strcs	r6, [r8, #-1893]	; 0x765
     53c:	28026008 	stmdacs	r2, {r3, sp, lr}
     540:	4b4b4b15 	blmi	12d319c <__bss_end__+0x12c8b6c>
     544:	79034b4b 	stmdbvc	r3, {r0, r1, r3, r6, r8, r9, fp, lr}
     548:	03044bf2 	movweq	r4, #19442	; 0x4bf2
     54c:	042e0d03 	strteq	r0, [lr], #-3331	; 0xd03
     550:	2e2c0301 	cdpcs	3, 2, cr0, cr12, cr1, {0}
     554:	0304044c 	movweq	r0, #17484	; 0x444c
     558:	05044a4a 	streq	r4, [r4, #-2634]	; 0xa4a
     55c:	652e6c03 	strvs	r6, [lr, #-3075]!	; 0xc03
     560:	04250867 	strteq	r0, [r5], #-2151	; 0x867
     564:	08170303 	ldmdaeq	r7, {r0, r1, r8, r9}
     568:	03040458 	movweq	r0, #17496	; 0x4458
     56c:	05042e78 	streq	r2, [r4, #-3704]	; 0xe78
     570:	652e6c03 	strvs	r6, [lr, #-3075]!	; 0xc03
     574:	04250867 	strteq	r0, [r5], #-2151	; 0x867
     578:	00c70301 	sbceq	r0, r7, r1, lsl #6
     57c:	02005808 	andeq	r5, r0, #8, 16	; 0x80000
     580:	4a060104 	bmi	180998 <__bss_end__+0x176368>
     584:	4c240806 	stcmi	8, cr0, [r4], #-24	; 0xffffffe8
     588:	173a022f 	ldrne	r0, [sl, -pc, lsr #4]!
     58c:	67684b4e 	strbvs	r4, [r8, -lr, asr #22]!
     590:	7a039f67 	bvc	e8334 <__bss_end__+0xddd04>
     594:	040200d6 	streq	r0, [r2], #-214	; 0xd6
     598:	062e0601 	strteq	r0, [lr], -r1, lsl #12
     59c:	a14a1203 	cmpge	sl, r3, lsl #4
     5a0:	2d2d491a 	stccs	9, cr4, [sp, #-104]!	; 0xffffff98
     5a4:	2d2d2d2d 	stccs	13, cr2, [sp, #-180]!	; 0xffffff4c
     5a8:	4b4a0a03 	blmi	1282dbc <__bss_end__+0x127878c>
     5ac:	02004b2f 	andeq	r4, r0, #48128	; 0xbc00
     5b0:	82060104 	andhi	r0, r6, #4, 2
     5b4:	029f0682 	addseq	r0, pc, #136314880	; 0x8200000
     5b8:	01010002 	tsteq	r1, r2
     5bc:	0000010c 	andeq	r0, r0, ip, lsl #2
     5c0:	00f50002 	rscseq	r0, r5, r2
     5c4:	01020000 	mrseq	r0, (UNDEF: 2)
     5c8:	000d0efb 	strdeq	r0, [sp], -fp
     5cc:	01010101 	tsteq	r1, r1, lsl #2
     5d0:	01000000 	mrseq	r0, (UNDEF: 0)
     5d4:	6c010000 	stcvs	0, cr0, [r1], {-0}
     5d8:	00636269 	rsbeq	r6, r3, r9, ror #4
     5dc:	7273752f 	rsbsvc	r7, r3, #197132288	; 0xbc00000
     5e0:	636f6c2f 	cmnvs	pc, #12032	; 0x2f00
     5e4:	432f6c61 	teqmi	pc, #24832	; 0x6100
     5e8:	616c6c65 	cmnvs	ip, r5, ror #24
     5ec:	72612f72 	rsbvc	r2, r1, #456	; 0x1c8
     5f0:	6f6e2d6d 	svcvs	0x006e2d6d
     5f4:	652d656e 	strvs	r6, [sp, #-1390]!	; 0x56e
     5f8:	2f696261 	svccs	0x00696261
     5fc:	2e382e34 	mrccs	14, 1, r2, cr8, cr4, {1}
     600:	73632d33 	cmnvc	r3, #3264	; 0xcc0
     604:	65303731 	ldrvs	r3, [r0, #-1841]!	; 0x731
     608:	62696c2f 	rsbvs	r6, r9, #12032	; 0x2f00
     60c:	6363672f 	cmnvs	r3, #12320768	; 0xbc0000
     610:	6d72612f 	ldfvse	f6, [r2, #-188]!	; 0xffffff44
     614:	6e6f6e2d 	cdpvs	14, 6, cr6, cr15, cr13, {1}
     618:	61652d65 	cmnvs	r5, r5, ror #26
     61c:	342f6962 	strtcc	r6, [pc], #-2402	; 624 <__code_start__-0x79dc>
     620:	332e382e 	teqcc	lr, #3014656	; 0x2e0000
     624:	636e692f 	cmnvs	lr, #770048	; 0xbc000
     628:	6564756c 	strbvs	r7, [r4, #-1388]!	; 0x56c
     62c:	73552f00 	cmpvc	r5, #0, 30
     630:	2f737265 	svccs	0x00737265
     634:	61697262 	cmnvs	r9, r2, ror #4
     638:	6e756a6e 	vsubvs.f32	s13, s10, s29
     63c:	7365442f 	cmnvc	r5, #788529152	; 0x2f000000
     640:	706f746b 	rsbvc	r7, pc, fp, ror #8
     644:	6863732f 	stmdavs	r3!, {r0, r1, r2, r3, r5, r8, r9, ip, sp, lr}^
     648:	2f6c6f6f 	svccs	0x006c6f6f
     64c:	69727053 	ldmdbvs	r2!, {r0, r1, r4, r6, ip, sp, lr}^
     650:	3931676e 	ldmdbcc	r1!, {r1, r2, r3, r5, r6, r8, r9, sl, sp, lr}
     654:	432f3032 	teqmi	pc, #50	; 0x32
     658:	30343253 	eorscc	r3, r4, r3, asr r2
     65c:	632f584c 	teqvs	pc, #76, 16	; 0x4c0000
     660:	30343273 	eorscc	r3, r4, r3, ror r2
     664:	322d786c 	eorcc	r7, sp, #108, 16	; 0x6c0000
     668:	72707330 	rsbsvc	r7, r0, #48, 6	; 0xc0000000
     66c:	62696c2f 	rsbvs	r6, r9, #12032	; 0x2f00
     670:	692f6970 	stmdbvs	pc!, {r4, r5, r6, r8, fp, sp, lr}	; <UNPREDICTABLE>
     674:	756c636e 	strbvc	r6, [ip, #-878]!	; 0x36e
     678:	00006564 	andeq	r6, r0, r4, ror #10
     67c:	6e697270 	mcrvs	2, 3, r7, cr9, cr0, {3}
     680:	632e6b74 	teqvs	lr, #116, 22	; 0x1d000
     684:	00000100 	andeq	r0, r0, r0, lsl #2
     688:	61647473 	smcvs	18243	; 0x4743
     68c:	682e6772 	stmdavs	lr!, {r1, r4, r5, r6, r8, r9, sl, sp, lr}
     690:	00000200 	andeq	r0, r0, r0, lsl #4
     694:	6975623c 	ldmdbvs	r5!, {r2, r3, r4, r5, r9, sp, lr}^
     698:	692d746c 	pushvs	{r2, r3, r5, r6, sl, ip, sp, lr}
     69c:	00003e6e 	andeq	r3, r0, lr, ror #28
     6a0:	70720000 	rsbsvc	r0, r2, r0
     6a4:	00682e69 	rsbeq	r2, r8, r9, ror #28
     6a8:	76000003 	strvc	r0, [r0], -r3
     6ac:	72702d61 	rsbsvc	r2, r0, #6208	; 0x1840
     6b0:	6b746e69 	blvs	1d1c05c <__bss_end__+0x1d11a2c>
     6b4:	0100682e 	tsteq	r0, lr, lsr #16
     6b8:	00000000 	andeq	r0, r0, r0
     6bc:	8df40205 	lfmhi	f0, 2, [r4, #20]!
     6c0:	6b170000 	blvs	5c06c8 <__bss_end__+0x5b6098>
     6c4:	0289bf4b 	addeq	fp, r9, #300	; 0x12c
     6c8:	0101000e 	tsteq	r1, lr
     6cc:	00000094 	muleq	r0, r4, r0
     6d0:	007c0002 	rsbseq	r0, ip, r2
     6d4:	01020000 	mrseq	r0, (UNDEF: 2)
     6d8:	000d0efb 	strdeq	r0, [sp], -fp
     6dc:	01010101 	tsteq	r1, r1, lsl #2
     6e0:	01000000 	mrseq	r0, (UNDEF: 0)
     6e4:	6c010000 	stcvs	0, cr0, [r1], {-0}
     6e8:	00636269 	rsbeq	r6, r3, r9, ror #4
     6ec:	6573552f 	ldrbvs	r5, [r3, #-1327]!	; 0x52f
     6f0:	622f7372 	eorvs	r7, pc, #-939524095	; 0xc8000001
     6f4:	6e616972 	mcrvs	9, 3, r6, cr1, cr2, {3}
     6f8:	2f6e756a 	svccs	0x006e756a
     6fc:	6b736544 	blvs	1cd9c14 <__bss_end__+0x1ccf5e4>
     700:	2f706f74 	svccs	0x00706f74
     704:	6f686373 	svcvs	0x00686373
     708:	532f6c6f 	teqpl	pc, #28416	; 0x6f00
     70c:	6e697270 	mcrvs	2, 3, r7, cr9, cr0, {3}
     710:	32393167 	eorscc	r3, r9, #-1073741799	; 0xc0000019
     714:	53432f30 	movtpl	r2, #16176	; 0x3f30
     718:	4c303432 	cfldrsmi	mvf3, [r0], #-200	; 0xffffff38
     71c:	73632f58 	cmnvc	r3, #88, 30	; 0x160
     720:	6c303432 	cfldrsvs	mvf3, [r0], #-200	; 0xffffff38
     724:	30322d78 	eorscc	r2, r2, r8, ror sp
     728:	2f727073 	svccs	0x00727073
     72c:	7062696c 	rsbvc	r6, r2, ip, ror #18
     730:	6e692f69 	cdpvs	15, 6, cr2, cr9, cr9, {3}
     734:	64756c63 	ldrbtvs	r6, [r5], #-3171	; 0xc63
     738:	70000065 	andvc	r0, r0, r5, rrx
     73c:	68637475 	stmdavs	r3!, {r0, r2, r4, r5, r6, sl, ip, sp, lr}^
     740:	632e7261 	teqvs	lr, #268435462	; 0x10000006
     744:	00000100 	andeq	r0, r0, r0, lsl #2
     748:	2e697072 	mcrcs	0, 3, r7, cr9, cr2, {3}
     74c:	00020068 	andeq	r0, r2, r8, rrx
     750:	05000000 	streq	r0, [r0, #-0]
     754:	008e4c02 	addeq	r4, lr, r2, lsl #24
     758:	6b4a1400 	blvs	1285760 <__bss_end__+0x127b130>
     75c:	0213bc13 	andseq	fp, r3, #4864	; 0x1300
     760:	01010008 	tsteq	r1, r8
     764:	000000a0 	andeq	r0, r0, r0, lsr #1
     768:	00790002 	rsbseq	r0, r9, r2
     76c:	01020000 	mrseq	r0, (UNDEF: 2)
     770:	000d0efb 	strdeq	r0, [sp], -fp
     774:	01010101 	tsteq	r1, r1, lsl #2
     778:	01000000 	mrseq	r0, (UNDEF: 0)
     77c:	6c010000 	stcvs	0, cr0, [r1], {-0}
     780:	00636269 	rsbeq	r6, r3, r9, ror #4
     784:	6573552f 	ldrbvs	r5, [r3, #-1327]!	; 0x52f
     788:	622f7372 	eorvs	r7, pc, #-939524095	; 0xc8000001
     78c:	6e616972 	mcrvs	9, 3, r6, cr1, cr2, {3}
     790:	2f6e756a 	svccs	0x006e756a
     794:	6b736544 	blvs	1cd9cac <__bss_end__+0x1ccf67c>
     798:	2f706f74 	svccs	0x00706f74
     79c:	6f686373 	svcvs	0x00686373
     7a0:	532f6c6f 	teqpl	pc, #28416	; 0x6f00
     7a4:	6e697270 	mcrvs	2, 3, r7, cr9, cr0, {3}
     7a8:	32393167 	eorscc	r3, r9, #-1073741799	; 0xc0000019
     7ac:	53432f30 	movtpl	r2, #16176	; 0x3f30
     7b0:	4c303432 	cfldrsmi	mvf3, [r0], #-200	; 0xffffff38
     7b4:	73632f58 	cmnvc	r3, #88, 30	; 0x160
     7b8:	6c303432 	cfldrsvs	mvf3, [r0], #-200	; 0xffffff38
     7bc:	30322d78 	eorscc	r2, r2, r8, ror sp
     7c0:	2f727073 	svccs	0x00727073
     7c4:	7062696c 	rsbvc	r6, r2, ip, ror #18
     7c8:	6e692f69 	cdpvs	15, 6, cr2, cr9, cr9, {3}
     7cc:	64756c63 	ldrbtvs	r6, [r5], #-3171	; 0xc63
     7d0:	70000065 	andvc	r0, r0, r5, rrx
     7d4:	2e6b7475 	mcrcs	4, 3, r7, cr11, cr5, {3}
     7d8:	00010063 	andeq	r0, r1, r3, rrx
     7dc:	69707200 	ldmdbvs	r0!, {r9, ip, sp, lr}^
     7e0:	0200682e 	andeq	r6, r0, #3014656	; 0x2e0000
     7e4:	00000000 	andeq	r0, r0, r0
     7e8:	8e880205 	cdphi	2, 8, cr0, cr8, cr5, {0}
     7ec:	4c150000 	ldcmi	0, cr0, [r5], {-0}
     7f0:	0402002d 	streq	r0, [r2], #-45	; 0x2d
     7f4:	02002f02 	andeq	r2, r0, #2, 30
     7f8:	00490204 	subeq	r0, r9, r4, lsl #4
     7fc:	06010402 	streq	r0, [r1], -r2, lsl #8
     800:	026b062e 	rsbeq	r0, fp, #48234496	; 0x2e00000
     804:	01010006 	tsteq	r1, r6
     808:	000001f1 	strdeq	r0, [r0], -r1
     80c:	00e90002 	rsceq	r0, r9, r2
     810:	01020000 	mrseq	r0, (UNDEF: 2)
     814:	000d0efb 	strdeq	r0, [sp], -fp
     818:	01010101 	tsteq	r1, r1, lsl #2
     81c:	01000000 	mrseq	r0, (UNDEF: 0)
     820:	6c010000 	stcvs	0, cr0, [r1], {-0}
     824:	00636269 	rsbeq	r6, r3, r9, ror #4
     828:	7273752f 	rsbsvc	r7, r3, #197132288	; 0xbc00000
     82c:	636f6c2f 	cmnvs	pc, #12032	; 0x2f00
     830:	432f6c61 	teqmi	pc, #24832	; 0x6100
     834:	616c6c65 	cmnvs	ip, r5, ror #24
     838:	72612f72 	rsbvc	r2, r1, #456	; 0x1c8
     83c:	6f6e2d6d 	svcvs	0x006e2d6d
     840:	652d656e 	strvs	r6, [sp, #-1390]!	; 0x56e
     844:	2f696261 	svccs	0x00696261
     848:	2e382e34 	mrccs	14, 1, r2, cr8, cr4, {1}
     84c:	73632d33 	cmnvc	r3, #3264	; 0xcc0
     850:	65303731 	ldrvs	r3, [r0, #-1841]!	; 0x731
     854:	62696c2f 	rsbvs	r6, r9, #12032	; 0x2f00
     858:	6363672f 	cmnvs	r3, #12320768	; 0xbc0000
     85c:	6d72612f 	ldfvse	f6, [r2, #-188]!	; 0xffffff44
     860:	6e6f6e2d 	cdpvs	14, 6, cr6, cr15, cr13, {1}
     864:	61652d65 	cmnvs	r5, r5, ror #26
     868:	342f6962 	strtcc	r6, [pc], #-2402	; 870 <__code_start__-0x7790>
     86c:	332e382e 	teqcc	lr, #3014656	; 0x2e0000
     870:	636e692f 	cmnvs	lr, #770048	; 0xbc000
     874:	6564756c 	strbvs	r7, [r4, #-1388]!	; 0x56c
     878:	73552f00 	cmpvc	r5, #0, 30
     87c:	2f737265 	svccs	0x00737265
     880:	61697262 	cmnvs	r9, r2, ror #4
     884:	6e756a6e 	vsubvs.f32	s13, s10, s29
     888:	7365442f 	cmnvc	r5, #788529152	; 0x2f000000
     88c:	706f746b 	rsbvc	r7, pc, fp, ror #8
     890:	6863732f 	stmdavs	r3!, {r0, r1, r2, r3, r5, r8, r9, ip, sp, lr}^
     894:	2f6c6f6f 	svccs	0x006c6f6f
     898:	69727053 	ldmdbvs	r2!, {r0, r1, r4, r6, ip, sp, lr}^
     89c:	3931676e 	ldmdbcc	r1!, {r1, r2, r3, r5, r6, r8, r9, sl, sp, lr}
     8a0:	432f3032 	teqmi	pc, #50	; 0x32
     8a4:	30343253 	eorscc	r3, r4, r3, asr r2
     8a8:	632f584c 	teqvs	pc, #76, 16	; 0x4c0000
     8ac:	30343273 	eorscc	r3, r4, r3, ror r2
     8b0:	322d786c 	eorcc	r7, sp, #108, 16	; 0x6c0000
     8b4:	72707330 	rsbsvc	r7, r0, #48, 6	; 0xc0000000
     8b8:	62696c2f 	rsbvs	r6, r9, #12032	; 0x2f00
     8bc:	692f6970 	stmdbvs	pc!, {r4, r5, r6, r8, fp, sp, lr}	; <UNPREDICTABLE>
     8c0:	756c636e 	strbvc	r6, [ip, #-878]!	; 0x36e
     8c4:	00006564 	andeq	r6, r0, r4, ror #10
     8c8:	702d6176 	eorvc	r6, sp, r6, ror r1
     8cc:	746e6972 	strbtvc	r6, [lr], #-2418	; 0x972
     8d0:	00632e6b 	rsbeq	r2, r3, fp, ror #28
     8d4:	73000001 	movwvc	r0, #1
     8d8:	72616474 	rsbvc	r6, r1, #116, 8	; 0x74000000
     8dc:	00682e67 	rsbeq	r2, r8, r7, ror #28
     8e0:	72000002 	andvc	r0, r0, #2
     8e4:	682e6970 	stmdavs	lr!, {r4, r5, r6, r8, fp, sp, lr}
     8e8:	00000300 	andeq	r0, r0, r0, lsl #6
     8ec:	6975623c 	ldmdbvs	r5!, {r2, r3, r4, r5, r9, sp, lr}^
     8f0:	692d746c 	pushvs	{r2, r3, r5, r6, sl, ip, sp, lr}
     8f4:	00003e6e 	andeq	r3, r0, lr, ror #28
     8f8:	00000000 	andeq	r0, r0, r0
     8fc:	8ebc0205 	cdphi	2, 11, cr0, cr12, cr5, {0}
     900:	26030000 	strcs	r0, [r3], -r0
     904:	13a50101 			; <UNDEFINED> instruction: 0x13a50101
     908:	02002d31 	andeq	r2, r0, #3136	; 0xc40
     90c:	002f0204 	eoreq	r0, pc, r4, lsl #4
     910:	2d020402 	cfstrscs	mvf0, [r2, #-8]
     914:	02040200 	andeq	r0, r4, #0, 4
     918:	0402002f 	streq	r0, [r2], #-47	; 0x2f
     91c:	4c4c2d01 	mcrrmi	13, 0, r2, ip, cr1
     920:	2f4b1430 	svccs	0x004b1430
     924:	0402004f 	streq	r0, [r2], #-79	; 0x4f
     928:	02006702 	andeq	r6, r0, #524288	; 0x80000
     92c:	4c650104 	stfmie	f0, [r5], #-16
     930:	2fa0304d 	svccs	0x00a0304d
     934:	26023031 			; <UNDEFINED> instruction: 0x26023031
     938:	2c2d8416 	cfstrscs	mvf8, [sp], #-88	; 0xffffffa8
     93c:	01040200 	mrseq	r0, R12_usr
     940:	04020030 	streq	r0, [r2], #-48	; 0x30
     944:	66063301 	strvs	r3, [r6], -r1, lsl #6
     948:	01040200 	mrseq	r0, R12_usr
     94c:	0402002e 	streq	r0, [r2], #-46	; 0x2e
     950:	21080601 	tstcs	r8, r1, lsl #12
     954:	73032f67 	movwvc	r2, #16231	; 0x3f67
     958:	2e130382 	cdpcs	3, 1, cr0, cr3, cr2, {4}
     95c:	01040200 	mrseq	r0, R12_usr
     960:	02006606 	andeq	r6, r0, #6291456	; 0x600000
     964:	83060104 	movwhi	r0, #24836	; 0x6104
     968:	31674b4b 	cmncc	r7, fp, asr #22
     96c:	2e65034b 	cdpcs	3, 6, cr0, cr5, cr11, {2}
     970:	002e2303 	eoreq	r2, lr, r3, lsl #6
     974:	06010402 	streq	r0, [r1], -r2, lsl #8
     978:	0402002e 	streq	r0, [r2], #-46	; 0x2e
     97c:	009f0601 	addseq	r0, pc, r1, lsl #12
     980:	6a010402 	bvs	41990 <__bss_end__+0x37360>
     984:	03d72308 	bicseq	r2, r7, #8, 6	; 0x20000000
     988:	3c087fa4 	stccc	15, cr7, [r8], {164}	; 0xa4
     98c:	0402004b 	streq	r0, [r2], #-75	; 0x4b
     990:	064a0601 	strbeq	r0, [sl], -r1, lsl #12
     994:	2f4b2108 	svccs	0x004b2108
     998:	00db034b 	sbcseq	r0, fp, fp, asr #6
     99c:	484c9ff2 	stmdami	ip, {r1, r4, r5, r6, r7, r8, r9, sl, fp, ip, pc}^
     9a0:	842f4b32 	strthi	r4, [pc], #-2866	; 9a8 <__code_start__-0x7658>
     9a4:	4d2d2f4b 	stcmi	15, cr2, [sp, #-300]!	; 0xfffffed4
     9a8:	832f3031 	teqhi	pc, #49	; 0x31
     9ac:	01040200 	mrseq	r0, R12_usr
     9b0:	0200be2c 	andeq	fp, r0, #44, 28	; 0x2c0
     9b4:	4a060104 	bmi	180dcc <__bss_end__+0x17679c>
     9b8:	02220806 	eoreq	r0, r2, #393216	; 0x60000
     9bc:	0e031636 	mcreq	6, 0, r1, cr3, cr6, {1}
     9c0:	302108d6 	ldrdcc	r0, [r1], -r6	; <UNPREDICTABLE>
     9c4:	08312108 	ldmdaeq	r1!, {r3, r8, sp}
     9c8:	21083021 	tstcs	r8, r1, lsr #32
     9cc:	08304b30 	ldmdaeq	r0!, {r4, r5, r8, r9, fp, lr}
     9d0:	834b3021 	movthi	r3, #45089	; 0xb021
     9d4:	2f31d983 	svccs	0x0031d983
     9d8:	01040200 	mrseq	r0, R12_usr
     9dc:	04020065 	streq	r0, [r2], #-101	; 0x65
     9e0:	004a0602 	subeq	r0, sl, r2, lsl #12
     9e4:	06010402 	streq	r0, [r1], -r2, lsl #8
     9e8:	667fbf03 	ldrbtvs	fp, [pc], -r3, lsl #30
     9ec:	02040200 	andeq	r0, r4, #0, 4
     9f0:	03066606 	movweq	r6, #26118	; 0x6606
     9f4:	684a00c5 	stmdavs	sl, {r0, r2, r6, r7}^
     9f8:	01001602 	tsteq	r0, r2, lsl #12
     9fc:	00004201 	andeq	r4, r0, r1, lsl #4
     a00:	28000200 	stmdacs	r0, {r9}
     a04:	02000000 	andeq	r0, r0, #0
     a08:	0d0efb01 	vstreq	d15, [lr, #-4]
     a0c:	01010100 	mrseq	r0, (UNDEF: 17)
     a10:	00000001 	andeq	r0, r0, r1
     a14:	01000001 	tsteq	r0, r1
     a18:	66617473 			; <UNDEFINED> instruction: 0x66617473
     a1c:	72732d66 	rsbsvc	r2, r3, #6528	; 0x1980
     a20:	63000063 	movwvs	r0, #99	; 0x63
     a24:	65686361 	strbvs	r6, [r8, #-865]!	; 0x361
     a28:	0100632e 	tsteq	r0, lr, lsr #6
     a2c:	00000000 	andeq	r0, r0, r0
     a30:	94340205 	ldrtls	r0, [r4], #-517	; 0x205
     a34:	14140000 	ldrne	r0, [r4], #-0
     a38:	144e2f30 	strbne	r2, [lr], #-3888	; 0xf30
     a3c:	04022f31 	streq	r2, [r2], #-3889	; 0xf31
     a40:	9d010100 	stflss	f0, [r1, #-0]
     a44:	02000000 	andeq	r0, r0, #0
     a48:	00008600 	andeq	r8, r0, r0, lsl #12
     a4c:	fb010200 	blx	41256 <__bss_end__+0x36c26>
     a50:	01000d0e 	tsteq	r0, lr, lsl #26
     a54:	00010101 	andeq	r0, r1, r1, lsl #2
     a58:	00010000 	andeq	r0, r1, r0
     a5c:	74730100 	ldrbtvc	r0, [r3], #-256	; 0x100
     a60:	2d666661 	stclcs	6, cr6, [r6, #-388]!	; 0xfffffe7c
     a64:	00637273 	rsbeq	r7, r3, r3, ror r2
     a68:	6573552f 	ldrbvs	r5, [r3, #-1327]!	; 0x52f
     a6c:	622f7372 	eorvs	r7, pc, #-939524095	; 0xc8000001
     a70:	6e616972 	mcrvs	9, 3, r6, cr1, cr2, {3}
     a74:	2f6e756a 	svccs	0x006e756a
     a78:	6b736544 	blvs	1cd9f90 <__bss_end__+0x1ccf960>
     a7c:	2f706f74 	svccs	0x00706f74
     a80:	6f686373 	svcvs	0x00686373
     a84:	532f6c6f 	teqpl	pc, #28416	; 0x6f00
     a88:	6e697270 	mcrvs	2, 3, r7, cr9, cr0, {3}
     a8c:	32393167 	eorscc	r3, r9, #-1073741799	; 0xc0000019
     a90:	53432f30 	movtpl	r2, #16176	; 0x3f30
     a94:	4c303432 	cfldrsmi	mvf3, [r0], #-200	; 0xffffff38
     a98:	73632f58 	cmnvc	r3, #88, 30	; 0x160
     a9c:	6c303432 	cfldrsvs	mvf3, [r0], #-200	; 0xffffff38
     aa0:	30322d78 	eorscc	r2, r2, r8, ror sp
     aa4:	2f727073 	svccs	0x00727073
     aa8:	7062696c 	rsbvc	r6, r2, ip, ror #18
     aac:	6e692f69 	cdpvs	15, 6, cr2, cr9, cr9, {3}
     ab0:	64756c63 	ldrbtvs	r6, [r5], #-3171	; 0xc63
     ab4:	63000065 	movwvs	r0, #101	; 0x65
     ab8:	6e61656c 	cdpvs	5, 6, cr6, cr1, cr12, {3}
     abc:	6265722d 	rsbvs	r7, r5, #-805306366	; 0xd0000002
     ac0:	2e746f6f 	cdpcs	15, 7, cr6, cr4, cr15, {3}
     ac4:	00010063 	andeq	r0, r1, r3, rrx
     ac8:	69707200 	ldmdbvs	r0!, {r9, ip, sp, lr}^
     acc:	0200682e 	andeq	r6, r0, #3014656	; 0x2e0000
     ad0:	00000000 	andeq	r0, r0, r0
     ad4:	94540205 	ldrbls	r0, [r4], #-517	; 0x205
     ad8:	2f150000 	svccs	0x00150000
     adc:	024b832f 	subeq	r8, fp, #-1140850688	; 0xbc000000
     ae0:	01010006 	tsteq	r1, r6
     ae4:	000000a6 	andeq	r0, r0, r6, lsr #1
     ae8:	00800002 	addeq	r0, r0, r2
     aec:	01020000 	mrseq	r0, (UNDEF: 2)
     af0:	000d0efb 	strdeq	r0, [sp], -fp
     af4:	01010101 	tsteq	r1, r1, lsl #2
     af8:	01000000 	mrseq	r0, (UNDEF: 0)
     afc:	73010000 	movwvc	r0, #4096	; 0x1000
     b00:	66666174 			; <UNDEFINED> instruction: 0x66666174
     b04:	6372732d 	cmnvs	r2, #-1275068416	; 0xb4000000
     b08:	73552f00 	cmpvc	r5, #0, 30
     b0c:	2f737265 	svccs	0x00737265
     b10:	61697262 	cmnvs	r9, r2, ror #4
     b14:	6e756a6e 	vsubvs.f32	s13, s10, s29
     b18:	7365442f 	cmnvc	r5, #788529152	; 0x2f000000
     b1c:	706f746b 	rsbvc	r7, pc, fp, ror #8
     b20:	6863732f 	stmdavs	r3!, {r0, r1, r2, r3, r5, r8, r9, ip, sp, lr}^
     b24:	2f6c6f6f 	svccs	0x006c6f6f
     b28:	69727053 	ldmdbvs	r2!, {r0, r1, r4, r6, ip, sp, lr}^
     b2c:	3931676e 	ldmdbcc	r1!, {r1, r2, r3, r5, r6, r8, r9, sl, sp, lr}
     b30:	432f3032 	teqmi	pc, #50	; 0x32
     b34:	30343253 	eorscc	r3, r4, r3, asr r2
     b38:	632f584c 	teqvs	pc, #76, 16	; 0x4c0000
     b3c:	30343273 	eorscc	r3, r4, r3, ror r2
     b40:	322d786c 	eorcc	r7, sp, #108, 16	; 0x6c0000
     b44:	72707330 	rsbsvc	r7, r0, #48, 6	; 0xc0000000
     b48:	62696c2f 	rsbvs	r6, r9, #12032	; 0x2f00
     b4c:	692f6970 	stmdbvs	pc!, {r4, r5, r6, r8, fp, sp, lr}	; <UNPREDICTABLE>
     b50:	756c636e 	strbvc	r6, [ip, #-878]!	; 0x36e
     b54:	00006564 	andeq	r6, r0, r4, ror #10
     b58:	61747363 	cmnvs	r4, r3, ror #6
     b5c:	632e7472 	teqvs	lr, #1912602624	; 0x72000000
     b60:	00000100 	andeq	r0, r0, r0, lsl #2
     b64:	2e697072 	mcrcs	0, 3, r7, cr9, cr2, {3}
     b68:	00020068 	andeq	r0, r2, r8, rrx
     b6c:	05000000 	streq	r0, [r0, #-0]
     b70:	00948002 	addseq	r8, r4, r2
     b74:	010c0300 	mrseq	r0, LR_mon
     b78:	2d2f3132 	stfcss	f3, [pc, #-200]!	; ab8 <__code_start__-0x7548>
     b7c:	0402002f 	streq	r0, [r2], #-47	; 0x2f
     b80:	09034901 	stmdbeq	r3, {r0, r8, fp, lr}
     b84:	2e0d034a 	cdpcs	3, 0, cr0, cr13, cr10, {2}
     b88:	0006022f 	andeq	r0, r6, pc, lsr #4
     b8c:	00a20101 	adceq	r0, r2, r1, lsl #2
     b90:	00020000 	andeq	r0, r2, r0
     b94:	0000008e 	andeq	r0, r0, lr, lsl #1
     b98:	0efb0102 	cdpeq	1, 15, cr0, cr11, cr2, {0}
     b9c:	0101000d 	tsteq	r1, sp
     ba0:	00000101 	andeq	r0, r0, r1, lsl #2
     ba4:	00000100 	andeq	r0, r0, r0, lsl #2
     ba8:	61747301 	cmnvs	r4, r1, lsl #6
     bac:	732d6666 	teqvc	sp, #106954752	; 0x6600000
     bb0:	2f006372 	svccs	0x00006372
     bb4:	72657355 	rsbvc	r7, r5, #1409286145	; 0x54000001
     bb8:	72622f73 	rsbvc	r2, r2, #460	; 0x1cc
     bbc:	6a6e6169 	bvs	1b99168 <__bss_end__+0x1b8eb38>
     bc0:	442f6e75 	strtmi	r6, [pc], #-3701	; bc8 <__code_start__-0x7438>
     bc4:	746b7365 	strbtvc	r7, [fp], #-869	; 0x365
     bc8:	732f706f 	teqvc	pc, #111	; 0x6f
     bcc:	6f6f6863 	svcvs	0x006f6863
     bd0:	70532f6c 	subsvc	r2, r3, ip, ror #30
     bd4:	676e6972 			; <UNDEFINED> instruction: 0x676e6972
     bd8:	30323931 	eorscc	r3, r2, r1, lsr r9
     bdc:	3253432f 	subscc	r4, r3, #-1140850688	; 0xbc000000
     be0:	584c3034 	stmdapl	ip, {r2, r4, r5, ip, sp}^
     be4:	3273632f 	rsbscc	r6, r3, #-1140850688	; 0xbc000000
     be8:	786c3034 	stmdavc	ip!, {r2, r4, r5, ip, sp}^
     bec:	7330322d 	teqvc	r0, #-805306366	; 0xd0000002
     bf0:	6c2f7270 	sfmvs	f7, 4, [pc], #-448	; a38 <__code_start__-0x75c8>
     bf4:	69706269 	ldmdbvs	r0!, {r0, r3, r5, r6, r9, sp, lr}^
     bf8:	636e692f 	cmnvs	lr, #770048	; 0xbc000
     bfc:	6564756c 	strbvs	r7, [r4, #-1388]!	; 0x56c
     c00:	65640000 	strbvs	r0, [r4, #-0]!
     c04:	6c756166 	ldfvse	f6, [r5], #-408	; 0xfffffe68
     c08:	61682d74 	smcvs	33492	; 0x82d4
     c0c:	656c646e 	strbvs	r6, [ip, #-1134]!	; 0x46e
     c10:	61662d72 	smcvs	25298	; 0x62d2
     c14:	632e7473 	teqvs	lr, #1929379840	; 0x73000000
     c18:	00000100 	andeq	r0, r0, r0, lsl #2
     c1c:	2e697072 	mcrcs	0, 3, r7, cr9, cr2, {3}
     c20:	00020068 	andeq	r0, r2, r8, rrx
     c24:	05000000 	streq	r0, [r0, #-0]
     c28:	0094b802 	addseq	fp, r4, r2, lsl #16
     c2c:	02661300 	rsbeq	r1, r6, #0, 6
     c30:	0101001c 	tsteq	r1, ip, lsl r0
     c34:	000000a3 	andeq	r0, r0, r3, lsr #1
     c38:	008f0002 	addeq	r0, pc, r2
     c3c:	01020000 	mrseq	r0, (UNDEF: 2)
     c40:	000d0efb 	strdeq	r0, [sp], -fp
     c44:	01010101 	tsteq	r1, r1, lsl #2
     c48:	01000000 	mrseq	r0, (UNDEF: 0)
     c4c:	73010000 	movwvc	r0, #4096	; 0x1000
     c50:	66666174 			; <UNDEFINED> instruction: 0x66666174
     c54:	6372732d 	cmnvs	r2, #-1275068416	; 0xb4000000
     c58:	73552f00 	cmpvc	r5, #0, 30
     c5c:	2f737265 	svccs	0x00737265
     c60:	61697262 	cmnvs	r9, r2, ror #4
     c64:	6e756a6e 	vsubvs.f32	s13, s10, s29
     c68:	7365442f 	cmnvc	r5, #788529152	; 0x2f000000
     c6c:	706f746b 	rsbvc	r7, pc, fp, ror #8
     c70:	6863732f 	stmdavs	r3!, {r0, r1, r2, r3, r5, r8, r9, ip, sp, lr}^
     c74:	2f6c6f6f 	svccs	0x006c6f6f
     c78:	69727053 	ldmdbvs	r2!, {r0, r1, r4, r6, ip, sp, lr}^
     c7c:	3931676e 	ldmdbcc	r1!, {r1, r2, r3, r5, r6, r8, r9, sl, sp, lr}
     c80:	432f3032 	teqmi	pc, #50	; 0x32
     c84:	30343253 	eorscc	r3, r4, r3, asr r2
     c88:	632f584c 	teqvs	pc, #76, 16	; 0x4c0000
     c8c:	30343273 	eorscc	r3, r4, r3, ror r2
     c90:	322d786c 	eorcc	r7, sp, #108, 16	; 0x6c0000
     c94:	72707330 	rsbsvc	r7, r0, #48, 6	; 0xc0000000
     c98:	62696c2f 	rsbvs	r6, r9, #12032	; 0x2f00
     c9c:	692f6970 	stmdbvs	pc!, {r4, r5, r6, r8, fp, sp, lr}	; <UNPREDICTABLE>
     ca0:	756c636e 	strbvc	r6, [ip, #-878]!	; 0x36e
     ca4:	00006564 	andeq	r6, r0, r4, ror #10
     ca8:	61666564 	cmnvs	r6, r4, ror #10
     cac:	2d746c75 	ldclcs	12, cr6, [r4, #-468]!	; 0xfffffe2c
     cb0:	646e6168 	strbtvs	r6, [lr], #-360	; 0x168
     cb4:	2d72656c 	cfldr64cs	mvdx6, [r2, #-432]!	; 0xfffffe50
     cb8:	65736572 	ldrbvs	r6, [r3, #-1394]!	; 0x572
     cbc:	00632e74 	rsbeq	r2, r3, r4, ror lr
     cc0:	72000001 	andvc	r0, r0, #1
     cc4:	682e6970 	stmdavs	lr!, {r4, r5, r6, r8, fp, sp, lr}
     cc8:	00000200 	andeq	r0, r0, r0, lsl #4
     ccc:	02050000 	andeq	r0, r5, #0
     cd0:	000094fc 	strdeq	r9, [r0], -ip
     cd4:	1c026613 	stcne	6, cr6, [r2], {19}
     cd8:	ac010100 	stfges	f0, [r1], {-0}
     cdc:	02000000 	andeq	r0, r0, #0
     ce0:	00009800 	andeq	r9, r0, r0, lsl #16
     ce4:	fb010200 	blx	414ee <__bss_end__+0x36ebe>
     ce8:	01000d0e 	tsteq	r0, lr, lsl #26
     cec:	00010101 	andeq	r0, r1, r1, lsl #2
     cf0:	00010000 	andeq	r0, r1, r0
     cf4:	74730100 	ldrbtvc	r0, [r3], #-256	; 0x100
     cf8:	2d666661 	stclcs	6, cr6, [r6, #-388]!	; 0xfffffe7c
     cfc:	00637273 	rsbeq	r7, r3, r3, ror r2
     d00:	6573552f 	ldrbvs	r5, [r3, #-1327]!	; 0x52f
     d04:	622f7372 	eorvs	r7, pc, #-939524095	; 0xc8000001
     d08:	6e616972 	mcrvs	9, 3, r6, cr1, cr2, {3}
     d0c:	2f6e756a 	svccs	0x006e756a
     d10:	6b736544 	blvs	1cda228 <__bss_end__+0x1ccfbf8>
     d14:	2f706f74 	svccs	0x00706f74
     d18:	6f686373 	svcvs	0x00686373
     d1c:	532f6c6f 	teqpl	pc, #28416	; 0x6f00
     d20:	6e697270 	mcrvs	2, 3, r7, cr9, cr0, {3}
     d24:	32393167 	eorscc	r3, r9, #-1073741799	; 0xc0000019
     d28:	53432f30 	movtpl	r2, #16176	; 0x3f30
     d2c:	4c303432 	cfldrsmi	mvf3, [r0], #-200	; 0xffffff38
     d30:	73632f58 	cmnvc	r3, #88, 30	; 0x160
     d34:	6c303432 	cfldrsvs	mvf3, [r0], #-200	; 0xffffff38
     d38:	30322d78 	eorscc	r2, r2, r8, ror sp
     d3c:	2f727073 	svccs	0x00727073
     d40:	7062696c 	rsbvc	r6, r2, ip, ror #18
     d44:	6e692f69 	cdpvs	15, 6, cr2, cr9, cr9, {3}
     d48:	64756c63 	ldrbtvs	r6, [r5], #-3171	; 0xc63
     d4c:	64000065 	strvs	r0, [r0], #-101	; 0x65
     d50:	75616665 	strbvc	r6, [r1, #-1637]!	; 0x665
     d54:	682d746c 	stmdavs	sp!, {r2, r3, r5, r6, sl, ip, sp, lr}
     d58:	6c646e61 	stclvs	14, cr6, [r4], #-388	; 0xfffffe7c
     d5c:	752d7265 	strvc	r7, [sp, #-613]!	; 0x265
     d60:	6665646e 	strbtvs	r6, [r5], -lr, ror #8
     d64:	64656e69 	strbtvs	r6, [r5], #-3689	; 0xe69
     d68:	736e692d 	cmnvc	lr, #737280	; 0xb4000
     d6c:	00632e74 	rsbeq	r2, r3, r4, ror lr
     d70:	72000001 	andvc	r0, r0, #1
     d74:	682e6970 	stmdavs	lr!, {r4, r5, r6, r8, fp, sp, lr}
     d78:	00000200 	andeq	r0, r0, r0, lsl #4
     d7c:	02050000 	andeq	r0, r5, #0
     d80:	00009540 	andeq	r9, r0, r0, asr #10
     d84:	1c026613 	stcne	6, cr6, [r2], {19}
     d88:	47010100 	strmi	r0, [r1, -r0, lsl #2]
     d8c:	02000000 	andeq	r0, r0, #0
     d90:	00003300 	andeq	r3, r0, r0, lsl #6
     d94:	fb010200 	blx	4159e <__bss_end__+0x36f6e>
     d98:	01000d0e 	tsteq	r0, lr, lsl #26
     d9c:	00010101 	andeq	r0, r1, r1, lsl #2
     da0:	00010000 	andeq	r0, r1, r0
     da4:	74730100 	ldrbtvc	r0, [r3], #-256	; 0x100
     da8:	2d666661 	stclcs	6, cr6, [r6, #-388]!	; 0xfffffe7c
     dac:	00637273 	rsbeq	r7, r3, r3, ror r2
     db0:	66656400 	strbtvs	r6, [r5], -r0, lsl #8
     db4:	746c7561 	strbtvc	r7, [ip], #-1377	; 0x561
     db8:	6e61682d 	cdpvs	8, 6, cr6, cr1, cr13, {1}
     dbc:	72656c64 	rsbvc	r6, r5, #100, 24	; 0x6400
     dc0:	00632e73 	rsbeq	r2, r3, r3, ror lr
     dc4:	00000001 	andeq	r0, r0, r1
     dc8:	84020500 	strhi	r0, [r2], #-1280	; 0x500
     dcc:	15000095 	strne	r0, [r0, #-149]	; 0x95
     dd0:	0002022f 	andeq	r0, r2, pc, lsr #4
     dd4:	00c90101 	sbceq	r0, r9, r1, lsl #2
     dd8:	00020000 	andeq	r0, r2, r0
     ddc:	0000009a 	muleq	r0, sl, r0
     de0:	0efb0102 	cdpeq	1, 15, cr0, cr11, cr2, {0}
     de4:	0101000d 	tsteq	r1, sp
     de8:	00000101 	andeq	r0, r0, r1, lsl #2
     dec:	00000100 	andeq	r0, r0, r0, lsl #2
     df0:	61747301 	cmnvs	r4, r1, lsl #6
     df4:	732d6666 	teqvc	sp, #106954752	; 0x6600000
     df8:	2f006372 	svccs	0x00006372
     dfc:	72657355 	rsbvc	r7, r5, #1409286145	; 0x54000001
     e00:	72622f73 	rsbvc	r2, r2, #460	; 0x1cc
     e04:	6a6e6169 	bvs	1b993b0 <__bss_end__+0x1b8ed80>
     e08:	442f6e75 	strtmi	r6, [pc], #-3701	; e10 <__code_start__-0x71f0>
     e0c:	746b7365 	strbtvc	r7, [fp], #-869	; 0x365
     e10:	732f706f 	teqvc	pc, #111	; 0x6f
     e14:	6f6f6863 	svcvs	0x006f6863
     e18:	70532f6c 	subsvc	r2, r3, ip, ror #30
     e1c:	676e6972 			; <UNDEFINED> instruction: 0x676e6972
     e20:	30323931 	eorscc	r3, r2, r1, lsr r9
     e24:	3253432f 	subscc	r4, r3, #-1140850688	; 0xbc000000
     e28:	584c3034 	stmdapl	ip, {r2, r4, r5, ip, sp}^
     e2c:	3273632f 	rsbscc	r6, r3, #-1140850688	; 0xbc000000
     e30:	786c3034 	stmdavc	ip!, {r2, r4, r5, ip, sp}^
     e34:	7330322d 	teqvc	r0, #-805306366	; 0xd0000002
     e38:	6c2f7270 	sfmvs	f7, 4, [pc], #-448	; c80 <__code_start__-0x7380>
     e3c:	69706269 	ldmdbvs	r0!, {r0, r3, r5, r6, r9, sp, lr}^
     e40:	636e692f 	cmnvs	lr, #770048	; 0xbc000
     e44:	6564756c 	strbvs	r7, [r4, #-1388]!	; 0x56c
     e48:	6e690000 	cdpvs	0, 6, cr0, cr9, cr0, {0}
     e4c:	72726574 	rsbsvc	r6, r2, #116, 10	; 0x1d000000
     e50:	73747075 	cmnvc	r4, #117	; 0x75
     e54:	632e632d 	teqvs	lr, #-1275068416	; 0xb4000000
     e58:	00000100 	andeq	r0, r0, r0, lsl #2
     e5c:	2d697072 	stclcs	0, cr7, [r9, #-456]!	; 0xfffffe38
     e60:	65746e69 	ldrbvs	r6, [r4, #-3689]!	; 0xe69
     e64:	70757272 	rsbsvc	r7, r5, r2, ror r2
     e68:	682e7374 	stmdavs	lr!, {r2, r4, r5, r6, r8, r9, ip, sp, lr}
     e6c:	00000200 	andeq	r0, r0, r0, lsl #4
     e70:	2e697072 	mcrcs	0, 3, r7, cr9, cr2, {3}
     e74:	00020068 	andeq	r0, r2, r8, rrx
     e78:	05000000 	streq	r0, [r0, #-0]
     e7c:	00958c02 	addseq	r8, r5, r2, lsl #24
     e80:	011a0300 	tsteq	sl, r0, lsl #6
     e84:	67672f31 			; <UNDEFINED> instruction: 0x67672f31
     e88:	2d2f8336 	stccs	3, cr8, [pc, #-216]!	; db8 <__code_start__-0x7248>
     e8c:	02040200 	andeq	r0, r4, #0, 4
     e90:	0402002f 	streq	r0, [r2], #-47	; 0x2f
     e94:	02006502 	andeq	r6, r0, #8388608	; 0x800000
     e98:	2e060104 	adfcss	f0, f6, f4
     e9c:	0a024c06 	beq	93ebc <__bss_end__+0x8988c>
     ea0:	a2010100 	andge	r0, r1, #0, 2
     ea4:	02000000 	andeq	r0, r0, #0
     ea8:	00008000 	andeq	r8, r0, r0
     eac:	fb010200 	blx	416b6 <__bss_end__+0x37086>
     eb0:	01000d0e 	tsteq	r0, lr, lsl #26
     eb4:	00010101 	andeq	r0, r1, r1, lsl #2
     eb8:	00010000 	andeq	r0, r1, r0
     ebc:	74730100 	ldrbtvc	r0, [r3], #-256	; 0x100
     ec0:	2d666661 	stclcs	6, cr6, [r6, #-388]!	; 0xfffffe7c
     ec4:	00637273 	rsbeq	r7, r3, r3, ror r2
     ec8:	6573552f 	ldrbvs	r5, [r3, #-1327]!	; 0x52f
     ecc:	622f7372 	eorvs	r7, pc, #-939524095	; 0xc8000001
     ed0:	6e616972 	mcrvs	9, 3, r6, cr1, cr2, {3}
     ed4:	2f6e756a 	svccs	0x006e756a
     ed8:	6b736544 	blvs	1cda3f0 <__bss_end__+0x1ccfdc0>
     edc:	2f706f74 	svccs	0x00706f74
     ee0:	6f686373 	svcvs	0x00686373
     ee4:	532f6c6f 	teqpl	pc, #28416	; 0x6f00
     ee8:	6e697270 	mcrvs	2, 3, r7, cr9, cr0, {3}
     eec:	32393167 	eorscc	r3, r9, #-1073741799	; 0xc0000019
     ef0:	53432f30 	movtpl	r2, #16176	; 0x3f30
     ef4:	4c303432 	cfldrsmi	mvf3, [r0], #-200	; 0xffffff38
     ef8:	73632f58 	cmnvc	r3, #88, 30	; 0x160
     efc:	6c303432 	cfldrsvs	mvf3, [r0], #-200	; 0xffffff38
     f00:	30322d78 	eorscc	r2, r2, r8, ror sp
     f04:	2f727073 	svccs	0x00727073
     f08:	7062696c 	rsbvc	r6, r2, ip, ror #18
     f0c:	6e692f69 	cdpvs	15, 6, cr2, cr9, cr9, {3}
     f10:	64756c63 	ldrbtvs	r6, [r5], #-3171	; 0xc63
     f14:	72000065 	andvc	r0, r0, #101	; 0x65
     f18:	6f6f6265 	svcvs	0x006f6265
     f1c:	00632e74 	rsbeq	r2, r3, r4, ror lr
     f20:	72000001 	andvc	r0, r0, #1
     f24:	682e6970 	stmdavs	lr!, {r4, r5, r6, r8, fp, sp, lr}
     f28:	00000200 	andeq	r0, r0, r0, lsl #4
     f2c:	02050000 	andeq	r0, r5, #0
     f30:	000095f8 	strdeq	r9, [r0], -r8
     f34:	14010d03 	strne	r0, [r1], #-3331	; 0xd03
     f38:	15852f31 	strne	r2, [r5, #3889]	; 0xf31
     f3c:	2f4d4b2f 	svccs	0x004d4b2f
     f40:	67523567 	ldrbvs	r3, [r2, -r7, ror #10]
     f44:	01001002 	tsteq	r0, r2
     f48:	0000ae01 	andeq	sl, r0, r1, lsl #28
     f4c:	7f000200 	svcvc	0x00000200
     f50:	02000000 	andeq	r0, r0, #0
     f54:	0d0efb01 	vstreq	d15, [lr, #-4]
     f58:	01010100 	mrseq	r0, (UNDEF: 17)
     f5c:	00000001 	andeq	r0, r0, r1
     f60:	01000001 	tsteq	r0, r1
     f64:	66617473 			; <UNDEFINED> instruction: 0x66617473
     f68:	72732d66 	rsbsvc	r2, r3, #6528	; 0x1980
     f6c:	552f0063 	strpl	r0, [pc, #-99]!	; f11 <__code_start__-0x70ef>
     f70:	73726573 	cmnvc	r2, #482344960	; 0x1cc00000
     f74:	6972622f 	ldmdbvs	r2!, {r0, r1, r2, r3, r5, r9, sp, lr}^
     f78:	756a6e61 	strbvc	r6, [sl, #-3681]!	; 0xe61
     f7c:	65442f6e 	strbvs	r2, [r4, #-3950]	; 0xf6e
     f80:	6f746b73 	svcvs	0x00746b73
     f84:	63732f70 	cmnvs	r3, #112, 30	; 0x1c0
     f88:	6c6f6f68 	stclvs	15, cr6, [pc], #-416	; df0 <__code_start__-0x7210>
     f8c:	7270532f 	rsbsvc	r5, r0, #-1140850688	; 0xbc000000
     f90:	31676e69 	cmncc	r7, r9, ror #28
     f94:	2f303239 	svccs	0x00303239
     f98:	34325343 	ldrtcc	r5, [r2], #-835	; 0x343
     f9c:	2f584c30 	svccs	0x00584c30
     fa0:	34327363 	ldrtcc	r7, [r2], #-867	; 0x363
     fa4:	2d786c30 	ldclcs	12, cr6, [r8, #-192]!	; 0xffffff40
     fa8:	70733032 	rsbsvc	r3, r3, r2, lsr r0
     fac:	696c2f72 	stmdbvs	ip!, {r1, r4, r5, r6, r8, r9, sl, fp, sp}^
     fb0:	2f697062 	svccs	0x00697062
     fb4:	6c636e69 	stclvs	14, cr6, [r3], #-420	; 0xfffffe5c
     fb8:	00656475 	rsbeq	r6, r5, r5, ror r4
     fbc:	6d697400 	cfstrdvs	mvd7, [r9, #-0]
     fc0:	632e7265 	teqvs	lr, #1342177286	; 0x50000006
     fc4:	00000100 	andeq	r0, r0, r0, lsl #2
     fc8:	2e697072 	mcrcs	0, 3, r7, cr9, cr2, {3}
     fcc:	00020068 	andeq	r0, r2, r8, rrx
     fd0:	05000000 	streq	r0, [r0, #-0]
     fd4:	00966c02 	addseq	r6, r6, r2, lsl #24
     fd8:	2f141600 	svccs	0x00141600
     fdc:	0402002d 	streq	r0, [r2], #-45	; 0x2d
     fe0:	062e0601 	strteq	r0, [lr], -r1, lsl #12
     fe4:	4b2f316d 	blmi	bcd5a0 <__bss_end__+0xbc2f70>
     fe8:	4b2f314d 	blmi	bcd524 <__bss_end__+0xbc2ef4>
     fec:	4c4b4c30 	mcrrmi	12, 3, r4, fp, cr0
     ff0:	2f2f6a2f 	svccs	0x002f6a2f
     ff4:	08022f84 	stmdaeq	r2, {r2, r7, r8, r9, sl, fp, sp}
     ff8:	48010100 	stmdami	r1, {r8}
     ffc:	02000001 	andeq	r0, r0, #1
    1000:	00010200 	andeq	r0, r1, r0, lsl #4
    1004:	fb010200 	blx	4180e <__bss_end__+0x371de>
    1008:	01000d0e 	tsteq	r0, lr, lsl #26
    100c:	00010101 	andeq	r0, r1, r1, lsl #2
    1010:	00010000 	andeq	r0, r1, r0
    1014:	752f0100 	strvc	r0, [pc, #-256]!	; f1c <__code_start__-0x70e4>
    1018:	692f7273 	stmdbvs	pc!, {r0, r1, r4, r5, r6, r9, ip, sp, lr}	; <UNPREDICTABLE>
    101c:	756c636e 	strbvc	r6, [ip, #-878]!	; 0x36e
    1020:	6e2f6564 	cfsh64vs	mvdx6, mvdx15, #52
    1024:	696c7765 	stmdbvs	ip!, {r0, r2, r5, r6, r8, r9, sl, ip, sp, lr}^
    1028:	79732f62 	ldmdbvc	r3!, {r1, r5, r6, r8, r9, sl, fp, sp}^
    102c:	752f0073 	strvc	r0, [pc, #-115]!	; fc1 <__code_start__-0x703f>
    1030:	6c2f7273 	sfmvs	f7, 4, [pc], #-460	; e6c <__code_start__-0x7194>
    1034:	672f6269 	strvs	r6, [pc, -r9, ror #4]!
    1038:	612f6363 	teqvs	pc, r3, ror #6
    103c:	6e2d6d72 	mcrvs	13, 1, r6, cr13, cr2, {3}
    1040:	2d656e6f 	stclcs	14, cr6, [r5, #-444]!	; 0xfffffe44
    1044:	69626165 	stmdbvs	r2!, {r0, r2, r5, r6, r8, sp, lr}^
    1048:	332e362f 	teqcc	lr, #49283072	; 0x2f00000
    104c:	692f312e 	stmdbvs	pc!, {r1, r2, r3, r5, r8, ip, sp}	; <UNPREDICTABLE>
    1050:	756c636e 	strbvc	r6, [ip, #-878]!	; 0x36e
    1054:	2f006564 	svccs	0x00006564
    1058:	656d6f68 	strbvs	r6, [sp, #-3944]!	; 0xf68
    105c:	676e652f 	strbvs	r6, [lr, -pc, lsr #10]!
    1060:	2f72656c 	svccs	0x0072656c
    1064:	73616c63 	cmnvc	r1, #25344	; 0x6300
    1068:	73632f73 	cmnvc	r3, #460	; 0x1cc
    106c:	6c303432 	cfldrsvs	mvf3, [r0], #-200	; 0xffffff38
    1070:	30322d78 	eorscc	r2, r2, r8, ror sp
    1074:	2f727073 	svccs	0x00727073
    1078:	62696c2f 	rsbvs	r6, r9, #12032	; 0x2f00
    107c:	2f006970 	svccs	0x00006970
    1080:	656d6f68 	strbvs	r6, [sp, #-3944]!	; 0xf68
    1084:	676e652f 	strbvs	r6, [lr, -pc, lsr #10]!
    1088:	2f72656c 	svccs	0x0072656c
    108c:	73616c63 	cmnvc	r1, #25344	; 0x6300
    1090:	73632f73 	cmnvc	r3, #460	; 0x1cc
    1094:	6c303432 	cfldrsvs	mvf3, [r0], #-200	; 0xffffff38
    1098:	30322d78 	eorscc	r2, r2, r8, ror sp
    109c:	2f727073 	svccs	0x00727073
    10a0:	62696c2f 	rsbvs	r6, r9, #12032	; 0x2f00
    10a4:	732f6970 	teqvc	pc, #112, 18	; 0x1c0000
    10a8:	66666174 			; <UNDEFINED> instruction: 0x66666174
    10ac:	6372732d 	cmnvs	r2, #-1275068416	; 0xb4000000
    10b0:	61750000 	cmnvs	r5, r0
    10b4:	632e7472 	teqvs	lr, #1912602624	; 0x72000000
    10b8:	00000000 	andeq	r0, r0, r0
    10bc:	6b636f6c 	blvs	18dce74 <__bss_end__+0x18d2844>
    10c0:	0100682e 	tsteq	r0, lr, lsr #16
    10c4:	745f0000 	ldrbvc	r0, [pc], #-0	; 10cc <__code_start__-0x6f34>
    10c8:	73657079 	cmnvc	r5, #121	; 0x79
    10cc:	0100682e 	tsteq	r0, lr, lsr #16
    10d0:	74730000 	ldrbtvc	r0, [r3], #-0
    10d4:	66656464 	strbtvs	r6, [r5], -r4, ror #8
    10d8:	0200682e 	andeq	r6, r0, #3014656	; 0x2e0000
    10dc:	65720000 	ldrbvs	r0, [r2, #-0]!
    10e0:	2e746e65 	cdpcs	14, 7, cr6, cr4, cr5, {3}
    10e4:	00010068 	andeq	r0, r1, r8, rrx
    10e8:	69707200 	ldmdbvs	r0!, {r9, ip, sp, lr}^
    10ec:	0300682e 	movweq	r6, #2094	; 0x82e
    10f0:	61750000 	cmnvs	r5, r0
    10f4:	682e7472 	stmdavs	lr!, {r1, r4, r5, r6, sl, ip, sp, lr}
    10f8:	00000400 	andeq	r0, r0, r0, lsl #8
    10fc:	6f697067 	svcvs	0x00697067
    1100:	0400682e 	streq	r6, [r0], #-2094	; 0x82e
    1104:	00000000 	andeq	r0, r0, r0
    1108:	97680205 	strbls	r0, [r8, -r5, lsl #4]!
    110c:	2c030000 	stccs	0, cr0, [r3], {-0}
    1110:	0c036701 	stceq	7, cr6, [r3], {1}
    1114:	6867359e 	stmdavs	r7!, {r1, r2, r3, r4, r7, r8, sl, ip, sp}^
    1118:	0c036835 	stceq	8, cr6, [r3], {53}	; 0x35
    111c:	696b852e 	stmdbvs	fp!, {r1, r2, r3, r5, r8, sl, pc}^
    1120:	660c0369 	strvs	r0, [ip], -r9, ror #6
    1124:	4208676b 	andmi	r6, r8, #28049408	; 0x1ac0000
    1128:	364b6834 			; <UNDEFINED> instruction: 0x364b6834
    112c:	002f8768 	eoreq	r8, pc, r8, ror #14
    1130:	2f010402 	svccs	0x00010402
    1134:	67306768 	ldrvs	r6, [r0, -r8, ror #14]!
    1138:	0402004b 	streq	r0, [r2], #-75	; 0x4b
    113c:	67682f01 	strbvs	r2, [r8, -r1, lsl #30]!
    1140:	06022e69 	streq	r2, [r2], -r9, ror #28
    1144:	2b010100 	blcs	4154c <__bss_end__+0x36f1c>
    1148:	02000001 	andeq	r0, r0, #1
    114c:	0000f800 	andeq	pc, r0, r0, lsl #16
    1150:	fb010200 	blx	4195a <__bss_end__+0x3732a>
    1154:	01000d0e 	tsteq	r0, lr, lsl #26
    1158:	00010101 	andeq	r0, r1, r1, lsl #2
    115c:	00010000 	andeq	r0, r1, r0
    1160:	752f0100 	strvc	r0, [pc, #-256]!	; 1068 <__code_start__-0x6f98>
    1164:	692f7273 	stmdbvs	pc!, {r0, r1, r4, r5, r6, r9, ip, sp, lr}	; <UNPREDICTABLE>
    1168:	756c636e 	strbvc	r6, [ip, #-878]!	; 0x36e
    116c:	6e2f6564 	cfsh64vs	mvdx6, mvdx15, #52
    1170:	696c7765 	stmdbvs	ip!, {r0, r2, r5, r6, r8, r9, sl, ip, sp, lr}^
    1174:	79732f62 	ldmdbvc	r3!, {r1, r5, r6, r8, r9, sl, fp, sp}^
    1178:	752f0073 	strvc	r0, [pc, #-115]!	; 110d <__code_start__-0x6ef3>
    117c:	6c2f7273 	sfmvs	f7, 4, [pc], #-460	; fb8 <__code_start__-0x7048>
    1180:	672f6269 	strvs	r6, [pc, -r9, ror #4]!
    1184:	612f6363 	teqvs	pc, r3, ror #6
    1188:	6e2d6d72 	mcrvs	13, 1, r6, cr13, cr2, {3}
    118c:	2d656e6f 	stclcs	14, cr6, [r5, #-444]!	; 0xfffffe44
    1190:	69626165 	stmdbvs	r2!, {r0, r2, r5, r6, r8, sp, lr}^
    1194:	332e362f 	teqcc	lr, #49283072	; 0x2f00000
    1198:	692f312e 	stmdbvs	pc!, {r1, r2, r3, r5, r8, ip, sp}	; <UNPREDICTABLE>
    119c:	756c636e 	strbvc	r6, [ip, #-878]!	; 0x36e
    11a0:	2f006564 	svccs	0x00006564
    11a4:	656d6f68 	strbvs	r6, [sp, #-3944]!	; 0xf68
    11a8:	676e652f 	strbvs	r6, [lr, -pc, lsr #10]!
    11ac:	2f72656c 	svccs	0x0072656c
    11b0:	73616c63 	cmnvc	r1, #25344	; 0x6300
    11b4:	73632f73 	cmnvc	r3, #460	; 0x1cc
    11b8:	6c303432 	cfldrsvs	mvf3, [r0], #-200	; 0xffffff38
    11bc:	30322d78 	eorscc	r2, r2, r8, ror sp
    11c0:	2f727073 	svccs	0x00727073
    11c4:	62696c2f 	rsbvs	r6, r9, #12032	; 0x2f00
    11c8:	2f006970 	svccs	0x00006970
    11cc:	656d6f68 	strbvs	r6, [sp, #-3944]!	; 0xf68
    11d0:	676e652f 	strbvs	r6, [lr, -pc, lsr #10]!
    11d4:	2f72656c 	svccs	0x0072656c
    11d8:	73616c63 	cmnvc	r1, #25344	; 0x6300
    11dc:	73632f73 	cmnvc	r3, #460	; 0x1cc
    11e0:	6c303432 	cfldrsvs	mvf3, [r0], #-200	; 0xffffff38
    11e4:	30322d78 	eorscc	r2, r2, r8, ror sp
    11e8:	2f727073 	svccs	0x00727073
    11ec:	62696c2f 	rsbvs	r6, r9, #12032	; 0x2f00
    11f0:	732f6970 	teqvc	pc, #112, 18	; 0x1c0000
    11f4:	66666174 			; <UNDEFINED> instruction: 0x66666174
    11f8:	6372732d 	cmnvs	r2, #-1275068416	; 0xb4000000
    11fc:	70670000 	rsbvc	r0, r7, r0
    1200:	632e6f69 	teqvs	lr, #420	; 0x1a4
    1204:	00000000 	andeq	r0, r0, r0
    1208:	6b636f6c 	blvs	18dcfc0 <__bss_end__+0x18d2990>
    120c:	0100682e 	tsteq	r0, lr, lsr #16
    1210:	745f0000 	ldrbvc	r0, [pc], #-0	; 1218 <__code_start__-0x6de8>
    1214:	73657079 	cmnvc	r5, #121	; 0x79
    1218:	0100682e 	tsteq	r0, lr, lsr #16
    121c:	74730000 	ldrbtvc	r0, [r3], #-0
    1220:	66656464 	strbtvs	r6, [r5], -r4, ror #8
    1224:	0200682e 	andeq	r6, r0, #3014656	; 0x2e0000
    1228:	65720000 	ldrbvs	r0, [r2, #-0]!
    122c:	2e746e65 	cdpcs	14, 7, cr6, cr4, cr5, {3}
    1230:	00010068 	andeq	r0, r1, r8, rrx
    1234:	69707200 	ldmdbvs	r0!, {r9, ip, sp, lr}^
    1238:	0300682e 	movweq	r6, #2094	; 0x82e
    123c:	70670000 	rsbvc	r0, r7, r0
    1240:	682e6f69 	stmdavs	lr!, {r0, r3, r5, r6, r8, r9, sl, fp, sp, lr}
    1244:	00000400 	andeq	r0, r0, r0, lsl #8
    1248:	02050000 	andeq	r0, r5, #0
    124c:	000098e0 	andeq	r9, r0, r0, ror #17
    1250:	13012703 	movwne	r2, #5891	; 0x1703
    1254:	f44f474c 	vst1.16	{d20}, [pc], ip
    1258:	a14c4b68 	cmpge	ip, r8, ror #22
    125c:	49136a2f 	ldmdbmi	r3, {r0, r1, r2, r3, r5, r9, fp, sp, lr}
    1260:	4913be31 	ldmdbmi	r3, {r0, r4, r5, r9, sl, fp, ip, sp, pc}
    1264:	6a2fbe31 	bvs	bf0b30 <__bss_end__+0xbe6500>
    1268:	4f484d2f 	svcmi	0x00484d2f
    126c:	2f324913 	svccs	0x00324913
    1270:	000602b7 			; <UNDEFINED> instruction: 0x000602b7
    1274:	Address 0x0000000000001274 is out of bounds.


Disassembly of section .debug_str:

00000000 <.debug_str>:
   0:	705f6e6f 	subsvc	r6, pc, pc, ror #28
   4:	65686300 	strbvs	r6, [r8, #-768]!	; 0x300
   8:	72656b63 	rsbvc	r6, r5, #101376	; 0x18c00
   c:	7300745f 	movwvc	r7, #1119	; 0x45f
  10:	74726f68 	ldrbtvc	r6, [r2], #-3944	; 0xf68
  14:	746e6920 	strbtvc	r6, [lr], #-2336	; 0x920
  18:	69777300 	ldmdbvs	r7!, {r8, r9, ip, sp, lr}^
  1c:	65686374 	strbvs	r6, [r8, #-884]!	; 0x374
  20:	00705f64 	rsbseq	r5, r0, r4, ror #30
  24:	5f737065 	svcpl	0x00737065
  28:	63656863 	cmnvs	r5, #6488064	; 0x630000
  2c:	552f006b 	strpl	r0, [pc, #-107]!	; ffffffc9 <__bss_end__+0xffff5999>
  30:	73726573 	cmnvc	r2, #482344960	; 0x1cc00000
  34:	6972622f 	ldmdbvs	r2!, {r0, r1, r2, r3, r5, r9, sp, lr}^
  38:	756a6e61 	strbvc	r6, [sl, #-3681]!	; 0xe61
  3c:	65442f6e 	strbvs	r2, [r4, #-3950]	; 0xf6e
  40:	6f746b73 	svcvs	0x00746b73
  44:	63732f70 	cmnvs	r3, #112, 30	; 0x1c0
  48:	6c6f6f68 	stclvs	15, cr6, [pc], #-416	; fffffeb0 <__bss_end__+0xffff5880>
  4c:	7270532f 	rsbsvc	r5, r0, #-1140850688	; 0xbc000000
  50:	31676e69 	cmncc	r7, r9, ror #28
  54:	2f303239 	svccs	0x00303239
  58:	34325343 	ldrtcc	r5, [r2], #-835	; 0x343
  5c:	2f584c30 	svccs	0x00584c30
  60:	34327363 	ldrtcc	r7, [r2], #-867	; 0x363
  64:	2d786c30 	ldclcs	12, cr6, [r8, #-192]!	; 0xffffff40
  68:	70733032 	rsbsvc	r3, r3, r2, lsr r0
  6c:	616c2f72 	smcvs	49906	; 0xc2f2
  70:	312f7362 	teqcc	pc, r2, ror #6
  74:	69732d36 	ldmdbvs	r3!, {r1, r2, r4, r5, r8, sl, fp, sp}^
  78:	656c676e 	strbvs	r6, [ip, #-1902]!	; 0x76e
  7c:	6574732d 	ldrbvs	r7, [r4, #-813]!	; 0x32d
  80:	6f632f70 	svcvs	0x00632f70
  84:	6e006564 	cfsh32vs	mvfx6, mvfx0, #52
  88:	616d746f 	cmnvs	sp, pc, ror #8
  8c:	65006e69 	strvs	r6, [r0, #-3689]	; 0xe69
  90:	415f7370 	cmpmi	pc, r0, ror r3	; <UNPREDICTABLE>
  94:	6b726200 	blvs	1c9889c <__bss_end__+0x1c8e26c>
  98:	7265765f 	rsbvc	r7, r5, #99614720	; 0x5f00000
  9c:	65736f62 	ldrbvs	r6, [r3, #-3938]!	; 0xf62
  a0:	73706500 	cmnvc	r0, #0, 10
  a4:	6e00425f 	mcrvs	2, 0, r4, cr0, cr15, {2}
  a8:	6f727265 	svcvs	0x00727265
  ac:	73007372 	movwvc	r7, #882	; 0x372
  b0:	63746977 	cmnvs	r4, #1949696	; 0x1dc000
  b4:	6e6f5f68 	cdpvs	15, 6, cr5, cr15, cr8, {3}
  b8:	736e695f 	cmnvc	lr, #1556480	; 0x17c000
  bc:	006e5f74 	rsbeq	r5, lr, r4, ror pc
  c0:	69736e75 	ldmdbvs	r3!, {r0, r2, r4, r5, r6, r9, sl, fp, sp, lr}^
  c4:	64656e67 	strbtvs	r6, [r5], #-3687	; 0xe67
  c8:	61686320 	cmnvs	r8, r0, lsr #6
  cc:	6c630072 	stclvs	0, cr0, [r3], #-456	; 0xfffffe38
  d0:	5f6e6165 	svcpl	0x006e6165
  d4:	6f626572 	svcvs	0x00626572
  d8:	6900746f 	stmdbvs	r0, {r0, r1, r2, r3, r5, r6, sl, ip, sp, lr}
  dc:	5f74736e 	svcpl	0x0074736e
  e0:	6e756f63 	cdpvs	15, 7, cr6, cr5, cr3, {3}
  e4:	68730074 	ldmdavs	r3!, {r2, r4, r5, r6}^
  e8:	2074726f 	rsbscs	r7, r4, pc, ror #4
  ec:	69736e75 	ldmdbvs	r3!, {r0, r2, r4, r5, r6, r9, sl, fp, sp, lr}^
  f0:	64656e67 	strbtvs	r6, [r5], #-3687	; 0xe67
  f4:	746e6920 	strbtvc	r6, [lr], #-2336	; 0x920
  f8:	6b726200 	blvs	1c98900 <__bss_end__+0x1c8e2d0>
  fc:	7265765f 	rsbvc	r7, r5, #99614720	; 0x5f00000
 100:	65736f62 	ldrbvs	r6, [r3, #-3938]!	; 0xf62
 104:	6500705f 	strvs	r7, [r0, #-95]	; 0x5f
 108:	695f7370 	ldmdbvs	pc, {r4, r5, r6, r8, r9, ip, sp, lr}^	; <UNPREDICTABLE>
 10c:	0074696e 	rsbseq	r6, r4, lr, ror #18
 110:	55465f5f 	strbpl	r5, [r6, #-3935]	; 0xf5f
 114:	4954434e 	ldmdbmi	r4, {r1, r2, r3, r6, r8, r9, lr}^
 118:	5f5f4e4f 	svcpl	0x005f4e4f
 11c:	746e6900 	strbtvc	r6, [lr], #-2304	; 0x900
 120:	656c7265 	strbvs	r7, [ip, #-613]!	; 0x265
 124:	6e697661 	cdpvs	6, 6, cr7, cr9, cr1, {3}
 128:	00705f67 	rsbseq	r5, r0, r7, ror #30
 12c:	74736574 	ldrbtvc	r6, [r3], #-1396	; 0x574
 130:	302e3273 	eorcc	r3, lr, r3, ror r2
 134:	2d36312f 	ldfcss	f3, [r6, #-188]!	; 0xffffff44
 138:	74726170 	ldrbtvc	r6, [r2], #-368	; 0x170
 13c:	65742d32 	ldrbvs	r2, [r4, #-3378]!	; 0xd32
 140:	2e337473 	mrccs	4, 1, r7, cr3, cr3, {3}
 144:	4e470063 	cdpmi	0, 4, cr0, cr7, cr3, {3}
 148:	20432055 	subcs	r2, r3, r5, asr r0
 14c:	2e382e34 	mrccs	14, 1, r2, cr8, cr4, {1}
 150:	6d2d2033 	stcvs	0, cr2, [sp, #-204]!	; 0xffffff34
 154:	3d757063 	ldclcc	0, cr7, [r5, #-396]!	; 0xfffffe74
 158:	316d7261 	cmncc	sp, r1, ror #4
 15c:	6a363731 	bvs	d8de28 <__bss_end__+0xd837f8>
 160:	732d667a 	teqvc	sp, #127926272	; 0x7a00000
 164:	746d2d20 	strbtvc	r2, [sp], #-3360	; 0xd20
 168:	3d656e75 	stclcc	14, cr6, [r5, #-468]!	; 0xfffffe2c
 16c:	316d7261 	cmncc	sp, r1, ror #4
 170:	6a363731 	bvs	d8de3c <__bss_end__+0xd8380c>
 174:	732d667a 	teqvc	sp, #127926272	; 0x7a00000
 178:	67672d20 	strbvs	r2, [r7, -r0, lsr #26]!
 17c:	2d206264 	sfmcs	f6, 4, [r0, #-400]!	; 0xfffffe70
 180:	2d20674f 	stccs	7, cr6, [r0, #-316]!	; 0xfffffec4
 184:	3d647473 	cfstrdcc	mvd7, [r4, #-460]!	; 0xfffffe34
 188:	39756e67 	ldmdbcc	r5!, {r0, r1, r2, r5, r6, r9, sl, fp, sp, lr}^
 18c:	662d2039 			; <UNDEFINED> instruction: 0x662d2039
 190:	65657266 	strbvs	r7, [r5, #-614]!	; 0x266
 194:	6e617473 	mcrvs	4, 3, r7, cr1, cr3, {3}
 198:	676e6964 	strbvs	r6, [lr, -r4, ror #18]!
 19c:	6e662d20 	cdpvs	13, 6, cr2, cr6, cr0, {1}
 1a0:	6f742d6f 	svcvs	0x00742d6f
 1a4:	76656c70 			; <UNDEFINED> instruction: 0x76656c70
 1a8:	722d6c65 	eorvc	r6, sp, #25856	; 0x6500
 1ac:	64726f65 	ldrbtvs	r6, [r2], #-3941	; 0xf65
 1b0:	6c007265 	sfmvs	f7, 4, [r0], {101}	; 0x65
 1b4:	20676e6f 	rsbcs	r6, r7, pc, ror #28
 1b8:	676e6f6c 	strbvs	r6, [lr, -ip, ror #30]!
 1bc:	736e7520 	cmnvc	lr, #32, 10	; 0x8000000
 1c0:	656e6769 	strbvs	r6, [lr, #-1897]!	; 0x769
 1c4:	6e692064 	cdpvs	0, 6, cr2, cr9, cr4, {3}
 1c8:	70650074 	rsbvc	r0, r5, r4, ror r0
 1cc:	6b6d5f73 	blvs	1b57fa0 <__bss_end__+0x1b4d970>
 1d0:	6568635f 	strbvs	r6, [r8, #-863]!	; 0x35f
 1d4:	72656b63 	rsbvc	r6, r5, #101376	; 0x18c00
 1d8:	77736e00 	ldrbvc	r6, [r3, -r0, lsl #28]!
 1dc:	68637469 	stmdavs	r3!, {r0, r3, r5, r6, sl, ip, sp, lr}^
 1e0:	73007365 	movwvc	r7, #869	; 0x365
 1e4:	74657a69 	strbtvc	r7, [r5], #-2665	; 0xa69
 1e8:	00657079 	rsbeq	r7, r5, r9, ror r0
 1ec:	676e6f6c 	strbvs	r6, [lr, -ip, ror #30]!
 1f0:	6e6f6c20 	cdpvs	12, 6, cr6, cr15, cr0, {1}
 1f4:	6e692067 	cdpvs	0, 6, cr2, cr9, cr7, {3}
 1f8:	746e0074 	strbtvc	r0, [lr], #-116	; 0x74
 1fc:	6c616972 	stclvs	9, cr6, [r1], #-456	; 0xfffffe38
 200:	77730073 			; <UNDEFINED> instruction: 0x77730073
 204:	68637469 	stmdavs	r3!, {r0, r3, r5, r6, sl, ip, sp, lr}^
 208:	6464615f 	strbtvs	r6, [r4], #-351	; 0x15f
 20c:	6e650072 	mcrvs	0, 3, r0, cr5, cr2, {3}
 210:	656c6261 	strbvs	r6, [ip, #-609]!	; 0x261
 214:	6361635f 	cmnvs	r1, #2080374785	; 0x7c000001
 218:	75006568 	strvc	r6, [r0, #-1384]	; 0x568
 21c:	33746e69 	cmncc	r4, #1680	; 0x690
 220:	00745f32 	rsbseq	r5, r4, r2, lsr pc
 224:	70696b73 	rsbvc	r6, r9, r3, ror fp
 228:	70720073 	rsbsvc	r0, r2, r3, ror r0
 22c:	65725f69 	ldrbvs	r5, [r2, #-3945]!	; 0xf69
 230:	5f746573 	svcpl	0x00746573
 234:	63747570 	cmnvs	r4, #112, 10	; 0x1c000000
 238:	74616400 	strbtvc	r6, [r1], #-1024	; 0x400
 23c:	62615f61 	rsbvs	r5, r1, #388	; 0x184
 240:	5f74726f 	svcpl	0x0074726f
 244:	74636576 	strbtvc	r6, [r3], #-1398	; 0x576
 248:	7000726f 	andvc	r7, r0, pc, ror #4
 24c:	65666572 	strbvs	r6, [r6, #-1394]!	; 0x572
 250:	5f686374 	svcpl	0x00686374
 254:	726f6261 	rsbvc	r6, pc, #268435462	; 0x10000006
 258:	65765f74 	ldrbvs	r5, [r6, #-3956]!	; 0xf74
 25c:	726f7463 	rsbvc	r7, pc, #1660944384	; 0x63000000
 260:	73617700 	cmnvc	r1, #0, 14
 264:	6265645f 	rsbvs	r6, r5, #1593835520	; 0x5f000000
 268:	645f6775 	ldrbvs	r6, [pc], #-1909	; 270 <__code_start__-0x7d90>
 26c:	66617461 	strbtvs	r7, [r1], -r1, ror #8
 270:	746c7561 	strbtvc	r7, [ip], #-1377	; 0x561
 274:	31706300 	cmncc	r0, r0, lsl #6
 278:	65642d34 	strbvs	r2, [r4, #-3380]!	; 0xd34
 27c:	2e677562 	cdpcs	5, 6, cr7, cr7, cr2, {3}
 280:	61770063 	cmnvs	r7, r3, rrx
 284:	65645f73 	strbvs	r5, [r4, #-3955]!	; 0xf73
 288:	5f677562 	svcpl	0x00677562
 28c:	74736e69 	ldrbtvc	r6, [r3], #-3689	; 0xe69
 290:	6c756166 	ldfvse	f6, [r5], #-408	; 0xfffffe68
 294:	73640074 	cmnvc	r4, #116	; 0x74
 298:	735f7263 	cmpvc	pc, #805306374	; 0x30000006
 29c:	77007465 	strvc	r7, [r0, -r5, ror #8]
 2a0:	5f307263 	svcpl	0x00307263
 2a4:	00676572 	rsbeq	r6, r7, r2, ror r5
 2a8:	30726377 	rsbscc	r6, r2, r7, ror r3
 2ac:	7465675f 	strbtvc	r6, [r5], #-1887	; 0x75f
 2b0:	696e6900 	stmdbvs	lr!, {r8, fp, sp, lr}^
 2b4:	00705f74 	rsbseq	r5, r0, r4, ror pc
 2b8:	706b7262 	rsbvc	r7, fp, r2, ror #4
 2bc:	61685f74 	smcvs	34292	; 0x85f4
 2c0:	656c646e 	strbvs	r6, [ip, #-1134]!	; 0x46e
 2c4:	63003072 	movwvs	r3, #114	; 0x72
 2c8:	5f343170 	svcpl	0x00343170
 2cc:	30726362 	rsbscc	r6, r2, r2, ror #6
 2d0:	7465735f 	strbtvc	r7, [r5], #-863	; 0x35f
 2d4:	72767700 	rsbsvc	r7, r6, #0, 14
 2d8:	61765f30 	cmnvs	r6, r0, lsr pc
 2dc:	6177006c 	cmnvs	r7, ip, rrx
 2e0:	70686374 	rsbvc	r6, r8, r4, ror r3
 2e4:	65735f74 	ldrbvs	r5, [r3, #-3956]!	; 0xf74
 2e8:	77003074 	smlsdxvc	r0, r4, r0, r3
 2ec:	5f307276 	svcpl	0x00307276
 2f0:	00746573 	rsbseq	r6, r4, r3, ror r5
 2f4:	5f6b7262 	svcpl	0x006b7262
 2f8:	725f6f6e 	subsvc	r6, pc, #440	; 0x1b8
 2fc:	655f7465 	ldrbvs	r7, [pc, #-1125]	; fffffe9f <__bss_end__+0xffff586f>
 300:	726f7272 	rsbvc	r7, pc, #536870919	; 0x20000007
 304:	31706300 	cmncc	r0, r0, lsl #6
 308:	63625f34 	cmnvs	r2, #52, 30	; 0xd0
 30c:	675f3072 			; <UNDEFINED> instruction: 0x675f3072
 310:	62007465 	andvs	r7, r0, #1694498816	; 0x65000000
 314:	74706b72 	ldrbtvc	r6, [r0], #-2930	; 0xb72
 318:	73696d5f 	cmnvc	r9, #6080	; 0x17c0
 31c:	6374616d 	cmnvs	r4, #1073741851	; 0x4000001b
 320:	65735f68 	ldrbvs	r5, [r3, #-3944]!	; 0xf68
 324:	64003074 	strvs	r3, [r0], #-116	; 0x74
 328:	5f727366 	svcpl	0x00727366
 32c:	006c6176 	rsbeq	r6, ip, r6, ror r1
 330:	72616669 	rsbvc	r6, r1, #110100480	; 0x6900000
 334:	7465675f 	strbtvc	r6, [r5], #-1887	; 0x75f
 338:	73666900 	cmnvc	r6, #0, 18
 33c:	65675f72 	strbvs	r5, [r7, #-3954]!	; 0xf72
 340:	61770074 	cmnvs	r7, r4, ror r0
 344:	70686374 	rsbvc	r6, r8, r4, ror r3
 348:	61685f74 	smcvs	34292	; 0x85f4
 34c:	656c646e 	strbvs	r6, [ip, #-1134]!	; 0x46e
 350:	62003072 	andvs	r3, r0, #114	; 0x72
 354:	74706b72 	ldrbtvc	r6, [r0], #-2930	; 0xb72
 358:	73696d5f 	cmnvc	r9, #6080	; 0x17c0
 35c:	6374616d 	cmnvs	r4, #1073741851	; 0x4000001b
 360:	69645f68 	stmdbvs	r4!, {r3, r5, r6, r8, r9, sl, fp, ip, lr}^
 364:	6c626173 	stfvse	f6, [r2], #-460	; 0xfffffe34
 368:	64003065 	strvs	r3, [r0], #-101	; 0x65
 36c:	66617461 	strbtvs	r7, [r1], -r1, ror #8
 370:	746c7561 	strbtvc	r7, [ip], #-1377	; 0x561
 374:	6f72665f 	svcvs	0x0072665f
 378:	646c5f6d 	strbtvs	r5, [ip], #-3949	; 0xf6d
 37c:	31706300 	cmncc	r0, r0, lsl #6
 380:	76625f34 	uqasxvc	r5, r2, r4
 384:	735f3072 	cmpvc	pc, #114	; 0x72
 388:	77007465 	strvc	r7, [r0, -r5, ror #8]
 38c:	645f7361 	ldrbvs	r7, [pc], #-865	; 394 <__code_start__-0x7c6c>
 390:	67756265 	ldrbvs	r6, [r5, -r5, ror #4]!
 394:	6c756166 	ldfvse	f6, [r5], #-408	; 0xfffffe68
 398:	00725f74 	rsbseq	r5, r2, r4, ror pc
 39c:	34317063 	ldrtcc	r7, [r1], #-99	; 0x63
 3a0:	616e655f 	cmnvs	lr, pc, asr r5
 3a4:	00656c62 	rsbeq	r6, r5, r2, ror #24
 3a8:	7561666e 	strbvc	r6, [r1, #-1646]!	; 0x66e
 3ac:	0073746c 	rsbseq	r7, r3, ip, ror #8
 3b0:	30727662 	rsbscc	r7, r2, r2, ror #12
 3b4:	6c61765f 	stclvs	6, cr7, [r1], #-380	; 0xfffffe84
 3b8:	73666400 	cmnvc	r6, #0, 8
 3bc:	65675f72 	strbvs	r5, [r7, #-3954]!	; 0xf72
 3c0:	79730074 	ldmdbvc	r3!, {r2, r4, r5, r6}^
 3c4:	6c616373 	stclvs	3, cr6, [r1], #-460	; 0xfffffe34
 3c8:	65765f6c 	ldrbvs	r5, [r6, #-3948]!	; 0xf6c
 3cc:	726f7463 	rsbvc	r7, pc, #1660944384	; 0x63000000
 3d0:	65727000 	ldrbvs	r7, [r2, #-0]!
 3d4:	63746566 	cmnvs	r4, #427819008	; 0x19800000
 3d8:	6c665f68 	stclvs	15, cr5, [r6], #-416	; 0xfffffe60
 3dc:	5f687375 	svcpl	0x00687375
 3e0:	00746573 	rsbseq	r6, r4, r3, ror r5
 3e4:	30726362 	rsbscc	r6, r2, r2, ror #6
 3e8:	6765725f 			; <UNDEFINED> instruction: 0x6765725f
 3ec:	6e616800 	cdpvs	8, 6, cr6, cr1, cr0, {0}
 3f0:	72656c64 	rsbvc	r6, r5, #100, 24	; 0x6400
 3f4:	7700745f 	smlsdvc	r0, pc, r4, r7	; <UNPREDICTABLE>
 3f8:	5f726166 	svcpl	0x00726166
 3fc:	00746567 	rsbseq	r6, r4, r7, ror #10
 400:	5f737973 	svcpl	0x00737973
 404:	006d756e 	rsbeq	r7, sp, lr, ror #10
 408:	706b7262 	rsbvc	r7, fp, r2, ror #4
 40c:	65735f74 	ldrbvs	r5, [r3, #-3956]!	; 0xf74
 410:	77003074 	smlsdxvc	r0, r4, r0, r3
 414:	5f307263 	svcpl	0x00307263
 418:	00746573 	rsbseq	r6, r4, r3, ror r5
 41c:	5f746e69 	svcpl	0x00746e69
 420:	74696e69 	strbtvc	r6, [r9], #-3689	; 0xe69
 424:	6e697300 	cdpvs	3, 6, cr7, cr9, cr0, {0}
 428:	5f656c67 	svcpl	0x00656c67
 42c:	70657473 	rsbvc	r7, r5, r3, ror r4
 430:	6e61685f 	mcrvs	8, 3, r6, cr1, cr15, {2}
 434:	72656c64 	rsbvc	r6, r5, #100, 24	; 0x6400
 438:	65686300 	strbvs	r6, [r8, #-768]!	; 0x300
 43c:	7a5f6b63 	bvc	17db1d0 <__bss_end__+0x17d0ba0>
 440:	006f7265 	rsbeq	r7, pc, r5, ror #4
 444:	63656863 	cmnvs	r5, #6488064	; 0x630000
 448:	6e692d6b 	cdpvs	13, 6, cr2, cr9, cr11, {3}
 44c:	6c726574 	cfldr64vs	mvdx6, [r2], #-464	; 0xfffffe30
 450:	65766165 	ldrbvs	r6, [r6, #-357]!	; 0x165
 454:	7500632e 	strvc	r6, [r0, #-814]	; 0x32e
 458:	5f726573 	svcpl	0x00726573
 45c:	6d617274 	sfmvs	f7, 2, [r1, #-464]!	; 0xfffffe30
 460:	696c6f70 	stmdbvs	ip!, {r4, r5, r6, r8, r9, sl, fp, sp, lr}^
 464:	725f656e 	subsvc	r6, pc, #461373440	; 0x1b800000
 468:	63007465 	movwvs	r7, #1125	; 0x465
 46c:	5f727370 	svcpl	0x00727370
 470:	00746567 	rsbseq	r6, r4, r7, ror #10
 474:	65707865 	ldrbvs	r7, [r0, #-2149]!	; 0x865
 478:	64657463 	strbtvs	r7, [r5], #-1123	; 0x463
 47c:	6e61685f 	mcrvs	8, 3, r6, cr1, cr15, {2}
 480:	00656c64 	rsbeq	r6, r5, r4, ror #24
 484:	6b73616d 	blvs	1cd8a40 <__bss_end__+0x1cce410>
 488:	74696200 	strbtvc	r6, [r9], #-512	; 0x200
 48c:	6c635f73 	stclvs	15, cr5, [r3], #-460	; 0xfffffe34
 490:	68630072 	stmdavs	r3!, {r1, r4, r5, r6}^
 494:	5f6b6365 	svcpl	0x006b6365
 498:	5f656e6f 	svcpl	0x00656e6f
 49c:	69777363 	ldmdbvs	r7!, {r0, r1, r5, r6, r8, r9, ip, sp, lr}^
 4a0:	00686374 	rsbeq	r6, r8, r4, ror r3
 4a4:	65646f6d 	strbvs	r6, [r4, #-3949]!	; 0xf6d
 4a8:	7274735f 	rsbsvc	r7, r4, #2080374785	; 0x7c000001
 4ac:	646f6d00 	strbtvs	r6, [pc], #-3328	; 4b4 <__code_start__-0x7b4c>
 4b0:	65735f65 	ldrbvs	r5, [r3, #-3941]!	; 0xf65
 4b4:	68630074 	stmdavs	r3!, {r2, r4, r5, r6}^
 4b8:	5f6b6365 	svcpl	0x006b6365
 4bc:	75716573 	ldrbvc	r6, [r1, #-1395]!	; 0x573
 4c0:	69746e65 	ldmdbvs	r4!, {r0, r2, r5, r6, r9, sl, fp, sp, lr}^
 4c4:	63006c61 	movwvs	r6, #3169	; 0xc61
 4c8:	5f727370 	svcpl	0x00727370
 4cc:	00646c6f 	rsbeq	r6, r4, pc, ror #24
 4d0:	73746962 	cmnvc	r4, #1605632	; 0x188000
 4d4:	7465675f 	strbtvc	r6, [r5], #-1887	; 0x75f
 4d8:	73706300 	cmnvc	r0, #0, 6
 4dc:	73755f72 	cmnvc	r5, #456	; 0x1c8
 4e0:	63007265 	movwvs	r7, #613	; 0x265
 4e4:	00727370 	rsbseq	r7, r2, r0, ror r3
 4e8:	65646f6d 	strbvs	r6, [r4, #-3949]!	; 0xf6d
 4ec:	67656c5f 			; <UNDEFINED> instruction: 0x67656c5f
 4f0:	6d006c61 	stcvs	12, cr6, [r0, #-388]	; 0xfffffe7c
 4f4:	5f65646f 	svcpl	0x0065646f
 4f8:	00746567 	rsbseq	r6, r4, r7, ror #10
 4fc:	73676572 	cmnvc	r7, #478150656	; 0x1c800000
 500:	646f6d00 	strbtvs	r6, [pc], #-3328	; 508 <__code_start__-0x7af8>
 504:	5f5f0065 	svcpl	0x005f0065
 508:	63756e67 	cmnvs	r5, #1648	; 0x670
 50c:	5f61765f 	svcpl	0x0061765f
 510:	7473696c 	ldrbtvc	r6, [r3], #-2412	; 0x96c
 514:	62696c00 	rsbvs	r6, r9, #0, 24
 518:	72702f63 	rsbsvc	r2, r0, #396	; 0x18c
 51c:	6b746e69 	blvs	1d1bec8 <__bss_end__+0x1d11898>
 520:	4700632e 	strmi	r6, [r0, -lr, lsr #6]
 524:	4320554e 	teqmi	r0, #327155712	; 0x13800000
 528:	382e3420 	stmdacc	lr!, {r5, sl, ip, sp}
 52c:	2d20332e 	stccs	3, cr3, [r0, #-184]!	; 0xffffff48
 530:	7570636d 	ldrbvc	r6, [r0, #-877]!	; 0x36d
 534:	6d72613d 	ldfvse	f6, [r2, #-244]!	; 0xffffff0c
 538:	36373131 			; <UNDEFINED> instruction: 0x36373131
 53c:	2d667a6a 	vstmdbcs	r6!, {s15-s120}
 540:	6d2d2073 	stcvs	0, cr2, [sp, #-460]!	; 0xfffffe34
 544:	656e7574 	strbvs	r7, [lr, #-1396]!	; 0x574
 548:	6d72613d 	ldfvse	f6, [r2, #-244]!	; 0xffffff0c
 54c:	36373131 			; <UNDEFINED> instruction: 0x36373131
 550:	2d667a6a 	vstmdbcs	r6!, {s15-s120}
 554:	672d2073 			; <UNDEFINED> instruction: 0x672d2073
 558:	20626467 	rsbcs	r6, r2, r7, ror #8
 55c:	20674f2d 	rsbcs	r4, r7, sp, lsr #30
 560:	6474732d 	ldrbtvs	r7, [r4], #-813	; 0x32d
 564:	756e673d 	strbvc	r6, [lr, #-1853]!	; 0x73d
 568:	2d203939 	stccs	9, cr3, [r0, #-228]!	; 0xffffff1c
 56c:	65726666 	ldrbvs	r6, [r2, #-1638]!	; 0x666
 570:	61747365 	cmnvs	r4, r5, ror #6
 574:	6e69646e 	cdpvs	4, 6, cr6, cr9, cr14, {3}
 578:	61760067 	cmnvs	r6, r7, rrx
 57c:	6972705f 	ldmdbvs	r2!, {r0, r1, r2, r3, r4, r6, ip, sp, lr}^
 580:	006b746e 	rsbeq	r7, fp, lr, ror #8
 584:	61765f5f 	cmnvs	r6, pc, asr pc
 588:	73696c5f 	cmnvc	r9, #24320	; 0x5f00
 58c:	552f0074 	strpl	r0, [pc, #-116]!	; 520 <__code_start__-0x7ae0>
 590:	73726573 	cmnvc	r2, #482344960	; 0x1cc00000
 594:	6972622f 	ldmdbvs	r2!, {r0, r1, r2, r3, r5, r9, sp, lr}^
 598:	756a6e61 	strbvc	r6, [sl, #-3681]!	; 0xe61
 59c:	65442f6e 	strbvs	r2, [r4, #-3950]	; 0xf6e
 5a0:	6f746b73 	svcvs	0x00746b73
 5a4:	63732f70 	cmnvs	r3, #112, 30	; 0x1c0
 5a8:	6c6f6f68 	stclvs	15, cr6, [pc], #-416	; 410 <__code_start__-0x7bf0>
 5ac:	7270532f 	rsbsvc	r5, r0, #-1140850688	; 0xbc000000
 5b0:	31676e69 	cmncc	r7, r9, ror #28
 5b4:	2f303239 	svccs	0x00303239
 5b8:	34325343 	ldrtcc	r5, [r2], #-835	; 0x343
 5bc:	2f584c30 	svccs	0x00584c30
 5c0:	34327363 	ldrtcc	r7, [r2], #-867	; 0x363
 5c4:	2d786c30 	ldclcs	12, cr6, [r8, #-192]!	; 0xffffff40
 5c8:	70733032 	rsbsvc	r3, r3, r2, lsr r0
 5cc:	696c2f72 	stmdbvs	ip!, {r1, r4, r5, r6, r8, r9, sl, fp, sp}^
 5d0:	00697062 	rsbeq	r7, r9, r2, rrx
 5d4:	70615f5f 	rsbvc	r5, r1, pc, asr pc
 5d8:	72617500 	rsbvc	r7, r1, #0, 10
 5dc:	75705f74 	ldrbvc	r5, [r0, #-3956]!	; 0xf74
 5e0:	69006374 	stmdbvs	r0, {r2, r4, r5, r6, r8, r9, sp, lr}
 5e4:	7265746e 	rsbvc	r7, r5, #1845493760	; 0x6e000000
 5e8:	5f6c616e 	svcpl	0x006c616e
 5ec:	63747570 	cmnvs	r4, #112, 10	; 0x1c000000
 5f0:	00726168 	rsbseq	r6, r2, r8, ror #2
 5f4:	5f697072 	svcpl	0x00697072
 5f8:	63747570 	cmnvs	r4, #112, 10	; 0x1c000000
 5fc:	00726168 	rsbseq	r6, r2, r8, ror #2
 600:	6362696c 	cmnvs	r2, #108, 18	; 0x1b0000
 604:	7475702f 	ldrbtvc	r7, [r5], #-47	; 0x2f
 608:	72616863 	rsbvc	r6, r1, #6488064	; 0x630000
 60c:	7200632e 	andvc	r6, r0, #-1207959552	; 0xb8000000
 610:	735f6970 	cmpvc	pc, #112, 18	; 0x1c0000
 614:	705f7465 	subsvc	r7, pc, r5, ror #8
 618:	00637475 	rsbeq	r7, r3, r5, ror r4
 61c:	6362696c 	cmnvs	r2, #108, 18	; 0x1b0000
 620:	7475702f 	ldrbtvc	r7, [r5], #-47	; 0x2f
 624:	00632e6b 	rsbeq	r2, r3, fp, ror #28
 628:	65746e69 	ldrbvs	r6, [r4, #-3689]!	; 0xe69
 62c:	6c616e72 	stclvs	14, cr6, [r1], #-456	; 0xfffffe38
 630:	7475705f 	ldrbtvc	r7, [r5], #-95	; 0x5f
 634:	6d66006b 	stclvs	0, cr0, [r6, #-428]!	; 0xfffffe54
 638:	74735f74 	ldrbtvc	r5, [r3], #-3956	; 0xf74
 63c:	00747261 	rsbseq	r7, r4, r1, ror #4
 640:	5f67656e 	svcpl	0x0067656e
 644:	65720070 	ldrbvs	r0, [r2, #-112]!	; 0x70
 648:	73726576 	cmnvc	r2, #494927872	; 0x1d800000
 64c:	73690065 	cmnvc	r9, #101	; 0x65
 650:	69676964 	stmdbvs	r7!, {r2, r5, r6, r8, fp, sp, lr}^
 654:	75700074 	ldrbvc	r0, [r0, #-116]!	; 0x74
 658:	665f7374 			; <UNDEFINED> instruction: 0x665f7374
 65c:	69730070 	ldmdbvs	r3!, {r4, r5, r6}^
 660:	64656e67 	strbtvs	r6, [r5], #-3687	; 0xe67
 664:	6c00705f 	stcvs	0, cr7, [r0], {95}	; 0x5f
 668:	2f636269 	svccs	0x00636269
 66c:	702d6176 	eorvc	r6, sp, r6, ror r1
 670:	746e6972 	strbtvc	r6, [lr], #-2418	; 0x972
 674:	00632e6b 	rsbeq	r2, r3, fp, ror #28
 678:	5f697072 	svcpl	0x00697072
 67c:	5f746573 	svcpl	0x00746573
 680:	7074756f 	rsbsvc	r7, r4, pc, ror #10
 684:	77007475 	smlsdxvc	r0, r5, r4, r7
 688:	68746469 	ldmdavs	r4!, {r0, r3, r5, r6, sl, sp, lr}^
 68c:	74757000 	ldrbtvc	r7, [r5], #-0
 690:	70665f63 	rsbvc	r5, r6, r3, ror #30
 694:	696d6500 	stmdbvs	sp!, {r8, sl, sp, lr}^
 698:	69640074 	stmdbvs	r4!, {r2, r4, r5, r6}^
 69c:	6c626173 	stfvse	f6, [r2], #-460	; 0xfffffe34
 6a0:	61635f65 	cmnvs	r3, r5, ror #30
 6a4:	00656863 	rsbeq	r6, r5, r3, ror #16
 6a8:	66617473 			; <UNDEFINED> instruction: 0x66617473
 6ac:	72732d66 	rsbsvc	r2, r3, #6528	; 0x1980
 6b0:	61632f63 	cmnvs	r3, r3, ror #30
 6b4:	2e656863 	cdpcs	8, 6, cr6, cr5, cr3, {3}
 6b8:	65720063 	ldrbvs	r0, [r2, #-99]!	; 0x63
 6bc:	746f6f62 	strbtvc	r6, [pc], #-3938	; 6c4 <__code_start__-0x793c>
 6c0:	6e61685f 	mcrvs	8, 3, r6, cr1, cr15, {2}
 6c4:	72656c64 	rsbvc	r6, r5, #100, 24	; 0x6400
 6c8:	61747300 	cmnvs	r4, r0, lsl #6
 6cc:	732d6666 	teqvc	sp, #106954752	; 0x6600000
 6d0:	632f6372 	teqvs	pc, #-939524095	; 0xc8000001
 6d4:	6e61656c 	cdpvs	5, 6, cr6, cr1, cr12, {3}
 6d8:	6265722d 	rsbvs	r7, r5, #-805306366	; 0xd0000002
 6dc:	2e746f6f 	cdpcs	15, 7, cr6, cr4, cr15, {3}
 6e0:	70720063 	rsbsvc	r0, r2, r3, rrx
 6e4:	65725f69 	ldrbvs	r5, [r2, #-3945]!	; 0xf69
 6e8:	746f6f62 	strbtvc	r6, [pc], #-3938	; 6f0 <__code_start__-0x7910>
 6ec:	6c656400 	cfstrdvs	mvd6, [r5], #-0
 6f0:	6d5f7961 	ldclvs	9, cr7, [pc, #-388]	; 574 <__code_start__-0x7a8c>
 6f4:	5f5f0073 	svcpl	0x005f0073
 6f8:	5f737362 	svcpl	0x00737362
 6fc:	72617473 	rsbvc	r7, r1, #1929379840	; 0x73000000
 700:	005f5f74 	subseq	r5, pc, r4, ror pc	; <UNPREDICTABLE>
 704:	73625f5f 	cmnvc	r2, #380	; 0x17c
 708:	6e655f73 	mcrvs	15, 3, r5, cr5, cr3, {3}
 70c:	005f5f64 	subseq	r5, pc, r4, ror #30
 710:	61747363 	cmnvs	r4, r3, ror #6
 714:	685f7472 	ldmdavs	pc, {r1, r4, r5, r6, sl, ip, sp, lr}^	; <UNPREDICTABLE>
 718:	6c646e61 	stclvs	14, cr6, [r4], #-388	; 0xfffffe7c
 71c:	62007265 	andvs	r7, r0, #1342177286	; 0x50000006
 720:	655f7373 	ldrbvs	r7, [pc, #-883]	; 3b5 <__code_start__-0x7c4b>
 724:	5f00646e 	svcpl	0x0000646e
 728:	61747363 	cmnvs	r4, r3, ror #6
 72c:	73007472 	movwvc	r7, #1138	; 0x472
 730:	66666174 			; <UNDEFINED> instruction: 0x66666174
 734:	6372732d 	cmnvs	r2, #-1275068416	; 0xb4000000
 738:	7473632f 	ldrbtvc	r6, [r3], #-815	; 0x32f
 73c:	2e747261 	cdpcs	2, 7, cr7, cr4, cr1, {3}
 740:	74730063 	ldrbtvc	r0, [r3], #-99	; 0x63
 744:	2d666661 	stclcs	6, cr6, [r6, #-388]!	; 0xfffffe7c
 748:	2f637273 	svccs	0x00637273
 74c:	61666564 	cmnvs	r6, r4, ror #10
 750:	2d746c75 	ldclcs	12, cr6, [r4, #-468]!	; 0xfffffe2c
 754:	646e6168 	strbtvs	r6, [lr], #-360	; 0x168
 758:	2d72656c 	cfldr64cs	mvdx6, [r2, #-432]!	; 0xfffffe50
 75c:	74736166 	ldrbtvc	r6, [r3], #-358	; 0x166
 760:	6600632e 	strvs	r6, [r0], -lr, lsr #6
 764:	5f747361 	svcpl	0x00747361
 768:	65746e69 	ldrbvs	r6, [r4, #-3689]!	; 0xe69
 76c:	70757272 	rsbsvc	r7, r5, r2, ror r2
 770:	65765f74 	ldrbvs	r5, [r6, #-3956]!	; 0xf74
 774:	726f7463 	rsbvc	r7, pc, #1660944384	; 0x63000000
 778:	73657200 	cmnvc	r5, #0, 4
 77c:	765f7465 	ldrbvc	r7, [pc], -r5, ror #8
 780:	6f746365 	svcvs	0x00746365
 784:	74730072 	ldrbtvc	r0, [r3], #-114	; 0x72
 788:	2d666661 	stclcs	6, cr6, [r6, #-388]!	; 0xfffffe7c
 78c:	2f637273 	svccs	0x00637273
 790:	61666564 	cmnvs	r6, r4, ror #10
 794:	2d746c75 	ldclcs	12, cr6, [r4, #-468]!	; 0xfffffe2c
 798:	646e6168 	strbtvs	r6, [lr], #-360	; 0x168
 79c:	2d72656c 	cfldr64cs	mvdx6, [r2, #-432]!	; 0xfffffe50
 7a0:	65736572 	ldrbvs	r6, [r3, #-1394]!	; 0x572
 7a4:	00632e74 	rsbeq	r2, r3, r4, ror lr
 7a8:	66617473 			; <UNDEFINED> instruction: 0x66617473
 7ac:	72732d66 	rsbsvc	r2, r3, #6528	; 0x1980
 7b0:	65642f63 	strbvs	r2, [r4, #-3939]!	; 0xf63
 7b4:	6c756166 	ldfvse	f6, [r5], #-408	; 0xfffffe68
 7b8:	61682d74 	smcvs	33492	; 0x82d4
 7bc:	656c646e 	strbvs	r6, [ip, #-1134]!	; 0x46e
 7c0:	6e752d72 	mrcvs	13, 3, r2, cr5, cr2, {3}
 7c4:	69666564 	stmdbvs	r6!, {r2, r5, r6, r8, sl, sp, lr}^
 7c8:	2d64656e 	cfstr64cs	mvdx6, [r4, #-440]!	; 0xfffffe48
 7cc:	74736e69 	ldrbtvc	r6, [r3], #-3689	; 0xe69
 7d0:	7500632e 	strvc	r6, [r0, #-814]	; 0x32e
 7d4:	6665646e 	strbtvs	r6, [r5], -lr, ror #8
 7d8:	64656e69 	strbtvs	r6, [r5], #-3689	; 0xe69
 7dc:	736e695f 	cmnvc	lr, #1556480	; 0x17c000
 7e0:	63757274 	cmnvs	r5, #116, 4	; 0x40000007
 7e4:	6e6f6974 	mcrvs	9, 3, r6, cr15, cr4, {3}
 7e8:	6365765f 	cmnvs	r5, #99614720	; 0x5f00000
 7ec:	00726f74 	rsbseq	r6, r2, r4, ror pc
 7f0:	66617473 			; <UNDEFINED> instruction: 0x66617473
 7f4:	72732d66 	rsbsvc	r2, r3, #6528	; 0x1980
 7f8:	65642f63 	strbvs	r2, [r4, #-3939]!	; 0xf63
 7fc:	6c756166 	ldfvse	f6, [r5], #-408	; 0xfffffe68
 800:	61682d74 	smcvs	33492	; 0x82d4
 804:	656c646e 	strbvs	r6, [ip, #-1134]!	; 0x46e
 808:	632e7372 	teqvs	lr, #-939524095	; 0xc8000001
 80c:	51524900 	cmppl	r2, r0, lsl #18
 810:	6e65705f 	mcrvs	0, 3, r7, cr5, cr15, {2}
 814:	676e6964 	strbvs	r6, [lr, -r4, ror #18]!
 818:	4400325f 	strmi	r3, [r0], #-607	; 0x25f
 81c:	62617369 	rsbvs	r7, r1, #-1543503871	; 0xa4000001
 820:	425f656c 	subsmi	r6, pc, #108, 10	; 0x1b000000
 824:	63697361 	cmnvs	r9, #-2080374783	; 0x84000001
 828:	5152495f 	cmppl	r2, pc, asr r9
 82c:	49460073 	stmdbmi	r6, {r0, r1, r4, r5, r6}^
 830:	6f635f51 	svcvs	0x00635f51
 834:	6f72746e 	svcvs	0x0072746e
 838:	695f006c 	ldmdbvs	pc, {r2, r3, r5, r6}^	; <UNPREDICTABLE>
 83c:	7265746e 	rsbvc	r7, r5, #1845493760	; 0x6e000000
 840:	74707572 	ldrbtvc	r7, [r0], #-1394	; 0x572
 844:	6261745f 	rsbvs	r7, r1, #1593835520	; 0x5f000000
 848:	4900656c 	stmdbmi	r0, {r2, r3, r5, r6, r8, sl, sp, lr}
 84c:	625f5152 	subsvs	r5, pc, #-2147483628	; 0x80000014
 850:	63697361 	cmnvs	r9, #-2080374783	; 0x84000001
 854:	6e65705f 	mcrvs	0, 3, r7, cr5, cr15, {2}
 858:	676e6964 	strbvs	r6, [lr, -r4, ror #18]!
 85c:	616e4500 	cmnvs	lr, r0, lsl #10
 860:	5f656c62 	svcpl	0x00656c62
 864:	69736142 	ldmdbvs	r3!, {r1, r6, r8, sp, lr}^
 868:	52495f63 	subpl	r5, r9, #396	; 0x18c
 86c:	45007351 	strmi	r7, [r0, #-849]	; 0x351
 870:	6c62616e 	stfvse	f6, [r2], #-440	; 0xfffffe48
 874:	52495f65 	subpl	r5, r9, #404	; 0x194
 878:	315f7351 	cmpcc	pc, r1, asr r3	; <UNPREDICTABLE>
 87c:	616e4500 	cmnvs	lr, r0, lsl #10
 880:	5f656c62 	svcpl	0x00656c62
 884:	73515249 	cmpvc	r1, #-1879048188	; 0x90000004
 888:	5f00325f 	svcpl	0x0000325f
 88c:	65746e69 	ldrbvs	r6, [r4, #-3689]!	; 0xe69
 890:	70757272 	rsbsvc	r7, r5, r2, ror r2
 894:	61745f74 	cmnvs	r4, r4, ror pc
 898:	5f656c62 	svcpl	0x00656c62
 89c:	00646e65 	rsbeq	r6, r4, r5, ror #28
 8a0:	5f766564 	svcpl	0x00766564
 8a4:	72726162 	rsbsvc	r6, r2, #-2147483624	; 0x80000018
 8a8:	00726569 	rsbseq	r6, r2, r9, ror #10
 8ac:	66617473 			; <UNDEFINED> instruction: 0x66617473
 8b0:	72732d66 	rsbsvc	r2, r3, #6528	; 0x1980
 8b4:	6e692f63 	cdpvs	15, 6, cr2, cr9, cr3, {3}
 8b8:	72726574 	rsbsvc	r6, r2, #116, 10	; 0x1d000000
 8bc:	73747075 	cmnvc	r4, #117	; 0x75
 8c0:	632e632d 	teqvs	lr, #-1275068416	; 0xb4000000
 8c4:	51524900 	cmppl	r2, r0, lsl #18
 8c8:	7361425f 	cmnvc	r1, #-268435451	; 0xf0000005
 8cc:	55500065 	ldrbpl	r0, [r0, #-101]	; 0x65
 8d0:	00323354 	eorseq	r3, r2, r4, asr r3
 8d4:	61736944 	cmnvs	r3, r4, asr #18
 8d8:	5f656c62 	svcpl	0x00656c62
 8dc:	73515249 	cmpvc	r1, #-1879048188	; 0x90000004
 8e0:	4400315f 	strmi	r3, [r0], #-351	; 0x15f
 8e4:	62617369 	rsbvs	r7, r1, #-1543503871	; 0xa4000001
 8e8:	495f656c 	ldmdbmi	pc, {r2, r3, r5, r6, r8, sl, sp, lr}^	; <UNPREDICTABLE>
 8ec:	5f735152 	svcpl	0x00735152
 8f0:	52490032 	subpl	r0, r9, #50	; 0x32
 8f4:	65705f51 	ldrbvs	r5, [r0, #-3921]!	; 0xf51
 8f8:	6e69646e 	cdpvs	4, 6, cr6, cr9, cr14, {3}
 8fc:	00315f67 	eorseq	r5, r1, r7, ror #30
 900:	755f7461 	ldrbvc	r7, [pc, #-1121]	; 4a7 <__code_start__-0x7b59>
 904:	5f726573 	svcpl	0x00726573
 908:	6576656c 	ldrbvs	r6, [r6, #-1388]!	; 0x56c
 90c:	7473006c 	ldrbtvc	r0, [r3], #-108	; 0x6c
 910:	2d666661 	stclcs	6, cr6, [r6, #-388]!	; 0xfffffe7c
 914:	2f637273 	svccs	0x00637273
 918:	6f626572 	svcvs	0x00626572
 91c:	632e746f 	teqvs	lr, #1862270976	; 0x6f000000
 920:	5f4d5000 	svcpl	0x004d5000
 924:	43545352 	cmpmi	r4, #1207959553	; 0x48000001
 928:	4352575f 	cmpmi	r2, #24903680	; 0x17c0000
 92c:	465f4746 	ldrbmi	r4, [pc], -r6, asr #14
 930:	5f4c4c55 	svcpl	0x004c4c55
 934:	45534552 	ldrbmi	r4, [r3, #-1362]	; 0x552
 938:	4d500054 	ldclmi	0, cr0, [r0, #-336]	; 0xfffffeb0
 93c:	4f44575f 	svcmi	0x0044575f
 940:	65730047 	ldrbvs	r0, [r3, #-71]!	; 0x47
 944:	73755f74 	cmnvc	r5, #116, 30	; 0x1d0
 948:	6c5f7265 	lfmvs	f7, 2, [pc], {101}	; 0x65
 94c:	6c657665 	stclvs	6, cr7, [r5], #-404	; 0xfffffe6c
 950:	5f4d5000 	svcpl	0x004d5000
 954:	53534150 	cmppl	r3, #80, 2
 958:	44524f57 	ldrbmi	r4, [r2], #-3927	; 0xf57
 95c:	5f4d5000 	svcpl	0x004d5000
 960:	43545352 	cmpmi	r4, #1207959553	; 0x48000001
 964:	6d697400 	cfstrdvs	mvd7, [r9, #-0]
 968:	675f7265 	ldrbvs	r7, [pc, -r5, ror #4]
 96c:	755f7465 	ldrbvc	r7, [pc, #-1125]	; 50f <__code_start__-0x7af1>
 970:	5f636573 	svcpl	0x00636573
 974:	00776172 	rsbseq	r6, r7, r2, ror r1
 978:	616c6564 	cmnvs	ip, r4, ror #10
 97c:	65735f79 	ldrbvs	r5, [r3, #-3961]!	; 0xf79
 980:	74730063 	ldrbtvc	r0, [r3], #-99	; 0x63
 984:	2d666661 	stclcs	6, cr6, [r6, #-388]!	; 0xfffffe7c
 988:	2f637273 	svccs	0x00637273
 98c:	656d6974 	strbvs	r6, [sp, #-2420]!	; 0x974
 990:	00632e72 	rsbeq	r2, r3, r2, ror lr
 994:	33544547 	cmpcc	r4, #297795584	; 0x11c00000
 998:	69740032 	ldmdbvs	r4!, {r1, r4, r5}^
 99c:	00736b63 	rsbseq	r6, r3, r3, ror #22
 9a0:	616c6564 	cmnvs	ip, r4, ror #10
 9a4:	79635f79 	stmdbvc	r3!, {r0, r3, r4, r5, r6, r8, r9, sl, fp, ip, lr}^
 9a8:	73656c63 	cmnvc	r5, #25344	; 0x6300
 9ac:	6c656400 	cfstrdvs	mvd6, [r5], #-0
 9b0:	755f7961 	ldrbvc	r7, [pc, #-2401]	; 57 <__code_start__-0x7fa9>
 9b4:	69740073 	ldmdbvs	r4!, {r0, r1, r4, r5, r6}^
 9b8:	5f72656d 	svcpl	0x0072656d
 9bc:	5f746567 	svcpl	0x00746567
 9c0:	63657375 	cmnvs	r5, #-738197503	; 0xd4000001
 9c4:	73645f00 	cmnvc	r4, #0, 30
 9c8:	61685f6f 	cmnvs	r8, pc, ror #30
 9cc:	656c646e 	strbvs	r6, [ip, #-1134]!	; 0x46e
 9d0:	69735f00 	ldmdbvs	r3!, {r8, r9, sl, fp, ip, lr}^
 9d4:	5f00657a 	svcpl	0x0000657a
 9d8:	646e6172 	strbtvs	r6, [lr], #-370	; 0x172
 9dc:	5f003834 	svcpl	0x00003834
 9e0:	72656d65 	rsbvc	r6, r5, #6464	; 0x1940
 9e4:	636e6567 	cmnvs	lr, #432013312	; 0x19c00000
 9e8:	61750079 	cmnvs	r5, r9, ror r0
 9ec:	695f7472 	ldmdbvs	pc, {r1, r4, r5, r6, sl, ip, sp, lr}^	; <UNPREDICTABLE>
 9f0:	0074696e 	rsbseq	r6, r4, lr, ror #18
 9f4:	7263775f 	rsbvc	r7, r3, #24903680	; 0x17c0000
 9f8:	626d6f74 	rsbvs	r6, sp, #116, 30	; 0x1d0
 9fc:	6174735f 	cmnvs	r4, pc, asr r3
 a00:	5f006574 	svcpl	0x00006574
 a04:	72736377 	rsbsvc	r6, r3, #-603979775	; 0xdc000001
 a08:	626d6f74 	rsbvs	r6, sp, #116, 30	; 0x1d0
 a0c:	74735f73 	ldrbtvc	r5, [r3], #-3955	; 0xf73
 a10:	00657461 	rsbeq	r7, r5, r1, ror #8
 a14:	66626c5f 			; <UNDEFINED> instruction: 0x66626c5f
 a18:	657a6973 	ldrbvs	r6, [sl, #-2419]!	; 0x973
 a1c:	49504700 	ldmdbmi	r0, {r8, r9, sl, lr}^
 a20:	55465f4f 	strbpl	r5, [r6, #-3919]	; 0xf4f
 a24:	495f434e 	ldmdbmi	pc, {r1, r2, r3, r6, r8, r9, lr}^	; <UNPREDICTABLE>
 a28:	5455504e 	ldrbpl	r5, [r5], #-78	; 0x4e
 a2c:	626d5f00 	rsbvs	r5, sp, #0, 30
 a30:	776f7472 			; <UNDEFINED> instruction: 0x776f7472
 a34:	74735f63 	ldrbtvc	r5, [r3], #-3939	; 0xf63
 a38:	00657461 	rsbeq	r7, r5, r1, ror #8
 a3c:	7463775f 	strbtvc	r7, [r3], #-1887	; 0x75f
 a40:	5f626d6f 	svcpl	0x00626d6f
 a44:	74617473 	strbtvc	r7, [r1], #-1139	; 0x473
 a48:	5f5f0065 	svcpl	0x005f0065
 a4c:	735f6d74 	cmpvc	pc, #116, 26	; 0x1d00
 a50:	73006365 	movwvc	r6, #869	; 0x365
 a54:	00746174 	rsbseq	r6, r4, r4, ror r1
 a58:	7562755f 	strbvc	r7, [r2, #-1375]!	; 0x55f
 a5c:	50470066 	subpl	r0, r7, r6, rrx
 a60:	465f4f49 	ldrbmi	r4, [pc], -r9, asr #30
 a64:	5f434e55 	svcpl	0x00434e55
 a68:	31544c41 	cmpcc	r4, r1, asr #24
 a6c:	61625f00 	cmnvs	r2, r0, lsl #30
 a70:	63006573 	movwvs	r6, #1395	; 0x573
 a74:	006c746e 	rsbeq	r7, ip, lr, ror #8
 a78:	6d745f5f 	ldclvs	15, cr5, [r4, #-380]!	; 0xfffffe84
 a7c:	756f685f 	strbvc	r6, [pc, #-2143]!	; 225 <__code_start__-0x7ddb>
 a80:	5f5f0072 	svcpl	0x005f0072
 a84:	5f006673 	svcpl	0x00006673
 a88:	655f6e6f 	ldrbvs	r6, [pc, #-3695]	; fffffc21 <__bss_end__+0xffff55f1>
 a8c:	5f746978 	svcpl	0x00746978
 a90:	73677261 	cmnvc	r7, #268435462	; 0x10000006
 a94:	6f635f00 	svcvs	0x00635f00
 a98:	65696b6f 	strbvs	r6, [r9, #-2927]!	; 0xb6f
 a9c:	735f5f00 	cmpvc	pc, #0, 30
 aa0:	65756c67 	ldrbvs	r6, [r5, #-3175]!	; 0xc67
 aa4:	6c665f00 	stclvs	15, cr5, [r6], #-0
 aa8:	00736761 	rsbseq	r6, r3, r1, ror #14
 aac:	5f73695f 	svcpl	0x0073695f
 ab0:	00617863 	rsbeq	r7, r1, r3, ror #16
 ab4:	6474735f 	ldrbtvs	r7, [r4], #-863	; 0x35f
 ab8:	5f006e69 	svcpl	0x00006e69
 abc:	736b6c62 	cmnvc	fp, #25088	; 0x6200
 ac0:	00657a69 	rsbeq	r7, r5, r9, ror #20
 ac4:	74726175 	ldrbtvc	r6, [r2], #-373	; 0x175
 ac8:	6100632e 	tstvs	r0, lr, lsr #6
 acc:	705f7875 	subsvc	r7, pc, r5, ror r8	; <UNPREDICTABLE>
 ad0:	70697265 	rsbvc	r7, r9, r5, ror #4
 ad4:	5f007368 	svcpl	0x00007368
 ad8:	62747663 	rsbsvs	r7, r4, #103809024	; 0x6300000
 adc:	2f006675 	svccs	0x00006675
 ae0:	656d6f68 	strbvs	r6, [sp, #-3944]!	; 0xf68
 ae4:	676e652f 	strbvs	r6, [lr, -pc, lsr #10]!
 ae8:	2f72656c 	svccs	0x0072656c
 aec:	73616c63 	cmnvc	r1, #25344	; 0x6300
 af0:	73632f73 	cmnvc	r3, #460	; 0x1cc
 af4:	6c303432 	cfldrsvs	mvf3, [r0], #-200	; 0xffffff38
 af8:	30322d78 	eorscc	r2, r2, r8, ror sp
 afc:	2f727073 	svccs	0x00727073
 b00:	7062696c 	rsbvc	r6, r2, ip, ror #18
 b04:	74732f69 	ldrbtvc	r2, [r3], #-3945	; 0xf69
 b08:	2d666661 	stclcs	6, cr6, [r6, #-388]!	; 0xfffffe7c
 b0c:	76697270 			; <UNDEFINED> instruction: 0x76697270
 b10:	00657461 	rsbeq	r7, r5, r1, ror #8
 b14:	73626d5f 	cmnvc	r2, #6080	; 0x17c0
 b18:	776f7472 			; <UNDEFINED> instruction: 0x776f7472
 b1c:	735f7363 	cmpvc	pc, #-1946157055	; 0x8c000001
 b20:	65746174 	ldrbvs	r6, [r4, #-372]!	; 0x174
 b24:	626d5f00 	rsbvs	r5, sp, #0, 30
 b28:	6e656c72 	mcrvs	12, 3, r6, cr5, cr2, {3}
 b2c:	6174735f 	cmnvs	r4, pc, asr r3
 b30:	5f006574 	svcpl	0x00006574
 b34:	72616e66 	rsbvc	r6, r1, #1632	; 0x660
 b38:	61007367 	tstvs	r0, r7, ror #6
 b3c:	655f7875 	ldrbvs	r7, [pc, #-2165]	; 2cf <__code_start__-0x7d31>
 b40:	6c62616e 	stfvse	f6, [r2], #-440	; 0xfffffe48
 b44:	5f007365 	svcpl	0x00007365
 b48:	00736e66 	rsbseq	r6, r3, r6, ror #28
 b4c:	6769735f 			; <UNDEFINED> instruction: 0x6769735f
 b50:	6175006e 	cmnvs	r5, lr, rrx
 b54:	635f7472 	cmpvs	pc, #1912602624	; 0x72000000
 b58:	705f6e61 	subsvc	r6, pc, r1, ror #28
 b5c:	00637475 	rsbeq	r7, r3, r5, ror r4
 b60:	6f6c665f 	svcvs	0x006c665f
 b64:	745f6b63 	ldrbvc	r6, [pc], #-2915	; b6c <__code_start__-0x7494>
 b68:	74735f00 	ldrbtvc	r5, [r3], #-3840	; 0xf00
 b6c:	72726564 	rsbsvc	r6, r2, #100, 10	; 0x19000000
 b70:	69425f00 	stmdbvs	r2, {r8, r9, sl, fp, ip, lr}^
 b74:	746e6967 	strbtvc	r6, [lr], #-2407	; 0x967
 b78:	61675f00 	cmnvs	r7, r0, lsl #30
 b7c:	5f616d6d 	svcpl	0x00616d6d
 b80:	6e676973 	mcrvs	9, 3, r6, cr7, cr3, {3}
 b84:	006d6167 	rsbeq	r6, sp, r7, ror #2
 b88:	7365725f 	cmnvc	r5, #-268435451	; 0xf0000005
 b8c:	5f746c75 	svcpl	0x00746c75
 b90:	5f5f006b 	svcpl	0x005f006b
 b94:	5f006d74 	svcpl	0x00006d74
 b98:	6863775f 	stmdavs	r3!, {r0, r1, r2, r3, r4, r6, r8, r9, sl, ip, sp, lr}^
 b9c:	61750062 	cmnvs	r5, r2, rrx
 ba0:	675f7472 			; <UNDEFINED> instruction: 0x675f7472
 ba4:	00637465 	rsbeq	r7, r3, r5, ror #8
 ba8:	6474735f 	ldrbtvs	r7, [r4], #-863	; 0x35f
 bac:	0074756f 	rsbseq	r7, r4, pc, ror #10
 bb0:	7476635f 	ldrbtvc	r6, [r6], #-863	; 0x35f
 bb4:	006e656c 	rsbeq	r6, lr, ip, ror #10
 bb8:	6c69665f 	stclvs	6, cr6, [r9], #-380	; 0xfffffe84
 bbc:	6e5f0065 	cdpvs	0, 5, cr0, cr15, cr5, {3}
 bc0:	73626f69 	cmnvc	r2, #420	; 0x1a4
 bc4:	74615f00 	strbtvc	r5, [r1], #-3840	; 0xf00
 bc8:	74697865 	strbtvc	r7, [r9], #-2149	; 0x865
 bcc:	735f0030 	cmpvc	pc, #48	; 0x30
 bd0:	616e6769 	cmnvs	lr, r9, ror #14
 bd4:	75625f6c 	strbvc	r5, [r2, #-3948]!	; 0xf6c
 bd8:	615f0066 	cmpvs	pc, r6, rrx
 bdc:	69746373 	ldmdbvs	r4!, {r0, r1, r4, r5, r6, r8, r9, sp, lr}^
 be0:	625f656d 	subsvs	r6, pc, #457179136	; 0x1b400000
 be4:	5f006675 	svcpl	0x00006675
 be8:	75736572 	ldrbvc	r6, [r3, #-1394]!	; 0x572
 bec:	5f00746c 	svcpl	0x0000746c
 bf0:	6863775f 	stmdavs	r3!, {r0, r1, r2, r3, r4, r6, r8, r9, sl, ip, sp, lr}^
 bf4:	49504700 	ldmdbmi	r0, {r8, r9, sl, lr}^
 bf8:	55465f4f 	strbpl	r5, [r6, #-3919]	; 0xf4f
 bfc:	415f434e 	cmpmi	pc, lr, asr #6
 c00:	0032544c 	eorseq	r5, r2, ip, asr #8
 c04:	746e6977 	strbtvc	r6, [lr], #-2423	; 0x977
 c08:	5f00745f 	svcpl	0x0000745f
 c0c:	6b636f6c 	blvs	18dc9c4 <__bss_end__+0x18d2394>
 c10:	6c665f00 	stclvs	15, cr5, [r6], #-0
 c14:	32736761 	rsbscc	r6, r3, #25427968	; 0x1840000
 c18:	745f5f00 	ldrbvc	r5, [pc], #-3840	; c20 <__code_start__-0x73e0>
 c1c:	65795f6d 	ldrbvs	r5, [r9, #-3949]!	; 0xf6d
 c20:	5f007261 	svcpl	0x00007261
 c24:	7366666f 	cmnvc	r6, #116391936	; 0x6f00000
 c28:	67007465 	strvs	r7, [r0, -r5, ror #8]
 c2c:	5f6f6970 	svcpl	0x006f6970
 c30:	5f746573 	svcpl	0x00746573
 c34:	636e7566 	cmnvs	lr, #427819008	; 0x19800000
 c38:	6e6f6974 	mcrvs	9, 3, r6, cr15, cr4, {3}
 c3c:	656e5f00 	strbvs	r5, [lr, #-3840]!	; 0xf00
 c40:	00667478 	rsbeq	r7, r6, r8, ror r4
 c44:	6d745f5f 	ldclvs	15, cr5, [r4, #-380]!	; 0xfffffe84
 c48:	6e6f6d5f 	mcrvs	13, 3, r6, cr15, cr15, {2}
 c4c:	74615f00 	strbtvc	r5, [r1], #-3840	; 0xf00
 c50:	74697865 	strbtvc	r7, [r9], #-2149	; 0x865
 c54:	735f5f00 	cmpvc	pc, #0, 30
 c58:	69646964 	stmdbvs	r4!, {r2, r5, r6, r8, fp, sp, lr}^
 c5c:	0074696e 	rsbseq	r6, r4, lr, ror #18
 c60:	66666f5f 	uqsaxvs	r6, r6, pc	; <UNPREDICTABLE>
 c64:	7500745f 	strvc	r7, [r0, #-1119]	; 0x45f
 c68:	00747261 	rsbseq	r7, r4, r1, ror #4
 c6c:	6572665f 	ldrbvs	r6, [r2, #-1631]!	; 0x65f
 c70:	73696c65 	cmnvc	r9, #25856	; 0x6500
 c74:	4c5f0074 	mrrcmi	0, 7, r0, pc, cr4	; <UNPREDICTABLE>
 c78:	5f4b434f 	svcpl	0x004b434f
 c7c:	55434552 	strbpl	r4, [r3, #-1362]	; 0x552
 c80:	56495352 			; <UNDEFINED> instruction: 0x56495352
 c84:	00545f45 	subseq	r5, r4, r5, asr #30
 c88:	77656e5f 			; <UNDEFINED> instruction: 0x77656e5f
 c8c:	5f685f00 	svcpl	0x00685f00
 c90:	6e727265 	cdpvs	2, 7, cr7, cr2, cr5, {3}
 c94:	5f5f006f 	svcpl	0x005f006f
 c98:	795f6d74 	ldmdbvc	pc, {r2, r4, r5, r6, r8, sl, fp, sp, lr}^	; <UNPREDICTABLE>
 c9c:	00796164 	rsbseq	r6, r9, r4, ror #2
 ca0:	62735f5f 	rsbsvs	r5, r3, #380	; 0x17c
 ca4:	5f006675 	svcpl	0x00006675
 ca8:	73626f69 	cmnvc	r2, #420	; 0x1a4
 cac:	465f5f00 	ldrbmi	r5, [pc], -r0, lsl #30
 cb0:	00454c49 	subeq	r4, r5, r9, asr #24
 cb4:	73626d5f 	cmnvc	r2, #6080	; 0x17c0
 cb8:	65746174 	ldrbvs	r6, [r4, #-372]!	; 0x174
 cbc:	5f00745f 	svcpl	0x0000745f
 cc0:	4946735f 	stmdbmi	r6, {r0, r1, r2, r3, r4, r6, r8, r9, ip, sp, lr}^
 cc4:	5f00454c 	svcpl	0x0000454c
 cc8:	7473626d 	ldrbtvc	r6, [r3], #-621	; 0x26d
 ccc:	00657461 	rsbeq	r7, r5, r1, ror #8
 cd0:	6e61725f 	mcrvs	2, 3, r7, cr1, cr15, {2}
 cd4:	656e5f64 	strbvs	r5, [lr, #-3940]!	; 0xf64
 cd8:	5f007478 	svcpl	0x00007478
 cdc:	656c626d 	strbvs	r6, [ip, #-621]!	; 0x26d
 ce0:	74735f6e 	ldrbtvc	r5, [r3], #-3950	; 0xf6e
 ce4:	00657461 	rsbeq	r7, r5, r1, ror #8
 ce8:	636e695f 	cmnvs	lr, #1556480	; 0x17c000
 cec:	6e695f00 	cdpvs	15, 6, cr5, cr9, cr0, {0}
 cf0:	635f0064 	cmpvs	pc, #100	; 0x64
 cf4:	65727275 	ldrbvs	r7, [r2, #-629]!	; 0x275
 cf8:	6c5f746e 	cfldrdvs	mvd7, [pc], {110}	; 0x6e
 cfc:	6c61636f 	stclvs	3, cr6, [r1], #-444	; 0xfffffe44
 d00:	5f5f0065 	svcpl	0x005f0065
 d04:	61656c63 	cmnvs	r5, r3, ror #24
 d08:	0070756e 	rsbseq	r7, r0, lr, ror #10
 d0c:	78616d5f 	stmdavc	r1!, {r0, r1, r2, r3, r4, r6, r8, sl, fp, sp, lr}^
 d10:	00736477 	rsbseq	r6, r3, r7, ror r4
 d14:	6565725f 	strbvs	r7, [r5, #-607]!	; 0x25f
 d18:	5f00746e 	svcpl	0x0000746e
 d1c:	64656573 	strbtvs	r6, [r5], #-1395	; 0x573
 d20:	635f5f00 	cmpvs	pc, #0, 30
 d24:	746e756f 	strbtvc	r7, [lr], #-1391	; 0x56f
 d28:	765f5f00 	ldrbvc	r5, [pc], -r0, lsl #30
 d2c:	65756c61 	ldrbvs	r6, [r5, #-3169]!	; 0xc61
 d30:	65735f00 	ldrbvs	r5, [r3, #-3840]!	; 0xf00
 d34:	62006b65 	andvs	r6, r0, #103424	; 0x19400
 d38:	00647561 	rsbeq	r7, r4, r1, ror #10
 d3c:	6f70665f 	svcvs	0x0070665f
 d40:	00745f73 	rsbseq	r5, r4, r3, ror pc
 d44:	6d745f5f 	ldclvs	15, cr5, [r4, #-380]!	; 0xfffffe84
 d48:	6e696d5f 	mcrvs	13, 3, r6, cr9, cr15, {2}
 d4c:	72637300 	rsbvc	r7, r3, #0, 6
 d50:	68637461 	stmdavs	r3!, {r0, r5, r6, sl, ip, sp, lr}^
 d54:	756d5f00 	strbvc	r5, [sp, #-3840]!	; 0xf00
 d58:	7000746c 	andvc	r7, r0, ip, ror #8
 d5c:	32337475 	eorscc	r7, r3, #1962934272	; 0x75000000
 d60:	554e4700 	strbpl	r4, [lr, #-1792]	; 0x700
 d64:	39394320 	ldmdbcc	r9!, {r5, r8, r9, lr}
 d68:	332e3620 	teqcc	lr, #32, 12	; 0x2000000
 d6c:	3220312e 	eorcc	r3, r0, #-2147483637	; 0x8000000b
 d70:	30373130 	eorscc	r3, r7, r0, lsr r1
 d74:	20303236 	eorscs	r3, r0, r6, lsr r2
 d78:	70636d2d 	rsbvc	r6, r3, sp, lsr #26
 d7c:	72613d75 	rsbvc	r3, r1, #7488	; 0x1d40
 d80:	3731316d 	ldrcc	r3, [r1, -sp, ror #2]!
 d84:	667a6a36 			; <UNDEFINED> instruction: 0x667a6a36
 d88:	2d20732d 	stccs	3, cr7, [r0, #-180]!	; 0xffffff4c
 d8c:	6e75746d 	cdpvs	4, 7, cr7, cr5, cr13, {3}
 d90:	72613d65 	rsbvc	r3, r1, #6464	; 0x1940
 d94:	3731316d 	ldrcc	r3, [r1, -sp, ror #2]!
 d98:	667a6a36 			; <UNDEFINED> instruction: 0x667a6a36
 d9c:	2d20732d 	stccs	3, cr7, [r0, #-180]!	; 0xffffff4c
 da0:	62646767 	rsbvs	r6, r4, #27000832	; 0x19c0000
 da4:	674f2d20 	strbvs	r2, [pc, -r0, lsr #26]
 da8:	74732d20 	ldrbtvc	r2, [r3], #-3360	; 0xd20
 dac:	6e673d64 	cdpvs	13, 6, cr3, cr7, cr4, {3}
 db0:	20393975 	eorscs	r3, r9, r5, ror r9
 db4:	7266662d 	rsbvc	r6, r6, #47185920	; 0x2d00000
 db8:	74736565 	ldrbtvc	r6, [r3], #-1381	; 0x565
 dbc:	69646e61 	stmdbvs	r4!, {r0, r5, r6, r9, sl, fp, sp, lr}^
 dc0:	5f00676e 	svcpl	0x0000676e
 dc4:	74727473 	ldrbtvc	r7, [r2], #-1139	; 0x473
 dc8:	6c5f6b6f 	mrrcvs	11, 6, r6, pc, cr15	; <UNPREDICTABLE>
 dcc:	00747361 	rsbseq	r7, r4, r1, ror #6
 dd0:	746e665f 	strbtvc	r6, [lr], #-1631	; 0x65f
 dd4:	73657079 	cmnvc	r5, #121	; 0x79
 dd8:	64615f00 	strbtvs	r5, [r1], #-3840	; 0xf00
 ddc:	5f5f0064 	svcpl	0x005f0064
 de0:	6e6f4c55 	mcrvs	12, 3, r4, cr15, cr5, {2}
 de4:	675f0067 	ldrbvs	r0, [pc, -r7, rrx]
 de8:	61647465 	cmnvs	r4, r5, ror #8
 dec:	655f6574 	ldrbvs	r6, [pc, #-1396]	; 880 <__code_start__-0x7780>
 df0:	5f007272 	svcpl	0x00007272
 df4:	626f6c67 	rsbvs	r6, pc, #26368	; 0x6700
 df8:	695f6c61 	ldmdbvs	pc, {r0, r5, r6, sl, fp, sp, lr}^	; <UNPREDICTABLE>
 dfc:	7275706d 	rsbsvc	r7, r5, #109	; 0x6d
 e00:	74705f65 	ldrbtvc	r5, [r0], #-3941	; 0xf65
 e04:	635f0072 	cmpvs	pc, #114	; 0x72
 e08:	65727275 	ldrbvs	r7, [r2, #-629]!	; 0x275
 e0c:	635f746e 	cmpvs	pc, #1845493760	; 0x6e000000
 e10:	67657461 	strbvs	r7, [r5, -r1, ror #8]!
 e14:	0079726f 	rsbseq	r7, r9, pc, ror #4
 e18:	756e755f 	strbvc	r7, [lr, #-1375]!	; 0x55f
 e1c:	5f646573 	svcpl	0x00646573
 e20:	646e6172 	strbtvs	r6, [lr], #-370	; 0x172
 e24:	64775f00 	ldrbtvs	r5, [r7], #-3840	; 0xf00
 e28:	5f5f0073 	svcpl	0x005f0073
 e2c:	775f6d74 			; <UNDEFINED> instruction: 0x775f6d74
 e30:	00796164 	rsbseq	r6, r9, r4, ror #2
 e34:	756c675f 	strbvc	r6, [ip, #-1887]!	; 0x75f
 e38:	50470065 	subpl	r0, r7, r5, rrx
 e3c:	465f4f49 	ldrbmi	r4, [pc], -r9, asr #30
 e40:	5f434e55 	svcpl	0x00434e55
 e44:	5054554f 	subspl	r5, r4, pc, asr #10
 e48:	5f005455 	svcpl	0x00005455
 e4c:	6c616d6e 	stclvs	13, cr6, [r1], #-440	; 0xfffffe48
 e50:	00636f6c 	rsbeq	r6, r3, ip, ror #30
 e54:	34366c5f 	ldrtcc	r6, [r6], #-3167	; 0xc5f
 e58:	75625f61 	strbvc	r5, [r2, #-3937]!	; 0xf61
 e5c:	65670066 	strbvs	r0, [r7, #-102]!	; 0x66
 e60:	00323374 	eorseq	r3, r2, r4, ror r3
 e64:	74726175 	ldrbtvc	r6, [r2], #-373	; 0x175
 e68:	6e61635f 	mcrvs	3, 3, r6, cr1, cr15, {2}
 e6c:	7465675f 	strbtvc	r6, [r5], #-1887	; 0x75f
 e70:	735f0063 	cmpvc	pc, #99	; 0x63
 e74:	665f6769 	ldrbvs	r6, [pc], -r9, ror #14
 e78:	00636e75 	rsbeq	r6, r3, r5, ror lr
 e7c:	695f726f 	ldmdbvs	pc, {r0, r1, r2, r3, r5, r6, r9, ip, sp, lr}^	; <UNPREDICTABLE>
 e80:	0032336e 	eorseq	r3, r2, lr, ror #6
 e84:	74726175 	ldrbtvc	r6, [r2], #-373	; 0x175
 e88:	7361685f 	cmnvc	r1, #6225920	; 0x5f0000
 e8c:	7461645f 	strbtvc	r6, [r1], #-1119	; 0x45f
 e90:	50470061 	subpl	r0, r7, r1, rrx
 e94:	465f4f49 	ldrbmi	r4, [pc], -r9, asr #30
 e98:	5f434e55 	svcpl	0x00434e55
 e9c:	30544c41 	subscc	r4, r4, r1, asr #24
 ea0:	626e5f00 	rsbvs	r5, lr, #0, 30
 ea4:	5f006675 	svcpl	0x00006675
 ea8:	73756e75 	cmnvc	r5, #1872	; 0x750
 eac:	47006465 	strmi	r6, [r0, -r5, ror #8]
 eb0:	5f4f4950 	svcpl	0x004f4950
 eb4:	434e5546 	movtmi	r5, #58694	; 0xe546
 eb8:	544c415f 	strbpl	r4, [ip], #-351	; 0x15f
 ebc:	50470033 	subpl	r0, r7, r3, lsr r0
 ec0:	465f4f49 	ldrbmi	r4, [pc], -r9, asr #30
 ec4:	5f434e55 	svcpl	0x00434e55
 ec8:	34544c41 	ldrbcc	r4, [r4], #-3137	; 0xc41
 ecc:	49504700 	ldmdbmi	r0, {r8, r9, sl, lr}^
 ed0:	55465f4f 	strbpl	r5, [r6, #-3919]	; 0xf4f
 ed4:	415f434e 	cmpmi	pc, lr, asr #6
 ed8:	0035544c 	eorseq	r5, r5, ip, asr #8
 edc:	6d745f5f 	ldclvs	15, cr5, [r4, #-380]!	; 0xfffffe84
 ee0:	6473695f 	ldrbtvs	r6, [r3], #-2399	; 0x95f
 ee4:	5f007473 	svcpl	0x00007473
 ee8:	61636f6c 	cmnvs	r3, ip, ror #30
 eec:	6d69746c 	cfstrdvs	mvd7, [r9, #-432]!	; 0xfffffe50
 ef0:	75625f65 	strbvc	r5, [r2, #-3941]!	; 0xf65
 ef4:	635f0066 	cmpvs	pc, #102	; 0x66
 ef8:	65736f6c 	ldrbvs	r6, [r3, #-3948]!	; 0xf6c
 efc:	34725f00 	ldrbtcc	r5, [r2], #-3840	; 0xf00
 f00:	6d5f0038 	ldclvs	0, cr0, [pc, #-224]	; e28 <__code_start__-0x71d8>
 f04:	776f7462 	strbvc	r7, [pc, -r2, ror #8]!
 f08:	74735f63 	ldrbtvc	r5, [r3], #-3939	; 0xf63
 f0c:	00657461 	rsbeq	r7, r5, r1, ror #8
 f10:	7335705f 	teqvc	r5, #95	; 0x5f
 f14:	745f5f00 	ldrbvc	r5, [pc], #-3840	; f1c <__code_start__-0x70e4>
 f18:	646d5f6d 	strbtvs	r5, [sp], #-3949	; 0xf6d
 f1c:	67007961 	strvs	r7, [r0, -r1, ror #18]
 f20:	5f6f6970 	svcpl	0x006f6970
 f24:	5f746573 	svcpl	0x00746573
 f28:	0066666f 	rsbeq	r6, r6, pc, ror #12
 f2c:	6b6e6162 	blvs	1b994bc <__bss_end__+0x1b8ee8c>
 f30:	69706700 	ldmdbvs	r0!, {r8, r9, sl, sp, lr}^
 f34:	00632e6f 	rsbeq	r2, r3, pc, ror #28
 f38:	6f697067 	svcvs	0x00697067
 f3c:	6165725f 	cmnvs	r5, pc, asr r2
 f40:	70670064 	rsbvc	r0, r7, r4, rrx
 f44:	735f6f69 	cmpvc	pc, #420	; 0x1a4
 f48:	6f5f7465 	svcvs	0x005f7465
 f4c:	75707475 	ldrbvc	r7, [r0, #-1141]!	; 0x475
 f50:	70670074 	rsbvc	r0, r7, r4, ror r0
 f54:	775f6f69 	ldrbvc	r6, [pc, -r9, ror #30]
 f58:	65746972 	ldrbvs	r6, [r4, #-2418]!	; 0x972
 f5c:	69706700 	ldmdbvs	r0!, {r8, r9, sl, sp, lr}^
 f60:	65735f6f 	ldrbvs	r5, [r3, #-3951]!	; 0xf6f
 f64:	67003074 	smlsdxvs	r0, r4, r0, r3
 f68:	5f6f6970 	svcpl	0x006f6970
 f6c:	3076656c 	rsbscc	r6, r6, ip, ror #10
 f70:	69706700 	ldmdbvs	r0!, {r8, r9, sl, sp, lr}^
 f74:	65735f6f 	ldrbvs	r5, [r3, #-3951]!	; 0xf6f
 f78:	6e695f74 	mcrvs	15, 3, r5, cr9, cr4, {3}
 f7c:	00747570 	rsbseq	r7, r4, r0, ror r5
 f80:	6f697067 	svcvs	0x00697067
 f84:	7465735f 	strbtvc	r7, [r5], #-863	; 0x35f
 f88:	006e6f5f 	rsbeq	r6, lr, pc, asr pc
 f8c:	6f697067 	svcvs	0x00697067
 f90:	6e75665f 	mrcvs	6, 3, r6, cr5, cr15, {2}
 f94:	00745f63 	rsbseq	r5, r4, r3, ror #30
 f98:	6f697067 	svcvs	0x00697067
 f9c:	726c635f 	rsbvc	r6, ip, #2080374785	; 0x7c000001
 fa0:	Address 0x0000000000000fa0 is out of bounds.


Disassembly of section .debug_frame:

00000000 <.debug_frame>:
   0:	0000000c 	andeq	r0, r0, ip
   4:	ffffffff 			; <UNDEFINED> instruction: 0xffffffff
   8:	7c020001 	stcvc	0, cr0, [r2], {1}
   c:	000d0c0e 	andeq	r0, sp, lr, lsl #24
  10:	0000000c 	andeq	r0, r0, ip
  14:	00000000 	andeq	r0, r0, r0
  18:	00008020 	andeq	r8, r0, r0, lsr #32
  1c:	00000004 	andeq	r0, r0, r4
  20:	0000000c 	andeq	r0, r0, ip
  24:	00000000 	andeq	r0, r0, r0
  28:	00008024 	andeq	r8, r0, r4, lsr #32
  2c:	00000008 	andeq	r0, r0, r8
  30:	0000000c 	andeq	r0, r0, ip
  34:	00000000 	andeq	r0, r0, r0
  38:	0000802c 	andeq	r8, r0, ip, lsr #32
  3c:	00000004 	andeq	r0, r0, r4
  40:	0000000c 	andeq	r0, r0, ip
  44:	00000000 	andeq	r0, r0, r0
  48:	00008030 	andeq	r8, r0, r0, lsr r0
  4c:	0000001c 	andeq	r0, r0, ip, lsl r0
  50:	0000000c 	andeq	r0, r0, ip
  54:	00000000 	andeq	r0, r0, r0
  58:	0000804c 	andeq	r8, r0, ip, asr #32
  5c:	00000070 	andeq	r0, r0, r0, ror r0
  60:	00000014 	andeq	r0, r0, r4, lsl r0
  64:	00000000 	andeq	r0, r0, r0
  68:	000080bc 	strheq	r8, [r0], -ip
  6c:	00000104 	andeq	r0, r0, r4, lsl #2
  70:	8e040e42 	cdphi	14, 0, cr0, cr4, cr2, {2}
  74:	480e4201 	stmdami	lr, {r0, r9, lr}
  78:	0000000c 	andeq	r0, r0, ip
  7c:	ffffffff 			; <UNDEFINED> instruction: 0xffffffff
  80:	7c020001 	stcvc	0, cr0, [r2], {1}
  84:	000d0c0e 	andeq	r0, sp, lr, lsl #24
  88:	00000014 	andeq	r0, r0, r4, lsl r0
  8c:	00000078 	andeq	r0, r0, r8, ror r0
  90:	000081c0 	andeq	r8, r0, r0, asr #3
  94:	000000b0 	strheq	r0, [r0], -r0	; <UNPREDICTABLE>
  98:	8e040e42 	cdphi	14, 0, cr0, cr4, cr2, {2}
  9c:	100e4201 	andne	r4, lr, r1, lsl #4
  a0:	00000014 	andeq	r0, r0, r4, lsl r0
  a4:	00000078 	andeq	r0, r0, r8, ror r0
  a8:	00008270 	andeq	r8, r0, r0, ror r2
  ac:	000000dc 	ldrdeq	r0, [r0], -ip
  b0:	8e040e42 	cdphi	14, 0, cr0, cr4, cr2, {2}
  b4:	100e4201 	andne	r4, lr, r1, lsl #4
  b8:	00000014 	andeq	r0, r0, r4, lsl r0
  bc:	00000078 	andeq	r0, r0, r8, ror r0
  c0:	0000834c 	andeq	r8, r0, ip, asr #6
  c4:	0000003c 	andeq	r0, r0, ip, lsr r0
  c8:	83080e42 	movwhi	r0, #36418	; 0x8e42
  cc:	00018e02 	andeq	r8, r1, r2, lsl #28
  d0:	0000000c 	andeq	r0, r0, ip
  d4:	00000078 	andeq	r0, r0, r8, ror r0
  d8:	00008388 	andeq	r8, r0, r8, lsl #7
  dc:	00000034 	andeq	r0, r0, r4, lsr r0
  e0:	00000014 	andeq	r0, r0, r4, lsl r0
  e4:	00000078 	andeq	r0, r0, r8, ror r0
  e8:	000083bc 			; <UNDEFINED> instruction: 0x000083bc
  ec:	00000098 	muleq	r0, r8, r0
  f0:	8e040e42 	cdphi	14, 0, cr0, cr4, cr2, {2}
  f4:	100e4201 	andne	r4, lr, r1, lsl #4
  f8:	0000000c 	andeq	r0, r0, ip
  fc:	00000078 	andeq	r0, r0, r8, ror r0
 100:	00008454 	andeq	r8, r0, r4, asr r4
 104:	00000004 	andeq	r0, r0, r4
 108:	00000014 	andeq	r0, r0, r4, lsl r0
 10c:	00000078 	andeq	r0, r0, r8, ror r0
 110:	00008458 	andeq	r8, r0, r8, asr r4
 114:	0000002c 	andeq	r0, r0, ip, lsr #32
 118:	83080e42 	movwhi	r0, #36418	; 0x8e42
 11c:	00018e02 	andeq	r8, r1, r2, lsl #28
 120:	0000000c 	andeq	r0, r0, ip
 124:	00000078 	andeq	r0, r0, r8, ror r0
 128:	00008484 	andeq	r8, r0, r4, lsl #9
 12c:	00000034 	andeq	r0, r0, r4, lsr r0
 130:	0000000c 	andeq	r0, r0, ip
 134:	00000078 	andeq	r0, r0, r8, ror r0
 138:	000084b8 			; <UNDEFINED> instruction: 0x000084b8
 13c:	00000010 	andeq	r0, r0, r0, lsl r0
 140:	00000014 	andeq	r0, r0, r4, lsl r0
 144:	00000078 	andeq	r0, r0, r8, ror r0
 148:	000084c8 	andeq	r8, r0, r8, asr #9
 14c:	00000070 	andeq	r0, r0, r0, ror r0
 150:	83080e42 	movwhi	r0, #36418	; 0x8e42
 154:	00018e02 	andeq	r8, r1, r2, lsl #28
 158:	0000000c 	andeq	r0, r0, ip
 15c:	ffffffff 			; <UNDEFINED> instruction: 0xffffffff
 160:	7c020001 	stcvc	0, cr0, [r2], {1}
 164:	000d0c0e 	andeq	r0, sp, lr, lsl #24
 168:	00000018 	andeq	r0, r0, r8, lsl r0
 16c:	00000158 	andeq	r0, r0, r8, asr r1
 170:	00008670 	andeq	r8, r0, r0, ror r6
 174:	000001ac 	andeq	r0, r0, ip, lsr #3
 178:	840c0e42 	strhi	r0, [ip], #-3650	; 0xe42
 17c:	8e028503 	cfsh32hi	mvfx8, mvfx2, #3
 180:	180e4201 	stmdane	lr, {r0, r9, lr}
 184:	00000024 	andeq	r0, r0, r4, lsr #32
 188:	00000158 	andeq	r0, r0, r8, asr r1
 18c:	0000881c 	andeq	r8, r0, ip, lsl r8
 190:	000004e0 	andeq	r0, r0, r0, ror #9
 194:	84240e42 	strthi	r0, [r4], #-3650	; 0xe42
 198:	86088509 	strhi	r8, [r8], -r9, lsl #10
 19c:	88068707 	stmdahi	r6, {r0, r1, r2, r8, r9, sl, pc}
 1a0:	8a048905 	bhi	1225bc <__bss_end__+0x117f8c>
 1a4:	8e028b03 	vmlahi.f64	d8, d2, d3
 1a8:	300e4201 	andcc	r4, lr, r1, lsl #4
 1ac:	00000018 	andeq	r0, r0, r8, lsl r0
 1b0:	00000158 	andeq	r0, r0, r8, asr r1
 1b4:	00008cfc 	strdeq	r8, [r0], -ip
 1b8:	00000084 	andeq	r0, r0, r4, lsl #1
 1bc:	83100e42 	tsthi	r0, #1056	; 0x420
 1c0:	85038404 	strhi	r8, [r3, #-1028]	; 0x404
 1c4:	00018e02 	andeq	r8, r1, r2, lsl #28
 1c8:	0000000c 	andeq	r0, r0, ip
 1cc:	00000158 	andeq	r0, r0, r8, asr r1
 1d0:	00008d80 	andeq	r8, r0, r0, lsl #27
 1d4:	00000028 	andeq	r0, r0, r8, lsr #32
 1d8:	00000014 	andeq	r0, r0, r4, lsl r0
 1dc:	00000158 	andeq	r0, r0, r8, asr r1
 1e0:	00008da8 	andeq	r8, r0, r8, lsr #27
 1e4:	0000004c 	andeq	r0, r0, ip, asr #32
 1e8:	84080e42 	strhi	r0, [r8], #-3650	; 0xe42
 1ec:	00018e02 	andeq	r8, r1, r2, lsl #28
 1f0:	0000000c 	andeq	r0, r0, ip
 1f4:	ffffffff 			; <UNDEFINED> instruction: 0xffffffff
 1f8:	7c020001 	stcvc	0, cr0, [r2], {1}
 1fc:	000d0c0e 	andeq	r0, sp, lr, lsl #24
 200:	00000024 	andeq	r0, r0, r4, lsr #32
 204:	000001f0 	strdeq	r0, [r0], -r0	; <UNPREDICTABLE>
 208:	00008df4 	strdeq	r8, [r0], -r4
 20c:	00000058 	andeq	r0, r0, r8, asr r0
 210:	80100e42 	andshi	r0, r0, r2, asr #28
 214:	82038104 	andhi	r8, r3, #4, 2
 218:	42018302 	andmi	r8, r1, #134217728	; 0x8000000
 21c:	07841c0e 	streq	r1, [r4, lr, lsl #24]
 220:	058e0685 	streq	r0, [lr, #1669]	; 0x685
 224:	00280e42 	eoreq	r0, r8, r2, asr #28
 228:	0000000c 	andeq	r0, r0, ip
 22c:	ffffffff 			; <UNDEFINED> instruction: 0xffffffff
 230:	7c020001 	stcvc	0, cr0, [r2], {1}
 234:	000d0c0e 	andeq	r0, sp, lr, lsl #24
 238:	00000014 	andeq	r0, r0, r4, lsl r0
 23c:	00000228 	andeq	r0, r0, r8, lsr #4
 240:	00008e4c 	andeq	r8, r0, ip, asr #28
 244:	00000014 	andeq	r0, r0, r4, lsl r0
 248:	84080e42 	strhi	r0, [r8], #-3650	; 0xe42
 24c:	00018e02 	andeq	r8, r1, r2, lsl #28
 250:	0000000c 	andeq	r0, r0, ip
 254:	00000228 	andeq	r0, r0, r8, lsr #4
 258:	00008e60 	andeq	r8, r0, r0, ror #28
 25c:	00000018 	andeq	r0, r0, r8, lsl r0
 260:	0000000c 	andeq	r0, r0, ip
 264:	00000228 	andeq	r0, r0, r8, lsr #4
 268:	00008e78 	andeq	r8, r0, r8, ror lr
 26c:	00000010 	andeq	r0, r0, r0, lsl r0
 270:	0000000c 	andeq	r0, r0, ip
 274:	ffffffff 			; <UNDEFINED> instruction: 0xffffffff
 278:	7c020001 	stcvc	0, cr0, [r2], {1}
 27c:	000d0c0e 	andeq	r0, sp, lr, lsl #24
 280:	00000018 	andeq	r0, r0, r8, lsl r0
 284:	00000270 	andeq	r0, r0, r0, ror r2
 288:	00008e88 	andeq	r8, r0, r8, lsl #29
 28c:	00000034 	andeq	r0, r0, r4, lsr r0
 290:	83100e42 	tsthi	r0, #1056	; 0x420
 294:	85038404 	strhi	r8, [r3, #-1028]	; 0x404
 298:	00018e02 	andeq	r8, r1, r2, lsl #28
 29c:	0000000c 	andeq	r0, r0, ip
 2a0:	ffffffff 			; <UNDEFINED> instruction: 0xffffffff
 2a4:	7c020001 	stcvc	0, cr0, [r2], {1}
 2a8:	000d0c0e 	andeq	r0, sp, lr, lsl #24
 2ac:	0000000c 	andeq	r0, r0, ip
 2b0:	0000029c 	muleq	r0, ip, r2
 2b4:	00008ebc 			; <UNDEFINED> instruction: 0x00008ebc
 2b8:	00000014 	andeq	r0, r0, r4, lsl r0
 2bc:	0000000c 	andeq	r0, r0, ip
 2c0:	0000029c 	muleq	r0, ip, r2
 2c4:	00008ed0 	ldrdeq	r8, [r0], -r0
 2c8:	0000002c 	andeq	r0, r0, ip, lsr #32
 2cc:	0000000c 	andeq	r0, r0, ip
 2d0:	0000029c 	muleq	r0, ip, r2
 2d4:	00008efc 	strdeq	r8, [r0], -ip
 2d8:	00000040 	andeq	r0, r0, r0, asr #32
 2dc:	00000020 	andeq	r0, r0, r0, lsr #32
 2e0:	0000029c 	muleq	r0, ip, r2
 2e4:	00008f3c 	andeq	r8, r0, ip, lsr pc
 2e8:	000001bc 			; <UNDEFINED> instruction: 0x000001bc
 2ec:	84180e42 	ldrhi	r0, [r8], #-3650	; 0xe42
 2f0:	86058506 	strhi	r8, [r5], -r6, lsl #10
 2f4:	88038704 	stmdahi	r3, {r2, r8, r9, sl, pc}
 2f8:	42018e02 	andmi	r8, r1, #2, 28
 2fc:	0000600e 	andeq	r6, r0, lr
 300:	00000014 	andeq	r0, r0, r4, lsl r0
 304:	0000029c 	muleq	r0, ip, r2
 308:	000090f8 	strdeq	r9, [r0], -r8
 30c:	00000068 	andeq	r0, r0, r8, rrx
 310:	8e040e42 	cdphi	14, 0, cr0, cr4, cr2, {2}
 314:	100e4201 	andne	r4, lr, r1, lsl #4
 318:	00000028 	andeq	r0, r0, r8, lsr #32
 31c:	0000029c 	muleq	r0, ip, r2
 320:	00009160 	andeq	r9, r0, r0, ror #2
 324:	000002d4 	ldrdeq	r0, [r0], -r4
 328:	84240e42 	strthi	r0, [r4], #-3650	; 0xe42
 32c:	86088509 	strhi	r8, [r8], -r9, lsl #10
 330:	88068707 	stmdahi	r6, {r0, r1, r2, r8, r9, sl, pc}
 334:	8a048905 	bhi	122750 <__bss_end__+0x118120>
 338:	8e028b03 	vmlahi.f64	d8, d2, d3
 33c:	b80e4201 	stmdalt	lr, {r0, r9, lr}
 340:	00000001 	andeq	r0, r0, r1
 344:	0000000c 	andeq	r0, r0, ip
 348:	ffffffff 			; <UNDEFINED> instruction: 0xffffffff
 34c:	7c020001 	stcvc	0, cr0, [r2], {1}
 350:	000d0c0e 	andeq	r0, sp, lr, lsl #24
 354:	0000000c 	andeq	r0, r0, ip
 358:	00000344 	andeq	r0, r0, r4, asr #6
 35c:	00009434 	andeq	r9, r0, r4, lsr r4
 360:	00000010 	andeq	r0, r0, r0, lsl r0
 364:	0000000c 	andeq	r0, r0, ip
 368:	00000344 	andeq	r0, r0, r4, asr #6
 36c:	00009444 	andeq	r9, r0, r4, asr #8
 370:	00000010 	andeq	r0, r0, r0, lsl r0
 374:	0000000c 	andeq	r0, r0, ip
 378:	ffffffff 			; <UNDEFINED> instruction: 0xffffffff
 37c:	7c020001 	stcvc	0, cr0, [r2], {1}
 380:	000d0c0e 	andeq	r0, sp, lr, lsl #24
 384:	00000014 	andeq	r0, r0, r4, lsl r0
 388:	00000374 	andeq	r0, r0, r4, ror r3
 38c:	00009454 	andeq	r9, r0, r4, asr r4
 390:	0000002c 	andeq	r0, r0, ip, lsr #32
 394:	83080e42 	movwhi	r0, #36418	; 0x8e42
 398:	00018e02 	andeq	r8, r1, r2, lsl #28
 39c:	0000000c 	andeq	r0, r0, ip
 3a0:	ffffffff 			; <UNDEFINED> instruction: 0xffffffff
 3a4:	7c020001 	stcvc	0, cr0, [r2], {1}
 3a8:	000d0c0e 	andeq	r0, sp, lr, lsl #24
 3ac:	00000014 	andeq	r0, r0, r4, lsl r0
 3b0:	0000039c 	muleq	r0, ip, r3
 3b4:	00009480 	andeq	r9, r0, r0, lsl #9
 3b8:	00000038 	andeq	r0, r0, r8, lsr r0
 3bc:	83080e42 	movwhi	r0, #36418	; 0x8e42
 3c0:	00018e02 	andeq	r8, r1, r2, lsl #28
 3c4:	0000000c 	andeq	r0, r0, ip
 3c8:	ffffffff 			; <UNDEFINED> instruction: 0xffffffff
 3cc:	7c020001 	stcvc	0, cr0, [r2], {1}
 3d0:	000d0c0e 	andeq	r0, sp, lr, lsl #24
 3d4:	00000014 	andeq	r0, r0, r4, lsl r0
 3d8:	000003c4 	andeq	r0, r0, r4, asr #7
 3dc:	000094b8 			; <UNDEFINED> instruction: 0x000094b8
 3e0:	00000044 	andeq	r0, r0, r4, asr #32
 3e4:	8e040e42 	cdphi	14, 0, cr0, cr4, cr2, {2}
 3e8:	100e4201 	andne	r4, lr, r1, lsl #4
 3ec:	0000000c 	andeq	r0, r0, ip
 3f0:	ffffffff 			; <UNDEFINED> instruction: 0xffffffff
 3f4:	7c020001 	stcvc	0, cr0, [r2], {1}
 3f8:	000d0c0e 	andeq	r0, sp, lr, lsl #24
 3fc:	00000014 	andeq	r0, r0, r4, lsl r0
 400:	000003ec 	andeq	r0, r0, ip, ror #7
 404:	000094fc 	strdeq	r9, [r0], -ip
 408:	00000044 	andeq	r0, r0, r4, asr #32
 40c:	8e040e42 	cdphi	14, 0, cr0, cr4, cr2, {2}
 410:	100e4201 	andne	r4, lr, r1, lsl #4
 414:	0000000c 	andeq	r0, r0, ip
 418:	ffffffff 			; <UNDEFINED> instruction: 0xffffffff
 41c:	7c020001 	stcvc	0, cr0, [r2], {1}
 420:	000d0c0e 	andeq	r0, sp, lr, lsl #24
 424:	00000014 	andeq	r0, r0, r4, lsl r0
 428:	00000414 	andeq	r0, r0, r4, lsl r4
 42c:	00009540 	andeq	r9, r0, r0, asr #10
 430:	00000044 	andeq	r0, r0, r4, asr #32
 434:	8e040e42 	cdphi	14, 0, cr0, cr4, cr2, {2}
 438:	100e4201 	andne	r4, lr, r1, lsl #4
 43c:	0000000c 	andeq	r0, r0, ip
 440:	ffffffff 			; <UNDEFINED> instruction: 0xffffffff
 444:	7c020001 	stcvc	0, cr0, [r2], {1}
 448:	000d0c0e 	andeq	r0, sp, lr, lsl #24
 44c:	0000000c 	andeq	r0, r0, ip
 450:	0000043c 	andeq	r0, r0, ip, lsr r4
 454:	00009584 	andeq	r9, r0, r4, lsl #11
 458:	00000004 	andeq	r0, r0, r4
 45c:	0000000c 	andeq	r0, r0, ip
 460:	0000043c 	andeq	r0, r0, ip, lsr r4
 464:	00009588 	andeq	r9, r0, r8, lsl #11
 468:	00000004 	andeq	r0, r0, r4
 46c:	0000000c 	andeq	r0, r0, ip
 470:	ffffffff 			; <UNDEFINED> instruction: 0xffffffff
 474:	7c020001 	stcvc	0, cr0, [r2], {1}
 478:	000d0c0e 	andeq	r0, sp, lr, lsl #24
 47c:	00000014 	andeq	r0, r0, r4, lsl r0
 480:	0000046c 	andeq	r0, r0, ip, ror #8
 484:	0000958c 	andeq	r9, r0, ip, lsl #11
 488:	0000006c 	andeq	r0, r0, ip, rrx
 48c:	83080e42 	movwhi	r0, #36418	; 0x8e42
 490:	00018e02 	andeq	r8, r1, r2, lsl #28
 494:	0000000c 	andeq	r0, r0, ip
 498:	ffffffff 			; <UNDEFINED> instruction: 0xffffffff
 49c:	7c020001 	stcvc	0, cr0, [r2], {1}
 4a0:	000d0c0e 	andeq	r0, sp, lr, lsl #24
 4a4:	0000000c 	andeq	r0, r0, ip
 4a8:	00000494 	muleq	r0, r4, r4
 4ac:	000095f8 	strdeq	r9, [r0], -r8
 4b0:	00000018 	andeq	r0, r0, r8, lsl r0
 4b4:	0000000c 	andeq	r0, r0, ip
 4b8:	00000494 	muleq	r0, r4, r4
 4bc:	00009610 	andeq	r9, r0, r0, lsl r6
 4c0:	00000014 	andeq	r0, r0, r4, lsl r0
 4c4:	00000014 	andeq	r0, r0, r4, lsl r0
 4c8:	00000494 	muleq	r0, r4, r4
 4cc:	00009624 	andeq	r9, r0, r4, lsr #12
 4d0:	00000048 	andeq	r0, r0, r8, asr #32
 4d4:	83080e42 	movwhi	r0, #36418	; 0x8e42
 4d8:	00018e02 	andeq	r8, r1, r2, lsl #28
 4dc:	0000000c 	andeq	r0, r0, ip
 4e0:	ffffffff 			; <UNDEFINED> instruction: 0xffffffff
 4e4:	7c020001 	stcvc	0, cr0, [r2], {1}
 4e8:	000d0c0e 	andeq	r0, sp, lr, lsl #24
 4ec:	0000000c 	andeq	r0, r0, ip
 4f0:	000004dc 	ldrdeq	r0, [r0], -ip
 4f4:	0000966c 	andeq	r9, r0, ip, ror #12
 4f8:	0000001c 	andeq	r0, r0, ip, lsl r0
 4fc:	00000014 	andeq	r0, r0, r4, lsl r0
 500:	000004dc 	ldrdeq	r0, [r0], -ip
 504:	00009688 	andeq	r9, r0, r8, lsl #13
 508:	00000014 	andeq	r0, r0, r4, lsl r0
 50c:	83080e42 	movwhi	r0, #36418	; 0x8e42
 510:	00018e02 	andeq	r8, r1, r2, lsl #28
 514:	00000014 	andeq	r0, r0, r4, lsl r0
 518:	000004dc 	ldrdeq	r0, [r0], -ip
 51c:	0000969c 	muleq	r0, ip, r6
 520:	0000001c 	andeq	r0, r0, ip, lsl r0
 524:	84080e42 	strhi	r0, [r8], #-3650	; 0xe42
 528:	00018e02 	andeq	r8, r1, r2, lsl #28
 52c:	00000018 	andeq	r0, r0, r8, lsl r0
 530:	000004dc 	ldrdeq	r0, [r0], -ip
 534:	000096b8 			; <UNDEFINED> instruction: 0x000096b8
 538:	00000024 	andeq	r0, r0, r4, lsr #32
 53c:	83100e42 	tsthi	r0, #1056	; 0x420
 540:	85038404 	strhi	r8, [r3, #-1028]	; 0x404
 544:	00018e02 	andeq	r8, r1, r2, lsl #28
 548:	00000014 	andeq	r0, r0, r4, lsl r0
 54c:	000004dc 	ldrdeq	r0, [r0], -ip
 550:	000096dc 	ldrdeq	r9, [r0], -ip
 554:	00000014 	andeq	r0, r0, r4, lsl r0
 558:	83080e42 	movwhi	r0, #36418	; 0x8e42
 55c:	00018e02 	andeq	r8, r1, r2, lsl #28
 560:	00000014 	andeq	r0, r0, r4, lsl r0
 564:	000004dc 	ldrdeq	r0, [r0], -ip
 568:	000096f0 	strdeq	r9, [r0], -r0
 56c:	00000014 	andeq	r0, r0, r4, lsl r0
 570:	83080e42 	movwhi	r0, #36418	; 0x8e42
 574:	00018e02 	andeq	r8, r1, r2, lsl #28
 578:	0000000c 	andeq	r0, r0, ip
 57c:	ffffffff 			; <UNDEFINED> instruction: 0xffffffff
 580:	7c020001 	stcvc	0, cr0, [r2], {1}
 584:	000d0c0e 	andeq	r0, sp, lr, lsl #24
 588:	00000018 	andeq	r0, r0, r8, lsl r0
 58c:	00000578 	andeq	r0, r0, r8, ror r5
 590:	00009768 	andeq	r9, r0, r8, ror #14
 594:	00000020 	andeq	r0, r0, r0, lsr #32
 598:	84100e42 	ldrhi	r0, [r0], #-3650	; 0xe42
 59c:	86038504 	strhi	r8, [r3], -r4, lsl #10
 5a0:	00018e02 	andeq	r8, r1, r2, lsl #28
 5a4:	00000014 	andeq	r0, r0, r4, lsl r0
 5a8:	00000578 	andeq	r0, r0, r8, ror r5
 5ac:	00009788 	andeq	r9, r0, r8, lsl #15
 5b0:	000000b0 	strheq	r0, [r0], -r0	; <UNPREDICTABLE>
 5b4:	84080e42 	strhi	r0, [r8], #-3650	; 0xe42
 5b8:	00018e02 	andeq	r8, r1, r2, lsl #28
 5bc:	00000014 	andeq	r0, r0, r4, lsl r0
 5c0:	00000578 	andeq	r0, r0, r8, ror r5
 5c4:	00009838 	andeq	r9, r0, r8, lsr r8
 5c8:	00000018 	andeq	r0, r0, r8, lsl r0
 5cc:	84080e42 	strhi	r0, [r8], #-3650	; 0xe42
 5d0:	00018e02 	andeq	r8, r1, r2, lsl #28
 5d4:	00000014 	andeq	r0, r0, r4, lsl r0
 5d8:	00000578 	andeq	r0, r0, r8, ror r5
 5dc:	00009850 	andeq	r9, r0, r0, asr r8
 5e0:	00000020 	andeq	r0, r0, r0, lsr #32
 5e4:	84080e42 	strhi	r0, [r8], #-3650	; 0xe42
 5e8:	00018e02 	andeq	r8, r1, r2, lsl #28
 5ec:	00000014 	andeq	r0, r0, r4, lsl r0
 5f0:	00000578 	andeq	r0, r0, r8, ror r5
 5f4:	00009870 	andeq	r9, r0, r0, ror r8
 5f8:	00000030 	andeq	r0, r0, r0, lsr r0
 5fc:	84080e42 	strhi	r0, [r8], #-3650	; 0xe42
 600:	00018e02 	andeq	r8, r1, r2, lsl #28
 604:	00000014 	andeq	r0, r0, r4, lsl r0
 608:	00000578 	andeq	r0, r0, r8, ror r5
 60c:	000098a0 	andeq	r9, r0, r0, lsr #17
 610:	00000030 	andeq	r0, r0, r0, lsr r0
 614:	84080e42 	strhi	r0, [r8], #-3650	; 0xe42
 618:	00018e02 	andeq	r8, r1, r2, lsl #28
 61c:	00000014 	andeq	r0, r0, r4, lsl r0
 620:	00000578 	andeq	r0, r0, r8, ror r5
 624:	000098d0 	ldrdeq	r9, [r0], -r0
 628:	00000010 	andeq	r0, r0, r0, lsl r0
 62c:	84080e42 	strhi	r0, [r8], #-3650	; 0xe42
 630:	00018e02 	andeq	r8, r1, r2, lsl #28
 634:	0000000c 	andeq	r0, r0, ip
 638:	ffffffff 			; <UNDEFINED> instruction: 0xffffffff
 63c:	7c020001 	stcvc	0, cr0, [r2], {1}
 640:	000d0c0e 	andeq	r0, sp, lr, lsl #24
 644:	00000018 	andeq	r0, r0, r8, lsl r0
 648:	00000634 	andeq	r0, r0, r4, lsr r6
 64c:	000098e0 	andeq	r9, r0, r0, ror #17
 650:	00000068 	andeq	r0, r0, r8, rrx
 654:	84100e4a 	ldrhi	r0, [r0], #-3658	; 0xe4a
 658:	86038504 	strhi	r8, [r3], -r4, lsl #10
 65c:	00018e02 	andeq	r8, r1, r2, lsl #28
 660:	00000014 	andeq	r0, r0, r4, lsl r0
 664:	00000634 	andeq	r0, r0, r4, lsr r6
 668:	00009948 	andeq	r9, r0, r8, asr #18
 66c:	00000010 	andeq	r0, r0, r0, lsl r0
 670:	84080e42 	strhi	r0, [r8], #-3650	; 0xe42
 674:	00018e02 	andeq	r8, r1, r2, lsl #28
 678:	00000014 	andeq	r0, r0, r4, lsl r0
 67c:	00000634 	andeq	r0, r0, r4, lsr r6
 680:	00009958 	andeq	r9, r0, r8, asr r9
 684:	00000024 	andeq	r0, r0, r4, lsr #32
 688:	84080e46 	strhi	r0, [r8], #-3654	; 0xe46
 68c:	00018e02 	andeq	r8, r1, r2, lsl #28
 690:	00000014 	andeq	r0, r0, r4, lsl r0
 694:	00000634 	andeq	r0, r0, r4, lsr r6
 698:	0000997c 	andeq	r9, r0, ip, ror r9
 69c:	00000024 	andeq	r0, r0, r4, lsr #32
 6a0:	84080e46 	strhi	r0, [r8], #-3654	; 0xe46
 6a4:	00018e02 	andeq	r8, r1, r2, lsl #28
 6a8:	00000014 	andeq	r0, r0, r4, lsl r0
 6ac:	00000634 	andeq	r0, r0, r4, lsr r6
 6b0:	000099a0 	andeq	r9, r0, r0, lsr #19
 6b4:	00000010 	andeq	r0, r0, r0, lsl r0
 6b8:	84080e42 	strhi	r0, [r8], #-3650	; 0xe42
 6bc:	00018e02 	andeq	r8, r1, r2, lsl #28
 6c0:	00000014 	andeq	r0, r0, r4, lsl r0
 6c4:	00000634 	andeq	r0, r0, r4, lsr r6
 6c8:	000099b0 			; <UNDEFINED> instruction: 0x000099b0
 6cc:	0000001c 	andeq	r0, r0, ip, lsl r0
 6d0:	84080e42 	strhi	r0, [r8], #-3650	; 0xe42
 6d4:	00018e02 	andeq	r8, r1, r2, lsl #28
 6d8:	00000018 	andeq	r0, r0, r8, lsl r0
 6dc:	00000634 	andeq	r0, r0, r4, lsr r6
 6e0:	000099cc 	andeq	r9, r0, ip, asr #19
 6e4:	00000034 	andeq	r0, r0, r4, lsr r0
 6e8:	84080e46 	strhi	r0, [r8], #-3654	; 0xe46
 6ec:	4e018e02 	cdpmi	14, 0, cr8, cr1, cr2, {0}
 6f0:	cec4000e 	cdpgt	0, 12, cr0, cr4, cr14, {0}

Disassembly of section .debug_ranges:

00000000 <.debug_ranges>:
   0:	000095f8 	strdeq	r9, [r0], -r8
   4:	0000966c 	andeq	r9, r0, ip, ror #12
	...
