
tests2.0/16-part2-test2.elf:     file format elf32-littlearm


Disassembly of section .text:

00008000 <__code_start__>:
    8000:	e3a00013 	mov	r0, #19
    8004:	e129f000 	msr	CPSR_fc, r0
    8008:	e3a01000 	mov	r1, #0
    800c:	ee073f95 	mcr	15, 0, r3, cr7, cr5, {4}
    8010:	e3a0d302 	mov	sp, #134217728	; 0x8000000
    8014:	e3a0b000 	mov	fp, #0
    8018:	eb000522 	bl	94a8 <_cstart>
    801c:	eb00058a 	bl	964c <rpi_reboot>

00008020 <eps_A>:
    8020:	e52de004 	push	{lr}		; (str lr, [sp, #-4]!)
    8024:	e24dd00c 	sub	sp, sp, #12
    8028:	e10f3000 	mrs	r3, CPSR
    802c:	e203301f 	and	r3, r3, #31
    8030:	e3530012 	cmp	r3, #18
    8034:	13530010 	cmpne	r3, #16
    8038:	0a000006 	beq	8058 <eps_A+0x38>
    803c:	e3530017 	cmp	r3, #23
    8040:	13530013 	cmpne	r3, #19
    8044:	0a000005 	beq	8060 <eps_A+0x40>
    8048:	e353001f 	cmp	r3, #31
    804c:	1a000005 	bne	8068 <eps_A+0x48>
    8050:	e3a02001 	mov	r2, #1
    8054:	ea000004 	b	806c <eps_A+0x4c>
    8058:	e3a02001 	mov	r2, #1
    805c:	ea000002 	b	806c <eps_A+0x4c>
    8060:	e3a02001 	mov	r2, #1
    8064:	ea000000 	b	806c <eps_A+0x4c>
    8068:	e3a02000 	mov	r2, #0
    806c:	e3520000 	cmp	r2, #0
    8070:	1a000008 	bne	8098 <eps_A+0x78>
    8074:	eb000383 	bl	8e88 <rpi_reset_putc>
    8078:	e59f304c 	ldr	r3, [pc, #76]	; 80cc <eps_A+0xac>
    807c:	e58d3000 	str	r3, [sp]
    8080:	e59f0048 	ldr	r0, [pc, #72]	; 80d0 <eps_A+0xb0>
    8084:	e59f1048 	ldr	r1, [pc, #72]	; 80d4 <eps_A+0xb4>
    8088:	e59f2048 	ldr	r2, [pc, #72]	; 80d8 <eps_A+0xb8>
    808c:	e3a03011 	mov	r3, #17
    8090:	eb000361 	bl	8e1c <printk>
    8094:	eb0004f8 	bl	947c <clean_reboot>
    8098:	e3530010 	cmp	r3, #16
    809c:	0a000008 	beq	80c4 <eps_A+0xa4>
    80a0:	eb000378 	bl	8e88 <rpi_reset_putc>
    80a4:	e59f3030 	ldr	r3, [pc, #48]	; 80dc <eps_A+0xbc>
    80a8:	e58d3000 	str	r3, [sp]
    80ac:	e59f001c 	ldr	r0, [pc, #28]	; 80d0 <eps_A+0xb0>
    80b0:	e59f1028 	ldr	r1, [pc, #40]	; 80e0 <eps_A+0xc0>
    80b4:	e59f2028 	ldr	r2, [pc, #40]	; 80e4 <eps_A+0xc4>
    80b8:	e3a03006 	mov	r3, #6
    80bc:	eb000356 	bl	8e1c <printk>
    80c0:	eb0004ed 	bl	947c <clean_reboot>
    80c4:	e28dd00c 	add	sp, sp, #12
    80c8:	e49df004 	pop	{pc}		; (ldr pc, [sp], #4)
    80cc:	00009a54 	andeq	r9, r0, r4, asr sl
    80d0:	00009a30 	andeq	r9, r0, r0, lsr sl
    80d4:	00009a44 	andeq	r9, r0, r4, asr #20
    80d8:	00009b6c 	andeq	r9, r0, ip, ror #22
    80dc:	00009a84 	andeq	r9, r0, r4, lsl #21
    80e0:	00009a68 	andeq	r9, r0, r8, ror #20
    80e4:	00009b64 	andeq	r9, r0, r4, ror #22

000080e8 <eps_B>:
    80e8:	e3a00001 	mov	r0, #1
    80ec:	e12fff1e 	bx	lr

000080f0 <eps_init>:
    80f0:	e12fff1e 	bx	lr

000080f4 <eps_check>:
    80f4:	e3a00001 	mov	r0, #1
    80f8:	e12fff1e 	bx	lr

000080fc <eps_mk_checker>:
    80fc:	e1a03000 	mov	r3, r0
    8100:	e3a02000 	mov	r2, #0
    8104:	e4832004 	str	r2, [r3], #4
    8108:	e2833008 	add	r3, r3, #8
    810c:	e4832004 	str	r2, [r3], #4
    8110:	e4832004 	str	r2, [r3], #4
    8114:	e4832004 	str	r2, [r3], #4
    8118:	e4832004 	str	r2, [r3], #4
    811c:	e4832004 	str	r2, [r3], #4
    8120:	e4832004 	str	r2, [r3], #4
    8124:	e4832004 	str	r2, [r3], #4
    8128:	e4832004 	str	r2, [r3], #4
    812c:	e4832004 	str	r2, [r3], #4
    8130:	e4832004 	str	r2, [r3], #4
    8134:	e5832000 	str	r2, [r3]
    8138:	e59f301c 	ldr	r3, [pc, #28]	; 815c <eps_mk_checker+0x60>
    813c:	e5803004 	str	r3, [r0, #4]
    8140:	e59f3018 	ldr	r3, [pc, #24]	; 8160 <eps_mk_checker+0x64>
    8144:	e5803008 	str	r3, [r0, #8]
    8148:	e59f3014 	ldr	r3, [pc, #20]	; 8164 <eps_mk_checker+0x68>
    814c:	e580300c 	str	r3, [r0, #12]
    8150:	e59f3010 	ldr	r3, [pc, #16]	; 8168 <eps_mk_checker+0x6c>
    8154:	e5803010 	str	r3, [r0, #16]
    8158:	e12fff1e 	bx	lr
    815c:	00008020 	andeq	r8, r0, r0, lsr #32
    8160:	000080e8 	andeq	r8, r0, r8, ror #1
    8164:	000080f0 	strdeq	r8, [r0], -r0
    8168:	000080f4 	strdeq	r8, [r0], -r4

0000816c <notmain>:
    816c:	e52de004 	push	{lr}		; (str lr, [sp, #-4]!)
    8170:	e24dd044 	sub	sp, sp, #68	; 0x44
    8174:	eb0004b8 	bl	945c <enable_cache>
    8178:	e3a02000 	mov	r2, #0
    817c:	e59f30bc 	ldr	r3, [pc, #188]	; 8240 <notmain+0xd4>
    8180:	e5832000 	str	r2, [r3]
    8184:	e28d0008 	add	r0, sp, #8
    8188:	ebffffdb 	bl	80fc <eps_mk_checker>
    818c:	e28d0008 	add	r0, sp, #8
    8190:	eb00030e 	bl	8dd0 <check>
    8194:	e3500000 	cmp	r0, #0
    8198:	1a000016 	bne	81f8 <notmain+0x8c>
    819c:	e59d3034 	ldr	r3, [sp, #52]	; 0x34
    81a0:	e3530000 	cmp	r3, #0
    81a4:	1a000008 	bne	81cc <notmain+0x60>
    81a8:	eb000336 	bl	8e88 <rpi_reset_putc>
    81ac:	e59f3090 	ldr	r3, [pc, #144]	; 8244 <notmain+0xd8>
    81b0:	e58d3000 	str	r3, [sp]
    81b4:	e59f008c 	ldr	r0, [pc, #140]	; 8248 <notmain+0xdc>
    81b8:	e59f108c 	ldr	r1, [pc, #140]	; 824c <notmain+0xe0>
    81bc:	e59f208c 	ldr	r2, [pc, #140]	; 8250 <notmain+0xe4>
    81c0:	e3a0301d 	mov	r3, #29
    81c4:	eb000314 	bl	8e1c <printk>
    81c8:	eb0004ab 	bl	947c <clean_reboot>
    81cc:	eb00032d 	bl	8e88 <rpi_reset_putc>
    81d0:	e59d3030 	ldr	r3, [sp, #48]	; 0x30
    81d4:	e58d3000 	str	r3, [sp]
    81d8:	e59d3034 	ldr	r3, [sp, #52]	; 0x34
    81dc:	e58d3004 	str	r3, [sp, #4]
    81e0:	e59f006c 	ldr	r0, [pc, #108]	; 8254 <notmain+0xe8>
    81e4:	e59f1060 	ldr	r1, [pc, #96]	; 824c <notmain+0xe0>
    81e8:	e59f2060 	ldr	r2, [pc, #96]	; 8250 <notmain+0xe4>
    81ec:	e3a0301f 	mov	r3, #31
    81f0:	eb000309 	bl	8e1c <printk>
    81f4:	eb0004a0 	bl	947c <clean_reboot>
    81f8:	e59d3034 	ldr	r3, [sp, #52]	; 0x34
    81fc:	e3530000 	cmp	r3, #0
    8200:	0a000008 	beq	8228 <notmain+0xbc>
    8204:	eb00031f 	bl	8e88 <rpi_reset_putc>
    8208:	e59f3048 	ldr	r3, [pc, #72]	; 8258 <notmain+0xec>
    820c:	e58d3000 	str	r3, [sp]
    8210:	e59f0030 	ldr	r0, [pc, #48]	; 8248 <notmain+0xdc>
    8214:	e59f1030 	ldr	r1, [pc, #48]	; 824c <notmain+0xe0>
    8218:	e59f2030 	ldr	r2, [pc, #48]	; 8250 <notmain+0xe4>
    821c:	e3a03021 	mov	r3, #33	; 0x21
    8220:	eb0002fd 	bl	8e1c <printk>
    8224:	eb000494 	bl	947c <clean_reboot>
    8228:	e59f002c 	ldr	r0, [pc, #44]	; 825c <notmain+0xf0>
    822c:	eb0002fa 	bl	8e1c <printk>
    8230:	e59f0028 	ldr	r0, [pc, #40]	; 8260 <notmain+0xf4>
    8234:	e59d1030 	ldr	r1, [sp, #48]	; 0x30
    8238:	eb0002f7 	bl	8e1c <printk>
    823c:	eb00048e 	bl	947c <clean_reboot>
    8240:	0000a220 	andeq	sl, r0, r0, lsr #4
    8244:	00009aa8 	andeq	r9, r0, r8, lsr #21
    8248:	00009a30 	andeq	r9, r0, r0, lsr sl
    824c:	00009a68 	andeq	r9, r0, r8, ror #20
    8250:	00009b84 	andeq	r9, r0, r4, lsl #23
    8254:	00009ab4 			; <UNDEFINED> instruction: 0x00009ab4
    8258:	00009afc 	strdeq	r9, [r0], -ip
    825c:	00009b08 	andeq	r9, r0, r8, lsl #22
    8260:	00009b14 	andeq	r9, r0, r4, lsl fp

00008264 <watchpt_set0>:
    8264:	e52de004 	push	{lr}		; (str lr, [sp, #-4]!)
    8268:	e24dd00c 	sub	sp, sp, #12
    826c:	ee103ef0 	mrc	14, 0, r3, cr0, cr0, {7}
    8270:	e3c33001 	bic	r3, r3, #1
    8274:	ee003ef0 	mcr	14, 0, r3, cr0, cr0, {7}
    8278:	ee102ef0 	mrc	14, 0, r2, cr0, cr0, {7}
    827c:	e1530002 	cmp	r3, r2
    8280:	0a000008 	beq	82a8 <watchpt_set0+0x44>
    8284:	eb0002ff 	bl	8e88 <rpi_reset_putc>
    8288:	e59f306c 	ldr	r3, [pc, #108]	; 82fc <watchpt_set0+0x98>
    828c:	e58d3000 	str	r3, [sp]
    8290:	e59f0068 	ldr	r0, [pc, #104]	; 8300 <watchpt_set0+0x9c>
    8294:	e59f1068 	ldr	r1, [pc, #104]	; 8304 <watchpt_set0+0xa0>
    8298:	e59f2068 	ldr	r2, [pc, #104]	; 8308 <watchpt_set0+0xa4>
    829c:	e3a03041 	mov	r3, #65	; 0x41
    82a0:	eb0002dd 	bl	8e1c <printk>
    82a4:	eb000474 	bl	947c <clean_reboot>
    82a8:	ee000ed0 	mcr	14, 0, r0, cr0, cr0, {6}
    82ac:	e59f3058 	ldr	r3, [pc, #88]	; 830c <watchpt_set0+0xa8>
    82b0:	ee003ef0 	mcr	14, 0, r3, cr0, cr0, {7}
    82b4:	ee102ef0 	mrc	14, 0, r2, cr0, cr0, {7}
    82b8:	e1520003 	cmp	r2, r3
    82bc:	0a000008 	beq	82e4 <watchpt_set0+0x80>
    82c0:	eb0002f0 	bl	8e88 <rpi_reset_putc>
    82c4:	e59f3030 	ldr	r3, [pc, #48]	; 82fc <watchpt_set0+0x98>
    82c8:	e58d3000 	str	r3, [sp]
    82cc:	e59f002c 	ldr	r0, [pc, #44]	; 8300 <watchpt_set0+0x9c>
    82d0:	e59f102c 	ldr	r1, [pc, #44]	; 8304 <watchpt_set0+0xa0>
    82d4:	e59f202c 	ldr	r2, [pc, #44]	; 8308 <watchpt_set0+0xa4>
    82d8:	e3a03052 	mov	r3, #82	; 0x52
    82dc:	eb0002ce 	bl	8e1c <printk>
    82e0:	eb000465 	bl	947c <clean_reboot>
    82e4:	e3a03000 	mov	r3, #0
    82e8:	ee073f95 	mcr	15, 0, r3, cr7, cr5, {4}
    82ec:	e59f301c 	ldr	r3, [pc, #28]	; 8310 <watchpt_set0+0xac>
    82f0:	e5831000 	str	r1, [r3]
    82f4:	e28dd00c 	add	sp, sp, #12
    82f8:	e49df004 	pop	{pc}		; (ldr pc, [sp], #4)
    82fc:	00009b9c 	muleq	r0, ip, fp
    8300:	00009a30 	andeq	r9, r0, r0, lsr sl
    8304:	00009b8c 	andeq	r9, r0, ip, lsl #23
    8308:	00009cb4 			; <UNDEFINED> instruction: 0x00009cb4
    830c:	000001ff 	strdeq	r0, [r0], -pc	; <UNPREDICTABLE>
    8310:	0000a218 	andeq	sl, r0, r8, lsl r2

00008314 <data_abort_vector>:
    8314:	e52de004 	push	{lr}		; (str lr, [sp, #-4]!)
    8318:	e24dd00c 	sub	sp, sp, #12
    831c:	e1a01000 	mov	r1, r0
    8320:	ee153f10 	mrc	15, 0, r3, cr5, cr0, {0}
    8324:	ee153f10 	mrc	15, 0, r3, cr5, cr0, {0}
    8328:	e203300f 	and	r3, r3, #15
    832c:	e3530002 	cmp	r3, #2
    8330:	0a000006 	beq	8350 <data_abort_vector+0x3c>
    8334:	eb0002d3 	bl	8e88 <rpi_reset_putc>
    8338:	e59f008c 	ldr	r0, [pc, #140]	; 83cc <data_abort_vector+0xb8>
    833c:	e59f108c 	ldr	r1, [pc, #140]	; 83d0 <data_abort_vector+0xbc>
    8340:	e59f208c 	ldr	r2, [pc, #140]	; 83d4 <data_abort_vector+0xc0>
    8344:	e3a03079 	mov	r3, #121	; 0x79
    8348:	eb0002b3 	bl	8e1c <printk>
    834c:	eb00044a 	bl	947c <clean_reboot>
    8350:	ee103e16 	mrc	14, 0, r3, cr0, cr6, {0}
    8354:	e2433004 	sub	r3, r3, #4
    8358:	e1530000 	cmp	r3, r0
    835c:	0a000008 	beq	8384 <data_abort_vector+0x70>
    8360:	eb0002c8 	bl	8e88 <rpi_reset_putc>
    8364:	e59f306c 	ldr	r3, [pc, #108]	; 83d8 <data_abort_vector+0xc4>
    8368:	e58d3000 	str	r3, [sp]
    836c:	e59f0068 	ldr	r0, [pc, #104]	; 83dc <data_abort_vector+0xc8>
    8370:	e59f1068 	ldr	r1, [pc, #104]	; 83e0 <data_abort_vector+0xcc>
    8374:	e59f2068 	ldr	r2, [pc, #104]	; 83e4 <data_abort_vector+0xd0>
    8378:	e3a03067 	mov	r3, #103	; 0x67
    837c:	eb0002a6 	bl	8e1c <printk>
    8380:	eb00043d 	bl	947c <clean_reboot>
    8384:	e59f305c 	ldr	r3, [pc, #92]	; 83e8 <data_abort_vector+0xd4>
    8388:	e5933000 	ldr	r3, [r3]
    838c:	e3530000 	cmp	r3, #0
    8390:	1a000008 	bne	83b8 <data_abort_vector+0xa4>
    8394:	eb0002bb 	bl	8e88 <rpi_reset_putc>
    8398:	e59f304c 	ldr	r3, [pc, #76]	; 83ec <data_abort_vector+0xd8>
    839c:	e58d3000 	str	r3, [sp]
    83a0:	e59f0034 	ldr	r0, [pc, #52]	; 83dc <data_abort_vector+0xc8>
    83a4:	e59f1034 	ldr	r1, [pc, #52]	; 83e0 <data_abort_vector+0xcc>
    83a8:	e59f2034 	ldr	r2, [pc, #52]	; 83e4 <data_abort_vector+0xd0>
    83ac:	e3a03069 	mov	r3, #105	; 0x69
    83b0:	eb000299 	bl	8e1c <printk>
    83b4:	eb000430 	bl	947c <clean_reboot>
    83b8:	ee162f10 	mrc	15, 0, r2, cr6, cr0, {0}
    83bc:	e3a00000 	mov	r0, #0
    83c0:	e12fff33 	blx	r3
    83c4:	e28dd00c 	add	sp, sp, #12
    83c8:	e49df004 	pop	{pc}		; (ldr pc, [sp], #4)
    83cc:	00009bb4 			; <UNDEFINED> instruction: 0x00009bb4
    83d0:	00009bec 	andeq	r9, r0, ip, ror #23
    83d4:	00009cd8 	ldrdeq	r9, [r0], -r8
    83d8:	00009bfc 	strdeq	r9, [r0], -ip
    83dc:	00009a30 	andeq	r9, r0, r0, lsr sl
    83e0:	00009b8c 	andeq	r9, r0, ip, lsl #23
    83e4:	00009cc4 	andeq	r9, r0, r4, asr #25
    83e8:	0000a218 	andeq	sl, r0, r8, lsl r2
    83ec:	00009c10 	andeq	r9, r0, r0, lsl ip

000083f0 <cp14_enable>:
    83f0:	e92d4008 	push	{r3, lr}
    83f4:	e59f302c 	ldr	r3, [pc, #44]	; 8428 <cp14_enable+0x38>
    83f8:	e5933000 	ldr	r3, [r3]
    83fc:	e3530000 	cmp	r3, #0
    8400:	1a000003 	bne	8414 <cp14_enable+0x24>
    8404:	eb00046a 	bl	95b4 <int_init>
    8408:	e3a02001 	mov	r2, #1
    840c:	e59f3014 	ldr	r3, [pc, #20]	; 8428 <cp14_enable+0x38>
    8410:	e5832000 	str	r2, [r3]
    8414:	e3a03902 	mov	r3, #32768	; 0x8000
    8418:	ee003e11 	mcr	14, 0, r3, cr0, cr1, {0}
    841c:	e3a03000 	mov	r3, #0
    8420:	ee073f95 	mcr	15, 0, r3, cr7, cr5, {4}
    8424:	e8bd8008 	pop	{r3, pc}
    8428:	0000a228 	andeq	sl, r0, r8, lsr #4

0000842c <brkpt_set0>:
    842c:	ee103eb0 	mrc	14, 0, r3, cr0, cr0, {5}
    8430:	e3c33001 	bic	r3, r3, #1
    8434:	ee003eb0 	mcr	14, 0, r3, cr0, cr0, {5}
    8438:	ee000e90 	mcr	14, 0, r0, cr0, cr0, {4}
    843c:	e59f3014 	ldr	r3, [pc, #20]	; 8458 <brkpt_set0+0x2c>
    8440:	ee003eb0 	mcr	14, 0, r3, cr0, cr0, {5}
    8444:	e3a03000 	mov	r3, #0
    8448:	ee073f95 	mcr	15, 0, r3, cr7, cr5, {4}
    844c:	e59f3008 	ldr	r3, [pc, #8]	; 845c <brkpt_set0+0x30>
    8450:	e5831000 	str	r1, [r3]
    8454:	e12fff1e 	bx	lr
    8458:	000001e7 	andeq	r0, r0, r7, ror #3
    845c:	0000a21c 	andeq	sl, r0, ip, lsl r2

00008460 <prefetch_abort_vector>:
    8460:	e52de004 	push	{lr}		; (str lr, [sp, #-4]!)
    8464:	e24dd00c 	sub	sp, sp, #12
    8468:	e1a01000 	mov	r1, r0
    846c:	ee153f30 	mrc	15, 0, r3, cr5, cr0, {1}
    8470:	e203300f 	and	r3, r3, #15
    8474:	e3530002 	cmp	r3, #2
    8478:	0a000006 	beq	8498 <prefetch_abort_vector+0x38>
    847c:	eb000281 	bl	8e88 <rpi_reset_putc>
    8480:	e59f0058 	ldr	r0, [pc, #88]	; 84e0 <prefetch_abort_vector+0x80>
    8484:	e59f1058 	ldr	r1, [pc, #88]	; 84e4 <prefetch_abort_vector+0x84>
    8488:	e59f2058 	ldr	r2, [pc, #88]	; 84e8 <prefetch_abort_vector+0x88>
    848c:	e3a030c7 	mov	r3, #199	; 0xc7
    8490:	eb000261 	bl	8e1c <printk>
    8494:	eb0003f8 	bl	947c <clean_reboot>
    8498:	e59f304c 	ldr	r3, [pc, #76]	; 84ec <prefetch_abort_vector+0x8c>
    849c:	e5933000 	ldr	r3, [r3]
    84a0:	e3530000 	cmp	r3, #0
    84a4:	1a000008 	bne	84cc <prefetch_abort_vector+0x6c>
    84a8:	eb000276 	bl	8e88 <rpi_reset_putc>
    84ac:	e59f303c 	ldr	r3, [pc, #60]	; 84f0 <prefetch_abort_vector+0x90>
    84b0:	e58d3000 	str	r3, [sp]
    84b4:	e59f0038 	ldr	r0, [pc, #56]	; 84f4 <prefetch_abort_vector+0x94>
    84b8:	e59f1024 	ldr	r1, [pc, #36]	; 84e4 <prefetch_abort_vector+0x84>
    84bc:	e59f2024 	ldr	r2, [pc, #36]	; 84e8 <prefetch_abort_vector+0x88>
    84c0:	e3a030c8 	mov	r3, #200	; 0xc8
    84c4:	eb000254 	bl	8e1c <printk>
    84c8:	eb0003eb 	bl	947c <clean_reboot>
    84cc:	ee162f10 	mrc	15, 0, r2, cr6, cr0, {0}
    84d0:	e3a00000 	mov	r0, #0
    84d4:	e12fff33 	blx	r3
    84d8:	e28dd00c 	add	sp, sp, #12
    84dc:	e49df004 	pop	{pc}		; (ldr pc, [sp], #4)
    84e0:	00009c24 	andeq	r9, r0, r4, lsr #24
    84e4:	00009b8c 	andeq	r9, r0, ip, lsl #23
    84e8:	00009cec 	andeq	r9, r0, ip, ror #25
    84ec:	0000a21c 	andeq	sl, r0, ip, lsl r2
    84f0:	00009c5c 	andeq	r9, r0, ip, asr ip
    84f4:	00009a30 	andeq	r9, r0, r0, lsr sl

000084f8 <interrupt_vector>:
    84f8:	e12fff1e 	bx	lr

000084fc <brk_no_ret_error>:
    84fc:	e92d4008 	push	{r3, lr}
    8500:	eb000260 	bl	8e88 <rpi_reset_putc>
    8504:	e59f0010 	ldr	r0, [pc, #16]	; 851c <brk_no_ret_error+0x20>
    8508:	e59f1010 	ldr	r1, [pc, #16]	; 8520 <brk_no_ret_error+0x24>
    850c:	e59f2010 	ldr	r2, [pc, #16]	; 8524 <brk_no_ret_error+0x28>
    8510:	e3a030d9 	mov	r3, #217	; 0xd9
    8514:	eb000240 	bl	8e1c <printk>
    8518:	eb0003d7 	bl	947c <clean_reboot>
    851c:	00009c6c 	andeq	r9, r0, ip, ror #24
    8520:	00009b8c 	andeq	r9, r0, ip, lsl #23
    8524:	00009d04 	andeq	r9, r0, r4, lsl #26

00008528 <brkpt_mismatch_set0>:
    8528:	ee103eb0 	mrc	14, 0, r3, cr0, cr0, {5}
    852c:	e3c33001 	bic	r3, r3, #1
    8530:	ee003eb0 	mcr	14, 0, r3, cr0, cr0, {5}
    8534:	ee000e90 	mcr	14, 0, r0, cr0, cr0, {4}
    8538:	e59f3014 	ldr	r3, [pc, #20]	; 8554 <brkpt_mismatch_set0+0x2c>
    853c:	ee003eb0 	mcr	14, 0, r3, cr0, cr0, {5}
    8540:	e3a03000 	mov	r3, #0
    8544:	ee073f95 	mcr	15, 0, r3, cr7, cr5, {4}
    8548:	e59f3008 	ldr	r3, [pc, #8]	; 8558 <brkpt_mismatch_set0+0x30>
    854c:	e5831000 	str	r1, [r3]
    8550:	e12fff1e 	bx	lr
    8554:	004001e7 	subeq	r0, r0, r7, ror #3
    8558:	0000a21c 	andeq	sl, r0, ip, lsl r2

0000855c <brkpt_mismatch_disable0>:
    855c:	e59f3004 	ldr	r3, [pc, #4]	; 8568 <brkpt_mismatch_disable0+0xc>
    8560:	ee003eb0 	mcr	14, 0, r3, cr0, cr0, {5}
    8564:	e12fff1e 	bx	lr
    8568:	004001e6 	subeq	r0, r0, r6, ror #3

0000856c <syscall_vector>:
    856c:	e92d4008 	push	{r3, lr}
    8570:	e5903000 	ldr	r3, [r0]
    8574:	e3c334ff 	bic	r3, r3, #-16777216	; 0xff000000
    8578:	e3530001 	cmp	r3, #1
    857c:	1a000002 	bne	858c <syscall_vector+0x20>
    8580:	e169f001 	msr	SPSR_fc, r1
    8584:	e3a00000 	mov	r0, #0
    8588:	e8bd8008 	pop	{r3, pc}
    858c:	e3530002 	cmp	r3, #2
    8590:	1a000005 	bne	85ac <syscall_vector+0x40>
    8594:	e5913000 	ldr	r3, [r1]
    8598:	e3530000 	cmp	r3, #0
    859c:	1a000009 	bne	85c8 <syscall_vector+0x5c>
    85a0:	e3a00001 	mov	r0, #1
    85a4:	e5810000 	str	r0, [r1]
    85a8:	e8bd8008 	pop	{r3, pc}
    85ac:	e3530003 	cmp	r3, #3
    85b0:	0a000006 	beq	85d0 <syscall_vector+0x64>
    85b4:	e59f001c 	ldr	r0, [pc, #28]	; 85d8 <syscall_vector+0x6c>
    85b8:	e1a01003 	mov	r1, r3
    85bc:	eb000216 	bl	8e1c <printk>
    85c0:	e3a00000 	mov	r0, #0
    85c4:	e8bd8008 	pop	{r3, pc}
    85c8:	e3a00000 	mov	r0, #0
    85cc:	e8bd8008 	pop	{r3, pc}
    85d0:	e3a00003 	mov	r0, #3
    85d4:	e8bd8008 	pop	{r3, pc}
    85d8:	00009c9c 	muleq	r0, ip, ip

000085dc <_interrupt_table>:
    85dc:	e59ff020 	ldr	pc, [pc, #32]	; 8604 <_reset_asm>
    85e0:	e59ff020 	ldr	pc, [pc, #32]	; 8608 <_undefined_instruction_asm>
    85e4:	e59ff020 	ldr	pc, [pc, #32]	; 860c <_software_interrupt_asm>
    85e8:	e59ff020 	ldr	pc, [pc, #32]	; 8610 <_prefetch_abort_asm>
    85ec:	e59ff020 	ldr	pc, [pc, #32]	; 8614 <_data_abort_asm>
    85f0:	e59ff00c 	ldr	pc, [pc, #12]	; 8604 <_reset_asm>
    85f4:	e59ff01c 	ldr	pc, [pc, #28]	; 8618 <_interrupt_asm>

000085f8 <fast_interrupt_asm>:
    85f8:	e3a0d409 	mov	sp, #150994944	; 0x9000000
    85fc:	e24ee004 	sub	lr, lr, #4
    8600:	eb0003b6 	bl	94e0 <fast_interrupt_vector>

00008604 <_reset_asm>:
    8604:	00008634 	andeq	r8, r0, r4, lsr r6

00008608 <_undefined_instruction_asm>:
    8608:	00008678 	andeq	r8, r0, r8, ror r6

0000860c <_software_interrupt_asm>:
    860c:	00008684 	andeq	r8, r0, r4, lsl #13

00008610 <_prefetch_abort_asm>:
    8610:	0000865c 	andeq	r8, r0, ip, asr r6

00008614 <_data_abort_asm>:
    8614:	00008640 	andeq	r8, r0, r0, asr #12

00008618 <_interrupt_asm>:
    8618:	0000861c 	andeq	r8, r0, ip, lsl r6

0000861c <_interrupt_table_end>:
    861c:	e3a0d409 	mov	sp, #150994944	; 0x9000000
    8620:	e24ee004 	sub	lr, lr, #4
    8624:	e92d5fff 	push	{r0, r1, r2, r3, r4, r5, r6, r7, r8, r9, sl, fp, ip, lr}
    8628:	e1a0000e 	mov	r0, lr
    862c:	e8bd5fff 	pop	{r0, r1, r2, r3, r4, r5, r6, r7, r8, r9, sl, fp, ip, lr}
    8630:	e1b0f00e 	movs	pc, lr

00008634 <reset_asm>:
    8634:	e3a0d409 	mov	sp, #150994944	; 0x9000000
    8638:	e24ee004 	sub	lr, lr, #4
    863c:	eb0003b8 	bl	9524 <reset_vector>

00008640 <data_abort_asm>:
    8640:	e24ee008 	sub	lr, lr, #8
    8644:	e3a0d409 	mov	sp, #150994944	; 0x9000000
    8648:	e92d5fff 	push	{r0, r1, r2, r3, r4, r5, r6, r7, r8, r9, sl, fp, ip, lr}
    864c:	e1a0000e 	mov	r0, lr
    8650:	ebffff2f 	bl	8314 <data_abort_vector>
    8654:	e8bd5fff 	pop	{r0, r1, r2, r3, r4, r5, r6, r7, r8, r9, sl, fp, ip, lr}
    8658:	e1b0f00e 	movs	pc, lr

0000865c <prefetch_abort_asm>:
    865c:	e24ee004 	sub	lr, lr, #4
    8660:	e3a0d409 	mov	sp, #150994944	; 0x9000000
    8664:	e92d5fff 	push	{r0, r1, r2, r3, r4, r5, r6, r7, r8, r9, sl, fp, ip, lr}
    8668:	e1a0000e 	mov	r0, lr
    866c:	ebffff7b 	bl	8460 <prefetch_abort_vector>
    8670:	e8bd5fff 	pop	{r0, r1, r2, r3, r4, r5, r6, r7, r8, r9, sl, fp, ip, lr}
    8674:	e1b0f00e 	movs	pc, lr

00008678 <undefined_instruction_asm>:
    8678:	e3a0d409 	mov	sp, #150994944	; 0x9000000
    867c:	e24ee004 	sub	lr, lr, #4
    8680:	eb0003b8 	bl	9568 <undefined_instruction_vector>

00008684 <software_interrupt_asm>:
    8684:	e92d5ff0 	push	{r4, r5, r6, r7, r8, r9, sl, fp, ip, lr}
    8688:	e24ee004 	sub	lr, lr, #4
    868c:	e1a01000 	mov	r1, r0
    8690:	e1a0000e 	mov	r0, lr
    8694:	ebffffb4 	bl	856c <syscall_vector>
    8698:	e8bd5ff0 	pop	{r4, r5, r6, r7, r8, r9, sl, fp, ip, lr}
    869c:	e1b0f00e 	movs	pc, lr

000086a0 <user_trampoline_no_ret>:
    86a0:	e1a0200d 	mov	r2, sp
    86a4:	e129f000 	msr	CPSR_fc, r0
    86a8:	e10f5000 	mrs	r5, CPSR
    86ac:	ee070f95 	mcr	15, 0, r0, cr7, cr5, {4}
    86b0:	e1a0d002 	mov	sp, r2
    86b4:	e92d5ff0 	push	{r4, r5, r6, r7, r8, r9, sl, fp, ip, lr}
    86b8:	e12fff31 	blx	r1
    86bc:	e8bd5ff0 	pop	{r4, r5, r6, r7, r8, r9, sl, fp, ip, lr}
    86c0:	eb00036d 	bl	947c <clean_reboot>
    86c4:	ebffff8c 	bl	84fc <brk_no_ret_error>

000086c8 <user_trampoline_ret>:
    86c8:	e92d5ff0 	push	{r4, r5, r6, r7, r8, r9, sl, fp, ip, lr}
    86cc:	e10f4000 	mrs	r4, CPSR
    86d0:	e129f000 	msr	CPSR_fc, r0
    86d4:	ee070f95 	mcr	15, 0, r0, cr7, cr5, {4}
    86d8:	e3a0d407 	mov	sp, #117440512	; 0x7000000
    86dc:	e1a00002 	mov	r0, r2
    86e0:	e12fff31 	blx	r1
    86e4:	e1a00004 	mov	r0, r4
    86e8:	ef000001 	svc	0x00000001
    86ec:	e8bd5ff0 	pop	{r4, r5, r6, r7, r8, r9, sl, fp, ip, lr}
    86f0:	e12fff1e 	bx	lr

000086f4 <sys_try_lock_asm>:
    86f4:	e92d5ff0 	push	{r4, r5, r6, r7, r8, r9, sl, fp, ip, lr}
    86f8:	ef000002 	svc	0x00000002
    86fc:	e8bd5ff0 	pop	{r4, r5, r6, r7, r8, r9, sl, fp, ip, lr}
    8700:	e12fff1e 	bx	lr

00008704 <sys_foo_asm>:
    8704:	e92d5ff0 	push	{r4, r5, r6, r7, r8, r9, sl, fp, ip, lr}
    8708:	ef000003 	svc	0x00000003
    870c:	e8bd5ff0 	pop	{r4, r5, r6, r7, r8, r9, sl, fp, ip, lr}
    8710:	e12fff1e 	bx	lr

00008714 <single_step_handler>:
    8714:	e92d4030 	push	{r4, r5, lr}
    8718:	e24dd00c 	sub	sp, sp, #12
    871c:	e1a05001 	mov	r5, r1
    8720:	e59f3164 	ldr	r3, [pc, #356]	; 888c <single_step_handler+0x178>
    8724:	e5933000 	ldr	r3, [r3]
    8728:	e3530000 	cmp	r3, #0
    872c:	0a000005 	beq	8748 <single_step_handler+0x34>
    8730:	e58d1000 	str	r1, [sp]
    8734:	e59f0154 	ldr	r0, [pc, #340]	; 8890 <single_step_handler+0x17c>
    8738:	e59f1154 	ldr	r1, [pc, #340]	; 8894 <single_step_handler+0x180>
    873c:	e59f2154 	ldr	r2, [pc, #340]	; 8898 <single_step_handler+0x184>
    8740:	e3a0300c 	mov	r3, #12
    8744:	eb0001b4 	bl	8e1c <printk>
    8748:	ee153f30 	mrc	15, 0, r3, cr5, cr0, {1}
    874c:	e203300f 	and	r3, r3, #15
    8750:	e3530002 	cmp	r3, #2
    8754:	0a000006 	beq	8774 <single_step_handler+0x60>
    8758:	eb0001ca 	bl	8e88 <rpi_reset_putc>
    875c:	e59f0138 	ldr	r0, [pc, #312]	; 889c <single_step_handler+0x188>
    8760:	e59f112c 	ldr	r1, [pc, #300]	; 8894 <single_step_handler+0x180>
    8764:	e59f212c 	ldr	r2, [pc, #300]	; 8898 <single_step_handler+0x184>
    8768:	e3a0300e 	mov	r3, #14
    876c:	eb0001aa 	bl	8e1c <printk>
    8770:	eb000341 	bl	947c <clean_reboot>
    8774:	e59f3124 	ldr	r3, [pc, #292]	; 88a0 <single_step_handler+0x18c>
    8778:	e5934000 	ldr	r4, [r3]
    877c:	e594201c 	ldr	r2, [r4, #28]
    8780:	e5943018 	ldr	r3, [r4, #24]
    8784:	e1520003 	cmp	r2, r3
    8788:	1a000016 	bne	87e8 <single_step_handler+0xd4>
    878c:	e59f0110 	ldr	r0, [pc, #272]	; 88a4 <single_step_handler+0x190>
    8790:	e1a01005 	mov	r1, r5
    8794:	e5942008 	ldr	r2, [r4, #8]
    8798:	eb00019f 	bl	8e1c <printk>
    879c:	e5943008 	ldr	r3, [r4, #8]
    87a0:	e1a00004 	mov	r0, r4
    87a4:	e12fff33 	blx	r3
    87a8:	e3500000 	cmp	r0, #0
    87ac:	0a00000a 	beq	87dc <single_step_handler+0xc8>
    87b0:	e1a00005 	mov	r0, r5
    87b4:	ebffff68 	bl	855c <brkpt_mismatch_disable0>
    87b8:	e5845020 	str	r5, [r4, #32]
    87bc:	e3a03001 	mov	r3, #1
    87c0:	e5843024 	str	r3, [r4, #36]	; 0x24
    87c4:	e5943014 	ldr	r3, [r4, #20]
    87c8:	e2833001 	add	r3, r3, #1
    87cc:	e5843014 	str	r3, [r4, #20]
    87d0:	e59f00d0 	ldr	r0, [pc, #208]	; 88a8 <single_step_handler+0x194>
    87d4:	eb000190 	bl	8e1c <printk>
    87d8:	ea000029 	b	8884 <single_step_handler+0x170>
    87dc:	e5943018 	ldr	r3, [r4, #24]
    87e0:	e2833001 	add	r3, r3, #1
    87e4:	e5843018 	str	r3, [r4, #24]
    87e8:	e594201c 	ldr	r2, [r4, #28]
    87ec:	e5943018 	ldr	r3, [r4, #24]
    87f0:	e1520003 	cmp	r2, r3
    87f4:	3a000008 	bcc	881c <single_step_handler+0x108>
    87f8:	eb0001a2 	bl	8e88 <rpi_reset_putc>
    87fc:	e59f30a8 	ldr	r3, [pc, #168]	; 88ac <single_step_handler+0x198>
    8800:	e58d3000 	str	r3, [sp]
    8804:	e59f00a4 	ldr	r0, [pc, #164]	; 88b0 <single_step_handler+0x19c>
    8808:	e59f1084 	ldr	r1, [pc, #132]	; 8894 <single_step_handler+0x180>
    880c:	e59f2084 	ldr	r2, [pc, #132]	; 8898 <single_step_handler+0x184>
    8810:	e3a03023 	mov	r3, #35	; 0x23
    8814:	eb000180 	bl	8e1c <printk>
    8818:	eb000317 	bl	947c <clean_reboot>
    881c:	e594301c 	ldr	r3, [r4, #28]
    8820:	e2833001 	add	r3, r3, #1
    8824:	e584301c 	str	r3, [r4, #28]
    8828:	e59f305c 	ldr	r3, [pc, #92]	; 888c <single_step_handler+0x178>
    882c:	e5933000 	ldr	r3, [r3]
    8830:	e3530000 	cmp	r3, #0
    8834:	0a000005 	beq	8850 <single_step_handler+0x13c>
    8838:	e58d5000 	str	r5, [sp]
    883c:	e59f0070 	ldr	r0, [pc, #112]	; 88b4 <single_step_handler+0x1a0>
    8840:	e59f104c 	ldr	r1, [pc, #76]	; 8894 <single_step_handler+0x180>
    8844:	e59f204c 	ldr	r2, [pc, #76]	; 8898 <single_step_handler+0x184>
    8848:	e3a03026 	mov	r3, #38	; 0x26
    884c:	eb000172 	bl	8e1c <printk>
    8850:	e1a00005 	mov	r0, r5
    8854:	e59f105c 	ldr	r1, [pc, #92]	; 88b8 <single_step_handler+0x1a4>
    8858:	ebffff32 	bl	8528 <brkpt_mismatch_set0>
    885c:	e59f3028 	ldr	r3, [pc, #40]	; 888c <single_step_handler+0x178>
    8860:	e5933000 	ldr	r3, [r3]
    8864:	e3530000 	cmp	r3, #0
    8868:	0a000005 	beq	8884 <single_step_handler+0x170>
    886c:	e58d5000 	str	r5, [sp]
    8870:	e59f0044 	ldr	r0, [pc, #68]	; 88bc <single_step_handler+0x1a8>
    8874:	e59f1018 	ldr	r1, [pc, #24]	; 8894 <single_step_handler+0x180>
    8878:	e59f2018 	ldr	r2, [pc, #24]	; 8898 <single_step_handler+0x184>
    887c:	e3a03028 	mov	r3, #40	; 0x28
    8880:	eb000165 	bl	8e1c <printk>
    8884:	e28dd00c 	add	sp, sp, #12
    8888:	e8bd8030 	pop	{r4, r5, pc}
    888c:	0000a220 	andeq	sl, r0, r0, lsr #4
    8890:	00009d18 	andeq	r9, r0, r8, lsl sp
    8894:	00009d38 	andeq	r9, r0, r8, lsr sp
    8898:	00009fb8 			; <UNDEFINED> instruction: 0x00009fb8
    889c:	00009c24 	andeq	r9, r0, r4, lsr #24
    88a0:	0000a22c 	andeq	sl, r0, ip, lsr #4
    88a4:	00009d4c 	andeq	r9, r0, ip, asr #26
    88a8:	00009d6c 	andeq	r9, r0, ip, ror #26
    88ac:	00009d94 	muleq	r0, r4, sp
    88b0:	00009a30 	andeq	r9, r0, r0, lsr sl
    88b4:	00009db8 			; <UNDEFINED> instruction: 0x00009db8
    88b8:	00008714 	andeq	r8, r0, r4, lsl r7
    88bc:	00009de0 	andeq	r9, r0, r0, ror #27

000088c0 <check_one_cswitch>:
    88c0:	e92d4ff0 	push	{r4, r5, r6, r7, r8, r9, sl, fp, lr}
    88c4:	e24dd00c 	sub	sp, sp, #12
    88c8:	e1a04000 	mov	r4, r0
    88cc:	e10f8000 	mrs	r8, CPSR
    88d0:	e3c8701f 	bic	r7, r8, #31
    88d4:	e3877010 	orr	r7, r7, #16
    88d8:	e59f3460 	ldr	r3, [pc, #1120]	; 8d40 <check_one_cswitch+0x480>
    88dc:	e5830000 	str	r0, [r3]
    88e0:	e3a03001 	mov	r3, #1
    88e4:	e5803030 	str	r3, [r0, #48]	; 0x30
    88e8:	e59f6454 	ldr	r6, [pc, #1108]	; 8d44 <check_one_cswitch+0x484>
    88ec:	e59fb454 	ldr	fp, [pc, #1108]	; 8d48 <check_one_cswitch+0x488>
    88f0:	e59fa454 	ldr	sl, [pc, #1108]	; 8d4c <check_one_cswitch+0x48c>
    88f4:	e59f9454 	ldr	r9, [pc, #1108]	; 8d50 <check_one_cswitch+0x490>
    88f8:	e59f5454 	ldr	r5, [pc, #1108]	; 8d54 <check_one_cswitch+0x494>
    88fc:	e594300c 	ldr	r3, [r4, #12]
    8900:	e1a00004 	mov	r0, r4
    8904:	e12fff33 	blx	r3
    8908:	e5963000 	ldr	r3, [r6]
    890c:	e3530000 	cmp	r3, #0
    8910:	0a000006 	beq	8930 <check_one_cswitch+0x70>
    8914:	e5943028 	ldr	r3, [r4, #40]	; 0x28
    8918:	e58d3000 	str	r3, [sp]
    891c:	e1a0000b 	mov	r0, fp
    8920:	e1a0100a 	mov	r1, sl
    8924:	e1a02009 	mov	r2, r9
    8928:	e3a03034 	mov	r3, #52	; 0x34
    892c:	eb00013a 	bl	8e1c <printk>
    8930:	e3a00000 	mov	r0, #0
    8934:	e1a01005 	mov	r1, r5
    8938:	ebfffefa 	bl	8528 <brkpt_mismatch_set0>
    893c:	e5943018 	ldr	r3, [r4, #24]
    8940:	e2833001 	add	r3, r3, #1
    8944:	e5843018 	str	r3, [r4, #24]
    8948:	e3a03000 	mov	r3, #0
    894c:	e584301c 	str	r3, [r4, #28]
    8950:	e5843024 	str	r3, [r4, #36]	; 0x24
    8954:	e1a00007 	mov	r0, r7
    8958:	e5941004 	ldr	r1, [r4, #4]
    895c:	e1a02004 	mov	r2, r4
    8960:	ebffff58 	bl	86c8 <user_trampoline_ret>
    8964:	e5943024 	ldr	r3, [r4, #36]	; 0x24
    8968:	e3530000 	cmp	r3, #0
    896c:	1a000002 	bne	897c <check_one_cswitch+0xbc>
    8970:	e5943008 	ldr	r3, [r4, #8]
    8974:	e1a00004 	mov	r0, r4
    8978:	e12fff33 	blx	r3
    897c:	e5943010 	ldr	r3, [r4, #16]
    8980:	e1a00004 	mov	r0, r4
    8984:	e12fff33 	blx	r3
    8988:	e3500000 	cmp	r0, #0
    898c:	1a000006 	bne	89ac <check_one_cswitch+0xec>
    8990:	e5941020 	ldr	r1, [r4, #32]
    8994:	e5942018 	ldr	r2, [r4, #24]
    8998:	e59f03b8 	ldr	r0, [pc, #952]	; 8d58 <check_one_cswitch+0x498>
    899c:	eb00011e 	bl	8e1c <printk>
    89a0:	e594302c 	ldr	r3, [r4, #44]	; 0x2c
    89a4:	e2833001 	add	r3, r3, #1
    89a8:	e584302c 	str	r3, [r4, #44]	; 0x2c
    89ac:	e5942028 	ldr	r2, [r4, #40]	; 0x28
    89b0:	e2822001 	add	r2, r2, #1
    89b4:	e5842028 	str	r2, [r4, #40]	; 0x28
    89b8:	e5943024 	ldr	r3, [r4, #36]	; 0x24
    89bc:	e3530000 	cmp	r3, #0
    89c0:	1affffcd 	bne	88fc <check_one_cswitch+0x3c>
    89c4:	e5941014 	ldr	r1, [r4, #20]
    89c8:	e59f038c 	ldr	r0, [pc, #908]	; 8d5c <check_one_cswitch+0x49c>
    89cc:	e594302c 	ldr	r3, [r4, #44]	; 0x2c
    89d0:	eb000111 	bl	8e1c <printk>
    89d4:	e208301f 	and	r3, r8, #31
    89d8:	e3530012 	cmp	r3, #18
    89dc:	13530010 	cmpne	r3, #16
    89e0:	0a000006 	beq	8a00 <check_one_cswitch+0x140>
    89e4:	e3530017 	cmp	r3, #23
    89e8:	13530013 	cmpne	r3, #19
    89ec:	0a000005 	beq	8a08 <check_one_cswitch+0x148>
    89f0:	e353001f 	cmp	r3, #31
    89f4:	1a000005 	bne	8a10 <check_one_cswitch+0x150>
    89f8:	e3a02001 	mov	r2, #1
    89fc:	ea000004 	b	8a14 <check_one_cswitch+0x154>
    8a00:	e3a02001 	mov	r2, #1
    8a04:	ea000002 	b	8a14 <check_one_cswitch+0x154>
    8a08:	e3a02001 	mov	r2, #1
    8a0c:	ea000000 	b	8a14 <check_one_cswitch+0x154>
    8a10:	e3a02000 	mov	r2, #0
    8a14:	e3520000 	cmp	r2, #0
    8a18:	1a000008 	bne	8a40 <check_one_cswitch+0x180>
    8a1c:	eb000119 	bl	8e88 <rpi_reset_putc>
    8a20:	e59f3338 	ldr	r3, [pc, #824]	; 8d60 <check_one_cswitch+0x4a0>
    8a24:	e58d3000 	str	r3, [sp]
    8a28:	e59f0334 	ldr	r0, [pc, #820]	; 8d64 <check_one_cswitch+0x4a4>
    8a2c:	e59f1334 	ldr	r1, [pc, #820]	; 8d68 <check_one_cswitch+0x4a8>
    8a30:	e59f2334 	ldr	r2, [pc, #820]	; 8d6c <check_one_cswitch+0x4ac>
    8a34:	e3a03011 	mov	r3, #17
    8a38:	eb0000f7 	bl	8e1c <printk>
    8a3c:	eb00028e 	bl	947c <clean_reboot>
    8a40:	e2433010 	sub	r3, r3, #16
    8a44:	e353000f 	cmp	r3, #15
    8a48:	979ff103 	ldrls	pc, [pc, r3, lsl #2]
    8a4c:	ea000019 	b	8ab8 <check_one_cswitch+0x1f8>
    8a50:	00008ad8 	ldrdeq	r8, [r0], -r8	; <UNPREDICTABLE>
    8a54:	00008ae0 	andeq	r8, r0, r0, ror #21
    8a58:	00008a90 	muleq	r0, r0, sl
    8a5c:	00008a98 	muleq	r0, r8, sl
    8a60:	00008ab8 			; <UNDEFINED> instruction: 0x00008ab8
    8a64:	00008ab8 			; <UNDEFINED> instruction: 0x00008ab8
    8a68:	00008ab8 			; <UNDEFINED> instruction: 0x00008ab8
    8a6c:	00008aa0 	andeq	r8, r0, r0, lsr #21
    8a70:	00008ab8 			; <UNDEFINED> instruction: 0x00008ab8
    8a74:	00008ab8 			; <UNDEFINED> instruction: 0x00008ab8
    8a78:	00008ab8 			; <UNDEFINED> instruction: 0x00008ab8
    8a7c:	00008aa8 	andeq	r8, r0, r8, lsr #21
    8a80:	00008ab8 			; <UNDEFINED> instruction: 0x00008ab8
    8a84:	00008ab8 			; <UNDEFINED> instruction: 0x00008ab8
    8a88:	00008ab8 			; <UNDEFINED> instruction: 0x00008ab8
    8a8c:	00008ab0 			; <UNDEFINED> instruction: 0x00008ab0
    8a90:	e59f12d8 	ldr	r1, [pc, #728]	; 8d70 <check_one_cswitch+0x4b0>
    8a94:	ea000012 	b	8ae4 <check_one_cswitch+0x224>
    8a98:	e59f12d4 	ldr	r1, [pc, #724]	; 8d74 <check_one_cswitch+0x4b4>
    8a9c:	ea000010 	b	8ae4 <check_one_cswitch+0x224>
    8aa0:	e59f12d0 	ldr	r1, [pc, #720]	; 8d78 <check_one_cswitch+0x4b8>
    8aa4:	ea00000e 	b	8ae4 <check_one_cswitch+0x224>
    8aa8:	e59f12cc 	ldr	r1, [pc, #716]	; 8d7c <check_one_cswitch+0x4bc>
    8aac:	ea00000c 	b	8ae4 <check_one_cswitch+0x224>
    8ab0:	e59f12c8 	ldr	r1, [pc, #712]	; 8d80 <check_one_cswitch+0x4c0>
    8ab4:	ea00000a 	b	8ae4 <check_one_cswitch+0x224>
    8ab8:	eb0000f2 	bl	8e88 <rpi_reset_putc>
    8abc:	e58d8000 	str	r8, [sp]
    8ac0:	e59f02bc 	ldr	r0, [pc, #700]	; 8d84 <check_one_cswitch+0x4c4>
    8ac4:	e59f129c 	ldr	r1, [pc, #668]	; 8d68 <check_one_cswitch+0x4a8>
    8ac8:	e59f22b8 	ldr	r2, [pc, #696]	; 8d88 <check_one_cswitch+0x4c8>
    8acc:	e3a03021 	mov	r3, #33	; 0x21
    8ad0:	eb0000d1 	bl	8e1c <printk>
    8ad4:	eb000268 	bl	947c <clean_reboot>
    8ad8:	e59f12ac 	ldr	r1, [pc, #684]	; 8d8c <check_one_cswitch+0x4cc>
    8adc:	ea000000 	b	8ae4 <check_one_cswitch+0x224>
    8ae0:	e59f12a8 	ldr	r1, [pc, #680]	; 8d90 <check_one_cswitch+0x4d0>
    8ae4:	e59f02a8 	ldr	r0, [pc, #680]	; 8d94 <check_one_cswitch+0x4d4>
    8ae8:	e1a02008 	mov	r2, r8
    8aec:	eb0000ca 	bl	8e1c <printk>
    8af0:	e10f5000 	mrs	r5, CPSR
    8af4:	e205301f 	and	r3, r5, #31
    8af8:	e3530012 	cmp	r3, #18
    8afc:	13530010 	cmpne	r3, #16
    8b00:	0a000006 	beq	8b20 <check_one_cswitch+0x260>
    8b04:	e3530017 	cmp	r3, #23
    8b08:	13530013 	cmpne	r3, #19
    8b0c:	0a000005 	beq	8b28 <check_one_cswitch+0x268>
    8b10:	e353001f 	cmp	r3, #31
    8b14:	1a000005 	bne	8b30 <check_one_cswitch+0x270>
    8b18:	e3a02001 	mov	r2, #1
    8b1c:	ea000004 	b	8b34 <check_one_cswitch+0x274>
    8b20:	e3a02001 	mov	r2, #1
    8b24:	ea000002 	b	8b34 <check_one_cswitch+0x274>
    8b28:	e3a02001 	mov	r2, #1
    8b2c:	ea000000 	b	8b34 <check_one_cswitch+0x274>
    8b30:	e3a02000 	mov	r2, #0
    8b34:	e3520000 	cmp	r2, #0
    8b38:	1a000008 	bne	8b60 <check_one_cswitch+0x2a0>
    8b3c:	eb0000d1 	bl	8e88 <rpi_reset_putc>
    8b40:	e59f3218 	ldr	r3, [pc, #536]	; 8d60 <check_one_cswitch+0x4a0>
    8b44:	e58d3000 	str	r3, [sp]
    8b48:	e59f0214 	ldr	r0, [pc, #532]	; 8d64 <check_one_cswitch+0x4a4>
    8b4c:	e59f1214 	ldr	r1, [pc, #532]	; 8d68 <check_one_cswitch+0x4a8>
    8b50:	e59f2214 	ldr	r2, [pc, #532]	; 8d6c <check_one_cswitch+0x4ac>
    8b54:	e3a03011 	mov	r3, #17
    8b58:	eb0000af 	bl	8e1c <printk>
    8b5c:	eb000246 	bl	947c <clean_reboot>
    8b60:	e2433010 	sub	r3, r3, #16
    8b64:	e353000f 	cmp	r3, #15
    8b68:	979ff103 	ldrls	pc, [pc, r3, lsl #2]
    8b6c:	ea000019 	b	8bd8 <check_one_cswitch+0x318>
    8b70:	00008bf8 	strdeq	r8, [r0], -r8	; <UNPREDICTABLE>
    8b74:	00008c00 	andeq	r8, r0, r0, lsl #24
    8b78:	00008bb0 			; <UNDEFINED> instruction: 0x00008bb0
    8b7c:	00008bb8 			; <UNDEFINED> instruction: 0x00008bb8
    8b80:	00008bd8 	ldrdeq	r8, [r0], -r8	; <UNPREDICTABLE>
    8b84:	00008bd8 	ldrdeq	r8, [r0], -r8	; <UNPREDICTABLE>
    8b88:	00008bd8 	ldrdeq	r8, [r0], -r8	; <UNPREDICTABLE>
    8b8c:	00008bc0 	andeq	r8, r0, r0, asr #23
    8b90:	00008bd8 	ldrdeq	r8, [r0], -r8	; <UNPREDICTABLE>
    8b94:	00008bd8 	ldrdeq	r8, [r0], -r8	; <UNPREDICTABLE>
    8b98:	00008bd8 	ldrdeq	r8, [r0], -r8	; <UNPREDICTABLE>
    8b9c:	00008bc8 	andeq	r8, r0, r8, asr #23
    8ba0:	00008bd8 	ldrdeq	r8, [r0], -r8	; <UNPREDICTABLE>
    8ba4:	00008bd8 	ldrdeq	r8, [r0], -r8	; <UNPREDICTABLE>
    8ba8:	00008bd8 	ldrdeq	r8, [r0], -r8	; <UNPREDICTABLE>
    8bac:	00008bd0 	ldrdeq	r8, [r0], -r0
    8bb0:	e59f11b8 	ldr	r1, [pc, #440]	; 8d70 <check_one_cswitch+0x4b0>
    8bb4:	ea000012 	b	8c04 <check_one_cswitch+0x344>
    8bb8:	e59f11b4 	ldr	r1, [pc, #436]	; 8d74 <check_one_cswitch+0x4b4>
    8bbc:	ea000010 	b	8c04 <check_one_cswitch+0x344>
    8bc0:	e59f11b0 	ldr	r1, [pc, #432]	; 8d78 <check_one_cswitch+0x4b8>
    8bc4:	ea00000e 	b	8c04 <check_one_cswitch+0x344>
    8bc8:	e59f11ac 	ldr	r1, [pc, #428]	; 8d7c <check_one_cswitch+0x4bc>
    8bcc:	ea00000c 	b	8c04 <check_one_cswitch+0x344>
    8bd0:	e59f11a8 	ldr	r1, [pc, #424]	; 8d80 <check_one_cswitch+0x4c0>
    8bd4:	ea00000a 	b	8c04 <check_one_cswitch+0x344>
    8bd8:	eb0000aa 	bl	8e88 <rpi_reset_putc>
    8bdc:	e58d5000 	str	r5, [sp]
    8be0:	e59f019c 	ldr	r0, [pc, #412]	; 8d84 <check_one_cswitch+0x4c4>
    8be4:	e59f117c 	ldr	r1, [pc, #380]	; 8d68 <check_one_cswitch+0x4a8>
    8be8:	e59f2198 	ldr	r2, [pc, #408]	; 8d88 <check_one_cswitch+0x4c8>
    8bec:	e3a03021 	mov	r3, #33	; 0x21
    8bf0:	eb000089 	bl	8e1c <printk>
    8bf4:	eb000220 	bl	947c <clean_reboot>
    8bf8:	e59f118c 	ldr	r1, [pc, #396]	; 8d8c <check_one_cswitch+0x4cc>
    8bfc:	ea000000 	b	8c04 <check_one_cswitch+0x344>
    8c00:	e59f1188 	ldr	r1, [pc, #392]	; 8d90 <check_one_cswitch+0x4d0>
    8c04:	e10f2000 	mrs	r2, CPSR
    8c08:	e59f0188 	ldr	r0, [pc, #392]	; 8d98 <check_one_cswitch+0x4d8>
    8c0c:	eb000082 	bl	8e1c <printk>
    8c10:	e3a00000 	mov	r0, #0
    8c14:	ebfffe50 	bl	855c <brkpt_mismatch_disable0>
    8c18:	e208801f 	and	r8, r8, #31
    8c1c:	e3580012 	cmp	r8, #18
    8c20:	13580010 	cmpne	r8, #16
    8c24:	0a000006 	beq	8c44 <check_one_cswitch+0x384>
    8c28:	e3580017 	cmp	r8, #23
    8c2c:	13580013 	cmpne	r8, #19
    8c30:	0a000005 	beq	8c4c <check_one_cswitch+0x38c>
    8c34:	e358001f 	cmp	r8, #31
    8c38:	1a000005 	bne	8c54 <check_one_cswitch+0x394>
    8c3c:	e3a03001 	mov	r3, #1
    8c40:	ea000004 	b	8c58 <check_one_cswitch+0x398>
    8c44:	e3a03001 	mov	r3, #1
    8c48:	ea000002 	b	8c58 <check_one_cswitch+0x398>
    8c4c:	e3a03001 	mov	r3, #1
    8c50:	ea000000 	b	8c58 <check_one_cswitch+0x398>
    8c54:	e3a03000 	mov	r3, #0
    8c58:	e3530000 	cmp	r3, #0
    8c5c:	1a000008 	bne	8c84 <check_one_cswitch+0x3c4>
    8c60:	eb000088 	bl	8e88 <rpi_reset_putc>
    8c64:	e59f30f4 	ldr	r3, [pc, #244]	; 8d60 <check_one_cswitch+0x4a0>
    8c68:	e58d3000 	str	r3, [sp]
    8c6c:	e59f00f0 	ldr	r0, [pc, #240]	; 8d64 <check_one_cswitch+0x4a4>
    8c70:	e59f10f0 	ldr	r1, [pc, #240]	; 8d68 <check_one_cswitch+0x4a8>
    8c74:	e59f20f0 	ldr	r2, [pc, #240]	; 8d6c <check_one_cswitch+0x4ac>
    8c78:	e3a03011 	mov	r3, #17
    8c7c:	eb000066 	bl	8e1c <printk>
    8c80:	eb0001fd 	bl	947c <clean_reboot>
    8c84:	e10f3000 	mrs	r3, CPSR
    8c88:	e203301f 	and	r3, r3, #31
    8c8c:	e3530012 	cmp	r3, #18
    8c90:	13530010 	cmpne	r3, #16
    8c94:	0a000006 	beq	8cb4 <check_one_cswitch+0x3f4>
    8c98:	e3530017 	cmp	r3, #23
    8c9c:	13530013 	cmpne	r3, #19
    8ca0:	0a000005 	beq	8cbc <check_one_cswitch+0x3fc>
    8ca4:	e353001f 	cmp	r3, #31
    8ca8:	1a000005 	bne	8cc4 <check_one_cswitch+0x404>
    8cac:	e3a02001 	mov	r2, #1
    8cb0:	ea000004 	b	8cc8 <check_one_cswitch+0x408>
    8cb4:	e3a02001 	mov	r2, #1
    8cb8:	ea000002 	b	8cc8 <check_one_cswitch+0x408>
    8cbc:	e3a02001 	mov	r2, #1
    8cc0:	ea000000 	b	8cc8 <check_one_cswitch+0x408>
    8cc4:	e3a02000 	mov	r2, #0
    8cc8:	e3520000 	cmp	r2, #0
    8ccc:	1a000008 	bne	8cf4 <check_one_cswitch+0x434>
    8cd0:	eb00006c 	bl	8e88 <rpi_reset_putc>
    8cd4:	e59f3084 	ldr	r3, [pc, #132]	; 8d60 <check_one_cswitch+0x4a0>
    8cd8:	e58d3000 	str	r3, [sp]
    8cdc:	e59f0080 	ldr	r0, [pc, #128]	; 8d64 <check_one_cswitch+0x4a4>
    8ce0:	e59f1080 	ldr	r1, [pc, #128]	; 8d68 <check_one_cswitch+0x4a8>
    8ce4:	e59f2080 	ldr	r2, [pc, #128]	; 8d6c <check_one_cswitch+0x4ac>
    8ce8:	e3a03011 	mov	r3, #17
    8cec:	eb00004a 	bl	8e1c <printk>
    8cf0:	eb0001e1 	bl	947c <clean_reboot>
    8cf4:	e1580003 	cmp	r8, r3
    8cf8:	0a000008 	beq	8d20 <check_one_cswitch+0x460>
    8cfc:	eb000061 	bl	8e88 <rpi_reset_putc>
    8d00:	e59f3094 	ldr	r3, [pc, #148]	; 8d9c <check_one_cswitch+0x4dc>
    8d04:	e58d3000 	str	r3, [sp]
    8d08:	e59f0054 	ldr	r0, [pc, #84]	; 8d64 <check_one_cswitch+0x4a4>
    8d0c:	e59f1038 	ldr	r1, [pc, #56]	; 8d4c <check_one_cswitch+0x48c>
    8d10:	e59f2038 	ldr	r2, [pc, #56]	; 8d50 <check_one_cswitch+0x490>
    8d14:	e3a03058 	mov	r3, #88	; 0x58
    8d18:	eb00003f 	bl	8e1c <printk>
    8d1c:	eb0001d6 	bl	947c <clean_reboot>
    8d20:	e3a03000 	mov	r3, #0
    8d24:	e5843030 	str	r3, [r4, #48]	; 0x30
    8d28:	e594002c 	ldr	r0, [r4, #44]	; 0x2c
    8d2c:	e1500003 	cmp	r0, r3
    8d30:	13a00000 	movne	r0, #0
    8d34:	03a00001 	moveq	r0, #1
    8d38:	e28dd00c 	add	sp, sp, #12
    8d3c:	e8bd8ff0 	pop	{r4, r5, r6, r7, r8, r9, sl, fp, pc}
    8d40:	0000a22c 	andeq	sl, r0, ip, lsr #4
    8d44:	0000a220 	andeq	sl, r0, r0, lsr #4
    8d48:	00009e60 	andeq	r9, r0, r0, ror #28
    8d4c:	00009d38 	andeq	r9, r0, r8, lsr sp
    8d50:	00009fa4 	andeq	r9, r0, r4, lsr #31
    8d54:	00008714 	andeq	r8, r0, r4, lsl r7
    8d58:	00009e98 	muleq	r0, r8, lr
    8d5c:	00009ee0 	andeq	r9, r0, r0, ror #29
    8d60:	00009a54 	andeq	r9, r0, r4, asr sl
    8d64:	00009a30 	andeq	r9, r0, r0, lsr sl
    8d68:	00009f14 	andeq	r9, r0, r4, lsl pc
    8d6c:	00009ff0 	strdeq	r9, [r0], -r0
    8d70:	00009e24 	andeq	r9, r0, r4, lsr #28
    8d74:	00009e30 	andeq	r9, r0, r0, lsr lr
    8d78:	00009e3c 	andeq	r9, r0, ip, lsr lr
    8d7c:	00009e48 	andeq	r9, r0, r8, asr #28
    8d80:	00009e54 	andeq	r9, r0, r4, asr lr
    8d84:	00009f20 	andeq	r9, r0, r0, lsr #30
    8d88:	00009fe4 	andeq	r9, r0, r4, ror #31
    8d8c:	00009e0c 	andeq	r9, r0, ip, lsl #28
    8d90:	00009e18 	andeq	r9, r0, r8, lsl lr
    8d94:	00009f44 	andeq	r9, r0, r4, asr #30
    8d98:	00009f60 	andeq	r9, r0, r0, ror #30
    8d9c:	00009f78 	andeq	r9, r0, r8, ror pc

00008da0 <check_sequential>:
    8da0:	e3a00001 	mov	r0, #1
    8da4:	e12fff1e 	bx	lr

00008da8 <check_zero>:
    8da8:	e3a03000 	mov	r3, #0
    8dac:	e5803030 	str	r3, [r0, #48]	; 0x30
    8db0:	e580302c 	str	r3, [r0, #44]	; 0x2c
    8db4:	e5803028 	str	r3, [r0, #40]	; 0x28
    8db8:	e5803024 	str	r3, [r0, #36]	; 0x24
    8dbc:	e5803020 	str	r3, [r0, #32]
    8dc0:	e580301c 	str	r3, [r0, #28]
    8dc4:	e5803018 	str	r3, [r0, #24]
    8dc8:	e5803014 	str	r3, [r0, #20]
    8dcc:	e12fff1e 	bx	lr

00008dd0 <check>:
    8dd0:	e92d4010 	push	{r4, lr}
    8dd4:	e1a04000 	mov	r4, r0
    8dd8:	ebfffd84 	bl	83f0 <cp14_enable>
    8ddc:	e1a00004 	mov	r0, r4
    8de0:	ebfffff0 	bl	8da8 <check_zero>
    8de4:	e1a00004 	mov	r0, r4
    8de8:	ebffffec 	bl	8da0 <check_sequential>
    8dec:	e3500000 	cmp	r0, #0
    8df0:	0a000005 	beq	8e0c <check+0x3c>
    8df4:	e1a00004 	mov	r0, r4
    8df8:	ebfffeb0 	bl	88c0 <check_one_cswitch>
    8dfc:	e3500000 	cmp	r0, #0
    8e00:	0a000003 	beq	8e14 <check+0x44>
    8e04:	e3a00001 	mov	r0, #1
    8e08:	e8bd8010 	pop	{r4, pc}
    8e0c:	e3a00000 	mov	r0, #0
    8e10:	e8bd8010 	pop	{r4, pc}
    8e14:	e3a00000 	mov	r0, #0
    8e18:	e8bd8010 	pop	{r4, pc}

00008e1c <printk>:
    8e1c:	e92d000f 	push	{r0, r1, r2, r3}
    8e20:	e92d4030 	push	{r4, r5, lr}
    8e24:	e24dd00c 	sub	sp, sp, #12
    8e28:	e28d301c 	add	r3, sp, #28
    8e2c:	e58d3004 	str	r3, [sp, #4]
    8e30:	e59f4034 	ldr	r4, [pc, #52]	; 8e6c <printk+0x50>
    8e34:	e1a00004 	mov	r0, r4
    8e38:	e3a01b01 	mov	r1, #1024	; 0x400
    8e3c:	e59d2018 	ldr	r2, [sp, #24]
    8e40:	eb0000d0 	bl	9188 <va_printk>
    8e44:	e1a05000 	mov	r5, r0
    8e48:	e59f3020 	ldr	r3, [pc, #32]	; 8e70 <printk+0x54>
    8e4c:	e5933000 	ldr	r3, [r3]
    8e50:	e1a00004 	mov	r0, r4
    8e54:	e12fff33 	blx	r3
    8e58:	e1a00005 	mov	r0, r5
    8e5c:	e28dd00c 	add	sp, sp, #12
    8e60:	e8bd4030 	pop	{r4, r5, lr}
    8e64:	e28dd010 	add	sp, sp, #16
    8e68:	e12fff1e 	bx	lr
    8e6c:	0000a234 	andeq	sl, r0, r4, lsr r2
    8e70:	00009a2c 	andeq	r9, r0, ip, lsr #20

00008e74 <internal_putchar>:
    8e74:	e92d4010 	push	{r4, lr}
    8e78:	e1a04000 	mov	r4, r0
    8e7c:	eb000291 	bl	98c8 <uart_putc>
    8e80:	e1a00004 	mov	r0, r4
    8e84:	e8bd8010 	pop	{r4, pc}

00008e88 <rpi_reset_putc>:
    8e88:	e59f2008 	ldr	r2, [pc, #8]	; 8e98 <rpi_reset_putc+0x10>
    8e8c:	e59f3008 	ldr	r3, [pc, #8]	; 8e9c <rpi_reset_putc+0x14>
    8e90:	e5832000 	str	r2, [r3]
    8e94:	e12fff1e 	bx	lr
    8e98:	00008e74 	andeq	r8, r0, r4, ror lr
    8e9c:	00009a28 	andeq	r9, r0, r8, lsr #20

00008ea0 <rpi_set_putc>:
    8ea0:	e59f3004 	ldr	r3, [pc, #4]	; 8eac <rpi_set_putc+0xc>
    8ea4:	e5830000 	str	r0, [r3]
    8ea8:	e12fff1e 	bx	lr
    8eac:	00009a28 	andeq	r9, r0, r8, lsr #20

00008eb0 <internal_putk>:
    8eb0:	e92d4038 	push	{r3, r4, r5, lr}
    8eb4:	e1a04000 	mov	r4, r0
    8eb8:	e59f5020 	ldr	r5, [pc, #32]	; 8ee0 <internal_putk+0x30>
    8ebc:	ea000002 	b	8ecc <internal_putk+0x1c>
    8ec0:	e5953000 	ldr	r3, [r5]
    8ec4:	e12fff33 	blx	r3
    8ec8:	e2844001 	add	r4, r4, #1
    8ecc:	e5d40000 	ldrb	r0, [r4]
    8ed0:	e3500000 	cmp	r0, #0
    8ed4:	1afffff9 	bne	8ec0 <internal_putk+0x10>
    8ed8:	e3a00001 	mov	r0, #1
    8edc:	e8bd8038 	pop	{r3, r4, r5, pc}
    8ee0:	00009a28 	andeq	r9, r0, r8, lsr #20

00008ee4 <isdigit>:
    8ee4:	e2400030 	sub	r0, r0, #48	; 0x30
    8ee8:	e3500009 	cmp	r0, #9
    8eec:	83a00000 	movhi	r0, #0
    8ef0:	93a00001 	movls	r0, #1
    8ef4:	e12fff1e 	bx	lr

00008ef8 <pad>:
    8ef8:	e0611000 	rsb	r1, r1, r0
    8efc:	e3a03020 	mov	r3, #32
    8f00:	ea000002 	b	8f10 <pad+0x18>
    8f04:	e5c03000 	strb	r3, [r0]
    8f08:	e2811001 	add	r1, r1, #1
    8f0c:	e2800001 	add	r0, r0, #1
    8f10:	e1510002 	cmp	r1, r2
    8f14:	bafffffa 	blt	8f04 <pad+0xc>
    8f18:	e3a03000 	mov	r3, #0
    8f1c:	e5c03000 	strb	r3, [r0]
    8f20:	e12fff1e 	bx	lr

00008f24 <reverse>:
    8f24:	e063c002 	rsb	ip, r3, r2
    8f28:	e28cc001 	add	ip, ip, #1
    8f2c:	e15c0001 	cmp	ip, r1
    8f30:	c061100c 	rsbgt	r1, r1, ip
    8f34:	c0833001 	addgt	r3, r3, r1
    8f38:	e2422001 	sub	r2, r2, #1
    8f3c:	e1a01000 	mov	r1, r0
    8f40:	ea000002 	b	8f50 <reverse+0x2c>
    8f44:	e452c001 	ldrb	ip, [r2], #-1
    8f48:	e5c1c000 	strb	ip, [r1]
    8f4c:	e2811001 	add	r1, r1, #1
    8f50:	e1520003 	cmp	r2, r3
    8f54:	2afffffa 	bcs	8f44 <reverse+0x20>
    8f58:	e3a03000 	mov	r3, #0
    8f5c:	e5c13000 	strb	r3, [r1]
    8f60:	e12fff1e 	bx	lr

00008f64 <emit>:
    8f64:	e92d41f0 	push	{r4, r5, r6, r7, r8, lr}
    8f68:	e24dd048 	sub	sp, sp, #72	; 0x48
    8f6c:	e1a05001 	mov	r5, r1
    8f70:	e1a04002 	mov	r4, r2
    8f74:	e59d2060 	ldr	r2, [sp, #96]	; 0x60
    8f78:	e1520004 	cmp	r2, r4
    8f7c:	c2442001 	subgt	r2, r4, #1
    8f80:	e1a0c003 	mov	ip, r3
    8f84:	e2400002 	sub	r0, r0, #2
    8f88:	e350000e 	cmp	r0, #14
    8f8c:	979ff100 	ldrls	pc, [pc, r0, lsl #2]
    8f90:	ea000048 	b	90b8 <emit+0x154>
    8f94:	00009090 	muleq	r0, r0, r0
    8f98:	000090b8 	strheq	r9, [r0], -r8
    8f9c:	000090b8 	strheq	r9, [r0], -r8
    8fa0:	000090b8 	strheq	r9, [r0], -r8
    8fa4:	000090b8 	strheq	r9, [r0], -r8
    8fa8:	000090b8 	strheq	r9, [r0], -r8
    8fac:	00009084 	andeq	r9, r0, r4, lsl #1
    8fb0:	000090b8 	strheq	r9, [r0], -r8
    8fb4:	00008fd0 	ldrdeq	r8, [r0], -r0
    8fb8:	000090b8 	strheq	r9, [r0], -r8
    8fbc:	000090b8 	strheq	r9, [r0], -r8
    8fc0:	000090b8 	strheq	r9, [r0], -r8
    8fc4:	000090b8 	strheq	r9, [r0], -r8
    8fc8:	000090b8 	strheq	r9, [r0], -r8
    8fcc:	00009044 	andeq	r9, r0, r4, asr #32
    8fd0:	e59d1064 	ldr	r1, [sp, #100]	; 0x64
    8fd4:	e2911000 	adds	r1, r1, #0
    8fd8:	13a01001 	movne	r1, #1
    8fdc:	e0111fa3 	ands	r1, r1, r3, lsr #31
    8fe0:	1263c000 	rsbne	ip, r3, #0
    8fe4:	13a08001 	movne	r8, #1
    8fe8:	03a08000 	moveq	r8, #0
    8fec:	e28d1008 	add	r1, sp, #8
    8ff0:	e59f7108 	ldr	r7, [pc, #264]	; 9100 <emit+0x19c>
    8ff4:	e59f6108 	ldr	r6, [pc, #264]	; 9104 <emit+0x1a0>
    8ff8:	ea000000 	b	9000 <emit+0x9c>
    8ffc:	e1a01000 	mov	r1, r0
    9000:	e2810001 	add	r0, r1, #1
    9004:	e083ec97 	umull	lr, r3, r7, ip
    9008:	e1a031a3 	lsr	r3, r3, #3
    900c:	e1a0e003 	mov	lr, r3
    9010:	e0833103 	add	r3, r3, r3, lsl #2
    9014:	e1a03083 	lsl	r3, r3, #1
    9018:	e063300c 	rsb	r3, r3, ip
    901c:	e7d63003 	ldrb	r3, [r6, r3]
    9020:	e5c13000 	strb	r3, [r1]
    9024:	e1a0c00e 	mov	ip, lr
    9028:	e35e0000 	cmp	lr, #0
    902c:	1afffff2 	bne	8ffc <emit+0x98>
    9030:	e3580000 	cmp	r8, #0
    9034:	12810002 	addne	r0, r1, #2
    9038:	13a0302d 	movne	r3, #45	; 0x2d
    903c:	15c13001 	strbne	r3, [r1, #1]
    9040:	ea000025 	b	90dc <emit+0x178>
    9044:	e28d3008 	add	r3, sp, #8
    9048:	e59fe0b8 	ldr	lr, [pc, #184]	; 9108 <emit+0x1a4>
    904c:	ea000000 	b	9054 <emit+0xf0>
    9050:	e1a03000 	mov	r3, r0
    9054:	e2830001 	add	r0, r3, #1
    9058:	e20c100f 	and	r1, ip, #15
    905c:	e7de1001 	ldrb	r1, [lr, r1]
    9060:	e5c31000 	strb	r1, [r3]
    9064:	e1b0c22c 	lsrs	ip, ip, #4
    9068:	1afffff8 	bne	9050 <emit+0xec>
    906c:	e3a01078 	mov	r1, #120	; 0x78
    9070:	e5c31001 	strb	r1, [r3, #1]
    9074:	e2830003 	add	r0, r3, #3
    9078:	e3a01030 	mov	r1, #48	; 0x30
    907c:	e5c31002 	strb	r1, [r3, #2]
    9080:	ea000015 	b	90dc <emit+0x178>
    9084:	e5cd3008 	strb	r3, [sp, #8]
    9088:	e28d0009 	add	r0, sp, #9
    908c:	ea000012 	b	90dc <emit+0x178>
    9090:	e28d3008 	add	r3, sp, #8
    9094:	e59fe070 	ldr	lr, [pc, #112]	; 910c <emit+0x1a8>
    9098:	e2830001 	add	r0, r3, #1
    909c:	e20c1001 	and	r1, ip, #1
    90a0:	e7de1001 	ldrb	r1, [lr, r1]
    90a4:	e5c31000 	strb	r1, [r3]
    90a8:	e1a03000 	mov	r3, r0
    90ac:	e1b0c0ac 	lsrs	ip, ip, #1
    90b0:	1afffff8 	bne	9098 <emit+0x134>
    90b4:	ea000008 	b	90dc <emit+0x178>
    90b8:	ebffff72 	bl	8e88 <rpi_reset_putc>
    90bc:	e59f304c 	ldr	r3, [pc, #76]	; 9110 <emit+0x1ac>
    90c0:	e58d3000 	str	r3, [sp]
    90c4:	e59f0048 	ldr	r0, [pc, #72]	; 9114 <emit+0x1b0>
    90c8:	e59f1048 	ldr	r1, [pc, #72]	; 9118 <emit+0x1b4>
    90cc:	e59f2048 	ldr	r2, [pc, #72]	; 911c <emit+0x1b8>
    90d0:	e3a03077 	mov	r3, #119	; 0x77
    90d4:	ebffff50 	bl	8e1c <printk>
    90d8:	eb0000e7 	bl	947c <clean_reboot>
    90dc:	e28d1008 	add	r1, sp, #8
    90e0:	ebffff84 	bl	8ef8 <pad>
    90e4:	e1a02000 	mov	r2, r0
    90e8:	e1a00005 	mov	r0, r5
    90ec:	e1a01004 	mov	r1, r4
    90f0:	e28d3008 	add	r3, sp, #8
    90f4:	ebffff8a 	bl	8f24 <reverse>
    90f8:	e28dd048 	add	sp, sp, #72	; 0x48
    90fc:	e8bd81f0 	pop	{r4, r5, r6, r7, r8, pc}
    9100:	cccccccd 	stclgt	12, cr12, [ip], {205}	; 0xcd
    9104:	0000a044 	andeq	sl, r0, r4, asr #32
    9108:	0000a050 	andeq	sl, r0, r0, asr r0
    910c:	0000a064 	andeq	sl, r0, r4, rrx
    9110:	0000a040 	andeq	sl, r0, r0, asr #32
    9114:	00009a30 	andeq	r9, r0, r0, lsr sl
    9118:	0000a02c 	andeq	sl, r0, ip, lsr #32
    911c:	0000a008 	andeq	sl, r0, r8

00009120 <rpi_set_output>:
    9120:	e52de004 	push	{lr}		; (str lr, [sp, #-4]!)
    9124:	e24dd00c 	sub	sp, sp, #12
    9128:	e3500000 	cmp	r0, #0
    912c:	1a000008 	bne	9154 <rpi_set_output+0x34>
    9130:	ebffff54 	bl	8e88 <rpi_reset_putc>
    9134:	e59f3034 	ldr	r3, [pc, #52]	; 9170 <rpi_set_output+0x50>
    9138:	e58d3000 	str	r3, [sp]
    913c:	e59f0030 	ldr	r0, [pc, #48]	; 9174 <rpi_set_output+0x54>
    9140:	e59f1030 	ldr	r1, [pc, #48]	; 9178 <rpi_set_output+0x58>
    9144:	e59f2030 	ldr	r2, [pc, #48]	; 917c <rpi_set_output+0x5c>
    9148:	e3a03020 	mov	r3, #32
    914c:	ebffff32 	bl	8e1c <printk>
    9150:	eb0000c9 	bl	947c <clean_reboot>
    9154:	e59f3024 	ldr	r3, [pc, #36]	; 9180 <rpi_set_output+0x60>
    9158:	e5830000 	str	r0, [r3]
    915c:	e3510000 	cmp	r1, #0
    9160:	159f301c 	ldrne	r3, [pc, #28]	; 9184 <rpi_set_output+0x64>
    9164:	15831000 	strne	r1, [r3]
    9168:	e28dd00c 	add	sp, sp, #12
    916c:	e49df004 	pop	{pc}		; (ldr pc, [sp], #4)
    9170:	0000a068 	andeq	sl, r0, r8, rrx
    9174:	00009a30 	andeq	r9, r0, r0, lsr sl
    9178:	0000a02c 	andeq	sl, r0, ip, lsr #32
    917c:	0000a010 	andeq	sl, r0, r0, lsl r0
    9180:	00009a28 	andeq	r9, r0, r8, lsr #20
    9184:	00009a2c 	andeq	r9, r0, ip, lsr #20

00009188 <va_printk>:
    9188:	e92d4ff0 	push	{r4, r5, r6, r7, r8, r9, sl, fp, lr}
    918c:	e24dd094 	sub	sp, sp, #148	; 0x94
    9190:	e1a0b000 	mov	fp, r0
    9194:	e58d200c 	str	r2, [sp, #12]
    9198:	e1a0a003 	mov	sl, r3
    919c:	e2411001 	sub	r1, r1, #1
    91a0:	e0808001 	add	r8, r0, r1
    91a4:	e3a03000 	mov	r3, #0
    91a8:	e5c03000 	strb	r3, [r0]
    91ac:	e1a04000 	mov	r4, r0
    91b0:	e1a06002 	mov	r6, r2
    91b4:	ea000095 	b	9410 <va_printk+0x288>
    91b8:	e3530025 	cmp	r3, #37	; 0x25
    91bc:	12866001 	addne	r6, r6, #1
    91c0:	15c43000 	strbne	r3, [r4]
    91c4:	12844001 	addne	r4, r4, #1
    91c8:	1a000090 	bne	9410 <va_printk+0x288>
    91cc:	e5d62001 	ldrb	r2, [r6, #1]
    91d0:	e3520025 	cmp	r2, #37	; 0x25
    91d4:	05c43000 	strbeq	r3, [r4]
    91d8:	02866002 	addeq	r6, r6, #2
    91dc:	02844001 	addeq	r4, r4, #1
    91e0:	0a00008a 	beq	9410 <va_printk+0x288>
    91e4:	e2866001 	add	r6, r6, #1
    91e8:	e3a07000 	mov	r7, #0
    91ec:	ea000004 	b	9204 <va_printk+0x7c>
    91f0:	e0877107 	add	r7, r7, r7, lsl #2
    91f4:	e1a07087 	lsl	r7, r7, #1
    91f8:	e0877005 	add	r7, r7, r5
    91fc:	e2477030 	sub	r7, r7, #48	; 0x30
    9200:	e2866001 	add	r6, r6, #1
    9204:	e5d65000 	ldrb	r5, [r6]
    9208:	e1a09005 	mov	r9, r5
    920c:	e1a00005 	mov	r0, r5
    9210:	ebffff33 	bl	8ee4 <isdigit>
    9214:	e3500000 	cmp	r0, #0
    9218:	1afffff4 	bne	91f0 <va_printk+0x68>
    921c:	e357001f 	cmp	r7, #31
    9220:	9a000008 	bls	9248 <va_printk+0xc0>
    9224:	ebffff17 	bl	8e88 <rpi_reset_putc>
    9228:	e59f320c 	ldr	r3, [pc, #524]	; 943c <va_printk+0x2b4>
    922c:	e58d3000 	str	r3, [sp]
    9230:	e59f0208 	ldr	r0, [pc, #520]	; 9440 <va_printk+0x2b8>
    9234:	e59f1208 	ldr	r1, [pc, #520]	; 9444 <va_printk+0x2bc>
    9238:	e59f2208 	ldr	r2, [pc, #520]	; 9448 <va_printk+0x2c0>
    923c:	e3a03095 	mov	r3, #149	; 0x95
    9240:	ebfffef5 	bl	8e1c <printk>
    9244:	eb00008c 	bl	947c <clean_reboot>
    9248:	e2455062 	sub	r5, r5, #98	; 0x62
    924c:	e3550016 	cmp	r5, #22
    9250:	979ff105 	ldrls	pc, [pc, r5, lsl #2]
    9254:	ea000052 	b	93a4 <va_printk+0x21c>
    9258:	00009348 	andeq	r9, r0, r8, asr #6
    925c:	0000937c 	andeq	r9, r0, ip, ror r3
    9260:	000092d0 	ldrdeq	r9, [r0], -r0
    9264:	000093a4 	andeq	r9, r0, r4, lsr #7
    9268:	000092b4 			; <UNDEFINED> instruction: 0x000092b4
    926c:	000093a4 	andeq	r9, r0, r4, lsr #7
    9270:	000093a4 	andeq	r9, r0, r4, lsr #7
    9274:	000093a4 	andeq	r9, r0, r4, lsr #7
    9278:	000093a4 	andeq	r9, r0, r4, lsr #7
    927c:	000093a4 	andeq	r9, r0, r4, lsr #7
    9280:	000093a4 	andeq	r9, r0, r4, lsr #7
    9284:	000093a4 	andeq	r9, r0, r4, lsr #7
    9288:	000093a4 	andeq	r9, r0, r4, lsr #7
    928c:	000093a4 	andeq	r9, r0, r4, lsr #7
    9290:	00009320 	andeq	r9, r0, r0, lsr #6
    9294:	000093a4 	andeq	r9, r0, r4, lsr #7
    9298:	000093a4 	andeq	r9, r0, r4, lsr #7
    929c:	00009370 	andeq	r9, r0, r0, ror r3
    92a0:	000093a4 	andeq	r9, r0, r4, lsr #7
    92a4:	000092f8 	strdeq	r9, [r0], -r8
    92a8:	000093a4 	andeq	r9, r0, r4, lsr #7
    92ac:	000093a4 	andeq	r9, r0, r4, lsr #7
    92b0:	00009320 	andeq	r9, r0, r0, lsr #6
    92b4:	ebfffef3 	bl	8e88 <rpi_reset_putc>
    92b8:	e59f018c 	ldr	r0, [pc, #396]	; 944c <va_printk+0x2c4>
    92bc:	e59f1180 	ldr	r1, [pc, #384]	; 9444 <va_printk+0x2bc>
    92c0:	e59f2180 	ldr	r2, [pc, #384]	; 9448 <va_printk+0x2c0>
    92c4:	e3a0309b 	mov	r3, #155	; 0x9b
    92c8:	ebfffed3 	bl	8e1c <printk>
    92cc:	eb00006a 	bl	947c <clean_reboot>
    92d0:	e59a3000 	ldr	r3, [sl]
    92d4:	e28aa004 	add	sl, sl, #4
    92d8:	e58d7000 	str	r7, [sp]
    92dc:	e3a02001 	mov	r2, #1
    92e0:	e58d2004 	str	r2, [sp, #4]
    92e4:	e3a0000a 	mov	r0, #10
    92e8:	e28d1010 	add	r1, sp, #16
    92ec:	e3a02080 	mov	r2, #128	; 0x80
    92f0:	ebffff1b 	bl	8f64 <emit>
    92f4:	ea00003b 	b	93e8 <va_printk+0x260>
    92f8:	e59a3000 	ldr	r3, [sl]
    92fc:	e28aa004 	add	sl, sl, #4
    9300:	e58d7000 	str	r7, [sp]
    9304:	e3a02000 	mov	r2, #0
    9308:	e58d2004 	str	r2, [sp, #4]
    930c:	e3a0000a 	mov	r0, #10
    9310:	e28d1010 	add	r1, sp, #16
    9314:	e3a02080 	mov	r2, #128	; 0x80
    9318:	ebffff11 	bl	8f64 <emit>
    931c:	ea000031 	b	93e8 <va_printk+0x260>
    9320:	e59a3000 	ldr	r3, [sl]
    9324:	e28aa004 	add	sl, sl, #4
    9328:	e58d7000 	str	r7, [sp]
    932c:	e3a02000 	mov	r2, #0
    9330:	e58d2004 	str	r2, [sp, #4]
    9334:	e3a00010 	mov	r0, #16
    9338:	e08d1000 	add	r1, sp, r0
    933c:	e3a02080 	mov	r2, #128	; 0x80
    9340:	ebffff07 	bl	8f64 <emit>
    9344:	ea000027 	b	93e8 <va_printk+0x260>
    9348:	e59a3000 	ldr	r3, [sl]
    934c:	e28aa004 	add	sl, sl, #4
    9350:	e58d7000 	str	r7, [sp]
    9354:	e3a02000 	mov	r2, #0
    9358:	e58d2004 	str	r2, [sp, #4]
    935c:	e3a00002 	mov	r0, #2
    9360:	e28d1010 	add	r1, sp, #16
    9364:	e3a02080 	mov	r2, #128	; 0x80
    9368:	ebfffefd 	bl	8f64 <emit>
    936c:	ea00001d 	b	93e8 <va_printk+0x260>
    9370:	e59a0000 	ldr	r0, [sl]
    9374:	e28aa004 	add	sl, sl, #4
    9378:	ea00001a 	b	93e8 <va_printk+0x260>
    937c:	e59a3000 	ldr	r3, [sl]
    9380:	e28aa004 	add	sl, sl, #4
    9384:	e58d7000 	str	r7, [sp]
    9388:	e3a02000 	mov	r2, #0
    938c:	e58d2004 	str	r2, [sp, #4]
    9390:	e3a00008 	mov	r0, #8
    9394:	e28d1010 	add	r1, sp, #16
    9398:	e3a02080 	mov	r2, #128	; 0x80
    939c:	ebfffef0 	bl	8f64 <emit>
    93a0:	ea000010 	b	93e8 <va_printk+0x260>
    93a4:	e3a03000 	mov	r3, #0
    93a8:	e5c63001 	strb	r3, [r6, #1]
    93ac:	e59f009c 	ldr	r0, [pc, #156]	; 9450 <va_printk+0x2c8>
    93b0:	e1a01009 	mov	r1, r9
    93b4:	e1a02009 	mov	r2, r9
    93b8:	ebfffe97 	bl	8e1c <printk>
    93bc:	e59f3090 	ldr	r3, [pc, #144]	; 9454 <va_printk+0x2cc>
    93c0:	e5933000 	ldr	r3, [r3]
    93c4:	e59d000c 	ldr	r0, [sp, #12]
    93c8:	e12fff33 	blx	r3
    93cc:	ebfffead 	bl	8e88 <rpi_reset_putc>
    93d0:	e59f0080 	ldr	r0, [pc, #128]	; 9458 <va_printk+0x2d0>
    93d4:	e59f1068 	ldr	r1, [pc, #104]	; 9444 <va_printk+0x2bc>
    93d8:	e59f2068 	ldr	r2, [pc, #104]	; 9448 <va_printk+0x2c0>
    93dc:	e3a030bf 	mov	r3, #191	; 0xbf
    93e0:	ebfffe8d 	bl	8e1c <printk>
    93e4:	eb000024 	bl	947c <clean_reboot>
    93e8:	e2866001 	add	r6, r6, #1
    93ec:	ea000002 	b	93fc <va_printk+0x274>
    93f0:	e2800001 	add	r0, r0, #1
    93f4:	e5c43000 	strb	r3, [r4]
    93f8:	e2844001 	add	r4, r4, #1
    93fc:	e1540008 	cmp	r4, r8
    9400:	2a000002 	bcs	9410 <va_printk+0x288>
    9404:	e5d03000 	ldrb	r3, [r0]
    9408:	e3530000 	cmp	r3, #0
    940c:	1afffff7 	bne	93f0 <va_printk+0x268>
    9410:	e5d63000 	ldrb	r3, [r6]
    9414:	e3530000 	cmp	r3, #0
    9418:	0a000001 	beq	9424 <va_printk+0x29c>
    941c:	e1540008 	cmp	r4, r8
    9420:	3affff64 	bcc	91b8 <va_printk+0x30>
    9424:	e2840001 	add	r0, r4, #1
    9428:	e3a03000 	mov	r3, #0
    942c:	e5c43000 	strb	r3, [r4]
    9430:	e06b0000 	rsb	r0, fp, r0
    9434:	e28dd094 	add	sp, sp, #148	; 0x94
    9438:	e8bd8ff0 	pop	{r4, r5, r6, r7, r8, r9, sl, fp, pc}
    943c:	0000a070 	andeq	sl, r0, r0, ror r0
    9440:	00009a30 	andeq	r9, r0, r0, lsr sl
    9444:	0000a02c 	andeq	sl, r0, ip, lsr #32
    9448:	0000a020 	andeq	sl, r0, r0, lsr #32
    944c:	0000a07c 	andeq	sl, r0, ip, ror r0
    9450:	0000a0a4 	andeq	sl, r0, r4, lsr #1
    9454:	00009a2c 	andeq	r9, r0, ip, lsr #20
    9458:	0000a0d4 	ldrdeq	sl, [r0], -r4

0000945c <enable_cache>:
    945c:	ee113f10 	mrc	15, 0, r3, cr1, cr0, {0}
    9460:	e3833b06 	orr	r3, r3, #6144	; 0x1800
    9464:	ee013f10 	mcr	15, 0, r3, cr1, cr0, {0}
    9468:	e12fff1e 	bx	lr

0000946c <disable_cache>:
    946c:	ee113f10 	mrc	15, 0, r3, cr1, cr0, {0}
    9470:	e3c33b06 	bic	r3, r3, #6144	; 0x1800
    9474:	ee013f10 	mcr	15, 0, r3, cr1, cr0, {0}
    9478:	e12fff1e 	bx	lr

0000947c <clean_reboot>:
    947c:	e92d4008 	push	{r3, lr}
    9480:	eb00004a 	bl	95b0 <reboot_handler>
    9484:	e59f3014 	ldr	r3, [pc, #20]	; 94a0 <clean_reboot+0x24>
    9488:	e5933000 	ldr	r3, [r3]
    948c:	e59f0010 	ldr	r0, [pc, #16]	; 94a4 <clean_reboot+0x28>
    9490:	e12fff33 	blx	r3
    9494:	e3a00064 	mov	r0, #100	; 0x64
    9498:	eb000099 	bl	9704 <delay_ms>
    949c:	eb00006a 	bl	964c <rpi_reboot>
    94a0:	00009a2c 	andeq	r9, r0, ip, lsr #20
    94a4:	0000a0f4 	strdeq	sl, [r0], -r4

000094a8 <_cstart>:
    94a8:	e92d4008 	push	{r3, lr}
    94ac:	e59f3024 	ldr	r3, [pc, #36]	; 94d8 <_cstart+0x30>
    94b0:	e59f2024 	ldr	r2, [pc, #36]	; 94dc <_cstart+0x34>
    94b4:	e3a01000 	mov	r1, #0
    94b8:	ea000001 	b	94c4 <_cstart+0x1c>
    94bc:	e5831000 	str	r1, [r3]
    94c0:	e2833004 	add	r3, r3, #4
    94c4:	e1530002 	cmp	r3, r2
    94c8:	3afffffb 	bcc	94bc <_cstart+0x14>
    94cc:	eb000036 	bl	95ac <cstart_handler>
    94d0:	ebfffb25 	bl	816c <notmain>
    94d4:	ebffffe8 	bl	947c <clean_reboot>
    94d8:	0000a218 	andeq	sl, r0, r8, lsl r2
    94dc:	0000a638 	andeq	sl, r0, r8, lsr r6

000094e0 <fast_interrupt_vector>:
    94e0:	e52de004 	push	{lr}		; (str lr, [sp, #-4]!)
    94e4:	e24dd00c 	sub	sp, sp, #12
    94e8:	e1a04000 	mov	r4, r0
    94ec:	ebfffe65 	bl	8e88 <rpi_reset_putc>
    94f0:	e59f301c 	ldr	r3, [pc, #28]	; 9514 <fast_interrupt_vector+0x34>
    94f4:	e58d3000 	str	r3, [sp]
    94f8:	e58d4004 	str	r4, [sp, #4]
    94fc:	e59f0014 	ldr	r0, [pc, #20]	; 9518 <fast_interrupt_vector+0x38>
    9500:	e59f1014 	ldr	r1, [pc, #20]	; 951c <fast_interrupt_vector+0x3c>
    9504:	e59f2014 	ldr	r2, [pc, #20]	; 9520 <fast_interrupt_vector+0x40>
    9508:	e3a03002 	mov	r3, #2
    950c:	ebfffe42 	bl	8e1c <printk>
    9510:	ebffffd9 	bl	947c <clean_reboot>
    9514:	0000a178 	andeq	sl, r0, r8, ror r1
    9518:	0000a118 	andeq	sl, r0, r8, lsl r1
    951c:	0000a154 	andeq	sl, r0, r4, asr r1
    9520:	0000a100 	andeq	sl, r0, r0, lsl #2

00009524 <reset_vector>:
    9524:	e52de004 	push	{lr}		; (str lr, [sp, #-4]!)
    9528:	e24dd00c 	sub	sp, sp, #12
    952c:	e1a04000 	mov	r4, r0
    9530:	ebfffe54 	bl	8e88 <rpi_reset_putc>
    9534:	e59f301c 	ldr	r3, [pc, #28]	; 9558 <reset_vector+0x34>
    9538:	e58d3000 	str	r3, [sp]
    953c:	e58d4004 	str	r4, [sp, #4]
    9540:	e59f0014 	ldr	r0, [pc, #20]	; 955c <reset_vector+0x38>
    9544:	e59f1014 	ldr	r1, [pc, #20]	; 9560 <reset_vector+0x3c>
    9548:	e59f2014 	ldr	r2, [pc, #20]	; 9564 <reset_vector+0x40>
    954c:	e3a03002 	mov	r3, #2
    9550:	ebfffe31 	bl	8e1c <printk>
    9554:	ebffffc8 	bl	947c <clean_reboot>
    9558:	0000a1b4 			; <UNDEFINED> instruction: 0x0000a1b4
    955c:	0000a118 	andeq	sl, r0, r8, lsl r1
    9560:	0000a190 	muleq	r0, r0, r1
    9564:	0000a180 	andeq	sl, r0, r0, lsl #3

00009568 <undefined_instruction_vector>:
    9568:	e52de004 	push	{lr}		; (str lr, [sp, #-4]!)
    956c:	e24dd00c 	sub	sp, sp, #12
    9570:	e1a04000 	mov	r4, r0
    9574:	ebfffe43 	bl	8e88 <rpi_reset_putc>
    9578:	e59f301c 	ldr	r3, [pc, #28]	; 959c <undefined_instruction_vector+0x34>
    957c:	e58d3000 	str	r3, [sp]
    9580:	e58d4004 	str	r4, [sp, #4]
    9584:	e59f0014 	ldr	r0, [pc, #20]	; 95a0 <undefined_instruction_vector+0x38>
    9588:	e59f1014 	ldr	r1, [pc, #20]	; 95a4 <undefined_instruction_vector+0x3c>
    958c:	e59f2014 	ldr	r2, [pc, #20]	; 95a8 <undefined_instruction_vector+0x40>
    9590:	e3a03002 	mov	r3, #2
    9594:	ebfffe20 	bl	8e1c <printk>
    9598:	ebffffb7 	bl	947c <clean_reboot>
    959c:	0000a208 	andeq	sl, r0, r8, lsl #4
    95a0:	0000a118 	andeq	sl, r0, r8, lsl r1
    95a4:	0000a1dc 	ldrdeq	sl, [r0], -ip
    95a8:	0000a1bc 			; <UNDEFINED> instruction: 0x0000a1bc

000095ac <cstart_handler>:
    95ac:	e12fff1e 	bx	lr

000095b0 <reboot_handler>:
    95b0:	e12fff1e 	bx	lr

000095b4 <int_init>:
    95b4:	e92d4008 	push	{r3, lr}
    95b8:	eb00005b 	bl	972c <dev_barrier>
    95bc:	e59f004c 	ldr	r0, [pc, #76]	; 9610 <int_init+0x5c>
    95c0:	e3e01000 	mvn	r1, #0
    95c4:	eb000060 	bl	974c <PUT32>
    95c8:	e59f0044 	ldr	r0, [pc, #68]	; 9614 <int_init+0x60>
    95cc:	e3e01000 	mvn	r1, #0
    95d0:	eb00005d 	bl	974c <PUT32>
    95d4:	eb000054 	bl	972c <dev_barrier>
    95d8:	e59f3038 	ldr	r3, [pc, #56]	; 9618 <int_init+0x64>
    95dc:	e59f0038 	ldr	r0, [pc, #56]	; 961c <int_init+0x68>
    95e0:	e0630000 	rsb	r0, r3, r0
    95e4:	e1a00140 	asr	r0, r0, #2
    95e8:	e3a03000 	mov	r3, #0
    95ec:	e59fc024 	ldr	ip, [pc, #36]	; 9618 <int_init+0x64>
    95f0:	ea000003 	b	9604 <int_init+0x50>
    95f4:	e1a02103 	lsl	r2, r3, #2
    95f8:	e79c1103 	ldr	r1, [ip, r3, lsl #2]
    95fc:	e5821000 	str	r1, [r2]
    9600:	e2833001 	add	r3, r3, #1
    9604:	e1530000 	cmp	r3, r0
    9608:	3afffff9 	bcc	95f4 <int_init+0x40>
    960c:	e8bd8008 	pop	{r3, pc}
    9610:	2000b21c 	andcs	fp, r0, ip, lsl r2
    9614:	2000b220 	andcs	fp, r0, r0, lsr #4
    9618:	000085dc 	ldrdeq	r8, [r0], -ip
    961c:	0000861c 	andeq	r8, r0, ip, lsl r6

00009620 <at_user_level>:
    9620:	e10f0000 	mrs	r0, CPSR
    9624:	e200001f 	and	r0, r0, #31
    9628:	e3500010 	cmp	r0, #16
    962c:	13a00000 	movne	r0, #0
    9630:	03a00001 	moveq	r0, #1
    9634:	e12fff1e 	bx	lr

00009638 <set_user_level>:
    9638:	e10f3000 	mrs	r3, CPSR
    963c:	e3c3301f 	bic	r3, r3, #31
    9640:	e3833010 	orr	r3, r3, #16
    9644:	e129f003 	msr	CPSR_fc, r3
    9648:	e12fff1e 	bx	lr

0000964c <rpi_reboot>:
    964c:	e92d4008 	push	{r3, lr}
    9650:	ebfffff2 	bl	9620 <at_user_level>
    9654:	e3500000 	cmp	r0, #0
    9658:	0a000000 	beq	9660 <rpi_reboot+0x14>
    965c:	ebfffff5 	bl	9638 <set_user_level>
    9660:	e3a0001e 	mov	r0, #30
    9664:	eb000026 	bl	9704 <delay_ms>
    9668:	e59f0014 	ldr	r0, [pc, #20]	; 9684 <rpi_reboot+0x38>
    966c:	e59f1014 	ldr	r1, [pc, #20]	; 9688 <rpi_reboot+0x3c>
    9670:	eb000035 	bl	974c <PUT32>
    9674:	e59f0010 	ldr	r0, [pc, #16]	; 968c <rpi_reboot+0x40>
    9678:	e59f1010 	ldr	r1, [pc, #16]	; 9690 <rpi_reboot+0x44>
    967c:	eb000032 	bl	974c <PUT32>
    9680:	eafffffe 	b	9680 <rpi_reboot+0x34>
    9684:	20100024 	andscs	r0, r0, r4, lsr #32
    9688:	5a000001 	bpl	9694 <delay_cycles>
    968c:	2010001c 	andscs	r0, r0, ip, lsl r0
    9690:	5a000020 	bpl	9718 <delay_sec>

00009694 <delay_cycles>:
    9694:	ea000001 	b	96a0 <delay_cycles+0xc>
    9698:	e2811000 	add	r1, r1, #0
    969c:	e1a00003 	mov	r0, r3
    96a0:	e2403001 	sub	r3, r0, #1
    96a4:	e3500000 	cmp	r0, #0
    96a8:	1afffffa 	bne	9698 <delay_cycles+0x4>
    96ac:	e12fff1e 	bx	lr

000096b0 <timer_get_usec_raw>:
    96b0:	e92d4008 	push	{r3, lr}
    96b4:	e59f0004 	ldr	r0, [pc, #4]	; 96c0 <timer_get_usec_raw+0x10>
    96b8:	eb00002f 	bl	977c <GET32>
    96bc:	e8bd8008 	pop	{r3, pc}
    96c0:	20003004 	andcs	r3, r0, r4

000096c4 <timer_get_usec>:
    96c4:	e92d4010 	push	{r4, lr}
    96c8:	eb000017 	bl	972c <dev_barrier>
    96cc:	ebfffff7 	bl	96b0 <timer_get_usec_raw>
    96d0:	e1a04000 	mov	r4, r0
    96d4:	eb000014 	bl	972c <dev_barrier>
    96d8:	e1a00004 	mov	r0, r4
    96dc:	e8bd8010 	pop	{r4, pc}

000096e0 <delay_us>:
    96e0:	e92d4038 	push	{r3, r4, r5, lr}
    96e4:	e1a05000 	mov	r5, r0
    96e8:	ebfffff5 	bl	96c4 <timer_get_usec>
    96ec:	e1a04000 	mov	r4, r0
    96f0:	ebfffff3 	bl	96c4 <timer_get_usec>
    96f4:	e0640000 	rsb	r0, r4, r0
    96f8:	e1500005 	cmp	r0, r5
    96fc:	3afffffb 	bcc	96f0 <delay_us+0x10>
    9700:	e8bd8038 	pop	{r3, r4, r5, pc}

00009704 <delay_ms>:
    9704:	e92d4008 	push	{r3, lr}
    9708:	e3a03ffa 	mov	r3, #1000	; 0x3e8
    970c:	e0000093 	mul	r0, r3, r0
    9710:	ebfffff2 	bl	96e0 <delay_us>
    9714:	e8bd8008 	pop	{r3, pc}

00009718 <delay_sec>:
    9718:	e92d4008 	push	{r3, lr}
    971c:	e3a03ffa 	mov	r3, #1000	; 0x3e8
    9720:	e0000093 	mul	r0, r3, r0
    9724:	ebfffff6 	bl	9704 <delay_ms>
    9728:	e8bd8008 	pop	{r3, pc}

0000972c <dev_barrier>:
    972c:	ea000002 	b	973c <dsb>

00009730 <dmb>:
    9730:	e3a00000 	mov	r0, #0
    9734:	ee070fba 	mcr	15, 0, r0, cr7, cr10, {5}
    9738:	e12fff1e 	bx	lr

0000973c <dsb>:
    973c:	ee070f9a 	mcr	15, 0, r0, cr7, cr10, {4}
    9740:	e12fff1e 	bx	lr

00009744 <put32>:
    9744:	e5801000 	str	r1, [r0]
    9748:	e12fff1e 	bx	lr

0000974c <PUT32>:
    974c:	e5801000 	str	r1, [r0]
    9750:	e12fff1e 	bx	lr

00009754 <put16>:
    9754:	e1c010b0 	strh	r1, [r0]
    9758:	e12fff1e 	bx	lr

0000975c <PUT16>:
    975c:	e1c010b0 	strh	r1, [r0]
    9760:	e12fff1e 	bx	lr

00009764 <put8>:
    9764:	e5c01000 	strb	r1, [r0]
    9768:	e12fff1e 	bx	lr

0000976c <PUT8>:
    976c:	e5c01000 	strb	r1, [r0]
    9770:	e12fff1e 	bx	lr

00009774 <get32>:
    9774:	e5900000 	ldr	r0, [r0]
    9778:	e12fff1e 	bx	lr

0000977c <GET32>:
    977c:	e5900000 	ldr	r0, [r0]
    9780:	e12fff1e 	bx	lr

00009784 <GETPC>:
    9784:	e1a0000e 	mov	r0, lr
    9788:	e12fff1e 	bx	lr

0000978c <dummy>:
    978c:	e12fff1e 	bx	lr

00009790 <or_in32>:
    9790:	e92d4070 	push	{r4, r5, r6, lr}
    9794:	e1a04000 	mov	r4, r0
    9798:	e1a05001 	mov	r5, r1
    979c:	ebfffff4 	bl	9774 <get32>
    97a0:	e1801005 	orr	r1, r0, r5
    97a4:	e1a00004 	mov	r0, r4
    97a8:	ebffffe5 	bl	9744 <put32>
    97ac:	e8bd8070 	pop	{r4, r5, r6, pc}

000097b0 <uart_init>:
    97b0:	e92d4010 	push	{r4, lr}
    97b4:	e3a01002 	mov	r1, #2
    97b8:	e3a0000e 	mov	r0, #14
    97bc:	eb000051 	bl	9908 <gpio_set_function>
    97c0:	e3a01002 	mov	r1, #2
    97c4:	e3a0000f 	mov	r0, #15
    97c8:	eb00004e 	bl	9908 <gpio_set_function>
    97cc:	ebffffd6 	bl	972c <dev_barrier>
    97d0:	e3a01001 	mov	r1, #1
    97d4:	e59f0064 	ldr	r0, [pc, #100]	; 9840 <uart_init+0x90>
    97d8:	ebffffec 	bl	9790 <or_in32>
    97dc:	ebffffd2 	bl	972c <dev_barrier>
    97e0:	e59f405c 	ldr	r4, [pc, #92]	; 9844 <uart_init+0x94>
    97e4:	e3a01000 	mov	r1, #0
    97e8:	e1a00004 	mov	r0, r4
    97ec:	ebffffd4 	bl	9744 <put32>
    97f0:	e3a01000 	mov	r1, #0
    97f4:	e59f004c 	ldr	r0, [pc, #76]	; 9848 <uart_init+0x98>
    97f8:	ebffffd1 	bl	9744 <put32>
    97fc:	e3a01003 	mov	r1, #3
    9800:	e59f0044 	ldr	r0, [pc, #68]	; 984c <uart_init+0x9c>
    9804:	ebffffce 	bl	9744 <put32>
    9808:	e3a01000 	mov	r1, #0
    980c:	e59f003c 	ldr	r0, [pc, #60]	; 9850 <uart_init+0xa0>
    9810:	ebffffcb 	bl	9744 <put32>
    9814:	e3a010c7 	mov	r1, #199	; 0xc7
    9818:	e59f0034 	ldr	r0, [pc, #52]	; 9854 <uart_init+0xa4>
    981c:	ebffffc8 	bl	9744 <put32>
    9820:	e59f1030 	ldr	r1, [pc, #48]	; 9858 <uart_init+0xa8>
    9824:	e59f0030 	ldr	r0, [pc, #48]	; 985c <uart_init+0xac>
    9828:	ebffffc5 	bl	9744 <put32>
    982c:	e3a01003 	mov	r1, #3
    9830:	e1a00004 	mov	r0, r4
    9834:	ebffffc2 	bl	9744 <put32>
    9838:	ebffffbb 	bl	972c <dev_barrier>
    983c:	e8bd8010 	pop	{r4, pc}
    9840:	20215004 	eorcs	r5, r1, r4
    9844:	20215060 	eorcs	r5, r1, r0, rrx
    9848:	20215044 	eorcs	r5, r1, r4, asr #32
    984c:	2021504c 	eorcs	r5, r1, ip, asr #32
    9850:	20215050 	eorcs	r5, r1, r0, asr r0
    9854:	20215048 	eorcs	r5, r1, r8, asr #32
    9858:	0000010e 	andeq	r0, r0, lr, lsl #2
    985c:	20215068 	eorcs	r5, r1, r8, rrx

00009860 <uart_can_getc>:
    9860:	e92d4010 	push	{r4, lr}
    9864:	e59f0008 	ldr	r0, [pc, #8]	; 9874 <uart_can_getc+0x14>
    9868:	ebffffc1 	bl	9774 <get32>
    986c:	e2000001 	and	r0, r0, #1
    9870:	e8bd8010 	pop	{r4, pc}
    9874:	20215064 	eorcs	r5, r1, r4, rrx

00009878 <uart_can_putc>:
    9878:	e92d4010 	push	{r4, lr}
    987c:	e59f0010 	ldr	r0, [pc, #16]	; 9894 <uart_can_putc+0x1c>
    9880:	ebffffbb 	bl	9774 <get32>
    9884:	e3100002 	tst	r0, #2
    9888:	13a00001 	movne	r0, #1
    988c:	03a00000 	moveq	r0, #0
    9890:	e8bd8010 	pop	{r4, pc}
    9894:	20215064 	eorcs	r5, r1, r4, rrx

00009898 <uart_getc>:
    9898:	e92d4010 	push	{r4, lr}
    989c:	ebffffa2 	bl	972c <dev_barrier>
    98a0:	ebffffee 	bl	9860 <uart_can_getc>
    98a4:	e3500000 	cmp	r0, #0
    98a8:	0afffffc 	beq	98a0 <uart_getc+0x8>
    98ac:	e59f0010 	ldr	r0, [pc, #16]	; 98c4 <uart_getc+0x2c>
    98b0:	ebffffaf 	bl	9774 <get32>
    98b4:	e6ef4070 	uxtb	r4, r0
    98b8:	ebffff9b 	bl	972c <dev_barrier>
    98bc:	e1a00004 	mov	r0, r4
    98c0:	e8bd8010 	pop	{r4, pc}
    98c4:	20215040 	eorcs	r5, r1, r0, asr #32

000098c8 <uart_putc>:
    98c8:	e92d4010 	push	{r4, lr}
    98cc:	e1a04000 	mov	r4, r0
    98d0:	ebffff95 	bl	972c <dev_barrier>
    98d4:	ebffffe7 	bl	9878 <uart_can_putc>
    98d8:	e3500000 	cmp	r0, #0
    98dc:	0afffffc 	beq	98d4 <uart_putc+0xc>
    98e0:	e6ef1074 	uxtb	r1, r4
    98e4:	e59f0008 	ldr	r0, [pc, #8]	; 98f4 <uart_putc+0x2c>
    98e8:	ebffff95 	bl	9744 <put32>
    98ec:	ebffff8e 	bl	972c <dev_barrier>
    98f0:	e8bd8010 	pop	{r4, pc}
    98f4:	20215040 	eorcs	r5, r1, r0, asr #32

000098f8 <uart_has_data>:
    98f8:	e92d4010 	push	{r4, lr}
    98fc:	ebffff8a 	bl	972c <dev_barrier>
    9900:	ebffffd6 	bl	9860 <uart_can_getc>
    9904:	e8bd8010 	pop	{r4, pc}

00009908 <gpio_set_function>:
    9908:	e350001f 	cmp	r0, #31
    990c:	812fff1e 	bxhi	lr
    9910:	e3d13007 	bics	r3, r1, #7
    9914:	112fff1e 	bxne	lr
    9918:	e92d4070 	push	{r4, r5, r6, lr}
    991c:	e1a05001 	mov	r5, r1
    9920:	e59f3044 	ldr	r3, [pc, #68]	; 996c <gpio_set_function+0x64>
    9924:	e0832093 	umull	r2, r3, r3, r0
    9928:	e1a031a3 	lsr	r3, r3, #3
    992c:	e1a06003 	mov	r6, r3
    9930:	e0833103 	add	r3, r3, r3, lsl #2
    9934:	e1a02083 	lsl	r2, r3, #1
    9938:	e0403002 	sub	r3, r0, r2
    993c:	e0834083 	add	r4, r3, r3, lsl #1
    9940:	e2866302 	add	r6, r6, #134217728	; 0x8000000
    9944:	e2866702 	add	r6, r6, #524288	; 0x80000
    9948:	e1a06106 	lsl	r6, r6, #2
    994c:	e1a00006 	mov	r0, r6
    9950:	ebffff89 	bl	977c <GET32>
    9954:	e3a01007 	mov	r1, #7
    9958:	e1c01411 	bic	r1, r0, r1, lsl r4
    995c:	e1811415 	orr	r1, r1, r5, lsl r4
    9960:	e1a00006 	mov	r0, r6
    9964:	ebffff78 	bl	974c <PUT32>
    9968:	e8bd8070 	pop	{r4, r5, r6, pc}
    996c:	cccccccd 	stclgt	12, cr12, [ip], {205}	; 0xcd

00009970 <gpio_set_output>:
    9970:	e92d4010 	push	{r4, lr}
    9974:	e3a01001 	mov	r1, #1
    9978:	ebffffe2 	bl	9908 <gpio_set_function>
    997c:	e8bd8010 	pop	{r4, pc}

00009980 <gpio_set_on>:
    9980:	e350001f 	cmp	r0, #31
    9984:	812fff1e 	bxhi	lr
    9988:	e92d4010 	push	{r4, lr}
    998c:	e3a01001 	mov	r1, #1
    9990:	e1a01011 	lsl	r1, r1, r0
    9994:	e59f0004 	ldr	r0, [pc, #4]	; 99a0 <gpio_set_on+0x20>
    9998:	ebffff6b 	bl	974c <PUT32>
    999c:	e8bd8010 	pop	{r4, pc}
    99a0:	2020001c 	eorcs	r0, r0, ip, lsl r0

000099a4 <gpio_set_off>:
    99a4:	e350001f 	cmp	r0, #31
    99a8:	812fff1e 	bxhi	lr
    99ac:	e92d4010 	push	{r4, lr}
    99b0:	e3a01001 	mov	r1, #1
    99b4:	e1a01011 	lsl	r1, r1, r0
    99b8:	e59f0004 	ldr	r0, [pc, #4]	; 99c4 <gpio_set_off+0x20>
    99bc:	ebffff62 	bl	974c <PUT32>
    99c0:	e8bd8010 	pop	{r4, pc}
    99c4:	20200028 	eorcs	r0, r0, r8, lsr #32

000099c8 <gpio_set_input>:
    99c8:	e92d4010 	push	{r4, lr}
    99cc:	e3a01000 	mov	r1, #0
    99d0:	ebffffcc 	bl	9908 <gpio_set_function>
    99d4:	e8bd8010 	pop	{r4, pc}

000099d8 <gpio_write>:
    99d8:	e92d4010 	push	{r4, lr}
    99dc:	e3510000 	cmp	r1, #0
    99e0:	1a000001 	bne	99ec <gpio_write+0x14>
    99e4:	ebffffee 	bl	99a4 <gpio_set_off>
    99e8:	e8bd8010 	pop	{r4, pc}
    99ec:	ebffffe3 	bl	9980 <gpio_set_on>
    99f0:	e8bd8010 	pop	{r4, pc}

000099f4 <gpio_read>:
    99f4:	e350001f 	cmp	r0, #31
    99f8:	8a000007 	bhi	9a1c <gpio_read+0x28>
    99fc:	e92d4010 	push	{r4, lr}
    9a00:	e200401f 	and	r4, r0, #31
    9a04:	e59f3018 	ldr	r3, [pc, #24]	; 9a24 <gpio_read+0x30>
    9a08:	e08302a0 	add	r0, r3, r0, lsr #5
    9a0c:	ebffff5a 	bl	977c <GET32>
    9a10:	e1a00430 	lsr	r0, r0, r4
    9a14:	e2000001 	and	r0, r0, #1
    9a18:	e8bd8010 	pop	{r4, pc}
    9a1c:	e3e00000 	mvn	r0, #0
    9a20:	e12fff1e 	bx	lr
    9a24:	20200034 	eorcs	r0, r0, r4, lsr r0

Disassembly of section .data:

00009a28 <__data_start__>:
    9a28:	00008e74 	andeq	r8, r0, r4, ror lr

00009a2c <putk>:
    9a2c:	00008eb0 			; <UNDEFINED> instruction: 0x00008eb0

Disassembly of section .rodata:

00009a30 <C.0.4426-0xfc>:
    9a30:	494e4150 	stmdbmi	lr, {r4, r6, r8, lr}^
    9a34:	73253a43 	teqvc	r5, #274432	; 0x43000
    9a38:	3a73253a 	bcc	1cd2f28 <__bss_end__+0x1cc88f0>
    9a3c:	253a6425 	ldrcs	r6, [sl, #-1061]!	; 0x425
    9a40:	00000a73 	andeq	r0, r0, r3, ror sl
    9a44:	70632f2e 	rsbvc	r2, r3, lr, lsr #30
    9a48:	752d7273 	strvc	r7, [sp, #-627]!	; 0x273
    9a4c:	2e6c6974 	mcrcs	9, 3, r6, cr12, cr4, {3}
    9a50:	00000068 	andeq	r0, r0, r8, rrx
    9a54:	65646f6d 	strbvs	r6, [r4, #-3949]!	; 0xf6d
    9a58:	67656c5f 			; <UNDEFINED> instruction: 0x67656c5f
    9a5c:	6d286c61 	stcvs	12, cr6, [r8, #-388]!	; 0xfffffe7c
    9a60:	2965646f 	stmdbcs	r5!, {r0, r1, r2, r3, r5, r6, sl, sp, lr}^
    9a64:	00000000 	andeq	r0, r0, r0
    9a68:	74736574 	ldrbtvc	r6, [r3], #-1396	; 0x574
    9a6c:	302e3273 	eorcc	r3, lr, r3, ror r2
    9a70:	2d36312f 	ldfcss	f3, [r6, #-188]!	; 0xffffff44
    9a74:	74726170 	ldrbtvc	r6, [r2], #-368	; 0x170
    9a78:	65742d32 	ldrbvs	r2, [r4, #-3378]!	; 0xd32
    9a7c:	2e327473 	mrccs	4, 1, r7, cr2, cr3, {3}
    9a80:	00000063 	andeq	r0, r0, r3, rrx
    9a84:	65646f6d 	strbvs	r6, [r4, #-3949]!	; 0xf6d
    9a88:	7465675f 	strbtvc	r6, [r5], #-1887	; 0x75f
    9a8c:	73706328 	cmnvc	r0, #40, 6	; 0xa0000000
    9a90:	65675f72 	strbvs	r5, [r7, #-3954]!	; 0xf72
    9a94:	29292874 	stmdbcs	r9!, {r2, r4, r5, r6, fp, sp}
    9a98:	203d3d20 	eorscs	r3, sp, r0, lsr #26
    9a9c:	52455355 	subpl	r5, r5, #1409286145	; 0x54000001
    9aa0:	444f4d5f 	strbmi	r4, [pc], #-3423	; 9aa8 <__data_end__+0x78>
    9aa4:	00000045 	andeq	r0, r0, r5, asr #32
    9aa8:	656e2e63 	strbvs	r2, [lr, #-3683]!	; 0xe63
    9aac:	726f7272 	rsbvc	r7, pc, #536870919	; 0x20000007
    9ab0:	00000073 	andeq	r0, r0, r3, ror r0
    9ab4:	494e4150 	stmdbmi	lr, {r4, r6, r8, lr}^
    9ab8:	73253a43 	teqvc	r5, #274432	; 0x43000
    9abc:	3a73253a 	bcc	1cd2fac <__bss_end__+0x1cc8974>
    9ac0:	633a6425 	teqvs	sl, #620756992	; 0x25000000
    9ac4:	6b636568 	blvs	18e306c <__bss_end__+0x18d8a34>
    9ac8:	6f687320 	svcvs	0x00687320
    9acc:	20646c75 	rsbcs	r6, r4, r5, ror ip
    9ad0:	20746f6e 	rsbscs	r6, r4, lr, ror #30
    9ad4:	65766168 	ldrbvs	r6, [r6, #-360]!	; 0x168
    9ad8:	69616620 	stmdbvs	r1!, {r5, r9, sl, sp, lr}^
    9adc:	2c64656c 	cfstr64cs	mvdx6, [r4], #-432	; 0xfffffe50
    9ae0:	69727420 	ldmdbvs	r2!, {r5, sl, ip, sp, lr}^
    9ae4:	3d736c61 	ldclcc	12, cr6, [r3, #-388]!	; 0xfffffe7c
    9ae8:	202c6425 	eorcs	r6, ip, r5, lsr #8
    9aec:	6f727265 	svcvs	0x00727265
    9af0:	253d7372 	ldrcs	r7, [sp, #-882]!	; 0x372
    9af4:	0a212164 	beq	85208c <__bss_end__+0x847a54>
    9af8:	0000000a 	andeq	r0, r0, sl
    9afc:	6e2e6321 	cdpvs	3, 2, cr6, cr14, cr1, {1}
    9b00:	6f727265 	svcvs	0x00727265
    9b04:	00007372 	andeq	r7, r0, r2, ror r3
    9b08:	43435553 	movtmi	r5, #13651	; 0x3553
    9b0c:	3a535345 	bcc	14de828 <__bss_end__+0x14d41f0>
    9b10:	00000000 	andeq	r0, r0, r0
    9b14:	6b726f77 	blvs	1ca58f8 <__bss_end__+0x1c9b2c0>
    9b18:	20216465 	eorcs	r6, r1, r5, ror #8
    9b1c:	72746e20 	rsbsvc	r6, r4, #32, 28	; 0x200
    9b20:	736c6169 	cmnvc	ip, #1073741850	; 0x4000001a
    9b24:	0a64253d 	beq	1913020 <__bss_end__+0x19089e8>
    9b28:	00000000 	andeq	r0, r0, r0

00009b2c <C.0.4426>:
    9b2c:	00000000 	andeq	r0, r0, r0
    9b30:	00008020 	andeq	r8, r0, r0, lsr #32
    9b34:	000080e8 	andeq	r8, r0, r8, ror #1
    9b38:	000080f0 	strdeq	r8, [r0], -r0
    9b3c:	000080f4 	strdeq	r8, [r0], -r4
	...

00009b64 <__FUNCTION__.4413>:
    9b64:	5f737065 	svcpl	0x00737065
    9b68:	00000041 	andeq	r0, r0, r1, asr #32

00009b6c <__FUNCTION__.4392>:
    9b6c:	65646f6d 	strbvs	r6, [r4, #-3949]!	; 0xf6d
    9b70:	7465675f 	strbtvc	r6, [r5], #-1887	; 0x75f
    9b74:	00000000 	andeq	r0, r0, r0

00009b78 <__FUNCTION__.4251>:
    9b78:	73746962 	cmnvc	r4, #1605632	; 0x188000
    9b7c:	7465675f 	strbtvc	r6, [r5], #-1887	; 0x75f
    9b80:	00000000 	andeq	r0, r0, r0

00009b84 <__FUNCTION__.4432>:
    9b84:	6d746f6e 	ldclvs	15, cr6, [r4, #-440]!	; 0xfffffe48
    9b88:	006e6961 	rsbeq	r6, lr, r1, ror #18
    9b8c:	34317063 	ldrtcc	r7, [r1], #-99	; 0x63
    9b90:	6265642d 	rsbvs	r6, r5, #754974720	; 0x2d000000
    9b94:	632e6775 	teqvs	lr, #30670848	; 0x1d40000
    9b98:	00000000 	andeq	r0, r0, r0
    9b9c:	30726377 	rsbscc	r6, r2, r7, ror r3
    9ba0:	6765725f 			; <UNDEFINED> instruction: 0x6765725f
    9ba4:	203d3d20 	eorscs	r3, sp, r0, lsr #26
    9ba8:	30726377 	rsbscc	r6, r2, r7, ror r3
    9bac:	7465675f 	strbtvc	r6, [r5], #-1887	; 0x75f
    9bb0:	00002928 	andeq	r2, r0, r8, lsr #18
    9bb4:	494e4150 	stmdbmi	lr, {r4, r6, r8, lr}^
    9bb8:	73253a43 	teqvc	r5, #274432	; 0x43000
    9bbc:	3a73253a 	bcc	1cd30ac <__bss_end__+0x1cc8a74>
    9bc0:	693a6425 	ldmdbvs	sl!, {r0, r2, r5, sl, sp, lr}
    9bc4:	736f706d 	cmnvc	pc, #109	; 0x6d
    9bc8:	6c626973 	stclvs	9, cr6, [r2], #-460	; 0xfffffe34
    9bcc:	73203a65 	teqvc	r0, #413696	; 0x65000
    9bd0:	6c756f68 	ldclvs	15, cr6, [r5], #-416	; 0xfffffe60
    9bd4:	6e6f2064 	cdpvs	0, 6, cr2, cr15, cr4, {3}
    9bd8:	6720796c 	strvs	r7, [r0, -ip, ror #18]!
    9bdc:	64207465 	strtvs	r7, [r0], #-1125	; 0x465
    9be0:	66617461 	strbtvs	r7, [r1], -r1, ror #8
    9be4:	746c7561 	strbtvc	r7, [ip], #-1377	; 0x561
    9be8:	000a0a73 	andeq	r0, sl, r3, ror sl
    9bec:	34317063 	ldrtcc	r7, [r1], #-99	; 0x63
    9bf0:	6265642d 	rsbvs	r6, r5, #754974720	; 0x2d000000
    9bf4:	682e6775 	stmdavs	lr!, {r0, r2, r4, r5, r6, r8, r9, sl, sp, lr}
    9bf8:	00000000 	andeq	r0, r0, r0
    9bfc:	72616677 	rsbvc	r6, r1, #124780544	; 0x7700000
    9c00:	7465675f 	strbtvc	r6, [r5], #-1887	; 0x75f
    9c04:	342d2928 	strtcc	r2, [sp], #-2344	; 0x928
    9c08:	203d3d20 	eorscs	r3, sp, r0, lsr #26
    9c0c:	00006370 	andeq	r6, r0, r0, ror r3
    9c10:	63746177 	cmnvs	r4, #-1073741795	; 0xc000001d
    9c14:	5f747068 	svcpl	0x00747068
    9c18:	646e6168 	strbtvs	r6, [lr], #-360	; 0x168
    9c1c:	3072656c 	rsbscc	r6, r2, ip, ror #10
    9c20:	00000000 	andeq	r0, r0, r0
    9c24:	494e4150 	stmdbmi	lr, {r4, r6, r8, lr}^
    9c28:	73253a43 	teqvc	r5, #274432	; 0x43000
    9c2c:	3a73253a 	bcc	1cd311c <__bss_end__+0x1cc8ae4>
    9c30:	693a6425 	ldmdbvs	sl!, {r0, r2, r5, sl, sp, lr}
    9c34:	736f706d 	cmnvc	pc, #109	; 0x6d
    9c38:	6c626973 	stclvs	9, cr6, [r2], #-460	; 0xfffffe34
    9c3c:	73203a65 	teqvc	r0, #413696	; 0x65000
    9c40:	6c756f68 	ldclvs	15, cr6, [r5], #-416	; 0xfffffe60
    9c44:	65672064 	strbvs	r2, [r7, #-100]!	; 0x64
    9c48:	6f6e2074 	svcvs	0x006e2074
    9c4c:	68746f20 	ldmdavs	r4!, {r5, r8, r9, sl, fp, sp, lr}^
    9c50:	66207265 	strtvs	r7, [r0], -r5, ror #4
    9c54:	746c7561 	strbtvc	r7, [ip], #-1377	; 0x561
    9c58:	000a0a73 	andeq	r0, sl, r3, ror sl
    9c5c:	706b7262 	rsbvc	r7, fp, r2, ror #4
    9c60:	61685f74 	smcvs	34292	; 0x85f4
    9c64:	656c646e 	strbvs	r6, [ip, #-1134]!	; 0x46e
    9c68:	00003072 	andeq	r3, r0, r2, ror r0
    9c6c:	494e4150 	stmdbmi	lr, {r4, r6, r8, lr}^
    9c70:	73253a43 	teqvc	r5, #274432	; 0x43000
    9c74:	3a73253a 	bcc	1cd3164 <__bss_end__+0x1cc8b2c>
    9c78:	723a6425 	eorsvc	r6, sl, #620756992	; 0x25000000
    9c7c:	72757465 	rsbsvc	r7, r5, #1694498816	; 0x65000000
    9c80:	2064656e 	rsbcs	r6, r4, lr, ror #10
    9c84:	20646e61 	rsbcs	r6, r4, r1, ror #28
    9c88:	756f6873 	strbvc	r6, [pc, #-2163]!	; 941d <va_printk+0x295>
    9c8c:	6e20646c 	cdpvs	4, 2, cr6, cr0, cr12, {3}
    9c90:	6820746f 	stmdavs	r0!, {r0, r1, r2, r3, r5, r6, sl, ip, sp, lr}
    9c94:	21657661 	cmncs	r5, r1, ror #12
    9c98:	00000a0a 	andeq	r0, r0, sl, lsl #20
    9c9c:	656c6c69 	strbvs	r6, [ip, #-3177]!	; 0xc69
    9ca0:	206c6167 	rsbcs	r6, ip, r7, ror #2
    9ca4:	74737973 	ldrbtvc	r7, [r3], #-2419	; 0x973
    9ca8:	63206d65 	teqvs	r0, #6464	; 0x1940
    9cac:	206c6c61 	rsbcs	r6, ip, r1, ror #24
    9cb0:	000a6425 	andeq	r6, sl, r5, lsr #8

00009cb4 <__FUNCTION__.4393>:
    9cb4:	63746177 	cmnvs	r4, #-1073741795	; 0xc000001d
    9cb8:	5f747068 	svcpl	0x00747068
    9cbc:	30746573 	rsbscc	r6, r4, r3, ror r5
    9cc0:	00000000 	andeq	r0, r0, r0

00009cc4 <__FUNCTION__.4399>:
    9cc4:	61746164 	cmnvs	r4, r4, ror #2
    9cc8:	6f62615f 	svcvs	0x0062615f
    9ccc:	765f7472 			; <UNDEFINED> instruction: 0x765f7472
    9cd0:	6f746365 	svcvs	0x00746365
    9cd4:	00000072 	andeq	r0, r0, r2, ror r0

00009cd8 <__FUNCTION__.4306>:
    9cd8:	5f736177 	svcpl	0x00736177
    9cdc:	75626564 	strbvc	r6, [r2, #-1380]!	; 0x564
    9ce0:	61645f67 	cmnvs	r4, r7, ror #30
    9ce4:	61666174 	smcvs	26132	; 0x6614
    9ce8:	00746c75 	rsbseq	r6, r4, r5, ror ip

00009cec <__FUNCTION__.4443>:
    9cec:	66657270 			; <UNDEFINED> instruction: 0x66657270
    9cf0:	68637465 	stmdavs	r3!, {r0, r2, r5, r6, sl, ip, sp, lr}^
    9cf4:	6f62615f 	svcvs	0x0062615f
    9cf8:	765f7472 			; <UNDEFINED> instruction: 0x765f7472
    9cfc:	6f746365 	svcvs	0x00746365
    9d00:	00000072 	andeq	r0, r0, r2, ror r0

00009d04 <__FUNCTION__.4451>:
    9d04:	5f6b7262 	svcpl	0x006b7262
    9d08:	725f6f6e 	subsvc	r6, pc, #440	; 0x1b8
    9d0c:	655f7465 	ldrbvs	r7, [pc, #-1125]	; 98af <uart_getc+0x17>
    9d10:	726f7272 	rsbvc	r7, pc, #536870919	; 0x20000007
    9d14:	00000000 	andeq	r0, r0, r0
    9d18:	253a7325 	ldrcs	r7, [sl, #-805]!	; 0x325
    9d1c:	64253a73 	strtvs	r3, [r5], #-2675	; 0xa73
    9d20:	6572703a 	ldrbvs	r7, [r2, #-58]!	; 0x3a
    9d24:	63746566 	cmnvs	r4, #427819008	; 0x19800000
    9d28:	62612068 	rsbvs	r2, r1, #104	; 0x68
    9d2c:	2074726f 	rsbscs	r7, r4, pc, ror #4
    9d30:	25207461 	strcs	r7, [r0, #-1121]!	; 0x461
    9d34:	00000a70 	andeq	r0, r0, r0, ror sl
    9d38:	63656863 	cmnvs	r5, #6488064	; 0x630000
    9d3c:	6e692d6b 	cdpvs	13, 6, cr2, cr9, cr11, {3}
    9d40:	6c726574 	cfldr64vs	mvdx6, [r2], #-464	; 0xfffffe30
    9d44:	65766165 	ldrbvs	r6, [r6, #-357]!	; 0x165
    9d48:	0000632e 	andeq	r6, r0, lr, lsr #6
    9d4c:	756f6261 	strbvc	r6, [pc, #-609]!	; 9af3 <__data_end__+0xc3>
    9d50:	6f742074 	svcvs	0x00742074
    9d54:	69777320 	ldmdbvs	r7!, {r5, r8, r9, ip, sp, lr}^
    9d58:	20686374 	rsbcs	r6, r8, r4, ror r3
    9d5c:	6d6f7266 	sfmvs	f7, 2, [pc, #-408]!	; 9bcc <__FUNCTION__.4432+0x48>
    9d60:	20702520 	rsbscs	r2, r0, r0, lsr #10
    9d64:	25206f74 	strcs	r6, [r0, #-3956]!	; 0xf74
    9d68:	00000a70 	andeq	r0, r0, r0, ror sl
    9d6c:	656e6f64 	strbvs	r6, [lr, #-3940]!	; 0xf64
    9d70:	6e757220 	cdpvs	2, 7, cr7, cr5, cr0, {1}
    9d74:	676e696e 	strbvs	r6, [lr, -lr, ror #18]!
    9d78:	202c4220 	eorcs	r4, ip, r0, lsr #4
    9d7c:	6e696f67 	cdpvs	15, 6, cr6, cr9, cr7, {3}
    9d80:	6f742067 	svcvs	0x00742067
    9d84:	74657220 	strbtvc	r7, [r5], #-544	; 0x220
    9d88:	206e7275 	rsbcs	r7, lr, r5, ror r2
    9d8c:	41206f74 	teqmi	r0, r4, ror pc
    9d90:	0000000a 	andeq	r0, r0, sl
    9d94:	693e2d63 	ldmdbvs	lr!, {r0, r1, r5, r6, r8, sl, fp, sp}
    9d98:	5f74736e 	svcpl	0x0074736e
    9d9c:	6e756f63 	cdpvs	15, 7, cr6, cr5, cr3, {3}
    9da0:	203c2074 	eorscs	r2, ip, r4, ror r0
    9da4:	733e2d63 	teqvc	lr, #6336	; 0x18c0
    9da8:	63746977 	cmnvs	r4, #1949696	; 0x1dc000
    9dac:	6e6f5f68 	cdpvs	15, 6, cr5, cr15, cr8, {3}
    9db0:	736e695f 	cmnvc	lr, #1556480	; 0x17c000
    9db4:	006e5f74 	rsbeq	r5, lr, r4, ror pc
    9db8:	253a7325 	ldrcs	r7, [sl, #-805]!	; 0x325
    9dbc:	64253a73 	strtvs	r3, [r5], #-2675	; 0xa73
    9dc0:	7465733a 	strbtvc	r7, [r5], #-826	; 0x33a
    9dc4:	676e6974 			; <UNDEFINED> instruction: 0x676e6974
    9dc8:	20707520 	rsbscs	r7, r0, r0, lsr #10
    9dcc:	696d2061 	stmdbvs	sp!, {r0, r5, r6, sp}^
    9dd0:	74616d73 	strbtvc	r6, [r1], #-3443	; 0xd73
    9dd4:	6f206863 	svcvs	0x00206863
    9dd8:	7025206e 	eorvc	r2, r5, lr, rrx
    9ddc:	0000000a 	andeq	r0, r0, sl
    9de0:	253a7325 	ldrcs	r7, [sl, #-805]!	; 0x325
    9de4:	64253a73 	strtvs	r3, [r5], #-2675	; 0xa73
    9de8:	6e6f643a 	mcrvs	4, 3, r6, cr15, cr10, {1}
    9dec:	65732065 	ldrbvs	r2, [r3, #-101]!	; 0x65
    9df0:	6e697474 	mcrvs	4, 3, r7, cr9, cr4, {3}
    9df4:	70752067 	rsbsvc	r2, r5, r7, rrx
    9df8:	6d206120 	stfvss	f6, [r0, #-128]!	; 0xffffff80
    9dfc:	616d7369 	cmnvs	sp, r9, ror #6
    9e00:	20686374 	rsbcs	r6, r8, r4, ror r3
    9e04:	25206e6f 	strcs	r6, [r0, #-3695]!	; 0xe6f
    9e08:	00000a70 	andeq	r0, r0, r0, ror sl
    9e0c:	52455355 	subpl	r5, r5, #1409286145	; 0x54000001
    9e10:	444f4d20 	strbmi	r4, [pc], #-3360	; 9e18 <__FUNCTION__.4451+0x114>
    9e14:	00000045 	andeq	r0, r0, r5, asr #32
    9e18:	20514946 	subscs	r4, r1, r6, asr #18
    9e1c:	45444f4d 	strbmi	r4, [r4, #-3917]	; 0xf4d
    9e20:	00000000 	andeq	r0, r0, r0
    9e24:	20515249 	subscs	r5, r1, r9, asr #4
    9e28:	45444f4d 	strbmi	r4, [r4, #-3917]	; 0xf4d
    9e2c:	00000000 	andeq	r0, r0, r0
    9e30:	45505553 	ldrbmi	r5, [r0, #-1363]	; 0x553
    9e34:	4f4d2052 	svcmi	0x004d2052
    9e38:	00004544 	andeq	r4, r0, r4, asr #10
    9e3c:	524f4241 	subpl	r4, pc, #268435460	; 0x10000004
    9e40:	4f4d2054 	svcmi	0x004d2054
    9e44:	00004544 	andeq	r4, r0, r4, asr #10
    9e48:	45444e55 	strbmi	r4, [r4, #-3669]	; 0xe55
    9e4c:	4f4d2046 	svcmi	0x004d2046
    9e50:	00004544 	andeq	r4, r0, r4, asr #10
    9e54:	20535953 	subscs	r5, r3, r3, asr r9
    9e58:	45444f4d 	strbmi	r4, [r4, #-3917]	; 0xf4d
    9e5c:	00000000 	andeq	r0, r0, r0
    9e60:	253a7325 	ldrcs	r7, [sl, #-805]!	; 0x325
    9e64:	64253a73 	strtvs	r3, [r5], #-2675	; 0xa73
    9e68:	6972743a 	ldmdbvs	r2!, {r1, r3, r4, r5, sl, ip, sp, lr}^
    9e6c:	253d6c61 	ldrcs	r6, [sp, #-3169]!	; 0xc61
    9e70:	61203a64 	teqvs	r0, r4, ror #20
    9e74:	74756f62 	ldrbtvc	r6, [r5], #-3938	; 0xf62
    9e78:	206f7420 	rsbcs	r7, pc, r0, lsr #8
    9e7c:	20746573 	rsbscs	r6, r4, r3, ror r5
    9e80:	6d73696d 	ldclvs	9, cr6, [r3, #-436]!	; 0xfffffe4c
    9e84:	68637461 	stmdavs	r3!, {r0, r5, r6, sl, ip, sp, lr}^
    9e88:	6b726220 	blvs	1ca2710 <__bss_end__+0x1c980d8>
    9e8c:	66207470 			; <UNDEFINED> instruction: 0x66207470
    9e90:	4120726f 	teqmi	r0, pc, ror #4
    9e94:	0000000a 	andeq	r0, r0, sl
    9e98:	4f525245 	svcmi	0x00525245
    9e9c:	63203a52 	teqvs	r0, #335872	; 0x52000
    9ea0:	6b636568 	blvs	18e3448 <__bss_end__+0x18d8e10>
    9ea4:	69616620 	stmdbvs	r1!, {r5, r9, sl, sp, lr}^
    9ea8:	2064656c 	rsbcs	r6, r4, ip, ror #10
    9eac:	6e656877 	mcrvs	8, 3, r6, cr5, cr7, {3}
    9eb0:	69777320 	ldmdbvs	r7!, {r5, r8, r9, ip, sp, lr}^
    9eb4:	65686374 	strbvs	r6, [r8, #-884]!	; 0x374
    9eb8:	6e6f2064 	cdpvs	0, 6, cr2, cr15, cr4, {3}
    9ebc:	64646120 	strbtvs	r6, [r4], #-288	; 0x120
    9ec0:	73736572 	cmnvc	r3, #478150656	; 0x1c800000
    9ec4:	2c702520 	cfldr64cs	mvdx2, [r0], #-128	; 0xffffff80
    9ec8:	74666120 	strbtvc	r6, [r6], #-288	; 0x120
    9ecc:	25207265 	strcs	r7, [r0, #-613]!	; 0x265
    9ed0:	6e692064 	cdpvs	0, 6, cr2, cr9, cr4, {3}
    9ed4:	75727473 	ldrbvc	r7, [r2, #-1139]!	; 0x473
    9ed8:	6f697463 	svcvs	0x00697463
    9edc:	000a736e 	andeq	r7, sl, lr, ror #6
    9ee0:	656e6f64 	strbvs	r6, [lr, #-3940]!	; 0xf64
    9ee4:	64202021 	strtvs	r2, [r0], #-33	; 0x21
    9ee8:	63206469 	teqvs	r0, #1761607680	; 0x69000000
    9eec:	736e3e2d 	cmnvc	lr, #720	; 0x2d0
    9ef0:	63746977 	cmnvs	r4, #1949696	; 0x1dc000
    9ef4:	3d736568 	cfldr64cc	mvdx6, [r3, #-416]!	; 0xfffffe60
    9ef8:	202c6425 	eorcs	r6, ip, r5, lsr #8
    9efc:	6972746e 	ldmdbvs	r2!, {r1, r2, r3, r5, r6, sl, ip, sp, lr}^
    9f00:	3d736c61 	ldclcc	12, cr6, [r3, #-388]!	; 0xfffffe7c
    9f04:	202c6425 	eorcs	r6, ip, r5, lsr #8
    9f08:	7272656e 	rsbsvc	r6, r2, #461373440	; 0x1b800000
    9f0c:	3d73726f 	lfmcc	f7, 2, [r3, #-444]!	; 0xfffffe44
    9f10:	000a6425 	andeq	r6, sl, r5, lsr #8
    9f14:	72737063 	rsbsvc	r7, r3, #99	; 0x63
    9f18:	6974752d 	ldmdbvs	r4!, {r0, r2, r3, r5, r8, sl, ip, sp, lr}^
    9f1c:	00682e6c 	rsbeq	r2, r8, ip, ror #28
    9f20:	494e4150 	stmdbmi	lr, {r4, r6, r8, lr}^
    9f24:	73253a43 	teqvc	r5, #274432	; 0x43000
    9f28:	3a73253a 	bcc	1cd3418 <__bss_end__+0x1cc8de0>
    9f2c:	753a6425 	ldrvc	r6, [sl, #-1061]!	; 0x425
    9f30:	6f6e6b6e 	svcvs	0x006e6b6e
    9f34:	6d206e77 	stcvs	14, cr6, [r0, #-476]!	; 0xfffffe24
    9f38:	3a65646f 	bcc	19630fc <__bss_end__+0x1958ac4>
    9f3c:	78253c20 	stmdavc	r5!, {r5, sl, fp, ip, sp}
    9f40:	000a0a3e 	andeq	r0, sl, lr, lsr sl
    9f44:	65707865 	ldrbvs	r7, [r0, #-2149]!	; 0x865
    9f48:	64657463 	strbtvs	r7, [r5], #-1123	; 0x463
    9f4c:	646f6d20 	strbtvs	r6, [pc], #-3360	; 9f54 <__FUNCTION__.4451+0x250>
    9f50:	203d2065 	eorscs	r2, sp, r5, rrx
    9f54:	28207325 	stmdacs	r0!, {r0, r2, r5, r8, r9, ip, sp, lr}
    9f58:	0a297825 	beq	a67ff4 <__bss_end__+0xa5d9bc>
    9f5c:	00000000 	andeq	r0, r0, r0
    9f60:	72727563 	rsbsvc	r7, r2, #415236096	; 0x18c00000
    9f64:	20746e65 	rsbscs	r6, r4, r5, ror #28
    9f68:	65646f6d 	strbvs	r6, [r4, #-3949]!	; 0xf6d
    9f6c:	25203d20 	strcs	r3, [r0, #-3360]!	; 0xd20
    9f70:	25282073 	strcs	r2, [r8, #-115]!	; 0x73
    9f74:	000a2978 	andeq	r2, sl, r8, ror r9
    9f78:	65646f6d 	strbvs	r6, [r4, #-3949]!	; 0xf6d
    9f7c:	7465675f 	strbtvc	r6, [r5], #-1887	; 0x75f
    9f80:	73706328 	cmnvc	r0, #40, 6	; 0xa0000000
    9f84:	6c6f5f72 	stclvs	15, cr5, [pc], #-456	; 9dc4 <__FUNCTION__.4451+0xc0>
    9f88:	3d202964 	stccc	9, cr2, [r0, #-400]!	; 0xfffffe70
    9f8c:	6f6d203d 	svcvs	0x006d203d
    9f90:	675f6564 	ldrbvs	r6, [pc, -r4, ror #10]
    9f94:	63287465 	teqvs	r8, #1694498816	; 0x65000000
    9f98:	5f727370 	svcpl	0x00727370
    9f9c:	28746567 	ldmdacs	r4!, {r0, r1, r2, r5, r6, r8, sl, sp, lr}^
    9fa0:	00002929 	andeq	r2, r0, r9, lsr #18

00009fa4 <__FUNCTION__.4424>:
    9fa4:	63656863 	cmnvs	r5, #6488064	; 0x630000
    9fa8:	6e6f5f6b 	cdpvs	15, 6, cr5, cr15, cr11, {3}
    9fac:	73635f65 	cmnvc	r3, #404	; 0x194
    9fb0:	63746977 	cmnvs	r4, #1949696	; 0x1dc000
    9fb4:	00000068 	andeq	r0, r0, r8, rrx

00009fb8 <__FUNCTION__.4417>:
    9fb8:	676e6973 			; <UNDEFINED> instruction: 0x676e6973
    9fbc:	735f656c 	cmpvc	pc, #108, 10	; 0x1b000000
    9fc0:	5f706574 	svcpl	0x00706574
    9fc4:	646e6168 	strbtvs	r6, [lr], #-360	; 0x168
    9fc8:	0072656c 	rsbseq	r6, r2, ip, ror #10

00009fcc <__FUNCTION__.4397>:
    9fcc:	65646f6d 	strbvs	r6, [r4, #-3949]!	; 0xf6d
    9fd0:	7465735f 	strbtvc	r7, [r5], #-863	; 0x35f
    9fd4:	00000000 	andeq	r0, r0, r0

00009fd8 <__FUNCTION__.4258>:
    9fd8:	73746962 	cmnvc	r4, #1605632	; 0x188000
    9fdc:	726c635f 	rsbvc	r6, ip, #2080374785	; 0x7c000001
    9fe0:	00000000 	andeq	r0, r0, r0

00009fe4 <__FUNCTION__.4409>:
    9fe4:	65646f6d 	strbvs	r6, [r4, #-3949]!	; 0xf6d
    9fe8:	7274735f 	rsbsvc	r7, r4, #2080374785	; 0x7c000001
    9fec:	00000000 	andeq	r0, r0, r0

00009ff0 <__FUNCTION__.4392>:
    9ff0:	65646f6d 	strbvs	r6, [r4, #-3949]!	; 0xf6d
    9ff4:	7465675f 	strbtvc	r6, [r5], #-1887	; 0x75f
    9ff8:	00000000 	andeq	r0, r0, r0

00009ffc <__FUNCTION__.4251>:
    9ffc:	73746962 	cmnvc	r4, #1605632	; 0x188000
    a000:	7465675f 	strbtvc	r6, [r5], #-1887	; 0x75f
    a004:	00000000 	andeq	r0, r0, r0

0000a008 <__FUNCTION__.4249>:
    a008:	74696d65 	strbtvc	r6, [r9], #-3429	; 0xd65
    a00c:	00000000 	andeq	r0, r0, r0

0000a010 <__FUNCTION__.4197>:
    a010:	5f697072 	svcpl	0x00697072
    a014:	5f746573 	svcpl	0x00746573
    a018:	7074756f 	rsbsvc	r7, r4, pc, ror #10
    a01c:	00007475 	andeq	r7, r0, r5, ror r4

0000a020 <__FUNCTION__.4272>:
    a020:	705f6176 	subsvc	r6, pc, r6, ror r1	; <UNPREDICTABLE>
    a024:	746e6972 	strbtvc	r6, [lr], #-2418	; 0x972
    a028:	0000006b 	andeq	r0, r0, fp, rrx
    a02c:	6362696c 	cmnvs	r2, #108, 18	; 0x1b0000
    a030:	2d61762f 	stclcs	6, cr7, [r1, #-188]!	; 0xffffff44
    a034:	6e697270 	mcrvs	2, 3, r7, cr9, cr0, {3}
    a038:	632e6b74 	teqvs	lr, #116, 22	; 0x1d000
    a03c:	00000000 	andeq	r0, r0, r0
    a040:	00000030 	andeq	r0, r0, r0, lsr r0
    a044:	33323130 	teqcc	r2, #48, 2
    a048:	37363534 			; <UNDEFINED> instruction: 0x37363534
    a04c:	00003938 	andeq	r3, r0, r8, lsr r9
    a050:	33323130 	teqcc	r2, #48, 2
    a054:	37363534 			; <UNDEFINED> instruction: 0x37363534
    a058:	62613938 	rsbvs	r3, r1, #56, 18	; 0xe0000
    a05c:	66656463 	strbtvs	r6, [r5], -r3, ror #8
    a060:	00000000 	andeq	r0, r0, r0
    a064:	00003130 	andeq	r3, r0, r0, lsr r1
    a068:	63747570 	cmnvs	r4, #112, 10	; 0x1c000000
    a06c:	0070665f 	rsbseq	r6, r0, pc, asr r6
    a070:	74646977 	strbtvc	r6, [r4], #-2423	; 0x977
    a074:	203c2068 	eorscs	r2, ip, r8, rrx
    a078:	00003233 	andeq	r3, r0, r3, lsr r2
    a07c:	494e4150 	stmdbmi	lr, {r4, r6, r8, lr}^
    a080:	73253a43 	teqvc	r5, #274432	; 0x43000
    a084:	3a73253a 	bcc	1cd3574 <__bss_end__+0x1cc8f3c>
    a088:	663a6425 	ldrtvs	r6, [sl], -r5, lsr #8
    a08c:	74616f6c 	strbtvc	r6, [r1], #-3948	; 0xf6c
    a090:	746f6e20 	strbtvc	r6, [pc], #-3616	; a098 <__FUNCTION__.4272+0x78>
    a094:	616e6520 	cmnvs	lr, r0, lsr #10
    a098:	64656c62 	strbtvs	r6, [r5], #-3170	; 0xc62
    a09c:	0a212121 	beq	852528 <__bss_end__+0x847ef0>
    a0a0:	00000000 	andeq	r0, r0, r0
    a0a4:	6e697270 	mcrvs	2, 3, r7, cr9, cr0, {3}
    a0a8:	203a6b74 	eorscs	r6, sl, r4, ror fp
    a0ac:	20746f6e 	rsbscs	r6, r4, lr, ror #30
    a0b0:	646e6168 	strbtvs	r6, [lr], #-360	; 0x168
    a0b4:	676e696c 	strbvs	r6, [lr, -ip, ror #18]!
    a0b8:	65707320 	ldrbvs	r7, [r0, #-800]!	; 0x320
    a0bc:	69666963 	stmdbvs	r6!, {r0, r1, r5, r6, r8, fp, sp, lr}^
    a0c0:	27207265 	strcs	r7, [r0, -r5, ror #4]!
    a0c4:	20276325 	eorcs	r6, r7, r5, lsr #6
    a0c8:	63736128 	cmnvs	r3, #40, 2
    a0cc:	253d6969 	ldrcs	r6, [sp, #-2409]!	; 0x969
    a0d0:	000a2964 	andeq	r2, sl, r4, ror #18
    a0d4:	494e4150 	stmdbmi	lr, {r4, r6, r8, lr}^
    a0d8:	73253a43 	teqvc	r5, #274432	; 0x43000
    a0dc:	3a73253a 	bcc	1cd35cc <__bss_end__+0x1cc8f94>
    a0e0:	703a6425 	eorsvc	r6, sl, r5, lsr #8
    a0e4:	746e6972 	strbtvc	r6, [lr], #-2418	; 0x972
    a0e8:	7265206b 	rsbvc	r2, r5, #107	; 0x6b
    a0ec:	0a726f72 	beq	1ca5ebc <__bss_end__+0x1c9b884>
    a0f0:	0000000a 	andeq	r0, r0, sl
    a0f4:	454e4f44 	strbmi	r4, [lr, #-3908]	; 0xf44
    a0f8:	0a212121 	beq	852584 <__bss_end__+0x847f4c>
    a0fc:	00000000 	andeq	r0, r0, r0

0000a100 <__FUNCTION__.4220>:
    a100:	74736166 	ldrbtvc	r6, [r3], #-358	; 0x166
    a104:	746e695f 	strbtvc	r6, [lr], #-2399	; 0x95f
    a108:	75727265 	ldrbvc	r7, [r2, #-613]!	; 0x265
    a10c:	765f7470 			; <UNDEFINED> instruction: 0x765f7470
    a110:	6f746365 	svcvs	0x00746365
    a114:	00000072 	andeq	r0, r0, r2, ror r0
    a118:	494e4150 	stmdbmi	lr, {r4, r6, r8, lr}^
    a11c:	73253a43 	teqvc	r5, #274432	; 0x43000
    a120:	3a73253a 	bcc	1cd3610 <__bss_end__+0x1cc8fd8>
    a124:	453a6425 	ldrmi	r6, [sl, #-1061]!	; 0x425
    a128:	524f5252 	subpl	r5, pc, #536870917	; 0x20000005
    a12c:	6e75203a 	mrcvs	0, 3, r2, cr5, cr10, {1}
    a130:	646e6168 	strbtvs	r6, [lr], #-360	; 0x168
    a134:	2064656c 	rsbcs	r6, r4, ip, ror #10
    a138:	65637865 	strbvs	r7, [r3, #-2149]!	; 0x865
    a13c:	6f697470 	svcvs	0x00697470
    a140:	253c206e 	ldrcs	r2, [ip, #-110]!	; 0x6e
    a144:	61203e73 	teqvs	r0, r3, ror lr
    a148:	43502074 	cmpmi	r0, #116	; 0x74
    a14c:	0a78253d 	beq	1e13648 <__bss_end__+0x1e09010>
    a150:	0000000a 	andeq	r0, r0, sl
    a154:	66617473 			; <UNDEFINED> instruction: 0x66617473
    a158:	72732d66 	rsbsvc	r2, r3, #6528	; 0x1980
    a15c:	65642f63 	strbvs	r2, [r4, #-3939]!	; 0xf63
    a160:	6c756166 	ldfvse	f6, [r5], #-408	; 0xfffffe68
    a164:	61682d74 	smcvs	33492	; 0x82d4
    a168:	656c646e 	strbvs	r6, [ip, #-1134]!	; 0x46e
    a16c:	61662d72 	smcvs	25298	; 0x62d2
    a170:	632e7473 	teqvs	lr, #1929379840	; 0x73000000
    a174:	00000000 	andeq	r0, r0, r0
    a178:	74736166 	ldrbtvc	r6, [r3], #-358	; 0x166
    a17c:	00000000 	andeq	r0, r0, r0

0000a180 <__FUNCTION__.4220>:
    a180:	65736572 	ldrbvs	r6, [r3, #-1394]!	; 0x572
    a184:	65765f74 	ldrbvs	r5, [r6, #-3956]!	; 0xf74
    a188:	726f7463 	rsbvc	r7, pc, #1660944384	; 0x63000000
    a18c:	00000000 	andeq	r0, r0, r0
    a190:	66617473 			; <UNDEFINED> instruction: 0x66617473
    a194:	72732d66 	rsbsvc	r2, r3, #6528	; 0x1980
    a198:	65642f63 	strbvs	r2, [r4, #-3939]!	; 0xf63
    a19c:	6c756166 	ldfvse	f6, [r5], #-408	; 0xfffffe68
    a1a0:	61682d74 	smcvs	33492	; 0x82d4
    a1a4:	656c646e 	strbvs	r6, [ip, #-1134]!	; 0x46e
    a1a8:	65722d72 	ldrbvs	r2, [r2, #-3442]!	; 0xd72
    a1ac:	2e746573 	mrccs	5, 3, r6, cr4, cr3, {3}
    a1b0:	00000063 	andeq	r0, r0, r3, rrx
    a1b4:	65736572 	ldrbvs	r6, [r3, #-1394]!	; 0x572
    a1b8:	00000074 	andeq	r0, r0, r4, ror r0

0000a1bc <__FUNCTION__.4220>:
    a1bc:	65646e75 	strbvs	r6, [r4, #-3701]!	; 0xe75
    a1c0:	656e6966 	strbvs	r6, [lr, #-2406]!	; 0x966
    a1c4:	6e695f64 	cdpvs	15, 6, cr5, cr9, cr4, {3}
    a1c8:	75727473 	ldrbvc	r7, [r2, #-1139]!	; 0x473
    a1cc:	6f697463 	svcvs	0x00697463
    a1d0:	65765f6e 	ldrbvs	r5, [r6, #-3950]!	; 0xf6e
    a1d4:	726f7463 	rsbvc	r7, pc, #1660944384	; 0x63000000
    a1d8:	00000000 	andeq	r0, r0, r0
    a1dc:	66617473 			; <UNDEFINED> instruction: 0x66617473
    a1e0:	72732d66 	rsbsvc	r2, r3, #6528	; 0x1980
    a1e4:	65642f63 	strbvs	r2, [r4, #-3939]!	; 0xf63
    a1e8:	6c756166 	ldfvse	f6, [r5], #-408	; 0xfffffe68
    a1ec:	61682d74 	smcvs	33492	; 0x82d4
    a1f0:	656c646e 	strbvs	r6, [ip, #-1134]!	; 0x46e
    a1f4:	6e752d72 	mrcvs	13, 3, r2, cr5, cr2, {3}
    a1f8:	69666564 	stmdbvs	r6!, {r2, r5, r6, r8, sl, sp, lr}^
    a1fc:	2d64656e 	cfstr64cs	mvdx6, [r4, #-440]!	; 0xfffffe48
    a200:	74736e69 	ldrbtvc	r6, [r3], #-3689	; 0xe69
    a204:	0000632e 	andeq	r6, r0, lr, lsr #6
    a208:	65646e75 	strbvs	r6, [r4, #-3701]!	; 0xe75
    a20c:	656e6966 	strbvs	r6, [lr, #-2406]!	; 0x966
    a210:	6e692064 	cdpvs	0, 6, cr2, cr9, cr4, {3}
    a214:	00007473 	andeq	r7, r0, r3, ror r4

Disassembly of section .bss:

0000a218 <__bss_start__>:
    a218:	00000000 	andeq	r0, r0, r0

0000a21c <brkpt_handler0>:
    a21c:	00000000 	andeq	r0, r0, r0

0000a220 <brk_verbose_p>:
    a220:	00000000 	andeq	r0, r0, r0

0000a224 <nfaults.4398>:
    a224:	00000000 	andeq	r0, r0, r0

0000a228 <init_p.4404>:
    a228:	00000000 	andeq	r0, r0, r0

0000a22c <checker>:
    a22c:	00000000 	andeq	r0, r0, r0

0000a230 <expected_handle>:
    a230:	00000000 	andeq	r0, r0, r0

0000a234 <buf.4189>:
	...

Disassembly of section .ARM.attributes:

00000000 <.ARM.attributes>:
   0:	00002a41 	andeq	r2, r0, r1, asr #20
   4:	61656100 	cmnvs	r5, r0, lsl #2
   8:	01006962 	tsteq	r0, r2, ror #18
   c:	00000020 	andeq	r0, r0, r0, lsr #32
  10:	4b5a3605 	blmi	168d82c <__bss_end__+0x16831f4>
  14:	08070600 	stmdaeq	r7, {r9, sl}
  18:	12010901 	andne	r0, r1, #16384	; 0x4000
  1c:	15011404 	strne	r1, [r1, #-1028]	; 0x404
  20:	18031701 	stmdane	r3, {r0, r8, r9, sl, ip}
  24:	22011a01 	andcs	r1, r1, #4096	; 0x1000
  28:	Address 0x0000000000000028 is out of bounds.


Disassembly of section .comment:

00000000 <.comment>:
   0:	3a434347 	bcc	10d0d24 <__bss_end__+0x10c66ec>
   4:	4e472820 	cdpmi	8, 4, cr2, cr7, cr0, {1}
   8:	34202955 	strtcc	r2, [r0], #-2389	; 0x955
   c:	332e382e 	teqcc	lr, #3014656	; 0x2e0000
  10:	43434700 	movtmi	r4, #14080	; 0x3700
  14:	3128203a 	teqcc	r8, sl, lsr r0
  18:	2e363a35 	mrccs	10, 1, r3, cr6, cr5, {1}
  1c:	2b312e33 	blcs	c4b8f0 <__bss_end__+0xc412b8>
  20:	326e7673 	rsbcc	r7, lr, #120586240	; 0x7300000
  24:	33303335 	teqcc	r0, #-738197504	; 0xd4000000
  28:	62312d39 	eorsvs	r2, r1, #3648	; 0xe40
  2c:	646c6975 	strbtvs	r6, [ip], #-2421	; 0x975
  30:	36202931 			; <UNDEFINED> instruction: 0x36202931
  34:	312e332e 	teqcc	lr, lr, lsr #6
  38:	31303220 	teqcc	r0, r0, lsr #4
  3c:	32363037 	eorscc	r3, r6, #55	; 0x37
  40:	Address 0x0000000000000040 is out of bounds.


Disassembly of section .debug_info:

00000000 <.debug_info>:
       0:	00000676 	andeq	r0, r0, r6, ror r6
       4:	00000004 	andeq	r0, r0, r4
       8:	01040000 	mrseq	r0, (UNDEF: 4)
       c:	00000170 	andeq	r0, r0, r0, ror r1
      10:	00006201 	andeq	r6, r0, r1, lsl #4
      14:	00007c00 	andeq	r7, r0, r0, lsl #24
      18:	00802000 	addeq	r2, r0, r0
      1c:	00024400 	andeq	r4, r2, r0, lsl #8
      20:	00000000 	andeq	r0, r0, r0
      24:	05040200 	streq	r0, [r4, #-512]	; 0x200
      28:	00746e69 	rsbseq	r6, r4, r9, ror #28
      2c:	e7070403 	str	r0, [r7, -r3, lsl #8]
      30:	03000001 	movweq	r0, #1
      34:	01100601 	tsteq	r0, r1, lsl #12
      38:	02030000 	andeq	r0, r3, #0
      3c:	00004305 	andeq	r4, r0, r5, lsl #6
      40:	05040300 	streq	r0, [r4, #-768]	; 0x300
      44:	00000211 	andeq	r0, r0, r1, lsl r2
      48:	0c050803 	stceq	8, cr0, [r5], {3}
      4c:	03000002 	movweq	r0, #2
      50:	010e0801 	tsteq	lr, r1, lsl #16
      54:	02030000 	andeq	r0, r3, #0
      58:	00002107 	andeq	r2, r0, r7, lsl #2
      5c:	01340400 	teqeq	r4, r0, lsl #8
      60:	34070000 	strcc	r0, [r7], #-0
      64:	00000068 	andeq	r0, r0, r8, rrx
      68:	e2070403 	and	r0, r7, #50331648	; 0x3000000
      6c:	03000001 	movweq	r0, #1
      70:	01dd0708 	bicseq	r0, sp, r8, lsl #14
      74:	04030000 	streq	r0, [r3], #-0
      78:	00020307 	andeq	r0, r2, r7, lsl #6
      7c:	08010300 	stmdaeq	r1, {r8, r9}
      80:	00000117 	andeq	r0, r0, r7, lsl r1
      84:	008a0405 	addeq	r0, sl, r5, lsl #8
      88:	7d060000 	stcvc	0, cr0, [r6, #-0]
      8c:	07000000 	streq	r0, [r0, -r0]
      90:	0000007d 	andeq	r0, r0, sp, ror r0
      94:	0000009f 	muleq	r0, pc, r0	; <UNPREDICTABLE>
      98:	00007608 	andeq	r7, r0, r8, lsl #12
      9c:	09000700 	stmdbeq	r0, {r8, r9, sl}
      a0:	00000010 	andeq	r0, r0, r0, lsl r0
      a4:	500a0638 	andpl	r0, sl, r8, lsr r6
      a8:	0a000001 	beq	b4 <__code_start__-0x7f4c>
      ac:	00000a44 	andeq	r0, r0, r4, asr #20
      b0:	01500f06 	cmpeq	r0, r6, lsl #30
      b4:	0b000000 	bleq	bc <__code_start__-0x7f44>
      b8:	12060041 	andne	r0, r6, #65	; 0x41
      bc:	00000168 	andeq	r0, r0, r8, ror #2
      c0:	00420b04 	subeq	r0, r2, r4, lsl #22
      c4:	017d1306 	cmneq	sp, r6, lsl #6
      c8:	0a080000 	beq	2000d0 <__bss_end__+0x1f5a98>
      cc:	0000014f 	andeq	r0, r0, pc, asr #2
      d0:	01681606 	cmneq	r8, r6, lsl #12
      d4:	0a0c0000 	beq	3000dc <__bss_end__+0x2f5aa4>
      d8:	0000005c 	andeq	r0, r0, ip, asr r0
      dc:	017d1806 	cmneq	sp, r6, lsl #16
      e0:	0a100000 	beq	4000e8 <__bss_end__+0x3f5ab0>
      e4:	000001f9 	strdeq	r0, [r0], -r9
      e8:	01831f06 	orreq	r1, r3, r6, lsl #30
      ec:	0a140000 	beq	5000f4 <__bss_end__+0x4f5abc>
      f0:	000000fd 	strdeq	r0, [r0], -sp
      f4:	01833106 	orreq	r3, r3, r6, lsl #2
      f8:	0a180000 	beq	600100 <__bss_end__+0x5f5ac8>
      fc:	00000129 	andeq	r0, r0, r9, lsr #2
     100:	01883606 	orreq	r3, r8, r6, lsl #12
     104:	0a1c0000 	beq	70010c <__bss_end__+0x6f5ad4>
     108:	00000222 	andeq	r0, r0, r2, lsr #4
     10c:	01883a06 	orreq	r3, r8, r6, lsl #20
     110:	0a200000 	beq	800118 <__bss_end__+0x7f5ae0>
     114:	0000004d 	andeq	r0, r0, sp, asr #32
     118:	01833f06 	orreq	r3, r3, r6, lsl #30
     11c:	0a240000 	beq	900124 <__bss_end__+0x8f5aec>
     120:	0000021a 	andeq	r0, r0, sl, lsl r2
     124:	002c4206 	eoreq	r4, ip, r6, lsl #4
     128:	0a280000 	beq	a00130 <__bss_end__+0x9f5af8>
     12c:	000000f5 	strdeq	r0, [r0], -r5
     130:	002c4306 	eoreq	r4, ip, r6, lsl #6
     134:	0a2c0000 	beq	b0013c <__bss_end__+0xaf5b04>
     138:	00000161 	andeq	r0, r0, r1, ror #2
     13c:	002c4606 	eoreq	r4, ip, r6, lsl #12
     140:	0a300000 	beq	c00148 <__bss_end__+0xbf5b10>
     144:	0000024b 	andeq	r0, r0, fp, asr #4
     148:	01884806 	orreq	r4, r8, r6, lsl #16
     14c:	00340000 	eorseq	r0, r4, r0
     150:	01560405 	cmpeq	r6, r5, lsl #8
     154:	0d0c0000 	stceq	0, cr0, [ip, #-0]
     158:	00000162 	andeq	r0, r0, r2, ror #2
     15c:	0001620e 	andeq	r6, r1, lr, lsl #4
     160:	04050000 	streq	r0, [r5], #-0
     164:	0000009f 	muleq	r0, pc, r0	; <UNPREDICTABLE>
     168:	01570405 	cmpeq	r7, r5, lsl #8
     16c:	250f0000 	strcs	r0, [pc, #-0]	; 174 <__code_start__-0x7e8c>
     170:	7d000000 	stcvc	0, cr0, [r0, #-0]
     174:	0e000001 	cdpeq	0, 0, cr0, cr0, cr1, {0}
     178:	00000162 	andeq	r0, r0, r2, ror #2
     17c:	6e040500 	cfsh32vs	mvfx0, mvfx4, #0
     180:	10000001 	andne	r0, r0, r1
     184:	0000002c 	andeq	r0, r0, ip, lsr #32
     188:	00005d10 	andeq	r5, r0, r0, lsl sp
     18c:	00390400 	eorseq	r0, r9, r0, lsl #8
     190:	49060000 	stmdbmi	r6, {}	; <UNPREDICTABLE>
     194:	0000009f 	muleq	r0, pc, r0	; <UNPREDICTABLE>
     198:	00023b11 	andeq	r3, r2, r1, lsl fp
     19c:	25070400 	strcs	r0, [r7, #-1024]	; 0x400
     1a0:	03000000 	movweq	r0, #0
     1a4:	000001b4 			; <UNDEFINED> instruction: 0x000001b4
     1a8:	0001f412 	andeq	pc, r1, r2, lsl r4	; <UNPREDICTABLE>
     1ac:	2c070400 	cfstrscs	mvf0, [r7], {-0}
     1b0:	00000000 	andeq	r0, r0, r0
     1b4:	00025111 	andeq	r5, r2, r1, lsl r1
     1b8:	5d260200 	sfmpl	f0, 4, [r6, #-0]
     1bc:	03000000 	movweq	r0, #0
     1c0:	000001d0 	ldrdeq	r0, [r0], -r0	; <UNPREDICTABLE>
     1c4:	00024613 	andeq	r4, r2, r3, lsl r6
     1c8:	5d270200 	sfmpl	f0, 4, [r7, #-0]
     1cc:	00000000 	andeq	r0, r0, r0
     1d0:	0000e314 	andeq	lr, r0, r4, lsl r3
     1d4:	03c30500 	biceq	r0, r3, #0, 10
     1d8:	000001e8 	andeq	r0, r0, r8, ror #3
     1dc:	00003412 	andeq	r3, r0, r2, lsl r4
     1e0:	25c30500 	strbcs	r0, [r3, #1280]	; 0x500
     1e4:	00000000 	andeq	r0, r0, r0
     1e8:	00000011 	andeq	r0, r0, r1, lsl r0
     1ec:	5d0f0400 	cfstrspl	mvf0, [pc, #-0]	; 1f4 <__code_start__-0x7e0c>
     1f0:	03000000 	movweq	r0, #0
     1f4:	0000021c 	andeq	r0, r0, ip, lsl r2
     1f8:	00024612 	andeq	r4, r2, r2, lsl r6
     1fc:	5d0f0400 	cfstrspl	mvf0, [pc, #-0]	; 204 <__code_start__-0x7dfc>
     200:	13000000 	movwne	r0, #0
     204:	000001f4 	strdeq	r0, [r0], -r4
     208:	002c1004 	eoreq	r1, ip, r4
     20c:	54150000 	ldrpl	r0, [r5], #-0
     210:	2c000001 	stccs	0, cr0, [r0], {1}
     214:	00000002 	andeq	r0, r0, r2
     218:	00000000 	andeq	r0, r0, r0
     21c:	00007d07 	andeq	r7, r0, r7, lsl #26
     220:	00022c00 	andeq	r2, r2, r0, lsl #24
     224:	00760800 	rsbseq	r0, r6, r0, lsl #16
     228:	00080000 	andeq	r0, r8, r0
     22c:	00021c06 	andeq	r1, r2, r6, lsl #24
     230:	00181100 	andseq	r1, r8, r0, lsl #2
     234:	1c030000 	stcne	0, cr0, [r3], {-0}
     238:	0000005d 	andeq	r0, r0, sp, asr r0
     23c:	00027503 	andeq	r7, r2, r3, lsl #10
     240:	00781600 	rsbseq	r1, r8, r0, lsl #12
     244:	005d1c03 	subseq	r1, sp, r3, lsl #24
     248:	6c160000 	ldcvs	0, cr0, [r6], {-0}
     24c:	1c030062 	stcne	0, cr0, [r3], {98}	; 0x62
     250:	0000002c 	andeq	r0, r0, ip, lsr #32
     254:	00627516 	rsbeq	r7, r2, r6, lsl r5
     258:	002c1c03 	eoreq	r1, ip, r3, lsl #24
     25c:	54150000 	ldrpl	r0, [r5], #-0
     260:	75000001 	strvc	r0, [r0, #-1]
     264:	18000002 	stmdane	r0, {r1}
     268:	17000000 	strne	r0, [r0, -r0]
     26c:	1f03006e 	svcne	0x0003006e
     270:	0000002c 	andeq	r0, r0, ip, lsr #32
     274:	021c0600 	andseq	r0, ip, #0, 12
     278:	dd180000 	ldcle	0, cr0, [r8, #-0]
     27c:	01000000 	mrseq	r0, (UNDEF: 0)
     280:	00802006 	addeq	r2, r0, r6
     284:	0000c800 	andeq	ip, r0, r0, lsl #16
     288:	fb9c0100 	blx	fe700692 <__bss_end__+0xfe6f605a>
     28c:	19000003 	stmdbne	r0, {r0, r1}
     290:	06010063 	streq	r0, [r1], -r3, rrx
     294:	000003fb 	strdeq	r0, [r0], -fp
     298:	00000000 	andeq	r0, r0, r0
     29c:	0001541a 	andeq	r5, r1, sl, lsl r4
     2a0:	00041100 	andeq	r1, r4, r0, lsl #2
     2a4:	64030500 	strvs	r0, [r3], #-1280	; 0x500
     2a8:	1b00009b 	blne	51c <__code_start__-0x7ae4>
     2ac:	000001b4 			; <UNDEFINED> instruction: 0x000001b4
     2b0:	00008028 	andeq	r8, r0, r8, lsr #32
     2b4:	00000004 	andeq	r0, r0, r4
     2b8:	02d20601 	sbcseq	r0, r2, #1048576	; 0x100000
     2bc:	281c0000 	ldmdacs	ip, {}	; <UNPREDICTABLE>
     2c0:	04000080 	streq	r0, [r0], #-128	; 0x80
     2c4:	1d000000 	stcne	0, cr0, [r0, #-0]
     2c8:	000001c4 	andeq	r0, r0, r4, asr #3
     2cc:	00000045 	andeq	r0, r0, r5, asr #32
     2d0:	e81b0000 	ldmda	fp, {}	; <UNPREDICTABLE>
     2d4:	2c000001 	stccs	0, cr0, [r0], {1}
     2d8:	6c000080 	stcvs	0, cr0, [r0], {128}	; 0x80
     2dc:	01000000 	mrseq	r0, (UNDEF: 0)
     2e0:	0003b006 	andeq	fp, r3, r6
     2e4:	01f81e00 	mvnseq	r1, r0, lsl #28
     2e8:	00450000 	subeq	r0, r5, r0
     2ec:	2c1c0000 	ldccs	0, cr0, [ip], {-0}
     2f0:	6c000080 	stcvs	0, cr0, [r0], {128}	; 0x80
     2f4:	1f000000 	svcne	0x00000000
     2f8:	00000203 	andeq	r0, r0, r3, lsl #4
     2fc:	00020e20 	andeq	r0, r2, r0, lsr #28
     300:	6c030500 	cfstr32vs	mvfx0, [r3], {-0}
     304:	1b00009b 	blne	578 <__code_start__-0x7a88>
     308:	00000231 	andeq	r0, r0, r1, lsr r2
     30c:	0000802c 	andeq	r8, r0, ip, lsr #32
     310:	00000004 	andeq	r0, r0, r4
     314:	034b1004 	movteq	r1, #45060	; 0xb004
     318:	54210000 	strtpl	r0, [r1], #-0
     31c:	04000002 	streq	r0, [r0], #-2
     320:	00024a21 	andeq	r4, r2, r1, lsr #20
     324:	411e0000 	tstmi	lr, r0
     328:	45000002 	strmi	r0, [r0, #-2]
     32c:	1c000000 	stcne	0, cr0, [r0], {-0}
     330:	0000802c 	andeq	r8, r0, ip, lsr #32
     334:	00000004 	andeq	r0, r0, r4
     338:	00026b22 	andeq	r6, r2, r2, lsr #22
     33c:	5e200500 	cfsh64pl	mvdx0, mvdx0, #0
     340:	05000002 	streq	r0, [r0, #-2]
     344:	009b7803 	addseq	r7, fp, r3, lsl #16
     348:	1b000000 	blne	350 <__code_start__-0x7cb0>
     34c:	00000198 	muleq	r0, r8, r1
     350:	00008030 	andeq	r8, r0, r0, lsr r0
     354:	0000003c 	andeq	r0, r0, ip, lsr r0
     358:	03641104 	cmneq	r4, #4, 2
     35c:	a8230000 	stmdage	r3!, {}	; <UNPREDICTABLE>
     360:	00000001 	andeq	r0, r0, r1
     364:	00807824 	addeq	r7, r0, r4, lsr #16
     368:	00063d00 	andeq	r3, r6, r0, lsl #26
     36c:	80942500 	addshi	r2, r4, r0, lsl #10
     370:	06440000 	strbeq	r0, [r4], -r0
     374:	03a50000 			; <UNDEFINED> instruction: 0x03a50000
     378:	01260000 	teqeq	r6, r0
     37c:	26410153 			; <UNDEFINED> instruction: 0x26410153
     380:	03055201 	movweq	r5, #20993	; 0x5201
     384:	00009b6c 	andeq	r9, r0, ip, ror #22
     388:	05510126 	ldrbeq	r0, [r1, #-294]	; 0x126
     38c:	009a4403 	addseq	r4, sl, r3, lsl #8
     390:	50012600 	andpl	r2, r1, r0, lsl #12
     394:	9a300305 	bls	c00fb0 <__bss_end__+0xbf6978>
     398:	02260000 	eoreq	r0, r6, #0
     39c:	0305007d 	movweq	r0, #20605	; 0x507d
     3a0:	00009a54 	andeq	r9, r0, r4, asr sl
     3a4:	80982400 	addshi	r2, r8, r0, lsl #8
     3a8:	065a0000 	ldrbeq	r0, [sl], -r0
     3ac:	00000000 	andeq	r0, r0, r0
     3b0:	0080a424 	addeq	sl, r0, r4, lsr #8
     3b4:	00063d00 	andeq	r3, r6, r0, lsl #26
     3b8:	80c02500 	sbchi	r2, r0, r0, lsl #10
     3bc:	06440000 	strbeq	r0, [r4], -r0
     3c0:	03f10000 	mvnseq	r0, #0
     3c4:	01260000 	teqeq	r6, r0
     3c8:	26360153 			; <UNDEFINED> instruction: 0x26360153
     3cc:	03055201 	movweq	r5, #20993	; 0x5201
     3d0:	00009b64 	andeq	r9, r0, r4, ror #22
     3d4:	05510126 	ldrbeq	r0, [r1, #-294]	; 0x126
     3d8:	009a6803 	addseq	r6, sl, r3, lsl #16
     3dc:	50012600 	andpl	r2, r1, r0, lsl #12
     3e0:	9a300305 	bls	c00ffc <__bss_end__+0xbf69c4>
     3e4:	02260000 	eoreq	r0, r6, #0
     3e8:	0305007d 	movweq	r0, #20605	; 0x507d
     3ec:	00009a84 	andeq	r9, r0, r4, lsl #21
     3f0:	80c42400 	sbchi	r2, r4, r0, lsl #8
     3f4:	065a0000 	ldrbeq	r0, [sl], -r0
     3f8:	05000000 	streq	r0, [r0, #-0]
     3fc:	00018d04 	andeq	r8, r1, r4, lsl #26
     400:	007d0700 	rsbseq	r0, sp, r0, lsl #14
     404:	04110000 	ldreq	r0, [r1], #-0
     408:	76080000 	strvc	r0, [r8], -r0
     40c:	05000000 	streq	r0, [r0, #-0]
     410:	04010600 	streq	r0, [r1], #-1536	; 0x600
     414:	ef270000 	svc	0x00270000
     418:	01000000 	mrseq	r0, (UNDEF: 0)
     41c:	00002507 	andeq	r2, r0, r7, lsl #10
     420:	0080e800 	addeq	lr, r0, r0, lsl #16
     424:	00000800 	andeq	r0, r0, r0, lsl #16
     428:	3d9c0100 	ldfccs	f0, [ip]
     42c:	19000004 	stmdbne	r0, {r2}
     430:	07010063 	streq	r0, [r1, -r3, rrx]
     434:	000003fb 	strdeq	r0, [r0], -fp
     438:	00000058 	andeq	r0, r0, r8, asr r0
     43c:	014b1800 	cmpeq	fp, r0, lsl #16
     440:	08010000 	stmdaeq	r1, {}	; <UNPREDICTABLE>
     444:	000080f0 	strdeq	r8, [r0], -r0
     448:	00000004 	andeq	r0, r0, r4
     44c:	045e9c01 	ldrbeq	r9, [lr], #-3073	; 0xc01
     450:	63280000 	teqvs	r8, #0
     454:	fb080100 	blx	20085e <__bss_end__+0x1f6226>
     458:	01000003 	tsteq	r0, r3
     45c:	58270050 	stmdapl	r7!, {r4, r6}
     460:	01000000 	mrseq	r0, (UNDEF: 0)
     464:	00002509 	andeq	r2, r0, r9, lsl #10
     468:	0080f400 	addeq	pc, r0, r0, lsl #8
     46c:	00000800 	andeq	r0, r0, r0, lsl #16
     470:	859c0100 	ldrhi	r0, [ip, #256]	; 0x100
     474:	19000004 	stmdbne	r0, {r2}
     478:	09010063 	stmdbeq	r1, {r0, r1, r5, r6}
     47c:	000003fb 	strdeq	r0, [r0], -fp
     480:	00000079 	andeq	r0, r0, r9, ror r0
     484:	00092900 	andeq	r2, r9, r0, lsl #18
     488:	0b010000 	bleq	40490 <__bss_end__+0x35e58>
     48c:	0000018d 	andeq	r0, r0, sp, lsl #3
     490:	000080fc 	strdeq	r8, [r0], -ip
     494:	00000070 	andeq	r0, r0, r0, ror r0
     498:	d52a9c01 	strle	r9, [sl, #-3073]!	; 0xc01
     49c:	01000000 	mrseq	r0, (UNDEF: 0)
     4a0:	00816c15 	addeq	r6, r1, r5, lsl ip
     4a4:	0000f800 	andeq	pc, r0, r0, lsl #16
     4a8:	2d9c0100 	ldfcss	f0, [ip]
     4ac:	2b000006 	blcs	4cc <__code_start__-0x7b34>
     4b0:	1a010063 	bne	40644 <__bss_end__+0x3600c>
     4b4:	0000009f 	muleq	r0, pc, r0	; <UNPREDICTABLE>
     4b8:	17409102 	strbne	r9, [r0, -r2, lsl #2]
     4bc:	1b01006e 	blne	4067c <__bss_end__+0x36044>
     4c0:	00000025 	andeq	r0, r0, r5, lsr #32
     4c4:	0001541a 	andeq	r5, r1, sl, lsl r4
     4c8:	00062d00 	andeq	r2, r6, r0, lsl #26
     4cc:	84030500 	strhi	r0, [r3], #-1280	; 0x500
     4d0:	1b00009b 	blne	744 <__code_start__-0x78bc>
     4d4:	000001d0 	ldrdeq	r0, [r0], -r0	; <UNPREDICTABLE>
     4d8:	00008178 	andeq	r8, r0, r8, ror r1
     4dc:	0000000c 	andeq	r0, r0, ip
     4e0:	04ed1901 	strbteq	r1, [sp], #2305	; 0x901
     4e4:	dc210000 	stcle	0, cr0, [r1], #-0
     4e8:	00000001 	andeq	r0, r0, r1
     4ec:	81782400 	cmnhi	r8, r0, lsl #8
     4f0:	06610000 	strbteq	r0, [r1], -r0
     4f4:	8c250000 	stchi	0, cr0, [r5], #-0
     4f8:	85000081 	strhi	r0, [r0, #-129]	; 0x81
     4fc:	0b000004 	bleq	514 <__code_start__-0x7aec>
     500:	26000005 	strcs	r0, [r0], -r5
     504:	91035001 	tstls	r3, r1
     508:	25007fb8 	strcs	r7, [r0, #-4024]	; 0xfb8
     50c:	00008194 	muleq	r0, r4, r1
     510:	00000668 	andeq	r0, r0, r8, ror #12
     514:	00000520 	andeq	r0, r0, r0, lsr #10
     518:	03500126 	cmpeq	r0, #-2147483639	; 0x80000009
     51c:	007fb891 			; <UNDEFINED> instruction: 0x007fb891
     520:	0081ac24 	addeq	sl, r1, r4, lsr #24
     524:	00063d00 	andeq	r3, r6, r0, lsl #26
     528:	81c82500 	bichi	r2, r8, r0, lsl #10
     52c:	06440000 	strbeq	r0, [r4], -r0
     530:	05610000 	strbeq	r0, [r1, #-0]!
     534:	01260000 	teqeq	r6, r0
     538:	264d0153 			; <UNDEFINED> instruction: 0x264d0153
     53c:	03055201 	movweq	r5, #20993	; 0x5201
     540:	00009b84 	andeq	r9, r0, r4, lsl #23
     544:	05510126 	ldrbeq	r0, [r1, #-294]	; 0x126
     548:	009a6803 	addseq	r6, sl, r3, lsl #16
     54c:	50012600 	andpl	r2, r1, r0, lsl #12
     550:	9a300305 	bls	c0116c <__bss_end__+0xbf6b34>
     554:	02260000 	eoreq	r0, r6, #0
     558:	0305007d 	movweq	r0, #20605	; 0x507d
     55c:	00009aa8 	andeq	r9, r0, r8, lsr #21
     560:	81cc2400 	bichi	r2, ip, r0, lsl #8
     564:	065a0000 	ldrbeq	r0, [sl], -r0
     568:	d0240000 	eorle	r0, r4, r0
     56c:	3d000081 	stccc	0, cr0, [r0, #-516]	; 0xfffffdfc
     570:	25000006 	strcs	r0, [r0, #-6]
     574:	000081f4 	strdeq	r8, [r0], -r4
     578:	00000644 	andeq	r0, r0, r4, asr #12
     57c:	000005a1 	andeq	r0, r0, r1, lsr #11
     580:	01530126 	cmpeq	r3, r6, lsr #2
     584:	5201264f 	andpl	r2, r1, #82837504	; 0x4f00000
     588:	9b840305 	blls	fe1011a4 <__bss_end__+0xfe0f6b6c>
     58c:	01260000 	teqeq	r6, r0
     590:	68030551 	stmdavs	r3, {r0, r4, r6, r8, sl}
     594:	2600009a 			; <UNDEFINED> instruction: 0x2600009a
     598:	03055001 	movweq	r5, #20481	; 0x5001
     59c:	00009ab4 			; <UNDEFINED> instruction: 0x00009ab4
     5a0:	81f82400 	mvnshi	r2, r0, lsl #8
     5a4:	065a0000 	ldrbeq	r0, [sl], -r0
     5a8:	08240000 	stmdaeq	r4!, {}	; <UNPREDICTABLE>
     5ac:	3d000082 	stccc	0, cr0, [r0, #-520]	; 0xfffffdf8
     5b0:	25000006 	strcs	r0, [r0, #-6]
     5b4:	00008224 	andeq	r8, r0, r4, lsr #4
     5b8:	00000644 	andeq	r0, r0, r4, asr #12
     5bc:	000005ec 	andeq	r0, r0, ip, ror #11
     5c0:	02530126 	subseq	r0, r3, #-2147483639	; 0x80000009
     5c4:	01262108 	teqeq	r6, r8, lsl #2
     5c8:	84030552 	strhi	r0, [r3], #-1362	; 0x552
     5cc:	2600009b 			; <UNDEFINED> instruction: 0x2600009b
     5d0:	03055101 	movweq	r5, #20737	; 0x5101
     5d4:	00009a68 	andeq	r9, r0, r8, ror #20
     5d8:	05500126 	ldrbeq	r0, [r0, #-294]	; 0x126
     5dc:	009a3003 	addseq	r3, sl, r3
     5e0:	7d022600 	stcvc	6, cr2, [r2, #-0]
     5e4:	fc030500 	stc2	5, cr0, [r3], {-0}
     5e8:	0000009a 	muleq	r0, sl, r0
     5ec:	00822824 	addeq	r2, r2, r4, lsr #16
     5f0:	00065a00 	andeq	r5, r6, r0, lsl #20
     5f4:	82302500 	eorshi	r2, r0, #0, 10
     5f8:	06440000 	strbeq	r0, [r4], -r0
     5fc:	060c0000 	streq	r0, [ip], -r0
     600:	01260000 	teqeq	r6, r0
     604:	08030550 	stmdaeq	r3, {r4, r6, r8, sl}
     608:	0000009b 	muleq	r0, fp, r0
     60c:	00823c25 	addeq	r3, r2, r5, lsr #24
     610:	00064400 	andeq	r4, r6, r0, lsl #8
     614:	00062300 	andeq	r2, r6, r0, lsl #6
     618:	50012600 	andpl	r2, r1, r0, lsl #12
     61c:	9b140305 	blls	501238 <__bss_end__+0x4f6c00>
     620:	24000000 	strcs	r0, [r0], #-0
     624:	00008240 	andeq	r8, r0, r0, asr #4
     628:	0000065a 	andeq	r0, r0, sl, asr r6
     62c:	008f0600 	addeq	r0, pc, r0, lsl #12
     630:	3d2c0000 	stccc	0, cr0, [ip, #-0]
     634:	05000001 	streq	r0, [r0, #-1]
     638:	000025c2 	andeq	r2, r0, r2, asr #11
     63c:	025a2d00 	subseq	r2, sl, #0, 26
     640:	1e080000 	cdpne	0, 0, cr0, cr8, cr0, {0}
     644:	00057d2e 	andeq	r7, r5, lr, lsr #26
     648:	25290800 	strcs	r0, [r9, #-2048]!	; 0x800
     64c:	5a000000 	bpl	654 <__code_start__-0x79ac>
     650:	0e000006 	cdpeq	0, 0, cr0, cr0, cr6, {0}
     654:	00000084 	andeq	r0, r0, r4, lsl #1
     658:	1c2d002f 	stcne	0, cr0, [sp], #-188	; 0xffffff44
     65c:	08000001 	stmdaeq	r0, {r0}
     660:	022e2d65 	eoreq	r2, lr, #6464	; 0x1940
     664:	8d080000 	stchi	0, cr0, [r8, #-0]
     668:	00005c30 	andeq	r5, r0, r0, lsr ip
     66c:	254e0600 	strbcs	r0, [lr, #-1536]	; 0x600
     670:	0e000000 	cdpeq	0, 0, cr0, cr0, cr0, {0}
     674:	000003fb 	strdeq	r0, [r0], -fp
     678:	0bd70000 	bleq	ff5c0680 <__bss_end__+0xff5b6048>
     67c:	00040000 	andeq	r0, r4, r0
     680:	0000027a 	andeq	r0, r0, sl, ror r2
     684:	01700104 	cmneq	r0, r4, lsl #2
     688:	a5010000 	strge	r0, [r1, #-0]
     68c:	7c000002 	stcvc	0, cr0, [r0], {2}
     690:	64000000 	strvs	r0, [r0], #-0
     694:	78000082 	stmdavc	r0, {r1, r7}
     698:	ac000003 	stcge	0, cr0, [r0], {3}
     69c:	02000001 	andeq	r0, r0, #1
     6a0:	6e690504 	cdpvs	5, 6, cr0, cr9, cr4, {0}
     6a4:	04030074 	streq	r0, [r3], #-116	; 0x74
     6a8:	0001e707 	andeq	lr, r1, r7, lsl #14
     6ac:	06010300 	streq	r0, [r1], -r0, lsl #6
     6b0:	00000110 	andeq	r0, r0, r0, lsl r1
     6b4:	43050203 	movwmi	r0, #20995	; 0x5203
     6b8:	03000000 	movweq	r0, #0
     6bc:	02110504 	andseq	r0, r1, #4, 10	; 0x1000000
     6c0:	08030000 	stmdaeq	r3, {}	; <UNPREDICTABLE>
     6c4:	00020c05 	andeq	r0, r2, r5, lsl #24
     6c8:	08010300 	stmdaeq	r1, {r8, r9}
     6cc:	0000010e 	andeq	r0, r0, lr, lsl #2
     6d0:	21070203 	tstcs	r7, r3, lsl #4
     6d4:	04000000 	streq	r0, [r0], #-0
     6d8:	00000134 	andeq	r0, r0, r4, lsr r1
     6dc:	00683403 	rsbeq	r3, r8, r3, lsl #8
     6e0:	04030000 	streq	r0, [r3], #-0
     6e4:	0001e207 	andeq	lr, r1, r7, lsl #4
     6e8:	07080300 	streq	r0, [r8, -r0, lsl #6]
     6ec:	000001dd 	ldrdeq	r0, [r0], -sp
     6f0:	03070403 	movweq	r0, #29699	; 0x7403
     6f4:	05000002 	streq	r0, [r0, #-2]
     6f8:	08010304 	stmdaeq	r1, {r2, r8, r9}
     6fc:	00000117 	andeq	r0, r0, r7, lsl r1
     700:	008c0406 	addeq	r0, ip, r6, lsl #8
     704:	7f070000 	svcvc	0x00070000
     708:	04000000 	streq	r0, [r0], #-0
     70c:	0000041d 	andeq	r0, r0, sp, lsl r4
     710:	009c8a02 	addseq	r8, ip, r2, lsl #20
     714:	04060000 	streq	r0, [r6], #-0
     718:	000000a2 	andeq	r0, r0, r2, lsr #1
     71c:	0000b708 	andeq	fp, r0, r8, lsl #14
     720:	00b70900 	adcseq	r0, r7, r0, lsl #18
     724:	5d090000 	stcpl	0, cr0, [r9, #-0]
     728:	09000000 	stmdbeq	r0, {}	; <UNPREDICTABLE>
     72c:	0000005d 	andeq	r0, r0, sp, asr r0
     730:	5d040600 	stcpl	6, cr0, [r4, #-0]
     734:	0a000000 	beq	73c <__code_start__-0x78c4>
     738:	000003e9 	andeq	r0, r0, r9, ror #7
     73c:	005d5f02 	subseq	r5, sp, r2, lsl #30
     740:	d9030000 	stmdble	r3, {}	; <UNPREDICTABLE>
     744:	0b000000 	bleq	74c <__code_start__-0x78b4>
     748:	00746572 	rsbseq	r6, r4, r2, ror r5
     74c:	005d5f02 	subseq	r5, sp, r2, lsl #30
     750:	0a000000 	beq	758 <__code_start__-0x78a8>
     754:	00000369 	andeq	r0, r0, r9, ror #6
     758:	005da602 	subseq	sl, sp, r2, lsl #12
     75c:	f5030000 			; <UNDEFINED> instruction: 0xf5030000
     760:	0b000000 	bleq	768 <__code_start__-0x7898>
     764:	00746572 	rsbseq	r6, r4, r2, ror r5
     768:	005da602 	subseq	sl, sp, r2, lsl #12
     76c:	0a000000 	beq	774 <__code_start__-0x788c>
     770:	000003bb 			; <UNDEFINED> instruction: 0x000003bb
     774:	002c7002 	eoreq	r7, ip, r2
     778:	0f030000 	svceq	0x00030000
     77c:	0c000001 	stceq	0, cr0, [r0], {1}
     780:	70020072 	andvc	r0, r2, r2, ror r0
     784:	0000005d 	andeq	r0, r0, sp, asr r0
     788:	02d80a00 	sbcseq	r0, r8, #0, 20
     78c:	18010000 	stmdane	r1, {}	; <UNPREDICTABLE>
     790:	0000005d 	andeq	r0, r0, sp, asr r0
     794:	00012b03 	andeq	r2, r1, r3, lsl #22
     798:	65720b00 	ldrbvs	r0, [r2, #-2816]!	; 0xb00
     79c:	18010074 	stmdane	r1, {r2, r4, r5, r6}
     7a0:	0000005d 	andeq	r0, r0, sp, asr r0
     7a4:	04430d00 	strbeq	r0, [r3], #-3328	; 0xd00
     7a8:	1e010000 	cdpne	0, 0, cr0, cr1, cr0, {0}
     7ac:	00014103 	andeq	r4, r1, r3, lsl #2
     7b0:	00760c00 	rsbseq	r0, r6, r0, lsl #24
     7b4:	005d1e01 	subseq	r1, sp, r1, lsl #28
     7b8:	0d000000 	stceq	0, cr0, [r0, #-0]
     7bc:	0000031b 	andeq	r0, r0, fp, lsl r3
     7c0:	57032601 	strpl	r2, [r3, -r1, lsl #12]
     7c4:	0c000001 	stceq	0, cr0, [r0], {1}
     7c8:	26010076 			; <UNDEFINED> instruction: 0x26010076
     7cc:	0000005d 	andeq	r0, r0, sp, asr r0
     7d0:	04010d00 	streq	r0, [r1], #-3328	; 0xd00
     7d4:	0d010000 	stceq	0, cr0, [r1, #-0]
     7d8:	00016d03 	andeq	r6, r1, r3, lsl #26
     7dc:	00760c00 	rsbseq	r0, r6, r0, lsl #24
     7e0:	005d0d01 	subseq	r0, sp, r1, lsl #26
     7e4:	0a000000 	beq	7ec <__code_start__-0x7814>
     7e8:	0000039b 	muleq	r0, fp, r3
     7ec:	002c6602 	eoreq	r6, ip, r2, lsl #12
     7f0:	89030000 	stmdbhi	r3, {}	; <UNPREDICTABLE>
     7f4:	0e000001 	cdpeq	0, 0, cr0, cr0, cr1, {0}
     7f8:	00000357 	andeq	r0, r0, r7, asr r3
     7fc:	005d6702 	subseq	r6, sp, r2, lsl #14
     800:	0a000000 	beq	808 <__code_start__-0x77f8>
     804:	00000427 	andeq	r0, r0, r7, lsr #8
     808:	005d5602 	subseq	r5, sp, r2, lsl #12
     80c:	a5030000 	strge	r0, [r3, #-0]
     810:	0b000001 	bleq	81c <__code_start__-0x77e4>
     814:	00746572 	rsbseq	r6, r4, r2, ror r5
     818:	005d5602 	subseq	r5, sp, r2, lsl #12
     81c:	0a000000 	beq	824 <__code_start__-0x77dc>
     820:	00000361 	andeq	r0, r0, r1, ror #6
     824:	005d6302 	subseq	r6, sp, r2, lsl #6
     828:	c1030000 	mrsgt	r0, (UNDEF: 3)
     82c:	0b000001 	bleq	838 <__code_start__-0x77c8>
     830:	00746572 	rsbseq	r6, r4, r2, ror r5
     834:	005d6302 	subseq	r6, sp, r2, lsl #6
     838:	0d000000 	stceq	0, cr0, [r0, #-0]
     83c:	000002c6 	andeq	r0, r0, r6, asr #5
     840:	d7033201 	strle	r3, [r3, -r1, lsl #4]
     844:	0c000001 	stceq	0, cr0, [r0], {1}
     848:	32010076 	andcc	r0, r1, #118	; 0x76
     84c:	0000005d 	andeq	r0, r0, sp, asr r0
     850:	03350a00 	teqeq	r5, #0, 20
     854:	8d010000 	stchi	0, cr0, [r1, #-0]
     858:	0000005d 	andeq	r0, r0, sp, asr r0
     85c:	0001f303 	andeq	pc, r1, r3, lsl #6
     860:	65720b00 	ldrbvs	r0, [r2, #-2816]!	; 0xb00
     864:	8d010074 	stchi	0, cr0, [r1, #-464]	; 0xfffffe30
     868:	0000005d 	andeq	r0, r0, sp, asr r0
     86c:	02f70d00 	rscseq	r0, r7, #0, 26
     870:	8e010000 	cdphi	0, 0, cr0, cr1, cr0, {0}
     874:	00020903 	andeq	r0, r2, r3, lsl #18
     878:	00760c00 	rsbseq	r0, r6, r0, lsl #24
     87c:	005d8e01 	subseq	r8, sp, r1, lsl #28
     880:	0d000000 	stceq	0, cr0, [r0, #-0]
     884:	000003ad 	andeq	r0, r0, sp, lsr #7
     888:	1f038c01 	svcne	0x00038c01
     88c:	0c000002 	stceq	0, cr0, [r0], {2}
     890:	8c010076 	stchi	0, cr0, [r1], {118}	; 0x76
     894:	0000005d 	andeq	r0, r0, sp, asr r0
     898:	02b20a00 	adcseq	r0, r2, #0, 20
     89c:	a9020000 	stmdbge	r2, {}	; <UNPREDICTABLE>
     8a0:	0000002c 	andeq	r0, r0, ip, lsr #32
     8a4:	00023903 	andeq	r3, r2, r3, lsl #18
     8a8:	00720b00 	rsbseq	r0, r2, r0, lsl #22
     8ac:	002caa02 	eoreq	sl, ip, r2, lsl #20
     8b0:	0a000000 	beq	8b8 <__code_start__-0x7748>
     8b4:	00000360 	andeq	r0, r0, r0, ror #6
     8b8:	005d9702 	subseq	r9, sp, r2, lsl #14
     8bc:	55030000 	strpl	r0, [r3, #-0]
     8c0:	0b000002 	bleq	8d0 <__code_start__-0x7730>
     8c4:	00746572 	rsbseq	r6, r4, r2, ror r5
     8c8:	005d9702 	subseq	r9, sp, r2, lsl #14
     8cc:	0f000000 	svceq	0x00000000
     8d0:	0000030e 	andeq	r0, r0, lr, lsl #6
     8d4:	82643601 	rsbhi	r3, r4, #1048576	; 0x100000
     8d8:	00b00000 	adcseq	r0, r0, r0
     8dc:	9c010000 	stcls	0, cr0, [r1], {-0}
     8e0:	00000430 	andeq	r0, r0, r0, lsr r4
     8e4:	00022810 	andeq	r2, r2, r0, lsl r8
     8e8:	7d360100 	ldfvcs	f0, [r6, #-0]
     8ec:	9a000000 	bls	8f4 <__code_start__-0x770c>
     8f0:	10000000 	andne	r0, r0, r0
     8f4:	00000461 	andeq	r0, r0, r1, ror #8
     8f8:	00913601 	addseq	r3, r1, r1, lsl #12
     8fc:	00df0000 	sbcseq	r0, pc, r0
     900:	cf110000 	svcgt	0x00110000
     904:	01000002 	tsteq	r0, r2
     908:	00005d39 	andeq	r5, r0, r9, lsr sp
     90c:	00012400 	andeq	r2, r1, r0, lsl #8
     910:	01541200 	cmpeq	r4, r0, lsl #4
     914:	04400000 	strbeq	r0, [r0], #-0
     918:	03050000 	movweq	r0, #20480	; 0x5000
     91c:	00009cb4 			; <UNDEFINED> instruction: 0x00009cb4
     920:	00030511 	andeq	r0, r3, r1, lsl r5
     924:	5d430100 	stfple	f0, [r3, #-0]
     928:	50000000 	andpl	r0, r0, r0
     92c:	13000001 	movwne	r0, #1
     930:	0000010f 	andeq	r0, r0, pc, lsl #2
     934:	0000826c 	andeq	r8, r0, ip, ror #4
     938:	00000004 	andeq	r0, r0, r4
     93c:	02dc3901 	sbcseq	r3, ip, #16384	; 0x4000
     940:	6c140000 	ldcvs	0, cr0, [r4], {-0}
     944:	04000082 	streq	r0, [r0], #-130	; 0x82
     948:	15000000 	strne	r0, [r0, #-0]
     94c:	0000011f 	andeq	r0, r0, pc, lsl r1
     950:	0000017c 	andeq	r0, r0, ip, ror r1
     954:	2b130000 	blcs	4c095c <__bss_end__+0x4b6324>
     958:	74000001 	strvc	r0, [r0], #-1
     95c:	04000082 	streq	r0, [r0], #-130	; 0x82
     960:	01000000 	mrseq	r0, (UNDEF: 0)
     964:	0002f93f 	andeq	pc, r2, pc, lsr r9	; <UNPREDICTABLE>
     968:	01371600 	teqeq	r7, r0, lsl #12
     96c:	018f0000 	orreq	r0, pc, r0
     970:	13000000 	movwne	r0, #0
     974:	0000010f 	andeq	r0, r0, pc, lsl #2
     978:	00008278 	andeq	r8, r0, r8, ror r2
     97c:	00000004 	andeq	r0, r0, r4
     980:	03204101 	teqeq	r0, #1073741824	; 0x40000000
     984:	78140000 	ldmdavc	r4, {}	; <UNPREDICTABLE>
     988:	04000082 	streq	r0, [r0], #-130	; 0x82
     98c:	15000000 	strne	r0, [r0, #-0]
     990:	0000011f 	andeq	r0, r0, pc, lsl r1
     994:	000001ad 	andeq	r0, r0, sp, lsr #3
     998:	41130000 	tstmi	r3, r0
     99c:	a8000001 	stmdage	r0, {r0}
     9a0:	04000082 	streq	r0, [r0], #-130	; 0x82
     9a4:	01000000 	mrseq	r0, (UNDEF: 0)
     9a8:	00033d46 	andeq	r3, r3, r6, asr #26
     9ac:	014d1600 	cmpeq	sp, r0, lsl #12
     9b0:	01500000 	cmpeq	r0, r0
     9b4:	13000000 	movwne	r0, #0
     9b8:	0000012b 	andeq	r0, r0, fp, lsr #2
     9bc:	000082ac 	andeq	r8, r0, ip, lsr #5
     9c0:	00000008 	andeq	r0, r0, r8
     9c4:	03585001 	cmpeq	r8, #1
     9c8:	37170000 	ldrcc	r0, [r7, -r0]
     9cc:	ff000001 			; <UNDEFINED> instruction: 0xff000001
     9d0:	0f130001 	svceq	0x00130001
     9d4:	b4000001 	strlt	r0, [r0], #-1
     9d8:	04000082 	streq	r0, [r0], #-130	; 0x82
     9dc:	01000000 	mrseq	r0, (UNDEF: 0)
     9e0:	00037f52 	andeq	r7, r3, r2, asr pc
     9e4:	82b41400 	adcshi	r1, r4, #0, 8
     9e8:	00040000 	andeq	r0, r4, r0
     9ec:	1f150000 	svcne	0x00150000
     9f0:	cb000001 	blgt	9fc <__code_start__-0x7604>
     9f4:	00000001 	andeq	r0, r0, r1
     9f8:	01571300 	cmpeq	r7, r0, lsl #6
     9fc:	82e40000 	rschi	r0, r4, #0
     a00:	00080000 	andeq	r0, r8, r0
     a04:	54010000 	strpl	r0, [r1], #-0
     a08:	00000399 	muleq	r0, r9, r3
     a0c:	00016318 	andeq	r6, r1, r8, lsl r3
     a10:	19000000 	stmdbne	r0, {}	; <UNPREDICTABLE>
     a14:	00008288 	andeq	r8, r0, r8, lsl #5
     a18:	00000baf 	andeq	r0, r0, pc, lsr #23
     a1c:	0082a41a 	addeq	sl, r2, sl, lsl r4
     a20:	000bb600 	andeq	fp, fp, r0, lsl #12
     a24:	0003db00 	andeq	sp, r3, r0, lsl #22
     a28:	53011b00 	movwpl	r1, #6912	; 0x1b00
     a2c:	1b410802 	blne	1042a3c <__bss_end__+0x1038404>
     a30:	03055201 	movweq	r5, #20993	; 0x5201
     a34:	00009cb4 			; <UNDEFINED> instruction: 0x00009cb4
     a38:	0551011b 	ldrbeq	r0, [r1, #-283]	; 0x11b
     a3c:	009b8c03 	addseq	r8, fp, r3, lsl #24
     a40:	50011b00 	andpl	r1, r1, r0, lsl #22
     a44:	9a300305 	bls	c01660 <__bss_end__+0xbf7028>
     a48:	021b0000 	andseq	r0, fp, #0
     a4c:	0305007d 	movweq	r0, #20605	; 0x507d
     a50:	00009b9c 	muleq	r0, ip, fp
     a54:	82a81900 	adchi	r1, r8, #0, 18
     a58:	0bcc0000 	bleq	ff300a60 <__bss_end__+0xff2f6428>
     a5c:	c4190000 	ldrgt	r0, [r9], #-0
     a60:	af000082 	svcge	0x00000082
     a64:	1a00000b 	bne	a98 <__code_start__-0x7568>
     a68:	000082e0 	andeq	r8, r0, r0, ror #5
     a6c:	00000bb6 			; <UNDEFINED> instruction: 0x00000bb6
     a70:	00000426 	andeq	r0, r0, r6, lsr #8
     a74:	0253011b 	subseq	r0, r3, #-1073741818	; 0xc0000006
     a78:	011b5208 	tsteq	fp, r8, lsl #4
     a7c:	b4030552 	strlt	r0, [r3], #-1362	; 0x552
     a80:	1b00009c 	blne	cf8 <__code_start__-0x7308>
     a84:	03055101 	movweq	r5, #20737	; 0x5101
     a88:	00009b8c 	andeq	r9, r0, ip, lsl #23
     a8c:	0550011b 	ldrbeq	r0, [r0, #-283]	; 0x11b
     a90:	009a3003 	addseq	r3, sl, r3
     a94:	7d021b00 	vstrvc	d1, [r2, #-0]
     a98:	9c030500 	cfstr32ls	mvfx0, [r3], {-0}
     a9c:	0000009b 	muleq	r0, fp, r0
     aa0:	0082e419 	addeq	lr, r2, r9, lsl r4
     aa4:	000bcc00 	andeq	ip, fp, r0, lsl #24
     aa8:	7f1c0000 	svcvc	0x001c0000
     aac:	40000000 	andmi	r0, r0, r0
     ab0:	1d000004 	stcne	0, cr0, [r0, #-16]
     ab4:	00000076 	andeq	r0, r0, r6, ror r0
     ab8:	3007000c 	andcc	r0, r7, ip
     abc:	0a000004 	beq	ad4 <__code_start__-0x752c>
     ac0:	00000291 	muleq	r0, r1, r2
     ac4:	002c7602 	eoreq	r7, ip, r2, lsl #12
     ac8:	6c030000 	stcvs	0, cr0, [r3], {-0}
     acc:	0b000004 	bleq	ae4 <__code_start__-0x751c>
     ad0:	77020072 	smlsdxvc	r2, r2, r0, r0
     ad4:	0000002c 	andeq	r0, r0, ip, lsr #32
     ad8:	0001541e 	andeq	r5, r1, lr, lsl r4
     adc:	00047c00 	andeq	r7, r4, r0, lsl #24
     ae0:	00029100 	andeq	r9, r2, r0, lsl #2
     ae4:	7f1c0000 	svcvc	0x001c0000
     ae8:	7c000000 	stcvc	0, cr0, [r0], {-0}
     aec:	1d000004 	stcne	0, cr0, [r0, #-16]
     af0:	00000076 	andeq	r0, r0, r6, ror r0
     af4:	6c070013 	stcvs	0, cr0, [r7], {19}
     af8:	0f000004 	svceq	0x00000004
     afc:	00000269 	andeq	r0, r0, r9, ror #4
     b00:	83145901 	tsthi	r4, #16384	; 0x4000
     b04:	00dc0000 	sbcseq	r0, ip, r0
     b08:	9c010000 	stcls	0, cr0, [r1], {-0}
     b0c:	000006b0 			; <UNDEFINED> instruction: 0x000006b0
     b10:	0063701f 	rsbeq	r7, r3, pc, lsl r0
     b14:	002c5901 	eoreq	r5, ip, r1, lsl #18
     b18:	01e90000 	mvneq	r0, r0
     b1c:	d8200000 	stmdale	r0!, {}	; <UNPREDICTABLE>
     b20:	01000003 	tsteq	r0, r3
     b24:	0000255a 	andeq	r2, r0, sl, asr r5
     b28:	24030500 	strcs	r0, [r3], #-1280	; 0x500
     b2c:	120000a2 	andne	r0, r0, #162	; 0xa2
     b30:	00000154 	andeq	r0, r0, r4, asr r1
     b34:	000006c0 	andeq	r0, r0, r0, asr #13
     b38:	9cc40305 	stclls	3, cr0, [r4], {5}
     b3c:	290e0000 	stmdbcs	lr, {}	; <UNPREDICTABLE>
     b40:	01000002 	tsteq	r0, r2
     b44:	00005d6b 	andeq	r5, r0, fp, ror #26
     b48:	016d1300 	cmneq	sp, r0, lsl #6
     b4c:	83200000 	teqhi	r0, #0
     b50:	00040000 	andeq	r0, r4, r0
     b54:	5c010000 	stcpl	0, cr0, [r1], {-0}
     b58:	00000511 	andeq	r0, r0, r1, lsl r5
     b5c:	00832014 	addeq	r2, r3, r4, lsl r0
     b60:	00000400 	andeq	r0, r0, r0, lsl #8
     b64:	017d2100 	cmneq	sp, r0, lsl #2
     b68:	bd220000 	stclt	0, cr0, [r2, #-0]
     b6c:	20000000 	andcs	r0, r0, r0
     b70:	04000083 	streq	r0, [r0], #-131	; 0x83
     b74:	02000000 	andeq	r0, r0, #0
     b78:	83201467 	teqhi	r0, #1728053248	; 0x67000000
     b7c:	00040000 	andeq	r0, r4, r0
     b80:	cd210000 	stcgt	0, cr0, [r1, #-0]
     b84:	00000000 	andeq	r0, r0, r0
     b88:	13000000 	movwne	r0, #0
     b8c:	00000445 	andeq	r0, r0, r5, asr #8
     b90:	00008324 	andeq	r8, r0, r4, lsr #6
     b94:	0000002c 	andeq	r0, r0, ip, lsr #32
     b98:	05c46201 	strbeq	r6, [r4, #513]	; 0x201
     b9c:	24140000 	ldrcs	r0, [r4], #-0
     ba0:	2c000083 	stccs	0, cr0, [r0], {131}	; 0x83
     ba4:	21000000 	mrscs	r0, (UNDEF: 0)
     ba8:	00000455 	andeq	r0, r0, r5, asr r4
     bac:	00045e23 	andeq	r5, r4, r3, lsr #28
     bb0:	d8030500 	stmdale	r3, {r8, sl}
     bb4:	1300009c 	movwne	r0, #156	; 0x9c
     bb8:	000000bd 	strheq	r0, [r0], -sp
     bbc:	00008324 	andeq	r8, r0, r4, lsr #6
     bc0:	00000004 	andeq	r0, r0, r4
     bc4:	05647702 	strbeq	r7, [r4, #-1794]!	; 0x702
     bc8:	24140000 	ldrcs	r0, [r4], #-0
     bcc:	04000083 	streq	r0, [r0], #-131	; 0x83
     bd0:	15000000 	strne	r0, [r0, #-0]
     bd4:	000000cd 	andeq	r0, r0, sp, asr #1
     bd8:	00000260 	andeq	r0, r0, r0, ror #4
     bdc:	f5130000 			; <UNDEFINED> instruction: 0xf5130000
     be0:	28000000 	stmdacs	r0, {}	; <UNPREDICTABLE>
     be4:	04000083 	streq	r0, [r0], #-131	; 0x83
     be8:	02000000 	andeq	r0, r0, #0
     bec:	00058178 	andeq	r8, r5, r8, ror r1
     bf0:	01051600 	tsteq	r5, r0, lsl #12
     bf4:	02600000 	rsbeq	r0, r0, #0
     bf8:	19000000 	stmdbne	r0, {}	; <UNPREDICTABLE>
     bfc:	00008338 	andeq	r8, r0, r8, lsr r3
     c00:	00000baf 	andeq	r0, r0, pc, lsr #23
     c04:	00834c1a 	addeq	r4, r3, sl, lsl ip
     c08:	000bb600 	andeq	fp, fp, r0, lsl #12
     c0c:	0005b900 	andeq	fp, r5, r0, lsl #18
     c10:	53011b00 	movwpl	r1, #6912	; 0x1b00
     c14:	1b790802 	blne	1e42c24 <__bss_end__+0x1e385ec>
     c18:	03055201 	movweq	r5, #20993	; 0x5201
     c1c:	00009cd8 	ldrdeq	r9, [r0], -r8
     c20:	0551011b 	ldrbeq	r0, [r1, #-283]	; 0x11b
     c24:	009bec03 	addseq	lr, fp, r3, lsl #24
     c28:	50011b00 	andpl	r1, r1, r0, lsl #22
     c2c:	9bb40305 	blls	fed01848 <__bss_end__+0xfecf7210>
     c30:	19000000 	stmdbne	r0, {}	; <UNPREDICTABLE>
     c34:	00008350 	andeq	r8, r0, r0, asr r3
     c38:	00000bcc 	andeq	r0, r0, ip, asr #23
     c3c:	89130000 	ldmdbhi	r3, {}	; <UNPREDICTABLE>
     c40:	50000001 	andpl	r0, r0, r1
     c44:	04000083 	streq	r0, [r0], #-131	; 0x83
     c48:	01000000 	mrseq	r0, (UNDEF: 0)
     c4c:	0005eb67 	andeq	lr, r5, r7, ror #22
     c50:	83501400 	cmphi	r0, #0, 8
     c54:	00040000 	andeq	r0, r4, r0
     c58:	99150000 	ldmdbls	r5, {}	; <UNPREDICTABLE>
     c5c:	73000001 	movwvc	r0, #1
     c60:	00000002 	andeq	r0, r0, r2
     c64:	01a51300 			; <UNDEFINED> instruction: 0x01a51300
     c68:	83b80000 			; <UNDEFINED> instruction: 0x83b80000
     c6c:	00040000 	andeq	r0, r4, r0
     c70:	6b010000 	blvs	40c78 <__bss_end__+0x36640>
     c74:	0000060e 	andeq	r0, r0, lr, lsl #12
     c78:	0083b814 	addeq	fp, r3, r4, lsl r8
     c7c:	00000400 	andeq	r0, r0, r0, lsl #8
     c80:	01b52100 			; <UNDEFINED> instruction: 0x01b52100
     c84:	00000000 	andeq	r0, r0, r0
     c88:	00836419 	addeq	r6, r3, r9, lsl r4
     c8c:	000baf00 	andeq	sl, fp, r0, lsl #30
     c90:	83801a00 	orrhi	r1, r0, #0, 20
     c94:	0bb60000 	bleq	fed80c9c <__bss_end__+0xfed76664>
     c98:	06500000 	ldrbeq	r0, [r0], -r0
     c9c:	011b0000 	tsteq	fp, r0
     ca0:	67080253 	smlsdvs	r8, r3, r2, r0
     ca4:	0552011b 	ldrbeq	r0, [r2, #-283]	; 0x11b
     ca8:	009cc403 	addseq	ip, ip, r3, lsl #8
     cac:	51011b00 	tstpl	r1, r0, lsl #22
     cb0:	9b8c0305 	blls	fe3018cc <__bss_end__+0xfe2f7294>
     cb4:	011b0000 	tsteq	fp, r0
     cb8:	30030550 	andcc	r0, r3, r0, asr r5
     cbc:	1b00009a 	blne	f2c <__code_start__-0x70d4>
     cc0:	05007d02 	streq	r7, [r0, #-3330]	; 0xd02
     cc4:	009bfc03 	addseq	pc, fp, r3, lsl #24
     cc8:	84190000 	ldrhi	r0, [r9], #-0
     ccc:	cc000083 	stcgt	0, cr0, [r0], {131}	; 0x83
     cd0:	1900000b 	stmdbne	r0, {r0, r1, r3}
     cd4:	00008398 	muleq	r0, r8, r3
     cd8:	00000baf 	andeq	r0, r0, pc, lsr #23
     cdc:	0083b41a 	addeq	fp, r3, sl, lsl r4
     ce0:	000bb600 	andeq	fp, fp, r0, lsl #12
     ce4:	00069b00 	andeq	r9, r6, r0, lsl #22
     ce8:	53011b00 	movwpl	r1, #6912	; 0x1b00
     cec:	1b690802 	blne	1a42cfc <__bss_end__+0x1a386c4>
     cf0:	03055201 	movweq	r5, #20993	; 0x5201
     cf4:	00009cc4 	andeq	r9, r0, r4, asr #25
     cf8:	0551011b 	ldrbeq	r0, [r1, #-283]	; 0x11b
     cfc:	009b8c03 	addseq	r8, fp, r3, lsl #24
     d00:	50011b00 	andpl	r1, r1, r0, lsl #22
     d04:	9a300305 	bls	c01920 <__bss_end__+0xbf72e8>
     d08:	021b0000 	andseq	r0, fp, #0
     d0c:	0305007d 	movweq	r0, #20605	; 0x507d
     d10:	00009c10 	andeq	r9, r0, r0, lsl ip
     d14:	83b81900 			; <UNDEFINED> instruction: 0x83b81900
     d18:	0bcc0000 	bleq	ff300d20 <__bss_end__+0xff2f66e8>
     d1c:	c4240000 	strtgt	r0, [r4], #-0
     d20:	1b000083 	blne	f34 <__code_start__-0x70cc>
     d24:	30015001 	andcc	r5, r1, r1
     d28:	7f1c0000 	svcvc	0x001c0000
     d2c:	c0000000 	andgt	r0, r0, r0
     d30:	1d000006 	stcne	0, cr0, [r0, #-24]	; 0xffffffe8
     d34:	00000076 	andeq	r0, r0, r6, ror r0
     d38:	b0070011 	andlt	r0, r7, r1, lsl r0
     d3c:	0f000006 	svceq	0x00000006
     d40:	000003cc 	andeq	r0, r0, ip, asr #7
     d44:	83f07201 	mvnshi	r7, #268435456	; 0x10000000
     d48:	003c0000 	eorseq	r0, ip, r0
     d4c:	9c010000 	stcls	0, cr0, [r1], {-0}
     d50:	00000735 	andeq	r0, r0, r5, lsr r7
     d54:	0002e120 	andeq	lr, r2, r0, lsr #2
     d58:	25730100 	ldrbcs	r0, [r3, #-256]!	; 0x100
     d5c:	05000000 	streq	r0, [r0, #-0]
     d60:	00a22803 	adceq	r2, r2, r3, lsl #16
     d64:	00762500 	rsbseq	r2, r6, r0, lsl #10
     d68:	005d7c01 	subseq	r7, sp, r1, lsl #24
     d6c:	80000000 	andhi	r0, r0, r0
     d70:	0001c113 	andeq	ip, r1, r3, lsl r1
     d74:	00841400 	addeq	r1, r4, r0, lsl #8
     d78:	00000800 	andeq	r0, r0, r0, lsl #16
     d7c:	117e0100 	cmnne	lr, r0, lsl #2
     d80:	17000007 	strne	r0, [r0, -r7]
     d84:	000001cd 	andeq	r0, r0, sp, asr #3
     d88:	13008000 	movwne	r8, #0
     d8c:	00000157 	andeq	r0, r0, r7, asr r1
     d90:	0000841c 	andeq	r8, r0, ip, lsl r4
     d94:	00000010 	andeq	r0, r0, r0, lsl r0
     d98:	072b8001 	streq	r8, [fp, -r1]!
     d9c:	63180000 	tstvs	r8, #0
     da0:	00000001 	andeq	r0, r0, r1
     da4:	84081900 	strhi	r1, [r8], #-2304	; 0x900
     da8:	0bd30000 	bleq	ff4c0db0 <__bss_end__+0xff4b6778>
     dac:	0f000000 	svceq	0x00000000
     db0:	00000438 	andeq	r0, r0, r8, lsr r4
     db4:	842ca801 	strthi	sl, [ip], #-2049	; 0x801
     db8:	00340000 	eorseq	r0, r4, r0
     dbc:	9c010000 	stcls	0, cr0, [r1], {-0}
     dc0:	00000811 	andeq	r0, r0, r1, lsl r8
     dc4:	00022926 	andeq	r2, r2, r6, lsr #18
     dc8:	5da80100 	stfpls	f0, [r8]
     dcc:	01000000 	mrseq	r0, (UNDEF: 0)
     dd0:	04612650 	strbteq	r2, [r1], #-1616	; 0x650
     dd4:	a8010000 	stmdage	r1, {}	; <UNPREDICTABLE>
     dd8:	00000091 	muleq	r0, r1, r0
     ddc:	14115101 	ldrne	r5, [r1], #-257	; 0x101
     de0:	01000004 	tsteq	r0, r4
     de4:	00005da9 	andeq	r5, r0, r9, lsr #27
     de8:	0002a000 	andeq	sl, r2, r0
     dec:	03e02000 	mvneq	r2, #0
     df0:	b1010000 	mrslt	r0, (UNDEF: 1)
     df4:	0000005d 	andeq	r0, r0, sp, asr r0
     df8:	d7135001 	ldrle	r5, [r3, -r1]
     dfc:	2c000001 	stccs	0, cr0, [r0], {1}
     e00:	04000084 	streq	r0, [r0], #-132	; 0x84
     e04:	01000000 	mrseq	r0, (UNDEF: 0)
     e08:	0007a7a9 	andeq	sl, r7, r9, lsr #15
     e0c:	842c1400 	strthi	r1, [ip], #-1024	; 0x400
     e10:	00040000 	andeq	r0, r4, r0
     e14:	e7150000 	ldr	r0, [r5, -r0]
     e18:	c1000001 	tstgt	r0, r1
     e1c:	00000002 	andeq	r0, r0, r2
     e20:	01f31300 	mvnseq	r1, r0, lsl #6
     e24:	84340000 	ldrthi	r0, [r4], #-0
     e28:	00040000 	andeq	r0, r4, r0
     e2c:	af010000 	svcge	0x00010000
     e30:	000007c4 	andeq	r0, r0, r4, asr #15
     e34:	0001ff16 	andeq	pc, r1, r6, lsl pc	; <UNPREDICTABLE>
     e38:	0002d400 	andeq	sp, r2, r0, lsl #8
     e3c:	09130000 	ldmdbeq	r3, {}	; <UNPREDICTABLE>
     e40:	38000002 	stmdacc	r0, {r1}
     e44:	04000084 	streq	r0, [r0], #-132	; 0x84
     e48:	01000000 	mrseq	r0, (UNDEF: 0)
     e4c:	0007dfb4 			; <UNDEFINED> instruction: 0x0007dfb4
     e50:	02152700 	andseq	r2, r5, #0, 14
     e54:	50010000 	andpl	r0, r1, r0
     e58:	01f31300 	mvnseq	r1, r0, lsl #6
     e5c:	843c0000 	ldrthi	r0, [ip], #-0
     e60:	00080000 	andeq	r0, r8, r0
     e64:	be010000 	cdplt	0, 0, cr0, cr1, cr0, {0}
     e68:	000007fa 	strdeq	r0, [r0], -sl
     e6c:	0001ff17 	andeq	pc, r1, r7, lsl pc	; <UNPREDICTABLE>
     e70:	0001e700 	andeq	lr, r1, r0, lsl #14
     e74:	00015722 	andeq	r5, r1, r2, lsr #14
     e78:	00844400 	addeq	r4, r4, r0, lsl #8
     e7c:	00000800 	andeq	r0, r0, r0, lsl #16
     e80:	18bf0100 	ldmne	pc!, {r8}	; <UNPREDICTABLE>
     e84:	00000163 	andeq	r0, r0, r3, ror #2
     e88:	0f000000 	svceq	0x00000000
     e8c:	0000027b 	andeq	r0, r0, fp, ror r2
     e90:	8460c401 	strbthi	ip, [r0], #-1025	; 0x401
     e94:	00980000 	addseq	r0, r8, r0
     e98:	9c010000 	stcls	0, cr0, [r1], {-0}
     e9c:	00000944 	andeq	r0, r0, r4, asr #18
     ea0:	0063701f 	rsbeq	r7, r3, pc, lsl r0
     ea4:	002cc401 	eoreq	ip, ip, r1, lsl #8
     ea8:	02e70000 	rsceq	r0, r7, #0
     eac:	54120000 	ldrpl	r0, [r2], #-0
     eb0:	54000001 	strpl	r0, [r0], #-1
     eb4:	05000009 	streq	r0, [r0, #-9]
     eb8:	009cec03 	addseq	lr, ip, r3, lsl #24
     ebc:	021f1300 	andseq	r1, pc, #0, 6
     ec0:	846c0000 	strbthi	r0, [ip], #-0
     ec4:	00080000 	andeq	r0, r8, r0
     ec8:	c6010000 	strgt	r0, [r1], -r0
     ecc:	00000889 	andeq	r0, r0, r9, lsl #17
     ed0:	00846c14 	addeq	r6, r4, r4, lsl ip
     ed4:	00000800 	andeq	r0, r0, r0, lsl #16
     ed8:	022f2100 	eoreq	r2, pc, #0, 2
     edc:	d9220000 	stmdble	r2!, {}	; <UNPREDICTABLE>
     ee0:	6c000000 	stcvs	0, cr0, [r0], {-0}
     ee4:	04000084 	streq	r0, [r0], #-132	; 0x84
     ee8:	02000000 	andeq	r0, r0, #0
     eec:	846c14aa 	strbthi	r1, [ip], #-1194	; 0x4aa
     ef0:	00040000 	andeq	r0, r4, r0
     ef4:	e9150000 	ldmdb	r5, {}	; <UNPREDICTABLE>
     ef8:	45000000 	strmi	r0, [r0, #-0]
     efc:	00000003 	andeq	r0, r0, r3
     f00:	13000000 	movwne	r0, #0
     f04:	00000239 	andeq	r0, r0, r9, lsr r2
     f08:	000084cc 	andeq	r8, r0, ip, asr #9
     f0c:	00000004 	andeq	r0, r0, r4
     f10:	08acca01 	stmiaeq	ip!, {r0, r9, fp, lr, pc}
     f14:	cc140000 	ldcgt	0, cr0, [r4], {-0}
     f18:	04000084 	streq	r0, [r0], #-132	; 0x84
     f1c:	21000000 	mrscs	r0, (UNDEF: 0)
     f20:	00000249 	andeq	r0, r0, r9, asr #4
     f24:	80190000 	andshi	r0, r9, r0
     f28:	af000084 	svcge	0x00000084
     f2c:	1a00000b 	bne	f60 <__code_start__-0x70a0>
     f30:	00008494 	muleq	r0, r4, r4
     f34:	00000bb6 			; <UNDEFINED> instruction: 0x00000bb6
     f38:	000008e4 	andeq	r0, r0, r4, ror #17
     f3c:	0253011b 	subseq	r0, r3, #-1073741818	; 0xc0000006
     f40:	011bc708 	tsteq	fp, r8, lsl #14
     f44:	ec030552 	cfstr32	mvfx0, [r3], {82}	; 0x52
     f48:	1b00009c 	blne	11c0 <__code_start__-0x6e40>
     f4c:	03055101 	movweq	r5, #20737	; 0x5101
     f50:	00009b8c 	andeq	r9, r0, ip, lsl #23
     f54:	0550011b 	ldrbeq	r0, [r0, #-283]	; 0x11b
     f58:	009c2403 	addseq	r2, ip, r3, lsl #8
     f5c:	98190000 	ldmdals	r9, {}	; <UNPREDICTABLE>
     f60:	cc000084 	stcgt	0, cr0, [r0], {132}	; 0x84
     f64:	1900000b 	stmdbne	r0, {r0, r1, r3}
     f68:	000084ac 	andeq	r8, r0, ip, lsr #9
     f6c:	00000baf 	andeq	r0, r0, pc, lsr #23
     f70:	0084c81a 	addeq	ip, r4, sl, lsl r8
     f74:	000bb600 	andeq	fp, fp, r0, lsl #12
     f78:	00092f00 	andeq	r2, r9, r0, lsl #30
     f7c:	53011b00 	movwpl	r1, #6912	; 0x1b00
     f80:	1bc80802 	blne	ff202f90 <__bss_end__+0xff1f8958>
     f84:	03055201 	movweq	r5, #20993	; 0x5201
     f88:	00009cec 	andeq	r9, r0, ip, ror #25
     f8c:	0551011b 	ldrbeq	r0, [r1, #-283]	; 0x11b
     f90:	009b8c03 	addseq	r8, fp, r3, lsl #24
     f94:	50011b00 	andpl	r1, r1, r0, lsl #22
     f98:	9a300305 	bls	c01bb4 <__bss_end__+0xbf757c>
     f9c:	021b0000 	andseq	r0, fp, #0
     fa0:	0305007d 	movweq	r0, #20605	; 0x507d
     fa4:	00009c5c 	andeq	r9, r0, ip, asr ip
     fa8:	84cc1900 	strbhi	r1, [ip], #2304	; 0x900
     fac:	0bcc0000 	bleq	ff300fb4 <__bss_end__+0xff2f697c>
     fb0:	d8240000 	stmdale	r4!, {}	; <UNPREDICTABLE>
     fb4:	1b000084 	blne	11cc <__code_start__-0x6e34>
     fb8:	30015001 	andcc	r5, r1, r1
     fbc:	7f1c0000 	svcvc	0x001c0000
     fc0:	54000000 	strpl	r0, [r0], #-0
     fc4:	1d000009 	stcne	0, cr0, [r0, #-36]	; 0xffffffdc
     fc8:	00000076 	andeq	r0, r0, r6, ror r0
     fcc:	44070015 	strmi	r0, [r7], #-21
     fd0:	0f000009 	svceq	0x00000009
     fd4:	00000768 	andeq	r0, r0, r8, ror #14
     fd8:	84f8cd01 	ldrbthi	ip, [r8], #3329	; 0xd01
     fdc:	00040000 	andeq	r0, r4, r0
     fe0:	9c010000 	stcls	0, cr0, [r1], {-0}
     fe4:	0000097b 	andeq	r0, r0, fp, ror r9
     fe8:	00637028 	rsbeq	r7, r3, r8, lsr #32
     fec:	002ccd01 	eoreq	ip, ip, r1, lsl #26
     ff0:	50010000 	andpl	r0, r1, r0
     ff4:	03240f00 	teqeq	r4, #0, 30
     ff8:	d8010000 	stmdale	r1, {}	; <UNPREDICTABLE>
     ffc:	000084fc 	strdeq	r8, [r0], -ip
    1000:	0000002c 	andeq	r0, r0, ip, lsr #32
    1004:	09e19c01 	stmibeq	r1!, {r0, sl, fp, ip, pc}^
    1008:	54120000 	ldrpl	r0, [r2], #-0
    100c:	f1000001 	cps	#1
    1010:	05000009 	streq	r0, [r0, #-9]
    1014:	009d0403 	addseq	r0, sp, r3, lsl #8
    1018:	85041900 	strhi	r1, [r4, #-2304]	; 0x900
    101c:	0baf0000 	bleq	febc1024 <__bss_end__+0xfebb69ec>
    1020:	181a0000 	ldmdane	sl, {}	; <UNPREDICTABLE>
    1024:	b6000085 	strlt	r0, [r0], -r5, lsl #1
    1028:	d700000b 	strle	r0, [r0, -fp]
    102c:	1b000009 	blne	1058 <__code_start__-0x6fa8>
    1030:	08025301 	stmdaeq	r2, {r0, r8, r9, ip, lr}
    1034:	52011bd9 	andpl	r1, r1, #222208	; 0x36400
    1038:	9d040305 	stcls	3, cr0, [r4, #-20]	; 0xffffffec
    103c:	011b0000 	tsteq	fp, r0
    1040:	8c030551 	cfstr32hi	mvfx0, [r3], {81}	; 0x51
    1044:	1b00009b 	blne	12b8 <__code_start__-0x6d48>
    1048:	03055001 	movweq	r5, #20481	; 0x5001
    104c:	00009c6c 	andeq	r9, r0, ip, ror #24
    1050:	851c1900 	ldrhi	r1, [ip, #-2304]	; 0x900
    1054:	0bcc0000 	bleq	ff30105c <__bss_end__+0xff2f6a24>
    1058:	1c000000 	stcne	0, cr0, [r0], {-0}
    105c:	0000007f 	andeq	r0, r0, pc, ror r0
    1060:	000009f1 	strdeq	r0, [r0], -r1
    1064:	0000761d 	andeq	r7, r0, sp, lsl r6
    1068:	07001000 	streq	r1, [r0, -r0]
    106c:	000009e1 	andeq	r0, r0, r1, ror #19
    1070:	0003430f 	andeq	r4, r3, pc, lsl #6
    1074:	28dc0100 	ldmcs	ip, {r8}^
    1078:	34000085 	strcc	r0, [r0], #-133	; 0x85
    107c:	01000000 	mrseq	r0, (UNDEF: 0)
    1080:	000ad49c 	muleq	sl, ip, r4
    1084:	02292600 	eoreq	r2, r9, #0, 12
    1088:	dc010000 	stcle	0, cr0, [r1], {-0}
    108c:	0000005d 	andeq	r0, r0, sp, asr r0
    1090:	61265001 	teqvs	r6, r1
    1094:	01000004 	tsteq	r0, r4
    1098:	000091dc 	ldrdeq	r9, [r0], -ip
    109c:	11510100 	cmpne	r1, r0, lsl #2
    10a0:	00000414 	andeq	r0, r0, r4, lsl r4
    10a4:	005ddd01 	subseq	sp, sp, r1, lsl #26
    10a8:	03580000 	cmpeq	r8, #0
    10ac:	e0200000 	eor	r0, r0, r0
    10b0:	01000003 	tsteq	r0, r3
    10b4:	00005de5 	andeq	r5, r0, r5, ror #27
    10b8:	13500100 	cmpne	r0, #0, 2
    10bc:	000001d7 	ldrdeq	r0, [r0], -r7
    10c0:	00008528 	andeq	r8, r0, r8, lsr #10
    10c4:	00000004 	andeq	r0, r0, r4
    10c8:	0a68dd01 	beq	1a384d4 <__bss_end__+0x1a2de9c>
    10cc:	28140000 	ldmdacs	r4, {}	; <UNPREDICTABLE>
    10d0:	04000085 	streq	r0, [r0], #-133	; 0x85
    10d4:	15000000 	strne	r0, [r0, #-0]
    10d8:	000001e7 	andeq	r0, r0, r7, ror #3
    10dc:	0000037b 	andeq	r0, r0, fp, ror r3
    10e0:	f3130000 	vhadd.u16	d0, d3, d0
    10e4:	30000001 	andcc	r0, r0, r1
    10e8:	04000085 	streq	r0, [r0], #-133	; 0x85
    10ec:	01000000 	mrseq	r0, (UNDEF: 0)
    10f0:	000a85e3 	andeq	r8, sl, r3, ror #11
    10f4:	01ff1600 	mvnseq	r1, r0, lsl #12
    10f8:	038e0000 	orreq	r0, lr, #0
    10fc:	13000000 	movwne	r0, #0
    1100:	00000209 	andeq	r0, r0, r9, lsl #4
    1104:	00008534 	andeq	r8, r0, r4, lsr r5
    1108:	00000004 	andeq	r0, r0, r4
    110c:	0aa0e801 	beq	fe83b118 <__bss_end__+0xfe830ae0>
    1110:	15270000 	strne	r0, [r7, #-0]!
    1114:	01000002 	tsteq	r0, r2
    1118:	f3130050 	vqadd.u16	q0, <illegal reg q1.5>, q0
    111c:	38000001 	stmdacc	r0, {r0}
    1120:	08000085 	stmdaeq	r0, {r0, r2, r7}
    1124:	01000000 	mrseq	r0, (UNDEF: 0)
    1128:	000abdf2 	strdeq	fp, [sl], -r2
    112c:	01ff2900 	mvnseq	r2, r0, lsl #18
    1130:	01e70000 	mvneq	r0, r0
    1134:	22000040 	andcs	r0, r0, #64	; 0x40
    1138:	00000157 	andeq	r0, r0, r7, asr r1
    113c:	00008540 	andeq	r8, r0, r0, asr #10
    1140:	00000008 	andeq	r0, r0, r8
    1144:	6318f301 	tstvs	r8, #67108864	; 0x4000000
    1148:	00000001 	andeq	r0, r0, r1
    114c:	830f0000 	movwhi	r0, #61440	; 0xf000
    1150:	01000003 	tsteq	r0, r3
    1154:	00855cf8 	strdeq	r5, [r5], r8
    1158:	00001000 	andeq	r1, r0, r0
    115c:	209c0100 	addscs	r0, ip, r0, lsl #2
    1160:	2600000b 	strcs	r0, [r0], -fp
    1164:	00000229 	andeq	r0, r0, r9, lsr #4
    1168:	005df801 	subseq	pc, sp, r1, lsl #16
    116c:	50010000 	andpl	r0, r1, r0
    1170:	0004142a 	andeq	r1, r4, sl, lsr #8
    1174:	5df90100 	ldfple	f0, [r9]
    1178:	e6000000 	str	r0, [r0], -r0
    117c:	2b004001 	blcs	11188 <__bss_end__+0x6b50>
    1180:	000001f3 	strdeq	r0, [r0], -r3
    1184:	0000855c 	andeq	r8, r0, ip, asr r5
    1188:	00000010 	andeq	r0, r0, r0, lsl r0
    118c:	29010001 	stmdbcs	r1, {r0}
    1190:	000001ff 	strdeq	r0, [r0], -pc	; <UNPREDICTABLE>
    1194:	004001e6 	subeq	r0, r0, r6, ror #3
    1198:	f22c0000 	vhadd.s32	d0, d12, d0
    119c:	01000003 	tsteq	r0, r3
    11a0:	00250109 	eoreq	r0, r5, r9, lsl #2
    11a4:	856c0000 	strbhi	r0, [ip, #-0]!
    11a8:	00700000 	rsbseq	r0, r0, r0
    11ac:	9c010000 	stcls	0, cr0, [r1], {-0}
    11b0:	00000b7c 	andeq	r0, r0, ip, ror fp
    11b4:	0063702d 	rsbeq	r7, r3, sp, lsr #32
    11b8:	2c010901 	stccs	9, cr0, [r1], {1}
    11bc:	a1000000 	mrsge	r0, (UNDEF: 0)
    11c0:	2d000003 	stccs	0, cr0, [r0, #-12]
    11c4:	01003072 	tsteq	r0, r2, ror r0
    11c8:	005d0109 	subseq	r0, sp, r9, lsl #2
    11cc:	04260000 	strteq	r0, [r6], #-0
    11d0:	302e0000 	eorcc	r0, lr, r0
    11d4:	01000004 	tsteq	r0, r4
    11d8:	005d010a 	subseq	r0, sp, sl, lsl #2
    11dc:	04520000 	ldrbeq	r0, [r2], #-0
    11e0:	c02f0000 	eorgt	r0, pc, r0
    11e4:	b6000085 	strlt	r0, [r0], -r5, lsl #1
    11e8:	1b00000b 	blne	121c <__code_start__-0x6de4>
    11ec:	03055001 	movweq	r5, #20481	; 0x5001
    11f0:	00009c9c 	muleq	r0, ip, ip
    11f4:	72200000 	eorvc	r0, r0, #0
    11f8:	01000003 	tsteq	r0, r3
    11fc:	0000910b 	andeq	r9, r0, fp, lsl #2
    1200:	18030500 	stmdane	r3, {r8, sl}
    1204:	200000a2 	andcs	r0, r0, r2, lsr #1
    1208:	000002e8 	andeq	r0, r0, r8, ror #5
    120c:	00918901 	addseq	r8, r1, r1, lsl #18
    1210:	03050000 	movweq	r0, #20480	; 0x5000
    1214:	0000a21c 	andeq	sl, r0, ip, lsl r2
    1218:	00013d30 	andeq	r3, r1, r0, lsr sp
    121c:	25d50100 	ldrbcs	r0, [r5, #256]	; 0x100
    1220:	05000000 	streq	r0, [r0, #-0]
    1224:	00a22003 	adceq	r2, r2, r3
    1228:	025a3100 	subseq	r3, sl, #0, 2
    122c:	1e040000 	cdpne	0, 0, cr0, cr4, cr0, {0}
    1230:	00057d32 	andeq	r7, r5, r2, lsr sp
    1234:	25290400 	strcs	r0, [r9, #-1024]!	; 0x400
    1238:	cc000000 	stcgt	0, cr0, [r0], {-0}
    123c:	0900000b 	stmdbeq	r0, {r0, r1, r3}
    1240:	00000086 	andeq	r0, r0, r6, lsl #1
    1244:	1c310033 	ldcne	0, cr0, [r1], #-204	; 0xffffff34
    1248:	04000001 	streq	r0, [r0], #-1
    124c:	044c3165 	strbeq	r3, [ip], #-357	; 0x165
    1250:	36050000 	strcc	r0, [r5], -r0
    1254:	000e7400 	andeq	r7, lr, r0, lsl #8
    1258:	0d000400 	cfstrseq	mvf0, [r0, #-0]
    125c:	04000005 	streq	r0, [r0], #-5
    1260:	00017001 	andeq	r7, r1, r1
    1264:	04740100 	ldrbteq	r0, [r4], #-256	; 0x100
    1268:	007c0000 	rsbseq	r0, ip, r0
    126c:	87140000 	ldrhi	r0, [r4, -r0]
    1270:	07080000 	streq	r0, [r8, -r0]
    1274:	03a40000 			; <UNDEFINED> instruction: 0x03a40000
    1278:	04020000 	streq	r0, [r2], #-0
    127c:	746e6905 	strbtvc	r6, [lr], #-2309	; 0x905
    1280:	07040300 	streq	r0, [r4, -r0, lsl #6]
    1284:	000001e7 	andeq	r0, r0, r7, ror #3
    1288:	10060103 	andne	r0, r6, r3, lsl #2
    128c:	03000001 	movweq	r0, #1
    1290:	00430502 	subeq	r0, r3, r2, lsl #10
    1294:	04030000 	streq	r0, [r3], #-0
    1298:	00021105 	andeq	r1, r2, r5, lsl #2
    129c:	05080300 	streq	r0, [r8, #-768]	; 0x300
    12a0:	0000020c 	andeq	r0, r0, ip, lsl #4
    12a4:	0e080103 	adfeqe	f0, f0, f3
    12a8:	03000001 	movweq	r0, #1
    12ac:	00210702 	eoreq	r0, r1, r2, lsl #14
    12b0:	34040000 	strcc	r0, [r4], #-0
    12b4:	06000001 	streq	r0, [r0], -r1
    12b8:	00006834 	andeq	r6, r0, r4, lsr r8
    12bc:	07040300 	streq	r0, [r4, -r0, lsl #6]
    12c0:	000001e2 	andeq	r0, r0, r2, ror #3
    12c4:	dd070803 	stcle	8, cr0, [r7, #-12]
    12c8:	03000001 	movweq	r0, #1
    12cc:	02030704 	andeq	r0, r3, #4, 14	; 0x100000
    12d0:	04050000 	streq	r0, [r5], #-0
    12d4:	17080103 	strne	r0, [r8, -r3, lsl #2]
    12d8:	06000001 	streq	r0, [r0], -r1
    12dc:	00008c04 	andeq	r8, r0, r4, lsl #24
    12e0:	007f0700 	rsbseq	r0, pc, r0, lsl #14
    12e4:	1d040000 	stcne	0, cr0, [r4, #-0]
    12e8:	02000004 	andeq	r0, r0, #4
    12ec:	00009c8a 	andeq	r9, r0, sl, lsl #25
    12f0:	a2040600 	andge	r0, r4, #0, 12
    12f4:	08000000 	stmdaeq	r0, {}	; <UNPREDICTABLE>
    12f8:	000000b7 	strheq	r0, [r0], -r7
    12fc:	0000b709 	andeq	fp, r0, r9, lsl #14
    1300:	005d0900 	subseq	r0, sp, r0, lsl #18
    1304:	5d090000 	stcpl	0, cr0, [r9, #-0]
    1308:	00000000 	andeq	r0, r0, r0
    130c:	005d0406 	subseq	r0, sp, r6, lsl #8
    1310:	100a0000 	andne	r0, sl, r0
    1314:	38000000 	stmdacc	r0, {}	; <UNPREDICTABLE>
    1318:	016e0a07 	cmneq	lr, r7, lsl #20
    131c:	440b0000 	strmi	r0, [fp], #-0
    1320:	0700000a 	streq	r0, [r0, -sl]
    1324:	00016e0f 	andeq	r6, r1, pc, lsl #28
    1328:	410c0000 	mrsmi	r0, (UNDEF: 12)
    132c:	86120700 	ldrhi	r0, [r2], -r0, lsl #14
    1330:	04000001 	streq	r0, [r0], #-1
    1334:	0700420c 	streq	r4, [r0, -ip, lsl #4]
    1338:	00019b13 	andeq	r9, r1, r3, lsl fp
    133c:	4f0b0800 	svcmi	0x000b0800
    1340:	07000001 	streq	r0, [r0, -r1]
    1344:	00018616 	andeq	r8, r1, r6, lsl r6
    1348:	5c0b0c00 	stcpl	12, cr0, [fp], {-0}
    134c:	07000000 	streq	r0, [r0, -r0]
    1350:	00019b18 	andeq	r9, r1, r8, lsl fp
    1354:	f90b1000 			; <UNDEFINED> instruction: 0xf90b1000
    1358:	07000001 	streq	r0, [r0, -r1]
    135c:	0001a11f 	andeq	sl, r1, pc, lsl r1
    1360:	fd0b1400 	stc2	4, cr1, [fp, #-0]
    1364:	07000000 	streq	r0, [r0, -r0]
    1368:	0001a131 	andeq	sl, r1, r1, lsr r1
    136c:	290b1800 	stmdbcs	fp, {fp, ip}
    1370:	07000001 	streq	r0, [r0, -r1]
    1374:	0001a636 	andeq	sl, r1, r6, lsr r6
    1378:	220b1c00 	andcs	r1, fp, #0, 24
    137c:	07000002 	streq	r0, [r0, -r2]
    1380:	0001a63a 	andeq	sl, r1, sl, lsr r6
    1384:	4d0b2000 	stcmi	0, cr2, [fp, #-0]
    1388:	07000000 	streq	r0, [r0, -r0]
    138c:	0001a13f 	andeq	sl, r1, pc, lsr r1
    1390:	1a0b2400 	bne	2ca398 <__bss_end__+0x2bfd60>
    1394:	07000002 	streq	r0, [r0, -r2]
    1398:	00002c42 	andeq	r2, r0, r2, asr #24
    139c:	f50b2800 			; <UNDEFINED> instruction: 0xf50b2800
    13a0:	07000000 	streq	r0, [r0, -r0]
    13a4:	00002c43 	andeq	r2, r0, r3, asr #24
    13a8:	610b2c00 	tstvs	fp, r0, lsl #24
    13ac:	07000001 	streq	r0, [r0, -r1]
    13b0:	00002c46 	andeq	r2, r0, r6, asr #24
    13b4:	4b0b3000 	blmi	2cd3bc <__bss_end__+0x2c2d84>
    13b8:	07000002 	streq	r0, [r0, -r2]
    13bc:	0001a648 	andeq	sl, r1, r8, asr #12
    13c0:	06003400 	streq	r3, [r0], -r0, lsl #8
    13c4:	00017404 	andeq	r7, r1, r4, lsl #8
    13c8:	80080d00 	andhi	r0, r8, r0, lsl #26
    13cc:	09000001 	stmdbeq	r0, {r0}
    13d0:	00000180 	andeq	r0, r0, r0, lsl #3
    13d4:	bd040600 	stclt	6, cr0, [r4, #-0]
    13d8:	06000000 	streq	r0, [r0], -r0
    13dc:	00017504 	andeq	r7, r1, r4, lsl #10
    13e0:	00250e00 	eoreq	r0, r5, r0, lsl #28
    13e4:	019b0000 	orrseq	r0, fp, r0
    13e8:	80090000 	andhi	r0, r9, r0
    13ec:	00000001 	andeq	r0, r0, r1
    13f0:	018c0406 	orreq	r0, ip, r6, lsl #8
    13f4:	2c0f0000 	stccs	0, cr0, [pc], {-0}
    13f8:	0f000000 	svceq	0x00000000
    13fc:	0000005d 	andeq	r0, r0, sp, asr r0
    1400:	00003904 	andeq	r3, r0, r4, lsl #18
    1404:	bd490700 	stcllt	7, cr0, [r9, #-0]
    1408:	10000000 	andne	r0, r0, r0
    140c:	00000369 	andeq	r0, r0, r9, ror #6
    1410:	005da602 	subseq	sl, sp, r2, lsl #12
    1414:	d2030000 	andle	r0, r3, #0
    1418:	11000001 	tstne	r0, r1
    141c:	00746572 	rsbseq	r6, r4, r2, ror r5
    1420:	005da602 	subseq	sl, sp, r2, lsl #12
    1424:	10000000 	andne	r0, r0, r0
    1428:	000002b2 			; <UNDEFINED> instruction: 0x000002b2
    142c:	002ca902 	eoreq	sl, ip, r2, lsl #18
    1430:	ec030000 	stc	0, cr0, [r3], {-0}
    1434:	11000001 	tstne	r0, r1
    1438:	aa020072 	bge	81608 <__bss_end__+0x76fd0>
    143c:	0000002c 	andeq	r0, r0, ip, lsr #32
    1440:	023b1000 	eorseq	r1, fp, #0
    1444:	07050000 	streq	r0, [r5, -r0]
    1448:	00000025 	andeq	r0, r0, r5, lsr #32
    144c:	00020803 	andeq	r0, r2, r3, lsl #16
    1450:	01f41200 	mvnseq	r1, r0, lsl #4
    1454:	07050000 	streq	r0, [r5, -r0]
    1458:	0000002c 	andeq	r0, r0, ip, lsr #32
    145c:	02511000 	subseq	r1, r1, #0
    1460:	26030000 	strcs	r0, [r3], -r0
    1464:	0000005d 	andeq	r0, r0, sp, asr r0
    1468:	00022403 	andeq	r2, r2, r3, lsl #8
    146c:	02461300 	subeq	r1, r6, #0, 6
    1470:	27030000 	strcs	r0, [r3, -r0]
    1474:	0000005d 	andeq	r0, r0, sp, asr r0
    1478:	04551400 	ldrbeq	r1, [r5], #-1024	; 0x400
    147c:	0b010000 	bleq	41484 <__bss_end__+0x36e4c>
    1480:	00008714 	andeq	r8, r0, r4, lsl r7
    1484:	000001ac 	andeq	r0, r0, ip, lsr #3
    1488:	04659c01 	strbteq	r9, [r5], #-3073	; 0xc01
    148c:	01150000 	tsteq	r5, r0
    1490:	01000005 	tsteq	r0, r5
    1494:	0000b70b 	andeq	fp, r0, fp, lsl #14
    1498:	0004cd00 	andeq	ip, r4, r0, lsl #26
    149c:	63701600 	cmnvs	r0, #0, 12
    14a0:	5d0b0100 	stfpls	f0, [fp, #-0]
    14a4:	ee000000 	cdp	0, 0, cr0, cr0, cr0, {0}
    14a8:	15000004 	strne	r0, [r0, #-4]
    14ac:	00000229 	andeq	r0, r0, r9, lsr #4
    14b0:	005d0b01 	subseq	r0, sp, r1, lsl #22
    14b4:	051a0000 	ldreq	r0, [sl, #-0]
    14b8:	54170000 	ldrpl	r0, [r7], #-0
    14bc:	75000001 	strvc	r0, [r0, #-1]
    14c0:	05000004 	streq	r0, [r0, #-4]
    14c4:	009fb803 	addseq	fp, pc, r3, lsl #16
    14c8:	00631800 	rsbeq	r1, r3, r0, lsl #16
    14cc:	047a1001 	ldrbteq	r1, [sl], #-1
    14d0:	053b0000 	ldreq	r0, [fp, #-0]!
    14d4:	d2190000 	andsle	r0, r9, #0
    14d8:	48000001 	stmdami	r0, {r0}
    14dc:	08000087 	stmdaeq	r0, {r0, r1, r2, r7}
    14e0:	01000000 	mrseq	r0, (UNDEF: 0)
    14e4:	0002c70d 	andeq	ip, r2, sp, lsl #14
    14e8:	87481a00 	strbhi	r1, [r8, -r0, lsl #20]
    14ec:	00080000 	andeq	r0, r8, r0
    14f0:	e21b0000 	ands	r0, fp, #0
    14f4:	1c000001 	stcne	0, cr0, [r0], {1}
    14f8:	000001b6 			; <UNDEFINED> instruction: 0x000001b6
    14fc:	00008748 	andeq	r8, r0, r8, asr #14
    1500:	00000004 	andeq	r0, r0, r4
    1504:	481aaa02 	ldmdami	sl, {r1, r9, fp, sp, pc}
    1508:	04000087 	streq	r0, [r0], #-135	; 0x87
    150c:	1d000000 	stcne	0, cr0, [r0, #-0]
    1510:	000001c6 	andeq	r0, r0, r6, asr #3
    1514:	0000054e 	andeq	r0, r0, lr, asr #10
    1518:	00000000 	andeq	r0, r0, r0
    151c:	0087481e 	addeq	r4, r7, lr, lsl r8
    1520:	000df900 	andeq	pc, sp, r0, lsl #18
    1524:	0002fc00 	andeq	pc, r2, r0, lsl #24
    1528:	53011f00 	movwpl	r1, #7936	; 0x1f00
    152c:	011f3c01 	tsteq	pc, r1, lsl #24
    1530:	b8030552 	stmdalt	r3, {r1, r4, r6, r8, sl}
    1534:	1f00009f 	svcne	0x0000009f
    1538:	03055101 	movweq	r5, #20737	; 0x5101
    153c:	00009d38 	andeq	r9, r0, r8, lsr sp
    1540:	0550011f 	ldrbeq	r0, [r0, #-287]	; 0x11f
    1544:	009d1803 	addseq	r1, sp, r3, lsl #16
    1548:	7d021f00 	stcvc	15, cr1, [r2, #-0]
    154c:	00750200 	rsbseq	r0, r5, r0, lsl #4
    1550:	875c2000 	ldrbhi	r2, [ip, -r0]
    1554:	0e0f0000 	cdpeq	0, 0, cr0, cr15, cr0, {0}
    1558:	701e0000 	andsvc	r0, lr, r0
    155c:	f9000087 			; <UNDEFINED> instruction: 0xf9000087
    1560:	3300000d 	movwcc	r0, #13
    1564:	1f000003 	svcne	0x00000003
    1568:	3e015301 	cdpcc	3, 0, cr5, cr1, cr1, {0}
    156c:	0552011f 	ldrbeq	r0, [r2, #-287]	; 0x11f
    1570:	009fb803 	addseq	fp, pc, r3, lsl #16
    1574:	51011f00 	tstpl	r1, r0, lsl #30
    1578:	9d380305 	ldcls	3, cr0, [r8, #-20]!	; 0xffffffec
    157c:	011f0000 	tsteq	pc, r0
    1580:	24030550 	strcs	r0, [r3], #-1360	; 0x550
    1584:	0000009c 	muleq	r0, ip, r0
    1588:	00877420 	addeq	r7, r7, r0, lsr #8
    158c:	000e1600 	andeq	r1, lr, r0, lsl #12
    1590:	879c1e00 	ldrhi	r1, [ip, r0, lsl #28]
    1594:	0df90000 	ldcleq	0, cr0, [r9]
    1598:	03590000 	cmpeq	r9, #0
    159c:	011f0000 	tsteq	pc, r0
    15a0:	00750251 	rsbseq	r0, r5, r1, asr r2
    15a4:	0550011f 	ldrbeq	r0, [r0, #-287]	; 0x11f
    15a8:	009d4c03 	addseq	r4, sp, r3, lsl #24
    15ac:	a8210000 	stmdage	r1!, {}	; <UNPREDICTABLE>
    15b0:	69000087 	stmdbvs	r0, {r0, r1, r2, r7}
    15b4:	1f000003 	svcne	0x00000003
    15b8:	74025001 	strvc	r5, [r2], #-1
    15bc:	b81e0000 	ldmdalt	lr, {}	; <UNPREDICTABLE>
    15c0:	1d000087 	stcne	0, cr0, [r0, #-540]	; 0xfffffde4
    15c4:	7d00000e 	stcvc	0, cr0, [r0, #-56]	; 0xffffffc8
    15c8:	1f000003 	svcne	0x00000003
    15cc:	75025001 	strvc	r5, [r2, #-1]
    15d0:	d81e0000 	ldmdale	lr, {}	; <UNPREDICTABLE>
    15d4:	f9000087 			; <UNDEFINED> instruction: 0xf9000087
    15d8:	9400000d 	strls	r0, [r0], #-13
    15dc:	1f000003 	svcne	0x00000003
    15e0:	03055001 	movweq	r5, #20481	; 0x5001
    15e4:	00009d6c 	andeq	r9, r0, ip, ror #26
    15e8:	87fc2000 	ldrbhi	r2, [ip, r0]!
    15ec:	0e0f0000 	cdpeq	0, 0, cr0, cr15, cr0, {0}
    15f0:	181e0000 	ldmdane	lr, {}	; <UNPREDICTABLE>
    15f4:	f9000088 			; <UNDEFINED> instruction: 0xf9000088
    15f8:	d600000d 	strle	r0, [r0], -sp
    15fc:	1f000003 	svcne	0x00000003
    1600:	08025301 	stmdaeq	r2, {r0, r8, r9, ip, lr}
    1604:	52011f23 	andpl	r1, r1, #35, 30	; 0x8c
    1608:	9fb80305 	svcls	0x00b80305
    160c:	011f0000 	tsteq	pc, r0
    1610:	38030551 	stmdacc	r3, {r0, r4, r6, r8, sl}
    1614:	1f00009d 	svcne	0x0000009d
    1618:	03055001 	movweq	r5, #20481	; 0x5001
    161c:	00009a30 	andeq	r9, r0, r0, lsr sl
    1620:	007d021f 	rsbseq	r0, sp, pc, lsl r2
    1624:	9d940305 	ldcls	3, cr0, [r4, #20]
    1628:	20000000 	andcs	r0, r0, r0
    162c:	0000881c 	andeq	r8, r0, ip, lsl r8
    1630:	00000e16 	andeq	r0, r0, r6, lsl lr
    1634:	0088501e 	addeq	r5, r8, lr, lsl r0
    1638:	000df900 	andeq	pc, sp, r0, lsl #18
    163c:	00041500 	andeq	r1, r4, r0, lsl #10
    1640:	53011f00 	movwpl	r1, #7936	; 0x1f00
    1644:	1f260802 	svcne	0x00260802
    1648:	03055201 	movweq	r5, #20993	; 0x5201
    164c:	00009fb8 			; <UNDEFINED> instruction: 0x00009fb8
    1650:	0551011f 	ldrbeq	r0, [r1, #-287]	; 0x11f
    1654:	009d3803 	addseq	r3, sp, r3, lsl #16
    1658:	50011f00 	andpl	r1, r1, r0, lsl #30
    165c:	9db80305 	ldcls	3, cr0, [r8, #20]!
    1660:	021f0000 	andseq	r0, pc, #0
    1664:	7502007d 	strvc	r0, [r2, #-125]	; 0x7d
    1668:	5c1e0000 	ldcpl	0, cr0, [lr], {-0}
    166c:	2e000088 	cdpcs	0, 0, cr0, cr0, cr8, {4}
    1670:	3200000e 	andcc	r0, r0, #14
    1674:	1f000004 	svcne	0x00000004
    1678:	03055101 	movweq	r5, #20737	; 0x5101
    167c:	00008714 	andeq	r8, r0, r4, lsl r7
    1680:	0250011f 	subseq	r0, r0, #-1073741817	; 0xc0000007
    1684:	22000075 	andcs	r0, r0, #117	; 0x75
    1688:	00008884 	andeq	r8, r0, r4, lsl #17
    168c:	00000df9 	strdeq	r0, [r0], -r9
    1690:	0253011f 	subseq	r0, r3, #-1073741817	; 0xc0000007
    1694:	011f2808 	tsteq	pc, r8, lsl #16
    1698:	b8030552 	stmdalt	r3, {r1, r4, r6, r8, sl}
    169c:	1f00009f 	svcne	0x0000009f
    16a0:	03055101 	movweq	r5, #20737	; 0x5101
    16a4:	00009d38 	andeq	r9, r0, r8, lsr sp
    16a8:	0550011f 	ldrbeq	r0, [r0, #-287]	; 0x11f
    16ac:	009de003 	addseq	lr, sp, r3
    16b0:	7d021f00 	stcvc	15, cr1, [r2, #-0]
    16b4:	00750200 	rsbseq	r0, r5, r0, lsl #4
    16b8:	7f230000 	svcvc	0x00230000
    16bc:	75000000 	strvc	r0, [r0, #-0]
    16c0:	24000004 	strcs	r0, [r0], #-4
    16c4:	00000076 	andeq	r0, r0, r6, ror r0
    16c8:	65070013 	strvs	r0, [r7, #-19]
    16cc:	06000004 	streq	r0, [r0], -r4
    16d0:	0001ab04 	andeq	sl, r1, r4, lsl #22
    16d4:	04d41000 	ldrbeq	r1, [r4], #0
    16d8:	14050000 	strne	r0, [r5], #-0
    16dc:	0000005d 	andeq	r0, r0, sp, asr r0
    16e0:	0004b403 	andeq	fp, r4, r3, lsl #8
    16e4:	02461200 	subeq	r1, r6, #0, 4
    16e8:	14050000 	strne	r0, [r5], #-0
    16ec:	0000005d 	andeq	r0, r0, sp, asr r0
    16f0:	0001f412 	andeq	pc, r1, r2, lsl r4	; <UNPREDICTABLE>
    16f4:	2c140500 	cfldr32cs	mvfx0, [r4], {-0}
    16f8:	25000000 	strcs	r0, [r0, #-0]
    16fc:	00000154 	andeq	r0, r0, r4, asr r1
    1700:	000004c4 	andeq	r0, r0, r4, asr #9
    1704:	000004d4 	ldrdeq	r0, [r0], -r4
    1708:	007f2300 	rsbseq	r2, pc, r0, lsl #6
    170c:	04c40000 	strbeq	r0, [r4], #0
    1710:	76240000 	strtvc	r0, [r4], -r0
    1714:	08000000 	stmdaeq	r0, {}	; <UNPREDICTABLE>
    1718:	04b40700 	ldrteq	r0, [r4], #1792	; 0x700
    171c:	b0100000 	andslt	r0, r0, r0
    1720:	04000004 	streq	r0, [r0], #-4
    1724:	00005d25 	andeq	r5, r0, r5, lsr #26
    1728:	05180300 	ldreq	r0, [r8, #-768]	; 0x300
    172c:	78260000 	stmdavc	r6!, {}	; <UNPREDICTABLE>
    1730:	5d250400 	cfstrspl	mvf0, [r5, #-0]
    1734:	26000000 	strcs	r0, [r0], -r0
    1738:	0400626c 	streq	r6, [r0], #-620	; 0x26c
    173c:	00002c25 	andeq	r2, r0, r5, lsr #24
    1740:	62752600 	rsbsvs	r2, r5, #0, 12
    1744:	2c250400 	cfstrscs	mvf0, [r5], #-0
    1748:	25000000 	strcs	r0, [r0, #-0]
    174c:	00000154 	andeq	r0, r0, r4, asr r1
    1750:	00000518 	andeq	r0, r0, r8, lsl r5
    1754:	000004b0 			; <UNDEFINED> instruction: 0x000004b0
    1758:	04006e11 	streq	r6, [r0], #-3601	; 0xe11
    175c:	00002c28 	andeq	r2, r0, r8, lsr #24
    1760:	04ab1300 	strteq	r1, [fp], #768	; 0x300
    1764:	2a040000 	bcs	10176c <__bss_end__+0xf7134>
    1768:	0000002c 	andeq	r0, r0, ip, lsr #32
    176c:	04b40700 	ldrteq	r0, [r4], #1792	; 0x700
    1770:	cb100000 	blgt	401778 <__bss_end__+0x3f7140>
    1774:	05000004 	streq	r0, [r0, #-4]
    1778:	00008618 	andeq	r8, r0, r8, lsl r6
    177c:	05460300 	strbeq	r0, [r6, #-768]	; 0x300
    1780:	46120000 	ldrmi	r0, [r2], -r0
    1784:	05000002 	streq	r0, [r0, #-2]
    1788:	00005d18 	andeq	r5, r0, r8, lsl sp
    178c:	01542500 	cmpeq	r4, r0, lsl #10
    1790:	05460000 	strbeq	r0, [r6, #-0]
    1794:	04cb0000 	strbeq	r0, [fp], #0
    1798:	07000000 	streq	r0, [r0, -r0]
    179c:	000004b4 			; <UNDEFINED> instruction: 0x000004b4
    17a0:	00000010 	andeq	r0, r0, r0, lsl r0
    17a4:	5d0f0500 	cfstr32pl	mvfx0, [pc, #-0]	; 17ac <__code_start__-0x6854>
    17a8:	03000000 	movweq	r0, #0
    17ac:	0000057f 	andeq	r0, r0, pc, ror r5
    17b0:	00024612 	andeq	r4, r2, r2, lsl r6
    17b4:	5d0f0500 	cfstr32pl	mvfx0, [pc, #-0]	; 17bc <__code_start__-0x6844>
    17b8:	13000000 	movwne	r0, #0
    17bc:	000001f4 	strdeq	r0, [r0], -r4
    17c0:	002c1005 	eoreq	r1, ip, r5
    17c4:	54250000 	strtpl	r0, [r5], #-0
    17c8:	7f000001 	svcvc	0x00000001
    17cc:	00000005 	andeq	r0, r0, r5
    17d0:	00000000 	andeq	r0, r0, r0
    17d4:	0004b407 	andeq	fp, r4, r7, lsl #8
    17d8:	00181000 	andseq	r1, r8, r0
    17dc:	1c040000 	stcne	0, cr0, [r4], {-0}
    17e0:	0000005d 	andeq	r0, r0, sp, asr r0
    17e4:	0005c803 	andeq	ip, r5, r3, lsl #16
    17e8:	00782600 	rsbseq	r2, r8, r0, lsl #12
    17ec:	005d1c04 	subseq	r1, sp, r4, lsl #24
    17f0:	6c260000 	stcvs	0, cr0, [r6], #-0
    17f4:	1c040062 	stcne	0, cr0, [r4], {98}	; 0x62
    17f8:	0000002c 	andeq	r0, r0, ip, lsr #32
    17fc:	00627526 	rsbeq	r7, r2, r6, lsr #10
    1800:	002c1c04 	eoreq	r1, ip, r4, lsl #24
    1804:	54250000 	strtpl	r0, [r5], #-0
    1808:	c8000001 	stmdagt	r0, {r0}
    180c:	18000005 	stmdane	r0, {r0, r2}
    1810:	11000000 	mrsne	r0, (UNDEF: 0)
    1814:	1f04006e 	svcne	0x0004006e
    1818:	0000002c 	andeq	r0, r0, ip, lsr #32
    181c:	04b40700 	ldrteq	r0, [r4], #1792	; 0x700
    1820:	b9270000 	stmdblt	r7!, {}	; <UNPREDICTABLE>
    1824:	01000004 	tsteq	r0, r4
    1828:	00002c2b 	andeq	r2, r0, fp, lsr #24
    182c:	0088c000 	addeq	ip, r8, r0
    1830:	0004e000 	andeq	lr, r4, r0
    1834:	e09c0100 	adds	r0, ip, r0, lsl #2
    1838:	1600000c 	strne	r0, [r0], -ip
    183c:	2b010063 	blcs	419d0 <__bss_end__+0x37398>
    1840:	0000047a 	andeq	r0, r0, sl, ror r4
    1844:	00000561 	andeq	r0, r0, r1, ror #10
    1848:	0004ee28 	andeq	lr, r4, r8, lsr #28
    184c:	5d2c0100 	stfpls	f0, [ip, #-0]
    1850:	01000000 	mrseq	r0, (UNDEF: 0)
    1854:	04f71358 	ldrbteq	r1, [r7], #856	; 0x358
    1858:	2d010000 	stccs	0, cr0, [r1, #-0]
    185c:	0000005d 	andeq	r0, r0, sp, asr r0
    1860:	00015417 	andeq	r5, r1, r7, lsl r4
    1864:	000cf000 	andeq	pc, ip, r0
    1868:	a4030500 	strge	r0, [r3], #-1280	; 0x500
    186c:	1900009f 	stmdbne	r0, {r0, r1, r2, r3, r4, r7}
    1870:	00000208 	andeq	r0, r0, r8, lsl #4
    1874:	000088cc 	andeq	r8, r0, ip, asr #17
    1878:	00000004 	andeq	r0, r0, r4
    187c:	06412c01 	strbeq	r2, [r1], -r1, lsl #24
    1880:	cc1a0000 	ldcgt	0, cr0, [sl], {-0}
    1884:	04000088 	streq	r0, [r0], #-136	; 0x88
    1888:	1d000000 	stcne	0, cr0, [r0, #-0]
    188c:	00000218 	andeq	r0, r0, r8, lsl r2
    1890:	0000058d 	andeq	r0, r0, sp, lsl #11
    1894:	80190000 	andshi	r0, r9, r0
    1898:	d0000004 	andle	r0, r0, r4
    189c:	08000088 	stmdaeq	r0, {r3, r7}
    18a0:	01000000 	mrseq	r0, (UNDEF: 0)
    18a4:	0006bf2d 	andeq	fp, r6, sp, lsr #30
    18a8:	049b2900 	ldreq	r2, [fp], #2304	; 0x900
    18ac:	2a100000 	bcs	4018b4 <__bss_end__+0x3f727c>
    18b0:	00000490 	muleq	r0, r0, r4
    18b4:	0000058d 	andeq	r0, r0, sp, lsl #11
    18b8:	0088d01a 	addeq	sp, r8, sl, lsl r0
    18bc:	00000800 	andeq	r0, r0, r0, lsl #16
    18c0:	04a62b00 	strteq	r2, [r6], #2816	; 0xb00
    18c4:	03050000 	movweq	r0, #20480	; 0x5000
    18c8:	00009fcc 	andeq	r9, r0, ip, asr #31
    18cc:	0004c91c 	andeq	ip, r4, ip, lsl r9
    18d0:	0088d000 	addeq	sp, r8, r0
    18d4:	00000400 	andeq	r0, r0, r0, lsl #8
    18d8:	29160500 	ldmdbcs	r6, {r8, sl}
    18dc:	000004ec 	andeq	r0, r0, ip, ror #9
    18e0:	04e22904 	strbteq	r2, [r2], #2308	; 0x904
    18e4:	2a000000 	bcs	18ec <__code_start__-0x6714>
    18e8:	000004d9 	ldrdeq	r0, [r0], -r9
    18ec:	0000058d 	andeq	r0, r0, sp, lsl #11
    18f0:	0088d01a 	addeq	sp, r8, sl, lsl r0
    18f4:	00000400 	andeq	r0, r0, r0, lsl #8
    18f8:	05032c00 	streq	r2, [r3, #-3072]	; 0xc00
    18fc:	2c050000 	stccs	0, cr0, [r5], {-0}
    1900:	0000050c 	andeq	r0, r0, ip, lsl #10
    1904:	04f62b1f 	ldrbteq	r2, [r6], #2847	; 0xb1f
    1908:	03050000 	movweq	r0, #20480	; 0x5000
    190c:	00009fd8 	ldrdeq	r9, [r0], -r8
    1910:	00000000 	andeq	r0, r0, r0
    1914:	00051d19 	andeq	r1, r5, r9, lsl sp
    1918:	0089d400 	addeq	sp, r9, r0, lsl #8
    191c:	00011000 	andeq	r1, r1, r0
    1920:	17530100 	ldrbne	r0, [r3, -r0, lsl #2]
    1924:	2a000008 	bcs	194c <__code_start__-0x66b4>
    1928:	0000052d 	andeq	r0, r0, sp, lsr #10
    192c:	000005a0 	andeq	r0, r0, r0, lsr #11
    1930:	0089d41a 	addeq	sp, r9, sl, lsl r4
    1934:	00011000 	andeq	r1, r1, r0
    1938:	05382b00 	ldreq	r2, [r8, #-2816]!	; 0xb00
    193c:	03050000 	movweq	r0, #20480	; 0x5000
    1940:	00009fe4 	andeq	r9, r0, r4, ror #31
    1944:	00054b19 	andeq	r4, r5, r9, lsl fp
    1948:	0089d400 	addeq	sp, r9, r0, lsl #8
    194c:	00006c00 	andeq	r6, r0, r0, lsl #24
    1950:	cd190500 	cfldr32gt	mvfx0, [r9, #-0]
    1954:	2a000007 	bcs	1978 <__code_start__-0x6688>
    1958:	0000055b 	andeq	r0, r0, fp, asr r5
    195c:	000005a0 	andeq	r0, r0, r0, lsr #11
    1960:	0089d41a 	addeq	sp, r9, sl, lsl r4
    1964:	00006c00 	andeq	r6, r0, r0, lsl #24
    1968:	05661b00 	strbeq	r1, [r6, #-2816]!	; 0xb00
    196c:	712b0000 	teqvc	fp, r0
    1970:	05000005 	streq	r0, [r0, #-5]
    1974:	009ff003 	addseq	pc, pc, r3
    1978:	05841900 	streq	r1, [r4, #2304]	; 0x900
    197c:	89d40000 	ldmibhi	r4, {}^	; <UNPREDICTABLE>
    1980:	00040000 	andeq	r0, r4, r0
    1984:	10050000 	andne	r0, r5, r0
    1988:	00000768 	andeq	r0, r0, r8, ror #14
    198c:	0005a729 	andeq	sl, r5, r9, lsr #14
    1990:	9d290400 	cfstrsls	mvf0, [r9, #-0]
    1994:	00000005 	andeq	r0, r0, r5
    1998:	0005942a 	andeq	r9, r5, sl, lsr #8
    199c:	0005a000 	andeq	sl, r5, r0
    19a0:	89d41a00 	ldmibhi	r4, {r9, fp, ip}^
    19a4:	00040000 	andeq	r0, r4, r0
    19a8:	be2c0000 	cdplt	0, 2, cr0, cr12, cr0, {0}
    19ac:	05000005 	streq	r0, [r0, #-5]
    19b0:	0005b12b 	andeq	fp, r5, fp, lsr #2
    19b4:	fc030500 	stc2	5, cr0, [r3], {-0}
    19b8:	0000009f 	muleq	r0, pc, r0	; <UNPREDICTABLE>
    19bc:	01ec1900 	mvneq	r1, r0, lsl #18
    19c0:	89d80000 	ldmibhi	r8, {}^	; <UNPREDICTABLE>
    19c4:	003c0000 	eorseq	r0, ip, r0
    19c8:	11050000 	mrsne	r0, (UNDEF: 5)
    19cc:	00000781 	andeq	r0, r0, r1, lsl #15
    19d0:	0001fc2d 	andeq	pc, r1, sp, lsr #24
    19d4:	20200000 	eorcs	r0, r0, r0
    19d8:	0f00008a 	svceq	0x0000008a
    19dc:	1e00000e 	cdpne	0, 0, cr0, cr0, cr14, {0}
    19e0:	00008a3c 	andeq	r8, r0, ip, lsr sl
    19e4:	00000df9 	strdeq	r0, [r0], -r9
    19e8:	000007c2 	andeq	r0, r0, r2, asr #15
    19ec:	0153011f 	cmpeq	r3, pc, lsl r1
    19f0:	52011f41 	andpl	r1, r1, #260	; 0x104
    19f4:	9ff00305 	svcls	0x00f00305
    19f8:	011f0000 	tsteq	pc, r0
    19fc:	14030551 	strne	r0, [r3], #-1361	; 0x551
    1a00:	1f00009f 	svcne	0x0000009f
    1a04:	03055001 	movweq	r5, #20481	; 0x5001
    1a08:	00009a30 	andeq	r9, r0, r0, lsr sl
    1a0c:	007d021f 	rsbseq	r0, sp, pc, lsl r2
    1a10:	9a540305 	bls	150262c <__bss_end__+0x14f7ff4>
    1a14:	20000000 	andcs	r0, r0, r0
    1a18:	00008a40 	andeq	r8, r0, r0, asr #20
    1a1c:	00000e16 	andeq	r0, r0, r6, lsl lr
    1a20:	bc200000 	stclt	0, cr0, [r0], #-0
    1a24:	0f00008a 	svceq	0x0000008a
    1a28:	1e00000e 	cdpne	0, 0, cr0, cr0, cr14, {0}
    1a2c:	00008ad4 	ldrdeq	r8, [r0], -r4
    1a30:	00000df9 	strdeq	r0, [r0], -r9
    1a34:	0000080c 	andeq	r0, r0, ip, lsl #16
    1a38:	0253011f 	subseq	r0, r3, #-1073741817	; 0xc0000007
    1a3c:	011f2108 	tsteq	pc, r8, lsl #2
    1a40:	e4030552 	str	r0, [r3], #-1362	; 0x552
    1a44:	1f00009f 	svcne	0x0000009f
    1a48:	03055101 	movweq	r5, #20737	; 0x5101
    1a4c:	00009f14 	andeq	r9, r0, r4, lsl pc
    1a50:	0550011f 	ldrbeq	r0, [r0, #-287]	; 0x11f
    1a54:	009f2003 	addseq	r2, pc, r3
    1a58:	7d021f00 	stcvc	15, cr1, [r2, #-0]
    1a5c:	00780200 	rsbseq	r0, r8, r0, lsl #4
    1a60:	8ad82000 	bhi	ff609a68 <__bss_end__+0xff5ff430>
    1a64:	0e160000 	cdpeq	0, 1, cr0, cr6, cr0, {0}
    1a68:	00000000 	andeq	r0, r0, r0
    1a6c:	00020819 	andeq	r0, r2, r9, lsl r8
    1a70:	008af000 	addeq	pc, sl, r0
    1a74:	00000400 	andeq	r0, r0, r0, lsl #8
    1a78:	3e540100 	rdfccs	f0, f4, f0
    1a7c:	1a000008 	bne	1aa4 <__code_start__-0x655c>
    1a80:	00008af0 	strdeq	r8, [r0], -r0
    1a84:	00000004 	andeq	r0, r0, r4
    1a88:	0002181d 	andeq	r1, r2, sp, lsl r8
    1a8c:	0005b300 	andeq	fp, r5, r0, lsl #6
    1a90:	19000000 	stmdbne	r0, {}	; <UNPREDICTABLE>
    1a94:	0000051d 	andeq	r0, r0, sp, lsl r5
    1a98:	00008af4 	strdeq	r8, [r0], -r4
    1a9c:	00000110 	andeq	r0, r0, r0, lsl r1
    1aa0:	09965401 	ldmibeq	r6, {r0, sl, ip, lr}
    1aa4:	2d2a0000 	stccs	0, cr0, [sl, #-0]
    1aa8:	b3000005 	movwlt	r0, #5
    1aac:	1a000005 	bne	1ac8 <__code_start__-0x6538>
    1ab0:	00008af4 	strdeq	r8, [r0], -r4
    1ab4:	00000110 	andeq	r0, r0, r0, lsl r1
    1ab8:	0005382b 	andeq	r3, r5, fp, lsr #16
    1abc:	e4030500 	str	r0, [r3], #-1280	; 0x500
    1ac0:	1900009f 	stmdbne	r0, {r0, r1, r2, r3, r4, r7}
    1ac4:	0000054b 	andeq	r0, r0, fp, asr #10
    1ac8:	00008af4 	strdeq	r8, [r0], -r4
    1acc:	0000006c 	andeq	r0, r0, ip, rrx
    1ad0:	094c1905 	stmdbeq	ip, {r0, r2, r8, fp, ip}^
    1ad4:	5b2a0000 	blpl	a81adc <__bss_end__+0xa774a4>
    1ad8:	b3000005 	movwlt	r0, #5
    1adc:	1a000005 	bne	1af8 <__code_start__-0x6508>
    1ae0:	00008af4 	strdeq	r8, [r0], -r4
    1ae4:	0000006c 	andeq	r0, r0, ip, rrx
    1ae8:	0005661b 	andeq	r6, r5, fp, lsl r6
    1aec:	05712b00 	ldrbeq	r2, [r1, #-2816]!	; 0xb00
    1af0:	03050000 	movweq	r0, #20480	; 0x5000
    1af4:	00009ff0 	strdeq	r9, [r0], -r0
    1af8:	00058419 	andeq	r8, r5, r9, lsl r4
    1afc:	008af400 	addeq	pc, sl, r0, lsl #8
    1b00:	00000400 	andeq	r0, r0, r0, lsl #8
    1b04:	e7100500 	ldr	r0, [r0, -r0, lsl #10]
    1b08:	29000008 	stmdbcs	r0, {r3}
    1b0c:	000005a7 	andeq	r0, r0, r7, lsr #11
    1b10:	059d2904 	ldreq	r2, [sp, #2308]	; 0x904
    1b14:	2a000000 	bcs	1b1c <__code_start__-0x64e4>
    1b18:	00000594 	muleq	r0, r4, r5
    1b1c:	000005b3 			; <UNDEFINED> instruction: 0x000005b3
    1b20:	008af41a 	addeq	pc, sl, sl, lsl r4	; <UNPREDICTABLE>
    1b24:	00000400 	andeq	r0, r0, r0, lsl #8
    1b28:	05be2c00 	ldreq	r2, [lr, #3072]!	; 0xc00
    1b2c:	2b050000 	blcs	141b34 <__bss_end__+0x1374fc>
    1b30:	000005b1 			; <UNDEFINED> instruction: 0x000005b1
    1b34:	9ffc0305 	svcls	0x00fc0305
    1b38:	00000000 	andeq	r0, r0, r0
    1b3c:	0001ec19 	andeq	lr, r1, r9, lsl ip
    1b40:	008af800 	addeq	pc, sl, r0, lsl #16
    1b44:	00003c00 	andeq	r3, r0, r0, lsl #24
    1b48:	00110500 	andseq	r0, r1, r0, lsl #10
    1b4c:	2d000009 	stccs	0, cr0, [r0, #-36]	; 0xffffffdc
    1b50:	000001fc 	strdeq	r0, [r0], -ip
    1b54:	8b402000 	blhi	1009b5c <__bss_end__+0xfff524>
    1b58:	0e0f0000 	cdpeq	0, 0, cr0, cr15, cr0, {0}
    1b5c:	5c1e0000 	ldcpl	0, cr0, [lr], {-0}
    1b60:	f900008b 			; <UNDEFINED> instruction: 0xf900008b
    1b64:	4100000d 	tstmi	r0, sp
    1b68:	1f000009 	svcne	0x00000009
    1b6c:	41015301 	tstmi	r1, r1, lsl #6
    1b70:	0552011f 	ldrbeq	r0, [r2, #-287]	; 0x11f
    1b74:	009ff003 	addseq	pc, pc, r3
    1b78:	51011f00 	tstpl	r1, r0, lsl #30
    1b7c:	9f140305 	svcls	0x00140305
    1b80:	011f0000 	tsteq	pc, r0
    1b84:	30030550 	andcc	r0, r3, r0, asr r5
    1b88:	1f00009a 	svcne	0x0000009a
    1b8c:	05007d02 	streq	r7, [r0, #-3330]	; 0xd02
    1b90:	009a5403 	addseq	r5, sl, r3, lsl #8
    1b94:	60200000 	eorvs	r0, r0, r0
    1b98:	1600008b 	strne	r0, [r0], -fp, lsl #1
    1b9c:	0000000e 	andeq	r0, r0, lr
    1ba0:	8bdc2000 	blhi	ff709ba8 <__bss_end__+0xff6ff570>
    1ba4:	0e0f0000 	cdpeq	0, 0, cr0, cr15, cr0, {0}
    1ba8:	f41e0000 			; <UNDEFINED> instruction: 0xf41e0000
    1bac:	f900008b 			; <UNDEFINED> instruction: 0xf900008b
    1bb0:	8b00000d 	blhi	1bec <__code_start__-0x6414>
    1bb4:	1f000009 	svcne	0x00000009
    1bb8:	08025301 	stmdaeq	r2, {r0, r8, r9, ip, lr}
    1bbc:	52011f21 	andpl	r1, r1, #33, 30	; 0x84
    1bc0:	9fe40305 	svcls	0x00e40305
    1bc4:	011f0000 	tsteq	pc, r0
    1bc8:	14030551 	strne	r0, [r3], #-1361	; 0x551
    1bcc:	1f00009f 	svcne	0x0000009f
    1bd0:	03055001 	movweq	r5, #20481	; 0x5001
    1bd4:	00009f20 	andeq	r9, r0, r0, lsr #30
    1bd8:	007d021f 	rsbseq	r0, sp, pc, lsl r2
    1bdc:	00007502 	andeq	r7, r0, r2, lsl #10
    1be0:	008bf820 	addeq	pc, fp, r0, lsr #16
    1be4:	000e1600 	andeq	r1, lr, r0, lsl #12
    1be8:	19000000 	stmdbne	r0, {}	; <UNPREDICTABLE>
    1bec:	00000208 	andeq	r0, r0, r8, lsl #4
    1bf0:	00008c04 	andeq	r8, r0, r4, lsl #24
    1bf4:	00000004 	andeq	r0, r0, r4
    1bf8:	09b95401 	ldmibeq	r9!, {r0, sl, ip, lr}
    1bfc:	041a0000 	ldreq	r0, [sl], #-0
    1c00:	0400008c 	streq	r0, [r0], #-140	; 0x8c
    1c04:	1b000000 	blne	1c0c <__code_start__-0x63f4>
    1c08:	00000218 	andeq	r0, r0, r8, lsl r2
    1c0c:	4b190000 	blmi	641c14 <__bss_end__+0x6375dc>
    1c10:	18000005 	stmdane	r0, {r0, r2}
    1c14:	6c00008c 	stcvs	0, cr0, [r0], {140}	; 0x8c
    1c18:	01000000 	mrseq	r0, (UNDEF: 0)
    1c1c:	000a9758 	andeq	r9, sl, r8, asr r7
    1c20:	055b2a00 	ldrbeq	r2, [fp, #-2560]	; 0xa00
    1c24:	05c60000 	strbeq	r0, [r6]
    1c28:	181a0000 	ldmdane	sl, {}	; <UNPREDICTABLE>
    1c2c:	6c00008c 	stcvs	0, cr0, [r0], {140}	; 0x8c
    1c30:	1b000000 	blne	1c38 <__code_start__-0x63c8>
    1c34:	00000566 	andeq	r0, r0, r6, ror #10
    1c38:	0005712b 	andeq	r7, r5, fp, lsr #2
    1c3c:	f0030500 			; <UNDEFINED> instruction: 0xf0030500
    1c40:	1900009f 	stmdbne	r0, {r0, r1, r2, r3, r4, r7}
    1c44:	00000584 	andeq	r0, r0, r4, lsl #11
    1c48:	00008c18 	andeq	r8, r0, r8, lsl ip
    1c4c:	00000004 	andeq	r0, r0, r4
    1c50:	0a321005 	beq	c85c6c <__bss_end__+0xc7b634>
    1c54:	a7290000 	strge	r0, [r9, -r0]!
    1c58:	04000005 	streq	r0, [r0], #-5
    1c5c:	00059d29 	andeq	r9, r5, r9, lsr #26
    1c60:	942a0000 	strtls	r0, [sl], #-0
    1c64:	c6000005 	strgt	r0, [r0], -r5
    1c68:	1a000005 	bne	1c84 <__code_start__-0x637c>
    1c6c:	00008c18 	andeq	r8, r0, r8, lsl ip
    1c70:	00000004 	andeq	r0, r0, r4
    1c74:	0005be2c 	andeq	fp, r5, ip, lsr #28
    1c78:	b12b0500 	teqlt	fp, r0, lsl #10
    1c7c:	05000005 	streq	r0, [r0, #-5]
    1c80:	009ffc03 	addseq	pc, pc, r3, lsl #24
    1c84:	19000000 	stmdbne	r0, {}	; <UNPREDICTABLE>
    1c88:	000001ec 	andeq	r0, r0, ip, ror #3
    1c8c:	00008c1c 	andeq	r8, r0, ip, lsl ip
    1c90:	0000003c 	andeq	r0, r0, ip, lsr r0
    1c94:	0a4b1105 	beq	12c60b0 <__bss_end__+0x12bba78>
    1c98:	fc2d0000 	stc2	0, cr0, [sp], #-0
    1c9c:	00000001 	andeq	r0, r0, r1
    1ca0:	008c6420 	addeq	r6, ip, r0, lsr #8
    1ca4:	000e0f00 	andeq	r0, lr, r0, lsl #30
    1ca8:	8c801e00 	stchi	14, cr1, [r0], {0}
    1cac:	0df90000 	ldcleq	0, cr0, [r9]
    1cb0:	0a8c0000 	beq	fe301cb8 <__bss_end__+0xfe2f7680>
    1cb4:	011f0000 	tsteq	pc, r0
    1cb8:	1f410153 	svcne	0x00410153
    1cbc:	03055201 	movweq	r5, #20993	; 0x5201
    1cc0:	00009ff0 	strdeq	r9, [r0], -r0
    1cc4:	0551011f 	ldrbeq	r0, [r1, #-287]	; 0x11f
    1cc8:	009f1403 	addseq	r1, pc, r3, lsl #8
    1ccc:	50011f00 	andpl	r1, r1, r0, lsl #30
    1cd0:	9a300305 	bls	c028ec <__bss_end__+0xbf82b4>
    1cd4:	021f0000 	andseq	r0, pc, #0
    1cd8:	0305007d 	movweq	r0, #20605	; 0x507d
    1cdc:	00009a54 	andeq	r9, r0, r4, asr sl
    1ce0:	8c842000 	stchi	0, cr2, [r4], {0}
    1ce4:	0e160000 	cdpeq	0, 1, cr0, cr6, cr0, {0}
    1ce8:	00000000 	andeq	r0, r0, r0
    1cec:	00020819 	andeq	r0, r2, r9, lsl r8
    1cf0:	008c8400 	addeq	r8, ip, r0, lsl #8
    1cf4:	00000400 	andeq	r0, r0, r0, lsl #8
    1cf8:	be580100 	rdflte	f0, f0, f0
    1cfc:	1a00000a 	bne	1d2c <__code_start__-0x62d4>
    1d00:	00008c84 	andeq	r8, r0, r4, lsl #25
    1d04:	00000004 	andeq	r0, r0, r4
    1d08:	0002181d 	andeq	r1, r2, sp, lsl r8
    1d0c:	0005d900 	andeq	sp, r5, r0, lsl #18
    1d10:	19000000 	stmdbne	r0, {}	; <UNPREDICTABLE>
    1d14:	0000054b 	andeq	r0, r0, fp, asr #10
    1d18:	00008c88 	andeq	r8, r0, r8, lsl #25
    1d1c:	0000006c 	andeq	r0, r0, ip, rrx
    1d20:	0b9c5801 	bleq	fe717d2c <__bss_end__+0xfe70d6f4>
    1d24:	5b2a0000 	blpl	a81d2c <__bss_end__+0xa776f4>
    1d28:	d9000005 	stmdble	r0, {r0, r2}
    1d2c:	1a000005 	bne	1d48 <__code_start__-0x62b8>
    1d30:	00008c88 	andeq	r8, r0, r8, lsl #25
    1d34:	0000006c 	andeq	r0, r0, ip, rrx
    1d38:	0005661b 	andeq	r6, r5, fp, lsl r6
    1d3c:	05712b00 	ldrbeq	r2, [r1, #-2816]!	; 0xb00
    1d40:	03050000 	movweq	r0, #20480	; 0x5000
    1d44:	00009ff0 	strdeq	r9, [r0], -r0
    1d48:	00058419 	andeq	r8, r5, r9, lsl r4
    1d4c:	008c8800 	addeq	r8, ip, r0, lsl #16
    1d50:	00000400 	andeq	r0, r0, r0, lsl #8
    1d54:	37100500 	ldrcc	r0, [r0, -r0, lsl #10]
    1d58:	2900000b 	stmdbcs	r0, {r0, r1, r3}
    1d5c:	000005a7 	andeq	r0, r0, r7, lsr #11
    1d60:	059d2904 	ldreq	r2, [sp, #2308]	; 0x904
    1d64:	2a000000 	bcs	1d6c <__code_start__-0x6294>
    1d68:	00000594 	muleq	r0, r4, r5
    1d6c:	000005d9 	ldrdeq	r0, [r0], -r9
    1d70:	008c881a 	addeq	r8, ip, sl, lsl r8
    1d74:	00000400 	andeq	r0, r0, r0, lsl #8
    1d78:	05be2c00 	ldreq	r2, [lr, #3072]!	; 0xc00
    1d7c:	2b050000 	blcs	141d84 <__bss_end__+0x13774c>
    1d80:	000005b1 			; <UNDEFINED> instruction: 0x000005b1
    1d84:	9ffc0305 	svcls	0x00fc0305
    1d88:	00000000 	andeq	r0, r0, r0
    1d8c:	0001ec19 	andeq	lr, r1, r9, lsl ip
    1d90:	008c8c00 	addeq	r8, ip, r0, lsl #24
    1d94:	00003c00 	andeq	r3, r0, r0, lsl #24
    1d98:	50110500 	andspl	r0, r1, r0, lsl #10
    1d9c:	2d00000b 	stccs	0, cr0, [r0, #-44]	; 0xffffffd4
    1da0:	000001fc 	strdeq	r0, [r0], -ip
    1da4:	8cd42000 	ldclhi	0, cr2, [r4], {0}
    1da8:	0e0f0000 	cdpeq	0, 0, cr0, cr15, cr0, {0}
    1dac:	f01e0000 			; <UNDEFINED> instruction: 0xf01e0000
    1db0:	f900008c 			; <UNDEFINED> instruction: 0xf900008c
    1db4:	9100000d 	tstls	r0, sp
    1db8:	1f00000b 	svcne	0x0000000b
    1dbc:	41015301 	tstmi	r1, r1, lsl #6
    1dc0:	0552011f 	ldrbeq	r0, [r2, #-287]	; 0x11f
    1dc4:	009ff003 	addseq	pc, pc, r3
    1dc8:	51011f00 	tstpl	r1, r0, lsl #30
    1dcc:	9f140305 	svcls	0x00140305
    1dd0:	011f0000 	tsteq	pc, r0
    1dd4:	30030550 	andcc	r0, r3, r0, asr r5
    1dd8:	1f00009a 	svcne	0x0000009a
    1ddc:	05007d02 	streq	r7, [r0, #-3330]	; 0xd02
    1de0:	009a5403 	addseq	r5, sl, r3, lsl #8
    1de4:	f4200000 	vld4.8	{d0-d3}, [r0], r0
    1de8:	1600008c 	strne	r0, [r0], -ip, lsl #1
    1dec:	0000000e 	andeq	r0, r0, lr
    1df0:	89082100 	stmdbhi	r8, {r8, sp}
    1df4:	0bac0000 	bleq	feb01dfc <__bss_end__+0xfeaf77c4>
    1df8:	011f0000 	tsteq	pc, r0
    1dfc:	00740250 	rsbseq	r0, r4, r0, asr r2
    1e00:	89301e00 	ldmdbhi	r0!, {r9, sl, fp, ip}
    1e04:	0df90000 	ldcleq	0, cr0, [r9]
    1e08:	0bd20000 	bleq	ff481e10 <__bss_end__+0xff4777d8>
    1e0c:	011f0000 	tsteq	pc, r0
    1e10:	34080253 	strcc	r0, [r8], #-595	; 0x253
    1e14:	0252011f 	subseq	r0, r2, #-1073741817	; 0xc0000007
    1e18:	011f0079 	tsteq	pc, r9, ror r0	; <UNPREDICTABLE>
    1e1c:	007a0251 	rsbseq	r0, sl, r1, asr r2
    1e20:	0250011f 	subseq	r0, r0, #-1073741817	; 0xc0000007
    1e24:	1e00007b 	mcrne	0, 0, r0, cr0, cr11, {3}
    1e28:	0000893c 	andeq	r8, r0, ip, lsr r9
    1e2c:	00000e2e 	andeq	r0, r0, lr, lsr #28
    1e30:	00000beb 	andeq	r0, r0, fp, ror #23
    1e34:	0251011f 	subseq	r0, r1, #-1073741817	; 0xc0000007
    1e38:	011f0075 	tsteq	pc, r5, ror r0	; <UNPREDICTABLE>
    1e3c:	00300150 	eorseq	r0, r0, r0, asr r1
    1e40:	0089641e 	addeq	r6, r9, lr, lsl r4
    1e44:	000e4400 	andeq	r4, lr, r0, lsl #8
    1e48:	000c0500 	andeq	r0, ip, r0, lsl #10
    1e4c:	52011f00 	andpl	r1, r1, #0, 30
    1e50:	1f007402 	svcne	0x00007402
    1e54:	77025001 	strvc	r5, [r2, -r1]
    1e58:	7c210000 	stcvc	0, cr0, [r1], #-0
    1e5c:	15000089 	strne	r0, [r0, #-137]	; 0x89
    1e60:	1f00000c 	svcne	0x0000000c
    1e64:	74025001 	strvc	r5, [r2], #-1
    1e68:	88210000 	stmdahi	r1!, {}	; <UNPREDICTABLE>
    1e6c:	25000089 	strcs	r0, [r0, #-137]	; 0x89
    1e70:	1f00000c 	svcne	0x0000000c
    1e74:	74025001 	strvc	r5, [r2], #-1
    1e78:	a01e0000 	andsge	r0, lr, r0
    1e7c:	f9000089 			; <UNDEFINED> instruction: 0xf9000089
    1e80:	3c00000d 	stccc	0, cr0, [r0], {13}
    1e84:	1f00000c 	svcne	0x0000000c
    1e88:	03055001 	movweq	r5, #20481	; 0x5001
    1e8c:	00009e98 	muleq	r0, r8, lr
    1e90:	89d41e00 	ldmibhi	r4, {r9, sl, fp, ip}^
    1e94:	0df90000 	ldcleq	0, cr0, [r9]
    1e98:	0c530000 	mraeq	r0, r3, acc0
    1e9c:	011f0000 	tsteq	pc, r0
    1ea0:	e0030550 	and	r0, r3, r0, asr r5
    1ea4:	0000009e 	muleq	r0, lr, r0
    1ea8:	008af01e 	addeq	pc, sl, lr, lsl r0	; <UNPREDICTABLE>
    1eac:	000df900 	andeq	pc, sp, r0, lsl #18
    1eb0:	000c7000 	andeq	r7, ip, r0
    1eb4:	52011f00 	andpl	r1, r1, #0, 30
    1eb8:	1f007802 	svcne	0x00007802
    1ebc:	03055001 	movweq	r5, #20481	; 0x5001
    1ec0:	00009f44 	andeq	r9, r0, r4, asr #30
    1ec4:	8c101e00 	ldchi	14, cr1, [r0], {-0}
    1ec8:	0df90000 	ldcleq	0, cr0, [r9]
    1ecc:	0c870000 	stceq	0, cr0, [r7], {0}
    1ed0:	011f0000 	tsteq	pc, r0
    1ed4:	60030550 	andvs	r0, r3, r0, asr r5
    1ed8:	0000009f 	muleq	r0, pc, r0	; <UNPREDICTABLE>
    1edc:	008c181e 	addeq	r1, ip, lr, lsl r8
    1ee0:	000e1d00 	andeq	r1, lr, r0, lsl #26
    1ee4:	000c9a00 	andeq	r9, ip, r0, lsl #20
    1ee8:	50011f00 	andpl	r1, r1, r0, lsl #30
    1eec:	20003001 	andcs	r3, r0, r1
    1ef0:	00008d00 	andeq	r8, r0, r0, lsl #26
    1ef4:	00000e0f 	andeq	r0, r0, pc, lsl #28
    1ef8:	008d1c1e 	addeq	r1, sp, lr, lsl ip
    1efc:	000df900 	andeq	pc, sp, r0, lsl #18
    1f00:	000cd600 	andeq	sp, ip, r0, lsl #12
    1f04:	53011f00 	movwpl	r1, #7936	; 0x1f00
    1f08:	1f580802 	svcne	0x00580802
    1f0c:	79025201 	stmdbvc	r2, {r0, r9, ip, lr}
    1f10:	51011f00 	tstpl	r1, r0, lsl #30
    1f14:	1f007a02 	svcne	0x00007a02
    1f18:	03055001 	movweq	r5, #20481	; 0x5001
    1f1c:	00009a30 	andeq	r9, r0, r0, lsr sl
    1f20:	007d021f 	rsbseq	r0, sp, pc, lsl r2
    1f24:	9f780305 	svcls	0x00780305
    1f28:	20000000 	andcs	r0, r0, r0
    1f2c:	00008d20 	andeq	r8, r0, r0, lsr #26
    1f30:	00000e16 	andeq	r0, r0, r6, lsl lr
    1f34:	007f2300 	rsbseq	r2, pc, r0, lsl #6
    1f38:	0cf00000 	ldcleq	0, cr0, [r0]
    1f3c:	76240000 	strtvc	r0, [r4], -r0
    1f40:	11000000 	mrsne	r0, (UNDEF: 0)
    1f44:	0ce00700 	stcleq	7, cr0, [r0]
    1f48:	dd270000 	stcle	0, cr0, [r7, #-0]
    1f4c:	01000004 	tsteq	r0, r4
    1f50:	00002c64 	andeq	r2, r0, r4, ror #24
    1f54:	008da000 	addeq	sl, sp, r0
    1f58:	00000800 	andeq	r0, r0, r0, lsl #16
    1f5c:	2e9c0100 	fmlcse	f0, f4, f0
    1f60:	1600000d 	strne	r0, [r0], -sp
    1f64:	64010063 	strvs	r0, [r1], #-99	; 0x63
    1f68:	0000047a 	andeq	r0, r0, sl, ror r4
    1f6c:	000005ec 	andeq	r0, r0, ip, ror #11
    1f70:	01006911 	tsteq	r0, r1, lsl r9
    1f74:	00002c68 	andeq	r2, r0, r8, ror #24
    1f78:	01542e00 	cmpeq	r4, r0, lsl #28
    1f7c:	0d3e0000 	ldceq	0, cr0, [lr, #-0]
    1f80:	23000000 	movwcs	r0, #0
    1f84:	0000007f 	andeq	r0, r0, pc, ror r0
    1f88:	00000d3e 	andeq	r0, r0, lr, lsr sp
    1f8c:	00007624 	andeq	r7, r0, r4, lsr #12
    1f90:	07001000 	streq	r1, [r0, -r0]
    1f94:	00000d2e 	andeq	r0, r0, lr, lsr #26
    1f98:	00046914 	andeq	r6, r4, r4, lsl r9
    1f9c:	a87e0100 	ldmdage	lr!, {r8}^
    1fa0:	2800008d 	stmdacs	r0, {r0, r2, r3, r7}
    1fa4:	01000000 	mrseq	r0, (UNDEF: 0)
    1fa8:	000d649c 	muleq	sp, ip, r4
    1fac:	00632f00 	rsbeq	r2, r3, r0, lsl #30
    1fb0:	047a7e01 	ldrbteq	r7, [sl], #-3585	; 0xe01
    1fb4:	50010000 	andpl	r0, r1, r0
    1fb8:	005c3000 	subseq	r3, ip, r0
    1fbc:	89010000 	stmdbhi	r1, {}	; <UNPREDICTABLE>
    1fc0:	00000025 	andeq	r0, r0, r5, lsr #32
    1fc4:	00008dd0 	ldrdeq	r8, [r0], -r0
    1fc8:	0000004c 	andeq	r0, r0, ip, asr #32
    1fcc:	0dcc9c01 	stcleq	12, cr9, [ip, #4]
    1fd0:	63160000 	tstvs	r6, #0
    1fd4:	7a890100 	bvc	fe2423dc <__bss_end__+0xfe237da4>
    1fd8:	0d000004 	stceq	0, cr0, [r0, #-16]
    1fdc:	20000006 	andcs	r0, r0, r6
    1fe0:	00008ddc 	ldrdeq	r8, [r0], -ip
    1fe4:	00000e70 	andeq	r0, r0, r0, ror lr
    1fe8:	008de41e 	addeq	lr, sp, lr, lsl r4
    1fec:	000d4300 	andeq	r4, sp, r0, lsl #6
    1ff0:	000da700 	andeq	sl, sp, r0, lsl #14
    1ff4:	50011f00 	andpl	r1, r1, r0, lsl #30
    1ff8:	00007402 	andeq	r7, r0, r2, lsl #8
    1ffc:	008dec1e 	addeq	lr, sp, lr, lsl ip
    2000:	000cf500 	andeq	pc, ip, r0, lsl #10
    2004:	000dbb00 	andeq	fp, sp, r0, lsl #22
    2008:	50011f00 	andpl	r1, r1, r0, lsl #30
    200c:	00007402 	andeq	r7, r0, r2, lsl #8
    2010:	008dfc22 	addeq	pc, sp, r2, lsr #24
    2014:	0005cd00 	andeq	ip, r5, r0, lsl #26
    2018:	50011f00 	andpl	r1, r1, r0, lsl #30
    201c:	00007402 	andeq	r7, r0, r2, lsl #8
    2020:	00102800 	andseq	r2, r0, r0, lsl #16
    2024:	06010000 	streq	r0, [r1], -r0
    2028:	0000047a 	andeq	r0, r0, sl, ror r4
    202c:	a22c0305 	eorge	r0, ip, #335544320	; 0x14000000
    2030:	9b280000 	blls	a02038 <__bss_end__+0x9f7a00>
    2034:	01000004 	tsteq	r0, r4
    2038:	00007d08 	andeq	r7, r0, r8, lsl #26
    203c:	30030500 	andcc	r0, r3, r0, lsl #10
    2040:	310000a2 	smlatbcc	r0, r2, r0, r0
    2044:	0000013d 	andeq	r0, r0, sp, lsr r1
    2048:	0025c202 	eoreq	ip, r5, r2, lsl #4
    204c:	7d320000 	ldcvc	0, cr0, [r2, #-0]
    2050:	08000005 	stmdaeq	r0, {r0, r2}
    2054:	00002529 	andeq	r2, r0, r9, lsr #10
    2058:	000e0f00 	andeq	r0, lr, r0, lsl #30
    205c:	00860900 	addeq	r0, r6, r0, lsl #18
    2060:	00330000 	eorseq	r0, r3, r0
    2064:	00025a34 	andeq	r5, r2, r4, lsr sl
    2068:	341e0800 	ldrcc	r0, [lr], #-2048	; 0x800
    206c:	0000011c 	andeq	r0, r0, ip, lsl r1
    2070:	83356508 	teqhi	r5, #8, 10	; 0x2000000
    2074:	02000003 	andeq	r0, r0, #3
    2078:	000e2ee3 	andeq	r2, lr, r3, ror #29
    207c:	005d0900 	subseq	r0, sp, r0, lsl #18
    2080:	35000000 	strcc	r0, [r0, #-0]
    2084:	00000343 	andeq	r0, r0, r3, asr #6
    2088:	0e44d902 	cdpeq	9, 4, cr13, cr4, cr2, {0}
    208c:	5d090000 	stcpl	0, cr0, [r9, #-0]
    2090:	09000000 	stmdbeq	r0, {}	; <UNPREDICTABLE>
    2094:	00000091 	muleq	r0, r1, r0
    2098:	04873500 	streq	r3, [r7], #1280	; 0x500
    209c:	f3020000 	vhadd.u8	d0, d2, d0
    20a0:	00000e5f 	andeq	r0, r0, pc, asr lr
    20a4:	00005d09 	andeq	r5, r0, r9, lsl #26
    20a8:	0e5f0900 	cdpeq	9, 5, cr0, cr15, cr0, {0}
    20ac:	7d090000 	stcvc	0, cr0, [r9, #-0]
    20b0:	00000000 	andeq	r0, r0, r0
    20b4:	0e650406 	cdpeq	4, 6, cr0, cr5, cr6, {0}
    20b8:	70080000 	andvc	r0, r8, r0
    20bc:	0900000e 	stmdbeq	r0, {r1, r2, r3}
    20c0:	0000007d 	andeq	r0, r0, sp, ror r0
    20c4:	03cc3400 	biceq	r3, ip, #0, 8
    20c8:	90020000 	andls	r0, r2, r0
    20cc:	00019100 	andeq	r9, r1, r0, lsl #2
    20d0:	b3000400 	movwlt	r0, #1024	; 0x400
    20d4:	04000007 	streq	r0, [r0], #-7
    20d8:	00052301 	andeq	r2, r5, r1, lsl #6
    20dc:	05150100 	ldreq	r0, [r5, #-256]	; 0x100
    20e0:	058e0000 	streq	r0, [lr]
    20e4:	8e1c0000 	cdphi	0, 1, cr0, cr12, cr0, {0}
    20e8:	00580000 	subseq	r0, r8, r0
    20ec:	05ff0000 	ldrbeq	r0, [pc, #0]!	; 20f4 <__code_start__-0x5f0c>
    20f0:	06020000 	streq	r0, [r2], -r0
    20f4:	02000005 	andeq	r0, r0, #5
    20f8:	00003028 	andeq	r3, r0, r8, lsr #32
    20fc:	05840300 	streq	r0, [r4, #768]	; 0x300
    2100:	03040000 	movweq	r0, #16384	; 0x4000
    2104:	00004700 	andeq	r4, r0, r0, lsl #14
    2108:	05d40400 	ldrbeq	r0, [r4, #1024]	; 0x400
    210c:	00470000 	subeq	r0, r7, r0
    2110:	00000000 	andeq	r0, r0, r0
    2114:	86020405 	strhi	r0, [r2], -r5, lsl #8
    2118:	02000005 	andeq	r0, r0, #5
    211c:	00002562 	andeq	r2, r0, r2, ror #10
    2120:	05040600 	streq	r0, [r4, #-1536]	; 0x600
    2124:	00746e69 	rsbseq	r6, r4, r9, ror #28
    2128:	e7070407 	str	r0, [r7, -r7, lsl #8]
    212c:	07000001 	streq	r0, [r0, -r1]
    2130:	01100601 	tsteq	r0, r1, lsl #12
    2134:	02070000 	andeq	r0, r7, #0
    2138:	00004305 	andeq	r4, r0, r5, lsl #6
    213c:	05040700 	streq	r0, [r4, #-1792]	; 0x700
    2140:	00000211 	andeq	r0, r0, r1, lsl r2
    2144:	0c050807 	stceq	8, cr0, [r5], {7}
    2148:	07000002 	streq	r0, [r0, -r2]
    214c:	010e0801 	tsteq	lr, r1, lsl #16
    2150:	02070000 	andeq	r0, r7, #0
    2154:	00002107 	andeq	r2, r0, r7, lsl #2
    2158:	07040700 	streq	r0, [r4, -r0, lsl #14]
    215c:	000001e2 	andeq	r0, r0, r2, ror #3
    2160:	dd070807 	stcle	8, cr0, [r7, #-28]	; 0xffffffe4
    2164:	07000001 	streq	r0, [r0, -r1]
    2168:	02030704 	andeq	r0, r3, #4, 14	; 0x100000
    216c:	04080000 	streq	r0, [r8], #-0
    2170:	000000a7 	andeq	r0, r0, r7, lsr #1
    2174:	17080107 	strne	r0, [r8, -r7, lsl #2]
    2178:	08000001 	stmdaeq	r0, {r0}
    217c:	0000b404 	andeq	fp, r0, r4, lsl #8
    2180:	00a70900 	adceq	r0, r7, r0, lsl #18
    2184:	7d0a0000 	stcvc	0, cr0, [sl, #-0]
    2188:	01000005 	tsteq	r0, r5
    218c:	00005406 	andeq	r5, r0, r6, lsl #8
    2190:	008e1c00 	addeq	r1, lr, r0, lsl #24
    2194:	00005800 	andeq	r5, r0, r0, lsl #16
    2198:	439c0100 	orrsmi	r0, ip, #0, 2
    219c:	0b000001 	bleq	21a8 <__code_start__-0x5e58>
    21a0:	00746d66 	rsbseq	r6, r4, r6, ror #26
    21a4:	00ae0601 	adceq	r0, lr, r1, lsl #12
    21a8:	91020000 	mrsls	r0, (UNDEF: 2)
    21ac:	620d0c70 	andvs	r0, sp, #112, 24	; 0x7000
    21b0:	01006675 	tsteq	r0, r5, ror r6
    21b4:	00014308 	andeq	r4, r1, r8, lsl #6
    21b8:	34030500 	strcc	r0, [r3], #-1280	; 0x500
    21bc:	0e0000a2 	cdpeq	0, 0, cr0, cr0, cr2, {5}
    21c0:	00000a90 	muleq	r0, r0, sl
    21c4:	00490901 	subeq	r0, r9, r1, lsl #18
    21c8:	91020000 	mrsls	r0, (UNDEF: 2)
    21cc:	7a730f5c 	bvc	1cc5f44 <__bss_end__+0x1cbb90c>
    21d0:	540c0100 	strpl	r0, [ip], #-256	; 0x100
    21d4:	2b000000 	blcs	21dc <__code_start__-0x5e24>
    21d8:	10000006 	andne	r0, r0, r6
    21dc:	00008e44 	andeq	r8, r0, r4, asr #28
    21e0:	00000174 	andeq	r0, r0, r4, ror r1
    21e4:	00000136 	andeq	r0, r0, r6, lsr r1
    21e8:	02530111 	subseq	r0, r3, #1073741828	; 0x40000004
    21ec:	01114c91 			; <UNDEFINED> instruction: 0x01114c91
    21f0:	48910352 	ldmmi	r1, {r1, r4, r6, r8, r9}
    21f4:	51011106 	tstpl	r1, r6, lsl #2
    21f8:	04000a03 	streq	r0, [r0], #-2563	; 0xa03
    21fc:	02500111 	subseq	r0, r0, #1073741828	; 0x40000004
    2200:	12000074 	andne	r0, r0, #116	; 0x74
    2204:	00008e58 	andeq	r8, r0, r8, asr lr
    2208:	02500111 	subseq	r0, r0, #1073741828	; 0x40000004
    220c:	00000074 	andeq	r0, r0, r4, ror r0
    2210:	0000a713 	andeq	sl, r0, r3, lsl r7
    2214:	00015400 	andeq	r5, r1, r0, lsl #8
    2218:	009a1400 	addseq	r1, sl, r0, lsl #8
    221c:	03ff0000 	mvnseq	r0, #0
    2220:	00541500 	subseq	r1, r4, r0, lsl #10
    2224:	01630000 	cmneq	r3, r0
    2228:	ae160000 	cdpge	0, 1, cr0, cr6, cr0, {0}
    222c:	00000000 	andeq	r0, r0, r0
    2230:	00063117 	andeq	r3, r6, r7, lsl r1
    2234:	6e220400 	cdpvs	4, 2, cr0, cr2, cr0, {0}
    2238:	08000001 	stmdaeq	r0, {r0}
    223c:	00015404 	andeq	r5, r1, r4, lsl #8
    2240:	057a1800 	ldrbeq	r1, [sl, #-2048]!	; 0x800
    2244:	02050000 	andeq	r0, r5, #0
    2248:	00000054 	andeq	r0, r0, r4, asr r0
    224c:	0000a116 	andeq	sl, r0, r6, lsl r1
    2250:	00541600 	subseq	r1, r4, r0, lsl #12
    2254:	ae160000 	cdpge	0, 1, cr0, cr6, cr0, {0}
    2258:	16000000 	strne	r0, [r0], -r0
    225c:	00000049 	andeq	r0, r0, r9, asr #32
    2260:	01130000 	tsteq	r3, r0
    2264:	00040000 	andeq	r0, r4, r0
    2268:	000008e4 	andeq	r0, r0, r4, ror #17
    226c:	05230104 	streq	r0, [r3, #-260]!	; 0x104
    2270:	00010000 	andeq	r0, r1, r0
    2274:	8e000006 	cdphi	0, 0, cr0, cr0, cr6, {0}
    2278:	74000005 	strvc	r0, [r0], #-5
    227c:	3c00008e 	stccc	0, cr0, [r0], {142}	; 0x8e
    2280:	0f000000 	svceq	0x00000000
    2284:	02000007 	andeq	r0, r0, #7
    2288:	6e690504 	cdpvs	5, 6, cr0, cr9, cr4, {0}
    228c:	04030074 	streq	r0, [r3], #-116	; 0x74
    2290:	0001e707 	andeq	lr, r1, r7, lsl #14
    2294:	06010300 	streq	r0, [r1], -r0, lsl #6
    2298:	00000110 	andeq	r0, r0, r0, lsl r1
    229c:	43050203 	movwmi	r0, #20995	; 0x5203
    22a0:	03000000 	movweq	r0, #0
    22a4:	02110504 	andseq	r0, r1, #4, 10	; 0x1000000
    22a8:	08030000 	stmdaeq	r3, {}	; <UNPREDICTABLE>
    22ac:	00020c05 	andeq	r0, r2, r5, lsl #24
    22b0:	08010300 	stmdaeq	r1, {r8, r9}
    22b4:	0000010e 	andeq	r0, r0, lr, lsl #2
    22b8:	21070203 	tstcs	r7, r3, lsl #4
    22bc:	03000000 	movweq	r0, #0
    22c0:	01e20704 	mvneq	r0, r4, lsl #14
    22c4:	08030000 	stmdaeq	r3, {}	; <UNPREDICTABLE>
    22c8:	0001dd07 	andeq	sp, r1, r7, lsl #26
    22cc:	07040300 	streq	r0, [r4, -r0, lsl #6]
    22d0:	00000203 	andeq	r0, r0, r3, lsl #4
    22d4:	17080103 	strne	r0, [r8, -r3, lsl #2]
    22d8:	04000001 	streq	r0, [r0], #-1
    22dc:	000005e3 	andeq	r0, r0, r3, ror #11
    22e0:	00250301 	eoreq	r0, r5, r1, lsl #6
    22e4:	8e740000 	cdphi	0, 7, cr0, cr4, cr0, {0}
    22e8:	00140000 	andseq	r0, r4, r0
    22ec:	9c010000 	stcls	0, cr0, [r1], {-0}
    22f0:	000000b0 	strheq	r0, [r0], -r0	; <UNPREDICTABLE>
    22f4:	01006305 	tsteq	r0, r5, lsl #6
    22f8:	00002503 	andeq	r2, r0, r3, lsl #10
    22fc:	00065400 	andeq	r5, r6, r0, lsl #8
    2300:	8e800600 	cdphi	6, 8, cr0, cr0, cr0, {0}
    2304:	01090000 	mrseq	r0, (UNDEF: 9)
    2308:	01070000 	mrseq	r0, (UNDEF: 7)
    230c:	00740250 	rsbseq	r0, r4, r0, asr r2
    2310:	5a080000 	bpl	202318 <__bss_end__+0x1f7ce0>
    2314:	01000002 	tsteq	r0, r2
    2318:	008e8808 	addeq	r8, lr, r8, lsl #16
    231c:	00001800 	andeq	r1, r0, r0, lsl #16
    2320:	099c0100 	ldmibeq	ip, {r8}
    2324:	0000060f 	andeq	r0, r0, pc, lsl #12
    2328:	8ea00b01 	vfmahi.f64	d0, d0, d1
    232c:	00100000 	andseq	r0, r0, r0
    2330:	9c010000 	stcls	0, cr0, [r1], {-0}
    2334:	000000e3 	andeq	r0, r0, r3, ror #1
    2338:	0070660a 	rsbseq	r6, r0, sl, lsl #12
    233c:	00f20b01 	rscseq	r0, r2, r1, lsl #22
    2340:	50010000 	andpl	r0, r1, r0
    2344:	00250b00 	eoreq	r0, r5, r0, lsl #22
    2348:	00f20000 	rscseq	r0, r2, r0
    234c:	250c0000 	strcs	r0, [ip, #-0]
    2350:	00000000 	andeq	r0, r0, r0
    2354:	00e3040d 	rsceq	r0, r3, sp, lsl #8
    2358:	f40e0000 	vst4.8	{d0-d3}, [lr], r0
    235c:	01000005 	tsteq	r0, r5
    2360:	0000f206 	andeq	pc, r0, r6, lsl #4
    2364:	28030500 	stmdacs	r3, {r8, sl}
    2368:	0f00009a 	svceq	0x0000009a
    236c:	000005d9 	ldrdeq	r0, [r0], -r9
    2370:	2c0c3c02 	stccs	12, cr3, [ip], {2}
    2374:	00000000 	andeq	r0, r0, r0
    2378:	0000ee00 	andeq	lr, r0, r0, lsl #28
    237c:	cc000400 	cfstrsgt	mvf0, [r0], {-0}
    2380:	04000009 	streq	r0, [r0], #-9
    2384:	00052301 	andeq	r2, r5, r1, lsl #6
    2388:	061c0100 	ldreq	r0, [ip], -r0, lsl #2
    238c:	058e0000 	streq	r0, [lr]
    2390:	8eb00000 	cdphi	0, 11, cr0, cr0, cr0, {0}
    2394:	00340000 	eorseq	r0, r4, r0
    2398:	07a70000 	streq	r0, [r7, r0]!
    239c:	04020000 	streq	r0, [r2], #-0
    23a0:	746e6905 	strbtvc	r6, [lr], #-2309	; 0x905
    23a4:	07040300 	streq	r0, [r4, -r0, lsl #6]
    23a8:	000001e7 	andeq	r0, r0, r7, ror #3
    23ac:	10060103 	andne	r0, r6, r3, lsl #2
    23b0:	03000001 	movweq	r0, #1
    23b4:	00430502 	subeq	r0, r3, r2, lsl #10
    23b8:	04030000 	streq	r0, [r3], #-0
    23bc:	00021105 	andeq	r1, r2, r5, lsl #2
    23c0:	05080300 	streq	r0, [r8, #-768]	; 0x300
    23c4:	0000020c 	andeq	r0, r0, ip, lsl #4
    23c8:	0e080103 	adfeqe	f0, f0, f3
    23cc:	03000001 	movweq	r0, #1
    23d0:	00210702 	eoreq	r0, r1, r2, lsl #14
    23d4:	04030000 	streq	r0, [r3], #-0
    23d8:	0001e207 	andeq	lr, r1, r7, lsl #4
    23dc:	07080300 	streq	r0, [r8, -r0, lsl #6]
    23e0:	000001dd 	ldrdeq	r0, [r0], -sp
    23e4:	03070403 	movweq	r0, #29699	; 0x7403
    23e8:	03000002 	movweq	r0, #2
    23ec:	01170801 	tsteq	r7, r1, lsl #16
    23f0:	04040000 	streq	r0, [r4], #-0
    23f4:	0000007f 	andeq	r0, r0, pc, ror r0
    23f8:	00007205 	andeq	r7, r0, r5, lsl #4
    23fc:	06280600 	strteq	r0, [r8], -r0, lsl #12
    2400:	04010000 	streq	r0, [r1], #-0
    2404:	00000025 	andeq	r0, r0, r5, lsr #32
    2408:	00008eb0 			; <UNDEFINED> instruction: 0x00008eb0
    240c:	00000034 	andeq	r0, r0, r4, lsr r0
    2410:	00ab9c01 	adceq	r9, fp, r1, lsl #24
    2414:	70070000 	andvc	r0, r7, r0
    2418:	79040100 	stmdbvc	r4, {r8}
    241c:	72000000 	andvc	r0, r0, #0
    2420:	00000006 	andeq	r0, r0, r6
    2424:	00002508 	andeq	r2, r0, r8, lsl #10
    2428:	0000ba00 	andeq	fp, r0, r0, lsl #20
    242c:	00250900 	eoreq	r0, r5, r0, lsl #18
    2430:	0a000000 	beq	2438 <__code_start__-0x5bc8>
    2434:	000005f4 	strdeq	r0, [r0], -r4
    2438:	00c51d02 	sbceq	r1, r5, r2, lsl #26
    243c:	04040000 	streq	r0, [r4], #-0
    2440:	000000ab 	andeq	r0, r0, fp, lsr #1
    2444:	00002508 	andeq	r2, r0, r8, lsl #10
    2448:	0000da00 	andeq	sp, r0, r0, lsl #20
    244c:	00790900 	rsbseq	r0, r9, r0, lsl #18
    2450:	0b000000 	bleq	2458 <__code_start__-0x5ba8>
    2454:	00000631 	andeq	r0, r0, r1, lsr r6
    2458:	00eb0c01 	rsceq	r0, fp, r1, lsl #24
    245c:	03050000 	movweq	r0, #20480	; 0x5000
    2460:	00009a2c 	andeq	r9, r0, ip, lsr #20
    2464:	00cb0404 	sbceq	r0, fp, r4, lsl #8
    2468:	e5000000 	str	r0, [r0, #-0]
    246c:	04000006 	streq	r0, [r0], #-6
    2470:	000a6500 	andeq	r6, sl, r0, lsl #10
    2474:	23010400 	movwcs	r0, #5120	; 0x1400
    2478:	01000005 	tsteq	r0, r5
    247c:	00000667 	andeq	r0, r0, r7, ror #12
    2480:	0000058e 	andeq	r0, r0, lr, lsl #11
    2484:	00008ee4 	andeq	r8, r0, r4, ror #29
    2488:	00000578 	andeq	r0, r0, r8, ror r5
    248c:	0000084b 	andeq	r0, r0, fp, asr #16
    2490:	69050402 	stmdbvs	r5, {r1, sl}
    2494:	0300746e 	movweq	r7, #1134	; 0x46e
    2498:	01e70704 	mvneq	r0, r4, lsl #14
    249c:	01030000 	mrseq	r0, (UNDEF: 3)
    24a0:	00011006 	andeq	r1, r1, r6
    24a4:	05020300 	streq	r0, [r2, #-768]	; 0x300
    24a8:	00000043 	andeq	r0, r0, r3, asr #32
    24ac:	11050403 	tstne	r5, r3, lsl #8
    24b0:	03000002 	movweq	r0, #2
    24b4:	020c0508 	andeq	r0, ip, #8, 10	; 0x2000000
    24b8:	01030000 	mrseq	r0, (UNDEF: 3)
    24bc:	00010e08 	andeq	r0, r1, r8, lsl #28
    24c0:	07020300 	streq	r0, [r2, -r0, lsl #6]
    24c4:	00000021 	andeq	r0, r0, r1, lsr #32
    24c8:	e2070403 	and	r0, r7, #50331648	; 0x3000000
    24cc:	03000001 	movweq	r0, #1
    24d0:	01dd0708 	bicseq	r0, sp, r8, lsl #14
    24d4:	04030000 	streq	r0, [r3], #-0
    24d8:	00020307 	andeq	r0, r2, r7, lsl #6
    24dc:	05040400 	streq	r0, [r4, #-1024]	; 0x400
    24e0:	00007a04 	andeq	r7, r0, r4, lsl #20
    24e4:	08010300 	stmdaeq	r1, {r8, r9}
    24e8:	00000117 	andeq	r0, r0, r7, lsl r1
    24ec:	00870405 	addeq	r0, r7, r5, lsl #8
    24f0:	7a060000 	bvc	1824f8 <__bss_end__+0x177ec0>
    24f4:	07000000 	streq	r0, [r0, -r0]
    24f8:	00000506 	andeq	r0, r0, r6, lsl #10
    24fc:	00972802 	addseq	r2, r7, r2, lsl #16
    2500:	84080000 	strhi	r0, [r8], #-0
    2504:	04000005 	streq	r0, [r0], #-5
    2508:	00ae0004 	adceq	r0, lr, r4
    250c:	d4090000 	strle	r0, [r9], #-0
    2510:	72000005 	andvc	r0, r0, #5
    2514:	00000000 	andeq	r0, r0, r0
    2518:	05860700 	streq	r0, [r6, #1792]	; 0x700
    251c:	62020000 	andvs	r0, r2, #0
    2520:	0000008c 	andeq	r0, r0, ip, lsl #1
    2524:	00064e0a 	andeq	r4, r6, sl, lsl #28
    2528:	25270100 	strcs	r0, [r7, #-256]!	; 0x100
    252c:	e4000000 	str	r0, [r0], #-0
    2530:	1400008e 	strne	r0, [r0], #-142	; 0x8e
    2534:	01000000 	mrseq	r0, (UNDEF: 0)
    2538:	0000e09c 	muleq	r0, ip, r0
    253c:	00630b00 	rsbeq	r0, r3, r0, lsl #22
    2540:	00252701 	eoreq	r2, r5, r1, lsl #14
    2544:	06900000 	ldreq	r0, [r0], r0
    2548:	0c000000 	stceq	0, cr0, [r0], {-0}
    254c:	00646170 	rsbeq	r6, r4, r0, ror r1
    2550:	00742e01 	rsbseq	r2, r4, r1, lsl #28
    2554:	8ef80000 	cdphi	0, 15, cr0, cr8, cr0, {0}
    2558:	002c0000 	eoreq	r0, ip, r0
    255c:	9c010000 	stcls	0, cr0, [r1], {-0}
    2560:	00000130 	andeq	r0, r0, r0, lsr r1
    2564:	0100700b 	tsteq	r0, fp
    2568:	0000742e 	andeq	r7, r0, lr, lsr #8
    256c:	0006be00 	andeq	fp, r6, r0, lsl #28
    2570:	0a6e0d00 	beq	1b85978 <__bss_end__+0x1b7b340>
    2574:	2e010000 	cdpcs	0, 0, cr0, cr1, cr0, {0}
    2578:	00000074 	andeq	r0, r0, r4, ror r0
    257c:	000006e9 	andeq	r0, r0, r9, ror #13
    2580:	0006870e 	andeq	r8, r6, lr, lsl #14
    2584:	252e0100 	strcs	r0, [lr, #-256]!	; 0x100
    2588:	01000000 	mrseq	r0, (UNDEF: 0)
    258c:	656c0f52 	strbvs	r0, [ip, #-3922]!	; 0xf52
    2590:	2f01006e 	svccs	0x0001006e
    2594:	00000025 	andeq	r0, r0, r5, lsr #32
    2598:	0a005101 	beq	169a4 <__bss_end__+0xc36c>
    259c:	00000646 	andeq	r0, r0, r6, asr #12
    25a0:	00743701 	rsbseq	r3, r4, r1, lsl #14
    25a4:	8f240000 	svchi	0x00240000
    25a8:	00400000 	subeq	r0, r0, r0
    25ac:	9c010000 	stcls	0, cr0, [r1], {-0}
    25b0:	0000019c 	muleq	r0, ip, r1
    25b4:	7473640b 	ldrbtvc	r6, [r3], #-1035	; 0x40b
    25b8:	74370100 	ldrtvc	r0, [r7], #-256	; 0x100
    25bc:	0a000000 	beq	25c4 <__code_start__-0x5a3c>
    25c0:	0b000007 	bleq	25e4 <__code_start__-0x5a1c>
    25c4:	3701006e 	strcc	r0, [r1, -lr, rrx]
    25c8:	00000025 	andeq	r0, r0, r5, lsr #32
    25cc:	00000742 	andeq	r0, r0, r2, asr #14
    25d0:	0100700b 	tsteq	r0, fp
    25d4:	00007437 	andeq	r7, r0, r7, lsr r4
    25d8:	00076300 	andeq	r6, r7, r0, lsl #6
    25dc:	063a0d00 	ldrteq	r0, [sl], -r0, lsl #26
    25e0:	37010000 	strcc	r0, [r1, -r0]
    25e4:	00000074 	andeq	r0, r0, r4, ror r0
    25e8:	00000799 	muleq	r0, r9, r7
    25ec:	6e656c10 	mcrvs	12, 3, r6, cr5, cr0, {0}
    25f0:	25390100 	ldrcs	r0, [r9, #-256]!	; 0x100
    25f4:	b7000000 	strlt	r0, [r0, -r0]
    25f8:	0f000007 	svceq	0x00000007
    25fc:	3d010073 	stccc	0, cr0, [r1, #-460]	; 0xfffffe34
    2600:	00000074 	andeq	r0, r0, r4, ror r0
    2604:	0a005001 	beq	16610 <__bss_end__+0xbfd8>
    2608:	00000695 	muleq	r0, r5, r6
    260c:	00744701 	rsbseq	r4, r4, r1, lsl #14
    2610:	8f640000 	svchi	0x00640000
    2614:	01bc0000 			; <UNDEFINED> instruction: 0x01bc0000
    2618:	9c010000 	stcls	0, cr0, [r1], {-0}
    261c:	000002df 	ldrdeq	r0, [r0], -pc	; <UNPREDICTABLE>
    2620:	000a6e0d 	andeq	r6, sl, sp, lsl #28
    2624:	2c470100 	stfcse	f0, [r7], {-0}
    2628:	de000000 	cdple	0, 0, cr0, cr0, cr0, {0}
    262c:	0b000007 	bleq	2650 <__code_start__-0x59b0>
    2630:	00747364 	rsbseq	r7, r4, r4, ror #6
    2634:	00744701 	rsbseq	r4, r4, r1, lsl #14
    2638:	080c0000 	stmdaeq	ip, {}	; <UNPREDICTABLE>
    263c:	6e0b0000 	cdpvs	0, 0, cr0, cr11, cr0, {0}
    2640:	25470100 	strbcs	r0, [r7, #-256]	; 0x100
    2644:	7a000000 	bvc	264c <__code_start__-0x59b4>
    2648:	0b000008 	bleq	2670 <__code_start__-0x5990>
    264c:	006c6176 	rsbeq	r6, ip, r6, ror r1
    2650:	00254701 	eoreq	r4, r5, r1, lsl #14
    2654:	08a60000 	stmiaeq	r6!, {}	; <UNPREDICTABLE>
    2658:	870d0000 	strhi	r0, [sp, -r0]
    265c:	01000006 	tsteq	r0, r6
    2660:	00002547 	andeq	r2, r0, r7, asr #10
    2664:	00092500 	andeq	r2, r9, r0, lsl #10
    2668:	065e0e00 	ldrbeq	r0, [lr], -r0, lsl #28
    266c:	47010000 	strmi	r0, [r1, -r0]
    2670:	00000025 	andeq	r0, r0, r5, lsr #32
    2674:	0f049102 	svceq	0x00049102
    2678:	00667562 	rsbeq	r7, r6, r2, ror #10
    267c:	02df4c01 	sbcseq	r4, pc, #256	; 0x100
    2680:	91030000 	mrsls	r0, (UNDEF: 3)
    2684:	70107fa8 	andsvc	r7, r0, r8, lsr #31
    2688:	744c0100 	strbvc	r0, [ip], #-256	; 0x100
    268c:	4f000000 	svcmi	0x00000000
    2690:	10000009 	andne	r0, r0, r9
    2694:	4d010075 	stcmi	0, cr0, [r1, #-468]	; 0xfffffe2c
    2698:	0000002c 	andeq	r0, r0, ip, lsr #32
    269c:	00000a39 	andeq	r0, r0, r9, lsr sl
    26a0:	00015411 	andeq	r5, r1, r1, lsl r4
    26a4:	0002ff00 	andeq	pc, r2, r0, lsl #30
    26a8:	08030500 	stmdaeq	r3, {r8, sl}
    26ac:	120000a0 	andne	r0, r0, #160	; 0xa0
    26b0:	00008fd0 	ldrdeq	r8, [r0], -r0
    26b4:	00000074 	andeq	r0, r0, r4, ror r0
    26b8:	00000261 	andeq	r0, r0, r1, ror #4
    26bc:	00064013 	andeq	r4, r6, r3, lsl r0
    26c0:	2c520100 	ldfcse	f0, [r2], {-0}
    26c4:	fc000000 	stc2	0, cr0, [r0], {-0}
    26c8:	0000000a 	andeq	r0, r0, sl
    26cc:	0090bc14 	addseq	fp, r0, r4, lsl ip
    26d0:	0006c400 	andeq	ip, r6, r0, lsl #8
    26d4:	90d81500 	sbcsls	r1, r8, r0, lsl #10
    26d8:	06cb0000 	strbeq	r0, [fp], r0
    26dc:	02a30000 	adceq	r0, r3, #0
    26e0:	01160000 	tsteq	r6, r0
    26e4:	77080253 	smlsdvc	r8, r3, r2, r0
    26e8:	05520116 	ldrbeq	r0, [r2, #-278]	; 0x116
    26ec:	00a00803 	adceq	r0, r0, r3, lsl #16
    26f0:	51011600 	tstpl	r1, r0, lsl #12
    26f4:	a02c0305 	eorge	r0, ip, r5, lsl #6
    26f8:	01160000 	tsteq	r6, r0
    26fc:	30030550 	andcc	r0, r3, r0, asr r5
    2700:	1600009a 			; <UNDEFINED> instruction: 0x1600009a
    2704:	05007d02 	streq	r7, [r0, #-3330]	; 0xd02
    2708:	00a04003 	adceq	r4, r0, r3
    270c:	dc140000 	ldcle	0, cr0, [r4], {-0}
    2710:	e1000090 	swp	r0, r0, [r0]	; <UNPREDICTABLE>
    2714:	15000006 	strne	r0, [r0, #-6]
    2718:	000090e4 	andeq	r9, r0, r4, ror #1
    271c:	000000e0 	andeq	r0, r0, r0, ror #1
    2720:	000002c1 	andeq	r0, r0, r1, asr #5
    2724:	03510116 	cmpeq	r1, #-2147483643	; 0x80000005
    2728:	007fa091 			; <UNDEFINED> instruction: 0x007fa091
    272c:	0090f817 	addseq	pc, r0, r7, lsl r8	; <UNPREDICTABLE>
    2730:	00013000 	andeq	r3, r1, r0
    2734:	53011600 	movwpl	r1, #5632	; 0x1600
    2738:	7fa09103 	svcvc	0x00a09103
    273c:	02510116 	subseq	r0, r1, #-2147483643	; 0x80000005
    2740:	01160074 	tsteq	r6, r4, ror r0
    2744:	00750250 	rsbseq	r0, r5, r0, asr r2
    2748:	7a180000 	bvc	602750 <__bss_end__+0x5f8118>
    274c:	ef000000 	svc	0x00000000
    2750:	19000002 	stmdbne	r0, {r1}
    2754:	0000006b 	andeq	r0, r0, fp, rrx
    2758:	7a18003f 	bvc	60285c <__bss_end__+0x5f8224>
    275c:	ff000000 			; <UNDEFINED> instruction: 0xff000000
    2760:	19000002 	stmdbne	r0, {r1}
    2764:	0000006b 	andeq	r0, r0, fp, rrx
    2768:	ef060004 	svc	0x00060004
    276c:	1a000002 	bne	277c <__code_start__-0x5884>
    2770:	00000678 	andeq	r0, r0, r8, ror r6
    2774:	91201f01 	teqls	r0, r1, lsl #30
    2778:	00680000 	rsbeq	r0, r8, r0
    277c:	9c010000 	stcls	0, cr0, [r1], {-0}
    2780:	00000392 	muleq	r0, r2, r3
    2784:	00068d0d 	andeq	r8, r6, sp, lsl #26
    2788:	a11f0100 	tstge	pc, r0, lsl #2
    278c:	28000003 	stmdacs	r0, {r0, r1}
    2790:	0d00000b 	stceq	0, cr0, [r0, #-44]	; 0xffffffd4
    2794:	00000656 	andeq	r0, r0, r6, asr r6
    2798:	03b61f01 			; <UNDEFINED> instruction: 0x03b61f01
    279c:	0b540000 	bleq	15027a4 <__bss_end__+0x14f816c>
    27a0:	54110000 	ldrpl	r0, [r1], #-0
    27a4:	cc000001 	stcgt	0, cr0, [r0], {1}
    27a8:	05000003 	streq	r0, [r0, #-3]
    27ac:	00a01003 	adceq	r1, r0, r3
    27b0:	91341400 	teqls	r4, r0, lsl #8
    27b4:	06c40000 	strbeq	r0, [r4], r0
    27b8:	50150000 	andspl	r0, r5, r0
    27bc:	cb000091 	blgt	2a08 <__code_start__-0x55f8>
    27c0:	88000006 	stmdahi	r0, {r1, r2}
    27c4:	16000003 	strne	r0, [r0], -r3
    27c8:	08025301 	stmdaeq	r2, {r0, r8, r9, ip, lr}
    27cc:	52011620 	andpl	r1, r1, #32, 12	; 0x2000000
    27d0:	a0100305 	andsge	r0, r0, r5, lsl #6
    27d4:	01160000 	tsteq	r6, r0
    27d8:	2c030551 	cfstr32cs	mvfx0, [r3], {81}	; 0x51
    27dc:	160000a0 	strne	r0, [r0], -r0, lsr #1
    27e0:	03055001 	movweq	r5, #20481	; 0x5001
    27e4:	00009a30 	andeq	r9, r0, r0, lsr sl
    27e8:	007d0216 	rsbseq	r0, sp, r6, lsl r2
    27ec:	a0680305 	rsbge	r0, r8, r5, lsl #6
    27f0:	14000000 	strne	r0, [r0], #-0
    27f4:	00009154 	andeq	r9, r0, r4, asr r1
    27f8:	000006e1 	andeq	r0, r0, r1, ror #13
    27fc:	00251b00 	eoreq	r1, r5, r0, lsl #22
    2800:	03a10000 			; <UNDEFINED> instruction: 0x03a10000
    2804:	251c0000 	ldrcs	r0, [ip, #-0]
    2808:	00000000 	andeq	r0, r0, r0
    280c:	03920405 	orrseq	r0, r2, #83886080	; 0x5000000
    2810:	251b0000 	ldrcs	r0, [fp, #-0]
    2814:	b6000000 	strlt	r0, [r0], -r0
    2818:	1c000003 	stcne	0, cr0, [r0], {3}
    281c:	00000081 	andeq	r0, r0, r1, lsl #1
    2820:	a7040500 	strge	r0, [r4, -r0, lsl #10]
    2824:	18000003 	stmdane	r0, {r0, r1}
    2828:	0000007a 	andeq	r0, r0, sl, ror r0
    282c:	000003cc 	andeq	r0, r0, ip, asr #7
    2830:	00006b19 	andeq	r6, r0, r9, lsl fp
    2834:	06000e00 	streq	r0, [r0], -r0, lsl #28
    2838:	000003bc 			; <UNDEFINED> instruction: 0x000003bc
    283c:	00057a1d 	andeq	r7, r5, sp, lsl sl
    2840:	257f0100 	ldrbcs	r0, [pc, #-256]!	; 2748 <__code_start__-0x58b8>
    2844:	88000000 	stmdahi	r0, {}	; <UNPREDICTABLE>
    2848:	d4000091 	strle	r0, [r0], #-145	; 0x91
    284c:	01000002 	tsteq	r0, r2
    2850:	0006899c 	muleq	r6, ip, r9
    2854:	75620b00 	strbvc	r0, [r2, #-2816]!	; 0xb00
    2858:	7f010066 	svcvc	0x00010066
    285c:	00000074 	andeq	r0, r0, r4, ror r0
    2860:	00000b80 	andeq	r0, r0, r0, lsl #23
    2864:	01006e0b 	tsteq	r0, fp, lsl #28
    2868:	0000257f 	andeq	r2, r0, pc, ror r5
    286c:	000bac00 	andeq	sl, fp, r0, lsl #24
    2870:	6d660b00 	vstmdbvs	r6!, {d16-d15}
    2874:	7f010074 	svcvc	0x00010074
    2878:	00000081 	andeq	r0, r0, r1, lsl #1
    287c:	00000bda 	ldrdeq	r0, [r0], -sl
    2880:	000a900d 	andeq	r9, sl, sp
    2884:	ae7f0100 	rpwgee	f0, f7, f0
    2888:	f8000000 			; <UNDEFINED> instruction: 0xf8000000
    288c:	1000000b 	andne	r0, r0, fp
    2890:	80010070 	andhi	r0, r1, r0, ror r0
    2894:	00000074 	andeq	r0, r0, r4, ror r0
    2898:	00000c0b 	andeq	r0, r0, fp, lsl #24
    289c:	01006510 	tsteq	r0, r0, lsl r5
    28a0:	00007480 	andeq	r7, r0, r0, lsl #9
    28a4:	000c8900 	andeq	r8, ip, r0, lsl #18
    28a8:	06361300 	ldrteq	r1, [r6], -r0, lsl #6
    28ac:	83010000 	movwhi	r0, #4096	; 0x1000
    28b0:	00000081 	andeq	r0, r0, r1, lsl #1
    28b4:	00000cb0 			; <UNDEFINED> instruction: 0x00000cb0
    28b8:	00015411 	andeq	r5, r1, r1, lsl r4
    28bc:	00069900 	andeq	r9, r6, r0, lsl #18
    28c0:	20030500 	andcs	r0, r3, r0, lsl #10
    28c4:	1e0000a0 	cdpne	0, 0, cr0, cr0, cr0, {5}
    28c8:	000091e4 	andeq	r9, r0, r4, ror #3
    28cc:	0000022c 	andeq	r0, r0, ip, lsr #4
    28d0:	01007310 	tsteq	r0, r0, lsl r3
    28d4:	0000748e 	andeq	r7, r0, lr, lsl #9
    28d8:	000cd000 	andeq	sp, ip, r0
    28dc:	756e0f00 	strbvc	r0, [lr, #-3840]!	; 0xf00
    28e0:	8e01006d 	cdphi	0, 0, cr0, cr1, cr13, {3}
    28e4:	0000069e 	muleq	r0, lr, r6
    28e8:	7ed89103 	atnvce	f1, f3
    28ec:	00068713 	andeq	r8, r6, r3, lsl r7
    28f0:	2c8f0100 	stfcss	f0, [pc], {0}
    28f4:	25000000 	strcs	r0, [r0, #-0]
    28f8:	1500000d 	strne	r0, [r0, #-13]
    28fc:	00009214 	andeq	r9, r0, r4, lsl r2
    2900:	000000b9 	strheq	r0, [r0], -r9
    2904:	000004a4 	andeq	r0, r0, r4, lsr #9
    2908:	02500116 	subseq	r0, r0, #-2147483643	; 0x80000005
    290c:	14000075 	strne	r0, [r0], #-117	; 0x75
    2910:	00009228 	andeq	r9, r0, r8, lsr #4
    2914:	000006c4 	andeq	r0, r0, r4, asr #13
    2918:	00924415 	addseq	r4, r2, r5, lsl r4
    291c:	0006cb00 	andeq	ip, r6, r0, lsl #22
    2920:	0004e600 	andeq	lr, r4, r0, lsl #12
    2924:	53011600 	movwpl	r1, #5632	; 0x1600
    2928:	16950802 	ldrne	r0, [r5], r2, lsl #16
    292c:	03055201 	movweq	r5, #20993	; 0x5201
    2930:	0000a020 	andeq	sl, r0, r0, lsr #32
    2934:	05510116 	ldrbeq	r0, [r1, #-278]	; 0x116
    2938:	00a02c03 	adceq	r2, r0, r3, lsl #24
    293c:	50011600 	andpl	r1, r1, r0, lsl #12
    2940:	9a300305 	bls	c0355c <__bss_end__+0xbf8f24>
    2944:	02160000 	andseq	r0, r6, #0
    2948:	0305007d 	movweq	r0, #20605	; 0x507d
    294c:	0000a070 	andeq	sl, r0, r0, ror r0
    2950:	92481400 	subls	r1, r8, #0, 8
    2954:	06e10000 	strbteq	r0, [r1], r0
    2958:	b8140000 	ldmdalt	r4, {}	; <UNPREDICTABLE>
    295c:	c4000092 	strgt	r0, [r0], #-146	; 0x92
    2960:	15000006 	strne	r0, [r0, #-6]
    2964:	000092cc 	andeq	r9, r0, ip, asr #5
    2968:	000006cb 	andeq	r0, r0, fp, asr #13
    296c:	00000527 	andeq	r0, r0, r7, lsr #10
    2970:	02530116 	subseq	r0, r3, #-2147483643	; 0x80000005
    2974:	01169b08 	tsteq	r6, r8, lsl #22
    2978:	20030552 	andcs	r0, r3, r2, asr r5
    297c:	160000a0 	strne	r0, [r0], -r0, lsr #1
    2980:	03055101 	movweq	r5, #20737	; 0x5101
    2984:	0000a02c 	andeq	sl, r0, ip, lsr #32
    2988:	05500116 	ldrbeq	r0, [r0, #-278]	; 0x116
    298c:	00a07c03 	adceq	r7, r0, r3, lsl #24
    2990:	d0140000 	andsle	r0, r4, r0
    2994:	e1000092 	swp	r0, r2, [r0]	; <UNPREDICTABLE>
    2998:	15000006 	strne	r0, [r0, #-6]
    299c:	000092f4 	strdeq	r9, [r0], -r4
    29a0:	0000019c 	muleq	r0, ip, r1
    29a4:	0000055d 	andeq	r0, r0, sp, asr r5
    29a8:	02520116 	subseq	r0, r2, #-2147483643	; 0x80000005
    29ac:	01168008 	tsteq	r6, r8
    29b0:	d0910351 	addsle	r0, r1, r1, asr r3
    29b4:	5001167e 	andpl	r1, r1, lr, ror r6
    29b8:	02163a01 	andseq	r3, r6, #4096	; 0x1000
    29bc:	3101047d 	tstcc	r1, sp, ror r4
    29c0:	007d0216 	rsbseq	r0, sp, r6, lsl r2
    29c4:	00007702 	andeq	r7, r0, r2, lsl #14
    29c8:	00931c15 	addseq	r1, r3, r5, lsl ip
    29cc:	00019c00 	andeq	r9, r1, r0, lsl #24
    29d0:	00058a00 	andeq	r8, r5, r0, lsl #20
    29d4:	52011600 	andpl	r1, r1, #0, 12
    29d8:	16800802 	strne	r0, [r0], r2, lsl #16
    29dc:	91035101 	tstls	r3, r1, lsl #2
    29e0:	01167ed0 			; <UNDEFINED> instruction: 0x01167ed0
    29e4:	163a0150 			; <UNDEFINED> instruction: 0x163a0150
    29e8:	01047d02 	tsteq	r4, r2, lsl #26
    29ec:	7d021630 	stcvc	6, cr1, [r2, #-192]	; 0xffffff40
    29f0:	00770200 	rsbseq	r0, r7, r0, lsl #4
    29f4:	93441500 	movtls	r1, #17664	; 0x4500
    29f8:	019c0000 	orrseq	r0, ip, r0
    29fc:	05b70000 	ldreq	r0, [r7, #0]!
    2a00:	01160000 	tsteq	r6, r0
    2a04:	80080252 	andhi	r0, r8, r2, asr r2
    2a08:	03510116 	cmpeq	r1, #-2147483643	; 0x80000005
    2a0c:	167ed091 			; <UNDEFINED> instruction: 0x167ed091
    2a10:	40015001 	andmi	r5, r1, r1
    2a14:	047d0216 	ldrbteq	r0, [sp], #-534	; 0x216
    2a18:	02163001 	andseq	r3, r6, #1
    2a1c:	7702007d 	smlsdxvc	r2, sp, r0, r0
    2a20:	6c150000 	ldcvs	0, cr0, [r5], {-0}
    2a24:	9c000093 	stcls	0, cr0, [r0], {147}	; 0x93
    2a28:	e4000001 	str	r0, [r0], #-1
    2a2c:	16000005 	strne	r0, [r0], -r5
    2a30:	08025201 	stmdaeq	r2, {r0, r9, ip, lr}
    2a34:	51011680 	smlabbpl	r1, r0, r6, r1
    2a38:	7ed09103 	atnvcs	f1, f3
    2a3c:	01500116 	cmpeq	r0, r6, lsl r1
    2a40:	7d021632 	stcvc	6, cr1, [r2, #-200]	; 0xffffff38
    2a44:	16300104 	ldrtne	r0, [r0], -r4, lsl #2
    2a48:	02007d02 	andeq	r7, r0, #2, 26	; 0x80
    2a4c:	15000077 	strne	r0, [r0, #-119]	; 0x77
    2a50:	000093a0 	andeq	r9, r0, r0, lsr #7
    2a54:	0000019c 	muleq	r0, ip, r1
    2a58:	00000611 	andeq	r0, r0, r1, lsl r6
    2a5c:	02520116 	subseq	r0, r2, #-2147483643	; 0x80000005
    2a60:	01168008 	tsteq	r6, r8
    2a64:	d0910351 	addsle	r0, r1, r1, asr r3
    2a68:	5001167e 	andpl	r1, r1, lr, ror r6
    2a6c:	02163801 	andseq	r3, r6, #65536	; 0x10000
    2a70:	3001047d 	andcc	r0, r1, sp, ror r4
    2a74:	007d0216 	rsbseq	r0, sp, r6, lsl r2
    2a78:	00007702 	andeq	r7, r0, r2, lsl #14
    2a7c:	0093bc15 	addseq	fp, r3, r5, lsl ip
    2a80:	0006cb00 	andeq	ip, r6, r0, lsl #22
    2a84:	00063400 	andeq	r3, r6, r0, lsl #8
    2a88:	52011600 	andpl	r1, r1, #0, 12
    2a8c:	16007902 	strne	r7, [r0], -r2, lsl #18
    2a90:	79025101 	stmdbvc	r2, {r0, r8, ip, lr}
    2a94:	50011600 	andpl	r1, r1, r0, lsl #12
    2a98:	a0a40305 	adcge	r0, r4, r5, lsl #6
    2a9c:	1f000000 	svcne	0x00000000
    2aa0:	000093cc 	andeq	r9, r0, ip, asr #7
    2aa4:	00000646 	andeq	r0, r0, r6, asr #12
    2aa8:	04500116 	ldrbeq	r0, [r0], #-278	; 0x116
    2aac:	067ecc91 			; <UNDEFINED> instruction: 0x067ecc91
    2ab0:	93d01400 	bicsls	r1, r0, #0, 8
    2ab4:	06c40000 	strbeq	r0, [r4], r0
    2ab8:	e4150000 	ldr	r0, [r5], #-0
    2abc:	cb000093 	blgt	2d10 <__code_start__-0x52f0>
    2ac0:	7e000006 	cdpvc	0, 0, cr0, cr0, cr6, {0}
    2ac4:	16000006 	strne	r0, [r0], -r6
    2ac8:	08025301 	stmdaeq	r2, {r0, r8, r9, ip, lr}
    2acc:	520116bf 	andpl	r1, r1, #200278016	; 0xbf00000
    2ad0:	a0200305 	eorge	r0, r0, r5, lsl #6
    2ad4:	01160000 	tsteq	r6, r0
    2ad8:	2c030551 	cfstr32cs	mvfx0, [r3], {81}	; 0x51
    2adc:	160000a0 	strne	r0, [r0], -r0, lsr #1
    2ae0:	03055001 	movweq	r5, #20481	; 0x5001
    2ae4:	0000a0d4 	ldrdeq	sl, [r0], -r4
    2ae8:	93e81400 	mvnls	r1, #0, 8
    2aec:	06e10000 	strbteq	r0, [r1], r0
    2af0:	00000000 	andeq	r0, r0, r0
    2af4:	00007a18 	andeq	r7, r0, r8, lsl sl
    2af8:	00069900 	andeq	r9, r6, r0, lsl #18
    2afc:	006b1900 	rsbeq	r1, fp, r0, lsl #18
    2b00:	00090000 	andeq	r0, r9, r0
    2b04:	00068906 	andeq	r8, r6, r6, lsl #18
    2b08:	007a1800 	rsbseq	r1, sl, r0, lsl #16
    2b0c:	06ae0000 	strteq	r0, [lr], r0
    2b10:	6b190000 	blvs	642b18 <__bss_end__+0x6384e0>
    2b14:	7f000000 	svcvc	0x00000000
    2b18:	05f42000 	ldrbeq	r2, [r4, #0]!
    2b1c:	1d030000 	stcne	0, cr0, [r3, #-0]
    2b20:	000003a1 	andeq	r0, r0, r1, lsr #7
    2b24:	00063120 	andeq	r3, r6, r0, lsr #2
    2b28:	b6220300 	strtlt	r0, [r2], -r0, lsl #6
    2b2c:	21000003 	tstcs	r0, r3
    2b30:	0000025a 	andeq	r0, r0, sl, asr r2
    2b34:	7d221e03 	stcvc	14, cr1, [r2, #-12]!
    2b38:	03000005 	movweq	r0, #5
    2b3c:	00002529 	andeq	r2, r0, r9, lsr #10
    2b40:	0006e100 	andeq	lr, r6, r0, lsl #2
    2b44:	00811c00 	addeq	r1, r1, r0, lsl #24
    2b48:	00230000 	eoreq	r0, r3, r0
    2b4c:	00011c21 	andeq	r1, r1, r1, lsr #24
    2b50:	00650300 	rsbeq	r0, r5, r0, lsl #6
    2b54:	000000b8 	strheq	r0, [r0], -r8
    2b58:	0c4e0004 	mcrreq	0, 0, r0, lr, cr4
    2b5c:	01040000 	mrseq	r0, (UNDEF: 4)
    2b60:	00000523 	andeq	r0, r0, r3, lsr #10
    2b64:	0006a801 	andeq	sl, r6, r1, lsl #16
    2b68:	00058e00 	andeq	r8, r5, r0, lsl #28
    2b6c:	00945c00 	addseq	r5, r4, r0, lsl #24
    2b70:	00002000 	andeq	r2, r0, r0
    2b74:	000a4000 	andeq	r4, sl, r0
    2b78:	05040200 	streq	r0, [r4, #-512]	; 0x200
    2b7c:	00746e69 	rsbseq	r6, r4, r9, ror #28
    2b80:	e7070403 	str	r0, [r7, -r3, lsl #8]
    2b84:	03000001 	movweq	r0, #1
    2b88:	01100601 	tsteq	r0, r1, lsl #12
    2b8c:	02030000 	andeq	r0, r3, #0
    2b90:	00004305 	andeq	r4, r0, r5, lsl #6
    2b94:	05040300 	streq	r0, [r4, #-768]	; 0x300
    2b98:	00000211 	andeq	r0, r0, r1, lsl r2
    2b9c:	0c050803 	stceq	8, cr0, [r5], {3}
    2ba0:	03000002 	movweq	r0, #2
    2ba4:	010e0801 	tsteq	lr, r1, lsl #16
    2ba8:	02030000 	andeq	r0, r3, #0
    2bac:	00002107 	andeq	r2, r0, r7, lsl #2
    2bb0:	07040300 	streq	r0, [r4, -r0, lsl #6]
    2bb4:	000001e2 	andeq	r0, r0, r2, ror #3
    2bb8:	dd070803 	stcle	8, cr0, [r7, #-12]
    2bbc:	03000001 	movweq	r0, #1
    2bc0:	02030704 	andeq	r0, r3, #4, 14	; 0x100000
    2bc4:	01030000 	mrseq	r0, (UNDEF: 3)
    2bc8:	00011708 	andeq	r1, r1, r8, lsl #14
    2bcc:	022e0400 	eoreq	r0, lr, #0, 8
    2bd0:	03010000 	movweq	r0, #4096	; 0x1000
    2bd4:	0000945c 	andeq	r9, r0, ip, asr r4
    2bd8:	00000010 	andeq	r0, r0, r0, lsl r0
    2bdc:	009c9c01 	addseq	r9, ip, r1, lsl #24
    2be0:	72050000 	andvc	r0, r5, #0
    2be4:	2c040100 	stfcss	f0, [r4], {-0}
    2be8:	4f000000 	svcmi	0x00000000
    2bec:	0000000d 	andeq	r0, r0, sp
    2bf0:	00069a06 	andeq	r9, r6, r6, lsl #20
    2bf4:	6c0c0100 	stfvss	f0, [ip], {-0}
    2bf8:	10000094 	mulne	r0, r4, r0
    2bfc:	01000000 	mrseq	r0, (UNDEF: 0)
    2c00:	0072059c 			; <UNDEFINED> instruction: 0x0072059c
    2c04:	002c0d01 	eoreq	r0, ip, r1, lsl #26
    2c08:	0d730000 	ldcleq	0, cr0, [r3, #-0]
    2c0c:	00000000 	andeq	r0, r0, r0
    2c10:	0000010f 	andeq	r0, r0, pc, lsl #2
    2c14:	0cb90004 	ldceq	0, cr0, [r9], #16
    2c18:	01040000 	mrseq	r0, (UNDEF: 4)
    2c1c:	00000523 	andeq	r0, r0, r3, lsr #10
    2c20:	0006c901 	andeq	ip, r6, r1, lsl #18
    2c24:	00058e00 	andeq	r8, r5, r0, lsl #28
    2c28:	00947c00 	addseq	r7, r4, r0, lsl #24
    2c2c:	00002c00 	andeq	r2, r0, r0, lsl #24
    2c30:	000a8600 	andeq	r8, sl, r0, lsl #12
    2c34:	05040200 	streq	r0, [r4, #-512]	; 0x200
    2c38:	00746e69 	rsbseq	r6, r4, r9, ror #28
    2c3c:	e7070403 	str	r0, [r7, -r3, lsl #8]
    2c40:	03000001 	movweq	r0, #1
    2c44:	01100601 	tsteq	r0, r1, lsl #12
    2c48:	02030000 	andeq	r0, r3, #0
    2c4c:	00004305 	andeq	r4, r0, r5, lsl #6
    2c50:	05040300 	streq	r0, [r4, #-768]	; 0x300
    2c54:	00000211 	andeq	r0, r0, r1, lsl r2
    2c58:	0c050803 	stceq	8, cr0, [r5], {3}
    2c5c:	03000002 	movweq	r0, #2
    2c60:	010e0801 	tsteq	lr, r1, lsl #16
    2c64:	02030000 	andeq	r0, r3, #0
    2c68:	00002107 	andeq	r2, r0, r7, lsl #2
    2c6c:	07040300 	streq	r0, [r4, -r0, lsl #6]
    2c70:	000001e2 	andeq	r0, r0, r2, ror #3
    2c74:	dd070803 	stcle	8, cr0, [r7, #-12]
    2c78:	03000001 	movweq	r0, #1
    2c7c:	02030704 	andeq	r0, r3, #4, 14	; 0x100000
    2c80:	01030000 	mrseq	r0, (UNDEF: 3)
    2c84:	00011708 	andeq	r1, r1, r8, lsl #14
    2c88:	7f040400 	svcvc	0x00040400
    2c8c:	05000000 	streq	r0, [r0, #-0]
    2c90:	00000072 	andeq	r0, r0, r2, ror r0
    2c94:	00011c06 	andeq	r1, r1, r6, lsl #24
    2c98:	7c040100 	stfvcs	f0, [r4], {-0}
    2c9c:	2c000094 	stccs	0, cr0, [r0], {148}	; 0x94
    2ca0:	01000000 	mrseq	r0, (UNDEF: 0)
    2ca4:	0000d39c 	muleq	r0, ip, r3
    2ca8:	94840700 	strls	r0, [r4], #1792	; 0x700
    2cac:	00f30000 	rscseq	r0, r3, r0
    2cb0:	94080000 	strls	r0, [r8], #-0
    2cb4:	b5000094 	strlt	r0, [r0, #-148]	; 0x94
    2cb8:	09000000 	stmdbeq	r0, {}	; <UNPREDICTABLE>
    2cbc:	03055001 	movweq	r5, #20481	; 0x5001
    2cc0:	0000a0f4 	strdeq	sl, [r0], -r4
    2cc4:	949c0a00 	ldrls	r0, [ip], #2560	; 0xa00
    2cc8:	00fa0000 	rscseq	r0, sl, r0
    2ccc:	00c90000 	sbceq	r0, r9, r0
    2cd0:	01090000 	mrseq	r0, (UNDEF: 9)
    2cd4:	64080250 	strvs	r0, [r8], #-592	; 0x250
    2cd8:	94a00700 	strtls	r0, [r0], #1792	; 0x700
    2cdc:	010b0000 	mrseq	r0, (UNDEF: 11)
    2ce0:	0b000000 	bleq	2ce8 <__code_start__-0x5318>
    2ce4:	00000025 	andeq	r0, r0, r5, lsr #32
    2ce8:	000000e2 	andeq	r0, r0, r2, ror #1
    2cec:	0000790c 	andeq	r7, r0, ip, lsl #18
    2cf0:	310d0000 	mrscc	r0, (UNDEF: 13)
    2cf4:	02000006 	andeq	r0, r0, #6
    2cf8:	0000ed22 	andeq	lr, r0, r2, lsr #26
    2cfc:	d3040400 	movwle	r0, #17408	; 0x4400
    2d00:	0e000000 	cdpeq	0, 0, cr0, cr0, cr0, {0}
    2d04:	000006ba 			; <UNDEFINED> instruction: 0x000006ba
    2d08:	ed0fdc02 	stc	12, cr13, [pc, #-8]	; 2d08 <__code_start__-0x52f8>
    2d0c:	02000006 	andeq	r0, r0, #6
    2d10:	00010b4f 	andeq	r0, r1, pc, asr #22
    2d14:	002c0c00 	eoreq	r0, ip, r0, lsl #24
    2d18:	0e000000 	cdpeq	0, 0, cr0, cr0, cr0, {0}
    2d1c:	000006e2 	andeq	r0, r0, r2, ror #13
    2d20:	0f006202 	svceq	0x00006202
    2d24:	04000001 	streq	r0, [r0], #-1
    2d28:	000d8300 	andeq	r8, sp, r0, lsl #6
    2d2c:	23010400 	movwcs	r0, #5120	; 0x1400
    2d30:	01000005 	tsteq	r0, r5
    2d34:	0000072f 	andeq	r0, r0, pc, lsr #14
    2d38:	0000058e 	andeq	r0, r0, lr, lsl #11
    2d3c:	000094a8 	andeq	r9, r0, r8, lsr #9
    2d40:	00000038 	andeq	r0, r0, r8, lsr r0
    2d44:	00000b27 	andeq	r0, r0, r7, lsr #22
    2d48:	69050402 	stmdbvs	r5, {r1, sl}
    2d4c:	0300746e 	movweq	r7, #1134	; 0x46e
    2d50:	01e70704 	mvneq	r0, r4, lsl #14
    2d54:	01030000 	mrseq	r0, (UNDEF: 3)
    2d58:	00011006 	andeq	r1, r1, r6
    2d5c:	05020300 	streq	r0, [r2, #-768]	; 0x300
    2d60:	00000043 	andeq	r0, r0, r3, asr #32
    2d64:	11050403 	tstne	r5, r3, lsl #8
    2d68:	03000002 	movweq	r0, #2
    2d6c:	020c0508 	andeq	r0, ip, #8, 10	; 0x2000000
    2d70:	01030000 	mrseq	r0, (UNDEF: 3)
    2d74:	00010e08 	andeq	r0, r1, r8, lsl #28
    2d78:	07020300 	streq	r0, [r2, -r0, lsl #6]
    2d7c:	00000021 	andeq	r0, r0, r1, lsr #32
    2d80:	e2070403 	and	r0, r7, #50331648	; 0x3000000
    2d84:	03000001 	movweq	r0, #1
    2d88:	01dd0708 	bicseq	r0, sp, r8, lsl #14
    2d8c:	04030000 	streq	r0, [r3], #-0
    2d90:	00020307 	andeq	r0, r2, r7, lsl #6
    2d94:	08010300 	stmdaeq	r1, {r8, r9}
    2d98:	00000117 	andeq	r0, r0, r7, lsl r1
    2d9c:	00072704 	andeq	r2, r7, r4, lsl #14
    2da0:	a80d0100 	stmdage	sp, {r8}
    2da4:	38000094 	stmdacc	r0, {r2, r4, r7}
    2da8:	01000000 	mrseq	r0, (UNDEF: 0)
    2dac:	0000e19c 	muleq	r0, ip, r1
    2db0:	06f60500 	ldrbteq	r0, [r6], r0, lsl #10
    2db4:	0e010000 	cdpeq	0, 0, cr0, cr1, cr0, {0}
    2db8:	00000025 	andeq	r0, r0, r5, lsr #32
    2dbc:	00070405 	andeq	r0, r7, r5, lsl #8
    2dc0:	250e0100 	strcs	r0, [lr, #-256]	; 0x100
    2dc4:	06000000 	streq	r0, [r0], -r0
    2dc8:	000000d5 	ldrdeq	r0, [r0], -r5
    2dcc:	62070f01 	andvs	r0, r7, #1, 30
    2dd0:	01007373 	tsteq	r0, r3, ror r3
    2dd4:	0000e111 	andeq	lr, r0, r1, lsl r1
    2dd8:	000d9700 	andeq	r9, sp, r0, lsl #14
    2ddc:	071f0800 	ldreq	r0, [pc, -r0, lsl #16]
    2de0:	12010000 	andne	r0, r1, #0
    2de4:	000000e1 	andeq	r0, r0, r1, ror #1
    2de8:	0094d009 	addseq	sp, r4, r9
    2dec:	0000fd00 	andeq	pc, r0, r0, lsl #26
    2df0:	94d40900 	ldrbls	r0, [r4], #2304	; 0x900
    2df4:	01040000 	mrseq	r0, (UNDEF: 4)
    2df8:	d8090000 	stmdale	r9, {}	; <UNPREDICTABLE>
    2dfc:	0b000094 	bleq	3054 <__code_start__-0x4fac>
    2e00:	00000001 	andeq	r0, r0, r1
    2e04:	0025040a 	eoreq	r0, r5, sl, lsl #8
    2e08:	f6050000 			; <UNDEFINED> instruction: 0xf6050000
    2e0c:	01000006 	tsteq	r0, r6
    2e10:	0000250e 	andeq	r2, r0, lr, lsl #10
    2e14:	07040500 	streq	r0, [r4, -r0, lsl #10]
    2e18:	0e010000 	cdpeq	0, 0, cr0, cr1, cr0, {0}
    2e1c:	00000025 	andeq	r0, r0, r5, lsr #32
    2e20:	00071006 	andeq	r1, r7, r6
    2e24:	06da0200 	ldrbeq	r0, [sl], r0, lsl #4
    2e28:	000000d5 	ldrdeq	r0, [r0], -r5
    2e2c:	1c06d702 	stcne	7, cr13, [r6], {2}
    2e30:	02000001 	andeq	r0, r0, #1
    2e34:	013e0065 	teqeq	lr, r5, rrx
    2e38:	00040000 	andeq	r0, r4, r0
    2e3c:	00000e17 	andeq	r0, r0, r7, lsl lr
    2e40:	05230104 	streq	r0, [r3, #-260]!	; 0x104
    2e44:	42010000 	andmi	r0, r1, #0
    2e48:	8e000007 	cdphi	0, 0, cr0, cr0, cr7, {0}
    2e4c:	e0000005 	and	r0, r0, r5
    2e50:	44000094 	strmi	r0, [r0], #-148	; 0x94
    2e54:	d1000000 	mrsle	r0, (UNDEF: 0)
    2e58:	0200000b 	andeq	r0, r0, #11
    2e5c:	6e690504 	cdpvs	5, 6, cr0, cr9, cr4, {0}
    2e60:	04030074 	streq	r0, [r3], #-116	; 0x74
    2e64:	0001e707 	andeq	lr, r1, r7, lsl #14
    2e68:	06010300 	streq	r0, [r1], -r0, lsl #6
    2e6c:	00000110 	andeq	r0, r0, r0, lsl r1
    2e70:	43050203 	movwmi	r0, #20995	; 0x5203
    2e74:	03000000 	movweq	r0, #0
    2e78:	02110504 	andseq	r0, r1, #4, 10	; 0x1000000
    2e7c:	08030000 	stmdaeq	r3, {}	; <UNPREDICTABLE>
    2e80:	00020c05 	andeq	r0, r2, r5, lsl #24
    2e84:	08010300 	stmdaeq	r1, {r8, r9}
    2e88:	0000010e 	andeq	r0, r0, lr, lsl #2
    2e8c:	21070203 	tstcs	r7, r3, lsl #4
    2e90:	03000000 	movweq	r0, #0
    2e94:	01e20704 	mvneq	r0, r4, lsl #14
    2e98:	08030000 	stmdaeq	r3, {}	; <UNPREDICTABLE>
    2e9c:	0001dd07 	andeq	sp, r1, r7, lsl #26
    2ea0:	07040300 	streq	r0, [r4, -r0, lsl #6]
    2ea4:	00000203 	andeq	r0, r0, r3, lsl #4
    2ea8:	17080103 	strne	r0, [r8, -r3, lsl #2]
    2eac:	04000001 	streq	r0, [r0], #-1
    2eb0:	00007f04 	andeq	r7, r0, r4, lsl #30
    2eb4:	00720500 	rsbseq	r0, r2, r0, lsl #10
    2eb8:	63060000 	movwvs	r0, #24576	; 0x6000
    2ebc:	01000007 	tsteq	r0, r7
    2ec0:	0094e002 	addseq	lr, r4, r2
    2ec4:	00004400 	andeq	r4, r0, r0, lsl #8
    2ec8:	089c0100 	ldmeq	ip, {r8}
    2ecc:	07000001 	streq	r0, [r0, -r1]
    2ed0:	01006370 	tsteq	r0, r0, ror r3
    2ed4:	00002c02 	andeq	r2, r0, r2, lsl #24
    2ed8:	000db700 	andeq	fp, sp, r0, lsl #14
    2edc:	01540800 	cmpeq	r4, r0, lsl #16
    2ee0:	01180000 	tsteq	r8, r0
    2ee4:	03050000 	movweq	r0, #20480	; 0x5000
    2ee8:	0000a100 	andeq	sl, r0, r0, lsl #2
    2eec:	0094f009 	addseq	pc, r4, r9
    2ef0:	00011d00 	andeq	r1, r1, r0, lsl #26
    2ef4:	95100a00 	ldrls	r0, [r0, #-2560]	; 0xa00
    2ef8:	01240000 	teqeq	r4, r0
    2efc:	00fe0000 	rscseq	r0, lr, r0
    2f00:	010b0000 	mrseq	r0, (UNDEF: 11)
    2f04:	0b320153 	bleq	c83458 <__bss_end__+0xc78e20>
    2f08:	03055201 	movweq	r5, #20993	; 0x5201
    2f0c:	0000a100 	andeq	sl, r0, r0, lsl #2
    2f10:	0551010b 	ldrbeq	r0, [r1, #-267]	; 0x10b
    2f14:	00a15403 	adceq	r5, r1, r3, lsl #8
    2f18:	50010b00 	andpl	r0, r1, r0, lsl #22
    2f1c:	a1180305 	tstge	r8, r5, lsl #6
    2f20:	020b0000 	andeq	r0, fp, #0
    2f24:	7402047d 	strvc	r0, [r2], #-1149	; 0x47d
    2f28:	7d020b00 	vstrvc	d0, [r2, #-0]
    2f2c:	78030500 	stmdavc	r3, {r8, sl}
    2f30:	000000a1 	andeq	r0, r0, r1, lsr #1
    2f34:	00951409 	addseq	r1, r5, r9, lsl #8
    2f38:	00013a00 	andeq	r3, r1, r0, lsl #20
    2f3c:	720c0000 	andvc	r0, ip, #0
    2f40:	18000000 	stmdane	r0, {}	; <UNPREDICTABLE>
    2f44:	0d000001 	stceq	0, cr0, [r0, #-4]
    2f48:	0000006b 	andeq	r0, r0, fp, rrx
    2f4c:	08050015 	stmdaeq	r5, {r0, r2, r4}
    2f50:	0e000001 	cdpeq	0, 0, cr0, cr0, cr1, {0}
    2f54:	0000025a 	andeq	r0, r0, sl, asr r2
    2f58:	7d0f1e02 	stcvc	14, cr1, [pc, #-8]	; 2f58 <__code_start__-0x50a8>
    2f5c:	02000005 	andeq	r0, r0, #5
    2f60:	00002529 	andeq	r2, r0, r9, lsr #10
    2f64:	00013a00 	andeq	r3, r1, r0, lsl #20
    2f68:	00791000 	rsbseq	r1, r9, r0
    2f6c:	00110000 	andseq	r0, r1, r0
    2f70:	00011c0e 	andeq	r1, r1, lr, lsl #24
    2f74:	00650200 	rsbeq	r0, r5, r0, lsl #4
    2f78:	0000013e 	andeq	r0, r0, lr, lsr r1
    2f7c:	0eef0004 	cdpeq	0, 14, cr0, cr15, cr4, {0}
    2f80:	01040000 	mrseq	r0, (UNDEF: 4)
    2f84:	00000523 	andeq	r0, r0, r3, lsr #10
    2f88:	00078601 	andeq	r8, r7, r1, lsl #12
    2f8c:	00058e00 	andeq	r8, r5, r0, lsl #28
    2f90:	00952400 	addseq	r2, r5, r0, lsl #8
    2f94:	00004400 	andeq	r4, r0, r0, lsl #8
    2f98:	000c7700 	andeq	r7, ip, r0, lsl #14
    2f9c:	05040200 	streq	r0, [r4, #-512]	; 0x200
    2fa0:	00746e69 	rsbseq	r6, r4, r9, ror #28
    2fa4:	e7070403 	str	r0, [r7, -r3, lsl #8]
    2fa8:	03000001 	movweq	r0, #1
    2fac:	01100601 	tsteq	r0, r1, lsl #12
    2fb0:	02030000 	andeq	r0, r3, #0
    2fb4:	00004305 	andeq	r4, r0, r5, lsl #6
    2fb8:	05040300 	streq	r0, [r4, #-768]	; 0x300
    2fbc:	00000211 	andeq	r0, r0, r1, lsl r2
    2fc0:	0c050803 	stceq	8, cr0, [r5], {3}
    2fc4:	03000002 	movweq	r0, #2
    2fc8:	010e0801 	tsteq	lr, r1, lsl #16
    2fcc:	02030000 	andeq	r0, r3, #0
    2fd0:	00002107 	andeq	r2, r0, r7, lsl #2
    2fd4:	07040300 	streq	r0, [r4, -r0, lsl #6]
    2fd8:	000001e2 	andeq	r0, r0, r2, ror #3
    2fdc:	dd070803 	stcle	8, cr0, [r7, #-12]
    2fe0:	03000001 	movweq	r0, #1
    2fe4:	02030704 	andeq	r0, r3, #4, 14	; 0x100000
    2fe8:	01030000 	mrseq	r0, (UNDEF: 3)
    2fec:	00011708 	andeq	r1, r1, r8, lsl #14
    2ff0:	7f040400 	svcvc	0x00040400
    2ff4:	05000000 	streq	r0, [r0, #-0]
    2ff8:	00000072 	andeq	r0, r0, r2, ror r0
    2ffc:	00077906 	andeq	r7, r7, r6, lsl #18
    3000:	24020100 	strcs	r0, [r2], #-256	; 0x100
    3004:	44000095 	strmi	r0, [r0], #-149	; 0x95
    3008:	01000000 	mrseq	r0, (UNDEF: 0)
    300c:	0001089c 	muleq	r1, ip, r8
    3010:	63700700 	cmnvs	r0, #0, 14
    3014:	2c020100 	stfcss	f0, [r2], {-0}
    3018:	d5000000 	strle	r0, [r0, #-0]
    301c:	0800000d 	stmdaeq	r0, {r0, r2, r3}
    3020:	00000154 	andeq	r0, r0, r4, asr r1
    3024:	00000118 	andeq	r0, r0, r8, lsl r1
    3028:	a1800305 	orrge	r0, r0, r5, lsl #6
    302c:	34090000 	strcc	r0, [r9], #-0
    3030:	1d000095 	stcne	0, cr0, [r0, #-596]	; 0xfffffdac
    3034:	0a000001 	beq	3040 <__code_start__-0x4fc0>
    3038:	00009554 	andeq	r9, r0, r4, asr r5
    303c:	00000124 	andeq	r0, r0, r4, lsr #2
    3040:	000000fe 	strdeq	r0, [r0], -lr
    3044:	0153010b 	cmpeq	r3, fp, lsl #2
    3048:	52010b32 	andpl	r0, r1, #51200	; 0xc800
    304c:	a1800305 	orrge	r0, r0, r5, lsl #6
    3050:	010b0000 	mrseq	r0, (UNDEF: 11)
    3054:	90030551 	andls	r0, r3, r1, asr r5
    3058:	0b0000a1 	bleq	32e4 <__code_start__-0x4d1c>
    305c:	03055001 	movweq	r5, #20481	; 0x5001
    3060:	0000a118 	andeq	sl, r0, r8, lsl r1
    3064:	047d020b 	ldrbteq	r0, [sp], #-523	; 0x20b
    3068:	0b007402 	bleq	20078 <__bss_end__+0x15a40>
    306c:	05007d02 	streq	r7, [r0, #-3330]	; 0xd02
    3070:	00a1b403 	adceq	fp, r1, r3, lsl #8
    3074:	58090000 	stmdapl	r9, {}	; <UNPREDICTABLE>
    3078:	3a000095 	bcc	32d4 <__code_start__-0x4d2c>
    307c:	00000001 	andeq	r0, r0, r1
    3080:	0000720c 	andeq	r7, r0, ip, lsl #4
    3084:	00011800 	andeq	r1, r1, r0, lsl #16
    3088:	006b0d00 	rsbeq	r0, fp, r0, lsl #26
    308c:	000c0000 	andeq	r0, ip, r0
    3090:	00010805 	andeq	r0, r1, r5, lsl #16
    3094:	025a0e00 	subseq	r0, sl, #0, 28
    3098:	1e020000 	cdpne	0, 0, cr0, cr2, cr0, {0}
    309c:	00057d0f 	andeq	r7, r5, pc, lsl #26
    30a0:	25290200 	strcs	r0, [r9, #-512]!	; 0x200
    30a4:	3a000000 	bcc	30ac <__code_start__-0x4f54>
    30a8:	10000001 	andne	r0, r0, r1
    30ac:	00000079 	andeq	r0, r0, r9, ror r0
    30b0:	1c0e0011 	stcne	0, cr0, [lr], {17}
    30b4:	02000001 	andeq	r0, r0, #1
    30b8:	013e0065 	teqeq	lr, r5, rrx
    30bc:	00040000 	andeq	r0, r4, r0
    30c0:	00000fc7 	andeq	r0, r0, r7, asr #31
    30c4:	05230104 	streq	r0, [r3, #-260]!	; 0x104
    30c8:	a8010000 	stmdage	r1, {}	; <UNPREDICTABLE>
    30cc:	8e000007 	cdphi	0, 0, cr0, cr0, cr7, {0}
    30d0:	68000005 	stmdavs	r0, {r0, r2}
    30d4:	44000095 	strmi	r0, [r0], #-149	; 0x95
    30d8:	1e000000 	cdpne	0, 0, cr0, cr0, cr0, {0}
    30dc:	0200000d 	andeq	r0, r0, #13
    30e0:	6e690504 	cdpvs	5, 6, cr0, cr9, cr4, {0}
    30e4:	04030074 	streq	r0, [r3], #-116	; 0x74
    30e8:	0001e707 	andeq	lr, r1, r7, lsl #14
    30ec:	06010300 	streq	r0, [r1], -r0, lsl #6
    30f0:	00000110 	andeq	r0, r0, r0, lsl r1
    30f4:	43050203 	movwmi	r0, #20995	; 0x5203
    30f8:	03000000 	movweq	r0, #0
    30fc:	02110504 	andseq	r0, r1, #4, 10	; 0x1000000
    3100:	08030000 	stmdaeq	r3, {}	; <UNPREDICTABLE>
    3104:	00020c05 	andeq	r0, r2, r5, lsl #24
    3108:	08010300 	stmdaeq	r1, {r8, r9}
    310c:	0000010e 	andeq	r0, r0, lr, lsl #2
    3110:	21070203 	tstcs	r7, r3, lsl #4
    3114:	03000000 	movweq	r0, #0
    3118:	01e20704 	mvneq	r0, r4, lsl #14
    311c:	08030000 	stmdaeq	r3, {}	; <UNPREDICTABLE>
    3120:	0001dd07 	andeq	sp, r1, r7, lsl #26
    3124:	07040300 	streq	r0, [r4, -r0, lsl #6]
    3128:	00000203 	andeq	r0, r0, r3, lsl #4
    312c:	17080103 	strne	r0, [r8, -r3, lsl #2]
    3130:	04000001 	streq	r0, [r0], #-1
    3134:	00007f04 	andeq	r7, r0, r4, lsl #30
    3138:	00720500 	rsbseq	r0, r2, r0, lsl #10
    313c:	d3060000 	movwle	r0, #24576	; 0x6000
    3140:	01000007 	tsteq	r0, r7
    3144:	00956802 	addseq	r6, r5, r2, lsl #16
    3148:	00004400 	andeq	r4, r0, r0, lsl #8
    314c:	089c0100 	ldmeq	ip, {r8}
    3150:	07000001 	streq	r0, [r0, -r1]
    3154:	01006370 	tsteq	r0, r0, ror r3
    3158:	00002c02 	andeq	r2, r0, r2, lsl #24
    315c:	000df300 	andeq	pc, sp, r0, lsl #6
    3160:	01540800 	cmpeq	r4, r0, lsl #16
    3164:	01180000 	tsteq	r8, r0
    3168:	03050000 	movweq	r0, #20480	; 0x5000
    316c:	0000a1bc 			; <UNDEFINED> instruction: 0x0000a1bc
    3170:	00957809 	addseq	r7, r5, r9, lsl #16
    3174:	00011d00 	andeq	r1, r1, r0, lsl #26
    3178:	95980a00 	ldrls	r0, [r8, #2560]	; 0xa00
    317c:	01240000 	teqeq	r4, r0
    3180:	00fe0000 	rscseq	r0, lr, r0
    3184:	010b0000 	mrseq	r0, (UNDEF: 11)
    3188:	0b320153 	bleq	c836dc <__bss_end__+0xc790a4>
    318c:	03055201 	movweq	r5, #20993	; 0x5201
    3190:	0000a1bc 			; <UNDEFINED> instruction: 0x0000a1bc
    3194:	0551010b 	ldrbeq	r0, [r1, #-267]	; 0x10b
    3198:	00a1dc03 	adceq	sp, r1, r3, lsl #24
    319c:	50010b00 	andpl	r0, r1, r0, lsl #22
    31a0:	a1180305 	tstge	r8, r5, lsl #6
    31a4:	020b0000 	andeq	r0, fp, #0
    31a8:	7402047d 	strvc	r0, [r2], #-1149	; 0x47d
    31ac:	7d020b00 	vstrvc	d0, [r2, #-0]
    31b0:	08030500 	stmdaeq	r3, {r8, sl}
    31b4:	000000a2 	andeq	r0, r0, r2, lsr #1
    31b8:	00959c09 	addseq	r9, r5, r9, lsl #24
    31bc:	00013a00 	andeq	r3, r1, r0, lsl #20
    31c0:	720c0000 	andvc	r0, ip, #0
    31c4:	18000000 	stmdane	r0, {}	; <UNPREDICTABLE>
    31c8:	0d000001 	stceq	0, cr0, [r0, #-4]
    31cc:	0000006b 	andeq	r0, r0, fp, rrx
    31d0:	0805001c 	stmdaeq	r5, {r2, r3, r4}
    31d4:	0e000001 	cdpeq	0, 0, cr0, cr0, cr1, {0}
    31d8:	0000025a 	andeq	r0, r0, sl, asr r2
    31dc:	7d0f1e02 	stcvc	14, cr1, [pc, #-8]	; 31dc <__code_start__-0x4e24>
    31e0:	02000005 	andeq	r0, r0, #5
    31e4:	00002529 	andeq	r2, r0, r9, lsr #10
    31e8:	00013a00 	andeq	r3, r1, r0, lsl #20
    31ec:	00791000 	rsbseq	r1, r9, r0
    31f0:	00110000 	andseq	r0, r1, r0
    31f4:	00011c0e 	andeq	r1, r1, lr, lsl #24
    31f8:	00650200 	rsbeq	r0, r5, r0, lsl #4
    31fc:	00000098 	muleq	r0, r8, r0
    3200:	109f0004 	addsne	r0, pc, r4
    3204:	01040000 	mrseq	r0, (UNDEF: 4)
    3208:	00000523 	andeq	r0, r0, r3, lsr #10
    320c:	0007f001 	andeq	pc, r7, r1
    3210:	00058e00 	andeq	r8, r5, r0, lsl #28
    3214:	0095ac00 	addseq	sl, r5, r0, lsl #24
    3218:	00000800 	andeq	r0, r0, r0, lsl #16
    321c:	000dce00 	andeq	ip, sp, r0, lsl #28
    3220:	05040200 	streq	r0, [r4, #-512]	; 0x200
    3224:	00746e69 	rsbseq	r6, r4, r9, ror #28
    3228:	e7070403 	str	r0, [r7, -r3, lsl #8]
    322c:	03000001 	movweq	r0, #1
    3230:	01100601 	tsteq	r0, r1, lsl #12
    3234:	02030000 	andeq	r0, r3, #0
    3238:	00004305 	andeq	r4, r0, r5, lsl #6
    323c:	05040300 	streq	r0, [r4, #-768]	; 0x300
    3240:	00000211 	andeq	r0, r0, r1, lsl r2
    3244:	0c050803 	stceq	8, cr0, [r5], {3}
    3248:	03000002 	movweq	r0, #2
    324c:	010e0801 	tsteq	lr, r1, lsl #16
    3250:	02030000 	andeq	r0, r3, #0
    3254:	00002107 	andeq	r2, r0, r7, lsl #2
    3258:	07040300 	streq	r0, [r4, -r0, lsl #6]
    325c:	000001e2 	andeq	r0, r0, r2, ror #3
    3260:	dd070803 	stcle	8, cr0, [r7, #-12]
    3264:	03000001 	movweq	r0, #1
    3268:	02030704 	andeq	r0, r3, #4, 14	; 0x100000
    326c:	01030000 	mrseq	r0, (UNDEF: 3)
    3270:	00011708 	andeq	r1, r1, r8, lsl #14
    3274:	07100400 	ldreq	r0, [r0, -r0, lsl #8]
    3278:	04010000 	streq	r0, [r1], #-0
    327c:	000095ac 	andeq	r9, r0, ip, lsr #11
    3280:	00000004 	andeq	r0, r0, r4
    3284:	ba049c01 	blt	12a290 <__bss_end__+0x11fc58>
    3288:	01000006 	tsteq	r0, r6
    328c:	0095b005 	addseq	fp, r5, r5
    3290:	00000400 	andeq	r0, r0, r0, lsl #8
    3294:	009c0100 	addseq	r0, ip, r0, lsl #2
    3298:	000001d7 	ldrdeq	r0, [r0], -r7
    329c:	10e10004 	rscne	r0, r1, r4
    32a0:	01040000 	mrseq	r0, (UNDEF: 4)
    32a4:	00000523 	andeq	r0, r0, r3, lsr #10
    32a8:	0008ac01 	andeq	sl, r8, r1, lsl #24
    32ac:	00058e00 	andeq	r8, r5, r0, lsl #28
    32b0:	0095b400 	addseq	fp, r5, r0, lsl #8
    32b4:	00006c00 	andeq	r6, r0, r0, lsl #24
    32b8:	000e1900 	andeq	r1, lr, r0, lsl #18
    32bc:	05040200 	streq	r0, [r4, #-512]	; 0x200
    32c0:	00746e69 	rsbseq	r6, r4, r9, ror #28
    32c4:	e7070403 	str	r0, [r7, -r3, lsl #8]
    32c8:	03000001 	movweq	r0, #1
    32cc:	01100601 	tsteq	r0, r1, lsl #12
    32d0:	02030000 	andeq	r0, r3, #0
    32d4:	00004305 	andeq	r4, r0, r5, lsl #6
    32d8:	05040300 	streq	r0, [r4, #-768]	; 0x300
    32dc:	00000211 	andeq	r0, r0, r1, lsl r2
    32e0:	0c050803 	stceq	8, cr0, [r5], {3}
    32e4:	03000002 	movweq	r0, #2
    32e8:	010e0801 	tsteq	lr, r1, lsl #16
    32ec:	02030000 	andeq	r0, r3, #0
    32f0:	00002107 	andeq	r2, r0, r7, lsl #2
    32f4:	07040300 	streq	r0, [r4, -r0, lsl #6]
    32f8:	000001e2 	andeq	r0, r0, r2, ror #3
    32fc:	dd070803 	stcle	8, cr0, [r7, #-12]
    3300:	03000001 	movweq	r0, #1
    3304:	02030704 	andeq	r0, r3, #4, 14	; 0x100000
    3308:	01030000 	mrseq	r0, (UNDEF: 3)
    330c:	00011708 	andeq	r1, r1, r8, lsl #14
    3310:	02040400 	andeq	r0, r4, #0, 8
    3314:	0000f014 	andeq	pc, r0, r4, lsl r0	; <UNPREDICTABLE>
    3318:	08c50500 	stmiaeq	r5, {r8, sl}^
    331c:	e4800000 	str	r0, [r0], #0
    3320:	05028082 	streq	r8, [r2, #-130]	; 0x82
    3324:	0000084b 	andeq	r0, r0, fp, asr #16
    3328:	8082e480 	addhi	lr, r2, r0, lsl #9
    332c:	08f20502 	ldmeq	r2!, {r1, r8, sl}^
    3330:	e4840000 	str	r0, [r4], #0
    3334:	05028082 	streq	r8, [r2, #-130]	; 0x82
    3338:	0000080d 	andeq	r0, r0, sp, lsl #16
    333c:	8082e488 	addhi	lr, r2, r8, lsl #9
    3340:	082e0502 	stmdaeq	lr!, {r1, r8, sl}
    3344:	e48c0000 	str	r0, [ip], #0
    3348:	05028082 	streq	r8, [r2, #-130]	; 0x82
    334c:	0000086f 	andeq	r0, r0, pc, ror #16
    3350:	8082e490 	umullhi	lr, r2, r0, r4
    3354:	087d0502 	ldmdaeq	sp!, {r1, r8, sl}^
    3358:	e4940000 	ldr	r0, [r4], #0
    335c:	05028082 	streq	r8, [r2, #-130]	; 0x82
    3360:	0000085d 	andeq	r0, r0, sp, asr r8
    3364:	8082e498 	umullhi	lr, r2, r8, r4
    3368:	08d40502 	ldmeq	r4, {r1, r8, sl}^
    336c:	e49c0000 	ldr	r0, [ip], #0
    3370:	05028082 	streq	r8, [r2, #-130]	; 0x82
    3374:	000008e3 	andeq	r0, r0, r3, ror #17
    3378:	8082e4a0 	addhi	lr, r2, r0, lsr #9
    337c:	081b0502 	ldmdaeq	fp, {r1, r8, sl}
    3380:	e4a40000 	strt	r0, [r4], #0
    3384:	00028082 	andeq	r8, r2, r2, lsl #1
    3388:	00044c06 	andeq	r4, r4, r6, lsl #24
    338c:	b41b0100 	ldrlt	r0, [fp], #-256	; 0x100
    3390:	6c000095 	stcvs	0, cr0, [r0], {149}	; 0x95
    3394:	01000000 	mrseq	r0, (UNDEF: 0)
    3398:	0001a59c 	muleq	r1, ip, r5
    339c:	083a0700 	ldmdaeq	sl!, {r8, r9, sl}
    33a0:	23010000 	movwcs	r0, #4096	; 0x1000
    33a4:	0000002c 	andeq	r0, r0, ip, lsr #32
    33a8:	00088b07 	andeq	r8, r8, r7, lsl #22
    33ac:	2c240100 	stfcss	f0, [r4], #-0
    33b0:	08000000 	stmdaeq	r0, {}	; <UNPREDICTABLE>
    33b4:	00747364 	rsbseq	r7, r4, r4, ror #6
    33b8:	01a52701 			; <UNDEFINED> instruction: 0x01a52701
    33bc:	09000000 	stmdbeq	r0, {}	; <UNPREDICTABLE>
    33c0:	00637273 	rsbeq	r7, r3, r3, ror r2
    33c4:	01a52801 			; <UNDEFINED> instruction: 0x01a52801
    33c8:	6e0a0000 	cdpvs	0, 0, cr0, cr10, cr0, {0}
    33cc:	2c290100 	stfcss	f0, [r9], #-0
    33d0:	01000000 	mrseq	r0, (UNDEF: 0)
    33d4:	95e80b50 	strbls	r0, [r8, #2896]!	; 0xb50
    33d8:	00240000 	eoreq	r0, r4, r0
    33dc:	01580000 	cmpeq	r8, r0
    33e0:	690c0000 	stmdbvs	ip, {}	; <UNPREDICTABLE>
    33e4:	252a0100 	strcs	r0, [sl, #-256]!	; 0x100
    33e8:	11000000 	mrsne	r0, (UNDEF: 0)
    33ec:	0000000e 	andeq	r0, r0, lr
    33f0:	0095bc0d 	addseq	fp, r5, sp, lsl #24
    33f4:	0001c100 	andeq	ip, r1, r0, lsl #2
    33f8:	95c80e00 	strbls	r0, [r8, #3584]	; 0xe00
    33fc:	01c80000 	biceq	r0, r8, r0
    3400:	017e0000 	cmneq	lr, r0
    3404:	010f0000 	mrseq	r0, CPSR
    3408:	ff090251 			; <UNDEFINED> instruction: 0xff090251
    340c:	0550010f 	ldrbeq	r0, [r0, #-271]	; 0x10f
    3410:	00b21c0c 	adcseq	r1, r2, ip, lsl #24
    3414:	d40e0020 	strle	r0, [lr], #-32
    3418:	c8000095 	stmdagt	r0, {r0, r2, r4, r7}
    341c:	9b000001 	blls	3428 <__code_start__-0x4bd8>
    3420:	0f000001 	svceq	0x00000001
    3424:	09025101 	stmdbeq	r2, {r0, r8, ip, lr}
    3428:	50010fff 	strdpl	r0, [r1], -pc	; <UNPREDICTABLE>
    342c:	b2200c05 	eorlt	r0, r0, #1280	; 0x500
    3430:	0d002000 	stceq	0, cr2, [r0, #-0]
    3434:	000095d8 	ldrdeq	r9, [r0], -r8
    3438:	000001c1 	andeq	r0, r0, r1, asr #3
    343c:	2c041000 	stccs	0, cr1, [r4], {-0}
    3440:	07000000 	streq	r0, [r0, -r0]
    3444:	0000083a 	andeq	r0, r0, sl, lsr r8
    3448:	002c2301 	eoreq	r2, ip, r1, lsl #6
    344c:	8b070000 	blhi	1c3454 <__bss_end__+0x1b8e1c>
    3450:	01000008 	tsteq	r0, r8
    3454:	00002c24 	andeq	r2, r0, r4, lsr #24
    3458:	08a01100 	stmiaeq	r0!, {r8, ip}
    345c:	89030000 	stmdbhi	r3, {}	; <UNPREDICTABLE>
    3460:	0008ce12 	andeq	ip, r8, r2, lsl lr
    3464:	139b0300 	orrsne	r0, fp, #0, 6
    3468:	0000002c 	andeq	r0, r0, ip, lsr #32
    346c:	00002c13 	andeq	r2, r0, r3, lsl ip
    3470:	ad000000 	stcge	0, cr0, [r0, #-0]
    3474:	04000001 	streq	r0, [r0], #-1
    3478:	0011e700 	andseq	lr, r1, r0, lsl #14
    347c:	23010400 	movwcs	r0, #5120	; 0x1400
    3480:	01000005 	tsteq	r0, r5
    3484:	0000090e 	andeq	r0, r0, lr, lsl #18
    3488:	0000058e 	andeq	r0, r0, lr, lsl #11
	...
    3494:	00000ee6 	andeq	r0, r0, r6, ror #29
    3498:	69050402 	stmdbvs	r5, {r1, sl}
    349c:	0300746e 	movweq	r7, #1134	; 0x46e
    34a0:	01e70704 	mvneq	r0, r4, lsl #14
    34a4:	01030000 	mrseq	r0, (UNDEF: 3)
    34a8:	00011006 	andeq	r1, r1, r6
    34ac:	05020300 	streq	r0, [r2, #-768]	; 0x300
    34b0:	00000043 	andeq	r0, r0, r3, asr #32
    34b4:	11050403 	tstne	r5, r3, lsl #8
    34b8:	03000002 	movweq	r0, #2
    34bc:	020c0508 	andeq	r0, ip, #8, 10	; 0x2000000
    34c0:	01030000 	mrseq	r0, (UNDEF: 3)
    34c4:	00010e08 	andeq	r0, r1, r8, lsl #28
    34c8:	07020300 	streq	r0, [r2, -r0, lsl #6]
    34cc:	00000021 	andeq	r0, r0, r1, lsr #32
    34d0:	e2070403 	and	r0, r7, #50331648	; 0x3000000
    34d4:	03000001 	movweq	r0, #1
    34d8:	01dd0708 	bicseq	r0, sp, r8, lsl #14
    34dc:	04030000 	streq	r0, [r3], #-0
    34e0:	00020307 	andeq	r0, r2, r7, lsl #6
    34e4:	08010300 	stmdaeq	r1, {r8, r9}
    34e8:	00000117 	andeq	r0, r0, r7, lsl r1
    34ec:	00090004 	andeq	r0, r9, r4
    34f0:	250e0100 	strcs	r0, [lr, #-256]	; 0x100
    34f4:	20000000 	andcs	r0, r0, r0
    34f8:	18000096 	stmdane	r0, {r1, r2, r4, r7}
    34fc:	01000000 	mrseq	r0, (UNDEF: 0)
    3500:	0000a29c 	muleq	r0, ip, r2
    3504:	02460500 	subeq	r0, r6, #0, 10
    3508:	0f010000 	svceq	0x00010000
    350c:	0000002c 	andeq	r0, r0, ip, lsr #32
    3510:	00000e30 	andeq	r0, r0, r0, lsr lr
    3514:	09420600 	stmdbeq	r2, {r9, sl}^
    3518:	17010000 	strne	r0, [r1, -r0]
    351c:	00009638 	andeq	r9, r0, r8, lsr r6
    3520:	00000014 	andeq	r0, r0, r4, lsl r0
    3524:	00c79c01 	sbceq	r9, r7, r1, lsl #24
    3528:	46050000 	strmi	r0, [r5], -r0
    352c:	01000002 	tsteq	r0, r2
    3530:	00002c18 	andeq	r2, r0, r8, lsl ip
    3534:	000e4f00 	andeq	r4, lr, r0, lsl #30
    3538:	e2060000 	and	r0, r6, #0
    353c:	01000006 	tsteq	r0, r6
    3540:	00964c1f 	addseq	r4, r6, pc, lsl ip
    3544:	00004800 	andeq	r4, r0, r0, lsl #16
    3548:	779c0100 	ldrvc	r0, [ip, r0, lsl #2]
    354c:	07000001 	streq	r0, [r0, -r1]
    3550:	0000095d 	andeq	r0, r0, sp, asr r9
    3554:	01772a01 	cmneq	r7, r1, lsl #20
    3558:	001c0000 	andseq	r0, ip, r0
    355c:	3a072010 	bcc	1cb5a4 <__bss_end__+0x1c0f6c>
    3560:	01000009 	tsteq	r0, r9
    3564:	0001772b 	andeq	r7, r1, fp, lsr #14
    3568:	10002400 	andne	r2, r0, r0, lsl #8
    356c:	09510720 	ldmdbeq	r1, {r5, r8, r9, sl}^
    3570:	2c010000 	stccs	0, cr0, [r1], {-0}
    3574:	00000177 	andeq	r0, r0, r7, ror r1
    3578:	5a000000 	bpl	3580 <__code_start__-0x4a80>
    357c:	00092108 	andeq	r2, r9, r8, lsl #2
    3580:	772d0100 	strvc	r0, [sp, -r0, lsl #2]!
    3584:	20000001 	andcs	r0, r0, r1
    3588:	00965409 	addseq	r5, r6, r9, lsl #8
    358c:	00007900 	andeq	r7, r0, r0, lsl #18
    3590:	96600900 	strbtls	r0, [r0], -r0, lsl #18
    3594:	00a20000 	adceq	r0, r2, r0
    3598:	680a0000 	stmdavs	sl, {}	; <UNPREDICTABLE>
    359c:	8d000096 	stchi	0, cr0, [r0, #-600]	; 0xfffffda8
    35a0:	3a000001 	bcc	35ac <__code_start__-0x4a54>
    35a4:	0b000001 	bleq	35b0 <__code_start__-0x4a50>
    35a8:	4e015001 	cdpmi	0, 0, cr5, cr1, cr1, {0}
    35ac:	96740a00 	ldrbtls	r0, [r4], -r0, lsl #20
    35b0:	019e0000 	orrseq	r0, lr, r0
    35b4:	015a0000 	cmpeq	sl, r0
    35b8:	010b0000 	mrseq	r0, (UNDEF: 11)
    35bc:	010c0551 	tsteq	ip, r1, asr r5
    35c0:	0b5a0000 	bleq	16835c8 <__bss_end__+0x1678f90>
    35c4:	0c055001 	stceq	0, cr5, [r5], {1}
    35c8:	20100024 	andscs	r0, r0, r4, lsr #32
    35cc:	96800c00 	strls	r0, [r0], r0, lsl #24
    35d0:	019e0000 	orrseq	r0, lr, r0
    35d4:	010b0000 	mrseq	r0, (UNDEF: 11)
    35d8:	200c0551 	andcs	r0, ip, r1, asr r5
    35dc:	0b5a0000 	bleq	16835e4 <__bss_end__+0x1678fac>
    35e0:	0c055001 	stceq	0, cr5, [r5], {1}
    35e4:	2010001c 	andscs	r0, r0, ip, lsl r0
    35e8:	250d0000 	strcs	r0, [sp, #-0]
    35ec:	08000000 	stmdaeq	r0, {}	; <UNPREDICTABLE>
    35f0:	00000903 	andeq	r0, r0, r3, lsl #18
    35f4:	01880d01 	orreq	r0, r8, r1, lsl #26
    35f8:	0d100000 	ldceq	0, cr0, [r0, #-0]
    35fc:	0000002c 	andeq	r0, r0, ip, lsr #32
    3600:	0006ed0e 	andeq	lr, r6, lr, lsl #26
    3604:	9e4f0200 	cdpls	2, 4, cr0, cr15, cr0, {0}
    3608:	0f000001 	svceq	0x00000001
    360c:	0000002c 	andeq	r0, r0, ip, lsr #32
    3610:	08ce1000 	stmiaeq	lr, {ip}^
    3614:	9b020000 	blls	8361c <__bss_end__+0x78fe4>
    3618:	00002c0f 	andeq	r2, r0, pc, lsl #24
    361c:	002c0f00 	eoreq	r0, ip, r0, lsl #30
    3620:	00000000 	andeq	r0, r0, r0
    3624:	000001f7 	strdeq	r0, [r0], -r7
    3628:	12d50004 	sbcsne	r0, r5, #4
    362c:	01040000 	mrseq	r0, (UNDEF: 4)
    3630:	00000523 	andeq	r0, r0, r3, lsr #10
    3634:	00098201 	andeq	r8, r9, r1, lsl #4
    3638:	00058e00 	andeq	r8, r5, r0, lsl #28
    363c:	00969400 	addseq	r9, r6, r0, lsl #8
    3640:	00009800 	andeq	r9, r0, r0, lsl #16
    3644:	000f8c00 	andeq	r8, pc, r0, lsl #24
    3648:	05040200 	streq	r0, [r4, #-512]	; 0x200
    364c:	00746e69 	rsbseq	r6, r4, r9, ror #28
    3650:	e7070403 	str	r0, [r7, -r3, lsl #8]
    3654:	03000001 	movweq	r0, #1
    3658:	01100601 	tsteq	r0, r1, lsl #12
    365c:	02030000 	andeq	r0, r3, #0
    3660:	00004305 	andeq	r4, r0, r5, lsl #6
    3664:	05040300 	streq	r0, [r4, #-768]	; 0x300
    3668:	00000211 	andeq	r0, r0, r1, lsl r2
    366c:	0c050803 	stceq	8, cr0, [r5], {3}
    3670:	03000002 	movweq	r0, #2
    3674:	010e0801 	tsteq	lr, r1, lsl #16
    3678:	02030000 	andeq	r0, r3, #0
    367c:	00002107 	andeq	r2, r0, r7, lsl #2
    3680:	07040300 	streq	r0, [r4, -r0, lsl #6]
    3684:	000001e2 	andeq	r0, r0, r2, ror #3
    3688:	dd070803 	stcle	8, cr0, [r7, #-12]
    368c:	03000001 	movweq	r0, #1
    3690:	02030704 	andeq	r0, r3, #4, 14	; 0x100000
    3694:	01030000 	mrseq	r0, (UNDEF: 3)
    3698:	00011708 	andeq	r1, r1, r8, lsl #14
    369c:	09a00400 	stmibeq	r0!, {sl}
    36a0:	05010000 	streq	r0, [r1, #-0]
    36a4:	00009694 	muleq	r0, r4, r6
    36a8:	0000001c 	andeq	r0, r0, ip, lsl r0
    36ac:	009e9c01 	addseq	r9, lr, r1, lsl #24
    36b0:	9a050000 	bls	1436b8 <__bss_end__+0x139080>
    36b4:	01000009 	tsteq	r0, r9
    36b8:	00002c05 	andeq	r2, r0, r5, lsl #24
    36bc:	000e7900 	andeq	r7, lr, r0, lsl #18
    36c0:	65060000 	strvs	r0, [r6, #-0]
    36c4:	01000009 	tsteq	r0, r9
    36c8:	00002c11 	andeq	r2, r0, r1, lsl ip
    36cc:	0096b000 	addseq	fp, r6, r0
    36d0:	00001400 	andeq	r1, r0, r0, lsl #8
    36d4:	cb9c0100 	blgt	fe703adc <__bss_end__+0xfe6f94a4>
    36d8:	07000000 	streq	r0, [r0, -r0]
    36dc:	000096bc 			; <UNDEFINED> instruction: 0x000096bc
    36e0:	000001de 	ldrdeq	r0, [r0], -lr
    36e4:	05500108 	ldrbeq	r0, [r0, #-264]	; 0x108
    36e8:	0030040c 	eorseq	r0, r0, ip, lsl #8
    36ec:	06000020 	streq	r0, [r0], -r0, lsr #32
    36f0:	000009b6 			; <UNDEFINED> instruction: 0x000009b6
    36f4:	002c1601 	eoreq	r1, ip, r1, lsl #12
    36f8:	96c40000 	strbls	r0, [r4], r0
    36fc:	001c0000 	andseq	r0, ip, r0
    3700:	9c010000 	stcls	0, cr0, [r1], {-0}
    3704:	0000010d 	andeq	r0, r0, sp, lsl #2
    3708:	01007509 	tsteq	r0, r9, lsl #10
    370c:	00002c1a 	andeq	r2, r0, sl, lsl ip
    3710:	000ead00 	andeq	sl, lr, r0, lsl #26
    3714:	96cc0a00 	strbls	r0, [ip], r0, lsl #20
    3718:	01f30000 	mvnseq	r0, r0
    371c:	d00a0000 	andle	r0, sl, r0
    3720:	9e000096 	mcrls	0, 0, r0, cr0, cr6, {4}
    3724:	0a000000 	beq	372c <__code_start__-0x48d4>
    3728:	000096d8 	ldrdeq	r9, [r0], -r8
    372c:	000001f3 	strdeq	r0, [r0], -r3
    3730:	09ad0400 	stmibeq	sp!, {sl}
    3734:	1f010000 	svcne	0x00010000
    3738:	000096e0 	andeq	r9, r0, r0, ror #13
    373c:	00000024 	andeq	r0, r0, r4, lsr #32
    3740:	016b9c01 	cmneq	fp, r1, lsl #24
    3744:	750b0000 	strvc	r0, [fp, #-0]
    3748:	1f010073 	svcne	0x00010073
    374c:	0000002c 	andeq	r0, r0, ip, lsr #32
    3750:	00000ecb 	andeq	r0, r0, fp, asr #29
    3754:	0062720c 	rsbeq	r7, r2, ip, lsl #4
    3758:	002c2001 	eoreq	r2, ip, r1
    375c:	54010000 	strpl	r0, [r1], #-0
    3760:	0096f00d 	addseq	pc, r6, sp
    3764:	00001000 	andeq	r1, r0, r0
    3768:	00016100 	andeq	r6, r1, r0, lsl #2
    376c:	61720900 	cmnvs	r2, r0, lsl #18
    3770:	2c220100 	stfcss	f0, [r2], #-0
    3774:	e9000000 	stmdb	r0, {}	; <UNPREDICTABLE>
    3778:	0a00000e 	beq	37b8 <__code_start__-0x4848>
    377c:	000096f4 	strdeq	r9, [r0], -r4
    3780:	000000cb 	andeq	r0, r0, fp, asr #1
    3784:	96ec0a00 	strbtls	r0, [ip], r0, lsl #20
    3788:	00cb0000 	sbceq	r0, fp, r0
    378c:	04000000 	streq	r0, [r0], #-0
    3790:	000006ed 	andeq	r0, r0, sp, ror #13
    3794:	97042801 	strls	r2, [r4, -r1, lsl #16]
    3798:	00140000 	andseq	r0, r4, r0
    379c:	9c010000 	stcls	0, cr0, [r1], {-0}
    37a0:	000001a4 	andeq	r0, r0, r4, lsr #3
    37a4:	00736d0b 	rsbseq	r6, r3, fp, lsl #26
    37a8:	002c2801 	eoreq	r2, ip, r1, lsl #16
    37ac:	0efc0000 	cdpeq	0, 15, cr0, cr12, cr0, {0}
    37b0:	14070000 	strne	r0, [r7], #-0
    37b4:	0d000097 	stceq	0, cr0, [r0, #-604]	; 0xfffffda4
    37b8:	08000001 	stmdaeq	r0, {r0}
    37bc:	f3075001 	vhadd.u8	d5, d7, d1
    37c0:	e80a5001 	stmda	sl, {r0, ip, lr}
    37c4:	00001e03 	andeq	r1, r0, r3, lsl #28
    37c8:	00097804 	andeq	r7, r9, r4, lsl #16
    37cc:	182b0100 	stmdane	fp!, {r8}
    37d0:	14000097 	strne	r0, [r0], #-151	; 0x97
    37d4:	01000000 	mrseq	r0, (UNDEF: 0)
    37d8:	0001de9c 	muleq	r1, ip, lr
    37dc:	65730b00 	ldrbvs	r0, [r3, #-2816]!	; 0xb00
    37e0:	2b010063 	blcs	43974 <__bss_end__+0x3933c>
    37e4:	0000002c 	andeq	r0, r0, ip, lsr #32
    37e8:	00000f1d 	andeq	r0, r0, sp, lsl pc
    37ec:	00972807 	addseq	r2, r7, r7, lsl #16
    37f0:	00016b00 	andeq	r6, r1, r0, lsl #22
    37f4:	50010800 	andpl	r0, r1, r0, lsl #16
    37f8:	5001f307 	andpl	pc, r1, r7, lsl #6
    37fc:	1e03e80a 	cdpne	8, 0, cr14, cr3, cr10, {0}
    3800:	940e0000 	strls	r0, [lr], #-0
    3804:	02000009 	andeq	r0, r0, #9
    3808:	00002ca7 	andeq	r2, r0, r7, lsr #25
    380c:	0001f300 	andeq	pc, r1, r0, lsl #6
    3810:	002c0f00 	eoreq	r0, ip, r0, lsl #30
    3814:	10000000 	andne	r0, r0, r0
    3818:	000008a0 	andeq	r0, r0, r0, lsr #17
    381c:	c5008902 	strgt	r8, [r0, #-2306]	; 0x902
    3820:	0400000c 	streq	r0, [r0], #-12
    3824:	0013cb00 	andseq	ip, r3, r0, lsl #22
    3828:	61010400 	tstvs	r1, r0, lsl #8
    382c:	0c00000d 	stceq	0, cr0, [r0], {13}
    3830:	00000ac4 	andeq	r0, r0, r4, asr #21
    3834:	00000adf 	ldrdeq	r0, [r0], -pc	; <UNPREDICTABLE>
    3838:	00009790 	muleq	r0, r0, r7
    383c:	00000178 	andeq	r0, r0, r8, ror r1
    3840:	0000103e 	andeq	r1, r0, lr, lsr r0
    3844:	69050402 	stmdbvs	r5, {r1, sl}
    3848:	0300746e 	movweq	r7, #1134	; 0x46e
    384c:	01e70704 	mvneq	r0, r4, lsl #14
    3850:	2c040000 	stccs	0, cr0, [r4], {-0}
    3854:	03000000 	movweq	r0, #0
    3858:	01100601 	tsteq	r0, r1, lsl #12
    385c:	02030000 	andeq	r0, r3, #0
    3860:	00004305 	andeq	r4, r0, r5, lsl #6
    3864:	05040300 	streq	r0, [r4, #-768]	; 0x300
    3868:	00000211 	andeq	r0, r0, r1, lsl r2
    386c:	0c050803 	stceq	8, cr0, [r5], {3}
    3870:	03000002 	movweq	r0, #2
    3874:	010e0801 	tsteq	lr, r1, lsl #16
    3878:	02030000 	andeq	r0, r3, #0
    387c:	00002107 	andeq	r2, r0, r7, lsl #2
    3880:	07040300 	streq	r0, [r4, -r0, lsl #6]
    3884:	000001e2 	andeq	r0, r0, r2, ror #3
    3888:	dd070803 	stcle	8, cr0, [r7, #-12]
    388c:	05000001 	streq	r0, [r0, #-1]
    3890:	00000c76 	andeq	r0, r0, r6, ror ip
    3894:	00250702 	eoreq	r0, r5, r2, lsl #14
    3898:	60050000 	andvs	r0, r5, r0
    389c:	0300000c 	movweq	r0, #12
    38a0:	0000462c 	andeq	r4, r0, ip, lsr #12
    38a4:	0d3c0500 	cfldr32eq	mvfx0, [ip, #-0]
    38a8:	72030000 	andvc	r0, r3, #0
    38ac:	00000046 	andeq	r0, r0, r6, asr #32
    38b0:	000c0406 	andeq	r0, ip, r6, lsl #8
    38b4:	01650400 	cmneq	r5, r0, lsl #8
    38b8:	0000002c 	andeq	r0, r0, ip, lsr #32
    38bc:	a6030407 	strge	r0, [r3], -r7, lsl #8
    38c0:	000000bc 	strheq	r0, [r0], -ip
    38c4:	000bef08 	andeq	lr, fp, r8, lsl #30
    38c8:	91a80300 			; <UNDEFINED> instruction: 0x91a80300
    38cc:	08000000 	stmdaeq	r0, {}	; <UNPREDICTABLE>
    38d0:	00000b97 	muleq	r0, r7, fp
    38d4:	00bca903 	adcseq	sl, ip, r3, lsl #18
    38d8:	09000000 	stmdbeq	r0, {}	; <UNPREDICTABLE>
    38dc:	00000054 	andeq	r0, r0, r4, asr r0
    38e0:	000000cc 	andeq	r0, r0, ip, asr #1
    38e4:	0000cc0a 	andeq	ip, r0, sl, lsl #24
    38e8:	03000300 	movweq	r0, #768	; 0x300
    38ec:	02030704 	andeq	r0, r3, #4, 14	; 0x100000
    38f0:	080b0000 	stmdaeq	fp, {}	; <UNPREDICTABLE>
    38f4:	00f4a303 	rscseq	sl, r4, r3, lsl #6
    38f8:	210c0000 	mrscs	r0, (UNDEF: 12)
    38fc:	0300000d 	movweq	r0, #13
    3900:	000025a5 	andeq	r2, r0, r5, lsr #11
    3904:	290c0000 	stmdbcs	ip, {}	; <UNPREDICTABLE>
    3908:	0300000d 	movweq	r0, #13
    390c:	00009daa 	andeq	r9, r0, sl, lsr #27
    3910:	05000400 	streq	r0, [r0, #-1024]	; 0x400
    3914:	00000cb4 			; <UNDEFINED> instruction: 0x00000cb4
    3918:	00d3ab03 	sbcseq	sl, r3, r3, lsl #22
    391c:	60050000 	andvs	r0, r5, r0
    3920:	0300000b 	movweq	r0, #11
    3924:	000070af 	andeq	r7, r0, pc, lsr #1
    3928:	0e040d00 	cdpeq	13, 0, cr0, cr4, cr0, {0}
    392c:	00011204 	andeq	r1, r1, r4, lsl #4
    3930:	08010300 	stmdaeq	r1, {r8, r9}
    3934:	00000117 	andeq	r0, r0, r7, lsl r1
    3938:	0001120f 	andeq	r1, r1, pc, lsl #4
    393c:	0dde0500 	cfldr64eq	mvdx0, [lr]
    3940:	16050000 	strne	r0, [r5], -r0
    3944:	00000062 	andeq	r0, r0, r2, rrx
    3948:	000b7110 	andeq	r7, fp, r0, lsl r1
    394c:	2d051800 	stccs	8, cr1, [r5, #-0]
    3950:	0000017c 	andeq	r0, r0, ip, ror r1
    3954:	000cd50c 	andeq	sp, ip, ip, lsl #10
    3958:	7c2f0500 	cfstr32vc	mvfx0, [pc], #-0	; 3960 <__code_start__-0x46a0>
    395c:	00000001 	andeq	r0, r0, r1
    3960:	006b5f11 	rsbeq	r5, fp, r1, lsl pc
    3964:	00253005 	eoreq	r3, r5, r5
    3968:	0c040000 	stceq	0, cr0, [r4], {-0}
    396c:	00000d0c 	andeq	r0, r0, ip, lsl #26
    3970:	00253005 	eoreq	r3, r5, r5
    3974:	0c080000 	stceq	0, cr0, [r8], {-0}
    3978:	00000b4c 	andeq	r0, r0, ip, asr #22
    397c:	00253005 	eoreq	r3, r5, r5
    3980:	0c0c0000 	stceq	0, cr0, [ip], {-0}
    3984:	00000e25 	andeq	r0, r0, r5, lsr #28
    3988:	00253005 	eoreq	r3, r5, r5
    398c:	11100000 	tstne	r0, r0
    3990:	0500785f 	streq	r7, [r0, #-2143]	; 0x85f
    3994:	00018231 	andeq	r8, r1, r1, lsr r2
    3998:	0e001400 	cfcpyseq	mvf1, mvf0
    399c:	00012904 	andeq	r2, r1, r4, lsl #18
    39a0:	011e0900 	tsteq	lr, r0, lsl #18
    39a4:	01920000 	orrseq	r0, r2, r0
    39a8:	cc0a0000 	stcgt	0, cr0, [sl], {-0}
    39ac:	00000000 	andeq	r0, r0, r0
    39b0:	0b921000 	bleq	fe4879b8 <__bss_end__+0xfe47d380>
    39b4:	05240000 	streq	r0, [r4, #-0]!
    39b8:	00020b35 	andeq	r0, r2, r5, lsr fp
    39bc:	0a4a0c00 	beq	12869c4 <__bss_end__+0x127c38c>
    39c0:	37050000 	strcc	r0, [r5, -r0]
    39c4:	00000025 	andeq	r0, r0, r5, lsr #32
    39c8:	0d440c00 	stcleq	12, cr0, [r4, #-0]
    39cc:	38050000 	stmdacc	r5, {}	; <UNPREDICTABLE>
    39d0:	00000025 	andeq	r0, r0, r5, lsr #32
    39d4:	0a780c04 	beq	1e069ec <__bss_end__+0x1dfc3b4>
    39d8:	39050000 	stmdbcc	r5, {}	; <UNPREDICTABLE>
    39dc:	00000025 	andeq	r0, r0, r5, lsr #32
    39e0:	0f150c08 	svceq	0x00150c08
    39e4:	3a050000 	bcc	1439ec <__bss_end__+0x1393b4>
    39e8:	00000025 	andeq	r0, r0, r5, lsr #32
    39ec:	0c440c0c 	mcrreq	12, 0, r0, r4, cr12
    39f0:	3b050000 	blcc	1439f8 <__bss_end__+0x1393c0>
    39f4:	00000025 	andeq	r0, r0, r5, lsr #32
    39f8:	0c190c10 	ldceq	12, cr0, [r9], {16}
    39fc:	3c050000 	stccc	0, cr0, [r5], {-0}
    3a00:	00000025 	andeq	r0, r0, r5, lsr #32
    3a04:	0e2a0c14 	mcreq	12, 1, r0, cr10, cr4, {0}
    3a08:	3d050000 	stccc	0, cr0, [r5, #-0]
    3a0c:	00000025 	andeq	r0, r0, r5, lsr #32
    3a10:	0c960c18 	ldceq	12, cr0, [r6], {24}
    3a14:	3e050000 	cdpcc	0, 0, cr0, cr5, cr0, {0}
    3a18:	00000025 	andeq	r0, r0, r5, lsr #32
    3a1c:	0edc0c1c 	mrceq	12, 6, r0, cr12, cr12, {0}
    3a20:	3f050000 	svccc	0x00050000
    3a24:	00000025 	andeq	r0, r0, r5, lsr #32
    3a28:	87120020 	ldrhi	r0, [r2, -r0, lsr #32]
    3a2c:	0800000a 	stmdaeq	r0, {r1, r3}
    3a30:	4b480501 	blmi	1204e3c <__bss_end__+0x11fa804>
    3a34:	0c000002 	stceq	0, cr0, [r0], {2}
    3a38:	00000b33 	andeq	r0, r0, r3, lsr fp
    3a3c:	024b4905 	subeq	r4, fp, #81920	; 0x14000
    3a40:	0c000000 	stceq	0, cr0, [r0], {-0}
    3a44:	000009c5 	andeq	r0, r0, r5, asr #19
    3a48:	024b4a05 	subeq	r4, fp, #20480	; 0x5000
    3a4c:	13800000 	orrne	r0, r0, #0
    3a50:	00000dd0 	ldrdeq	r0, [r0], -r0	; <UNPREDICTABLE>
    3a54:	011e4c05 	tsteq	lr, r5, lsl #24
    3a58:	01000000 	mrseq	r0, (UNDEF: 0)
    3a5c:	000aac13 	andeq	sl, sl, r3, lsl ip
    3a60:	1e4f0500 	cdpne	5, 4, cr0, cr15, cr0, {0}
    3a64:	04000001 	streq	r0, [r0], #-1
    3a68:	0a090001 	beq	243a74 <__bss_end__+0x23943c>
    3a6c:	5b000001 	blpl	3a78 <__code_start__-0x4588>
    3a70:	0a000002 	beq	3a80 <__code_start__-0x4580>
    3a74:	000000cc 	andeq	r0, r0, ip, asr #1
    3a78:	4d12001f 	ldcmi	0, cr0, [r2, #-124]	; 0xffffff84
    3a7c:	9000000c 	andls	r0, r0, ip
    3a80:	995b0501 	ldmdbls	fp, {r0, r8, sl}^
    3a84:	0c000002 	stceq	0, cr0, [r0], {2}
    3a88:	00000cd5 	ldrdeq	r0, [r0], -r5
    3a8c:	02995c05 	addseq	r5, r9, #1280	; 0x500
    3a90:	0c000000 	stceq	0, cr0, [r0], {-0}
    3a94:	00000ced 	andeq	r0, r0, sp, ror #25
    3a98:	00255d05 	eoreq	r5, r5, r5, lsl #26
    3a9c:	0c040000 	stceq	0, cr0, [r4], {-0}
    3aa0:	00000b47 	andeq	r0, r0, r7, asr #22
    3aa4:	029f5f05 	addseq	r5, pc, #5, 30
    3aa8:	0c080000 	stceq	0, cr0, [r8], {-0}
    3aac:	00000a87 	andeq	r0, r0, r7, lsl #21
    3ab0:	020b6005 	andeq	r6, fp, #5
    3ab4:	00880000 	addeq	r0, r8, r0
    3ab8:	025b040e 	subseq	r0, fp, #234881024	; 0xe000000
    3abc:	af090000 	svcge	0x00090000
    3ac0:	af000002 	svcge	0x00000002
    3ac4:	0a000002 	beq	3ad4 <__code_start__-0x452c>
    3ac8:	000000cc 	andeq	r0, r0, ip, asr #1
    3acc:	040e001f 	streq	r0, [lr], #-31
    3ad0:	000002b5 			; <UNDEFINED> instruction: 0x000002b5
    3ad4:	0ca01014 	stceq	0, cr1, [r0], #80	; 0x50
    3ad8:	05080000 	streq	r0, [r8, #-0]
    3adc:	0002db73 	andeq	sp, r2, r3, ror fp
    3ae0:	0a6d0c00 	beq	1b46ae8 <__bss_end__+0x1b3c4b0>
    3ae4:	74050000 	strvc	r0, [r5], #-0
    3ae8:	000002db 	ldrdeq	r0, [r0], -fp
    3aec:	09d10c00 	ldmibeq	r1, {sl, fp}^
    3af0:	75050000 	strvc	r0, [r5, #-0]
    3af4:	00000025 	andeq	r0, r0, r5, lsr #32
    3af8:	040e0004 	streq	r0, [lr], #-4
    3afc:	00000054 	andeq	r0, r0, r4, asr r0
    3b00:	000cbf10 	andeq	fp, ip, r0, lsl pc
    3b04:	b3056800 	movwlt	r6, #22528	; 0x5800
    3b08:	0000040b 	andeq	r0, r0, fp, lsl #8
    3b0c:	00705f11 	rsbseq	r5, r0, r1, lsl pc
    3b10:	02dbb405 	sbcseq	fp, fp, #83886080	; 0x5000000
    3b14:	11000000 	mrsne	r0, (UNDEF: 0)
    3b18:	0500725f 	streq	r7, [r0, #-607]	; 0x25f
    3b1c:	000025b5 			; <UNDEFINED> instruction: 0x000025b5
    3b20:	5f110400 	svcpl	0x00110400
    3b24:	b6050077 			; <UNDEFINED> instruction: 0xb6050077
    3b28:	00000025 	andeq	r0, r0, r5, lsr #32
    3b2c:	0aa50c08 	beq	fe946b54 <__bss_end__+0xfe93c51c>
    3b30:	b7050000 	strlt	r0, [r5, -r0]
    3b34:	0000003f 	andeq	r0, r0, pc, lsr r0
    3b38:	0bb80c0c 	bleq	fee06b70 <__bss_end__+0xfedfc538>
    3b3c:	b8050000 	stmdalt	r5, {}	; <UNPREDICTABLE>
    3b40:	0000003f 	andeq	r0, r0, pc, lsr r0
    3b44:	625f110e 	subsvs	r1, pc, #-2147483645	; 0x80000003
    3b48:	b9050066 	stmdblt	r5, {r1, r2, r5, r6}
    3b4c:	000002b6 			; <UNDEFINED> instruction: 0x000002b6
    3b50:	0a140c10 	beq	506b98 <__bss_end__+0x4fc560>
    3b54:	ba050000 	blt	143b5c <__bss_end__+0x139524>
    3b58:	00000025 	andeq	r0, r0, r5, lsr #32
    3b5c:	0a950c18 	beq	fe546bc4 <__bss_end__+0xfe53c58c>
    3b60:	c1050000 	mrsgt	r0, (UNDEF: 5)
    3b64:	0000010a 	andeq	r0, r0, sl, lsl #2
    3b68:	0f3c0c1c 	svceq	0x003c0c1c
    3b6c:	c3050000 	movwgt	r0, #20480	; 0x5000
    3b70:	00000566 	andeq	r0, r0, r6, ror #10
    3b74:	0f560c20 	svceq	0x00560c20
    3b78:	c5050000 	strgt	r0, [r5, #-0]
    3b7c:	00000590 	muleq	r0, r0, r5
    3b80:	0d310c24 	ldceq	12, cr0, [r1, #-144]!	; 0xffffff70
    3b84:	c8050000 	stmdagt	r5, {}	; <UNPREDICTABLE>
    3b88:	000005b4 			; <UNDEFINED> instruction: 0x000005b4
    3b8c:	0ef60c28 	cdpeq	12, 15, cr0, cr6, cr8, {1}
    3b90:	c9050000 	stmdbgt	r5, {}	; <UNPREDICTABLE>
    3b94:	000005ce 	andeq	r0, r0, lr, asr #11
    3b98:	755f112c 	ldrbvc	r1, [pc, #-300]	; 3a74 <__code_start__-0x458c>
    3b9c:	cc050062 	stcgt	0, cr0, [r5], {98}	; 0x62
    3ba0:	000002b6 			; <UNDEFINED> instruction: 0x000002b6
    3ba4:	755f1130 	ldrbvc	r1, [pc, #-304]	; 3a7c <__code_start__-0x4584>
    3ba8:	cd050070 	stcgt	0, cr0, [r5, #-448]	; 0xfffffe40
    3bac:	000002db 	ldrdeq	r0, [r0], -fp
    3bb0:	755f1138 	ldrbvc	r1, [pc, #-312]	; 3a80 <__code_start__-0x4580>
    3bb4:	ce050072 	mcrgt	0, 0, r0, cr5, cr2, {3}
    3bb8:	00000025 	andeq	r0, r0, r5, lsr #32
    3bbc:	0a580c3c 	beq	1606cb4 <__bss_end__+0x15fc67c>
    3bc0:	d1050000 	mrsle	r0, (UNDEF: 5)
    3bc4:	000005d4 	ldrdeq	r0, [r0], -r4
    3bc8:	0ea10c40 	cdpeq	12, 10, cr0, cr1, cr0, {2}
    3bcc:	d2050000 	andle	r0, r5, #0
    3bd0:	000005e4 	andeq	r0, r0, r4, ror #11
    3bd4:	6c5f1143 	ldfvse	f1, [pc], {67}	; 0x43
    3bd8:	d5050062 	strle	r0, [r5, #-98]	; 0x62
    3bdc:	000002b6 			; <UNDEFINED> instruction: 0x000002b6
    3be0:	0abb0c44 	beq	feec6cf8 <__bss_end__+0xfeebc6c0>
    3be4:	d8050000 	stmdale	r5, {}	; <UNPREDICTABLE>
    3be8:	00000025 	andeq	r0, r0, r5, lsr #32
    3bec:	0c230c4c 	stceq	12, cr0, [r3], #-304	; 0xfffffed0
    3bf0:	d9050000 	stmdble	r5, {}	; <UNPREDICTABLE>
    3bf4:	0000007b 	andeq	r0, r0, fp, ror r0
    3bf8:	0e8c0c50 	mcreq	12, 4, r0, cr12, cr0, {2}
    3bfc:	dc050000 	stcle	0, cr0, [r5], {-0}
    3c00:	00000429 	andeq	r0, r0, r9, lsr #8
    3c04:	0c0b0c54 	stceq	12, cr0, [fp], {84}	; 0x54
    3c08:	e0050000 	and	r0, r5, r0
    3c0c:	000000ff 	strdeq	r0, [r0], -pc	; <UNPREDICTABLE>
    3c10:	0cc70c58 	stcleq	12, cr0, [r7], {88}	; 0x58
    3c14:	e2050000 	and	r0, r5, #0
    3c18:	000000f4 	strdeq	r0, [r0], -r4
    3c1c:	0c110c5c 	ldceq	12, cr0, [r1], {92}	; 0x5c
    3c20:	e3050000 	movw	r0, #20480	; 0x5000
    3c24:	00000025 	andeq	r0, r0, r5, lsr #32
    3c28:	25150064 	ldrcs	r0, [r5, #-100]	; 0x64
    3c2c:	29000000 	stmdbcs	r0, {}	; <UNPREDICTABLE>
    3c30:	16000004 	strne	r0, [r0], -r4
    3c34:	00000429 	andeq	r0, r0, r9, lsr #8
    3c38:	00010a16 	andeq	r0, r1, r6, lsl sl
    3c3c:	010c1600 	tsteq	ip, r0, lsl #12
    3c40:	25160000 	ldrcs	r0, [r6, #-0]
    3c44:	00000000 	andeq	r0, r0, r0
    3c48:	0434040e 	ldrteq	r0, [r4], #-1038	; 0x40e
    3c4c:	290f0000 	stmdbcs	pc, {}	; <UNPREDICTABLE>
    3c50:	17000004 	strne	r0, [r0, -r4]
    3c54:	00000d14 	andeq	r0, r0, r4, lsl sp
    3c58:	38050428 	stmdacc	r5, {r3, r5, sl}
    3c5c:	00056602 	andeq	r6, r5, r2, lsl #12
    3c60:	0c8f1800 	stceq	8, cr1, [pc], {0}
    3c64:	3a050000 	bcc	143c6c <__bss_end__+0x139634>
    3c68:	00002502 	andeq	r2, r0, r2, lsl #10
    3c6c:	b4180000 	ldrlt	r0, [r8], #-0
    3c70:	0500000a 	streq	r0, [r0, #-10]
    3c74:	063b023f 			; <UNDEFINED> instruction: 0x063b023f
    3c78:	18040000 	stmdane	r4, {}	; <UNPREDICTABLE>
    3c7c:	00000ba8 	andeq	r0, r0, r8, lsr #23
    3c80:	3b023f05 	blcc	9389c <__bss_end__+0x89264>
    3c84:	08000006 	stmdaeq	r0, {r1, r2}
    3c88:	000b6918 	andeq	r6, fp, r8, lsl r9
    3c8c:	023f0500 	eorseq	r0, pc, #0, 10
    3c90:	0000063b 	andeq	r0, r0, fp, lsr r6
    3c94:	0ce8180c 	stcleq	8, cr1, [r8], #48	; 0x30
    3c98:	41050000 	mrsmi	r0, (UNDEF: 5)
    3c9c:	00002502 	andeq	r2, r0, r2, lsl #10
    3ca0:	df181000 	svcle	0x00181000
    3ca4:	05000009 	streq	r0, [r0, #-9]
    3ca8:	081d0242 	ldmdaeq	sp, {r1, r6, r9}
    3cac:	18140000 	ldmdane	r4, {}	; <UNPREDICTABLE>
    3cb0:	00000e06 	andeq	r0, r0, r6, lsl #28
    3cb4:	25024405 	strcs	r4, [r2, #-1029]	; 0x405
    3cb8:	30000000 	andcc	r0, r0, r0
    3cbc:	000cf218 	andeq	pc, ip, r8, lsl r2	; <UNPREDICTABLE>
    3cc0:	02450500 	subeq	r0, r5, #0, 10
    3cc4:	0000058a 	andeq	r0, r0, sl, lsl #11
    3cc8:	0c551834 	mrrceq	8, 3, r1, r5, cr4
    3ccc:	47050000 	strmi	r0, [r5, -r0]
    3cd0:	00002502 	andeq	r2, r0, r2, lsl #10
    3cd4:	02183800 	andseq	r3, r8, #0, 16
    3cd8:	0500000d 	streq	r0, [r0, #-13]
    3cdc:	08380249 	ldmdaeq	r8!, {r0, r3, r6, r9}
    3ce0:	183c0000 	ldmdane	ip!, {}	; <UNPREDICTABLE>
    3ce4:	00000be7 	andeq	r0, r0, r7, ror #23
    3ce8:	7c024c05 	stcvc	12, cr4, [r2], {5}
    3cec:	40000001 	andmi	r0, r0, r1
    3cf0:	000b8818 	andeq	r8, fp, r8, lsl r8
    3cf4:	024d0500 	subeq	r0, sp, #0, 10
    3cf8:	00000025 	andeq	r0, r0, r5, lsr #32
    3cfc:	0f101844 	svceq	0x00101844
    3d00:	4e050000 	cdpmi	0, 0, cr0, cr5, cr0, {0}
    3d04:	00017c02 	andeq	r7, r1, r2, lsl #24
    3d08:	6c184800 	ldcvs	8, cr4, [r8], {-0}
    3d0c:	0500000c 	streq	r0, [r0, #-12]
    3d10:	083e024f 	ldmdaeq	lr!, {r0, r1, r2, r3, r6, r9}
    3d14:	184c0000 	stmdane	ip, {}^	; <UNPREDICTABLE>
    3d18:	00000bb0 			; <UNDEFINED> instruction: 0x00000bb0
    3d1c:	25025205 	strcs	r5, [r2, #-517]	; 0x205
    3d20:	50000000 	andpl	r0, r0, r0
    3d24:	000ad718 	andeq	sp, sl, r8, lsl r7
    3d28:	02530500 	subseq	r0, r3, #0, 10
    3d2c:	0000010c 	andeq	r0, r0, ip, lsl #2
    3d30:	0c881854 	stceq	8, cr1, [r8], {84}	; 0x54
    3d34:	76050000 	strvc	r0, [r5], -r0
    3d38:	0007fb02 	andeq	pc, r7, r2, lsl #22
    3d3c:	4d195800 	ldcmi	8, cr5, [r9, #-0]
    3d40:	0500000c 	streq	r0, [r0, #-12]
    3d44:	0299027a 	addseq	r0, r9, #-1610612729	; 0xa0000007
    3d48:	01480000 	mrseq	r0, (UNDEF: 72)
    3d4c:	000bc519 	andeq	ip, fp, r9, lsl r5
    3d50:	027b0500 	rsbseq	r0, fp, #0, 10
    3d54:	0000025b 	andeq	r0, r0, fp, asr r2
    3d58:	7219014c 	andsvc	r0, r9, #76, 2
    3d5c:	0500000e 	streq	r0, [r0, #-14]
    3d60:	084f027f 	stmdaeq	pc, {r0, r1, r2, r3, r4, r5, r6, r9}^	; <UNPREDICTABLE>
    3d64:	02dc0000 	sbcseq	r0, ip, #0
    3d68:	000a9d19 	andeq	r9, sl, r9, lsl sp
    3d6c:	02840500 	addeq	r0, r4, #0, 10
    3d70:	00000600 	andeq	r0, r0, r0, lsl #12
    3d74:	821902e0 	andshi	r0, r9, #224, 4
    3d78:	0500000a 	streq	r0, [r0, #-10]
    3d7c:	085b0285 	ldmdaeq	fp, {r0, r2, r7, r9}^
    3d80:	02ec0000 	rsceq	r0, ip, #0
    3d84:	0b040e00 	bleq	10758c <__bss_end__+0xfcf54>
    3d88:	15000004 	strne	r0, [r0, #-4]
    3d8c:	00000025 	andeq	r0, r0, r5, lsr #32
    3d90:	0000058a 	andeq	r0, r0, sl, lsl #11
    3d94:	00042916 	andeq	r2, r4, r6, lsl r9
    3d98:	010a1600 	tsteq	sl, r0, lsl #12
    3d9c:	8a160000 	bhi	583da4 <__bss_end__+0x57976c>
    3da0:	16000005 	strne	r0, [r0], -r5
    3da4:	00000025 	andeq	r0, r0, r5, lsr #32
    3da8:	19040e00 	stmdbne	r4, {r9, sl, fp}
    3dac:	0e000001 	cdpeq	0, 0, cr0, cr0, cr1, {0}
    3db0:	00056c04 	andeq	r6, r5, r4, lsl #24
    3db4:	00861500 	addeq	r1, r6, r0, lsl #10
    3db8:	05b40000 	ldreq	r0, [r4, #0]!
    3dbc:	29160000 	ldmdbcs	r6, {}	; <UNPREDICTABLE>
    3dc0:	16000004 	strne	r0, [r0], -r4
    3dc4:	0000010a 	andeq	r0, r0, sl, lsl #2
    3dc8:	00008616 	andeq	r8, r0, r6, lsl r6
    3dcc:	00251600 	eoreq	r1, r5, r0, lsl #12
    3dd0:	0e000000 	cdpeq	0, 0, cr0, cr0, cr0, {0}
    3dd4:	00059604 	andeq	r9, r5, r4, lsl #12
    3dd8:	00251500 	eoreq	r1, r5, r0, lsl #10
    3ddc:	05ce0000 	strbeq	r0, [lr]
    3de0:	29160000 	ldmdbcs	r6, {}	; <UNPREDICTABLE>
    3de4:	16000004 	strne	r0, [r0], -r4
    3de8:	0000010a 	andeq	r0, r0, sl, lsl #2
    3dec:	ba040e00 	blt	1075f4 <__bss_end__+0xfcfbc>
    3df0:	09000005 	stmdbeq	r0, {r0, r2}
    3df4:	00000054 	andeq	r0, r0, r4, asr r0
    3df8:	000005e4 	andeq	r0, r0, r4, ror #11
    3dfc:	0000cc0a 	andeq	ip, r0, sl, lsl #24
    3e00:	09000200 	stmdbeq	r0, {r9}
    3e04:	00000054 	andeq	r0, r0, r4, asr r0
    3e08:	000005f4 	strdeq	r0, [r0], -r4
    3e0c:	0000cc0a 	andeq	ip, r0, sl, lsl #24
    3e10:	06000000 	streq	r0, [r0], -r0
    3e14:	00000cad 	andeq	r0, r0, sp, lsr #25
    3e18:	e1011d05 	tst	r1, r5, lsl #26
    3e1c:	1a000002 	bne	3e2c <__code_start__-0x41d4>
    3e20:	00000e34 	andeq	r0, r0, r4, lsr lr
    3e24:	0121050c 	teqeq	r1, ip, lsl #10
    3e28:	00000635 	andeq	r0, r0, r5, lsr r6
    3e2c:	000cd518 	andeq	sp, ip, r8, lsl r5
    3e30:	01230500 	teqeq	r3, r0, lsl #10
    3e34:	00000635 	andeq	r0, r0, r5, lsr r6
    3e38:	0bbe1800 	bleq	fef89e40 <__bss_end__+0xfef7f808>
    3e3c:	24050000 	strcs	r0, [r5], #-0
    3e40:	00002501 	andeq	r2, r0, r1, lsl #10
    3e44:	a7180400 	ldrge	r0, [r8, -r0, lsl #8]
    3e48:	0500000c 	streq	r0, [r0, #-12]
    3e4c:	063b0125 	ldrteq	r0, [fp], -r5, lsr #2
    3e50:	00080000 	andeq	r0, r8, r0
    3e54:	0600040e 	streq	r0, [r0], -lr, lsl #8
    3e58:	040e0000 	streq	r0, [lr], #-0
    3e5c:	000005f4 	strdeq	r0, [r0], -r4
    3e60:	0009d71a 	andeq	sp, r9, sl, lsl r7
    3e64:	3d050e00 	stccc	14, cr0, [r5, #-0]
    3e68:	00067601 	andeq	r7, r6, r1, lsl #12
    3e6c:	0d1b1800 	ldceq	8, cr1, [fp, #-0]
    3e70:	3e050000 	cdpcc	0, 0, cr0, cr5, cr0, {0}
    3e74:	00067601 	andeq	r7, r6, r1, lsl #12
    3e78:	55180000 	ldrpl	r0, [r8, #-0]
    3e7c:	0500000d 	streq	r0, [r0, #-13]
    3e80:	0676013f 			; <UNDEFINED> instruction: 0x0676013f
    3e84:	18060000 	stmdane	r6, {}	; <UNPREDICTABLE>
    3e88:	00000dd9 	ldrdeq	r0, [r0], -r9
    3e8c:	5b014005 	blpl	53ea8 <__bss_end__+0x49870>
    3e90:	0c000000 	stceq	0, cr0, [r0], {-0}
    3e94:	005b0900 	subseq	r0, fp, r0, lsl #18
    3e98:	06860000 	streq	r0, [r6], r0
    3e9c:	cc0a0000 	stcgt	0, cr0, [sl], {-0}
    3ea0:	02000000 	andeq	r0, r0, #0
    3ea4:	05d01b00 	ldrbeq	r1, [r0, #2816]	; 0xb00
    3ea8:	07870257 			; <UNDEFINED> instruction: 0x07870257
    3eac:	18180000 	ldmdane	r8, {}	; <UNPREDICTABLE>
    3eb0:	0500000e 	streq	r0, [r0, #-14]
    3eb4:	002c0259 	eoreq	r0, ip, r9, asr r2
    3eb8:	18000000 	stmdane	r0, {}	; <UNPREDICTABLE>
    3ebc:	00000dc3 	andeq	r0, r0, r3, asr #27
    3ec0:	0c025a05 	stceq	10, cr5, [r2], {5}
    3ec4:	04000001 	streq	r0, [r0], #-1
    3ec8:	000bda18 	andeq	sp, fp, r8, lsl sl
    3ecc:	025b0500 	subseq	r0, fp, #0, 10
    3ed0:	00000787 	andeq	r0, r0, r7, lsl #15
    3ed4:	0ee71808 	cdpeq	8, 14, cr1, cr7, cr8, {0}
    3ed8:	5c050000 	stcpl	0, cr0, [r5], {-0}
    3edc:	00019202 	andeq	r9, r1, r2, lsl #4
    3ee0:	79182400 	ldmdbvc	r8, {sl, sp}
    3ee4:	0500000b 	streq	r0, [r0, #-11]
    3ee8:	0025025d 	eoreq	r0, r5, sp, asr r2
    3eec:	18480000 	stmdane	r8, {}^	; <UNPREDICTABLE>
    3ef0:	00000cd0 	ldrdeq	r0, [r0], -r0	; <UNPREDICTABLE>
    3ef4:	69025e05 	stmdbvs	r2, {r0, r2, r9, sl, fp, ip, lr}
    3ef8:	50000000 	andpl	r0, r0, r0
    3efc:	000efd18 	andeq	pc, lr, r8, lsl sp	; <UNPREDICTABLE>
    3f00:	025f0500 	subseq	r0, pc, #0, 10
    3f04:	00000641 	andeq	r0, r0, r1, asr #12
    3f08:	0cdb1858 	ldcleq	8, cr1, [fp], {88}	; 0x58
    3f0c:	60050000 	andvs	r0, r5, r0
    3f10:	0000f402 	andeq	pc, r0, r2, lsl #8
    3f14:	02186800 	andseq	r6, r8, #0, 16
    3f18:	0500000f 	streq	r0, [r0, #-15]
    3f1c:	00f40261 	rscseq	r0, r4, r1, ror #4
    3f20:	18700000 	ldmdane	r0!, {}^	; <UNPREDICTABLE>
    3f24:	00000a3c 	andeq	r0, r0, ip, lsr sl
    3f28:	f4026205 	vst1.8	{d6-d9}, [r2], r5
    3f2c:	78000000 	stmdavc	r0, {}	; <UNPREDICTABLE>
    3f30:	000e5418 	andeq	r5, lr, r8, lsl r4
    3f34:	02630500 	rsbeq	r0, r3, #0, 10
    3f38:	00000797 	muleq	r0, r7, r7
    3f3c:	0bce1880 	bleq	ff38a144 <__bss_end__+0xff37fb0c>
    3f40:	64050000 	strvs	r0, [r5], #-0
    3f44:	0007a702 	andeq	sl, r7, r2, lsl #14
    3f48:	e6188800 	ldr	r8, [r8], -r0, lsl #16
    3f4c:	0500000d 	streq	r0, [r0, #-13]
    3f50:	00250265 	eoreq	r0, r5, r5, ror #4
    3f54:	18a00000 	stmiane	r0!, {}	; <UNPREDICTABLE>
    3f58:	00000b25 	andeq	r0, r0, r5, lsr #22
    3f5c:	f4026605 	vst1.8	{d6-d8}, [r2], r5
    3f60:	a4000000 	strge	r0, [r0], #-0
    3f64:	000a2d18 	andeq	r2, sl, r8, lsl sp
    3f68:	02670500 	rsbeq	r0, r7, #0, 10
    3f6c:	000000f4 	strdeq	r0, [r0], -r4
    3f70:	0b1418ac 	bleq	50a228 <__bss_end__+0x4ffbf0>
    3f74:	68050000 	stmdavs	r5, {}	; <UNPREDICTABLE>
    3f78:	0000f402 	andeq	pc, r0, r2, lsl #8
    3f7c:	f418b400 			; <UNDEFINED> instruction: 0xf418b400
    3f80:	05000009 	streq	r0, [r0, #-9]
    3f84:	00f40269 	rscseq	r0, r4, r9, ror #4
    3f88:	18bc0000 	ldmne	ip!, {}	; <UNPREDICTABLE>
    3f8c:	00000a03 	andeq	r0, r0, r3, lsl #20
    3f90:	f4026a05 	vst1.8	{d6-d7}, [r2], r5
    3f94:	c4000000 	strgt	r0, [r0], #-0
    3f98:	000c8d18 	andeq	r8, ip, r8, lsl sp
    3f9c:	026b0500 	rsbeq	r0, fp, #0, 10
    3fa0:	00000025 	andeq	r0, r0, r5, lsr #32
    3fa4:	120900cc 	andne	r0, r9, #204	; 0xcc
    3fa8:	97000001 	strls	r0, [r0, -r1]
    3fac:	0a000007 	beq	3fd0 <__code_start__-0x4030>
    3fb0:	000000cc 	andeq	r0, r0, ip, asr #1
    3fb4:	12090019 	andne	r0, r9, #25
    3fb8:	a7000001 	strge	r0, [r0, -r1]
    3fbc:	0a000007 	beq	3fe0 <__code_start__-0x4020>
    3fc0:	000000cc 	andeq	r0, r0, ip, asr #1
    3fc4:	12090007 	andne	r0, r9, #7
    3fc8:	b7000001 	strlt	r0, [r0, -r1]
    3fcc:	0a000007 	beq	3ff0 <__code_start__-0x4010>
    3fd0:	000000cc 	andeq	r0, r0, ip, asr #1
    3fd4:	f01b0017 			; <UNDEFINED> instruction: 0xf01b0017
    3fd8:	db027005 	blle	9fff4 <__bss_end__+0x959bc>
    3fdc:	18000007 	stmdane	r0, {r0, r1, r2}
    3fe0:	00000c3d 	andeq	r0, r0, sp, lsr ip
    3fe4:	db027305 	blle	a0c00 <__bss_end__+0x965c8>
    3fe8:	00000007 	andeq	r0, r0, r7
    3fec:	000e4b18 	andeq	r4, lr, r8, lsl fp
    3ff0:	02740500 	rsbseq	r0, r4, #0, 10
    3ff4:	000007eb 	andeq	r0, r0, fp, ror #15
    3ff8:	db090078 	blle	2441e0 <__bss_end__+0x239ba8>
    3ffc:	eb000002 	bl	400c <__code_start__-0x3ff4>
    4000:	0a000007 	beq	4024 <__code_start__-0x3fdc>
    4004:	000000cc 	andeq	r0, r0, ip, asr #1
    4008:	2c09001d 	stccs	0, cr0, [r9], {29}
    400c:	fb000000 	blx	4016 <__code_start__-0x3fea>
    4010:	0a000007 	beq	4034 <__code_start__-0x3fcc>
    4014:	000000cc 	andeq	r0, r0, ip, asr #1
    4018:	f01c001d 			; <UNDEFINED> instruction: 0xf01c001d
    401c:	1d025505 	cfstr32ne	mvfx5, [r2, #-20]	; 0xffffffec
    4020:	1d000008 	stcne	0, cr0, [r0, #-32]	; 0xffffffe0
    4024:	00000d14 	andeq	r0, r0, r4, lsl sp
    4028:	86026c05 	strhi	r6, [r2], -r5, lsl #24
    402c:	1d000006 	stcne	0, cr0, [r0, #-24]	; 0xffffffe8
    4030:	00000ea7 	andeq	r0, r0, r7, lsr #29
    4034:	b7027505 	strlt	r7, [r2, -r5, lsl #10]
    4038:	00000007 	andeq	r0, r0, r7
    403c:	00011209 	andeq	r1, r1, r9, lsl #4
    4040:	00082d00 	andeq	r2, r8, r0, lsl #26
    4044:	00cc0a00 	sbceq	r0, ip, r0, lsl #20
    4048:	00180000 	andseq	r0, r8, r0
    404c:	0008381e 	andeq	r3, r8, lr, lsl r8
    4050:	04291600 	strteq	r1, [r9], #-1536	; 0x600
    4054:	0e000000 	cdpeq	0, 0, cr0, cr0, cr0, {0}
    4058:	00082d04 	andeq	r2, r8, r4, lsl #26
    405c:	7c040e00 	stcvc	14, cr0, [r4], {-0}
    4060:	1e000001 	cdpne	0, 0, cr0, cr0, cr1, {0}
    4064:	0000084f 	andeq	r0, r0, pc, asr #16
    4068:	00002516 	andeq	r2, r0, r6, lsl r5
    406c:	040e0000 	streq	r0, [lr], #-0
    4070:	00000855 	andeq	r0, r0, r5, asr r8
    4074:	0844040e 	stmdaeq	r4, {r1, r2, r3, sl}^
    4078:	f4090000 	vst4.8	{d0-d3}, [r9], r0
    407c:	6b000005 	blvs	4098 <__code_start__-0x3f68>
    4080:	0a000008 	beq	40a8 <__code_start__-0x3f58>
    4084:	000000cc 	andeq	r0, r0, ip, asr #1
    4088:	fa1f0002 	blx	7c4098 <__bss_end__+0x7b9a60>
    408c:	0500000d 	streq	r0, [r0, #-13]
    4090:	042902fd 	strteq	r0, [r9], #-765	; 0x2fd
    4094:	f31f0000 	vhadd.u16	d0, d15, d0
    4098:	0500000d 	streq	r0, [r0, #-13]
    409c:	042f02fe 	strteq	r0, [pc], #-766	; 40a4 <__code_start__-0x3f5c>
    40a0:	25150000 	ldrcs	r0, [r5, #-0]
    40a4:	92000000 	andls	r0, r0, #0
    40a8:	16000008 	strne	r0, [r0], -r8
    40ac:	00000025 	andeq	r0, r0, r5, lsr #32
    40b0:	05f42000 	ldrbeq	r2, [r4, #0]!
    40b4:	1d060000 	stcne	0, cr0, [r6, #-0]
    40b8:	0000089d 	muleq	r0, sp, r8
    40bc:	0883040e 	stmeq	r3, {r1, r2, r3, sl}
    40c0:	25150000 	ldrcs	r0, [r5, #-0]
    40c4:	b2000000 	andlt	r0, r0, #0
    40c8:	16000008 	strne	r0, [r0], -r8
    40cc:	0000058a 	andeq	r0, r0, sl, lsl #11
    40d0:	06312000 	ldrteq	r2, [r1], -r0
    40d4:	22060000 	andcs	r0, r6, #0
    40d8:	000008bd 			; <UNDEFINED> instruction: 0x000008bd
    40dc:	08a3040e 	stmiaeq	r3!, {r1, r2, r3, sl}
    40e0:	01210000 	teqeq	r1, r0
    40e4:	00000054 	andeq	r0, r0, r4, asr r0
    40e8:	09000c08 	stmdbeq	r0, {r3, sl, fp}
    40ec:	1d220000 	stcne	0, cr0, [r2, #-0]
    40f0:	0000000a 	andeq	r0, r0, sl
    40f4:	000e3a22 	andeq	r3, lr, r2, lsr #20
    40f8:	92220100 	eorls	r0, r2, #0, 2
    40fc:	0400000e 	streq	r0, [r0], #-14
    4100:	000a5e22 	andeq	r5, sl, r2, lsr #28
    4104:	f5220500 			; <UNDEFINED> instruction: 0xf5220500
    4108:	0600000b 	streq	r0, [r0], -fp
    410c:	000eaf22 	andeq	sl, lr, r2, lsr #30
    4110:	be220700 	cdplt	7, 2, cr0, cr2, cr0, {0}
    4114:	0300000e 	movweq	r0, #14
    4118:	000ecd22 	andeq	ip, lr, r2, lsr #26
    411c:	10000200 	andne	r0, r0, r0, lsl #4
    4120:	00000acb 	andeq	r0, r0, fp, asr #21
    4124:	9006072c 	andls	r0, r6, ip, lsr #14
    4128:	11000009 	tstne	r0, r9
    412c:	07006f69 	streq	r6, [r0, -r9, ror #30]
    4130:	00003309 	andeq	r3, r0, r9, lsl #6
    4134:	69110000 	ldmdbvs	r1, {}	; <UNPREDICTABLE>
    4138:	07007265 	streq	r7, [r0, -r5, ror #4]
    413c:	0000330a 	andeq	r3, r0, sl, lsl #6
    4140:	69110400 	ldmdbvs	r1, {sl}
    4144:	07007269 	streq	r7, [r0, -r9, ror #4]
    4148:	00003311 	andeq	r3, r0, r1, lsl r3
    414c:	6c110800 	ldcvs	8, cr0, [r1], {-0}
    4150:	07007263 	streq	r7, [r0, -r3, ror #4]
    4154:	00003313 	andeq	r3, r0, r3, lsl r3
    4158:	6d110c00 	ldcvs	12, cr0, [r1, #-0]
    415c:	07007263 	streq	r7, [r0, -r3, ror #4]
    4160:	00003314 	andeq	r3, r0, r4, lsl r3
    4164:	6c111000 	ldcvs	0, cr1, [r1], {-0}
    4168:	07007273 	smlsdxeq	r0, r3, r2, r7
    416c:	00003315 	andeq	r3, r0, r5, lsl r3
    4170:	6d111400 	cfldrsvs	mvf1, [r1, #-0]
    4174:	07007273 	smlsdxeq	r0, r3, r2, r7
    4178:	00003316 	andeq	r3, r0, r6, lsl r3
    417c:	4d0c1800 	stcmi	8, cr1, [ip, #-0]
    4180:	0700000d 	streq	r0, [r0, -sp]
    4184:	00003317 	andeq	r3, r0, r7, lsl r3
    4188:	730c1c00 	movwvc	r1, #52224	; 0xcc00
    418c:	0700000a 	streq	r0, [r0, -sl]
    4190:	0000331b 	andeq	r3, r0, fp, lsl r3
    4194:	530c2000 	movwpl	r2, #49152	; 0xc000
    4198:	0700000a 	streq	r0, [r0, -sl]
    419c:	0000331d 	andeq	r3, r0, sp, lsl r3
    41a0:	370c2400 	strcc	r2, [ip, -r0, lsl #8]
    41a4:	0700000d 	streq	r0, [r0, -sp]
    41a8:	0000331e 	andeq	r3, r0, lr, lsl r3
    41ac:	23002800 	movwcs	r2, #2048	; 0x800
    41b0:	00000b3b 	andeq	r0, r0, fp, lsr fp
    41b4:	09a50701 	stmibeq	r5!, {r0, r8, r9, sl}
    41b8:	50040000 	andpl	r0, r4, r0
    41bc:	040e2021 	streq	r2, [lr], #-33	; 0x21
    41c0:	00000033 	andeq	r0, r0, r3, lsr r0
    41c4:	00099f0f 	andeq	r9, r9, pc, lsl #30
    41c8:	0c672300 	stcleq	3, cr2, [r7], #-0
    41cc:	28010000 	stmdacs	r1, {}	; <UNPREDICTABLE>
    41d0:	000009bf 			; <UNDEFINED> instruction: 0x000009bf
    41d4:	20215040 	eorcs	r5, r1, r0, asr #32
    41d8:	0900040e 	stmdbeq	r0, {r1, r2, r3, sl}
    41dc:	b90f0000 	stmdblt	pc, {}	; <UNPREDICTABLE>
    41e0:	24000009 	strcs	r0, [r0], #-9
    41e4:	00000e84 	andeq	r0, r0, r4, lsl #29
    41e8:	0025a701 	eoreq	sl, r5, r1, lsl #14
    41ec:	98f80000 	ldmls	r8!, {}^	; <UNPREDICTABLE>
    41f0:	00100000 	andseq	r0, r0, r0
    41f4:	9c010000 	stcls	0, cr0, [r1], {-0}
    41f8:	000009f0 	strdeq	r0, [r0], -r0	; <UNPREDICTABLE>
    41fc:	00990025 	addseq	r0, r9, r5, lsr #32
    4200:	000c9c00 	andeq	r9, ip, r0, lsl #24
    4204:	99042500 	stmdbls	r4, {r8, sl, sp}
    4208:	0ad20000 	beq	ff484210 <__bss_end__+0xff479bd8>
    420c:	26000000 	strcs	r0, [r0], -r0
    4210:	000005d9 	ldrdeq	r0, [r0], -r9
    4214:	98c89f01 	stmials	r8, {r0, r8, r9, sl, fp, ip, pc}^
    4218:	00300000 	eorseq	r0, r0, r0
    421c:	9c010000 	stcls	0, cr0, [r1], {-0}
    4220:	00000a4e 	andeq	r0, r0, lr, asr #20
    4224:	01006327 	tsteq	r0, r7, lsr #6
    4228:	00002c9f 	muleq	r0, pc, ip	; <UNPREDICTABLE>
    422c:	000f3e00 	andeq	r3, pc, r0, lsl #28
    4230:	98d42500 	ldmls	r4, {r8, sl, sp}^
    4234:	0c9c0000 	ldceq	0, cr0, [ip], {0}
    4238:	d8250000 	stmdale	r5!, {}	; <UNPREDICTABLE>
    423c:	a5000098 	strge	r0, [r0, #-152]	; 0x98
    4240:	2800000a 	stmdacs	r0, {r1, r3}
    4244:	000098ec 	andeq	r9, r0, ip, ror #17
    4248:	00000ca7 	andeq	r0, r0, r7, lsr #25
    424c:	00000a44 	andeq	r0, r0, r4, asr #20
    4250:	05500129 	ldrbeq	r0, [r0, #-297]	; 0x129
    4254:	2150400c 	cmpcs	r0, ip
    4258:	51012920 	tstpl	r1, r0, lsr #18
    425c:	08007405 	stmdaeq	r0, {r0, r2, sl, ip, sp, lr}
    4260:	25001aff 	strcs	r1, [r0, #-2815]	; 0xaff
    4264:	000098f0 	strdeq	r9, [r0], -r0
    4268:	00000c9c 	muleq	r0, ip, ip
    426c:	0b9e2400 	bleq	fe78d274 <__bss_end__+0xfe782c3c>
    4270:	97010000 	strls	r0, [r1, -r0]
    4274:	00000025 	andeq	r0, r0, r5, lsr #32
    4278:	00009898 	muleq	r0, r8, r8
    427c:	00000030 	andeq	r0, r0, r0, lsr r0
    4280:	0aa59c01 	beq	fe96b28c <__bss_end__+0xfe960c54>
    4284:	632a0000 	teqvs	sl, #0
    4288:	259b0100 	ldrcs	r0, [fp, #256]	; 0x100
    428c:	01000000 	mrseq	r0, (UNDEF: 0)
    4290:	98a02554 	stmials	r0!, {r2, r4, r6, r8, sl, sp}
    4294:	0c9c0000 	ldceq	0, cr0, [ip], {0}
    4298:	a4250000 	strtge	r0, [r5], #-0
    429c:	d2000098 	andle	r0, r0, #152	; 0x98
    42a0:	2800000a 	stmdacs	r0, {r1, r3}
    42a4:	000098b4 			; <UNDEFINED> instruction: 0x000098b4
    42a8:	00000cb2 			; <UNDEFINED> instruction: 0x00000cb2
    42ac:	00000a9b 	muleq	r0, fp, sl
    42b0:	05500129 	ldrbeq	r0, [r0, #-297]	; 0x129
    42b4:	2150400c 	cmpcs	r0, ip
    42b8:	bc250020 	stclt	0, cr0, [r5], #-128	; 0xffffff80
    42bc:	9c000098 	stcls	0, cr0, [r0], {152}	; 0x98
    42c0:	0000000c 	andeq	r0, r0, ip
    42c4:	000b5224 	andeq	r5, fp, r4, lsr #4
    42c8:	25880100 	strcs	r0, [r8, #256]	; 0x100
    42cc:	78000000 	stmdavc	r0, {}	; <UNPREDICTABLE>
    42d0:	20000098 	mulcs	r0, r8, r0
    42d4:	01000000 	mrseq	r0, (UNDEF: 0)
    42d8:	000ad29c 	muleq	sl, ip, r2
    42dc:	98842b00 	stmls	r4, {r8, r9, fp, sp}
    42e0:	0cb20000 	ldceq	0, cr0, [r2]
    42e4:	01290000 	teqeq	r9, r0
    42e8:	640c0550 	strvs	r0, [ip], #-1360	; 0x550
    42ec:	00202150 	eoreq	r2, r0, r0, asr r1
    42f0:	0e642400 	cdpeq	4, 6, cr2, cr4, cr0, {0}
    42f4:	7f010000 	svcvc	0x00010000
    42f8:	00000025 	andeq	r0, r0, r5, lsr #32
    42fc:	00009860 	andeq	r9, r0, r0, ror #16
    4300:	00000018 	andeq	r0, r0, r8, lsl r0
    4304:	0aff9c01 	beq	fffeb310 <__bss_end__+0xfffe0cd8>
    4308:	6c2b0000 	stcvs	0, cr0, [fp], #-0
    430c:	b2000098 	andlt	r0, r0, #152	; 0x98
    4310:	2900000c 	stmdbcs	r0, {r2, r3}
    4314:	0c055001 	stceq	0, cr5, [r5], {1}
    4318:	20215064 	eorcs	r5, r1, r4, rrx
    431c:	ea260000 	b	984324 <__bss_end__+0x979cec>
    4320:	01000009 	tsteq	r0, r9
    4324:	0097b03a 	addseq	fp, r7, sl, lsr r0
    4328:	0000b000 	andeq	fp, r0, r0
    432c:	3d9c0100 	ldfccs	f0, [ip]
    4330:	2800000c 	stmdacs	r0, {r2, r3}
    4334:	000097c0 	andeq	r9, r0, r0, asr #15
    4338:	00000cbd 			; <UNDEFINED> instruction: 0x00000cbd
    433c:	00000b2c 	andeq	r0, r0, ip, lsr #22
    4340:	01500129 	cmpeq	r0, r9, lsr #2
    4344:	5101293e 	tstpl	r1, lr, lsr r9
    4348:	28003201 	stmdacs	r0, {r0, r9, ip, sp}
    434c:	000097cc 	andeq	r9, r0, ip, asr #15
    4350:	00000cbd 			; <UNDEFINED> instruction: 0x00000cbd
    4354:	00000b44 	andeq	r0, r0, r4, asr #22
    4358:	01500129 	cmpeq	r0, r9, lsr #2
    435c:	5101293f 	tstpl	r1, pc, lsr r9
    4360:	25003201 	strcs	r3, [r0, #-513]	; 0x201
    4364:	000097d0 	ldrdeq	r9, [r0], -r0
    4368:	00000c9c 	muleq	r0, ip, ip
    436c:	0097dc28 	addseq	sp, r7, r8, lsr #24
    4370:	000c3d00 	andeq	r3, ip, r0, lsl #26
    4374:	000b6900 	andeq	r6, fp, r0, lsl #18
    4378:	50012900 	andpl	r2, r1, r0, lsl #18
    437c:	50040c05 	andpl	r0, r4, r5, lsl #24
    4380:	01292021 	teqeq	r9, r1, lsr #32
    4384:	00310151 	eorseq	r0, r1, r1, asr r1
    4388:	0097e025 	addseq	lr, r7, r5, lsr #32
    438c:	000c9c00 	andeq	r9, ip, r0, lsl #24
    4390:	97f02800 	ldrbls	r2, [r0, r0, lsl #16]!
    4394:	0ca70000 	stceq	0, cr0, [r7]
    4398:	0b8b0000 	bleq	fe2c43a0 <__bss_end__+0xfe2b9d68>
    439c:	01290000 	teqeq	r9, r0
    43a0:	00740250 	rsbseq	r0, r4, r0, asr r2
    43a4:	01510129 	cmpeq	r1, r9, lsr #2
    43a8:	fc280030 	stc2	0, cr0, [r8], #-192	; 0xffffff40
    43ac:	a7000097 			; <UNDEFINED> instruction: 0xa7000097
    43b0:	a700000c 	strge	r0, [r0, -ip]
    43b4:	2900000b 	stmdbcs	r0, {r0, r1, r3}
    43b8:	0c055001 	stceq	0, cr5, [r5], {1}
    43bc:	20215044 	eorcs	r5, r1, r4, asr #32
    43c0:	01510129 	cmpeq	r1, r9, lsr #2
    43c4:	08280030 	stmdaeq	r8!, {r4, r5}
    43c8:	a7000098 			; <UNDEFINED> instruction: 0xa7000098
    43cc:	c300000c 	movwgt	r0, #12
    43d0:	2900000b 	stmdbcs	r0, {r0, r1, r3}
    43d4:	0c055001 	stceq	0, cr5, [r5], {1}
    43d8:	2021504c 	eorcs	r5, r1, ip, asr #32
    43dc:	01510129 	cmpeq	r1, r9, lsr #2
    43e0:	14280033 	strtne	r0, [r8], #-51	; 0x33
    43e4:	a7000098 			; <UNDEFINED> instruction: 0xa7000098
    43e8:	df00000c 	svcle	0x0000000c
    43ec:	2900000b 	stmdbcs	r0, {r0, r1, r3}
    43f0:	0c055001 	stceq	0, cr5, [r5], {1}
    43f4:	20215050 	eorcs	r5, r1, r0, asr r0
    43f8:	01510129 	cmpeq	r1, r9, lsr #2
    43fc:	20280030 	eorcs	r0, r8, r0, lsr r0
    4400:	a7000098 			; <UNDEFINED> instruction: 0xa7000098
    4404:	fc00000c 	stc2	0, cr0, [r0], {12}
    4408:	2900000b 	stmdbcs	r0, {r0, r1, r3}
    440c:	0c055001 	stceq	0, cr5, [r5], {1}
    4410:	20215048 	eorcs	r5, r1, r8, asr #32
    4414:	02510129 	subseq	r0, r1, #1073741834	; 0x4000000a
    4418:	2800c708 	stmdacs	r0, {r3, r8, r9, sl, lr, pc}
    441c:	0000982c 	andeq	r9, r0, ip, lsr #16
    4420:	00000ca7 	andeq	r0, r0, r7, lsr #25
    4424:	00000c1a 	andeq	r0, r0, sl, lsl ip
    4428:	05500129 	ldrbeq	r0, [r0, #-297]	; 0x129
    442c:	2150680c 	cmpcs	r0, ip, lsl #16
    4430:	51012920 	tstpl	r1, r0, lsr #18
    4434:	010e0a03 	tsteq	lr, r3, lsl #20
    4438:	98382800 	ldmdals	r8!, {fp, sp}
    443c:	0ca70000 	stceq	0, cr0, [r7]
    4440:	0c330000 	ldceq	0, cr0, [r3], #-0
    4444:	01290000 	teqeq	r9, r0
    4448:	00740250 	rsbseq	r0, r4, r0, asr r2
    444c:	01510129 	cmpeq	r1, r9, lsr #2
    4450:	3c250033 	stccc	0, cr0, [r5], #-204	; 0xffffff34
    4454:	9c000098 	stcls	0, cr0, [r0], {152}	; 0x98
    4458:	0000000c 	andeq	r0, r0, ip
    445c:	000e7c2c 	andeq	r7, lr, ip, lsr #24
    4460:	902d0100 	eorls	r0, sp, r0, lsl #2
    4464:	20000097 	mulcs	r0, r7, r0
    4468:	01000000 	mrseq	r0, (UNDEF: 0)
    446c:	000c959c 	muleq	ip, ip, r5
    4470:	02292d00 	eoreq	r2, r9, #0, 26
    4474:	2d010000 	stccs	0, cr0, [r1, #-0]
    4478:	00000c95 	muleq	r0, r5, ip
    447c:	00000f5c 	andeq	r0, r0, ip, asr pc
    4480:	6c617627 	stclvs	6, cr7, [r1], #-156	; 0xffffff64
    4484:	2c2d0100 	stfcss	f0, [sp], #-0
    4488:	7a000000 	bvc	4490 <__code_start__-0x3b70>
    448c:	2800000f 	stmdacs	r0, {r0, r1, r2, r3}
    4490:	000097a0 	andeq	r9, r0, r0, lsr #15
    4494:	00000cb2 			; <UNDEFINED> instruction: 0x00000cb2
    4498:	00000c84 	andeq	r0, r0, r4, lsl #25
    449c:	02500129 	subseq	r0, r0, #1073741834	; 0x4000000a
    44a0:	2b000074 	blcs	4678 <__code_start__-0x3988>
    44a4:	000097ac 	andeq	r9, r0, ip, lsr #15
    44a8:	00000ca7 	andeq	r0, r0, r7, lsr #25
    44ac:	02500129 	subseq	r0, r0, #1073741834	; 0x4000000a
    44b0:	00000074 	andeq	r0, r0, r4, ror r0
    44b4:	0c9b040e 	cfldrseq	mvf0, [fp], {14}
    44b8:	2f2e0000 	svccs	0x002e0000
    44bc:	000008a0 	andeq	r0, r0, r0, lsr #17
    44c0:	000008a0 	andeq	r0, r0, r0, lsr #17
    44c4:	5b2f8906 	blpl	be68e4 <__bss_end__+0xbdc2ac>
    44c8:	5b00000d 	blpl	4504 <__code_start__-0x3afc>
    44cc:	0600000d 	streq	r0, [r0], -sp
    44d0:	0e5e2f9c 	mrceq	15, 2, r2, cr14, cr12, {4}
    44d4:	0e5e0000 	cdpeq	0, 5, cr0, cr14, cr0, {0}
    44d8:	a8060000 	stmdage	r6, {}	; <UNPREDICTABLE>
    44dc:	000c2b2f 	andeq	r2, ip, pc, lsr #22
    44e0:	000c2b00 	andeq	r2, ip, r0, lsl #22
    44e4:	00190800 	andseq	r0, r9, r0, lsl #16
    44e8:	00000b70 	andeq	r0, r0, r0, ror fp
    44ec:	163f0004 	ldrtne	r0, [pc], -r4
    44f0:	01040000 	mrseq	r0, (UNDEF: 4)
    44f4:	00000d61 	andeq	r0, r0, r1, ror #26
    44f8:	000f310c 	andeq	r3, pc, ip, lsl #2
    44fc:	000adf00 	andeq	sp, sl, r0, lsl #30
    4500:	00990800 	addseq	r0, r9, r0, lsl #16
    4504:	00012000 	andeq	r2, r1, r0
    4508:	00118a00 	andseq	r8, r1, r0, lsl #20
    450c:	05040200 	streq	r0, [r4, #-512]	; 0x200
    4510:	00746e69 	rsbseq	r6, r4, r9, ror #28
    4514:	e7070403 	str	r0, [r7, -r3, lsl #8]
    4518:	04000001 	streq	r0, [r0], #-1
    451c:	0000002c 	andeq	r0, r0, ip, lsr #32
    4520:	10060103 	andne	r0, r6, r3, lsl #2
    4524:	03000001 	movweq	r0, #1
    4528:	00430502 	subeq	r0, r3, r2, lsl #10
    452c:	04030000 	streq	r0, [r3], #-0
    4530:	00021105 	andeq	r1, r2, r5, lsl #2
    4534:	05080300 	streq	r0, [r8, #-768]	; 0x300
    4538:	0000020c 	andeq	r0, r0, ip, lsl #4
    453c:	0e080103 	adfeqe	f0, f0, f3
    4540:	03000001 	movweq	r0, #1
    4544:	00210702 	eoreq	r0, r1, r2, lsl #14
    4548:	04030000 	streq	r0, [r3], #-0
    454c:	0001e207 	andeq	lr, r1, r7, lsl #4
    4550:	07080300 	streq	r0, [r8, -r0, lsl #6]
    4554:	000001dd 	ldrdeq	r0, [r0], -sp
    4558:	000c7605 	andeq	r7, ip, r5, lsl #12
    455c:	25070200 	strcs	r0, [r7, #-512]	; 0x200
    4560:	05000000 	streq	r0, [r0, #-0]
    4564:	00000c60 	andeq	r0, r0, r0, ror #24
    4568:	00462c03 	subeq	r2, r6, r3, lsl #24
    456c:	3c050000 	stccc	0, cr0, [r5], {-0}
    4570:	0300000d 	movweq	r0, #13
    4574:	00004672 	andeq	r4, r0, r2, ror r6
    4578:	0c040600 	stceq	6, cr0, [r4], {-0}
    457c:	65040000 	strvs	r0, [r4, #-0]
    4580:	00002c01 	andeq	r2, r0, r1, lsl #24
    4584:	03040700 	movweq	r0, #18176	; 0x4700
    4588:	0000bca6 	andeq	fp, r0, r6, lsr #25
    458c:	0bef0800 	bleq	ffbc6594 <__bss_end__+0xffbbbf5c>
    4590:	a8030000 	stmdage	r3, {}	; <UNPREDICTABLE>
    4594:	00000091 	muleq	r0, r1, r0
    4598:	000b9708 	andeq	r9, fp, r8, lsl #14
    459c:	bca90300 	stclt	3, cr0, [r9]
    45a0:	00000000 	andeq	r0, r0, r0
    45a4:	00005409 	andeq	r5, r0, r9, lsl #8
    45a8:	0000cc00 	andeq	ip, r0, r0, lsl #24
    45ac:	00cc0a00 	sbceq	r0, ip, r0, lsl #20
    45b0:	00030000 	andeq	r0, r3, r0
    45b4:	03070403 	movweq	r0, #29699	; 0x7403
    45b8:	0b000002 	bleq	45c8 <__code_start__-0x3a38>
    45bc:	f4a30308 	vld4.8	{d0[0],d1[0],d2[0],d3[0]}, [r3], r8
    45c0:	0c000000 	stceq	0, cr0, [r0], {-0}
    45c4:	00000d21 	andeq	r0, r0, r1, lsr #26
    45c8:	0025a503 	eoreq	sl, r5, r3, lsl #10
    45cc:	0c000000 	stceq	0, cr0, [r0], {-0}
    45d0:	00000d29 	andeq	r0, r0, r9, lsr #26
    45d4:	009daa03 	addseq	sl, sp, r3, lsl #20
    45d8:	00040000 	andeq	r0, r4, r0
    45dc:	000cb405 	andeq	fp, ip, r5, lsl #8
    45e0:	d3ab0300 			; <UNDEFINED> instruction: 0xd3ab0300
    45e4:	05000000 	streq	r0, [r0, #-0]
    45e8:	00000b60 	andeq	r0, r0, r0, ror #22
    45ec:	0070af03 	rsbseq	sl, r0, r3, lsl #30
    45f0:	040d0000 	streq	r0, [sp], #-0
    45f4:	0112040e 	tsteq	r2, lr, lsl #8
    45f8:	01030000 	mrseq	r0, (UNDEF: 3)
    45fc:	00011708 	andeq	r1, r1, r8, lsl #14
    4600:	01120400 	tsteq	r2, r0, lsl #8
    4604:	de050000 	cdple	0, 0, cr0, cr5, cr0, {0}
    4608:	0500000d 	streq	r0, [r0, #-13]
    460c:	00006216 	andeq	r6, r0, r6, lsl r2
    4610:	0b710f00 	bleq	1c48218 <__bss_end__+0x1c3dbe0>
    4614:	05180000 	ldreq	r0, [r8, #-0]
    4618:	00017c2d 	andeq	r7, r1, sp, lsr #24
    461c:	0cd50c00 	ldcleq	12, cr0, [r5], {0}
    4620:	2f050000 	svccs	0x00050000
    4624:	0000017c 	andeq	r0, r0, ip, ror r1
    4628:	6b5f1000 	blvs	17c8630 <__bss_end__+0x17bdff8>
    462c:	25300500 	ldrcs	r0, [r0, #-1280]!	; 0x500
    4630:	04000000 	streq	r0, [r0], #-0
    4634:	000d0c0c 	andeq	r0, sp, ip, lsl #24
    4638:	25300500 	ldrcs	r0, [r0, #-1280]!	; 0x500
    463c:	08000000 	stmdaeq	r0, {}	; <UNPREDICTABLE>
    4640:	000b4c0c 	andeq	r4, fp, ip, lsl #24
    4644:	25300500 	ldrcs	r0, [r0, #-1280]!	; 0x500
    4648:	0c000000 	stceq	0, cr0, [r0], {-0}
    464c:	000e250c 	andeq	r2, lr, ip, lsl #10
    4650:	25300500 	ldrcs	r0, [r0, #-1280]!	; 0x500
    4654:	10000000 	andne	r0, r0, r0
    4658:	00785f10 	rsbseq	r5, r8, r0, lsl pc
    465c:	01823105 	orreq	r3, r2, r5, lsl #2
    4660:	00140000 	andseq	r0, r4, r0
    4664:	0129040e 	teqeq	r9, lr, lsl #8
    4668:	1e090000 	cdpne	0, 0, cr0, cr9, cr0, {0}
    466c:	92000001 	andls	r0, r0, #1
    4670:	0a000001 	beq	467c <__code_start__-0x3984>
    4674:	000000cc 	andeq	r0, r0, ip, asr #1
    4678:	920f0000 	andls	r0, pc, #0
    467c:	2400000b 	strcs	r0, [r0], #-11
    4680:	020b3505 	andeq	r3, fp, #20971520	; 0x1400000
    4684:	4a0c0000 	bmi	30468c <__bss_end__+0x2fa054>
    4688:	0500000a 	streq	r0, [r0, #-10]
    468c:	00002537 	andeq	r2, r0, r7, lsr r5
    4690:	440c0000 	strmi	r0, [ip], #-0
    4694:	0500000d 	streq	r0, [r0, #-13]
    4698:	00002538 	andeq	r2, r0, r8, lsr r5
    469c:	780c0400 	stmdavc	ip, {sl}
    46a0:	0500000a 	streq	r0, [r0, #-10]
    46a4:	00002539 	andeq	r2, r0, r9, lsr r5
    46a8:	150c0800 	strne	r0, [ip, #-2048]	; 0x800
    46ac:	0500000f 	streq	r0, [r0, #-15]
    46b0:	0000253a 	andeq	r2, r0, sl, lsr r5
    46b4:	440c0c00 	strmi	r0, [ip], #-3072	; 0xc00
    46b8:	0500000c 	streq	r0, [r0, #-12]
    46bc:	0000253b 	andeq	r2, r0, fp, lsr r5
    46c0:	190c1000 	stmdbne	ip, {ip}
    46c4:	0500000c 	streq	r0, [r0, #-12]
    46c8:	0000253c 	andeq	r2, r0, ip, lsr r5
    46cc:	2a0c1400 	bcs	3096d4 <__bss_end__+0x2ff09c>
    46d0:	0500000e 	streq	r0, [r0, #-14]
    46d4:	0000253d 	andeq	r2, r0, sp, lsr r5
    46d8:	960c1800 	strls	r1, [ip], -r0, lsl #16
    46dc:	0500000c 	streq	r0, [r0, #-12]
    46e0:	0000253e 	andeq	r2, r0, lr, lsr r5
    46e4:	dc0c1c00 	stcle	12, cr1, [ip], {-0}
    46e8:	0500000e 	streq	r0, [r0, #-14]
    46ec:	0000253f 	andeq	r2, r0, pc, lsr r5
    46f0:	11002000 	mrsne	r2, (UNDEF: 0)
    46f4:	00000a87 	andeq	r0, r0, r7, lsl #21
    46f8:	48050108 	stmdami	r5, {r3, r8}
    46fc:	0000024b 	andeq	r0, r0, fp, asr #4
    4700:	000b330c 	andeq	r3, fp, ip, lsl #6
    4704:	4b490500 	blmi	1245b0c <__bss_end__+0x123b4d4>
    4708:	00000002 	andeq	r0, r0, r2
    470c:	0009c50c 	andeq	ip, r9, ip, lsl #10
    4710:	4b4a0500 	blmi	1285b18 <__bss_end__+0x127b4e0>
    4714:	80000002 	andhi	r0, r0, r2
    4718:	000dd012 	andeq	sp, sp, r2, lsl r0
    471c:	1e4c0500 	cdpne	5, 4, cr0, cr12, cr0, {0}
    4720:	00000001 	andeq	r0, r0, r1
    4724:	0aac1201 	beq	feb08f30 <__bss_end__+0xfeafe8f8>
    4728:	4f050000 	svcmi	0x00050000
    472c:	0000011e 	andeq	r0, r0, lr, lsl r1
    4730:	09000104 	stmdbeq	r0, {r2, r8}
    4734:	0000010a 	andeq	r0, r0, sl, lsl #2
    4738:	0000025b 	andeq	r0, r0, fp, asr r2
    473c:	0000cc0a 	andeq	ip, r0, sl, lsl #24
    4740:	11001f00 	tstne	r0, r0, lsl #30
    4744:	00000c4d 	andeq	r0, r0, sp, asr #24
    4748:	5b050190 	blpl	144d90 <__bss_end__+0x13a758>
    474c:	00000299 	muleq	r0, r9, r2
    4750:	000cd50c 	andeq	sp, ip, ip, lsl #10
    4754:	995c0500 	ldmdbls	ip, {r8, sl}^
    4758:	00000002 	andeq	r0, r0, r2
    475c:	000ced0c 	andeq	lr, ip, ip, lsl #26
    4760:	255d0500 	ldrbcs	r0, [sp, #-1280]	; 0x500
    4764:	04000000 	streq	r0, [r0], #-0
    4768:	000b470c 	andeq	r4, fp, ip, lsl #14
    476c:	9f5f0500 	svcls	0x005f0500
    4770:	08000002 	stmdaeq	r0, {r1}
    4774:	000a870c 	andeq	r8, sl, ip, lsl #14
    4778:	0b600500 	bleq	1805b80 <__bss_end__+0x17fb548>
    477c:	88000002 	stmdahi	r0, {r1}
    4780:	5b040e00 	blpl	107f88 <__bss_end__+0xfd950>
    4784:	09000002 	stmdbeq	r0, {r1}
    4788:	000002af 	andeq	r0, r0, pc, lsr #5
    478c:	000002af 	andeq	r0, r0, pc, lsr #5
    4790:	0000cc0a 	andeq	ip, r0, sl, lsl #24
    4794:	0e001f00 	cdpeq	15, 0, cr1, cr0, cr0, {0}
    4798:	0002b504 	andeq	fp, r2, r4, lsl #10
    479c:	a00f1300 	andge	r1, pc, r0, lsl #6
    47a0:	0800000c 	stmdaeq	r0, {r2, r3}
    47a4:	02db7305 	sbcseq	r7, fp, #335544320	; 0x14000000
    47a8:	6d0c0000 	stcvs	0, cr0, [ip, #-0]
    47ac:	0500000a 	streq	r0, [r0, #-10]
    47b0:	0002db74 	andeq	sp, r2, r4, ror fp
    47b4:	d10c0000 	mrsle	r0, (UNDEF: 12)
    47b8:	05000009 	streq	r0, [r0, #-9]
    47bc:	00002575 	andeq	r2, r0, r5, ror r5
    47c0:	0e000400 	cfcpyseq	mvf0, mvf0
    47c4:	00005404 	andeq	r5, r0, r4, lsl #8
    47c8:	0cbf0f00 	ldceq	15, cr0, [pc]	; 47d0 <__code_start__-0x3830>
    47cc:	05680000 	strbeq	r0, [r8, #-0]!
    47d0:	00040bb3 			; <UNDEFINED> instruction: 0x00040bb3
    47d4:	705f1000 	subsvc	r1, pc, r0
    47d8:	dbb40500 	blle	fed05be0 <__bss_end__+0xfecfb5a8>
    47dc:	00000002 	andeq	r0, r0, r2
    47e0:	00725f10 	rsbseq	r5, r2, r0, lsl pc
    47e4:	0025b505 	eoreq	fp, r5, r5, lsl #10
    47e8:	10040000 	andne	r0, r4, r0
    47ec:	0500775f 	streq	r7, [r0, #-1887]	; 0x75f
    47f0:	000025b6 			; <UNDEFINED> instruction: 0x000025b6
    47f4:	a50c0800 	strge	r0, [ip, #-2048]	; 0x800
    47f8:	0500000a 	streq	r0, [r0, #-10]
    47fc:	00003fb7 			; <UNDEFINED> instruction: 0x00003fb7
    4800:	b80c0c00 	stmdalt	ip, {sl, fp}
    4804:	0500000b 	streq	r0, [r0, #-11]
    4808:	00003fb8 			; <UNDEFINED> instruction: 0x00003fb8
    480c:	5f100e00 	svcpl	0x00100e00
    4810:	05006662 	streq	r6, [r0, #-1634]	; 0x662
    4814:	0002b6b9 			; <UNDEFINED> instruction: 0x0002b6b9
    4818:	140c1000 	strne	r1, [ip], #-0
    481c:	0500000a 	streq	r0, [r0, #-10]
    4820:	000025ba 			; <UNDEFINED> instruction: 0x000025ba
    4824:	950c1800 	strls	r1, [ip, #-2048]	; 0x800
    4828:	0500000a 	streq	r0, [r0, #-10]
    482c:	00010ac1 	andeq	r0, r1, r1, asr #21
    4830:	3c0c1c00 	stccc	12, cr1, [ip], {-0}
    4834:	0500000f 	streq	r0, [r0, #-15]
    4838:	000566c3 	andeq	r6, r5, r3, asr #13
    483c:	560c2000 	strpl	r2, [ip], -r0
    4840:	0500000f 	streq	r0, [r0, #-15]
    4844:	000590c5 	andeq	r9, r5, r5, asr #1
    4848:	310c2400 	tstcc	ip, r0, lsl #8
    484c:	0500000d 	streq	r0, [r0, #-13]
    4850:	0005b4c8 	andeq	fp, r5, r8, asr #9
    4854:	f60c2800 			; <UNDEFINED> instruction: 0xf60c2800
    4858:	0500000e 	streq	r0, [r0, #-14]
    485c:	0005cec9 	andeq	ip, r5, r9, asr #29
    4860:	5f102c00 	svcpl	0x00102c00
    4864:	05006275 	streq	r6, [r0, #-629]	; 0x275
    4868:	0002b6cc 	andeq	fp, r2, ip, asr #13
    486c:	5f103000 	svcpl	0x00103000
    4870:	05007075 	streq	r7, [r0, #-117]	; 0x75
    4874:	0002dbcd 	andeq	sp, r2, sp, asr #23
    4878:	5f103800 	svcpl	0x00103800
    487c:	05007275 	streq	r7, [r0, #-629]	; 0x275
    4880:	000025ce 	andeq	r2, r0, lr, asr #11
    4884:	580c3c00 	stmdapl	ip, {sl, fp, ip, sp}
    4888:	0500000a 	streq	r0, [r0, #-10]
    488c:	0005d4d1 	ldrdeq	sp, [r5], -r1
    4890:	a10c4000 	mrsge	r4, (UNDEF: 12)
    4894:	0500000e 	streq	r0, [r0, #-14]
    4898:	0005e4d2 	ldrdeq	lr, [r5], -r2
    489c:	5f104300 	svcpl	0x00104300
    48a0:	0500626c 	streq	r6, [r0, #-620]	; 0x26c
    48a4:	0002b6d5 	ldrdeq	fp, [r2], -r5
    48a8:	bb0c4400 	bllt	3158b0 <__bss_end__+0x30b278>
    48ac:	0500000a 	streq	r0, [r0, #-10]
    48b0:	000025d8 	ldrdeq	r2, [r0], -r8
    48b4:	230c4c00 	movwcs	r4, #52224	; 0xcc00
    48b8:	0500000c 	streq	r0, [r0, #-12]
    48bc:	00007bd9 	ldrdeq	r7, [r0], -r9
    48c0:	8c0c5000 	stchi	0, cr5, [ip], {-0}
    48c4:	0500000e 	streq	r0, [r0, #-14]
    48c8:	000429dc 	ldrdeq	r2, [r4], -ip
    48cc:	0b0c5400 	bleq	3198d4 <__bss_end__+0x30f29c>
    48d0:	0500000c 	streq	r0, [r0, #-12]
    48d4:	0000ffe0 	andeq	pc, r0, r0, ror #31
    48d8:	c70c5800 	strgt	r5, [ip, -r0, lsl #16]
    48dc:	0500000c 	streq	r0, [r0, #-12]
    48e0:	0000f4e2 	andeq	pc, r0, r2, ror #9
    48e4:	110c5c00 	tstne	ip, r0, lsl #24
    48e8:	0500000c 	streq	r0, [r0, #-12]
    48ec:	000025e3 	andeq	r2, r0, r3, ror #11
    48f0:	14006400 	strne	r6, [r0], #-1024	; 0x400
    48f4:	00000025 	andeq	r0, r0, r5, lsr #32
    48f8:	00000429 	andeq	r0, r0, r9, lsr #8
    48fc:	00042915 	andeq	r2, r4, r5, lsl r9
    4900:	010a1500 	tsteq	sl, r0, lsl #10
    4904:	0c150000 	ldceq	0, cr0, [r5], {-0}
    4908:	15000001 	strne	r0, [r0, #-1]
    490c:	00000025 	andeq	r0, r0, r5, lsr #32
    4910:	34040e00 	strcc	r0, [r4], #-3584	; 0xe00
    4914:	04000004 	streq	r0, [r0], #-4
    4918:	00000429 	andeq	r0, r0, r9, lsr #8
    491c:	000d1416 	andeq	r1, sp, r6, lsl r4
    4920:	05042800 	streq	r2, [r4, #-2048]	; 0x800
    4924:	05660238 	strbeq	r0, [r6, #-568]!	; 0x238
    4928:	8f170000 	svchi	0x00170000
    492c:	0500000c 	streq	r0, [r0, #-12]
    4930:	0025023a 	eoreq	r0, r5, sl, lsr r2
    4934:	17000000 	strne	r0, [r0, -r0]
    4938:	00000ab4 			; <UNDEFINED> instruction: 0x00000ab4
    493c:	3b023f05 	blcc	94558 <__bss_end__+0x89f20>
    4940:	04000006 	streq	r0, [r0], #-6
    4944:	000ba817 	andeq	sl, fp, r7, lsl r8
    4948:	023f0500 	eorseq	r0, pc, #0, 10
    494c:	0000063b 	andeq	r0, r0, fp, lsr r6
    4950:	0b691708 	bleq	1a4a578 <__bss_end__+0x1a3ff40>
    4954:	3f050000 	svccc	0x00050000
    4958:	00063b02 	andeq	r3, r6, r2, lsl #22
    495c:	e8170c00 	ldmda	r7, {sl, fp}
    4960:	0500000c 	streq	r0, [r0, #-12]
    4964:	00250241 	eoreq	r0, r5, r1, asr #4
    4968:	17100000 	ldrne	r0, [r0, -r0]
    496c:	000009df 	ldrdeq	r0, [r0], -pc	; <UNPREDICTABLE>
    4970:	1d024205 	sfmne	f4, 4, [r2, #-20]	; 0xffffffec
    4974:	14000008 	strne	r0, [r0], #-8
    4978:	000e0617 	andeq	r0, lr, r7, lsl r6
    497c:	02440500 	subeq	r0, r4, #0, 10
    4980:	00000025 	andeq	r0, r0, r5, lsr #32
    4984:	0cf21730 	ldcleq	7, cr1, [r2], #192	; 0xc0
    4988:	45050000 	strmi	r0, [r5, #-0]
    498c:	00058a02 	andeq	r8, r5, r2, lsl #20
    4990:	55173400 	ldrpl	r3, [r7, #-1024]	; 0x400
    4994:	0500000c 	streq	r0, [r0, #-12]
    4998:	00250247 	eoreq	r0, r5, r7, asr #4
    499c:	17380000 	ldrne	r0, [r8, -r0]!
    49a0:	00000d02 	andeq	r0, r0, r2, lsl #26
    49a4:	38024905 	stmdacc	r2, {r0, r2, r8, fp, lr}
    49a8:	3c000008 	stccc	0, cr0, [r0], {8}
    49ac:	000be717 	andeq	lr, fp, r7, lsl r7
    49b0:	024c0500 	subeq	r0, ip, #0, 10
    49b4:	0000017c 	andeq	r0, r0, ip, ror r1
    49b8:	0b881740 	bleq	fe20a6c0 <__bss_end__+0xfe200088>
    49bc:	4d050000 	stcmi	0, cr0, [r5, #-0]
    49c0:	00002502 	andeq	r2, r0, r2, lsl #10
    49c4:	10174400 	andsne	r4, r7, r0, lsl #8
    49c8:	0500000f 	streq	r0, [r0, #-15]
    49cc:	017c024e 	cmneq	ip, lr, asr #4
    49d0:	17480000 	strbne	r0, [r8, -r0]
    49d4:	00000c6c 	andeq	r0, r0, ip, ror #24
    49d8:	3e024f05 	cdpcc	15, 0, cr4, cr2, cr5, {0}
    49dc:	4c000008 	stcmi	0, cr0, [r0], {8}
    49e0:	000bb017 	andeq	fp, fp, r7, lsl r0
    49e4:	02520500 	subseq	r0, r2, #0, 10
    49e8:	00000025 	andeq	r0, r0, r5, lsr #32
    49ec:	0ad71750 	beq	ff5ca734 <__bss_end__+0xff5c00fc>
    49f0:	53050000 	movwpl	r0, #20480	; 0x5000
    49f4:	00010c02 	andeq	r0, r1, r2, lsl #24
    49f8:	88175400 	ldmdahi	r7, {sl, ip, lr}
    49fc:	0500000c 	streq	r0, [r0, #-12]
    4a00:	07fb0276 			; <UNDEFINED> instruction: 0x07fb0276
    4a04:	18580000 	ldmdane	r8, {}^	; <UNPREDICTABLE>
    4a08:	00000c4d 	andeq	r0, r0, sp, asr #24
    4a0c:	99027a05 	stmdbls	r2, {r0, r2, r9, fp, ip, sp, lr}
    4a10:	48000002 	stmdami	r0, {r1}
    4a14:	0bc51801 	bleq	ff14aa20 <__bss_end__+0xff1403e8>
    4a18:	7b050000 	blvc	144a20 <__bss_end__+0x13a3e8>
    4a1c:	00025b02 	andeq	r5, r2, r2, lsl #22
    4a20:	18014c00 	stmdane	r1, {sl, fp, lr}
    4a24:	00000e72 	andeq	r0, r0, r2, ror lr
    4a28:	4f027f05 	svcmi	0x00027f05
    4a2c:	dc000008 	stcle	0, cr0, [r0], {8}
    4a30:	0a9d1802 	beq	fe74aa40 <__bss_end__+0xfe740408>
    4a34:	84050000 	strhi	r0, [r5], #-0
    4a38:	00060002 	andeq	r0, r6, r2
    4a3c:	1802e000 	stmdane	r2, {sp, lr, pc}
    4a40:	00000a82 	andeq	r0, r0, r2, lsl #21
    4a44:	5b028505 	blpl	a5e60 <__bss_end__+0x9b828>
    4a48:	ec000008 	stc	0, cr0, [r0], {8}
    4a4c:	040e0002 	streq	r0, [lr], #-2
    4a50:	0000040b 	andeq	r0, r0, fp, lsl #8
    4a54:	00002514 	andeq	r2, r0, r4, lsl r5
    4a58:	00058a00 	andeq	r8, r5, r0, lsl #20
    4a5c:	04291500 	strteq	r1, [r9], #-1280	; 0x500
    4a60:	0a150000 	beq	544a68 <__bss_end__+0x53a430>
    4a64:	15000001 	strne	r0, [r0, #-1]
    4a68:	0000058a 	andeq	r0, r0, sl, lsl #11
    4a6c:	00002515 	andeq	r2, r0, r5, lsl r5
    4a70:	040e0000 	streq	r0, [lr], #-0
    4a74:	00000119 	andeq	r0, r0, r9, lsl r1
    4a78:	056c040e 	strbeq	r0, [ip, #-1038]!	; 0x40e
    4a7c:	86140000 	ldrhi	r0, [r4], -r0
    4a80:	b4000000 	strlt	r0, [r0], #-0
    4a84:	15000005 	strne	r0, [r0, #-5]
    4a88:	00000429 	andeq	r0, r0, r9, lsr #8
    4a8c:	00010a15 	andeq	r0, r1, r5, lsl sl
    4a90:	00861500 	addeq	r1, r6, r0, lsl #10
    4a94:	25150000 	ldrcs	r0, [r5, #-0]
    4a98:	00000000 	andeq	r0, r0, r0
    4a9c:	0596040e 	ldreq	r0, [r6, #1038]	; 0x40e
    4aa0:	25140000 	ldrcs	r0, [r4, #-0]
    4aa4:	ce000000 	cdpgt	0, 0, cr0, cr0, cr0, {0}
    4aa8:	15000005 	strne	r0, [r0, #-5]
    4aac:	00000429 	andeq	r0, r0, r9, lsr #8
    4ab0:	00010a15 	andeq	r0, r1, r5, lsl sl
    4ab4:	040e0000 	streq	r0, [lr], #-0
    4ab8:	000005ba 			; <UNDEFINED> instruction: 0x000005ba
    4abc:	00005409 	andeq	r5, r0, r9, lsl #8
    4ac0:	0005e400 	andeq	lr, r5, r0, lsl #8
    4ac4:	00cc0a00 	sbceq	r0, ip, r0, lsl #20
    4ac8:	00020000 	andeq	r0, r2, r0
    4acc:	00005409 	andeq	r5, r0, r9, lsl #8
    4ad0:	0005f400 	andeq	pc, r5, r0, lsl #8
    4ad4:	00cc0a00 	sbceq	r0, ip, r0, lsl #20
    4ad8:	00000000 	andeq	r0, r0, r0
    4adc:	000cad06 	andeq	sl, ip, r6, lsl #26
    4ae0:	011d0500 	tsteq	sp, r0, lsl #10
    4ae4:	000002e1 	andeq	r0, r0, r1, ror #5
    4ae8:	000e3419 	andeq	r3, lr, r9, lsl r4
    4aec:	21050c00 	tstcs	r5, r0, lsl #24
    4af0:	00063501 	andeq	r3, r6, r1, lsl #10
    4af4:	0cd51700 	ldcleq	7, cr1, [r5], {0}
    4af8:	23050000 	movwcs	r0, #20480	; 0x5000
    4afc:	00063501 	andeq	r3, r6, r1, lsl #10
    4b00:	be170000 	cdplt	0, 1, cr0, cr7, cr0, {0}
    4b04:	0500000b 	streq	r0, [r0, #-11]
    4b08:	00250124 	eoreq	r0, r5, r4, lsr #2
    4b0c:	17040000 	strne	r0, [r4, -r0]
    4b10:	00000ca7 	andeq	r0, r0, r7, lsr #25
    4b14:	3b012505 	blcc	4df30 <__bss_end__+0x438f8>
    4b18:	08000006 	stmdaeq	r0, {r1, r2}
    4b1c:	00040e00 	andeq	r0, r4, r0, lsl #28
    4b20:	0e000006 	cdpeq	0, 0, cr0, cr0, cr6, {0}
    4b24:	0005f404 	andeq	pc, r5, r4, lsl #8
    4b28:	09d71900 	ldmibeq	r7, {r8, fp, ip}^
    4b2c:	050e0000 	streq	r0, [lr, #-0]
    4b30:	0676013d 			; <UNDEFINED> instruction: 0x0676013d
    4b34:	1b170000 	blne	5c4b3c <__bss_end__+0x5ba504>
    4b38:	0500000d 	streq	r0, [r0, #-13]
    4b3c:	0676013e 			; <UNDEFINED> instruction: 0x0676013e
    4b40:	17000000 	strne	r0, [r0, -r0]
    4b44:	00000d55 	andeq	r0, r0, r5, asr sp
    4b48:	76013f05 	strvc	r3, [r1], -r5, lsl #30
    4b4c:	06000006 	streq	r0, [r0], -r6
    4b50:	000dd917 	andeq	sp, sp, r7, lsl r9
    4b54:	01400500 	cmpeq	r0, r0, lsl #10
    4b58:	0000005b 	andeq	r0, r0, fp, asr r0
    4b5c:	5b09000c 	blpl	244b94 <__bss_end__+0x23a55c>
    4b60:	86000000 	strhi	r0, [r0], -r0
    4b64:	0a000006 	beq	4b84 <__code_start__-0x347c>
    4b68:	000000cc 	andeq	r0, r0, ip, asr #1
    4b6c:	d01a0002 	andsle	r0, sl, r2
    4b70:	87025705 	strhi	r5, [r2, -r5, lsl #14]
    4b74:	17000007 	strne	r0, [r0, -r7]
    4b78:	00000e18 	andeq	r0, r0, r8, lsl lr
    4b7c:	2c025905 	stccs	9, cr5, [r2], {5}
    4b80:	00000000 	andeq	r0, r0, r0
    4b84:	000dc317 	andeq	ip, sp, r7, lsl r3
    4b88:	025a0500 	subseq	r0, sl, #0, 10
    4b8c:	0000010c 	andeq	r0, r0, ip, lsl #2
    4b90:	0bda1704 	bleq	ff68a7a8 <__bss_end__+0xff680170>
    4b94:	5b050000 	blpl	144b9c <__bss_end__+0x13a564>
    4b98:	00078702 	andeq	r8, r7, r2, lsl #14
    4b9c:	e7170800 	ldr	r0, [r7, -r0, lsl #16]
    4ba0:	0500000e 	streq	r0, [r0, #-14]
    4ba4:	0192025c 	orrseq	r0, r2, ip, asr r2
    4ba8:	17240000 	strne	r0, [r4, -r0]!
    4bac:	00000b79 	andeq	r0, r0, r9, ror fp
    4bb0:	25025d05 	strcs	r5, [r2, #-3333]	; 0xd05
    4bb4:	48000000 	stmdami	r0, {}	; <UNPREDICTABLE>
    4bb8:	000cd017 	andeq	sp, ip, r7, lsl r0
    4bbc:	025e0500 	subseq	r0, lr, #0, 10
    4bc0:	00000069 	andeq	r0, r0, r9, rrx
    4bc4:	0efd1750 	mrceq	7, 7, r1, cr13, cr0, {2}
    4bc8:	5f050000 	svcpl	0x00050000
    4bcc:	00064102 	andeq	r4, r6, r2, lsl #2
    4bd0:	db175800 	blle	5dabd8 <__bss_end__+0x5d05a0>
    4bd4:	0500000c 	streq	r0, [r0, #-12]
    4bd8:	00f40260 	rscseq	r0, r4, r0, ror #4
    4bdc:	17680000 	strbne	r0, [r8, -r0]!
    4be0:	00000f02 	andeq	r0, r0, r2, lsl #30
    4be4:	f4026105 	vst4.8	{d6,d8,d10,d12}, [r2], r5
    4be8:	70000000 	andvc	r0, r0, r0
    4bec:	000a3c17 	andeq	r3, sl, r7, lsl ip
    4bf0:	02620500 	rsbeq	r0, r2, #0, 10
    4bf4:	000000f4 	strdeq	r0, [r0], -r4
    4bf8:	0e541778 	mrceq	7, 2, r1, cr4, cr8, {3}
    4bfc:	63050000 	movwvs	r0, #20480	; 0x5000
    4c00:	00079702 	andeq	r9, r7, r2, lsl #14
    4c04:	ce178000 	cdpgt	0, 1, cr8, cr7, cr0, {0}
    4c08:	0500000b 	streq	r0, [r0, #-11]
    4c0c:	07a70264 	streq	r0, [r7, r4, ror #4]!
    4c10:	17880000 	strne	r0, [r8, r0]
    4c14:	00000de6 	andeq	r0, r0, r6, ror #27
    4c18:	25026505 	strcs	r6, [r2, #-1285]	; 0x505
    4c1c:	a0000000 	andge	r0, r0, r0
    4c20:	000b2517 	andeq	r2, fp, r7, lsl r5
    4c24:	02660500 	rsbeq	r0, r6, #0, 10
    4c28:	000000f4 	strdeq	r0, [r0], -r4
    4c2c:	0a2d17a4 	beq	b4aac4 <__bss_end__+0xb4048c>
    4c30:	67050000 	strvs	r0, [r5, -r0]
    4c34:	0000f402 	andeq	pc, r0, r2, lsl #8
    4c38:	1417ac00 	ldrne	sl, [r7], #-3072	; 0xc00
    4c3c:	0500000b 	streq	r0, [r0, #-11]
    4c40:	00f40268 	rscseq	r0, r4, r8, ror #4
    4c44:	17b40000 	ldrne	r0, [r4, r0]!
    4c48:	000009f4 	strdeq	r0, [r0], -r4
    4c4c:	f4026905 	vst2.8	{d6,d8}, [r2], r5
    4c50:	bc000000 	stclt	0, cr0, [r0], {-0}
    4c54:	000a0317 	andeq	r0, sl, r7, lsl r3
    4c58:	026a0500 	rsbeq	r0, sl, #0, 10
    4c5c:	000000f4 	strdeq	r0, [r0], -r4
    4c60:	0c8d17c4 	stceq	7, cr1, [sp], {196}	; 0xc4
    4c64:	6b050000 	blvs	144c6c <__bss_end__+0x13a634>
    4c68:	00002502 	andeq	r2, r0, r2, lsl #10
    4c6c:	0900cc00 	stmdbeq	r0, {sl, fp, lr, pc}
    4c70:	00000112 	andeq	r0, r0, r2, lsl r1
    4c74:	00000797 	muleq	r0, r7, r7
    4c78:	0000cc0a 	andeq	ip, r0, sl, lsl #24
    4c7c:	09001900 	stmdbeq	r0, {r8, fp, ip}
    4c80:	00000112 	andeq	r0, r0, r2, lsl r1
    4c84:	000007a7 	andeq	r0, r0, r7, lsr #15
    4c88:	0000cc0a 	andeq	ip, r0, sl, lsl #24
    4c8c:	09000700 	stmdbeq	r0, {r8, r9, sl}
    4c90:	00000112 	andeq	r0, r0, r2, lsl r1
    4c94:	000007b7 			; <UNDEFINED> instruction: 0x000007b7
    4c98:	0000cc0a 	andeq	ip, r0, sl, lsl #24
    4c9c:	1a001700 	bne	a8a4 <__bss_end__+0x26c>
    4ca0:	027005f0 	rsbseq	r0, r0, #240, 10	; 0x3c000000
    4ca4:	000007db 	ldrdeq	r0, [r0], -fp
    4ca8:	000c3d17 	andeq	r3, ip, r7, lsl sp
    4cac:	02730500 	rsbseq	r0, r3, #0, 10
    4cb0:	000007db 	ldrdeq	r0, [r0], -fp
    4cb4:	0e4b1700 	cdpeq	7, 4, cr1, cr11, cr0, {0}
    4cb8:	74050000 	strvc	r0, [r5], #-0
    4cbc:	0007eb02 	andeq	lr, r7, r2, lsl #22
    4cc0:	09007800 	stmdbeq	r0, {fp, ip, sp, lr}
    4cc4:	000002db 	ldrdeq	r0, [r0], -fp
    4cc8:	000007eb 	andeq	r0, r0, fp, ror #15
    4ccc:	0000cc0a 	andeq	ip, r0, sl, lsl #24
    4cd0:	09001d00 	stmdbeq	r0, {r8, sl, fp, ip}
    4cd4:	0000002c 	andeq	r0, r0, ip, lsr #32
    4cd8:	000007fb 	strdeq	r0, [r0], -fp
    4cdc:	0000cc0a 	andeq	ip, r0, sl, lsl #24
    4ce0:	1b001d00 	blne	c0e8 <__bss_end__+0x1ab0>
    4ce4:	025505f0 	subseq	r0, r5, #240, 10	; 0x3c000000
    4ce8:	0000081d 	andeq	r0, r0, sp, lsl r8
    4cec:	000d141c 	andeq	r1, sp, ip, lsl r4
    4cf0:	026c0500 	rsbeq	r0, ip, #0, 10
    4cf4:	00000686 	andeq	r0, r0, r6, lsl #13
    4cf8:	000ea71c 	andeq	sl, lr, ip, lsl r7
    4cfc:	02750500 	rsbseq	r0, r5, #0, 10
    4d00:	000007b7 			; <UNDEFINED> instruction: 0x000007b7
    4d04:	01120900 	tsteq	r2, r0, lsl #18
    4d08:	082d0000 	stmdaeq	sp!, {}	; <UNPREDICTABLE>
    4d0c:	cc0a0000 	stcgt	0, cr0, [sl], {-0}
    4d10:	18000000 	stmdane	r0, {}	; <UNPREDICTABLE>
    4d14:	08381d00 	ldmdaeq	r8!, {r8, sl, fp, ip}
    4d18:	29150000 	ldmdbcs	r5, {}	; <UNPREDICTABLE>
    4d1c:	00000004 	andeq	r0, r0, r4
    4d20:	082d040e 	stmdaeq	sp!, {r1, r2, r3, sl}
    4d24:	040e0000 	streq	r0, [lr], #-0
    4d28:	0000017c 	andeq	r0, r0, ip, ror r1
    4d2c:	00084f1d 	andeq	r4, r8, sp, lsl pc
    4d30:	00251500 	eoreq	r1, r5, r0, lsl #10
    4d34:	0e000000 	cdpeq	0, 0, cr0, cr0, cr0, {0}
    4d38:	00085504 	andeq	r5, r8, r4, lsl #10
    4d3c:	44040e00 	strmi	r0, [r4], #-3584	; 0xe00
    4d40:	09000008 	stmdbeq	r0, {r3}
    4d44:	000005f4 	strdeq	r0, [r0], -r4
    4d48:	0000086b 	andeq	r0, r0, fp, ror #16
    4d4c:	0000cc0a 	andeq	ip, r0, sl, lsl #24
    4d50:	1e000200 	cdpne	2, 0, cr0, cr0, cr0, {0}
    4d54:	00000dfa 	strdeq	r0, [r0], -sl
    4d58:	2902fd05 	stmdbcs	r2, {r0, r2, r8, sl, fp, ip, sp, lr, pc}
    4d5c:	1e000004 	cdpne	0, 0, cr0, cr0, cr4, {0}
    4d60:	00000df3 	strdeq	r0, [r0], -r3
    4d64:	2f02fe05 	svccs	0x0002fe05
    4d68:	14000004 	strne	r0, [r0], #-4
    4d6c:	00000025 	andeq	r0, r0, r5, lsr #32
    4d70:	00000892 	muleq	r0, r2, r8
    4d74:	00002515 	andeq	r2, r0, r5, lsl r5
    4d78:	f41f0000 			; <UNDEFINED> instruction: 0xf41f0000
    4d7c:	06000005 	streq	r0, [r0], -r5
    4d80:	00089d1d 	andeq	r9, r8, sp, lsl sp
    4d84:	83040e00 	movwhi	r0, #19968	; 0x4e00
    4d88:	14000008 	strne	r0, [r0], #-8
    4d8c:	00000025 	andeq	r0, r0, r5, lsr #32
    4d90:	000008b2 			; <UNDEFINED> instruction: 0x000008b2
    4d94:	00058a15 	andeq	r8, r5, r5, lsl sl
    4d98:	311f0000 	tstcc	pc, r0
    4d9c:	06000006 	streq	r0, [r0], -r6
    4da0:	0008bd22 	andeq	fp, r8, r2, lsr #26
    4da4:	a3040e00 	movwge	r0, #19968	; 0x4e00
    4da8:	20000008 	andcs	r0, r0, r8
    4dac:	00005401 	andeq	r5, r0, r1, lsl #8
    4db0:	000c0700 	andeq	r0, ip, r0, lsl #14
    4db4:	21000009 	tstcs	r0, r9
    4db8:	00000a1d 	andeq	r0, r0, sp, lsl sl
    4dbc:	0e3a2100 	rsfeqe	f2, f2, f0
    4dc0:	21010000 	mrscs	r0, (UNDEF: 1)
    4dc4:	00000e92 	muleq	r0, r2, lr
    4dc8:	0a5e2104 	beq	178d1e0 <__bss_end__+0x1782ba8>
    4dcc:	21050000 	mrscs	r0, (UNDEF: 5)
    4dd0:	00000bf5 	strdeq	r0, [r0], -r5
    4dd4:	0eaf2106 	fdveqe	f2, f7, f6
    4dd8:	21070000 	mrscs	r0, (UNDEF: 7)
    4ddc:	00000ebe 			; <UNDEFINED> instruction: 0x00000ebe
    4de0:	0ecd2103 	poleqe	f2, f5, f3
    4de4:	00020000 	andeq	r0, r2, r0
    4de8:	000f8c05 	andeq	r8, pc, r5, lsl #24
    4dec:	c3150700 	tstgt	r5, #0, 14
    4df0:	22000008 	andcs	r0, r0, #8
    4df4:	00000f5d 	andeq	r0, r0, sp, asr pc
    4df8:	00331d01 	eorseq	r1, r3, r1, lsl #26
    4dfc:	001c0000 	andseq	r0, ip, r0
    4e00:	98222020 	stmdals	r2!, {r5, sp}
    4e04:	0100000f 	tsteq	r0, pc
    4e08:	0000331e 	andeq	r3, r0, lr, lsl r3
    4e0c:	20002800 	andcs	r2, r0, r0, lsl #16
    4e10:	0f672220 	svceq	0x00672220
    4e14:	1f010000 	svcne	0x00010000
    4e18:	00000033 	andeq	r0, r0, r3, lsr r0
    4e1c:	20200034 	eorcs	r0, r0, r4, lsr r0
    4e20:	000f3823 	andeq	r3, pc, r3, lsr #16
    4e24:	25560100 	ldrbcs	r0, [r6, #-256]	; 0x100
    4e28:	f4000000 	vst4.8	{d0-d3}, [r0], r0
    4e2c:	34000099 	strcc	r0, [r0], #-153	; 0x99
    4e30:	01000000 	mrseq	r0, (UNDEF: 0)
    4e34:	0009989c 	muleq	r9, ip, r8
    4e38:	69702400 	ldmdbvs	r0!, {sl, sp}^
    4e3c:	5601006e 	strpl	r0, [r1], -lr, rrx
    4e40:	0000002c 	andeq	r0, r0, ip, lsr #32
    4e44:	00000f98 	muleq	r0, r8, pc	; <UNPREDICTABLE>
    4e48:	000f2c25 	andeq	r2, pc, r5, lsr #24
    4e4c:	2c590100 	ldfcse	f0, [r9], {-0}
    4e50:	d2000000 	andle	r0, r0, #0
    4e54:	2600000f 	strcs	r0, [r0], -pc
    4e58:	0066666f 	rsbeq	r6, r6, pc, ror #12
    4e5c:	002c5a01 	eoreq	r5, ip, r1, lsl #20
    4e60:	10100000 	andsne	r0, r0, r0
    4e64:	10270000 	eorne	r0, r7, r0
    4e68:	5d00009a 	stcpl	0, cr0, [r0, #-616]	; 0xfffffd98
    4e6c:	2800000b 	stmdacs	r0, {r0, r1, r3}
    4e70:	f30b5001 	vhadd.u8	d5, d11, d1
    4e74:	25355001 	ldrcs	r5, [r5, #-1]!
    4e78:	8080b423 	addhi	fp, r0, r3, lsr #8
    4e7c:	00000281 	andeq	r0, r0, r1, lsl #5
    4e80:	000f5229 	andeq	r5, pc, r9, lsr #4
    4e84:	d84f0100 	stmdale	pc, {r8}^	; <UNPREDICTABLE>
    4e88:	1c000099 	stcne	0, cr0, [r0], {153}	; 0x99
    4e8c:	01000000 	mrseq	r0, (UNDEF: 0)
    4e90:	0009e89c 	muleq	r9, ip, r8
    4e94:	69702400 	ldmdbvs	r0!, {sl, sp}^
    4e98:	4f01006e 	svcmi	0x0001006e
    4e9c:	0000002c 	andeq	r0, r0, ip, lsr #32
    4ea0:	00001023 	andeq	r1, r0, r3, lsr #32
    4ea4:	01007624 	tsteq	r0, r4, lsr #12
    4ea8:	00002c4f 	andeq	r2, r0, pc, asr #24
    4eac:	00105d00 	andseq	r5, r0, r0, lsl #26
    4eb0:	99e82a00 	stmibls	r8!, {r9, fp, sp}^
    4eb4:	0a230000 	beq	8c4ebc <__bss_end__+0x8ba884>
    4eb8:	09de0000 	ldmibeq	lr, {}^	; <UNPREDICTABLE>
    4ebc:	01280000 	teqeq	r8, r0
    4ec0:	01f30350 	mvnseq	r0, r0, asr r3
    4ec4:	f02b0050 			; <UNDEFINED> instruction: 0xf02b0050
    4ec8:	64000099 	strvs	r0, [r0], #-153	; 0x99
    4ecc:	0000000a 	andeq	r0, r0, sl
    4ed0:	000f7129 	andeq	r7, pc, r9, lsr #2
    4ed4:	c84a0100 	stmdagt	sl, {r8}^
    4ed8:	10000099 	mulne	r0, r9, r0
    4edc:	01000000 	mrseq	r0, (UNDEF: 0)
    4ee0:	000a239c 	muleq	sl, ip, r3
    4ee4:	69702400 	ldmdbvs	r0!, {sl, sp}^
    4ee8:	4a01006e 	bmi	450a8 <__bss_end__+0x3aa70>
    4eec:	0000002c 	andeq	r0, r0, ip, lsr #32
    4ef0:	00001097 	muleq	r0, r7, r0
    4ef4:	0099d427 	addseq	sp, r9, r7, lsr #8
    4ef8:	000ae000 	andeq	lr, sl, r0
    4efc:	50012800 	andpl	r2, r1, r0, lsl #16
    4f00:	5001f303 	andpl	pc, r1, r3, lsl #6
    4f04:	01510128 	cmpeq	r1, r8, lsr #2
    4f08:	29000030 	stmdbcs	r0, {r4, r5}
    4f0c:	00000f1f 	andeq	r0, r0, pc, lsl pc
    4f10:	99a44301 	stmibls	r4!, {r0, r8, r9, lr}
    4f14:	00240000 	eoreq	r0, r4, r0
    4f18:	9c010000 	stcls	0, cr0, [r1], {-0}
    4f1c:	00000a64 	andeq	r0, r0, r4, ror #20
    4f20:	6e697024 	cdpvs	0, 6, cr7, cr9, cr4, {1}
    4f24:	2c430100 	stfcse	f0, [r3], {-0}
    4f28:	b8000000 	stmdalt	r0, {}	; <UNPREDICTABLE>
    4f2c:	27000010 	smladcs	r0, r0, r0, r0
    4f30:	000099c0 	andeq	r9, r0, r0, asr #19
    4f34:	00000b68 	andeq	r0, r0, r8, ror #22
    4f38:	05500128 	ldrbeq	r0, [r0, #-296]	; 0x128
    4f3c:	2000280c 	andcs	r2, r0, ip, lsl #16
    4f40:	51012820 	tstpl	r1, r0, lsr #16
    4f44:	01f33105 	mvnseq	r3, r5, lsl #2
    4f48:	00002450 	andeq	r2, r0, r0, asr r4
    4f4c:	000f8029 	andeq	r8, pc, r9, lsr #32
    4f50:	803c0100 	eorshi	r0, ip, r0, lsl #2
    4f54:	24000099 	strcs	r0, [r0], #-153	; 0x99
    4f58:	01000000 	mrseq	r0, (UNDEF: 0)
    4f5c:	000aa59c 	muleq	sl, ip, r5
    4f60:	69702400 	ldmdbvs	r0!, {sl, sp}^
    4f64:	3c01006e 	stccc	0, cr0, [r1], {110}	; 0x6e
    4f68:	0000002c 	andeq	r0, r0, ip, lsr #32
    4f6c:	000010d9 	ldrdeq	r1, [r0], -r9
    4f70:	00999c27 	addseq	r9, r9, r7, lsr #24
    4f74:	000b6800 	andeq	r6, fp, r0, lsl #16
    4f78:	50012800 	andpl	r2, r1, r0, lsl #16
    4f7c:	001c0c05 	andseq	r0, ip, r5, lsl #24
    4f80:	01282020 	teqeq	r8, r0, lsr #32
    4f84:	f3310551 	vqrshl.u64	q0, <illegal reg q0.5>, <illegal reg q0.5>
    4f88:	00245001 	eoreq	r5, r4, r1
    4f8c:	0f422900 	svceq	0x00422900
    4f90:	37010000 	strcc	r0, [r1, -r0]
    4f94:	00009970 	andeq	r9, r0, r0, ror r9
    4f98:	00000010 	andeq	r0, r0, r0, lsl r0
    4f9c:	0ae09c01 	beq	ff82bfa8 <__bss_end__+0xff821970>
    4fa0:	70240000 	eorvc	r0, r4, r0
    4fa4:	01006e69 	tsteq	r0, r9, ror #28
    4fa8:	00002c37 	andeq	r2, r0, r7, lsr ip
    4fac:	0010fa00 	andseq	pc, r0, r0, lsl #20
    4fb0:	997c2700 	ldmdbls	ip!, {r8, r9, sl, sp}^
    4fb4:	0ae00000 	beq	ff804fbc <__bss_end__+0xff7fa984>
    4fb8:	01280000 	teqeq	r8, r0
    4fbc:	01f30350 	mvnseq	r0, r0, asr r3
    4fc0:	51012850 	tstpl	r1, r0, asr r8
    4fc4:	00003101 	andeq	r3, r0, r1, lsl #2
    4fc8:	000c2b29 	andeq	r2, ip, r9, lsr #22
    4fcc:	08280100 	stmdaeq	r8!, {r8}
    4fd0:	68000099 	stmdavs	r0, {r0, r3, r4, r7}
    4fd4:	01000000 	mrseq	r0, (UNDEF: 0)
    4fd8:	000b5d9c 	muleq	fp, ip, sp
    4fdc:	69702400 	ldmdbvs	r0!, {sl, sp}^
    4fe0:	2801006e 	stmdacs	r1, {r1, r2, r3, r5, r6}
    4fe4:	0000002c 	andeq	r0, r0, ip, lsr #32
    4fe8:	0000111b 	andeq	r1, r0, fp, lsl r1
    4fec:	000e772c 	andeq	r7, lr, ip, lsr #14
    4ff0:	00280100 	eoreq	r0, r8, r0, lsl #2
    4ff4:	3c000009 	stccc	0, cr0, [r0], {9}
    4ff8:	2d000011 	stccs	0, cr0, [r0, #-68]	; 0xffffffbc
    4ffc:	0066666f 	rsbeq	r6, r6, pc, ror #12
    5000:	002c2d01 	eoreq	r2, ip, r1, lsl #26
    5004:	54010000 	strpl	r0, [r1], #-0
    5008:	0100672d 	tsteq	r0, sp, lsr #14
    500c:	00002c2f 	andeq	r2, r0, pc, lsr #24
    5010:	26560100 	ldrbcs	r0, [r6], -r0, lsl #2
    5014:	31010076 	tstcc	r1, r6, ror r0
    5018:	0000002c 	andeq	r0, r0, ip, lsr #32
    501c:	0000115d 	andeq	r1, r0, sp, asr r1
    5020:	0099542a 	addseq	r5, r9, sl, lsr #8
    5024:	000b5d00 	andeq	r5, fp, r0, lsl #26
    5028:	000b4c00 	andeq	r4, fp, r0, lsl #24
    502c:	50012800 	andpl	r2, r1, r0, lsl #16
    5030:	00007602 	andeq	r7, r0, r2, lsl #12
    5034:	00996827 	addseq	r6, r9, r7, lsr #16
    5038:	000b6800 	andeq	r6, fp, r0, lsl #16
    503c:	50012800 	andpl	r2, r1, r0, lsl #16
    5040:	00007602 	andeq	r7, r0, r2, lsl #12
    5044:	09942e00 	ldmibeq	r4, {r9, sl, fp, sp}
    5048:	09940000 	ldmibeq	r4, {}	; <UNPREDICTABLE>
    504c:	a7060000 	strge	r0, [r6, -r0]
    5050:	0008ce2e 	andeq	ip, r8, lr, lsr #28
    5054:	0008ce00 	andeq	ip, r8, r0, lsl #28
    5058:	009b0600 	addseq	r0, fp, r0, lsl #12

Disassembly of section .debug_abbrev:

00000000 <.debug_abbrev>:
       0:	25011101 	strcs	r1, [r1, #-257]	; 0x101
       4:	030b130e 	movweq	r1, #45838	; 0xb30e
       8:	110e1b0e 	tstne	lr, lr, lsl #22
       c:	10061201 	andne	r1, r6, r1, lsl #4
      10:	02000017 	andeq	r0, r0, #23
      14:	0b0b0024 	bleq	2c00ac <__bss_end__+0x2b5a74>
      18:	08030b3e 	stmdaeq	r3, {r1, r2, r3, r4, r5, r8, r9, fp}
      1c:	24030000 	strcs	r0, [r3], #-0
      20:	3e0b0b00 	vmlacc.f64	d0, d11, d0
      24:	000e030b 	andeq	r0, lr, fp, lsl #6
      28:	00160400 	andseq	r0, r6, r0, lsl #8
      2c:	0b3a0e03 	bleq	e83840 <__bss_end__+0xe79208>
      30:	13490b3b 	movtne	r0, #39739	; 0x9b3b
      34:	0f050000 	svceq	0x00050000
      38:	490b0b00 	stmdbmi	fp, {r8, r9, fp}
      3c:	06000013 			; <UNDEFINED> instruction: 0x06000013
      40:	13490026 	movtne	r0, #36902	; 0x9026
      44:	01070000 	mrseq	r0, (UNDEF: 7)
      48:	01134901 	tsteq	r3, r1, lsl #18
      4c:	08000013 	stmdaeq	r0, {r0, r1, r4}
      50:	13490021 	movtne	r0, #36897	; 0x9021
      54:	00000b2f 	andeq	r0, r0, pc, lsr #22
      58:	03011309 	movweq	r1, #4873	; 0x1309
      5c:	3a0b0b0e 	bcc	2c2c9c <__bss_end__+0x2b8664>
      60:	010b3b0b 	tsteq	fp, fp, lsl #22
      64:	0a000013 	beq	b8 <__code_start__-0x7f48>
      68:	0e03000d 	cdpeq	0, 0, cr0, cr3, cr13, {0}
      6c:	0b3b0b3a 	bleq	ec2d5c <__bss_end__+0xeb8724>
      70:	0b381349 	bleq	e04d9c <__bss_end__+0xdfa764>
      74:	0d0b0000 	stceq	0, cr0, [fp, #-0]
      78:	3a080300 	bcc	200c80 <__bss_end__+0x1f6648>
      7c:	490b3b0b 	stmdbmi	fp, {r0, r1, r3, r8, r9, fp, ip, sp}
      80:	000b3813 	andeq	r3, fp, r3, lsl r8
      84:	00350c00 	eorseq	r0, r5, r0, lsl #24
      88:	150d0000 	strne	r0, [sp, #-0]
      8c:	01192701 	tsteq	r9, r1, lsl #14
      90:	0e000013 	mcreq	0, 0, r0, cr0, cr3, {0}
      94:	13490005 	movtne	r0, #36869	; 0x9005
      98:	150f0000 	strne	r0, [pc, #-0]	; a0 <__code_start__-0x7f60>
      9c:	49192701 	ldmdbmi	r9, {r0, r8, r9, sl, sp}
      a0:	00130113 	andseq	r0, r3, r3, lsl r1
      a4:	00351000 	eorseq	r1, r5, r0
      a8:	00001349 	andeq	r1, r0, r9, asr #6
      ac:	03012e11 	movweq	r2, #7697	; 0x1e11
      b0:	3b0b3a0e 	blcc	2ce8f0 <__bss_end__+0x2c42b8>
      b4:	4919270b 	ldmdbmi	r9, {r0, r1, r3, r8, r9, sl, sp}
      b8:	010b2013 	tsteq	fp, r3, lsl r0
      bc:	12000013 	andne	r0, r0, #19
      c0:	0e030005 	cdpeq	0, 0, cr0, cr3, cr5, {0}
      c4:	0b3b0b3a 	bleq	ec2db4 <__bss_end__+0xeb877c>
      c8:	00001349 	andeq	r1, r0, r9, asr #6
      cc:	03003413 	movweq	r3, #1043	; 0x413
      d0:	3b0b3a0e 	blcc	2ce910 <__bss_end__+0x2c42d8>
      d4:	0013490b 	andseq	r4, r3, fp, lsl #18
      d8:	012e1400 	teqeq	lr, r0, lsl #8
      dc:	0b3a0e03 	bleq	e838f0 <__bss_end__+0xe792b8>
      e0:	19270b3b 	stmdbne	r7!, {r0, r1, r3, r4, r5, r8, r9, fp}
      e4:	13010b20 	movwne	r0, #6944	; 0x1b20
      e8:	34150000 	ldrcc	r0, [r5], #-0
      ec:	490e0300 	stmdbmi	lr, {r8, r9}
      f0:	1c193413 	cfldrsne	mvf3, [r9], {19}
      f4:	1600000e 	strne	r0, [r0], -lr
      f8:	08030005 	stmdaeq	r3, {r0, r2}
      fc:	0b3b0b3a 	bleq	ec2dec <__bss_end__+0xeb87b4>
     100:	00001349 	andeq	r1, r0, r9, asr #6
     104:	03003417 	movweq	r3, #1047	; 0x417
     108:	3b0b3a08 	blcc	2ce930 <__bss_end__+0x2c42f8>
     10c:	0013490b 	andseq	r4, r3, fp, lsl #18
     110:	012e1800 	teqeq	lr, r0, lsl #16
     114:	0b3a0e03 	bleq	e83928 <__bss_end__+0xe792f0>
     118:	19270b3b 	stmdbne	r7!, {r0, r1, r3, r4, r5, r8, r9, fp}
     11c:	06120111 			; <UNDEFINED> instruction: 0x06120111
     120:	42971840 	addsmi	r1, r7, #64, 16	; 0x400000
     124:	00130119 	andseq	r0, r3, r9, lsl r1
     128:	00051900 	andeq	r1, r5, r0, lsl #18
     12c:	0b3a0803 	bleq	e82140 <__bss_end__+0xe77b08>
     130:	13490b3b 	movtne	r0, #39739	; 0x9b3b
     134:	00001702 	andeq	r1, r0, r2, lsl #14
     138:	0300341a 	movweq	r3, #1050	; 0x41a
     13c:	3413490e 	ldrcc	r4, [r3], #-2318	; 0x90e
     140:	00180219 	andseq	r0, r8, r9, lsl r2
     144:	011d1b00 	tsteq	sp, r0, lsl #22
     148:	01111331 	tsteq	r1, r1, lsr r3
     14c:	0b580612 	bleq	160199c <__bss_end__+0x15f7364>
     150:	13010b59 	movwne	r0, #7001	; 0x1b59
     154:	0b1c0000 	bleq	70015c <__bss_end__+0x6f5b24>
     158:	12011101 	andne	r1, r1, #1073741824	; 0x40000000
     15c:	1d000006 	stcne	0, cr0, [r0, #-24]	; 0xffffffe8
     160:	13310034 	teqne	r1, #52	; 0x34
     164:	00001702 	andeq	r1, r0, r2, lsl #14
     168:	3100051e 	tstcc	r0, lr, lsl r5
     16c:	00170213 	andseq	r0, r7, r3, lsl r2
     170:	00341f00 	eorseq	r1, r4, r0, lsl #30
     174:	00001331 	andeq	r1, r0, r1, lsr r3
     178:	31003420 	tstcc	r0, r0, lsr #8
     17c:	00180213 	andseq	r0, r8, r3, lsl r2
     180:	00052100 	andeq	r2, r5, r0, lsl #2
     184:	0b1c1331 	bleq	704e50 <__bss_end__+0x6fa818>
     188:	34220000 	strtcc	r0, [r2], #-0
     18c:	1c133100 	ldfnes	f3, [r3], {-0}
     190:	2300000b 	movwcs	r0, #11
     194:	13310005 	teqne	r1, #5
     198:	89240000 	stmdbhi	r4!, {}	; <UNPREDICTABLE>
     19c:	11000182 	smlabbne	r0, r2, r1, r0
     1a0:	00133101 	andseq	r3, r3, r1, lsl #2
     1a4:	82892500 	addhi	r2, r9, #0, 10
     1a8:	01110101 	tsteq	r1, r1, lsl #2
     1ac:	13011331 	movwne	r1, #4913	; 0x1331
     1b0:	8a260000 	bhi	9801b8 <__bss_end__+0x975b80>
     1b4:	02000182 	andeq	r0, r0, #-2147483616	; 0x80000020
     1b8:	18429118 	stmdane	r2, {r3, r4, r8, ip, pc}^
     1bc:	2e270000 	cdpcs	0, 2, cr0, cr7, cr0, {0}
     1c0:	3a0e0301 	bcc	380dcc <__bss_end__+0x376794>
     1c4:	270b3b0b 	strcs	r3, [fp, -fp, lsl #22]
     1c8:	11134919 	tstne	r3, r9, lsl r9
     1cc:	40061201 	andmi	r1, r6, r1, lsl #4
     1d0:	19429718 	stmdbne	r2, {r3, r4, r8, r9, sl, ip, pc}^
     1d4:	00001301 	andeq	r1, r0, r1, lsl #6
     1d8:	03000528 	movweq	r0, #1320	; 0x528
     1dc:	3b0b3a08 	blcc	2cea04 <__bss_end__+0x2c43cc>
     1e0:	0213490b 	andseq	r4, r3, #180224	; 0x2c000
     1e4:	29000018 	stmdbcs	r0, {r3, r4}
     1e8:	193f002e 	ldmdbne	pc!, {r1, r2, r3, r5}	; <UNPREDICTABLE>
     1ec:	0b3a0e03 	bleq	e83a00 <__bss_end__+0xe793c8>
     1f0:	19270b3b 	stmdbne	r7!, {r0, r1, r3, r4, r5, r8, r9, fp}
     1f4:	01111349 	tsteq	r1, r9, asr #6
     1f8:	18400612 	stmdane	r0, {r1, r4, r9, sl}^
     1fc:	00194297 	mulseq	r9, r7, r2
     200:	012e2a00 	teqeq	lr, r0, lsl #20
     204:	0e03193f 	mcreq	9, 0, r1, cr3, cr15, {1}
     208:	0b3b0b3a 	bleq	ec2ef8 <__bss_end__+0xeb88c0>
     20c:	01111927 	tsteq	r1, r7, lsr #18
     210:	18400612 	stmdane	r0, {r1, r4, r9, sl}^
     214:	01194297 			; <UNDEFINED> instruction: 0x01194297
     218:	2b000013 	blcs	26c <__code_start__-0x7d94>
     21c:	08030034 	stmdaeq	r3, {r2, r4, r5}
     220:	0b3b0b3a 	bleq	ec2f10 <__bss_end__+0xeb88d8>
     224:	18021349 	stmdane	r2, {r0, r3, r6, r8, r9, ip}
     228:	342c0000 	strtcc	r0, [ip], #-0
     22c:	3a0e0300 	bcc	380e34 <__bss_end__+0x3767fc>
     230:	490b3b0b 	stmdbmi	fp, {r0, r1, r3, r8, r9, fp, ip, sp}
     234:	3c193f13 	ldccc	15, cr3, [r9], {19}
     238:	2d000019 	stccs	0, cr0, [r0, #-100]	; 0xffffff9c
     23c:	193f002e 	ldmdbne	pc!, {r1, r2, r3, r5}	; <UNPREDICTABLE>
     240:	0b3a0e03 	bleq	e83a54 <__bss_end__+0xe7941c>
     244:	19270b3b 	stmdbne	r7!, {r0, r1, r3, r4, r5, r8, r9, fp}
     248:	0000193c 	andeq	r1, r0, ip, lsr r9
     24c:	3f012e2e 	svccc	0x00012e2e
     250:	3a0e0319 	bcc	380ebc <__bss_end__+0x376884>
     254:	270b3b0b 	strcs	r3, [fp, -fp, lsl #22]
     258:	3c134919 	ldccc	9, cr4, [r3], {25}
     25c:	00130119 	andseq	r0, r3, r9, lsl r1
     260:	00182f00 	andseq	r2, r8, r0, lsl #30
     264:	2e300000 	cdpcs	0, 3, cr0, cr0, cr0, {0}
     268:	03193f01 	tsteq	r9, #1, 30
     26c:	3b0b3a0e 	blcc	2ceaac <__bss_end__+0x2c4474>
     270:	4919270b 	ldmdbmi	r9, {r0, r1, r3, r8, r9, sl, sp}
     274:	00193c13 	andseq	r3, r9, r3, lsl ip
     278:	11010000 	mrsne	r0, (UNDEF: 1)
     27c:	130e2501 	movwne	r2, #58625	; 0xe501
     280:	1b0e030b 	blne	380eb4 <__bss_end__+0x37687c>
     284:	1201110e 	andne	r1, r1, #-2147483645	; 0x80000003
     288:	00171006 	andseq	r1, r7, r6
     28c:	00240200 	eoreq	r0, r4, r0, lsl #4
     290:	0b3e0b0b 	bleq	f82ec4 <__bss_end__+0xf7888c>
     294:	00000803 	andeq	r0, r0, r3, lsl #16
     298:	0b002403 	bleq	92ac <va_printk+0x124>
     29c:	030b3e0b 	movweq	r3, #48651	; 0xbe0b
     2a0:	0400000e 	streq	r0, [r0], #-14
     2a4:	0e030016 	mcreq	0, 0, r0, cr3, cr6, {0}
     2a8:	0b3b0b3a 	bleq	ec2f98 <__bss_end__+0xeb8960>
     2ac:	00001349 	andeq	r1, r0, r9, asr #6
     2b0:	0b000f05 	bleq	3ecc <__code_start__-0x4134>
     2b4:	0600000b 	streq	r0, [r0], -fp
     2b8:	0b0b000f 	bleq	2c02fc <__bss_end__+0x2b5cc4>
     2bc:	00001349 	andeq	r1, r0, r9, asr #6
     2c0:	49002607 	stmdbmi	r0, {r0, r1, r2, r9, sl, sp}
     2c4:	08000013 	stmdaeq	r0, {r0, r1, r4}
     2c8:	19270115 	stmdbne	r7!, {r0, r2, r4, r8}
     2cc:	00001301 	andeq	r1, r0, r1, lsl #6
     2d0:	49000509 	stmdbmi	r0, {r0, r3, r8, sl}
     2d4:	0a000013 	beq	328 <__code_start__-0x7cd8>
     2d8:	0e03012e 	adfeqsp	f0, f3, #0.5
     2dc:	0b3b0b3a 	bleq	ec2fcc <__bss_end__+0xeb8994>
     2e0:	13491927 	movtne	r1, #39207	; 0x9927
     2e4:	13010b20 	movwne	r0, #6944	; 0x1b20
     2e8:	340b0000 	strcc	r0, [fp], #-0
     2ec:	3a080300 	bcc	200ef4 <__bss_end__+0x1f68bc>
     2f0:	490b3b0b 	stmdbmi	fp, {r0, r1, r3, r8, r9, fp, ip, sp}
     2f4:	0c000013 	stceq	0, cr0, [r0], {19}
     2f8:	08030005 	stmdaeq	r3, {r0, r2}
     2fc:	0b3b0b3a 	bleq	ec2fec <__bss_end__+0xeb89b4>
     300:	00001349 	andeq	r1, r0, r9, asr #6
     304:	03012e0d 	movweq	r2, #7693	; 0x1e0d
     308:	3b0b3a0e 	blcc	2ceb48 <__bss_end__+0x2c4510>
     30c:	2019270b 	andscs	r2, r9, fp, lsl #14
     310:	0013010b 	andseq	r0, r3, fp, lsl #2
     314:	00340e00 	eorseq	r0, r4, r0, lsl #28
     318:	0b3a0e03 	bleq	e83b2c <__bss_end__+0xe794f4>
     31c:	13490b3b 	movtne	r0, #39739	; 0x9b3b
     320:	2e0f0000 	cdpcs	0, 0, cr0, cr15, cr0, {0}
     324:	03193f01 	tsteq	r9, #1, 30
     328:	3b0b3a0e 	blcc	2ceb68 <__bss_end__+0x2c4530>
     32c:	1119270b 	tstne	r9, fp, lsl #14
     330:	40061201 	andmi	r1, r6, r1, lsl #4
     334:	19429718 	stmdbne	r2, {r3, r4, r8, r9, sl, ip, pc}^
     338:	00001301 	andeq	r1, r0, r1, lsl #6
     33c:	03000510 	movweq	r0, #1296	; 0x510
     340:	3b0b3a0e 	blcc	2ceb80 <__bss_end__+0x2c4548>
     344:	0213490b 	andseq	r4, r3, #180224	; 0x2c000
     348:	11000017 	tstne	r0, r7, lsl r0
     34c:	0e030034 	mcreq	0, 0, r0, cr3, cr4, {1}
     350:	0b3b0b3a 	bleq	ec3040 <__bss_end__+0xeb8a08>
     354:	17021349 	strne	r1, [r2, -r9, asr #6]
     358:	34120000 	ldrcc	r0, [r2], #-0
     35c:	490e0300 	stmdbmi	lr, {r8, r9}
     360:	02193413 	andseq	r3, r9, #318767104	; 0x13000000
     364:	13000018 	movwne	r0, #24
     368:	1331011d 	teqne	r1, #1073741831	; 0x40000007
     36c:	06120111 			; <UNDEFINED> instruction: 0x06120111
     370:	0b590b58 	bleq	16430d8 <__bss_end__+0x1638aa0>
     374:	00001301 	andeq	r1, r0, r1, lsl #6
     378:	11010b14 	tstne	r1, r4, lsl fp
     37c:	00061201 	andeq	r1, r6, r1, lsl #4
     380:	00341500 	eorseq	r1, r4, r0, lsl #10
     384:	17021331 	smladxne	r2, r1, r3, r1
     388:	05160000 	ldreq	r0, [r6, #-0]
     38c:	02133100 	andseq	r3, r3, #0, 2
     390:	17000017 	smladne	r0, r7, r0, r0
     394:	13310005 	teqne	r1, #5
     398:	0000051c 	andeq	r0, r0, ip, lsl r5
     39c:	31000518 	tstcc	r0, r8, lsl r5
     3a0:	000b1c13 	andeq	r1, fp, r3, lsl ip
     3a4:	82891900 	addhi	r1, r9, #0, 18
     3a8:	01110001 	tsteq	r1, r1
     3ac:	00001331 	andeq	r1, r0, r1, lsr r3
     3b0:	0182891a 	orreq	r8, r2, sl, lsl r9
     3b4:	31011101 	tstcc	r1, r1, lsl #2
     3b8:	00130113 	andseq	r0, r3, r3, lsl r1
     3bc:	828a1b00 	addhi	r1, sl, #0, 22
     3c0:	18020001 	stmdane	r2, {r0}
     3c4:	00184291 	mulseq	r8, r1, r2
     3c8:	01011c00 	tsteq	r1, r0, lsl #24
     3cc:	13011349 	movwne	r1, #4937	; 0x1349
     3d0:	211d0000 	tstcs	sp, r0
     3d4:	2f134900 	svccs	0x00134900
     3d8:	1e00000b 	cdpne	0, 0, cr0, cr0, cr11, {0}
     3dc:	0e030034 	mcreq	0, 0, r0, cr3, cr4, {1}
     3e0:	19341349 	ldmdbne	r4!, {r0, r3, r6, r8, r9, ip}
     3e4:	00000e1c 	andeq	r0, r0, ip, lsl lr
     3e8:	0300051f 	movweq	r0, #1311	; 0x51f
     3ec:	3b0b3a08 	blcc	2cec14 <__bss_end__+0x2c45dc>
     3f0:	0213490b 	andseq	r4, r3, #180224	; 0x2c000
     3f4:	20000017 	andcs	r0, r0, r7, lsl r0
     3f8:	0e030034 	mcreq	0, 0, r0, cr3, cr4, {1}
     3fc:	0b3b0b3a 	bleq	ec30ec <__bss_end__+0xeb8ab4>
     400:	18021349 	stmdane	r2, {r0, r3, r6, r8, r9, ip}
     404:	34210000 	strtcc	r0, [r1], #-0
     408:	00133100 	andseq	r3, r3, r0, lsl #2
     40c:	011d2200 	tsteq	sp, r0, lsl #4
     410:	01111331 	tsteq	r1, r1, lsr r3
     414:	0b580612 	bleq	1601c64 <__bss_end__+0x15f762c>
     418:	00000b59 	andeq	r0, r0, r9, asr fp
     41c:	31003423 	tstcc	r0, r3, lsr #8
     420:	00180213 	andseq	r0, r8, r3, lsl r2
     424:	82892400 	addhi	r2, r9, #0, 8
     428:	01110101 	tsteq	r1, r1, lsl #2
     42c:	34250000 	strtcc	r0, [r5], #-0
     430:	3a080300 	bcc	201038 <__bss_end__+0x1f6a00>
     434:	490b3b0b 	stmdbmi	fp, {r0, r1, r3, r8, r9, fp, ip, sp}
     438:	00051c13 	andeq	r1, r5, r3, lsl ip
     43c:	00052600 	andeq	r2, r5, r0, lsl #12
     440:	0b3a0e03 	bleq	e83c54 <__bss_end__+0xe7961c>
     444:	13490b3b 	movtne	r0, #39739	; 0x9b3b
     448:	00001802 	andeq	r1, r0, r2, lsl #16
     44c:	31000527 	tstcc	r0, r7, lsr #10
     450:	00180213 	andseq	r0, r8, r3, lsl r2
     454:	00052800 	andeq	r2, r5, r0, lsl #16
     458:	0b3a0803 	bleq	e8246c <__bss_end__+0xe77e34>
     45c:	13490b3b 	movtne	r0, #39739	; 0x9b3b
     460:	00001802 	andeq	r1, r0, r2, lsl #16
     464:	31000529 	tstcc	r0, r9, lsr #10
     468:	00061c13 	andeq	r1, r6, r3, lsl ip
     46c:	00342a00 	eorseq	r2, r4, r0, lsl #20
     470:	0b3a0e03 	bleq	e83c84 <__bss_end__+0xe7964c>
     474:	13490b3b 	movtne	r0, #39739	; 0x9b3b
     478:	0000061c 	andeq	r0, r0, ip, lsl r6
     47c:	31011d2b 	tstcc	r1, fp, lsr #26
     480:	12011113 	andne	r1, r1, #-1073741820	; 0xc0000004
     484:	590b5806 	stmdbpl	fp, {r1, r2, fp, ip, lr}
     488:	2c000005 	stccs	0, cr0, [r0], {5}
     48c:	193f012e 	ldmdbne	pc!, {r1, r2, r3, r5, r8}	; <UNPREDICTABLE>
     490:	0b3a0e03 	bleq	e83ca4 <__bss_end__+0xe7966c>
     494:	1927053b 	stmdbne	r7!, {r0, r1, r3, r4, r5, r8, sl}
     498:	01111349 	tsteq	r1, r9, asr #6
     49c:	18400612 	stmdane	r0, {r1, r4, r9, sl}^
     4a0:	01194297 			; <UNDEFINED> instruction: 0x01194297
     4a4:	2d000013 	stccs	0, cr0, [r0, #-76]	; 0xffffffb4
     4a8:	08030005 	stmdaeq	r3, {r0, r2}
     4ac:	053b0b3a 	ldreq	r0, [fp, #-2874]!	; 0xb3a
     4b0:	17021349 	strne	r1, [r2, -r9, asr #6]
     4b4:	342e0000 	strtcc	r0, [lr], #-0
     4b8:	3a0e0300 	bcc	3810c0 <__bss_end__+0x376a88>
     4bc:	49053b0b 	stmdbmi	r5, {r0, r1, r3, r8, r9, fp, ip, sp}
     4c0:	00170213 	andseq	r0, r7, r3, lsl r2
     4c4:	82892f00 	addhi	r2, r9, #0, 30
     4c8:	01110101 	tsteq	r1, r1, lsl #2
     4cc:	00001331 	andeq	r1, r0, r1, lsr r3
     4d0:	03003430 	movweq	r3, #1072	; 0x430
     4d4:	3b0b3a0e 	blcc	2ced14 <__bss_end__+0x2c46dc>
     4d8:	3f13490b 	svccc	0x0013490b
     4dc:	00180219 	andseq	r0, r8, r9, lsl r2
     4e0:	002e3100 	eoreq	r3, lr, r0, lsl #2
     4e4:	0e03193f 	mcreq	9, 0, r1, cr3, cr15, {1}
     4e8:	0b3b0b3a 	bleq	ec31d8 <__bss_end__+0xeb8ba0>
     4ec:	193c1927 	ldmdbne	ip!, {r0, r1, r2, r5, r8, fp, ip}
     4f0:	2e320000 	cdpcs	0, 3, cr0, cr2, cr0, {0}
     4f4:	03193f01 	tsteq	r9, #1, 30
     4f8:	3b0b3a0e 	blcc	2ced38 <__bss_end__+0x2c4700>
     4fc:	4919270b 	ldmdbmi	r9, {r0, r1, r3, r8, r9, sl, sp}
     500:	01193c13 	tsteq	r9, r3, lsl ip
     504:	33000013 	movwcc	r0, #19
     508:	00000018 	andeq	r0, r0, r8, lsl r0
     50c:	01110100 	tsteq	r1, r0, lsl #2
     510:	0b130e25 	bleq	4c3dac <__bss_end__+0x4b9774>
     514:	0e1b0e03 	cdpeq	14, 1, cr0, cr11, cr3, {0}
     518:	06120111 			; <UNDEFINED> instruction: 0x06120111
     51c:	00001710 	andeq	r1, r0, r0, lsl r7
     520:	0b002402 	bleq	9530 <reset_vector+0xc>
     524:	030b3e0b 	movweq	r3, #48651	; 0xbe0b
     528:	03000008 	movweq	r0, #8
     52c:	0b0b0024 	bleq	2c05c4 <__bss_end__+0x2b5f8c>
     530:	0e030b3e 	vmoveq.16	d3[0], r0
     534:	16040000 	strne	r0, [r4], -r0
     538:	3a0e0300 	bcc	381140 <__bss_end__+0x376b08>
     53c:	490b3b0b 	stmdbmi	fp, {r0, r1, r3, r8, r9, fp, ip, sp}
     540:	05000013 	streq	r0, [r0, #-19]
     544:	0b0b000f 	bleq	2c0588 <__bss_end__+0x2b5f50>
     548:	0f060000 	svceq	0x00060000
     54c:	490b0b00 	stmdbmi	fp, {r8, r9, fp}
     550:	07000013 	smladeq	r0, r3, r0, r0
     554:	13490026 	movtne	r0, #36902	; 0x9026
     558:	15080000 	strne	r0, [r8, #-0]
     55c:	01192701 	tsteq	r9, r1, lsl #14
     560:	09000013 	stmdbeq	r0, {r0, r1, r4}
     564:	13490005 	movtne	r0, #36869	; 0x9005
     568:	130a0000 	movwne	r0, #40960	; 0xa000
     56c:	0b0e0301 	bleq	381178 <__bss_end__+0x376b40>
     570:	3b0b3a0b 	blcc	2ceda4 <__bss_end__+0x2c476c>
     574:	0013010b 	andseq	r0, r3, fp, lsl #2
     578:	000d0b00 	andeq	r0, sp, r0, lsl #22
     57c:	0b3a0e03 	bleq	e83d90 <__bss_end__+0xe79758>
     580:	13490b3b 	movtne	r0, #39739	; 0x9b3b
     584:	00000b38 	andeq	r0, r0, r8, lsr fp
     588:	03000d0c 	movweq	r0, #3340	; 0xd0c
     58c:	3b0b3a08 	blcc	2cedb4 <__bss_end__+0x2c477c>
     590:	3813490b 	ldmdacc	r3, {r0, r1, r3, r8, fp, lr}
     594:	0d00000b 	stceq	0, cr0, [r0, #-44]	; 0xffffffd4
     598:	00000035 	andeq	r0, r0, r5, lsr r0
     59c:	2701150e 	strcs	r1, [r1, -lr, lsl #10]
     5a0:	01134919 	tsteq	r3, r9, lsl r9
     5a4:	0f000013 	svceq	0x00000013
     5a8:	13490035 	movtne	r0, #36917	; 0x9035
     5ac:	2e100000 	cdpcs	0, 1, cr0, cr0, cr0, {0}
     5b0:	3a0e0301 	bcc	3811bc <__bss_end__+0x376b84>
     5b4:	270b3b0b 	strcs	r3, [fp, -fp, lsl #22]
     5b8:	20134919 	andscs	r4, r3, r9, lsl r9
     5bc:	0013010b 	andseq	r0, r3, fp, lsl #2
     5c0:	00341100 	eorseq	r1, r4, r0, lsl #2
     5c4:	0b3a0803 	bleq	e825d8 <__bss_end__+0xe77fa0>
     5c8:	13490b3b 	movtne	r0, #39739	; 0x9b3b
     5cc:	05120000 	ldreq	r0, [r2, #-0]
     5d0:	3a0e0300 	bcc	3811d8 <__bss_end__+0x376ba0>
     5d4:	490b3b0b 	stmdbmi	fp, {r0, r1, r3, r8, r9, fp, ip, sp}
     5d8:	13000013 	movwne	r0, #19
     5dc:	0e030034 	mcreq	0, 0, r0, cr3, cr4, {1}
     5e0:	0b3b0b3a 	bleq	ec32d0 <__bss_end__+0xeb8c98>
     5e4:	00001349 	andeq	r1, r0, r9, asr #6
     5e8:	03012e14 	movweq	r2, #7700	; 0x1e14
     5ec:	3b0b3a0e 	blcc	2cee2c <__bss_end__+0x2c47f4>
     5f0:	1119270b 	tstne	r9, fp, lsl #14
     5f4:	40061201 	andmi	r1, r6, r1, lsl #4
     5f8:	19429718 	stmdbne	r2, {r3, r4, r8, r9, sl, ip, pc}^
     5fc:	00001301 	andeq	r1, r0, r1, lsl #6
     600:	03000515 	movweq	r0, #1301	; 0x515
     604:	3b0b3a0e 	blcc	2cee44 <__bss_end__+0x2c480c>
     608:	0213490b 	andseq	r4, r3, #180224	; 0x2c000
     60c:	16000017 			; <UNDEFINED> instruction: 0x16000017
     610:	08030005 	stmdaeq	r3, {r0, r2}
     614:	0b3b0b3a 	bleq	ec3304 <__bss_end__+0xeb8ccc>
     618:	17021349 	strne	r1, [r2, -r9, asr #6]
     61c:	34170000 	ldrcc	r0, [r7], #-0
     620:	490e0300 	stmdbmi	lr, {r8, r9}
     624:	02193413 	andseq	r3, r9, #318767104	; 0x13000000
     628:	18000018 	stmdane	r0, {r3, r4}
     62c:	08030034 	stmdaeq	r3, {r2, r4, r5}
     630:	0b3b0b3a 	bleq	ec3320 <__bss_end__+0xeb8ce8>
     634:	17021349 	strne	r1, [r2, -r9, asr #6]
     638:	1d190000 	ldcne	0, cr0, [r9, #-0]
     63c:	11133101 	tstne	r3, r1, lsl #2
     640:	58061201 	stmdapl	r6, {r0, r9, ip}
     644:	010b590b 	tsteq	fp, fp, lsl #18
     648:	1a000013 	bne	69c <__code_start__-0x7964>
     64c:	0111010b 	tsteq	r1, fp, lsl #2
     650:	00000612 	andeq	r0, r0, r2, lsl r6
     654:	3100341b 	tstcc	r0, fp, lsl r4
     658:	1c000013 	stcne	0, cr0, [r0], {19}
     65c:	1331011d 	teqne	r1, #1073741831	; 0x40000007
     660:	06120111 			; <UNDEFINED> instruction: 0x06120111
     664:	0b590b58 	bleq	16433cc <__bss_end__+0x1638d94>
     668:	341d0000 	ldrcc	r0, [sp], #-0
     66c:	02133100 	andseq	r3, r3, #0, 2
     670:	1e000017 	mcrne	0, 0, r0, cr0, cr7, {0}
     674:	01018289 	smlabbeq	r1, r9, r2, r8
     678:	13310111 	teqne	r1, #1073741828	; 0x40000004
     67c:	00001301 	andeq	r1, r0, r1, lsl #6
     680:	01828a1f 	orreq	r8, r2, pc, lsl sl
     684:	91180200 	tstls	r8, r0, lsl #4
     688:	00001842 	andeq	r1, r0, r2, asr #16
     68c:	01828920 	orreq	r8, r2, r0, lsr #18
     690:	31011100 	mrscc	r1, (UNDEF: 17)
     694:	21000013 	tstcs	r0, r3, lsl r0
     698:	01018289 	smlabbeq	r1, r9, r2, r8
     69c:	13010111 	movwne	r0, #4369	; 0x1111
     6a0:	89220000 	stmdbhi	r2!, {}	; <UNPREDICTABLE>
     6a4:	11010182 	smlabbne	r1, r2, r1, r0
     6a8:	00133101 	andseq	r3, r3, r1, lsl #2
     6ac:	01012300 	mrseq	r2, SP_irq
     6b0:	13011349 	movwne	r1, #4937	; 0x1349
     6b4:	21240000 	teqcs	r4, r0
     6b8:	2f134900 	svccs	0x00134900
     6bc:	2500000b 	strcs	r0, [r0, #-11]
     6c0:	0e030034 	mcreq	0, 0, r0, cr3, cr4, {1}
     6c4:	19341349 	ldmdbne	r4!, {r0, r3, r6, r8, r9, ip}
     6c8:	00000e1c 	andeq	r0, r0, ip, lsl lr
     6cc:	03000526 	movweq	r0, #1318	; 0x526
     6d0:	3b0b3a08 	blcc	2ceef8 <__bss_end__+0x2c48c0>
     6d4:	0013490b 	andseq	r4, r3, fp, lsl #18
     6d8:	012e2700 	teqeq	lr, r0, lsl #14
     6dc:	0b3a0e03 	bleq	e83ef0 <__bss_end__+0xe798b8>
     6e0:	19270b3b 	stmdbne	r7!, {r0, r1, r3, r4, r5, r8, r9, fp}
     6e4:	01111349 	tsteq	r1, r9, asr #6
     6e8:	18400612 	stmdane	r0, {r1, r4, r9, sl}^
     6ec:	01194297 			; <UNDEFINED> instruction: 0x01194297
     6f0:	28000013 	stmdacs	r0, {r0, r1, r4}
     6f4:	0e030034 	mcreq	0, 0, r0, cr3, cr4, {1}
     6f8:	0b3b0b3a 	bleq	ec33e8 <__bss_end__+0xeb8db0>
     6fc:	18021349 	stmdane	r2, {r0, r3, r6, r8, r9, ip}
     700:	05290000 	streq	r0, [r9, #-0]!
     704:	1c133100 	ldfnes	f3, [r3], {-0}
     708:	2a00000b 	bcs	73c <__code_start__-0x78c4>
     70c:	13310005 	teqne	r1, #5
     710:	00001702 	andeq	r1, r0, r2, lsl #14
     714:	3100342b 	tstcc	r0, fp, lsr #8
     718:	00180213 	andseq	r0, r8, r3, lsl r2
     71c:	00342c00 	eorseq	r2, r4, r0, lsl #24
     720:	0b1c1331 	bleq	7053ec <__bss_end__+0x6fadb4>
     724:	052d0000 	streq	r0, [sp, #-0]!
     728:	00133100 	andseq	r3, r3, r0, lsl #2
     72c:	00342e00 	eorseq	r2, r4, r0, lsl #28
     730:	13490e03 	movtne	r0, #40451	; 0x9e03
     734:	00001934 	andeq	r1, r0, r4, lsr r9
     738:	0300052f 	movweq	r0, #1327	; 0x52f
     73c:	3b0b3a08 	blcc	2cef64 <__bss_end__+0x2c492c>
     740:	0213490b 	andseq	r4, r3, #180224	; 0x2c000
     744:	30000018 	andcc	r0, r0, r8, lsl r0
     748:	193f012e 	ldmdbne	pc!, {r1, r2, r3, r5, r8}	; <UNPREDICTABLE>
     74c:	0b3a0e03 	bleq	e83f60 <__bss_end__+0xe79928>
     750:	19270b3b 	stmdbne	r7!, {r0, r1, r3, r4, r5, r8, r9, fp}
     754:	01111349 	tsteq	r1, r9, asr #6
     758:	18400612 	stmdane	r0, {r1, r4, r9, sl}^
     75c:	01194297 			; <UNDEFINED> instruction: 0x01194297
     760:	31000013 	tstcc	r0, r3, lsl r0
     764:	0e030034 	mcreq	0, 0, r0, cr3, cr4, {1}
     768:	0b3b0b3a 	bleq	ec3458 <__bss_end__+0xeb8e20>
     76c:	193f1349 	ldmdbne	pc!, {r0, r3, r6, r8, r9, ip}	; <UNPREDICTABLE>
     770:	0000193c 	andeq	r1, r0, ip, lsr r9
     774:	3f012e32 	svccc	0x00012e32
     778:	3a0e0319 	bcc	3813e4 <__bss_end__+0x376dac>
     77c:	270b3b0b 	strcs	r3, [fp, -fp, lsl #22]
     780:	3c134919 	ldccc	9, cr4, [r3], {25}
     784:	00130119 	andseq	r0, r3, r9, lsl r1
     788:	00183300 	andseq	r3, r8, r0, lsl #6
     78c:	2e340000 	cdpcs	0, 3, cr0, cr4, cr0, {0}
     790:	03193f00 	tsteq	r9, #0, 30
     794:	3b0b3a0e 	blcc	2cefd4 <__bss_end__+0x2c499c>
     798:	3c19270b 	ldccc	7, cr2, [r9], {11}
     79c:	35000019 	strcc	r0, [r0, #-25]
     7a0:	193f012e 	ldmdbne	pc!, {r1, r2, r3, r5, r8}	; <UNPREDICTABLE>
     7a4:	0b3a0e03 	bleq	e83fb8 <__bss_end__+0xe79980>
     7a8:	19270b3b 	stmdbne	r7!, {r0, r1, r3, r4, r5, r8, r9, fp}
     7ac:	1301193c 	movwne	r1, #6460	; 0x193c
     7b0:	01000000 	mrseq	r0, (UNDEF: 0)
     7b4:	0e250111 	mcreq	1, 1, r0, cr5, cr1, {0}
     7b8:	0e030b13 	vmoveq.32	d3[0], r0
     7bc:	01110e1b 	tsteq	r1, fp, lsl lr
     7c0:	17100612 			; <UNDEFINED> instruction: 0x17100612
     7c4:	16020000 	strne	r0, [r2], -r0
     7c8:	3a0e0300 	bcc	3813d0 <__bss_end__+0x376d98>
     7cc:	490b3b0b 	stmdbmi	fp, {r0, r1, r3, r8, r9, fp, ip, sp}
     7d0:	03000013 	movweq	r0, #19
     7d4:	0e030113 	mcreq	1, 0, r0, cr3, cr3, {0}
     7d8:	0b3a0b0b 	bleq	e8340c <__bss_end__+0xe78dd4>
     7dc:	13010b3b 	movwne	r0, #6971	; 0x1b3b
     7e0:	0d040000 	stceq	0, cr0, [r4, #-0]
     7e4:	490e0300 	stmdbmi	lr, {r8, r9}
     7e8:	340b3813 	strcc	r3, [fp], #-2067	; 0x813
     7ec:	05000019 	streq	r0, [r0, #-25]
     7f0:	0b0b000f 	bleq	2c0834 <__bss_end__+0x2b61fc>
     7f4:	24060000 	strcs	r0, [r6], #-0
     7f8:	3e0b0b00 	vmlacc.f64	d0, d11, d0
     7fc:	0008030b 	andeq	r0, r8, fp, lsl #6
     800:	00240700 	eoreq	r0, r4, r0, lsl #14
     804:	0b3e0b0b 	bleq	f83438 <__bss_end__+0xf78e00>
     808:	00000e03 	andeq	r0, r0, r3, lsl #28
     80c:	0b000f08 	bleq	4434 <__code_start__-0x3bcc>
     810:	0013490b 	andseq	r4, r3, fp, lsl #18
     814:	00260900 	eoreq	r0, r6, r0, lsl #18
     818:	00001349 	andeq	r1, r0, r9, asr #6
     81c:	3f012e0a 	svccc	0x00012e0a
     820:	3a0e0319 	bcc	38148c <__bss_end__+0x376e54>
     824:	270b3b0b 	strcs	r3, [fp, -fp, lsl #22]
     828:	11134919 	tstne	r3, r9, lsl r9
     82c:	40061201 	andmi	r1, r6, r1, lsl #4
     830:	19429718 	stmdbne	r2, {r3, r4, r8, r9, sl, ip, pc}^
     834:	00001301 	andeq	r1, r0, r1, lsl #6
     838:	0300050b 	movweq	r0, #1291	; 0x50b
     83c:	3b0b3a08 	blcc	2cf064 <__bss_end__+0x2c4a2c>
     840:	0213490b 	andseq	r4, r3, #180224	; 0x2c000
     844:	0c000018 	stceq	0, cr0, [r0], {24}
     848:	00000018 	andeq	r0, r0, r8, lsl r0
     84c:	0300340d 	movweq	r3, #1037	; 0x40d
     850:	3b0b3a08 	blcc	2cf078 <__bss_end__+0x2c4a40>
     854:	0213490b 	andseq	r4, r3, #180224	; 0x2c000
     858:	0e000018 	mcreq	0, 0, r0, cr0, cr8, {0}
     85c:	0e030034 	mcreq	0, 0, r0, cr3, cr4, {1}
     860:	0b3b0b3a 	bleq	ec3550 <__bss_end__+0xeb8f18>
     864:	18021349 	stmdane	r2, {r0, r3, r6, r8, r9, ip}
     868:	340f0000 	strcc	r0, [pc], #-0	; 870 <__code_start__-0x7790>
     86c:	3a080300 	bcc	201474 <__bss_end__+0x1f6e3c>
     870:	490b3b0b 	stmdbmi	fp, {r0, r1, r3, r8, r9, fp, ip, sp}
     874:	00170213 	andseq	r0, r7, r3, lsl r2
     878:	82891000 	addhi	r1, r9, #0
     87c:	01110101 	tsteq	r1, r1, lsl #2
     880:	13011331 	movwne	r1, #4913	; 0x1331
     884:	8a110000 	bhi	44088c <__bss_end__+0x436254>
     888:	02000182 	andeq	r0, r0, #-2147483616	; 0x80000020
     88c:	18429118 	stmdane	r2, {r3, r4, r8, ip, pc}^
     890:	89120000 	ldmdbhi	r2, {}	; <UNPREDICTABLE>
     894:	11010182 	smlabbne	r1, r2, r1, r0
     898:	13000001 	movwne	r0, #1
     89c:	13490101 	movtne	r0, #37121	; 0x9101
     8a0:	00001301 	andeq	r1, r0, r1, lsl #6
     8a4:	49002114 	stmdbmi	r0, {r2, r4, r8, sp}
     8a8:	00052f13 	andeq	r2, r5, r3, lsl pc
     8ac:	01151500 	tsteq	r5, r0, lsl #10
     8b0:	13491927 	movtne	r1, #39207	; 0x9927
     8b4:	00001301 	andeq	r1, r0, r1, lsl #6
     8b8:	49000516 	stmdbmi	r0, {r1, r2, r4, r8, sl}
     8bc:	17000013 	smladne	r0, r3, r0, r0
     8c0:	0e030034 	mcreq	0, 0, r0, cr3, cr4, {1}
     8c4:	0b3b0b3a 	bleq	ec35b4 <__bss_end__+0xeb8f7c>
     8c8:	193f1349 	ldmdbne	pc!, {r0, r3, r6, r8, r9, ip}	; <UNPREDICTABLE>
     8cc:	0000193c 	andeq	r1, r0, ip, lsr r9
     8d0:	3f012e18 	svccc	0x00012e18
     8d4:	3a0e0319 	bcc	381540 <__bss_end__+0x376f08>
     8d8:	270b3b0b 	strcs	r3, [fp, -fp, lsl #22]
     8dc:	3c134919 	ldccc	9, cr4, [r3], {25}
     8e0:	00000019 	andeq	r0, r0, r9, lsl r0
     8e4:	25011101 	strcs	r1, [r1, #-257]	; 0x101
     8e8:	030b130e 	movweq	r1, #45838	; 0xb30e
     8ec:	110e1b0e 	tstne	lr, lr, lsl #22
     8f0:	10061201 	andne	r1, r6, r1, lsl #4
     8f4:	02000017 	andeq	r0, r0, #23
     8f8:	0b0b0024 	bleq	2c0990 <__bss_end__+0x2b6358>
     8fc:	08030b3e 	stmdaeq	r3, {r1, r2, r3, r4, r5, r8, r9, fp}
     900:	24030000 	strcs	r0, [r3], #-0
     904:	3e0b0b00 	vmlacc.f64	d0, d11, d0
     908:	000e030b 	andeq	r0, lr, fp, lsl #6
     90c:	012e0400 	teqeq	lr, r0, lsl #8
     910:	0b3a0e03 	bleq	e84124 <__bss_end__+0xe79aec>
     914:	19270b3b 	stmdbne	r7!, {r0, r1, r3, r4, r5, r8, r9, fp}
     918:	01111349 	tsteq	r1, r9, asr #6
     91c:	18400612 	stmdane	r0, {r1, r4, r9, sl}^
     920:	01194297 			; <UNDEFINED> instruction: 0x01194297
     924:	05000013 	streq	r0, [r0, #-19]
     928:	08030005 	stmdaeq	r3, {r0, r2}
     92c:	0b3b0b3a 	bleq	ec361c <__bss_end__+0xeb8fe4>
     930:	17021349 	strne	r1, [r2, -r9, asr #6]
     934:	89060000 	stmdbhi	r6, {}	; <UNPREDICTABLE>
     938:	11010182 	smlabbne	r1, r2, r1, r0
     93c:	00133101 	andseq	r3, r3, r1, lsl #2
     940:	828a0700 	addhi	r0, sl, #0, 14
     944:	18020001 	stmdane	r2, {r0}
     948:	00184291 	mulseq	r8, r1, r2
     94c:	002e0800 	eoreq	r0, lr, r0, lsl #16
     950:	0e03193f 	mcreq	9, 0, r1, cr3, cr15, {1}
     954:	0b3b0b3a 	bleq	ec3644 <__bss_end__+0xeb900c>
     958:	01111927 	tsteq	r1, r7, lsr #18
     95c:	18400612 	stmdane	r0, {r1, r4, r9, sl}^
     960:	00194297 	mulseq	r9, r7, r2
     964:	012e0900 	teqeq	lr, r0, lsl #18
     968:	0e03193f 	mcreq	9, 0, r1, cr3, cr15, {1}
     96c:	0b3b0b3a 	bleq	ec365c <__bss_end__+0xeb9024>
     970:	01111927 	tsteq	r1, r7, lsr #18
     974:	18400612 	stmdane	r0, {r1, r4, r9, sl}^
     978:	01194297 			; <UNDEFINED> instruction: 0x01194297
     97c:	0a000013 	beq	9d0 <__code_start__-0x7630>
     980:	08030005 	stmdaeq	r3, {r0, r2}
     984:	0b3b0b3a 	bleq	ec3674 <__bss_end__+0xeb903c>
     988:	18021349 	stmdane	r2, {r0, r3, r6, r8, r9, ip}
     98c:	150b0000 	strne	r0, [fp, #-0]
     990:	49192701 	ldmdbmi	r9, {r0, r8, r9, sl, sp}
     994:	00130113 	andseq	r0, r3, r3, lsl r1
     998:	00050c00 	andeq	r0, r5, r0, lsl #24
     99c:	00001349 	andeq	r1, r0, r9, asr #6
     9a0:	0b000f0d 	bleq	45dc <__code_start__-0x3a24>
     9a4:	0013490b 	andseq	r4, r3, fp, lsl #18
     9a8:	00340e00 	eorseq	r0, r4, r0, lsl #28
     9ac:	0b3a0e03 	bleq	e841c0 <__bss_end__+0xe79b88>
     9b0:	13490b3b 	movtne	r0, #39739	; 0x9b3b
     9b4:	1802193f 	stmdane	r2, {r0, r1, r2, r3, r4, r5, r8, fp, ip}
     9b8:	2e0f0000 	cdpcs	0, 0, cr0, cr15, cr0, {0}
     9bc:	03193f01 	tsteq	r9, #1, 30
     9c0:	3b0b3a0e 	blcc	2cf200 <__bss_end__+0x2c4bc8>
     9c4:	3c19270b 	ldccc	7, cr2, [r9], {11}
     9c8:	00000019 	andeq	r0, r0, r9, lsl r0
     9cc:	25011101 	strcs	r1, [r1, #-257]	; 0x101
     9d0:	030b130e 	movweq	r1, #45838	; 0xb30e
     9d4:	110e1b0e 	tstne	lr, lr, lsl #22
     9d8:	10061201 	andne	r1, r6, r1, lsl #4
     9dc:	02000017 	andeq	r0, r0, #23
     9e0:	0b0b0024 	bleq	2c0a78 <__bss_end__+0x2b6440>
     9e4:	08030b3e 	stmdaeq	r3, {r1, r2, r3, r4, r5, r8, r9, fp}
     9e8:	24030000 	strcs	r0, [r3], #-0
     9ec:	3e0b0b00 	vmlacc.f64	d0, d11, d0
     9f0:	000e030b 	andeq	r0, lr, fp, lsl #6
     9f4:	000f0400 	andeq	r0, pc, r0, lsl #8
     9f8:	13490b0b 	movtne	r0, #39691	; 0x9b0b
     9fc:	26050000 	strcs	r0, [r5], -r0
     a00:	00134900 	andseq	r4, r3, r0, lsl #18
     a04:	012e0600 	teqeq	lr, r0, lsl #12
     a08:	0e03193f 	mcreq	9, 0, r1, cr3, cr15, {1}
     a0c:	0b3b0b3a 	bleq	ec36fc <__bss_end__+0xeb90c4>
     a10:	13491927 	movtne	r1, #39207	; 0x9927
     a14:	06120111 			; <UNDEFINED> instruction: 0x06120111
     a18:	42961840 	addsmi	r1, r6, #64, 16	; 0x400000
     a1c:	00130119 	andseq	r0, r3, r9, lsl r1
     a20:	00050700 	andeq	r0, r5, r0, lsl #14
     a24:	0b3a0803 	bleq	e82a38 <__bss_end__+0xe78400>
     a28:	13490b3b 	movtne	r0, #39739	; 0x9b3b
     a2c:	00001702 	andeq	r1, r0, r2, lsl #14
     a30:	27011508 	strcs	r1, [r1, -r8, lsl #10]
     a34:	01134919 	tsteq	r3, r9, lsl r9
     a38:	09000013 	stmdbeq	r0, {r0, r1, r4}
     a3c:	13490005 	movtne	r0, #36869	; 0x9005
     a40:	340a0000 	strcc	r0, [sl], #-0
     a44:	3a0e0300 	bcc	38164c <__bss_end__+0x377014>
     a48:	490b3b0b 	stmdbmi	fp, {r0, r1, r3, r8, r9, fp, ip, sp}
     a4c:	3c193f13 	ldccc	15, cr3, [r9], {19}
     a50:	0b000019 	bleq	abc <__code_start__-0x7544>
     a54:	0e030034 	mcreq	0, 0, r0, cr3, cr4, {1}
     a58:	0b3b0b3a 	bleq	ec3748 <__bss_end__+0xeb9110>
     a5c:	193f1349 	ldmdbne	pc!, {r0, r3, r6, r8, r9, ip}	; <UNPREDICTABLE>
     a60:	00001802 	andeq	r1, r0, r2, lsl #16
     a64:	01110100 	tsteq	r1, r0, lsl #2
     a68:	0b130e25 	bleq	4c4304 <__bss_end__+0x4b9ccc>
     a6c:	0e1b0e03 	cdpeq	14, 1, cr0, cr11, cr3, {0}
     a70:	06120111 			; <UNDEFINED> instruction: 0x06120111
     a74:	00001710 	andeq	r1, r0, r0, lsl r7
     a78:	0b002402 	bleq	9a88 <__data_end__+0x58>
     a7c:	030b3e0b 	movweq	r3, #48651	; 0xbe0b
     a80:	03000008 	movweq	r0, #8
     a84:	0b0b0024 	bleq	2c0b1c <__bss_end__+0x2b64e4>
     a88:	0e030b3e 	vmoveq.16	d3[0], r0
     a8c:	0f040000 	svceq	0x00040000
     a90:	000b0b00 	andeq	r0, fp, r0, lsl #22
     a94:	000f0500 	andeq	r0, pc, r0, lsl #10
     a98:	13490b0b 	movtne	r0, #39691	; 0x9b0b
     a9c:	26060000 	strcs	r0, [r6], -r0
     aa0:	00134900 	andseq	r4, r3, r0, lsl #18
     aa4:	00160700 	andseq	r0, r6, r0, lsl #14
     aa8:	0b3a0e03 	bleq	e842bc <__bss_end__+0xe79c84>
     aac:	13490b3b 	movtne	r0, #39739	; 0x9b3b
     ab0:	13080000 	movwne	r0, #32768	; 0x8000
     ab4:	0b0e0301 	bleq	3816c0 <__bss_end__+0x377088>
     ab8:	3b0b3a0b 	blcc	2cf2ec <__bss_end__+0x2c4cb4>
     abc:	0013010b 	andseq	r0, r3, fp, lsl #2
     ac0:	000d0900 	andeq	r0, sp, r0, lsl #18
     ac4:	13490e03 	movtne	r0, #40451	; 0x9e03
     ac8:	19340b38 	ldmdbne	r4!, {r3, r4, r5, r8, r9, fp}
     acc:	2e0a0000 	cdpcs	0, 0, cr0, cr10, cr0, {0}
     ad0:	3a0e0301 	bcc	3816dc <__bss_end__+0x3770a4>
     ad4:	270b3b0b 	strcs	r3, [fp, -fp, lsl #22]
     ad8:	11134919 	tstne	r3, r9, lsl r9
     adc:	40061201 	andmi	r1, r6, r1, lsl #4
     ae0:	19429718 	stmdbne	r2, {r3, r4, r8, r9, sl, ip, pc}^
     ae4:	00001301 	andeq	r1, r0, r1, lsl #6
     ae8:	0300050b 	movweq	r0, #1291	; 0x50b
     aec:	3b0b3a08 	blcc	2cf314 <__bss_end__+0x2c4cdc>
     af0:	0213490b 	andseq	r4, r3, #180224	; 0x2c000
     af4:	0c000017 	stceq	0, cr0, [r0], {23}
     af8:	0803012e 	stmdaeq	r3, {r1, r2, r3, r5, r8}
     afc:	0b3b0b3a 	bleq	ec37ec <__bss_end__+0xeb91b4>
     b00:	13491927 	movtne	r1, #39207	; 0x9927
     b04:	06120111 			; <UNDEFINED> instruction: 0x06120111
     b08:	42971840 	addsmi	r1, r7, #64, 16	; 0x400000
     b0c:	00130119 	andseq	r0, r3, r9, lsl r1
     b10:	00050d00 	andeq	r0, r5, r0, lsl #26
     b14:	0b3a0e03 	bleq	e84328 <__bss_end__+0xe79cf0>
     b18:	13490b3b 	movtne	r0, #39739	; 0x9b3b
     b1c:	00001702 	andeq	r1, r0, r2, lsl #14
     b20:	0300050e 	movweq	r0, #1294	; 0x50e
     b24:	3b0b3a0e 	blcc	2cf364 <__bss_end__+0x2c4d2c>
     b28:	0213490b 	andseq	r4, r3, #180224	; 0x2c000
     b2c:	0f000018 	svceq	0x00000018
     b30:	08030034 	stmdaeq	r3, {r2, r4, r5}
     b34:	0b3b0b3a 	bleq	ec3824 <__bss_end__+0xeb91ec>
     b38:	18021349 	stmdane	r2, {r0, r3, r6, r8, r9, ip}
     b3c:	34100000 	ldrcc	r0, [r0], #-0
     b40:	3a080300 	bcc	201748 <__bss_end__+0x1f7110>
     b44:	490b3b0b 	stmdbmi	fp, {r0, r1, r3, r8, r9, fp, ip, sp}
     b48:	00170213 	andseq	r0, r7, r3, lsl r2
     b4c:	00341100 	eorseq	r1, r4, r0, lsl #2
     b50:	13490e03 	movtne	r0, #40451	; 0x9e03
     b54:	18021934 	stmdane	r2, {r2, r4, r5, r8, fp, ip}
     b58:	0b120000 	bleq	480b60 <__bss_end__+0x476528>
     b5c:	12011101 	andne	r1, r1, #1073741824	; 0x40000000
     b60:	00130106 	andseq	r0, r3, r6, lsl #2
     b64:	00341300 	eorseq	r1, r4, r0, lsl #6
     b68:	0b3a0e03 	bleq	e8437c <__bss_end__+0xe79d44>
     b6c:	13490b3b 	movtne	r0, #39739	; 0x9b3b
     b70:	00001702 	andeq	r1, r0, r2, lsl #14
     b74:	01828914 	orreq	r8, r2, r4, lsl r9
     b78:	31011100 	mrscc	r1, (UNDEF: 17)
     b7c:	15000013 	strne	r0, [r0, #-19]
     b80:	01018289 	smlabbeq	r1, r9, r2, r8
     b84:	13310111 	teqne	r1, #1073741828	; 0x40000004
     b88:	00001301 	andeq	r1, r0, r1, lsl #6
     b8c:	01828a16 	orreq	r8, r2, r6, lsl sl
     b90:	91180200 	tstls	r8, r0, lsl #4
     b94:	00001842 	andeq	r1, r0, r2, asr #16
     b98:	01828917 	orreq	r8, r2, r7, lsl r9
     b9c:	31011101 	tstcc	r1, r1, lsl #2
     ba0:	18000013 	stmdane	r0, {r0, r1, r4}
     ba4:	13490101 	movtne	r0, #37121	; 0x9101
     ba8:	00001301 	andeq	r1, r0, r1, lsl #6
     bac:	49002119 	stmdbmi	r0, {r0, r3, r4, r8, sp}
     bb0:	000b2f13 	andeq	r2, fp, r3, lsl pc
     bb4:	012e1a00 	teqeq	lr, r0, lsl #20
     bb8:	0e03193f 	mcreq	9, 0, r1, cr3, cr15, {1}
     bbc:	0b3b0b3a 	bleq	ec38ac <__bss_end__+0xeb9274>
     bc0:	01111927 	tsteq	r1, r7, lsr #18
     bc4:	18400612 	stmdane	r0, {r1, r4, r9, sl}^
     bc8:	01194297 			; <UNDEFINED> instruction: 0x01194297
     bcc:	1b000013 	blne	c20 <__code_start__-0x73e0>
     bd0:	19270115 	stmdbne	r7!, {r0, r2, r4, r8}
     bd4:	13011349 	movwne	r1, #4937	; 0x1349
     bd8:	051c0000 	ldreq	r0, [ip, #-0]
     bdc:	00134900 	andseq	r4, r3, r0, lsl #18
     be0:	012e1d00 	teqeq	lr, r0, lsl #26
     be4:	0e03193f 	mcreq	9, 0, r1, cr3, cr15, {1}
     be8:	0b3b0b3a 	bleq	ec38d8 <__bss_end__+0xeb92a0>
     bec:	13491927 	movtne	r1, #39207	; 0x9927
     bf0:	06120111 			; <UNDEFINED> instruction: 0x06120111
     bf4:	42971840 	addsmi	r1, r7, #64, 16	; 0x400000
     bf8:	00130119 	andseq	r0, r3, r9, lsl r1
     bfc:	010b1e00 	tsteq	fp, r0, lsl #28
     c00:	06120111 			; <UNDEFINED> instruction: 0x06120111
     c04:	891f0000 	ldmdbhi	pc, {}	; <UNPREDICTABLE>
     c08:	11010182 	smlabbne	r1, r2, r1, r0
     c0c:	00130101 	andseq	r0, r3, r1, lsl #2
     c10:	00342000 	eorseq	r2, r4, r0
     c14:	0b3a0e03 	bleq	e84428 <__bss_end__+0xe79df0>
     c18:	13490b3b 	movtne	r0, #39739	; 0x9b3b
     c1c:	193c193f 	ldmdbne	ip!, {r0, r1, r2, r3, r4, r5, r8, fp, ip}
     c20:	2e210000 	cdpcs	0, 2, cr0, cr1, cr0, {0}
     c24:	03193f00 	tsteq	r9, #0, 30
     c28:	3b0b3a0e 	blcc	2cf468 <__bss_end__+0x2c4e30>
     c2c:	3c19270b 	ldccc	7, cr2, [r9], {11}
     c30:	22000019 	andcs	r0, r0, #25
     c34:	193f012e 	ldmdbne	pc!, {r1, r2, r3, r5, r8}	; <UNPREDICTABLE>
     c38:	0b3a0e03 	bleq	e8444c <__bss_end__+0xe79e14>
     c3c:	19270b3b 	stmdbne	r7!, {r0, r1, r3, r4, r5, r8, r9, fp}
     c40:	193c1349 	ldmdbne	ip!, {r0, r3, r6, r8, r9, ip}
     c44:	00001301 	andeq	r1, r0, r1, lsl #6
     c48:	00001823 	andeq	r1, r0, r3, lsr #16
     c4c:	11010000 	mrsne	r0, (UNDEF: 1)
     c50:	130e2501 	movwne	r2, #58625	; 0xe501
     c54:	1b0e030b 	blne	381888 <__bss_end__+0x377250>
     c58:	1201110e 	andne	r1, r1, #-2147483645	; 0x80000003
     c5c:	00171006 	andseq	r1, r7, r6
     c60:	00240200 	eoreq	r0, r4, r0, lsl #4
     c64:	0b3e0b0b 	bleq	f83898 <__bss_end__+0xf79260>
     c68:	00000803 	andeq	r0, r0, r3, lsl #16
     c6c:	0b002403 	bleq	9c80 <__FUNCTION__.4432+0xfc>
     c70:	030b3e0b 	movweq	r3, #48651	; 0xbe0b
     c74:	0400000e 	streq	r0, [r0], #-14
     c78:	193f012e 	ldmdbne	pc!, {r1, r2, r3, r5, r8}	; <UNPREDICTABLE>
     c7c:	0b3a0e03 	bleq	e84490 <__bss_end__+0xe79e58>
     c80:	19270b3b 	stmdbne	r7!, {r0, r1, r3, r4, r5, r8, r9, fp}
     c84:	06120111 			; <UNDEFINED> instruction: 0x06120111
     c88:	42971840 	addsmi	r1, r7, #64, 16	; 0x400000
     c8c:	00130119 	andseq	r0, r3, r9, lsl r1
     c90:	00340500 	eorseq	r0, r4, r0, lsl #10
     c94:	0b3a0803 	bleq	e82ca8 <__bss_end__+0xe78670>
     c98:	13490b3b 	movtne	r0, #39739	; 0x9b3b
     c9c:	00001702 	andeq	r1, r0, r2, lsl #14
     ca0:	3f012e06 	svccc	0x00012e06
     ca4:	3a0e0319 	bcc	381910 <__bss_end__+0x3772d8>
     ca8:	270b3b0b 	strcs	r3, [fp, -fp, lsl #22]
     cac:	12011119 	andne	r1, r1, #1073741830	; 0x40000006
     cb0:	97184006 	ldrls	r4, [r8, -r6]
     cb4:	00001942 	andeq	r1, r0, r2, asr #18
     cb8:	01110100 	tsteq	r1, r0, lsl #2
     cbc:	0b130e25 	bleq	4c4558 <__bss_end__+0x4b9f20>
     cc0:	0e1b0e03 	cdpeq	14, 1, cr0, cr11, cr3, {0}
     cc4:	06120111 			; <UNDEFINED> instruction: 0x06120111
     cc8:	00001710 	andeq	r1, r0, r0, lsl r7
     ccc:	0b002402 	bleq	9cdc <__FUNCTION__.4306+0x4>
     cd0:	030b3e0b 	movweq	r3, #48651	; 0xbe0b
     cd4:	03000008 	movweq	r0, #8
     cd8:	0b0b0024 	bleq	2c0d70 <__bss_end__+0x2b6738>
     cdc:	0e030b3e 	vmoveq.16	d3[0], r0
     ce0:	0f040000 	svceq	0x00040000
     ce4:	490b0b00 	stmdbmi	fp, {r8, r9, fp}
     ce8:	05000013 	streq	r0, [r0, #-19]
     cec:	13490026 	movtne	r0, #36902	; 0x9026
     cf0:	2e060000 	cdpcs	0, 0, cr0, cr6, cr0, {0}
     cf4:	03193f01 	tsteq	r9, #1, 30
     cf8:	3b0b3a0e 	blcc	2cf538 <__bss_end__+0x2c4f00>
     cfc:	1119270b 	tstne	r9, fp, lsl #14
     d00:	40061201 	andmi	r1, r6, r1, lsl #4
     d04:	19429718 	stmdbne	r2, {r3, r4, r8, r9, sl, ip, pc}^
     d08:	00001301 	andeq	r1, r0, r1, lsl #6
     d0c:	01828907 	orreq	r8, r2, r7, lsl #18
     d10:	31011100 	mrscc	r1, (UNDEF: 17)
     d14:	08000013 	stmdaeq	r0, {r0, r1, r4}
     d18:	01018289 	smlabbeq	r1, r9, r2, r8
     d1c:	13010111 	movwne	r0, #4369	; 0x1111
     d20:	8a090000 	bhi	240d28 <__bss_end__+0x2366f0>
     d24:	02000182 	andeq	r0, r0, #-2147483616	; 0x80000020
     d28:	18429118 	stmdane	r2, {r3, r4, r8, ip, pc}^
     d2c:	890a0000 	stmdbhi	sl, {}	; <UNPREDICTABLE>
     d30:	11010182 	smlabbne	r1, r2, r1, r0
     d34:	01133101 	tsteq	r3, r1, lsl #2
     d38:	0b000013 	bleq	d8c <__code_start__-0x7274>
     d3c:	19270115 	stmdbne	r7!, {r0, r2, r4, r8}
     d40:	13011349 	movwne	r1, #4937	; 0x1349
     d44:	050c0000 	streq	r0, [ip, #-0]
     d48:	00134900 	andseq	r4, r3, r0, lsl #18
     d4c:	00340d00 	eorseq	r0, r4, r0, lsl #26
     d50:	0b3a0e03 	bleq	e84564 <__bss_end__+0xe79f2c>
     d54:	13490b3b 	movtne	r0, #39739	; 0x9b3b
     d58:	193c193f 	ldmdbne	ip!, {r0, r1, r2, r3, r4, r5, r8, fp, ip}
     d5c:	2e0e0000 	cdpcs	0, 0, cr0, cr14, cr0, {0}
     d60:	03193f00 	tsteq	r9, #0, 30
     d64:	3b0b3a0e 	blcc	2cf5a4 <__bss_end__+0x2c4f6c>
     d68:	3c19270b 	ldccc	7, cr2, [r9], {11}
     d6c:	0f000019 	svceq	0x00000019
     d70:	193f012e 	ldmdbne	pc!, {r1, r2, r3, r5, r8}	; <UNPREDICTABLE>
     d74:	0b3a0e03 	bleq	e84588 <__bss_end__+0xe79f50>
     d78:	19270b3b 	stmdbne	r7!, {r0, r1, r3, r4, r5, r8, r9, fp}
     d7c:	1301193c 	movwne	r1, #6460	; 0x193c
     d80:	01000000 	mrseq	r0, (UNDEF: 0)
     d84:	0e250111 	mcreq	1, 1, r0, cr5, cr1, {0}
     d88:	0e030b13 	vmoveq.32	d3[0], r0
     d8c:	01110e1b 	tsteq	r1, fp, lsl lr
     d90:	17100612 			; <UNDEFINED> instruction: 0x17100612
     d94:	24020000 	strcs	r0, [r2], #-0
     d98:	3e0b0b00 	vmlacc.f64	d0, d11, d0
     d9c:	0008030b 	andeq	r0, r8, fp, lsl #6
     da0:	00240300 	eoreq	r0, r4, r0, lsl #6
     da4:	0b3e0b0b 	bleq	f839d8 <__bss_end__+0xf793a0>
     da8:	00000e03 	andeq	r0, r0, r3, lsl #28
     dac:	3f012e04 	svccc	0x00012e04
     db0:	3a0e0319 	bcc	381a1c <__bss_end__+0x3773e4>
     db4:	110b3b0b 	tstne	fp, fp, lsl #22
     db8:	40061201 	andmi	r1, r6, r1, lsl #4
     dbc:	19429718 	stmdbne	r2, {r3, r4, r8, r9, sl, ip, pc}^
     dc0:	00001301 	andeq	r1, r0, r1, lsl #6
     dc4:	03003405 	movweq	r3, #1029	; 0x405
     dc8:	3b0b3a0e 	blcc	2cf608 <__bss_end__+0x2c4fd0>
     dcc:	3f13490b 	svccc	0x0013490b
     dd0:	00193c19 	andseq	r3, r9, r9, lsl ip
     dd4:	002e0600 	eoreq	r0, lr, r0, lsl #12
     dd8:	0e03193f 	mcreq	9, 0, r1, cr3, cr15, {1}
     ddc:	0b3b0b3a 	bleq	ec3acc <__bss_end__+0xeb9494>
     de0:	193c1927 	ldmdbne	ip!, {r0, r1, r2, r5, r8, fp, ip}
     de4:	34070000 	strcc	r0, [r7], #-0
     de8:	3a080300 	bcc	2019f0 <__bss_end__+0x1f73b8>
     dec:	490b3b0b 	stmdbmi	fp, {r0, r1, r3, r8, r9, fp, ip, sp}
     df0:	00170213 	andseq	r0, r7, r3, lsl r2
     df4:	00340800 	eorseq	r0, r4, r0, lsl #16
     df8:	0b3a0e03 	bleq	e8460c <__bss_end__+0xe79fd4>
     dfc:	13490b3b 	movtne	r0, #39739	; 0x9b3b
     e00:	89090000 	stmdbhi	r9, {}	; <UNPREDICTABLE>
     e04:	11000182 	smlabbne	r0, r2, r1, r0
     e08:	00133101 	andseq	r3, r3, r1, lsl #2
     e0c:	000f0a00 	andeq	r0, pc, r0, lsl #20
     e10:	13490b0b 	movtne	r0, #39691	; 0x9b0b
     e14:	01000000 	mrseq	r0, (UNDEF: 0)
     e18:	0e250111 	mcreq	1, 1, r0, cr5, cr1, {0}
     e1c:	0e030b13 	vmoveq.32	d3[0], r0
     e20:	01110e1b 	tsteq	r1, fp, lsl lr
     e24:	17100612 			; <UNDEFINED> instruction: 0x17100612
     e28:	24020000 	strcs	r0, [r2], #-0
     e2c:	3e0b0b00 	vmlacc.f64	d0, d11, d0
     e30:	0008030b 	andeq	r0, r8, fp, lsl #6
     e34:	00240300 	eoreq	r0, r4, r0, lsl #6
     e38:	0b3e0b0b 	bleq	f83a6c <__bss_end__+0xf79434>
     e3c:	00000e03 	andeq	r0, r0, r3, lsl #28
     e40:	0b000f04 	bleq	4a58 <__code_start__-0x35a8>
     e44:	0013490b 	andseq	r4, r3, fp, lsl #18
     e48:	00260500 	eoreq	r0, r6, r0, lsl #10
     e4c:	00001349 	andeq	r1, r0, r9, asr #6
     e50:	3f012e06 	svccc	0x00012e06
     e54:	3a0e0319 	bcc	381ac0 <__bss_end__+0x377488>
     e58:	270b3b0b 	strcs	r3, [fp, -fp, lsl #22]
     e5c:	12011119 	andne	r1, r1, #1073741830	; 0x40000006
     e60:	97184006 	ldrls	r4, [r8, -r6]
     e64:	13011942 	movwne	r1, #6466	; 0x1942
     e68:	05070000 	streq	r0, [r7, #-0]
     e6c:	3a080300 	bcc	201a74 <__bss_end__+0x1f743c>
     e70:	490b3b0b 	stmdbmi	fp, {r0, r1, r3, r8, r9, fp, ip, sp}
     e74:	00170213 	andseq	r0, r7, r3, lsl r2
     e78:	00340800 	eorseq	r0, r4, r0, lsl #16
     e7c:	13490e03 	movtne	r0, #40451	; 0x9e03
     e80:	18021934 	stmdane	r2, {r2, r4, r5, r8, fp, ip}
     e84:	89090000 	stmdbhi	r9, {}	; <UNPREDICTABLE>
     e88:	11000182 	smlabbne	r0, r2, r1, r0
     e8c:	00133101 	andseq	r3, r3, r1, lsl #2
     e90:	82890a00 	addhi	r0, r9, #0, 20
     e94:	01110101 	tsteq	r1, r1, lsl #2
     e98:	13011331 	movwne	r1, #4913	; 0x1331
     e9c:	8a0b0000 	bhi	2c0ea4 <__bss_end__+0x2b686c>
     ea0:	02000182 	andeq	r0, r0, #-2147483616	; 0x80000020
     ea4:	18429118 	stmdane	r2, {r3, r4, r8, ip, pc}^
     ea8:	010c0000 	mrseq	r0, (UNDEF: 12)
     eac:	01134901 	tsteq	r3, r1, lsl #18
     eb0:	0d000013 	stceq	0, cr0, [r0, #-76]	; 0xffffffb4
     eb4:	13490021 	movtne	r0, #36897	; 0x9021
     eb8:	00000b2f 	andeq	r0, r0, pc, lsr #22
     ebc:	3f002e0e 	svccc	0x00002e0e
     ec0:	3a0e0319 	bcc	381b2c <__bss_end__+0x3774f4>
     ec4:	270b3b0b 	strcs	r3, [fp, -fp, lsl #22]
     ec8:	00193c19 	andseq	r3, r9, r9, lsl ip
     ecc:	012e0f00 	teqeq	lr, r0, lsl #30
     ed0:	0e03193f 	mcreq	9, 0, r1, cr3, cr15, {1}
     ed4:	0b3b0b3a 	bleq	ec3bc4 <__bss_end__+0xeb958c>
     ed8:	13491927 	movtne	r1, #39207	; 0x9927
     edc:	1301193c 	movwne	r1, #6460	; 0x193c
     ee0:	05100000 	ldreq	r0, [r0, #-0]
     ee4:	00134900 	andseq	r4, r3, r0, lsl #18
     ee8:	00181100 	andseq	r1, r8, r0, lsl #2
     eec:	01000000 	mrseq	r0, (UNDEF: 0)
     ef0:	0e250111 	mcreq	1, 1, r0, cr5, cr1, {0}
     ef4:	0e030b13 	vmoveq.32	d3[0], r0
     ef8:	01110e1b 	tsteq	r1, fp, lsl lr
     efc:	17100612 			; <UNDEFINED> instruction: 0x17100612
     f00:	24020000 	strcs	r0, [r2], #-0
     f04:	3e0b0b00 	vmlacc.f64	d0, d11, d0
     f08:	0008030b 	andeq	r0, r8, fp, lsl #6
     f0c:	00240300 	eoreq	r0, r4, r0, lsl #6
     f10:	0b3e0b0b 	bleq	f83b44 <__bss_end__+0xf7950c>
     f14:	00000e03 	andeq	r0, r0, r3, lsl #28
     f18:	0b000f04 	bleq	4b30 <__code_start__-0x34d0>
     f1c:	0013490b 	andseq	r4, r3, fp, lsl #18
     f20:	00260500 	eoreq	r0, r6, r0, lsl #10
     f24:	00001349 	andeq	r1, r0, r9, asr #6
     f28:	3f012e06 	svccc	0x00012e06
     f2c:	3a0e0319 	bcc	381b98 <__bss_end__+0x377560>
     f30:	270b3b0b 	strcs	r3, [fp, -fp, lsl #22]
     f34:	12011119 	andne	r1, r1, #1073741830	; 0x40000006
     f38:	97184006 	ldrls	r4, [r8, -r6]
     f3c:	13011942 	movwne	r1, #6466	; 0x1942
     f40:	05070000 	streq	r0, [r7, #-0]
     f44:	3a080300 	bcc	201b4c <__bss_end__+0x1f7514>
     f48:	490b3b0b 	stmdbmi	fp, {r0, r1, r3, r8, r9, fp, ip, sp}
     f4c:	00170213 	andseq	r0, r7, r3, lsl r2
     f50:	00340800 	eorseq	r0, r4, r0, lsl #16
     f54:	13490e03 	movtne	r0, #40451	; 0x9e03
     f58:	18021934 	stmdane	r2, {r2, r4, r5, r8, fp, ip}
     f5c:	89090000 	stmdbhi	r9, {}	; <UNPREDICTABLE>
     f60:	11000182 	smlabbne	r0, r2, r1, r0
     f64:	00133101 	andseq	r3, r3, r1, lsl #2
     f68:	82890a00 	addhi	r0, r9, #0, 20
     f6c:	01110101 	tsteq	r1, r1, lsl #2
     f70:	13011331 	movwne	r1, #4913	; 0x1331
     f74:	8a0b0000 	bhi	2c0f7c <__bss_end__+0x2b6944>
     f78:	02000182 	andeq	r0, r0, #-2147483616	; 0x80000020
     f7c:	18429118 	stmdane	r2, {r3, r4, r8, ip, pc}^
     f80:	010c0000 	mrseq	r0, (UNDEF: 12)
     f84:	01134901 	tsteq	r3, r1, lsl #18
     f88:	0d000013 	stceq	0, cr0, [r0, #-76]	; 0xffffffb4
     f8c:	13490021 	movtne	r0, #36897	; 0x9021
     f90:	00000b2f 	andeq	r0, r0, pc, lsr #22
     f94:	3f002e0e 	svccc	0x00002e0e
     f98:	3a0e0319 	bcc	381c04 <__bss_end__+0x3775cc>
     f9c:	270b3b0b 	strcs	r3, [fp, -fp, lsl #22]
     fa0:	00193c19 	andseq	r3, r9, r9, lsl ip
     fa4:	012e0f00 	teqeq	lr, r0, lsl #30
     fa8:	0e03193f 	mcreq	9, 0, r1, cr3, cr15, {1}
     fac:	0b3b0b3a 	bleq	ec3c9c <__bss_end__+0xeb9664>
     fb0:	13491927 	movtne	r1, #39207	; 0x9927
     fb4:	1301193c 	movwne	r1, #6460	; 0x193c
     fb8:	05100000 	ldreq	r0, [r0, #-0]
     fbc:	00134900 	andseq	r4, r3, r0, lsl #18
     fc0:	00181100 	andseq	r1, r8, r0, lsl #2
     fc4:	01000000 	mrseq	r0, (UNDEF: 0)
     fc8:	0e250111 	mcreq	1, 1, r0, cr5, cr1, {0}
     fcc:	0e030b13 	vmoveq.32	d3[0], r0
     fd0:	01110e1b 	tsteq	r1, fp, lsl lr
     fd4:	17100612 			; <UNDEFINED> instruction: 0x17100612
     fd8:	24020000 	strcs	r0, [r2], #-0
     fdc:	3e0b0b00 	vmlacc.f64	d0, d11, d0
     fe0:	0008030b 	andeq	r0, r8, fp, lsl #6
     fe4:	00240300 	eoreq	r0, r4, r0, lsl #6
     fe8:	0b3e0b0b 	bleq	f83c1c <__bss_end__+0xf795e4>
     fec:	00000e03 	andeq	r0, r0, r3, lsl #28
     ff0:	0b000f04 	bleq	4c08 <__code_start__-0x33f8>
     ff4:	0013490b 	andseq	r4, r3, fp, lsl #18
     ff8:	00260500 	eoreq	r0, r6, r0, lsl #10
     ffc:	00001349 	andeq	r1, r0, r9, asr #6
    1000:	3f012e06 	svccc	0x00012e06
    1004:	3a0e0319 	bcc	381c70 <__bss_end__+0x377638>
    1008:	270b3b0b 	strcs	r3, [fp, -fp, lsl #22]
    100c:	12011119 	andne	r1, r1, #1073741830	; 0x40000006
    1010:	97184006 	ldrls	r4, [r8, -r6]
    1014:	13011942 	movwne	r1, #6466	; 0x1942
    1018:	05070000 	streq	r0, [r7, #-0]
    101c:	3a080300 	bcc	201c24 <__bss_end__+0x1f75ec>
    1020:	490b3b0b 	stmdbmi	fp, {r0, r1, r3, r8, r9, fp, ip, sp}
    1024:	00170213 	andseq	r0, r7, r3, lsl r2
    1028:	00340800 	eorseq	r0, r4, r0, lsl #16
    102c:	13490e03 	movtne	r0, #40451	; 0x9e03
    1030:	18021934 	stmdane	r2, {r2, r4, r5, r8, fp, ip}
    1034:	89090000 	stmdbhi	r9, {}	; <UNPREDICTABLE>
    1038:	11000182 	smlabbne	r0, r2, r1, r0
    103c:	00133101 	andseq	r3, r3, r1, lsl #2
    1040:	82890a00 	addhi	r0, r9, #0, 20
    1044:	01110101 	tsteq	r1, r1, lsl #2
    1048:	13011331 	movwne	r1, #4913	; 0x1331
    104c:	8a0b0000 	bhi	2c1054 <__bss_end__+0x2b6a1c>
    1050:	02000182 	andeq	r0, r0, #-2147483616	; 0x80000020
    1054:	18429118 	stmdane	r2, {r3, r4, r8, ip, pc}^
    1058:	010c0000 	mrseq	r0, (UNDEF: 12)
    105c:	01134901 	tsteq	r3, r1, lsl #18
    1060:	0d000013 	stceq	0, cr0, [r0, #-76]	; 0xffffffb4
    1064:	13490021 	movtne	r0, #36897	; 0x9021
    1068:	00000b2f 	andeq	r0, r0, pc, lsr #22
    106c:	3f002e0e 	svccc	0x00002e0e
    1070:	3a0e0319 	bcc	381cdc <__bss_end__+0x3776a4>
    1074:	270b3b0b 	strcs	r3, [fp, -fp, lsl #22]
    1078:	00193c19 	andseq	r3, r9, r9, lsl ip
    107c:	012e0f00 	teqeq	lr, r0, lsl #30
    1080:	0e03193f 	mcreq	9, 0, r1, cr3, cr15, {1}
    1084:	0b3b0b3a 	bleq	ec3d74 <__bss_end__+0xeb973c>
    1088:	13491927 	movtne	r1, #39207	; 0x9927
    108c:	1301193c 	movwne	r1, #6460	; 0x193c
    1090:	05100000 	ldreq	r0, [r0, #-0]
    1094:	00134900 	andseq	r4, r3, r0, lsl #18
    1098:	00181100 	andseq	r1, r8, r0, lsl #2
    109c:	01000000 	mrseq	r0, (UNDEF: 0)
    10a0:	0e250111 	mcreq	1, 1, r0, cr5, cr1, {0}
    10a4:	0e030b13 	vmoveq.32	d3[0], r0
    10a8:	01110e1b 	tsteq	r1, fp, lsl lr
    10ac:	17100612 			; <UNDEFINED> instruction: 0x17100612
    10b0:	24020000 	strcs	r0, [r2], #-0
    10b4:	3e0b0b00 	vmlacc.f64	d0, d11, d0
    10b8:	0008030b 	andeq	r0, r8, fp, lsl #6
    10bc:	00240300 	eoreq	r0, r4, r0, lsl #6
    10c0:	0b3e0b0b 	bleq	f83cf4 <__bss_end__+0xf796bc>
    10c4:	00000e03 	andeq	r0, r0, r3, lsl #28
    10c8:	3f002e04 	svccc	0x00002e04
    10cc:	3a0e0319 	bcc	381d38 <__bss_end__+0x377700>
    10d0:	270b3b0b 	strcs	r3, [fp, -fp, lsl #22]
    10d4:	12011119 	andne	r1, r1, #1073741830	; 0x40000006
    10d8:	97184006 	ldrls	r4, [r8, -r6]
    10dc:	00001942 	andeq	r1, r0, r2, asr #18
    10e0:	01110100 	tsteq	r1, r0, lsl #2
    10e4:	0b130e25 	bleq	4c4980 <__bss_end__+0x4ba348>
    10e8:	0e1b0e03 	cdpeq	14, 1, cr0, cr11, cr3, {0}
    10ec:	06120111 			; <UNDEFINED> instruction: 0x06120111
    10f0:	00001710 	andeq	r1, r0, r0, lsl r7
    10f4:	0b002402 	bleq	a104 <__FUNCTION__.4220+0x4>
    10f8:	030b3e0b 	movweq	r3, #48651	; 0xbe0b
    10fc:	03000008 	movweq	r0, #8
    1100:	0b0b0024 	bleq	2c1198 <__bss_end__+0x2b6b60>
    1104:	0e030b3e 	vmoveq.16	d3[0], r0
    1108:	04040000 	streq	r0, [r4], #-0
    110c:	3a0b0b01 	bcc	2c3d18 <__bss_end__+0x2b96e0>
    1110:	010b3b0b 	tsteq	fp, fp, lsl #22
    1114:	05000013 	streq	r0, [r0, #-19]
    1118:	0e030028 	cdpeq	0, 0, cr0, cr3, cr8, {1}
    111c:	00000d1c 	andeq	r0, r0, ip, lsl sp
    1120:	3f012e06 	svccc	0x00012e06
    1124:	3a0e0319 	bcc	381d90 <__bss_end__+0x377758>
    1128:	270b3b0b 	strcs	r3, [fp, -fp, lsl #22]
    112c:	12011119 	andne	r1, r1, #1073741830	; 0x40000006
    1130:	97184006 	ldrls	r4, [r8, -r6]
    1134:	13011942 	movwne	r1, #6466	; 0x1942
    1138:	34070000 	strcc	r0, [r7], #-0
    113c:	3a0e0300 	bcc	381d44 <__bss_end__+0x37770c>
    1140:	490b3b0b 	stmdbmi	fp, {r0, r1, r3, r8, r9, fp, ip, sp}
    1144:	3c193f13 	ldccc	15, cr3, [r9], {19}
    1148:	08000019 	stmdaeq	r0, {r0, r3, r4}
    114c:	08030034 	stmdaeq	r3, {r2, r4, r5}
    1150:	0b3b0b3a 	bleq	ec3e40 <__bss_end__+0xeb9808>
    1154:	0b1c1349 	bleq	705e80 <__bss_end__+0x6fb848>
    1158:	34090000 	strcc	r0, [r9], #-0
    115c:	3a080300 	bcc	201d64 <__bss_end__+0x1f772c>
    1160:	490b3b0b 	stmdbmi	fp, {r0, r1, r3, r8, r9, fp, ip, sp}
    1164:	0a000013 	beq	11b8 <__code_start__-0x6e48>
    1168:	08030034 	stmdaeq	r3, {r2, r4, r5}
    116c:	0b3b0b3a 	bleq	ec3e5c <__bss_end__+0xeb9824>
    1170:	18021349 	stmdane	r2, {r0, r3, r6, r8, r9, ip}
    1174:	0b0b0000 	bleq	2c117c <__bss_end__+0x2b6b44>
    1178:	12011101 	andne	r1, r1, #1073741824	; 0x40000000
    117c:	00130106 	andseq	r0, r3, r6, lsl #2
    1180:	00340c00 	eorseq	r0, r4, r0, lsl #24
    1184:	0b3a0803 	bleq	e83198 <__bss_end__+0xe78b60>
    1188:	13490b3b 	movtne	r0, #39739	; 0x9b3b
    118c:	00001702 	andeq	r1, r0, r2, lsl #14
    1190:	0182890d 	orreq	r8, r2, sp, lsl #18
    1194:	31011100 	mrscc	r1, (UNDEF: 17)
    1198:	0e000013 	mcreq	0, 0, r0, cr0, cr3, {0}
    119c:	01018289 	smlabbeq	r1, r9, r2, r8
    11a0:	13310111 	teqne	r1, #1073741828	; 0x40000004
    11a4:	00001301 	andeq	r1, r0, r1, lsl #6
    11a8:	01828a0f 	orreq	r8, r2, pc, lsl #20
    11ac:	91180200 	tstls	r8, r0, lsl #4
    11b0:	00001842 	andeq	r1, r0, r2, asr #16
    11b4:	0b000f10 	bleq	4dfc <__code_start__-0x3204>
    11b8:	0013490b 	andseq	r4, r3, fp, lsl #18
    11bc:	002e1100 	eoreq	r1, lr, r0, lsl #2
    11c0:	0e03193f 	mcreq	9, 0, r1, cr3, cr15, {1}
    11c4:	0b3b0b3a 	bleq	ec3eb4 <__bss_end__+0xeb987c>
    11c8:	193c1927 	ldmdbne	ip!, {r0, r1, r2, r5, r8, fp, ip}
    11cc:	2e120000 	cdpcs	0, 1, cr0, cr2, cr0, {0}
    11d0:	03193f01 	tsteq	r9, #1, 30
    11d4:	3b0b3a0e 	blcc	2cfa14 <__bss_end__+0x2c53dc>
    11d8:	3c19270b 	ldccc	7, cr2, [r9], {11}
    11dc:	13000019 	movwne	r0, #25
    11e0:	13490005 	movtne	r0, #36869	; 0x9005
    11e4:	01000000 	mrseq	r0, (UNDEF: 0)
    11e8:	0e250111 	mcreq	1, 1, r0, cr5, cr1, {0}
    11ec:	0e030b13 	vmoveq.32	d3[0], r0
    11f0:	17550e1b 	smmlane	r5, fp, lr, r0
    11f4:	17100111 			; <UNDEFINED> instruction: 0x17100111
    11f8:	24020000 	strcs	r0, [r2], #-0
    11fc:	3e0b0b00 	vmlacc.f64	d0, d11, d0
    1200:	0008030b 	andeq	r0, r8, fp, lsl #6
    1204:	00240300 	eoreq	r0, r4, r0, lsl #6
    1208:	0b3e0b0b 	bleq	f83e3c <__bss_end__+0xf79804>
    120c:	00000e03 	andeq	r0, r0, r3, lsl #28
    1210:	3f012e04 	svccc	0x00012e04
    1214:	3a0e0319 	bcc	381e80 <__bss_end__+0x377848>
    1218:	270b3b0b 	strcs	r3, [fp, -fp, lsl #22]
    121c:	11134919 	tstne	r3, r9, lsl r9
    1220:	40061201 	andmi	r1, r6, r1, lsl #4
    1224:	19429718 	stmdbne	r2, {r3, r4, r8, r9, sl, ip, pc}^
    1228:	00001301 	andeq	r1, r0, r1, lsl #6
    122c:	03003405 	movweq	r3, #1029	; 0x405
    1230:	3b0b3a0e 	blcc	2cfa70 <__bss_end__+0x2c5438>
    1234:	0213490b 	andseq	r4, r3, #180224	; 0x2c000
    1238:	06000017 			; <UNDEFINED> instruction: 0x06000017
    123c:	193f012e 	ldmdbne	pc!, {r1, r2, r3, r5, r8}	; <UNPREDICTABLE>
    1240:	0b3a0e03 	bleq	e84a54 <__bss_end__+0xe7a41c>
    1244:	19270b3b 	stmdbne	r7!, {r0, r1, r3, r4, r5, r8, r9, fp}
    1248:	06120111 			; <UNDEFINED> instruction: 0x06120111
    124c:	42971840 	addsmi	r1, r7, #64, 16	; 0x400000
    1250:	00130119 	andseq	r0, r3, r9, lsl r1
    1254:	00340700 	eorseq	r0, r4, r0, lsl #14
    1258:	0b3a0e03 	bleq	e84a6c <__bss_end__+0xe7a434>
    125c:	13490b3b 	movtne	r0, #39739	; 0x9b3b
    1260:	0000061c 	andeq	r0, r0, ip, lsl r6
    1264:	03003408 	movweq	r3, #1032	; 0x408
    1268:	3b0b3a0e 	blcc	2cfaa8 <__bss_end__+0x2c5470>
    126c:	1c13490b 	ldcne	9, cr4, [r3], {11}
    1270:	0900000b 	stmdbeq	r0, {r0, r1, r3}
    1274:	00018289 	andeq	r8, r1, r9, lsl #5
    1278:	13310111 	teqne	r1, #1073741828	; 0x40000004
    127c:	890a0000 	stmdbhi	sl, {}	; <UNPREDICTABLE>
    1280:	11010182 	smlabbne	r1, r2, r1, r0
    1284:	01133101 	tsteq	r3, r1, lsl #2
    1288:	0b000013 	bleq	12dc <__code_start__-0x6d24>
    128c:	0001828a 	andeq	r8, r1, sl, lsl #5
    1290:	42911802 	addsmi	r1, r1, #131072	; 0x20000
    1294:	0c000018 	stceq	0, cr0, [r0], {24}
    1298:	01018289 	smlabbeq	r1, r9, r2, r8
    129c:	13310111 	teqne	r1, #1073741828	; 0x40000004
    12a0:	260d0000 	strcs	r0, [sp], -r0
    12a4:	00134900 	andseq	r4, r3, r0, lsl #18
    12a8:	012e0e00 	teqeq	lr, r0, lsl #28
    12ac:	0e03193f 	mcreq	9, 0, r1, cr3, cr15, {1}
    12b0:	0b3b0b3a 	bleq	ec3fa0 <__bss_end__+0xeb9968>
    12b4:	193c1927 	ldmdbne	ip!, {r0, r1, r2, r5, r8, fp, ip}
    12b8:	00001301 	andeq	r1, r0, r1, lsl #6
    12bc:	4900050f 	stmdbmi	r0, {r0, r1, r2, r3, r8, sl}
    12c0:	10000013 	andne	r0, r0, r3, lsl r0
    12c4:	193f012e 	ldmdbne	pc!, {r1, r2, r3, r5, r8}	; <UNPREDICTABLE>
    12c8:	0b3a0e03 	bleq	e84adc <__bss_end__+0xe7a4a4>
    12cc:	19270b3b 	stmdbne	r7!, {r0, r1, r3, r4, r5, r8, r9, fp}
    12d0:	0000193c 	andeq	r1, r0, ip, lsr r9
    12d4:	01110100 	tsteq	r1, r0, lsl #2
    12d8:	0b130e25 	bleq	4c4b74 <__bss_end__+0x4ba53c>
    12dc:	0e1b0e03 	cdpeq	14, 1, cr0, cr11, cr3, {0}
    12e0:	06120111 			; <UNDEFINED> instruction: 0x06120111
    12e4:	00001710 	andeq	r1, r0, r0, lsl r7
    12e8:	0b002402 	bleq	a2f8 <buf.4189+0xc4>
    12ec:	030b3e0b 	movweq	r3, #48651	; 0xbe0b
    12f0:	03000008 	movweq	r0, #8
    12f4:	0b0b0024 	bleq	2c138c <__bss_end__+0x2b6d54>
    12f8:	0e030b3e 	vmoveq.16	d3[0], r0
    12fc:	2e040000 	cdpcs	0, 0, cr0, cr4, cr0, {0}
    1300:	03193f01 	tsteq	r9, #1, 30
    1304:	3b0b3a0e 	blcc	2cfb44 <__bss_end__+0x2c550c>
    1308:	1119270b 	tstne	r9, fp, lsl #14
    130c:	40061201 	andmi	r1, r6, r1, lsl #4
    1310:	19429718 	stmdbne	r2, {r3, r4, r8, r9, sl, ip, pc}^
    1314:	00001301 	andeq	r1, r0, r1, lsl #6
    1318:	03000505 	movweq	r0, #1285	; 0x505
    131c:	3b0b3a0e 	blcc	2cfb5c <__bss_end__+0x2c5524>
    1320:	0213490b 	andseq	r4, r3, #180224	; 0x2c000
    1324:	06000017 			; <UNDEFINED> instruction: 0x06000017
    1328:	193f012e 	ldmdbne	pc!, {r1, r2, r3, r5, r8}	; <UNPREDICTABLE>
    132c:	0b3a0e03 	bleq	e84b40 <__bss_end__+0xe7a508>
    1330:	19270b3b 	stmdbne	r7!, {r0, r1, r3, r4, r5, r8, r9, fp}
    1334:	01111349 	tsteq	r1, r9, asr #6
    1338:	18400612 	stmdane	r0, {r1, r4, r9, sl}^
    133c:	01194297 			; <UNDEFINED> instruction: 0x01194297
    1340:	07000013 	smladeq	r0, r3, r0, r0
    1344:	01018289 	smlabbeq	r1, r9, r2, r8
    1348:	13310111 	teqne	r1, #1073741828	; 0x40000004
    134c:	8a080000 	bhi	201354 <__bss_end__+0x1f6d1c>
    1350:	02000182 	andeq	r0, r0, #-2147483616	; 0x80000020
    1354:	18429118 	stmdane	r2, {r3, r4, r8, ip, pc}^
    1358:	34090000 	strcc	r0, [r9], #-0
    135c:	3a080300 	bcc	201f64 <__bss_end__+0x1f792c>
    1360:	490b3b0b 	stmdbmi	fp, {r0, r1, r3, r8, r9, fp, ip, sp}
    1364:	00170213 	andseq	r0, r7, r3, lsl r2
    1368:	82890a00 	addhi	r0, r9, #0, 20
    136c:	01110001 	tsteq	r1, r1
    1370:	00001331 	andeq	r1, r0, r1, lsr r3
    1374:	0300050b 	movweq	r0, #1291	; 0x50b
    1378:	3b0b3a08 	blcc	2cfba0 <__bss_end__+0x2c5568>
    137c:	0213490b 	andseq	r4, r3, #180224	; 0x2c000
    1380:	0c000017 	stceq	0, cr0, [r0], {23}
    1384:	08030034 	stmdaeq	r3, {r2, r4, r5}
    1388:	0b3b0b3a 	bleq	ec4078 <__bss_end__+0xeb9a40>
    138c:	18021349 	stmdane	r2, {r0, r3, r6, r8, r9, ip}
    1390:	0b0d0000 	bleq	341398 <__bss_end__+0x336d60>
    1394:	12011101 	andne	r1, r1, #1073741824	; 0x40000000
    1398:	00130106 	andseq	r0, r3, r6, lsl #2
    139c:	012e0e00 	teqeq	lr, r0, lsl #28
    13a0:	0e03193f 	mcreq	9, 0, r1, cr3, cr15, {1}
    13a4:	0b3b0b3a 	bleq	ec4094 <__bss_end__+0xeb9a5c>
    13a8:	13491927 	movtne	r1, #39207	; 0x9927
    13ac:	1301193c 	movwne	r1, #6460	; 0x193c
    13b0:	050f0000 	streq	r0, [pc, #-0]	; 13b8 <__code_start__-0x6c48>
    13b4:	00134900 	andseq	r4, r3, r0, lsl #18
    13b8:	002e1000 	eoreq	r1, lr, r0
    13bc:	0e03193f 	mcreq	9, 0, r1, cr3, cr15, {1}
    13c0:	0b3b0b3a 	bleq	ec40b0 <__bss_end__+0xeb9a78>
    13c4:	193c1927 	ldmdbne	ip!, {r0, r1, r2, r5, r8, fp, ip}
    13c8:	01000000 	mrseq	r0, (UNDEF: 0)
    13cc:	0e250111 	mcreq	1, 1, r0, cr5, cr1, {0}
    13d0:	0e030b13 	vmoveq.32	d3[0], r0
    13d4:	01110e1b 	tsteq	r1, fp, lsl lr
    13d8:	17100612 			; <UNDEFINED> instruction: 0x17100612
    13dc:	24020000 	strcs	r0, [r2], #-0
    13e0:	3e0b0b00 	vmlacc.f64	d0, d11, d0
    13e4:	0008030b 	andeq	r0, r8, fp, lsl #6
    13e8:	00240300 	eoreq	r0, r4, r0, lsl #6
    13ec:	0b3e0b0b 	bleq	f84020 <__bss_end__+0xf799e8>
    13f0:	00000e03 	andeq	r0, r0, r3, lsl #28
    13f4:	49003504 	stmdbmi	r0, {r2, r8, sl, ip, sp}
    13f8:	05000013 	streq	r0, [r0, #-19]
    13fc:	0e030016 	mcreq	0, 0, r0, cr3, cr6, {0}
    1400:	0b3b0b3a 	bleq	ec40f0 <__bss_end__+0xeb9ab8>
    1404:	00001349 	andeq	r1, r0, r9, asr #6
    1408:	03001606 	movweq	r1, #1542	; 0x606
    140c:	3b0b3a0e 	blcc	2cfc4c <__bss_end__+0x2c5614>
    1410:	00134905 	andseq	r4, r3, r5, lsl #18
    1414:	01170700 	tsteq	r7, r0, lsl #14
    1418:	0b3a0b0b 	bleq	e8404c <__bss_end__+0xe79a14>
    141c:	13010b3b 	movwne	r0, #6971	; 0x1b3b
    1420:	0d080000 	stceq	0, cr0, [r8, #-0]
    1424:	3a0e0300 	bcc	38202c <__bss_end__+0x3779f4>
    1428:	490b3b0b 	stmdbmi	fp, {r0, r1, r3, r8, r9, fp, ip, sp}
    142c:	09000013 	stmdbeq	r0, {r0, r1, r4}
    1430:	13490101 	movtne	r0, #37121	; 0x9101
    1434:	00001301 	andeq	r1, r0, r1, lsl #6
    1438:	4900210a 	stmdbmi	r0, {r1, r3, r8, sp}
    143c:	000b2f13 	andeq	r2, fp, r3, lsl pc
    1440:	01130b00 	tsteq	r3, r0, lsl #22
    1444:	0b3a0b0b 	bleq	e84078 <__bss_end__+0xe79a40>
    1448:	13010b3b 	movwne	r0, #6971	; 0x1b3b
    144c:	0d0c0000 	stceq	0, cr0, [ip, #-0]
    1450:	3a0e0300 	bcc	382058 <__bss_end__+0x377a20>
    1454:	490b3b0b 	stmdbmi	fp, {r0, r1, r3, r8, r9, fp, ip, sp}
    1458:	000b3813 	andeq	r3, fp, r3, lsl r8
    145c:	000f0d00 	andeq	r0, pc, r0, lsl #26
    1460:	00000b0b 	andeq	r0, r0, fp, lsl #22
    1464:	0b000f0e 	bleq	50a4 <__code_start__-0x2f5c>
    1468:	0013490b 	andseq	r4, r3, fp, lsl #18
    146c:	00260f00 	eoreq	r0, r6, r0, lsl #30
    1470:	00001349 	andeq	r1, r0, r9, asr #6
    1474:	03011310 	movweq	r1, #4880	; 0x1310
    1478:	3a0b0b0e 	bcc	2c40b8 <__bss_end__+0x2b9a80>
    147c:	010b3b0b 	tsteq	fp, fp, lsl #22
    1480:	11000013 	tstne	r0, r3, lsl r0
    1484:	0803000d 	stmdaeq	r3, {r0, r2, r3}
    1488:	0b3b0b3a 	bleq	ec4178 <__bss_end__+0xeb9b40>
    148c:	0b381349 	bleq	e061b8 <__bss_end__+0xdfbb80>
    1490:	13120000 	tstne	r2, #0
    1494:	0b0e0301 	bleq	3820a0 <__bss_end__+0x377a68>
    1498:	3b0b3a05 	blcc	2cfcb4 <__bss_end__+0x2c567c>
    149c:	0013010b 	andseq	r0, r3, fp, lsl #2
    14a0:	000d1300 	andeq	r1, sp, r0, lsl #6
    14a4:	0b3a0e03 	bleq	e84cb8 <__bss_end__+0xe7a680>
    14a8:	13490b3b 	movtne	r0, #39739	; 0x9b3b
    14ac:	00000538 	andeq	r0, r0, r8, lsr r5
    14b0:	27001514 	smladcs	r0, r4, r5, r1
    14b4:	15000019 	strne	r0, [r0, #-25]
    14b8:	19270115 	stmdbne	r7!, {r0, r2, r4, r8}
    14bc:	13011349 	movwne	r1, #4937	; 0x1349
    14c0:	05160000 	ldreq	r0, [r6, #-0]
    14c4:	00134900 	andseq	r4, r3, r0, lsl #18
    14c8:	01131700 	tsteq	r3, r0, lsl #14
    14cc:	050b0e03 	streq	r0, [fp, #-3587]	; 0xe03
    14d0:	053b0b3a 	ldreq	r0, [fp, #-2874]!	; 0xb3a
    14d4:	00001301 	andeq	r1, r0, r1, lsl #6
    14d8:	03000d18 	movweq	r0, #3352	; 0xd18
    14dc:	3b0b3a0e 	blcc	2cfd1c <__bss_end__+0x2c56e4>
    14e0:	38134905 	ldmdacc	r3, {r0, r2, r8, fp, lr}
    14e4:	1900000b 	stmdbne	r0, {r0, r1, r3}
    14e8:	0e03000d 	cdpeq	0, 0, cr0, cr3, cr13, {0}
    14ec:	053b0b3a 	ldreq	r0, [fp, #-2874]!	; 0xb3a
    14f0:	05381349 	ldreq	r1, [r8, #-841]!	; 0x349
    14f4:	131a0000 	tstne	sl, #0
    14f8:	0b0e0301 	bleq	382104 <__bss_end__+0x377acc>
    14fc:	3b0b3a0b 	blcc	2cfd30 <__bss_end__+0x2c56f8>
    1500:	00130105 	andseq	r0, r3, r5, lsl #2
    1504:	01131b00 	tsteq	r3, r0, lsl #22
    1508:	0b3a0b0b 	bleq	e8413c <__bss_end__+0xe79b04>
    150c:	1301053b 	movwne	r0, #5435	; 0x153b
    1510:	171c0000 	ldrne	r0, [ip, -r0]
    1514:	3a0b0b01 	bcc	2c4120 <__bss_end__+0x2b9ae8>
    1518:	01053b0b 	tsteq	r5, fp, lsl #22
    151c:	1d000013 	stcne	0, cr0, [r0, #-76]	; 0xffffffb4
    1520:	0e03000d 	cdpeq	0, 0, cr0, cr3, cr13, {0}
    1524:	053b0b3a 	ldreq	r0, [fp, #-2874]!	; 0xb3a
    1528:	00001349 	andeq	r1, r0, r9, asr #6
    152c:	2701151e 	smladcs	r1, lr, r5, r1
    1530:	00130119 	andseq	r0, r3, r9, lsl r1
    1534:	00341f00 	eorseq	r1, r4, r0, lsl #30
    1538:	0b3a0e03 	bleq	e84d4c <__bss_end__+0xe7a714>
    153c:	1349053b 	movtne	r0, #38203	; 0x953b
    1540:	193c193f 	ldmdbne	ip!, {r0, r1, r2, r3, r4, r5, r8, fp, ip}
    1544:	34200000 	strtcc	r0, [r0], #-0
    1548:	3a0e0300 	bcc	382150 <__bss_end__+0x377b18>
    154c:	490b3b0b 	stmdbmi	fp, {r0, r1, r3, r8, r9, fp, ip, sp}
    1550:	3c193f13 	ldccc	15, cr3, [r9], {19}
    1554:	21000019 	tstcs	r0, r9, lsl r0
    1558:	0b0b0104 	bleq	2c1970 <__bss_end__+0x2b7338>
    155c:	0b3a1349 	bleq	e86288 <__bss_end__+0xe7bc50>
    1560:	13010b3b 	movwne	r0, #6971	; 0x1b3b
    1564:	28220000 	stmdacs	r2!, {}	; <UNPREDICTABLE>
    1568:	1c0e0300 	stcne	3, cr0, [lr], {-0}
    156c:	2300000b 	movwcs	r0, #11
    1570:	0e030034 	mcreq	0, 0, r0, cr3, cr4, {1}
    1574:	0b3b0b3a 	bleq	ec4264 <__bss_end__+0xeb9c2c>
    1578:	061c1349 	ldreq	r1, [ip], -r9, asr #6
    157c:	2e240000 	cdpcs	0, 2, cr0, cr4, cr0, {0}
    1580:	03193f01 	tsteq	r9, #1, 30
    1584:	3b0b3a0e 	blcc	2cfdc4 <__bss_end__+0x2c578c>
    1588:	4919270b 	ldmdbmi	r9, {r0, r1, r3, r8, r9, sl, sp}
    158c:	12011113 	andne	r1, r1, #-1073741820	; 0xc0000004
    1590:	97184006 	ldrls	r4, [r8, -r6]
    1594:	13011942 	movwne	r1, #6466	; 0x1942
    1598:	89250000 	stmdbhi	r5!, {}	; <UNPREDICTABLE>
    159c:	11000182 	smlabbne	r0, r2, r1, r0
    15a0:	00133101 	andseq	r3, r3, r1, lsl #2
    15a4:	012e2600 	teqeq	lr, r0, lsl #12
    15a8:	0e03193f 	mcreq	9, 0, r1, cr3, cr15, {1}
    15ac:	0b3b0b3a 	bleq	ec429c <__bss_end__+0xeb9c64>
    15b0:	01111927 	tsteq	r1, r7, lsr #18
    15b4:	18400612 	stmdane	r0, {r1, r4, r9, sl}^
    15b8:	01194297 			; <UNDEFINED> instruction: 0x01194297
    15bc:	27000013 	smladcs	r0, r3, r0, r0
    15c0:	08030005 	stmdaeq	r3, {r0, r2}
    15c4:	0b3b0b3a 	bleq	ec42b4 <__bss_end__+0xeb9c7c>
    15c8:	17021349 	strne	r1, [r2, -r9, asr #6]
    15cc:	89280000 	stmdbhi	r8!, {}	; <UNPREDICTABLE>
    15d0:	11010182 	smlabbne	r1, r2, r1, r0
    15d4:	01133101 	tsteq	r3, r1, lsl #2
    15d8:	29000013 	stmdbcs	r0, {r0, r1, r4}
    15dc:	0001828a 	andeq	r8, r1, sl, lsl #5
    15e0:	42911802 	addsmi	r1, r1, #131072	; 0x20000
    15e4:	2a000018 	bcs	164c <__code_start__-0x69b4>
    15e8:	08030034 	stmdaeq	r3, {r2, r4, r5}
    15ec:	0b3b0b3a 	bleq	ec42dc <__bss_end__+0xeb9ca4>
    15f0:	18021349 	stmdane	r2, {r0, r3, r6, r8, r9, ip}
    15f4:	892b0000 	stmdbhi	fp!, {}	; <UNPREDICTABLE>
    15f8:	11010182 	smlabbne	r1, r2, r1, r0
    15fc:	00133101 	andseq	r3, r3, r1, lsl #2
    1600:	012e2c00 	teqeq	lr, r0, lsl #24
    1604:	0b3a0e03 	bleq	e84e18 <__bss_end__+0xe7a7e0>
    1608:	19270b3b 	stmdbne	r7!, {r0, r1, r3, r4, r5, r8, r9, fp}
    160c:	06120111 			; <UNDEFINED> instruction: 0x06120111
    1610:	42971840 	addsmi	r1, r7, #64, 16	; 0x400000
    1614:	00130119 	andseq	r0, r3, r9, lsl r1
    1618:	00052d00 	andeq	r2, r5, r0, lsl #26
    161c:	0b3a0e03 	bleq	e84e30 <__bss_end__+0xe7a7f8>
    1620:	13490b3b 	movtne	r0, #39739	; 0x9b3b
    1624:	00001702 	andeq	r1, r0, r2, lsl #14
    1628:	0000352e 	andeq	r3, r0, lr, lsr #10
    162c:	002e2f00 	eoreq	r2, lr, r0, lsl #30
    1630:	193c193f 	ldmdbne	ip!, {r0, r1, r2, r3, r4, r5, r8, fp, ip}
    1634:	0e030e6e 	cdpeq	14, 0, cr0, cr3, cr14, {3}
    1638:	0b3b0b3a 	bleq	ec4328 <__bss_end__+0xeb9cf0>
    163c:	01000000 	mrseq	r0, (UNDEF: 0)
    1640:	0e250111 	mcreq	1, 1, r0, cr5, cr1, {0}
    1644:	0e030b13 	vmoveq.32	d3[0], r0
    1648:	01110e1b 	tsteq	r1, fp, lsl lr
    164c:	17100612 			; <UNDEFINED> instruction: 0x17100612
    1650:	24020000 	strcs	r0, [r2], #-0
    1654:	3e0b0b00 	vmlacc.f64	d0, d11, d0
    1658:	0008030b 	andeq	r0, r8, fp, lsl #6
    165c:	00240300 	eoreq	r0, r4, r0, lsl #6
    1660:	0b3e0b0b 	bleq	f84294 <__bss_end__+0xf79c5c>
    1664:	00000e03 	andeq	r0, r0, r3, lsl #28
    1668:	49002604 	stmdbmi	r0, {r2, r9, sl, sp}
    166c:	05000013 	streq	r0, [r0, #-19]
    1670:	0e030016 	mcreq	0, 0, r0, cr3, cr6, {0}
    1674:	0b3b0b3a 	bleq	ec4364 <__bss_end__+0xeb9d2c>
    1678:	00001349 	andeq	r1, r0, r9, asr #6
    167c:	03001606 	movweq	r1, #1542	; 0x606
    1680:	3b0b3a0e 	blcc	2cfec0 <__bss_end__+0x2c5888>
    1684:	00134905 	andseq	r4, r3, r5, lsl #18
    1688:	01170700 	tsteq	r7, r0, lsl #14
    168c:	0b3a0b0b 	bleq	e842c0 <__bss_end__+0xe79c88>
    1690:	13010b3b 	movwne	r0, #6971	; 0x1b3b
    1694:	0d080000 	stceq	0, cr0, [r8, #-0]
    1698:	3a0e0300 	bcc	3822a0 <__bss_end__+0x377c68>
    169c:	490b3b0b 	stmdbmi	fp, {r0, r1, r3, r8, r9, fp, ip, sp}
    16a0:	09000013 	stmdbeq	r0, {r0, r1, r4}
    16a4:	13490101 	movtne	r0, #37121	; 0x9101
    16a8:	00001301 	andeq	r1, r0, r1, lsl #6
    16ac:	4900210a 	stmdbmi	r0, {r1, r3, r8, sp}
    16b0:	000b2f13 	andeq	r2, fp, r3, lsl pc
    16b4:	01130b00 	tsteq	r3, r0, lsl #22
    16b8:	0b3a0b0b 	bleq	e842ec <__bss_end__+0xe79cb4>
    16bc:	13010b3b 	movwne	r0, #6971	; 0x1b3b
    16c0:	0d0c0000 	stceq	0, cr0, [ip, #-0]
    16c4:	3a0e0300 	bcc	3822cc <__bss_end__+0x377c94>
    16c8:	490b3b0b 	stmdbmi	fp, {r0, r1, r3, r8, r9, fp, ip, sp}
    16cc:	000b3813 	andeq	r3, fp, r3, lsl r8
    16d0:	000f0d00 	andeq	r0, pc, r0, lsl #26
    16d4:	00000b0b 	andeq	r0, r0, fp, lsl #22
    16d8:	0b000f0e 	bleq	5318 <__code_start__-0x2ce8>
    16dc:	0013490b 	andseq	r4, r3, fp, lsl #18
    16e0:	01130f00 	tsteq	r3, r0, lsl #30
    16e4:	0b0b0e03 	bleq	2c4ef8 <__bss_end__+0x2ba8c0>
    16e8:	0b3b0b3a 	bleq	ec43d8 <__bss_end__+0xeb9da0>
    16ec:	00001301 	andeq	r1, r0, r1, lsl #6
    16f0:	03000d10 	movweq	r0, #3344	; 0xd10
    16f4:	3b0b3a08 	blcc	2cff1c <__bss_end__+0x2c58e4>
    16f8:	3813490b 	ldmdacc	r3, {r0, r1, r3, r8, fp, lr}
    16fc:	1100000b 	tstne	r0, fp
    1700:	0e030113 	mcreq	1, 0, r0, cr3, cr3, {0}
    1704:	0b3a050b 	bleq	e82b38 <__bss_end__+0xe78500>
    1708:	13010b3b 	movwne	r0, #6971	; 0x1b3b
    170c:	0d120000 	ldceq	0, cr0, [r2, #-0]
    1710:	3a0e0300 	bcc	382318 <__bss_end__+0x377ce0>
    1714:	490b3b0b 	stmdbmi	fp, {r0, r1, r3, r8, r9, fp, ip, sp}
    1718:	00053813 	andeq	r3, r5, r3, lsl r8
    171c:	00151300 	andseq	r1, r5, r0, lsl #6
    1720:	00001927 	andeq	r1, r0, r7, lsr #18
    1724:	27011514 	smladcs	r1, r4, r5, r1
    1728:	01134919 	tsteq	r3, r9, lsl r9
    172c:	15000013 	strne	r0, [r0, #-19]
    1730:	13490005 	movtne	r0, #36869	; 0x9005
    1734:	13160000 	tstne	r6, #0
    1738:	0b0e0301 	bleq	382344 <__bss_end__+0x377d0c>
    173c:	3b0b3a05 	blcc	2cff58 <__bss_end__+0x2c5920>
    1740:	00130105 	andseq	r0, r3, r5, lsl #2
    1744:	000d1700 	andeq	r1, sp, r0, lsl #14
    1748:	0b3a0e03 	bleq	e84f5c <__bss_end__+0xe7a924>
    174c:	1349053b 	movtne	r0, #38203	; 0x953b
    1750:	00000b38 	andeq	r0, r0, r8, lsr fp
    1754:	03000d18 	movweq	r0, #3352	; 0xd18
    1758:	3b0b3a0e 	blcc	2cff98 <__bss_end__+0x2c5960>
    175c:	38134905 	ldmdacc	r3, {r0, r2, r8, fp, lr}
    1760:	19000005 	stmdbne	r0, {r0, r2}
    1764:	0e030113 	mcreq	1, 0, r0, cr3, cr3, {0}
    1768:	0b3a0b0b 	bleq	e8439c <__bss_end__+0xe79d64>
    176c:	1301053b 	movwne	r0, #5435	; 0x153b
    1770:	131a0000 	tstne	sl, #0
    1774:	3a0b0b01 	bcc	2c4380 <__bss_end__+0x2b9d48>
    1778:	01053b0b 	tsteq	r5, fp, lsl #22
    177c:	1b000013 	blne	17d0 <__code_start__-0x6830>
    1780:	0b0b0117 	bleq	2c1be4 <__bss_end__+0x2b75ac>
    1784:	053b0b3a 	ldreq	r0, [fp, #-2874]!	; 0xb3a
    1788:	00001301 	andeq	r1, r0, r1, lsl #6
    178c:	03000d1c 	movweq	r0, #3356	; 0xd1c
    1790:	3b0b3a0e 	blcc	2cffd0 <__bss_end__+0x2c5998>
    1794:	00134905 	andseq	r4, r3, r5, lsl #18
    1798:	01151d00 	tsteq	r5, r0, lsl #26
    179c:	13011927 	movwne	r1, #6439	; 0x1927
    17a0:	341e0000 	ldrcc	r0, [lr], #-0
    17a4:	3a0e0300 	bcc	3823ac <__bss_end__+0x377d74>
    17a8:	49053b0b 	stmdbmi	r5, {r0, r1, r3, r8, r9, fp, ip, sp}
    17ac:	3c193f13 	ldccc	15, cr3, [r9], {19}
    17b0:	1f000019 	svcne	0x00000019
    17b4:	0e030034 	mcreq	0, 0, r0, cr3, cr4, {1}
    17b8:	0b3b0b3a 	bleq	ec44a8 <__bss_end__+0xeb9e70>
    17bc:	193f1349 	ldmdbne	pc!, {r0, r3, r6, r8, r9, ip}	; <UNPREDICTABLE>
    17c0:	0000193c 	andeq	r1, r0, ip, lsr r9
    17c4:	0b010420 	bleq	4284c <__bss_end__+0x38214>
    17c8:	3a13490b 	bcc	4d3bfc <__bss_end__+0x4c95c4>
    17cc:	010b3b0b 	tsteq	fp, fp, lsl #22
    17d0:	21000013 	tstcs	r0, r3, lsl r0
    17d4:	0e030028 	cdpeq	0, 0, cr0, cr3, cr8, {1}
    17d8:	00000b1c 	andeq	r0, r0, ip, lsl fp
    17dc:	03003422 	movweq	r3, #1058	; 0x422
    17e0:	3b0b3a0e 	blcc	2d0020 <__bss_end__+0x2c59e8>
    17e4:	1c13490b 	ldcne	9, cr4, [r3], {11}
    17e8:	23000006 	movwcs	r0, #6
    17ec:	193f012e 	ldmdbne	pc!, {r1, r2, r3, r5, r8}	; <UNPREDICTABLE>
    17f0:	0b3a0e03 	bleq	e85004 <__bss_end__+0xe7a9cc>
    17f4:	19270b3b 	stmdbne	r7!, {r0, r1, r3, r4, r5, r8, r9, fp}
    17f8:	01111349 	tsteq	r1, r9, asr #6
    17fc:	18400612 	stmdane	r0, {r1, r4, r9, sl}^
    1800:	01194297 			; <UNDEFINED> instruction: 0x01194297
    1804:	24000013 	strcs	r0, [r0], #-19
    1808:	08030005 	stmdaeq	r3, {r0, r2}
    180c:	0b3b0b3a 	bleq	ec44fc <__bss_end__+0xeb9ec4>
    1810:	17021349 	strne	r1, [r2, -r9, asr #6]
    1814:	34250000 	strtcc	r0, [r5], #-0
    1818:	3a0e0300 	bcc	382420 <__bss_end__+0x377de8>
    181c:	490b3b0b 	stmdbmi	fp, {r0, r1, r3, r8, r9, fp, ip, sp}
    1820:	00170213 	andseq	r0, r7, r3, lsl r2
    1824:	00342600 	eorseq	r2, r4, r0, lsl #12
    1828:	0b3a0803 	bleq	e8383c <__bss_end__+0xe79204>
    182c:	13490b3b 	movtne	r0, #39739	; 0x9b3b
    1830:	00001702 	andeq	r1, r0, r2, lsl #14
    1834:	01828927 	orreq	r8, r2, r7, lsr #18
    1838:	31011101 	tstcc	r1, r1, lsl #2
    183c:	28000013 	stmdacs	r0, {r0, r1, r4}
    1840:	0001828a 	andeq	r8, r1, sl, lsl #5
    1844:	42911802 	addsmi	r1, r1, #131072	; 0x20000
    1848:	29000018 	stmdbcs	r0, {r3, r4}
    184c:	193f012e 	ldmdbne	pc!, {r1, r2, r3, r5, r8}	; <UNPREDICTABLE>
    1850:	0b3a0e03 	bleq	e85064 <__bss_end__+0xe7aa2c>
    1854:	19270b3b 	stmdbne	r7!, {r0, r1, r3, r4, r5, r8, r9, fp}
    1858:	06120111 			; <UNDEFINED> instruction: 0x06120111
    185c:	42971840 	addsmi	r1, r7, #64, 16	; 0x400000
    1860:	00130119 	andseq	r0, r3, r9, lsl r1
    1864:	82892a00 	addhi	r2, r9, #0, 20
    1868:	01110101 	tsteq	r1, r1, lsl #2
    186c:	13011331 	movwne	r1, #4913	; 0x1331
    1870:	892b0000 	stmdbhi	fp!, {}	; <UNPREDICTABLE>
    1874:	11000182 	smlabbne	r0, r2, r1, r0
    1878:	00133101 	andseq	r3, r3, r1, lsl #2
    187c:	00052c00 	andeq	r2, r5, r0, lsl #24
    1880:	0b3a0e03 	bleq	e85094 <__bss_end__+0xe7aa5c>
    1884:	13490b3b 	movtne	r0, #39739	; 0x9b3b
    1888:	00001702 	andeq	r1, r0, r2, lsl #14
    188c:	0300342d 	movweq	r3, #1069	; 0x42d
    1890:	3b0b3a08 	blcc	2d00b8 <__bss_end__+0x2c5a80>
    1894:	0213490b 	andseq	r4, r3, #180224	; 0x2c000
    1898:	2e000018 	mcrcs	0, 0, r0, cr0, cr8, {0}
    189c:	193f002e 	ldmdbne	pc!, {r1, r2, r3, r5}	; <UNPREDICTABLE>
    18a0:	0e6e193c 	mcreq	9, 3, r1, cr14, cr12, {1}
    18a4:	0b3a0e03 	bleq	e850b8 <__bss_end__+0xe7aa80>
    18a8:	00000b3b 	andeq	r0, r0, fp, lsr fp
	...

Disassembly of section .debug_loc:

00000000 <.debug_loc>:
       0:	00000000 	andeq	r0, r0, r0
       4:	00000057 	andeq	r0, r0, r7, asr r0
       8:	57500001 	ldrbpl	r0, [r0, -r1]
       c:	78000000 	stmdavc	r0, {}	; <UNPREDICTABLE>
      10:	04000000 	streq	r0, [r0], #-0
      14:	5001f300 	andpl	pc, r1, r0, lsl #6
      18:	0000789f 	muleq	r0, pc, r8	; <UNPREDICTABLE>
      1c:	00008300 	andeq	r8, r0, r0, lsl #6
      20:	50000100 	andpl	r0, r0, r0, lsl #2
      24:	00000083 	andeq	r0, r0, r3, lsl #1
      28:	000000a4 	andeq	r0, r0, r4, lsr #1
      2c:	01f30004 	mvnseq	r0, r4
      30:	00a49f50 	adceq	r9, r4, r0, asr pc
      34:	00c80000 	sbceq	r0, r8, r0
      38:	00010000 	andeq	r0, r1, r0
      3c:	00000050 	andeq	r0, r0, r0, asr r0
      40:	00000000 	andeq	r0, r0, r0
      44:	00000c00 	andeq	r0, r0, r0, lsl #24
      48:	00001000 	andeq	r1, r0, r0
      4c:	53000100 	movwpl	r0, #256	; 0x100
	...
      58:	000000c8 	andeq	r0, r0, r8, asr #1
      5c:	000000cc 	andeq	r0, r0, ip, asr #1
      60:	cc500001 	mrrcgt	0, 0, r0, r0, cr1	; <UNPREDICTABLE>
      64:	d0000000 	andle	r0, r0, r0
      68:	04000000 	streq	r0, [r0], #-0
      6c:	5001f300 	andpl	pc, r1, r0, lsl #6
      70:	0000009f 	muleq	r0, pc, r0	; <UNPREDICTABLE>
      74:	00000000 	andeq	r0, r0, r0
      78:	0000d400 	andeq	sp, r0, r0, lsl #8
      7c:	0000d800 	andeq	sp, r0, r0, lsl #16
      80:	50000100 	andpl	r0, r0, r0, lsl #2
      84:	000000d8 	ldrdeq	r0, [r0], -r8
      88:	000000dc 	ldrdeq	r0, [r0], -ip
      8c:	01f30004 	mvnseq	r0, r4
      90:	00009f50 	andeq	r9, r0, r0, asr pc
	...
      9c:	00230000 	eoreq	r0, r3, r0
      a0:	00010000 	andeq	r0, r1, r0
      a4:	00002350 	andeq	r2, r0, r0, asr r3
      a8:	00004400 	andeq	r4, r0, r0, lsl #8
      ac:	f3000400 	vshl.u8	d0, d0, d0
      b0:	449f5001 	ldrmi	r5, [pc], #1	; b8 <__code_start__-0x7f48>
      b4:	5f000000 	svcpl	0x00000000
      b8:	01000000 	mrseq	r0, (UNDEF: 0)
      bc:	005f5000 	subseq	r5, pc, r0
      c0:	00800000 	addeq	r0, r0, r0
      c4:	00040000 	andeq	r0, r4, r0
      c8:	9f5001f3 	svcls	0x005001f3
      cc:	00000080 	andeq	r0, r0, r0, lsl #1
      d0:	000000b0 	strheq	r0, [r0], -r0	; <UNPREDICTABLE>
      d4:	00500001 	subseq	r0, r0, r1
	...
      e0:	23000000 	movwcs	r0, #0
      e4:	01000000 	mrseq	r0, (UNDEF: 0)
      e8:	00235100 	eoreq	r5, r3, r0, lsl #2
      ec:	00440000 	subeq	r0, r4, r0
      f0:	00040000 	andeq	r0, r4, r0
      f4:	9f5101f3 	svcls	0x005101f3
      f8:	00000044 	andeq	r0, r0, r4, asr #32
      fc:	0000005f 	andeq	r0, r0, pc, asr r0
     100:	5f510001 	svcpl	0x00510001
     104:	80000000 	andhi	r0, r0, r0
     108:	04000000 	streq	r0, [r0], #-0
     10c:	5101f300 	mrspl	pc, SP_irq	; <UNPREDICTABLE>
     110:	0000809f 	muleq	r0, pc, r0	; <UNPREDICTABLE>
     114:	0000b000 	andeq	fp, r0, r0
     118:	51000100 	mrspl	r0, (UNDEF: 16)
	...
     124:	00000010 	andeq	r0, r0, r0, lsl r0
     128:	00000023 	andeq	r0, r0, r3, lsr #32
     12c:	44530001 	ldrbmi	r0, [r3], #-1
     130:	48000000 	stmdami	r0, {}	; <UNPREDICTABLE>
     134:	01000000 	mrseq	r0, (UNDEF: 0)
     138:	00485300 	subeq	r5, r8, r0, lsl #6
     13c:	00b00000 	adcseq	r0, r0, r0
     140:	00040000 	andeq	r0, r4, r0
     144:	9f01ff0a 	svcls	0x0001ff0a
	...
     150:	00000044 	andeq	r0, r0, r4, asr #32
     154:	0000005f 	andeq	r0, r0, pc, asr r0
     158:	5f500001 	svcpl	0x00500001
     15c:	80000000 	andhi	r0, r0, r0
     160:	04000000 	streq	r0, [r0], #-0
     164:	5001f300 	andpl	pc, r1, r0, lsl #6
     168:	0000809f 	muleq	r0, pc, r0	; <UNPREDICTABLE>
     16c:	0000b000 	andeq	fp, r0, r0
     170:	50000100 	andpl	r0, r0, r0, lsl #2
	...
     17c:	0000000c 	andeq	r0, r0, ip
     180:	00000010 	andeq	r0, r0, r0, lsl r0
     184:	00530001 	subseq	r0, r3, r1
     188:	00000000 	andeq	r0, r0, r0
     18c:	10000000 	andne	r0, r0, r0
     190:	23000000 	movwcs	r0, #0
     194:	01000000 	mrseq	r0, (UNDEF: 0)
     198:	00445300 	subeq	r5, r4, r0, lsl #6
     19c:	004c0000 	subeq	r0, ip, r0
     1a0:	00010000 	andeq	r0, r1, r0
     1a4:	00000053 	andeq	r0, r0, r3, asr r0
     1a8:	00000000 	andeq	r0, r0, r0
     1ac:	00001800 	andeq	r1, r0, r0, lsl #16
     1b0:	00002300 	andeq	r2, r0, r0, lsl #6
     1b4:	52000100 	andpl	r0, r0, #0, 2
     1b8:	00000044 	andeq	r0, r0, r4, asr #32
     1bc:	00000054 	andeq	r0, r0, r4, asr r0
     1c0:	00520001 	subseq	r0, r2, r1
     1c4:	00000000 	andeq	r0, r0, r0
     1c8:	54000000 	strpl	r0, [r0], #-0
     1cc:	5f000000 	svcpl	0x00000000
     1d0:	01000000 	mrseq	r0, (UNDEF: 0)
     1d4:	00805200 	addeq	r5, r0, r0, lsl #4
     1d8:	00b00000 	adcseq	r0, r0, r0
     1dc:	00010000 	andeq	r0, r1, r0
     1e0:	00000052 	andeq	r0, r0, r2, asr r0
     1e4:	00000000 	andeq	r0, r0, r0
     1e8:	0000b000 	andeq	fp, r0, r0
     1ec:	0000d300 	andeq	sp, r0, r0, lsl #6
     1f0:	50000100 	andpl	r0, r0, r0, lsl #2
     1f4:	000000d3 	ldrdeq	r0, [r0], -r3
     1f8:	000000ec 	andeq	r0, r0, ip, ror #1
     1fc:	01f30004 	mvnseq	r0, r4
     200:	00ec9f50 	rsceq	r9, ip, r0, asr pc
     204:	00ff0000 	rscseq	r0, pc, r0
     208:	00010000 	andeq	r0, r1, r0
     20c:	0000ff50 	andeq	pc, r0, r0, asr pc	; <UNPREDICTABLE>
     210:	00012000 	andeq	r2, r1, r0
     214:	f3000400 	vshl.u8	d0, d0, d0
     218:	209f5001 	addscs	r5, pc, r1
     21c:	33000001 	movwcc	r0, #1
     220:	01000001 	tsteq	r0, r1
     224:	01335000 	teqeq	r3, r0
     228:	01540000 	cmpeq	r4, r0
     22c:	00040000 	andeq	r0, r4, r0
     230:	9f5001f3 	svcls	0x005001f3
     234:	00000154 	andeq	r0, r0, r4, asr r1
     238:	0000015c 	andeq	r0, r0, ip, asr r1
     23c:	5c500001 	mrrcpl	0, 0, r0, r0, cr1	; <UNPREDICTABLE>
     240:	5f000001 	svcpl	0x00000001
     244:	01000001 	tsteq	r0, r1
     248:	015f5100 	cmpeq	pc, r0, lsl #2
     24c:	018c0000 	orreq	r0, ip, r0
     250:	00040000 	andeq	r0, r4, r0
     254:	9f5001f3 	svcls	0x005001f3
	...
     260:	000000c4 	andeq	r0, r0, r4, asr #1
     264:	000000c8 	andeq	r0, r0, r8, asr #1
     268:	00530001 	subseq	r0, r3, r1
     26c:	00000000 	andeq	r0, r0, r0
     270:	f0000000 			; <UNDEFINED> instruction: 0xf0000000
     274:	f4000000 	vst4.8	{d0-d3}, [r0], r0
     278:	01000000 	mrseq	r0, (UNDEF: 0)
     27c:	00f45300 	rscseq	r5, r4, r0, lsl #6
     280:	00ff0000 	rscseq	r0, pc, r0
     284:	00030000 	andeq	r0, r3, r0
     288:	209f0473 	addscs	r0, pc, r3, ror r4	; <UNPREDICTABLE>
     28c:	24000001 	strcs	r0, [r0], #-1
     290:	03000001 	movweq	r0, #1
     294:	9f047300 	svcls	0x00047300
	...
     2a0:	000001d0 	ldrdeq	r0, [r0], -r0	; <UNPREDICTABLE>
     2a4:	000001d8 	ldrdeq	r0, [r0], -r8
     2a8:	d8530001 	ldmdale	r3, {r0}^
     2ac:	fc000001 	stc2	0, cr0, [r0], {1}
     2b0:	04000001 	streq	r0, [r0], #-1
     2b4:	01e70a00 	mvneq	r0, r0, lsl #20
     2b8:	0000009f 	muleq	r0, pc, r0	; <UNPREDICTABLE>
     2bc:	00000000 	andeq	r0, r0, r0
     2c0:	0001cc00 	andeq	ip, r1, r0, lsl #24
     2c4:	0001d000 	andeq	sp, r1, r0
     2c8:	53000100 	movwpl	r0, #256	; 0x100
	...
     2d4:	000001d0 	ldrdeq	r0, [r0], -r0	; <UNPREDICTABLE>
     2d8:	000001dc 	ldrdeq	r0, [r0], -ip
     2dc:	00530001 	subseq	r0, r3, r1
     2e0:	00000000 	andeq	r0, r0, r0
     2e4:	fc000000 	stc2	0, cr0, [r0], {-0}
     2e8:	1b000001 	blne	2f4 <__code_start__-0x7d0c>
     2ec:	01000002 	tsteq	r0, r2
     2f0:	021b5000 	andseq	r5, fp, #0
     2f4:	02340000 	eorseq	r0, r4, #0
     2f8:	00040000 	andeq	r0, r4, r0
     2fc:	9f5001f3 	svcls	0x005001f3
     300:	00000234 	andeq	r0, r0, r4, lsr r2
     304:	00000247 	andeq	r0, r0, r7, asr #4
     308:	47500001 	ldrbmi	r0, [r0, -r1]
     30c:	68000002 	stmdavs	r0, {r1}
     310:	04000002 	streq	r0, [r0], #-2
     314:	5001f300 	andpl	pc, r1, r0, lsl #6
     318:	0002689f 	muleq	r2, pc, r8	; <UNPREDICTABLE>
     31c:	00027000 	andeq	r7, r2, r0
     320:	50000100 	andpl	r0, r0, r0, lsl #2
     324:	00000270 	andeq	r0, r0, r0, ror r2
     328:	00000273 	andeq	r0, r0, r3, ror r2
     32c:	73510001 	cmpvc	r1, #1
     330:	94000002 	strls	r0, [r0], #-2
     334:	04000002 	streq	r0, [r0], #-2
     338:	5001f300 	andpl	pc, r1, r0, lsl #6
     33c:	0000009f 	muleq	r0, pc, r0	; <UNPREDICTABLE>
     340:	00000000 	andeq	r0, r0, r0
     344:	00020c00 	andeq	r0, r2, r0, lsl #24
     348:	00021000 	andeq	r1, r2, r0
     34c:	53000100 	movwpl	r0, #256	; 0x100
	...
     358:	000002cc 	andeq	r0, r0, ip, asr #5
     35c:	000002d4 	ldrdeq	r0, [r0], -r4
     360:	d4530001 	ldrble	r0, [r3], #-1
     364:	f8000002 			; <UNDEFINED> instruction: 0xf8000002
     368:	06000002 	streq	r0, [r0], -r2
     36c:	01e70c00 	mvneq	r0, r0, lsl #24
     370:	009f0040 	addseq	r0, pc, r0, asr #32
     374:	00000000 	andeq	r0, r0, r0
     378:	c8000000 	stmdagt	r0, {}	; <UNPREDICTABLE>
     37c:	cc000002 	stcgt	0, cr0, [r0], {2}
     380:	01000002 	tsteq	r0, r2
     384:	00005300 	andeq	r5, r0, r0, lsl #6
     388:	00000000 	andeq	r0, r0, r0
     38c:	02cc0000 	sbceq	r0, ip, #0
     390:	02d80000 	sbcseq	r0, r8, #0
     394:	00010000 	andeq	r0, r1, r0
     398:	00000053 	andeq	r0, r0, r3, asr r0
     39c:	00000000 	andeq	r0, r0, r0
     3a0:	00030800 	andeq	r0, r3, r0, lsl #16
     3a4:	00032400 	andeq	r2, r3, r0, lsl #8
     3a8:	50000100 	andpl	r0, r0, r0, lsl #2
     3ac:	00000324 	andeq	r0, r0, r4, lsr #6
     3b0:	00000328 	andeq	r0, r0, r8, lsr #6
     3b4:	01f30004 	mvnseq	r0, r4
     3b8:	03289f50 	teqeq	r8, #80, 30	; 0x140
     3bc:	03400000 	movteq	r0, #0
     3c0:	00010000 	andeq	r0, r1, r0
     3c4:	00034050 	andeq	r4, r3, r0, asr r0
     3c8:	00034800 	andeq	r4, r3, r0, lsl #16
     3cc:	f3000400 	vshl.u8	d0, d0, d0
     3d0:	489f5001 	ldmmi	pc, {r0, ip, lr}	; <UNPREDICTABLE>
     3d4:	54000003 	strpl	r0, [r0], #-3
     3d8:	01000003 	tsteq	r0, r3
     3dc:	03545000 	cmpeq	r4, #0
     3e0:	03640000 	cmneq	r4, #0
     3e4:	00040000 	andeq	r0, r4, r0
     3e8:	9f5001f3 	svcls	0x005001f3
     3ec:	00000364 	andeq	r0, r0, r4, ror #6
     3f0:	00000368 	andeq	r0, r0, r8, ror #6
     3f4:	68500001 	ldmdavs	r0, {r0}^
     3f8:	6c000003 	stcvs	0, cr0, [r0], {3}
     3fc:	04000003 	streq	r0, [r0], #-3
     400:	5001f300 	andpl	pc, r1, r0, lsl #6
     404:	00036c9f 	muleq	r3, pc, ip	; <UNPREDICTABLE>
     408:	00037000 	andeq	r7, r3, r0
     40c:	50000100 	andpl	r0, r0, r0, lsl #2
     410:	00000370 	andeq	r0, r0, r0, ror r3
     414:	00000378 	andeq	r0, r0, r8, ror r3
     418:	01f30004 	mvnseq	r0, r4
     41c:	00009f50 	andeq	r9, r0, r0, asr pc
     420:	00000000 	andeq	r0, r0, r0
     424:	03080000 	movweq	r0, #32768	; 0x8000
     428:	03580000 	cmpeq	r8, #0
     42c:	00010000 	andeq	r0, r1, r0
     430:	00035851 	andeq	r5, r3, r1, asr r8
     434:	00036400 	andeq	r6, r3, r0, lsl #8
     438:	f3000400 	vshl.u8	d0, d0, d0
     43c:	649f5101 	ldrvs	r5, [pc], #257	; 444 <__code_start__-0x7bbc>
     440:	78000003 	stmdavc	r0, {r0, r1}
     444:	01000003 	tsteq	r0, r3
     448:	00005100 	andeq	r5, r0, r0, lsl #2
     44c:	00000000 	andeq	r0, r0, r0
     450:	03140000 	tsteq	r4, #0
     454:	03340000 	teqeq	r4, #0
     458:	00010000 	andeq	r0, r1, r0
     45c:	00033453 	andeq	r3, r3, r3, asr r4
     460:	00034000 	andeq	r4, r3, r0
     464:	70000a00 	andvc	r0, r0, r0, lsl #20
     468:	ff0c0600 			; <UNDEFINED> instruction: 0xff0c0600
     46c:	1a00ffff 	bne	40470 <__bss_end__+0x35e38>
     470:	0003409f 	muleq	r3, pc, r0	; <UNPREDICTABLE>
     474:	00034400 	andeq	r4, r3, r0, lsl #8
     478:	f3000b00 	vqrdmulh.s<illegal width 8>	d0, d0, d0
     47c:	0c065001 	stceq	0, cr5, [r6], {1}
     480:	00ffffff 	ldrshteq	pc, [pc], #255	; <UNPREDICTABLE>
     484:	03489f1a 	movteq	r9, #36634	; 0x8f1a
     488:	035b0000 	cmpeq	fp, #0
     48c:	00010000 	andeq	r0, r1, r0
     490:	00036453 	andeq	r6, r3, r3, asr r4
     494:	00036800 	andeq	r6, r3, r0, lsl #16
     498:	70000a00 	andvc	r0, r0, r0, lsl #20
     49c:	ff0c0600 			; <UNDEFINED> instruction: 0xff0c0600
     4a0:	1a00ffff 	bne	404a4 <__bss_end__+0x35e6c>
     4a4:	0003689f 	muleq	r3, pc, r8	; <UNPREDICTABLE>
     4a8:	00036c00 	andeq	r6, r3, r0, lsl #24
     4ac:	f3000b00 	vqrdmulh.s<illegal width 8>	d0, d0, d0
     4b0:	0c065001 	stceq	0, cr5, [r6], {1}
     4b4:	00ffffff 	ldrshteq	pc, [pc], #255	; <UNPREDICTABLE>
     4b8:	036c9f1a 	cmneq	ip, #26, 30	; 0x68
     4bc:	03780000 	cmneq	r8, #0
     4c0:	00010000 	andeq	r0, r1, r0
     4c4:	00000053 	andeq	r0, r0, r3, asr r0
	...
     4d0:	00002400 	andeq	r2, r0, r0, lsl #8
     4d4:	50000100 	andpl	r0, r0, r0, lsl #2
     4d8:	00000024 	andeq	r0, r0, r4, lsr #32
     4dc:	000001ac 	andeq	r0, r0, ip, lsr #3
     4e0:	01f30004 	mvnseq	r0, r4
     4e4:	00009f50 	andeq	r9, r0, r0, asr pc
	...
     4f0:	00280000 	eoreq	r0, r8, r0
     4f4:	00010000 	andeq	r0, r1, r0
     4f8:	00002851 	andeq	r2, r0, r1, asr r8
     4fc:	00017800 	andeq	r7, r1, r0, lsl #16
     500:	55000100 	strpl	r0, [r0, #-256]	; 0x100
     504:	00000178 	andeq	r0, r0, r8, ror r1
     508:	000001ac 	andeq	r0, r0, ip, lsr #3
     50c:	01f30004 	mvnseq	r0, r4
     510:	00009f51 	andeq	r9, r0, r1, asr pc
	...
     51c:	002c0000 	eoreq	r0, ip, r0
     520:	00010000 	andeq	r0, r1, r0
     524:	00002c52 	andeq	r2, r0, r2, asr ip
     528:	0001ac00 	andeq	sl, r1, r0, lsl #24
     52c:	f3000400 	vshl.u8	d0, d0, d0
     530:	009f5201 	addseq	r5, pc, r1, lsl #4
     534:	00000000 	andeq	r0, r0, r0
     538:	68000000 	stmdavs	r0, {}	; <UNPREDICTABLE>
     53c:	78000000 	stmdavc	r0, {}	; <UNPREDICTABLE>
     540:	01000001 	tsteq	r0, r1
     544:	00005400 	andeq	r5, r0, r0, lsl #8
     548:	00000000 	andeq	r0, r0, r0
     54c:	00380000 	eorseq	r0, r8, r0
     550:	003c0000 	eorseq	r0, ip, r0
     554:	00010000 	andeq	r0, r1, r0
     558:	00000053 	andeq	r0, r0, r3, asr r0
     55c:	00000000 	andeq	r0, r0, r0
     560:	0001ac00 	andeq	sl, r1, r0, lsl #24
     564:	0001e800 	andeq	lr, r1, r0, lsl #16
     568:	50000100 	andpl	r0, r0, r0, lsl #2
     56c:	000001e8 	andeq	r0, r0, r8, ror #3
     570:	0000062c 	andeq	r0, r0, ip, lsr #12
     574:	2c540001 	mrrccs	0, 0, r0, r4, cr1
     578:	8c000006 	stchi	0, cr0, [r0], {6}
     57c:	04000006 	streq	r0, [r0], #-6
     580:	5001f300 	andpl	pc, r1, r0, lsl #6
     584:	0000009f 	muleq	r0, pc, r0	; <UNPREDICTABLE>
     588:	00000000 	andeq	r0, r0, r0
     58c:	0001bc00 	andeq	fp, r1, r0, lsl #24
     590:	00050800 	andeq	r0, r5, r0, lsl #16
     594:	58000100 	stmdapl	r0, {r8}
	...
     5a0:	000002c0 	andeq	r0, r0, r0, asr #5
     5a4:	00000508 	andeq	r0, r0, r8, lsl #10
     5a8:	00580001 	subseq	r0, r8, r1
     5ac:	00000000 	andeq	r0, r0, r0
     5b0:	e0000000 	and	r0, r0, r0
     5b4:	2c000003 	stccs	0, cr0, [r0], {3}
     5b8:	01000006 	tsteq	r0, r6
     5bc:	00005500 	andeq	r5, r0, r0, lsl #10
     5c0:	00000000 	andeq	r0, r0, r0
     5c4:	05040000 	streq	r0, [r4, #-0]
     5c8:	05080000 	streq	r0, [r8, #-0]
     5cc:	00010000 	andeq	r0, r1, r0
     5d0:	00000058 	andeq	r0, r0, r8, asr r0
     5d4:	00000000 	andeq	r0, r0, r0
     5d8:	00057400 	andeq	r7, r5, r0, lsl #8
     5dc:	00057800 	andeq	r7, r5, r0, lsl #16
     5e0:	53000100 	movwpl	r0, #256	; 0x100
	...
     5ec:	0000068c 	andeq	r0, r0, ip, lsl #13
     5f0:	00000690 	muleq	r0, r0, r6
     5f4:	90500001 	subsls	r0, r0, r1
     5f8:	94000006 	strls	r0, [r0], #-6
     5fc:	04000006 	streq	r0, [r0], #-6
     600:	5001f300 	andpl	pc, r1, r0, lsl #6
     604:	0000009f 	muleq	r0, pc, r0	; <UNPREDICTABLE>
     608:	00000000 	andeq	r0, r0, r0
     60c:	0006bc00 	andeq	fp, r6, r0, lsl #24
     610:	0006c700 	andeq	ip, r6, r0, lsl #14
     614:	50000100 	andpl	r0, r0, r0, lsl #2
     618:	000006c7 	andeq	r0, r0, r7, asr #13
     61c:	00000708 	andeq	r0, r0, r8, lsl #14
     620:	00540001 	subseq	r0, r4, r1
     624:	00000000 	andeq	r0, r0, r0
     628:	2c000000 	stccs	0, cr0, [r0], {-0}
     62c:	38000000 	stmdacc	r0, {}	; <UNPREDICTABLE>
     630:	01000000 	mrseq	r0, (UNDEF: 0)
     634:	00385000 	eorseq	r5, r8, r0
     638:	00480000 	subeq	r0, r8, r0
     63c:	00010000 	andeq	r0, r1, r0
     640:	00004855 	andeq	r4, r0, r5, asr r8
     644:	00005800 	andeq	r5, r0, r0, lsl #16
     648:	50000100 	andpl	r0, r0, r0, lsl #2
	...
     658:	0000000b 	andeq	r0, r0, fp
     65c:	0b500001 	bleq	1400668 <__bss_end__+0x13f6030>
     660:	14000000 	strne	r0, [r0], #-0
     664:	01000000 	mrseq	r0, (UNDEF: 0)
     668:	00005400 	andeq	r5, r0, r0, lsl #8
	...
     674:	00100000 	andseq	r0, r0, r0
     678:	00010000 	andeq	r0, r1, r0
     67c:	00001050 	andeq	r1, r0, r0, asr r0
     680:	00003400 	andeq	r3, r0, r0, lsl #8
     684:	54000100 	strpl	r0, [r0], #-256	; 0x100
	...
     694:	00000004 	andeq	r0, r0, r4
     698:	04500001 	ldrbeq	r0, [r0], #-1
     69c:	0c000000 	stceq	0, cr0, [r0], {-0}
     6a0:	03000000 	movweq	r0, #0
     6a4:	9f307000 	svcls	0x00307000
     6a8:	0000000c 	andeq	r0, r0, ip
     6ac:	00000014 	andeq	r0, r0, r4, lsl r0
     6b0:	01f30004 	mvnseq	r0, r4
     6b4:	00009f50 	andeq	r9, r0, r0, asr pc
     6b8:	00000000 	andeq	r0, r0, r0
     6bc:	00140000 	andseq	r0, r4, r0
     6c0:	00200000 	eoreq	r0, r0, r0
     6c4:	00010000 	andeq	r0, r1, r0
     6c8:	00002050 	andeq	r2, r0, r0, asr r0
     6cc:	00002c00 	andeq	r2, r0, r0, lsl #24
     6d0:	70000300 	andvc	r0, r0, r0, lsl #6
     6d4:	002c9f01 	eoreq	r9, ip, r1, lsl #30
     6d8:	00400000 	subeq	r0, r0, r0
     6dc:	00010000 	andeq	r0, r1, r0
     6e0:	00000050 	andeq	r0, r0, r0, asr r0
     6e4:	00000000 	andeq	r0, r0, r0
     6e8:	00001400 	andeq	r1, r0, r0, lsl #8
     6ec:	00001800 	andeq	r1, r0, r0, lsl #16
     6f0:	51000100 	mrspl	r0, (UNDEF: 16)
     6f4:	00000018 	andeq	r0, r0, r8, lsl r0
     6f8:	00000040 	andeq	r0, r0, r0, asr #32
     6fc:	01f30004 	mvnseq	r0, r4
     700:	00009f51 	andeq	r9, r0, r1, asr pc
     704:	00000000 	andeq	r0, r0, r0
     708:	00400000 	subeq	r0, r0, r0
     70c:	00600000 	rsbeq	r0, r0, r0
     710:	00010000 	andeq	r0, r1, r0
     714:	00006050 	andeq	r6, r0, r0, asr r0
     718:	00006c00 	andeq	r6, r0, r0, lsl #24
     71c:	71000300 	mrsvc	r0, LR_irq
     720:	006c9f01 	rsbeq	r9, ip, r1, lsl #30
     724:	00740000 	rsbseq	r0, r4, r0
     728:	00010000 	andeq	r0, r1, r0
     72c:	00007451 	andeq	r7, r0, r1, asr r4
     730:	00008000 	andeq	r8, r0, r0
     734:	71000300 	mrsvc	r0, LR_irq
     738:	00009f01 	andeq	r9, r0, r1, lsl #30
     73c:	00000000 	andeq	r0, r0, r0
     740:	00400000 	subeq	r0, r0, r0
     744:	00500000 	subseq	r0, r0, r0
     748:	00010000 	andeq	r0, r1, r0
     74c:	00005051 	andeq	r5, r0, r1, asr r0
     750:	00008000 	andeq	r8, r0, r0
     754:	f3000400 	vshl.u8	d0, d0, d0
     758:	009f5101 	addseq	r5, pc, r1, lsl #2
     75c:	00000000 	andeq	r0, r0, r0
     760:	40000000 	andmi	r0, r0, r0
     764:	58000000 	stmdapl	r0, {}	; <UNPREDICTABLE>
     768:	01000000 	mrseq	r0, (UNDEF: 0)
     76c:	00585200 	subseq	r5, r8, r0, lsl #4
     770:	00640000 	rsbeq	r0, r4, r0
     774:	00010000 	andeq	r0, r1, r0
     778:	00006452 	andeq	r6, r0, r2, asr r4
     77c:	00006800 	andeq	r6, r0, r0, lsl #16
     780:	72000300 	andvc	r0, r0, #0, 6
     784:	00689f01 	rsbeq	r9, r8, r1, lsl #30
     788:	00800000 	addeq	r0, r0, r0
     78c:	00010000 	andeq	r0, r1, r0
     790:	00000052 	andeq	r0, r0, r2, asr r0
     794:	00000000 	andeq	r0, r0, r0
     798:	00004000 	andeq	r4, r0, r0
     79c:	00005400 	andeq	r5, r0, r0, lsl #8
     7a0:	53000100 	movwpl	r0, #256	; 0x100
     7a4:	00000054 	andeq	r0, r0, r4, asr r0
     7a8:	00000078 	andeq	r0, r0, r8, ror r0
     7ac:	00530001 	subseq	r0, r3, r1
     7b0:	00000000 	andeq	r0, r0, r0
     7b4:	48000000 	stmdami	r0, {}	; <UNPREDICTABLE>
     7b8:	60000000 	andvs	r0, r0, r0
     7bc:	01000000 	mrseq	r0, (UNDEF: 0)
     7c0:	00605c00 	rsbeq	r5, r0, r0, lsl #24
     7c4:	00800000 	addeq	r0, r0, r0
     7c8:	000a0000 	andeq	r0, sl, r0
     7cc:	f35201f3 	vbsl	q8, q9, <illegal reg q9.5>
     7d0:	231c5301 	tstcs	ip, #67108864	; 0x4000000
     7d4:	00009f01 	andeq	r9, r0, r1, lsl #30
     7d8:	00000000 	andeq	r0, r0, r0
     7dc:	00800000 	addeq	r0, r0, r0
     7e0:	00a40000 	adceq	r0, r4, r0
     7e4:	00010000 	andeq	r0, r1, r0
     7e8:	0000a450 	andeq	sl, r0, r0, asr r4
     7ec:	00011800 	andeq	r1, r1, r0, lsl #16
     7f0:	70000300 	andvc	r0, r0, r0, lsl #6
     7f4:	01189f02 	tsteq	r8, r2, lsl #30
     7f8:	023c0000 	eorseq	r0, ip, #0
     7fc:	00040000 	andeq	r0, r4, r0
     800:	9f5001f3 	svcls	0x005001f3
	...
     80c:	00000080 	andeq	r0, r0, r0, lsl #1
     810:	000000f0 	strdeq	r0, [r0], -r0	; <UNPREDICTABLE>
     814:	f0510001 			; <UNDEFINED> instruction: 0xf0510001
     818:	60000000 	andvs	r0, r0, r0
     81c:	01000001 	tsteq	r0, r1
     820:	01605500 	cmneq	r0, r0, lsl #10
     824:	016c0000 	cmneq	ip, r0
     828:	00010000 	andeq	r0, r1, r0
     82c:	00016c51 	andeq	r6, r1, r1, asr ip
     830:	0001a000 	andeq	sl, r1, r0
     834:	55000100 	strpl	r0, [r0, #-256]	; 0x100
     838:	000001a0 	andeq	r0, r0, r0, lsr #3
     83c:	000001b4 			; <UNDEFINED> instruction: 0x000001b4
     840:	b4510001 	ldrblt	r0, [r1], #-1
     844:	d4000001 	strle	r0, [r0], #-1
     848:	01000001 	tsteq	r0, r1
     84c:	01d45500 	bicseq	r5, r4, r0, lsl #10
     850:	01d70000 	bicseq	r0, r7, r0
     854:	00010000 	andeq	r0, r1, r0
     858:	0001d751 	andeq	sp, r1, r1, asr r7
     85c:	00021c00 	andeq	r1, r2, r0, lsl #24
     860:	55000100 	strpl	r0, [r0, #-256]	; 0x100
     864:	0000021c 	andeq	r0, r0, ip, lsl r2
     868:	0000023c 	andeq	r0, r0, ip, lsr r2
     86c:	01f30004 	mvnseq	r0, r4
     870:	00009f51 	andeq	r9, r0, r1, asr pc
     874:	00000000 	andeq	r0, r0, r0
     878:	00800000 	addeq	r0, r0, r0
     87c:	00940000 	addseq	r0, r4, r0
     880:	00010000 	andeq	r0, r1, r0
     884:	00009452 	andeq	r9, r0, r2, asr r4
     888:	00021c00 	andeq	r1, r2, r0, lsl #24
     88c:	54000100 	strpl	r0, [r0], #-256	; 0x100
     890:	0000021c 	andeq	r0, r0, ip, lsl r2
     894:	0000023c 	andeq	r0, r0, ip, lsr r2
     898:	01f30004 	mvnseq	r0, r4
     89c:	00009f52 	andeq	r9, r0, r2, asr pc
     8a0:	00000000 	andeq	r0, r0, r0
     8a4:	00800000 	addeq	r0, r0, r0
     8a8:	01000000 	mrseq	r0, (UNDEF: 0)
     8ac:	00010000 	andeq	r0, r1, r0
     8b0:	00010453 	andeq	r0, r1, r3, asr r4
     8b4:	00010800 	andeq	r0, r1, r0, lsl #16
     8b8:	53000100 	movwpl	r0, #256	; 0x100
     8bc:	00000160 	andeq	r0, r0, r0, ror #2
     8c0:	00000164 	andeq	r0, r0, r4, ror #2
     8c4:	64530001 	ldrbvs	r0, [r3], #-1
     8c8:	6c000001 	stcvs	0, cr0, [r0], {1}
     8cc:	01000001 	tsteq	r0, r1
     8d0:	016c5c00 	cmneq	ip, r0, lsl #24
     8d4:	01a00000 	moveq	r0, r0
     8d8:	00040000 	andeq	r0, r4, r0
     8dc:	9f5301f3 	svcls	0x005301f3
     8e0:	000001a0 	andeq	r0, r0, r0, lsr #3
     8e4:	000001b0 			; <UNDEFINED> instruction: 0x000001b0
     8e8:	b0530001 	subslt	r0, r3, r1
     8ec:	b4000001 	strlt	r0, [r0], #-1
     8f0:	01000001 	tsteq	r0, r1
     8f4:	01b45c00 			; <UNDEFINED> instruction: 0x01b45c00
     8f8:	01d40000 	bicseq	r0, r4, r0
     8fc:	00040000 	andeq	r0, r4, r0
     900:	9f5301f3 	svcls	0x005301f3
     904:	000001d4 	ldrdeq	r0, [r0], -r4
     908:	000001d7 	ldrdeq	r0, [r0], -r7
     90c:	d7530001 	ldrble	r0, [r3, -r1]
     910:	f8000001 			; <UNDEFINED> instruction: 0xf8000001
     914:	04000001 	streq	r0, [r0], #-1
     918:	5301f300 	movwpl	pc, #4864	; 0x1300	; <UNPREDICTABLE>
     91c:	0000009f 	muleq	r0, pc, r0	; <UNPREDICTABLE>
     920:	00000000 	andeq	r0, r0, r0
     924:	00008000 	andeq	r8, r0, r0
     928:	00009c00 	andeq	r9, r0, r0, lsl #24
     92c:	91000200 	mrsls	r0, R8_usr
     930:	00009c00 	andeq	r9, r0, r0, lsl #24
     934:	0001d700 	andeq	sp, r1, r0, lsl #14
     938:	52000100 	andpl	r0, r0, #0, 2
     93c:	000001f8 	strdeq	r0, [r0], -r8
     940:	000001ff 	strdeq	r0, [r0], -pc	; <UNPREDICTABLE>
     944:	00520001 	subseq	r0, r2, r1
     948:	00000000 	andeq	r0, r0, r0
     94c:	9c000000 	stcls	0, cr0, [r0], {-0}
     950:	0c000000 	stceq	0, cr0, [r0], {-0}
     954:	04000001 	streq	r0, [r0], #-1
     958:	7fa09100 	svcvc	0x00a09100
     95c:	00010c9f 	muleq	r1, pc, ip	; <UNPREDICTABLE>
     960:	00011800 	andeq	r1, r1, r0, lsl #16
     964:	51000100 	mrspl	r0, (UNDEF: 16)
     968:	00000118 	andeq	r0, r0, r8, lsl r1
     96c:	0000011c 	andeq	r0, r0, ip, lsl r1
     970:	1c500001 	mrrcne	0, 0, r0, r0, cr1	; <UNPREDICTABLE>
     974:	20000001 	andcs	r0, r0, r1
     978:	01000001 	tsteq	r0, r1
     97c:	01205100 	teqeq	r0, r0, lsl #2
     980:	01600000 	cmneq	r0, r0
     984:	00010000 	andeq	r0, r1, r0
     988:	00016050 	andeq	r6, r1, r0, asr r0
     98c:	00016400 	andeq	r6, r1, r0, lsl #8
     990:	91000400 	tstls	r0, r0, lsl #8
     994:	649f7fa0 	ldrvs	r7, [pc], #4000	; 99c <__code_start__-0x7664>
     998:	6c000001 	stcvs	0, cr0, [r0], {1}
     99c:	01000001 	tsteq	r0, r1
     9a0:	016c5300 	cmneq	ip, r0, lsl #6
     9a4:	01700000 	cmneq	r0, r0
     9a8:	00010000 	andeq	r0, r1, r0
     9ac:	00017050 	andeq	r7, r1, r0, asr r0
     9b0:	00017400 	andeq	r7, r1, r0, lsl #8
     9b4:	53000100 	movwpl	r0, #256	; 0x100
     9b8:	00000174 	andeq	r0, r0, r4, ror r1
     9bc:	00000188 	andeq	r0, r0, r8, lsl #3
     9c0:	88500001 	ldmdahi	r0, {r0}^
     9c4:	94000001 	strls	r0, [r0], #-1
     9c8:	03000001 	movweq	r0, #1
     9cc:	9f017000 	svcls	0x00017000
     9d0:	00000194 	muleq	r0, r4, r1
     9d4:	000001a0 	andeq	r0, r0, r0, lsr #3
     9d8:	a0500001 	subsge	r0, r0, r1
     9dc:	a8000001 	stmdage	r0, {r0}
     9e0:	04000001 	streq	r0, [r0], #-1
     9e4:	7fa19100 	svcvc	0x00a19100
     9e8:	0001a89f 	muleq	r1, pc, r8	; <UNPREDICTABLE>
     9ec:	0001ac00 	andeq	sl, r1, r0, lsl #24
     9f0:	50000100 	andpl	r0, r0, r0, lsl #2
     9f4:	000001ac 	andeq	r0, r0, ip, lsr #3
     9f8:	000001b0 			; <UNDEFINED> instruction: 0x000001b0
     9fc:	a0910004 	addsge	r0, r1, r4
     a00:	01b09f7f 	rorseq	r9, pc, pc
     a04:	01b80000 			; <UNDEFINED> instruction: 0x01b80000
     a08:	00010000 	andeq	r0, r1, r0
     a0c:	0001b853 	andeq	fp, r1, r3, asr r8
     a10:	0001d400 	andeq	sp, r1, r0, lsl #8
     a14:	50000100 	andpl	r0, r0, r0, lsl #2
     a18:	000001d4 	ldrdeq	r0, [r0], -r4
     a1c:	000001f8 	strdeq	r0, [r0], -r8
     a20:	a0910004 	addsge	r0, r1, r4
     a24:	01f89f7f 	mvnseq	r9, pc, ror pc
     a28:	01ff0000 	mvnseq	r0, r0
     a2c:	00010000 	andeq	r0, r1, r0
     a30:	00000050 	andeq	r0, r0, r0, asr r0
     a34:	00000000 	andeq	r0, r0, r0
     a38:	0000a000 	andeq	sl, r0, r0
     a3c:	0000ec00 	andeq	lr, r0, r0, lsl #24
     a40:	5c000100 	stfpls	f0, [r0], {-0}
     a44:	000000ec 	andeq	r0, r0, ip, ror #1
     a48:	00000100 	andeq	r0, r0, r0, lsl #2
     a4c:	00530001 	subseq	r0, r3, r1
     a50:	04000001 	streq	r0, [r0], #-1
     a54:	01000001 	tsteq	r0, r1
     a58:	01045c00 	tsteq	r4, r0, lsl #24
     a5c:	01080000 	mrseq	r0, (UNDEF: 8)
     a60:	00010000 	andeq	r0, r1, r0
     a64:	00010853 	andeq	r0, r1, r3, asr r8
     a68:	00016000 	andeq	r6, r1, r0
     a6c:	5c000100 	stfpls	f0, [r0], {-0}
     a70:	00000160 	andeq	r0, r0, r0, ror #2
     a74:	00000164 	andeq	r0, r0, r4, ror #2
     a78:	64530001 	ldrbvs	r0, [r3], #-1
     a7c:	80000001 	andhi	r0, r0, r1
     a80:	01000001 	tsteq	r0, r1
     a84:	01805c00 	orreq	r5, r0, r0, lsl #24
     a88:	01840000 	orreq	r0, r4, r0
     a8c:	00050000 	andeq	r0, r5, r0
     a90:	2534007c 	ldrcs	r0, [r4, #-124]!	; 0x7c
     a94:	0001849f 	muleq	r1, pc, r4	; <UNPREDICTABLE>
     a98:	0001a000 	andeq	sl, r1, r0
     a9c:	5c000100 	stfpls	f0, [r0], {-0}
     aa0:	000001a0 	andeq	r0, r0, r0, lsr #3
     aa4:	000001b0 			; <UNDEFINED> instruction: 0x000001b0
     aa8:	b0530001 	subslt	r0, r3, r1
     aac:	c4000001 	strgt	r0, [r0], #-1
     ab0:	01000001 	tsteq	r0, r1
     ab4:	01c45c00 	biceq	r5, r4, r0, lsl #24
     ab8:	01cc0000 	biceq	r0, ip, r0
     abc:	00050000 	andeq	r0, r5, r0
     ac0:	2531007c 	ldrcs	r0, [r1, #-124]!	; 0x7c
     ac4:	0001cc9f 	muleq	r1, pc, ip	; <UNPREDICTABLE>
     ac8:	0001d400 	andeq	sp, r1, r0, lsl #8
     acc:	5c000100 	stfpls	f0, [r0], {-0}
     ad0:	000001d4 	ldrdeq	r0, [r0], -r4
     ad4:	000001d7 	ldrdeq	r0, [r0], -r7
     ad8:	d7530001 	ldrble	r0, [r3, -r1]
     adc:	f8000001 			; <UNDEFINED> instruction: 0xf8000001
     ae0:	04000001 	streq	r0, [r0], #-1
     ae4:	5301f300 	movwpl	pc, #4864	; 0x1300	; <UNPREDICTABLE>
     ae8:	0001f89f 	muleq	r1, pc, r8	; <UNPREDICTABLE>
     aec:	0001ff00 	andeq	pc, r1, r0, lsl #30
     af0:	5c000100 	stfpls	f0, [r0], {-0}
	...
     afc:	000000ec 	andeq	r0, r0, ip, ror #1
     b00:	000000fc 	strdeq	r0, [r0], -ip
     b04:	9f300002 	svcls	0x00300002
     b08:	000000fc 	strdeq	r0, [r0], -ip
     b0c:	00000104 	andeq	r0, r0, r4, lsl #2
     b10:	9f310002 	svcls	0x00310002
     b14:	00000104 	andeq	r0, r0, r4, lsl #2
     b18:	00000108 	andeq	r0, r0, r8, lsl #2
     b1c:	9f300002 	svcls	0x00300002
	...
     b28:	0000023c 	andeq	r0, r0, ip, lsr r2
     b2c:	0000024f 	andeq	r0, r0, pc, asr #4
     b30:	4f500001 	svcmi	0x00500001
     b34:	70000002 	andvc	r0, r0, r2
     b38:	04000002 	streq	r0, [r0], #-2
     b3c:	5001f300 	andpl	pc, r1, r0, lsl #6
     b40:	0002709f 	muleq	r2, pc, r0	; <UNPREDICTABLE>
     b44:	0002a400 	andeq	sl, r2, r0, lsl #8
     b48:	50000100 	andpl	r0, r0, r0, lsl #2
	...
     b54:	0000023c 	andeq	r0, r0, ip, lsr r2
     b58:	0000024f 	andeq	r0, r0, pc, asr #4
     b5c:	4f510001 	svcmi	0x00510001
     b60:	70000002 	andvc	r0, r0, r2
     b64:	04000002 	streq	r0, [r0], #-2
     b68:	5101f300 	mrspl	pc, SP_irq	; <UNPREDICTABLE>
     b6c:	0002709f 	muleq	r2, pc, r0	; <UNPREDICTABLE>
     b70:	0002a400 	andeq	sl, r2, r0, lsl #8
     b74:	51000100 	mrspl	r0, (UNDEF: 16)
	...
     b80:	000002a4 	andeq	r0, r0, r4, lsr #5
     b84:	000002d4 	ldrdeq	r0, [r0], -r4
     b88:	d4500001 	ldrble	r0, [r0], #-1
     b8c:	58000002 	stmdapl	r0, {r1}
     b90:	01000005 	tsteq	r0, r5
     b94:	05585b00 	ldrbeq	r5, [r8, #-2816]	; 0xb00
     b98:	05780000 	ldrbeq	r0, [r8, #-0]!
     b9c:	00040000 	andeq	r0, r4, r0
     ba0:	9f5001f3 	svcls	0x005001f3
	...
     bac:	000002a4 	andeq	r0, r0, r4, lsr #5
     bb0:	000002bc 			; <UNDEFINED> instruction: 0x000002bc
     bb4:	bc510001 	mrrclt	0, 0, r0, r1, cr1
     bb8:	d4000002 	strle	r0, [r0], #-2
     bbc:	03000002 	movweq	r0, #2
     bc0:	9f017100 	svcls	0x00017100
     bc4:	000002d4 	ldrdeq	r0, [r0], -r4
     bc8:	00000578 	andeq	r0, r0, r8, ror r5
     bcc:	01f30004 	mvnseq	r0, r4
     bd0:	00009f51 	andeq	r9, r0, r1, asr pc
     bd4:	00000000 	andeq	r0, r0, r0
     bd8:	02a40000 	adceq	r0, r4, #0
     bdc:	02d40000 	sbcseq	r0, r4, #0
     be0:	00010000 	andeq	r0, r1, r0
     be4:	0002d452 	andeq	sp, r2, r2, asr r4
     be8:	00055800 	andeq	r5, r5, r0, lsl #16
     bec:	56000100 	strpl	r0, [r0], -r0, lsl #2
	...
     bf8:	000002a4 	andeq	r0, r0, r4, lsr #5
     bfc:	000002c4 	andeq	r0, r0, r4, asr #5
     c00:	00530001 	subseq	r0, r3, r1
     c04:	00000000 	andeq	r0, r0, r0
     c08:	b8000000 	stmdalt	r0, {}	; <UNPREDICTABLE>
     c0c:	d4000002 	strle	r0, [r0], #-2
     c10:	01000002 	tsteq	r0, r2
     c14:	02d45000 	sbcseq	r5, r4, #0
     c18:	02d80000 	sbcseq	r0, r8, #0
     c1c:	00010000 	andeq	r0, r1, r0
     c20:	0002d854 	andeq	sp, r2, r4, asr r8
     c24:	0002e400 	andeq	lr, r2, r0, lsl #8
     c28:	74000300 	strvc	r0, [r0], #-768	; 0x300
     c2c:	02e49f01 	rsceq	r9, r4, #1, 30
     c30:	02f00000 	rscseq	r0, r0, #0
     c34:	00010000 	andeq	r0, r1, r0
     c38:	0002f054 	andeq	pc, r2, r4, asr r0	; <UNPREDICTABLE>
     c3c:	0002fc00 	andeq	pc, r2, r0, lsl #24
     c40:	74000300 	strvc	r0, [r0], #-768	; 0x300
     c44:	02fc9f01 	rscseq	r9, ip, #1, 30
     c48:	050c0000 	streq	r0, [ip, #-0]
     c4c:	00010000 	andeq	r0, r1, r0
     c50:	00050c54 	andeq	r0, r5, r4, asr ip
     c54:	00051800 	andeq	r1, r5, r0, lsl #16
     c58:	74000300 	strvc	r0, [r0], #-768	; 0x300
     c5c:	05189f01 	ldreq	r9, [r8, #-3841]	; 0xf01
     c60:	05440000 	strbeq	r0, [r4, #-0]
     c64:	00010000 	andeq	r0, r1, r0
     c68:	00054454 	andeq	r4, r5, r4, asr r4
     c6c:	00055000 	andeq	r5, r5, r0
     c70:	50000100 	andpl	r0, r0, r0, lsl #2
     c74:	00000550 	andeq	r0, r0, r0, asr r5
     c78:	00000558 	andeq	r0, r0, r8, asr r5
     c7c:	01740003 	cmneq	r4, r3
     c80:	0000009f 	muleq	r0, pc, r0	; <UNPREDICTABLE>
     c84:	00000000 	andeq	r0, r0, r0
     c88:	0002c000 	andeq	ip, r2, r0
     c8c:	00055800 	andeq	r5, r5, r0, lsl #16
     c90:	58000100 	stmdapl	r0, {r8}
     c94:	00000558 	andeq	r0, r0, r8, asr r5
     c98:	00000578 	andeq	r0, r0, r8, ror r5
     c9c:	01f3000a 	mvnseq	r0, sl
     ca0:	5001f351 	andpl	pc, r1, r1, asr r3	; <UNPREDICTABLE>
     ca4:	9f1c3122 	svcls	0x001c3122
	...
     cb0:	000002c8 	andeq	r0, r0, r8, asr #5
     cb4:	000002d4 	ldrdeq	r0, [r0], -r4
     cb8:	d4520001 	ldrble	r0, [r2], #-1
     cbc:	78000002 	stmdavc	r0, {r1}
     cc0:	03000005 	movweq	r0, #5
     cc4:	7ecc9100 	acsvce	f1, f0
	...
     cd0:	00000410 	andeq	r0, r0, r0, lsl r4
     cd4:	00000414 	andeq	r0, r0, r4, lsl r4
     cd8:	38500001 	ldmdacc	r0, {r0}^
     cdc:	3c000004 	stccc	0, cr0, [r0], {4}
     ce0:	01000004 	tsteq	r0, r4
     ce4:	04605000 	strbteq	r5, [r0], #-0
     ce8:	04640000 	strbteq	r0, [r4], #-0
     cec:	00010000 	andeq	r0, r1, r0
     cf0:	00048850 	andeq	r8, r4, r0, asr r8
     cf4:	00048c00 	andeq	r8, r4, r0, lsl #24
     cf8:	50000100 	andpl	r0, r0, r0, lsl #2
     cfc:	00000494 	muleq	r0, r4, r4
     d00:	00000498 	muleq	r0, r8, r4
     d04:	bc500001 	mrrclt	0, 0, r0, r0, cr1	; <UNPREDICTABLE>
     d08:	c0000004 	andgt	r0, r0, r4
     d0c:	01000004 	tsteq	r0, r4
     d10:	05045000 	streq	r5, [r4, #-0]
     d14:	052c0000 	streq	r0, [ip, #-0]!
     d18:	00010000 	andeq	r0, r1, r0
     d1c:	00000050 	andeq	r0, r0, r0, asr r0
     d20:	00000000 	andeq	r0, r0, r0
     d24:	00030400 	andeq	r0, r3, r0, lsl #8
     d28:	00030c00 	andeq	r0, r3, r0, lsl #24
     d2c:	30000200 	andcc	r0, r0, r0, lsl #4
     d30:	00030c9f 	muleq	r3, pc, ip	; <UNPREDICTABLE>
     d34:	00031000 	andeq	r1, r3, r0
     d38:	57000100 	strpl	r0, [r0, -r0, lsl #2]
     d3c:	0000031c 	andeq	r0, r0, ip, lsl r3
     d40:	0000052c 	andeq	r0, r0, ip, lsr #10
     d44:	00570001 	subseq	r0, r7, r1
     d48:	00000000 	andeq	r0, r0, r0
     d4c:	04000000 	streq	r0, [r0], #-0
     d50:	08000000 	stmdaeq	r0, {}	; <UNPREDICTABLE>
     d54:	07000000 	streq	r0, [r0, -r0]
     d58:	0a007300 	beq	1d960 <__bss_end__+0x13328>
     d5c:	9f211000 	svcls	0x00211000
     d60:	00000008 	andeq	r0, r0, r8
     d64:	00000010 	andeq	r0, r0, r0, lsl r0
     d68:	00530001 	subseq	r0, r3, r1
     d6c:	00000000 	andeq	r0, r0, r0
     d70:	14000000 	strne	r0, [r0], #-0
     d74:	18000000 	stmdane	r0, {}	; <UNPREDICTABLE>
     d78:	07000000 	streq	r0, [r0, -r0]
     d7c:	0b007300 	bleq	1d984 <__bss_end__+0x1334c>
     d80:	9f1aefff 	svcls	0x001aefff
     d84:	00000018 	andeq	r0, r0, r8, lsl r0
     d88:	00000020 	andeq	r0, r0, r0, lsr #32
     d8c:	00530001 	subseq	r0, r3, r1
     d90:	00000000 	andeq	r0, r0, r0
     d94:	14000000 	strne	r0, [r0], #-0
     d98:	1c000000 	stcne	0, cr0, [r0], {-0}
     d9c:	03000000 	movweq	r0, #0
     da0:	9f047300 	svcls	0x00047300
     da4:	0000001c 	andeq	r0, r0, ip, lsl r0
     da8:	00000027 	andeq	r0, r0, r7, lsr #32
     dac:	00530001 	subseq	r0, r3, r1
	...
     db8:	0f000000 	svceq	0x00000000
     dbc:	01000000 	mrseq	r0, (UNDEF: 0)
     dc0:	000f5000 	andeq	r5, pc, r0
     dc4:	00440000 	subeq	r0, r4, r0
     dc8:	00010000 	andeq	r0, r1, r0
     dcc:	00000054 	andeq	r0, r0, r4, asr r0
	...
     dd8:	00000f00 	andeq	r0, r0, r0, lsl #30
     ddc:	50000100 	andpl	r0, r0, r0, lsl #2
     de0:	0000000f 	andeq	r0, r0, pc
     de4:	00000044 	andeq	r0, r0, r4, asr #32
     de8:	00540001 	subseq	r0, r4, r1
	...
     df4:	0f000000 	svceq	0x00000000
     df8:	01000000 	mrseq	r0, (UNDEF: 0)
     dfc:	000f5000 	andeq	r5, pc, r0
     e00:	00440000 	subeq	r0, r4, r0
     e04:	00010000 	andeq	r0, r1, r0
     e08:	00000054 	andeq	r0, r0, r4, asr r0
     e0c:	00000000 	andeq	r0, r0, r0
     e10:	00003400 	andeq	r3, r0, r0, lsl #8
     e14:	00004000 	andeq	r4, r0, r0
     e18:	30000200 	andcc	r0, r0, r0, lsl #4
     e1c:	0000409f 	muleq	r0, pc, r0	; <UNPREDICTABLE>
     e20:	00006c00 	andeq	r6, r0, r0, lsl #24
     e24:	53000100 	movwpl	r0, #256	; 0x100
	...
     e30:	00009620 	andeq	r9, r0, r0, lsr #12
     e34:	00009624 	andeq	r9, r0, r4, lsr #12
     e38:	9f300002 	svcls	0x00300002
     e3c:	00009624 	andeq	r9, r0, r4, lsr #12
     e40:	00009628 	andeq	r9, r0, r8, lsr #12
     e44:	00500001 	subseq	r0, r0, r1
     e48:	00000000 	andeq	r0, r0, r0
     e4c:	38000000 	stmdacc	r0, {}	; <UNPREDICTABLE>
     e50:	3c000096 	stccc	0, cr0, [r0], {150}	; 0x96
     e54:	02000096 	andeq	r0, r0, #150	; 0x96
     e58:	3c9f3000 	ldccc	0, cr3, [pc], {0}
     e5c:	40000096 	mulmi	r0, r6, r0
     e60:	01000096 	swpeq	r0, r6, [r0]	; <UNPREDICTABLE>
     e64:	96445300 	strbls	r5, [r4], -r0, lsl #6
     e68:	964c0000 	strbls	r0, [ip], -r0
     e6c:	00010000 	andeq	r0, r1, r0
     e70:	00000053 	andeq	r0, r0, r3, asr r0
	...
     e7c:	00000400 	andeq	r0, r0, r0, lsl #8
     e80:	50000100 	andpl	r0, r0, r0, lsl #2
     e84:	00000004 	andeq	r0, r0, r4
     e88:	0000000c 	andeq	r0, r0, ip
     e8c:	0c530001 	mrrceq	0, 0, r0, r3, cr1
     e90:	10000000 	andne	r0, r0, r0
     e94:	01000000 	mrseq	r0, (UNDEF: 0)
     e98:	00105000 	andseq	r5, r0, r0
     e9c:	001c0000 	andseq	r0, ip, r0
     ea0:	00010000 	andeq	r0, r1, r0
     ea4:	00000053 	andeq	r0, r0, r3, asr r0
     ea8:	00000000 	andeq	r0, r0, r0
     eac:	00004000 	andeq	r4, r0, r0
     eb0:	00004300 	andeq	r4, r0, r0, lsl #6
     eb4:	50000100 	andpl	r0, r0, r0, lsl #2
     eb8:	00000043 	andeq	r0, r0, r3, asr #32
     ebc:	0000004c 	andeq	r0, r0, ip, asr #32
     ec0:	00540001 	subseq	r0, r4, r1
     ec4:	00000000 	andeq	r0, r0, r0
     ec8:	4c000000 	stcmi	0, cr0, [r0], {-0}
     ecc:	57000000 	strpl	r0, [r0, -r0]
     ed0:	01000000 	mrseq	r0, (UNDEF: 0)
     ed4:	00575000 	subseq	r5, r7, r0
     ed8:	00700000 	rsbseq	r0, r0, r0
     edc:	00010000 	andeq	r0, r1, r0
     ee0:	00000055 	andeq	r0, r0, r5, asr r0
     ee4:	00000000 	andeq	r0, r0, r0
     ee8:	00006000 	andeq	r6, r0, r0
     eec:	00006400 	andeq	r6, r0, r0, lsl #8
     ef0:	50000100 	andpl	r0, r0, r0, lsl #2
	...
     efc:	00000070 	andeq	r0, r0, r0, ror r0
     f00:	0000007c 	andeq	r0, r0, ip, ror r0
     f04:	7c500001 	mrrcvc	0, 0, r0, r0, cr1	; <UNPREDICTABLE>
     f08:	84000000 	strhi	r0, [r0], #-0
     f0c:	04000000 	streq	r0, [r0], #-0
     f10:	5001f300 	andpl	pc, r1, r0, lsl #6
     f14:	0000009f 	muleq	r0, pc, r0	; <UNPREDICTABLE>
     f18:	00000000 	andeq	r0, r0, r0
     f1c:	00008400 	andeq	r8, r0, r0, lsl #8
     f20:	00009000 	andeq	r9, r0, r0
     f24:	50000100 	andpl	r0, r0, r0, lsl #2
     f28:	00000090 	muleq	r0, r0, r0
     f2c:	00000098 	muleq	r0, r8, r0
     f30:	01f30004 	mvnseq	r0, r4
     f34:	00009f50 	andeq	r9, r0, r0, asr pc
     f38:	00000000 	andeq	r0, r0, r0
     f3c:	01380000 	teqeq	r8, r0
     f40:	01430000 	mrseq	r0, (UNDEF: 67)
     f44:	00010000 	andeq	r0, r1, r0
     f48:	00014350 	andeq	r4, r1, r0, asr r3
     f4c:	00016800 	andeq	r6, r1, r0, lsl #16
     f50:	54000100 	strpl	r0, [r0], #-256	; 0x100
	...
     f60:	0000000f 	andeq	r0, r0, pc
     f64:	0f500001 	svceq	0x00500001
     f68:	20000000 	andcs	r0, r0, r0
     f6c:	01000000 	mrseq	r0, (UNDEF: 0)
     f70:	00005400 	andeq	r5, r0, r0, lsl #8
	...
     f7c:	000f0000 	andeq	r0, pc, r0
     f80:	00010000 	andeq	r0, r1, r0
     f84:	00000f51 	andeq	r0, r0, r1, asr pc
     f88:	00002000 	andeq	r2, r0, r0
     f8c:	55000100 	strpl	r0, [r0, #-256]	; 0x100
	...
     f98:	000000ec 	andeq	r0, r0, ip, ror #1
     f9c:	00000104 	andeq	r0, r0, r4, lsl #2
     fa0:	04500001 	ldrbeq	r0, [r0], #-1
     fa4:	14000001 	strne	r0, [r0], #-1
     fa8:	04000001 	streq	r0, [r0], #-1
     fac:	5001f300 	andpl	pc, r1, r0, lsl #6
     fb0:	0001149f 	muleq	r1, pc, r4	; <UNPREDICTABLE>
     fb4:	00011800 	andeq	r1, r1, r0, lsl #16
     fb8:	50000100 	andpl	r0, r0, r0, lsl #2
     fbc:	00000118 	andeq	r0, r0, r8, lsl r1
     fc0:	00000120 	andeq	r0, r0, r0, lsr #2
     fc4:	01f30004 	mvnseq	r0, r4
     fc8:	00009f50 	andeq	r9, r0, r0, asr pc
     fcc:	00000000 	andeq	r0, r0, r0
     fd0:	00f80000 	rscseq	r0, r8, r0
     fd4:	01040000 	mrseq	r0, (UNDEF: 4)
     fd8:	000b0000 	andeq	r0, fp, r0
     fdc:	25350070 	ldrcs	r0, [r5, #-112]!	; 0x70
     fe0:	8080b423 	addhi	fp, r0, r3, lsr #8
     fe4:	049f0281 	ldreq	r0, [pc], #641	; fec <__code_start__-0x7014>
     fe8:	07000001 	streq	r0, [r0, -r1]
     fec:	01000001 	tsteq	r0, r1
     ff0:	01075000 	mrseq	r5, (UNDEF: 7)
     ff4:	01140000 	tsteq	r4, r0
     ff8:	000c0000 	andeq	r0, ip, r0
     ffc:	355001f3 	ldrbcc	r0, [r0, #-499]	; 0x1f3
    1000:	80b42325 	adcshi	r2, r4, r5, lsr #6
    1004:	9f028180 	svcls	0x00028180
	...
    1010:	000000fc 	strdeq	r0, [r0], -ip
    1014:	00000114 	andeq	r0, r0, r4, lsl r1
    1018:	00540001 	subseq	r0, r4, r1
    101c:	00000000 	andeq	r0, r0, r0
    1020:	d0000000 	andle	r0, r0, r0
    1024:	df000000 	svcle	0x00000000
    1028:	01000000 	mrseq	r0, (UNDEF: 0)
    102c:	00df5000 	sbcseq	r5, pc, r0
    1030:	00e40000 	rsceq	r0, r4, r0
    1034:	00040000 	andeq	r0, r4, r0
    1038:	9f5001f3 	svcls	0x005001f3
    103c:	000000e4 	andeq	r0, r0, r4, ror #1
    1040:	000000e7 	andeq	r0, r0, r7, ror #1
    1044:	e7500001 	ldrb	r0, [r0, -r1]
    1048:	ec000000 	stc	0, cr0, [r0], {-0}
    104c:	04000000 	streq	r0, [r0], #-0
    1050:	5001f300 	andpl	pc, r1, r0, lsl #6
    1054:	0000009f 	muleq	r0, pc, r0	; <UNPREDICTABLE>
    1058:	00000000 	andeq	r0, r0, r0
    105c:	0000d000 	andeq	sp, r0, r0
    1060:	0000df00 	andeq	sp, r0, r0, lsl #30
    1064:	51000100 	mrspl	r0, (UNDEF: 16)
    1068:	000000df 	ldrdeq	r0, [r0], -pc	; <UNPREDICTABLE>
    106c:	000000e4 	andeq	r0, r0, r4, ror #1
    1070:	01f30004 	mvnseq	r0, r4
    1074:	00e49f51 	rsceq	r9, r4, r1, asr pc
    1078:	00e70000 	rsceq	r0, r7, r0
    107c:	00010000 	andeq	r0, r1, r0
    1080:	0000e751 	andeq	lr, r0, r1, asr r7
    1084:	0000ec00 	andeq	lr, r0, r0, lsl #24
    1088:	f3000400 	vshl.u8	d0, d0, d0
    108c:	009f5101 	addseq	r5, pc, r1, lsl #2
    1090:	00000000 	andeq	r0, r0, r0
    1094:	c0000000 	andgt	r0, r0, r0
    1098:	cb000000 	blgt	10a0 <__code_start__-0x6f60>
    109c:	01000000 	mrseq	r0, (UNDEF: 0)
    10a0:	00cb5000 	sbceq	r5, fp, r0
    10a4:	00d00000 	sbcseq	r0, r0, r0
    10a8:	00040000 	andeq	r0, r4, r0
    10ac:	9f5001f3 	svcls	0x005001f3
	...
    10b8:	0000009c 	muleq	r0, ip, r0
    10bc:	000000b4 	strheq	r0, [r0], -r4
    10c0:	b4500001 	ldrblt	r0, [r0], #-1
    10c4:	c0000000 	andgt	r0, r0, r0
    10c8:	04000000 	streq	r0, [r0], #-0
    10cc:	5001f300 	andpl	pc, r1, r0, lsl #6
    10d0:	0000009f 	muleq	r0, pc, r0	; <UNPREDICTABLE>
    10d4:	00000000 	andeq	r0, r0, r0
    10d8:	00007800 	andeq	r7, r0, r0, lsl #16
    10dc:	00009000 	andeq	r9, r0, r0
    10e0:	50000100 	andpl	r0, r0, r0, lsl #2
    10e4:	00000090 	muleq	r0, r0, r0
    10e8:	0000009c 	muleq	r0, ip, r0
    10ec:	01f30004 	mvnseq	r0, r4
    10f0:	00009f50 	andeq	r9, r0, r0, asr pc
    10f4:	00000000 	andeq	r0, r0, r0
    10f8:	00680000 	rsbeq	r0, r8, r0
    10fc:	00730000 	rsbseq	r0, r3, r0
    1100:	00010000 	andeq	r0, r1, r0
    1104:	00007350 	andeq	r7, r0, r0, asr r3
    1108:	00007800 	andeq	r7, r0, r0, lsl #16
    110c:	f3000400 	vshl.u8	d0, d0, d0
    1110:	009f5001 	addseq	r5, pc, r1
	...
    111c:	48000000 	stmdami	r0, {}	; <UNPREDICTABLE>
    1120:	01000000 	mrseq	r0, (UNDEF: 0)
    1124:	00485000 	subeq	r5, r8, r0
    1128:	00680000 	rsbeq	r0, r8, r0
    112c:	00040000 	andeq	r0, r4, r0
    1130:	9f5001f3 	svcls	0x005001f3
	...
    1140:	0000004b 	andeq	r0, r0, fp, asr #32
    1144:	4b510001 	blmi	1441150 <__bss_end__+0x1436b18>
    1148:	68000000 	stmdavs	r0, {}	; <UNPREDICTABLE>
    114c:	04000000 	streq	r0, [r0], #-0
    1150:	5101f300 	mrspl	pc, SP_irq	; <UNPREDICTABLE>
    1154:	0000009f 	muleq	r0, pc, r0	; <UNPREDICTABLE>
    1158:	00000000 	andeq	r0, r0, r0
    115c:	00004c00 	andeq	r4, r0, r0, lsl #24
    1160:	00005400 	andeq	r5, r0, r0, lsl #8
    1164:	50000100 	andpl	r0, r0, r0, lsl #2
    1168:	00000054 	andeq	r0, r0, r4, asr r0
    116c:	00000058 	andeq	r0, r0, r8, asr r0
    1170:	00750009 	rsbseq	r0, r5, r9
    1174:	71240074 	teqvc	r4, r4, ror r0
    1178:	589f2100 	ldmpl	pc, {r8, sp}	; <UNPREDICTABLE>
    117c:	5f000000 	svcpl	0x00000000
    1180:	01000000 	mrseq	r0, (UNDEF: 0)
    1184:	00005100 	andeq	r5, r0, r0, lsl #2
    1188:	00000000 	andeq	r0, r0, r0
	...

Disassembly of section .debug_aranges:

00000000 <.debug_aranges>:
   0:	0000001c 	andeq	r0, r0, ip, lsl r0
   4:	00000002 	andeq	r0, r0, r2
   8:	00040000 	andeq	r0, r4, r0
   c:	00000000 	andeq	r0, r0, r0
  10:	00008020 	andeq	r8, r0, r0, lsr #32
  14:	00000244 	andeq	r0, r0, r4, asr #4
	...
  20:	0000001c 	andeq	r0, r0, ip, lsl r0
  24:	067a0002 	ldrbteq	r0, [sl], -r2
  28:	00040000 	andeq	r0, r4, r0
  2c:	00000000 	andeq	r0, r0, r0
  30:	00008264 	andeq	r8, r0, r4, ror #4
  34:	00000378 	andeq	r0, r0, r8, ror r3
	...
  40:	0000001c 	andeq	r0, r0, ip, lsl r0
  44:	12550002 	subsne	r0, r5, #2
  48:	00040000 	andeq	r0, r4, r0
  4c:	00000000 	andeq	r0, r0, r0
  50:	00008714 	andeq	r8, r0, r4, lsl r7
  54:	00000708 	andeq	r0, r0, r8, lsl #14
	...
  60:	0000001c 	andeq	r0, r0, ip, lsl r0
  64:	20cd0002 	sbccs	r0, sp, r2
  68:	00040000 	andeq	r0, r4, r0
  6c:	00000000 	andeq	r0, r0, r0
  70:	00008e1c 	andeq	r8, r0, ip, lsl lr
  74:	00000058 	andeq	r0, r0, r8, asr r0
	...
  80:	0000001c 	andeq	r0, r0, ip, lsl r0
  84:	22620002 	rsbcs	r0, r2, #2
  88:	00040000 	andeq	r0, r4, r0
  8c:	00000000 	andeq	r0, r0, r0
  90:	00008e74 	andeq	r8, r0, r4, ror lr
  94:	0000003c 	andeq	r0, r0, ip, lsr r0
	...
  a0:	0000001c 	andeq	r0, r0, ip, lsl r0
  a4:	23790002 	cmncs	r9, #2
  a8:	00040000 	andeq	r0, r4, r0
  ac:	00000000 	andeq	r0, r0, r0
  b0:	00008eb0 			; <UNDEFINED> instruction: 0x00008eb0
  b4:	00000034 	andeq	r0, r0, r4, lsr r0
	...
  c0:	0000001c 	andeq	r0, r0, ip, lsl r0
  c4:	246b0002 	strbtcs	r0, [fp], #-2
  c8:	00040000 	andeq	r0, r4, r0
  cc:	00000000 	andeq	r0, r0, r0
  d0:	00008ee4 	andeq	r8, r0, r4, ror #29
  d4:	00000578 	andeq	r0, r0, r8, ror r5
	...
  e0:	0000001c 	andeq	r0, r0, ip, lsl r0
  e4:	2b540002 	blcs	15000f4 <__bss_end__+0x14f5abc>
  e8:	00040000 	andeq	r0, r4, r0
  ec:	00000000 	andeq	r0, r0, r0
  f0:	0000945c 	andeq	r9, r0, ip, asr r4
  f4:	00000020 	andeq	r0, r0, r0, lsr #32
	...
 100:	0000001c 	andeq	r0, r0, ip, lsl r0
 104:	2c100002 	ldccs	0, cr0, [r0], {2}
 108:	00040000 	andeq	r0, r4, r0
 10c:	00000000 	andeq	r0, r0, r0
 110:	0000947c 	andeq	r9, r0, ip, ror r4
 114:	0000002c 	andeq	r0, r0, ip, lsr #32
	...
 120:	0000001c 	andeq	r0, r0, ip, lsl r0
 124:	2d230002 	stccs	0, cr0, [r3, #-8]!
 128:	00040000 	andeq	r0, r4, r0
 12c:	00000000 	andeq	r0, r0, r0
 130:	000094a8 	andeq	r9, r0, r8, lsr #9
 134:	00000038 	andeq	r0, r0, r8, lsr r0
	...
 140:	0000001c 	andeq	r0, r0, ip, lsl r0
 144:	2e360002 	cdpcs	0, 3, cr0, cr6, cr2, {0}
 148:	00040000 	andeq	r0, r4, r0
 14c:	00000000 	andeq	r0, r0, r0
 150:	000094e0 	andeq	r9, r0, r0, ror #9
 154:	00000044 	andeq	r0, r0, r4, asr #32
	...
 160:	0000001c 	andeq	r0, r0, ip, lsl r0
 164:	2f780002 	svccs	0x00780002
 168:	00040000 	andeq	r0, r4, r0
 16c:	00000000 	andeq	r0, r0, r0
 170:	00009524 	andeq	r9, r0, r4, lsr #10
 174:	00000044 	andeq	r0, r0, r4, asr #32
	...
 180:	0000001c 	andeq	r0, r0, ip, lsl r0
 184:	30ba0002 	adcscc	r0, sl, r2
 188:	00040000 	andeq	r0, r4, r0
 18c:	00000000 	andeq	r0, r0, r0
 190:	00009568 	andeq	r9, r0, r8, ror #10
 194:	00000044 	andeq	r0, r0, r4, asr #32
	...
 1a0:	0000001c 	andeq	r0, r0, ip, lsl r0
 1a4:	31fc0002 	mvnscc	r0, r2
 1a8:	00040000 	andeq	r0, r4, r0
 1ac:	00000000 	andeq	r0, r0, r0
 1b0:	000095ac 	andeq	r9, r0, ip, lsr #11
 1b4:	00000008 	andeq	r0, r0, r8
	...
 1c0:	0000001c 	andeq	r0, r0, ip, lsl r0
 1c4:	32980002 	addscc	r0, r8, #2
 1c8:	00040000 	andeq	r0, r4, r0
 1cc:	00000000 	andeq	r0, r0, r0
 1d0:	000095b4 			; <UNDEFINED> instruction: 0x000095b4
 1d4:	0000006c 	andeq	r0, r0, ip, rrx
	...
 1e0:	0000001c 	andeq	r0, r0, ip, lsl r0
 1e4:	34730002 	ldrbtcc	r0, [r3], #-2
 1e8:	00040000 	andeq	r0, r4, r0
 1ec:	00000000 	andeq	r0, r0, r0
 1f0:	00009620 	andeq	r9, r0, r0, lsr #12
 1f4:	00000074 	andeq	r0, r0, r4, ror r0
	...
 200:	0000001c 	andeq	r0, r0, ip, lsl r0
 204:	36240002 	strtcc	r0, [r4], -r2
 208:	00040000 	andeq	r0, r4, r0
 20c:	00000000 	andeq	r0, r0, r0
 210:	00009694 	muleq	r0, r4, r6
 214:	00000098 	muleq	r0, r8, r0
	...
 220:	0000001c 	andeq	r0, r0, ip, lsl r0
 224:	381f0002 	ldmdacc	pc, {r1}	; <UNPREDICTABLE>
 228:	00040000 	andeq	r0, r4, r0
 22c:	00000000 	andeq	r0, r0, r0
 230:	00009790 	muleq	r0, r0, r7
 234:	00000178 	andeq	r0, r0, r8, ror r1
	...
 240:	0000001c 	andeq	r0, r0, ip, lsl r0
 244:	44e80002 	strbtmi	r0, [r8], #2
 248:	00040000 	andeq	r0, r4, r0
 24c:	00000000 	andeq	r0, r0, r0
 250:	00009908 	andeq	r9, r0, r8, lsl #18
 254:	00000120 	andeq	r0, r0, r0, lsr #2
	...

Disassembly of section .debug_line:

00000000 <.debug_line>:
       0:	000001a8 	andeq	r0, r0, r8, lsr #3
       4:	01440002 	cmpeq	r4, r2
       8:	01020000 	mrseq	r0, (UNDEF: 2)
       c:	000d0efb 	strdeq	r0, [sp], -fp
      10:	01010101 	tsteq	r1, r1, lsl #2
      14:	01000000 	mrseq	r0, (UNDEF: 0)
      18:	74010000 	strvc	r0, [r1], #-0
      1c:	73747365 	cmnvc	r4, #-1811939327	; 0x94000001
      20:	00302e32 	eorseq	r2, r0, r2, lsr lr
      24:	6573552f 	ldrbvs	r5, [r3, #-1327]!	; 0x52f
      28:	622f7372 	eorvs	r7, pc, #-939524095	; 0xc8000001
      2c:	6e616972 	mcrvs	9, 3, r6, cr1, cr2, {3}
      30:	2f6e756a 	svccs	0x006e756a
      34:	6b736544 	blvs	1cd954c <__bss_end__+0x1ccef14>
      38:	2f706f74 	svccs	0x00706f74
      3c:	6f686373 	svcvs	0x00686373
      40:	532f6c6f 	teqpl	pc, #28416	; 0x6f00
      44:	6e697270 	mcrvs	2, 3, r7, cr9, cr0, {3}
      48:	32393167 	eorscc	r3, r9, #-1073741799	; 0xc0000019
      4c:	53432f30 	movtpl	r2, #16176	; 0x3f30
      50:	4c303432 	cfldrsmi	mvf3, [r0], #-200	; 0xffffff38
      54:	73632f58 	cmnvc	r3, #88, 30	; 0x160
      58:	6c303432 	cfldrsvs	mvf3, [r0], #-200	; 0xffffff38
      5c:	30322d78 	eorscc	r2, r2, r8, ror sp
      60:	2f727073 	svccs	0x00727073
      64:	7062696c 	rsbvc	r6, r2, ip, ror #18
      68:	6e692f69 	cdpvs	15, 6, cr2, cr9, cr9, {3}
      6c:	64756c63 	ldrbtvs	r6, [r5], #-3171	; 0xc63
      70:	002e0065 	eoreq	r0, lr, r5, rrx
      74:	7273752f 	rsbsvc	r7, r3, #197132288	; 0xbc00000
      78:	636f6c2f 	cmnvs	pc, #12032	; 0x2f00
      7c:	432f6c61 	teqmi	pc, #24832	; 0x6100
      80:	616c6c65 	cmnvs	ip, r5, ror #24
      84:	72612f72 	rsbvc	r2, r1, #456	; 0x1c8
      88:	6f6e2d6d 	svcvs	0x006e2d6d
      8c:	652d656e 	strvs	r6, [sp, #-1390]!	; 0x56e
      90:	2f696261 	svccs	0x00696261
      94:	2e382e34 	mrccs	14, 1, r2, cr8, cr4, {1}
      98:	73632d33 	cmnvc	r3, #3264	; 0xcc0
      9c:	65303731 	ldrvs	r3, [r0, #-1841]!	; 0x731
      a0:	62696c2f 	rsbvs	r6, r9, #12032	; 0x2f00
      a4:	6363672f 	cmnvs	r3, #12320768	; 0xbc0000
      a8:	6d72612f 	ldfvse	f6, [r2, #-188]!	; 0xffffff44
      ac:	6e6f6e2d 	cdpvs	14, 6, cr6, cr15, cr13, {1}
      b0:	61652d65 	cmnvs	r5, r5, ror #26
      b4:	342f6962 	strtcc	r6, [pc], #-2402	; bc <__code_start__-0x7f44>
      b8:	332e382e 	teqcc	lr, #3014656	; 0x2e0000
      bc:	636e692f 	cmnvs	lr, #770048	; 0xbc000
      c0:	6564756c 	strbvs	r7, [r4, #-1388]!	; 0x56c
      c4:	36310000 	ldrtcc	r0, [r1], -r0
      c8:	7261702d 	rsbvc	r7, r1, #45	; 0x2d
      cc:	742d3274 	strtvc	r3, [sp], #-628	; 0x274
      d0:	32747365 	rsbscc	r7, r4, #-1811939327	; 0x94000001
      d4:	0100632e 	tsteq	r0, lr, lsr #6
      d8:	70720000 	rsbsvc	r0, r2, r0
      dc:	6e692d69 	cdpvs	13, 6, cr2, cr9, cr9, {3}
      e0:	72726574 	rsbsvc	r6, r2, #116, 10	; 0x1d000000
      e4:	73747075 	cmnvc	r4, #117	; 0x75
      e8:	0200682e 	andeq	r6, r0, #3014656	; 0x2e0000
      ec:	69620000 	stmdbvs	r2!, {}^	; <UNPREDICTABLE>
      f0:	75732d74 	ldrbvc	r2, [r3, #-3444]!	; 0xd74
      f4:	726f7070 	rsbvc	r7, pc, #112	; 0x70
      f8:	00682e74 	rsbeq	r2, r8, r4, ror lr
      fc:	63000003 	movwvs	r0, #3
     100:	2d727370 	ldclcs	3, cr7, [r2, #-448]!	; 0xfffffe40
     104:	6c697475 	cfstrdvs	mvd7, [r9], #-468	; 0xfffffe2c
     108:	0300682e 	movweq	r6, #2094	; 0x82e
     10c:	70630000 	rsbvc	r0, r3, r0
     110:	642d3431 	strtvs	r3, [sp], #-1073	; 0x431
     114:	67756265 	ldrbvs	r6, [r5, -r5, ror #4]!
     118:	0300682e 	movweq	r6, #2094	; 0x82e
     11c:	68630000 	stmdavs	r3!, {}^	; <UNPREDICTABLE>
     120:	2d6b6365 	stclcs	3, cr6, [fp, #-404]!	; 0xfffffe6c
     124:	65746e69 	ldrbvs	r6, [r4, #-3689]!	; 0xe69
     128:	61656c72 	smcvs	22210	; 0x56c2
     12c:	682e6576 	stmdavs	lr!, {r1, r2, r4, r5, r6, r8, sl, sp, lr}
     130:	00000300 	andeq	r0, r0, r0, lsl #6
     134:	69647473 	stmdbvs	r4!, {r0, r1, r4, r5, r6, sl, ip, sp, lr}^
     138:	672d746e 	strvs	r7, [sp, -lr, ror #8]!
     13c:	682e6363 	stmdavs	lr!, {r0, r1, r5, r6, r8, r9, sp, lr}
     140:	00000400 	andeq	r0, r0, r0, lsl #8
     144:	2e697072 	mcrcs	0, 3, r7, cr9, cr2, {3}
     148:	00020068 	andeq	r0, r2, r8, rrx
     14c:	05000000 	streq	r0, [r0, #-0]
     150:	00802002 	addeq	r2, r0, r2
     154:	02041700 	andeq	r1, r4, #0, 14
     158:	044a2203 	strbeq	r2, [sl], #-515	; 0x203
     15c:	2e780303 	cdpcs	3, 7, cr0, cr8, cr3, {0}
     160:	6c030404 	cfstrsvs	mvf0, [r3], {4}
     164:	0867652e 	stmdaeq	r7!, {r1, r2, r3, r5, r8, sl, sp, lr}^
     168:	03010425 	movweq	r0, #5157	; 0x1425
     16c:	00580875 	subseq	r0, r8, r5, ror r8
     170:	06010402 	streq	r0, [r1], -r2, lsl #8
     174:	0620084a 	strteq	r0, [r0], -sl, asr #16
     178:	4b012108 	blmi	485a0 <__bss_end__+0x3df68>
     17c:	134c012f 	movtne	r0, #49455	; 0xc12f
     180:	a0192e02 	andsge	r2, r9, r2, lsl #28
     184:	0305044c 	movweq	r0, #21580	; 0x544c
     188:	042e01ac 	strteq	r0, [lr], #-428	; 0x1ac
     18c:	7ed70301 	cdpvc	3, 13, cr0, cr7, cr1, {0}
     190:	00834c66 	addeq	r4, r3, r6, ror #24
     194:	06010402 	streq	r0, [r1], -r2, lsl #8
     198:	21080666 	tstcs	r8, r6, ror #12
     19c:	02005b08 	andeq	r5, r0, #8, 22	; 0x2000
     1a0:	66060104 	strvs	r0, [r6], -r4, lsl #2
     1a4:	02210806 	eoreq	r0, r1, #393216	; 0x60000
     1a8:	0101001e 	tsteq	r1, lr, lsl r0
     1ac:	000001f4 	strdeq	r0, [r0], -r4
     1b0:	00ff0002 	rscseq	r0, pc, r2
     1b4:	01020000 	mrseq	r0, (UNDEF: 2)
     1b8:	000d0efb 	strdeq	r0, [sp], -fp
     1bc:	01010101 	tsteq	r1, r1, lsl #2
     1c0:	01000000 	mrseq	r0, (UNDEF: 0)
     1c4:	2f010000 	svccs	0x00010000
     1c8:	2f727375 	svccs	0x00727375
     1cc:	61636f6c 	cmnvs	r3, ip, ror #30
     1d0:	65432f6c 	strbvs	r2, [r3, #-3948]	; 0xf6c
     1d4:	72616c6c 	rsbvc	r6, r1, #108, 24	; 0x6c00
     1d8:	6d72612f 	ldfvse	f6, [r2, #-188]!	; 0xffffff44
     1dc:	6e6f6e2d 	cdpvs	14, 6, cr6, cr15, cr13, {1}
     1e0:	61652d65 	cmnvs	r5, r5, ror #26
     1e4:	342f6962 	strtcc	r6, [pc], #-2402	; 1ec <__code_start__-0x7e14>
     1e8:	332e382e 	teqcc	lr, #3014656	; 0x2e0000
     1ec:	3173632d 	cmncc	r3, sp, lsr #6
     1f0:	2f653037 	svccs	0x00653037
     1f4:	2f62696c 	svccs	0x0062696c
     1f8:	2f636367 	svccs	0x00636367
     1fc:	2d6d7261 	sfmcs	f7, 2, [sp, #-388]!	; 0xfffffe7c
     200:	656e6f6e 	strbvs	r6, [lr, #-3950]!	; 0xf6e
     204:	6261652d 	rsbvs	r6, r1, #188743680	; 0xb400000
     208:	2e342f69 	cdpcs	15, 3, cr2, cr4, cr9, {3}
     20c:	2f332e38 	svccs	0x00332e38
     210:	6c636e69 	stclvs	14, cr6, [r3], #-420	; 0xfffffe5c
     214:	00656475 	rsbeq	r6, r5, r5, ror r4
     218:	6573552f 	ldrbvs	r5, [r3, #-1327]!	; 0x52f
     21c:	622f7372 	eorvs	r7, pc, #-939524095	; 0xc8000001
     220:	6e616972 	mcrvs	9, 3, r6, cr1, cr2, {3}
     224:	2f6e756a 	svccs	0x006e756a
     228:	6b736544 	blvs	1cd9740 <__bss_end__+0x1ccf108>
     22c:	2f706f74 	svccs	0x00706f74
     230:	6f686373 	svcvs	0x00686373
     234:	532f6c6f 	teqpl	pc, #28416	; 0x6f00
     238:	6e697270 	mcrvs	2, 3, r7, cr9, cr0, {3}
     23c:	32393167 	eorscc	r3, r9, #-1073741799	; 0xc0000019
     240:	53432f30 	movtpl	r2, #16176	; 0x3f30
     244:	4c303432 	cfldrsmi	mvf3, [r0], #-200	; 0xffffff38
     248:	73632f58 	cmnvc	r3, #88, 30	; 0x160
     24c:	6c303432 	cfldrsvs	mvf3, [r0], #-200	; 0xffffff38
     250:	30322d78 	eorscc	r2, r2, r8, ror sp
     254:	2f727073 	svccs	0x00727073
     258:	7062696c 	rsbvc	r6, r2, ip, ror #18
     25c:	6e692f69 	cdpvs	15, 6, cr2, cr9, cr9, {3}
     260:	64756c63 	ldrbtvs	r6, [r5], #-3171	; 0xc63
     264:	63000065 	movwvs	r0, #101	; 0x65
     268:	2d343170 	ldfcss	f3, [r4, #-448]!	; 0xfffffe40
     26c:	75626564 	strbvc	r6, [r2, #-1380]!	; 0x564
     270:	00632e67 	rsbeq	r2, r3, r7, ror #28
     274:	63000000 	movwvs	r0, #0
     278:	2d343170 	ldfcss	f3, [r4, #-448]!	; 0xfffffe40
     27c:	75626564 	strbvc	r6, [r2, #-1380]!	; 0x564
     280:	00682e67 	rsbeq	r2, r8, r7, ror #28
     284:	73000000 	movwvc	r0, #0
     288:	6e696474 	mcrvs	4, 3, r6, cr9, cr4, {3}
     28c:	63672d74 	cmnvs	r7, #116, 26	; 0x1d00
     290:	00682e63 	rsbeq	r2, r8, r3, ror #28
     294:	72000001 	andvc	r0, r0, #1
     298:	682e6970 	stmdavs	lr!, {r4, r5, r6, r8, fp, sp, lr}
     29c:	00000200 	andeq	r0, r0, r0, lsl #4
     2a0:	2d697072 	stclcs	0, cr7, [r9, #-456]!	; 0xfffffe38
     2a4:	65746e69 	ldrbvs	r6, [r4, #-3689]!	; 0xe69
     2a8:	70757272 	rsbsvc	r7, r5, r2, ror r2
     2ac:	682e7374 	stmdavs	lr!, {r2, r4, r5, r6, r8, r9, ip, sp, lr}
     2b0:	00000200 	andeq	r0, r0, r0, lsl #4
     2b4:	02050000 	andeq	r0, r5, #0
     2b8:	00008264 	andeq	r8, r0, r4, ror #4
     2bc:	03013503 	movweq	r3, #5379	; 0x1503
     2c0:	24034a62 	strcs	r4, [r3], #-2658	; 0xa62
     2c4:	2e62032e 	cdpcs	3, 6, cr0, cr2, cr14, {1}
     2c8:	032e7a03 	teqeq	lr, #12288	; 0x3000
     2cc:	02002e29 	andeq	r2, r0, #656	; 0x290
     2d0:	4a060104 	bmi	1806e8 <__bss_end__+0x1760b0>
     2d4:	08650306 	stmdaeq	r5!, {r1, r2, r8, r9}^
     2d8:	2e780320 	cdpcs	3, 7, cr0, cr8, cr0, {1}
     2dc:	034a7a03 	movteq	r7, #43523	; 0xaa03
     2e0:	02002e3a 	andeq	r2, r0, #928	; 0x3a0
     2e4:	4a060104 	bmi	1806fc <__bss_end__+0x1760c4>
     2e8:	7fbb0306 	svcvc	0x00bb0306
     2ec:	c8032008 	stmdagt	r3, {r3, sp}
     2f0:	f54b4a00 			; <UNDEFINED> instruction: 0xf54b4a00
     2f4:	036c0204 	cmneq	ip, #4, 4	; 0x40000000
     2f8:	4b344a13 	blmi	d12b4c <__bss_end__+0xd08514>
     2fc:	04d65d03 	ldrbeq	r5, [r6], #3331	; 0xd03
     300:	2e110301 	cdpcs	3, 1, cr0, cr1, cr1, {0}
     304:	01040200 	mrseq	r0, R12_usr
     308:	08066606 	stmdaeq	r6, {r1, r2, r9, sl, sp, lr}
     30c:	04020022 	streq	r0, [r2], #-34	; 0x22
     310:	04820601 	streq	r0, [r2], #1537	; 0x601
     314:	7a030602 	bvc	c1b24 <__bss_end__+0xb74ec>
     318:	01042008 	tsteq	r4, r8
     31c:	4b2e0c03 	blmi	b83330 <__bss_end__+0xb78cf8>
     320:	83315a08 	teqhi	r1, #8, 20	; 0x8000
     324:	7fbb032f 	svcvc	0x00bb032f
     328:	4a5b0366 	bmi	16c10c8 <__bss_end__+0x16b6a90>
     32c:	82019b03 	andhi	r9, r1, #3072	; 0xc00
     330:	03016503 	movweq	r6, #5379	; 0x1503
     334:	62032e1f 	andvs	r2, r3, #496	; 0x1f0
     338:	03302c2e 	teqeq	r0, #11776	; 0x2e00
     33c:	034a7eff 	movteq	r7, #44799	; 0xaeff
     340:	a24a01b3 	subge	r0, sl, #-1073741780	; 0xc000002c
     344:	62030204 	andvs	r0, r3, #4, 4	; 0x40000000
     348:	01043366 	tsteq	r4, r6, ror #6
     34c:	4b2e1b03 	blmi	b86f60 <__bss_end__+0xb7c928>
     350:	040200d7 	streq	r0, [r2], #-215	; 0xd7
     354:	04820601 	streq	r0, [r2], #1537	; 0x601
     358:	4f030602 	svcmi	0x00030602
     35c:	01042008 	tsteq	r4, r8
     360:	4b2e3303 	blmi	b8cf74 <__bss_end__+0xb8293c>
     364:	2e0b03f4 	mcrcs	3, 0, r0, cr11, cr4, {7}
     368:	3f082f01 	svccc	0x00082f01
     36c:	017fb103 	cmneq	pc, r3, lsl #2
     370:	2e00d303 	cdpcs	3, 0, cr13, cr0, cr3, {0}
     374:	2e7fae03 	cdpcs	14, 7, cr10, cr15, cr3, {0}
     378:	ff03302c 			; <UNDEFINED> instruction: 0xff03302c
     37c:	e7034a7e 	smlsdx	r3, lr, sl, r4
     380:	03a24a01 			; <UNDEFINED> instruction: 0x03a24a01
     384:	03017f96 	movweq	r7, #8086	; 0x1f96
     388:	318200fb 	strdcc	r0, [r2, fp]
     38c:	10034b4b 	andne	r4, r3, fp, asr #22
     390:	4a71032e 	bmi	1c41050 <__bss_end__+0x1c36a18>
     394:	324b674c 	subcc	r6, fp, #76, 14	; 0x1300000
     398:	7703694e 	strvc	r6, [r3, -lr, asr #18]
     39c:	02354d4a 	eorseq	r4, r5, #4736	; 0x1280
     3a0:	01010004 	tsteq	r1, r4
     3a4:	00000257 	andeq	r0, r0, r7, asr r2
     3a8:	013b0002 	teqeq	fp, r2
     3ac:	01020000 	mrseq	r0, (UNDEF: 2)
     3b0:	000d0efb 	strdeq	r0, [sp], -fp
     3b4:	01010101 	tsteq	r1, r1, lsl #2
     3b8:	01000000 	mrseq	r0, (UNDEF: 0)
     3bc:	2f010000 	svccs	0x00010000
     3c0:	72657355 	rsbvc	r7, r5, #1409286145	; 0x54000001
     3c4:	72622f73 	rsbvc	r2, r2, #460	; 0x1cc
     3c8:	6a6e6169 	bvs	1b98974 <__bss_end__+0x1b8e33c>
     3cc:	442f6e75 	strtmi	r6, [pc], #-3701	; 3d4 <__code_start__-0x7c2c>
     3d0:	746b7365 	strbtvc	r7, [fp], #-869	; 0x365
     3d4:	732f706f 	teqvc	pc, #111	; 0x6f
     3d8:	6f6f6863 	svcvs	0x006f6863
     3dc:	70532f6c 	subsvc	r2, r3, ip, ror #30
     3e0:	676e6972 			; <UNDEFINED> instruction: 0x676e6972
     3e4:	30323931 	eorscc	r3, r2, r1, lsr r9
     3e8:	3253432f 	subscc	r4, r3, #-1140850688	; 0xbc000000
     3ec:	584c3034 	stmdapl	ip, {r2, r4, r5, ip, sp}^
     3f0:	3273632f 	rsbscc	r6, r3, #-1140850688	; 0xbc000000
     3f4:	786c3034 	stmdavc	ip!, {r2, r4, r5, ip, sp}^
     3f8:	7330322d 	teqvc	r0, #-805306366	; 0xd0000002
     3fc:	6c2f7270 	sfmvs	f7, 4, [pc], #-448	; 244 <__code_start__-0x7dbc>
     400:	69706269 	ldmdbvs	r0!, {r0, r3, r5, r6, r9, sp, lr}^
     404:	636e692f 	cmnvs	lr, #770048	; 0xbc000
     408:	6564756c 	strbvs	r7, [r4, #-1388]!	; 0x56c
     40c:	73752f00 	cmnvc	r5, #0, 30
     410:	6f6c2f72 	svcvs	0x006c2f72
     414:	2f6c6163 	svccs	0x006c6163
     418:	6c6c6543 	cfstr64vs	mvdx6, [ip], #-268	; 0xfffffef4
     41c:	612f7261 	teqvs	pc, r1, ror #4
     420:	6e2d6d72 	mcrvs	13, 1, r6, cr13, cr2, {3}
     424:	2d656e6f 	stclcs	14, cr6, [r5, #-444]!	; 0xfffffe44
     428:	69626165 	stmdbvs	r2!, {r0, r2, r5, r6, r8, sp, lr}^
     42c:	382e342f 	stmdacc	lr!, {r0, r1, r2, r3, r5, sl, ip, sp}
     430:	632d332e 	teqvs	sp, #-1207959552	; 0xb8000000
     434:	30373173 	eorscc	r3, r7, r3, ror r1
     438:	696c2f65 	stmdbvs	ip!, {r0, r2, r5, r6, r8, r9, sl, fp, sp}^
     43c:	63672f62 	cmnvs	r7, #392	; 0x188
     440:	72612f63 	rsbvc	r2, r1, #396	; 0x18c
     444:	6f6e2d6d 	svcvs	0x006e2d6d
     448:	652d656e 	strvs	r6, [sp, #-1390]!	; 0x56e
     44c:	2f696261 	svccs	0x00696261
     450:	2e382e34 	mrccs	14, 1, r2, cr8, cr4, {1}
     454:	6e692f33 	mcrvs	15, 3, r2, cr9, cr3, {1}
     458:	64756c63 	ldrbtvs	r6, [r5], #-3171	; 0xc63
     45c:	63000065 	movwvs	r0, #101	; 0x65
     460:	6b636568 	blvs	18d9a08 <__bss_end__+0x18cf3d0>
     464:	746e692d 	strbtvc	r6, [lr], #-2349	; 0x92d
     468:	656c7265 	strbvs	r7, [ip, #-613]!	; 0x265
     46c:	2e657661 	cdpcs	6, 6, cr7, cr5, cr1, {3}
     470:	00000063 	andeq	r0, r0, r3, rrx
     474:	31706300 	cmncc	r0, r0, lsl #6
     478:	65642d34 	strbvs	r2, [r4, #-3380]!	; 0xd34
     47c:	2e677562 	cdpcs	5, 6, cr7, cr7, cr2, {3}
     480:	00000068 	andeq	r0, r0, r8, rrx
     484:	69707200 	ldmdbvs	r0!, {r9, ip, sp, lr}^
     488:	746e692d 	strbtvc	r6, [lr], #-2349	; 0x92d
     48c:	75727265 	ldrbvc	r7, [r2, #-613]!	; 0x265
     490:	2e737470 	mrccs	4, 3, r7, cr3, cr0, {3}
     494:	00010068 	andeq	r0, r1, r8, rrx
     498:	74696200 	strbtvc	r6, [r9], #-512	; 0x200
     49c:	7075732d 	rsbsvc	r7, r5, sp, lsr #6
     4a0:	74726f70 	ldrbtvc	r6, [r2], #-3952	; 0xf70
     4a4:	0000682e 	andeq	r6, r0, lr, lsr #16
     4a8:	70630000 	rsbvc	r0, r3, r0
     4ac:	752d7273 	strvc	r7, [sp, #-627]!	; 0x273
     4b0:	2e6c6974 	mcrcs	9, 3, r6, cr12, cr4, {3}
     4b4:	00000068 	andeq	r0, r0, r8, rrx
     4b8:	64747300 	ldrbtvs	r7, [r4], #-768	; 0x300
     4bc:	2d746e69 	ldclcs	14, cr6, [r4, #-420]!	; 0xfffffe5c
     4c0:	2e636367 	cdpcs	3, 6, cr6, cr3, cr7, {3}
     4c4:	00020068 	andeq	r0, r2, r8, rrx
     4c8:	65686300 	strbvs	r6, [r8, #-768]!	; 0x300
     4cc:	692d6b63 	pushvs	{r0, r1, r5, r6, r8, r9, fp, sp, lr}
     4d0:	7265746e 	rsbvc	r7, r5, #1845493760	; 0x6e000000
     4d4:	7661656c 	strbtvc	r6, [r1], -ip, ror #10
     4d8:	00682e65 	rsbeq	r2, r8, r5, ror #28
     4dc:	72000000 	andvc	r0, r0, #0
     4e0:	682e6970 	stmdavs	lr!, {r4, r5, r6, r8, fp, sp, lr}
     4e4:	00000100 	andeq	r0, r0, r0, lsl #2
     4e8:	02050000 	andeq	r0, r5, #0
     4ec:	00008714 	andeq	r8, r0, r4, lsl r7
     4f0:	67010a03 	strvs	r0, [r1, -r3, lsl #20]
     4f4:	01040200 	mrseq	r0, R12_usr
     4f8:	02048206 	andeq	r8, r4, #1610612736	; 0x60000000
     4fc:	019a0306 	orrseq	r0, sl, r6, lsl #6
     500:	010433ba 			; <UNDEFINED> instruction: 0x010433ba
     504:	2e7ee203 	cdpcs	2, 7, cr14, cr14, cr3, {0}
     508:	834dd84b 	movthi	sp, #55371	; 0xd84b
     50c:	2f4ba383 	svccs	0x004ba383
     510:	304b674b 	subcc	r6, fp, fp, asr #14
     514:	04020068 	streq	r0, [r2], #-104	; 0x68
     518:	06820601 	streq	r0, [r2], r1, lsl #12
     51c:	00682108 	rsbeq	r2, r8, r8, lsl #2
     520:	06010402 	streq	r0, [r1], -r2, lsl #8
     524:	67bb0682 	ldrvs	r0, [fp, r2, lsl #13]!
     528:	01040200 	mrseq	r0, R12_usr
     52c:	bb068206 	bllt	1a0d4c <__bss_end__+0x196714>
     530:	0304ca08 	movweq	ip, #18952	; 0x4a08
     534:	31040463 	tstcc	r4, r3, ror #8
     538:	6b030504 	blvs	c1950 <__bss_end__+0xb7318>
     53c:	0301042e 	movweq	r0, #5166	; 0x142e
     540:	4e4b2e19 	mcrmi	14, 2, r2, cr11, cr9, {0}
     544:	00682a84 	rsbeq	r2, r8, r4, lsl #21
     548:	06010402 	streq	r0, [r1], -r2, lsl #8
     54c:	6ad80666 	bvs	ff601eec <__bss_end__+0xff5f78b4>
     550:	84314b67 	ldrthi	r4, [r1], #-2919	; 0xb67
     554:	849f6967 	ldrhi	r6, [pc], #2407	; 55c <__code_start__-0x7aa4>
     558:	04686869 	strbteq	r6, [r8], #-2153	; 0x869
     55c:	82510304 	subshi	r0, r1, #4, 6	; 0x10000000
     560:	6c030504 	cfstr32vs	mvfx0, [r3], {4}
     564:	0867652e 	stmdaeq	r7!, {r1, r2, r3, r5, r8, sl, sp, lr}^
     568:	02600825 	rsbeq	r0, r0, #2424832	; 0x250000
     56c:	4b4b1528 	blmi	12c5a14 <__bss_end__+0x12bb3dc>
     570:	034b4b4b 	movteq	r4, #47947	; 0xbb4b
     574:	044bf279 	strbeq	pc, [fp], #-633	; 0x279	; <UNPREDICTABLE>
     578:	2e380301 	cdpcs	3, 3, cr0, cr8, cr1, {0}
     57c:	55030304 	strpl	r0, [r3, #-772]	; 0x304
     580:	03040466 	movweq	r0, #17510	; 0x4466
     584:	05042e78 	streq	r2, [r4, #-3704]	; 0xe78
     588:	652e6c03 	strvs	r6, [lr, #-3075]!	; 0xc03
     58c:	08250867 	stmdaeq	r5!, {r0, r1, r2, r5, r6, fp}
     590:	15280260 	strne	r0, [r8, #-608]!	; 0x260
     594:	4b4b4b4b 	blmi	12d32c8 <__bss_end__+0x12c8c90>
     598:	f279034b 	vcgt.s<illegal width 64>	q8, <illegal reg q4.5>, <illegal reg q5.5>
     59c:	0303044b 	movweq	r0, #13387	; 0x344b
     5a0:	01042e0d 	tsteq	r4, sp, lsl #28
     5a4:	4c2e2c03 	stcmi	12, cr2, [lr], #-12
     5a8:	4a030404 	bmi	c15c0 <__bss_end__+0xb6f88>
     5ac:	0305044a 	movweq	r0, #21578	; 0x544a
     5b0:	67652e6c 	strbvs	r2, [r5, -ip, ror #28]!
     5b4:	03042508 	movweq	r2, #17672	; 0x4508
     5b8:	58081703 	stmdapl	r8, {r0, r1, r8, r9, sl, ip}
     5bc:	78030404 	stmdavc	r3, {r2, sl}
     5c0:	0305042e 	movweq	r0, #21550	; 0x542e
     5c4:	67652e6c 	strbvs	r2, [r5, -ip, ror #28]!
     5c8:	01042508 	tsteq	r4, r8, lsl #10
     5cc:	0800c703 	stmdaeq	r0, {r0, r1, r8, r9, sl, lr, pc}
     5d0:	04020058 	streq	r0, [r2], #-88	; 0x58
     5d4:	064a0601 	strbeq	r0, [sl], -r1, lsl #12
     5d8:	2f4c2408 	svccs	0x004c2408
     5dc:	03173a02 	tsteq	r7, #8192	; 0x2000
     5e0:	1a4d0117 	bne	1340a44 <__bss_end__+0x133640c>
     5e4:	2d2d2d49 	stccs	13, cr2, [sp, #-292]!	; 0xfffffedc
     5e8:	032d2d2d 	teqeq	sp, #2880	; 0xb40
     5ec:	2f4b4a0a 	svccs	0x004b4a0a
     5f0:	0402004b 	streq	r0, [r2], #-75	; 0x4b
     5f4:	82820601 	addhi	r0, r2, #1048576	; 0x100000
     5f8:	02029f06 	andeq	r9, r2, #6, 30
     5fc:	0c010100 	stfeqs	f0, [r1], {-0}
     600:	02000001 	andeq	r0, r0, #1
     604:	0000f500 	andeq	pc, r0, r0, lsl #10
     608:	fb010200 	blx	40e12 <__bss_end__+0x367da>
     60c:	01000d0e 	tsteq	r0, lr, lsl #26
     610:	00010101 	andeq	r0, r1, r1, lsl #2
     614:	00010000 	andeq	r0, r1, r0
     618:	696c0100 	stmdbvs	ip!, {r8}^
     61c:	2f006362 	svccs	0x00006362
     620:	2f727375 	svccs	0x00727375
     624:	61636f6c 	cmnvs	r3, ip, ror #30
     628:	65432f6c 	strbvs	r2, [r3, #-3948]	; 0xf6c
     62c:	72616c6c 	rsbvc	r6, r1, #108, 24	; 0x6c00
     630:	6d72612f 	ldfvse	f6, [r2, #-188]!	; 0xffffff44
     634:	6e6f6e2d 	cdpvs	14, 6, cr6, cr15, cr13, {1}
     638:	61652d65 	cmnvs	r5, r5, ror #26
     63c:	342f6962 	strtcc	r6, [pc], #-2402	; 644 <__code_start__-0x79bc>
     640:	332e382e 	teqcc	lr, #3014656	; 0x2e0000
     644:	3173632d 	cmncc	r3, sp, lsr #6
     648:	2f653037 	svccs	0x00653037
     64c:	2f62696c 	svccs	0x0062696c
     650:	2f636367 	svccs	0x00636367
     654:	2d6d7261 	sfmcs	f7, 2, [sp, #-388]!	; 0xfffffe7c
     658:	656e6f6e 	strbvs	r6, [lr, #-3950]!	; 0xf6e
     65c:	6261652d 	rsbvs	r6, r1, #188743680	; 0xb400000
     660:	2e342f69 	cdpcs	15, 3, cr2, cr4, cr9, {3}
     664:	2f332e38 	svccs	0x00332e38
     668:	6c636e69 	stclvs	14, cr6, [r3], #-420	; 0xfffffe5c
     66c:	00656475 	rsbeq	r6, r5, r5, ror r4
     670:	6573552f 	ldrbvs	r5, [r3, #-1327]!	; 0x52f
     674:	622f7372 	eorvs	r7, pc, #-939524095	; 0xc8000001
     678:	6e616972 	mcrvs	9, 3, r6, cr1, cr2, {3}
     67c:	2f6e756a 	svccs	0x006e756a
     680:	6b736544 	blvs	1cd9b98 <__bss_end__+0x1ccf560>
     684:	2f706f74 	svccs	0x00706f74
     688:	6f686373 	svcvs	0x00686373
     68c:	532f6c6f 	teqpl	pc, #28416	; 0x6f00
     690:	6e697270 	mcrvs	2, 3, r7, cr9, cr0, {3}
     694:	32393167 	eorscc	r3, r9, #-1073741799	; 0xc0000019
     698:	53432f30 	movtpl	r2, #16176	; 0x3f30
     69c:	4c303432 	cfldrsmi	mvf3, [r0], #-200	; 0xffffff38
     6a0:	73632f58 	cmnvc	r3, #88, 30	; 0x160
     6a4:	6c303432 	cfldrsvs	mvf3, [r0], #-200	; 0xffffff38
     6a8:	30322d78 	eorscc	r2, r2, r8, ror sp
     6ac:	2f727073 	svccs	0x00727073
     6b0:	7062696c 	rsbvc	r6, r2, ip, ror #18
     6b4:	6e692f69 	cdpvs	15, 6, cr2, cr9, cr9, {3}
     6b8:	64756c63 	ldrbtvs	r6, [r5], #-3171	; 0xc63
     6bc:	70000065 	andvc	r0, r0, r5, rrx
     6c0:	746e6972 	strbtvc	r6, [lr], #-2418	; 0x972
     6c4:	00632e6b 	rsbeq	r2, r3, fp, ror #28
     6c8:	73000001 	movwvc	r0, #1
     6cc:	72616474 	rsbvc	r6, r1, #116, 8	; 0x74000000
     6d0:	00682e67 	rsbeq	r2, r8, r7, ror #28
     6d4:	3c000002 	stccc	0, cr0, [r0], {2}
     6d8:	6c697562 	cfstr64vs	mvdx7, [r9], #-392	; 0xfffffe78
     6dc:	6e692d74 	mcrvs	13, 3, r2, cr9, cr4, {3}
     6e0:	0000003e 	andeq	r0, r0, lr, lsr r0
     6e4:	69707200 	ldmdbvs	r0!, {r9, ip, sp, lr}^
     6e8:	0300682e 	movweq	r6, #2094	; 0x82e
     6ec:	61760000 	cmnvs	r6, r0
     6f0:	6972702d 	ldmdbvs	r2!, {r0, r2, r3, r5, ip, sp, lr}^
     6f4:	2e6b746e 	cdpcs	4, 6, cr7, cr11, cr14, {3}
     6f8:	00010068 	andeq	r0, r1, r8, rrx
     6fc:	05000000 	streq	r0, [r0, #-0]
     700:	008e1c02 	addeq	r1, lr, r2, lsl #24
     704:	4b6b1700 	blmi	1ac630c <__bss_end__+0x1abbcd4>
     708:	0e0289bf 	mcreq	9, 0, r8, cr2, cr15, {5}
     70c:	94010100 	strls	r0, [r1], #-256	; 0x100
     710:	02000000 	andeq	r0, r0, #0
     714:	00007c00 	andeq	r7, r0, r0, lsl #24
     718:	fb010200 	blx	40f22 <__bss_end__+0x368ea>
     71c:	01000d0e 	tsteq	r0, lr, lsl #26
     720:	00010101 	andeq	r0, r1, r1, lsl #2
     724:	00010000 	andeq	r0, r1, r0
     728:	696c0100 	stmdbvs	ip!, {r8}^
     72c:	2f006362 	svccs	0x00006362
     730:	72657355 	rsbvc	r7, r5, #1409286145	; 0x54000001
     734:	72622f73 	rsbvc	r2, r2, #460	; 0x1cc
     738:	6a6e6169 	bvs	1b98ce4 <__bss_end__+0x1b8e6ac>
     73c:	442f6e75 	strtmi	r6, [pc], #-3701	; 744 <__code_start__-0x78bc>
     740:	746b7365 	strbtvc	r7, [fp], #-869	; 0x365
     744:	732f706f 	teqvc	pc, #111	; 0x6f
     748:	6f6f6863 	svcvs	0x006f6863
     74c:	70532f6c 	subsvc	r2, r3, ip, ror #30
     750:	676e6972 			; <UNDEFINED> instruction: 0x676e6972
     754:	30323931 	eorscc	r3, r2, r1, lsr r9
     758:	3253432f 	subscc	r4, r3, #-1140850688	; 0xbc000000
     75c:	584c3034 	stmdapl	ip, {r2, r4, r5, ip, sp}^
     760:	3273632f 	rsbscc	r6, r3, #-1140850688	; 0xbc000000
     764:	786c3034 	stmdavc	ip!, {r2, r4, r5, ip, sp}^
     768:	7330322d 	teqvc	r0, #-805306366	; 0xd0000002
     76c:	6c2f7270 	sfmvs	f7, 4, [pc], #-448	; 5b4 <__code_start__-0x7a4c>
     770:	69706269 	ldmdbvs	r0!, {r0, r3, r5, r6, r9, sp, lr}^
     774:	636e692f 	cmnvs	lr, #770048	; 0xbc000
     778:	6564756c 	strbvs	r7, [r4, #-1388]!	; 0x56c
     77c:	75700000 	ldrbvc	r0, [r0, #-0]!
     780:	61686374 	smcvs	34356	; 0x8634
     784:	00632e72 	rsbeq	r2, r3, r2, ror lr
     788:	72000001 	andvc	r0, r0, #1
     78c:	682e6970 	stmdavs	lr!, {r4, r5, r6, r8, fp, sp, lr}
     790:	00000200 	andeq	r0, r0, r0, lsl #4
     794:	02050000 	andeq	r0, r5, #0
     798:	00008e74 	andeq	r8, r0, r4, ror lr
     79c:	136b4a14 	cmnne	fp, #20, 20	; 0x14000
     7a0:	080213bc 	stmdaeq	r2, {r2, r3, r4, r5, r7, r8, r9, ip}
     7a4:	a0010100 	andge	r0, r1, r0, lsl #2
     7a8:	02000000 	andeq	r0, r0, #0
     7ac:	00007900 	andeq	r7, r0, r0, lsl #18
     7b0:	fb010200 	blx	40fba <__bss_end__+0x36982>
     7b4:	01000d0e 	tsteq	r0, lr, lsl #26
     7b8:	00010101 	andeq	r0, r1, r1, lsl #2
     7bc:	00010000 	andeq	r0, r1, r0
     7c0:	696c0100 	stmdbvs	ip!, {r8}^
     7c4:	2f006362 	svccs	0x00006362
     7c8:	72657355 	rsbvc	r7, r5, #1409286145	; 0x54000001
     7cc:	72622f73 	rsbvc	r2, r2, #460	; 0x1cc
     7d0:	6a6e6169 	bvs	1b98d7c <__bss_end__+0x1b8e744>
     7d4:	442f6e75 	strtmi	r6, [pc], #-3701	; 7dc <__code_start__-0x7824>
     7d8:	746b7365 	strbtvc	r7, [fp], #-869	; 0x365
     7dc:	732f706f 	teqvc	pc, #111	; 0x6f
     7e0:	6f6f6863 	svcvs	0x006f6863
     7e4:	70532f6c 	subsvc	r2, r3, ip, ror #30
     7e8:	676e6972 			; <UNDEFINED> instruction: 0x676e6972
     7ec:	30323931 	eorscc	r3, r2, r1, lsr r9
     7f0:	3253432f 	subscc	r4, r3, #-1140850688	; 0xbc000000
     7f4:	584c3034 	stmdapl	ip, {r2, r4, r5, ip, sp}^
     7f8:	3273632f 	rsbscc	r6, r3, #-1140850688	; 0xbc000000
     7fc:	786c3034 	stmdavc	ip!, {r2, r4, r5, ip, sp}^
     800:	7330322d 	teqvc	r0, #-805306366	; 0xd0000002
     804:	6c2f7270 	sfmvs	f7, 4, [pc], #-448	; 64c <__code_start__-0x79b4>
     808:	69706269 	ldmdbvs	r0!, {r0, r3, r5, r6, r9, sp, lr}^
     80c:	636e692f 	cmnvs	lr, #770048	; 0xbc000
     810:	6564756c 	strbvs	r7, [r4, #-1388]!	; 0x56c
     814:	75700000 	ldrbvc	r0, [r0, #-0]!
     818:	632e6b74 	teqvs	lr, #116, 22	; 0x1d000
     81c:	00000100 	andeq	r0, r0, r0, lsl #2
     820:	2e697072 	mcrcs	0, 3, r7, cr9, cr2, {3}
     824:	00020068 	andeq	r0, r2, r8, rrx
     828:	05000000 	streq	r0, [r0, #-0]
     82c:	008eb002 	addeq	fp, lr, r2
     830:	2d4c1500 	cfstr64cs	mvdx1, [ip, #-0]
     834:	02040200 	andeq	r0, r4, #0, 4
     838:	0402002f 	streq	r0, [r2], #-47	; 0x2f
     83c:	02004902 	andeq	r4, r0, #32768	; 0x8000
     840:	2e060104 	adfcss	f0, f6, f4
     844:	06026b06 	streq	r6, [r2], -r6, lsl #22
     848:	f1010100 	setend	le
     84c:	02000001 	andeq	r0, r0, #1
     850:	0000e900 	andeq	lr, r0, r0, lsl #18
     854:	fb010200 	blx	4105e <__bss_end__+0x36a26>
     858:	01000d0e 	tsteq	r0, lr, lsl #26
     85c:	00010101 	andeq	r0, r1, r1, lsl #2
     860:	00010000 	andeq	r0, r1, r0
     864:	696c0100 	stmdbvs	ip!, {r8}^
     868:	2f006362 	svccs	0x00006362
     86c:	2f727375 	svccs	0x00727375
     870:	61636f6c 	cmnvs	r3, ip, ror #30
     874:	65432f6c 	strbvs	r2, [r3, #-3948]	; 0xf6c
     878:	72616c6c 	rsbvc	r6, r1, #108, 24	; 0x6c00
     87c:	6d72612f 	ldfvse	f6, [r2, #-188]!	; 0xffffff44
     880:	6e6f6e2d 	cdpvs	14, 6, cr6, cr15, cr13, {1}
     884:	61652d65 	cmnvs	r5, r5, ror #26
     888:	342f6962 	strtcc	r6, [pc], #-2402	; 890 <__code_start__-0x7770>
     88c:	332e382e 	teqcc	lr, #3014656	; 0x2e0000
     890:	3173632d 	cmncc	r3, sp, lsr #6
     894:	2f653037 	svccs	0x00653037
     898:	2f62696c 	svccs	0x0062696c
     89c:	2f636367 	svccs	0x00636367
     8a0:	2d6d7261 	sfmcs	f7, 2, [sp, #-388]!	; 0xfffffe7c
     8a4:	656e6f6e 	strbvs	r6, [lr, #-3950]!	; 0xf6e
     8a8:	6261652d 	rsbvs	r6, r1, #188743680	; 0xb400000
     8ac:	2e342f69 	cdpcs	15, 3, cr2, cr4, cr9, {3}
     8b0:	2f332e38 	svccs	0x00332e38
     8b4:	6c636e69 	stclvs	14, cr6, [r3], #-420	; 0xfffffe5c
     8b8:	00656475 	rsbeq	r6, r5, r5, ror r4
     8bc:	6573552f 	ldrbvs	r5, [r3, #-1327]!	; 0x52f
     8c0:	622f7372 	eorvs	r7, pc, #-939524095	; 0xc8000001
     8c4:	6e616972 	mcrvs	9, 3, r6, cr1, cr2, {3}
     8c8:	2f6e756a 	svccs	0x006e756a
     8cc:	6b736544 	blvs	1cd9de4 <__bss_end__+0x1ccf7ac>
     8d0:	2f706f74 	svccs	0x00706f74
     8d4:	6f686373 	svcvs	0x00686373
     8d8:	532f6c6f 	teqpl	pc, #28416	; 0x6f00
     8dc:	6e697270 	mcrvs	2, 3, r7, cr9, cr0, {3}
     8e0:	32393167 	eorscc	r3, r9, #-1073741799	; 0xc0000019
     8e4:	53432f30 	movtpl	r2, #16176	; 0x3f30
     8e8:	4c303432 	cfldrsmi	mvf3, [r0], #-200	; 0xffffff38
     8ec:	73632f58 	cmnvc	r3, #88, 30	; 0x160
     8f0:	6c303432 	cfldrsvs	mvf3, [r0], #-200	; 0xffffff38
     8f4:	30322d78 	eorscc	r2, r2, r8, ror sp
     8f8:	2f727073 	svccs	0x00727073
     8fc:	7062696c 	rsbvc	r6, r2, ip, ror #18
     900:	6e692f69 	cdpvs	15, 6, cr2, cr9, cr9, {3}
     904:	64756c63 	ldrbtvs	r6, [r5], #-3171	; 0xc63
     908:	76000065 	strvc	r0, [r0], -r5, rrx
     90c:	72702d61 	rsbsvc	r2, r0, #6208	; 0x1840
     910:	6b746e69 	blvs	1d1c2bc <__bss_end__+0x1d11c84>
     914:	0100632e 	tsteq	r0, lr, lsr #6
     918:	74730000 	ldrbtvc	r0, [r3], #-0
     91c:	67726164 	ldrbvs	r6, [r2, -r4, ror #2]!
     920:	0200682e 	andeq	r6, r0, #3014656	; 0x2e0000
     924:	70720000 	rsbsvc	r0, r2, r0
     928:	00682e69 	rsbeq	r2, r8, r9, ror #28
     92c:	3c000003 	stccc	0, cr0, [r0], {3}
     930:	6c697562 	cfstr64vs	mvdx7, [r9], #-392	; 0xfffffe78
     934:	6e692d74 	mcrvs	13, 3, r2, cr9, cr4, {3}
     938:	0000003e 	andeq	r0, r0, lr, lsr r0
     93c:	05000000 	streq	r0, [r0, #-0]
     940:	008ee402 	addeq	lr, lr, r2, lsl #8
     944:	01260300 	teqeq	r6, r0, lsl #6
     948:	3113a501 	tstcc	r3, r1, lsl #10
     94c:	0402002d 	streq	r0, [r2], #-45	; 0x2d
     950:	02002f02 	andeq	r2, r0, #2, 30
     954:	002d0204 	eoreq	r0, sp, r4, lsl #4
     958:	2f020402 	svccs	0x00020402
     95c:	01040200 	mrseq	r0, R12_usr
     960:	304c4c2d 	subcc	r4, ip, sp, lsr #24
     964:	4f2f4b14 	svcmi	0x002f4b14
     968:	02040200 	andeq	r0, r4, #0, 4
     96c:	04020067 	streq	r0, [r2], #-103	; 0x67
     970:	4d4c6501 	cfstr64mi	mvdx6, [ip, #-4]
     974:	312fa030 	teqcc	pc, r0, lsr r0	; <UNPREDICTABLE>
     978:	16260230 			; <UNDEFINED> instruction: 0x16260230
     97c:	002c2d84 	eoreq	r2, ip, r4, lsl #27
     980:	30010402 	andcc	r0, r1, r2, lsl #8
     984:	01040200 	mrseq	r0, R12_usr
     988:	00660633 	rsbeq	r0, r6, r3, lsr r6
     98c:	2e010402 	cdpcs	4, 0, cr0, cr1, cr2, {0}
     990:	01040200 	mrseq	r0, R12_usr
     994:	67210806 	strvs	r0, [r1, -r6, lsl #16]!
     998:	8273032f 	rsbshi	r0, r3, #-1140850688	; 0xbc000000
     99c:	002e1303 	eoreq	r1, lr, r3, lsl #6
     9a0:	06010402 	streq	r0, [r1], -r2, lsl #8
     9a4:	04020066 	streq	r0, [r2], #-102	; 0x66
     9a8:	4b830601 	blmi	fe0c21b4 <__bss_end__+0xfe0b7b7c>
     9ac:	4b31674b 	blmi	c5a6e0 <__bss_end__+0xc500a8>
     9b0:	032e6503 	teqeq	lr, #12582912	; 0xc00000
     9b4:	02002e23 	andeq	r2, r0, #560	; 0x230
     9b8:	2e060104 	adfcss	f0, f6, f4
     9bc:	01040200 	mrseq	r0, R12_usr
     9c0:	02009f06 	andeq	r9, r0, #6, 30
     9c4:	086a0104 	stmdaeq	sl!, {r2, r8}^
     9c8:	a403d723 	strge	sp, [r3], #-1827	; 0x723
     9cc:	4b3c087f 	blmi	f02bd0 <__bss_end__+0xef8598>
     9d0:	01040200 	mrseq	r0, R12_usr
     9d4:	08064a06 	stmdaeq	r6, {r1, r2, r9, fp, lr}
     9d8:	4b2f4b21 	blmi	bd3664 <__bss_end__+0xbc902c>
     9dc:	f200db03 	vqdmulh.s<illegal width 8>	d13, d0, d3
     9e0:	32484c9f 	subcc	r4, r8, #40704	; 0x9f00
     9e4:	4b842f4b 	blmi	fe10c718 <__bss_end__+0xfe1020e0>
     9e8:	314d2d2f 	cmpcc	sp, pc, lsr #26
     9ec:	00832f30 	addeq	r2, r3, r0, lsr pc
     9f0:	2c010402 	cfstrscs	mvf0, [r1], {2}
     9f4:	040200be 	streq	r0, [r2], #-190	; 0xbe
     9f8:	064a0601 	strbeq	r0, [sl], -r1, lsl #12
     9fc:	36022208 	strcc	r2, [r2], -r8, lsl #4
     a00:	d60e0316 			; <UNDEFINED> instruction: 0xd60e0316
     a04:	08302108 	ldmdaeq	r0!, {r3, r8, sp}
     a08:	21083121 	tstcs	r8, r1, lsr #2
     a0c:	30210830 	eorcc	r0, r1, r0, lsr r8
     a10:	2108304b 	tstcs	r8, fp, asr #32
     a14:	83834b30 	orrhi	r4, r3, #48, 22	; 0xc000
     a18:	002f31d9 	ldrdeq	r3, [pc], -r9	; <UNPREDICTABLE>
     a1c:	65010402 	strvs	r0, [r1, #-1026]	; 0x402
     a20:	02040200 	andeq	r0, r4, #0, 4
     a24:	02004a06 	andeq	r4, r0, #24576	; 0x6000
     a28:	03060104 	movweq	r0, #24836	; 0x6104
     a2c:	00667fbf 	strhteq	r7, [r6], #-255	; 0xffffff01
     a30:	06020402 	streq	r0, [r2], -r2, lsl #8
     a34:	c5030666 	strgt	r0, [r3, #-1638]	; 0x666
     a38:	02684a00 	rsbeq	r4, r8, #0, 20
     a3c:	01010016 	tsteq	r1, r6, lsl r0
     a40:	00000042 	andeq	r0, r0, r2, asr #32
     a44:	00280002 	eoreq	r0, r8, r2
     a48:	01020000 	mrseq	r0, (UNDEF: 2)
     a4c:	000d0efb 	strdeq	r0, [sp], -fp
     a50:	01010101 	tsteq	r1, r1, lsl #2
     a54:	01000000 	mrseq	r0, (UNDEF: 0)
     a58:	73010000 	movwvc	r0, #4096	; 0x1000
     a5c:	66666174 			; <UNDEFINED> instruction: 0x66666174
     a60:	6372732d 	cmnvs	r2, #-1275068416	; 0xb4000000
     a64:	61630000 	cmnvs	r3, r0
     a68:	2e656863 	cdpcs	8, 6, cr6, cr5, cr3, {3}
     a6c:	00010063 	andeq	r0, r1, r3, rrx
     a70:	05000000 	streq	r0, [r0, #-0]
     a74:	00945c02 	addseq	r5, r4, r2, lsl #24
     a78:	30141400 	andscc	r1, r4, r0, lsl #8
     a7c:	31144e2f 	tstcc	r4, pc, lsr #28
     a80:	0004022f 	andeq	r0, r4, pc, lsr #4
     a84:	009d0101 	addseq	r0, sp, r1, lsl #2
     a88:	00020000 	andeq	r0, r2, r0
     a8c:	00000086 	andeq	r0, r0, r6, lsl #1
     a90:	0efb0102 	cdpeq	1, 15, cr0, cr11, cr2, {0}
     a94:	0101000d 	tsteq	r1, sp
     a98:	00000101 	andeq	r0, r0, r1, lsl #2
     a9c:	00000100 	andeq	r0, r0, r0, lsl #2
     aa0:	61747301 	cmnvs	r4, r1, lsl #6
     aa4:	732d6666 	teqvc	sp, #106954752	; 0x6600000
     aa8:	2f006372 	svccs	0x00006372
     aac:	72657355 	rsbvc	r7, r5, #1409286145	; 0x54000001
     ab0:	72622f73 	rsbvc	r2, r2, #460	; 0x1cc
     ab4:	6a6e6169 	bvs	1b99060 <__bss_end__+0x1b8ea28>
     ab8:	442f6e75 	strtmi	r6, [pc], #-3701	; ac0 <__code_start__-0x7540>
     abc:	746b7365 	strbtvc	r7, [fp], #-869	; 0x365
     ac0:	732f706f 	teqvc	pc, #111	; 0x6f
     ac4:	6f6f6863 	svcvs	0x006f6863
     ac8:	70532f6c 	subsvc	r2, r3, ip, ror #30
     acc:	676e6972 			; <UNDEFINED> instruction: 0x676e6972
     ad0:	30323931 	eorscc	r3, r2, r1, lsr r9
     ad4:	3253432f 	subscc	r4, r3, #-1140850688	; 0xbc000000
     ad8:	584c3034 	stmdapl	ip, {r2, r4, r5, ip, sp}^
     adc:	3273632f 	rsbscc	r6, r3, #-1140850688	; 0xbc000000
     ae0:	786c3034 	stmdavc	ip!, {r2, r4, r5, ip, sp}^
     ae4:	7330322d 	teqvc	r0, #-805306366	; 0xd0000002
     ae8:	6c2f7270 	sfmvs	f7, 4, [pc], #-448	; 930 <__code_start__-0x76d0>
     aec:	69706269 	ldmdbvs	r0!, {r0, r3, r5, r6, r9, sp, lr}^
     af0:	636e692f 	cmnvs	lr, #770048	; 0xbc000
     af4:	6564756c 	strbvs	r7, [r4, #-1388]!	; 0x56c
     af8:	6c630000 	stclvs	0, cr0, [r3], #-0
     afc:	2d6e6165 	stfcse	f6, [lr, #-404]!	; 0xfffffe6c
     b00:	6f626572 	svcvs	0x00626572
     b04:	632e746f 	teqvs	lr, #1862270976	; 0x6f000000
     b08:	00000100 	andeq	r0, r0, r0, lsl #2
     b0c:	2e697072 	mcrcs	0, 3, r7, cr9, cr2, {3}
     b10:	00020068 	andeq	r0, r2, r8, rrx
     b14:	05000000 	streq	r0, [r0, #-0]
     b18:	00947c02 	addseq	r7, r4, r2, lsl #24
     b1c:	2f2f1500 	svccs	0x002f1500
     b20:	06024b83 	streq	r4, [r2], -r3, lsl #23
     b24:	a6010100 	strge	r0, [r1], -r0, lsl #2
     b28:	02000000 	andeq	r0, r0, #0
     b2c:	00008000 	andeq	r8, r0, r0
     b30:	fb010200 	blx	4133a <__bss_end__+0x36d02>
     b34:	01000d0e 	tsteq	r0, lr, lsl #26
     b38:	00010101 	andeq	r0, r1, r1, lsl #2
     b3c:	00010000 	andeq	r0, r1, r0
     b40:	74730100 	ldrbtvc	r0, [r3], #-256	; 0x100
     b44:	2d666661 	stclcs	6, cr6, [r6, #-388]!	; 0xfffffe7c
     b48:	00637273 	rsbeq	r7, r3, r3, ror r2
     b4c:	6573552f 	ldrbvs	r5, [r3, #-1327]!	; 0x52f
     b50:	622f7372 	eorvs	r7, pc, #-939524095	; 0xc8000001
     b54:	6e616972 	mcrvs	9, 3, r6, cr1, cr2, {3}
     b58:	2f6e756a 	svccs	0x006e756a
     b5c:	6b736544 	blvs	1cda074 <__bss_end__+0x1ccfa3c>
     b60:	2f706f74 	svccs	0x00706f74
     b64:	6f686373 	svcvs	0x00686373
     b68:	532f6c6f 	teqpl	pc, #28416	; 0x6f00
     b6c:	6e697270 	mcrvs	2, 3, r7, cr9, cr0, {3}
     b70:	32393167 	eorscc	r3, r9, #-1073741799	; 0xc0000019
     b74:	53432f30 	movtpl	r2, #16176	; 0x3f30
     b78:	4c303432 	cfldrsmi	mvf3, [r0], #-200	; 0xffffff38
     b7c:	73632f58 	cmnvc	r3, #88, 30	; 0x160
     b80:	6c303432 	cfldrsvs	mvf3, [r0], #-200	; 0xffffff38
     b84:	30322d78 	eorscc	r2, r2, r8, ror sp
     b88:	2f727073 	svccs	0x00727073
     b8c:	7062696c 	rsbvc	r6, r2, ip, ror #18
     b90:	6e692f69 	cdpvs	15, 6, cr2, cr9, cr9, {3}
     b94:	64756c63 	ldrbtvs	r6, [r5], #-3171	; 0xc63
     b98:	63000065 	movwvs	r0, #101	; 0x65
     b9c:	72617473 	rsbvc	r7, r1, #1929379840	; 0x73000000
     ba0:	00632e74 	rsbeq	r2, r3, r4, ror lr
     ba4:	72000001 	andvc	r0, r0, #1
     ba8:	682e6970 	stmdavs	lr!, {r4, r5, r6, r8, fp, sp, lr}
     bac:	00000200 	andeq	r0, r0, r0, lsl #4
     bb0:	02050000 	andeq	r0, r5, #0
     bb4:	000094a8 	andeq	r9, r0, r8, lsr #9
     bb8:	32010c03 	andcc	r0, r1, #768	; 0x300
     bbc:	2f2d2f31 	svccs	0x002d2f31
     bc0:	01040200 	mrseq	r0, R12_usr
     bc4:	4a090349 	bmi	2418f0 <__bss_end__+0x2372b8>
     bc8:	2f2e0d03 	svccs	0x002e0d03
     bcc:	01000602 	tsteq	r0, r2, lsl #12
     bd0:	0000a201 	andeq	sl, r0, r1, lsl #4
     bd4:	8e000200 	cdphi	2, 0, cr0, cr0, cr0, {0}
     bd8:	02000000 	andeq	r0, r0, #0
     bdc:	0d0efb01 	vstreq	d15, [lr, #-4]
     be0:	01010100 	mrseq	r0, (UNDEF: 17)
     be4:	00000001 	andeq	r0, r0, r1
     be8:	01000001 	tsteq	r0, r1
     bec:	66617473 			; <UNDEFINED> instruction: 0x66617473
     bf0:	72732d66 	rsbsvc	r2, r3, #6528	; 0x1980
     bf4:	552f0063 	strpl	r0, [pc, #-99]!	; b99 <__code_start__-0x7467>
     bf8:	73726573 	cmnvc	r2, #482344960	; 0x1cc00000
     bfc:	6972622f 	ldmdbvs	r2!, {r0, r1, r2, r3, r5, r9, sp, lr}^
     c00:	756a6e61 	strbvc	r6, [sl, #-3681]!	; 0xe61
     c04:	65442f6e 	strbvs	r2, [r4, #-3950]	; 0xf6e
     c08:	6f746b73 	svcvs	0x00746b73
     c0c:	63732f70 	cmnvs	r3, #112, 30	; 0x1c0
     c10:	6c6f6f68 	stclvs	15, cr6, [pc], #-416	; a78 <__code_start__-0x7588>
     c14:	7270532f 	rsbsvc	r5, r0, #-1140850688	; 0xbc000000
     c18:	31676e69 	cmncc	r7, r9, ror #28
     c1c:	2f303239 	svccs	0x00303239
     c20:	34325343 	ldrtcc	r5, [r2], #-835	; 0x343
     c24:	2f584c30 	svccs	0x00584c30
     c28:	34327363 	ldrtcc	r7, [r2], #-867	; 0x363
     c2c:	2d786c30 	ldclcs	12, cr6, [r8, #-192]!	; 0xffffff40
     c30:	70733032 	rsbsvc	r3, r3, r2, lsr r0
     c34:	696c2f72 	stmdbvs	ip!, {r1, r4, r5, r6, r8, r9, sl, fp, sp}^
     c38:	2f697062 	svccs	0x00697062
     c3c:	6c636e69 	stclvs	14, cr6, [r3], #-420	; 0xfffffe5c
     c40:	00656475 	rsbeq	r6, r5, r5, ror r4
     c44:	66656400 	strbtvs	r6, [r5], -r0, lsl #8
     c48:	746c7561 	strbtvc	r7, [ip], #-1377	; 0x561
     c4c:	6e61682d 	cdpvs	8, 6, cr6, cr1, cr13, {1}
     c50:	72656c64 	rsbvc	r6, r5, #100, 24	; 0x6400
     c54:	7361662d 	cmnvc	r1, #47185920	; 0x2d00000
     c58:	00632e74 	rsbeq	r2, r3, r4, ror lr
     c5c:	72000001 	andvc	r0, r0, #1
     c60:	682e6970 	stmdavs	lr!, {r4, r5, r6, r8, fp, sp, lr}
     c64:	00000200 	andeq	r0, r0, r0, lsl #4
     c68:	02050000 	andeq	r0, r5, #0
     c6c:	000094e0 	andeq	r9, r0, r0, ror #9
     c70:	1c026613 	stcne	6, cr6, [r2], {19}
     c74:	a3010100 	movwge	r0, #4352	; 0x1100
     c78:	02000000 	andeq	r0, r0, #0
     c7c:	00008f00 	andeq	r8, r0, r0, lsl #30
     c80:	fb010200 	blx	4148a <__bss_end__+0x36e52>
     c84:	01000d0e 	tsteq	r0, lr, lsl #26
     c88:	00010101 	andeq	r0, r1, r1, lsl #2
     c8c:	00010000 	andeq	r0, r1, r0
     c90:	74730100 	ldrbtvc	r0, [r3], #-256	; 0x100
     c94:	2d666661 	stclcs	6, cr6, [r6, #-388]!	; 0xfffffe7c
     c98:	00637273 	rsbeq	r7, r3, r3, ror r2
     c9c:	6573552f 	ldrbvs	r5, [r3, #-1327]!	; 0x52f
     ca0:	622f7372 	eorvs	r7, pc, #-939524095	; 0xc8000001
     ca4:	6e616972 	mcrvs	9, 3, r6, cr1, cr2, {3}
     ca8:	2f6e756a 	svccs	0x006e756a
     cac:	6b736544 	blvs	1cda1c4 <__bss_end__+0x1ccfb8c>
     cb0:	2f706f74 	svccs	0x00706f74
     cb4:	6f686373 	svcvs	0x00686373
     cb8:	532f6c6f 	teqpl	pc, #28416	; 0x6f00
     cbc:	6e697270 	mcrvs	2, 3, r7, cr9, cr0, {3}
     cc0:	32393167 	eorscc	r3, r9, #-1073741799	; 0xc0000019
     cc4:	53432f30 	movtpl	r2, #16176	; 0x3f30
     cc8:	4c303432 	cfldrsmi	mvf3, [r0], #-200	; 0xffffff38
     ccc:	73632f58 	cmnvc	r3, #88, 30	; 0x160
     cd0:	6c303432 	cfldrsvs	mvf3, [r0], #-200	; 0xffffff38
     cd4:	30322d78 	eorscc	r2, r2, r8, ror sp
     cd8:	2f727073 	svccs	0x00727073
     cdc:	7062696c 	rsbvc	r6, r2, ip, ror #18
     ce0:	6e692f69 	cdpvs	15, 6, cr2, cr9, cr9, {3}
     ce4:	64756c63 	ldrbtvs	r6, [r5], #-3171	; 0xc63
     ce8:	64000065 	strvs	r0, [r0], #-101	; 0x65
     cec:	75616665 	strbvc	r6, [r1, #-1637]!	; 0x665
     cf0:	682d746c 	stmdavs	sp!, {r2, r3, r5, r6, sl, ip, sp, lr}
     cf4:	6c646e61 	stclvs	14, cr6, [r4], #-388	; 0xfffffe7c
     cf8:	722d7265 	eorvc	r7, sp, #1342177286	; 0x50000006
     cfc:	74657365 	strbtvc	r7, [r5], #-869	; 0x365
     d00:	0100632e 	tsteq	r0, lr, lsr #6
     d04:	70720000 	rsbsvc	r0, r2, r0
     d08:	00682e69 	rsbeq	r2, r8, r9, ror #28
     d0c:	00000002 	andeq	r0, r0, r2
     d10:	24020500 	strcs	r0, [r2], #-1280	; 0x500
     d14:	13000095 	movwne	r0, #149	; 0x95
     d18:	001c0266 	andseq	r0, ip, r6, ror #4
     d1c:	00ac0101 	adceq	r0, ip, r1, lsl #2
     d20:	00020000 	andeq	r0, r2, r0
     d24:	00000098 	muleq	r0, r8, r0
     d28:	0efb0102 	cdpeq	1, 15, cr0, cr11, cr2, {0}
     d2c:	0101000d 	tsteq	r1, sp
     d30:	00000101 	andeq	r0, r0, r1, lsl #2
     d34:	00000100 	andeq	r0, r0, r0, lsl #2
     d38:	61747301 	cmnvs	r4, r1, lsl #6
     d3c:	732d6666 	teqvc	sp, #106954752	; 0x6600000
     d40:	2f006372 	svccs	0x00006372
     d44:	72657355 	rsbvc	r7, r5, #1409286145	; 0x54000001
     d48:	72622f73 	rsbvc	r2, r2, #460	; 0x1cc
     d4c:	6a6e6169 	bvs	1b992f8 <__bss_end__+0x1b8ecc0>
     d50:	442f6e75 	strtmi	r6, [pc], #-3701	; d58 <__code_start__-0x72a8>
     d54:	746b7365 	strbtvc	r7, [fp], #-869	; 0x365
     d58:	732f706f 	teqvc	pc, #111	; 0x6f
     d5c:	6f6f6863 	svcvs	0x006f6863
     d60:	70532f6c 	subsvc	r2, r3, ip, ror #30
     d64:	676e6972 			; <UNDEFINED> instruction: 0x676e6972
     d68:	30323931 	eorscc	r3, r2, r1, lsr r9
     d6c:	3253432f 	subscc	r4, r3, #-1140850688	; 0xbc000000
     d70:	584c3034 	stmdapl	ip, {r2, r4, r5, ip, sp}^
     d74:	3273632f 	rsbscc	r6, r3, #-1140850688	; 0xbc000000
     d78:	786c3034 	stmdavc	ip!, {r2, r4, r5, ip, sp}^
     d7c:	7330322d 	teqvc	r0, #-805306366	; 0xd0000002
     d80:	6c2f7270 	sfmvs	f7, 4, [pc], #-448	; bc8 <__code_start__-0x7438>
     d84:	69706269 	ldmdbvs	r0!, {r0, r3, r5, r6, r9, sp, lr}^
     d88:	636e692f 	cmnvs	lr, #770048	; 0xbc000
     d8c:	6564756c 	strbvs	r7, [r4, #-1388]!	; 0x56c
     d90:	65640000 	strbvs	r0, [r4, #-0]!
     d94:	6c756166 	ldfvse	f6, [r5], #-408	; 0xfffffe68
     d98:	61682d74 	smcvs	33492	; 0x82d4
     d9c:	656c646e 	strbvs	r6, [ip, #-1134]!	; 0x46e
     da0:	6e752d72 	mrcvs	13, 3, r2, cr5, cr2, {3}
     da4:	69666564 	stmdbvs	r6!, {r2, r5, r6, r8, sl, sp, lr}^
     da8:	2d64656e 	cfstr64cs	mvdx6, [r4, #-440]!	; 0xfffffe48
     dac:	74736e69 	ldrbtvc	r6, [r3], #-3689	; 0xe69
     db0:	0100632e 	tsteq	r0, lr, lsr #6
     db4:	70720000 	rsbsvc	r0, r2, r0
     db8:	00682e69 	rsbeq	r2, r8, r9, ror #28
     dbc:	00000002 	andeq	r0, r0, r2
     dc0:	68020500 	stmdavs	r2, {r8, sl}
     dc4:	13000095 	movwne	r0, #149	; 0x95
     dc8:	001c0266 	andseq	r0, ip, r6, ror #4
     dcc:	00470101 	subeq	r0, r7, r1, lsl #2
     dd0:	00020000 	andeq	r0, r2, r0
     dd4:	00000033 	andeq	r0, r0, r3, lsr r0
     dd8:	0efb0102 	cdpeq	1, 15, cr0, cr11, cr2, {0}
     ddc:	0101000d 	tsteq	r1, sp
     de0:	00000101 	andeq	r0, r0, r1, lsl #2
     de4:	00000100 	andeq	r0, r0, r0, lsl #2
     de8:	61747301 	cmnvs	r4, r1, lsl #6
     dec:	732d6666 	teqvc	sp, #106954752	; 0x6600000
     df0:	00006372 	andeq	r6, r0, r2, ror r3
     df4:	61666564 	cmnvs	r6, r4, ror #10
     df8:	2d746c75 	ldclcs	12, cr6, [r4, #-468]!	; 0xfffffe2c
     dfc:	646e6168 	strbtvs	r6, [lr], #-360	; 0x168
     e00:	7372656c 	cmnvc	r2, #108, 10	; 0x1b000000
     e04:	0100632e 	tsteq	r0, lr, lsr #6
     e08:	00000000 	andeq	r0, r0, r0
     e0c:	95ac0205 	strls	r0, [ip, #517]!	; 0x205
     e10:	2f150000 	svccs	0x00150000
     e14:	01000202 	tsteq	r0, r2, lsl #4
     e18:	0000c901 	andeq	ip, r0, r1, lsl #18
     e1c:	9a000200 	bls	1624 <__code_start__-0x69dc>
     e20:	02000000 	andeq	r0, r0, #0
     e24:	0d0efb01 	vstreq	d15, [lr, #-4]
     e28:	01010100 	mrseq	r0, (UNDEF: 17)
     e2c:	00000001 	andeq	r0, r0, r1
     e30:	01000001 	tsteq	r0, r1
     e34:	66617473 			; <UNDEFINED> instruction: 0x66617473
     e38:	72732d66 	rsbsvc	r2, r3, #6528	; 0x1980
     e3c:	552f0063 	strpl	r0, [pc, #-99]!	; de1 <__code_start__-0x721f>
     e40:	73726573 	cmnvc	r2, #482344960	; 0x1cc00000
     e44:	6972622f 	ldmdbvs	r2!, {r0, r1, r2, r3, r5, r9, sp, lr}^
     e48:	756a6e61 	strbvc	r6, [sl, #-3681]!	; 0xe61
     e4c:	65442f6e 	strbvs	r2, [r4, #-3950]	; 0xf6e
     e50:	6f746b73 	svcvs	0x00746b73
     e54:	63732f70 	cmnvs	r3, #112, 30	; 0x1c0
     e58:	6c6f6f68 	stclvs	15, cr6, [pc], #-416	; cc0 <__code_start__-0x7340>
     e5c:	7270532f 	rsbsvc	r5, r0, #-1140850688	; 0xbc000000
     e60:	31676e69 	cmncc	r7, r9, ror #28
     e64:	2f303239 	svccs	0x00303239
     e68:	34325343 	ldrtcc	r5, [r2], #-835	; 0x343
     e6c:	2f584c30 	svccs	0x00584c30
     e70:	34327363 	ldrtcc	r7, [r2], #-867	; 0x363
     e74:	2d786c30 	ldclcs	12, cr6, [r8, #-192]!	; 0xffffff40
     e78:	70733032 	rsbsvc	r3, r3, r2, lsr r0
     e7c:	696c2f72 	stmdbvs	ip!, {r1, r4, r5, r6, r8, r9, sl, fp, sp}^
     e80:	2f697062 	svccs	0x00697062
     e84:	6c636e69 	stclvs	14, cr6, [r3], #-420	; 0xfffffe5c
     e88:	00656475 	rsbeq	r6, r5, r5, ror r4
     e8c:	746e6900 	strbtvc	r6, [lr], #-2304	; 0x900
     e90:	75727265 	ldrbvc	r7, [r2, #-613]!	; 0x265
     e94:	2d737470 	cfldrdcs	mvd7, [r3, #-448]!	; 0xfffffe40
     e98:	00632e63 	rsbeq	r2, r3, r3, ror #28
     e9c:	72000001 	andvc	r0, r0, #1
     ea0:	692d6970 	pushvs	{r4, r5, r6, r8, fp, sp, lr}
     ea4:	7265746e 	rsbvc	r7, r5, #1845493760	; 0x6e000000
     ea8:	74707572 	ldrbtvc	r7, [r0], #-1394	; 0x572
     eac:	00682e73 	rsbeq	r2, r8, r3, ror lr
     eb0:	72000002 	andvc	r0, r0, #2
     eb4:	682e6970 	stmdavs	lr!, {r4, r5, r6, r8, fp, sp, lr}
     eb8:	00000200 	andeq	r0, r0, r0, lsl #4
     ebc:	02050000 	andeq	r0, r5, #0
     ec0:	000095b4 			; <UNDEFINED> instruction: 0x000095b4
     ec4:	31011a03 	tstcc	r1, r3, lsl #20
     ec8:	3667672f 	strbtcc	r6, [r7], -pc, lsr #14
     ecc:	002d2f83 	eoreq	r2, sp, r3, lsl #31
     ed0:	2f020402 	svccs	0x00020402
     ed4:	02040200 	andeq	r0, r4, #0, 4
     ed8:	04020065 	streq	r0, [r2], #-101	; 0x65
     edc:	062e0601 	strteq	r0, [lr], -r1, lsl #12
     ee0:	000a024c 	andeq	r0, sl, ip, asr #4
     ee4:	00a20101 	adceq	r0, r2, r1, lsl #2
     ee8:	00020000 	andeq	r0, r2, r0
     eec:	00000080 	andeq	r0, r0, r0, lsl #1
     ef0:	0efb0102 	cdpeq	1, 15, cr0, cr11, cr2, {0}
     ef4:	0101000d 	tsteq	r1, sp
     ef8:	00000101 	andeq	r0, r0, r1, lsl #2
     efc:	00000100 	andeq	r0, r0, r0, lsl #2
     f00:	61747301 	cmnvs	r4, r1, lsl #6
     f04:	732d6666 	teqvc	sp, #106954752	; 0x6600000
     f08:	2f006372 	svccs	0x00006372
     f0c:	72657355 	rsbvc	r7, r5, #1409286145	; 0x54000001
     f10:	72622f73 	rsbvc	r2, r2, #460	; 0x1cc
     f14:	6a6e6169 	bvs	1b994c0 <__bss_end__+0x1b8ee88>
     f18:	442f6e75 	strtmi	r6, [pc], #-3701	; f20 <__code_start__-0x70e0>
     f1c:	746b7365 	strbtvc	r7, [fp], #-869	; 0x365
     f20:	732f706f 	teqvc	pc, #111	; 0x6f
     f24:	6f6f6863 	svcvs	0x006f6863
     f28:	70532f6c 	subsvc	r2, r3, ip, ror #30
     f2c:	676e6972 			; <UNDEFINED> instruction: 0x676e6972
     f30:	30323931 	eorscc	r3, r2, r1, lsr r9
     f34:	3253432f 	subscc	r4, r3, #-1140850688	; 0xbc000000
     f38:	584c3034 	stmdapl	ip, {r2, r4, r5, ip, sp}^
     f3c:	3273632f 	rsbscc	r6, r3, #-1140850688	; 0xbc000000
     f40:	786c3034 	stmdavc	ip!, {r2, r4, r5, ip, sp}^
     f44:	7330322d 	teqvc	r0, #-805306366	; 0xd0000002
     f48:	6c2f7270 	sfmvs	f7, 4, [pc], #-448	; d90 <__code_start__-0x7270>
     f4c:	69706269 	ldmdbvs	r0!, {r0, r3, r5, r6, r9, sp, lr}^
     f50:	636e692f 	cmnvs	lr, #770048	; 0xbc000
     f54:	6564756c 	strbvs	r7, [r4, #-1388]!	; 0x56c
     f58:	65720000 	ldrbvs	r0, [r2, #-0]!
     f5c:	746f6f62 	strbtvc	r6, [pc], #-3938	; f64 <__code_start__-0x709c>
     f60:	0100632e 	tsteq	r0, lr, lsr #6
     f64:	70720000 	rsbsvc	r0, r2, r0
     f68:	00682e69 	rsbeq	r2, r8, r9, ror #28
     f6c:	00000002 	andeq	r0, r0, r2
     f70:	20020500 	andcs	r0, r2, r0, lsl #10
     f74:	03000096 	movweq	r0, #150	; 0x96
     f78:	3114010d 	tstcc	r4, sp, lsl #2
     f7c:	2f15852f 	svccs	0x0015852f
     f80:	672f4d4b 	strvs	r4, [pc, -fp, asr #26]!
     f84:	02675235 	rsbeq	r5, r7, #1342177283	; 0x50000003
     f88:	01010010 	tsteq	r1, r0, lsl r0
     f8c:	000000ae 	andeq	r0, r0, lr, lsr #1
     f90:	007f0002 	rsbseq	r0, pc, r2
     f94:	01020000 	mrseq	r0, (UNDEF: 2)
     f98:	000d0efb 	strdeq	r0, [sp], -fp
     f9c:	01010101 	tsteq	r1, r1, lsl #2
     fa0:	01000000 	mrseq	r0, (UNDEF: 0)
     fa4:	73010000 	movwvc	r0, #4096	; 0x1000
     fa8:	66666174 			; <UNDEFINED> instruction: 0x66666174
     fac:	6372732d 	cmnvs	r2, #-1275068416	; 0xb4000000
     fb0:	73552f00 	cmpvc	r5, #0, 30
     fb4:	2f737265 	svccs	0x00737265
     fb8:	61697262 	cmnvs	r9, r2, ror #4
     fbc:	6e756a6e 	vsubvs.f32	s13, s10, s29
     fc0:	7365442f 	cmnvc	r5, #788529152	; 0x2f000000
     fc4:	706f746b 	rsbvc	r7, pc, fp, ror #8
     fc8:	6863732f 	stmdavs	r3!, {r0, r1, r2, r3, r5, r8, r9, ip, sp, lr}^
     fcc:	2f6c6f6f 	svccs	0x006c6f6f
     fd0:	69727053 	ldmdbvs	r2!, {r0, r1, r4, r6, ip, sp, lr}^
     fd4:	3931676e 	ldmdbcc	r1!, {r1, r2, r3, r5, r6, r8, r9, sl, sp, lr}
     fd8:	432f3032 	teqmi	pc, #50	; 0x32
     fdc:	30343253 	eorscc	r3, r4, r3, asr r2
     fe0:	632f584c 	teqvs	pc, #76, 16	; 0x4c0000
     fe4:	30343273 	eorscc	r3, r4, r3, ror r2
     fe8:	322d786c 	eorcc	r7, sp, #108, 16	; 0x6c0000
     fec:	72707330 	rsbsvc	r7, r0, #48, 6	; 0xc0000000
     ff0:	62696c2f 	rsbvs	r6, r9, #12032	; 0x2f00
     ff4:	692f6970 	stmdbvs	pc!, {r4, r5, r6, r8, fp, sp, lr}	; <UNPREDICTABLE>
     ff8:	756c636e 	strbvc	r6, [ip, #-878]!	; 0x36e
     ffc:	00006564 	andeq	r6, r0, r4, ror #10
    1000:	656d6974 	strbvs	r6, [sp, #-2420]!	; 0x974
    1004:	00632e72 	rsbeq	r2, r3, r2, ror lr
    1008:	72000001 	andvc	r0, r0, #1
    100c:	682e6970 	stmdavs	lr!, {r4, r5, r6, r8, fp, sp, lr}
    1010:	00000200 	andeq	r0, r0, r0, lsl #4
    1014:	02050000 	andeq	r0, r5, #0
    1018:	00009694 	muleq	r0, r4, r6
    101c:	2d2f1416 	cfstrscs	mvf1, [pc, #-88]!	; fcc <__code_start__-0x7034>
    1020:	01040200 	mrseq	r0, R12_usr
    1024:	6d062e06 	stcvs	14, cr2, [r6, #-24]	; 0xffffffe8
    1028:	4d4b2f31 	stclmi	15, cr2, [fp, #-196]	; 0xffffff3c
    102c:	304b2f31 	subcc	r2, fp, r1, lsr pc
    1030:	2f4c4b4c 	svccs	0x004c4b4c
    1034:	842f2f6a 	strthi	r2, [pc], #-3946	; 103c <__code_start__-0x6fc4>
    1038:	0008022f 	andeq	r0, r8, pc, lsr #4
    103c:	01480101 	cmpeq	r8, r1, lsl #2
    1040:	00020000 	andeq	r0, r2, r0
    1044:	00000102 	andeq	r0, r0, r2, lsl #2
    1048:	0efb0102 	cdpeq	1, 15, cr0, cr11, cr2, {0}
    104c:	0101000d 	tsteq	r1, sp
    1050:	00000101 	andeq	r0, r0, r1, lsl #2
    1054:	00000100 	andeq	r0, r0, r0, lsl #2
    1058:	73752f01 	cmnvc	r5, #1, 30
    105c:	6e692f72 	mcrvs	15, 3, r2, cr9, cr2, {3}
    1060:	64756c63 	ldrbtvs	r6, [r5], #-3171	; 0xc63
    1064:	656e2f65 	strbvs	r2, [lr, #-3941]!	; 0xf65
    1068:	62696c77 	rsbvs	r6, r9, #30464	; 0x7700
    106c:	7379732f 	cmnvc	r9, #-1140850688	; 0xbc000000
    1070:	73752f00 	cmnvc	r5, #0, 30
    1074:	696c2f72 	stmdbvs	ip!, {r1, r4, r5, r6, r8, r9, sl, fp, sp}^
    1078:	63672f62 	cmnvs	r7, #392	; 0x188
    107c:	72612f63 	rsbvc	r2, r1, #396	; 0x18c
    1080:	6f6e2d6d 	svcvs	0x006e2d6d
    1084:	652d656e 	strvs	r6, [sp, #-1390]!	; 0x56e
    1088:	2f696261 	svccs	0x00696261
    108c:	2e332e36 	mrccs	14, 1, r2, cr3, cr6, {1}
    1090:	6e692f31 	mcrvs	15, 3, r2, cr9, cr1, {1}
    1094:	64756c63 	ldrbtvs	r6, [r5], #-3171	; 0xc63
    1098:	682f0065 	stmdavs	pc!, {r0, r2, r5, r6}	; <UNPREDICTABLE>
    109c:	2f656d6f 	svccs	0x00656d6f
    10a0:	6c676e65 	stclvs	14, cr6, [r7], #-404	; 0xfffffe6c
    10a4:	632f7265 	teqvs	pc, #1342177286	; 0x50000006
    10a8:	7373616c 	cmnvc	r3, #108, 2
    10ac:	3273632f 	rsbscc	r6, r3, #-1140850688	; 0xbc000000
    10b0:	786c3034 	stmdavc	ip!, {r2, r4, r5, ip, sp}^
    10b4:	7330322d 	teqvc	r0, #-805306366	; 0xd0000002
    10b8:	2f2f7270 	svccs	0x002f7270
    10bc:	7062696c 	rsbvc	r6, r2, ip, ror #18
    10c0:	682f0069 	stmdavs	pc!, {r0, r3, r5, r6}	; <UNPREDICTABLE>
    10c4:	2f656d6f 	svccs	0x00656d6f
    10c8:	6c676e65 	stclvs	14, cr6, [r7], #-404	; 0xfffffe6c
    10cc:	632f7265 	teqvs	pc, #1342177286	; 0x50000006
    10d0:	7373616c 	cmnvc	r3, #108, 2
    10d4:	3273632f 	rsbscc	r6, r3, #-1140850688	; 0xbc000000
    10d8:	786c3034 	stmdavc	ip!, {r2, r4, r5, ip, sp}^
    10dc:	7330322d 	teqvc	r0, #-805306366	; 0xd0000002
    10e0:	2f2f7270 	svccs	0x002f7270
    10e4:	7062696c 	rsbvc	r6, r2, ip, ror #18
    10e8:	74732f69 	ldrbtvc	r2, [r3], #-3945	; 0xf69
    10ec:	2d666661 	stclcs	6, cr6, [r6, #-388]!	; 0xfffffe7c
    10f0:	00637273 	rsbeq	r7, r3, r3, ror r2
    10f4:	72617500 	rsbvc	r7, r1, #0, 10
    10f8:	00632e74 	rsbeq	r2, r3, r4, ror lr
    10fc:	6c000000 	stcvs	0, cr0, [r0], {-0}
    1100:	2e6b636f 	cdpcs	3, 6, cr6, cr11, cr15, {3}
    1104:	00010068 	andeq	r0, r1, r8, rrx
    1108:	79745f00 	ldmdbvc	r4!, {r8, r9, sl, fp, ip, lr}^
    110c:	2e736570 	mrccs	5, 3, r6, cr3, cr0, {3}
    1110:	00010068 	andeq	r0, r1, r8, rrx
    1114:	64747300 	ldrbtvs	r7, [r4], #-768	; 0x300
    1118:	2e666564 	cdpcs	5, 6, cr6, cr6, cr4, {3}
    111c:	00020068 	andeq	r0, r2, r8, rrx
    1120:	65657200 	strbvs	r7, [r5, #-512]!	; 0x200
    1124:	682e746e 	stmdavs	lr!, {r1, r2, r3, r5, r6, sl, ip, sp, lr}
    1128:	00000100 	andeq	r0, r0, r0, lsl #2
    112c:	2e697072 	mcrcs	0, 3, r7, cr9, cr2, {3}
    1130:	00030068 	andeq	r0, r3, r8, rrx
    1134:	72617500 	rsbvc	r7, r1, #0, 10
    1138:	00682e74 	rsbeq	r2, r8, r4, ror lr
    113c:	67000004 	strvs	r0, [r0, -r4]
    1140:	2e6f6970 	mcrcs	9, 3, r6, cr15, cr0, {3}
    1144:	00040068 	andeq	r0, r4, r8, rrx
    1148:	05000000 	streq	r0, [r0, #-0]
    114c:	00979002 	addseq	r9, r7, r2
    1150:	012c0300 	teqeq	ip, r0, lsl #6
    1154:	9e0c0367 	cdpls	3, 0, cr0, cr12, cr7, {3}
    1158:	35686735 	strbcc	r6, [r8, #-1845]!	; 0x735
    115c:	2e0c0368 	cdpcs	3, 0, cr0, cr12, cr8, {3}
    1160:	69696b85 	stmdbvs	r9!, {r0, r2, r7, r8, r9, fp, sp, lr}^
    1164:	6b660c03 	blvs	1984178 <__bss_end__+0x1979b40>
    1168:	34420867 	strbcc	r0, [r2], #-2151	; 0x867
    116c:	68364b68 	ldmdavs	r6!, {r3, r5, r6, r8, r9, fp, lr}
    1170:	02002f87 	andeq	r2, r0, #540	; 0x21c
    1174:	682f0104 	stmdavs	pc!, {r2, r8}	; <UNPREDICTABLE>
    1178:	4b673067 	blmi	19cd31c <__bss_end__+0x19c2ce4>
    117c:	01040200 	mrseq	r0, R12_usr
    1180:	6967682f 	stmdbvs	r7!, {r0, r1, r2, r3, r5, fp, sp, lr}^
    1184:	0006022e 	andeq	r0, r6, lr, lsr #4
    1188:	012b0101 	teqeq	fp, r1, lsl #2
    118c:	00020000 	andeq	r0, r2, r0
    1190:	000000f8 	strdeq	r0, [r0], -r8
    1194:	0efb0102 	cdpeq	1, 15, cr0, cr11, cr2, {0}
    1198:	0101000d 	tsteq	r1, sp
    119c:	00000101 	andeq	r0, r0, r1, lsl #2
    11a0:	00000100 	andeq	r0, r0, r0, lsl #2
    11a4:	73752f01 	cmnvc	r5, #1, 30
    11a8:	6e692f72 	mcrvs	15, 3, r2, cr9, cr2, {3}
    11ac:	64756c63 	ldrbtvs	r6, [r5], #-3171	; 0xc63
    11b0:	656e2f65 	strbvs	r2, [lr, #-3941]!	; 0xf65
    11b4:	62696c77 	rsbvs	r6, r9, #30464	; 0x7700
    11b8:	7379732f 	cmnvc	r9, #-1140850688	; 0xbc000000
    11bc:	73752f00 	cmnvc	r5, #0, 30
    11c0:	696c2f72 	stmdbvs	ip!, {r1, r4, r5, r6, r8, r9, sl, fp, sp}^
    11c4:	63672f62 	cmnvs	r7, #392	; 0x188
    11c8:	72612f63 	rsbvc	r2, r1, #396	; 0x18c
    11cc:	6f6e2d6d 	svcvs	0x006e2d6d
    11d0:	652d656e 	strvs	r6, [sp, #-1390]!	; 0x56e
    11d4:	2f696261 	svccs	0x00696261
    11d8:	2e332e36 	mrccs	14, 1, r2, cr3, cr6, {1}
    11dc:	6e692f31 	mcrvs	15, 3, r2, cr9, cr1, {1}
    11e0:	64756c63 	ldrbtvs	r6, [r5], #-3171	; 0xc63
    11e4:	682f0065 	stmdavs	pc!, {r0, r2, r5, r6}	; <UNPREDICTABLE>
    11e8:	2f656d6f 	svccs	0x00656d6f
    11ec:	6c676e65 	stclvs	14, cr6, [r7], #-404	; 0xfffffe6c
    11f0:	632f7265 	teqvs	pc, #1342177286	; 0x50000006
    11f4:	7373616c 	cmnvc	r3, #108, 2
    11f8:	3273632f 	rsbscc	r6, r3, #-1140850688	; 0xbc000000
    11fc:	786c3034 	stmdavc	ip!, {r2, r4, r5, ip, sp}^
    1200:	7330322d 	teqvc	r0, #-805306366	; 0xd0000002
    1204:	2f2f7270 	svccs	0x002f7270
    1208:	7062696c 	rsbvc	r6, r2, ip, ror #18
    120c:	682f0069 	stmdavs	pc!, {r0, r3, r5, r6}	; <UNPREDICTABLE>
    1210:	2f656d6f 	svccs	0x00656d6f
    1214:	6c676e65 	stclvs	14, cr6, [r7], #-404	; 0xfffffe6c
    1218:	632f7265 	teqvs	pc, #1342177286	; 0x50000006
    121c:	7373616c 	cmnvc	r3, #108, 2
    1220:	3273632f 	rsbscc	r6, r3, #-1140850688	; 0xbc000000
    1224:	786c3034 	stmdavc	ip!, {r2, r4, r5, ip, sp}^
    1228:	7330322d 	teqvc	r0, #-805306366	; 0xd0000002
    122c:	2f2f7270 	svccs	0x002f7270
    1230:	7062696c 	rsbvc	r6, r2, ip, ror #18
    1234:	74732f69 	ldrbtvc	r2, [r3], #-3945	; 0xf69
    1238:	2d666661 	stclcs	6, cr6, [r6, #-388]!	; 0xfffffe7c
    123c:	00637273 	rsbeq	r7, r3, r3, ror r2
    1240:	69706700 	ldmdbvs	r0!, {r8, r9, sl, sp, lr}^
    1244:	00632e6f 	rsbeq	r2, r3, pc, ror #28
    1248:	6c000000 	stcvs	0, cr0, [r0], {-0}
    124c:	2e6b636f 	cdpcs	3, 6, cr6, cr11, cr15, {3}
    1250:	00010068 	andeq	r0, r1, r8, rrx
    1254:	79745f00 	ldmdbvc	r4!, {r8, r9, sl, fp, ip, lr}^
    1258:	2e736570 	mrccs	5, 3, r6, cr3, cr0, {3}
    125c:	00010068 	andeq	r0, r1, r8, rrx
    1260:	64747300 	ldrbtvs	r7, [r4], #-768	; 0x300
    1264:	2e666564 	cdpcs	5, 6, cr6, cr6, cr4, {3}
    1268:	00020068 	andeq	r0, r2, r8, rrx
    126c:	65657200 	strbvs	r7, [r5, #-512]!	; 0x200
    1270:	682e746e 	stmdavs	lr!, {r1, r2, r3, r5, r6, sl, ip, sp, lr}
    1274:	00000100 	andeq	r0, r0, r0, lsl #2
    1278:	2e697072 	mcrcs	0, 3, r7, cr9, cr2, {3}
    127c:	00030068 	andeq	r0, r3, r8, rrx
    1280:	69706700 	ldmdbvs	r0!, {r8, r9, sl, sp, lr}^
    1284:	00682e6f 	rsbeq	r2, r8, pc, ror #28
    1288:	00000004 	andeq	r0, r0, r4
    128c:	08020500 	stmdaeq	r2, {r8, sl}
    1290:	03000099 	movweq	r0, #153	; 0x99
    1294:	4c130127 	ldfmis	f0, [r3], {39}	; 0x27
    1298:	68f44f47 	ldmvs	r4!, {r0, r1, r2, r6, r8, r9, sl, fp, lr}^
    129c:	2fa14c4b 	svccs	0x00a14c4b
    12a0:	3149136a 	cmpcc	r9, sl, ror #6
    12a4:	314913be 	strhcc	r1, [r9, #-62]	; 0xffffffc2
    12a8:	2f6a2fbe 	svccs	0x006a2fbe
    12ac:	134f484d 	movtne	r4, #63565	; 0xf84d
    12b0:	b72f3249 	strlt	r3, [pc, -r9, asr #4]!
    12b4:	01000602 	tsteq	r0, r2, lsl #12
    12b8:	Address 0x00000000000012b8 is out of bounds.


Disassembly of section .debug_str:

00000000 <.debug_str>:
   0:	65646f6d 	strbvs	r6, [r4, #-3949]!	; 0xf6d
   4:	7465675f 	strbtvc	r6, [r5], #-1887	; 0x75f
   8:	73706500 	cmnvc	r0, #0, 10
   c:	5f6b6d5f 	svcpl	0x006b6d5f
  10:	63656863 	cmnvs	r5, #6488064	; 0x630000
  14:	0072656b 	rsbseq	r6, r2, fp, ror #10
  18:	73746962 	cmnvc	r4, #1605632	; 0x188000
  1c:	7465675f 	strbtvc	r6, [r5], #-1887	; 0x75f
  20:	6f687300 	svcvs	0x00687300
  24:	75207472 	strvc	r7, [r0, #-1138]!	; 0x472
  28:	6769736e 	strbvs	r7, [r9, -lr, ror #6]!
  2c:	2064656e 	rsbcs	r6, r4, lr, ror #10
  30:	00746e69 	rsbseq	r6, r4, r9, ror #28
  34:	705f6e6f 	subsvc	r6, pc, pc, ror #28
  38:	65686300 	strbvs	r6, [r8, #-768]!	; 0x300
  3c:	72656b63 	rsbvc	r6, r5, #101376	; 0x18c00
  40:	7300745f 	movwvc	r7, #1119	; 0x45f
  44:	74726f68 	ldrbtvc	r6, [r2], #-3944	; 0xf68
  48:	746e6920 	strbtvc	r6, [lr], #-2336	; 0x920
  4c:	69777300 	ldmdbvs	r7!, {r8, r9, ip, sp, lr}^
  50:	65686374 	strbvs	r6, [r8, #-884]!	; 0x374
  54:	00705f64 	rsbseq	r5, r0, r4, ror #30
  58:	5f737065 	svcpl	0x00737065
  5c:	63656863 	cmnvs	r5, #6488064	; 0x630000
  60:	6574006b 	ldrbvs	r0, [r4, #-107]!	; 0x6b
  64:	32737473 	rsbscc	r7, r3, #1929379840	; 0x73000000
  68:	312f302e 	teqcc	pc, lr, lsr #32
  6c:	61702d36 	cmnvs	r0, r6, lsr sp
  70:	2d327472 	cfldrscs	mvf7, [r2, #-456]!	; 0xfffffe38
  74:	74736574 	ldrbtvc	r6, [r3], #-1396	; 0x574
  78:	00632e32 	rsbeq	r2, r3, r2, lsr lr
  7c:	6573552f 	ldrbvs	r5, [r3, #-1327]!	; 0x52f
  80:	622f7372 	eorvs	r7, pc, #-939524095	; 0xc8000001
  84:	6e616972 	mcrvs	9, 3, r6, cr1, cr2, {3}
  88:	2f6e756a 	svccs	0x006e756a
  8c:	6b736544 	blvs	1cd95a4 <__bss_end__+0x1ccef6c>
  90:	2f706f74 	svccs	0x00706f74
  94:	6f686373 	svcvs	0x00686373
  98:	532f6c6f 	teqpl	pc, #28416	; 0x6f00
  9c:	6e697270 	mcrvs	2, 3, r7, cr9, cr0, {3}
  a0:	32393167 	eorscc	r3, r9, #-1073741799	; 0xc0000019
  a4:	53432f30 	movtpl	r2, #16176	; 0x3f30
  a8:	4c303432 	cfldrsmi	mvf3, [r0], #-200	; 0xffffff38
  ac:	73632f58 	cmnvc	r3, #88, 30	; 0x160
  b0:	6c303432 	cfldrsvs	mvf3, [r0], #-200	; 0xffffff38
  b4:	30322d78 	eorscc	r2, r2, r8, ror sp
  b8:	2f727073 	svccs	0x00727073
  bc:	7362616c 	cmnvc	r2, #108, 2
  c0:	2d36312f 	ldfcss	f3, [r6, #-188]!	; 0xffffff44
  c4:	676e6973 			; <UNDEFINED> instruction: 0x676e6973
  c8:	732d656c 	teqvc	sp, #108, 10	; 0x1b000000
  cc:	2f706574 	svccs	0x00706574
  d0:	65646f63 	strbvs	r6, [r4, #-3939]!	; 0xf63
  d4:	746f6e00 	strbtvc	r6, [pc], #-3584	; dc <__code_start__-0x7f24>
  d8:	6e69616d 	powvsez	f6, f1, #5.0
  dc:	73706500 	cmnvc	r0, #0, 10
  e0:	6200415f 	andvs	r4, r0, #-1073741801	; 0xc0000017
  e4:	765f6b72 			; <UNDEFINED> instruction: 0x765f6b72
  e8:	6f627265 	svcvs	0x00627265
  ec:	65006573 	strvs	r6, [r0, #-1395]	; 0x573
  f0:	425f7370 	subsmi	r7, pc, #112, 6	; 0xc0000001
  f4:	72656e00 	rsbvc	r6, r5, #0, 28
  f8:	73726f72 	cmnvc	r2, #456	; 0x1c8
  fc:	69777300 	ldmdbvs	r7!, {r8, r9, ip, sp, lr}^
 100:	5f686374 	svcpl	0x00686374
 104:	695f6e6f 	ldmdbvs	pc, {r0, r1, r2, r3, r5, r6, r9, sl, fp, sp, lr}^	; <UNPREDICTABLE>
 108:	5f74736e 	svcpl	0x0074736e
 10c:	6e75006e 	cdpvs	0, 7, cr0, cr5, cr14, {3}
 110:	6e676973 	mcrvs	9, 3, r6, cr7, cr3, {3}
 114:	63206465 	teqvs	r0, #1694498816	; 0x65000000
 118:	00726168 	rsbseq	r6, r2, r8, ror #2
 11c:	61656c63 	cmnvs	r5, r3, ror #24
 120:	65725f6e 	ldrbvs	r5, [r2, #-3950]!	; 0xf6e
 124:	746f6f62 	strbtvc	r6, [pc], #-3938	; 12c <__code_start__-0x7ed4>
 128:	736e6900 	cmnvc	lr, #0, 18
 12c:	6f635f74 	svcvs	0x00635f74
 130:	00746e75 	rsbseq	r6, r4, r5, ror lr
 134:	746e6975 	strbtvc	r6, [lr], #-2421	; 0x975
 138:	745f3233 	ldrbvc	r3, [pc], #-563	; 140 <__code_start__-0x7ec0>
 13c:	6b726200 	blvs	1c98944 <__bss_end__+0x1c8e30c>
 140:	7265765f 	rsbvc	r7, r5, #99614720	; 0x5f00000
 144:	65736f62 	ldrbvs	r6, [r3, #-3938]!	; 0xf62
 148:	6500705f 	strvs	r7, [r0, #-95]	; 0x5f
 14c:	695f7370 	ldmdbvs	pc, {r4, r5, r6, r8, r9, ip, sp, lr}^	; <UNPREDICTABLE>
 150:	0074696e 	rsbseq	r6, r4, lr, ror #18
 154:	55465f5f 	strbpl	r5, [r6, #-3935]	; 0xf5f
 158:	4954434e 	ldmdbmi	r4, {r1, r2, r3, r6, r8, r9, lr}^
 15c:	5f5f4e4f 	svcpl	0x005f4e4f
 160:	746e6900 	strbtvc	r6, [lr], #-2304	; 0x900
 164:	656c7265 	strbvs	r7, [ip, #-613]!	; 0x265
 168:	6e697661 	cdpvs	6, 6, cr7, cr9, cr1, {3}
 16c:	00705f67 	rsbseq	r5, r0, r7, ror #30
 170:	20554e47 	subscs	r4, r5, r7, asr #28
 174:	2e342043 	cdpcs	0, 3, cr2, cr4, cr3, {2}
 178:	20332e38 	eorscs	r2, r3, r8, lsr lr
 17c:	70636d2d 	rsbvc	r6, r3, sp, lsr #26
 180:	72613d75 	rsbvc	r3, r1, #7488	; 0x1d40
 184:	3731316d 	ldrcc	r3, [r1, -sp, ror #2]!
 188:	667a6a36 			; <UNDEFINED> instruction: 0x667a6a36
 18c:	2d20732d 	stccs	3, cr7, [r0, #-180]!	; 0xffffff4c
 190:	6e75746d 	cdpvs	4, 7, cr7, cr5, cr13, {3}
 194:	72613d65 	rsbvc	r3, r1, #6464	; 0x1940
 198:	3731316d 	ldrcc	r3, [r1, -sp, ror #2]!
 19c:	667a6a36 			; <UNDEFINED> instruction: 0x667a6a36
 1a0:	2d20732d 	stccs	3, cr7, [r0, #-180]!	; 0xffffff4c
 1a4:	62646767 	rsbvs	r6, r4, #27000832	; 0x19c0000
 1a8:	674f2d20 	strbvs	r2, [pc, -r0, lsr #26]
 1ac:	74732d20 	ldrbtvc	r2, [r3], #-3360	; 0xd20
 1b0:	6e673d64 	cdpvs	13, 6, cr3, cr7, cr4, {3}
 1b4:	20393975 	eorscs	r3, r9, r5, ror r9
 1b8:	7266662d 	rsbvc	r6, r6, #47185920	; 0x2d00000
 1bc:	74736565 	ldrbtvc	r6, [r3], #-1381	; 0x565
 1c0:	69646e61 	stmdbvs	r4!, {r0, r5, r6, r9, sl, fp, sp, lr}^
 1c4:	2d20676e 	stccs	7, cr6, [r0, #-440]!	; 0xfffffe48
 1c8:	2d6f6e66 	stclcs	14, cr6, [pc, #-408]!	; 38 <__code_start__-0x7fc8>
 1cc:	6c706f74 	ldclvs	15, cr6, [r0], #-464	; 0xfffffe30
 1d0:	6c657665 	stclvs	6, cr7, [r5], #-404	; 0xfffffe6c
 1d4:	6f65722d 	svcvs	0x0065722d
 1d8:	72656472 	rsbvc	r6, r5, #1912602624	; 0x72000000
 1dc:	6e6f6c00 	cdpvs	12, 6, cr6, cr15, cr0, {0}
 1e0:	6f6c2067 	svcvs	0x006c2067
 1e4:	7520676e 	strvc	r6, [r0, #-1902]!	; 0x76e
 1e8:	6769736e 	strbvs	r7, [r9, -lr, ror #6]!
 1ec:	2064656e 	rsbcs	r6, r4, lr, ror #10
 1f0:	00746e69 	rsbseq	r6, r4, r9, ror #28
 1f4:	65646f6d 	strbvs	r6, [r4, #-3949]!	; 0xf6d
 1f8:	77736e00 	ldrbvc	r6, [r3, -r0, lsl #28]!
 1fc:	68637469 	stmdavs	r3!, {r0, r3, r5, r6, sl, ip, sp, lr}^
 200:	73007365 	movwvc	r7, #869	; 0x365
 204:	74657a69 	strbtvc	r7, [r5], #-2665	; 0xa69
 208:	00657079 	rsbeq	r7, r5, r9, ror r0
 20c:	676e6f6c 	strbvs	r6, [lr, -ip, ror #30]!
 210:	6e6f6c20 	cdpvs	12, 6, cr6, cr15, cr0, {1}
 214:	6e692067 	cdpvs	0, 6, cr2, cr9, cr7, {3}
 218:	746e0074 	strbtvc	r0, [lr], #-116	; 0x74
 21c:	6c616972 	stclvs	9, cr6, [r1], #-456	; 0xfffffe38
 220:	77730073 			; <UNDEFINED> instruction: 0x77730073
 224:	68637469 	stmdavs	r3!, {r0, r3, r5, r6, sl, ip, sp, lr}^
 228:	6464615f 	strbtvs	r6, [r4], #-351	; 0x15f
 22c:	6e650072 	mcrvs	0, 3, r0, cr5, cr2, {3}
 230:	656c6261 	strbvs	r6, [ip, #-609]!	; 0x261
 234:	6361635f 	cmnvs	r1, #2080374785	; 0x7c000001
 238:	6d006568 	cfstr32vs	mvfx6, [r0, #-416]	; 0xfffffe60
 23c:	5f65646f 	svcpl	0x0065646f
 240:	6167656c 	cmnvs	r7, ip, ror #10
 244:	7063006c 	rsbvc	r0, r3, ip, rrx
 248:	73007273 	movwvc	r7, #627	; 0x273
 24c:	7370696b 	cmnvc	r0, #1753088	; 0x1ac000
 250:	73706300 	cmnvc	r0, #0, 6
 254:	65675f72 	strbvs	r5, [r7, #-3954]!	; 0xf72
 258:	70720074 	rsbsvc	r0, r2, r4, ror r0
 25c:	65725f69 	ldrbvs	r5, [r2, #-3945]!	; 0xf69
 260:	5f746573 	svcpl	0x00746573
 264:	63747570 	cmnvs	r4, #112, 10	; 0x1c000000
 268:	74616400 	strbtvc	r6, [r1], #-1024	; 0x400
 26c:	62615f61 	rsbvs	r5, r1, #388	; 0x184
 270:	5f74726f 	svcpl	0x0074726f
 274:	74636576 	strbtvc	r6, [r3], #-1398	; 0x576
 278:	7000726f 	andvc	r7, r0, pc, ror #4
 27c:	65666572 	strbvs	r6, [r6, #-1394]!	; 0x572
 280:	5f686374 	svcpl	0x00686374
 284:	726f6261 	rsbvc	r6, pc, #268435462	; 0x10000006
 288:	65765f74 	ldrbvs	r5, [r6, #-3956]!	; 0xf74
 28c:	726f7463 	rsbvc	r7, pc, #1660944384	; 0x63000000
 290:	73617700 	cmnvc	r1, #0, 14
 294:	6265645f 	rsbvs	r6, r5, #1593835520	; 0x5f000000
 298:	645f6775 	ldrbvs	r6, [pc], #-1909	; 2a0 <__code_start__-0x7d60>
 29c:	66617461 	strbtvs	r7, [r1], -r1, ror #8
 2a0:	746c7561 	strbtvc	r7, [ip], #-1377	; 0x561
 2a4:	31706300 	cmncc	r0, r0, lsl #6
 2a8:	65642d34 	strbvs	r2, [r4, #-3380]!	; 0xd34
 2ac:	2e677562 	cdpcs	5, 6, cr7, cr7, cr2, {3}
 2b0:	61770063 	cmnvs	r7, r3, rrx
 2b4:	65645f73 	strbvs	r5, [r4, #-3955]!	; 0xf73
 2b8:	5f677562 	svcpl	0x00677562
 2bc:	74736e69 	ldrbtvc	r6, [r3], #-3689	; 0xe69
 2c0:	6c756166 	ldfvse	f6, [r5], #-408	; 0xfffffe68
 2c4:	73640074 	cmnvc	r4, #116	; 0x74
 2c8:	735f7263 	cmpvc	pc, #805306374	; 0x30000006
 2cc:	77007465 	strvc	r7, [r0, -r5, ror #8]
 2d0:	5f307263 	svcpl	0x00307263
 2d4:	00676572 	rsbeq	r6, r7, r2, ror r5
 2d8:	30726377 	rsbscc	r6, r2, r7, ror r3
 2dc:	7465675f 	strbtvc	r6, [r5], #-1887	; 0x75f
 2e0:	696e6900 	stmdbvs	lr!, {r8, fp, sp, lr}^
 2e4:	00705f74 	rsbseq	r5, r0, r4, ror pc
 2e8:	706b7262 	rsbvc	r7, fp, r2, ror #4
 2ec:	61685f74 	smcvs	34292	; 0x85f4
 2f0:	656c646e 	strbvs	r6, [ip, #-1134]!	; 0x46e
 2f4:	63003072 	movwvs	r3, #114	; 0x72
 2f8:	5f343170 	svcpl	0x00343170
 2fc:	30726362 	rsbscc	r6, r2, r2, ror #6
 300:	7465735f 	strbtvc	r7, [r5], #-863	; 0x35f
 304:	72767700 	rsbsvc	r7, r6, #0, 14
 308:	61765f30 	cmnvs	r6, r0, lsr pc
 30c:	6177006c 	cmnvs	r7, ip, rrx
 310:	70686374 	rsbvc	r6, r8, r4, ror r3
 314:	65735f74 	ldrbvs	r5, [r3, #-3956]!	; 0xf74
 318:	77003074 	smlsdxvc	r0, r4, r0, r3
 31c:	5f307276 	svcpl	0x00307276
 320:	00746573 	rsbseq	r6, r4, r3, ror r5
 324:	5f6b7262 	svcpl	0x006b7262
 328:	725f6f6e 	subsvc	r6, pc, #440	; 0x1b8
 32c:	655f7465 	ldrbvs	r7, [pc, #-1125]	; fffffecf <__bss_end__+0xffff5897>
 330:	726f7272 	rsbvc	r7, pc, #536870919	; 0x20000007
 334:	31706300 	cmncc	r0, r0, lsl #6
 338:	63625f34 	cmnvs	r2, #52, 30	; 0xd0
 33c:	675f3072 			; <UNDEFINED> instruction: 0x675f3072
 340:	62007465 	andvs	r7, r0, #1694498816	; 0x65000000
 344:	74706b72 	ldrbtvc	r6, [r0], #-2930	; 0xb72
 348:	73696d5f 	cmnvc	r9, #6080	; 0x17c0
 34c:	6374616d 	cmnvs	r4, #1073741851	; 0x4000001b
 350:	65735f68 	ldrbvs	r5, [r3, #-3944]!	; 0xf68
 354:	64003074 	strvs	r3, [r0], #-116	; 0x74
 358:	5f727366 	svcpl	0x00727366
 35c:	006c6176 	rsbeq	r6, ip, r6, ror r1
 360:	72616669 	rsbvc	r6, r1, #110100480	; 0x6900000
 364:	7465675f 	strbtvc	r6, [r5], #-1887	; 0x75f
 368:	73666900 	cmnvc	r6, #0, 18
 36c:	65675f72 	strbvs	r5, [r7, #-3954]!	; 0xf72
 370:	61770074 	cmnvs	r7, r4, ror r0
 374:	70686374 	rsbvc	r6, r8, r4, ror r3
 378:	61685f74 	smcvs	34292	; 0x85f4
 37c:	656c646e 	strbvs	r6, [ip, #-1134]!	; 0x46e
 380:	62003072 	andvs	r3, r0, #114	; 0x72
 384:	74706b72 	ldrbtvc	r6, [r0], #-2930	; 0xb72
 388:	73696d5f 	cmnvc	r9, #6080	; 0x17c0
 38c:	6374616d 	cmnvs	r4, #1073741851	; 0x4000001b
 390:	69645f68 	stmdbvs	r4!, {r3, r5, r6, r8, r9, sl, fp, ip, lr}^
 394:	6c626173 	stfvse	f6, [r2], #-460	; 0xfffffe34
 398:	64003065 	strvs	r3, [r0], #-101	; 0x65
 39c:	66617461 	strbtvs	r7, [r1], -r1, ror #8
 3a0:	746c7561 	strbtvc	r7, [ip], #-1377	; 0x561
 3a4:	6f72665f 	svcvs	0x0072665f
 3a8:	646c5f6d 	strbtvs	r5, [ip], #-3949	; 0xf6d
 3ac:	31706300 	cmncc	r0, r0, lsl #6
 3b0:	76625f34 	uqasxvc	r5, r2, r4
 3b4:	735f3072 	cmpvc	pc, #114	; 0x72
 3b8:	77007465 	strvc	r7, [r0, -r5, ror #8]
 3bc:	645f7361 	ldrbvs	r7, [pc], #-865	; 3c4 <__code_start__-0x7c3c>
 3c0:	67756265 	ldrbvs	r6, [r5, -r5, ror #4]!
 3c4:	6c756166 	ldfvse	f6, [r5], #-408	; 0xfffffe68
 3c8:	00725f74 	rsbseq	r5, r2, r4, ror pc
 3cc:	34317063 	ldrtcc	r7, [r1], #-99	; 0x63
 3d0:	616e655f 	cmnvs	lr, pc, asr r5
 3d4:	00656c62 	rsbeq	r6, r5, r2, ror #24
 3d8:	7561666e 	strbvc	r6, [r1, #-1646]!	; 0x66e
 3dc:	0073746c 	rsbseq	r7, r3, ip, ror #8
 3e0:	30727662 	rsbscc	r7, r2, r2, ror #12
 3e4:	6c61765f 	stclvs	6, cr7, [r1], #-380	; 0xfffffe84
 3e8:	73666400 	cmnvc	r6, #0, 8
 3ec:	65675f72 	strbvs	r5, [r7, #-3954]!	; 0xf72
 3f0:	79730074 	ldmdbvc	r3!, {r2, r4, r5, r6}^
 3f4:	6c616373 	stclvs	3, cr6, [r1], #-460	; 0xfffffe34
 3f8:	65765f6c 	ldrbvs	r5, [r6, #-3948]!	; 0xf6c
 3fc:	726f7463 	rsbvc	r7, pc, #1660944384	; 0x63000000
 400:	65727000 	ldrbvs	r7, [r2, #-0]!
 404:	63746566 	cmnvs	r4, #427819008	; 0x19800000
 408:	6c665f68 	stclvs	15, cr5, [r6], #-416	; 0xfffffe60
 40c:	5f687375 	svcpl	0x00687375
 410:	00746573 	rsbseq	r6, r4, r3, ror r5
 414:	30726362 	rsbscc	r6, r2, r2, ror #6
 418:	6765725f 			; <UNDEFINED> instruction: 0x6765725f
 41c:	6e616800 	cdpvs	8, 6, cr6, cr1, cr0, {0}
 420:	72656c64 	rsbvc	r6, r5, #100, 24	; 0x6400
 424:	7700745f 	smlsdvc	r0, pc, r4, r7	; <UNPREDICTABLE>
 428:	5f726166 	svcpl	0x00726166
 42c:	00746567 	rsbseq	r6, r4, r7, ror #10
 430:	5f737973 	svcpl	0x00737973
 434:	006d756e 	rsbeq	r7, sp, lr, ror #10
 438:	706b7262 	rsbvc	r7, fp, r2, ror #4
 43c:	65735f74 	ldrbvs	r5, [r3, #-3956]!	; 0xf74
 440:	77003074 	smlsdxvc	r0, r4, r0, r3
 444:	5f307263 	svcpl	0x00307263
 448:	00746573 	rsbseq	r6, r4, r3, ror r5
 44c:	5f746e69 	svcpl	0x00746e69
 450:	74696e69 	strbtvc	r6, [r9], #-3689	; 0xe69
 454:	6e697300 	cdpvs	3, 6, cr7, cr9, cr0, {0}
 458:	5f656c67 	svcpl	0x00656c67
 45c:	70657473 	rsbvc	r7, r5, r3, ror r4
 460:	6e61685f 	mcrvs	8, 3, r6, cr1, cr15, {2}
 464:	72656c64 	rsbvc	r6, r5, #100, 24	; 0x6400
 468:	65686300 	strbvs	r6, [r8, #-768]!	; 0x300
 46c:	7a5f6b63 	bvc	17db200 <__bss_end__+0x17d0bc8>
 470:	006f7265 	rsbeq	r7, pc, r5, ror #4
 474:	63656863 	cmnvs	r5, #6488064	; 0x630000
 478:	6e692d6b 	cdpvs	13, 6, cr2, cr9, cr11, {3}
 47c:	6c726574 	cfldr64vs	mvdx6, [r2], #-464	; 0xfffffe30
 480:	65766165 	ldrbvs	r6, [r6, #-357]!	; 0x165
 484:	7500632e 	strvc	r6, [r0, #-814]	; 0x32e
 488:	5f726573 	svcpl	0x00726573
 48c:	6d617274 	sfmvs	f7, 2, [r1, #-464]!	; 0xfffffe30
 490:	696c6f70 	stmdbvs	ip!, {r4, r5, r6, r8, r9, sl, fp, sp, lr}^
 494:	725f656e 	subsvc	r6, pc, #461373440	; 0x1b800000
 498:	65007465 	strvs	r7, [r0, #-1125]	; 0x465
 49c:	63657078 	cmnvs	r5, #120	; 0x78
 4a0:	5f646574 	svcpl	0x00646574
 4a4:	646e6168 	strbtvs	r6, [lr], #-360	; 0x168
 4a8:	6d00656c 	cfstr32vs	mvfx6, [r0, #-432]	; 0xfffffe50
 4ac:	006b7361 	rsbeq	r7, fp, r1, ror #6
 4b0:	73746962 	cmnvc	r4, #1605632	; 0x188000
 4b4:	726c635f 	rsbvc	r6, ip, #2080374785	; 0x7c000001
 4b8:	65686300 	strbvs	r6, [r8, #-768]!	; 0x300
 4bc:	6f5f6b63 	svcvs	0x005f6b63
 4c0:	635f656e 	cmpvs	pc, #461373440	; 0x1b800000
 4c4:	74697773 	strbtvc	r7, [r9], #-1907	; 0x773
 4c8:	6d006863 	stcvs	8, cr6, [r0, #-396]	; 0xfffffe74
 4cc:	5f65646f 	svcpl	0x0065646f
 4d0:	00727473 	rsbseq	r7, r2, r3, ror r4
 4d4:	65646f6d 	strbvs	r6, [r4, #-3949]!	; 0xf6d
 4d8:	7465735f 	strbtvc	r7, [r5], #-863	; 0x35f
 4dc:	65686300 	strbvs	r6, [r8, #-768]!	; 0x300
 4e0:	735f6b63 	cmpvc	pc, #101376	; 0x18c00
 4e4:	65757165 	ldrbvs	r7, [r5, #-357]!	; 0x165
 4e8:	6169746e 	cmnvs	r9, lr, ror #8
 4ec:	7063006c 	rsbvc	r0, r3, ip, rrx
 4f0:	6f5f7273 	svcvs	0x005f7273
 4f4:	6300646c 	movwvs	r6, #1132	; 0x46c
 4f8:	5f727370 	svcpl	0x00727370
 4fc:	72657375 	rsbvc	r7, r5, #-738197503	; 0xd4000001
 500:	67657200 	strbvs	r7, [r5, -r0, lsl #4]!
 504:	5f5f0073 	svcpl	0x005f0073
 508:	63756e67 	cmnvs	r5, #1648	; 0x670
 50c:	5f61765f 	svcpl	0x0061765f
 510:	7473696c 	ldrbtvc	r6, [r3], #-2412	; 0x96c
 514:	62696c00 	rsbvs	r6, r9, #0, 24
 518:	72702f63 	rsbsvc	r2, r0, #396	; 0x18c
 51c:	6b746e69 	blvs	1d1bec8 <__bss_end__+0x1d11890>
 520:	4700632e 	strmi	r6, [r0, -lr, lsr #6]
 524:	4320554e 	teqmi	r0, #327155712	; 0x13800000
 528:	382e3420 	stmdacc	lr!, {r5, sl, ip, sp}
 52c:	2d20332e 	stccs	3, cr3, [r0, #-184]!	; 0xffffff48
 530:	7570636d 	ldrbvc	r6, [r0, #-877]!	; 0x36d
 534:	6d72613d 	ldfvse	f6, [r2, #-244]!	; 0xffffff0c
 538:	36373131 			; <UNDEFINED> instruction: 0x36373131
 53c:	2d667a6a 	vstmdbcs	r6!, {s15-s120}
 540:	6d2d2073 	stcvs	0, cr2, [sp, #-460]!	; 0xfffffe34
 544:	656e7574 	strbvs	r7, [lr, #-1396]!	; 0x574
 548:	6d72613d 	ldfvse	f6, [r2, #-244]!	; 0xffffff0c
 54c:	36373131 			; <UNDEFINED> instruction: 0x36373131
 550:	2d667a6a 	vstmdbcs	r6!, {s15-s120}
 554:	672d2073 			; <UNDEFINED> instruction: 0x672d2073
 558:	20626467 	rsbcs	r6, r2, r7, ror #8
 55c:	20674f2d 	rsbcs	r4, r7, sp, lsr #30
 560:	6474732d 	ldrbtvs	r7, [r4], #-813	; 0x32d
 564:	756e673d 	strbvc	r6, [lr, #-1853]!	; 0x73d
 568:	2d203939 	stccs	9, cr3, [r0, #-228]!	; 0xffffff1c
 56c:	65726666 	ldrbvs	r6, [r2, #-1638]!	; 0x666
 570:	61747365 	cmnvs	r4, r5, ror #6
 574:	6e69646e 	cdpvs	4, 6, cr6, cr9, cr14, {3}
 578:	61760067 	cmnvs	r6, r7, rrx
 57c:	6972705f 	ldmdbvs	r2!, {r0, r1, r2, r3, r4, r6, ip, sp, lr}^
 580:	006b746e 	rsbeq	r7, fp, lr, ror #8
 584:	61765f5f 	cmnvs	r6, pc, asr pc
 588:	73696c5f 	cmnvc	r9, #24320	; 0x5f00
 58c:	552f0074 	strpl	r0, [pc, #-116]!	; 520 <__code_start__-0x7ae0>
 590:	73726573 	cmnvc	r2, #482344960	; 0x1cc00000
 594:	6972622f 	ldmdbvs	r2!, {r0, r1, r2, r3, r5, r9, sp, lr}^
 598:	756a6e61 	strbvc	r6, [sl, #-3681]!	; 0xe61
 59c:	65442f6e 	strbvs	r2, [r4, #-3950]	; 0xf6e
 5a0:	6f746b73 	svcvs	0x00746b73
 5a4:	63732f70 	cmnvs	r3, #112, 30	; 0x1c0
 5a8:	6c6f6f68 	stclvs	15, cr6, [pc], #-416	; 410 <__code_start__-0x7bf0>
 5ac:	7270532f 	rsbsvc	r5, r0, #-1140850688	; 0xbc000000
 5b0:	31676e69 	cmncc	r7, r9, ror #28
 5b4:	2f303239 	svccs	0x00303239
 5b8:	34325343 	ldrtcc	r5, [r2], #-835	; 0x343
 5bc:	2f584c30 	svccs	0x00584c30
 5c0:	34327363 	ldrtcc	r7, [r2], #-867	; 0x363
 5c4:	2d786c30 	ldclcs	12, cr6, [r8, #-192]!	; 0xffffff40
 5c8:	70733032 	rsbsvc	r3, r3, r2, lsr r0
 5cc:	696c2f72 	stmdbvs	ip!, {r1, r4, r5, r6, r8, r9, sl, fp, sp}^
 5d0:	00697062 	rsbeq	r7, r9, r2, rrx
 5d4:	70615f5f 	rsbvc	r5, r1, pc, asr pc
 5d8:	72617500 	rsbvc	r7, r1, #0, 10
 5dc:	75705f74 	ldrbvc	r5, [r0, #-3956]!	; 0xf74
 5e0:	69006374 	stmdbvs	r0, {r2, r4, r5, r6, r8, r9, sp, lr}
 5e4:	7265746e 	rsbvc	r7, r5, #1845493760	; 0x6e000000
 5e8:	5f6c616e 	svcpl	0x006c616e
 5ec:	63747570 	cmnvs	r4, #112, 10	; 0x1c000000
 5f0:	00726168 	rsbseq	r6, r2, r8, ror #2
 5f4:	5f697072 	svcpl	0x00697072
 5f8:	63747570 	cmnvs	r4, #112, 10	; 0x1c000000
 5fc:	00726168 	rsbseq	r6, r2, r8, ror #2
 600:	6362696c 	cmnvs	r2, #108, 18	; 0x1b0000
 604:	7475702f 	ldrbtvc	r7, [r5], #-47	; 0x2f
 608:	72616863 	rsbvc	r6, r1, #6488064	; 0x630000
 60c:	7200632e 	andvc	r6, r0, #-1207959552	; 0xb8000000
 610:	735f6970 	cmpvc	pc, #112, 18	; 0x1c0000
 614:	705f7465 	subsvc	r7, pc, r5, ror #8
 618:	00637475 	rsbeq	r7, r3, r5, ror r4
 61c:	6362696c 	cmnvs	r2, #108, 18	; 0x1b0000
 620:	7475702f 	ldrbtvc	r7, [r5], #-47	; 0x2f
 624:	00632e6b 	rsbeq	r2, r3, fp, ror #28
 628:	65746e69 	ldrbvs	r6, [r4, #-3689]!	; 0xe69
 62c:	6c616e72 	stclvs	14, cr6, [r1], #-456	; 0xfffffe38
 630:	7475705f 	ldrbtvc	r7, [r5], #-95	; 0x5f
 634:	6d66006b 	stclvs	0, cr0, [r6, #-428]!	; 0xfffffe54
 638:	74735f74 	ldrbtvc	r5, [r3], #-3956	; 0xf74
 63c:	00747261 	rsbseq	r7, r4, r1, ror #4
 640:	5f67656e 	svcpl	0x0067656e
 644:	65720070 	ldrbvs	r0, [r2, #-112]!	; 0x70
 648:	73726576 	cmnvc	r2, #494927872	; 0x1d800000
 64c:	73690065 	cmnvc	r9, #101	; 0x65
 650:	69676964 	stmdbvs	r7!, {r2, r5, r6, r8, fp, sp, lr}^
 654:	75700074 	ldrbvc	r0, [r0, #-116]!	; 0x74
 658:	665f7374 			; <UNDEFINED> instruction: 0x665f7374
 65c:	69730070 	ldmdbvs	r3!, {r4, r5, r6}^
 660:	64656e67 	strbtvs	r6, [r5], #-3687	; 0xe67
 664:	6c00705f 	stcvs	0, cr7, [r0], {95}	; 0x5f
 668:	2f636269 	svccs	0x00636269
 66c:	702d6176 	eorvc	r6, sp, r6, ror r1
 670:	746e6972 	strbtvc	r6, [lr], #-2418	; 0x972
 674:	00632e6b 	rsbeq	r2, r3, fp, ror #28
 678:	5f697072 	svcpl	0x00697072
 67c:	5f746573 	svcpl	0x00746573
 680:	7074756f 	rsbsvc	r7, r4, pc, ror #10
 684:	77007475 	smlsdxvc	r0, r5, r4, r7
 688:	68746469 	ldmdavs	r4!, {r0, r3, r5, r6, sl, sp, lr}^
 68c:	74757000 	ldrbtvc	r7, [r5], #-0
 690:	70665f63 	rsbvc	r5, r6, r3, ror #30
 694:	696d6500 	stmdbvs	sp!, {r8, sl, sp, lr}^
 698:	69640074 	stmdbvs	r4!, {r2, r4, r5, r6}^
 69c:	6c626173 	stfvse	f6, [r2], #-460	; 0xfffffe34
 6a0:	61635f65 	cmnvs	r3, r5, ror #30
 6a4:	00656863 	rsbeq	r6, r5, r3, ror #16
 6a8:	66617473 			; <UNDEFINED> instruction: 0x66617473
 6ac:	72732d66 	rsbsvc	r2, r3, #6528	; 0x1980
 6b0:	61632f63 	cmnvs	r3, r3, ror #30
 6b4:	2e656863 	cdpcs	8, 6, cr6, cr5, cr3, {3}
 6b8:	65720063 	ldrbvs	r0, [r2, #-99]!	; 0x63
 6bc:	746f6f62 	strbtvc	r6, [pc], #-3938	; 6c4 <__code_start__-0x793c>
 6c0:	6e61685f 	mcrvs	8, 3, r6, cr1, cr15, {2}
 6c4:	72656c64 	rsbvc	r6, r5, #100, 24	; 0x6400
 6c8:	61747300 	cmnvs	r4, r0, lsl #6
 6cc:	732d6666 	teqvc	sp, #106954752	; 0x6600000
 6d0:	632f6372 	teqvs	pc, #-939524095	; 0xc8000001
 6d4:	6e61656c 	cdpvs	5, 6, cr6, cr1, cr12, {3}
 6d8:	6265722d 	rsbvs	r7, r5, #-805306366	; 0xd0000002
 6dc:	2e746f6f 	cdpcs	15, 7, cr6, cr4, cr15, {3}
 6e0:	70720063 	rsbsvc	r0, r2, r3, rrx
 6e4:	65725f69 	ldrbvs	r5, [r2, #-3945]!	; 0xf69
 6e8:	746f6f62 	strbtvc	r6, [pc], #-3938	; 6f0 <__code_start__-0x7910>
 6ec:	6c656400 	cfstrdvs	mvd6, [r5], #-0
 6f0:	6d5f7961 	ldclvs	9, cr7, [pc, #-388]	; 574 <__code_start__-0x7a8c>
 6f4:	5f5f0073 	svcpl	0x005f0073
 6f8:	5f737362 	svcpl	0x00737362
 6fc:	72617473 	rsbvc	r7, r1, #1929379840	; 0x73000000
 700:	005f5f74 	subseq	r5, pc, r4, ror pc	; <UNPREDICTABLE>
 704:	73625f5f 	cmnvc	r2, #380	; 0x17c
 708:	6e655f73 	mcrvs	15, 3, r5, cr5, cr3, {3}
 70c:	005f5f64 	subseq	r5, pc, r4, ror #30
 710:	61747363 	cmnvs	r4, r3, ror #6
 714:	685f7472 	ldmdavs	pc, {r1, r4, r5, r6, sl, ip, sp, lr}^	; <UNPREDICTABLE>
 718:	6c646e61 	stclvs	14, cr6, [r4], #-388	; 0xfffffe7c
 71c:	62007265 	andvs	r7, r0, #1342177286	; 0x50000006
 720:	655f7373 	ldrbvs	r7, [pc, #-883]	; 3b5 <__code_start__-0x7c4b>
 724:	5f00646e 	svcpl	0x0000646e
 728:	61747363 	cmnvs	r4, r3, ror #6
 72c:	73007472 	movwvc	r7, #1138	; 0x472
 730:	66666174 			; <UNDEFINED> instruction: 0x66666174
 734:	6372732d 	cmnvs	r2, #-1275068416	; 0xb4000000
 738:	7473632f 	ldrbtvc	r6, [r3], #-815	; 0x32f
 73c:	2e747261 	cdpcs	2, 7, cr7, cr4, cr1, {3}
 740:	74730063 	ldrbtvc	r0, [r3], #-99	; 0x63
 744:	2d666661 	stclcs	6, cr6, [r6, #-388]!	; 0xfffffe7c
 748:	2f637273 	svccs	0x00637273
 74c:	61666564 	cmnvs	r6, r4, ror #10
 750:	2d746c75 	ldclcs	12, cr6, [r4, #-468]!	; 0xfffffe2c
 754:	646e6168 	strbtvs	r6, [lr], #-360	; 0x168
 758:	2d72656c 	cfldr64cs	mvdx6, [r2, #-432]!	; 0xfffffe50
 75c:	74736166 	ldrbtvc	r6, [r3], #-358	; 0x166
 760:	6600632e 	strvs	r6, [r0], -lr, lsr #6
 764:	5f747361 	svcpl	0x00747361
 768:	65746e69 	ldrbvs	r6, [r4, #-3689]!	; 0xe69
 76c:	70757272 	rsbsvc	r7, r5, r2, ror r2
 770:	65765f74 	ldrbvs	r5, [r6, #-3956]!	; 0xf74
 774:	726f7463 	rsbvc	r7, pc, #1660944384	; 0x63000000
 778:	73657200 	cmnvc	r5, #0, 4
 77c:	765f7465 	ldrbvc	r7, [pc], -r5, ror #8
 780:	6f746365 	svcvs	0x00746365
 784:	74730072 	ldrbtvc	r0, [r3], #-114	; 0x72
 788:	2d666661 	stclcs	6, cr6, [r6, #-388]!	; 0xfffffe7c
 78c:	2f637273 	svccs	0x00637273
 790:	61666564 	cmnvs	r6, r4, ror #10
 794:	2d746c75 	ldclcs	12, cr6, [r4, #-468]!	; 0xfffffe2c
 798:	646e6168 	strbtvs	r6, [lr], #-360	; 0x168
 79c:	2d72656c 	cfldr64cs	mvdx6, [r2, #-432]!	; 0xfffffe50
 7a0:	65736572 	ldrbvs	r6, [r3, #-1394]!	; 0x572
 7a4:	00632e74 	rsbeq	r2, r3, r4, ror lr
 7a8:	66617473 			; <UNDEFINED> instruction: 0x66617473
 7ac:	72732d66 	rsbsvc	r2, r3, #6528	; 0x1980
 7b0:	65642f63 	strbvs	r2, [r4, #-3939]!	; 0xf63
 7b4:	6c756166 	ldfvse	f6, [r5], #-408	; 0xfffffe68
 7b8:	61682d74 	smcvs	33492	; 0x82d4
 7bc:	656c646e 	strbvs	r6, [ip, #-1134]!	; 0x46e
 7c0:	6e752d72 	mrcvs	13, 3, r2, cr5, cr2, {3}
 7c4:	69666564 	stmdbvs	r6!, {r2, r5, r6, r8, sl, sp, lr}^
 7c8:	2d64656e 	cfstr64cs	mvdx6, [r4, #-440]!	; 0xfffffe48
 7cc:	74736e69 	ldrbtvc	r6, [r3], #-3689	; 0xe69
 7d0:	7500632e 	strvc	r6, [r0, #-814]	; 0x32e
 7d4:	6665646e 	strbtvs	r6, [r5], -lr, ror #8
 7d8:	64656e69 	strbtvs	r6, [r5], #-3689	; 0xe69
 7dc:	736e695f 	cmnvc	lr, #1556480	; 0x17c000
 7e0:	63757274 	cmnvs	r5, #116, 4	; 0x40000007
 7e4:	6e6f6974 	mcrvs	9, 3, r6, cr15, cr4, {3}
 7e8:	6365765f 	cmnvs	r5, #99614720	; 0x5f00000
 7ec:	00726f74 	rsbseq	r6, r2, r4, ror pc
 7f0:	66617473 			; <UNDEFINED> instruction: 0x66617473
 7f4:	72732d66 	rsbsvc	r2, r3, #6528	; 0x1980
 7f8:	65642f63 	strbvs	r2, [r4, #-3939]!	; 0xf63
 7fc:	6c756166 	ldfvse	f6, [r5], #-408	; 0xfffffe68
 800:	61682d74 	smcvs	33492	; 0x82d4
 804:	656c646e 	strbvs	r6, [ip, #-1134]!	; 0x46e
 808:	632e7372 	teqvs	lr, #-939524095	; 0xc8000001
 80c:	51524900 	cmppl	r2, r0, lsl #18
 810:	6e65705f 	mcrvs	0, 3, r7, cr5, cr15, {2}
 814:	676e6964 	strbvs	r6, [lr, -r4, ror #18]!
 818:	4400325f 	strmi	r3, [r0], #-607	; 0x25f
 81c:	62617369 	rsbvs	r7, r1, #-1543503871	; 0xa4000001
 820:	425f656c 	subsmi	r6, pc, #108, 10	; 0x1b000000
 824:	63697361 	cmnvs	r9, #-2080374783	; 0x84000001
 828:	5152495f 	cmppl	r2, pc, asr r9
 82c:	49460073 	stmdbmi	r6, {r0, r1, r4, r5, r6}^
 830:	6f635f51 	svcvs	0x00635f51
 834:	6f72746e 	svcvs	0x0072746e
 838:	695f006c 	ldmdbvs	pc, {r2, r3, r5, r6}^	; <UNPREDICTABLE>
 83c:	7265746e 	rsbvc	r7, r5, #1845493760	; 0x6e000000
 840:	74707572 	ldrbtvc	r7, [r0], #-1394	; 0x572
 844:	6261745f 	rsbvs	r7, r1, #1593835520	; 0x5f000000
 848:	4900656c 	stmdbmi	r0, {r2, r3, r5, r6, r8, sl, sp, lr}
 84c:	625f5152 	subsvs	r5, pc, #-2147483628	; 0x80000014
 850:	63697361 	cmnvs	r9, #-2080374783	; 0x84000001
 854:	6e65705f 	mcrvs	0, 3, r7, cr5, cr15, {2}
 858:	676e6964 	strbvs	r6, [lr, -r4, ror #18]!
 85c:	616e4500 	cmnvs	lr, r0, lsl #10
 860:	5f656c62 	svcpl	0x00656c62
 864:	69736142 	ldmdbvs	r3!, {r1, r6, r8, sp, lr}^
 868:	52495f63 	subpl	r5, r9, #396	; 0x18c
 86c:	45007351 	strmi	r7, [r0, #-849]	; 0x351
 870:	6c62616e 	stfvse	f6, [r2], #-440	; 0xfffffe48
 874:	52495f65 	subpl	r5, r9, #404	; 0x194
 878:	315f7351 	cmpcc	pc, r1, asr r3	; <UNPREDICTABLE>
 87c:	616e4500 	cmnvs	lr, r0, lsl #10
 880:	5f656c62 	svcpl	0x00656c62
 884:	73515249 	cmpvc	r1, #-1879048188	; 0x90000004
 888:	5f00325f 	svcpl	0x0000325f
 88c:	65746e69 	ldrbvs	r6, [r4, #-3689]!	; 0xe69
 890:	70757272 	rsbsvc	r7, r5, r2, ror r2
 894:	61745f74 	cmnvs	r4, r4, ror pc
 898:	5f656c62 	svcpl	0x00656c62
 89c:	00646e65 	rsbeq	r6, r4, r5, ror #28
 8a0:	5f766564 	svcpl	0x00766564
 8a4:	72726162 	rsbsvc	r6, r2, #-2147483624	; 0x80000018
 8a8:	00726569 	rsbseq	r6, r2, r9, ror #10
 8ac:	66617473 			; <UNDEFINED> instruction: 0x66617473
 8b0:	72732d66 	rsbsvc	r2, r3, #6528	; 0x1980
 8b4:	6e692f63 	cdpvs	15, 6, cr2, cr9, cr3, {3}
 8b8:	72726574 	rsbsvc	r6, r2, #116, 10	; 0x1d000000
 8bc:	73747075 	cmnvc	r4, #117	; 0x75
 8c0:	632e632d 	teqvs	lr, #-1275068416	; 0xb4000000
 8c4:	51524900 	cmppl	r2, r0, lsl #18
 8c8:	7361425f 	cmnvc	r1, #-268435451	; 0xf0000005
 8cc:	55500065 	ldrbpl	r0, [r0, #-101]	; 0x65
 8d0:	00323354 	eorseq	r3, r2, r4, asr r3
 8d4:	61736944 	cmnvs	r3, r4, asr #18
 8d8:	5f656c62 	svcpl	0x00656c62
 8dc:	73515249 	cmpvc	r1, #-1879048188	; 0x90000004
 8e0:	4400315f 	strmi	r3, [r0], #-351	; 0x15f
 8e4:	62617369 	rsbvs	r7, r1, #-1543503871	; 0xa4000001
 8e8:	495f656c 	ldmdbmi	pc, {r2, r3, r5, r6, r8, sl, sp, lr}^	; <UNPREDICTABLE>
 8ec:	5f735152 	svcpl	0x00735152
 8f0:	52490032 	subpl	r0, r9, #50	; 0x32
 8f4:	65705f51 	ldrbvs	r5, [r0, #-3921]!	; 0xf51
 8f8:	6e69646e 	cdpvs	4, 6, cr6, cr9, cr14, {3}
 8fc:	00315f67 	eorseq	r5, r1, r7, ror #30
 900:	755f7461 	ldrbvc	r7, [pc, #-1121]	; 4a7 <__code_start__-0x7b59>
 904:	5f726573 	svcpl	0x00726573
 908:	6576656c 	ldrbvs	r6, [r6, #-1388]!	; 0x56c
 90c:	7473006c 	ldrbtvc	r0, [r3], #-108	; 0x6c
 910:	2d666661 	stclcs	6, cr6, [r6, #-388]!	; 0xfffffe7c
 914:	2f637273 	svccs	0x00637273
 918:	6f626572 	svcvs	0x00626572
 91c:	632e746f 	teqvs	lr, #1862270976	; 0x6f000000
 920:	5f4d5000 	svcpl	0x004d5000
 924:	43545352 	cmpmi	r4, #1207959553	; 0x48000001
 928:	4352575f 	cmpmi	r2, #24903680	; 0x17c0000
 92c:	465f4746 	ldrbmi	r4, [pc], -r6, asr #14
 930:	5f4c4c55 	svcpl	0x004c4c55
 934:	45534552 	ldrbmi	r4, [r3, #-1362]	; 0x552
 938:	4d500054 	ldclmi	0, cr0, [r0, #-336]	; 0xfffffeb0
 93c:	4f44575f 	svcmi	0x0044575f
 940:	65730047 	ldrbvs	r0, [r3, #-71]!	; 0x47
 944:	73755f74 	cmnvc	r5, #116, 30	; 0x1d0
 948:	6c5f7265 	lfmvs	f7, 2, [pc], {101}	; 0x65
 94c:	6c657665 	stclvs	6, cr7, [r5], #-404	; 0xfffffe6c
 950:	5f4d5000 	svcpl	0x004d5000
 954:	53534150 	cmppl	r3, #80, 2
 958:	44524f57 	ldrbmi	r4, [r2], #-3927	; 0xf57
 95c:	5f4d5000 	svcpl	0x004d5000
 960:	43545352 	cmpmi	r4, #1207959553	; 0x48000001
 964:	6d697400 	cfstrdvs	mvd7, [r9, #-0]
 968:	675f7265 	ldrbvs	r7, [pc, -r5, ror #4]
 96c:	755f7465 	ldrbvc	r7, [pc, #-1125]	; 50f <__code_start__-0x7af1>
 970:	5f636573 	svcpl	0x00636573
 974:	00776172 	rsbseq	r6, r7, r2, ror r1
 978:	616c6564 	cmnvs	ip, r4, ror #10
 97c:	65735f79 	ldrbvs	r5, [r3, #-3961]!	; 0xf79
 980:	74730063 	ldrbtvc	r0, [r3], #-99	; 0x63
 984:	2d666661 	stclcs	6, cr6, [r6, #-388]!	; 0xfffffe7c
 988:	2f637273 	svccs	0x00637273
 98c:	656d6974 	strbvs	r6, [sp, #-2420]!	; 0x974
 990:	00632e72 	rsbeq	r2, r3, r2, ror lr
 994:	33544547 	cmpcc	r4, #297795584	; 0x11c00000
 998:	69740032 	ldmdbvs	r4!, {r1, r4, r5}^
 99c:	00736b63 	rsbseq	r6, r3, r3, ror #22
 9a0:	616c6564 	cmnvs	ip, r4, ror #10
 9a4:	79635f79 	stmdbvc	r3!, {r0, r3, r4, r5, r6, r8, r9, sl, fp, ip, lr}^
 9a8:	73656c63 	cmnvc	r5, #25344	; 0x6300
 9ac:	6c656400 	cfstrdvs	mvd6, [r5], #-0
 9b0:	755f7961 	ldrbvc	r7, [pc, #-2401]	; 57 <__code_start__-0x7fa9>
 9b4:	69740073 	ldmdbvs	r4!, {r0, r1, r4, r5, r6}^
 9b8:	5f72656d 	svcpl	0x0072656d
 9bc:	5f746567 	svcpl	0x00746567
 9c0:	63657375 	cmnvs	r5, #-738197503	; 0xd4000001
 9c4:	73645f00 	cmnvc	r4, #0, 30
 9c8:	61685f6f 	cmnvs	r8, pc, ror #30
 9cc:	656c646e 	strbvs	r6, [ip, #-1134]!	; 0x46e
 9d0:	69735f00 	ldmdbvs	r3!, {r8, r9, sl, fp, ip, lr}^
 9d4:	5f00657a 	svcpl	0x0000657a
 9d8:	646e6172 	strbtvs	r6, [lr], #-370	; 0x172
 9dc:	5f003834 	svcpl	0x00003834
 9e0:	72656d65 	rsbvc	r6, r5, #6464	; 0x1940
 9e4:	636e6567 	cmnvs	lr, #432013312	; 0x19c00000
 9e8:	61750079 	cmnvs	r5, r9, ror r0
 9ec:	695f7472 	ldmdbvs	pc, {r1, r4, r5, r6, sl, ip, sp, lr}^	; <UNPREDICTABLE>
 9f0:	0074696e 	rsbseq	r6, r4, lr, ror #18
 9f4:	7263775f 	rsbvc	r7, r3, #24903680	; 0x17c0000
 9f8:	626d6f74 	rsbvs	r6, sp, #116, 30	; 0x1d0
 9fc:	6174735f 	cmnvs	r4, pc, asr r3
 a00:	5f006574 	svcpl	0x00006574
 a04:	72736377 	rsbsvc	r6, r3, #-603979775	; 0xdc000001
 a08:	626d6f74 	rsbvs	r6, sp, #116, 30	; 0x1d0
 a0c:	74735f73 	ldrbtvc	r5, [r3], #-3955	; 0xf73
 a10:	00657461 	rsbeq	r7, r5, r1, ror #8
 a14:	66626c5f 			; <UNDEFINED> instruction: 0x66626c5f
 a18:	657a6973 	ldrbvs	r6, [sl, #-2419]!	; 0x973
 a1c:	49504700 	ldmdbmi	r0, {r8, r9, sl, lr}^
 a20:	55465f4f 	strbpl	r5, [r6, #-3919]	; 0xf4f
 a24:	495f434e 	ldmdbmi	pc, {r1, r2, r3, r6, r8, r9, lr}^	; <UNPREDICTABLE>
 a28:	5455504e 	ldrbpl	r5, [r5], #-78	; 0x4e
 a2c:	626d5f00 	rsbvs	r5, sp, #0, 30
 a30:	776f7472 			; <UNDEFINED> instruction: 0x776f7472
 a34:	74735f63 	ldrbtvc	r5, [r3], #-3939	; 0xf63
 a38:	00657461 	rsbeq	r7, r5, r1, ror #8
 a3c:	7463775f 	strbtvc	r7, [r3], #-1887	; 0x75f
 a40:	5f626d6f 	svcpl	0x00626d6f
 a44:	74617473 	strbtvc	r7, [r1], #-1139	; 0x473
 a48:	5f5f0065 	svcpl	0x005f0065
 a4c:	735f6d74 	cmpvc	pc, #116, 26	; 0x1d00
 a50:	73006365 	movwvc	r6, #869	; 0x365
 a54:	00746174 	rsbseq	r6, r4, r4, ror r1
 a58:	7562755f 	strbvc	r7, [r2, #-1375]!	; 0x55f
 a5c:	50470066 	subpl	r0, r7, r6, rrx
 a60:	465f4f49 	ldrbmi	r4, [pc], -r9, asr #30
 a64:	5f434e55 	svcpl	0x00434e55
 a68:	31544c41 	cmpcc	r4, r1, asr #24
 a6c:	61625f00 	cmnvs	r2, r0, lsl #30
 a70:	63006573 	movwvs	r6, #1395	; 0x573
 a74:	006c746e 	rsbeq	r7, ip, lr, ror #8
 a78:	6d745f5f 	ldclvs	15, cr5, [r4, #-380]!	; 0xfffffe84
 a7c:	756f685f 	strbvc	r6, [pc, #-2143]!	; 225 <__code_start__-0x7ddb>
 a80:	5f5f0072 	svcpl	0x005f0072
 a84:	5f006673 	svcpl	0x00006673
 a88:	655f6e6f 	ldrbvs	r6, [pc, #-3695]	; fffffc21 <__bss_end__+0xffff55e9>
 a8c:	5f746978 	svcpl	0x00746978
 a90:	73677261 	cmnvc	r7, #268435462	; 0x10000006
 a94:	6f635f00 	svcvs	0x00635f00
 a98:	65696b6f 	strbvs	r6, [r9, #-2927]!	; 0xb6f
 a9c:	735f5f00 	cmpvc	pc, #0, 30
 aa0:	65756c67 	ldrbvs	r6, [r5, #-3175]!	; 0xc67
 aa4:	6c665f00 	stclvs	15, cr5, [r6], #-0
 aa8:	00736761 	rsbseq	r6, r3, r1, ror #14
 aac:	5f73695f 	svcpl	0x0073695f
 ab0:	00617863 	rsbeq	r7, r1, r3, ror #16
 ab4:	6474735f 	ldrbtvs	r7, [r4], #-863	; 0x35f
 ab8:	5f006e69 	svcpl	0x00006e69
 abc:	736b6c62 	cmnvc	fp, #25088	; 0x6200
 ac0:	00657a69 	rsbeq	r7, r5, r9, ror #20
 ac4:	74726175 	ldrbtvc	r6, [r2], #-373	; 0x175
 ac8:	6100632e 	tstvs	r0, lr, lsr #6
 acc:	705f7875 	subsvc	r7, pc, r5, ror r8	; <UNPREDICTABLE>
 ad0:	70697265 	rsbvc	r7, r9, r5, ror #4
 ad4:	5f007368 	svcpl	0x00007368
 ad8:	62747663 	rsbsvs	r7, r4, #103809024	; 0x6300000
 adc:	2f006675 	svccs	0x00006675
 ae0:	656d6f68 	strbvs	r6, [sp, #-3944]!	; 0xf68
 ae4:	676e652f 	strbvs	r6, [lr, -pc, lsr #10]!
 ae8:	2f72656c 	svccs	0x0072656c
 aec:	73616c63 	cmnvc	r1, #25344	; 0x6300
 af0:	73632f73 	cmnvc	r3, #460	; 0x1cc
 af4:	6c303432 	cfldrsvs	mvf3, [r0], #-200	; 0xffffff38
 af8:	30322d78 	eorscc	r2, r2, r8, ror sp
 afc:	2f727073 	svccs	0x00727073
 b00:	7062696c 	rsbvc	r6, r2, ip, ror #18
 b04:	74732f69 	ldrbtvc	r2, [r3], #-3945	; 0xf69
 b08:	2d666661 	stclcs	6, cr6, [r6, #-388]!	; 0xfffffe7c
 b0c:	76697270 			; <UNDEFINED> instruction: 0x76697270
 b10:	00657461 	rsbeq	r7, r5, r1, ror #8
 b14:	73626d5f 	cmnvc	r2, #6080	; 0x17c0
 b18:	776f7472 			; <UNDEFINED> instruction: 0x776f7472
 b1c:	735f7363 	cmpvc	pc, #-1946157055	; 0x8c000001
 b20:	65746174 	ldrbvs	r6, [r4, #-372]!	; 0x174
 b24:	626d5f00 	rsbvs	r5, sp, #0, 30
 b28:	6e656c72 	mcrvs	12, 3, r6, cr5, cr2, {3}
 b2c:	6174735f 	cmnvs	r4, pc, asr r3
 b30:	5f006574 	svcpl	0x00006574
 b34:	72616e66 	rsbvc	r6, r1, #1632	; 0x660
 b38:	61007367 	tstvs	r0, r7, ror #6
 b3c:	655f7875 	ldrbvs	r7, [pc, #-2165]	; 2cf <__code_start__-0x7d31>
 b40:	6c62616e 	stfvse	f6, [r2], #-440	; 0xfffffe48
 b44:	5f007365 	svcpl	0x00007365
 b48:	00736e66 	rsbseq	r6, r3, r6, ror #28
 b4c:	6769735f 			; <UNDEFINED> instruction: 0x6769735f
 b50:	6175006e 	cmnvs	r5, lr, rrx
 b54:	635f7472 	cmpvs	pc, #1912602624	; 0x72000000
 b58:	705f6e61 	subsvc	r6, pc, r1, ror #28
 b5c:	00637475 	rsbeq	r7, r3, r5, ror r4
 b60:	6f6c665f 	svcvs	0x006c665f
 b64:	745f6b63 	ldrbvc	r6, [pc], #-2915	; b6c <__code_start__-0x7494>
 b68:	74735f00 	ldrbtvc	r5, [r3], #-3840	; 0xf00
 b6c:	72726564 	rsbsvc	r6, r2, #100, 10	; 0x19000000
 b70:	69425f00 	stmdbvs	r2, {r8, r9, sl, fp, ip, lr}^
 b74:	746e6967 	strbtvc	r6, [lr], #-2407	; 0x967
 b78:	61675f00 	cmnvs	r7, r0, lsl #30
 b7c:	5f616d6d 	svcpl	0x00616d6d
 b80:	6e676973 	mcrvs	9, 3, r6, cr7, cr3, {3}
 b84:	006d6167 	rsbeq	r6, sp, r7, ror #2
 b88:	7365725f 	cmnvc	r5, #-268435451	; 0xf0000005
 b8c:	5f746c75 	svcpl	0x00746c75
 b90:	5f5f006b 	svcpl	0x005f006b
 b94:	5f006d74 	svcpl	0x00006d74
 b98:	6863775f 	stmdavs	r3!, {r0, r1, r2, r3, r4, r6, r8, r9, sl, ip, sp, lr}^
 b9c:	61750062 	cmnvs	r5, r2, rrx
 ba0:	675f7472 			; <UNDEFINED> instruction: 0x675f7472
 ba4:	00637465 	rsbeq	r7, r3, r5, ror #8
 ba8:	6474735f 	ldrbtvs	r7, [r4], #-863	; 0x35f
 bac:	0074756f 	rsbseq	r7, r4, pc, ror #10
 bb0:	7476635f 	ldrbtvc	r6, [r6], #-863	; 0x35f
 bb4:	006e656c 	rsbeq	r6, lr, ip, ror #10
 bb8:	6c69665f 	stclvs	6, cr6, [r9], #-380	; 0xfffffe84
 bbc:	6e5f0065 	cdpvs	0, 5, cr0, cr15, cr5, {3}
 bc0:	73626f69 	cmnvc	r2, #420	; 0x1a4
 bc4:	74615f00 	strbtvc	r5, [r1], #-3840	; 0xf00
 bc8:	74697865 	strbtvc	r7, [r9], #-2149	; 0x865
 bcc:	735f0030 	cmpvc	pc, #48	; 0x30
 bd0:	616e6769 	cmnvs	lr, r9, ror #14
 bd4:	75625f6c 	strbvc	r5, [r2, #-3948]!	; 0xf6c
 bd8:	615f0066 	cmpvs	pc, r6, rrx
 bdc:	69746373 	ldmdbvs	r4!, {r0, r1, r4, r5, r6, r8, r9, sp, lr}^
 be0:	625f656d 	subsvs	r6, pc, #457179136	; 0x1b400000
 be4:	5f006675 	svcpl	0x00006675
 be8:	75736572 	ldrbvc	r6, [r3, #-1394]!	; 0x572
 bec:	5f00746c 	svcpl	0x0000746c
 bf0:	6863775f 	stmdavs	r3!, {r0, r1, r2, r3, r4, r6, r8, r9, sl, ip, sp, lr}^
 bf4:	49504700 	ldmdbmi	r0, {r8, r9, sl, lr}^
 bf8:	55465f4f 	strbpl	r5, [r6, #-3919]	; 0xf4f
 bfc:	415f434e 	cmpmi	pc, lr, asr #6
 c00:	0032544c 	eorseq	r5, r2, ip, asr #8
 c04:	746e6977 	strbtvc	r6, [lr], #-2423	; 0x977
 c08:	5f00745f 	svcpl	0x0000745f
 c0c:	6b636f6c 	blvs	18dc9c4 <__bss_end__+0x18d238c>
 c10:	6c665f00 	stclvs	15, cr5, [r6], #-0
 c14:	32736761 	rsbscc	r6, r3, #25427968	; 0x1840000
 c18:	745f5f00 	ldrbvc	r5, [pc], #-3840	; c20 <__code_start__-0x73e0>
 c1c:	65795f6d 	ldrbvs	r5, [r9, #-3949]!	; 0xf6d
 c20:	5f007261 	svcpl	0x00007261
 c24:	7366666f 	cmnvc	r6, #116391936	; 0x6f00000
 c28:	67007465 	strvs	r7, [r0, -r5, ror #8]
 c2c:	5f6f6970 	svcpl	0x006f6970
 c30:	5f746573 	svcpl	0x00746573
 c34:	636e7566 	cmnvs	lr, #427819008	; 0x19800000
 c38:	6e6f6974 	mcrvs	9, 3, r6, cr15, cr4, {3}
 c3c:	656e5f00 	strbvs	r5, [lr, #-3840]!	; 0xf00
 c40:	00667478 	rsbeq	r7, r6, r8, ror r4
 c44:	6d745f5f 	ldclvs	15, cr5, [r4, #-380]!	; 0xfffffe84
 c48:	6e6f6d5f 	mcrvs	13, 3, r6, cr15, cr15, {2}
 c4c:	74615f00 	strbtvc	r5, [r1], #-3840	; 0xf00
 c50:	74697865 	strbtvc	r7, [r9], #-2149	; 0x865
 c54:	735f5f00 	cmpvc	pc, #0, 30
 c58:	69646964 	stmdbvs	r4!, {r2, r5, r6, r8, fp, sp, lr}^
 c5c:	0074696e 	rsbseq	r6, r4, lr, ror #18
 c60:	66666f5f 	uqsaxvs	r6, r6, pc	; <UNPREDICTABLE>
 c64:	7500745f 	strvc	r7, [r0, #-1119]	; 0x45f
 c68:	00747261 	rsbseq	r7, r4, r1, ror #4
 c6c:	6572665f 	ldrbvs	r6, [r2, #-1631]!	; 0x65f
 c70:	73696c65 	cmnvc	r9, #25856	; 0x6500
 c74:	4c5f0074 	mrrcmi	0, 7, r0, pc, cr4	; <UNPREDICTABLE>
 c78:	5f4b434f 	svcpl	0x004b434f
 c7c:	55434552 	strbpl	r4, [r3, #-1362]	; 0x552
 c80:	56495352 			; <UNDEFINED> instruction: 0x56495352
 c84:	00545f45 	subseq	r5, r4, r5, asr #30
 c88:	77656e5f 			; <UNDEFINED> instruction: 0x77656e5f
 c8c:	5f685f00 	svcpl	0x00685f00
 c90:	6e727265 	cdpvs	2, 7, cr7, cr2, cr5, {3}
 c94:	5f5f006f 	svcpl	0x005f006f
 c98:	795f6d74 	ldmdbvc	pc, {r2, r4, r5, r6, r8, sl, fp, sp, lr}^	; <UNPREDICTABLE>
 c9c:	00796164 	rsbseq	r6, r9, r4, ror #2
 ca0:	62735f5f 	rsbsvs	r5, r3, #380	; 0x17c
 ca4:	5f006675 	svcpl	0x00006675
 ca8:	73626f69 	cmnvc	r2, #420	; 0x1a4
 cac:	465f5f00 	ldrbmi	r5, [pc], -r0, lsl #30
 cb0:	00454c49 	subeq	r4, r5, r9, asr #24
 cb4:	73626d5f 	cmnvc	r2, #6080	; 0x17c0
 cb8:	65746174 	ldrbvs	r6, [r4, #-372]!	; 0x174
 cbc:	5f00745f 	svcpl	0x0000745f
 cc0:	4946735f 	stmdbmi	r6, {r0, r1, r2, r3, r4, r6, r8, r9, ip, sp, lr}^
 cc4:	5f00454c 	svcpl	0x0000454c
 cc8:	7473626d 	ldrbtvc	r6, [r3], #-621	; 0x26d
 ccc:	00657461 	rsbeq	r7, r5, r1, ror #8
 cd0:	6e61725f 	mcrvs	2, 3, r7, cr1, cr15, {2}
 cd4:	656e5f64 	strbvs	r5, [lr, #-3940]!	; 0xf64
 cd8:	5f007478 	svcpl	0x00007478
 cdc:	656c626d 	strbvs	r6, [ip, #-621]!	; 0x26d
 ce0:	74735f6e 	ldrbtvc	r5, [r3], #-3950	; 0xf6e
 ce4:	00657461 	rsbeq	r7, r5, r1, ror #8
 ce8:	636e695f 	cmnvs	lr, #1556480	; 0x17c000
 cec:	6e695f00 	cdpvs	15, 6, cr5, cr9, cr0, {0}
 cf0:	635f0064 	cmpvs	pc, #100	; 0x64
 cf4:	65727275 	ldrbvs	r7, [r2, #-629]!	; 0x275
 cf8:	6c5f746e 	cfldrdvs	mvd7, [pc], {110}	; 0x6e
 cfc:	6c61636f 	stclvs	3, cr6, [r1], #-444	; 0xfffffe44
 d00:	5f5f0065 	svcpl	0x005f0065
 d04:	61656c63 	cmnvs	r5, r3, ror #24
 d08:	0070756e 	rsbseq	r7, r0, lr, ror #10
 d0c:	78616d5f 	stmdavc	r1!, {r0, r1, r2, r3, r4, r6, r8, sl, fp, sp, lr}^
 d10:	00736477 	rsbseq	r6, r3, r7, ror r4
 d14:	6565725f 	strbvs	r7, [r5, #-607]!	; 0x25f
 d18:	5f00746e 	svcpl	0x0000746e
 d1c:	64656573 	strbtvs	r6, [r5], #-1395	; 0x573
 d20:	635f5f00 	cmpvs	pc, #0, 30
 d24:	746e756f 	strbtvc	r7, [lr], #-1391	; 0x56f
 d28:	765f5f00 	ldrbvc	r5, [pc], -r0, lsl #30
 d2c:	65756c61 	ldrbvs	r6, [r5, #-3169]!	; 0xc61
 d30:	65735f00 	ldrbvs	r5, [r3, #-3840]!	; 0xf00
 d34:	62006b65 	andvs	r6, r0, #103424	; 0x19400
 d38:	00647561 	rsbeq	r7, r4, r1, ror #10
 d3c:	6f70665f 	svcvs	0x0070665f
 d40:	00745f73 	rsbseq	r5, r4, r3, ror pc
 d44:	6d745f5f 	ldclvs	15, cr5, [r4, #-380]!	; 0xfffffe84
 d48:	6e696d5f 	mcrvs	13, 3, r6, cr9, cr15, {2}
 d4c:	72637300 	rsbvc	r7, r3, #0, 6
 d50:	68637461 	stmdavs	r3!, {r0, r5, r6, sl, ip, sp, lr}^
 d54:	756d5f00 	strbvc	r5, [sp, #-3840]!	; 0xf00
 d58:	7000746c 	andvc	r7, r0, ip, ror #8
 d5c:	32337475 	eorscc	r7, r3, #1962934272	; 0x75000000
 d60:	554e4700 	strbpl	r4, [lr, #-1792]	; 0x700
 d64:	39394320 	ldmdbcc	r9!, {r5, r8, r9, lr}
 d68:	332e3620 	teqcc	lr, #32, 12	; 0x2000000
 d6c:	3220312e 	eorcc	r3, r0, #-2147483637	; 0x8000000b
 d70:	30373130 	eorscc	r3, r7, r0, lsr r1
 d74:	20303236 	eorscs	r3, r0, r6, lsr r2
 d78:	70636d2d 	rsbvc	r6, r3, sp, lsr #26
 d7c:	72613d75 	rsbvc	r3, r1, #7488	; 0x1d40
 d80:	3731316d 	ldrcc	r3, [r1, -sp, ror #2]!
 d84:	667a6a36 			; <UNDEFINED> instruction: 0x667a6a36
 d88:	2d20732d 	stccs	3, cr7, [r0, #-180]!	; 0xffffff4c
 d8c:	6e75746d 	cdpvs	4, 7, cr7, cr5, cr13, {3}
 d90:	72613d65 	rsbvc	r3, r1, #6464	; 0x1940
 d94:	3731316d 	ldrcc	r3, [r1, -sp, ror #2]!
 d98:	667a6a36 			; <UNDEFINED> instruction: 0x667a6a36
 d9c:	2d20732d 	stccs	3, cr7, [r0, #-180]!	; 0xffffff4c
 da0:	62646767 	rsbvs	r6, r4, #27000832	; 0x19c0000
 da4:	674f2d20 	strbvs	r2, [pc, -r0, lsr #26]
 da8:	74732d20 	ldrbtvc	r2, [r3], #-3360	; 0xd20
 dac:	6e673d64 	cdpvs	13, 6, cr3, cr7, cr4, {3}
 db0:	20393975 	eorscs	r3, r9, r5, ror r9
 db4:	7266662d 	rsbvc	r6, r6, #47185920	; 0x2d00000
 db8:	74736565 	ldrbtvc	r6, [r3], #-1381	; 0x565
 dbc:	69646e61 	stmdbvs	r4!, {r0, r5, r6, r9, sl, fp, sp, lr}^
 dc0:	5f00676e 	svcpl	0x0000676e
 dc4:	74727473 	ldrbtvc	r7, [r2], #-1139	; 0x473
 dc8:	6c5f6b6f 	mrrcvs	11, 6, r6, pc, cr15	; <UNPREDICTABLE>
 dcc:	00747361 	rsbseq	r7, r4, r1, ror #6
 dd0:	746e665f 	strbtvc	r6, [lr], #-1631	; 0x65f
 dd4:	73657079 	cmnvc	r5, #121	; 0x79
 dd8:	64615f00 	strbtvs	r5, [r1], #-3840	; 0xf00
 ddc:	5f5f0064 	svcpl	0x005f0064
 de0:	6e6f4c55 	mcrvs	12, 3, r4, cr15, cr5, {2}
 de4:	675f0067 	ldrbvs	r0, [pc, -r7, rrx]
 de8:	61647465 	cmnvs	r4, r5, ror #8
 dec:	655f6574 	ldrbvs	r6, [pc, #-1396]	; 880 <__code_start__-0x7780>
 df0:	5f007272 	svcpl	0x00007272
 df4:	626f6c67 	rsbvs	r6, pc, #26368	; 0x6700
 df8:	695f6c61 	ldmdbvs	pc, {r0, r5, r6, sl, fp, sp, lr}^	; <UNPREDICTABLE>
 dfc:	7275706d 	rsbsvc	r7, r5, #109	; 0x6d
 e00:	74705f65 	ldrbtvc	r5, [r0], #-3941	; 0xf65
 e04:	635f0072 	cmpvs	pc, #114	; 0x72
 e08:	65727275 	ldrbvs	r7, [r2, #-629]!	; 0x275
 e0c:	635f746e 	cmpvs	pc, #1845493760	; 0x6e000000
 e10:	67657461 	strbvs	r7, [r5, -r1, ror #8]!
 e14:	0079726f 	rsbseq	r7, r9, pc, ror #4
 e18:	756e755f 	strbvc	r7, [lr, #-1375]!	; 0x55f
 e1c:	5f646573 	svcpl	0x00646573
 e20:	646e6172 	strbtvs	r6, [lr], #-370	; 0x172
 e24:	64775f00 	ldrbtvs	r5, [r7], #-3840	; 0xf00
 e28:	5f5f0073 	svcpl	0x005f0073
 e2c:	775f6d74 			; <UNDEFINED> instruction: 0x775f6d74
 e30:	00796164 	rsbseq	r6, r9, r4, ror #2
 e34:	756c675f 	strbvc	r6, [ip, #-1887]!	; 0x75f
 e38:	50470065 	subpl	r0, r7, r5, rrx
 e3c:	465f4f49 	ldrbmi	r4, [pc], -r9, asr #30
 e40:	5f434e55 	svcpl	0x00434e55
 e44:	5054554f 	subspl	r5, r4, pc, asr #10
 e48:	5f005455 	svcpl	0x00005455
 e4c:	6c616d6e 	stclvs	13, cr6, [r1], #-440	; 0xfffffe48
 e50:	00636f6c 	rsbeq	r6, r3, ip, ror #30
 e54:	34366c5f 	ldrtcc	r6, [r6], #-3167	; 0xc5f
 e58:	75625f61 	strbvc	r5, [r2, #-3937]!	; 0xf61
 e5c:	65670066 	strbvs	r0, [r7, #-102]!	; 0x66
 e60:	00323374 	eorseq	r3, r2, r4, ror r3
 e64:	74726175 	ldrbtvc	r6, [r2], #-373	; 0x175
 e68:	6e61635f 	mcrvs	3, 3, r6, cr1, cr15, {2}
 e6c:	7465675f 	strbtvc	r6, [r5], #-1887	; 0x75f
 e70:	735f0063 	cmpvc	pc, #99	; 0x63
 e74:	665f6769 	ldrbvs	r6, [pc], -r9, ror #14
 e78:	00636e75 	rsbeq	r6, r3, r5, ror lr
 e7c:	695f726f 	ldmdbvs	pc, {r0, r1, r2, r3, r5, r6, r9, ip, sp, lr}^	; <UNPREDICTABLE>
 e80:	0032336e 	eorseq	r3, r2, lr, ror #6
 e84:	74726175 	ldrbtvc	r6, [r2], #-373	; 0x175
 e88:	7361685f 	cmnvc	r1, #6225920	; 0x5f0000
 e8c:	7461645f 	strbtvc	r6, [r1], #-1119	; 0x45f
 e90:	50470061 	subpl	r0, r7, r1, rrx
 e94:	465f4f49 	ldrbmi	r4, [pc], -r9, asr #30
 e98:	5f434e55 	svcpl	0x00434e55
 e9c:	30544c41 	subscc	r4, r4, r1, asr #24
 ea0:	626e5f00 	rsbvs	r5, lr, #0, 30
 ea4:	5f006675 	svcpl	0x00006675
 ea8:	73756e75 	cmnvc	r5, #1872	; 0x750
 eac:	47006465 	strmi	r6, [r0, -r5, ror #8]
 eb0:	5f4f4950 	svcpl	0x004f4950
 eb4:	434e5546 	movtmi	r5, #58694	; 0xe546
 eb8:	544c415f 	strbpl	r4, [ip], #-351	; 0x15f
 ebc:	50470033 	subpl	r0, r7, r3, lsr r0
 ec0:	465f4f49 	ldrbmi	r4, [pc], -r9, asr #30
 ec4:	5f434e55 	svcpl	0x00434e55
 ec8:	34544c41 	ldrbcc	r4, [r4], #-3137	; 0xc41
 ecc:	49504700 	ldmdbmi	r0, {r8, r9, sl, lr}^
 ed0:	55465f4f 	strbpl	r5, [r6, #-3919]	; 0xf4f
 ed4:	415f434e 	cmpmi	pc, lr, asr #6
 ed8:	0035544c 	eorseq	r5, r5, ip, asr #8
 edc:	6d745f5f 	ldclvs	15, cr5, [r4, #-380]!	; 0xfffffe84
 ee0:	6473695f 	ldrbtvs	r6, [r3], #-2399	; 0x95f
 ee4:	5f007473 	svcpl	0x00007473
 ee8:	61636f6c 	cmnvs	r3, ip, ror #30
 eec:	6d69746c 	cfstrdvs	mvd7, [r9, #-432]!	; 0xfffffe50
 ef0:	75625f65 	strbvc	r5, [r2, #-3941]!	; 0xf65
 ef4:	635f0066 	cmpvs	pc, #102	; 0x66
 ef8:	65736f6c 	ldrbvs	r6, [r3, #-3948]!	; 0xf6c
 efc:	34725f00 	ldrbtcc	r5, [r2], #-3840	; 0xf00
 f00:	6d5f0038 	ldclvs	0, cr0, [pc, #-224]	; e28 <__code_start__-0x71d8>
 f04:	776f7462 	strbvc	r7, [pc, -r2, ror #8]!
 f08:	74735f63 	ldrbtvc	r5, [r3], #-3939	; 0xf63
 f0c:	00657461 	rsbeq	r7, r5, r1, ror #8
 f10:	7335705f 	teqvc	r5, #95	; 0x5f
 f14:	745f5f00 	ldrbvc	r5, [pc], #-3840	; f1c <__code_start__-0x70e4>
 f18:	646d5f6d 	strbtvs	r5, [sp], #-3949	; 0xf6d
 f1c:	67007961 	strvs	r7, [r0, -r1, ror #18]
 f20:	5f6f6970 	svcpl	0x006f6970
 f24:	5f746573 	svcpl	0x00746573
 f28:	0066666f 	rsbeq	r6, r6, pc, ror #12
 f2c:	6b6e6162 	blvs	1b994bc <__bss_end__+0x1b8ee84>
 f30:	69706700 	ldmdbvs	r0!, {r8, r9, sl, sp, lr}^
 f34:	00632e6f 	rsbeq	r2, r3, pc, ror #28
 f38:	6f697067 	svcvs	0x00697067
 f3c:	6165725f 	cmnvs	r5, pc, asr r2
 f40:	70670064 	rsbvc	r0, r7, r4, rrx
 f44:	735f6f69 	cmpvc	pc, #420	; 0x1a4
 f48:	6f5f7465 	svcvs	0x005f7465
 f4c:	75707475 	ldrbvc	r7, [r0, #-1141]!	; 0x475
 f50:	70670074 	rsbvc	r0, r7, r4, ror r0
 f54:	775f6f69 	ldrbvc	r6, [pc, -r9, ror #30]
 f58:	65746972 	ldrbvs	r6, [r4, #-2418]!	; 0x972
 f5c:	69706700 	ldmdbvs	r0!, {r8, r9, sl, sp, lr}^
 f60:	65735f6f 	ldrbvs	r5, [r3, #-3951]!	; 0xf6f
 f64:	67003074 	smlsdxvs	r0, r4, r0, r3
 f68:	5f6f6970 	svcpl	0x006f6970
 f6c:	3076656c 	rsbscc	r6, r6, ip, ror #10
 f70:	69706700 	ldmdbvs	r0!, {r8, r9, sl, sp, lr}^
 f74:	65735f6f 	ldrbvs	r5, [r3, #-3951]!	; 0xf6f
 f78:	6e695f74 	mcrvs	15, 3, r5, cr9, cr4, {3}
 f7c:	00747570 	rsbseq	r7, r4, r0, ror r5
 f80:	6f697067 	svcvs	0x00697067
 f84:	7465735f 	strbtvc	r7, [r5], #-863	; 0x35f
 f88:	006e6f5f 	rsbeq	r6, lr, pc, asr pc
 f8c:	6f697067 	svcvs	0x00697067
 f90:	6e75665f 	mrcvs	6, 3, r6, cr5, cr15, {2}
 f94:	00745f63 	rsbseq	r5, r4, r3, ror #30
 f98:	6f697067 	svcvs	0x00697067
 f9c:	726c635f 	rsbvc	r6, ip, #2080374785	; 0x7c000001
 fa0:	Address 0x0000000000000fa0 is out of bounds.


Disassembly of section .debug_frame:

00000000 <.debug_frame>:
   0:	0000000c 	andeq	r0, r0, ip
   4:	ffffffff 			; <UNDEFINED> instruction: 0xffffffff
   8:	7c020001 	stcvc	0, cr0, [r2], {1}
   c:	000d0c0e 	andeq	r0, sp, lr, lsl #24
  10:	00000014 	andeq	r0, r0, r4, lsl r0
  14:	00000000 	andeq	r0, r0, r0
  18:	00008020 	andeq	r8, r0, r0, lsr #32
  1c:	000000c8 	andeq	r0, r0, r8, asr #1
  20:	8e040e42 	cdphi	14, 0, cr0, cr4, cr2, {2}
  24:	100e4201 	andne	r4, lr, r1, lsl #4
  28:	0000000c 	andeq	r0, r0, ip
  2c:	00000000 	andeq	r0, r0, r0
  30:	000080e8 	andeq	r8, r0, r8, ror #1
  34:	00000008 	andeq	r0, r0, r8
  38:	0000000c 	andeq	r0, r0, ip
  3c:	00000000 	andeq	r0, r0, r0
  40:	000080f0 	strdeq	r8, [r0], -r0
  44:	00000004 	andeq	r0, r0, r4
  48:	0000000c 	andeq	r0, r0, ip
  4c:	00000000 	andeq	r0, r0, r0
  50:	000080f4 	strdeq	r8, [r0], -r4
  54:	00000008 	andeq	r0, r0, r8
  58:	0000000c 	andeq	r0, r0, ip
  5c:	00000000 	andeq	r0, r0, r0
  60:	000080fc 	strdeq	r8, [r0], -ip
  64:	00000070 	andeq	r0, r0, r0, ror r0
  68:	00000014 	andeq	r0, r0, r4, lsl r0
  6c:	00000000 	andeq	r0, r0, r0
  70:	0000816c 	andeq	r8, r0, ip, ror #2
  74:	000000f8 	strdeq	r0, [r0], -r8
  78:	8e040e42 	cdphi	14, 0, cr0, cr4, cr2, {2}
  7c:	480e4201 	stmdami	lr, {r0, r9, lr}
  80:	0000000c 	andeq	r0, r0, ip
  84:	ffffffff 			; <UNDEFINED> instruction: 0xffffffff
  88:	7c020001 	stcvc	0, cr0, [r2], {1}
  8c:	000d0c0e 	andeq	r0, sp, lr, lsl #24
  90:	00000014 	andeq	r0, r0, r4, lsl r0
  94:	00000080 	andeq	r0, r0, r0, lsl #1
  98:	00008264 	andeq	r8, r0, r4, ror #4
  9c:	000000b0 	strheq	r0, [r0], -r0	; <UNPREDICTABLE>
  a0:	8e040e42 	cdphi	14, 0, cr0, cr4, cr2, {2}
  a4:	100e4201 	andne	r4, lr, r1, lsl #4
  a8:	00000014 	andeq	r0, r0, r4, lsl r0
  ac:	00000080 	andeq	r0, r0, r0, lsl #1
  b0:	00008314 	andeq	r8, r0, r4, lsl r3
  b4:	000000dc 	ldrdeq	r0, [r0], -ip
  b8:	8e040e42 	cdphi	14, 0, cr0, cr4, cr2, {2}
  bc:	100e4201 	andne	r4, lr, r1, lsl #4
  c0:	00000014 	andeq	r0, r0, r4, lsl r0
  c4:	00000080 	andeq	r0, r0, r0, lsl #1
  c8:	000083f0 	strdeq	r8, [r0], -r0
  cc:	0000003c 	andeq	r0, r0, ip, lsr r0
  d0:	83080e42 	movwhi	r0, #36418	; 0x8e42
  d4:	00018e02 	andeq	r8, r1, r2, lsl #28
  d8:	0000000c 	andeq	r0, r0, ip
  dc:	00000080 	andeq	r0, r0, r0, lsl #1
  e0:	0000842c 	andeq	r8, r0, ip, lsr #8
  e4:	00000034 	andeq	r0, r0, r4, lsr r0
  e8:	00000014 	andeq	r0, r0, r4, lsl r0
  ec:	00000080 	andeq	r0, r0, r0, lsl #1
  f0:	00008460 	andeq	r8, r0, r0, ror #8
  f4:	00000098 	muleq	r0, r8, r0
  f8:	8e040e42 	cdphi	14, 0, cr0, cr4, cr2, {2}
  fc:	100e4201 	andne	r4, lr, r1, lsl #4
 100:	0000000c 	andeq	r0, r0, ip
 104:	00000080 	andeq	r0, r0, r0, lsl #1
 108:	000084f8 	strdeq	r8, [r0], -r8	; <UNPREDICTABLE>
 10c:	00000004 	andeq	r0, r0, r4
 110:	00000014 	andeq	r0, r0, r4, lsl r0
 114:	00000080 	andeq	r0, r0, r0, lsl #1
 118:	000084fc 	strdeq	r8, [r0], -ip
 11c:	0000002c 	andeq	r0, r0, ip, lsr #32
 120:	83080e42 	movwhi	r0, #36418	; 0x8e42
 124:	00018e02 	andeq	r8, r1, r2, lsl #28
 128:	0000000c 	andeq	r0, r0, ip
 12c:	00000080 	andeq	r0, r0, r0, lsl #1
 130:	00008528 	andeq	r8, r0, r8, lsr #10
 134:	00000034 	andeq	r0, r0, r4, lsr r0
 138:	0000000c 	andeq	r0, r0, ip
 13c:	00000080 	andeq	r0, r0, r0, lsl #1
 140:	0000855c 	andeq	r8, r0, ip, asr r5
 144:	00000010 	andeq	r0, r0, r0, lsl r0
 148:	00000014 	andeq	r0, r0, r4, lsl r0
 14c:	00000080 	andeq	r0, r0, r0, lsl #1
 150:	0000856c 	andeq	r8, r0, ip, ror #10
 154:	00000070 	andeq	r0, r0, r0, ror r0
 158:	83080e42 	movwhi	r0, #36418	; 0x8e42
 15c:	00018e02 	andeq	r8, r1, r2, lsl #28
 160:	0000000c 	andeq	r0, r0, ip
 164:	ffffffff 			; <UNDEFINED> instruction: 0xffffffff
 168:	7c020001 	stcvc	0, cr0, [r2], {1}
 16c:	000d0c0e 	andeq	r0, sp, lr, lsl #24
 170:	00000018 	andeq	r0, r0, r8, lsl r0
 174:	00000160 	andeq	r0, r0, r0, ror #2
 178:	00008714 	andeq	r8, r0, r4, lsl r7
 17c:	000001ac 	andeq	r0, r0, ip, lsr #3
 180:	840c0e42 	strhi	r0, [ip], #-3650	; 0xe42
 184:	8e028503 	cfsh32hi	mvfx8, mvfx2, #3
 188:	180e4201 	stmdane	lr, {r0, r9, lr}
 18c:	00000024 	andeq	r0, r0, r4, lsr #32
 190:	00000160 	andeq	r0, r0, r0, ror #2
 194:	000088c0 	andeq	r8, r0, r0, asr #17
 198:	000004e0 	andeq	r0, r0, r0, ror #9
 19c:	84240e42 	strthi	r0, [r4], #-3650	; 0xe42
 1a0:	86088509 	strhi	r8, [r8], -r9, lsl #10
 1a4:	88068707 	stmdahi	r6, {r0, r1, r2, r8, r9, sl, pc}
 1a8:	8a048905 	bhi	1225c4 <__bss_end__+0x117f8c>
 1ac:	8e028b03 	vmlahi.f64	d8, d2, d3
 1b0:	300e4201 	andcc	r4, lr, r1, lsl #4
 1b4:	0000000c 	andeq	r0, r0, ip
 1b8:	00000160 	andeq	r0, r0, r0, ror #2
 1bc:	00008da0 	andeq	r8, r0, r0, lsr #27
 1c0:	00000008 	andeq	r0, r0, r8
 1c4:	0000000c 	andeq	r0, r0, ip
 1c8:	00000160 	andeq	r0, r0, r0, ror #2
 1cc:	00008da8 	andeq	r8, r0, r8, lsr #27
 1d0:	00000028 	andeq	r0, r0, r8, lsr #32
 1d4:	00000014 	andeq	r0, r0, r4, lsl r0
 1d8:	00000160 	andeq	r0, r0, r0, ror #2
 1dc:	00008dd0 	ldrdeq	r8, [r0], -r0
 1e0:	0000004c 	andeq	r0, r0, ip, asr #32
 1e4:	84080e42 	strhi	r0, [r8], #-3650	; 0xe42
 1e8:	00018e02 	andeq	r8, r1, r2, lsl #28
 1ec:	0000000c 	andeq	r0, r0, ip
 1f0:	ffffffff 			; <UNDEFINED> instruction: 0xffffffff
 1f4:	7c020001 	stcvc	0, cr0, [r2], {1}
 1f8:	000d0c0e 	andeq	r0, sp, lr, lsl #24
 1fc:	00000024 	andeq	r0, r0, r4, lsr #32
 200:	000001ec 	andeq	r0, r0, ip, ror #3
 204:	00008e1c 	andeq	r8, r0, ip, lsl lr
 208:	00000058 	andeq	r0, r0, r8, asr r0
 20c:	80100e42 	andshi	r0, r0, r2, asr #28
 210:	82038104 	andhi	r8, r3, #4, 2
 214:	42018302 	andmi	r8, r1, #134217728	; 0x8000000
 218:	07841c0e 	streq	r1, [r4, lr, lsl #24]
 21c:	058e0685 	streq	r0, [lr, #1669]	; 0x685
 220:	00280e42 	eoreq	r0, r8, r2, asr #28
 224:	0000000c 	andeq	r0, r0, ip
 228:	ffffffff 			; <UNDEFINED> instruction: 0xffffffff
 22c:	7c020001 	stcvc	0, cr0, [r2], {1}
 230:	000d0c0e 	andeq	r0, sp, lr, lsl #24
 234:	00000014 	andeq	r0, r0, r4, lsl r0
 238:	00000224 	andeq	r0, r0, r4, lsr #4
 23c:	00008e74 	andeq	r8, r0, r4, ror lr
 240:	00000014 	andeq	r0, r0, r4, lsl r0
 244:	84080e42 	strhi	r0, [r8], #-3650	; 0xe42
 248:	00018e02 	andeq	r8, r1, r2, lsl #28
 24c:	0000000c 	andeq	r0, r0, ip
 250:	00000224 	andeq	r0, r0, r4, lsr #4
 254:	00008e88 	andeq	r8, r0, r8, lsl #29
 258:	00000018 	andeq	r0, r0, r8, lsl r0
 25c:	0000000c 	andeq	r0, r0, ip
 260:	00000224 	andeq	r0, r0, r4, lsr #4
 264:	00008ea0 	andeq	r8, r0, r0, lsr #29
 268:	00000010 	andeq	r0, r0, r0, lsl r0
 26c:	0000000c 	andeq	r0, r0, ip
 270:	ffffffff 			; <UNDEFINED> instruction: 0xffffffff
 274:	7c020001 	stcvc	0, cr0, [r2], {1}
 278:	000d0c0e 	andeq	r0, sp, lr, lsl #24
 27c:	00000018 	andeq	r0, r0, r8, lsl r0
 280:	0000026c 	andeq	r0, r0, ip, ror #4
 284:	00008eb0 			; <UNDEFINED> instruction: 0x00008eb0
 288:	00000034 	andeq	r0, r0, r4, lsr r0
 28c:	83100e42 	tsthi	r0, #1056	; 0x420
 290:	85038404 	strhi	r8, [r3, #-1028]	; 0x404
 294:	00018e02 	andeq	r8, r1, r2, lsl #28
 298:	0000000c 	andeq	r0, r0, ip
 29c:	ffffffff 			; <UNDEFINED> instruction: 0xffffffff
 2a0:	7c020001 	stcvc	0, cr0, [r2], {1}
 2a4:	000d0c0e 	andeq	r0, sp, lr, lsl #24
 2a8:	0000000c 	andeq	r0, r0, ip
 2ac:	00000298 	muleq	r0, r8, r2
 2b0:	00008ee4 	andeq	r8, r0, r4, ror #29
 2b4:	00000014 	andeq	r0, r0, r4, lsl r0
 2b8:	0000000c 	andeq	r0, r0, ip
 2bc:	00000298 	muleq	r0, r8, r2
 2c0:	00008ef8 	strdeq	r8, [r0], -r8	; <UNPREDICTABLE>
 2c4:	0000002c 	andeq	r0, r0, ip, lsr #32
 2c8:	0000000c 	andeq	r0, r0, ip
 2cc:	00000298 	muleq	r0, r8, r2
 2d0:	00008f24 	andeq	r8, r0, r4, lsr #30
 2d4:	00000040 	andeq	r0, r0, r0, asr #32
 2d8:	00000020 	andeq	r0, r0, r0, lsr #32
 2dc:	00000298 	muleq	r0, r8, r2
 2e0:	00008f64 	andeq	r8, r0, r4, ror #30
 2e4:	000001bc 			; <UNDEFINED> instruction: 0x000001bc
 2e8:	84180e42 	ldrhi	r0, [r8], #-3650	; 0xe42
 2ec:	86058506 	strhi	r8, [r5], -r6, lsl #10
 2f0:	88038704 	stmdahi	r3, {r2, r8, r9, sl, pc}
 2f4:	42018e02 	andmi	r8, r1, #2, 28
 2f8:	0000600e 	andeq	r6, r0, lr
 2fc:	00000014 	andeq	r0, r0, r4, lsl r0
 300:	00000298 	muleq	r0, r8, r2
 304:	00009120 	andeq	r9, r0, r0, lsr #2
 308:	00000068 	andeq	r0, r0, r8, rrx
 30c:	8e040e42 	cdphi	14, 0, cr0, cr4, cr2, {2}
 310:	100e4201 	andne	r4, lr, r1, lsl #4
 314:	00000028 	andeq	r0, r0, r8, lsr #32
 318:	00000298 	muleq	r0, r8, r2
 31c:	00009188 	andeq	r9, r0, r8, lsl #3
 320:	000002d4 	ldrdeq	r0, [r0], -r4
 324:	84240e42 	strthi	r0, [r4], #-3650	; 0xe42
 328:	86088509 	strhi	r8, [r8], -r9, lsl #10
 32c:	88068707 	stmdahi	r6, {r0, r1, r2, r8, r9, sl, pc}
 330:	8a048905 	bhi	12274c <__bss_end__+0x118114>
 334:	8e028b03 	vmlahi.f64	d8, d2, d3
 338:	b80e4201 	stmdalt	lr, {r0, r9, lr}
 33c:	00000001 	andeq	r0, r0, r1
 340:	0000000c 	andeq	r0, r0, ip
 344:	ffffffff 			; <UNDEFINED> instruction: 0xffffffff
 348:	7c020001 	stcvc	0, cr0, [r2], {1}
 34c:	000d0c0e 	andeq	r0, sp, lr, lsl #24
 350:	0000000c 	andeq	r0, r0, ip
 354:	00000340 	andeq	r0, r0, r0, asr #6
 358:	0000945c 	andeq	r9, r0, ip, asr r4
 35c:	00000010 	andeq	r0, r0, r0, lsl r0
 360:	0000000c 	andeq	r0, r0, ip
 364:	00000340 	andeq	r0, r0, r0, asr #6
 368:	0000946c 	andeq	r9, r0, ip, ror #8
 36c:	00000010 	andeq	r0, r0, r0, lsl r0
 370:	0000000c 	andeq	r0, r0, ip
 374:	ffffffff 			; <UNDEFINED> instruction: 0xffffffff
 378:	7c020001 	stcvc	0, cr0, [r2], {1}
 37c:	000d0c0e 	andeq	r0, sp, lr, lsl #24
 380:	00000014 	andeq	r0, r0, r4, lsl r0
 384:	00000370 	andeq	r0, r0, r0, ror r3
 388:	0000947c 	andeq	r9, r0, ip, ror r4
 38c:	0000002c 	andeq	r0, r0, ip, lsr #32
 390:	83080e42 	movwhi	r0, #36418	; 0x8e42
 394:	00018e02 	andeq	r8, r1, r2, lsl #28
 398:	0000000c 	andeq	r0, r0, ip
 39c:	ffffffff 			; <UNDEFINED> instruction: 0xffffffff
 3a0:	7c020001 	stcvc	0, cr0, [r2], {1}
 3a4:	000d0c0e 	andeq	r0, sp, lr, lsl #24
 3a8:	00000014 	andeq	r0, r0, r4, lsl r0
 3ac:	00000398 	muleq	r0, r8, r3
 3b0:	000094a8 	andeq	r9, r0, r8, lsr #9
 3b4:	00000038 	andeq	r0, r0, r8, lsr r0
 3b8:	83080e42 	movwhi	r0, #36418	; 0x8e42
 3bc:	00018e02 	andeq	r8, r1, r2, lsl #28
 3c0:	0000000c 	andeq	r0, r0, ip
 3c4:	ffffffff 			; <UNDEFINED> instruction: 0xffffffff
 3c8:	7c020001 	stcvc	0, cr0, [r2], {1}
 3cc:	000d0c0e 	andeq	r0, sp, lr, lsl #24
 3d0:	00000014 	andeq	r0, r0, r4, lsl r0
 3d4:	000003c0 	andeq	r0, r0, r0, asr #7
 3d8:	000094e0 	andeq	r9, r0, r0, ror #9
 3dc:	00000044 	andeq	r0, r0, r4, asr #32
 3e0:	8e040e42 	cdphi	14, 0, cr0, cr4, cr2, {2}
 3e4:	100e4201 	andne	r4, lr, r1, lsl #4
 3e8:	0000000c 	andeq	r0, r0, ip
 3ec:	ffffffff 			; <UNDEFINED> instruction: 0xffffffff
 3f0:	7c020001 	stcvc	0, cr0, [r2], {1}
 3f4:	000d0c0e 	andeq	r0, sp, lr, lsl #24
 3f8:	00000014 	andeq	r0, r0, r4, lsl r0
 3fc:	000003e8 	andeq	r0, r0, r8, ror #7
 400:	00009524 	andeq	r9, r0, r4, lsr #10
 404:	00000044 	andeq	r0, r0, r4, asr #32
 408:	8e040e42 	cdphi	14, 0, cr0, cr4, cr2, {2}
 40c:	100e4201 	andne	r4, lr, r1, lsl #4
 410:	0000000c 	andeq	r0, r0, ip
 414:	ffffffff 			; <UNDEFINED> instruction: 0xffffffff
 418:	7c020001 	stcvc	0, cr0, [r2], {1}
 41c:	000d0c0e 	andeq	r0, sp, lr, lsl #24
 420:	00000014 	andeq	r0, r0, r4, lsl r0
 424:	00000410 	andeq	r0, r0, r0, lsl r4
 428:	00009568 	andeq	r9, r0, r8, ror #10
 42c:	00000044 	andeq	r0, r0, r4, asr #32
 430:	8e040e42 	cdphi	14, 0, cr0, cr4, cr2, {2}
 434:	100e4201 	andne	r4, lr, r1, lsl #4
 438:	0000000c 	andeq	r0, r0, ip
 43c:	ffffffff 			; <UNDEFINED> instruction: 0xffffffff
 440:	7c020001 	stcvc	0, cr0, [r2], {1}
 444:	000d0c0e 	andeq	r0, sp, lr, lsl #24
 448:	0000000c 	andeq	r0, r0, ip
 44c:	00000438 	andeq	r0, r0, r8, lsr r4
 450:	000095ac 	andeq	r9, r0, ip, lsr #11
 454:	00000004 	andeq	r0, r0, r4
 458:	0000000c 	andeq	r0, r0, ip
 45c:	00000438 	andeq	r0, r0, r8, lsr r4
 460:	000095b0 			; <UNDEFINED> instruction: 0x000095b0
 464:	00000004 	andeq	r0, r0, r4
 468:	0000000c 	andeq	r0, r0, ip
 46c:	ffffffff 			; <UNDEFINED> instruction: 0xffffffff
 470:	7c020001 	stcvc	0, cr0, [r2], {1}
 474:	000d0c0e 	andeq	r0, sp, lr, lsl #24
 478:	00000014 	andeq	r0, r0, r4, lsl r0
 47c:	00000468 	andeq	r0, r0, r8, ror #8
 480:	000095b4 			; <UNDEFINED> instruction: 0x000095b4
 484:	0000006c 	andeq	r0, r0, ip, rrx
 488:	83080e42 	movwhi	r0, #36418	; 0x8e42
 48c:	00018e02 	andeq	r8, r1, r2, lsl #28
 490:	0000000c 	andeq	r0, r0, ip
 494:	ffffffff 			; <UNDEFINED> instruction: 0xffffffff
 498:	7c020001 	stcvc	0, cr0, [r2], {1}
 49c:	000d0c0e 	andeq	r0, sp, lr, lsl #24
 4a0:	0000000c 	andeq	r0, r0, ip
 4a4:	00000490 	muleq	r0, r0, r4
 4a8:	00009620 	andeq	r9, r0, r0, lsr #12
 4ac:	00000018 	andeq	r0, r0, r8, lsl r0
 4b0:	0000000c 	andeq	r0, r0, ip
 4b4:	00000490 	muleq	r0, r0, r4
 4b8:	00009638 	andeq	r9, r0, r8, lsr r6
 4bc:	00000014 	andeq	r0, r0, r4, lsl r0
 4c0:	00000014 	andeq	r0, r0, r4, lsl r0
 4c4:	00000490 	muleq	r0, r0, r4
 4c8:	0000964c 	andeq	r9, r0, ip, asr #12
 4cc:	00000048 	andeq	r0, r0, r8, asr #32
 4d0:	83080e42 	movwhi	r0, #36418	; 0x8e42
 4d4:	00018e02 	andeq	r8, r1, r2, lsl #28
 4d8:	0000000c 	andeq	r0, r0, ip
 4dc:	ffffffff 			; <UNDEFINED> instruction: 0xffffffff
 4e0:	7c020001 	stcvc	0, cr0, [r2], {1}
 4e4:	000d0c0e 	andeq	r0, sp, lr, lsl #24
 4e8:	0000000c 	andeq	r0, r0, ip
 4ec:	000004d8 	ldrdeq	r0, [r0], -r8
 4f0:	00009694 	muleq	r0, r4, r6
 4f4:	0000001c 	andeq	r0, r0, ip, lsl r0
 4f8:	00000014 	andeq	r0, r0, r4, lsl r0
 4fc:	000004d8 	ldrdeq	r0, [r0], -r8
 500:	000096b0 			; <UNDEFINED> instruction: 0x000096b0
 504:	00000014 	andeq	r0, r0, r4, lsl r0
 508:	83080e42 	movwhi	r0, #36418	; 0x8e42
 50c:	00018e02 	andeq	r8, r1, r2, lsl #28
 510:	00000014 	andeq	r0, r0, r4, lsl r0
 514:	000004d8 	ldrdeq	r0, [r0], -r8
 518:	000096c4 	andeq	r9, r0, r4, asr #13
 51c:	0000001c 	andeq	r0, r0, ip, lsl r0
 520:	84080e42 	strhi	r0, [r8], #-3650	; 0xe42
 524:	00018e02 	andeq	r8, r1, r2, lsl #28
 528:	00000018 	andeq	r0, r0, r8, lsl r0
 52c:	000004d8 	ldrdeq	r0, [r0], -r8
 530:	000096e0 	andeq	r9, r0, r0, ror #13
 534:	00000024 	andeq	r0, r0, r4, lsr #32
 538:	83100e42 	tsthi	r0, #1056	; 0x420
 53c:	85038404 	strhi	r8, [r3, #-1028]	; 0x404
 540:	00018e02 	andeq	r8, r1, r2, lsl #28
 544:	00000014 	andeq	r0, r0, r4, lsl r0
 548:	000004d8 	ldrdeq	r0, [r0], -r8
 54c:	00009704 	andeq	r9, r0, r4, lsl #14
 550:	00000014 	andeq	r0, r0, r4, lsl r0
 554:	83080e42 	movwhi	r0, #36418	; 0x8e42
 558:	00018e02 	andeq	r8, r1, r2, lsl #28
 55c:	00000014 	andeq	r0, r0, r4, lsl r0
 560:	000004d8 	ldrdeq	r0, [r0], -r8
 564:	00009718 	andeq	r9, r0, r8, lsl r7
 568:	00000014 	andeq	r0, r0, r4, lsl r0
 56c:	83080e42 	movwhi	r0, #36418	; 0x8e42
 570:	00018e02 	andeq	r8, r1, r2, lsl #28
 574:	0000000c 	andeq	r0, r0, ip
 578:	ffffffff 			; <UNDEFINED> instruction: 0xffffffff
 57c:	7c020001 	stcvc	0, cr0, [r2], {1}
 580:	000d0c0e 	andeq	r0, sp, lr, lsl #24
 584:	00000018 	andeq	r0, r0, r8, lsl r0
 588:	00000574 	andeq	r0, r0, r4, ror r5
 58c:	00009790 	muleq	r0, r0, r7
 590:	00000020 	andeq	r0, r0, r0, lsr #32
 594:	84100e42 	ldrhi	r0, [r0], #-3650	; 0xe42
 598:	86038504 	strhi	r8, [r3], -r4, lsl #10
 59c:	00018e02 	andeq	r8, r1, r2, lsl #28
 5a0:	00000014 	andeq	r0, r0, r4, lsl r0
 5a4:	00000574 	andeq	r0, r0, r4, ror r5
 5a8:	000097b0 			; <UNDEFINED> instruction: 0x000097b0
 5ac:	000000b0 	strheq	r0, [r0], -r0	; <UNPREDICTABLE>
 5b0:	84080e42 	strhi	r0, [r8], #-3650	; 0xe42
 5b4:	00018e02 	andeq	r8, r1, r2, lsl #28
 5b8:	00000014 	andeq	r0, r0, r4, lsl r0
 5bc:	00000574 	andeq	r0, r0, r4, ror r5
 5c0:	00009860 	andeq	r9, r0, r0, ror #16
 5c4:	00000018 	andeq	r0, r0, r8, lsl r0
 5c8:	84080e42 	strhi	r0, [r8], #-3650	; 0xe42
 5cc:	00018e02 	andeq	r8, r1, r2, lsl #28
 5d0:	00000014 	andeq	r0, r0, r4, lsl r0
 5d4:	00000574 	andeq	r0, r0, r4, ror r5
 5d8:	00009878 	andeq	r9, r0, r8, ror r8
 5dc:	00000020 	andeq	r0, r0, r0, lsr #32
 5e0:	84080e42 	strhi	r0, [r8], #-3650	; 0xe42
 5e4:	00018e02 	andeq	r8, r1, r2, lsl #28
 5e8:	00000014 	andeq	r0, r0, r4, lsl r0
 5ec:	00000574 	andeq	r0, r0, r4, ror r5
 5f0:	00009898 	muleq	r0, r8, r8
 5f4:	00000030 	andeq	r0, r0, r0, lsr r0
 5f8:	84080e42 	strhi	r0, [r8], #-3650	; 0xe42
 5fc:	00018e02 	andeq	r8, r1, r2, lsl #28
 600:	00000014 	andeq	r0, r0, r4, lsl r0
 604:	00000574 	andeq	r0, r0, r4, ror r5
 608:	000098c8 	andeq	r9, r0, r8, asr #17
 60c:	00000030 	andeq	r0, r0, r0, lsr r0
 610:	84080e42 	strhi	r0, [r8], #-3650	; 0xe42
 614:	00018e02 	andeq	r8, r1, r2, lsl #28
 618:	00000014 	andeq	r0, r0, r4, lsl r0
 61c:	00000574 	andeq	r0, r0, r4, ror r5
 620:	000098f8 	strdeq	r9, [r0], -r8
 624:	00000010 	andeq	r0, r0, r0, lsl r0
 628:	84080e42 	strhi	r0, [r8], #-3650	; 0xe42
 62c:	00018e02 	andeq	r8, r1, r2, lsl #28
 630:	0000000c 	andeq	r0, r0, ip
 634:	ffffffff 			; <UNDEFINED> instruction: 0xffffffff
 638:	7c020001 	stcvc	0, cr0, [r2], {1}
 63c:	000d0c0e 	andeq	r0, sp, lr, lsl #24
 640:	00000018 	andeq	r0, r0, r8, lsl r0
 644:	00000630 	andeq	r0, r0, r0, lsr r6
 648:	00009908 	andeq	r9, r0, r8, lsl #18
 64c:	00000068 	andeq	r0, r0, r8, rrx
 650:	84100e4a 	ldrhi	r0, [r0], #-3658	; 0xe4a
 654:	86038504 	strhi	r8, [r3], -r4, lsl #10
 658:	00018e02 	andeq	r8, r1, r2, lsl #28
 65c:	00000014 	andeq	r0, r0, r4, lsl r0
 660:	00000630 	andeq	r0, r0, r0, lsr r6
 664:	00009970 	andeq	r9, r0, r0, ror r9
 668:	00000010 	andeq	r0, r0, r0, lsl r0
 66c:	84080e42 	strhi	r0, [r8], #-3650	; 0xe42
 670:	00018e02 	andeq	r8, r1, r2, lsl #28
 674:	00000014 	andeq	r0, r0, r4, lsl r0
 678:	00000630 	andeq	r0, r0, r0, lsr r6
 67c:	00009980 	andeq	r9, r0, r0, lsl #19
 680:	00000024 	andeq	r0, r0, r4, lsr #32
 684:	84080e46 	strhi	r0, [r8], #-3654	; 0xe46
 688:	00018e02 	andeq	r8, r1, r2, lsl #28
 68c:	00000014 	andeq	r0, r0, r4, lsl r0
 690:	00000630 	andeq	r0, r0, r0, lsr r6
 694:	000099a4 	andeq	r9, r0, r4, lsr #19
 698:	00000024 	andeq	r0, r0, r4, lsr #32
 69c:	84080e46 	strhi	r0, [r8], #-3654	; 0xe46
 6a0:	00018e02 	andeq	r8, r1, r2, lsl #28
 6a4:	00000014 	andeq	r0, r0, r4, lsl r0
 6a8:	00000630 	andeq	r0, r0, r0, lsr r6
 6ac:	000099c8 	andeq	r9, r0, r8, asr #19
 6b0:	00000010 	andeq	r0, r0, r0, lsl r0
 6b4:	84080e42 	strhi	r0, [r8], #-3650	; 0xe42
 6b8:	00018e02 	andeq	r8, r1, r2, lsl #28
 6bc:	00000014 	andeq	r0, r0, r4, lsl r0
 6c0:	00000630 	andeq	r0, r0, r0, lsr r6
 6c4:	000099d8 	ldrdeq	r9, [r0], -r8
 6c8:	0000001c 	andeq	r0, r0, ip, lsl r0
 6cc:	84080e42 	strhi	r0, [r8], #-3650	; 0xe42
 6d0:	00018e02 	andeq	r8, r1, r2, lsl #28
 6d4:	00000018 	andeq	r0, r0, r8, lsl r0
 6d8:	00000630 	andeq	r0, r0, r0, lsr r6
 6dc:	000099f4 	strdeq	r9, [r0], -r4
 6e0:	00000034 	andeq	r0, r0, r4, lsr r0
 6e4:	84080e46 	strhi	r0, [r8], #-3654	; 0xe46
 6e8:	4e018e02 	cdpmi	14, 0, cr8, cr1, cr2, {0}
 6ec:	cec4000e 	cdpgt	0, 12, cr0, cr4, cr14, {0}

Disassembly of section .debug_ranges:

00000000 <.debug_ranges>:
   0:	00009620 	andeq	r9, r0, r0, lsr #12
   4:	00009694 	muleq	r0, r4, r6
	...
