
tests2.0/16-part2-test7.elf:     file format elf32-littlearm


Disassembly of section .text:

00008000 <__code_start__>:
    8000:	e3a00013 	mov	r0, #19
    8004:	e129f000 	msr	CPSR_fc, r0
    8008:	e3a01000 	mov	r1, #0
    800c:	ee073f95 	mcr	15, 0, r3, cr7, cr5, {4}
    8010:	e3a0d302 	mov	sp, #134217728	; 0x8000000
    8014:	e3a0b000 	mov	fp, #0
    8018:	eb0004fb 	bl	940c <_cstart>
    801c:	eb000563 	bl	95b0 <rpi_reboot>

00008020 <cnt_A>:
    8020:	e92d4008 	push	{r3, lr}
    8024:	eb00018f 	bl	8668 <sys_foo_asm>
    8028:	e3500003 	cmp	r0, #3
    802c:	0a000006 	beq	804c <cnt_A+0x2c>
    8030:	eb00036d 	bl	8dec <rpi_reset_putc>
    8034:	e59f0024 	ldr	r0, [pc, #36]	; 8060 <cnt_A+0x40>
    8038:	e59f1024 	ldr	r1, [pc, #36]	; 8064 <cnt_A+0x44>
    803c:	e59f2024 	ldr	r2, [pc, #36]	; 8068 <cnt_A+0x48>
    8040:	e3a0300b 	mov	r3, #11
    8044:	eb00034d 	bl	8d80 <printk>
    8048:	eb0004e4 	bl	93e0 <clean_reboot>
    804c:	e59f3018 	ldr	r3, [pc, #24]	; 806c <cnt_A+0x4c>
    8050:	e5932000 	ldr	r2, [r3]
    8054:	e2822001 	add	r2, r2, #1
    8058:	e5832000 	str	r2, [r3]
    805c:	e8bd8008 	pop	{r3, pc}
    8060:	00009998 	muleq	r0, r8, r9
    8064:	000099b4 			; <UNDEFINED> instruction: 0x000099b4
    8068:	00009aa8 	andeq	r9, r0, r8, lsr #21
    806c:	0000a158 	andeq	sl, r0, r8, asr r1

00008070 <cnt_B>:
    8070:	e3a00001 	mov	r0, #1
    8074:	e12fff1e 	bx	lr

00008078 <cnt_init>:
    8078:	e3a02000 	mov	r2, #0
    807c:	e59f3004 	ldr	r3, [pc, #4]	; 8088 <cnt_init+0x10>
    8080:	e5832000 	str	r2, [r3]
    8084:	e12fff1e 	bx	lr
    8088:	0000a158 	andeq	sl, r0, r8, asr r1

0000808c <cnt_check>:
    808c:	e52de004 	push	{lr}		; (str lr, [sp, #-4]!)
    8090:	e24dd00c 	sub	sp, sp, #12
    8094:	e59f3038 	ldr	r3, [pc, #56]	; 80d4 <cnt_check+0x48>
    8098:	e5933000 	ldr	r3, [r3]
    809c:	e3530001 	cmp	r3, #1
    80a0:	0a000008 	beq	80c8 <cnt_check+0x3c>
    80a4:	eb000350 	bl	8dec <rpi_reset_putc>
    80a8:	e59f3028 	ldr	r3, [pc, #40]	; 80d8 <cnt_check+0x4c>
    80ac:	e58d3000 	str	r3, [sp]
    80b0:	e59f0024 	ldr	r0, [pc, #36]	; 80dc <cnt_check+0x50>
    80b4:	e59f1024 	ldr	r1, [pc, #36]	; 80e0 <cnt_check+0x54>
    80b8:	e59f2024 	ldr	r2, [pc, #36]	; 80e4 <cnt_check+0x58>
    80bc:	e3a03018 	mov	r3, #24
    80c0:	eb00032e 	bl	8d80 <printk>
    80c4:	eb0004c5 	bl	93e0 <clean_reboot>
    80c8:	e3a00001 	mov	r0, #1
    80cc:	e28dd00c 	add	sp, sp, #12
    80d0:	e49df004 	pop	{pc}		; (ldr pc, [sp], #4)
    80d4:	0000a158 	andeq	sl, r0, r8, asr r1
    80d8:	000099e4 	andeq	r9, r0, r4, ror #19
    80dc:	000099d0 	ldrdeq	r9, [r0], -r0
    80e0:	000099b4 			; <UNDEFINED> instruction: 0x000099b4
    80e4:	00009a9c 	muleq	r0, ip, sl

000080e8 <cnt_mk_checker>:
    80e8:	e1a03000 	mov	r3, r0
    80ec:	e3a02000 	mov	r2, #0
    80f0:	e4832004 	str	r2, [r3], #4
    80f4:	e2833008 	add	r3, r3, #8
    80f8:	e4832004 	str	r2, [r3], #4
    80fc:	e4832004 	str	r2, [r3], #4
    8100:	e4832004 	str	r2, [r3], #4
    8104:	e4832004 	str	r2, [r3], #4
    8108:	e4832004 	str	r2, [r3], #4
    810c:	e4832004 	str	r2, [r3], #4
    8110:	e4832004 	str	r2, [r3], #4
    8114:	e4832004 	str	r2, [r3], #4
    8118:	e4832004 	str	r2, [r3], #4
    811c:	e4832004 	str	r2, [r3], #4
    8120:	e5832000 	str	r2, [r3]
    8124:	e59f301c 	ldr	r3, [pc, #28]	; 8148 <cnt_mk_checker+0x60>
    8128:	e5803004 	str	r3, [r0, #4]
    812c:	e59f3018 	ldr	r3, [pc, #24]	; 814c <cnt_mk_checker+0x64>
    8130:	e5803008 	str	r3, [r0, #8]
    8134:	e59f3014 	ldr	r3, [pc, #20]	; 8150 <cnt_mk_checker+0x68>
    8138:	e580300c 	str	r3, [r0, #12]
    813c:	e59f3010 	ldr	r3, [pc, #16]	; 8154 <cnt_mk_checker+0x6c>
    8140:	e5803010 	str	r3, [r0, #16]
    8144:	e12fff1e 	bx	lr
    8148:	00008020 	andeq	r8, r0, r0, lsr #32
    814c:	00008070 	andeq	r8, r0, r0, ror r0
    8150:	00008078 	andeq	r8, r0, r8, ror r0
    8154:	0000808c 	andeq	r8, r0, ip, lsl #1

00008158 <notmain>:
    8158:	e52de004 	push	{lr}		; (str lr, [sp, #-4]!)
    815c:	e24dd03c 	sub	sp, sp, #60	; 0x3c
    8160:	eb000496 	bl	93c0 <enable_cache>
    8164:	e1a0000d 	mov	r0, sp
    8168:	ebffffde 	bl	80e8 <cnt_mk_checker>
    816c:	e1a0000d 	mov	r0, sp
    8170:	eb0002ef 	bl	8d34 <check>
    8174:	e3500000 	cmp	r0, #0
    8178:	1a000006 	bne	8198 <notmain+0x40>
    817c:	eb00031a 	bl	8dec <rpi_reset_putc>
    8180:	e59f002c 	ldr	r0, [pc, #44]	; 81b4 <notmain+0x5c>
    8184:	e59f102c 	ldr	r1, [pc, #44]	; 81b8 <notmain+0x60>
    8188:	e59f202c 	ldr	r2, [pc, #44]	; 81bc <notmain+0x64>
    818c:	e3a0302d 	mov	r3, #45	; 0x2d
    8190:	eb0002fa 	bl	8d80 <printk>
    8194:	eb000491 	bl	93e0 <clean_reboot>
    8198:	e59f0020 	ldr	r0, [pc, #32]	; 81c0 <notmain+0x68>
    819c:	eb0002f7 	bl	8d80 <printk>
    81a0:	e59f001c 	ldr	r0, [pc, #28]	; 81c4 <notmain+0x6c>
    81a4:	e59d1028 	ldr	r1, [sp, #40]	; 0x28
    81a8:	e59d202c 	ldr	r2, [sp, #44]	; 0x2c
    81ac:	eb0002f3 	bl	8d80 <printk>
    81b0:	eb00048a 	bl	93e0 <clean_reboot>
    81b4:	000099f0 	strdeq	r9, [r0], -r0
    81b8:	000099b4 			; <UNDEFINED> instruction: 0x000099b4
    81bc:	00009ab0 			; <UNDEFINED> instruction: 0x00009ab0
    81c0:	00009a20 	andeq	r9, r0, r0, lsr #20
    81c4:	00009a2c 	andeq	r9, r0, ip, lsr #20

000081c8 <watchpt_set0>:
    81c8:	e52de004 	push	{lr}		; (str lr, [sp, #-4]!)
    81cc:	e24dd00c 	sub	sp, sp, #12
    81d0:	ee103ef0 	mrc	14, 0, r3, cr0, cr0, {7}
    81d4:	e3c33001 	bic	r3, r3, #1
    81d8:	ee003ef0 	mcr	14, 0, r3, cr0, cr0, {7}
    81dc:	ee102ef0 	mrc	14, 0, r2, cr0, cr0, {7}
    81e0:	e1530002 	cmp	r3, r2
    81e4:	0a000008 	beq	820c <watchpt_set0+0x44>
    81e8:	eb0002ff 	bl	8dec <rpi_reset_putc>
    81ec:	e59f306c 	ldr	r3, [pc, #108]	; 8260 <watchpt_set0+0x98>
    81f0:	e58d3000 	str	r3, [sp]
    81f4:	e59f0068 	ldr	r0, [pc, #104]	; 8264 <watchpt_set0+0x9c>
    81f8:	e59f1068 	ldr	r1, [pc, #104]	; 8268 <watchpt_set0+0xa0>
    81fc:	e59f2068 	ldr	r2, [pc, #104]	; 826c <watchpt_set0+0xa4>
    8200:	e3a03041 	mov	r3, #65	; 0x41
    8204:	eb0002dd 	bl	8d80 <printk>
    8208:	eb000474 	bl	93e0 <clean_reboot>
    820c:	ee000ed0 	mcr	14, 0, r0, cr0, cr0, {6}
    8210:	e59f3058 	ldr	r3, [pc, #88]	; 8270 <watchpt_set0+0xa8>
    8214:	ee003ef0 	mcr	14, 0, r3, cr0, cr0, {7}
    8218:	ee102ef0 	mrc	14, 0, r2, cr0, cr0, {7}
    821c:	e1520003 	cmp	r2, r3
    8220:	0a000008 	beq	8248 <watchpt_set0+0x80>
    8224:	eb0002f0 	bl	8dec <rpi_reset_putc>
    8228:	e59f3030 	ldr	r3, [pc, #48]	; 8260 <watchpt_set0+0x98>
    822c:	e58d3000 	str	r3, [sp]
    8230:	e59f002c 	ldr	r0, [pc, #44]	; 8264 <watchpt_set0+0x9c>
    8234:	e59f102c 	ldr	r1, [pc, #44]	; 8268 <watchpt_set0+0xa0>
    8238:	e59f202c 	ldr	r2, [pc, #44]	; 826c <watchpt_set0+0xa4>
    823c:	e3a03052 	mov	r3, #82	; 0x52
    8240:	eb0002ce 	bl	8d80 <printk>
    8244:	eb000465 	bl	93e0 <clean_reboot>
    8248:	e3a03000 	mov	r3, #0
    824c:	ee073f95 	mcr	15, 0, r3, cr7, cr5, {4}
    8250:	e59f301c 	ldr	r3, [pc, #28]	; 8274 <watchpt_set0+0xac>
    8254:	e5831000 	str	r1, [r3]
    8258:	e28dd00c 	add	sp, sp, #12
    825c:	e49df004 	pop	{pc}		; (ldr pc, [sp], #4)
    8260:	00009ac8 	andeq	r9, r0, r8, asr #21
    8264:	000099d0 	ldrdeq	r9, [r0], -r0
    8268:	00009ab8 			; <UNDEFINED> instruction: 0x00009ab8
    826c:	00009be0 	andeq	r9, r0, r0, ror #23
    8270:	000001ff 	strdeq	r0, [r0], -pc	; <UNPREDICTABLE>
    8274:	0000a15c 	andeq	sl, r0, ip, asr r1

00008278 <data_abort_vector>:
    8278:	e52de004 	push	{lr}		; (str lr, [sp, #-4]!)
    827c:	e24dd00c 	sub	sp, sp, #12
    8280:	e1a01000 	mov	r1, r0
    8284:	ee153f10 	mrc	15, 0, r3, cr5, cr0, {0}
    8288:	ee153f10 	mrc	15, 0, r3, cr5, cr0, {0}
    828c:	e203300f 	and	r3, r3, #15
    8290:	e3530002 	cmp	r3, #2
    8294:	0a000006 	beq	82b4 <data_abort_vector+0x3c>
    8298:	eb0002d3 	bl	8dec <rpi_reset_putc>
    829c:	e59f008c 	ldr	r0, [pc, #140]	; 8330 <data_abort_vector+0xb8>
    82a0:	e59f108c 	ldr	r1, [pc, #140]	; 8334 <data_abort_vector+0xbc>
    82a4:	e59f208c 	ldr	r2, [pc, #140]	; 8338 <data_abort_vector+0xc0>
    82a8:	e3a03079 	mov	r3, #121	; 0x79
    82ac:	eb0002b3 	bl	8d80 <printk>
    82b0:	eb00044a 	bl	93e0 <clean_reboot>
    82b4:	ee103e16 	mrc	14, 0, r3, cr0, cr6, {0}
    82b8:	e2433004 	sub	r3, r3, #4
    82bc:	e1530000 	cmp	r3, r0
    82c0:	0a000008 	beq	82e8 <data_abort_vector+0x70>
    82c4:	eb0002c8 	bl	8dec <rpi_reset_putc>
    82c8:	e59f306c 	ldr	r3, [pc, #108]	; 833c <data_abort_vector+0xc4>
    82cc:	e58d3000 	str	r3, [sp]
    82d0:	e59f0068 	ldr	r0, [pc, #104]	; 8340 <data_abort_vector+0xc8>
    82d4:	e59f1068 	ldr	r1, [pc, #104]	; 8344 <data_abort_vector+0xcc>
    82d8:	e59f2068 	ldr	r2, [pc, #104]	; 8348 <data_abort_vector+0xd0>
    82dc:	e3a03067 	mov	r3, #103	; 0x67
    82e0:	eb0002a6 	bl	8d80 <printk>
    82e4:	eb00043d 	bl	93e0 <clean_reboot>
    82e8:	e59f305c 	ldr	r3, [pc, #92]	; 834c <data_abort_vector+0xd4>
    82ec:	e5933000 	ldr	r3, [r3]
    82f0:	e3530000 	cmp	r3, #0
    82f4:	1a000008 	bne	831c <data_abort_vector+0xa4>
    82f8:	eb0002bb 	bl	8dec <rpi_reset_putc>
    82fc:	e59f304c 	ldr	r3, [pc, #76]	; 8350 <data_abort_vector+0xd8>
    8300:	e58d3000 	str	r3, [sp]
    8304:	e59f0034 	ldr	r0, [pc, #52]	; 8340 <data_abort_vector+0xc8>
    8308:	e59f1034 	ldr	r1, [pc, #52]	; 8344 <data_abort_vector+0xcc>
    830c:	e59f2034 	ldr	r2, [pc, #52]	; 8348 <data_abort_vector+0xd0>
    8310:	e3a03069 	mov	r3, #105	; 0x69
    8314:	eb000299 	bl	8d80 <printk>
    8318:	eb000430 	bl	93e0 <clean_reboot>
    831c:	ee162f10 	mrc	15, 0, r2, cr6, cr0, {0}
    8320:	e3a00000 	mov	r0, #0
    8324:	e12fff33 	blx	r3
    8328:	e28dd00c 	add	sp, sp, #12
    832c:	e49df004 	pop	{pc}		; (ldr pc, [sp], #4)
    8330:	00009ae0 	andeq	r9, r0, r0, ror #21
    8334:	00009b18 	andeq	r9, r0, r8, lsl fp
    8338:	00009c04 	andeq	r9, r0, r4, lsl #24
    833c:	00009b28 	andeq	r9, r0, r8, lsr #22
    8340:	000099d0 	ldrdeq	r9, [r0], -r0
    8344:	00009ab8 			; <UNDEFINED> instruction: 0x00009ab8
    8348:	00009bf0 	strdeq	r9, [r0], -r0
    834c:	0000a15c 	andeq	sl, r0, ip, asr r1
    8350:	00009b3c 	andeq	r9, r0, ip, lsr fp

00008354 <cp14_enable>:
    8354:	e92d4008 	push	{r3, lr}
    8358:	e59f302c 	ldr	r3, [pc, #44]	; 838c <cp14_enable+0x38>
    835c:	e5933000 	ldr	r3, [r3]
    8360:	e3530000 	cmp	r3, #0
    8364:	1a000003 	bne	8378 <cp14_enable+0x24>
    8368:	eb00046a 	bl	9518 <int_init>
    836c:	e3a02001 	mov	r2, #1
    8370:	e59f3014 	ldr	r3, [pc, #20]	; 838c <cp14_enable+0x38>
    8374:	e5832000 	str	r2, [r3]
    8378:	e3a03902 	mov	r3, #32768	; 0x8000
    837c:	ee003e11 	mcr	14, 0, r3, cr0, cr1, {0}
    8380:	e3a03000 	mov	r3, #0
    8384:	ee073f95 	mcr	15, 0, r3, cr7, cr5, {4}
    8388:	e8bd8008 	pop	{r3, pc}
    838c:	0000a16c 	andeq	sl, r0, ip, ror #2

00008390 <brkpt_set0>:
    8390:	ee103eb0 	mrc	14, 0, r3, cr0, cr0, {5}
    8394:	e3c33001 	bic	r3, r3, #1
    8398:	ee003eb0 	mcr	14, 0, r3, cr0, cr0, {5}
    839c:	ee000e90 	mcr	14, 0, r0, cr0, cr0, {4}
    83a0:	e59f3014 	ldr	r3, [pc, #20]	; 83bc <brkpt_set0+0x2c>
    83a4:	ee003eb0 	mcr	14, 0, r3, cr0, cr0, {5}
    83a8:	e3a03000 	mov	r3, #0
    83ac:	ee073f95 	mcr	15, 0, r3, cr7, cr5, {4}
    83b0:	e59f3008 	ldr	r3, [pc, #8]	; 83c0 <brkpt_set0+0x30>
    83b4:	e5831000 	str	r1, [r3]
    83b8:	e12fff1e 	bx	lr
    83bc:	000001e7 	andeq	r0, r0, r7, ror #3
    83c0:	0000a160 	andeq	sl, r0, r0, ror #2

000083c4 <prefetch_abort_vector>:
    83c4:	e52de004 	push	{lr}		; (str lr, [sp, #-4]!)
    83c8:	e24dd00c 	sub	sp, sp, #12
    83cc:	e1a01000 	mov	r1, r0
    83d0:	ee153f30 	mrc	15, 0, r3, cr5, cr0, {1}
    83d4:	e203300f 	and	r3, r3, #15
    83d8:	e3530002 	cmp	r3, #2
    83dc:	0a000006 	beq	83fc <prefetch_abort_vector+0x38>
    83e0:	eb000281 	bl	8dec <rpi_reset_putc>
    83e4:	e59f0058 	ldr	r0, [pc, #88]	; 8444 <prefetch_abort_vector+0x80>
    83e8:	e59f1058 	ldr	r1, [pc, #88]	; 8448 <prefetch_abort_vector+0x84>
    83ec:	e59f2058 	ldr	r2, [pc, #88]	; 844c <prefetch_abort_vector+0x88>
    83f0:	e3a030c7 	mov	r3, #199	; 0xc7
    83f4:	eb000261 	bl	8d80 <printk>
    83f8:	eb0003f8 	bl	93e0 <clean_reboot>
    83fc:	e59f304c 	ldr	r3, [pc, #76]	; 8450 <prefetch_abort_vector+0x8c>
    8400:	e5933000 	ldr	r3, [r3]
    8404:	e3530000 	cmp	r3, #0
    8408:	1a000008 	bne	8430 <prefetch_abort_vector+0x6c>
    840c:	eb000276 	bl	8dec <rpi_reset_putc>
    8410:	e59f303c 	ldr	r3, [pc, #60]	; 8454 <prefetch_abort_vector+0x90>
    8414:	e58d3000 	str	r3, [sp]
    8418:	e59f0038 	ldr	r0, [pc, #56]	; 8458 <prefetch_abort_vector+0x94>
    841c:	e59f1024 	ldr	r1, [pc, #36]	; 8448 <prefetch_abort_vector+0x84>
    8420:	e59f2024 	ldr	r2, [pc, #36]	; 844c <prefetch_abort_vector+0x88>
    8424:	e3a030c8 	mov	r3, #200	; 0xc8
    8428:	eb000254 	bl	8d80 <printk>
    842c:	eb0003eb 	bl	93e0 <clean_reboot>
    8430:	ee162f10 	mrc	15, 0, r2, cr6, cr0, {0}
    8434:	e3a00000 	mov	r0, #0
    8438:	e12fff33 	blx	r3
    843c:	e28dd00c 	add	sp, sp, #12
    8440:	e49df004 	pop	{pc}		; (ldr pc, [sp], #4)
    8444:	00009b50 	andeq	r9, r0, r0, asr fp
    8448:	00009ab8 			; <UNDEFINED> instruction: 0x00009ab8
    844c:	00009c18 	andeq	r9, r0, r8, lsl ip
    8450:	0000a160 	andeq	sl, r0, r0, ror #2
    8454:	00009b88 	andeq	r9, r0, r8, lsl #23
    8458:	000099d0 	ldrdeq	r9, [r0], -r0

0000845c <interrupt_vector>:
    845c:	e12fff1e 	bx	lr

00008460 <brk_no_ret_error>:
    8460:	e92d4008 	push	{r3, lr}
    8464:	eb000260 	bl	8dec <rpi_reset_putc>
    8468:	e59f0010 	ldr	r0, [pc, #16]	; 8480 <brk_no_ret_error+0x20>
    846c:	e59f1010 	ldr	r1, [pc, #16]	; 8484 <brk_no_ret_error+0x24>
    8470:	e59f2010 	ldr	r2, [pc, #16]	; 8488 <brk_no_ret_error+0x28>
    8474:	e3a030d9 	mov	r3, #217	; 0xd9
    8478:	eb000240 	bl	8d80 <printk>
    847c:	eb0003d7 	bl	93e0 <clean_reboot>
    8480:	00009b98 	muleq	r0, r8, fp
    8484:	00009ab8 			; <UNDEFINED> instruction: 0x00009ab8
    8488:	00009c30 	andeq	r9, r0, r0, lsr ip

0000848c <brkpt_mismatch_set0>:
    848c:	ee103eb0 	mrc	14, 0, r3, cr0, cr0, {5}
    8490:	e3c33001 	bic	r3, r3, #1
    8494:	ee003eb0 	mcr	14, 0, r3, cr0, cr0, {5}
    8498:	ee000e90 	mcr	14, 0, r0, cr0, cr0, {4}
    849c:	e59f3014 	ldr	r3, [pc, #20]	; 84b8 <brkpt_mismatch_set0+0x2c>
    84a0:	ee003eb0 	mcr	14, 0, r3, cr0, cr0, {5}
    84a4:	e3a03000 	mov	r3, #0
    84a8:	ee073f95 	mcr	15, 0, r3, cr7, cr5, {4}
    84ac:	e59f3008 	ldr	r3, [pc, #8]	; 84bc <brkpt_mismatch_set0+0x30>
    84b0:	e5831000 	str	r1, [r3]
    84b4:	e12fff1e 	bx	lr
    84b8:	004001e7 	subeq	r0, r0, r7, ror #3
    84bc:	0000a160 	andeq	sl, r0, r0, ror #2

000084c0 <brkpt_mismatch_disable0>:
    84c0:	e59f3004 	ldr	r3, [pc, #4]	; 84cc <brkpt_mismatch_disable0+0xc>
    84c4:	ee003eb0 	mcr	14, 0, r3, cr0, cr0, {5}
    84c8:	e12fff1e 	bx	lr
    84cc:	004001e6 	subeq	r0, r0, r6, ror #3

000084d0 <syscall_vector>:
    84d0:	e92d4008 	push	{r3, lr}
    84d4:	e5903000 	ldr	r3, [r0]
    84d8:	e3c334ff 	bic	r3, r3, #-16777216	; 0xff000000
    84dc:	e3530001 	cmp	r3, #1
    84e0:	1a000002 	bne	84f0 <syscall_vector+0x20>
    84e4:	e169f001 	msr	SPSR_fc, r1
    84e8:	e3a00000 	mov	r0, #0
    84ec:	e8bd8008 	pop	{r3, pc}
    84f0:	e3530002 	cmp	r3, #2
    84f4:	1a000005 	bne	8510 <syscall_vector+0x40>
    84f8:	e5913000 	ldr	r3, [r1]
    84fc:	e3530000 	cmp	r3, #0
    8500:	1a000009 	bne	852c <syscall_vector+0x5c>
    8504:	e3a00001 	mov	r0, #1
    8508:	e5810000 	str	r0, [r1]
    850c:	e8bd8008 	pop	{r3, pc}
    8510:	e3530003 	cmp	r3, #3
    8514:	0a000006 	beq	8534 <syscall_vector+0x64>
    8518:	e59f001c 	ldr	r0, [pc, #28]	; 853c <syscall_vector+0x6c>
    851c:	e1a01003 	mov	r1, r3
    8520:	eb000216 	bl	8d80 <printk>
    8524:	e3a00000 	mov	r0, #0
    8528:	e8bd8008 	pop	{r3, pc}
    852c:	e3a00000 	mov	r0, #0
    8530:	e8bd8008 	pop	{r3, pc}
    8534:	e3a00003 	mov	r0, #3
    8538:	e8bd8008 	pop	{r3, pc}
    853c:	00009bc8 	andeq	r9, r0, r8, asr #23

00008540 <_interrupt_table>:
    8540:	e59ff020 	ldr	pc, [pc, #32]	; 8568 <_reset_asm>
    8544:	e59ff020 	ldr	pc, [pc, #32]	; 856c <_undefined_instruction_asm>
    8548:	e59ff020 	ldr	pc, [pc, #32]	; 8570 <_software_interrupt_asm>
    854c:	e59ff020 	ldr	pc, [pc, #32]	; 8574 <_prefetch_abort_asm>
    8550:	e59ff020 	ldr	pc, [pc, #32]	; 8578 <_data_abort_asm>
    8554:	e59ff00c 	ldr	pc, [pc, #12]	; 8568 <_reset_asm>
    8558:	e59ff01c 	ldr	pc, [pc, #28]	; 857c <_interrupt_asm>

0000855c <fast_interrupt_asm>:
    855c:	e3a0d409 	mov	sp, #150994944	; 0x9000000
    8560:	e24ee004 	sub	lr, lr, #4
    8564:	eb0003b6 	bl	9444 <fast_interrupt_vector>

00008568 <_reset_asm>:
    8568:	00008598 	muleq	r0, r8, r5

0000856c <_undefined_instruction_asm>:
    856c:	000085dc 	ldrdeq	r8, [r0], -ip

00008570 <_software_interrupt_asm>:
    8570:	000085e8 	andeq	r8, r0, r8, ror #11

00008574 <_prefetch_abort_asm>:
    8574:	000085c0 	andeq	r8, r0, r0, asr #11

00008578 <_data_abort_asm>:
    8578:	000085a4 	andeq	r8, r0, r4, lsr #11

0000857c <_interrupt_asm>:
    857c:	00008580 	andeq	r8, r0, r0, lsl #11

00008580 <_interrupt_table_end>:
    8580:	e3a0d409 	mov	sp, #150994944	; 0x9000000
    8584:	e24ee004 	sub	lr, lr, #4
    8588:	e92d5fff 	push	{r0, r1, r2, r3, r4, r5, r6, r7, r8, r9, sl, fp, ip, lr}
    858c:	e1a0000e 	mov	r0, lr
    8590:	e8bd5fff 	pop	{r0, r1, r2, r3, r4, r5, r6, r7, r8, r9, sl, fp, ip, lr}
    8594:	e1b0f00e 	movs	pc, lr

00008598 <reset_asm>:
    8598:	e3a0d409 	mov	sp, #150994944	; 0x9000000
    859c:	e24ee004 	sub	lr, lr, #4
    85a0:	eb0003b8 	bl	9488 <reset_vector>

000085a4 <data_abort_asm>:
    85a4:	e24ee008 	sub	lr, lr, #8
    85a8:	e3a0d409 	mov	sp, #150994944	; 0x9000000
    85ac:	e92d5fff 	push	{r0, r1, r2, r3, r4, r5, r6, r7, r8, r9, sl, fp, ip, lr}
    85b0:	e1a0000e 	mov	r0, lr
    85b4:	ebffff2f 	bl	8278 <data_abort_vector>
    85b8:	e8bd5fff 	pop	{r0, r1, r2, r3, r4, r5, r6, r7, r8, r9, sl, fp, ip, lr}
    85bc:	e1b0f00e 	movs	pc, lr

000085c0 <prefetch_abort_asm>:
    85c0:	e24ee004 	sub	lr, lr, #4
    85c4:	e3a0d409 	mov	sp, #150994944	; 0x9000000
    85c8:	e92d5fff 	push	{r0, r1, r2, r3, r4, r5, r6, r7, r8, r9, sl, fp, ip, lr}
    85cc:	e1a0000e 	mov	r0, lr
    85d0:	ebffff7b 	bl	83c4 <prefetch_abort_vector>
    85d4:	e8bd5fff 	pop	{r0, r1, r2, r3, r4, r5, r6, r7, r8, r9, sl, fp, ip, lr}
    85d8:	e1b0f00e 	movs	pc, lr

000085dc <undefined_instruction_asm>:
    85dc:	e3a0d409 	mov	sp, #150994944	; 0x9000000
    85e0:	e24ee004 	sub	lr, lr, #4
    85e4:	eb0003b8 	bl	94cc <undefined_instruction_vector>

000085e8 <software_interrupt_asm>:
    85e8:	e92d5ff0 	push	{r4, r5, r6, r7, r8, r9, sl, fp, ip, lr}
    85ec:	e24ee004 	sub	lr, lr, #4
    85f0:	e1a01000 	mov	r1, r0
    85f4:	e1a0000e 	mov	r0, lr
    85f8:	ebffffb4 	bl	84d0 <syscall_vector>
    85fc:	e8bd5ff0 	pop	{r4, r5, r6, r7, r8, r9, sl, fp, ip, lr}
    8600:	e1b0f00e 	movs	pc, lr

00008604 <user_trampoline_no_ret>:
    8604:	e1a0200d 	mov	r2, sp
    8608:	e129f000 	msr	CPSR_fc, r0
    860c:	e10f5000 	mrs	r5, CPSR
    8610:	ee070f95 	mcr	15, 0, r0, cr7, cr5, {4}
    8614:	e1a0d002 	mov	sp, r2
    8618:	e92d5ff0 	push	{r4, r5, r6, r7, r8, r9, sl, fp, ip, lr}
    861c:	e12fff31 	blx	r1
    8620:	e8bd5ff0 	pop	{r4, r5, r6, r7, r8, r9, sl, fp, ip, lr}
    8624:	eb00036d 	bl	93e0 <clean_reboot>
    8628:	ebffff8c 	bl	8460 <brk_no_ret_error>

0000862c <user_trampoline_ret>:
    862c:	e92d5ff0 	push	{r4, r5, r6, r7, r8, r9, sl, fp, ip, lr}
    8630:	e10f4000 	mrs	r4, CPSR
    8634:	e129f000 	msr	CPSR_fc, r0
    8638:	ee070f95 	mcr	15, 0, r0, cr7, cr5, {4}
    863c:	e3a0d407 	mov	sp, #117440512	; 0x7000000
    8640:	e1a00002 	mov	r0, r2
    8644:	e12fff31 	blx	r1
    8648:	e1a00004 	mov	r0, r4
    864c:	ef000001 	svc	0x00000001
    8650:	e8bd5ff0 	pop	{r4, r5, r6, r7, r8, r9, sl, fp, ip, lr}
    8654:	e12fff1e 	bx	lr

00008658 <sys_try_lock_asm>:
    8658:	e92d5ff0 	push	{r4, r5, r6, r7, r8, r9, sl, fp, ip, lr}
    865c:	ef000002 	svc	0x00000002
    8660:	e8bd5ff0 	pop	{r4, r5, r6, r7, r8, r9, sl, fp, ip, lr}
    8664:	e12fff1e 	bx	lr

00008668 <sys_foo_asm>:
    8668:	e92d5ff0 	push	{r4, r5, r6, r7, r8, r9, sl, fp, ip, lr}
    866c:	ef000003 	svc	0x00000003
    8670:	e8bd5ff0 	pop	{r4, r5, r6, r7, r8, r9, sl, fp, ip, lr}
    8674:	e12fff1e 	bx	lr

00008678 <single_step_handler>:
    8678:	e92d4030 	push	{r4, r5, lr}
    867c:	e24dd00c 	sub	sp, sp, #12
    8680:	e1a05001 	mov	r5, r1
    8684:	e59f3164 	ldr	r3, [pc, #356]	; 87f0 <single_step_handler+0x178>
    8688:	e5933000 	ldr	r3, [r3]
    868c:	e3530000 	cmp	r3, #0
    8690:	0a000005 	beq	86ac <single_step_handler+0x34>
    8694:	e58d1000 	str	r1, [sp]
    8698:	e59f0154 	ldr	r0, [pc, #340]	; 87f4 <single_step_handler+0x17c>
    869c:	e59f1154 	ldr	r1, [pc, #340]	; 87f8 <single_step_handler+0x180>
    86a0:	e59f2154 	ldr	r2, [pc, #340]	; 87fc <single_step_handler+0x184>
    86a4:	e3a0300c 	mov	r3, #12
    86a8:	eb0001b4 	bl	8d80 <printk>
    86ac:	ee153f30 	mrc	15, 0, r3, cr5, cr0, {1}
    86b0:	e203300f 	and	r3, r3, #15
    86b4:	e3530002 	cmp	r3, #2
    86b8:	0a000006 	beq	86d8 <single_step_handler+0x60>
    86bc:	eb0001ca 	bl	8dec <rpi_reset_putc>
    86c0:	e59f0138 	ldr	r0, [pc, #312]	; 8800 <single_step_handler+0x188>
    86c4:	e59f112c 	ldr	r1, [pc, #300]	; 87f8 <single_step_handler+0x180>
    86c8:	e59f212c 	ldr	r2, [pc, #300]	; 87fc <single_step_handler+0x184>
    86cc:	e3a0300e 	mov	r3, #14
    86d0:	eb0001aa 	bl	8d80 <printk>
    86d4:	eb000341 	bl	93e0 <clean_reboot>
    86d8:	e59f3124 	ldr	r3, [pc, #292]	; 8804 <single_step_handler+0x18c>
    86dc:	e5934000 	ldr	r4, [r3]
    86e0:	e594201c 	ldr	r2, [r4, #28]
    86e4:	e5943018 	ldr	r3, [r4, #24]
    86e8:	e1520003 	cmp	r2, r3
    86ec:	1a000016 	bne	874c <single_step_handler+0xd4>
    86f0:	e59f0110 	ldr	r0, [pc, #272]	; 8808 <single_step_handler+0x190>
    86f4:	e1a01005 	mov	r1, r5
    86f8:	e5942008 	ldr	r2, [r4, #8]
    86fc:	eb00019f 	bl	8d80 <printk>
    8700:	e5943008 	ldr	r3, [r4, #8]
    8704:	e1a00004 	mov	r0, r4
    8708:	e12fff33 	blx	r3
    870c:	e3500000 	cmp	r0, #0
    8710:	0a00000a 	beq	8740 <single_step_handler+0xc8>
    8714:	e1a00005 	mov	r0, r5
    8718:	ebffff68 	bl	84c0 <brkpt_mismatch_disable0>
    871c:	e5845020 	str	r5, [r4, #32]
    8720:	e3a03001 	mov	r3, #1
    8724:	e5843024 	str	r3, [r4, #36]	; 0x24
    8728:	e5943014 	ldr	r3, [r4, #20]
    872c:	e2833001 	add	r3, r3, #1
    8730:	e5843014 	str	r3, [r4, #20]
    8734:	e59f00d0 	ldr	r0, [pc, #208]	; 880c <single_step_handler+0x194>
    8738:	eb000190 	bl	8d80 <printk>
    873c:	ea000029 	b	87e8 <single_step_handler+0x170>
    8740:	e5943018 	ldr	r3, [r4, #24]
    8744:	e2833001 	add	r3, r3, #1
    8748:	e5843018 	str	r3, [r4, #24]
    874c:	e594201c 	ldr	r2, [r4, #28]
    8750:	e5943018 	ldr	r3, [r4, #24]
    8754:	e1520003 	cmp	r2, r3
    8758:	3a000008 	bcc	8780 <single_step_handler+0x108>
    875c:	eb0001a2 	bl	8dec <rpi_reset_putc>
    8760:	e59f30a8 	ldr	r3, [pc, #168]	; 8810 <single_step_handler+0x198>
    8764:	e58d3000 	str	r3, [sp]
    8768:	e59f00a4 	ldr	r0, [pc, #164]	; 8814 <single_step_handler+0x19c>
    876c:	e59f1084 	ldr	r1, [pc, #132]	; 87f8 <single_step_handler+0x180>
    8770:	e59f2084 	ldr	r2, [pc, #132]	; 87fc <single_step_handler+0x184>
    8774:	e3a03023 	mov	r3, #35	; 0x23
    8778:	eb000180 	bl	8d80 <printk>
    877c:	eb000317 	bl	93e0 <clean_reboot>
    8780:	e594301c 	ldr	r3, [r4, #28]
    8784:	e2833001 	add	r3, r3, #1
    8788:	e584301c 	str	r3, [r4, #28]
    878c:	e59f305c 	ldr	r3, [pc, #92]	; 87f0 <single_step_handler+0x178>
    8790:	e5933000 	ldr	r3, [r3]
    8794:	e3530000 	cmp	r3, #0
    8798:	0a000005 	beq	87b4 <single_step_handler+0x13c>
    879c:	e58d5000 	str	r5, [sp]
    87a0:	e59f0070 	ldr	r0, [pc, #112]	; 8818 <single_step_handler+0x1a0>
    87a4:	e59f104c 	ldr	r1, [pc, #76]	; 87f8 <single_step_handler+0x180>
    87a8:	e59f204c 	ldr	r2, [pc, #76]	; 87fc <single_step_handler+0x184>
    87ac:	e3a03026 	mov	r3, #38	; 0x26
    87b0:	eb000172 	bl	8d80 <printk>
    87b4:	e1a00005 	mov	r0, r5
    87b8:	e59f105c 	ldr	r1, [pc, #92]	; 881c <single_step_handler+0x1a4>
    87bc:	ebffff32 	bl	848c <brkpt_mismatch_set0>
    87c0:	e59f3028 	ldr	r3, [pc, #40]	; 87f0 <single_step_handler+0x178>
    87c4:	e5933000 	ldr	r3, [r3]
    87c8:	e3530000 	cmp	r3, #0
    87cc:	0a000005 	beq	87e8 <single_step_handler+0x170>
    87d0:	e58d5000 	str	r5, [sp]
    87d4:	e59f0044 	ldr	r0, [pc, #68]	; 8820 <single_step_handler+0x1a8>
    87d8:	e59f1018 	ldr	r1, [pc, #24]	; 87f8 <single_step_handler+0x180>
    87dc:	e59f2018 	ldr	r2, [pc, #24]	; 87fc <single_step_handler+0x184>
    87e0:	e3a03028 	mov	r3, #40	; 0x28
    87e4:	eb000165 	bl	8d80 <printk>
    87e8:	e28dd00c 	add	sp, sp, #12
    87ec:	e8bd8030 	pop	{r4, r5, pc}
    87f0:	0000a164 	andeq	sl, r0, r4, ror #2
    87f4:	00009c44 	andeq	r9, r0, r4, asr #24
    87f8:	00009c64 	andeq	r9, r0, r4, ror #24
    87fc:	00009ef8 	strdeq	r9, [r0], -r8
    8800:	00009b50 	andeq	r9, r0, r0, asr fp
    8804:	0000a170 	andeq	sl, r0, r0, ror r1
    8808:	00009c78 	andeq	r9, r0, r8, ror ip
    880c:	00009c98 	muleq	r0, r8, ip
    8810:	00009cc0 	andeq	r9, r0, r0, asr #25
    8814:	000099d0 	ldrdeq	r9, [r0], -r0
    8818:	00009ce4 	andeq	r9, r0, r4, ror #25
    881c:	00008678 	andeq	r8, r0, r8, ror r6
    8820:	00009d0c 	andeq	r9, r0, ip, lsl #26

00008824 <check_one_cswitch>:
    8824:	e92d4ff0 	push	{r4, r5, r6, r7, r8, r9, sl, fp, lr}
    8828:	e24dd00c 	sub	sp, sp, #12
    882c:	e1a04000 	mov	r4, r0
    8830:	e10f8000 	mrs	r8, CPSR
    8834:	e3c8701f 	bic	r7, r8, #31
    8838:	e3877010 	orr	r7, r7, #16
    883c:	e59f3460 	ldr	r3, [pc, #1120]	; 8ca4 <check_one_cswitch+0x480>
    8840:	e5830000 	str	r0, [r3]
    8844:	e3a03001 	mov	r3, #1
    8848:	e5803030 	str	r3, [r0, #48]	; 0x30
    884c:	e59f6454 	ldr	r6, [pc, #1108]	; 8ca8 <check_one_cswitch+0x484>
    8850:	e59fb454 	ldr	fp, [pc, #1108]	; 8cac <check_one_cswitch+0x488>
    8854:	e59fa454 	ldr	sl, [pc, #1108]	; 8cb0 <check_one_cswitch+0x48c>
    8858:	e59f9454 	ldr	r9, [pc, #1108]	; 8cb4 <check_one_cswitch+0x490>
    885c:	e59f5454 	ldr	r5, [pc, #1108]	; 8cb8 <check_one_cswitch+0x494>
    8860:	e594300c 	ldr	r3, [r4, #12]
    8864:	e1a00004 	mov	r0, r4
    8868:	e12fff33 	blx	r3
    886c:	e5963000 	ldr	r3, [r6]
    8870:	e3530000 	cmp	r3, #0
    8874:	0a000006 	beq	8894 <check_one_cswitch+0x70>
    8878:	e5943028 	ldr	r3, [r4, #40]	; 0x28
    887c:	e58d3000 	str	r3, [sp]
    8880:	e1a0000b 	mov	r0, fp
    8884:	e1a0100a 	mov	r1, sl
    8888:	e1a02009 	mov	r2, r9
    888c:	e3a03034 	mov	r3, #52	; 0x34
    8890:	eb00013a 	bl	8d80 <printk>
    8894:	e3a00000 	mov	r0, #0
    8898:	e1a01005 	mov	r1, r5
    889c:	ebfffefa 	bl	848c <brkpt_mismatch_set0>
    88a0:	e5943018 	ldr	r3, [r4, #24]
    88a4:	e2833001 	add	r3, r3, #1
    88a8:	e5843018 	str	r3, [r4, #24]
    88ac:	e3a03000 	mov	r3, #0
    88b0:	e584301c 	str	r3, [r4, #28]
    88b4:	e5843024 	str	r3, [r4, #36]	; 0x24
    88b8:	e1a00007 	mov	r0, r7
    88bc:	e5941004 	ldr	r1, [r4, #4]
    88c0:	e1a02004 	mov	r2, r4
    88c4:	ebffff58 	bl	862c <user_trampoline_ret>
    88c8:	e5943024 	ldr	r3, [r4, #36]	; 0x24
    88cc:	e3530000 	cmp	r3, #0
    88d0:	1a000002 	bne	88e0 <check_one_cswitch+0xbc>
    88d4:	e5943008 	ldr	r3, [r4, #8]
    88d8:	e1a00004 	mov	r0, r4
    88dc:	e12fff33 	blx	r3
    88e0:	e5943010 	ldr	r3, [r4, #16]
    88e4:	e1a00004 	mov	r0, r4
    88e8:	e12fff33 	blx	r3
    88ec:	e3500000 	cmp	r0, #0
    88f0:	1a000006 	bne	8910 <check_one_cswitch+0xec>
    88f4:	e5941020 	ldr	r1, [r4, #32]
    88f8:	e5942018 	ldr	r2, [r4, #24]
    88fc:	e59f03b8 	ldr	r0, [pc, #952]	; 8cbc <check_one_cswitch+0x498>
    8900:	eb00011e 	bl	8d80 <printk>
    8904:	e594302c 	ldr	r3, [r4, #44]	; 0x2c
    8908:	e2833001 	add	r3, r3, #1
    890c:	e584302c 	str	r3, [r4, #44]	; 0x2c
    8910:	e5942028 	ldr	r2, [r4, #40]	; 0x28
    8914:	e2822001 	add	r2, r2, #1
    8918:	e5842028 	str	r2, [r4, #40]	; 0x28
    891c:	e5943024 	ldr	r3, [r4, #36]	; 0x24
    8920:	e3530000 	cmp	r3, #0
    8924:	1affffcd 	bne	8860 <check_one_cswitch+0x3c>
    8928:	e5941014 	ldr	r1, [r4, #20]
    892c:	e59f038c 	ldr	r0, [pc, #908]	; 8cc0 <check_one_cswitch+0x49c>
    8930:	e594302c 	ldr	r3, [r4, #44]	; 0x2c
    8934:	eb000111 	bl	8d80 <printk>
    8938:	e208301f 	and	r3, r8, #31
    893c:	e3530012 	cmp	r3, #18
    8940:	13530010 	cmpne	r3, #16
    8944:	0a000006 	beq	8964 <check_one_cswitch+0x140>
    8948:	e3530017 	cmp	r3, #23
    894c:	13530013 	cmpne	r3, #19
    8950:	0a000005 	beq	896c <check_one_cswitch+0x148>
    8954:	e353001f 	cmp	r3, #31
    8958:	1a000005 	bne	8974 <check_one_cswitch+0x150>
    895c:	e3a02001 	mov	r2, #1
    8960:	ea000004 	b	8978 <check_one_cswitch+0x154>
    8964:	e3a02001 	mov	r2, #1
    8968:	ea000002 	b	8978 <check_one_cswitch+0x154>
    896c:	e3a02001 	mov	r2, #1
    8970:	ea000000 	b	8978 <check_one_cswitch+0x154>
    8974:	e3a02000 	mov	r2, #0
    8978:	e3520000 	cmp	r2, #0
    897c:	1a000008 	bne	89a4 <check_one_cswitch+0x180>
    8980:	eb000119 	bl	8dec <rpi_reset_putc>
    8984:	e59f3338 	ldr	r3, [pc, #824]	; 8cc4 <check_one_cswitch+0x4a0>
    8988:	e58d3000 	str	r3, [sp]
    898c:	e59f0334 	ldr	r0, [pc, #820]	; 8cc8 <check_one_cswitch+0x4a4>
    8990:	e59f1334 	ldr	r1, [pc, #820]	; 8ccc <check_one_cswitch+0x4a8>
    8994:	e59f2334 	ldr	r2, [pc, #820]	; 8cd0 <check_one_cswitch+0x4ac>
    8998:	e3a03011 	mov	r3, #17
    899c:	eb0000f7 	bl	8d80 <printk>
    89a0:	eb00028e 	bl	93e0 <clean_reboot>
    89a4:	e2433010 	sub	r3, r3, #16
    89a8:	e353000f 	cmp	r3, #15
    89ac:	979ff103 	ldrls	pc, [pc, r3, lsl #2]
    89b0:	ea000019 	b	8a1c <check_one_cswitch+0x1f8>
    89b4:	00008a3c 	andeq	r8, r0, ip, lsr sl
    89b8:	00008a44 	andeq	r8, r0, r4, asr #20
    89bc:	000089f4 	strdeq	r8, [r0], -r4
    89c0:	000089fc 	strdeq	r8, [r0], -ip
    89c4:	00008a1c 	andeq	r8, r0, ip, lsl sl
    89c8:	00008a1c 	andeq	r8, r0, ip, lsl sl
    89cc:	00008a1c 	andeq	r8, r0, ip, lsl sl
    89d0:	00008a04 	andeq	r8, r0, r4, lsl #20
    89d4:	00008a1c 	andeq	r8, r0, ip, lsl sl
    89d8:	00008a1c 	andeq	r8, r0, ip, lsl sl
    89dc:	00008a1c 	andeq	r8, r0, ip, lsl sl
    89e0:	00008a0c 	andeq	r8, r0, ip, lsl #20
    89e4:	00008a1c 	andeq	r8, r0, ip, lsl sl
    89e8:	00008a1c 	andeq	r8, r0, ip, lsl sl
    89ec:	00008a1c 	andeq	r8, r0, ip, lsl sl
    89f0:	00008a14 	andeq	r8, r0, r4, lsl sl
    89f4:	e59f12d8 	ldr	r1, [pc, #728]	; 8cd4 <check_one_cswitch+0x4b0>
    89f8:	ea000012 	b	8a48 <check_one_cswitch+0x224>
    89fc:	e59f12d4 	ldr	r1, [pc, #724]	; 8cd8 <check_one_cswitch+0x4b4>
    8a00:	ea000010 	b	8a48 <check_one_cswitch+0x224>
    8a04:	e59f12d0 	ldr	r1, [pc, #720]	; 8cdc <check_one_cswitch+0x4b8>
    8a08:	ea00000e 	b	8a48 <check_one_cswitch+0x224>
    8a0c:	e59f12cc 	ldr	r1, [pc, #716]	; 8ce0 <check_one_cswitch+0x4bc>
    8a10:	ea00000c 	b	8a48 <check_one_cswitch+0x224>
    8a14:	e59f12c8 	ldr	r1, [pc, #712]	; 8ce4 <check_one_cswitch+0x4c0>
    8a18:	ea00000a 	b	8a48 <check_one_cswitch+0x224>
    8a1c:	eb0000f2 	bl	8dec <rpi_reset_putc>
    8a20:	e58d8000 	str	r8, [sp]
    8a24:	e59f02bc 	ldr	r0, [pc, #700]	; 8ce8 <check_one_cswitch+0x4c4>
    8a28:	e59f129c 	ldr	r1, [pc, #668]	; 8ccc <check_one_cswitch+0x4a8>
    8a2c:	e59f22b8 	ldr	r2, [pc, #696]	; 8cec <check_one_cswitch+0x4c8>
    8a30:	e3a03021 	mov	r3, #33	; 0x21
    8a34:	eb0000d1 	bl	8d80 <printk>
    8a38:	eb000268 	bl	93e0 <clean_reboot>
    8a3c:	e59f12ac 	ldr	r1, [pc, #684]	; 8cf0 <check_one_cswitch+0x4cc>
    8a40:	ea000000 	b	8a48 <check_one_cswitch+0x224>
    8a44:	e59f12a8 	ldr	r1, [pc, #680]	; 8cf4 <check_one_cswitch+0x4d0>
    8a48:	e59f02a8 	ldr	r0, [pc, #680]	; 8cf8 <check_one_cswitch+0x4d4>
    8a4c:	e1a02008 	mov	r2, r8
    8a50:	eb0000ca 	bl	8d80 <printk>
    8a54:	e10f5000 	mrs	r5, CPSR
    8a58:	e205301f 	and	r3, r5, #31
    8a5c:	e3530012 	cmp	r3, #18
    8a60:	13530010 	cmpne	r3, #16
    8a64:	0a000006 	beq	8a84 <check_one_cswitch+0x260>
    8a68:	e3530017 	cmp	r3, #23
    8a6c:	13530013 	cmpne	r3, #19
    8a70:	0a000005 	beq	8a8c <check_one_cswitch+0x268>
    8a74:	e353001f 	cmp	r3, #31
    8a78:	1a000005 	bne	8a94 <check_one_cswitch+0x270>
    8a7c:	e3a02001 	mov	r2, #1
    8a80:	ea000004 	b	8a98 <check_one_cswitch+0x274>
    8a84:	e3a02001 	mov	r2, #1
    8a88:	ea000002 	b	8a98 <check_one_cswitch+0x274>
    8a8c:	e3a02001 	mov	r2, #1
    8a90:	ea000000 	b	8a98 <check_one_cswitch+0x274>
    8a94:	e3a02000 	mov	r2, #0
    8a98:	e3520000 	cmp	r2, #0
    8a9c:	1a000008 	bne	8ac4 <check_one_cswitch+0x2a0>
    8aa0:	eb0000d1 	bl	8dec <rpi_reset_putc>
    8aa4:	e59f3218 	ldr	r3, [pc, #536]	; 8cc4 <check_one_cswitch+0x4a0>
    8aa8:	e58d3000 	str	r3, [sp]
    8aac:	e59f0214 	ldr	r0, [pc, #532]	; 8cc8 <check_one_cswitch+0x4a4>
    8ab0:	e59f1214 	ldr	r1, [pc, #532]	; 8ccc <check_one_cswitch+0x4a8>
    8ab4:	e59f2214 	ldr	r2, [pc, #532]	; 8cd0 <check_one_cswitch+0x4ac>
    8ab8:	e3a03011 	mov	r3, #17
    8abc:	eb0000af 	bl	8d80 <printk>
    8ac0:	eb000246 	bl	93e0 <clean_reboot>
    8ac4:	e2433010 	sub	r3, r3, #16
    8ac8:	e353000f 	cmp	r3, #15
    8acc:	979ff103 	ldrls	pc, [pc, r3, lsl #2]
    8ad0:	ea000019 	b	8b3c <check_one_cswitch+0x318>
    8ad4:	00008b5c 	andeq	r8, r0, ip, asr fp
    8ad8:	00008b64 	andeq	r8, r0, r4, ror #22
    8adc:	00008b14 	andeq	r8, r0, r4, lsl fp
    8ae0:	00008b1c 	andeq	r8, r0, ip, lsl fp
    8ae4:	00008b3c 	andeq	r8, r0, ip, lsr fp
    8ae8:	00008b3c 	andeq	r8, r0, ip, lsr fp
    8aec:	00008b3c 	andeq	r8, r0, ip, lsr fp
    8af0:	00008b24 	andeq	r8, r0, r4, lsr #22
    8af4:	00008b3c 	andeq	r8, r0, ip, lsr fp
    8af8:	00008b3c 	andeq	r8, r0, ip, lsr fp
    8afc:	00008b3c 	andeq	r8, r0, ip, lsr fp
    8b00:	00008b2c 	andeq	r8, r0, ip, lsr #22
    8b04:	00008b3c 	andeq	r8, r0, ip, lsr fp
    8b08:	00008b3c 	andeq	r8, r0, ip, lsr fp
    8b0c:	00008b3c 	andeq	r8, r0, ip, lsr fp
    8b10:	00008b34 	andeq	r8, r0, r4, lsr fp
    8b14:	e59f11b8 	ldr	r1, [pc, #440]	; 8cd4 <check_one_cswitch+0x4b0>
    8b18:	ea000012 	b	8b68 <check_one_cswitch+0x344>
    8b1c:	e59f11b4 	ldr	r1, [pc, #436]	; 8cd8 <check_one_cswitch+0x4b4>
    8b20:	ea000010 	b	8b68 <check_one_cswitch+0x344>
    8b24:	e59f11b0 	ldr	r1, [pc, #432]	; 8cdc <check_one_cswitch+0x4b8>
    8b28:	ea00000e 	b	8b68 <check_one_cswitch+0x344>
    8b2c:	e59f11ac 	ldr	r1, [pc, #428]	; 8ce0 <check_one_cswitch+0x4bc>
    8b30:	ea00000c 	b	8b68 <check_one_cswitch+0x344>
    8b34:	e59f11a8 	ldr	r1, [pc, #424]	; 8ce4 <check_one_cswitch+0x4c0>
    8b38:	ea00000a 	b	8b68 <check_one_cswitch+0x344>
    8b3c:	eb0000aa 	bl	8dec <rpi_reset_putc>
    8b40:	e58d5000 	str	r5, [sp]
    8b44:	e59f019c 	ldr	r0, [pc, #412]	; 8ce8 <check_one_cswitch+0x4c4>
    8b48:	e59f117c 	ldr	r1, [pc, #380]	; 8ccc <check_one_cswitch+0x4a8>
    8b4c:	e59f2198 	ldr	r2, [pc, #408]	; 8cec <check_one_cswitch+0x4c8>
    8b50:	e3a03021 	mov	r3, #33	; 0x21
    8b54:	eb000089 	bl	8d80 <printk>
    8b58:	eb000220 	bl	93e0 <clean_reboot>
    8b5c:	e59f118c 	ldr	r1, [pc, #396]	; 8cf0 <check_one_cswitch+0x4cc>
    8b60:	ea000000 	b	8b68 <check_one_cswitch+0x344>
    8b64:	e59f1188 	ldr	r1, [pc, #392]	; 8cf4 <check_one_cswitch+0x4d0>
    8b68:	e10f2000 	mrs	r2, CPSR
    8b6c:	e59f0188 	ldr	r0, [pc, #392]	; 8cfc <check_one_cswitch+0x4d8>
    8b70:	eb000082 	bl	8d80 <printk>
    8b74:	e3a00000 	mov	r0, #0
    8b78:	ebfffe50 	bl	84c0 <brkpt_mismatch_disable0>
    8b7c:	e208801f 	and	r8, r8, #31
    8b80:	e3580012 	cmp	r8, #18
    8b84:	13580010 	cmpne	r8, #16
    8b88:	0a000006 	beq	8ba8 <check_one_cswitch+0x384>
    8b8c:	e3580017 	cmp	r8, #23
    8b90:	13580013 	cmpne	r8, #19
    8b94:	0a000005 	beq	8bb0 <check_one_cswitch+0x38c>
    8b98:	e358001f 	cmp	r8, #31
    8b9c:	1a000005 	bne	8bb8 <check_one_cswitch+0x394>
    8ba0:	e3a03001 	mov	r3, #1
    8ba4:	ea000004 	b	8bbc <check_one_cswitch+0x398>
    8ba8:	e3a03001 	mov	r3, #1
    8bac:	ea000002 	b	8bbc <check_one_cswitch+0x398>
    8bb0:	e3a03001 	mov	r3, #1
    8bb4:	ea000000 	b	8bbc <check_one_cswitch+0x398>
    8bb8:	e3a03000 	mov	r3, #0
    8bbc:	e3530000 	cmp	r3, #0
    8bc0:	1a000008 	bne	8be8 <check_one_cswitch+0x3c4>
    8bc4:	eb000088 	bl	8dec <rpi_reset_putc>
    8bc8:	e59f30f4 	ldr	r3, [pc, #244]	; 8cc4 <check_one_cswitch+0x4a0>
    8bcc:	e58d3000 	str	r3, [sp]
    8bd0:	e59f00f0 	ldr	r0, [pc, #240]	; 8cc8 <check_one_cswitch+0x4a4>
    8bd4:	e59f10f0 	ldr	r1, [pc, #240]	; 8ccc <check_one_cswitch+0x4a8>
    8bd8:	e59f20f0 	ldr	r2, [pc, #240]	; 8cd0 <check_one_cswitch+0x4ac>
    8bdc:	e3a03011 	mov	r3, #17
    8be0:	eb000066 	bl	8d80 <printk>
    8be4:	eb0001fd 	bl	93e0 <clean_reboot>
    8be8:	e10f3000 	mrs	r3, CPSR
    8bec:	e203301f 	and	r3, r3, #31
    8bf0:	e3530012 	cmp	r3, #18
    8bf4:	13530010 	cmpne	r3, #16
    8bf8:	0a000006 	beq	8c18 <check_one_cswitch+0x3f4>
    8bfc:	e3530017 	cmp	r3, #23
    8c00:	13530013 	cmpne	r3, #19
    8c04:	0a000005 	beq	8c20 <check_one_cswitch+0x3fc>
    8c08:	e353001f 	cmp	r3, #31
    8c0c:	1a000005 	bne	8c28 <check_one_cswitch+0x404>
    8c10:	e3a02001 	mov	r2, #1
    8c14:	ea000004 	b	8c2c <check_one_cswitch+0x408>
    8c18:	e3a02001 	mov	r2, #1
    8c1c:	ea000002 	b	8c2c <check_one_cswitch+0x408>
    8c20:	e3a02001 	mov	r2, #1
    8c24:	ea000000 	b	8c2c <check_one_cswitch+0x408>
    8c28:	e3a02000 	mov	r2, #0
    8c2c:	e3520000 	cmp	r2, #0
    8c30:	1a000008 	bne	8c58 <check_one_cswitch+0x434>
    8c34:	eb00006c 	bl	8dec <rpi_reset_putc>
    8c38:	e59f3084 	ldr	r3, [pc, #132]	; 8cc4 <check_one_cswitch+0x4a0>
    8c3c:	e58d3000 	str	r3, [sp]
    8c40:	e59f0080 	ldr	r0, [pc, #128]	; 8cc8 <check_one_cswitch+0x4a4>
    8c44:	e59f1080 	ldr	r1, [pc, #128]	; 8ccc <check_one_cswitch+0x4a8>
    8c48:	e59f2080 	ldr	r2, [pc, #128]	; 8cd0 <check_one_cswitch+0x4ac>
    8c4c:	e3a03011 	mov	r3, #17
    8c50:	eb00004a 	bl	8d80 <printk>
    8c54:	eb0001e1 	bl	93e0 <clean_reboot>
    8c58:	e1580003 	cmp	r8, r3
    8c5c:	0a000008 	beq	8c84 <check_one_cswitch+0x460>
    8c60:	eb000061 	bl	8dec <rpi_reset_putc>
    8c64:	e59f3094 	ldr	r3, [pc, #148]	; 8d00 <check_one_cswitch+0x4dc>
    8c68:	e58d3000 	str	r3, [sp]
    8c6c:	e59f0054 	ldr	r0, [pc, #84]	; 8cc8 <check_one_cswitch+0x4a4>
    8c70:	e59f1038 	ldr	r1, [pc, #56]	; 8cb0 <check_one_cswitch+0x48c>
    8c74:	e59f2038 	ldr	r2, [pc, #56]	; 8cb4 <check_one_cswitch+0x490>
    8c78:	e3a03058 	mov	r3, #88	; 0x58
    8c7c:	eb00003f 	bl	8d80 <printk>
    8c80:	eb0001d6 	bl	93e0 <clean_reboot>
    8c84:	e3a03000 	mov	r3, #0
    8c88:	e5843030 	str	r3, [r4, #48]	; 0x30
    8c8c:	e594002c 	ldr	r0, [r4, #44]	; 0x2c
    8c90:	e1500003 	cmp	r0, r3
    8c94:	13a00000 	movne	r0, #0
    8c98:	03a00001 	moveq	r0, #1
    8c9c:	e28dd00c 	add	sp, sp, #12
    8ca0:	e8bd8ff0 	pop	{r4, r5, r6, r7, r8, r9, sl, fp, pc}
    8ca4:	0000a170 	andeq	sl, r0, r0, ror r1
    8ca8:	0000a164 	andeq	sl, r0, r4, ror #2
    8cac:	00009d8c 	andeq	r9, r0, ip, lsl #27
    8cb0:	00009c64 	andeq	r9, r0, r4, ror #24
    8cb4:	00009ee4 	andeq	r9, r0, r4, ror #29
    8cb8:	00008678 	andeq	r8, r0, r8, ror r6
    8cbc:	00009dc4 	andeq	r9, r0, r4, asr #27
    8cc0:	00009e0c 	andeq	r9, r0, ip, lsl #28
    8cc4:	00009e4c 	andeq	r9, r0, ip, asr #28
    8cc8:	000099d0 	ldrdeq	r9, [r0], -r0
    8ccc:	00009e40 	andeq	r9, r0, r0, asr #28
    8cd0:	00009f30 	andeq	r9, r0, r0, lsr pc
    8cd4:	00009d50 	andeq	r9, r0, r0, asr sp
    8cd8:	00009d5c 	andeq	r9, r0, ip, asr sp
    8cdc:	00009d68 	andeq	r9, r0, r8, ror #26
    8ce0:	00009d74 	andeq	r9, r0, r4, ror sp
    8ce4:	00009d80 	andeq	r9, r0, r0, lsl #27
    8ce8:	00009e60 	andeq	r9, r0, r0, ror #28
    8cec:	00009f24 	andeq	r9, r0, r4, lsr #30
    8cf0:	00009d38 	andeq	r9, r0, r8, lsr sp
    8cf4:	00009d44 	andeq	r9, r0, r4, asr #26
    8cf8:	00009e84 	andeq	r9, r0, r4, lsl #29
    8cfc:	00009ea0 	andeq	r9, r0, r0, lsr #29
    8d00:	00009eb8 			; <UNDEFINED> instruction: 0x00009eb8

00008d04 <check_sequential>:
    8d04:	e3a00001 	mov	r0, #1
    8d08:	e12fff1e 	bx	lr

00008d0c <check_zero>:
    8d0c:	e3a03000 	mov	r3, #0
    8d10:	e5803030 	str	r3, [r0, #48]	; 0x30
    8d14:	e580302c 	str	r3, [r0, #44]	; 0x2c
    8d18:	e5803028 	str	r3, [r0, #40]	; 0x28
    8d1c:	e5803024 	str	r3, [r0, #36]	; 0x24
    8d20:	e5803020 	str	r3, [r0, #32]
    8d24:	e580301c 	str	r3, [r0, #28]
    8d28:	e5803018 	str	r3, [r0, #24]
    8d2c:	e5803014 	str	r3, [r0, #20]
    8d30:	e12fff1e 	bx	lr

00008d34 <check>:
    8d34:	e92d4010 	push	{r4, lr}
    8d38:	e1a04000 	mov	r4, r0
    8d3c:	ebfffd84 	bl	8354 <cp14_enable>
    8d40:	e1a00004 	mov	r0, r4
    8d44:	ebfffff0 	bl	8d0c <check_zero>
    8d48:	e1a00004 	mov	r0, r4
    8d4c:	ebffffec 	bl	8d04 <check_sequential>
    8d50:	e3500000 	cmp	r0, #0
    8d54:	0a000005 	beq	8d70 <check+0x3c>
    8d58:	e1a00004 	mov	r0, r4
    8d5c:	ebfffeb0 	bl	8824 <check_one_cswitch>
    8d60:	e3500000 	cmp	r0, #0
    8d64:	0a000003 	beq	8d78 <check+0x44>
    8d68:	e3a00001 	mov	r0, #1
    8d6c:	e8bd8010 	pop	{r4, pc}
    8d70:	e3a00000 	mov	r0, #0
    8d74:	e8bd8010 	pop	{r4, pc}
    8d78:	e3a00000 	mov	r0, #0
    8d7c:	e8bd8010 	pop	{r4, pc}

00008d80 <printk>:
    8d80:	e92d000f 	push	{r0, r1, r2, r3}
    8d84:	e92d4030 	push	{r4, r5, lr}
    8d88:	e24dd00c 	sub	sp, sp, #12
    8d8c:	e28d301c 	add	r3, sp, #28
    8d90:	e58d3004 	str	r3, [sp, #4]
    8d94:	e59f4034 	ldr	r4, [pc, #52]	; 8dd0 <printk+0x50>
    8d98:	e1a00004 	mov	r0, r4
    8d9c:	e3a01b01 	mov	r1, #1024	; 0x400
    8da0:	e59d2018 	ldr	r2, [sp, #24]
    8da4:	eb0000d0 	bl	90ec <va_printk>
    8da8:	e1a05000 	mov	r5, r0
    8dac:	e59f3020 	ldr	r3, [pc, #32]	; 8dd4 <printk+0x54>
    8db0:	e5933000 	ldr	r3, [r3]
    8db4:	e1a00004 	mov	r0, r4
    8db8:	e12fff33 	blx	r3
    8dbc:	e1a00005 	mov	r0, r5
    8dc0:	e28dd00c 	add	sp, sp, #12
    8dc4:	e8bd4030 	pop	{r4, r5, lr}
    8dc8:	e28dd010 	add	sp, sp, #16
    8dcc:	e12fff1e 	bx	lr
    8dd0:	0000a178 	andeq	sl, r0, r8, ror r1
    8dd4:	00009994 	muleq	r0, r4, r9

00008dd8 <internal_putchar>:
    8dd8:	e92d4010 	push	{r4, lr}
    8ddc:	e1a04000 	mov	r4, r0
    8de0:	eb000291 	bl	982c <uart_putc>
    8de4:	e1a00004 	mov	r0, r4
    8de8:	e8bd8010 	pop	{r4, pc}

00008dec <rpi_reset_putc>:
    8dec:	e59f2008 	ldr	r2, [pc, #8]	; 8dfc <rpi_reset_putc+0x10>
    8df0:	e59f3008 	ldr	r3, [pc, #8]	; 8e00 <rpi_reset_putc+0x14>
    8df4:	e5832000 	str	r2, [r3]
    8df8:	e12fff1e 	bx	lr
    8dfc:	00008dd8 	ldrdeq	r8, [r0], -r8	; <UNPREDICTABLE>
    8e00:	00009990 	muleq	r0, r0, r9

00008e04 <rpi_set_putc>:
    8e04:	e59f3004 	ldr	r3, [pc, #4]	; 8e10 <rpi_set_putc+0xc>
    8e08:	e5830000 	str	r0, [r3]
    8e0c:	e12fff1e 	bx	lr
    8e10:	00009990 	muleq	r0, r0, r9

00008e14 <internal_putk>:
    8e14:	e92d4038 	push	{r3, r4, r5, lr}
    8e18:	e1a04000 	mov	r4, r0
    8e1c:	e59f5020 	ldr	r5, [pc, #32]	; 8e44 <internal_putk+0x30>
    8e20:	ea000002 	b	8e30 <internal_putk+0x1c>
    8e24:	e5953000 	ldr	r3, [r5]
    8e28:	e12fff33 	blx	r3
    8e2c:	e2844001 	add	r4, r4, #1
    8e30:	e5d40000 	ldrb	r0, [r4]
    8e34:	e3500000 	cmp	r0, #0
    8e38:	1afffff9 	bne	8e24 <internal_putk+0x10>
    8e3c:	e3a00001 	mov	r0, #1
    8e40:	e8bd8038 	pop	{r3, r4, r5, pc}
    8e44:	00009990 	muleq	r0, r0, r9

00008e48 <isdigit>:
    8e48:	e2400030 	sub	r0, r0, #48	; 0x30
    8e4c:	e3500009 	cmp	r0, #9
    8e50:	83a00000 	movhi	r0, #0
    8e54:	93a00001 	movls	r0, #1
    8e58:	e12fff1e 	bx	lr

00008e5c <pad>:
    8e5c:	e0611000 	rsb	r1, r1, r0
    8e60:	e3a03020 	mov	r3, #32
    8e64:	ea000002 	b	8e74 <pad+0x18>
    8e68:	e5c03000 	strb	r3, [r0]
    8e6c:	e2811001 	add	r1, r1, #1
    8e70:	e2800001 	add	r0, r0, #1
    8e74:	e1510002 	cmp	r1, r2
    8e78:	bafffffa 	blt	8e68 <pad+0xc>
    8e7c:	e3a03000 	mov	r3, #0
    8e80:	e5c03000 	strb	r3, [r0]
    8e84:	e12fff1e 	bx	lr

00008e88 <reverse>:
    8e88:	e063c002 	rsb	ip, r3, r2
    8e8c:	e28cc001 	add	ip, ip, #1
    8e90:	e15c0001 	cmp	ip, r1
    8e94:	c061100c 	rsbgt	r1, r1, ip
    8e98:	c0833001 	addgt	r3, r3, r1
    8e9c:	e2422001 	sub	r2, r2, #1
    8ea0:	e1a01000 	mov	r1, r0
    8ea4:	ea000002 	b	8eb4 <reverse+0x2c>
    8ea8:	e452c001 	ldrb	ip, [r2], #-1
    8eac:	e5c1c000 	strb	ip, [r1]
    8eb0:	e2811001 	add	r1, r1, #1
    8eb4:	e1520003 	cmp	r2, r3
    8eb8:	2afffffa 	bcs	8ea8 <reverse+0x20>
    8ebc:	e3a03000 	mov	r3, #0
    8ec0:	e5c13000 	strb	r3, [r1]
    8ec4:	e12fff1e 	bx	lr

00008ec8 <emit>:
    8ec8:	e92d41f0 	push	{r4, r5, r6, r7, r8, lr}
    8ecc:	e24dd048 	sub	sp, sp, #72	; 0x48
    8ed0:	e1a05001 	mov	r5, r1
    8ed4:	e1a04002 	mov	r4, r2
    8ed8:	e59d2060 	ldr	r2, [sp, #96]	; 0x60
    8edc:	e1520004 	cmp	r2, r4
    8ee0:	c2442001 	subgt	r2, r4, #1
    8ee4:	e1a0c003 	mov	ip, r3
    8ee8:	e2400002 	sub	r0, r0, #2
    8eec:	e350000e 	cmp	r0, #14
    8ef0:	979ff100 	ldrls	pc, [pc, r0, lsl #2]
    8ef4:	ea000048 	b	901c <emit+0x154>
    8ef8:	00008ff4 	strdeq	r8, [r0], -r4
    8efc:	0000901c 	andeq	r9, r0, ip, lsl r0
    8f00:	0000901c 	andeq	r9, r0, ip, lsl r0
    8f04:	0000901c 	andeq	r9, r0, ip, lsl r0
    8f08:	0000901c 	andeq	r9, r0, ip, lsl r0
    8f0c:	0000901c 	andeq	r9, r0, ip, lsl r0
    8f10:	00008fe8 	andeq	r8, r0, r8, ror #31
    8f14:	0000901c 	andeq	r9, r0, ip, lsl r0
    8f18:	00008f34 	andeq	r8, r0, r4, lsr pc
    8f1c:	0000901c 	andeq	r9, r0, ip, lsl r0
    8f20:	0000901c 	andeq	r9, r0, ip, lsl r0
    8f24:	0000901c 	andeq	r9, r0, ip, lsl r0
    8f28:	0000901c 	andeq	r9, r0, ip, lsl r0
    8f2c:	0000901c 	andeq	r9, r0, ip, lsl r0
    8f30:	00008fa8 	andeq	r8, r0, r8, lsr #31
    8f34:	e59d1064 	ldr	r1, [sp, #100]	; 0x64
    8f38:	e2911000 	adds	r1, r1, #0
    8f3c:	13a01001 	movne	r1, #1
    8f40:	e0111fa3 	ands	r1, r1, r3, lsr #31
    8f44:	1263c000 	rsbne	ip, r3, #0
    8f48:	13a08001 	movne	r8, #1
    8f4c:	03a08000 	moveq	r8, #0
    8f50:	e28d1008 	add	r1, sp, #8
    8f54:	e59f7108 	ldr	r7, [pc, #264]	; 9064 <emit+0x19c>
    8f58:	e59f6108 	ldr	r6, [pc, #264]	; 9068 <emit+0x1a0>
    8f5c:	ea000000 	b	8f64 <emit+0x9c>
    8f60:	e1a01000 	mov	r1, r0
    8f64:	e2810001 	add	r0, r1, #1
    8f68:	e083ec97 	umull	lr, r3, r7, ip
    8f6c:	e1a031a3 	lsr	r3, r3, #3
    8f70:	e1a0e003 	mov	lr, r3
    8f74:	e0833103 	add	r3, r3, r3, lsl #2
    8f78:	e1a03083 	lsl	r3, r3, #1
    8f7c:	e063300c 	rsb	r3, r3, ip
    8f80:	e7d63003 	ldrb	r3, [r6, r3]
    8f84:	e5c13000 	strb	r3, [r1]
    8f88:	e1a0c00e 	mov	ip, lr
    8f8c:	e35e0000 	cmp	lr, #0
    8f90:	1afffff2 	bne	8f60 <emit+0x98>
    8f94:	e3580000 	cmp	r8, #0
    8f98:	12810002 	addne	r0, r1, #2
    8f9c:	13a0302d 	movne	r3, #45	; 0x2d
    8fa0:	15c13001 	strbne	r3, [r1, #1]
    8fa4:	ea000025 	b	9040 <emit+0x178>
    8fa8:	e28d3008 	add	r3, sp, #8
    8fac:	e59fe0b8 	ldr	lr, [pc, #184]	; 906c <emit+0x1a4>
    8fb0:	ea000000 	b	8fb8 <emit+0xf0>
    8fb4:	e1a03000 	mov	r3, r0
    8fb8:	e2830001 	add	r0, r3, #1
    8fbc:	e20c100f 	and	r1, ip, #15
    8fc0:	e7de1001 	ldrb	r1, [lr, r1]
    8fc4:	e5c31000 	strb	r1, [r3]
    8fc8:	e1b0c22c 	lsrs	ip, ip, #4
    8fcc:	1afffff8 	bne	8fb4 <emit+0xec>
    8fd0:	e3a01078 	mov	r1, #120	; 0x78
    8fd4:	e5c31001 	strb	r1, [r3, #1]
    8fd8:	e2830003 	add	r0, r3, #3
    8fdc:	e3a01030 	mov	r1, #48	; 0x30
    8fe0:	e5c31002 	strb	r1, [r3, #2]
    8fe4:	ea000015 	b	9040 <emit+0x178>
    8fe8:	e5cd3008 	strb	r3, [sp, #8]
    8fec:	e28d0009 	add	r0, sp, #9
    8ff0:	ea000012 	b	9040 <emit+0x178>
    8ff4:	e28d3008 	add	r3, sp, #8
    8ff8:	e59fe070 	ldr	lr, [pc, #112]	; 9070 <emit+0x1a8>
    8ffc:	e2830001 	add	r0, r3, #1
    9000:	e20c1001 	and	r1, ip, #1
    9004:	e7de1001 	ldrb	r1, [lr, r1]
    9008:	e5c31000 	strb	r1, [r3]
    900c:	e1a03000 	mov	r3, r0
    9010:	e1b0c0ac 	lsrs	ip, ip, #1
    9014:	1afffff8 	bne	8ffc <emit+0x134>
    9018:	ea000008 	b	9040 <emit+0x178>
    901c:	ebffff72 	bl	8dec <rpi_reset_putc>
    9020:	e59f304c 	ldr	r3, [pc, #76]	; 9074 <emit+0x1ac>
    9024:	e58d3000 	str	r3, [sp]
    9028:	e59f0048 	ldr	r0, [pc, #72]	; 9078 <emit+0x1b0>
    902c:	e59f1048 	ldr	r1, [pc, #72]	; 907c <emit+0x1b4>
    9030:	e59f2048 	ldr	r2, [pc, #72]	; 9080 <emit+0x1b8>
    9034:	e3a03077 	mov	r3, #119	; 0x77
    9038:	ebffff50 	bl	8d80 <printk>
    903c:	eb0000e7 	bl	93e0 <clean_reboot>
    9040:	e28d1008 	add	r1, sp, #8
    9044:	ebffff84 	bl	8e5c <pad>
    9048:	e1a02000 	mov	r2, r0
    904c:	e1a00005 	mov	r0, r5
    9050:	e1a01004 	mov	r1, r4
    9054:	e28d3008 	add	r3, sp, #8
    9058:	ebffff8a 	bl	8e88 <reverse>
    905c:	e28dd048 	add	sp, sp, #72	; 0x48
    9060:	e8bd81f0 	pop	{r4, r5, r6, r7, r8, pc}
    9064:	cccccccd 	stclgt	12, cr12, [ip], {205}	; 0xcd
    9068:	00009f84 	andeq	r9, r0, r4, lsl #31
    906c:	00009f90 	muleq	r0, r0, pc	; <UNPREDICTABLE>
    9070:	00009fa4 	andeq	r9, r0, r4, lsr #31
    9074:	00009f80 	andeq	r9, r0, r0, lsl #31
    9078:	000099d0 	ldrdeq	r9, [r0], -r0
    907c:	00009f6c 	andeq	r9, r0, ip, ror #30
    9080:	00009f48 	andeq	r9, r0, r8, asr #30

00009084 <rpi_set_output>:
    9084:	e52de004 	push	{lr}		; (str lr, [sp, #-4]!)
    9088:	e24dd00c 	sub	sp, sp, #12
    908c:	e3500000 	cmp	r0, #0
    9090:	1a000008 	bne	90b8 <rpi_set_output+0x34>
    9094:	ebffff54 	bl	8dec <rpi_reset_putc>
    9098:	e59f3034 	ldr	r3, [pc, #52]	; 90d4 <rpi_set_output+0x50>
    909c:	e58d3000 	str	r3, [sp]
    90a0:	e59f0030 	ldr	r0, [pc, #48]	; 90d8 <rpi_set_output+0x54>
    90a4:	e59f1030 	ldr	r1, [pc, #48]	; 90dc <rpi_set_output+0x58>
    90a8:	e59f2030 	ldr	r2, [pc, #48]	; 90e0 <rpi_set_output+0x5c>
    90ac:	e3a03020 	mov	r3, #32
    90b0:	ebffff32 	bl	8d80 <printk>
    90b4:	eb0000c9 	bl	93e0 <clean_reboot>
    90b8:	e59f3024 	ldr	r3, [pc, #36]	; 90e4 <rpi_set_output+0x60>
    90bc:	e5830000 	str	r0, [r3]
    90c0:	e3510000 	cmp	r1, #0
    90c4:	159f301c 	ldrne	r3, [pc, #28]	; 90e8 <rpi_set_output+0x64>
    90c8:	15831000 	strne	r1, [r3]
    90cc:	e28dd00c 	add	sp, sp, #12
    90d0:	e49df004 	pop	{pc}		; (ldr pc, [sp], #4)
    90d4:	00009fa8 	andeq	r9, r0, r8, lsr #31
    90d8:	000099d0 	ldrdeq	r9, [r0], -r0
    90dc:	00009f6c 	andeq	r9, r0, ip, ror #30
    90e0:	00009f50 	andeq	r9, r0, r0, asr pc
    90e4:	00009990 	muleq	r0, r0, r9
    90e8:	00009994 	muleq	r0, r4, r9

000090ec <va_printk>:
    90ec:	e92d4ff0 	push	{r4, r5, r6, r7, r8, r9, sl, fp, lr}
    90f0:	e24dd094 	sub	sp, sp, #148	; 0x94
    90f4:	e1a0b000 	mov	fp, r0
    90f8:	e58d200c 	str	r2, [sp, #12]
    90fc:	e1a0a003 	mov	sl, r3
    9100:	e2411001 	sub	r1, r1, #1
    9104:	e0808001 	add	r8, r0, r1
    9108:	e3a03000 	mov	r3, #0
    910c:	e5c03000 	strb	r3, [r0]
    9110:	e1a04000 	mov	r4, r0
    9114:	e1a06002 	mov	r6, r2
    9118:	ea000095 	b	9374 <va_printk+0x288>
    911c:	e3530025 	cmp	r3, #37	; 0x25
    9120:	12866001 	addne	r6, r6, #1
    9124:	15c43000 	strbne	r3, [r4]
    9128:	12844001 	addne	r4, r4, #1
    912c:	1a000090 	bne	9374 <va_printk+0x288>
    9130:	e5d62001 	ldrb	r2, [r6, #1]
    9134:	e3520025 	cmp	r2, #37	; 0x25
    9138:	05c43000 	strbeq	r3, [r4]
    913c:	02866002 	addeq	r6, r6, #2
    9140:	02844001 	addeq	r4, r4, #1
    9144:	0a00008a 	beq	9374 <va_printk+0x288>
    9148:	e2866001 	add	r6, r6, #1
    914c:	e3a07000 	mov	r7, #0
    9150:	ea000004 	b	9168 <va_printk+0x7c>
    9154:	e0877107 	add	r7, r7, r7, lsl #2
    9158:	e1a07087 	lsl	r7, r7, #1
    915c:	e0877005 	add	r7, r7, r5
    9160:	e2477030 	sub	r7, r7, #48	; 0x30
    9164:	e2866001 	add	r6, r6, #1
    9168:	e5d65000 	ldrb	r5, [r6]
    916c:	e1a09005 	mov	r9, r5
    9170:	e1a00005 	mov	r0, r5
    9174:	ebffff33 	bl	8e48 <isdigit>
    9178:	e3500000 	cmp	r0, #0
    917c:	1afffff4 	bne	9154 <va_printk+0x68>
    9180:	e357001f 	cmp	r7, #31
    9184:	9a000008 	bls	91ac <va_printk+0xc0>
    9188:	ebffff17 	bl	8dec <rpi_reset_putc>
    918c:	e59f320c 	ldr	r3, [pc, #524]	; 93a0 <va_printk+0x2b4>
    9190:	e58d3000 	str	r3, [sp]
    9194:	e59f0208 	ldr	r0, [pc, #520]	; 93a4 <va_printk+0x2b8>
    9198:	e59f1208 	ldr	r1, [pc, #520]	; 93a8 <va_printk+0x2bc>
    919c:	e59f2208 	ldr	r2, [pc, #520]	; 93ac <va_printk+0x2c0>
    91a0:	e3a03095 	mov	r3, #149	; 0x95
    91a4:	ebfffef5 	bl	8d80 <printk>
    91a8:	eb00008c 	bl	93e0 <clean_reboot>
    91ac:	e2455062 	sub	r5, r5, #98	; 0x62
    91b0:	e3550016 	cmp	r5, #22
    91b4:	979ff105 	ldrls	pc, [pc, r5, lsl #2]
    91b8:	ea000052 	b	9308 <va_printk+0x21c>
    91bc:	000092ac 	andeq	r9, r0, ip, lsr #5
    91c0:	000092e0 	andeq	r9, r0, r0, ror #5
    91c4:	00009234 	andeq	r9, r0, r4, lsr r2
    91c8:	00009308 	andeq	r9, r0, r8, lsl #6
    91cc:	00009218 	andeq	r9, r0, r8, lsl r2
    91d0:	00009308 	andeq	r9, r0, r8, lsl #6
    91d4:	00009308 	andeq	r9, r0, r8, lsl #6
    91d8:	00009308 	andeq	r9, r0, r8, lsl #6
    91dc:	00009308 	andeq	r9, r0, r8, lsl #6
    91e0:	00009308 	andeq	r9, r0, r8, lsl #6
    91e4:	00009308 	andeq	r9, r0, r8, lsl #6
    91e8:	00009308 	andeq	r9, r0, r8, lsl #6
    91ec:	00009308 	andeq	r9, r0, r8, lsl #6
    91f0:	00009308 	andeq	r9, r0, r8, lsl #6
    91f4:	00009284 	andeq	r9, r0, r4, lsl #5
    91f8:	00009308 	andeq	r9, r0, r8, lsl #6
    91fc:	00009308 	andeq	r9, r0, r8, lsl #6
    9200:	000092d4 	ldrdeq	r9, [r0], -r4
    9204:	00009308 	andeq	r9, r0, r8, lsl #6
    9208:	0000925c 	andeq	r9, r0, ip, asr r2
    920c:	00009308 	andeq	r9, r0, r8, lsl #6
    9210:	00009308 	andeq	r9, r0, r8, lsl #6
    9214:	00009284 	andeq	r9, r0, r4, lsl #5
    9218:	ebfffef3 	bl	8dec <rpi_reset_putc>
    921c:	e59f018c 	ldr	r0, [pc, #396]	; 93b0 <va_printk+0x2c4>
    9220:	e59f1180 	ldr	r1, [pc, #384]	; 93a8 <va_printk+0x2bc>
    9224:	e59f2180 	ldr	r2, [pc, #384]	; 93ac <va_printk+0x2c0>
    9228:	e3a0309b 	mov	r3, #155	; 0x9b
    922c:	ebfffed3 	bl	8d80 <printk>
    9230:	eb00006a 	bl	93e0 <clean_reboot>
    9234:	e59a3000 	ldr	r3, [sl]
    9238:	e28aa004 	add	sl, sl, #4
    923c:	e58d7000 	str	r7, [sp]
    9240:	e3a02001 	mov	r2, #1
    9244:	e58d2004 	str	r2, [sp, #4]
    9248:	e3a0000a 	mov	r0, #10
    924c:	e28d1010 	add	r1, sp, #16
    9250:	e3a02080 	mov	r2, #128	; 0x80
    9254:	ebffff1b 	bl	8ec8 <emit>
    9258:	ea00003b 	b	934c <va_printk+0x260>
    925c:	e59a3000 	ldr	r3, [sl]
    9260:	e28aa004 	add	sl, sl, #4
    9264:	e58d7000 	str	r7, [sp]
    9268:	e3a02000 	mov	r2, #0
    926c:	e58d2004 	str	r2, [sp, #4]
    9270:	e3a0000a 	mov	r0, #10
    9274:	e28d1010 	add	r1, sp, #16
    9278:	e3a02080 	mov	r2, #128	; 0x80
    927c:	ebffff11 	bl	8ec8 <emit>
    9280:	ea000031 	b	934c <va_printk+0x260>
    9284:	e59a3000 	ldr	r3, [sl]
    9288:	e28aa004 	add	sl, sl, #4
    928c:	e58d7000 	str	r7, [sp]
    9290:	e3a02000 	mov	r2, #0
    9294:	e58d2004 	str	r2, [sp, #4]
    9298:	e3a00010 	mov	r0, #16
    929c:	e08d1000 	add	r1, sp, r0
    92a0:	e3a02080 	mov	r2, #128	; 0x80
    92a4:	ebffff07 	bl	8ec8 <emit>
    92a8:	ea000027 	b	934c <va_printk+0x260>
    92ac:	e59a3000 	ldr	r3, [sl]
    92b0:	e28aa004 	add	sl, sl, #4
    92b4:	e58d7000 	str	r7, [sp]
    92b8:	e3a02000 	mov	r2, #0
    92bc:	e58d2004 	str	r2, [sp, #4]
    92c0:	e3a00002 	mov	r0, #2
    92c4:	e28d1010 	add	r1, sp, #16
    92c8:	e3a02080 	mov	r2, #128	; 0x80
    92cc:	ebfffefd 	bl	8ec8 <emit>
    92d0:	ea00001d 	b	934c <va_printk+0x260>
    92d4:	e59a0000 	ldr	r0, [sl]
    92d8:	e28aa004 	add	sl, sl, #4
    92dc:	ea00001a 	b	934c <va_printk+0x260>
    92e0:	e59a3000 	ldr	r3, [sl]
    92e4:	e28aa004 	add	sl, sl, #4
    92e8:	e58d7000 	str	r7, [sp]
    92ec:	e3a02000 	mov	r2, #0
    92f0:	e58d2004 	str	r2, [sp, #4]
    92f4:	e3a00008 	mov	r0, #8
    92f8:	e28d1010 	add	r1, sp, #16
    92fc:	e3a02080 	mov	r2, #128	; 0x80
    9300:	ebfffef0 	bl	8ec8 <emit>
    9304:	ea000010 	b	934c <va_printk+0x260>
    9308:	e3a03000 	mov	r3, #0
    930c:	e5c63001 	strb	r3, [r6, #1]
    9310:	e59f009c 	ldr	r0, [pc, #156]	; 93b4 <va_printk+0x2c8>
    9314:	e1a01009 	mov	r1, r9
    9318:	e1a02009 	mov	r2, r9
    931c:	ebfffe97 	bl	8d80 <printk>
    9320:	e59f3090 	ldr	r3, [pc, #144]	; 93b8 <va_printk+0x2cc>
    9324:	e5933000 	ldr	r3, [r3]
    9328:	e59d000c 	ldr	r0, [sp, #12]
    932c:	e12fff33 	blx	r3
    9330:	ebfffead 	bl	8dec <rpi_reset_putc>
    9334:	e59f0080 	ldr	r0, [pc, #128]	; 93bc <va_printk+0x2d0>
    9338:	e59f1068 	ldr	r1, [pc, #104]	; 93a8 <va_printk+0x2bc>
    933c:	e59f2068 	ldr	r2, [pc, #104]	; 93ac <va_printk+0x2c0>
    9340:	e3a030bf 	mov	r3, #191	; 0xbf
    9344:	ebfffe8d 	bl	8d80 <printk>
    9348:	eb000024 	bl	93e0 <clean_reboot>
    934c:	e2866001 	add	r6, r6, #1
    9350:	ea000002 	b	9360 <va_printk+0x274>
    9354:	e2800001 	add	r0, r0, #1
    9358:	e5c43000 	strb	r3, [r4]
    935c:	e2844001 	add	r4, r4, #1
    9360:	e1540008 	cmp	r4, r8
    9364:	2a000002 	bcs	9374 <va_printk+0x288>
    9368:	e5d03000 	ldrb	r3, [r0]
    936c:	e3530000 	cmp	r3, #0
    9370:	1afffff7 	bne	9354 <va_printk+0x268>
    9374:	e5d63000 	ldrb	r3, [r6]
    9378:	e3530000 	cmp	r3, #0
    937c:	0a000001 	beq	9388 <va_printk+0x29c>
    9380:	e1540008 	cmp	r4, r8
    9384:	3affff64 	bcc	911c <va_printk+0x30>
    9388:	e2840001 	add	r0, r4, #1
    938c:	e3a03000 	mov	r3, #0
    9390:	e5c43000 	strb	r3, [r4]
    9394:	e06b0000 	rsb	r0, fp, r0
    9398:	e28dd094 	add	sp, sp, #148	; 0x94
    939c:	e8bd8ff0 	pop	{r4, r5, r6, r7, r8, r9, sl, fp, pc}
    93a0:	00009fb0 			; <UNDEFINED> instruction: 0x00009fb0
    93a4:	000099d0 	ldrdeq	r9, [r0], -r0
    93a8:	00009f6c 	andeq	r9, r0, ip, ror #30
    93ac:	00009f60 	andeq	r9, r0, r0, ror #30
    93b0:	00009fbc 			; <UNDEFINED> instruction: 0x00009fbc
    93b4:	00009fe4 	andeq	r9, r0, r4, ror #31
    93b8:	00009994 	muleq	r0, r4, r9
    93bc:	0000a014 	andeq	sl, r0, r4, lsl r0

000093c0 <enable_cache>:
    93c0:	ee113f10 	mrc	15, 0, r3, cr1, cr0, {0}
    93c4:	e3833b06 	orr	r3, r3, #6144	; 0x1800
    93c8:	ee013f10 	mcr	15, 0, r3, cr1, cr0, {0}
    93cc:	e12fff1e 	bx	lr

000093d0 <disable_cache>:
    93d0:	ee113f10 	mrc	15, 0, r3, cr1, cr0, {0}
    93d4:	e3c33b06 	bic	r3, r3, #6144	; 0x1800
    93d8:	ee013f10 	mcr	15, 0, r3, cr1, cr0, {0}
    93dc:	e12fff1e 	bx	lr

000093e0 <clean_reboot>:
    93e0:	e92d4008 	push	{r3, lr}
    93e4:	eb00004a 	bl	9514 <reboot_handler>
    93e8:	e59f3014 	ldr	r3, [pc, #20]	; 9404 <clean_reboot+0x24>
    93ec:	e5933000 	ldr	r3, [r3]
    93f0:	e59f0010 	ldr	r0, [pc, #16]	; 9408 <clean_reboot+0x28>
    93f4:	e12fff33 	blx	r3
    93f8:	e3a00064 	mov	r0, #100	; 0x64
    93fc:	eb000099 	bl	9668 <delay_ms>
    9400:	eb00006a 	bl	95b0 <rpi_reboot>
    9404:	00009994 	muleq	r0, r4, r9
    9408:	0000a034 	andeq	sl, r0, r4, lsr r0

0000940c <_cstart>:
    940c:	e92d4008 	push	{r3, lr}
    9410:	e59f3024 	ldr	r3, [pc, #36]	; 943c <_cstart+0x30>
    9414:	e59f2024 	ldr	r2, [pc, #36]	; 9440 <_cstart+0x34>
    9418:	e3a01000 	mov	r1, #0
    941c:	ea000001 	b	9428 <_cstart+0x1c>
    9420:	e5831000 	str	r1, [r3]
    9424:	e2833004 	add	r3, r3, #4
    9428:	e1530002 	cmp	r3, r2
    942c:	3afffffb 	bcc	9420 <_cstart+0x14>
    9430:	eb000036 	bl	9510 <cstart_handler>
    9434:	ebfffb47 	bl	8158 <notmain>
    9438:	ebffffe8 	bl	93e0 <clean_reboot>
    943c:	0000a158 	andeq	sl, r0, r8, asr r1
    9440:	0000a578 	andeq	sl, r0, r8, ror r5

00009444 <fast_interrupt_vector>:
    9444:	e52de004 	push	{lr}		; (str lr, [sp, #-4]!)
    9448:	e24dd00c 	sub	sp, sp, #12
    944c:	e1a04000 	mov	r4, r0
    9450:	ebfffe65 	bl	8dec <rpi_reset_putc>
    9454:	e59f301c 	ldr	r3, [pc, #28]	; 9478 <fast_interrupt_vector+0x34>
    9458:	e58d3000 	str	r3, [sp]
    945c:	e58d4004 	str	r4, [sp, #4]
    9460:	e59f0014 	ldr	r0, [pc, #20]	; 947c <fast_interrupt_vector+0x38>
    9464:	e59f1014 	ldr	r1, [pc, #20]	; 9480 <fast_interrupt_vector+0x3c>
    9468:	e59f2014 	ldr	r2, [pc, #20]	; 9484 <fast_interrupt_vector+0x40>
    946c:	e3a03002 	mov	r3, #2
    9470:	ebfffe42 	bl	8d80 <printk>
    9474:	ebffffd9 	bl	93e0 <clean_reboot>
    9478:	0000a0b8 	strheq	sl, [r0], -r8
    947c:	0000a058 	andeq	sl, r0, r8, asr r0
    9480:	0000a094 	muleq	r0, r4, r0
    9484:	0000a040 	andeq	sl, r0, r0, asr #32

00009488 <reset_vector>:
    9488:	e52de004 	push	{lr}		; (str lr, [sp, #-4]!)
    948c:	e24dd00c 	sub	sp, sp, #12
    9490:	e1a04000 	mov	r4, r0
    9494:	ebfffe54 	bl	8dec <rpi_reset_putc>
    9498:	e59f301c 	ldr	r3, [pc, #28]	; 94bc <reset_vector+0x34>
    949c:	e58d3000 	str	r3, [sp]
    94a0:	e58d4004 	str	r4, [sp, #4]
    94a4:	e59f0014 	ldr	r0, [pc, #20]	; 94c0 <reset_vector+0x38>
    94a8:	e59f1014 	ldr	r1, [pc, #20]	; 94c4 <reset_vector+0x3c>
    94ac:	e59f2014 	ldr	r2, [pc, #20]	; 94c8 <reset_vector+0x40>
    94b0:	e3a03002 	mov	r3, #2
    94b4:	ebfffe31 	bl	8d80 <printk>
    94b8:	ebffffc8 	bl	93e0 <clean_reboot>
    94bc:	0000a0f4 	strdeq	sl, [r0], -r4
    94c0:	0000a058 	andeq	sl, r0, r8, asr r0
    94c4:	0000a0d0 	ldrdeq	sl, [r0], -r0
    94c8:	0000a0c0 	andeq	sl, r0, r0, asr #1

000094cc <undefined_instruction_vector>:
    94cc:	e52de004 	push	{lr}		; (str lr, [sp, #-4]!)
    94d0:	e24dd00c 	sub	sp, sp, #12
    94d4:	e1a04000 	mov	r4, r0
    94d8:	ebfffe43 	bl	8dec <rpi_reset_putc>
    94dc:	e59f301c 	ldr	r3, [pc, #28]	; 9500 <undefined_instruction_vector+0x34>
    94e0:	e58d3000 	str	r3, [sp]
    94e4:	e58d4004 	str	r4, [sp, #4]
    94e8:	e59f0014 	ldr	r0, [pc, #20]	; 9504 <undefined_instruction_vector+0x38>
    94ec:	e59f1014 	ldr	r1, [pc, #20]	; 9508 <undefined_instruction_vector+0x3c>
    94f0:	e59f2014 	ldr	r2, [pc, #20]	; 950c <undefined_instruction_vector+0x40>
    94f4:	e3a03002 	mov	r3, #2
    94f8:	ebfffe20 	bl	8d80 <printk>
    94fc:	ebffffb7 	bl	93e0 <clean_reboot>
    9500:	0000a148 	andeq	sl, r0, r8, asr #2
    9504:	0000a058 	andeq	sl, r0, r8, asr r0
    9508:	0000a11c 	andeq	sl, r0, ip, lsl r1
    950c:	0000a0fc 	strdeq	sl, [r0], -ip

00009510 <cstart_handler>:
    9510:	e12fff1e 	bx	lr

00009514 <reboot_handler>:
    9514:	e12fff1e 	bx	lr

00009518 <int_init>:
    9518:	e92d4008 	push	{r3, lr}
    951c:	eb00005b 	bl	9690 <dev_barrier>
    9520:	e59f004c 	ldr	r0, [pc, #76]	; 9574 <int_init+0x5c>
    9524:	e3e01000 	mvn	r1, #0
    9528:	eb000060 	bl	96b0 <PUT32>
    952c:	e59f0044 	ldr	r0, [pc, #68]	; 9578 <int_init+0x60>
    9530:	e3e01000 	mvn	r1, #0
    9534:	eb00005d 	bl	96b0 <PUT32>
    9538:	eb000054 	bl	9690 <dev_barrier>
    953c:	e59f3038 	ldr	r3, [pc, #56]	; 957c <int_init+0x64>
    9540:	e59f0038 	ldr	r0, [pc, #56]	; 9580 <int_init+0x68>
    9544:	e0630000 	rsb	r0, r3, r0
    9548:	e1a00140 	asr	r0, r0, #2
    954c:	e3a03000 	mov	r3, #0
    9550:	e59fc024 	ldr	ip, [pc, #36]	; 957c <int_init+0x64>
    9554:	ea000003 	b	9568 <int_init+0x50>
    9558:	e1a02103 	lsl	r2, r3, #2
    955c:	e79c1103 	ldr	r1, [ip, r3, lsl #2]
    9560:	e5821000 	str	r1, [r2]
    9564:	e2833001 	add	r3, r3, #1
    9568:	e1530000 	cmp	r3, r0
    956c:	3afffff9 	bcc	9558 <int_init+0x40>
    9570:	e8bd8008 	pop	{r3, pc}
    9574:	2000b21c 	andcs	fp, r0, ip, lsl r2
    9578:	2000b220 	andcs	fp, r0, r0, lsr #4
    957c:	00008540 	andeq	r8, r0, r0, asr #10
    9580:	00008580 	andeq	r8, r0, r0, lsl #11

00009584 <at_user_level>:
    9584:	e10f0000 	mrs	r0, CPSR
    9588:	e200001f 	and	r0, r0, #31
    958c:	e3500010 	cmp	r0, #16
    9590:	13a00000 	movne	r0, #0
    9594:	03a00001 	moveq	r0, #1
    9598:	e12fff1e 	bx	lr

0000959c <set_user_level>:
    959c:	e10f3000 	mrs	r3, CPSR
    95a0:	e3c3301f 	bic	r3, r3, #31
    95a4:	e3833010 	orr	r3, r3, #16
    95a8:	e129f003 	msr	CPSR_fc, r3
    95ac:	e12fff1e 	bx	lr

000095b0 <rpi_reboot>:
    95b0:	e92d4008 	push	{r3, lr}
    95b4:	ebfffff2 	bl	9584 <at_user_level>
    95b8:	e3500000 	cmp	r0, #0
    95bc:	0a000000 	beq	95c4 <rpi_reboot+0x14>
    95c0:	ebfffff5 	bl	959c <set_user_level>
    95c4:	e3a0001e 	mov	r0, #30
    95c8:	eb000026 	bl	9668 <delay_ms>
    95cc:	e59f0014 	ldr	r0, [pc, #20]	; 95e8 <rpi_reboot+0x38>
    95d0:	e59f1014 	ldr	r1, [pc, #20]	; 95ec <rpi_reboot+0x3c>
    95d4:	eb000035 	bl	96b0 <PUT32>
    95d8:	e59f0010 	ldr	r0, [pc, #16]	; 95f0 <rpi_reboot+0x40>
    95dc:	e59f1010 	ldr	r1, [pc, #16]	; 95f4 <rpi_reboot+0x44>
    95e0:	eb000032 	bl	96b0 <PUT32>
    95e4:	eafffffe 	b	95e4 <rpi_reboot+0x34>
    95e8:	20100024 	andscs	r0, r0, r4, lsr #32
    95ec:	5a000001 	bpl	95f8 <delay_cycles>
    95f0:	2010001c 	andscs	r0, r0, ip, lsl r0
    95f4:	5a000020 	bpl	967c <delay_sec>

000095f8 <delay_cycles>:
    95f8:	ea000001 	b	9604 <delay_cycles+0xc>
    95fc:	e2811000 	add	r1, r1, #0
    9600:	e1a00003 	mov	r0, r3
    9604:	e2403001 	sub	r3, r0, #1
    9608:	e3500000 	cmp	r0, #0
    960c:	1afffffa 	bne	95fc <delay_cycles+0x4>
    9610:	e12fff1e 	bx	lr

00009614 <timer_get_usec_raw>:
    9614:	e92d4008 	push	{r3, lr}
    9618:	e59f0004 	ldr	r0, [pc, #4]	; 9624 <timer_get_usec_raw+0x10>
    961c:	eb00002f 	bl	96e0 <GET32>
    9620:	e8bd8008 	pop	{r3, pc}
    9624:	20003004 	andcs	r3, r0, r4

00009628 <timer_get_usec>:
    9628:	e92d4010 	push	{r4, lr}
    962c:	eb000017 	bl	9690 <dev_barrier>
    9630:	ebfffff7 	bl	9614 <timer_get_usec_raw>
    9634:	e1a04000 	mov	r4, r0
    9638:	eb000014 	bl	9690 <dev_barrier>
    963c:	e1a00004 	mov	r0, r4
    9640:	e8bd8010 	pop	{r4, pc}

00009644 <delay_us>:
    9644:	e92d4038 	push	{r3, r4, r5, lr}
    9648:	e1a05000 	mov	r5, r0
    964c:	ebfffff5 	bl	9628 <timer_get_usec>
    9650:	e1a04000 	mov	r4, r0
    9654:	ebfffff3 	bl	9628 <timer_get_usec>
    9658:	e0640000 	rsb	r0, r4, r0
    965c:	e1500005 	cmp	r0, r5
    9660:	3afffffb 	bcc	9654 <delay_us+0x10>
    9664:	e8bd8038 	pop	{r3, r4, r5, pc}

00009668 <delay_ms>:
    9668:	e92d4008 	push	{r3, lr}
    966c:	e3a03ffa 	mov	r3, #1000	; 0x3e8
    9670:	e0000093 	mul	r0, r3, r0
    9674:	ebfffff2 	bl	9644 <delay_us>
    9678:	e8bd8008 	pop	{r3, pc}

0000967c <delay_sec>:
    967c:	e92d4008 	push	{r3, lr}
    9680:	e3a03ffa 	mov	r3, #1000	; 0x3e8
    9684:	e0000093 	mul	r0, r3, r0
    9688:	ebfffff6 	bl	9668 <delay_ms>
    968c:	e8bd8008 	pop	{r3, pc}

00009690 <dev_barrier>:
    9690:	ea000002 	b	96a0 <dsb>

00009694 <dmb>:
    9694:	e3a00000 	mov	r0, #0
    9698:	ee070fba 	mcr	15, 0, r0, cr7, cr10, {5}
    969c:	e12fff1e 	bx	lr

000096a0 <dsb>:
    96a0:	ee070f9a 	mcr	15, 0, r0, cr7, cr10, {4}
    96a4:	e12fff1e 	bx	lr

000096a8 <put32>:
    96a8:	e5801000 	str	r1, [r0]
    96ac:	e12fff1e 	bx	lr

000096b0 <PUT32>:
    96b0:	e5801000 	str	r1, [r0]
    96b4:	e12fff1e 	bx	lr

000096b8 <put16>:
    96b8:	e1c010b0 	strh	r1, [r0]
    96bc:	e12fff1e 	bx	lr

000096c0 <PUT16>:
    96c0:	e1c010b0 	strh	r1, [r0]
    96c4:	e12fff1e 	bx	lr

000096c8 <put8>:
    96c8:	e5c01000 	strb	r1, [r0]
    96cc:	e12fff1e 	bx	lr

000096d0 <PUT8>:
    96d0:	e5c01000 	strb	r1, [r0]
    96d4:	e12fff1e 	bx	lr

000096d8 <get32>:
    96d8:	e5900000 	ldr	r0, [r0]
    96dc:	e12fff1e 	bx	lr

000096e0 <GET32>:
    96e0:	e5900000 	ldr	r0, [r0]
    96e4:	e12fff1e 	bx	lr

000096e8 <GETPC>:
    96e8:	e1a0000e 	mov	r0, lr
    96ec:	e12fff1e 	bx	lr

000096f0 <dummy>:
    96f0:	e12fff1e 	bx	lr

000096f4 <or_in32>:
    96f4:	e92d4070 	push	{r4, r5, r6, lr}
    96f8:	e1a04000 	mov	r4, r0
    96fc:	e1a05001 	mov	r5, r1
    9700:	ebfffff4 	bl	96d8 <get32>
    9704:	e1801005 	orr	r1, r0, r5
    9708:	e1a00004 	mov	r0, r4
    970c:	ebffffe5 	bl	96a8 <put32>
    9710:	e8bd8070 	pop	{r4, r5, r6, pc}

00009714 <uart_init>:
    9714:	e92d4010 	push	{r4, lr}
    9718:	e3a01002 	mov	r1, #2
    971c:	e3a0000e 	mov	r0, #14
    9720:	eb000051 	bl	986c <gpio_set_function>
    9724:	e3a01002 	mov	r1, #2
    9728:	e3a0000f 	mov	r0, #15
    972c:	eb00004e 	bl	986c <gpio_set_function>
    9730:	ebffffd6 	bl	9690 <dev_barrier>
    9734:	e3a01001 	mov	r1, #1
    9738:	e59f0064 	ldr	r0, [pc, #100]	; 97a4 <uart_init+0x90>
    973c:	ebffffec 	bl	96f4 <or_in32>
    9740:	ebffffd2 	bl	9690 <dev_barrier>
    9744:	e59f405c 	ldr	r4, [pc, #92]	; 97a8 <uart_init+0x94>
    9748:	e3a01000 	mov	r1, #0
    974c:	e1a00004 	mov	r0, r4
    9750:	ebffffd4 	bl	96a8 <put32>
    9754:	e3a01000 	mov	r1, #0
    9758:	e59f004c 	ldr	r0, [pc, #76]	; 97ac <uart_init+0x98>
    975c:	ebffffd1 	bl	96a8 <put32>
    9760:	e3a01003 	mov	r1, #3
    9764:	e59f0044 	ldr	r0, [pc, #68]	; 97b0 <uart_init+0x9c>
    9768:	ebffffce 	bl	96a8 <put32>
    976c:	e3a01000 	mov	r1, #0
    9770:	e59f003c 	ldr	r0, [pc, #60]	; 97b4 <uart_init+0xa0>
    9774:	ebffffcb 	bl	96a8 <put32>
    9778:	e3a010c7 	mov	r1, #199	; 0xc7
    977c:	e59f0034 	ldr	r0, [pc, #52]	; 97b8 <uart_init+0xa4>
    9780:	ebffffc8 	bl	96a8 <put32>
    9784:	e59f1030 	ldr	r1, [pc, #48]	; 97bc <uart_init+0xa8>
    9788:	e59f0030 	ldr	r0, [pc, #48]	; 97c0 <uart_init+0xac>
    978c:	ebffffc5 	bl	96a8 <put32>
    9790:	e3a01003 	mov	r1, #3
    9794:	e1a00004 	mov	r0, r4
    9798:	ebffffc2 	bl	96a8 <put32>
    979c:	ebffffbb 	bl	9690 <dev_barrier>
    97a0:	e8bd8010 	pop	{r4, pc}
    97a4:	20215004 	eorcs	r5, r1, r4
    97a8:	20215060 	eorcs	r5, r1, r0, rrx
    97ac:	20215044 	eorcs	r5, r1, r4, asr #32
    97b0:	2021504c 	eorcs	r5, r1, ip, asr #32
    97b4:	20215050 	eorcs	r5, r1, r0, asr r0
    97b8:	20215048 	eorcs	r5, r1, r8, asr #32
    97bc:	0000010e 	andeq	r0, r0, lr, lsl #2
    97c0:	20215068 	eorcs	r5, r1, r8, rrx

000097c4 <uart_can_getc>:
    97c4:	e92d4010 	push	{r4, lr}
    97c8:	e59f0008 	ldr	r0, [pc, #8]	; 97d8 <uart_can_getc+0x14>
    97cc:	ebffffc1 	bl	96d8 <get32>
    97d0:	e2000001 	and	r0, r0, #1
    97d4:	e8bd8010 	pop	{r4, pc}
    97d8:	20215064 	eorcs	r5, r1, r4, rrx

000097dc <uart_can_putc>:
    97dc:	e92d4010 	push	{r4, lr}
    97e0:	e59f0010 	ldr	r0, [pc, #16]	; 97f8 <uart_can_putc+0x1c>
    97e4:	ebffffbb 	bl	96d8 <get32>
    97e8:	e3100002 	tst	r0, #2
    97ec:	13a00001 	movne	r0, #1
    97f0:	03a00000 	moveq	r0, #0
    97f4:	e8bd8010 	pop	{r4, pc}
    97f8:	20215064 	eorcs	r5, r1, r4, rrx

000097fc <uart_getc>:
    97fc:	e92d4010 	push	{r4, lr}
    9800:	ebffffa2 	bl	9690 <dev_barrier>
    9804:	ebffffee 	bl	97c4 <uart_can_getc>
    9808:	e3500000 	cmp	r0, #0
    980c:	0afffffc 	beq	9804 <uart_getc+0x8>
    9810:	e59f0010 	ldr	r0, [pc, #16]	; 9828 <uart_getc+0x2c>
    9814:	ebffffaf 	bl	96d8 <get32>
    9818:	e6ef4070 	uxtb	r4, r0
    981c:	ebffff9b 	bl	9690 <dev_barrier>
    9820:	e1a00004 	mov	r0, r4
    9824:	e8bd8010 	pop	{r4, pc}
    9828:	20215040 	eorcs	r5, r1, r0, asr #32

0000982c <uart_putc>:
    982c:	e92d4010 	push	{r4, lr}
    9830:	e1a04000 	mov	r4, r0
    9834:	ebffff95 	bl	9690 <dev_barrier>
    9838:	ebffffe7 	bl	97dc <uart_can_putc>
    983c:	e3500000 	cmp	r0, #0
    9840:	0afffffc 	beq	9838 <uart_putc+0xc>
    9844:	e6ef1074 	uxtb	r1, r4
    9848:	e59f0008 	ldr	r0, [pc, #8]	; 9858 <uart_putc+0x2c>
    984c:	ebffff95 	bl	96a8 <put32>
    9850:	ebffff8e 	bl	9690 <dev_barrier>
    9854:	e8bd8010 	pop	{r4, pc}
    9858:	20215040 	eorcs	r5, r1, r0, asr #32

0000985c <uart_has_data>:
    985c:	e92d4010 	push	{r4, lr}
    9860:	ebffff8a 	bl	9690 <dev_barrier>
    9864:	ebffffd6 	bl	97c4 <uart_can_getc>
    9868:	e8bd8010 	pop	{r4, pc}

0000986c <gpio_set_function>:
    986c:	e350001f 	cmp	r0, #31
    9870:	812fff1e 	bxhi	lr
    9874:	e3d13007 	bics	r3, r1, #7
    9878:	112fff1e 	bxne	lr
    987c:	e92d4070 	push	{r4, r5, r6, lr}
    9880:	e1a05001 	mov	r5, r1
    9884:	e59f3044 	ldr	r3, [pc, #68]	; 98d0 <gpio_set_function+0x64>
    9888:	e0832093 	umull	r2, r3, r3, r0
    988c:	e1a031a3 	lsr	r3, r3, #3
    9890:	e1a06003 	mov	r6, r3
    9894:	e0833103 	add	r3, r3, r3, lsl #2
    9898:	e1a02083 	lsl	r2, r3, #1
    989c:	e0403002 	sub	r3, r0, r2
    98a0:	e0834083 	add	r4, r3, r3, lsl #1
    98a4:	e2866302 	add	r6, r6, #134217728	; 0x8000000
    98a8:	e2866702 	add	r6, r6, #524288	; 0x80000
    98ac:	e1a06106 	lsl	r6, r6, #2
    98b0:	e1a00006 	mov	r0, r6
    98b4:	ebffff89 	bl	96e0 <GET32>
    98b8:	e3a01007 	mov	r1, #7
    98bc:	e1c01411 	bic	r1, r0, r1, lsl r4
    98c0:	e1811415 	orr	r1, r1, r5, lsl r4
    98c4:	e1a00006 	mov	r0, r6
    98c8:	ebffff78 	bl	96b0 <PUT32>
    98cc:	e8bd8070 	pop	{r4, r5, r6, pc}
    98d0:	cccccccd 	stclgt	12, cr12, [ip], {205}	; 0xcd

000098d4 <gpio_set_output>:
    98d4:	e92d4010 	push	{r4, lr}
    98d8:	e3a01001 	mov	r1, #1
    98dc:	ebffffe2 	bl	986c <gpio_set_function>
    98e0:	e8bd8010 	pop	{r4, pc}

000098e4 <gpio_set_on>:
    98e4:	e350001f 	cmp	r0, #31
    98e8:	812fff1e 	bxhi	lr
    98ec:	e92d4010 	push	{r4, lr}
    98f0:	e3a01001 	mov	r1, #1
    98f4:	e1a01011 	lsl	r1, r1, r0
    98f8:	e59f0004 	ldr	r0, [pc, #4]	; 9904 <gpio_set_on+0x20>
    98fc:	ebffff6b 	bl	96b0 <PUT32>
    9900:	e8bd8010 	pop	{r4, pc}
    9904:	2020001c 	eorcs	r0, r0, ip, lsl r0

00009908 <gpio_set_off>:
    9908:	e350001f 	cmp	r0, #31
    990c:	812fff1e 	bxhi	lr
    9910:	e92d4010 	push	{r4, lr}
    9914:	e3a01001 	mov	r1, #1
    9918:	e1a01011 	lsl	r1, r1, r0
    991c:	e59f0004 	ldr	r0, [pc, #4]	; 9928 <gpio_set_off+0x20>
    9920:	ebffff62 	bl	96b0 <PUT32>
    9924:	e8bd8010 	pop	{r4, pc}
    9928:	20200028 	eorcs	r0, r0, r8, lsr #32

0000992c <gpio_set_input>:
    992c:	e92d4010 	push	{r4, lr}
    9930:	e3a01000 	mov	r1, #0
    9934:	ebffffcc 	bl	986c <gpio_set_function>
    9938:	e8bd8010 	pop	{r4, pc}

0000993c <gpio_write>:
    993c:	e92d4010 	push	{r4, lr}
    9940:	e3510000 	cmp	r1, #0
    9944:	1a000001 	bne	9950 <gpio_write+0x14>
    9948:	ebffffee 	bl	9908 <gpio_set_off>
    994c:	e8bd8010 	pop	{r4, pc}
    9950:	ebffffe3 	bl	98e4 <gpio_set_on>
    9954:	e8bd8010 	pop	{r4, pc}

00009958 <gpio_read>:
    9958:	e350001f 	cmp	r0, #31
    995c:	8a000007 	bhi	9980 <gpio_read+0x28>
    9960:	e92d4010 	push	{r4, lr}
    9964:	e200401f 	and	r4, r0, #31
    9968:	e59f3018 	ldr	r3, [pc, #24]	; 9988 <gpio_read+0x30>
    996c:	e08302a0 	add	r0, r3, r0, lsr #5
    9970:	ebffff5a 	bl	96e0 <GET32>
    9974:	e1a00430 	lsr	r0, r0, r4
    9978:	e2000001 	and	r0, r0, #1
    997c:	e8bd8010 	pop	{r4, pc}
    9980:	e3e00000 	mvn	r0, #0
    9984:	e12fff1e 	bx	lr
    9988:	20200034 	eorcs	r0, r0, r4, lsr r0

0000998c <__code_end__>:
    998c:	00000000 	andeq	r0, r0, r0

Disassembly of section .data:

00009990 <__data_start__>:
    9990:	00008dd8 	ldrdeq	r8, [r0], -r8	; <UNPREDICTABLE>

00009994 <putk>:
    9994:	00008e14 	andeq	r8, r0, r4, lsl lr

Disassembly of section .rodata:

00009998 <C.0.4419-0xcc>:
    9998:	494e4150 	stmdbmi	lr, {r4, r6, r8, lr}^
    999c:	73253a43 	teqvc	r5, #274432	; 0x43000
    99a0:	3a73253a 	bcc	1cd2e90 <__bss_end__+0x1cc8918>
    99a4:	693a6425 	ldmdbvs	sl!, {r0, r2, r5, sl, sp, lr}
    99a8:	736f706d 	cmnvc	pc, #109	; 0x6d
    99ac:	6c626973 	stclvs	9, cr6, [r2], #-460	; 0xfffffe34
    99b0:	000a0a65 	andeq	r0, sl, r5, ror #20
    99b4:	74736574 	ldrbtvc	r6, [r3], #-1396	; 0x574
    99b8:	302e3273 	eorcc	r3, lr, r3, ror r2
    99bc:	2d36312f 	ldfcss	f3, [r6, #-188]!	; 0xffffff44
    99c0:	74726170 	ldrbtvc	r6, [r2], #-368	; 0x170
    99c4:	65742d32 	ldrbvs	r2, [r4, #-3378]!	; 0xd32
    99c8:	2e377473 	mrccs	4, 1, r7, cr7, cr3, {3}
    99cc:	00000063 	andeq	r0, r0, r3, rrx
    99d0:	494e4150 	stmdbmi	lr, {r4, r6, r8, lr}^
    99d4:	73253a43 	teqvc	r5, #274432	; 0x43000
    99d8:	3a73253a 	bcc	1cd2ec8 <__bss_end__+0x1cc8950>
    99dc:	253a6425 	ldrcs	r6, [sl, #-1061]!	; 0x425
    99e0:	00000a73 	andeq	r0, r0, r3, ror sl
    99e4:	20746e63 	rsbscs	r6, r4, r3, ror #28
    99e8:	31203d3d 	teqcc	r0, sp, lsr sp
    99ec:	00000000 	andeq	r0, r0, r0
    99f0:	494e4150 	stmdbmi	lr, {r4, r6, r8, lr}^
    99f4:	73253a43 	teqvc	r5, #274432	; 0x43000
    99f8:	3a73253a 	bcc	1cd2ee8 <__bss_end__+0x1cc8970>
    99fc:	633a6425 	teqvs	sl, #620756992	; 0x25000000
    9a00:	6b636568 	blvs	18e2fa8 <__bss_end__+0x18d8a30>
    9a04:	6f687320 	svcvs	0x00687320
    9a08:	20646c75 	rsbcs	r6, r4, r5, ror ip
    9a0c:	20746f6e 	rsbscs	r6, r4, lr, ror #30
    9a10:	65766168 	ldrbvs	r6, [r6, #-360]!	; 0x168
    9a14:	69616620 	stmdbvs	r1!, {r5, r9, sl, sp, lr}^
    9a18:	2164656c 	cmncs	r4, ip, ror #10
    9a1c:	00000a0a 	andeq	r0, r0, sl, lsl #20
    9a20:	43435553 	movtmi	r5, #13651	; 0x3553
    9a24:	3a535345 	bcc	14de740 <__bss_end__+0x14d41c8>
    9a28:	00000000 	andeq	r0, r0, r0
    9a2c:	63656863 	cmnvs	r5, #6488064	; 0x630000
    9a30:	6f77206b 	svcvs	0x0077206b
    9a34:	64656b72 	strbtvs	r6, [r5], #-2930	; 0xb72
    9a38:	20736120 	rsbscs	r6, r3, r0, lsr #2
    9a3c:	73207469 	teqvc	r0, #1761607680	; 0x69000000
    9a40:	6c756f68 	ldclvs	15, cr6, [r5], #-416	; 0xfffffe60
    9a44:	61682064 	cmnvs	r8, r4, rrx
    9a48:	202c6576 	eorcs	r6, ip, r6, ror r5
    9a4c:	6972746e 	ldmdbvs	r2!, {r1, r2, r3, r5, r6, sl, ip, sp, lr}^
    9a50:	3d736c61 	ldclcc	12, cr6, [r3, #-388]!	; 0xfffffe7c
    9a54:	202c6425 	eorcs	r6, ip, r5, lsr #8
    9a58:	7272656e 	rsbsvc	r6, r2, #461373440	; 0x1b800000
    9a5c:	3d73726f 	lfmcc	f7, 2, [r3, #-444]!	; 0xfffffe44
    9a60:	000a6425 	andeq	r6, sl, r5, lsr #8

00009a64 <C.0.4419>:
    9a64:	00000000 	andeq	r0, r0, r0
    9a68:	00008020 	andeq	r8, r0, r0, lsr #32
    9a6c:	00008070 	andeq	r8, r0, r0, ror r0
    9a70:	00008078 	andeq	r8, r0, r8, ror r0
    9a74:	0000808c 	andeq	r8, r0, ip, lsl #1
	...

00009a9c <__FUNCTION__.4415>:
    9a9c:	5f746e63 	svcpl	0x00746e63
    9aa0:	63656863 	cmnvs	r5, #6488064	; 0x630000
    9aa4:	0000006b 	andeq	r0, r0, fp, rrx

00009aa8 <__FUNCTION__.4405>:
    9aa8:	5f746e63 	svcpl	0x00746e63
    9aac:	00000041 	andeq	r0, r0, r1, asr #32

00009ab0 <__FUNCTION__.4425>:
    9ab0:	6d746f6e 	ldclvs	15, cr6, [r4, #-440]!	; 0xfffffe48
    9ab4:	006e6961 	rsbeq	r6, lr, r1, ror #18
    9ab8:	34317063 	ldrtcc	r7, [r1], #-99	; 0x63
    9abc:	6265642d 	rsbvs	r6, r5, #754974720	; 0x2d000000
    9ac0:	632e6775 	teqvs	lr, #30670848	; 0x1d40000
    9ac4:	00000000 	andeq	r0, r0, r0
    9ac8:	30726377 	rsbscc	r6, r2, r7, ror r3
    9acc:	6765725f 			; <UNDEFINED> instruction: 0x6765725f
    9ad0:	203d3d20 	eorscs	r3, sp, r0, lsr #26
    9ad4:	30726377 	rsbscc	r6, r2, r7, ror r3
    9ad8:	7465675f 	strbtvc	r6, [r5], #-1887	; 0x75f
    9adc:	00002928 	andeq	r2, r0, r8, lsr #18
    9ae0:	494e4150 	stmdbmi	lr, {r4, r6, r8, lr}^
    9ae4:	73253a43 	teqvc	r5, #274432	; 0x43000
    9ae8:	3a73253a 	bcc	1cd2fd8 <__bss_end__+0x1cc8a60>
    9aec:	693a6425 	ldmdbvs	sl!, {r0, r2, r5, sl, sp, lr}
    9af0:	736f706d 	cmnvc	pc, #109	; 0x6d
    9af4:	6c626973 	stclvs	9, cr6, [r2], #-460	; 0xfffffe34
    9af8:	73203a65 	teqvc	r0, #413696	; 0x65000
    9afc:	6c756f68 	ldclvs	15, cr6, [r5], #-416	; 0xfffffe60
    9b00:	6e6f2064 	cdpvs	0, 6, cr2, cr15, cr4, {3}
    9b04:	6720796c 	strvs	r7, [r0, -ip, ror #18]!
    9b08:	64207465 	strtvs	r7, [r0], #-1125	; 0x465
    9b0c:	66617461 	strbtvs	r7, [r1], -r1, ror #8
    9b10:	746c7561 	strbtvc	r7, [ip], #-1377	; 0x561
    9b14:	000a0a73 	andeq	r0, sl, r3, ror sl
    9b18:	34317063 	ldrtcc	r7, [r1], #-99	; 0x63
    9b1c:	6265642d 	rsbvs	r6, r5, #754974720	; 0x2d000000
    9b20:	682e6775 	stmdavs	lr!, {r0, r2, r4, r5, r6, r8, r9, sl, sp, lr}
    9b24:	00000000 	andeq	r0, r0, r0
    9b28:	72616677 	rsbvc	r6, r1, #124780544	; 0x7700000
    9b2c:	7465675f 	strbtvc	r6, [r5], #-1887	; 0x75f
    9b30:	342d2928 	strtcc	r2, [sp], #-2344	; 0x928
    9b34:	203d3d20 	eorscs	r3, sp, r0, lsr #26
    9b38:	00006370 	andeq	r6, r0, r0, ror r3
    9b3c:	63746177 	cmnvs	r4, #-1073741795	; 0xc000001d
    9b40:	5f747068 	svcpl	0x00747068
    9b44:	646e6168 	strbtvs	r6, [lr], #-360	; 0x168
    9b48:	3072656c 	rsbscc	r6, r2, ip, ror #10
    9b4c:	00000000 	andeq	r0, r0, r0
    9b50:	494e4150 	stmdbmi	lr, {r4, r6, r8, lr}^
    9b54:	73253a43 	teqvc	r5, #274432	; 0x43000
    9b58:	3a73253a 	bcc	1cd3048 <__bss_end__+0x1cc8ad0>
    9b5c:	693a6425 	ldmdbvs	sl!, {r0, r2, r5, sl, sp, lr}
    9b60:	736f706d 	cmnvc	pc, #109	; 0x6d
    9b64:	6c626973 	stclvs	9, cr6, [r2], #-460	; 0xfffffe34
    9b68:	73203a65 	teqvc	r0, #413696	; 0x65000
    9b6c:	6c756f68 	ldclvs	15, cr6, [r5], #-416	; 0xfffffe60
    9b70:	65672064 	strbvs	r2, [r7, #-100]!	; 0x64
    9b74:	6f6e2074 	svcvs	0x006e2074
    9b78:	68746f20 	ldmdavs	r4!, {r5, r8, r9, sl, fp, sp, lr}^
    9b7c:	66207265 	strtvs	r7, [r0], -r5, ror #4
    9b80:	746c7561 	strbtvc	r7, [ip], #-1377	; 0x561
    9b84:	000a0a73 	andeq	r0, sl, r3, ror sl
    9b88:	706b7262 	rsbvc	r7, fp, r2, ror #4
    9b8c:	61685f74 	smcvs	34292	; 0x85f4
    9b90:	656c646e 	strbvs	r6, [ip, #-1134]!	; 0x46e
    9b94:	00003072 	andeq	r3, r0, r2, ror r0
    9b98:	494e4150 	stmdbmi	lr, {r4, r6, r8, lr}^
    9b9c:	73253a43 	teqvc	r5, #274432	; 0x43000
    9ba0:	3a73253a 	bcc	1cd3090 <__bss_end__+0x1cc8b18>
    9ba4:	723a6425 	eorsvc	r6, sl, #620756992	; 0x25000000
    9ba8:	72757465 	rsbsvc	r7, r5, #1694498816	; 0x65000000
    9bac:	2064656e 	rsbcs	r6, r4, lr, ror #10
    9bb0:	20646e61 	rsbcs	r6, r4, r1, ror #28
    9bb4:	756f6873 	strbvc	r6, [pc, #-2163]!	; 9349 <va_printk+0x25d>
    9bb8:	6e20646c 	cdpvs	4, 2, cr6, cr0, cr12, {3}
    9bbc:	6820746f 	stmdavs	r0!, {r0, r1, r2, r3, r5, r6, sl, ip, sp, lr}
    9bc0:	21657661 	cmncs	r5, r1, ror #12
    9bc4:	00000a0a 	andeq	r0, r0, sl, lsl #20
    9bc8:	656c6c69 	strbvs	r6, [ip, #-3177]!	; 0xc69
    9bcc:	206c6167 	rsbcs	r6, ip, r7, ror #2
    9bd0:	74737973 	ldrbtvc	r7, [r3], #-2419	; 0x973
    9bd4:	63206d65 	teqvs	r0, #6464	; 0x1940
    9bd8:	206c6c61 	rsbcs	r6, ip, r1, ror #24
    9bdc:	000a6425 	andeq	r6, sl, r5, lsr #8

00009be0 <__FUNCTION__.4393>:
    9be0:	63746177 	cmnvs	r4, #-1073741795	; 0xc000001d
    9be4:	5f747068 	svcpl	0x00747068
    9be8:	30746573 	rsbscc	r6, r4, r3, ror r5
    9bec:	00000000 	andeq	r0, r0, r0

00009bf0 <__FUNCTION__.4399>:
    9bf0:	61746164 	cmnvs	r4, r4, ror #2
    9bf4:	6f62615f 	svcvs	0x0062615f
    9bf8:	765f7472 			; <UNDEFINED> instruction: 0x765f7472
    9bfc:	6f746365 	svcvs	0x00746365
    9c00:	00000072 	andeq	r0, r0, r2, ror r0

00009c04 <__FUNCTION__.4306>:
    9c04:	5f736177 	svcpl	0x00736177
    9c08:	75626564 	strbvc	r6, [r2, #-1380]!	; 0x564
    9c0c:	61645f67 	cmnvs	r4, r7, ror #30
    9c10:	61666174 	smcvs	26132	; 0x6614
    9c14:	00746c75 	rsbseq	r6, r4, r5, ror ip

00009c18 <__FUNCTION__.4443>:
    9c18:	66657270 			; <UNDEFINED> instruction: 0x66657270
    9c1c:	68637465 	stmdavs	r3!, {r0, r2, r5, r6, sl, ip, sp, lr}^
    9c20:	6f62615f 	svcvs	0x0062615f
    9c24:	765f7472 			; <UNDEFINED> instruction: 0x765f7472
    9c28:	6f746365 	svcvs	0x00746365
    9c2c:	00000072 	andeq	r0, r0, r2, ror r0

00009c30 <__FUNCTION__.4451>:
    9c30:	5f6b7262 	svcpl	0x006b7262
    9c34:	725f6f6e 	subsvc	r6, pc, #440	; 0x1b8
    9c38:	655f7465 	ldrbvs	r7, [pc, #-1125]	; 97db <uart_can_getc+0x17>
    9c3c:	726f7272 	rsbvc	r7, pc, #536870919	; 0x20000007
    9c40:	00000000 	andeq	r0, r0, r0
    9c44:	253a7325 	ldrcs	r7, [sl, #-805]!	; 0x325
    9c48:	64253a73 	strtvs	r3, [r5], #-2675	; 0xa73
    9c4c:	6572703a 	ldrbvs	r7, [r2, #-58]!	; 0x3a
    9c50:	63746566 	cmnvs	r4, #427819008	; 0x19800000
    9c54:	62612068 	rsbvs	r2, r1, #104	; 0x68
    9c58:	2074726f 	rsbscs	r7, r4, pc, ror #4
    9c5c:	25207461 	strcs	r7, [r0, #-1121]!	; 0x461
    9c60:	00000a70 	andeq	r0, r0, r0, ror sl
    9c64:	63656863 	cmnvs	r5, #6488064	; 0x630000
    9c68:	6e692d6b 	cdpvs	13, 6, cr2, cr9, cr11, {3}
    9c6c:	6c726574 	cfldr64vs	mvdx6, [r2], #-464	; 0xfffffe30
    9c70:	65766165 	ldrbvs	r6, [r6, #-357]!	; 0x165
    9c74:	0000632e 	andeq	r6, r0, lr, lsr #6
    9c78:	756f6261 	strbvc	r6, [pc, #-609]!	; 9a1f <__data_end__+0x87>
    9c7c:	6f742074 	svcvs	0x00742074
    9c80:	69777320 	ldmdbvs	r7!, {r5, r8, r9, ip, sp, lr}^
    9c84:	20686374 	rsbcs	r6, r8, r4, ror r3
    9c88:	6d6f7266 	sfmvs	f7, 2, [pc, #-408]!	; 9af8 <__FUNCTION__.4425+0x48>
    9c8c:	20702520 	rsbscs	r2, r0, r0, lsr #10
    9c90:	25206f74 	strcs	r6, [r0, #-3956]!	; 0xf74
    9c94:	00000a70 	andeq	r0, r0, r0, ror sl
    9c98:	656e6f64 	strbvs	r6, [lr, #-3940]!	; 0xf64
    9c9c:	6e757220 	cdpvs	2, 7, cr7, cr5, cr0, {1}
    9ca0:	676e696e 	strbvs	r6, [lr, -lr, ror #18]!
    9ca4:	202c4220 	eorcs	r4, ip, r0, lsr #4
    9ca8:	6e696f67 	cdpvs	15, 6, cr6, cr9, cr7, {3}
    9cac:	6f742067 	svcvs	0x00742067
    9cb0:	74657220 	strbtvc	r7, [r5], #-544	; 0x220
    9cb4:	206e7275 	rsbcs	r7, lr, r5, ror r2
    9cb8:	41206f74 	teqmi	r0, r4, ror pc
    9cbc:	0000000a 	andeq	r0, r0, sl
    9cc0:	693e2d63 	ldmdbvs	lr!, {r0, r1, r5, r6, r8, sl, fp, sp}
    9cc4:	5f74736e 	svcpl	0x0074736e
    9cc8:	6e756f63 	cdpvs	15, 7, cr6, cr5, cr3, {3}
    9ccc:	203c2074 	eorscs	r2, ip, r4, ror r0
    9cd0:	733e2d63 	teqvc	lr, #6336	; 0x18c0
    9cd4:	63746977 	cmnvs	r4, #1949696	; 0x1dc000
    9cd8:	6e6f5f68 	cdpvs	15, 6, cr5, cr15, cr8, {3}
    9cdc:	736e695f 	cmnvc	lr, #1556480	; 0x17c000
    9ce0:	006e5f74 	rsbeq	r5, lr, r4, ror pc
    9ce4:	253a7325 	ldrcs	r7, [sl, #-805]!	; 0x325
    9ce8:	64253a73 	strtvs	r3, [r5], #-2675	; 0xa73
    9cec:	7465733a 	strbtvc	r7, [r5], #-826	; 0x33a
    9cf0:	676e6974 			; <UNDEFINED> instruction: 0x676e6974
    9cf4:	20707520 	rsbscs	r7, r0, r0, lsr #10
    9cf8:	696d2061 	stmdbvs	sp!, {r0, r5, r6, sp}^
    9cfc:	74616d73 	strbtvc	r6, [r1], #-3443	; 0xd73
    9d00:	6f206863 	svcvs	0x00206863
    9d04:	7025206e 	eorvc	r2, r5, lr, rrx
    9d08:	0000000a 	andeq	r0, r0, sl
    9d0c:	253a7325 	ldrcs	r7, [sl, #-805]!	; 0x325
    9d10:	64253a73 	strtvs	r3, [r5], #-2675	; 0xa73
    9d14:	6e6f643a 	mcrvs	4, 3, r6, cr15, cr10, {1}
    9d18:	65732065 	ldrbvs	r2, [r3, #-101]!	; 0x65
    9d1c:	6e697474 	mcrvs	4, 3, r7, cr9, cr4, {3}
    9d20:	70752067 	rsbsvc	r2, r5, r7, rrx
    9d24:	6d206120 	stfvss	f6, [r0, #-128]!	; 0xffffff80
    9d28:	616d7369 	cmnvs	sp, r9, ror #6
    9d2c:	20686374 	rsbcs	r6, r8, r4, ror r3
    9d30:	25206e6f 	strcs	r6, [r0, #-3695]!	; 0xe6f
    9d34:	00000a70 	andeq	r0, r0, r0, ror sl
    9d38:	52455355 	subpl	r5, r5, #1409286145	; 0x54000001
    9d3c:	444f4d20 	strbmi	r4, [pc], #-3360	; 9d44 <__FUNCTION__.4451+0x114>
    9d40:	00000045 	andeq	r0, r0, r5, asr #32
    9d44:	20514946 	subscs	r4, r1, r6, asr #18
    9d48:	45444f4d 	strbmi	r4, [r4, #-3917]	; 0xf4d
    9d4c:	00000000 	andeq	r0, r0, r0
    9d50:	20515249 	subscs	r5, r1, r9, asr #4
    9d54:	45444f4d 	strbmi	r4, [r4, #-3917]	; 0xf4d
    9d58:	00000000 	andeq	r0, r0, r0
    9d5c:	45505553 	ldrbmi	r5, [r0, #-1363]	; 0x553
    9d60:	4f4d2052 	svcmi	0x004d2052
    9d64:	00004544 	andeq	r4, r0, r4, asr #10
    9d68:	524f4241 	subpl	r4, pc, #268435460	; 0x10000004
    9d6c:	4f4d2054 	svcmi	0x004d2054
    9d70:	00004544 	andeq	r4, r0, r4, asr #10
    9d74:	45444e55 	strbmi	r4, [r4, #-3669]	; 0xe55
    9d78:	4f4d2046 	svcmi	0x004d2046
    9d7c:	00004544 	andeq	r4, r0, r4, asr #10
    9d80:	20535953 	subscs	r5, r3, r3, asr r9
    9d84:	45444f4d 	strbmi	r4, [r4, #-3917]	; 0xf4d
    9d88:	00000000 	andeq	r0, r0, r0
    9d8c:	253a7325 	ldrcs	r7, [sl, #-805]!	; 0x325
    9d90:	64253a73 	strtvs	r3, [r5], #-2675	; 0xa73
    9d94:	6972743a 	ldmdbvs	r2!, {r1, r3, r4, r5, sl, ip, sp, lr}^
    9d98:	253d6c61 	ldrcs	r6, [sp, #-3169]!	; 0xc61
    9d9c:	61203a64 	teqvs	r0, r4, ror #20
    9da0:	74756f62 	ldrbtvc	r6, [r5], #-3938	; 0xf62
    9da4:	206f7420 	rsbcs	r7, pc, r0, lsr #8
    9da8:	20746573 	rsbscs	r6, r4, r3, ror r5
    9dac:	6d73696d 	ldclvs	9, cr6, [r3, #-436]!	; 0xfffffe4c
    9db0:	68637461 	stmdavs	r3!, {r0, r5, r6, sl, ip, sp, lr}^
    9db4:	6b726220 	blvs	1ca263c <__bss_end__+0x1c980c4>
    9db8:	66207470 			; <UNDEFINED> instruction: 0x66207470
    9dbc:	4120726f 	teqmi	r0, pc, ror #4
    9dc0:	0000000a 	andeq	r0, r0, sl
    9dc4:	4f525245 	svcmi	0x00525245
    9dc8:	63203a52 	teqvs	r0, #335872	; 0x52000
    9dcc:	6b636568 	blvs	18e3374 <__bss_end__+0x18d8dfc>
    9dd0:	69616620 	stmdbvs	r1!, {r5, r9, sl, sp, lr}^
    9dd4:	2064656c 	rsbcs	r6, r4, ip, ror #10
    9dd8:	6e656877 	mcrvs	8, 3, r6, cr5, cr7, {3}
    9ddc:	69777320 	ldmdbvs	r7!, {r5, r8, r9, ip, sp, lr}^
    9de0:	65686374 	strbvs	r6, [r8, #-884]!	; 0x374
    9de4:	6e6f2064 	cdpvs	0, 6, cr2, cr15, cr4, {3}
    9de8:	64646120 	strbtvs	r6, [r4], #-288	; 0x120
    9dec:	73736572 	cmnvc	r3, #478150656	; 0x1c800000
    9df0:	2c702520 	cfldr64cs	mvdx2, [r0], #-128	; 0xffffff80
    9df4:	74666120 	strbtvc	r6, [r6], #-288	; 0x120
    9df8:	25207265 	strcs	r7, [r0, #-613]!	; 0x265
    9dfc:	6e692064 	cdpvs	0, 6, cr2, cr9, cr4, {3}
    9e00:	75727473 	ldrbvc	r7, [r2, #-1139]!	; 0x473
    9e04:	6f697463 	svcvs	0x00697463
    9e08:	000a736e 	andeq	r7, sl, lr, ror #6
    9e0c:	656e6f64 	strbvs	r6, [lr, #-3940]!	; 0xf64
    9e10:	64202021 	strtvs	r2, [r0], #-33	; 0x21
    9e14:	63206469 	teqvs	r0, #1761607680	; 0x69000000
    9e18:	736e3e2d 	cmnvc	lr, #720	; 0x2d0
    9e1c:	63746977 	cmnvs	r4, #1949696	; 0x1dc000
    9e20:	3d736568 	cfldr64cc	mvdx6, [r3, #-416]!	; 0xfffffe60
    9e24:	202c6425 	eorcs	r6, ip, r5, lsr #8
    9e28:	6972746e 	ldmdbvs	r2!, {r1, r2, r3, r5, r6, sl, ip, sp, lr}^
    9e2c:	3d736c61 	ldclcc	12, cr6, [r3, #-388]!	; 0xfffffe7c
    9e30:	202c6425 	eorcs	r6, ip, r5, lsr #8
    9e34:	7272656e 	rsbsvc	r6, r2, #461373440	; 0x1b800000
    9e38:	3d73726f 	lfmcc	f7, 2, [r3, #-444]!	; 0xfffffe44
    9e3c:	000a6425 	andeq	r6, sl, r5, lsr #8
    9e40:	72737063 	rsbsvc	r7, r3, #99	; 0x63
    9e44:	6974752d 	ldmdbvs	r4!, {r0, r2, r3, r5, r8, sl, ip, sp, lr}^
    9e48:	00682e6c 	rsbeq	r2, r8, ip, ror #28
    9e4c:	65646f6d 	strbvs	r6, [r4, #-3949]!	; 0xf6d
    9e50:	67656c5f 			; <UNDEFINED> instruction: 0x67656c5f
    9e54:	6d286c61 	stcvs	12, cr6, [r8, #-388]!	; 0xfffffe7c
    9e58:	2965646f 	stmdbcs	r5!, {r0, r1, r2, r3, r5, r6, sl, sp, lr}^
    9e5c:	00000000 	andeq	r0, r0, r0
    9e60:	494e4150 	stmdbmi	lr, {r4, r6, r8, lr}^
    9e64:	73253a43 	teqvc	r5, #274432	; 0x43000
    9e68:	3a73253a 	bcc	1cd3358 <__bss_end__+0x1cc8de0>
    9e6c:	753a6425 	ldrvc	r6, [sl, #-1061]!	; 0x425
    9e70:	6f6e6b6e 	svcvs	0x006e6b6e
    9e74:	6d206e77 	stcvs	14, cr6, [r0, #-476]!	; 0xfffffe24
    9e78:	3a65646f 	bcc	196303c <__bss_end__+0x1958ac4>
    9e7c:	78253c20 	stmdavc	r5!, {r5, sl, fp, ip, sp}
    9e80:	000a0a3e 	andeq	r0, sl, lr, lsr sl
    9e84:	65707865 	ldrbvs	r7, [r0, #-2149]!	; 0x865
    9e88:	64657463 	strbtvs	r7, [r5], #-1123	; 0x463
    9e8c:	646f6d20 	strbtvs	r6, [pc], #-3360	; 9e94 <__FUNCTION__.4451+0x264>
    9e90:	203d2065 	eorscs	r2, sp, r5, rrx
    9e94:	28207325 	stmdacs	r0!, {r0, r2, r5, r8, r9, ip, sp, lr}
    9e98:	0a297825 	beq	a67f34 <__bss_end__+0xa5d9bc>
    9e9c:	00000000 	andeq	r0, r0, r0
    9ea0:	72727563 	rsbsvc	r7, r2, #415236096	; 0x18c00000
    9ea4:	20746e65 	rsbscs	r6, r4, r5, ror #28
    9ea8:	65646f6d 	strbvs	r6, [r4, #-3949]!	; 0xf6d
    9eac:	25203d20 	strcs	r3, [r0, #-3360]!	; 0xd20
    9eb0:	25282073 	strcs	r2, [r8, #-115]!	; 0x73
    9eb4:	000a2978 	andeq	r2, sl, r8, ror r9
    9eb8:	65646f6d 	strbvs	r6, [r4, #-3949]!	; 0xf6d
    9ebc:	7465675f 	strbtvc	r6, [r5], #-1887	; 0x75f
    9ec0:	73706328 	cmnvc	r0, #40, 6	; 0xa0000000
    9ec4:	6c6f5f72 	stclvs	15, cr5, [pc], #-456	; 9d04 <__FUNCTION__.4451+0xd4>
    9ec8:	3d202964 	stccc	9, cr2, [r0, #-400]!	; 0xfffffe70
    9ecc:	6f6d203d 	svcvs	0x006d203d
    9ed0:	675f6564 	ldrbvs	r6, [pc, -r4, ror #10]
    9ed4:	63287465 	teqvs	r8, #1694498816	; 0x65000000
    9ed8:	5f727370 	svcpl	0x00727370
    9edc:	28746567 	ldmdacs	r4!, {r0, r1, r2, r5, r6, r8, sl, sp, lr}^
    9ee0:	00002929 	andeq	r2, r0, r9, lsr #18

00009ee4 <__FUNCTION__.4424>:
    9ee4:	63656863 	cmnvs	r5, #6488064	; 0x630000
    9ee8:	6e6f5f6b 	cdpvs	15, 6, cr5, cr15, cr11, {3}
    9eec:	73635f65 	cmnvc	r3, #404	; 0x194
    9ef0:	63746977 	cmnvs	r4, #1949696	; 0x1dc000
    9ef4:	00000068 	andeq	r0, r0, r8, rrx

00009ef8 <__FUNCTION__.4417>:
    9ef8:	676e6973 			; <UNDEFINED> instruction: 0x676e6973
    9efc:	735f656c 	cmpvc	pc, #108, 10	; 0x1b000000
    9f00:	5f706574 	svcpl	0x00706574
    9f04:	646e6168 	strbtvs	r6, [lr], #-360	; 0x168
    9f08:	0072656c 	rsbseq	r6, r2, ip, ror #10

00009f0c <__FUNCTION__.4397>:
    9f0c:	65646f6d 	strbvs	r6, [r4, #-3949]!	; 0xf6d
    9f10:	7465735f 	strbtvc	r7, [r5], #-863	; 0x35f
    9f14:	00000000 	andeq	r0, r0, r0

00009f18 <__FUNCTION__.4258>:
    9f18:	73746962 	cmnvc	r4, #1605632	; 0x188000
    9f1c:	726c635f 	rsbvc	r6, ip, #2080374785	; 0x7c000001
    9f20:	00000000 	andeq	r0, r0, r0

00009f24 <__FUNCTION__.4409>:
    9f24:	65646f6d 	strbvs	r6, [r4, #-3949]!	; 0xf6d
    9f28:	7274735f 	rsbsvc	r7, r4, #2080374785	; 0x7c000001
    9f2c:	00000000 	andeq	r0, r0, r0

00009f30 <__FUNCTION__.4392>:
    9f30:	65646f6d 	strbvs	r6, [r4, #-3949]!	; 0xf6d
    9f34:	7465675f 	strbtvc	r6, [r5], #-1887	; 0x75f
    9f38:	00000000 	andeq	r0, r0, r0

00009f3c <__FUNCTION__.4251>:
    9f3c:	73746962 	cmnvc	r4, #1605632	; 0x188000
    9f40:	7465675f 	strbtvc	r6, [r5], #-1887	; 0x75f
    9f44:	00000000 	andeq	r0, r0, r0

00009f48 <__FUNCTION__.4249>:
    9f48:	74696d65 	strbtvc	r6, [r9], #-3429	; 0xd65
    9f4c:	00000000 	andeq	r0, r0, r0

00009f50 <__FUNCTION__.4197>:
    9f50:	5f697072 	svcpl	0x00697072
    9f54:	5f746573 	svcpl	0x00746573
    9f58:	7074756f 	rsbsvc	r7, r4, pc, ror #10
    9f5c:	00007475 	andeq	r7, r0, r5, ror r4

00009f60 <__FUNCTION__.4272>:
    9f60:	705f6176 	subsvc	r6, pc, r6, ror r1	; <UNPREDICTABLE>
    9f64:	746e6972 	strbtvc	r6, [lr], #-2418	; 0x972
    9f68:	0000006b 	andeq	r0, r0, fp, rrx
    9f6c:	6362696c 	cmnvs	r2, #108, 18	; 0x1b0000
    9f70:	2d61762f 	stclcs	6, cr7, [r1, #-188]!	; 0xffffff44
    9f74:	6e697270 	mcrvs	2, 3, r7, cr9, cr0, {3}
    9f78:	632e6b74 	teqvs	lr, #116, 22	; 0x1d000
    9f7c:	00000000 	andeq	r0, r0, r0
    9f80:	00000030 	andeq	r0, r0, r0, lsr r0
    9f84:	33323130 	teqcc	r2, #48, 2
    9f88:	37363534 			; <UNDEFINED> instruction: 0x37363534
    9f8c:	00003938 	andeq	r3, r0, r8, lsr r9
    9f90:	33323130 	teqcc	r2, #48, 2
    9f94:	37363534 			; <UNDEFINED> instruction: 0x37363534
    9f98:	62613938 	rsbvs	r3, r1, #56, 18	; 0xe0000
    9f9c:	66656463 	strbtvs	r6, [r5], -r3, ror #8
    9fa0:	00000000 	andeq	r0, r0, r0
    9fa4:	00003130 	andeq	r3, r0, r0, lsr r1
    9fa8:	63747570 	cmnvs	r4, #112, 10	; 0x1c000000
    9fac:	0070665f 	rsbseq	r6, r0, pc, asr r6
    9fb0:	74646977 	strbtvc	r6, [r4], #-2423	; 0x977
    9fb4:	203c2068 	eorscs	r2, ip, r8, rrx
    9fb8:	00003233 	andeq	r3, r0, r3, lsr r2
    9fbc:	494e4150 	stmdbmi	lr, {r4, r6, r8, lr}^
    9fc0:	73253a43 	teqvc	r5, #274432	; 0x43000
    9fc4:	3a73253a 	bcc	1cd34b4 <__bss_end__+0x1cc8f3c>
    9fc8:	663a6425 	ldrtvs	r6, [sl], -r5, lsr #8
    9fcc:	74616f6c 	strbtvc	r6, [r1], #-3948	; 0xf6c
    9fd0:	746f6e20 	strbtvc	r6, [pc], #-3616	; 9fd8 <__FUNCTION__.4272+0x78>
    9fd4:	616e6520 	cmnvs	lr, r0, lsr #10
    9fd8:	64656c62 	strbtvs	r6, [r5], #-3170	; 0xc62
    9fdc:	0a212121 	beq	852468 <__bss_end__+0x847ef0>
    9fe0:	00000000 	andeq	r0, r0, r0
    9fe4:	6e697270 	mcrvs	2, 3, r7, cr9, cr0, {3}
    9fe8:	203a6b74 	eorscs	r6, sl, r4, ror fp
    9fec:	20746f6e 	rsbscs	r6, r4, lr, ror #30
    9ff0:	646e6168 	strbtvs	r6, [lr], #-360	; 0x168
    9ff4:	676e696c 	strbvs	r6, [lr, -ip, ror #18]!
    9ff8:	65707320 	ldrbvs	r7, [r0, #-800]!	; 0x320
    9ffc:	69666963 	stmdbvs	r6!, {r0, r1, r5, r6, r8, fp, sp, lr}^
    a000:	27207265 	strcs	r7, [r0, -r5, ror #4]!
    a004:	20276325 	eorcs	r6, r7, r5, lsr #6
    a008:	63736128 	cmnvs	r3, #40, 2
    a00c:	253d6969 	ldrcs	r6, [sp, #-2409]!	; 0x969
    a010:	000a2964 	andeq	r2, sl, r4, ror #18
    a014:	494e4150 	stmdbmi	lr, {r4, r6, r8, lr}^
    a018:	73253a43 	teqvc	r5, #274432	; 0x43000
    a01c:	3a73253a 	bcc	1cd350c <__bss_end__+0x1cc8f94>
    a020:	703a6425 	eorsvc	r6, sl, r5, lsr #8
    a024:	746e6972 	strbtvc	r6, [lr], #-2418	; 0x972
    a028:	7265206b 	rsbvc	r2, r5, #107	; 0x6b
    a02c:	0a726f72 	beq	1ca5dfc <__bss_end__+0x1c9b884>
    a030:	0000000a 	andeq	r0, r0, sl
    a034:	454e4f44 	strbmi	r4, [lr, #-3908]	; 0xf44
    a038:	0a212121 	beq	8524c4 <__bss_end__+0x847f4c>
    a03c:	00000000 	andeq	r0, r0, r0

0000a040 <__FUNCTION__.4220>:
    a040:	74736166 	ldrbtvc	r6, [r3], #-358	; 0x166
    a044:	746e695f 	strbtvc	r6, [lr], #-2399	; 0x95f
    a048:	75727265 	ldrbvc	r7, [r2, #-613]!	; 0x265
    a04c:	765f7470 			; <UNDEFINED> instruction: 0x765f7470
    a050:	6f746365 	svcvs	0x00746365
    a054:	00000072 	andeq	r0, r0, r2, ror r0
    a058:	494e4150 	stmdbmi	lr, {r4, r6, r8, lr}^
    a05c:	73253a43 	teqvc	r5, #274432	; 0x43000
    a060:	3a73253a 	bcc	1cd3550 <__bss_end__+0x1cc8fd8>
    a064:	453a6425 	ldrmi	r6, [sl, #-1061]!	; 0x425
    a068:	524f5252 	subpl	r5, pc, #536870917	; 0x20000005
    a06c:	6e75203a 	mrcvs	0, 3, r2, cr5, cr10, {1}
    a070:	646e6168 	strbtvs	r6, [lr], #-360	; 0x168
    a074:	2064656c 	rsbcs	r6, r4, ip, ror #10
    a078:	65637865 	strbvs	r7, [r3, #-2149]!	; 0x865
    a07c:	6f697470 	svcvs	0x00697470
    a080:	253c206e 	ldrcs	r2, [ip, #-110]!	; 0x6e
    a084:	61203e73 	teqvs	r0, r3, ror lr
    a088:	43502074 	cmpmi	r0, #116	; 0x74
    a08c:	0a78253d 	beq	1e13588 <__bss_end__+0x1e09010>
    a090:	0000000a 	andeq	r0, r0, sl
    a094:	66617473 			; <UNDEFINED> instruction: 0x66617473
    a098:	72732d66 	rsbsvc	r2, r3, #6528	; 0x1980
    a09c:	65642f63 	strbvs	r2, [r4, #-3939]!	; 0xf63
    a0a0:	6c756166 	ldfvse	f6, [r5], #-408	; 0xfffffe68
    a0a4:	61682d74 	smcvs	33492	; 0x82d4
    a0a8:	656c646e 	strbvs	r6, [ip, #-1134]!	; 0x46e
    a0ac:	61662d72 	smcvs	25298	; 0x62d2
    a0b0:	632e7473 	teqvs	lr, #1929379840	; 0x73000000
    a0b4:	00000000 	andeq	r0, r0, r0
    a0b8:	74736166 	ldrbtvc	r6, [r3], #-358	; 0x166
    a0bc:	00000000 	andeq	r0, r0, r0

0000a0c0 <__FUNCTION__.4220>:
    a0c0:	65736572 	ldrbvs	r6, [r3, #-1394]!	; 0x572
    a0c4:	65765f74 	ldrbvs	r5, [r6, #-3956]!	; 0xf74
    a0c8:	726f7463 	rsbvc	r7, pc, #1660944384	; 0x63000000
    a0cc:	00000000 	andeq	r0, r0, r0
    a0d0:	66617473 			; <UNDEFINED> instruction: 0x66617473
    a0d4:	72732d66 	rsbsvc	r2, r3, #6528	; 0x1980
    a0d8:	65642f63 	strbvs	r2, [r4, #-3939]!	; 0xf63
    a0dc:	6c756166 	ldfvse	f6, [r5], #-408	; 0xfffffe68
    a0e0:	61682d74 	smcvs	33492	; 0x82d4
    a0e4:	656c646e 	strbvs	r6, [ip, #-1134]!	; 0x46e
    a0e8:	65722d72 	ldrbvs	r2, [r2, #-3442]!	; 0xd72
    a0ec:	2e746573 	mrccs	5, 3, r6, cr4, cr3, {3}
    a0f0:	00000063 	andeq	r0, r0, r3, rrx
    a0f4:	65736572 	ldrbvs	r6, [r3, #-1394]!	; 0x572
    a0f8:	00000074 	andeq	r0, r0, r4, ror r0

0000a0fc <__FUNCTION__.4220>:
    a0fc:	65646e75 	strbvs	r6, [r4, #-3701]!	; 0xe75
    a100:	656e6966 	strbvs	r6, [lr, #-2406]!	; 0x966
    a104:	6e695f64 	cdpvs	15, 6, cr5, cr9, cr4, {3}
    a108:	75727473 	ldrbvc	r7, [r2, #-1139]!	; 0x473
    a10c:	6f697463 	svcvs	0x00697463
    a110:	65765f6e 	ldrbvs	r5, [r6, #-3950]!	; 0xf6e
    a114:	726f7463 	rsbvc	r7, pc, #1660944384	; 0x63000000
    a118:	00000000 	andeq	r0, r0, r0
    a11c:	66617473 			; <UNDEFINED> instruction: 0x66617473
    a120:	72732d66 	rsbsvc	r2, r3, #6528	; 0x1980
    a124:	65642f63 	strbvs	r2, [r4, #-3939]!	; 0xf63
    a128:	6c756166 	ldfvse	f6, [r5], #-408	; 0xfffffe68
    a12c:	61682d74 	smcvs	33492	; 0x82d4
    a130:	656c646e 	strbvs	r6, [ip, #-1134]!	; 0x46e
    a134:	6e752d72 	mrcvs	13, 3, r2, cr5, cr2, {3}
    a138:	69666564 	stmdbvs	r6!, {r2, r5, r6, r8, sl, sp, lr}^
    a13c:	2d64656e 	cfstr64cs	mvdx6, [r4, #-440]!	; 0xfffffe48
    a140:	74736e69 	ldrbtvc	r6, [r3], #-3689	; 0xe69
    a144:	0000632e 	andeq	r6, r0, lr, lsr #6
    a148:	65646e75 	strbvs	r6, [r4, #-3701]!	; 0xe75
    a14c:	656e6966 	strbvs	r6, [lr, #-2406]!	; 0x966
    a150:	6e692064 	cdpvs	0, 6, cr2, cr9, cr4, {3}
    a154:	00007473 	andeq	r7, r0, r3, ror r4

Disassembly of section .bss:

0000a158 <__bss_start__>:
    a158:	00000000 	andeq	r0, r0, r0

0000a15c <watchpt_handler0>:
    a15c:	00000000 	andeq	r0, r0, r0

0000a160 <brkpt_handler0>:
    a160:	00000000 	andeq	r0, r0, r0

0000a164 <brk_verbose_p>:
    a164:	00000000 	andeq	r0, r0, r0

0000a168 <nfaults.4398>:
    a168:	00000000 	andeq	r0, r0, r0

0000a16c <init_p.4404>:
    a16c:	00000000 	andeq	r0, r0, r0

0000a170 <checker>:
    a170:	00000000 	andeq	r0, r0, r0

0000a174 <expected_handle>:
    a174:	00000000 	andeq	r0, r0, r0

0000a178 <buf.4189>:
	...

Disassembly of section .ARM.attributes:

00000000 <.ARM.attributes>:
   0:	00002a41 	andeq	r2, r0, r1, asr #20
   4:	61656100 	cmnvs	r5, r0, lsl #2
   8:	01006962 	tsteq	r0, r2, ror #18
   c:	00000020 	andeq	r0, r0, r0, lsr #32
  10:	4b5a3605 	blmi	168d82c <__bss_end__+0x16832b4>
  14:	08070600 	stmdaeq	r7, {r9, sl}
  18:	12010901 	andne	r0, r1, #16384	; 0x4000
  1c:	15011404 	strne	r1, [r1, #-1028]	; 0x404
  20:	18031701 	stmdane	r3, {r0, r8, r9, sl, ip}
  24:	22011a01 	andcs	r1, r1, #4096	; 0x1000
  28:	Address 0x0000000000000028 is out of bounds.


Disassembly of section .comment:

00000000 <.comment>:
   0:	3a434347 	bcc	10d0d24 <__bss_end__+0x10c67ac>
   4:	4e472820 	cdpmi	8, 4, cr2, cr7, cr0, {1}
   8:	34202955 	strtcc	r2, [r0], #-2389	; 0x955
   c:	332e382e 	teqcc	lr, #3014656	; 0x2e0000
  10:	43434700 	movtmi	r4, #14080	; 0x3700
  14:	3128203a 	teqcc	r8, sl, lsr r0
  18:	2e363a35 	mrccs	10, 1, r3, cr6, cr5, {1}
  1c:	2b312e33 	blcs	c4b8f0 <__bss_end__+0xc41378>
  20:	326e7673 	rsbcc	r7, lr, #120586240	; 0x7300000
  24:	33303335 	teqcc	r0, #-738197504	; 0xd4000000
  28:	62312d39 	eorsvs	r2, r1, #3648	; 0xe40
  2c:	646c6975 	strbtvs	r6, [ip], #-2421	; 0x975
  30:	36202931 			; <UNDEFINED> instruction: 0x36202931
  34:	312e332e 	teqcc	lr, lr, lsr #6
  38:	31303220 	teqcc	r0, r0, lsr #4
  3c:	32363037 	eorscc	r3, r6, #55	; 0x37
  40:	Address 0x0000000000000040 is out of bounds.


Disassembly of section .debug_info:

00000000 <.debug_info>:
       0:	0000046d 	andeq	r0, r0, sp, ror #8
       4:	00000004 	andeq	r0, r0, r4
       8:	01040000 	mrseq	r0, (UNDEF: 4)
       c:	00000129 	andeq	r0, r0, r9, lsr #2
      10:	0001f201 	andeq	pc, r1, r1, lsl #4
      14:	00002700 	andeq	r2, r0, r0, lsl #14
      18:	00802000 	addeq	r2, r0, r0
      1c:	0001a800 	andeq	sl, r1, r0, lsl #16
      20:	00000000 	andeq	r0, r0, r0
      24:	05040200 	streq	r0, [r4, #-512]	; 0x200
      28:	00746e69 	rsbseq	r6, r4, r9, ror #28
      2c:	a0070403 	andge	r0, r7, r3, lsl #8
      30:	03000001 	movweq	r0, #1
      34:	00af0601 	adceq	r0, pc, r1, lsl #12
      38:	02030000 	andeq	r0, r3, #0
      3c:	0000f405 	andeq	pc, r0, r5, lsl #8
      40:	05040300 	streq	r0, [r4, #-768]	; 0x300
      44:	000001c5 	andeq	r0, r0, r5, asr #3
      48:	c0050803 	andgt	r0, r5, r3, lsl #16
      4c:	03000001 	movweq	r0, #1
      50:	00ad0801 	adceq	r0, sp, r1, lsl #16
      54:	02030000 	andeq	r0, r3, #0
      58:	0000d307 	andeq	sp, r0, r7, lsl #6
      5c:	02160400 	andseq	r0, r6, #0, 8
      60:	34030000 	strcc	r0, [r3], #-0
      64:	00000068 	andeq	r0, r0, r8, rrx
      68:	9b070403 	blls	1c107c <__bss_end__+0x1b6b04>
      6c:	03000001 	movweq	r0, #1
      70:	01960708 	orrseq	r0, r6, r8, lsl #14
      74:	04030000 	streq	r0, [r3], #-0
      78:	0001b707 	andeq	fp, r1, r7, lsl #14
      7c:	08010300 	stmdaeq	r1, {r8, r9}
      80:	000000b6 	strheq	r0, [r0], -r6
      84:	008a0405 	addeq	r0, sl, r5, lsl #8
      88:	7d060000 	stcvc	0, cr0, [r6, #-0]
      8c:	07000000 	streq	r0, [r0, -r0]
      90:	0000007d 	andeq	r0, r0, sp, ror r0
      94:	0000009f 	muleq	r0, pc, r0	; <UNPREDICTABLE>
      98:	00007608 	andeq	r7, r0, r8, lsl #12
      9c:	09000700 	stmdbeq	r0, {r8, r9, sl}
      a0:	00000121 	andeq	r0, r0, r1, lsr #2
      a4:	500a0238 	andpl	r0, sl, r8, lsr r2
      a8:	0a000001 	beq	b4 <__code_start__-0x7f4c>
      ac:	00000a3f 	andeq	r0, r0, pc, lsr sl
      b0:	01500f02 	cmpeq	r0, r2, lsl #30
      b4:	0b000000 	bleq	bc <__code_start__-0x7f44>
      b8:	12020041 	andne	r0, r2, #65	; 0x41
      bc:	00000168 	andeq	r0, r0, r8, ror #2
      c0:	00420b04 	subeq	r0, r2, r4, lsl #22
      c4:	017d1302 	cmneq	sp, r2, lsl #6
      c8:	0a080000 	beq	2000d0 <__bss_end__+0x1f5b58>
      cc:	00000004 	andeq	r0, r0, r4
      d0:	01681602 	cmneq	r8, r2, lsl #12
      d4:	0a0c0000 	beq	3000dc <__bss_end__+0x2f5b64>
      d8:	00000210 	andeq	r0, r0, r0, lsl r2
      dc:	017d1802 	cmneq	sp, r2, lsl #16
      e0:	0a100000 	beq	4000e8 <__bss_end__+0x3f5b70>
      e4:	000001ad 	andeq	r0, r0, sp, lsr #3
      e8:	01831f02 	orreq	r1, r3, r2, lsl #30
      ec:	0a140000 	beq	5000f4 <__bss_end__+0x4f5b7c>
      f0:	0000009c 	muleq	r0, ip, r0
      f4:	01833102 	orreq	r3, r3, r2, lsl #2
      f8:	0a180000 	beq	600100 <__bss_end__+0x5f5b88>
      fc:	000000c8 	andeq	r0, r0, r8, asr #1
     100:	01883602 	orreq	r3, r8, r2, lsl #12
     104:	0a1c0000 	beq	70010c <__bss_end__+0x6f5b94>
     108:	000001d9 	ldrdeq	r0, [r0], -r9
     10c:	01883a02 	orreq	r3, r8, r2, lsl #20
     110:	0a200000 	beq	800118 <__bss_end__+0x7f5ba0>
     114:	000001ce 	andeq	r0, r0, lr, asr #3
     118:	01833f02 	orreq	r3, r3, r2, lsl #30
     11c:	0a240000 	beq	900124 <__bss_end__+0x8f5bac>
     120:	00000015 	andeq	r0, r0, r5, lsl r0
     124:	002c4202 	eoreq	r4, ip, r2, lsl #4
     128:	0a280000 	beq	a00130 <__bss_end__+0x9f5bb8>
     12c:	00000094 	muleq	r0, r4, r0
     130:	002c4302 	eoreq	r4, ip, r2, lsl #6
     134:	0a2c0000 	beq	b0013c <__bss_end__+0xaf5bc4>
     138:	0000010b 	andeq	r0, r0, fp, lsl #2
     13c:	002c4602 	eoreq	r4, ip, r2, lsl #12
     140:	0a300000 	beq	c00148 <__bss_end__+0xbf5bd0>
     144:	0000021f 	andeq	r0, r0, pc, lsl r2
     148:	01884802 	orreq	r4, r8, r2, lsl #16
     14c:	00340000 	eorseq	r0, r4, r0
     150:	01560405 	cmpeq	r6, r5, lsl #8
     154:	0d0c0000 	stceq	0, cr0, [ip, #-0]
     158:	00000162 	andeq	r0, r0, r2, ror #2
     15c:	0001620e 	andeq	r6, r1, lr, lsl #4
     160:	04050000 	streq	r0, [r5], #-0
     164:	0000009f 	muleq	r0, pc, r0	; <UNPREDICTABLE>
     168:	01570405 	cmpeq	r7, r5, lsl #8
     16c:	250f0000 	strcs	r0, [pc, #-0]	; 174 <__code_start__-0x7e8c>
     170:	7d000000 	stcvc	0, cr0, [r0, #-0]
     174:	0e000001 	cdpeq	0, 0, cr0, cr0, cr1, {0}
     178:	00000162 	andeq	r0, r0, r2, ror #2
     17c:	6e040500 	cfsh32vs	mvfx0, mvfx4, #0
     180:	10000001 	andne	r0, r0, r1
     184:	0000002c 	andeq	r0, r0, ip, lsr #32
     188:	00005d10 	andeq	r5, r0, r0, lsl sp
     18c:	001d0400 	andseq	r0, sp, r0, lsl #8
     190:	49020000 	stmdbmi	r2, {}	; <UNPREDICTABLE>
     194:	0000009f 	muleq	r0, pc, r0	; <UNPREDICTABLE>
     198:	00002510 	andeq	r2, r0, r0, lsl r5
     19c:	00881100 	addeq	r1, r8, r0, lsl #2
     1a0:	09010000 	stmdbeq	r1, {}	; <UNPREDICTABLE>
     1a4:	00008020 	andeq	r8, r0, r0, lsr #32
     1a8:	00000050 	andeq	r0, r0, r0, asr r0
     1ac:	02189c01 	andseq	r9, r8, #256	; 0x100
     1b0:	63120000 	tstvs	r2, #0
     1b4:	18090100 	stmdane	r9, {r8}
     1b8:	00000002 	andeq	r0, r0, r2
     1bc:	13000000 	movwne	r0, #0
     1c0:	000000fe 	strdeq	r0, [r0], -lr
     1c4:	0000022e 	andeq	r0, r0, lr, lsr #4
     1c8:	9aa80305 	bls	fea00de4 <__bss_end__+0xfe9f686c>
     1cc:	28140000 	ldmdacs	r4, {}	; <UNPREDICTABLE>
     1d0:	29000080 	stmdbcs	r0, {r7}
     1d4:	14000004 	strne	r0, [r0], #-4
     1d8:	00008034 	andeq	r8, r0, r4, lsr r0
     1dc:	00000434 	andeq	r0, r0, r4, lsr r4
     1e0:	00804815 	addeq	r4, r0, r5, lsl r8
     1e4:	00043b00 	andeq	r3, r4, r0, lsl #22
     1e8:	00020e00 	andeq	r0, r2, r0, lsl #28
     1ec:	53011600 	movwpl	r1, #5632	; 0x1600
     1f0:	01163b01 	tsteq	r6, r1, lsl #22
     1f4:	a8030552 	stmdage	r3, {r1, r4, r6, r8, sl}
     1f8:	1600009a 			; <UNDEFINED> instruction: 0x1600009a
     1fc:	03055101 	movweq	r5, #20737	; 0x5101
     200:	000099b4 			; <UNDEFINED> instruction: 0x000099b4
     204:	05500116 	ldrbeq	r0, [r0, #-278]	; 0x116
     208:	00999803 	addseq	r9, r9, r3, lsl #16
     20c:	4c140000 	ldcmi	0, cr0, [r4], {-0}
     210:	51000080 	smlabbpl	r0, r0, r0, r0
     214:	00000004 	andeq	r0, r0, r4
     218:	018d0405 	orreq	r0, sp, r5, lsl #8
     21c:	7d070000 	stcvc	0, cr0, [r7, #-0]
     220:	2e000000 	cdpcs	0, 0, cr0, cr0, cr0, {0}
     224:	08000002 	stmdaeq	r0, {r1}
     228:	00000076 	andeq	r0, r0, r6, ror r0
     22c:	1e060005 	cdpne	0, 0, cr0, cr6, cr5, {0}
     230:	17000002 	strne	r0, [r0, -r2]
     234:	0000008e 	andeq	r0, r0, lr, lsl #1
     238:	00250f01 	eoreq	r0, r5, r1, lsl #30
     23c:	80700000 	rsbshi	r0, r0, r0
     240:	00080000 	andeq	r0, r8, r0
     244:	9c010000 	stcls	0, cr0, [r1], {-0}
     248:	0000025a 	andeq	r0, r0, sl, asr r2
     24c:	01006312 	tsteq	r0, r2, lsl r3
     250:	0002180f 	andeq	r1, r2, pc, lsl #16
     254:	00002100 	andeq	r2, r0, r0, lsl #2
     258:	00110000 	andseq	r0, r1, r0
     25c:	01000000 	mrseq	r0, (UNDEF: 0)
     260:	00807814 	addeq	r7, r0, r4, lsl r8
     264:	00001400 	andeq	r1, r0, r0, lsl #8
     268:	7b9c0100 	blvc	fe700670 <__bss_end__+0xfe6f60f8>
     26c:	18000002 	stmdane	r0, {r1}
     270:	14010063 	strne	r0, [r1], #-99	; 0x63
     274:	00000218 	andeq	r0, r0, r8, lsl r2
     278:	17005001 	strne	r5, [r0, -r1]
     27c:	0000020c 	andeq	r0, r0, ip, lsl #4
     280:	00251701 	eoreq	r1, r5, r1, lsl #14
     284:	808c0000 	addhi	r0, ip, r0
     288:	005c0000 	subseq	r0, ip, r0
     28c:	9c010000 	stcls	0, cr0, [r1], {-0}
     290:	000002fb 	strdeq	r0, [r0], -fp
     294:	01006312 	tsteq	r0, r2, lsl r3
     298:	00021817 	andeq	r1, r2, r7, lsl r8
     29c:	00004200 	andeq	r4, r0, r0, lsl #4
     2a0:	00fe1300 	rscseq	r1, lr, r0, lsl #6
     2a4:	030b0000 	movweq	r0, #45056	; 0xb000
     2a8:	03050000 	movweq	r0, #20480	; 0x5000
     2ac:	00009a9c 	muleq	r0, ip, sl
     2b0:	0080a814 	addeq	sl, r0, r4, lsl r8
     2b4:	00043400 	andeq	r3, r4, r0, lsl #8
     2b8:	80c41500 	sbchi	r1, r4, r0, lsl #10
     2bc:	043b0000 	ldrteq	r0, [fp], #-0
     2c0:	02f10000 	rscseq	r0, r1, #0
     2c4:	01160000 	tsteq	r6, r0
     2c8:	16480153 			; <UNDEFINED> instruction: 0x16480153
     2cc:	03055201 	movweq	r5, #20993	; 0x5201
     2d0:	00009a9c 	muleq	r0, ip, sl
     2d4:	05510116 	ldrbeq	r0, [r1, #-278]	; 0x116
     2d8:	0099b403 	addseq	fp, r9, r3, lsl #8
     2dc:	50011600 	andpl	r1, r1, r0, lsl #12
     2e0:	99d00305 	ldmibls	r0, {r0, r2, r8, r9}^
     2e4:	02160000 	andseq	r0, r6, #0
     2e8:	0305007d 	movweq	r0, #20605	; 0x507d
     2ec:	000099e4 	andeq	r9, r0, r4, ror #19
     2f0:	80c81400 	sbchi	r1, r8, r0, lsl #8
     2f4:	04510000 	ldrbeq	r0, [r1], #-0
     2f8:	07000000 	streq	r0, [r0, -r0]
     2fc:	0000007d 	andeq	r0, r0, sp, ror r0
     300:	0000030b 	andeq	r0, r0, fp, lsl #6
     304:	00007608 	andeq	r7, r0, r8, lsl #12
     308:	06000900 	streq	r0, [r0], -r0, lsl #18
     30c:	000002fb 	strdeq	r0, [r0], -fp
     310:	00011a19 	andeq	r1, r1, r9, lsl sl
     314:	8d1c0100 	ldfhis	f0, [ip, #-0]
     318:	e8000001 	stmda	r0, {r0}
     31c:	70000080 	andvc	r0, r0, r0, lsl #1
     320:	01000000 	mrseq	r0, (UNDEF: 0)
     324:	00801a9c 	umulleq	r1, r0, ip, sl
     328:	26010000 	strcs	r0, [r1], -r0
     32c:	00008158 	andeq	r8, r0, r8, asr r1
     330:	00000070 	andeq	r0, r0, r0, ror r0
     334:	04089c01 	streq	r9, [r8], #-3073	; 0xc01
     338:	631b0000 	tstvs	fp, #0
     33c:	9f2a0100 	svcls	0x002a0100
     340:	02000000 	andeq	r0, r0, #0
     344:	6e1c4091 	mrcvs	0, 0, r4, cr12, cr1, {4}
     348:	252b0100 	strcs	r0, [fp, #-256]!	; 0x100
     34c:	13000000 	movwne	r0, #0
     350:	000000fe 	strdeq	r0, [r0], -lr
     354:	00000408 	andeq	r0, r0, r8, lsl #8
     358:	9ab00305 	bls	fec00f74 <__bss_end__+0xfebf69fc>
     35c:	64140000 	ldrvs	r0, [r4], #-0
     360:	58000081 	stmdapl	r0, {r0, r7}
     364:	15000004 	strne	r0, [r0, #-4]
     368:	0000816c 	andeq	r8, r0, ip, ror #2
     36c:	00000310 	andeq	r0, r0, r0, lsl r3
     370:	0000037b 	andeq	r0, r0, fp, ror r3
     374:	02500116 	subseq	r0, r0, #-2147483643	; 0x80000005
     378:	1500007d 	strne	r0, [r0, #-125]	; 0x7d
     37c:	00008174 	andeq	r8, r0, r4, ror r1
     380:	0000045f 	andeq	r0, r0, pc, asr r4
     384:	0000038f 	andeq	r0, r0, pc, lsl #7
     388:	02500116 	subseq	r0, r0, #-2147483643	; 0x80000005
     38c:	1400007d 	strne	r0, [r0], #-125	; 0x7d
     390:	00008180 	andeq	r8, r0, r0, lsl #3
     394:	00000434 	andeq	r0, r0, r4, lsr r4
     398:	00819415 	addeq	r9, r1, r5, lsl r4
     39c:	00043b00 	andeq	r3, r4, r0, lsl #22
     3a0:	0003c700 	andeq	ip, r3, r0, lsl #14
     3a4:	53011600 	movwpl	r1, #5632	; 0x1600
     3a8:	162d0802 	strtne	r0, [sp], -r2, lsl #16
     3ac:	03055201 	movweq	r5, #20993	; 0x5201
     3b0:	00009ab0 			; <UNDEFINED> instruction: 0x00009ab0
     3b4:	05510116 	ldrbeq	r0, [r1, #-278]	; 0x116
     3b8:	0099b403 	addseq	fp, r9, r3, lsl #8
     3bc:	50011600 	andpl	r1, r1, r0, lsl #12
     3c0:	99f00305 	ldmibls	r0!, {r0, r2, r8, r9}^
     3c4:	14000000 	strne	r0, [r0], #-0
     3c8:	00008198 	muleq	r0, r8, r1
     3cc:	00000451 	andeq	r0, r0, r1, asr r4
     3d0:	0081a015 	addeq	sl, r1, r5, lsl r0
     3d4:	00043b00 	andeq	r3, r4, r0, lsl #22
     3d8:	0003e700 	andeq	lr, r3, r0, lsl #14
     3dc:	50011600 	andpl	r1, r1, r0, lsl #12
     3e0:	9a200305 	bls	800ffc <__bss_end__+0x7f6a84>
     3e4:	15000000 	strne	r0, [r0, #-0]
     3e8:	000081b0 			; <UNDEFINED> instruction: 0x000081b0
     3ec:	0000043b 	andeq	r0, r0, fp, lsr r4
     3f0:	000003fe 	strdeq	r0, [r0], -lr
     3f4:	05500116 	ldrbeq	r0, [r0, #-278]	; 0x116
     3f8:	009a2c03 	addseq	r2, sl, r3, lsl #24
     3fc:	b4140000 	ldrlt	r0, [r4], #-0
     400:	51000081 	smlabbpl	r0, r1, r0, r0
     404:	00000004 	andeq	r0, r0, r4
     408:	00008f06 	andeq	r8, r0, r6, lsl #30
     40c:	6e631b00 	vmulvs.f64	d17, d3, d0
     410:	07010074 	smlsdxeq	r1, r4, r0, r0
     414:	00000198 	muleq	r0, r8, r1
     418:	a1580305 	cmpge	r8, r5, lsl #6
     41c:	e61d0000 	ldr	r0, [sp], -r0
     420:	05000000 	streq	r0, [r0, #-0]
     424:	000025c2 	andeq	r2, r0, r2, asr #11
     428:	00091e00 	andeq	r1, r9, r0, lsl #28
     42c:	08010000 	stmdaeq	r1, {}	; <UNPREDICTABLE>
     430:	00000025 	andeq	r0, r0, r5, lsr #32
     434:	0002251f 	andeq	r2, r2, pc, lsl r5
     438:	201e0400 	andscs	r0, lr, r0, lsl #8
     43c:	00000578 	andeq	r0, r0, r8, ror r5
     440:	00252904 	eoreq	r2, r5, r4, lsl #18
     444:	04510000 	ldrbeq	r0, [r1], #-0
     448:	840e0000 	strhi	r0, [lr], #-0
     44c:	21000000 	mrscs	r0, (UNDEF: 0)
     450:	00bb1f00 	adcseq	r1, fp, r0, lsl #30
     454:	65040000 	strvs	r0, [r4, #-0]
     458:	0001e51f 	andeq	lr, r1, pc, lsl r5
     45c:	228d0400 	addcs	r0, sp, #0, 8
     460:	00000210 	andeq	r0, r0, r0, lsl r2
     464:	00254e02 	eoreq	r4, r5, r2, lsl #28
     468:	180e0000 	stmdane	lr, {}	; <UNPREDICTABLE>
     46c:	00000002 	andeq	r0, r0, r2
     470:	000bd700 	andeq	sp, fp, r0, lsl #14
     474:	e0000400 	and	r0, r0, r0, lsl #8
     478:	04000001 	streq	r0, [r0], #-1
     47c:	00012901 	andeq	r2, r1, r1, lsl #18
     480:	02700100 	rsbseq	r0, r0, #0, 2
     484:	00270000 	eoreq	r0, r7, r0
     488:	81c80000 	bichi	r0, r8, r0
     48c:	03780000 	cmneq	r8, #0
     490:	01450000 	mrseq	r0, (UNDEF: 69)
     494:	04020000 	streq	r0, [r2], #-0
     498:	746e6905 	strbtvc	r6, [lr], #-2309	; 0x905
     49c:	07040300 	streq	r0, [r4, -r0, lsl #6]
     4a0:	000001a0 	andeq	r0, r0, r0, lsr #3
     4a4:	af060103 	svcge	0x00060103
     4a8:	03000000 	movweq	r0, #0
     4ac:	00f40502 	rscseq	r0, r4, r2, lsl #10
     4b0:	04030000 	streq	r0, [r3], #-0
     4b4:	0001c505 	andeq	ip, r1, r5, lsl #10
     4b8:	05080300 	streq	r0, [r8, #-768]	; 0x300
     4bc:	000001c0 	andeq	r0, r0, r0, asr #3
     4c0:	ad080103 	stfges	f0, [r8, #-12]
     4c4:	03000000 	movweq	r0, #0
     4c8:	00d30702 	sbcseq	r0, r3, r2, lsl #14
     4cc:	16040000 	strne	r0, [r4], -r0
     4d0:	03000002 	movweq	r0, #2
     4d4:	00006834 	andeq	r6, r0, r4, lsr r8
     4d8:	07040300 	streq	r0, [r4, -r0, lsl #6]
     4dc:	0000019b 	muleq	r0, fp, r1
     4e0:	96070803 	strls	r0, [r7], -r3, lsl #16
     4e4:	03000001 	movweq	r0, #1
     4e8:	01b70704 			; <UNDEFINED> instruction: 0x01b70704
     4ec:	04050000 	streq	r0, [r5], #-0
     4f0:	b6080103 	strlt	r0, [r8], -r3, lsl #2
     4f4:	06000000 	streq	r0, [r0], -r0
     4f8:	00008c04 	andeq	r8, r0, r4, lsl #24
     4fc:	007f0700 	rsbseq	r0, pc, r0, lsl #14
     500:	e8040000 	stmda	r4, {}	; <UNPREDICTABLE>
     504:	02000003 	andeq	r0, r0, #3
     508:	00009c8a 	andeq	r9, r0, sl, lsl #25
     50c:	a2040600 	andge	r0, r4, #0, 12
     510:	08000000 	stmdaeq	r0, {}	; <UNPREDICTABLE>
     514:	000000b7 	strheq	r0, [r0], -r7
     518:	0000b709 	andeq	fp, r0, r9, lsl #14
     51c:	005d0900 	subseq	r0, sp, r0, lsl #18
     520:	5d090000 	stcpl	0, cr0, [r9, #-0]
     524:	00000000 	andeq	r0, r0, r0
     528:	005d0406 	subseq	r0, sp, r6, lsl #8
     52c:	b40a0000 	strlt	r0, [sl], #-0
     530:	02000003 	andeq	r0, r0, #3
     534:	00005d5f 	andeq	r5, r0, pc, asr sp
     538:	00d90300 	sbcseq	r0, r9, r0, lsl #6
     53c:	720b0000 	andvc	r0, fp, #0
     540:	02007465 	andeq	r7, r0, #1694498816	; 0x65000000
     544:	00005d5f 	andeq	r5, r0, pc, asr sp
     548:	340a0000 	strcc	r0, [sl], #-0
     54c:	02000003 	andeq	r0, r0, #3
     550:	00005da6 	andeq	r5, r0, r6, lsr #27
     554:	00f50300 	rscseq	r0, r5, r0, lsl #6
     558:	720b0000 	andvc	r0, fp, #0
     55c:	02007465 	andeq	r7, r0, #1694498816	; 0x65000000
     560:	00005da6 	andeq	r5, r0, r6, lsr #27
     564:	860a0000 	strhi	r0, [sl], -r0
     568:	02000003 	andeq	r0, r0, #3
     56c:	00002c70 	andeq	r2, r0, r0, ror ip
     570:	010f0300 	mrseq	r0, SP_hyp
     574:	720c0000 	andvc	r0, ip, #0
     578:	5d700200 	lfmpl	f0, 2, [r0, #-0]
     57c:	00000000 	andeq	r0, r0, r0
     580:	0002a30a 	andeq	sl, r2, sl, lsl #6
     584:	5d180100 	ldfpls	f0, [r8, #-0]
     588:	03000000 	movweq	r0, #0
     58c:	0000012b 	andeq	r0, r0, fp, lsr #2
     590:	7465720b 	strbtvc	r7, [r5], #-523	; 0x20b
     594:	5d180100 	ldfpls	f0, [r8, #-0]
     598:	00000000 	andeq	r0, r0, r0
     59c:	00040e0d 	andeq	r0, r4, sp, lsl #28
     5a0:	031e0100 	tsteq	lr, #0, 2
     5a4:	00000141 	andeq	r0, r0, r1, asr #2
     5a8:	0100760c 	tsteq	r0, ip, lsl #12
     5ac:	00005d1e 	andeq	r5, r0, lr, lsl sp
     5b0:	e60d0000 	str	r0, [sp], -r0
     5b4:	01000002 	tsteq	r0, r2
     5b8:	01570326 	cmpeq	r7, r6, lsr #6
     5bc:	760c0000 	strvc	r0, [ip], -r0
     5c0:	5d260100 	stfpls	f0, [r6, #-0]
     5c4:	00000000 	andeq	r0, r0, r0
     5c8:	0003cc0d 	andeq	ip, r3, sp, lsl #24
     5cc:	030d0100 	movweq	r0, #53504	; 0xd100
     5d0:	0000016d 	andeq	r0, r0, sp, ror #2
     5d4:	0100760c 	tsteq	r0, ip, lsl #12
     5d8:	00005d0d 	andeq	r5, r0, sp, lsl #26
     5dc:	660a0000 	strvs	r0, [sl], -r0
     5e0:	02000003 	andeq	r0, r0, #3
     5e4:	00002c66 	andeq	r2, r0, r6, ror #24
     5e8:	01890300 	orreq	r0, r9, r0, lsl #6
     5ec:	220e0000 	andcs	r0, lr, #0
     5f0:	02000003 	andeq	r0, r0, #3
     5f4:	00005d67 	andeq	r5, r0, r7, ror #26
     5f8:	f20a0000 	vhadd.s8	d0, d10, d0
     5fc:	02000003 	andeq	r0, r0, #3
     600:	00005d56 	andeq	r5, r0, r6, asr sp
     604:	01a50300 			; <UNDEFINED> instruction: 0x01a50300
     608:	720b0000 	andvc	r0, fp, #0
     60c:	02007465 	andeq	r7, r0, #1694498816	; 0x65000000
     610:	00005d56 	andeq	r5, r0, r6, asr sp
     614:	2c0a0000 	stccs	0, cr0, [sl], {-0}
     618:	02000003 	andeq	r0, r0, #3
     61c:	00005d63 	andeq	r5, r0, r3, ror #26
     620:	01c10300 	biceq	r0, r1, r0, lsl #6
     624:	720b0000 	andvc	r0, fp, #0
     628:	02007465 	andeq	r7, r0, #1694498816	; 0x65000000
     62c:	00005d63 	andeq	r5, r0, r3, ror #26
     630:	910d0000 	mrsls	r0, (UNDEF: 13)
     634:	01000002 	tsteq	r0, r2
     638:	01d70332 	bicseq	r0, r7, r2, lsr r3
     63c:	760c0000 	strvc	r0, [ip], -r0
     640:	5d320100 	ldfpls	f0, [r2, #-0]
     644:	00000000 	andeq	r0, r0, r0
     648:	0003000a 	andeq	r0, r3, sl
     64c:	5d8d0100 	stfpls	f0, [sp]
     650:	03000000 	movweq	r0, #0
     654:	000001f3 	strdeq	r0, [r0], -r3
     658:	7465720b 	strbtvc	r7, [r5], #-523	; 0x20b
     65c:	5d8d0100 	stfpls	f0, [sp]
     660:	00000000 	andeq	r0, r0, r0
     664:	0002c20d 	andeq	ip, r2, sp, lsl #4
     668:	038e0100 	orreq	r0, lr, #0, 2
     66c:	00000209 	andeq	r0, r0, r9, lsl #4
     670:	0100760c 	tsteq	r0, ip, lsl #12
     674:	00005d8e 	andeq	r5, r0, lr, lsl #27
     678:	780d0000 	stmdavc	sp, {}	; <UNPREDICTABLE>
     67c:	01000003 	tsteq	r0, r3
     680:	021f038c 	andseq	r0, pc, #140, 6	; 0x30000002
     684:	760c0000 	strvc	r0, [ip], -r0
     688:	5d8c0100 	stfpls	f0, [ip]
     68c:	00000000 	andeq	r0, r0, r0
     690:	00027d0a 	andeq	r7, r2, sl, lsl #26
     694:	2ca90200 	sfmcs	f0, 4, [r9]
     698:	03000000 	movweq	r0, #0
     69c:	00000239 	andeq	r0, r0, r9, lsr r2
     6a0:	0200720b 	andeq	r7, r0, #-1342177280	; 0xb0000000
     6a4:	00002caa 	andeq	r2, r0, sl, lsr #25
     6a8:	2b0a0000 	blcs	2806b0 <__bss_end__+0x276138>
     6ac:	02000003 	andeq	r0, r0, #3
     6b0:	00005d97 	muleq	r0, r7, sp
     6b4:	02550300 	subseq	r0, r5, #0, 6
     6b8:	720b0000 	andvc	r0, fp, #0
     6bc:	02007465 	andeq	r7, r0, #1694498816	; 0x65000000
     6c0:	00005d97 	muleq	r0, r7, sp
     6c4:	d90f0000 	stmdble	pc, {}	; <UNPREDICTABLE>
     6c8:	01000002 	tsteq	r0, r2
     6cc:	0081c836 	addeq	ip, r1, r6, lsr r8
     6d0:	0000b000 	andeq	fp, r0, r0
     6d4:	309c0100 	addscc	r0, ip, r0, lsl #2
     6d8:	10000004 	andne	r0, r0, r4
     6dc:	000001df 	ldrdeq	r0, [r0], -pc	; <UNPREDICTABLE>
     6e0:	007d3601 	rsbseq	r3, sp, r1, lsl #12
     6e4:	007c0000 	rsbseq	r0, ip, r0
     6e8:	2c100000 	ldccs	0, cr0, [r0], {-0}
     6ec:	01000004 	tsteq	r0, r4
     6f0:	00009136 	andeq	r9, r0, r6, lsr r1
     6f4:	0000c100 	andeq	ip, r0, r0, lsl #2
     6f8:	029a1100 	addseq	r1, sl, #0, 2
     6fc:	39010000 	stmdbcc	r1, {}	; <UNPREDICTABLE>
     700:	0000005d 	andeq	r0, r0, sp, asr r0
     704:	00000106 	andeq	r0, r0, r6, lsl #2
     708:	0000fe12 	andeq	pc, r0, r2, lsl lr	; <UNPREDICTABLE>
     70c:	00044000 	andeq	r4, r4, r0
     710:	e0030500 	and	r0, r3, r0, lsl #10
     714:	1100009b 	swpne	r0, fp, [r0]	; <UNPREDICTABLE>
     718:	000002d0 	ldrdeq	r0, [r0], -r0	; <UNPREDICTABLE>
     71c:	005d4301 	subseq	r4, sp, r1, lsl #6
     720:	01320000 	teqeq	r2, r0
     724:	0f130000 	svceq	0x00130000
     728:	d0000001 	andle	r0, r0, r1
     72c:	04000081 	streq	r0, [r0], #-129	; 0x81
     730:	01000000 	mrseq	r0, (UNDEF: 0)
     734:	0002dc39 	andeq	sp, r2, r9, lsr ip
     738:	81d01400 	bicshi	r1, r0, r0, lsl #8
     73c:	00040000 	andeq	r0, r4, r0
     740:	1f150000 	svcne	0x00150000
     744:	5e000001 	cdppl	0, 0, cr0, cr0, cr1, {0}
     748:	00000001 	andeq	r0, r0, r1
     74c:	012b1300 	teqeq	fp, r0, lsl #6
     750:	81d80000 	bicshi	r0, r8, r0
     754:	00040000 	andeq	r0, r4, r0
     758:	3f010000 	svccc	0x00010000
     75c:	000002f9 	strdeq	r0, [r0], -r9
     760:	00013716 	andeq	r3, r1, r6, lsl r7
     764:	00017100 	andeq	r7, r1, r0, lsl #2
     768:	0f130000 	svceq	0x00130000
     76c:	dc000001 	stcle	0, cr0, [r0], {1}
     770:	04000081 	streq	r0, [r0], #-129	; 0x81
     774:	01000000 	mrseq	r0, (UNDEF: 0)
     778:	00032041 	andeq	r2, r3, r1, asr #32
     77c:	81dc1400 	bicshi	r1, ip, r0, lsl #8
     780:	00040000 	andeq	r0, r4, r0
     784:	1f150000 	svcne	0x00150000
     788:	8f000001 	svchi	0x00000001
     78c:	00000001 	andeq	r0, r0, r1
     790:	01411300 	mrseq	r1, (UNDEF: 113)
     794:	820c0000 	andhi	r0, ip, #0
     798:	00040000 	andeq	r0, r4, r0
     79c:	46010000 	strmi	r0, [r1], -r0
     7a0:	0000033d 	andeq	r0, r0, sp, lsr r3
     7a4:	00014d16 	andeq	r4, r1, r6, lsl sp
     7a8:	00013200 	andeq	r3, r1, r0, lsl #4
     7ac:	2b130000 	blcs	4c07b4 <__bss_end__+0x4b623c>
     7b0:	10000001 	andne	r0, r0, r1
     7b4:	08000082 	stmdaeq	r0, {r1, r7}
     7b8:	01000000 	mrseq	r0, (UNDEF: 0)
     7bc:	00035850 	andeq	r5, r3, r0, asr r8
     7c0:	01371700 	teqeq	r7, r0, lsl #14
     7c4:	01ff0000 	mvnseq	r0, r0
     7c8:	010f1300 	mrseq	r1, SP_hyp
     7cc:	82180000 	andshi	r0, r8, #0
     7d0:	00040000 	andeq	r0, r4, r0
     7d4:	52010000 	andpl	r0, r1, #0
     7d8:	0000037f 	andeq	r0, r0, pc, ror r3
     7dc:	00821814 	addeq	r1, r2, r4, lsl r8
     7e0:	00000400 	andeq	r0, r0, r0, lsl #8
     7e4:	011f1500 	tsteq	pc, r0, lsl #10
     7e8:	01ad0000 			; <UNDEFINED> instruction: 0x01ad0000
     7ec:	00000000 	andeq	r0, r0, r0
     7f0:	00015713 	andeq	r5, r1, r3, lsl r7
     7f4:	00824800 	addeq	r4, r2, r0, lsl #16
     7f8:	00000800 	andeq	r0, r0, r0, lsl #16
     7fc:	99540100 	ldmdbls	r4, {r8}^
     800:	18000003 	stmdane	r0, {r0, r1}
     804:	00000163 	andeq	r0, r0, r3, ror #2
     808:	ec190000 	ldc	0, cr0, [r9], {-0}
     80c:	af000081 	svcge	0x00000081
     810:	1a00000b 	bne	844 <__code_start__-0x77bc>
     814:	00008208 	andeq	r8, r0, r8, lsl #4
     818:	00000bb6 			; <UNDEFINED> instruction: 0x00000bb6
     81c:	000003db 	ldrdeq	r0, [r0], -fp
     820:	0253011b 	subseq	r0, r3, #-1073741818	; 0xc0000006
     824:	011b4108 	tsteq	fp, r8, lsl #2
     828:	e0030552 	and	r0, r3, r2, asr r5
     82c:	1b00009b 	blne	aa0 <__code_start__-0x7560>
     830:	03055101 	movweq	r5, #20737	; 0x5101
     834:	00009ab8 			; <UNDEFINED> instruction: 0x00009ab8
     838:	0550011b 	ldrbeq	r0, [r0, #-283]	; 0x11b
     83c:	0099d003 	addseq	sp, r9, r3
     840:	7d021b00 	vstrvc	d1, [r2, #-0]
     844:	c8030500 	stmdagt	r3, {r8, sl}
     848:	0000009a 	muleq	r0, sl, r0
     84c:	00820c19 	addeq	r0, r2, r9, lsl ip
     850:	000bcc00 	andeq	ip, fp, r0, lsl #24
     854:	82281900 	eorhi	r1, r8, #0, 18
     858:	0baf0000 	bleq	febc0860 <__bss_end__+0xfebb62e8>
     85c:	441a0000 	ldrmi	r0, [sl], #-0
     860:	b6000082 	strlt	r0, [r0], -r2, lsl #1
     864:	2600000b 	strcs	r0, [r0], -fp
     868:	1b000004 	blne	880 <__code_start__-0x7780>
     86c:	08025301 	stmdaeq	r2, {r0, r8, r9, ip, lr}
     870:	52011b52 	andpl	r1, r1, #83968	; 0x14800
     874:	9be00305 	blls	ff801490 <__bss_end__+0xff7f6f18>
     878:	011b0000 	tsteq	fp, r0
     87c:	b8030551 	stmdalt	r3, {r0, r4, r6, r8, sl}
     880:	1b00009a 	blne	af0 <__code_start__-0x7510>
     884:	03055001 	movweq	r5, #20481	; 0x5001
     888:	000099d0 	ldrdeq	r9, [r0], -r0
     88c:	007d021b 	rsbseq	r0, sp, fp, lsl r2
     890:	9ac80305 	bls	ff2014ac <__bss_end__+0xff1f6f34>
     894:	19000000 	stmdbne	r0, {}	; <UNPREDICTABLE>
     898:	00008248 	andeq	r8, r0, r8, asr #4
     89c:	00000bcc 	andeq	r0, r0, ip, asr #23
     8a0:	007f1c00 	rsbseq	r1, pc, r0, lsl #24
     8a4:	04400000 	strbeq	r0, [r0], #-0
     8a8:	761d0000 	ldrvc	r0, [sp], -r0
     8ac:	0c000000 	stceq	0, cr0, [r0], {-0}
     8b0:	04300700 	ldrteq	r0, [r0], #-1792	; 0x700
     8b4:	5c0a0000 	stcpl	0, cr0, [sl], {-0}
     8b8:	02000002 	andeq	r0, r0, #2
     8bc:	00002c76 	andeq	r2, r0, r6, ror ip
     8c0:	046c0300 	strbteq	r0, [ip], #-768	; 0x300
     8c4:	720b0000 	andvc	r0, fp, #0
     8c8:	2c770200 	lfmcs	f0, 2, [r7], #-0
     8cc:	1e000000 	cdpne	0, 0, cr0, cr0, cr0, {0}
     8d0:	000000fe 	strdeq	r0, [r0], -lr
     8d4:	0000047c 	andeq	r0, r0, ip, ror r4
     8d8:	0000025c 	andeq	r0, r0, ip, asr r2
     8dc:	007f1c00 	rsbseq	r1, pc, r0, lsl #24
     8e0:	047c0000 	ldrbteq	r0, [ip], #-0
     8e4:	761d0000 	ldrvc	r0, [sp], -r0
     8e8:	13000000 	movwne	r0, #0
     8ec:	046c0700 	strbteq	r0, [ip], #-1792	; 0x700
     8f0:	340f0000 	strcc	r0, [pc], #-0	; 8f8 <__code_start__-0x7708>
     8f4:	01000002 	tsteq	r0, r2
     8f8:	00827859 	addeq	r7, r2, r9, asr r8
     8fc:	0000dc00 	andeq	sp, r0, r0, lsl #24
     900:	b09c0100 	addslt	r0, ip, r0, lsl #2
     904:	1f000006 	svcne	0x00000006
     908:	01006370 	tsteq	r0, r0, ror r3
     90c:	00002c59 	andeq	r2, r0, r9, asr ip
     910:	0001cb00 	andeq	ip, r1, r0, lsl #22
     914:	03a32000 			; <UNDEFINED> instruction: 0x03a32000
     918:	5a010000 	bpl	40920 <__bss_end__+0x363a8>
     91c:	00000025 	andeq	r0, r0, r5, lsr #32
     920:	a1680305 	cmnge	r8, r5, lsl #6
     924:	fe120000 	cdp2	0, 1, cr0, cr2, cr0, {0}
     928:	c0000000 	andgt	r0, r0, r0
     92c:	05000006 	streq	r0, [r0, #-6]
     930:	009bf003 	addseq	pc, fp, r3
     934:	01e00e00 	mvneq	r0, r0, lsl #28
     938:	6b010000 	blvs	40940 <__bss_end__+0x363c8>
     93c:	0000005d 	andeq	r0, r0, sp, asr r0
     940:	00016d13 	andeq	r6, r1, r3, lsl sp
     944:	00828400 	addeq	r8, r2, r0, lsl #8
     948:	00000400 	andeq	r0, r0, r0, lsl #8
     94c:	115c0100 	cmpne	ip, r0, lsl #2
     950:	14000005 	strne	r0, [r0], #-5
     954:	00008284 	andeq	r8, r0, r4, lsl #5
     958:	00000004 	andeq	r0, r0, r4
     95c:	00017d21 	andeq	r7, r1, r1, lsr #26
     960:	00bd2200 	adcseq	r2, sp, r0, lsl #4
     964:	82840000 	addhi	r0, r4, #0
     968:	00040000 	andeq	r0, r4, r0
     96c:	67020000 	strvs	r0, [r2, -r0]
     970:	00828414 	addeq	r8, r2, r4, lsl r4
     974:	00000400 	andeq	r0, r0, r0, lsl #8
     978:	00cd2100 	sbceq	r2, sp, r0, lsl #2
     97c:	00000000 	andeq	r0, r0, r0
     980:	45130000 	ldrmi	r0, [r3, #-0]
     984:	88000004 	stmdahi	r0, {r2}
     988:	2c000082 	stccs	0, cr0, [r0], {130}	; 0x82
     98c:	01000000 	mrseq	r0, (UNDEF: 0)
     990:	0005c462 	andeq	ip, r5, r2, ror #8
     994:	82881400 	addhi	r1, r8, #0, 8
     998:	002c0000 	eoreq	r0, ip, r0
     99c:	55210000 	strpl	r0, [r1, #-0]!
     9a0:	23000004 	movwcs	r0, #4
     9a4:	0000045e 	andeq	r0, r0, lr, asr r4
     9a8:	9c040305 	stcls	3, cr0, [r4], {5}
     9ac:	bd130000 	ldclt	0, cr0, [r3, #-0]
     9b0:	88000000 	stmdahi	r0, {}	; <UNPREDICTABLE>
     9b4:	04000082 	streq	r0, [r0], #-130	; 0x82
     9b8:	02000000 	andeq	r0, r0, #0
     9bc:	00056477 	andeq	r6, r5, r7, ror r4
     9c0:	82881400 	addhi	r1, r8, #0, 8
     9c4:	00040000 	andeq	r0, r4, r0
     9c8:	cd150000 	ldcgt	0, cr0, [r5, #-0]
     9cc:	42000000 	andmi	r0, r0, #0
     9d0:	00000002 	andeq	r0, r0, r2
     9d4:	00f51300 	rscseq	r1, r5, r0, lsl #6
     9d8:	828c0000 	addhi	r0, ip, #0
     9dc:	00040000 	andeq	r0, r4, r0
     9e0:	78020000 	stmdavc	r2, {}	; <UNPREDICTABLE>
     9e4:	00000581 	andeq	r0, r0, r1, lsl #11
     9e8:	00010516 	andeq	r0, r1, r6, lsl r5
     9ec:	00024200 	andeq	r4, r2, r0, lsl #4
     9f0:	9c190000 	ldcls	0, cr0, [r9], {-0}
     9f4:	af000082 	svcge	0x00000082
     9f8:	1a00000b 	bne	a2c <__code_start__-0x75d4>
     9fc:	000082b0 			; <UNDEFINED> instruction: 0x000082b0
     a00:	00000bb6 			; <UNDEFINED> instruction: 0x00000bb6
     a04:	000005b9 			; <UNDEFINED> instruction: 0x000005b9
     a08:	0253011b 	subseq	r0, r3, #-1073741818	; 0xc0000006
     a0c:	011b7908 	tsteq	fp, r8, lsl #18
     a10:	04030552 	streq	r0, [r3], #-1362	; 0x552
     a14:	1b00009c 	blne	c8c <__code_start__-0x7374>
     a18:	03055101 	movweq	r5, #20737	; 0x5101
     a1c:	00009b18 	andeq	r9, r0, r8, lsl fp
     a20:	0550011b 	ldrbeq	r0, [r0, #-283]	; 0x11b
     a24:	009ae003 	addseq	lr, sl, r3
     a28:	b4190000 	ldrlt	r0, [r9], #-0
     a2c:	cc000082 	stcgt	0, cr0, [r0], {130}	; 0x82
     a30:	0000000b 	andeq	r0, r0, fp
     a34:	01891300 	orreq	r1, r9, r0, lsl #6
     a38:	82b40000 	adcshi	r0, r4, #0
     a3c:	00040000 	andeq	r0, r4, r0
     a40:	67010000 	strvs	r0, [r1, -r0]
     a44:	000005eb 	andeq	r0, r0, fp, ror #11
     a48:	0082b414 	addeq	fp, r2, r4, lsl r4
     a4c:	00000400 	andeq	r0, r0, r0, lsl #8
     a50:	01991500 	orrseq	r1, r9, r0, lsl #10
     a54:	02550000 	subseq	r0, r5, #0
     a58:	00000000 	andeq	r0, r0, r0
     a5c:	0001a513 	andeq	sl, r1, r3, lsl r5
     a60:	00831c00 	addeq	r1, r3, r0, lsl #24
     a64:	00000400 	andeq	r0, r0, r0, lsl #8
     a68:	0e6b0100 	poweqe	f0, f3, f0
     a6c:	14000006 	strne	r0, [r0], #-6
     a70:	0000831c 	andeq	r8, r0, ip, lsl r3
     a74:	00000004 	andeq	r0, r0, r4
     a78:	0001b521 	andeq	fp, r1, r1, lsr #10
     a7c:	19000000 	stmdbne	r0, {}	; <UNPREDICTABLE>
     a80:	000082c8 	andeq	r8, r0, r8, asr #5
     a84:	00000baf 	andeq	r0, r0, pc, lsr #23
     a88:	0082e41a 	addeq	lr, r2, sl, lsl r4
     a8c:	000bb600 	andeq	fp, fp, r0, lsl #12
     a90:	00065000 	andeq	r5, r6, r0
     a94:	53011b00 	movwpl	r1, #6912	; 0x1b00
     a98:	1b670802 	blne	19c2aa8 <__bss_end__+0x19b8530>
     a9c:	03055201 	movweq	r5, #20993	; 0x5201
     aa0:	00009bf0 	strdeq	r9, [r0], -r0
     aa4:	0551011b 	ldrbeq	r0, [r1, #-283]	; 0x11b
     aa8:	009ab803 	addseq	fp, sl, r3, lsl #16
     aac:	50011b00 	andpl	r1, r1, r0, lsl #22
     ab0:	99d00305 	ldmibls	r0, {r0, r2, r8, r9}^
     ab4:	021b0000 	andseq	r0, fp, #0
     ab8:	0305007d 	movweq	r0, #20605	; 0x507d
     abc:	00009b28 	andeq	r9, r0, r8, lsr #22
     ac0:	82e81900 	rschi	r1, r8, #0, 18
     ac4:	0bcc0000 	bleq	ff300acc <__bss_end__+0xff2f6554>
     ac8:	fc190000 	ldc2	0, cr0, [r9], {-0}
     acc:	af000082 	svcge	0x00000082
     ad0:	1a00000b 	bne	b04 <__code_start__-0x74fc>
     ad4:	00008318 	andeq	r8, r0, r8, lsl r3
     ad8:	00000bb6 			; <UNDEFINED> instruction: 0x00000bb6
     adc:	0000069b 	muleq	r0, fp, r6
     ae0:	0253011b 	subseq	r0, r3, #-1073741818	; 0xc0000006
     ae4:	011b6908 	tsteq	fp, r8, lsl #18
     ae8:	f0030552 			; <UNDEFINED> instruction: 0xf0030552
     aec:	1b00009b 	blne	d60 <__code_start__-0x72a0>
     af0:	03055101 	movweq	r5, #20737	; 0x5101
     af4:	00009ab8 			; <UNDEFINED> instruction: 0x00009ab8
     af8:	0550011b 	ldrbeq	r0, [r0, #-283]	; 0x11b
     afc:	0099d003 	addseq	sp, r9, r3
     b00:	7d021b00 	vstrvc	d1, [r2, #-0]
     b04:	3c030500 	cfstr32cc	mvfx0, [r3], {-0}
     b08:	0000009b 	muleq	r0, fp, r0
     b0c:	00831c19 	addeq	r1, r3, r9, lsl ip
     b10:	000bcc00 	andeq	ip, fp, r0, lsl #24
     b14:	83282400 	teqhi	r8, #0, 8
     b18:	011b0000 	tsteq	fp, r0
     b1c:	00300150 	eorseq	r0, r0, r0, asr r1
     b20:	007f1c00 	rsbseq	r1, pc, r0, lsl #24
     b24:	06c00000 	strbeq	r0, [r0], r0
     b28:	761d0000 	ldrvc	r0, [sp], -r0
     b2c:	11000000 	mrsne	r0, (UNDEF: 0)
     b30:	06b00700 	ldrteq	r0, [r0], r0, lsl #14
     b34:	970f0000 	strls	r0, [pc, -r0]
     b38:	01000003 	tsteq	r0, r3
     b3c:	00835472 	addeq	r5, r3, r2, ror r4
     b40:	00003c00 	andeq	r3, r0, r0, lsl #24
     b44:	359c0100 	ldrcc	r0, [ip, #256]	; 0x100
     b48:	20000007 	andcs	r0, r0, r7
     b4c:	000002ac 	andeq	r0, r0, ip, lsr #5
     b50:	00257301 	eoreq	r7, r5, r1, lsl #6
     b54:	03050000 	movweq	r0, #20480	; 0x5000
     b58:	0000a16c 	andeq	sl, r0, ip, ror #2
     b5c:	01007625 	tsteq	r0, r5, lsr #12
     b60:	00005d7c 	andeq	r5, r0, ip, ror sp
     b64:	13800000 	orrne	r0, r0, #0
     b68:	000001c1 	andeq	r0, r0, r1, asr #3
     b6c:	00008378 	andeq	r8, r0, r8, ror r3
     b70:	00000008 	andeq	r0, r0, r8
     b74:	07117e01 	ldreq	r7, [r1, -r1, lsl #28]
     b78:	cd170000 	ldcgt	0, cr0, [r7, #-0]
     b7c:	00000001 	andeq	r0, r0, r1
     b80:	57130080 	ldrpl	r0, [r3, -r0, lsl #1]
     b84:	80000001 	andhi	r0, r0, r1
     b88:	10000083 	andne	r0, r0, r3, lsl #1
     b8c:	01000000 	mrseq	r0, (UNDEF: 0)
     b90:	00072b80 	andeq	r2, r7, r0, lsl #23
     b94:	01631800 	cmneq	r3, r0, lsl #16
     b98:	00000000 	andeq	r0, r0, r0
     b9c:	00836c19 	addeq	r6, r3, r9, lsl ip
     ba0:	000bd300 	andeq	sp, fp, r0, lsl #6
     ba4:	030f0000 	movweq	r0, #61440	; 0xf000
     ba8:	01000004 	tsteq	r0, r4
     bac:	008390a8 	addeq	r9, r3, r8, lsr #1
     bb0:	00003400 	andeq	r3, r0, r0, lsl #8
     bb4:	119c0100 	orrsne	r0, ip, r0, lsl #2
     bb8:	26000008 	strcs	r0, [r0], -r8
     bbc:	000001e0 	andeq	r0, r0, r0, ror #3
     bc0:	005da801 	subseq	sl, sp, r1, lsl #16
     bc4:	50010000 	andpl	r0, r1, r0
     bc8:	00042c26 	andeq	r2, r4, r6, lsr #24
     bcc:	91a80100 			; <UNDEFINED> instruction: 0x91a80100
     bd0:	01000000 	mrseq	r0, (UNDEF: 0)
     bd4:	03df1151 	bicseq	r1, pc, #1073741844	; 0x40000014
     bd8:	a9010000 	stmdbge	r1, {}	; <UNPREDICTABLE>
     bdc:	0000005d 	andeq	r0, r0, sp, asr r0
     be0:	00000282 	andeq	r0, r0, r2, lsl #5
     be4:	0003ab20 	andeq	sl, r3, r0, lsr #22
     be8:	5db10100 	ldfpls	f0, [r1]
     bec:	01000000 	mrseq	r0, (UNDEF: 0)
     bf0:	01d71350 	bicseq	r1, r7, r0, asr r3
     bf4:	83900000 	orrshi	r0, r0, #0
     bf8:	00040000 	andeq	r0, r4, r0
     bfc:	a9010000 	stmdbge	r1, {}	; <UNPREDICTABLE>
     c00:	000007a7 	andeq	r0, r0, r7, lsr #15
     c04:	00839014 	addeq	r9, r3, r4, lsl r0
     c08:	00000400 	andeq	r0, r0, r0, lsl #8
     c0c:	01e71500 	mvneq	r1, r0, lsl #10
     c10:	02a30000 	adceq	r0, r3, #0
     c14:	00000000 	andeq	r0, r0, r0
     c18:	0001f313 	andeq	pc, r1, r3, lsl r3	; <UNPREDICTABLE>
     c1c:	00839800 	addeq	r9, r3, r0, lsl #16
     c20:	00000400 	andeq	r0, r0, r0, lsl #8
     c24:	c4af0100 	strtgt	r0, [pc], #256	; c2c <__code_start__-0x73d4>
     c28:	16000007 	strne	r0, [r0], -r7
     c2c:	000001ff 	strdeq	r0, [r0], -pc	; <UNPREDICTABLE>
     c30:	000002b6 			; <UNDEFINED> instruction: 0x000002b6
     c34:	02091300 	andeq	r1, r9, #0, 6
     c38:	839c0000 	orrshi	r0, ip, #0
     c3c:	00040000 	andeq	r0, r4, r0
     c40:	b4010000 	strlt	r0, [r1], #-0
     c44:	000007df 	ldrdeq	r0, [r0], -pc	; <UNPREDICTABLE>
     c48:	00021527 	andeq	r1, r2, r7, lsr #10
     c4c:	00500100 	subseq	r0, r0, r0, lsl #2
     c50:	0001f313 	andeq	pc, r1, r3, lsl r3	; <UNPREDICTABLE>
     c54:	0083a000 	addeq	sl, r3, r0
     c58:	00000800 	andeq	r0, r0, r0, lsl #16
     c5c:	fabe0100 	blx	fef81064 <__bss_end__+0xfef76aec>
     c60:	17000007 	strne	r0, [r0, -r7]
     c64:	000001ff 	strdeq	r0, [r0], -pc	; <UNPREDICTABLE>
     c68:	220001e7 	andcs	r0, r0, #-1073741767	; 0xc0000039
     c6c:	00000157 	andeq	r0, r0, r7, asr r1
     c70:	000083a8 	andeq	r8, r0, r8, lsr #7
     c74:	00000008 	andeq	r0, r0, r8
     c78:	6318bf01 	tstvs	r8, #1, 30
     c7c:	00000001 	andeq	r0, r0, r1
     c80:	460f0000 	strmi	r0, [pc], -r0
     c84:	01000002 	tsteq	r0, r2
     c88:	0083c4c4 	addeq	ip, r3, r4, asr #9
     c8c:	00009800 	andeq	r9, r0, r0, lsl #16
     c90:	449c0100 	ldrmi	r0, [ip], #256	; 0x100
     c94:	1f000009 	svcne	0x00000009
     c98:	01006370 	tsteq	r0, r0, ror r3
     c9c:	00002cc4 	andeq	r2, r0, r4, asr #25
     ca0:	0002c900 	andeq	ip, r2, r0, lsl #18
     ca4:	00fe1200 	rscseq	r1, lr, r0, lsl #4
     ca8:	09540000 	ldmdbeq	r4, {}^	; <UNPREDICTABLE>
     cac:	03050000 	movweq	r0, #20480	; 0x5000
     cb0:	00009c18 	andeq	r9, r0, r8, lsl ip
     cb4:	00021f13 	andeq	r1, r2, r3, lsl pc
     cb8:	0083d000 	addeq	sp, r3, r0
     cbc:	00000800 	andeq	r0, r0, r0, lsl #16
     cc0:	89c60100 	stmibhi	r6, {r8}^
     cc4:	14000008 	strne	r0, [r0], #-8
     cc8:	000083d0 	ldrdeq	r8, [r0], -r0
     ccc:	00000008 	andeq	r0, r0, r8
     cd0:	00022f21 	andeq	r2, r2, r1, lsr #30
     cd4:	00d92200 	sbcseq	r2, r9, r0, lsl #4
     cd8:	83d00000 	bicshi	r0, r0, #0
     cdc:	00040000 	andeq	r0, r4, r0
     ce0:	aa020000 	bge	80ce8 <__bss_end__+0x76770>
     ce4:	0083d014 	addeq	sp, r3, r4, lsl r0
     ce8:	00000400 	andeq	r0, r0, r0, lsl #8
     cec:	00e91500 	rsceq	r1, r9, r0, lsl #10
     cf0:	03270000 	teqeq	r7, #0
     cf4:	00000000 	andeq	r0, r0, r0
     cf8:	39130000 	ldmdbcc	r3, {}	; <UNPREDICTABLE>
     cfc:	30000002 	andcc	r0, r0, r2
     d00:	04000084 	streq	r0, [r0], #-132	; 0x84
     d04:	01000000 	mrseq	r0, (UNDEF: 0)
     d08:	0008acca 	andeq	sl, r8, sl, asr #25
     d0c:	84301400 	ldrthi	r1, [r0], #-1024	; 0x400
     d10:	00040000 	andeq	r0, r4, r0
     d14:	49210000 	stmdbmi	r1!, {}	; <UNPREDICTABLE>
     d18:	00000002 	andeq	r0, r0, r2
     d1c:	83e41900 	mvnhi	r1, #0, 18
     d20:	0baf0000 	bleq	febc0d28 <__bss_end__+0xfebb67b0>
     d24:	f81a0000 			; <UNDEFINED> instruction: 0xf81a0000
     d28:	b6000083 	strlt	r0, [r0], -r3, lsl #1
     d2c:	e400000b 	str	r0, [r0], #-11
     d30:	1b000008 	blne	d58 <__code_start__-0x72a8>
     d34:	08025301 	stmdaeq	r2, {r0, r8, r9, ip, lr}
     d38:	52011bc7 	andpl	r1, r1, #203776	; 0x31c00
     d3c:	9c180305 	ldcls	3, cr0, [r8], {5}
     d40:	011b0000 	tsteq	fp, r0
     d44:	b8030551 	stmdalt	r3, {r0, r4, r6, r8, sl}
     d48:	1b00009a 	blne	fb8 <__code_start__-0x7048>
     d4c:	03055001 	movweq	r5, #20481	; 0x5001
     d50:	00009b50 	andeq	r9, r0, r0, asr fp
     d54:	83fc1900 	mvnshi	r1, #0, 18
     d58:	0bcc0000 	bleq	ff300d60 <__bss_end__+0xff2f67e8>
     d5c:	10190000 	andsne	r0, r9, r0
     d60:	af000084 	svcge	0x00000084
     d64:	1a00000b 	bne	d98 <__code_start__-0x7268>
     d68:	0000842c 	andeq	r8, r0, ip, lsr #8
     d6c:	00000bb6 			; <UNDEFINED> instruction: 0x00000bb6
     d70:	0000092f 	andeq	r0, r0, pc, lsr #18
     d74:	0253011b 	subseq	r0, r3, #-1073741818	; 0xc0000006
     d78:	011bc808 	tsteq	fp, r8, lsl #16
     d7c:	18030552 	stmdane	r3, {r1, r4, r6, r8, sl}
     d80:	1b00009c 	blne	ff8 <__code_start__-0x7008>
     d84:	03055101 	movweq	r5, #20737	; 0x5101
     d88:	00009ab8 			; <UNDEFINED> instruction: 0x00009ab8
     d8c:	0550011b 	ldrbeq	r0, [r0, #-283]	; 0x11b
     d90:	0099d003 	addseq	sp, r9, r3
     d94:	7d021b00 	vstrvc	d1, [r2, #-0]
     d98:	88030500 	stmdahi	r3, {r8, sl}
     d9c:	0000009b 	muleq	r0, fp, r0
     da0:	00843019 	addeq	r3, r4, r9, lsl r0
     da4:	000bcc00 	andeq	ip, fp, r0, lsl #24
     da8:	843c2400 	ldrthi	r2, [ip], #-1024	; 0x400
     dac:	011b0000 	tsteq	fp, r0
     db0:	00300150 	eorseq	r0, r0, r0, asr r1
     db4:	007f1c00 	rsbseq	r1, pc, r0, lsl #24
     db8:	09540000 	ldmdbeq	r4, {}^	; <UNPREDICTABLE>
     dbc:	761d0000 	ldrvc	r0, [sp], -r0
     dc0:	15000000 	strne	r0, [r0, #-0]
     dc4:	09440700 	stmdbeq	r4, {r8, r9, sl}^
     dc8:	630f0000 	movwvs	r0, #61440	; 0xf000
     dcc:	01000007 	tsteq	r0, r7
     dd0:	00845ccd 	addeq	r5, r4, sp, asr #25
     dd4:	00000400 	andeq	r0, r0, r0, lsl #8
     dd8:	7b9c0100 	blvc	fe7011e0 <__bss_end__+0xfe6f6c68>
     ddc:	28000009 	stmdacs	r0, {r0, r3}
     de0:	01006370 	tsteq	r0, r0, ror r3
     de4:	00002ccd 	andeq	r2, r0, sp, asr #25
     de8:	00500100 	subseq	r0, r0, r0, lsl #2
     dec:	0002ef0f 	andeq	lr, r2, pc, lsl #30
     df0:	60d80100 	sbcsvs	r0, r8, r0, lsl #2
     df4:	2c000084 	stccs	0, cr0, [r0], {132}	; 0x84
     df8:	01000000 	mrseq	r0, (UNDEF: 0)
     dfc:	0009e19c 	muleq	r9, ip, r1
     e00:	00fe1200 	rscseq	r1, lr, r0, lsl #4
     e04:	09f10000 	ldmibeq	r1!, {}^	; <UNPREDICTABLE>
     e08:	03050000 	movweq	r0, #20480	; 0x5000
     e0c:	00009c30 	andeq	r9, r0, r0, lsr ip
     e10:	00846819 	addeq	r6, r4, r9, lsl r8
     e14:	000baf00 	andeq	sl, fp, r0, lsl #30
     e18:	847c1a00 	ldrbthi	r1, [ip], #-2560	; 0xa00
     e1c:	0bb60000 	bleq	fed80e24 <__bss_end__+0xfed768ac>
     e20:	09d70000 	ldmibeq	r7, {}^	; <UNPREDICTABLE>
     e24:	011b0000 	tsteq	fp, r0
     e28:	d9080253 	stmdble	r8, {r0, r1, r4, r6, r9}
     e2c:	0552011b 	ldrbeq	r0, [r2, #-283]	; 0x11b
     e30:	009c3003 	addseq	r3, ip, r3
     e34:	51011b00 	tstpl	r1, r0, lsl #22
     e38:	9ab80305 	bls	fee01a54 <__bss_end__+0xfedf74dc>
     e3c:	011b0000 	tsteq	fp, r0
     e40:	98030550 	stmdals	r3, {r4, r6, r8, sl}
     e44:	0000009b 	muleq	r0, fp, r0
     e48:	00848019 	addeq	r8, r4, r9, lsl r0
     e4c:	000bcc00 	andeq	ip, fp, r0, lsl #24
     e50:	7f1c0000 	svcvc	0x001c0000
     e54:	f1000000 	cps	#0
     e58:	1d000009 	stcne	0, cr0, [r0, #-36]	; 0xffffffdc
     e5c:	00000076 	andeq	r0, r0, r6, ror r0
     e60:	e1070010 	tst	r7, r0, lsl r0
     e64:	0f000009 	svceq	0x00000009
     e68:	0000030e 	andeq	r0, r0, lr, lsl #6
     e6c:	848cdc01 	strhi	sp, [ip], #3073	; 0xc01
     e70:	00340000 	eorseq	r0, r4, r0
     e74:	9c010000 	stcls	0, cr0, [r1], {-0}
     e78:	00000ad4 	ldrdeq	r0, [r0], -r4
     e7c:	0001e026 	andeq	lr, r1, r6, lsr #32
     e80:	5ddc0100 	ldfple	f0, [ip]
     e84:	01000000 	mrseq	r0, (UNDEF: 0)
     e88:	042c2650 	strteq	r2, [ip], #-1616	; 0x650
     e8c:	dc010000 	stcle	0, cr0, [r1], {-0}
     e90:	00000091 	muleq	r0, r1, r0
     e94:	df115101 	svcle	0x00115101
     e98:	01000003 	tsteq	r0, r3
     e9c:	00005ddd 	ldrdeq	r5, [r0], -sp
     ea0:	00033a00 	andeq	r3, r3, r0, lsl #20
     ea4:	03ab2000 			; <UNDEFINED> instruction: 0x03ab2000
     ea8:	e5010000 	str	r0, [r1, #-0]
     eac:	0000005d 	andeq	r0, r0, sp, asr r0
     eb0:	d7135001 	ldrle	r5, [r3, -r1]
     eb4:	8c000001 	stchi	0, cr0, [r0], {1}
     eb8:	04000084 	streq	r0, [r0], #-132	; 0x84
     ebc:	01000000 	mrseq	r0, (UNDEF: 0)
     ec0:	000a68dd 	ldrdeq	r6, [sl], -sp
     ec4:	848c1400 	strhi	r1, [ip], #1024	; 0x400
     ec8:	00040000 	andeq	r0, r4, r0
     ecc:	e7150000 	ldr	r0, [r5, -r0]
     ed0:	5d000001 	stcpl	0, cr0, [r0, #-4]
     ed4:	00000003 	andeq	r0, r0, r3
     ed8:	01f31300 	mvnseq	r1, r0, lsl #6
     edc:	84940000 	ldrhi	r0, [r4], #0
     ee0:	00040000 	andeq	r0, r4, r0
     ee4:	e3010000 	movw	r0, #4096	; 0x1000
     ee8:	00000a85 	andeq	r0, r0, r5, lsl #21
     eec:	0001ff16 	andeq	pc, r1, r6, lsl pc	; <UNPREDICTABLE>
     ef0:	00037000 	andeq	r7, r3, r0
     ef4:	09130000 	ldmdbeq	r3, {}	; <UNPREDICTABLE>
     ef8:	98000002 	stmdals	r0, {r1}
     efc:	04000084 	streq	r0, [r0], #-132	; 0x84
     f00:	01000000 	mrseq	r0, (UNDEF: 0)
     f04:	000aa0e8 	andeq	sl, sl, r8, ror #1
     f08:	02152700 	andseq	r2, r5, #0, 14
     f0c:	50010000 	andpl	r0, r1, r0
     f10:	01f31300 	mvnseq	r1, r0, lsl #6
     f14:	849c0000 	ldrhi	r0, [ip], #0
     f18:	00080000 	andeq	r0, r8, r0
     f1c:	f2010000 	vhadd.s8	d0, d1, d0
     f20:	00000abd 			; <UNDEFINED> instruction: 0x00000abd
     f24:	0001ff29 	andeq	pc, r1, r9, lsr #30
     f28:	4001e700 	andmi	lr, r1, r0, lsl #14
     f2c:	57220000 	strpl	r0, [r2, -r0]!
     f30:	a4000001 	strge	r0, [r0], #-1
     f34:	08000084 	stmdaeq	r0, {r2, r7}
     f38:	01000000 	mrseq	r0, (UNDEF: 0)
     f3c:	016318f3 	strdeq	r1, [r3, #-131]!	; 0xffffff7d
     f40:	00000000 	andeq	r0, r0, r0
     f44:	034e0f00 	movteq	r0, #61184	; 0xef00
     f48:	f8010000 			; <UNDEFINED> instruction: 0xf8010000
     f4c:	000084c0 	andeq	r8, r0, r0, asr #9
     f50:	00000010 	andeq	r0, r0, r0, lsl r0
     f54:	0b209c01 	bleq	827f60 <__bss_end__+0x81d9e8>
     f58:	e0260000 	eor	r0, r6, r0
     f5c:	01000001 	tsteq	r0, r1
     f60:	00005df8 	strdeq	r5, [r0], -r8
     f64:	2a500100 	bcs	140136c <__bss_end__+0x13f6df4>
     f68:	000003df 	ldrdeq	r0, [r0], -pc	; <UNPREDICTABLE>
     f6c:	005df901 	subseq	pc, sp, r1, lsl #18
     f70:	01e60000 	mvneq	r0, r0
     f74:	f32b0040 	vhadd.u32	q0, <illegal reg q5.5>, q0
     f78:	c0000001 	andgt	r0, r0, r1
     f7c:	10000084 	andne	r0, r0, r4, lsl #1
     f80:	01000000 	mrseq	r0, (UNDEF: 0)
     f84:	ff290100 			; <UNDEFINED> instruction: 0xff290100
     f88:	e6000001 	str	r0, [r0], -r1
     f8c:	00004001 	andeq	r4, r0, r1
     f90:	03bd2c00 			; <UNDEFINED> instruction: 0x03bd2c00
     f94:	09010000 	stmdbeq	r1, {}	; <UNPREDICTABLE>
     f98:	00002501 	andeq	r2, r0, r1, lsl #10
     f9c:	0084d000 	addeq	sp, r4, r0
     fa0:	00007000 	andeq	r7, r0, r0
     fa4:	7c9c0100 	ldfvcs	f0, [ip], {0}
     fa8:	2d00000b 	stccs	0, cr0, [r0, #-44]	; 0xffffffd4
     fac:	01006370 	tsteq	r0, r0, ror r3
     fb0:	002c0109 	eoreq	r0, ip, r9, lsl #2
     fb4:	03830000 	orreq	r0, r3, #0
     fb8:	722d0000 	eorvc	r0, sp, #0
     fbc:	09010030 	stmdbeq	r1, {r4, r5}
     fc0:	00005d01 	andeq	r5, r0, r1, lsl #26
     fc4:	00040800 	andeq	r0, r4, r0, lsl #16
     fc8:	03fb2e00 	mvnseq	r2, #0, 28
     fcc:	0a010000 	beq	40fd4 <__bss_end__+0x36a5c>
     fd0:	00005d01 	andeq	r5, r0, r1, lsl #26
     fd4:	00043400 	andeq	r3, r4, r0, lsl #8
     fd8:	85242f00 	strhi	r2, [r4, #-3840]!	; 0xf00
     fdc:	0bb60000 	bleq	fed80fe4 <__bss_end__+0xfed76a6c>
     fe0:	011b0000 	tsteq	fp, r0
     fe4:	c8030550 	stmdagt	r3, {r4, r6, r8, sl}
     fe8:	0000009b 	muleq	r0, fp, r0
     fec:	033d2000 	teqeq	sp, #0
     ff0:	0b010000 	bleq	40ff8 <__bss_end__+0x36a80>
     ff4:	00000091 	muleq	r0, r1, r0
     ff8:	a15c0305 	cmpge	ip, r5, lsl #6
     ffc:	b3200000 	teqlt	r0, #0
    1000:	01000002 	tsteq	r0, r2
    1004:	00009189 	andeq	r9, r0, r9, lsl #3
    1008:	60030500 	andvs	r0, r3, r0, lsl #10
    100c:	300000a1 	andcc	r0, r0, r1, lsr #1
    1010:	000000e6 	andeq	r0, r0, r6, ror #1
    1014:	0025d501 	eoreq	sp, r5, r1, lsl #10
    1018:	03050000 	movweq	r0, #20480	; 0x5000
    101c:	0000a164 	andeq	sl, r0, r4, ror #2
    1020:	00022531 	andeq	r2, r2, r1, lsr r5
    1024:	321e0400 	andscc	r0, lr, #0, 8
    1028:	00000578 	andeq	r0, r0, r8, ror r5
    102c:	00252904 	eoreq	r2, r5, r4, lsl #18
    1030:	0bcc0000 	bleq	ff301038 <__bss_end__+0xff2f6ac0>
    1034:	86090000 	strhi	r0, [r9], -r0
    1038:	33000000 	movwcc	r0, #0
    103c:	00bb3100 	adcseq	r3, fp, r0, lsl #2
    1040:	65040000 	strvs	r0, [r4, #-0]
    1044:	00041731 	andeq	r1, r4, r1, lsr r7
    1048:	00360500 	eorseq	r0, r6, r0, lsl #10
    104c:	00000e74 	andeq	r0, r0, r4, ror lr
    1050:	04730004 	ldrbteq	r0, [r3], #-4
    1054:	01040000 	mrseq	r0, (UNDEF: 4)
    1058:	00000129 	andeq	r0, r0, r9, lsr #2
    105c:	00043f01 	andeq	r3, r4, r1, lsl #30
    1060:	00002700 	andeq	r2, r0, r0, lsl #14
    1064:	00867800 	addeq	r7, r6, r0, lsl #16
    1068:	00070800 	andeq	r0, r7, r0, lsl #16
    106c:	00033d00 	andeq	r3, r3, r0, lsl #26
    1070:	05040200 	streq	r0, [r4, #-512]	; 0x200
    1074:	00746e69 	rsbseq	r6, r4, r9, ror #28
    1078:	a0070403 	andge	r0, r7, r3, lsl #8
    107c:	03000001 	movweq	r0, #1
    1080:	00af0601 	adceq	r0, pc, r1, lsl #12
    1084:	02030000 	andeq	r0, r3, #0
    1088:	0000f405 	andeq	pc, r0, r5, lsl #8
    108c:	05040300 	streq	r0, [r4, #-768]	; 0x300
    1090:	000001c5 	andeq	r0, r0, r5, asr #3
    1094:	c0050803 	andgt	r0, r5, r3, lsl #16
    1098:	03000001 	movweq	r0, #1
    109c:	00ad0801 	adceq	r0, sp, r1, lsl #16
    10a0:	02030000 	andeq	r0, r3, #0
    10a4:	0000d307 	andeq	sp, r0, r7, lsl #6
    10a8:	02160400 	andseq	r0, r6, #0, 8
    10ac:	34060000 	strcc	r0, [r6], #-0
    10b0:	00000068 	andeq	r0, r0, r8, rrx
    10b4:	9b070403 	blls	1c20c8 <__bss_end__+0x1b7b50>
    10b8:	03000001 	movweq	r0, #1
    10bc:	01960708 	orrseq	r0, r6, r8, lsl #14
    10c0:	04030000 	streq	r0, [r3], #-0
    10c4:	0001b707 	andeq	fp, r1, r7, lsl #14
    10c8:	03040500 	movweq	r0, #17664	; 0x4500
    10cc:	00b60801 	adcseq	r0, r6, r1, lsl #16
    10d0:	04060000 	streq	r0, [r6], #-0
    10d4:	0000008c 	andeq	r0, r0, ip, lsl #1
    10d8:	00007f07 	andeq	r7, r0, r7, lsl #30
    10dc:	03e80400 	mvneq	r0, #0, 8
    10e0:	8a020000 	bhi	810e8 <__bss_end__+0x76b70>
    10e4:	0000009c 	muleq	r0, ip, r0
    10e8:	00a20406 	adceq	r0, r2, r6, lsl #8
    10ec:	b7080000 	strlt	r0, [r8, -r0]
    10f0:	09000000 	stmdbeq	r0, {}	; <UNPREDICTABLE>
    10f4:	000000b7 	strheq	r0, [r0], -r7
    10f8:	00005d09 	andeq	r5, r0, r9, lsl #26
    10fc:	005d0900 	subseq	r0, sp, r0, lsl #18
    1100:	06000000 	streq	r0, [r0], -r0
    1104:	00005d04 	andeq	r5, r0, r4, lsl #26
    1108:	01210a00 	teqeq	r1, r0, lsl #20
    110c:	07380000 	ldreq	r0, [r8, -r0]!
    1110:	00016e0a 	andeq	r6, r1, sl, lsl #28
    1114:	0a3f0b00 	beq	fc3d1c <__bss_end__+0xfb97a4>
    1118:	0f070000 	svceq	0x00070000
    111c:	0000016e 	andeq	r0, r0, lr, ror #2
    1120:	00410c00 	subeq	r0, r1, r0, lsl #24
    1124:	01861207 	orreq	r1, r6, r7, lsl #4
    1128:	0c040000 	stceq	0, cr0, [r4], {-0}
    112c:	13070042 	movwne	r0, #28738	; 0x7042
    1130:	0000019b 	muleq	r0, fp, r1
    1134:	00040b08 	andeq	r0, r4, r8, lsl #22
    1138:	16070000 	strne	r0, [r7], -r0
    113c:	00000186 	andeq	r0, r0, r6, lsl #3
    1140:	02100b0c 	andseq	r0, r0, #12, 22	; 0x3000
    1144:	18070000 	stmdane	r7, {}	; <UNPREDICTABLE>
    1148:	0000019b 	muleq	r0, fp, r1
    114c:	01ad0b10 			; <UNDEFINED> instruction: 0x01ad0b10
    1150:	1f070000 	svcne	0x00070000
    1154:	000001a1 	andeq	r0, r0, r1, lsr #3
    1158:	009c0b14 	addseq	r0, ip, r4, lsl fp
    115c:	31070000 	mrscc	r0, (UNDEF: 7)
    1160:	000001a1 	andeq	r0, r0, r1, lsr #3
    1164:	00c80b18 	sbceq	r0, r8, r8, lsl fp
    1168:	36070000 	strcc	r0, [r7], -r0
    116c:	000001a6 	andeq	r0, r0, r6, lsr #3
    1170:	01d90b1c 	bicseq	r0, r9, ip, lsl fp
    1174:	3a070000 	bcc	1c117c <__bss_end__+0x1b6c04>
    1178:	000001a6 	andeq	r0, r0, r6, lsr #3
    117c:	01ce0b20 	biceq	r0, lr, r0, lsr #22
    1180:	3f070000 	svccc	0x00070000
    1184:	000001a1 	andeq	r0, r0, r1, lsr #3
    1188:	00150b24 	andseq	r0, r5, r4, lsr #22
    118c:	42070000 	andmi	r0, r7, #0
    1190:	0000002c 	andeq	r0, r0, ip, lsr #32
    1194:	00940b28 	addseq	r0, r4, r8, lsr #22
    1198:	43070000 	movwmi	r0, #28672	; 0x7000
    119c:	0000002c 	andeq	r0, r0, ip, lsr #32
    11a0:	010b0b2c 	tsteq	fp, ip, lsr #22
    11a4:	46070000 	strmi	r0, [r7], -r0
    11a8:	0000002c 	andeq	r0, r0, ip, lsr #32
    11ac:	021f0b30 	andseq	r0, pc, #48, 22	; 0xc000
    11b0:	48070000 	stmdami	r7, {}	; <UNPREDICTABLE>
    11b4:	000001a6 	andeq	r0, r0, r6, lsr #3
    11b8:	04060034 	streq	r0, [r6], #-52	; 0x34
    11bc:	00000174 	andeq	r0, r0, r4, ror r1
    11c0:	0180080d 	orreq	r0, r0, sp, lsl #16
    11c4:	80090000 	andhi	r0, r9, r0
    11c8:	00000001 	andeq	r0, r0, r1
    11cc:	00bd0406 	adcseq	r0, sp, r6, lsl #8
    11d0:	04060000 	streq	r0, [r6], #-0
    11d4:	00000175 	andeq	r0, r0, r5, ror r1
    11d8:	0000250e 	andeq	r2, r0, lr, lsl #10
    11dc:	00019b00 	andeq	r9, r1, r0, lsl #22
    11e0:	01800900 	orreq	r0, r0, r0, lsl #18
    11e4:	06000000 	streq	r0, [r0], -r0
    11e8:	00018c04 	andeq	r8, r1, r4, lsl #24
    11ec:	002c0f00 	eoreq	r0, ip, r0, lsl #30
    11f0:	5d0f0000 	stcpl	0, cr0, [pc, #-0]	; 11f8 <__code_start__-0x6e08>
    11f4:	04000000 	streq	r0, [r0], #-0
    11f8:	0000001d 	andeq	r0, r0, sp, lsl r0
    11fc:	00bd4907 	adcseq	r4, sp, r7, lsl #18
    1200:	34100000 	ldrcc	r0, [r0], #-0
    1204:	02000003 	andeq	r0, r0, #3
    1208:	00005da6 	andeq	r5, r0, r6, lsr #27
    120c:	01d20300 	bicseq	r0, r2, r0, lsl #6
    1210:	72110000 	andsvc	r0, r1, #0
    1214:	02007465 	andeq	r7, r0, #1694498816	; 0x65000000
    1218:	00005da6 	andeq	r5, r0, r6, lsr #27
    121c:	7d100000 	ldcvc	0, cr0, [r0, #-0]
    1220:	02000002 	andeq	r0, r0, #2
    1224:	00002ca9 	andeq	r2, r0, r9, lsr #25
    1228:	01ec0300 	mvneq	r0, r0, lsl #6
    122c:	72110000 	andsvc	r0, r1, #0
    1230:	2caa0200 	sfmcs	f0, 4, [sl]
    1234:	00000000 	andeq	r0, r0, r0
    1238:	0004e310 	andeq	lr, r4, r0, lsl r3
    123c:	25070500 	strcs	r0, [r7, #-1280]	; 0x500
    1240:	03000000 	movweq	r0, #0
    1244:	00000208 	andeq	r0, r0, r8, lsl #4
    1248:	0004fc12 	andeq	pc, r4, r2, lsl ip	; <UNPREDICTABLE>
    124c:	2c070500 	cfstr32cs	mvfx0, [r7], {-0}
    1250:	00000000 	andeq	r0, r0, r0
    1254:	00046610 	andeq	r6, r4, r0, lsl r6
    1258:	5d260300 	stcpl	3, cr0, [r6, #-0]
    125c:	03000000 	movweq	r0, #0
    1260:	00000224 	andeq	r0, r0, r4, lsr #4
    1264:	0004de13 	andeq	sp, r4, r3, lsl lr
    1268:	5d270300 	stcpl	3, cr0, [r7, #-0]
    126c:	00000000 	andeq	r0, r0, r0
    1270:	00042014 	andeq	r2, r4, r4, lsl r0
    1274:	780b0100 	stmdavc	fp, {r8}
    1278:	ac000086 	stcge	0, cr0, [r0], {134}	; 0x86
    127c:	01000001 	tsteq	r0, r1
    1280:	0004659c 	muleq	r4, ip, r5
    1284:	04f71500 	ldrbteq	r1, [r7], #1280	; 0x500
    1288:	0b010000 	bleq	41290 <__bss_end__+0x36d18>
    128c:	000000b7 	strheq	r0, [r0], -r7
    1290:	000004af 	andeq	r0, r0, pc, lsr #9
    1294:	00637016 	rsbeq	r7, r3, r6, lsl r0
    1298:	005d0b01 	subseq	r0, sp, r1, lsl #22
    129c:	04d00000 	ldrbeq	r0, [r0], #0
    12a0:	e0150000 	ands	r0, r5, r0
    12a4:	01000001 	tsteq	r0, r1
    12a8:	00005d0b 	andeq	r5, r0, fp, lsl #26
    12ac:	0004fc00 	andeq	pc, r4, r0, lsl #24
    12b0:	00fe1700 	rscseq	r1, lr, r0, lsl #14
    12b4:	04750000 	ldrbteq	r0, [r5], #-0
    12b8:	03050000 	movweq	r0, #20480	; 0x5000
    12bc:	00009ef8 	strdeq	r9, [r0], -r8
    12c0:	01006318 	tsteq	r0, r8, lsl r3
    12c4:	00047a10 	andeq	r7, r4, r0, lsl sl
    12c8:	00051d00 	andeq	r1, r5, r0, lsl #26
    12cc:	01d21900 	bicseq	r1, r2, r0, lsl #18
    12d0:	86ac0000 	strthi	r0, [ip], r0
    12d4:	00080000 	andeq	r0, r8, r0
    12d8:	0d010000 	stceq	0, cr0, [r1, #-0]
    12dc:	000002c7 	andeq	r0, r0, r7, asr #5
    12e0:	0086ac1a 	addeq	sl, r6, sl, lsl ip
    12e4:	00000800 	andeq	r0, r0, r0, lsl #16
    12e8:	01e21b00 	mvneq	r1, r0, lsl #22
    12ec:	b61c0000 	ldrlt	r0, [ip], -r0
    12f0:	ac000001 	stcge	0, cr0, [r0], {1}
    12f4:	04000086 	streq	r0, [r0], #-134	; 0x86
    12f8:	02000000 	andeq	r0, r0, #0
    12fc:	86ac1aaa 	strthi	r1, [ip], sl, lsr #21
    1300:	00040000 	andeq	r0, r4, r0
    1304:	c61d0000 	ldrgt	r0, [sp], -r0
    1308:	30000001 	andcc	r0, r0, r1
    130c:	00000005 	andeq	r0, r0, r5
    1310:	1e000000 	cdpne	0, 0, cr0, cr0, cr0, {0}
    1314:	000086ac 	andeq	r8, r0, ip, lsr #13
    1318:	00000df9 	strdeq	r0, [r0], -r9
    131c:	000002fc 	strdeq	r0, [r0], -ip
    1320:	0153011f 	cmpeq	r3, pc, lsl r1
    1324:	52011f3c 	andpl	r1, r1, #60, 30	; 0xf0
    1328:	9ef80305 	cdpls	3, 15, cr0, cr8, cr5, {0}
    132c:	011f0000 	tsteq	pc, r0
    1330:	64030551 	strvs	r0, [r3], #-1361	; 0x551
    1334:	1f00009c 	svcne	0x0000009c
    1338:	03055001 	movweq	r5, #20481	; 0x5001
    133c:	00009c44 	andeq	r9, r0, r4, asr #24
    1340:	007d021f 	rsbseq	r0, sp, pc, lsl r2
    1344:	00007502 	andeq	r7, r0, r2, lsl #10
    1348:	0086c020 	addeq	ip, r6, r0, lsr #32
    134c:	000e0f00 	andeq	r0, lr, r0, lsl #30
    1350:	86d41e00 	ldrbhi	r1, [r4], r0, lsl #28
    1354:	0df90000 	ldcleq	0, cr0, [r9]
    1358:	03330000 	teqeq	r3, #0
    135c:	011f0000 	tsteq	pc, r0
    1360:	1f3e0153 	svcne	0x003e0153
    1364:	03055201 	movweq	r5, #20993	; 0x5201
    1368:	00009ef8 	strdeq	r9, [r0], -r8
    136c:	0551011f 	ldrbeq	r0, [r1, #-287]	; 0x11f
    1370:	009c6403 	addseq	r6, ip, r3, lsl #8
    1374:	50011f00 	andpl	r1, r1, r0, lsl #30
    1378:	9b500305 	blls	1401f94 <__bss_end__+0x13f7a1c>
    137c:	20000000 	andcs	r0, r0, r0
    1380:	000086d8 	ldrdeq	r8, [r0], -r8	; <UNPREDICTABLE>
    1384:	00000e16 	andeq	r0, r0, r6, lsl lr
    1388:	0087001e 	addeq	r0, r7, lr, lsl r0
    138c:	000df900 	andeq	pc, sp, r0, lsl #18
    1390:	00035900 	andeq	r5, r3, r0, lsl #18
    1394:	51011f00 	tstpl	r1, r0, lsl #30
    1398:	1f007502 	svcne	0x00007502
    139c:	03055001 	movweq	r5, #20481	; 0x5001
    13a0:	00009c78 	andeq	r9, r0, r8, ror ip
    13a4:	870c2100 	strhi	r2, [ip, -r0, lsl #2]
    13a8:	03690000 	cmneq	r9, #0
    13ac:	011f0000 	tsteq	pc, r0
    13b0:	00740250 	rsbseq	r0, r4, r0, asr r2
    13b4:	871c1e00 	ldrhi	r1, [ip, -r0, lsl #28]
    13b8:	0e1d0000 	cdpeq	0, 1, cr0, cr13, cr0, {0}
    13bc:	037d0000 	cmneq	sp, #0
    13c0:	011f0000 	tsteq	pc, r0
    13c4:	00750250 	rsbseq	r0, r5, r0, asr r2
    13c8:	873c1e00 	ldrhi	r1, [ip, -r0, lsl #28]!
    13cc:	0df90000 	ldcleq	0, cr0, [r9]
    13d0:	03940000 	orrseq	r0, r4, #0
    13d4:	011f0000 	tsteq	pc, r0
    13d8:	98030550 	stmdals	r3, {r4, r6, r8, sl}
    13dc:	0000009c 	muleq	r0, ip, r0
    13e0:	00876020 	addeq	r6, r7, r0, lsr #32
    13e4:	000e0f00 	andeq	r0, lr, r0, lsl #30
    13e8:	877c1e00 	ldrbhi	r1, [ip, -r0, lsl #28]!
    13ec:	0df90000 	ldcleq	0, cr0, [r9]
    13f0:	03d60000 	bicseq	r0, r6, #0
    13f4:	011f0000 	tsteq	pc, r0
    13f8:	23080253 	movwcs	r0, #33363	; 0x8253
    13fc:	0552011f 	ldrbeq	r0, [r2, #-287]	; 0x11f
    1400:	009ef803 	addseq	pc, lr, r3, lsl #16
    1404:	51011f00 	tstpl	r1, r0, lsl #30
    1408:	9c640305 	stclls	3, cr0, [r4], #-20	; 0xffffffec
    140c:	011f0000 	tsteq	pc, r0
    1410:	d0030550 	andle	r0, r3, r0, asr r5
    1414:	1f000099 	svcne	0x00000099
    1418:	05007d02 	streq	r7, [r0, #-3330]	; 0xd02
    141c:	009cc003 	addseq	ip, ip, r3
    1420:	80200000 	eorhi	r0, r0, r0
    1424:	16000087 	strne	r0, [r0], -r7, lsl #1
    1428:	1e00000e 	cdpne	0, 0, cr0, cr0, cr14, {0}
    142c:	000087b4 			; <UNDEFINED> instruction: 0x000087b4
    1430:	00000df9 	strdeq	r0, [r0], -r9
    1434:	00000415 	andeq	r0, r0, r5, lsl r4
    1438:	0253011f 	subseq	r0, r3, #-1073741817	; 0xc0000007
    143c:	011f2608 	tsteq	pc, r8, lsl #12
    1440:	f8030552 			; <UNDEFINED> instruction: 0xf8030552
    1444:	1f00009e 	svcne	0x0000009e
    1448:	03055101 	movweq	r5, #20737	; 0x5101
    144c:	00009c64 	andeq	r9, r0, r4, ror #24
    1450:	0550011f 	ldrbeq	r0, [r0, #-287]	; 0x11f
    1454:	009ce403 	addseq	lr, ip, r3, lsl #8
    1458:	7d021f00 	stcvc	15, cr1, [r2, #-0]
    145c:	00750200 	rsbseq	r0, r5, r0, lsl #4
    1460:	87c01e00 	strbhi	r1, [r0, r0, lsl #28]
    1464:	0e2e0000 	cdpeq	0, 2, cr0, cr14, cr0, {0}
    1468:	04320000 	ldrteq	r0, [r2], #-0
    146c:	011f0000 	tsteq	pc, r0
    1470:	78030551 	stmdavc	r3, {r0, r4, r6, r8, sl}
    1474:	1f000086 	svcne	0x00000086
    1478:	75025001 	strvc	r5, [r2, #-1]
    147c:	e8220000 	stmda	r2!, {}	; <UNPREDICTABLE>
    1480:	f9000087 			; <UNDEFINED> instruction: 0xf9000087
    1484:	1f00000d 	svcne	0x0000000d
    1488:	08025301 	stmdaeq	r2, {r0, r8, r9, ip, lr}
    148c:	52011f28 	andpl	r1, r1, #40, 30	; 0xa0
    1490:	9ef80305 	cdpls	3, 15, cr0, cr8, cr5, {0}
    1494:	011f0000 	tsteq	pc, r0
    1498:	64030551 	strvs	r0, [r3], #-1361	; 0x551
    149c:	1f00009c 	svcne	0x0000009c
    14a0:	03055001 	movweq	r5, #20481	; 0x5001
    14a4:	00009d0c 	andeq	r9, r0, ip, lsl #26
    14a8:	007d021f 	rsbseq	r0, sp, pc, lsl r2
    14ac:	00007502 	andeq	r7, r0, r2, lsl #10
    14b0:	007f2300 	rsbseq	r2, pc, r0, lsl #6
    14b4:	04750000 	ldrbteq	r0, [r5], #-0
    14b8:	76240000 	strtvc	r0, [r4], -r0
    14bc:	13000000 	movwne	r0, #0
    14c0:	04650700 	strbteq	r0, [r5], #-1792	; 0x700
    14c4:	04060000 	streq	r0, [r6], #-0
    14c8:	000001ab 	andeq	r0, r0, fp, lsr #3
    14cc:	0004a810 	andeq	sl, r4, r0, lsl r8
    14d0:	5d140500 	cfldr32pl	mvfx0, [r4, #-0]
    14d4:	03000000 	movweq	r0, #0
    14d8:	000004b4 			; <UNDEFINED> instruction: 0x000004b4
    14dc:	0004de12 	andeq	sp, r4, r2, lsl lr
    14e0:	5d140500 	cfldr32pl	mvfx0, [r4, #-0]
    14e4:	12000000 	andne	r0, r0, #0
    14e8:	000004fc 	strdeq	r0, [r0], -ip
    14ec:	002c1405 	eoreq	r1, ip, r5, lsl #8
    14f0:	fe250000 	cdp2	0, 2, cr0, cr5, cr0, {0}
    14f4:	c4000000 	strgt	r0, [r0], #-0
    14f8:	a8000004 	stmdage	r0, {r2}
    14fc:	00000004 	andeq	r0, r0, r4
    1500:	00007f23 	andeq	r7, r0, r3, lsr #30
    1504:	0004c400 	andeq	ip, r4, r0, lsl #8
    1508:	00762400 	rsbseq	r2, r6, r0, lsl #8
    150c:	00080000 	andeq	r0, r8, r0
    1510:	0004b407 	andeq	fp, r4, r7, lsl #8
    1514:	04841000 	streq	r1, [r4], #0
    1518:	25040000 	strcs	r0, [r4, #-0]
    151c:	0000005d 	andeq	r0, r0, sp, asr r0
    1520:	00051803 	andeq	r1, r5, r3, lsl #16
    1524:	00782600 	rsbseq	r2, r8, r0, lsl #12
    1528:	005d2504 	subseq	r2, sp, r4, lsl #10
    152c:	6c260000 	stcvs	0, cr0, [r6], #-0
    1530:	25040062 	strcs	r0, [r4, #-98]	; 0x62
    1534:	0000002c 	andeq	r0, r0, ip, lsr #32
    1538:	00627526 	rsbeq	r7, r2, r6, lsr #10
    153c:	002c2504 	eoreq	r2, ip, r4, lsl #10
    1540:	fe250000 	cdp2	0, 2, cr0, cr5, cr0, {0}
    1544:	18000000 	stmdane	r0, {}	; <UNPREDICTABLE>
    1548:	84000005 	strhi	r0, [r0], #-5
    154c:	11000004 	tstne	r0, r4
    1550:	2804006e 	stmdacs	r4, {r1, r2, r3, r5, r6}
    1554:	0000002c 	andeq	r0, r0, ip, lsr #32
    1558:	00047f13 	andeq	r7, r4, r3, lsl pc
    155c:	2c2a0400 	cfstrscs	mvf0, [sl], #-0
    1560:	00000000 	andeq	r0, r0, r0
    1564:	0004b407 	andeq	fp, r4, r7, lsl #8
    1568:	049f1000 	ldreq	r1, [pc], #0	; 1570 <__code_start__-0x6a90>
    156c:	18050000 	stmdane	r5, {}	; <UNPREDICTABLE>
    1570:	00000086 	andeq	r0, r0, r6, lsl #1
    1574:	00054603 	andeq	r4, r5, r3, lsl #12
    1578:	04de1200 	ldrbeq	r1, [lr], #512	; 0x200
    157c:	18050000 	stmdane	r5, {}	; <UNPREDICTABLE>
    1580:	0000005d 	andeq	r0, r0, sp, asr r0
    1584:	0000fe25 	andeq	pc, r0, r5, lsr #28
    1588:	00054600 	andeq	r4, r5, r0, lsl #12
    158c:	00049f00 	andeq	r9, r4, r0, lsl #30
    1590:	b4070000 	strlt	r0, [r7], #-0
    1594:	10000004 	andne	r0, r0, r4
    1598:	000004ee 	andeq	r0, r0, lr, ror #9
    159c:	005d0f05 	subseq	r0, sp, r5, lsl #30
    15a0:	7f030000 	svcvc	0x00030000
    15a4:	12000005 	andne	r0, r0, #5
    15a8:	000004de 	ldrdeq	r0, [r0], -lr
    15ac:	005d0f05 	subseq	r0, sp, r5, lsl #30
    15b0:	fc130000 	ldc2	0, cr0, [r3], {-0}
    15b4:	05000004 	streq	r0, [r0, #-4]
    15b8:	00002c10 	andeq	r2, r0, r0, lsl ip
    15bc:	00fe2500 	rscseq	r2, lr, r0, lsl #10
    15c0:	057f0000 	ldrbeq	r0, [pc, #-0]!	; 15c8 <__code_start__-0x6a38>
    15c4:	04ee0000 	strbteq	r0, [lr], #0
    15c8:	07000000 	streq	r0, [r0, -r0]
    15cc:	000004b4 			; <UNDEFINED> instruction: 0x000004b4
    15d0:	0004cb10 	andeq	ip, r4, r0, lsl fp
    15d4:	5d1c0400 	cfldrspl	mvf0, [ip, #-0]
    15d8:	03000000 	movweq	r0, #0
    15dc:	000005c8 	andeq	r0, r0, r8, asr #11
    15e0:	04007826 	streq	r7, [r0], #-2086	; 0x826
    15e4:	00005d1c 	andeq	r5, r0, ip, lsl sp
    15e8:	626c2600 	rsbvs	r2, ip, #0, 12
    15ec:	2c1c0400 	cfldrscs	mvf0, [ip], {-0}
    15f0:	26000000 	strcs	r0, [r0], -r0
    15f4:	04006275 	streq	r6, [r0], #-629	; 0x275
    15f8:	00002c1c 	andeq	r2, r0, ip, lsl ip
    15fc:	00fe2500 	rscseq	r2, lr, r0, lsl #10
    1600:	05c80000 	strbeq	r0, [r8]
    1604:	04cb0000 	strbeq	r0, [fp], #0
    1608:	6e110000 	cdpvs	0, 1, cr0, cr1, cr0, {0}
    160c:	2c1f0400 	cfldrscs	mvf0, [pc], {-0}
    1610:	00000000 	andeq	r0, r0, r0
    1614:	0004b407 	andeq	fp, r4, r7, lsl #8
    1618:	048d2700 	streq	r2, [sp], #1792	; 0x700
    161c:	2b010000 	blcs	41624 <__bss_end__+0x370ac>
    1620:	0000002c 	andeq	r0, r0, ip, lsr #32
    1624:	00008824 	andeq	r8, r0, r4, lsr #16
    1628:	000004e0 	andeq	r0, r0, r0, ror #9
    162c:	0ce09c01 	stcleq	12, cr9, [r0], #4
    1630:	63160000 	tstvs	r6, #0
    1634:	7a2b0100 	bvc	ac1a3c <__bss_end__+0xab74c4>
    1638:	43000004 	movwmi	r0, #4
    163c:	28000005 	stmdacs	r0, {r0, r2}
    1640:	000004c2 	andeq	r0, r0, r2, asr #9
    1644:	005d2c01 	subseq	r2, sp, r1, lsl #24
    1648:	58010000 	stmdapl	r1, {}	; <UNPREDICTABLE>
    164c:	0004d413 	andeq	sp, r4, r3, lsl r4
    1650:	5d2d0100 	stfpls	f0, [sp, #-0]
    1654:	17000000 	strne	r0, [r0, -r0]
    1658:	000000fe 	strdeq	r0, [r0], -lr
    165c:	00000cf0 	strdeq	r0, [r0], -r0	; <UNPREDICTABLE>
    1660:	9ee40305 	cdpls	3, 14, cr0, cr4, cr5, {0}
    1664:	08190000 	ldmdaeq	r9, {}	; <UNPREDICTABLE>
    1668:	30000002 	andcc	r0, r0, r2
    166c:	04000088 	streq	r0, [r0], #-136	; 0x88
    1670:	01000000 	mrseq	r0, (UNDEF: 0)
    1674:	0006412c 	andeq	r4, r6, ip, lsr #2
    1678:	88301a00 	ldmdahi	r0!, {r9, fp, ip}
    167c:	00040000 	andeq	r0, r4, r0
    1680:	181d0000 	ldmdane	sp, {}	; <UNPREDICTABLE>
    1684:	6f000002 	svcvs	0x00000002
    1688:	00000005 	andeq	r0, r0, r5
    168c:	04801900 	streq	r1, [r0], #2304	; 0x900
    1690:	88340000 	ldmdahi	r4!, {}	; <UNPREDICTABLE>
    1694:	00080000 	andeq	r0, r8, r0
    1698:	2d010000 	stccs	0, cr0, [r1, #-0]
    169c:	000006bf 			; <UNDEFINED> instruction: 0x000006bf
    16a0:	00049b29 	andeq	r9, r4, r9, lsr #22
    16a4:	902a1000 	eorls	r1, sl, r0
    16a8:	6f000004 	svcvs	0x00000004
    16ac:	1a000005 	bne	16c8 <__code_start__-0x6938>
    16b0:	00008834 	andeq	r8, r0, r4, lsr r8
    16b4:	00000008 	andeq	r0, r0, r8
    16b8:	0004a62b 	andeq	sl, r4, fp, lsr #12
    16bc:	0c030500 	cfstr32eq	mvfx0, [r3], {-0}
    16c0:	1c00009f 	stcne	0, cr0, [r0], {159}	; 0x9f
    16c4:	000004c9 	andeq	r0, r0, r9, asr #9
    16c8:	00008834 	andeq	r8, r0, r4, lsr r8
    16cc:	00000004 	andeq	r0, r0, r4
    16d0:	ec291605 	stc	6, cr1, [r9], #-20	; 0xffffffec
    16d4:	04000004 	streq	r0, [r0], #-4
    16d8:	0004e229 	andeq	lr, r4, r9, lsr #4
    16dc:	d92a0000 	stmdble	sl!, {}	; <UNPREDICTABLE>
    16e0:	6f000004 	svcvs	0x00000004
    16e4:	1a000005 	bne	1700 <__code_start__-0x6900>
    16e8:	00008834 	andeq	r8, r0, r4, lsr r8
    16ec:	00000004 	andeq	r0, r0, r4
    16f0:	0005032c 	andeq	r0, r5, ip, lsr #6
    16f4:	0c2c0500 	cfstr32eq	mvfx0, [ip], #-0
    16f8:	1f000005 	svcne	0x00000005
    16fc:	0004f62b 	andeq	pc, r4, fp, lsr #12
    1700:	18030500 	stmdane	r3, {r8, sl}
    1704:	0000009f 	muleq	r0, pc, r0	; <UNPREDICTABLE>
    1708:	19000000 	stmdbne	r0, {}	; <UNPREDICTABLE>
    170c:	0000051d 	andeq	r0, r0, sp, lsl r5
    1710:	00008938 	andeq	r8, r0, r8, lsr r9
    1714:	00000110 	andeq	r0, r0, r0, lsl r1
    1718:	08175301 	ldmdaeq	r7, {r0, r8, r9, ip, lr}
    171c:	2d2a0000 	stccs	0, cr0, [sl, #-0]
    1720:	82000005 	andhi	r0, r0, #5
    1724:	1a000005 	bne	1740 <__code_start__-0x68c0>
    1728:	00008938 	andeq	r8, r0, r8, lsr r9
    172c:	00000110 	andeq	r0, r0, r0, lsl r1
    1730:	0005382b 	andeq	r3, r5, fp, lsr #16
    1734:	24030500 	strcs	r0, [r3], #-1280	; 0x500
    1738:	1900009f 	stmdbne	r0, {r0, r1, r2, r3, r4, r7}
    173c:	0000054b 	andeq	r0, r0, fp, asr #10
    1740:	00008938 	andeq	r8, r0, r8, lsr r9
    1744:	0000006c 	andeq	r0, r0, ip, rrx
    1748:	07cd1905 	strbeq	r1, [sp, r5, lsl #18]
    174c:	5b2a0000 	blpl	a81754 <__bss_end__+0xa771dc>
    1750:	82000005 	andhi	r0, r0, #5
    1754:	1a000005 	bne	1770 <__code_start__-0x6890>
    1758:	00008938 	andeq	r8, r0, r8, lsr r9
    175c:	0000006c 	andeq	r0, r0, ip, rrx
    1760:	0005661b 	andeq	r6, r5, fp, lsl r6
    1764:	05712b00 	ldrbeq	r2, [r1, #-2816]!	; 0xb00
    1768:	03050000 	movweq	r0, #20480	; 0x5000
    176c:	00009f30 	andeq	r9, r0, r0, lsr pc
    1770:	00058419 	andeq	r8, r5, r9, lsl r4
    1774:	00893800 	addeq	r3, r9, r0, lsl #16
    1778:	00000400 	andeq	r0, r0, r0, lsl #8
    177c:	68100500 	ldmdavs	r0, {r8, sl}
    1780:	29000007 	stmdbcs	r0, {r0, r1, r2}
    1784:	000005a7 	andeq	r0, r0, r7, lsr #11
    1788:	059d2904 	ldreq	r2, [sp, #2308]	; 0x904
    178c:	2a000000 	bcs	1794 <__code_start__-0x686c>
    1790:	00000594 	muleq	r0, r4, r5
    1794:	00000582 	andeq	r0, r0, r2, lsl #11
    1798:	0089381a 	addeq	r3, r9, sl, lsl r8
    179c:	00000400 	andeq	r0, r0, r0, lsl #8
    17a0:	05be2c00 	ldreq	r2, [lr, #3072]!	; 0xc00
    17a4:	2b050000 	blcs	1417ac <__bss_end__+0x137234>
    17a8:	000005b1 			; <UNDEFINED> instruction: 0x000005b1
    17ac:	9f3c0305 	svcls	0x003c0305
    17b0:	00000000 	andeq	r0, r0, r0
    17b4:	0001ec19 	andeq	lr, r1, r9, lsl ip
    17b8:	00893c00 	addeq	r3, r9, r0, lsl #24
    17bc:	00003c00 	andeq	r3, r0, r0, lsl #24
    17c0:	81110500 	tsthi	r1, r0, lsl #10
    17c4:	2d000007 	stccs	0, cr0, [r0, #-28]	; 0xffffffe4
    17c8:	000001fc 	strdeq	r0, [r0], -ip
    17cc:	89842000 	stmibhi	r4, {sp}
    17d0:	0e0f0000 	cdpeq	0, 0, cr0, cr15, cr0, {0}
    17d4:	a01e0000 	andsge	r0, lr, r0
    17d8:	f9000089 			; <UNDEFINED> instruction: 0xf9000089
    17dc:	c200000d 	andgt	r0, r0, #13
    17e0:	1f000007 	svcne	0x00000007
    17e4:	41015301 	tstmi	r1, r1, lsl #6
    17e8:	0552011f 	ldrbeq	r0, [r2, #-287]	; 0x11f
    17ec:	009f3003 	addseq	r3, pc, r3
    17f0:	51011f00 	tstpl	r1, r0, lsl #30
    17f4:	9e400305 	cdpls	3, 4, cr0, cr0, cr5, {0}
    17f8:	011f0000 	tsteq	pc, r0
    17fc:	d0030550 	andle	r0, r3, r0, asr r5
    1800:	1f000099 	svcne	0x00000099
    1804:	05007d02 	streq	r7, [r0, #-3330]	; 0xd02
    1808:	009e4c03 	addseq	r4, lr, r3, lsl #24
    180c:	a4200000 	strtge	r0, [r0], #-0
    1810:	16000089 	strne	r0, [r0], -r9, lsl #1
    1814:	0000000e 	andeq	r0, r0, lr
    1818:	8a202000 	bhi	809820 <__bss_end__+0x7ff2a8>
    181c:	0e0f0000 	cdpeq	0, 0, cr0, cr15, cr0, {0}
    1820:	381e0000 	ldmdacc	lr, {}	; <UNPREDICTABLE>
    1824:	f900008a 			; <UNDEFINED> instruction: 0xf900008a
    1828:	0c00000d 	stceq	0, cr0, [r0], {13}
    182c:	1f000008 	svcne	0x00000008
    1830:	08025301 	stmdaeq	r2, {r0, r8, r9, ip, lr}
    1834:	52011f21 	andpl	r1, r1, #33, 30	; 0x84
    1838:	9f240305 	svcls	0x00240305
    183c:	011f0000 	tsteq	pc, r0
    1840:	40030551 	andmi	r0, r3, r1, asr r5
    1844:	1f00009e 	svcne	0x0000009e
    1848:	03055001 	movweq	r5, #20481	; 0x5001
    184c:	00009e60 	andeq	r9, r0, r0, ror #28
    1850:	007d021f 	rsbseq	r0, sp, pc, lsl r2
    1854:	00007802 	andeq	r7, r0, r2, lsl #16
    1858:	008a3c20 	addeq	r3, sl, r0, lsr #24
    185c:	000e1600 	andeq	r1, lr, r0, lsl #12
    1860:	19000000 	stmdbne	r0, {}	; <UNPREDICTABLE>
    1864:	00000208 	andeq	r0, r0, r8, lsl #4
    1868:	00008a54 	andeq	r8, r0, r4, asr sl
    186c:	00000004 	andeq	r0, r0, r4
    1870:	083e5401 	ldmdaeq	lr!, {r0, sl, ip, lr}
    1874:	541a0000 	ldrpl	r0, [sl], #-0
    1878:	0400008a 	streq	r0, [r0], #-138	; 0x8a
    187c:	1d000000 	stcne	0, cr0, [r0, #-0]
    1880:	00000218 	andeq	r0, r0, r8, lsl r2
    1884:	00000595 	muleq	r0, r5, r5
    1888:	1d190000 	ldcne	0, cr0, [r9, #-0]
    188c:	58000005 	stmdapl	r0, {r0, r2}
    1890:	1000008a 	andne	r0, r0, sl, lsl #1
    1894:	01000001 	tsteq	r0, r1
    1898:	00099654 	andeq	r9, r9, r4, asr r6
    189c:	052d2a00 	streq	r2, [sp, #-2560]!	; 0xa00
    18a0:	05950000 	ldreq	r0, [r5]
    18a4:	581a0000 	ldmdapl	sl, {}	; <UNPREDICTABLE>
    18a8:	1000008a 	andne	r0, r0, sl, lsl #1
    18ac:	2b000001 	blcs	18b8 <__code_start__-0x6748>
    18b0:	00000538 	andeq	r0, r0, r8, lsr r5
    18b4:	9f240305 	svcls	0x00240305
    18b8:	4b190000 	blmi	6418c0 <__bss_end__+0x637348>
    18bc:	58000005 	stmdapl	r0, {r0, r2}
    18c0:	6c00008a 	stcvs	0, cr0, [r0], {138}	; 0x8a
    18c4:	05000000 	streq	r0, [r0, #-0]
    18c8:	00094c19 	andeq	r4, r9, r9, lsl ip
    18cc:	055b2a00 	ldrbeq	r2, [fp, #-2560]	; 0xa00
    18d0:	05950000 	ldreq	r0, [r5]
    18d4:	581a0000 	ldmdapl	sl, {}	; <UNPREDICTABLE>
    18d8:	6c00008a 	stcvs	0, cr0, [r0], {138}	; 0x8a
    18dc:	1b000000 	blne	18e4 <__code_start__-0x671c>
    18e0:	00000566 	andeq	r0, r0, r6, ror #10
    18e4:	0005712b 	andeq	r7, r5, fp, lsr #2
    18e8:	30030500 	andcc	r0, r3, r0, lsl #10
    18ec:	1900009f 	stmdbne	r0, {r0, r1, r2, r3, r4, r7}
    18f0:	00000584 	andeq	r0, r0, r4, lsl #11
    18f4:	00008a58 	andeq	r8, r0, r8, asr sl
    18f8:	00000004 	andeq	r0, r0, r4
    18fc:	08e71005 	stmiaeq	r7!, {r0, r2, ip}^
    1900:	a7290000 	strge	r0, [r9, -r0]!
    1904:	04000005 	streq	r0, [r0], #-5
    1908:	00059d29 	andeq	r9, r5, r9, lsr #26
    190c:	942a0000 	strtls	r0, [sl], #-0
    1910:	95000005 	strls	r0, [r0, #-5]
    1914:	1a000005 	bne	1930 <__code_start__-0x66d0>
    1918:	00008a58 	andeq	r8, r0, r8, asr sl
    191c:	00000004 	andeq	r0, r0, r4
    1920:	0005be2c 	andeq	fp, r5, ip, lsr #28
    1924:	b12b0500 	teqlt	fp, r0, lsl #10
    1928:	05000005 	streq	r0, [r0, #-5]
    192c:	009f3c03 	addseq	r3, pc, r3, lsl #24
    1930:	19000000 	stmdbne	r0, {}	; <UNPREDICTABLE>
    1934:	000001ec 	andeq	r0, r0, ip, ror #3
    1938:	00008a5c 	andeq	r8, r0, ip, asr sl
    193c:	0000003c 	andeq	r0, r0, ip, lsr r0
    1940:	09001105 	stmdbeq	r0, {r0, r2, r8, ip}
    1944:	fc2d0000 	stc2	0, cr0, [sp], #-0
    1948:	00000001 	andeq	r0, r0, r1
    194c:	008aa420 	addeq	sl, sl, r0, lsr #8
    1950:	000e0f00 	andeq	r0, lr, r0, lsl #30
    1954:	8ac01e00 	bhi	ff00915c <__bss_end__+0xfeffebe4>
    1958:	0df90000 	ldcleq	0, cr0, [r9]
    195c:	09410000 	stmdbeq	r1, {}^	; <UNPREDICTABLE>
    1960:	011f0000 	tsteq	pc, r0
    1964:	1f410153 	svcne	0x00410153
    1968:	03055201 	movweq	r5, #20993	; 0x5201
    196c:	00009f30 	andeq	r9, r0, r0, lsr pc
    1970:	0551011f 	ldrbeq	r0, [r1, #-287]	; 0x11f
    1974:	009e4003 	addseq	r4, lr, r3
    1978:	50011f00 	andpl	r1, r1, r0, lsl #30
    197c:	99d00305 	ldmibls	r0, {r0, r2, r8, r9}^
    1980:	021f0000 	andseq	r0, pc, #0
    1984:	0305007d 	movweq	r0, #20605	; 0x507d
    1988:	00009e4c 	andeq	r9, r0, ip, asr #28
    198c:	8ac42000 	bhi	ff109994 <__bss_end__+0xff0ff41c>
    1990:	0e160000 	cdpeq	0, 1, cr0, cr6, cr0, {0}
    1994:	00000000 	andeq	r0, r0, r0
    1998:	008b4020 	addeq	r4, fp, r0, lsr #32
    199c:	000e0f00 	andeq	r0, lr, r0, lsl #30
    19a0:	8b581e00 	blhi	16091a8 <__bss_end__+0x15fec30>
    19a4:	0df90000 	ldcleq	0, cr0, [r9]
    19a8:	098b0000 	stmibeq	fp, {}	; <UNPREDICTABLE>
    19ac:	011f0000 	tsteq	pc, r0
    19b0:	21080253 	tstcs	r8, r3, asr r2
    19b4:	0552011f 	ldrbeq	r0, [r2, #-287]	; 0x11f
    19b8:	009f2403 	addseq	r2, pc, r3, lsl #8
    19bc:	51011f00 	tstpl	r1, r0, lsl #30
    19c0:	9e400305 	cdpls	3, 4, cr0, cr0, cr5, {0}
    19c4:	011f0000 	tsteq	pc, r0
    19c8:	60030550 	andvs	r0, r3, r0, asr r5
    19cc:	1f00009e 	svcne	0x0000009e
    19d0:	02007d02 	andeq	r7, r0, #2, 26	; 0x80
    19d4:	20000075 	andcs	r0, r0, r5, ror r0
    19d8:	00008b5c 	andeq	r8, r0, ip, asr fp
    19dc:	00000e16 	andeq	r0, r0, r6, lsl lr
    19e0:	08190000 	ldmdaeq	r9, {}	; <UNPREDICTABLE>
    19e4:	68000002 	stmdavs	r0, {r1}
    19e8:	0400008b 	streq	r0, [r0], #-139	; 0x8b
    19ec:	01000000 	mrseq	r0, (UNDEF: 0)
    19f0:	0009b954 	andeq	fp, r9, r4, asr r9
    19f4:	8b681a00 	blhi	1a081fc <__bss_end__+0x19fdc84>
    19f8:	00040000 	andeq	r0, r4, r0
    19fc:	181b0000 	ldmdane	fp, {}	; <UNPREDICTABLE>
    1a00:	00000002 	andeq	r0, r0, r2
    1a04:	054b1900 	strbeq	r1, [fp, #-2304]	; 0x900
    1a08:	8b7c0000 	blhi	1f01a10 <__bss_end__+0x1ef7498>
    1a0c:	006c0000 	rsbeq	r0, ip, r0
    1a10:	58010000 	stmdapl	r1, {}	; <UNPREDICTABLE>
    1a14:	00000a97 	muleq	r0, r7, sl
    1a18:	00055b2a 	andeq	r5, r5, sl, lsr #22
    1a1c:	0005a800 	andeq	sl, r5, r0, lsl #16
    1a20:	8b7c1a00 	blhi	1f08228 <__bss_end__+0x1efdcb0>
    1a24:	006c0000 	rsbeq	r0, ip, r0
    1a28:	661b0000 	ldrvs	r0, [fp], -r0
    1a2c:	2b000005 	blcs	1a48 <__code_start__-0x65b8>
    1a30:	00000571 	andeq	r0, r0, r1, ror r5
    1a34:	9f300305 	svcls	0x00300305
    1a38:	84190000 	ldrhi	r0, [r9], #-0
    1a3c:	7c000005 	stcvc	0, cr0, [r0], {5}
    1a40:	0400008b 	streq	r0, [r0], #-139	; 0x8b
    1a44:	05000000 	streq	r0, [r0, #-0]
    1a48:	000a3210 	andeq	r3, sl, r0, lsl r2
    1a4c:	05a72900 	streq	r2, [r7, #2304]!	; 0x900
    1a50:	29040000 	stmdbcs	r4, {}	; <UNPREDICTABLE>
    1a54:	0000059d 	muleq	r0, sp, r5
    1a58:	05942a00 	ldreq	r2, [r4, #2560]	; 0xa00
    1a5c:	05a80000 	streq	r0, [r8, #0]!
    1a60:	7c1a0000 	ldcvc	0, cr0, [sl], {-0}
    1a64:	0400008b 	streq	r0, [r0], #-139	; 0x8b
    1a68:	2c000000 	stccs	0, cr0, [r0], {-0}
    1a6c:	000005be 			; <UNDEFINED> instruction: 0x000005be
    1a70:	05b12b05 	ldreq	r2, [r1, #2821]!	; 0xb05
    1a74:	03050000 	movweq	r0, #20480	; 0x5000
    1a78:	00009f3c 	andeq	r9, r0, ip, lsr pc
    1a7c:	ec190000 	ldc	0, cr0, [r9], {-0}
    1a80:	80000001 	andhi	r0, r0, r1
    1a84:	3c00008b 	stccc	0, cr0, [r0], {139}	; 0x8b
    1a88:	05000000 	streq	r0, [r0, #-0]
    1a8c:	000a4b11 	andeq	r4, sl, r1, lsl fp
    1a90:	01fc2d00 	mvnseq	r2, r0, lsl #26
    1a94:	20000000 	andcs	r0, r0, r0
    1a98:	00008bc8 	andeq	r8, r0, r8, asr #23
    1a9c:	00000e0f 	andeq	r0, r0, pc, lsl #28
    1aa0:	008be41e 	addeq	lr, fp, lr, lsl r4
    1aa4:	000df900 	andeq	pc, sp, r0, lsl #18
    1aa8:	000a8c00 	andeq	r8, sl, r0, lsl #24
    1aac:	53011f00 	movwpl	r1, #7936	; 0x1f00
    1ab0:	011f4101 	tsteq	pc, r1, lsl #2
    1ab4:	30030552 	andcc	r0, r3, r2, asr r5
    1ab8:	1f00009f 	svcne	0x0000009f
    1abc:	03055101 	movweq	r5, #20737	; 0x5101
    1ac0:	00009e40 	andeq	r9, r0, r0, asr #28
    1ac4:	0550011f 	ldrbeq	r0, [r0, #-287]	; 0x11f
    1ac8:	0099d003 	addseq	sp, r9, r3
    1acc:	7d021f00 	stcvc	15, cr1, [r2, #-0]
    1ad0:	4c030500 	cfstr32mi	mvfx0, [r3], {-0}
    1ad4:	0000009e 	muleq	r0, lr, r0
    1ad8:	008be820 	addeq	lr, fp, r0, lsr #16
    1adc:	000e1600 	andeq	r1, lr, r0, lsl #12
    1ae0:	19000000 	stmdbne	r0, {}	; <UNPREDICTABLE>
    1ae4:	00000208 	andeq	r0, r0, r8, lsl #4
    1ae8:	00008be8 	andeq	r8, r0, r8, ror #23
    1aec:	00000004 	andeq	r0, r0, r4
    1af0:	0abe5801 	beq	fef97afc <__bss_end__+0xfef8d584>
    1af4:	e81a0000 	ldmda	sl, {}	; <UNPREDICTABLE>
    1af8:	0400008b 	streq	r0, [r0], #-139	; 0x8b
    1afc:	1d000000 	stcne	0, cr0, [r0, #-0]
    1b00:	00000218 	andeq	r0, r0, r8, lsl r2
    1b04:	000005bb 			; <UNDEFINED> instruction: 0x000005bb
    1b08:	4b190000 	blmi	641b10 <__bss_end__+0x637598>
    1b0c:	ec000005 	stc	0, cr0, [r0], {5}
    1b10:	6c00008b 	stcvs	0, cr0, [r0], {139}	; 0x8b
    1b14:	01000000 	mrseq	r0, (UNDEF: 0)
    1b18:	000b9c58 	andeq	r9, fp, r8, asr ip
    1b1c:	055b2a00 	ldrbeq	r2, [fp, #-2560]	; 0xa00
    1b20:	05bb0000 	ldreq	r0, [fp, #0]!
    1b24:	ec1a0000 	ldc	0, cr0, [sl], {-0}
    1b28:	6c00008b 	stcvs	0, cr0, [r0], {139}	; 0x8b
    1b2c:	1b000000 	blne	1b34 <__code_start__-0x64cc>
    1b30:	00000566 	andeq	r0, r0, r6, ror #10
    1b34:	0005712b 	andeq	r7, r5, fp, lsr #2
    1b38:	30030500 	andcc	r0, r3, r0, lsl #10
    1b3c:	1900009f 	stmdbne	r0, {r0, r1, r2, r3, r4, r7}
    1b40:	00000584 	andeq	r0, r0, r4, lsl #11
    1b44:	00008bec 	andeq	r8, r0, ip, ror #23
    1b48:	00000004 	andeq	r0, r0, r4
    1b4c:	0b371005 	bleq	dc5b68 <__bss_end__+0xdbb5f0>
    1b50:	a7290000 	strge	r0, [r9, -r0]!
    1b54:	04000005 	streq	r0, [r0], #-5
    1b58:	00059d29 	andeq	r9, r5, r9, lsr #26
    1b5c:	942a0000 	strtls	r0, [sl], #-0
    1b60:	bb000005 	bllt	1b7c <__code_start__-0x6484>
    1b64:	1a000005 	bne	1b80 <__code_start__-0x6480>
    1b68:	00008bec 	andeq	r8, r0, ip, ror #23
    1b6c:	00000004 	andeq	r0, r0, r4
    1b70:	0005be2c 	andeq	fp, r5, ip, lsr #28
    1b74:	b12b0500 	teqlt	fp, r0, lsl #10
    1b78:	05000005 	streq	r0, [r0, #-5]
    1b7c:	009f3c03 	addseq	r3, pc, r3, lsl #24
    1b80:	19000000 	stmdbne	r0, {}	; <UNPREDICTABLE>
    1b84:	000001ec 	andeq	r0, r0, ip, ror #3
    1b88:	00008bf0 	strdeq	r8, [r0], -r0
    1b8c:	0000003c 	andeq	r0, r0, ip, lsr r0
    1b90:	0b501105 	bleq	1405fac <__bss_end__+0x13fba34>
    1b94:	fc2d0000 	stc2	0, cr0, [sp], #-0
    1b98:	00000001 	andeq	r0, r0, r1
    1b9c:	008c3820 	addeq	r3, ip, r0, lsr #16
    1ba0:	000e0f00 	andeq	r0, lr, r0, lsl #30
    1ba4:	8c541e00 	mrrchi	14, 0, r1, r4, cr0
    1ba8:	0df90000 	ldcleq	0, cr0, [r9]
    1bac:	0b910000 	bleq	fe441bb4 <__bss_end__+0xfe43763c>
    1bb0:	011f0000 	tsteq	pc, r0
    1bb4:	1f410153 	svcne	0x00410153
    1bb8:	03055201 	movweq	r5, #20993	; 0x5201
    1bbc:	00009f30 	andeq	r9, r0, r0, lsr pc
    1bc0:	0551011f 	ldrbeq	r0, [r1, #-287]	; 0x11f
    1bc4:	009e4003 	addseq	r4, lr, r3
    1bc8:	50011f00 	andpl	r1, r1, r0, lsl #30
    1bcc:	99d00305 	ldmibls	r0, {r0, r2, r8, r9}^
    1bd0:	021f0000 	andseq	r0, pc, #0
    1bd4:	0305007d 	movweq	r0, #20605	; 0x507d
    1bd8:	00009e4c 	andeq	r9, r0, ip, asr #28
    1bdc:	8c582000 	mrahi	r2, r8, acc0
    1be0:	0e160000 	cdpeq	0, 1, cr0, cr6, cr0, {0}
    1be4:	00000000 	andeq	r0, r0, r0
    1be8:	00886c21 	addeq	r6, r8, r1, lsr #24
    1bec:	000bac00 	andeq	sl, fp, r0, lsl #24
    1bf0:	50011f00 	andpl	r1, r1, r0, lsl #30
    1bf4:	00007402 	andeq	r7, r0, r2, lsl #8
    1bf8:	0088941e 	addeq	r9, r8, lr, lsl r4
    1bfc:	000df900 	andeq	pc, sp, r0, lsl #18
    1c00:	000bd200 	andeq	sp, fp, r0, lsl #4
    1c04:	53011f00 	movwpl	r1, #7936	; 0x1f00
    1c08:	1f340802 	svcne	0x00340802
    1c0c:	79025201 	stmdbvc	r2, {r0, r9, ip, lr}
    1c10:	51011f00 	tstpl	r1, r0, lsl #30
    1c14:	1f007a02 	svcne	0x00007a02
    1c18:	7b025001 	blvc	95c24 <__bss_end__+0x8b6ac>
    1c1c:	a01e0000 	andsge	r0, lr, r0
    1c20:	2e000088 	cdpcs	0, 0, cr0, cr0, cr8, {4}
    1c24:	eb00000e 	bl	1c64 <__code_start__-0x639c>
    1c28:	1f00000b 	svcne	0x0000000b
    1c2c:	75025101 	strvc	r5, [r2, #-257]	; 0x101
    1c30:	50011f00 	andpl	r1, r1, r0, lsl #30
    1c34:	1e003001 	cdpne	0, 0, cr3, cr0, cr1, {0}
    1c38:	000088c8 	andeq	r8, r0, r8, asr #17
    1c3c:	00000e44 	andeq	r0, r0, r4, asr #28
    1c40:	00000c05 	andeq	r0, r0, r5, lsl #24
    1c44:	0252011f 	subseq	r0, r2, #-1073741817	; 0xc0000007
    1c48:	011f0074 	tsteq	pc, r4, ror r0	; <UNPREDICTABLE>
    1c4c:	00770250 	rsbseq	r0, r7, r0, asr r2
    1c50:	88e02100 	stmiahi	r0!, {r8, sp}^
    1c54:	0c150000 	ldceq	0, cr0, [r5], {-0}
    1c58:	011f0000 	tsteq	pc, r0
    1c5c:	00740250 	rsbseq	r0, r4, r0, asr r2
    1c60:	88ec2100 	stmiahi	ip!, {r8, sp}^
    1c64:	0c250000 	stceq	0, cr0, [r5], #-0
    1c68:	011f0000 	tsteq	pc, r0
    1c6c:	00740250 	rsbseq	r0, r4, r0, asr r2
    1c70:	89041e00 	stmdbhi	r4, {r9, sl, fp, ip}
    1c74:	0df90000 	ldcleq	0, cr0, [r9]
    1c78:	0c3c0000 	ldceq	0, cr0, [ip], #-0
    1c7c:	011f0000 	tsteq	pc, r0
    1c80:	c4030550 	strgt	r0, [r3], #-1360	; 0x550
    1c84:	0000009d 	muleq	r0, sp, r0
    1c88:	0089381e 	addeq	r3, r9, lr, lsl r8
    1c8c:	000df900 	andeq	pc, sp, r0, lsl #18
    1c90:	000c5300 	andeq	r5, ip, r0, lsl #6
    1c94:	50011f00 	andpl	r1, r1, r0, lsl #30
    1c98:	9e0c0305 	cdpls	3, 0, cr0, cr12, cr5, {0}
    1c9c:	1e000000 	cdpne	0, 0, cr0, cr0, cr0, {0}
    1ca0:	00008a54 	andeq	r8, r0, r4, asr sl
    1ca4:	00000df9 	strdeq	r0, [r0], -r9
    1ca8:	00000c70 	andeq	r0, r0, r0, ror ip
    1cac:	0252011f 	subseq	r0, r2, #-1073741817	; 0xc0000007
    1cb0:	011f0078 	tsteq	pc, r8, ror r0	; <UNPREDICTABLE>
    1cb4:	84030550 	strhi	r0, [r3], #-1360	; 0x550
    1cb8:	0000009e 	muleq	r0, lr, r0
    1cbc:	008b741e 	addeq	r7, fp, lr, lsl r4
    1cc0:	000df900 	andeq	pc, sp, r0, lsl #18
    1cc4:	000c8700 	andeq	r8, ip, r0, lsl #14
    1cc8:	50011f00 	andpl	r1, r1, r0, lsl #30
    1ccc:	9ea00305 	cdpls	3, 10, cr0, cr0, cr5, {0}
    1cd0:	1e000000 	cdpne	0, 0, cr0, cr0, cr0, {0}
    1cd4:	00008b7c 	andeq	r8, r0, ip, ror fp
    1cd8:	00000e1d 	andeq	r0, r0, sp, lsl lr
    1cdc:	00000c9a 	muleq	r0, sl, ip
    1ce0:	0150011f 	cmpeq	r0, pc, lsl r1
    1ce4:	64200030 	strtvs	r0, [r0], #-48	; 0x30
    1ce8:	0f00008c 	svceq	0x0000008c
    1cec:	1e00000e 	cdpne	0, 0, cr0, cr0, cr14, {0}
    1cf0:	00008c80 	andeq	r8, r0, r0, lsl #25
    1cf4:	00000df9 	strdeq	r0, [r0], -r9
    1cf8:	00000cd6 	ldrdeq	r0, [r0], -r6
    1cfc:	0253011f 	subseq	r0, r3, #-1073741817	; 0xc0000007
    1d00:	011f5808 	tsteq	pc, r8, lsl #16
    1d04:	00790252 	rsbseq	r0, r9, r2, asr r2
    1d08:	0251011f 	subseq	r0, r1, #-1073741817	; 0xc0000007
    1d0c:	011f007a 	tsteq	pc, sl, ror r0	; <UNPREDICTABLE>
    1d10:	d0030550 	andle	r0, r3, r0, asr r5
    1d14:	1f000099 	svcne	0x00000099
    1d18:	05007d02 	streq	r7, [r0, #-3330]	; 0xd02
    1d1c:	009eb803 	addseq	fp, lr, r3, lsl #16
    1d20:	84200000 	strthi	r0, [r0], #-0
    1d24:	1600008c 	strne	r0, [r0], -ip, lsl #1
    1d28:	0000000e 	andeq	r0, r0, lr
    1d2c:	00007f23 	andeq	r7, r0, r3, lsr #30
    1d30:	000cf000 	andeq	pc, ip, r0
    1d34:	00762400 	rsbseq	r2, r6, r0, lsl #8
    1d38:	00110000 	andseq	r0, r1, r0
    1d3c:	000ce007 	andeq	lr, ip, r7
    1d40:	04b12700 	ldrteq	r2, [r1], #1792	; 0x700
    1d44:	64010000 	strvs	r0, [r1], #-0
    1d48:	0000002c 	andeq	r0, r0, ip, lsr #32
    1d4c:	00008d04 	andeq	r8, r0, r4, lsl #26
    1d50:	00000008 	andeq	r0, r0, r8
    1d54:	0d2e9c01 	stceq	12, cr9, [lr, #-4]!
    1d58:	63160000 	tstvs	r6, #0
    1d5c:	7a640100 	bvc	1902164 <__bss_end__+0x18f7bec>
    1d60:	ce000004 	cdpgt	0, 0, cr0, cr0, cr4, {0}
    1d64:	11000005 	tstne	r0, r5
    1d68:	68010069 	stmdavs	r1, {r0, r3, r5, r6}
    1d6c:	0000002c 	andeq	r0, r0, ip, lsr #32
    1d70:	0000fe2e 	andeq	pc, r0, lr, lsr #28
    1d74:	000d3e00 	andeq	r3, sp, r0, lsl #28
    1d78:	7f230000 	svcvc	0x00230000
    1d7c:	3e000000 	cdpcc	0, 0, cr0, cr0, cr0, {0}
    1d80:	2400000d 	strcs	r0, [r0], #-13
    1d84:	00000076 	andeq	r0, r0, r6, ror r0
    1d88:	2e070010 	mcrcs	0, 0, r0, cr7, cr0, {0}
    1d8c:	1400000d 	strne	r0, [r0], #-13
    1d90:	00000434 	andeq	r0, r0, r4, lsr r4
    1d94:	8d0c7e01 	stchi	14, cr7, [ip, #-4]
    1d98:	00280000 	eoreq	r0, r8, r0
    1d9c:	9c010000 	stcls	0, cr0, [r1], {-0}
    1da0:	00000d64 	andeq	r0, r0, r4, ror #26
    1da4:	0100632f 	tsteq	r0, pc, lsr #6
    1da8:	00047a7e 	andeq	r7, r4, lr, ror sl
    1dac:	00500100 	subseq	r0, r0, r0, lsl #2
    1db0:	00021030 	andeq	r1, r2, r0, lsr r0
    1db4:	25890100 	strcs	r0, [r9, #256]	; 0x100
    1db8:	34000000 	strcc	r0, [r0], #-0
    1dbc:	4c00008d 	stcmi	0, cr0, [r0], {141}	; 0x8d
    1dc0:	01000000 	mrseq	r0, (UNDEF: 0)
    1dc4:	000dcc9c 	muleq	sp, ip, ip
    1dc8:	00631600 	rsbeq	r1, r3, r0, lsl #12
    1dcc:	047a8901 	ldrbteq	r8, [sl], #-2305	; 0x901
    1dd0:	05ef0000 	strbeq	r0, [pc, #0]!	; 1dd8 <__code_start__-0x6228>
    1dd4:	40200000 	eormi	r0, r0, r0
    1dd8:	7000008d 	andvc	r0, r0, sp, lsl #1
    1ddc:	1e00000e 	cdpne	0, 0, cr0, cr0, cr14, {0}
    1de0:	00008d48 	andeq	r8, r0, r8, asr #26
    1de4:	00000d43 	andeq	r0, r0, r3, asr #26
    1de8:	00000da7 	andeq	r0, r0, r7, lsr #27
    1dec:	0250011f 	subseq	r0, r0, #-1073741817	; 0xc0000007
    1df0:	1e000074 	mcrne	0, 0, r0, cr0, cr4, {3}
    1df4:	00008d50 	andeq	r8, r0, r0, asr sp
    1df8:	00000cf5 	strdeq	r0, [r0], -r5
    1dfc:	00000dbb 			; <UNDEFINED> instruction: 0x00000dbb
    1e00:	0250011f 	subseq	r0, r0, #-1073741817	; 0xc0000007
    1e04:	22000074 	andcs	r0, r0, #116	; 0x74
    1e08:	00008d60 	andeq	r8, r0, r0, ror #26
    1e0c:	000005cd 	andeq	r0, r0, sp, asr #11
    1e10:	0250011f 	subseq	r0, r0, #-1073741817	; 0xc0000007
    1e14:	00000074 	andeq	r0, r0, r4, ror r0
    1e18:	00012128 	andeq	r2, r1, r8, lsr #2
    1e1c:	7a060100 	bvc	182224 <__bss_end__+0x177cac>
    1e20:	05000004 	streq	r0, [r0, #-4]
    1e24:	00a17003 	adceq	r7, r1, r3
    1e28:	046f2800 	strbteq	r2, [pc], #-2048	; 1e30 <__code_start__-0x61d0>
    1e2c:	08010000 	stmdaeq	r1, {}	; <UNPREDICTABLE>
    1e30:	0000007d 	andeq	r0, r0, sp, ror r0
    1e34:	a1740305 	cmnge	r4, r5, lsl #6
    1e38:	e6310000 	ldrt	r0, [r1], -r0
    1e3c:	02000000 	andeq	r0, r0, #0
    1e40:	000025c2 	andeq	r2, r0, r2, asr #11
    1e44:	05783200 	ldrbeq	r3, [r8, #-512]!	; 0x200
    1e48:	29080000 	stmdbcs	r8, {}	; <UNPREDICTABLE>
    1e4c:	00000025 	andeq	r0, r0, r5, lsr #32
    1e50:	00000e0f 	andeq	r0, r0, pc, lsl #28
    1e54:	00008609 	andeq	r8, r0, r9, lsl #12
    1e58:	34003300 	strcc	r3, [r0], #-768	; 0x300
    1e5c:	00000225 	andeq	r0, r0, r5, lsr #4
    1e60:	bb341e08 	bllt	d09688 <__bss_end__+0xcff110>
    1e64:	08000000 	stmdaeq	r0, {}	; <UNPREDICTABLE>
    1e68:	034e3565 	movteq	r3, #58725	; 0xe565
    1e6c:	e3020000 	movw	r0, #8192	; 0x2000
    1e70:	00000e2e 	andeq	r0, r0, lr, lsr #28
    1e74:	00005d09 	andeq	r5, r0, r9, lsl #26
    1e78:	0e350000 	cdpeq	0, 3, cr0, cr5, cr0, {0}
    1e7c:	02000003 	andeq	r0, r0, #3
    1e80:	000e44d9 	ldrdeq	r4, [lr], -r9
    1e84:	005d0900 	subseq	r0, sp, r0, lsl #18
    1e88:	91090000 	mrsls	r0, (UNDEF: 9)
    1e8c:	00000000 	andeq	r0, r0, r0
    1e90:	00045235 	andeq	r5, r4, r5, lsr r2
    1e94:	5ff30200 	svcpl	0x00f30200
    1e98:	0900000e 	stmdbeq	r0, {r1, r2, r3}
    1e9c:	0000005d 	andeq	r0, r0, sp, asr r0
    1ea0:	000e5f09 	andeq	r5, lr, r9, lsl #30
    1ea4:	007d0900 	rsbseq	r0, sp, r0, lsl #18
    1ea8:	06000000 	streq	r0, [r0], -r0
    1eac:	000e6504 	andeq	r6, lr, r4, lsl #10
    1eb0:	0e700800 	cdpeq	8, 7, cr0, cr0, cr0, {0}
    1eb4:	7d090000 	stcvc	0, cr0, [r9, #-0]
    1eb8:	00000000 	andeq	r0, r0, r0
    1ebc:	00039734 	andeq	r9, r3, r4, lsr r7
    1ec0:	00900200 	addseq	r0, r0, r0, lsl #4
    1ec4:	00000191 	muleq	r0, r1, r1
    1ec8:	07190004 	ldreq	r0, [r9, -r4]
    1ecc:	01040000 	mrseq	r0, (UNDEF: 4)
    1ed0:	0000051e 	andeq	r0, r0, lr, lsl r5
    1ed4:	00051001 	andeq	r1, r5, r1
    1ed8:	00058900 	andeq	r8, r5, r0, lsl #18
    1edc:	008d8000 	addeq	r8, sp, r0
    1ee0:	00005800 	andeq	r5, r0, r0, lsl #16
    1ee4:	00059800 	andeq	r9, r5, r0, lsl #16
    1ee8:	05010200 	streq	r0, [r1, #-512]	; 0x200
    1eec:	28020000 	stmdacs	r2, {}	; <UNPREDICTABLE>
    1ef0:	00000030 	andeq	r0, r0, r0, lsr r0
    1ef4:	00057f03 	andeq	r7, r5, r3, lsl #30
    1ef8:	00030400 	andeq	r0, r3, r0, lsl #8
    1efc:	00000047 	andeq	r0, r0, r7, asr #32
    1f00:	0005cf04 	andeq	ip, r5, r4, lsl #30
    1f04:	00004700 	andeq	r4, r0, r0, lsl #14
    1f08:	05000000 	streq	r0, [r0, #-0]
    1f0c:	05810204 	streq	r0, [r1, #516]	; 0x204
    1f10:	62020000 	andvs	r0, r2, #0
    1f14:	00000025 	andeq	r0, r0, r5, lsr #32
    1f18:	69050406 	stmdbvs	r5, {r1, r2, sl}
    1f1c:	0700746e 	streq	r7, [r0, -lr, ror #8]
    1f20:	01a00704 	lsleq	r0, r4, #14
    1f24:	01070000 	mrseq	r0, (UNDEF: 7)
    1f28:	0000af06 	andeq	sl, r0, r6, lsl #30
    1f2c:	05020700 	streq	r0, [r2, #-1792]	; 0x700
    1f30:	000000f4 	strdeq	r0, [r0], -r4
    1f34:	c5050407 	strgt	r0, [r5, #-1031]	; 0x407
    1f38:	07000001 	streq	r0, [r0, -r1]
    1f3c:	01c00508 	biceq	r0, r0, r8, lsl #10
    1f40:	01070000 	mrseq	r0, (UNDEF: 7)
    1f44:	0000ad08 	andeq	sl, r0, r8, lsl #26
    1f48:	07020700 	streq	r0, [r2, -r0, lsl #14]
    1f4c:	000000d3 	ldrdeq	r0, [r0], -r3
    1f50:	9b070407 	blls	1c2f74 <__bss_end__+0x1b89fc>
    1f54:	07000001 	streq	r0, [r0, -r1]
    1f58:	01960708 	orrseq	r0, r6, r8, lsl #14
    1f5c:	04070000 	streq	r0, [r7], #-0
    1f60:	0001b707 	andeq	fp, r1, r7, lsl #14
    1f64:	a7040800 	strge	r0, [r4, -r0, lsl #16]
    1f68:	07000000 	streq	r0, [r0, -r0]
    1f6c:	00b60801 	adcseq	r0, r6, r1, lsl #16
    1f70:	04080000 	streq	r0, [r8], #-0
    1f74:	000000b4 	strheq	r0, [r0], -r4
    1f78:	0000a709 	andeq	sl, r0, r9, lsl #14
    1f7c:	05780a00 	ldrbeq	r0, [r8, #-2560]!	; 0xa00
    1f80:	06010000 	streq	r0, [r1], -r0
    1f84:	00000054 	andeq	r0, r0, r4, asr r0
    1f88:	00008d80 	andeq	r8, r0, r0, lsl #27
    1f8c:	00000058 	andeq	r0, r0, r8, asr r0
    1f90:	01439c01 	cmpeq	r3, r1, lsl #24
    1f94:	660b0000 	strvs	r0, [fp], -r0
    1f98:	0100746d 	tsteq	r0, sp, ror #8
    1f9c:	0000ae06 	andeq	sl, r0, r6, lsl #28
    1fa0:	70910200 	addsvc	r0, r1, r0, lsl #4
    1fa4:	75620d0c 	strbvc	r0, [r2, #-3340]!	; 0xd0c
    1fa8:	08010066 	stmdaeq	r1, {r1, r2, r5, r6}
    1fac:	00000143 	andeq	r0, r0, r3, asr #2
    1fb0:	a1780305 	cmnge	r8, r5, lsl #6
    1fb4:	8b0e0000 	blhi	381fbc <__bss_end__+0x377a44>
    1fb8:	0100000a 	tsteq	r0, sl
    1fbc:	00004909 	andeq	r4, r0, r9, lsl #18
    1fc0:	5c910200 	lfmpl	f0, 4, [r1], {0}
    1fc4:	007a730f 	rsbseq	r7, sl, pc, lsl #6
    1fc8:	00540c01 	subseq	r0, r4, r1, lsl #24
    1fcc:	060d0000 	streq	r0, [sp], -r0
    1fd0:	a8100000 	ldmdage	r0, {}	; <UNPREDICTABLE>
    1fd4:	7400008d 	strvc	r0, [r0], #-141	; 0x8d
    1fd8:	36000001 	strcc	r0, [r0], -r1
    1fdc:	11000001 	tstne	r0, r1
    1fe0:	91025301 	tstls	r2, r1, lsl #6
    1fe4:	5201114c 	andpl	r1, r1, #76, 2
    1fe8:	06489103 	strbeq	r9, [r8], -r3, lsl #2
    1fec:	03510111 	cmpeq	r1, #1073741828	; 0x40000004
    1ff0:	1104000a 	tstne	r4, sl
    1ff4:	74025001 	strvc	r5, [r2], #-1
    1ff8:	bc120000 	ldclt	0, cr0, [r2], {-0}
    1ffc:	1100008d 	smlabbne	r0, sp, r0, r0
    2000:	74025001 	strvc	r5, [r2], #-1
    2004:	13000000 	movwne	r0, #0
    2008:	000000a7 	andeq	r0, r0, r7, lsr #1
    200c:	00000154 	andeq	r0, r0, r4, asr r1
    2010:	00009a14 	andeq	r9, r0, r4, lsl sl
    2014:	0003ff00 	andeq	pc, r3, r0, lsl #30
    2018:	00005415 	andeq	r5, r0, r5, lsl r4
    201c:	00016300 	andeq	r6, r1, r0, lsl #6
    2020:	00ae1600 	adceq	r1, lr, r0, lsl #12
    2024:	17000000 	strne	r0, [r0, -r0]
    2028:	0000062c 	andeq	r0, r0, ip, lsr #12
    202c:	016e2204 	cmneq	lr, r4, lsl #4
    2030:	04080000 	streq	r0, [r8], #-0
    2034:	00000154 	andeq	r0, r0, r4, asr r1
    2038:	00057518 	andeq	r7, r5, r8, lsl r5
    203c:	54020500 	strpl	r0, [r2], #-1280	; 0x500
    2040:	16000000 	strne	r0, [r0], -r0
    2044:	000000a1 	andeq	r0, r0, r1, lsr #1
    2048:	00005416 	andeq	r5, r0, r6, lsl r4
    204c:	00ae1600 	adceq	r1, lr, r0, lsl #12
    2050:	49160000 	ldmdbmi	r6, {}	; <UNPREDICTABLE>
    2054:	00000000 	andeq	r0, r0, r0
    2058:	00011300 	andeq	r1, r1, r0, lsl #6
    205c:	4a000400 	bmi	3064 <__code_start__-0x4f9c>
    2060:	04000008 	streq	r0, [r0], #-8
    2064:	00051e01 	andeq	r1, r5, r1, lsl #28
    2068:	05fb0100 	ldrbeq	r0, [fp, #256]!	; 0x100
    206c:	05890000 	streq	r0, [r9]
    2070:	8dd80000 	ldclhi	0, cr0, [r8]
    2074:	003c0000 	eorseq	r0, ip, r0
    2078:	06a80000 	strteq	r0, [r8], r0
    207c:	04020000 	streq	r0, [r2], #-0
    2080:	746e6905 	strbtvc	r6, [lr], #-2309	; 0x905
    2084:	07040300 	streq	r0, [r4, -r0, lsl #6]
    2088:	000001a0 	andeq	r0, r0, r0, lsr #3
    208c:	af060103 	svcge	0x00060103
    2090:	03000000 	movweq	r0, #0
    2094:	00f40502 	rscseq	r0, r4, r2, lsl #10
    2098:	04030000 	streq	r0, [r3], #-0
    209c:	0001c505 	andeq	ip, r1, r5, lsl #10
    20a0:	05080300 	streq	r0, [r8, #-768]	; 0x300
    20a4:	000001c0 	andeq	r0, r0, r0, asr #3
    20a8:	ad080103 	stfges	f0, [r8, #-12]
    20ac:	03000000 	movweq	r0, #0
    20b0:	00d30702 	sbcseq	r0, r3, r2, lsl #14
    20b4:	04030000 	streq	r0, [r3], #-0
    20b8:	00019b07 	andeq	r9, r1, r7, lsl #22
    20bc:	07080300 	streq	r0, [r8, -r0, lsl #6]
    20c0:	00000196 	muleq	r0, r6, r1
    20c4:	b7070403 	strlt	r0, [r7, -r3, lsl #8]
    20c8:	03000001 	movweq	r0, #1
    20cc:	00b60801 	adcseq	r0, r6, r1, lsl #16
    20d0:	de040000 	cdple	0, 0, cr0, cr4, cr0, {0}
    20d4:	01000005 	tsteq	r0, r5
    20d8:	00002503 	andeq	r2, r0, r3, lsl #10
    20dc:	008dd800 	addeq	sp, sp, r0, lsl #16
    20e0:	00001400 	andeq	r1, r0, r0, lsl #8
    20e4:	b09c0100 	addslt	r0, ip, r0, lsl #2
    20e8:	05000000 	streq	r0, [r0, #-0]
    20ec:	03010063 	movweq	r0, #4195	; 0x1063
    20f0:	00000025 	andeq	r0, r0, r5, lsr #32
    20f4:	00000636 	andeq	r0, r0, r6, lsr r6
    20f8:	008de406 	addeq	lr, sp, r6, lsl #8
    20fc:	00010900 	andeq	r0, r1, r0, lsl #18
    2100:	50010700 	andpl	r0, r1, r0, lsl #14
    2104:	00007402 	andeq	r7, r0, r2, lsl #8
    2108:	02250800 	eoreq	r0, r5, #0, 16
    210c:	08010000 	stmdaeq	r1, {}	; <UNPREDICTABLE>
    2110:	00008dec 	andeq	r8, r0, ip, ror #27
    2114:	00000018 	andeq	r0, r0, r8, lsl r0
    2118:	0a099c01 	beq	269124 <__bss_end__+0x25ebac>
    211c:	01000006 	tsteq	r0, r6
    2120:	008e040b 	addeq	r0, lr, fp, lsl #8
    2124:	00001000 	andeq	r1, r0, r0
    2128:	e39c0100 	orrs	r0, ip, #0, 2
    212c:	0a000000 	beq	2134 <__code_start__-0x5ecc>
    2130:	01007066 	tsteq	r0, r6, rrx
    2134:	0000f20b 	andeq	pc, r0, fp, lsl #4
    2138:	00500100 	subseq	r0, r0, r0, lsl #2
    213c:	0000250b 	andeq	r2, r0, fp, lsl #10
    2140:	0000f200 	andeq	pc, r0, r0, lsl #4
    2144:	00250c00 	eoreq	r0, r5, r0, lsl #24
    2148:	0d000000 	stceq	0, cr0, [r0, #-0]
    214c:	0000e304 	andeq	lr, r0, r4, lsl #6
    2150:	05ef0e00 	strbeq	r0, [pc, #3584]!	; 2f58 <__code_start__-0x50a8>
    2154:	06010000 	streq	r0, [r1], -r0
    2158:	000000f2 	strdeq	r0, [r0], -r2
    215c:	99900305 	ldmibls	r0, {r0, r2, r8, r9}
    2160:	d40f0000 	strle	r0, [pc], #-0	; 2168 <__code_start__-0x5e98>
    2164:	02000005 	andeq	r0, r0, #5
    2168:	002c0c3c 	eoreq	r0, ip, ip, lsr ip
    216c:	00000000 	andeq	r0, r0, r0
    2170:	000000ee 	andeq	r0, r0, lr, ror #1
    2174:	09320004 	ldmdbeq	r2!, {r2}
    2178:	01040000 	mrseq	r0, (UNDEF: 4)
    217c:	0000051e 	andeq	r0, r0, lr, lsl r5
    2180:	00061701 	andeq	r1, r6, r1, lsl #14
    2184:	00058900 	andeq	r8, r5, r0, lsl #18
    2188:	008e1400 	addeq	r1, lr, r0, lsl #8
    218c:	00003400 	andeq	r3, r0, r0, lsl #8
    2190:	00074000 	andeq	r4, r7, r0
    2194:	05040200 	streq	r0, [r4, #-512]	; 0x200
    2198:	00746e69 	rsbseq	r6, r4, r9, ror #28
    219c:	a0070403 	andge	r0, r7, r3, lsl #8
    21a0:	03000001 	movweq	r0, #1
    21a4:	00af0601 	adceq	r0, pc, r1, lsl #12
    21a8:	02030000 	andeq	r0, r3, #0
    21ac:	0000f405 	andeq	pc, r0, r5, lsl #8
    21b0:	05040300 	streq	r0, [r4, #-768]	; 0x300
    21b4:	000001c5 	andeq	r0, r0, r5, asr #3
    21b8:	c0050803 	andgt	r0, r5, r3, lsl #16
    21bc:	03000001 	movweq	r0, #1
    21c0:	00ad0801 	adceq	r0, sp, r1, lsl #16
    21c4:	02030000 	andeq	r0, r3, #0
    21c8:	0000d307 	andeq	sp, r0, r7, lsl #6
    21cc:	07040300 	streq	r0, [r4, -r0, lsl #6]
    21d0:	0000019b 	muleq	r0, fp, r1
    21d4:	96070803 	strls	r0, [r7], -r3, lsl #16
    21d8:	03000001 	movweq	r0, #1
    21dc:	01b70704 			; <UNDEFINED> instruction: 0x01b70704
    21e0:	01030000 	mrseq	r0, (UNDEF: 3)
    21e4:	0000b608 	andeq	fp, r0, r8, lsl #12
    21e8:	7f040400 	svcvc	0x00040400
    21ec:	05000000 	streq	r0, [r0, #-0]
    21f0:	00000072 	andeq	r0, r0, r2, ror r0
    21f4:	00062306 	andeq	r2, r6, r6, lsl #6
    21f8:	25040100 	strcs	r0, [r4, #-256]	; 0x100
    21fc:	14000000 	strne	r0, [r0], #-0
    2200:	3400008e 	strcc	r0, [r0], #-142	; 0x8e
    2204:	01000000 	mrseq	r0, (UNDEF: 0)
    2208:	0000ab9c 	muleq	r0, ip, fp
    220c:	00700700 	rsbseq	r0, r0, r0, lsl #14
    2210:	00790401 	rsbseq	r0, r9, r1, lsl #8
    2214:	06540000 	ldrbeq	r0, [r4], -r0
    2218:	08000000 	stmdaeq	r0, {}	; <UNPREDICTABLE>
    221c:	00000025 	andeq	r0, r0, r5, lsr #32
    2220:	000000ba 	strheq	r0, [r0], -sl
    2224:	00002509 	andeq	r2, r0, r9, lsl #10
    2228:	ef0a0000 	svc	0x000a0000
    222c:	02000005 	andeq	r0, r0, #5
    2230:	0000c51d 	andeq	ip, r0, sp, lsl r5
    2234:	ab040400 	blge	10323c <__bss_end__+0xf8cc4>
    2238:	08000000 	stmdaeq	r0, {}	; <UNPREDICTABLE>
    223c:	00000025 	andeq	r0, r0, r5, lsr #32
    2240:	000000da 	ldrdeq	r0, [r0], -sl
    2244:	00007909 	andeq	r7, r0, r9, lsl #18
    2248:	2c0b0000 	stccs	0, cr0, [fp], {-0}
    224c:	01000006 	tsteq	r0, r6
    2250:	0000eb0c 	andeq	lr, r0, ip, lsl #22
    2254:	94030500 	strls	r0, [r3], #-1280	; 0x500
    2258:	04000099 	streq	r0, [r0], #-153	; 0x99
    225c:	0000cb04 	andeq	ip, r0, r4, lsl #22
    2260:	06e50000 	strbteq	r0, [r5], r0
    2264:	00040000 	andeq	r0, r4, r0
    2268:	000009cb 	andeq	r0, r0, fp, asr #19
    226c:	051e0104 	ldreq	r0, [lr, #-260]	; 0x104
    2270:	62010000 	andvs	r0, r1, #0
    2274:	89000006 	stmdbhi	r0, {r1, r2}
    2278:	48000005 	stmdami	r0, {r0, r2}
    227c:	7800008e 	stmdavc	r0, {r1, r2, r3, r7}
    2280:	e4000005 	str	r0, [r0], #-5
    2284:	02000007 	andeq	r0, r0, #7
    2288:	6e690504 	cdpvs	5, 6, cr0, cr9, cr4, {0}
    228c:	04030074 	streq	r0, [r3], #-116	; 0x74
    2290:	0001a007 	andeq	sl, r1, r7
    2294:	06010300 	streq	r0, [r1], -r0, lsl #6
    2298:	000000af 	andeq	r0, r0, pc, lsr #1
    229c:	f4050203 	vst1.8	{d0-d3}, [r5], r3
    22a0:	03000000 	movweq	r0, #0
    22a4:	01c50504 	biceq	r0, r5, r4, lsl #10
    22a8:	08030000 	stmdaeq	r3, {}	; <UNPREDICTABLE>
    22ac:	0001c005 	andeq	ip, r1, r5
    22b0:	08010300 	stmdaeq	r1, {r8, r9}
    22b4:	000000ad 	andeq	r0, r0, sp, lsr #1
    22b8:	d3070203 	movwle	r0, #29187	; 0x7203
    22bc:	03000000 	movweq	r0, #0
    22c0:	019b0704 	orrseq	r0, fp, r4, lsl #14
    22c4:	08030000 	stmdaeq	r3, {}	; <UNPREDICTABLE>
    22c8:	00019607 	andeq	r9, r1, r7, lsl #12
    22cc:	07040300 	streq	r0, [r4, -r0, lsl #6]
    22d0:	000001b7 			; <UNDEFINED> instruction: 0x000001b7
    22d4:	04050404 	streq	r0, [r5], #-1028	; 0x404
    22d8:	0000007a 	andeq	r0, r0, sl, ror r0
    22dc:	b6080103 	strlt	r0, [r8], -r3, lsl #2
    22e0:	05000000 	streq	r0, [r0, #-0]
    22e4:	00008704 	andeq	r8, r0, r4, lsl #14
    22e8:	007a0600 	rsbseq	r0, sl, r0, lsl #12
    22ec:	01070000 	mrseq	r0, (UNDEF: 7)
    22f0:	02000005 	andeq	r0, r0, #5
    22f4:	00009728 	andeq	r9, r0, r8, lsr #14
    22f8:	057f0800 	ldrbeq	r0, [pc, #-2048]!	; 1b00 <__code_start__-0x6500>
    22fc:	04040000 	streq	r0, [r4], #-0
    2300:	0000ae00 	andeq	sl, r0, r0, lsl #28
    2304:	05cf0900 	strbeq	r0, [pc, #2304]	; 2c0c <__code_start__-0x53f4>
    2308:	00720000 	rsbseq	r0, r2, r0
    230c:	00000000 	andeq	r0, r0, r0
    2310:	00058107 	andeq	r8, r5, r7, lsl #2
    2314:	8c620200 	sfmhi	f0, 2, [r2], #-0
    2318:	0a000000 	beq	2320 <__code_start__-0x5ce0>
    231c:	00000649 	andeq	r0, r0, r9, asr #12
    2320:	00252701 	eoreq	r2, r5, r1, lsl #14
    2324:	8e480000 	cdphi	0, 4, cr0, cr8, cr0, {0}
    2328:	00140000 	andseq	r0, r4, r0
    232c:	9c010000 	stcls	0, cr0, [r1], {-0}
    2330:	000000e0 	andeq	r0, r0, r0, ror #1
    2334:	0100630b 	tsteq	r0, fp, lsl #6
    2338:	00002527 	andeq	r2, r0, r7, lsr #10
    233c:	00067200 	andeq	r7, r6, r0, lsl #4
    2340:	700c0000 	andvc	r0, ip, r0
    2344:	01006461 	tsteq	r0, r1, ror #8
    2348:	0000742e 	andeq	r7, r0, lr, lsr #8
    234c:	008e5c00 	addeq	r5, lr, r0, lsl #24
    2350:	00002c00 	andeq	r2, r0, r0, lsl #24
    2354:	309c0100 	addscc	r0, ip, r0, lsl #2
    2358:	0b000001 	bleq	2364 <__code_start__-0x5c9c>
    235c:	2e010070 	mcrcs	0, 0, r0, cr1, cr0, {3}
    2360:	00000074 	andeq	r0, r0, r4, ror r0
    2364:	000006a0 	andeq	r0, r0, r0, lsr #13
    2368:	000a690d 	andeq	r6, sl, sp, lsl #18
    236c:	742e0100 	strtvc	r0, [lr], #-256	; 0x100
    2370:	cb000000 	blgt	2378 <__code_start__-0x5c88>
    2374:	0e000006 	cdpeq	0, 0, cr0, cr0, cr6, {0}
    2378:	00000682 	andeq	r0, r0, r2, lsl #13
    237c:	00252e01 	eoreq	r2, r5, r1, lsl #28
    2380:	52010000 	andpl	r0, r1, #0
    2384:	6e656c0f 	cdpvs	12, 6, cr6, cr5, cr15, {0}
    2388:	252f0100 	strcs	r0, [pc, #-256]!	; 2290 <__code_start__-0x5d70>
    238c:	01000000 	mrseq	r0, (UNDEF: 0)
    2390:	410a0051 	qaddmi	r0, r1, sl
    2394:	01000006 	tsteq	r0, r6
    2398:	00007437 	andeq	r7, r0, r7, lsr r4
    239c:	008e8800 	addeq	r8, lr, r0, lsl #16
    23a0:	00004000 	andeq	r4, r0, r0
    23a4:	9c9c0100 	ldflss	f0, [ip], {0}
    23a8:	0b000001 	bleq	23b4 <__code_start__-0x5c4c>
    23ac:	00747364 	rsbseq	r7, r4, r4, ror #6
    23b0:	00743701 	rsbseq	r3, r4, r1, lsl #14
    23b4:	06ec0000 	strbteq	r0, [ip], r0
    23b8:	6e0b0000 	cdpvs	0, 0, cr0, cr11, cr0, {0}
    23bc:	25370100 	ldrcs	r0, [r7, #-256]!	; 0x100
    23c0:	24000000 	strcs	r0, [r0], #-0
    23c4:	0b000007 	bleq	23e8 <__code_start__-0x5c18>
    23c8:	37010070 	smlsdxcc	r1, r0, r0, r0
    23cc:	00000074 	andeq	r0, r0, r4, ror r0
    23d0:	00000745 	andeq	r0, r0, r5, asr #14
    23d4:	0006350d 	andeq	r3, r6, sp, lsl #10
    23d8:	74370100 	ldrtvc	r0, [r7], #-256	; 0x100
    23dc:	7b000000 	blvc	23e4 <__code_start__-0x5c1c>
    23e0:	10000007 	andne	r0, r0, r7
    23e4:	006e656c 	rsbeq	r6, lr, ip, ror #10
    23e8:	00253901 	eoreq	r3, r5, r1, lsl #18
    23ec:	07990000 	ldreq	r0, [r9, r0]
    23f0:	730f0000 	movwvc	r0, #61440	; 0xf000
    23f4:	743d0100 	ldrtvc	r0, [sp], #-256	; 0x100
    23f8:	01000000 	mrseq	r0, (UNDEF: 0)
    23fc:	900a0050 	andls	r0, sl, r0, asr r0
    2400:	01000006 	tsteq	r0, r6
    2404:	00007447 	andeq	r7, r0, r7, asr #8
    2408:	008ec800 	addeq	ip, lr, r0, lsl #16
    240c:	0001bc00 	andeq	fp, r1, r0, lsl #24
    2410:	df9c0100 	svcle	0x009c0100
    2414:	0d000002 	stceq	0, cr0, [r0, #-8]
    2418:	00000a69 	andeq	r0, r0, r9, ror #20
    241c:	002c4701 	eoreq	r4, ip, r1, lsl #14
    2420:	07c00000 	strbeq	r0, [r0, r0]
    2424:	640b0000 	strvs	r0, [fp], #-0
    2428:	01007473 	tsteq	r0, r3, ror r4
    242c:	00007447 	andeq	r7, r0, r7, asr #8
    2430:	0007ee00 	andeq	lr, r7, r0, lsl #28
    2434:	006e0b00 	rsbeq	r0, lr, r0, lsl #22
    2438:	00254701 	eoreq	r4, r5, r1, lsl #14
    243c:	085c0000 	ldmdaeq	ip, {}^	; <UNPREDICTABLE>
    2440:	760b0000 	strvc	r0, [fp], -r0
    2444:	01006c61 	tsteq	r0, r1, ror #24
    2448:	00002547 	andeq	r2, r0, r7, asr #10
    244c:	00088800 	andeq	r8, r8, r0, lsl #16
    2450:	06820d00 	streq	r0, [r2], r0, lsl #26
    2454:	47010000 	strmi	r0, [r1, -r0]
    2458:	00000025 	andeq	r0, r0, r5, lsr #32
    245c:	00000907 	andeq	r0, r0, r7, lsl #18
    2460:	0006590e 	andeq	r5, r6, lr, lsl #18
    2464:	25470100 	strbcs	r0, [r7, #-256]	; 0x100
    2468:	02000000 	andeq	r0, r0, #0
    246c:	620f0491 	andvs	r0, pc, #-1862270976	; 0x91000000
    2470:	01006675 	tsteq	r0, r5, ror r6
    2474:	0002df4c 	andeq	sp, r2, ip, asr #30
    2478:	a8910300 	ldmge	r1, {r8, r9}
    247c:	0070107f 	rsbseq	r1, r0, pc, ror r0
    2480:	00744c01 	rsbseq	r4, r4, r1, lsl #24
    2484:	09310000 	ldmdbeq	r1!, {}	; <UNPREDICTABLE>
    2488:	75100000 	ldrvc	r0, [r0, #-0]
    248c:	2c4d0100 	stfcse	f0, [sp], {-0}
    2490:	1b000000 	blne	2498 <__code_start__-0x5b68>
    2494:	1100000a 	tstne	r0, sl
    2498:	000000fe 	strdeq	r0, [r0], -lr
    249c:	000002ff 	strdeq	r0, [r0], -pc	; <UNPREDICTABLE>
    24a0:	9f480305 	svcls	0x00480305
    24a4:	34120000 	ldrcc	r0, [r2], #-0
    24a8:	7400008f 	strvc	r0, [r0], #-143	; 0x8f
    24ac:	61000000 	mrsvs	r0, (UNDEF: 0)
    24b0:	13000002 	movwne	r0, #2
    24b4:	0000063b 	andeq	r0, r0, fp, lsr r6
    24b8:	002c5201 	eoreq	r5, ip, r1, lsl #4
    24bc:	0ade0000 	beq	ff7824c4 <__bss_end__+0xff777f4c>
    24c0:	14000000 	strne	r0, [r0], #-0
    24c4:	00009020 	andeq	r9, r0, r0, lsr #32
    24c8:	000006c4 	andeq	r0, r0, r4, asr #13
    24cc:	00903c15 	addseq	r3, r0, r5, lsl ip
    24d0:	0006cb00 	andeq	ip, r6, r0, lsl #22
    24d4:	0002a300 	andeq	sl, r2, r0, lsl #6
    24d8:	53011600 	movwpl	r1, #5632	; 0x1600
    24dc:	16770802 	ldrbtne	r0, [r7], -r2, lsl #16
    24e0:	03055201 	movweq	r5, #20993	; 0x5201
    24e4:	00009f48 	andeq	r9, r0, r8, asr #30
    24e8:	05510116 	ldrbeq	r0, [r1, #-278]	; 0x116
    24ec:	009f6c03 	addseq	r6, pc, r3, lsl #24
    24f0:	50011600 	andpl	r1, r1, r0, lsl #12
    24f4:	99d00305 	ldmibls	r0, {r0, r2, r8, r9}^
    24f8:	02160000 	andseq	r0, r6, #0
    24fc:	0305007d 	movweq	r0, #20605	; 0x507d
    2500:	00009f80 	andeq	r9, r0, r0, lsl #31
    2504:	90401400 	subls	r1, r0, r0, lsl #8
    2508:	06e10000 	strbteq	r0, [r1], r0
    250c:	48150000 	ldmdami	r5, {}	; <UNPREDICTABLE>
    2510:	e0000090 	mul	r0, r0, r0
    2514:	c1000000 	mrsgt	r0, (UNDEF: 0)
    2518:	16000002 	strne	r0, [r0], -r2
    251c:	91035101 	tstls	r3, r1, lsl #2
    2520:	17007fa0 	strne	r7, [r0, -r0, lsr #31]
    2524:	0000905c 	andeq	r9, r0, ip, asr r0
    2528:	00000130 	andeq	r0, r0, r0, lsr r1
    252c:	03530116 	cmpeq	r3, #-2147483643	; 0x80000005
    2530:	167fa091 			; <UNDEFINED> instruction: 0x167fa091
    2534:	74025101 	strvc	r5, [r2], #-257	; 0x101
    2538:	50011600 	andpl	r1, r1, r0, lsl #12
    253c:	00007502 	andeq	r7, r0, r2, lsl #10
    2540:	007a1800 	rsbseq	r1, sl, r0, lsl #16
    2544:	02ef0000 	rsceq	r0, pc, #0
    2548:	6b190000 	blvs	642550 <__bss_end__+0x637fd8>
    254c:	3f000000 	svccc	0x00000000
    2550:	007a1800 	rsbseq	r1, sl, r0, lsl #16
    2554:	02ff0000 	rscseq	r0, pc, #0
    2558:	6b190000 	blvs	642560 <__bss_end__+0x637fe8>
    255c:	04000000 	streq	r0, [r0], #-0
    2560:	02ef0600 	rsceq	r0, pc, #0, 12
    2564:	731a0000 	tstvc	sl, #0
    2568:	01000006 	tsteq	r0, r6
    256c:	0090841f 	addseq	r8, r0, pc, lsl r4
    2570:	00006800 	andeq	r6, r0, r0, lsl #16
    2574:	929c0100 	addsls	r0, ip, #0, 2
    2578:	0d000003 	stceq	0, cr0, [r0, #-12]
    257c:	00000688 	andeq	r0, r0, r8, lsl #13
    2580:	03a11f01 			; <UNDEFINED> instruction: 0x03a11f01
    2584:	0b0a0000 	bleq	28258c <__bss_end__+0x278014>
    2588:	510d0000 	mrspl	r0, (UNDEF: 13)
    258c:	01000006 	tsteq	r0, r6
    2590:	0003b61f 	andeq	fp, r3, pc, lsl r6
    2594:	000b3600 	andeq	r3, fp, r0, lsl #12
    2598:	00fe1100 	rscseq	r1, lr, r0, lsl #2
    259c:	03cc0000 	biceq	r0, ip, #0
    25a0:	03050000 	movweq	r0, #20480	; 0x5000
    25a4:	00009f50 	andeq	r9, r0, r0, asr pc
    25a8:	00909814 	addseq	r9, r0, r4, lsl r8
    25ac:	0006c400 	andeq	ip, r6, r0, lsl #8
    25b0:	90b41500 	adcsls	r1, r4, r0, lsl #10
    25b4:	06cb0000 	strbeq	r0, [fp], r0
    25b8:	03880000 	orreq	r0, r8, #0
    25bc:	01160000 	tsteq	r6, r0
    25c0:	20080253 	andcs	r0, r8, r3, asr r2
    25c4:	05520116 	ldrbeq	r0, [r2, #-278]	; 0x116
    25c8:	009f5003 	addseq	r5, pc, r3
    25cc:	51011600 	tstpl	r1, r0, lsl #12
    25d0:	9f6c0305 	svcls	0x006c0305
    25d4:	01160000 	tsteq	r6, r0
    25d8:	d0030550 	andle	r0, r3, r0, asr r5
    25dc:	16000099 			; <UNDEFINED> instruction: 0x16000099
    25e0:	05007d02 	streq	r7, [r0, #-3330]	; 0xd02
    25e4:	009fa803 	addseq	sl, pc, r3, lsl #16
    25e8:	b8140000 	ldmdalt	r4, {}	; <UNPREDICTABLE>
    25ec:	e1000090 	swp	r0, r0, [r0]	; <UNPREDICTABLE>
    25f0:	00000006 	andeq	r0, r0, r6
    25f4:	0000251b 	andeq	r2, r0, fp, lsl r5
    25f8:	0003a100 	andeq	sl, r3, r0, lsl #2
    25fc:	00251c00 	eoreq	r1, r5, r0, lsl #24
    2600:	05000000 	streq	r0, [r0, #-0]
    2604:	00039204 	andeq	r9, r3, r4, lsl #4
    2608:	00251b00 	eoreq	r1, r5, r0, lsl #22
    260c:	03b60000 			; <UNDEFINED> instruction: 0x03b60000
    2610:	811c0000 	tsthi	ip, r0
    2614:	00000000 	andeq	r0, r0, r0
    2618:	03a70405 			; <UNDEFINED> instruction: 0x03a70405
    261c:	7a180000 	bvc	602624 <__bss_end__+0x5f80ac>
    2620:	cc000000 	stcgt	0, cr0, [r0], {-0}
    2624:	19000003 	stmdbne	r0, {r0, r1}
    2628:	0000006b 	andeq	r0, r0, fp, rrx
    262c:	bc06000e 	stclt	0, cr0, [r6], {14}
    2630:	1d000003 	stcne	0, cr0, [r0, #-12]
    2634:	00000575 	andeq	r0, r0, r5, ror r5
    2638:	00257f01 	eoreq	r7, r5, r1, lsl #30
    263c:	90ec0000 	rscls	r0, ip, r0
    2640:	02d40000 	sbcseq	r0, r4, #0
    2644:	9c010000 	stcls	0, cr0, [r1], {-0}
    2648:	00000689 	andeq	r0, r0, r9, lsl #13
    264c:	6675620b 	ldrbtvs	r6, [r5], -fp, lsl #4
    2650:	747f0100 	ldrbtvc	r0, [pc], #-256	; 2658 <__code_start__-0x59a8>
    2654:	62000000 	andvs	r0, r0, #0
    2658:	0b00000b 	bleq	268c <__code_start__-0x5974>
    265c:	7f01006e 	svcvc	0x0001006e
    2660:	00000025 	andeq	r0, r0, r5, lsr #32
    2664:	00000b8e 	andeq	r0, r0, lr, lsl #23
    2668:	746d660b 	strbtvc	r6, [sp], #-1547	; 0x60b
    266c:	817f0100 	cmnhi	pc, r0, lsl #2
    2670:	bc000000 	stclt	0, cr0, [r0], {-0}
    2674:	0d00000b 	stceq	0, cr0, [r0, #-44]	; 0xffffffd4
    2678:	00000a8b 	andeq	r0, r0, fp, lsl #21
    267c:	00ae7f01 	adceq	r7, lr, r1, lsl #30
    2680:	0bda0000 	bleq	ff682688 <__bss_end__+0xff678110>
    2684:	70100000 	andsvc	r0, r0, r0
    2688:	74800100 	strvc	r0, [r0], #256	; 0x100
    268c:	ed000000 	stc	0, cr0, [r0, #-0]
    2690:	1000000b 	andne	r0, r0, fp
    2694:	80010065 	andhi	r0, r1, r5, rrx
    2698:	00000074 	andeq	r0, r0, r4, ror r0
    269c:	00000c6b 	andeq	r0, r0, fp, ror #24
    26a0:	00063113 	andeq	r3, r6, r3, lsl r1
    26a4:	81830100 	orrhi	r0, r3, r0, lsl #2
    26a8:	92000000 	andls	r0, r0, #0
    26ac:	1100000c 	tstne	r0, ip
    26b0:	000000fe 	strdeq	r0, [r0], -lr
    26b4:	00000699 	muleq	r0, r9, r6
    26b8:	9f600305 	svcls	0x00600305
    26bc:	481e0000 	ldmdami	lr, {}	; <UNPREDICTABLE>
    26c0:	2c000091 	stccs	0, cr0, [r0], {145}	; 0x91
    26c4:	10000002 	andne	r0, r0, r2
    26c8:	8e010073 	mcrhi	0, 0, r0, cr1, cr3, {3}
    26cc:	00000074 	andeq	r0, r0, r4, ror r0
    26d0:	00000cb2 			; <UNDEFINED> instruction: 0x00000cb2
    26d4:	6d756e0f 	ldclvs	14, cr6, [r5, #-60]!	; 0xffffffc4
    26d8:	9e8e0100 	rmflse	f0, f6, f0
    26dc:	03000006 	movweq	r0, #6
    26e0:	137ed891 	cmnne	lr, #9502720	; 0x910000
    26e4:	00000682 	andeq	r0, r0, r2, lsl #13
    26e8:	002c8f01 	eoreq	r8, ip, r1, lsl #30
    26ec:	0d070000 	stceq	0, cr0, [r7, #-0]
    26f0:	78150000 	ldmdavc	r5, {}	; <UNPREDICTABLE>
    26f4:	b9000091 	stmdblt	r0, {r0, r4, r7}
    26f8:	a4000000 	strge	r0, [r0], #-0
    26fc:	16000004 	strne	r0, [r0], -r4
    2700:	75025001 	strvc	r5, [r2, #-1]
    2704:	8c140000 	ldchi	0, cr0, [r4], {-0}
    2708:	c4000091 	strgt	r0, [r0], #-145	; 0x91
    270c:	15000006 	strne	r0, [r0, #-6]
    2710:	000091a8 	andeq	r9, r0, r8, lsr #3
    2714:	000006cb 	andeq	r0, r0, fp, asr #13
    2718:	000004e6 	andeq	r0, r0, r6, ror #9
    271c:	02530116 	subseq	r0, r3, #-2147483643	; 0x80000005
    2720:	01169508 	tsteq	r6, r8, lsl #10
    2724:	60030552 	andvs	r0, r3, r2, asr r5
    2728:	1600009f 			; <UNDEFINED> instruction: 0x1600009f
    272c:	03055101 	movweq	r5, #20737	; 0x5101
    2730:	00009f6c 	andeq	r9, r0, ip, ror #30
    2734:	05500116 	ldrbeq	r0, [r0, #-278]	; 0x116
    2738:	0099d003 	addseq	sp, r9, r3
    273c:	7d021600 	stcvc	6, cr1, [r2, #-0]
    2740:	b0030500 	andlt	r0, r3, r0, lsl #10
    2744:	0000009f 	muleq	r0, pc, r0	; <UNPREDICTABLE>
    2748:	0091ac14 	addseq	sl, r1, r4, lsl ip
    274c:	0006e100 	andeq	lr, r6, r0, lsl #2
    2750:	921c1400 	andsls	r1, ip, #0, 8
    2754:	06c40000 	strbeq	r0, [r4], r0
    2758:	30150000 	andscc	r0, r5, r0
    275c:	cb000092 	blgt	29ac <__code_start__-0x5654>
    2760:	27000006 	strcs	r0, [r0, -r6]
    2764:	16000005 	strne	r0, [r0], -r5
    2768:	08025301 	stmdaeq	r2, {r0, r8, r9, ip, lr}
    276c:	5201169b 	andpl	r1, r1, #162529280	; 0x9b00000
    2770:	9f600305 	svcls	0x00600305
    2774:	01160000 	tsteq	r6, r0
    2778:	6c030551 	cfstr32vs	mvfx0, [r3], {81}	; 0x51
    277c:	1600009f 			; <UNDEFINED> instruction: 0x1600009f
    2780:	03055001 	movweq	r5, #20481	; 0x5001
    2784:	00009fbc 			; <UNDEFINED> instruction: 0x00009fbc
    2788:	92341400 	eorsls	r1, r4, #0, 8
    278c:	06e10000 	strbteq	r0, [r1], r0
    2790:	58150000 	ldmdapl	r5, {}	; <UNPREDICTABLE>
    2794:	9c000092 	stcls	0, cr0, [r0], {146}	; 0x92
    2798:	5d000001 	stcpl	0, cr0, [r0, #-4]
    279c:	16000005 	strne	r0, [r0], -r5
    27a0:	08025201 	stmdaeq	r2, {r0, r9, ip, lr}
    27a4:	51011680 	smlabbpl	r1, r0, r6, r1
    27a8:	7ed09103 	atnvcs	f1, f3
    27ac:	01500116 	cmpeq	r0, r6, lsl r1
    27b0:	7d02163a 	stcvc	6, cr1, [r2, #-232]	; 0xffffff18
    27b4:	16310104 	ldrtne	r0, [r1], -r4, lsl #2
    27b8:	02007d02 	andeq	r7, r0, #2, 26	; 0x80
    27bc:	15000077 	strne	r0, [r0, #-119]	; 0x77
    27c0:	00009280 	andeq	r9, r0, r0, lsl #5
    27c4:	0000019c 	muleq	r0, ip, r1
    27c8:	0000058a 	andeq	r0, r0, sl, lsl #11
    27cc:	02520116 	subseq	r0, r2, #-2147483643	; 0x80000005
    27d0:	01168008 	tsteq	r6, r8
    27d4:	d0910351 	addsle	r0, r1, r1, asr r3
    27d8:	5001167e 	andpl	r1, r1, lr, ror r6
    27dc:	02163a01 	andseq	r3, r6, #4096	; 0x1000
    27e0:	3001047d 	andcc	r0, r1, sp, ror r4
    27e4:	007d0216 	rsbseq	r0, sp, r6, lsl r2
    27e8:	00007702 	andeq	r7, r0, r2, lsl #14
    27ec:	0092a815 	addseq	sl, r2, r5, lsl r8
    27f0:	00019c00 	andeq	r9, r1, r0, lsl #24
    27f4:	0005b700 	andeq	fp, r5, r0, lsl #14
    27f8:	52011600 	andpl	r1, r1, #0, 12
    27fc:	16800802 	strne	r0, [r0], r2, lsl #16
    2800:	91035101 	tstls	r3, r1, lsl #2
    2804:	01167ed0 			; <UNDEFINED> instruction: 0x01167ed0
    2808:	16400150 			; <UNDEFINED> instruction: 0x16400150
    280c:	01047d02 	tsteq	r4, r2, lsl #26
    2810:	7d021630 	stcvc	6, cr1, [r2, #-192]	; 0xffffff40
    2814:	00770200 	rsbseq	r0, r7, r0, lsl #4
    2818:	92d01500 	sbcsls	r1, r0, #0, 10
    281c:	019c0000 	orrseq	r0, ip, r0
    2820:	05e40000 	strbeq	r0, [r4, #0]!
    2824:	01160000 	tsteq	r6, r0
    2828:	80080252 	andhi	r0, r8, r2, asr r2
    282c:	03510116 	cmpeq	r1, #-2147483643	; 0x80000005
    2830:	167ed091 			; <UNDEFINED> instruction: 0x167ed091
    2834:	32015001 	andcc	r5, r1, #1
    2838:	047d0216 	ldrbteq	r0, [sp], #-534	; 0x216
    283c:	02163001 	andseq	r3, r6, #1
    2840:	7702007d 	smlsdxvc	r2, sp, r0, r0
    2844:	04150000 	ldreq	r0, [r5], #-0
    2848:	9c000093 	stcls	0, cr0, [r0], {147}	; 0x93
    284c:	11000001 	tstne	r0, r1
    2850:	16000006 	strne	r0, [r0], -r6
    2854:	08025201 	stmdaeq	r2, {r0, r9, ip, lr}
    2858:	51011680 	smlabbpl	r1, r0, r6, r1
    285c:	7ed09103 	atnvcs	f1, f3
    2860:	01500116 	cmpeq	r0, r6, lsl r1
    2864:	7d021638 	stcvc	6, cr1, [r2, #-224]	; 0xffffff20
    2868:	16300104 	ldrtne	r0, [r0], -r4, lsl #2
    286c:	02007d02 	andeq	r7, r0, #2, 26	; 0x80
    2870:	15000077 	strne	r0, [r0, #-119]	; 0x77
    2874:	00009320 	andeq	r9, r0, r0, lsr #6
    2878:	000006cb 	andeq	r0, r0, fp, asr #13
    287c:	00000634 	andeq	r0, r0, r4, lsr r6
    2880:	02520116 	subseq	r0, r2, #-2147483643	; 0x80000005
    2884:	01160079 	tsteq	r6, r9, ror r0
    2888:	00790251 	rsbseq	r0, r9, r1, asr r2
    288c:	05500116 	ldrbeq	r0, [r0, #-278]	; 0x116
    2890:	009fe403 	addseq	lr, pc, r3, lsl #8
    2894:	301f0000 	andscc	r0, pc, r0
    2898:	46000093 			; <UNDEFINED> instruction: 0x46000093
    289c:	16000006 	strne	r0, [r0], -r6
    28a0:	91045001 	tstls	r4, r1
    28a4:	00067ecc 	andeq	r7, r6, ip, asr #29
    28a8:	00933414 	addseq	r3, r3, r4, lsl r4
    28ac:	0006c400 	andeq	ip, r6, r0, lsl #8
    28b0:	93481500 	movtls	r1, #34048	; 0x8500
    28b4:	06cb0000 	strbeq	r0, [fp], r0
    28b8:	067e0000 	ldrbteq	r0, [lr], -r0
    28bc:	01160000 	tsteq	r6, r0
    28c0:	bf080253 	svclt	0x00080253
    28c4:	05520116 	ldrbeq	r0, [r2, #-278]	; 0x116
    28c8:	009f6003 	addseq	r6, pc, r3
    28cc:	51011600 	tstpl	r1, r0, lsl #12
    28d0:	9f6c0305 	svcls	0x006c0305
    28d4:	01160000 	tsteq	r6, r0
    28d8:	14030550 	strne	r0, [r3], #-1360	; 0x550
    28dc:	000000a0 	andeq	r0, r0, r0, lsr #1
    28e0:	00934c14 	addseq	r4, r3, r4, lsl ip
    28e4:	0006e100 	andeq	lr, r6, r0, lsl #2
    28e8:	18000000 	stmdane	r0, {}	; <UNPREDICTABLE>
    28ec:	0000007a 	andeq	r0, r0, sl, ror r0
    28f0:	00000699 	muleq	r0, r9, r6
    28f4:	00006b19 	andeq	r6, r0, r9, lsl fp
    28f8:	06000900 	streq	r0, [r0], -r0, lsl #18
    28fc:	00000689 	andeq	r0, r0, r9, lsl #13
    2900:	00007a18 	andeq	r7, r0, r8, lsl sl
    2904:	0006ae00 	andeq	sl, r6, r0, lsl #28
    2908:	006b1900 	rsbeq	r1, fp, r0, lsl #18
    290c:	007f0000 	rsbseq	r0, pc, r0
    2910:	0005ef20 	andeq	lr, r5, r0, lsr #30
    2914:	a11d0300 	tstge	sp, r0, lsl #6
    2918:	20000003 	andcs	r0, r0, r3
    291c:	0000062c 	andeq	r0, r0, ip, lsr #12
    2920:	03b62203 			; <UNDEFINED> instruction: 0x03b62203
    2924:	25210000 	strcs	r0, [r1, #-0]!
    2928:	03000002 	movweq	r0, #2
    292c:	0578221e 	ldrbeq	r2, [r8, #-542]!	; 0x21e
    2930:	29030000 	stmdbcs	r3, {}	; <UNPREDICTABLE>
    2934:	00000025 	andeq	r0, r0, r5, lsr #32
    2938:	000006e1 	andeq	r0, r0, r1, ror #13
    293c:	0000811c 	andeq	r8, r0, ip, lsl r1
    2940:	21002300 	mrscs	r2, LR_irq
    2944:	000000bb 	strheq	r0, [r0], -fp
    2948:	b8006503 	stmdalt	r0, {r0, r1, r8, sl, sp, lr}
    294c:	04000000 	streq	r0, [r0], #-0
    2950:	000bb400 	andeq	fp, fp, r0, lsl #8
    2954:	1e010400 	cfcpysne	mvf0, mvf1
    2958:	01000005 	tsteq	r0, r5
    295c:	000006a3 	andeq	r0, r0, r3, lsr #13
    2960:	00000589 	andeq	r0, r0, r9, lsl #11
    2964:	000093c0 	andeq	r9, r0, r0, asr #7
    2968:	00000020 	andeq	r0, r0, r0, lsr #32
    296c:	000009d9 	ldrdeq	r0, [r0], -r9
    2970:	69050402 	stmdbvs	r5, {r1, sl}
    2974:	0300746e 	movweq	r7, #1134	; 0x46e
    2978:	01a00704 	lsleq	r0, r4, #14
    297c:	01030000 	mrseq	r0, (UNDEF: 3)
    2980:	0000af06 	andeq	sl, r0, r6, lsl #30
    2984:	05020300 	streq	r0, [r2, #-768]	; 0x300
    2988:	000000f4 	strdeq	r0, [r0], -r4
    298c:	c5050403 	strgt	r0, [r5, #-1027]	; 0x403
    2990:	03000001 	movweq	r0, #1
    2994:	01c00508 	biceq	r0, r0, r8, lsl #10
    2998:	01030000 	mrseq	r0, (UNDEF: 3)
    299c:	0000ad08 	andeq	sl, r0, r8, lsl #26
    29a0:	07020300 	streq	r0, [r2, -r0, lsl #6]
    29a4:	000000d3 	ldrdeq	r0, [r0], -r3
    29a8:	9b070403 	blls	1c39bc <__bss_end__+0x1b9444>
    29ac:	03000001 	movweq	r0, #1
    29b0:	01960708 	orrseq	r0, r6, r8, lsl #14
    29b4:	04030000 	streq	r0, [r3], #-0
    29b8:	0001b707 	andeq	fp, r1, r7, lsl #14
    29bc:	08010300 	stmdaeq	r1, {r8, r9}
    29c0:	000000b6 	strheq	r0, [r0], -r6
    29c4:	0001e504 	andeq	lr, r1, r4, lsl #10
    29c8:	c0030100 	andgt	r0, r3, r0, lsl #2
    29cc:	10000093 	mulne	r0, r3, r0
    29d0:	01000000 	mrseq	r0, (UNDEF: 0)
    29d4:	00009c9c 	muleq	r0, ip, ip
    29d8:	00720500 	rsbseq	r0, r2, r0, lsl #10
    29dc:	002c0401 	eoreq	r0, ip, r1, lsl #8
    29e0:	0d310000 	ldceq	0, cr0, [r1, #-0]
    29e4:	06000000 	streq	r0, [r0], -r0
    29e8:	00000695 	muleq	r0, r5, r6
    29ec:	93d00c01 	bicsls	r0, r0, #256	; 0x100
    29f0:	00100000 	andseq	r0, r0, r0
    29f4:	9c010000 	stcls	0, cr0, [r1], {-0}
    29f8:	01007205 	tsteq	r0, r5, lsl #4
    29fc:	00002c0d 	andeq	r2, r0, sp, lsl #24
    2a00:	000d5500 	andeq	r5, sp, r0, lsl #10
    2a04:	0f000000 	svceq	0x00000000
    2a08:	04000001 	streq	r0, [r0], #-1
    2a0c:	000c1f00 	andeq	r1, ip, r0, lsl #30
    2a10:	1e010400 	cfcpysne	mvf0, mvf1
    2a14:	01000005 	tsteq	r0, r5
    2a18:	000006c4 	andeq	r0, r0, r4, asr #13
    2a1c:	00000589 	andeq	r0, r0, r9, lsl #11
    2a20:	000093e0 	andeq	r9, r0, r0, ror #7
    2a24:	0000002c 	andeq	r0, r0, ip, lsr #32
    2a28:	00000a1f 	andeq	r0, r0, pc, lsl sl
    2a2c:	69050402 	stmdbvs	r5, {r1, sl}
    2a30:	0300746e 	movweq	r7, #1134	; 0x46e
    2a34:	01a00704 	lsleq	r0, r4, #14
    2a38:	01030000 	mrseq	r0, (UNDEF: 3)
    2a3c:	0000af06 	andeq	sl, r0, r6, lsl #30
    2a40:	05020300 	streq	r0, [r2, #-768]	; 0x300
    2a44:	000000f4 	strdeq	r0, [r0], -r4
    2a48:	c5050403 	strgt	r0, [r5, #-1027]	; 0x403
    2a4c:	03000001 	movweq	r0, #1
    2a50:	01c00508 	biceq	r0, r0, r8, lsl #10
    2a54:	01030000 	mrseq	r0, (UNDEF: 3)
    2a58:	0000ad08 	andeq	sl, r0, r8, lsl #26
    2a5c:	07020300 	streq	r0, [r2, -r0, lsl #6]
    2a60:	000000d3 	ldrdeq	r0, [r0], -r3
    2a64:	9b070403 	blls	1c3a78 <__bss_end__+0x1b9500>
    2a68:	03000001 	movweq	r0, #1
    2a6c:	01960708 	orrseq	r0, r6, r8, lsl #14
    2a70:	04030000 	streq	r0, [r3], #-0
    2a74:	0001b707 	andeq	fp, r1, r7, lsl #14
    2a78:	08010300 	stmdaeq	r1, {r8, r9}
    2a7c:	000000b6 	strheq	r0, [r0], -r6
    2a80:	007f0404 	rsbseq	r0, pc, r4, lsl #8
    2a84:	72050000 	andvc	r0, r5, #0
    2a88:	06000000 	streq	r0, [r0], -r0
    2a8c:	000000bb 	strheq	r0, [r0], -fp
    2a90:	93e00401 	mvnls	r0, #16777216	; 0x1000000
    2a94:	002c0000 	eoreq	r0, ip, r0
    2a98:	9c010000 	stcls	0, cr0, [r1], {-0}
    2a9c:	000000d3 	ldrdeq	r0, [r0], -r3
    2aa0:	0093e807 	addseq	lr, r3, r7, lsl #16
    2aa4:	0000f300 	andeq	pc, r0, r0, lsl #6
    2aa8:	93f80800 	mvnsls	r0, #0, 16
    2aac:	00b50000 	adcseq	r0, r5, r0
    2ab0:	01090000 	mrseq	r0, (UNDEF: 9)
    2ab4:	34030550 	strcc	r0, [r3], #-1360	; 0x550
    2ab8:	000000a0 	andeq	r0, r0, r0, lsr #1
    2abc:	0094000a 	addseq	r0, r4, sl
    2ac0:	0000fa00 	andeq	pc, r0, r0, lsl #20
    2ac4:	0000c900 	andeq	ip, r0, r0, lsl #18
    2ac8:	50010900 	andpl	r0, r1, r0, lsl #18
    2acc:	00640802 	rsbeq	r0, r4, r2, lsl #16
    2ad0:	00940407 	addseq	r0, r4, r7, lsl #8
    2ad4:	00010b00 	andeq	r0, r1, r0, lsl #22
    2ad8:	250b0000 	strcs	r0, [fp, #-0]
    2adc:	e2000000 	and	r0, r0, #0
    2ae0:	0c000000 	stceq	0, cr0, [r0], {-0}
    2ae4:	00000079 	andeq	r0, r0, r9, ror r0
    2ae8:	062c0d00 	strteq	r0, [ip], -r0, lsl #26
    2aec:	22020000 	andcs	r0, r2, #0
    2af0:	000000ed 	andeq	r0, r0, sp, ror #1
    2af4:	00d30404 	sbcseq	r0, r3, r4, lsl #8
    2af8:	b50e0000 	strlt	r0, [lr, #-0]
    2afc:	02000006 	andeq	r0, r0, #6
    2b00:	06e80fdc 	usateq	r0, #8, ip, asr #31
    2b04:	4f020000 	svcmi	0x00020000
    2b08:	0000010b 	andeq	r0, r0, fp, lsl #2
    2b0c:	00002c0c 	andeq	r2, r0, ip, lsl #24
    2b10:	dd0e0000 	stcle	0, cr0, [lr, #-0]
    2b14:	02000006 	andeq	r0, r0, #6
    2b18:	010f0062 	tsteq	pc, r2, rrx
    2b1c:	00040000 	andeq	r0, r4, r0
    2b20:	00000ce9 	andeq	r0, r0, r9, ror #25
    2b24:	051e0104 	ldreq	r0, [lr, #-260]	; 0x104
    2b28:	2a010000 	bcs	42b30 <__bss_end__+0x385b8>
    2b2c:	89000007 	stmdbhi	r0, {r0, r1, r2}
    2b30:	0c000005 	stceq	0, cr0, [r0], {5}
    2b34:	38000094 	stmdacc	r0, {r2, r4, r7}
    2b38:	c0000000 	andgt	r0, r0, r0
    2b3c:	0200000a 	andeq	r0, r0, #10
    2b40:	6e690504 	cdpvs	5, 6, cr0, cr9, cr4, {0}
    2b44:	04030074 	streq	r0, [r3], #-116	; 0x74
    2b48:	0001a007 	andeq	sl, r1, r7
    2b4c:	06010300 	streq	r0, [r1], -r0, lsl #6
    2b50:	000000af 	andeq	r0, r0, pc, lsr #1
    2b54:	f4050203 	vst1.8	{d0-d3}, [r5], r3
    2b58:	03000000 	movweq	r0, #0
    2b5c:	01c50504 	biceq	r0, r5, r4, lsl #10
    2b60:	08030000 	stmdaeq	r3, {}	; <UNPREDICTABLE>
    2b64:	0001c005 	andeq	ip, r1, r5
    2b68:	08010300 	stmdaeq	r1, {r8, r9}
    2b6c:	000000ad 	andeq	r0, r0, sp, lsr #1
    2b70:	d3070203 	movwle	r0, #29187	; 0x7203
    2b74:	03000000 	movweq	r0, #0
    2b78:	019b0704 	orrseq	r0, fp, r4, lsl #14
    2b7c:	08030000 	stmdaeq	r3, {}	; <UNPREDICTABLE>
    2b80:	00019607 	andeq	r9, r1, r7, lsl #12
    2b84:	07040300 	streq	r0, [r4, -r0, lsl #6]
    2b88:	000001b7 			; <UNDEFINED> instruction: 0x000001b7
    2b8c:	b6080103 	strlt	r0, [r8], -r3, lsl #2
    2b90:	04000000 	streq	r0, [r0], #-0
    2b94:	00000722 	andeq	r0, r0, r2, lsr #14
    2b98:	940c0d01 	strls	r0, [ip], #-3329	; 0xd01
    2b9c:	00380000 	eorseq	r0, r8, r0
    2ba0:	9c010000 	stcls	0, cr0, [r1], {-0}
    2ba4:	000000e1 	andeq	r0, r0, r1, ror #1
    2ba8:	0006f105 	andeq	pc, r6, r5, lsl #2
    2bac:	250e0100 	strcs	r0, [lr, #-256]	; 0x100
    2bb0:	05000000 	streq	r0, [r0, #-0]
    2bb4:	000006ff 	strdeq	r0, [r0], -pc	; <UNPREDICTABLE>
    2bb8:	00250e01 	eoreq	r0, r5, r1, lsl #28
    2bbc:	80060000 	andhi	r0, r6, r0
    2bc0:	01000000 	mrseq	r0, (UNDEF: 0)
    2bc4:	7362070f 	cmnvc	r2, #3932160	; 0x3c0000
    2bc8:	11010073 	tstne	r1, r3, ror r0
    2bcc:	000000e1 	andeq	r0, r0, r1, ror #1
    2bd0:	00000d79 	andeq	r0, r0, r9, ror sp
    2bd4:	00071a08 	andeq	r1, r7, r8, lsl #20
    2bd8:	e1120100 	tst	r2, r0, lsl #2
    2bdc:	09000000 	stmdbeq	r0, {}	; <UNPREDICTABLE>
    2be0:	00009434 	andeq	r9, r0, r4, lsr r4
    2be4:	000000fd 	strdeq	r0, [r0], -sp
    2be8:	00943809 	addseq	r3, r4, r9, lsl #16
    2bec:	00010400 	andeq	r0, r1, r0, lsl #8
    2bf0:	943c0900 	ldrtls	r0, [ip], #-2304	; 0x900
    2bf4:	010b0000 	mrseq	r0, (UNDEF: 11)
    2bf8:	0a000000 	beq	2c00 <__code_start__-0x5400>
    2bfc:	00002504 	andeq	r2, r0, r4, lsl #10
    2c00:	06f10500 	ldrbteq	r0, [r1], r0, lsl #10
    2c04:	0e010000 	cdpeq	0, 0, cr0, cr1, cr0, {0}
    2c08:	00000025 	andeq	r0, r0, r5, lsr #32
    2c0c:	0006ff05 	andeq	pc, r6, r5, lsl #30
    2c10:	250e0100 	strcs	r0, [lr, #-256]	; 0x100
    2c14:	06000000 	streq	r0, [r0], -r0
    2c18:	0000070b 	andeq	r0, r0, fp, lsl #14
    2c1c:	8006da02 	andhi	sp, r6, r2, lsl #20
    2c20:	02000000 	andeq	r0, r0, #0
    2c24:	00bb06d7 	ldrsbteq	r0, [fp], r7
    2c28:	65020000 	strvs	r0, [r2, #-0]
    2c2c:	00013e00 	andeq	r3, r1, r0, lsl #28
    2c30:	7d000400 	cfstrsvc	mvf0, [r0, #-0]
    2c34:	0400000d 	streq	r0, [r0], #-13
    2c38:	00051e01 	andeq	r1, r5, r1, lsl #28
    2c3c:	073d0100 	ldreq	r0, [sp, -r0, lsl #2]!
    2c40:	05890000 	streq	r0, [r9]
    2c44:	94440000 	strbls	r0, [r4], #-0
    2c48:	00440000 	subeq	r0, r4, r0
    2c4c:	0b6a0000 	bleq	1a82c54 <__bss_end__+0x1a786dc>
    2c50:	04020000 	streq	r0, [r2], #-0
    2c54:	746e6905 	strbtvc	r6, [lr], #-2309	; 0x905
    2c58:	07040300 	streq	r0, [r4, -r0, lsl #6]
    2c5c:	000001a0 	andeq	r0, r0, r0, lsr #3
    2c60:	af060103 	svcge	0x00060103
    2c64:	03000000 	movweq	r0, #0
    2c68:	00f40502 	rscseq	r0, r4, r2, lsl #10
    2c6c:	04030000 	streq	r0, [r3], #-0
    2c70:	0001c505 	andeq	ip, r1, r5, lsl #10
    2c74:	05080300 	streq	r0, [r8, #-768]	; 0x300
    2c78:	000001c0 	andeq	r0, r0, r0, asr #3
    2c7c:	ad080103 	stfges	f0, [r8, #-12]
    2c80:	03000000 	movweq	r0, #0
    2c84:	00d30702 	sbcseq	r0, r3, r2, lsl #14
    2c88:	04030000 	streq	r0, [r3], #-0
    2c8c:	00019b07 	andeq	r9, r1, r7, lsl #22
    2c90:	07080300 	streq	r0, [r8, -r0, lsl #6]
    2c94:	00000196 	muleq	r0, r6, r1
    2c98:	b7070403 	strlt	r0, [r7, -r3, lsl #8]
    2c9c:	03000001 	movweq	r0, #1
    2ca0:	00b60801 	adcseq	r0, r6, r1, lsl #16
    2ca4:	04040000 	streq	r0, [r4], #-0
    2ca8:	0000007f 	andeq	r0, r0, pc, ror r0
    2cac:	00007205 	andeq	r7, r0, r5, lsl #4
    2cb0:	075e0600 	ldrbeq	r0, [lr, -r0, lsl #12]
    2cb4:	02010000 	andeq	r0, r1, #0
    2cb8:	00009444 	andeq	r9, r0, r4, asr #8
    2cbc:	00000044 	andeq	r0, r0, r4, asr #32
    2cc0:	01089c01 	tsteq	r8, r1, lsl #24
    2cc4:	70070000 	andvc	r0, r7, r0
    2cc8:	02010063 	andeq	r0, r1, #99	; 0x63
    2ccc:	0000002c 	andeq	r0, r0, ip, lsr #32
    2cd0:	00000d99 	muleq	r0, r9, sp
    2cd4:	0000fe08 	andeq	pc, r0, r8, lsl #28
    2cd8:	00011800 	andeq	r1, r1, r0, lsl #16
    2cdc:	40030500 	andmi	r0, r3, r0, lsl #10
    2ce0:	090000a0 	stmdbeq	r0, {r5, r7}
    2ce4:	00009454 	andeq	r9, r0, r4, asr r4
    2ce8:	0000011d 	andeq	r0, r0, sp, lsl r1
    2cec:	0094740a 	addseq	r7, r4, sl, lsl #8
    2cf0:	00012400 	andeq	r2, r1, r0, lsl #8
    2cf4:	0000fe00 	andeq	pc, r0, r0, lsl #28
    2cf8:	53010b00 	movwpl	r0, #6912	; 0x1b00
    2cfc:	010b3201 	tsteq	fp, r1, lsl #4
    2d00:	40030552 	andmi	r0, r3, r2, asr r5
    2d04:	0b0000a0 	bleq	2f8c <__code_start__-0x5074>
    2d08:	03055101 	movweq	r5, #20737	; 0x5101
    2d0c:	0000a094 	muleq	r0, r4, r0
    2d10:	0550010b 	ldrbeq	r0, [r0, #-267]	; 0x10b
    2d14:	00a05803 	adceq	r5, r0, r3, lsl #16
    2d18:	7d020b00 	vstrvc	d0, [r2, #-0]
    2d1c:	00740204 	rsbseq	r0, r4, r4, lsl #4
    2d20:	007d020b 	rsbseq	r0, sp, fp, lsl #4
    2d24:	a0b80305 	adcsge	r0, r8, r5, lsl #6
    2d28:	09000000 	stmdbeq	r0, {}	; <UNPREDICTABLE>
    2d2c:	00009478 	andeq	r9, r0, r8, ror r4
    2d30:	0000013a 	andeq	r0, r0, sl, lsr r1
    2d34:	00720c00 	rsbseq	r0, r2, r0, lsl #24
    2d38:	01180000 	tsteq	r8, r0
    2d3c:	6b0d0000 	blvs	342d44 <__bss_end__+0x3387cc>
    2d40:	15000000 	strne	r0, [r0, #-0]
    2d44:	01080500 	tsteq	r8, r0, lsl #10
    2d48:	250e0000 	strcs	r0, [lr, #-0]
    2d4c:	02000002 	andeq	r0, r0, #2
    2d50:	05780f1e 	ldrbeq	r0, [r8, #-3870]!	; 0xf1e
    2d54:	29020000 	stmdbcs	r2, {}	; <UNPREDICTABLE>
    2d58:	00000025 	andeq	r0, r0, r5, lsr #32
    2d5c:	0000013a 	andeq	r0, r0, sl, lsr r1
    2d60:	00007910 	andeq	r7, r0, r0, lsl r9
    2d64:	0e001100 	adfeqs	f1, f0, f0
    2d68:	000000bb 	strheq	r0, [r0], -fp
    2d6c:	3e006502 	cfsh32cc	mvfx6, mvfx0, #2
    2d70:	04000001 	streq	r0, [r0], #-1
    2d74:	000e5500 	andeq	r5, lr, r0, lsl #10
    2d78:	1e010400 	cfcpysne	mvf0, mvf1
    2d7c:	01000005 	tsteq	r0, r5
    2d80:	00000781 	andeq	r0, r0, r1, lsl #15
    2d84:	00000589 	andeq	r0, r0, r9, lsl #11
    2d88:	00009488 	andeq	r9, r0, r8, lsl #9
    2d8c:	00000044 	andeq	r0, r0, r4, asr #32
    2d90:	00000c10 	andeq	r0, r0, r0, lsl ip
    2d94:	69050402 	stmdbvs	r5, {r1, sl}
    2d98:	0300746e 	movweq	r7, #1134	; 0x46e
    2d9c:	01a00704 	lsleq	r0, r4, #14
    2da0:	01030000 	mrseq	r0, (UNDEF: 3)
    2da4:	0000af06 	andeq	sl, r0, r6, lsl #30
    2da8:	05020300 	streq	r0, [r2, #-768]	; 0x300
    2dac:	000000f4 	strdeq	r0, [r0], -r4
    2db0:	c5050403 	strgt	r0, [r5, #-1027]	; 0x403
    2db4:	03000001 	movweq	r0, #1
    2db8:	01c00508 	biceq	r0, r0, r8, lsl #10
    2dbc:	01030000 	mrseq	r0, (UNDEF: 3)
    2dc0:	0000ad08 	andeq	sl, r0, r8, lsl #26
    2dc4:	07020300 	streq	r0, [r2, -r0, lsl #6]
    2dc8:	000000d3 	ldrdeq	r0, [r0], -r3
    2dcc:	9b070403 	blls	1c3de0 <__bss_end__+0x1b9868>
    2dd0:	03000001 	movweq	r0, #1
    2dd4:	01960708 	orrseq	r0, r6, r8, lsl #14
    2dd8:	04030000 	streq	r0, [r3], #-0
    2ddc:	0001b707 	andeq	fp, r1, r7, lsl #14
    2de0:	08010300 	stmdaeq	r1, {r8, r9}
    2de4:	000000b6 	strheq	r0, [r0], -r6
    2de8:	007f0404 	rsbseq	r0, pc, r4, lsl #8
    2dec:	72050000 	andvc	r0, r5, #0
    2df0:	06000000 	streq	r0, [r0], -r0
    2df4:	00000774 	andeq	r0, r0, r4, ror r7
    2df8:	94880201 	strls	r0, [r8], #513	; 0x201
    2dfc:	00440000 	subeq	r0, r4, r0
    2e00:	9c010000 	stcls	0, cr0, [r1], {-0}
    2e04:	00000108 	andeq	r0, r0, r8, lsl #2
    2e08:	00637007 	rsbeq	r7, r3, r7
    2e0c:	002c0201 	eoreq	r0, ip, r1, lsl #4
    2e10:	0db70000 	ldceq	0, cr0, [r7]
    2e14:	fe080000 	cdp2	0, 0, cr0, cr8, cr0, {0}
    2e18:	18000000 	stmdane	r0, {}	; <UNPREDICTABLE>
    2e1c:	05000001 	streq	r0, [r0, #-1]
    2e20:	00a0c003 	adceq	ip, r0, r3
    2e24:	94980900 	ldrls	r0, [r8], #2304	; 0x900
    2e28:	011d0000 	tsteq	sp, r0
    2e2c:	b80a0000 	stmdalt	sl, {}	; <UNPREDICTABLE>
    2e30:	24000094 	strcs	r0, [r0], #-148	; 0x94
    2e34:	fe000001 	cdp2	0, 0, cr0, cr0, cr1, {0}
    2e38:	0b000000 	bleq	2e40 <__code_start__-0x51c0>
    2e3c:	32015301 	andcc	r5, r1, #67108864	; 0x4000000
    2e40:	0552010b 	ldrbeq	r0, [r2, #-267]	; 0x10b
    2e44:	00a0c003 	adceq	ip, r0, r3
    2e48:	51010b00 	tstpl	r1, r0, lsl #22
    2e4c:	a0d00305 	sbcsge	r0, r0, r5, lsl #6
    2e50:	010b0000 	mrseq	r0, (UNDEF: 11)
    2e54:	58030550 	stmdapl	r3, {r4, r6, r8, sl}
    2e58:	0b0000a0 	bleq	30e0 <__code_start__-0x4f20>
    2e5c:	02047d02 	andeq	r7, r4, #2, 26	; 0x80
    2e60:	020b0074 	andeq	r0, fp, #116	; 0x74
    2e64:	0305007d 	movweq	r0, #20605	; 0x507d
    2e68:	0000a0f4 	strdeq	sl, [r0], -r4
    2e6c:	94bc0900 	ldrtls	r0, [ip], #2304	; 0x900
    2e70:	013a0000 	teqeq	sl, r0
    2e74:	0c000000 	stceq	0, cr0, [r0], {-0}
    2e78:	00000072 	andeq	r0, r0, r2, ror r0
    2e7c:	00000118 	andeq	r0, r0, r8, lsl r1
    2e80:	00006b0d 	andeq	r6, r0, sp, lsl #22
    2e84:	05000c00 	streq	r0, [r0, #-3072]	; 0xc00
    2e88:	00000108 	andeq	r0, r0, r8, lsl #2
    2e8c:	0002250e 	andeq	r2, r2, lr, lsl #10
    2e90:	0f1e0200 	svceq	0x001e0200
    2e94:	00000578 	andeq	r0, r0, r8, ror r5
    2e98:	00252902 	eoreq	r2, r5, r2, lsl #18
    2e9c:	013a0000 	teqeq	sl, r0
    2ea0:	79100000 	ldmdbvc	r0, {}	; <UNPREDICTABLE>
    2ea4:	11000000 	mrsne	r0, (UNDEF: 0)
    2ea8:	00bb0e00 	adcseq	r0, fp, r0, lsl #28
    2eac:	65020000 	strvs	r0, [r2, #-0]
    2eb0:	00013e00 	andeq	r3, r1, r0, lsl #28
    2eb4:	2d000400 	cfstrscs	mvf0, [r0, #-0]
    2eb8:	0400000f 	streq	r0, [r0], #-15
    2ebc:	00051e01 	andeq	r1, r5, r1, lsl #28
    2ec0:	07a30100 	streq	r0, [r3, r0, lsl #2]!
    2ec4:	05890000 	streq	r0, [r9]
    2ec8:	94cc0000 	strbls	r0, [ip], #0
    2ecc:	00440000 	subeq	r0, r4, r0
    2ed0:	0cb70000 	ldceq	0, cr0, [r7]
    2ed4:	04020000 	streq	r0, [r2], #-0
    2ed8:	746e6905 	strbtvc	r6, [lr], #-2309	; 0x905
    2edc:	07040300 	streq	r0, [r4, -r0, lsl #6]
    2ee0:	000001a0 	andeq	r0, r0, r0, lsr #3
    2ee4:	af060103 	svcge	0x00060103
    2ee8:	03000000 	movweq	r0, #0
    2eec:	00f40502 	rscseq	r0, r4, r2, lsl #10
    2ef0:	04030000 	streq	r0, [r3], #-0
    2ef4:	0001c505 	andeq	ip, r1, r5, lsl #10
    2ef8:	05080300 	streq	r0, [r8, #-768]	; 0x300
    2efc:	000001c0 	andeq	r0, r0, r0, asr #3
    2f00:	ad080103 	stfges	f0, [r8, #-12]
    2f04:	03000000 	movweq	r0, #0
    2f08:	00d30702 	sbcseq	r0, r3, r2, lsl #14
    2f0c:	04030000 	streq	r0, [r3], #-0
    2f10:	00019b07 	andeq	r9, r1, r7, lsl #22
    2f14:	07080300 	streq	r0, [r8, -r0, lsl #6]
    2f18:	00000196 	muleq	r0, r6, r1
    2f1c:	b7070403 	strlt	r0, [r7, -r3, lsl #8]
    2f20:	03000001 	movweq	r0, #1
    2f24:	00b60801 	adcseq	r0, r6, r1, lsl #16
    2f28:	04040000 	streq	r0, [r4], #-0
    2f2c:	0000007f 	andeq	r0, r0, pc, ror r0
    2f30:	00007205 	andeq	r7, r0, r5, lsl #4
    2f34:	07ce0600 	strbeq	r0, [lr, r0, lsl #12]
    2f38:	02010000 	andeq	r0, r1, #0
    2f3c:	000094cc 	andeq	r9, r0, ip, asr #9
    2f40:	00000044 	andeq	r0, r0, r4, asr #32
    2f44:	01089c01 	tsteq	r8, r1, lsl #24
    2f48:	70070000 	andvc	r0, r7, r0
    2f4c:	02010063 	andeq	r0, r1, #99	; 0x63
    2f50:	0000002c 	andeq	r0, r0, ip, lsr #32
    2f54:	00000dd5 	ldrdeq	r0, [r0], -r5
    2f58:	0000fe08 	andeq	pc, r0, r8, lsl #28
    2f5c:	00011800 	andeq	r1, r1, r0, lsl #16
    2f60:	fc030500 	stc2	5, cr0, [r3], {-0}
    2f64:	090000a0 	stmdbeq	r0, {r5, r7}
    2f68:	000094dc 	ldrdeq	r9, [r0], -ip
    2f6c:	0000011d 	andeq	r0, r0, sp, lsl r1
    2f70:	0094fc0a 	addseq	pc, r4, sl, lsl #24
    2f74:	00012400 	andeq	r2, r1, r0, lsl #8
    2f78:	0000fe00 	andeq	pc, r0, r0, lsl #28
    2f7c:	53010b00 	movwpl	r0, #6912	; 0x1b00
    2f80:	010b3201 	tsteq	fp, r1, lsl #4
    2f84:	fc030552 	stc2	5, cr0, [r3], {82}	; 0x52
    2f88:	0b0000a0 	bleq	3210 <__code_start__-0x4df0>
    2f8c:	03055101 	movweq	r5, #20737	; 0x5101
    2f90:	0000a11c 	andeq	sl, r0, ip, lsl r1
    2f94:	0550010b 	ldrbeq	r0, [r0, #-267]	; 0x10b
    2f98:	00a05803 	adceq	r5, r0, r3, lsl #16
    2f9c:	7d020b00 	vstrvc	d0, [r2, #-0]
    2fa0:	00740204 	rsbseq	r0, r4, r4, lsl #4
    2fa4:	007d020b 	rsbseq	r0, sp, fp, lsl #4
    2fa8:	a1480305 	cmpge	r8, r5, lsl #6
    2fac:	09000000 	stmdbeq	r0, {}	; <UNPREDICTABLE>
    2fb0:	00009500 	andeq	r9, r0, r0, lsl #10
    2fb4:	0000013a 	andeq	r0, r0, sl, lsr r1
    2fb8:	00720c00 	rsbseq	r0, r2, r0, lsl #24
    2fbc:	01180000 	tsteq	r8, r0
    2fc0:	6b0d0000 	blvs	342fc8 <__bss_end__+0x338a50>
    2fc4:	1c000000 	stcne	0, cr0, [r0], {-0}
    2fc8:	01080500 	tsteq	r8, r0, lsl #10
    2fcc:	250e0000 	strcs	r0, [lr, #-0]
    2fd0:	02000002 	andeq	r0, r0, #2
    2fd4:	05780f1e 	ldrbeq	r0, [r8, #-3870]!	; 0xf1e
    2fd8:	29020000 	stmdbcs	r2, {}	; <UNPREDICTABLE>
    2fdc:	00000025 	andeq	r0, r0, r5, lsr #32
    2fe0:	0000013a 	andeq	r0, r0, sl, lsr r1
    2fe4:	00007910 	andeq	r7, r0, r0, lsl r9
    2fe8:	0e001100 	adfeqs	f1, f0, f0
    2fec:	000000bb 	strheq	r0, [r0], -fp
    2ff0:	98006502 	stmdals	r0, {r1, r8, sl, sp, lr}
    2ff4:	04000000 	streq	r0, [r0], #-0
    2ff8:	00100500 	andseq	r0, r0, r0, lsl #10
    2ffc:	1e010400 	cfcpysne	mvf0, mvf1
    3000:	01000005 	tsteq	r0, r5
    3004:	000007eb 	andeq	r0, r0, fp, ror #15
    3008:	00000589 	andeq	r0, r0, r9, lsl #11
    300c:	00009510 	andeq	r9, r0, r0, lsl r5
    3010:	00000008 	andeq	r0, r0, r8
    3014:	00000d67 	andeq	r0, r0, r7, ror #26
    3018:	69050402 	stmdbvs	r5, {r1, sl}
    301c:	0300746e 	movweq	r7, #1134	; 0x46e
    3020:	01a00704 	lsleq	r0, r4, #14
    3024:	01030000 	mrseq	r0, (UNDEF: 3)
    3028:	0000af06 	andeq	sl, r0, r6, lsl #30
    302c:	05020300 	streq	r0, [r2, #-768]	; 0x300
    3030:	000000f4 	strdeq	r0, [r0], -r4
    3034:	c5050403 	strgt	r0, [r5, #-1027]	; 0x403
    3038:	03000001 	movweq	r0, #1
    303c:	01c00508 	biceq	r0, r0, r8, lsl #10
    3040:	01030000 	mrseq	r0, (UNDEF: 3)
    3044:	0000ad08 	andeq	sl, r0, r8, lsl #26
    3048:	07020300 	streq	r0, [r2, -r0, lsl #6]
    304c:	000000d3 	ldrdeq	r0, [r0], -r3
    3050:	9b070403 	blls	1c4064 <__bss_end__+0x1b9aec>
    3054:	03000001 	movweq	r0, #1
    3058:	01960708 	orrseq	r0, r6, r8, lsl #14
    305c:	04030000 	streq	r0, [r3], #-0
    3060:	0001b707 	andeq	fp, r1, r7, lsl #14
    3064:	08010300 	stmdaeq	r1, {r8, r9}
    3068:	000000b6 	strheq	r0, [r0], -r6
    306c:	00070b04 	andeq	r0, r7, r4, lsl #22
    3070:	10040100 	andne	r0, r4, r0, lsl #2
    3074:	04000095 	streq	r0, [r0], #-149	; 0x95
    3078:	01000000 	mrseq	r0, (UNDEF: 0)
    307c:	06b5049c 	ssateq	r0, #22, ip, lsl #9
    3080:	05010000 	streq	r0, [r1, #-0]
    3084:	00009514 	andeq	r9, r0, r4, lsl r5
    3088:	00000004 	andeq	r0, r0, r4
    308c:	d7009c01 	strle	r9, [r0, -r1, lsl #24]
    3090:	04000001 	streq	r0, [r0], #-1
    3094:	00104700 	andseq	r4, r0, r0, lsl #14
    3098:	1e010400 	cfcpysne	mvf0, mvf1
    309c:	01000005 	tsteq	r0, r5
    30a0:	000008a7 	andeq	r0, r0, r7, lsr #17
    30a4:	00000589 	andeq	r0, r0, r9, lsl #11
    30a8:	00009518 	andeq	r9, r0, r8, lsl r5
    30ac:	0000006c 	andeq	r0, r0, ip, rrx
    30b0:	00000db2 			; <UNDEFINED> instruction: 0x00000db2
    30b4:	69050402 	stmdbvs	r5, {r1, sl}
    30b8:	0300746e 	movweq	r7, #1134	; 0x46e
    30bc:	01a00704 	lsleq	r0, r4, #14
    30c0:	01030000 	mrseq	r0, (UNDEF: 3)
    30c4:	0000af06 	andeq	sl, r0, r6, lsl #30
    30c8:	05020300 	streq	r0, [r2, #-768]	; 0x300
    30cc:	000000f4 	strdeq	r0, [r0], -r4
    30d0:	c5050403 	strgt	r0, [r5, #-1027]	; 0x403
    30d4:	03000001 	movweq	r0, #1
    30d8:	01c00508 	biceq	r0, r0, r8, lsl #10
    30dc:	01030000 	mrseq	r0, (UNDEF: 3)
    30e0:	0000ad08 	andeq	sl, r0, r8, lsl #26
    30e4:	07020300 	streq	r0, [r2, -r0, lsl #6]
    30e8:	000000d3 	ldrdeq	r0, [r0], -r3
    30ec:	9b070403 	blls	1c4100 <__bss_end__+0x1b9b88>
    30f0:	03000001 	movweq	r0, #1
    30f4:	01960708 	orrseq	r0, r6, r8, lsl #14
    30f8:	04030000 	streq	r0, [r3], #-0
    30fc:	0001b707 	andeq	fp, r1, r7, lsl #14
    3100:	08010300 	stmdaeq	r1, {r8, r9}
    3104:	000000b6 	strheq	r0, [r0], -r6
    3108:	14020404 	strne	r0, [r2], #-1028	; 0x404
    310c:	000000f0 	strdeq	r0, [r0], -r0	; <UNPREDICTABLE>
    3110:	0008c005 	andeq	ip, r8, r5
    3114:	82e48000 	rschi	r8, r4, #0
    3118:	46050280 	strmi	r0, [r5], -r0, lsl #5
    311c:	80000008 	andhi	r0, r0, r8
    3120:	028082e4 	addeq	r8, r0, #228, 4	; 0x4000000e
    3124:	0008ed05 	andeq	lr, r8, r5, lsl #26
    3128:	82e48400 	rschi	r8, r4, #0, 8
    312c:	08050280 	stmdaeq	r5, {r7, r9}
    3130:	88000008 	stmdahi	r0, {r3}
    3134:	028082e4 	addeq	r8, r0, #228, 4	; 0x4000000e
    3138:	00082905 	andeq	r2, r8, r5, lsl #18
    313c:	82e48c00 	rschi	r8, r4, #0, 24
    3140:	6a050280 	bvs	143b48 <__bss_end__+0x1395d0>
    3144:	90000008 	andls	r0, r0, r8
    3148:	028082e4 	addeq	r8, r0, #228, 4	; 0x4000000e
    314c:	00087805 	andeq	r7, r8, r5, lsl #16
    3150:	82e49400 	rschi	r9, r4, #0, 8
    3154:	58050280 	stmdapl	r5, {r7, r9}
    3158:	98000008 	stmdals	r0, {r3}
    315c:	028082e4 	addeq	r8, r0, #228, 4	; 0x4000000e
    3160:	0008cf05 	andeq	ip, r8, r5, lsl #30
    3164:	82e49c00 	rschi	r9, r4, #0, 24
    3168:	de050280 	cdple	2, 0, cr0, cr5, cr0, {4}
    316c:	a0000008 	andge	r0, r0, r8
    3170:	028082e4 	addeq	r8, r0, #228, 4	; 0x4000000e
    3174:	00081605 	andeq	r1, r8, r5, lsl #12
    3178:	82e4a400 	rschi	sl, r4, #0, 8
    317c:	06000280 	streq	r0, [r0], -r0, lsl #5
    3180:	00000417 	andeq	r0, r0, r7, lsl r4
    3184:	95181b01 	ldrls	r1, [r8, #-2817]	; 0xb01
    3188:	006c0000 	rsbeq	r0, ip, r0
    318c:	9c010000 	stcls	0, cr0, [r1], {-0}
    3190:	000001a5 	andeq	r0, r0, r5, lsr #3
    3194:	00083507 	andeq	r3, r8, r7, lsl #10
    3198:	2c230100 	stfcss	f0, [r3], #-0
    319c:	07000000 	streq	r0, [r0, -r0]
    31a0:	00000886 	andeq	r0, r0, r6, lsl #17
    31a4:	002c2401 	eoreq	r2, ip, r1, lsl #8
    31a8:	64080000 	strvs	r0, [r8], #-0
    31ac:	01007473 	tsteq	r0, r3, ror r4
    31b0:	0001a527 	andeq	sl, r1, r7, lsr #10
    31b4:	73090000 	movwvc	r0, #36864	; 0x9000
    31b8:	01006372 	tsteq	r0, r2, ror r3
    31bc:	0001a528 	andeq	sl, r1, r8, lsr #10
    31c0:	006e0a00 	rsbeq	r0, lr, r0, lsl #20
    31c4:	002c2901 	eoreq	r2, ip, r1, lsl #18
    31c8:	50010000 	andpl	r0, r1, r0
    31cc:	00954c0b 	addseq	r4, r5, fp, lsl #24
    31d0:	00002400 	andeq	r2, r0, r0, lsl #8
    31d4:	00015800 	andeq	r5, r1, r0, lsl #16
    31d8:	00690c00 	rsbeq	r0, r9, r0, lsl #24
    31dc:	00252a01 	eoreq	r2, r5, r1, lsl #20
    31e0:	0df30000 	ldcleq	0, cr0, [r3]
    31e4:	0d000000 	stceq	0, cr0, [r0, #-0]
    31e8:	00009520 	andeq	r9, r0, r0, lsr #10
    31ec:	000001c1 	andeq	r0, r0, r1, asr #3
    31f0:	00952c0e 	addseq	r2, r5, lr, lsl #24
    31f4:	0001c800 	andeq	ip, r1, r0, lsl #16
    31f8:	00017e00 	andeq	r7, r1, r0, lsl #28
    31fc:	51010f00 	tstpl	r1, r0, lsl #30
    3200:	0fff0902 	svceq	0x00ff0902
    3204:	0c055001 	stceq	0, cr5, [r5], {1}
    3208:	2000b21c 	andcs	fp, r0, ip, lsl r2
    320c:	95380e00 	ldrls	r0, [r8, #-3584]!	; 0xe00
    3210:	01c80000 	biceq	r0, r8, r0
    3214:	019b0000 	orrseq	r0, fp, r0
    3218:	010f0000 	mrseq	r0, CPSR
    321c:	ff090251 			; <UNDEFINED> instruction: 0xff090251
    3220:	0550010f 	ldrbeq	r0, [r0, #-271]	; 0x10f
    3224:	00b2200c 	adcseq	r2, r2, ip
    3228:	3c0d0020 	stccc	0, cr0, [sp], {32}
    322c:	c1000095 	swpgt	r0, r5, [r0]	; <UNPREDICTABLE>
    3230:	00000001 	andeq	r0, r0, r1
    3234:	002c0410 	eoreq	r0, ip, r0, lsl r4
    3238:	35070000 	strcc	r0, [r7, #-0]
    323c:	01000008 	tsteq	r0, r8
    3240:	00002c23 	andeq	r2, r0, r3, lsr #24
    3244:	08860700 	stmeq	r6, {r8, r9, sl}
    3248:	24010000 	strcs	r0, [r1], #-0
    324c:	0000002c 	andeq	r0, r0, ip, lsr #32
    3250:	00089b11 	andeq	r9, r8, r1, lsl fp
    3254:	12890300 	addne	r0, r9, #0, 6
    3258:	000008c9 	andeq	r0, r0, r9, asr #17
    325c:	2c139b03 	ldccs	11, cr9, [r3], {3}
    3260:	13000000 	movwne	r0, #0
    3264:	0000002c 	andeq	r0, r0, ip, lsr #32
    3268:	01ad0000 			; <UNDEFINED> instruction: 0x01ad0000
    326c:	00040000 	andeq	r0, r4, r0
    3270:	0000114d 	andeq	r1, r0, sp, asr #2
    3274:	051e0104 	ldreq	r0, [lr, #-260]	; 0x104
    3278:	09010000 	stmdbeq	r1, {}	; <UNPREDICTABLE>
    327c:	89000009 	stmdbhi	r0, {r0, r3}
    3280:	00000005 	andeq	r0, r0, r5
    3284:	00000000 	andeq	r0, r0, r0
    3288:	7f000000 	svcvc	0x00000000
    328c:	0200000e 	andeq	r0, r0, #14
    3290:	6e690504 	cdpvs	5, 6, cr0, cr9, cr4, {0}
    3294:	04030074 	streq	r0, [r3], #-116	; 0x74
    3298:	0001a007 	andeq	sl, r1, r7
    329c:	06010300 	streq	r0, [r1], -r0, lsl #6
    32a0:	000000af 	andeq	r0, r0, pc, lsr #1
    32a4:	f4050203 	vst1.8	{d0-d3}, [r5], r3
    32a8:	03000000 	movweq	r0, #0
    32ac:	01c50504 	biceq	r0, r5, r4, lsl #10
    32b0:	08030000 	stmdaeq	r3, {}	; <UNPREDICTABLE>
    32b4:	0001c005 	andeq	ip, r1, r5
    32b8:	08010300 	stmdaeq	r1, {r8, r9}
    32bc:	000000ad 	andeq	r0, r0, sp, lsr #1
    32c0:	d3070203 	movwle	r0, #29187	; 0x7203
    32c4:	03000000 	movweq	r0, #0
    32c8:	019b0704 	orrseq	r0, fp, r4, lsl #14
    32cc:	08030000 	stmdaeq	r3, {}	; <UNPREDICTABLE>
    32d0:	00019607 	andeq	r9, r1, r7, lsl #12
    32d4:	07040300 	streq	r0, [r4, -r0, lsl #6]
    32d8:	000001b7 			; <UNDEFINED> instruction: 0x000001b7
    32dc:	b6080103 	strlt	r0, [r8], -r3, lsl #2
    32e0:	04000000 	streq	r0, [r0], #-0
    32e4:	000008fb 	strdeq	r0, [r0], -fp
    32e8:	00250e01 	eoreq	r0, r5, r1, lsl #28
    32ec:	95840000 	strls	r0, [r4]
    32f0:	00180000 	andseq	r0, r8, r0
    32f4:	9c010000 	stcls	0, cr0, [r1], {-0}
    32f8:	000000a2 	andeq	r0, r0, r2, lsr #1
    32fc:	0004de05 	andeq	sp, r4, r5, lsl #28
    3300:	2c0f0100 	stfcss	f0, [pc], {-0}
    3304:	12000000 	andne	r0, r0, #0
    3308:	0000000e 	andeq	r0, r0, lr
    330c:	00093d06 	andeq	r3, r9, r6, lsl #26
    3310:	9c170100 	ldflss	f0, [r7], {-0}
    3314:	14000095 	strne	r0, [r0], #-149	; 0x95
    3318:	01000000 	mrseq	r0, (UNDEF: 0)
    331c:	0000c79c 	muleq	r0, ip, r7
    3320:	04de0500 	ldrbeq	r0, [lr], #1280	; 0x500
    3324:	18010000 	stmdane	r1, {}	; <UNPREDICTABLE>
    3328:	0000002c 	andeq	r0, r0, ip, lsr #32
    332c:	00000e31 	andeq	r0, r0, r1, lsr lr
    3330:	06dd0600 	ldrbeq	r0, [sp], r0, lsl #12
    3334:	1f010000 	svcne	0x00010000
    3338:	000095b0 			; <UNDEFINED> instruction: 0x000095b0
    333c:	00000048 	andeq	r0, r0, r8, asr #32
    3340:	01779c01 	cmneq	r7, r1, lsl #24
    3344:	58070000 	stmdapl	r7, {}	; <UNPREDICTABLE>
    3348:	01000009 	tsteq	r0, r9
    334c:	0001772a 	andeq	r7, r1, sl, lsr #14
    3350:	10001c00 	andne	r1, r0, r0, lsl #24
    3354:	09350720 	ldmdbeq	r5!, {r5, r8, r9, sl}
    3358:	2b010000 	blcs	43360 <__bss_end__+0x38de8>
    335c:	00000177 	andeq	r0, r0, r7, ror r1
    3360:	20100024 	andscs	r0, r0, r4, lsr #32
    3364:	00094c07 	andeq	r4, r9, r7, lsl #24
    3368:	772c0100 	strvc	r0, [ip, -r0, lsl #2]!
    336c:	00000001 	andeq	r0, r0, r1
    3370:	085a0000 	ldmdaeq	sl, {}^	; <UNPREDICTABLE>
    3374:	0000091c 	andeq	r0, r0, ip, lsl r9
    3378:	01772d01 	cmneq	r7, r1, lsl #26
    337c:	09200000 	stmdbeq	r0!, {}	; <UNPREDICTABLE>
    3380:	000095b8 			; <UNDEFINED> instruction: 0x000095b8
    3384:	00000079 	andeq	r0, r0, r9, ror r0
    3388:	0095c409 	addseq	ip, r5, r9, lsl #8
    338c:	0000a200 	andeq	sl, r0, r0, lsl #4
    3390:	95cc0a00 	strbls	r0, [ip, #2560]	; 0xa00
    3394:	018d0000 	orreq	r0, sp, r0
    3398:	013a0000 	teqeq	sl, r0
    339c:	010b0000 	mrseq	r0, (UNDEF: 11)
    33a0:	004e0150 	subeq	r0, lr, r0, asr r1
    33a4:	0095d80a 	addseq	sp, r5, sl, lsl #16
    33a8:	00019e00 	andeq	r9, r1, r0, lsl #28
    33ac:	00015a00 	andeq	r5, r1, r0, lsl #20
    33b0:	51010b00 	tstpl	r1, r0, lsl #22
    33b4:	00010c05 	andeq	r0, r1, r5, lsl #24
    33b8:	010b5a00 	tsteq	fp, r0, lsl #20
    33bc:	240c0550 	strcs	r0, [ip], #-1360	; 0x550
    33c0:	00201000 	eoreq	r1, r0, r0
    33c4:	0095e40c 	addseq	lr, r5, ip, lsl #8
    33c8:	00019e00 	andeq	r9, r1, r0, lsl #28
    33cc:	51010b00 	tstpl	r1, r0, lsl #22
    33d0:	00200c05 	eoreq	r0, r0, r5, lsl #24
    33d4:	010b5a00 	tsteq	fp, r0, lsl #20
    33d8:	1c0c0550 	cfstr32ne	mvfx0, [ip], {80}	; 0x50
    33dc:	00201000 	eoreq	r1, r0, r0
    33e0:	00250d00 	eoreq	r0, r5, r0, lsl #26
    33e4:	fe080000 	cdp2	0, 0, cr0, cr8, cr0, {0}
    33e8:	01000008 	tsteq	r0, r8
    33ec:	0001880d 	andeq	r8, r1, sp, lsl #16
    33f0:	2c0d1000 	stccs	0, cr1, [sp], {-0}
    33f4:	0e000000 	cdpeq	0, 0, cr0, cr0, cr0, {0}
    33f8:	000006e8 	andeq	r0, r0, r8, ror #13
    33fc:	019e4f02 	orrseq	r4, lr, r2, lsl #30
    3400:	2c0f0000 	stccs	0, cr0, [pc], {-0}
    3404:	00000000 	andeq	r0, r0, r0
    3408:	0008c910 	andeq	ip, r8, r0, lsl r9
    340c:	0f9b0200 	svceq	0x009b0200
    3410:	0000002c 	andeq	r0, r0, ip, lsr #32
    3414:	00002c0f 	andeq	r2, r0, pc, lsl #24
    3418:	f7000000 			; <UNDEFINED> instruction: 0xf7000000
    341c:	04000001 	streq	r0, [r0], #-1
    3420:	00123b00 	andseq	r3, r2, r0, lsl #22
    3424:	1e010400 	cfcpysne	mvf0, mvf1
    3428:	01000005 	tsteq	r0, r5
    342c:	0000097d 	andeq	r0, r0, sp, ror r9
    3430:	00000589 	andeq	r0, r0, r9, lsl #11
    3434:	000095f8 	strdeq	r9, [r0], -r8
    3438:	00000098 	muleq	r0, r8, r0
    343c:	00000f25 	andeq	r0, r0, r5, lsr #30
    3440:	69050402 	stmdbvs	r5, {r1, sl}
    3444:	0300746e 	movweq	r7, #1134	; 0x46e
    3448:	01a00704 	lsleq	r0, r4, #14
    344c:	01030000 	mrseq	r0, (UNDEF: 3)
    3450:	0000af06 	andeq	sl, r0, r6, lsl #30
    3454:	05020300 	streq	r0, [r2, #-768]	; 0x300
    3458:	000000f4 	strdeq	r0, [r0], -r4
    345c:	c5050403 	strgt	r0, [r5, #-1027]	; 0x403
    3460:	03000001 	movweq	r0, #1
    3464:	01c00508 	biceq	r0, r0, r8, lsl #10
    3468:	01030000 	mrseq	r0, (UNDEF: 3)
    346c:	0000ad08 	andeq	sl, r0, r8, lsl #26
    3470:	07020300 	streq	r0, [r2, -r0, lsl #6]
    3474:	000000d3 	ldrdeq	r0, [r0], -r3
    3478:	9b070403 	blls	1c448c <__bss_end__+0x1b9f14>
    347c:	03000001 	movweq	r0, #1
    3480:	01960708 	orrseq	r0, r6, r8, lsl #14
    3484:	04030000 	streq	r0, [r3], #-0
    3488:	0001b707 	andeq	fp, r1, r7, lsl #14
    348c:	08010300 	stmdaeq	r1, {r8, r9}
    3490:	000000b6 	strheq	r0, [r0], -r6
    3494:	00099b04 	andeq	r9, r9, r4, lsl #22
    3498:	f8050100 			; <UNDEFINED> instruction: 0xf8050100
    349c:	1c000095 	stcne	0, cr0, [r0], {149}	; 0x95
    34a0:	01000000 	mrseq	r0, (UNDEF: 0)
    34a4:	00009e9c 	muleq	r0, ip, lr
    34a8:	09950500 	ldmibeq	r5, {r8, sl}
    34ac:	05010000 	streq	r0, [r1, #-0]
    34b0:	0000002c 	andeq	r0, r0, ip, lsr #32
    34b4:	00000e5b 	andeq	r0, r0, fp, asr lr
    34b8:	09600600 	stmdbeq	r0!, {r9, sl}^
    34bc:	11010000 	mrsne	r0, (UNDEF: 1)
    34c0:	0000002c 	andeq	r0, r0, ip, lsr #32
    34c4:	00009614 	andeq	r9, r0, r4, lsl r6
    34c8:	00000014 	andeq	r0, r0, r4, lsl r0
    34cc:	00cb9c01 	sbceq	r9, fp, r1, lsl #24
    34d0:	20070000 	andcs	r0, r7, r0
    34d4:	de000096 	mcrle	0, 0, r0, cr0, cr6, {4}
    34d8:	08000001 	stmdaeq	r0, {r0}
    34dc:	0c055001 	stceq	0, cr5, [r5], {1}
    34e0:	20003004 	andcs	r3, r0, r4
    34e4:	b1060000 	mrslt	r0, (UNDEF: 6)
    34e8:	01000009 	tsteq	r0, r9
    34ec:	00002c16 	andeq	r2, r0, r6, lsl ip
    34f0:	00962800 	addseq	r2, r6, r0, lsl #16
    34f4:	00001c00 	andeq	r1, r0, r0, lsl #24
    34f8:	0d9c0100 	ldfeqs	f0, [ip]
    34fc:	09000001 	stmdbeq	r0, {r0}
    3500:	1a010075 	bne	436dc <__bss_end__+0x39164>
    3504:	0000002c 	andeq	r0, r0, ip, lsr #32
    3508:	00000e8f 	andeq	r0, r0, pc, lsl #29
    350c:	0096300a 	addseq	r3, r6, sl
    3510:	0001f300 	andeq	pc, r1, r0, lsl #6
    3514:	96340a00 	ldrtls	r0, [r4], -r0, lsl #20
    3518:	009e0000 	addseq	r0, lr, r0
    351c:	3c0a0000 	stccc	0, cr0, [sl], {-0}
    3520:	f3000096 	vqadd.u8	d0, d16, d6
    3524:	00000001 	andeq	r0, r0, r1
    3528:	0009a804 	andeq	sl, r9, r4, lsl #16
    352c:	441f0100 	ldrmi	r0, [pc], #-256	; 3534 <__code_start__-0x4acc>
    3530:	24000096 	strcs	r0, [r0], #-150	; 0x96
    3534:	01000000 	mrseq	r0, (UNDEF: 0)
    3538:	00016b9c 	muleq	r1, ip, fp
    353c:	73750b00 	cmnvc	r5, #0, 22
    3540:	2c1f0100 	ldfcss	f0, [pc], {-0}
    3544:	ad000000 	stcge	0, cr0, [r0, #-0]
    3548:	0c00000e 	stceq	0, cr0, [r0], {14}
    354c:	01006272 	tsteq	r0, r2, ror r2
    3550:	00002c20 	andeq	r2, r0, r0, lsr #24
    3554:	0d540100 	ldfeqe	f0, [r4, #-0]
    3558:	00009654 	andeq	r9, r0, r4, asr r6
    355c:	00000010 	andeq	r0, r0, r0, lsl r0
    3560:	00000161 	andeq	r0, r0, r1, ror #2
    3564:	00617209 	rsbeq	r7, r1, r9, lsl #4
    3568:	002c2201 	eoreq	r2, ip, r1, lsl #4
    356c:	0ecb0000 	cdpeq	0, 12, cr0, cr11, cr0, {0}
    3570:	580a0000 	stmdapl	sl, {}	; <UNPREDICTABLE>
    3574:	cb000096 	blgt	37d4 <__code_start__-0x482c>
    3578:	00000000 	andeq	r0, r0, r0
    357c:	0096500a 	addseq	r5, r6, sl
    3580:	0000cb00 	andeq	ip, r0, r0, lsl #22
    3584:	e8040000 	stmda	r4, {}	; <UNPREDICTABLE>
    3588:	01000006 	tsteq	r0, r6
    358c:	00966828 	addseq	r6, r6, r8, lsr #16
    3590:	00001400 	andeq	r1, r0, r0, lsl #8
    3594:	a49c0100 	ldrge	r0, [ip], #256	; 0x100
    3598:	0b000001 	bleq	35a4 <__code_start__-0x4a5c>
    359c:	0100736d 	tsteq	r0, sp, ror #6
    35a0:	00002c28 	andeq	r2, r0, r8, lsr #24
    35a4:	000ede00 	andeq	sp, lr, r0, lsl #28
    35a8:	96780700 	ldrbtls	r0, [r8], -r0, lsl #14
    35ac:	010d0000 	mrseq	r0, (UNDEF: 13)
    35b0:	01080000 	mrseq	r0, (UNDEF: 8)
    35b4:	01f30750 	mvnseq	r0, r0, asr r7
    35b8:	03e80a50 	mvneq	r0, #80, 20	; 0x50000
    35bc:	0400001e 	streq	r0, [r0], #-30
    35c0:	00000973 	andeq	r0, r0, r3, ror r9
    35c4:	967c2b01 	ldrbtls	r2, [ip], -r1, lsl #22
    35c8:	00140000 	andseq	r0, r4, r0
    35cc:	9c010000 	stcls	0, cr0, [r1], {-0}
    35d0:	000001de 	ldrdeq	r0, [r0], -lr
    35d4:	6365730b 	cmnvs	r5, #738197504	; 0x2c000000
    35d8:	2c2b0100 	stfcss	f0, [fp], #-0
    35dc:	ff000000 			; <UNDEFINED> instruction: 0xff000000
    35e0:	0700000e 	streq	r0, [r0, -lr]
    35e4:	0000968c 	andeq	r9, r0, ip, lsl #13
    35e8:	0000016b 	andeq	r0, r0, fp, ror #2
    35ec:	07500108 	ldrbeq	r0, [r0, -r8, lsl #2]
    35f0:	0a5001f3 	beq	1403dc4 <__bss_end__+0x13f984c>
    35f4:	001e03e8 	andseq	r0, lr, r8, ror #7
    35f8:	098f0e00 	stmibeq	pc, {r9, sl, fp}	; <UNPREDICTABLE>
    35fc:	a7020000 	strge	r0, [r2, -r0]
    3600:	0000002c 	andeq	r0, r0, ip, lsr #32
    3604:	000001f3 	strdeq	r0, [r0], -r3
    3608:	00002c0f 	andeq	r2, r0, pc, lsl #24
    360c:	9b100000 	blls	403614 <__bss_end__+0x3f909c>
    3610:	02000008 	andeq	r0, r0, #8
    3614:	0cc50089 	stcleq	0, cr0, [r5], {137}	; 0x89
    3618:	00040000 	andeq	r0, r4, r0
    361c:	00001331 	andeq	r1, r0, r1, lsr r3
    3620:	0d5c0104 	ldfeqe	f0, [ip, #-16]
    3624:	bf0c0000 	svclt	0x000c0000
    3628:	da00000a 	ble	3658 <__code_start__-0x49a8>
    362c:	f400000a 	vst4.8	{d0-d3}, [r0], sl
    3630:	78000096 	stmdavc	r0, {r1, r2, r4, r7}
    3634:	d7000001 	strle	r0, [r0, -r1]
    3638:	0200000f 	andeq	r0, r0, #15
    363c:	6e690504 	cdpvs	5, 6, cr0, cr9, cr4, {0}
    3640:	04030074 	streq	r0, [r3], #-116	; 0x74
    3644:	0001a007 	andeq	sl, r1, r7
    3648:	002c0400 	eoreq	r0, ip, r0, lsl #8
    364c:	01030000 	mrseq	r0, (UNDEF: 3)
    3650:	0000af06 	andeq	sl, r0, r6, lsl #30
    3654:	05020300 	streq	r0, [r2, #-768]	; 0x300
    3658:	000000f4 	strdeq	r0, [r0], -r4
    365c:	c5050403 	strgt	r0, [r5, #-1027]	; 0x403
    3660:	03000001 	movweq	r0, #1
    3664:	01c00508 	biceq	r0, r0, r8, lsl #10
    3668:	01030000 	mrseq	r0, (UNDEF: 3)
    366c:	0000ad08 	andeq	sl, r0, r8, lsl #26
    3670:	07020300 	streq	r0, [r2, -r0, lsl #6]
    3674:	000000d3 	ldrdeq	r0, [r0], -r3
    3678:	9b070403 	blls	1c468c <__bss_end__+0x1ba114>
    367c:	03000001 	movweq	r0, #1
    3680:	01960708 	orrseq	r0, r6, r8, lsl #14
    3684:	71050000 	mrsvc	r0, (UNDEF: 5)
    3688:	0200000c 	andeq	r0, r0, #12
    368c:	00002507 	andeq	r2, r0, r7, lsl #10
    3690:	0c5b0500 	cfldr64eq	mvdx0, [fp], {-0}
    3694:	2c030000 	stccs	0, cr0, [r3], {-0}
    3698:	00000046 	andeq	r0, r0, r6, asr #32
    369c:	000d3705 	andeq	r3, sp, r5, lsl #14
    36a0:	46720300 	ldrbtmi	r0, [r2], -r0, lsl #6
    36a4:	06000000 	streq	r0, [r0], -r0
    36a8:	00000bff 	strdeq	r0, [r0], -pc	; <UNPREDICTABLE>
    36ac:	2c016504 	cfstr32cs	mvfx6, [r1], {4}
    36b0:	07000000 	streq	r0, [r0, -r0]
    36b4:	bca60304 	stclt	3, cr0, [r6], #16
    36b8:	08000000 	stmdaeq	r0, {}	; <UNPREDICTABLE>
    36bc:	00000bea 	andeq	r0, r0, sl, ror #23
    36c0:	0091a803 	addseq	sl, r1, r3, lsl #16
    36c4:	92080000 	andls	r0, r8, #0
    36c8:	0300000b 	movweq	r0, #11
    36cc:	0000bca9 	andeq	fp, r0, r9, lsr #25
    36d0:	54090000 	strpl	r0, [r9], #-0
    36d4:	cc000000 	stcgt	0, cr0, [r0], {-0}
    36d8:	0a000000 	beq	36e0 <__code_start__-0x4920>
    36dc:	000000cc 	andeq	r0, r0, ip, asr #1
    36e0:	04030003 	streq	r0, [r3], #-3
    36e4:	0001b707 	andeq	fp, r1, r7, lsl #14
    36e8:	03080b00 	movweq	r0, #35584	; 0x8b00
    36ec:	0000f4a3 	andeq	pc, r0, r3, lsr #9
    36f0:	0d1c0c00 	ldceq	12, cr0, [ip, #-0]
    36f4:	a5030000 	strge	r0, [r3, #-0]
    36f8:	00000025 	andeq	r0, r0, r5, lsr #32
    36fc:	0d240c00 	stceq	12, cr0, [r4, #-0]
    3700:	aa030000 	bge	c3708 <__bss_end__+0xb9190>
    3704:	0000009d 	muleq	r0, sp, r0
    3708:	af050004 	svcge	0x00050004
    370c:	0300000c 	movweq	r0, #12
    3710:	0000d3ab 	andeq	sp, r0, fp, lsr #7
    3714:	0b5b0500 	bleq	16c4b1c <__bss_end__+0x16ba5a4>
    3718:	af030000 	svcge	0x00030000
    371c:	00000070 	andeq	r0, r0, r0, ror r0
    3720:	040e040d 	streq	r0, [lr], #-1037	; 0x40d
    3724:	00000112 	andeq	r0, r0, r2, lsl r1
    3728:	b6080103 	strlt	r0, [r8], -r3, lsl #2
    372c:	0f000000 	svceq	0x00000000
    3730:	00000112 	andeq	r0, r0, r2, lsl r1
    3734:	000dd905 	andeq	sp, sp, r5, lsl #18
    3738:	62160500 	andsvs	r0, r6, #0, 10
    373c:	10000000 	andne	r0, r0, r0
    3740:	00000b6c 	andeq	r0, r0, ip, ror #22
    3744:	7c2d0518 	cfstr32vc	mvfx0, [sp], #-96	; 0xffffffa0
    3748:	0c000001 	stceq	0, cr0, [r0], {1}
    374c:	00000cd0 	ldrdeq	r0, [r0], -r0	; <UNPREDICTABLE>
    3750:	017c2f05 	cmneq	ip, r5, lsl #30
    3754:	11000000 	mrsne	r0, (UNDEF: 0)
    3758:	05006b5f 	streq	r6, [r0, #-2911]	; 0xb5f
    375c:	00002530 	andeq	r2, r0, r0, lsr r5
    3760:	070c0400 	streq	r0, [ip, -r0, lsl #8]
    3764:	0500000d 	streq	r0, [r0, #-13]
    3768:	00002530 	andeq	r2, r0, r0, lsr r5
    376c:	470c0800 	strmi	r0, [ip, -r0, lsl #16]
    3770:	0500000b 	streq	r0, [r0, #-11]
    3774:	00002530 	andeq	r2, r0, r0, lsr r5
    3778:	200c0c00 	andcs	r0, ip, r0, lsl #24
    377c:	0500000e 	streq	r0, [r0, #-14]
    3780:	00002530 	andeq	r2, r0, r0, lsr r5
    3784:	5f111000 	svcpl	0x00111000
    3788:	31050078 	tstcc	r5, r8, ror r0
    378c:	00000182 	andeq	r0, r0, r2, lsl #3
    3790:	040e0014 	streq	r0, [lr], #-20
    3794:	00000129 	andeq	r0, r0, r9, lsr #2
    3798:	00011e09 	andeq	r1, r1, r9, lsl #28
    379c:	00019200 	andeq	r9, r1, r0, lsl #4
    37a0:	00cc0a00 	sbceq	r0, ip, r0, lsl #20
    37a4:	00000000 	andeq	r0, r0, r0
    37a8:	000b8d10 	andeq	r8, fp, r0, lsl sp
    37ac:	35052400 	strcc	r2, [r5, #-1024]	; 0x400
    37b0:	0000020b 	andeq	r0, r0, fp, lsl #4
    37b4:	000a450c 	andeq	r4, sl, ip, lsl #10
    37b8:	25370500 	ldrcs	r0, [r7, #-1280]!	; 0x500
    37bc:	00000000 	andeq	r0, r0, r0
    37c0:	000d3f0c 	andeq	r3, sp, ip, lsl #30
    37c4:	25380500 	ldrcs	r0, [r8, #-1280]!	; 0x500
    37c8:	04000000 	streq	r0, [r0], #-0
    37cc:	000a730c 	andeq	r7, sl, ip, lsl #6
    37d0:	25390500 	ldrcs	r0, [r9, #-1280]!	; 0x500
    37d4:	08000000 	stmdaeq	r0, {}	; <UNPREDICTABLE>
    37d8:	000f100c 	andeq	r1, pc, ip
    37dc:	253a0500 	ldrcs	r0, [sl, #-1280]!	; 0x500
    37e0:	0c000000 	stceq	0, cr0, [r0], {-0}
    37e4:	000c3f0c 	andeq	r3, ip, ip, lsl #30
    37e8:	253b0500 	ldrcs	r0, [fp, #-1280]!	; 0x500
    37ec:	10000000 	andne	r0, r0, r0
    37f0:	000c140c 	andeq	r1, ip, ip, lsl #8
    37f4:	253c0500 	ldrcs	r0, [ip, #-1280]!	; 0x500
    37f8:	14000000 	strne	r0, [r0], #-0
    37fc:	000e250c 	andeq	r2, lr, ip, lsl #10
    3800:	253d0500 	ldrcs	r0, [sp, #-1280]!	; 0x500
    3804:	18000000 	stmdane	r0, {}	; <UNPREDICTABLE>
    3808:	000c910c 	andeq	r9, ip, ip, lsl #2
    380c:	253e0500 	ldrcs	r0, [lr, #-1280]!	; 0x500
    3810:	1c000000 	stcne	0, cr0, [r0], {-0}
    3814:	000ed70c 	andeq	sp, lr, ip, lsl #14
    3818:	253f0500 	ldrcs	r0, [pc, #-1280]!	; 3320 <__code_start__-0x4ce0>
    381c:	20000000 	andcs	r0, r0, r0
    3820:	0a821200 	beq	fe088028 <__bss_end__+0xfe07dab0>
    3824:	01080000 	mrseq	r0, (UNDEF: 8)
    3828:	024b4805 	subeq	r4, fp, #327680	; 0x50000
    382c:	2e0c0000 	cdpcs	0, 0, cr0, cr12, cr0, {0}
    3830:	0500000b 	streq	r0, [r0, #-11]
    3834:	00024b49 	andeq	r4, r2, r9, asr #22
    3838:	c00c0000 	andgt	r0, ip, r0
    383c:	05000009 	streq	r0, [r0, #-9]
    3840:	00024b4a 	andeq	r4, r2, sl, asr #22
    3844:	cb138000 	blgt	4e384c <__bss_end__+0x4d92d4>
    3848:	0500000d 	streq	r0, [r0, #-13]
    384c:	00011e4c 	andeq	r1, r1, ip, asr #28
    3850:	13010000 	movwne	r0, #4096	; 0x1000
    3854:	00000aa7 	andeq	r0, r0, r7, lsr #21
    3858:	011e4f05 	tsteq	lr, r5, lsl #30
    385c:	01040000 	mrseq	r0, (UNDEF: 4)
    3860:	010a0900 	tsteq	sl, r0, lsl #18
    3864:	025b0000 	subseq	r0, fp, #0
    3868:	cc0a0000 	stcgt	0, cr0, [sl], {-0}
    386c:	1f000000 	svcne	0x00000000
    3870:	0c481200 	sfmeq	f1, 2, [r8], {-0}
    3874:	01900000 	orrseq	r0, r0, r0
    3878:	02995b05 	addseq	r5, r9, #5120	; 0x1400
    387c:	d00c0000 	andle	r0, ip, r0
    3880:	0500000c 	streq	r0, [r0, #-12]
    3884:	0002995c 	andeq	r9, r2, ip, asr r9
    3888:	e80c0000 	stmda	ip, {}	; <UNPREDICTABLE>
    388c:	0500000c 	streq	r0, [r0, #-12]
    3890:	0000255d 	andeq	r2, r0, sp, asr r5
    3894:	420c0400 	andmi	r0, ip, #0, 8
    3898:	0500000b 	streq	r0, [r0, #-11]
    389c:	00029f5f 	andeq	r9, r2, pc, asr pc
    38a0:	820c0800 	andhi	r0, ip, #0, 16
    38a4:	0500000a 	streq	r0, [r0, #-10]
    38a8:	00020b60 	andeq	r0, r2, r0, ror #22
    38ac:	0e008800 	cdpeq	8, 0, cr8, cr0, cr0, {0}
    38b0:	00025b04 	andeq	r5, r2, r4, lsl #22
    38b4:	02af0900 	adceq	r0, pc, #0, 18
    38b8:	02af0000 	adceq	r0, pc, #0
    38bc:	cc0a0000 	stcgt	0, cr0, [sl], {-0}
    38c0:	1f000000 	svcne	0x00000000
    38c4:	b5040e00 	strlt	r0, [r4, #-3584]	; 0xe00
    38c8:	14000002 	strne	r0, [r0], #-2
    38cc:	000c9b10 	andeq	r9, ip, r0, lsl fp
    38d0:	73050800 	movwvc	r0, #22528	; 0x5800
    38d4:	000002db 	ldrdeq	r0, [r0], -fp
    38d8:	000a680c 	andeq	r6, sl, ip, lsl #16
    38dc:	db740500 	blle	1d04ce4 <__bss_end__+0x1cfa76c>
    38e0:	00000002 	andeq	r0, r0, r2
    38e4:	0009cc0c 	andeq	ip, r9, ip, lsl #24
    38e8:	25750500 	ldrbcs	r0, [r5, #-1280]!	; 0x500
    38ec:	04000000 	streq	r0, [r0], #-0
    38f0:	54040e00 	strpl	r0, [r4], #-3584	; 0xe00
    38f4:	10000000 	andne	r0, r0, r0
    38f8:	00000cba 			; <UNDEFINED> instruction: 0x00000cba
    38fc:	0bb30568 	bleq	fecc4ea4 <__bss_end__+0xfecba92c>
    3900:	11000004 	tstne	r0, r4
    3904:	0500705f 	streq	r7, [r0, #-95]	; 0x5f
    3908:	0002dbb4 			; <UNDEFINED> instruction: 0x0002dbb4
    390c:	5f110000 	svcpl	0x00110000
    3910:	b5050072 	strlt	r0, [r5, #-114]	; 0x72
    3914:	00000025 	andeq	r0, r0, r5, lsr #32
    3918:	775f1104 	ldrbvc	r1, [pc, -r4, lsl #2]
    391c:	25b60500 	ldrcs	r0, [r6, #1280]!	; 0x500
    3920:	08000000 	stmdaeq	r0, {}	; <UNPREDICTABLE>
    3924:	000aa00c 	andeq	sl, sl, ip
    3928:	3fb70500 	svccc	0x00b70500
    392c:	0c000000 	stceq	0, cr0, [r0], {-0}
    3930:	000bb30c 	andeq	fp, fp, ip, lsl #6
    3934:	3fb80500 	svccc	0x00b80500
    3938:	0e000000 	cdpeq	0, 0, cr0, cr0, cr0, {0}
    393c:	66625f11 	uqadd16vs	r5, r2, r1
    3940:	b6b90500 	ldrtlt	r0, [r9], r0, lsl #10
    3944:	10000002 	andne	r0, r0, r2
    3948:	000a0f0c 	andeq	r0, sl, ip, lsl #30
    394c:	25ba0500 	ldrcs	r0, [sl, #1280]!	; 0x500
    3950:	18000000 	stmdane	r0, {}	; <UNPREDICTABLE>
    3954:	000a900c 	andeq	r9, sl, ip
    3958:	0ac10500 	beq	ff044d60 <__bss_end__+0xff03a7e8>
    395c:	1c000001 	stcne	0, cr0, [r0], {1}
    3960:	000f370c 	andeq	r3, pc, ip, lsl #14
    3964:	66c30500 	strbvs	r0, [r3], r0, lsl #10
    3968:	20000005 	andcs	r0, r0, r5
    396c:	000f510c 	andeq	r5, pc, ip, lsl #2
    3970:	90c50500 	sbcls	r0, r5, r0, lsl #10
    3974:	24000005 	strcs	r0, [r0], #-5
    3978:	000d2c0c 	andeq	r2, sp, ip, lsl #24
    397c:	b4c80500 	strblt	r0, [r8], #1280	; 0x500
    3980:	28000005 	stmdacs	r0, {r0, r2}
    3984:	000ef10c 	andeq	pc, lr, ip, lsl #2
    3988:	cec90500 	cdpgt	5, 12, cr0, cr9, cr0, {0}
    398c:	2c000005 	stccs	0, cr0, [r0], {5}
    3990:	62755f11 	rsbsvs	r5, r5, #17, 30	; 0x44
    3994:	b6cc0500 	strblt	r0, [ip], r0, lsl #10
    3998:	30000002 	andcc	r0, r0, r2
    399c:	70755f11 	rsbsvc	r5, r5, r1, lsl pc
    39a0:	dbcd0500 	blle	ff344da8 <__bss_end__+0xff33a830>
    39a4:	38000002 	stmdacc	r0, {r1}
    39a8:	72755f11 	rsbsvc	r5, r5, #17, 30	; 0x44
    39ac:	25ce0500 	strbcs	r0, [lr, #1280]	; 0x500
    39b0:	3c000000 	stccc	0, cr0, [r0], {-0}
    39b4:	000a530c 	andeq	r5, sl, ip, lsl #6
    39b8:	d4d10500 	ldrble	r0, [r1], #1280	; 0x500
    39bc:	40000005 	andmi	r0, r0, r5
    39c0:	000e9c0c 	andeq	r9, lr, ip, lsl #24
    39c4:	e4d20500 	ldrb	r0, [r2], #1280	; 0x500
    39c8:	43000005 	movwmi	r0, #5
    39cc:	626c5f11 	rsbvs	r5, ip, #17, 30	; 0x44
    39d0:	b6d50500 	ldrblt	r0, [r5], r0, lsl #10
    39d4:	44000002 	strmi	r0, [r0], #-2
    39d8:	000ab60c 	andeq	fp, sl, ip, lsl #12
    39dc:	25d80500 	ldrbcs	r0, [r8, #1280]	; 0x500
    39e0:	4c000000 	stcmi	0, cr0, [r0], {-0}
    39e4:	000c1e0c 	andeq	r1, ip, ip, lsl #28
    39e8:	7bd90500 	blvc	ff644df0 <__bss_end__+0xff63a878>
    39ec:	50000000 	andpl	r0, r0, r0
    39f0:	000e870c 	andeq	r8, lr, ip, lsl #14
    39f4:	29dc0500 	ldmibcs	ip, {r8, sl}^
    39f8:	54000004 	strpl	r0, [r0], #-4
    39fc:	000c060c 	andeq	r0, ip, ip, lsl #12
    3a00:	ffe00500 			; <UNDEFINED> instruction: 0xffe00500
    3a04:	58000000 	stmdapl	r0, {}	; <UNPREDICTABLE>
    3a08:	000cc20c 	andeq	ip, ip, ip, lsl #4
    3a0c:	f4e20500 	vld2.16	{d16[0],d17[0]}, [r2], r0
    3a10:	5c000000 	stcpl	0, cr0, [r0], {-0}
    3a14:	000c0c0c 	andeq	r0, ip, ip, lsl #24
    3a18:	25e30500 	strbcs	r0, [r3, #1280]!	; 0x500
    3a1c:	64000000 	strvs	r0, [r0], #-0
    3a20:	00251500 	eoreq	r1, r5, r0, lsl #10
    3a24:	04290000 	strteq	r0, [r9], #-0
    3a28:	29160000 	ldmdbcs	r6, {}	; <UNPREDICTABLE>
    3a2c:	16000004 	strne	r0, [r0], -r4
    3a30:	0000010a 	andeq	r0, r0, sl, lsl #2
    3a34:	00010c16 	andeq	r0, r1, r6, lsl ip
    3a38:	00251600 	eoreq	r1, r5, r0, lsl #12
    3a3c:	0e000000 	cdpeq	0, 0, cr0, cr0, cr0, {0}
    3a40:	00043404 	andeq	r3, r4, r4, lsl #8
    3a44:	04290f00 	strteq	r0, [r9], #-3840	; 0xf00
    3a48:	0f170000 	svceq	0x00170000
    3a4c:	2800000d 	stmdacs	r0, {r0, r2, r3}
    3a50:	02380504 	eorseq	r0, r8, #4, 10	; 0x1000000
    3a54:	00000566 	andeq	r0, r0, r6, ror #10
    3a58:	000c8a18 	andeq	r8, ip, r8, lsl sl
    3a5c:	023a0500 	eorseq	r0, sl, #0, 10
    3a60:	00000025 	andeq	r0, r0, r5, lsr #32
    3a64:	0aaf1800 	beq	febc9a6c <__bss_end__+0xfebbf4f4>
    3a68:	3f050000 	svccc	0x00050000
    3a6c:	00063b02 	andeq	r3, r6, r2, lsl #22
    3a70:	a3180400 	tstge	r8, #0, 8
    3a74:	0500000b 	streq	r0, [r0, #-11]
    3a78:	063b023f 			; <UNDEFINED> instruction: 0x063b023f
    3a7c:	18080000 	stmdane	r8, {}	; <UNPREDICTABLE>
    3a80:	00000b64 	andeq	r0, r0, r4, ror #22
    3a84:	3b023f05 	blcc	936a0 <__bss_end__+0x89128>
    3a88:	0c000006 	stceq	0, cr0, [r0], {6}
    3a8c:	000ce318 	andeq	lr, ip, r8, lsl r3
    3a90:	02410500 	subeq	r0, r1, #0, 10
    3a94:	00000025 	andeq	r0, r0, r5, lsr #32
    3a98:	09da1810 	ldmibeq	sl, {r4, fp, ip}^
    3a9c:	42050000 	andmi	r0, r5, #0
    3aa0:	00081d02 	andeq	r1, r8, r2, lsl #26
    3aa4:	01181400 	tsteq	r8, r0, lsl #8
    3aa8:	0500000e 	streq	r0, [r0, #-14]
    3aac:	00250244 	eoreq	r0, r5, r4, asr #4
    3ab0:	18300000 	ldmdane	r0!, {}	; <UNPREDICTABLE>
    3ab4:	00000ced 	andeq	r0, r0, sp, ror #25
    3ab8:	8a024505 	bhi	94ed4 <__bss_end__+0x8a95c>
    3abc:	34000005 	strcc	r0, [r0], #-5
    3ac0:	000c5018 	andeq	r5, ip, r8, lsl r0
    3ac4:	02470500 	subeq	r0, r7, #0, 10
    3ac8:	00000025 	andeq	r0, r0, r5, lsr #32
    3acc:	0cfd1838 	ldcleq	8, cr1, [sp], #224	; 0xe0
    3ad0:	49050000 	stmdbmi	r5, {}	; <UNPREDICTABLE>
    3ad4:	00083802 	andeq	r3, r8, r2, lsl #16
    3ad8:	e2183c00 	ands	r3, r8, #0, 24
    3adc:	0500000b 	streq	r0, [r0, #-11]
    3ae0:	017c024c 	cmneq	ip, ip, asr #4
    3ae4:	18400000 	stmdane	r0, {}^	; <UNPREDICTABLE>
    3ae8:	00000b83 	andeq	r0, r0, r3, lsl #23
    3aec:	25024d05 	strcs	r4, [r2, #-3333]	; 0xd05
    3af0:	44000000 	strmi	r0, [r0], #-0
    3af4:	000f0b18 	andeq	r0, pc, r8, lsl fp	; <UNPREDICTABLE>
    3af8:	024e0500 	subeq	r0, lr, #0, 10
    3afc:	0000017c 	andeq	r0, r0, ip, ror r1
    3b00:	0c671848 	stcleq	8, cr1, [r7], #-288	; 0xfffffee0
    3b04:	4f050000 	svcmi	0x00050000
    3b08:	00083e02 	andeq	r3, r8, r2, lsl #28
    3b0c:	ab184c00 	blge	616b14 <__bss_end__+0x60c59c>
    3b10:	0500000b 	streq	r0, [r0, #-11]
    3b14:	00250252 	eoreq	r0, r5, r2, asr r2
    3b18:	18500000 	ldmdane	r0, {}^	; <UNPREDICTABLE>
    3b1c:	00000ad2 	ldrdeq	r0, [r0], -r2
    3b20:	0c025305 	stceq	3, cr5, [r2], {5}
    3b24:	54000001 	strpl	r0, [r0], #-1
    3b28:	000c8318 	andeq	r8, ip, r8, lsl r3
    3b2c:	02760500 	rsbseq	r0, r6, #0, 10
    3b30:	000007fb 	strdeq	r0, [r0], -fp
    3b34:	0c481958 	mcrreq	9, 5, r1, r8, cr8
    3b38:	7a050000 	bvc	143b40 <__bss_end__+0x1395c8>
    3b3c:	00029902 	andeq	r9, r2, r2, lsl #18
    3b40:	19014800 	stmdbne	r1, {fp, lr}
    3b44:	00000bc0 	andeq	r0, r0, r0, asr #23
    3b48:	5b027b05 	blpl	a2764 <__bss_end__+0x981ec>
    3b4c:	4c000002 	stcmi	0, cr0, [r0], {2}
    3b50:	0e6d1901 	cdpeq	9, 6, cr1, cr13, cr1, {0}
    3b54:	7f050000 	svcvc	0x00050000
    3b58:	00084f02 	andeq	r4, r8, r2, lsl #30
    3b5c:	1902dc00 	stmdbne	r2, {sl, fp, ip, lr, pc}
    3b60:	00000a98 	muleq	r0, r8, sl
    3b64:	00028405 	andeq	r8, r2, r5, lsl #8
    3b68:	e0000006 	and	r0, r0, r6
    3b6c:	0a7d1902 	beq	1f49f7c <__bss_end__+0x1f3fa04>
    3b70:	85050000 	strhi	r0, [r5, #-0]
    3b74:	00085b02 	andeq	r5, r8, r2, lsl #22
    3b78:	0002ec00 	andeq	lr, r2, r0, lsl #24
    3b7c:	040b040e 	streq	r0, [fp], #-1038	; 0x40e
    3b80:	25150000 	ldrcs	r0, [r5, #-0]
    3b84:	8a000000 	bhi	3b8c <__code_start__-0x4474>
    3b88:	16000005 	strne	r0, [r0], -r5
    3b8c:	00000429 	andeq	r0, r0, r9, lsr #8
    3b90:	00010a16 	andeq	r0, r1, r6, lsl sl
    3b94:	058a1600 	streq	r1, [sl, #1536]	; 0x600
    3b98:	25160000 	ldrcs	r0, [r6, #-0]
    3b9c:	00000000 	andeq	r0, r0, r0
    3ba0:	0119040e 	tsteq	r9, lr, lsl #8
    3ba4:	040e0000 	streq	r0, [lr], #-0
    3ba8:	0000056c 	andeq	r0, r0, ip, ror #10
    3bac:	00008615 	andeq	r8, r0, r5, lsl r6
    3bb0:	0005b400 	andeq	fp, r5, r0, lsl #8
    3bb4:	04291600 	strteq	r1, [r9], #-1536	; 0x600
    3bb8:	0a160000 	beq	583bc0 <__bss_end__+0x579648>
    3bbc:	16000001 	strne	r0, [r0], -r1
    3bc0:	00000086 	andeq	r0, r0, r6, lsl #1
    3bc4:	00002516 	andeq	r2, r0, r6, lsl r5
    3bc8:	040e0000 	streq	r0, [lr], #-0
    3bcc:	00000596 	muleq	r0, r6, r5
    3bd0:	00002515 	andeq	r2, r0, r5, lsl r5
    3bd4:	0005ce00 	andeq	ip, r5, r0, lsl #28
    3bd8:	04291600 	strteq	r1, [r9], #-1536	; 0x600
    3bdc:	0a160000 	beq	583be4 <__bss_end__+0x57966c>
    3be0:	00000001 	andeq	r0, r0, r1
    3be4:	05ba040e 	ldreq	r0, [sl, #1038]!	; 0x40e
    3be8:	54090000 	strpl	r0, [r9], #-0
    3bec:	e4000000 	str	r0, [r0], #-0
    3bf0:	0a000005 	beq	3c0c <__code_start__-0x43f4>
    3bf4:	000000cc 	andeq	r0, r0, ip, asr #1
    3bf8:	54090002 	strpl	r0, [r9], #-2
    3bfc:	f4000000 	vst4.8	{d0-d3}, [r0], r0
    3c00:	0a000005 	beq	3c1c <__code_start__-0x43e4>
    3c04:	000000cc 	andeq	r0, r0, ip, asr #1
    3c08:	a8060000 	stmdage	r6, {}	; <UNPREDICTABLE>
    3c0c:	0500000c 	streq	r0, [r0, #-12]
    3c10:	02e1011d 	rsceq	r0, r1, #1073741831	; 0x40000007
    3c14:	2f1a0000 	svccs	0x001a0000
    3c18:	0c00000e 	stceq	0, cr0, [r0], {14}
    3c1c:	35012105 	strcc	r2, [r1, #-261]	; 0x105
    3c20:	18000006 	stmdane	r0, {r1, r2}
    3c24:	00000cd0 	ldrdeq	r0, [r0], -r0	; <UNPREDICTABLE>
    3c28:	35012305 	strcc	r2, [r1, #-773]	; 0x305
    3c2c:	00000006 	andeq	r0, r0, r6
    3c30:	000bb918 	andeq	fp, fp, r8, lsl r9
    3c34:	01240500 	teqeq	r4, r0, lsl #10
    3c38:	00000025 	andeq	r0, r0, r5, lsr #32
    3c3c:	0ca21804 	stceq	8, cr1, [r2], #16
    3c40:	25050000 	strcs	r0, [r5, #-0]
    3c44:	00063b01 	andeq	r3, r6, r1, lsl #22
    3c48:	0e000800 	cdpeq	8, 0, cr0, cr0, cr0, {0}
    3c4c:	00060004 	andeq	r0, r6, r4
    3c50:	f4040e00 			; <UNDEFINED> instruction: 0xf4040e00
    3c54:	1a000005 	bne	3c70 <__code_start__-0x4390>
    3c58:	000009d2 	ldrdeq	r0, [r0], -r2
    3c5c:	013d050e 	teqeq	sp, lr, lsl #10
    3c60:	00000676 	andeq	r0, r0, r6, ror r6
    3c64:	000d1618 	andeq	r1, sp, r8, lsl r6
    3c68:	013e0500 	teqeq	lr, r0, lsl #10
    3c6c:	00000676 	andeq	r0, r0, r6, ror r6
    3c70:	0d501800 	ldcleq	8, cr1, [r0, #-0]
    3c74:	3f050000 	svccc	0x00050000
    3c78:	00067601 	andeq	r7, r6, r1, lsl #12
    3c7c:	d4180600 	ldrle	r0, [r8], #-1536	; 0x600
    3c80:	0500000d 	streq	r0, [r0, #-13]
    3c84:	005b0140 	subseq	r0, fp, r0, asr #2
    3c88:	000c0000 	andeq	r0, ip, r0
    3c8c:	00005b09 	andeq	r5, r0, r9, lsl #22
    3c90:	00068600 	andeq	r8, r6, r0, lsl #12
    3c94:	00cc0a00 	sbceq	r0, ip, r0, lsl #20
    3c98:	00020000 	andeq	r0, r2, r0
    3c9c:	5705d01b 	smladpl	r5, fp, r0, sp
    3ca0:	00078702 	andeq	r8, r7, r2, lsl #14
    3ca4:	0e131800 	cdpeq	8, 1, cr1, cr3, cr0, {0}
    3ca8:	59050000 	stmdbpl	r5, {}	; <UNPREDICTABLE>
    3cac:	00002c02 	andeq	r2, r0, r2, lsl #24
    3cb0:	be180000 	cdplt	0, 1, cr0, cr8, cr0, {0}
    3cb4:	0500000d 	streq	r0, [r0, #-13]
    3cb8:	010c025a 	tsteq	ip, sl, asr r2
    3cbc:	18040000 	stmdane	r4, {}	; <UNPREDICTABLE>
    3cc0:	00000bd5 	ldrdeq	r0, [r0], -r5
    3cc4:	87025b05 	strhi	r5, [r2, -r5, lsl #22]
    3cc8:	08000007 	stmdaeq	r0, {r0, r1, r2}
    3ccc:	000ee218 	andeq	lr, lr, r8, lsl r2
    3cd0:	025c0500 	subseq	r0, ip, #0, 10
    3cd4:	00000192 	muleq	r0, r2, r1
    3cd8:	0b741824 	bleq	1d09d70 <__bss_end__+0x1cff7f8>
    3cdc:	5d050000 	stcpl	0, cr0, [r5, #-0]
    3ce0:	00002502 	andeq	r2, r0, r2, lsl #10
    3ce4:	cb184800 	blgt	615cec <__bss_end__+0x60b774>
    3ce8:	0500000c 	streq	r0, [r0, #-12]
    3cec:	0069025e 	rsbeq	r0, r9, lr, asr r2
    3cf0:	18500000 	ldmdane	r0, {}^	; <UNPREDICTABLE>
    3cf4:	00000ef8 	strdeq	r0, [r0], -r8
    3cf8:	41025f05 	tstmi	r2, r5, lsl #30
    3cfc:	58000006 	stmdapl	r0, {r1, r2}
    3d00:	000cd618 	andeq	sp, ip, r8, lsl r6
    3d04:	02600500 	rsbeq	r0, r0, #0, 10
    3d08:	000000f4 	strdeq	r0, [r0], -r4
    3d0c:	0efd1868 	cdpeq	8, 15, cr1, cr13, cr8, {3}
    3d10:	61050000 	mrsvs	r0, (UNDEF: 5)
    3d14:	0000f402 	andeq	pc, r0, r2, lsl #8
    3d18:	37187000 	ldrcc	r7, [r8, -r0]
    3d1c:	0500000a 	streq	r0, [r0, #-10]
    3d20:	00f40262 	rscseq	r0, r4, r2, ror #4
    3d24:	18780000 	ldmdane	r8!, {}^	; <UNPREDICTABLE>
    3d28:	00000e4f 	andeq	r0, r0, pc, asr #28
    3d2c:	97026305 	strls	r6, [r2, -r5, lsl #6]
    3d30:	80000007 	andhi	r0, r0, r7
    3d34:	000bc918 	andeq	ip, fp, r8, lsl r9
    3d38:	02640500 	rsbeq	r0, r4, #0, 10
    3d3c:	000007a7 	andeq	r0, r0, r7, lsr #15
    3d40:	0de11888 	stcleq	8, cr1, [r1, #544]!	; 0x220
    3d44:	65050000 	strvs	r0, [r5, #-0]
    3d48:	00002502 	andeq	r2, r0, r2, lsl #10
    3d4c:	2018a000 	andscs	sl, r8, r0
    3d50:	0500000b 	streq	r0, [r0, #-11]
    3d54:	00f40266 	rscseq	r0, r4, r6, ror #4
    3d58:	18a40000 	stmiane	r4!, {}	; <UNPREDICTABLE>
    3d5c:	00000a28 	andeq	r0, r0, r8, lsr #20
    3d60:	f4026705 	vst1.8	{d6}, [r2], r5
    3d64:	ac000000 	stcge	0, cr0, [r0], {-0}
    3d68:	000b0f18 	andeq	r0, fp, r8, lsl pc
    3d6c:	02680500 	rsbeq	r0, r8, #0, 10
    3d70:	000000f4 	strdeq	r0, [r0], -r4
    3d74:	09ef18b4 	stmibeq	pc!, {r2, r4, r5, r7, fp, ip}^	; <UNPREDICTABLE>
    3d78:	69050000 	stmdbvs	r5, {}	; <UNPREDICTABLE>
    3d7c:	0000f402 	andeq	pc, r0, r2, lsl #8
    3d80:	fe18bc00 	cdp2	12, 1, cr11, cr8, cr0, {0}
    3d84:	05000009 	streq	r0, [r0, #-9]
    3d88:	00f4026a 	rscseq	r0, r4, sl, ror #4
    3d8c:	18c40000 	stmiane	r4, {}^	; <UNPREDICTABLE>
    3d90:	00000c88 	andeq	r0, r0, r8, lsl #25
    3d94:	25026b05 	strcs	r6, [r2, #-2821]	; 0xb05
    3d98:	cc000000 	stcgt	0, cr0, [r0], {-0}
    3d9c:	01120900 	tsteq	r2, r0, lsl #18
    3da0:	07970000 	ldreq	r0, [r7, r0]
    3da4:	cc0a0000 	stcgt	0, cr0, [sl], {-0}
    3da8:	19000000 	stmdbne	r0, {}	; <UNPREDICTABLE>
    3dac:	01120900 	tsteq	r2, r0, lsl #18
    3db0:	07a70000 	streq	r0, [r7, r0]!
    3db4:	cc0a0000 	stcgt	0, cr0, [sl], {-0}
    3db8:	07000000 	streq	r0, [r0, -r0]
    3dbc:	01120900 	tsteq	r2, r0, lsl #18
    3dc0:	07b70000 	ldreq	r0, [r7, r0]!
    3dc4:	cc0a0000 	stcgt	0, cr0, [sl], {-0}
    3dc8:	17000000 	strne	r0, [r0, -r0]
    3dcc:	05f01b00 	ldrbeq	r1, [r0, #2816]!	; 0xb00
    3dd0:	07db0270 			; <UNDEFINED> instruction: 0x07db0270
    3dd4:	38180000 	ldmdacc	r8, {}	; <UNPREDICTABLE>
    3dd8:	0500000c 	streq	r0, [r0, #-12]
    3ddc:	07db0273 			; <UNDEFINED> instruction: 0x07db0273
    3de0:	18000000 	stmdane	r0, {}	; <UNPREDICTABLE>
    3de4:	00000e46 	andeq	r0, r0, r6, asr #28
    3de8:	eb027405 	bl	a0e04 <__bss_end__+0x9688c>
    3dec:	78000007 	stmdavc	r0, {r0, r1, r2}
    3df0:	02db0900 	sbcseq	r0, fp, #0, 18
    3df4:	07eb0000 	strbeq	r0, [fp, r0]!
    3df8:	cc0a0000 	stcgt	0, cr0, [sl], {-0}
    3dfc:	1d000000 	stcne	0, cr0, [r0, #-0]
    3e00:	002c0900 	eoreq	r0, ip, r0, lsl #18
    3e04:	07fb0000 	ldrbeq	r0, [fp, r0]!
    3e08:	cc0a0000 	stcgt	0, cr0, [sl], {-0}
    3e0c:	1d000000 	stcne	0, cr0, [r0, #-0]
    3e10:	05f01c00 	ldrbeq	r1, [r0, #3072]!	; 0xc00
    3e14:	081d0255 	ldmdaeq	sp, {r0, r2, r4, r6, r9}
    3e18:	0f1d0000 	svceq	0x001d0000
    3e1c:	0500000d 	streq	r0, [r0, #-13]
    3e20:	0686026c 	streq	r0, [r6], ip, ror #4
    3e24:	a21d0000 	andsge	r0, sp, #0
    3e28:	0500000e 	streq	r0, [r0, #-14]
    3e2c:	07b70275 			; <UNDEFINED> instruction: 0x07b70275
    3e30:	09000000 	stmdbeq	r0, {}	; <UNPREDICTABLE>
    3e34:	00000112 	andeq	r0, r0, r2, lsl r1
    3e38:	0000082d 	andeq	r0, r0, sp, lsr #16
    3e3c:	0000cc0a 	andeq	ip, r0, sl, lsl #24
    3e40:	1e001800 	cdpne	8, 0, cr1, cr0, cr0, {0}
    3e44:	00000838 	andeq	r0, r0, r8, lsr r8
    3e48:	00042916 	andeq	r2, r4, r6, lsl r9
    3e4c:	040e0000 	streq	r0, [lr], #-0
    3e50:	0000082d 	andeq	r0, r0, sp, lsr #16
    3e54:	017c040e 	cmneq	ip, lr, lsl #8
    3e58:	4f1e0000 	svcmi	0x001e0000
    3e5c:	16000008 	strne	r0, [r0], -r8
    3e60:	00000025 	andeq	r0, r0, r5, lsr #32
    3e64:	55040e00 	strpl	r0, [r4, #-3584]	; 0xe00
    3e68:	0e000008 	cdpeq	0, 0, cr0, cr0, cr8, {0}
    3e6c:	00084404 	andeq	r4, r8, r4, lsl #8
    3e70:	05f40900 	ldrbeq	r0, [r4, #2304]!	; 0x900
    3e74:	086b0000 	stmdaeq	fp!, {}^	; <UNPREDICTABLE>
    3e78:	cc0a0000 	stcgt	0, cr0, [sl], {-0}
    3e7c:	02000000 	andeq	r0, r0, #0
    3e80:	0df51f00 	ldcleq	15, cr1, [r5]
    3e84:	fd050000 	stc2	0, cr0, [r5, #-0]
    3e88:	00042902 	andeq	r2, r4, r2, lsl #18
    3e8c:	0dee1f00 	stcleq	15, cr1, [lr]
    3e90:	fe050000 	cdp2	0, 0, cr0, cr5, cr0, {0}
    3e94:	00042f02 	andeq	r2, r4, r2, lsl #30
    3e98:	00251500 	eoreq	r1, r5, r0, lsl #10
    3e9c:	08920000 	ldmeq	r2, {}	; <UNPREDICTABLE>
    3ea0:	25160000 	ldrcs	r0, [r6, #-0]
    3ea4:	00000000 	andeq	r0, r0, r0
    3ea8:	0005ef20 	andeq	lr, r5, r0, lsr #30
    3eac:	9d1d0600 	ldcls	6, cr0, [sp, #-0]
    3eb0:	0e000008 	cdpeq	0, 0, cr0, cr0, cr8, {0}
    3eb4:	00088304 	andeq	r8, r8, r4, lsl #6
    3eb8:	00251500 	eoreq	r1, r5, r0, lsl #10
    3ebc:	08b20000 	ldmeq	r2!, {}	; <UNPREDICTABLE>
    3ec0:	8a160000 	bhi	583ec8 <__bss_end__+0x579950>
    3ec4:	00000005 	andeq	r0, r0, r5
    3ec8:	00062c20 	andeq	r2, r6, r0, lsr #24
    3ecc:	bd220600 	stclt	6, cr0, [r2, #-0]
    3ed0:	0e000008 	cdpeq	0, 0, cr0, cr0, cr8, {0}
    3ed4:	0008a304 	andeq	sl, r8, r4, lsl #6
    3ed8:	54012100 	strpl	r2, [r1], #-256	; 0x100
    3edc:	08000000 	stmdaeq	r0, {}	; <UNPREDICTABLE>
    3ee0:	0009000c 	andeq	r0, r9, ip
    3ee4:	0a182200 	beq	60c6ec <__bss_end__+0x602174>
    3ee8:	22000000 	andcs	r0, r0, #0
    3eec:	00000e35 	andeq	r0, r0, r5, lsr lr
    3ef0:	0e8d2201 	cdpeq	2, 8, cr2, cr13, cr1, {0}
    3ef4:	22040000 	andcs	r0, r4, #0
    3ef8:	00000a59 	andeq	r0, r0, r9, asr sl
    3efc:	0bf02205 	bleq	ffc0c718 <__bss_end__+0xffc021a0>
    3f00:	22060000 	andcs	r0, r6, #0
    3f04:	00000eaa 	andeq	r0, r0, sl, lsr #29
    3f08:	0eb92207 	cdpeq	2, 11, cr2, cr9, cr7, {0}
    3f0c:	22030000 	andcs	r0, r3, #0
    3f10:	00000ec8 	andeq	r0, r0, r8, asr #29
    3f14:	c6100002 	ldrgt	r0, [r0], -r2
    3f18:	2c00000a 	stccs	0, cr0, [r0], {10}
    3f1c:	09900607 	ldmibeq	r0, {r0, r1, r2, r9, sl}
    3f20:	69110000 	ldmdbvs	r1, {}	; <UNPREDICTABLE>
    3f24:	0907006f 	stmdbeq	r7, {r0, r1, r2, r3, r5, r6}
    3f28:	00000033 	andeq	r0, r0, r3, lsr r0
    3f2c:	65691100 	strbvs	r1, [r9, #-256]!	; 0x100
    3f30:	0a070072 	beq	1c4100 <__bss_end__+0x1b9b88>
    3f34:	00000033 	andeq	r0, r0, r3, lsr r0
    3f38:	69691104 	stmdbvs	r9!, {r2, r8, ip}^
    3f3c:	11070072 	tstne	r7, r2, ror r0
    3f40:	00000033 	andeq	r0, r0, r3, lsr r0
    3f44:	636c1108 	cmnvs	ip, #8, 2
    3f48:	13070072 	movwne	r0, #28786	; 0x7072
    3f4c:	00000033 	andeq	r0, r0, r3, lsr r0
    3f50:	636d110c 	cmnvs	sp, #12, 2
    3f54:	14070072 	strne	r0, [r7], #-114	; 0x72
    3f58:	00000033 	andeq	r0, r0, r3, lsr r0
    3f5c:	736c1110 	cmnvc	ip, #16, 2
    3f60:	15070072 	strne	r0, [r7, #-114]	; 0x72
    3f64:	00000033 	andeq	r0, r0, r3, lsr r0
    3f68:	736d1114 	cmnvc	sp, #20, 2
    3f6c:	16070072 			; <UNDEFINED> instruction: 0x16070072
    3f70:	00000033 	andeq	r0, r0, r3, lsr r0
    3f74:	0d480c18 	stcleq	12, cr0, [r8, #-96]	; 0xffffffa0
    3f78:	17070000 	strne	r0, [r7, -r0]
    3f7c:	00000033 	andeq	r0, r0, r3, lsr r0
    3f80:	0a6e0c1c 	beq	1b86ff8 <__bss_end__+0x1b7ca80>
    3f84:	1b070000 	blne	1c3f8c <__bss_end__+0x1b9a14>
    3f88:	00000033 	andeq	r0, r0, r3, lsr r0
    3f8c:	0a4e0c20 	beq	1387014 <__bss_end__+0x137ca9c>
    3f90:	1d070000 	stcne	0, cr0, [r7, #-0]
    3f94:	00000033 	andeq	r0, r0, r3, lsr r0
    3f98:	0d320c24 	ldceq	12, cr0, [r2, #-144]!	; 0xffffff70
    3f9c:	1e070000 	cdpne	0, 0, cr0, cr7, cr0, {0}
    3fa0:	00000033 	andeq	r0, r0, r3, lsr r0
    3fa4:	36230028 	strtcc	r0, [r3], -r8, lsr #32
    3fa8:	0100000b 	tsteq	r0, fp
    3fac:	0009a507 	andeq	sl, r9, r7, lsl #10
    3fb0:	21500400 	cmpcs	r0, r0, lsl #8
    3fb4:	33040e20 	movwcc	r0, #20000	; 0x4e20
    3fb8:	0f000000 	svceq	0x00000000
    3fbc:	0000099f 	muleq	r0, pc, r9	; <UNPREDICTABLE>
    3fc0:	000c6223 	andeq	r6, ip, r3, lsr #4
    3fc4:	bf280100 	svclt	0x00280100
    3fc8:	40000009 	andmi	r0, r0, r9
    3fcc:	0e202150 	mcreq	1, 1, r2, cr0, cr0, {2}
    3fd0:	00090004 	andeq	r0, r9, r4
    3fd4:	09b90f00 	ldmibeq	r9!, {r8, r9, sl, fp}
    3fd8:	7f240000 	svcvc	0x00240000
    3fdc:	0100000e 	tsteq	r0, lr
    3fe0:	000025a7 	andeq	r2, r0, r7, lsr #11
    3fe4:	00985c00 	addseq	r5, r8, r0, lsl #24
    3fe8:	00001000 	andeq	r1, r0, r0
    3fec:	f09c0100 			; <UNDEFINED> instruction: 0xf09c0100
    3ff0:	25000009 	strcs	r0, [r0, #-9]
    3ff4:	00009864 	andeq	r9, r0, r4, ror #16
    3ff8:	00000c9c 	muleq	r0, ip, ip
    3ffc:	00986825 	addseq	r6, r8, r5, lsr #16
    4000:	000ad200 	andeq	sp, sl, r0, lsl #4
    4004:	d4260000 	strtle	r0, [r6], #-0
    4008:	01000005 	tsteq	r0, r5
    400c:	00982c9f 	umullseq	r2, r8, pc, ip	; <UNPREDICTABLE>
    4010:	00003000 	andeq	r3, r0, r0
    4014:	4e9c0100 	fmlmie	f0, f4, f0
    4018:	2700000a 	strcs	r0, [r0, -sl]
    401c:	9f010063 	svcls	0x00010063
    4020:	0000002c 	andeq	r0, r0, ip, lsr #32
    4024:	00000f20 	andeq	r0, r0, r0, lsr #30
    4028:	00983825 	addseq	r3, r8, r5, lsr #16
    402c:	000c9c00 	andeq	r9, ip, r0, lsl #24
    4030:	983c2500 	ldmdals	ip!, {r8, sl, sp}
    4034:	0aa50000 	beq	fe94403c <__bss_end__+0xfe939ac4>
    4038:	50280000 	eorpl	r0, r8, r0
    403c:	a7000098 			; <UNDEFINED> instruction: 0xa7000098
    4040:	4400000c 	strmi	r0, [r0], #-12
    4044:	2900000a 	stmdbcs	r0, {r1, r3}
    4048:	0c055001 	stceq	0, cr5, [r5], {1}
    404c:	20215040 	eorcs	r5, r1, r0, asr #32
    4050:	05510129 	ldrbeq	r0, [r1, #-297]	; 0x129
    4054:	ff080074 			; <UNDEFINED> instruction: 0xff080074
    4058:	5425001a 	strtpl	r0, [r5], #-26
    405c:	9c000098 	stcls	0, cr0, [r0], {152}	; 0x98
    4060:	0000000c 	andeq	r0, r0, ip
    4064:	000b9924 	andeq	r9, fp, r4, lsr #18
    4068:	25970100 	ldrcs	r0, [r7, #256]	; 0x100
    406c:	fc000000 	stc2	0, cr0, [r0], {-0}
    4070:	30000097 	mulcc	r0, r7, r0
    4074:	01000000 	mrseq	r0, (UNDEF: 0)
    4078:	000aa59c 	muleq	sl, ip, r5
    407c:	00632a00 	rsbeq	r2, r3, r0, lsl #20
    4080:	00259b01 	eoreq	r9, r5, r1, lsl #22
    4084:	54010000 	strpl	r0, [r1], #-0
    4088:	00980425 	addseq	r0, r8, r5, lsr #8
    408c:	000c9c00 	andeq	r9, ip, r0, lsl #24
    4090:	98082500 	stmdals	r8, {r8, sl, sp}
    4094:	0ad20000 	beq	ff48409c <__bss_end__+0xff479b24>
    4098:	18280000 	stmdane	r8!, {}	; <UNPREDICTABLE>
    409c:	b2000098 	andlt	r0, r0, #152	; 0x98
    40a0:	9b00000c 	blls	40d8 <__code_start__-0x3f28>
    40a4:	2900000a 	stmdbcs	r0, {r1, r3}
    40a8:	0c055001 	stceq	0, cr5, [r5], {1}
    40ac:	20215040 	eorcs	r5, r1, r0, asr #32
    40b0:	98202500 	stmdals	r0!, {r8, sl, sp}
    40b4:	0c9c0000 	ldceq	0, cr0, [ip], {0}
    40b8:	24000000 	strcs	r0, [r0], #-0
    40bc:	00000b4d 	andeq	r0, r0, sp, asr #22
    40c0:	00258801 	eoreq	r8, r5, r1, lsl #16
    40c4:	97dc0000 	ldrbls	r0, [ip, r0]
    40c8:	00200000 	eoreq	r0, r0, r0
    40cc:	9c010000 	stcls	0, cr0, [r1], {-0}
    40d0:	00000ad2 	ldrdeq	r0, [r0], -r2
    40d4:	0097e82b 	addseq	lr, r7, fp, lsr #16
    40d8:	000cb200 	andeq	fp, ip, r0, lsl #4
    40dc:	50012900 	andpl	r2, r1, r0, lsl #18
    40e0:	50640c05 	rsbpl	r0, r4, r5, lsl #24
    40e4:	00002021 	andeq	r2, r0, r1, lsr #32
    40e8:	000e5f24 	andeq	r5, lr, r4, lsr #30
    40ec:	257f0100 	ldrbcs	r0, [pc, #-256]!	; 3ff4 <__code_start__-0x400c>
    40f0:	c4000000 	strgt	r0, [r0], #-0
    40f4:	18000097 	stmdane	r0, {r0, r1, r2, r4, r7}
    40f8:	01000000 	mrseq	r0, (UNDEF: 0)
    40fc:	000aff9c 	muleq	sl, ip, pc	; <UNPREDICTABLE>
    4100:	97d02b00 	ldrbls	r2, [r0, r0, lsl #22]
    4104:	0cb20000 	ldceq	0, cr0, [r2]
    4108:	01290000 	teqeq	r9, r0
    410c:	640c0550 	strvs	r0, [ip], #-1360	; 0x550
    4110:	00202150 	eoreq	r2, r0, r0, asr r1
    4114:	09e52600 	stmibeq	r5!, {r9, sl, sp}^
    4118:	3a010000 	bcc	44120 <__bss_end__+0x39ba8>
    411c:	00009714 	andeq	r9, r0, r4, lsl r7
    4120:	000000b0 	strheq	r0, [r0], -r0	; <UNPREDICTABLE>
    4124:	0c3d9c01 	ldceq	12, cr9, [sp], #-4
    4128:	24280000 	strtcs	r0, [r8], #-0
    412c:	bd000097 	stclt	0, cr0, [r0, #-604]	; 0xfffffda4
    4130:	2c00000c 	stccs	0, cr0, [r0], {12}
    4134:	2900000b 	stmdbcs	r0, {r0, r1, r3}
    4138:	3e015001 	cdpcc	0, 0, cr5, cr1, cr1, {0}
    413c:	01510129 	cmpeq	r1, r9, lsr #2
    4140:	30280032 	eorcc	r0, r8, r2, lsr r0
    4144:	bd000097 	stclt	0, cr0, [r0, #-604]	; 0xfffffda4
    4148:	4400000c 	strmi	r0, [r0], #-12
    414c:	2900000b 	stmdbcs	r0, {r0, r1, r3}
    4150:	3f015001 	svccc	0x00015001
    4154:	01510129 	cmpeq	r1, r9, lsr #2
    4158:	34250032 	strtcc	r0, [r5], #-50	; 0x32
    415c:	9c000097 	stcls	0, cr0, [r0], {151}	; 0x97
    4160:	2800000c 	stmdacs	r0, {r2, r3}
    4164:	00009740 	andeq	r9, r0, r0, asr #14
    4168:	00000c3d 	andeq	r0, r0, sp, lsr ip
    416c:	00000b69 	andeq	r0, r0, r9, ror #22
    4170:	05500129 	ldrbeq	r0, [r0, #-297]	; 0x129
    4174:	2150040c 	cmpcs	r0, ip, lsl #8
    4178:	51012920 	tstpl	r1, r0, lsr #18
    417c:	25003101 	strcs	r3, [r0, #-257]	; 0x101
    4180:	00009744 	andeq	r9, r0, r4, asr #14
    4184:	00000c9c 	muleq	r0, ip, ip
    4188:	00975428 	addseq	r5, r7, r8, lsr #8
    418c:	000ca700 	andeq	sl, ip, r0, lsl #14
    4190:	000b8b00 	andeq	r8, fp, r0, lsl #22
    4194:	50012900 	andpl	r2, r1, r0, lsl #18
    4198:	29007402 	stmdbcs	r0, {r1, sl, ip, sp, lr}
    419c:	30015101 	andcc	r5, r1, r1, lsl #2
    41a0:	97602800 	strbls	r2, [r0, -r0, lsl #16]!
    41a4:	0ca70000 	stceq	0, cr0, [r7]
    41a8:	0ba70000 	bleq	fe9c41b0 <__bss_end__+0xfe9b9c38>
    41ac:	01290000 	teqeq	r9, r0
    41b0:	440c0550 	strmi	r0, [ip], #-1360	; 0x550
    41b4:	29202150 	stmdbcs	r0!, {r4, r6, r8, sp}
    41b8:	30015101 	andcc	r5, r1, r1, lsl #2
    41bc:	976c2800 	strbls	r2, [ip, -r0, lsl #16]!
    41c0:	0ca70000 	stceq	0, cr0, [r7]
    41c4:	0bc30000 	bleq	ff0c41cc <__bss_end__+0xff0b9c54>
    41c8:	01290000 	teqeq	r9, r0
    41cc:	4c0c0550 	cfstr32mi	mvfx0, [ip], {80}	; 0x50
    41d0:	29202150 	stmdbcs	r0!, {r4, r6, r8, sp}
    41d4:	33015101 	movwcc	r5, #4353	; 0x1101
    41d8:	97782800 	ldrbls	r2, [r8, -r0, lsl #16]!
    41dc:	0ca70000 	stceq	0, cr0, [r7]
    41e0:	0bdf0000 	bleq	ff7c41e8 <__bss_end__+0xff7b9c70>
    41e4:	01290000 	teqeq	r9, r0
    41e8:	500c0550 	andpl	r0, ip, r0, asr r5
    41ec:	29202150 	stmdbcs	r0!, {r4, r6, r8, sp}
    41f0:	30015101 	andcc	r5, r1, r1, lsl #2
    41f4:	97842800 	strls	r2, [r4, r0, lsl #16]
    41f8:	0ca70000 	stceq	0, cr0, [r7]
    41fc:	0bfc0000 	bleq	fff04204 <__bss_end__+0xffef9c8c>
    4200:	01290000 	teqeq	r9, r0
    4204:	480c0550 	stmdami	ip, {r4, r6, r8, sl}
    4208:	29202150 	stmdbcs	r0!, {r4, r6, r8, sp}
    420c:	08025101 	stmdaeq	r2, {r0, r8, ip, lr}
    4210:	902800c7 	eorls	r0, r8, r7, asr #1
    4214:	a7000097 			; <UNDEFINED> instruction: 0xa7000097
    4218:	1a00000c 	bne	4250 <__code_start__-0x3db0>
    421c:	2900000c 	stmdbcs	r0, {r2, r3}
    4220:	0c055001 	stceq	0, cr5, [r5], {1}
    4224:	20215068 	eorcs	r5, r1, r8, rrx
    4228:	03510129 	cmpeq	r1, #1073741834	; 0x4000000a
    422c:	00010e0a 	andeq	r0, r1, sl, lsl #28
    4230:	00979c28 	addseq	r9, r7, r8, lsr #24
    4234:	000ca700 	andeq	sl, ip, r0, lsl #14
    4238:	000c3300 	andeq	r3, ip, r0, lsl #6
    423c:	50012900 	andpl	r2, r1, r0, lsl #18
    4240:	29007402 	stmdbcs	r0, {r1, sl, ip, sp, lr}
    4244:	33015101 	movwcc	r5, #4353	; 0x1101
    4248:	97a02500 	strls	r2, [r0, r0, lsl #10]!
    424c:	0c9c0000 	ldceq	0, cr0, [ip], {0}
    4250:	2c000000 	stccs	0, cr0, [r0], {-0}
    4254:	00000e77 	andeq	r0, r0, r7, ror lr
    4258:	96f42d01 	ldrbtls	r2, [r4], r1, lsl #26
    425c:	00200000 	eoreq	r0, r0, r0
    4260:	9c010000 	stcls	0, cr0, [r1], {-0}
    4264:	00000c95 	muleq	r0, r5, ip
    4268:	0001e02d 	andeq	lr, r1, sp, lsr #32
    426c:	952d0100 	strls	r0, [sp, #-256]!	; 0x100
    4270:	3e00000c 	cdpcc	0, 0, cr0, cr0, cr12, {0}
    4274:	2700000f 	strcs	r0, [r0, -pc]
    4278:	006c6176 	rsbeq	r6, ip, r6, ror r1
    427c:	002c2d01 	eoreq	r2, ip, r1, lsl #26
    4280:	0f5c0000 	svceq	0x005c0000
    4284:	04280000 	strteq	r0, [r8], #-0
    4288:	b2000097 	andlt	r0, r0, #151	; 0x97
    428c:	8400000c 	strhi	r0, [r0], #-12
    4290:	2900000c 	stmdbcs	r0, {r2, r3}
    4294:	74025001 	strvc	r5, [r2], #-1
    4298:	102b0000 	eorne	r0, fp, r0
    429c:	a7000097 			; <UNDEFINED> instruction: 0xa7000097
    42a0:	2900000c 	stmdbcs	r0, {r2, r3}
    42a4:	74025001 	strvc	r5, [r2], #-1
    42a8:	0e000000 	cdpeq	0, 0, cr0, cr0, cr0, {0}
    42ac:	000c9b04 	andeq	r9, ip, r4, lsl #22
    42b0:	9b2f2e00 	blls	bcfab8 <__bss_end__+0xbc5540>
    42b4:	9b000008 	blls	42dc <__code_start__-0x3d24>
    42b8:	06000008 	streq	r0, [r0], -r8
    42bc:	0d562f89 	ldcleq	15, cr2, [r6, #-548]	; 0xfffffddc
    42c0:	0d560000 	ldcleq	0, cr0, [r6, #-0]
    42c4:	9c060000 	stcls	0, cr0, [r6], {-0}
    42c8:	000e592f 	andeq	r5, lr, pc, lsr #18
    42cc:	000e5900 	andeq	r5, lr, r0, lsl #18
    42d0:	2fa80600 	svccs	0x00a80600
    42d4:	00000c26 	andeq	r0, r0, r6, lsr #24
    42d8:	00000c26 	andeq	r0, r0, r6, lsr #24
    42dc:	70001908 	andvc	r1, r0, r8, lsl #18
    42e0:	0400000b 	streq	r0, [r0], #-11
    42e4:	0015a500 	andseq	sl, r5, r0, lsl #10
    42e8:	5c010400 	cfstrspl	mvf0, [r1], {-0}
    42ec:	0c00000d 	stceq	0, cr0, [r0], {13}
    42f0:	00000f2c 	andeq	r0, r0, ip, lsr #30
    42f4:	00000ada 	ldrdeq	r0, [r0], -sl
    42f8:	0000986c 	andeq	r9, r0, ip, ror #16
    42fc:	00000120 	andeq	r0, r0, r0, lsr #2
    4300:	00001123 	andeq	r1, r0, r3, lsr #2
    4304:	69050402 	stmdbvs	r5, {r1, sl}
    4308:	0300746e 	movweq	r7, #1134	; 0x46e
    430c:	01a00704 	lsleq	r0, r4, #14
    4310:	2c040000 	stccs	0, cr0, [r4], {-0}
    4314:	03000000 	movweq	r0, #0
    4318:	00af0601 	adceq	r0, pc, r1, lsl #12
    431c:	02030000 	andeq	r0, r3, #0
    4320:	0000f405 	andeq	pc, r0, r5, lsl #8
    4324:	05040300 	streq	r0, [r4, #-768]	; 0x300
    4328:	000001c5 	andeq	r0, r0, r5, asr #3
    432c:	c0050803 	andgt	r0, r5, r3, lsl #16
    4330:	03000001 	movweq	r0, #1
    4334:	00ad0801 	adceq	r0, sp, r1, lsl #16
    4338:	02030000 	andeq	r0, r3, #0
    433c:	0000d307 	andeq	sp, r0, r7, lsl #6
    4340:	07040300 	streq	r0, [r4, -r0, lsl #6]
    4344:	0000019b 	muleq	r0, fp, r1
    4348:	96070803 	strls	r0, [r7], -r3, lsl #16
    434c:	05000001 	streq	r0, [r0, #-1]
    4350:	00000c71 	andeq	r0, r0, r1, ror ip
    4354:	00250702 	eoreq	r0, r5, r2, lsl #14
    4358:	5b050000 	blpl	144360 <__bss_end__+0x139de8>
    435c:	0300000c 	movweq	r0, #12
    4360:	0000462c 	andeq	r4, r0, ip, lsr #12
    4364:	0d370500 	cfldr32eq	mvfx0, [r7, #-0]
    4368:	72030000 	andvc	r0, r3, #0
    436c:	00000046 	andeq	r0, r0, r6, asr #32
    4370:	000bff06 	andeq	pc, fp, r6, lsl #30
    4374:	01650400 	cmneq	r5, r0, lsl #8
    4378:	0000002c 	andeq	r0, r0, ip, lsr #32
    437c:	a6030407 	strge	r0, [r3], -r7, lsl #8
    4380:	000000bc 	strheq	r0, [r0], -ip
    4384:	000bea08 	andeq	lr, fp, r8, lsl #20
    4388:	91a80300 			; <UNDEFINED> instruction: 0x91a80300
    438c:	08000000 	stmdaeq	r0, {}	; <UNPREDICTABLE>
    4390:	00000b92 	muleq	r0, r2, fp
    4394:	00bca903 	adcseq	sl, ip, r3, lsl #18
    4398:	09000000 	stmdbeq	r0, {}	; <UNPREDICTABLE>
    439c:	00000054 	andeq	r0, r0, r4, asr r0
    43a0:	000000cc 	andeq	r0, r0, ip, asr #1
    43a4:	0000cc0a 	andeq	ip, r0, sl, lsl #24
    43a8:	03000300 	movweq	r0, #768	; 0x300
    43ac:	01b70704 			; <UNDEFINED> instruction: 0x01b70704
    43b0:	080b0000 	stmdaeq	fp, {}	; <UNPREDICTABLE>
    43b4:	00f4a303 	rscseq	sl, r4, r3, lsl #6
    43b8:	1c0c0000 	stcne	0, cr0, [ip], {-0}
    43bc:	0300000d 	movweq	r0, #13
    43c0:	000025a5 	andeq	r2, r0, r5, lsr #11
    43c4:	240c0000 	strcs	r0, [ip], #-0
    43c8:	0300000d 	movweq	r0, #13
    43cc:	00009daa 	andeq	r9, r0, sl, lsr #27
    43d0:	05000400 	streq	r0, [r0, #-1024]	; 0x400
    43d4:	00000caf 	andeq	r0, r0, pc, lsr #25
    43d8:	00d3ab03 	sbcseq	sl, r3, r3, lsl #22
    43dc:	5b050000 	blpl	1443e4 <__bss_end__+0x139e6c>
    43e0:	0300000b 	movweq	r0, #11
    43e4:	000070af 	andeq	r7, r0, pc, lsr #1
    43e8:	0e040d00 	cdpeq	13, 0, cr0, cr4, cr0, {0}
    43ec:	00011204 	andeq	r1, r1, r4, lsl #4
    43f0:	08010300 	stmdaeq	r1, {r8, r9}
    43f4:	000000b6 	strheq	r0, [r0], -r6
    43f8:	00011204 	andeq	r1, r1, r4, lsl #4
    43fc:	0dd90500 	cfldr64eq	mvdx0, [r9]
    4400:	16050000 	strne	r0, [r5], -r0
    4404:	00000062 	andeq	r0, r0, r2, rrx
    4408:	000b6c0f 	andeq	r6, fp, pc, lsl #24
    440c:	2d051800 	stccs	8, cr1, [r5, #-0]
    4410:	0000017c 	andeq	r0, r0, ip, ror r1
    4414:	000cd00c 	andeq	sp, ip, ip
    4418:	7c2f0500 	cfstr32vc	mvfx0, [pc], #-0	; 4420 <__code_start__-0x3be0>
    441c:	00000001 	andeq	r0, r0, r1
    4420:	006b5f10 	rsbeq	r5, fp, r0, lsl pc
    4424:	00253005 	eoreq	r3, r5, r5
    4428:	0c040000 	stceq	0, cr0, [r4], {-0}
    442c:	00000d07 	andeq	r0, r0, r7, lsl #26
    4430:	00253005 	eoreq	r3, r5, r5
    4434:	0c080000 	stceq	0, cr0, [r8], {-0}
    4438:	00000b47 	andeq	r0, r0, r7, asr #22
    443c:	00253005 	eoreq	r3, r5, r5
    4440:	0c0c0000 	stceq	0, cr0, [ip], {-0}
    4444:	00000e20 	andeq	r0, r0, r0, lsr #28
    4448:	00253005 	eoreq	r3, r5, r5
    444c:	10100000 	andsne	r0, r0, r0
    4450:	0500785f 	streq	r7, [r0, #-2143]	; 0x85f
    4454:	00018231 	andeq	r8, r1, r1, lsr r2
    4458:	0e001400 	cfcpyseq	mvf1, mvf0
    445c:	00012904 	andeq	r2, r1, r4, lsl #18
    4460:	011e0900 	tsteq	lr, r0, lsl #18
    4464:	01920000 	orrseq	r0, r2, r0
    4468:	cc0a0000 	stcgt	0, cr0, [sl], {-0}
    446c:	00000000 	andeq	r0, r0, r0
    4470:	0b8d0f00 	bleq	fe348078 <__bss_end__+0xfe33db00>
    4474:	05240000 	streq	r0, [r4, #-0]!
    4478:	00020b35 	andeq	r0, r2, r5, lsr fp
    447c:	0a450c00 	beq	1147484 <__bss_end__+0x113cf0c>
    4480:	37050000 	strcc	r0, [r5, -r0]
    4484:	00000025 	andeq	r0, r0, r5, lsr #32
    4488:	0d3f0c00 	ldceq	12, cr0, [pc, #-0]	; 4490 <__code_start__-0x3b70>
    448c:	38050000 	stmdacc	r5, {}	; <UNPREDICTABLE>
    4490:	00000025 	andeq	r0, r0, r5, lsr #32
    4494:	0a730c04 	beq	1cc74ac <__bss_end__+0x1cbcf34>
    4498:	39050000 	stmdbcc	r5, {}	; <UNPREDICTABLE>
    449c:	00000025 	andeq	r0, r0, r5, lsr #32
    44a0:	0f100c08 	svceq	0x00100c08
    44a4:	3a050000 	bcc	1444ac <__bss_end__+0x139f34>
    44a8:	00000025 	andeq	r0, r0, r5, lsr #32
    44ac:	0c3f0c0c 	ldceq	12, cr0, [pc], #-48	; 4484 <__code_start__-0x3b7c>
    44b0:	3b050000 	blcc	1444b8 <__bss_end__+0x139f40>
    44b4:	00000025 	andeq	r0, r0, r5, lsr #32
    44b8:	0c140c10 	ldceq	12, cr0, [r4], {16}
    44bc:	3c050000 	stccc	0, cr0, [r5], {-0}
    44c0:	00000025 	andeq	r0, r0, r5, lsr #32
    44c4:	0e250c14 	mcreq	12, 1, r0, cr5, cr4, {0}
    44c8:	3d050000 	stccc	0, cr0, [r5, #-0]
    44cc:	00000025 	andeq	r0, r0, r5, lsr #32
    44d0:	0c910c18 	ldceq	12, cr0, [r1], {24}
    44d4:	3e050000 	cdpcc	0, 0, cr0, cr5, cr0, {0}
    44d8:	00000025 	andeq	r0, r0, r5, lsr #32
    44dc:	0ed70c1c 	mrceq	12, 6, r0, cr7, cr12, {0}
    44e0:	3f050000 	svccc	0x00050000
    44e4:	00000025 	andeq	r0, r0, r5, lsr #32
    44e8:	82110020 	andshi	r0, r1, #32
    44ec:	0800000a 	stmdaeq	r0, {r1, r3}
    44f0:	4b480501 	blmi	12058fc <__bss_end__+0x11fb384>
    44f4:	0c000002 	stceq	0, cr0, [r0], {2}
    44f8:	00000b2e 	andeq	r0, r0, lr, lsr #22
    44fc:	024b4905 	subeq	r4, fp, #81920	; 0x14000
    4500:	0c000000 	stceq	0, cr0, [r0], {-0}
    4504:	000009c0 	andeq	r0, r0, r0, asr #19
    4508:	024b4a05 	subeq	r4, fp, #20480	; 0x5000
    450c:	12800000 	addne	r0, r0, #0
    4510:	00000dcb 	andeq	r0, r0, fp, asr #27
    4514:	011e4c05 	tsteq	lr, r5, lsl #24
    4518:	01000000 	mrseq	r0, (UNDEF: 0)
    451c:	000aa712 	andeq	sl, sl, r2, lsl r7
    4520:	1e4f0500 	cdpne	5, 4, cr0, cr15, cr0, {0}
    4524:	04000001 	streq	r0, [r0], #-1
    4528:	0a090001 	beq	244534 <__bss_end__+0x239fbc>
    452c:	5b000001 	blpl	4538 <__code_start__-0x3ac8>
    4530:	0a000002 	beq	4540 <__code_start__-0x3ac0>
    4534:	000000cc 	andeq	r0, r0, ip, asr #1
    4538:	4811001f 	ldmdami	r1, {r0, r1, r2, r3, r4}
    453c:	9000000c 	andls	r0, r0, ip
    4540:	995b0501 	ldmdbls	fp, {r0, r8, sl}^
    4544:	0c000002 	stceq	0, cr0, [r0], {2}
    4548:	00000cd0 	ldrdeq	r0, [r0], -r0	; <UNPREDICTABLE>
    454c:	02995c05 	addseq	r5, r9, #1280	; 0x500
    4550:	0c000000 	stceq	0, cr0, [r0], {-0}
    4554:	00000ce8 	andeq	r0, r0, r8, ror #25
    4558:	00255d05 	eoreq	r5, r5, r5, lsl #26
    455c:	0c040000 	stceq	0, cr0, [r4], {-0}
    4560:	00000b42 	andeq	r0, r0, r2, asr #22
    4564:	029f5f05 	addseq	r5, pc, #5, 30
    4568:	0c080000 	stceq	0, cr0, [r8], {-0}
    456c:	00000a82 	andeq	r0, r0, r2, lsl #21
    4570:	020b6005 	andeq	r6, fp, #5
    4574:	00880000 	addeq	r0, r8, r0
    4578:	025b040e 	subseq	r0, fp, #234881024	; 0xe000000
    457c:	af090000 	svcge	0x00090000
    4580:	af000002 	svcge	0x00000002
    4584:	0a000002 	beq	4594 <__code_start__-0x3a6c>
    4588:	000000cc 	andeq	r0, r0, ip, asr #1
    458c:	040e001f 	streq	r0, [lr], #-31
    4590:	000002b5 			; <UNDEFINED> instruction: 0x000002b5
    4594:	0c9b0f13 	ldceq	15, cr0, [fp], {19}
    4598:	05080000 	streq	r0, [r8, #-0]
    459c:	0002db73 	andeq	sp, r2, r3, ror fp
    45a0:	0a680c00 	beq	1a075a8 <__bss_end__+0x19fd030>
    45a4:	74050000 	strvc	r0, [r5], #-0
    45a8:	000002db 	ldrdeq	r0, [r0], -fp
    45ac:	09cc0c00 	stmibeq	ip, {sl, fp}^
    45b0:	75050000 	strvc	r0, [r5, #-0]
    45b4:	00000025 	andeq	r0, r0, r5, lsr #32
    45b8:	040e0004 	streq	r0, [lr], #-4
    45bc:	00000054 	andeq	r0, r0, r4, asr r0
    45c0:	000cba0f 	andeq	fp, ip, pc, lsl #20
    45c4:	b3056800 	movwlt	r6, #22528	; 0x5800
    45c8:	0000040b 	andeq	r0, r0, fp, lsl #8
    45cc:	00705f10 	rsbseq	r5, r0, r0, lsl pc
    45d0:	02dbb405 	sbcseq	fp, fp, #83886080	; 0x5000000
    45d4:	10000000 	andne	r0, r0, r0
    45d8:	0500725f 	streq	r7, [r0, #-607]	; 0x25f
    45dc:	000025b5 			; <UNDEFINED> instruction: 0x000025b5
    45e0:	5f100400 	svcpl	0x00100400
    45e4:	b6050077 			; <UNDEFINED> instruction: 0xb6050077
    45e8:	00000025 	andeq	r0, r0, r5, lsr #32
    45ec:	0aa00c08 	beq	fe807614 <__bss_end__+0xfe7fd09c>
    45f0:	b7050000 	strlt	r0, [r5, -r0]
    45f4:	0000003f 	andeq	r0, r0, pc, lsr r0
    45f8:	0bb30c0c 	bleq	fecc7630 <__bss_end__+0xfecbd0b8>
    45fc:	b8050000 	stmdalt	r5, {}	; <UNPREDICTABLE>
    4600:	0000003f 	andeq	r0, r0, pc, lsr r0
    4604:	625f100e 	subsvs	r1, pc, #14
    4608:	b9050066 	stmdblt	r5, {r1, r2, r5, r6}
    460c:	000002b6 			; <UNDEFINED> instruction: 0x000002b6
    4610:	0a0f0c10 	beq	3c7658 <__bss_end__+0x3bd0e0>
    4614:	ba050000 	blt	14461c <__bss_end__+0x13a0a4>
    4618:	00000025 	andeq	r0, r0, r5, lsr #32
    461c:	0a900c18 	beq	fe407684 <__bss_end__+0xfe3fd10c>
    4620:	c1050000 	mrsgt	r0, (UNDEF: 5)
    4624:	0000010a 	andeq	r0, r0, sl, lsl #2
    4628:	0f370c1c 	svceq	0x00370c1c
    462c:	c3050000 	movwgt	r0, #20480	; 0x5000
    4630:	00000566 	andeq	r0, r0, r6, ror #10
    4634:	0f510c20 	svceq	0x00510c20
    4638:	c5050000 	strgt	r0, [r5, #-0]
    463c:	00000590 	muleq	r0, r0, r5
    4640:	0d2c0c24 	stceq	12, cr0, [ip, #-144]!	; 0xffffff70
    4644:	c8050000 	stmdagt	r5, {}	; <UNPREDICTABLE>
    4648:	000005b4 			; <UNDEFINED> instruction: 0x000005b4
    464c:	0ef10c28 	cdpeq	12, 15, cr0, cr1, cr8, {1}
    4650:	c9050000 	stmdbgt	r5, {}	; <UNPREDICTABLE>
    4654:	000005ce 	andeq	r0, r0, lr, asr #11
    4658:	755f102c 	ldrbvc	r1, [pc, #-44]	; 4634 <__code_start__-0x39cc>
    465c:	cc050062 	stcgt	0, cr0, [r5], {98}	; 0x62
    4660:	000002b6 			; <UNDEFINED> instruction: 0x000002b6
    4664:	755f1030 	ldrbvc	r1, [pc, #-48]	; 463c <__code_start__-0x39c4>
    4668:	cd050070 	stcgt	0, cr0, [r5, #-448]	; 0xfffffe40
    466c:	000002db 	ldrdeq	r0, [r0], -fp
    4670:	755f1038 	ldrbvc	r1, [pc, #-56]	; 4640 <__code_start__-0x39c0>
    4674:	ce050072 	mcrgt	0, 0, r0, cr5, cr2, {3}
    4678:	00000025 	andeq	r0, r0, r5, lsr #32
    467c:	0a530c3c 	beq	14c7774 <__bss_end__+0x14bd1fc>
    4680:	d1050000 	mrsle	r0, (UNDEF: 5)
    4684:	000005d4 	ldrdeq	r0, [r0], -r4
    4688:	0e9c0c40 	cdpeq	12, 9, cr0, cr12, cr0, {2}
    468c:	d2050000 	andle	r0, r5, #0
    4690:	000005e4 	andeq	r0, r0, r4, ror #11
    4694:	6c5f1043 	mrrcvs	0, 4, r1, pc, cr3	; <UNPREDICTABLE>
    4698:	d5050062 	strle	r0, [r5, #-98]	; 0x62
    469c:	000002b6 			; <UNDEFINED> instruction: 0x000002b6
    46a0:	0ab60c44 	beq	fed877b8 <__bss_end__+0xfed7d240>
    46a4:	d8050000 	stmdale	r5, {}	; <UNPREDICTABLE>
    46a8:	00000025 	andeq	r0, r0, r5, lsr #32
    46ac:	0c1e0c4c 	ldceq	12, cr0, [lr], {76}	; 0x4c
    46b0:	d9050000 	stmdble	r5, {}	; <UNPREDICTABLE>
    46b4:	0000007b 	andeq	r0, r0, fp, ror r0
    46b8:	0e870c50 	mcreq	12, 4, r0, cr7, cr0, {2}
    46bc:	dc050000 	stcle	0, cr0, [r5], {-0}
    46c0:	00000429 	andeq	r0, r0, r9, lsr #8
    46c4:	0c060c54 	stceq	12, cr0, [r6], {84}	; 0x54
    46c8:	e0050000 	and	r0, r5, r0
    46cc:	000000ff 	strdeq	r0, [r0], -pc	; <UNPREDICTABLE>
    46d0:	0cc20c58 	stcleq	12, cr0, [r2], {88}	; 0x58
    46d4:	e2050000 	and	r0, r5, #0
    46d8:	000000f4 	strdeq	r0, [r0], -r4
    46dc:	0c0c0c5c 	stceq	12, cr0, [ip], {92}	; 0x5c
    46e0:	e3050000 	movw	r0, #20480	; 0x5000
    46e4:	00000025 	andeq	r0, r0, r5, lsr #32
    46e8:	25140064 	ldrcs	r0, [r4, #-100]	; 0x64
    46ec:	29000000 	stmdbcs	r0, {}	; <UNPREDICTABLE>
    46f0:	15000004 	strne	r0, [r0, #-4]
    46f4:	00000429 	andeq	r0, r0, r9, lsr #8
    46f8:	00010a15 	andeq	r0, r1, r5, lsl sl
    46fc:	010c1500 	tsteq	ip, r0, lsl #10
    4700:	25150000 	ldrcs	r0, [r5, #-0]
    4704:	00000000 	andeq	r0, r0, r0
    4708:	0434040e 	ldrteq	r0, [r4], #-1038	; 0x40e
    470c:	29040000 	stmdbcs	r4, {}	; <UNPREDICTABLE>
    4710:	16000004 	strne	r0, [r0], -r4
    4714:	00000d0f 	andeq	r0, r0, pc, lsl #26
    4718:	38050428 	stmdacc	r5, {r3, r5, sl}
    471c:	00056602 	andeq	r6, r5, r2, lsl #12
    4720:	0c8a1700 	stceq	7, cr1, [sl], {0}
    4724:	3a050000 	bcc	14472c <__bss_end__+0x13a1b4>
    4728:	00002502 	andeq	r2, r0, r2, lsl #10
    472c:	af170000 	svcge	0x00170000
    4730:	0500000a 	streq	r0, [r0, #-10]
    4734:	063b023f 			; <UNDEFINED> instruction: 0x063b023f
    4738:	17040000 	strne	r0, [r4, -r0]
    473c:	00000ba3 	andeq	r0, r0, r3, lsr #23
    4740:	3b023f05 	blcc	9435c <__bss_end__+0x89de4>
    4744:	08000006 	stmdaeq	r0, {r1, r2}
    4748:	000b6417 	andeq	r6, fp, r7, lsl r4
    474c:	023f0500 	eorseq	r0, pc, #0, 10
    4750:	0000063b 	andeq	r0, r0, fp, lsr r6
    4754:	0ce3170c 	stcleq	7, cr1, [r3], #48	; 0x30
    4758:	41050000 	mrsmi	r0, (UNDEF: 5)
    475c:	00002502 	andeq	r2, r0, r2, lsl #10
    4760:	da171000 	ble	5c8768 <__bss_end__+0x5be1f0>
    4764:	05000009 	streq	r0, [r0, #-9]
    4768:	081d0242 	ldmdaeq	sp, {r1, r6, r9}
    476c:	17140000 	ldrne	r0, [r4, -r0]
    4770:	00000e01 	andeq	r0, r0, r1, lsl #28
    4774:	25024405 	strcs	r4, [r2, #-1029]	; 0x405
    4778:	30000000 	andcc	r0, r0, r0
    477c:	000ced17 	andeq	lr, ip, r7, lsl sp
    4780:	02450500 	subeq	r0, r5, #0, 10
    4784:	0000058a 	andeq	r0, r0, sl, lsl #11
    4788:	0c501734 	mrrceq	7, 3, r1, r0, cr4
    478c:	47050000 	strmi	r0, [r5, -r0]
    4790:	00002502 	andeq	r2, r0, r2, lsl #10
    4794:	fd173800 	ldc2	8, cr3, [r7, #-0]
    4798:	0500000c 	streq	r0, [r0, #-12]
    479c:	08380249 	ldmdaeq	r8!, {r0, r3, r6, r9}
    47a0:	173c0000 	ldrne	r0, [ip, -r0]!
    47a4:	00000be2 	andeq	r0, r0, r2, ror #23
    47a8:	7c024c05 	stcvc	12, cr4, [r2], {5}
    47ac:	40000001 	andmi	r0, r0, r1
    47b0:	000b8317 	andeq	r8, fp, r7, lsl r3
    47b4:	024d0500 	subeq	r0, sp, #0, 10
    47b8:	00000025 	andeq	r0, r0, r5, lsr #32
    47bc:	0f0b1744 	svceq	0x000b1744
    47c0:	4e050000 	cdpmi	0, 0, cr0, cr5, cr0, {0}
    47c4:	00017c02 	andeq	r7, r1, r2, lsl #24
    47c8:	67174800 	ldrvs	r4, [r7, -r0, lsl #16]
    47cc:	0500000c 	streq	r0, [r0, #-12]
    47d0:	083e024f 	ldmdaeq	lr!, {r0, r1, r2, r3, r6, r9}
    47d4:	174c0000 	strbne	r0, [ip, -r0]
    47d8:	00000bab 	andeq	r0, r0, fp, lsr #23
    47dc:	25025205 	strcs	r5, [r2, #-517]	; 0x205
    47e0:	50000000 	andpl	r0, r0, r0
    47e4:	000ad217 	andeq	sp, sl, r7, lsl r2
    47e8:	02530500 	subseq	r0, r3, #0, 10
    47ec:	0000010c 	andeq	r0, r0, ip, lsl #2
    47f0:	0c831754 	stceq	7, cr1, [r3], {84}	; 0x54
    47f4:	76050000 	strvc	r0, [r5], -r0
    47f8:	0007fb02 	andeq	pc, r7, r2, lsl #22
    47fc:	48185800 	ldmdami	r8, {fp, ip, lr}
    4800:	0500000c 	streq	r0, [r0, #-12]
    4804:	0299027a 	addseq	r0, r9, #-1610612729	; 0xa0000007
    4808:	01480000 	mrseq	r0, (UNDEF: 72)
    480c:	000bc018 	andeq	ip, fp, r8, lsl r0
    4810:	027b0500 	rsbseq	r0, fp, #0, 10
    4814:	0000025b 	andeq	r0, r0, fp, asr r2
    4818:	6d18014c 	ldfvss	f0, [r8, #-304]	; 0xfffffed0
    481c:	0500000e 	streq	r0, [r0, #-14]
    4820:	084f027f 	stmdaeq	pc, {r0, r1, r2, r3, r4, r5, r6, r9}^	; <UNPREDICTABLE>
    4824:	02dc0000 	sbcseq	r0, ip, #0
    4828:	000a9818 	andeq	r9, sl, r8, lsl r8
    482c:	02840500 	addeq	r0, r4, #0, 10
    4830:	00000600 	andeq	r0, r0, r0, lsl #12
    4834:	7d1802e0 	lfmvc	f0, 4, [r8, #-896]	; 0xfffffc80
    4838:	0500000a 	streq	r0, [r0, #-10]
    483c:	085b0285 	ldmdaeq	fp, {r0, r2, r7, r9}^
    4840:	02ec0000 	rsceq	r0, ip, #0
    4844:	0b040e00 	bleq	10804c <__bss_end__+0xfdad4>
    4848:	14000004 	strne	r0, [r0], #-4
    484c:	00000025 	andeq	r0, r0, r5, lsr #32
    4850:	0000058a 	andeq	r0, r0, sl, lsl #11
    4854:	00042915 	andeq	r2, r4, r5, lsl r9
    4858:	010a1500 	tsteq	sl, r0, lsl #10
    485c:	8a150000 	bhi	544864 <__bss_end__+0x53a2ec>
    4860:	15000005 	strne	r0, [r0, #-5]
    4864:	00000025 	andeq	r0, r0, r5, lsr #32
    4868:	19040e00 	stmdbne	r4, {r9, sl, fp}
    486c:	0e000001 	cdpeq	0, 0, cr0, cr0, cr1, {0}
    4870:	00056c04 	andeq	r6, r5, r4, lsl #24
    4874:	00861400 	addeq	r1, r6, r0, lsl #8
    4878:	05b40000 	ldreq	r0, [r4, #0]!
    487c:	29150000 	ldmdbcs	r5, {}	; <UNPREDICTABLE>
    4880:	15000004 	strne	r0, [r0, #-4]
    4884:	0000010a 	andeq	r0, r0, sl, lsl #2
    4888:	00008615 	andeq	r8, r0, r5, lsl r6
    488c:	00251500 	eoreq	r1, r5, r0, lsl #10
    4890:	0e000000 	cdpeq	0, 0, cr0, cr0, cr0, {0}
    4894:	00059604 	andeq	r9, r5, r4, lsl #12
    4898:	00251400 	eoreq	r1, r5, r0, lsl #8
    489c:	05ce0000 	strbeq	r0, [lr]
    48a0:	29150000 	ldmdbcs	r5, {}	; <UNPREDICTABLE>
    48a4:	15000004 	strne	r0, [r0, #-4]
    48a8:	0000010a 	andeq	r0, r0, sl, lsl #2
    48ac:	ba040e00 	blt	1080b4 <__bss_end__+0xfdb3c>
    48b0:	09000005 	stmdbeq	r0, {r0, r2}
    48b4:	00000054 	andeq	r0, r0, r4, asr r0
    48b8:	000005e4 	andeq	r0, r0, r4, ror #11
    48bc:	0000cc0a 	andeq	ip, r0, sl, lsl #24
    48c0:	09000200 	stmdbeq	r0, {r9}
    48c4:	00000054 	andeq	r0, r0, r4, asr r0
    48c8:	000005f4 	strdeq	r0, [r0], -r4
    48cc:	0000cc0a 	andeq	ip, r0, sl, lsl #24
    48d0:	06000000 	streq	r0, [r0], -r0
    48d4:	00000ca8 	andeq	r0, r0, r8, lsr #25
    48d8:	e1011d05 	tst	r1, r5, lsl #26
    48dc:	19000002 	stmdbne	r0, {r1}
    48e0:	00000e2f 	andeq	r0, r0, pc, lsr #28
    48e4:	0121050c 	teqeq	r1, ip, lsl #10
    48e8:	00000635 	andeq	r0, r0, r5, lsr r6
    48ec:	000cd017 	andeq	sp, ip, r7, lsl r0
    48f0:	01230500 	teqeq	r3, r0, lsl #10
    48f4:	00000635 	andeq	r0, r0, r5, lsr r6
    48f8:	0bb91700 	bleq	fee4a500 <__bss_end__+0xfee3ff88>
    48fc:	24050000 	strcs	r0, [r5], #-0
    4900:	00002501 	andeq	r2, r0, r1, lsl #10
    4904:	a2170400 	andsge	r0, r7, #0, 8
    4908:	0500000c 	streq	r0, [r0, #-12]
    490c:	063b0125 	ldrteq	r0, [fp], -r5, lsr #2
    4910:	00080000 	andeq	r0, r8, r0
    4914:	0600040e 	streq	r0, [r0], -lr, lsl #8
    4918:	040e0000 	streq	r0, [lr], #-0
    491c:	000005f4 	strdeq	r0, [r0], -r4
    4920:	0009d219 	andeq	sp, r9, r9, lsl r2
    4924:	3d050e00 	stccc	14, cr0, [r5, #-0]
    4928:	00067601 	andeq	r7, r6, r1, lsl #12
    492c:	0d161700 	ldceq	7, cr1, [r6, #-0]
    4930:	3e050000 	cdpcc	0, 0, cr0, cr5, cr0, {0}
    4934:	00067601 	andeq	r7, r6, r1, lsl #12
    4938:	50170000 	andspl	r0, r7, r0
    493c:	0500000d 	streq	r0, [r0, #-13]
    4940:	0676013f 			; <UNDEFINED> instruction: 0x0676013f
    4944:	17060000 	strne	r0, [r6, -r0]
    4948:	00000dd4 	ldrdeq	r0, [r0], -r4
    494c:	5b014005 	blpl	54968 <__bss_end__+0x4a3f0>
    4950:	0c000000 	stceq	0, cr0, [r0], {-0}
    4954:	005b0900 	subseq	r0, fp, r0, lsl #18
    4958:	06860000 	streq	r0, [r6], r0
    495c:	cc0a0000 	stcgt	0, cr0, [sl], {-0}
    4960:	02000000 	andeq	r0, r0, #0
    4964:	05d01a00 	ldrbeq	r1, [r0, #2560]	; 0xa00
    4968:	07870257 			; <UNDEFINED> instruction: 0x07870257
    496c:	13170000 	tstne	r7, #0
    4970:	0500000e 	streq	r0, [r0, #-14]
    4974:	002c0259 	eoreq	r0, ip, r9, asr r2
    4978:	17000000 	strne	r0, [r0, -r0]
    497c:	00000dbe 			; <UNDEFINED> instruction: 0x00000dbe
    4980:	0c025a05 	stceq	10, cr5, [r2], {5}
    4984:	04000001 	streq	r0, [r0], #-1
    4988:	000bd517 	andeq	sp, fp, r7, lsl r5
    498c:	025b0500 	subseq	r0, fp, #0, 10
    4990:	00000787 	andeq	r0, r0, r7, lsl #15
    4994:	0ee21708 	cdpeq	7, 14, cr1, cr2, cr8, {0}
    4998:	5c050000 	stcpl	0, cr0, [r5], {-0}
    499c:	00019202 	andeq	r9, r1, r2, lsl #4
    49a0:	74172400 	ldrvc	r2, [r7], #-1024	; 0x400
    49a4:	0500000b 	streq	r0, [r0, #-11]
    49a8:	0025025d 	eoreq	r0, r5, sp, asr r2
    49ac:	17480000 	strbne	r0, [r8, -r0]
    49b0:	00000ccb 	andeq	r0, r0, fp, asr #25
    49b4:	69025e05 	stmdbvs	r2, {r0, r2, r9, sl, fp, ip, lr}
    49b8:	50000000 	andpl	r0, r0, r0
    49bc:	000ef817 	andeq	pc, lr, r7, lsl r8	; <UNPREDICTABLE>
    49c0:	025f0500 	subseq	r0, pc, #0, 10
    49c4:	00000641 	andeq	r0, r0, r1, asr #12
    49c8:	0cd61758 	ldcleq	7, cr1, [r6], {88}	; 0x58
    49cc:	60050000 	andvs	r0, r5, r0
    49d0:	0000f402 	andeq	pc, r0, r2, lsl #8
    49d4:	fd176800 	ldc2	8, cr6, [r7, #-0]
    49d8:	0500000e 	streq	r0, [r0, #-14]
    49dc:	00f40261 	rscseq	r0, r4, r1, ror #4
    49e0:	17700000 	ldrbne	r0, [r0, -r0]!
    49e4:	00000a37 	andeq	r0, r0, r7, lsr sl
    49e8:	f4026205 	vst1.8	{d6-d9}, [r2], r5
    49ec:	78000000 	stmdavc	r0, {}	; <UNPREDICTABLE>
    49f0:	000e4f17 	andeq	r4, lr, r7, lsl pc
    49f4:	02630500 	rsbeq	r0, r3, #0, 10
    49f8:	00000797 	muleq	r0, r7, r7
    49fc:	0bc91780 	bleq	ff24a804 <__bss_end__+0xff24028c>
    4a00:	64050000 	strvs	r0, [r5], #-0
    4a04:	0007a702 	andeq	sl, r7, r2, lsl #14
    4a08:	e1178800 	tst	r7, r0, lsl #16
    4a0c:	0500000d 	streq	r0, [r0, #-13]
    4a10:	00250265 	eoreq	r0, r5, r5, ror #4
    4a14:	17a00000 	strne	r0, [r0, r0]!
    4a18:	00000b20 	andeq	r0, r0, r0, lsr #22
    4a1c:	f4026605 	vst1.8	{d6-d8}, [r2], r5
    4a20:	a4000000 	strge	r0, [r0], #-0
    4a24:	000a2817 	andeq	r2, sl, r7, lsl r8
    4a28:	02670500 	rsbeq	r0, r7, #0, 10
    4a2c:	000000f4 	strdeq	r0, [r0], -r4
    4a30:	0b0f17ac 	bleq	3ca8e8 <__bss_end__+0x3c0370>
    4a34:	68050000 	stmdavs	r5, {}	; <UNPREDICTABLE>
    4a38:	0000f402 	andeq	pc, r0, r2, lsl #8
    4a3c:	ef17b400 	svc	0x0017b400
    4a40:	05000009 	streq	r0, [r0, #-9]
    4a44:	00f40269 	rscseq	r0, r4, r9, ror #4
    4a48:	17bc0000 	ldrne	r0, [ip, r0]!
    4a4c:	000009fe 	strdeq	r0, [r0], -lr
    4a50:	f4026a05 	vst1.8	{d6-d7}, [r2], r5
    4a54:	c4000000 	strgt	r0, [r0], #-0
    4a58:	000c8817 	andeq	r8, ip, r7, lsl r8
    4a5c:	026b0500 	rsbeq	r0, fp, #0, 10
    4a60:	00000025 	andeq	r0, r0, r5, lsr #32
    4a64:	120900cc 	andne	r0, r9, #204	; 0xcc
    4a68:	97000001 	strls	r0, [r0, -r1]
    4a6c:	0a000007 	beq	4a90 <__code_start__-0x3570>
    4a70:	000000cc 	andeq	r0, r0, ip, asr #1
    4a74:	12090019 	andne	r0, r9, #25
    4a78:	a7000001 	strge	r0, [r0, -r1]
    4a7c:	0a000007 	beq	4aa0 <__code_start__-0x3560>
    4a80:	000000cc 	andeq	r0, r0, ip, asr #1
    4a84:	12090007 	andne	r0, r9, #7
    4a88:	b7000001 	strlt	r0, [r0, -r1]
    4a8c:	0a000007 	beq	4ab0 <__code_start__-0x3550>
    4a90:	000000cc 	andeq	r0, r0, ip, asr #1
    4a94:	f01a0017 			; <UNDEFINED> instruction: 0xf01a0017
    4a98:	db027005 	blle	a0ab4 <__bss_end__+0x9653c>
    4a9c:	17000007 	strne	r0, [r0, -r7]
    4aa0:	00000c38 	andeq	r0, r0, r8, lsr ip
    4aa4:	db027305 	blle	a16c0 <__bss_end__+0x97148>
    4aa8:	00000007 	andeq	r0, r0, r7
    4aac:	000e4617 	andeq	r4, lr, r7, lsl r6
    4ab0:	02740500 	rsbseq	r0, r4, #0, 10
    4ab4:	000007eb 	andeq	r0, r0, fp, ror #15
    4ab8:	db090078 	blle	244ca0 <__bss_end__+0x23a728>
    4abc:	eb000002 	bl	4acc <__code_start__-0x3534>
    4ac0:	0a000007 	beq	4ae4 <__code_start__-0x351c>
    4ac4:	000000cc 	andeq	r0, r0, ip, asr #1
    4ac8:	2c09001d 	stccs	0, cr0, [r9], {29}
    4acc:	fb000000 	blx	4ad6 <__code_start__-0x352a>
    4ad0:	0a000007 	beq	4af4 <__code_start__-0x350c>
    4ad4:	000000cc 	andeq	r0, r0, ip, asr #1
    4ad8:	f01b001d 			; <UNDEFINED> instruction: 0xf01b001d
    4adc:	1d025505 	cfstr32ne	mvfx5, [r2, #-20]	; 0xffffffec
    4ae0:	1c000008 	stcne	0, cr0, [r0], {8}
    4ae4:	00000d0f 	andeq	r0, r0, pc, lsl #26
    4ae8:	86026c05 	strhi	r6, [r2], -r5, lsl #24
    4aec:	1c000006 	stcne	0, cr0, [r0], {6}
    4af0:	00000ea2 	andeq	r0, r0, r2, lsr #29
    4af4:	b7027505 	strlt	r7, [r2, -r5, lsl #10]
    4af8:	00000007 	andeq	r0, r0, r7
    4afc:	00011209 	andeq	r1, r1, r9, lsl #4
    4b00:	00082d00 	andeq	r2, r8, r0, lsl #26
    4b04:	00cc0a00 	sbceq	r0, ip, r0, lsl #20
    4b08:	00180000 	andseq	r0, r8, r0
    4b0c:	0008381d 	andeq	r3, r8, sp, lsl r8
    4b10:	04291500 	strteq	r1, [r9], #-1280	; 0x500
    4b14:	0e000000 	cdpeq	0, 0, cr0, cr0, cr0, {0}
    4b18:	00082d04 	andeq	r2, r8, r4, lsl #26
    4b1c:	7c040e00 	stcvc	14, cr0, [r4], {-0}
    4b20:	1d000001 	stcne	0, cr0, [r0, #-4]
    4b24:	0000084f 	andeq	r0, r0, pc, asr #16
    4b28:	00002515 	andeq	r2, r0, r5, lsl r5
    4b2c:	040e0000 	streq	r0, [lr], #-0
    4b30:	00000855 	andeq	r0, r0, r5, asr r8
    4b34:	0844040e 	stmdaeq	r4, {r1, r2, r3, sl}^
    4b38:	f4090000 	vst4.8	{d0-d3}, [r9], r0
    4b3c:	6b000005 	blvs	4b58 <__code_start__-0x34a8>
    4b40:	0a000008 	beq	4b68 <__code_start__-0x3498>
    4b44:	000000cc 	andeq	r0, r0, ip, asr #1
    4b48:	f51e0002 			; <UNDEFINED> instruction: 0xf51e0002
    4b4c:	0500000d 	streq	r0, [r0, #-13]
    4b50:	042902fd 	strteq	r0, [r9], #-765	; 0x2fd
    4b54:	ee1e0000 	cdp	0, 1, cr0, cr14, cr0, {0}
    4b58:	0500000d 	streq	r0, [r0, #-13]
    4b5c:	042f02fe 	strteq	r0, [pc], #-766	; 4b64 <__code_start__-0x349c>
    4b60:	25140000 	ldrcs	r0, [r4, #-0]
    4b64:	92000000 	andls	r0, r0, #0
    4b68:	15000008 	strne	r0, [r0, #-8]
    4b6c:	00000025 	andeq	r0, r0, r5, lsr #32
    4b70:	05ef1f00 	strbeq	r1, [pc, #3840]!	; 5a78 <__code_start__-0x2588>
    4b74:	1d060000 	stcne	0, cr0, [r6, #-0]
    4b78:	0000089d 	muleq	r0, sp, r8
    4b7c:	0883040e 	stmeq	r3, {r1, r2, r3, sl}
    4b80:	25140000 	ldrcs	r0, [r4, #-0]
    4b84:	b2000000 	andlt	r0, r0, #0
    4b88:	15000008 	strne	r0, [r0, #-8]
    4b8c:	0000058a 	andeq	r0, r0, sl, lsl #11
    4b90:	062c1f00 	strteq	r1, [ip], -r0, lsl #30
    4b94:	22060000 	andcs	r0, r6, #0
    4b98:	000008bd 			; <UNDEFINED> instruction: 0x000008bd
    4b9c:	08a3040e 	stmiaeq	r3!, {r1, r2, r3, sl}
    4ba0:	01200000 	teqeq	r0, r0
    4ba4:	00000054 	andeq	r0, r0, r4, asr r0
    4ba8:	09000c07 	stmdbeq	r0, {r0, r1, r2, sl, fp}
    4bac:	18210000 	stmdane	r1!, {}	; <UNPREDICTABLE>
    4bb0:	0000000a 	andeq	r0, r0, sl
    4bb4:	000e3521 	andeq	r3, lr, r1, lsr #10
    4bb8:	8d210100 	stfhis	f0, [r1, #-0]
    4bbc:	0400000e 	streq	r0, [r0], #-14
    4bc0:	000a5921 	andeq	r5, sl, r1, lsr #18
    4bc4:	f0210500 			; <UNDEFINED> instruction: 0xf0210500
    4bc8:	0600000b 	streq	r0, [r0], -fp
    4bcc:	000eaa21 	andeq	sl, lr, r1, lsr #20
    4bd0:	b9210700 	stmdblt	r1!, {r8, r9, sl}
    4bd4:	0300000e 	movweq	r0, #14
    4bd8:	000ec821 	andeq	ip, lr, r1, lsr #16
    4bdc:	05000200 	streq	r0, [r0, #-512]	; 0x200
    4be0:	00000f87 	andeq	r0, r0, r7, lsl #31
    4be4:	08c31507 	stmiaeq	r3, {r0, r1, r2, r8, sl, ip}^
    4be8:	58220000 	stmdapl	r2!, {}	; <UNPREDICTABLE>
    4bec:	0100000f 	tsteq	r0, pc
    4bf0:	0000331d 	andeq	r3, r0, sp, lsl r3
    4bf4:	20001c00 	andcs	r1, r0, r0, lsl #24
    4bf8:	0f932220 	svceq	0x00932220
    4bfc:	1e010000 	cdpne	0, 0, cr0, cr1, cr0, {0}
    4c00:	00000033 	andeq	r0, r0, r3, lsr r0
    4c04:	20200028 	eorcs	r0, r0, r8, lsr #32
    4c08:	000f6222 	andeq	r6, pc, r2, lsr #4
    4c0c:	331f0100 	tstcc	pc, #0, 2
    4c10:	34000000 	strcc	r0, [r0], #-0
    4c14:	23202000 	teqcs	r0, #0
    4c18:	00000f33 	andeq	r0, r0, r3, lsr pc
    4c1c:	00255601 	eoreq	r5, r5, r1, lsl #12
    4c20:	99580000 	ldmdbls	r8, {}^	; <UNPREDICTABLE>
    4c24:	00340000 	eorseq	r0, r4, r0
    4c28:	9c010000 	stcls	0, cr0, [r1], {-0}
    4c2c:	00000998 	muleq	r0, r8, r9
    4c30:	6e697024 	cdpvs	0, 6, cr7, cr9, cr4, {1}
    4c34:	2c560100 	ldfcse	f0, [r6], {-0}
    4c38:	7a000000 	bvc	4c40 <__code_start__-0x33c0>
    4c3c:	2500000f 	strcs	r0, [r0, #-15]
    4c40:	00000f27 	andeq	r0, r0, r7, lsr #30
    4c44:	002c5901 	eoreq	r5, ip, r1, lsl #18
    4c48:	0fb40000 	svceq	0x00b40000
    4c4c:	6f260000 	svcvs	0x00260000
    4c50:	01006666 	tsteq	r0, r6, ror #12
    4c54:	00002c5a 	andeq	r2, r0, sl, asr ip
    4c58:	000ff200 	andeq	pc, pc, r0, lsl #4
    4c5c:	99742700 	ldmdbls	r4!, {r8, r9, sl, sp}^
    4c60:	0b5d0000 	bleq	1744c68 <__bss_end__+0x173a6f0>
    4c64:	01280000 	teqeq	r8, r0
    4c68:	01f30b50 	mvnseq	r0, r0, asr fp
    4c6c:	23253550 	teqcs	r5, #80, 10	; 0x14000000
    4c70:	818080b4 	strhhi	r8, [r0, r4]
    4c74:	29000002 	stmdbcs	r0, {r1}
    4c78:	00000f4d 	andeq	r0, r0, sp, asr #30
    4c7c:	993c4f01 	ldmdbls	ip!, {r0, r8, r9, sl, fp, lr}
    4c80:	001c0000 	andseq	r0, ip, r0
    4c84:	9c010000 	stcls	0, cr0, [r1], {-0}
    4c88:	000009e8 	andeq	r0, r0, r8, ror #19
    4c8c:	6e697024 	cdpvs	0, 6, cr7, cr9, cr4, {1}
    4c90:	2c4f0100 	stfcse	f0, [pc], {-0}
    4c94:	05000000 	streq	r0, [r0, #-0]
    4c98:	24000010 	strcs	r0, [r0], #-16
    4c9c:	4f010076 	svcmi	0x00010076
    4ca0:	0000002c 	andeq	r0, r0, ip, lsr #32
    4ca4:	0000103f 	andeq	r1, r0, pc, lsr r0
    4ca8:	00994c2a 	addseq	r4, r9, sl, lsr #24
    4cac:	000a2300 	andeq	r2, sl, r0, lsl #6
    4cb0:	0009de00 	andeq	sp, r9, r0, lsl #28
    4cb4:	50012800 	andpl	r2, r1, r0, lsl #16
    4cb8:	5001f303 	andpl	pc, r1, r3, lsl #6
    4cbc:	99542b00 	ldmdbls	r4, {r8, r9, fp, sp}^
    4cc0:	0a640000 	beq	1904cc8 <__bss_end__+0x18fa750>
    4cc4:	29000000 	stmdbcs	r0, {}	; <UNPREDICTABLE>
    4cc8:	00000f6c 	andeq	r0, r0, ip, ror #30
    4ccc:	992c4a01 	stmdbls	ip!, {r0, r9, fp, lr}
    4cd0:	00100000 	andseq	r0, r0, r0
    4cd4:	9c010000 	stcls	0, cr0, [r1], {-0}
    4cd8:	00000a23 	andeq	r0, r0, r3, lsr #20
    4cdc:	6e697024 	cdpvs	0, 6, cr7, cr9, cr4, {1}
    4ce0:	2c4a0100 	stfcse	f0, [sl], {-0}
    4ce4:	79000000 	stmdbvc	r0, {}	; <UNPREDICTABLE>
    4ce8:	27000010 	smladcs	r0, r0, r0, r0
    4cec:	00009938 	andeq	r9, r0, r8, lsr r9
    4cf0:	00000ae0 	andeq	r0, r0, r0, ror #21
    4cf4:	03500128 	cmpeq	r0, #40, 2
    4cf8:	285001f3 	ldmdacs	r0, {r0, r1, r4, r5, r6, r7, r8}^
    4cfc:	30015101 	andcc	r5, r1, r1, lsl #2
    4d00:	1a290000 	bne	a44d08 <__bss_end__+0xa3a790>
    4d04:	0100000f 	tsteq	r0, pc
    4d08:	00990843 	addseq	r0, r9, r3, asr #16
    4d0c:	00002400 	andeq	r2, r0, r0, lsl #8
    4d10:	649c0100 	ldrvs	r0, [ip], #256	; 0x100
    4d14:	2400000a 	strcs	r0, [r0], #-10
    4d18:	006e6970 	rsbeq	r6, lr, r0, ror r9
    4d1c:	002c4301 	eoreq	r4, ip, r1, lsl #6
    4d20:	109a0000 	addsne	r0, sl, r0
    4d24:	24270000 	strtcs	r0, [r7], #-0
    4d28:	68000099 	stmdavs	r0, {r0, r3, r4, r7}
    4d2c:	2800000b 	stmdacs	r0, {r0, r1, r3}
    4d30:	0c055001 	stceq	0, cr5, [r5], {1}
    4d34:	20200028 	eorcs	r0, r0, r8, lsr #32
    4d38:	05510128 	ldrbeq	r0, [r1, #-296]	; 0x128
    4d3c:	5001f331 	andpl	pc, r1, r1, lsr r3	; <UNPREDICTABLE>
    4d40:	29000024 	stmdbcs	r0, {r2, r5}
    4d44:	00000f7b 	andeq	r0, r0, fp, ror pc
    4d48:	98e43c01 	stmials	r4!, {r0, sl, fp, ip, sp}^
    4d4c:	00240000 	eoreq	r0, r4, r0
    4d50:	9c010000 	stcls	0, cr0, [r1], {-0}
    4d54:	00000aa5 	andeq	r0, r0, r5, lsr #21
    4d58:	6e697024 	cdpvs	0, 6, cr7, cr9, cr4, {1}
    4d5c:	2c3c0100 	ldfcss	f0, [ip], #-0
    4d60:	bb000000 	bllt	4d68 <__code_start__-0x3298>
    4d64:	27000010 	smladcs	r0, r0, r0, r0
    4d68:	00009900 	andeq	r9, r0, r0, lsl #18
    4d6c:	00000b68 	andeq	r0, r0, r8, ror #22
    4d70:	05500128 	ldrbeq	r0, [r0, #-296]	; 0x128
    4d74:	20001c0c 	andcs	r1, r0, ip, lsl #24
    4d78:	51012820 	tstpl	r1, r0, lsr #16
    4d7c:	01f33105 	mvnseq	r3, r5, lsl #2
    4d80:	00002450 	andeq	r2, r0, r0, asr r4
    4d84:	000f3d29 	andeq	r3, pc, r9, lsr #26
    4d88:	d4370100 	ldrtle	r0, [r7], #-256	; 0x100
    4d8c:	10000098 	mulne	r0, r8, r0
    4d90:	01000000 	mrseq	r0, (UNDEF: 0)
    4d94:	000ae09c 	muleq	sl, ip, r0
    4d98:	69702400 	ldmdbvs	r0!, {sl, sp}^
    4d9c:	3701006e 	strcc	r0, [r1, -lr, rrx]
    4da0:	0000002c 	andeq	r0, r0, ip, lsr #32
    4da4:	000010dc 	ldrdeq	r1, [r0], -ip
    4da8:	0098e027 	addseq	lr, r8, r7, lsr #32
    4dac:	000ae000 	andeq	lr, sl, r0
    4db0:	50012800 	andpl	r2, r1, r0, lsl #16
    4db4:	5001f303 	andpl	pc, r1, r3, lsl #6
    4db8:	01510128 	cmpeq	r1, r8, lsr #2
    4dbc:	29000031 	stmdbcs	r0, {r0, r4, r5}
    4dc0:	00000c26 	andeq	r0, r0, r6, lsr #24
    4dc4:	986c2801 	stmdals	ip!, {r0, fp, sp}^
    4dc8:	00680000 	rsbeq	r0, r8, r0
    4dcc:	9c010000 	stcls	0, cr0, [r1], {-0}
    4dd0:	00000b5d 	andeq	r0, r0, sp, asr fp
    4dd4:	6e697024 	cdpvs	0, 6, cr7, cr9, cr4, {1}
    4dd8:	2c280100 	stfcss	f0, [r8], #-0
    4ddc:	fd000000 	stc2	0, cr0, [r0, #-0]
    4de0:	2c000010 	stccs	0, cr0, [r0], {16}
    4de4:	00000e72 	andeq	r0, r0, r2, ror lr
    4de8:	09002801 	stmdbeq	r0, {r0, fp, sp}
    4dec:	111e0000 	tstne	lr, r0
    4df0:	6f2d0000 	svcvs	0x002d0000
    4df4:	01006666 	tsteq	r0, r6, ror #12
    4df8:	00002c2d 	andeq	r2, r0, sp, lsr #24
    4dfc:	2d540100 	ldfcse	f0, [r4, #-0]
    4e00:	2f010067 	svccs	0x00010067
    4e04:	0000002c 	andeq	r0, r0, ip, lsr #32
    4e08:	76265601 	strtvc	r5, [r6], -r1, lsl #12
    4e0c:	2c310100 	ldfcss	f0, [r1], #-0
    4e10:	3f000000 	svccc	0x00000000
    4e14:	2a000011 	bcs	4e60 <__code_start__-0x31a0>
    4e18:	000098b8 			; <UNDEFINED> instruction: 0x000098b8
    4e1c:	00000b5d 	andeq	r0, r0, sp, asr fp
    4e20:	00000b4c 	andeq	r0, r0, ip, asr #22
    4e24:	02500128 	subseq	r0, r0, #40, 2
    4e28:	27000076 	smlsdxcs	r0, r6, r0, r0
    4e2c:	000098cc 	andeq	r9, r0, ip, asr #17
    4e30:	00000b68 	andeq	r0, r0, r8, ror #22
    4e34:	02500128 	subseq	r0, r0, #40, 2
    4e38:	00000076 	andeq	r0, r0, r6, ror r0
    4e3c:	00098f2e 	andeq	r8, r9, lr, lsr #30
    4e40:	00098f00 	andeq	r8, r9, r0, lsl #30
    4e44:	2ea70600 	cdpcs	6, 10, cr0, cr7, cr0, {0}
    4e48:	000008c9 	andeq	r0, r0, r9, asr #17
    4e4c:	000008c9 	andeq	r0, r0, r9, asr #17
    4e50:	Address 0x0000000000004e50 is out of bounds.


Disassembly of section .debug_abbrev:

00000000 <.debug_abbrev>:
       0:	25011101 	strcs	r1, [r1, #-257]	; 0x101
       4:	030b130e 	movweq	r1, #45838	; 0xb30e
       8:	110e1b0e 	tstne	lr, lr, lsl #22
       c:	10061201 	andne	r1, r6, r1, lsl #4
      10:	02000017 	andeq	r0, r0, #23
      14:	0b0b0024 	bleq	2c00ac <__bss_end__+0x2b5b34>
      18:	08030b3e 	stmdaeq	r3, {r1, r2, r3, r4, r5, r8, r9, fp}
      1c:	24030000 	strcs	r0, [r3], #-0
      20:	3e0b0b00 	vmlacc.f64	d0, d11, d0
      24:	000e030b 	andeq	r0, lr, fp, lsl #6
      28:	00160400 	andseq	r0, r6, r0, lsl #8
      2c:	0b3a0e03 	bleq	e83840 <__bss_end__+0xe792c8>
      30:	13490b3b 	movtne	r0, #39739	; 0x9b3b
      34:	0f050000 	svceq	0x00050000
      38:	490b0b00 	stmdbmi	fp, {r8, r9, fp}
      3c:	06000013 			; <UNDEFINED> instruction: 0x06000013
      40:	13490026 	movtne	r0, #36902	; 0x9026
      44:	01070000 	mrseq	r0, (UNDEF: 7)
      48:	01134901 	tsteq	r3, r1, lsl #18
      4c:	08000013 	stmdaeq	r0, {r0, r1, r4}
      50:	13490021 	movtne	r0, #36897	; 0x9021
      54:	00000b2f 	andeq	r0, r0, pc, lsr #22
      58:	03011309 	movweq	r1, #4873	; 0x1309
      5c:	3a0b0b0e 	bcc	2c2c9c <__bss_end__+0x2b8724>
      60:	010b3b0b 	tsteq	fp, fp, lsl #22
      64:	0a000013 	beq	b8 <__code_start__-0x7f48>
      68:	0e03000d 	cdpeq	0, 0, cr0, cr3, cr13, {0}
      6c:	0b3b0b3a 	bleq	ec2d5c <__bss_end__+0xeb87e4>
      70:	0b381349 	bleq	e04d9c <__bss_end__+0xdfa824>
      74:	0d0b0000 	stceq	0, cr0, [fp, #-0]
      78:	3a080300 	bcc	200c80 <__bss_end__+0x1f6708>
      7c:	490b3b0b 	stmdbmi	fp, {r0, r1, r3, r8, r9, fp, ip, sp}
      80:	000b3813 	andeq	r3, fp, r3, lsl r8
      84:	00350c00 	eorseq	r0, r5, r0, lsl #24
      88:	150d0000 	strne	r0, [sp, #-0]
      8c:	01192701 	tsteq	r9, r1, lsl #14
      90:	0e000013 	mcreq	0, 0, r0, cr0, cr3, {0}
      94:	13490005 	movtne	r0, #36869	; 0x9005
      98:	150f0000 	strne	r0, [pc, #-0]	; a0 <__code_start__-0x7f60>
      9c:	49192701 	ldmdbmi	r9, {r0, r8, r9, sl, sp}
      a0:	00130113 	andseq	r0, r3, r3, lsl r1
      a4:	00351000 	eorseq	r1, r5, r0
      a8:	00001349 	andeq	r1, r0, r9, asr #6
      ac:	03012e11 	movweq	r2, #7697	; 0x1e11
      b0:	3b0b3a0e 	blcc	2ce8f0 <__bss_end__+0x2c4378>
      b4:	1119270b 	tstne	r9, fp, lsl #14
      b8:	40061201 	andmi	r1, r6, r1, lsl #4
      bc:	19429718 	stmdbne	r2, {r3, r4, r8, r9, sl, ip, pc}^
      c0:	00001301 	andeq	r1, r0, r1, lsl #6
      c4:	03000512 	movweq	r0, #1298	; 0x512
      c8:	3b0b3a08 	blcc	2ce8f0 <__bss_end__+0x2c4378>
      cc:	0213490b 	andseq	r4, r3, #180224	; 0x2c000
      d0:	13000017 	movwne	r0, #23
      d4:	0e030034 	mcreq	0, 0, r0, cr3, cr4, {1}
      d8:	19341349 	ldmdbne	r4!, {r0, r3, r6, r8, r9, ip}
      dc:	00001802 	andeq	r1, r0, r2, lsl #16
      e0:	01828914 	orreq	r8, r2, r4, lsl r9
      e4:	31011100 	mrscc	r1, (UNDEF: 17)
      e8:	15000013 	strne	r0, [r0, #-19]
      ec:	01018289 	smlabbeq	r1, r9, r2, r8
      f0:	13310111 	teqne	r1, #1073741828	; 0x40000004
      f4:	00001301 	andeq	r1, r0, r1, lsl #6
      f8:	01828a16 	orreq	r8, r2, r6, lsl sl
      fc:	91180200 	tstls	r8, r0, lsl #4
     100:	00001842 	andeq	r1, r0, r2, asr #16
     104:	03012e17 	movweq	r2, #7703	; 0x1e17
     108:	3b0b3a0e 	blcc	2ce948 <__bss_end__+0x2c43d0>
     10c:	4919270b 	ldmdbmi	r9, {r0, r1, r3, r8, r9, sl, sp}
     110:	12011113 	andne	r1, r1, #-1073741820	; 0xc0000004
     114:	97184006 	ldrls	r4, [r8, -r6]
     118:	13011942 	movwne	r1, #6466	; 0x1942
     11c:	05180000 	ldreq	r0, [r8, #-0]
     120:	3a080300 	bcc	200d28 <__bss_end__+0x1f67b0>
     124:	490b3b0b 	stmdbmi	fp, {r0, r1, r3, r8, r9, fp, ip, sp}
     128:	00180213 	andseq	r0, r8, r3, lsl r2
     12c:	002e1900 	eoreq	r1, lr, r0, lsl #18
     130:	0e03193f 	mcreq	9, 0, r1, cr3, cr15, {1}
     134:	0b3b0b3a 	bleq	ec2e24 <__bss_end__+0xeb88ac>
     138:	13491927 	movtne	r1, #39207	; 0x9927
     13c:	06120111 			; <UNDEFINED> instruction: 0x06120111
     140:	42971840 	addsmi	r1, r7, #64, 16	; 0x400000
     144:	1a000019 	bne	1b0 <__code_start__-0x7e50>
     148:	193f012e 	ldmdbne	pc!, {r1, r2, r3, r5, r8}	; <UNPREDICTABLE>
     14c:	0b3a0e03 	bleq	e83960 <__bss_end__+0xe793e8>
     150:	19270b3b 	stmdbne	r7!, {r0, r1, r3, r4, r5, r8, r9, fp}
     154:	06120111 			; <UNDEFINED> instruction: 0x06120111
     158:	42971840 	addsmi	r1, r7, #64, 16	; 0x400000
     15c:	00130119 	andseq	r0, r3, r9, lsl r1
     160:	00341b00 	eorseq	r1, r4, r0, lsl #22
     164:	0b3a0803 	bleq	e82178 <__bss_end__+0xe77c00>
     168:	13490b3b 	movtne	r0, #39739	; 0x9b3b
     16c:	00001802 	andeq	r1, r0, r2, lsl #16
     170:	0300341c 	movweq	r3, #1052	; 0x41c
     174:	3b0b3a08 	blcc	2ce99c <__bss_end__+0x2c4424>
     178:	0013490b 	andseq	r4, r3, fp, lsl #18
     17c:	00341d00 	eorseq	r1, r4, r0, lsl #26
     180:	0b3a0e03 	bleq	e83994 <__bss_end__+0xe7941c>
     184:	13490b3b 	movtne	r0, #39739	; 0x9b3b
     188:	193c193f 	ldmdbne	ip!, {r0, r1, r2, r3, r4, r5, r8, fp, ip}
     18c:	2e1e0000 	cdpcs	0, 1, cr0, cr14, cr0, {0}
     190:	03193f00 	tsteq	r9, #0, 30
     194:	3b0b3a0e 	blcc	2ce9d4 <__bss_end__+0x2c445c>
     198:	4919270b 	ldmdbmi	r9, {r0, r1, r3, r8, r9, sl, sp}
     19c:	00193c13 	andseq	r3, r9, r3, lsl ip
     1a0:	002e1f00 	eoreq	r1, lr, r0, lsl #30
     1a4:	0e03193f 	mcreq	9, 0, r1, cr3, cr15, {1}
     1a8:	0b3b0b3a 	bleq	ec2e98 <__bss_end__+0xeb8920>
     1ac:	193c1927 	ldmdbne	ip!, {r0, r1, r2, r5, r8, fp, ip}
     1b0:	2e200000 	cdpcs	0, 2, cr0, cr0, cr0, {0}
     1b4:	03193f01 	tsteq	r9, #1, 30
     1b8:	3b0b3a0e 	blcc	2ce9f8 <__bss_end__+0x2c4480>
     1bc:	4919270b 	ldmdbmi	r9, {r0, r1, r3, r8, r9, sl, sp}
     1c0:	01193c13 	tsteq	r9, r3, lsl ip
     1c4:	21000013 	tstcs	r0, r3, lsl r0
     1c8:	00000018 	andeq	r0, r0, r8, lsl r0
     1cc:	3f012e22 	svccc	0x00012e22
     1d0:	3a0e0319 	bcc	380e3c <__bss_end__+0x3768c4>
     1d4:	270b3b0b 	strcs	r3, [fp, -fp, lsl #22]
     1d8:	3c134919 	ldccc	9, cr4, [r3], {25}
     1dc:	00000019 	andeq	r0, r0, r9, lsl r0
     1e0:	25011101 	strcs	r1, [r1, #-257]	; 0x101
     1e4:	030b130e 	movweq	r1, #45838	; 0xb30e
     1e8:	110e1b0e 	tstne	lr, lr, lsl #22
     1ec:	10061201 	andne	r1, r6, r1, lsl #4
     1f0:	02000017 	andeq	r0, r0, #23
     1f4:	0b0b0024 	bleq	2c028c <__bss_end__+0x2b5d14>
     1f8:	08030b3e 	stmdaeq	r3, {r1, r2, r3, r4, r5, r8, r9, fp}
     1fc:	24030000 	strcs	r0, [r3], #-0
     200:	3e0b0b00 	vmlacc.f64	d0, d11, d0
     204:	000e030b 	andeq	r0, lr, fp, lsl #6
     208:	00160400 	andseq	r0, r6, r0, lsl #8
     20c:	0b3a0e03 	bleq	e83a20 <__bss_end__+0xe794a8>
     210:	13490b3b 	movtne	r0, #39739	; 0x9b3b
     214:	0f050000 	svceq	0x00050000
     218:	000b0b00 	andeq	r0, fp, r0, lsl #22
     21c:	000f0600 	andeq	r0, pc, r0, lsl #12
     220:	13490b0b 	movtne	r0, #39691	; 0x9b0b
     224:	26070000 	strcs	r0, [r7], -r0
     228:	00134900 	andseq	r4, r3, r0, lsl #18
     22c:	01150800 	tsteq	r5, r0, lsl #16
     230:	13011927 	movwne	r1, #6439	; 0x1927
     234:	05090000 	streq	r0, [r9, #-0]
     238:	00134900 	andseq	r4, r3, r0, lsl #18
     23c:	012e0a00 	teqeq	lr, r0, lsl #20
     240:	0b3a0e03 	bleq	e83a54 <__bss_end__+0xe794dc>
     244:	19270b3b 	stmdbne	r7!, {r0, r1, r3, r4, r5, r8, r9, fp}
     248:	0b201349 	bleq	804f74 <__bss_end__+0x7fa9fc>
     24c:	00001301 	andeq	r1, r0, r1, lsl #6
     250:	0300340b 	movweq	r3, #1035	; 0x40b
     254:	3b0b3a08 	blcc	2cea7c <__bss_end__+0x2c4504>
     258:	0013490b 	andseq	r4, r3, fp, lsl #18
     25c:	00050c00 	andeq	r0, r5, r0, lsl #24
     260:	0b3a0803 	bleq	e82274 <__bss_end__+0xe77cfc>
     264:	13490b3b 	movtne	r0, #39739	; 0x9b3b
     268:	2e0d0000 	cdpcs	0, 0, cr0, cr13, cr0, {0}
     26c:	3a0e0301 	bcc	380e78 <__bss_end__+0x376900>
     270:	270b3b0b 	strcs	r3, [fp, -fp, lsl #22]
     274:	010b2019 	tsteq	fp, r9, lsl r0
     278:	0e000013 	mcreq	0, 0, r0, cr0, cr3, {0}
     27c:	0e030034 	mcreq	0, 0, r0, cr3, cr4, {1}
     280:	0b3b0b3a 	bleq	ec2f70 <__bss_end__+0xeb89f8>
     284:	00001349 	andeq	r1, r0, r9, asr #6
     288:	3f012e0f 	svccc	0x00012e0f
     28c:	3a0e0319 	bcc	380ef8 <__bss_end__+0x376980>
     290:	270b3b0b 	strcs	r3, [fp, -fp, lsl #22]
     294:	12011119 	andne	r1, r1, #1073741830	; 0x40000006
     298:	97184006 	ldrls	r4, [r8, -r6]
     29c:	13011942 	movwne	r1, #6466	; 0x1942
     2a0:	05100000 	ldreq	r0, [r0, #-0]
     2a4:	3a0e0300 	bcc	380eac <__bss_end__+0x376934>
     2a8:	490b3b0b 	stmdbmi	fp, {r0, r1, r3, r8, r9, fp, ip, sp}
     2ac:	00170213 	andseq	r0, r7, r3, lsl r2
     2b0:	00341100 	eorseq	r1, r4, r0, lsl #2
     2b4:	0b3a0e03 	bleq	e83ac8 <__bss_end__+0xe79550>
     2b8:	13490b3b 	movtne	r0, #39739	; 0x9b3b
     2bc:	00001702 	andeq	r1, r0, r2, lsl #14
     2c0:	03003412 	movweq	r3, #1042	; 0x412
     2c4:	3413490e 	ldrcc	r4, [r3], #-2318	; 0x90e
     2c8:	00180219 	andseq	r0, r8, r9, lsl r2
     2cc:	011d1300 	tsteq	sp, r0, lsl #6
     2d0:	01111331 	tsteq	r1, r1, lsr r3
     2d4:	0b580612 	bleq	1601b24 <__bss_end__+0x15f75ac>
     2d8:	13010b59 	movwne	r0, #7001	; 0x1b59
     2dc:	0b140000 	bleq	5002e4 <__bss_end__+0x4f5d6c>
     2e0:	12011101 	andne	r1, r1, #1073741824	; 0x40000000
     2e4:	15000006 	strne	r0, [r0, #-6]
     2e8:	13310034 	teqne	r1, #52	; 0x34
     2ec:	00001702 	andeq	r1, r0, r2, lsl #14
     2f0:	31000516 	tstcc	r0, r6, lsl r5
     2f4:	00170213 	andseq	r0, r7, r3, lsl r2
     2f8:	00051700 	andeq	r1, r5, r0, lsl #14
     2fc:	051c1331 	ldreq	r1, [ip, #-817]	; 0x331
     300:	05180000 	ldreq	r0, [r8, #-0]
     304:	1c133100 	ldfnes	f3, [r3], {-0}
     308:	1900000b 	stmdbne	r0, {r0, r1, r3}
     30c:	00018289 	andeq	r8, r1, r9, lsl #5
     310:	13310111 	teqne	r1, #1073741828	; 0x40000004
     314:	891a0000 	ldmdbhi	sl, {}	; <UNPREDICTABLE>
     318:	11010182 	smlabbne	r1, r2, r1, r0
     31c:	01133101 	tsteq	r3, r1, lsl #2
     320:	1b000013 	blne	374 <__code_start__-0x7c8c>
     324:	0001828a 	andeq	r8, r1, sl, lsl #5
     328:	42911802 	addsmi	r1, r1, #131072	; 0x20000
     32c:	1c000018 	stcne	0, cr0, [r0], {24}
     330:	13490101 	movtne	r0, #37121	; 0x9101
     334:	00001301 	andeq	r1, r0, r1, lsl #6
     338:	4900211d 	stmdbmi	r0, {r0, r2, r3, r4, r8, sp}
     33c:	000b2f13 	andeq	r2, fp, r3, lsl pc
     340:	00341e00 	eorseq	r1, r4, r0, lsl #28
     344:	13490e03 	movtne	r0, #40451	; 0x9e03
     348:	0e1c1934 	mrceq	9, 0, r1, cr12, cr4, {1}
     34c:	051f0000 	ldreq	r0, [pc, #-0]	; 354 <__code_start__-0x7cac>
     350:	3a080300 	bcc	200f58 <__bss_end__+0x1f69e0>
     354:	490b3b0b 	stmdbmi	fp, {r0, r1, r3, r8, r9, fp, ip, sp}
     358:	00170213 	andseq	r0, r7, r3, lsl r2
     35c:	00342000 	eorseq	r2, r4, r0
     360:	0b3a0e03 	bleq	e83b74 <__bss_end__+0xe795fc>
     364:	13490b3b 	movtne	r0, #39739	; 0x9b3b
     368:	00001802 	andeq	r1, r0, r2, lsl #16
     36c:	31003421 	tstcc	r0, r1, lsr #8
     370:	22000013 	andcs	r0, r0, #19
     374:	1331011d 	teqne	r1, #1073741831	; 0x40000007
     378:	06120111 			; <UNDEFINED> instruction: 0x06120111
     37c:	0b590b58 	bleq	16430e4 <__bss_end__+0x1638b6c>
     380:	34230000 	strtcc	r0, [r3], #-0
     384:	02133100 	andseq	r3, r3, #0, 2
     388:	24000018 	strcs	r0, [r0], #-24
     38c:	01018289 	smlabbeq	r1, r9, r2, r8
     390:	00000111 	andeq	r0, r0, r1, lsl r1
     394:	03003425 	movweq	r3, #1061	; 0x425
     398:	3b0b3a08 	blcc	2cebc0 <__bss_end__+0x2c4648>
     39c:	1c13490b 	ldcne	9, cr4, [r3], {11}
     3a0:	26000005 	strcs	r0, [r0], -r5
     3a4:	0e030005 	cdpeq	0, 0, cr0, cr3, cr5, {0}
     3a8:	0b3b0b3a 	bleq	ec3098 <__bss_end__+0xeb8b20>
     3ac:	18021349 	stmdane	r2, {r0, r3, r6, r8, r9, ip}
     3b0:	05270000 	streq	r0, [r7, #-0]!
     3b4:	02133100 	andseq	r3, r3, #0, 2
     3b8:	28000018 	stmdacs	r0, {r3, r4}
     3bc:	08030005 	stmdaeq	r3, {r0, r2}
     3c0:	0b3b0b3a 	bleq	ec30b0 <__bss_end__+0xeb8b38>
     3c4:	18021349 	stmdane	r2, {r0, r3, r6, r8, r9, ip}
     3c8:	05290000 	streq	r0, [r9, #-0]!
     3cc:	1c133100 	ldfnes	f3, [r3], {-0}
     3d0:	2a000006 	bcs	3f0 <__code_start__-0x7c10>
     3d4:	0e030034 	mcreq	0, 0, r0, cr3, cr4, {1}
     3d8:	0b3b0b3a 	bleq	ec30c8 <__bss_end__+0xeb8b50>
     3dc:	061c1349 	ldreq	r1, [ip], -r9, asr #6
     3e0:	1d2b0000 	stcne	0, cr0, [fp, #-0]
     3e4:	11133101 	tstne	r3, r1, lsl #2
     3e8:	58061201 	stmdapl	r6, {r0, r9, ip}
     3ec:	0005590b 	andeq	r5, r5, fp, lsl #18
     3f0:	012e2c00 	teqeq	lr, r0, lsl #24
     3f4:	0e03193f 	mcreq	9, 0, r1, cr3, cr15, {1}
     3f8:	053b0b3a 	ldreq	r0, [fp, #-2874]!	; 0xb3a
     3fc:	13491927 	movtne	r1, #39207	; 0x9927
     400:	06120111 			; <UNDEFINED> instruction: 0x06120111
     404:	42971840 	addsmi	r1, r7, #64, 16	; 0x400000
     408:	00130119 	andseq	r0, r3, r9, lsl r1
     40c:	00052d00 	andeq	r2, r5, r0, lsl #26
     410:	0b3a0803 	bleq	e82424 <__bss_end__+0xe77eac>
     414:	1349053b 	movtne	r0, #38203	; 0x953b
     418:	00001702 	andeq	r1, r0, r2, lsl #14
     41c:	0300342e 	movweq	r3, #1070	; 0x42e
     420:	3b0b3a0e 	blcc	2cec60 <__bss_end__+0x2c46e8>
     424:	02134905 	andseq	r4, r3, #81920	; 0x14000
     428:	2f000017 	svccs	0x00000017
     42c:	01018289 	smlabbeq	r1, r9, r2, r8
     430:	13310111 	teqne	r1, #1073741828	; 0x40000004
     434:	34300000 	ldrtcc	r0, [r0], #-0
     438:	3a0e0300 	bcc	381040 <__bss_end__+0x376ac8>
     43c:	490b3b0b 	stmdbmi	fp, {r0, r1, r3, r8, r9, fp, ip, sp}
     440:	02193f13 	andseq	r3, r9, #19, 30	; 0x4c
     444:	31000018 	tstcc	r0, r8, lsl r0
     448:	193f002e 	ldmdbne	pc!, {r1, r2, r3, r5}	; <UNPREDICTABLE>
     44c:	0b3a0e03 	bleq	e83c60 <__bss_end__+0xe796e8>
     450:	19270b3b 	stmdbne	r7!, {r0, r1, r3, r4, r5, r8, r9, fp}
     454:	0000193c 	andeq	r1, r0, ip, lsr r9
     458:	3f012e32 	svccc	0x00012e32
     45c:	3a0e0319 	bcc	3810c8 <__bss_end__+0x376b50>
     460:	270b3b0b 	strcs	r3, [fp, -fp, lsl #22]
     464:	3c134919 	ldccc	9, cr4, [r3], {25}
     468:	00130119 	andseq	r0, r3, r9, lsl r1
     46c:	00183300 	andseq	r3, r8, r0, lsl #6
     470:	01000000 	mrseq	r0, (UNDEF: 0)
     474:	0e250111 	mcreq	1, 1, r0, cr5, cr1, {0}
     478:	0e030b13 	vmoveq.32	d3[0], r0
     47c:	01110e1b 	tsteq	r1, fp, lsl lr
     480:	17100612 			; <UNDEFINED> instruction: 0x17100612
     484:	24020000 	strcs	r0, [r2], #-0
     488:	3e0b0b00 	vmlacc.f64	d0, d11, d0
     48c:	0008030b 	andeq	r0, r8, fp, lsl #6
     490:	00240300 	eoreq	r0, r4, r0, lsl #6
     494:	0b3e0b0b 	bleq	f830c8 <__bss_end__+0xf78b50>
     498:	00000e03 	andeq	r0, r0, r3, lsl #28
     49c:	03001604 	movweq	r1, #1540	; 0x604
     4a0:	3b0b3a0e 	blcc	2cece0 <__bss_end__+0x2c4768>
     4a4:	0013490b 	andseq	r4, r3, fp, lsl #18
     4a8:	000f0500 	andeq	r0, pc, r0, lsl #10
     4ac:	00000b0b 	andeq	r0, r0, fp, lsl #22
     4b0:	0b000f06 	bleq	40d0 <__code_start__-0x3f30>
     4b4:	0013490b 	andseq	r4, r3, fp, lsl #18
     4b8:	00260700 	eoreq	r0, r6, r0, lsl #14
     4bc:	00001349 	andeq	r1, r0, r9, asr #6
     4c0:	27011508 	strcs	r1, [r1, -r8, lsl #10]
     4c4:	00130119 	andseq	r0, r3, r9, lsl r1
     4c8:	00050900 	andeq	r0, r5, r0, lsl #18
     4cc:	00001349 	andeq	r1, r0, r9, asr #6
     4d0:	0301130a 	movweq	r1, #4874	; 0x130a
     4d4:	3a0b0b0e 	bcc	2c3114 <__bss_end__+0x2b8b9c>
     4d8:	010b3b0b 	tsteq	fp, fp, lsl #22
     4dc:	0b000013 	bleq	530 <__code_start__-0x7ad0>
     4e0:	0e03000d 	cdpeq	0, 0, cr0, cr3, cr13, {0}
     4e4:	0b3b0b3a 	bleq	ec31d4 <__bss_end__+0xeb8c5c>
     4e8:	0b381349 	bleq	e05214 <__bss_end__+0xdfac9c>
     4ec:	0d0c0000 	stceq	0, cr0, [ip, #-0]
     4f0:	3a080300 	bcc	2010f8 <__bss_end__+0x1f6b80>
     4f4:	490b3b0b 	stmdbmi	fp, {r0, r1, r3, r8, r9, fp, ip, sp}
     4f8:	000b3813 	andeq	r3, fp, r3, lsl r8
     4fc:	00350d00 	eorseq	r0, r5, r0, lsl #26
     500:	150e0000 	strne	r0, [lr, #-0]
     504:	49192701 	ldmdbmi	r9, {r0, r8, r9, sl, sp}
     508:	00130113 	andseq	r0, r3, r3, lsl r1
     50c:	00350f00 	eorseq	r0, r5, r0, lsl #30
     510:	00001349 	andeq	r1, r0, r9, asr #6
     514:	03012e10 	movweq	r2, #7696	; 0x1e10
     518:	3b0b3a0e 	blcc	2ced58 <__bss_end__+0x2c47e0>
     51c:	4919270b 	ldmdbmi	r9, {r0, r1, r3, r8, r9, sl, sp}
     520:	010b2013 	tsteq	fp, r3, lsl r0
     524:	11000013 	tstne	r0, r3, lsl r0
     528:	08030034 	stmdaeq	r3, {r2, r4, r5}
     52c:	0b3b0b3a 	bleq	ec321c <__bss_end__+0xeb8ca4>
     530:	00001349 	andeq	r1, r0, r9, asr #6
     534:	03000512 	movweq	r0, #1298	; 0x512
     538:	3b0b3a0e 	blcc	2ced78 <__bss_end__+0x2c4800>
     53c:	0013490b 	andseq	r4, r3, fp, lsl #18
     540:	00341300 	eorseq	r1, r4, r0, lsl #6
     544:	0b3a0e03 	bleq	e83d58 <__bss_end__+0xe797e0>
     548:	13490b3b 	movtne	r0, #39739	; 0x9b3b
     54c:	2e140000 	cdpcs	0, 1, cr0, cr4, cr0, {0}
     550:	3a0e0301 	bcc	38115c <__bss_end__+0x376be4>
     554:	270b3b0b 	strcs	r3, [fp, -fp, lsl #22]
     558:	12011119 	andne	r1, r1, #1073741830	; 0x40000006
     55c:	97184006 	ldrls	r4, [r8, -r6]
     560:	13011942 	movwne	r1, #6466	; 0x1942
     564:	05150000 	ldreq	r0, [r5, #-0]
     568:	3a0e0300 	bcc	381170 <__bss_end__+0x376bf8>
     56c:	490b3b0b 	stmdbmi	fp, {r0, r1, r3, r8, r9, fp, ip, sp}
     570:	00170213 	andseq	r0, r7, r3, lsl r2
     574:	00051600 	andeq	r1, r5, r0, lsl #12
     578:	0b3a0803 	bleq	e8258c <__bss_end__+0xe78014>
     57c:	13490b3b 	movtne	r0, #39739	; 0x9b3b
     580:	00001702 	andeq	r1, r0, r2, lsl #14
     584:	03003417 	movweq	r3, #1047	; 0x417
     588:	3413490e 	ldrcc	r4, [r3], #-2318	; 0x90e
     58c:	00180219 	andseq	r0, r8, r9, lsl r2
     590:	00341800 	eorseq	r1, r4, r0, lsl #16
     594:	0b3a0803 	bleq	e825a8 <__bss_end__+0xe78030>
     598:	13490b3b 	movtne	r0, #39739	; 0x9b3b
     59c:	00001702 	andeq	r1, r0, r2, lsl #14
     5a0:	31011d19 	tstcc	r1, r9, lsl sp
     5a4:	12011113 	andne	r1, r1, #-1073741820	; 0xc0000004
     5a8:	590b5806 	stmdbpl	fp, {r1, r2, fp, ip, lr}
     5ac:	0013010b 	andseq	r0, r3, fp, lsl #2
     5b0:	010b1a00 	tsteq	fp, r0, lsl #20
     5b4:	06120111 			; <UNDEFINED> instruction: 0x06120111
     5b8:	341b0000 	ldrcc	r0, [fp], #-0
     5bc:	00133100 	andseq	r3, r3, r0, lsl #2
     5c0:	011d1c00 	tsteq	sp, r0, lsl #24
     5c4:	01111331 	tsteq	r1, r1, lsr r3
     5c8:	0b580612 	bleq	1601e18 <__bss_end__+0x15f78a0>
     5cc:	00000b59 	andeq	r0, r0, r9, asr fp
     5d0:	3100341d 	tstcc	r0, sp, lsl r4
     5d4:	00170213 	andseq	r0, r7, r3, lsl r2
     5d8:	82891e00 	addhi	r1, r9, #0, 28
     5dc:	01110101 	tsteq	r1, r1, lsl #2
     5e0:	13011331 	movwne	r1, #4913	; 0x1331
     5e4:	8a1f0000 	bhi	7c05ec <__bss_end__+0x7b6074>
     5e8:	02000182 	andeq	r0, r0, #-2147483616	; 0x80000020
     5ec:	18429118 	stmdane	r2, {r3, r4, r8, ip, pc}^
     5f0:	89200000 	stmdbhi	r0!, {}	; <UNPREDICTABLE>
     5f4:	11000182 	smlabbne	r0, r2, r1, r0
     5f8:	00133101 	andseq	r3, r3, r1, lsl #2
     5fc:	82892100 	addhi	r2, r9, #0, 2
     600:	01110101 	tsteq	r1, r1, lsl #2
     604:	00001301 	andeq	r1, r0, r1, lsl #6
     608:	01828922 	orreq	r8, r2, r2, lsr #18
     60c:	31011101 	tstcc	r1, r1, lsl #2
     610:	23000013 	movwcs	r0, #19
     614:	13490101 	movtne	r0, #37121	; 0x9101
     618:	00001301 	andeq	r1, r0, r1, lsl #6
     61c:	49002124 	stmdbmi	r0, {r2, r5, r8, sp}
     620:	000b2f13 	andeq	r2, fp, r3, lsl pc
     624:	00342500 	eorseq	r2, r4, r0, lsl #10
     628:	13490e03 	movtne	r0, #40451	; 0x9e03
     62c:	0e1c1934 	mrceq	9, 0, r1, cr12, cr4, {1}
     630:	05260000 	streq	r0, [r6, #-0]!
     634:	3a080300 	bcc	20123c <__bss_end__+0x1f6cc4>
     638:	490b3b0b 	stmdbmi	fp, {r0, r1, r3, r8, r9, fp, ip, sp}
     63c:	27000013 	smladcs	r0, r3, r0, r0
     640:	0e03012e 	adfeqsp	f0, f3, #0.5
     644:	0b3b0b3a 	bleq	ec3334 <__bss_end__+0xeb8dbc>
     648:	13491927 	movtne	r1, #39207	; 0x9927
     64c:	06120111 			; <UNDEFINED> instruction: 0x06120111
     650:	42971840 	addsmi	r1, r7, #64, 16	; 0x400000
     654:	00130119 	andseq	r0, r3, r9, lsl r1
     658:	00342800 	eorseq	r2, r4, r0, lsl #16
     65c:	0b3a0e03 	bleq	e83e70 <__bss_end__+0xe798f8>
     660:	13490b3b 	movtne	r0, #39739	; 0x9b3b
     664:	00001802 	andeq	r1, r0, r2, lsl #16
     668:	31000529 	tstcc	r0, r9, lsr #10
     66c:	000b1c13 	andeq	r1, fp, r3, lsl ip
     670:	00052a00 	andeq	r2, r5, r0, lsl #20
     674:	17021331 	smladxne	r2, r1, r3, r1
     678:	342b0000 	strtcc	r0, [fp], #-0
     67c:	02133100 	andseq	r3, r3, #0, 2
     680:	2c000018 	stccs	0, cr0, [r0], {24}
     684:	13310034 	teqne	r1, #52	; 0x34
     688:	00000b1c 	andeq	r0, r0, ip, lsl fp
     68c:	3100052d 	tstcc	r0, sp, lsr #10
     690:	2e000013 	mcrcs	0, 0, r0, cr0, cr3, {0}
     694:	0e030034 	mcreq	0, 0, r0, cr3, cr4, {1}
     698:	19341349 	ldmdbne	r4!, {r0, r3, r6, r8, r9, ip}
     69c:	052f0000 	streq	r0, [pc, #-0]!	; 6a4 <__code_start__-0x795c>
     6a0:	3a080300 	bcc	2012a8 <__bss_end__+0x1f6d30>
     6a4:	490b3b0b 	stmdbmi	fp, {r0, r1, r3, r8, r9, fp, ip, sp}
     6a8:	00180213 	andseq	r0, r8, r3, lsl r2
     6ac:	012e3000 	teqeq	lr, r0
     6b0:	0e03193f 	mcreq	9, 0, r1, cr3, cr15, {1}
     6b4:	0b3b0b3a 	bleq	ec33a4 <__bss_end__+0xeb8e2c>
     6b8:	13491927 	movtne	r1, #39207	; 0x9927
     6bc:	06120111 			; <UNDEFINED> instruction: 0x06120111
     6c0:	42971840 	addsmi	r1, r7, #64, 16	; 0x400000
     6c4:	00130119 	andseq	r0, r3, r9, lsl r1
     6c8:	00343100 	eorseq	r3, r4, r0, lsl #2
     6cc:	0b3a0e03 	bleq	e83ee0 <__bss_end__+0xe79968>
     6d0:	13490b3b 	movtne	r0, #39739	; 0x9b3b
     6d4:	193c193f 	ldmdbne	ip!, {r0, r1, r2, r3, r4, r5, r8, fp, ip}
     6d8:	2e320000 	cdpcs	0, 3, cr0, cr2, cr0, {0}
     6dc:	03193f01 	tsteq	r9, #1, 30
     6e0:	3b0b3a0e 	blcc	2cef20 <__bss_end__+0x2c49a8>
     6e4:	4919270b 	ldmdbmi	r9, {r0, r1, r3, r8, r9, sl, sp}
     6e8:	01193c13 	tsteq	r9, r3, lsl ip
     6ec:	33000013 	movwcc	r0, #19
     6f0:	00000018 	andeq	r0, r0, r8, lsl r0
     6f4:	3f002e34 	svccc	0x00002e34
     6f8:	3a0e0319 	bcc	381364 <__bss_end__+0x376dec>
     6fc:	270b3b0b 	strcs	r3, [fp, -fp, lsl #22]
     700:	00193c19 	andseq	r3, r9, r9, lsl ip
     704:	012e3500 	teqeq	lr, r0, lsl #10
     708:	0e03193f 	mcreq	9, 0, r1, cr3, cr15, {1}
     70c:	0b3b0b3a 	bleq	ec33fc <__bss_end__+0xeb8e84>
     710:	193c1927 	ldmdbne	ip!, {r0, r1, r2, r5, r8, fp, ip}
     714:	00001301 	andeq	r1, r0, r1, lsl #6
     718:	01110100 	tsteq	r1, r0, lsl #2
     71c:	0b130e25 	bleq	4c3fb8 <__bss_end__+0x4b9a40>
     720:	0e1b0e03 	cdpeq	14, 1, cr0, cr11, cr3, {0}
     724:	06120111 			; <UNDEFINED> instruction: 0x06120111
     728:	00001710 	andeq	r1, r0, r0, lsl r7
     72c:	03001602 	movweq	r1, #1538	; 0x602
     730:	3b0b3a0e 	blcc	2cef70 <__bss_end__+0x2c49f8>
     734:	0013490b 	andseq	r4, r3, fp, lsl #18
     738:	01130300 	tsteq	r3, r0, lsl #6
     73c:	0b0b0e03 	bleq	2c3f50 <__bss_end__+0x2b99d8>
     740:	0b3b0b3a 	bleq	ec3430 <__bss_end__+0xeb8eb8>
     744:	00001301 	andeq	r1, r0, r1, lsl #6
     748:	03000d04 	movweq	r0, #3332	; 0xd04
     74c:	3813490e 	ldmdacc	r3, {r1, r2, r3, r8, fp, lr}
     750:	0019340b 	andseq	r3, r9, fp, lsl #8
     754:	000f0500 	andeq	r0, pc, r0, lsl #10
     758:	00000b0b 	andeq	r0, r0, fp, lsl #22
     75c:	0b002406 	bleq	977c <uart_init+0x68>
     760:	030b3e0b 	movweq	r3, #48651	; 0xbe0b
     764:	07000008 	streq	r0, [r0, -r8]
     768:	0b0b0024 	bleq	2c0800 <__bss_end__+0x2b6288>
     76c:	0e030b3e 	vmoveq.16	d3[0], r0
     770:	0f080000 	svceq	0x00080000
     774:	490b0b00 	stmdbmi	fp, {r8, r9, fp}
     778:	09000013 	stmdbeq	r0, {r0, r1, r4}
     77c:	13490026 	movtne	r0, #36902	; 0x9026
     780:	2e0a0000 	cdpcs	0, 0, cr0, cr10, cr0, {0}
     784:	03193f01 	tsteq	r9, #1, 30
     788:	3b0b3a0e 	blcc	2cefc8 <__bss_end__+0x2c4a50>
     78c:	4919270b 	ldmdbmi	r9, {r0, r1, r3, r8, r9, sl, sp}
     790:	12011113 	andne	r1, r1, #-1073741820	; 0xc0000004
     794:	97184006 	ldrls	r4, [r8, -r6]
     798:	13011942 	movwne	r1, #6466	; 0x1942
     79c:	050b0000 	streq	r0, [fp, #-0]
     7a0:	3a080300 	bcc	2013a8 <__bss_end__+0x1f6e30>
     7a4:	490b3b0b 	stmdbmi	fp, {r0, r1, r3, r8, r9, fp, ip, sp}
     7a8:	00180213 	andseq	r0, r8, r3, lsl r2
     7ac:	00180c00 	andseq	r0, r8, r0, lsl #24
     7b0:	340d0000 	strcc	r0, [sp], #-0
     7b4:	3a080300 	bcc	2013bc <__bss_end__+0x1f6e44>
     7b8:	490b3b0b 	stmdbmi	fp, {r0, r1, r3, r8, r9, fp, ip, sp}
     7bc:	00180213 	andseq	r0, r8, r3, lsl r2
     7c0:	00340e00 	eorseq	r0, r4, r0, lsl #28
     7c4:	0b3a0e03 	bleq	e83fd8 <__bss_end__+0xe79a60>
     7c8:	13490b3b 	movtne	r0, #39739	; 0x9b3b
     7cc:	00001802 	andeq	r1, r0, r2, lsl #16
     7d0:	0300340f 	movweq	r3, #1039	; 0x40f
     7d4:	3b0b3a08 	blcc	2ceffc <__bss_end__+0x2c4a84>
     7d8:	0213490b 	andseq	r4, r3, #180224	; 0x2c000
     7dc:	10000017 	andne	r0, r0, r7, lsl r0
     7e0:	01018289 	smlabbeq	r1, r9, r2, r8
     7e4:	13310111 	teqne	r1, #1073741828	; 0x40000004
     7e8:	00001301 	andeq	r1, r0, r1, lsl #6
     7ec:	01828a11 	orreq	r8, r2, r1, lsl sl
     7f0:	91180200 	tstls	r8, r0, lsl #4
     7f4:	00001842 	andeq	r1, r0, r2, asr #16
     7f8:	01828912 	orreq	r8, r2, r2, lsl r9
     7fc:	00011101 	andeq	r1, r1, r1, lsl #2
     800:	01011300 	mrseq	r1, SP_irq
     804:	13011349 	movwne	r1, #4937	; 0x1349
     808:	21140000 	tstcs	r4, r0
     80c:	2f134900 	svccs	0x00134900
     810:	15000005 	strne	r0, [r0, #-5]
     814:	19270115 	stmdbne	r7!, {r0, r2, r4, r8}
     818:	13011349 	movwne	r1, #4937	; 0x1349
     81c:	05160000 	ldreq	r0, [r6, #-0]
     820:	00134900 	andseq	r4, r3, r0, lsl #18
     824:	00341700 	eorseq	r1, r4, r0, lsl #14
     828:	0b3a0e03 	bleq	e8403c <__bss_end__+0xe79ac4>
     82c:	13490b3b 	movtne	r0, #39739	; 0x9b3b
     830:	193c193f 	ldmdbne	ip!, {r0, r1, r2, r3, r4, r5, r8, fp, ip}
     834:	2e180000 	cdpcs	0, 1, cr0, cr8, cr0, {0}
     838:	03193f01 	tsteq	r9, #1, 30
     83c:	3b0b3a0e 	blcc	2cf07c <__bss_end__+0x2c4b04>
     840:	4919270b 	ldmdbmi	r9, {r0, r1, r3, r8, r9, sl, sp}
     844:	00193c13 	andseq	r3, r9, r3, lsl ip
     848:	11010000 	mrsne	r0, (UNDEF: 1)
     84c:	130e2501 	movwne	r2, #58625	; 0xe501
     850:	1b0e030b 	blne	381484 <__bss_end__+0x376f0c>
     854:	1201110e 	andne	r1, r1, #-2147483645	; 0x80000003
     858:	00171006 	andseq	r1, r7, r6
     85c:	00240200 	eoreq	r0, r4, r0, lsl #4
     860:	0b3e0b0b 	bleq	f83494 <__bss_end__+0xf78f1c>
     864:	00000803 	andeq	r0, r0, r3, lsl #16
     868:	0b002403 	bleq	987c <gpio_set_function+0x10>
     86c:	030b3e0b 	movweq	r3, #48651	; 0xbe0b
     870:	0400000e 	streq	r0, [r0], #-14
     874:	0e03012e 	adfeqsp	f0, f3, #0.5
     878:	0b3b0b3a 	bleq	ec3568 <__bss_end__+0xeb8ff0>
     87c:	13491927 	movtne	r1, #39207	; 0x9927
     880:	06120111 			; <UNDEFINED> instruction: 0x06120111
     884:	42971840 	addsmi	r1, r7, #64, 16	; 0x400000
     888:	00130119 	andseq	r0, r3, r9, lsl r1
     88c:	00050500 	andeq	r0, r5, r0, lsl #10
     890:	0b3a0803 	bleq	e828a4 <__bss_end__+0xe7832c>
     894:	13490b3b 	movtne	r0, #39739	; 0x9b3b
     898:	00001702 	andeq	r1, r0, r2, lsl #14
     89c:	01828906 	orreq	r8, r2, r6, lsl #18
     8a0:	31011101 	tstcc	r1, r1, lsl #2
     8a4:	07000013 	smladeq	r0, r3, r0, r0
     8a8:	0001828a 	andeq	r8, r1, sl, lsl #5
     8ac:	42911802 	addsmi	r1, r1, #131072	; 0x20000
     8b0:	08000018 	stmdaeq	r0, {r3, r4}
     8b4:	193f002e 	ldmdbne	pc!, {r1, r2, r3, r5}	; <UNPREDICTABLE>
     8b8:	0b3a0e03 	bleq	e840cc <__bss_end__+0xe79b54>
     8bc:	19270b3b 	stmdbne	r7!, {r0, r1, r3, r4, r5, r8, r9, fp}
     8c0:	06120111 			; <UNDEFINED> instruction: 0x06120111
     8c4:	42971840 	addsmi	r1, r7, #64, 16	; 0x400000
     8c8:	09000019 	stmdbeq	r0, {r0, r3, r4}
     8cc:	193f012e 	ldmdbne	pc!, {r1, r2, r3, r5, r8}	; <UNPREDICTABLE>
     8d0:	0b3a0e03 	bleq	e840e4 <__bss_end__+0xe79b6c>
     8d4:	19270b3b 	stmdbne	r7!, {r0, r1, r3, r4, r5, r8, r9, fp}
     8d8:	06120111 			; <UNDEFINED> instruction: 0x06120111
     8dc:	42971840 	addsmi	r1, r7, #64, 16	; 0x400000
     8e0:	00130119 	andseq	r0, r3, r9, lsl r1
     8e4:	00050a00 	andeq	r0, r5, r0, lsl #20
     8e8:	0b3a0803 	bleq	e828fc <__bss_end__+0xe78384>
     8ec:	13490b3b 	movtne	r0, #39739	; 0x9b3b
     8f0:	00001802 	andeq	r1, r0, r2, lsl #16
     8f4:	2701150b 	strcs	r1, [r1, -fp, lsl #10]
     8f8:	01134919 	tsteq	r3, r9, lsl r9
     8fc:	0c000013 	stceq	0, cr0, [r0], {19}
     900:	13490005 	movtne	r0, #36869	; 0x9005
     904:	0f0d0000 	svceq	0x000d0000
     908:	490b0b00 	stmdbmi	fp, {r8, r9, fp}
     90c:	0e000013 	mcreq	0, 0, r0, cr0, cr3, {0}
     910:	0e030034 	mcreq	0, 0, r0, cr3, cr4, {1}
     914:	0b3b0b3a 	bleq	ec3604 <__bss_end__+0xeb908c>
     918:	193f1349 	ldmdbne	pc!, {r0, r3, r6, r8, r9, ip}	; <UNPREDICTABLE>
     91c:	00001802 	andeq	r1, r0, r2, lsl #16
     920:	3f012e0f 	svccc	0x00012e0f
     924:	3a0e0319 	bcc	381590 <__bss_end__+0x377018>
     928:	270b3b0b 	strcs	r3, [fp, -fp, lsl #22]
     92c:	00193c19 	andseq	r3, r9, r9, lsl ip
     930:	11010000 	mrsne	r0, (UNDEF: 1)
     934:	130e2501 	movwne	r2, #58625	; 0xe501
     938:	1b0e030b 	blne	38156c <__bss_end__+0x376ff4>
     93c:	1201110e 	andne	r1, r1, #-2147483645	; 0x80000003
     940:	00171006 	andseq	r1, r7, r6
     944:	00240200 	eoreq	r0, r4, r0, lsl #4
     948:	0b3e0b0b 	bleq	f8357c <__bss_end__+0xf79004>
     94c:	00000803 	andeq	r0, r0, r3, lsl #16
     950:	0b002403 	bleq	9964 <gpio_read+0xc>
     954:	030b3e0b 	movweq	r3, #48651	; 0xbe0b
     958:	0400000e 	streq	r0, [r0], #-14
     95c:	0b0b000f 	bleq	2c09a0 <__bss_end__+0x2b6428>
     960:	00001349 	andeq	r1, r0, r9, asr #6
     964:	49002605 	stmdbmi	r0, {r0, r2, r9, sl, sp}
     968:	06000013 			; <UNDEFINED> instruction: 0x06000013
     96c:	193f012e 	ldmdbne	pc!, {r1, r2, r3, r5, r8}	; <UNPREDICTABLE>
     970:	0b3a0e03 	bleq	e84184 <__bss_end__+0xe79c0c>
     974:	19270b3b 	stmdbne	r7!, {r0, r1, r3, r4, r5, r8, r9, fp}
     978:	01111349 	tsteq	r1, r9, asr #6
     97c:	18400612 	stmdane	r0, {r1, r4, r9, sl}^
     980:	01194296 			; <UNDEFINED> instruction: 0x01194296
     984:	07000013 	smladeq	r0, r3, r0, r0
     988:	08030005 	stmdaeq	r3, {r0, r2}
     98c:	0b3b0b3a 	bleq	ec367c <__bss_end__+0xeb9104>
     990:	17021349 	strne	r1, [r2, -r9, asr #6]
     994:	15080000 	strne	r0, [r8, #-0]
     998:	49192701 	ldmdbmi	r9, {r0, r8, r9, sl, sp}
     99c:	00130113 	andseq	r0, r3, r3, lsl r1
     9a0:	00050900 	andeq	r0, r5, r0, lsl #18
     9a4:	00001349 	andeq	r1, r0, r9, asr #6
     9a8:	0300340a 	movweq	r3, #1034	; 0x40a
     9ac:	3b0b3a0e 	blcc	2cf1ec <__bss_end__+0x2c4c74>
     9b0:	3f13490b 	svccc	0x0013490b
     9b4:	00193c19 	andseq	r3, r9, r9, lsl ip
     9b8:	00340b00 	eorseq	r0, r4, r0, lsl #22
     9bc:	0b3a0e03 	bleq	e841d0 <__bss_end__+0xe79c58>
     9c0:	13490b3b 	movtne	r0, #39739	; 0x9b3b
     9c4:	1802193f 	stmdane	r2, {r0, r1, r2, r3, r4, r5, r8, fp, ip}
     9c8:	01000000 	mrseq	r0, (UNDEF: 0)
     9cc:	0e250111 	mcreq	1, 1, r0, cr5, cr1, {0}
     9d0:	0e030b13 	vmoveq.32	d3[0], r0
     9d4:	01110e1b 	tsteq	r1, fp, lsl lr
     9d8:	17100612 			; <UNDEFINED> instruction: 0x17100612
     9dc:	24020000 	strcs	r0, [r2], #-0
     9e0:	3e0b0b00 	vmlacc.f64	d0, d11, d0
     9e4:	0008030b 	andeq	r0, r8, fp, lsl #6
     9e8:	00240300 	eoreq	r0, r4, r0, lsl #6
     9ec:	0b3e0b0b 	bleq	f83620 <__bss_end__+0xf790a8>
     9f0:	00000e03 	andeq	r0, r0, r3, lsl #28
     9f4:	0b000f04 	bleq	460c <__code_start__-0x39f4>
     9f8:	0500000b 	streq	r0, [r0, #-11]
     9fc:	0b0b000f 	bleq	2c0a40 <__bss_end__+0x2b64c8>
     a00:	00001349 	andeq	r1, r0, r9, asr #6
     a04:	49002606 	stmdbmi	r0, {r1, r2, r9, sl, sp}
     a08:	07000013 	smladeq	r0, r3, r0, r0
     a0c:	0e030016 	mcreq	0, 0, r0, cr3, cr6, {0}
     a10:	0b3b0b3a 	bleq	ec3700 <__bss_end__+0xeb9188>
     a14:	00001349 	andeq	r1, r0, r9, asr #6
     a18:	03011308 	movweq	r1, #4872	; 0x1308
     a1c:	3a0b0b0e 	bcc	2c365c <__bss_end__+0x2b90e4>
     a20:	010b3b0b 	tsteq	fp, fp, lsl #22
     a24:	09000013 	stmdbeq	r0, {r0, r1, r4}
     a28:	0e03000d 	cdpeq	0, 0, cr0, cr3, cr13, {0}
     a2c:	0b381349 	bleq	e05758 <__bss_end__+0xdfb1e0>
     a30:	00001934 	andeq	r1, r0, r4, lsr r9
     a34:	03012e0a 	movweq	r2, #7690	; 0x1e0a
     a38:	3b0b3a0e 	blcc	2cf278 <__bss_end__+0x2c4d00>
     a3c:	4919270b 	ldmdbmi	r9, {r0, r1, r3, r8, r9, sl, sp}
     a40:	12011113 	andne	r1, r1, #-1073741820	; 0xc0000004
     a44:	97184006 	ldrls	r4, [r8, -r6]
     a48:	13011942 	movwne	r1, #6466	; 0x1942
     a4c:	050b0000 	streq	r0, [fp, #-0]
     a50:	3a080300 	bcc	201658 <__bss_end__+0x1f70e0>
     a54:	490b3b0b 	stmdbmi	fp, {r0, r1, r3, r8, r9, fp, ip, sp}
     a58:	00170213 	andseq	r0, r7, r3, lsl r2
     a5c:	012e0c00 	teqeq	lr, r0, lsl #24
     a60:	0b3a0803 	bleq	e82a74 <__bss_end__+0xe784fc>
     a64:	19270b3b 	stmdbne	r7!, {r0, r1, r3, r4, r5, r8, r9, fp}
     a68:	01111349 	tsteq	r1, r9, asr #6
     a6c:	18400612 	stmdane	r0, {r1, r4, r9, sl}^
     a70:	01194297 			; <UNDEFINED> instruction: 0x01194297
     a74:	0d000013 	stceq	0, cr0, [r0, #-76]	; 0xffffffb4
     a78:	0e030005 	cdpeq	0, 0, cr0, cr3, cr5, {0}
     a7c:	0b3b0b3a 	bleq	ec376c <__bss_end__+0xeb91f4>
     a80:	17021349 	strne	r1, [r2, -r9, asr #6]
     a84:	050e0000 	streq	r0, [lr, #-0]
     a88:	3a0e0300 	bcc	381690 <__bss_end__+0x377118>
     a8c:	490b3b0b 	stmdbmi	fp, {r0, r1, r3, r8, r9, fp, ip, sp}
     a90:	00180213 	andseq	r0, r8, r3, lsl r2
     a94:	00340f00 	eorseq	r0, r4, r0, lsl #30
     a98:	0b3a0803 	bleq	e82aac <__bss_end__+0xe78534>
     a9c:	13490b3b 	movtne	r0, #39739	; 0x9b3b
     aa0:	00001802 	andeq	r1, r0, r2, lsl #16
     aa4:	03003410 	movweq	r3, #1040	; 0x410
     aa8:	3b0b3a08 	blcc	2cf2d0 <__bss_end__+0x2c4d58>
     aac:	0213490b 	andseq	r4, r3, #180224	; 0x2c000
     ab0:	11000017 	tstne	r0, r7, lsl r0
     ab4:	0e030034 	mcreq	0, 0, r0, cr3, cr4, {1}
     ab8:	19341349 	ldmdbne	r4!, {r0, r3, r6, r8, r9, ip}
     abc:	00001802 	andeq	r1, r0, r2, lsl #16
     ac0:	11010b12 	tstne	r1, r2, lsl fp
     ac4:	01061201 	tsteq	r6, r1, lsl #4
     ac8:	13000013 	movwne	r0, #19
     acc:	0e030034 	mcreq	0, 0, r0, cr3, cr4, {1}
     ad0:	0b3b0b3a 	bleq	ec37c0 <__bss_end__+0xeb9248>
     ad4:	17021349 	strne	r1, [r2, -r9, asr #6]
     ad8:	89140000 	ldmdbhi	r4, {}	; <UNPREDICTABLE>
     adc:	11000182 	smlabbne	r0, r2, r1, r0
     ae0:	00133101 	andseq	r3, r3, r1, lsl #2
     ae4:	82891500 	addhi	r1, r9, #0, 10
     ae8:	01110101 	tsteq	r1, r1, lsl #2
     aec:	13011331 	movwne	r1, #4913	; 0x1331
     af0:	8a160000 	bhi	580af8 <__bss_end__+0x576580>
     af4:	02000182 	andeq	r0, r0, #-2147483616	; 0x80000020
     af8:	18429118 	stmdane	r2, {r3, r4, r8, ip, pc}^
     afc:	89170000 	ldmdbhi	r7, {}	; <UNPREDICTABLE>
     b00:	11010182 	smlabbne	r1, r2, r1, r0
     b04:	00133101 	andseq	r3, r3, r1, lsl #2
     b08:	01011800 	tsteq	r1, r0, lsl #16
     b0c:	13011349 	movwne	r1, #4937	; 0x1349
     b10:	21190000 	tstcs	r9, r0
     b14:	2f134900 	svccs	0x00134900
     b18:	1a00000b 	bne	b4c <__code_start__-0x74b4>
     b1c:	193f012e 	ldmdbne	pc!, {r1, r2, r3, r5, r8}	; <UNPREDICTABLE>
     b20:	0b3a0e03 	bleq	e84334 <__bss_end__+0xe79dbc>
     b24:	19270b3b 	stmdbne	r7!, {r0, r1, r3, r4, r5, r8, r9, fp}
     b28:	06120111 			; <UNDEFINED> instruction: 0x06120111
     b2c:	42971840 	addsmi	r1, r7, #64, 16	; 0x400000
     b30:	00130119 	andseq	r0, r3, r9, lsl r1
     b34:	01151b00 	tsteq	r5, r0, lsl #22
     b38:	13491927 	movtne	r1, #39207	; 0x9927
     b3c:	00001301 	andeq	r1, r0, r1, lsl #6
     b40:	4900051c 	stmdbmi	r0, {r2, r3, r4, r8, sl}
     b44:	1d000013 	stcne	0, cr0, [r0, #-76]	; 0xffffffb4
     b48:	193f012e 	ldmdbne	pc!, {r1, r2, r3, r5, r8}	; <UNPREDICTABLE>
     b4c:	0b3a0e03 	bleq	e84360 <__bss_end__+0xe79de8>
     b50:	19270b3b 	stmdbne	r7!, {r0, r1, r3, r4, r5, r8, r9, fp}
     b54:	01111349 	tsteq	r1, r9, asr #6
     b58:	18400612 	stmdane	r0, {r1, r4, r9, sl}^
     b5c:	01194297 			; <UNDEFINED> instruction: 0x01194297
     b60:	1e000013 	mcrne	0, 0, r0, cr0, cr3, {0}
     b64:	0111010b 	tsteq	r1, fp, lsl #2
     b68:	00000612 	andeq	r0, r0, r2, lsl r6
     b6c:	0182891f 	orreq	r8, r2, pc, lsl r9
     b70:	01011101 	tsteq	r1, r1, lsl #2
     b74:	20000013 	andcs	r0, r0, r3, lsl r0
     b78:	0e030034 	mcreq	0, 0, r0, cr3, cr4, {1}
     b7c:	0b3b0b3a 	bleq	ec386c <__bss_end__+0xeb92f4>
     b80:	193f1349 	ldmdbne	pc!, {r0, r3, r6, r8, r9, ip}	; <UNPREDICTABLE>
     b84:	0000193c 	andeq	r1, r0, ip, lsr r9
     b88:	3f002e21 	svccc	0x00002e21
     b8c:	3a0e0319 	bcc	3817f8 <__bss_end__+0x377280>
     b90:	270b3b0b 	strcs	r3, [fp, -fp, lsl #22]
     b94:	00193c19 	andseq	r3, r9, r9, lsl ip
     b98:	012e2200 	teqeq	lr, r0, lsl #4
     b9c:	0e03193f 	mcreq	9, 0, r1, cr3, cr15, {1}
     ba0:	0b3b0b3a 	bleq	ec3890 <__bss_end__+0xeb9318>
     ba4:	13491927 	movtne	r1, #39207	; 0x9927
     ba8:	1301193c 	movwne	r1, #6460	; 0x193c
     bac:	18230000 	stmdane	r3!, {}	; <UNPREDICTABLE>
     bb0:	00000000 	andeq	r0, r0, r0
     bb4:	25011101 	strcs	r1, [r1, #-257]	; 0x101
     bb8:	030b130e 	movweq	r1, #45838	; 0xb30e
     bbc:	110e1b0e 	tstne	lr, lr, lsl #22
     bc0:	10061201 	andne	r1, r6, r1, lsl #4
     bc4:	02000017 	andeq	r0, r0, #23
     bc8:	0b0b0024 	bleq	2c0c60 <__bss_end__+0x2b66e8>
     bcc:	08030b3e 	stmdaeq	r3, {r1, r2, r3, r4, r5, r8, r9, fp}
     bd0:	24030000 	strcs	r0, [r3], #-0
     bd4:	3e0b0b00 	vmlacc.f64	d0, d11, d0
     bd8:	000e030b 	andeq	r0, lr, fp, lsl #6
     bdc:	012e0400 	teqeq	lr, r0, lsl #8
     be0:	0e03193f 	mcreq	9, 0, r1, cr3, cr15, {1}
     be4:	0b3b0b3a 	bleq	ec38d4 <__bss_end__+0xeb935c>
     be8:	01111927 	tsteq	r1, r7, lsr #18
     bec:	18400612 	stmdane	r0, {r1, r4, r9, sl}^
     bf0:	01194297 			; <UNDEFINED> instruction: 0x01194297
     bf4:	05000013 	streq	r0, [r0, #-19]
     bf8:	08030034 	stmdaeq	r3, {r2, r4, r5}
     bfc:	0b3b0b3a 	bleq	ec38ec <__bss_end__+0xeb9374>
     c00:	17021349 	strne	r1, [r2, -r9, asr #6]
     c04:	2e060000 	cdpcs	0, 0, cr0, cr6, cr0, {0}
     c08:	03193f01 	tsteq	r9, #1, 30
     c0c:	3b0b3a0e 	blcc	2cf44c <__bss_end__+0x2c4ed4>
     c10:	1119270b 	tstne	r9, fp, lsl #14
     c14:	40061201 	andmi	r1, r6, r1, lsl #4
     c18:	19429718 	stmdbne	r2, {r3, r4, r8, r9, sl, ip, pc}^
     c1c:	01000000 	mrseq	r0, (UNDEF: 0)
     c20:	0e250111 	mcreq	1, 1, r0, cr5, cr1, {0}
     c24:	0e030b13 	vmoveq.32	d3[0], r0
     c28:	01110e1b 	tsteq	r1, fp, lsl lr
     c2c:	17100612 			; <UNDEFINED> instruction: 0x17100612
     c30:	24020000 	strcs	r0, [r2], #-0
     c34:	3e0b0b00 	vmlacc.f64	d0, d11, d0
     c38:	0008030b 	andeq	r0, r8, fp, lsl #6
     c3c:	00240300 	eoreq	r0, r4, r0, lsl #6
     c40:	0b3e0b0b 	bleq	f83874 <__bss_end__+0xf792fc>
     c44:	00000e03 	andeq	r0, r0, r3, lsl #28
     c48:	0b000f04 	bleq	4860 <__code_start__-0x37a0>
     c4c:	0013490b 	andseq	r4, r3, fp, lsl #18
     c50:	00260500 	eoreq	r0, r6, r0, lsl #10
     c54:	00001349 	andeq	r1, r0, r9, asr #6
     c58:	3f012e06 	svccc	0x00012e06
     c5c:	3a0e0319 	bcc	3818c8 <__bss_end__+0x377350>
     c60:	270b3b0b 	strcs	r3, [fp, -fp, lsl #22]
     c64:	12011119 	andne	r1, r1, #1073741830	; 0x40000006
     c68:	97184006 	ldrls	r4, [r8, -r6]
     c6c:	13011942 	movwne	r1, #6466	; 0x1942
     c70:	89070000 	stmdbhi	r7, {}	; <UNPREDICTABLE>
     c74:	11000182 	smlabbne	r0, r2, r1, r0
     c78:	00133101 	andseq	r3, r3, r1, lsl #2
     c7c:	82890800 	addhi	r0, r9, #0, 16
     c80:	01110101 	tsteq	r1, r1, lsl #2
     c84:	00001301 	andeq	r1, r0, r1, lsl #6
     c88:	01828a09 	orreq	r8, r2, r9, lsl #20
     c8c:	91180200 	tstls	r8, r0, lsl #4
     c90:	00001842 	andeq	r1, r0, r2, asr #16
     c94:	0182890a 	orreq	r8, r2, sl, lsl #18
     c98:	31011101 	tstcc	r1, r1, lsl #2
     c9c:	00130113 	andseq	r0, r3, r3, lsl r1
     ca0:	01150b00 	tsteq	r5, r0, lsl #22
     ca4:	13491927 	movtne	r1, #39207	; 0x9927
     ca8:	00001301 	andeq	r1, r0, r1, lsl #6
     cac:	4900050c 	stmdbmi	r0, {r2, r3, r8, sl}
     cb0:	0d000013 	stceq	0, cr0, [r0, #-76]	; 0xffffffb4
     cb4:	0e030034 	mcreq	0, 0, r0, cr3, cr4, {1}
     cb8:	0b3b0b3a 	bleq	ec39a8 <__bss_end__+0xeb9430>
     cbc:	193f1349 	ldmdbne	pc!, {r0, r3, r6, r8, r9, ip}	; <UNPREDICTABLE>
     cc0:	0000193c 	andeq	r1, r0, ip, lsr r9
     cc4:	3f002e0e 	svccc	0x00002e0e
     cc8:	3a0e0319 	bcc	381934 <__bss_end__+0x3773bc>
     ccc:	270b3b0b 	strcs	r3, [fp, -fp, lsl #22]
     cd0:	00193c19 	andseq	r3, r9, r9, lsl ip
     cd4:	012e0f00 	teqeq	lr, r0, lsl #30
     cd8:	0e03193f 	mcreq	9, 0, r1, cr3, cr15, {1}
     cdc:	0b3b0b3a 	bleq	ec39cc <__bss_end__+0xeb9454>
     ce0:	193c1927 	ldmdbne	ip!, {r0, r1, r2, r5, r8, fp, ip}
     ce4:	00001301 	andeq	r1, r0, r1, lsl #6
     ce8:	01110100 	tsteq	r1, r0, lsl #2
     cec:	0b130e25 	bleq	4c4588 <__bss_end__+0x4ba010>
     cf0:	0e1b0e03 	cdpeq	14, 1, cr0, cr11, cr3, {0}
     cf4:	06120111 			; <UNDEFINED> instruction: 0x06120111
     cf8:	00001710 	andeq	r1, r0, r0, lsl r7
     cfc:	0b002402 	bleq	9d0c <__FUNCTION__.4451+0xdc>
     d00:	030b3e0b 	movweq	r3, #48651	; 0xbe0b
     d04:	03000008 	movweq	r0, #8
     d08:	0b0b0024 	bleq	2c0da0 <__bss_end__+0x2b6828>
     d0c:	0e030b3e 	vmoveq.16	d3[0], r0
     d10:	2e040000 	cdpcs	0, 0, cr0, cr4, cr0, {0}
     d14:	03193f01 	tsteq	r9, #1, 30
     d18:	3b0b3a0e 	blcc	2cf558 <__bss_end__+0x2c4fe0>
     d1c:	1201110b 	andne	r1, r1, #-1073741822	; 0xc0000002
     d20:	97184006 	ldrls	r4, [r8, -r6]
     d24:	13011942 	movwne	r1, #6466	; 0x1942
     d28:	34050000 	strcc	r0, [r5], #-0
     d2c:	3a0e0300 	bcc	381934 <__bss_end__+0x3773bc>
     d30:	490b3b0b 	stmdbmi	fp, {r0, r1, r3, r8, r9, fp, ip, sp}
     d34:	3c193f13 	ldccc	15, cr3, [r9], {19}
     d38:	06000019 			; <UNDEFINED> instruction: 0x06000019
     d3c:	193f002e 	ldmdbne	pc!, {r1, r2, r3, r5}	; <UNPREDICTABLE>
     d40:	0b3a0e03 	bleq	e84554 <__bss_end__+0xe79fdc>
     d44:	19270b3b 	stmdbne	r7!, {r0, r1, r3, r4, r5, r8, r9, fp}
     d48:	0000193c 	andeq	r1, r0, ip, lsr r9
     d4c:	03003407 	movweq	r3, #1031	; 0x407
     d50:	3b0b3a08 	blcc	2cf578 <__bss_end__+0x2c5000>
     d54:	0213490b 	andseq	r4, r3, #180224	; 0x2c000
     d58:	08000017 	stmdaeq	r0, {r0, r1, r2, r4}
     d5c:	0e030034 	mcreq	0, 0, r0, cr3, cr4, {1}
     d60:	0b3b0b3a 	bleq	ec3a50 <__bss_end__+0xeb94d8>
     d64:	00001349 	andeq	r1, r0, r9, asr #6
     d68:	01828909 	orreq	r8, r2, r9, lsl #18
     d6c:	31011100 	mrscc	r1, (UNDEF: 17)
     d70:	0a000013 	beq	dc4 <__code_start__-0x723c>
     d74:	0b0b000f 	bleq	2c0db8 <__bss_end__+0x2b6840>
     d78:	00001349 	andeq	r1, r0, r9, asr #6
     d7c:	01110100 	tsteq	r1, r0, lsl #2
     d80:	0b130e25 	bleq	4c461c <__bss_end__+0x4ba0a4>
     d84:	0e1b0e03 	cdpeq	14, 1, cr0, cr11, cr3, {0}
     d88:	06120111 			; <UNDEFINED> instruction: 0x06120111
     d8c:	00001710 	andeq	r1, r0, r0, lsl r7
     d90:	0b002402 	bleq	9da0 <__FUNCTION__.4451+0x170>
     d94:	030b3e0b 	movweq	r3, #48651	; 0xbe0b
     d98:	03000008 	movweq	r0, #8
     d9c:	0b0b0024 	bleq	2c0e34 <__bss_end__+0x2b68bc>
     da0:	0e030b3e 	vmoveq.16	d3[0], r0
     da4:	0f040000 	svceq	0x00040000
     da8:	490b0b00 	stmdbmi	fp, {r8, r9, fp}
     dac:	05000013 	streq	r0, [r0, #-19]
     db0:	13490026 	movtne	r0, #36902	; 0x9026
     db4:	2e060000 	cdpcs	0, 0, cr0, cr6, cr0, {0}
     db8:	03193f01 	tsteq	r9, #1, 30
     dbc:	3b0b3a0e 	blcc	2cf5fc <__bss_end__+0x2c5084>
     dc0:	1119270b 	tstne	r9, fp, lsl #14
     dc4:	40061201 	andmi	r1, r6, r1, lsl #4
     dc8:	19429718 	stmdbne	r2, {r3, r4, r8, r9, sl, ip, pc}^
     dcc:	00001301 	andeq	r1, r0, r1, lsl #6
     dd0:	03000507 	movweq	r0, #1287	; 0x507
     dd4:	3b0b3a08 	blcc	2cf5fc <__bss_end__+0x2c5084>
     dd8:	0213490b 	andseq	r4, r3, #180224	; 0x2c000
     ddc:	08000017 	stmdaeq	r0, {r0, r1, r2, r4}
     de0:	0e030034 	mcreq	0, 0, r0, cr3, cr4, {1}
     de4:	19341349 	ldmdbne	r4!, {r0, r3, r6, r8, r9, ip}
     de8:	00001802 	andeq	r1, r0, r2, lsl #16
     dec:	01828909 	orreq	r8, r2, r9, lsl #18
     df0:	31011100 	mrscc	r1, (UNDEF: 17)
     df4:	0a000013 	beq	e48 <__code_start__-0x71b8>
     df8:	01018289 	smlabbeq	r1, r9, r2, r8
     dfc:	13310111 	teqne	r1, #1073741828	; 0x40000004
     e00:	00001301 	andeq	r1, r0, r1, lsl #6
     e04:	01828a0b 	orreq	r8, r2, fp, lsl #20
     e08:	91180200 	tstls	r8, r0, lsl #4
     e0c:	00001842 	andeq	r1, r0, r2, asr #16
     e10:	4901010c 	stmdbmi	r1, {r2, r3, r8}
     e14:	00130113 	andseq	r0, r3, r3, lsl r1
     e18:	00210d00 	eoreq	r0, r1, r0, lsl #26
     e1c:	0b2f1349 	bleq	bc5b48 <__bss_end__+0xbbb5d0>
     e20:	2e0e0000 	cdpcs	0, 0, cr0, cr14, cr0, {0}
     e24:	03193f00 	tsteq	r9, #0, 30
     e28:	3b0b3a0e 	blcc	2cf668 <__bss_end__+0x2c50f0>
     e2c:	3c19270b 	ldccc	7, cr2, [r9], {11}
     e30:	0f000019 	svceq	0x00000019
     e34:	193f012e 	ldmdbne	pc!, {r1, r2, r3, r5, r8}	; <UNPREDICTABLE>
     e38:	0b3a0e03 	bleq	e8464c <__bss_end__+0xe7a0d4>
     e3c:	19270b3b 	stmdbne	r7!, {r0, r1, r3, r4, r5, r8, r9, fp}
     e40:	193c1349 	ldmdbne	ip!, {r0, r3, r6, r8, r9, ip}
     e44:	00001301 	andeq	r1, r0, r1, lsl #6
     e48:	49000510 	stmdbmi	r0, {r4, r8, sl}
     e4c:	11000013 	tstne	r0, r3, lsl r0
     e50:	00000018 	andeq	r0, r0, r8, lsl r0
     e54:	01110100 	tsteq	r1, r0, lsl #2
     e58:	0b130e25 	bleq	4c46f4 <__bss_end__+0x4ba17c>
     e5c:	0e1b0e03 	cdpeq	14, 1, cr0, cr11, cr3, {0}
     e60:	06120111 			; <UNDEFINED> instruction: 0x06120111
     e64:	00001710 	andeq	r1, r0, r0, lsl r7
     e68:	0b002402 	bleq	9e78 <__FUNCTION__.4451+0x248>
     e6c:	030b3e0b 	movweq	r3, #48651	; 0xbe0b
     e70:	03000008 	movweq	r0, #8
     e74:	0b0b0024 	bleq	2c0f0c <__bss_end__+0x2b6994>
     e78:	0e030b3e 	vmoveq.16	d3[0], r0
     e7c:	0f040000 	svceq	0x00040000
     e80:	490b0b00 	stmdbmi	fp, {r8, r9, fp}
     e84:	05000013 	streq	r0, [r0, #-19]
     e88:	13490026 	movtne	r0, #36902	; 0x9026
     e8c:	2e060000 	cdpcs	0, 0, cr0, cr6, cr0, {0}
     e90:	03193f01 	tsteq	r9, #1, 30
     e94:	3b0b3a0e 	blcc	2cf6d4 <__bss_end__+0x2c515c>
     e98:	1119270b 	tstne	r9, fp, lsl #14
     e9c:	40061201 	andmi	r1, r6, r1, lsl #4
     ea0:	19429718 	stmdbne	r2, {r3, r4, r8, r9, sl, ip, pc}^
     ea4:	00001301 	andeq	r1, r0, r1, lsl #6
     ea8:	03000507 	movweq	r0, #1287	; 0x507
     eac:	3b0b3a08 	blcc	2cf6d4 <__bss_end__+0x2c515c>
     eb0:	0213490b 	andseq	r4, r3, #180224	; 0x2c000
     eb4:	08000017 	stmdaeq	r0, {r0, r1, r2, r4}
     eb8:	0e030034 	mcreq	0, 0, r0, cr3, cr4, {1}
     ebc:	19341349 	ldmdbne	r4!, {r0, r3, r6, r8, r9, ip}
     ec0:	00001802 	andeq	r1, r0, r2, lsl #16
     ec4:	01828909 	orreq	r8, r2, r9, lsl #18
     ec8:	31011100 	mrscc	r1, (UNDEF: 17)
     ecc:	0a000013 	beq	f20 <__code_start__-0x70e0>
     ed0:	01018289 	smlabbeq	r1, r9, r2, r8
     ed4:	13310111 	teqne	r1, #1073741828	; 0x40000004
     ed8:	00001301 	andeq	r1, r0, r1, lsl #6
     edc:	01828a0b 	orreq	r8, r2, fp, lsl #20
     ee0:	91180200 	tstls	r8, r0, lsl #4
     ee4:	00001842 	andeq	r1, r0, r2, asr #16
     ee8:	4901010c 	stmdbmi	r1, {r2, r3, r8}
     eec:	00130113 	andseq	r0, r3, r3, lsl r1
     ef0:	00210d00 	eoreq	r0, r1, r0, lsl #26
     ef4:	0b2f1349 	bleq	bc5c20 <__bss_end__+0xbbb6a8>
     ef8:	2e0e0000 	cdpcs	0, 0, cr0, cr14, cr0, {0}
     efc:	03193f00 	tsteq	r9, #0, 30
     f00:	3b0b3a0e 	blcc	2cf740 <__bss_end__+0x2c51c8>
     f04:	3c19270b 	ldccc	7, cr2, [r9], {11}
     f08:	0f000019 	svceq	0x00000019
     f0c:	193f012e 	ldmdbne	pc!, {r1, r2, r3, r5, r8}	; <UNPREDICTABLE>
     f10:	0b3a0e03 	bleq	e84724 <__bss_end__+0xe7a1ac>
     f14:	19270b3b 	stmdbne	r7!, {r0, r1, r3, r4, r5, r8, r9, fp}
     f18:	193c1349 	ldmdbne	ip!, {r0, r3, r6, r8, r9, ip}
     f1c:	00001301 	andeq	r1, r0, r1, lsl #6
     f20:	49000510 	stmdbmi	r0, {r4, r8, sl}
     f24:	11000013 	tstne	r0, r3, lsl r0
     f28:	00000018 	andeq	r0, r0, r8, lsl r0
     f2c:	01110100 	tsteq	r1, r0, lsl #2
     f30:	0b130e25 	bleq	4c47cc <__bss_end__+0x4ba254>
     f34:	0e1b0e03 	cdpeq	14, 1, cr0, cr11, cr3, {0}
     f38:	06120111 			; <UNDEFINED> instruction: 0x06120111
     f3c:	00001710 	andeq	r1, r0, r0, lsl r7
     f40:	0b002402 	bleq	9f50 <__FUNCTION__.4197>
     f44:	030b3e0b 	movweq	r3, #48651	; 0xbe0b
     f48:	03000008 	movweq	r0, #8
     f4c:	0b0b0024 	bleq	2c0fe4 <__bss_end__+0x2b6a6c>
     f50:	0e030b3e 	vmoveq.16	d3[0], r0
     f54:	0f040000 	svceq	0x00040000
     f58:	490b0b00 	stmdbmi	fp, {r8, r9, fp}
     f5c:	05000013 	streq	r0, [r0, #-19]
     f60:	13490026 	movtne	r0, #36902	; 0x9026
     f64:	2e060000 	cdpcs	0, 0, cr0, cr6, cr0, {0}
     f68:	03193f01 	tsteq	r9, #1, 30
     f6c:	3b0b3a0e 	blcc	2cf7ac <__bss_end__+0x2c5234>
     f70:	1119270b 	tstne	r9, fp, lsl #14
     f74:	40061201 	andmi	r1, r6, r1, lsl #4
     f78:	19429718 	stmdbne	r2, {r3, r4, r8, r9, sl, ip, pc}^
     f7c:	00001301 	andeq	r1, r0, r1, lsl #6
     f80:	03000507 	movweq	r0, #1287	; 0x507
     f84:	3b0b3a08 	blcc	2cf7ac <__bss_end__+0x2c5234>
     f88:	0213490b 	andseq	r4, r3, #180224	; 0x2c000
     f8c:	08000017 	stmdaeq	r0, {r0, r1, r2, r4}
     f90:	0e030034 	mcreq	0, 0, r0, cr3, cr4, {1}
     f94:	19341349 	ldmdbne	r4!, {r0, r3, r6, r8, r9, ip}
     f98:	00001802 	andeq	r1, r0, r2, lsl #16
     f9c:	01828909 	orreq	r8, r2, r9, lsl #18
     fa0:	31011100 	mrscc	r1, (UNDEF: 17)
     fa4:	0a000013 	beq	ff8 <__code_start__-0x7008>
     fa8:	01018289 	smlabbeq	r1, r9, r2, r8
     fac:	13310111 	teqne	r1, #1073741828	; 0x40000004
     fb0:	00001301 	andeq	r1, r0, r1, lsl #6
     fb4:	01828a0b 	orreq	r8, r2, fp, lsl #20
     fb8:	91180200 	tstls	r8, r0, lsl #4
     fbc:	00001842 	andeq	r1, r0, r2, asr #16
     fc0:	4901010c 	stmdbmi	r1, {r2, r3, r8}
     fc4:	00130113 	andseq	r0, r3, r3, lsl r1
     fc8:	00210d00 	eoreq	r0, r1, r0, lsl #26
     fcc:	0b2f1349 	bleq	bc5cf8 <__bss_end__+0xbbb780>
     fd0:	2e0e0000 	cdpcs	0, 0, cr0, cr14, cr0, {0}
     fd4:	03193f00 	tsteq	r9, #0, 30
     fd8:	3b0b3a0e 	blcc	2cf818 <__bss_end__+0x2c52a0>
     fdc:	3c19270b 	ldccc	7, cr2, [r9], {11}
     fe0:	0f000019 	svceq	0x00000019
     fe4:	193f012e 	ldmdbne	pc!, {r1, r2, r3, r5, r8}	; <UNPREDICTABLE>
     fe8:	0b3a0e03 	bleq	e847fc <__bss_end__+0xe7a284>
     fec:	19270b3b 	stmdbne	r7!, {r0, r1, r3, r4, r5, r8, r9, fp}
     ff0:	193c1349 	ldmdbne	ip!, {r0, r3, r6, r8, r9, ip}
     ff4:	00001301 	andeq	r1, r0, r1, lsl #6
     ff8:	49000510 	stmdbmi	r0, {r4, r8, sl}
     ffc:	11000013 	tstne	r0, r3, lsl r0
    1000:	00000018 	andeq	r0, r0, r8, lsl r0
    1004:	01110100 	tsteq	r1, r0, lsl #2
    1008:	0b130e25 	bleq	4c48a4 <__bss_end__+0x4ba32c>
    100c:	0e1b0e03 	cdpeq	14, 1, cr0, cr11, cr3, {0}
    1010:	06120111 			; <UNDEFINED> instruction: 0x06120111
    1014:	00001710 	andeq	r1, r0, r0, lsl r7
    1018:	0b002402 	bleq	a028 <__FUNCTION__.4272+0xc8>
    101c:	030b3e0b 	movweq	r3, #48651	; 0xbe0b
    1020:	03000008 	movweq	r0, #8
    1024:	0b0b0024 	bleq	2c10bc <__bss_end__+0x2b6b44>
    1028:	0e030b3e 	vmoveq.16	d3[0], r0
    102c:	2e040000 	cdpcs	0, 0, cr0, cr4, cr0, {0}
    1030:	03193f00 	tsteq	r9, #0, 30
    1034:	3b0b3a0e 	blcc	2cf874 <__bss_end__+0x2c52fc>
    1038:	1119270b 	tstne	r9, fp, lsl #14
    103c:	40061201 	andmi	r1, r6, r1, lsl #4
    1040:	19429718 	stmdbne	r2, {r3, r4, r8, r9, sl, ip, pc}^
    1044:	01000000 	mrseq	r0, (UNDEF: 0)
    1048:	0e250111 	mcreq	1, 1, r0, cr5, cr1, {0}
    104c:	0e030b13 	vmoveq.32	d3[0], r0
    1050:	01110e1b 	tsteq	r1, fp, lsl lr
    1054:	17100612 			; <UNDEFINED> instruction: 0x17100612
    1058:	24020000 	strcs	r0, [r2], #-0
    105c:	3e0b0b00 	vmlacc.f64	d0, d11, d0
    1060:	0008030b 	andeq	r0, r8, fp, lsl #6
    1064:	00240300 	eoreq	r0, r4, r0, lsl #6
    1068:	0b3e0b0b 	bleq	f83c9c <__bss_end__+0xf79724>
    106c:	00000e03 	andeq	r0, r0, r3, lsl #28
    1070:	0b010404 	bleq	42088 <__bss_end__+0x37b10>
    1074:	3b0b3a0b 	blcc	2cf8a8 <__bss_end__+0x2c5330>
    1078:	0013010b 	andseq	r0, r3, fp, lsl #2
    107c:	00280500 	eoreq	r0, r8, r0, lsl #10
    1080:	0d1c0e03 	ldceq	14, cr0, [ip, #-12]
    1084:	2e060000 	cdpcs	0, 0, cr0, cr6, cr0, {0}
    1088:	03193f01 	tsteq	r9, #1, 30
    108c:	3b0b3a0e 	blcc	2cf8cc <__bss_end__+0x2c5354>
    1090:	1119270b 	tstne	r9, fp, lsl #14
    1094:	40061201 	andmi	r1, r6, r1, lsl #4
    1098:	19429718 	stmdbne	r2, {r3, r4, r8, r9, sl, ip, pc}^
    109c:	00001301 	andeq	r1, r0, r1, lsl #6
    10a0:	03003407 	movweq	r3, #1031	; 0x407
    10a4:	3b0b3a0e 	blcc	2cf8e4 <__bss_end__+0x2c536c>
    10a8:	3f13490b 	svccc	0x0013490b
    10ac:	00193c19 	andseq	r3, r9, r9, lsl ip
    10b0:	00340800 	eorseq	r0, r4, r0, lsl #16
    10b4:	0b3a0803 	bleq	e830c8 <__bss_end__+0xe78b50>
    10b8:	13490b3b 	movtne	r0, #39739	; 0x9b3b
    10bc:	00000b1c 	andeq	r0, r0, ip, lsl fp
    10c0:	03003409 	movweq	r3, #1033	; 0x409
    10c4:	3b0b3a08 	blcc	2cf8ec <__bss_end__+0x2c5374>
    10c8:	0013490b 	andseq	r4, r3, fp, lsl #18
    10cc:	00340a00 	eorseq	r0, r4, r0, lsl #20
    10d0:	0b3a0803 	bleq	e830e4 <__bss_end__+0xe78b6c>
    10d4:	13490b3b 	movtne	r0, #39739	; 0x9b3b
    10d8:	00001802 	andeq	r1, r0, r2, lsl #16
    10dc:	11010b0b 	tstne	r1, fp, lsl #22
    10e0:	01061201 	tsteq	r6, r1, lsl #4
    10e4:	0c000013 	stceq	0, cr0, [r0], {19}
    10e8:	08030034 	stmdaeq	r3, {r2, r4, r5}
    10ec:	0b3b0b3a 	bleq	ec3ddc <__bss_end__+0xeb9864>
    10f0:	17021349 	strne	r1, [r2, -r9, asr #6]
    10f4:	890d0000 	stmdbhi	sp, {}	; <UNPREDICTABLE>
    10f8:	11000182 	smlabbne	r0, r2, r1, r0
    10fc:	00133101 	andseq	r3, r3, r1, lsl #2
    1100:	82890e00 	addhi	r0, r9, #0, 28
    1104:	01110101 	tsteq	r1, r1, lsl #2
    1108:	13011331 	movwne	r1, #4913	; 0x1331
    110c:	8a0f0000 	bhi	3c1114 <__bss_end__+0x3b6b9c>
    1110:	02000182 	andeq	r0, r0, #-2147483616	; 0x80000020
    1114:	18429118 	stmdane	r2, {r3, r4, r8, ip, pc}^
    1118:	0f100000 	svceq	0x00100000
    111c:	490b0b00 	stmdbmi	fp, {r8, r9, fp}
    1120:	11000013 	tstne	r0, r3, lsl r0
    1124:	193f002e 	ldmdbne	pc!, {r1, r2, r3, r5}	; <UNPREDICTABLE>
    1128:	0b3a0e03 	bleq	e8493c <__bss_end__+0xe7a3c4>
    112c:	19270b3b 	stmdbne	r7!, {r0, r1, r3, r4, r5, r8, r9, fp}
    1130:	0000193c 	andeq	r1, r0, ip, lsr r9
    1134:	3f012e12 	svccc	0x00012e12
    1138:	3a0e0319 	bcc	381da4 <__bss_end__+0x37782c>
    113c:	270b3b0b 	strcs	r3, [fp, -fp, lsl #22]
    1140:	00193c19 	andseq	r3, r9, r9, lsl ip
    1144:	00051300 	andeq	r1, r5, r0, lsl #6
    1148:	00001349 	andeq	r1, r0, r9, asr #6
    114c:	01110100 	tsteq	r1, r0, lsl #2
    1150:	0b130e25 	bleq	4c49ec <__bss_end__+0x4ba474>
    1154:	0e1b0e03 	cdpeq	14, 1, cr0, cr11, cr3, {0}
    1158:	01111755 	tsteq	r1, r5, asr r7
    115c:	00001710 	andeq	r1, r0, r0, lsl r7
    1160:	0b002402 	bleq	a170 <checker>
    1164:	030b3e0b 	movweq	r3, #48651	; 0xbe0b
    1168:	03000008 	movweq	r0, #8
    116c:	0b0b0024 	bleq	2c1204 <__bss_end__+0x2b6c8c>
    1170:	0e030b3e 	vmoveq.16	d3[0], r0
    1174:	2e040000 	cdpcs	0, 0, cr0, cr4, cr0, {0}
    1178:	03193f01 	tsteq	r9, #1, 30
    117c:	3b0b3a0e 	blcc	2cf9bc <__bss_end__+0x2c5444>
    1180:	4919270b 	ldmdbmi	r9, {r0, r1, r3, r8, r9, sl, sp}
    1184:	12011113 	andne	r1, r1, #-1073741820	; 0xc0000004
    1188:	97184006 	ldrls	r4, [r8, -r6]
    118c:	13011942 	movwne	r1, #6466	; 0x1942
    1190:	34050000 	strcc	r0, [r5], #-0
    1194:	3a0e0300 	bcc	381d9c <__bss_end__+0x377824>
    1198:	490b3b0b 	stmdbmi	fp, {r0, r1, r3, r8, r9, fp, ip, sp}
    119c:	00170213 	andseq	r0, r7, r3, lsl r2
    11a0:	012e0600 	teqeq	lr, r0, lsl #12
    11a4:	0e03193f 	mcreq	9, 0, r1, cr3, cr15, {1}
    11a8:	0b3b0b3a 	bleq	ec3e98 <__bss_end__+0xeb9920>
    11ac:	01111927 	tsteq	r1, r7, lsr #18
    11b0:	18400612 	stmdane	r0, {r1, r4, r9, sl}^
    11b4:	01194297 			; <UNDEFINED> instruction: 0x01194297
    11b8:	07000013 	smladeq	r0, r3, r0, r0
    11bc:	0e030034 	mcreq	0, 0, r0, cr3, cr4, {1}
    11c0:	0b3b0b3a 	bleq	ec3eb0 <__bss_end__+0xeb9938>
    11c4:	061c1349 	ldreq	r1, [ip], -r9, asr #6
    11c8:	34080000 	strcc	r0, [r8], #-0
    11cc:	3a0e0300 	bcc	381dd4 <__bss_end__+0x37785c>
    11d0:	490b3b0b 	stmdbmi	fp, {r0, r1, r3, r8, r9, fp, ip, sp}
    11d4:	000b1c13 	andeq	r1, fp, r3, lsl ip
    11d8:	82890900 	addhi	r0, r9, #0, 18
    11dc:	01110001 	tsteq	r1, r1
    11e0:	00001331 	andeq	r1, r0, r1, lsr r3
    11e4:	0182890a 	orreq	r8, r2, sl, lsl #18
    11e8:	31011101 	tstcc	r1, r1, lsl #2
    11ec:	00130113 	andseq	r0, r3, r3, lsl r1
    11f0:	828a0b00 	addhi	r0, sl, #0, 22
    11f4:	18020001 	stmdane	r2, {r0}
    11f8:	00184291 	mulseq	r8, r1, r2
    11fc:	82890c00 	addhi	r0, r9, #0, 24
    1200:	01110101 	tsteq	r1, r1, lsl #2
    1204:	00001331 	andeq	r1, r0, r1, lsr r3
    1208:	4900260d 	stmdbmi	r0, {r0, r2, r3, r9, sl, sp}
    120c:	0e000013 	mcreq	0, 0, r0, cr0, cr3, {0}
    1210:	193f012e 	ldmdbne	pc!, {r1, r2, r3, r5, r8}	; <UNPREDICTABLE>
    1214:	0b3a0e03 	bleq	e84a28 <__bss_end__+0xe7a4b0>
    1218:	19270b3b 	stmdbne	r7!, {r0, r1, r3, r4, r5, r8, r9, fp}
    121c:	1301193c 	movwne	r1, #6460	; 0x193c
    1220:	050f0000 	streq	r0, [pc, #-0]	; 1228 <__code_start__-0x6dd8>
    1224:	00134900 	andseq	r4, r3, r0, lsl #18
    1228:	012e1000 	teqeq	lr, r0
    122c:	0e03193f 	mcreq	9, 0, r1, cr3, cr15, {1}
    1230:	0b3b0b3a 	bleq	ec3f20 <__bss_end__+0xeb99a8>
    1234:	193c1927 	ldmdbne	ip!, {r0, r1, r2, r5, r8, fp, ip}
    1238:	01000000 	mrseq	r0, (UNDEF: 0)
    123c:	0e250111 	mcreq	1, 1, r0, cr5, cr1, {0}
    1240:	0e030b13 	vmoveq.32	d3[0], r0
    1244:	01110e1b 	tsteq	r1, fp, lsl lr
    1248:	17100612 			; <UNDEFINED> instruction: 0x17100612
    124c:	24020000 	strcs	r0, [r2], #-0
    1250:	3e0b0b00 	vmlacc.f64	d0, d11, d0
    1254:	0008030b 	andeq	r0, r8, fp, lsl #6
    1258:	00240300 	eoreq	r0, r4, r0, lsl #6
    125c:	0b3e0b0b 	bleq	f83e90 <__bss_end__+0xf79918>
    1260:	00000e03 	andeq	r0, r0, r3, lsl #28
    1264:	3f012e04 	svccc	0x00012e04
    1268:	3a0e0319 	bcc	381ed4 <__bss_end__+0x37795c>
    126c:	270b3b0b 	strcs	r3, [fp, -fp, lsl #22]
    1270:	12011119 	andne	r1, r1, #1073741830	; 0x40000006
    1274:	97184006 	ldrls	r4, [r8, -r6]
    1278:	13011942 	movwne	r1, #6466	; 0x1942
    127c:	05050000 	streq	r0, [r5, #-0]
    1280:	3a0e0300 	bcc	381e88 <__bss_end__+0x377910>
    1284:	490b3b0b 	stmdbmi	fp, {r0, r1, r3, r8, r9, fp, ip, sp}
    1288:	00170213 	andseq	r0, r7, r3, lsl r2
    128c:	012e0600 	teqeq	lr, r0, lsl #12
    1290:	0e03193f 	mcreq	9, 0, r1, cr3, cr15, {1}
    1294:	0b3b0b3a 	bleq	ec3f84 <__bss_end__+0xeb9a0c>
    1298:	13491927 	movtne	r1, #39207	; 0x9927
    129c:	06120111 			; <UNDEFINED> instruction: 0x06120111
    12a0:	42971840 	addsmi	r1, r7, #64, 16	; 0x400000
    12a4:	00130119 	andseq	r0, r3, r9, lsl r1
    12a8:	82890700 	addhi	r0, r9, #0, 14
    12ac:	01110101 	tsteq	r1, r1, lsl #2
    12b0:	00001331 	andeq	r1, r0, r1, lsr r3
    12b4:	01828a08 	orreq	r8, r2, r8, lsl #20
    12b8:	91180200 	tstls	r8, r0, lsl #4
    12bc:	00001842 	andeq	r1, r0, r2, asr #16
    12c0:	03003409 	movweq	r3, #1033	; 0x409
    12c4:	3b0b3a08 	blcc	2cfaec <__bss_end__+0x2c5574>
    12c8:	0213490b 	andseq	r4, r3, #180224	; 0x2c000
    12cc:	0a000017 	beq	1330 <__code_start__-0x6cd0>
    12d0:	00018289 	andeq	r8, r1, r9, lsl #5
    12d4:	13310111 	teqne	r1, #1073741828	; 0x40000004
    12d8:	050b0000 	streq	r0, [fp, #-0]
    12dc:	3a080300 	bcc	201ee4 <__bss_end__+0x1f796c>
    12e0:	490b3b0b 	stmdbmi	fp, {r0, r1, r3, r8, r9, fp, ip, sp}
    12e4:	00170213 	andseq	r0, r7, r3, lsl r2
    12e8:	00340c00 	eorseq	r0, r4, r0, lsl #24
    12ec:	0b3a0803 	bleq	e83300 <__bss_end__+0xe78d88>
    12f0:	13490b3b 	movtne	r0, #39739	; 0x9b3b
    12f4:	00001802 	andeq	r1, r0, r2, lsl #16
    12f8:	11010b0d 	tstne	r1, sp, lsl #22
    12fc:	01061201 	tsteq	r6, r1, lsl #4
    1300:	0e000013 	mcreq	0, 0, r0, cr0, cr3, {0}
    1304:	193f012e 	ldmdbne	pc!, {r1, r2, r3, r5, r8}	; <UNPREDICTABLE>
    1308:	0b3a0e03 	bleq	e84b1c <__bss_end__+0xe7a5a4>
    130c:	19270b3b 	stmdbne	r7!, {r0, r1, r3, r4, r5, r8, r9, fp}
    1310:	193c1349 	ldmdbne	ip!, {r0, r3, r6, r8, r9, ip}
    1314:	00001301 	andeq	r1, r0, r1, lsl #6
    1318:	4900050f 	stmdbmi	r0, {r0, r1, r2, r3, r8, sl}
    131c:	10000013 	andne	r0, r0, r3, lsl r0
    1320:	193f002e 	ldmdbne	pc!, {r1, r2, r3, r5}	; <UNPREDICTABLE>
    1324:	0b3a0e03 	bleq	e84b38 <__bss_end__+0xe7a5c0>
    1328:	19270b3b 	stmdbne	r7!, {r0, r1, r3, r4, r5, r8, r9, fp}
    132c:	0000193c 	andeq	r1, r0, ip, lsr r9
    1330:	01110100 	tsteq	r1, r0, lsl #2
    1334:	0b130e25 	bleq	4c4bd0 <__bss_end__+0x4ba658>
    1338:	0e1b0e03 	cdpeq	14, 1, cr0, cr11, cr3, {0}
    133c:	06120111 			; <UNDEFINED> instruction: 0x06120111
    1340:	00001710 	andeq	r1, r0, r0, lsl r7
    1344:	0b002402 	bleq	a354 <buf.4189+0x1dc>
    1348:	030b3e0b 	movweq	r3, #48651	; 0xbe0b
    134c:	03000008 	movweq	r0, #8
    1350:	0b0b0024 	bleq	2c13e8 <__bss_end__+0x2b6e70>
    1354:	0e030b3e 	vmoveq.16	d3[0], r0
    1358:	35040000 	strcc	r0, [r4, #-0]
    135c:	00134900 	andseq	r4, r3, r0, lsl #18
    1360:	00160500 	andseq	r0, r6, r0, lsl #10
    1364:	0b3a0e03 	bleq	e84b78 <__bss_end__+0xe7a600>
    1368:	13490b3b 	movtne	r0, #39739	; 0x9b3b
    136c:	16060000 	strne	r0, [r6], -r0
    1370:	3a0e0300 	bcc	381f78 <__bss_end__+0x377a00>
    1374:	49053b0b 	stmdbmi	r5, {r0, r1, r3, r8, r9, fp, ip, sp}
    1378:	07000013 	smladeq	r0, r3, r0, r0
    137c:	0b0b0117 	bleq	2c17e0 <__bss_end__+0x2b7268>
    1380:	0b3b0b3a 	bleq	ec4070 <__bss_end__+0xeb9af8>
    1384:	00001301 	andeq	r1, r0, r1, lsl #6
    1388:	03000d08 	movweq	r0, #3336	; 0xd08
    138c:	3b0b3a0e 	blcc	2cfbcc <__bss_end__+0x2c5654>
    1390:	0013490b 	andseq	r4, r3, fp, lsl #18
    1394:	01010900 	tsteq	r1, r0, lsl #18
    1398:	13011349 	movwne	r1, #4937	; 0x1349
    139c:	210a0000 	mrscs	r0, (UNDEF: 10)
    13a0:	2f134900 	svccs	0x00134900
    13a4:	0b00000b 	bleq	13d8 <__code_start__-0x6c28>
    13a8:	0b0b0113 	bleq	2c17fc <__bss_end__+0x2b7284>
    13ac:	0b3b0b3a 	bleq	ec409c <__bss_end__+0xeb9b24>
    13b0:	00001301 	andeq	r1, r0, r1, lsl #6
    13b4:	03000d0c 	movweq	r0, #3340	; 0xd0c
    13b8:	3b0b3a0e 	blcc	2cfbf8 <__bss_end__+0x2c5680>
    13bc:	3813490b 	ldmdacc	r3, {r0, r1, r3, r8, fp, lr}
    13c0:	0d00000b 	stceq	0, cr0, [r0, #-44]	; 0xffffffd4
    13c4:	0b0b000f 	bleq	2c1408 <__bss_end__+0x2b6e90>
    13c8:	0f0e0000 	svceq	0x000e0000
    13cc:	490b0b00 	stmdbmi	fp, {r8, r9, fp}
    13d0:	0f000013 	svceq	0x00000013
    13d4:	13490026 	movtne	r0, #36902	; 0x9026
    13d8:	13100000 	tstne	r0, #0
    13dc:	0b0e0301 	bleq	381fe8 <__bss_end__+0x377a70>
    13e0:	3b0b3a0b 	blcc	2cfc14 <__bss_end__+0x2c569c>
    13e4:	0013010b 	andseq	r0, r3, fp, lsl #2
    13e8:	000d1100 	andeq	r1, sp, r0, lsl #2
    13ec:	0b3a0803 	bleq	e83400 <__bss_end__+0xe78e88>
    13f0:	13490b3b 	movtne	r0, #39739	; 0x9b3b
    13f4:	00000b38 	andeq	r0, r0, r8, lsr fp
    13f8:	03011312 	movweq	r1, #4882	; 0x1312
    13fc:	3a050b0e 	bcc	14403c <__bss_end__+0x139ac4>
    1400:	010b3b0b 	tsteq	fp, fp, lsl #22
    1404:	13000013 	movwne	r0, #19
    1408:	0e03000d 	cdpeq	0, 0, cr0, cr3, cr13, {0}
    140c:	0b3b0b3a 	bleq	ec40fc <__bss_end__+0xeb9b84>
    1410:	05381349 	ldreq	r1, [r8, #-841]!	; 0x349
    1414:	15140000 	ldrne	r0, [r4, #-0]
    1418:	00192700 	andseq	r2, r9, r0, lsl #14
    141c:	01151500 	tsteq	r5, r0, lsl #10
    1420:	13491927 	movtne	r1, #39207	; 0x9927
    1424:	00001301 	andeq	r1, r0, r1, lsl #6
    1428:	49000516 	stmdbmi	r0, {r1, r2, r4, r8, sl}
    142c:	17000013 	smladne	r0, r3, r0, r0
    1430:	0e030113 	mcreq	1, 0, r0, cr3, cr3, {0}
    1434:	0b3a050b 	bleq	e82868 <__bss_end__+0xe782f0>
    1438:	1301053b 	movwne	r0, #5435	; 0x153b
    143c:	0d180000 	ldceq	0, cr0, [r8, #-0]
    1440:	3a0e0300 	bcc	382048 <__bss_end__+0x377ad0>
    1444:	49053b0b 	stmdbmi	r5, {r0, r1, r3, r8, r9, fp, ip, sp}
    1448:	000b3813 	andeq	r3, fp, r3, lsl r8
    144c:	000d1900 	andeq	r1, sp, r0, lsl #18
    1450:	0b3a0e03 	bleq	e84c64 <__bss_end__+0xe7a6ec>
    1454:	1349053b 	movtne	r0, #38203	; 0x953b
    1458:	00000538 	andeq	r0, r0, r8, lsr r5
    145c:	0301131a 	movweq	r1, #4890	; 0x131a
    1460:	3a0b0b0e 	bcc	2c40a0 <__bss_end__+0x2b9b28>
    1464:	01053b0b 	tsteq	r5, fp, lsl #22
    1468:	1b000013 	blne	14bc <__code_start__-0x6b44>
    146c:	0b0b0113 	bleq	2c18c0 <__bss_end__+0x2b7348>
    1470:	053b0b3a 	ldreq	r0, [fp, #-2874]!	; 0xb3a
    1474:	00001301 	andeq	r1, r0, r1, lsl #6
    1478:	0b01171c 	bleq	470f0 <__bss_end__+0x3cb78>
    147c:	3b0b3a0b 	blcc	2cfcb0 <__bss_end__+0x2c5738>
    1480:	00130105 	andseq	r0, r3, r5, lsl #2
    1484:	000d1d00 	andeq	r1, sp, r0, lsl #26
    1488:	0b3a0e03 	bleq	e84c9c <__bss_end__+0xe7a724>
    148c:	1349053b 	movtne	r0, #38203	; 0x953b
    1490:	151e0000 	ldrne	r0, [lr, #-0]
    1494:	01192701 	tsteq	r9, r1, lsl #14
    1498:	1f000013 	svcne	0x00000013
    149c:	0e030034 	mcreq	0, 0, r0, cr3, cr4, {1}
    14a0:	053b0b3a 	ldreq	r0, [fp, #-2874]!	; 0xb3a
    14a4:	193f1349 	ldmdbne	pc!, {r0, r3, r6, r8, r9, ip}	; <UNPREDICTABLE>
    14a8:	0000193c 	andeq	r1, r0, ip, lsr r9
    14ac:	03003420 	movweq	r3, #1056	; 0x420
    14b0:	3b0b3a0e 	blcc	2cfcf0 <__bss_end__+0x2c5778>
    14b4:	3f13490b 	svccc	0x0013490b
    14b8:	00193c19 	andseq	r3, r9, r9, lsl ip
    14bc:	01042100 	mrseq	r2, (UNDEF: 20)
    14c0:	13490b0b 	movtne	r0, #39691	; 0x9b0b
    14c4:	0b3b0b3a 	bleq	ec41b4 <__bss_end__+0xeb9c3c>
    14c8:	00001301 	andeq	r1, r0, r1, lsl #6
    14cc:	03002822 	movweq	r2, #2082	; 0x822
    14d0:	000b1c0e 	andeq	r1, fp, lr, lsl #24
    14d4:	00342300 	eorseq	r2, r4, r0, lsl #6
    14d8:	0b3a0e03 	bleq	e84cec <__bss_end__+0xe7a774>
    14dc:	13490b3b 	movtne	r0, #39739	; 0x9b3b
    14e0:	0000061c 	andeq	r0, r0, ip, lsl r6
    14e4:	3f012e24 	svccc	0x00012e24
    14e8:	3a0e0319 	bcc	382154 <__bss_end__+0x377bdc>
    14ec:	270b3b0b 	strcs	r3, [fp, -fp, lsl #22]
    14f0:	11134919 	tstne	r3, r9, lsl r9
    14f4:	40061201 	andmi	r1, r6, r1, lsl #4
    14f8:	19429718 	stmdbne	r2, {r3, r4, r8, r9, sl, ip, pc}^
    14fc:	00001301 	andeq	r1, r0, r1, lsl #6
    1500:	01828925 	orreq	r8, r2, r5, lsr #18
    1504:	31011100 	mrscc	r1, (UNDEF: 17)
    1508:	26000013 			; <UNDEFINED> instruction: 0x26000013
    150c:	193f012e 	ldmdbne	pc!, {r1, r2, r3, r5, r8}	; <UNPREDICTABLE>
    1510:	0b3a0e03 	bleq	e84d24 <__bss_end__+0xe7a7ac>
    1514:	19270b3b 	stmdbne	r7!, {r0, r1, r3, r4, r5, r8, r9, fp}
    1518:	06120111 			; <UNDEFINED> instruction: 0x06120111
    151c:	42971840 	addsmi	r1, r7, #64, 16	; 0x400000
    1520:	00130119 	andseq	r0, r3, r9, lsl r1
    1524:	00052700 	andeq	r2, r5, r0, lsl #14
    1528:	0b3a0803 	bleq	e8353c <__bss_end__+0xe78fc4>
    152c:	13490b3b 	movtne	r0, #39739	; 0x9b3b
    1530:	00001702 	andeq	r1, r0, r2, lsl #14
    1534:	01828928 	orreq	r8, r2, r8, lsr #18
    1538:	31011101 	tstcc	r1, r1, lsl #2
    153c:	00130113 	andseq	r0, r3, r3, lsl r1
    1540:	828a2900 	addhi	r2, sl, #0, 18
    1544:	18020001 	stmdane	r2, {r0}
    1548:	00184291 	mulseq	r8, r1, r2
    154c:	00342a00 	eorseq	r2, r4, r0, lsl #20
    1550:	0b3a0803 	bleq	e83564 <__bss_end__+0xe78fec>
    1554:	13490b3b 	movtne	r0, #39739	; 0x9b3b
    1558:	00001802 	andeq	r1, r0, r2, lsl #16
    155c:	0182892b 	orreq	r8, r2, fp, lsr #18
    1560:	31011101 	tstcc	r1, r1, lsl #2
    1564:	2c000013 	stccs	0, cr0, [r0], {19}
    1568:	0e03012e 	adfeqsp	f0, f3, #0.5
    156c:	0b3b0b3a 	bleq	ec425c <__bss_end__+0xeb9ce4>
    1570:	01111927 	tsteq	r1, r7, lsr #18
    1574:	18400612 	stmdane	r0, {r1, r4, r9, sl}^
    1578:	01194297 			; <UNDEFINED> instruction: 0x01194297
    157c:	2d000013 	stccs	0, cr0, [r0, #-76]	; 0xffffffb4
    1580:	0e030005 	cdpeq	0, 0, cr0, cr3, cr5, {0}
    1584:	0b3b0b3a 	bleq	ec4274 <__bss_end__+0xeb9cfc>
    1588:	17021349 	strne	r1, [r2, -r9, asr #6]
    158c:	352e0000 	strcc	r0, [lr, #-0]!
    1590:	2f000000 	svccs	0x00000000
    1594:	193f002e 	ldmdbne	pc!, {r1, r2, r3, r5}	; <UNPREDICTABLE>
    1598:	0e6e193c 	mcreq	9, 3, r1, cr14, cr12, {1}
    159c:	0b3a0e03 	bleq	e84db0 <__bss_end__+0xe7a838>
    15a0:	00000b3b 	andeq	r0, r0, fp, lsr fp
    15a4:	01110100 	tsteq	r1, r0, lsl #2
    15a8:	0b130e25 	bleq	4c4e44 <__bss_end__+0x4ba8cc>
    15ac:	0e1b0e03 	cdpeq	14, 1, cr0, cr11, cr3, {0}
    15b0:	06120111 			; <UNDEFINED> instruction: 0x06120111
    15b4:	00001710 	andeq	r1, r0, r0, lsl r7
    15b8:	0b002402 	bleq	a5c8 <__bss_end__+0x50>
    15bc:	030b3e0b 	movweq	r3, #48651	; 0xbe0b
    15c0:	03000008 	movweq	r0, #8
    15c4:	0b0b0024 	bleq	2c165c <__bss_end__+0x2b70e4>
    15c8:	0e030b3e 	vmoveq.16	d3[0], r0
    15cc:	26040000 	strcs	r0, [r4], -r0
    15d0:	00134900 	andseq	r4, r3, r0, lsl #18
    15d4:	00160500 	andseq	r0, r6, r0, lsl #10
    15d8:	0b3a0e03 	bleq	e84dec <__bss_end__+0xe7a874>
    15dc:	13490b3b 	movtne	r0, #39739	; 0x9b3b
    15e0:	16060000 	strne	r0, [r6], -r0
    15e4:	3a0e0300 	bcc	3821ec <__bss_end__+0x377c74>
    15e8:	49053b0b 	stmdbmi	r5, {r0, r1, r3, r8, r9, fp, ip, sp}
    15ec:	07000013 	smladeq	r0, r3, r0, r0
    15f0:	0b0b0117 	bleq	2c1a54 <__bss_end__+0x2b74dc>
    15f4:	0b3b0b3a 	bleq	ec42e4 <__bss_end__+0xeb9d6c>
    15f8:	00001301 	andeq	r1, r0, r1, lsl #6
    15fc:	03000d08 	movweq	r0, #3336	; 0xd08
    1600:	3b0b3a0e 	blcc	2cfe40 <__bss_end__+0x2c58c8>
    1604:	0013490b 	andseq	r4, r3, fp, lsl #18
    1608:	01010900 	tsteq	r1, r0, lsl #18
    160c:	13011349 	movwne	r1, #4937	; 0x1349
    1610:	210a0000 	mrscs	r0, (UNDEF: 10)
    1614:	2f134900 	svccs	0x00134900
    1618:	0b00000b 	bleq	164c <__code_start__-0x69b4>
    161c:	0b0b0113 	bleq	2c1a70 <__bss_end__+0x2b74f8>
    1620:	0b3b0b3a 	bleq	ec4310 <__bss_end__+0xeb9d98>
    1624:	00001301 	andeq	r1, r0, r1, lsl #6
    1628:	03000d0c 	movweq	r0, #3340	; 0xd0c
    162c:	3b0b3a0e 	blcc	2cfe6c <__bss_end__+0x2c58f4>
    1630:	3813490b 	ldmdacc	r3, {r0, r1, r3, r8, fp, lr}
    1634:	0d00000b 	stceq	0, cr0, [r0, #-44]	; 0xffffffd4
    1638:	0b0b000f 	bleq	2c167c <__bss_end__+0x2b7104>
    163c:	0f0e0000 	svceq	0x000e0000
    1640:	490b0b00 	stmdbmi	fp, {r8, r9, fp}
    1644:	0f000013 	svceq	0x00000013
    1648:	0e030113 	mcreq	1, 0, r0, cr3, cr3, {0}
    164c:	0b3a0b0b 	bleq	e84280 <__bss_end__+0xe79d08>
    1650:	13010b3b 	movwne	r0, #6971	; 0x1b3b
    1654:	0d100000 	ldceq	0, cr0, [r0, #-0]
    1658:	3a080300 	bcc	202260 <__bss_end__+0x1f7ce8>
    165c:	490b3b0b 	stmdbmi	fp, {r0, r1, r3, r8, r9, fp, ip, sp}
    1660:	000b3813 	andeq	r3, fp, r3, lsl r8
    1664:	01131100 	tsteq	r3, r0, lsl #2
    1668:	050b0e03 	streq	r0, [fp, #-3587]	; 0xe03
    166c:	0b3b0b3a 	bleq	ec435c <__bss_end__+0xeb9de4>
    1670:	00001301 	andeq	r1, r0, r1, lsl #6
    1674:	03000d12 	movweq	r0, #3346	; 0xd12
    1678:	3b0b3a0e 	blcc	2cfeb8 <__bss_end__+0x2c5940>
    167c:	3813490b 	ldmdacc	r3, {r0, r1, r3, r8, fp, lr}
    1680:	13000005 	movwne	r0, #5
    1684:	19270015 	stmdbne	r7!, {r0, r2, r4}
    1688:	15140000 	ldrne	r0, [r4, #-0]
    168c:	49192701 	ldmdbmi	r9, {r0, r8, r9, sl, sp}
    1690:	00130113 	andseq	r0, r3, r3, lsl r1
    1694:	00051500 	andeq	r1, r5, r0, lsl #10
    1698:	00001349 	andeq	r1, r0, r9, asr #6
    169c:	03011316 	movweq	r1, #4886	; 0x1316
    16a0:	3a050b0e 	bcc	1442e0 <__bss_end__+0x139d68>
    16a4:	01053b0b 	tsteq	r5, fp, lsl #22
    16a8:	17000013 	smladne	r0, r3, r0, r0
    16ac:	0e03000d 	cdpeq	0, 0, cr0, cr3, cr13, {0}
    16b0:	053b0b3a 	ldreq	r0, [fp, #-2874]!	; 0xb3a
    16b4:	0b381349 	bleq	e063e0 <__bss_end__+0xdfbe68>
    16b8:	0d180000 	ldceq	0, cr0, [r8, #-0]
    16bc:	3a0e0300 	bcc	3822c4 <__bss_end__+0x377d4c>
    16c0:	49053b0b 	stmdbmi	r5, {r0, r1, r3, r8, r9, fp, ip, sp}
    16c4:	00053813 	andeq	r3, r5, r3, lsl r8
    16c8:	01131900 	tsteq	r3, r0, lsl #18
    16cc:	0b0b0e03 	bleq	2c4ee0 <__bss_end__+0x2ba968>
    16d0:	053b0b3a 	ldreq	r0, [fp, #-2874]!	; 0xb3a
    16d4:	00001301 	andeq	r1, r0, r1, lsl #6
    16d8:	0b01131a 	bleq	46348 <__bss_end__+0x3bdd0>
    16dc:	3b0b3a0b 	blcc	2cff10 <__bss_end__+0x2c5998>
    16e0:	00130105 	andseq	r0, r3, r5, lsl #2
    16e4:	01171b00 	tsteq	r7, r0, lsl #22
    16e8:	0b3a0b0b 	bleq	e8431c <__bss_end__+0xe79da4>
    16ec:	1301053b 	movwne	r0, #5435	; 0x153b
    16f0:	0d1c0000 	ldceq	0, cr0, [ip, #-0]
    16f4:	3a0e0300 	bcc	3822fc <__bss_end__+0x377d84>
    16f8:	49053b0b 	stmdbmi	r5, {r0, r1, r3, r8, r9, fp, ip, sp}
    16fc:	1d000013 	stcne	0, cr0, [r0, #-76]	; 0xffffffb4
    1700:	19270115 	stmdbne	r7!, {r0, r2, r4, r8}
    1704:	00001301 	andeq	r1, r0, r1, lsl #6
    1708:	0300341e 	movweq	r3, #1054	; 0x41e
    170c:	3b0b3a0e 	blcc	2cff4c <__bss_end__+0x2c59d4>
    1710:	3f134905 	svccc	0x00134905
    1714:	00193c19 	andseq	r3, r9, r9, lsl ip
    1718:	00341f00 	eorseq	r1, r4, r0, lsl #30
    171c:	0b3a0e03 	bleq	e84f30 <__bss_end__+0xe7a9b8>
    1720:	13490b3b 	movtne	r0, #39739	; 0x9b3b
    1724:	193c193f 	ldmdbne	ip!, {r0, r1, r2, r3, r4, r5, r8, fp, ip}
    1728:	04200000 	strteq	r0, [r0], #-0
    172c:	490b0b01 	stmdbmi	fp, {r0, r8, r9, fp}
    1730:	3b0b3a13 	blcc	2cff84 <__bss_end__+0x2c5a0c>
    1734:	0013010b 	andseq	r0, r3, fp, lsl #2
    1738:	00282100 	eoreq	r2, r8, r0, lsl #2
    173c:	0b1c0e03 	bleq	704f50 <__bss_end__+0x6fa9d8>
    1740:	34220000 	strtcc	r0, [r2], #-0
    1744:	3a0e0300 	bcc	38234c <__bss_end__+0x377dd4>
    1748:	490b3b0b 	stmdbmi	fp, {r0, r1, r3, r8, r9, fp, ip, sp}
    174c:	00061c13 	andeq	r1, r6, r3, lsl ip
    1750:	012e2300 	teqeq	lr, r0, lsl #6
    1754:	0e03193f 	mcreq	9, 0, r1, cr3, cr15, {1}
    1758:	0b3b0b3a 	bleq	ec4448 <__bss_end__+0xeb9ed0>
    175c:	13491927 	movtne	r1, #39207	; 0x9927
    1760:	06120111 			; <UNDEFINED> instruction: 0x06120111
    1764:	42971840 	addsmi	r1, r7, #64, 16	; 0x400000
    1768:	00130119 	andseq	r0, r3, r9, lsl r1
    176c:	00052400 	andeq	r2, r5, r0, lsl #8
    1770:	0b3a0803 	bleq	e83784 <__bss_end__+0xe7920c>
    1774:	13490b3b 	movtne	r0, #39739	; 0x9b3b
    1778:	00001702 	andeq	r1, r0, r2, lsl #14
    177c:	03003425 	movweq	r3, #1061	; 0x425
    1780:	3b0b3a0e 	blcc	2cffc0 <__bss_end__+0x2c5a48>
    1784:	0213490b 	andseq	r4, r3, #180224	; 0x2c000
    1788:	26000017 			; <UNDEFINED> instruction: 0x26000017
    178c:	08030034 	stmdaeq	r3, {r2, r4, r5}
    1790:	0b3b0b3a 	bleq	ec4480 <__bss_end__+0xeb9f08>
    1794:	17021349 	strne	r1, [r2, -r9, asr #6]
    1798:	89270000 	stmdbhi	r7!, {}	; <UNPREDICTABLE>
    179c:	11010182 	smlabbne	r1, r2, r1, r0
    17a0:	00133101 	andseq	r3, r3, r1, lsl #2
    17a4:	828a2800 	addhi	r2, sl, #0, 16
    17a8:	18020001 	stmdane	r2, {r0}
    17ac:	00184291 	mulseq	r8, r1, r2
    17b0:	012e2900 	teqeq	lr, r0, lsl #18
    17b4:	0e03193f 	mcreq	9, 0, r1, cr3, cr15, {1}
    17b8:	0b3b0b3a 	bleq	ec44a8 <__bss_end__+0xeb9f30>
    17bc:	01111927 	tsteq	r1, r7, lsr #18
    17c0:	18400612 	stmdane	r0, {r1, r4, r9, sl}^
    17c4:	01194297 			; <UNDEFINED> instruction: 0x01194297
    17c8:	2a000013 	bcs	181c <__code_start__-0x67e4>
    17cc:	01018289 	smlabbeq	r1, r9, r2, r8
    17d0:	13310111 	teqne	r1, #1073741828	; 0x40000004
    17d4:	00001301 	andeq	r1, r0, r1, lsl #6
    17d8:	0182892b 	orreq	r8, r2, fp, lsr #18
    17dc:	31011100 	mrscc	r1, (UNDEF: 17)
    17e0:	2c000013 	stccs	0, cr0, [r0], {19}
    17e4:	0e030005 	cdpeq	0, 0, cr0, cr3, cr5, {0}
    17e8:	0b3b0b3a 	bleq	ec44d8 <__bss_end__+0xeb9f60>
    17ec:	17021349 	strne	r1, [r2, -r9, asr #6]
    17f0:	342d0000 	strtcc	r0, [sp], #-0
    17f4:	3a080300 	bcc	2023fc <__bss_end__+0x1f7e84>
    17f8:	490b3b0b 	stmdbmi	fp, {r0, r1, r3, r8, r9, fp, ip, sp}
    17fc:	00180213 	andseq	r0, r8, r3, lsl r2
    1800:	002e2e00 	eoreq	r2, lr, r0, lsl #28
    1804:	193c193f 	ldmdbne	ip!, {r0, r1, r2, r3, r4, r5, r8, fp, ip}
    1808:	0e030e6e 	cdpeq	14, 0, cr0, cr3, cr14, {3}
    180c:	0b3b0b3a 	bleq	ec44fc <__bss_end__+0xeb9f84>
    1810:	Address 0x0000000000001810 is out of bounds.


Disassembly of section .debug_loc:

00000000 <.debug_loc>:
       0:	00000000 	andeq	r0, r0, r0
       4:	00000007 	andeq	r0, r0, r7
       8:	07500001 	ldrbeq	r0, [r0, -r1]
       c:	50000000 	andpl	r0, r0, r0
      10:	04000000 	streq	r0, [r0], #-0
      14:	5001f300 	andpl	pc, r1, r0, lsl #6
      18:	0000009f 	muleq	r0, pc, r0	; <UNPREDICTABLE>
      1c:	00000000 	andeq	r0, r0, r0
      20:	00005000 	andeq	r5, r0, r0
      24:	00005400 	andeq	r5, r0, r0, lsl #8
      28:	50000100 	andpl	r0, r0, r0, lsl #2
      2c:	00000054 	andeq	r0, r0, r4, asr r0
      30:	00000058 	andeq	r0, r0, r8, asr r0
      34:	01f30004 	mvnseq	r0, r4
      38:	00009f50 	andeq	r9, r0, r0, asr pc
      3c:	00000000 	andeq	r0, r0, r0
      40:	006c0000 	rsbeq	r0, ip, r0
      44:	00870000 	addeq	r0, r7, r0
      48:	00010000 	andeq	r0, r1, r0
      4c:	00008750 	andeq	r8, r0, r0, asr r7
      50:	0000a800 	andeq	sl, r0, r0, lsl #16
      54:	f3000400 	vshl.u8	d0, d0, d0
      58:	a89f5001 	ldmge	pc, {r0, ip, lr}	; <UNPREDICTABLE>
      5c:	ac000000 	stcge	0, cr0, [r0], {-0}
      60:	01000000 	mrseq	r0, (UNDEF: 0)
      64:	00ac5000 	adceq	r5, ip, r0
      68:	00c80000 	sbceq	r0, r8, r0
      6c:	00040000 	andeq	r0, r4, r0
      70:	9f5001f3 	svcls	0x005001f3
	...
      80:	00000023 	andeq	r0, r0, r3, lsr #32
      84:	23500001 	cmpcs	r0, #1
      88:	44000000 	strmi	r0, [r0], #-0
      8c:	04000000 	streq	r0, [r0], #-0
      90:	5001f300 	andpl	pc, r1, r0, lsl #6
      94:	0000449f 	muleq	r0, pc, r4	; <UNPREDICTABLE>
      98:	00005f00 	andeq	r5, r0, r0, lsl #30
      9c:	50000100 	andpl	r0, r0, r0, lsl #2
      a0:	0000005f 	andeq	r0, r0, pc, asr r0
      a4:	00000080 	andeq	r0, r0, r0, lsl #1
      a8:	01f30004 	mvnseq	r0, r4
      ac:	00809f50 	addeq	r9, r0, r0, asr pc
      b0:	00b00000 	adcseq	r0, r0, r0
      b4:	00010000 	andeq	r0, r1, r0
      b8:	00000050 	andeq	r0, r0, r0, asr r0
	...
      c4:	00002300 	andeq	r2, r0, r0, lsl #6
      c8:	51000100 	mrspl	r0, (UNDEF: 16)
      cc:	00000023 	andeq	r0, r0, r3, lsr #32
      d0:	00000044 	andeq	r0, r0, r4, asr #32
      d4:	01f30004 	mvnseq	r0, r4
      d8:	00449f51 	subeq	r9, r4, r1, asr pc
      dc:	005f0000 	subseq	r0, pc, r0
      e0:	00010000 	andeq	r0, r1, r0
      e4:	00005f51 	andeq	r5, r0, r1, asr pc
      e8:	00008000 	andeq	r8, r0, r0
      ec:	f3000400 	vshl.u8	d0, d0, d0
      f0:	809f5101 	addshi	r5, pc, r1, lsl #2
      f4:	b0000000 	andlt	r0, r0, r0
      f8:	01000000 	mrseq	r0, (UNDEF: 0)
      fc:	00005100 	andeq	r5, r0, r0, lsl #2
     100:	00000000 	andeq	r0, r0, r0
     104:	00100000 	andseq	r0, r0, r0
     108:	00230000 	eoreq	r0, r3, r0
     10c:	00010000 	andeq	r0, r1, r0
     110:	00004453 	andeq	r4, r0, r3, asr r4
     114:	00004800 	andeq	r4, r0, r0, lsl #16
     118:	53000100 	movwpl	r0, #256	; 0x100
     11c:	00000048 	andeq	r0, r0, r8, asr #32
     120:	000000b0 	strheq	r0, [r0], -r0	; <UNPREDICTABLE>
     124:	ff0a0004 			; <UNDEFINED> instruction: 0xff0a0004
     128:	00009f01 	andeq	r9, r0, r1, lsl #30
     12c:	00000000 	andeq	r0, r0, r0
     130:	00440000 	subeq	r0, r4, r0
     134:	005f0000 	subseq	r0, pc, r0
     138:	00010000 	andeq	r0, r1, r0
     13c:	00005f50 	andeq	r5, r0, r0, asr pc
     140:	00008000 	andeq	r8, r0, r0
     144:	f3000400 	vshl.u8	d0, d0, d0
     148:	809f5001 	addshi	r5, pc, r1
     14c:	b0000000 	andlt	r0, r0, r0
     150:	01000000 	mrseq	r0, (UNDEF: 0)
     154:	00005000 	andeq	r5, r0, r0
     158:	00000000 	andeq	r0, r0, r0
     15c:	000c0000 	andeq	r0, ip, r0
     160:	00100000 	andseq	r0, r0, r0
     164:	00010000 	andeq	r0, r1, r0
     168:	00000053 	andeq	r0, r0, r3, asr r0
     16c:	00000000 	andeq	r0, r0, r0
     170:	00001000 	andeq	r1, r0, r0
     174:	00002300 	andeq	r2, r0, r0, lsl #6
     178:	53000100 	movwpl	r0, #256	; 0x100
     17c:	00000044 	andeq	r0, r0, r4, asr #32
     180:	0000004c 	andeq	r0, r0, ip, asr #32
     184:	00530001 	subseq	r0, r3, r1
     188:	00000000 	andeq	r0, r0, r0
     18c:	18000000 	stmdane	r0, {}	; <UNPREDICTABLE>
     190:	23000000 	movwcs	r0, #0
     194:	01000000 	mrseq	r0, (UNDEF: 0)
     198:	00445200 	subeq	r5, r4, r0, lsl #4
     19c:	00540000 	subseq	r0, r4, r0
     1a0:	00010000 	andeq	r0, r1, r0
     1a4:	00000052 	andeq	r0, r0, r2, asr r0
     1a8:	00000000 	andeq	r0, r0, r0
     1ac:	00005400 	andeq	r5, r0, r0, lsl #8
     1b0:	00005f00 	andeq	r5, r0, r0, lsl #30
     1b4:	52000100 	andpl	r0, r0, #0, 2
     1b8:	00000080 	andeq	r0, r0, r0, lsl #1
     1bc:	000000b0 	strheq	r0, [r0], -r0	; <UNPREDICTABLE>
     1c0:	00520001 	subseq	r0, r2, r1
     1c4:	00000000 	andeq	r0, r0, r0
     1c8:	b0000000 	andlt	r0, r0, r0
     1cc:	d3000000 	movwle	r0, #0
     1d0:	01000000 	mrseq	r0, (UNDEF: 0)
     1d4:	00d35000 	sbcseq	r5, r3, r0
     1d8:	00ec0000 	rsceq	r0, ip, r0
     1dc:	00040000 	andeq	r0, r4, r0
     1e0:	9f5001f3 	svcls	0x005001f3
     1e4:	000000ec 	andeq	r0, r0, ip, ror #1
     1e8:	000000ff 	strdeq	r0, [r0], -pc	; <UNPREDICTABLE>
     1ec:	ff500001 			; <UNDEFINED> instruction: 0xff500001
     1f0:	20000000 	andcs	r0, r0, r0
     1f4:	04000001 	streq	r0, [r0], #-1
     1f8:	5001f300 	andpl	pc, r1, r0, lsl #6
     1fc:	0001209f 	muleq	r1, pc, r0	; <UNPREDICTABLE>
     200:	00013300 	andeq	r3, r1, r0, lsl #6
     204:	50000100 	andpl	r0, r0, r0, lsl #2
     208:	00000133 	andeq	r0, r0, r3, lsr r1
     20c:	00000154 	andeq	r0, r0, r4, asr r1
     210:	01f30004 	mvnseq	r0, r4
     214:	01549f50 	cmpeq	r4, r0, asr pc
     218:	015c0000 	cmpeq	ip, r0
     21c:	00010000 	andeq	r0, r1, r0
     220:	00015c50 	andeq	r5, r1, r0, asr ip
     224:	00015f00 	andeq	r5, r1, r0, lsl #30
     228:	51000100 	mrspl	r0, (UNDEF: 16)
     22c:	0000015f 	andeq	r0, r0, pc, asr r1
     230:	0000018c 	andeq	r0, r0, ip, lsl #3
     234:	01f30004 	mvnseq	r0, r4
     238:	00009f50 	andeq	r9, r0, r0, asr pc
     23c:	00000000 	andeq	r0, r0, r0
     240:	00c40000 	sbceq	r0, r4, r0
     244:	00c80000 	sbceq	r0, r8, r0
     248:	00010000 	andeq	r0, r1, r0
     24c:	00000053 	andeq	r0, r0, r3, asr r0
     250:	00000000 	andeq	r0, r0, r0
     254:	0000f000 	andeq	pc, r0, r0
     258:	0000f400 	andeq	pc, r0, r0, lsl #8
     25c:	53000100 	movwpl	r0, #256	; 0x100
     260:	000000f4 	strdeq	r0, [r0], -r4
     264:	000000ff 	strdeq	r0, [r0], -pc	; <UNPREDICTABLE>
     268:	04730003 	ldrbteq	r0, [r3], #-3
     26c:	0001209f 	muleq	r1, pc, r0	; <UNPREDICTABLE>
     270:	00012400 	andeq	r2, r1, r0, lsl #8
     274:	73000300 	movwvc	r0, #768	; 0x300
     278:	00009f04 	andeq	r9, r0, r4, lsl #30
     27c:	00000000 	andeq	r0, r0, r0
     280:	01d00000 	bicseq	r0, r0, r0
     284:	01d80000 	bicseq	r0, r8, r0
     288:	00010000 	andeq	r0, r1, r0
     28c:	0001d853 	andeq	sp, r1, r3, asr r8
     290:	0001fc00 	andeq	pc, r1, r0, lsl #24
     294:	0a000400 	beq	129c <__code_start__-0x6d64>
     298:	009f01e7 	addseq	r0, pc, r7, ror #3
     29c:	00000000 	andeq	r0, r0, r0
     2a0:	cc000000 	stcgt	0, cr0, [r0], {-0}
     2a4:	d0000001 	andle	r0, r0, r1
     2a8:	01000001 	tsteq	r0, r1
     2ac:	00005300 	andeq	r5, r0, r0, lsl #6
     2b0:	00000000 	andeq	r0, r0, r0
     2b4:	01d00000 	bicseq	r0, r0, r0
     2b8:	01dc0000 	bicseq	r0, ip, r0
     2bc:	00010000 	andeq	r0, r1, r0
     2c0:	00000053 	andeq	r0, r0, r3, asr r0
     2c4:	00000000 	andeq	r0, r0, r0
     2c8:	0001fc00 	andeq	pc, r1, r0, lsl #24
     2cc:	00021b00 	andeq	r1, r2, r0, lsl #22
     2d0:	50000100 	andpl	r0, r0, r0, lsl #2
     2d4:	0000021b 	andeq	r0, r0, fp, lsl r2
     2d8:	00000234 	andeq	r0, r0, r4, lsr r2
     2dc:	01f30004 	mvnseq	r0, r4
     2e0:	02349f50 	eorseq	r9, r4, #80, 30	; 0x140
     2e4:	02470000 	subeq	r0, r7, #0
     2e8:	00010000 	andeq	r0, r1, r0
     2ec:	00024750 	andeq	r4, r2, r0, asr r7
     2f0:	00026800 	andeq	r6, r2, r0, lsl #16
     2f4:	f3000400 	vshl.u8	d0, d0, d0
     2f8:	689f5001 	ldmvs	pc, {r0, ip, lr}	; <UNPREDICTABLE>
     2fc:	70000002 	andvc	r0, r0, r2
     300:	01000002 	tsteq	r0, r2
     304:	02705000 	rsbseq	r5, r0, #0
     308:	02730000 	rsbseq	r0, r3, #0
     30c:	00010000 	andeq	r0, r1, r0
     310:	00027351 	andeq	r7, r2, r1, asr r3
     314:	00029400 	andeq	r9, r2, r0, lsl #8
     318:	f3000400 	vshl.u8	d0, d0, d0
     31c:	009f5001 	addseq	r5, pc, r1
     320:	00000000 	andeq	r0, r0, r0
     324:	0c000000 	stceq	0, cr0, [r0], {-0}
     328:	10000002 	andne	r0, r0, r2
     32c:	01000002 	tsteq	r0, r2
     330:	00005300 	andeq	r5, r0, r0, lsl #6
     334:	00000000 	andeq	r0, r0, r0
     338:	02cc0000 	sbceq	r0, ip, #0
     33c:	02d40000 	sbcseq	r0, r4, #0
     340:	00010000 	andeq	r0, r1, r0
     344:	0002d453 	andeq	sp, r2, r3, asr r4
     348:	0002f800 	andeq	pc, r2, r0, lsl #16
     34c:	0c000600 	stceq	6, cr0, [r0], {-0}
     350:	004001e7 	subeq	r0, r0, r7, ror #3
     354:	0000009f 	muleq	r0, pc, r0	; <UNPREDICTABLE>
     358:	00000000 	andeq	r0, r0, r0
     35c:	0002c800 	andeq	ip, r2, r0, lsl #16
     360:	0002cc00 	andeq	ip, r2, r0, lsl #24
     364:	53000100 	movwpl	r0, #256	; 0x100
	...
     370:	000002cc 	andeq	r0, r0, ip, asr #5
     374:	000002d8 	ldrdeq	r0, [r0], -r8
     378:	00530001 	subseq	r0, r3, r1
     37c:	00000000 	andeq	r0, r0, r0
     380:	08000000 	stmdaeq	r0, {}	; <UNPREDICTABLE>
     384:	24000003 	strcs	r0, [r0], #-3
     388:	01000003 	tsteq	r0, r3
     38c:	03245000 	teqeq	r4, #0
     390:	03280000 	teqeq	r8, #0
     394:	00040000 	andeq	r0, r4, r0
     398:	9f5001f3 	svcls	0x005001f3
     39c:	00000328 	andeq	r0, r0, r8, lsr #6
     3a0:	00000340 	andeq	r0, r0, r0, asr #6
     3a4:	40500001 	subsmi	r0, r0, r1
     3a8:	48000003 	stmdami	r0, {r0, r1}
     3ac:	04000003 	streq	r0, [r0], #-3
     3b0:	5001f300 	andpl	pc, r1, r0, lsl #6
     3b4:	0003489f 	muleq	r3, pc, r8	; <UNPREDICTABLE>
     3b8:	00035400 	andeq	r5, r3, r0, lsl #8
     3bc:	50000100 	andpl	r0, r0, r0, lsl #2
     3c0:	00000354 	andeq	r0, r0, r4, asr r3
     3c4:	00000364 	andeq	r0, r0, r4, ror #6
     3c8:	01f30004 	mvnseq	r0, r4
     3cc:	03649f50 	cmneq	r4, #80, 30	; 0x140
     3d0:	03680000 	cmneq	r8, #0
     3d4:	00010000 	andeq	r0, r1, r0
     3d8:	00036850 	andeq	r6, r3, r0, asr r8
     3dc:	00036c00 	andeq	r6, r3, r0, lsl #24
     3e0:	f3000400 	vshl.u8	d0, d0, d0
     3e4:	6c9f5001 	ldcvs	0, cr5, [pc], {1}
     3e8:	70000003 	andvc	r0, r0, r3
     3ec:	01000003 	tsteq	r0, r3
     3f0:	03705000 	cmneq	r0, #0
     3f4:	03780000 	cmneq	r8, #0
     3f8:	00040000 	andeq	r0, r4, r0
     3fc:	9f5001f3 	svcls	0x005001f3
	...
     408:	00000308 	andeq	r0, r0, r8, lsl #6
     40c:	00000358 	andeq	r0, r0, r8, asr r3
     410:	58510001 	ldmdapl	r1, {r0}^
     414:	64000003 	strvs	r0, [r0], #-3
     418:	04000003 	streq	r0, [r0], #-3
     41c:	5101f300 	mrspl	pc, SP_irq	; <UNPREDICTABLE>
     420:	0003649f 	muleq	r3, pc, r4	; <UNPREDICTABLE>
     424:	00037800 	andeq	r7, r3, r0, lsl #16
     428:	51000100 	mrspl	r0, (UNDEF: 16)
	...
     434:	00000314 	andeq	r0, r0, r4, lsl r3
     438:	00000334 	andeq	r0, r0, r4, lsr r3
     43c:	34530001 	ldrbcc	r0, [r3], #-1
     440:	40000003 	andmi	r0, r0, r3
     444:	0a000003 	beq	458 <__code_start__-0x7ba8>
     448:	06007000 	streq	r7, [r0], -r0
     44c:	ffffff0c 			; <UNDEFINED> instruction: 0xffffff0c
     450:	409f1a00 	addsmi	r1, pc, r0, lsl #20
     454:	44000003 	strmi	r0, [r0], #-3
     458:	0b000003 	bleq	46c <__code_start__-0x7b94>
     45c:	5001f300 	andpl	pc, r1, r0, lsl #6
     460:	ffff0c06 			; <UNDEFINED> instruction: 0xffff0c06
     464:	9f1a00ff 	svcls	0x001a00ff
     468:	00000348 	andeq	r0, r0, r8, asr #6
     46c:	0000035b 	andeq	r0, r0, fp, asr r3
     470:	64530001 	ldrbvs	r0, [r3], #-1
     474:	68000003 	stmdavs	r0, {r0, r1}
     478:	0a000003 	beq	48c <__code_start__-0x7b74>
     47c:	06007000 	streq	r7, [r0], -r0
     480:	ffffff0c 			; <UNDEFINED> instruction: 0xffffff0c
     484:	689f1a00 	ldmvs	pc, {r9, fp, ip}	; <UNPREDICTABLE>
     488:	6c000003 	stcvs	0, cr0, [r0], {3}
     48c:	0b000003 	bleq	4a0 <__code_start__-0x7b60>
     490:	5001f300 	andpl	pc, r1, r0, lsl #6
     494:	ffff0c06 			; <UNDEFINED> instruction: 0xffff0c06
     498:	9f1a00ff 	svcls	0x001a00ff
     49c:	0000036c 	andeq	r0, r0, ip, ror #6
     4a0:	00000378 	andeq	r0, r0, r8, ror r3
     4a4:	00530001 	subseq	r0, r3, r1
	...
     4b0:	24000000 	strcs	r0, [r0], #-0
     4b4:	01000000 	mrseq	r0, (UNDEF: 0)
     4b8:	00245000 	eoreq	r5, r4, r0
     4bc:	01ac0000 			; <UNDEFINED> instruction: 0x01ac0000
     4c0:	00040000 	andeq	r0, r4, r0
     4c4:	9f5001f3 	svcls	0x005001f3
	...
     4d4:	00000028 	andeq	r0, r0, r8, lsr #32
     4d8:	28510001 	ldmdacs	r1, {r0}^
     4dc:	78000000 	stmdavc	r0, {}	; <UNPREDICTABLE>
     4e0:	01000001 	tsteq	r0, r1
     4e4:	01785500 	cmneq	r8, r0, lsl #10
     4e8:	01ac0000 			; <UNDEFINED> instruction: 0x01ac0000
     4ec:	00040000 	andeq	r0, r4, r0
     4f0:	9f5101f3 	svcls	0x005101f3
	...
     500:	0000002c 	andeq	r0, r0, ip, lsr #32
     504:	2c520001 	mrrccs	0, 0, r0, r2, cr1
     508:	ac000000 	stcge	0, cr0, [r0], {-0}
     50c:	04000001 	streq	r0, [r0], #-1
     510:	5201f300 	andpl	pc, r1, #0, 6
     514:	0000009f 	muleq	r0, pc, r0	; <UNPREDICTABLE>
     518:	00000000 	andeq	r0, r0, r0
     51c:	00006800 	andeq	r6, r0, r0, lsl #16
     520:	00017800 	andeq	r7, r1, r0, lsl #16
     524:	54000100 	strpl	r0, [r0], #-256	; 0x100
	...
     530:	00000038 	andeq	r0, r0, r8, lsr r0
     534:	0000003c 	andeq	r0, r0, ip, lsr r0
     538:	00530001 	subseq	r0, r3, r1
     53c:	00000000 	andeq	r0, r0, r0
     540:	ac000000 	stcge	0, cr0, [r0], {-0}
     544:	e8000001 	stmda	r0, {r0}
     548:	01000001 	tsteq	r0, r1
     54c:	01e85000 	mvneq	r5, r0
     550:	062c0000 	strteq	r0, [ip], -r0
     554:	00010000 	andeq	r0, r1, r0
     558:	00062c54 	andeq	r2, r6, r4, asr ip
     55c:	00068c00 	andeq	r8, r6, r0, lsl #24
     560:	f3000400 	vshl.u8	d0, d0, d0
     564:	009f5001 	addseq	r5, pc, r1
     568:	00000000 	andeq	r0, r0, r0
     56c:	bc000000 	stclt	0, cr0, [r0], {-0}
     570:	08000001 	stmdaeq	r0, {r0}
     574:	01000005 	tsteq	r0, r5
     578:	00005800 	andeq	r5, r0, r0, lsl #16
     57c:	00000000 	andeq	r0, r0, r0
     580:	02c00000 	sbceq	r0, r0, #0
     584:	05080000 	streq	r0, [r8, #-0]
     588:	00010000 	andeq	r0, r1, r0
     58c:	00000058 	andeq	r0, r0, r8, asr r0
     590:	00000000 	andeq	r0, r0, r0
     594:	0003e000 	andeq	lr, r3, r0
     598:	00062c00 	andeq	r2, r6, r0, lsl #24
     59c:	55000100 	strpl	r0, [r0, #-256]	; 0x100
	...
     5a8:	00000504 	andeq	r0, r0, r4, lsl #10
     5ac:	00000508 	andeq	r0, r0, r8, lsl #10
     5b0:	00580001 	subseq	r0, r8, r1
     5b4:	00000000 	andeq	r0, r0, r0
     5b8:	74000000 	strvc	r0, [r0], #-0
     5bc:	78000005 	stmdavc	r0, {r0, r2}
     5c0:	01000005 	tsteq	r0, r5
     5c4:	00005300 	andeq	r5, r0, r0, lsl #6
     5c8:	00000000 	andeq	r0, r0, r0
     5cc:	068c0000 	streq	r0, [ip], r0
     5d0:	06900000 	ldreq	r0, [r0], r0
     5d4:	00010000 	andeq	r0, r1, r0
     5d8:	00069050 	andeq	r9, r6, r0, asr r0
     5dc:	00069400 	andeq	r9, r6, r0, lsl #8
     5e0:	f3000400 	vshl.u8	d0, d0, d0
     5e4:	009f5001 	addseq	r5, pc, r1
     5e8:	00000000 	andeq	r0, r0, r0
     5ec:	bc000000 	stclt	0, cr0, [r0], {-0}
     5f0:	c7000006 	strgt	r0, [r0, -r6]
     5f4:	01000006 	tsteq	r0, r6
     5f8:	06c75000 	strbeq	r5, [r7], r0
     5fc:	07080000 	streq	r0, [r8, -r0]
     600:	00010000 	andeq	r0, r1, r0
     604:	00000054 	andeq	r0, r0, r4, asr r0
     608:	00000000 	andeq	r0, r0, r0
     60c:	00002c00 	andeq	r2, r0, r0, lsl #24
     610:	00003800 	andeq	r3, r0, r0, lsl #16
     614:	50000100 	andpl	r0, r0, r0, lsl #2
     618:	00000038 	andeq	r0, r0, r8, lsr r0
     61c:	00000048 	andeq	r0, r0, r8, asr #32
     620:	48550001 	ldmdami	r5, {r0}^
     624:	58000000 	stmdapl	r0, {}	; <UNPREDICTABLE>
     628:	01000000 	mrseq	r0, (UNDEF: 0)
     62c:	00005000 	andeq	r5, r0, r0
	...
     638:	000b0000 	andeq	r0, fp, r0
     63c:	00010000 	andeq	r0, r1, r0
     640:	00000b50 	andeq	r0, r0, r0, asr fp
     644:	00001400 	andeq	r1, r0, r0, lsl #8
     648:	54000100 	strpl	r0, [r0], #-256	; 0x100
	...
     658:	00000010 	andeq	r0, r0, r0, lsl r0
     65c:	10500001 	subsne	r0, r0, r1
     660:	34000000 	strcc	r0, [r0], #-0
     664:	01000000 	mrseq	r0, (UNDEF: 0)
     668:	00005400 	andeq	r5, r0, r0, lsl #8
	...
     674:	00040000 	andeq	r0, r4, r0
     678:	00010000 	andeq	r0, r1, r0
     67c:	00000450 	andeq	r0, r0, r0, asr r4
     680:	00000c00 	andeq	r0, r0, r0, lsl #24
     684:	70000300 	andvc	r0, r0, r0, lsl #6
     688:	000c9f30 	andeq	r9, ip, r0, lsr pc
     68c:	00140000 	andseq	r0, r4, r0
     690:	00040000 	andeq	r0, r4, r0
     694:	9f5001f3 	svcls	0x005001f3
	...
     6a0:	00000014 	andeq	r0, r0, r4, lsl r0
     6a4:	00000020 	andeq	r0, r0, r0, lsr #32
     6a8:	20500001 	subscs	r0, r0, r1
     6ac:	2c000000 	stccs	0, cr0, [r0], {-0}
     6b0:	03000000 	movweq	r0, #0
     6b4:	9f017000 	svcls	0x00017000
     6b8:	0000002c 	andeq	r0, r0, ip, lsr #32
     6bc:	00000040 	andeq	r0, r0, r0, asr #32
     6c0:	00500001 	subseq	r0, r0, r1
     6c4:	00000000 	andeq	r0, r0, r0
     6c8:	14000000 	strne	r0, [r0], #-0
     6cc:	18000000 	stmdane	r0, {}	; <UNPREDICTABLE>
     6d0:	01000000 	mrseq	r0, (UNDEF: 0)
     6d4:	00185100 	andseq	r5, r8, r0, lsl #2
     6d8:	00400000 	subeq	r0, r0, r0
     6dc:	00040000 	andeq	r0, r4, r0
     6e0:	9f5101f3 	svcls	0x005101f3
	...
     6ec:	00000040 	andeq	r0, r0, r0, asr #32
     6f0:	00000060 	andeq	r0, r0, r0, rrx
     6f4:	60500001 	subsvs	r0, r0, r1
     6f8:	6c000000 	stcvs	0, cr0, [r0], {-0}
     6fc:	03000000 	movweq	r0, #0
     700:	9f017100 	svcls	0x00017100
     704:	0000006c 	andeq	r0, r0, ip, rrx
     708:	00000074 	andeq	r0, r0, r4, ror r0
     70c:	74510001 	ldrbvc	r0, [r1], #-1
     710:	80000000 	andhi	r0, r0, r0
     714:	03000000 	movweq	r0, #0
     718:	9f017100 	svcls	0x00017100
	...
     724:	00000040 	andeq	r0, r0, r0, asr #32
     728:	00000050 	andeq	r0, r0, r0, asr r0
     72c:	50510001 	subspl	r0, r1, r1
     730:	80000000 	andhi	r0, r0, r0
     734:	04000000 	streq	r0, [r0], #-0
     738:	5101f300 	mrspl	pc, SP_irq	; <UNPREDICTABLE>
     73c:	0000009f 	muleq	r0, pc, r0	; <UNPREDICTABLE>
     740:	00000000 	andeq	r0, r0, r0
     744:	00004000 	andeq	r4, r0, r0
     748:	00005800 	andeq	r5, r0, r0, lsl #16
     74c:	52000100 	andpl	r0, r0, #0, 2
     750:	00000058 	andeq	r0, r0, r8, asr r0
     754:	00000064 	andeq	r0, r0, r4, rrx
     758:	64520001 	ldrbvs	r0, [r2], #-1
     75c:	68000000 	stmdavs	r0, {}	; <UNPREDICTABLE>
     760:	03000000 	movweq	r0, #0
     764:	9f017200 	svcls	0x00017200
     768:	00000068 	andeq	r0, r0, r8, rrx
     76c:	00000080 	andeq	r0, r0, r0, lsl #1
     770:	00520001 	subseq	r0, r2, r1
     774:	00000000 	andeq	r0, r0, r0
     778:	40000000 	andmi	r0, r0, r0
     77c:	54000000 	strpl	r0, [r0], #-0
     780:	01000000 	mrseq	r0, (UNDEF: 0)
     784:	00545300 	subseq	r5, r4, r0, lsl #6
     788:	00780000 	rsbseq	r0, r8, r0
     78c:	00010000 	andeq	r0, r1, r0
     790:	00000053 	andeq	r0, r0, r3, asr r0
     794:	00000000 	andeq	r0, r0, r0
     798:	00004800 	andeq	r4, r0, r0, lsl #16
     79c:	00006000 	andeq	r6, r0, r0
     7a0:	5c000100 	stfpls	f0, [r0], {-0}
     7a4:	00000060 	andeq	r0, r0, r0, rrx
     7a8:	00000080 	andeq	r0, r0, r0, lsl #1
     7ac:	01f3000a 	mvnseq	r0, sl
     7b0:	5301f352 	movwpl	pc, #4946	; 0x1352	; <UNPREDICTABLE>
     7b4:	9f01231c 	svcls	0x0001231c
	...
     7c0:	00000080 	andeq	r0, r0, r0, lsl #1
     7c4:	000000a4 	andeq	r0, r0, r4, lsr #1
     7c8:	a4500001 	ldrbge	r0, [r0], #-1
     7cc:	18000000 	stmdane	r0, {}	; <UNPREDICTABLE>
     7d0:	03000001 	movweq	r0, #1
     7d4:	9f027000 	svcls	0x00027000
     7d8:	00000118 	andeq	r0, r0, r8, lsl r1
     7dc:	0000023c 	andeq	r0, r0, ip, lsr r2
     7e0:	01f30004 	mvnseq	r0, r4
     7e4:	00009f50 	andeq	r9, r0, r0, asr pc
     7e8:	00000000 	andeq	r0, r0, r0
     7ec:	00800000 	addeq	r0, r0, r0
     7f0:	00f00000 	rscseq	r0, r0, r0
     7f4:	00010000 	andeq	r0, r1, r0
     7f8:	0000f051 	andeq	pc, r0, r1, asr r0	; <UNPREDICTABLE>
     7fc:	00016000 	andeq	r6, r1, r0
     800:	55000100 	strpl	r0, [r0, #-256]	; 0x100
     804:	00000160 	andeq	r0, r0, r0, ror #2
     808:	0000016c 	andeq	r0, r0, ip, ror #2
     80c:	6c510001 	mrrcvs	0, 0, r0, r1, cr1
     810:	a0000001 	andge	r0, r0, r1
     814:	01000001 	tsteq	r0, r1
     818:	01a05500 	lsleq	r5, r0, #10
     81c:	01b40000 			; <UNDEFINED> instruction: 0x01b40000
     820:	00010000 	andeq	r0, r1, r0
     824:	0001b451 	andeq	fp, r1, r1, asr r4
     828:	0001d400 	andeq	sp, r1, r0, lsl #8
     82c:	55000100 	strpl	r0, [r0, #-256]	; 0x100
     830:	000001d4 	ldrdeq	r0, [r0], -r4
     834:	000001d7 	ldrdeq	r0, [r0], -r7
     838:	d7510001 	ldrble	r0, [r1, -r1]
     83c:	1c000001 	stcne	0, cr0, [r0], {1}
     840:	01000002 	tsteq	r0, r2
     844:	021c5500 	andseq	r5, ip, #0, 10
     848:	023c0000 	eorseq	r0, ip, #0
     84c:	00040000 	andeq	r0, r4, r0
     850:	9f5101f3 	svcls	0x005101f3
	...
     85c:	00000080 	andeq	r0, r0, r0, lsl #1
     860:	00000094 	muleq	r0, r4, r0
     864:	94520001 	ldrbls	r0, [r2], #-1
     868:	1c000000 	stcne	0, cr0, [r0], {-0}
     86c:	01000002 	tsteq	r0, r2
     870:	021c5400 	andseq	r5, ip, #0, 8
     874:	023c0000 	eorseq	r0, ip, #0
     878:	00040000 	andeq	r0, r4, r0
     87c:	9f5201f3 	svcls	0x005201f3
	...
     888:	00000080 	andeq	r0, r0, r0, lsl #1
     88c:	00000100 	andeq	r0, r0, r0, lsl #2
     890:	04530001 	ldrbeq	r0, [r3], #-1
     894:	08000001 	stmdaeq	r0, {r0}
     898:	01000001 	tsteq	r0, r1
     89c:	01605300 	cmneq	r0, r0, lsl #6
     8a0:	01640000 	cmneq	r4, r0
     8a4:	00010000 	andeq	r0, r1, r0
     8a8:	00016453 	andeq	r6, r1, r3, asr r4
     8ac:	00016c00 	andeq	r6, r1, r0, lsl #24
     8b0:	5c000100 	stfpls	f0, [r0], {-0}
     8b4:	0000016c 	andeq	r0, r0, ip, ror #2
     8b8:	000001a0 	andeq	r0, r0, r0, lsr #3
     8bc:	01f30004 	mvnseq	r0, r4
     8c0:	01a09f53 	asreq	r9, r3, pc
     8c4:	01b00000 	movseq	r0, r0
     8c8:	00010000 	andeq	r0, r1, r0
     8cc:	0001b053 	andeq	fp, r1, r3, asr r0
     8d0:	0001b400 	andeq	fp, r1, r0, lsl #8
     8d4:	5c000100 	stfpls	f0, [r0], {-0}
     8d8:	000001b4 			; <UNDEFINED> instruction: 0x000001b4
     8dc:	000001d4 	ldrdeq	r0, [r0], -r4
     8e0:	01f30004 	mvnseq	r0, r4
     8e4:	01d49f53 	bicseq	r9, r4, r3, asr pc
     8e8:	01d70000 	bicseq	r0, r7, r0
     8ec:	00010000 	andeq	r0, r1, r0
     8f0:	0001d753 	andeq	sp, r1, r3, asr r7
     8f4:	0001f800 	andeq	pc, r1, r0, lsl #16
     8f8:	f3000400 	vshl.u8	d0, d0, d0
     8fc:	009f5301 	addseq	r5, pc, r1, lsl #6
     900:	00000000 	andeq	r0, r0, r0
     904:	80000000 	andhi	r0, r0, r0
     908:	9c000000 	stcls	0, cr0, [r0], {-0}
     90c:	02000000 	andeq	r0, r0, #0
     910:	9c009100 	stflsd	f1, [r0], {-0}
     914:	d7000000 	strle	r0, [r0, -r0]
     918:	01000001 	tsteq	r0, r1
     91c:	01f85200 	mvnseq	r5, r0, lsl #4
     920:	01ff0000 	mvnseq	r0, r0
     924:	00010000 	andeq	r0, r1, r0
     928:	00000052 	andeq	r0, r0, r2, asr r0
     92c:	00000000 	andeq	r0, r0, r0
     930:	00009c00 	andeq	r9, r0, r0, lsl #24
     934:	00010c00 	andeq	r0, r1, r0, lsl #24
     938:	91000400 	tstls	r0, r0, lsl #8
     93c:	0c9f7fa0 	ldceq	15, cr7, [pc], {160}	; 0xa0
     940:	18000001 	stmdane	r0, {r0}
     944:	01000001 	tsteq	r0, r1
     948:	01185100 	tsteq	r8, r0, lsl #2
     94c:	011c0000 	tsteq	ip, r0
     950:	00010000 	andeq	r0, r1, r0
     954:	00011c50 	andeq	r1, r1, r0, asr ip
     958:	00012000 	andeq	r2, r1, r0
     95c:	51000100 	mrspl	r0, (UNDEF: 16)
     960:	00000120 	andeq	r0, r0, r0, lsr #2
     964:	00000160 	andeq	r0, r0, r0, ror #2
     968:	60500001 	subsvs	r0, r0, r1
     96c:	64000001 	strvs	r0, [r0], #-1
     970:	04000001 	streq	r0, [r0], #-1
     974:	7fa09100 	svcvc	0x00a09100
     978:	0001649f 	muleq	r1, pc, r4	; <UNPREDICTABLE>
     97c:	00016c00 	andeq	r6, r1, r0, lsl #24
     980:	53000100 	movwpl	r0, #256	; 0x100
     984:	0000016c 	andeq	r0, r0, ip, ror #2
     988:	00000170 	andeq	r0, r0, r0, ror r1
     98c:	70500001 	subsvc	r0, r0, r1
     990:	74000001 	strvc	r0, [r0], #-1
     994:	01000001 	tsteq	r0, r1
     998:	01745300 	cmneq	r4, r0, lsl #6
     99c:	01880000 	orreq	r0, r8, r0
     9a0:	00010000 	andeq	r0, r1, r0
     9a4:	00018850 	andeq	r8, r1, r0, asr r8
     9a8:	00019400 	andeq	r9, r1, r0, lsl #8
     9ac:	70000300 	andvc	r0, r0, r0, lsl #6
     9b0:	01949f01 	orrseq	r9, r4, r1, lsl #30
     9b4:	01a00000 	moveq	r0, r0
     9b8:	00010000 	andeq	r0, r1, r0
     9bc:	0001a050 	andeq	sl, r1, r0, asr r0
     9c0:	0001a800 	andeq	sl, r1, r0, lsl #16
     9c4:	91000400 	tstls	r0, r0, lsl #8
     9c8:	a89f7fa1 	ldmge	pc, {r0, r5, r7, r8, r9, sl, fp, ip, sp, lr}	; <UNPREDICTABLE>
     9cc:	ac000001 	stcge	0, cr0, [r0], {1}
     9d0:	01000001 	tsteq	r0, r1
     9d4:	01ac5000 			; <UNDEFINED> instruction: 0x01ac5000
     9d8:	01b00000 	movseq	r0, r0
     9dc:	00040000 	andeq	r0, r4, r0
     9e0:	9f7fa091 	svcls	0x007fa091
     9e4:	000001b0 			; <UNDEFINED> instruction: 0x000001b0
     9e8:	000001b8 			; <UNDEFINED> instruction: 0x000001b8
     9ec:	b8530001 	ldmdalt	r3, {r0}^
     9f0:	d4000001 	strle	r0, [r0], #-1
     9f4:	01000001 	tsteq	r0, r1
     9f8:	01d45000 	bicseq	r5, r4, r0
     9fc:	01f80000 	mvnseq	r0, r0
     a00:	00040000 	andeq	r0, r4, r0
     a04:	9f7fa091 	svcls	0x007fa091
     a08:	000001f8 	strdeq	r0, [r0], -r8
     a0c:	000001ff 	strdeq	r0, [r0], -pc	; <UNPREDICTABLE>
     a10:	00500001 	subseq	r0, r0, r1
     a14:	00000000 	andeq	r0, r0, r0
     a18:	a0000000 	andge	r0, r0, r0
     a1c:	ec000000 	stc	0, cr0, [r0], {-0}
     a20:	01000000 	mrseq	r0, (UNDEF: 0)
     a24:	00ec5c00 	rsceq	r5, ip, r0, lsl #24
     a28:	01000000 	mrseq	r0, (UNDEF: 0)
     a2c:	00010000 	andeq	r0, r1, r0
     a30:	00010053 	andeq	r0, r1, r3, asr r0
     a34:	00010400 	andeq	r0, r1, r0, lsl #8
     a38:	5c000100 	stfpls	f0, [r0], {-0}
     a3c:	00000104 	andeq	r0, r0, r4, lsl #2
     a40:	00000108 	andeq	r0, r0, r8, lsl #2
     a44:	08530001 	ldmdaeq	r3, {r0}^
     a48:	60000001 	andvs	r0, r0, r1
     a4c:	01000001 	tsteq	r0, r1
     a50:	01605c00 	cmneq	r0, r0, lsl #24
     a54:	01640000 	cmneq	r4, r0
     a58:	00010000 	andeq	r0, r1, r0
     a5c:	00016453 	andeq	r6, r1, r3, asr r4
     a60:	00018000 	andeq	r8, r1, r0
     a64:	5c000100 	stfpls	f0, [r0], {-0}
     a68:	00000180 	andeq	r0, r0, r0, lsl #3
     a6c:	00000184 	andeq	r0, r0, r4, lsl #3
     a70:	007c0005 	rsbseq	r0, ip, r5
     a74:	849f2534 	ldrhi	r2, [pc], #1332	; a7c <__code_start__-0x7584>
     a78:	a0000001 	andge	r0, r0, r1
     a7c:	01000001 	tsteq	r0, r1
     a80:	01a05c00 	lsleq	r5, r0, #24
     a84:	01b00000 	movseq	r0, r0
     a88:	00010000 	andeq	r0, r1, r0
     a8c:	0001b053 	andeq	fp, r1, r3, asr r0
     a90:	0001c400 	andeq	ip, r1, r0, lsl #8
     a94:	5c000100 	stfpls	f0, [r0], {-0}
     a98:	000001c4 	andeq	r0, r0, r4, asr #3
     a9c:	000001cc 	andeq	r0, r0, ip, asr #3
     aa0:	007c0005 	rsbseq	r0, ip, r5
     aa4:	cc9f2531 	cfldr32gt	mvfx2, [pc], {49}	; 0x31
     aa8:	d4000001 	strle	r0, [r0], #-1
     aac:	01000001 	tsteq	r0, r1
     ab0:	01d45c00 	bicseq	r5, r4, r0, lsl #24
     ab4:	01d70000 	bicseq	r0, r7, r0
     ab8:	00010000 	andeq	r0, r1, r0
     abc:	0001d753 	andeq	sp, r1, r3, asr r7
     ac0:	0001f800 	andeq	pc, r1, r0, lsl #16
     ac4:	f3000400 	vshl.u8	d0, d0, d0
     ac8:	f89f5301 			; <UNDEFINED> instruction: 0xf89f5301
     acc:	ff000001 			; <UNDEFINED> instruction: 0xff000001
     ad0:	01000001 	tsteq	r0, r1
     ad4:	00005c00 	andeq	r5, r0, r0, lsl #24
     ad8:	00000000 	andeq	r0, r0, r0
     adc:	00ec0000 	rsceq	r0, ip, r0
     ae0:	00fc0000 	rscseq	r0, ip, r0
     ae4:	00020000 	andeq	r0, r2, r0
     ae8:	00fc9f30 	rscseq	r9, ip, r0, lsr pc
     aec:	01040000 	mrseq	r0, (UNDEF: 4)
     af0:	00020000 	andeq	r0, r2, r0
     af4:	01049f31 	tsteq	r4, r1, lsr pc
     af8:	01080000 	mrseq	r0, (UNDEF: 8)
     afc:	00020000 	andeq	r0, r2, r0
     b00:	00009f30 	andeq	r9, r0, r0, lsr pc
     b04:	00000000 	andeq	r0, r0, r0
     b08:	023c0000 	eorseq	r0, ip, #0
     b0c:	024f0000 	subeq	r0, pc, #0
     b10:	00010000 	andeq	r0, r1, r0
     b14:	00024f50 	andeq	r4, r2, r0, asr pc
     b18:	00027000 	andeq	r7, r2, r0
     b1c:	f3000400 	vshl.u8	d0, d0, d0
     b20:	709f5001 	addsvc	r5, pc, r1
     b24:	a4000002 	strge	r0, [r0], #-2
     b28:	01000002 	tsteq	r0, r2
     b2c:	00005000 	andeq	r5, r0, r0
     b30:	00000000 	andeq	r0, r0, r0
     b34:	023c0000 	eorseq	r0, ip, #0
     b38:	024f0000 	subeq	r0, pc, #0
     b3c:	00010000 	andeq	r0, r1, r0
     b40:	00024f51 	andeq	r4, r2, r1, asr pc
     b44:	00027000 	andeq	r7, r2, r0
     b48:	f3000400 	vshl.u8	d0, d0, d0
     b4c:	709f5101 	addsvc	r5, pc, r1, lsl #2
     b50:	a4000002 	strge	r0, [r0], #-2
     b54:	01000002 	tsteq	r0, r2
     b58:	00005100 	andeq	r5, r0, r0, lsl #2
     b5c:	00000000 	andeq	r0, r0, r0
     b60:	02a40000 	adceq	r0, r4, #0
     b64:	02d40000 	sbcseq	r0, r4, #0
     b68:	00010000 	andeq	r0, r1, r0
     b6c:	0002d450 	andeq	sp, r2, r0, asr r4
     b70:	00055800 	andeq	r5, r5, r0, lsl #16
     b74:	5b000100 	blpl	f7c <__code_start__-0x7084>
     b78:	00000558 	andeq	r0, r0, r8, asr r5
     b7c:	00000578 	andeq	r0, r0, r8, ror r5
     b80:	01f30004 	mvnseq	r0, r4
     b84:	00009f50 	andeq	r9, r0, r0, asr pc
     b88:	00000000 	andeq	r0, r0, r0
     b8c:	02a40000 	adceq	r0, r4, #0
     b90:	02bc0000 	adcseq	r0, ip, #0
     b94:	00010000 	andeq	r0, r1, r0
     b98:	0002bc51 	andeq	fp, r2, r1, asr ip
     b9c:	0002d400 	andeq	sp, r2, r0, lsl #8
     ba0:	71000300 	mrsvc	r0, LR_irq
     ba4:	02d49f01 	sbcseq	r9, r4, #1, 30
     ba8:	05780000 	ldrbeq	r0, [r8, #-0]!
     bac:	00040000 	andeq	r0, r4, r0
     bb0:	9f5101f3 	svcls	0x005101f3
	...
     bbc:	000002a4 	andeq	r0, r0, r4, lsr #5
     bc0:	000002d4 	ldrdeq	r0, [r0], -r4
     bc4:	d4520001 	ldrble	r0, [r2], #-1
     bc8:	58000002 	stmdapl	r0, {r1}
     bcc:	01000005 	tsteq	r0, r5
     bd0:	00005600 	andeq	r5, r0, r0, lsl #12
     bd4:	00000000 	andeq	r0, r0, r0
     bd8:	02a40000 	adceq	r0, r4, #0
     bdc:	02c40000 	sbceq	r0, r4, #0
     be0:	00010000 	andeq	r0, r1, r0
     be4:	00000053 	andeq	r0, r0, r3, asr r0
     be8:	00000000 	andeq	r0, r0, r0
     bec:	0002b800 	andeq	fp, r2, r0, lsl #16
     bf0:	0002d400 	andeq	sp, r2, r0, lsl #8
     bf4:	50000100 	andpl	r0, r0, r0, lsl #2
     bf8:	000002d4 	ldrdeq	r0, [r0], -r4
     bfc:	000002d8 	ldrdeq	r0, [r0], -r8
     c00:	d8540001 	ldmdale	r4, {r0}^
     c04:	e4000002 	str	r0, [r0], #-2
     c08:	03000002 	movweq	r0, #2
     c0c:	9f017400 	svcls	0x00017400
     c10:	000002e4 	andeq	r0, r0, r4, ror #5
     c14:	000002f0 	strdeq	r0, [r0], -r0	; <UNPREDICTABLE>
     c18:	f0540001 			; <UNDEFINED> instruction: 0xf0540001
     c1c:	fc000002 	stc2	0, cr0, [r0], {2}
     c20:	03000002 	movweq	r0, #2
     c24:	9f017400 	svcls	0x00017400
     c28:	000002fc 	strdeq	r0, [r0], -ip
     c2c:	0000050c 	andeq	r0, r0, ip, lsl #10
     c30:	0c540001 	mrrceq	0, 0, r0, r4, cr1
     c34:	18000005 	stmdane	r0, {r0, r2}
     c38:	03000005 	movweq	r0, #5
     c3c:	9f017400 	svcls	0x00017400
     c40:	00000518 	andeq	r0, r0, r8, lsl r5
     c44:	00000544 	andeq	r0, r0, r4, asr #10
     c48:	44540001 	ldrbmi	r0, [r4], #-1
     c4c:	50000005 	andpl	r0, r0, r5
     c50:	01000005 	tsteq	r0, r5
     c54:	05505000 	ldrbeq	r5, [r0, #-0]
     c58:	05580000 	ldrbeq	r0, [r8, #-0]
     c5c:	00030000 	andeq	r0, r3, r0
     c60:	009f0174 	addseq	r0, pc, r4, ror r1	; <UNPREDICTABLE>
     c64:	00000000 	andeq	r0, r0, r0
     c68:	c0000000 	andgt	r0, r0, r0
     c6c:	58000002 	stmdapl	r0, {r1}
     c70:	01000005 	tsteq	r0, r5
     c74:	05585800 	ldrbeq	r5, [r8, #-2048]	; 0x800
     c78:	05780000 	ldrbeq	r0, [r8, #-0]!
     c7c:	000a0000 	andeq	r0, sl, r0
     c80:	f35101f3 	vbsl	q8, <illegal reg q8.5>, <illegal reg q9.5>
     c84:	31225001 	teqcc	r2, r1
     c88:	00009f1c 	andeq	r9, r0, ip, lsl pc
     c8c:	00000000 	andeq	r0, r0, r0
     c90:	02c80000 	sbceq	r0, r8, #0
     c94:	02d40000 	sbcseq	r0, r4, #0
     c98:	00010000 	andeq	r0, r1, r0
     c9c:	0002d452 	andeq	sp, r2, r2, asr r4
     ca0:	00057800 	andeq	r7, r5, r0, lsl #16
     ca4:	91000300 	mrsls	r0, LR_irq
     ca8:	00007ecc 	andeq	r7, r0, ip, asr #29
     cac:	00000000 	andeq	r0, r0, r0
     cb0:	04100000 	ldreq	r0, [r0], #-0
     cb4:	04140000 	ldreq	r0, [r4], #-0
     cb8:	00010000 	andeq	r0, r1, r0
     cbc:	00043850 	andeq	r3, r4, r0, asr r8
     cc0:	00043c00 	andeq	r3, r4, r0, lsl #24
     cc4:	50000100 	andpl	r0, r0, r0, lsl #2
     cc8:	00000460 	andeq	r0, r0, r0, ror #8
     ccc:	00000464 	andeq	r0, r0, r4, ror #8
     cd0:	88500001 	ldmdahi	r0, {r0}^
     cd4:	8c000004 	stchi	0, cr0, [r0], {4}
     cd8:	01000004 	tsteq	r0, r4
     cdc:	04945000 	ldreq	r5, [r4], #0
     ce0:	04980000 	ldreq	r0, [r8], #0
     ce4:	00010000 	andeq	r0, r1, r0
     ce8:	0004bc50 	andeq	fp, r4, r0, asr ip
     cec:	0004c000 	andeq	ip, r4, r0
     cf0:	50000100 	andpl	r0, r0, r0, lsl #2
     cf4:	00000504 	andeq	r0, r0, r4, lsl #10
     cf8:	0000052c 	andeq	r0, r0, ip, lsr #10
     cfc:	00500001 	subseq	r0, r0, r1
     d00:	00000000 	andeq	r0, r0, r0
     d04:	04000000 	streq	r0, [r0], #-0
     d08:	0c000003 	stceq	0, cr0, [r0], {3}
     d0c:	02000003 	andeq	r0, r0, #3
     d10:	0c9f3000 	ldceq	0, cr3, [pc], {0}
     d14:	10000003 	andne	r0, r0, r3
     d18:	01000003 	tsteq	r0, r3
     d1c:	031c5700 	tsteq	ip, #0, 14
     d20:	052c0000 	streq	r0, [ip, #-0]!
     d24:	00010000 	andeq	r0, r1, r0
     d28:	00000057 	andeq	r0, r0, r7, asr r0
     d2c:	00000000 	andeq	r0, r0, r0
     d30:	00000400 	andeq	r0, r0, r0, lsl #8
     d34:	00000800 	andeq	r0, r0, r0, lsl #16
     d38:	73000700 	movwvc	r0, #1792	; 0x700
     d3c:	10000a00 	andne	r0, r0, r0, lsl #20
     d40:	00089f21 	andeq	r9, r8, r1, lsr #30
     d44:	00100000 	andseq	r0, r0, r0
     d48:	00010000 	andeq	r0, r1, r0
     d4c:	00000053 	andeq	r0, r0, r3, asr r0
     d50:	00000000 	andeq	r0, r0, r0
     d54:	00001400 	andeq	r1, r0, r0, lsl #8
     d58:	00001800 	andeq	r1, r0, r0, lsl #16
     d5c:	73000700 	movwvc	r0, #1792	; 0x700
     d60:	efff0b00 	svc	0x00ff0b00
     d64:	00189f1a 	andseq	r9, r8, sl, lsl pc
     d68:	00200000 	eoreq	r0, r0, r0
     d6c:	00010000 	andeq	r0, r1, r0
     d70:	00000053 	andeq	r0, r0, r3, asr r0
     d74:	00000000 	andeq	r0, r0, r0
     d78:	00001400 	andeq	r1, r0, r0, lsl #8
     d7c:	00001c00 	andeq	r1, r0, r0, lsl #24
     d80:	73000300 	movwvc	r0, #768	; 0x300
     d84:	001c9f04 	andseq	r9, ip, r4, lsl #30
     d88:	00270000 	eoreq	r0, r7, r0
     d8c:	00010000 	andeq	r0, r1, r0
     d90:	00000053 	andeq	r0, r0, r3, asr r0
	...
     d9c:	00000f00 	andeq	r0, r0, r0, lsl #30
     da0:	50000100 	andpl	r0, r0, r0, lsl #2
     da4:	0000000f 	andeq	r0, r0, pc
     da8:	00000044 	andeq	r0, r0, r4, asr #32
     dac:	00540001 	subseq	r0, r4, r1
	...
     db8:	0f000000 	svceq	0x00000000
     dbc:	01000000 	mrseq	r0, (UNDEF: 0)
     dc0:	000f5000 	andeq	r5, pc, r0
     dc4:	00440000 	subeq	r0, r4, r0
     dc8:	00010000 	andeq	r0, r1, r0
     dcc:	00000054 	andeq	r0, r0, r4, asr r0
	...
     dd8:	00000f00 	andeq	r0, r0, r0, lsl #30
     ddc:	50000100 	andpl	r0, r0, r0, lsl #2
     de0:	0000000f 	andeq	r0, r0, pc
     de4:	00000044 	andeq	r0, r0, r4, asr #32
     de8:	00540001 	subseq	r0, r4, r1
     dec:	00000000 	andeq	r0, r0, r0
     df0:	34000000 	strcc	r0, [r0], #-0
     df4:	40000000 	andmi	r0, r0, r0
     df8:	02000000 	andeq	r0, r0, #0
     dfc:	409f3000 	addsmi	r3, pc, r0
     e00:	6c000000 	stcvs	0, cr0, [r0], {-0}
     e04:	01000000 	mrseq	r0, (UNDEF: 0)
     e08:	00005300 	andeq	r5, r0, r0, lsl #6
     e0c:	00000000 	andeq	r0, r0, r0
     e10:	95840000 	strls	r0, [r4]
     e14:	95880000 	strls	r0, [r8]
     e18:	00020000 	andeq	r0, r2, r0
     e1c:	95889f30 	strls	r9, [r8, #3888]	; 0xf30
     e20:	958c0000 	strls	r0, [ip]
     e24:	00010000 	andeq	r0, r1, r0
     e28:	00000050 	andeq	r0, r0, r0, asr r0
     e2c:	00000000 	andeq	r0, r0, r0
     e30:	00959c00 	addseq	r9, r5, r0, lsl #24
     e34:	0095a000 	addseq	sl, r5, r0
     e38:	30000200 	andcc	r0, r0, r0, lsl #4
     e3c:	0095a09f 	umullseq	sl, r5, pc, r0	; <UNPREDICTABLE>
     e40:	0095a400 	addseq	sl, r5, r0, lsl #8
     e44:	53000100 	movwpl	r0, #256	; 0x100
     e48:	000095a8 	andeq	r9, r0, r8, lsr #11
     e4c:	000095b0 			; <UNDEFINED> instruction: 0x000095b0
     e50:	00530001 	subseq	r0, r3, r1
	...
     e5c:	04000000 	streq	r0, [r0], #-0
     e60:	01000000 	mrseq	r0, (UNDEF: 0)
     e64:	00045000 	andeq	r5, r4, r0
     e68:	000c0000 	andeq	r0, ip, r0
     e6c:	00010000 	andeq	r0, r1, r0
     e70:	00000c53 	andeq	r0, r0, r3, asr ip
     e74:	00001000 	andeq	r1, r0, r0
     e78:	50000100 	andpl	r0, r0, r0, lsl #2
     e7c:	00000010 	andeq	r0, r0, r0, lsl r0
     e80:	0000001c 	andeq	r0, r0, ip, lsl r0
     e84:	00530001 	subseq	r0, r3, r1
     e88:	00000000 	andeq	r0, r0, r0
     e8c:	40000000 	andmi	r0, r0, r0
     e90:	43000000 	movwmi	r0, #0
     e94:	01000000 	mrseq	r0, (UNDEF: 0)
     e98:	00435000 	subeq	r5, r3, r0
     e9c:	004c0000 	subeq	r0, ip, r0
     ea0:	00010000 	andeq	r0, r1, r0
     ea4:	00000054 	andeq	r0, r0, r4, asr r0
     ea8:	00000000 	andeq	r0, r0, r0
     eac:	00004c00 	andeq	r4, r0, r0, lsl #24
     eb0:	00005700 	andeq	r5, r0, r0, lsl #14
     eb4:	50000100 	andpl	r0, r0, r0, lsl #2
     eb8:	00000057 	andeq	r0, r0, r7, asr r0
     ebc:	00000070 	andeq	r0, r0, r0, ror r0
     ec0:	00550001 	subseq	r0, r5, r1
     ec4:	00000000 	andeq	r0, r0, r0
     ec8:	60000000 	andvs	r0, r0, r0
     ecc:	64000000 	strvs	r0, [r0], #-0
     ed0:	01000000 	mrseq	r0, (UNDEF: 0)
     ed4:	00005000 	andeq	r5, r0, r0
     ed8:	00000000 	andeq	r0, r0, r0
     edc:	00700000 	rsbseq	r0, r0, r0
     ee0:	007c0000 	rsbseq	r0, ip, r0
     ee4:	00010000 	andeq	r0, r1, r0
     ee8:	00007c50 	andeq	r7, r0, r0, asr ip
     eec:	00008400 	andeq	r8, r0, r0, lsl #8
     ef0:	f3000400 	vshl.u8	d0, d0, d0
     ef4:	009f5001 	addseq	r5, pc, r1
     ef8:	00000000 	andeq	r0, r0, r0
     efc:	84000000 	strhi	r0, [r0], #-0
     f00:	90000000 	andls	r0, r0, r0
     f04:	01000000 	mrseq	r0, (UNDEF: 0)
     f08:	00905000 	addseq	r5, r0, r0
     f0c:	00980000 	addseq	r0, r8, r0
     f10:	00040000 	andeq	r0, r4, r0
     f14:	9f5001f3 	svcls	0x005001f3
	...
     f20:	00000138 	andeq	r0, r0, r8, lsr r1
     f24:	00000143 	andeq	r0, r0, r3, asr #2
     f28:	43500001 	cmpmi	r0, #1
     f2c:	68000001 	stmdavs	r0, {r0}
     f30:	01000001 	tsteq	r0, r1
     f34:	00005400 	andeq	r5, r0, r0, lsl #8
	...
     f40:	000f0000 	andeq	r0, pc, r0
     f44:	00010000 	andeq	r0, r1, r0
     f48:	00000f50 	andeq	r0, r0, r0, asr pc
     f4c:	00002000 	andeq	r2, r0, r0
     f50:	54000100 	strpl	r0, [r0], #-256	; 0x100
	...
     f60:	0000000f 	andeq	r0, r0, pc
     f64:	0f510001 	svceq	0x00510001
     f68:	20000000 	andcs	r0, r0, r0
     f6c:	01000000 	mrseq	r0, (UNDEF: 0)
     f70:	00005500 	andeq	r5, r0, r0, lsl #10
     f74:	00000000 	andeq	r0, r0, r0
     f78:	00ec0000 	rsceq	r0, ip, r0
     f7c:	01040000 	mrseq	r0, (UNDEF: 4)
     f80:	00010000 	andeq	r0, r1, r0
     f84:	00010450 	andeq	r0, r1, r0, asr r4
     f88:	00011400 	andeq	r1, r1, r0, lsl #8
     f8c:	f3000400 	vshl.u8	d0, d0, d0
     f90:	149f5001 	ldrne	r5, [pc], #1	; f98 <__code_start__-0x7068>
     f94:	18000001 	stmdane	r0, {r0}
     f98:	01000001 	tsteq	r0, r1
     f9c:	01185000 	tsteq	r8, r0
     fa0:	01200000 	teqeq	r0, r0
     fa4:	00040000 	andeq	r0, r4, r0
     fa8:	9f5001f3 	svcls	0x005001f3
	...
     fb4:	000000f8 	strdeq	r0, [r0], -r8
     fb8:	00000104 	andeq	r0, r0, r4, lsl #2
     fbc:	0070000b 	rsbseq	r0, r0, fp
     fc0:	b4232535 	strtlt	r2, [r3], #-1333	; 0x535
     fc4:	02818080 	addeq	r8, r1, #128	; 0x80
     fc8:	0001049f 	muleq	r1, pc, r4	; <UNPREDICTABLE>
     fcc:	00010700 	andeq	r0, r1, r0, lsl #14
     fd0:	50000100 	andpl	r0, r0, r0, lsl #2
     fd4:	00000107 	andeq	r0, r0, r7, lsl #2
     fd8:	00000114 	andeq	r0, r0, r4, lsl r1
     fdc:	01f3000c 	mvnseq	r0, ip
     fe0:	23253550 	teqcs	r5, #80, 10	; 0x14000000
     fe4:	818080b4 	strhhi	r8, [r0, r4]
     fe8:	00009f02 	andeq	r9, r0, r2, lsl #30
     fec:	00000000 	andeq	r0, r0, r0
     ff0:	00fc0000 	rscseq	r0, ip, r0
     ff4:	01140000 	tsteq	r4, r0
     ff8:	00010000 	andeq	r0, r1, r0
     ffc:	00000054 	andeq	r0, r0, r4, asr r0
    1000:	00000000 	andeq	r0, r0, r0
    1004:	0000d000 	andeq	sp, r0, r0
    1008:	0000df00 	andeq	sp, r0, r0, lsl #30
    100c:	50000100 	andpl	r0, r0, r0, lsl #2
    1010:	000000df 	ldrdeq	r0, [r0], -pc	; <UNPREDICTABLE>
    1014:	000000e4 	andeq	r0, r0, r4, ror #1
    1018:	01f30004 	mvnseq	r0, r4
    101c:	00e49f50 	rsceq	r9, r4, r0, asr pc
    1020:	00e70000 	rsceq	r0, r7, r0
    1024:	00010000 	andeq	r0, r1, r0
    1028:	0000e750 	andeq	lr, r0, r0, asr r7
    102c:	0000ec00 	andeq	lr, r0, r0, lsl #24
    1030:	f3000400 	vshl.u8	d0, d0, d0
    1034:	009f5001 	addseq	r5, pc, r1
    1038:	00000000 	andeq	r0, r0, r0
    103c:	d0000000 	andle	r0, r0, r0
    1040:	df000000 	svcle	0x00000000
    1044:	01000000 	mrseq	r0, (UNDEF: 0)
    1048:	00df5100 	sbcseq	r5, pc, r0, lsl #2
    104c:	00e40000 	rsceq	r0, r4, r0
    1050:	00040000 	andeq	r0, r4, r0
    1054:	9f5101f3 	svcls	0x005101f3
    1058:	000000e4 	andeq	r0, r0, r4, ror #1
    105c:	000000e7 	andeq	r0, r0, r7, ror #1
    1060:	e7510001 	ldrb	r0, [r1, -r1]
    1064:	ec000000 	stc	0, cr0, [r0], {-0}
    1068:	04000000 	streq	r0, [r0], #-0
    106c:	5101f300 	mrspl	pc, SP_irq	; <UNPREDICTABLE>
    1070:	0000009f 	muleq	r0, pc, r0	; <UNPREDICTABLE>
    1074:	00000000 	andeq	r0, r0, r0
    1078:	0000c000 	andeq	ip, r0, r0
    107c:	0000cb00 	andeq	ip, r0, r0, lsl #22
    1080:	50000100 	andpl	r0, r0, r0, lsl #2
    1084:	000000cb 	andeq	r0, r0, fp, asr #1
    1088:	000000d0 	ldrdeq	r0, [r0], -r0	; <UNPREDICTABLE>
    108c:	01f30004 	mvnseq	r0, r4
    1090:	00009f50 	andeq	r9, r0, r0, asr pc
    1094:	00000000 	andeq	r0, r0, r0
    1098:	009c0000 	addseq	r0, ip, r0
    109c:	00b40000 	adcseq	r0, r4, r0
    10a0:	00010000 	andeq	r0, r1, r0
    10a4:	0000b450 	andeq	fp, r0, r0, asr r4
    10a8:	0000c000 	andeq	ip, r0, r0
    10ac:	f3000400 	vshl.u8	d0, d0, d0
    10b0:	009f5001 	addseq	r5, pc, r1
    10b4:	00000000 	andeq	r0, r0, r0
    10b8:	78000000 	stmdavc	r0, {}	; <UNPREDICTABLE>
    10bc:	90000000 	andls	r0, r0, r0
    10c0:	01000000 	mrseq	r0, (UNDEF: 0)
    10c4:	00905000 	addseq	r5, r0, r0
    10c8:	009c0000 	addseq	r0, ip, r0
    10cc:	00040000 	andeq	r0, r4, r0
    10d0:	9f5001f3 	svcls	0x005001f3
	...
    10dc:	00000068 	andeq	r0, r0, r8, rrx
    10e0:	00000073 	andeq	r0, r0, r3, ror r0
    10e4:	73500001 	cmpvc	r0, #1
    10e8:	78000000 	stmdavc	r0, {}	; <UNPREDICTABLE>
    10ec:	04000000 	streq	r0, [r0], #-0
    10f0:	5001f300 	andpl	pc, r1, r0, lsl #6
    10f4:	0000009f 	muleq	r0, pc, r0	; <UNPREDICTABLE>
	...
    1100:	00004800 	andeq	r4, r0, r0, lsl #16
    1104:	50000100 	andpl	r0, r0, r0, lsl #2
    1108:	00000048 	andeq	r0, r0, r8, asr #32
    110c:	00000068 	andeq	r0, r0, r8, rrx
    1110:	01f30004 	mvnseq	r0, r4
    1114:	00009f50 	andeq	r9, r0, r0, asr pc
	...
    1120:	004b0000 	subeq	r0, fp, r0
    1124:	00010000 	andeq	r0, r1, r0
    1128:	00004b51 	andeq	r4, r0, r1, asr fp
    112c:	00006800 	andeq	r6, r0, r0, lsl #16
    1130:	f3000400 	vshl.u8	d0, d0, d0
    1134:	009f5101 	addseq	r5, pc, r1, lsl #2
    1138:	00000000 	andeq	r0, r0, r0
    113c:	4c000000 	stcmi	0, cr0, [r0], {-0}
    1140:	54000000 	strpl	r0, [r0], #-0
    1144:	01000000 	mrseq	r0, (UNDEF: 0)
    1148:	00545000 	subseq	r5, r4, r0
    114c:	00580000 	subseq	r0, r8, r0
    1150:	00090000 	andeq	r0, r9, r0
    1154:	00740075 	rsbseq	r0, r4, r5, ror r0
    1158:	21007124 	tstcs	r0, r4, lsr #2
    115c:	0000589f 	muleq	r0, pc, r8	; <UNPREDICTABLE>
    1160:	00005f00 	andeq	r5, r0, r0, lsl #30
    1164:	51000100 	mrspl	r0, (UNDEF: 16)
	...

Disassembly of section .debug_aranges:

00000000 <.debug_aranges>:
   0:	0000001c 	andeq	r0, r0, ip, lsl r0
   4:	00000002 	andeq	r0, r0, r2
   8:	00040000 	andeq	r0, r4, r0
   c:	00000000 	andeq	r0, r0, r0
  10:	00008020 	andeq	r8, r0, r0, lsr #32
  14:	000001a8 	andeq	r0, r0, r8, lsr #3
	...
  20:	0000001c 	andeq	r0, r0, ip, lsl r0
  24:	04710002 	ldrbteq	r0, [r1], #-2
  28:	00040000 	andeq	r0, r4, r0
  2c:	00000000 	andeq	r0, r0, r0
  30:	000081c8 	andeq	r8, r0, r8, asr #3
  34:	00000378 	andeq	r0, r0, r8, ror r3
	...
  40:	0000001c 	andeq	r0, r0, ip, lsl r0
  44:	104c0002 	subne	r0, ip, r2
  48:	00040000 	andeq	r0, r4, r0
  4c:	00000000 	andeq	r0, r0, r0
  50:	00008678 	andeq	r8, r0, r8, ror r6
  54:	00000708 	andeq	r0, r0, r8, lsl #14
	...
  60:	0000001c 	andeq	r0, r0, ip, lsl r0
  64:	1ec40002 	cdpne	0, 12, cr0, cr4, cr2, {0}
  68:	00040000 	andeq	r0, r4, r0
  6c:	00000000 	andeq	r0, r0, r0
  70:	00008d80 	andeq	r8, r0, r0, lsl #27
  74:	00000058 	andeq	r0, r0, r8, asr r0
	...
  80:	0000001c 	andeq	r0, r0, ip, lsl r0
  84:	20590002 	subscs	r0, r9, r2
  88:	00040000 	andeq	r0, r4, r0
  8c:	00000000 	andeq	r0, r0, r0
  90:	00008dd8 	ldrdeq	r8, [r0], -r8	; <UNPREDICTABLE>
  94:	0000003c 	andeq	r0, r0, ip, lsr r0
	...
  a0:	0000001c 	andeq	r0, r0, ip, lsl r0
  a4:	21700002 	cmncs	r0, r2
  a8:	00040000 	andeq	r0, r4, r0
  ac:	00000000 	andeq	r0, r0, r0
  b0:	00008e14 	andeq	r8, r0, r4, lsl lr
  b4:	00000034 	andeq	r0, r0, r4, lsr r0
	...
  c0:	0000001c 	andeq	r0, r0, ip, lsl r0
  c4:	22620002 	rsbcs	r0, r2, #2
  c8:	00040000 	andeq	r0, r4, r0
  cc:	00000000 	andeq	r0, r0, r0
  d0:	00008e48 	andeq	r8, r0, r8, asr #28
  d4:	00000578 	andeq	r0, r0, r8, ror r5
	...
  e0:	0000001c 	andeq	r0, r0, ip, lsl r0
  e4:	294b0002 	stmdbcs	fp, {r1}^
  e8:	00040000 	andeq	r0, r4, r0
  ec:	00000000 	andeq	r0, r0, r0
  f0:	000093c0 	andeq	r9, r0, r0, asr #7
  f4:	00000020 	andeq	r0, r0, r0, lsr #32
	...
 100:	0000001c 	andeq	r0, r0, ip, lsl r0
 104:	2a070002 	bcs	1c0114 <__bss_end__+0x1b5b9c>
 108:	00040000 	andeq	r0, r4, r0
 10c:	00000000 	andeq	r0, r0, r0
 110:	000093e0 	andeq	r9, r0, r0, ror #7
 114:	0000002c 	andeq	r0, r0, ip, lsr #32
	...
 120:	0000001c 	andeq	r0, r0, ip, lsl r0
 124:	2b1a0002 	blcs	680134 <__bss_end__+0x675bbc>
 128:	00040000 	andeq	r0, r4, r0
 12c:	00000000 	andeq	r0, r0, r0
 130:	0000940c 	andeq	r9, r0, ip, lsl #8
 134:	00000038 	andeq	r0, r0, r8, lsr r0
	...
 140:	0000001c 	andeq	r0, r0, ip, lsl r0
 144:	2c2d0002 	stccs	0, cr0, [sp], #-8
 148:	00040000 	andeq	r0, r4, r0
 14c:	00000000 	andeq	r0, r0, r0
 150:	00009444 	andeq	r9, r0, r4, asr #8
 154:	00000044 	andeq	r0, r0, r4, asr #32
	...
 160:	0000001c 	andeq	r0, r0, ip, lsl r0
 164:	2d6f0002 	stclcs	0, cr0, [pc, #-8]!	; 164 <__code_start__-0x7e9c>
 168:	00040000 	andeq	r0, r4, r0
 16c:	00000000 	andeq	r0, r0, r0
 170:	00009488 	andeq	r9, r0, r8, lsl #9
 174:	00000044 	andeq	r0, r0, r4, asr #32
	...
 180:	0000001c 	andeq	r0, r0, ip, lsl r0
 184:	2eb10002 	cdpcs	0, 11, cr0, cr1, cr2, {0}
 188:	00040000 	andeq	r0, r4, r0
 18c:	00000000 	andeq	r0, r0, r0
 190:	000094cc 	andeq	r9, r0, ip, asr #9
 194:	00000044 	andeq	r0, r0, r4, asr #32
	...
 1a0:	0000001c 	andeq	r0, r0, ip, lsl r0
 1a4:	2ff30002 	svccs	0x00f30002
 1a8:	00040000 	andeq	r0, r4, r0
 1ac:	00000000 	andeq	r0, r0, r0
 1b0:	00009510 	andeq	r9, r0, r0, lsl r5
 1b4:	00000008 	andeq	r0, r0, r8
	...
 1c0:	0000001c 	andeq	r0, r0, ip, lsl r0
 1c4:	308f0002 	addcc	r0, pc, r2
 1c8:	00040000 	andeq	r0, r4, r0
 1cc:	00000000 	andeq	r0, r0, r0
 1d0:	00009518 	andeq	r9, r0, r8, lsl r5
 1d4:	0000006c 	andeq	r0, r0, ip, rrx
	...
 1e0:	0000001c 	andeq	r0, r0, ip, lsl r0
 1e4:	326a0002 	rsbcc	r0, sl, #2
 1e8:	00040000 	andeq	r0, r4, r0
 1ec:	00000000 	andeq	r0, r0, r0
 1f0:	00009584 	andeq	r9, r0, r4, lsl #11
 1f4:	00000074 	andeq	r0, r0, r4, ror r0
	...
 200:	0000001c 	andeq	r0, r0, ip, lsl r0
 204:	341b0002 	ldrcc	r0, [fp], #-2
 208:	00040000 	andeq	r0, r4, r0
 20c:	00000000 	andeq	r0, r0, r0
 210:	000095f8 	strdeq	r9, [r0], -r8
 214:	00000098 	muleq	r0, r8, r0
	...
 220:	0000001c 	andeq	r0, r0, ip, lsl r0
 224:	36160002 	ldrcc	r0, [r6], -r2
 228:	00040000 	andeq	r0, r4, r0
 22c:	00000000 	andeq	r0, r0, r0
 230:	000096f4 	strdeq	r9, [r0], -r4
 234:	00000178 	andeq	r0, r0, r8, ror r1
	...
 240:	0000001c 	andeq	r0, r0, ip, lsl r0
 244:	42df0002 	sbcsmi	r0, pc, #2
 248:	00040000 	andeq	r0, r4, r0
 24c:	00000000 	andeq	r0, r0, r0
 250:	0000986c 	andeq	r9, r0, ip, ror #16
 254:	00000120 	andeq	r0, r0, r0, lsr #2
	...

Disassembly of section .debug_line:

00000000 <.debug_line>:
       0:	00000141 	andeq	r0, r0, r1, asr #2
       4:	01100002 	tsteq	r0, r2
       8:	01020000 	mrseq	r0, (UNDEF: 2)
       c:	000d0efb 	strdeq	r0, [sp], -fp
      10:	01010101 	tsteq	r1, r1, lsl #2
      14:	01000000 	mrseq	r0, (UNDEF: 0)
      18:	74010000 	strvc	r0, [r1], #-0
      1c:	73747365 	cmnvc	r4, #-1811939327	; 0x94000001
      20:	00302e32 	eorseq	r2, r0, r2, lsr lr
      24:	752f002e 	strvc	r0, [pc, #-46]!	; fffffffe <__bss_end__+0xffff5a86>
      28:	6c2f7273 	sfmvs	f7, 4, [pc], #-460	; fffffe64 <__bss_end__+0xffff58ec>
      2c:	6c61636f 	stclvs	3, cr6, [r1], #-444	; 0xfffffe44
      30:	6c65432f 	stclvs	3, cr4, [r5], #-188	; 0xffffff44
      34:	2f72616c 	svccs	0x0072616c
      38:	2d6d7261 	sfmcs	f7, 2, [sp, #-388]!	; 0xfffffe7c
      3c:	656e6f6e 	strbvs	r6, [lr, #-3950]!	; 0xf6e
      40:	6261652d 	rsbvs	r6, r1, #188743680	; 0xb400000
      44:	2e342f69 	cdpcs	15, 3, cr2, cr4, cr9, {3}
      48:	2d332e38 	ldccs	14, cr2, [r3, #-224]!	; 0xffffff20
      4c:	37317363 	ldrcc	r7, [r1, -r3, ror #6]!
      50:	6c2f6530 	cfstr32vs	mvfx6, [pc], #-192	; ffffff98 <__bss_end__+0xffff5a20>
      54:	672f6269 	strvs	r6, [pc, -r9, ror #4]!
      58:	612f6363 	teqvs	pc, r3, ror #6
      5c:	6e2d6d72 	mcrvs	13, 1, r6, cr13, cr2, {3}
      60:	2d656e6f 	stclcs	14, cr6, [r5, #-444]!	; 0xfffffe44
      64:	69626165 	stmdbvs	r2!, {r0, r2, r5, r6, r8, sp, lr}^
      68:	382e342f 	stmdacc	lr!, {r0, r1, r2, r3, r5, sl, ip, sp}
      6c:	692f332e 	stmdbvs	pc!, {r1, r2, r3, r5, r8, r9, ip, sp}	; <UNPREDICTABLE>
      70:	756c636e 	strbvc	r6, [ip, #-878]!	; 0x36e
      74:	2f006564 	svccs	0x00006564
      78:	72657355 	rsbvc	r7, r5, #1409286145	; 0x54000001
      7c:	72622f73 	rsbvc	r2, r2, #460	; 0x1cc
      80:	6a6e6169 	bvs	1b9862c <__bss_end__+0x1b8e0b4>
      84:	442f6e75 	strtmi	r6, [pc], #-3701	; 8c <__code_start__-0x7f74>
      88:	746b7365 	strbtvc	r7, [fp], #-869	; 0x365
      8c:	732f706f 	teqvc	pc, #111	; 0x6f
      90:	6f6f6863 	svcvs	0x006f6863
      94:	70532f6c 	subsvc	r2, r3, ip, ror #30
      98:	676e6972 			; <UNDEFINED> instruction: 0x676e6972
      9c:	30323931 	eorscc	r3, r2, r1, lsr r9
      a0:	3253432f 	subscc	r4, r3, #-1140850688	; 0xbc000000
      a4:	584c3034 	stmdapl	ip, {r2, r4, r5, ip, sp}^
      a8:	3273632f 	rsbscc	r6, r3, #-1140850688	; 0xbc000000
      ac:	786c3034 	stmdavc	ip!, {r2, r4, r5, ip, sp}^
      b0:	7330322d 	teqvc	r0, #-805306366	; 0xd0000002
      b4:	6c2f7270 	sfmvs	f7, 4, [pc], #-448	; fffffefc <__bss_end__+0xffff5984>
      b8:	69706269 	ldmdbvs	r0!, {r0, r3, r5, r6, r9, sp, lr}^
      bc:	636e692f 	cmnvs	lr, #770048	; 0xbc000
      c0:	6564756c 	strbvs	r7, [r4, #-1388]!	; 0x56c
      c4:	36310000 	ldrtcc	r0, [r1], -r0
      c8:	7261702d 	rsbvc	r7, r1, #45	; 0x2d
      cc:	742d3274 	strtvc	r3, [sp], #-628	; 0x274
      d0:	37747365 	ldrbcc	r7, [r4, -r5, ror #6]!
      d4:	0100632e 	tsteq	r0, lr, lsr #6
      d8:	68630000 	stmdavs	r3!, {}^	; <UNPREDICTABLE>
      dc:	2d6b6365 	stclcs	3, cr6, [fp, #-404]!	; 0xfffffe6c
      e0:	65746e69 	ldrbvs	r6, [r4, #-3689]!	; 0xe69
      e4:	61656c72 	smcvs	22210	; 0x56c2
      e8:	682e6576 	stmdavs	lr!, {r1, r2, r4, r5, r6, r8, sl, sp, lr}
      ec:	00000200 	andeq	r0, r0, r0, lsl #4
      f0:	69647473 	stmdbvs	r4!, {r0, r1, r4, r5, r6, sl, ip, sp, lr}^
      f4:	672d746e 	strvs	r7, [sp, -lr, ror #8]!
      f8:	682e6363 	stmdavs	lr!, {r0, r1, r5, r6, r8, r9, sp, lr}
      fc:	00000300 	andeq	r0, r0, r0, lsl #6
     100:	2e697072 	mcrcs	0, 3, r7, cr9, cr2, {3}
     104:	00040068 	andeq	r0, r4, r8, rrx
     108:	31706300 	cmncc	r0, r0, lsl #6
     10c:	65642d34 	strbvs	r2, [r4, #-3380]!	; 0xd34
     110:	2e677562 	cdpcs	5, 6, cr7, cr7, cr2, {3}
     114:	00020068 	andeq	r0, r2, r8, rrx
     118:	05000000 	streq	r0, [r0, #-0]
     11c:	00802002 	addeq	r2, r0, r2
     120:	672f1a00 	strvs	r1, [pc, -r0, lsl #20]!
     124:	152308d7 	strne	r0, [r3, #-2263]!	; 0x8d7
     128:	4ba0134c 	blmi	fe804e60 <__bss_end__+0xfe7fa8e8>
     12c:	01040200 	mrseq	r0, R12_usr
     130:	08068206 	stmdaeq	r6, {r1, r2, r9, pc}
     134:	0213f422 	andseq	pc, r3, #570425344	; 0x22000000
     138:	4ca0192e 	stcmi	9, cr1, [r0], #184	; 0xb8
     13c:	d8834c30 	stmle	r3, {r4, r5, sl, fp, lr}
     140:	01001802 	tsteq	r0, r2, lsl #16
     144:	0001f401 	andeq	pc, r1, r1, lsl #8
     148:	ff000200 			; <UNDEFINED> instruction: 0xff000200
     14c:	02000000 	andeq	r0, r0, #0
     150:	0d0efb01 	vstreq	d15, [lr, #-4]
     154:	01010100 	mrseq	r0, (UNDEF: 17)
     158:	00000001 	andeq	r0, r0, r1
     15c:	01000001 	tsteq	r0, r1
     160:	7273752f 	rsbsvc	r7, r3, #197132288	; 0xbc00000
     164:	636f6c2f 	cmnvs	pc, #12032	; 0x2f00
     168:	432f6c61 	teqmi	pc, #24832	; 0x6100
     16c:	616c6c65 	cmnvs	ip, r5, ror #24
     170:	72612f72 	rsbvc	r2, r1, #456	; 0x1c8
     174:	6f6e2d6d 	svcvs	0x006e2d6d
     178:	652d656e 	strvs	r6, [sp, #-1390]!	; 0x56e
     17c:	2f696261 	svccs	0x00696261
     180:	2e382e34 	mrccs	14, 1, r2, cr8, cr4, {1}
     184:	73632d33 	cmnvc	r3, #3264	; 0xcc0
     188:	65303731 	ldrvs	r3, [r0, #-1841]!	; 0x731
     18c:	62696c2f 	rsbvs	r6, r9, #12032	; 0x2f00
     190:	6363672f 	cmnvs	r3, #12320768	; 0xbc0000
     194:	6d72612f 	ldfvse	f6, [r2, #-188]!	; 0xffffff44
     198:	6e6f6e2d 	cdpvs	14, 6, cr6, cr15, cr13, {1}
     19c:	61652d65 	cmnvs	r5, r5, ror #26
     1a0:	342f6962 	strtcc	r6, [pc], #-2402	; 1a8 <__code_start__-0x7e58>
     1a4:	332e382e 	teqcc	lr, #3014656	; 0x2e0000
     1a8:	636e692f 	cmnvs	lr, #770048	; 0xbc000
     1ac:	6564756c 	strbvs	r7, [r4, #-1388]!	; 0x56c
     1b0:	73552f00 	cmpvc	r5, #0, 30
     1b4:	2f737265 	svccs	0x00737265
     1b8:	61697262 	cmnvs	r9, r2, ror #4
     1bc:	6e756a6e 	vsubvs.f32	s13, s10, s29
     1c0:	7365442f 	cmnvc	r5, #788529152	; 0x2f000000
     1c4:	706f746b 	rsbvc	r7, pc, fp, ror #8
     1c8:	6863732f 	stmdavs	r3!, {r0, r1, r2, r3, r5, r8, r9, ip, sp, lr}^
     1cc:	2f6c6f6f 	svccs	0x006c6f6f
     1d0:	69727053 	ldmdbvs	r2!, {r0, r1, r4, r6, ip, sp, lr}^
     1d4:	3931676e 	ldmdbcc	r1!, {r1, r2, r3, r5, r6, r8, r9, sl, sp, lr}
     1d8:	432f3032 	teqmi	pc, #50	; 0x32
     1dc:	30343253 	eorscc	r3, r4, r3, asr r2
     1e0:	632f584c 	teqvs	pc, #76, 16	; 0x4c0000
     1e4:	30343273 	eorscc	r3, r4, r3, ror r2
     1e8:	322d786c 	eorcc	r7, sp, #108, 16	; 0x6c0000
     1ec:	72707330 	rsbsvc	r7, r0, #48, 6	; 0xc0000000
     1f0:	62696c2f 	rsbvs	r6, r9, #12032	; 0x2f00
     1f4:	692f6970 	stmdbvs	pc!, {r4, r5, r6, r8, fp, sp, lr}	; <UNPREDICTABLE>
     1f8:	756c636e 	strbvc	r6, [ip, #-878]!	; 0x36e
     1fc:	00006564 	andeq	r6, r0, r4, ror #10
     200:	34317063 	ldrtcc	r7, [r1], #-99	; 0x63
     204:	6265642d 	rsbvs	r6, r5, #754974720	; 0x2d000000
     208:	632e6775 	teqvs	lr, #30670848	; 0x1d40000
     20c:	00000000 	andeq	r0, r0, r0
     210:	34317063 	ldrtcc	r7, [r1], #-99	; 0x63
     214:	6265642d 	rsbvs	r6, r5, #754974720	; 0x2d000000
     218:	682e6775 	stmdavs	lr!, {r0, r2, r4, r5, r6, r8, r9, sl, sp, lr}
     21c:	00000000 	andeq	r0, r0, r0
     220:	69647473 	stmdbvs	r4!, {r0, r1, r4, r5, r6, sl, ip, sp, lr}^
     224:	672d746e 	strvs	r7, [sp, -lr, ror #8]!
     228:	682e6363 	stmdavs	lr!, {r0, r1, r5, r6, r8, r9, sp, lr}
     22c:	00000100 	andeq	r0, r0, r0, lsl #2
     230:	2e697072 	mcrcs	0, 3, r7, cr9, cr2, {3}
     234:	00020068 	andeq	r0, r2, r8, rrx
     238:	69707200 	ldmdbvs	r0!, {r9, ip, sp, lr}^
     23c:	746e692d 	strbtvc	r6, [lr], #-2349	; 0x92d
     240:	75727265 	ldrbvc	r7, [r2, #-613]!	; 0x265
     244:	2e737470 	mrccs	4, 3, r7, cr3, cr0, {3}
     248:	00020068 	andeq	r0, r2, r8, rrx
     24c:	05000000 	streq	r0, [r0, #-0]
     250:	0081c802 	addeq	ip, r1, r2, lsl #16
     254:	01350300 	teqeq	r5, r0, lsl #6
     258:	034a6203 	movteq	r6, #41475	; 0xa203
     25c:	62032e24 	andvs	r2, r3, #36, 28	; 0x240
     260:	2e7a032e 	cdpcs	3, 7, cr0, cr10, cr14, {1}
     264:	002e2903 	eoreq	r2, lr, r3, lsl #18
     268:	06010402 	streq	r0, [r1], -r2, lsl #8
     26c:	6503064a 	strvs	r0, [r3, #-1610]	; 0x64a
     270:	78032008 	stmdavc	r3, {r3, sp}
     274:	4a7a032e 	bmi	1e80f34 <__bss_end__+0x1e769bc>
     278:	002e3a03 	eoreq	r3, lr, r3, lsl #20
     27c:	06010402 	streq	r0, [r1], -r2, lsl #8
     280:	bb03064a 	bllt	c1bb0 <__bss_end__+0xb7638>
     284:	0320087f 	teqeq	r0, #8323072	; 0x7f0000
     288:	4b4a00c8 	blmi	12805b0 <__bss_end__+0x1276038>
     28c:	6c0204f5 	cfstrsvs	mvf0, [r2], {245}	; 0xf5
     290:	344a1303 	strbcc	r1, [sl], #-771	; 0x303
     294:	d65d034b 	ldrble	r0, [sp], -fp, asr #6
     298:	11030104 	tstne	r3, r4, lsl #2
     29c:	0402002e 	streq	r0, [r2], #-46	; 0x2e
     2a0:	06660601 	strbteq	r0, [r6], -r1, lsl #12
     2a4:	02002208 	andeq	r2, r0, #8, 4	; 0x80000000
     2a8:	82060104 	andhi	r0, r6, #4, 2
     2ac:	03060204 	movweq	r0, #25092	; 0x6204
     2b0:	0420087a 	strteq	r0, [r0], #-2170	; 0x87a
     2b4:	2e0c0301 	cdpcs	3, 0, cr0, cr12, cr1, {0}
     2b8:	315a084b 	cmpcc	sl, fp, asr #16
     2bc:	bb032f83 	bllt	cc0d0 <__bss_end__+0xc1b58>
     2c0:	5b03667f 	blpl	d9cc4 <__bss_end__+0xcf74c>
     2c4:	019b034a 	orrseq	r0, fp, sl, asr #6
     2c8:	01650382 	smulbbeq	r5, r2, r3
     2cc:	032e1f03 	teqeq	lr, #3, 30
     2d0:	302c2e62 	eorcc	r2, ip, r2, ror #28
     2d4:	4a7eff03 	bmi	1fbfee8 <__bss_end__+0x1fb5970>
     2d8:	4a01b303 	bmi	6ceec <__bss_end__+0x62974>
     2dc:	030204a2 	movweq	r0, #9378	; 0x24a2
     2e0:	04336662 	ldrteq	r6, [r3], #-1634	; 0x662
     2e4:	2e1b0301 	cdpcs	3, 1, cr0, cr11, cr1, {0}
     2e8:	0200d74b 	andeq	sp, r0, #19660800	; 0x12c0000
     2ec:	82060104 	andhi	r0, r6, #4, 2
     2f0:	03060204 	movweq	r0, #25092	; 0x6204
     2f4:	0420084f 	strteq	r0, [r0], #-2127	; 0x84f
     2f8:	2e330301 	cdpcs	3, 3, cr0, cr3, cr1, {0}
     2fc:	0b03f44b 	bleq	fd430 <__bss_end__+0xf2eb8>
     300:	082f012e 	stmdaeq	pc!, {r1, r2, r3, r5, r8}	; <UNPREDICTABLE>
     304:	7fb1033f 	svcvc	0x00b1033f
     308:	00d30301 	sbcseq	r0, r3, r1, lsl #6
     30c:	7fae032e 	svcvc	0x00ae032e
     310:	03302c2e 	teqeq	r0, #11776	; 0x2e00
     314:	034a7eff 	movteq	r7, #44799	; 0xaeff
     318:	a24a01e7 	subge	r0, sl, #-1073741767	; 0xc0000039
     31c:	017f9603 	cmneq	pc, r3, lsl #12
     320:	8200fb03 	andhi	pc, r0, #3072	; 0xc00
     324:	034b4b31 	movteq	r4, #47921	; 0xbb31
     328:	71032e10 	tstvc	r3, r0, lsl lr
     32c:	4b674c4a 	blmi	19d345c <__bss_end__+0x19c8ee4>
     330:	03694e32 	cmneq	r9, #800	; 0x320
     334:	354d4a77 	strbcc	r4, [sp, #-2679]	; 0xa77
     338:	01000402 	tsteq	r0, r2, lsl #8
     33c:	00025701 	andeq	r5, r2, r1, lsl #14
     340:	3b000200 	blcc	b48 <__code_start__-0x74b8>
     344:	02000001 	andeq	r0, r0, #1
     348:	0d0efb01 	vstreq	d15, [lr, #-4]
     34c:	01010100 	mrseq	r0, (UNDEF: 17)
     350:	00000001 	andeq	r0, r0, r1
     354:	01000001 	tsteq	r0, r1
     358:	6573552f 	ldrbvs	r5, [r3, #-1327]!	; 0x52f
     35c:	622f7372 	eorvs	r7, pc, #-939524095	; 0xc8000001
     360:	6e616972 	mcrvs	9, 3, r6, cr1, cr2, {3}
     364:	2f6e756a 	svccs	0x006e756a
     368:	6b736544 	blvs	1cd9880 <__bss_end__+0x1ccf308>
     36c:	2f706f74 	svccs	0x00706f74
     370:	6f686373 	svcvs	0x00686373
     374:	532f6c6f 	teqpl	pc, #28416	; 0x6f00
     378:	6e697270 	mcrvs	2, 3, r7, cr9, cr0, {3}
     37c:	32393167 	eorscc	r3, r9, #-1073741799	; 0xc0000019
     380:	53432f30 	movtpl	r2, #16176	; 0x3f30
     384:	4c303432 	cfldrsmi	mvf3, [r0], #-200	; 0xffffff38
     388:	73632f58 	cmnvc	r3, #88, 30	; 0x160
     38c:	6c303432 	cfldrsvs	mvf3, [r0], #-200	; 0xffffff38
     390:	30322d78 	eorscc	r2, r2, r8, ror sp
     394:	2f727073 	svccs	0x00727073
     398:	7062696c 	rsbvc	r6, r2, ip, ror #18
     39c:	6e692f69 	cdpvs	15, 6, cr2, cr9, cr9, {3}
     3a0:	64756c63 	ldrbtvs	r6, [r5], #-3171	; 0xc63
     3a4:	752f0065 	strvc	r0, [pc, #-101]!	; 347 <__code_start__-0x7cb9>
     3a8:	6c2f7273 	sfmvs	f7, 4, [pc], #-460	; 1e4 <__code_start__-0x7e1c>
     3ac:	6c61636f 	stclvs	3, cr6, [r1], #-444	; 0xfffffe44
     3b0:	6c65432f 	stclvs	3, cr4, [r5], #-188	; 0xffffff44
     3b4:	2f72616c 	svccs	0x0072616c
     3b8:	2d6d7261 	sfmcs	f7, 2, [sp, #-388]!	; 0xfffffe7c
     3bc:	656e6f6e 	strbvs	r6, [lr, #-3950]!	; 0xf6e
     3c0:	6261652d 	rsbvs	r6, r1, #188743680	; 0xb400000
     3c4:	2e342f69 	cdpcs	15, 3, cr2, cr4, cr9, {3}
     3c8:	2d332e38 	ldccs	14, cr2, [r3, #-224]!	; 0xffffff20
     3cc:	37317363 	ldrcc	r7, [r1, -r3, ror #6]!
     3d0:	6c2f6530 	cfstr32vs	mvfx6, [pc], #-192	; 318 <__code_start__-0x7ce8>
     3d4:	672f6269 	strvs	r6, [pc, -r9, ror #4]!
     3d8:	612f6363 	teqvs	pc, r3, ror #6
     3dc:	6e2d6d72 	mcrvs	13, 1, r6, cr13, cr2, {3}
     3e0:	2d656e6f 	stclcs	14, cr6, [r5, #-444]!	; 0xfffffe44
     3e4:	69626165 	stmdbvs	r2!, {r0, r2, r5, r6, r8, sp, lr}^
     3e8:	382e342f 	stmdacc	lr!, {r0, r1, r2, r3, r5, sl, ip, sp}
     3ec:	692f332e 	stmdbvs	pc!, {r1, r2, r3, r5, r8, r9, ip, sp}	; <UNPREDICTABLE>
     3f0:	756c636e 	strbvc	r6, [ip, #-878]!	; 0x36e
     3f4:	00006564 	andeq	r6, r0, r4, ror #10
     3f8:	63656863 	cmnvs	r5, #6488064	; 0x630000
     3fc:	6e692d6b 	cdpvs	13, 6, cr2, cr9, cr11, {3}
     400:	6c726574 	cfldr64vs	mvdx6, [r2], #-464	; 0xfffffe30
     404:	65766165 	ldrbvs	r6, [r6, #-357]!	; 0x165
     408:	0000632e 	andeq	r6, r0, lr, lsr #6
     40c:	70630000 	rsbvc	r0, r3, r0
     410:	642d3431 	strtvs	r3, [sp], #-1073	; 0x431
     414:	67756265 	ldrbvs	r6, [r5, -r5, ror #4]!
     418:	0000682e 	andeq	r6, r0, lr, lsr #16
     41c:	70720000 	rsbsvc	r0, r2, r0
     420:	6e692d69 	cdpvs	13, 6, cr2, cr9, cr9, {3}
     424:	72726574 	rsbsvc	r6, r2, #116, 10	; 0x1d000000
     428:	73747075 	cmnvc	r4, #117	; 0x75
     42c:	0100682e 	tsteq	r0, lr, lsr #16
     430:	69620000 	stmdbvs	r2!, {}^	; <UNPREDICTABLE>
     434:	75732d74 	ldrbvc	r2, [r3, #-3444]!	; 0xd74
     438:	726f7070 	rsbvc	r7, pc, #112	; 0x70
     43c:	00682e74 	rsbeq	r2, r8, r4, ror lr
     440:	63000000 	movwvs	r0, #0
     444:	2d727370 	ldclcs	3, cr7, [r2, #-448]!	; 0xfffffe40
     448:	6c697475 	cfstrdvs	mvd7, [r9], #-468	; 0xfffffe2c
     44c:	0000682e 	andeq	r6, r0, lr, lsr #16
     450:	74730000 	ldrbtvc	r0, [r3], #-0
     454:	746e6964 	strbtvc	r6, [lr], #-2404	; 0x964
     458:	6363672d 	cmnvs	r3, #11796480	; 0xb40000
     45c:	0200682e 	andeq	r6, r0, #3014656	; 0x2e0000
     460:	68630000 	stmdavs	r3!, {}^	; <UNPREDICTABLE>
     464:	2d6b6365 	stclcs	3, cr6, [fp, #-404]!	; 0xfffffe6c
     468:	65746e69 	ldrbvs	r6, [r4, #-3689]!	; 0xe69
     46c:	61656c72 	smcvs	22210	; 0x56c2
     470:	682e6576 	stmdavs	lr!, {r1, r2, r4, r5, r6, r8, sl, sp, lr}
     474:	00000000 	andeq	r0, r0, r0
     478:	2e697072 	mcrcs	0, 3, r7, cr9, cr2, {3}
     47c:	00010068 	andeq	r0, r1, r8, rrx
     480:	05000000 	streq	r0, [r0, #-0]
     484:	00867802 	addeq	r7, r6, r2, lsl #16
     488:	010a0300 	mrseq	r0, (UNDEF: 58)
     48c:	04020067 	streq	r0, [r2], #-103	; 0x67
     490:	04820601 	streq	r0, [r2], #1537	; 0x601
     494:	9a030602 	bls	c1ca4 <__bss_end__+0xb772c>
     498:	0433ba01 	ldrteq	fp, [r3], #-2561	; 0xa01
     49c:	7ee20301 	cdpvc	3, 14, cr0, cr2, cr1, {0}
     4a0:	4dd84b2e 	vldrmi	d20, [r8, #184]	; 0xb8
     4a4:	4ba38383 	blmi	fe8e12b8 <__bss_end__+0xfe8d6d40>
     4a8:	4b674b2f 	blmi	19d316c <__bss_end__+0x19c8bf4>
     4ac:	02006830 	andeq	r6, r0, #48, 16	; 0x300000
     4b0:	82060104 	andhi	r0, r6, #4, 2
     4b4:	68210806 	stmdavs	r1!, {r1, r2, fp}
     4b8:	01040200 	mrseq	r0, R12_usr
     4bc:	bb068206 	bllt	1a0cdc <__bss_end__+0x196764>
     4c0:	04020067 	streq	r0, [r2], #-103	; 0x67
     4c4:	06820601 	streq	r0, [r2], r1, lsl #12
     4c8:	04ca08bb 	strbeq	r0, [sl], #2235	; 0x8bb
     4cc:	04046303 	streq	r6, [r4], #-771	; 0x303
     4d0:	03050431 	movweq	r0, #21553	; 0x5431
     4d4:	01042e6b 	tsteq	r4, fp, ror #28
     4d8:	4b2e1903 	blmi	b868ec <__bss_end__+0xb7c374>
     4dc:	682a844e 	stmdavs	sl!, {r1, r2, r3, r6, sl, pc}
     4e0:	01040200 	mrseq	r0, R12_usr
     4e4:	d8066606 	stmdale	r6, {r1, r2, r9, sl, sp, lr}
     4e8:	314b676a 	cmpcc	fp, sl, ror #14
     4ec:	9f696784 	svcls	0x00696784
     4f0:	68686984 	stmdavs	r8!, {r2, r7, r8, fp, sp, lr}^
     4f4:	51030404 	tstpl	r3, r4, lsl #8
     4f8:	03050482 	movweq	r0, #21634	; 0x5482
     4fc:	67652e6c 	strbvs	r2, [r5, -ip, ror #28]!
     500:	60082508 	andvs	r2, r8, r8, lsl #10
     504:	4b152802 	blmi	54a514 <__bss_end__+0x53ff9c>
     508:	4b4b4b4b 	blmi	12d323c <__bss_end__+0x12c8cc4>
     50c:	4bf27903 	blmi	ffc9e920 <__bss_end__+0xffc943a8>
     510:	38030104 	stmdacc	r3, {r2, r8}
     514:	0303042e 	movweq	r0, #13358	; 0x342e
     518:	04046655 	streq	r6, [r4], #-1621	; 0x655
     51c:	042e7803 	strteq	r7, [lr], #-2051	; 0x803
     520:	2e6c0305 	cdpcs	3, 6, cr0, cr12, cr5, {0}
     524:	25086765 	strcs	r6, [r8, #-1893]	; 0x765
     528:	28026008 	stmdacs	r2, {r3, sp, lr}
     52c:	4b4b4b15 	blmi	12d3188 <__bss_end__+0x12c8c10>
     530:	79034b4b 	stmdbvc	r3, {r0, r1, r3, r6, r8, r9, fp, lr}
     534:	03044bf2 	movweq	r4, #19442	; 0x4bf2
     538:	042e0d03 	strteq	r0, [lr], #-3331	; 0xd03
     53c:	2e2c0301 	cdpcs	3, 2, cr0, cr12, cr1, {0}
     540:	0304044c 	movweq	r0, #17484	; 0x444c
     544:	05044a4a 	streq	r4, [r4, #-2634]	; 0xa4a
     548:	652e6c03 	strvs	r6, [lr, #-3075]!	; 0xc03
     54c:	04250867 	strteq	r0, [r5], #-2151	; 0x867
     550:	08170303 	ldmdaeq	r7, {r0, r1, r8, r9}
     554:	03040458 	movweq	r0, #17496	; 0x4458
     558:	05042e78 	streq	r2, [r4, #-3704]	; 0xe78
     55c:	652e6c03 	strvs	r6, [lr, #-3075]!	; 0xc03
     560:	04250867 	strteq	r0, [r5], #-2151	; 0x867
     564:	00c70301 	sbceq	r0, r7, r1, lsl #6
     568:	02005808 	andeq	r5, r0, #8, 16	; 0x80000
     56c:	4a060104 	bmi	180984 <__bss_end__+0x17640c>
     570:	4c240806 	stcmi	8, cr0, [r4], #-24	; 0xffffffe8
     574:	173a022f 	ldrne	r0, [sl, -pc, lsr #4]!
     578:	4d011703 	stcmi	7, cr1, [r1, #-12]
     57c:	2d2d491a 	stccs	9, cr4, [sp, #-104]!	; 0xffffff98
     580:	2d2d2d2d 	stccs	13, cr2, [sp, #-180]!	; 0xffffff4c
     584:	4b4a0a03 	blmi	1282d98 <__bss_end__+0x1278820>
     588:	02004b2f 	andeq	r4, r0, #48128	; 0xbc00
     58c:	82060104 	andhi	r0, r6, #4, 2
     590:	029f0682 	addseq	r0, pc, #136314880	; 0x8200000
     594:	01010002 	tsteq	r1, r2
     598:	0000010c 	andeq	r0, r0, ip, lsl #2
     59c:	00f50002 	rscseq	r0, r5, r2
     5a0:	01020000 	mrseq	r0, (UNDEF: 2)
     5a4:	000d0efb 	strdeq	r0, [sp], -fp
     5a8:	01010101 	tsteq	r1, r1, lsl #2
     5ac:	01000000 	mrseq	r0, (UNDEF: 0)
     5b0:	6c010000 	stcvs	0, cr0, [r1], {-0}
     5b4:	00636269 	rsbeq	r6, r3, r9, ror #4
     5b8:	7273752f 	rsbsvc	r7, r3, #197132288	; 0xbc00000
     5bc:	636f6c2f 	cmnvs	pc, #12032	; 0x2f00
     5c0:	432f6c61 	teqmi	pc, #24832	; 0x6100
     5c4:	616c6c65 	cmnvs	ip, r5, ror #24
     5c8:	72612f72 	rsbvc	r2, r1, #456	; 0x1c8
     5cc:	6f6e2d6d 	svcvs	0x006e2d6d
     5d0:	652d656e 	strvs	r6, [sp, #-1390]!	; 0x56e
     5d4:	2f696261 	svccs	0x00696261
     5d8:	2e382e34 	mrccs	14, 1, r2, cr8, cr4, {1}
     5dc:	73632d33 	cmnvc	r3, #3264	; 0xcc0
     5e0:	65303731 	ldrvs	r3, [r0, #-1841]!	; 0x731
     5e4:	62696c2f 	rsbvs	r6, r9, #12032	; 0x2f00
     5e8:	6363672f 	cmnvs	r3, #12320768	; 0xbc0000
     5ec:	6d72612f 	ldfvse	f6, [r2, #-188]!	; 0xffffff44
     5f0:	6e6f6e2d 	cdpvs	14, 6, cr6, cr15, cr13, {1}
     5f4:	61652d65 	cmnvs	r5, r5, ror #26
     5f8:	342f6962 	strtcc	r6, [pc], #-2402	; 600 <__code_start__-0x7a00>
     5fc:	332e382e 	teqcc	lr, #3014656	; 0x2e0000
     600:	636e692f 	cmnvs	lr, #770048	; 0xbc000
     604:	6564756c 	strbvs	r7, [r4, #-1388]!	; 0x56c
     608:	73552f00 	cmpvc	r5, #0, 30
     60c:	2f737265 	svccs	0x00737265
     610:	61697262 	cmnvs	r9, r2, ror #4
     614:	6e756a6e 	vsubvs.f32	s13, s10, s29
     618:	7365442f 	cmnvc	r5, #788529152	; 0x2f000000
     61c:	706f746b 	rsbvc	r7, pc, fp, ror #8
     620:	6863732f 	stmdavs	r3!, {r0, r1, r2, r3, r5, r8, r9, ip, sp, lr}^
     624:	2f6c6f6f 	svccs	0x006c6f6f
     628:	69727053 	ldmdbvs	r2!, {r0, r1, r4, r6, ip, sp, lr}^
     62c:	3931676e 	ldmdbcc	r1!, {r1, r2, r3, r5, r6, r8, r9, sl, sp, lr}
     630:	432f3032 	teqmi	pc, #50	; 0x32
     634:	30343253 	eorscc	r3, r4, r3, asr r2
     638:	632f584c 	teqvs	pc, #76, 16	; 0x4c0000
     63c:	30343273 	eorscc	r3, r4, r3, ror r2
     640:	322d786c 	eorcc	r7, sp, #108, 16	; 0x6c0000
     644:	72707330 	rsbsvc	r7, r0, #48, 6	; 0xc0000000
     648:	62696c2f 	rsbvs	r6, r9, #12032	; 0x2f00
     64c:	692f6970 	stmdbvs	pc!, {r4, r5, r6, r8, fp, sp, lr}	; <UNPREDICTABLE>
     650:	756c636e 	strbvc	r6, [ip, #-878]!	; 0x36e
     654:	00006564 	andeq	r6, r0, r4, ror #10
     658:	6e697270 	mcrvs	2, 3, r7, cr9, cr0, {3}
     65c:	632e6b74 	teqvs	lr, #116, 22	; 0x1d000
     660:	00000100 	andeq	r0, r0, r0, lsl #2
     664:	61647473 	smcvs	18243	; 0x4743
     668:	682e6772 	stmdavs	lr!, {r1, r4, r5, r6, r8, r9, sl, sp, lr}
     66c:	00000200 	andeq	r0, r0, r0, lsl #4
     670:	6975623c 	ldmdbvs	r5!, {r2, r3, r4, r5, r9, sp, lr}^
     674:	692d746c 	pushvs	{r2, r3, r5, r6, sl, ip, sp, lr}
     678:	00003e6e 	andeq	r3, r0, lr, ror #28
     67c:	70720000 	rsbsvc	r0, r2, r0
     680:	00682e69 	rsbeq	r2, r8, r9, ror #28
     684:	76000003 	strvc	r0, [r0], -r3
     688:	72702d61 	rsbsvc	r2, r0, #6208	; 0x1840
     68c:	6b746e69 	blvs	1d1c038 <__bss_end__+0x1d11ac0>
     690:	0100682e 	tsteq	r0, lr, lsr #16
     694:	00000000 	andeq	r0, r0, r0
     698:	8d800205 	sfmhi	f0, 4, [r0, #20]
     69c:	6b170000 	blvs	5c06a4 <__bss_end__+0x5b612c>
     6a0:	0289bf4b 	addeq	fp, r9, #300	; 0x12c
     6a4:	0101000e 	tsteq	r1, lr
     6a8:	00000094 	muleq	r0, r4, r0
     6ac:	007c0002 	rsbseq	r0, ip, r2
     6b0:	01020000 	mrseq	r0, (UNDEF: 2)
     6b4:	000d0efb 	strdeq	r0, [sp], -fp
     6b8:	01010101 	tsteq	r1, r1, lsl #2
     6bc:	01000000 	mrseq	r0, (UNDEF: 0)
     6c0:	6c010000 	stcvs	0, cr0, [r1], {-0}
     6c4:	00636269 	rsbeq	r6, r3, r9, ror #4
     6c8:	6573552f 	ldrbvs	r5, [r3, #-1327]!	; 0x52f
     6cc:	622f7372 	eorvs	r7, pc, #-939524095	; 0xc8000001
     6d0:	6e616972 	mcrvs	9, 3, r6, cr1, cr2, {3}
     6d4:	2f6e756a 	svccs	0x006e756a
     6d8:	6b736544 	blvs	1cd9bf0 <__bss_end__+0x1ccf678>
     6dc:	2f706f74 	svccs	0x00706f74
     6e0:	6f686373 	svcvs	0x00686373
     6e4:	532f6c6f 	teqpl	pc, #28416	; 0x6f00
     6e8:	6e697270 	mcrvs	2, 3, r7, cr9, cr0, {3}
     6ec:	32393167 	eorscc	r3, r9, #-1073741799	; 0xc0000019
     6f0:	53432f30 	movtpl	r2, #16176	; 0x3f30
     6f4:	4c303432 	cfldrsmi	mvf3, [r0], #-200	; 0xffffff38
     6f8:	73632f58 	cmnvc	r3, #88, 30	; 0x160
     6fc:	6c303432 	cfldrsvs	mvf3, [r0], #-200	; 0xffffff38
     700:	30322d78 	eorscc	r2, r2, r8, ror sp
     704:	2f727073 	svccs	0x00727073
     708:	7062696c 	rsbvc	r6, r2, ip, ror #18
     70c:	6e692f69 	cdpvs	15, 6, cr2, cr9, cr9, {3}
     710:	64756c63 	ldrbtvs	r6, [r5], #-3171	; 0xc63
     714:	70000065 	andvc	r0, r0, r5, rrx
     718:	68637475 	stmdavs	r3!, {r0, r2, r4, r5, r6, sl, ip, sp, lr}^
     71c:	632e7261 	teqvs	lr, #268435462	; 0x10000006
     720:	00000100 	andeq	r0, r0, r0, lsl #2
     724:	2e697072 	mcrcs	0, 3, r7, cr9, cr2, {3}
     728:	00020068 	andeq	r0, r2, r8, rrx
     72c:	05000000 	streq	r0, [r0, #-0]
     730:	008dd802 	addeq	sp, sp, r2, lsl #16
     734:	6b4a1400 	blvs	128573c <__bss_end__+0x127b1c4>
     738:	0213bc13 	andseq	fp, r3, #4864	; 0x1300
     73c:	01010008 	tsteq	r1, r8
     740:	000000a0 	andeq	r0, r0, r0, lsr #1
     744:	00790002 	rsbseq	r0, r9, r2
     748:	01020000 	mrseq	r0, (UNDEF: 2)
     74c:	000d0efb 	strdeq	r0, [sp], -fp
     750:	01010101 	tsteq	r1, r1, lsl #2
     754:	01000000 	mrseq	r0, (UNDEF: 0)
     758:	6c010000 	stcvs	0, cr0, [r1], {-0}
     75c:	00636269 	rsbeq	r6, r3, r9, ror #4
     760:	6573552f 	ldrbvs	r5, [r3, #-1327]!	; 0x52f
     764:	622f7372 	eorvs	r7, pc, #-939524095	; 0xc8000001
     768:	6e616972 	mcrvs	9, 3, r6, cr1, cr2, {3}
     76c:	2f6e756a 	svccs	0x006e756a
     770:	6b736544 	blvs	1cd9c88 <__bss_end__+0x1ccf710>
     774:	2f706f74 	svccs	0x00706f74
     778:	6f686373 	svcvs	0x00686373
     77c:	532f6c6f 	teqpl	pc, #28416	; 0x6f00
     780:	6e697270 	mcrvs	2, 3, r7, cr9, cr0, {3}
     784:	32393167 	eorscc	r3, r9, #-1073741799	; 0xc0000019
     788:	53432f30 	movtpl	r2, #16176	; 0x3f30
     78c:	4c303432 	cfldrsmi	mvf3, [r0], #-200	; 0xffffff38
     790:	73632f58 	cmnvc	r3, #88, 30	; 0x160
     794:	6c303432 	cfldrsvs	mvf3, [r0], #-200	; 0xffffff38
     798:	30322d78 	eorscc	r2, r2, r8, ror sp
     79c:	2f727073 	svccs	0x00727073
     7a0:	7062696c 	rsbvc	r6, r2, ip, ror #18
     7a4:	6e692f69 	cdpvs	15, 6, cr2, cr9, cr9, {3}
     7a8:	64756c63 	ldrbtvs	r6, [r5], #-3171	; 0xc63
     7ac:	70000065 	andvc	r0, r0, r5, rrx
     7b0:	2e6b7475 	mcrcs	4, 3, r7, cr11, cr5, {3}
     7b4:	00010063 	andeq	r0, r1, r3, rrx
     7b8:	69707200 	ldmdbvs	r0!, {r9, ip, sp, lr}^
     7bc:	0200682e 	andeq	r6, r0, #3014656	; 0x2e0000
     7c0:	00000000 	andeq	r0, r0, r0
     7c4:	8e140205 	cdphi	2, 1, cr0, cr4, cr5, {0}
     7c8:	4c150000 	ldcmi	0, cr0, [r5], {-0}
     7cc:	0402002d 	streq	r0, [r2], #-45	; 0x2d
     7d0:	02002f02 	andeq	r2, r0, #2, 30
     7d4:	00490204 	subeq	r0, r9, r4, lsl #4
     7d8:	06010402 	streq	r0, [r1], -r2, lsl #8
     7dc:	026b062e 	rsbeq	r0, fp, #48234496	; 0x2e00000
     7e0:	01010006 	tsteq	r1, r6
     7e4:	000001f1 	strdeq	r0, [r0], -r1
     7e8:	00e90002 	rsceq	r0, r9, r2
     7ec:	01020000 	mrseq	r0, (UNDEF: 2)
     7f0:	000d0efb 	strdeq	r0, [sp], -fp
     7f4:	01010101 	tsteq	r1, r1, lsl #2
     7f8:	01000000 	mrseq	r0, (UNDEF: 0)
     7fc:	6c010000 	stcvs	0, cr0, [r1], {-0}
     800:	00636269 	rsbeq	r6, r3, r9, ror #4
     804:	7273752f 	rsbsvc	r7, r3, #197132288	; 0xbc00000
     808:	636f6c2f 	cmnvs	pc, #12032	; 0x2f00
     80c:	432f6c61 	teqmi	pc, #24832	; 0x6100
     810:	616c6c65 	cmnvs	ip, r5, ror #24
     814:	72612f72 	rsbvc	r2, r1, #456	; 0x1c8
     818:	6f6e2d6d 	svcvs	0x006e2d6d
     81c:	652d656e 	strvs	r6, [sp, #-1390]!	; 0x56e
     820:	2f696261 	svccs	0x00696261
     824:	2e382e34 	mrccs	14, 1, r2, cr8, cr4, {1}
     828:	73632d33 	cmnvc	r3, #3264	; 0xcc0
     82c:	65303731 	ldrvs	r3, [r0, #-1841]!	; 0x731
     830:	62696c2f 	rsbvs	r6, r9, #12032	; 0x2f00
     834:	6363672f 	cmnvs	r3, #12320768	; 0xbc0000
     838:	6d72612f 	ldfvse	f6, [r2, #-188]!	; 0xffffff44
     83c:	6e6f6e2d 	cdpvs	14, 6, cr6, cr15, cr13, {1}
     840:	61652d65 	cmnvs	r5, r5, ror #26
     844:	342f6962 	strtcc	r6, [pc], #-2402	; 84c <__code_start__-0x77b4>
     848:	332e382e 	teqcc	lr, #3014656	; 0x2e0000
     84c:	636e692f 	cmnvs	lr, #770048	; 0xbc000
     850:	6564756c 	strbvs	r7, [r4, #-1388]!	; 0x56c
     854:	73552f00 	cmpvc	r5, #0, 30
     858:	2f737265 	svccs	0x00737265
     85c:	61697262 	cmnvs	r9, r2, ror #4
     860:	6e756a6e 	vsubvs.f32	s13, s10, s29
     864:	7365442f 	cmnvc	r5, #788529152	; 0x2f000000
     868:	706f746b 	rsbvc	r7, pc, fp, ror #8
     86c:	6863732f 	stmdavs	r3!, {r0, r1, r2, r3, r5, r8, r9, ip, sp, lr}^
     870:	2f6c6f6f 	svccs	0x006c6f6f
     874:	69727053 	ldmdbvs	r2!, {r0, r1, r4, r6, ip, sp, lr}^
     878:	3931676e 	ldmdbcc	r1!, {r1, r2, r3, r5, r6, r8, r9, sl, sp, lr}
     87c:	432f3032 	teqmi	pc, #50	; 0x32
     880:	30343253 	eorscc	r3, r4, r3, asr r2
     884:	632f584c 	teqvs	pc, #76, 16	; 0x4c0000
     888:	30343273 	eorscc	r3, r4, r3, ror r2
     88c:	322d786c 	eorcc	r7, sp, #108, 16	; 0x6c0000
     890:	72707330 	rsbsvc	r7, r0, #48, 6	; 0xc0000000
     894:	62696c2f 	rsbvs	r6, r9, #12032	; 0x2f00
     898:	692f6970 	stmdbvs	pc!, {r4, r5, r6, r8, fp, sp, lr}	; <UNPREDICTABLE>
     89c:	756c636e 	strbvc	r6, [ip, #-878]!	; 0x36e
     8a0:	00006564 	andeq	r6, r0, r4, ror #10
     8a4:	702d6176 	eorvc	r6, sp, r6, ror r1
     8a8:	746e6972 	strbtvc	r6, [lr], #-2418	; 0x972
     8ac:	00632e6b 	rsbeq	r2, r3, fp, ror #28
     8b0:	73000001 	movwvc	r0, #1
     8b4:	72616474 	rsbvc	r6, r1, #116, 8	; 0x74000000
     8b8:	00682e67 	rsbeq	r2, r8, r7, ror #28
     8bc:	72000002 	andvc	r0, r0, #2
     8c0:	682e6970 	stmdavs	lr!, {r4, r5, r6, r8, fp, sp, lr}
     8c4:	00000300 	andeq	r0, r0, r0, lsl #6
     8c8:	6975623c 	ldmdbvs	r5!, {r2, r3, r4, r5, r9, sp, lr}^
     8cc:	692d746c 	pushvs	{r2, r3, r5, r6, sl, ip, sp, lr}
     8d0:	00003e6e 	andeq	r3, r0, lr, ror #28
     8d4:	00000000 	andeq	r0, r0, r0
     8d8:	8e480205 	cdphi	2, 4, cr0, cr8, cr5, {0}
     8dc:	26030000 	strcs	r0, [r3], -r0
     8e0:	13a50101 			; <UNDEFINED> instruction: 0x13a50101
     8e4:	02002d31 	andeq	r2, r0, #3136	; 0xc40
     8e8:	002f0204 	eoreq	r0, pc, r4, lsl #4
     8ec:	2d020402 	cfstrscs	mvf0, [r2, #-8]
     8f0:	02040200 	andeq	r0, r4, #0, 4
     8f4:	0402002f 	streq	r0, [r2], #-47	; 0x2f
     8f8:	4c4c2d01 	mcrrmi	13, 0, r2, ip, cr1
     8fc:	2f4b1430 	svccs	0x004b1430
     900:	0402004f 	streq	r0, [r2], #-79	; 0x4f
     904:	02006702 	andeq	r6, r0, #524288	; 0x80000
     908:	4c650104 	stfmie	f0, [r5], #-16
     90c:	2fa0304d 	svccs	0x00a0304d
     910:	26023031 			; <UNDEFINED> instruction: 0x26023031
     914:	2c2d8416 	cfstrscs	mvf8, [sp], #-88	; 0xffffffa8
     918:	01040200 	mrseq	r0, R12_usr
     91c:	04020030 	streq	r0, [r2], #-48	; 0x30
     920:	66063301 	strvs	r3, [r6], -r1, lsl #6
     924:	01040200 	mrseq	r0, R12_usr
     928:	0402002e 	streq	r0, [r2], #-46	; 0x2e
     92c:	21080601 	tstcs	r8, r1, lsl #12
     930:	73032f67 	movwvc	r2, #16231	; 0x3f67
     934:	2e130382 	cdpcs	3, 1, cr0, cr3, cr2, {4}
     938:	01040200 	mrseq	r0, R12_usr
     93c:	02006606 	andeq	r6, r0, #6291456	; 0x600000
     940:	83060104 	movwhi	r0, #24836	; 0x6104
     944:	31674b4b 	cmncc	r7, fp, asr #22
     948:	2e65034b 	cdpcs	3, 6, cr0, cr5, cr11, {2}
     94c:	002e2303 	eoreq	r2, lr, r3, lsl #6
     950:	06010402 	streq	r0, [r1], -r2, lsl #8
     954:	0402002e 	streq	r0, [r2], #-46	; 0x2e
     958:	009f0601 	addseq	r0, pc, r1, lsl #12
     95c:	6a010402 	bvs	4196c <__bss_end__+0x373f4>
     960:	03d72308 	bicseq	r2, r7, #8, 6	; 0x20000000
     964:	3c087fa4 	stccc	15, cr7, [r8], {164}	; 0xa4
     968:	0402004b 	streq	r0, [r2], #-75	; 0x4b
     96c:	064a0601 	strbeq	r0, [sl], -r1, lsl #12
     970:	2f4b2108 	svccs	0x004b2108
     974:	00db034b 	sbcseq	r0, fp, fp, asr #6
     978:	484c9ff2 	stmdami	ip, {r1, r4, r5, r6, r7, r8, r9, sl, fp, ip, pc}^
     97c:	842f4b32 	strthi	r4, [pc], #-2866	; 984 <__code_start__-0x767c>
     980:	4d2d2f4b 	stcmi	15, cr2, [sp, #-300]!	; 0xfffffed4
     984:	832f3031 	teqhi	pc, #49	; 0x31
     988:	01040200 	mrseq	r0, R12_usr
     98c:	0200be2c 	andeq	fp, r0, #44, 28	; 0x2c0
     990:	4a060104 	bmi	180da8 <__bss_end__+0x176830>
     994:	02220806 	eoreq	r0, r2, #393216	; 0x60000
     998:	0e031636 	mcreq	6, 0, r1, cr3, cr6, {1}
     99c:	302108d6 	ldrdcc	r0, [r1], -r6	; <UNPREDICTABLE>
     9a0:	08312108 	ldmdaeq	r1!, {r3, r8, sp}
     9a4:	21083021 	tstcs	r8, r1, lsr #32
     9a8:	08304b30 	ldmdaeq	r0!, {r4, r5, r8, r9, fp, lr}
     9ac:	834b3021 	movthi	r3, #45089	; 0xb021
     9b0:	2f31d983 	svccs	0x0031d983
     9b4:	01040200 	mrseq	r0, R12_usr
     9b8:	04020065 	streq	r0, [r2], #-101	; 0x65
     9bc:	004a0602 	subeq	r0, sl, r2, lsl #12
     9c0:	06010402 	streq	r0, [r1], -r2, lsl #8
     9c4:	667fbf03 	ldrbtvs	fp, [pc], -r3, lsl #30
     9c8:	02040200 	andeq	r0, r4, #0, 4
     9cc:	03066606 	movweq	r6, #26118	; 0x6606
     9d0:	684a00c5 	stmdavs	sl, {r0, r2, r6, r7}^
     9d4:	01001602 	tsteq	r0, r2, lsl #12
     9d8:	00004201 	andeq	r4, r0, r1, lsl #4
     9dc:	28000200 	stmdacs	r0, {r9}
     9e0:	02000000 	andeq	r0, r0, #0
     9e4:	0d0efb01 	vstreq	d15, [lr, #-4]
     9e8:	01010100 	mrseq	r0, (UNDEF: 17)
     9ec:	00000001 	andeq	r0, r0, r1
     9f0:	01000001 	tsteq	r0, r1
     9f4:	66617473 			; <UNDEFINED> instruction: 0x66617473
     9f8:	72732d66 	rsbsvc	r2, r3, #6528	; 0x1980
     9fc:	63000063 	movwvs	r0, #99	; 0x63
     a00:	65686361 	strbvs	r6, [r8, #-865]!	; 0x361
     a04:	0100632e 	tsteq	r0, lr, lsr #6
     a08:	00000000 	andeq	r0, r0, r0
     a0c:	93c00205 	bicls	r0, r0, #1342177280	; 0x50000000
     a10:	14140000 	ldrne	r0, [r4], #-0
     a14:	144e2f30 	strbne	r2, [lr], #-3888	; 0xf30
     a18:	04022f31 	streq	r2, [r2], #-3889	; 0xf31
     a1c:	9d010100 	stflss	f0, [r1, #-0]
     a20:	02000000 	andeq	r0, r0, #0
     a24:	00008600 	andeq	r8, r0, r0, lsl #12
     a28:	fb010200 	blx	41232 <__bss_end__+0x36cba>
     a2c:	01000d0e 	tsteq	r0, lr, lsl #26
     a30:	00010101 	andeq	r0, r1, r1, lsl #2
     a34:	00010000 	andeq	r0, r1, r0
     a38:	74730100 	ldrbtvc	r0, [r3], #-256	; 0x100
     a3c:	2d666661 	stclcs	6, cr6, [r6, #-388]!	; 0xfffffe7c
     a40:	00637273 	rsbeq	r7, r3, r3, ror r2
     a44:	6573552f 	ldrbvs	r5, [r3, #-1327]!	; 0x52f
     a48:	622f7372 	eorvs	r7, pc, #-939524095	; 0xc8000001
     a4c:	6e616972 	mcrvs	9, 3, r6, cr1, cr2, {3}
     a50:	2f6e756a 	svccs	0x006e756a
     a54:	6b736544 	blvs	1cd9f6c <__bss_end__+0x1ccf9f4>
     a58:	2f706f74 	svccs	0x00706f74
     a5c:	6f686373 	svcvs	0x00686373
     a60:	532f6c6f 	teqpl	pc, #28416	; 0x6f00
     a64:	6e697270 	mcrvs	2, 3, r7, cr9, cr0, {3}
     a68:	32393167 	eorscc	r3, r9, #-1073741799	; 0xc0000019
     a6c:	53432f30 	movtpl	r2, #16176	; 0x3f30
     a70:	4c303432 	cfldrsmi	mvf3, [r0], #-200	; 0xffffff38
     a74:	73632f58 	cmnvc	r3, #88, 30	; 0x160
     a78:	6c303432 	cfldrsvs	mvf3, [r0], #-200	; 0xffffff38
     a7c:	30322d78 	eorscc	r2, r2, r8, ror sp
     a80:	2f727073 	svccs	0x00727073
     a84:	7062696c 	rsbvc	r6, r2, ip, ror #18
     a88:	6e692f69 	cdpvs	15, 6, cr2, cr9, cr9, {3}
     a8c:	64756c63 	ldrbtvs	r6, [r5], #-3171	; 0xc63
     a90:	63000065 	movwvs	r0, #101	; 0x65
     a94:	6e61656c 	cdpvs	5, 6, cr6, cr1, cr12, {3}
     a98:	6265722d 	rsbvs	r7, r5, #-805306366	; 0xd0000002
     a9c:	2e746f6f 	cdpcs	15, 7, cr6, cr4, cr15, {3}
     aa0:	00010063 	andeq	r0, r1, r3, rrx
     aa4:	69707200 	ldmdbvs	r0!, {r9, ip, sp, lr}^
     aa8:	0200682e 	andeq	r6, r0, #3014656	; 0x2e0000
     aac:	00000000 	andeq	r0, r0, r0
     ab0:	93e00205 	mvnls	r0, #1342177280	; 0x50000000
     ab4:	2f150000 	svccs	0x00150000
     ab8:	024b832f 	subeq	r8, fp, #-1140850688	; 0xbc000000
     abc:	01010006 	tsteq	r1, r6
     ac0:	000000a6 	andeq	r0, r0, r6, lsr #1
     ac4:	00800002 	addeq	r0, r0, r2
     ac8:	01020000 	mrseq	r0, (UNDEF: 2)
     acc:	000d0efb 	strdeq	r0, [sp], -fp
     ad0:	01010101 	tsteq	r1, r1, lsl #2
     ad4:	01000000 	mrseq	r0, (UNDEF: 0)
     ad8:	73010000 	movwvc	r0, #4096	; 0x1000
     adc:	66666174 			; <UNDEFINED> instruction: 0x66666174
     ae0:	6372732d 	cmnvs	r2, #-1275068416	; 0xb4000000
     ae4:	73552f00 	cmpvc	r5, #0, 30
     ae8:	2f737265 	svccs	0x00737265
     aec:	61697262 	cmnvs	r9, r2, ror #4
     af0:	6e756a6e 	vsubvs.f32	s13, s10, s29
     af4:	7365442f 	cmnvc	r5, #788529152	; 0x2f000000
     af8:	706f746b 	rsbvc	r7, pc, fp, ror #8
     afc:	6863732f 	stmdavs	r3!, {r0, r1, r2, r3, r5, r8, r9, ip, sp, lr}^
     b00:	2f6c6f6f 	svccs	0x006c6f6f
     b04:	69727053 	ldmdbvs	r2!, {r0, r1, r4, r6, ip, sp, lr}^
     b08:	3931676e 	ldmdbcc	r1!, {r1, r2, r3, r5, r6, r8, r9, sl, sp, lr}
     b0c:	432f3032 	teqmi	pc, #50	; 0x32
     b10:	30343253 	eorscc	r3, r4, r3, asr r2
     b14:	632f584c 	teqvs	pc, #76, 16	; 0x4c0000
     b18:	30343273 	eorscc	r3, r4, r3, ror r2
     b1c:	322d786c 	eorcc	r7, sp, #108, 16	; 0x6c0000
     b20:	72707330 	rsbsvc	r7, r0, #48, 6	; 0xc0000000
     b24:	62696c2f 	rsbvs	r6, r9, #12032	; 0x2f00
     b28:	692f6970 	stmdbvs	pc!, {r4, r5, r6, r8, fp, sp, lr}	; <UNPREDICTABLE>
     b2c:	756c636e 	strbvc	r6, [ip, #-878]!	; 0x36e
     b30:	00006564 	andeq	r6, r0, r4, ror #10
     b34:	61747363 	cmnvs	r4, r3, ror #6
     b38:	632e7472 	teqvs	lr, #1912602624	; 0x72000000
     b3c:	00000100 	andeq	r0, r0, r0, lsl #2
     b40:	2e697072 	mcrcs	0, 3, r7, cr9, cr2, {3}
     b44:	00020068 	andeq	r0, r2, r8, rrx
     b48:	05000000 	streq	r0, [r0, #-0]
     b4c:	00940c02 	addseq	r0, r4, r2, lsl #24
     b50:	010c0300 	mrseq	r0, LR_mon
     b54:	2d2f3132 	stfcss	f3, [pc, #-200]!	; a94 <__code_start__-0x756c>
     b58:	0402002f 	streq	r0, [r2], #-47	; 0x2f
     b5c:	09034901 	stmdbeq	r3, {r0, r8, fp, lr}
     b60:	2e0d034a 	cdpcs	3, 0, cr0, cr13, cr10, {2}
     b64:	0006022f 	andeq	r0, r6, pc, lsr #4
     b68:	00a20101 	adceq	r0, r2, r1, lsl #2
     b6c:	00020000 	andeq	r0, r2, r0
     b70:	0000008e 	andeq	r0, r0, lr, lsl #1
     b74:	0efb0102 	cdpeq	1, 15, cr0, cr11, cr2, {0}
     b78:	0101000d 	tsteq	r1, sp
     b7c:	00000101 	andeq	r0, r0, r1, lsl #2
     b80:	00000100 	andeq	r0, r0, r0, lsl #2
     b84:	61747301 	cmnvs	r4, r1, lsl #6
     b88:	732d6666 	teqvc	sp, #106954752	; 0x6600000
     b8c:	2f006372 	svccs	0x00006372
     b90:	72657355 	rsbvc	r7, r5, #1409286145	; 0x54000001
     b94:	72622f73 	rsbvc	r2, r2, #460	; 0x1cc
     b98:	6a6e6169 	bvs	1b99144 <__bss_end__+0x1b8ebcc>
     b9c:	442f6e75 	strtmi	r6, [pc], #-3701	; ba4 <__code_start__-0x745c>
     ba0:	746b7365 	strbtvc	r7, [fp], #-869	; 0x365
     ba4:	732f706f 	teqvc	pc, #111	; 0x6f
     ba8:	6f6f6863 	svcvs	0x006f6863
     bac:	70532f6c 	subsvc	r2, r3, ip, ror #30
     bb0:	676e6972 			; <UNDEFINED> instruction: 0x676e6972
     bb4:	30323931 	eorscc	r3, r2, r1, lsr r9
     bb8:	3253432f 	subscc	r4, r3, #-1140850688	; 0xbc000000
     bbc:	584c3034 	stmdapl	ip, {r2, r4, r5, ip, sp}^
     bc0:	3273632f 	rsbscc	r6, r3, #-1140850688	; 0xbc000000
     bc4:	786c3034 	stmdavc	ip!, {r2, r4, r5, ip, sp}^
     bc8:	7330322d 	teqvc	r0, #-805306366	; 0xd0000002
     bcc:	6c2f7270 	sfmvs	f7, 4, [pc], #-448	; a14 <__code_start__-0x75ec>
     bd0:	69706269 	ldmdbvs	r0!, {r0, r3, r5, r6, r9, sp, lr}^
     bd4:	636e692f 	cmnvs	lr, #770048	; 0xbc000
     bd8:	6564756c 	strbvs	r7, [r4, #-1388]!	; 0x56c
     bdc:	65640000 	strbvs	r0, [r4, #-0]!
     be0:	6c756166 	ldfvse	f6, [r5], #-408	; 0xfffffe68
     be4:	61682d74 	smcvs	33492	; 0x82d4
     be8:	656c646e 	strbvs	r6, [ip, #-1134]!	; 0x46e
     bec:	61662d72 	smcvs	25298	; 0x62d2
     bf0:	632e7473 	teqvs	lr, #1929379840	; 0x73000000
     bf4:	00000100 	andeq	r0, r0, r0, lsl #2
     bf8:	2e697072 	mcrcs	0, 3, r7, cr9, cr2, {3}
     bfc:	00020068 	andeq	r0, r2, r8, rrx
     c00:	05000000 	streq	r0, [r0, #-0]
     c04:	00944402 	addseq	r4, r4, r2, lsl #8
     c08:	02661300 	rsbeq	r1, r6, #0, 6
     c0c:	0101001c 	tsteq	r1, ip, lsl r0
     c10:	000000a3 	andeq	r0, r0, r3, lsr #1
     c14:	008f0002 	addeq	r0, pc, r2
     c18:	01020000 	mrseq	r0, (UNDEF: 2)
     c1c:	000d0efb 	strdeq	r0, [sp], -fp
     c20:	01010101 	tsteq	r1, r1, lsl #2
     c24:	01000000 	mrseq	r0, (UNDEF: 0)
     c28:	73010000 	movwvc	r0, #4096	; 0x1000
     c2c:	66666174 			; <UNDEFINED> instruction: 0x66666174
     c30:	6372732d 	cmnvs	r2, #-1275068416	; 0xb4000000
     c34:	73552f00 	cmpvc	r5, #0, 30
     c38:	2f737265 	svccs	0x00737265
     c3c:	61697262 	cmnvs	r9, r2, ror #4
     c40:	6e756a6e 	vsubvs.f32	s13, s10, s29
     c44:	7365442f 	cmnvc	r5, #788529152	; 0x2f000000
     c48:	706f746b 	rsbvc	r7, pc, fp, ror #8
     c4c:	6863732f 	stmdavs	r3!, {r0, r1, r2, r3, r5, r8, r9, ip, sp, lr}^
     c50:	2f6c6f6f 	svccs	0x006c6f6f
     c54:	69727053 	ldmdbvs	r2!, {r0, r1, r4, r6, ip, sp, lr}^
     c58:	3931676e 	ldmdbcc	r1!, {r1, r2, r3, r5, r6, r8, r9, sl, sp, lr}
     c5c:	432f3032 	teqmi	pc, #50	; 0x32
     c60:	30343253 	eorscc	r3, r4, r3, asr r2
     c64:	632f584c 	teqvs	pc, #76, 16	; 0x4c0000
     c68:	30343273 	eorscc	r3, r4, r3, ror r2
     c6c:	322d786c 	eorcc	r7, sp, #108, 16	; 0x6c0000
     c70:	72707330 	rsbsvc	r7, r0, #48, 6	; 0xc0000000
     c74:	62696c2f 	rsbvs	r6, r9, #12032	; 0x2f00
     c78:	692f6970 	stmdbvs	pc!, {r4, r5, r6, r8, fp, sp, lr}	; <UNPREDICTABLE>
     c7c:	756c636e 	strbvc	r6, [ip, #-878]!	; 0x36e
     c80:	00006564 	andeq	r6, r0, r4, ror #10
     c84:	61666564 	cmnvs	r6, r4, ror #10
     c88:	2d746c75 	ldclcs	12, cr6, [r4, #-468]!	; 0xfffffe2c
     c8c:	646e6168 	strbtvs	r6, [lr], #-360	; 0x168
     c90:	2d72656c 	cfldr64cs	mvdx6, [r2, #-432]!	; 0xfffffe50
     c94:	65736572 	ldrbvs	r6, [r3, #-1394]!	; 0x572
     c98:	00632e74 	rsbeq	r2, r3, r4, ror lr
     c9c:	72000001 	andvc	r0, r0, #1
     ca0:	682e6970 	stmdavs	lr!, {r4, r5, r6, r8, fp, sp, lr}
     ca4:	00000200 	andeq	r0, r0, r0, lsl #4
     ca8:	02050000 	andeq	r0, r5, #0
     cac:	00009488 	andeq	r9, r0, r8, lsl #9
     cb0:	1c026613 	stcne	6, cr6, [r2], {19}
     cb4:	ac010100 	stfges	f0, [r1], {-0}
     cb8:	02000000 	andeq	r0, r0, #0
     cbc:	00009800 	andeq	r9, r0, r0, lsl #16
     cc0:	fb010200 	blx	414ca <__bss_end__+0x36f52>
     cc4:	01000d0e 	tsteq	r0, lr, lsl #26
     cc8:	00010101 	andeq	r0, r1, r1, lsl #2
     ccc:	00010000 	andeq	r0, r1, r0
     cd0:	74730100 	ldrbtvc	r0, [r3], #-256	; 0x100
     cd4:	2d666661 	stclcs	6, cr6, [r6, #-388]!	; 0xfffffe7c
     cd8:	00637273 	rsbeq	r7, r3, r3, ror r2
     cdc:	6573552f 	ldrbvs	r5, [r3, #-1327]!	; 0x52f
     ce0:	622f7372 	eorvs	r7, pc, #-939524095	; 0xc8000001
     ce4:	6e616972 	mcrvs	9, 3, r6, cr1, cr2, {3}
     ce8:	2f6e756a 	svccs	0x006e756a
     cec:	6b736544 	blvs	1cda204 <__bss_end__+0x1ccfc8c>
     cf0:	2f706f74 	svccs	0x00706f74
     cf4:	6f686373 	svcvs	0x00686373
     cf8:	532f6c6f 	teqpl	pc, #28416	; 0x6f00
     cfc:	6e697270 	mcrvs	2, 3, r7, cr9, cr0, {3}
     d00:	32393167 	eorscc	r3, r9, #-1073741799	; 0xc0000019
     d04:	53432f30 	movtpl	r2, #16176	; 0x3f30
     d08:	4c303432 	cfldrsmi	mvf3, [r0], #-200	; 0xffffff38
     d0c:	73632f58 	cmnvc	r3, #88, 30	; 0x160
     d10:	6c303432 	cfldrsvs	mvf3, [r0], #-200	; 0xffffff38
     d14:	30322d78 	eorscc	r2, r2, r8, ror sp
     d18:	2f727073 	svccs	0x00727073
     d1c:	7062696c 	rsbvc	r6, r2, ip, ror #18
     d20:	6e692f69 	cdpvs	15, 6, cr2, cr9, cr9, {3}
     d24:	64756c63 	ldrbtvs	r6, [r5], #-3171	; 0xc63
     d28:	64000065 	strvs	r0, [r0], #-101	; 0x65
     d2c:	75616665 	strbvc	r6, [r1, #-1637]!	; 0x665
     d30:	682d746c 	stmdavs	sp!, {r2, r3, r5, r6, sl, ip, sp, lr}
     d34:	6c646e61 	stclvs	14, cr6, [r4], #-388	; 0xfffffe7c
     d38:	752d7265 	strvc	r7, [sp, #-613]!	; 0x265
     d3c:	6665646e 	strbtvs	r6, [r5], -lr, ror #8
     d40:	64656e69 	strbtvs	r6, [r5], #-3689	; 0xe69
     d44:	736e692d 	cmnvc	lr, #737280	; 0xb4000
     d48:	00632e74 	rsbeq	r2, r3, r4, ror lr
     d4c:	72000001 	andvc	r0, r0, #1
     d50:	682e6970 	stmdavs	lr!, {r4, r5, r6, r8, fp, sp, lr}
     d54:	00000200 	andeq	r0, r0, r0, lsl #4
     d58:	02050000 	andeq	r0, r5, #0
     d5c:	000094cc 	andeq	r9, r0, ip, asr #9
     d60:	1c026613 	stcne	6, cr6, [r2], {19}
     d64:	47010100 	strmi	r0, [r1, -r0, lsl #2]
     d68:	02000000 	andeq	r0, r0, #0
     d6c:	00003300 	andeq	r3, r0, r0, lsl #6
     d70:	fb010200 	blx	4157a <__bss_end__+0x37002>
     d74:	01000d0e 	tsteq	r0, lr, lsl #26
     d78:	00010101 	andeq	r0, r1, r1, lsl #2
     d7c:	00010000 	andeq	r0, r1, r0
     d80:	74730100 	ldrbtvc	r0, [r3], #-256	; 0x100
     d84:	2d666661 	stclcs	6, cr6, [r6, #-388]!	; 0xfffffe7c
     d88:	00637273 	rsbeq	r7, r3, r3, ror r2
     d8c:	66656400 	strbtvs	r6, [r5], -r0, lsl #8
     d90:	746c7561 	strbtvc	r7, [ip], #-1377	; 0x561
     d94:	6e61682d 	cdpvs	8, 6, cr6, cr1, cr13, {1}
     d98:	72656c64 	rsbvc	r6, r5, #100, 24	; 0x6400
     d9c:	00632e73 	rsbeq	r2, r3, r3, ror lr
     da0:	00000001 	andeq	r0, r0, r1
     da4:	10020500 	andne	r0, r2, r0, lsl #10
     da8:	15000095 	strne	r0, [r0, #-149]	; 0x95
     dac:	0002022f 	andeq	r0, r2, pc, lsr #4
     db0:	00c90101 	sbceq	r0, r9, r1, lsl #2
     db4:	00020000 	andeq	r0, r2, r0
     db8:	0000009a 	muleq	r0, sl, r0
     dbc:	0efb0102 	cdpeq	1, 15, cr0, cr11, cr2, {0}
     dc0:	0101000d 	tsteq	r1, sp
     dc4:	00000101 	andeq	r0, r0, r1, lsl #2
     dc8:	00000100 	andeq	r0, r0, r0, lsl #2
     dcc:	61747301 	cmnvs	r4, r1, lsl #6
     dd0:	732d6666 	teqvc	sp, #106954752	; 0x6600000
     dd4:	2f006372 	svccs	0x00006372
     dd8:	72657355 	rsbvc	r7, r5, #1409286145	; 0x54000001
     ddc:	72622f73 	rsbvc	r2, r2, #460	; 0x1cc
     de0:	6a6e6169 	bvs	1b9938c <__bss_end__+0x1b8ee14>
     de4:	442f6e75 	strtmi	r6, [pc], #-3701	; dec <__code_start__-0x7214>
     de8:	746b7365 	strbtvc	r7, [fp], #-869	; 0x365
     dec:	732f706f 	teqvc	pc, #111	; 0x6f
     df0:	6f6f6863 	svcvs	0x006f6863
     df4:	70532f6c 	subsvc	r2, r3, ip, ror #30
     df8:	676e6972 			; <UNDEFINED> instruction: 0x676e6972
     dfc:	30323931 	eorscc	r3, r2, r1, lsr r9
     e00:	3253432f 	subscc	r4, r3, #-1140850688	; 0xbc000000
     e04:	584c3034 	stmdapl	ip, {r2, r4, r5, ip, sp}^
     e08:	3273632f 	rsbscc	r6, r3, #-1140850688	; 0xbc000000
     e0c:	786c3034 	stmdavc	ip!, {r2, r4, r5, ip, sp}^
     e10:	7330322d 	teqvc	r0, #-805306366	; 0xd0000002
     e14:	6c2f7270 	sfmvs	f7, 4, [pc], #-448	; c5c <__code_start__-0x73a4>
     e18:	69706269 	ldmdbvs	r0!, {r0, r3, r5, r6, r9, sp, lr}^
     e1c:	636e692f 	cmnvs	lr, #770048	; 0xbc000
     e20:	6564756c 	strbvs	r7, [r4, #-1388]!	; 0x56c
     e24:	6e690000 	cdpvs	0, 6, cr0, cr9, cr0, {0}
     e28:	72726574 	rsbsvc	r6, r2, #116, 10	; 0x1d000000
     e2c:	73747075 	cmnvc	r4, #117	; 0x75
     e30:	632e632d 	teqvs	lr, #-1275068416	; 0xb4000000
     e34:	00000100 	andeq	r0, r0, r0, lsl #2
     e38:	2d697072 	stclcs	0, cr7, [r9, #-456]!	; 0xfffffe38
     e3c:	65746e69 	ldrbvs	r6, [r4, #-3689]!	; 0xe69
     e40:	70757272 	rsbsvc	r7, r5, r2, ror r2
     e44:	682e7374 	stmdavs	lr!, {r2, r4, r5, r6, r8, r9, ip, sp, lr}
     e48:	00000200 	andeq	r0, r0, r0, lsl #4
     e4c:	2e697072 	mcrcs	0, 3, r7, cr9, cr2, {3}
     e50:	00020068 	andeq	r0, r2, r8, rrx
     e54:	05000000 	streq	r0, [r0, #-0]
     e58:	00951802 	addseq	r1, r5, r2, lsl #16
     e5c:	011a0300 	tsteq	sl, r0, lsl #6
     e60:	67672f31 			; <UNDEFINED> instruction: 0x67672f31
     e64:	2d2f8336 	stccs	3, cr8, [pc, #-216]!	; d94 <__code_start__-0x726c>
     e68:	02040200 	andeq	r0, r4, #0, 4
     e6c:	0402002f 	streq	r0, [r2], #-47	; 0x2f
     e70:	02006502 	andeq	r6, r0, #8388608	; 0x800000
     e74:	2e060104 	adfcss	f0, f6, f4
     e78:	0a024c06 	beq	93e98 <__bss_end__+0x89920>
     e7c:	a2010100 	andge	r0, r1, #0, 2
     e80:	02000000 	andeq	r0, r0, #0
     e84:	00008000 	andeq	r8, r0, r0
     e88:	fb010200 	blx	41692 <__bss_end__+0x3711a>
     e8c:	01000d0e 	tsteq	r0, lr, lsl #26
     e90:	00010101 	andeq	r0, r1, r1, lsl #2
     e94:	00010000 	andeq	r0, r1, r0
     e98:	74730100 	ldrbtvc	r0, [r3], #-256	; 0x100
     e9c:	2d666661 	stclcs	6, cr6, [r6, #-388]!	; 0xfffffe7c
     ea0:	00637273 	rsbeq	r7, r3, r3, ror r2
     ea4:	6573552f 	ldrbvs	r5, [r3, #-1327]!	; 0x52f
     ea8:	622f7372 	eorvs	r7, pc, #-939524095	; 0xc8000001
     eac:	6e616972 	mcrvs	9, 3, r6, cr1, cr2, {3}
     eb0:	2f6e756a 	svccs	0x006e756a
     eb4:	6b736544 	blvs	1cda3cc <__bss_end__+0x1ccfe54>
     eb8:	2f706f74 	svccs	0x00706f74
     ebc:	6f686373 	svcvs	0x00686373
     ec0:	532f6c6f 	teqpl	pc, #28416	; 0x6f00
     ec4:	6e697270 	mcrvs	2, 3, r7, cr9, cr0, {3}
     ec8:	32393167 	eorscc	r3, r9, #-1073741799	; 0xc0000019
     ecc:	53432f30 	movtpl	r2, #16176	; 0x3f30
     ed0:	4c303432 	cfldrsmi	mvf3, [r0], #-200	; 0xffffff38
     ed4:	73632f58 	cmnvc	r3, #88, 30	; 0x160
     ed8:	6c303432 	cfldrsvs	mvf3, [r0], #-200	; 0xffffff38
     edc:	30322d78 	eorscc	r2, r2, r8, ror sp
     ee0:	2f727073 	svccs	0x00727073
     ee4:	7062696c 	rsbvc	r6, r2, ip, ror #18
     ee8:	6e692f69 	cdpvs	15, 6, cr2, cr9, cr9, {3}
     eec:	64756c63 	ldrbtvs	r6, [r5], #-3171	; 0xc63
     ef0:	72000065 	andvc	r0, r0, #101	; 0x65
     ef4:	6f6f6265 	svcvs	0x006f6265
     ef8:	00632e74 	rsbeq	r2, r3, r4, ror lr
     efc:	72000001 	andvc	r0, r0, #1
     f00:	682e6970 	stmdavs	lr!, {r4, r5, r6, r8, fp, sp, lr}
     f04:	00000200 	andeq	r0, r0, r0, lsl #4
     f08:	02050000 	andeq	r0, r5, #0
     f0c:	00009584 	andeq	r9, r0, r4, lsl #11
     f10:	14010d03 	strne	r0, [r1], #-3331	; 0xd03
     f14:	15852f31 	strne	r2, [r5, #3889]	; 0xf31
     f18:	2f4d4b2f 	svccs	0x004d4b2f
     f1c:	67523567 	ldrbvs	r3, [r2, -r7, ror #10]
     f20:	01001002 	tsteq	r0, r2
     f24:	0000ae01 	andeq	sl, r0, r1, lsl #28
     f28:	7f000200 	svcvc	0x00000200
     f2c:	02000000 	andeq	r0, r0, #0
     f30:	0d0efb01 	vstreq	d15, [lr, #-4]
     f34:	01010100 	mrseq	r0, (UNDEF: 17)
     f38:	00000001 	andeq	r0, r0, r1
     f3c:	01000001 	tsteq	r0, r1
     f40:	66617473 			; <UNDEFINED> instruction: 0x66617473
     f44:	72732d66 	rsbsvc	r2, r3, #6528	; 0x1980
     f48:	552f0063 	strpl	r0, [pc, #-99]!	; eed <__code_start__-0x7113>
     f4c:	73726573 	cmnvc	r2, #482344960	; 0x1cc00000
     f50:	6972622f 	ldmdbvs	r2!, {r0, r1, r2, r3, r5, r9, sp, lr}^
     f54:	756a6e61 	strbvc	r6, [sl, #-3681]!	; 0xe61
     f58:	65442f6e 	strbvs	r2, [r4, #-3950]	; 0xf6e
     f5c:	6f746b73 	svcvs	0x00746b73
     f60:	63732f70 	cmnvs	r3, #112, 30	; 0x1c0
     f64:	6c6f6f68 	stclvs	15, cr6, [pc], #-416	; dcc <__code_start__-0x7234>
     f68:	7270532f 	rsbsvc	r5, r0, #-1140850688	; 0xbc000000
     f6c:	31676e69 	cmncc	r7, r9, ror #28
     f70:	2f303239 	svccs	0x00303239
     f74:	34325343 	ldrtcc	r5, [r2], #-835	; 0x343
     f78:	2f584c30 	svccs	0x00584c30
     f7c:	34327363 	ldrtcc	r7, [r2], #-867	; 0x363
     f80:	2d786c30 	ldclcs	12, cr6, [r8, #-192]!	; 0xffffff40
     f84:	70733032 	rsbsvc	r3, r3, r2, lsr r0
     f88:	696c2f72 	stmdbvs	ip!, {r1, r4, r5, r6, r8, r9, sl, fp, sp}^
     f8c:	2f697062 	svccs	0x00697062
     f90:	6c636e69 	stclvs	14, cr6, [r3], #-420	; 0xfffffe5c
     f94:	00656475 	rsbeq	r6, r5, r5, ror r4
     f98:	6d697400 	cfstrdvs	mvd7, [r9, #-0]
     f9c:	632e7265 	teqvs	lr, #1342177286	; 0x50000006
     fa0:	00000100 	andeq	r0, r0, r0, lsl #2
     fa4:	2e697072 	mcrcs	0, 3, r7, cr9, cr2, {3}
     fa8:	00020068 	andeq	r0, r2, r8, rrx
     fac:	05000000 	streq	r0, [r0, #-0]
     fb0:	0095f802 	addseq	pc, r5, r2, lsl #16
     fb4:	2f141600 	svccs	0x00141600
     fb8:	0402002d 	streq	r0, [r2], #-45	; 0x2d
     fbc:	062e0601 	strteq	r0, [lr], -r1, lsl #12
     fc0:	4b2f316d 	blmi	bcd57c <__bss_end__+0xbc3004>
     fc4:	4b2f314d 	blmi	bcd500 <__bss_end__+0xbc2f88>
     fc8:	4c4b4c30 	mcrrmi	12, 3, r4, fp, cr0
     fcc:	2f2f6a2f 	svccs	0x002f6a2f
     fd0:	08022f84 	stmdaeq	r2, {r2, r7, r8, r9, sl, fp, sp}
     fd4:	48010100 	stmdami	r1, {r8}
     fd8:	02000001 	andeq	r0, r0, #1
     fdc:	00010200 	andeq	r0, r1, r0, lsl #4
     fe0:	fb010200 	blx	417ea <__bss_end__+0x37272>
     fe4:	01000d0e 	tsteq	r0, lr, lsl #26
     fe8:	00010101 	andeq	r0, r1, r1, lsl #2
     fec:	00010000 	andeq	r0, r1, r0
     ff0:	752f0100 	strvc	r0, [pc, #-256]!	; ef8 <__code_start__-0x7108>
     ff4:	692f7273 	stmdbvs	pc!, {r0, r1, r4, r5, r6, r9, ip, sp, lr}	; <UNPREDICTABLE>
     ff8:	756c636e 	strbvc	r6, [ip, #-878]!	; 0x36e
     ffc:	6e2f6564 	cfsh64vs	mvdx6, mvdx15, #52
    1000:	696c7765 	stmdbvs	ip!, {r0, r2, r5, r6, r8, r9, sl, ip, sp, lr}^
    1004:	79732f62 	ldmdbvc	r3!, {r1, r5, r6, r8, r9, sl, fp, sp}^
    1008:	752f0073 	strvc	r0, [pc, #-115]!	; f9d <__code_start__-0x7063>
    100c:	6c2f7273 	sfmvs	f7, 4, [pc], #-460	; e48 <__code_start__-0x71b8>
    1010:	672f6269 	strvs	r6, [pc, -r9, ror #4]!
    1014:	612f6363 	teqvs	pc, r3, ror #6
    1018:	6e2d6d72 	mcrvs	13, 1, r6, cr13, cr2, {3}
    101c:	2d656e6f 	stclcs	14, cr6, [r5, #-444]!	; 0xfffffe44
    1020:	69626165 	stmdbvs	r2!, {r0, r2, r5, r6, r8, sp, lr}^
    1024:	332e362f 	teqcc	lr, #49283072	; 0x2f00000
    1028:	692f312e 	stmdbvs	pc!, {r1, r2, r3, r5, r8, ip, sp}	; <UNPREDICTABLE>
    102c:	756c636e 	strbvc	r6, [ip, #-878]!	; 0x36e
    1030:	2f006564 	svccs	0x00006564
    1034:	656d6f68 	strbvs	r6, [sp, #-3944]!	; 0xf68
    1038:	676e652f 	strbvs	r6, [lr, -pc, lsr #10]!
    103c:	2f72656c 	svccs	0x0072656c
    1040:	73616c63 	cmnvc	r1, #25344	; 0x6300
    1044:	73632f73 	cmnvc	r3, #460	; 0x1cc
    1048:	6c303432 	cfldrsvs	mvf3, [r0], #-200	; 0xffffff38
    104c:	30322d78 	eorscc	r2, r2, r8, ror sp
    1050:	2f727073 	svccs	0x00727073
    1054:	62696c2f 	rsbvs	r6, r9, #12032	; 0x2f00
    1058:	2f006970 	svccs	0x00006970
    105c:	656d6f68 	strbvs	r6, [sp, #-3944]!	; 0xf68
    1060:	676e652f 	strbvs	r6, [lr, -pc, lsr #10]!
    1064:	2f72656c 	svccs	0x0072656c
    1068:	73616c63 	cmnvc	r1, #25344	; 0x6300
    106c:	73632f73 	cmnvc	r3, #460	; 0x1cc
    1070:	6c303432 	cfldrsvs	mvf3, [r0], #-200	; 0xffffff38
    1074:	30322d78 	eorscc	r2, r2, r8, ror sp
    1078:	2f727073 	svccs	0x00727073
    107c:	62696c2f 	rsbvs	r6, r9, #12032	; 0x2f00
    1080:	732f6970 	teqvc	pc, #112, 18	; 0x1c0000
    1084:	66666174 			; <UNDEFINED> instruction: 0x66666174
    1088:	6372732d 	cmnvs	r2, #-1275068416	; 0xb4000000
    108c:	61750000 	cmnvs	r5, r0
    1090:	632e7472 	teqvs	lr, #1912602624	; 0x72000000
    1094:	00000000 	andeq	r0, r0, r0
    1098:	6b636f6c 	blvs	18dce50 <__bss_end__+0x18d28d8>
    109c:	0100682e 	tsteq	r0, lr, lsr #16
    10a0:	745f0000 	ldrbvc	r0, [pc], #-0	; 10a8 <__code_start__-0x6f58>
    10a4:	73657079 	cmnvc	r5, #121	; 0x79
    10a8:	0100682e 	tsteq	r0, lr, lsr #16
    10ac:	74730000 	ldrbtvc	r0, [r3], #-0
    10b0:	66656464 	strbtvs	r6, [r5], -r4, ror #8
    10b4:	0200682e 	andeq	r6, r0, #3014656	; 0x2e0000
    10b8:	65720000 	ldrbvs	r0, [r2, #-0]!
    10bc:	2e746e65 	cdpcs	14, 7, cr6, cr4, cr5, {3}
    10c0:	00010068 	andeq	r0, r1, r8, rrx
    10c4:	69707200 	ldmdbvs	r0!, {r9, ip, sp, lr}^
    10c8:	0300682e 	movweq	r6, #2094	; 0x82e
    10cc:	61750000 	cmnvs	r5, r0
    10d0:	682e7472 	stmdavs	lr!, {r1, r4, r5, r6, sl, ip, sp, lr}
    10d4:	00000400 	andeq	r0, r0, r0, lsl #8
    10d8:	6f697067 	svcvs	0x00697067
    10dc:	0400682e 	streq	r6, [r0], #-2094	; 0x82e
    10e0:	00000000 	andeq	r0, r0, r0
    10e4:	96f40205 	ldrbtls	r0, [r4], r5, lsl #4
    10e8:	2c030000 	stccs	0, cr0, [r3], {-0}
    10ec:	0c036701 	stceq	7, cr6, [r3], {1}
    10f0:	6867359e 	stmdavs	r7!, {r1, r2, r3, r4, r7, r8, sl, ip, sp}^
    10f4:	0c036835 	stceq	8, cr6, [r3], {53}	; 0x35
    10f8:	696b852e 	stmdbvs	fp!, {r1, r2, r3, r5, r8, sl, pc}^
    10fc:	660c0369 	strvs	r0, [ip], -r9, ror #6
    1100:	4208676b 	andmi	r6, r8, #28049408	; 0x1ac0000
    1104:	364b6834 			; <UNDEFINED> instruction: 0x364b6834
    1108:	002f8768 	eoreq	r8, pc, r8, ror #14
    110c:	2f010402 	svccs	0x00010402
    1110:	67306768 	ldrvs	r6, [r0, -r8, ror #14]!
    1114:	0402004b 	streq	r0, [r2], #-75	; 0x4b
    1118:	67682f01 	strbvs	r2, [r8, -r1, lsl #30]!
    111c:	06022e69 	streq	r2, [r2], -r9, ror #28
    1120:	2b010100 	blcs	41528 <__bss_end__+0x36fb0>
    1124:	02000001 	andeq	r0, r0, #1
    1128:	0000f800 	andeq	pc, r0, r0, lsl #16
    112c:	fb010200 	blx	41936 <__bss_end__+0x373be>
    1130:	01000d0e 	tsteq	r0, lr, lsl #26
    1134:	00010101 	andeq	r0, r1, r1, lsl #2
    1138:	00010000 	andeq	r0, r1, r0
    113c:	752f0100 	strvc	r0, [pc, #-256]!	; 1044 <__code_start__-0x6fbc>
    1140:	692f7273 	stmdbvs	pc!, {r0, r1, r4, r5, r6, r9, ip, sp, lr}	; <UNPREDICTABLE>
    1144:	756c636e 	strbvc	r6, [ip, #-878]!	; 0x36e
    1148:	6e2f6564 	cfsh64vs	mvdx6, mvdx15, #52
    114c:	696c7765 	stmdbvs	ip!, {r0, r2, r5, r6, r8, r9, sl, ip, sp, lr}^
    1150:	79732f62 	ldmdbvc	r3!, {r1, r5, r6, r8, r9, sl, fp, sp}^
    1154:	752f0073 	strvc	r0, [pc, #-115]!	; 10e9 <__code_start__-0x6f17>
    1158:	6c2f7273 	sfmvs	f7, 4, [pc], #-460	; f94 <__code_start__-0x706c>
    115c:	672f6269 	strvs	r6, [pc, -r9, ror #4]!
    1160:	612f6363 	teqvs	pc, r3, ror #6
    1164:	6e2d6d72 	mcrvs	13, 1, r6, cr13, cr2, {3}
    1168:	2d656e6f 	stclcs	14, cr6, [r5, #-444]!	; 0xfffffe44
    116c:	69626165 	stmdbvs	r2!, {r0, r2, r5, r6, r8, sp, lr}^
    1170:	332e362f 	teqcc	lr, #49283072	; 0x2f00000
    1174:	692f312e 	stmdbvs	pc!, {r1, r2, r3, r5, r8, ip, sp}	; <UNPREDICTABLE>
    1178:	756c636e 	strbvc	r6, [ip, #-878]!	; 0x36e
    117c:	2f006564 	svccs	0x00006564
    1180:	656d6f68 	strbvs	r6, [sp, #-3944]!	; 0xf68
    1184:	676e652f 	strbvs	r6, [lr, -pc, lsr #10]!
    1188:	2f72656c 	svccs	0x0072656c
    118c:	73616c63 	cmnvc	r1, #25344	; 0x6300
    1190:	73632f73 	cmnvc	r3, #460	; 0x1cc
    1194:	6c303432 	cfldrsvs	mvf3, [r0], #-200	; 0xffffff38
    1198:	30322d78 	eorscc	r2, r2, r8, ror sp
    119c:	2f727073 	svccs	0x00727073
    11a0:	62696c2f 	rsbvs	r6, r9, #12032	; 0x2f00
    11a4:	2f006970 	svccs	0x00006970
    11a8:	656d6f68 	strbvs	r6, [sp, #-3944]!	; 0xf68
    11ac:	676e652f 	strbvs	r6, [lr, -pc, lsr #10]!
    11b0:	2f72656c 	svccs	0x0072656c
    11b4:	73616c63 	cmnvc	r1, #25344	; 0x6300
    11b8:	73632f73 	cmnvc	r3, #460	; 0x1cc
    11bc:	6c303432 	cfldrsvs	mvf3, [r0], #-200	; 0xffffff38
    11c0:	30322d78 	eorscc	r2, r2, r8, ror sp
    11c4:	2f727073 	svccs	0x00727073
    11c8:	62696c2f 	rsbvs	r6, r9, #12032	; 0x2f00
    11cc:	732f6970 	teqvc	pc, #112, 18	; 0x1c0000
    11d0:	66666174 			; <UNDEFINED> instruction: 0x66666174
    11d4:	6372732d 	cmnvs	r2, #-1275068416	; 0xb4000000
    11d8:	70670000 	rsbvc	r0, r7, r0
    11dc:	632e6f69 	teqvs	lr, #420	; 0x1a4
    11e0:	00000000 	andeq	r0, r0, r0
    11e4:	6b636f6c 	blvs	18dcf9c <__bss_end__+0x18d2a24>
    11e8:	0100682e 	tsteq	r0, lr, lsr #16
    11ec:	745f0000 	ldrbvc	r0, [pc], #-0	; 11f4 <__code_start__-0x6e0c>
    11f0:	73657079 	cmnvc	r5, #121	; 0x79
    11f4:	0100682e 	tsteq	r0, lr, lsr #16
    11f8:	74730000 	ldrbtvc	r0, [r3], #-0
    11fc:	66656464 	strbtvs	r6, [r5], -r4, ror #8
    1200:	0200682e 	andeq	r6, r0, #3014656	; 0x2e0000
    1204:	65720000 	ldrbvs	r0, [r2, #-0]!
    1208:	2e746e65 	cdpcs	14, 7, cr6, cr4, cr5, {3}
    120c:	00010068 	andeq	r0, r1, r8, rrx
    1210:	69707200 	ldmdbvs	r0!, {r9, ip, sp, lr}^
    1214:	0300682e 	movweq	r6, #2094	; 0x82e
    1218:	70670000 	rsbvc	r0, r7, r0
    121c:	682e6f69 	stmdavs	lr!, {r0, r3, r5, r6, r8, r9, sl, fp, sp, lr}
    1220:	00000400 	andeq	r0, r0, r0, lsl #8
    1224:	02050000 	andeq	r0, r5, #0
    1228:	0000986c 	andeq	r9, r0, ip, ror #16
    122c:	13012703 	movwne	r2, #5891	; 0x1703
    1230:	f44f474c 	vst1.16	{d20}, [pc], ip
    1234:	a14c4b68 	cmpge	ip, r8, ror #22
    1238:	49136a2f 	ldmdbmi	r3, {r0, r1, r2, r3, r5, r9, fp, sp, lr}
    123c:	4913be31 	ldmdbmi	r3, {r0, r4, r5, r9, sl, fp, ip, sp, pc}
    1240:	6a2fbe31 	bvs	bf0b0c <__bss_end__+0xbe6594>
    1244:	4f484d2f 	svcmi	0x00484d2f
    1248:	2f324913 	svccs	0x00324913
    124c:	000602b7 			; <UNDEFINED> instruction: 0x000602b7
    1250:	Address 0x0000000000001250 is out of bounds.


Disassembly of section .debug_str:

00000000 <.debug_str>:
   0:	5f746e63 	svcpl	0x00746e63
   4:	74696e69 	strbtvc	r6, [r9], #-3689	; 0xe69
   8:	73797300 	cmnvc	r9, #0, 6
   c:	6f6f665f 	svcvs	0x006f665f
  10:	6d73615f 	ldfvse	f6, [r3, #-380]!	; 0xfffffe84
  14:	72746e00 	rsbsvc	r6, r4, #0, 28
  18:	736c6169 	cmnvc	ip, #1073741850	; 0x4000001a
  1c:	65686300 	strbvs	r6, [r8, #-768]!	; 0x300
  20:	72656b63 	rsbvc	r6, r5, #101376	; 0x18c00
  24:	2f00745f 	svccs	0x0000745f
  28:	72657355 	rsbvc	r7, r5, #1409286145	; 0x54000001
  2c:	72622f73 	rsbvc	r2, r2, #460	; 0x1cc
  30:	6a6e6169 	bvs	1b985dc <__bss_end__+0x1b8e064>
  34:	442f6e75 	strtmi	r6, [pc], #-3701	; 3c <__code_start__-0x7fc4>
  38:	746b7365 	strbtvc	r7, [fp], #-869	; 0x365
  3c:	732f706f 	teqvc	pc, #111	; 0x6f
  40:	6f6f6863 	svcvs	0x006f6863
  44:	70532f6c 	subsvc	r2, r3, ip, ror #30
  48:	676e6972 			; <UNDEFINED> instruction: 0x676e6972
  4c:	30323931 	eorscc	r3, r2, r1, lsr r9
  50:	3253432f 	subscc	r4, r3, #-1140850688	; 0xbc000000
  54:	584c3034 	stmdapl	ip, {r2, r4, r5, ip, sp}^
  58:	3273632f 	rsbscc	r6, r3, #-1140850688	; 0xbc000000
  5c:	786c3034 	stmdavc	ip!, {r2, r4, r5, ip, sp}^
  60:	7330322d 	teqvc	r0, #-805306366	; 0xd0000002
  64:	6c2f7270 	sfmvs	f7, 4, [pc], #-448	; fffffeac <__bss_end__+0xffff5934>
  68:	2f736261 	svccs	0x00736261
  6c:	732d3631 	teqvc	sp, #51380224	; 0x3100000
  70:	6c676e69 	stclvs	14, cr6, [r7], #-420	; 0xfffffe5c
  74:	74732d65 	ldrbtvc	r2, [r3], #-3429	; 0xd65
  78:	632f7065 	teqvs	pc, #101	; 0x65
  7c:	0065646f 	rsbeq	r6, r5, pc, ror #8
  80:	6d746f6e 	ldclvs	15, cr6, [r4, #-440]!	; 0xfffffe48
  84:	006e6961 	rsbeq	r6, lr, r1, ror #18
  88:	5f746e63 	svcpl	0x00746e63
  8c:	6e630041 	cdpvs	0, 6, cr0, cr3, cr1, {2}
  90:	00425f74 	subeq	r5, r2, r4, ror pc
  94:	7272656e 	rsbsvc	r6, r2, #461373440	; 0x1b800000
  98:	0073726f 	rsbseq	r7, r3, pc, ror #4
  9c:	74697773 	strbtvc	r7, [r9], #-1907	; 0x773
  a0:	6f5f6863 	svcvs	0x005f6863
  a4:	6e695f6e 	cdpvs	15, 6, cr5, cr9, cr14, {3}
  a8:	6e5f7473 	mrcvs	4, 2, r7, cr15, cr3, {3}
  ac:	736e7500 	cmnvc	lr, #0, 10
  b0:	656e6769 	strbvs	r6, [lr, #-1897]!	; 0x769
  b4:	68632064 	stmdavs	r3!, {r2, r5, r6, sp}^
  b8:	63007261 	movwvs	r7, #609	; 0x261
  bc:	6e61656c 	cdpvs	5, 6, cr6, cr1, cr12, {3}
  c0:	6265725f 	rsbvs	r7, r5, #-268435451	; 0xf0000005
  c4:	00746f6f 	rsbseq	r6, r4, pc, ror #30
  c8:	74736e69 	ldrbtvc	r6, [r3], #-3689	; 0xe69
  cc:	756f635f 	strbvc	r6, [pc, #-863]!	; fffffd75 <__bss_end__+0xffff57fd>
  d0:	7300746e 	movwvc	r7, #1134	; 0x46e
  d4:	74726f68 	ldrbtvc	r6, [r2], #-3944	; 0xf68
  d8:	736e7520 	cmnvc	lr, #32, 10	; 0x8000000
  dc:	656e6769 	strbvs	r6, [lr, #-1897]!	; 0x769
  e0:	6e692064 	cdpvs	0, 6, cr2, cr9, cr4, {3}
  e4:	72620074 	rsbvc	r0, r2, #116	; 0x74
  e8:	65765f6b 	ldrbvs	r5, [r6, #-3947]!	; 0xf6b
  ec:	736f6272 	cmnvc	pc, #536870919	; 0x20000007
  f0:	00705f65 	rsbseq	r5, r0, r5, ror #30
  f4:	726f6873 	rsbvc	r6, pc, #7536640	; 0x730000
  f8:	6e692074 	mcrvs	0, 3, r2, cr9, cr4, {3}
  fc:	5f5f0074 	svcpl	0x005f0074
 100:	434e5546 	movtmi	r5, #58694	; 0xe546
 104:	4e4f4954 	mcrmi	9, 2, r4, cr15, cr4, {2}
 108:	69005f5f 	stmdbvs	r0, {r0, r1, r2, r3, r4, r6, r8, r9, sl, fp, ip, lr}
 10c:	7265746e 	rsbvc	r7, r5, #1845493760	; 0x6e000000
 110:	7661656c 	strbtvc	r6, [r1], -ip, ror #10
 114:	5f676e69 	svcpl	0x00676e69
 118:	6e630070 	mcrvs	0, 3, r0, cr3, cr0, {3}
 11c:	6b6d5f74 	blvs	1b57ef4 <__bss_end__+0x1b4d97c>
 120:	6568635f 	strbvs	r6, [r8, #-863]!	; 0x35f
 124:	72656b63 	rsbvc	r6, r5, #101376	; 0x18c00
 128:	554e4700 	strbpl	r4, [lr, #-1792]	; 0x700
 12c:	34204320 	strtcc	r4, [r0], #-800	; 0x320
 130:	332e382e 	teqcc	lr, #3014656	; 0x2e0000
 134:	636d2d20 	cmnvs	sp, #32, 26	; 0x800
 138:	613d7570 	teqvs	sp, r0, ror r5
 13c:	31316d72 	teqcc	r1, r2, ror sp
 140:	7a6a3637 	bvc	1a8da24 <__bss_end__+0x1a834ac>
 144:	20732d66 	rsbscs	r2, r3, r6, ror #26
 148:	75746d2d 	ldrbvc	r6, [r4, #-3373]!	; 0xd2d
 14c:	613d656e 	teqvs	sp, lr, ror #10
 150:	31316d72 	teqcc	r1, r2, ror sp
 154:	7a6a3637 	bvc	1a8da38 <__bss_end__+0x1a834c0>
 158:	20732d66 	rsbscs	r2, r3, r6, ror #26
 15c:	6467672d 	strbtvs	r6, [r7], #-1837	; 0x72d
 160:	4f2d2062 	svcmi	0x002d2062
 164:	732d2067 	teqvc	sp, #103	; 0x67
 168:	673d6474 			; <UNDEFINED> instruction: 0x673d6474
 16c:	3939756e 	ldmdbcc	r9!, {r1, r2, r3, r5, r6, r8, sl, ip, sp, lr}
 170:	66662d20 	strbtvs	r2, [r6], -r0, lsr #26
 174:	73656572 	cmnvc	r5, #478150656	; 0x1c800000
 178:	646e6174 	strbtvs	r6, [lr], #-372	; 0x174
 17c:	20676e69 	rsbcs	r6, r7, r9, ror #28
 180:	6f6e662d 	svcvs	0x006e662d
 184:	706f742d 	rsbvc	r7, pc, sp, lsr #8
 188:	6576656c 	ldrbvs	r6, [r6, #-1388]!	; 0x56c
 18c:	65722d6c 	ldrbvs	r2, [r2, #-3436]!	; 0xd6c
 190:	6564726f 	strbvs	r7, [r4, #-623]!	; 0x26f
 194:	6f6c0072 	svcvs	0x006c0072
 198:	6c20676e 	stcvs	7, cr6, [r0], #-440	; 0xfffffe48
 19c:	20676e6f 	rsbcs	r6, r7, pc, ror #28
 1a0:	69736e75 	ldmdbvs	r3!, {r0, r2, r4, r5, r6, r9, sl, fp, sp, lr}^
 1a4:	64656e67 	strbtvs	r6, [r5], #-3687	; 0xe67
 1a8:	746e6920 	strbtvc	r6, [lr], #-2336	; 0x920
 1ac:	77736e00 	ldrbvc	r6, [r3, -r0, lsl #28]!
 1b0:	68637469 	stmdavs	r3!, {r0, r3, r5, r6, sl, ip, sp, lr}^
 1b4:	73007365 	movwvc	r7, #869	; 0x365
 1b8:	74657a69 	strbtvc	r7, [r5], #-2665	; 0xa69
 1bc:	00657079 	rsbeq	r7, r5, r9, ror r0
 1c0:	676e6f6c 	strbvs	r6, [lr, -ip, ror #30]!
 1c4:	6e6f6c20 	cdpvs	12, 6, cr6, cr15, cr0, {1}
 1c8:	6e692067 	cdpvs	0, 6, cr2, cr9, cr7, {3}
 1cc:	77730074 			; <UNDEFINED> instruction: 0x77730074
 1d0:	68637469 	stmdavs	r3!, {r0, r3, r5, r6, sl, ip, sp, lr}^
 1d4:	705f6465 	subsvc	r6, pc, r5, ror #8
 1d8:	69777300 	ldmdbvs	r7!, {r8, r9, ip, sp, lr}^
 1dc:	5f686374 	svcpl	0x00686374
 1e0:	72646461 	rsbvc	r6, r4, #1627389952	; 0x61000000
 1e4:	616e6500 	cmnvs	lr, r0, lsl #10
 1e8:	5f656c62 	svcpl	0x00656c62
 1ec:	68636163 	stmdavs	r3!, {r0, r1, r5, r6, r8, sp, lr}^
 1f0:	65740065 	ldrbvs	r0, [r4, #-101]!	; 0x65
 1f4:	32737473 	rsbscc	r7, r3, #1929379840	; 0x73000000
 1f8:	312f302e 	teqcc	pc, lr, lsr #32
 1fc:	61702d36 	cmnvs	r0, r6, lsr sp
 200:	2d327472 	cfldrscs	mvf7, [r2, #-456]!	; 0xfffffe38
 204:	74736574 	ldrbtvc	r6, [r3], #-1396	; 0x574
 208:	00632e37 	rsbeq	r2, r3, r7, lsr lr
 20c:	5f746e63 	svcpl	0x00746e63
 210:	63656863 	cmnvs	r5, #6488064	; 0x630000
 214:	6975006b 	ldmdbvs	r5!, {r0, r1, r3, r5, r6}^
 218:	3233746e 	eorscc	r7, r3, #1845493760	; 0x6e000000
 21c:	7300745f 	movwvc	r7, #1119	; 0x45f
 220:	7370696b 	cmnvc	r0, #1753088	; 0x1ac000
 224:	69707200 	ldmdbvs	r0!, {r9, ip, sp, lr}^
 228:	7365725f 	cmnvc	r5, #-268435451	; 0xf0000005
 22c:	705f7465 	subsvc	r7, pc, r5, ror #8
 230:	00637475 	rsbeq	r7, r3, r5, ror r4
 234:	61746164 	cmnvs	r4, r4, ror #2
 238:	6f62615f 	svcvs	0x0062615f
 23c:	765f7472 			; <UNDEFINED> instruction: 0x765f7472
 240:	6f746365 	svcvs	0x00746365
 244:	72700072 	rsbsvc	r0, r0, #114	; 0x72
 248:	74656665 	strbtvc	r6, [r5], #-1637	; 0x665
 24c:	615f6863 	cmpvs	pc, r3, ror #16
 250:	74726f62 	ldrbtvc	r6, [r2], #-3938	; 0xf62
 254:	6365765f 	cmnvs	r5, #99614720	; 0x5f00000
 258:	00726f74 	rsbseq	r6, r2, r4, ror pc
 25c:	5f736177 	svcpl	0x00736177
 260:	75626564 	strbvc	r6, [r2, #-1380]!	; 0x564
 264:	61645f67 	cmnvs	r4, r7, ror #30
 268:	61666174 	smcvs	26132	; 0x6614
 26c:	00746c75 	rsbseq	r6, r4, r5, ror ip
 270:	34317063 	ldrtcc	r7, [r1], #-99	; 0x63
 274:	6265642d 	rsbvs	r6, r5, #754974720	; 0x2d000000
 278:	632e6775 	teqvs	lr, #30670848	; 0x1d40000
 27c:	73617700 	cmnvc	r1, #0, 14
 280:	6265645f 	rsbvs	r6, r5, #1593835520	; 0x5f000000
 284:	695f6775 	ldmdbvs	pc, {r0, r2, r4, r5, r6, r8, r9, sl, sp, lr}^	; <UNPREDICTABLE>
 288:	6674736e 	ldrbtvs	r7, [r4], -lr, ror #6
 28c:	746c7561 	strbtvc	r7, [ip], #-1377	; 0x561
 290:	63736400 	cmnvs	r3, #0, 8
 294:	65735f72 	ldrbvs	r5, [r3, #-3954]!	; 0xf72
 298:	63770074 	cmnvs	r7, #116	; 0x74
 29c:	725f3072 	subsvc	r3, pc, #114	; 0x72
 2a0:	77006765 	strvc	r6, [r0, -r5, ror #14]
 2a4:	5f307263 	svcpl	0x00307263
 2a8:	00746567 	rsbseq	r6, r4, r7, ror #10
 2ac:	74696e69 	strbtvc	r6, [r9], #-3689	; 0xe69
 2b0:	6200705f 	andvs	r7, r0, #95	; 0x5f
 2b4:	74706b72 	ldrbtvc	r6, [r0], #-2930	; 0xb72
 2b8:	6e61685f 	mcrvs	8, 3, r6, cr1, cr15, {2}
 2bc:	72656c64 	rsbvc	r6, r5, #100, 24	; 0x6400
 2c0:	70630030 	rsbvc	r0, r3, r0, lsr r0
 2c4:	625f3431 	subsvs	r3, pc, #822083584	; 0x31000000
 2c8:	5f307263 	svcpl	0x00307263
 2cc:	00746573 	rsbseq	r6, r4, r3, ror r5
 2d0:	30727677 	rsbscc	r7, r2, r7, ror r6
 2d4:	6c61765f 	stclvs	6, cr7, [r1], #-380	; 0xfffffe84
 2d8:	74617700 	strbtvc	r7, [r1], #-1792	; 0x700
 2dc:	74706863 	ldrbtvc	r6, [r0], #-2147	; 0x863
 2e0:	7465735f 	strbtvc	r7, [r5], #-863	; 0x35f
 2e4:	76770030 			; <UNDEFINED> instruction: 0x76770030
 2e8:	735f3072 	cmpvc	pc, #114	; 0x72
 2ec:	62007465 	andvs	r7, r0, #1694498816	; 0x65000000
 2f0:	6e5f6b72 	vmovvs.s8	r6, d15[3]
 2f4:	65725f6f 	ldrbvs	r5, [r2, #-3951]!	; 0xf6f
 2f8:	72655f74 	rsbvc	r5, r5, #116, 30	; 0x1d0
 2fc:	00726f72 	rsbseq	r6, r2, r2, ror pc
 300:	34317063 	ldrtcc	r7, [r1], #-99	; 0x63
 304:	7263625f 	rsbvc	r6, r3, #-268435451	; 0xf0000005
 308:	65675f30 	strbvs	r5, [r7, #-3888]!	; 0xf30
 30c:	72620074 	rsbvc	r0, r2, #116	; 0x74
 310:	5f74706b 	svcpl	0x0074706b
 314:	6d73696d 	ldclvs	9, cr6, [r3, #-436]!	; 0xfffffe4c
 318:	68637461 	stmdavs	r3!, {r0, r5, r6, sl, ip, sp, lr}^
 31c:	7465735f 	strbtvc	r7, [r5], #-863	; 0x35f
 320:	66640030 			; <UNDEFINED> instruction: 0x66640030
 324:	765f7273 			; <UNDEFINED> instruction: 0x765f7273
 328:	69006c61 	stmdbvs	r0, {r0, r5, r6, sl, fp, sp, lr}
 32c:	5f726166 	svcpl	0x00726166
 330:	00746567 	rsbseq	r6, r4, r7, ror #10
 334:	72736669 	rsbsvc	r6, r3, #110100480	; 0x6900000
 338:	7465675f 	strbtvc	r6, [r5], #-1887	; 0x75f
 33c:	74617700 	strbtvc	r7, [r1], #-1792	; 0x700
 340:	74706863 	ldrbtvc	r6, [r0], #-2147	; 0x863
 344:	6e61685f 	mcrvs	8, 3, r6, cr1, cr15, {2}
 348:	72656c64 	rsbvc	r6, r5, #100, 24	; 0x6400
 34c:	72620030 	rsbvc	r0, r2, #48	; 0x30
 350:	5f74706b 	svcpl	0x0074706b
 354:	6d73696d 	ldclvs	9, cr6, [r3, #-436]!	; 0xfffffe4c
 358:	68637461 	stmdavs	r3!, {r0, r5, r6, sl, ip, sp, lr}^
 35c:	7369645f 	cmnvc	r9, #1593835520	; 0x5f000000
 360:	656c6261 	strbvs	r6, [ip, #-609]!	; 0x261
 364:	61640030 	cmnvs	r4, r0, lsr r0
 368:	61666174 	smcvs	26132	; 0x6614
 36c:	5f746c75 	svcpl	0x00746c75
 370:	6d6f7266 	sfmvs	f7, 2, [pc, #-408]!	; 1e0 <__code_start__-0x7e20>
 374:	00646c5f 	rsbeq	r6, r4, pc, asr ip
 378:	34317063 	ldrtcc	r7, [r1], #-99	; 0x63
 37c:	7276625f 	rsbsvc	r6, r6, #-268435451	; 0xf0000005
 380:	65735f30 	ldrbvs	r5, [r3, #-3888]!	; 0xf30
 384:	61770074 	cmnvs	r7, r4, ror r0
 388:	65645f73 	strbvs	r5, [r4, #-3955]!	; 0xf73
 38c:	66677562 	strbtvs	r7, [r7], -r2, ror #10
 390:	746c7561 	strbtvc	r7, [ip], #-1377	; 0x561
 394:	6300725f 	movwvs	r7, #607	; 0x25f
 398:	5f343170 	svcpl	0x00343170
 39c:	62616e65 	rsbvs	r6, r1, #1616	; 0x650
 3a0:	6e00656c 	cfsh32vs	mvfx6, mvfx0, #60
 3a4:	6c756166 	ldfvse	f6, [r5], #-408	; 0xfffffe68
 3a8:	62007374 	andvs	r7, r0, #116, 6	; 0xd0000001
 3ac:	5f307276 	svcpl	0x00307276
 3b0:	006c6176 	rsbeq	r6, ip, r6, ror r1
 3b4:	72736664 	rsbsvc	r6, r3, #100, 12	; 0x6400000
 3b8:	7465675f 	strbtvc	r6, [r5], #-1887	; 0x75f
 3bc:	73797300 	cmnvc	r9, #0, 6
 3c0:	6c6c6163 	stfvse	f6, [ip], #-396	; 0xfffffe74
 3c4:	6365765f 	cmnvs	r5, #99614720	; 0x5f00000
 3c8:	00726f74 	rsbseq	r6, r2, r4, ror pc
 3cc:	66657270 			; <UNDEFINED> instruction: 0x66657270
 3d0:	68637465 	stmdavs	r3!, {r0, r2, r5, r6, sl, ip, sp, lr}^
 3d4:	756c665f 	strbvc	r6, [ip, #-1631]!	; 0x65f
 3d8:	735f6873 	cmpvc	pc, #7536640	; 0x730000
 3dc:	62007465 	andvs	r7, r0, #1694498816	; 0x65000000
 3e0:	5f307263 	svcpl	0x00307263
 3e4:	00676572 	rsbeq	r6, r7, r2, ror r5
 3e8:	646e6168 	strbtvs	r6, [lr], #-360	; 0x168
 3ec:	5f72656c 	svcpl	0x0072656c
 3f0:	66770074 			; <UNDEFINED> instruction: 0x66770074
 3f4:	675f7261 	ldrbvs	r7, [pc, -r1, ror #4]
 3f8:	73007465 	movwvc	r7, #1125	; 0x465
 3fc:	6e5f7379 	mrcvs	3, 2, r7, cr15, cr9, {3}
 400:	62006d75 	andvs	r6, r0, #7488	; 0x1d40
 404:	74706b72 	ldrbtvc	r6, [r0], #-2930	; 0xb72
 408:	7465735f 	strbtvc	r7, [r5], #-863	; 0x35f
 40c:	63770030 	cmnvs	r7, #48	; 0x30
 410:	735f3072 	cmpvc	pc, #114	; 0x72
 414:	69007465 	stmdbvs	r0, {r0, r2, r5, r6, sl, ip, sp, lr}
 418:	695f746e 	ldmdbvs	pc, {r1, r2, r3, r5, r6, sl, ip, sp, lr}^	; <UNPREDICTABLE>
 41c:	0074696e 	rsbseq	r6, r4, lr, ror #18
 420:	676e6973 			; <UNDEFINED> instruction: 0x676e6973
 424:	735f656c 	cmpvc	pc, #108, 10	; 0x1b000000
 428:	5f706574 	svcpl	0x00706574
 42c:	646e6168 	strbtvs	r6, [lr], #-360	; 0x168
 430:	0072656c 	rsbseq	r6, r2, ip, ror #10
 434:	63656863 	cmnvs	r5, #6488064	; 0x630000
 438:	657a5f6b 	ldrbvs	r5, [sl, #-3947]!	; 0xf6b
 43c:	63006f72 	movwvs	r6, #3954	; 0xf72
 440:	6b636568 	blvs	18d99e8 <__bss_end__+0x18cf470>
 444:	746e692d 	strbtvc	r6, [lr], #-2349	; 0x92d
 448:	656c7265 	strbvs	r7, [ip, #-613]!	; 0x265
 44c:	2e657661 	cdpcs	6, 6, cr7, cr5, cr1, {3}
 450:	73750063 	cmnvc	r5, #99	; 0x63
 454:	745f7265 	ldrbvc	r7, [pc], #-613	; 45c <__code_start__-0x7ba4>
 458:	706d6172 	rsbvc	r6, sp, r2, ror r1
 45c:	6e696c6f 	cdpvs	12, 6, cr6, cr9, cr15, {3}
 460:	65725f65 	ldrbvs	r5, [r2, #-3941]!	; 0xf65
 464:	70630074 	rsbvc	r0, r3, r4, ror r0
 468:	675f7273 			; <UNDEFINED> instruction: 0x675f7273
 46c:	65007465 	strvs	r7, [r0, #-1125]	; 0x465
 470:	63657078 	cmnvs	r5, #120	; 0x78
 474:	5f646574 	svcpl	0x00646574
 478:	646e6168 	strbtvs	r6, [lr], #-360	; 0x168
 47c:	6d00656c 	cfstr32vs	mvfx6, [r0, #-432]	; 0xfffffe50
 480:	006b7361 	rsbeq	r7, fp, r1, ror #6
 484:	73746962 	cmnvc	r4, #1605632	; 0x188000
 488:	726c635f 	rsbvc	r6, ip, #2080374785	; 0x7c000001
 48c:	65686300 	strbvs	r6, [r8, #-768]!	; 0x300
 490:	6f5f6b63 	svcvs	0x005f6b63
 494:	635f656e 	cmpvs	pc, #461373440	; 0x1b800000
 498:	74697773 	strbtvc	r7, [r9], #-1907	; 0x773
 49c:	6d006863 	stcvs	8, cr6, [r0, #-396]	; 0xfffffe74
 4a0:	5f65646f 	svcpl	0x0065646f
 4a4:	00727473 	rsbseq	r7, r2, r3, ror r4
 4a8:	65646f6d 	strbvs	r6, [r4, #-3949]!	; 0xf6d
 4ac:	7465735f 	strbtvc	r7, [r5], #-863	; 0x35f
 4b0:	65686300 	strbvs	r6, [r8, #-768]!	; 0x300
 4b4:	735f6b63 	cmpvc	pc, #101376	; 0x18c00
 4b8:	65757165 	ldrbvs	r7, [r5, #-357]!	; 0x165
 4bc:	6169746e 	cmnvs	r9, lr, ror #8
 4c0:	7063006c 	rsbvc	r0, r3, ip, rrx
 4c4:	6f5f7273 	svcvs	0x005f7273
 4c8:	6200646c 	andvs	r6, r0, #108, 8	; 0x6c000000
 4cc:	5f737469 	svcpl	0x00737469
 4d0:	00746567 	rsbseq	r6, r4, r7, ror #10
 4d4:	72737063 	rsbsvc	r7, r3, #99	; 0x63
 4d8:	6573755f 	ldrbvs	r7, [r3, #-1375]!	; 0x55f
 4dc:	70630072 	rsbvc	r0, r3, r2, ror r0
 4e0:	6d007273 	sfmvs	f7, 4, [r0, #-460]	; 0xfffffe34
 4e4:	5f65646f 	svcpl	0x0065646f
 4e8:	6167656c 	cmnvs	r7, ip, ror #10
 4ec:	6f6d006c 	svcvs	0x006d006c
 4f0:	675f6564 	ldrbvs	r6, [pc, -r4, ror #10]
 4f4:	72007465 	andvc	r7, r0, #1694498816	; 0x65000000
 4f8:	00736765 	rsbseq	r6, r3, r5, ror #14
 4fc:	65646f6d 	strbvs	r6, [r4, #-3949]!	; 0xf6d
 500:	675f5f00 	ldrbvs	r5, [pc, -r0, lsl #30]
 504:	5f63756e 	svcpl	0x0063756e
 508:	6c5f6176 	ldfvse	f6, [pc], {118}	; 0x76
 50c:	00747369 	rsbseq	r7, r4, r9, ror #6
 510:	6362696c 	cmnvs	r2, #108, 18	; 0x1b0000
 514:	6972702f 	ldmdbvs	r2!, {r0, r1, r2, r3, r5, ip, sp, lr}^
 518:	2e6b746e 	cdpcs	4, 6, cr7, cr11, cr14, {3}
 51c:	4e470063 	cdpmi	0, 4, cr0, cr7, cr3, {3}
 520:	20432055 	subcs	r2, r3, r5, asr r0
 524:	2e382e34 	mrccs	14, 1, r2, cr8, cr4, {1}
 528:	6d2d2033 	stcvs	0, cr2, [sp, #-204]!	; 0xffffff34
 52c:	3d757063 	ldclcc	0, cr7, [r5, #-396]!	; 0xfffffe74
 530:	316d7261 	cmncc	sp, r1, ror #4
 534:	6a363731 	bvs	d8e200 <__bss_end__+0xd83c88>
 538:	732d667a 	teqvc	sp, #127926272	; 0x7a00000
 53c:	746d2d20 	strbtvc	r2, [sp], #-3360	; 0xd20
 540:	3d656e75 	stclcc	14, cr6, [r5, #-468]!	; 0xfffffe2c
 544:	316d7261 	cmncc	sp, r1, ror #4
 548:	6a363731 	bvs	d8e214 <__bss_end__+0xd83c9c>
 54c:	732d667a 	teqvc	sp, #127926272	; 0x7a00000
 550:	67672d20 	strbvs	r2, [r7, -r0, lsr #26]!
 554:	2d206264 	sfmcs	f6, 4, [r0, #-400]!	; 0xfffffe70
 558:	2d20674f 	stccs	7, cr6, [r0, #-316]!	; 0xfffffec4
 55c:	3d647473 	cfstrdcc	mvd7, [r4, #-460]!	; 0xfffffe34
 560:	39756e67 	ldmdbcc	r5!, {r0, r1, r2, r5, r6, r9, sl, fp, sp, lr}^
 564:	662d2039 			; <UNDEFINED> instruction: 0x662d2039
 568:	65657266 	strbvs	r7, [r5, #-614]!	; 0x266
 56c:	6e617473 	mcrvs	4, 3, r7, cr1, cr3, {3}
 570:	676e6964 	strbvs	r6, [lr, -r4, ror #18]!
 574:	5f617600 	svcpl	0x00617600
 578:	6e697270 	mcrvs	2, 3, r7, cr9, cr0, {3}
 57c:	5f006b74 	svcpl	0x00006b74
 580:	5f61765f 	svcpl	0x0061765f
 584:	7473696c 	ldrbtvc	r6, [r3], #-2412	; 0x96c
 588:	73552f00 	cmpvc	r5, #0, 30
 58c:	2f737265 	svccs	0x00737265
 590:	61697262 	cmnvs	r9, r2, ror #4
 594:	6e756a6e 	vsubvs.f32	s13, s10, s29
 598:	7365442f 	cmnvc	r5, #788529152	; 0x2f000000
 59c:	706f746b 	rsbvc	r7, pc, fp, ror #8
 5a0:	6863732f 	stmdavs	r3!, {r0, r1, r2, r3, r5, r8, r9, ip, sp, lr}^
 5a4:	2f6c6f6f 	svccs	0x006c6f6f
 5a8:	69727053 	ldmdbvs	r2!, {r0, r1, r4, r6, ip, sp, lr}^
 5ac:	3931676e 	ldmdbcc	r1!, {r1, r2, r3, r5, r6, r8, r9, sl, sp, lr}
 5b0:	432f3032 	teqmi	pc, #50	; 0x32
 5b4:	30343253 	eorscc	r3, r4, r3, asr r2
 5b8:	632f584c 	teqvs	pc, #76, 16	; 0x4c0000
 5bc:	30343273 	eorscc	r3, r4, r3, ror r2
 5c0:	322d786c 	eorcc	r7, sp, #108, 16	; 0x6c0000
 5c4:	72707330 	rsbsvc	r7, r0, #48, 6	; 0xc0000000
 5c8:	62696c2f 	rsbvs	r6, r9, #12032	; 0x2f00
 5cc:	5f006970 	svcpl	0x00006970
 5d0:	0070615f 	rsbseq	r6, r0, pc, asr r1
 5d4:	74726175 	ldrbtvc	r6, [r2], #-373	; 0x175
 5d8:	7475705f 	ldrbtvc	r7, [r5], #-95	; 0x5f
 5dc:	6e690063 	cdpvs	0, 6, cr0, cr9, cr3, {3}
 5e0:	6e726574 	mrcvs	5, 3, r6, cr2, cr4, {3}
 5e4:	705f6c61 	subsvc	r6, pc, r1, ror #24
 5e8:	68637475 	stmdavs	r3!, {r0, r2, r4, r5, r6, sl, ip, sp, lr}^
 5ec:	72007261 	andvc	r7, r0, #268435462	; 0x10000006
 5f0:	705f6970 	subsvc	r6, pc, r0, ror r9	; <UNPREDICTABLE>
 5f4:	68637475 	stmdavs	r3!, {r0, r2, r4, r5, r6, sl, ip, sp, lr}^
 5f8:	6c007261 	sfmvs	f7, 4, [r0], {97}	; 0x61
 5fc:	2f636269 	svccs	0x00636269
 600:	63747570 	cmnvs	r4, #112, 10	; 0x1c000000
 604:	2e726168 	rpwcssz	f6, f2, #0.0
 608:	70720063 	rsbsvc	r0, r2, r3, rrx
 60c:	65735f69 	ldrbvs	r5, [r3, #-3945]!	; 0xf69
 610:	75705f74 	ldrbvc	r5, [r0, #-3956]!	; 0xf74
 614:	6c006374 	stcvs	3, cr6, [r0], {116}	; 0x74
 618:	2f636269 	svccs	0x00636269
 61c:	6b747570 	blvs	1d1dbe4 <__bss_end__+0x1d1366c>
 620:	6900632e 	stmdbvs	r0, {r1, r2, r3, r5, r8, r9, sp, lr}
 624:	7265746e 	rsbvc	r7, r5, #1845493760	; 0x6e000000
 628:	5f6c616e 	svcpl	0x006c616e
 62c:	6b747570 	blvs	1d1dbf4 <__bss_end__+0x1d1367c>
 630:	746d6600 	strbtvc	r6, [sp], #-1536	; 0x600
 634:	6174735f 	cmnvs	r4, pc, asr r3
 638:	6e007472 	mcrvs	4, 0, r7, cr0, cr2, {3}
 63c:	705f6765 	subsvc	r6, pc, r5, ror #14
 640:	76657200 	strbtvc	r7, [r5], -r0, lsl #4
 644:	65737265 	ldrbvs	r7, [r3, #-613]!	; 0x265
 648:	64736900 	ldrbtvs	r6, [r3], #-2304	; 0x900
 64c:	74696769 	strbtvc	r6, [r9], #-1897	; 0x769
 650:	74757000 	ldrbtvc	r7, [r5], #-0
 654:	70665f73 	rsbvc	r5, r6, r3, ror pc
 658:	67697300 	strbvs	r7, [r9, -r0, lsl #6]!
 65c:	5f64656e 	svcpl	0x0064656e
 660:	696c0070 	stmdbvs	ip!, {r4, r5, r6}^
 664:	762f6362 	strtvc	r6, [pc], -r2, ror #6
 668:	72702d61 	rsbsvc	r2, r0, #6208	; 0x1840
 66c:	6b746e69 	blvs	1d1c018 <__bss_end__+0x1d11aa0>
 670:	7200632e 	andvc	r6, r0, #-1207959552	; 0xb8000000
 674:	735f6970 	cmpvc	pc, #112, 18	; 0x1c0000
 678:	6f5f7465 	svcvs	0x005f7465
 67c:	75707475 	ldrbvc	r7, [r0, #-1141]!	; 0x475
 680:	69770074 	ldmdbvs	r7!, {r2, r4, r5, r6}^
 684:	00687464 	rsbeq	r7, r8, r4, ror #8
 688:	63747570 	cmnvs	r4, #112, 10	; 0x1c000000
 68c:	0070665f 	rsbseq	r6, r0, pc, asr r6
 690:	74696d65 	strbtvc	r6, [r9], #-3429	; 0xd65
 694:	73696400 	cmnvc	r9, #0, 8
 698:	656c6261 	strbvs	r6, [ip, #-609]!	; 0x261
 69c:	6361635f 	cmnvs	r1, #2080374785	; 0x7c000001
 6a0:	73006568 	movwvc	r6, #1384	; 0x568
 6a4:	66666174 			; <UNDEFINED> instruction: 0x66666174
 6a8:	6372732d 	cmnvs	r2, #-1275068416	; 0xb4000000
 6ac:	6361632f 	cmnvs	r1, #-1140850688	; 0xbc000000
 6b0:	632e6568 	teqvs	lr, #104, 10	; 0x1a000000
 6b4:	62657200 	rsbvs	r7, r5, #0, 4
 6b8:	5f746f6f 	svcpl	0x00746f6f
 6bc:	646e6168 	strbtvs	r6, [lr], #-360	; 0x168
 6c0:	0072656c 	rsbseq	r6, r2, ip, ror #10
 6c4:	66617473 			; <UNDEFINED> instruction: 0x66617473
 6c8:	72732d66 	rsbsvc	r2, r3, #6528	; 0x1980
 6cc:	6c632f63 	stclvs	15, cr2, [r3], #-396	; 0xfffffe74
 6d0:	2d6e6165 	stfcse	f6, [lr, #-404]!	; 0xfffffe6c
 6d4:	6f626572 	svcvs	0x00626572
 6d8:	632e746f 	teqvs	lr, #1862270976	; 0x6f000000
 6dc:	69707200 	ldmdbvs	r0!, {r9, ip, sp, lr}^
 6e0:	6265725f 	rsbvs	r7, r5, #-268435451	; 0xf0000005
 6e4:	00746f6f 	rsbseq	r6, r4, pc, ror #30
 6e8:	616c6564 	cmnvs	ip, r4, ror #10
 6ec:	736d5f79 	cmnvc	sp, #484	; 0x1e4
 6f0:	625f5f00 	subsvs	r5, pc, #0, 30
 6f4:	735f7373 	cmpvc	pc, #-872415231	; 0xcc000001
 6f8:	74726174 	ldrbtvc	r6, [r2], #-372	; 0x174
 6fc:	5f005f5f 	svcpl	0x00005f5f
 700:	7373625f 	cmnvc	r3, #-268435451	; 0xf0000005
 704:	646e655f 	strbtvs	r6, [lr], #-1375	; 0x55f
 708:	63005f5f 	movwvs	r5, #3935	; 0xf5f
 70c:	72617473 	rsbvc	r7, r1, #1929379840	; 0x73000000
 710:	61685f74 	smcvs	34292	; 0x85f4
 714:	656c646e 	strbvs	r6, [ip, #-1134]!	; 0x46e
 718:	73620072 	cmnvc	r2, #114	; 0x72
 71c:	6e655f73 	mcrvs	15, 3, r5, cr5, cr3, {3}
 720:	635f0064 	cmpvs	pc, #100	; 0x64
 724:	72617473 	rsbvc	r7, r1, #1929379840	; 0x73000000
 728:	74730074 	ldrbtvc	r0, [r3], #-116	; 0x74
 72c:	2d666661 	stclcs	6, cr6, [r6, #-388]!	; 0xfffffe7c
 730:	2f637273 	svccs	0x00637273
 734:	61747363 	cmnvs	r4, r3, ror #6
 738:	632e7472 	teqvs	lr, #1912602624	; 0x72000000
 73c:	61747300 	cmnvs	r4, r0, lsl #6
 740:	732d6666 	teqvc	sp, #106954752	; 0x6600000
 744:	642f6372 	strtvs	r6, [pc], #-882	; 74c <__code_start__-0x78b4>
 748:	75616665 	strbvc	r6, [r1, #-1637]!	; 0x665
 74c:	682d746c 	stmdavs	sp!, {r2, r3, r5, r6, sl, ip, sp, lr}
 750:	6c646e61 	stclvs	14, cr6, [r4], #-388	; 0xfffffe7c
 754:	662d7265 	strtvs	r7, [sp], -r5, ror #4
 758:	2e747361 	cdpcs	3, 7, cr7, cr4, cr1, {3}
 75c:	61660063 	cmnvs	r6, r3, rrx
 760:	695f7473 	ldmdbvs	pc, {r0, r1, r4, r5, r6, sl, ip, sp, lr}^	; <UNPREDICTABLE>
 764:	7265746e 	rsbvc	r7, r5, #1845493760	; 0x6e000000
 768:	74707572 	ldrbtvc	r7, [r0], #-1394	; 0x572
 76c:	6365765f 	cmnvs	r5, #99614720	; 0x5f00000
 770:	00726f74 	rsbseq	r6, r2, r4, ror pc
 774:	65736572 	ldrbvs	r6, [r3, #-1394]!	; 0x572
 778:	65765f74 	ldrbvs	r5, [r6, #-3956]!	; 0xf74
 77c:	726f7463 	rsbvc	r7, pc, #1660944384	; 0x63000000
 780:	61747300 	cmnvs	r4, r0, lsl #6
 784:	732d6666 	teqvc	sp, #106954752	; 0x6600000
 788:	642f6372 	strtvs	r6, [pc], #-882	; 790 <__code_start__-0x7870>
 78c:	75616665 	strbvc	r6, [r1, #-1637]!	; 0x665
 790:	682d746c 	stmdavs	sp!, {r2, r3, r5, r6, sl, ip, sp, lr}
 794:	6c646e61 	stclvs	14, cr6, [r4], #-388	; 0xfffffe7c
 798:	722d7265 	eorvc	r7, sp, #1342177286	; 0x50000006
 79c:	74657365 	strbtvc	r7, [r5], #-869	; 0x365
 7a0:	7300632e 	movwvc	r6, #814	; 0x32e
 7a4:	66666174 			; <UNDEFINED> instruction: 0x66666174
 7a8:	6372732d 	cmnvs	r2, #-1275068416	; 0xb4000000
 7ac:	6665642f 	strbtvs	r6, [r5], -pc, lsr #8
 7b0:	746c7561 	strbtvc	r7, [ip], #-1377	; 0x561
 7b4:	6e61682d 	cdpvs	8, 6, cr6, cr1, cr13, {1}
 7b8:	72656c64 	rsbvc	r6, r5, #100, 24	; 0x6400
 7bc:	646e752d 	strbtvs	r7, [lr], #-1325	; 0x52d
 7c0:	6e696665 	cdpvs	6, 6, cr6, cr9, cr5, {3}
 7c4:	692d6465 	pushvs	{r0, r2, r5, r6, sl, sp, lr}
 7c8:	2e74736e 	cdpcs	3, 7, cr7, cr4, cr14, {3}
 7cc:	6e750063 	cdpvs	0, 7, cr0, cr5, cr3, {3}
 7d0:	69666564 	stmdbvs	r6!, {r2, r5, r6, r8, sl, sp, lr}^
 7d4:	5f64656e 	svcpl	0x0064656e
 7d8:	74736e69 	ldrbtvc	r6, [r3], #-3689	; 0xe69
 7dc:	74637572 	strbtvc	r7, [r3], #-1394	; 0x572
 7e0:	5f6e6f69 	svcpl	0x006e6f69
 7e4:	74636576 	strbtvc	r6, [r3], #-1398	; 0x576
 7e8:	7300726f 	movwvc	r7, #623	; 0x26f
 7ec:	66666174 			; <UNDEFINED> instruction: 0x66666174
 7f0:	6372732d 	cmnvs	r2, #-1275068416	; 0xb4000000
 7f4:	6665642f 	strbtvs	r6, [r5], -pc, lsr #8
 7f8:	746c7561 	strbtvc	r7, [ip], #-1377	; 0x561
 7fc:	6e61682d 	cdpvs	8, 6, cr6, cr1, cr13, {1}
 800:	72656c64 	rsbvc	r6, r5, #100, 24	; 0x6400
 804:	00632e73 	rsbeq	r2, r3, r3, ror lr
 808:	5f515249 	svcpl	0x00515249
 80c:	646e6570 	strbtvs	r6, [lr], #-1392	; 0x570
 810:	5f676e69 	svcpl	0x00676e69
 814:	69440032 	stmdbvs	r4, {r1, r4, r5}^
 818:	6c626173 	stfvse	f6, [r2], #-460	; 0xfffffe34
 81c:	61425f65 	cmpvs	r2, r5, ror #30
 820:	5f636973 	svcpl	0x00636973
 824:	73515249 	cmpvc	r1, #-1879048188	; 0x90000004
 828:	51494600 	cmppl	r9, r0, lsl #12
 82c:	6e6f635f 	mcrvs	3, 3, r6, cr15, cr15, {2}
 830:	6c6f7274 	sfmvs	f7, 2, [pc], #-464	; 668 <__code_start__-0x7998>
 834:	6e695f00 	cdpvs	15, 6, cr5, cr9, cr0, {0}
 838:	72726574 	rsbsvc	r6, r2, #116, 10	; 0x1d000000
 83c:	5f747075 	svcpl	0x00747075
 840:	6c626174 	stfvse	f6, [r2], #-464	; 0xfffffe30
 844:	52490065 	subpl	r0, r9, #101	; 0x65
 848:	61625f51 	cmnvs	r2, r1, asr pc
 84c:	5f636973 	svcpl	0x00636973
 850:	646e6570 	strbtvs	r6, [lr], #-1392	; 0x570
 854:	00676e69 	rsbeq	r6, r7, r9, ror #28
 858:	62616e45 	rsbvs	r6, r1, #1104	; 0x450
 85c:	425f656c 	subsmi	r6, pc, #108, 10	; 0x1b000000
 860:	63697361 	cmnvs	r9, #-2080374783	; 0x84000001
 864:	5152495f 	cmppl	r2, pc, asr r9
 868:	6e450073 	mcrvs	0, 2, r0, cr5, cr3, {3}
 86c:	656c6261 	strbvs	r6, [ip, #-609]!	; 0x261
 870:	5152495f 	cmppl	r2, pc, asr r9
 874:	00315f73 	eorseq	r5, r1, r3, ror pc
 878:	62616e45 	rsbvs	r6, r1, #1104	; 0x450
 87c:	495f656c 	ldmdbmi	pc, {r2, r3, r5, r6, r8, sl, sp, lr}^	; <UNPREDICTABLE>
 880:	5f735152 	svcpl	0x00735152
 884:	695f0032 	ldmdbvs	pc, {r1, r4, r5}^	; <UNPREDICTABLE>
 888:	7265746e 	rsbvc	r7, r5, #1845493760	; 0x6e000000
 88c:	74707572 	ldrbtvc	r7, [r0], #-1394	; 0x572
 890:	6261745f 	rsbvs	r7, r1, #1593835520	; 0x5f000000
 894:	655f656c 	ldrbvs	r6, [pc, #-1388]	; 330 <__code_start__-0x7cd0>
 898:	6400646e 	strvs	r6, [r0], #-1134	; 0x46e
 89c:	625f7665 	subsvs	r7, pc, #105906176	; 0x6500000
 8a0:	69727261 	ldmdbvs	r2!, {r0, r5, r6, r9, ip, sp, lr}^
 8a4:	73007265 	movwvc	r7, #613	; 0x265
 8a8:	66666174 			; <UNDEFINED> instruction: 0x66666174
 8ac:	6372732d 	cmnvs	r2, #-1275068416	; 0xb4000000
 8b0:	746e692f 	strbtvc	r6, [lr], #-2351	; 0x92f
 8b4:	75727265 	ldrbvc	r7, [r2, #-613]!	; 0x265
 8b8:	2d737470 	cfldrdcs	mvd7, [r3, #-448]!	; 0xfffffe40
 8bc:	00632e63 	rsbeq	r2, r3, r3, ror #28
 8c0:	5f515249 	svcpl	0x00515249
 8c4:	65736142 	ldrbvs	r6, [r3, #-322]!	; 0x142
 8c8:	54555000 	ldrbpl	r5, [r5], #-0
 8cc:	44003233 	strmi	r3, [r0], #-563	; 0x233
 8d0:	62617369 	rsbvs	r7, r1, #-1543503871	; 0xa4000001
 8d4:	495f656c 	ldmdbmi	pc, {r2, r3, r5, r6, r8, sl, sp, lr}^	; <UNPREDICTABLE>
 8d8:	5f735152 	svcpl	0x00735152
 8dc:	69440031 	stmdbvs	r4, {r0, r4, r5}^
 8e0:	6c626173 	stfvse	f6, [r2], #-460	; 0xfffffe34
 8e4:	52495f65 	subpl	r5, r9, #404	; 0x194
 8e8:	325f7351 	subscc	r7, pc, #1140850689	; 0x44000001
 8ec:	51524900 	cmppl	r2, r0, lsl #18
 8f0:	6e65705f 	mcrvs	0, 3, r7, cr5, cr15, {2}
 8f4:	676e6964 	strbvs	r6, [lr, -r4, ror #18]!
 8f8:	6100315f 	tstvs	r0, pc, asr r1
 8fc:	73755f74 	cmnvc	r5, #116, 30	; 0x1d0
 900:	6c5f7265 	lfmvs	f7, 2, [pc], {101}	; 0x65
 904:	6c657665 	stclvs	6, cr7, [r5], #-404	; 0xfffffe6c
 908:	61747300 	cmnvs	r4, r0, lsl #6
 90c:	732d6666 	teqvc	sp, #106954752	; 0x6600000
 910:	722f6372 	eorvc	r6, pc, #-939524095	; 0xc8000001
 914:	6f6f6265 	svcvs	0x006f6265
 918:	00632e74 	rsbeq	r2, r3, r4, ror lr
 91c:	525f4d50 	subspl	r4, pc, #80, 26	; 0x1400
 920:	5f435453 	svcpl	0x00435453
 924:	46435257 			; <UNDEFINED> instruction: 0x46435257
 928:	55465f47 	strbpl	r5, [r6, #-3911]	; 0xf47
 92c:	525f4c4c 	subspl	r4, pc, #76, 24	; 0x4c00
 930:	54455345 	strbpl	r5, [r5], #-837	; 0x345
 934:	5f4d5000 	svcpl	0x004d5000
 938:	474f4457 	smlsldmi	r4, pc, r7, r4	; <UNPREDICTABLE>
 93c:	74657300 	strbtvc	r7, [r5], #-768	; 0x300
 940:	6573755f 	ldrbvs	r7, [r3, #-1375]!	; 0x55f
 944:	656c5f72 	strbvs	r5, [ip, #-3954]!	; 0xf72
 948:	006c6576 	rsbeq	r6, ip, r6, ror r5
 94c:	505f4d50 	subspl	r4, pc, r0, asr sp	; <UNPREDICTABLE>
 950:	57535341 	ldrbpl	r5, [r3, -r1, asr #6]
 954:	0044524f 	subeq	r5, r4, pc, asr #4
 958:	525f4d50 	subspl	r4, pc, #80, 26	; 0x1400
 95c:	00435453 	subeq	r5, r3, r3, asr r4
 960:	656d6974 	strbvs	r6, [sp, #-2420]!	; 0x974
 964:	65675f72 	strbvs	r5, [r7, #-3954]!	; 0xf72
 968:	73755f74 	cmnvc	r5, #116, 30	; 0x1d0
 96c:	725f6365 	subsvc	r6, pc, #-1811939327	; 0x94000001
 970:	64007761 	strvs	r7, [r0], #-1889	; 0x761
 974:	79616c65 	stmdbvc	r1!, {r0, r2, r5, r6, sl, fp, sp, lr}^
 978:	6365735f 	cmnvs	r5, #2080374785	; 0x7c000001
 97c:	61747300 	cmnvs	r4, r0, lsl #6
 980:	732d6666 	teqvc	sp, #106954752	; 0x6600000
 984:	742f6372 	strtvc	r6, [pc], #-882	; 98c <__code_start__-0x7674>
 988:	72656d69 	rsbvc	r6, r5, #6720	; 0x1a40
 98c:	4700632e 	strmi	r6, [r0, -lr, lsr #6]
 990:	32335445 	eorscc	r5, r3, #1157627904	; 0x45000000
 994:	63697400 	cmnvs	r9, #0, 8
 998:	6400736b 	strvs	r7, [r0], #-875	; 0x36b
 99c:	79616c65 	stmdbvc	r1!, {r0, r2, r5, r6, sl, fp, sp, lr}^
 9a0:	6379635f 	cmnvs	r9, #2080374785	; 0x7c000001
 9a4:	0073656c 	rsbseq	r6, r3, ip, ror #10
 9a8:	616c6564 	cmnvs	ip, r4, ror #10
 9ac:	73755f79 	cmnvc	r5, #484	; 0x1e4
 9b0:	6d697400 	cfstrdvs	mvd7, [r9, #-0]
 9b4:	675f7265 	ldrbvs	r7, [pc, -r5, ror #4]
 9b8:	755f7465 	ldrbvc	r7, [pc, #-1125]	; 55b <__code_start__-0x7aa5>
 9bc:	00636573 	rsbeq	r6, r3, r3, ror r5
 9c0:	6f73645f 	svcvs	0x0073645f
 9c4:	6e61685f 	mcrvs	8, 3, r6, cr1, cr15, {2}
 9c8:	00656c64 	rsbeq	r6, r5, r4, ror #24
 9cc:	7a69735f 	bvc	1a5d750 <__bss_end__+0x1a531d8>
 9d0:	725f0065 	subsvc	r0, pc, #101	; 0x65
 9d4:	34646e61 	strbtcc	r6, [r4], #-3681	; 0xe61
 9d8:	655f0038 	ldrbvs	r0, [pc, #-56]	; 9a8 <__code_start__-0x7658>
 9dc:	6772656d 	ldrbvs	r6, [r2, -sp, ror #10]!
 9e0:	79636e65 	stmdbvc	r3!, {r0, r2, r5, r6, r9, sl, fp, sp, lr}^
 9e4:	72617500 	rsbvc	r7, r1, #0, 10
 9e8:	6e695f74 	mcrvs	15, 3, r5, cr9, cr4, {3}
 9ec:	5f007469 	svcpl	0x00007469
 9f0:	74726377 	ldrbtvc	r6, [r2], #-887	; 0x377
 9f4:	5f626d6f 	svcpl	0x00626d6f
 9f8:	74617473 	strbtvc	r7, [r1], #-1139	; 0x473
 9fc:	775f0065 	ldrbvc	r0, [pc, -r5, rrx]
 a00:	74727363 	ldrbtvc	r7, [r2], #-867	; 0x363
 a04:	73626d6f 	cmnvc	r2, #7104	; 0x1bc0
 a08:	6174735f 	cmnvs	r4, pc, asr r3
 a0c:	5f006574 	svcpl	0x00006574
 a10:	7366626c 	cmnvc	r6, #108, 4	; 0xc0000006
 a14:	00657a69 	rsbeq	r7, r5, r9, ror #20
 a18:	4f495047 	svcmi	0x00495047
 a1c:	4e55465f 	mrcmi	6, 2, r4, cr5, cr15, {2}
 a20:	4e495f43 	cdpmi	15, 4, cr5, cr9, cr3, {2}
 a24:	00545550 	subseq	r5, r4, r0, asr r5
 a28:	72626d5f 	rsbvc	r6, r2, #6080	; 0x17c0
 a2c:	63776f74 	cmnvs	r7, #116, 30	; 0x1d0
 a30:	6174735f 	cmnvs	r4, pc, asr r3
 a34:	5f006574 	svcpl	0x00006574
 a38:	6f746377 	svcvs	0x00746377
 a3c:	735f626d 	cmpvc	pc, #-805306362	; 0xd0000006
 a40:	65746174 	ldrbvs	r6, [r4, #-372]!	; 0x174
 a44:	745f5f00 	ldrbvc	r5, [pc], #-3840	; a4c <__code_start__-0x75b4>
 a48:	65735f6d 	ldrbvs	r5, [r3, #-3949]!	; 0xf6d
 a4c:	74730063 	ldrbtvc	r0, [r3], #-99	; 0x63
 a50:	5f007461 	svcpl	0x00007461
 a54:	66756275 			; <UNDEFINED> instruction: 0x66756275
 a58:	49504700 	ldmdbmi	r0, {r8, r9, sl, lr}^
 a5c:	55465f4f 	strbpl	r5, [r6, #-3919]	; 0xf4f
 a60:	415f434e 	cmpmi	pc, lr, asr #6
 a64:	0031544c 	eorseq	r5, r1, ip, asr #8
 a68:	7361625f 	cmnvc	r1, #-268435451	; 0xf0000005
 a6c:	6e630065 	cdpvs	0, 6, cr0, cr3, cr5, {3}
 a70:	5f006c74 	svcpl	0x00006c74
 a74:	5f6d745f 	svcpl	0x006d745f
 a78:	72756f68 	rsbsvc	r6, r5, #104, 30	; 0x1a0
 a7c:	735f5f00 	cmpvc	pc, #0, 30
 a80:	6f5f0066 	svcvs	0x005f0066
 a84:	78655f6e 	stmdavc	r5!, {r1, r2, r3, r5, r6, r8, r9, sl, fp, ip, lr}^
 a88:	615f7469 	cmpvs	pc, r9, ror #8
 a8c:	00736772 	rsbseq	r6, r3, r2, ror r7
 a90:	6f6f635f 	svcvs	0x006f635f
 a94:	0065696b 	rsbeq	r6, r5, fp, ror #18
 a98:	67735f5f 			; <UNDEFINED> instruction: 0x67735f5f
 a9c:	0065756c 	rsbeq	r7, r5, ip, ror #10
 aa0:	616c665f 	cmnvs	ip, pc, asr r6
 aa4:	5f007367 	svcpl	0x00007367
 aa8:	635f7369 	cmpvs	pc, #-1543503871	; 0xa4000001
 aac:	5f006178 	svcpl	0x00006178
 ab0:	69647473 	stmdbvs	r4!, {r0, r1, r4, r5, r6, sl, ip, sp, lr}^
 ab4:	625f006e 	subsvs	r0, pc, #110	; 0x6e
 ab8:	69736b6c 	ldmdbvs	r3!, {r2, r3, r5, r6, r8, r9, fp, sp, lr}^
 abc:	7500657a 	strvc	r6, [r0, #-1402]	; 0x57a
 ac0:	2e747261 	cdpcs	2, 7, cr7, cr4, cr1, {3}
 ac4:	75610063 	strbvc	r0, [r1, #-99]!	; 0x63
 ac8:	65705f78 	ldrbvs	r5, [r0, #-3960]!	; 0xf78
 acc:	68706972 	ldmdavs	r0!, {r1, r4, r5, r6, r8, fp, sp, lr}^
 ad0:	635f0073 	cmpvs	pc, #115	; 0x73
 ad4:	75627476 	strbvc	r7, [r2, #-1142]!	; 0x476
 ad8:	682f0066 	stmdavs	pc!, {r1, r2, r5, r6}	; <UNPREDICTABLE>
 adc:	2f656d6f 	svccs	0x00656d6f
 ae0:	6c676e65 	stclvs	14, cr6, [r7], #-404	; 0xfffffe6c
 ae4:	632f7265 	teqvs	pc, #1342177286	; 0x50000006
 ae8:	7373616c 	cmnvc	r3, #108, 2
 aec:	3273632f 	rsbscc	r6, r3, #-1140850688	; 0xbc000000
 af0:	786c3034 	stmdavc	ip!, {r2, r4, r5, ip, sp}^
 af4:	7330322d 	teqvc	r0, #-805306366	; 0xd0000002
 af8:	6c2f7270 	sfmvs	f7, 4, [pc], #-448	; 940 <__code_start__-0x76c0>
 afc:	69706269 	ldmdbvs	r0!, {r0, r3, r5, r6, r9, sp, lr}^
 b00:	6174732f 	cmnvs	r4, pc, lsr #6
 b04:	702d6666 	eorvc	r6, sp, r6, ror #12
 b08:	61766972 	cmnvs	r6, r2, ror r9
 b0c:	5f006574 	svcpl	0x00006574
 b10:	7273626d 	rsbsvc	r6, r3, #-805306362	; 0xd0000006
 b14:	63776f74 	cmnvs	r7, #116, 30	; 0x1d0
 b18:	74735f73 	ldrbtvc	r5, [r3], #-3955	; 0xf73
 b1c:	00657461 	rsbeq	r7, r5, r1, ror #8
 b20:	72626d5f 	rsbvc	r6, r2, #6080	; 0x17c0
 b24:	5f6e656c 	svcpl	0x006e656c
 b28:	74617473 	strbtvc	r7, [r1], #-1139	; 0x473
 b2c:	665f0065 	ldrbvs	r0, [pc], -r5, rrx
 b30:	6772616e 	ldrbvs	r6, [r2, -lr, ror #2]!
 b34:	75610073 	strbvc	r0, [r1, #-115]!	; 0x73
 b38:	6e655f78 	mcrvs	15, 3, r5, cr5, cr8, {3}
 b3c:	656c6261 	strbvs	r6, [ip, #-609]!	; 0x261
 b40:	665f0073 			; <UNDEFINED> instruction: 0x665f0073
 b44:	5f00736e 	svcpl	0x0000736e
 b48:	6e676973 	mcrvs	9, 3, r6, cr7, cr3, {3}
 b4c:	72617500 	rsbvc	r7, r1, #0, 10
 b50:	61635f74 	smcvs	13812	; 0x35f4
 b54:	75705f6e 	ldrbvc	r5, [r0, #-3950]!	; 0xf6e
 b58:	5f006374 	svcpl	0x00006374
 b5c:	636f6c66 	cmnvs	pc, #26112	; 0x6600
 b60:	00745f6b 	rsbseq	r5, r4, fp, ror #30
 b64:	6474735f 	ldrbtvs	r7, [r4], #-863	; 0x35f
 b68:	00727265 	rsbseq	r7, r2, r5, ror #4
 b6c:	6769425f 			; <UNDEFINED> instruction: 0x6769425f
 b70:	00746e69 	rsbseq	r6, r4, r9, ror #28
 b74:	6d61675f 	stclvs	7, cr6, [r1, #-380]!	; 0xfffffe84
 b78:	735f616d 	cmpvc	pc, #1073741851	; 0x4000001b
 b7c:	676e6769 	strbvs	r6, [lr, -r9, ror #14]!
 b80:	5f006d61 	svcpl	0x00006d61
 b84:	75736572 	ldrbvc	r6, [r3, #-1394]!	; 0x572
 b88:	6b5f746c 	blvs	17ddd40 <__bss_end__+0x17d37c8>
 b8c:	745f5f00 	ldrbvc	r5, [pc], #-3840	; b94 <__code_start__-0x746c>
 b90:	5f5f006d 	svcpl	0x005f006d
 b94:	62686377 	rsbvs	r6, r8, #-603979775	; 0xdc000001
 b98:	72617500 	rsbvc	r7, r1, #0, 10
 b9c:	65675f74 	strbvs	r5, [r7, #-3956]!	; 0xf74
 ba0:	5f006374 	svcpl	0x00006374
 ba4:	6f647473 	svcvs	0x00647473
 ba8:	5f007475 	svcpl	0x00007475
 bac:	6c747663 	ldclvs	6, cr7, [r4], #-396	; 0xfffffe74
 bb0:	5f006e65 	svcpl	0x00006e65
 bb4:	656c6966 	strbvs	r6, [ip, #-2406]!	; 0x966
 bb8:	696e5f00 	stmdbvs	lr!, {r8, r9, sl, fp, ip, lr}^
 bbc:	0073626f 	rsbseq	r6, r3, pc, ror #4
 bc0:	6574615f 	ldrbvs	r6, [r4, #-351]!	; 0x15f
 bc4:	30746978 	rsbscc	r6, r4, r8, ror r9
 bc8:	69735f00 	ldmdbvs	r3!, {r8, r9, sl, fp, ip, lr}^
 bcc:	6c616e67 	stclvs	14, cr6, [r1], #-412	; 0xfffffe64
 bd0:	6675625f 			; <UNDEFINED> instruction: 0x6675625f
 bd4:	73615f00 	cmnvc	r1, #0, 30
 bd8:	6d697463 	cfstrdvs	mvd7, [r9, #-396]!	; 0xfffffe74
 bdc:	75625f65 	strbvc	r5, [r2, #-3941]!	; 0xf65
 be0:	725f0066 	subsvc	r0, pc, #102	; 0x66
 be4:	6c757365 	ldclvs	3, cr7, [r5], #-404	; 0xfffffe6c
 be8:	5f5f0074 	svcpl	0x005f0074
 bec:	00686377 	rsbeq	r6, r8, r7, ror r3
 bf0:	4f495047 	svcmi	0x00495047
 bf4:	4e55465f 	mrcmi	6, 2, r4, cr5, cr15, {2}
 bf8:	4c415f43 	mcrrmi	15, 4, r5, r1, cr3
 bfc:	77003254 	smlsdvc	r0, r4, r2, r3
 c00:	5f746e69 	svcpl	0x00746e69
 c04:	6c5f0074 	mrrcvs	0, 7, r0, pc, cr4	; <UNPREDICTABLE>
 c08:	006b636f 	rsbeq	r6, fp, pc, ror #6
 c0c:	616c665f 	cmnvs	ip, pc, asr r6
 c10:	00327367 	eorseq	r7, r2, r7, ror #6
 c14:	6d745f5f 	ldclvs	15, cr5, [r4, #-380]!	; 0xfffffe84
 c18:	6165795f 	cmnvs	r5, pc, asr r9
 c1c:	6f5f0072 	svcvs	0x005f0072
 c20:	65736666 	ldrbvs	r6, [r3, #-1638]!	; 0x666
 c24:	70670074 	rsbvc	r0, r7, r4, ror r0
 c28:	735f6f69 	cmpvc	pc, #420	; 0x1a4
 c2c:	665f7465 	ldrbvs	r7, [pc], -r5, ror #8
 c30:	74636e75 	strbtvc	r6, [r3], #-3701	; 0xe75
 c34:	006e6f69 	rsbeq	r6, lr, r9, ror #30
 c38:	78656e5f 	stmdavc	r5!, {r0, r1, r2, r3, r4, r6, r9, sl, fp, sp, lr}^
 c3c:	5f006674 	svcpl	0x00006674
 c40:	5f6d745f 	svcpl	0x006d745f
 c44:	006e6f6d 	rsbeq	r6, lr, sp, ror #30
 c48:	6574615f 	ldrbvs	r6, [r4, #-351]!	; 0x15f
 c4c:	00746978 	rsbseq	r6, r4, r8, ror r9
 c50:	64735f5f 	ldrbtvs	r5, [r3], #-3935	; 0xf5f
 c54:	6e696469 	cdpvs	4, 6, cr6, cr9, cr9, {3}
 c58:	5f007469 	svcpl	0x00007469
 c5c:	5f66666f 	svcpl	0x0066666f
 c60:	61750074 	cmnvs	r5, r4, ror r0
 c64:	5f007472 	svcpl	0x00007472
 c68:	65657266 	strbvs	r7, [r5, #-614]!	; 0x266
 c6c:	7473696c 	ldrbtvc	r6, [r3], #-2412	; 0x96c
 c70:	4f4c5f00 	svcmi	0x004c5f00
 c74:	525f4b43 	subspl	r4, pc, #68608	; 0x10c00
 c78:	52554345 	subspl	r4, r5, #335544321	; 0x14000001
 c7c:	45564953 	ldrbmi	r4, [r6, #-2387]	; 0x953
 c80:	5f00545f 	svcpl	0x0000545f
 c84:	0077656e 	rsbseq	r6, r7, lr, ror #10
 c88:	655f685f 	ldrbvs	r6, [pc, #-2143]	; 431 <__code_start__-0x7bcf>
 c8c:	6f6e7272 	svcvs	0x006e7272
 c90:	745f5f00 	ldrbvc	r5, [pc], #-3840	; c98 <__code_start__-0x7368>
 c94:	64795f6d 	ldrbtvs	r5, [r9], #-3949	; 0xf6d
 c98:	5f007961 	svcpl	0x00007961
 c9c:	7562735f 	strbvc	r7, [r2, #-863]!	; 0x35f
 ca0:	695f0066 	ldmdbvs	pc, {r1, r2, r5, r6}^	; <UNPREDICTABLE>
 ca4:	0073626f 	rsbseq	r6, r3, pc, ror #4
 ca8:	49465f5f 	stmdbmi	r6, {r0, r1, r2, r3, r4, r6, r8, r9, sl, fp, ip, lr}^
 cac:	5f00454c 	svcpl	0x0000454c
 cb0:	7473626d 	ldrbtvc	r6, [r3], #-621	; 0x26d
 cb4:	5f657461 	svcpl	0x00657461
 cb8:	5f5f0074 	svcpl	0x005f0074
 cbc:	4c494673 	mcrrmi	6, 7, r4, r9, cr3
 cc0:	6d5f0045 	ldclvs	0, cr0, [pc, #-276]	; bb4 <__code_start__-0x744c>
 cc4:	61747362 	cmnvs	r4, r2, ror #6
 cc8:	5f006574 	svcpl	0x00006574
 ccc:	646e6172 	strbtvs	r6, [lr], #-370	; 0x172
 cd0:	78656e5f 	stmdavc	r5!, {r0, r1, r2, r3, r4, r6, r9, sl, fp, sp, lr}^
 cd4:	6d5f0074 	ldclvs	0, cr0, [pc, #-464]	; b0c <__code_start__-0x74f4>
 cd8:	6e656c62 	cdpvs	12, 6, cr6, cr5, cr2, {3}
 cdc:	6174735f 	cmnvs	r4, pc, asr r3
 ce0:	5f006574 	svcpl	0x00006574
 ce4:	00636e69 	rsbeq	r6, r3, r9, ror #28
 ce8:	646e695f 	strbtvs	r6, [lr], #-2399	; 0x95f
 cec:	75635f00 	strbvc	r5, [r3, #-3840]!	; 0xf00
 cf0:	6e657272 	mcrvs	2, 3, r7, cr5, cr2, {3}
 cf4:	6f6c5f74 	svcvs	0x006c5f74
 cf8:	656c6163 	strbvs	r6, [ip, #-355]!	; 0x163
 cfc:	635f5f00 	cmpvs	pc, #0, 30
 d00:	6e61656c 	cdpvs	5, 6, cr6, cr1, cr12, {3}
 d04:	5f007075 	svcpl	0x00007075
 d08:	7778616d 	ldrbvc	r6, [r8, -sp, ror #2]!
 d0c:	5f007364 	svcpl	0x00007364
 d10:	6e656572 	mcrvs	5, 3, r6, cr5, cr2, {3}
 d14:	735f0074 	cmpvc	pc, #116	; 0x74
 d18:	00646565 	rsbeq	r6, r4, r5, ror #10
 d1c:	6f635f5f 	svcvs	0x00635f5f
 d20:	00746e75 	rsbseq	r6, r4, r5, ror lr
 d24:	61765f5f 	cmnvs	r6, pc, asr pc
 d28:	0065756c 	rsbeq	r7, r5, ip, ror #10
 d2c:	6565735f 	strbvs	r7, [r5, #-863]!	; 0x35f
 d30:	6162006b 	cmnvs	r2, fp, rrx
 d34:	5f006475 	svcpl	0x00006475
 d38:	736f7066 	cmnvc	pc, #102	; 0x66
 d3c:	5f00745f 	svcpl	0x0000745f
 d40:	5f6d745f 	svcpl	0x006d745f
 d44:	006e696d 	rsbeq	r6, lr, sp, ror #18
 d48:	61726373 	cmnvs	r2, r3, ror r3
 d4c:	00686374 	rsbeq	r6, r8, r4, ror r3
 d50:	6c756d5f 	ldclvs	13, cr6, [r5], #-380	; 0xfffffe84
 d54:	75700074 	ldrbvc	r0, [r0, #-116]!	; 0x74
 d58:	00323374 	eorseq	r3, r2, r4, ror r3
 d5c:	20554e47 	subscs	r4, r5, r7, asr #28
 d60:	20393943 	eorscs	r3, r9, r3, asr #18
 d64:	2e332e36 	mrccs	14, 1, r2, cr3, cr6, {1}
 d68:	30322031 	eorscc	r2, r2, r1, lsr r0
 d6c:	36303731 			; <UNDEFINED> instruction: 0x36303731
 d70:	2d203032 	stccs	0, cr3, [r0, #-200]!	; 0xffffff38
 d74:	7570636d 	ldrbvc	r6, [r0, #-877]!	; 0x36d
 d78:	6d72613d 	ldfvse	f6, [r2, #-244]!	; 0xffffff0c
 d7c:	36373131 			; <UNDEFINED> instruction: 0x36373131
 d80:	2d667a6a 	vstmdbcs	r6!, {s15-s120}
 d84:	6d2d2073 	stcvs	0, cr2, [sp, #-460]!	; 0xfffffe34
 d88:	656e7574 	strbvs	r7, [lr, #-1396]!	; 0x574
 d8c:	6d72613d 	ldfvse	f6, [r2, #-244]!	; 0xffffff0c
 d90:	36373131 			; <UNDEFINED> instruction: 0x36373131
 d94:	2d667a6a 	vstmdbcs	r6!, {s15-s120}
 d98:	672d2073 			; <UNDEFINED> instruction: 0x672d2073
 d9c:	20626467 	rsbcs	r6, r2, r7, ror #8
 da0:	20674f2d 	rsbcs	r4, r7, sp, lsr #30
 da4:	6474732d 	ldrbtvs	r7, [r4], #-813	; 0x32d
 da8:	756e673d 	strbvc	r6, [lr, #-1853]!	; 0x73d
 dac:	2d203939 	stccs	9, cr3, [r0, #-228]!	; 0xffffff1c
 db0:	65726666 	ldrbvs	r6, [r2, #-1638]!	; 0x666
 db4:	61747365 	cmnvs	r4, r5, ror #6
 db8:	6e69646e 	cdpvs	4, 6, cr6, cr9, cr14, {3}
 dbc:	735f0067 	cmpvc	pc, #103	; 0x67
 dc0:	6f747274 	svcvs	0x00747274
 dc4:	616c5f6b 	cmnvs	ip, fp, ror #30
 dc8:	5f007473 	svcpl	0x00007473
 dcc:	79746e66 	ldmdbvc	r4!, {r1, r2, r5, r6, r9, sl, fp, sp, lr}^
 dd0:	00736570 	rsbseq	r6, r3, r0, ror r5
 dd4:	6464615f 	strbtvs	r6, [r4], #-351	; 0x15f
 dd8:	555f5f00 	ldrbpl	r5, [pc, #-3840]	; fffffee0 <__bss_end__+0xffff5968>
 ddc:	676e6f4c 	strbvs	r6, [lr, -ip, asr #30]!
 de0:	65675f00 	strbvs	r5, [r7, #-3840]!	; 0xf00
 de4:	74616474 	strbtvc	r6, [r1], #-1140	; 0x474
 de8:	72655f65 	rsbvc	r5, r5, #404	; 0x194
 dec:	675f0072 			; <UNDEFINED> instruction: 0x675f0072
 df0:	61626f6c 	cmnvs	r2, ip, ror #30
 df4:	6d695f6c 	stclvs	15, cr5, [r9, #-432]!	; 0xfffffe50
 df8:	65727570 	ldrbvs	r7, [r2, #-1392]!	; 0x570
 dfc:	7274705f 	rsbsvc	r7, r4, #95	; 0x5f
 e00:	75635f00 	strbvc	r5, [r3, #-3840]!	; 0xf00
 e04:	6e657272 	mcrvs	2, 3, r7, cr5, cr2, {3}
 e08:	61635f74 	smcvs	13812	; 0x35f4
 e0c:	6f676574 	svcvs	0x00676574
 e10:	5f007972 	svcpl	0x00007972
 e14:	73756e75 	cmnvc	r5, #1872	; 0x750
 e18:	725f6465 	subsvc	r6, pc, #1694498816	; 0x65000000
 e1c:	00646e61 	rsbeq	r6, r4, r1, ror #28
 e20:	7364775f 	cmnvc	r4, #24903680	; 0x17c0000
 e24:	745f5f00 	ldrbvc	r5, [pc], #-3840	; e2c <__code_start__-0x71d4>
 e28:	64775f6d 	ldrbtvs	r5, [r7], #-3949	; 0xf6d
 e2c:	5f007961 	svcpl	0x00007961
 e30:	65756c67 	ldrbvs	r6, [r5, #-3175]!	; 0xc67
 e34:	49504700 	ldmdbmi	r0, {r8, r9, sl, lr}^
 e38:	55465f4f 	strbpl	r5, [r6, #-3919]	; 0xf4f
 e3c:	4f5f434e 	svcmi	0x005f434e
 e40:	55505455 	ldrbpl	r5, [r0, #-1109]	; 0x455
 e44:	6e5f0054 	mrcvs	0, 2, r0, cr15, cr4, {2}
 e48:	6c6c616d 	stfvse	f6, [ip], #-436	; 0xfffffe4c
 e4c:	5f00636f 	svcpl	0x0000636f
 e50:	6134366c 	teqvs	r4, ip, ror #12
 e54:	6675625f 			; <UNDEFINED> instruction: 0x6675625f
 e58:	74656700 	strbtvc	r6, [r5], #-1792	; 0x700
 e5c:	75003233 	strvc	r3, [r0, #-563]	; 0x233
 e60:	5f747261 	svcpl	0x00747261
 e64:	5f6e6163 	svcpl	0x006e6163
 e68:	63746567 	cmnvs	r4, #432013312	; 0x19c00000
 e6c:	69735f00 	ldmdbvs	r3!, {r8, r9, sl, fp, ip, lr}^
 e70:	75665f67 	strbvc	r5, [r6, #-3943]!	; 0xf67
 e74:	6f00636e 	svcvs	0x0000636e
 e78:	6e695f72 	mcrvs	15, 3, r5, cr9, cr2, {3}
 e7c:	75003233 	strvc	r3, [r0, #-563]	; 0x233
 e80:	5f747261 	svcpl	0x00747261
 e84:	5f736168 	svcpl	0x00736168
 e88:	61746164 	cmnvs	r4, r4, ror #2
 e8c:	49504700 	ldmdbmi	r0, {r8, r9, sl, lr}^
 e90:	55465f4f 	strbpl	r5, [r6, #-3919]	; 0xf4f
 e94:	415f434e 	cmpmi	pc, lr, asr #6
 e98:	0030544c 	eorseq	r5, r0, ip, asr #8
 e9c:	75626e5f 	strbvc	r6, [r2, #-3679]!	; 0xe5f
 ea0:	755f0066 	ldrbvc	r0, [pc, #-102]	; e42 <__code_start__-0x71be>
 ea4:	6573756e 	ldrbvs	r7, [r3, #-1390]!	; 0x56e
 ea8:	50470064 	subpl	r0, r7, r4, rrx
 eac:	465f4f49 	ldrbmi	r4, [pc], -r9, asr #30
 eb0:	5f434e55 	svcpl	0x00434e55
 eb4:	33544c41 	cmpcc	r4, #16640	; 0x4100
 eb8:	49504700 	ldmdbmi	r0, {r8, r9, sl, lr}^
 ebc:	55465f4f 	strbpl	r5, [r6, #-3919]	; 0xf4f
 ec0:	415f434e 	cmpmi	pc, lr, asr #6
 ec4:	0034544c 	eorseq	r5, r4, ip, asr #8
 ec8:	4f495047 	svcmi	0x00495047
 ecc:	4e55465f 	mrcmi	6, 2, r4, cr5, cr15, {2}
 ed0:	4c415f43 	mcrrmi	15, 4, r5, r1, cr3
 ed4:	5f003554 	svcpl	0x00003554
 ed8:	5f6d745f 	svcpl	0x006d745f
 edc:	73647369 	cmnvc	r4, #-1543503871	; 0xa4000001
 ee0:	6c5f0074 	mrrcvs	0, 7, r0, pc, cr4	; <UNPREDICTABLE>
 ee4:	6c61636f 	stclvs	3, cr6, [r1], #-444	; 0xfffffe44
 ee8:	656d6974 	strbvs	r6, [sp, #-2420]!	; 0x974
 eec:	6675625f 			; <UNDEFINED> instruction: 0x6675625f
 ef0:	6c635f00 	stclvs	15, cr5, [r3], #-0
 ef4:	0065736f 	rsbeq	r7, r5, pc, ror #6
 ef8:	3834725f 	ldmdacc	r4!, {r0, r1, r2, r3, r4, r6, r9, ip, sp, lr}
 efc:	626d5f00 	rsbvs	r5, sp, #0, 30
 f00:	63776f74 	cmnvs	r7, #116, 30	; 0x1d0
 f04:	6174735f 	cmnvs	r4, pc, asr r3
 f08:	5f006574 	svcpl	0x00006574
 f0c:	00733570 	rsbseq	r3, r3, r0, ror r5
 f10:	6d745f5f 	ldclvs	15, cr5, [r4, #-380]!	; 0xfffffe84
 f14:	61646d5f 	cmnvs	r4, pc, asr sp
 f18:	70670079 	rsbvc	r0, r7, r9, ror r0
 f1c:	735f6f69 	cmpvc	pc, #420	; 0x1a4
 f20:	6f5f7465 	svcvs	0x005f7465
 f24:	62006666 	andvs	r6, r0, #106954752	; 0x6600000
 f28:	006b6e61 	rsbeq	r6, fp, r1, ror #28
 f2c:	6f697067 	svcvs	0x00697067
 f30:	6700632e 	strvs	r6, [r0, -lr, lsr #6]
 f34:	5f6f6970 	svcpl	0x006f6970
 f38:	64616572 	strbtvs	r6, [r1], #-1394	; 0x572
 f3c:	69706700 	ldmdbvs	r0!, {r8, r9, sl, sp, lr}^
 f40:	65735f6f 	ldrbvs	r5, [r3, #-3951]!	; 0xf6f
 f44:	756f5f74 	strbvc	r5, [pc, #-3956]!	; ffffffd8 <__bss_end__+0xffff5a60>
 f48:	74757074 	ldrbtvc	r7, [r5], #-116	; 0x74
 f4c:	69706700 	ldmdbvs	r0!, {r8, r9, sl, sp, lr}^
 f50:	72775f6f 	rsbsvc	r5, r7, #444	; 0x1bc
 f54:	00657469 	rsbeq	r7, r5, r9, ror #8
 f58:	6f697067 	svcvs	0x00697067
 f5c:	7465735f 	strbtvc	r7, [r5], #-863	; 0x35f
 f60:	70670030 	rsbvc	r0, r7, r0, lsr r0
 f64:	6c5f6f69 	mrrcvs	15, 6, r6, pc, cr9	; <UNPREDICTABLE>
 f68:	00307665 	eorseq	r7, r0, r5, ror #12
 f6c:	6f697067 	svcvs	0x00697067
 f70:	7465735f 	strbtvc	r7, [r5], #-863	; 0x35f
 f74:	706e695f 	rsbvc	r6, lr, pc, asr r9
 f78:	67007475 	smlsdxvs	r0, r5, r4, r7
 f7c:	5f6f6970 	svcpl	0x006f6970
 f80:	5f746573 	svcpl	0x00746573
 f84:	67006e6f 	strvs	r6, [r0, -pc, ror #28]
 f88:	5f6f6970 	svcpl	0x006f6970
 f8c:	636e7566 	cmnvs	lr, #427819008	; 0x19800000
 f90:	6700745f 	smlsdvs	r0, pc, r4, r7	; <UNPREDICTABLE>
 f94:	5f6f6970 	svcpl	0x006f6970
 f98:	30726c63 	rsbscc	r6, r2, r3, ror #24
	...

Disassembly of section .debug_frame:

00000000 <.debug_frame>:
   0:	0000000c 	andeq	r0, r0, ip
   4:	ffffffff 			; <UNDEFINED> instruction: 0xffffffff
   8:	7c020001 	stcvc	0, cr0, [r2], {1}
   c:	000d0c0e 	andeq	r0, sp, lr, lsl #24
  10:	00000014 	andeq	r0, r0, r4, lsl r0
  14:	00000000 	andeq	r0, r0, r0
  18:	00008020 	andeq	r8, r0, r0, lsr #32
  1c:	00000050 	andeq	r0, r0, r0, asr r0
  20:	83080e42 	movwhi	r0, #36418	; 0x8e42
  24:	00018e02 	andeq	r8, r1, r2, lsl #28
  28:	0000000c 	andeq	r0, r0, ip
  2c:	00000000 	andeq	r0, r0, r0
  30:	00008070 	andeq	r8, r0, r0, ror r0
  34:	00000008 	andeq	r0, r0, r8
  38:	0000000c 	andeq	r0, r0, ip
  3c:	00000000 	andeq	r0, r0, r0
  40:	00008078 	andeq	r8, r0, r8, ror r0
  44:	00000014 	andeq	r0, r0, r4, lsl r0
  48:	00000014 	andeq	r0, r0, r4, lsl r0
  4c:	00000000 	andeq	r0, r0, r0
  50:	0000808c 	andeq	r8, r0, ip, lsl #1
  54:	0000005c 	andeq	r0, r0, ip, asr r0
  58:	8e040e42 	cdphi	14, 0, cr0, cr4, cr2, {2}
  5c:	100e4201 	andne	r4, lr, r1, lsl #4
  60:	0000000c 	andeq	r0, r0, ip
  64:	00000000 	andeq	r0, r0, r0
  68:	000080e8 	andeq	r8, r0, r8, ror #1
  6c:	00000070 	andeq	r0, r0, r0, ror r0
  70:	00000014 	andeq	r0, r0, r4, lsl r0
  74:	00000000 	andeq	r0, r0, r0
  78:	00008158 	andeq	r8, r0, r8, asr r1
  7c:	00000070 	andeq	r0, r0, r0, ror r0
  80:	8e040e42 	cdphi	14, 0, cr0, cr4, cr2, {2}
  84:	400e4201 	andmi	r4, lr, r1, lsl #4
  88:	0000000c 	andeq	r0, r0, ip
  8c:	ffffffff 			; <UNDEFINED> instruction: 0xffffffff
  90:	7c020001 	stcvc	0, cr0, [r2], {1}
  94:	000d0c0e 	andeq	r0, sp, lr, lsl #24
  98:	00000014 	andeq	r0, r0, r4, lsl r0
  9c:	00000088 	andeq	r0, r0, r8, lsl #1
  a0:	000081c8 	andeq	r8, r0, r8, asr #3
  a4:	000000b0 	strheq	r0, [r0], -r0	; <UNPREDICTABLE>
  a8:	8e040e42 	cdphi	14, 0, cr0, cr4, cr2, {2}
  ac:	100e4201 	andne	r4, lr, r1, lsl #4
  b0:	00000014 	andeq	r0, r0, r4, lsl r0
  b4:	00000088 	andeq	r0, r0, r8, lsl #1
  b8:	00008278 	andeq	r8, r0, r8, ror r2
  bc:	000000dc 	ldrdeq	r0, [r0], -ip
  c0:	8e040e42 	cdphi	14, 0, cr0, cr4, cr2, {2}
  c4:	100e4201 	andne	r4, lr, r1, lsl #4
  c8:	00000014 	andeq	r0, r0, r4, lsl r0
  cc:	00000088 	andeq	r0, r0, r8, lsl #1
  d0:	00008354 	andeq	r8, r0, r4, asr r3
  d4:	0000003c 	andeq	r0, r0, ip, lsr r0
  d8:	83080e42 	movwhi	r0, #36418	; 0x8e42
  dc:	00018e02 	andeq	r8, r1, r2, lsl #28
  e0:	0000000c 	andeq	r0, r0, ip
  e4:	00000088 	andeq	r0, r0, r8, lsl #1
  e8:	00008390 	muleq	r0, r0, r3
  ec:	00000034 	andeq	r0, r0, r4, lsr r0
  f0:	00000014 	andeq	r0, r0, r4, lsl r0
  f4:	00000088 	andeq	r0, r0, r8, lsl #1
  f8:	000083c4 	andeq	r8, r0, r4, asr #7
  fc:	00000098 	muleq	r0, r8, r0
 100:	8e040e42 	cdphi	14, 0, cr0, cr4, cr2, {2}
 104:	100e4201 	andne	r4, lr, r1, lsl #4
 108:	0000000c 	andeq	r0, r0, ip
 10c:	00000088 	andeq	r0, r0, r8, lsl #1
 110:	0000845c 	andeq	r8, r0, ip, asr r4
 114:	00000004 	andeq	r0, r0, r4
 118:	00000014 	andeq	r0, r0, r4, lsl r0
 11c:	00000088 	andeq	r0, r0, r8, lsl #1
 120:	00008460 	andeq	r8, r0, r0, ror #8
 124:	0000002c 	andeq	r0, r0, ip, lsr #32
 128:	83080e42 	movwhi	r0, #36418	; 0x8e42
 12c:	00018e02 	andeq	r8, r1, r2, lsl #28
 130:	0000000c 	andeq	r0, r0, ip
 134:	00000088 	andeq	r0, r0, r8, lsl #1
 138:	0000848c 	andeq	r8, r0, ip, lsl #9
 13c:	00000034 	andeq	r0, r0, r4, lsr r0
 140:	0000000c 	andeq	r0, r0, ip
 144:	00000088 	andeq	r0, r0, r8, lsl #1
 148:	000084c0 	andeq	r8, r0, r0, asr #9
 14c:	00000010 	andeq	r0, r0, r0, lsl r0
 150:	00000014 	andeq	r0, r0, r4, lsl r0
 154:	00000088 	andeq	r0, r0, r8, lsl #1
 158:	000084d0 	ldrdeq	r8, [r0], -r0
 15c:	00000070 	andeq	r0, r0, r0, ror r0
 160:	83080e42 	movwhi	r0, #36418	; 0x8e42
 164:	00018e02 	andeq	r8, r1, r2, lsl #28
 168:	0000000c 	andeq	r0, r0, ip
 16c:	ffffffff 			; <UNDEFINED> instruction: 0xffffffff
 170:	7c020001 	stcvc	0, cr0, [r2], {1}
 174:	000d0c0e 	andeq	r0, sp, lr, lsl #24
 178:	00000018 	andeq	r0, r0, r8, lsl r0
 17c:	00000168 	andeq	r0, r0, r8, ror #2
 180:	00008678 	andeq	r8, r0, r8, ror r6
 184:	000001ac 	andeq	r0, r0, ip, lsr #3
 188:	840c0e42 	strhi	r0, [ip], #-3650	; 0xe42
 18c:	8e028503 	cfsh32hi	mvfx8, mvfx2, #3
 190:	180e4201 	stmdane	lr, {r0, r9, lr}
 194:	00000024 	andeq	r0, r0, r4, lsr #32
 198:	00000168 	andeq	r0, r0, r8, ror #2
 19c:	00008824 	andeq	r8, r0, r4, lsr #16
 1a0:	000004e0 	andeq	r0, r0, r0, ror #9
 1a4:	84240e42 	strthi	r0, [r4], #-3650	; 0xe42
 1a8:	86088509 	strhi	r8, [r8], -r9, lsl #10
 1ac:	88068707 	stmdahi	r6, {r0, r1, r2, r8, r9, sl, pc}
 1b0:	8a048905 	bhi	1225cc <__bss_end__+0x118054>
 1b4:	8e028b03 	vmlahi.f64	d8, d2, d3
 1b8:	300e4201 	andcc	r4, lr, r1, lsl #4
 1bc:	0000000c 	andeq	r0, r0, ip
 1c0:	00000168 	andeq	r0, r0, r8, ror #2
 1c4:	00008d04 	andeq	r8, r0, r4, lsl #26
 1c8:	00000008 	andeq	r0, r0, r8
 1cc:	0000000c 	andeq	r0, r0, ip
 1d0:	00000168 	andeq	r0, r0, r8, ror #2
 1d4:	00008d0c 	andeq	r8, r0, ip, lsl #26
 1d8:	00000028 	andeq	r0, r0, r8, lsr #32
 1dc:	00000014 	andeq	r0, r0, r4, lsl r0
 1e0:	00000168 	andeq	r0, r0, r8, ror #2
 1e4:	00008d34 	andeq	r8, r0, r4, lsr sp
 1e8:	0000004c 	andeq	r0, r0, ip, asr #32
 1ec:	84080e42 	strhi	r0, [r8], #-3650	; 0xe42
 1f0:	00018e02 	andeq	r8, r1, r2, lsl #28
 1f4:	0000000c 	andeq	r0, r0, ip
 1f8:	ffffffff 			; <UNDEFINED> instruction: 0xffffffff
 1fc:	7c020001 	stcvc	0, cr0, [r2], {1}
 200:	000d0c0e 	andeq	r0, sp, lr, lsl #24
 204:	00000024 	andeq	r0, r0, r4, lsr #32
 208:	000001f4 	strdeq	r0, [r0], -r4
 20c:	00008d80 	andeq	r8, r0, r0, lsl #27
 210:	00000058 	andeq	r0, r0, r8, asr r0
 214:	80100e42 	andshi	r0, r0, r2, asr #28
 218:	82038104 	andhi	r8, r3, #4, 2
 21c:	42018302 	andmi	r8, r1, #134217728	; 0x8000000
 220:	07841c0e 	streq	r1, [r4, lr, lsl #24]
 224:	058e0685 	streq	r0, [lr, #1669]	; 0x685
 228:	00280e42 	eoreq	r0, r8, r2, asr #28
 22c:	0000000c 	andeq	r0, r0, ip
 230:	ffffffff 			; <UNDEFINED> instruction: 0xffffffff
 234:	7c020001 	stcvc	0, cr0, [r2], {1}
 238:	000d0c0e 	andeq	r0, sp, lr, lsl #24
 23c:	00000014 	andeq	r0, r0, r4, lsl r0
 240:	0000022c 	andeq	r0, r0, ip, lsr #4
 244:	00008dd8 	ldrdeq	r8, [r0], -r8	; <UNPREDICTABLE>
 248:	00000014 	andeq	r0, r0, r4, lsl r0
 24c:	84080e42 	strhi	r0, [r8], #-3650	; 0xe42
 250:	00018e02 	andeq	r8, r1, r2, lsl #28
 254:	0000000c 	andeq	r0, r0, ip
 258:	0000022c 	andeq	r0, r0, ip, lsr #4
 25c:	00008dec 	andeq	r8, r0, ip, ror #27
 260:	00000018 	andeq	r0, r0, r8, lsl r0
 264:	0000000c 	andeq	r0, r0, ip
 268:	0000022c 	andeq	r0, r0, ip, lsr #4
 26c:	00008e04 	andeq	r8, r0, r4, lsl #28
 270:	00000010 	andeq	r0, r0, r0, lsl r0
 274:	0000000c 	andeq	r0, r0, ip
 278:	ffffffff 			; <UNDEFINED> instruction: 0xffffffff
 27c:	7c020001 	stcvc	0, cr0, [r2], {1}
 280:	000d0c0e 	andeq	r0, sp, lr, lsl #24
 284:	00000018 	andeq	r0, r0, r8, lsl r0
 288:	00000274 	andeq	r0, r0, r4, ror r2
 28c:	00008e14 	andeq	r8, r0, r4, lsl lr
 290:	00000034 	andeq	r0, r0, r4, lsr r0
 294:	83100e42 	tsthi	r0, #1056	; 0x420
 298:	85038404 	strhi	r8, [r3, #-1028]	; 0x404
 29c:	00018e02 	andeq	r8, r1, r2, lsl #28
 2a0:	0000000c 	andeq	r0, r0, ip
 2a4:	ffffffff 			; <UNDEFINED> instruction: 0xffffffff
 2a8:	7c020001 	stcvc	0, cr0, [r2], {1}
 2ac:	000d0c0e 	andeq	r0, sp, lr, lsl #24
 2b0:	0000000c 	andeq	r0, r0, ip
 2b4:	000002a0 	andeq	r0, r0, r0, lsr #5
 2b8:	00008e48 	andeq	r8, r0, r8, asr #28
 2bc:	00000014 	andeq	r0, r0, r4, lsl r0
 2c0:	0000000c 	andeq	r0, r0, ip
 2c4:	000002a0 	andeq	r0, r0, r0, lsr #5
 2c8:	00008e5c 	andeq	r8, r0, ip, asr lr
 2cc:	0000002c 	andeq	r0, r0, ip, lsr #32
 2d0:	0000000c 	andeq	r0, r0, ip
 2d4:	000002a0 	andeq	r0, r0, r0, lsr #5
 2d8:	00008e88 	andeq	r8, r0, r8, lsl #29
 2dc:	00000040 	andeq	r0, r0, r0, asr #32
 2e0:	00000020 	andeq	r0, r0, r0, lsr #32
 2e4:	000002a0 	andeq	r0, r0, r0, lsr #5
 2e8:	00008ec8 	andeq	r8, r0, r8, asr #29
 2ec:	000001bc 			; <UNDEFINED> instruction: 0x000001bc
 2f0:	84180e42 	ldrhi	r0, [r8], #-3650	; 0xe42
 2f4:	86058506 	strhi	r8, [r5], -r6, lsl #10
 2f8:	88038704 	stmdahi	r3, {r2, r8, r9, sl, pc}
 2fc:	42018e02 	andmi	r8, r1, #2, 28
 300:	0000600e 	andeq	r6, r0, lr
 304:	00000014 	andeq	r0, r0, r4, lsl r0
 308:	000002a0 	andeq	r0, r0, r0, lsr #5
 30c:	00009084 	andeq	r9, r0, r4, lsl #1
 310:	00000068 	andeq	r0, r0, r8, rrx
 314:	8e040e42 	cdphi	14, 0, cr0, cr4, cr2, {2}
 318:	100e4201 	andne	r4, lr, r1, lsl #4
 31c:	00000028 	andeq	r0, r0, r8, lsr #32
 320:	000002a0 	andeq	r0, r0, r0, lsr #5
 324:	000090ec 	andeq	r9, r0, ip, ror #1
 328:	000002d4 	ldrdeq	r0, [r0], -r4
 32c:	84240e42 	strthi	r0, [r4], #-3650	; 0xe42
 330:	86088509 	strhi	r8, [r8], -r9, lsl #10
 334:	88068707 	stmdahi	r6, {r0, r1, r2, r8, r9, sl, pc}
 338:	8a048905 	bhi	122754 <__bss_end__+0x1181dc>
 33c:	8e028b03 	vmlahi.f64	d8, d2, d3
 340:	b80e4201 	stmdalt	lr, {r0, r9, lr}
 344:	00000001 	andeq	r0, r0, r1
 348:	0000000c 	andeq	r0, r0, ip
 34c:	ffffffff 			; <UNDEFINED> instruction: 0xffffffff
 350:	7c020001 	stcvc	0, cr0, [r2], {1}
 354:	000d0c0e 	andeq	r0, sp, lr, lsl #24
 358:	0000000c 	andeq	r0, r0, ip
 35c:	00000348 	andeq	r0, r0, r8, asr #6
 360:	000093c0 	andeq	r9, r0, r0, asr #7
 364:	00000010 	andeq	r0, r0, r0, lsl r0
 368:	0000000c 	andeq	r0, r0, ip
 36c:	00000348 	andeq	r0, r0, r8, asr #6
 370:	000093d0 	ldrdeq	r9, [r0], -r0
 374:	00000010 	andeq	r0, r0, r0, lsl r0
 378:	0000000c 	andeq	r0, r0, ip
 37c:	ffffffff 			; <UNDEFINED> instruction: 0xffffffff
 380:	7c020001 	stcvc	0, cr0, [r2], {1}
 384:	000d0c0e 	andeq	r0, sp, lr, lsl #24
 388:	00000014 	andeq	r0, r0, r4, lsl r0
 38c:	00000378 	andeq	r0, r0, r8, ror r3
 390:	000093e0 	andeq	r9, r0, r0, ror #7
 394:	0000002c 	andeq	r0, r0, ip, lsr #32
 398:	83080e42 	movwhi	r0, #36418	; 0x8e42
 39c:	00018e02 	andeq	r8, r1, r2, lsl #28
 3a0:	0000000c 	andeq	r0, r0, ip
 3a4:	ffffffff 			; <UNDEFINED> instruction: 0xffffffff
 3a8:	7c020001 	stcvc	0, cr0, [r2], {1}
 3ac:	000d0c0e 	andeq	r0, sp, lr, lsl #24
 3b0:	00000014 	andeq	r0, r0, r4, lsl r0
 3b4:	000003a0 	andeq	r0, r0, r0, lsr #7
 3b8:	0000940c 	andeq	r9, r0, ip, lsl #8
 3bc:	00000038 	andeq	r0, r0, r8, lsr r0
 3c0:	83080e42 	movwhi	r0, #36418	; 0x8e42
 3c4:	00018e02 	andeq	r8, r1, r2, lsl #28
 3c8:	0000000c 	andeq	r0, r0, ip
 3cc:	ffffffff 			; <UNDEFINED> instruction: 0xffffffff
 3d0:	7c020001 	stcvc	0, cr0, [r2], {1}
 3d4:	000d0c0e 	andeq	r0, sp, lr, lsl #24
 3d8:	00000014 	andeq	r0, r0, r4, lsl r0
 3dc:	000003c8 	andeq	r0, r0, r8, asr #7
 3e0:	00009444 	andeq	r9, r0, r4, asr #8
 3e4:	00000044 	andeq	r0, r0, r4, asr #32
 3e8:	8e040e42 	cdphi	14, 0, cr0, cr4, cr2, {2}
 3ec:	100e4201 	andne	r4, lr, r1, lsl #4
 3f0:	0000000c 	andeq	r0, r0, ip
 3f4:	ffffffff 			; <UNDEFINED> instruction: 0xffffffff
 3f8:	7c020001 	stcvc	0, cr0, [r2], {1}
 3fc:	000d0c0e 	andeq	r0, sp, lr, lsl #24
 400:	00000014 	andeq	r0, r0, r4, lsl r0
 404:	000003f0 	strdeq	r0, [r0], -r0	; <UNPREDICTABLE>
 408:	00009488 	andeq	r9, r0, r8, lsl #9
 40c:	00000044 	andeq	r0, r0, r4, asr #32
 410:	8e040e42 	cdphi	14, 0, cr0, cr4, cr2, {2}
 414:	100e4201 	andne	r4, lr, r1, lsl #4
 418:	0000000c 	andeq	r0, r0, ip
 41c:	ffffffff 			; <UNDEFINED> instruction: 0xffffffff
 420:	7c020001 	stcvc	0, cr0, [r2], {1}
 424:	000d0c0e 	andeq	r0, sp, lr, lsl #24
 428:	00000014 	andeq	r0, r0, r4, lsl r0
 42c:	00000418 	andeq	r0, r0, r8, lsl r4
 430:	000094cc 	andeq	r9, r0, ip, asr #9
 434:	00000044 	andeq	r0, r0, r4, asr #32
 438:	8e040e42 	cdphi	14, 0, cr0, cr4, cr2, {2}
 43c:	100e4201 	andne	r4, lr, r1, lsl #4
 440:	0000000c 	andeq	r0, r0, ip
 444:	ffffffff 			; <UNDEFINED> instruction: 0xffffffff
 448:	7c020001 	stcvc	0, cr0, [r2], {1}
 44c:	000d0c0e 	andeq	r0, sp, lr, lsl #24
 450:	0000000c 	andeq	r0, r0, ip
 454:	00000440 	andeq	r0, r0, r0, asr #8
 458:	00009510 	andeq	r9, r0, r0, lsl r5
 45c:	00000004 	andeq	r0, r0, r4
 460:	0000000c 	andeq	r0, r0, ip
 464:	00000440 	andeq	r0, r0, r0, asr #8
 468:	00009514 	andeq	r9, r0, r4, lsl r5
 46c:	00000004 	andeq	r0, r0, r4
 470:	0000000c 	andeq	r0, r0, ip
 474:	ffffffff 			; <UNDEFINED> instruction: 0xffffffff
 478:	7c020001 	stcvc	0, cr0, [r2], {1}
 47c:	000d0c0e 	andeq	r0, sp, lr, lsl #24
 480:	00000014 	andeq	r0, r0, r4, lsl r0
 484:	00000470 	andeq	r0, r0, r0, ror r4
 488:	00009518 	andeq	r9, r0, r8, lsl r5
 48c:	0000006c 	andeq	r0, r0, ip, rrx
 490:	83080e42 	movwhi	r0, #36418	; 0x8e42
 494:	00018e02 	andeq	r8, r1, r2, lsl #28
 498:	0000000c 	andeq	r0, r0, ip
 49c:	ffffffff 			; <UNDEFINED> instruction: 0xffffffff
 4a0:	7c020001 	stcvc	0, cr0, [r2], {1}
 4a4:	000d0c0e 	andeq	r0, sp, lr, lsl #24
 4a8:	0000000c 	andeq	r0, r0, ip
 4ac:	00000498 	muleq	r0, r8, r4
 4b0:	00009584 	andeq	r9, r0, r4, lsl #11
 4b4:	00000018 	andeq	r0, r0, r8, lsl r0
 4b8:	0000000c 	andeq	r0, r0, ip
 4bc:	00000498 	muleq	r0, r8, r4
 4c0:	0000959c 	muleq	r0, ip, r5
 4c4:	00000014 	andeq	r0, r0, r4, lsl r0
 4c8:	00000014 	andeq	r0, r0, r4, lsl r0
 4cc:	00000498 	muleq	r0, r8, r4
 4d0:	000095b0 			; <UNDEFINED> instruction: 0x000095b0
 4d4:	00000048 	andeq	r0, r0, r8, asr #32
 4d8:	83080e42 	movwhi	r0, #36418	; 0x8e42
 4dc:	00018e02 	andeq	r8, r1, r2, lsl #28
 4e0:	0000000c 	andeq	r0, r0, ip
 4e4:	ffffffff 			; <UNDEFINED> instruction: 0xffffffff
 4e8:	7c020001 	stcvc	0, cr0, [r2], {1}
 4ec:	000d0c0e 	andeq	r0, sp, lr, lsl #24
 4f0:	0000000c 	andeq	r0, r0, ip
 4f4:	000004e0 	andeq	r0, r0, r0, ror #9
 4f8:	000095f8 	strdeq	r9, [r0], -r8
 4fc:	0000001c 	andeq	r0, r0, ip, lsl r0
 500:	00000014 	andeq	r0, r0, r4, lsl r0
 504:	000004e0 	andeq	r0, r0, r0, ror #9
 508:	00009614 	andeq	r9, r0, r4, lsl r6
 50c:	00000014 	andeq	r0, r0, r4, lsl r0
 510:	83080e42 	movwhi	r0, #36418	; 0x8e42
 514:	00018e02 	andeq	r8, r1, r2, lsl #28
 518:	00000014 	andeq	r0, r0, r4, lsl r0
 51c:	000004e0 	andeq	r0, r0, r0, ror #9
 520:	00009628 	andeq	r9, r0, r8, lsr #12
 524:	0000001c 	andeq	r0, r0, ip, lsl r0
 528:	84080e42 	strhi	r0, [r8], #-3650	; 0xe42
 52c:	00018e02 	andeq	r8, r1, r2, lsl #28
 530:	00000018 	andeq	r0, r0, r8, lsl r0
 534:	000004e0 	andeq	r0, r0, r0, ror #9
 538:	00009644 	andeq	r9, r0, r4, asr #12
 53c:	00000024 	andeq	r0, r0, r4, lsr #32
 540:	83100e42 	tsthi	r0, #1056	; 0x420
 544:	85038404 	strhi	r8, [r3, #-1028]	; 0x404
 548:	00018e02 	andeq	r8, r1, r2, lsl #28
 54c:	00000014 	andeq	r0, r0, r4, lsl r0
 550:	000004e0 	andeq	r0, r0, r0, ror #9
 554:	00009668 	andeq	r9, r0, r8, ror #12
 558:	00000014 	andeq	r0, r0, r4, lsl r0
 55c:	83080e42 	movwhi	r0, #36418	; 0x8e42
 560:	00018e02 	andeq	r8, r1, r2, lsl #28
 564:	00000014 	andeq	r0, r0, r4, lsl r0
 568:	000004e0 	andeq	r0, r0, r0, ror #9
 56c:	0000967c 	andeq	r9, r0, ip, ror r6
 570:	00000014 	andeq	r0, r0, r4, lsl r0
 574:	83080e42 	movwhi	r0, #36418	; 0x8e42
 578:	00018e02 	andeq	r8, r1, r2, lsl #28
 57c:	0000000c 	andeq	r0, r0, ip
 580:	ffffffff 			; <UNDEFINED> instruction: 0xffffffff
 584:	7c020001 	stcvc	0, cr0, [r2], {1}
 588:	000d0c0e 	andeq	r0, sp, lr, lsl #24
 58c:	00000018 	andeq	r0, r0, r8, lsl r0
 590:	0000057c 	andeq	r0, r0, ip, ror r5
 594:	000096f4 	strdeq	r9, [r0], -r4
 598:	00000020 	andeq	r0, r0, r0, lsr #32
 59c:	84100e42 	ldrhi	r0, [r0], #-3650	; 0xe42
 5a0:	86038504 	strhi	r8, [r3], -r4, lsl #10
 5a4:	00018e02 	andeq	r8, r1, r2, lsl #28
 5a8:	00000014 	andeq	r0, r0, r4, lsl r0
 5ac:	0000057c 	andeq	r0, r0, ip, ror r5
 5b0:	00009714 	andeq	r9, r0, r4, lsl r7
 5b4:	000000b0 	strheq	r0, [r0], -r0	; <UNPREDICTABLE>
 5b8:	84080e42 	strhi	r0, [r8], #-3650	; 0xe42
 5bc:	00018e02 	andeq	r8, r1, r2, lsl #28
 5c0:	00000014 	andeq	r0, r0, r4, lsl r0
 5c4:	0000057c 	andeq	r0, r0, ip, ror r5
 5c8:	000097c4 	andeq	r9, r0, r4, asr #15
 5cc:	00000018 	andeq	r0, r0, r8, lsl r0
 5d0:	84080e42 	strhi	r0, [r8], #-3650	; 0xe42
 5d4:	00018e02 	andeq	r8, r1, r2, lsl #28
 5d8:	00000014 	andeq	r0, r0, r4, lsl r0
 5dc:	0000057c 	andeq	r0, r0, ip, ror r5
 5e0:	000097dc 	ldrdeq	r9, [r0], -ip
 5e4:	00000020 	andeq	r0, r0, r0, lsr #32
 5e8:	84080e42 	strhi	r0, [r8], #-3650	; 0xe42
 5ec:	00018e02 	andeq	r8, r1, r2, lsl #28
 5f0:	00000014 	andeq	r0, r0, r4, lsl r0
 5f4:	0000057c 	andeq	r0, r0, ip, ror r5
 5f8:	000097fc 	strdeq	r9, [r0], -ip
 5fc:	00000030 	andeq	r0, r0, r0, lsr r0
 600:	84080e42 	strhi	r0, [r8], #-3650	; 0xe42
 604:	00018e02 	andeq	r8, r1, r2, lsl #28
 608:	00000014 	andeq	r0, r0, r4, lsl r0
 60c:	0000057c 	andeq	r0, r0, ip, ror r5
 610:	0000982c 	andeq	r9, r0, ip, lsr #16
 614:	00000030 	andeq	r0, r0, r0, lsr r0
 618:	84080e42 	strhi	r0, [r8], #-3650	; 0xe42
 61c:	00018e02 	andeq	r8, r1, r2, lsl #28
 620:	00000014 	andeq	r0, r0, r4, lsl r0
 624:	0000057c 	andeq	r0, r0, ip, ror r5
 628:	0000985c 	andeq	r9, r0, ip, asr r8
 62c:	00000010 	andeq	r0, r0, r0, lsl r0
 630:	84080e42 	strhi	r0, [r8], #-3650	; 0xe42
 634:	00018e02 	andeq	r8, r1, r2, lsl #28
 638:	0000000c 	andeq	r0, r0, ip
 63c:	ffffffff 			; <UNDEFINED> instruction: 0xffffffff
 640:	7c020001 	stcvc	0, cr0, [r2], {1}
 644:	000d0c0e 	andeq	r0, sp, lr, lsl #24
 648:	00000018 	andeq	r0, r0, r8, lsl r0
 64c:	00000638 	andeq	r0, r0, r8, lsr r6
 650:	0000986c 	andeq	r9, r0, ip, ror #16
 654:	00000068 	andeq	r0, r0, r8, rrx
 658:	84100e4a 	ldrhi	r0, [r0], #-3658	; 0xe4a
 65c:	86038504 	strhi	r8, [r3], -r4, lsl #10
 660:	00018e02 	andeq	r8, r1, r2, lsl #28
 664:	00000014 	andeq	r0, r0, r4, lsl r0
 668:	00000638 	andeq	r0, r0, r8, lsr r6
 66c:	000098d4 	ldrdeq	r9, [r0], -r4
 670:	00000010 	andeq	r0, r0, r0, lsl r0
 674:	84080e42 	strhi	r0, [r8], #-3650	; 0xe42
 678:	00018e02 	andeq	r8, r1, r2, lsl #28
 67c:	00000014 	andeq	r0, r0, r4, lsl r0
 680:	00000638 	andeq	r0, r0, r8, lsr r6
 684:	000098e4 	andeq	r9, r0, r4, ror #17
 688:	00000024 	andeq	r0, r0, r4, lsr #32
 68c:	84080e46 	strhi	r0, [r8], #-3654	; 0xe46
 690:	00018e02 	andeq	r8, r1, r2, lsl #28
 694:	00000014 	andeq	r0, r0, r4, lsl r0
 698:	00000638 	andeq	r0, r0, r8, lsr r6
 69c:	00009908 	andeq	r9, r0, r8, lsl #18
 6a0:	00000024 	andeq	r0, r0, r4, lsr #32
 6a4:	84080e46 	strhi	r0, [r8], #-3654	; 0xe46
 6a8:	00018e02 	andeq	r8, r1, r2, lsl #28
 6ac:	00000014 	andeq	r0, r0, r4, lsl r0
 6b0:	00000638 	andeq	r0, r0, r8, lsr r6
 6b4:	0000992c 	andeq	r9, r0, ip, lsr #18
 6b8:	00000010 	andeq	r0, r0, r0, lsl r0
 6bc:	84080e42 	strhi	r0, [r8], #-3650	; 0xe42
 6c0:	00018e02 	andeq	r8, r1, r2, lsl #28
 6c4:	00000014 	andeq	r0, r0, r4, lsl r0
 6c8:	00000638 	andeq	r0, r0, r8, lsr r6
 6cc:	0000993c 	andeq	r9, r0, ip, lsr r9
 6d0:	0000001c 	andeq	r0, r0, ip, lsl r0
 6d4:	84080e42 	strhi	r0, [r8], #-3650	; 0xe42
 6d8:	00018e02 	andeq	r8, r1, r2, lsl #28
 6dc:	00000018 	andeq	r0, r0, r8, lsl r0
 6e0:	00000638 	andeq	r0, r0, r8, lsr r6
 6e4:	00009958 	andeq	r9, r0, r8, asr r9
 6e8:	00000034 	andeq	r0, r0, r4, lsr r0
 6ec:	84080e46 	strhi	r0, [r8], #-3654	; 0xe46
 6f0:	4e018e02 	cdpmi	14, 0, cr8, cr1, cr2, {0}
 6f4:	cec4000e 	cdpgt	0, 12, cr0, cr4, cr14, {0}

Disassembly of section .debug_ranges:

00000000 <.debug_ranges>:
   0:	00009584 	andeq	r9, r0, r4, lsl #11
   4:	000095f8 	strdeq	r9, [r0], -r8
	...
