
tests/part2-test1.elf:     file format elf32-littlearm


Disassembly of section .text:

00008000 <__code_start__>:
    8000:	e3a00013 	mov	r0, #19
    8004:	e129f000 	msr	CPSR_fc, r0
    8008:	e3a01000 	mov	r1, #0
    800c:	ee073f95 	mcr	15, 0, r3, cr7, cr5, {4}
    8010:	e3a0d302 	mov	sp, #134217728	; 0x8000000
    8014:	e3a0b000 	mov	fp, #0
    8018:	eb000997 	bl	a67c <_cstart>
    801c:	eb000a10 	bl	a864 <rpi_reboot>

00008020 <vm_test>:
    8020:	e92d4030 	push	{r4, r5, lr}
    8024:	e24dd014 	sub	sp, sp, #20
    8028:	eb0005f0 	bl	97f0 <memcheck_init>
    802c:	eb000643 	bl	9940 <memcheck_on>
    8030:	eb0000b0 	bl	82f8 <mmu_is_enabled>
    8034:	e3500000 	cmp	r0, #0
    8038:	1a000008 	bne	8060 <vm_test+0x40>
    803c:	eb00080e 	bl	a07c <rpi_reset_putc>
    8040:	e59f312c 	ldr	r3, [pc, #300]	; 8174 <vm_test+0x154>
    8044:	e58d3000 	str	r3, [sp]
    8048:	e59f0128 	ldr	r0, [pc, #296]	; 8178 <vm_test+0x158>
    804c:	e59f1128 	ldr	r1, [pc, #296]	; 817c <vm_test+0x15c>
    8050:	e59f2128 	ldr	r2, [pc, #296]	; 8180 <vm_test+0x160>
    8054:	e3a03011 	mov	r3, #17
    8058:	eb0007ec 	bl	a010 <printk>
    805c:	eb00097b 	bl	a650 <clean_reboot>
    8060:	e28d0010 	add	r0, sp, #16
    8064:	e3a03005 	mov	r3, #5
    8068:	e5203004 	str	r3, [r0, #-4]!
    806c:	eb000a46 	bl	a98c <get32>
    8070:	e3500005 	cmp	r0, #5
    8074:	0a000008 	beq	809c <vm_test+0x7c>
    8078:	eb0007ff 	bl	a07c <rpi_reset_putc>
    807c:	e59f3100 	ldr	r3, [pc, #256]	; 8184 <vm_test+0x164>
    8080:	e58d3000 	str	r3, [sp]
    8084:	e59f00ec 	ldr	r0, [pc, #236]	; 8178 <vm_test+0x158>
    8088:	e59f10ec 	ldr	r1, [pc, #236]	; 817c <vm_test+0x15c>
    808c:	e59f20ec 	ldr	r2, [pc, #236]	; 8180 <vm_test+0x160>
    8090:	e3a03015 	mov	r3, #21
    8094:	eb0007dd 	bl	a010 <printk>
    8098:	eb00096c 	bl	a650 <clean_reboot>
    809c:	e28d000c 	add	r0, sp, #12
    80a0:	eb000a39 	bl	a98c <get32>
    80a4:	e1a05000 	mov	r5, r0
    80a8:	e59f00d8 	ldr	r0, [pc, #216]	; 8188 <vm_test+0x168>
    80ac:	eb0007d7 	bl	a010 <printk>
    80b0:	e59f00d4 	ldr	r0, [pc, #212]	; 818c <vm_test+0x16c>
    80b4:	eb0007d5 	bl	a010 <printk>
    80b8:	e59d300c 	ldr	r3, [sp, #12]
    80bc:	e2833001 	add	r3, r3, #1
    80c0:	e58d300c 	str	r3, [sp, #12]
    80c4:	e28d000c 	add	r0, sp, #12
    80c8:	eb000a2f 	bl	a98c <get32>
    80cc:	e1a04000 	mov	r4, r0
    80d0:	eb00063b 	bl	99c4 <memcheck_off>
    80d4:	eb000087 	bl	82f8 <mmu_is_enabled>
    80d8:	e3500000 	cmp	r0, #0
    80dc:	0a000008 	beq	8104 <vm_test+0xe4>
    80e0:	eb0007e5 	bl	a07c <rpi_reset_putc>
    80e4:	e59f30a4 	ldr	r3, [pc, #164]	; 8190 <vm_test+0x170>
    80e8:	e58d3000 	str	r3, [sp]
    80ec:	e59f0084 	ldr	r0, [pc, #132]	; 8178 <vm_test+0x158>
    80f0:	e59f1084 	ldr	r1, [pc, #132]	; 817c <vm_test+0x15c>
    80f4:	e59f2084 	ldr	r2, [pc, #132]	; 8180 <vm_test+0x160>
    80f8:	e3a03021 	mov	r3, #33	; 0x21
    80fc:	eb0007c3 	bl	a010 <printk>
    8100:	eb000952 	bl	a650 <clean_reboot>
    8104:	e3550005 	cmp	r5, #5
    8108:	0a000008 	beq	8130 <vm_test+0x110>
    810c:	eb0007da 	bl	a07c <rpi_reset_putc>
    8110:	e59f307c 	ldr	r3, [pc, #124]	; 8194 <vm_test+0x174>
    8114:	e58d3000 	str	r3, [sp]
    8118:	e59f0058 	ldr	r0, [pc, #88]	; 8178 <vm_test+0x158>
    811c:	e59f1058 	ldr	r1, [pc, #88]	; 817c <vm_test+0x15c>
    8120:	e59f2058 	ldr	r2, [pc, #88]	; 8180 <vm_test+0x160>
    8124:	e3a03024 	mov	r3, #36	; 0x24
    8128:	eb0007b8 	bl	a010 <printk>
    812c:	eb000947 	bl	a650 <clean_reboot>
    8130:	e3540006 	cmp	r4, #6
    8134:	0a000008 	beq	815c <vm_test+0x13c>
    8138:	eb0007cf 	bl	a07c <rpi_reset_putc>
    813c:	e59f3054 	ldr	r3, [pc, #84]	; 8198 <vm_test+0x178>
    8140:	e58d3000 	str	r3, [sp]
    8144:	e59f002c 	ldr	r0, [pc, #44]	; 8178 <vm_test+0x158>
    8148:	e59f102c 	ldr	r1, [pc, #44]	; 817c <vm_test+0x15c>
    814c:	e59f202c 	ldr	r2, [pc, #44]	; 8180 <vm_test+0x160>
    8150:	e3a03025 	mov	r3, #37	; 0x25
    8154:	eb0007ad 	bl	a010 <printk>
    8158:	eb00093c 	bl	a650 <clean_reboot>
    815c:	e59f0024 	ldr	r0, [pc, #36]	; 8188 <vm_test+0x168>
    8160:	eb0007aa 	bl	a010 <printk>
    8164:	e59f0030 	ldr	r0, [pc, #48]	; 819c <vm_test+0x17c>
    8168:	eb0007a8 	bl	a010 <printk>
    816c:	e28dd014 	add	sp, sp, #20
    8170:	e8bd8030 	pop	{r4, r5, pc}
    8174:	0000ae10 	andeq	sl, r0, r0, lsl lr
    8178:	0000ade8 	andeq	sl, r0, r8, ror #27
    817c:	0000adfc 	strdeq	sl, [r0], -ip
    8180:	0000ae98 	muleq	r0, r8, lr
    8184:	0000ae24 	andeq	sl, r0, r4, lsr #28
    8188:	0000ae34 	andeq	sl, r0, r4, lsr lr
    818c:	0000ae3c 	andeq	sl, r0, ip, lsr lr
    8190:	0000ae54 	andeq	sl, r0, r4, asr lr
    8194:	0000ae68 	andeq	sl, r0, r8, ror #28
    8198:	0000ae70 	andeq	sl, r0, r0, ror lr
    819c:	0000ae78 	andeq	sl, r0, r8, ror lr

000081a0 <notmain>:
    81a0:	e92d4008 	push	{r3, lr}
    81a4:	eb000a07 	bl	a9c8 <uart_init>
    81a8:	eb0004c9 	bl	94d4 <check_vm_structs>
    81ac:	ebffff9b 	bl	8020 <vm_test>
    81b0:	eb000926 	bl	a650 <clean_reboot>

000081b4 <_interrupt_table>:
    81b4:	e59ff020 	ldr	pc, [pc, #32]	; 81dc <_reset_asm>
    81b8:	e59ff020 	ldr	pc, [pc, #32]	; 81e0 <_undefined_instruction_asm>
    81bc:	e59ff020 	ldr	pc, [pc, #32]	; 81e4 <_software_interrupt_asm>
    81c0:	e59ff020 	ldr	pc, [pc, #32]	; 81e8 <_prefetch_abort_asm>
    81c4:	e59ff020 	ldr	pc, [pc, #32]	; 81ec <_data_abort_asm>
    81c8:	e59ff00c 	ldr	pc, [pc, #12]	; 81dc <_reset_asm>
    81cc:	e59ff01c 	ldr	pc, [pc, #28]	; 81f0 <_interrupt_asm>

000081d0 <fast_interrupt_asm>:
    81d0:	e3a0d409 	mov	sp, #150994944	; 0x9000000
    81d4:	e24ee004 	sub	lr, lr, #4
    81d8:	eb000935 	bl	a6b4 <fast_interrupt_vector>

000081dc <_reset_asm>:
    81dc:	0000820c 	andeq	r8, r0, ip, lsl #4

000081e0 <_undefined_instruction_asm>:
    81e0:	00008250 	andeq	r8, r0, r0, asr r2

000081e4 <_software_interrupt_asm>:
    81e4:	0000825c 	andeq	r8, r0, ip, asr r2

000081e8 <_prefetch_abort_asm>:
    81e8:	00008234 	andeq	r8, r0, r4, lsr r2

000081ec <_data_abort_asm>:
    81ec:	00008218 	andeq	r8, r0, r8, lsl r2

000081f0 <_interrupt_asm>:
    81f0:	000081f4 	strdeq	r8, [r0], -r4

000081f4 <_interrupt_table_end>:
    81f4:	e3a0d409 	mov	sp, #150994944	; 0x9000000
    81f8:	e24ee004 	sub	lr, lr, #4
    81fc:	e92d5fff 	push	{r0, r1, r2, r3, r4, r5, r6, r7, r8, r9, sl, fp, ip, lr}
    8200:	e1a0000e 	mov	r0, lr
    8204:	e8bd5fff 	pop	{r0, r1, r2, r3, r4, r5, r6, r7, r8, r9, sl, fp, ip, lr}
    8208:	e1b0f00e 	movs	pc, lr

0000820c <reset_asm>:
    820c:	e3a0d409 	mov	sp, #150994944	; 0x9000000
    8210:	e24ee004 	sub	lr, lr, #4
    8214:	eb000948 	bl	a73c <reset_vector>

00008218 <data_abort_asm>:
    8218:	e24ee008 	sub	lr, lr, #8
    821c:	e3a0d409 	mov	sp, #150994944	; 0x9000000
    8220:	e92d5fff 	push	{r0, r1, r2, r3, r4, r5, r6, r7, r8, r9, sl, fp, ip, lr}
    8224:	e1a0000e 	mov	r0, lr
    8228:	eb00054a 	bl	9758 <data_abort_vector>
    822c:	e8bd5fff 	pop	{r0, r1, r2, r3, r4, r5, r6, r7, r8, r9, sl, fp, ip, lr}
    8230:	e1b0f00e 	movs	pc, lr

00008234 <prefetch_abort_asm>:
    8234:	e24ee004 	sub	lr, lr, #4
    8238:	e3a0d409 	mov	sp, #150994944	; 0x9000000
    823c:	e92d5fff 	push	{r0, r1, r2, r3, r4, r5, r6, r7, r8, r9, sl, fp, ip, lr}
    8240:	e1a0000e 	mov	r0, lr
    8244:	eb00092b 	bl	a6f8 <prefetch_abort_vector>
    8248:	e8bd5fff 	pop	{r0, r1, r2, r3, r4, r5, r6, r7, r8, r9, sl, fp, ip, lr}
    824c:	e1b0f00e 	movs	pc, lr

00008250 <undefined_instruction_asm>:
    8250:	e3a0d409 	mov	sp, #150994944	; 0x9000000
    8254:	e24ee004 	sub	lr, lr, #4
    8258:	eb000948 	bl	a780 <undefined_instruction_vector>

0000825c <software_interrupt_asm>:
    825c:	e92d5ff0 	push	{r4, r5, r6, r7, r8, r9, sl, fp, ip, lr}
    8260:	e24ee004 	sub	lr, lr, #4
    8264:	e1a01000 	mov	r1, r0
    8268:	e1a0000e 	mov	r0, lr
    826c:	e8bd5ff0 	pop	{r4, r5, r6, r7, r8, r9, sl, fp, ip, lr}
    8270:	e1b0f00e 	movs	pc, lr

00008274 <user_trampoline_ret>:
    8274:	e92d5ff0 	push	{r4, r5, r6, r7, r8, r9, sl, fp, ip, lr}
    8278:	e10f4000 	mrs	r4, CPSR
    827c:	e129f000 	msr	CPSR_fc, r0
    8280:	ee070f95 	mcr	15, 0, r0, cr7, cr5, {4}
    8284:	e3a0d407 	mov	sp, #117440512	; 0x7000000
    8288:	e1a00002 	mov	r0, r2
    828c:	e12fff31 	blx	r1
    8290:	e1a00004 	mov	r0, r4
    8294:	ef000001 	svc	0x00000001
    8298:	e8bd5ff0 	pop	{r4, r5, r6, r7, r8, r9, sl, fp, ip, lr}
    829c:	e12fff1e 	bx	lr

000082a0 <sys_try_lock_asm>:
    82a0:	e92d5ff0 	push	{r4, r5, r6, r7, r8, r9, sl, fp, ip, lr}
    82a4:	ef000002 	svc	0x00000002
    82a8:	e8bd5ff0 	pop	{r4, r5, r6, r7, r8, r9, sl, fp, ip, lr}
    82ac:	e12fff1e 	bx	lr

000082b0 <sys_foo_asm>:
    82b0:	e92d5ff0 	push	{r4, r5, r6, r7, r8, r9, sl, fp, ip, lr}
    82b4:	ef000003 	svc	0x00000003
    82b8:	e8bd5ff0 	pop	{r4, r5, r6, r7, r8, r9, sl, fp, ip, lr}
    82bc:	e12fff1e 	bx	lr

000082c0 <run_fn_helper>:
    82c0:	e92d5ff0 	push	{r4, r5, r6, r7, r8, r9, sl, fp, ip, lr}
    82c4:	e10f4000 	mrs	r4, CPSR
    82c8:	e129f000 	msr	CPSR_fc, r0
    82cc:	ee070f95 	mcr	15, 0, r0, cr7, cr5, {4}
    82d0:	e1a0d002 	mov	sp, r2
    82d4:	e1a00002 	mov	r0, r2
    82d8:	e5911000 	ldr	r1, [r1]
    82dc:	e12fff31 	blx	r1
    82e0:	e1a05000 	mov	r5, r0
    82e4:	e1a00004 	mov	r0, r4
    82e8:	ef000001 	svc	0x00000001
    82ec:	e1a00005 	mov	r0, r5
    82f0:	e8bd5ff0 	pop	{r4, r5, r6, r7, r8, r9, sl, fp, ip, lr}
    82f4:	e12fff1e 	bx	lr

000082f8 <mmu_is_enabled>:
    82f8:	e92d4008 	push	{r3, lr}
    82fc:	eb00062f 	bl	9bc0 <cp15_ctrl_reg1_rd>
    8300:	e2000001 	and	r0, r0, #1
    8304:	e8bd8008 	pop	{r3, pc}

00008308 <mmu_lookup_section>:
    8308:	e52de004 	push	{lr}		; (str lr, [sp, #-4]!)
    830c:	e24dd00c 	sub	sp, sp, #12
    8310:	e3110013 	tst	r1, #19
    8314:	0a000008 	beq	833c <mmu_lookup_section+0x34>
    8318:	eb000757 	bl	a07c <rpi_reset_putc>
    831c:	e59f305c 	ldr	r3, [pc, #92]	; 8380 <mmu_lookup_section+0x78>
    8320:	e58d3000 	str	r3, [sp]
    8324:	e59f0058 	ldr	r0, [pc, #88]	; 8384 <mmu_lookup_section+0x7c>
    8328:	e59f1058 	ldr	r1, [pc, #88]	; 8388 <mmu_lookup_section+0x80>
    832c:	e59f2058 	ldr	r2, [pc, #88]	; 838c <mmu_lookup_section+0x84>
    8330:	e3a03010 	mov	r3, #16
    8334:	eb000735 	bl	a010 <printk>
    8338:	eb0008c4 	bl	a650 <clean_reboot>
    833c:	e1a01a21 	lsr	r1, r1, #20
    8340:	e0803101 	add	r3, r0, r1, lsl #2
    8344:	e7d02101 	ldrb	r2, [r0, r1, lsl #2]
    8348:	e3120003 	tst	r2, #3
    834c:	1a000008 	bne	8374 <mmu_lookup_section+0x6c>
    8350:	eb000749 	bl	a07c <rpi_reset_putc>
    8354:	e59f3034 	ldr	r3, [pc, #52]	; 8390 <mmu_lookup_section+0x88>
    8358:	e58d3000 	str	r3, [sp]
    835c:	e59f0030 	ldr	r0, [pc, #48]	; 8394 <mmu_lookup_section+0x8c>
    8360:	e59f1020 	ldr	r1, [pc, #32]	; 8388 <mmu_lookup_section+0x80>
    8364:	e59f2020 	ldr	r2, [pc, #32]	; 838c <mmu_lookup_section+0x84>
    8368:	e3a03013 	mov	r3, #19
    836c:	eb000727 	bl	a010 <printk>
    8370:	eb0008b6 	bl	a650 <clean_reboot>
    8374:	e1a00003 	mov	r0, r3
    8378:	e28dd00c 	add	sp, sp, #12
    837c:	e49df004 	pop	{pc}		; (ldr pc, [sp], #4)
    8380:	0000af9c 	muleq	r0, ip, pc	; <UNPREDICTABLE>
    8384:	0000ade8 	andeq	sl, r0, r8, ror #27
    8388:	0000af94 	muleq	r0, r4, pc	; <UNPREDICTABLE>
    838c:	0000aea4 	andeq	sl, r0, r4, lsr #29
    8390:	0000afe0 	andeq	sl, r0, r0, ror #31
    8394:	0000afb0 			; <UNDEFINED> instruction: 0x0000afb0

00008398 <mmu_mark_sec_ap_perm>:
    8398:	e92d41f0 	push	{r4, r5, r6, r7, r8, lr}
    839c:	e24dd008 	sub	sp, sp, #8
    83a0:	e1a08000 	mov	r8, r0
    83a4:	e1a05002 	mov	r5, r2
    83a8:	e1a01aa1 	lsr	r1, r1, #21
    83ac:	e1a07a81 	lsl	r7, r1, #21
    83b0:	e3530003 	cmp	r3, #3
    83b4:	9a000011 	bls	8400 <mmu_mark_sec_ap_perm+0x68>
    83b8:	eb00072f 	bl	a07c <rpi_reset_putc>
    83bc:	e59f305c 	ldr	r3, [pc, #92]	; 8420 <mmu_mark_sec_ap_perm+0x88>
    83c0:	e58d3000 	str	r3, [sp]
    83c4:	e59f0058 	ldr	r0, [pc, #88]	; 8424 <mmu_mark_sec_ap_perm+0x8c>
    83c8:	e59f1058 	ldr	r1, [pc, #88]	; 8428 <mmu_mark_sec_ap_perm+0x90>
    83cc:	e59f2058 	ldr	r2, [pc, #88]	; 842c <mmu_mark_sec_ap_perm+0x94>
    83d0:	e3a0301a 	mov	r3, #26
    83d4:	eb00070d 	bl	a010 <printk>
    83d8:	eb00089c 	bl	a650 <clean_reboot>
    83dc:	e1a00008 	mov	r0, r8
    83e0:	e1a01007 	mov	r1, r7
    83e4:	ebffffc7 	bl	8308 <mmu_lookup_section>
    83e8:	e5d03001 	ldrb	r3, [r0, #1]
    83ec:	e3c3300c 	bic	r3, r3, #12
    83f0:	e1863003 	orr	r3, r6, r3
    83f4:	e5c03001 	strb	r3, [r0, #1]
    83f8:	e2844001 	add	r4, r4, #1
    83fc:	ea000002 	b	840c <mmu_mark_sec_ap_perm+0x74>
    8400:	e3a04000 	mov	r4, #0
    8404:	e2036003 	and	r6, r3, #3
    8408:	e1a06106 	lsl	r6, r6, #2
    840c:	e1540005 	cmp	r4, r5
    8410:	3afffff1 	bcc	83dc <mmu_mark_sec_ap_perm+0x44>
    8414:	eb000665 	bl	9db0 <our_mmu_sync_pte_mods>
    8418:	e28dd008 	add	sp, sp, #8
    841c:	e8bd81f0 	pop	{r4, r5, r6, r7, r8, pc}
    8420:	0000b020 	andeq	fp, r0, r0, lsr #32
    8424:	0000afec 	andeq	sl, r0, ip, ror #31
    8428:	0000af94 	muleq	r0, r4, pc	; <UNPREDICTABLE>
    842c:	0000aeb8 			; <UNDEFINED> instruction: 0x0000aeb8

00008430 <mmu_mark_sec_readonly>:
    8430:	e92d4008 	push	{r3, lr}
    8434:	e3a03002 	mov	r3, #2
    8438:	ebffffd6 	bl	8398 <mmu_mark_sec_ap_perm>
    843c:	e8bd8008 	pop	{r3, pc}

00008440 <mmu_mark_sec_rw>:
    8440:	e92d4008 	push	{r3, lr}
    8444:	e3a03003 	mov	r3, #3
    8448:	ebffffd2 	bl	8398 <mmu_mark_sec_ap_perm>
    844c:	e8bd8008 	pop	{r3, pc}

00008450 <mmu_mark_sec_no_access>:
    8450:	e92d4008 	push	{r3, lr}
    8454:	e3a03000 	mov	r3, #0
    8458:	ebffffce 	bl	8398 <mmu_mark_sec_ap_perm>
    845c:	e8bd8008 	pop	{r3, pc}

00008460 <fld_set_base_addr>:
    8460:	e52de004 	push	{lr}		; (str lr, [sp, #-4]!)
    8464:	e24dd00c 	sub	sp, sp, #12
    8468:	e3110013 	tst	r1, #19
    846c:	0a000008 	beq	8494 <fld_set_base_addr+0x34>
    8470:	eb000701 	bl	a07c <rpi_reset_putc>
    8474:	e59f3064 	ldr	r3, [pc, #100]	; 84e0 <fld_set_base_addr+0x80>
    8478:	e58d3000 	str	r3, [sp]
    847c:	e59f0060 	ldr	r0, [pc, #96]	; 84e4 <fld_set_base_addr+0x84>
    8480:	e59f1060 	ldr	r1, [pc, #96]	; 84e8 <fld_set_base_addr+0x88>
    8484:	e59f2060 	ldr	r2, [pc, #96]	; 84ec <fld_set_base_addr+0x8c>
    8488:	e3a03032 	mov	r3, #50	; 0x32
    848c:	eb0006df 	bl	a010 <printk>
    8490:	eb00086e 	bl	a650 <clean_reboot>
    8494:	e1a02a21 	lsr	r2, r1, #20
    8498:	e1d030b2 	ldrh	r3, [r0, #2]
    849c:	e3c33cff 	bic	r3, r3, #65280	; 0xff00
    84a0:	e3c330f0 	bic	r3, r3, #240	; 0xf0
    84a4:	e1833202 	orr	r3, r3, r2, lsl #4
    84a8:	e1c030b2 	strh	r3, [r0, #2]
    84ac:	e1510a02 	cmp	r1, r2, lsl #20
    84b0:	0a000008 	beq	84d8 <fld_set_base_addr+0x78>
    84b4:	eb0006f0 	bl	a07c <rpi_reset_putc>
    84b8:	e59f3030 	ldr	r3, [pc, #48]	; 84f0 <fld_set_base_addr+0x90>
    84bc:	e58d3000 	str	r3, [sp]
    84c0:	e59f002c 	ldr	r0, [pc, #44]	; 84f4 <fld_set_base_addr+0x94>
    84c4:	e59f101c 	ldr	r1, [pc, #28]	; 84e8 <fld_set_base_addr+0x88>
    84c8:	e59f201c 	ldr	r2, [pc, #28]	; 84ec <fld_set_base_addr+0x8c>
    84cc:	e3a03037 	mov	r3, #55	; 0x37
    84d0:	eb0006ce 	bl	a010 <printk>
    84d4:	eb00085d 	bl	a650 <clean_reboot>
    84d8:	e28dd00c 	add	sp, sp, #12
    84dc:	e49df004 	pop	{pc}		; (ldr pc, [sp], #4)
    84e0:	0000b064 	andeq	fp, r0, r4, rrx
    84e4:	0000b030 	andeq	fp, r0, r0, lsr r0
    84e8:	0000af94 	muleq	r0, r4, pc	; <UNPREDICTABLE>
    84ec:	0000aee0 	andeq	sl, r0, r0, ror #29
    84f0:	0000b090 	muleq	r0, r0, r0
    84f4:	0000ade8 	andeq	sl, r0, r8, ror #27

000084f8 <mmu_map_section>:
    84f8:	e92d43f0 	push	{r4, r5, r6, r7, r8, r9, lr}
    84fc:	e24dd00c 	sub	sp, sp, #12
    8500:	e1a04000 	mov	r4, r0
    8504:	e1a09002 	mov	r9, r2
    8508:	e1a08003 	mov	r8, r3
    850c:	e353000f 	cmp	r3, #15
    8510:	9a000008 	bls	8538 <mmu_map_section+0x40>
    8514:	eb0006d8 	bl	a07c <rpi_reset_putc>
    8518:	e59f3140 	ldr	r3, [pc, #320]	; 8660 <mmu_map_section+0x168>
    851c:	e58d3000 	str	r3, [sp]
    8520:	e59f013c 	ldr	r0, [pc, #316]	; 8664 <mmu_map_section+0x16c>
    8524:	e59f113c 	ldr	r1, [pc, #316]	; 8668 <mmu_map_section+0x170>
    8528:	e59f213c 	ldr	r2, [pc, #316]	; 866c <mmu_map_section+0x174>
    852c:	e3a03042 	mov	r3, #66	; 0x42
    8530:	eb0006b6 	bl	a010 <printk>
    8534:	eb000845 	bl	a650 <clean_reboot>
    8538:	e3110013 	tst	r1, #19
    853c:	0a000008 	beq	8564 <mmu_map_section+0x6c>
    8540:	eb0006cd 	bl	a07c <rpi_reset_putc>
    8544:	e59f3124 	ldr	r3, [pc, #292]	; 8670 <mmu_map_section+0x178>
    8548:	e58d3000 	str	r3, [sp]
    854c:	e59f0110 	ldr	r0, [pc, #272]	; 8664 <mmu_map_section+0x16c>
    8550:	e59f1110 	ldr	r1, [pc, #272]	; 8668 <mmu_map_section+0x170>
    8554:	e59f2110 	ldr	r2, [pc, #272]	; 866c <mmu_map_section+0x174>
    8558:	e3a03043 	mov	r3, #67	; 0x43
    855c:	eb0006ab 	bl	a010 <printk>
    8560:	eb00083a 	bl	a650 <clean_reboot>
    8564:	e3120013 	tst	r2, #19
    8568:	0a000008 	beq	8590 <mmu_map_section+0x98>
    856c:	eb0006c2 	bl	a07c <rpi_reset_putc>
    8570:	e59f30fc 	ldr	r3, [pc, #252]	; 8674 <mmu_map_section+0x17c>
    8574:	e58d3000 	str	r3, [sp]
    8578:	e59f00e4 	ldr	r0, [pc, #228]	; 8664 <mmu_map_section+0x16c>
    857c:	e59f10e4 	ldr	r1, [pc, #228]	; 8668 <mmu_map_section+0x170>
    8580:	e59f20e4 	ldr	r2, [pc, #228]	; 866c <mmu_map_section+0x174>
    8584:	e3a03044 	mov	r3, #68	; 0x44
    8588:	eb0006a0 	bl	a010 <printk>
    858c:	eb00082f 	bl	a650 <clean_reboot>
    8590:	e1a06a21 	lsr	r6, r1, #20
    8594:	e1a07106 	lsl	r7, r6, #2
    8598:	e0805007 	add	r5, r0, r7
    859c:	e7d03106 	ldrb	r3, [r0, r6, lsl #2]
    85a0:	e3130003 	tst	r3, #3
    85a4:	0a000008 	beq	85cc <mmu_map_section+0xd4>
    85a8:	eb0006b3 	bl	a07c <rpi_reset_putc>
    85ac:	e59f30c4 	ldr	r3, [pc, #196]	; 8678 <mmu_map_section+0x180>
    85b0:	e58d3000 	str	r3, [sp]
    85b4:	e59f00c0 	ldr	r0, [pc, #192]	; 867c <mmu_map_section+0x184>
    85b8:	e59f10a8 	ldr	r1, [pc, #168]	; 8668 <mmu_map_section+0x170>
    85bc:	e59f20a8 	ldr	r2, [pc, #168]	; 866c <mmu_map_section+0x174>
    85c0:	e3a03048 	mov	r3, #72	; 0x48
    85c4:	eb000691 	bl	a010 <printk>
    85c8:	eb000820 	bl	a650 <clean_reboot>
    85cc:	eb00031d 	bl	9248 <fld_mk>
    85d0:	e7840106 	str	r0, [r4, r6, lsl #2]
    85d4:	e5d53002 	ldrb	r3, [r5, #2]
    85d8:	e3c33002 	bic	r3, r3, #2
    85dc:	e5c53002 	strb	r3, [r5, #2]
    85e0:	e5d53001 	ldrb	r3, [r5, #1]
    85e4:	e203300f 	and	r3, r3, #15
    85e8:	e383300c 	orr	r3, r3, #12
    85ec:	e5c53001 	strb	r3, [r5, #1]
    85f0:	e19430b7 	ldrh	r3, [r4, r7]
    85f4:	e208800f 	and	r8, r8, #15
    85f8:	e3c33e1e 	bic	r3, r3, #480	; 0x1e0
    85fc:	e1838288 	orr	r8, r3, r8, lsl #5
    8600:	e18480b7 	strh	r8, [r4, r7]
    8604:	e7d43106 	ldrb	r3, [r4, r6, lsl #2]
    8608:	e3c33010 	bic	r3, r3, #16
    860c:	e7c43106 	strb	r3, [r4, r6, lsl #2]
    8610:	e1a00005 	mov	r0, r5
    8614:	e1a01009 	mov	r1, r9
    8618:	ebffff90 	bl	8460 <fld_set_base_addr>
    861c:	e59f305c 	ldr	r3, [pc, #92]	; 8680 <mmu_map_section+0x188>
    8620:	e5933000 	ldr	r3, [r3]
    8624:	e3530000 	cmp	r3, #0
    8628:	0a000009 	beq	8654 <mmu_map_section+0x15c>
    862c:	e1a00005 	mov	r0, r5
    8630:	eb000333 	bl	9304 <fld_print>
    8634:	e59f0048 	ldr	r0, [pc, #72]	; 8684 <mmu_map_section+0x18c>
    8638:	e1a01004 	mov	r1, r4
    863c:	e7942106 	ldr	r2, [r4, r6, lsl #2]
    8640:	eb000672 	bl	a010 <printk>
    8644:	e59f003c 	ldr	r0, [pc, #60]	; 8688 <mmu_map_section+0x190>
    8648:	e1a01005 	mov	r1, r5
    864c:	e3a02004 	mov	r2, #4
    8650:	eb00015f 	bl	8bd4 <hash_print>
    8654:	e1a00005 	mov	r0, r5
    8658:	e28dd00c 	add	sp, sp, #12
    865c:	e8bd83f0 	pop	{r4, r5, r6, r7, r8, r9, pc}
    8660:	0000b0b4 	strheq	fp, [r0], -r4
    8664:	0000ade8 	andeq	sl, r0, r8, ror #27
    8668:	0000af94 	muleq	r0, r4, pc	; <UNPREDICTABLE>
    866c:	0000aed0 	ldrdeq	sl, [r0], -r0
    8670:	0000af9c 	muleq	r0, ip, pc	; <UNPREDICTABLE>
    8674:	0000b0c0 	andeq	fp, r0, r0, asr #1
    8678:	0000b100 	andeq	fp, r0, r0, lsl #2
    867c:	0000b0d4 	ldrdeq	fp, [r0], -r4
    8680:	0000bdd4 	ldrdeq	fp, [r0], -r4
    8684:	0000b10c 	andeq	fp, r0, ip, lsl #2
    8688:	0000b120 	andeq	fp, r0, r0, lsr #2

0000868c <mmu_map_sections>:
    868c:	e92d43f0 	push	{r4, r5, r6, r7, r8, r9, lr}
    8690:	e24dd00c 	sub	sp, sp, #12
    8694:	e1a09000 	mov	r9, r0
    8698:	e1a05001 	mov	r5, r1
    869c:	e1a06002 	mov	r6, r2
    86a0:	e1a07003 	mov	r7, r3
    86a4:	e59d8028 	ldr	r8, [sp, #40]	; 0x28
    86a8:	e358000f 	cmp	r8, #15
    86ac:	9a000008 	bls	86d4 <mmu_map_sections+0x48>
    86b0:	eb000671 	bl	a07c <rpi_reset_putc>
    86b4:	e59f30a8 	ldr	r3, [pc, #168]	; 8764 <mmu_map_sections+0xd8>
    86b8:	e58d3000 	str	r3, [sp]
    86bc:	e59f00a4 	ldr	r0, [pc, #164]	; 8768 <mmu_map_sections+0xdc>
    86c0:	e59f10a4 	ldr	r1, [pc, #164]	; 876c <mmu_map_sections+0xe0>
    86c4:	e59f20a4 	ldr	r2, [pc, #164]	; 8770 <mmu_map_sections+0xe4>
    86c8:	e3a03060 	mov	r3, #96	; 0x60
    86cc:	eb00064f 	bl	a010 <printk>
    86d0:	eb0007de 	bl	a650 <clean_reboot>
    86d4:	e3110013 	tst	r1, #19
    86d8:	0a000008 	beq	8700 <mmu_map_sections+0x74>
    86dc:	eb000666 	bl	a07c <rpi_reset_putc>
    86e0:	e59f308c 	ldr	r3, [pc, #140]	; 8774 <mmu_map_sections+0xe8>
    86e4:	e58d3000 	str	r3, [sp]
    86e8:	e59f0078 	ldr	r0, [pc, #120]	; 8768 <mmu_map_sections+0xdc>
    86ec:	e59f1078 	ldr	r1, [pc, #120]	; 876c <mmu_map_sections+0xe0>
    86f0:	e59f2078 	ldr	r2, [pc, #120]	; 8770 <mmu_map_sections+0xe4>
    86f4:	e3a03061 	mov	r3, #97	; 0x61
    86f8:	eb000644 	bl	a010 <printk>
    86fc:	eb0007d3 	bl	a650 <clean_reboot>
    8700:	e3120013 	tst	r2, #19
    8704:	0a000011 	beq	8750 <mmu_map_sections+0xc4>
    8708:	eb00065b 	bl	a07c <rpi_reset_putc>
    870c:	e59f3064 	ldr	r3, [pc, #100]	; 8778 <mmu_map_sections+0xec>
    8710:	e58d3000 	str	r3, [sp]
    8714:	e59f004c 	ldr	r0, [pc, #76]	; 8768 <mmu_map_sections+0xdc>
    8718:	e59f104c 	ldr	r1, [pc, #76]	; 876c <mmu_map_sections+0xe0>
    871c:	e59f204c 	ldr	r2, [pc, #76]	; 8770 <mmu_map_sections+0xe4>
    8720:	e3a03062 	mov	r3, #98	; 0x62
    8724:	eb000639 	bl	a010 <printk>
    8728:	eb0007c8 	bl	a650 <clean_reboot>
    872c:	e1a00009 	mov	r0, r9
    8730:	e1a01005 	mov	r1, r5
    8734:	e1a02006 	mov	r2, r6
    8738:	e1a03008 	mov	r3, r8
    873c:	ebffff6d 	bl	84f8 <mmu_map_section>
    8740:	e2855601 	add	r5, r5, #1048576	; 0x100000
    8744:	e2866601 	add	r6, r6, #1048576	; 0x100000
    8748:	e2844001 	add	r4, r4, #1
    874c:	ea000000 	b	8754 <mmu_map_sections+0xc8>
    8750:	e3a04000 	mov	r4, #0
    8754:	e1540007 	cmp	r4, r7
    8758:	3afffff3 	bcc	872c <mmu_map_sections+0xa0>
    875c:	e28dd00c 	add	sp, sp, #12
    8760:	e8bd83f0 	pop	{r4, r5, r6, r7, r8, r9, pc}
    8764:	0000b0b4 	strheq	fp, [r0], -r4
    8768:	0000ade8 	andeq	sl, r0, r8, ror #27
    876c:	0000af94 	muleq	r0, r4, pc	; <UNPREDICTABLE>
    8770:	0000aef4 	strdeq	sl, [r0], -r4
    8774:	0000af9c 	muleq	r0, ip, pc	; <UNPREDICTABLE>
    8778:	0000b0c0 	andeq	fp, r0, r0, asr #1

0000877c <mmu_pt_alloc_at>:
    877c:	e92d4010 	push	{r4, lr}
    8780:	e24dd008 	sub	sp, sp, #8
    8784:	e1a04000 	mov	r4, r0
    8788:	e310000d 	tst	r0, #13
    878c:	0a000008 	beq	87b4 <mmu_pt_alloc_at+0x38>
    8790:	eb000639 	bl	a07c <rpi_reset_putc>
    8794:	e59f305c 	ldr	r3, [pc, #92]	; 87f8 <mmu_pt_alloc_at+0x7c>
    8798:	e58d3000 	str	r3, [sp]
    879c:	e59f0058 	ldr	r0, [pc, #88]	; 87fc <mmu_pt_alloc_at+0x80>
    87a0:	e59f1058 	ldr	r1, [pc, #88]	; 8800 <mmu_pt_alloc_at+0x84>
    87a4:	e59f2058 	ldr	r2, [pc, #88]	; 8804 <mmu_pt_alloc_at+0x88>
    87a8:	e3a0306b 	mov	r3, #107	; 0x6b
    87ac:	eb000617 	bl	a010 <printk>
    87b0:	eb0007a6 	bl	a650 <clean_reboot>
    87b4:	e3510901 	cmp	r1, #16384	; 0x4000
    87b8:	0a000008 	beq	87e0 <mmu_pt_alloc_at+0x64>
    87bc:	eb00062e 	bl	a07c <rpi_reset_putc>
    87c0:	e59f3040 	ldr	r3, [pc, #64]	; 8808 <mmu_pt_alloc_at+0x8c>
    87c4:	e58d3000 	str	r3, [sp]
    87c8:	e59f003c 	ldr	r0, [pc, #60]	; 880c <mmu_pt_alloc_at+0x90>
    87cc:	e59f102c 	ldr	r1, [pc, #44]	; 8800 <mmu_pt_alloc_at+0x84>
    87d0:	e59f202c 	ldr	r2, [pc, #44]	; 8804 <mmu_pt_alloc_at+0x88>
    87d4:	e3a0306f 	mov	r3, #111	; 0x6f
    87d8:	eb00060c 	bl	a010 <printk>
    87dc:	eb00079b 	bl	a650 <clean_reboot>
    87e0:	e3a01000 	mov	r1, #0
    87e4:	e3a02901 	mov	r2, #16384	; 0x4000
    87e8:	eb000600 	bl	9ff0 <memset>
    87ec:	e1a00004 	mov	r0, r4
    87f0:	e28dd008 	add	sp, sp, #8
    87f4:	e8bd8010 	pop	{r4, pc}
    87f8:	0000b164 	andeq	fp, r0, r4, ror #2
    87fc:	0000b12c 	andeq	fp, r0, ip, lsr #2
    8800:	0000af94 	muleq	r0, r4, pc	; <UNPREDICTABLE>
    8804:	0000af08 	andeq	sl, r0, r8, lsl #30
    8808:	0000b1e0 	andeq	fp, r0, r0, ror #3
    880c:	0000b1a4 	andeq	fp, r0, r4, lsr #3

00008810 <mmu_pt_alloc>:
    8810:	e52de004 	push	{lr}		; (str lr, [sp, #-4]!)
    8814:	e24dd00c 	sub	sp, sp, #12
    8818:	e3500a01 	cmp	r0, #4096	; 0x1000
    881c:	0a000008 	beq	8844 <mmu_pt_alloc+0x34>
    8820:	eb000615 	bl	a07c <rpi_reset_putc>
    8824:	e59f305c 	ldr	r3, [pc, #92]	; 8888 <mmu_pt_alloc+0x78>
    8828:	e58d3000 	str	r3, [sp]
    882c:	e59f0058 	ldr	r0, [pc, #88]	; 888c <mmu_pt_alloc+0x7c>
    8830:	e59f1058 	ldr	r1, [pc, #88]	; 8890 <mmu_pt_alloc+0x80>
    8834:	e59f2058 	ldr	r2, [pc, #88]	; 8894 <mmu_pt_alloc+0x84>
    8838:	e3a03076 	mov	r3, #118	; 0x76
    883c:	eb0005f3 	bl	a010 <printk>
    8840:	eb000782 	bl	a650 <clean_reboot>
    8844:	e3a01901 	mov	r1, #16384	; 0x4000
    8848:	eb000934 	bl	ad20 <kmalloc_aligned>
    884c:	e310000d 	tst	r0, #13
    8850:	0a000008 	beq	8878 <mmu_pt_alloc+0x68>
    8854:	eb000608 	bl	a07c <rpi_reset_putc>
    8858:	e59f3038 	ldr	r3, [pc, #56]	; 8898 <mmu_pt_alloc+0x88>
    885c:	e58d3000 	str	r3, [sp]
    8860:	e59f0034 	ldr	r0, [pc, #52]	; 889c <mmu_pt_alloc+0x8c>
    8864:	e59f1024 	ldr	r1, [pc, #36]	; 8890 <mmu_pt_alloc+0x80>
    8868:	e59f2024 	ldr	r2, [pc, #36]	; 8894 <mmu_pt_alloc+0x84>
    886c:	e3a0307b 	mov	r3, #123	; 0x7b
    8870:	eb0005e6 	bl	a010 <printk>
    8874:	eb000775 	bl	a650 <clean_reboot>
    8878:	e3a01901 	mov	r1, #16384	; 0x4000
    887c:	ebffffbe 	bl	877c <mmu_pt_alloc_at>
    8880:	e28dd00c 	add	sp, sp, #12
    8884:	e49df004 	pop	{pc}		; (ldr pc, [sp], #4)
    8888:	0000b244 	andeq	fp, r0, r4, asr #4
    888c:	0000b1ec 	andeq	fp, r0, ip, ror #3
    8890:	0000af94 	muleq	r0, r4, pc	; <UNPREDICTABLE>
    8894:	0000af18 	andeq	sl, r0, r8, lsl pc
    8898:	0000b250 	andeq	fp, r0, r0, asr r2
    889c:	0000b12c 	andeq	fp, r0, ip, lsr #2

000088a0 <mmu_init>:
    88a0:	e52de004 	push	{lr}		; (str lr, [sp, #-4]!)
    88a4:	e24dd00c 	sub	sp, sp, #12
    88a8:	eb000552 	bl	9df8 <our_mmu_reset>
    88ac:	eb0004c3 	bl	9bc0 <cp15_ctrl_reg1_rd>
    88b0:	e3800502 	orr	r0, r0, #8388608	; 0x800000
    88b4:	eb000536 	bl	9d94 <cp15_ctrl_reg1_wr>
    88b8:	eb0004c0 	bl	9bc0 <cp15_ctrl_reg1_rd>
    88bc:	e3100502 	tst	r0, #8388608	; 0x800000
    88c0:	1a000008 	bne	88e8 <mmu_init+0x48>
    88c4:	eb0005ec 	bl	a07c <rpi_reset_putc>
    88c8:	e59f304c 	ldr	r3, [pc, #76]	; 891c <mmu_init+0x7c>
    88cc:	e58d3000 	str	r3, [sp]
    88d0:	e59f0048 	ldr	r0, [pc, #72]	; 8920 <mmu_init+0x80>
    88d4:	e59f1048 	ldr	r1, [pc, #72]	; 8924 <mmu_init+0x84>
    88d8:	e59f2048 	ldr	r2, [pc, #72]	; 8928 <mmu_init+0x88>
    88dc:	e3a0308e 	mov	r3, #142	; 0x8e
    88e0:	eb0005ca 	bl	a010 <printk>
    88e4:	eb000759 	bl	a650 <clean_reboot>
    88e8:	e3100001 	tst	r0, #1
    88ec:	0a000008 	beq	8914 <mmu_init+0x74>
    88f0:	eb0005e1 	bl	a07c <rpi_reset_putc>
    88f4:	e59f3030 	ldr	r3, [pc, #48]	; 892c <mmu_init+0x8c>
    88f8:	e58d3000 	str	r3, [sp]
    88fc:	e59f001c 	ldr	r0, [pc, #28]	; 8920 <mmu_init+0x80>
    8900:	e59f101c 	ldr	r1, [pc, #28]	; 8924 <mmu_init+0x84>
    8904:	e59f201c 	ldr	r2, [pc, #28]	; 8928 <mmu_init+0x88>
    8908:	e3a0308f 	mov	r3, #143	; 0x8f
    890c:	eb0005bf 	bl	a010 <printk>
    8910:	eb00074e 	bl	a650 <clean_reboot>
    8914:	e28dd00c 	add	sp, sp, #12
    8918:	e49df004 	pop	{pc}		; (ldr pc, [sp], #4)
    891c:	0000b28c 	andeq	fp, r0, ip, lsl #5
    8920:	0000ade8 	andeq	sl, r0, r8, ror #27
    8924:	0000af94 	muleq	r0, r4, pc	; <UNPREDICTABLE>
    8928:	0000af28 	andeq	sl, r0, r8, lsr #30
    892c:	0000b298 	muleq	r0, r8, r2

00008930 <mmu_install_handlers>:
    8930:	e92d4008 	push	{r3, lr}
    8934:	eb0007a4 	bl	a7cc <int_init>
    8938:	e8bd8008 	pop	{r3, pc}

0000893c <mmu_disable_set>:
    893c:	e52de004 	push	{lr}		; (str lr, [sp, #-4]!)
    8940:	e24dd00c 	sub	sp, sp, #12
    8944:	e3100001 	tst	r0, #1
    8948:	0a000008 	beq	8970 <mmu_disable_set+0x34>
    894c:	eb0005ca 	bl	a07c <rpi_reset_putc>
    8950:	e59f3050 	ldr	r3, [pc, #80]	; 89a8 <mmu_disable_set+0x6c>
    8954:	e58d3000 	str	r3, [sp]
    8958:	e59f004c 	ldr	r0, [pc, #76]	; 89ac <mmu_disable_set+0x70>
    895c:	e59f104c 	ldr	r1, [pc, #76]	; 89b0 <mmu_disable_set+0x74>
    8960:	e59f204c 	ldr	r2, [pc, #76]	; 89b4 <mmu_disable_set+0x78>
    8964:	e3a03098 	mov	r3, #152	; 0x98
    8968:	eb0005a8 	bl	a010 <printk>
    896c:	eb000737 	bl	a650 <clean_reboot>
    8970:	e3100004 	tst	r0, #4
    8974:	0a000008 	beq	899c <mmu_disable_set+0x60>
    8978:	eb0005bf 	bl	a07c <rpi_reset_putc>
    897c:	e59f3034 	ldr	r3, [pc, #52]	; 89b8 <mmu_disable_set+0x7c>
    8980:	e58d3000 	str	r3, [sp]
    8984:	e59f0020 	ldr	r0, [pc, #32]	; 89ac <mmu_disable_set+0x70>
    8988:	e59f1020 	ldr	r1, [pc, #32]	; 89b0 <mmu_disable_set+0x74>
    898c:	e59f2020 	ldr	r2, [pc, #32]	; 89b4 <mmu_disable_set+0x78>
    8990:	e3a03099 	mov	r3, #153	; 0x99
    8994:	eb00059d 	bl	a010 <printk>
    8998:	eb00072c 	bl	a650 <clean_reboot>
    899c:	eb000536 	bl	9e7c <our_mmu_disable_set_asm>
    89a0:	e28dd00c 	add	sp, sp, #12
    89a4:	e49df004 	pop	{pc}		; (ldr pc, [sp], #4)
    89a8:	0000b2a8 	andeq	fp, r0, r8, lsr #5
    89ac:	0000ade8 	andeq	sl, r0, r8, ror #27
    89b0:	0000af94 	muleq	r0, r4, pc	; <UNPREDICTABLE>
    89b4:	0000af34 	andeq	sl, r0, r4, lsr pc
    89b8:	0000b2b8 			; <UNDEFINED> instruction: 0x0000b2b8

000089bc <mmu_disable>:
    89bc:	e52de004 	push	{lr}		; (str lr, [sp, #-4]!)
    89c0:	e24dd00c 	sub	sp, sp, #12
    89c4:	eb00047d 	bl	9bc0 <cp15_ctrl_reg1_rd>
    89c8:	e3100001 	tst	r0, #1
    89cc:	1a000008 	bne	89f4 <mmu_disable+0x38>
    89d0:	eb0005a9 	bl	a07c <rpi_reset_putc>
    89d4:	e59f3028 	ldr	r3, [pc, #40]	; 8a04 <mmu_disable+0x48>
    89d8:	e58d3000 	str	r3, [sp]
    89dc:	e59f0024 	ldr	r0, [pc, #36]	; 8a08 <mmu_disable+0x4c>
    89e0:	e59f1024 	ldr	r1, [pc, #36]	; 8a0c <mmu_disable+0x50>
    89e4:	e59f2024 	ldr	r2, [pc, #36]	; 8a10 <mmu_disable+0x54>
    89e8:	e3a0309e 	mov	r3, #158	; 0x9e
    89ec:	eb000587 	bl	a010 <printk>
    89f0:	eb000716 	bl	a650 <clean_reboot>
    89f4:	e3c00001 	bic	r0, r0, #1
    89f8:	ebffffcf 	bl	893c <mmu_disable_set>
    89fc:	e28dd00c 	add	sp, sp, #12
    8a00:	e49df004 	pop	{pc}		; (ldr pc, [sp], #4)
    8a04:	0000b2cc 	andeq	fp, r0, ip, asr #5
    8a08:	0000ade8 	andeq	sl, r0, r8, ror #27
    8a0c:	0000af94 	muleq	r0, r4, pc	; <UNPREDICTABLE>
    8a10:	0000af44 	andeq	sl, r0, r4, asr #30

00008a14 <mmu_enable_set>:
    8a14:	e52de004 	push	{lr}		; (str lr, [sp, #-4]!)
    8a18:	e24dd00c 	sub	sp, sp, #12
    8a1c:	e3100001 	tst	r0, #1
    8a20:	1a000008 	bne	8a48 <mmu_enable_set+0x34>
    8a24:	eb000594 	bl	a07c <rpi_reset_putc>
    8a28:	e59f3024 	ldr	r3, [pc, #36]	; 8a54 <mmu_enable_set+0x40>
    8a2c:	e58d3000 	str	r3, [sp]
    8a30:	e59f0020 	ldr	r0, [pc, #32]	; 8a58 <mmu_enable_set+0x44>
    8a34:	e59f1020 	ldr	r1, [pc, #32]	; 8a5c <mmu_enable_set+0x48>
    8a38:	e59f2020 	ldr	r2, [pc, #32]	; 8a60 <mmu_enable_set+0x4c>
    8a3c:	e3a030a4 	mov	r3, #164	; 0xa4
    8a40:	eb000572 	bl	a010 <printk>
    8a44:	eb000701 	bl	a650 <clean_reboot>
    8a48:	eb000503 	bl	9e5c <our_mmu_enable_set_asm>
    8a4c:	e28dd00c 	add	sp, sp, #12
    8a50:	e49df004 	pop	{pc}		; (ldr pc, [sp], #4)
    8a54:	0000b2cc 	andeq	fp, r0, ip, asr #5
    8a58:	0000ade8 	andeq	sl, r0, r8, ror #27
    8a5c:	0000af94 	muleq	r0, r4, pc	; <UNPREDICTABLE>
    8a60:	0000af50 	andeq	sl, r0, r0, asr pc

00008a64 <mmu_enable>:
    8a64:	e52de004 	push	{lr}		; (str lr, [sp, #-4]!)
    8a68:	e24dd00c 	sub	sp, sp, #12
    8a6c:	eb000453 	bl	9bc0 <cp15_ctrl_reg1_rd>
    8a70:	e3100001 	tst	r0, #1
    8a74:	0a000008 	beq	8a9c <mmu_enable+0x38>
    8a78:	eb00057f 	bl	a07c <rpi_reset_putc>
    8a7c:	e59f3028 	ldr	r3, [pc, #40]	; 8aac <mmu_enable+0x48>
    8a80:	e58d3000 	str	r3, [sp]
    8a84:	e59f0024 	ldr	r0, [pc, #36]	; 8ab0 <mmu_enable+0x4c>
    8a88:	e59f1024 	ldr	r1, [pc, #36]	; 8ab4 <mmu_enable+0x50>
    8a8c:	e59f2024 	ldr	r2, [pc, #36]	; 8ab8 <mmu_enable+0x54>
    8a90:	e3a030a9 	mov	r3, #169	; 0xa9
    8a94:	eb00055d 	bl	a010 <printk>
    8a98:	eb0006ec 	bl	a650 <clean_reboot>
    8a9c:	e3800001 	orr	r0, r0, #1
    8aa0:	ebffffdb 	bl	8a14 <mmu_enable_set>
    8aa4:	e28dd00c 	add	sp, sp, #12
    8aa8:	e49df004 	pop	{pc}		; (ldr pc, [sp], #4)
    8aac:	0000b2a8 	andeq	fp, r0, r8, lsr #5
    8ab0:	0000ade8 	andeq	sl, r0, r8, ror #27
    8ab4:	0000af94 	muleq	r0, r4, pc	; <UNPREDICTABLE>
    8ab8:	0000af60 	andeq	sl, r0, r0, ror #30

00008abc <read_domain_access_ctrl>:
    8abc:	ee130f10 	mrc	15, 0, r0, cr3, cr0, {0}
    8ac0:	e12fff1e 	bx	lr

00008ac4 <write_domain_access_ctrl>:
    8ac4:	e92d4008 	push	{r3, lr}
    8ac8:	eb0004aa 	bl	9d78 <our_cp15_domain_ctrl_wr>
    8acc:	e8bd8008 	pop	{r3, pc}

00008ad0 <set_procid_ttbr0>:
    8ad0:	e52de004 	push	{lr}		; (str lr, [sp, #-4]!)
    8ad4:	e24dd00c 	sub	sp, sp, #12
    8ad8:	e1b03c20 	lsrs	r3, r0, #24
    8adc:	0a000008 	beq	8b04 <set_procid_ttbr0+0x34>
    8ae0:	eb000565 	bl	a07c <rpi_reset_putc>
    8ae4:	e59f3088 	ldr	r3, [pc, #136]	; 8b74 <set_procid_ttbr0+0xa4>
    8ae8:	e58d3000 	str	r3, [sp]
    8aec:	e59f0084 	ldr	r0, [pc, #132]	; 8b78 <set_procid_ttbr0+0xa8>
    8af0:	e59f1084 	ldr	r1, [pc, #132]	; 8b7c <set_procid_ttbr0+0xac>
    8af4:	e59f2084 	ldr	r2, [pc, #132]	; 8b80 <set_procid_ttbr0+0xb0>
    8af8:	e3a030bb 	mov	r3, #187	; 0xbb
    8afc:	eb000543 	bl	a010 <printk>
    8b00:	eb0006d2 	bl	a650 <clean_reboot>
    8b04:	e3500040 	cmp	r0, #64	; 0x40
    8b08:	8a000008 	bhi	8b30 <set_procid_ttbr0+0x60>
    8b0c:	eb00055a 	bl	a07c <rpi_reset_putc>
    8b10:	e59f306c 	ldr	r3, [pc, #108]	; 8b84 <set_procid_ttbr0+0xb4>
    8b14:	e58d3000 	str	r3, [sp]
    8b18:	e59f0058 	ldr	r0, [pc, #88]	; 8b78 <set_procid_ttbr0+0xa8>
    8b1c:	e59f1058 	ldr	r1, [pc, #88]	; 8b7c <set_procid_ttbr0+0xac>
    8b20:	e59f2058 	ldr	r2, [pc, #88]	; 8b80 <set_procid_ttbr0+0xb0>
    8b24:	e3a030bc 	mov	r3, #188	; 0xbc
    8b28:	eb000538 	bl	a010 <printk>
    8b2c:	eb0006c7 	bl	a650 <clean_reboot>
    8b30:	e2413001 	sub	r3, r1, #1
    8b34:	e353003e 	cmp	r3, #62	; 0x3e
    8b38:	9a000008 	bls	8b60 <set_procid_ttbr0+0x90>
    8b3c:	eb00054e 	bl	a07c <rpi_reset_putc>
    8b40:	e59f3040 	ldr	r3, [pc, #64]	; 8b88 <set_procid_ttbr0+0xb8>
    8b44:	e58d3000 	str	r3, [sp]
    8b48:	e59f0028 	ldr	r0, [pc, #40]	; 8b78 <set_procid_ttbr0+0xa8>
    8b4c:	e59f1028 	ldr	r1, [pc, #40]	; 8b7c <set_procid_ttbr0+0xac>
    8b50:	e59f2028 	ldr	r2, [pc, #40]	; 8b80 <set_procid_ttbr0+0xb0>
    8b54:	e3a030bd 	mov	r3, #189	; 0xbd
    8b58:	eb00052c 	bl	a010 <printk>
    8b5c:	eb0006bb 	bl	a650 <clean_reboot>
    8b60:	e1810400 	orr	r0, r1, r0, lsl #8
    8b64:	e1a01002 	mov	r1, r2
    8b68:	eb000498 	bl	9dd0 <our_cp15_set_procid_ttbr0>
    8b6c:	e28dd00c 	add	sp, sp, #12
    8b70:	e49df004 	pop	{pc}		; (ldr pc, [sp], #4)
    8b74:	0000b2dc 	ldrdeq	fp, [r0], -ip
    8b78:	0000ade8 	andeq	sl, r0, r8, ror #27
    8b7c:	0000af94 	muleq	r0, r4, pc	; <UNPREDICTABLE>
    8b80:	0000af6c 	andeq	sl, r0, ip, ror #30
    8b84:	0000b2f0 	strdeq	fp, [r0], -r0
    8b88:	0000b2fc 	strdeq	fp, [r0], -ip

00008b8c <asm_not_implemented>:
    8b8c:	e52de004 	push	{lr}		; (str lr, [sp, #-4]!)
    8b90:	e24dd00c 	sub	sp, sp, #12
    8b94:	e1a04000 	mov	r4, r0
    8b98:	ebfffdd6 	bl	82f8 <mmu_is_enabled>
    8b9c:	e3500000 	cmp	r0, #0
    8ba0:	0a000000 	beq	8ba8 <asm_not_implemented+0x1c>
    8ba4:	ebffff84 	bl	89bc <mmu_disable>
    8ba8:	eb000533 	bl	a07c <rpi_reset_putc>
    8bac:	e58d4000 	str	r4, [sp]
    8bb0:	e59f0010 	ldr	r0, [pc, #16]	; 8bc8 <asm_not_implemented+0x3c>
    8bb4:	e59f1010 	ldr	r1, [pc, #16]	; 8bcc <asm_not_implemented+0x40>
    8bb8:	e59f2010 	ldr	r2, [pc, #16]	; 8bd0 <asm_not_implemented+0x44>
    8bbc:	e3a030c5 	mov	r3, #197	; 0xc5
    8bc0:	eb000512 	bl	a010 <printk>
    8bc4:	eb0006a1 	bl	a650 <clean_reboot>
    8bc8:	0000b310 	andeq	fp, r0, r0, lsl r3
    8bcc:	0000af94 	muleq	r0, r4, pc	; <UNPREDICTABLE>
    8bd0:	0000af80 	andeq	sl, r0, r0, lsl #31

00008bd4 <hash_print>:
    8bd4:	e92d4038 	push	{r3, r4, r5, lr}
    8bd8:	e1a05000 	mov	r5, r0
    8bdc:	e1a04002 	mov	r4, r2
    8be0:	e1a00001 	mov	r0, r1
    8be4:	e1a01002 	mov	r1, r2
    8be8:	eb0004c4 	bl	9f00 <fast_hash>
    8bec:	e1a02000 	mov	r2, r0
    8bf0:	e59f000c 	ldr	r0, [pc, #12]	; 8c04 <hash_print+0x30>
    8bf4:	e1a01005 	mov	r1, r5
    8bf8:	e1a03004 	mov	r3, r4
    8bfc:	eb000503 	bl	a010 <printk>
    8c00:	e8bd8038 	pop	{r3, r4, r5, pc}
    8c04:	0000b348 	andeq	fp, r0, r8, asr #6

00008c08 <domain_acl_print>:
    8c08:	e92d4008 	push	{r3, lr}
    8c0c:	e59f0014 	ldr	r0, [pc, #20]	; 8c28 <domain_acl_print+0x20>
    8c10:	eb0004fe 	bl	a010 <printk>
    8c14:	ebffffa8 	bl	8abc <read_domain_access_ctrl>
    8c18:	e1a01000 	mov	r1, r0
    8c1c:	e59f0008 	ldr	r0, [pc, #8]	; 8c2c <domain_acl_print+0x24>
    8c20:	eb0004fa 	bl	a010 <printk>
    8c24:	e8bd8008 	pop	{r3, pc}
    8c28:	0000b364 	andeq	fp, r0, r4, ror #6
    8c2c:	0000b37c 	andeq	fp, r0, ip, ror r3

00008c30 <control_reg1_check_offsets>:
    8c30:	e52de004 	push	{lr}		; (str lr, [sp, #-4]!)
    8c34:	e49df004 	pop	{pc}		; (ldr pc, [sp], #4)

00008c38 <control_reg1_sanity_check>:
    8c38:	e52de004 	push	{lr}		; (str lr, [sp, #-4]!)
    8c3c:	e24dd00c 	sub	sp, sp, #12
    8c40:	e5d03000 	ldrb	r3, [r0]
    8c44:	e1a03223 	lsr	r3, r3, #4
    8c48:	e2033007 	and	r3, r3, #7
    8c4c:	e3530007 	cmp	r3, #7
    8c50:	0a000008 	beq	8c78 <control_reg1_sanity_check+0x40>
    8c54:	eb000508 	bl	a07c <rpi_reset_putc>
    8c58:	e59f31a0 	ldr	r3, [pc, #416]	; 8e00 <control_reg1_sanity_check+0x1c8>
    8c5c:	e58d3000 	str	r3, [sp]
    8c60:	e59f019c 	ldr	r0, [pc, #412]	; 8e04 <control_reg1_sanity_check+0x1cc>
    8c64:	e59f119c 	ldr	r1, [pc, #412]	; 8e08 <control_reg1_sanity_check+0x1d0>
    8c68:	e59f219c 	ldr	r2, [pc, #412]	; 8e0c <control_reg1_sanity_check+0x1d4>
    8c6c:	e3a0303b 	mov	r3, #59	; 0x3b
    8c70:	eb0004e6 	bl	a010 <printk>
    8c74:	eb000675 	bl	a650 <clean_reboot>
    8c78:	e5d03002 	ldrb	r3, [r0, #2]
    8c7c:	e3130001 	tst	r3, #1
    8c80:	1a000008 	bne	8ca8 <control_reg1_sanity_check+0x70>
    8c84:	eb0004fc 	bl	a07c <rpi_reset_putc>
    8c88:	e59f3180 	ldr	r3, [pc, #384]	; 8e10 <control_reg1_sanity_check+0x1d8>
    8c8c:	e58d3000 	str	r3, [sp]
    8c90:	e59f016c 	ldr	r0, [pc, #364]	; 8e04 <control_reg1_sanity_check+0x1cc>
    8c94:	e59f116c 	ldr	r1, [pc, #364]	; 8e08 <control_reg1_sanity_check+0x1d0>
    8c98:	e59f216c 	ldr	r2, [pc, #364]	; 8e0c <control_reg1_sanity_check+0x1d4>
    8c9c:	e3a0303c 	mov	r3, #60	; 0x3c
    8ca0:	eb0004da 	bl	a010 <printk>
    8ca4:	eb000669 	bl	a650 <clean_reboot>
    8ca8:	e5d03002 	ldrb	r3, [r0, #2]
    8cac:	e3130004 	tst	r3, #4
    8cb0:	1a000008 	bne	8cd8 <control_reg1_sanity_check+0xa0>
    8cb4:	eb0004f0 	bl	a07c <rpi_reset_putc>
    8cb8:	e59f3154 	ldr	r3, [pc, #340]	; 8e14 <control_reg1_sanity_check+0x1dc>
    8cbc:	e58d3000 	str	r3, [sp]
    8cc0:	e59f013c 	ldr	r0, [pc, #316]	; 8e04 <control_reg1_sanity_check+0x1cc>
    8cc4:	e59f113c 	ldr	r1, [pc, #316]	; 8e08 <control_reg1_sanity_check+0x1d0>
    8cc8:	e59f213c 	ldr	r2, [pc, #316]	; 8e0c <control_reg1_sanity_check+0x1d4>
    8ccc:	e3a0303d 	mov	r3, #61	; 0x3d
    8cd0:	eb0004ce 	bl	a010 <printk>
    8cd4:	eb00065d 	bl	a650 <clean_reboot>
    8cd8:	e5d03002 	ldrb	r3, [r0, #2]
    8cdc:	e3130002 	tst	r3, #2
    8ce0:	0a000008 	beq	8d08 <control_reg1_sanity_check+0xd0>
    8ce4:	eb0004e4 	bl	a07c <rpi_reset_putc>
    8ce8:	e59f3128 	ldr	r3, [pc, #296]	; 8e18 <control_reg1_sanity_check+0x1e0>
    8cec:	e58d3000 	str	r3, [sp]
    8cf0:	e59f010c 	ldr	r0, [pc, #268]	; 8e04 <control_reg1_sanity_check+0x1cc>
    8cf4:	e59f110c 	ldr	r1, [pc, #268]	; 8e08 <control_reg1_sanity_check+0x1d0>
    8cf8:	e59f210c 	ldr	r2, [pc, #268]	; 8e0c <control_reg1_sanity_check+0x1d4>
    8cfc:	e3a03040 	mov	r3, #64	; 0x40
    8d00:	eb0004c2 	bl	a010 <printk>
    8d04:	eb000651 	bl	a650 <clean_reboot>
    8d08:	e5d03002 	ldrb	r3, [r0, #2]
    8d0c:	e3130008 	tst	r3, #8
    8d10:	0a000008 	beq	8d38 <control_reg1_sanity_check+0x100>
    8d14:	eb0004d8 	bl	a07c <rpi_reset_putc>
    8d18:	e59f30fc 	ldr	r3, [pc, #252]	; 8e1c <control_reg1_sanity_check+0x1e4>
    8d1c:	e58d3000 	str	r3, [sp]
    8d20:	e59f00dc 	ldr	r0, [pc, #220]	; 8e04 <control_reg1_sanity_check+0x1cc>
    8d24:	e59f10dc 	ldr	r1, [pc, #220]	; 8e08 <control_reg1_sanity_check+0x1d0>
    8d28:	e59f20dc 	ldr	r2, [pc, #220]	; 8e0c <control_reg1_sanity_check+0x1d4>
    8d2c:	e3a03041 	mov	r3, #65	; 0x41
    8d30:	eb0004b6 	bl	a010 <printk>
    8d34:	eb000645 	bl	a650 <clean_reboot>
    8d38:	e5d03002 	ldrb	r3, [r0, #2]
    8d3c:	e3130010 	tst	r3, #16
    8d40:	0a000008 	beq	8d68 <control_reg1_sanity_check+0x130>
    8d44:	eb0004cc 	bl	a07c <rpi_reset_putc>
    8d48:	e59f30d0 	ldr	r3, [pc, #208]	; 8e20 <control_reg1_sanity_check+0x1e8>
    8d4c:	e58d3000 	str	r3, [sp]
    8d50:	e59f00ac 	ldr	r0, [pc, #172]	; 8e04 <control_reg1_sanity_check+0x1cc>
    8d54:	e59f10ac 	ldr	r1, [pc, #172]	; 8e08 <control_reg1_sanity_check+0x1d0>
    8d58:	e59f20ac 	ldr	r2, [pc, #172]	; 8e0c <control_reg1_sanity_check+0x1d4>
    8d5c:	e3a03042 	mov	r3, #66	; 0x42
    8d60:	eb0004aa 	bl	a010 <printk>
    8d64:	eb000639 	bl	a650 <clean_reboot>
    8d68:	e5d03003 	ldrb	r3, [r0, #3]
    8d6c:	e3130004 	tst	r3, #4
    8d70:	0a000008 	beq	8d98 <control_reg1_sanity_check+0x160>
    8d74:	eb0004c0 	bl	a07c <rpi_reset_putc>
    8d78:	e59f30a4 	ldr	r3, [pc, #164]	; 8e24 <control_reg1_sanity_check+0x1ec>
    8d7c:	e58d3000 	str	r3, [sp]
    8d80:	e59f007c 	ldr	r0, [pc, #124]	; 8e04 <control_reg1_sanity_check+0x1cc>
    8d84:	e59f107c 	ldr	r1, [pc, #124]	; 8e08 <control_reg1_sanity_check+0x1d0>
    8d88:	e59f207c 	ldr	r2, [pc, #124]	; 8e0c <control_reg1_sanity_check+0x1d4>
    8d8c:	e3a0304b 	mov	r3, #75	; 0x4b
    8d90:	eb00049e 	bl	a010 <printk>
    8d94:	eb00062d 	bl	a650 <clean_reboot>
    8d98:	e5d03001 	ldrb	r3, [r0, #1]
    8d9c:	e3130010 	tst	r3, #16
    8da0:	0a000008 	beq	8dc8 <control_reg1_sanity_check+0x190>
    8da4:	eb0004b4 	bl	a07c <rpi_reset_putc>
    8da8:	e59f3078 	ldr	r3, [pc, #120]	; 8e28 <control_reg1_sanity_check+0x1f0>
    8dac:	e58d3000 	str	r3, [sp]
    8db0:	e59f004c 	ldr	r0, [pc, #76]	; 8e04 <control_reg1_sanity_check+0x1cc>
    8db4:	e59f104c 	ldr	r1, [pc, #76]	; 8e08 <control_reg1_sanity_check+0x1d0>
    8db8:	e59f204c 	ldr	r2, [pc, #76]	; 8e0c <control_reg1_sanity_check+0x1d4>
    8dbc:	e3a0304c 	mov	r3, #76	; 0x4c
    8dc0:	eb000492 	bl	a010 <printk>
    8dc4:	eb000621 	bl	a650 <clean_reboot>
    8dc8:	e5d03000 	ldrb	r3, [r0]
    8dcc:	e3130004 	tst	r3, #4
    8dd0:	0a000008 	beq	8df8 <control_reg1_sanity_check+0x1c0>
    8dd4:	eb0004a8 	bl	a07c <rpi_reset_putc>
    8dd8:	e59f304c 	ldr	r3, [pc, #76]	; 8e2c <control_reg1_sanity_check+0x1f4>
    8ddc:	e58d3000 	str	r3, [sp]
    8de0:	e59f001c 	ldr	r0, [pc, #28]	; 8e04 <control_reg1_sanity_check+0x1cc>
    8de4:	e59f101c 	ldr	r1, [pc, #28]	; 8e08 <control_reg1_sanity_check+0x1d0>
    8de8:	e59f201c 	ldr	r2, [pc, #28]	; 8e0c <control_reg1_sanity_check+0x1d4>
    8dec:	e3a0304d 	mov	r3, #77	; 0x4d
    8df0:	eb000486 	bl	a010 <printk>
    8df4:	eb000615 	bl	a650 <clean_reboot>
    8df8:	e28dd00c 	add	sp, sp, #12
    8dfc:	e49df004 	pop	{pc}		; (ldr pc, [sp], #4)
    8e00:	0000b4e0 	andeq	fp, r0, r0, ror #9
    8e04:	0000ade8 	andeq	sl, r0, r8, ror #27
    8e08:	0000b3cc 	andeq	fp, r0, ip, asr #7
    8e0c:	0000b720 	andeq	fp, r0, r0, lsr #14
    8e10:	0000b4f8 	strdeq	fp, [r0], -r8
    8e14:	0000b504 	andeq	fp, r0, r4, lsl #10
    8e18:	0000b510 	andeq	fp, r0, r0, lsl r5
    8e1c:	0000b520 	andeq	fp, r0, r0, lsr #10
    8e20:	0000b530 	andeq	fp, r0, r0, lsr r5
    8e24:	0000b53c 	andeq	fp, r0, ip, lsr r5
    8e28:	0000b54c 	andeq	fp, r0, ip, asr #10
    8e2c:	0000b560 	andeq	fp, r0, r0, ror #10

00008e30 <control_reg1_print>:
    8e30:	e92d4010 	push	{r4, lr}
    8e34:	e1a04000 	mov	r4, r0
    8e38:	ebffff7e 	bl	8c38 <control_reg1_sanity_check>
    8e3c:	e59f01a0 	ldr	r0, [pc, #416]	; 8fe4 <control_reg1_print+0x1b4>
    8e40:	eb000472 	bl	a010 <printk>
    8e44:	e5d41003 	ldrb	r1, [r4, #3]
    8e48:	e1a012a1 	lsr	r1, r1, #5
    8e4c:	e59f0194 	ldr	r0, [pc, #404]	; 8fe8 <control_reg1_print+0x1b8>
    8e50:	e2011001 	and	r1, r1, #1
    8e54:	e59f2190 	ldr	r2, [pc, #400]	; 8fec <control_reg1_print+0x1bc>
    8e58:	eb00046c 	bl	a010 <printk>
    8e5c:	e5d41003 	ldrb	r1, [r4, #3]
    8e60:	e1a01221 	lsr	r1, r1, #4
    8e64:	e59f017c 	ldr	r0, [pc, #380]	; 8fe8 <control_reg1_print+0x1b8>
    8e68:	e2011001 	and	r1, r1, #1
    8e6c:	e59f217c 	ldr	r2, [pc, #380]	; 8ff0 <control_reg1_print+0x1c0>
    8e70:	eb000466 	bl	a010 <printk>
    8e74:	e5d41003 	ldrb	r1, [r4, #3]
    8e78:	e1a01121 	lsr	r1, r1, #2
    8e7c:	e59f0164 	ldr	r0, [pc, #356]	; 8fe8 <control_reg1_print+0x1b8>
    8e80:	e2011001 	and	r1, r1, #1
    8e84:	e59f2168 	ldr	r2, [pc, #360]	; 8ff4 <control_reg1_print+0x1c4>
    8e88:	eb000460 	bl	a010 <printk>
    8e8c:	e5d41003 	ldrb	r1, [r4, #3]
    8e90:	e1a010a1 	lsr	r1, r1, #1
    8e94:	e59f014c 	ldr	r0, [pc, #332]	; 8fe8 <control_reg1_print+0x1b8>
    8e98:	e2011001 	and	r1, r1, #1
    8e9c:	e59f2154 	ldr	r2, [pc, #340]	; 8ff8 <control_reg1_print+0x1c8>
    8ea0:	eb00045a 	bl	a010 <printk>
    8ea4:	e5d41003 	ldrb	r1, [r4, #3]
    8ea8:	e59f0138 	ldr	r0, [pc, #312]	; 8fe8 <control_reg1_print+0x1b8>
    8eac:	e2011001 	and	r1, r1, #1
    8eb0:	e59f2144 	ldr	r2, [pc, #324]	; 8ffc <control_reg1_print+0x1cc>
    8eb4:	eb000455 	bl	a010 <printk>
    8eb8:	e5d41002 	ldrb	r1, [r4, #2]
    8ebc:	e59f0124 	ldr	r0, [pc, #292]	; 8fe8 <control_reg1_print+0x1b8>
    8ec0:	e1a013a1 	lsr	r1, r1, #7
    8ec4:	e59f2134 	ldr	r2, [pc, #308]	; 9000 <control_reg1_print+0x1d0>
    8ec8:	eb000450 	bl	a010 <printk>
    8ecc:	e5d41002 	ldrb	r1, [r4, #2]
    8ed0:	e1a01321 	lsr	r1, r1, #6
    8ed4:	e59f010c 	ldr	r0, [pc, #268]	; 8fe8 <control_reg1_print+0x1b8>
    8ed8:	e2011001 	and	r1, r1, #1
    8edc:	e59f2120 	ldr	r2, [pc, #288]	; 9004 <control_reg1_print+0x1d4>
    8ee0:	eb00044a 	bl	a010 <printk>
    8ee4:	e5d41002 	ldrb	r1, [r4, #2]
    8ee8:	e1a012a1 	lsr	r1, r1, #5
    8eec:	e59f00f4 	ldr	r0, [pc, #244]	; 8fe8 <control_reg1_print+0x1b8>
    8ef0:	e2011001 	and	r1, r1, #1
    8ef4:	e59f210c 	ldr	r2, [pc, #268]	; 9008 <control_reg1_print+0x1d8>
    8ef8:	eb000444 	bl	a010 <printk>
    8efc:	e5d41001 	ldrb	r1, [r4, #1]
    8f00:	e1a01321 	lsr	r1, r1, #6
    8f04:	e59f00dc 	ldr	r0, [pc, #220]	; 8fe8 <control_reg1_print+0x1b8>
    8f08:	e2011001 	and	r1, r1, #1
    8f0c:	e59f20f8 	ldr	r2, [pc, #248]	; 900c <control_reg1_print+0x1dc>
    8f10:	eb00043e 	bl	a010 <printk>
    8f14:	e5d41001 	ldrb	r1, [r4, #1]
    8f18:	e1a01221 	lsr	r1, r1, #4
    8f1c:	e59f00c4 	ldr	r0, [pc, #196]	; 8fe8 <control_reg1_print+0x1b8>
    8f20:	e2011001 	and	r1, r1, #1
    8f24:	e59f20e4 	ldr	r2, [pc, #228]	; 9010 <control_reg1_print+0x1e0>
    8f28:	eb000438 	bl	a010 <printk>
    8f2c:	e5d41001 	ldrb	r1, [r4, #1]
    8f30:	e1a011a1 	lsr	r1, r1, #3
    8f34:	e59f00ac 	ldr	r0, [pc, #172]	; 8fe8 <control_reg1_print+0x1b8>
    8f38:	e2011001 	and	r1, r1, #1
    8f3c:	e59f20d0 	ldr	r2, [pc, #208]	; 9014 <control_reg1_print+0x1e4>
    8f40:	eb000432 	bl	a010 <printk>
    8f44:	e5d41001 	ldrb	r1, [r4, #1]
    8f48:	e1a010a1 	lsr	r1, r1, #1
    8f4c:	e59f0094 	ldr	r0, [pc, #148]	; 8fe8 <control_reg1_print+0x1b8>
    8f50:	e2011001 	and	r1, r1, #1
    8f54:	e59f20bc 	ldr	r2, [pc, #188]	; 9018 <control_reg1_print+0x1e8>
    8f58:	eb00042c 	bl	a010 <printk>
    8f5c:	e5d41001 	ldrb	r1, [r4, #1]
    8f60:	e59f0080 	ldr	r0, [pc, #128]	; 8fe8 <control_reg1_print+0x1b8>
    8f64:	e2011001 	and	r1, r1, #1
    8f68:	e59f20ac 	ldr	r2, [pc, #172]	; 901c <control_reg1_print+0x1ec>
    8f6c:	eb000427 	bl	a010 <printk>
    8f70:	e5d41000 	ldrb	r1, [r4]
    8f74:	e59f006c 	ldr	r0, [pc, #108]	; 8fe8 <control_reg1_print+0x1b8>
    8f78:	e1a013a1 	lsr	r1, r1, #7
    8f7c:	e59f209c 	ldr	r2, [pc, #156]	; 9020 <control_reg1_print+0x1f0>
    8f80:	eb000422 	bl	a010 <printk>
    8f84:	e5d41000 	ldrb	r1, [r4]
    8f88:	e1a011a1 	lsr	r1, r1, #3
    8f8c:	e59f0054 	ldr	r0, [pc, #84]	; 8fe8 <control_reg1_print+0x1b8>
    8f90:	e2011001 	and	r1, r1, #1
    8f94:	e59f2088 	ldr	r2, [pc, #136]	; 9024 <control_reg1_print+0x1f4>
    8f98:	eb00041c 	bl	a010 <printk>
    8f9c:	e5d41000 	ldrb	r1, [r4]
    8fa0:	e1a01121 	lsr	r1, r1, #2
    8fa4:	e59f003c 	ldr	r0, [pc, #60]	; 8fe8 <control_reg1_print+0x1b8>
    8fa8:	e2011001 	and	r1, r1, #1
    8fac:	e59f2074 	ldr	r2, [pc, #116]	; 9028 <control_reg1_print+0x1f8>
    8fb0:	eb000416 	bl	a010 <printk>
    8fb4:	e5d41000 	ldrb	r1, [r4]
    8fb8:	e1a010a1 	lsr	r1, r1, #1
    8fbc:	e59f0024 	ldr	r0, [pc, #36]	; 8fe8 <control_reg1_print+0x1b8>
    8fc0:	e2011001 	and	r1, r1, #1
    8fc4:	e59f2060 	ldr	r2, [pc, #96]	; 902c <control_reg1_print+0x1fc>
    8fc8:	eb000410 	bl	a010 <printk>
    8fcc:	e5d41000 	ldrb	r1, [r4]
    8fd0:	e59f0010 	ldr	r0, [pc, #16]	; 8fe8 <control_reg1_print+0x1b8>
    8fd4:	e2011001 	and	r1, r1, #1
    8fd8:	e59f2050 	ldr	r2, [pc, #80]	; 9030 <control_reg1_print+0x200>
    8fdc:	eb00040b 	bl	a010 <printk>
    8fe0:	e8bd8010 	pop	{r4, pc}
    8fe4:	0000b578 	andeq	fp, r0, r8, ror r5
    8fe8:	0000b590 	muleq	r0, r0, r5
    8fec:	0000b4d4 	ldrdeq	fp, [r0], -r4
    8ff0:	0000b4c4 	andeq	fp, r0, r4, asr #9
    8ff4:	0000b540 	andeq	fp, r0, r0, asr #10
    8ff8:	0000b4c0 	andeq	fp, r0, r0, asr #9
    8ffc:	0000b4b4 			; <UNDEFINED> instruction: 0x0000b4b4
    9000:	0000b4ac 	andeq	fp, r0, ip, lsr #9
    9004:	0000b4a0 	andeq	fp, r0, r0, lsr #9
    9008:	0000b49c 	muleq	r0, ip, r4
    900c:	0000b488 	andeq	fp, r0, r8, lsl #9
    9010:	0000b550 	andeq	fp, r0, r0, asr r5
    9014:	0000b468 	andeq	fp, r0, r8, ror #8
    9018:	0000b458 	andeq	fp, r0, r8, asr r4
    901c:	0000b450 	andeq	fp, r0, r0, asr r4
    9020:	0000b444 	andeq	fp, r0, r4, asr #8
    9024:	0000b438 	andeq	fp, r0, r8, lsr r4
    9028:	0000b564 	andeq	fp, r0, r4, ror #10
    902c:	0000b42c 	andeq	fp, r0, ip, lsr #8
    9030:	0000b29c 	muleq	r0, ip, r2

00009034 <tlb_config_check_offsets>:
    9034:	e52de004 	push	{lr}		; (str lr, [sp, #-4]!)
    9038:	e49df004 	pop	{pc}		; (ldr pc, [sp], #4)

0000903c <tlb_config_print>:
    903c:	e92d4010 	push	{r4, lr}
    9040:	e1a04000 	mov	r4, r0
    9044:	e59f002c 	ldr	r0, [pc, #44]	; 9078 <tlb_config_print+0x3c>
    9048:	eb0003f0 	bl	a010 <printk>
    904c:	e5d41000 	ldrb	r1, [r4]
    9050:	e59f0024 	ldr	r0, [pc, #36]	; 907c <tlb_config_print+0x40>
    9054:	e2011001 	and	r1, r1, #1
    9058:	eb0003ec 	bl	a010 <printk>
    905c:	e59f001c 	ldr	r0, [pc, #28]	; 9080 <tlb_config_print+0x44>
    9060:	e5d41001 	ldrb	r1, [r4, #1]
    9064:	eb0003e9 	bl	a010 <printk>
    9068:	e59f0014 	ldr	r0, [pc, #20]	; 9084 <tlb_config_print+0x48>
    906c:	e5d41002 	ldrb	r1, [r4, #2]
    9070:	eb0003e6 	bl	a010 <printk>
    9074:	e8bd8010 	pop	{r4, pc}
    9078:	0000b5c8 	andeq	fp, r0, r8, asr #11
    907c:	0000b5d8 	ldrdeq	fp, [r0], -r8
    9080:	0000b5e8 	andeq	fp, r0, r8, ror #11
    9084:	0000b600 	andeq	fp, r0, r0, lsl #12

00009088 <fld_check_valid>:
    9088:	e52de004 	push	{lr}		; (str lr, [sp, #-4]!)
    908c:	e24dd00c 	sub	sp, sp, #12
    9090:	e5d03002 	ldrb	r3, [r0, #2]
    9094:	e3130008 	tst	r3, #8
    9098:	0a000008 	beq	90c0 <fld_check_valid+0x38>
    909c:	eb0003f6 	bl	a07c <rpi_reset_putc>
    90a0:	e59f3174 	ldr	r3, [pc, #372]	; 921c <fld_check_valid+0x194>
    90a4:	e58d3000 	str	r3, [sp]
    90a8:	e59f0170 	ldr	r0, [pc, #368]	; 9220 <fld_check_valid+0x198>
    90ac:	e59f1170 	ldr	r1, [pc, #368]	; 9224 <fld_check_valid+0x19c>
    90b0:	e59f2170 	ldr	r2, [pc, #368]	; 9228 <fld_check_valid+0x1a0>
    90b4:	e3a0307d 	mov	r3, #125	; 0x7d
    90b8:	eb0003d4 	bl	a010 <printk>
    90bc:	eb000563 	bl	a650 <clean_reboot>
    90c0:	e5d03000 	ldrb	r3, [r0]
    90c4:	e2033003 	and	r3, r3, #3
    90c8:	e3530002 	cmp	r3, #2
    90cc:	0a000008 	beq	90f4 <fld_check_valid+0x6c>
    90d0:	eb0003e9 	bl	a07c <rpi_reset_putc>
    90d4:	e59f3150 	ldr	r3, [pc, #336]	; 922c <fld_check_valid+0x1a4>
    90d8:	e58d3000 	str	r3, [sp]
    90dc:	e59f013c 	ldr	r0, [pc, #316]	; 9220 <fld_check_valid+0x198>
    90e0:	e59f113c 	ldr	r1, [pc, #316]	; 9224 <fld_check_valid+0x19c>
    90e4:	e59f213c 	ldr	r2, [pc, #316]	; 9228 <fld_check_valid+0x1a0>
    90e8:	e3a0307e 	mov	r3, #126	; 0x7e
    90ec:	eb0003c7 	bl	a010 <printk>
    90f0:	eb000556 	bl	a650 <clean_reboot>
    90f4:	e5d03002 	ldrb	r3, [r0, #2]
    90f8:	e3130001 	tst	r3, #1
    90fc:	0a000008 	beq	9124 <fld_check_valid+0x9c>
    9100:	eb0003dd 	bl	a07c <rpi_reset_putc>
    9104:	e59f3124 	ldr	r3, [pc, #292]	; 9230 <fld_check_valid+0x1a8>
    9108:	e58d3000 	str	r3, [sp]
    910c:	e59f010c 	ldr	r0, [pc, #268]	; 9220 <fld_check_valid+0x198>
    9110:	e59f110c 	ldr	r1, [pc, #268]	; 9224 <fld_check_valid+0x19c>
    9114:	e59f210c 	ldr	r2, [pc, #268]	; 9228 <fld_check_valid+0x1a0>
    9118:	e3a0307f 	mov	r3, #127	; 0x7f
    911c:	eb0003bb 	bl	a010 <printk>
    9120:	eb00054a 	bl	a650 <clean_reboot>
    9124:	e5d03001 	ldrb	r3, [r0, #1]
    9128:	e3130002 	tst	r3, #2
    912c:	0a000008 	beq	9154 <fld_check_valid+0xcc>
    9130:	eb0003d1 	bl	a07c <rpi_reset_putc>
    9134:	e59f30f8 	ldr	r3, [pc, #248]	; 9234 <fld_check_valid+0x1ac>
    9138:	e58d3000 	str	r3, [sp]
    913c:	e59f00dc 	ldr	r0, [pc, #220]	; 9220 <fld_check_valid+0x198>
    9140:	e59f10dc 	ldr	r1, [pc, #220]	; 9224 <fld_check_valid+0x19c>
    9144:	e59f20dc 	ldr	r2, [pc, #220]	; 9228 <fld_check_valid+0x1a0>
    9148:	e3a03080 	mov	r3, #128	; 0x80
    914c:	eb0003af 	bl	a010 <printk>
    9150:	eb00053e 	bl	a650 <clean_reboot>
    9154:	e5d03001 	ldrb	r3, [r0, #1]
    9158:	e3130070 	tst	r3, #112	; 0x70
    915c:	0a000008 	beq	9184 <fld_check_valid+0xfc>
    9160:	eb0003c5 	bl	a07c <rpi_reset_putc>
    9164:	e59f30cc 	ldr	r3, [pc, #204]	; 9238 <fld_check_valid+0x1b0>
    9168:	e58d3000 	str	r3, [sp]
    916c:	e59f00ac 	ldr	r0, [pc, #172]	; 9220 <fld_check_valid+0x198>
    9170:	e59f10ac 	ldr	r1, [pc, #172]	; 9224 <fld_check_valid+0x19c>
    9174:	e59f20ac 	ldr	r2, [pc, #172]	; 9228 <fld_check_valid+0x1a0>
    9178:	e3a03081 	mov	r3, #129	; 0x81
    917c:	eb0003a3 	bl	a010 <printk>
    9180:	eb000532 	bl	a650 <clean_reboot>
    9184:	e5d03000 	ldrb	r3, [r0]
    9188:	e3130008 	tst	r3, #8
    918c:	0a000008 	beq	91b4 <fld_check_valid+0x12c>
    9190:	eb0003b9 	bl	a07c <rpi_reset_putc>
    9194:	e59f30a0 	ldr	r3, [pc, #160]	; 923c <fld_check_valid+0x1b4>
    9198:	e58d3000 	str	r3, [sp]
    919c:	e59f007c 	ldr	r0, [pc, #124]	; 9220 <fld_check_valid+0x198>
    91a0:	e59f107c 	ldr	r1, [pc, #124]	; 9224 <fld_check_valid+0x19c>
    91a4:	e59f207c 	ldr	r2, [pc, #124]	; 9228 <fld_check_valid+0x1a0>
    91a8:	e3a03082 	mov	r3, #130	; 0x82
    91ac:	eb000397 	bl	a010 <printk>
    91b0:	eb000526 	bl	a650 <clean_reboot>
    91b4:	e5d03000 	ldrb	r3, [r0]
    91b8:	e3130004 	tst	r3, #4
    91bc:	0a000008 	beq	91e4 <fld_check_valid+0x15c>
    91c0:	eb0003ad 	bl	a07c <rpi_reset_putc>
    91c4:	e59f3074 	ldr	r3, [pc, #116]	; 9240 <fld_check_valid+0x1b8>
    91c8:	e58d3000 	str	r3, [sp]
    91cc:	e59f004c 	ldr	r0, [pc, #76]	; 9220 <fld_check_valid+0x198>
    91d0:	e59f104c 	ldr	r1, [pc, #76]	; 9224 <fld_check_valid+0x19c>
    91d4:	e59f204c 	ldr	r2, [pc, #76]	; 9228 <fld_check_valid+0x1a0>
    91d8:	e3a03083 	mov	r3, #131	; 0x83
    91dc:	eb00038b 	bl	a010 <printk>
    91e0:	eb00051a 	bl	a650 <clean_reboot>
    91e4:	e5d03002 	ldrb	r3, [r0, #2]
    91e8:	e3130004 	tst	r3, #4
    91ec:	0a000008 	beq	9214 <fld_check_valid+0x18c>
    91f0:	eb0003a1 	bl	a07c <rpi_reset_putc>
    91f4:	e59f3048 	ldr	r3, [pc, #72]	; 9244 <fld_check_valid+0x1bc>
    91f8:	e58d3000 	str	r3, [sp]
    91fc:	e59f001c 	ldr	r0, [pc, #28]	; 9220 <fld_check_valid+0x198>
    9200:	e59f101c 	ldr	r1, [pc, #28]	; 9224 <fld_check_valid+0x19c>
    9204:	e59f201c 	ldr	r2, [pc, #28]	; 9228 <fld_check_valid+0x1a0>
    9208:	e3a03084 	mov	r3, #132	; 0x84
    920c:	eb00037f 	bl	a010 <printk>
    9210:	eb00050e 	bl	a650 <clean_reboot>
    9214:	e28dd00c 	add	sp, sp, #12
    9218:	e49df004 	pop	{pc}		; (ldr pc, [sp], #4)
    921c:	0000b618 	andeq	fp, r0, r8, lsl r6
    9220:	0000ade8 	andeq	sl, r0, r8, ror #27
    9224:	0000b3cc 	andeq	fp, r0, ip, asr #7
    9228:	0000b73c 	andeq	fp, r0, ip, lsr r7
    922c:	0000b628 	andeq	fp, r0, r8, lsr #12
    9230:	0000b638 	andeq	fp, r0, r8, lsr r6
    9234:	0000b644 	andeq	fp, r0, r4, asr #12
    9238:	0000b650 	andeq	fp, r0, r0, asr r6
    923c:	0000b65c 	andeq	fp, r0, ip, asr r6
    9240:	0000b668 	andeq	fp, r0, r8, ror #12
    9244:	0000b674 	andeq	fp, r0, r4, ror r6

00009248 <fld_mk>:
    9248:	e3a00002 	mov	r0, #2
    924c:	e12fff1e 	bx	lr

00009250 <fld_check_offsets>:
    9250:	e92d4010 	push	{r4, lr}
    9254:	e24dd020 	sub	sp, sp, #32
    9258:	ebfffffa 	bl	9248 <fld_mk>
    925c:	e28d3020 	add	r3, sp, #32
    9260:	e5230004 	str	r0, [r3, #-4]!
    9264:	e1a00003 	mov	r0, r3
    9268:	ebffff86 	bl	9088 <fld_check_valid>
    926c:	e59f4074 	ldr	r4, [pc, #116]	; 92e8 <fld_check_offsets+0x98>
    9270:	e1540004 	cmp	r4, r4
    9274:	0a00000e 	beq	92b4 <fld_check_offsets+0x64>
    9278:	eb00037f 	bl	a07c <rpi_reset_putc>
    927c:	e58d4000 	str	r4, [sp]
    9280:	e58d4004 	str	r4, [sp, #4]
    9284:	e59f3060 	ldr	r3, [pc, #96]	; 92ec <fld_check_offsets+0x9c>
    9288:	e58d3008 	str	r3, [sp, #8]
    928c:	e3a03014 	mov	r3, #20
    9290:	e58d300c 	str	r3, [sp, #12]
    9294:	e3a0300c 	mov	r3, #12
    9298:	e58d3010 	str	r3, [sp, #16]
    929c:	e59f004c 	ldr	r0, [pc, #76]	; 92f0 <fld_check_offsets+0xa0>
    92a0:	e59f104c 	ldr	r1, [pc, #76]	; 92f4 <fld_check_offsets+0xa4>
    92a4:	e59f204c 	ldr	r2, [pc, #76]	; 92f8 <fld_check_offsets+0xa8>
    92a8:	e3a030a0 	mov	r3, #160	; 0xa0
    92ac:	eb000357 	bl	a010 <printk>
    92b0:	eb0004e6 	bl	a650 <clean_reboot>
    92b4:	e3740601 	cmn	r4, #1048576	; 0x100000
    92b8:	0a000008 	beq	92e0 <fld_check_offsets+0x90>
    92bc:	eb00036e 	bl	a07c <rpi_reset_putc>
    92c0:	e59f3034 	ldr	r3, [pc, #52]	; 92fc <fld_check_offsets+0xac>
    92c4:	e58d3000 	str	r3, [sp]
    92c8:	e59f0030 	ldr	r0, [pc, #48]	; 9300 <fld_check_offsets+0xb0>
    92cc:	e59f1020 	ldr	r1, [pc, #32]	; 92f4 <fld_check_offsets+0xa4>
    92d0:	e59f2020 	ldr	r2, [pc, #32]	; 92f8 <fld_check_offsets+0xa8>
    92d4:	e3a030a0 	mov	r3, #160	; 0xa0
    92d8:	eb00034c 	bl	a010 <printk>
    92dc:	eb0004db 	bl	a650 <clean_reboot>
    92e0:	e28dd020 	add	sp, sp, #32
    92e4:	e8bd8010 	pop	{r4, pc}
    92e8:	fff00000 			; <UNDEFINED> instruction: 0xfff00000	; IMB
    92ec:	0000b6bc 			; <UNDEFINED> instruction: 0x0000b6bc
    92f0:	0000b3e8 	andeq	fp, r0, r8, ror #7
    92f4:	0000b3cc 	andeq	fp, r0, ip, asr #7
    92f8:	0000b784 	andeq	fp, r0, r4, lsl #15
    92fc:	0000b3dc 	ldrdeq	fp, [r0], -ip
    9300:	0000ade8 	andeq	sl, r0, r8, ror #27

00009304 <fld_print>:
    9304:	e92d4010 	push	{r4, lr}
    9308:	e1a04000 	mov	r4, r0
    930c:	e59f0178 	ldr	r0, [pc, #376]	; 948c <fld_print+0x188>
    9310:	eb00033e 	bl	a010 <printk>
    9314:	e59f0174 	ldr	r0, [pc, #372]	; 9490 <fld_print+0x18c>
    9318:	e1a01004 	mov	r1, r4
    931c:	eb00033b 	bl	a010 <printk>
    9320:	e1d410b2 	ldrh	r1, [r4, #2]
    9324:	e59f0168 	ldr	r0, [pc, #360]	; 9494 <fld_print+0x190>
    9328:	e1a01221 	lsr	r1, r1, #4
    932c:	e59f2164 	ldr	r2, [pc, #356]	; 9498 <fld_print+0x194>
    9330:	eb000336 	bl	a010 <printk>
    9334:	e1d410b2 	ldrh	r1, [r4, #2]
    9338:	e1a01221 	lsr	r1, r1, #4
    933c:	e3510008 	cmp	r1, #8
    9340:	da000001 	ble	934c <fld_print+0x48>
    9344:	e59f0150 	ldr	r0, [pc, #336]	; 949c <fld_print+0x198>
    9348:	eb000330 	bl	a010 <printk>
    934c:	e1d410b2 	ldrh	r1, [r4, #2]
    9350:	e1a01221 	lsr	r1, r1, #4
    9354:	e59f0144 	ldr	r0, [pc, #324]	; 94a0 <fld_print+0x19c>
    9358:	e1a01a01 	lsl	r1, r1, #20
    935c:	eb00032b 	bl	a010 <printk>
    9360:	e59f013c 	ldr	r0, [pc, #316]	; 94a4 <fld_print+0x1a0>
    9364:	eb000329 	bl	a010 <printk>
    9368:	e5d41002 	ldrb	r1, [r4, #2]
    936c:	e1a010a1 	lsr	r1, r1, #1
    9370:	e59f011c 	ldr	r0, [pc, #284]	; 9494 <fld_print+0x190>
    9374:	e2011001 	and	r1, r1, #1
    9378:	e59f2128 	ldr	r2, [pc, #296]	; 94a8 <fld_print+0x1a4>
    937c:	eb000323 	bl	a010 <printk>
    9380:	e5d41002 	ldrb	r1, [r4, #2]
    9384:	e59f0108 	ldr	r0, [pc, #264]	; 9494 <fld_print+0x190>
    9388:	e2011001 	and	r1, r1, #1
    938c:	e59f2118 	ldr	r2, [pc, #280]	; 94ac <fld_print+0x1a8>
    9390:	eb00031e 	bl	a010 <printk>
    9394:	e5d41001 	ldrb	r1, [r4, #1]
    9398:	e59f00f4 	ldr	r0, [pc, #244]	; 9494 <fld_print+0x190>
    939c:	e1a013a1 	lsr	r1, r1, #7
    93a0:	e59f2108 	ldr	r2, [pc, #264]	; 94b0 <fld_print+0x1ac>
    93a4:	eb000319 	bl	a010 <printk>
    93a8:	e5d41001 	ldrb	r1, [r4, #1]
    93ac:	e1a01221 	lsr	r1, r1, #4
    93b0:	e59f00dc 	ldr	r0, [pc, #220]	; 9494 <fld_print+0x190>
    93b4:	e2011007 	and	r1, r1, #7
    93b8:	e59f20f4 	ldr	r2, [pc, #244]	; 94b4 <fld_print+0x1b0>
    93bc:	eb000313 	bl	a010 <printk>
    93c0:	e5d41001 	ldrb	r1, [r4, #1]
    93c4:	e1a01121 	lsr	r1, r1, #2
    93c8:	e59f00c4 	ldr	r0, [pc, #196]	; 9494 <fld_print+0x190>
    93cc:	e2011003 	and	r1, r1, #3
    93d0:	e59f20e0 	ldr	r2, [pc, #224]	; 94b8 <fld_print+0x1b4>
    93d4:	eb00030d 	bl	a010 <printk>
    93d8:	e5d41001 	ldrb	r1, [r4, #1]
    93dc:	e1a010a1 	lsr	r1, r1, #1
    93e0:	e59f00ac 	ldr	r0, [pc, #172]	; 9494 <fld_print+0x190>
    93e4:	e2011001 	and	r1, r1, #1
    93e8:	e59f20cc 	ldr	r2, [pc, #204]	; 94bc <fld_print+0x1b8>
    93ec:	eb000307 	bl	a010 <printk>
    93f0:	e1d410b0 	ldrh	r1, [r4]
    93f4:	e1a012a1 	lsr	r1, r1, #5
    93f8:	e59f0094 	ldr	r0, [pc, #148]	; 9494 <fld_print+0x190>
    93fc:	e201100f 	and	r1, r1, #15
    9400:	e59f20b8 	ldr	r2, [pc, #184]	; 94c0 <fld_print+0x1bc>
    9404:	eb000301 	bl	a010 <printk>
    9408:	e1d410b0 	ldrh	r1, [r4]
    940c:	e1a012a1 	lsr	r1, r1, #5
    9410:	e201100f 	and	r1, r1, #15
    9414:	e3510008 	cmp	r1, #8
    9418:	da000001 	ble	9424 <fld_print+0x120>
    941c:	e59f0078 	ldr	r0, [pc, #120]	; 949c <fld_print+0x198>
    9420:	eb0002fa 	bl	a010 <printk>
    9424:	e5d41000 	ldrb	r1, [r4]
    9428:	e1a01221 	lsr	r1, r1, #4
    942c:	e59f0060 	ldr	r0, [pc, #96]	; 9494 <fld_print+0x190>
    9430:	e2011001 	and	r1, r1, #1
    9434:	e59f2088 	ldr	r2, [pc, #136]	; 94c4 <fld_print+0x1c0>
    9438:	eb0002f4 	bl	a010 <printk>
    943c:	e5d41000 	ldrb	r1, [r4]
    9440:	e1a011a1 	lsr	r1, r1, #3
    9444:	e59f0048 	ldr	r0, [pc, #72]	; 9494 <fld_print+0x190>
    9448:	e2011001 	and	r1, r1, #1
    944c:	e59f2074 	ldr	r2, [pc, #116]	; 94c8 <fld_print+0x1c4>
    9450:	eb0002ee 	bl	a010 <printk>
    9454:	e5d41000 	ldrb	r1, [r4]
    9458:	e1a01121 	lsr	r1, r1, #2
    945c:	e59f0030 	ldr	r0, [pc, #48]	; 9494 <fld_print+0x190>
    9460:	e2011001 	and	r1, r1, #1
    9464:	e59f2060 	ldr	r2, [pc, #96]	; 94cc <fld_print+0x1c8>
    9468:	eb0002e8 	bl	a010 <printk>
    946c:	e5d41000 	ldrb	r1, [r4]
    9470:	e59f001c 	ldr	r0, [pc, #28]	; 9494 <fld_print+0x190>
    9474:	e2011003 	and	r1, r1, #3
    9478:	e59f2050 	ldr	r2, [pc, #80]	; 94d0 <fld_print+0x1cc>
    947c:	eb0002e3 	bl	a010 <printk>
    9480:	e1a00004 	mov	r0, r4
    9484:	ebfffeff 	bl	9088 <fld_check_valid>
    9488:	e8bd8010 	pop	{r4, pc}
    948c:	0000b6cc 	andeq	fp, r0, ip, asr #13
    9490:	0000b6ec 	andeq	fp, r0, ip, ror #13
    9494:	0000b590 	muleq	r0, r0, r5
    9498:	0000b6bc 			; <UNDEFINED> instruction: 0x0000b6bc
    949c:	0000b59c 	muleq	r0, ip, r5
    94a0:	0000b6f4 	strdeq	fp, [r0], -r4
    94a4:	0000b708 	andeq	fp, r0, r8, lsl #14
    94a8:	0000b6b0 			; <UNDEFINED> instruction: 0x0000b6b0
    94ac:	0000b6ac 	andeq	fp, r0, ip, lsr #13
    94b0:	0000b6a8 	andeq	fp, r0, r8, lsr #13
    94b4:	0000b6a4 	andeq	fp, r0, r4, lsr #13
    94b8:	0000b6a0 	andeq	fp, r0, r0, lsr #13
    94bc:	0000b69c 	muleq	r0, ip, r6
    94c0:	0000b694 	muleq	r0, r4, r6
    94c4:	0000b690 	muleq	r0, r0, r6
    94c8:	0000b68c 	andeq	fp, r0, ip, lsl #13
    94cc:	0000b688 	andeq	fp, r0, r8, lsl #13
    94d0:	0000b684 	andeq	fp, r0, r4, lsl #13

000094d4 <check_vm_structs>:
    94d4:	e92d4008 	push	{r3, lr}
    94d8:	ebfffdd4 	bl	8c30 <control_reg1_check_offsets>
    94dc:	ebfffed4 	bl	9034 <tlb_config_check_offsets>
    94e0:	ebffff5a 	bl	9250 <fld_check_offsets>
    94e4:	e8bd8008 	pop	{r3, pc}

000094e8 <last_fault_get>:
    94e8:	e1a03000 	mov	r3, r0
    94ec:	e59f200c 	ldr	r2, [pc, #12]	; 9500 <last_fault_get+0x18>
    94f0:	e8920007 	ldm	r2, {r0, r1, r2}
    94f4:	e8830007 	stm	r3, {r0, r1, r2}
    94f8:	e1a00003 	mov	r0, r3
    94fc:	e12fff1e 	bx	lr
    9500:	0000bdd8 	ldrdeq	fp, [r0], -r8

00009504 <last_fault_set>:
    9504:	e59f300c 	ldr	r3, [pc, #12]	; 9518 <last_fault_set+0x14>
    9508:	e5831000 	str	r1, [r3]
    950c:	e5830004 	str	r0, [r3, #4]
    9510:	e5832008 	str	r2, [r3, #8]
    9514:	e12fff1e 	bx	lr
    9518:	0000bdd8 	ldrdeq	fp, [r0], -r8

0000951c <fault_expected>:
    951c:	e92d4070 	push	{r4, r5, r6, lr}
    9520:	e24dd018 	sub	sp, sp, #24
    9524:	e1a06000 	mov	r6, r0
    9528:	e1a04001 	mov	r4, r1
    952c:	e1a05002 	mov	r5, r2
    9530:	e28d000c 	add	r0, sp, #12
    9534:	ebffffeb 	bl	94e8 <last_fault_get>
    9538:	e59d300c 	ldr	r3, [sp, #12]
    953c:	e1530004 	cmp	r3, r4
    9540:	0a000008 	beq	9568 <fault_expected+0x4c>
    9544:	eb0002cc 	bl	a07c <rpi_reset_putc>
    9548:	e59f309c 	ldr	r3, [pc, #156]	; 95ec <fault_expected+0xd0>
    954c:	e58d3000 	str	r3, [sp]
    9550:	e59f0098 	ldr	r0, [pc, #152]	; 95f0 <fault_expected+0xd4>
    9554:	e59f1098 	ldr	r1, [pc, #152]	; 95f4 <fault_expected+0xd8>
    9558:	e59f2098 	ldr	r2, [pc, #152]	; 95f8 <fault_expected+0xdc>
    955c:	e3a03028 	mov	r3, #40	; 0x28
    9560:	eb0002aa 	bl	a010 <printk>
    9564:	eb000439 	bl	a650 <clean_reboot>
    9568:	e59d3010 	ldr	r3, [sp, #16]
    956c:	e1530006 	cmp	r3, r6
    9570:	0a000008 	beq	9598 <fault_expected+0x7c>
    9574:	eb0002c0 	bl	a07c <rpi_reset_putc>
    9578:	e59f307c 	ldr	r3, [pc, #124]	; 95fc <fault_expected+0xe0>
    957c:	e58d3000 	str	r3, [sp]
    9580:	e59f0068 	ldr	r0, [pc, #104]	; 95f0 <fault_expected+0xd4>
    9584:	e59f1068 	ldr	r1, [pc, #104]	; 95f4 <fault_expected+0xd8>
    9588:	e59f2068 	ldr	r2, [pc, #104]	; 95f8 <fault_expected+0xdc>
    958c:	e3a03029 	mov	r3, #41	; 0x29
    9590:	eb00029e 	bl	a010 <printk>
    9594:	eb00042d 	bl	a650 <clean_reboot>
    9598:	e59d3014 	ldr	r3, [sp, #20]
    959c:	e1530005 	cmp	r3, r5
    95a0:	0a000008 	beq	95c8 <fault_expected+0xac>
    95a4:	eb0002b4 	bl	a07c <rpi_reset_putc>
    95a8:	e59f3050 	ldr	r3, [pc, #80]	; 9600 <fault_expected+0xe4>
    95ac:	e58d3000 	str	r3, [sp]
    95b0:	e59f0038 	ldr	r0, [pc, #56]	; 95f0 <fault_expected+0xd4>
    95b4:	e59f1038 	ldr	r1, [pc, #56]	; 95f4 <fault_expected+0xd8>
    95b8:	e59f2038 	ldr	r2, [pc, #56]	; 95f8 <fault_expected+0xdc>
    95bc:	e3a0302a 	mov	r3, #42	; 0x2a
    95c0:	eb000292 	bl	a010 <printk>
    95c4:	eb000421 	bl	a650 <clean_reboot>
    95c8:	e59f0034 	ldr	r0, [pc, #52]	; 9604 <fault_expected+0xe8>
    95cc:	eb00028f 	bl	a010 <printk>
    95d0:	e59f0030 	ldr	r0, [pc, #48]	; 9608 <fault_expected+0xec>
    95d4:	e1a01006 	mov	r1, r6
    95d8:	e1a02004 	mov	r2, r4
    95dc:	e1a03005 	mov	r3, r5
    95e0:	eb00028a 	bl	a010 <printk>
    95e4:	e28dd018 	add	sp, sp, #24
    95e8:	e8bd8070 	pop	{r4, r5, r6, pc}
    95ec:	0000b7a4 	andeq	fp, r0, r4, lsr #15
    95f0:	0000ade8 	andeq	sl, r0, r8, ror #27
    95f4:	0000b798 	muleq	r0, r8, r7
    95f8:	0000b9a4 	andeq	fp, r0, r4, lsr #19
    95fc:	0000b7bc 			; <UNDEFINED> instruction: 0x0000b7bc
    9600:	0000b7d0 	ldrdeq	fp, [r0], -r0
    9604:	0000ae34 	andeq	sl, r0, r4, lsr lr
    9608:	0000b7ec 	andeq	fp, r0, ip, ror #15

0000960c <dom_perm_get>:
    960c:	e92d4010 	push	{r4, lr}
    9610:	e24dd008 	sub	sp, sp, #8
    9614:	e1a04000 	mov	r4, r0
    9618:	ebfffd27 	bl	8abc <read_domain_access_ctrl>
    961c:	e1a03084 	lsl	r3, r4, #1
    9620:	e2842001 	add	r2, r4, #1
    9624:	e1a02082 	lsl	r2, r2, #1
    9628:	e1530002 	cmp	r3, r2
    962c:	9a000008 	bls	9654 <dom_perm_get+0x48>
    9630:	eb000291 	bl	a07c <rpi_reset_putc>
    9634:	e59f3060 	ldr	r3, [pc, #96]	; 969c <dom_perm_get+0x90>
    9638:	e58d3000 	str	r3, [sp]
    963c:	e59f005c 	ldr	r0, [pc, #92]	; 96a0 <dom_perm_get+0x94>
    9640:	e59f105c 	ldr	r1, [pc, #92]	; 96a4 <dom_perm_get+0x98>
    9644:	e59f205c 	ldr	r2, [pc, #92]	; 96a8 <dom_perm_get+0x9c>
    9648:	e3a0301d 	mov	r3, #29
    964c:	eb00026f 	bl	a010 <printk>
    9650:	eb0003fe 	bl	a650 <clean_reboot>
    9654:	e352001f 	cmp	r2, #31
    9658:	9a000008 	bls	9680 <dom_perm_get+0x74>
    965c:	eb000286 	bl	a07c <rpi_reset_putc>
    9660:	e59f3044 	ldr	r3, [pc, #68]	; 96ac <dom_perm_get+0xa0>
    9664:	e58d3000 	str	r3, [sp]
    9668:	e59f0030 	ldr	r0, [pc, #48]	; 96a0 <dom_perm_get+0x94>
    966c:	e59f1030 	ldr	r1, [pc, #48]	; 96a4 <dom_perm_get+0x98>
    9670:	e59f2030 	ldr	r2, [pc, #48]	; 96a8 <dom_perm_get+0x9c>
    9674:	e3a0301e 	mov	r3, #30
    9678:	eb000264 	bl	a010 <printk>
    967c:	eb0003f3 	bl	a650 <clean_reboot>
    9680:	e0632002 	rsb	r2, r3, r2
    9684:	e2822001 	add	r2, r2, #1
    9688:	e3e01000 	mvn	r1, #0
    968c:	e1e02211 	mvn	r2, r1, lsl r2
    9690:	e0020330 	and	r0, r2, r0, lsr r3
    9694:	e28dd008 	add	sp, sp, #8
    9698:	e8bd8010 	pop	{r4, pc}
    969c:	0000b830 	andeq	fp, r0, r0, lsr r8
    96a0:	0000ade8 	andeq	sl, r0, r8, ror #27
    96a4:	0000b820 	andeq	fp, r0, r0, lsr #16
    96a8:	0000ba3c 	andeq	fp, r0, ip, lsr sl
    96ac:	0000b83c 	andeq	fp, r0, ip, lsr r8

000096b0 <dom_perm_set>:
    96b0:	e52de004 	push	{lr}		; (str lr, [sp, #-4]!)
    96b4:	e24dd00c 	sub	sp, sp, #12
    96b8:	e350000f 	cmp	r0, #15
    96bc:	9a000008 	bls	96e4 <dom_perm_set+0x34>
    96c0:	eb00026d 	bl	a07c <rpi_reset_putc>
    96c4:	e59f3060 	ldr	r3, [pc, #96]	; 972c <dom_perm_set+0x7c>
    96c8:	e58d3000 	str	r3, [sp]
    96cc:	e59f005c 	ldr	r0, [pc, #92]	; 9730 <dom_perm_set+0x80>
    96d0:	e59f105c 	ldr	r1, [pc, #92]	; 9734 <dom_perm_set+0x84>
    96d4:	e59f205c 	ldr	r2, [pc, #92]	; 9738 <dom_perm_set+0x88>
    96d8:	e3a03041 	mov	r3, #65	; 0x41
    96dc:	eb00024b 	bl	a010 <printk>
    96e0:	eb0003da 	bl	a650 <clean_reboot>
    96e4:	e3510001 	cmp	r1, #1
    96e8:	9a000008 	bls	9710 <dom_perm_set+0x60>
    96ec:	eb000262 	bl	a07c <rpi_reset_putc>
    96f0:	e59f3044 	ldr	r3, [pc, #68]	; 973c <dom_perm_set+0x8c>
    96f4:	e58d3000 	str	r3, [sp]
    96f8:	e59f0030 	ldr	r0, [pc, #48]	; 9730 <dom_perm_set+0x80>
    96fc:	e59f1030 	ldr	r1, [pc, #48]	; 9734 <dom_perm_set+0x84>
    9700:	e59f2030 	ldr	r2, [pc, #48]	; 9738 <dom_perm_set+0x88>
    9704:	e3a03042 	mov	r3, #66	; 0x42
    9708:	eb000240 	bl	a010 <printk>
    970c:	eb0003cf 	bl	a650 <clean_reboot>
    9710:	eb000259 	bl	a07c <rpi_reset_putc>
    9714:	e59f0024 	ldr	r0, [pc, #36]	; 9740 <dom_perm_set+0x90>
    9718:	e59f1014 	ldr	r1, [pc, #20]	; 9734 <dom_perm_set+0x84>
    971c:	e59f2014 	ldr	r2, [pc, #20]	; 9738 <dom_perm_set+0x88>
    9720:	e3a03044 	mov	r3, #68	; 0x44
    9724:	eb000239 	bl	a010 <printk>
    9728:	eb0003c8 	bl	a650 <clean_reboot>
    972c:	0000b0b4 	strheq	fp, [r0], -r4
    9730:	0000ade8 	andeq	sl, r0, r8, ror #27
    9734:	0000b798 	muleq	r0, r8, r7
    9738:	0000ba48 	andeq	fp, r0, r8, asr #20
    973c:	0000b844 	andeq	fp, r0, r4, asr #16
    9740:	0000b870 	andeq	fp, r0, r0, ror r8

00009744 <memcheck_continue_after_fault>:
    9744:	e3a02001 	mov	r2, #1
    9748:	e59f3004 	ldr	r3, [pc, #4]	; 9754 <memcheck_continue_after_fault+0x10>
    974c:	e5832000 	str	r2, [r3]
    9750:	e12fff1e 	bx	lr
    9754:	0000bde4 	andeq	fp, r0, r4, ror #27

00009758 <data_abort_vector>:
    9758:	e92d4008 	push	{r3, lr}
    975c:	ee153f10 	mrc	15, 0, r3, cr5, cr0, {0}
    9760:	e203300f 	and	r3, r3, #15
    9764:	e3530002 	cmp	r3, #2
    9768:	0a000006 	beq	9788 <data_abort_vector+0x30>
    976c:	eb000242 	bl	a07c <rpi_reset_putc>
    9770:	e59f0030 	ldr	r0, [pc, #48]	; 97a8 <data_abort_vector+0x50>
    9774:	e59f1030 	ldr	r1, [pc, #48]	; 97ac <data_abort_vector+0x54>
    9778:	e59f2030 	ldr	r2, [pc, #48]	; 97b0 <data_abort_vector+0x58>
    977c:	e3a03079 	mov	r3, #121	; 0x79
    9780:	eb000222 	bl	a010 <printk>
    9784:	eb0003b1 	bl	a650 <clean_reboot>
    9788:	ebfffc8b 	bl	89bc <mmu_disable>
    978c:	eb00023a 	bl	a07c <rpi_reset_putc>
    9790:	e59f001c 	ldr	r0, [pc, #28]	; 97b4 <data_abort_vector+0x5c>
    9794:	e59f101c 	ldr	r1, [pc, #28]	; 97b8 <data_abort_vector+0x60>
    9798:	e59f201c 	ldr	r2, [pc, #28]	; 97bc <data_abort_vector+0x64>
    979c:	e3a03055 	mov	r3, #85	; 0x55
    97a0:	eb00021a 	bl	a010 <printk>
    97a4:	eb0003a9 	bl	a650 <clean_reboot>
    97a8:	0000b89c 	muleq	r0, ip, r8
    97ac:	0000b8d4 	ldrdeq	fp, [r0], -r4
    97b0:	0000b9c8 	andeq	fp, r0, r8, asr #19
    97b4:	0000b8e4 	andeq	fp, r0, r4, ror #17
    97b8:	0000b798 	muleq	r0, r8, r7
    97bc:	0000b9b4 			; <UNDEFINED> instruction: 0x0000b9b4

000097c0 <interrupt_vector>:
    97c0:	e92d4008 	push	{r3, lr}
    97c4:	ebfffc7c 	bl	89bc <mmu_disable>
    97c8:	eb00022b 	bl	a07c <rpi_reset_putc>
    97cc:	e59f0010 	ldr	r0, [pc, #16]	; 97e4 <interrupt_vector+0x24>
    97d0:	e59f1010 	ldr	r1, [pc, #16]	; 97e8 <interrupt_vector+0x28>
    97d4:	e59f2010 	ldr	r2, [pc, #16]	; 97ec <interrupt_vector+0x2c>
    97d8:	e3a03077 	mov	r3, #119	; 0x77
    97dc:	eb00020b 	bl	a010 <printk>
    97e0:	eb00039a 	bl	a650 <clean_reboot>
    97e4:	0000b90c 	andeq	fp, r0, ip, lsl #18
    97e8:	0000b798 	muleq	r0, r8, r7
    97ec:	0000b9dc 	ldrdeq	fp, [r0], -ip

000097f0 <memcheck_init>:
    97f0:	e92d4010 	push	{r4, lr}
    97f4:	e24dd008 	sub	sp, sp, #8
    97f8:	ebfffc28 	bl	88a0 <mmu_init>
    97fc:	ebfffabd 	bl	82f8 <mmu_is_enabled>
    9800:	e3500000 	cmp	r0, #0
    9804:	0a000008 	beq	982c <memcheck_init+0x3c>
    9808:	eb00021b 	bl	a07c <rpi_reset_putc>
    980c:	e59f3108 	ldr	r3, [pc, #264]	; 991c <memcheck_init+0x12c>
    9810:	e58d3000 	str	r3, [sp]
    9814:	e59f0104 	ldr	r0, [pc, #260]	; 9920 <memcheck_init+0x130>
    9818:	e59f1104 	ldr	r1, [pc, #260]	; 9924 <memcheck_init+0x134>
    981c:	e59f2104 	ldr	r2, [pc, #260]	; 9928 <memcheck_init+0x138>
    9820:	e3a03086 	mov	r3, #134	; 0x86
    9824:	eb0001f9 	bl	a010 <printk>
    9828:	eb000388 	bl	a650 <clean_reboot>
    982c:	e3a00601 	mov	r0, #1048576	; 0x100000
    9830:	e3a01901 	mov	r1, #16384	; 0x4000
    9834:	ebfffbd0 	bl	877c <mmu_pt_alloc_at>
    9838:	e59f30ec 	ldr	r3, [pc, #236]	; 992c <memcheck_init+0x13c>
    983c:	e5830000 	str	r0, [r3]
    9840:	e3500601 	cmp	r0, #1048576	; 0x100000
    9844:	0a000008 	beq	986c <memcheck_init+0x7c>
    9848:	eb00020b 	bl	a07c <rpi_reset_putc>
    984c:	e59f30dc 	ldr	r3, [pc, #220]	; 9930 <memcheck_init+0x140>
    9850:	e58d3000 	str	r3, [sp]
    9854:	e59f00c4 	ldr	r0, [pc, #196]	; 9920 <memcheck_init+0x130>
    9858:	e59f10c4 	ldr	r1, [pc, #196]	; 9924 <memcheck_init+0x134>
    985c:	e59f20c4 	ldr	r2, [pc, #196]	; 9928 <memcheck_init+0x138>
    9860:	e3a0308b 	mov	r3, #139	; 0x8b
    9864:	eb0001e9 	bl	a010 <printk>
    9868:	eb000378 	bl	a650 <clean_reboot>
    986c:	e3a01000 	mov	r1, #0
    9870:	e1a02001 	mov	r2, r1
    9874:	e3a03001 	mov	r3, #1
    9878:	ebfffb1e 	bl	84f8 <mmu_map_section>
    987c:	e59f40a8 	ldr	r4, [pc, #168]	; 992c <memcheck_init+0x13c>
    9880:	e5940000 	ldr	r0, [r4]
    9884:	e3a01601 	mov	r1, #1048576	; 0x100000
    9888:	e1a02001 	mov	r2, r1
    988c:	e3a03001 	mov	r3, #1
    9890:	ebfffb18 	bl	84f8 <mmu_map_section>
    9894:	e5940000 	ldr	r0, [r4]
    9898:	e3a0167f 	mov	r1, #133169152	; 0x7f00000
    989c:	e1a02001 	mov	r2, r1
    98a0:	e3a03001 	mov	r3, #1
    98a4:	ebfffb13 	bl	84f8 <mmu_map_section>
    98a8:	e5940000 	ldr	r0, [r4]
    98ac:	e3a01202 	mov	r1, #536870912	; 0x20000000
    98b0:	e1a02001 	mov	r2, r1
    98b4:	e3a03001 	mov	r3, #1
    98b8:	ebfffb0e 	bl	84f8 <mmu_map_section>
    98bc:	e59f2070 	ldr	r2, [pc, #112]	; 9934 <memcheck_init+0x144>
    98c0:	e5940000 	ldr	r0, [r4]
    98c4:	e1a01002 	mov	r1, r2
    98c8:	e3a03001 	mov	r3, #1
    98cc:	ebfffb09 	bl	84f8 <mmu_map_section>
    98d0:	e59f2060 	ldr	r2, [pc, #96]	; 9938 <memcheck_init+0x148>
    98d4:	e5940000 	ldr	r0, [r4]
    98d8:	e1a01002 	mov	r1, r2
    98dc:	e3a03001 	mov	r3, #1
    98e0:	ebfffb04 	bl	84f8 <mmu_map_section>
    98e4:	e5940000 	ldr	r0, [r4]
    98e8:	e3a0168f 	mov	r1, #149946368	; 0x8f00000
    98ec:	e1a02001 	mov	r2, r1
    98f0:	e3a03001 	mov	r3, #1
    98f4:	ebfffaff 	bl	84f8 <mmu_map_section>
    98f8:	ebfffc0c 	bl	8930 <mmu_install_handlers>
    98fc:	e3a00004 	mov	r0, #4
    9900:	ebfffc6f 	bl	8ac4 <write_domain_access_ctrl>
    9904:	e59f0030 	ldr	r0, [pc, #48]	; 993c <memcheck_init+0x14c>
    9908:	e3a01001 	mov	r1, #1
    990c:	e5942000 	ldr	r2, [r4]
    9910:	ebfffc6e 	bl	8ad0 <set_procid_ttbr0>
    9914:	e28dd008 	add	sp, sp, #8
    9918:	e8bd8010 	pop	{r4, pc}
    991c:	0000ae54 	andeq	sl, r0, r4, asr lr
    9920:	0000ade8 	andeq	sl, r0, r8, ror #27
    9924:	0000b798 	muleq	r0, r8, r7
    9928:	0000b9f0 	strdeq	fp, [r0], -r0
    992c:	0000bde8 	andeq	fp, r0, r8, ror #27
    9930:	0000b928 	andeq	fp, r0, r8, lsr #18
    9934:	20100000 	andscs	r0, r0, r0
    9938:	20200000 	eorcs	r0, r0, r0
    993c:	0000140e 	andeq	r1, r0, lr, lsl #8

00009940 <memcheck_on>:
    9940:	e52de004 	push	{lr}		; (str lr, [sp, #-4]!)
    9944:	e24dd00c 	sub	sp, sp, #12
    9948:	e59f005c 	ldr	r0, [pc, #92]	; 99ac <memcheck_on+0x6c>
    994c:	e59f105c 	ldr	r1, [pc, #92]	; 99b0 <memcheck_on+0x70>
    9950:	e59f205c 	ldr	r2, [pc, #92]	; 99b4 <memcheck_on+0x74>
    9954:	e3a030af 	mov	r3, #175	; 0xaf
    9958:	eb0001ac 	bl	a010 <printk>
    995c:	ebfffc40 	bl	8a64 <mmu_enable>
    9960:	ebfffa64 	bl	82f8 <mmu_is_enabled>
    9964:	e3500000 	cmp	r0, #0
    9968:	1a000008 	bne	9990 <memcheck_on+0x50>
    996c:	eb0001c2 	bl	a07c <rpi_reset_putc>
    9970:	e59f3040 	ldr	r3, [pc, #64]	; 99b8 <memcheck_on+0x78>
    9974:	e58d3000 	str	r3, [sp]
    9978:	e59f003c 	ldr	r0, [pc, #60]	; 99bc <memcheck_on+0x7c>
    997c:	e59f102c 	ldr	r1, [pc, #44]	; 99b0 <memcheck_on+0x70>
    9980:	e59f202c 	ldr	r2, [pc, #44]	; 99b4 <memcheck_on+0x74>
    9984:	e3a030b2 	mov	r3, #178	; 0xb2
    9988:	eb0001a0 	bl	a010 <printk>
    998c:	eb00032f 	bl	a650 <clean_reboot>
    9990:	e59f0028 	ldr	r0, [pc, #40]	; 99c0 <memcheck_on+0x80>
    9994:	e59f1014 	ldr	r1, [pc, #20]	; 99b0 <memcheck_on+0x70>
    9998:	e59f2014 	ldr	r2, [pc, #20]	; 99b4 <memcheck_on+0x74>
    999c:	e3a030b3 	mov	r3, #179	; 0xb3
    99a0:	eb00019a 	bl	a010 <printk>
    99a4:	e28dd00c 	add	sp, sp, #12
    99a8:	e49df004 	pop	{pc}		; (ldr pc, [sp], #4)
    99ac:	0000b934 	andeq	fp, r0, r4, lsr r9
    99b0:	0000b798 	muleq	r0, r8, r7
    99b4:	0000ba00 	andeq	fp, r0, r0, lsl #20
    99b8:	0000ae10 	andeq	sl, r0, r0, lsl lr
    99bc:	0000ade8 	andeq	sl, r0, r8, ror #27
    99c0:	0000b95c 	andeq	fp, r0, ip, asr r9

000099c4 <memcheck_off>:
    99c4:	e52de004 	push	{lr}		; (str lr, [sp, #-4]!)
    99c8:	e24dd00c 	sub	sp, sp, #12
    99cc:	ebfffbfa 	bl	89bc <mmu_disable>
    99d0:	ebfffa48 	bl	82f8 <mmu_is_enabled>
    99d4:	e3500000 	cmp	r0, #0
    99d8:	0a000008 	beq	9a00 <memcheck_off+0x3c>
    99dc:	eb0001a6 	bl	a07c <rpi_reset_putc>
    99e0:	e59f3034 	ldr	r3, [pc, #52]	; 9a1c <memcheck_off+0x58>
    99e4:	e58d3000 	str	r3, [sp]
    99e8:	e59f0030 	ldr	r0, [pc, #48]	; 9a20 <memcheck_off+0x5c>
    99ec:	e59f1030 	ldr	r1, [pc, #48]	; 9a24 <memcheck_off+0x60>
    99f0:	e59f2030 	ldr	r2, [pc, #48]	; 9a28 <memcheck_off+0x64>
    99f4:	e3a030ba 	mov	r3, #186	; 0xba
    99f8:	eb000184 	bl	a010 <printk>
    99fc:	eb000313 	bl	a650 <clean_reboot>
    9a00:	e59f0024 	ldr	r0, [pc, #36]	; 9a2c <memcheck_off+0x68>
    9a04:	e59f1018 	ldr	r1, [pc, #24]	; 9a24 <memcheck_off+0x60>
    9a08:	e59f2018 	ldr	r2, [pc, #24]	; 9a28 <memcheck_off+0x64>
    9a0c:	e3a030bb 	mov	r3, #187	; 0xbb
    9a10:	eb00017e 	bl	a010 <printk>
    9a14:	e28dd00c 	add	sp, sp, #12
    9a18:	e49df004 	pop	{pc}		; (ldr pc, [sp], #4)
    9a1c:	0000ae54 	andeq	sl, r0, r4, asr lr
    9a20:	0000ade8 	andeq	sl, r0, r8, ror #27
    9a24:	0000b798 	muleq	r0, r8, r7
    9a28:	0000ba0c 	andeq	fp, r0, ip, lsl #20
    9a2c:	0000b974 	andeq	fp, r0, r4, ror r9

00009a30 <memcheck_map>:
    9a30:	e52de004 	push	{lr}		; (str lr, [sp, #-4]!)
    9a34:	e24dd00c 	sub	sp, sp, #12
    9a38:	e1a02000 	mov	r2, r0
    9a3c:	e3c034ff 	bic	r3, r0, #-16777216	; 0xff000000
    9a40:	e3d3160f 	bics	r1, r3, #15728640	; 0xf00000
    9a44:	0a000008 	beq	9a6c <memcheck_map+0x3c>
    9a48:	eb00018b 	bl	a07c <rpi_reset_putc>
    9a4c:	e59f3038 	ldr	r3, [pc, #56]	; 9a8c <memcheck_map+0x5c>
    9a50:	e58d3000 	str	r3, [sp]
    9a54:	e59f0034 	ldr	r0, [pc, #52]	; 9a90 <memcheck_map+0x60>
    9a58:	e59f1034 	ldr	r1, [pc, #52]	; 9a94 <memcheck_map+0x64>
    9a5c:	e59f2034 	ldr	r2, [pc, #52]	; 9a98 <memcheck_map+0x68>
    9a60:	e3a030bf 	mov	r3, #191	; 0xbf
    9a64:	eb000169 	bl	a010 <printk>
    9a68:	eb0002f8 	bl	a650 <clean_reboot>
    9a6c:	e59f3028 	ldr	r3, [pc, #40]	; 9a9c <memcheck_map+0x6c>
    9a70:	e5930000 	ldr	r0, [r3]
    9a74:	e1a01002 	mov	r1, r2
    9a78:	e2822601 	add	r2, r2, #1048576	; 0x100000
    9a7c:	e3a03001 	mov	r3, #1
    9a80:	ebfffa9c 	bl	84f8 <mmu_map_section>
    9a84:	e28dd00c 	add	sp, sp, #12
    9a88:	e49df004 	pop	{pc}		; (ldr pc, [sp], #4)
    9a8c:	0000b98c 	andeq	fp, r0, ip, lsl #19
    9a90:	0000ade8 	andeq	sl, r0, r8, ror #27
    9a94:	0000b798 	muleq	r0, r8, r7
    9a98:	0000ba1c 	andeq	fp, r0, ip, lsl sl
    9a9c:	0000bde8 	andeq	fp, r0, r8, ror #27

00009aa0 <memcheck_track>:
    9aa0:	e52de004 	push	{lr}		; (str lr, [sp, #-4]!)
    9aa4:	e24dd00c 	sub	sp, sp, #12
    9aa8:	e1a02000 	mov	r2, r0
    9aac:	e3c034ff 	bic	r3, r0, #-16777216	; 0xff000000
    9ab0:	e3d3160f 	bics	r1, r3, #15728640	; 0xf00000
    9ab4:	0a000008 	beq	9adc <memcheck_track+0x3c>
    9ab8:	eb00016f 	bl	a07c <rpi_reset_putc>
    9abc:	e59f3038 	ldr	r3, [pc, #56]	; 9afc <memcheck_track+0x5c>
    9ac0:	e58d3000 	str	r3, [sp]
    9ac4:	e59f0034 	ldr	r0, [pc, #52]	; 9b00 <memcheck_track+0x60>
    9ac8:	e59f1034 	ldr	r1, [pc, #52]	; 9b04 <memcheck_track+0x64>
    9acc:	e59f2034 	ldr	r2, [pc, #52]	; 9b08 <memcheck_track+0x68>
    9ad0:	e3a030c6 	mov	r3, #198	; 0xc6
    9ad4:	eb00014d 	bl	a010 <printk>
    9ad8:	eb0002dc 	bl	a650 <clean_reboot>
    9adc:	e59f3028 	ldr	r3, [pc, #40]	; 9b0c <memcheck_track+0x6c>
    9ae0:	e5930000 	ldr	r0, [r3]
    9ae4:	e1a01002 	mov	r1, r2
    9ae8:	e2822601 	add	r2, r2, #1048576	; 0x100000
    9aec:	e3a03002 	mov	r3, #2
    9af0:	ebfffa80 	bl	84f8 <mmu_map_section>
    9af4:	e28dd00c 	add	sp, sp, #12
    9af8:	e49df004 	pop	{pc}		; (ldr pc, [sp], #4)
    9afc:	0000b98c 	andeq	fp, r0, ip, lsl #19
    9b00:	0000ade8 	andeq	sl, r0, r8, ror #27
    9b04:	0000b798 	muleq	r0, r8, r7
    9b08:	0000ba2c 	andeq	fp, r0, ip, lsr #20
    9b0c:	0000bde8 	andeq	fp, r0, r8, ror #27

00009b10 <memcheck_no_access>:
    9b10:	e92d4008 	push	{r3, lr}
    9b14:	e1a01a20 	lsr	r1, r0, #20
    9b18:	e59f3010 	ldr	r3, [pc, #16]	; 9b30 <memcheck_no_access+0x20>
    9b1c:	e5930000 	ldr	r0, [r3]
    9b20:	e1a01a01 	lsl	r1, r1, #20
    9b24:	e3a02001 	mov	r2, #1
    9b28:	ebfffa48 	bl	8450 <mmu_mark_sec_no_access>
    9b2c:	e8bd8008 	pop	{r3, pc}
    9b30:	0000bde8 	andeq	fp, r0, r8, ror #27

00009b34 <memcheck_trap_enabled>:
    9b34:	e92d4008 	push	{r3, lr}
    9b38:	e3a00002 	mov	r0, #2
    9b3c:	ebfffeb2 	bl	960c <dom_perm_get>
    9b40:	e2700001 	rsbs	r0, r0, #1
    9b44:	33a00000 	movcc	r0, #0
    9b48:	e8bd8008 	pop	{r3, pc}

00009b4c <memcheck_trap_disable>:
    9b4c:	e92d4008 	push	{r3, lr}
    9b50:	e3a00002 	mov	r0, #2
    9b54:	e3a01001 	mov	r1, #1
    9b58:	ebfffed4 	bl	96b0 <dom_perm_set>

00009b5c <memcheck_trap_enable>:
    9b5c:	e92d4008 	push	{r3, lr}
    9b60:	e3a00002 	mov	r0, #2
    9b64:	e3a01000 	mov	r1, #0
    9b68:	ebfffed0 	bl	96b0 <dom_perm_set>

00009b6c <cp15_sync>:
    9b6c:	e3a02000 	mov	r2, #0
    9b70:	ee072fd5 	mcr	15, 0, r2, cr7, cr5, {6}
    9b74:	ee072f9a 	mcr	15, 0, r2, cr7, cr10, {4}
    9b78:	ee072f95 	mcr	15, 0, r2, cr7, cr5, {4}
    9b7c:	e12fff1e 	bx	lr

00009b80 <cp15_barrier>:
    9b80:	e3a02000 	mov	r2, #0
    9b84:	ee072f9a 	mcr	15, 0, r2, cr7, cr10, {4}
    9b88:	ee072f95 	mcr	15, 0, r2, cr7, cr5, {4}
    9b8c:	e12fff1e 	bx	lr

00009b90 <cp15_ttbr0_rd>:
    9b90:	ee120f10 	mrc	15, 0, r0, cr2, cr0, {0}
    9b94:	e12fff1e 	bx	lr

00009b98 <cp15_ttbr1_rd>:
    9b98:	ee120f30 	mrc	15, 0, r0, cr2, cr0, {1}
    9b9c:	e12fff1e 	bx	lr

00009ba0 <cp15_ttbr_ctrl_rd>:
    9ba0:	ee120f50 	mrc	15, 0, r0, cr2, cr0, {2}
    9ba4:	e12fff1e 	bx	lr

00009ba8 <cp15_domain_ctrl_rd>:
    9ba8:	ee130f10 	mrc	15, 0, r0, cr3, cr0, {0}
    9bac:	e12fff1e 	bx	lr

00009bb0 <cp15_cache_type_rd>:
    9bb0:	ee100f30 	mrc	15, 0, r0, cr0, cr0, {1}
    9bb4:	e12fff1e 	bx	lr

00009bb8 <cp15_tlb_config_rd>:
    9bb8:	ee100f70 	mrc	15, 0, r0, cr0, cr0, {3}
    9bbc:	e12fff1e 	bx	lr

00009bc0 <cp15_ctrl_reg1_rd>:
    9bc0:	ee110f10 	mrc	15, 0, r0, cr1, cr0, {0}
    9bc4:	e12fff1e 	bx	lr

00009bc8 <cp15_ctrl_reg1_rd_u32>:
    9bc8:	ee110f10 	mrc	15, 0, r0, cr1, cr0, {0}
    9bcc:	e12fff1e 	bx	lr

00009bd0 <cp15_procid_rd>:
    9bd0:	ee1d0f30 	mrc	15, 0, r0, cr13, cr0, {1}
    9bd4:	e12fff1e 	bx	lr

00009bd8 <cp15_dsb>:
    9bd8:	e3a02000 	mov	r2, #0
    9bdc:	ee072f9a 	mcr	15, 0, r2, cr7, cr10, {4}
    9be0:	e12fff1e 	bx	lr

00009be4 <cp15_dmb>:
    9be4:	e3a02000 	mov	r2, #0
    9be8:	ee072fba 	mcr	15, 0, r2, cr7, cr10, {5}
    9bec:	e12fff1e 	bx	lr

00009bf0 <cp15_prefetch_flush>:
    9bf0:	e3a02000 	mov	r2, #0
    9bf4:	ee072f95 	mcr	15, 0, r2, cr7, cr5, {4}
    9bf8:	e12fff1e 	bx	lr

00009bfc <cp15_btb_flush>:
    9bfc:	e3a02000 	mov	r2, #0
    9c00:	ee072fd5 	mcr	15, 0, r2, cr7, cr5, {6}
    9c04:	e12fff1e 	bx	lr

00009c08 <cp15_caches_inv>:
    9c08:	e3a00000 	mov	r0, #0
    9c0c:	ee070f15 	mcr	15, 0, r0, cr7, cr5, {0}
    9c10:	ee070f15 	mcr	15, 0, r0, cr7, cr5, {0}
    9c14:	ee070f15 	mcr	15, 0, r0, cr7, cr5, {0}
    9c18:	ee070f15 	mcr	15, 0, r0, cr7, cr5, {0}
    9c1c:	e320f000 	nop	{0}
    9c20:	e320f000 	nop	{0}
    9c24:	e320f000 	nop	{0}
    9c28:	e320f000 	nop	{0}
    9c2c:	e320f000 	nop	{0}
    9c30:	e320f000 	nop	{0}
    9c34:	e320f000 	nop	{0}
    9c38:	e320f000 	nop	{0}
    9c3c:	e320f000 	nop	{0}
    9c40:	e320f000 	nop	{0}
    9c44:	e320f000 	nop	{0}
    9c48:	ee070f16 	mcr	15, 0, r0, cr7, cr6, {0}
    9c4c:	ee070f9a 	mcr	15, 0, r0, cr7, cr10, {4}
    9c50:	ee070fd5 	mcr	15, 0, r0, cr7, cr5, {6}
    9c54:	ee070f9a 	mcr	15, 0, r0, cr7, cr10, {4}
    9c58:	ee070f95 	mcr	15, 0, r0, cr7, cr5, {4}
    9c5c:	e12fff1e 	bx	lr

00009c60 <cp15_dcache_clean_inv>:
    9c60:	e3a00000 	mov	r0, #0
    9c64:	ee070f1e 	mcr	15, 0, r0, cr7, cr14, {0}
    9c68:	ee070f9a 	mcr	15, 0, r0, cr7, cr10, {4}
    9c6c:	ee070fd5 	mcr	15, 0, r0, cr7, cr5, {6}
    9c70:	ee070f9a 	mcr	15, 0, r0, cr7, cr10, {4}
    9c74:	ee070f95 	mcr	15, 0, r0, cr7, cr5, {4}
    9c78:	e12fff1e 	bx	lr

00009c7c <cp15_icache_inv>:
    9c7c:	e3a00000 	mov	r0, #0
    9c80:	ee070f15 	mcr	15, 0, r0, cr7, cr5, {0}
    9c84:	ee070f15 	mcr	15, 0, r0, cr7, cr5, {0}
    9c88:	ee070f15 	mcr	15, 0, r0, cr7, cr5, {0}
    9c8c:	ee070f15 	mcr	15, 0, r0, cr7, cr5, {0}
    9c90:	e320f000 	nop	{0}
    9c94:	e320f000 	nop	{0}
    9c98:	e320f000 	nop	{0}
    9c9c:	e320f000 	nop	{0}
    9ca0:	e320f000 	nop	{0}
    9ca4:	e320f000 	nop	{0}
    9ca8:	e320f000 	nop	{0}
    9cac:	e320f000 	nop	{0}
    9cb0:	e320f000 	nop	{0}
    9cb4:	e320f000 	nop	{0}
    9cb8:	e320f000 	nop	{0}
    9cbc:	ee070f9a 	mcr	15, 0, r0, cr7, cr10, {4}
    9cc0:	ee070fd5 	mcr	15, 0, r0, cr7, cr5, {6}
    9cc4:	ee070f9a 	mcr	15, 0, r0, cr7, cr10, {4}
    9cc8:	ee070f95 	mcr	15, 0, r0, cr7, cr5, {4}
    9ccc:	e12fff1e 	bx	lr

00009cd0 <cp15_itlb_inv>:
    9cd0:	e3a00000 	mov	r0, #0
    9cd4:	ee080f15 	mcr	15, 0, r0, cr8, cr5, {0}
    9cd8:	ee070f9a 	mcr	15, 0, r0, cr7, cr10, {4}
    9cdc:	ee070fd5 	mcr	15, 0, r0, cr7, cr5, {6}
    9ce0:	ee070f9a 	mcr	15, 0, r0, cr7, cr10, {4}
    9ce4:	ee070f95 	mcr	15, 0, r0, cr7, cr5, {4}
    9ce8:	e12fff1e 	bx	lr

00009cec <cp15_dtlb_inv>:
    9cec:	e3a00000 	mov	r0, #0
    9cf0:	ee080f16 	mcr	15, 0, r0, cr8, cr6, {0}
    9cf4:	ee070f9a 	mcr	15, 0, r0, cr7, cr10, {4}
    9cf8:	ee070fd5 	mcr	15, 0, r0, cr7, cr5, {6}
    9cfc:	ee070f9a 	mcr	15, 0, r0, cr7, cr10, {4}
    9d00:	ee070f95 	mcr	15, 0, r0, cr7, cr5, {4}
    9d04:	e12fff1e 	bx	lr

00009d08 <cp15_tlbs_inv>:
    9d08:	e3a00000 	mov	r0, #0
    9d0c:	ee080f17 	mcr	15, 0, r0, cr8, cr7, {0}
    9d10:	ee070f9a 	mcr	15, 0, r0, cr7, cr10, {4}
    9d14:	ee070fd5 	mcr	15, 0, r0, cr7, cr5, {6}
    9d18:	ee070f9a 	mcr	15, 0, r0, cr7, cr10, {4}
    9d1c:	ee070f95 	mcr	15, 0, r0, cr7, cr5, {4}
    9d20:	e12fff1e 	bx	lr

00009d24 <cp15_ttbr0_wr>:
    9d24:	e3a01000 	mov	r1, #0
    9d28:	ee020f10 	mcr	15, 0, r0, cr2, cr0, {0}
    9d2c:	ee071f9a 	mcr	15, 0, r1, cr7, cr10, {4}
    9d30:	ee071fd5 	mcr	15, 0, r1, cr7, cr5, {6}
    9d34:	ee071f9a 	mcr	15, 0, r1, cr7, cr10, {4}
    9d38:	ee071f95 	mcr	15, 0, r1, cr7, cr5, {4}
    9d3c:	e12fff1e 	bx	lr

00009d40 <cp15_ttbr1_wr>:
    9d40:	e3a01000 	mov	r1, #0
    9d44:	ee020f10 	mcr	15, 0, r0, cr2, cr0, {0}
    9d48:	ee071f9a 	mcr	15, 0, r1, cr7, cr10, {4}
    9d4c:	ee071fd5 	mcr	15, 0, r1, cr7, cr5, {6}
    9d50:	ee071f9a 	mcr	15, 0, r1, cr7, cr10, {4}
    9d54:	ee071f95 	mcr	15, 0, r1, cr7, cr5, {4}
    9d58:	e12fff1e 	bx	lr

00009d5c <cp15_ttbr_ctrl_wr>:
    9d5c:	e3a01000 	mov	r1, #0
    9d60:	ee020f50 	mcr	15, 0, r0, cr2, cr0, {2}
    9d64:	ee071f9a 	mcr	15, 0, r1, cr7, cr10, {4}
    9d68:	ee071fd5 	mcr	15, 0, r1, cr7, cr5, {6}
    9d6c:	ee071f9a 	mcr	15, 0, r1, cr7, cr10, {4}
    9d70:	ee071f95 	mcr	15, 0, r1, cr7, cr5, {4}
    9d74:	e12fff1e 	bx	lr

00009d78 <our_cp15_domain_ctrl_wr>:
    9d78:	e3a01000 	mov	r1, #0
    9d7c:	ee030f10 	mcr	15, 0, r0, cr3, cr0, {0}
    9d80:	ee071f9a 	mcr	15, 0, r1, cr7, cr10, {4}
    9d84:	ee071fd5 	mcr	15, 0, r1, cr7, cr5, {6}
    9d88:	ee071f9a 	mcr	15, 0, r1, cr7, cr10, {4}
    9d8c:	ee071f95 	mcr	15, 0, r1, cr7, cr5, {4}
    9d90:	e12fff1e 	bx	lr

00009d94 <cp15_ctrl_reg1_wr>:
    9d94:	e3a01000 	mov	r1, #0
    9d98:	ee010f10 	mcr	15, 0, r0, cr1, cr0, {0}
    9d9c:	ee071f9a 	mcr	15, 0, r1, cr7, cr10, {4}
    9da0:	ee071fd5 	mcr	15, 0, r1, cr7, cr5, {6}
    9da4:	ee071f9a 	mcr	15, 0, r1, cr7, cr10, {4}
    9da8:	ee071f95 	mcr	15, 0, r1, cr7, cr5, {4}
    9dac:	e12fff1e 	bx	lr

00009db0 <our_mmu_sync_pte_mods>:
    9db0:	e3a02000 	mov	r2, #0
    9db4:	ee072f1e 	mcr	15, 0, r2, cr7, cr14, {0}
    9db8:	ee072f9a 	mcr	15, 0, r2, cr7, cr10, {4}
    9dbc:	ee082f17 	mcr	15, 0, r2, cr8, cr7, {0}
    9dc0:	ee072fd5 	mcr	15, 0, r2, cr7, cr5, {6}
    9dc4:	ee072f9a 	mcr	15, 0, r2, cr7, cr10, {4}
    9dc8:	ee072f95 	mcr	15, 0, r2, cr7, cr5, {4}
    9dcc:	e12fff1e 	bx	lr

00009dd0 <our_cp15_set_procid_ttbr0>:
    9dd0:	e3a02000 	mov	r2, #0
    9dd4:	ee072f9a 	mcr	15, 0, r2, cr7, cr10, {4}
    9dd8:	ee0d2f30 	mcr	15, 0, r2, cr13, cr0, {1}
    9ddc:	ee072f95 	mcr	15, 0, r2, cr7, cr5, {4}
    9de0:	ee021f10 	mcr	15, 0, r1, cr2, cr0, {0}
    9de4:	ee022f30 	mcr	15, 0, r2, cr2, cr0, {1}
    9de8:	ee072f95 	mcr	15, 0, r2, cr7, cr5, {4}
    9dec:	ee0d0f30 	mcr	15, 0, r0, cr13, cr0, {1}
    9df0:	ee072f9a 	mcr	15, 0, r2, cr7, cr10, {4}
    9df4:	e12fff1e 	bx	lr

00009df8 <our_mmu_reset>:
    9df8:	e3a00000 	mov	r0, #0
    9dfc:	e3a00000 	mov	r0, #0
    9e00:	ee070f16 	mcr	15, 0, r0, cr7, cr6, {0}
    9e04:	ee070f15 	mcr	15, 0, r0, cr7, cr5, {0}
    9e08:	ee070f15 	mcr	15, 0, r0, cr7, cr5, {0}
    9e0c:	ee070f15 	mcr	15, 0, r0, cr7, cr5, {0}
    9e10:	ee070f15 	mcr	15, 0, r0, cr7, cr5, {0}
    9e14:	e320f000 	nop	{0}
    9e18:	e320f000 	nop	{0}
    9e1c:	e320f000 	nop	{0}
    9e20:	e320f000 	nop	{0}
    9e24:	e320f000 	nop	{0}
    9e28:	e320f000 	nop	{0}
    9e2c:	e320f000 	nop	{0}
    9e30:	e320f000 	nop	{0}
    9e34:	e320f000 	nop	{0}
    9e38:	e320f000 	nop	{0}
    9e3c:	e320f000 	nop	{0}
    9e40:	ee080f17 	mcr	15, 0, r0, cr8, cr7, {0}
    9e44:	ee070f9a 	mcr	15, 0, r0, cr7, cr10, {4}
    9e48:	ee070f9a 	mcr	15, 0, r0, cr7, cr10, {4}
    9e4c:	ee070fd5 	mcr	15, 0, r0, cr7, cr5, {6}
    9e50:	ee070f9a 	mcr	15, 0, r0, cr7, cr10, {4}
    9e54:	ee070f95 	mcr	15, 0, r0, cr7, cr5, {4}
    9e58:	e12fff1e 	bx	lr

00009e5c <our_mmu_enable_set_asm>:
    9e5c:	e3a01000 	mov	r1, #0
    9e60:	ee071f9a 	mcr	15, 0, r1, cr7, cr10, {4}
    9e64:	ee010f10 	mcr	15, 0, r0, cr1, cr0, {0}
    9e68:	ee071f9a 	mcr	15, 0, r1, cr7, cr10, {4}
    9e6c:	ee071fd5 	mcr	15, 0, r1, cr7, cr5, {6}
    9e70:	ee071f9a 	mcr	15, 0, r1, cr7, cr10, {4}
    9e74:	ee071f95 	mcr	15, 0, r1, cr7, cr5, {4}
    9e78:	e12fff1e 	bx	lr

00009e7c <our_mmu_disable_set_asm>:
    9e7c:	e3a01000 	mov	r1, #0
    9e80:	ee071f9a 	mcr	15, 0, r1, cr7, cr10, {4}
    9e84:	ee071f1e 	mcr	15, 0, r1, cr7, cr14, {0}
    9e88:	ee071f9a 	mcr	15, 0, r1, cr7, cr10, {4}
    9e8c:	ee071f95 	mcr	15, 0, r1, cr7, cr5, {4}
    9e90:	ee112f10 	mrc	15, 0, r2, cr1, cr0, {0}
    9e94:	e3c22004 	bic	r2, r2, #4
    9e98:	ee012f10 	mcr	15, 0, r2, cr1, cr0, {0}
    9e9c:	ee071f9a 	mcr	15, 0, r1, cr7, cr10, {4}
    9ea0:	ee071f95 	mcr	15, 0, r1, cr7, cr5, {4}
    9ea4:	ee010f10 	mcr	15, 0, r0, cr1, cr0, {0}
    9ea8:	ee071f9a 	mcr	15, 0, r1, cr7, cr10, {4}
    9eac:	ee071f95 	mcr	15, 0, r1, cr7, cr5, {4}
    9eb0:	ee071f15 	mcr	15, 0, r1, cr7, cr5, {0}
    9eb4:	ee071f15 	mcr	15, 0, r1, cr7, cr5, {0}
    9eb8:	ee071f15 	mcr	15, 0, r1, cr7, cr5, {0}
    9ebc:	ee071f15 	mcr	15, 0, r1, cr7, cr5, {0}
    9ec0:	e320f000 	nop	{0}
    9ec4:	e320f000 	nop	{0}
    9ec8:	e320f000 	nop	{0}
    9ecc:	e320f000 	nop	{0}
    9ed0:	e320f000 	nop	{0}
    9ed4:	e320f000 	nop	{0}
    9ed8:	e320f000 	nop	{0}
    9edc:	e320f000 	nop	{0}
    9ee0:	e320f000 	nop	{0}
    9ee4:	e320f000 	nop	{0}
    9ee8:	e320f000 	nop	{0}
    9eec:	ee071f9a 	mcr	15, 0, r1, cr7, cr10, {4}
    9ef0:	ee071fd5 	mcr	15, 0, r1, cr7, cr5, {6}
    9ef4:	ee071f9a 	mcr	15, 0, r1, cr7, cr10, {4}
    9ef8:	ee071f95 	mcr	15, 0, r1, cr7, cr5, {4}
    9efc:	e12fff1e 	bx	lr

00009f00 <fast_hash>:
    9f00:	e52d4004 	push	{r4}		; (str r4, [sp, #-4]!)
    9f04:	e1a02001 	mov	r2, r1
    9f08:	e1a03000 	mov	r3, r0
    9f0c:	e3500000 	cmp	r0, #0
    9f10:	13510000 	cmpne	r1, #0
    9f14:	da000032 	ble	9fe4 <fast_hash+0xe4>
    9f18:	e2014003 	and	r4, r1, #3
    9f1c:	e1a01141 	asr	r1, r1, #2
    9f20:	ea00000b 	b	9f54 <fast_hash+0x54>
    9f24:	e5d3c001 	ldrb	ip, [r3, #1]
    9f28:	e5d30000 	ldrb	r0, [r3]
    9f2c:	e080040c 	add	r0, r0, ip, lsl #8
    9f30:	e0800002 	add	r0, r0, r2
    9f34:	e5d3c003 	ldrb	ip, [r3, #3]
    9f38:	e5d32002 	ldrb	r2, [r3, #2]
    9f3c:	e082240c 	add	r2, r2, ip, lsl #8
    9f40:	e0202582 	eor	r2, r0, r2, lsl #11
    9f44:	e0222800 	eor	r2, r2, r0, lsl #16
    9f48:	e2833004 	add	r3, r3, #4
    9f4c:	e08225a2 	add	r2, r2, r2, lsr #11
    9f50:	e2411001 	sub	r1, r1, #1
    9f54:	e3510000 	cmp	r1, #0
    9f58:	cafffff1 	bgt	9f24 <fast_hash+0x24>
    9f5c:	e3540002 	cmp	r4, #2
    9f60:	0a00000d 	beq	9f9c <fast_hash+0x9c>
    9f64:	e3540003 	cmp	r4, #3
    9f68:	0a000002 	beq	9f78 <fast_hash+0x78>
    9f6c:	e3540001 	cmp	r4, #1
    9f70:	1a000014 	bne	9fc8 <fast_hash+0xc8>
    9f74:	ea00000f 	b	9fb8 <fast_hash+0xb8>
    9f78:	e5d30001 	ldrb	r0, [r3, #1]
    9f7c:	e5d31000 	ldrb	r1, [r3]
    9f80:	e0811400 	add	r1, r1, r0, lsl #8
    9f84:	e0812002 	add	r2, r1, r2
    9f88:	e0222802 	eor	r2, r2, r2, lsl #16
    9f8c:	e1d330d2 	ldrsb	r3, [r3, #2]
    9f90:	e0222903 	eor	r2, r2, r3, lsl #18
    9f94:	e08225a2 	add	r2, r2, r2, lsr #11
    9f98:	ea00000a 	b	9fc8 <fast_hash+0xc8>
    9f9c:	e5d31001 	ldrb	r1, [r3, #1]
    9fa0:	e5d33000 	ldrb	r3, [r3]
    9fa4:	e0833401 	add	r3, r3, r1, lsl #8
    9fa8:	e0832002 	add	r2, r3, r2
    9fac:	e0222582 	eor	r2, r2, r2, lsl #11
    9fb0:	e08228a2 	add	r2, r2, r2, lsr #17
    9fb4:	ea000003 	b	9fc8 <fast_hash+0xc8>
    9fb8:	e1d330d0 	ldrsb	r3, [r3]
    9fbc:	e0832002 	add	r2, r3, r2
    9fc0:	e0222502 	eor	r2, r2, r2, lsl #10
    9fc4:	e08220a2 	add	r2, r2, r2, lsr #1
    9fc8:	e0220182 	eor	r0, r2, r2, lsl #3
    9fcc:	e08002a0 	add	r0, r0, r0, lsr #5
    9fd0:	e0200200 	eor	r0, r0, r0, lsl #4
    9fd4:	e08008a0 	add	r0, r0, r0, lsr #17
    9fd8:	e0200c80 	eor	r0, r0, r0, lsl #25
    9fdc:	e0800320 	add	r0, r0, r0, lsr #6
    9fe0:	ea000000 	b	9fe8 <fast_hash+0xe8>
    9fe4:	e3a00000 	mov	r0, #0
    9fe8:	e49d4004 	pop	{r4}		; (ldr r4, [sp], #4)
    9fec:	e12fff1e 	bx	lr

00009ff0 <memset>:
    9ff0:	e0802002 	add	r2, r0, r2
    9ff4:	e1a03000 	mov	r3, r0
    9ff8:	ea000001 	b	a004 <memset+0x14>
    9ffc:	e5c31000 	strb	r1, [r3]
    a000:	e2833001 	add	r3, r3, #1
    a004:	e1530002 	cmp	r3, r2
    a008:	3afffffb 	bcc	9ffc <memset+0xc>
    a00c:	e12fff1e 	bx	lr

0000a010 <printk>:
    a010:	e92d000f 	push	{r0, r1, r2, r3}
    a014:	e92d4030 	push	{r4, r5, lr}
    a018:	e24dd00c 	sub	sp, sp, #12
    a01c:	e28d301c 	add	r3, sp, #28
    a020:	e58d3004 	str	r3, [sp, #4]
    a024:	e59f4034 	ldr	r4, [pc, #52]	; a060 <printk+0x50>
    a028:	e1a00004 	mov	r0, r4
    a02c:	e3a01b01 	mov	r1, #1024	; 0x400
    a030:	e59d2018 	ldr	r2, [sp, #24]
    a034:	eb0000d0 	bl	a37c <va_printk>
    a038:	e1a05000 	mov	r5, r0
    a03c:	e59f3020 	ldr	r3, [pc, #32]	; a064 <printk+0x54>
    a040:	e5933000 	ldr	r3, [r3]
    a044:	e1a00004 	mov	r0, r4
    a048:	e12fff33 	blx	r3
    a04c:	e1a00005 	mov	r0, r5
    a050:	e28dd00c 	add	sp, sp, #12
    a054:	e8bd4030 	pop	{r4, r5, lr}
    a058:	e28dd010 	add	sp, sp, #16
    a05c:	e12fff1e 	bx	lr
    a060:	0000bdec 	andeq	fp, r0, ip, ror #27
    a064:	0000addc 	ldrdeq	sl, [r0], -ip

0000a068 <internal_putchar>:
    a068:	e92d4010 	push	{r4, lr}
    a06c:	e1a04000 	mov	r4, r0
    a070:	eb00029a 	bl	aae0 <uart_putc>
    a074:	e1a00004 	mov	r0, r4
    a078:	e8bd8010 	pop	{r4, pc}

0000a07c <rpi_reset_putc>:
    a07c:	e59f2008 	ldr	r2, [pc, #8]	; a08c <rpi_reset_putc+0x10>
    a080:	e59f3008 	ldr	r3, [pc, #8]	; a090 <rpi_reset_putc+0x14>
    a084:	e5832000 	str	r2, [r3]
    a088:	e12fff1e 	bx	lr
    a08c:	0000a068 	andeq	sl, r0, r8, rrx
    a090:	0000add8 	ldrdeq	sl, [r0], -r8

0000a094 <rpi_set_putc>:
    a094:	e59f3004 	ldr	r3, [pc, #4]	; a0a0 <rpi_set_putc+0xc>
    a098:	e5830000 	str	r0, [r3]
    a09c:	e12fff1e 	bx	lr
    a0a0:	0000add8 	ldrdeq	sl, [r0], -r8

0000a0a4 <internal_putk>:
    a0a4:	e92d4038 	push	{r3, r4, r5, lr}
    a0a8:	e1a04000 	mov	r4, r0
    a0ac:	e59f5020 	ldr	r5, [pc, #32]	; a0d4 <internal_putk+0x30>
    a0b0:	ea000002 	b	a0c0 <internal_putk+0x1c>
    a0b4:	e5953000 	ldr	r3, [r5]
    a0b8:	e12fff33 	blx	r3
    a0bc:	e2844001 	add	r4, r4, #1
    a0c0:	e5d40000 	ldrb	r0, [r4]
    a0c4:	e3500000 	cmp	r0, #0
    a0c8:	1afffff9 	bne	a0b4 <internal_putk+0x10>
    a0cc:	e3a00001 	mov	r0, #1
    a0d0:	e8bd8038 	pop	{r3, r4, r5, pc}
    a0d4:	0000add8 	ldrdeq	sl, [r0], -r8

0000a0d8 <isdigit>:
    a0d8:	e2400030 	sub	r0, r0, #48	; 0x30
    a0dc:	e3500009 	cmp	r0, #9
    a0e0:	83a00000 	movhi	r0, #0
    a0e4:	93a00001 	movls	r0, #1
    a0e8:	e12fff1e 	bx	lr

0000a0ec <pad>:
    a0ec:	e0611000 	rsb	r1, r1, r0
    a0f0:	e3a03020 	mov	r3, #32
    a0f4:	ea000002 	b	a104 <pad+0x18>
    a0f8:	e5c03000 	strb	r3, [r0]
    a0fc:	e2811001 	add	r1, r1, #1
    a100:	e2800001 	add	r0, r0, #1
    a104:	e1510002 	cmp	r1, r2
    a108:	bafffffa 	blt	a0f8 <pad+0xc>
    a10c:	e3a03000 	mov	r3, #0
    a110:	e5c03000 	strb	r3, [r0]
    a114:	e12fff1e 	bx	lr

0000a118 <reverse>:
    a118:	e063c002 	rsb	ip, r3, r2
    a11c:	e28cc001 	add	ip, ip, #1
    a120:	e15c0001 	cmp	ip, r1
    a124:	c061100c 	rsbgt	r1, r1, ip
    a128:	c0833001 	addgt	r3, r3, r1
    a12c:	e2422001 	sub	r2, r2, #1
    a130:	e1a01000 	mov	r1, r0
    a134:	ea000002 	b	a144 <reverse+0x2c>
    a138:	e452c001 	ldrb	ip, [r2], #-1
    a13c:	e5c1c000 	strb	ip, [r1]
    a140:	e2811001 	add	r1, r1, #1
    a144:	e1520003 	cmp	r2, r3
    a148:	2afffffa 	bcs	a138 <reverse+0x20>
    a14c:	e3a03000 	mov	r3, #0
    a150:	e5c13000 	strb	r3, [r1]
    a154:	e12fff1e 	bx	lr

0000a158 <emit>:
    a158:	e92d41f0 	push	{r4, r5, r6, r7, r8, lr}
    a15c:	e24dd048 	sub	sp, sp, #72	; 0x48
    a160:	e1a05001 	mov	r5, r1
    a164:	e1a04002 	mov	r4, r2
    a168:	e59d2060 	ldr	r2, [sp, #96]	; 0x60
    a16c:	e1520004 	cmp	r2, r4
    a170:	c2442001 	subgt	r2, r4, #1
    a174:	e1a0c003 	mov	ip, r3
    a178:	e2400002 	sub	r0, r0, #2
    a17c:	e350000e 	cmp	r0, #14
    a180:	979ff100 	ldrls	pc, [pc, r0, lsl #2]
    a184:	ea000048 	b	a2ac <emit+0x154>
    a188:	0000a284 	andeq	sl, r0, r4, lsl #5
    a18c:	0000a2ac 	andeq	sl, r0, ip, lsr #5
    a190:	0000a2ac 	andeq	sl, r0, ip, lsr #5
    a194:	0000a2ac 	andeq	sl, r0, ip, lsr #5
    a198:	0000a2ac 	andeq	sl, r0, ip, lsr #5
    a19c:	0000a2ac 	andeq	sl, r0, ip, lsr #5
    a1a0:	0000a278 	andeq	sl, r0, r8, ror r2
    a1a4:	0000a2ac 	andeq	sl, r0, ip, lsr #5
    a1a8:	0000a1c4 	andeq	sl, r0, r4, asr #3
    a1ac:	0000a2ac 	andeq	sl, r0, ip, lsr #5
    a1b0:	0000a2ac 	andeq	sl, r0, ip, lsr #5
    a1b4:	0000a2ac 	andeq	sl, r0, ip, lsr #5
    a1b8:	0000a2ac 	andeq	sl, r0, ip, lsr #5
    a1bc:	0000a2ac 	andeq	sl, r0, ip, lsr #5
    a1c0:	0000a238 	andeq	sl, r0, r8, lsr r2
    a1c4:	e59d1064 	ldr	r1, [sp, #100]	; 0x64
    a1c8:	e2911000 	adds	r1, r1, #0
    a1cc:	13a01001 	movne	r1, #1
    a1d0:	e0111fa3 	ands	r1, r1, r3, lsr #31
    a1d4:	1263c000 	rsbne	ip, r3, #0
    a1d8:	13a08001 	movne	r8, #1
    a1dc:	03a08000 	moveq	r8, #0
    a1e0:	e28d1008 	add	r1, sp, #8
    a1e4:	e59f7108 	ldr	r7, [pc, #264]	; a2f4 <emit+0x19c>
    a1e8:	e59f6108 	ldr	r6, [pc, #264]	; a2f8 <emit+0x1a0>
    a1ec:	ea000000 	b	a1f4 <emit+0x9c>
    a1f0:	e1a01000 	mov	r1, r0
    a1f4:	e2810001 	add	r0, r1, #1
    a1f8:	e083ec97 	umull	lr, r3, r7, ip
    a1fc:	e1a031a3 	lsr	r3, r3, #3
    a200:	e1a0e003 	mov	lr, r3
    a204:	e0833103 	add	r3, r3, r3, lsl #2
    a208:	e1a03083 	lsl	r3, r3, #1
    a20c:	e063300c 	rsb	r3, r3, ip
    a210:	e7d63003 	ldrb	r3, [r6, r3]
    a214:	e5c13000 	strb	r3, [r1]
    a218:	e1a0c00e 	mov	ip, lr
    a21c:	e35e0000 	cmp	lr, #0
    a220:	1afffff2 	bne	a1f0 <emit+0x98>
    a224:	e3580000 	cmp	r8, #0
    a228:	12810002 	addne	r0, r1, #2
    a22c:	13a0302d 	movne	r3, #45	; 0x2d
    a230:	15c13001 	strbne	r3, [r1, #1]
    a234:	ea000025 	b	a2d0 <emit+0x178>
    a238:	e28d3008 	add	r3, sp, #8
    a23c:	e59fe0b8 	ldr	lr, [pc, #184]	; a2fc <emit+0x1a4>
    a240:	ea000000 	b	a248 <emit+0xf0>
    a244:	e1a03000 	mov	r3, r0
    a248:	e2830001 	add	r0, r3, #1
    a24c:	e20c100f 	and	r1, ip, #15
    a250:	e7de1001 	ldrb	r1, [lr, r1]
    a254:	e5c31000 	strb	r1, [r3]
    a258:	e1b0c22c 	lsrs	ip, ip, #4
    a25c:	1afffff8 	bne	a244 <emit+0xec>
    a260:	e3a01078 	mov	r1, #120	; 0x78
    a264:	e5c31001 	strb	r1, [r3, #1]
    a268:	e2830003 	add	r0, r3, #3
    a26c:	e3a01030 	mov	r1, #48	; 0x30
    a270:	e5c31002 	strb	r1, [r3, #2]
    a274:	ea000015 	b	a2d0 <emit+0x178>
    a278:	e5cd3008 	strb	r3, [sp, #8]
    a27c:	e28d0009 	add	r0, sp, #9
    a280:	ea000012 	b	a2d0 <emit+0x178>
    a284:	e28d3008 	add	r3, sp, #8
    a288:	e59fe070 	ldr	lr, [pc, #112]	; a300 <emit+0x1a8>
    a28c:	e2830001 	add	r0, r3, #1
    a290:	e20c1001 	and	r1, ip, #1
    a294:	e7de1001 	ldrb	r1, [lr, r1]
    a298:	e5c31000 	strb	r1, [r3]
    a29c:	e1a03000 	mov	r3, r0
    a2a0:	e1b0c0ac 	lsrs	ip, ip, #1
    a2a4:	1afffff8 	bne	a28c <emit+0x134>
    a2a8:	ea000008 	b	a2d0 <emit+0x178>
    a2ac:	ebffff72 	bl	a07c <rpi_reset_putc>
    a2b0:	e59f304c 	ldr	r3, [pc, #76]	; a304 <emit+0x1ac>
    a2b4:	e58d3000 	str	r3, [sp]
    a2b8:	e59f0048 	ldr	r0, [pc, #72]	; a308 <emit+0x1b0>
    a2bc:	e59f1048 	ldr	r1, [pc, #72]	; a30c <emit+0x1b4>
    a2c0:	e59f2048 	ldr	r2, [pc, #72]	; a310 <emit+0x1b8>
    a2c4:	e3a03077 	mov	r3, #119	; 0x77
    a2c8:	ebffff50 	bl	a010 <printk>
    a2cc:	eb0000df 	bl	a650 <clean_reboot>
    a2d0:	e28d1008 	add	r1, sp, #8
    a2d4:	ebffff84 	bl	a0ec <pad>
    a2d8:	e1a02000 	mov	r2, r0
    a2dc:	e1a00005 	mov	r0, r5
    a2e0:	e1a01004 	mov	r1, r4
    a2e4:	e28d3008 	add	r3, sp, #8
    a2e8:	ebffff8a 	bl	a118 <reverse>
    a2ec:	e28dd048 	add	sp, sp, #72	; 0x48
    a2f0:	e8bd81f0 	pop	{r4, r5, r6, r7, r8, pc}
    a2f4:	cccccccd 	stclgt	12, cr12, [ip], {205}	; 0xcd
    a2f8:	0000ba90 	muleq	r0, r0, sl
    a2fc:	0000ba9c 	muleq	r0, ip, sl
    a300:	0000bab0 			; <UNDEFINED> instruction: 0x0000bab0
    a304:	0000b51c 	andeq	fp, r0, ip, lsl r5
    a308:	0000ade8 	andeq	sl, r0, r8, ror #27
    a30c:	0000ba7c 	andeq	fp, r0, ip, ror sl
    a310:	0000ba58 	andeq	fp, r0, r8, asr sl

0000a314 <rpi_set_output>:
    a314:	e52de004 	push	{lr}		; (str lr, [sp, #-4]!)
    a318:	e24dd00c 	sub	sp, sp, #12
    a31c:	e3500000 	cmp	r0, #0
    a320:	1a000008 	bne	a348 <rpi_set_output+0x34>
    a324:	ebffff54 	bl	a07c <rpi_reset_putc>
    a328:	e59f3034 	ldr	r3, [pc, #52]	; a364 <rpi_set_output+0x50>
    a32c:	e58d3000 	str	r3, [sp]
    a330:	e59f0030 	ldr	r0, [pc, #48]	; a368 <rpi_set_output+0x54>
    a334:	e59f1030 	ldr	r1, [pc, #48]	; a36c <rpi_set_output+0x58>
    a338:	e59f2030 	ldr	r2, [pc, #48]	; a370 <rpi_set_output+0x5c>
    a33c:	e3a03020 	mov	r3, #32
    a340:	ebffff32 	bl	a010 <printk>
    a344:	eb0000c1 	bl	a650 <clean_reboot>
    a348:	e59f3024 	ldr	r3, [pc, #36]	; a374 <rpi_set_output+0x60>
    a34c:	e5830000 	str	r0, [r3]
    a350:	e3510000 	cmp	r1, #0
    a354:	159f301c 	ldrne	r3, [pc, #28]	; a378 <rpi_set_output+0x64>
    a358:	15831000 	strne	r1, [r3]
    a35c:	e28dd00c 	add	sp, sp, #12
    a360:	e49df004 	pop	{pc}		; (ldr pc, [sp], #4)
    a364:	0000bab4 			; <UNDEFINED> instruction: 0x0000bab4
    a368:	0000ade8 	andeq	sl, r0, r8, ror #27
    a36c:	0000ba7c 	andeq	fp, r0, ip, ror sl
    a370:	0000ba60 	andeq	fp, r0, r0, ror #20
    a374:	0000add8 	ldrdeq	sl, [r0], -r8
    a378:	0000addc 	ldrdeq	sl, [r0], -ip

0000a37c <va_printk>:
    a37c:	e92d4ff0 	push	{r4, r5, r6, r7, r8, r9, sl, fp, lr}
    a380:	e24dd094 	sub	sp, sp, #148	; 0x94
    a384:	e1a0b000 	mov	fp, r0
    a388:	e58d200c 	str	r2, [sp, #12]
    a38c:	e1a0a003 	mov	sl, r3
    a390:	e2411001 	sub	r1, r1, #1
    a394:	e0808001 	add	r8, r0, r1
    a398:	e3a03000 	mov	r3, #0
    a39c:	e5c03000 	strb	r3, [r0]
    a3a0:	e1a04000 	mov	r4, r0
    a3a4:	e1a06002 	mov	r6, r2
    a3a8:	ea000095 	b	a604 <va_printk+0x288>
    a3ac:	e3530025 	cmp	r3, #37	; 0x25
    a3b0:	12866001 	addne	r6, r6, #1
    a3b4:	15c43000 	strbne	r3, [r4]
    a3b8:	12844001 	addne	r4, r4, #1
    a3bc:	1a000090 	bne	a604 <va_printk+0x288>
    a3c0:	e5d62001 	ldrb	r2, [r6, #1]
    a3c4:	e3520025 	cmp	r2, #37	; 0x25
    a3c8:	05c43000 	strbeq	r3, [r4]
    a3cc:	02866002 	addeq	r6, r6, #2
    a3d0:	02844001 	addeq	r4, r4, #1
    a3d4:	0a00008a 	beq	a604 <va_printk+0x288>
    a3d8:	e2866001 	add	r6, r6, #1
    a3dc:	e3a07000 	mov	r7, #0
    a3e0:	ea000004 	b	a3f8 <va_printk+0x7c>
    a3e4:	e0877107 	add	r7, r7, r7, lsl #2
    a3e8:	e1a07087 	lsl	r7, r7, #1
    a3ec:	e0877005 	add	r7, r7, r5
    a3f0:	e2477030 	sub	r7, r7, #48	; 0x30
    a3f4:	e2866001 	add	r6, r6, #1
    a3f8:	e5d65000 	ldrb	r5, [r6]
    a3fc:	e1a09005 	mov	r9, r5
    a400:	e1a00005 	mov	r0, r5
    a404:	ebffff33 	bl	a0d8 <isdigit>
    a408:	e3500000 	cmp	r0, #0
    a40c:	1afffff4 	bne	a3e4 <va_printk+0x68>
    a410:	e357001f 	cmp	r7, #31
    a414:	9a000008 	bls	a43c <va_printk+0xc0>
    a418:	ebffff17 	bl	a07c <rpi_reset_putc>
    a41c:	e59f320c 	ldr	r3, [pc, #524]	; a630 <va_printk+0x2b4>
    a420:	e58d3000 	str	r3, [sp]
    a424:	e59f0208 	ldr	r0, [pc, #520]	; a634 <va_printk+0x2b8>
    a428:	e59f1208 	ldr	r1, [pc, #520]	; a638 <va_printk+0x2bc>
    a42c:	e59f2208 	ldr	r2, [pc, #520]	; a63c <va_printk+0x2c0>
    a430:	e3a03095 	mov	r3, #149	; 0x95
    a434:	ebfffef5 	bl	a010 <printk>
    a438:	eb000084 	bl	a650 <clean_reboot>
    a43c:	e2455062 	sub	r5, r5, #98	; 0x62
    a440:	e3550016 	cmp	r5, #22
    a444:	979ff105 	ldrls	pc, [pc, r5, lsl #2]
    a448:	ea000052 	b	a598 <va_printk+0x21c>
    a44c:	0000a53c 	andeq	sl, r0, ip, lsr r5
    a450:	0000a570 	andeq	sl, r0, r0, ror r5
    a454:	0000a4c4 	andeq	sl, r0, r4, asr #9
    a458:	0000a598 	muleq	r0, r8, r5
    a45c:	0000a4a8 	andeq	sl, r0, r8, lsr #9
    a460:	0000a598 	muleq	r0, r8, r5
    a464:	0000a598 	muleq	r0, r8, r5
    a468:	0000a598 	muleq	r0, r8, r5
    a46c:	0000a598 	muleq	r0, r8, r5
    a470:	0000a598 	muleq	r0, r8, r5
    a474:	0000a598 	muleq	r0, r8, r5
    a478:	0000a598 	muleq	r0, r8, r5
    a47c:	0000a598 	muleq	r0, r8, r5
    a480:	0000a598 	muleq	r0, r8, r5
    a484:	0000a514 	andeq	sl, r0, r4, lsl r5
    a488:	0000a598 	muleq	r0, r8, r5
    a48c:	0000a598 	muleq	r0, r8, r5
    a490:	0000a564 	andeq	sl, r0, r4, ror #10
    a494:	0000a598 	muleq	r0, r8, r5
    a498:	0000a4ec 	andeq	sl, r0, ip, ror #9
    a49c:	0000a598 	muleq	r0, r8, r5
    a4a0:	0000a598 	muleq	r0, r8, r5
    a4a4:	0000a514 	andeq	sl, r0, r4, lsl r5
    a4a8:	ebfffef3 	bl	a07c <rpi_reset_putc>
    a4ac:	e59f018c 	ldr	r0, [pc, #396]	; a640 <va_printk+0x2c4>
    a4b0:	e59f1180 	ldr	r1, [pc, #384]	; a638 <va_printk+0x2bc>
    a4b4:	e59f2180 	ldr	r2, [pc, #384]	; a63c <va_printk+0x2c0>
    a4b8:	e3a0309b 	mov	r3, #155	; 0x9b
    a4bc:	ebfffed3 	bl	a010 <printk>
    a4c0:	eb000062 	bl	a650 <clean_reboot>
    a4c4:	e59a3000 	ldr	r3, [sl]
    a4c8:	e28aa004 	add	sl, sl, #4
    a4cc:	e58d7000 	str	r7, [sp]
    a4d0:	e3a02001 	mov	r2, #1
    a4d4:	e58d2004 	str	r2, [sp, #4]
    a4d8:	e3a0000a 	mov	r0, #10
    a4dc:	e28d1010 	add	r1, sp, #16
    a4e0:	e3a02080 	mov	r2, #128	; 0x80
    a4e4:	ebffff1b 	bl	a158 <emit>
    a4e8:	ea00003b 	b	a5dc <va_printk+0x260>
    a4ec:	e59a3000 	ldr	r3, [sl]
    a4f0:	e28aa004 	add	sl, sl, #4
    a4f4:	e58d7000 	str	r7, [sp]
    a4f8:	e3a02000 	mov	r2, #0
    a4fc:	e58d2004 	str	r2, [sp, #4]
    a500:	e3a0000a 	mov	r0, #10
    a504:	e28d1010 	add	r1, sp, #16
    a508:	e3a02080 	mov	r2, #128	; 0x80
    a50c:	ebffff11 	bl	a158 <emit>
    a510:	ea000031 	b	a5dc <va_printk+0x260>
    a514:	e59a3000 	ldr	r3, [sl]
    a518:	e28aa004 	add	sl, sl, #4
    a51c:	e58d7000 	str	r7, [sp]
    a520:	e3a02000 	mov	r2, #0
    a524:	e58d2004 	str	r2, [sp, #4]
    a528:	e3a00010 	mov	r0, #16
    a52c:	e08d1000 	add	r1, sp, r0
    a530:	e3a02080 	mov	r2, #128	; 0x80
    a534:	ebffff07 	bl	a158 <emit>
    a538:	ea000027 	b	a5dc <va_printk+0x260>
    a53c:	e59a3000 	ldr	r3, [sl]
    a540:	e28aa004 	add	sl, sl, #4
    a544:	e58d7000 	str	r7, [sp]
    a548:	e3a02000 	mov	r2, #0
    a54c:	e58d2004 	str	r2, [sp, #4]
    a550:	e3a00002 	mov	r0, #2
    a554:	e28d1010 	add	r1, sp, #16
    a558:	e3a02080 	mov	r2, #128	; 0x80
    a55c:	ebfffefd 	bl	a158 <emit>
    a560:	ea00001d 	b	a5dc <va_printk+0x260>
    a564:	e59a0000 	ldr	r0, [sl]
    a568:	e28aa004 	add	sl, sl, #4
    a56c:	ea00001a 	b	a5dc <va_printk+0x260>
    a570:	e59a3000 	ldr	r3, [sl]
    a574:	e28aa004 	add	sl, sl, #4
    a578:	e58d7000 	str	r7, [sp]
    a57c:	e3a02000 	mov	r2, #0
    a580:	e58d2004 	str	r2, [sp, #4]
    a584:	e3a00008 	mov	r0, #8
    a588:	e28d1010 	add	r1, sp, #16
    a58c:	e3a02080 	mov	r2, #128	; 0x80
    a590:	ebfffef0 	bl	a158 <emit>
    a594:	ea000010 	b	a5dc <va_printk+0x260>
    a598:	e3a03000 	mov	r3, #0
    a59c:	e5c63001 	strb	r3, [r6, #1]
    a5a0:	e59f009c 	ldr	r0, [pc, #156]	; a644 <va_printk+0x2c8>
    a5a4:	e1a01009 	mov	r1, r9
    a5a8:	e1a02009 	mov	r2, r9
    a5ac:	ebfffe97 	bl	a010 <printk>
    a5b0:	e59f3090 	ldr	r3, [pc, #144]	; a648 <va_printk+0x2cc>
    a5b4:	e5933000 	ldr	r3, [r3]
    a5b8:	e59d000c 	ldr	r0, [sp, #12]
    a5bc:	e12fff33 	blx	r3
    a5c0:	ebfffead 	bl	a07c <rpi_reset_putc>
    a5c4:	e59f0080 	ldr	r0, [pc, #128]	; a64c <va_printk+0x2d0>
    a5c8:	e59f1068 	ldr	r1, [pc, #104]	; a638 <va_printk+0x2bc>
    a5cc:	e59f2068 	ldr	r2, [pc, #104]	; a63c <va_printk+0x2c0>
    a5d0:	e3a030bf 	mov	r3, #191	; 0xbf
    a5d4:	ebfffe8d 	bl	a010 <printk>
    a5d8:	eb00001c 	bl	a650 <clean_reboot>
    a5dc:	e2866001 	add	r6, r6, #1
    a5e0:	ea000002 	b	a5f0 <va_printk+0x274>
    a5e4:	e2800001 	add	r0, r0, #1
    a5e8:	e5c43000 	strb	r3, [r4]
    a5ec:	e2844001 	add	r4, r4, #1
    a5f0:	e1540008 	cmp	r4, r8
    a5f4:	2a000002 	bcs	a604 <va_printk+0x288>
    a5f8:	e5d03000 	ldrb	r3, [r0]
    a5fc:	e3530000 	cmp	r3, #0
    a600:	1afffff7 	bne	a5e4 <va_printk+0x268>
    a604:	e5d63000 	ldrb	r3, [r6]
    a608:	e3530000 	cmp	r3, #0
    a60c:	0a000001 	beq	a618 <va_printk+0x29c>
    a610:	e1540008 	cmp	r4, r8
    a614:	3affff64 	bcc	a3ac <va_printk+0x30>
    a618:	e2840001 	add	r0, r4, #1
    a61c:	e3a03000 	mov	r3, #0
    a620:	e5c43000 	strb	r3, [r4]
    a624:	e06b0000 	rsb	r0, fp, r0
    a628:	e28dd094 	add	sp, sp, #148	; 0x94
    a62c:	e8bd8ff0 	pop	{r4, r5, r6, r7, r8, r9, sl, fp, pc}
    a630:	0000babc 			; <UNDEFINED> instruction: 0x0000babc
    a634:	0000ade8 	andeq	sl, r0, r8, ror #27
    a638:	0000ba7c 	andeq	fp, r0, ip, ror sl
    a63c:	0000ba70 	andeq	fp, r0, r0, ror sl
    a640:	0000bac8 	andeq	fp, r0, r8, asr #21
    a644:	0000baf0 	strdeq	fp, [r0], -r0
    a648:	0000addc 	ldrdeq	sl, [r0], -ip
    a64c:	0000bb20 	andeq	fp, r0, r0, lsr #22

0000a650 <clean_reboot>:
    a650:	e92d4008 	push	{r3, lr}
    a654:	eb00005b 	bl	a7c8 <reboot_handler>
    a658:	e59f3014 	ldr	r3, [pc, #20]	; a674 <clean_reboot+0x24>
    a65c:	e5933000 	ldr	r3, [r3]
    a660:	e59f0010 	ldr	r0, [pc, #16]	; a678 <clean_reboot+0x28>
    a664:	e12fff33 	blx	r3
    a668:	e3a00064 	mov	r0, #100	; 0x64
    a66c:	eb0000aa 	bl	a91c <delay_ms>
    a670:	eb00007b 	bl	a864 <rpi_reboot>
    a674:	0000addc 	ldrdeq	sl, [r0], -ip
    a678:	0000bb40 	andeq	fp, r0, r0, asr #22

0000a67c <_cstart>:
    a67c:	e92d4008 	push	{r3, lr}
    a680:	e59f3024 	ldr	r3, [pc, #36]	; a6ac <_cstart+0x30>
    a684:	e59f2024 	ldr	r2, [pc, #36]	; a6b0 <_cstart+0x34>
    a688:	e3a01000 	mov	r1, #0
    a68c:	ea000001 	b	a698 <_cstart+0x1c>
    a690:	e5831000 	str	r1, [r3]
    a694:	e2833004 	add	r3, r3, #4
    a698:	e1530002 	cmp	r3, r2
    a69c:	3afffffb 	bcc	a690 <_cstart+0x14>
    a6a0:	eb000047 	bl	a7c4 <cstart_handler>
    a6a4:	ebfff6bd 	bl	81a0 <notmain>
    a6a8:	ebffffe8 	bl	a650 <clean_reboot>
    a6ac:	0000bdd4 	ldrdeq	fp, [r0], -r4
    a6b0:	0000c1f0 	strdeq	ip, [r0], -r0

0000a6b4 <fast_interrupt_vector>:
    a6b4:	e52de004 	push	{lr}		; (str lr, [sp, #-4]!)
    a6b8:	e24dd00c 	sub	sp, sp, #12
    a6bc:	e1a04000 	mov	r4, r0
    a6c0:	ebfffe6d 	bl	a07c <rpi_reset_putc>
    a6c4:	e59f301c 	ldr	r3, [pc, #28]	; a6e8 <fast_interrupt_vector+0x34>
    a6c8:	e58d3000 	str	r3, [sp]
    a6cc:	e58d4004 	str	r4, [sp, #4]
    a6d0:	e59f0014 	ldr	r0, [pc, #20]	; a6ec <fast_interrupt_vector+0x38>
    a6d4:	e59f1014 	ldr	r1, [pc, #20]	; a6f0 <fast_interrupt_vector+0x3c>
    a6d8:	e59f2014 	ldr	r2, [pc, #20]	; a6f4 <fast_interrupt_vector+0x40>
    a6dc:	e3a03002 	mov	r3, #2
    a6e0:	ebfffe4a 	bl	a010 <printk>
    a6e4:	ebffffd9 	bl	a650 <clean_reboot>
    a6e8:	0000bbc4 	andeq	fp, r0, r4, asr #23
    a6ec:	0000bb64 	andeq	fp, r0, r4, ror #22
    a6f0:	0000bba0 	andeq	fp, r0, r0, lsr #23
    a6f4:	0000bb4c 	andeq	fp, r0, ip, asr #22

0000a6f8 <prefetch_abort_vector>:
    a6f8:	e52de004 	push	{lr}		; (str lr, [sp, #-4]!)
    a6fc:	e24dd00c 	sub	sp, sp, #12
    a700:	e1a04000 	mov	r4, r0
    a704:	ebfffe5c 	bl	a07c <rpi_reset_putc>
    a708:	e59f301c 	ldr	r3, [pc, #28]	; a72c <prefetch_abort_vector+0x34>
    a70c:	e58d3000 	str	r3, [sp]
    a710:	e58d4004 	str	r4, [sp, #4]
    a714:	e59f0014 	ldr	r0, [pc, #20]	; a730 <prefetch_abort_vector+0x38>
    a718:	e59f1014 	ldr	r1, [pc, #20]	; a734 <prefetch_abort_vector+0x3c>
    a71c:	e59f2014 	ldr	r2, [pc, #20]	; a738 <prefetch_abort_vector+0x40>
    a720:	e3a03002 	mov	r3, #2
    a724:	ebfffe39 	bl	a010 <printk>
    a728:	ebffffc8 	bl	a650 <clean_reboot>
    a72c:	0000bc0c 	andeq	fp, r0, ip, lsl #24
    a730:	0000bb64 	andeq	fp, r0, r4, ror #22
    a734:	0000bbe4 	andeq	fp, r0, r4, ror #23
    a738:	0000bbcc 	andeq	fp, r0, ip, asr #23

0000a73c <reset_vector>:
    a73c:	e52de004 	push	{lr}		; (str lr, [sp, #-4]!)
    a740:	e24dd00c 	sub	sp, sp, #12
    a744:	e1a04000 	mov	r4, r0
    a748:	ebfffe4b 	bl	a07c <rpi_reset_putc>
    a74c:	e59f301c 	ldr	r3, [pc, #28]	; a770 <reset_vector+0x34>
    a750:	e58d3000 	str	r3, [sp]
    a754:	e58d4004 	str	r4, [sp, #4]
    a758:	e59f0014 	ldr	r0, [pc, #20]	; a774 <reset_vector+0x38>
    a75c:	e59f1014 	ldr	r1, [pc, #20]	; a778 <reset_vector+0x3c>
    a760:	e59f2014 	ldr	r2, [pc, #20]	; a77c <reset_vector+0x40>
    a764:	e3a03002 	mov	r3, #2
    a768:	ebfffe28 	bl	a010 <printk>
    a76c:	ebffffb7 	bl	a650 <clean_reboot>
    a770:	0000bc50 	andeq	fp, r0, r0, asr ip
    a774:	0000bb64 	andeq	fp, r0, r4, ror #22
    a778:	0000bc2c 	andeq	fp, r0, ip, lsr #24
    a77c:	0000bc1c 	andeq	fp, r0, ip, lsl ip

0000a780 <undefined_instruction_vector>:
    a780:	e52de004 	push	{lr}		; (str lr, [sp, #-4]!)
    a784:	e24dd00c 	sub	sp, sp, #12
    a788:	e1a04000 	mov	r4, r0
    a78c:	ebfffe3a 	bl	a07c <rpi_reset_putc>
    a790:	e59f301c 	ldr	r3, [pc, #28]	; a7b4 <undefined_instruction_vector+0x34>
    a794:	e58d3000 	str	r3, [sp]
    a798:	e58d4004 	str	r4, [sp, #4]
    a79c:	e59f0014 	ldr	r0, [pc, #20]	; a7b8 <undefined_instruction_vector+0x38>
    a7a0:	e59f1014 	ldr	r1, [pc, #20]	; a7bc <undefined_instruction_vector+0x3c>
    a7a4:	e59f2014 	ldr	r2, [pc, #20]	; a7c0 <undefined_instruction_vector+0x40>
    a7a8:	e3a03002 	mov	r3, #2
    a7ac:	ebfffe17 	bl	a010 <printk>
    a7b0:	ebffffa6 	bl	a650 <clean_reboot>
    a7b4:	0000bca4 	andeq	fp, r0, r4, lsr #25
    a7b8:	0000bb64 	andeq	fp, r0, r4, ror #22
    a7bc:	0000bc78 	andeq	fp, r0, r8, ror ip
    a7c0:	0000bc58 	andeq	fp, r0, r8, asr ip

0000a7c4 <cstart_handler>:
    a7c4:	e12fff1e 	bx	lr

0000a7c8 <reboot_handler>:
    a7c8:	e12fff1e 	bx	lr

0000a7cc <int_init>:
    a7cc:	e92d4008 	push	{r3, lr}
    a7d0:	eb00005b 	bl	a944 <dev_barrier>
    a7d4:	e59f004c 	ldr	r0, [pc, #76]	; a828 <int_init+0x5c>
    a7d8:	e3e01000 	mvn	r1, #0
    a7dc:	eb000060 	bl	a964 <PUT32>
    a7e0:	e59f0044 	ldr	r0, [pc, #68]	; a82c <int_init+0x60>
    a7e4:	e3e01000 	mvn	r1, #0
    a7e8:	eb00005d 	bl	a964 <PUT32>
    a7ec:	eb000054 	bl	a944 <dev_barrier>
    a7f0:	e59f3038 	ldr	r3, [pc, #56]	; a830 <int_init+0x64>
    a7f4:	e59f0038 	ldr	r0, [pc, #56]	; a834 <int_init+0x68>
    a7f8:	e0630000 	rsb	r0, r3, r0
    a7fc:	e1a00140 	asr	r0, r0, #2
    a800:	e3a03000 	mov	r3, #0
    a804:	e59fc024 	ldr	ip, [pc, #36]	; a830 <int_init+0x64>
    a808:	ea000003 	b	a81c <int_init+0x50>
    a80c:	e1a02103 	lsl	r2, r3, #2
    a810:	e79c1103 	ldr	r1, [ip, r3, lsl #2]
    a814:	e5821000 	str	r1, [r2]
    a818:	e2833001 	add	r3, r3, #1
    a81c:	e1530000 	cmp	r3, r0
    a820:	3afffff9 	bcc	a80c <int_init+0x40>
    a824:	e8bd8008 	pop	{r3, pc}
    a828:	2000b21c 	andcs	fp, r0, ip, lsl r2
    a82c:	2000b220 	andcs	fp, r0, r0, lsr #4
    a830:	000081b4 			; <UNDEFINED> instruction: 0x000081b4
    a834:	000081f4 	strdeq	r8, [r0], -r4

0000a838 <at_user_level>:
    a838:	e10f0000 	mrs	r0, CPSR
    a83c:	e200001f 	and	r0, r0, #31
    a840:	e3500010 	cmp	r0, #16
    a844:	13a00000 	movne	r0, #0
    a848:	03a00001 	moveq	r0, #1
    a84c:	e12fff1e 	bx	lr

0000a850 <set_user_level>:
    a850:	e10f3000 	mrs	r3, CPSR
    a854:	e3c3301f 	bic	r3, r3, #31
    a858:	e3833010 	orr	r3, r3, #16
    a85c:	e129f003 	msr	CPSR_fc, r3
    a860:	e12fff1e 	bx	lr

0000a864 <rpi_reboot>:
    a864:	e92d4008 	push	{r3, lr}
    a868:	ebfffff2 	bl	a838 <at_user_level>
    a86c:	e3500000 	cmp	r0, #0
    a870:	0a000000 	beq	a878 <rpi_reboot+0x14>
    a874:	ebfffff5 	bl	a850 <set_user_level>
    a878:	e3a0001e 	mov	r0, #30
    a87c:	eb000026 	bl	a91c <delay_ms>
    a880:	e59f0014 	ldr	r0, [pc, #20]	; a89c <rpi_reboot+0x38>
    a884:	e59f1014 	ldr	r1, [pc, #20]	; a8a0 <rpi_reboot+0x3c>
    a888:	eb000035 	bl	a964 <PUT32>
    a88c:	e59f0010 	ldr	r0, [pc, #16]	; a8a4 <rpi_reboot+0x40>
    a890:	e59f1010 	ldr	r1, [pc, #16]	; a8a8 <rpi_reboot+0x44>
    a894:	eb000032 	bl	a964 <PUT32>
    a898:	eafffffe 	b	a898 <rpi_reboot+0x34>
    a89c:	20100024 	andscs	r0, r0, r4, lsr #32
    a8a0:	5a000001 	bpl	a8ac <delay_cycles>
    a8a4:	2010001c 	andscs	r0, r0, ip, lsl r0
    a8a8:	5a000020 	bpl	a930 <delay_sec>

0000a8ac <delay_cycles>:
    a8ac:	ea000001 	b	a8b8 <delay_cycles+0xc>
    a8b0:	e2811000 	add	r1, r1, #0
    a8b4:	e1a00003 	mov	r0, r3
    a8b8:	e2403001 	sub	r3, r0, #1
    a8bc:	e3500000 	cmp	r0, #0
    a8c0:	1afffffa 	bne	a8b0 <delay_cycles+0x4>
    a8c4:	e12fff1e 	bx	lr

0000a8c8 <timer_get_usec_raw>:
    a8c8:	e92d4008 	push	{r3, lr}
    a8cc:	e59f0004 	ldr	r0, [pc, #4]	; a8d8 <timer_get_usec_raw+0x10>
    a8d0:	eb00002f 	bl	a994 <GET32>
    a8d4:	e8bd8008 	pop	{r3, pc}
    a8d8:	20003004 	andcs	r3, r0, r4

0000a8dc <timer_get_usec>:
    a8dc:	e92d4010 	push	{r4, lr}
    a8e0:	eb000017 	bl	a944 <dev_barrier>
    a8e4:	ebfffff7 	bl	a8c8 <timer_get_usec_raw>
    a8e8:	e1a04000 	mov	r4, r0
    a8ec:	eb000014 	bl	a944 <dev_barrier>
    a8f0:	e1a00004 	mov	r0, r4
    a8f4:	e8bd8010 	pop	{r4, pc}

0000a8f8 <delay_us>:
    a8f8:	e92d4038 	push	{r3, r4, r5, lr}
    a8fc:	e1a05000 	mov	r5, r0
    a900:	ebfffff5 	bl	a8dc <timer_get_usec>
    a904:	e1a04000 	mov	r4, r0
    a908:	ebfffff3 	bl	a8dc <timer_get_usec>
    a90c:	e0640000 	rsb	r0, r4, r0
    a910:	e1500005 	cmp	r0, r5
    a914:	3afffffb 	bcc	a908 <delay_us+0x10>
    a918:	e8bd8038 	pop	{r3, r4, r5, pc}

0000a91c <delay_ms>:
    a91c:	e92d4008 	push	{r3, lr}
    a920:	e3a03ffa 	mov	r3, #1000	; 0x3e8
    a924:	e0000093 	mul	r0, r3, r0
    a928:	ebfffff2 	bl	a8f8 <delay_us>
    a92c:	e8bd8008 	pop	{r3, pc}

0000a930 <delay_sec>:
    a930:	e92d4008 	push	{r3, lr}
    a934:	e3a03ffa 	mov	r3, #1000	; 0x3e8
    a938:	e0000093 	mul	r0, r3, r0
    a93c:	ebfffff6 	bl	a91c <delay_ms>
    a940:	e8bd8008 	pop	{r3, pc}

0000a944 <dev_barrier>:
    a944:	ea000002 	b	a954 <dsb>

0000a948 <dmb>:
    a948:	e3a00000 	mov	r0, #0
    a94c:	ee070fba 	mcr	15, 0, r0, cr7, cr10, {5}
    a950:	e12fff1e 	bx	lr

0000a954 <dsb>:
    a954:	ee070f9a 	mcr	15, 0, r0, cr7, cr10, {4}
    a958:	e12fff1e 	bx	lr

0000a95c <put32>:
    a95c:	e5801000 	str	r1, [r0]
    a960:	e12fff1e 	bx	lr

0000a964 <PUT32>:
    a964:	e5801000 	str	r1, [r0]
    a968:	e12fff1e 	bx	lr

0000a96c <put16>:
    a96c:	e1c010b0 	strh	r1, [r0]
    a970:	e12fff1e 	bx	lr

0000a974 <PUT16>:
    a974:	e1c010b0 	strh	r1, [r0]
    a978:	e12fff1e 	bx	lr

0000a97c <put8>:
    a97c:	e5c01000 	strb	r1, [r0]
    a980:	e12fff1e 	bx	lr

0000a984 <PUT8>:
    a984:	e5c01000 	strb	r1, [r0]
    a988:	e12fff1e 	bx	lr

0000a98c <get32>:
    a98c:	e5900000 	ldr	r0, [r0]
    a990:	e12fff1e 	bx	lr

0000a994 <GET32>:
    a994:	e5900000 	ldr	r0, [r0]
    a998:	e12fff1e 	bx	lr

0000a99c <GETPC>:
    a99c:	e1a0000e 	mov	r0, lr
    a9a0:	e12fff1e 	bx	lr

0000a9a4 <dummy>:
    a9a4:	e12fff1e 	bx	lr

0000a9a8 <or_in32>:
    a9a8:	e92d4070 	push	{r4, r5, r6, lr}
    a9ac:	e1a04000 	mov	r4, r0
    a9b0:	e1a05001 	mov	r5, r1
    a9b4:	ebfffff4 	bl	a98c <get32>
    a9b8:	e1801005 	orr	r1, r0, r5
    a9bc:	e1a00004 	mov	r0, r4
    a9c0:	ebffffe5 	bl	a95c <put32>
    a9c4:	e8bd8070 	pop	{r4, r5, r6, pc}

0000a9c8 <uart_init>:
    a9c8:	e92d4010 	push	{r4, lr}
    a9cc:	e3a01002 	mov	r1, #2
    a9d0:	e3a0000e 	mov	r0, #14
    a9d4:	eb000051 	bl	ab20 <gpio_set_function>
    a9d8:	e3a01002 	mov	r1, #2
    a9dc:	e3a0000f 	mov	r0, #15
    a9e0:	eb00004e 	bl	ab20 <gpio_set_function>
    a9e4:	ebffffd6 	bl	a944 <dev_barrier>
    a9e8:	e3a01001 	mov	r1, #1
    a9ec:	e59f0064 	ldr	r0, [pc, #100]	; aa58 <uart_init+0x90>
    a9f0:	ebffffec 	bl	a9a8 <or_in32>
    a9f4:	ebffffd2 	bl	a944 <dev_barrier>
    a9f8:	e59f405c 	ldr	r4, [pc, #92]	; aa5c <uart_init+0x94>
    a9fc:	e3a01000 	mov	r1, #0
    aa00:	e1a00004 	mov	r0, r4
    aa04:	ebffffd4 	bl	a95c <put32>
    aa08:	e3a01000 	mov	r1, #0
    aa0c:	e59f004c 	ldr	r0, [pc, #76]	; aa60 <uart_init+0x98>
    aa10:	ebffffd1 	bl	a95c <put32>
    aa14:	e3a01003 	mov	r1, #3
    aa18:	e59f0044 	ldr	r0, [pc, #68]	; aa64 <uart_init+0x9c>
    aa1c:	ebffffce 	bl	a95c <put32>
    aa20:	e3a01000 	mov	r1, #0
    aa24:	e59f003c 	ldr	r0, [pc, #60]	; aa68 <uart_init+0xa0>
    aa28:	ebffffcb 	bl	a95c <put32>
    aa2c:	e3a010c7 	mov	r1, #199	; 0xc7
    aa30:	e59f0034 	ldr	r0, [pc, #52]	; aa6c <uart_init+0xa4>
    aa34:	ebffffc8 	bl	a95c <put32>
    aa38:	e59f1030 	ldr	r1, [pc, #48]	; aa70 <uart_init+0xa8>
    aa3c:	e59f0030 	ldr	r0, [pc, #48]	; aa74 <uart_init+0xac>
    aa40:	ebffffc5 	bl	a95c <put32>
    aa44:	e3a01003 	mov	r1, #3
    aa48:	e1a00004 	mov	r0, r4
    aa4c:	ebffffc2 	bl	a95c <put32>
    aa50:	ebffffbb 	bl	a944 <dev_barrier>
    aa54:	e8bd8010 	pop	{r4, pc}
    aa58:	20215004 	eorcs	r5, r1, r4
    aa5c:	20215060 	eorcs	r5, r1, r0, rrx
    aa60:	20215044 	eorcs	r5, r1, r4, asr #32
    aa64:	2021504c 	eorcs	r5, r1, ip, asr #32
    aa68:	20215050 	eorcs	r5, r1, r0, asr r0
    aa6c:	20215048 	eorcs	r5, r1, r8, asr #32
    aa70:	0000010e 	andeq	r0, r0, lr, lsl #2
    aa74:	20215068 	eorcs	r5, r1, r8, rrx

0000aa78 <uart_can_getc>:
    aa78:	e92d4010 	push	{r4, lr}
    aa7c:	e59f0008 	ldr	r0, [pc, #8]	; aa8c <uart_can_getc+0x14>
    aa80:	ebffffc1 	bl	a98c <get32>
    aa84:	e2000001 	and	r0, r0, #1
    aa88:	e8bd8010 	pop	{r4, pc}
    aa8c:	20215064 	eorcs	r5, r1, r4, rrx

0000aa90 <uart_can_putc>:
    aa90:	e92d4010 	push	{r4, lr}
    aa94:	e59f0010 	ldr	r0, [pc, #16]	; aaac <uart_can_putc+0x1c>
    aa98:	ebffffbb 	bl	a98c <get32>
    aa9c:	e3100002 	tst	r0, #2
    aaa0:	13a00001 	movne	r0, #1
    aaa4:	03a00000 	moveq	r0, #0
    aaa8:	e8bd8010 	pop	{r4, pc}
    aaac:	20215064 	eorcs	r5, r1, r4, rrx

0000aab0 <uart_getc>:
    aab0:	e92d4010 	push	{r4, lr}
    aab4:	ebffffa2 	bl	a944 <dev_barrier>
    aab8:	ebffffee 	bl	aa78 <uart_can_getc>
    aabc:	e3500000 	cmp	r0, #0
    aac0:	0afffffc 	beq	aab8 <uart_getc+0x8>
    aac4:	e59f0010 	ldr	r0, [pc, #16]	; aadc <uart_getc+0x2c>
    aac8:	ebffffaf 	bl	a98c <get32>
    aacc:	e6ef4070 	uxtb	r4, r0
    aad0:	ebffff9b 	bl	a944 <dev_barrier>
    aad4:	e1a00004 	mov	r0, r4
    aad8:	e8bd8010 	pop	{r4, pc}
    aadc:	20215040 	eorcs	r5, r1, r0, asr #32

0000aae0 <uart_putc>:
    aae0:	e92d4010 	push	{r4, lr}
    aae4:	e1a04000 	mov	r4, r0
    aae8:	ebffff95 	bl	a944 <dev_barrier>
    aaec:	ebffffe7 	bl	aa90 <uart_can_putc>
    aaf0:	e3500000 	cmp	r0, #0
    aaf4:	0afffffc 	beq	aaec <uart_putc+0xc>
    aaf8:	e6ef1074 	uxtb	r1, r4
    aafc:	e59f0008 	ldr	r0, [pc, #8]	; ab0c <uart_putc+0x2c>
    ab00:	ebffff95 	bl	a95c <put32>
    ab04:	ebffff8e 	bl	a944 <dev_barrier>
    ab08:	e8bd8010 	pop	{r4, pc}
    ab0c:	20215040 	eorcs	r5, r1, r0, asr #32

0000ab10 <uart_has_data>:
    ab10:	e92d4010 	push	{r4, lr}
    ab14:	ebffff8a 	bl	a944 <dev_barrier>
    ab18:	ebffffd6 	bl	aa78 <uart_can_getc>
    ab1c:	e8bd8010 	pop	{r4, pc}

0000ab20 <gpio_set_function>:
    ab20:	e350001f 	cmp	r0, #31
    ab24:	812fff1e 	bxhi	lr
    ab28:	e3d13007 	bics	r3, r1, #7
    ab2c:	112fff1e 	bxne	lr
    ab30:	e92d4070 	push	{r4, r5, r6, lr}
    ab34:	e1a05001 	mov	r5, r1
    ab38:	e59f3044 	ldr	r3, [pc, #68]	; ab84 <gpio_set_function+0x64>
    ab3c:	e0832093 	umull	r2, r3, r3, r0
    ab40:	e1a031a3 	lsr	r3, r3, #3
    ab44:	e1a06003 	mov	r6, r3
    ab48:	e0833103 	add	r3, r3, r3, lsl #2
    ab4c:	e1a02083 	lsl	r2, r3, #1
    ab50:	e0403002 	sub	r3, r0, r2
    ab54:	e0834083 	add	r4, r3, r3, lsl #1
    ab58:	e2866302 	add	r6, r6, #134217728	; 0x8000000
    ab5c:	e2866702 	add	r6, r6, #524288	; 0x80000
    ab60:	e1a06106 	lsl	r6, r6, #2
    ab64:	e1a00006 	mov	r0, r6
    ab68:	ebffff89 	bl	a994 <GET32>
    ab6c:	e3a01007 	mov	r1, #7
    ab70:	e1c01411 	bic	r1, r0, r1, lsl r4
    ab74:	e1811415 	orr	r1, r1, r5, lsl r4
    ab78:	e1a00006 	mov	r0, r6
    ab7c:	ebffff78 	bl	a964 <PUT32>
    ab80:	e8bd8070 	pop	{r4, r5, r6, pc}
    ab84:	cccccccd 	stclgt	12, cr12, [ip], {205}	; 0xcd

0000ab88 <gpio_set_output>:
    ab88:	e92d4010 	push	{r4, lr}
    ab8c:	e3a01001 	mov	r1, #1
    ab90:	ebffffe2 	bl	ab20 <gpio_set_function>
    ab94:	e8bd8010 	pop	{r4, pc}

0000ab98 <gpio_set_on>:
    ab98:	e350001f 	cmp	r0, #31
    ab9c:	812fff1e 	bxhi	lr
    aba0:	e92d4010 	push	{r4, lr}
    aba4:	e3a01001 	mov	r1, #1
    aba8:	e1a01011 	lsl	r1, r1, r0
    abac:	e59f0004 	ldr	r0, [pc, #4]	; abb8 <gpio_set_on+0x20>
    abb0:	ebffff6b 	bl	a964 <PUT32>
    abb4:	e8bd8010 	pop	{r4, pc}
    abb8:	2020001c 	eorcs	r0, r0, ip, lsl r0

0000abbc <gpio_set_off>:
    abbc:	e350001f 	cmp	r0, #31
    abc0:	812fff1e 	bxhi	lr
    abc4:	e92d4010 	push	{r4, lr}
    abc8:	e3a01001 	mov	r1, #1
    abcc:	e1a01011 	lsl	r1, r1, r0
    abd0:	e59f0004 	ldr	r0, [pc, #4]	; abdc <gpio_set_off+0x20>
    abd4:	ebffff62 	bl	a964 <PUT32>
    abd8:	e8bd8010 	pop	{r4, pc}
    abdc:	20200028 	eorcs	r0, r0, r8, lsr #32

0000abe0 <gpio_set_input>:
    abe0:	e92d4010 	push	{r4, lr}
    abe4:	e3a01000 	mov	r1, #0
    abe8:	ebffffcc 	bl	ab20 <gpio_set_function>
    abec:	e8bd8010 	pop	{r4, pc}

0000abf0 <gpio_write>:
    abf0:	e92d4010 	push	{r4, lr}
    abf4:	e3510000 	cmp	r1, #0
    abf8:	1a000001 	bne	ac04 <gpio_write+0x14>
    abfc:	ebffffee 	bl	abbc <gpio_set_off>
    ac00:	e8bd8010 	pop	{r4, pc}
    ac04:	ebffffe3 	bl	ab98 <gpio_set_on>
    ac08:	e8bd8010 	pop	{r4, pc}

0000ac0c <gpio_read>:
    ac0c:	e350001f 	cmp	r0, #31
    ac10:	8a000007 	bhi	ac34 <gpio_read+0x28>
    ac14:	e92d4010 	push	{r4, lr}
    ac18:	e200401f 	and	r4, r0, #31
    ac1c:	e59f3018 	ldr	r3, [pc, #24]	; ac3c <gpio_read+0x30>
    ac20:	e08302a0 	add	r0, r3, r0, lsr #5
    ac24:	ebffff5a 	bl	a994 <GET32>
    ac28:	e1a00430 	lsr	r0, r0, r4
    ac2c:	e2000001 	and	r0, r0, #1
    ac30:	e8bd8010 	pop	{r4, pc}
    ac34:	e3e00000 	mvn	r0, #0
    ac38:	e12fff1e 	bx	lr
    ac3c:	20200034 	eorcs	r0, r0, r4, lsr r0

0000ac40 <kmalloc_heap_end>:
    ac40:	e59f3004 	ldr	r3, [pc, #4]	; ac4c <kmalloc_heap_end+0xc>
    ac44:	e5930000 	ldr	r0, [r3]
    ac48:	e12fff1e 	bx	lr
    ac4c:	0000ade0 	andeq	sl, r0, r0, ror #27

0000ac50 <kmalloc_heap_start>:
    ac50:	e59f0000 	ldr	r0, [pc]	; ac58 <kmalloc_heap_start+0x8>
    ac54:	e12fff1e 	bx	lr
    ac58:	0000c1f0 	strdeq	ip, [r0], -r0

0000ac5c <kmalloc_init_set_start>:
    ac5c:	e59f3038 	ldr	r3, [pc, #56]	; ac9c <kmalloc_init_set_start+0x40>
    ac60:	e5933000 	ldr	r3, [r3]
    ac64:	e1500003 	cmp	r0, r3
    ac68:	9a000003 	bls	ac7c <kmalloc_init_set_start+0x20>
    ac6c:	e59f3028 	ldr	r3, [pc, #40]	; ac9c <kmalloc_init_set_start+0x40>
    ac70:	e5830000 	str	r0, [r3]
    ac74:	e5830004 	str	r0, [r3, #4]
    ac78:	e12fff1e 	bx	lr
    ac7c:	e92d4010 	push	{r4, lr}
    ac80:	ebfffcfd 	bl	a07c <rpi_reset_putc>
    ac84:	e3a03016 	mov	r3, #22
    ac88:	e59f2010 	ldr	r2, [pc, #16]	; aca0 <kmalloc_init_set_start+0x44>
    ac8c:	e59f1010 	ldr	r1, [pc, #16]	; aca4 <kmalloc_init_set_start+0x48>
    ac90:	e59f0010 	ldr	r0, [pc, #16]	; aca8 <kmalloc_init_set_start+0x4c>
    ac94:	ebfffcdd 	bl	a010 <printk>
    ac98:	ebfffe6c 	bl	a650 <clean_reboot>
    ac9c:	0000ade0 	andeq	sl, r0, r0, ror #27
    aca0:	0000bcb4 			; <UNDEFINED> instruction: 0x0000bcb4
    aca4:	0000bce4 	andeq	fp, r0, r4, ror #25
    aca8:	0000bcf0 	strdeq	fp, [r0], -r0

0000acac <kmalloc>:
    acac:	e92d4010 	push	{r4, lr}
    acb0:	e3500000 	cmp	r0, #0
    acb4:	0a00000a 	beq	ace4 <kmalloc+0x38>
    acb8:	e2802007 	add	r2, r0, #7
    acbc:	e3c22007 	bic	r2, r2, #7
    acc0:	e59f3038 	ldr	r3, [pc, #56]	; ad00 <kmalloc+0x54>
    acc4:	e5934000 	ldr	r4, [r3]
    acc8:	e0841002 	add	r1, r4, r2
    accc:	e5831000 	str	r1, [r3]
    acd0:	e3a01000 	mov	r1, #0
    acd4:	e1a00004 	mov	r0, r4
    acd8:	ebfffcc4 	bl	9ff0 <memset>
    acdc:	e1a00004 	mov	r0, r4
    ace0:	e8bd8010 	pop	{r4, pc}
    ace4:	ebfffce4 	bl	a07c <rpi_reset_putc>
    ace8:	e3a0301b 	mov	r3, #27
    acec:	e59f2010 	ldr	r2, [pc, #16]	; ad04 <kmalloc+0x58>
    acf0:	e59f1010 	ldr	r1, [pc, #16]	; ad08 <kmalloc+0x5c>
    acf4:	e59f0010 	ldr	r0, [pc, #16]	; ad0c <kmalloc+0x60>
    acf8:	ebfffcc4 	bl	a010 <printk>
    acfc:	ebfffe53 	bl	a650 <clean_reboot>
    ad00:	0000ade0 	andeq	sl, r0, r0, ror #27
    ad04:	0000bccc 	andeq	fp, r0, ip, asr #25
    ad08:	0000bce4 	andeq	fp, r0, r4, ror #25
    ad0c:	0000bd0c 	andeq	fp, r0, ip, lsl #26

0000ad10 <kmalloc_init>:
    ad10:	e12fff1e 	bx	lr

0000ad14 <kmalloc_heap_ptr>:
    ad14:	e92d4010 	push	{r4, lr}
    ad18:	ebffffcc 	bl	ac50 <kmalloc_heap_start>
    ad1c:	e8bd8010 	pop	{r4, pc}

0000ad20 <kmalloc_aligned>:
    ad20:	e92d4010 	push	{r4, lr}
    ad24:	e2613000 	rsb	r3, r1, #0
    ad28:	e1d12003 	bics	r2, r1, r3
    ad2c:	1a00000b 	bne	ad60 <kmalloc_aligned+0x40>
    ad30:	e59f2060 	ldr	r2, [pc, #96]	; ad98 <kmalloc_aligned+0x78>
    ad34:	e5922000 	ldr	r2, [r2]
    ad38:	e0812002 	add	r2, r1, r2
    ad3c:	e2422001 	sub	r2, r2, #1
    ad40:	e0033002 	and	r3, r3, r2
    ad44:	e2411001 	sub	r1, r1, #1
    ad48:	e1130001 	tst	r3, r1
    ad4c:	1a00000a 	bne	ad7c <kmalloc_aligned+0x5c>
    ad50:	e59f2040 	ldr	r2, [pc, #64]	; ad98 <kmalloc_aligned+0x78>
    ad54:	e5823000 	str	r3, [r2]
    ad58:	ebffffd3 	bl	acac <kmalloc>
    ad5c:	e8bd8010 	pop	{r4, pc}
    ad60:	ebfffcc5 	bl	a07c <rpi_reset_putc>
    ad64:	e3a0302a 	mov	r3, #42	; 0x2a
    ad68:	e59f202c 	ldr	r2, [pc, #44]	; ad9c <kmalloc_aligned+0x7c>
    ad6c:	e59f102c 	ldr	r1, [pc, #44]	; ada0 <kmalloc_aligned+0x80>
    ad70:	e59f002c 	ldr	r0, [pc, #44]	; ada4 <kmalloc_aligned+0x84>
    ad74:	ebfffca5 	bl	a010 <printk>
    ad78:	ebfffe34 	bl	a650 <clean_reboot>
    ad7c:	ebfffcbe 	bl	a07c <rpi_reset_putc>
    ad80:	e3a03030 	mov	r3, #48	; 0x30
    ad84:	e59f2010 	ldr	r2, [pc, #16]	; ad9c <kmalloc_aligned+0x7c>
    ad88:	e59f1010 	ldr	r1, [pc, #16]	; ada0 <kmalloc_aligned+0x80>
    ad8c:	e59f0014 	ldr	r0, [pc, #20]	; ada8 <kmalloc_aligned+0x88>
    ad90:	ebfffc9e 	bl	a010 <printk>
    ad94:	ebfffe2d 	bl	a650 <clean_reboot>
    ad98:	0000ade0 	andeq	sl, r0, r0, ror #27
    ad9c:	0000bcd4 	ldrdeq	fp, [r0], -r4
    ada0:	0000bce4 	andeq	fp, r0, r4, ror #25
    ada4:	0000bd20 	andeq	fp, r0, r0, lsr #26
    ada8:	0000bd80 	andeq	fp, r0, r0, lsl #27

0000adac <kfree>:
    adac:	e12fff1e 	bx	lr

0000adb0 <kfree_all>:
    adb0:	e59f3008 	ldr	r3, [pc, #8]	; adc0 <kfree_all+0x10>
    adb4:	e5932004 	ldr	r2, [r3, #4]
    adb8:	e5832000 	str	r2, [r3]
    adbc:	e12fff1e 	bx	lr
    adc0:	0000ade0 	andeq	sl, r0, r0, ror #27

0000adc4 <kfree_after>:
    adc4:	e59f3004 	ldr	r3, [pc, #4]	; add0 <kfree_after+0xc>
    adc8:	e5830000 	str	r0, [r3]
    adcc:	e12fff1e 	bx	lr
    add0:	0000ade0 	andeq	sl, r0, r0, ror #27

0000add4 <__code_end__>:
    add4:	00000000 	andeq	r0, r0, r0

Disassembly of section .data:

0000add8 <__data_start__>:
    add8:	0000a068 	andeq	sl, r0, r8, rrx

0000addc <putk>:
    addc:	0000a0a4 	andeq	sl, r0, r4, lsr #1

0000ade0 <heap>:
    ade0:	0000c1f0 	strdeq	ip, [r0], -r0

0000ade4 <heap_start>:
    ade4:	0000c1f0 	strdeq	ip, [r0], -r0

Disassembly of section .rodata:

0000ade8 <__FUNCTION__.4584-0xb0>:
    ade8:	494e4150 	stmdbmi	lr, {r4, r6, r8, lr}^
    adec:	73253a43 	teqvc	r5, #274432	; 0x43000
    adf0:	3a73253a 	bcc	1cd42e0 <__bss_end__+0x1cc80f0>
    adf4:	253a6425 	ldrcs	r6, [sl, #-1061]!	; 0x425
    adf8:	00000a73 	andeq	r0, r0, r3, ror sl
    adfc:	74736574 	ldrbtvc	r6, [r3], #-1396	; 0x574
    ae00:	61702f73 	cmnvs	r0, r3, ror pc
    ae04:	2d327472 	cfldrscs	mvf7, [r2, #-456]!	; 0xfffffe38
    ae08:	74736574 	ldrbtvc	r6, [r3], #-1396	; 0x574
    ae0c:	00632e31 	rsbeq	r2, r3, r1, lsr lr
    ae10:	5f756d6d 	svcpl	0x00756d6d
    ae14:	655f7369 	ldrbvs	r7, [pc, #-873]	; aab3 <uart_getc+0x3>
    ae18:	6c62616e 	stfvse	f6, [r2], #-440	; 0xfffffe48
    ae1c:	29286465 	stmdbcs	r8!, {r0, r2, r5, r6, sl, sp, lr}
    ae20:	00000000 	andeq	r0, r0, r0
    ae24:	33746567 	cmncc	r4, #432013312	; 0x19c00000
    ae28:	78262832 	stmdavc	r6!, {r1, r4, r5, fp, sp}
    ae2c:	3d3d2029 	ldccc	0, cr2, [sp, #-164]!	; 0xffffff5c
    ae30:	00003520 	andeq	r3, r0, r0, lsr #10
    ae34:	43415254 	movtmi	r5, #4692	; 0x1254
    ae38:	00003a45 	andeq	r3, r0, r5, asr #20
    ae3c:	6e696f64 	cdpvs	15, 6, cr6, cr9, cr4, {3}
    ae40:	72702067 	rsbsvc	r2, r0, #103	; 0x67
    ae44:	20746e69 	rsbscs	r6, r4, r9, ror #28
    ae48:	68746977 	ldmdavs	r4!, {r0, r1, r2, r4, r5, r6, r8, fp, sp, lr}^
    ae4c:	206d7620 	rsbcs	r7, sp, r0, lsr #12
    ae50:	000a4e4f 	andeq	r4, sl, pc, asr #28
    ae54:	756d6d21 	strbvc	r6, [sp, #-3361]!	; 0xd21
    ae58:	5f73695f 	svcpl	0x0073695f
    ae5c:	62616e65 	rsbvs	r6, r1, #1616	; 0x650
    ae60:	2864656c 	stmdacs	r4!, {r2, r3, r5, r6, r8, sl, sp, lr}^
    ae64:	00000029 	andeq	r0, r0, r9, lsr #32
    ae68:	3d203076 	stccc	0, cr3, [r0, #-472]!	; 0xfffffe28
    ae6c:	0035203d 	eorseq	r2, r5, sp, lsr r0
    ae70:	3d203176 	stfccs	f3, [r0, #-472]!	; 0xfffffe28
    ae74:	0036203d 	eorseq	r2, r6, sp, lsr r0
    ae78:	2a2a2a2a 	bcs	a95728 <__bss_end__+0xa89538>
    ae7c:	2a2a2a2a 	bcs	a9572c <__bss_end__+0xa8953c>
    ae80:	63757320 	cmnvs	r5, #32, 6	; 0x80000000
    ae84:	73736563 	cmnvc	r3, #415236096	; 0x18c00000
    ae88:	2a2a2a20 	bcs	a95710 <__bss_end__+0xa89520>
    ae8c:	2a2a2a2a 	bcs	a9573c <__bss_end__+0xa8954c>
    ae90:	2a2a2a2a 	bcs	a95740 <__bss_end__+0xa89550>
    ae94:	00000a2a 	andeq	r0, r0, sl, lsr #20

0000ae98 <__FUNCTION__.4584>:
    ae98:	745f6d76 	ldrbvc	r6, [pc], #-3446	; aea0 <OneMB>
    ae9c:	00747365 	rsbseq	r7, r4, r5, ror #6

0000aea0 <OneMB>:
    aea0:	00100000 	andseq	r0, r0, r0

0000aea4 <__FUNCTION__.4417>:
    aea4:	5f756d6d 	svcpl	0x00756d6d
    aea8:	6b6f6f6c 	blvs	1be6c60 <__bss_end__+0x1bdaa70>
    aeac:	735f7075 	cmpvc	pc, #117	; 0x75
    aeb0:	69746365 	ldmdbvs	r4!, {r0, r2, r5, r6, r8, r9, sp, lr}^
    aeb4:	00006e6f 	andeq	r6, r0, pc, ror #28

0000aeb8 <__FUNCTION__.4426>:
    aeb8:	5f756d6d 	svcpl	0x00756d6d
    aebc:	6b72616d 	blvs	1ca3478 <__bss_end__+0x1c97288>
    aec0:	6365735f 	cmnvs	r5, #2080374785	; 0x7c000001
    aec4:	5f70615f 	svcpl	0x0070615f
    aec8:	6d726570 	cfldr64vs	mvdx6, [r2, #-448]!	; 0xfffffe40
    aecc:	00000000 	andeq	r0, r0, r0

0000aed0 <__FUNCTION__.4458>:
    aed0:	5f756d6d 	svcpl	0x00756d6d
    aed4:	5f70616d 	svcpl	0x0070616d
    aed8:	74636573 	strbtvc	r6, [r3], #-1395	; 0x573
    aedc:	006e6f69 	rsbeq	r6, lr, r9, ror #30

0000aee0 <__FUNCTION__.4451>:
    aee0:	5f646c66 	svcpl	0x00646c66
    aee4:	5f746573 	svcpl	0x00746573
    aee8:	65736162 	ldrbvs	r6, [r3, #-354]!	; 0x162
    aeec:	6464615f 	strbtvs	r6, [r4], #-351	; 0x15f
    aef0:	00000072 	andeq	r0, r0, r2, ror r0

0000aef4 <__FUNCTION__.4468>:
    aef4:	5f756d6d 	svcpl	0x00756d6d
    aef8:	5f70616d 	svcpl	0x0070616d
    aefc:	74636573 	strbtvc	r6, [r3], #-1395	; 0x573
    af00:	736e6f69 	cmnvc	lr, #420	; 0x1a4
    af04:	00000000 	andeq	r0, r0, r0

0000af08 <__FUNCTION__.4477>:
    af08:	5f756d6d 	svcpl	0x00756d6d
    af0c:	615f7470 	cmpvs	pc, r0, ror r4	; <UNPREDICTABLE>
    af10:	636f6c6c 	cmnvs	pc, #108, 24	; 0x6c00
    af14:	0074615f 	rsbseq	r6, r4, pc, asr r1

0000af18 <__FUNCTION__.4483>:
    af18:	5f756d6d 	svcpl	0x00756d6d
    af1c:	615f7470 	cmpvs	pc, r0, ror r4	; <UNPREDICTABLE>
    af20:	636f6c6c 	cmnvs	pc, #108, 24	; 0x6c00
    af24:	00000000 	andeq	r0, r0, r0

0000af28 <__FUNCTION__.4490>:
    af28:	5f756d6d 	svcpl	0x00756d6d
    af2c:	74696e69 	strbtvc	r6, [r9], #-3689	; 0xe69
    af30:	00000000 	andeq	r0, r0, r0

0000af34 <__FUNCTION__.4497>:
    af34:	5f756d6d 	svcpl	0x00756d6d
    af38:	61736964 	cmnvs	r3, r4, ror #18
    af3c:	5f656c62 	svcpl	0x00656c62
    af40:	00746573 	rsbseq	r6, r4, r3, ror r5

0000af44 <__FUNCTION__.4502>:
    af44:	5f756d6d 	svcpl	0x00756d6d
    af48:	61736964 	cmnvs	r3, r4, ror #18
    af4c:	00656c62 	rsbeq	r6, r5, r2, ror #24

0000af50 <__FUNCTION__.4506>:
    af50:	5f756d6d 	svcpl	0x00756d6d
    af54:	62616e65 	rsbvs	r6, r1, #1616	; 0x650
    af58:	735f656c 	cmpvc	pc, #108, 10	; 0x1b000000
    af5c:	00007465 	andeq	r7, r0, r5, ror #8

0000af60 <__FUNCTION__.4511>:
    af60:	5f756d6d 	svcpl	0x00756d6d
    af64:	62616e65 	rsbvs	r6, r1, #1616	; 0x650
    af68:	0000656c 	andeq	r6, r0, ip, ror #10

0000af6c <__FUNCTION__.4524>:
    af6c:	5f746573 	svcpl	0x00746573
    af70:	636f7270 	cmnvs	pc, #112, 4
    af74:	745f6469 	ldrbvc	r6, [pc], #-1129	; af7c <__FUNCTION__.4524+0x10>
    af78:	30726274 	rsbscc	r6, r2, r4, ror r2
    af7c:	00000000 	andeq	r0, r0, r0

0000af80 <__FUNCTION__.4528>:
    af80:	5f6d7361 	svcpl	0x006d7361
    af84:	5f746f6e 	svcpl	0x00746f6e
    af88:	6c706d69 	ldclvs	13, cr6, [r0], #-420	; 0xfffffe5c
    af8c:	6e656d65 	cdpvs	13, 6, cr6, cr5, cr5, {3}
    af90:	00646574 	rsbeq	r6, r4, r4, ror r5
    af94:	2e756d6d 	cdpcs	13, 7, cr6, cr5, cr13, {3}
    af98:	00000063 	andeq	r0, r0, r3, rrx
    af9c:	615f7369 	cmpvs	pc, r9, ror #6
    afa0:	6e67696c 	cdpvs	9, 6, cr6, cr7, cr12, {3}
    afa4:	76286465 	strtvc	r6, [r8], -r5, ror #8
    afa8:	32202c61 	eorcc	r2, r0, #24832	; 0x6100
    afac:	00002930 	andeq	r2, r0, r0, lsr r9
    afb0:	4f525245 	svcmi	0x00525245
    afb4:	73253a52 	teqvc	r5, #335872	; 0x52000
    afb8:	3a73253a 	bcc	1cd44a8 <__bss_end__+0x1cc82b8>
    afbc:	203a6425 	eorscs	r6, sl, r5, lsr #8
    afc0:	534c4146 	movtpl	r4, #49478	; 0xc146
    afc4:	253c2845 	ldrcs	r2, [ip, #-2117]!	; 0x845
    afc8:	3a293e73 	bcc	a5a99c <__bss_end__+0xa4e7ac>
    afcc:	766e6920 	strbtvc	r6, [lr], -r0, lsr #18
    afd0:	64696c61 	strbtvs	r6, [r9], #-3169	; 0xc61
    afd4:	63657320 	cmnvs	r5, #32, 6	; 0x80000000
    afd8:	6e6f6974 	mcrvs	9, 3, r6, cr15, cr4, {3}
    afdc:	0000000a 	andeq	r0, r0, sl
    afe0:	2d657470 	cfstrdcs	mvd7, [r5, #-448]!	; 0xfffffe40
    afe4:	6761743e 			; <UNDEFINED> instruction: 0x6761743e
    afe8:	00000000 	andeq	r0, r0, r0
    afec:	4f525245 	svcmi	0x00525245
    aff0:	73253a52 	teqvc	r5, #335872	; 0x52000
    aff4:	3a73253a 	bcc	1cd44e4 <__bss_end__+0x1cc82f4>
    aff8:	203a6425 	eorscs	r6, sl, r5, lsr #8
    affc:	534c4146 	movtpl	r4, #49478	; 0xc146
    b000:	253c2845 	ldrcs	r2, [ip, #-2117]!	; 0x845
    b004:	3a293e73 	bcc	a5a9d8 <__bss_end__+0xa4e7e8>
    b008:	766e6920 	strbtvc	r6, [lr], -r0, lsr #18
    b00c:	64696c61 	strbtvs	r6, [r9], #-3169	; 0xc61
    b010:	72657020 	rsbvc	r7, r5, #32
    b014:	7373696d 	cmnvc	r3, #1785856	; 0x1b4000
    b018:	0a6e6f69 	beq	1ba6dc4 <__bss_end__+0x1b9abd4>
    b01c:	00000000 	andeq	r0, r0, r0
    b020:	6d726570 	cfldr64vs	mvdx6, [r2, #-448]!	; 0xfffffe40
    b024:	203d3c20 	eorscs	r3, sp, r0, lsr #24
    b028:	31316230 	teqcc	r1, r0, lsr r2
    b02c:	00000000 	andeq	r0, r0, r0
    b030:	4f525245 	svcmi	0x00525245
    b034:	73253a52 	teqvc	r5, #335872	; 0x52000
    b038:	3a73253a 	bcc	1cd4528 <__bss_end__+0x1cc8338>
    b03c:	203a6425 	eorscs	r6, sl, r5, lsr #8
    b040:	534c4146 	movtpl	r4, #49478	; 0xc146
    b044:	253c2845 	ldrcs	r2, [ip, #-2117]!	; 0x845
    b048:	3a293e73 	bcc	a5aa1c <__bss_end__+0xa4e82c>
    b04c:	64646120 	strbtvs	r6, [r4], #-288	; 0x120
    b050:	73692072 	cmnvc	r9, #114	; 0x72
    b054:	746f6e20 	strbtvc	r6, [pc], #-3616	; b05c <__FUNCTION__.4528+0xdc>
    b058:	696c6120 	stmdbvs	ip!, {r5, r8, sp, lr}^
    b05c:	64656e67 	strbtvs	r6, [r5], #-3687	; 0xe67
    b060:	00000a21 	andeq	r0, r0, r1, lsr #20
    b064:	61282828 	teqvs	r8, r8, lsr #16
    b068:	29726464 	ldmdbcs	r2!, {r2, r5, r6, sl, sp, lr}^
    b06c:	28202620 	stmdacs	r0!, {r5, r9, sl, sp}
    b070:	70797428 	rsbsvc	r7, r9, r8, lsr #8
    b074:	28666f65 	stmdacs	r6!, {r0, r2, r5, r6, r8, r9, sl, fp, sp, lr}^
    b078:	72646461 	rsbvc	r6, r4, #1627389952	; 0x61000000
    b07c:	32282929 	eorcc	r2, r8, #671744	; 0xa4000
    b080:	2d202930 	stccs	9, cr2, [r0, #-192]!	; 0xffffff40
    b084:	29293120 	stmdbcs	r9!, {r5, r8, ip, sp}
    b088:	203d3d20 	eorscs	r3, sp, r0, lsr #26
    b08c:	00002930 	andeq	r2, r0, r0, lsr r9
    b090:	3e2d6628 	cfmadda32cc	mvax1, mvax6, mvfx13, mvfx8
    b094:	5f636573 	svcpl	0x00636573
    b098:	65736162 	ldrbvs	r6, [r3, #-354]!	; 0x162
    b09c:	6464615f 	strbtvs	r6, [r4], #-351	; 0x15f
    b0a0:	3c3c2072 	ldccc	0, cr2, [ip], #-456	; 0xfffffe38
    b0a4:	29303220 	ldmdbcs	r0!, {r5, r9, ip, sp}
    b0a8:	203d3d20 	eorscs	r3, sp, r0, lsr #26
    b0ac:	72646461 	rsbvc	r6, r4, #1627389952	; 0x61000000
    b0b0:	00000000 	andeq	r0, r0, r0
    b0b4:	206d6f64 	rsbcs	r6, sp, r4, ror #30
    b0b8:	3631203c 			; <UNDEFINED> instruction: 0x3631203c
    b0bc:	00000000 	andeq	r0, r0, r0
    b0c0:	615f7369 	cmpvs	pc, r9, ror #6
    b0c4:	6e67696c 	cdpvs	9, 6, cr6, cr7, cr12, {3}
    b0c8:	70286465 	eorvc	r6, r8, r5, ror #8
    b0cc:	32202c61 	eorcc	r2, r0, #24832	; 0x6100
    b0d0:	00002930 	andeq	r2, r0, r0, lsr r9
    b0d4:	4f525245 	svcmi	0x00525245
    b0d8:	73253a52 	teqvc	r5, #335872	; 0x52000
    b0dc:	3a73253a 	bcc	1cd45cc <__bss_end__+0x1cc83dc>
    b0e0:	203a6425 	eorscs	r6, sl, r5, lsr #8
    b0e4:	534c4146 	movtpl	r4, #49478	; 0xc146
    b0e8:	253c2845 	ldrcs	r2, [ip, #-2117]!	; 0x845
    b0ec:	3a293e73 	bcc	a5aac0 <__bss_end__+0xa4e8d0>
    b0f0:	726c6120 	rsbvc	r6, ip, #32, 2
    b0f4:	79646165 	stmdbvc	r4!, {r0, r2, r5, r6, r8, sp, lr}^
    b0f8:	74657320 	strbtvc	r7, [r5], #-800	; 0x320
    b0fc:	0000000a 	andeq	r0, r0, sl
    b100:	65747021 	ldrbvs	r7, [r4, #-33]!	; 0x21
    b104:	61743e2d 	cmnvs	r4, sp, lsr #28
    b108:	00000067 	andeq	r0, r0, r7, rrx
    b10c:	702e796d 	eorvc	r7, lr, sp, ror #18
    b110:	20406574 	subcs	r6, r0, r4, ror r5
    b114:	78257830 	stmdavc	r5!, {r4, r5, fp, ip, sp, lr}
    b118:	25203d20 	strcs	r3, [r0, #-3360]!	; 0xd20
    b11c:	00000a62 	andeq	r0, r0, r2, ror #20
    b120:	20455450 	subcs	r5, r5, r0, asr r4
    b124:	3a637263 	bcc	18e7ab8 <__bss_end__+0x18db8c8>
    b128:	00000000 	andeq	r0, r0, r0
    b12c:	4f525245 	svcmi	0x00525245
    b130:	73253a52 	teqvc	r5, #335872	; 0x52000
    b134:	3a73253a 	bcc	1cd4624 <__bss_end__+0x1cc8434>
    b138:	203a6425 	eorscs	r6, sl, r5, lsr #8
    b13c:	534c4146 	movtpl	r4, #49478	; 0xc146
    b140:	253c2845 	ldrcs	r2, [ip, #-2117]!	; 0x845
    b144:	3a293e73 	bcc	a5ab18 <__bss_end__+0xa4e928>
    b148:	73756d20 	cmnvc	r5, #32, 26	; 0x800
    b14c:	65622074 	strbvs	r2, [r2, #-116]!	; 0x74
    b150:	2d343120 	ldfcss	f3, [r4, #-128]!	; 0xffffff80
    b154:	20746962 	rsbscs	r6, r4, r2, ror #18
    b158:	67696c61 	strbvs	r6, [r9, -r1, ror #24]!
    b15c:	2164656e 	cmncs	r4, lr, ror #10
    b160:	0000000a 	andeq	r0, r0, sl
    b164:	28282828 	stmdacs	r8!, {r3, r5, fp, sp}
    b168:	746e6975 	strbtvc	r6, [lr], #-2421	; 0x975
    b16c:	745f3233 	ldrbvc	r3, [pc], #-563	; b174 <__FUNCTION__.4528+0x1f4>
    b170:	64646129 	strbtvs	r6, [r4], #-297	; 0x129
    b174:	26202972 			; <UNDEFINED> instruction: 0x26202972
    b178:	74282820 	strtvc	r2, [r8], #-2080	; 0x820
    b17c:	6f657079 	svcvs	0x00657079
    b180:	75282866 	strvc	r2, [r8, #-2150]!	; 0x866
    b184:	33746e69 	cmncc	r4, #1680	; 0x690
    b188:	29745f32 	ldmdbcs	r4!, {r1, r4, r5, r8, r9, sl, fp, ip, lr}^
    b18c:	72646461 	rsbvc	r6, r4, #1627389952	; 0x61000000
    b190:	31282929 	teqcc	r8, r9, lsr #18
    b194:	2d202934 	stccs	9, cr2, [r0, #-208]!	; 0xffffff30
    b198:	29293120 	stmdbcs	r9!, {r5, r8, ip, sp}
    b19c:	203d3d20 	eorscs	r3, sp, r0, lsr #26
    b1a0:	00002930 	andeq	r2, r0, r0, lsr r9
    b1a4:	4f525245 	svcmi	0x00525245
    b1a8:	73253a52 	teqvc	r5, #335872	; 0x52000
    b1ac:	3a73253a 	bcc	1cd469c <__bss_end__+0x1cc84ac>
    b1b0:	203a6425 	eorscs	r6, sl, r5, lsr #8
    b1b4:	534c4146 	movtpl	r4, #49478	; 0xc146
    b1b8:	253c2845 	ldrcs	r2, [ip, #-2117]!	; 0x845
    b1bc:	3a293e73 	bcc	a5ab90 <__bss_end__+0xa4e9a0>
    b1c0:	6c6e6f20 	stclvs	15, cr6, [lr], #-128	; 0xffffff80
    b1c4:	61682079 	smcvs	33289	; 0x8209
    b1c8:	6e69646e 	cdpvs	4, 6, cr6, cr9, cr14, {3}
    b1cc:	75662067 	strbvc	r2, [r6, #-103]!	; 0x67
    b1d0:	61206c6c 	teqvs	r0, ip, ror #24
    b1d4:	636f6c6c 	cmnvs	pc, #108, 24	; 0x6c00
    b1d8:	6f697461 	svcvs	0x00697461
    b1dc:	00000a6e 	andeq	r0, r0, lr, ror #20
    b1e0:	7479626e 	ldrbtvc	r6, [r9], #-622	; 0x26e
    b1e4:	3d207365 	stccc	3, cr7, [r0, #-404]!	; 0xfffffe6c
    b1e8:	006e203d 	rsbeq	r2, lr, sp, lsr r0
    b1ec:	4f525245 	svcmi	0x00525245
    b1f0:	73253a52 	teqvc	r5, #335872	; 0x52000
    b1f4:	3a73253a 	bcc	1cd46e4 <__bss_end__+0x1cc84f4>
    b1f8:	203a6425 	eorscs	r6, sl, r5, lsr #8
    b1fc:	534c4146 	movtpl	r4, #49478	; 0xc146
    b200:	253c2845 	ldrcs	r2, [ip, #-2117]!	; 0x845
    b204:	3a293e73 	bcc	a5abd8 <__bss_end__+0xa4e9e8>
    b208:	20657720 	rsbcs	r7, r5, r0, lsr #14
    b20c:	796c6e6f 	stmdbvc	ip!, {r0, r1, r2, r3, r5, r6, r9, sl, fp, sp, lr}^
    b210:	6e616820 	cdpvs	8, 6, cr6, cr1, cr0, {1}
    b214:	6e696c64 	cdpvs	12, 6, cr6, cr9, cr4, {3}
    b218:	20612067 	rsbcs	r2, r1, r7, rrx
    b21c:	6c6c7566 	cfstr64vs	mvdx7, [ip], #-408	; 0xfffffe68
    b220:	6f702d79 	svcvs	0x00702d79
    b224:	616c7570 	smcvs	51024	; 0xc750
    b228:	20646574 	rsbcs	r6, r4, r4, ror r5
    b22c:	65676170 	strbvs	r6, [r7, #-368]!	; 0x170
    b230:	62617420 	rsbvs	r7, r1, #32, 8	; 0x20000000
    b234:	7220656c 	eorvc	r6, r0, #108, 10	; 0x1b000000
    b238:	74686769 	strbtvc	r6, [r8], #-1897	; 0x769
    b23c:	776f6e20 	strbvc	r6, [pc, -r0, lsr #28]!
    b240:	0000000a 	andeq	r0, r0, sl
    b244:	3d3d206e 	ldccc	0, cr2, [sp, #-440]!	; 0xfffffe48
    b248:	39303420 	ldmdbcc	r0!, {r5, sl, ip, sp}
    b24c:	00000036 	andeq	r0, r0, r6, lsr r0
    b250:	28282828 	stmdacs	r8!, {r3, r5, fp, sp}
    b254:	746e6975 	strbtvc	r6, [lr], #-2421	; 0x975
    b258:	745f3233 	ldrbvc	r3, [pc], #-563	; b260 <__FUNCTION__.4528+0x2e0>
    b25c:	29747029 	ldmdbcs	r4!, {r0, r3, r5, ip, sp, lr}^
    b260:	28202620 	stmdacs	r0!, {r5, r9, sl, sp}
    b264:	70797428 	rsbsvc	r7, r9, r8, lsr #8
    b268:	28666f65 	stmdacs	r6!, {r0, r2, r5, r6, r8, r9, sl, fp, sp, lr}^
    b26c:	6e697528 	cdpvs	5, 6, cr7, cr9, cr8, {1}
    b270:	5f323374 	svcpl	0x00323374
    b274:	74702974 	ldrbtvc	r2, [r0], #-2420	; 0x974
    b278:	31282929 	teqcc	r8, r9, lsr #18
    b27c:	2d202934 	stccs	9, cr2, [r0, #-208]!	; 0xffffff30
    b280:	29293120 	stmdbcs	r9!, {r5, r8, ip, sp}
    b284:	203d3d20 	eorscs	r3, sp, r0, lsr #26
    b288:	00002930 	andeq	r2, r0, r0, lsr r9
    b28c:	582e3163 	stmdapl	lr!, {r0, r1, r5, r6, r8, ip, sp}
    b290:	74705f50 	ldrbtvc	r5, [r0], #-3920	; 0xf50
    b294:	00000000 	andeq	r0, r0, r0
    b298:	2e316321 	cdpcs	3, 3, cr6, cr1, cr1, {1}
    b29c:	5f554d4d 	svcpl	0x00554d4d
    b2a0:	62616e65 	rsbvs	r6, r1, #1616	; 0x650
    b2a4:	0064656c 	rsbeq	r6, r4, ip, ror #10
    b2a8:	4d2e6321 	stcmi	3, cr6, [lr, #-132]!	; 0xffffff7c
    b2ac:	655f554d 	ldrbvs	r5, [pc, #-1357]	; ad67 <kmalloc_aligned+0x47>
    b2b0:	6c62616e 	stfvse	f6, [r2], #-440	; 0xfffffe48
    b2b4:	00006465 	andeq	r6, r0, r5, ror #8
    b2b8:	432e6321 	teqmi	lr, #-2080374784	; 0x84000000
    b2bc:	696e755f 	stmdbvs	lr!, {r0, r1, r2, r3, r4, r6, r8, sl, ip, sp, lr}^
    b2c0:	64656966 	strbtvs	r6, [r5], #-2406	; 0x966
    b2c4:	616e655f 	cmnvs	lr, pc, asr r5
    b2c8:	00656c62 	rsbeq	r6, r5, r2, ror #24
    b2cc:	4d4d2e63 	stclmi	14, cr2, [sp, #-396]	; 0xfffffe74
    b2d0:	6e655f55 	mcrvs	15, 3, r5, cr5, cr5, {2}
    b2d4:	656c6261 	strbvs	r6, [ip, #-609]!	; 0x261
    b2d8:	00000064 	andeq	r0, r0, r4, rrx
    b2dc:	64697028 	strbtvs	r7, [r9], #-40	; 0x28
    b2e0:	203e3e20 	eorscs	r3, lr, r0, lsr #28
    b2e4:	20293432 	eorcs	r3, r9, r2, lsr r4
    b2e8:	30203d3d 	eorcc	r3, r0, sp, lsr sp
    b2ec:	00000000 	andeq	r0, r0, r0
    b2f0:	20646970 	rsbcs	r6, r4, r0, ror r9
    b2f4:	3436203e 	ldrtcc	r2, [r6], #-62	; 0x3e
    b2f8:	00000000 	andeq	r0, r0, r0
    b2fc:	64697361 	strbtvs	r7, [r9], #-865	; 0x361
    b300:	36203c20 	strtcc	r3, [r0], -r0, lsr #24
    b304:	26262034 			; <UNDEFINED> instruction: 0x26262034
    b308:	69736120 	ldmdbvs	r3!, {r5, r8, sp, lr}^
    b30c:	00000064 	andeq	r0, r0, r4, rrx
    b310:	494e4150 	stmdbmi	lr, {r4, r6, r8, lr}^
    b314:	73253a43 	teqvc	r5, #274432	; 0x43000
    b318:	3a73253a 	bcc	1cd4808 <__bss_end__+0x1cc8618>
    b31c:	633a6425 	teqvs	sl, #620756992	; 0x25000000
    b320:	656c6c61 	strbvs	r6, [ip, #-3169]!	; 0xc61
    b324:	6e752064 	cdpvs	0, 7, cr2, cr5, cr4, {3}
    b328:	6c706d69 	ldclvs	13, cr6, [r0], #-420	; 0xfffffe5c
    b32c:	6e656d65 	cdpvs	13, 6, cr6, cr5, cr5, {3}
    b330:	20646574 	rsbcs	r6, r4, r4, ror r5
    b334:	206d7361 	rsbcs	r7, sp, r1, ror #6
    b338:	74756f72 	ldrbtvc	r6, [r5], #-3954	; 0xf72
    b33c:	20656e69 	rsbcs	r6, r5, r9, ror #28
    b340:	25207461 	strcs	r7, [r0, #-1121]!	; 0x461
    b344:	000a0a78 	andeq	r0, sl, r8, ror sl
    b348:	48534148 	ldmdami	r3, {r3, r6, r8, lr}^
    b34c:	3a73253a 	bcc	1cd483c <__bss_end__+0x1cc864c>
    b350:	73616820 	cmnvc	r1, #32, 16	; 0x200000
    b354:	78253d68 	stmdavc	r5!, {r3, r5, r6, r8, sl, fp, ip, sp}
    b358:	79626e2c 	stmdbvc	r2!, {r2, r3, r5, r9, sl, fp, sp, lr}^
    b35c:	3d736574 	cfldr64cc	mvdx6, [r3, #-464]!	; 0xfffffe30
    b360:	000a6425 	andeq	r6, sl, r5, lsr #8
    b364:	616d6f64 	cmnvs	sp, r4, ror #30
    b368:	61206e69 	teqvs	r0, r9, ror #28
    b36c:	73656363 	cmnvc	r5, #-1946157055	; 0x8c000001
    b370:	6f632073 	svcvs	0x00632073
    b374:	6f72746e 	svcvs	0x0072746e
    b378:	000a3a6c 	andeq	r3, sl, ip, ror #20
    b37c:	0a622509 	beq	18947a8 <__bss_end__+0x18885b8>
    b380:	00000000 	andeq	r0, r0, r0
    b384:	494e4150 	stmdbmi	lr, {r4, r6, r8, lr}^
    b388:	73253a43 	teqvc	r5, #274432	; 0x43000
    b38c:	3a73253a 	bcc	1cd487c <__bss_end__+0x1cc868c>
    b390:	6f3a6425 	svcvs	0x003a6425
    b394:	65736666 	ldrbvs	r6, [r3, #-1638]!	; 0x666
    b398:	72772074 	rsbsvc	r2, r7, #116	; 0x74
    b39c:	3a676e6f 	bcc	19e6d60 <__bss_end__+0x19dab70>
    b3a0:	70786520 	rsbsvc	r6, r8, r0, lsr #10
    b3a4:	20746365 	rsbscs	r6, r4, r5, ror #6
    b3a8:	67207825 	strvs	r7, [r0, -r5, lsr #16]!
    b3ac:	2520746f 	strcs	r7, [r0, #-1135]!	; 0x46f
    b3b0:	73252078 	teqvc	r5, #120	; 0x78
    b3b4:	666f5b20 	strbtvs	r5, [pc], -r0, lsr #22
    b3b8:	64253d66 	strtvs	r3, [r5], #-3430	; 0xd66
    b3bc:	69626e2c 	stmdbvs	r2!, {r2, r3, r5, r9, sl, fp, sp, lr}^
    b3c0:	253d7374 	ldrcs	r7, [sp, #-884]!	; 0x374
    b3c4:	0a0a5d64 	beq	2a295c <__bss_end__+0x29676c>
    b3c8:	00000000 	andeq	r0, r0, r0
    b3cc:	2d756d6d 	ldclcs	13, cr6, [r5, #-436]!	; 0xfffffe4c
    b3d0:	706c6568 	rsbvc	r6, ip, r8, ror #10
    b3d4:	2e737265 	cdpcs	2, 7, cr7, cr3, cr5, {3}
    b3d8:	00000063 	andeq	r0, r0, r3, rrx
    b3dc:	20752e78 	rsbscs	r2, r5, r8, ror lr
    b3e0:	65203d3d 	strvs	r3, [r0, #-3389]!	; 0xd3d
    b3e4:	00007078 	andeq	r7, r0, r8, ror r0
    b3e8:	494e4150 	stmdbmi	lr, {r4, r6, r8, lr}^
    b3ec:	73253a43 	teqvc	r5, #274432	; 0x43000
    b3f0:	3a73253a 	bcc	1cd48e0 <__bss_end__+0x1cc86f0>
    b3f4:	773a6425 	ldrvc	r6, [sl, -r5, lsr #8]!
    b3f8:	68746469 	ldmdavs	r4!, {r0, r3, r5, r6, sl, sp, lr}^
    b3fc:	6f727720 	svcvs	0x00727720
    b400:	203a676e 	eorscs	r6, sl, lr, ror #14
    b404:	65707865 	ldrbvs	r7, [r0, #-2149]!	; 0x865
    b408:	25207463 	strcs	r7, [r0, #-1123]!	; 0x463
    b40c:	6f672078 	svcvs	0x00672078
    b410:	78252074 	stmdavc	r5!, {r2, r4, r5, r6, sp}
    b414:	20732520 	rsbscs	r2, r3, r0, lsr #10
    b418:	66666f5b 	uqsaxvs	r6, r6, fp
    b41c:	2c64253d 	cfstr64cs	mvdx2, [r4], #-244	; 0xffffff0c
    b420:	7469626e 	strbtvc	r6, [r9], #-622	; 0x26e
    b424:	64253d73 	strtvs	r3, [r5], #-3443	; 0xd73
    b428:	000a0a5d 	andeq	r0, sl, sp, asr sl
    b42c:	6c615f41 	stclvs	15, cr5, [r1], #-260	; 0xfffffefc
    b430:	6d6e6769 	stclvs	7, cr6, [lr, #-420]!	; 0xfffffe5c
    b434:	00746e65 	rsbseq	r6, r4, r5, ror #28
    b438:	72775f57 	rsbsvc	r5, r7, #348	; 0x15c
    b43c:	5f657469 	svcpl	0x00657469
    b440:	00667562 	rsbeq	r7, r6, r2, ror #10
    b444:	6e655f42 	cdpvs	15, 6, cr5, cr5, cr2, {2}
    b448:	6e616964 	cdpvs	9, 6, cr6, cr1, cr4, {3}
    b44c:	00000000 	andeq	r0, r0, r0
    b450:	72705f53 	rsbsvc	r5, r0, #332	; 0x14c
    b454:	0000746f 	andeq	r7, r0, pc, ror #8
    b458:	6f725f52 	svcvs	0x00725f52
    b45c:	72705f6d 	rsbsvc	r5, r0, #436	; 0x1b4
    b460:	0000746f 	andeq	r7, r0, pc, ror #8
    b464:	00000046 	andeq	r0, r0, r6, asr #32
    b468:	72625f5a 	rsbvc	r5, r2, #360	; 0x168
    b46c:	68636e61 	stmdavs	r3!, {r0, r5, r6, r9, sl, fp, sp, lr}^
    b470:	6572705f 	ldrbvs	r7, [r2, #-95]!	; 0x5f
    b474:	00000064 	andeq	r0, r0, r4, rrx
    b478:	69685f56 	stmdbvs	r8!, {r1, r2, r4, r6, r8, r9, sl, fp, ip, lr}^
    b47c:	655f6867 	ldrbvs	r6, [pc, #-2151]	; ac1d <gpio_read+0x11>
    b480:	70656378 	rsbvc	r6, r5, r8, ror r3
    b484:	00765f74 	rsbseq	r5, r6, r4, ror pc
    b488:	635f5252 	cmpvs	pc, #536870917	; 0x20000005
    b48c:	65686361 	strbvs	r6, [r8, #-865]!	; 0x361
    b490:	7065725f 	rsbvc	r7, r5, pc, asr r2
    b494:	00000000 	andeq	r0, r0, r0
    b498:	0000344c 	andeq	r3, r0, ip, asr #8
    b49c:	00003146 	andeq	r3, r0, r6, asr #2
    b4a0:	6e755f55 	mrcvs	15, 3, r5, cr5, cr5, {2}
    b4a4:	67696c61 	strbvs	r6, [r9, -r1, ror #24]!
    b4a8:	0064656e 	rsbeq	r6, r4, lr, ror #10
    b4ac:	705f5058 	subsvc	r5, pc, r8, asr r0	; <UNPREDICTABLE>
    b4b0:	00000074 	andeq	r0, r0, r4, ror r0
    b4b4:	765f4556 			; <UNDEFINED> instruction: 0x765f4556
    b4b8:	5f746365 	svcpl	0x00746365
    b4bc:	00746e69 	rsbseq	r6, r4, r9, ror #28
    b4c0:	00004545 	andeq	r4, r0, r5, asr #10
    b4c4:	745f5254 	ldrbvc	r5, [pc], #-596	; b4cc <__FUNCTION__.4528+0x54c>
    b4c8:	725f7865 	subsvc	r7, pc, #6619136	; 0x650000
    b4cc:	70616d65 	rsbvc	r6, r1, r5, ror #26
    b4d0:	00000000 	andeq	r0, r0, r0
    b4d4:	665f4146 	ldrbvs	r4, [pc], -r6, asr #2
    b4d8:	6563726f 	strbvs	r7, [r3, #-623]!	; 0x26f
    b4dc:	0070615f 	rsbseq	r6, r0, pc, asr r1
    b4e0:	5f3e2d72 	svcpl	0x003e2d72
    b4e4:	73756e75 	cmnvc	r5, #1872	; 0x750
    b4e8:	20316465 	eorscs	r6, r1, r5, ror #8
    b4ec:	30203d3d 	eorcc	r3, r0, sp, lsr sp
    b4f0:	31313162 	teqcc	r1, r2, ror #2
    b4f4:	00000000 	andeq	r0, r0, r0
    b4f8:	5f3e2d72 	svcpl	0x003e2d72
    b4fc:	3d207464 	cfstrscc	mvf7, [r0, #-400]!	; 0xfffffe70
    b500:	0031203d 	eorseq	r2, r1, sp, lsr r0
    b504:	5f3e2d72 	svcpl	0x003e2d72
    b508:	3d207469 	cfstrscc	mvf7, [r0, #-420]!	; 0xfffffe5c
    b50c:	0031203d 	eorseq	r2, r1, sp, lsr r0
    b510:	5f3e2d72 	svcpl	0x003e2d72
    b514:	307a6273 	rsbscc	r6, sl, r3, ror r2
    b518:	203d3d20 	eorscs	r3, sp, r0, lsr #26
    b51c:	00000030 	andeq	r0, r0, r0, lsr r0
    b520:	5f3e2d72 	svcpl	0x003e2d72
    b524:	317a6273 	cmncc	sl, r3, ror r2
    b528:	203d3d20 	eorscs	r3, sp, r0, lsr #26
    b52c:	00000030 	andeq	r0, r0, r0, lsr r0
    b530:	5f3e2d72 	svcpl	0x003e2d72
    b534:	3d207473 	cfstrscc	mvf7, [r0, #-460]!	; 0xfffffe34
    b538:	0030203d 	eorseq	r2, r0, sp, lsr r0
    b53c:	3e2d7221 	cdpcc	2, 2, cr7, cr13, cr1, {1}
    b540:	655f324c 	ldrbvs	r3, [pc, #-588]	; b2fc <__FUNCTION__.4528+0x37c>
    b544:	6c62616e 	stfvse	f6, [r2], #-440	; 0xfffffe48
    b548:	00006465 	andeq	r6, r0, r5, ror #8
    b54c:	3e2d7221 	cdpcc	2, 2, cr7, cr13, cr1, {1}
    b550:	63695f49 	cmnvs	r9, #292	; 0x124
    b554:	65686361 	strbvs	r6, [r8, #-865]!	; 0x361
    b558:	616e655f 	cmnvs	lr, pc, asr r5
    b55c:	00656c62 	rsbeq	r6, r5, r2, ror #24
    b560:	3e2d7221 	cdpcc	2, 2, cr7, cr13, cr1, {1}
    b564:	6e755f43 	cdpvs	15, 7, cr5, cr5, cr3, {2}
    b568:	65696669 	strbvs	r6, [r9, #-1641]!	; 0x669
    b56c:	6e655f64 	cdpvs	15, 6, cr5, cr5, cr4, {3}
    b570:	656c6261 	strbvs	r6, [ip, #-609]!	; 0x261
    b574:	00000000 	andeq	r0, r0, r0
    b578:	74737973 	ldrbtvc	r7, [r3], #-2419	; 0x973
    b57c:	63206d65 	teqvs	r0, #6464	; 0x1940
    b580:	72746e6f 	rsbsvc	r6, r4, #1776	; 0x6f0
    b584:	72206c6f 	eorvc	r6, r0, #28416	; 0x6f00
    b588:	0a3d6765 	beq	f65324 <__bss_end__+0xf59134>
    b58c:	00000000 	andeq	r0, r0, r0
    b590:	25623009 	strbcs	r3, [r2, #-9]!
    b594:	203d0962 	eorscs	r0, sp, r2, ror #18
    b598:	000a7325 	andeq	r7, sl, r5, lsr #6
    b59c:	25783009 	ldrbcs	r3, [r8, #-9]!
    b5a0:	00000a78 	andeq	r0, r0, r8, ror sl
    b5a4:	66696e75 			; <UNDEFINED> instruction: 0x66696e75
    b5a8:	5f646569 	svcpl	0x00646569
    b5ac:	00000070 	andeq	r0, r0, r0, ror r0
    b5b0:	5f645f6e 	svcpl	0x00645f6e
    b5b4:	6b636f6c 	blvs	18e736c <__bss_end__+0x18db17c>
    b5b8:	00000000 	andeq	r0, r0, r0
    b5bc:	5f695f6e 	svcpl	0x00695f6e
    b5c0:	6b636f6c 	blvs	18e7378 <__bss_end__+0x18db188>
    b5c4:	00000000 	andeq	r0, r0, r0
    b5c8:	20424c54 	subcs	r4, r2, r4, asr ip
    b5cc:	666e6f63 	strbtvs	r6, [lr], -r3, ror #30
    b5d0:	0a3a6769 	beq	ea537c <__bss_end__+0xe9918c>
    b5d4:	00000000 	andeq	r0, r0, r0
    b5d8:	696e7509 	stmdbvs	lr!, {r0, r3, r8, sl, ip, sp, lr}^
    b5dc:	64656966 	strbtvs	r6, [r5], #-2406	; 0x966
    b5e0:	0a64253d 	beq	1914adc <__bss_end__+0x19088ec>
    b5e4:	00000000 	andeq	r0, r0, r0
    b5e8:	636f6c09 	cmnvs	pc, #2304	; 0x900
    b5ec:	6c62616b 	stfvse	f6, [r2], #-428	; 0xfffffe54
    b5f0:	61642065 	cmnvs	r4, r5, rrx
    b5f4:	65206174 	strvs	r6, [r0, #-372]!	; 0x174
    b5f8:	253d746e 	ldrcs	r7, [sp, #-1134]!	; 0x46e
    b5fc:	00000a64 	andeq	r0, r0, r4, ror #20
    b600:	636f6c09 	cmnvs	pc, #2304	; 0x900
    b604:	6c62616b 	stfvse	f6, [r2], #-428	; 0xfffffe54
    b608:	6e692065 	cdpvs	0, 6, cr2, cr9, cr5, {3}
    b60c:	65207473 	strvs	r7, [r0, #-1139]!	; 0x473
    b610:	253d746e 	ldrcs	r7, [sp, #-1134]!	; 0x46e
    b614:	00000a64 	andeq	r0, r0, r4, ror #20
    b618:	5f3e2d66 	svcpl	0x003e2d66
    b61c:	317a6273 	cmncc	sl, r3, ror r2
    b620:	203d3d20 	eorscs	r3, sp, r0, lsr #26
    b624:	00000030 	andeq	r0, r0, r0, lsr r0
    b628:	743e2d66 	ldrtvc	r2, [lr], #-3430	; 0xd66
    b62c:	3d206761 	stccc	7, cr6, [r0, #-388]!	; 0xfffffe7c
    b630:	6230203d 	eorsvs	r2, r0, #61	; 0x3d
    b634:	00003031 	andeq	r3, r0, r1, lsr r0
    b638:	533e2d66 	teqpl	lr, #6528	; 0x1980
    b63c:	203d3d20 	eorscs	r3, sp, r0, lsr #26
    b640:	00000030 	andeq	r0, r0, r0, lsr r0
    b644:	493e2d66 	ldmdbmi	lr!, {r1, r2, r5, r6, r8, sl, fp, sp}
    b648:	3d20504d 	stccc	0, cr5, [r0, #-308]!	; 0xfffffecc
    b64c:	0030203d 	eorseq	r2, r0, sp, lsr r0
    b650:	543e2d66 	ldrtpl	r2, [lr], #-3430	; 0xd66
    b654:	3d205845 	stccc	8, cr5, [r0, #-276]!	; 0xfffffeec
    b658:	0030203d 	eorseq	r2, r0, sp, lsr r0
    b65c:	433e2d66 	teqmi	lr, #6528	; 0x1980
    b660:	203d3d20 	eorscs	r3, sp, r0, lsr #26
    b664:	00000030 	andeq	r0, r0, r0, lsr r0
    b668:	423e2d66 	eorsmi	r2, lr, #6528	; 0x1980
    b66c:	203d3d20 	eorscs	r3, sp, r0, lsr #26
    b670:	00000030 	andeq	r0, r0, r0, lsr r0
    b674:	733e2d66 	teqvc	lr, #6528	; 0x1980
    b678:	72657075 	rsbvc	r7, r5, #117	; 0x75
    b67c:	203d3d20 	eorscs	r3, sp, r0, lsr #26
    b680:	00000030 	andeq	r0, r0, r0, lsr r0
    b684:	00676174 	rsbeq	r6, r7, r4, ror r1
    b688:	00000042 	andeq	r0, r0, r2, asr #32
    b68c:	00000043 	andeq	r0, r0, r3, asr #32
    b690:	00004e58 	andeq	r4, r0, r8, asr lr
    b694:	616d6f64 	cmnvs	sp, r4, ror #30
    b698:	00006e69 	andeq	r6, r0, r9, ror #28
    b69c:	00504d49 	subseq	r4, r0, r9, asr #26
    b6a0:	00005041 	andeq	r5, r0, r1, asr #32
    b6a4:	00584554 	subseq	r4, r8, r4, asr r5
    b6a8:	00585041 	subseq	r5, r8, r1, asr #32
    b6ac:	00000053 	andeq	r0, r0, r3, asr r0
    b6b0:	0000476e 	andeq	r4, r0, lr, ror #14
    b6b4:	65707573 	ldrbvs	r7, [r0, #-1395]!	; 0x573
    b6b8:	00000072 	andeq	r0, r0, r2, ror r0
    b6bc:	5f636573 	svcpl	0x00636573
    b6c0:	65736162 	ldrbvs	r6, [r3, #-354]!	; 0x162
    b6c4:	6464615f 	strbtvs	r6, [r4], #-351	; 0x15f
    b6c8:	00000072 	andeq	r0, r0, r2, ror r0
    b6cc:	2d2d2d2d 	stccs	13, cr2, [sp, #-180]!	; 0xffffff4c
    b6d0:	2d2d2d2d 	stccs	13, cr2, [sp, #-180]!	; 0xffffff4c
    b6d4:	2d2d2d2d 	stccs	13, cr2, [sp, #-180]!	; 0xffffff4c
    b6d8:	2d2d2d2d 	stccs	13, cr2, [sp, #-180]!	; 0xffffff4c
    b6dc:	2d2d2d2d 	stccs	13, cr2, [sp, #-180]!	; 0xffffff4c
    b6e0:	2d2d2d2d 	stccs	13, cr2, [sp, #-180]!	; 0xffffff4c
    b6e4:	2d2d2d2d 	stccs	13, cr2, [sp, #-180]!	; 0xffffff4c
    b6e8:	000a2d2d 	andeq	r2, sl, sp, lsr #26
    b6ec:	78257830 	stmdavc	r5!, {r4, r5, fp, ip, sp, lr}
    b6f0:	00000a3a 	andeq	r0, r0, sl, lsr sl
    b6f4:	2d202009 	stccs	0, cr2, [r0, #-36]!	; 0xffffffdc
    b6f8:	76203e2d 	strtvc	r3, [r0], -sp, lsr #28
    b6fc:	78303d61 	ldmdavc	r0!, {r0, r5, r6, r8, sl, fp, ip, sp}
    b700:	0a783825 	beq	1e1979c <__bss_end__+0x1e0d5ac>
    b704:	00000000 	andeq	r0, r0, r0
    b708:	20202009 	eorcs	r2, r0, r9
    b70c:	20202020 	eorcs	r2, r0, r0, lsr #32
    b710:	20202020 	eorcs	r2, r0, r0, lsr #32
    b714:	34353637 	ldrtcc	r3, [r5], #-1591	; 0x637
    b718:	30313233 	eorscc	r3, r1, r3, lsr r2
    b71c:	0000000a 	andeq	r0, r0, sl

0000b720 <__FUNCTION__.4576>:
    b720:	746e6f63 	strbtvc	r6, [lr], #-3939	; 0xf63
    b724:	5f6c6f72 	svcpl	0x006c6f72
    b728:	31676572 	smccc	30290	; 0x7652
    b72c:	6e61735f 	mcrvs	3, 3, r7, cr1, cr15, {2}
    b730:	5f797469 	svcpl	0x00797469
    b734:	63656863 	cmnvs	r5, #6488064	; 0x630000
    b738:	0000006b 	andeq	r0, r0, fp, rrx

0000b73c <__FUNCTION__.4619>:
    b73c:	5f646c66 	svcpl	0x00646c66
    b740:	63656863 	cmnvs	r5, #6488064	; 0x630000
    b744:	61765f6b 	cmnvs	r6, fp, ror #30
    b748:	0064696c 	rsbeq	r6, r4, ip, ror #18

0000b74c <__FUNCTION__.4390>:
    b74c:	746e6f63 	strbtvc	r6, [lr], #-3939	; 0xf63
    b750:	5f6c6f72 	svcpl	0x006c6f72
    b754:	31676572 	smccc	30290	; 0x7652
    b758:	6568635f 	strbvs	r6, [r8, #-863]!	; 0x35f
    b75c:	6f5f6b63 	svcvs	0x005f6b63
    b760:	65736666 	ldrbvs	r6, [r3, #-1638]!	; 0x666
    b764:	00007374 	andeq	r7, r0, r4, ror r3

0000b768 <__FUNCTION__.4592>:
    b768:	5f626c74 	svcpl	0x00626c74
    b76c:	666e6f63 	strbtvs	r6, [lr], -r3, ror #30
    b770:	635f6769 	cmpvs	pc, #27525120	; 0x1a40000
    b774:	6b636568 	blvs	18e4d1c <__bss_end__+0x18d8b2c>
    b778:	66666f5f 	uqsaxvs	r6, r6, pc	; <UNPREDICTABLE>
    b77c:	73746573 	cmnvc	r4, #482344960	; 0x1cc00000
    b780:	00000000 	andeq	r0, r0, r0

0000b784 <__FUNCTION__.4628>:
    b784:	5f646c66 	svcpl	0x00646c66
    b788:	63656863 	cmnvs	r5, #6488064	; 0x630000
    b78c:	666f5f6b 	strbtvs	r5, [pc], -fp, ror #30
    b790:	74657366 	strbtvc	r7, [r5], #-870	; 0x366
    b794:	00000073 	andeq	r0, r0, r3, ror r0
    b798:	636d656d 	cmnvs	sp, #457179136	; 0x1b400000
    b79c:	6b636568 	blvs	18e4d44 <__bss_end__+0x18d8b54>
    b7a0:	0000632e 	andeq	r6, r0, lr, lsr #6
    b7a4:	61662e6c 	cmnvs	r6, ip, ror #28
    b7a8:	5f746c75 	svcpl	0x00746c75
    b7ac:	72646461 	rsbvc	r6, r4, #1627389952	; 0x61000000
    b7b0:	203d3d20 	eorscs	r3, sp, r0, lsr #26
    b7b4:	72646461 	rsbvc	r6, r4, #1627389952	; 0x61000000
    b7b8:	00000000 	andeq	r0, r0, r0
    b7bc:	61662e6c 	cmnvs	r6, ip, ror #28
    b7c0:	5f746c75 	svcpl	0x00746c75
    b7c4:	3d206370 	stccc	3, cr6, [r0, #-448]!	; 0xfffffe40
    b7c8:	6370203d 	cmnvs	r0, #61	; 0x3d
    b7cc:	00000000 	andeq	r0, r0, r0
    b7d0:	61662e6c 	cmnvs	r6, ip, ror #28
    b7d4:	5f746c75 	svcpl	0x00746c75
    b7d8:	73616572 	cmnvc	r1, #478150656	; 0x1c800000
    b7dc:	3d206e6f 	stccc	14, cr6, [r0, #-444]!	; 0xfffffe44
    b7e0:	6572203d 	ldrbvs	r2, [r2, #-61]!	; 0x3d
    b7e4:	6e6f7361 	cdpvs	3, 6, cr7, cr15, cr1, {3}
    b7e8:	00000000 	andeq	r0, r0, r0
    b7ec:	20776173 	rsbscs	r6, r7, r3, ror r1
    b7f0:	65707865 	ldrbvs	r7, [r0, #-2149]!	; 0x865
    b7f4:	64657463 	strbtvs	r7, [r5], #-1123	; 0x463
    b7f8:	75616620 	strbvc	r6, [r1, #-1568]!	; 0x620
    b7fc:	6120746c 	teqvs	r0, ip, ror #8
    b800:	63702074 	cmnvs	r0, #116	; 0x74
    b804:	2c70253d 	cfldr64cs	mvdx2, [r0], #-244	; 0xffffff0c
    b808:	64646120 	strbtvs	r6, [r4], #-288	; 0x120
    b80c:	70253d72 	eorvc	r3, r5, r2, ror sp
    b810:	6572202c 	ldrbvs	r2, [r2, #-44]!	; 0x2c
    b814:	6e6f7361 	cdpvs	3, 6, cr7, cr15, cr1, {3}
    b818:	0a64253d 	beq	1914d14 <__bss_end__+0x1908b24>
    b81c:	00000000 	andeq	r0, r0, r0
    b820:	2d746962 	ldclcs	9, cr6, [r4, #-392]!	; 0xfffffe78
    b824:	70707573 	rsbsvc	r7, r0, r3, ror r5
    b828:	2e74726f 	cdpcs	2, 7, cr7, cr4, cr15, {3}
    b82c:	00000068 	andeq	r0, r0, r8, rrx
    b830:	3c20626c 	sfmcc	f6, 4, [r0], #-432	; 0xfffffe50
    b834:	6275203d 	rsbsvs	r2, r5, #61	; 0x3d
    b838:	00000000 	andeq	r0, r0, r0
    b83c:	3c206275 	sfmcc	f6, 4, [r0], #-468	; 0xfffffe2c
    b840:	00323320 	eorseq	r3, r2, r0, lsr #6
    b844:	6d726570 	cfldr64vs	mvdx6, [r2, #-448]!	; 0xfffffe40
    b848:	203d3d20 	eorscs	r3, sp, r0, lsr #26
    b84c:	5f4d4f44 	svcpl	0x004d4f44
    b850:	65696c63 	strbvs	r6, [r9, #-3171]!	; 0xc63
    b854:	7c20746e 	cfstrsvc	mvf7, [r0], #-440	; 0xfffffe48
    b858:	6570207c 	ldrbvs	r2, [r0, #-124]!	; 0x7c
    b85c:	3d206d72 	stccc	13, cr6, [r0, #-456]!	; 0xfffffe38
    b860:	4f44203d 	svcmi	0x0044203d
    b864:	6f6e5f4d 	svcvs	0x006e5f4d
    b868:	6363615f 	cmnvs	r3, #-1073741801	; 0xc0000017
    b86c:	00737365 	rsbseq	r7, r3, r5, ror #6
    b870:	494e4150 	stmdbmi	lr, {r4, r6, r8, lr}^
    b874:	73253a43 	teqvc	r5, #274432	; 0x43000
    b878:	3a73253a 	bcc	1cd4d68 <__bss_end__+0x1cc8b78>
    b87c:	693a6425 	ldmdbvs	sl!, {r0, r2, r5, sl, sp, lr}
    b880:	656c706d 	strbvs	r7, [ip, #-109]!	; 0x6d
    b884:	746e656d 	strbtvc	r6, [lr], #-1389	; 0x56d
    b888:	69687420 	stmdbvs	r8!, {r5, sl, ip, sp, lr}^
    b88c:	75662073 	strbvc	r2, [r6, #-115]!	; 0x73
    b890:	6974636e 	ldmdbvs	r4!, {r1, r2, r3, r5, r6, r8, r9, sp, lr}^
    b894:	0a216e6f 	beq	867258 <__bss_end__+0x85b068>
    b898:	0000000a 	andeq	r0, r0, sl
    b89c:	494e4150 	stmdbmi	lr, {r4, r6, r8, lr}^
    b8a0:	73253a43 	teqvc	r5, #274432	; 0x43000
    b8a4:	3a73253a 	bcc	1cd4d94 <__bss_end__+0x1cc8ba4>
    b8a8:	693a6425 	ldmdbvs	sl!, {r0, r2, r5, sl, sp, lr}
    b8ac:	736f706d 	cmnvc	pc, #109	; 0x6d
    b8b0:	6c626973 	stclvs	9, cr6, [r2], #-460	; 0xfffffe34
    b8b4:	73203a65 	teqvc	r0, #413696	; 0x65000
    b8b8:	6c756f68 	ldclvs	15, cr6, [r5], #-416	; 0xfffffe60
    b8bc:	6e6f2064 	cdpvs	0, 6, cr2, cr15, cr4, {3}
    b8c0:	6720796c 	strvs	r7, [r0, -ip, ror #18]!
    b8c4:	64207465 	strtvs	r7, [r0], #-1125	; 0x465
    b8c8:	66617461 	strbtvs	r7, [r1], -r1, ror #8
    b8cc:	746c7561 	strbtvc	r7, [ip], #-1377	; 0x561
    b8d0:	000a0a73 	andeq	r0, sl, r3, ror sl
    b8d4:	34317063 	ldrtcc	r7, [r1], #-99	; 0x63
    b8d8:	6265642d 	rsbvs	r6, r5, #754974720	; 0x2d000000
    b8dc:	682e6775 	stmdavs	lr!, {r0, r2, r4, r5, r6, r8, r9, sl, sp, lr}
    b8e0:	00000000 	andeq	r0, r0, r0
    b8e4:	494e4150 	stmdbmi	lr, {r4, r6, r8, lr}^
    b8e8:	73253a43 	teqvc	r5, #274432	; 0x43000
    b8ec:	3a73253a 	bcc	1cd4ddc <__bss_end__+0x1cc8bec>
    b8f0:	733a6425 	teqvc	sl, #620756992	; 0x25000000
    b8f4:	6c756f68 	ldclvs	15, cr6, [r5], #-416	; 0xfffffe60
    b8f8:	6f6e2064 	svcvs	0x006e2064
    b8fc:	61682074 	smcvs	33284	; 0x8204
    b900:	74206576 	strtvc	r6, [r0], #-1398	; 0x576
    b904:	0a736968 	beq	1ce5eac <__bss_end__+0x1cd9cbc>
    b908:	0000000a 	andeq	r0, r0, sl
    b90c:	494e4150 	stmdbmi	lr, {r4, r6, r8, lr}^
    b910:	73253a43 	teqvc	r5, #274432	; 0x43000
    b914:	3a73253a 	bcc	1cd4e04 <__bss_end__+0x1cc8c14>
    b918:	693a6425 	ldmdbvs	sl!, {r0, r2, r5, sl, sp, lr}
    b91c:	736f706d 	cmnvc	pc, #109	; 0x6d
    b920:	6c626973 	stclvs	9, cr6, [r2], #-460	; 0xfffffe34
    b924:	000a0a65 	andeq	r0, sl, r5, ror #20
    b928:	3d207470 	cfstrscc	mvf7, [r0, #-448]!	; 0xfffffe40
    b92c:	6162203d 	cmnvs	r2, sp, lsr r0
    b930:	00006573 	andeq	r6, r0, r3, ror r5
    b934:	253a7325 	ldrcs	r7, [sl, #-805]!	; 0x325
    b938:	64253a73 	strtvs	r3, [r5], #-2675	; 0xa73
    b93c:	6d656d3a 	stclvs	13, cr6, [r5, #-232]!	; 0xffffff18
    b940:	63656863 	cmnvs	r5, #6488064	; 0x630000
    b944:	61203a6b 	teqvs	r0, fp, ror #20
    b948:	74756f62 	ldrbtvc	r6, [r5], #-3938	; 0xf62
    b94c:	206f7420 	rsbcs	r7, pc, r0, lsr #8
    b950:	6e727574 	mrcvs	5, 3, r7, cr2, cr4, {3}
    b954:	0a4e4f20 	beq	139f5dc <__bss_end__+0x13933ec>
    b958:	00000000 	andeq	r0, r0, r0
    b95c:	253a7325 	ldrcs	r7, [sl, #-805]!	; 0x325
    b960:	64253a73 	strtvs	r3, [r5], #-2675	; 0xa73
    b964:	6d656d3a 	stclvs	13, cr6, [r5, #-232]!	; 0xffffff18
    b968:	63656863 	cmnvs	r5, #6488064	; 0x630000
    b96c:	4f203a6b 	svcmi	0x00203a6b
    b970:	00000a4e 	andeq	r0, r0, lr, asr #20
    b974:	253a7325 	ldrcs	r7, [sl, #-805]!	; 0x325
    b978:	64253a73 	strtvs	r3, [r5], #-2675	; 0xa73
    b97c:	6d656d3a 	stclvs	13, cr6, [r5, #-232]!	; 0xffffff18
    b980:	63656863 	cmnvs	r5, #6488064	; 0x630000
    b984:	4f203a6b 	svcmi	0x00203a6b
    b988:	000a4646 	andeq	r4, sl, r6, asr #12
    b98c:	615f7369 	cmpvs	pc, r9, ror #6
    b990:	6e67696c 	cdpvs	9, 6, cr6, cr7, cr12, {3}
    b994:	62286465 	eorvs	r6, r8, #1694498816	; 0x65000000
    b998:	2c657361 	stclcs	3, cr7, [r5], #-388	; 0xfffffe7c
    b99c:	4d656e4f 	stclmi	14, cr6, [r5, #-316]!	; 0xfffffec4
    b9a0:	00002942 	andeq	r2, r0, r2, asr #18

0000b9a4 <__FUNCTION__.4602>:
    b9a4:	6c756166 	ldfvse	f6, [r5], #-408	; 0xfffffe68
    b9a8:	78655f74 	stmdavc	r5!, {r2, r4, r5, r6, r8, r9, sl, fp, ip, lr}^
    b9ac:	74636570 	strbtvc	r6, [r3], #-1392	; 0x570
    b9b0:	00006465 	andeq	r6, r0, r5, ror #8

0000b9b4 <__FUNCTION__.4619>:
    b9b4:	61746164 	cmnvs	r4, r4, ror #2
    b9b8:	6f62615f 	svcvs	0x0062615f
    b9bc:	765f7472 			; <UNDEFINED> instruction: 0x765f7472
    b9c0:	6f746365 	svcvs	0x00746365
    b9c4:	00000072 	andeq	r0, r0, r2, ror r0

0000b9c8 <__FUNCTION__.4524>:
    b9c8:	5f736177 	svcpl	0x00736177
    b9cc:	75626564 	strbvc	r6, [r2, #-1380]!	; 0x564
    b9d0:	61645f67 	cmnvs	r4, r7, ror #30
    b9d4:	61666174 	smcvs	26132	; 0x6614
    b9d8:	00746c75 	rsbseq	r6, r4, r5, ror ip

0000b9dc <__FUNCTION__.4626>:
    b9dc:	65746e69 	ldrbvs	r6, [r4, #-3689]!	; 0xe69
    b9e0:	70757272 	rsbsvc	r7, r5, r2, ror r2
    b9e4:	65765f74 	ldrbvs	r5, [r6, #-3956]!	; 0xf74
    b9e8:	726f7463 	rsbvc	r7, pc, #1660944384	; 0x63000000
    b9ec:	00000000 	andeq	r0, r0, r0

0000b9f0 <__FUNCTION__.4631>:
    b9f0:	636d656d 	cmnvs	sp, #457179136	; 0x1b400000
    b9f4:	6b636568 	blvs	18e4f9c <__bss_end__+0x18d8dac>
    b9f8:	696e695f 	stmdbvs	lr!, {r0, r1, r2, r3, r4, r6, r8, fp, sp, lr}^
    b9fc:	00000074 	andeq	r0, r0, r4, ror r0

0000ba00 <__FUNCTION__.4636>:
    ba00:	636d656d 	cmnvs	sp, #457179136	; 0x1b400000
    ba04:	6b636568 	blvs	18e4fac <__bss_end__+0x18d8dbc>
    ba08:	006e6f5f 	rsbeq	r6, lr, pc, asr pc

0000ba0c <__FUNCTION__.4640>:
    ba0c:	636d656d 	cmnvs	sp, #457179136	; 0x1b400000
    ba10:	6b636568 	blvs	18e4fb8 <__bss_end__+0x18d8dc8>
    ba14:	66666f5f 	uqsaxvs	r6, r6, pc	; <UNPREDICTABLE>
    ba18:	00000000 	andeq	r0, r0, r0

0000ba1c <__FUNCTION__.4644>:
    ba1c:	636d656d 	cmnvs	sp, #457179136	; 0x1b400000
    ba20:	6b636568 	blvs	18e4fc8 <__bss_end__+0x18d8dd8>
    ba24:	70616d5f 	rsbvc	r6, r1, pc, asr sp
    ba28:	00000000 	andeq	r0, r0, r0

0000ba2c <__FUNCTION__.4648>:
    ba2c:	636d656d 	cmnvs	sp, #457179136	; 0x1b400000
    ba30:	6b636568 	blvs	18e4fd8 <__bss_end__+0x18d8de8>
    ba34:	6172745f 	cmnvs	r2, pc, asr r4
    ba38:	00006b63 	andeq	r6, r0, r3, ror #22

0000ba3c <__FUNCTION__.4469>:
    ba3c:	73746962 	cmnvc	r4, #1605632	; 0x188000
    ba40:	7465675f 	strbtvc	r6, [r5], #-1887	; 0x75f
    ba44:	00000000 	andeq	r0, r0, r0

0000ba48 <__FUNCTION__.4611>:
    ba48:	5f6d6f64 	svcpl	0x006d6f64
    ba4c:	6d726570 	cfldr64vs	mvdx6, [r2, #-448]!	; 0xfffffe40
    ba50:	7465735f 	strbtvc	r7, [r5], #-863	; 0x35f
    ba54:	00000000 	andeq	r0, r0, r0

0000ba58 <__FUNCTION__.4249>:
    ba58:	74696d65 	strbtvc	r6, [r9], #-3429	; 0xd65
    ba5c:	00000000 	andeq	r0, r0, r0

0000ba60 <__FUNCTION__.4197>:
    ba60:	5f697072 	svcpl	0x00697072
    ba64:	5f746573 	svcpl	0x00746573
    ba68:	7074756f 	rsbsvc	r7, r4, pc, ror #10
    ba6c:	00007475 	andeq	r7, r0, r5, ror r4

0000ba70 <__FUNCTION__.4272>:
    ba70:	705f6176 	subsvc	r6, pc, r6, ror r1	; <UNPREDICTABLE>
    ba74:	746e6972 	strbtvc	r6, [lr], #-2418	; 0x972
    ba78:	0000006b 	andeq	r0, r0, fp, rrx
    ba7c:	6362696c 	cmnvs	r2, #108, 18	; 0x1b0000
    ba80:	2d61762f 	stclcs	6, cr7, [r1, #-188]!	; 0xffffff44
    ba84:	6e697270 	mcrvs	2, 3, r7, cr9, cr0, {3}
    ba88:	632e6b74 	teqvs	lr, #116, 22	; 0x1d000
    ba8c:	00000000 	andeq	r0, r0, r0
    ba90:	33323130 	teqcc	r2, #48, 2
    ba94:	37363534 			; <UNDEFINED> instruction: 0x37363534
    ba98:	00003938 	andeq	r3, r0, r8, lsr r9
    ba9c:	33323130 	teqcc	r2, #48, 2
    baa0:	37363534 			; <UNDEFINED> instruction: 0x37363534
    baa4:	62613938 	rsbvs	r3, r1, #56, 18	; 0xe0000
    baa8:	66656463 	strbtvs	r6, [r5], -r3, ror #8
    baac:	00000000 	andeq	r0, r0, r0
    bab0:	00003130 	andeq	r3, r0, r0, lsr r1
    bab4:	63747570 	cmnvs	r4, #112, 10	; 0x1c000000
    bab8:	0070665f 	rsbseq	r6, r0, pc, asr r6
    babc:	74646977 	strbtvc	r6, [r4], #-2423	; 0x977
    bac0:	203c2068 	eorscs	r2, ip, r8, rrx
    bac4:	00003233 	andeq	r3, r0, r3, lsr r2
    bac8:	494e4150 	stmdbmi	lr, {r4, r6, r8, lr}^
    bacc:	73253a43 	teqvc	r5, #274432	; 0x43000
    bad0:	3a73253a 	bcc	1cd4fc0 <__bss_end__+0x1cc8dd0>
    bad4:	663a6425 	ldrtvs	r6, [sl], -r5, lsr #8
    bad8:	74616f6c 	strbtvc	r6, [r1], #-3948	; 0xf6c
    badc:	746f6e20 	strbtvc	r6, [pc], #-3616	; bae4 <__FUNCTION__.4272+0x74>
    bae0:	616e6520 	cmnvs	lr, r0, lsr #10
    bae4:	64656c62 	strbtvs	r6, [r5], #-3170	; 0xc62
    bae8:	0a212121 	beq	853f74 <__bss_end__+0x847d84>
    baec:	00000000 	andeq	r0, r0, r0
    baf0:	6e697270 	mcrvs	2, 3, r7, cr9, cr0, {3}
    baf4:	203a6b74 	eorscs	r6, sl, r4, ror fp
    baf8:	20746f6e 	rsbscs	r6, r4, lr, ror #30
    bafc:	646e6168 	strbtvs	r6, [lr], #-360	; 0x168
    bb00:	676e696c 	strbvs	r6, [lr, -ip, ror #18]!
    bb04:	65707320 	ldrbvs	r7, [r0, #-800]!	; 0x320
    bb08:	69666963 	stmdbvs	r6!, {r0, r1, r5, r6, r8, fp, sp, lr}^
    bb0c:	27207265 	strcs	r7, [r0, -r5, ror #4]!
    bb10:	20276325 	eorcs	r6, r7, r5, lsr #6
    bb14:	63736128 	cmnvs	r3, #40, 2
    bb18:	253d6969 	ldrcs	r6, [sp, #-2409]!	; 0x969
    bb1c:	000a2964 	andeq	r2, sl, r4, ror #18
    bb20:	494e4150 	stmdbmi	lr, {r4, r6, r8, lr}^
    bb24:	73253a43 	teqvc	r5, #274432	; 0x43000
    bb28:	3a73253a 	bcc	1cd5018 <__bss_end__+0x1cc8e28>
    bb2c:	703a6425 	eorsvc	r6, sl, r5, lsr #8
    bb30:	746e6972 	strbtvc	r6, [lr], #-2418	; 0x972
    bb34:	7265206b 	rsbvc	r2, r5, #107	; 0x6b
    bb38:	0a726f72 	beq	1ca7908 <__bss_end__+0x1c9b718>
    bb3c:	0000000a 	andeq	r0, r0, sl
    bb40:	454e4f44 	strbmi	r4, [lr, #-3908]	; 0xf44
    bb44:	0a212121 	beq	853fd0 <__bss_end__+0x847de0>
    bb48:	00000000 	andeq	r0, r0, r0

0000bb4c <__FUNCTION__.4220>:
    bb4c:	74736166 	ldrbtvc	r6, [r3], #-358	; 0x166
    bb50:	746e695f 	strbtvc	r6, [lr], #-2399	; 0x95f
    bb54:	75727265 	ldrbvc	r7, [r2, #-613]!	; 0x265
    bb58:	765f7470 			; <UNDEFINED> instruction: 0x765f7470
    bb5c:	6f746365 	svcvs	0x00746365
    bb60:	00000072 	andeq	r0, r0, r2, ror r0
    bb64:	494e4150 	stmdbmi	lr, {r4, r6, r8, lr}^
    bb68:	73253a43 	teqvc	r5, #274432	; 0x43000
    bb6c:	3a73253a 	bcc	1cd505c <__bss_end__+0x1cc8e6c>
    bb70:	453a6425 	ldrmi	r6, [sl, #-1061]!	; 0x425
    bb74:	524f5252 	subpl	r5, pc, #536870917	; 0x20000005
    bb78:	6e75203a 	mrcvs	0, 3, r2, cr5, cr10, {1}
    bb7c:	646e6168 	strbtvs	r6, [lr], #-360	; 0x168
    bb80:	2064656c 	rsbcs	r6, r4, ip, ror #10
    bb84:	65637865 	strbvs	r7, [r3, #-2149]!	; 0x865
    bb88:	6f697470 	svcvs	0x00697470
    bb8c:	253c206e 	ldrcs	r2, [ip, #-110]!	; 0x6e
    bb90:	61203e73 	teqvs	r0, r3, ror lr
    bb94:	43502074 	cmpmi	r0, #116	; 0x74
    bb98:	0a78253d 	beq	1e15094 <__bss_end__+0x1e08ea4>
    bb9c:	0000000a 	andeq	r0, r0, sl
    bba0:	66617473 			; <UNDEFINED> instruction: 0x66617473
    bba4:	72732d66 	rsbsvc	r2, r3, #6528	; 0x1980
    bba8:	65642f63 	strbvs	r2, [r4, #-3939]!	; 0xf63
    bbac:	6c756166 	ldfvse	f6, [r5], #-408	; 0xfffffe68
    bbb0:	61682d74 	smcvs	33492	; 0x82d4
    bbb4:	656c646e 	strbvs	r6, [ip, #-1134]!	; 0x46e
    bbb8:	61662d72 	smcvs	25298	; 0x62d2
    bbbc:	632e7473 	teqvs	lr, #1929379840	; 0x73000000
    bbc0:	00000000 	andeq	r0, r0, r0
    bbc4:	74736166 	ldrbtvc	r6, [r3], #-358	; 0x166
    bbc8:	00000000 	andeq	r0, r0, r0

0000bbcc <__FUNCTION__.4220>:
    bbcc:	66657270 			; <UNDEFINED> instruction: 0x66657270
    bbd0:	68637465 	stmdavs	r3!, {r0, r2, r5, r6, sl, ip, sp, lr}^
    bbd4:	6f62615f 	svcvs	0x0062615f
    bbd8:	765f7472 			; <UNDEFINED> instruction: 0x765f7472
    bbdc:	6f746365 	svcvs	0x00746365
    bbe0:	00000072 	andeq	r0, r0, r2, ror r0
    bbe4:	66617473 			; <UNDEFINED> instruction: 0x66617473
    bbe8:	72732d66 	rsbsvc	r2, r3, #6528	; 0x1980
    bbec:	65642f63 	strbvs	r2, [r4, #-3939]!	; 0xf63
    bbf0:	6c756166 	ldfvse	f6, [r5], #-408	; 0xfffffe68
    bbf4:	61682d74 	smcvs	33492	; 0x82d4
    bbf8:	656c646e 	strbvs	r6, [ip, #-1134]!	; 0x46e
    bbfc:	72702d72 	rsbsvc	r2, r0, #7296	; 0x1c80
    bc00:	74656665 	strbtvc	r6, [r5], #-1637	; 0x665
    bc04:	632e6863 	teqvs	lr, #6488064	; 0x630000
    bc08:	00000000 	andeq	r0, r0, r0
    bc0c:	66657270 			; <UNDEFINED> instruction: 0x66657270
    bc10:	68637465 	stmdavs	r3!, {r0, r2, r5, r6, sl, ip, sp, lr}^
    bc14:	6f626120 	svcvs	0x00626120
    bc18:	00007472 	andeq	r7, r0, r2, ror r4

0000bc1c <__FUNCTION__.4220>:
    bc1c:	65736572 	ldrbvs	r6, [r3, #-1394]!	; 0x572
    bc20:	65765f74 	ldrbvs	r5, [r6, #-3956]!	; 0xf74
    bc24:	726f7463 	rsbvc	r7, pc, #1660944384	; 0x63000000
    bc28:	00000000 	andeq	r0, r0, r0
    bc2c:	66617473 			; <UNDEFINED> instruction: 0x66617473
    bc30:	72732d66 	rsbsvc	r2, r3, #6528	; 0x1980
    bc34:	65642f63 	strbvs	r2, [r4, #-3939]!	; 0xf63
    bc38:	6c756166 	ldfvse	f6, [r5], #-408	; 0xfffffe68
    bc3c:	61682d74 	smcvs	33492	; 0x82d4
    bc40:	656c646e 	strbvs	r6, [ip, #-1134]!	; 0x46e
    bc44:	65722d72 	ldrbvs	r2, [r2, #-3442]!	; 0xd72
    bc48:	2e746573 	mrccs	5, 3, r6, cr4, cr3, {3}
    bc4c:	00000063 	andeq	r0, r0, r3, rrx
    bc50:	65736572 	ldrbvs	r6, [r3, #-1394]!	; 0x572
    bc54:	00000074 	andeq	r0, r0, r4, ror r0

0000bc58 <__FUNCTION__.4220>:
    bc58:	65646e75 	strbvs	r6, [r4, #-3701]!	; 0xe75
    bc5c:	656e6966 	strbvs	r6, [lr, #-2406]!	; 0x966
    bc60:	6e695f64 	cdpvs	15, 6, cr5, cr9, cr4, {3}
    bc64:	75727473 	ldrbvc	r7, [r2, #-1139]!	; 0x473
    bc68:	6f697463 	svcvs	0x00697463
    bc6c:	65765f6e 	ldrbvs	r5, [r6, #-3950]!	; 0xf6e
    bc70:	726f7463 	rsbvc	r7, pc, #1660944384	; 0x63000000
    bc74:	00000000 	andeq	r0, r0, r0
    bc78:	66617473 			; <UNDEFINED> instruction: 0x66617473
    bc7c:	72732d66 	rsbsvc	r2, r3, #6528	; 0x1980
    bc80:	65642f63 	strbvs	r2, [r4, #-3939]!	; 0xf63
    bc84:	6c756166 	ldfvse	f6, [r5], #-408	; 0xfffffe68
    bc88:	61682d74 	smcvs	33492	; 0x82d4
    bc8c:	656c646e 	strbvs	r6, [ip, #-1134]!	; 0x46e
    bc90:	6e752d72 	mrcvs	13, 3, r2, cr5, cr2, {3}
    bc94:	69666564 	stmdbvs	r6!, {r2, r5, r6, r8, sl, sp, lr}^
    bc98:	2d64656e 	cfstr64cs	mvdx6, [r4, #-440]!	; 0xfffffe48
    bc9c:	74736e69 	ldrbtvc	r6, [r3], #-3689	; 0xe69
    bca0:	0000632e 	andeq	r6, r0, lr, lsr #6
    bca4:	65646e75 	strbvs	r6, [r4, #-3701]!	; 0xe75
    bca8:	656e6966 	strbvs	r6, [lr, #-2406]!	; 0x966
    bcac:	6e692064 	cdpvs	0, 6, cr2, cr9, cr4, {3}
    bcb0:	00007473 	andeq	r7, r0, r3, ror r4

0000bcb4 <__FUNCTION__.4237>:
    bcb4:	6c616d6b 	stclvs	13, cr6, [r1], #-428	; 0xfffffe54
    bcb8:	5f636f6c 	svcpl	0x00636f6c
    bcbc:	74696e69 	strbtvc	r6, [r9], #-3689	; 0xe69
    bcc0:	7465735f 	strbtvc	r7, [r5], #-863	; 0x35f
    bcc4:	6174735f 	cmnvs	r4, pc, asr r3
    bcc8:	00007472 	andeq	r7, r0, r2, ror r4

0000bccc <__FUNCTION__.4241>:
    bccc:	6c616d6b 	stclvs	13, cr6, [r1], #-428	; 0xfffffe54
    bcd0:	00636f6c 	rsbeq	r6, r3, ip, ror #30

0000bcd4 <__FUNCTION__.4253>:
    bcd4:	6c616d6b 	stclvs	13, cr6, [r1], #-428	; 0xfffffe54
    bcd8:	5f636f6c 	svcpl	0x00636f6c
    bcdc:	67696c61 	strbvs	r6, [r9, -r1, ror #24]!
    bce0:	0064656e 	rsbeq	r6, r4, lr, ror #10
    bce4:	6c616d6b 	stclvs	13, cr6, [r1], #-428	; 0xfffffe54
    bce8:	2e636f6c 	cdpcs	15, 6, cr6, cr3, cr12, {3}
    bcec:	00000063 	andeq	r0, r0, r3, rrx
    bcf0:	494e4150 	stmdbmi	lr, {r4, r6, r8, lr}^
    bcf4:	73253a43 	teqvc	r5, #274432	; 0x43000
    bcf8:	3a73253a 	bcc	1cd51e8 <__bss_end__+0x1cc8ff8>
    bcfc:	613a6425 	teqvs	sl, r5, lsr #8
    bd00:	20726464 	rsbscs	r6, r2, r4, ror #8
    bd04:	6568203e 	strbvs	r2, [r8, #-62]!	; 0x3e
    bd08:	000a7061 	andeq	r7, sl, r1, rrx
    bd0c:	494e4150 	stmdbmi	lr, {r4, r6, r8, lr}^
    bd10:	73253a43 	teqvc	r5, #274432	; 0x43000
    bd14:	3a73253a 	bcc	1cd5204 <__bss_end__+0x1cc9014>
    bd18:	733a6425 	teqvc	sl, #620756992	; 0x25000000
    bd1c:	00000a7a 	andeq	r0, r0, sl, ror sl
    bd20:	4f525245 	svcmi	0x00525245
    bd24:	73253a52 	teqvc	r5, #335872	; 0x52000
    bd28:	3a73253a 	bcc	1cd5218 <__bss_end__+0x1cc9028>
    bd2c:	203a6425 	eorscs	r6, sl, r5, lsr #8
    bd30:	534c4146 	movtpl	r4, #49478	; 0xc146
    bd34:	283c2845 	ldmdacs	ip!, {r0, r2, r6, fp, sp}
    bd38:	6c612828 	stclvs	8, cr2, [r1], #-160	; 0xffffff60
    bd3c:	6d6e6769 	stclvs	7, cr6, [lr, #-420]!	; 0xfffffe5c
    bd40:	29746e65 	ldmdbcs	r4!, {r0, r2, r5, r6, r9, sl, fp, sp, lr}^
    bd44:	61282d26 	teqvs	r8, r6, lsr #26
    bd48:	6e67696c 	cdpvs	9, 6, cr6, cr7, cr12, {3}
    bd4c:	746e656d 	strbtvc	r6, [lr], #-1389	; 0x56d
    bd50:	3d202929 	stccc	9, cr2, [r0, #-164]!	; 0xffffff5c
    bd54:	6128203d 	teqvs	r8, sp, lsr r0
    bd58:	6e67696c 	cdpvs	9, 6, cr6, cr7, cr12, {3}
    bd5c:	746e656d 	strbtvc	r6, [lr], #-1389	; 0x56d
    bd60:	293e2929 	ldmdbcs	lr!, {r0, r3, r5, r8, fp, sp}
    bd64:	7361203a 	cmnvc	r1, #58	; 0x3a
    bd68:	696d7573 	stmdbvs	sp!, {r0, r1, r4, r5, r6, r8, sl, ip, sp, lr}^
    bd6c:	7020676e 	eorvc	r6, r0, lr, ror #14
    bd70:	7265776f 	rsbvc	r7, r5, #29097984	; 0x1bc0000
    bd74:	20666f20 	rsbcs	r6, r6, r0, lsr #30
    bd78:	0a6f7774 	beq	1be9b50 <__bss_end__+0x1bdd960>
    bd7c:	00000000 	andeq	r0, r0, r0
    bd80:	4f525245 	svcmi	0x00525245
    bd84:	73253a52 	teqvc	r5, #335872	; 0x52000
    bd88:	3a73253a 	bcc	1cd5278 <__bss_end__+0x1cc9088>
    bd8c:	203a6425 	eorscs	r6, sl, r5, lsr #8
    bd90:	534c4146 	movtpl	r4, #49478	; 0xc146
    bd94:	283c2845 	ldmdacs	ip!, {r0, r2, r6, fp, sp}
    bd98:	29682828 	stmdbcs	r8!, {r3, r5, fp, sp}^
    bd9c:	28202620 	stmdacs	r0!, {r5, r9, sl, sp}
    bda0:	70797428 	rsbsvc	r7, r9, r8, lsr #8
    bda4:	28666f65 	stmdacs	r6!, {r0, r2, r5, r6, r8, r9, sl, fp, sp, lr}^
    bda8:	28292968 	stmdacs	r9!, {r3, r5, r6, r8, fp, sp}
    bdac:	67696c61 	strbvs	r6, [r9, -r1, ror #24]!
    bdb0:	6e656d6e 	cdpvs	13, 6, cr6, cr5, cr14, {3}
    bdb4:	2d202974 	stccs	9, cr2, [r0, #-464]!	; 0xfffffe30
    bdb8:	29293120 	stmdbcs	r9!, {r5, r8, ip, sp}
    bdbc:	203d3d20 	eorscs	r3, sp, r0, lsr #26
    bdc0:	293e2930 	ldmdbcs	lr!, {r4, r5, r8, fp, sp}
    bdc4:	6d69203a 	stclvs	0, cr2, [r9, #-232]!	; 0xffffff18
    bdc8:	73736f70 	cmnvc	r3, #112, 30	; 0x1c0
    bdcc:	656c6269 	strbvs	r6, [ip, #-617]!	; 0x269
    bdd0:	0000000a 	andeq	r0, r0, sl

Disassembly of section .bss:

0000bdd4 <__bss_start__>:
    bdd4:	00000000 	andeq	r0, r0, r0

0000bdd8 <last_fault>:
	...

0000bde4 <mmu_resume_p>:
    bde4:	00000000 	andeq	r0, r0, r0

0000bde8 <pt>:
    bde8:	00000000 	andeq	r0, r0, r0

0000bdec <buf.4189>:
	...

Disassembly of section .ARM.attributes:

00000000 <.ARM.attributes>:
   0:	00002a41 	andeq	r2, r0, r1, asr #20
   4:	61656100 	cmnvs	r5, r0, lsl #2
   8:	01006962 	tsteq	r0, r2, ror #18
   c:	00000020 	andeq	r0, r0, r0, lsr #32
  10:	4b5a3605 	blmi	168d82c <__bss_end__+0x168163c>
  14:	08070600 	stmdaeq	r7, {r9, sl}
  18:	12010901 	andne	r0, r1, #16384	; 0x4000
  1c:	15011404 	strne	r1, [r1, #-1028]	; 0x404
  20:	18031701 	stmdane	r3, {r0, r8, r9, sl, ip}
  24:	22011a01 	andcs	r1, r1, #4096	; 0x1000
  28:	Address 0x0000000000000028 is out of bounds.


Disassembly of section .comment:

00000000 <.comment>:
   0:	3a434347 	bcc	10d0d24 <__bss_end__+0x10c4b34>
   4:	4e472820 	cdpmi	8, 4, cr2, cr7, cr0, {1}
   8:	34202955 	strtcc	r2, [r0], #-2389	; 0x955
   c:	332e382e 	teqcc	lr, #3014656	; 0x2e0000
  10:	43434700 	movtmi	r4, #14080	; 0x3700
  14:	3128203a 	teqcc	r8, sl, lsr r0
  18:	2e363a35 	mrccs	10, 1, r3, cr6, cr5, {1}
  1c:	2b312e33 	blcs	c4b8f0 <__bss_end__+0xc3f700>
  20:	326e7673 	rsbcc	r7, lr, #120586240	; 0x7300000
  24:	33303335 	teqcc	r0, #-738197504	; 0xd4000000
  28:	62312d39 	eorsvs	r2, r1, #3648	; 0xe40
  2c:	646c6975 	strbtvs	r6, [ip], #-2421	; 0x975
  30:	36202931 			; <UNDEFINED> instruction: 0x36202931
  34:	312e332e 	teqcc	lr, lr, lsr #6
  38:	31303220 	teqcc	r0, r0, lsr #4
  3c:	32363037 	eorscc	r3, r6, #55	; 0x37
  40:	Address 0x0000000000000040 is out of bounds.


Disassembly of section .debug_info:

00000000 <.debug_info>:
       0:	000003d1 	ldrdeq	r0, [r0], -r1
       4:	00000004 	andeq	r0, r0, r4
       8:	01040000 	mrseq	r0, (UNDEF: 4)
       c:	000000fe 	strdeq	r0, [r0], -lr
      10:	0000ea01 	andeq	lr, r0, r1, lsl #20
      14:	00007c00 	andeq	r7, r0, r0, lsl #24
      18:	00802000 	addeq	r2, r0, r0
      1c:	00019400 	andeq	r9, r1, r0, lsl #8
      20:	00000000 	andeq	r0, r0, r0
      24:	05040200 	streq	r0, [r4, #-512]	; 0x200
      28:	00746e69 	rsbseq	r6, r4, r9, ror #28
      2c:	83070403 	movwhi	r0, #29699	; 0x7403
      30:	03000001 	movweq	r0, #1
      34:	00140601 	andseq	r0, r4, r1, lsl #12
      38:	02030000 	andeq	r0, r3, #0
      3c:	0001b805 	andeq	fp, r1, r5, lsl #16
      40:	05040300 	streq	r0, [r4, #-768]	; 0x300
      44:	0000019e 	muleq	r0, lr, r1
      48:	99050803 	stmdbls	r5, {r0, r1, fp}
      4c:	03000001 	movweq	r0, #1
      50:	00120801 	andseq	r0, r2, r1, lsl #16
      54:	02030000 	andeq	r0, r3, #0
      58:	00002d07 	andeq	r2, r0, r7, lsl #26
      5c:	07040300 	streq	r0, [r4, -r0, lsl #6]
      60:	0000017e 	andeq	r0, r0, lr, ror r1
      64:	79070803 	stmdbvc	r7, {r0, r1, fp}
      68:	03000001 	movweq	r0, #1
      6c:	01900704 	orrseq	r0, r0, r4, lsl #14
      70:	01030000 	mrseq	r0, (UNDEF: 3)
      74:	00001b08 	andeq	r1, r0, r8, lsl #22
      78:	7f040400 	svcvc	0x00040400
      7c:	05000000 	streq	r0, [r0, #-0]
      80:	00000072 	andeq	r0, r0, r2, ror r0
      84:	00007206 	andeq	r7, r0, r6, lsl #4
      88:	00009400 	andeq	r9, r0, r0, lsl #8
      8c:	006b0700 	rsbeq	r0, fp, r0, lsl #14
      90:	00070000 	andeq	r0, r7, r0
      94:	00005b08 	andeq	r5, r0, r8, lsl #22
      98:	20080100 	andcs	r0, r8, r0, lsl #2
      9c:	80000080 	andhi	r0, r0, r0, lsl #1
      a0:	01000001 	tsteq	r0, r1
      a4:	0003179c 	muleq	r3, ip, r7
      a8:	00630900 	rsbeq	r0, r3, r0, lsl #18
      ac:	03170000 	tsteq	r7, #0
      b0:	03050000 	movweq	r0, #20480	; 0x5000
      b4:	0000ae98 	muleq	r0, r8, lr
      b8:	0100780a 	tsteq	r0, sl, lsl #16
      bc:	00002514 	andeq	r2, r0, r4, lsl r5
      c0:	6c910200 	lfmvs	f0, 4, [r1], {0}
      c4:	0030760b 	eorseq	r7, r0, fp, lsl #12
      c8:	00251401 	eoreq	r1, r5, r1, lsl #8
      cc:	00000000 	andeq	r0, r0, r0
      d0:	760b0000 	strvc	r0, [fp], -r0
      d4:	14010031 	strne	r0, [r1], #-49	; 0x31
      d8:	00000025 	andeq	r0, r0, r5, lsr #32
      dc:	0000001e 	andeq	r0, r0, lr, lsl r0
      e0:	00802c0c 	addeq	r2, r0, ip, lsl #24
      e4:	00036100 	andeq	r6, r3, r0, lsl #2
      e8:	80300c00 	eorshi	r0, r0, r0, lsl #24
      ec:	03680000 	cmneq	r8, #0
      f0:	340c0000 	strcc	r0, [ip], #-0
      f4:	6f000080 	svcvs	0x00000080
      f8:	0c000003 	stceq	0, cr0, [r0], {3}
      fc:	00008040 	andeq	r8, r0, r0, asr #32
     100:	0000037a 	andeq	r0, r0, sl, ror r3
     104:	00805c0d 	addeq	r5, r0, sp, lsl #24
     108:	00038100 	andeq	r8, r3, r0, lsl #2
     10c:	00013c00 	andeq	r3, r1, r0, lsl #24
     110:	53010e00 	movwpl	r0, #7680	; 0x1e00
     114:	010e4101 	tsteq	lr, r1, lsl #2
     118:	98030552 	stmdals	r3, {r1, r4, r6, r8, sl}
     11c:	0e0000ae 	cdpeq	0, 0, cr0, cr0, cr14, {5}
     120:	03055101 	movweq	r5, #20737	; 0x5101
     124:	0000adfc 	strdeq	sl, [r0], -ip
     128:	0550010e 	ldrbeq	r0, [r0, #-270]	; 0x10e
     12c:	00ade803 	adceq	lr, sp, r3, lsl #16
     130:	7d020e00 	stcvc	14, cr0, [r2, #-0]
     134:	10030500 	andne	r0, r3, r0, lsl #10
     138:	000000ae 	andeq	r0, r0, lr, lsr #1
     13c:	0080600c 	addeq	r6, r0, ip
     140:	00039700 	andeq	r9, r3, r0, lsl #14
     144:	80700d00 	rsbshi	r0, r0, r0, lsl #26
     148:	039e0000 	orrseq	r0, lr, #0
     14c:	01590000 	cmpeq	r9, r0
     150:	010e0000 	mrseq	r0, (UNDEF: 14)
     154:	64910250 	ldrvs	r0, [r1], #592	; 0x250
     158:	807c0c00 	rsbshi	r0, ip, r0, lsl #24
     15c:	037a0000 	cmneq	sl, #0
     160:	980d0000 	stmdals	sp, {}	; <UNPREDICTABLE>
     164:	81000080 	smlabbhi	r0, r0, r0, r0
     168:	9a000003 	bls	17c <__code_start__-0x7e84>
     16c:	0e000001 	cdpeq	0, 0, cr0, cr0, cr1, {0}
     170:	45015301 	strmi	r5, [r1, #-769]	; 0x301
     174:	0552010e 	ldrbeq	r0, [r2, #-270]	; 0x10e
     178:	00ae9803 	adceq	r9, lr, r3, lsl #16
     17c:	51010e00 	tstpl	r1, r0, lsl #28
     180:	adfc0305 	ldclge	3, cr0, [ip, #20]!
     184:	010e0000 	mrseq	r0, (UNDEF: 14)
     188:	e8030550 	stmda	r3, {r4, r6, r8, sl}
     18c:	0e0000ad 	cdpeq	0, 0, cr0, cr0, cr13, {5}
     190:	05007d02 	streq	r7, [r0, #-3330]	; 0xd02
     194:	00ae2403 	adceq	r2, lr, r3, lsl #8
     198:	9c0c0000 	stcls	0, cr0, [ip], {-0}
     19c:	97000080 	strls	r0, [r0, -r0, lsl #1]
     1a0:	0d000003 	stceq	0, cr0, [r0, #-12]
     1a4:	000080a4 	andeq	r8, r0, r4, lsr #1
     1a8:	0000039e 	muleq	r0, lr, r3
     1ac:	000001b7 			; <UNDEFINED> instruction: 0x000001b7
     1b0:	0250010e 	subseq	r0, r0, #-2147483645	; 0x80000003
     1b4:	0d006491 	cfstrseq	mvf6, [r0, #-580]	; 0xfffffdbc
     1b8:	000080b0 	strheq	r8, [r0], -r0
     1bc:	00000381 	andeq	r0, r0, r1, lsl #7
     1c0:	000001ce 	andeq	r0, r0, lr, asr #3
     1c4:	0550010e 	ldrbeq	r0, [r0, #-270]	; 0x10e
     1c8:	00ae3403 	adceq	r3, lr, r3, lsl #8
     1cc:	b80d0000 	stmdalt	sp, {}	; <UNPREDICTABLE>
     1d0:	81000080 	smlabbhi	r0, r0, r0, r0
     1d4:	e5000003 	str	r0, [r0, #-3]
     1d8:	0e000001 	cdpeq	0, 0, cr0, cr0, cr1, {0}
     1dc:	03055001 	movweq	r5, #20481	; 0x5001
     1e0:	0000ae3c 	andeq	sl, r0, ip, lsr lr
     1e4:	80cc0d00 	sbchi	r0, ip, r0, lsl #26
     1e8:	039e0000 	orrseq	r0, lr, #0
     1ec:	01f90000 	mvnseq	r0, r0
     1f0:	010e0000 	mrseq	r0, (UNDEF: 14)
     1f4:	64910250 	ldrvs	r0, [r1], #592	; 0x250
     1f8:	80d40c00 	sbcshi	r0, r4, r0, lsl #24
     1fc:	03bf0000 			; <UNDEFINED> instruction: 0x03bf0000
     200:	d80c0000 	stmdale	ip, {}	; <UNPREDICTABLE>
     204:	6f000080 	svcvs	0x00000080
     208:	0c000003 	stceq	0, cr0, [r0], {3}
     20c:	000080e4 	andeq	r8, r0, r4, ror #1
     210:	0000037a 	andeq	r0, r0, sl, ror r3
     214:	0081000d 	addeq	r0, r1, sp
     218:	00038100 	andeq	r8, r3, r0, lsl #2
     21c:	00024d00 	andeq	r4, r2, r0, lsl #26
     220:	53010e00 	movwpl	r0, #7680	; 0x1e00
     224:	0e210802 	cdpeq	8, 2, cr0, cr1, cr2, {0}
     228:	03055201 	movweq	r5, #20993	; 0x5201
     22c:	0000ae98 	muleq	r0, r8, lr
     230:	0551010e 	ldrbeq	r0, [r1, #-270]	; 0x10e
     234:	00adfc03 	adceq	pc, sp, r3, lsl #24
     238:	50010e00 	andpl	r0, r1, r0, lsl #28
     23c:	ade80305 	stclge	3, cr0, [r8, #20]!
     240:	020e0000 	andeq	r0, lr, #0
     244:	0305007d 	movweq	r0, #20605	; 0x507d
     248:	0000ae54 	andeq	sl, r0, r4, asr lr
     24c:	81040c00 	tsthi	r4, r0, lsl #24
     250:	03970000 	orrseq	r0, r7, #0
     254:	100c0000 	andne	r0, ip, r0
     258:	7a000081 	bvc	464 <__code_start__-0x7b9c>
     25c:	0d000003 	stceq	0, cr0, [r0, #-12]
     260:	0000812c 	andeq	r8, r0, ip, lsr #2
     264:	00000381 	andeq	r0, r0, r1, lsl #7
     268:	00000298 	muleq	r0, r8, r2
     26c:	0253010e 	subseq	r0, r3, #-2147483645	; 0x80000003
     270:	010e2408 	tsteq	lr, r8, lsl #8
     274:	98030552 	stmdals	r3, {r1, r4, r6, r8, sl}
     278:	0e0000ae 	cdpeq	0, 0, cr0, cr0, cr14, {5}
     27c:	03055101 	movweq	r5, #20737	; 0x5101
     280:	0000adfc 	strdeq	sl, [r0], -ip
     284:	0550010e 	ldrbeq	r0, [r0, #-270]	; 0x10e
     288:	00ade803 	adceq	lr, sp, r3, lsl #16
     28c:	7d020e00 	stcvc	14, cr0, [r2, #-0]
     290:	68030500 	stmdavs	r3, {r8, sl}
     294:	000000ae 	andeq	r0, r0, lr, lsr #1
     298:	0081300c 	addeq	r3, r1, ip
     29c:	00039700 	andeq	r9, r3, r0, lsl #14
     2a0:	813c0c00 	teqhi	ip, r0, lsl #24
     2a4:	037a0000 	cmneq	sl, #0
     2a8:	580d0000 	stmdapl	sp, {}	; <UNPREDICTABLE>
     2ac:	81000081 	smlabbhi	r0, r1, r0, r0
     2b0:	e3000003 	movw	r0, #3
     2b4:	0e000002 	cdpeq	0, 0, cr0, cr0, cr2, {0}
     2b8:	08025301 	stmdaeq	r2, {r0, r8, r9, ip, lr}
     2bc:	52010e25 	andpl	r0, r1, #592	; 0x250
     2c0:	ae980305 	cdpge	3, 9, cr0, cr8, cr5, {0}
     2c4:	010e0000 	mrseq	r0, (UNDEF: 14)
     2c8:	fc030551 	stc2	5, cr0, [r3], {81}	; 0x51
     2cc:	0e0000ad 	cdpeq	0, 0, cr0, cr0, cr13, {5}
     2d0:	03055001 	movweq	r5, #20481	; 0x5001
     2d4:	0000ade8 	andeq	sl, r0, r8, ror #27
     2d8:	007d020e 	rsbseq	r0, sp, lr, lsl #4
     2dc:	ae700305 	cdpge	3, 7, cr0, cr0, cr5, {0}
     2e0:	0c000000 	stceq	0, cr0, [r0], {-0}
     2e4:	0000815c 	andeq	r8, r0, ip, asr r1
     2e8:	00000397 	muleq	r0, r7, r3
     2ec:	0081640d 	addeq	r6, r1, sp, lsl #8
     2f0:	00038100 	andeq	r8, r3, r0, lsl #2
     2f4:	00030300 	andeq	r0, r3, r0, lsl #6
     2f8:	50010e00 	andpl	r0, r1, r0, lsl #28
     2fc:	ae340305 	cdpge	3, 3, cr0, cr4, cr5, {0}
     300:	0f000000 	svceq	0x00000000
     304:	0000816c 	andeq	r8, r0, ip, ror #2
     308:	00000381 	andeq	r0, r0, r1, lsl #7
     30c:	0550010e 	ldrbeq	r0, [r0, #-270]	; 0x10e
     310:	00ae7803 	adceq	r7, lr, r3, lsl #16
     314:	05000000 	streq	r0, [r0, #-0]
     318:	00000084 	andeq	r0, r0, r4, lsl #1
     31c:	00000008 	andeq	r0, r0, r8
     320:	a0290100 	eorge	r0, r9, r0, lsl #2
     324:	14000081 	strne	r0, [r0], #-129	; 0x81
     328:	01000000 	mrseq	r0, (UNDEF: 0)
     32c:	0003569c 	muleq	r3, ip, r6
     330:	81a80c00 			; <UNDEFINED> instruction: 0x81a80c00
     334:	03c60000 	biceq	r0, r6, #0
     338:	ac0c0000 	stcge	0, cr0, [ip], {-0}
     33c:	cd000081 	stcgt	0, cr0, [r0, #-516]	; 0xfffffdfc
     340:	0c000003 	stceq	0, cr0, [r0], {3}
     344:	000081b0 			; <UNDEFINED> instruction: 0x000081b0
     348:	00000094 	muleq	r0, r4, r0
     34c:	0081b40c 	addeq	fp, r1, ip, lsl #8
     350:	00039700 	andeq	r9, r3, r0, lsl #14
     354:	40100000 	andsmi	r0, r0, r0
     358:	05000000 	streq	r0, [r0, #-0]
     35c:	000025c2 	andeq	r2, r0, r2, asr #11
     360:	016b1100 	cmneq	fp, r0, lsl #2
     364:	09020000 	stmdbeq	r2, {}	; <UNPREDICTABLE>
     368:	00007011 	andeq	r7, r0, r1, lsl r0
     36c:	120c0200 	andne	r0, ip, #0, 4
     370:	000000db 	ldrdeq	r0, [r0], -fp
     374:	00256c06 	eoreq	r6, r5, r6, lsl #24
     378:	c2110000 	andsgt	r0, r1, #0
     37c:	03000001 	movweq	r0, #1
     380:	094a131e 	stmdbeq	sl, {r1, r2, r3, r4, r8, r9, ip}^
     384:	29030000 	stmdbcs	r3, {}	; <UNPREDICTABLE>
     388:	00000025 	andeq	r0, r0, r5, lsr #32
     38c:	00000397 	muleq	r0, r7, r3
     390:	00007914 	andeq	r7, r0, r4, lsl r9
     394:	11001500 	tstne	r0, r0, lsl #10
     398:	00000020 	andeq	r0, r0, r0, lsr #32
     39c:	d1136503 	tstle	r3, r3, lsl #10
     3a0:	03000001 	movweq	r0, #1
     3a4:	00002ca8 	andeq	r2, r0, r8, lsr #25
     3a8:	0003b300 	andeq	fp, r3, r0, lsl #6
     3ac:	03b31400 			; <UNDEFINED> instruction: 0x03b31400
     3b0:	04000000 	streq	r0, [r0], #-0
     3b4:	0003b904 	andeq	fp, r3, r4, lsl #18
     3b8:	03be0500 			; <UNDEFINED> instruction: 0x03be0500
     3bc:	11160000 	tstne	r6, r0
     3c0:	0000004e 	andeq	r0, r0, lr, asr #32
     3c4:	08110e02 	ldmdaeq	r1, {r1, r9, sl, fp}
     3c8:	03000000 	movweq	r0, #0
     3cc:	01a7113a 			; <UNDEFINED> instruction: 0x01a7113a
     3d0:	7d040000 	stcvc	0, cr0, [r4, #-0]
     3d4:	00154e00 	andseq	r4, r5, r0, lsl #28
     3d8:	1b000400 	blne	13e0 <__code_start__-0x6c20>
     3dc:	04000001 	streq	r0, [r0], #-1
     3e0:	0000fe01 	andeq	pc, r0, r1, lsl #28
     3e4:	02400100 	subeq	r0, r0, #0, 2
     3e8:	007c0000 	rsbseq	r0, ip, r0
     3ec:	82f80000 	rscshi	r0, r8, #0
     3f0:	08dc0000 	ldmeq	ip, {}^	; <UNPREDICTABLE>
     3f4:	010c0000 	mrseq	r0, (UNDEF: 12)
     3f8:	04020000 	streq	r0, [r2], #-0
     3fc:	746e6905 	strbtvc	r6, [lr], #-2309	; 0x905
     400:	020e0300 	andeq	r0, lr, #0, 6
     404:	d4030000 	strle	r0, [r3], #-0
     408:	00000037 	andeq	r0, r0, r7, lsr r0
     40c:	83070404 	movwhi	r0, #29700	; 0x7404
     410:	04000001 	streq	r0, [r0], #-1
     414:	00140601 	andseq	r0, r4, r1, lsl #12
     418:	02040000 	andeq	r0, r4, #0
     41c:	0001b805 	andeq	fp, r1, r5, lsl #16
     420:	05040400 	streq	r0, [r4, #-1024]	; 0x400
     424:	0000019e 	muleq	r0, lr, r1
     428:	99050804 	stmdbls	r5, {r2, fp}
     42c:	04000001 	streq	r0, [r0], #-1
     430:	00120801 	andseq	r0, r2, r1, lsl #16
     434:	02040000 	andeq	r0, r4, #0
     438:	00002d07 	andeq	r2, r0, r7, lsl #26
     43c:	04660300 	strbteq	r0, [r6], #-768	; 0x300
     440:	34040000 	strcc	r0, [r4], #-0
     444:	00000073 	andeq	r0, r0, r3, ror r0
     448:	7e070404 	cdpvc	4, 0, cr0, cr7, cr4, {0}
     44c:	04000001 	streq	r0, [r0], #-1
     450:	01790708 	cmneq	r9, r8, lsl #14
     454:	04040000 	streq	r0, [r4], #-0
     458:	00019007 	andeq	r9, r1, r7
     45c:	04040500 	streq	r0, [r4], #-1280	; 0x500
     460:	001b0801 	andseq	r0, fp, r1, lsl #16
     464:	04060000 	streq	r0, [r6], #-0
     468:	00000097 	muleq	r0, r7, r0
     46c:	00008a07 	andeq	r8, r0, r7, lsl #20
     470:	04880800 	streq	r0, [r8], #2048	; 0x800
     474:	05040000 	streq	r0, [r4, #-0]
     478:	0002572a 	andeq	r5, r2, sl, lsr #14
     47c:	044e0900 	strbeq	r0, [lr], #-2304	; 0x900
     480:	2c050000 	stccs	0, cr0, [r5], {-0}
     484:	00000037 	andeq	r0, r0, r7, lsr r0
     488:	001f0104 	andseq	r0, pc, r4, lsl #2
     48c:	00025b09 	andeq	r5, r2, r9, lsl #22
     490:	372d0500 	strcc	r0, [sp, -r0, lsl #10]!
     494:	04000000 	streq	r0, [r0], #-0
     498:	09001e01 	stmdbeq	r0, {r0, r9, sl, fp, ip}
     49c:	0000055a 	andeq	r0, r0, sl, asr r5
     4a0:	00372e05 	eorseq	r2, r7, r5, lsl #28
     4a4:	01040000 	mrseq	r0, (UNDEF: 4)
     4a8:	0d09001d 	stceq	0, cr0, [r9, #-116]	; 0xffffff8c
     4ac:	05000004 	streq	r0, [r0, #-4]
     4b0:	00003731 	andeq	r3, r0, r1, lsr r7
     4b4:	1c010400 	cfstrsne	mvf0, [r1], {-0}
     4b8:	04c50900 	strbeq	r0, [r5], #2304	; 0x900
     4bc:	32050000 	andcc	r0, r5, #0
     4c0:	00000037 	andeq	r0, r0, r7, lsr r0
     4c4:	00190304 	andseq	r0, r9, r4, lsl #6
     4c8:	00023709 	andeq	r3, r2, r9, lsl #14
     4cc:	37330500 	ldrcc	r0, [r3, -r0, lsl #10]!
     4d0:	04000000 	streq	r0, [r0], #-0
     4d4:	09001801 	stmdbeq	r0, {r0, fp, ip}
     4d8:	00000419 	andeq	r0, r0, r9, lsl r4
     4dc:	00373405 	eorseq	r3, r7, r5, lsl #8
     4e0:	01040000 	mrseq	r0, (UNDEF: 4)
     4e4:	d9090017 	stmdble	r9, {r0, r1, r2, r4}
     4e8:	05000003 	streq	r0, [r0, #-3]
     4ec:	00003735 	andeq	r3, r0, r5, lsr r7
     4f0:	16010400 	strne	r0, [r1], -r0, lsl #8
     4f4:	00460a00 	subeq	r0, r6, r0, lsl #20
     4f8:	00373605 	eorseq	r3, r7, r5, lsl #12
     4fc:	01040000 	mrseq	r0, (UNDEF: 4)
     500:	d7090015 	smladle	r9, r5, r0, r0
     504:	05000001 	streq	r0, [r0, #-1]
     508:	00003737 	andeq	r3, r0, r7, lsr r7
     50c:	14010400 	strne	r0, [r1], #-1024	; 0x400
     510:	024b0900 	subeq	r0, fp, #0, 18
     514:	38050000 	stmdacc	r5, {}	; <UNPREDICTABLE>
     518:	00000037 	andeq	r0, r0, r7, lsr r0
     51c:	00130104 	andseq	r0, r3, r4, lsl #2
     520:	00022709 	andeq	r2, r2, r9, lsl #14
     524:	37390500 	ldrcc	r0, [r9, -r0, lsl #10]!
     528:	04000000 	streq	r0, [r0], #-0
     52c:	09001201 	stmdbeq	r0, {r0, r9, ip}
     530:	00000323 	andeq	r0, r0, r3, lsr #6
     534:	00373a05 	eorseq	r3, r7, r5, lsl #20
     538:	01040000 	mrseq	r0, (UNDEF: 4)
     53c:	4c0a0011 	stcmi	0, cr0, [sl], {17}
     540:	3b050034 	blcc	140618 <__bss_end__+0x134428>
     544:	00000037 	andeq	r0, r0, r7, lsr r0
     548:	00100104 	andseq	r0, r0, r4, lsl #2
     54c:	74645f0a 	strbtvc	r5, [r4], #-3850	; 0xf0a
     550:	373c0500 	ldrcc	r0, [ip, -r0, lsl #10]!
     554:	04000000 	streq	r0, [r0], #-0
     558:	09000f01 	stmdbeq	r0, {r0, r8, r9, sl, fp}
     55c:	00000532 	andeq	r0, r0, r2, lsr r5
     560:	00373d05 	eorseq	r3, r7, r5, lsl #26
     564:	01040000 	mrseq	r0, (UNDEF: 4)
     568:	5f0a000e 	svcpl	0x000a000e
     56c:	05007469 	streq	r7, [r0, #-1129]	; 0x469
     570:	0000373e 	andeq	r3, r0, lr, lsr r7
     574:	0d010400 	cfstrseq	mvf0, [r1, #-0]
     578:	05380900 	ldreq	r0, [r8, #-2304]!	; 0x900
     57c:	3f050000 	svccc	0x00050000
     580:	00000037 	andeq	r0, r0, r7, lsr r0
     584:	000c0104 	andeq	r0, ip, r4, lsl #2
     588:	74735f0a 	ldrbtvc	r5, [r3], #-3850	; 0xf0a
     58c:	37400500 	strbcc	r0, [r0, -r0, lsl #10]
     590:	04000000 	streq	r0, [r0], #-0
     594:	0a000b01 	beq	31a0 <__code_start__-0x4e60>
     598:	05003146 	streq	r3, [r0, #-326]	; 0x146
     59c:	00003741 	andeq	r3, r0, r1, asr #14
     5a0:	0a010400 	beq	415a8 <__bss_end__+0x353b8>
     5a4:	045a0900 	ldrbeq	r0, [sl], #-2304	; 0x900
     5a8:	42050000 	andmi	r0, r5, #0
     5ac:	00000037 	andeq	r0, r0, r7, lsr r0
     5b0:	00090104 	andeq	r0, r9, r4, lsl #2
     5b4:	00046f09 	andeq	r6, r4, r9, lsl #30
     5b8:	37430500 	strbcc	r0, [r3, -r0, lsl #10]
     5bc:	04000000 	streq	r0, [r0], #-0
     5c0:	09000801 	stmdbeq	r0, {r0, fp}
     5c4:	000003cd 	andeq	r0, r0, sp, asr #7
     5c8:	00374505 	eorseq	r4, r7, r5, lsl #10
     5cc:	01040000 	mrseq	r0, (UNDEF: 4)
     5d0:	450a0007 	strmi	r0, [sl, #-7]
     5d4:	46050045 	strmi	r0, [r5], -r5, asr #32
     5d8:	00000037 	andeq	r0, r0, r7, lsr r0
     5dc:	00060104 	andeq	r0, r6, r4, lsl #2
     5e0:	00054f09 	andeq	r4, r5, r9, lsl #30
     5e4:	37470500 	strbcc	r0, [r7, -r0, lsl #10]
     5e8:	04000000 	streq	r0, [r0], #-0
     5ec:	09000501 	stmdbeq	r0, {r0, r8, sl}
     5f0:	0000036c 	andeq	r0, r0, ip, ror #6
     5f4:	00374805 	eorseq	r4, r7, r5, lsl #16
     5f8:	01040000 	mrseq	r0, (UNDEF: 4)
     5fc:	75090004 	strvc	r0, [r9, #-4]
     600:	05000004 	streq	r0, [r0, #-4]
     604:	00003749 	andeq	r3, r0, r9, asr #14
     608:	03010400 	movweq	r0, #5120	; 0x1400
     60c:	03eb0900 	mvneq	r0, #0, 18
     610:	4a050000 	bmi	140618 <__bss_end__+0x134428>
     614:	00000037 	andeq	r0, r0, r7, lsr r0
     618:	00020104 	andeq	r0, r2, r4, lsl #2
     61c:	00037709 	andeq	r7, r3, r9, lsl #14
     620:	374b0500 	strbcc	r0, [fp, -r0, lsl #10]
     624:	04000000 	streq	r0, [r0], #-0
     628:	00000002 	andeq	r0, r0, r2
     62c:	0004b403 	andeq	fp, r4, r3, lsl #8
     630:	9c4c0500 	cfstr64ls	mvdx0, [ip], {-0}
     634:	08000000 	stmdaeq	r0, {}	; <UNPREDICTABLE>
     638:	00000388 	andeq	r0, r0, r8, lsl #7
     63c:	38460604 	stmdacc	r6, {r2, r9, sl}^
     640:	0a000003 	beq	654 <__code_start__-0x79ac>
     644:	00676174 	rsbeq	r6, r7, r4, ror r1
     648:	00374806 	eorseq	r4, r7, r6, lsl #16
     64c:	02040000 	andeq	r0, r4, #0
     650:	420a001e 	andmi	r0, sl, #30
     654:	37490600 	strbcc	r0, [r9, -r0, lsl #12]
     658:	04000000 	streq	r0, [r0], #-0
     65c:	0a001d01 	beq	7a68 <__code_start__-0x598>
     660:	4a060043 	bmi	180774 <__bss_end__+0x174584>
     664:	00000037 	andeq	r0, r0, r7, lsr r0
     668:	001c0104 	andseq	r0, ip, r4, lsl #2
     66c:	004e580a 	subeq	r5, lr, sl, lsl #16
     670:	00374b06 	eorseq	r4, r7, r6, lsl #22
     674:	01040000 	mrseq	r0, (UNDEF: 4)
     678:	2b09001b 	blcs	2406ec <__bss_end__+0x2344fc>
     67c:	06000005 	streq	r0, [r0], -r5
     680:	0000374e 	andeq	r3, r0, lr, asr #14
     684:	17040400 	strne	r0, [r4, -r0, lsl #8]
     688:	4d490a00 	vstrmi	s1, [r9, #-0]
     68c:	4f060050 	svcmi	0x00060050
     690:	00000037 	andeq	r0, r0, r7, lsr r0
     694:	00160104 	andseq	r0, r6, r4, lsl #2
     698:	0050410a 	subseq	r4, r0, sl, lsl #2
     69c:	00375206 	eorseq	r5, r7, r6, lsl #4
     6a0:	02040000 	andeq	r0, r4, #0
     6a4:	540a0014 	strpl	r0, [sl], #-20
     6a8:	06005845 	streq	r5, [r0], -r5, asr #16
     6ac:	00003753 	andeq	r3, r0, r3, asr r7
     6b0:	11030400 	tstne	r3, r0, lsl #8
     6b4:	50410a00 	subpl	r0, r1, r0, lsl #20
     6b8:	54060058 	strpl	r0, [r6], #-88	; 0x58
     6bc:	00000037 	andeq	r0, r0, r7, lsr r0
     6c0:	00100104 	andseq	r0, r0, r4, lsl #2
     6c4:	0600530a 	streq	r5, [r0], -sl, lsl #6
     6c8:	00003755 	andeq	r3, r0, r5, asr r7
     6cc:	0f010400 	svceq	0x00010400
     6d0:	476e0a00 	strbmi	r0, [lr, -r0, lsl #20]!
     6d4:	37560600 	ldrbcc	r0, [r6, -r0, lsl #12]
     6d8:	04000000 	streq	r0, [r0], #-0
     6dc:	09000e01 	stmdbeq	r0, {r0, r9, sl, fp}
     6e0:	00000330 	andeq	r0, r0, r0, lsr r3
     6e4:	00375706 	eorseq	r5, r7, r6, lsl #14
     6e8:	01040000 	mrseq	r0, (UNDEF: 4)
     6ec:	3809000d 	stmdacc	r9, {r0, r2, r3}
     6f0:	06000005 	streq	r0, [r0], -r5
     6f4:	00003758 	andeq	r3, r0, r8, asr r7
     6f8:	0c010400 	cfstrseq	mvf0, [r1], {-0}
     6fc:	029c0900 	addseq	r0, ip, #0, 18
     700:	59060000 	stmdbpl	r6, {}	; <UNPREDICTABLE>
     704:	00000037 	andeq	r0, r0, r7, lsr r0
     708:	00000c04 	andeq	r0, r0, r4, lsl #24
     70c:	02fa0300 	rscseq	r0, sl, #0, 6
     710:	5a060000 	bpl	180718 <__bss_end__+0x174528>
     714:	00000262 	andeq	r0, r0, r2, ror #4
     718:	5e06010b 	adfpls	f0, f6, #3.0
     71c:	0000035e 	andeq	r0, r0, lr, asr r3
     720:	0003820c 	andeq	r8, r3, ip, lsl #4
     724:	1e0c0300 	cdpne	3, 0, cr0, cr12, cr0, {0}
     728:	00000005 	andeq	r0, r0, r5
     72c:	0002810c 	andeq	r8, r2, ip, lsl #2
     730:	0d000200 	sfmeq	f0, 4, [r0, #-0]
     734:	00000215 	andeq	r0, r0, r5, lsl r2
     738:	00377802 	eorseq	r7, r7, r2, lsl #16
     73c:	78030000 	stmdavc	r3, {}	; <UNPREDICTABLE>
     740:	0e000003 	cdpeq	0, 0, cr0, cr0, cr3, {0}
     744:	78020075 	stmdavc	r2, {r0, r2, r4, r5, r6}
     748:	00000037 	andeq	r0, r0, r7, lsr r0
     74c:	00db0f00 	sbcseq	r0, fp, r0, lsl #30
     750:	0b010000 	bleq	40758 <__bss_end__+0x34568>
     754:	00000025 	andeq	r0, r0, r5, lsr #32
     758:	000082f8 	strdeq	r8, [r0], -r8	; <UNPREDICTABLE>
     75c:	00000010 	andeq	r0, r0, r0, lsl r0
     760:	039b9c01 	orrseq	r9, fp, #256	; 0x100
     764:	00100000 	andseq	r0, r0, r0
     768:	40000083 	andmi	r0, r0, r3, lsl #1
     76c:	00000014 	andeq	r0, r0, r4, lsl r0
     770:	0005820f 	andeq	r8, r5, pc, lsl #4
     774:	920f0100 	andls	r0, pc, #0, 2
     778:	08000004 	stmdaeq	r0, {r2}
     77c:	90000083 	andls	r0, r0, r3, lsl #1
     780:	01000000 	mrseq	r0, (UNDEF: 0)
     784:	0004929c 	muleq	r4, ip, r2
     788:	74701100 	ldrbtvc	r1, [r0], #-256	; 0x100
     78c:	920f0100 	andls	r0, pc, #0, 2
     790:	3c000004 	stccc	0, cr0, [r0], {4}
     794:	11000000 	mrsne	r0, (UNDEF: 0)
     798:	01006176 	tsteq	r0, r6, ror r1
     79c:	0000370f 	andeq	r3, r0, pc, lsl #14
     7a0:	00008f00 	andeq	r8, r0, r0, lsl #30
     7a4:	00631200 	rsbeq	r1, r3, r0, lsl #4
     7a8:	04a80000 	strteq	r0, [r8], #0
     7ac:	03050000 	movweq	r0, #20480	; 0x5000
     7b0:	0000aea4 	andeq	sl, r0, r4, lsr #29
     7b4:	00048213 	andeq	r8, r4, r3, lsl r2
     7b8:	37110100 	ldrcc	r0, [r1, -r0, lsl #2]
     7bc:	c9000000 	stmdbgt	r0, {}	; <UNPREDICTABLE>
     7c0:	14000000 	strne	r0, [r0], #-0
     7c4:	00657470 	rsbeq	r7, r5, r0, ror r4
     7c8:	04921201 	ldreq	r1, [r2], #513	; 0x201
     7cc:	00f70000 	rscseq	r0, r7, r0
     7d0:	1c100000 	ldcne	0, cr0, [r0], {-0}
     7d4:	4b000083 	blmi	9e8 <__code_start__-0x7618>
     7d8:	15000014 	strne	r0, [r0, #-20]
     7dc:	00008338 	andeq	r8, r0, r8, lsr r3
     7e0:	00001452 	andeq	r1, r0, r2, asr r4
     7e4:	0000043e 	andeq	r0, r0, lr, lsr r4
     7e8:	01530116 	cmpeq	r3, r6, lsl r1
     7ec:	52011640 	andpl	r1, r1, #64, 12	; 0x4000000
     7f0:	aea40305 	cdpge	3, 10, cr0, cr4, cr5, {0}
     7f4:	01160000 	tsteq	r6, r0
     7f8:	94030551 	strls	r0, [r3], #-1361	; 0x551
     7fc:	160000af 	strne	r0, [r0], -pc, lsr #1
     800:	03055001 	movweq	r5, #20481	; 0x5001
     804:	0000ade8 	andeq	sl, r0, r8, ror #27
     808:	007d0216 	rsbseq	r0, sp, r6, lsl r2
     80c:	af9c0305 	svcge	0x009c0305
     810:	10000000 	andne	r0, r0, r0
     814:	0000833c 	andeq	r8, r0, ip, lsr r3
     818:	00001468 	andeq	r1, r0, r8, ror #8
     81c:	00835410 	addeq	r5, r3, r0, lsl r4
     820:	00144b00 	andseq	r4, r4, r0, lsl #22
     824:	83701500 	cmnhi	r0, #0, 10
     828:	14520000 	ldrbne	r0, [r2], #-0
     82c:	04880000 	streq	r0, [r8], #0
     830:	01160000 	tsteq	r6, r0
     834:	16430153 			; <UNDEFINED> instruction: 0x16430153
     838:	03055201 	movweq	r5, #20993	; 0x5201
     83c:	0000aea4 	andeq	sl, r0, r4, lsr #29
     840:	05510116 	ldrbeq	r0, [r1, #-278]	; 0x116
     844:	00af9403 	adceq	r9, pc, r3, lsl #8
     848:	50011600 	andpl	r1, r1, r0, lsl #12
     84c:	afb00305 	svcge	0x00b00305
     850:	02160000 	andseq	r0, r6, #0
     854:	0305007d 	movweq	r0, #20605	; 0x507d
     858:	0000afe0 	andeq	sl, r0, r0, ror #31
     85c:	83741000 	cmnhi	r4, #0
     860:	14680000 	strbtne	r0, [r8], #-0
     864:	06000000 	streq	r0, [r0], -r0
     868:	00033804 	andeq	r3, r3, r4, lsl #16
     86c:	008a1700 	addeq	r1, sl, r0, lsl #14
     870:	04a80000 	strteq	r0, [r8], #0
     874:	81180000 	tsthi	r8, r0
     878:	12000000 	andne	r0, r0, #0
     87c:	04980700 	ldreq	r0, [r8], #1792	; 0x700
     880:	20190000 	andscs	r0, r9, r0
     884:	01000004 	tsteq	r0, r4
     888:	00839818 	addeq	r9, r3, r8, lsl r8
     88c:	00009800 	andeq	r9, r0, r0, lsl #16
     890:	be9c0100 	fmllte	f0, f4, f0
     894:	11000005 	tstne	r0, r5
     898:	01007470 	tsteq	r0, r0, ror r4
     89c:	00049218 	andeq	r9, r4, r8, lsl r2
     8a0:	00012b00 	andeq	r2, r1, r0, lsl #22
     8a4:	61761100 	cmnvs	r6, r0, lsl #2
     8a8:	37180100 	ldrcc	r0, [r8, -r0, lsl #2]
     8ac:	6d000000 	stcvs	0, cr0, [r0, #-0]
     8b0:	1a000001 	bne	8bc <__code_start__-0x7744>
     8b4:	00000246 	andeq	r0, r0, r6, asr #4
     8b8:	00371801 	eorseq	r1, r7, r1, lsl #16
     8bc:	018e0000 	orreq	r0, lr, r0
     8c0:	301a0000 	andscc	r0, sl, r0
     8c4:	01000004 	tsteq	r0, r4
     8c8:	00003718 	andeq	r3, r0, r8, lsl r7
     8cc:	0001d000 	andeq	sp, r1, r0
     8d0:	00631200 	rsbeq	r1, r3, r0, lsl #4
     8d4:	05ce0000 	strbeq	r0, [lr]
     8d8:	03050000 	movweq	r0, #20480	; 0x5000
     8dc:	0000aeb8 			; <UNDEFINED> instruction: 0x0000aeb8
     8e0:	00035e1b 	andeq	r5, r3, fp, lsl lr
     8e4:	0083a800 	addeq	sl, r3, r0, lsl #16
     8e8:	00000800 	andeq	r0, r0, r0, lsl #16
     8ec:	28190100 	ldmdacs	r9, {r8}
     8f0:	1c000005 	stcne	0, cr0, [r0], {5}
     8f4:	0000036e 	andeq	r0, r0, lr, ror #6
     8f8:	0000020a 	andeq	r0, r0, sl, lsl #4
     8fc:	00001d00 	andeq	r1, r0, r0, lsl #26
     900:	056a0000 	strbeq	r0, [sl, #-0]!
     904:	69140000 	ldmdbvs	r4, {}	; <UNPREDICTABLE>
     908:	251b0100 	ldrcs	r0, [fp, #-256]	; 0x100
     90c:	2b000000 	blcs	914 <__code_start__-0x76ec>
     910:	1e000002 	cdpne	0, 0, cr0, cr0, cr2, {0}
     914:	00000018 	andeq	r0, r0, r8, lsl r0
     918:	65747014 	ldrbvs	r7, [r4, #-20]!
     91c:	921f0100 	andsls	r0, pc, #0, 2
     920:	49000004 	stmdbmi	r0, {r2}
     924:	1f000002 	svcne	0x00000002
     928:	000083e8 	andeq	r8, r0, r8, ror #7
     92c:	0000039b 	muleq	r0, fp, r3
     930:	02510116 	subseq	r0, r1, #-2147483643	; 0x80000005
     934:	01160077 	tsteq	r6, r7, ror r0
     938:	00780250 	rsbseq	r0, r8, r0, asr r2
     93c:	10000000 	andne	r0, r0, r0
     940:	000083bc 			; <UNDEFINED> instruction: 0x000083bc
     944:	0000144b 	andeq	r1, r0, fp, asr #8
     948:	0083d815 	addeq	sp, r3, r5, lsl r8
     94c:	00145200 	andseq	r5, r4, r0, lsl #4
     950:	0005ab00 	andeq	sl, r5, r0, lsl #22
     954:	53011600 	movwpl	r1, #5632	; 0x1600
     958:	01164a01 	tsteq	r6, r1, lsl #20
     95c:	b8030552 	stmdalt	r3, {r1, r4, r6, r8, sl}
     960:	160000ae 	strne	r0, [r0], -lr, lsr #1
     964:	03055101 	movweq	r5, #20737	; 0x5101
     968:	0000af94 	muleq	r0, r4, pc	; <UNPREDICTABLE>
     96c:	05500116 	ldrbeq	r0, [r0, #-278]	; 0x116
     970:	00afec03 	adceq	lr, pc, r3, lsl #24
     974:	7d021600 	stcvc	6, cr1, [r2, #-0]
     978:	20030500 	andcs	r0, r3, r0, lsl #10
     97c:	000000b0 	strheq	r0, [r0], -r0	; <UNPREDICTABLE>
     980:	0083dc10 	addeq	sp, r3, r0, lsl ip
     984:	00146800 	andseq	r6, r4, r0, lsl #16
     988:	84181000 	ldrhi	r1, [r8], #-0
     98c:	146f0000 	strbtne	r0, [pc], #-0	; 994 <__code_start__-0x766c>
     990:	17000000 	strne	r0, [r0, -r0]
     994:	0000008a 	andeq	r0, r0, sl, lsl #1
     998:	000005ce 	andeq	r0, r0, lr, asr #11
     99c:	00008118 	andeq	r8, r0, r8, lsl r1
     9a0:	07001400 	streq	r1, [r0, -r0, lsl #8]
     9a4:	000005be 			; <UNDEFINED> instruction: 0x000005be
     9a8:	0001f820 	andeq	pc, r1, r0, lsr #16
     9ac:	30260100 	eorcc	r0, r6, r0, lsl #2
     9b0:	10000084 	andne	r0, r0, r4, lsl #1
     9b4:	01000000 	mrseq	r0, (UNDEF: 0)
     9b8:	0006389c 	muleq	r6, ip, r8
     9bc:	74701100 	ldrbtvc	r1, [r0], #-256	; 0x100
     9c0:	92260100 	eorls	r0, r6, #0, 2
     9c4:	5c000004 	stcpl	0, cr0, [r0], {4}
     9c8:	11000002 	tstne	r0, r2
     9cc:	01006176 	tsteq	r0, r6, ror r1
     9d0:	00003726 	andeq	r3, r0, r6, lsr #14
     9d4:	00027d00 	andeq	r7, r2, r0, lsl #26
     9d8:	02461a00 	subeq	r1, r6, #0, 20
     9dc:	26010000 	strcs	r0, [r1], -r0
     9e0:	00000037 	andeq	r0, r0, r7, lsr r0
     9e4:	0000029e 	muleq	r0, lr, r2
     9e8:	00843c1f 	addeq	r3, r4, pc, lsl ip
     9ec:	0004ad00 	andeq	sl, r4, r0, lsl #26
     9f0:	53011600 	movwpl	r1, #5632	; 0x1600
     9f4:	01163201 	tsteq	r6, r1, lsl #4
     9f8:	01f30352 	mvnseq	r0, r2, asr r3
     9fc:	51011652 	tstpl	r1, r2, asr r6
     a00:	5101f303 	tstpl	r1, r3, lsl #6
     a04:	03500116 	cmpeq	r0, #-2147483643	; 0x80000005
     a08:	005001f3 	ldrsheq	r0, [r0], #-19	; 0xffffffed
     a0c:	03482000 	movteq	r2, #32768	; 0x8000
     a10:	29010000 	stmdbcs	r1, {}	; <UNPREDICTABLE>
     a14:	00008440 	andeq	r8, r0, r0, asr #8
     a18:	00000010 	andeq	r0, r0, r0, lsl r0
     a1c:	069d9c01 	ldreq	r9, [sp], r1, lsl #24
     a20:	70110000 	andsvc	r0, r1, r0
     a24:	29010074 	stmdbcs	r1, {r2, r4, r5, r6}
     a28:	00000492 	muleq	r0, r2, r4
     a2c:	000002bf 			; <UNDEFINED> instruction: 0x000002bf
     a30:	00617611 	rsbeq	r7, r1, r1, lsl r6
     a34:	00372901 	eorseq	r2, r7, r1, lsl #18
     a38:	02e00000 	rsceq	r0, r0, #0
     a3c:	461a0000 	ldrmi	r0, [sl], -r0
     a40:	01000002 	tsteq	r0, r2
     a44:	00003729 	andeq	r3, r0, r9, lsr #14
     a48:	00030100 	andeq	r0, r3, r0, lsl #2
     a4c:	844c1f00 	strbhi	r1, [ip], #-3840	; 0xf00
     a50:	04ad0000 	strteq	r0, [sp], #0
     a54:	01160000 	tsteq	r6, r0
     a58:	16330153 			; <UNDEFINED> instruction: 0x16330153
     a5c:	f3035201 	vhsub.u8	d5, d3, d1
     a60:	01165201 	tsteq	r6, r1, lsl #4
     a64:	01f30351 	mvnseq	r0, r1, asr r3
     a68:	50011651 	andpl	r1, r1, r1, asr r6
     a6c:	5001f303 	andpl	pc, r1, r3, lsl #6
     a70:	9b200000 	blls	800a78 <__bss_end__+0x7f4888>
     a74:	01000005 	tsteq	r0, r5
     a78:	0084502c 	addeq	r5, r4, ip, lsr #32
     a7c:	00001000 	andeq	r1, r0, r0
     a80:	029c0100 	addseq	r0, ip, #0, 2
     a84:	11000007 	tstne	r0, r7
     a88:	01007470 	tsteq	r0, r0, ror r4
     a8c:	0004922c 	andeq	r9, r4, ip, lsr #4
     a90:	00032200 	andeq	r2, r3, r0, lsl #4
     a94:	61761100 	cmnvs	r6, r0, lsl #2
     a98:	372c0100 	strcc	r0, [ip, -r0, lsl #2]!
     a9c:	43000000 	movwmi	r0, #0
     aa0:	1a000003 	bne	ab4 <__code_start__-0x754c>
     aa4:	00000246 	andeq	r0, r0, r6, asr #4
     aa8:	00372c01 	eorseq	r2, r7, r1, lsl #24
     aac:	03640000 	cmneq	r4, #0
     ab0:	5c1f0000 	ldcpl	0, cr0, [pc], {-0}
     ab4:	ad000084 	stcge	0, cr0, [r0, #-528]	; 0xfffffdf0
     ab8:	16000004 	strne	r0, [r0], -r4
     abc:	30015301 	andcc	r5, r1, r1, lsl #6
     ac0:	03520116 	cmpeq	r2, #-2147483643	; 0x80000005
     ac4:	165201f3 			; <UNDEFINED> instruction: 0x165201f3
     ac8:	f3035101 	vrhadd.u8	d5, d3, d1
     acc:	01165101 	tsteq	r6, r1, lsl #2
     ad0:	01f30350 	mvnseq	r0, r0, asr r3
     ad4:	19000050 	stmdbne	r0, {r4, r6}
     ad8:	000004f7 	strdeq	r0, [r0], -r7
     adc:	84603101 	strbthi	r3, [r0], #-257	; 0x101
     ae0:	00980000 	addseq	r0, r8, r0
     ae4:	9c010000 	stcls	0, cr0, [r1], {-0}
     ae8:	000007d9 	ldrdeq	r0, [r0], -r9
     aec:	01006611 	tsteq	r0, r1, lsl r6
     af0:	00049231 	andeq	r9, r4, r1, lsr r2
     af4:	00038500 	andeq	r8, r3, r0, lsl #10
     af8:	02a51a00 	adceq	r1, r5, #0, 20
     afc:	31010000 	mrscc	r0, (UNDEF: 1)
     b00:	00000037 	andeq	r0, r0, r7, lsr r0
     b04:	000003ca 	andeq	r0, r0, sl, asr #7
     b08:	00006312 	andeq	r6, r0, r2, lsl r3
     b0c:	0007e900 	andeq	lr, r7, r0, lsl #18
     b10:	e0030500 	and	r0, r3, r0, lsl #10
     b14:	100000ae 	andne	r0, r0, lr, lsr #1
     b18:	00008474 	andeq	r8, r0, r4, ror r4
     b1c:	0000144b 	andeq	r1, r0, fp, asr #8
     b20:	00849015 	addeq	r9, r4, r5, lsl r0
     b24:	00145200 	andseq	r5, r4, r0, lsl #4
     b28:	00078400 	andeq	r8, r7, r0, lsl #8
     b2c:	53011600 	movwpl	r1, #5632	; 0x1600
     b30:	16320802 	ldrtne	r0, [r2], -r2, lsl #16
     b34:	03055201 	movweq	r5, #20993	; 0x5201
     b38:	0000aee0 	andeq	sl, r0, r0, ror #29
     b3c:	05510116 	ldrbeq	r0, [r1, #-278]	; 0x116
     b40:	00af9403 	adceq	r9, pc, r3, lsl #8
     b44:	50011600 	andpl	r1, r1, r0, lsl #12
     b48:	b0300305 	eorslt	r0, r0, r5, lsl #6
     b4c:	02160000 	andseq	r0, r6, #0
     b50:	0305007d 	movweq	r0, #20605	; 0x507d
     b54:	0000b064 	andeq	fp, r0, r4, rrx
     b58:	84941000 	ldrhi	r1, [r4], #0
     b5c:	14680000 	strbtne	r0, [r8], #-0
     b60:	b8100000 	ldmdalt	r0, {}	; <UNPREDICTABLE>
     b64:	4b000084 	blmi	d7c <__code_start__-0x7284>
     b68:	15000014 	strne	r0, [r0, #-20]
     b6c:	000084d4 	ldrdeq	r8, [r0], -r4
     b70:	00001452 	andeq	r1, r0, r2, asr r4
     b74:	000007cf 	andeq	r0, r0, pc, asr #15
     b78:	02530116 	subseq	r0, r3, #-2147483643	; 0x80000005
     b7c:	01163708 	tsteq	r6, r8, lsl #14
     b80:	e0030552 	and	r0, r3, r2, asr r5
     b84:	160000ae 	strne	r0, [r0], -lr, lsr #1
     b88:	03055101 	movweq	r5, #20737	; 0x5101
     b8c:	0000af94 	muleq	r0, r4, pc	; <UNPREDICTABLE>
     b90:	05500116 	ldrbeq	r0, [r0, #-278]	; 0x116
     b94:	00ade803 	adceq	lr, sp, r3, lsl #16
     b98:	7d021600 	stcvc	6, cr1, [r2, #-0]
     b9c:	90030500 	andls	r0, r3, r0, lsl #10
     ba0:	000000b0 	strheq	r0, [r0], -r0	; <UNPREDICTABLE>
     ba4:	0084d810 	addeq	sp, r4, r0, lsl r8
     ba8:	00146800 	andseq	r6, r4, r0, lsl #16
     bac:	8a170000 	bhi	5c0bb4 <__bss_end__+0x5b49c4>
     bb0:	e9000000 	stmdb	r0, {}	; <UNPREDICTABLE>
     bb4:	18000007 	stmdane	r0, {r0, r1, r2}
     bb8:	00000081 	andeq	r0, r0, r1, lsl #1
     bbc:	d9070011 	stmdble	r7, {r0, r4}
     bc0:	0f000007 	svceq	0x00000007
     bc4:	0000039f 	muleq	r0, pc, r3	; <UNPREDICTABLE>
     bc8:	04924101 	ldreq	r4, [r2], #257	; 0x101
     bcc:	84f80000 	ldrbthi	r0, [r8], #0
     bd0:	01940000 	orrseq	r0, r4, r0
     bd4:	9c010000 	stcls	0, cr0, [r1], {-0}
     bd8:	00000a0c 	andeq	r0, r0, ip, lsl #20
     bdc:	00747011 	rsbseq	r7, r4, r1, lsl r0
     be0:	04924101 	ldreq	r4, [r2], #257	; 0x101
     be4:	040f0000 	streq	r0, [pc], #-0	; bec <__code_start__-0x7414>
     be8:	76110000 	ldrvc	r0, [r1], -r0
     bec:	41010061 	tstmi	r1, r1, rrx
     bf0:	00000068 	andeq	r0, r0, r8, rrx
     bf4:	00000493 	muleq	r0, r3, r4
     bf8:	00617011 	rsbeq	r7, r1, r1, lsl r0
     bfc:	00684101 	rsbeq	r4, r8, r1, lsl #2
     c00:	05180000 	ldreq	r0, [r8, #-0]
     c04:	64110000 	ldrvs	r0, [r1], #-0
     c08:	01006d6f 	tsteq	r0, pc, ror #26
     c0c:	00006841 	andeq	r6, r0, r1, asr #16
     c10:	00059c00 	andeq	r9, r5, r0, lsl #24
     c14:	00631200 	rsbeq	r1, r3, r0, lsl #4
     c18:	0a1c0000 	beq	700c20 <__bss_end__+0x6f4a30>
     c1c:	03050000 	movweq	r0, #20480	; 0x5000
     c20:	0000aed0 	ldrdeq	sl, [r0], -r0
     c24:	00048213 	andeq	r8, r4, r3, lsl r2
     c28:	37460100 	strbcc	r0, [r6, -r0, lsl #2]
     c2c:	0a000000 	beq	c34 <__code_start__-0x73cc>
     c30:	14000006 	strne	r0, [r0], #-6
     c34:	00657470 	rsbeq	r7, r5, r0, ror r4
     c38:	04924701 	ldreq	r4, [r2], #1793	; 0x701
     c3c:	062d0000 	strteq	r0, [sp], -r0
     c40:	18100000 	ldmdane	r0, {}	; <UNPREDICTABLE>
     c44:	4b000085 	blmi	e60 <__code_start__-0x71a0>
     c48:	15000014 	strne	r0, [r0, #-20]
     c4c:	00008534 	andeq	r8, r0, r4, lsr r5
     c50:	00001452 	andeq	r1, r0, r2, asr r4
     c54:	000008af 	andeq	r0, r0, pc, lsr #17
     c58:	02530116 	subseq	r0, r3, #-2147483643	; 0x80000005
     c5c:	01164208 	tsteq	r6, r8, lsl #4
     c60:	d0030552 	andle	r0, r3, r2, asr r5
     c64:	160000ae 	strne	r0, [r0], -lr, lsr #1
     c68:	03055101 	movweq	r5, #20737	; 0x5101
     c6c:	0000af94 	muleq	r0, r4, pc	; <UNPREDICTABLE>
     c70:	05500116 	ldrbeq	r0, [r0, #-278]	; 0x116
     c74:	00ade803 	adceq	lr, sp, r3, lsl #16
     c78:	7d021600 	stcvc	6, cr1, [r2, #-0]
     c7c:	b4030500 	strlt	r0, [r3], #-1280	; 0x500
     c80:	000000b0 	strheq	r0, [r0], -r0	; <UNPREDICTABLE>
     c84:	00853810 	addeq	r3, r5, r0, lsl r8
     c88:	00146800 	andseq	r6, r4, r0, lsl #16
     c8c:	85441000 	strbhi	r1, [r4, #-0]
     c90:	144b0000 	strbne	r0, [fp], #-0
     c94:	60150000 	andsvs	r0, r5, r0
     c98:	52000085 	andpl	r0, r0, #133	; 0x85
     c9c:	fa000014 	blx	cf4 <__code_start__-0x730c>
     ca0:	16000008 	strne	r0, [r0], -r8
     ca4:	08025301 	stmdaeq	r2, {r0, r8, r9, ip, lr}
     ca8:	52011643 	andpl	r1, r1, #70254592	; 0x4300000
     cac:	aed00305 	cdpge	3, 13, cr0, cr0, cr5, {0}
     cb0:	01160000 	tsteq	r6, r0
     cb4:	94030551 	strls	r0, [r3], #-1361	; 0x551
     cb8:	160000af 	strne	r0, [r0], -pc, lsr #1
     cbc:	03055001 	movweq	r5, #20481	; 0x5001
     cc0:	0000ade8 	andeq	sl, r0, r8, ror #27
     cc4:	007d0216 	rsbseq	r0, sp, r6, lsl r2
     cc8:	af9c0305 	svcge	0x009c0305
     ccc:	10000000 	andne	r0, r0, r0
     cd0:	00008564 	andeq	r8, r0, r4, ror #10
     cd4:	00001468 	andeq	r1, r0, r8, ror #8
     cd8:	00857010 	addeq	r7, r5, r0, lsl r0
     cdc:	00144b00 	andseq	r4, r4, r0, lsl #22
     ce0:	858c1500 	strhi	r1, [ip, #1280]	; 0x500
     ce4:	14520000 	ldrbne	r0, [r2], #-0
     ce8:	09450000 	stmdbeq	r5, {}^	; <UNPREDICTABLE>
     cec:	01160000 	tsteq	r6, r0
     cf0:	44080253 	strmi	r0, [r8], #-595	; 0x253
     cf4:	05520116 	ldrbeq	r0, [r2, #-278]	; 0x116
     cf8:	00aed003 	adceq	sp, lr, r3
     cfc:	51011600 	tstpl	r1, r0, lsl #12
     d00:	af940305 	svcge	0x00940305
     d04:	01160000 	tsteq	r6, r0
     d08:	e8030550 	stmda	r3, {r4, r6, r8, sl}
     d0c:	160000ad 	strne	r0, [r0], -sp, lsr #1
     d10:	05007d02 	streq	r7, [r0, #-3330]	; 0xd02
     d14:	00b0c003 	adcseq	ip, r0, r3
     d18:	90100000 	andsls	r0, r0, r0
     d1c:	68000085 	stmdavs	r0, {r0, r2, r7}
     d20:	10000014 	andne	r0, r0, r4, lsl r0
     d24:	000085ac 	andeq	r8, r0, ip, lsr #11
     d28:	0000144b 	andeq	r1, r0, fp, asr #8
     d2c:	0085c815 	addeq	ip, r5, r5, lsl r8
     d30:	00145200 	andseq	r5, r4, r0, lsl #4
     d34:	00099000 	andeq	r9, r9, r0
     d38:	53011600 	movwpl	r1, #5632	; 0x1600
     d3c:	16480802 	strbne	r0, [r8], -r2, lsl #16
     d40:	03055201 	movweq	r5, #20993	; 0x5201
     d44:	0000aed0 	ldrdeq	sl, [r0], -r0
     d48:	05510116 	ldrbeq	r0, [r1, #-278]	; 0x116
     d4c:	00af9403 	adceq	r9, pc, r3, lsl #8
     d50:	50011600 	andpl	r1, r1, r0, lsl #12
     d54:	b0d40305 	sbcslt	r0, r4, r5, lsl #6
     d58:	02160000 	andseq	r0, r6, #0
     d5c:	0305007d 	movweq	r0, #20605	; 0x507d
     d60:	0000b100 	andeq	fp, r0, r0, lsl #2
     d64:	85cc1000 	strbhi	r1, [ip]
     d68:	14680000 	strbtne	r0, [r8], #-0
     d6c:	d0100000 	andsle	r0, r0, r0
     d70:	76000085 	strvc	r0, [r0], -r5, lsl #1
     d74:	15000014 	strne	r0, [r0, #-20]
     d78:	0000861c 	andeq	r8, r0, ip, lsl r6
     d7c:	00000702 	andeq	r0, r0, r2, lsl #14
     d80:	000009bc 			; <UNDEFINED> instruction: 0x000009bc
     d84:	02510116 	subseq	r0, r1, #-2147483643	; 0x80000005
     d88:	01160079 	tsteq	r6, r9, ror r0
     d8c:	00750250 	rsbseq	r0, r5, r0, asr r2
     d90:	86341500 	ldrthi	r1, [r4], -r0, lsl #10
     d94:	14810000 	strne	r0, [r1], #0
     d98:	09d00000 	ldmibeq	r0, {}^	; <UNPREDICTABLE>
     d9c:	01160000 	tsteq	r6, r0
     da0:	00750250 	rsbseq	r0, r5, r0, asr r2
     da4:	86441500 	strbhi	r1, [r4], -r0, lsl #10
     da8:	14520000 	ldrbne	r0, [r2], #-0
     dac:	09ed0000 	stmibeq	sp!, {}^	; <UNPREDICTABLE>
     db0:	01160000 	tsteq	r6, r0
     db4:	00740251 	rsbseq	r0, r4, r1, asr r2
     db8:	05500116 	ldrbeq	r0, [r0, #-278]	; 0x116
     dbc:	00b10c03 	adcseq	r0, r1, r3, lsl #24
     dc0:	541f0000 	ldrpl	r0, [pc], #-0	; dc8 <__code_start__-0x7238>
     dc4:	92000086 	andls	r0, r0, #134	; 0x86
     dc8:	16000014 			; <UNDEFINED> instruction: 0x16000014
     dcc:	34015201 	strcc	r5, [r1], #-513	; 0x201
     dd0:	02510116 	subseq	r0, r1, #-2147483643	; 0x80000005
     dd4:	01160075 	tsteq	r6, r5, ror r0
     dd8:	20030550 	andcs	r0, r3, r0, asr r5
     ddc:	000000b1 	strheq	r0, [r0], -r1
     de0:	008a1700 	addeq	r1, sl, r0, lsl #14
     de4:	0a1c0000 	beq	700dec <__bss_end__+0x6f4bfc>
     de8:	81180000 	tsthi	r8, r0
     dec:	0f000000 	svceq	0x00000000
     df0:	0a0c0700 	beq	3029f8 <__bss_end__+0x2f6808>
     df4:	3e200000 	cdpcc	0, 2, cr0, cr0, cr0, {0}
     df8:	01000005 	tsteq	r0, r5
     dfc:	00868c5f 	addeq	r8, r6, pc, asr ip
     e00:	0000f000 	andeq	pc, r0, r0
     e04:	a79c0100 	ldrge	r0, [ip, r0, lsl #2]
     e08:	1100000b 	tstne	r0, fp
     e0c:	01007470 	tsteq	r0, r0, ror r4
     e10:	0004925f 	andeq	r9, r4, pc, asr r2
     e14:	00064b00 	andeq	r4, r6, r0, lsl #22
     e18:	61761100 	cmnvs	r6, r0, lsl #2
     e1c:	375f0100 	ldrbcc	r0, [pc, -r0, lsl #2]
     e20:	b9000000 	stmdblt	r0, {}	; <UNPREDICTABLE>
     e24:	11000006 	tstne	r0, r6
     e28:	01006170 	tsteq	r0, r0, ror r1
     e2c:	0000375f 	andeq	r3, r0, pc, asr r7
     e30:	00071900 	andeq	r1, r7, r0, lsl #18
     e34:	02461a00 	subeq	r1, r6, #0, 20
     e38:	5f010000 	svcpl	0x00010000
     e3c:	00000037 	andeq	r0, r0, r7, lsr r0
     e40:	00000779 	andeq	r0, r0, r9, ror r7
     e44:	6d6f6421 	cfstrdvs	mvd6, [pc, #-132]!	; dc8 <__code_start__-0x7238>
     e48:	685f0100 	ldmdavs	pc, {r8}^	; <UNPREDICTABLE>
     e4c:	02000000 	andeq	r0, r0, #0
     e50:	63120091 	tstvs	r2, #145	; 0x91
     e54:	b7000000 	strlt	r0, [r0, -r0]
     e58:	0500000b 	streq	r0, [r0, #-11]
     e5c:	00aef403 	adceq	pc, lr, r3, lsl #8
     e60:	00301d00 	eorseq	r1, r0, r0, lsl #26
     e64:	0ac50000 	beq	ff140e6c <__bss_end__+0xff134c7c>
     e68:	69140000 	ldmdbvs	r4, {}	; <UNPREDICTABLE>
     e6c:	37630100 	strbcc	r0, [r3, -r0, lsl #2]!
     e70:	e7000000 	str	r0, [r0, -r0]
     e74:	1f000007 	svcne	0x00000007
     e78:	00008740 	andeq	r8, r0, r0, asr #14
     e7c:	000007ee 	andeq	r0, r0, lr, ror #15
     e80:	02530116 	subseq	r0, r3, #-2147483643	; 0x80000005
     e84:	01160078 	tsteq	r6, r8, ror r0
     e88:	00760252 	rsbseq	r0, r6, r2, asr r2
     e8c:	02510116 	subseq	r0, r1, #-2147483643	; 0x80000005
     e90:	01160075 	tsteq	r6, r5, ror r0
     e94:	00790250 	rsbseq	r0, r9, r0, asr r2
     e98:	b4100000 	ldrlt	r0, [r0], #-0
     e9c:	4b000086 	blmi	10bc <__code_start__-0x6f44>
     ea0:	15000014 	strne	r0, [r0, #-20]
     ea4:	000086d0 	ldrdeq	r8, [r0], -r0
     ea8:	00001452 	andeq	r1, r0, r2, asr r4
     eac:	00000b07 	andeq	r0, r0, r7, lsl #22
     eb0:	02530116 	subseq	r0, r3, #-2147483643	; 0x80000005
     eb4:	01166008 	tsteq	r6, r8
     eb8:	f4030552 	vst3.16	{d0,d2,d4}, [r3 :64], r2
     ebc:	160000ae 	strne	r0, [r0], -lr, lsr #1
     ec0:	03055101 	movweq	r5, #20737	; 0x5101
     ec4:	0000af94 	muleq	r0, r4, pc	; <UNPREDICTABLE>
     ec8:	05500116 	ldrbeq	r0, [r0, #-278]	; 0x116
     ecc:	00ade803 	adceq	lr, sp, r3, lsl #16
     ed0:	7d021600 	stcvc	6, cr1, [r2, #-0]
     ed4:	b4030500 	strlt	r0, [r3], #-1280	; 0x500
     ed8:	000000b0 	strheq	r0, [r0], -r0	; <UNPREDICTABLE>
     edc:	0086d410 	addeq	sp, r6, r0, lsl r4
     ee0:	00146800 	andseq	r6, r4, r0, lsl #16
     ee4:	86e01000 	strbthi	r1, [r0], r0
     ee8:	144b0000 	strbne	r0, [fp], #-0
     eec:	fc150000 	ldc2	0, cr0, [r5], {-0}
     ef0:	52000086 	andpl	r0, r0, #134	; 0x86
     ef4:	52000014 	andpl	r0, r0, #20
     ef8:	1600000b 	strne	r0, [r0], -fp
     efc:	08025301 	stmdaeq	r2, {r0, r8, r9, ip, lr}
     f00:	52011661 	andpl	r1, r1, #101711872	; 0x6100000
     f04:	aef40305 	cdpge	3, 15, cr0, cr4, cr5, {0}
     f08:	01160000 	tsteq	r6, r0
     f0c:	94030551 	strls	r0, [r3], #-1361	; 0x551
     f10:	160000af 	strne	r0, [r0], -pc, lsr #1
     f14:	03055001 	movweq	r5, #20481	; 0x5001
     f18:	0000ade8 	andeq	sl, r0, r8, ror #27
     f1c:	007d0216 	rsbseq	r0, sp, r6, lsl r2
     f20:	af9c0305 	svcge	0x009c0305
     f24:	10000000 	andne	r0, r0, r0
     f28:	00008700 	andeq	r8, r0, r0, lsl #14
     f2c:	00001468 	andeq	r1, r0, r8, ror #8
     f30:	00870c10 	addeq	r0, r7, r0, lsl ip
     f34:	00144b00 	andseq	r4, r4, r0, lsl #22
     f38:	87281500 	strhi	r1, [r8, -r0, lsl #10]!
     f3c:	14520000 	ldrbne	r0, [r2], #-0
     f40:	0b9d0000 	bleq	fe740f48 <__bss_end__+0xfe734d58>
     f44:	01160000 	tsteq	r6, r0
     f48:	62080253 	andvs	r0, r8, #805306373	; 0x30000005
     f4c:	05520116 	ldrbeq	r0, [r2, #-278]	; 0x116
     f50:	00aef403 	adceq	pc, lr, r3, lsl #8
     f54:	51011600 	tstpl	r1, r0, lsl #12
     f58:	af940305 	svcge	0x00940305
     f5c:	01160000 	tsteq	r6, r0
     f60:	e8030550 	stmda	r3, {r4, r6, r8, sl}
     f64:	160000ad 	strne	r0, [r0], -sp, lsr #1
     f68:	05007d02 	streq	r7, [r0, #-3330]	; 0xd02
     f6c:	00b0c003 	adcseq	ip, r0, r3
     f70:	2c100000 	ldccs	0, cr0, [r0], {-0}
     f74:	68000087 	stmdavs	r0, {r0, r1, r2, r7}
     f78:	00000014 	andeq	r0, r0, r4, lsl r0
     f7c:	00008a17 	andeq	r8, r0, r7, lsl sl
     f80:	000bb700 	andeq	fp, fp, r0, lsl #14
     f84:	00811800 	addeq	r1, r1, r0, lsl #16
     f88:	00100000 	andseq	r0, r0, r0
     f8c:	000ba707 	andeq	sl, fp, r7, lsl #14
     f90:	043e0f00 	ldrteq	r0, [lr], #-3840	; 0xf00
     f94:	6a010000 	bvs	40f9c <__bss_end__+0x34dac>
     f98:	00000492 	muleq	r0, r2, r4
     f9c:	0000877c 	andeq	r8, r0, ip, ror r7
     fa0:	00000094 	muleq	r0, r4, r0
     fa4:	0cc89c01 	stcleq	12, cr9, [r8], {1}
     fa8:	a51a0000 	ldrge	r0, [sl, #-0]
     fac:	01000002 	tsteq	r0, r2
     fb0:	0000886a 	andeq	r8, r0, sl, ror #16
     fb4:	00080500 	andeq	r0, r8, r0, lsl #10
     fb8:	03e41a00 	mvneq	r1, #0, 20
     fbc:	6a010000 	bvs	40fc4 <__bss_end__+0x34dd4>
     fc0:	00000037 	andeq	r0, r0, r7, lsr r0
     fc4:	0000085a 	andeq	r0, r0, sl, asr r8
     fc8:	00006312 	andeq	r6, r0, r2, lsl r3
     fcc:	000cc800 	andeq	ip, ip, r0, lsl #16
     fd0:	08030500 	stmdaeq	r3, {r8, sl}
     fd4:	140000af 	strne	r0, [r0], #-175	; 0xaf
     fd8:	01007470 	tsteq	r0, r0, ror r4
     fdc:	0004926c 	andeq	r9, r4, ip, ror #4
     fe0:	0008ad00 	andeq	sl, r8, r0, lsl #26
     fe4:	006e2200 	rsbeq	r2, lr, r0, lsl #4
     fe8:	00376e01 	eorseq	r6, r7, r1, lsl #28
     fec:	40000000 	andmi	r0, r0, r0
     ff0:	00879410 	addeq	r9, r7, r0, lsl r4
     ff4:	00144b00 	andseq	r4, r4, r0, lsl #22
     ff8:	87b01500 	ldrhi	r1, [r0, r0, lsl #10]!
     ffc:	14520000 	ldrbne	r0, [r2], #-0
    1000:	0c5d0000 	mraeq	r0, sp, acc0
    1004:	01160000 	tsteq	r6, r0
    1008:	6b080253 	blvs	20195c <__bss_end__+0x1f576c>
    100c:	05520116 	ldrbeq	r0, [r2, #-278]	; 0x116
    1010:	00af0803 	adceq	r0, pc, r3, lsl #16
    1014:	51011600 	tstpl	r1, r0, lsl #12
    1018:	af940305 	svcge	0x00940305
    101c:	01160000 	tsteq	r6, r0
    1020:	2c030550 	cfstr32cs	mvfx0, [r3], {80}	; 0x50
    1024:	160000b1 			; <UNDEFINED> instruction: 0x160000b1
    1028:	05007d02 	streq	r7, [r0, #-3330]	; 0xd02
    102c:	00b16403 	adcseq	r6, r1, r3, lsl #8
    1030:	b4100000 	ldrlt	r0, [r0], #-0
    1034:	68000087 	stmdavs	r0, {r0, r1, r2, r7}
    1038:	10000014 	andne	r0, r0, r4, lsl r0
    103c:	000087c0 	andeq	r8, r0, r0, asr #15
    1040:	0000144b 	andeq	r1, r0, fp, asr #8
    1044:	0087dc15 	addeq	sp, r7, r5, lsl ip
    1048:	00145200 	andseq	r5, r4, r0, lsl #4
    104c:	000ca800 	andeq	sl, ip, r0, lsl #16
    1050:	53011600 	movwpl	r1, #5632	; 0x1600
    1054:	166f0802 	strbtne	r0, [pc], -r2, lsl #16
    1058:	03055201 	movweq	r5, #20993	; 0x5201
    105c:	0000af08 	andeq	sl, r0, r8, lsl #30
    1060:	05510116 	ldrbeq	r0, [r1, #-278]	; 0x116
    1064:	00af9403 	adceq	r9, pc, r3, lsl #8
    1068:	50011600 	andpl	r1, r1, r0, lsl #12
    106c:	b1a40305 			; <UNDEFINED> instruction: 0xb1a40305
    1070:	02160000 	andseq	r0, r6, #0
    1074:	0305007d 	movweq	r0, #20605	; 0x507d
    1078:	0000b1e0 	andeq	fp, r0, r0, ror #3
    107c:	87e01000 	strbhi	r1, [r0, r0]!
    1080:	14680000 	strbtne	r0, [r8], #-0
    1084:	ec1f0000 	ldc	0, cr0, [pc], {-0}
    1088:	b4000087 	strlt	r0, [r0], #-135	; 0x87
    108c:	16000014 			; <UNDEFINED> instruction: 0x16000014
    1090:	0a035201 	beq	d589c <__bss_end__+0xc96ac>
    1094:	01164000 	tsteq	r6, r0
    1098:	00300151 	eorseq	r0, r0, r1, asr r1
    109c:	0a0c0700 	beq	302ca4 <__bss_end__+0x2f6ab4>
    10a0:	5f0f0000 	svcpl	0x000f0000
    10a4:	01000003 	tsteq	r0, r3
    10a8:	00049275 	andeq	r9, r4, r5, ror r2
    10ac:	00881000 	addeq	r1, r8, r0
    10b0:	00009000 	andeq	r9, r0, r0
    10b4:	da9c0100 	ble	fe7014bc <__bss_end__+0xfe6f52cc>
    10b8:	1100000d 	tstne	r0, sp
    10bc:	7501006e 	strvc	r0, [r1, #-110]	; 0x6e
    10c0:	00000037 	andeq	r0, r0, r7, lsr r0
    10c4:	000008ec 	andeq	r0, r0, ip, ror #17
    10c8:	00006312 	andeq	r6, r0, r2, lsl r3
    10cc:	000dea00 	andeq	lr, sp, r0, lsl #20
    10d0:	18030500 	stmdane	r3, {r8, sl}
    10d4:	230000af 	movwcs	r0, #175	; 0xaf
    10d8:	000003e4 	andeq	r0, r0, r4, ror #7
    10dc:	00377701 	eorseq	r7, r7, r1, lsl #14
    10e0:	40000000 	andmi	r0, r0, r0
    10e4:	00747014 	rsbseq	r7, r4, r4, lsl r0
    10e8:	04927a01 	ldreq	r7, [r2], #2561	; 0xa01
    10ec:	09260000 	stmdbeq	r6!, {}	; <UNPREDICTABLE>
    10f0:	24100000 	ldrcs	r0, [r0], #-0
    10f4:	4b000088 	blmi	131c <__code_start__-0x6ce4>
    10f8:	15000014 	strne	r0, [r0, #-20]
    10fc:	00008840 	andeq	r8, r0, r0, asr #16
    1100:	00001452 	andeq	r1, r0, r2, asr r4
    1104:	00000d5f 	andeq	r0, r0, pc, asr sp
    1108:	02530116 	subseq	r0, r3, #-2147483643	; 0x80000005
    110c:	01167608 	tsteq	r6, r8, lsl #12
    1110:	18030552 	stmdane	r3, {r1, r4, r6, r8, sl}
    1114:	160000af 	strne	r0, [r0], -pc, lsr #1
    1118:	03055101 	movweq	r5, #20737	; 0x5101
    111c:	0000af94 	muleq	r0, r4, pc	; <UNPREDICTABLE>
    1120:	05500116 	ldrbeq	r0, [r0, #-278]	; 0x116
    1124:	00b1ec03 	adcseq	lr, r1, r3, lsl #24
    1128:	7d021600 	stcvc	6, cr1, [r2, #-0]
    112c:	44030500 	strmi	r0, [r3], #-1280	; 0x500
    1130:	000000b2 	strheq	r0, [r0], -r2
    1134:	00884410 	addeq	r4, r8, r0, lsl r4
    1138:	00146800 	andseq	r6, r4, r0, lsl #16
    113c:	884c1500 	stmdahi	ip, {r8, sl, ip}^
    1140:	14d30000 	ldrbne	r0, [r3], #0
    1144:	0d7d0000 	ldcleq	0, cr0, [sp, #-0]
    1148:	01160000 	tsteq	r6, r0
    114c:	000a0351 	andeq	r0, sl, r1, asr r3
    1150:	58100040 	ldmdapl	r0, {r6}
    1154:	4b000088 	blmi	137c <__code_start__-0x6c84>
    1158:	15000014 	strne	r0, [r0, #-20]
    115c:	00008874 	andeq	r8, r0, r4, ror r8
    1160:	00001452 	andeq	r1, r0, r2, asr r4
    1164:	00000dbf 			; <UNDEFINED> instruction: 0x00000dbf
    1168:	02530116 	subseq	r0, r3, #-2147483643	; 0x80000005
    116c:	01167b08 	tsteq	r6, r8, lsl #22
    1170:	18030552 	stmdane	r3, {r1, r4, r6, r8, sl}
    1174:	160000af 	strne	r0, [r0], -pc, lsr #1
    1178:	03055101 	movweq	r5, #20737	; 0x5101
    117c:	0000af94 	muleq	r0, r4, pc	; <UNPREDICTABLE>
    1180:	05500116 	ldrbeq	r0, [r0, #-278]	; 0x116
    1184:	00b12c03 	adcseq	r2, r1, r3, lsl #24
    1188:	7d021600 	stcvc	6, cr1, [r2, #-0]
    118c:	50030500 	andpl	r0, r3, r0, lsl #10
    1190:	000000b2 	strheq	r0, [r0], -r2
    1194:	00887810 	addeq	r7, r8, r0, lsl r8
    1198:	00146800 	andseq	r6, r4, r0, lsl #16
    119c:	88801f00 	stmhi	r0, {r8, r9, sl, fp, ip}
    11a0:	0bbc0000 	bleq	fef011a8 <__bss_end__+0xfeef4fb8>
    11a4:	01160000 	tsteq	r6, r0
    11a8:	000a0351 	andeq	r0, sl, r1, asr r3
    11ac:	17000040 	strne	r0, [r0, -r0, asr #32]
    11b0:	0000008a 	andeq	r0, r0, sl, lsl #1
    11b4:	00000dea 	andeq	r0, r0, sl, ror #27
    11b8:	00008118 	andeq	r8, r0, r8, lsl r1
    11bc:	07000c00 	streq	r0, [r0, -r0, lsl #24]
    11c0:	00000dda 	ldrdeq	r0, [r0], -sl
    11c4:	00043520 	andeq	r3, r4, r0, lsr #10
    11c8:	a0860100 	addge	r0, r6, r0, lsl #2
    11cc:	90000088 	andls	r0, r0, r8, lsl #1
    11d0:	01000000 	mrseq	r0, (UNDEF: 0)
    11d4:	000edc9c 	muleq	lr, ip, ip
    11d8:	31631400 	cmncc	r3, r0, lsl #8
    11dc:	9c890100 	stflss	f0, [r9], {0}
    11e0:	44000000 	strmi	r0, [r0], #-0
    11e4:	12000009 	andne	r0, r0, #9
    11e8:	00000063 	andeq	r0, r0, r3, rrx
    11ec:	00000eec 	andeq	r0, r0, ip, ror #29
    11f0:	af280305 	svcge	0x00280305
    11f4:	ac100000 	ldcge	0, cr0, [r0], {-0}
    11f8:	ed000088 	stc	0, cr0, [r0, #-544]	; 0xfffffde0
    11fc:	10000014 	andne	r0, r0, r4, lsl r0
    1200:	000088b0 			; <UNDEFINED> instruction: 0x000088b0
    1204:	00001440 	andeq	r1, r0, r0, asr #8
    1208:	0088b810 	addeq	fp, r8, r0, lsl r8
    120c:	0014f400 	andseq	pc, r4, r0, lsl #8
    1210:	88bc1000 	ldmhi	ip!, {ip}
    1214:	14400000 	strbne	r0, [r0], #-0
    1218:	c8100000 	ldmdagt	r0, {}	; <UNPREDICTABLE>
    121c:	4b000088 	blmi	1444 <__code_start__-0x6bbc>
    1220:	15000014 	strne	r0, [r0, #-20]
    1224:	000088e4 	andeq	r8, r0, r4, ror #17
    1228:	00001452 	andeq	r1, r0, r2, asr r4
    122c:	00000e87 	andeq	r0, r0, r7, lsl #29
    1230:	02530116 	subseq	r0, r3, #-2147483643	; 0x80000005
    1234:	01168e08 	tsteq	r6, r8, lsl #28
    1238:	28030552 	stmdacs	r3, {r1, r4, r6, r8, sl}
    123c:	160000af 	strne	r0, [r0], -pc, lsr #1
    1240:	03055101 	movweq	r5, #20737	; 0x5101
    1244:	0000af94 	muleq	r0, r4, pc	; <UNPREDICTABLE>
    1248:	05500116 	ldrbeq	r0, [r0, #-278]	; 0x116
    124c:	00ade803 	adceq	lr, sp, r3, lsl #16
    1250:	7d021600 	stcvc	6, cr1, [r2, #-0]
    1254:	8c030500 	cfstr32hi	mvfx0, [r3], {-0}
    1258:	000000b2 	strheq	r0, [r0], -r2
    125c:	0088e810 	addeq	lr, r8, r0, lsl r8
    1260:	00146800 	andseq	r6, r4, r0, lsl #16
    1264:	88f41000 	ldmhi	r4!, {ip}^
    1268:	144b0000 	strbne	r0, [fp], #-0
    126c:	10150000 	andsne	r0, r5, r0
    1270:	52000089 	andpl	r0, r0, #137	; 0x89
    1274:	d2000014 	andle	r0, r0, #20
    1278:	1600000e 	strne	r0, [r0], -lr
    127c:	08025301 	stmdaeq	r2, {r0, r8, r9, ip, lr}
    1280:	5201168f 	andpl	r1, r1, #149946368	; 0x8f00000
    1284:	af280305 	svcge	0x00280305
    1288:	01160000 	tsteq	r6, r0
    128c:	94030551 	strls	r0, [r3], #-1361	; 0x551
    1290:	160000af 	strne	r0, [r0], -pc, lsr #1
    1294:	03055001 	movweq	r5, #20481	; 0x5001
    1298:	0000ade8 	andeq	sl, r0, r8, ror #27
    129c:	007d0216 	rsbseq	r0, sp, r6, lsl r2
    12a0:	b2980305 	addslt	r0, r8, #335544320	; 0x14000000
    12a4:	10000000 	andne	r0, r0, r0
    12a8:	00008914 	andeq	r8, r0, r4, lsl r9
    12ac:	00001468 	andeq	r1, r0, r8, ror #8
    12b0:	008a1700 	addeq	r1, sl, r0, lsl #14
    12b4:	0eec0000 	cdpeq	0, 14, cr0, cr12, cr0, {0}
    12b8:	81180000 	tsthi	r8, r0
    12bc:	08000000 	stmdaeq	r0, {}	; <UNPREDICTABLE>
    12c0:	0edc0700 	cdpeq	7, 13, cr0, cr12, cr0, {0}
    12c4:	09200000 	stmdbeq	r0!, {}	; <UNPREDICTABLE>
    12c8:	01000005 	tsteq	r0, r5
    12cc:	00893092 	umulleq	r3, r9, r2, r0
    12d0:	00000c00 	andeq	r0, r0, r0, lsl #24
    12d4:	109c0100 	addsne	r0, ip, r0, lsl #2
    12d8:	1000000f 	andne	r0, r0, pc
    12dc:	00008938 	andeq	r8, r0, r8, lsr r9
    12e0:	00001505 	andeq	r1, r0, r5, lsl #10
    12e4:	02d22000 	sbcseq	r2, r2, #0
    12e8:	97010000 	strls	r0, [r1, -r0]
    12ec:	0000893c 	andeq	r8, r0, ip, lsr r9
    12f0:	00000080 	andeq	r0, r0, r0, lsl #1
    12f4:	0fe19c01 	svceq	0x00e19c01
    12f8:	63110000 	tstvs	r1, #0
    12fc:	57970100 	ldrpl	r0, [r7, r0, lsl #2]
    1300:	6d000002 	stcvs	0, cr0, [r0, #-8]
    1304:	12000009 	andne	r0, r0, #9
    1308:	00000063 	andeq	r0, r0, r3, rrx
    130c:	00000fe1 	andeq	r0, r0, r1, ror #31
    1310:	af340305 	svcge	0x00340305
    1314:	50100000 	andspl	r0, r0, r0
    1318:	4b000089 	blmi	1544 <__code_start__-0x6abc>
    131c:	15000014 	strne	r0, [r0, #-20]
    1320:	0000896c 	andeq	r8, r0, ip, ror #18
    1324:	00001452 	andeq	r1, r0, r2, asr r4
    1328:	00000f83 	andeq	r0, r0, r3, lsl #31
    132c:	02530116 	subseq	r0, r3, #-2147483643	; 0x80000005
    1330:	01169808 	tsteq	r6, r8, lsl #16
    1334:	34030552 	strcc	r0, [r3], #-1362	; 0x552
    1338:	160000af 	strne	r0, [r0], -pc, lsr #1
    133c:	03055101 	movweq	r5, #20737	; 0x5101
    1340:	0000af94 	muleq	r0, r4, pc	; <UNPREDICTABLE>
    1344:	05500116 	ldrbeq	r0, [r0, #-278]	; 0x116
    1348:	00ade803 	adceq	lr, sp, r3, lsl #16
    134c:	7d021600 	stcvc	6, cr1, [r2, #-0]
    1350:	a8030500 	stmdage	r3, {r8, sl}
    1354:	000000b2 	strheq	r0, [r0], -r2
    1358:	00897010 	addeq	r7, r9, r0, lsl r0
    135c:	00146800 	andseq	r6, r4, r0, lsl #16
    1360:	897c1000 	ldmdbhi	ip!, {ip}^
    1364:	144b0000 	strbne	r0, [fp], #-0
    1368:	98150000 	ldmdals	r5, {}	; <UNPREDICTABLE>
    136c:	52000089 	andpl	r0, r0, #137	; 0x89
    1370:	ce000014 	mcrgt	0, 0, r0, cr0, cr4, {0}
    1374:	1600000f 	strne	r0, [r0], -pc
    1378:	08025301 	stmdaeq	r2, {r0, r8, r9, ip, lr}
    137c:	52011699 	andpl	r1, r1, #160432128	; 0x9900000
    1380:	af340305 	svcge	0x00340305
    1384:	01160000 	tsteq	r6, r0
    1388:	94030551 	strls	r0, [r3], #-1361	; 0x551
    138c:	160000af 	strne	r0, [r0], -pc, lsr #1
    1390:	03055001 	movweq	r5, #20481	; 0x5001
    1394:	0000ade8 	andeq	sl, r0, r8, ror #27
    1398:	007d0216 	rsbseq	r0, sp, r6, lsl r2
    139c:	b2b80305 	adcslt	r0, r8, #335544320	; 0x14000000
    13a0:	10000000 	andne	r0, r0, r0
    13a4:	0000899c 	muleq	r0, ip, r9
    13a8:	00001468 	andeq	r1, r0, r8, ror #8
    13ac:	0089a010 	addeq	sl, r9, r0, lsl r0
    13b0:	00150c00 	andseq	r0, r5, r0, lsl #24
    13b4:	0c070000 	stceq	0, cr0, [r7], {-0}
    13b8:	2000000a 	andcs	r0, r0, sl
    13bc:	000003af 	andeq	r0, r0, pc, lsr #7
    13c0:	89bc9c01 	ldmibhi	ip!, {r0, sl, fp, ip, pc}
    13c4:	00580000 	subseq	r0, r8, r0
    13c8:	9c010000 	stcls	0, cr0, [r1], {-0}
    13cc:	00001075 	andeq	r1, r0, r5, ror r0
    13d0:	01006314 	tsteq	r0, r4, lsl r3
    13d4:	0002579d 	muleq	r2, sp, r7
    13d8:	00099600 	andeq	r9, r9, r0, lsl #12
    13dc:	00631200 	rsbeq	r1, r3, r0, lsl #4
    13e0:	10850000 	addne	r0, r5, r0
    13e4:	03050000 	movweq	r0, #20480	; 0x5000
    13e8:	0000af44 	andeq	sl, r0, r4, asr #30
    13ec:	0089c810 	addeq	ip, r9, r0, lsl r8
    13f0:	00144000 	andseq	r4, r4, r0
    13f4:	89d41000 	ldmibhi	r4, {ip}^
    13f8:	144b0000 	strbne	r0, [fp], #-0
    13fc:	f0150000 			; <UNDEFINED> instruction: 0xf0150000
    1400:	52000089 	andpl	r0, r0, #137	; 0x89
    1404:	62000014 	andvs	r0, r0, #20
    1408:	16000010 			; <UNDEFINED> instruction: 0x16000010
    140c:	08025301 	stmdaeq	r2, {r0, r8, r9, ip, lr}
    1410:	5201169e 	andpl	r1, r1, #165675008	; 0x9e00000
    1414:	af440305 	svcge	0x00440305
    1418:	01160000 	tsteq	r6, r0
    141c:	94030551 	strls	r0, [r3], #-1361	; 0x551
    1420:	160000af 	strne	r0, [r0], -pc, lsr #1
    1424:	03055001 	movweq	r5, #20481	; 0x5001
    1428:	0000ade8 	andeq	sl, r0, r8, ror #27
    142c:	007d0216 	rsbseq	r0, sp, r6, lsl r2
    1430:	b2cc0305 	sbclt	r0, ip, #335544320	; 0x14000000
    1434:	10000000 	andne	r0, r0, r0
    1438:	000089f4 	strdeq	r8, [r0], -r4
    143c:	00001468 	andeq	r1, r0, r8, ror #8
    1440:	0089fc10 	addeq	pc, r9, r0, lsl ip	; <UNPREDICTABLE>
    1444:	000f1000 	andeq	r1, pc, r0
    1448:	8a170000 	bhi	5c1450 <__bss_end__+0x5b5260>
    144c:	85000000 	strhi	r0, [r0, #-0]
    1450:	18000010 	stmdane	r0, {r4}
    1454:	00000081 	andeq	r0, r0, r1, lsl #1
    1458:	7507000b 	strvc	r0, [r7, #-11]
    145c:	20000010 	andcs	r0, r0, r0, lsl r0
    1460:	000002aa 	andeq	r0, r0, sl, lsr #5
    1464:	8a14a301 	bhi	52a070 <__bss_end__+0x51de80>
    1468:	00500000 	subseq	r0, r0, r0
    146c:	9c010000 	stcls	0, cr0, [r1], {-0}
    1470:	00001110 	andeq	r1, r0, r0, lsl r1
    1474:	01006311 	tsteq	r0, r1, lsl r3
    1478:	000257a3 	andeq	r5, r2, r3, lsr #15
    147c:	0009b400 	andeq	fp, r9, r0, lsl #8
    1480:	00631200 	rsbeq	r1, r3, r0, lsl #4
    1484:	11200000 	teqne	r0, r0
    1488:	03050000 	movweq	r0, #20480	; 0x5000
    148c:	0000af50 	andeq	sl, r0, r0, asr pc
    1490:	008a2810 	addeq	r2, sl, r0, lsl r8
    1494:	00144b00 	andseq	r4, r4, r0, lsl #22
    1498:	8a441500 	bhi	11068a0 <__bss_end__+0x10fa6b0>
    149c:	14520000 	ldrbne	r0, [r2], #-0
    14a0:	10fd0000 	rscsne	r0, sp, r0
    14a4:	01160000 	tsteq	r6, r0
    14a8:	a4080253 	strge	r0, [r8], #-595	; 0x253
    14ac:	05520116 	ldrbeq	r0, [r2, #-278]	; 0x116
    14b0:	00af5003 	adceq	r5, pc, r3
    14b4:	51011600 	tstpl	r1, r0, lsl #12
    14b8:	af940305 	svcge	0x00940305
    14bc:	01160000 	tsteq	r6, r0
    14c0:	e8030550 	stmda	r3, {r4, r6, r8, sl}
    14c4:	160000ad 	strne	r0, [r0], -sp, lsr #1
    14c8:	05007d02 	streq	r7, [r0, #-3330]	; 0xd02
    14cc:	00b2cc03 	adcseq	ip, r2, r3, lsl #24
    14d0:	48100000 	ldmdami	r0, {}	; <UNPREDICTABLE>
    14d4:	6800008a 	stmdavs	r0, {r1, r3, r7}
    14d8:	10000014 	andne	r0, r0, r4, lsl r0
    14dc:	00008a4c 	andeq	r8, r0, ip, asr #20
    14e0:	0000151d 	andeq	r1, r0, sp, lsl r5
    14e4:	008a1700 	addeq	r1, sl, r0, lsl #14
    14e8:	11200000 	teqne	r0, r0
    14ec:	81180000 	tsthi	r8, r0
    14f0:	0e000000 	cdpeq	0, 0, cr0, cr0, cr0, {0}
    14f4:	11100700 	tstne	r0, r0, lsl #14
    14f8:	a9200000 	stmdbge	r0!, {}	; <UNPREDICTABLE>
    14fc:	01000004 	tsteq	r0, r4
    1500:	008a64a7 	addeq	r6, sl, r7, lsr #9
    1504:	00005800 	andeq	r5, r0, r0, lsl #16
    1508:	b49c0100 	ldrlt	r0, [ip], #256	; 0x100
    150c:	14000011 	strne	r0, [r0], #-17
    1510:	a8010063 	stmdage	r1, {r0, r1, r5, r6}
    1514:	00000257 	andeq	r0, r0, r7, asr r2
    1518:	000009d2 	ldrdeq	r0, [r0], -r2
    151c:	00006312 	andeq	r6, r0, r2, lsl r3
    1520:	0011c400 	andseq	ip, r1, r0, lsl #8
    1524:	60030500 	andvs	r0, r3, r0, lsl #10
    1528:	100000af 	andne	r0, r0, pc, lsr #1
    152c:	00008a70 	andeq	r8, r0, r0, ror sl
    1530:	00001440 	andeq	r1, r0, r0, asr #8
    1534:	008a7c10 	addeq	r7, sl, r0, lsl ip
    1538:	00144b00 	andseq	r4, r4, r0, lsl #22
    153c:	8a981500 	bhi	fe606944 <__bss_end__+0xfe5fa754>
    1540:	14520000 	ldrbne	r0, [r2], #-0
    1544:	11a10000 			; <UNDEFINED> instruction: 0x11a10000
    1548:	01160000 	tsteq	r6, r0
    154c:	a9080253 	stmdbge	r8, {r0, r1, r4, r6, r9}
    1550:	05520116 	ldrbeq	r0, [r2, #-278]	; 0x116
    1554:	00af6003 	adceq	r6, pc, r3
    1558:	51011600 	tstpl	r1, r0, lsl #12
    155c:	af940305 	svcge	0x00940305
    1560:	01160000 	tsteq	r6, r0
    1564:	e8030550 	stmda	r3, {r4, r6, r8, sl}
    1568:	160000ad 	strne	r0, [r0], -sp, lsr #1
    156c:	05007d02 	streq	r7, [r0, #-3330]	; 0xd02
    1570:	00b2a803 	adcseq	sl, r2, r3, lsl #16
    1574:	9c100000 	ldcls	0, cr0, [r0], {-0}
    1578:	6800008a 	stmdavs	r0, {r1, r3, r7}
    157c:	10000014 	andne	r0, r0, r4, lsl r0
    1580:	00008aa4 	andeq	r8, r0, r4, lsr #21
    1584:	0000108a 	andeq	r1, r0, sl, lsl #1
    1588:	008a1700 	addeq	r1, sl, r0, lsl #14
    158c:	11c40000 	bicne	r0, r4, r0
    1590:	81180000 	tsthi	r8, r0
    1594:	0a000000 	beq	159c <__code_start__-0x6a64>
    1598:	11b40700 			; <UNDEFINED> instruction: 0x11b40700
    159c:	df0f0000 	svcle	0x000f0000
    15a0:	01000004 	tsteq	r0, r4
    15a4:	000068af 	andeq	r6, r0, pc, lsr #17
    15a8:	008abc00 	addeq	fp, sl, r0, lsl #24
    15ac:	00000800 	andeq	r0, r0, r0, lsl #16
    15b0:	ee9c0100 	fmle	f0, f4, f0
    15b4:	24000011 	strcs	r0, [r0], #-17
    15b8:	b0010072 	andlt	r0, r1, r2, ror r0
    15bc:	00000068 	andeq	r0, r0, r8, rrx
    15c0:	20005001 	andcs	r5, r0, r1
    15c4:	000002b9 			; <UNDEFINED> instruction: 0x000002b9
    15c8:	8ac4b401 	bhi	ff12e5d4 <__bss_end__+0xff1223e4>
    15cc:	000c0000 	andeq	r0, ip, r0
    15d0:	9c010000 	stcls	0, cr0, [r1], {-0}
    15d4:	00001222 	andeq	r1, r0, r2, lsr #4
    15d8:	01007211 	tsteq	r0, r1, lsl r2
    15dc:	000037b4 			; <UNDEFINED> instruction: 0x000037b4
    15e0:	0009f000 	andeq	pc, r9, r0
    15e4:	8acc1f00 	bhi	ff3091ec <__bss_end__+0xff2fcffc>
    15e8:	152e0000 	strne	r0, [lr, #-0]!
    15ec:	01160000 	tsteq	r6, r0
    15f0:	01f30350 	mvnseq	r0, r0, asr r3
    15f4:	20000050 	andcs	r0, r0, r0, asr r0
    15f8:	00000270 	andeq	r0, r0, r0, ror r2
    15fc:	8ad0ba01 	bhi	ff42fe08 <__bss_end__+0xff423c18>
    1600:	00bc0000 	adcseq	r0, ip, r0
    1604:	9c010000 	stcls	0, cr0, [r1], {-0}
    1608:	00001372 	andeq	r1, r0, r2, ror r3
    160c:	64697011 	strbtvs	r7, [r9], #-17
    1610:	37ba0100 	ldrcc	r0, [sl, r0, lsl #2]!
    1614:	11000000 	mrsne	r0, (UNDEF: 0)
    1618:	1a00000a 	bne	1648 <__code_start__-0x69b8>
    161c:	000001e5 	andeq	r0, r0, r5, ror #3
    1620:	0037ba01 	eorseq	fp, r7, r1, lsl #20
    1624:	0a7d0000 	beq	1f4162c <__bss_end__+0x1f3543c>
    1628:	70110000 	andsvc	r0, r1, r0
    162c:	ba010074 	blt	41804 <__bss_end__+0x35614>
    1630:	00000492 	muleq	r0, r2, r4
    1634:	00000af6 	strdeq	r0, [r0], -r6
    1638:	00006312 	andeq	r6, r0, r2, lsl r3
    163c:	00137200 	andseq	r7, r3, r0, lsl #4
    1640:	6c030500 	cfstr32vs	mvfx0, [r3], {-0}
    1644:	100000af 	andne	r0, r0, pc, lsr #1
    1648:	00008ae4 	andeq	r8, r0, r4, ror #21
    164c:	0000144b 	andeq	r1, r0, fp, asr #8
    1650:	008b0015 	addeq	r0, fp, r5, lsl r0
    1654:	00145200 	andseq	r5, r4, r0, lsl #4
    1658:	0012b400 	andseq	fp, r2, r0, lsl #8
    165c:	53011600 	movwpl	r1, #5632	; 0x1600
    1660:	16bb0802 	ldrtne	r0, [fp], r2, lsl #16
    1664:	03055201 	movweq	r5, #20993	; 0x5201
    1668:	0000af6c 	andeq	sl, r0, ip, ror #30
    166c:	05510116 	ldrbeq	r0, [r1, #-278]	; 0x116
    1670:	00af9403 	adceq	r9, pc, r3, lsl #8
    1674:	50011600 	andpl	r1, r1, r0, lsl #12
    1678:	ade80305 	stclge	3, cr0, [r8, #20]!
    167c:	02160000 	andseq	r0, r6, #0
    1680:	0305007d 	movweq	r0, #20605	; 0x507d
    1684:	0000b2dc 	ldrdeq	fp, [r0], -ip
    1688:	8b041000 	blhi	105690 <__bss_end__+0xf94a0>
    168c:	14680000 	strbtne	r0, [r8], #-0
    1690:	10100000 	andsne	r0, r0, r0
    1694:	4b00008b 	blmi	18c8 <__code_start__-0x6738>
    1698:	15000014 	strne	r0, [r0, #-20]
    169c:	00008b2c 	andeq	r8, r0, ip, lsr #22
    16a0:	00001452 	andeq	r1, r0, r2, asr r4
    16a4:	000012ff 	strdeq	r1, [r0], -pc	; <UNPREDICTABLE>
    16a8:	02530116 	subseq	r0, r3, #-2147483643	; 0x80000005
    16ac:	0116bc08 	tsteq	r6, r8, lsl #24
    16b0:	6c030552 	cfstr32vs	mvfx0, [r3], {82}	; 0x52
    16b4:	160000af 	strne	r0, [r0], -pc, lsr #1
    16b8:	03055101 	movweq	r5, #20737	; 0x5101
    16bc:	0000af94 	muleq	r0, r4, pc	; <UNPREDICTABLE>
    16c0:	05500116 	ldrbeq	r0, [r0, #-278]	; 0x116
    16c4:	00ade803 	adceq	lr, sp, r3, lsl #16
    16c8:	7d021600 	stcvc	6, cr1, [r2, #-0]
    16cc:	f0030500 			; <UNDEFINED> instruction: 0xf0030500
    16d0:	000000b2 	strheq	r0, [r0], -r2
    16d4:	008b3010 	addeq	r3, fp, r0, lsl r0
    16d8:	00146800 	andseq	r6, r4, r0, lsl #16
    16dc:	8b401000 	blhi	10056e4 <__bss_end__+0xff94f4>
    16e0:	144b0000 	strbne	r0, [fp], #-0
    16e4:	5c150000 	ldcpl	0, cr0, [r5], {-0}
    16e8:	5200008b 	andpl	r0, r0, #139	; 0x8b
    16ec:	4a000014 	bmi	1744 <__code_start__-0x68bc>
    16f0:	16000013 			; <UNDEFINED> instruction: 0x16000013
    16f4:	08025301 	stmdaeq	r2, {r0, r8, r9, ip, lr}
    16f8:	520116bd 	andpl	r1, r1, #198180864	; 0xbd00000
    16fc:	af6c0305 	svcge	0x006c0305
    1700:	01160000 	tsteq	r6, r0
    1704:	94030551 	strls	r0, [r3], #-1361	; 0x551
    1708:	160000af 	strne	r0, [r0], -pc, lsr #1
    170c:	03055001 	movweq	r5, #20481	; 0x5001
    1710:	0000ade8 	andeq	sl, r0, r8, ror #27
    1714:	007d0216 	rsbseq	r0, sp, r6, lsl r2
    1718:	b2fc0305 	rscslt	r0, ip, #335544320	; 0x14000000
    171c:	10000000 	andne	r0, r0, r0
    1720:	00008b60 	andeq	r8, r0, r0, ror #22
    1724:	00001468 	andeq	r1, r0, r8, ror #8
    1728:	008b6c1f 	addeq	r6, fp, pc, lsl ip
    172c:	00153f00 	andseq	r3, r5, r0, lsl #30
    1730:	51011600 	tstpl	r1, r0, lsl #12
    1734:	5201f303 	andpl	pc, r1, #201326592	; 0xc000000
    1738:	09500116 	ldmdbeq	r0, {r1, r2, r4, r8}^
    173c:	385001f3 	ldmdacc	r0, {r0, r1, r4, r5, r6, r7, r8}^
    1740:	5101f324 	tstpl	r1, r4, lsr #6
    1744:	07000021 	streq	r0, [r0, -r1, lsr #32]
    1748:	00000ba7 	andeq	r0, r0, r7, lsr #23
    174c:	00049520 	andeq	r9, r4, r0, lsr #10
    1750:	8cc20100 	stfhie	f0, [r2], {0}
    1754:	4800008b 	stmdami	r0, {r0, r1, r3, r7}
    1758:	01000000 	mrseq	r0, (UNDEF: 0)
    175c:	0014049c 	mulseq	r4, ip, r4
    1760:	726c1100 	rsbvc	r1, ip, #0, 2
    1764:	37c20100 	strbcc	r0, [r2, r0, lsl #2]
    1768:	62000000 	andvs	r0, r0, #0
    176c:	1200000b 	andne	r0, r0, #11
    1770:	00000063 	andeq	r0, r0, r3, rrx
    1774:	00001414 	andeq	r1, r0, r4, lsl r4
    1778:	af800305 	svcge	0x00800305
    177c:	9c100000 	ldcls	0, cr0, [r0], {-0}
    1780:	7800008b 	stmdavc	r0, {r0, r1, r3, r7}
    1784:	10000003 	andne	r0, r0, r3
    1788:	00008ba8 	andeq	r8, r0, r8, lsr #23
    178c:	00000fe6 	andeq	r0, r0, r6, ror #31
    1790:	008bac10 	addeq	sl, fp, r0, lsl ip
    1794:	00144b00 	andseq	r4, r4, r0, lsl #22
    1798:	8bc41500 	blhi	ff106ba0 <__bss_end__+0xff0fa9b0>
    179c:	14520000 	ldrbne	r0, [r2], #-0
    17a0:	13fa0000 	mvnsne	r0, #0
    17a4:	01160000 	tsteq	r6, r0
    17a8:	c5080253 	strgt	r0, [r8, #-595]	; 0x253
    17ac:	05520116 	ldrbeq	r0, [r2, #-278]	; 0x116
    17b0:	00af8003 	adceq	r8, pc, r3
    17b4:	51011600 	tstpl	r1, r0, lsl #12
    17b8:	af940305 	svcge	0x00940305
    17bc:	01160000 	tsteq	r6, r0
    17c0:	10030550 	andne	r0, r3, r0, asr r5
    17c4:	160000b3 			; <UNDEFINED> instruction: 0x160000b3
    17c8:	02007d02 	andeq	r7, r0, #2, 26	; 0x80
    17cc:	10000074 	andne	r0, r0, r4, ror r0
    17d0:	00008bc8 	andeq	r8, r0, r8, asr #23
    17d4:	00001468 	andeq	r1, r0, r8, ror #8
    17d8:	008a1700 	addeq	r1, sl, r0, lsl #14
    17dc:	14140000 	ldrne	r0, [r4], #-0
    17e0:	81180000 	tsthi	r8, r0
    17e4:	13000000 	movwne	r0, #0
    17e8:	14040700 	strne	r0, [r4], #-1792	; 0x700
    17ec:	95250000 	strls	r0, [r5, #-0]!
    17f0:	01000005 	tsteq	r0, r5
    17f4:	00142a07 	andseq	r2, r4, r7, lsl #20
    17f8:	a0030500 	andge	r0, r3, r0, lsl #10
    17fc:	070000ae 	streq	r0, [r0, -lr, lsr #1]
    1800:	00000037 	andeq	r0, r0, r7, lsr r0
    1804:	00004425 	andeq	r4, r0, r5, lsr #8
    1808:	25090100 	strcs	r0, [r9, #-256]	; 0x100
    180c:	05000000 	streq	r0, [r0, #-0]
    1810:	00bdd403 	adcseq	sp, sp, r3, lsl #8
    1814:	03bb2600 			; <UNDEFINED> instruction: 0x03bb2600
    1818:	4e050000 	cdpmi	0, 0, cr0, cr5, cr0, {0}
    181c:	00000257 	andeq	r0, r0, r7, asr r2
    1820:	0001c227 	andeq	ip, r1, r7, lsr #4
    1824:	281e0700 	ldmdacs	lr, {r8, r9, sl}
    1828:	0000094a 	andeq	r0, r0, sl, asr #18
    182c:	00252907 	eoreq	r2, r5, r7, lsl #18
    1830:	14680000 	strbtne	r0, [r8], #-0
    1834:	91290000 	teqls	r9, r0
    1838:	2a000000 	bcs	1840 <__code_start__-0x67c0>
    183c:	00202700 	eoreq	r2, r0, r0, lsl #14
    1840:	65070000 	strvs	r0, [r7, #-0]
    1844:	0003f727 	andeq	pc, r3, r7, lsr #14
    1848:	26520200 	ldrbcs	r0, [r2], -r0, lsl #4
    184c:	00000358 	andeq	r0, r0, r8, asr r3
    1850:	03387306 	teqeq	r8, #402653184	; 0x18000000
    1854:	d52b0000 	strle	r0, [fp, #-0]!
    1858:	06000004 	streq	r0, [r0], -r4
    185c:	00149270 	andseq	r9, r4, r0, ror r2
    1860:	04922900 	ldreq	r2, [r2], #2304	; 0x900
    1864:	2b000000 	blcs	186c <__code_start__-0x6794>
    1868:	00000318 	andeq	r0, r0, r8, lsl r3
    186c:	14ad7a06 	strtne	r7, [sp], #2566	; 0xa06
    1870:	91290000 	teqls	r9, r0
    1874:	29000000 	stmdbcs	r0, {}	; <UNPREDICTABLE>
    1878:	000014ad 	andeq	r1, r0, sp, lsr #9
    187c:	00003729 	andeq	r3, r0, r9, lsr #14
    1880:	04060000 	streq	r0, [r6], #-0
    1884:	000014b3 			; <UNDEFINED> instruction: 0x000014b3
    1888:	04ce282c 	strbeq	r2, [lr], #2092	; 0x82c
    188c:	1b080000 	blne	201894 <__bss_end__+0x1f56a4>
    1890:	00000088 	andeq	r0, r0, r8, lsl #1
    1894:	000014d3 	ldrdeq	r1, [r0], -r3
    1898:	00008829 	andeq	r8, r0, r9, lsr #16
    189c:	00252900 	eoreq	r2, r5, r0, lsl #18
    18a0:	2c290000 	stccs	0, cr0, [r9], #-0
    18a4:	00000000 	andeq	r0, r0, r0
    18a8:	00028c28 	andeq	r8, r2, r8, lsr #24
    18ac:	886d0700 	stmdahi	sp!, {r8, r9, sl}^
    18b0:	ed000000 	stc	0, cr0, [r0, #-0]
    18b4:	29000014 	stmdbcs	r0, {r2, r4}
    18b8:	00000037 	andeq	r0, r0, r7, lsr r0
    18bc:	00003729 	andeq	r3, r0, r9, lsr #14
    18c0:	ea270000 	b	9c18c8 <__bss_end__+0x9b56d8>
    18c4:	02000001 	andeq	r0, r0, #1
    18c8:	03362b5b 	teqeq	r6, #93184	; 0x16c00
    18cc:	50050000 	andpl	r0, r5, r0
    18d0:	00001505 	andeq	r1, r0, r5, lsl #10
    18d4:	00025729 	andeq	r5, r2, r9, lsr #14
    18d8:	b2270000 	eorlt	r0, r7, #0
    18dc:	09000005 	stmdbeq	r0, {r0, r2}
    18e0:	03002b36 	movweq	r2, #2870	; 0xb36
    18e4:	66020000 	strvs	r0, [r2], -r0
    18e8:	0000151d 	andeq	r1, r0, sp, lsl r5
    18ec:	00025729 	andeq	r5, r2, r9, lsr #14
    18f0:	6b2b0000 	blvs	ac18f8 <__bss_end__+0xab5708>
    18f4:	02000005 	andeq	r0, r0, #5
    18f8:	00152e67 	andseq	r2, r5, r7, ror #28
    18fc:	02572900 	subseq	r2, r7, #0, 18
    1900:	2b000000 	blcs	1908 <__code_start__-0x66f8>
    1904:	000002e2 	andeq	r0, r0, r2, ror #5
    1908:	153f5602 	ldrne	r5, [pc, #-1538]!	; 130e <__code_start__-0x6cf2>
    190c:	68290000 	stmdavs	r9!, {}	; <UNPREDICTABLE>
    1910:	00000000 	andeq	r0, r0, r0
    1914:	0002672d 	andeq	r6, r2, sp, lsr #14
    1918:	29600200 	stmdbcs	r0!, {r9}^
    191c:	00000068 	andeq	r0, r0, r8, rrx
    1920:	00049229 	andeq	r9, r4, r9, lsr #4
    1924:	9e000000 	cdpls	0, 0, cr0, cr0, cr0, {0}
    1928:	04000011 	streq	r0, [r0], #-17
    192c:	00039300 	andeq	r9, r3, r0, lsl #6
    1930:	fe010400 	cdp2	4, 0, cr0, cr1, cr0, {0}
    1934:	01000000 	mrseq	r0, (UNDEF: 0)
    1938:	000005bb 			; <UNDEFINED> instruction: 0x000005bb
    193c:	0000007c 	andeq	r0, r0, ip, ror r0
    1940:	00008bd4 	ldrdeq	r8, [r0], -r4
    1944:	00000914 	andeq	r0, r0, r4, lsl r9
    1948:	00000405 	andeq	r0, r0, r5, lsl #8
    194c:	69050402 	stmdbvs	r5, {r1, sl}
    1950:	0300746e 	movweq	r7, #1134	; 0x46e
    1954:	01830704 	orreq	r0, r3, r4, lsl #14
    1958:	01030000 	mrseq	r0, (UNDEF: 3)
    195c:	00001406 	andeq	r1, r0, r6, lsl #8
    1960:	05020300 	streq	r0, [r2, #-768]	; 0x300
    1964:	000001b8 			; <UNDEFINED> instruction: 0x000001b8
    1968:	9e050403 	cdpls	4, 0, cr0, cr5, cr3, {0}
    196c:	03000001 	movweq	r0, #1
    1970:	01990508 	orrseq	r0, r9, r8, lsl #10
    1974:	01030000 	mrseq	r0, (UNDEF: 3)
    1978:	00001208 	andeq	r1, r0, r8, lsl #4
    197c:	07020300 	streq	r0, [r2, -r0, lsl #6]
    1980:	0000002d 	andeq	r0, r0, sp, lsr #32
    1984:	00046604 	andeq	r6, r4, r4, lsl #12
    1988:	68340400 	ldmdavs	r4!, {sl}
    198c:	03000000 	movweq	r0, #0
    1990:	017e0704 	cmneq	lr, r4, lsl #14
    1994:	08030000 	stmdaeq	r3, {}	; <UNPREDICTABLE>
    1998:	00017907 	andeq	r7, r1, r7, lsl #18
    199c:	07040300 	streq	r0, [r4, -r0, lsl #6]
    19a0:	00000190 	muleq	r0, r0, r1
    19a4:	1b080103 	blne	201db8 <__bss_end__+0x1f5bc8>
    19a8:	05000000 	streq	r0, [r0, #-0]
    19ac:	00008a04 	andeq	r8, r0, r4, lsl #20
    19b0:	007d0600 	rsbseq	r0, sp, r0, lsl #12
    19b4:	7d070000 	stcvc	0, cr0, [r7, #-0]
    19b8:	9f000000 	svcls	0x00000000
    19bc:	08000000 	stmdaeq	r0, {}	; <UNPREDICTABLE>
    19c0:	00000076 	andeq	r0, r0, r6, ror r0
    19c4:	7d070019 	stcvc	0, cr0, [r7, #-100]	; 0xffffff9c
    19c8:	af000000 	svcge	0x00000000
    19cc:	08000000 	stmdaeq	r0, {}	; <UNPREDICTABLE>
    19d0:	00000076 	andeq	r0, r0, r6, ror r0
    19d4:	15090018 	strne	r0, [r9, #-24]
    19d8:	04000006 	streq	r0, [r0], #-6
    19dc:	01070802 	tsteq	r7, r2, lsl #16
    19e0:	910a0000 	mrsls	r0, (UNDEF: 10)
    19e4:	02000006 	andeq	r0, r0, #6
    19e8:	00002c0a 	andeq	r2, r0, sl, lsl #24
    19ec:	1f010400 	svcne	0x00010400
    19f0:	05320a00 	ldreq	r0, [r2, #-2560]!	; 0xa00
    19f4:	0b020000 	bleq	819fc <__bss_end__+0x7580c>
    19f8:	0000002c 	andeq	r0, r0, ip, lsr #32
    19fc:	00180704 	andseq	r0, r8, r4, lsl #14
    1a00:	0006a40a 	andeq	sl, r6, sl, lsl #8
    1a04:	2c0c0200 	sfmcs	f0, 4, [ip], {-0}
    1a08:	04000000 	streq	r0, [r0], #-0
    1a0c:	0a001008 	beq	5a34 <__code_start__-0x25cc>
    1a10:	0000069b 	muleq	r0, fp, r6
    1a14:	002c0d02 	eoreq	r0, ip, r2, lsl #26
    1a18:	08040000 	stmdaeq	r4, {}	; <UNPREDICTABLE>
    1a1c:	380a0008 	stmdacc	sl, {r3}
    1a20:	02000005 	andeq	r0, r0, #5
    1a24:	00002c0e 	andeq	r2, r0, lr, lsl #24
    1a28:	00080400 	andeq	r0, r8, r0, lsl #8
    1a2c:	88090000 	stmdahi	r9, {}	; <UNPREDICTABLE>
    1a30:	04000004 	streq	r0, [r0], #-4
    1a34:	02c22a02 	sbceq	r2, r2, #8192	; 0x2000
    1a38:	4e0a0000 	cdpmi	0, 0, cr0, cr10, cr0, {0}
    1a3c:	02000004 	andeq	r0, r0, #4
    1a40:	00002c2c 	andeq	r2, r0, ip, lsr #24
    1a44:	1f010400 	svcne	0x00010400
    1a48:	025b0a00 	subseq	r0, fp, #0, 20
    1a4c:	2d020000 	stccs	0, cr0, [r2, #-0]
    1a50:	0000002c 	andeq	r0, r0, ip, lsr #32
    1a54:	001e0104 	andseq	r0, lr, r4, lsl #2
    1a58:	00055a0a 	andeq	r5, r5, sl, lsl #20
    1a5c:	2c2e0200 	sfmcs	f0, 4, [lr], #-0
    1a60:	04000000 	streq	r0, [r0], #-0
    1a64:	0a001d01 	beq	8e70 <control_reg1_print+0x40>
    1a68:	0000040d 	andeq	r0, r0, sp, lsl #8
    1a6c:	002c3102 	eoreq	r3, ip, r2, lsl #2
    1a70:	01040000 	mrseq	r0, (UNDEF: 4)
    1a74:	c50a001c 	strgt	r0, [sl, #-28]
    1a78:	02000004 	andeq	r0, r0, #4
    1a7c:	00002c32 	andeq	r2, r0, r2, lsr ip
    1a80:	19030400 	stmdbne	r3, {sl}
    1a84:	02370a00 	eorseq	r0, r7, #0, 20
    1a88:	33020000 	movwcc	r0, #8192	; 0x2000
    1a8c:	0000002c 	andeq	r0, r0, ip, lsr #32
    1a90:	00180104 	andseq	r0, r8, r4, lsl #2
    1a94:	0004190a 	andeq	r1, r4, sl, lsl #18
    1a98:	2c340200 	lfmcs	f0, 4, [r4], #-0
    1a9c:	04000000 	streq	r0, [r0], #-0
    1aa0:	0a001701 	beq	76ac <__code_start__-0x954>
    1aa4:	000003d9 	ldrdeq	r0, [r0], -r9
    1aa8:	002c3502 	eoreq	r3, ip, r2, lsl #10
    1aac:	01040000 	mrseq	r0, (UNDEF: 4)
    1ab0:	460b0016 			; <UNDEFINED> instruction: 0x460b0016
    1ab4:	2c360200 	lfmcs	f0, 4, [r6], #-0
    1ab8:	04000000 	streq	r0, [r0], #-0
    1abc:	0a001501 	beq	6ec8 <__code_start__-0x1138>
    1ac0:	000001d7 	ldrdeq	r0, [r0], -r7
    1ac4:	002c3702 	eoreq	r3, ip, r2, lsl #14
    1ac8:	01040000 	mrseq	r0, (UNDEF: 4)
    1acc:	4b0a0014 	blmi	281b24 <__bss_end__+0x275934>
    1ad0:	02000002 	andeq	r0, r0, #2
    1ad4:	00002c38 	andeq	r2, r0, r8, lsr ip
    1ad8:	13010400 	movwne	r0, #5120	; 0x1400
    1adc:	02270a00 	eoreq	r0, r7, #0, 20
    1ae0:	39020000 	stmdbcc	r2, {}	; <UNPREDICTABLE>
    1ae4:	0000002c 	andeq	r0, r0, ip, lsr #32
    1ae8:	00120104 	andseq	r0, r2, r4, lsl #2
    1aec:	0003230a 	andeq	r2, r3, sl, lsl #6
    1af0:	2c3a0200 	lfmcs	f0, 4, [sl], #-0
    1af4:	04000000 	streq	r0, [r0], #-0
    1af8:	0b001101 	bleq	5f04 <__code_start__-0x20fc>
    1afc:	0200344c 	andeq	r3, r0, #76, 8	; 0x4c000000
    1b00:	00002c3b 	andeq	r2, r0, fp, lsr ip
    1b04:	10010400 	andne	r0, r1, r0, lsl #8
    1b08:	645f0b00 	ldrbvs	r0, [pc], #-2816	; 1b10 <__code_start__-0x64f0>
    1b0c:	3c020074 	stccc	0, cr0, [r2], {116}	; 0x74
    1b10:	0000002c 	andeq	r0, r0, ip, lsr #32
    1b14:	000f0104 	andeq	r0, pc, r4, lsl #2
    1b18:	0005320a 	andeq	r3, r5, sl, lsl #4
    1b1c:	2c3d0200 	lfmcs	f0, 4, [sp], #-0
    1b20:	04000000 	streq	r0, [r0], #-0
    1b24:	0b000e01 	bleq	5330 <__code_start__-0x2cd0>
    1b28:	0074695f 	rsbseq	r6, r4, pc, asr r9
    1b2c:	002c3e02 	eoreq	r3, ip, r2, lsl #28
    1b30:	01040000 	mrseq	r0, (UNDEF: 4)
    1b34:	380a000d 	stmdacc	sl, {r0, r2, r3}
    1b38:	02000005 	andeq	r0, r0, #5
    1b3c:	00002c3f 	andeq	r2, r0, pc, lsr ip
    1b40:	0c010400 	cfstrseq	mvf0, [r1], {-0}
    1b44:	735f0b00 	cmpvc	pc, #0, 22
    1b48:	40020074 	andmi	r0, r2, r4, ror r0
    1b4c:	0000002c 	andeq	r0, r0, ip, lsr #32
    1b50:	000b0104 	andeq	r0, fp, r4, lsl #2
    1b54:	0031460b 	eorseq	r4, r1, fp, lsl #12
    1b58:	002c4102 	eoreq	r4, ip, r2, lsl #2
    1b5c:	01040000 	mrseq	r0, (UNDEF: 4)
    1b60:	5a0a000a 	bpl	281b90 <__bss_end__+0x2759a0>
    1b64:	02000004 	andeq	r0, r0, #4
    1b68:	00002c42 	andeq	r2, r0, r2, asr #24
    1b6c:	09010400 	stmdbeq	r1, {sl}
    1b70:	046f0a00 	strbteq	r0, [pc], #-2560	; 1b78 <__code_start__-0x6488>
    1b74:	43020000 	movwmi	r0, #8192	; 0x2000
    1b78:	0000002c 	andeq	r0, r0, ip, lsr #32
    1b7c:	00080104 	andeq	r0, r8, r4, lsl #2
    1b80:	0003cd0a 	andeq	ip, r3, sl, lsl #26
    1b84:	2c450200 	sfmcs	f0, 2, [r5], {-0}
    1b88:	04000000 	streq	r0, [r0], #-0
    1b8c:	0b000701 	bleq	3798 <__code_start__-0x4868>
    1b90:	02004545 	andeq	r4, r0, #289406976	; 0x11400000
    1b94:	00002c46 	andeq	r2, r0, r6, asr #24
    1b98:	06010400 	streq	r0, [r1], -r0, lsl #8
    1b9c:	054f0a00 	strbeq	r0, [pc, #-2560]	; 11a4 <__code_start__-0x6e5c>
    1ba0:	47020000 	strmi	r0, [r2, -r0]
    1ba4:	0000002c 	andeq	r0, r0, ip, lsr #32
    1ba8:	00050104 	andeq	r0, r5, r4, lsl #2
    1bac:	00036c0a 	andeq	r6, r3, sl, lsl #24
    1bb0:	2c480200 	sfmcs	f0, 2, [r8], {-0}
    1bb4:	04000000 	streq	r0, [r0], #-0
    1bb8:	0a000401 	beq	2bc4 <__code_start__-0x543c>
    1bbc:	00000475 	andeq	r0, r0, r5, ror r4
    1bc0:	002c4902 	eoreq	r4, ip, r2, lsl #18
    1bc4:	01040000 	mrseq	r0, (UNDEF: 4)
    1bc8:	eb0a0003 	bl	281bdc <__bss_end__+0x2759ec>
    1bcc:	02000003 	andeq	r0, r0, #3
    1bd0:	00002c4a 	andeq	r2, r0, sl, asr #24
    1bd4:	02010400 	andeq	r0, r1, #0, 8
    1bd8:	03770a00 	cmneq	r7, #0, 20
    1bdc:	4b020000 	blmi	81be4 <__bss_end__+0x759f4>
    1be0:	0000002c 	andeq	r0, r0, ip, lsr #32
    1be4:	00000204 	andeq	r0, r0, r4, lsl #4
    1be8:	03880900 	orreq	r0, r8, #0, 18
    1bec:	03040000 	movweq	r0, #16384	; 0x4000
    1bf0:	00039846 	andeq	r9, r3, r6, asr #16
    1bf4:	61740b00 	cmnvs	r4, r0, lsl #22
    1bf8:	48030067 	stmdami	r3, {r0, r1, r2, r5, r6}
    1bfc:	0000002c 	andeq	r0, r0, ip, lsr #32
    1c00:	001e0204 	andseq	r0, lr, r4, lsl #4
    1c04:	0300420b 	movweq	r4, #523	; 0x20b
    1c08:	00002c49 	andeq	r2, r0, r9, asr #24
    1c0c:	1d010400 	cfstrsne	mvf0, [r1, #-0]
    1c10:	00430b00 	subeq	r0, r3, r0, lsl #22
    1c14:	002c4a03 	eoreq	r4, ip, r3, lsl #20
    1c18:	01040000 	mrseq	r0, (UNDEF: 4)
    1c1c:	580b001c 	stmdapl	fp, {r2, r3, r4}
    1c20:	4b03004e 	blmi	c1d60 <__bss_end__+0xb5b70>
    1c24:	0000002c 	andeq	r0, r0, ip, lsr #32
    1c28:	001b0104 	andseq	r0, fp, r4, lsl #2
    1c2c:	00052b0a 	andeq	r2, r5, sl, lsl #22
    1c30:	2c4e0300 	mcrrcs	3, 0, r0, lr, cr0
    1c34:	04000000 	streq	r0, [r0], #-0
    1c38:	0b001704 	bleq	7850 <__code_start__-0x7b0>
    1c3c:	00504d49 	subseq	r4, r0, r9, asr #26
    1c40:	002c4f03 	eoreq	r4, ip, r3, lsl #30
    1c44:	01040000 	mrseq	r0, (UNDEF: 4)
    1c48:	410b0016 	tstmi	fp, r6, lsl r0
    1c4c:	52030050 	andpl	r0, r3, #80	; 0x50
    1c50:	0000002c 	andeq	r0, r0, ip, lsr #32
    1c54:	00140204 	andseq	r0, r4, r4, lsl #4
    1c58:	5845540b 	stmdapl	r5, {r0, r1, r3, sl, ip, lr}^
    1c5c:	2c530300 	mrrccs	3, 0, r0, r3, cr0
    1c60:	04000000 	streq	r0, [r0], #-0
    1c64:	0b001103 	bleq	6078 <__code_start__-0x1f88>
    1c68:	00585041 	subseq	r5, r8, r1, asr #32
    1c6c:	002c5403 	eoreq	r5, ip, r3, lsl #8
    1c70:	01040000 	mrseq	r0, (UNDEF: 4)
    1c74:	530b0010 	movwpl	r0, #45072	; 0xb010
    1c78:	2c550300 	mrrccs	3, 0, r0, r5, cr0
    1c7c:	04000000 	streq	r0, [r0], #-0
    1c80:	0b000f01 	bleq	588c <__code_start__-0x2774>
    1c84:	0300476e 	movweq	r4, #1902	; 0x76e
    1c88:	00002c56 	andeq	r2, r0, r6, asr ip
    1c8c:	0e010400 	cfcpyseq	mvf0, mvf1
    1c90:	03300a00 	teqeq	r0, #0, 20
    1c94:	57030000 	strpl	r0, [r3, -r0]
    1c98:	0000002c 	andeq	r0, r0, ip, lsr #32
    1c9c:	000d0104 	andeq	r0, sp, r4, lsl #2
    1ca0:	0005380a 	andeq	r3, r5, sl, lsl #16
    1ca4:	2c580300 	mrrccs	3, 0, r0, r8, cr0
    1ca8:	04000000 	streq	r0, [r0], #-0
    1cac:	0a000c01 	beq	4cb8 <__code_start__-0x3348>
    1cb0:	0000029c 	muleq	r0, ip, r2
    1cb4:	002c5903 	eoreq	r5, ip, r3, lsl #18
    1cb8:	0c040000 	stceq	0, cr0, [r4], {-0}
    1cbc:	04000000 	streq	r0, [r0], #-0
    1cc0:	000002fa 	strdeq	r0, [r0], -sl
    1cc4:	02c25a03 	sbceq	r5, r2, #12288	; 0x3000
    1cc8:	180c0000 	stmdane	ip, {}	; <UNPREDICTABLE>
    1ccc:	01000003 	tsteq	r0, r3
    1cd0:	008bd40f 	addeq	sp, fp, pc, lsl #8
    1cd4:	00003400 	andeq	r3, r0, r0, lsl #8
    1cd8:	1e9c0100 	fmlnee	f0, f4, f0
    1cdc:	0d000004 	stceq	0, cr0, [r0, #-16]
    1ce0:	0067736d 	rsbeq	r7, r7, sp, ror #6
    1ce4:	00840f01 	addeq	r0, r4, r1, lsl #30
    1ce8:	0b800000 	bleq	fe001cf0 <__bss_end__+0xfdff5b00>
    1cec:	1e0e0000 	cdpne	0, 0, cr0, cr14, cr0, {0}
    1cf0:	01000012 	tsteq	r0, r2, lsl r0
    1cf4:	00041e0f 	andeq	r1, r4, pc, lsl #28
    1cf8:	000b9e00 	andeq	r9, fp, r0, lsl #28
    1cfc:	006e0d00 	rsbeq	r0, lr, r0, lsl #26
    1d00:	002c0f01 	eoreq	r0, ip, r1, lsl #30
    1d04:	0bca0000 	bleq	ff281d0c <__bss_end__+0xff275b1c>
    1d08:	ec0f0000 	stc	0, cr0, [pc], {-0}
    1d0c:	5800008b 	stmdapl	r0, {r0, r1, r3, r7}
    1d10:	fe000011 	mcr2	0, 0, r0, cr0, cr1, {0}
    1d14:	10000003 	andne	r0, r0, r3
    1d18:	74025101 	strvc	r5, [r2], #-257	; 0x101
    1d1c:	50011000 	andpl	r1, r1, r0
    1d20:	5101f303 	tstpl	r1, r3, lsl #6
    1d24:	8c001100 	stfhis	f1, [r0], {-0}
    1d28:	11720000 	cmnne	r2, r0
    1d2c:	01100000 	tsteq	r0, r0
    1d30:	00740253 	rsbseq	r0, r4, r3, asr r2
    1d34:	02510110 	subseq	r0, r1, #16, 2
    1d38:	01100075 	tsteq	r0, r5, ror r0
    1d3c:	48030550 	stmdami	r3, {r4, r6, r8, sl}
    1d40:	000000b3 	strheq	r0, [r0], -r3
    1d44:	24040500 	strcs	r0, [r4], #-1280	; 0x500
    1d48:	12000004 	andne	r0, r0, #4
    1d4c:	0006540c 	andeq	r5, r6, ip, lsl #8
    1d50:	08170100 	ldmdaeq	r7, {r8}
    1d54:	2800008c 	stmdacs	r0, {r2, r3, r7}
    1d58:	01000000 	mrseq	r0, (UNDEF: 0)
    1d5c:	00046e9c 	muleq	r4, ip, lr
    1d60:	8c140f00 	ldchi	15, cr0, [r4], {-0}
    1d64:	11720000 	cmnne	r2, r0
    1d68:	04510000 	ldrbeq	r0, [r1], #-0
    1d6c:	01100000 	tsteq	r0, r0
    1d70:	64030550 	strvs	r0, [r3], #-1360	; 0x550
    1d74:	000000b3 	strheq	r0, [r0], -r3
    1d78:	008c1813 	addeq	r1, ip, r3, lsl r8
    1d7c:	00118800 	andseq	r8, r1, r0, lsl #16
    1d80:	8c241100 	stfhis	f1, [r4], #-0
    1d84:	11720000 	cmnne	r2, r0
    1d88:	01100000 	tsteq	r0, r0
    1d8c:	7c030550 	cfstr32vc	mvfx0, [r3], {80}	; 0x50
    1d90:	000000b3 	strheq	r0, [r0], -r3
    1d94:	06651400 	strbteq	r1, [r5], -r0, lsl #8
    1d98:	20010000 	andcs	r0, r1, r0
    1d9c:	00008c30 	andeq	r8, r0, r0, lsr ip
    1da0:	00000008 	andeq	r0, r0, r8
    1da4:	04939c01 	ldreq	r9, [r3], #3073	; 0xc01
    1da8:	63150000 	tstvs	r5, #0
    1dac:	a3000000 	movwge	r0, #0
    1db0:	05000004 	streq	r0, [r0, #-4]
    1db4:	00b74c03 	adcseq	r4, r7, r3, lsl #24
    1db8:	7d070000 	stcvc	0, cr0, [r7, #-0]
    1dbc:	a3000000 	movwge	r0, #0
    1dc0:	08000004 	stmdaeq	r0, {r2}
    1dc4:	00000076 	andeq	r0, r0, r6, ror r0
    1dc8:	9306001a 	movwls	r0, #24602	; 0x601a
    1dcc:	14000004 	strne	r0, [r0], #-4
    1dd0:	000005e5 	andeq	r0, r0, r5, ror #11
    1dd4:	8c383901 	ldchi	9, cr3, [r8], #-4
    1dd8:	01f80000 	mvnseq	r0, r0
    1ddc:	9c010000 	stcls	0, cr0, [r1], {-0}
    1de0:	0000077d 	andeq	r0, r0, sp, ror r7
    1de4:	0100720d 	tsteq	r0, sp, lsl #4
    1de8:	00077d39 	andeq	r7, r7, r9, lsr sp
    1dec:	000be800 	andeq	lr, fp, r0, lsl #16
    1df0:	00631500 	rsbeq	r1, r3, r0, lsl #10
    1df4:	07830000 	streq	r0, [r3, r0]
    1df8:	03050000 	movweq	r0, #20480	; 0x5000
    1dfc:	0000b720 	andeq	fp, r0, r0, lsr #14
    1e00:	008c5813 	addeq	r5, ip, r3, lsl r8
    1e04:	00119300 	andseq	r9, r1, r0, lsl #6
    1e08:	8c740f00 	ldclhi	15, cr0, [r4], #-0
    1e0c:	11720000 	cmnne	r2, r0
    1e10:	051b0000 	ldreq	r0, [fp, #-0]
    1e14:	01100000 	tsteq	r0, r0
    1e18:	3b080253 	blcc	20276c <__bss_end__+0x1f657c>
    1e1c:	05520110 	ldrbeq	r0, [r2, #-272]	; 0x110
    1e20:	00b72003 	adcseq	r2, r7, r3
    1e24:	51011000 	mrspl	r1, (UNDEF: 1)
    1e28:	b3cc0305 	biclt	r0, ip, #335544320	; 0x14000000
    1e2c:	01100000 	tsteq	r0, r0
    1e30:	e8030550 	stmda	r3, {r4, r6, r8, sl}
    1e34:	100000ad 	andne	r0, r0, sp, lsr #1
    1e38:	05007d02 	streq	r7, [r0, #-3330]	; 0xd02
    1e3c:	00b4e003 	adcseq	lr, r4, r3
    1e40:	78130000 	ldmdavc	r3, {}	; <UNPREDICTABLE>
    1e44:	9a00008c 	bls	207c <__code_start__-0x5f84>
    1e48:	13000011 	movwne	r0, #17
    1e4c:	00008c88 	andeq	r8, r0, r8, lsl #25
    1e50:	00001193 	muleq	r0, r3, r1
    1e54:	008ca40f 	addeq	sl, ip, pc, lsl #8
    1e58:	00117200 	andseq	r7, r1, r0, lsl #4
    1e5c:	00056600 	andeq	r6, r5, r0, lsl #12
    1e60:	53011000 	movwpl	r1, #4096	; 0x1000
    1e64:	103c0802 	eorsne	r0, ip, r2, lsl #16
    1e68:	03055201 	movweq	r5, #20993	; 0x5201
    1e6c:	0000b720 	andeq	fp, r0, r0, lsr #14
    1e70:	05510110 	ldrbeq	r0, [r1, #-272]	; 0x110
    1e74:	00b3cc03 	adcseq	ip, r3, r3, lsl #24
    1e78:	50011000 	andpl	r1, r1, r0
    1e7c:	ade80305 	stclge	3, cr0, [r8, #20]!
    1e80:	02100000 	andseq	r0, r0, #0
    1e84:	0305007d 	movweq	r0, #20605	; 0x507d
    1e88:	0000b4f8 	strdeq	fp, [r0], -r8
    1e8c:	8ca81300 	stchi	3, cr1, [r8]
    1e90:	119a0000 	orrsne	r0, sl, r0
    1e94:	b8130000 	ldmdalt	r3, {}	; <UNPREDICTABLE>
    1e98:	9300008c 	movwls	r0, #140	; 0x8c
    1e9c:	0f000011 	svceq	0x00000011
    1ea0:	00008cd4 	ldrdeq	r8, [r0], -r4
    1ea4:	00001172 	andeq	r1, r0, r2, ror r1
    1ea8:	000005b1 			; <UNDEFINED> instruction: 0x000005b1
    1eac:	02530110 	subseq	r0, r3, #16, 2
    1eb0:	01103d08 	tsteq	r0, r8, lsl #26
    1eb4:	20030552 	andcs	r0, r3, r2, asr r5
    1eb8:	100000b7 	strhne	r0, [r0], -r7
    1ebc:	03055101 	movweq	r5, #20737	; 0x5101
    1ec0:	0000b3cc 	andeq	fp, r0, ip, asr #7
    1ec4:	05500110 	ldrbeq	r0, [r0, #-272]	; 0x110
    1ec8:	00ade803 	adceq	lr, sp, r3, lsl #16
    1ecc:	7d021000 	stcvc	0, cr1, [r2, #-0]
    1ed0:	04030500 	streq	r0, [r3], #-1280	; 0x500
    1ed4:	000000b5 	strheq	r0, [r0], -r5
    1ed8:	008cd813 	addeq	sp, ip, r3, lsl r8
    1edc:	00119a00 	andseq	r9, r1, r0, lsl #20
    1ee0:	8ce81300 	stclhi	3, cr1, [r8]
    1ee4:	11930000 	orrsne	r0, r3, r0
    1ee8:	040f0000 	streq	r0, [pc], #-0	; 1ef0 <__code_start__-0x6110>
    1eec:	7200008d 	andvc	r0, r0, #141	; 0x8d
    1ef0:	fc000011 	stc2	0, cr0, [r0], {17}
    1ef4:	10000005 	andne	r0, r0, r5
    1ef8:	08025301 	stmdaeq	r2, {r0, r8, r9, ip, lr}
    1efc:	52011040 	andpl	r1, r1, #64	; 0x40
    1f00:	b7200305 	strlt	r0, [r0, -r5, lsl #6]!
    1f04:	01100000 	tsteq	r0, r0
    1f08:	cc030551 	cfstr32gt	mvfx0, [r3], {81}	; 0x51
    1f0c:	100000b3 	strhne	r0, [r0], -r3
    1f10:	03055001 	movweq	r5, #20481	; 0x5001
    1f14:	0000ade8 	andeq	sl, r0, r8, ror #27
    1f18:	007d0210 	rsbseq	r0, sp, r0, lsl r2
    1f1c:	b5100305 	ldrlt	r0, [r0, #-773]	; 0x305
    1f20:	13000000 	movwne	r0, #0
    1f24:	00008d08 	andeq	r8, r0, r8, lsl #26
    1f28:	0000119a 	muleq	r0, sl, r1
    1f2c:	008d1813 	addeq	r1, sp, r3, lsl r8
    1f30:	00119300 	andseq	r9, r1, r0, lsl #6
    1f34:	8d340f00 	ldchi	15, cr0, [r4, #-0]
    1f38:	11720000 	cmnne	r2, r0
    1f3c:	06470000 	strbeq	r0, [r7], -r0
    1f40:	01100000 	tsteq	r0, r0
    1f44:	41080253 	tstmi	r8, r3, asr r2
    1f48:	05520110 	ldrbeq	r0, [r2, #-272]	; 0x110
    1f4c:	00b72003 	adcseq	r2, r7, r3
    1f50:	51011000 	mrspl	r1, (UNDEF: 1)
    1f54:	b3cc0305 	biclt	r0, ip, #335544320	; 0x14000000
    1f58:	01100000 	tsteq	r0, r0
    1f5c:	e8030550 	stmda	r3, {r4, r6, r8, sl}
    1f60:	100000ad 	andne	r0, r0, sp, lsr #1
    1f64:	05007d02 	streq	r7, [r0, #-3330]	; 0xd02
    1f68:	00b52003 	adcseq	r2, r5, r3
    1f6c:	38130000 	ldmdacc	r3, {}	; <UNPREDICTABLE>
    1f70:	9a00008d 	bls	21ac <__code_start__-0x5e54>
    1f74:	13000011 	movwne	r0, #17
    1f78:	00008d48 	andeq	r8, r0, r8, asr #26
    1f7c:	00001193 	muleq	r0, r3, r1
    1f80:	008d640f 	addeq	r6, sp, pc, lsl #8
    1f84:	00117200 	andseq	r7, r1, r0, lsl #4
    1f88:	00069200 	andeq	r9, r6, r0, lsl #4
    1f8c:	53011000 	movwpl	r1, #4096	; 0x1000
    1f90:	10420802 	subne	r0, r2, r2, lsl #16
    1f94:	03055201 	movweq	r5, #20993	; 0x5201
    1f98:	0000b720 	andeq	fp, r0, r0, lsr #14
    1f9c:	05510110 	ldrbeq	r0, [r1, #-272]	; 0x110
    1fa0:	00b3cc03 	adcseq	ip, r3, r3, lsl #24
    1fa4:	50011000 	andpl	r1, r1, r0
    1fa8:	ade80305 	stclge	3, cr0, [r8, #20]!
    1fac:	02100000 	andseq	r0, r0, #0
    1fb0:	0305007d 	movweq	r0, #20605	; 0x507d
    1fb4:	0000b530 	andeq	fp, r0, r0, lsr r5
    1fb8:	8d681300 	stclhi	3, cr1, [r8, #-0]
    1fbc:	119a0000 	orrsne	r0, sl, r0
    1fc0:	78130000 	ldmdavc	r3, {}	; <UNPREDICTABLE>
    1fc4:	9300008d 	movwls	r0, #141	; 0x8d
    1fc8:	0f000011 	svceq	0x00000011
    1fcc:	00008d94 	muleq	r0, r4, sp
    1fd0:	00001172 	andeq	r1, r0, r2, ror r1
    1fd4:	000006dd 	ldrdeq	r0, [r0], -sp
    1fd8:	02530110 	subseq	r0, r3, #16, 2
    1fdc:	01104b08 	tsteq	r0, r8, lsl #22
    1fe0:	20030552 	andcs	r0, r3, r2, asr r5
    1fe4:	100000b7 	strhne	r0, [r0], -r7
    1fe8:	03055101 	movweq	r5, #20737	; 0x5101
    1fec:	0000b3cc 	andeq	fp, r0, ip, asr #7
    1ff0:	05500110 	ldrbeq	r0, [r0, #-272]	; 0x110
    1ff4:	00ade803 	adceq	lr, sp, r3, lsl #16
    1ff8:	7d021000 	stcvc	0, cr1, [r2, #-0]
    1ffc:	3c030500 	cfstr32cc	mvfx0, [r3], {-0}
    2000:	000000b5 	strheq	r0, [r0], -r5
    2004:	008d9813 	addeq	r9, sp, r3, lsl r8
    2008:	00119a00 	andseq	r9, r1, r0, lsl #20
    200c:	8da81300 	stchi	3, cr1, [r8]
    2010:	11930000 	orrsne	r0, r3, r0
    2014:	c40f0000 	strgt	r0, [pc], #-0	; 201c <__code_start__-0x5fe4>
    2018:	7200008d 	andvc	r0, r0, #141	; 0x8d
    201c:	28000011 	stmdacs	r0, {r0, r4}
    2020:	10000007 	andne	r0, r0, r7
    2024:	08025301 	stmdaeq	r2, {r0, r8, r9, ip, lr}
    2028:	5201104c 	andpl	r1, r1, #76	; 0x4c
    202c:	b7200305 	strlt	r0, [r0, -r5, lsl #6]!
    2030:	01100000 	tsteq	r0, r0
    2034:	cc030551 	cfstr32gt	mvfx0, [r3], {81}	; 0x51
    2038:	100000b3 	strhne	r0, [r0], -r3
    203c:	03055001 	movweq	r5, #20481	; 0x5001
    2040:	0000ade8 	andeq	sl, r0, r8, ror #27
    2044:	007d0210 	rsbseq	r0, sp, r0, lsl r2
    2048:	b54c0305 	strblt	r0, [ip, #-773]	; 0x305
    204c:	13000000 	movwne	r0, #0
    2050:	00008dc8 	andeq	r8, r0, r8, asr #27
    2054:	0000119a 	muleq	r0, sl, r1
    2058:	008dd813 	addeq	sp, sp, r3, lsl r8
    205c:	00119300 	andseq	r9, r1, r0, lsl #6
    2060:	8df40f00 	ldclhi	15, cr0, [r4]
    2064:	11720000 	cmnne	r2, r0
    2068:	07730000 	ldrbeq	r0, [r3, -r0]!
    206c:	01100000 	tsteq	r0, r0
    2070:	4d080253 	sfmmi	f0, 4, [r8, #-332]	; 0xfffffeb4
    2074:	05520110 	ldrbeq	r0, [r2, #-272]	; 0x110
    2078:	00b72003 	adcseq	r2, r7, r3
    207c:	51011000 	mrspl	r1, (UNDEF: 1)
    2080:	b3cc0305 	biclt	r0, ip, #335544320	; 0x14000000
    2084:	01100000 	tsteq	r0, r0
    2088:	e8030550 	stmda	r3, {r4, r6, r8, sl}
    208c:	100000ad 	andne	r0, r0, sp, lsr #1
    2090:	05007d02 	streq	r7, [r0, #-3330]	; 0xd02
    2094:	00b56003 	adcseq	r6, r5, r3
    2098:	f8130000 			; <UNDEFINED> instruction: 0xf8130000
    209c:	9a00008d 	bls	22d8 <__code_start__-0x5d28>
    20a0:	00000011 	andeq	r0, r0, r1, lsl r0
    20a4:	01070405 	tsteq	r7, r5, lsl #8
    20a8:	8f060000 	svchi	0x00060000
    20ac:	0c000000 	stceq	0, cr0, [r0], {-0}
    20b0:	00000628 	andeq	r0, r0, r8, lsr #12
    20b4:	8e305001 	cdphi	0, 3, cr5, cr0, cr1, {0}
    20b8:	02040000 	andeq	r0, r4, #0
    20bc:	9c010000 	stcls	0, cr0, [r1], {-0}
    20c0:	00000a12 	andeq	r0, r0, r2, lsl sl
    20c4:	0100720d 	tsteq	r0, sp, lsl #4
    20c8:	00077d50 	andeq	r7, r7, r0, asr sp
    20cc:	000cdc00 	andeq	sp, ip, r0, lsl #24
    20d0:	8e3c0f00 	cdphi	15, 3, cr0, cr12, cr0, {0}
    20d4:	04a80000 	strteq	r0, [r8], #0
    20d8:	07be0000 	ldreq	r0, [lr, r0]!
    20dc:	01100000 	tsteq	r0, r0
    20e0:	00740250 	rsbseq	r0, r4, r0, asr r2
    20e4:	8e440f00 	cdphi	15, 4, cr0, cr4, cr0, {0}
    20e8:	11720000 	cmnne	r2, r0
    20ec:	07d50000 	ldrbeq	r0, [r5, r0]
    20f0:	01100000 	tsteq	r0, r0
    20f4:	78030550 	stmdavc	r3, {r4, r6, r8, sl}
    20f8:	000000b5 	strheq	r0, [r0], -r5
    20fc:	008e5c0f 	addeq	r5, lr, pc, lsl #24
    2100:	00117200 	andseq	r7, r1, r0, lsl #4
    2104:	0007f500 	andeq	pc, r7, r0, lsl #10
    2108:	52011000 	andpl	r1, r1, #0
    210c:	b4d40305 	ldrblt	r0, [r4], #773	; 0x305
    2110:	01100000 	tsteq	r0, r0
    2114:	90030550 	andls	r0, r3, r0, asr r5
    2118:	000000b5 	strheq	r0, [r0], -r5
    211c:	008e740f 	addeq	r7, lr, pc, lsl #8
    2120:	00117200 	andseq	r7, r1, r0, lsl #4
    2124:	00081500 	andeq	r1, r8, r0, lsl #10
    2128:	52011000 	andpl	r1, r1, #0
    212c:	b4c40305 	strblt	r0, [r4], #773	; 0x305
    2130:	01100000 	tsteq	r0, r0
    2134:	90030550 	andls	r0, r3, r0, asr r5
    2138:	000000b5 	strheq	r0, [r0], -r5
    213c:	008e8c0f 	addeq	r8, lr, pc, lsl #24
    2140:	00117200 	andseq	r7, r1, r0, lsl #4
    2144:	00083500 	andeq	r3, r8, r0, lsl #10
    2148:	52011000 	andpl	r1, r1, #0
    214c:	b5400305 	strblt	r0, [r0, #-773]	; 0x305
    2150:	01100000 	tsteq	r0, r0
    2154:	90030550 	andls	r0, r3, r0, asr r5
    2158:	000000b5 	strheq	r0, [r0], -r5
    215c:	008ea40f 	addeq	sl, lr, pc, lsl #8
    2160:	00117200 	andseq	r7, r1, r0, lsl #4
    2164:	00085500 	andeq	r5, r8, r0, lsl #10
    2168:	52011000 	andpl	r1, r1, #0
    216c:	b4c00305 	strblt	r0, [r0], #773	; 0x305
    2170:	01100000 	tsteq	r0, r0
    2174:	90030550 	andls	r0, r3, r0, asr r5
    2178:	000000b5 	strheq	r0, [r0], -r5
    217c:	008eb80f 	addeq	fp, lr, pc, lsl #16
    2180:	00117200 	andseq	r7, r1, r0, lsl #4
    2184:	00087500 	andeq	r7, r8, r0, lsl #10
    2188:	52011000 	andpl	r1, r1, #0
    218c:	b4b40305 	ldrtlt	r0, [r4], #773	; 0x305
    2190:	01100000 	tsteq	r0, r0
    2194:	90030550 	andls	r0, r3, r0, asr r5
    2198:	000000b5 	strheq	r0, [r0], -r5
    219c:	008ecc0f 	addeq	ip, lr, pc, lsl #24
    21a0:	00117200 	andseq	r7, r1, r0, lsl #4
    21a4:	00089500 	andeq	r9, r8, r0, lsl #10
    21a8:	52011000 	andpl	r1, r1, #0
    21ac:	b4ac0305 	strtlt	r0, [ip], #773	; 0x305
    21b0:	01100000 	tsteq	r0, r0
    21b4:	90030550 	andls	r0, r3, r0, asr r5
    21b8:	000000b5 	strheq	r0, [r0], -r5
    21bc:	008ee40f 	addeq	lr, lr, pc, lsl #8
    21c0:	00117200 	andseq	r7, r1, r0, lsl #4
    21c4:	0008b500 	andeq	fp, r8, r0, lsl #10
    21c8:	52011000 	andpl	r1, r1, #0
    21cc:	b4a00305 	strtlt	r0, [r0], #773	; 0x305
    21d0:	01100000 	tsteq	r0, r0
    21d4:	90030550 	andls	r0, r3, r0, asr r5
    21d8:	000000b5 	strheq	r0, [r0], -r5
    21dc:	008efc0f 	addeq	pc, lr, pc, lsl #24
    21e0:	00117200 	andseq	r7, r1, r0, lsl #4
    21e4:	0008d500 	andeq	sp, r8, r0, lsl #10
    21e8:	52011000 	andpl	r1, r1, #0
    21ec:	b49c0305 	ldrlt	r0, [ip], #773	; 0x305
    21f0:	01100000 	tsteq	r0, r0
    21f4:	90030550 	andls	r0, r3, r0, asr r5
    21f8:	000000b5 	strheq	r0, [r0], -r5
    21fc:	008f140f 	addeq	r1, pc, pc, lsl #8
    2200:	00117200 	andseq	r7, r1, r0, lsl #4
    2204:	0008f500 	andeq	pc, r8, r0, lsl #10
    2208:	52011000 	andpl	r1, r1, #0
    220c:	b4880305 	strlt	r0, [r8], #773	; 0x305
    2210:	01100000 	tsteq	r0, r0
    2214:	90030550 	andls	r0, r3, r0, asr r5
    2218:	000000b5 	strheq	r0, [r0], -r5
    221c:	008f2c0f 	addeq	r2, pc, pc, lsl #24
    2220:	00117200 	andseq	r7, r1, r0, lsl #4
    2224:	00091500 	andeq	r1, r9, r0, lsl #10
    2228:	52011000 	andpl	r1, r1, #0
    222c:	b5500305 	ldrblt	r0, [r0, #-773]	; 0x305
    2230:	01100000 	tsteq	r0, r0
    2234:	90030550 	andls	r0, r3, r0, asr r5
    2238:	000000b5 	strheq	r0, [r0], -r5
    223c:	008f440f 	addeq	r4, pc, pc, lsl #8
    2240:	00117200 	andseq	r7, r1, r0, lsl #4
    2244:	00093500 	andeq	r3, r9, r0, lsl #10
    2248:	52011000 	andpl	r1, r1, #0
    224c:	b4680305 	strbtlt	r0, [r8], #-773	; 0x305
    2250:	01100000 	tsteq	r0, r0
    2254:	90030550 	andls	r0, r3, r0, asr r5
    2258:	000000b5 	strheq	r0, [r0], -r5
    225c:	008f5c0f 	addeq	r5, pc, pc, lsl #24
    2260:	00117200 	andseq	r7, r1, r0, lsl #4
    2264:	00095500 	andeq	r5, r9, r0, lsl #10
    2268:	52011000 	andpl	r1, r1, #0
    226c:	b4580305 	ldrblt	r0, [r8], #-773	; 0x305
    2270:	01100000 	tsteq	r0, r0
    2274:	90030550 	andls	r0, r3, r0, asr r5
    2278:	000000b5 	strheq	r0, [r0], -r5
    227c:	008f700f 	addeq	r7, pc, pc
    2280:	00117200 	andseq	r7, r1, r0, lsl #4
    2284:	00097500 	andeq	r7, r9, r0, lsl #10
    2288:	52011000 	andpl	r1, r1, #0
    228c:	b4500305 	ldrblt	r0, [r0], #-773	; 0x305
    2290:	01100000 	tsteq	r0, r0
    2294:	90030550 	andls	r0, r3, r0, asr r5
    2298:	000000b5 	strheq	r0, [r0], -r5
    229c:	008f840f 	addeq	r8, pc, pc, lsl #8
    22a0:	00117200 	andseq	r7, r1, r0, lsl #4
    22a4:	00099500 	andeq	r9, r9, r0, lsl #10
    22a8:	52011000 	andpl	r1, r1, #0
    22ac:	b4440305 	strblt	r0, [r4], #-773	; 0x305
    22b0:	01100000 	tsteq	r0, r0
    22b4:	90030550 	andls	r0, r3, r0, asr r5
    22b8:	000000b5 	strheq	r0, [r0], -r5
    22bc:	008f9c0f 	addeq	r9, pc, pc, lsl #24
    22c0:	00117200 	andseq	r7, r1, r0, lsl #4
    22c4:	0009b500 	andeq	fp, r9, r0, lsl #10
    22c8:	52011000 	andpl	r1, r1, #0
    22cc:	b4380305 	ldrtlt	r0, [r8], #-773	; 0x305
    22d0:	01100000 	tsteq	r0, r0
    22d4:	90030550 	andls	r0, r3, r0, asr r5
    22d8:	000000b5 	strheq	r0, [r0], -r5
    22dc:	008fb40f 	addeq	fp, pc, pc, lsl #8
    22e0:	00117200 	andseq	r7, r1, r0, lsl #4
    22e4:	0009d500 	andeq	sp, r9, r0, lsl #10
    22e8:	52011000 	andpl	r1, r1, #0
    22ec:	b5640305 	strblt	r0, [r4, #-773]!	; 0x305
    22f0:	01100000 	tsteq	r0, r0
    22f4:	90030550 	andls	r0, r3, r0, asr r5
    22f8:	000000b5 	strheq	r0, [r0], -r5
    22fc:	008fcc0f 	addeq	ip, pc, pc, lsl #24
    2300:	00117200 	andseq	r7, r1, r0, lsl #4
    2304:	0009f500 	andeq	pc, r9, r0, lsl #10
    2308:	52011000 	andpl	r1, r1, #0
    230c:	b42c0305 	strtlt	r0, [ip], #-773	; 0x305
    2310:	01100000 	tsteq	r0, r0
    2314:	90030550 	andls	r0, r3, r0, asr r5
    2318:	000000b5 	strheq	r0, [r0], -r5
    231c:	008fe011 	addeq	lr, pc, r1, lsl r0	; <UNPREDICTABLE>
    2320:	00117200 	andseq	r7, r1, r0, lsl #4
    2324:	52011000 	andpl	r1, r1, #0
    2328:	b29c0305 	addslt	r0, ip, #335544320	; 0x14000000
    232c:	01100000 	tsteq	r0, r0
    2330:	90030550 	andls	r0, r3, r0, asr r5
    2334:	000000b5 	strheq	r0, [r0], -r5
    2338:	063b1400 	ldrteq	r1, [fp], -r0, lsl #8
    233c:	6c010000 	stcvs	0, cr0, [r1], {-0}
    2340:	00009034 	andeq	r9, r0, r4, lsr r0
    2344:	00000008 	andeq	r0, r0, r8
    2348:	0a379c01 	beq	de9354 <__bss_end__+0xddd164>
    234c:	63150000 	tstvs	r5, #0
    2350:	37000000 	strcc	r0, [r0, -r0]
    2354:	0500000a 	streq	r0, [r0, #-10]
    2358:	00b76803 	adcseq	r6, r7, r3, lsl #16
    235c:	9f060000 	svcls	0x00060000
    2360:	0c000000 	stceq	0, cr0, [r0], {-0}
    2364:	00000680 	andeq	r0, r0, r0, lsl #13
    2368:	903c7201 	eorsls	r7, ip, r1, lsl #4
    236c:	004c0000 	subeq	r0, ip, r0
    2370:	9c010000 	stcls	0, cr0, [r1], {-0}
    2374:	00000ab7 			; <UNDEFINED> instruction: 0x00000ab7
    2378:	0100630d 	tsteq	r0, sp, lsl #6
    237c:	000ab772 	andeq	fp, sl, r2, ror r7
    2380:	000cfa00 	andeq	pc, ip, r0, lsl #20
    2384:	904c0f00 	subls	r0, ip, r0, lsl #30
    2388:	11720000 	cmnne	r2, r0
    238c:	0a750000 	beq	1d42394 <__bss_end__+0x1d361a4>
    2390:	01100000 	tsteq	r0, r0
    2394:	c8030550 	stmdagt	r3, {r4, r6, r8, sl}
    2398:	000000b5 	strheq	r0, [r0], -r5
    239c:	00905c0f 	addseq	r5, r0, pc, lsl #24
    23a0:	00117200 	andseq	r7, r1, r0, lsl #4
    23a4:	000a8c00 	andeq	r8, sl, r0, lsl #24
    23a8:	50011000 	andpl	r1, r1, r0
    23ac:	b5d80305 	ldrblt	r0, [r8, #773]	; 0x305
    23b0:	0f000000 	svceq	0x00000000
    23b4:	00009068 	andeq	r9, r0, r8, rrx
    23b8:	00001172 	andeq	r1, r0, r2, ror r1
    23bc:	00000aa3 	andeq	r0, r0, r3, lsr #21
    23c0:	05500110 	ldrbeq	r0, [r0, #-272]	; 0x110
    23c4:	00b5e803 	adcseq	lr, r5, r3, lsl #16
    23c8:	74110000 	ldrvc	r0, [r1], #-0
    23cc:	72000090 	andvc	r0, r0, #144	; 0x90
    23d0:	10000011 	andne	r0, r0, r1, lsl r0
    23d4:	03055001 	movweq	r5, #20481	; 0x5001
    23d8:	0000b600 	andeq	fp, r0, r0, lsl #12
    23dc:	04050000 	streq	r0, [r5], #-0
    23e0:	000000af 	andeq	r0, r0, pc, lsr #1
    23e4:	0005ff14 	andeq	pc, r5, r4, lsl pc	; <UNPREDICTABLE>
    23e8:	887c0100 	ldmdahi	ip!, {r8}^
    23ec:	c0000090 	mulgt	r0, r0, r0
    23f0:	01000001 	tsteq	r0, r1
    23f4:	000d479c 	muleq	sp, ip, r7
    23f8:	00660d00 	rsbeq	r0, r6, r0, lsl #26
    23fc:	0d477c01 	stcleq	12, cr7, [r7, #-4]
    2400:	0d180000 	ldceq	0, cr0, [r8, #-0]
    2404:	63150000 	tstvs	r5, #0
    2408:	5d000000 	stcpl	0, cr0, [r0, #-0]
    240c:	0500000d 	streq	r0, [r0, #-13]
    2410:	00b73c03 	adcseq	r3, r7, r3, lsl #24
    2414:	90a01300 	adcls	r1, r0, r0, lsl #6
    2418:	11930000 	orrsne	r0, r3, r0
    241c:	bc0f0000 	stclt	0, cr0, [pc], {-0}
    2420:	72000090 	andvc	r0, r0, #144	; 0x90
    2424:	30000011 	andcc	r0, r0, r1, lsl r0
    2428:	1000000b 	andne	r0, r0, fp
    242c:	08025301 	stmdaeq	r2, {r0, r8, r9, ip, lr}
    2430:	5201107d 	andpl	r1, r1, #125	; 0x7d
    2434:	b73c0305 	ldrlt	r0, [ip, -r5, lsl #6]!
    2438:	01100000 	tsteq	r0, r0
    243c:	cc030551 	cfstr32gt	mvfx0, [r3], {81}	; 0x51
    2440:	100000b3 	strhne	r0, [r0], -r3
    2444:	03055001 	movweq	r5, #20481	; 0x5001
    2448:	0000ade8 	andeq	sl, r0, r8, ror #27
    244c:	007d0210 	rsbseq	r0, sp, r0, lsl r2
    2450:	b6180305 	ldrlt	r0, [r8], -r5, lsl #6
    2454:	13000000 	movwne	r0, #0
    2458:	000090c0 	andeq	r9, r0, r0, asr #1
    245c:	0000119a 	muleq	r0, sl, r1
    2460:	0090d413 	addseq	sp, r0, r3, lsl r4
    2464:	00119300 	andseq	r9, r1, r0, lsl #6
    2468:	90f00f00 	rscsls	r0, r0, r0, lsl #30
    246c:	11720000 	cmnne	r2, r0
    2470:	0b7b0000 	bleq	1ec2478 <__bss_end__+0x1eb6288>
    2474:	01100000 	tsteq	r0, r0
    2478:	7e080253 	mcrvc	2, 0, r0, cr8, cr3, {2}
    247c:	05520110 	ldrbeq	r0, [r2, #-272]	; 0x110
    2480:	00b73c03 	adcseq	r3, r7, r3, lsl #24
    2484:	51011000 	mrspl	r1, (UNDEF: 1)
    2488:	b3cc0305 	biclt	r0, ip, #335544320	; 0x14000000
    248c:	01100000 	tsteq	r0, r0
    2490:	e8030550 	stmda	r3, {r4, r6, r8, sl}
    2494:	100000ad 	andne	r0, r0, sp, lsr #1
    2498:	05007d02 	streq	r7, [r0, #-3330]	; 0xd02
    249c:	00b62803 	adcseq	r2, r6, r3, lsl #16
    24a0:	f4130000 			; <UNDEFINED> instruction: 0xf4130000
    24a4:	9a000090 	bls	26ec <__code_start__-0x5914>
    24a8:	13000011 	movwne	r0, #17
    24ac:	00009104 	andeq	r9, r0, r4, lsl #2
    24b0:	00001193 	muleq	r0, r3, r1
    24b4:	0091200f 	addseq	r2, r1, pc
    24b8:	00117200 	andseq	r7, r1, r0, lsl #4
    24bc:	000bc600 	andeq	ip, fp, r0, lsl #12
    24c0:	53011000 	movwpl	r1, #4096	; 0x1000
    24c4:	107f0802 	rsbsne	r0, pc, r2, lsl #16
    24c8:	03055201 	movweq	r5, #20993	; 0x5201
    24cc:	0000b73c 	andeq	fp, r0, ip, lsr r7
    24d0:	05510110 	ldrbeq	r0, [r1, #-272]	; 0x110
    24d4:	00b3cc03 	adcseq	ip, r3, r3, lsl #24
    24d8:	50011000 	andpl	r1, r1, r0
    24dc:	ade80305 	stclge	3, cr0, [r8, #20]!
    24e0:	02100000 	andseq	r0, r0, #0
    24e4:	0305007d 	movweq	r0, #20605	; 0x507d
    24e8:	0000b638 	andeq	fp, r0, r8, lsr r6
    24ec:	91241300 	teqls	r4, r0, lsl #6
    24f0:	119a0000 	orrsne	r0, sl, r0
    24f4:	34130000 	ldrcc	r0, [r3], #-0
    24f8:	93000091 	movwls	r0, #145	; 0x91
    24fc:	0f000011 	svceq	0x00000011
    2500:	00009150 	andeq	r9, r0, r0, asr r1
    2504:	00001172 	andeq	r1, r0, r2, ror r1
    2508:	00000c11 	andeq	r0, r0, r1, lsl ip
    250c:	02530110 	subseq	r0, r3, #16, 2
    2510:	01108008 	tsteq	r0, r8
    2514:	3c030552 	cfstr32cc	mvfx0, [r3], {82}	; 0x52
    2518:	100000b7 	strhne	r0, [r0], -r7
    251c:	03055101 	movweq	r5, #20737	; 0x5101
    2520:	0000b3cc 	andeq	fp, r0, ip, asr #7
    2524:	05500110 	ldrbeq	r0, [r0, #-272]	; 0x110
    2528:	00ade803 	adceq	lr, sp, r3, lsl #16
    252c:	7d021000 	stcvc	0, cr1, [r2, #-0]
    2530:	44030500 	strmi	r0, [r3], #-1280	; 0x500
    2534:	000000b6 	strheq	r0, [r0], -r6
    2538:	00915413 	addseq	r5, r1, r3, lsl r4
    253c:	00119a00 	andseq	r9, r1, r0, lsl #20
    2540:	91641300 	cmnls	r4, r0, lsl #6
    2544:	11930000 	orrsne	r0, r3, r0
    2548:	800f0000 	andhi	r0, pc, r0
    254c:	72000091 	andvc	r0, r0, #145	; 0x91
    2550:	5c000011 	stcpl	0, cr0, [r0], {17}
    2554:	1000000c 	andne	r0, r0, ip
    2558:	08025301 	stmdaeq	r2, {r0, r8, r9, ip, lr}
    255c:	52011081 	andpl	r1, r1, #129	; 0x81
    2560:	b73c0305 	ldrlt	r0, [ip, -r5, lsl #6]!
    2564:	01100000 	tsteq	r0, r0
    2568:	cc030551 	cfstr32gt	mvfx0, [r3], {81}	; 0x51
    256c:	100000b3 	strhne	r0, [r0], -r3
    2570:	03055001 	movweq	r5, #20481	; 0x5001
    2574:	0000ade8 	andeq	sl, r0, r8, ror #27
    2578:	007d0210 	rsbseq	r0, sp, r0, lsl r2
    257c:	b6500305 	ldrblt	r0, [r0], -r5, lsl #6
    2580:	13000000 	movwne	r0, #0
    2584:	00009184 	andeq	r9, r0, r4, lsl #3
    2588:	0000119a 	muleq	r0, sl, r1
    258c:	00919413 	addseq	r9, r1, r3, lsl r4
    2590:	00119300 	andseq	r9, r1, r0, lsl #6
    2594:	91b00f00 	lslsls	r0, r0, #30
    2598:	11720000 	cmnne	r2, r0
    259c:	0ca70000 	stceq	0, cr0, [r7]
    25a0:	01100000 	tsteq	r0, r0
    25a4:	82080253 	andhi	r0, r8, #805306373	; 0x30000005
    25a8:	05520110 	ldrbeq	r0, [r2, #-272]	; 0x110
    25ac:	00b73c03 	adcseq	r3, r7, r3, lsl #24
    25b0:	51011000 	mrspl	r1, (UNDEF: 1)
    25b4:	b3cc0305 	biclt	r0, ip, #335544320	; 0x14000000
    25b8:	01100000 	tsteq	r0, r0
    25bc:	e8030550 	stmda	r3, {r4, r6, r8, sl}
    25c0:	100000ad 	andne	r0, r0, sp, lsr #1
    25c4:	05007d02 	streq	r7, [r0, #-3330]	; 0xd02
    25c8:	00b65c03 	adcseq	r5, r6, r3, lsl #24
    25cc:	b4130000 	ldrlt	r0, [r3], #-0
    25d0:	9a000091 	bls	281c <__code_start__-0x57e4>
    25d4:	13000011 	movwne	r0, #17
    25d8:	000091c4 	andeq	r9, r0, r4, asr #3
    25dc:	00001193 	muleq	r0, r3, r1
    25e0:	0091e00f 	addseq	lr, r1, pc
    25e4:	00117200 	andseq	r7, r1, r0, lsl #4
    25e8:	000cf200 	andeq	pc, ip, r0, lsl #4
    25ec:	53011000 	movwpl	r1, #4096	; 0x1000
    25f0:	10830802 	addne	r0, r3, r2, lsl #16
    25f4:	03055201 	movweq	r5, #20993	; 0x5201
    25f8:	0000b73c 	andeq	fp, r0, ip, lsr r7
    25fc:	05510110 	ldrbeq	r0, [r1, #-272]	; 0x110
    2600:	00b3cc03 	adcseq	ip, r3, r3, lsl #24
    2604:	50011000 	andpl	r1, r1, r0
    2608:	ade80305 	stclge	3, cr0, [r8, #20]!
    260c:	02100000 	andseq	r0, r0, #0
    2610:	0305007d 	movweq	r0, #20605	; 0x507d
    2614:	0000b668 	andeq	fp, r0, r8, ror #12
    2618:	91e41300 	mvnls	r1, r0, lsl #6
    261c:	119a0000 	orrsne	r0, sl, r0
    2620:	f4130000 			; <UNDEFINED> instruction: 0xf4130000
    2624:	93000091 	movwls	r0, #145	; 0x91
    2628:	0f000011 	svceq	0x00000011
    262c:	00009210 	andeq	r9, r0, r0, lsl r2
    2630:	00001172 	andeq	r1, r0, r2, ror r1
    2634:	00000d3d 	andeq	r0, r0, sp, lsr sp
    2638:	02530110 	subseq	r0, r3, #16, 2
    263c:	01108408 	tsteq	r0, r8, lsl #8
    2640:	3c030552 	cfstr32cc	mvfx0, [r3], {82}	; 0x52
    2644:	100000b7 	strhne	r0, [r0], -r7
    2648:	03055101 	movweq	r5, #20737	; 0x5101
    264c:	0000b3cc 	andeq	fp, r0, ip, asr #7
    2650:	05500110 	ldrbeq	r0, [r0, #-272]	; 0x110
    2654:	00ade803 	adceq	lr, sp, r3, lsl #16
    2658:	7d021000 	stcvc	0, cr1, [r2, #-0]
    265c:	74030500 	strvc	r0, [r3], #-1280	; 0x500
    2660:	000000b6 	strheq	r0, [r0], -r6
    2664:	00921413 	addseq	r1, r2, r3, lsl r4
    2668:	00119a00 	andseq	r9, r1, r0, lsl #20
    266c:	04050000 	streq	r0, [r5], #-0
    2670:	00000398 	muleq	r0, r8, r3
    2674:	00007d07 	andeq	r7, r0, r7, lsl #26
    2678:	000d5d00 	andeq	r5, sp, r0, lsl #26
    267c:	00760800 	rsbseq	r0, r6, r0, lsl #16
    2680:	000f0000 	andeq	r0, pc, r0
    2684:	000d4d06 	andeq	r4, sp, r6, lsl #26
    2688:	03581600 	cmpeq	r8, #0, 12
    268c:	88010000 	stmdahi	r1, {}	; <UNPREDICTABLE>
    2690:	00000398 	muleq	r0, r8, r3
    2694:	00009248 	andeq	r9, r0, r8, asr #4
    2698:	00000008 	andeq	r0, r0, r8
    269c:	c9149c01 	ldmdbgt	r4, {r0, sl, fp, ip, pc}
    26a0:	01000005 	tsteq	r0, r5
    26a4:	0092508d 	addseq	r5, r2, sp, lsl #1
    26a8:	0000b400 	andeq	fp, r0, r0, lsl #8
    26ac:	cf9c0100 	svcgt	0x009c0100
    26b0:	1700000e 	strne	r0, [r0, -lr]
    26b4:	8e010066 	cdphi	0, 0, cr0, cr1, cr6, {3}
    26b8:	00000398 	muleq	r0, r8, r3
    26bc:	15749102 	ldrbne	r9, [r4, #-258]!	; 0x102
    26c0:	00000063 	andeq	r0, r0, r3, rrx
    26c4:	00000edf 	ldrdeq	r0, [r0], -pc	; <UNPREDICTABLE>
    26c8:	b7840305 	strlt	r0, [r4, r5, lsl #6]
    26cc:	6c180000 	ldcvs	0, cr0, [r8], {-0}
    26d0:	74000092 	strvc	r0, [r0], #-146	; 0x92
    26d4:	b5000000 	strlt	r0, [r0, #-0]
    26d8:	1900000e 	stmdbne	r0, {r1, r2, r3}
    26dc:	0400755f 	streq	r7, [r0], #-1375	; 0x55f
    26e0:	0dd2a001 	ldcleq	0, cr10, [r2, #4]
    26e4:	731a0000 	tstvc	sl, #0
    26e8:	98a00100 	stmials	r0!, {r8}
    26ec:	1a000003 	bne	2700 <__code_start__-0x5900>
    26f0:	a0010075 	andge	r0, r1, r5, ror r0
    26f4:	0000002c 	andeq	r0, r0, ip, lsr #32
    26f8:	00781700 	rsbseq	r1, r8, r0, lsl #14
    26fc:	0db4a001 	ldceq	0, cr10, [r4, #4]!
    2700:	53010000 	movwpl	r0, #4096	; 0x1000
    2704:	7078651b 	rsbsvc	r6, r8, fp, lsl r5
    2708:	2ca00100 	stfcss	f0, [r0]
    270c:	80000000 	andhi	r0, r0, r0
    2710:	0f1c4080 	svceq	0x001c4080
    2714:	01000006 	tsteq	r0, r6
    2718:	00002ca0 	andeq	r2, r0, r0, lsr #25
    271c:	201d1400 	andscs	r1, sp, r0, lsl #8
    2720:	01000006 	tsteq	r0, r6
    2724:	00002ca0 	andeq	r2, r0, r0, lsr #25
    2728:	130fff00 	movwne	pc, #65280	; 0xff00	; <UNPREDICTABLE>
    272c:	0000927c 	andeq	r9, r0, ip, ror r2
    2730:	00001193 	muleq	r0, r3, r1
    2734:	0092b00f 	addseq	fp, r2, pc
    2738:	00117200 	andseq	r7, r1, r0, lsl #4
    273c:	000e6000 	andeq	r6, lr, r0
    2740:	53011000 	movwpl	r1, #4096	; 0x1000
    2744:	10a00802 	adcne	r0, r0, r2, lsl #16
    2748:	03055201 	movweq	r5, #20993	; 0x5201
    274c:	0000b784 	andeq	fp, r0, r4, lsl #15
    2750:	05510110 	ldrbeq	r0, [r1, #-272]	; 0x110
    2754:	00b3cc03 	adcseq	ip, r3, r3, lsl #24
    2758:	50011000 	andpl	r1, r1, r0
    275c:	b3e80305 	mvnlt	r0, #335544320	; 0x14000000
    2760:	02100000 	andseq	r0, r0, #0
    2764:	3c01107d 	stccc	0, cr1, [r1], {125}	; 0x7d
    2768:	0c7d0210 	lfmeq	f0, 2, [sp], #-64	; 0xffffffc0
    276c:	02104401 	andseq	r4, r0, #16777216	; 0x1000000
    2770:	0305087d 	movweq	r0, #22653	; 0x587d
    2774:	0000b6bc 			; <UNDEFINED> instruction: 0x0000b6bc
    2778:	047d0210 	ldrbteq	r0, [sp], #-528	; 0x210
    277c:	10007402 	andne	r7, r0, r2, lsl #8
    2780:	02007d02 	andeq	r7, r0, #2, 26	; 0x80
    2784:	13000074 	movwne	r0, #116	; 0x74
    2788:	000092b4 			; <UNDEFINED> instruction: 0x000092b4
    278c:	0000119a 	muleq	r0, sl, r1
    2790:	0092c013 	addseq	ip, r2, r3, lsl r0
    2794:	00119300 	andseq	r9, r1, r0, lsl #6
    2798:	92dc0f00 	sbcsls	r0, ip, #0, 30
    279c:	11720000 	cmnne	r2, r0
    27a0:	0eab0000 	cdpeq	0, 10, cr0, cr11, cr0, {0}
    27a4:	01100000 	tsteq	r0, r0
    27a8:	a0080253 	andge	r0, r8, r3, asr r2
    27ac:	05520110 	ldrbeq	r0, [r2, #-272]	; 0x110
    27b0:	00b78403 	adcseq	r8, r7, r3, lsl #8
    27b4:	51011000 	mrspl	r1, (UNDEF: 1)
    27b8:	b3cc0305 	biclt	r0, ip, #335544320	; 0x14000000
    27bc:	01100000 	tsteq	r0, r0
    27c0:	e8030550 	stmda	r3, {r4, r6, r8, sl}
    27c4:	100000ad 	andne	r0, r0, sp, lsr #1
    27c8:	05007d02 	streq	r7, [r0, #-3330]	; 0xd02
    27cc:	00b3dc03 	adcseq	sp, r3, r3, lsl #24
    27d0:	e0130000 	ands	r0, r3, r0
    27d4:	9a000092 	bls	2a24 <__code_start__-0x55dc>
    27d8:	00000011 	andeq	r0, r0, r1, lsl r0
    27dc:	00925c13 	addseq	r5, r2, r3, lsl ip
    27e0:	000d6200 	andeq	r6, sp, r0, lsl #4
    27e4:	926c1100 	rsbls	r1, ip, #0, 2
    27e8:	0abd0000 	beq	fef427f0 <__bss_end__+0xfef36600>
    27ec:	01100000 	tsteq	r0, r0
    27f0:	6c910250 	lfmvs	f0, 4, [r1], {80}	; 0x50
    27f4:	7d070000 	stcvc	0, cr0, [r7, #-0]
    27f8:	df000000 	svcle	0x00000000
    27fc:	0800000e 	stmdaeq	r0, {r1, r2, r3}
    2800:	00000076 	andeq	r0, r0, r6, ror r0
    2804:	cf060011 	svcgt	0x00060011
    2808:	0c00000e 	stceq	0, cr0, [r0], {14}
    280c:	000004d5 	ldrdeq	r0, [r0], -r5
    2810:	9304a301 	movwls	sl, #17153	; 0x4301
    2814:	01d00000 	bicseq	r0, r0, r0
    2818:	9c010000 	stcls	0, cr0, [r1], {-0}
    281c:	00001127 	andeq	r1, r0, r7, lsr #2
    2820:	0100660d 	tsteq	r0, sp, lsl #12
    2824:	000d47a3 	andeq	r4, sp, r3, lsr #15
    2828:	000df300 	andeq	pc, sp, r0, lsl #6
    282c:	93140f00 	tstls	r4, #0, 30
    2830:	11720000 	cmnne	r2, r0
    2834:	0f1d0000 	svceq	0x001d0000
    2838:	01100000 	tsteq	r0, r0
    283c:	cc030550 	cfstr32gt	mvfx0, [r3], {80}	; 0x50
    2840:	000000b6 	strheq	r0, [r0], -r6
    2844:	0093200f 	addseq	r2, r3, pc
    2848:	00117200 	andseq	r7, r1, r0, lsl #4
    284c:	000f3a00 	andeq	r3, pc, r0, lsl #20
    2850:	51011000 	mrspl	r1, (UNDEF: 1)
    2854:	10007402 	andne	r7, r0, r2, lsl #8
    2858:	03055001 	movweq	r5, #20481	; 0x5001
    285c:	0000b6ec 	andeq	fp, r0, ip, ror #13
    2860:	93340f00 	teqls	r4, #0, 30
    2864:	11720000 	cmnne	r2, r0
    2868:	0f5a0000 	svceq	0x005a0000
    286c:	01100000 	tsteq	r0, r0
    2870:	bc030552 	cfstr32lt	mvfx0, [r3], {82}	; 0x52
    2874:	100000b6 	strhne	r0, [r0], -r6
    2878:	03055001 	movweq	r5, #20481	; 0x5001
    287c:	0000b590 	muleq	r0, r0, r5
    2880:	934c0f00 	movtls	r0, #52992	; 0xcf00
    2884:	11720000 	cmnne	r2, r0
    2888:	0f710000 	svceq	0x00710000
    288c:	01100000 	tsteq	r0, r0
    2890:	9c030550 	cfstr32ls	mvfx0, [r3], {80}	; 0x50
    2894:	000000b5 	strheq	r0, [r0], -r5
    2898:	0093600f 	addseq	r6, r3, pc
    289c:	00117200 	andseq	r7, r1, r0, lsl #4
    28a0:	000f8800 	andeq	r8, pc, r0, lsl #16
    28a4:	50011000 	andpl	r1, r1, r0
    28a8:	b6f40305 	ldrbtlt	r0, [r4], r5, lsl #6
    28ac:	0f000000 	svceq	0x00000000
    28b0:	00009368 	andeq	r9, r0, r8, ror #6
    28b4:	00001172 	andeq	r1, r0, r2, ror r1
    28b8:	00000f9f 	muleq	r0, pc, pc	; <UNPREDICTABLE>
    28bc:	05500110 	ldrbeq	r0, [r0, #-272]	; 0x110
    28c0:	00b70803 	adcseq	r0, r7, r3, lsl #16
    28c4:	800f0000 	andhi	r0, pc, r0
    28c8:	72000093 	andvc	r0, r0, #147	; 0x93
    28cc:	bf000011 	svclt	0x00000011
    28d0:	1000000f 	andne	r0, r0, pc
    28d4:	03055201 	movweq	r5, #20993	; 0x5201
    28d8:	0000b6b0 			; <UNDEFINED> instruction: 0x0000b6b0
    28dc:	05500110 	ldrbeq	r0, [r0, #-272]	; 0x110
    28e0:	00b59003 	adcseq	r9, r5, r3
    28e4:	940f0000 	strls	r0, [pc], #-0	; 28ec <__code_start__-0x5714>
    28e8:	72000093 	andvc	r0, r0, #147	; 0x93
    28ec:	df000011 	svcle	0x00000011
    28f0:	1000000f 	andne	r0, r0, pc
    28f4:	03055201 	movweq	r5, #20993	; 0x5201
    28f8:	0000b6ac 	andeq	fp, r0, ip, lsr #13
    28fc:	05500110 	ldrbeq	r0, [r0, #-272]	; 0x110
    2900:	00b59003 	adcseq	r9, r5, r3
    2904:	a80f0000 	stmdage	pc, {}	; <UNPREDICTABLE>
    2908:	72000093 	andvc	r0, r0, #147	; 0x93
    290c:	ff000011 			; <UNDEFINED> instruction: 0xff000011
    2910:	1000000f 	andne	r0, r0, pc
    2914:	03055201 	movweq	r5, #20993	; 0x5201
    2918:	0000b6a8 	andeq	fp, r0, r8, lsr #13
    291c:	05500110 	ldrbeq	r0, [r0, #-272]	; 0x110
    2920:	00b59003 	adcseq	r9, r5, r3
    2924:	c00f0000 	andgt	r0, pc, r0
    2928:	72000093 	andvc	r0, r0, #147	; 0x93
    292c:	1f000011 	svcne	0x00000011
    2930:	10000010 	andne	r0, r0, r0, lsl r0
    2934:	03055201 	movweq	r5, #20993	; 0x5201
    2938:	0000b6a4 	andeq	fp, r0, r4, lsr #13
    293c:	05500110 	ldrbeq	r0, [r0, #-272]	; 0x110
    2940:	00b59003 	adcseq	r9, r5, r3
    2944:	d80f0000 	stmdale	pc, {}	; <UNPREDICTABLE>
    2948:	72000093 	andvc	r0, r0, #147	; 0x93
    294c:	3f000011 	svccc	0x00000011
    2950:	10000010 	andne	r0, r0, r0, lsl r0
    2954:	03055201 	movweq	r5, #20993	; 0x5201
    2958:	0000b6a0 	andeq	fp, r0, r0, lsr #13
    295c:	05500110 	ldrbeq	r0, [r0, #-272]	; 0x110
    2960:	00b59003 	adcseq	r9, r5, r3
    2964:	f00f0000 			; <UNDEFINED> instruction: 0xf00f0000
    2968:	72000093 	andvc	r0, r0, #147	; 0x93
    296c:	5f000011 	svcpl	0x00000011
    2970:	10000010 	andne	r0, r0, r0, lsl r0
    2974:	03055201 	movweq	r5, #20993	; 0x5201
    2978:	0000b69c 	muleq	r0, ip, r6
    297c:	05500110 	ldrbeq	r0, [r0, #-272]	; 0x110
    2980:	00b59003 	adcseq	r9, r5, r3
    2984:	080f0000 	stmdaeq	pc, {}	; <UNPREDICTABLE>
    2988:	72000094 	andvc	r0, r0, #148	; 0x94
    298c:	7f000011 	svcvc	0x00000011
    2990:	10000010 	andne	r0, r0, r0, lsl r0
    2994:	03055201 	movweq	r5, #20993	; 0x5201
    2998:	0000b694 	muleq	r0, r4, r6
    299c:	05500110 	ldrbeq	r0, [r0, #-272]	; 0x110
    29a0:	00b59003 	adcseq	r9, r5, r3
    29a4:	240f0000 	strcs	r0, [pc], #-0	; 29ac <__code_start__-0x5654>
    29a8:	72000094 	andvc	r0, r0, #148	; 0x94
    29ac:	96000011 			; <UNDEFINED> instruction: 0x96000011
    29b0:	10000010 	andne	r0, r0, r0, lsl r0
    29b4:	03055001 	movweq	r5, #20481	; 0x5001
    29b8:	0000b59c 	muleq	r0, ip, r5
    29bc:	943c0f00 	ldrtls	r0, [ip], #-3840	; 0xf00
    29c0:	11720000 	cmnne	r2, r0
    29c4:	10b60000 	adcsne	r0, r6, r0
    29c8:	01100000 	tsteq	r0, r0
    29cc:	90030552 	andls	r0, r3, r2, asr r5
    29d0:	100000b6 	strhne	r0, [r0], -r6
    29d4:	03055001 	movweq	r5, #20481	; 0x5001
    29d8:	0000b590 	muleq	r0, r0, r5
    29dc:	94540f00 	ldrbls	r0, [r4], #-3840	; 0xf00
    29e0:	11720000 	cmnne	r2, r0
    29e4:	10d60000 	sbcsne	r0, r6, r0
    29e8:	01100000 	tsteq	r0, r0
    29ec:	8c030552 	cfstr32hi	mvfx0, [r3], {82}	; 0x52
    29f0:	100000b6 	strhne	r0, [r0], -r6
    29f4:	03055001 	movweq	r5, #20481	; 0x5001
    29f8:	0000b590 	muleq	r0, r0, r5
    29fc:	946c0f00 	strbtls	r0, [ip], #-3840	; 0xf00
    2a00:	11720000 	cmnne	r2, r0
    2a04:	10f60000 	rscsne	r0, r6, r0
    2a08:	01100000 	tsteq	r0, r0
    2a0c:	88030552 	stmdahi	r3, {r1, r4, r6, r8, sl}
    2a10:	100000b6 	strhne	r0, [r0], -r6
    2a14:	03055001 	movweq	r5, #20481	; 0x5001
    2a18:	0000b590 	muleq	r0, r0, r5
    2a1c:	94800f00 	strls	r0, [r0], #3840	; 0xf00
    2a20:	11720000 	cmnne	r2, r0
    2a24:	11160000 	tstne	r6, r0
    2a28:	01100000 	tsteq	r0, r0
    2a2c:	84030552 	strhi	r0, [r3], #-1362	; 0x552
    2a30:	100000b6 	strhne	r0, [r0], -r6
    2a34:	03055001 	movweq	r5, #20481	; 0x5001
    2a38:	0000b590 	muleq	r0, r0, r5
    2a3c:	94881100 	strls	r1, [r8], #256	; 0x100
    2a40:	0abd0000 	beq	fef42a48 <__bss_end__+0xfef36858>
    2a44:	01100000 	tsteq	r0, r0
    2a48:	00740250 	rsbseq	r0, r4, r0, asr r2
    2a4c:	a70c0000 	strge	r0, [ip, -r0]
    2a50:	01000001 	tsteq	r0, r1
    2a54:	0094d4bd 			; <UNDEFINED> instruction: 0x0094d4bd
    2a58:	00001400 	andeq	r1, r0, r0, lsl #8
    2a5c:	589c0100 	ldmpl	ip, {r8}
    2a60:	13000011 	movwne	r0, #17
    2a64:	000094dc 	ldrdeq	r9, [r0], -ip
    2a68:	0000046e 	andeq	r0, r0, lr, ror #8
    2a6c:	0094e013 	addseq	lr, r4, r3, lsl r0
    2a70:	000a1200 	andeq	r1, sl, r0, lsl #4
    2a74:	94e41300 	strbtls	r1, [r4], #768	; 0x300
    2a78:	0d770000 	ldcleq	0, cr0, [r7, #-0]
    2a7c:	1e000000 	cdpne	0, 0, cr0, cr0, cr0, {0}
    2a80:	000005db 	ldrdeq	r0, [r0], -fp
    2a84:	005d0505 	subseq	r0, sp, r5, lsl #10
    2a88:	11720000 	cmnne	r2, r0
    2a8c:	1e1f0000 	cdpne	0, 1, cr0, cr15, cr0, {0}
    2a90:	1f000004 	svcne	0x00000004
    2a94:	00000025 	andeq	r0, r0, r5, lsr #32
    2a98:	094a1e00 	stmdbeq	sl, {r9, sl, fp, ip}^
    2a9c:	29060000 	stmdbcs	r6, {}	; <UNPREDICTABLE>
    2aa0:	00000025 	andeq	r0, r0, r5, lsr #32
    2aa4:	00001188 	andeq	r1, r0, r8, lsl #3
    2aa8:	0000841f 	andeq	r8, r0, pc, lsl r4
    2aac:	21002000 	mrscs	r2, (UNDEF: 0)
    2ab0:	000004df 	ldrdeq	r0, [r0], -pc	; <UNPREDICTABLE>
    2ab4:	005d6e07 	subseq	r6, sp, r7, lsl #28
    2ab8:	c2220000 	eorgt	r0, r2, #0
    2abc:	06000001 	streq	r0, [r0], -r1
    2ac0:	0020221e 	eoreq	r2, r0, lr, lsl r2
    2ac4:	65060000 	strvs	r0, [r6, #-0]
    2ac8:	00106e00 	andseq	r6, r0, r0, lsl #28
    2acc:	78000400 	stmdavc	r0, {sl}
    2ad0:	04000005 	streq	r0, [r0], #-5
    2ad4:	0000fe01 	andeq	pc, r0, r1, lsl #28
    2ad8:	06d30100 	ldrbeq	r0, [r3], r0, lsl #2
    2adc:	007c0000 	rsbseq	r0, ip, r0
    2ae0:	94e80000 	strbtls	r0, [r8], #0
    2ae4:	06840000 	streq	r0, [r4], r0
    2ae8:	06890000 	streq	r0, [r9], r0
    2aec:	04020000 	streq	r0, [r2], #-0
    2af0:	746e6905 	strbtvc	r6, [lr], #-2309	; 0x905
    2af4:	07040300 	streq	r0, [r4, -r0, lsl #6]
    2af8:	00000183 	andeq	r0, r0, r3, lsl #3
    2afc:	14060103 	strne	r0, [r6], #-259	; 0x103
    2b00:	03000000 	movweq	r0, #0
    2b04:	01b80502 			; <UNDEFINED> instruction: 0x01b80502
    2b08:	04030000 	streq	r0, [r3], #-0
    2b0c:	00019e05 	andeq	r9, r1, r5, lsl #28
    2b10:	05080300 	streq	r0, [r8, #-768]	; 0x300
    2b14:	00000199 	muleq	r0, r9, r1
    2b18:	12080103 	andne	r0, r8, #-1073741824	; 0xc0000000
    2b1c:	03000000 	movweq	r0, #0
    2b20:	002d0702 	eoreq	r0, sp, r2, lsl #14
    2b24:	66040000 	strvs	r0, [r4], -r0
    2b28:	05000004 	streq	r0, [r0, #-4]
    2b2c:	00006834 	andeq	r6, r0, r4, lsr r8
    2b30:	07040300 	streq	r0, [r4, -r0, lsl #6]
    2b34:	0000017e 	andeq	r0, r0, lr, ror r1
    2b38:	79070803 	stmdbvc	r7, {r0, r1, fp}
    2b3c:	03000001 	movweq	r0, #1
    2b40:	01900704 	orrseq	r0, r0, r4, lsl #14
    2b44:	04050000 	streq	r0, [r5], #-0
    2b48:	1b080103 	blne	202f5c <__bss_end__+0x1f6d6c>
    2b4c:	06000000 	streq	r0, [r0], -r0
    2b50:	00008c04 	andeq	r8, r0, r4, lsl #24
    2b54:	007f0700 	rsbseq	r0, pc, r0, lsl #14
    2b58:	88080000 	stmdahi	r8, {}	; <UNPREDICTABLE>
    2b5c:	04000003 	streq	r0, [r0], #-3
    2b60:	01674604 	cmneq	r7, r4, lsl #12
    2b64:	74090000 	strvc	r0, [r9], #-0
    2b68:	04006761 	streq	r6, [r0], #-1889	; 0x761
    2b6c:	00002c48 	andeq	r2, r0, r8, asr #24
    2b70:	1e020400 	cfcpysne	mvf0, mvf2
    2b74:	00420900 	subeq	r0, r2, r0, lsl #18
    2b78:	002c4904 	eoreq	r4, ip, r4, lsl #18
    2b7c:	01040000 	mrseq	r0, (UNDEF: 4)
    2b80:	4309001d 	movwmi	r0, #36893	; 0x901d
    2b84:	2c4a0400 	cfstrdcs	mvd0, [sl], {-0}
    2b88:	04000000 	streq	r0, [r0], #-0
    2b8c:	09001c01 	stmdbeq	r0, {r0, sl, fp, ip}
    2b90:	04004e58 	streq	r4, [r0], #-3672	; 0xe58
    2b94:	00002c4b 	andeq	r2, r0, fp, asr #24
    2b98:	1b010400 	blne	43ba0 <__bss_end__+0x379b0>
    2b9c:	052b0a00 	streq	r0, [fp, #-2560]!	; 0xa00
    2ba0:	4e040000 	cdpmi	0, 0, cr0, cr4, cr0, {0}
    2ba4:	0000002c 	andeq	r0, r0, ip, lsr #32
    2ba8:	00170404 	andseq	r0, r7, r4, lsl #8
    2bac:	504d4909 	subpl	r4, sp, r9, lsl #18
    2bb0:	2c4f0400 	cfstrdcs	mvd0, [pc], {-0}
    2bb4:	04000000 	streq	r0, [r0], #-0
    2bb8:	09001601 	stmdbeq	r0, {r0, r9, sl, ip}
    2bbc:	04005041 	streq	r5, [r0], #-65	; 0x41
    2bc0:	00002c52 	andeq	r2, r0, r2, asr ip
    2bc4:	14020400 	strne	r0, [r2], #-1024	; 0x400
    2bc8:	45540900 	ldrbmi	r0, [r4, #-2304]	; 0x900
    2bcc:	53040058 	movwpl	r0, #16472	; 0x4058
    2bd0:	0000002c 	andeq	r0, r0, ip, lsr #32
    2bd4:	00110304 	andseq	r0, r1, r4, lsl #6
    2bd8:	58504109 	ldmdapl	r0, {r0, r3, r8, lr}^
    2bdc:	2c540400 	cfldrdcs	mvd0, [r4], {-0}
    2be0:	04000000 	streq	r0, [r0], #-0
    2be4:	09001001 	stmdbeq	r0, {r0, ip}
    2be8:	55040053 	strpl	r0, [r4, #-83]	; 0x53
    2bec:	0000002c 	andeq	r0, r0, ip, lsr #32
    2bf0:	000f0104 	andeq	r0, pc, r4, lsl #2
    2bf4:	00476e09 	subeq	r6, r7, r9, lsl #28
    2bf8:	002c5604 	eoreq	r5, ip, r4, lsl #12
    2bfc:	01040000 	mrseq	r0, (UNDEF: 4)
    2c00:	300a000e 	andcc	r0, sl, lr
    2c04:	04000003 	streq	r0, [r0], #-3
    2c08:	00002c57 	andeq	r2, r0, r7, asr ip
    2c0c:	0d010400 	cfstrseq	mvf0, [r1, #-0]
    2c10:	05380a00 	ldreq	r0, [r8, #-2560]!	; 0xa00
    2c14:	58040000 	stmdapl	r4, {}	; <UNPREDICTABLE>
    2c18:	0000002c 	andeq	r0, r0, ip, lsr #32
    2c1c:	000c0104 	andeq	r0, ip, r4, lsl #2
    2c20:	00029c0a 	andeq	r9, r2, sl, lsl #24
    2c24:	2c590400 	cfldrdcs	mvd0, [r9], {-0}
    2c28:	04000000 	streq	r0, [r0], #-0
    2c2c:	0000000c 	andeq	r0, r0, ip
    2c30:	0002fa04 	andeq	pc, r2, r4, lsl #20
    2c34:	915a0400 	cmpls	sl, r0, lsl #8
    2c38:	0b000000 	bleq	2c40 <__code_start__-0x53c0>
    2c3c:	93680401 	cmnls	r8, #16777216	; 0x1000000
    2c40:	0c000001 	stceq	0, cr0, [r0], {1}
    2c44:	00000798 	muleq	r0, r8, r7
    2c48:	073d0c00 	ldreq	r0, [sp, -r0, lsl #24]!
    2c4c:	0c010000 	stceq	0, cr0, [r1], {-0}
    2c50:	00000763 	andeq	r0, r0, r3, ror #14
    2c54:	06de0c02 	ldrbeq	r0, [lr], r2, lsl #24
    2c58:	00030000 	andeq	r0, r3, r0
    2c5c:	26060c0d 	strcs	r0, [r6], -sp, lsl #24
    2c60:	000001c0 	andeq	r0, r0, r0, asr #3
    2c64:	0007a60e 	andeq	sl, r7, lr, lsl #12
    2c68:	5d270600 	stcpl	6, cr0, [r7, #-0]
    2c6c:	00000000 	andeq	r0, r0, r0
    2c70:	0007c00e 	andeq	ip, r7, lr
    2c74:	5d280600 	stcpl	6, cr0, [r8, #-0]
    2c78:	04000000 	streq	r0, [r0], #-0
    2c7c:	0007700e 	andeq	r7, r7, lr
    2c80:	5d290600 	stcpl	6, cr0, [r9, #-0]
    2c84:	08000000 	stmdaeq	r0, {}	; <UNPREDICTABLE>
    2c88:	08440400 	stmdaeq	r4, {sl}^
    2c8c:	2a060000 	bcs	182c94 <__bss_end__+0x176aa4>
    2c90:	00000193 	muleq	r0, r3, r1
    2c94:	1301040b 	movwne	r0, #5131	; 0x140b
    2c98:	000001dd 	ldrdeq	r0, [r0], -sp
    2c9c:	0005950c 	andeq	r9, r5, ip, lsl #10
    2ca0:	c0808000 	addgt	r8, r0, r0
    2ca4:	010b0000 	mrseq	r0, (UNDEF: 11)
    2ca8:	01f21601 	mvnseq	r1, r1, lsl #12
    2cac:	080c0000 	stmdaeq	ip, {}	; <UNPREDICTABLE>
    2cb0:	01000007 	tsteq	r0, r7
    2cb4:	0006ea0c 	andeq	lr, r6, ip, lsl #20
    2cb8:	0f000200 	svceq	0x00000200
    2cbc:	0000080e 	andeq	r0, r0, lr, lsl #16
    2cc0:	005d5f03 	subseq	r5, sp, r3, lsl #30
    2cc4:	0e030000 	cdpeq	0, 0, cr0, cr3, cr0, {0}
    2cc8:	10000002 	andne	r0, r0, r2
    2ccc:	00746572 	rsbseq	r6, r4, r2, ror r5
    2cd0:	005d5f03 	subseq	r5, sp, r3, lsl #30
    2cd4:	0f000000 	svceq	0x00000000
    2cd8:	000007d8 	ldrdeq	r0, [r0], -r8
    2cdc:	002c7003 	eoreq	r7, ip, r3
    2ce0:	28030000 	stmdacs	r3, {}	; <UNPREDICTABLE>
    2ce4:	11000002 	tstne	r0, r2
    2ce8:	70030072 	andvc	r0, r3, r2, ror r0
    2cec:	0000005d 	andeq	r0, r0, sp, asr r0
    2cf0:	07900f00 	ldreq	r0, [r0, r0, lsl #30]
    2cf4:	63030000 	movwvs	r0, #12288	; 0x3000
    2cf8:	0000005d 	andeq	r0, r0, sp, asr r0
    2cfc:	00024403 	andeq	r4, r2, r3, lsl #8
    2d00:	65721000 	ldrbvs	r1, [r2, #-0]!
    2d04:	63030074 	movwvs	r0, #12404	; 0x3074
    2d08:	0000005d 	andeq	r0, r0, sp, asr r0
    2d0c:	07ff1200 	ldrbeq	r1, [pc, r0, lsl #4]!
    2d10:	1c010000 	stcne	0, cr0, [r1], {-0}
    2d14:	000001c0 	andeq	r0, r0, r0, asr #3
    2d18:	000094e8 	andeq	r9, r0, r8, ror #9
    2d1c:	0000001c 	andeq	r0, r0, ip, lsl r0
    2d20:	b1139c01 	tstlt	r3, r1, lsl #24
    2d24:	01000007 	tsteq	r0, r7
    2d28:	0095041f 	addseq	r0, r5, pc, lsl r4
    2d2c:	00001800 	andeq	r1, r0, r0, lsl #16
    2d30:	969c0100 	ldrls	r0, [ip], r0, lsl #2
    2d34:	14000002 	strne	r0, [r0], #-2
    2d38:	000007c0 	andeq	r0, r0, r0, asr #15
    2d3c:	005d1f01 	subseq	r1, sp, r1, lsl #30
    2d40:	50010000 	andpl	r0, r1, r0
    2d44:	0007a614 	andeq	sl, r7, r4, lsl r6
    2d48:	5d1f0100 	ldfpls	f0, [pc, #-0]	; 2d50 <__code_start__-0x52b0>
    2d4c:	01000000 	mrseq	r0, (UNDEF: 0)
    2d50:	07761451 			; <UNDEFINED> instruction: 0x07761451
    2d54:	1f010000 	svcne	0x00010000
    2d58:	0000005d 	andeq	r0, r0, sp, asr r0
    2d5c:	13005201 	movwne	r5, #513	; 0x201
    2d60:	00000817 	andeq	r0, r0, r7, lsl r8
    2d64:	951c2601 	ldrls	r2, [ip, #-1537]	; 0x601
    2d68:	00f00000 	rscseq	r0, r0, r0
    2d6c:	9c010000 	stcls	0, cr0, [r1], {-0}
    2d70:	00000424 	andeq	r0, r0, r4, lsr #8
    2d74:	00637015 	rsbeq	r7, r3, r5, lsl r0
    2d78:	005d2601 	subseq	r2, sp, r1, lsl #12
    2d7c:	0e110000 	cdpeq	0, 1, cr0, cr1, cr0, {0}
    2d80:	a5160000 	ldrge	r0, [r6, #-0]
    2d84:	01000002 	tsteq	r0, r2
    2d88:	00005d26 	andeq	r5, r0, r6, lsr #26
    2d8c:	000e3d00 	andeq	r3, lr, r0, lsl #26
    2d90:	07761600 	ldrbeq	r1, [r6, -r0, lsl #12]!
    2d94:	26010000 	strcs	r0, [r1], -r0
    2d98:	0000005d 	andeq	r0, r0, sp, asr r0
    2d9c:	00000e69 	andeq	r0, r0, r9, ror #28
    2da0:	01006c17 	tsteq	r0, r7, lsl ip
    2da4:	0001c027 	andeq	ip, r1, r7, lsr #32
    2da8:	64910200 	ldrvs	r0, [r1], #512	; 0x200
    2dac:	00006318 	andeq	r6, r0, r8, lsl r3
    2db0:	00043400 	andeq	r3, r4, r0, lsl #8
    2db4:	a4030500 	strge	r0, [r3], #-1280	; 0x500
    2db8:	190000b9 	stmdbne	r0, {r0, r3, r4, r5, r7}
    2dbc:	00009538 	andeq	r9, r0, r8, lsr r5
    2dc0:	00000244 	andeq	r0, r0, r4, asr #4
    2dc4:	00000306 	andeq	r0, r0, r6, lsl #6
    2dc8:	0250011a 	subseq	r0, r0, #-2147483642	; 0x80000006
    2dcc:	1b005c91 	blne	1a018 <__bss_end__+0xde28>
    2dd0:	00009548 	andeq	r9, r0, r8, asr #10
    2dd4:	00000f9a 	muleq	r0, sl, pc	; <UNPREDICTABLE>
    2dd8:	00956419 	addseq	r6, r5, r9, lsl r4
    2ddc:	000fa100 	andeq	sl, pc, r0, lsl #2
    2de0:	00034800 	andeq	r4, r3, r0, lsl #16
    2de4:	53011a00 	movwpl	r1, #6656	; 0x1a00
    2de8:	1a280802 	bne	a04df8 <__bss_end__+0x9f8c08>
    2dec:	03055201 	movweq	r5, #20993	; 0x5201
    2df0:	0000b9a4 	andeq	fp, r0, r4, lsr #19
    2df4:	0551011a 	ldrbeq	r0, [r1, #-282]	; 0x11a
    2df8:	00b79803 	adcseq	r9, r7, r3, lsl #16
    2dfc:	50011a00 	andpl	r1, r1, r0, lsl #20
    2e00:	ade80305 	stclge	3, cr0, [r8, #20]!
    2e04:	021a0000 	andseq	r0, sl, #0
    2e08:	0305007d 	movweq	r0, #20605	; 0x507d
    2e0c:	0000b7a4 	andeq	fp, r0, r4, lsr #15
    2e10:	95681b00 	strbls	r1, [r8, #-2816]!	; 0xb00
    2e14:	0fb70000 	svceq	0x00b70000
    2e18:	781b0000 	ldmdavc	fp, {}	; <UNPREDICTABLE>
    2e1c:	9a000095 	bls	3078 <__code_start__-0x4f88>
    2e20:	1900000f 	stmdbne	r0, {r0, r1, r2, r3}
    2e24:	00009594 	muleq	r0, r4, r5
    2e28:	00000fa1 	andeq	r0, r0, r1, lsr #31
    2e2c:	00000393 	muleq	r0, r3, r3
    2e30:	0253011a 	subseq	r0, r3, #-2147483642	; 0x80000006
    2e34:	011a2908 	tsteq	sl, r8, lsl #18
    2e38:	a4030552 	strge	r0, [r3], #-1362	; 0x552
    2e3c:	1a0000b9 	bne	3128 <__code_start__-0x4ed8>
    2e40:	03055101 	movweq	r5, #20737	; 0x5101
    2e44:	0000b798 	muleq	r0, r8, r7
    2e48:	0550011a 	ldrbeq	r0, [r0, #-282]	; 0x11a
    2e4c:	00ade803 	adceq	lr, sp, r3, lsl #16
    2e50:	7d021a00 	vstrvc	s2, [r2, #-0]
    2e54:	bc030500 	cfstr32lt	mvfx0, [r3], {-0}
    2e58:	000000b7 	strheq	r0, [r0], -r7
    2e5c:	0095981b 	addseq	r9, r5, fp, lsl r8
    2e60:	000fb700 	andeq	fp, pc, r0, lsl #14
    2e64:	95a81b00 	strls	r1, [r8, #2816]!	; 0xb00
    2e68:	0f9a0000 	svceq	0x009a0000
    2e6c:	c4190000 	ldrgt	r0, [r9], #-0
    2e70:	a1000095 	swpge	r0, r5, [r0]	; <UNPREDICTABLE>
    2e74:	de00000f 	cdple	0, 0, cr0, cr0, cr15, {0}
    2e78:	1a000003 	bne	2e8c <__code_start__-0x5174>
    2e7c:	08025301 	stmdaeq	r2, {r0, r8, r9, ip, lr}
    2e80:	52011a2a 	andpl	r1, r1, #172032	; 0x2a000
    2e84:	b9a40305 	stmiblt	r4!, {r0, r2, r8, r9}
    2e88:	011a0000 	tsteq	sl, r0
    2e8c:	98030551 	stmdals	r3, {r0, r4, r6, r8, sl}
    2e90:	1a0000b7 	bne	3174 <__code_start__-0x4e8c>
    2e94:	03055001 	movweq	r5, #20481	; 0x5001
    2e98:	0000ade8 	andeq	sl, r0, r8, ror #27
    2e9c:	007d021a 	rsbseq	r0, sp, sl, lsl r2
    2ea0:	b7d00305 	ldrblt	r0, [r0, r5, lsl #6]
    2ea4:	1b000000 	blne	2eac <__code_start__-0x5154>
    2ea8:	000095c8 	andeq	r9, r0, r8, asr #11
    2eac:	00000fb7 			; <UNDEFINED> instruction: 0x00000fb7
    2eb0:	0095d019 	addseq	sp, r5, r9, lsl r0
    2eb4:	000fa100 	andeq	sl, pc, r0, lsl #2
    2eb8:	0003fe00 	andeq	pc, r3, r0, lsl #28
    2ebc:	50011a00 	andpl	r1, r1, r0, lsl #20
    2ec0:	ae340305 	cdpge	3, 3, cr0, cr4, cr5, {0}
    2ec4:	1c000000 	stcne	0, cr0, [r0], {-0}
    2ec8:	000095e4 	andeq	r9, r0, r4, ror #11
    2ecc:	00000fa1 	andeq	r0, r0, r1, lsr #31
    2ed0:	0253011a 	subseq	r0, r3, #-2147483642	; 0x80000006
    2ed4:	011a0075 	tsteq	sl, r5, ror r0
    2ed8:	00740252 	rsbseq	r0, r4, r2, asr r2
    2edc:	0251011a 	subseq	r0, r1, #-2147483642	; 0x80000006
    2ee0:	011a0076 	tsteq	sl, r6, ror r0
    2ee4:	ec030550 	cfstr32	mvfx0, [r3], {80}	; 0x50
    2ee8:	000000b7 	strheq	r0, [r0], -r7
    2eec:	007f1d00 	rsbseq	r1, pc, r0, lsl #26
    2ef0:	04340000 	ldrteq	r0, [r4], #-0
    2ef4:	761e0000 	ldrvc	r0, [lr], -r0
    2ef8:	0e000000 	cdpeq	0, 0, cr0, cr0, cr0, {0}
    2efc:	04240700 	strteq	r0, [r4], #-1792	; 0x700
    2f00:	e90f0000 	stmdb	pc, {}	; <UNPREDICTABLE>
    2f04:	02000007 	andeq	r0, r0, #7
    2f08:	00005d1c 	andeq	r5, r0, ip, lsl sp
    2f0c:	047d0300 	ldrbteq	r0, [sp], #-768	; 0x300
    2f10:	78110000 	ldmdavc	r1, {}	; <UNPREDICTABLE>
    2f14:	5d1c0200 	lfmpl	f0, 4, [ip, #-0]
    2f18:	11000000 	mrsne	r0, (UNDEF: 0)
    2f1c:	0200626c 	andeq	r6, r0, #108, 4	; 0xc0000006
    2f20:	00002c1c 	andeq	r2, r0, ip, lsl ip
    2f24:	62751100 	rsbsvs	r1, r5, #0, 2
    2f28:	2c1c0200 	lfmcs	f0, 4, [ip], {-0}
    2f2c:	1f000000 	svcne	0x00000000
    2f30:	00000063 	andeq	r0, r0, r3, rrx
    2f34:	0000048d 	andeq	r0, r0, sp, lsl #9
    2f38:	000007e9 	andeq	r0, r0, r9, ror #15
    2f3c:	02006e10 	andeq	r6, r0, #16, 28	; 0x100
    2f40:	00002c1f 	andeq	r2, r0, pc, lsl ip
    2f44:	7f1d0000 	svcvc	0x001d0000
    2f48:	8d000000 	stchi	0, cr0, [r0, #-0]
    2f4c:	1e000004 	cdpne	0, 0, cr0, cr0, cr4, {0}
    2f50:	00000076 	andeq	r0, r0, r6, ror r0
    2f54:	7d070008 	stcvc	0, cr0, [r7, #-32]	; 0xffffffe0
    2f58:	20000004 	andcs	r0, r0, r4
    2f5c:	00000851 	andeq	r0, r0, r1, asr r8
    2f60:	002c3901 	eoreq	r3, ip, r1, lsl #18
    2f64:	960c0000 	strls	r0, [ip], -r0
    2f68:	00a40000 	adceq	r0, r4, r0
    2f6c:	9c010000 	stcls	0, cr0, [r1], {-0}
    2f70:	000005b2 			; <UNDEFINED> instruction: 0x000005b2
    2f74:	6d6f6415 	cfstrdvs	mvd6, [pc, #-84]!	; 2f28 <__code_start__-0x50d8>
    2f78:	2c390100 	ldfcss	f0, [r9], #-0
    2f7c:	95000000 	strls	r0, [r0, #-0]
    2f80:	2100000e 	tstcs	r0, lr
    2f84:	3a010078 	bcc	4316c <__bss_end__+0x36f7c>
    2f88:	0000002c 	andeq	r0, r0, ip, lsr #32
    2f8c:	00000ec1 	andeq	r0, r0, r1, asr #29
    2f90:	00043922 	andeq	r3, r4, r2, lsr #18
    2f94:	00962800 	addseq	r2, r6, r0, lsl #16
    2f98:	00006800 	andeq	r6, r0, r0, lsl #16
    2f9c:	a83b0100 	ldmdage	fp!, {r8}
    2fa0:	23000005 	movwcs	r0, #5
    2fa4:	0000045c 	andeq	r0, r0, ip, asr r4
    2fa8:	00000eea 	andeq	r0, r0, sl, ror #29
    2fac:	00045223 	andeq	r5, r4, r3, lsr #4
    2fb0:	000f5200 	andeq	r5, pc, r0, lsl #4
    2fb4:	04492300 	strbeq	r2, [r9], #-768	; 0x300
    2fb8:	0f990000 	svceq	0x00990000
    2fbc:	28240000 	stmdacs	r4!, {}	; <UNPREDICTABLE>
    2fc0:	68000096 	stmdavs	r0, {r1, r2, r4, r7}
    2fc4:	25000000 	strcs	r0, [r0, #-0]
    2fc8:	00000473 	andeq	r0, r0, r3, ror r4
    2fcc:	00000fc2 	andeq	r0, r0, r2, asr #31
    2fd0:	00046626 	andeq	r6, r4, r6, lsr #12
    2fd4:	3c030500 	cfstr32cc	mvfx0, [r3], {-0}
    2fd8:	1b0000ba 	blne	32c8 <__code_start__-0x4d38>
    2fdc:	00009634 	andeq	r9, r0, r4, lsr r6
    2fe0:	00000f9a 	muleq	r0, sl, pc	; <UNPREDICTABLE>
    2fe4:	00965019 	addseq	r5, r6, r9, lsl r0
    2fe8:	000fa100 	andeq	sl, pc, r0, lsl #2
    2fec:	00055300 	andeq	r5, r5, r0, lsl #6
    2ff0:	53011a00 	movwpl	r1, #6656	; 0x1a00
    2ff4:	011a4d01 	tsteq	sl, r1, lsl #26
    2ff8:	3c030552 	cfstr32cc	mvfx0, [r3], {82}	; 0x52
    2ffc:	1a0000ba 	bne	32ec <__code_start__-0x4d14>
    3000:	03055101 	movweq	r5, #20737	; 0x5101
    3004:	0000b820 	andeq	fp, r0, r0, lsr #16
    3008:	0550011a 	ldrbeq	r0, [r0, #-282]	; 0x11a
    300c:	00ade803 	adceq	lr, sp, r3, lsl #16
    3010:	7d021a00 	vstrvc	s2, [r2, #-0]
    3014:	30030500 	andcc	r0, r3, r0, lsl #10
    3018:	000000b8 	strheq	r0, [r0], -r8
    301c:	0096541b 	addseq	r5, r6, fp, lsl r4
    3020:	000fb700 	andeq	fp, pc, r0, lsl #14
    3024:	96601b00 	strbtls	r1, [r0], -r0, lsl #22
    3028:	0f9a0000 	svceq	0x009a0000
    302c:	7c190000 	ldcvc	0, cr0, [r9], {-0}
    3030:	a1000096 	swpge	r0, r6, [r0]	; <UNPREDICTABLE>
    3034:	9d00000f 	stcls	0, cr0, [r0, #-60]	; 0xffffffc4
    3038:	1a000005 	bne	3054 <__code_start__-0x4fac>
    303c:	4e015301 	cdpmi	3, 0, cr5, cr1, cr1, {0}
    3040:	0552011a 	ldrbeq	r0, [r2, #-282]	; 0x11a
    3044:	00ba3c03 	adcseq	r3, sl, r3, lsl #24
    3048:	51011a00 	tstpl	r1, r0, lsl #20
    304c:	b8200305 	stmdalt	r0!, {r0, r2, r8, r9}
    3050:	011a0000 	tsteq	sl, r0
    3054:	e8030550 	stmda	r3, {r4, r6, r8, sl}
    3058:	1a0000ad 	bne	3314 <__code_start__-0x4cec>
    305c:	05007d02 	streq	r7, [r0, #-3330]	; 0xd02
    3060:	00b83c03 	adcseq	r3, r8, r3, lsl #24
    3064:	801b0000 	andshi	r0, fp, r0
    3068:	b7000096 			; <UNDEFINED> instruction: 0xb7000096
    306c:	0000000f 	andeq	r0, r0, pc
    3070:	961c1b00 	ldrls	r1, [ip], -r0, lsl #22
    3074:	0fbe0000 	svceq	0x00be0000
    3078:	27000000 	strcs	r0, [r0, -r0]
    307c:	000007f2 	strdeq	r0, [r0], -r2
    3080:	96b04001 	ldrtls	r4, [r0], r1
    3084:	00940000 	addseq	r0, r4, r0
    3088:	9c010000 	stcls	0, cr0, [r1], {-0}
    308c:	000006cc 	andeq	r0, r0, ip, asr #13
    3090:	6d6f6415 	cfstrdvs	mvd6, [pc, #-84]!	; 3044 <__code_start__-0x4fbc>
    3094:	2c400100 	stfcse	f0, [r0], {-0}
    3098:	00000000 	andeq	r0, r0, r0
    309c:	16000010 			; <UNDEFINED> instruction: 0x16000010
    30a0:	00000430 	andeq	r0, r0, r0, lsr r4
    30a4:	002c4001 	eoreq	r4, ip, r1
    30a8:	10530000 	subsne	r0, r3, r0
    30ac:	63180000 	tstvs	r8, #0
    30b0:	dc000000 	stcle	0, cr0, [r0], {-0}
    30b4:	05000006 	streq	r0, [r0, #-6]
    30b8:	00ba4803 	adcseq	r4, sl, r3, lsl #16
    30bc:	96c41b00 	strbls	r1, [r4], r0, lsl #22
    30c0:	0f9a0000 	svceq	0x009a0000
    30c4:	e0190000 	ands	r0, r9, r0
    30c8:	a1000096 	swpge	r0, r6, [r0]	; <UNPREDICTABLE>
    30cc:	3600000f 	strcc	r0, [r0], -pc
    30d0:	1a000006 	bne	30f0 <__code_start__-0x4f10>
    30d4:	08025301 	stmdaeq	r2, {r0, r8, r9, ip, lr}
    30d8:	52011a41 	andpl	r1, r1, #266240	; 0x41000
    30dc:	ba480305 	blt	1203cf8 <__bss_end__+0x11f7b08>
    30e0:	011a0000 	tsteq	sl, r0
    30e4:	98030551 	stmdals	r3, {r0, r4, r6, r8, sl}
    30e8:	1a0000b7 	bne	33cc <__code_start__-0x4c34>
    30ec:	03055001 	movweq	r5, #20481	; 0x5001
    30f0:	0000ade8 	andeq	sl, r0, r8, ror #27
    30f4:	007d021a 	rsbseq	r0, sp, sl, lsl r2
    30f8:	b0b40305 	adcslt	r0, r4, r5, lsl #6
    30fc:	1b000000 	blne	3104 <__code_start__-0x4efc>
    3100:	000096e4 	andeq	r9, r0, r4, ror #13
    3104:	00000fb7 			; <UNDEFINED> instruction: 0x00000fb7
    3108:	0096f01b 	addseq	pc, r6, fp, lsl r0	; <UNPREDICTABLE>
    310c:	000f9a00 	andeq	r9, pc, r0, lsl #20
    3110:	970c1900 	strls	r1, [ip, -r0, lsl #18]
    3114:	0fa10000 	svceq	0x00a10000
    3118:	06810000 	streq	r0, [r1], r0
    311c:	011a0000 	tsteq	sl, r0
    3120:	42080253 	andmi	r0, r8, #805306373	; 0x30000005
    3124:	0552011a 	ldrbeq	r0, [r2, #-282]	; 0x11a
    3128:	00ba4803 	adcseq	r4, sl, r3, lsl #16
    312c:	51011a00 	tstpl	r1, r0, lsl #20
    3130:	b7980305 	ldrlt	r0, [r8, r5, lsl #6]
    3134:	011a0000 	tsteq	sl, r0
    3138:	e8030550 	stmda	r3, {r4, r6, r8, sl}
    313c:	1a0000ad 	bne	33f8 <__code_start__-0x4c08>
    3140:	05007d02 	streq	r7, [r0, #-3330]	; 0xd02
    3144:	00b84403 	adcseq	r4, r8, r3, lsl #8
    3148:	101b0000 	andsne	r0, fp, r0
    314c:	b7000097 			; <UNDEFINED> instruction: 0xb7000097
    3150:	1b00000f 	blne	3194 <__code_start__-0x4e6c>
    3154:	00009714 	andeq	r9, r0, r4, lsl r7
    3158:	00000f9a 	muleq	r0, sl, pc	; <UNPREDICTABLE>
    315c:	00972819 	addseq	r2, r7, r9, lsl r8
    3160:	000fa100 	andeq	sl, pc, r0, lsl #2
    3164:	0006c200 	andeq	ip, r6, r0, lsl #4
    3168:	53011a00 	movwpl	r1, #6656	; 0x1a00
    316c:	1a440802 	bne	110517c <__bss_end__+0x10f8f8c>
    3170:	03055201 	movweq	r5, #20993	; 0x5201
    3174:	0000ba48 	andeq	fp, r0, r8, asr #20
    3178:	0551011a 	ldrbeq	r0, [r1, #-282]	; 0x11a
    317c:	00b79803 	adcseq	r9, r7, r3, lsl #16
    3180:	50011a00 	andpl	r1, r1, r0, lsl #20
    3184:	b8700305 	ldmdalt	r0!, {r0, r2, r8, r9}^
    3188:	1b000000 	blne	3190 <__code_start__-0x4e70>
    318c:	0000972c 	andeq	r9, r0, ip, lsr #14
    3190:	00000fb7 			; <UNDEFINED> instruction: 0x00000fb7
    3194:	007f1d00 	rsbseq	r1, pc, r0, lsl #26
    3198:	06dc0000 	ldrbeq	r0, [ip], r0
    319c:	761e0000 	ldrvc	r0, [lr], -r0
    31a0:	0c000000 	stceq	0, cr0, [r0], {-0}
    31a4:	06cc0700 	strbeq	r0, [ip], r0, lsl #14
    31a8:	26280000 	strtcs	r0, [r8], -r0
    31ac:	01000008 	tsteq	r0, r8
    31b0:	0097444e 	addseq	r4, r7, lr, asr #8
    31b4:	00001400 	andeq	r1, r0, r0, lsl #8
    31b8:	0f9c0100 	svceq	0x009c0100
    31bc:	000006bf 			; <UNDEFINED> instruction: 0x000006bf
    31c0:	002c7603 	eoreq	r7, ip, r3, lsl #12
    31c4:	19030000 	stmdbne	r3, {}	; <UNPREDICTABLE>
    31c8:	10000007 	andne	r0, r0, r7
    31cc:	77030072 	smlsdxvc	r3, r2, r0, r0
    31d0:	0000002c 	andeq	r0, r0, ip, lsr #32
    31d4:	0000631f 	andeq	r6, r0, pc, lsl r3
    31d8:	00072900 	andeq	r2, r7, r0, lsl #18
    31dc:	0006bf00 	andeq	fp, r6, r0, lsl #30
    31e0:	7f1d0000 	svcvc	0x001d0000
    31e4:	29000000 	stmdbcs	r0, {}	; <UNPREDICTABLE>
    31e8:	1e000007 	cdpne	0, 0, cr0, cr0, cr7, {0}
    31ec:	00000076 	andeq	r0, r0, r6, ror r0
    31f0:	19070013 	stmdbne	r7, {r0, r1, r4}
    31f4:	13000007 	movwne	r0, #7
    31f8:	000006ad 	andeq	r0, r0, sp, lsr #13
    31fc:	97585301 	ldrbls	r5, [r8, -r1, lsl #6]
    3200:	00680000 	rsbeq	r0, r8, r0
    3204:	9c010000 	stcls	0, cr0, [r1], {-0}
    3208:	0000087f 	andeq	r0, r0, pc, ror r8
    320c:	00726c15 	rsbseq	r6, r2, r5, lsl ip
    3210:	002c5301 	eoreq	r5, ip, r1, lsl #6
    3214:	10a60000 	adcne	r0, r6, r0
    3218:	63180000 	tstvs	r8, #0
    321c:	8f000000 	svchi	0x00000000
    3220:	05000008 	streq	r0, [r0, #-8]
    3224:	00b9b403 	adcseq	fp, r9, r3, lsl #8
    3228:	075e2900 	ldrbeq	r2, [lr, -r0, lsl #18]
    322c:	58010000 	stmdapl	r1, {}	; <UNPREDICTABLE>
    3230:	0000002c 	andeq	r0, r0, ip, lsr #32
    3234:	0007a629 	andeq	sl, r7, r9, lsr #12
    3238:	2c590100 	ldfcse	f0, [r9], {-0}
    323c:	29000000 	stmdbcs	r0, {}	; <UNPREDICTABLE>
    3240:	00000776 	andeq	r0, r0, r6, ror r7
    3244:	002c5c01 	eoreq	r5, ip, r1, lsl #24
    3248:	f2220000 	vhadd.s32	d0, d2, d0
    324c:	5c000006 	stcpl	0, cr0, [r0], {6}
    3250:	2c000097 	stccs	0, cr0, [r0], {151}	; 0x97
    3254:	01000000 	mrseq	r0, (UNDEF: 0)
    3258:	00083454 	andeq	r3, r8, r4, asr r4
    325c:	975c2400 	ldrbls	r2, [ip, -r0, lsl #8]
    3260:	002c0000 	eoreq	r0, ip, r0
    3264:	022a0000 	eoreq	r0, sl, #0
    3268:	26000007 	strcs	r0, [r0], -r7
    326c:	0000070b 	andeq	r0, r0, fp, lsl #14
    3270:	b9c80305 	stmiblt	r8, {r0, r2, r8, r9}^
    3274:	f2220000 	vhadd.s32	d0, d2, d0
    3278:	5c000001 	stcpl	0, cr0, [r0], {1}
    327c:	04000097 	streq	r0, [r0], #-151	; 0x97
    3280:	03000000 	movweq	r0, #0
    3284:	0007d477 	andeq	sp, r7, r7, ror r4
    3288:	975c2400 	ldrbls	r2, [ip, -r0, lsl #8]
    328c:	00040000 	andeq	r0, r4, r0
    3290:	02250000 	eoreq	r0, r5, #0
    3294:	e0000002 	and	r0, r0, r2
    3298:	00000010 	andeq	r0, r0, r0, lsl r0
    329c:	020e2200 	andeq	r2, lr, #0, 4
    32a0:	97600000 	strbls	r0, [r0, -r0]!
    32a4:	00040000 	andeq	r0, r4, r0
    32a8:	78030000 	stmdavc	r3, {}	; <UNPREDICTABLE>
    32ac:	000007f1 	strdeq	r0, [r0], -r1
    32b0:	00021e23 	andeq	r1, r2, r3, lsr #28
    32b4:	0010e000 	andseq	lr, r0, r0
    32b8:	701b0000 	andsvc	r0, fp, r0
    32bc:	9a000097 	bls	3520 <__code_start__-0x4ae0>
    32c0:	1900000f 	stmdbne	r0, {r0, r1, r2, r3}
    32c4:	00009784 	andeq	r9, r0, r4, lsl #15
    32c8:	00000fa1 	andeq	r0, r0, r1, lsr #31
    32cc:	00000829 	andeq	r0, r0, r9, lsr #16
    32d0:	0253011a 	subseq	r0, r3, #-2147483642	; 0x80000006
    32d4:	011a7908 	tsteq	sl, r8, lsl #18
    32d8:	c8030552 	stmdagt	r3, {r1, r4, r6, r8, sl}
    32dc:	1a0000b9 	bne	35c8 <__code_start__-0x4a38>
    32e0:	03055101 	movweq	r5, #20737	; 0x5101
    32e4:	0000b8d4 	ldrdeq	fp, [r0], -r4
    32e8:	0550011a 	ldrbeq	r0, [r0, #-282]	; 0x11a
    32ec:	00b89c03 	adcseq	r9, r8, r3, lsl #24
    32f0:	881b0000 	ldmdahi	fp, {}	; <UNPREDICTABLE>
    32f4:	b7000097 			; <UNDEFINED> instruction: 0xb7000097
    32f8:	0000000f 	andeq	r0, r0, pc
    32fc:	978c1b00 	strls	r1, [ip, r0, lsl #22]
    3300:	0fc90000 	svceq	0x00c90000
    3304:	901b0000 	andsls	r0, fp, r0
    3308:	9a000097 	bls	356c <__code_start__-0x4a94>
    330c:	1900000f 	stmdbne	r0, {r0, r1, r2, r3}
    3310:	000097a4 	andeq	r9, r0, r4, lsr #15
    3314:	00000fa1 	andeq	r0, r0, r1, lsr #31
    3318:	00000875 	andeq	r0, r0, r5, ror r8
    331c:	0253011a 	subseq	r0, r3, #-2147483642	; 0x80000006
    3320:	011a5508 	tsteq	sl, r8, lsl #10
    3324:	b4030552 	strlt	r0, [r3], #-1362	; 0x552
    3328:	1a0000b9 	bne	3614 <__code_start__-0x49ec>
    332c:	03055101 	movweq	r5, #20737	; 0x5101
    3330:	0000b798 	muleq	r0, r8, r7
    3334:	0550011a 	ldrbeq	r0, [r0, #-282]	; 0x11a
    3338:	00b8e403 	adcseq	lr, r8, r3, lsl #8
    333c:	a81b0000 	ldmdage	fp, {}	; <UNPREDICTABLE>
    3340:	b7000097 			; <UNDEFINED> instruction: 0xb7000097
    3344:	0000000f 	andeq	r0, r0, pc
    3348:	00007f1d 	andeq	r7, r0, sp, lsl pc
    334c:	00088f00 	andeq	r8, r8, r0, lsl #30
    3350:	00761e00 	rsbseq	r1, r6, r0, lsl #28
    3354:	00110000 	andseq	r0, r1, r0
    3358:	00087f07 	andeq	r7, r8, r7, lsl #30
    335c:	0acf1300 	beq	ff3c7f64 <__bss_end__+0xff3bbd74>
    3360:	75010000 	strvc	r0, [r1, #-0]
    3364:	000097c0 	andeq	r9, r0, r0, asr #15
    3368:	00000030 	andeq	r0, r0, r0, lsr r0
    336c:	09119c01 	ldmdbeq	r1, {r0, sl, fp, ip, pc}
    3370:	6c150000 	ldcvs	0, cr0, [r5], {-0}
    3374:	75010072 	strvc	r0, [r1, #-114]	; 0x72
    3378:	0000002c 	andeq	r0, r0, ip, lsr #32
    337c:	000010f3 	strdeq	r1, [r0], -r3
    3380:	00006318 	andeq	r6, r0, r8, lsl r3
    3384:	00092100 	andeq	r2, r9, r0, lsl #2
    3388:	dc030500 	cfstr32le	mvfx0, [r3], {-0}
    338c:	1b0000b9 	blne	3678 <__code_start__-0x4988>
    3390:	000097c8 	andeq	r9, r0, r8, asr #15
    3394:	00000fc9 	andeq	r0, r0, r9, asr #31
    3398:	0097cc1b 	addseq	ip, r7, fp, lsl ip
    339c:	000f9a00 	andeq	r9, pc, r0, lsl #20
    33a0:	97e01900 	strbls	r1, [r0, r0, lsl #18]!
    33a4:	0fa10000 	svceq	0x00a10000
    33a8:	09070000 	stmdbeq	r7, {}	; <UNPREDICTABLE>
    33ac:	011a0000 	tsteq	sl, r0
    33b0:	77080253 	smlsdvc	r8, r3, r2, r0
    33b4:	0552011a 	ldrbeq	r0, [r2, #-282]	; 0x11a
    33b8:	00b9dc03 	adcseq	sp, r9, r3, lsl #24
    33bc:	51011a00 	tstpl	r1, r0, lsl #20
    33c0:	b7980305 	ldrlt	r0, [r8, r5, lsl #6]
    33c4:	011a0000 	tsteq	sl, r0
    33c8:	0c030550 	cfstr32eq	mvfx0, [r3], {80}	; 0x50
    33cc:	000000b9 	strheq	r0, [r0], -r9
    33d0:	0097e41b 	addseq	lr, r7, fp, lsl r4
    33d4:	000fb700 	andeq	fp, pc, r0, lsl #14
    33d8:	7f1d0000 	svcvc	0x001d0000
    33dc:	21000000 	mrscs	r0, (UNDEF: 0)
    33e0:	1e000009 	cdpne	0, 0, cr0, cr0, cr9, {0}
    33e4:	00000076 	andeq	r0, r0, r6, ror r0
    33e8:	11070010 	tstne	r7, r0, lsl r0
    33ec:	13000009 	movwne	r0, #9
    33f0:	0000016b 	andeq	r0, r0, fp, ror #2
    33f4:	97f08301 	ldrbls	r8, [r0, r1, lsl #6]!
    33f8:	01500000 	cmpeq	r0, r0
    33fc:	9c010000 	stcls	0, cr0, [r1], {-0}
    3400:	00000b3f 	andeq	r0, r0, pc, lsr fp
    3404:	00006318 	andeq	r6, r0, r8, lsl r3
    3408:	000b4f00 	andeq	r4, fp, r0, lsl #30
    340c:	f0030500 			; <UNDEFINED> instruction: 0xf0030500
    3410:	2b0000b9 	blcs	36fc <__code_start__-0x4904>
    3414:	00000e0b 	andeq	r0, r0, fp, lsl #28
    3418:	007d8801 	rsbseq	r8, sp, r1, lsl #16
    341c:	00000000 	andeq	r0, r0, r0
    3420:	fc1b0010 	ldc2	0, cr0, [fp], {16}
    3424:	d0000097 	mulle	r0, r7, r0
    3428:	1b00000f 	blne	346c <__code_start__-0x4b94>
    342c:	00009800 	andeq	r9, r0, r0, lsl #16
    3430:	00000fd7 	ldrdeq	r0, [r0], -r7
    3434:	00980c1b 	addseq	r0, r8, fp, lsl ip
    3438:	000f9a00 	andeq	r9, pc, r0, lsl #20
    343c:	98281900 	stmdals	r8!, {r8, fp, ip}
    3440:	0fa10000 	svceq	0x00a10000
    3444:	09ad0000 	stmibeq	sp!, {}	; <UNPREDICTABLE>
    3448:	011a0000 	tsteq	sl, r0
    344c:	86080253 			; <UNDEFINED> instruction: 0x86080253
    3450:	0552011a 	ldrbeq	r0, [r2, #-282]	; 0x11a
    3454:	00b9f003 	adcseq	pc, r9, r3
    3458:	51011a00 	tstpl	r1, r0, lsl #20
    345c:	b7980305 	ldrlt	r0, [r8, r5, lsl #6]
    3460:	011a0000 	tsteq	sl, r0
    3464:	e8030550 	stmda	r3, {r4, r6, r8, sl}
    3468:	1a0000ad 	bne	3724 <__code_start__-0x48dc>
    346c:	05007d02 	streq	r7, [r0, #-3330]	; 0xd02
    3470:	00ae5403 	adceq	r5, lr, r3, lsl #8
    3474:	2c1b0000 	ldccs	0, cr0, [fp], {-0}
    3478:	b7000098 			; <UNDEFINED> instruction: 0xb7000098
    347c:	1900000f 	stmdbne	r0, {r0, r1, r2, r3}
    3480:	00009838 	andeq	r9, r0, r8, lsr r8
    3484:	00000fe2 	andeq	r0, r0, r2, ror #31
    3488:	000009d2 	ldrdeq	r0, [r0], -r2
    348c:	0351011a 	cmpeq	r1, #-2147483642	; 0x80000006
    3490:	1a40000a 	bne	10034c0 <__bss_end__+0xff72d0>
    3494:	40035001 	andmi	r5, r3, r1
    3498:	1b002440 	blne	c5a0 <__bss_end__+0x3b0>
    349c:	0000984c 	andeq	r9, r0, ip, asr #16
    34a0:	00000f9a 	muleq	r0, sl, pc	; <UNPREDICTABLE>
    34a4:	00986819 	addseq	r6, r8, r9, lsl r8
    34a8:	000fa100 	andeq	sl, pc, r0, lsl #2
    34ac:	000a1400 	andeq	r1, sl, r0, lsl #8
    34b0:	53011a00 	movwpl	r1, #6656	; 0x1a00
    34b4:	1a8b0802 	bne	fe2c54c4 <__bss_end__+0xfe2b92d4>
    34b8:	03055201 	movweq	r5, #20993	; 0x5201
    34bc:	0000b9f0 	strdeq	fp, [r0], -r0
    34c0:	0551011a 	ldrbeq	r0, [r1, #-282]	; 0x11a
    34c4:	00b79803 	adcseq	r9, r7, r3, lsl #16
    34c8:	50011a00 	andpl	r1, r1, r0, lsl #20
    34cc:	ade80305 	stclge	3, cr0, [r8, #20]!
    34d0:	021a0000 	andseq	r0, sl, #0
    34d4:	0305007d 	movweq	r0, #20605	; 0x507d
    34d8:	0000b928 	andeq	fp, r0, r8, lsr #18
    34dc:	986c1b00 	stmdals	ip!, {r8, r9, fp, ip}^
    34e0:	0fb70000 	svceq	0x00b70000
    34e4:	7c190000 	ldcvc	0, cr0, [r9], {-0}
    34e8:	fc000098 	stc2	0, cr0, [r0], {152}	; 0x98
    34ec:	3a00000f 	bcc	3530 <__code_start__-0x4ad0>
    34f0:	1a00000a 	bne	3520 <__code_start__-0x4ae0>
    34f4:	31015301 	tstcc	r1, r1, lsl #6
    34f8:	0152011a 	cmpeq	r2, sl, lsl r1
    34fc:	51011a30 	tstpl	r1, r0, lsr sl
    3500:	19003001 	stmdbne	r0, {r0, ip, sp}
    3504:	00009894 	muleq	r0, r4, r8
    3508:	00000ffc 	strdeq	r0, [r0], -ip
    350c:	00000a5b 	andeq	r0, r0, fp, asr sl
    3510:	0153011a 	cmpeq	r3, sl, lsl r1
    3514:	52011a31 	andpl	r1, r1, #200704	; 0x31000
    3518:	24404003 	strbcs	r4, [r0], #-3
    351c:	0351011a 	cmpeq	r1, #-2147483642	; 0x80000006
    3520:	00244040 	eoreq	r4, r4, r0, asr #32
    3524:	0098a819 	addseq	sl, r8, r9, lsl r8
    3528:	000ffc00 	andeq	pc, pc, r0, lsl #24
    352c:	000a7e00 	andeq	r7, sl, r0, lsl #28
    3530:	53011a00 	movwpl	r1, #6656	; 0x1a00
    3534:	011a3101 	tsteq	sl, r1, lsl #2
    3538:	fe080452 	mcr2	4, 0, r0, cr8, cr2, {2}
    353c:	011a2443 	tsteq	sl, r3, asr #8
    3540:	fe080451 	mcr2	4, 0, r0, cr8, cr1, {2}
    3544:	19002443 	stmdbne	r0, {r0, r1, r6, sl, sp}
    3548:	000098bc 			; <UNDEFINED> instruction: 0x000098bc
    354c:	00000ffc 	strdeq	r0, [r0], -ip
    3550:	00000a9f 	muleq	r0, pc, sl	; <UNPREDICTABLE>
    3554:	0153011a 	cmpeq	r3, sl, lsl r1
    3558:	52011a31 	andpl	r1, r1, #200704	; 0x31000
    355c:	24494003 	strbcs	r4, [r9], #-3
    3560:	0351011a 	cmpeq	r1, #-2147483642	; 0x80000006
    3564:	00244940 	eoreq	r4, r4, r0, asr #18
    3568:	0098d019 	addseq	sp, r8, r9, lsl r0
    356c:	000ffc00 	andeq	pc, pc, r0, lsl #24
    3570:	000ac400 	andeq	ip, sl, r0, lsl #8
    3574:	53011a00 	movwpl	r1, #6656	; 0x1a00
    3578:	011a3101 	tsteq	sl, r1, lsl #2
    357c:	000c0552 	andeq	r0, ip, r2, asr r5
    3580:	1a201000 	bne	807588 <__bss_end__+0x7fb398>
    3584:	0c055101 	stfeqs	f5, [r5], {1}
    3588:	20100000 	andscs	r0, r0, r0
    358c:	98e41900 	stmials	r4!, {r8, fp, ip}^
    3590:	0ffc0000 	svceq	0x00fc0000
    3594:	0ae90000 	beq	ffa4359c <__bss_end__+0xffa373ac>
    3598:	011a0000 	tsteq	sl, r0
    359c:	1a310153 	bne	c43af0 <__bss_end__+0xc37900>
    35a0:	0c055201 	sfmeq	f5, 4, [r5], {1}
    35a4:	20200000 	eorcs	r0, r0, r0
    35a8:	0551011a 	ldrbeq	r0, [r1, #-282]	; 0x11a
    35ac:	2000000c 	andcs	r0, r0, ip
    35b0:	f8190020 			; <UNDEFINED> instruction: 0xf8190020
    35b4:	fc000098 	stc2	0, cr0, [r0], {152}	; 0x98
    35b8:	0c00000f 	stceq	0, cr0, [r0], {15}
    35bc:	1a00000b 	bne	35f0 <__code_start__-0x4a10>
    35c0:	31015301 	tstcc	r1, r1, lsl #6
    35c4:	0452011a 	ldrbeq	r0, [r2], #-282	; 0x11a
    35c8:	24448f08 	strbcs	r8, [r4], #-3848	; 0xf08
    35cc:	0451011a 	ldrbeq	r0, [r1], #-282	; 0x11a
    35d0:	24448f08 	strbcs	r8, [r4], #-3848	; 0xf08
    35d4:	98fc1b00 	ldmls	ip!, {r8, r9, fp, ip}^
    35d8:	10200000 	eorne	r0, r0, r0
    35dc:	04190000 	ldreq	r0, [r9], #-0
    35e0:	27000099 			; <UNDEFINED> instruction: 0x27000099
    35e4:	28000010 	stmdacs	r0, {r4}
    35e8:	1a00000b 	bne	361c <__code_start__-0x49e4>
    35ec:	34015001 	strcc	r5, [r1], #-1
    35f0:	99141c00 	ldmdbls	r4, {sl, fp, ip}
    35f4:	10380000 	eorsne	r0, r8, r0
    35f8:	011a0000 	tsteq	sl, r0
    35fc:	1a310151 	bne	c43b48 <__bss_end__+0xc37958>
    3600:	0a035001 	beq	d760c <__bss_end__+0xcb41c>
    3604:	0000140e 	andeq	r1, r0, lr, lsl #8
    3608:	00007f1d 	andeq	r7, r0, sp, lsl pc
    360c:	000b4f00 	andeq	r4, fp, r0, lsl #30
    3610:	00761e00 	rsbseq	r1, r6, r0, lsl #28
    3614:	000d0000 	andeq	r0, sp, r0
    3618:	000b3f07 	andeq	r3, fp, r7, lsl #30
    361c:	00701300 	rsbseq	r1, r0, r0, lsl #6
    3620:	ae010000 	cdpge	0, 0, cr0, cr1, cr0, {0}
    3624:	00009940 	andeq	r9, r0, r0, asr #18
    3628:	00000084 	andeq	r0, r0, r4, lsl #1
    362c:	0c309c01 	ldceq	12, cr9, [r0], #-4
    3630:	63180000 	tstvs	r8, #0
    3634:	40000000 	andmi	r0, r0, r0
    3638:	0500000c 	streq	r0, [r0, #-12]
    363c:	00ba0003 	adcseq	r0, sl, r3
    3640:	995c1900 	ldmdbls	ip, {r8, fp, ip}^
    3644:	0fa10000 	svceq	0x00a10000
    3648:	0ba70000 	bleq	fe9c3650 <__bss_end__+0xfe9b7460>
    364c:	011a0000 	tsteq	sl, r0
    3650:	af080253 	svcge	0x00080253
    3654:	0552011a 	ldrbeq	r0, [r2, #-282]	; 0x11a
    3658:	00ba0003 	adcseq	r0, sl, r3
    365c:	51011a00 	tstpl	r1, r0, lsl #20
    3660:	b7980305 	ldrlt	r0, [r8, r5, lsl #6]
    3664:	011a0000 	tsteq	sl, r0
    3668:	34030550 	strcc	r0, [r3], #-1360	; 0x550
    366c:	000000b9 	strheq	r0, [r0], -r9
    3670:	0099601b 	addseq	r6, r9, fp, lsl r0
    3674:	00105300 	andseq	r5, r0, r0, lsl #6
    3678:	99641b00 	stmdbls	r4!, {r8, r9, fp, ip}^
    367c:	0fd70000 	svceq	0x00d70000
    3680:	701b0000 	andsvc	r0, fp, r0
    3684:	9a000099 	bls	38f0 <__code_start__-0x4710>
    3688:	1900000f 	stmdbne	r0, {r0, r1, r2, r3}
    368c:	0000998c 	andeq	r9, r0, ip, lsl #19
    3690:	00000fa1 	andeq	r0, r0, r1, lsr #31
    3694:	00000bfb 	strdeq	r0, [r0], -fp
    3698:	0253011a 	subseq	r0, r3, #-2147483642	; 0x80000006
    369c:	011ab208 	tsteq	sl, r8, lsl #4
    36a0:	00030552 	andeq	r0, r3, r2, asr r5
    36a4:	1a0000ba 	bne	3994 <__code_start__-0x466c>
    36a8:	03055101 	movweq	r5, #20737	; 0x5101
    36ac:	0000b798 	muleq	r0, r8, r7
    36b0:	0550011a 	ldrbeq	r0, [r0, #-282]	; 0x11a
    36b4:	00ade803 	adceq	lr, sp, r3, lsl #16
    36b8:	7d021a00 	vstrvc	s2, [r2, #-0]
    36bc:	10030500 	andne	r0, r3, r0, lsl #10
    36c0:	000000ae 	andeq	r0, r0, lr, lsr #1
    36c4:	0099901b 	addseq	r9, r9, fp, lsl r0
    36c8:	000fb700 	andeq	fp, pc, r0, lsl #14
    36cc:	99a41c00 	stmibls	r4!, {sl, fp, ip}
    36d0:	0fa10000 	svceq	0x00a10000
    36d4:	011a0000 	tsteq	sl, r0
    36d8:	b3080253 	movwlt	r0, #33363	; 0x8253
    36dc:	0552011a 	ldrbeq	r0, [r2, #-282]	; 0x11a
    36e0:	00ba0003 	adcseq	r0, sl, r3
    36e4:	51011a00 	tstpl	r1, r0, lsl #20
    36e8:	b7980305 	ldrlt	r0, [r8, r5, lsl #6]
    36ec:	011a0000 	tsteq	sl, r0
    36f0:	5c030550 	cfstr32pl	mvfx0, [r3], {80}	; 0x50
    36f4:	000000b9 	strheq	r0, [r0], -r9
    36f8:	007f1d00 	rsbseq	r1, pc, r0, lsl #26
    36fc:	0c400000 	mareq	acc0, r0, r0
    3700:	761e0000 	ldrvc	r0, [lr], -r0
    3704:	0b000000 	bleq	370c <__code_start__-0x48f4>
    3708:	0c300700 	ldceq	7, cr0, [r0], #-0
    370c:	4e130000 	cdpmi	0, 1, cr0, cr3, cr0, {0}
    3710:	01000000 	mrseq	r0, (UNDEF: 0)
    3714:	0099c4b7 			; <UNDEFINED> instruction: 0x0099c4b7
    3718:	00006c00 	andeq	r6, r0, r0, lsl #24
    371c:	f29c0100 	vaddw.s16	q0, q6, d0
    3720:	1800000c 	stmdane	r0, {r2, r3}
    3724:	00000063 	andeq	r0, r0, r3, rrx
    3728:	00000cf2 	strdeq	r0, [r0], -r2
    372c:	ba0c0305 	blt	304348 <__bss_end__+0x2f8158>
    3730:	d01b0000 	andsle	r0, fp, r0
    3734:	c9000099 	stmdbgt	r0, {r0, r3, r4, r7}
    3738:	1b00000f 	blne	377c <__code_start__-0x4884>
    373c:	000099d4 	ldrdeq	r9, [r0], -r4
    3740:	00000fd7 	ldrdeq	r0, [r0], -r7
    3744:	0099e01b 	addseq	lr, r9, fp, lsl r0
    3748:	000f9a00 	andeq	r9, pc, r0, lsl #20
    374c:	99fc1900 	ldmibls	ip!, {r8, fp, ip}^
    3750:	0fa10000 	svceq	0x00a10000
    3754:	0cbd0000 	ldceq	0, cr0, [sp]
    3758:	011a0000 	tsteq	sl, r0
    375c:	ba080253 	blt	2040b0 <__bss_end__+0x1f7ec0>
    3760:	0552011a 	ldrbeq	r0, [r2, #-282]	; 0x11a
    3764:	00ba0c03 	adcseq	r0, sl, r3, lsl #24
    3768:	51011a00 	tstpl	r1, r0, lsl #20
    376c:	b7980305 	ldrlt	r0, [r8, r5, lsl #6]
    3770:	011a0000 	tsteq	sl, r0
    3774:	e8030550 	stmda	r3, {r4, r6, r8, sl}
    3778:	1a0000ad 	bne	3a34 <__code_start__-0x45cc>
    377c:	05007d02 	streq	r7, [r0, #-3330]	; 0xd02
    3780:	00ae5403 	adceq	r5, lr, r3, lsl #8
    3784:	001b0000 	andseq	r0, fp, r0
    3788:	b700009a 			; <UNDEFINED> instruction: 0xb700009a
    378c:	1c00000f 	stcne	0, cr0, [r0], {15}
    3790:	00009a14 	andeq	r9, r0, r4, lsl sl
    3794:	00000fa1 	andeq	r0, r0, r1, lsr #31
    3798:	0253011a 	subseq	r0, r3, #-2147483642	; 0x80000006
    379c:	011abb08 	tsteq	sl, r8, lsl #22
    37a0:	0c030552 	cfstr32eq	mvfx0, [r3], {82}	; 0x52
    37a4:	1a0000ba 	bne	3a94 <__code_start__-0x456c>
    37a8:	03055101 	movweq	r5, #20737	; 0x5101
    37ac:	0000b798 	muleq	r0, r8, r7
    37b0:	0550011a 	ldrbeq	r0, [r0, #-282]	; 0x11a
    37b4:	00b97403 	adcseq	r7, r9, r3, lsl #8
    37b8:	07000000 	streq	r0, [r0, -r0]
    37bc:	000006cc 	andeq	r0, r0, ip, asr #13
    37c0:	00085e13 	andeq	r5, r8, r3, lsl lr
    37c4:	30be0100 	adcscc	r0, lr, r0, lsl #2
    37c8:	7000009a 	mulvc	r0, sl, r0
    37cc:	01000000 	mrseq	r0, (UNDEF: 0)
    37d0:	000d979c 	muleq	sp, ip, r7
    37d4:	0e0b1600 	cfmadd32eq	mvax0, mvfx1, mvfx11, mvfx0
    37d8:	be010000 	cdplt	0, 0, cr0, cr1, cr0, {0}
    37dc:	0000005d 	andeq	r0, r0, sp, asr r0
    37e0:	00001114 	andeq	r1, r0, r4, lsl r1
    37e4:	00006318 	andeq	r6, r0, r8, lsl r3
    37e8:	000d9700 	andeq	r9, sp, r0, lsl #14
    37ec:	1c030500 	cfstr32ne	mvfx0, [r3], {-0}
    37f0:	1b0000ba 	blne	3ae0 <__code_start__-0x4520>
    37f4:	00009a4c 	andeq	r9, r0, ip, asr #20
    37f8:	00000f9a 	muleq	r0, sl, pc	; <UNPREDICTABLE>
    37fc:	009a6819 	addseq	r6, sl, r9, lsl r8
    3800:	000fa100 	andeq	sl, pc, r0, lsl #2
    3804:	000d6c00 	andeq	r6, sp, r0, lsl #24
    3808:	53011a00 	movwpl	r1, #6656	; 0x1a00
    380c:	1abf0802 	bne	fefc581c <__bss_end__+0xfefb962c>
    3810:	03055201 	movweq	r5, #20993	; 0x5201
    3814:	0000ba1c 	andeq	fp, r0, ip, lsl sl
    3818:	0551011a 	ldrbeq	r0, [r1, #-282]	; 0x11a
    381c:	00b79803 	adcseq	r9, r7, r3, lsl #16
    3820:	50011a00 	andpl	r1, r1, r0, lsl #20
    3824:	ade80305 	stclge	3, cr0, [r8, #20]!
    3828:	021a0000 	andseq	r0, sl, #0
    382c:	0305007d 	movweq	r0, #20605	; 0x507d
    3830:	0000b98c 	andeq	fp, r0, ip, lsl #19
    3834:	9a6c1b00 	bls	1b0a43c <__bss_end__+0x1afe24c>
    3838:	0fb70000 	svceq	0x00b70000
    383c:	841c0000 	ldrhi	r0, [ip], #-0
    3840:	fc00009a 	stc2	0, cr0, [r0], {154}	; 0x9a
    3844:	1a00000f 	bne	3888 <__code_start__-0x4778>
    3848:	31015301 	tstcc	r1, r1, lsl #6
    384c:	0752011a 	smmlaeq	r2, sl, r1, r0
    3850:	235001f3 	cmpcs	r0, #-1073741764	; 0xc000003c
    3854:	1a408080 	bne	1023a5c <__bss_end__+0x101786c>
    3858:	f3035101 	vrhadd.u8	d5, d3, d1
    385c:	00005001 	andeq	r5, r0, r1
    3860:	0006cc07 	andeq	ip, r6, r7, lsl #24
    3864:	07c91300 	strbeq	r1, [r9, r0, lsl #6]
    3868:	c5010000 	strgt	r0, [r1, #-0]
    386c:	00009aa0 	andeq	r9, r0, r0, lsr #21
    3870:	00000070 	andeq	r0, r0, r0, ror r0
    3874:	0e3c9c01 	cdpeq	12, 3, cr9, cr12, cr1, {0}
    3878:	0b160000 	bleq	583880 <__bss_end__+0x577690>
    387c:	0100000e 	tsteq	r0, lr
    3880:	00005dc5 	andeq	r5, r0, r5, asr #27
    3884:	00116400 	andseq	r6, r1, r0, lsl #8
    3888:	00631800 	rsbeq	r1, r3, r0, lsl #16
    388c:	0e3c0000 	cdpeq	0, 3, cr0, cr12, cr0, {0}
    3890:	03050000 	movweq	r0, #20480	; 0x5000
    3894:	0000ba2c 	andeq	fp, r0, ip, lsr #20
    3898:	009abc1b 	addseq	fp, sl, fp, lsl ip
    389c:	000f9a00 	andeq	r9, pc, r0, lsl #20
    38a0:	9ad81900 	bls	ff609ca8 <__bss_end__+0xff5fdab8>
    38a4:	0fa10000 	svceq	0x00a10000
    38a8:	0e110000 	cdpeq	0, 1, cr0, cr1, cr0, {0}
    38ac:	011a0000 	tsteq	sl, r0
    38b0:	c6080253 			; <UNDEFINED> instruction: 0xc6080253
    38b4:	0552011a 	ldrbeq	r0, [r2, #-282]	; 0x11a
    38b8:	00ba2c03 	adcseq	r2, sl, r3, lsl #24
    38bc:	51011a00 	tstpl	r1, r0, lsl #20
    38c0:	b7980305 	ldrlt	r0, [r8, r5, lsl #6]
    38c4:	011a0000 	tsteq	sl, r0
    38c8:	e8030550 	stmda	r3, {r4, r6, r8, sl}
    38cc:	1a0000ad 	bne	3b88 <__code_start__-0x4478>
    38d0:	05007d02 	streq	r7, [r0, #-3330]	; 0xd02
    38d4:	00b98c03 	adcseq	r8, r9, r3, lsl #24
    38d8:	dc1b0000 	ldcle	0, cr0, [fp], {-0}
    38dc:	b700009a 			; <UNDEFINED> instruction: 0xb700009a
    38e0:	1c00000f 	stcne	0, cr0, [r0], {15}
    38e4:	00009af4 	strdeq	r9, [r0], -r4
    38e8:	00000ffc 	strdeq	r0, [r0], -ip
    38ec:	0153011a 	cmpeq	r3, sl, lsl r1
    38f0:	52011a32 	andpl	r1, r1, #204800	; 0x32000
    38f4:	5001f307 	andpl	pc, r1, r7, lsl #6
    38f8:	40808023 	addmi	r8, r0, r3, lsr #32
    38fc:	0351011a 	cmpeq	r1, #-2147483642	; 0x80000006
    3900:	005001f3 	ldrsheq	r0, [r0], #-19	; 0xffffffed
    3904:	04240700 	strteq	r0, [r4], #-1792	; 0x700
    3908:	7d130000 	ldcvc	0, cr0, [r3, #-0]
    390c:	01000007 	tsteq	r0, r7
    3910:	009b10cc 	addseq	r1, fp, ip, asr #1
    3914:	00002400 	andeq	r2, r0, r0, lsl #8
    3918:	899c0100 	ldmibhi	ip, {r8}
    391c:	1600000e 	strne	r0, [r0], -lr
    3920:	00000e0b 	andeq	r0, r0, fp, lsl #28
    3924:	005dcc01 	subseq	ip, sp, r1, lsl #24
    3928:	11b40000 			; <UNDEFINED> instruction: 0x11b40000
    392c:	632c0000 	teqvs	ip, #0
    3930:	99000000 	stmdbls	r0, {}	; <UNPREDICTABLE>
    3934:	1c00000e 	stcne	0, cr0, [r0], {14}
    3938:	00009b2c 	andeq	r9, r0, ip, lsr #22
    393c:	0000105a 	andeq	r1, r0, sl, asr r0
    3940:	0152011a 	cmpeq	r2, sl, lsl r1
    3944:	51011a31 	tstpl	r1, r1, lsr sl
    3948:	5001f307 	andpl	pc, r1, r7, lsl #6
    394c:	24442544 	strbcs	r2, [r4], #-1348	; 0x544
    3950:	7f1d0000 	svcvc	0x001d0000
    3954:	99000000 	stmdbls	r0, {}	; <UNPREDICTABLE>
    3958:	1e00000e 	cdpne	0, 0, cr0, cr0, cr14, {0}
    395c:	00000076 	andeq	r0, r0, r6, ror r0
    3960:	89070012 	stmdbhi	r7, {r1, r4}
    3964:	2d00000e 	stccs	0, cr0, [r0, #-56]	; 0xffffffc8
    3968:	00000727 	andeq	r0, r0, r7, lsr #14
    396c:	002cd301 	eoreq	sp, ip, r1, lsl #6
    3970:	9b340000 	blls	d03978 <__bss_end__+0xcf7788>
    3974:	00180000 	andseq	r0, r8, r0
    3978:	9c010000 	stcls	0, cr0, [r1], {-0}
    397c:	00000ec7 	andeq	r0, r0, r7, asr #29
    3980:	009b401c 	addseq	r4, fp, ip, lsl r0
    3984:	00049200 	andeq	r9, r4, r0, lsl #4
    3988:	50011a00 	andpl	r1, r1, r0, lsl #20
    398c:	00003201 	andeq	r3, r0, r1, lsl #4
    3990:	00074813 	andeq	r4, r7, r3, lsl r8
    3994:	4cd90100 	ldfmie	f0, [r9], {0}
    3998:	1000009b 	mulne	r0, fp, r0
    399c:	01000000 	mrseq	r0, (UNDEF: 0)
    39a0:	000efa9c 	muleq	lr, ip, sl
    39a4:	00632c00 	rsbeq	r2, r3, r0, lsl #24
    39a8:	0f0a0000 	svceq	0x000a0000
    39ac:	5c1c0000 	ldcpl	0, cr0, [ip], {-0}
    39b0:	b200009b 	andlt	r0, r0, #155	; 0x9b
    39b4:	1a000005 	bne	39d0 <__code_start__-0x4630>
    39b8:	31015101 	tstcc	r1, r1, lsl #2
    39bc:	0150011a 	cmpeq	r0, sl, lsl r1
    39c0:	1d000032 	stcne	0, cr0, [r0, #-200]	; 0xffffff38
    39c4:	0000007f 	andeq	r0, r0, pc, ror r0
    39c8:	00000f0a 	andeq	r0, r0, sl, lsl #30
    39cc:	0000761e 	andeq	r7, r0, lr, lsl r6
    39d0:	07001500 	streq	r1, [r0, -r0, lsl #10]
    39d4:	00000efa 	strdeq	r0, [r0], -sl
    39d8:	0006f313 	andeq	pc, r6, r3, lsl r3	; <UNPREDICTABLE>
    39dc:	5cdd0100 	ldfple	f0, [sp], {0}
    39e0:	1000009b 	mulne	r0, fp, r0
    39e4:	01000000 	mrseq	r0, (UNDEF: 0)
    39e8:	000f429c 	muleq	pc, ip, r2	; <UNPREDICTABLE>
    39ec:	00632c00 	rsbeq	r2, r3, r0, lsl #24
    39f0:	0f520000 	svceq	0x00520000
    39f4:	6c1c0000 	ldcvs	0, cr0, [ip], {-0}
    39f8:	b200009b 	andlt	r0, r0, #155	; 0x9b
    39fc:	1a000005 	bne	3a18 <__code_start__-0x45e8>
    3a00:	30015101 	andcc	r5, r1, r1, lsl #2
    3a04:	0150011a 	cmpeq	r0, sl, lsl r1
    3a08:	1d000032 	stcne	0, cr0, [r0, #-200]	; 0xffffff38
    3a0c:	0000007f 	andeq	r0, r0, pc, ror r0
    3a10:	00000f52 	andeq	r0, r0, r2, asr pc
    3a14:	0000761e 	andeq	r7, r0, lr, lsl r6
    3a18:	07001400 	streq	r1, [r0, -r0, lsl #8]
    3a1c:	00000f42 	andeq	r0, r0, r2, asr #30
    3a20:	00071c2e 	andeq	r1, r7, lr, lsr #24
    3a24:	c01b0100 	andsgt	r0, fp, r0, lsl #2
    3a28:	05000001 	streq	r0, [r0, #-1]
    3a2c:	00bdd803 	adcseq	sp, sp, r3, lsl #16
    3a30:	070f2e00 	streq	r2, [pc, -r0, lsl #28]
    3a34:	4d010000 	stcmi	0, cr0, [r1, #-0]
    3a38:	0000002c 	andeq	r0, r0, ip, lsr #32
    3a3c:	bde40305 	stcllt	3, cr0, [r4, #20]!
    3a40:	70170000 	andsvc	r0, r7, r0
    3a44:	80010074 	andhi	r0, r1, r4, ror r0
    3a48:	00000f89 	andeq	r0, r0, r9, lsl #31
    3a4c:	bde80305 	stcllt	3, cr0, [r8, #20]!
    3a50:	04060000 	streq	r0, [r6], #-0
    3a54:	00000167 	andeq	r0, r0, r7, ror #2
    3a58:	0000402f 	andeq	r4, r0, pc, lsr #32
    3a5c:	25c20300 	strbcs	r0, [r2, #768]	; 0x300
    3a60:	30000000 	andcc	r0, r0, r0
    3a64:	000001c2 	andeq	r0, r0, r2, asr #3
    3a68:	4a311e07 	bmi	c4b28c <__bss_end__+0xc3f09c>
    3a6c:	07000009 	streq	r0, [r0, -r9]
    3a70:	00002529 	andeq	r2, r0, r9, lsr #10
    3a74:	000fb700 	andeq	fp, pc, r0, lsl #14
    3a78:	00863200 	addeq	r3, r6, r0, lsl #4
    3a7c:	00330000 	eorseq	r0, r3, r0
    3a80:	00002030 	andeq	r2, r0, r0, lsr r0
    3a84:	34650700 	strbtcc	r0, [r5], #-1792	; 0x700
    3a88:	000004df 	ldrdeq	r0, [r0], -pc	; <UNPREDICTABLE>
    3a8c:	005d6e08 	subseq	r6, sp, r8, lsl #28
    3a90:	af300000 	svcge	0x00300000
    3a94:	08000003 	stmdaeq	r0, {r0, r1}
    3a98:	0435303b 	ldrteq	r3, [r5], #-59	; 0x3b
    3a9c:	0d080000 	stceq	0, cr0, [r8, #-0]
    3aa0:	0000db34 	andeq	sp, r0, r4, lsr fp
    3aa4:	256c0800 	strbcs	r0, [ip, #-2048]!	; 0x800
    3aa8:	31000000 	mrscc	r0, (UNDEF: 0)
    3aac:	0000043e 	andeq	r0, r0, lr, lsr r4
    3ab0:	0f892108 	svceq	0x00892108
    3ab4:	0ffc0000 	svceq	0x00fc0000
    3ab8:	7d320000 	ldcvc	0, cr0, [r2, #-0]
    3abc:	32000000 	andcc	r0, r0, #0
    3ac0:	0000002c 	andeq	r0, r0, ip, lsr #32
    3ac4:	039f3100 	orrseq	r3, pc, #0, 2
    3ac8:	25080000 	strcs	r0, [r8, #-0]
    3acc:	00000f89 	andeq	r0, r0, r9, lsl #31
    3ad0:	00001020 	andeq	r1, r0, r0, lsr #32
    3ad4:	000f8932 	andeq	r8, pc, r2, lsr r9	; <UNPREDICTABLE>
    3ad8:	005d3200 	subseq	r3, sp, r0, lsl #4
    3adc:	5d320000 	ldcpl	0, cr0, [r2, #-0]
    3ae0:	32000000 	andcc	r0, r0, #0
    3ae4:	0000005d 	andeq	r0, r0, sp, asr r0
    3ae8:	05093000 	streq	r3, [r9, #-0]
    3aec:	0f080000 	svceq	0x00080000
    3af0:	0002b935 	andeq	fp, r2, r5, lsr r9
    3af4:	38480800 	stmdacc	r8, {fp}^
    3af8:	32000010 	andcc	r0, r0, #16
    3afc:	0000002c 	andeq	r0, r0, ip, lsr #32
    3b00:	02703500 	rsbseq	r3, r0, #0, 10
    3b04:	45080000 	strmi	r0, [r8, #-0]
    3b08:	00001053 	andeq	r1, r0, r3, asr r0
    3b0c:	00002c32 	andeq	r2, r0, r2, lsr ip
    3b10:	002c3200 	eoreq	r3, ip, r0, lsl #4
    3b14:	89320000 	ldmdbhi	r2!, {}	; <UNPREDICTABLE>
    3b18:	0000000f 	andeq	r0, r0, pc
    3b1c:	0004a930 	andeq	sl, r4, r0, lsr r9
    3b20:	363a0800 	ldrtcc	r0, [sl], -r0, lsl #16
    3b24:	0000059b 	muleq	r0, fp, r5
    3b28:	89323308 	ldmdbhi	r2!, {r3, r8, r9, ip, sp}
    3b2c:	3200000f 	andcc	r0, r0, #15
    3b30:	0000002c 	andeq	r0, r0, ip, lsr #32
    3b34:	00002c32 	andeq	r2, r0, r2, lsr ip
    3b38:	12000000 	andne	r0, r0, #0
    3b3c:	04000001 	streq	r0, [r0], #-1
    3b40:	00088a00 	andeq	r8, r8, r0, lsl #20
    3b44:	77010400 	strvc	r0, [r1, -r0, lsl #8]
    3b48:	01000008 	tsteq	r0, r8
    3b4c:	0000086b 	andeq	r0, r0, fp, ror #16
    3b50:	000008d6 	ldrdeq	r0, [r0], -r6
    3b54:	00009f00 	andeq	r9, r0, r0, lsl #30
    3b58:	000000f0 	strdeq	r0, [r0], -r0	; <UNPREDICTABLE>
    3b5c:	00000889 	andeq	r0, r0, r9, lsl #17
    3b60:	69050402 	stmdbvs	r5, {r1, sl}
    3b64:	0300746e 	movweq	r7, #1134	; 0x46e
    3b68:	01830704 	orreq	r0, r3, r4, lsl #14
    3b6c:	01030000 	mrseq	r0, (UNDEF: 3)
    3b70:	00001406 	andeq	r1, r0, r6, lsl #8
    3b74:	05020300 	streq	r0, [r2, #-768]	; 0x300
    3b78:	000001b8 			; <UNDEFINED> instruction: 0x000001b8
    3b7c:	9e050403 	cdpls	4, 0, cr0, cr5, cr3, {0}
    3b80:	03000001 	movweq	r0, #1
    3b84:	01990508 	orrseq	r0, r9, r8, lsl #10
    3b88:	ce040000 	cdpgt	0, 0, cr0, cr4, cr0, {0}
    3b8c:	02000008 	andeq	r0, r0, #8
    3b90:	00005a2e 	andeq	r5, r0, lr, lsr #20
    3b94:	08010300 	stmdaeq	r1, {r8, r9}
    3b98:	00000012 	andeq	r0, r0, r2, lsl r0
    3b9c:	2d070203 	sfmcs	f0, 4, [r7, #-12]
    3ba0:	04000000 	streq	r0, [r0], #-0
    3ba4:	00000466 	andeq	r0, r0, r6, ror #8
    3ba8:	00733402 	rsbseq	r3, r3, r2, lsl #8
    3bac:	04030000 	streq	r0, [r3], #-0
    3bb0:	00017e07 	andeq	r7, r1, r7, lsl #28
    3bb4:	07080300 	streq	r0, [r8, -r0, lsl #6]
    3bb8:	00000179 	andeq	r0, r0, r9, ror r1
    3bbc:	90070403 	andls	r0, r7, r3, lsl #8
    3bc0:	03000001 	movweq	r0, #1
    3bc4:	001b0801 	andseq	r0, fp, r1, lsl #16
    3bc8:	04050000 	streq	r0, [r5], #-0
    3bcc:	00000095 	muleq	r0, r5, r0
    3bd0:	00008806 	andeq	r8, r0, r6, lsl #16
    3bd4:	05db0700 	ldrbeq	r0, [fp, #1792]	; 0x700
    3bd8:	0f010000 	svceq	0x00010000
    3bdc:	00000068 	andeq	r0, r0, r8, rrx
    3be0:	00009f00 	andeq	r9, r0, r0, lsl #30
    3be4:	000000f0 	strdeq	r0, [r0], -r0	; <UNPREDICTABLE>
    3be8:	010e9c01 	tsteq	lr, r1, lsl #24
    3bec:	1d080000 	stcne	0, cr0, [r8, #-0]
    3bf0:	01000012 	tsteq	r0, r2, lsl r0
    3bf4:	00010e0f 	andeq	r0, r1, pc, lsl #28
    3bf8:	0011f300 	andseq	pc, r1, r0, lsl #6
    3bfc:	656c0900 	strbvs	r0, [ip, #-2304]!	; 0x900
    3c00:	0f01006e 	svceq	0x0001006e
    3c04:	00000025 	andeq	r0, r0, r5, lsr #32
    3c08:	0000122d 	andeq	r1, r0, sp, lsr #4
    3c0c:	00121e0a 	andseq	r1, r2, sl, lsl #28
    3c10:	8f100100 	svchi	0x00100100
    3c14:	6c000000 	stcvs	0, cr0, [r0], {-0}
    3c18:	0a000012 	beq	3c68 <__code_start__-0x4398>
    3c1c:	000005e0 	andeq	r0, r0, r0, ror #11
    3c20:	00681101 	rsbeq	r1, r8, r1, lsl #2
    3c24:	12ab0000 	adcne	r0, fp, #0
    3c28:	740b0000 	strvc	r0, [fp], #-0
    3c2c:	0100706d 	tsteq	r0, sp, rrx
    3c30:	00006811 	andeq	r6, r0, r1, lsl r8
    3c34:	0012f500 	andseq	pc, r2, r0, lsl #10
    3c38:	65720b00 	ldrbvs	r0, [r2, #-2816]!	; 0xb00
    3c3c:	1201006d 	andne	r0, r1, #109	; 0x6d
    3c40:	00000025 	andeq	r0, r0, r5, lsr #32
    3c44:	00001340 	andeq	r1, r0, r0, asr #6
    3c48:	14040500 	strne	r0, [r4], #-1280	; 0x500
    3c4c:	0c000001 	stceq	0, cr0, [r0], {1}
    3c50:	0000db00 	andeq	sp, r0, r0, lsl #22
    3c54:	2e000400 	cfcpyscs	mvf0, mvf0
    3c58:	04000009 	streq	r0, [r0], #-9
    3c5c:	00087701 	andeq	r7, r8, r1, lsl #14
    3c60:	091c0100 	ldmdbeq	ip, {r8}
    3c64:	08d60000 	ldmeq	r6, {}^	; <UNPREDICTABLE>
    3c68:	9ff00000 	svcls	0x00f00000	; IMB
    3c6c:	00200000 	eoreq	r0, r0, r0
    3c70:	096b0000 	stmdbeq	fp!, {}^	; <UNPREDICTABLE>
    3c74:	01020000 	mrseq	r0, (UNDEF: 2)
    3c78:	00001406 	andeq	r1, r0, r6, lsl #8
    3c7c:	08010200 	stmdaeq	r1, {r9}
    3c80:	00000012 	andeq	r0, r0, r2, lsl r0
    3c84:	b8050202 	stmdalt	r5, {r1, r9}
    3c88:	02000001 	andeq	r0, r0, #1
    3c8c:	002d0702 	eoreq	r0, sp, r2, lsl #14
    3c90:	04030000 	streq	r0, [r3], #-0
    3c94:	746e6905 	strbtvc	r6, [lr], #-2309	; 0x905
    3c98:	07040200 	streq	r0, [r4, -r0, lsl #4]
    3c9c:	00000183 	andeq	r0, r0, r3, lsl #3
    3ca0:	99050802 	stmdbls	r5, {r1, fp}
    3ca4:	02000001 	andeq	r0, r0, #1
    3ca8:	01790708 	cmneq	r9, r8, lsl #14
    3cac:	04020000 	streq	r0, [r2], #-0
    3cb0:	00019e05 	andeq	r9, r1, r5, lsl #28
    3cb4:	07040200 	streq	r0, [r4, -r0, lsl #4]
    3cb8:	00000190 	muleq	r0, r0, r1
    3cbc:	04020404 	streq	r0, [r2], #-1028	; 0x404
    3cc0:	00017e07 	andeq	r7, r1, r7, lsl #28
    3cc4:	7a040500 	bvc	1050cc <__bss_end__+0xf8edc>
    3cc8:	02000000 	andeq	r0, r0, #0
    3ccc:	001b0801 	andseq	r0, fp, r1, lsl #16
    3cd0:	0e060000 	cdpeq	0, 0, cr0, cr6, cr0, {0}
    3cd4:	02000002 	andeq	r0, r0, #2
    3cd8:	000048d4 	ldrdeq	r4, [r0], -r4	; <UNPREDICTABLE>
    3cdc:	04ce0700 	strbeq	r0, [lr], #1792	; 0x700
    3ce0:	1b030000 	blne	c3ce8 <__bss_end__+0xb7af8>
    3ce4:	0000006b 	andeq	r0, r0, fp, rrx
    3ce8:	00009ff0 	strdeq	r9, [r0], -r0
    3cec:	00000020 	andeq	r0, r0, r0, lsr #32
    3cf0:	5f089c01 	svcpl	0x00089c01
    3cf4:	03010070 	movweq	r0, #4208	; 0x1070
    3cf8:	0000006b 	andeq	r0, r0, fp, rrx
    3cfc:	63085001 	movwvs	r5, #32769	; 0x8001
    3d00:	41030100 	mrsmi	r0, (UNDEF: 19)
    3d04:	01000000 	mrseq	r0, (UNDEF: 0)
    3d08:	006e0951 	rsbeq	r0, lr, r1, asr r9
    3d0c:	00810301 	addeq	r0, r1, r1, lsl #6
    3d10:	13530000 	cmpne	r3, #0
    3d14:	700a0000 	andvc	r0, sl, r0
    3d18:	74040100 	strvc	r0, [r4], #-256	; 0x100
    3d1c:	74000000 	strvc	r0, [r0], #-0
    3d20:	0b000013 	bleq	3d74 <__code_start__-0x428c>
    3d24:	04010065 	streq	r0, [r1], #-101	; 0x65
    3d28:	00000074 	andeq	r0, r0, r4, ror r0
    3d2c:	00005201 	andeq	r5, r0, r1, lsl #4
    3d30:	00000191 	muleq	r0, r1, r1
    3d34:	09cb0004 	stmibeq	fp, {r2}^
    3d38:	01040000 	mrseq	r0, (UNDEF: 4)
    3d3c:	00000877 	andeq	r0, r0, r7, ror r8
    3d40:	00093901 	andeq	r3, r9, r1, lsl #18
    3d44:	0008d600 	andeq	sp, r8, r0, lsl #12
    3d48:	00a01000 	adceq	r1, r0, r0
    3d4c:	00005800 	andeq	r5, r0, r0, lsl #16
    3d50:	000a5b00 	andeq	r5, sl, r0, lsl #22
    3d54:	092a0200 	stmdbeq	sl!, {r9}
    3d58:	28020000 	stmdacs	r2, {}	; <UNPREDICTABLE>
    3d5c:	00000030 	andeq	r0, r0, r0, lsr r0
    3d60:	00095103 	andeq	r5, r9, r3, lsl #2
    3d64:	00030400 	andeq	r0, r3, r0, lsl #8
    3d68:	00000047 	andeq	r0, r0, r7, asr #32
    3d6c:	00095b04 	andeq	r5, r9, r4, lsl #22
    3d70:	00004700 	andeq	r4, r0, r0, lsl #14
    3d74:	05000000 	streq	r0, [r0, #-0]
    3d78:	09530204 	ldmdbeq	r3, {r2, r9}^
    3d7c:	62020000 	andvs	r0, r2, #0
    3d80:	00000025 	andeq	r0, r0, r5, lsr #32
    3d84:	69050406 	stmdbvs	r5, {r1, r2, sl}
    3d88:	0700746e 	streq	r7, [r0, -lr, ror #8]
    3d8c:	01830704 	orreq	r0, r3, r4, lsl #14
    3d90:	01070000 	mrseq	r0, (UNDEF: 7)
    3d94:	00001406 	andeq	r1, r0, r6, lsl #8
    3d98:	05020700 	streq	r0, [r2, #-1792]	; 0x700
    3d9c:	000001b8 			; <UNDEFINED> instruction: 0x000001b8
    3da0:	9e050407 	cdpls	4, 0, cr0, cr5, cr7, {0}
    3da4:	07000001 	streq	r0, [r0, -r1]
    3da8:	01990508 	orrseq	r0, r9, r8, lsl #10
    3dac:	01070000 	mrseq	r0, (UNDEF: 7)
    3db0:	00001208 	andeq	r1, r0, r8, lsl #4
    3db4:	07020700 	streq	r0, [r2, -r0, lsl #14]
    3db8:	0000002d 	andeq	r0, r0, sp, lsr #32
    3dbc:	7e070407 	cdpvc	4, 0, cr0, cr7, cr7, {0}
    3dc0:	07000001 	streq	r0, [r0, -r1]
    3dc4:	01790708 	cmneq	r9, r8, lsl #14
    3dc8:	04070000 	streq	r0, [r7], #-0
    3dcc:	00019007 	andeq	r9, r1, r7
    3dd0:	a7040800 	strge	r0, [r4, -r0, lsl #16]
    3dd4:	07000000 	streq	r0, [r0, -r0]
    3dd8:	001b0801 	andseq	r0, fp, r1, lsl #16
    3ddc:	04080000 	streq	r0, [r8], #-0
    3de0:	000000b4 	strheq	r0, [r0], -r4
    3de4:	0000a709 	andeq	sl, r0, r9, lsl #14
    3de8:	094a0a00 	stmdbeq	sl, {r9, fp}^
    3dec:	06010000 	streq	r0, [r1], -r0
    3df0:	00000054 	andeq	r0, r0, r4, asr r0
    3df4:	0000a010 	andeq	sl, r0, r0, lsl r0
    3df8:	00000058 	andeq	r0, r0, r8, asr r0
    3dfc:	01439c01 	cmpeq	r3, r1, lsl #24
    3e00:	660b0000 	strvs	r0, [fp], -r0
    3e04:	0100746d 	tsteq	r0, sp, ror #8
    3e08:	0000ae06 	andeq	sl, r0, r6, lsl #28
    3e0c:	70910200 	addsvc	r0, r1, r0, lsl #4
    3e10:	75620d0c 	strbvc	r0, [r2, #-3340]!	; 0xd0c
    3e14:	08010066 	stmdaeq	r1, {r1, r2, r5, r6}
    3e18:	00000143 	andeq	r0, r0, r3, asr #2
    3e1c:	bdec0305 	stcllt	3, cr0, [ip, #20]!
    3e20:	2d0e0000 	stccs	0, cr0, [lr, #-0]
    3e24:	0100000e 	tsteq	r0, lr
    3e28:	00004909 	andeq	r4, r0, r9, lsl #18
    3e2c:	5c910200 	lfmpl	f0, 4, [r1], {0}
    3e30:	007a730f 	rsbseq	r7, sl, pc, lsl #6
    3e34:	00540c01 	subseq	r0, r4, r1, lsl #24
    3e38:	139f0000 	orrsne	r0, pc, #0
    3e3c:	38100000 	ldmdacc	r0, {}	; <UNPREDICTABLE>
    3e40:	740000a0 	strvc	r0, [r0], #-160	; 0xa0
    3e44:	36000001 	strcc	r0, [r0], -r1
    3e48:	11000001 	tstne	r0, r1
    3e4c:	91025301 	tstls	r2, r1, lsl #6
    3e50:	5201114c 	andpl	r1, r1, #76, 2
    3e54:	06489103 	strbeq	r9, [r8], -r3, lsl #2
    3e58:	03510111 	cmpeq	r1, #1073741828	; 0x40000004
    3e5c:	1104000a 	tstne	r4, sl
    3e60:	74025001 	strvc	r5, [r2], #-1
    3e64:	4c120000 	ldcmi	0, cr0, [r2], {-0}
    3e68:	110000a0 	smlatbne	r0, r0, r0, r0
    3e6c:	74025001 	strvc	r5, [r2], #-1
    3e70:	13000000 	movwne	r0, #0
    3e74:	000000a7 	andeq	r0, r0, r7, lsr #1
    3e78:	00000154 	andeq	r0, r0, r4, asr r1
    3e7c:	00009a14 	andeq	r9, r0, r4, lsl sl
    3e80:	0003ff00 	andeq	pc, r3, r0, lsl #30
    3e84:	00005415 	andeq	r5, r0, r5, lsl r4
    3e88:	00016300 	andeq	r6, r1, r0, lsl #6
    3e8c:	00ae1600 	adceq	r1, lr, r0, lsl #12
    3e90:	17000000 	strne	r0, [r0, -r0]
    3e94:	000009b8 			; <UNDEFINED> instruction: 0x000009b8
    3e98:	016e2204 	cmneq	lr, r4, lsl #4
    3e9c:	04080000 	streq	r0, [r8], #-0
    3ea0:	00000154 	andeq	r0, r0, r4, asr r1
    3ea4:	00094718 	andeq	r4, r9, r8, lsl r7
    3ea8:	54020500 	strpl	r0, [r2], #-1280	; 0x500
    3eac:	16000000 	strne	r0, [r0], -r0
    3eb0:	000000a1 	andeq	r0, r0, r1, lsr #1
    3eb4:	00005416 	andeq	r5, r0, r6, lsl r4
    3eb8:	00ae1600 	adceq	r1, lr, r0, lsl #12
    3ebc:	49160000 	ldmdbmi	r6, {}	; <UNPREDICTABLE>
    3ec0:	00000000 	andeq	r0, r0, r0
    3ec4:	00011300 	andeq	r1, r1, r0, lsl #6
    3ec8:	fc000400 	stc2	4, cr0, [r0], {-0}
    3ecc:	0400000a 	streq	r0, [r0], #-10
    3ed0:	00087701 	andeq	r7, r8, r1, lsl #14
    3ed4:	09870100 	stmibeq	r7, {r8}
    3ed8:	08d60000 	ldmeq	r6, {}^	; <UNPREDICTABLE>
    3edc:	a0680000 	rsbge	r0, r8, r0
    3ee0:	003c0000 	eorseq	r0, ip, r0
    3ee4:	0b6b0000 	bleq	1ac3eec <__bss_end__+0x1ab7cfc>
    3ee8:	04020000 	streq	r0, [r2], #-0
    3eec:	746e6905 	strbtvc	r6, [lr], #-2309	; 0x905
    3ef0:	07040300 	streq	r0, [r4, -r0, lsl #6]
    3ef4:	00000183 	andeq	r0, r0, r3, lsl #3
    3ef8:	14060103 	strne	r0, [r6], #-259	; 0x103
    3efc:	03000000 	movweq	r0, #0
    3f00:	01b80502 			; <UNDEFINED> instruction: 0x01b80502
    3f04:	04030000 	streq	r0, [r3], #-0
    3f08:	00019e05 	andeq	r9, r1, r5, lsl #28
    3f0c:	05080300 	streq	r0, [r8, #-768]	; 0x300
    3f10:	00000199 	muleq	r0, r9, r1
    3f14:	12080103 	andne	r0, r8, #-1073741824	; 0xc0000000
    3f18:	03000000 	movweq	r0, #0
    3f1c:	002d0702 	eoreq	r0, sp, r2, lsl #14
    3f20:	04030000 	streq	r0, [r3], #-0
    3f24:	00017e07 	andeq	r7, r1, r7, lsl #28
    3f28:	07080300 	streq	r0, [r8, -r0, lsl #6]
    3f2c:	00000179 	andeq	r0, r0, r9, ror r1
    3f30:	90070403 	andls	r0, r7, r3, lsl #8
    3f34:	03000001 	movweq	r0, #1
    3f38:	001b0801 	andseq	r0, fp, r1, lsl #16
    3f3c:	6a040000 	bvs	103f44 <__bss_end__+0xf7d54>
    3f40:	01000009 	tsteq	r0, r9
    3f44:	00002503 	andeq	r2, r0, r3, lsl #10
    3f48:	00a06800 	adceq	r6, r0, r0, lsl #16
    3f4c:	00001400 	andeq	r1, r0, r0, lsl #8
    3f50:	b09c0100 	addslt	r0, ip, r0, lsl #2
    3f54:	05000000 	streq	r0, [r0, #-0]
    3f58:	03010063 	movweq	r0, #4195	; 0x1063
    3f5c:	00000025 	andeq	r0, r0, r5, lsr #32
    3f60:	000013c8 	andeq	r1, r0, r8, asr #7
    3f64:	00a07406 	adceq	r7, r0, r6, lsl #8
    3f68:	00010900 	andeq	r0, r1, r0, lsl #18
    3f6c:	50010700 	andpl	r0, r1, r0, lsl #14
    3f70:	00007402 	andeq	r7, r0, r2, lsl #8
    3f74:	01c20800 	biceq	r0, r2, r0, lsl #16
    3f78:	08010000 	stmdaeq	r1, {}	; <UNPREDICTABLE>
    3f7c:	0000a07c 	andeq	sl, r0, ip, ror r0
    3f80:	00000018 	andeq	r0, r0, r8, lsl r0
    3f84:	96099c01 	strls	r9, [r9], -r1, lsl #24
    3f88:	01000009 	tsteq	r0, r9
    3f8c:	00a0940b 	adceq	r9, r0, fp, lsl #8
    3f90:	00001000 	andeq	r1, r0, r0
    3f94:	e39c0100 	orrs	r0, ip, #0, 2
    3f98:	0a000000 	beq	3fa0 <__code_start__-0x4060>
    3f9c:	01007066 	tsteq	r0, r6, rrx
    3fa0:	0000f20b 	andeq	pc, r0, fp, lsl #4
    3fa4:	00500100 	subseq	r0, r0, r0, lsl #2
    3fa8:	0000250b 	andeq	r2, r0, fp, lsl #10
    3fac:	0000f200 	andeq	pc, r0, r0, lsl #4
    3fb0:	00250c00 	eoreq	r0, r5, r0, lsl #24
    3fb4:	0d000000 	stceq	0, cr0, [r0, #-0]
    3fb8:	0000e304 	andeq	lr, r0, r4, lsl #6
    3fbc:	097b0e00 	ldmdbeq	fp!, {r9, sl, fp}^
    3fc0:	06010000 	streq	r0, [r1], -r0
    3fc4:	000000f2 	strdeq	r0, [r0], -r2
    3fc8:	add80305 	ldclge	3, cr0, [r8, #20]
    3fcc:	600f0000 	andvs	r0, pc, r0
    3fd0:	02000009 	andeq	r0, r0, #9
    3fd4:	002c0c3c 	eoreq	r0, ip, ip, lsr ip
    3fd8:	00000000 	andeq	r0, r0, r0
    3fdc:	000000ee 	andeq	r0, r0, lr, ror #1
    3fe0:	0be40004 	bleq	ff903ff8 <__bss_end__+0xff8f7e08>
    3fe4:	01040000 	mrseq	r0, (UNDEF: 4)
    3fe8:	00000877 	andeq	r0, r0, r7, ror r8
    3fec:	0009a301 	andeq	sl, r9, r1, lsl #6
    3ff0:	0008d600 	andeq	sp, r8, r0, lsl #12
    3ff4:	00a0a400 	adceq	sl, r0, r0, lsl #8
    3ff8:	00003400 	andeq	r3, r0, r0, lsl #8
    3ffc:	000c0300 	andeq	r0, ip, r0, lsl #6
    4000:	05040200 	streq	r0, [r4, #-512]	; 0x200
    4004:	00746e69 	rsbseq	r6, r4, r9, ror #28
    4008:	83070403 	movwhi	r0, #29699	; 0x7403
    400c:	03000001 	movweq	r0, #1
    4010:	00140601 	andseq	r0, r4, r1, lsl #12
    4014:	02030000 	andeq	r0, r3, #0
    4018:	0001b805 	andeq	fp, r1, r5, lsl #16
    401c:	05040300 	streq	r0, [r4, #-768]	; 0x300
    4020:	0000019e 	muleq	r0, lr, r1
    4024:	99050803 	stmdbls	r5, {r0, r1, fp}
    4028:	03000001 	movweq	r0, #1
    402c:	00120801 	andseq	r0, r2, r1, lsl #16
    4030:	02030000 	andeq	r0, r3, #0
    4034:	00002d07 	andeq	r2, r0, r7, lsl #26
    4038:	07040300 	streq	r0, [r4, -r0, lsl #6]
    403c:	0000017e 	andeq	r0, r0, lr, ror r1
    4040:	79070803 	stmdbvc	r7, {r0, r1, fp}
    4044:	03000001 	movweq	r0, #1
    4048:	01900704 	orrseq	r0, r0, r4, lsl #14
    404c:	01030000 	mrseq	r0, (UNDEF: 3)
    4050:	00001b08 	andeq	r1, r0, r8, lsl #22
    4054:	7f040400 	svcvc	0x00040400
    4058:	05000000 	streq	r0, [r0, #-0]
    405c:	00000072 	andeq	r0, r0, r2, ror r0
    4060:	0009af06 	andeq	sl, r9, r6, lsl #30
    4064:	25040100 	strcs	r0, [r4, #-256]	; 0x100
    4068:	a4000000 	strge	r0, [r0], #-0
    406c:	340000a0 	strcc	r0, [r0], #-160	; 0xa0
    4070:	01000000 	mrseq	r0, (UNDEF: 0)
    4074:	0000ab9c 	muleq	r0, ip, fp
    4078:	00700700 	rsbseq	r0, r0, r0, lsl #14
    407c:	00790401 	rsbseq	r0, r9, r1, lsl #8
    4080:	13e60000 	mvnne	r0, #0
    4084:	08000000 	stmdaeq	r0, {}	; <UNPREDICTABLE>
    4088:	00000025 	andeq	r0, r0, r5, lsr #32
    408c:	000000ba 	strheq	r0, [r0], -sl
    4090:	00002509 	andeq	r2, r0, r9, lsl #10
    4094:	7b0a0000 	blvc	28409c <__bss_end__+0x277eac>
    4098:	02000009 	andeq	r0, r0, #9
    409c:	0000c51d 	andeq	ip, r0, sp, lsl r5
    40a0:	ab040400 	blge	1050a8 <__bss_end__+0xf8eb8>
    40a4:	08000000 	stmdaeq	r0, {}	; <UNPREDICTABLE>
    40a8:	00000025 	andeq	r0, r0, r5, lsr #32
    40ac:	000000da 	ldrdeq	r0, [r0], -sl
    40b0:	00007909 	andeq	r7, r0, r9, lsl #18
    40b4:	b80b0000 	stmdalt	fp, {}	; <UNPREDICTABLE>
    40b8:	01000009 	tsteq	r0, r9
    40bc:	0000eb0c 	andeq	lr, r0, ip, lsl #22
    40c0:	dc030500 	cfstr32le	mvfx0, [r3], {-0}
    40c4:	040000ad 	streq	r0, [r0], #-173	; 0xad
    40c8:	0000cb04 	andeq	ip, r0, r4, lsl #22
    40cc:	06e50000 	strbteq	r0, [r5], r0
    40d0:	00040000 	andeq	r0, r4, r0
    40d4:	00000c7d 	andeq	r0, r0, sp, ror ip
    40d8:	08770104 	ldmdaeq	r7!, {r2, r8}^
    40dc:	ee010000 	cdp	0, 0, cr0, cr1, cr0, {0}
    40e0:	d6000009 	strle	r0, [r0], -r9
    40e4:	d8000008 	stmdale	r0, {r3}
    40e8:	780000a0 	stmdavc	r0, {r5, r7}
    40ec:	a7000005 	strge	r0, [r0, -r5]
    40f0:	0200000c 	andeq	r0, r0, #12
    40f4:	6e690504 	cdpvs	5, 6, cr0, cr9, cr4, {0}
    40f8:	04030074 	streq	r0, [r3], #-116	; 0x74
    40fc:	00018307 	andeq	r8, r1, r7, lsl #6
    4100:	06010300 	streq	r0, [r1], -r0, lsl #6
    4104:	00000014 	andeq	r0, r0, r4, lsl r0
    4108:	b8050203 	stmdalt	r5, {r0, r1, r9}
    410c:	03000001 	movweq	r0, #1
    4110:	019e0504 	orrseq	r0, lr, r4, lsl #10
    4114:	08030000 	stmdaeq	r3, {}	; <UNPREDICTABLE>
    4118:	00019905 	andeq	r9, r1, r5, lsl #18
    411c:	08010300 	stmdaeq	r1, {r8, r9}
    4120:	00000012 	andeq	r0, r0, r2, lsl r0
    4124:	2d070203 	sfmcs	f0, 4, [r7, #-12]
    4128:	03000000 	movweq	r0, #0
    412c:	017e0704 	cmneq	lr, r4, lsl #14
    4130:	08030000 	stmdaeq	r3, {}	; <UNPREDICTABLE>
    4134:	00017907 	andeq	r7, r1, r7, lsl #18
    4138:	07040300 	streq	r0, [r4, -r0, lsl #6]
    413c:	00000190 	muleq	r0, r0, r1
    4140:	04050404 	streq	r0, [r5], #-1028	; 0x404
    4144:	0000007a 	andeq	r0, r0, sl, ror r0
    4148:	1b080103 	blne	20455c <__bss_end__+0x1f836c>
    414c:	05000000 	streq	r0, [r0, #-0]
    4150:	00008704 	andeq	r8, r0, r4, lsl #14
    4154:	007a0600 	rsbseq	r0, sl, r0, lsl #12
    4158:	2a070000 	bcs	1c4160 <__bss_end__+0x1b7f70>
    415c:	02000009 	andeq	r0, r0, #9
    4160:	00009728 	andeq	r9, r0, r8, lsr #14
    4164:	09510800 	ldmdbeq	r1, {fp}^
    4168:	04040000 	streq	r0, [r4], #-0
    416c:	0000ae00 	andeq	sl, r0, r0, lsl #28
    4170:	095b0900 	ldmdbeq	fp, {r8, fp}^
    4174:	00720000 	rsbseq	r0, r2, r0
    4178:	00000000 	andeq	r0, r0, r0
    417c:	00095307 	andeq	r5, r9, r7, lsl #6
    4180:	8c620200 	sfmhi	f0, 2, [r2], #-0
    4184:	0a000000 	beq	418c <__code_start__-0x3e74>
    4188:	000009d5 	ldrdeq	r0, [r0], -r5
    418c:	00252701 	eoreq	r2, r5, r1, lsl #14
    4190:	a0d80000 	sbcsge	r0, r8, r0
    4194:	00140000 	andseq	r0, r4, r0
    4198:	9c010000 	stcls	0, cr0, [r1], {-0}
    419c:	000000e0 	andeq	r0, r0, r0, ror #1
    41a0:	0100630b 	tsteq	r0, fp, lsl #6
    41a4:	00002527 	andeq	r2, r0, r7, lsr #10
    41a8:	00140400 	andseq	r0, r4, r0, lsl #8
    41ac:	700c0000 	andvc	r0, ip, r0
    41b0:	01006461 	tsteq	r0, r1, ror #8
    41b4:	0000742e 	andeq	r7, r0, lr, lsr #8
    41b8:	00a0ec00 	adceq	lr, r0, r0, lsl #24
    41bc:	00002c00 	andeq	r2, r0, r0, lsl #24
    41c0:	309c0100 	addscc	r0, ip, r0, lsl #2
    41c4:	0b000001 	bleq	41d0 <__code_start__-0x3e30>
    41c8:	2e010070 	mcrcs	0, 0, r0, cr1, cr0, {3}
    41cc:	00000074 	andeq	r0, r0, r4, ror r0
    41d0:	00001432 	andeq	r1, r0, r2, lsr r4
    41d4:	000e0b0d 	andeq	r0, lr, sp, lsl #22
    41d8:	742e0100 	strtvc	r0, [lr], #-256	; 0x100
    41dc:	5d000000 	stcpl	0, cr0, [r0, #-0]
    41e0:	0e000014 	mcreq	0, 0, r0, cr0, cr4, {0}
    41e4:	00000a0e 	andeq	r0, r0, lr, lsl #20
    41e8:	00252e01 	eoreq	r2, r5, r1, lsl #28
    41ec:	52010000 	andpl	r0, r1, #0
    41f0:	6e656c0f 	cdpvs	12, 6, cr6, cr5, cr15, {0}
    41f4:	252f0100 	strcs	r0, [pc, #-256]!	; 40fc <__code_start__-0x3f04>
    41f8:	01000000 	mrseq	r0, (UNDEF: 0)
    41fc:	cd0a0051 	stcgt	0, cr0, [sl, #-324]	; 0xfffffebc
    4200:	01000009 	tsteq	r0, r9
    4204:	00007437 	andeq	r7, r0, r7, lsr r4
    4208:	00a11800 	adceq	r1, r1, r0, lsl #16
    420c:	00004000 	andeq	r4, r0, r0
    4210:	9c9c0100 	ldflss	f0, [ip], {0}
    4214:	0b000001 	bleq	4220 <__code_start__-0x3de0>
    4218:	00747364 	rsbseq	r7, r4, r4, ror #6
    421c:	00743701 	rsbseq	r3, r4, r1, lsl #14
    4220:	147e0000 	ldrbtne	r0, [lr], #-0
    4224:	6e0b0000 	cdpvs	0, 0, cr0, cr11, cr0, {0}
    4228:	25370100 	ldrcs	r0, [r7, #-256]!	; 0x100
    422c:	b6000000 	strlt	r0, [r0], -r0
    4230:	0b000014 	bleq	4288 <__code_start__-0x3d78>
    4234:	37010070 	smlsdxcc	r1, r0, r0, r0
    4238:	00000074 	andeq	r0, r0, r4, ror r0
    423c:	000014d7 	ldrdeq	r1, [r0], -r7
    4240:	0013b10d 	andseq	fp, r3, sp, lsl #2
    4244:	74370100 	ldrtvc	r0, [r7], #-256	; 0x100
    4248:	0d000000 	stceq	0, cr0, [r0, #-0]
    424c:	10000015 	andne	r0, r0, r5, lsl r0
    4250:	006e656c 	rsbeq	r6, lr, ip, ror #10
    4254:	00253901 	eoreq	r3, r5, r1, lsl #18
    4258:	152b0000 	strne	r0, [fp, #-0]!
    425c:	730f0000 	movwvc	r0, #61440	; 0xf000
    4260:	743d0100 	ldrtvc	r0, [sp], #-256	; 0x100
    4264:	01000000 	mrseq	r0, (UNDEF: 0)
    4268:	1c0a0050 	stcne	0, cr0, [sl], {80}	; 0x50
    426c:	0100000a 	tsteq	r0, sl
    4270:	00007447 	andeq	r7, r0, r7, asr #8
    4274:	00a15800 	adceq	r5, r1, r0, lsl #16
    4278:	0001bc00 	andeq	fp, r1, r0, lsl #24
    427c:	df9c0100 	svcle	0x009c0100
    4280:	0d000002 	stceq	0, cr0, [r0, #-8]
    4284:	00000e0b 	andeq	r0, r0, fp, lsl #28
    4288:	002c4701 	eoreq	r4, ip, r1, lsl #14
    428c:	15520000 	ldrbne	r0, [r2, #-0]
    4290:	640b0000 	strvs	r0, [fp], #-0
    4294:	01007473 	tsteq	r0, r3, ror r4
    4298:	00007447 	andeq	r7, r0, r7, asr #8
    429c:	00158000 	andseq	r8, r5, r0
    42a0:	006e0b00 	rsbeq	r0, lr, r0, lsl #22
    42a4:	00254701 	eoreq	r4, r5, r1, lsl #14
    42a8:	15ee0000 	strbne	r0, [lr, #0]!
    42ac:	760b0000 	strvc	r0, [fp], -r0
    42b0:	01006c61 	tsteq	r0, r1, ror #24
    42b4:	00002547 	andeq	r2, r0, r7, asr #10
    42b8:	00161a00 	andseq	r1, r6, r0, lsl #20
    42bc:	0a0e0d00 	beq	3876c4 <__bss_end__+0x37b4d4>
    42c0:	47010000 	strmi	r0, [r1, -r0]
    42c4:	00000025 	andeq	r0, r0, r5, lsr #32
    42c8:	00001699 	muleq	r0, r9, r6
    42cc:	0009e50e 	andeq	lr, r9, lr, lsl #10
    42d0:	25470100 	strbcs	r0, [r7, #-256]	; 0x100
    42d4:	02000000 	andeq	r0, r0, #0
    42d8:	620f0491 	andvs	r0, pc, #-1862270976	; 0x91000000
    42dc:	01006675 	tsteq	r0, r5, ror r6
    42e0:	0002df4c 	andeq	sp, r2, ip, asr #30
    42e4:	a8910300 	ldmge	r1, {r8, r9}
    42e8:	0070107f 	rsbseq	r1, r0, pc, ror r0
    42ec:	00744c01 	rsbseq	r4, r4, r1, lsl #24
    42f0:	16c30000 	strbne	r0, [r3], r0
    42f4:	75100000 	ldrvc	r0, [r0, #-0]
    42f8:	2c4d0100 	stfcse	f0, [sp], {-0}
    42fc:	ad000000 	stcge	0, cr0, [r0, #-0]
    4300:	11000017 	tstne	r0, r7, lsl r0
    4304:	00000063 	andeq	r0, r0, r3, rrx
    4308:	000002ff 	strdeq	r0, [r0], -pc	; <UNPREDICTABLE>
    430c:	ba580305 	blt	1604f28 <__bss_end__+0x15f8d38>
    4310:	c4120000 	ldrgt	r0, [r2], #-0
    4314:	740000a1 	strvc	r0, [r0], #-161	; 0xa1
    4318:	61000000 	mrsvs	r0, (UNDEF: 0)
    431c:	13000002 	movwne	r0, #2
    4320:	000009c7 	andeq	r0, r0, r7, asr #19
    4324:	002c5201 	eoreq	r5, ip, r1, lsl #4
    4328:	18700000 	ldmdane	r0!, {}^	; <UNPREDICTABLE>
    432c:	14000000 	strne	r0, [r0], #-0
    4330:	0000a2b0 			; <UNDEFINED> instruction: 0x0000a2b0
    4334:	000006c4 	andeq	r0, r0, r4, asr #13
    4338:	00a2cc15 	adceq	ip, r2, r5, lsl ip
    433c:	0006cb00 	andeq	ip, r6, r0, lsl #22
    4340:	0002a300 	andeq	sl, r2, r0, lsl #6
    4344:	53011600 	movwpl	r1, #5632	; 0x1600
    4348:	16770802 	ldrbtne	r0, [r7], -r2, lsl #16
    434c:	03055201 	movweq	r5, #20993	; 0x5201
    4350:	0000ba58 	andeq	fp, r0, r8, asr sl
    4354:	05510116 	ldrbeq	r0, [r1, #-278]	; 0x116
    4358:	00ba7c03 	adcseq	r7, sl, r3, lsl #24
    435c:	50011600 	andpl	r1, r1, r0, lsl #12
    4360:	ade80305 	stclge	3, cr0, [r8, #20]!
    4364:	02160000 	andseq	r0, r6, #0
    4368:	0305007d 	movweq	r0, #20605	; 0x507d
    436c:	0000b51c 	andeq	fp, r0, ip, lsl r5
    4370:	a2d01400 	sbcsge	r1, r0, #0, 8
    4374:	06e10000 	strbteq	r0, [r1], r0
    4378:	d8150000 	ldmdale	r5, {}	; <UNPREDICTABLE>
    437c:	e00000a2 	and	r0, r0, r2, lsr #1
    4380:	c1000000 	mrsgt	r0, (UNDEF: 0)
    4384:	16000002 	strne	r0, [r0], -r2
    4388:	91035101 	tstls	r3, r1, lsl #2
    438c:	17007fa0 	strne	r7, [r0, -r0, lsr #31]
    4390:	0000a2ec 	andeq	sl, r0, ip, ror #5
    4394:	00000130 	andeq	r0, r0, r0, lsr r1
    4398:	03530116 	cmpeq	r3, #-2147483643	; 0x80000005
    439c:	167fa091 			; <UNDEFINED> instruction: 0x167fa091
    43a0:	74025101 	strvc	r5, [r2], #-257	; 0x101
    43a4:	50011600 	andpl	r1, r1, r0, lsl #12
    43a8:	00007502 	andeq	r7, r0, r2, lsl #10
    43ac:	007a1800 	rsbseq	r1, sl, r0, lsl #16
    43b0:	02ef0000 	rsceq	r0, pc, #0
    43b4:	6b190000 	blvs	6443bc <__bss_end__+0x6381cc>
    43b8:	3f000000 	svccc	0x00000000
    43bc:	007a1800 	rsbseq	r1, sl, r0, lsl #16
    43c0:	02ff0000 	rscseq	r0, pc, #0
    43c4:	6b190000 	blvs	6443cc <__bss_end__+0x6381dc>
    43c8:	04000000 	streq	r0, [r0], #-0
    43cc:	02ef0600 	rsceq	r0, pc, #0, 12
    43d0:	ff1a0000 			; <UNDEFINED> instruction: 0xff1a0000
    43d4:	01000009 	tsteq	r0, r9
    43d8:	00a3141f 	adceq	r1, r3, pc, lsl r4
    43dc:	00006800 	andeq	r6, r0, r0, lsl #16
    43e0:	929c0100 	addsls	r0, ip, #0, 2
    43e4:	0d000003 	stceq	0, cr0, [r0, #-12]
    43e8:	00000a14 	andeq	r0, r0, r4, lsl sl
    43ec:	03a11f01 			; <UNDEFINED> instruction: 0x03a11f01
    43f0:	189c0000 	ldmne	ip, {}	; <UNPREDICTABLE>
    43f4:	dd0d0000 	stcle	0, cr0, [sp, #-0]
    43f8:	01000009 	tsteq	r0, r9
    43fc:	0003b61f 	andeq	fp, r3, pc, lsl r6
    4400:	0018c800 	andseq	ip, r8, r0, lsl #16
    4404:	00631100 	rsbeq	r1, r3, r0, lsl #2
    4408:	03cc0000 	biceq	r0, ip, #0
    440c:	03050000 	movweq	r0, #20480	; 0x5000
    4410:	0000ba60 	andeq	fp, r0, r0, ror #20
    4414:	00a32814 	adceq	r2, r3, r4, lsl r8
    4418:	0006c400 	andeq	ip, r6, r0, lsl #8
    441c:	a3441500 	movtge	r1, #17664	; 0x4500
    4420:	06cb0000 	strbeq	r0, [fp], r0
    4424:	03880000 	orreq	r0, r8, #0
    4428:	01160000 	tsteq	r6, r0
    442c:	20080253 	andcs	r0, r8, r3, asr r2
    4430:	05520116 	ldrbeq	r0, [r2, #-278]	; 0x116
    4434:	00ba6003 	adcseq	r6, sl, r3
    4438:	51011600 	tstpl	r1, r0, lsl #12
    443c:	ba7c0305 	blt	1f05058 <__bss_end__+0x1ef8e68>
    4440:	01160000 	tsteq	r6, r0
    4444:	e8030550 	stmda	r3, {r4, r6, r8, sl}
    4448:	160000ad 	strne	r0, [r0], -sp, lsr #1
    444c:	05007d02 	streq	r7, [r0, #-3330]	; 0xd02
    4450:	00bab403 	adcseq	fp, sl, r3, lsl #8
    4454:	48140000 	ldmdami	r4, {}	; <UNPREDICTABLE>
    4458:	e10000a3 	smlatb	r0, r3, r0, r0
    445c:	00000006 	andeq	r0, r0, r6
    4460:	0000251b 	andeq	r2, r0, fp, lsl r5
    4464:	0003a100 	andeq	sl, r3, r0, lsl #2
    4468:	00251c00 	eoreq	r1, r5, r0, lsl #24
    446c:	05000000 	streq	r0, [r0, #-0]
    4470:	00039204 	andeq	r9, r3, r4, lsl #4
    4474:	00251b00 	eoreq	r1, r5, r0, lsl #22
    4478:	03b60000 			; <UNDEFINED> instruction: 0x03b60000
    447c:	811c0000 	tsthi	ip, r0
    4480:	00000000 	andeq	r0, r0, r0
    4484:	03a70405 			; <UNDEFINED> instruction: 0x03a70405
    4488:	7a180000 	bvc	604490 <__bss_end__+0x5f82a0>
    448c:	cc000000 	stcgt	0, cr0, [r0], {-0}
    4490:	19000003 	stmdbne	r0, {r0, r1}
    4494:	0000006b 	andeq	r0, r0, fp, rrx
    4498:	bc06000e 	stclt	0, cr0, [r6], {14}
    449c:	1d000003 	stcne	0, cr0, [r0, #-12]
    44a0:	00000947 	andeq	r0, r0, r7, asr #18
    44a4:	00257f01 	eoreq	r7, r5, r1, lsl #30
    44a8:	a37c0000 	cmnge	ip, #0
    44ac:	02d40000 	sbcseq	r0, r4, #0
    44b0:	9c010000 	stcls	0, cr0, [r1], {-0}
    44b4:	00000689 	andeq	r0, r0, r9, lsl #13
    44b8:	6675620b 	ldrbtvs	r6, [r5], -fp, lsl #4
    44bc:	747f0100 	ldrbtvc	r0, [pc], #-256	; 44c4 <__code_start__-0x3b3c>
    44c0:	f4000000 	vst4.8	{d0-d3}, [r0], r0
    44c4:	0b000018 	bleq	452c <__code_start__-0x3ad4>
    44c8:	7f01006e 	svcvc	0x0001006e
    44cc:	00000025 	andeq	r0, r0, r5, lsr #32
    44d0:	00001920 	andeq	r1, r0, r0, lsr #18
    44d4:	746d660b 	strbtvc	r6, [sp], #-1547	; 0x60b
    44d8:	817f0100 	cmnhi	pc, r0, lsl #2
    44dc:	4e000000 	cdpmi	0, 0, cr0, cr0, cr0, {0}
    44e0:	0d000019 	stceq	0, cr0, [r0, #-100]	; 0xffffff9c
    44e4:	00000e2d 	andeq	r0, r0, sp, lsr #28
    44e8:	00ae7f01 	adceq	r7, lr, r1, lsl #30
    44ec:	196c0000 	stmdbne	ip!, {}^	; <UNPREDICTABLE>
    44f0:	70100000 	andsvc	r0, r0, r0
    44f4:	74800100 	strvc	r0, [r0], #256	; 0x100
    44f8:	7f000000 	svcvc	0x00000000
    44fc:	10000019 	andne	r0, r0, r9, lsl r0
    4500:	80010065 	andhi	r0, r1, r5, rrx
    4504:	00000074 	andeq	r0, r0, r4, ror r0
    4508:	000019fd 	strdeq	r1, [r0], -sp
    450c:	0009bd13 	andeq	fp, r9, r3, lsl sp
    4510:	81830100 	orrhi	r0, r3, r0, lsl #2
    4514:	24000000 	strcs	r0, [r0], #-0
    4518:	1100001a 	tstne	r0, sl, lsl r0
    451c:	00000063 	andeq	r0, r0, r3, rrx
    4520:	00000699 	muleq	r0, r9, r6
    4524:	ba700305 	blt	1c05140 <__bss_end__+0x1bf8f50>
    4528:	d81e0000 	ldmdale	lr, {}	; <UNPREDICTABLE>
    452c:	2c0000a3 	stccs	0, cr0, [r0], {163}	; 0xa3
    4530:	10000002 	andne	r0, r0, r2
    4534:	8e010073 	mcrhi	0, 0, r0, cr1, cr3, {3}
    4538:	00000074 	andeq	r0, r0, r4, ror r0
    453c:	00001a44 	andeq	r1, r0, r4, asr #20
    4540:	6d756e0f 	ldclvs	14, cr6, [r5, #-60]!	; 0xffffffc4
    4544:	9e8e0100 	rmflse	f0, f6, f0
    4548:	03000006 	movweq	r0, #6
    454c:	137ed891 	cmnne	lr, #9502720	; 0x910000
    4550:	00000a0e 	andeq	r0, r0, lr, lsl #20
    4554:	002c8f01 	eoreq	r8, ip, r1, lsl #30
    4558:	1a990000 	bne	fe644560 <__bss_end__+0xfe638370>
    455c:	08150000 	ldmdaeq	r5, {}	; <UNPREDICTABLE>
    4560:	b90000a4 	stmdblt	r0, {r2, r5, r7}
    4564:	a4000000 	strge	r0, [r0], #-0
    4568:	16000004 	strne	r0, [r0], -r4
    456c:	75025001 	strvc	r5, [r2, #-1]
    4570:	1c140000 	ldcne	0, cr0, [r4], {-0}
    4574:	c40000a4 	strgt	r0, [r0], #-164	; 0xa4
    4578:	15000006 	strne	r0, [r0, #-6]
    457c:	0000a438 	andeq	sl, r0, r8, lsr r4
    4580:	000006cb 	andeq	r0, r0, fp, asr #13
    4584:	000004e6 	andeq	r0, r0, r6, ror #9
    4588:	02530116 	subseq	r0, r3, #-2147483643	; 0x80000005
    458c:	01169508 	tsteq	r6, r8, lsl #10
    4590:	70030552 	andvc	r0, r3, r2, asr r5
    4594:	160000ba 			; <UNDEFINED> instruction: 0x160000ba
    4598:	03055101 	movweq	r5, #20737	; 0x5101
    459c:	0000ba7c 	andeq	fp, r0, ip, ror sl
    45a0:	05500116 	ldrbeq	r0, [r0, #-278]	; 0x116
    45a4:	00ade803 	adceq	lr, sp, r3, lsl #16
    45a8:	7d021600 	stcvc	6, cr1, [r2, #-0]
    45ac:	bc030500 	cfstr32lt	mvfx0, [r3], {-0}
    45b0:	000000ba 	strheq	r0, [r0], -sl
    45b4:	00a43c14 	adceq	r3, r4, r4, lsl ip
    45b8:	0006e100 	andeq	lr, r6, r0, lsl #2
    45bc:	a4ac1400 	strtge	r1, [ip], #1024	; 0x400
    45c0:	06c40000 	strbeq	r0, [r4], r0
    45c4:	c0150000 	andsgt	r0, r5, r0
    45c8:	cb0000a4 	blgt	4860 <__code_start__-0x37a0>
    45cc:	27000006 	strcs	r0, [r0, -r6]
    45d0:	16000005 	strne	r0, [r0], -r5
    45d4:	08025301 	stmdaeq	r2, {r0, r8, r9, ip, lr}
    45d8:	5201169b 	andpl	r1, r1, #162529280	; 0x9b00000
    45dc:	ba700305 	blt	1c051f8 <__bss_end__+0x1bf9008>
    45e0:	01160000 	tsteq	r6, r0
    45e4:	7c030551 	cfstr32vc	mvfx0, [r3], {81}	; 0x51
    45e8:	160000ba 			; <UNDEFINED> instruction: 0x160000ba
    45ec:	03055001 	movweq	r5, #20481	; 0x5001
    45f0:	0000bac8 	andeq	fp, r0, r8, asr #21
    45f4:	a4c41400 	strbge	r1, [r4], #1024	; 0x400
    45f8:	06e10000 	strbteq	r0, [r1], r0
    45fc:	e8150000 	ldmda	r5, {}	; <UNPREDICTABLE>
    4600:	9c0000a4 	stcls	0, cr0, [r0], {164}	; 0xa4
    4604:	5d000001 	stcpl	0, cr0, [r0, #-4]
    4608:	16000005 	strne	r0, [r0], -r5
    460c:	08025201 	stmdaeq	r2, {r0, r9, ip, lr}
    4610:	51011680 	smlabbpl	r1, r0, r6, r1
    4614:	7ed09103 	atnvcs	f1, f3
    4618:	01500116 	cmpeq	r0, r6, lsl r1
    461c:	7d02163a 	stcvc	6, cr1, [r2, #-232]	; 0xffffff18
    4620:	16310104 	ldrtne	r0, [r1], -r4, lsl #2
    4624:	02007d02 	andeq	r7, r0, #2, 26	; 0x80
    4628:	15000077 	strne	r0, [r0, #-119]	; 0x77
    462c:	0000a510 	andeq	sl, r0, r0, lsl r5
    4630:	0000019c 	muleq	r0, ip, r1
    4634:	0000058a 	andeq	r0, r0, sl, lsl #11
    4638:	02520116 	subseq	r0, r2, #-2147483643	; 0x80000005
    463c:	01168008 	tsteq	r6, r8
    4640:	d0910351 	addsle	r0, r1, r1, asr r3
    4644:	5001167e 	andpl	r1, r1, lr, ror r6
    4648:	02163a01 	andseq	r3, r6, #4096	; 0x1000
    464c:	3001047d 	andcc	r0, r1, sp, ror r4
    4650:	007d0216 	rsbseq	r0, sp, r6, lsl r2
    4654:	00007702 	andeq	r7, r0, r2, lsl #14
    4658:	00a53815 	adceq	r3, r5, r5, lsl r8
    465c:	00019c00 	andeq	r9, r1, r0, lsl #24
    4660:	0005b700 	andeq	fp, r5, r0, lsl #14
    4664:	52011600 	andpl	r1, r1, #0, 12
    4668:	16800802 	strne	r0, [r0], r2, lsl #16
    466c:	91035101 	tstls	r3, r1, lsl #2
    4670:	01167ed0 			; <UNDEFINED> instruction: 0x01167ed0
    4674:	16400150 			; <UNDEFINED> instruction: 0x16400150
    4678:	01047d02 	tsteq	r4, r2, lsl #26
    467c:	7d021630 	stcvc	6, cr1, [r2, #-192]	; 0xffffff40
    4680:	00770200 	rsbseq	r0, r7, r0, lsl #4
    4684:	a5601500 	strbge	r1, [r0, #-1280]!	; 0x500
    4688:	019c0000 	orrseq	r0, ip, r0
    468c:	05e40000 	strbeq	r0, [r4, #0]!
    4690:	01160000 	tsteq	r6, r0
    4694:	80080252 	andhi	r0, r8, r2, asr r2
    4698:	03510116 	cmpeq	r1, #-2147483643	; 0x80000005
    469c:	167ed091 			; <UNDEFINED> instruction: 0x167ed091
    46a0:	32015001 	andcc	r5, r1, #1
    46a4:	047d0216 	ldrbteq	r0, [sp], #-534	; 0x216
    46a8:	02163001 	andseq	r3, r6, #1
    46ac:	7702007d 	smlsdxvc	r2, sp, r0, r0
    46b0:	94150000 	ldrls	r0, [r5], #-0
    46b4:	9c0000a5 	stcls	0, cr0, [r0], {165}	; 0xa5
    46b8:	11000001 	tstne	r0, r1
    46bc:	16000006 	strne	r0, [r0], -r6
    46c0:	08025201 	stmdaeq	r2, {r0, r9, ip, lr}
    46c4:	51011680 	smlabbpl	r1, r0, r6, r1
    46c8:	7ed09103 	atnvcs	f1, f3
    46cc:	01500116 	cmpeq	r0, r6, lsl r1
    46d0:	7d021638 	stcvc	6, cr1, [r2, #-224]	; 0xffffff20
    46d4:	16300104 	ldrtne	r0, [r0], -r4, lsl #2
    46d8:	02007d02 	andeq	r7, r0, #2, 26	; 0x80
    46dc:	15000077 	strne	r0, [r0, #-119]	; 0x77
    46e0:	0000a5b0 			; <UNDEFINED> instruction: 0x0000a5b0
    46e4:	000006cb 	andeq	r0, r0, fp, asr #13
    46e8:	00000634 	andeq	r0, r0, r4, lsr r6
    46ec:	02520116 	subseq	r0, r2, #-2147483643	; 0x80000005
    46f0:	01160079 	tsteq	r6, r9, ror r0
    46f4:	00790251 	rsbseq	r0, r9, r1, asr r2
    46f8:	05500116 	ldrbeq	r0, [r0, #-278]	; 0x116
    46fc:	00baf003 	adcseq	pc, sl, r3
    4700:	c01f0000 	andsgt	r0, pc, r0
    4704:	460000a5 	strmi	r0, [r0], -r5, lsr #1
    4708:	16000006 	strne	r0, [r0], -r6
    470c:	91045001 	tstls	r4, r1
    4710:	00067ecc 	andeq	r7, r6, ip, asr #29
    4714:	00a5c414 	adceq	ip, r5, r4, lsl r4
    4718:	0006c400 	andeq	ip, r6, r0, lsl #8
    471c:	a5d81500 	ldrbge	r1, [r8, #1280]	; 0x500
    4720:	06cb0000 	strbeq	r0, [fp], r0
    4724:	067e0000 	ldrbteq	r0, [lr], -r0
    4728:	01160000 	tsteq	r6, r0
    472c:	bf080253 	svclt	0x00080253
    4730:	05520116 	ldrbeq	r0, [r2, #-278]	; 0x116
    4734:	00ba7003 	adcseq	r7, sl, r3
    4738:	51011600 	tstpl	r1, r0, lsl #12
    473c:	ba7c0305 	blt	1f05358 <__bss_end__+0x1ef9168>
    4740:	01160000 	tsteq	r6, r0
    4744:	20030550 	andcs	r0, r3, r0, asr r5
    4748:	000000bb 	strheq	r0, [r0], -fp
    474c:	00a5dc14 	adceq	sp, r5, r4, lsl ip
    4750:	0006e100 	andeq	lr, r6, r0, lsl #2
    4754:	18000000 	stmdane	r0, {}	; <UNPREDICTABLE>
    4758:	0000007a 	andeq	r0, r0, sl, ror r0
    475c:	00000699 	muleq	r0, r9, r6
    4760:	00006b19 	andeq	r6, r0, r9, lsl fp
    4764:	06000900 	streq	r0, [r0], -r0, lsl #18
    4768:	00000689 	andeq	r0, r0, r9, lsl #13
    476c:	00007a18 	andeq	r7, r0, r8, lsl sl
    4770:	0006ae00 	andeq	sl, r6, r0, lsl #28
    4774:	006b1900 	rsbeq	r1, fp, r0, lsl #18
    4778:	007f0000 	rsbseq	r0, pc, r0
    477c:	00097b20 	andeq	r7, r9, r0, lsr #22
    4780:	a11d0300 	tstge	sp, r0, lsl #6
    4784:	20000003 	andcs	r0, r0, r3
    4788:	000009b8 			; <UNDEFINED> instruction: 0x000009b8
    478c:	03b62203 			; <UNDEFINED> instruction: 0x03b62203
    4790:	c2210000 	eorgt	r0, r1, #0
    4794:	03000001 	movweq	r0, #1
    4798:	094a221e 	stmdbeq	sl, {r1, r2, r3, r4, r9, sp}^
    479c:	29030000 	stmdbcs	r3, {}	; <UNPREDICTABLE>
    47a0:	00000025 	andeq	r0, r0, r5, lsr #32
    47a4:	000006e1 	andeq	r0, r0, r1, ror #13
    47a8:	0000811c 	andeq	r8, r0, ip, lsl r1
    47ac:	21002300 	mrscs	r2, LR_irq
    47b0:	00000020 	andeq	r0, r0, r0, lsr #32
    47b4:	0f006503 	svceq	0x00006503
    47b8:	04000001 	streq	r0, [r0], #-1
    47bc:	000e6600 	andeq	r6, lr, r0, lsl #12
    47c0:	77010400 	strvc	r0, [r1, -r0, lsl #8]
    47c4:	01000008 	tsteq	r0, r8
    47c8:	00000a30 	andeq	r0, r0, r0, lsr sl
    47cc:	000008d6 	ldrdeq	r0, [r0], -r6
    47d0:	0000a650 	andeq	sl, r0, r0, asr r6
    47d4:	0000002c 	andeq	r0, r0, ip, lsr #32
    47d8:	00000e9c 	muleq	r0, ip, lr
    47dc:	69050402 	stmdbvs	r5, {r1, sl}
    47e0:	0300746e 	movweq	r7, #1134	; 0x46e
    47e4:	01830704 	orreq	r0, r3, r4, lsl #14
    47e8:	01030000 	mrseq	r0, (UNDEF: 3)
    47ec:	00001406 	andeq	r1, r0, r6, lsl #8
    47f0:	05020300 	streq	r0, [r2, #-768]	; 0x300
    47f4:	000001b8 			; <UNDEFINED> instruction: 0x000001b8
    47f8:	9e050403 	cdpls	4, 0, cr0, cr5, cr3, {0}
    47fc:	03000001 	movweq	r0, #1
    4800:	01990508 	orrseq	r0, r9, r8, lsl #10
    4804:	01030000 	mrseq	r0, (UNDEF: 3)
    4808:	00001208 	andeq	r1, r0, r8, lsl #4
    480c:	07020300 	streq	r0, [r2, -r0, lsl #6]
    4810:	0000002d 	andeq	r0, r0, sp, lsr #32
    4814:	7e070403 	cdpvc	4, 0, cr0, cr7, cr3, {0}
    4818:	03000001 	movweq	r0, #1
    481c:	01790708 	cmneq	r9, r8, lsl #14
    4820:	04030000 	streq	r0, [r3], #-0
    4824:	00019007 	andeq	r9, r1, r7
    4828:	08010300 	stmdaeq	r1, {r8, r9}
    482c:	0000001b 	andeq	r0, r0, fp, lsl r0
    4830:	007f0404 	rsbseq	r0, pc, r4, lsl #8
    4834:	72050000 	andvc	r0, r5, #0
    4838:	06000000 	streq	r0, [r0], -r0
    483c:	00000020 	andeq	r0, r0, r0, lsr #32
    4840:	a6500401 	ldrbge	r0, [r0], -r1, lsl #8
    4844:	002c0000 	eoreq	r0, ip, r0
    4848:	9c010000 	stcls	0, cr0, [r1], {-0}
    484c:	000000d3 	ldrdeq	r0, [r0], -r3
    4850:	00a65807 	adceq	r5, r6, r7, lsl #16
    4854:	0000f300 	andeq	pc, r0, r0, lsl #6
    4858:	a6680800 	strbtge	r0, [r8], -r0, lsl #16
    485c:	00b50000 	adcseq	r0, r5, r0
    4860:	01090000 	mrseq	r0, (UNDEF: 9)
    4864:	40030550 	andmi	r0, r3, r0, asr r5
    4868:	000000bb 	strheq	r0, [r0], -fp
    486c:	00a6700a 	adceq	r7, r6, sl
    4870:	0000fa00 	andeq	pc, r0, r0, lsl #20
    4874:	0000c900 	andeq	ip, r0, r0, lsl #18
    4878:	50010900 	andpl	r0, r1, r0, lsl #18
    487c:	00640802 	rsbeq	r0, r4, r2, lsl #16
    4880:	00a67407 	adceq	r7, r6, r7, lsl #8
    4884:	00010b00 	andeq	r0, r1, r0, lsl #22
    4888:	250b0000 	strcs	r0, [fp, #-0]
    488c:	e2000000 	and	r0, r0, #0
    4890:	0c000000 	stceq	0, cr0, [r0], {-0}
    4894:	00000079 	andeq	r0, r0, r9, ror r0
    4898:	09b80d00 	ldmibeq	r8!, {r8, sl, fp}
    489c:	22020000 	andcs	r0, r2, #0
    48a0:	000000ed 	andeq	r0, r0, sp, ror #1
    48a4:	00d30404 	sbcseq	r0, r3, r4, lsl #8
    48a8:	210e0000 	mrscs	r0, (UNDEF: 14)
    48ac:	0200000a 	andeq	r0, r0, #10
    48b0:	0a540fdc 	beq	1508828 <__bss_end__+0x14fc638>
    48b4:	4f020000 	svcmi	0x00020000
    48b8:	0000010b 	andeq	r0, r0, fp, lsl #2
    48bc:	00002c0c 	andeq	r2, r0, ip, lsl #24
    48c0:	490e0000 	stmdbmi	lr, {}	; <UNPREDICTABLE>
    48c4:	0200000a 	andeq	r0, r0, #10
    48c8:	010f0062 	tsteq	pc, r2, rrx
    48cc:	00040000 	andeq	r0, r4, r0
    48d0:	00000f30 	andeq	r0, r0, r0, lsr pc
    48d4:	08770104 	ldmdaeq	r7!, {r2, r8}^
    48d8:	96010000 	strls	r0, [r1], -r0
    48dc:	d600000a 	strle	r0, [r0], -sl
    48e0:	7c000008 	stcvc	0, cr0, [r0], {8}
    48e4:	380000a6 	stmdacc	r0, {r1, r2, r5, r7}
    48e8:	3d000000 	stccc	0, cr0, [r0, #-0]
    48ec:	0200000f 	andeq	r0, r0, #15
    48f0:	6e690504 	cdpvs	5, 6, cr0, cr9, cr4, {0}
    48f4:	04030074 	streq	r0, [r3], #-116	; 0x74
    48f8:	00018307 	andeq	r8, r1, r7, lsl #6
    48fc:	06010300 	streq	r0, [r1], -r0, lsl #6
    4900:	00000014 	andeq	r0, r0, r4, lsl r0
    4904:	b8050203 	stmdalt	r5, {r0, r1, r9}
    4908:	03000001 	movweq	r0, #1
    490c:	019e0504 	orrseq	r0, lr, r4, lsl #10
    4910:	08030000 	stmdaeq	r3, {}	; <UNPREDICTABLE>
    4914:	00019905 	andeq	r9, r1, r5, lsl #18
    4918:	08010300 	stmdaeq	r1, {r8, r9}
    491c:	00000012 	andeq	r0, r0, r2, lsl r0
    4920:	2d070203 	sfmcs	f0, 4, [r7, #-12]
    4924:	03000000 	movweq	r0, #0
    4928:	017e0704 	cmneq	lr, r4, lsl #14
    492c:	08030000 	stmdaeq	r3, {}	; <UNPREDICTABLE>
    4930:	00017907 	andeq	r7, r1, r7, lsl #18
    4934:	07040300 	streq	r0, [r4, -r0, lsl #6]
    4938:	00000190 	muleq	r0, r0, r1
    493c:	1b080103 	blne	204d50 <__bss_end__+0x1f8b60>
    4940:	04000000 	streq	r0, [r0], #-0
    4944:	00000a8e 	andeq	r0, r0, lr, lsl #21
    4948:	a67c0d01 	ldrbtge	r0, [ip], -r1, lsl #26
    494c:	00380000 	eorseq	r0, r8, r0
    4950:	9c010000 	stcls	0, cr0, [r1], {-0}
    4954:	000000e1 	andeq	r0, r0, r1, ror #1
    4958:	000a5d05 	andeq	r5, sl, r5, lsl #26
    495c:	250e0100 	strcs	r0, [lr, #-256]	; 0x100
    4960:	05000000 	streq	r0, [r0, #-0]
    4964:	00000a6b 	andeq	r0, r0, fp, ror #20
    4968:	00250e01 	eoreq	r0, r5, r1, lsl #28
    496c:	00060000 	andeq	r0, r6, r0
    4970:	01000000 	mrseq	r0, (UNDEF: 0)
    4974:	7362070f 	cmnvc	r2, #3932160	; 0x3c0000
    4978:	11010073 	tstne	r1, r3, ror r0
    497c:	000000e1 	andeq	r0, r0, r1, ror #1
    4980:	00001ac3 	andeq	r1, r0, r3, asr #21
    4984:	000a8608 	andeq	r8, sl, r8, lsl #12
    4988:	e1120100 	tst	r2, r0, lsl #2
    498c:	09000000 	stmdbeq	r0, {}	; <UNPREDICTABLE>
    4990:	0000a6a4 	andeq	sl, r0, r4, lsr #13
    4994:	000000fd 	strdeq	r0, [r0], -sp
    4998:	00a6a809 	adceq	sl, r6, r9, lsl #16
    499c:	00010400 	andeq	r0, r1, r0, lsl #8
    49a0:	a6ac0900 	strtge	r0, [ip], r0, lsl #18
    49a4:	010b0000 	mrseq	r0, (UNDEF: 11)
    49a8:	0a000000 	beq	49b0 <__code_start__-0x3650>
    49ac:	00002504 	andeq	r2, r0, r4, lsl #10
    49b0:	0a5d0500 	beq	1745db8 <__bss_end__+0x1739bc8>
    49b4:	0e010000 	cdpeq	0, 0, cr0, cr1, cr0, {0}
    49b8:	00000025 	andeq	r0, r0, r5, lsr #32
    49bc:	000a6b05 	andeq	r6, sl, r5, lsl #22
    49c0:	250e0100 	strcs	r0, [lr, #-256]	; 0x100
    49c4:	06000000 	streq	r0, [r0], -r0
    49c8:	00000a77 	andeq	r0, r0, r7, ror sl
    49cc:	0006da02 	andeq	sp, r6, r2, lsl #20
    49d0:	02000000 	andeq	r0, r0, #0
    49d4:	002006d7 	ldrdeq	r0, [r0], -r7	; <UNPREDICTABLE>
    49d8:	65020000 	strvs	r0, [r2, #-0]
    49dc:	00013e00 	andeq	r3, r1, r0, lsl #28
    49e0:	c4000400 	strgt	r0, [r0], #-1024	; 0x400
    49e4:	0400000f 	streq	r0, [r0], #-15
    49e8:	00087701 	andeq	r7, r8, r1, lsl #14
    49ec:	0aa90100 	beq	fea44df4 <__bss_end__+0xfea38c04>
    49f0:	08d60000 	ldmeq	r6, {}^	; <UNPREDICTABLE>
    49f4:	a6b40000 	ldrtge	r0, [r4], r0
    49f8:	00440000 	subeq	r0, r4, r0
    49fc:	0fe70000 	svceq	0x00e70000
    4a00:	04020000 	streq	r0, [r2], #-0
    4a04:	746e6905 	strbtvc	r6, [lr], #-2309	; 0x905
    4a08:	07040300 	streq	r0, [r4, -r0, lsl #6]
    4a0c:	00000183 	andeq	r0, r0, r3, lsl #3
    4a10:	14060103 	strne	r0, [r6], #-259	; 0x103
    4a14:	03000000 	movweq	r0, #0
    4a18:	01b80502 			; <UNDEFINED> instruction: 0x01b80502
    4a1c:	04030000 	streq	r0, [r3], #-0
    4a20:	00019e05 	andeq	r9, r1, r5, lsl #28
    4a24:	05080300 	streq	r0, [r8, #-768]	; 0x300
    4a28:	00000199 	muleq	r0, r9, r1
    4a2c:	12080103 	andne	r0, r8, #-1073741824	; 0xc0000000
    4a30:	03000000 	movweq	r0, #0
    4a34:	002d0702 	eoreq	r0, sp, r2, lsl #14
    4a38:	04030000 	streq	r0, [r3], #-0
    4a3c:	00017e07 	andeq	r7, r1, r7, lsl #28
    4a40:	07080300 	streq	r0, [r8, -r0, lsl #6]
    4a44:	00000179 	andeq	r0, r0, r9, ror r1
    4a48:	90070403 	andls	r0, r7, r3, lsl #8
    4a4c:	03000001 	movweq	r0, #1
    4a50:	001b0801 	andseq	r0, fp, r1, lsl #16
    4a54:	04040000 	streq	r0, [r4], #-0
    4a58:	0000007f 	andeq	r0, r0, pc, ror r0
    4a5c:	00007205 	andeq	r7, r0, r5, lsl #4
    4a60:	0aca0600 	beq	ff286268 <__bss_end__+0xff27a078>
    4a64:	02010000 	andeq	r0, r1, #0
    4a68:	0000a6b4 			; <UNDEFINED> instruction: 0x0000a6b4
    4a6c:	00000044 	andeq	r0, r0, r4, asr #32
    4a70:	01089c01 	tsteq	r8, r1, lsl #24
    4a74:	70070000 	andvc	r0, r7, r0
    4a78:	02010063 	andeq	r0, r1, #99	; 0x63
    4a7c:	0000002c 	andeq	r0, r0, ip, lsr #32
    4a80:	00001ae3 	andeq	r1, r0, r3, ror #21
    4a84:	00006308 	andeq	r6, r0, r8, lsl #6
    4a88:	00011800 	andeq	r1, r1, r0, lsl #16
    4a8c:	4c030500 	cfstr32mi	mvfx0, [r3], {-0}
    4a90:	090000bb 	stmdbeq	r0, {r0, r1, r3, r4, r5, r7}
    4a94:	0000a6c4 	andeq	sl, r0, r4, asr #13
    4a98:	0000011d 	andeq	r0, r0, sp, lsl r1
    4a9c:	00a6e40a 	adceq	lr, r6, sl, lsl #8
    4aa0:	00012400 	andeq	r2, r1, r0, lsl #8
    4aa4:	0000fe00 	andeq	pc, r0, r0, lsl #28
    4aa8:	53010b00 	movwpl	r0, #6912	; 0x1b00
    4aac:	010b3201 	tsteq	fp, r1, lsl #4
    4ab0:	4c030552 	cfstr32mi	mvfx0, [r3], {82}	; 0x52
    4ab4:	0b0000bb 	bleq	4da8 <__code_start__-0x3258>
    4ab8:	03055101 	movweq	r5, #20737	; 0x5101
    4abc:	0000bba0 	andeq	fp, r0, r0, lsr #23
    4ac0:	0550010b 	ldrbeq	r0, [r0, #-267]	; 0x10b
    4ac4:	00bb6403 	adcseq	r6, fp, r3, lsl #8
    4ac8:	7d020b00 	vstrvc	d0, [r2, #-0]
    4acc:	00740204 	rsbseq	r0, r4, r4, lsl #4
    4ad0:	007d020b 	rsbseq	r0, sp, fp, lsl #4
    4ad4:	bbc40305 	bllt	ff1056f0 <__bss_end__+0xff0f9500>
    4ad8:	09000000 	stmdbeq	r0, {}	; <UNPREDICTABLE>
    4adc:	0000a6e8 	andeq	sl, r0, r8, ror #13
    4ae0:	0000013a 	andeq	r0, r0, sl, lsr r1
    4ae4:	00720c00 	rsbseq	r0, r2, r0, lsl #24
    4ae8:	01180000 	tsteq	r8, r0
    4aec:	6b0d0000 	blvs	344af4 <__bss_end__+0x338904>
    4af0:	15000000 	strne	r0, [r0, #-0]
    4af4:	01080500 	tsteq	r8, r0, lsl #10
    4af8:	c20e0000 	andgt	r0, lr, #0
    4afc:	02000001 	andeq	r0, r0, #1
    4b00:	094a0f1e 	stmdbeq	sl, {r1, r2, r3, r4, r8, r9, sl, fp}^
    4b04:	29020000 	stmdbcs	r2, {}	; <UNPREDICTABLE>
    4b08:	00000025 	andeq	r0, r0, r5, lsr #32
    4b0c:	0000013a 	andeq	r0, r0, sl, lsr r1
    4b10:	00007910 	andeq	r7, r0, r0, lsl r9
    4b14:	0e001100 	adfeqs	f1, f0, f0
    4b18:	00000020 	andeq	r0, r0, r0, lsr #32
    4b1c:	3e006502 	cfsh32cc	mvfx6, mvfx0, #2
    4b20:	04000001 	streq	r0, [r0], #-1
    4b24:	00109c00 	andseq	r9, r0, r0, lsl #24
    4b28:	77010400 	strvc	r0, [r1, -r0, lsl #8]
    4b2c:	01000008 	tsteq	r0, r8
    4b30:	00000ae0 	andeq	r0, r0, r0, ror #21
    4b34:	000008d6 	ldrdeq	r0, [r0], -r6
    4b38:	0000a6f8 	strdeq	sl, [r0], -r8
    4b3c:	00000044 	andeq	r0, r0, r4, asr #32
    4b40:	0000108d 	andeq	r1, r0, sp, lsl #1
    4b44:	69050402 	stmdbvs	r5, {r1, sl}
    4b48:	0300746e 	movweq	r7, #1134	; 0x46e
    4b4c:	01830704 	orreq	r0, r3, r4, lsl #14
    4b50:	01030000 	mrseq	r0, (UNDEF: 3)
    4b54:	00001406 	andeq	r1, r0, r6, lsl #8
    4b58:	05020300 	streq	r0, [r2, #-768]	; 0x300
    4b5c:	000001b8 			; <UNDEFINED> instruction: 0x000001b8
    4b60:	9e050403 	cdpls	4, 0, cr0, cr5, cr3, {0}
    4b64:	03000001 	movweq	r0, #1
    4b68:	01990508 	orrseq	r0, r9, r8, lsl #10
    4b6c:	01030000 	mrseq	r0, (UNDEF: 3)
    4b70:	00001208 	andeq	r1, r0, r8, lsl #4
    4b74:	07020300 	streq	r0, [r2, -r0, lsl #6]
    4b78:	0000002d 	andeq	r0, r0, sp, lsr #32
    4b7c:	7e070403 	cdpvc	4, 0, cr0, cr7, cr3, {0}
    4b80:	03000001 	movweq	r0, #1
    4b84:	01790708 	cmneq	r9, r8, lsl #14
    4b88:	04030000 	streq	r0, [r3], #-0
    4b8c:	00019007 	andeq	r9, r1, r7
    4b90:	08010300 	stmdaeq	r1, {r8, r9}
    4b94:	0000001b 	andeq	r0, r0, fp, lsl r0
    4b98:	007f0404 	rsbseq	r0, pc, r4, lsl #8
    4b9c:	72050000 	andvc	r0, r5, #0
    4ba0:	06000000 	streq	r0, [r0], -r0
    4ba4:	00000b05 	andeq	r0, r0, r5, lsl #22
    4ba8:	a6f80201 	ldrbtge	r0, [r8], r1, lsl #4
    4bac:	00440000 	subeq	r0, r4, r0
    4bb0:	9c010000 	stcls	0, cr0, [r1], {-0}
    4bb4:	00000108 	andeq	r0, r0, r8, lsl #2
    4bb8:	00637007 	rsbeq	r7, r3, r7
    4bbc:	002c0201 	eoreq	r0, ip, r1, lsl #4
    4bc0:	1b010000 	blne	44bc8 <__bss_end__+0x389d8>
    4bc4:	63080000 	movwvs	r0, #32768	; 0x8000
    4bc8:	18000000 	stmdane	r0, {}	; <UNPREDICTABLE>
    4bcc:	05000001 	streq	r0, [r0, #-1]
    4bd0:	00bbcc03 	adcseq	ip, fp, r3, lsl #24
    4bd4:	a7080900 	strge	r0, [r8, -r0, lsl #18]
    4bd8:	011d0000 	tsteq	sp, r0
    4bdc:	280a0000 	stmdacs	sl, {}	; <UNPREDICTABLE>
    4be0:	240000a7 	strcs	r0, [r0], #-167	; 0xa7
    4be4:	fe000001 	cdp2	0, 0, cr0, cr0, cr1, {0}
    4be8:	0b000000 	bleq	4bf0 <__code_start__-0x3410>
    4bec:	32015301 	andcc	r5, r1, #67108864	; 0x4000000
    4bf0:	0552010b 	ldrbeq	r0, [r2, #-267]	; 0x10b
    4bf4:	00bbcc03 	adcseq	ip, fp, r3, lsl #24
    4bf8:	51010b00 	tstpl	r1, r0, lsl #22
    4bfc:	bbe40305 	bllt	ff905818 <__bss_end__+0xff8f9628>
    4c00:	010b0000 	mrseq	r0, (UNDEF: 11)
    4c04:	64030550 	strvs	r0, [r3], #-1360	; 0x550
    4c08:	0b0000bb 	bleq	4efc <__code_start__-0x3104>
    4c0c:	02047d02 	andeq	r7, r4, #2, 26	; 0x80
    4c10:	020b0074 	andeq	r0, fp, #116	; 0x74
    4c14:	0305007d 	movweq	r0, #20605	; 0x507d
    4c18:	0000bc0c 	andeq	fp, r0, ip, lsl #24
    4c1c:	a72c0900 	strge	r0, [ip, -r0, lsl #18]!
    4c20:	013a0000 	teqeq	sl, r0
    4c24:	0c000000 	stceq	0, cr0, [r0], {-0}
    4c28:	00000072 	andeq	r0, r0, r2, ror r0
    4c2c:	00000118 	andeq	r0, r0, r8, lsl r1
    4c30:	00006b0d 	andeq	r6, r0, sp, lsl #22
    4c34:	05001500 	streq	r1, [r0, #-1280]	; 0x500
    4c38:	00000108 	andeq	r0, r0, r8, lsl #2
    4c3c:	0001c20e 	andeq	ip, r1, lr, lsl #4
    4c40:	0f1e0200 	svceq	0x001e0200
    4c44:	0000094a 	andeq	r0, r0, sl, asr #18
    4c48:	00252902 	eoreq	r2, r5, r2, lsl #18
    4c4c:	013a0000 	teqeq	sl, r0
    4c50:	79100000 	ldmdbvc	r0, {}	; <UNPREDICTABLE>
    4c54:	11000000 	mrsne	r0, (UNDEF: 0)
    4c58:	00200e00 	eoreq	r0, r0, r0, lsl #28
    4c5c:	65020000 	strvs	r0, [r2, #-0]
    4c60:	00013e00 	andeq	r3, r1, r0, lsl #28
    4c64:	74000400 	strvc	r0, [r0], #-1024	; 0x400
    4c68:	04000011 	streq	r0, [r0], #-17
    4c6c:	00087701 	andeq	r7, r8, r1, lsl #14
    4c70:	0b280100 	bleq	a05078 <__bss_end__+0x9f8e88>
    4c74:	08d60000 	ldmeq	r6, {}^	; <UNPREDICTABLE>
    4c78:	a73c0000 	ldrge	r0, [ip, -r0]!
    4c7c:	00440000 	subeq	r0, r4, r0
    4c80:	11370000 	teqne	r7, r0
    4c84:	04020000 	streq	r0, [r2], #-0
    4c88:	746e6905 	strbtvc	r6, [lr], #-2309	; 0x905
    4c8c:	07040300 	streq	r0, [r4, -r0, lsl #6]
    4c90:	00000183 	andeq	r0, r0, r3, lsl #3
    4c94:	14060103 	strne	r0, [r6], #-259	; 0x103
    4c98:	03000000 	movweq	r0, #0
    4c9c:	01b80502 			; <UNDEFINED> instruction: 0x01b80502
    4ca0:	04030000 	streq	r0, [r3], #-0
    4ca4:	00019e05 	andeq	r9, r1, r5, lsl #28
    4ca8:	05080300 	streq	r0, [r8, #-768]	; 0x300
    4cac:	00000199 	muleq	r0, r9, r1
    4cb0:	12080103 	andne	r0, r8, #-1073741824	; 0xc0000000
    4cb4:	03000000 	movweq	r0, #0
    4cb8:	002d0702 	eoreq	r0, sp, r2, lsl #14
    4cbc:	04030000 	streq	r0, [r3], #-0
    4cc0:	00017e07 	andeq	r7, r1, r7, lsl #28
    4cc4:	07080300 	streq	r0, [r8, -r0, lsl #6]
    4cc8:	00000179 	andeq	r0, r0, r9, ror r1
    4ccc:	90070403 	andls	r0, r7, r3, lsl #8
    4cd0:	03000001 	movweq	r0, #1
    4cd4:	001b0801 	andseq	r0, fp, r1, lsl #16
    4cd8:	04040000 	streq	r0, [r4], #-0
    4cdc:	0000007f 	andeq	r0, r0, pc, ror r0
    4ce0:	00007205 	andeq	r7, r0, r5, lsl #4
    4ce4:	0b1b0600 	bleq	6c64ec <__bss_end__+0x6ba2fc>
    4ce8:	02010000 	andeq	r0, r1, #0
    4cec:	0000a73c 	andeq	sl, r0, ip, lsr r7
    4cf0:	00000044 	andeq	r0, r0, r4, asr #32
    4cf4:	01089c01 	tsteq	r8, r1, lsl #24
    4cf8:	70070000 	andvc	r0, r7, r0
    4cfc:	02010063 	andeq	r0, r1, #99	; 0x63
    4d00:	0000002c 	andeq	r0, r0, ip, lsr #32
    4d04:	00001b1f 	andeq	r1, r0, pc, lsl fp
    4d08:	00006308 	andeq	r6, r0, r8, lsl #6
    4d0c:	00011800 	andeq	r1, r1, r0, lsl #16
    4d10:	1c030500 	cfstr32ne	mvfx0, [r3], {-0}
    4d14:	090000bc 	stmdbeq	r0, {r2, r3, r4, r5, r7}
    4d18:	0000a74c 	andeq	sl, r0, ip, asr #14
    4d1c:	0000011d 	andeq	r0, r0, sp, lsl r1
    4d20:	00a76c0a 	adceq	r6, r7, sl, lsl #24
    4d24:	00012400 	andeq	r2, r1, r0, lsl #8
    4d28:	0000fe00 	andeq	pc, r0, r0, lsl #28
    4d2c:	53010b00 	movwpl	r0, #6912	; 0x1b00
    4d30:	010b3201 	tsteq	fp, r1, lsl #4
    4d34:	1c030552 	cfstr32ne	mvfx0, [r3], {82}	; 0x52
    4d38:	0b0000bc 	bleq	5030 <__code_start__-0x2fd0>
    4d3c:	03055101 	movweq	r5, #20737	; 0x5101
    4d40:	0000bc2c 	andeq	fp, r0, ip, lsr #24
    4d44:	0550010b 	ldrbeq	r0, [r0, #-267]	; 0x10b
    4d48:	00bb6403 	adcseq	r6, fp, r3, lsl #8
    4d4c:	7d020b00 	vstrvc	d0, [r2, #-0]
    4d50:	00740204 	rsbseq	r0, r4, r4, lsl #4
    4d54:	007d020b 	rsbseq	r0, sp, fp, lsl #4
    4d58:	bc500305 	mrrclt	3, 0, r0, r0, cr5	; <UNPREDICTABLE>
    4d5c:	09000000 	stmdbeq	r0, {}	; <UNPREDICTABLE>
    4d60:	0000a770 	andeq	sl, r0, r0, ror r7
    4d64:	0000013a 	andeq	r0, r0, sl, lsr r1
    4d68:	00720c00 	rsbseq	r0, r2, r0, lsl #24
    4d6c:	01180000 	tsteq	r8, r0
    4d70:	6b0d0000 	blvs	344d78 <__bss_end__+0x338b88>
    4d74:	0c000000 	stceq	0, cr0, [r0], {-0}
    4d78:	01080500 	tsteq	r8, r0, lsl #10
    4d7c:	c20e0000 	andgt	r0, lr, #0
    4d80:	02000001 	andeq	r0, r0, #1
    4d84:	094a0f1e 	stmdbeq	sl, {r1, r2, r3, r4, r8, r9, sl, fp}^
    4d88:	29020000 	stmdbcs	r2, {}	; <UNPREDICTABLE>
    4d8c:	00000025 	andeq	r0, r0, r5, lsr #32
    4d90:	0000013a 	andeq	r0, r0, sl, lsr r1
    4d94:	00007910 	andeq	r7, r0, r0, lsl r9
    4d98:	0e001100 	adfeqs	f1, f0, f0
    4d9c:	00000020 	andeq	r0, r0, r0, lsr #32
    4da0:	3e006502 	cfsh32cc	mvfx6, mvfx0, #2
    4da4:	04000001 	streq	r0, [r0], #-1
    4da8:	00124c00 	andseq	r4, r2, r0, lsl #24
    4dac:	77010400 	strvc	r0, [r1, -r0, lsl #8]
    4db0:	01000008 	tsteq	r0, r8
    4db4:	00000b4a 	andeq	r0, r0, sl, asr #22
    4db8:	000008d6 	ldrdeq	r0, [r0], -r6
    4dbc:	0000a780 	andeq	sl, r0, r0, lsl #15
    4dc0:	00000044 	andeq	r0, r0, r4, asr #32
    4dc4:	000011de 	ldrdeq	r1, [r0], -lr
    4dc8:	69050402 	stmdbvs	r5, {r1, sl}
    4dcc:	0300746e 	movweq	r7, #1134	; 0x46e
    4dd0:	01830704 	orreq	r0, r3, r4, lsl #14
    4dd4:	01030000 	mrseq	r0, (UNDEF: 3)
    4dd8:	00001406 	andeq	r1, r0, r6, lsl #8
    4ddc:	05020300 	streq	r0, [r2, #-768]	; 0x300
    4de0:	000001b8 			; <UNDEFINED> instruction: 0x000001b8
    4de4:	9e050403 	cdpls	4, 0, cr0, cr5, cr3, {0}
    4de8:	03000001 	movweq	r0, #1
    4dec:	01990508 	orrseq	r0, r9, r8, lsl #10
    4df0:	01030000 	mrseq	r0, (UNDEF: 3)
    4df4:	00001208 	andeq	r1, r0, r8, lsl #4
    4df8:	07020300 	streq	r0, [r2, -r0, lsl #6]
    4dfc:	0000002d 	andeq	r0, r0, sp, lsr #32
    4e00:	7e070403 	cdpvc	4, 0, cr0, cr7, cr3, {0}
    4e04:	03000001 	movweq	r0, #1
    4e08:	01790708 	cmneq	r9, r8, lsl #14
    4e0c:	04030000 	streq	r0, [r3], #-0
    4e10:	00019007 	andeq	r9, r1, r7
    4e14:	08010300 	stmdaeq	r1, {r8, r9}
    4e18:	0000001b 	andeq	r0, r0, fp, lsl r0
    4e1c:	007f0404 	rsbseq	r0, pc, r4, lsl #8
    4e20:	72050000 	andvc	r0, r5, #0
    4e24:	06000000 	streq	r0, [r0], -r0
    4e28:	00000b75 	andeq	r0, r0, r5, ror fp
    4e2c:	a7800201 	strge	r0, [r0, r1, lsl #4]
    4e30:	00440000 	subeq	r0, r4, r0
    4e34:	9c010000 	stcls	0, cr0, [r1], {-0}
    4e38:	00000108 	andeq	r0, r0, r8, lsl #2
    4e3c:	00637007 	rsbeq	r7, r3, r7
    4e40:	002c0201 	eoreq	r0, ip, r1, lsl #4
    4e44:	1b3d0000 	blne	f44e4c <__bss_end__+0xf38c5c>
    4e48:	63080000 	movwvs	r0, #32768	; 0x8000
    4e4c:	18000000 	stmdane	r0, {}	; <UNPREDICTABLE>
    4e50:	05000001 	streq	r0, [r0, #-1]
    4e54:	00bc5803 	adcseq	r5, ip, r3, lsl #16
    4e58:	a7900900 	ldrge	r0, [r0, r0, lsl #18]
    4e5c:	011d0000 	tsteq	sp, r0
    4e60:	b00a0000 	andlt	r0, sl, r0
    4e64:	240000a7 	strcs	r0, [r0], #-167	; 0xa7
    4e68:	fe000001 	cdp2	0, 0, cr0, cr0, cr1, {0}
    4e6c:	0b000000 	bleq	4e74 <__code_start__-0x318c>
    4e70:	32015301 	andcc	r5, r1, #67108864	; 0x4000000
    4e74:	0552010b 	ldrbeq	r0, [r2, #-267]	; 0x10b
    4e78:	00bc5803 	adcseq	r5, ip, r3, lsl #16
    4e7c:	51010b00 	tstpl	r1, r0, lsl #22
    4e80:	bc780305 	ldcllt	3, cr0, [r8], #-20	; 0xffffffec
    4e84:	010b0000 	mrseq	r0, (UNDEF: 11)
    4e88:	64030550 	strvs	r0, [r3], #-1360	; 0x550
    4e8c:	0b0000bb 	bleq	5180 <__code_start__-0x2e80>
    4e90:	02047d02 	andeq	r7, r4, #2, 26	; 0x80
    4e94:	020b0074 	andeq	r0, fp, #116	; 0x74
    4e98:	0305007d 	movweq	r0, #20605	; 0x507d
    4e9c:	0000bca4 	andeq	fp, r0, r4, lsr #25
    4ea0:	a7b40900 	ldrge	r0, [r4, r0, lsl #18]!
    4ea4:	013a0000 	teqeq	sl, r0
    4ea8:	0c000000 	stceq	0, cr0, [r0], {-0}
    4eac:	00000072 	andeq	r0, r0, r2, ror r0
    4eb0:	00000118 	andeq	r0, r0, r8, lsl r1
    4eb4:	00006b0d 	andeq	r6, r0, sp, lsl #22
    4eb8:	05001c00 	streq	r1, [r0, #-3072]	; 0xc00
    4ebc:	00000108 	andeq	r0, r0, r8, lsl #2
    4ec0:	0001c20e 	andeq	ip, r1, lr, lsl #4
    4ec4:	0f1e0200 	svceq	0x001e0200
    4ec8:	0000094a 	andeq	r0, r0, sl, asr #18
    4ecc:	00252902 	eoreq	r2, r5, r2, lsl #18
    4ed0:	013a0000 	teqeq	sl, r0
    4ed4:	79100000 	ldmdbvc	r0, {}	; <UNPREDICTABLE>
    4ed8:	11000000 	mrsne	r0, (UNDEF: 0)
    4edc:	00200e00 	eoreq	r0, r0, r0, lsl #28
    4ee0:	65020000 	strvs	r0, [r2, #-0]
    4ee4:	00009800 	andeq	r9, r0, r0, lsl #16
    4ee8:	24000400 	strcs	r0, [r0], #-1024	; 0x400
    4eec:	04000013 	streq	r0, [r0], #-19
    4ef0:	00087701 	andeq	r7, r8, r1, lsl #14
    4ef4:	0b920100 	bleq	fe4852fc <__bss_end__+0xfe47910c>
    4ef8:	08d60000 	ldmeq	r6, {}^	; <UNPREDICTABLE>
    4efc:	a7c40000 	strbge	r0, [r4, r0]
    4f00:	00080000 	andeq	r0, r8, r0
    4f04:	128e0000 	addne	r0, lr, #0
    4f08:	04020000 	streq	r0, [r2], #-0
    4f0c:	746e6905 	strbtvc	r6, [lr], #-2309	; 0x905
    4f10:	07040300 	streq	r0, [r4, -r0, lsl #6]
    4f14:	00000183 	andeq	r0, r0, r3, lsl #3
    4f18:	14060103 	strne	r0, [r6], #-259	; 0x103
    4f1c:	03000000 	movweq	r0, #0
    4f20:	01b80502 			; <UNDEFINED> instruction: 0x01b80502
    4f24:	04030000 	streq	r0, [r3], #-0
    4f28:	00019e05 	andeq	r9, r1, r5, lsl #28
    4f2c:	05080300 	streq	r0, [r8, #-768]	; 0x300
    4f30:	00000199 	muleq	r0, r9, r1
    4f34:	12080103 	andne	r0, r8, #-1073741824	; 0xc0000000
    4f38:	03000000 	movweq	r0, #0
    4f3c:	002d0702 	eoreq	r0, sp, r2, lsl #14
    4f40:	04030000 	streq	r0, [r3], #-0
    4f44:	00017e07 	andeq	r7, r1, r7, lsl #28
    4f48:	07080300 	streq	r0, [r8, -r0, lsl #6]
    4f4c:	00000179 	andeq	r0, r0, r9, ror r1
    4f50:	90070403 	andls	r0, r7, r3, lsl #8
    4f54:	03000001 	movweq	r0, #1
    4f58:	001b0801 	andseq	r0, fp, r1, lsl #16
    4f5c:	77040000 	strvc	r0, [r4, -r0]
    4f60:	0100000a 	tsteq	r0, sl
    4f64:	00a7c404 	adceq	ip, r7, r4, lsl #8
    4f68:	00000400 	andeq	r0, r0, r0, lsl #8
    4f6c:	049c0100 	ldreq	r0, [ip], #256	; 0x100
    4f70:	00000a21 	andeq	r0, r0, r1, lsr #20
    4f74:	a7c80501 	strbge	r0, [r8, r1, lsl #10]
    4f78:	00040000 	andeq	r0, r4, r0
    4f7c:	9c010000 	stcls	0, cr0, [r1], {-0}
    4f80:	0001d700 	andeq	sp, r1, r0, lsl #14
    4f84:	66000400 	strvs	r0, [r0], -r0, lsl #8
    4f88:	04000013 	streq	r0, [r0], #-19
    4f8c:	00087701 	andeq	r7, r8, r1, lsl #14
    4f90:	0c4e0100 	stfeqe	f0, [lr], {-0}
    4f94:	08d60000 	ldmeq	r6, {}^	; <UNPREDICTABLE>
    4f98:	a7cc0000 	strbge	r0, [ip, r0]
    4f9c:	006c0000 	rsbeq	r0, ip, r0
    4fa0:	12d90000 	sbcsne	r0, r9, #0
    4fa4:	04020000 	streq	r0, [r2], #-0
    4fa8:	746e6905 	strbtvc	r6, [lr], #-2309	; 0x905
    4fac:	07040300 	streq	r0, [r4, -r0, lsl #6]
    4fb0:	00000183 	andeq	r0, r0, r3, lsl #3
    4fb4:	14060103 	strne	r0, [r6], #-259	; 0x103
    4fb8:	03000000 	movweq	r0, #0
    4fbc:	01b80502 			; <UNDEFINED> instruction: 0x01b80502
    4fc0:	04030000 	streq	r0, [r3], #-0
    4fc4:	00019e05 	andeq	r9, r1, r5, lsl #28
    4fc8:	05080300 	streq	r0, [r8, #-768]	; 0x300
    4fcc:	00000199 	muleq	r0, r9, r1
    4fd0:	12080103 	andne	r0, r8, #-1073741824	; 0xc0000000
    4fd4:	03000000 	movweq	r0, #0
    4fd8:	002d0702 	eoreq	r0, sp, r2, lsl #14
    4fdc:	04030000 	streq	r0, [r3], #-0
    4fe0:	00017e07 	andeq	r7, r1, r7, lsl #28
    4fe4:	07080300 	streq	r0, [r8, -r0, lsl #6]
    4fe8:	00000179 	andeq	r0, r0, r9, ror r1
    4fec:	90070403 	andls	r0, r7, r3, lsl #8
    4ff0:	03000001 	movweq	r0, #1
    4ff4:	001b0801 	andseq	r0, fp, r1, lsl #16
    4ff8:	04040000 	streq	r0, [r4], #-0
    4ffc:	00f01402 	rscseq	r1, r0, r2, lsl #8
    5000:	67050000 	strvs	r0, [r5, -r0]
    5004:	8000000c 	andhi	r0, r0, ip
    5008:	028082e4 	addeq	r8, r0, #228, 4	; 0x4000000e
    500c:	000bed05 	andeq	lr, fp, r5, lsl #26
    5010:	82e48000 	rschi	r8, r4, #0
    5014:	94050280 	strls	r0, [r5], #-640	; 0x280
    5018:	8400000c 	strhi	r0, [r0], #-12
    501c:	028082e4 	addeq	r8, r0, #228, 4	; 0x4000000e
    5020:	000baf05 	andeq	sl, fp, r5, lsl #30
    5024:	82e48800 	rschi	r8, r4, #0, 16
    5028:	d0050280 	andle	r0, r5, r0, lsl #5
    502c:	8c00000b 	stchi	0, cr0, [r0], {11}
    5030:	028082e4 	addeq	r8, r0, #228, 4	; 0x4000000e
    5034:	000c1105 	andeq	r1, ip, r5, lsl #2
    5038:	82e49000 	rschi	r9, r4, #0
    503c:	1f050280 	svcne	0x00050280
    5040:	9400000c 	strls	r0, [r0], #-12
    5044:	028082e4 	addeq	r8, r0, #228, 4	; 0x4000000e
    5048:	000bff05 	andeq	pc, fp, r5, lsl #30
    504c:	82e49800 	rschi	r9, r4, #0, 16
    5050:	76050280 	strvc	r0, [r5], -r0, lsl #5
    5054:	9c00000c 	stcls	0, cr0, [r0], {12}
    5058:	028082e4 	addeq	r8, r0, #228, 4	; 0x4000000e
    505c:	000c8505 	andeq	r8, ip, r5, lsl #10
    5060:	82e4a000 	rschi	sl, r4, #0
    5064:	bd050280 	sfmlt	f0, 4, [r5, #-512]	; 0xfffffe00
    5068:	a400000b 	strge	r0, [r0], #-11
    506c:	028082e4 	addeq	r8, r0, #228, 4	; 0x4000000e
    5070:	05b20600 	ldreq	r0, [r2, #1536]!	; 0x600
    5074:	1b010000 	blne	4507c <__bss_end__+0x38e8c>
    5078:	0000a7cc 	andeq	sl, r0, ip, asr #15
    507c:	0000006c 	andeq	r0, r0, ip, rrx
    5080:	01a59c01 			; <UNDEFINED> instruction: 0x01a59c01
    5084:	dc070000 	stcle	0, cr0, [r7], {-0}
    5088:	0100000b 	tsteq	r0, fp
    508c:	00002c23 	andeq	r2, r0, r3, lsr #24
    5090:	0c2d0700 	stceq	7, cr0, [sp], #-0
    5094:	24010000 	strcs	r0, [r1], #-0
    5098:	0000002c 	andeq	r0, r0, ip, lsr #32
    509c:	74736408 	ldrbtvc	r6, [r3], #-1032	; 0x408
    50a0:	a5270100 	strge	r0, [r7, #-256]!	; 0x100
    50a4:	00000001 	andeq	r0, r0, r1
    50a8:	63727309 	cmnvs	r2, #603979776	; 0x24000000
    50ac:	a5280100 	strge	r0, [r8, #-256]!	; 0x100
    50b0:	0a000001 	beq	50bc <__code_start__-0x2f44>
    50b4:	2901006e 	stmdbcs	r1, {r1, r2, r3, r5, r6}
    50b8:	0000002c 	andeq	r0, r0, ip, lsr #32
    50bc:	000b5001 	andeq	r5, fp, r1
    50c0:	240000a8 	strcs	r0, [r0], #-168	; 0xa8
    50c4:	58000000 	stmdapl	r0, {}	; <UNPREDICTABLE>
    50c8:	0c000001 	stceq	0, cr0, [r0], {1}
    50cc:	2a010069 	bcs	45278 <__bss_end__+0x39088>
    50d0:	00000025 	andeq	r0, r0, r5, lsr #32
    50d4:	00001b5b 	andeq	r1, r0, fp, asr fp
    50d8:	a7d40d00 	ldrbge	r0, [r4, r0, lsl #26]
    50dc:	01c10000 	biceq	r0, r1, r0
    50e0:	e00e0000 	and	r0, lr, r0
    50e4:	c80000a7 	stmdagt	r0, {r0, r1, r2, r5, r7}
    50e8:	7e000001 	cdpvc	0, 0, cr0, cr0, cr1, {0}
    50ec:	0f000001 	svceq	0x00000001
    50f0:	09025101 	stmdbeq	r2, {r0, r8, ip, lr}
    50f4:	50010fff 	strdpl	r0, [r1], -pc	; <UNPREDICTABLE>
    50f8:	b21c0c05 	andslt	r0, ip, #1280	; 0x500
    50fc:	0e002000 	cdpeq	0, 0, cr2, cr0, cr0, {0}
    5100:	0000a7ec 	andeq	sl, r0, ip, ror #15
    5104:	000001c8 	andeq	r0, r0, r8, asr #3
    5108:	0000019b 	muleq	r0, fp, r1
    510c:	0251010f 	subseq	r0, r1, #-1073741821	; 0xc0000003
    5110:	010fff09 	tsteq	pc, r9, lsl #30
    5114:	200c0550 	andcs	r0, ip, r0, asr r5
    5118:	002000b2 	strhteq	r0, [r0], -r2
    511c:	00a7f00d 	adceq	pc, r7, sp
    5120:	0001c100 	andeq	ip, r1, r0, lsl #2
    5124:	04100000 	ldreq	r0, [r0], #-0
    5128:	0000002c 	andeq	r0, r0, ip, lsr #32
    512c:	000bdc07 	andeq	sp, fp, r7, lsl #24
    5130:	2c230100 	stfcss	f0, [r3], #-0
    5134:	07000000 	streq	r0, [r0, -r0]
    5138:	00000c2d 	andeq	r0, r0, sp, lsr #24
    513c:	002c2401 	eoreq	r2, ip, r1, lsl #8
    5140:	42110000 	andsmi	r0, r1, #0
    5144:	0300000c 	movweq	r0, #12
    5148:	0c701289 	lfmeq	f1, 2, [r0], #-548	; 0xfffffddc
    514c:	9b030000 	blls	c5154 <__bss_end__+0xb8f64>
    5150:	00002c13 	andeq	r2, r0, r3, lsl ip
    5154:	002c1300 	eoreq	r1, ip, r0, lsl #6
    5158:	00000000 	andeq	r0, r0, r0
    515c:	000001ad 	andeq	r0, r0, sp, lsr #3
    5160:	146c0004 	strbtne	r0, [ip], #-4
    5164:	01040000 	mrseq	r0, (UNDEF: 4)
    5168:	00000877 	andeq	r0, r0, r7, ror r8
    516c:	000cb001 	andeq	fp, ip, r1
    5170:	0008d600 	andeq	sp, r8, r0, lsl #12
    5174:	00004800 	andeq	r4, r0, r0, lsl #16
    5178:	00000000 	andeq	r0, r0, r0
    517c:	0013a600 	andseq	sl, r3, r0, lsl #12
    5180:	05040200 	streq	r0, [r4, #-512]	; 0x200
    5184:	00746e69 	rsbseq	r6, r4, r9, ror #28
    5188:	83070403 	movwhi	r0, #29699	; 0x7403
    518c:	03000001 	movweq	r0, #1
    5190:	00140601 	andseq	r0, r4, r1, lsl #12
    5194:	02030000 	andeq	r0, r3, #0
    5198:	0001b805 	andeq	fp, r1, r5, lsl #16
    519c:	05040300 	streq	r0, [r4, #-768]	; 0x300
    51a0:	0000019e 	muleq	r0, lr, r1
    51a4:	99050803 	stmdbls	r5, {r0, r1, fp}
    51a8:	03000001 	movweq	r0, #1
    51ac:	00120801 	andseq	r0, r2, r1, lsl #16
    51b0:	02030000 	andeq	r0, r3, #0
    51b4:	00002d07 	andeq	r2, r0, r7, lsl #26
    51b8:	07040300 	streq	r0, [r4, -r0, lsl #6]
    51bc:	0000017e 	andeq	r0, r0, lr, ror r1
    51c0:	79070803 	stmdbvc	r7, {r0, r1, fp}
    51c4:	03000001 	movweq	r0, #1
    51c8:	01900704 	orrseq	r0, r0, r4, lsl #14
    51cc:	01030000 	mrseq	r0, (UNDEF: 3)
    51d0:	00001b08 	andeq	r1, r0, r8, lsl #22
    51d4:	0ca20400 	cfstrseq	mvf0, [r2]
    51d8:	0e010000 	cdpeq	0, 0, cr0, cr1, cr0, {0}
    51dc:	00000025 	andeq	r0, r0, r5, lsr #32
    51e0:	0000a838 	andeq	sl, r0, r8, lsr r8
    51e4:	00000018 	andeq	r0, r0, r8, lsl r0
    51e8:	00a29c01 	adceq	r9, r2, r1, lsl #24
    51ec:	07050000 	streq	r0, [r5, -r0]
    51f0:	0100000d 	tsteq	r0, sp
    51f4:	00002c0f 	andeq	r2, r0, pc, lsl #24
    51f8:	001b7a00 	andseq	r7, fp, r0, lsl #20
    51fc:	e4060000 	str	r0, [r6], #-0
    5200:	0100000c 	tsteq	r0, ip
    5204:	00a85017 	adceq	r5, r8, r7, lsl r0
    5208:	00001400 	andeq	r1, r0, r0, lsl #8
    520c:	c79c0100 	ldrgt	r0, [ip, r0, lsl #2]
    5210:	05000000 	streq	r0, [r0, #-0]
    5214:	00000d07 	andeq	r0, r0, r7, lsl #26
    5218:	002c1801 	eoreq	r1, ip, r1, lsl #16
    521c:	1b990000 	blne	fe645224 <__bss_end__+0xfe639034>
    5220:	06000000 	streq	r0, [r0], -r0
    5224:	00000a49 	andeq	r0, r0, r9, asr #20
    5228:	a8641f01 	stmdage	r4!, {r0, r8, r9, sl, fp, ip}^
    522c:	00480000 	subeq	r0, r8, r0
    5230:	9c010000 	stcls	0, cr0, [r1], {-0}
    5234:	00000177 	andeq	r0, r0, r7, ror r1
    5238:	000cff07 	andeq	pc, ip, r7, lsl #30
    523c:	772a0100 	strvc	r0, [sl, -r0, lsl #2]!
    5240:	1c000001 	stcne	0, cr0, [r0], {1}
    5244:	07201000 	streq	r1, [r0, -r0]!
    5248:	00000cdc 	ldrdeq	r0, [r0], -ip
    524c:	01772b01 	cmneq	r7, r1, lsl #22
    5250:	00240000 	eoreq	r0, r4, r0
    5254:	f3072010 	vqadd.u8	d2, d7, d0
    5258:	0100000c 	tsteq	r0, ip
    525c:	0001772c 	andeq	r7, r1, ip, lsr #14
    5260:	00000000 	andeq	r0, r0, r0
    5264:	0cc3085a 	stcleq	8, cr0, [r3], {90}	; 0x5a
    5268:	2d010000 	stccs	0, cr0, [r1, #-0]
    526c:	00000177 	andeq	r0, r0, r7, ror r1
    5270:	a86c0920 	stmdage	ip!, {r5, r8, fp}^
    5274:	00790000 	rsbseq	r0, r9, r0
    5278:	78090000 	stmdavc	r9, {}	; <UNPREDICTABLE>
    527c:	a20000a8 	andge	r0, r0, #168	; 0xa8
    5280:	0a000000 	beq	5288 <__code_start__-0x2d78>
    5284:	0000a880 	andeq	sl, r0, r0, lsl #17
    5288:	0000018d 	andeq	r0, r0, sp, lsl #3
    528c:	0000013a 	andeq	r0, r0, sl, lsr r1
    5290:	0150010b 	cmpeq	r0, fp, lsl #2
    5294:	8c0a004e 	stchi	0, cr0, [sl], {78}	; 0x4e
    5298:	9e0000a8 	cdpls	0, 0, cr0, cr0, cr8, {5}
    529c:	5a000001 	bpl	52a8 <__code_start__-0x2d58>
    52a0:	0b000001 	bleq	52ac <__code_start__-0x2d54>
    52a4:	0c055101 	stfeqs	f5, [r5], {1}
    52a8:	5a000001 	bpl	52b4 <__code_start__-0x2d4c>
    52ac:	0550010b 	ldrbeq	r0, [r0, #-267]	; 0x10b
    52b0:	1000240c 	andne	r2, r0, ip, lsl #8
    52b4:	980c0020 	stmdals	ip, {r5}
    52b8:	9e0000a8 	cdpls	0, 0, cr0, cr0, cr8, {5}
    52bc:	0b000001 	bleq	52c8 <__code_start__-0x2d38>
    52c0:	0c055101 	stfeqs	f5, [r5], {1}
    52c4:	5a000020 	bpl	534c <__code_start__-0x2cb4>
    52c8:	0550010b 	ldrbeq	r0, [r0, #-267]	; 0x10b
    52cc:	10001c0c 	andne	r1, r0, ip, lsl #24
    52d0:	0d000020 	stceq	0, cr0, [r0, #-128]	; 0xffffff80
    52d4:	00000025 	andeq	r0, r0, r5, lsr #32
    52d8:	000ca508 	andeq	sl, ip, r8, lsl #10
    52dc:	880d0100 	stmdahi	sp, {r8}
    52e0:	10000001 	andne	r0, r0, r1
    52e4:	00002c0d 	andeq	r2, r0, sp, lsl #24
    52e8:	0a540e00 	beq	1508af0 <__bss_end__+0x14fc900>
    52ec:	4f020000 	svcmi	0x00020000
    52f0:	0000019e 	muleq	r0, lr, r1
    52f4:	00002c0f 	andeq	r2, r0, pc, lsl #24
    52f8:	70100000 	andsvc	r0, r0, r0
    52fc:	0200000c 	andeq	r0, r0, #12
    5300:	002c0f9b 	mlaeq	ip, fp, pc, r0	; <UNPREDICTABLE>
    5304:	2c0f0000 	stccs	0, cr0, [pc], {-0}
    5308:	00000000 	andeq	r0, r0, r0
    530c:	0001f700 	andeq	pc, r1, r0, lsl #14
    5310:	5a000400 	bpl	6318 <__code_start__-0x1ce8>
    5314:	04000015 	streq	r0, [r0], #-21
    5318:	00087701 	andeq	r7, r8, r1, lsl #14
    531c:	0d290100 	stfeqs	f0, [r9, #-0]
    5320:	08d60000 	ldmeq	r6, {}^	; <UNPREDICTABLE>
    5324:	a8ac0000 	stmiage	ip!, {}	; <UNPREDICTABLE>
    5328:	00980000 	addseq	r0, r8, r0
    532c:	144c0000 	strbne	r0, [ip], #-0
    5330:	04020000 	streq	r0, [r2], #-0
    5334:	746e6905 	strbtvc	r6, [lr], #-2309	; 0x905
    5338:	07040300 	streq	r0, [r4, -r0, lsl #6]
    533c:	00000183 	andeq	r0, r0, r3, lsl #3
    5340:	14060103 	strne	r0, [r6], #-259	; 0x103
    5344:	03000000 	movweq	r0, #0
    5348:	01b80502 			; <UNDEFINED> instruction: 0x01b80502
    534c:	04030000 	streq	r0, [r3], #-0
    5350:	00019e05 	andeq	r9, r1, r5, lsl #28
    5354:	05080300 	streq	r0, [r8, #-768]	; 0x300
    5358:	00000199 	muleq	r0, r9, r1
    535c:	12080103 	andne	r0, r8, #-1073741824	; 0xc0000000
    5360:	03000000 	movweq	r0, #0
    5364:	002d0702 	eoreq	r0, sp, r2, lsl #14
    5368:	04030000 	streq	r0, [r3], #-0
    536c:	00017e07 	andeq	r7, r1, r7, lsl #28
    5370:	07080300 	streq	r0, [r8, -r0, lsl #6]
    5374:	00000179 	andeq	r0, r0, r9, ror r1
    5378:	90070403 	andls	r0, r7, r3, lsl #8
    537c:	03000001 	movweq	r0, #1
    5380:	001b0801 	andseq	r0, fp, r1, lsl #16
    5384:	47040000 	strmi	r0, [r4, -r0]
    5388:	0100000d 	tsteq	r0, sp
    538c:	00a8ac05 	adceq	sl, r8, r5, lsl #24
    5390:	00001c00 	andeq	r1, r0, r0, lsl #24
    5394:	9e9c0100 	fmllse	f0, f4, f0
    5398:	05000000 	streq	r0, [r0, #-0]
    539c:	00000d41 	andeq	r0, r0, r1, asr #26
    53a0:	002c0501 	eoreq	r0, ip, r1, lsl #10
    53a4:	1bc30000 	blne	ff0c53ac <__bss_end__+0xff0b91bc>
    53a8:	06000000 	streq	r0, [r0], -r0
    53ac:	00000d0c 	andeq	r0, r0, ip, lsl #26
    53b0:	002c1101 	eoreq	r1, ip, r1, lsl #2
    53b4:	a8c80000 	stmiage	r8, {}^	; <UNPREDICTABLE>
    53b8:	00140000 	andseq	r0, r4, r0
    53bc:	9c010000 	stcls	0, cr0, [r1], {-0}
    53c0:	000000cb 	andeq	r0, r0, fp, asr #1
    53c4:	00a8d407 	adceq	sp, r8, r7, lsl #8
    53c8:	0001de00 	andeq	sp, r1, r0, lsl #28
    53cc:	50010800 	andpl	r0, r1, r0, lsl #16
    53d0:	30040c05 	andcc	r0, r4, r5, lsl #24
    53d4:	00002000 	andeq	r2, r0, r0
    53d8:	000d5d06 	andeq	r5, sp, r6, lsl #26
    53dc:	2c160100 	ldfcss	f0, [r6], {-0}
    53e0:	dc000000 	stcle	0, cr0, [r0], {-0}
    53e4:	1c0000a8 	stcne	0, cr0, [r0], {168}	; 0xa8
    53e8:	01000000 	mrseq	r0, (UNDEF: 0)
    53ec:	00010d9c 	muleq	r1, ip, sp
    53f0:	00750900 	rsbseq	r0, r5, r0, lsl #18
    53f4:	002c1a01 	eoreq	r1, ip, r1, lsl #20
    53f8:	1bf70000 	blne	ffdc5400 <__bss_end__+0xffdb9210>
    53fc:	e40a0000 	str	r0, [sl], #-0
    5400:	f30000a8 	vhadd.u8	d0, d16, d24
    5404:	0a000001 	beq	5410 <__code_start__-0x2bf0>
    5408:	0000a8e8 	andeq	sl, r0, r8, ror #17
    540c:	0000009e 	muleq	r0, lr, r0
    5410:	00a8f00a 	adceq	pc, r8, sl
    5414:	0001f300 	andeq	pc, r1, r0, lsl #6
    5418:	54040000 	strpl	r0, [r4], #-0
    541c:	0100000d 	tsteq	r0, sp
    5420:	00a8f81f 	adceq	pc, r8, pc, lsl r8	; <UNPREDICTABLE>
    5424:	00002400 	andeq	r2, r0, r0, lsl #8
    5428:	6b9c0100 	blvs	fe705830 <__bss_end__+0xfe6f9640>
    542c:	0b000001 	bleq	5438 <__code_start__-0x2bc8>
    5430:	01007375 	tsteq	r0, r5, ror r3
    5434:	00002c1f 	andeq	r2, r0, pc, lsl ip
    5438:	001c1500 	andseq	r1, ip, r0, lsl #10
    543c:	62720c00 	rsbsvs	r0, r2, #0, 24
    5440:	2c200100 	stfcss	f0, [r0], #-0
    5444:	01000000 	mrseq	r0, (UNDEF: 0)
    5448:	a9080d54 	stmdbge	r8, {r2, r4, r6, r8, sl, fp}
    544c:	00100000 	andseq	r0, r0, r0
    5450:	01610000 	cmneq	r1, r0
    5454:	72090000 	andvc	r0, r9, #0
    5458:	22010061 	andcs	r0, r1, #97	; 0x61
    545c:	0000002c 	andeq	r0, r0, ip, lsr #32
    5460:	00001c33 	andeq	r1, r0, r3, lsr ip
    5464:	00a90c0a 	adceq	r0, r9, sl, lsl #24
    5468:	0000cb00 	andeq	ip, r0, r0, lsl #22
    546c:	040a0000 	streq	r0, [sl], #-0
    5470:	cb0000a9 	blgt	571c <__code_start__-0x28e4>
    5474:	00000000 	andeq	r0, r0, r0
    5478:	000a5404 	andeq	r5, sl, r4, lsl #8
    547c:	1c280100 	stfnes	f0, [r8], #-0
    5480:	140000a9 	strne	r0, [r0], #-169	; 0xa9
    5484:	01000000 	mrseq	r0, (UNDEF: 0)
    5488:	0001a49c 	muleq	r1, ip, r4
    548c:	736d0b00 	cmnvc	sp, #0, 22
    5490:	2c280100 	stfcss	f0, [r8], #-0
    5494:	46000000 	strmi	r0, [r0], -r0
    5498:	0700001c 	smladeq	r0, ip, r0, r0
    549c:	0000a92c 	andeq	sl, r0, ip, lsr #18
    54a0:	0000010d 	andeq	r0, r0, sp, lsl #2
    54a4:	07500108 	ldrbeq	r0, [r0, -r8, lsl #2]
    54a8:	0a5001f3 	beq	1405c7c <__bss_end__+0x13f9a8c>
    54ac:	001e03e8 	andseq	r0, lr, r8, ror #7
    54b0:	0d1f0400 	cfldrseq	mvf0, [pc, #-0]	; 54b8 <__code_start__-0x2b48>
    54b4:	2b010000 	blcs	454bc <__bss_end__+0x392cc>
    54b8:	0000a930 	andeq	sl, r0, r0, lsr r9
    54bc:	00000014 	andeq	r0, r0, r4, lsl r0
    54c0:	01de9c01 	bicseq	r9, lr, r1, lsl #24
    54c4:	730b0000 	movwvc	r0, #45056	; 0xb000
    54c8:	01006365 	tsteq	r0, r5, ror #6
    54cc:	00002c2b 	andeq	r2, r0, fp, lsr #24
    54d0:	001c6700 	andseq	r6, ip, r0, lsl #14
    54d4:	a9400700 	stmdbge	r0, {r8, r9, sl}^
    54d8:	016b0000 	cmneq	fp, r0
    54dc:	01080000 	mrseq	r0, (UNDEF: 8)
    54e0:	01f30750 	mvnseq	r0, r0, asr r7
    54e4:	03e80a50 	mvneq	r0, #80, 20	; 0x50000
    54e8:	0e00001e 	mcreq	0, 0, r0, cr0, cr14, {0}
    54ec:	00000d3b 	andeq	r0, r0, fp, lsr sp
    54f0:	002ca702 	eoreq	sl, ip, r2, lsl #14
    54f4:	01f30000 	mvnseq	r0, r0
    54f8:	2c0f0000 	stccs	0, cr0, [pc], {-0}
    54fc:	00000000 	andeq	r0, r0, r0
    5500:	000c4210 	andeq	r4, ip, r0, lsl r2
    5504:	00890200 	addeq	r0, r9, r0, lsl #4
    5508:	00000cc5 	andeq	r0, r0, r5, asr #25
    550c:	16500004 	ldrbne	r0, [r0], -r4
    5510:	01040000 	mrseq	r0, (UNDEF: 4)
    5514:	000010f8 	strdeq	r1, [r0], -r8
    5518:	000e610c 	andeq	r6, lr, ip, lsl #2
    551c:	000e7c00 	andeq	r7, lr, r0, lsl #24
    5520:	00a9a800 	adceq	sl, r9, r0, lsl #16
    5524:	00017800 	andeq	r7, r1, r0, lsl #16
    5528:	0014fe00 	andseq	pc, r4, r0, lsl #28
    552c:	05040200 	streq	r0, [r4, #-512]	; 0x200
    5530:	00746e69 	rsbseq	r6, r4, r9, ror #28
    5534:	83070403 	movwhi	r0, #29699	; 0x7403
    5538:	04000001 	streq	r0, [r0], #-1
    553c:	0000002c 	andeq	r0, r0, ip, lsr #32
    5540:	14060103 	strne	r0, [r6], #-259	; 0x103
    5544:	03000000 	movweq	r0, #0
    5548:	01b80502 			; <UNDEFINED> instruction: 0x01b80502
    554c:	04030000 	streq	r0, [r3], #-0
    5550:	00019e05 	andeq	r9, r1, r5, lsl #28
    5554:	05080300 	streq	r0, [r8, #-768]	; 0x300
    5558:	00000199 	muleq	r0, r9, r1
    555c:	12080103 	andne	r0, r8, #-1073741824	; 0xc0000000
    5560:	03000000 	movweq	r0, #0
    5564:	002d0702 	eoreq	r0, sp, r2, lsl #14
    5568:	04030000 	streq	r0, [r3], #-0
    556c:	00017e07 	andeq	r7, r1, r7, lsl #28
    5570:	07080300 	streq	r0, [r8, -r0, lsl #6]
    5574:	00000179 	andeq	r0, r0, r9, ror r1
    5578:	00100d05 	andseq	r0, r0, r5, lsl #26
    557c:	25070200 	strcs	r0, [r7, #-512]	; 0x200
    5580:	05000000 	streq	r0, [r0, #-0]
    5584:	00000ff7 	strdeq	r0, [r0], -r7
    5588:	00462c03 	subeq	r2, r6, r3, lsl #24
    558c:	d3050000 	movwle	r0, #20480	; 0x5000
    5590:	03000010 	movweq	r0, #16
    5594:	00004672 	andeq	r4, r0, r2, ror r6
    5598:	0fa10600 	svceq	0x00a10600
    559c:	65040000 	strvs	r0, [r4, #-0]
    55a0:	00002c01 	andeq	r2, r0, r1, lsl #24
    55a4:	03040700 	movweq	r0, #18176	; 0x4700
    55a8:	0000bca6 	andeq	fp, r0, r6, lsr #25
    55ac:	0f8c0800 	svceq	0x008c0800
    55b0:	a8030000 	stmdage	r3, {}	; <UNPREDICTABLE>
    55b4:	00000091 	muleq	r0, r1, r0
    55b8:	000f3408 	andeq	r3, pc, r8, lsl #8
    55bc:	bca90300 	stclt	3, cr0, [r9]
    55c0:	00000000 	andeq	r0, r0, r0
    55c4:	00005409 	andeq	r5, r0, r9, lsl #8
    55c8:	0000cc00 	andeq	ip, r0, r0, lsl #24
    55cc:	00cc0a00 	sbceq	r0, ip, r0, lsl #20
    55d0:	00030000 	andeq	r0, r3, r0
    55d4:	90070403 	andls	r0, r7, r3, lsl #8
    55d8:	0b000001 	bleq	55e4 <__code_start__-0x2a1c>
    55dc:	f4a30308 	vld4.8	{d0[0],d1[0],d2[0],d3[0]}, [r3], r8
    55e0:	0c000000 	stceq	0, cr0, [r0], {-0}
    55e4:	000010b8 	strheq	r1, [r0], -r8
    55e8:	0025a503 	eoreq	sl, r5, r3, lsl #10
    55ec:	0c000000 	stceq	0, cr0, [r0], {-0}
    55f0:	000010c0 	andeq	r1, r0, r0, asr #1
    55f4:	009daa03 	addseq	sl, sp, r3, lsl #20
    55f8:	00040000 	andeq	r0, r4, r0
    55fc:	00104b05 	andseq	r4, r0, r5, lsl #22
    5600:	d3ab0300 			; <UNDEFINED> instruction: 0xd3ab0300
    5604:	05000000 	streq	r0, [r0, #-0]
    5608:	00000efd 	strdeq	r0, [r0], -sp
    560c:	0070af03 	rsbseq	sl, r0, r3, lsl #30
    5610:	040d0000 	streq	r0, [sp], #-0
    5614:	0112040e 	tsteq	r2, lr, lsl #8
    5618:	01030000 	mrseq	r0, (UNDEF: 3)
    561c:	00001b08 	andeq	r1, r0, r8, lsl #22
    5620:	01120f00 	tsteq	r2, r0, lsl #30
    5624:	75050000 	strvc	r0, [r5, #-0]
    5628:	05000011 	streq	r0, [r0, #-17]
    562c:	00006216 	andeq	r6, r0, r6, lsl r2
    5630:	0f0e1000 	svceq	0x000e1000
    5634:	05180000 	ldreq	r0, [r8, #-0]
    5638:	00017c2d 	andeq	r7, r1, sp, lsr #24
    563c:	106c0c00 	rsbne	r0, ip, r0, lsl #24
    5640:	2f050000 	svccs	0x00050000
    5644:	0000017c 	andeq	r0, r0, ip, ror r1
    5648:	6b5f1100 	blvs	17c9a50 <__bss_end__+0x17bd860>
    564c:	25300500 	ldrcs	r0, [r0, #-1280]!	; 0x500
    5650:	04000000 	streq	r0, [r0], #-0
    5654:	0010a30c 	andseq	sl, r0, ip, lsl #6
    5658:	25300500 	ldrcs	r0, [r0, #-1280]!	; 0x500
    565c:	08000000 	stmdaeq	r0, {}	; <UNPREDICTABLE>
    5660:	000ee90c 	andeq	lr, lr, ip, lsl #18
    5664:	25300500 	ldrcs	r0, [r0, #-1280]!	; 0x500
    5668:	0c000000 	stceq	0, cr0, [r0], {-0}
    566c:	0011bc0c 	andseq	fp, r1, ip, lsl #24
    5670:	25300500 	ldrcs	r0, [r0, #-1280]!	; 0x500
    5674:	10000000 	andne	r0, r0, r0
    5678:	00785f11 	rsbseq	r5, r8, r1, lsl pc
    567c:	01823105 	orreq	r3, r2, r5, lsl #2
    5680:	00140000 	andseq	r0, r4, r0
    5684:	0129040e 	teqeq	r9, lr, lsl #8
    5688:	1e090000 	cdpne	0, 0, cr0, cr9, cr0, {0}
    568c:	92000001 	andls	r0, r0, #1
    5690:	0a000001 	beq	569c <__code_start__-0x2964>
    5694:	000000cc 	andeq	r0, r0, ip, asr #1
    5698:	2f100000 	svccs	0x00100000
    569c:	2400000f 	strcs	r0, [r0], #-15
    56a0:	020b3505 	andeq	r3, fp, #20971520	; 0x1400000
    56a4:	e70c0000 	str	r0, [ip, -r0]
    56a8:	0500000d 	streq	r0, [r0, #-13]
    56ac:	00002537 	andeq	r2, r0, r7, lsr r5
    56b0:	db0c0000 	blle	3056b8 <__bss_end__+0x2f94c8>
    56b4:	05000010 	streq	r0, [r0, #-16]
    56b8:	00002538 	andeq	r2, r0, r8, lsr r5
    56bc:	150c0400 	strne	r0, [ip, #-1024]	; 0x400
    56c0:	0500000e 	streq	r0, [r0, #-14]
    56c4:	00002539 	andeq	r2, r0, r9, lsr r5
    56c8:	a60c0800 	strge	r0, [ip], -r0, lsl #16
    56cc:	05000012 	streq	r0, [r0, #-18]
    56d0:	0000253a 	andeq	r2, r0, sl, lsr r5
    56d4:	db0c0c00 	blle	3086dc <__bss_end__+0x2fc4ec>
    56d8:	0500000f 	streq	r0, [r0, #-15]
    56dc:	0000253b 	andeq	r2, r0, fp, lsr r5
    56e0:	b00c1000 	andlt	r1, ip, r0
    56e4:	0500000f 	streq	r0, [r0, #-15]
    56e8:	0000253c 	andeq	r2, r0, ip, lsr r5
    56ec:	c10c1400 	tstgt	ip, r0, lsl #8
    56f0:	05000011 	streq	r0, [r0, #-17]
    56f4:	0000253d 	andeq	r2, r0, sp, lsr r5
    56f8:	2d0c1800 	stccs	8, cr1, [ip, #-0]
    56fc:	05000010 	streq	r0, [r0, #-16]
    5700:	0000253e 	andeq	r2, r0, lr, lsr r5
    5704:	6d0c1c00 	stcvs	12, cr1, [ip, #-0]
    5708:	05000012 	streq	r0, [r0, #-18]
    570c:	0000253f 	andeq	r2, r0, pc, lsr r5
    5710:	12002000 	andne	r2, r0, #0
    5714:	00000e24 	andeq	r0, r0, r4, lsr #28
    5718:	48050108 	stmdami	r5, {r3, r8}
    571c:	0000024b 	andeq	r0, r0, fp, asr #4
    5720:	000ed00c 	andeq	sp, lr, ip
    5724:	4b490500 	blmi	1246b2c <__bss_end__+0x123a93c>
    5728:	00000002 	andeq	r0, r0, r2
    572c:	000d6c0c 	andeq	r6, sp, ip, lsl #24
    5730:	4b4a0500 	blmi	1286b38 <__bss_end__+0x127a948>
    5734:	80000002 	andhi	r0, r0, r2
    5738:	00116713 	andseq	r6, r1, r3, lsl r7
    573c:	1e4c0500 	cdpne	5, 4, cr0, cr12, cr0, {0}
    5740:	00000001 	andeq	r0, r0, r1
    5744:	0e491301 	cdpeq	3, 4, cr1, cr9, cr1, {0}
    5748:	4f050000 	svcmi	0x00050000
    574c:	0000011e 	andeq	r0, r0, lr, lsl r1
    5750:	09000104 	stmdbeq	r0, {r2, r8}
    5754:	0000010a 	andeq	r0, r0, sl, lsl #2
    5758:	0000025b 	andeq	r0, r0, fp, asr r2
    575c:	0000cc0a 	andeq	ip, r0, sl, lsl #24
    5760:	12001f00 	andne	r1, r0, #0, 30
    5764:	00000fe4 	andeq	r0, r0, r4, ror #31
    5768:	5b050190 	blpl	145db0 <__bss_end__+0x139bc0>
    576c:	00000299 	muleq	r0, r9, r2
    5770:	00106c0c 	andseq	r6, r0, ip, lsl #24
    5774:	995c0500 	ldmdbls	ip, {r8, sl}^
    5778:	00000002 	andeq	r0, r0, r2
    577c:	0010840c 	andseq	r8, r0, ip, lsl #8
    5780:	255d0500 	ldrbcs	r0, [sp, #-1280]	; 0x500
    5784:	04000000 	streq	r0, [r0], #-0
    5788:	000ee40c 	andeq	lr, lr, ip, lsl #8
    578c:	9f5f0500 	svcls	0x005f0500
    5790:	08000002 	stmdaeq	r0, {r1}
    5794:	000e240c 	andeq	r2, lr, ip, lsl #8
    5798:	0b600500 	bleq	1806ba0 <__bss_end__+0x17fa9b0>
    579c:	88000002 	stmdahi	r0, {r1}
    57a0:	5b040e00 	blpl	108fa8 <__bss_end__+0xfcdb8>
    57a4:	09000002 	stmdbeq	r0, {r1}
    57a8:	000002af 	andeq	r0, r0, pc, lsr #5
    57ac:	000002af 	andeq	r0, r0, pc, lsr #5
    57b0:	0000cc0a 	andeq	ip, r0, sl, lsl #24
    57b4:	0e001f00 	cdpeq	15, 0, cr1, cr0, cr0, {0}
    57b8:	0002b504 	andeq	fp, r2, r4, lsl #10
    57bc:	37101400 	ldrcc	r1, [r0, -r0, lsl #8]
    57c0:	08000010 	stmdaeq	r0, {r4}
    57c4:	02db7305 	sbcseq	r7, fp, #335544320	; 0x14000000
    57c8:	0a0c0000 	beq	3057d0 <__bss_end__+0x2f95e0>
    57cc:	0500000e 	streq	r0, [r0, #-14]
    57d0:	0002db74 	andeq	sp, r2, r4, ror fp
    57d4:	780c0000 	stmdavc	ip, {}	; <UNPREDICTABLE>
    57d8:	0500000d 	streq	r0, [r0, #-13]
    57dc:	00002575 	andeq	r2, r0, r5, ror r5
    57e0:	0e000400 	cfcpyseq	mvf0, mvf0
    57e4:	00005404 	andeq	r5, r0, r4, lsl #8
    57e8:	10561000 	subsne	r1, r6, r0
    57ec:	05680000 	strbeq	r0, [r8, #-0]!
    57f0:	00040bb3 			; <UNDEFINED> instruction: 0x00040bb3
    57f4:	705f1100 	subsvc	r1, pc, r0, lsl #2
    57f8:	dbb40500 	blle	fed06c00 <__bss_end__+0xfecfaa10>
    57fc:	00000002 	andeq	r0, r0, r2
    5800:	00725f11 	rsbseq	r5, r2, r1, lsl pc
    5804:	0025b505 	eoreq	fp, r5, r5, lsl #10
    5808:	11040000 	mrsne	r0, (UNDEF: 4)
    580c:	0500775f 	streq	r7, [r0, #-1887]	; 0x75f
    5810:	000025b6 			; <UNDEFINED> instruction: 0x000025b6
    5814:	420c0800 	andmi	r0, ip, #0, 16
    5818:	0500000e 	streq	r0, [r0, #-14]
    581c:	00003fb7 			; <UNDEFINED> instruction: 0x00003fb7
    5820:	550c0c00 	strpl	r0, [ip, #-3072]	; 0xc00
    5824:	0500000f 	streq	r0, [r0, #-15]
    5828:	00003fb8 			; <UNDEFINED> instruction: 0x00003fb8
    582c:	5f110e00 	svcpl	0x00110e00
    5830:	05006662 	streq	r6, [r0, #-1634]	; 0x662
    5834:	0002b6b9 			; <UNDEFINED> instruction: 0x0002b6b9
    5838:	b10c1000 	mrslt	r1, (UNDEF: 12)
    583c:	0500000d 	streq	r0, [r0, #-13]
    5840:	000025ba 			; <UNDEFINED> instruction: 0x000025ba
    5844:	320c1800 	andcc	r1, ip, #0, 16
    5848:	0500000e 	streq	r0, [r0, #-14]
    584c:	00010ac1 	andeq	r0, r1, r1, asr #21
    5850:	cd0c1c00 	stcgt	12, cr1, [ip, #-0]
    5854:	05000012 	streq	r0, [r0, #-18]
    5858:	000566c3 	andeq	r6, r5, r3, asr #13
    585c:	e70c2000 	str	r2, [ip, -r0]
    5860:	05000012 	streq	r0, [r0, #-18]
    5864:	000590c5 	andeq	r9, r5, r5, asr #1
    5868:	c80c2400 	stmdagt	ip, {sl, sp}
    586c:	05000010 	streq	r0, [r0, #-16]
    5870:	0005b4c8 	andeq	fp, r5, r8, asr #9
    5874:	870c2800 	strhi	r2, [ip, -r0, lsl #16]
    5878:	05000012 	streq	r0, [r0, #-18]
    587c:	0005cec9 	andeq	ip, r5, r9, asr #29
    5880:	5f112c00 	svcpl	0x00112c00
    5884:	05006275 	streq	r6, [r0, #-629]	; 0x275
    5888:	0002b6cc 	andeq	fp, r2, ip, asr #13
    588c:	5f113000 	svcpl	0x00113000
    5890:	05007075 	streq	r7, [r0, #-117]	; 0x75
    5894:	0002dbcd 	andeq	sp, r2, sp, asr #23
    5898:	5f113800 	svcpl	0x00113800
    589c:	05007275 	streq	r7, [r0, #-629]	; 0x275
    58a0:	000025ce 	andeq	r2, r0, lr, asr #11
    58a4:	f50c3c00 			; <UNDEFINED> instruction: 0xf50c3c00
    58a8:	0500000d 	streq	r0, [r0, #-13]
    58ac:	0005d4d1 	ldrdeq	sp, [r5], -r1
    58b0:	320c4000 	andcc	r4, ip, #0
    58b4:	05000012 	streq	r0, [r0, #-18]
    58b8:	0005e4d2 	ldrdeq	lr, [r5], -r2
    58bc:	5f114300 	svcpl	0x00114300
    58c0:	0500626c 	streq	r6, [r0, #-620]	; 0x26c
    58c4:	0002b6d5 	ldrdeq	fp, [r2], -r5
    58c8:	580c4400 	stmdapl	ip, {sl, lr}
    58cc:	0500000e 	streq	r0, [r0, #-14]
    58d0:	000025d8 	ldrdeq	r2, [r0], -r8
    58d4:	ba0c4c00 	blt	3188dc <__bss_end__+0x30c6ec>
    58d8:	0500000f 	streq	r0, [r0, #-15]
    58dc:	00007bd9 	ldrdeq	r7, [r0], -r9
    58e0:	1d0c5000 	stcne	0, cr5, [ip, #-0]
    58e4:	05000012 	streq	r0, [r0, #-18]
    58e8:	000429dc 	ldrdeq	r2, [r4], -ip
    58ec:	a70c5400 	strge	r5, [ip, -r0, lsl #8]
    58f0:	05000006 	streq	r0, [r0, #-6]
    58f4:	0000ffe0 	andeq	pc, r0, r0, ror #31
    58f8:	5e0c5800 	cdppl	8, 0, cr5, cr12, cr0, {0}
    58fc:	05000010 	streq	r0, [r0, #-16]
    5900:	0000f4e2 	andeq	pc, r0, r2, ror #9
    5904:	a80c5c00 	stmdage	ip, {sl, fp, ip, lr}
    5908:	0500000f 	streq	r0, [r0, #-15]
    590c:	000025e3 	andeq	r2, r0, r3, ror #11
    5910:	15006400 	strne	r6, [r0, #-1024]	; 0x400
    5914:	00000025 	andeq	r0, r0, r5, lsr #32
    5918:	00000429 	andeq	r0, r0, r9, lsr #8
    591c:	00042916 	andeq	r2, r4, r6, lsl r9
    5920:	010a1600 	tsteq	sl, r0, lsl #12
    5924:	0c160000 	ldceq	0, cr0, [r6], {-0}
    5928:	16000001 	strne	r0, [r0], -r1
    592c:	00000025 	andeq	r0, r0, r5, lsr #32
    5930:	34040e00 	strcc	r0, [r4], #-3584	; 0xe00
    5934:	0f000004 	svceq	0x00000004
    5938:	00000429 	andeq	r0, r0, r9, lsr #8
    593c:	0010ab17 	andseq	sl, r0, r7, lsl fp
    5940:	05042800 	streq	r2, [r4, #-2048]	; 0x800
    5944:	05660238 	strbeq	r0, [r6, #-568]!	; 0x238
    5948:	26180000 	ldrcs	r0, [r8], -r0
    594c:	05000010 	streq	r0, [r0, #-16]
    5950:	0025023a 	eoreq	r0, r5, sl, lsr r2
    5954:	18000000 	stmdane	r0, {}	; <UNPREDICTABLE>
    5958:	00000e51 	andeq	r0, r0, r1, asr lr
    595c:	3b023f05 	blcc	95578 <__bss_end__+0x89388>
    5960:	04000006 	streq	r0, [r0], #-6
    5964:	000f4518 	andeq	r4, pc, r8, lsl r5	; <UNPREDICTABLE>
    5968:	023f0500 	eorseq	r0, pc, #0, 10
    596c:	0000063b 	andeq	r0, r0, fp, lsr r6
    5970:	0f061808 	svceq	0x00061808
    5974:	3f050000 	svccc	0x00050000
    5978:	00063b02 	andeq	r3, r6, r2, lsl #22
    597c:	7f180c00 	svcvc	0x00180c00
    5980:	05000010 	streq	r0, [r0, #-16]
    5984:	00250241 	eoreq	r0, r5, r1, asr #4
    5988:	18100000 	ldmdane	r0, {}	; <UNPREDICTABLE>
    598c:	00000d86 	andeq	r0, r0, r6, lsl #27
    5990:	1d024205 	sfmne	f4, 4, [r2, #-20]	; 0xffffffec
    5994:	14000008 	strne	r0, [r0], #-8
    5998:	00119d18 	andseq	r9, r1, r8, lsl sp
    599c:	02440500 	subeq	r0, r4, #0, 10
    59a0:	00000025 	andeq	r0, r0, r5, lsr #32
    59a4:	10891830 	addne	r1, r9, r0, lsr r8
    59a8:	45050000 	strmi	r0, [r5, #-0]
    59ac:	00058a02 	andeq	r8, r5, r2, lsl #20
    59b0:	ec183400 	cfldrs	mvf3, [r8], {-0}
    59b4:	0500000f 	streq	r0, [r0, #-15]
    59b8:	00250247 	eoreq	r0, r5, r7, asr #4
    59bc:	18380000 	ldmdane	r8!, {}	; <UNPREDICTABLE>
    59c0:	00001099 	muleq	r0, r9, r0
    59c4:	38024905 	stmdacc	r2, {r0, r2, r8, fp, lr}
    59c8:	3c000008 	stccc	0, cr0, [r0], {8}
    59cc:	000f8418 	andeq	r8, pc, r8, lsl r4	; <UNPREDICTABLE>
    59d0:	024c0500 	subeq	r0, ip, #0, 10
    59d4:	0000017c 	andeq	r0, r0, ip, ror r1
    59d8:	0f251840 	svceq	0x00251840
    59dc:	4d050000 	stcmi	0, cr0, [r5, #-0]
    59e0:	00002502 	andeq	r2, r0, r2, lsl #10
    59e4:	a1184400 	tstge	r8, r0, lsl #8
    59e8:	05000012 	streq	r0, [r0, #-18]
    59ec:	017c024e 	cmneq	ip, lr, asr #4
    59f0:	18480000 	stmdane	r8, {}^	; <UNPREDICTABLE>
    59f4:	00001003 	andeq	r1, r0, r3
    59f8:	3e024f05 	cdpcc	15, 0, cr4, cr2, cr5, {0}
    59fc:	4c000008 	stcmi	0, cr0, [r0], {8}
    5a00:	000f4d18 	andeq	r4, pc, r8, lsl sp	; <UNPREDICTABLE>
    5a04:	02520500 	subseq	r0, r2, #0, 10
    5a08:	00000025 	andeq	r0, r0, r5, lsr #32
    5a0c:	0e741850 	mrceq	8, 3, r1, cr4, cr0, {2}
    5a10:	53050000 	movwpl	r0, #20480	; 0x5000
    5a14:	00010c02 	andeq	r0, r1, r2, lsl #24
    5a18:	1f185400 	svcne	0x00185400
    5a1c:	05000010 	streq	r0, [r0, #-16]
    5a20:	07fb0276 			; <UNDEFINED> instruction: 0x07fb0276
    5a24:	19580000 	ldmdbne	r8, {}^	; <UNPREDICTABLE>
    5a28:	00000fe4 	andeq	r0, r0, r4, ror #31
    5a2c:	99027a05 	stmdbls	r2, {r0, r2, r9, fp, ip, sp, lr}
    5a30:	48000002 	stmdami	r0, {r1}
    5a34:	0f621901 	svceq	0x00621901
    5a38:	7b050000 	blvc	145a40 <__bss_end__+0x139850>
    5a3c:	00025b02 	andeq	r5, r2, r2, lsl #22
    5a40:	19014c00 	stmdbne	r1, {sl, fp, lr}
    5a44:	00001203 	andeq	r1, r0, r3, lsl #4
    5a48:	4f027f05 	svcmi	0x00027f05
    5a4c:	dc000008 	stcle	0, cr0, [r0], {8}
    5a50:	0e3a1902 	cdpeq	9, 3, cr1, cr10, cr2, {0}
    5a54:	84050000 	strhi	r0, [r5], #-0
    5a58:	00060002 	andeq	r0, r6, r2
    5a5c:	1902e000 	stmdbne	r2, {sp, lr, pc}
    5a60:	00000e1f 	andeq	r0, r0, pc, lsl lr
    5a64:	5b028505 	blpl	a6e80 <__bss_end__+0x9ac90>
    5a68:	ec000008 	stc	0, cr0, [r0], {8}
    5a6c:	040e0002 	streq	r0, [lr], #-2
    5a70:	0000040b 	andeq	r0, r0, fp, lsl #8
    5a74:	00002515 	andeq	r2, r0, r5, lsl r5
    5a78:	00058a00 	andeq	r8, r5, r0, lsl #20
    5a7c:	04291600 	strteq	r1, [r9], #-1536	; 0x600
    5a80:	0a160000 	beq	585a88 <__bss_end__+0x579898>
    5a84:	16000001 	strne	r0, [r0], -r1
    5a88:	0000058a 	andeq	r0, r0, sl, lsl #11
    5a8c:	00002516 	andeq	r2, r0, r6, lsl r5
    5a90:	040e0000 	streq	r0, [lr], #-0
    5a94:	00000119 	andeq	r0, r0, r9, lsl r1
    5a98:	056c040e 	strbeq	r0, [ip, #-1038]!	; 0x40e
    5a9c:	86150000 	ldrhi	r0, [r5], -r0
    5aa0:	b4000000 	strlt	r0, [r0], #-0
    5aa4:	16000005 	strne	r0, [r0], -r5
    5aa8:	00000429 	andeq	r0, r0, r9, lsr #8
    5aac:	00010a16 	andeq	r0, r1, r6, lsl sl
    5ab0:	00861600 	addeq	r1, r6, r0, lsl #12
    5ab4:	25160000 	ldrcs	r0, [r6, #-0]
    5ab8:	00000000 	andeq	r0, r0, r0
    5abc:	0596040e 	ldreq	r0, [r6, #1038]	; 0x40e
    5ac0:	25150000 	ldrcs	r0, [r5, #-0]
    5ac4:	ce000000 	cdpgt	0, 0, cr0, cr0, cr0, {0}
    5ac8:	16000005 	strne	r0, [r0], -r5
    5acc:	00000429 	andeq	r0, r0, r9, lsr #8
    5ad0:	00010a16 	andeq	r0, r1, r6, lsl sl
    5ad4:	040e0000 	streq	r0, [lr], #-0
    5ad8:	000005ba 			; <UNDEFINED> instruction: 0x000005ba
    5adc:	00005409 	andeq	r5, r0, r9, lsl #8
    5ae0:	0005e400 	andeq	lr, r5, r0, lsl #8
    5ae4:	00cc0a00 	sbceq	r0, ip, r0, lsl #20
    5ae8:	00020000 	andeq	r0, r2, r0
    5aec:	00005409 	andeq	r5, r0, r9, lsl #8
    5af0:	0005f400 	andeq	pc, r5, r0, lsl #8
    5af4:	00cc0a00 	sbceq	r0, ip, r0, lsl #20
    5af8:	00000000 	andeq	r0, r0, r0
    5afc:	00104406 	andseq	r4, r0, r6, lsl #8
    5b00:	011d0500 	tsteq	sp, r0, lsl #10
    5b04:	000002e1 	andeq	r0, r0, r1, ror #5
    5b08:	0011cb1a 	andseq	ip, r1, sl, lsl fp
    5b0c:	21050c00 	tstcs	r5, r0, lsl #24
    5b10:	00063501 	andeq	r3, r6, r1, lsl #10
    5b14:	106c1800 	rsbne	r1, ip, r0, lsl #16
    5b18:	23050000 	movwcs	r0, #20480	; 0x5000
    5b1c:	00063501 	andeq	r3, r6, r1, lsl #10
    5b20:	5b180000 	blpl	605b28 <__bss_end__+0x5f9938>
    5b24:	0500000f 	streq	r0, [r0, #-15]
    5b28:	00250124 	eoreq	r0, r5, r4, lsr #2
    5b2c:	18040000 	stmdane	r4, {}	; <UNPREDICTABLE>
    5b30:	0000103e 	andeq	r1, r0, lr, lsr r0
    5b34:	3b012505 	blcc	4ef50 <__bss_end__+0x42d60>
    5b38:	08000006 	stmdaeq	r0, {r1, r2}
    5b3c:	00040e00 	andeq	r0, r4, r0, lsl #28
    5b40:	0e000006 	cdpeq	0, 0, cr0, cr0, cr6, {0}
    5b44:	0005f404 	andeq	pc, r5, r4, lsl #8
    5b48:	0d7e1a00 	vldmdbeq	lr!, {s3-s2}
    5b4c:	050e0000 	streq	r0, [lr, #-0]
    5b50:	0676013d 			; <UNDEFINED> instruction: 0x0676013d
    5b54:	b2180000 	andslt	r0, r8, #0
    5b58:	05000010 	streq	r0, [r0, #-16]
    5b5c:	0676013e 			; <UNDEFINED> instruction: 0x0676013e
    5b60:	18000000 	stmdane	r0, {}	; <UNPREDICTABLE>
    5b64:	000010ec 	andeq	r1, r0, ip, ror #1
    5b68:	76013f05 	strvc	r3, [r1], -r5, lsl #30
    5b6c:	06000006 	streq	r0, [r0], -r6
    5b70:	00117018 	andseq	r7, r1, r8, lsl r0
    5b74:	01400500 	cmpeq	r0, r0, lsl #10
    5b78:	0000005b 	andeq	r0, r0, fp, asr r0
    5b7c:	5b09000c 	blpl	245bb4 <__bss_end__+0x2399c4>
    5b80:	86000000 	strhi	r0, [r0], -r0
    5b84:	0a000006 	beq	5ba4 <__code_start__-0x245c>
    5b88:	000000cc 	andeq	r0, r0, ip, asr #1
    5b8c:	d01b0002 	andsle	r0, fp, r2
    5b90:	87025705 	strhi	r5, [r2, -r5, lsl #14]
    5b94:	18000007 	stmdane	r0, {r0, r1, r2}
    5b98:	000011af 	andeq	r1, r0, pc, lsr #3
    5b9c:	2c025905 	stccs	9, cr5, [r2], {5}
    5ba0:	00000000 	andeq	r0, r0, r0
    5ba4:	00115a18 	andseq	r5, r1, r8, lsl sl
    5ba8:	025a0500 	subseq	r0, sl, #0, 10
    5bac:	0000010c 	andeq	r0, r0, ip, lsl #2
    5bb0:	0f771804 	svceq	0x00771804
    5bb4:	5b050000 	blpl	145bbc <__bss_end__+0x1399cc>
    5bb8:	00078702 	andeq	r8, r7, r2, lsl #14
    5bbc:	78180800 	ldmdavc	r8, {fp}
    5bc0:	05000012 	streq	r0, [r0, #-18]
    5bc4:	0192025c 	orrseq	r0, r2, ip, asr r2
    5bc8:	18240000 	stmdane	r4!, {}	; <UNPREDICTABLE>
    5bcc:	00000f16 	andeq	r0, r0, r6, lsl pc
    5bd0:	25025d05 	strcs	r5, [r2, #-3333]	; 0xd05
    5bd4:	48000000 	stmdami	r0, {}	; <UNPREDICTABLE>
    5bd8:	00106718 	andseq	r6, r0, r8, lsl r7
    5bdc:	025e0500 	subseq	r0, lr, #0, 10
    5be0:	00000069 	andeq	r0, r0, r9, rrx
    5be4:	128e1850 	addne	r1, lr, #80, 16	; 0x500000
    5be8:	5f050000 	svcpl	0x00050000
    5bec:	00064102 	andeq	r4, r6, r2, lsl #2
    5bf0:	72185800 	andsvc	r5, r8, #0, 16
    5bf4:	05000010 	streq	r0, [r0, #-16]
    5bf8:	00f40260 	rscseq	r0, r4, r0, ror #4
    5bfc:	18680000 	stmdane	r8!, {}^	; <UNPREDICTABLE>
    5c00:	00001293 	muleq	r0, r3, r2
    5c04:	f4026105 	vst4.8	{d6,d8,d10,d12}, [r2], r5
    5c08:	70000000 	andvc	r0, r0, r0
    5c0c:	000dd918 	andeq	sp, sp, r8, lsl r9
    5c10:	02620500 	rsbeq	r0, r2, #0, 10
    5c14:	000000f4 	strdeq	r0, [r0], -r4
    5c18:	11eb1878 	mvnne	r1, r8, ror r8
    5c1c:	63050000 	movwvs	r0, #20480	; 0x5000
    5c20:	00079702 	andeq	r9, r7, r2, lsl #14
    5c24:	6b188000 	blvs	625c2c <__bss_end__+0x619a3c>
    5c28:	0500000f 	streq	r0, [r0, #-15]
    5c2c:	07a70264 	streq	r0, [r7, r4, ror #4]!
    5c30:	18880000 	stmne	r8, {}	; <UNPREDICTABLE>
    5c34:	0000117d 	andeq	r1, r0, sp, ror r1
    5c38:	25026505 	strcs	r6, [r2, #-1285]	; 0x505
    5c3c:	a0000000 	andge	r0, r0, r0
    5c40:	000ec218 	andeq	ip, lr, r8, lsl r2
    5c44:	02660500 	rsbeq	r0, r6, #0, 10
    5c48:	000000f4 	strdeq	r0, [r0], -r4
    5c4c:	0dca18a4 	stcleq	8, cr1, [sl, #656]	; 0x290
    5c50:	67050000 	strvs	r0, [r5, -r0]
    5c54:	0000f402 	andeq	pc, r0, r2, lsl #8
    5c58:	b118ac00 	tstlt	r8, r0, lsl #24
    5c5c:	0500000e 	streq	r0, [r0, #-14]
    5c60:	00f40268 	rscseq	r0, r4, r8, ror #4
    5c64:	18b40000 	ldmne	r4!, {}	; <UNPREDICTABLE>
    5c68:	00000d91 	muleq	r0, r1, sp
    5c6c:	f4026905 	vst2.8	{d6,d8}, [r2], r5
    5c70:	bc000000 	stclt	0, cr0, [r0], {-0}
    5c74:	000da018 	andeq	sl, sp, r8, lsl r0
    5c78:	026a0500 	rsbeq	r0, sl, #0, 10
    5c7c:	000000f4 	strdeq	r0, [r0], -r4
    5c80:	102418c4 	eorne	r1, r4, r4, asr #17
    5c84:	6b050000 	blvs	145c8c <__bss_end__+0x139a9c>
    5c88:	00002502 	andeq	r2, r0, r2, lsl #10
    5c8c:	0900cc00 	stmdbeq	r0, {sl, fp, lr, pc}
    5c90:	00000112 	andeq	r0, r0, r2, lsl r1
    5c94:	00000797 	muleq	r0, r7, r7
    5c98:	0000cc0a 	andeq	ip, r0, sl, lsl #24
    5c9c:	09001900 	stmdbeq	r0, {r8, fp, ip}
    5ca0:	00000112 	andeq	r0, r0, r2, lsl r1
    5ca4:	000007a7 	andeq	r0, r0, r7, lsr #15
    5ca8:	0000cc0a 	andeq	ip, r0, sl, lsl #24
    5cac:	09000700 	stmdbeq	r0, {r8, r9, sl}
    5cb0:	00000112 	andeq	r0, r0, r2, lsl r1
    5cb4:	000007b7 			; <UNDEFINED> instruction: 0x000007b7
    5cb8:	0000cc0a 	andeq	ip, r0, sl, lsl #24
    5cbc:	1b001700 	blne	b8c4 <__FUNCTION__.4628+0x140>
    5cc0:	027005f0 	rsbseq	r0, r0, #240, 10	; 0x3c000000
    5cc4:	000007db 	ldrdeq	r0, [r0], -fp
    5cc8:	000fd418 	andeq	sp, pc, r8, lsl r4	; <UNPREDICTABLE>
    5ccc:	02730500 	rsbseq	r0, r3, #0, 10
    5cd0:	000007db 	ldrdeq	r0, [r0], -fp
    5cd4:	11e21800 	mvnne	r1, r0, lsl #16
    5cd8:	74050000 	strvc	r0, [r5], #-0
    5cdc:	0007eb02 	andeq	lr, r7, r2, lsl #22
    5ce0:	09007800 	stmdbeq	r0, {fp, ip, sp, lr}
    5ce4:	000002db 	ldrdeq	r0, [r0], -fp
    5ce8:	000007eb 	andeq	r0, r0, fp, ror #15
    5cec:	0000cc0a 	andeq	ip, r0, sl, lsl #24
    5cf0:	09001d00 	stmdbeq	r0, {r8, sl, fp, ip}
    5cf4:	0000002c 	andeq	r0, r0, ip, lsr #32
    5cf8:	000007fb 	strdeq	r0, [r0], -fp
    5cfc:	0000cc0a 	andeq	ip, r0, sl, lsl #24
    5d00:	1c001d00 	stcne	13, cr1, [r0], {-0}
    5d04:	025505f0 	subseq	r0, r5, #240, 10	; 0x3c000000
    5d08:	0000081d 	andeq	r0, r0, sp, lsl r8
    5d0c:	0010ab1d 	andseq	sl, r0, sp, lsl fp
    5d10:	026c0500 	rsbeq	r0, ip, #0, 10
    5d14:	00000686 	andeq	r0, r0, r6, lsl #13
    5d18:	0012381d 	andseq	r3, r2, sp, lsl r8
    5d1c:	02750500 	rsbseq	r0, r5, #0, 10
    5d20:	000007b7 			; <UNDEFINED> instruction: 0x000007b7
    5d24:	01120900 	tsteq	r2, r0, lsl #18
    5d28:	082d0000 	stmdaeq	sp!, {}	; <UNPREDICTABLE>
    5d2c:	cc0a0000 	stcgt	0, cr0, [sl], {-0}
    5d30:	18000000 	stmdane	r0, {}	; <UNPREDICTABLE>
    5d34:	08381e00 	ldmdaeq	r8!, {r9, sl, fp, ip}
    5d38:	29160000 	ldmdbcs	r6, {}	; <UNPREDICTABLE>
    5d3c:	00000004 	andeq	r0, r0, r4
    5d40:	082d040e 	stmdaeq	sp!, {r1, r2, r3, sl}
    5d44:	040e0000 	streq	r0, [lr], #-0
    5d48:	0000017c 	andeq	r0, r0, ip, ror r1
    5d4c:	00084f1e 	andeq	r4, r8, lr, lsl pc
    5d50:	00251600 	eoreq	r1, r5, r0, lsl #12
    5d54:	0e000000 	cdpeq	0, 0, cr0, cr0, cr0, {0}
    5d58:	00085504 	andeq	r5, r8, r4, lsl #10
    5d5c:	44040e00 	strmi	r0, [r4], #-3584	; 0xe00
    5d60:	09000008 	stmdbeq	r0, {r3}
    5d64:	000005f4 	strdeq	r0, [r0], -r4
    5d68:	0000086b 	andeq	r0, r0, fp, ror #16
    5d6c:	0000cc0a 	andeq	ip, r0, sl, lsl #24
    5d70:	1f000200 	svcne	0x00000200
    5d74:	00001191 	muleq	r0, r1, r1
    5d78:	2902fd05 	stmdbcs	r2, {r0, r2, r8, sl, fp, ip, sp, lr, pc}
    5d7c:	1f000004 	svcne	0x00000004
    5d80:	0000118a 	andeq	r1, r0, sl, lsl #3
    5d84:	2f02fe05 	svccs	0x0002fe05
    5d88:	15000004 	strne	r0, [r0, #-4]
    5d8c:	00000025 	andeq	r0, r0, r5, lsr #32
    5d90:	00000892 	muleq	r0, r2, r8
    5d94:	00002516 	andeq	r2, r0, r6, lsl r5
    5d98:	7b200000 	blvc	805da0 <__bss_end__+0x7f9bb0>
    5d9c:	06000009 	streq	r0, [r0], -r9
    5da0:	00089d1d 	andeq	r9, r8, sp, lsl sp
    5da4:	83040e00 	movwhi	r0, #19968	; 0x4e00
    5da8:	15000008 	strne	r0, [r0, #-8]
    5dac:	00000025 	andeq	r0, r0, r5, lsr #32
    5db0:	000008b2 			; <UNDEFINED> instruction: 0x000008b2
    5db4:	00058a16 	andeq	r8, r5, r6, lsl sl
    5db8:	b8200000 	stmdalt	r0!, {}	; <UNPREDICTABLE>
    5dbc:	06000009 	streq	r0, [r0], -r9
    5dc0:	0008bd22 	andeq	fp, r8, r2, lsr #26
    5dc4:	a3040e00 	movwge	r0, #19968	; 0x4e00
    5dc8:	21000008 	tstcs	r0, r8
    5dcc:	00005401 	andeq	r5, r0, r1, lsl #8
    5dd0:	000c0800 	andeq	r0, ip, r0, lsl #16
    5dd4:	22000009 	andcs	r0, r0, #9
    5dd8:	00000dba 			; <UNDEFINED> instruction: 0x00000dba
    5ddc:	11d12200 	bicsne	r2, r1, r0, lsl #4
    5de0:	22010000 	andcs	r0, r1, #0
    5de4:	00001223 	andeq	r1, r0, r3, lsr #4
    5de8:	0dfb2204 	lfmeq	f2, 2, [fp, #16]!
    5dec:	22050000 	andcs	r0, r5, #0
    5df0:	00000f92 	muleq	r0, r2, pc	; <UNPREDICTABLE>
    5df4:	12402206 	subne	r2, r0, #1610612736	; 0x60000000
    5df8:	22070000 	andcs	r0, r7, #0
    5dfc:	0000124f 	andeq	r1, r0, pc, asr #4
    5e00:	125e2203 	subsne	r2, lr, #805306368	; 0x30000000
    5e04:	00020000 	andeq	r0, r2, r0
    5e08:	000e6810 	andeq	r6, lr, r0, lsl r8
    5e0c:	06072c00 	streq	r2, [r7], -r0, lsl #24
    5e10:	00000990 	muleq	r0, r0, r9
    5e14:	006f6911 	rsbeq	r6, pc, r1, lsl r9	; <UNPREDICTABLE>
    5e18:	00330907 	eorseq	r0, r3, r7, lsl #18
    5e1c:	11000000 	mrsne	r0, (UNDEF: 0)
    5e20:	00726569 	rsbseq	r6, r2, r9, ror #10
    5e24:	00330a07 	eorseq	r0, r3, r7, lsl #20
    5e28:	11040000 	mrsne	r0, (UNDEF: 4)
    5e2c:	00726969 	rsbseq	r6, r2, r9, ror #18
    5e30:	00331107 	eorseq	r1, r3, r7, lsl #2
    5e34:	11080000 	mrsne	r0, (UNDEF: 8)
    5e38:	0072636c 	rsbseq	r6, r2, ip, ror #6
    5e3c:	00331307 	eorseq	r1, r3, r7, lsl #6
    5e40:	110c0000 	mrsne	r0, (UNDEF: 12)
    5e44:	0072636d 	rsbseq	r6, r2, sp, ror #6
    5e48:	00331407 	eorseq	r1, r3, r7, lsl #8
    5e4c:	11100000 	tstne	r0, r0
    5e50:	0072736c 	rsbseq	r7, r2, ip, ror #6
    5e54:	00331507 	eorseq	r1, r3, r7, lsl #10
    5e58:	11140000 	tstne	r4, r0
    5e5c:	0072736d 	rsbseq	r7, r2, sp, ror #6
    5e60:	00331607 	eorseq	r1, r3, r7, lsl #12
    5e64:	0c180000 	ldceq	0, cr0, [r8], {-0}
    5e68:	000010e4 	andeq	r1, r0, r4, ror #1
    5e6c:	00331707 	eorseq	r1, r3, r7, lsl #14
    5e70:	0c1c0000 	ldceq	0, cr0, [ip], {-0}
    5e74:	00000e10 	andeq	r0, r0, r0, lsl lr
    5e78:	00331b07 	eorseq	r1, r3, r7, lsl #22
    5e7c:	0c200000 	stceq	0, cr0, [r0], #-0
    5e80:	00000df0 	strdeq	r0, [r0], -r0	; <UNPREDICTABLE>
    5e84:	00331d07 	eorseq	r1, r3, r7, lsl #26
    5e88:	0c240000 	stceq	0, cr0, [r4], #-0
    5e8c:	000010ce 	andeq	r1, r0, lr, asr #1
    5e90:	00331e07 	eorseq	r1, r3, r7, lsl #28
    5e94:	00280000 	eoreq	r0, r8, r0
    5e98:	000ed823 	andeq	sp, lr, r3, lsr #16
    5e9c:	a5070100 	strge	r0, [r7, #-256]	; 0x100
    5ea0:	04000009 	streq	r0, [r0], #-9
    5ea4:	0e202150 	mcreq	1, 1, r2, cr0, cr0, {2}
    5ea8:	00003304 	andeq	r3, r0, r4, lsl #6
    5eac:	099f0f00 	ldmibeq	pc, {r8, r9, sl, fp}	; <UNPREDICTABLE>
    5eb0:	fe230000 	cdp2	0, 2, cr0, cr3, cr0, {0}
    5eb4:	0100000f 	tsteq	r0, pc
    5eb8:	0009bf28 	andeq	fp, r9, r8, lsr #30
    5ebc:	21504000 	cmpcs	r0, r0
    5ec0:	00040e20 	andeq	r0, r4, r0, lsr #28
    5ec4:	0f000009 	svceq	0x00000009
    5ec8:	000009b9 			; <UNDEFINED> instruction: 0x000009b9
    5ecc:	00121524 	andseq	r1, r2, r4, lsr #10
    5ed0:	25a70100 	strcs	r0, [r7, #256]!	; 0x100
    5ed4:	10000000 	andne	r0, r0, r0
    5ed8:	100000ab 	andne	r0, r0, fp, lsr #1
    5edc:	01000000 	mrseq	r0, (UNDEF: 0)
    5ee0:	0009f09c 	muleq	r9, ip, r0
    5ee4:	ab182500 	blge	60f2ec <__bss_end__+0x6030fc>
    5ee8:	0c9c0000 	ldceq	0, cr0, [ip], {0}
    5eec:	1c250000 	stcne	0, cr0, [r5], #-0
    5ef0:	d20000ab 	andle	r0, r0, #171	; 0xab
    5ef4:	0000000a 	andeq	r0, r0, sl
    5ef8:	00096026 	andeq	r6, r9, r6, lsr #32
    5efc:	e09f0100 	adds	r0, pc, r0, lsl #2
    5f00:	300000aa 	andcc	r0, r0, sl, lsr #1
    5f04:	01000000 	mrseq	r0, (UNDEF: 0)
    5f08:	000a4e9c 	muleq	sl, ip, lr
    5f0c:	00632700 	rsbeq	r2, r3, r0, lsl #14
    5f10:	002c9f01 	eoreq	r9, ip, r1, lsl #30
    5f14:	1c880000 	stcne	0, cr0, [r8], {0}
    5f18:	ec250000 	stc	0, cr0, [r5], #-0
    5f1c:	9c0000aa 	stcls	0, cr0, [r0], {170}	; 0xaa
    5f20:	2500000c 	strcs	r0, [r0, #-12]
    5f24:	0000aaf0 	strdeq	sl, [r0], -r0
    5f28:	00000aa5 	andeq	r0, r0, r5, lsr #21
    5f2c:	00ab0428 	adceq	r0, fp, r8, lsr #8
    5f30:	000ca700 	andeq	sl, ip, r0, lsl #14
    5f34:	000a4400 	andeq	r4, sl, r0, lsl #8
    5f38:	50012900 	andpl	r2, r1, r0, lsl #18
    5f3c:	50400c05 	subpl	r0, r0, r5, lsl #24
    5f40:	01292021 	teqeq	r9, r1, lsr #32
    5f44:	00740551 	rsbseq	r0, r4, r1, asr r5
    5f48:	001aff08 	andseq	pc, sl, r8, lsl #30
    5f4c:	00ab0825 	adceq	r0, fp, r5, lsr #16
    5f50:	000c9c00 	andeq	r9, ip, r0, lsl #24
    5f54:	3b240000 	blcc	905f5c <__bss_end__+0x8f9d6c>
    5f58:	0100000f 	tsteq	r0, pc
    5f5c:	00002597 	muleq	r0, r7, r5
    5f60:	00aab000 	adceq	fp, sl, r0
    5f64:	00003000 	andeq	r3, r0, r0
    5f68:	a59c0100 	ldrge	r0, [ip, #256]	; 0x100
    5f6c:	2a00000a 	bcs	5f9c <__code_start__-0x2064>
    5f70:	9b010063 	blls	46104 <__bss_end__+0x39f14>
    5f74:	00000025 	andeq	r0, r0, r5, lsr #32
    5f78:	b8255401 	stmdalt	r5!, {r0, sl, ip, lr}
    5f7c:	9c0000aa 	stcls	0, cr0, [r0], {170}	; 0xaa
    5f80:	2500000c 	strcs	r0, [r0, #-12]
    5f84:	0000aabc 			; <UNDEFINED> instruction: 0x0000aabc
    5f88:	00000ad2 	ldrdeq	r0, [r0], -r2
    5f8c:	00aacc28 	adceq	ip, sl, r8, lsr #24
    5f90:	000cb200 	andeq	fp, ip, r0, lsl #4
    5f94:	000a9b00 	andeq	r9, sl, r0, lsl #22
    5f98:	50012900 	andpl	r2, r1, r0, lsl #18
    5f9c:	50400c05 	subpl	r0, r0, r5, lsl #24
    5fa0:	25002021 	strcs	r2, [r0, #-33]	; 0x21
    5fa4:	0000aad4 	ldrdeq	sl, [r0], -r4
    5fa8:	00000c9c 	muleq	r0, ip, ip
    5fac:	0eef2400 	cdpeq	4, 14, cr2, cr15, cr0, {0}
    5fb0:	88010000 	stmdahi	r1, {}	; <UNPREDICTABLE>
    5fb4:	00000025 	andeq	r0, r0, r5, lsr #32
    5fb8:	0000aa90 	muleq	r0, r0, sl
    5fbc:	00000020 	andeq	r0, r0, r0, lsr #32
    5fc0:	0ad29c01 	beq	ff4acfcc <__bss_end__+0xff4a0ddc>
    5fc4:	9c2b0000 	stcls	0, cr0, [fp], #-0
    5fc8:	b20000aa 	andlt	r0, r0, #170	; 0xaa
    5fcc:	2900000c 	stmdbcs	r0, {r2, r3}
    5fd0:	0c055001 	stceq	0, cr5, [r5], {1}
    5fd4:	20215064 	eorcs	r5, r1, r4, rrx
    5fd8:	f5240000 			; <UNDEFINED> instruction: 0xf5240000
    5fdc:	01000011 	tsteq	r0, r1, lsl r0
    5fe0:	0000257f 	andeq	r2, r0, pc, ror r5
    5fe4:	00aa7800 	adceq	r7, sl, r0, lsl #16
    5fe8:	00001800 	andeq	r1, r0, r0, lsl #16
    5fec:	ff9c0100 			; <UNDEFINED> instruction: 0xff9c0100
    5ff0:	2b00000a 	blcs	6020 <__code_start__-0x1fe0>
    5ff4:	0000aa84 	andeq	sl, r0, r4, lsl #21
    5ff8:	00000cb2 			; <UNDEFINED> instruction: 0x00000cb2
    5ffc:	05500129 	ldrbeq	r0, [r0, #-297]	; 0x129
    6000:	2150640c 	cmpcs	r0, ip, lsl #8
    6004:	26000020 	strcs	r0, [r0], -r0, lsr #32
    6008:	00000008 	andeq	r0, r0, r8
    600c:	a9c83a01 	stmibge	r8, {r0, r9, fp, ip, sp}^
    6010:	00b00000 	adcseq	r0, r0, r0
    6014:	9c010000 	stcls	0, cr0, [r1], {-0}
    6018:	00000c3d 	andeq	r0, r0, sp, lsr ip
    601c:	00a9d828 	adceq	sp, r9, r8, lsr #16
    6020:	000cbd00 	andeq	fp, ip, r0, lsl #26
    6024:	000b2c00 	andeq	r2, fp, r0, lsl #24
    6028:	50012900 	andpl	r2, r1, r0, lsl #18
    602c:	01293e01 	teqeq	r9, r1, lsl #28
    6030:	00320151 	eorseq	r0, r2, r1, asr r1
    6034:	00a9e428 	adceq	lr, r9, r8, lsr #8
    6038:	000cbd00 	andeq	fp, ip, r0, lsl #26
    603c:	000b4400 	andeq	r4, fp, r0, lsl #8
    6040:	50012900 	andpl	r2, r1, r0, lsl #18
    6044:	01293f01 	teqeq	r9, r1, lsl #30
    6048:	00320151 	eorseq	r0, r2, r1, asr r1
    604c:	00a9e825 	adceq	lr, r9, r5, lsr #16
    6050:	000c9c00 	andeq	r9, ip, r0, lsl #24
    6054:	a9f42800 	ldmibge	r4!, {fp, sp}^
    6058:	0c3d0000 	ldceq	0, cr0, [sp], #-0
    605c:	0b690000 	bleq	1a46064 <__bss_end__+0x1a39e74>
    6060:	01290000 	teqeq	r9, r0
    6064:	040c0550 	streq	r0, [ip], #-1360	; 0x550
    6068:	29202150 	stmdbcs	r0!, {r4, r6, r8, sp}
    606c:	31015101 	tstcc	r1, r1, lsl #2
    6070:	a9f82500 	ldmibge	r8!, {r8, sl, sp}^
    6074:	0c9c0000 	ldceq	0, cr0, [ip], {0}
    6078:	08280000 	stmdaeq	r8!, {}	; <UNPREDICTABLE>
    607c:	a70000aa 	strge	r0, [r0, -sl, lsr #1]
    6080:	8b00000c 	blhi	60b8 <__code_start__-0x1f48>
    6084:	2900000b 	stmdbcs	r0, {r0, r1, r3}
    6088:	74025001 	strvc	r5, [r2], #-1
    608c:	51012900 	tstpl	r1, r0, lsl #18
    6090:	28003001 	stmdacs	r0, {r0, ip, sp}
    6094:	0000aa14 	andeq	sl, r0, r4, lsl sl
    6098:	00000ca7 	andeq	r0, r0, r7, lsr #25
    609c:	00000ba7 	andeq	r0, r0, r7, lsr #23
    60a0:	05500129 	ldrbeq	r0, [r0, #-297]	; 0x129
    60a4:	2150440c 	cmpcs	r0, ip, lsl #8
    60a8:	51012920 	tstpl	r1, r0, lsr #18
    60ac:	28003001 	stmdacs	r0, {r0, ip, sp}
    60b0:	0000aa20 	andeq	sl, r0, r0, lsr #20
    60b4:	00000ca7 	andeq	r0, r0, r7, lsr #25
    60b8:	00000bc3 	andeq	r0, r0, r3, asr #23
    60bc:	05500129 	ldrbeq	r0, [r0, #-297]	; 0x129
    60c0:	21504c0c 	cmpcs	r0, ip, lsl #24
    60c4:	51012920 	tstpl	r1, r0, lsr #18
    60c8:	28003301 	stmdacs	r0, {r0, r8, r9, ip, sp}
    60cc:	0000aa2c 	andeq	sl, r0, ip, lsr #20
    60d0:	00000ca7 	andeq	r0, r0, r7, lsr #25
    60d4:	00000bdf 	ldrdeq	r0, [r0], -pc	; <UNPREDICTABLE>
    60d8:	05500129 	ldrbeq	r0, [r0, #-297]	; 0x129
    60dc:	2150500c 	cmpcs	r0, ip
    60e0:	51012920 	tstpl	r1, r0, lsr #18
    60e4:	28003001 	stmdacs	r0, {r0, ip, sp}
    60e8:	0000aa38 	andeq	sl, r0, r8, lsr sl
    60ec:	00000ca7 	andeq	r0, r0, r7, lsr #25
    60f0:	00000bfc 	strdeq	r0, [r0], -ip
    60f4:	05500129 	ldrbeq	r0, [r0, #-297]	; 0x129
    60f8:	2150480c 	cmpcs	r0, ip, lsl #16
    60fc:	51012920 	tstpl	r1, r0, lsr #18
    6100:	00c70802 	sbceq	r0, r7, r2, lsl #16
    6104:	00aa4428 	adceq	r4, sl, r8, lsr #8
    6108:	000ca700 	andeq	sl, ip, r0, lsl #14
    610c:	000c1a00 	andeq	r1, ip, r0, lsl #20
    6110:	50012900 	andpl	r2, r1, r0, lsl #18
    6114:	50680c05 	rsbpl	r0, r8, r5, lsl #24
    6118:	01292021 	teqeq	r9, r1, lsr #32
    611c:	0e0a0351 	mcreq	3, 0, r0, cr10, cr1, {2}
    6120:	50280001 	eorpl	r0, r8, r1
    6124:	a70000aa 	strge	r0, [r0, -sl, lsr #1]
    6128:	3300000c 	movwcc	r0, #12
    612c:	2900000c 	stmdbcs	r0, {r2, r3}
    6130:	74025001 	strvc	r5, [r2], #-1
    6134:	51012900 	tstpl	r1, r0, lsl #18
    6138:	25003301 	strcs	r3, [r0, #-769]	; 0x301
    613c:	0000aa54 	andeq	sl, r0, r4, asr sl
    6140:	00000c9c 	muleq	r0, ip, ip
    6144:	120d2c00 	andne	r2, sp, #0, 24
    6148:	2d010000 	stccs	0, cr0, [r1, #-0]
    614c:	0000a9a8 	andeq	sl, r0, r8, lsr #19
    6150:	00000020 	andeq	r0, r0, r0, lsr #32
    6154:	0c959c01 	ldceq	12, cr9, [r5], {1}
    6158:	a52d0000 	strge	r0, [sp, #-0]!
    615c:	01000002 	tsteq	r0, r2
    6160:	000c952d 	andeq	r9, ip, sp, lsr #10
    6164:	001ca600 	andseq	sl, ip, r0, lsl #12
    6168:	61762700 	cmnvs	r6, r0, lsl #14
    616c:	2d01006c 	stccs	0, cr0, [r1, #-432]	; 0xfffffe50
    6170:	0000002c 	andeq	r0, r0, ip, lsr #32
    6174:	00001cc4 	andeq	r1, r0, r4, asr #25
    6178:	00a9b828 	adceq	fp, r9, r8, lsr #16
    617c:	000cb200 	andeq	fp, ip, r0, lsl #4
    6180:	000c8400 	andeq	r8, ip, r0, lsl #8
    6184:	50012900 	andpl	r2, r1, r0, lsl #18
    6188:	00007402 	andeq	r7, r0, r2, lsl #8
    618c:	00a9c42b 	adceq	ip, r9, fp, lsr #8
    6190:	000ca700 	andeq	sl, ip, r0, lsl #14
    6194:	50012900 	andpl	r2, r1, r0, lsl #18
    6198:	00007402 	andeq	r7, r0, r2, lsl #8
    619c:	9b040e00 	blls	1099a4 <__bss_end__+0xfd7b4>
    61a0:	2e00000c 	cdpcs	0, 0, cr0, cr0, cr12, {0}
    61a4:	000c422f 	andeq	r4, ip, pc, lsr #4
    61a8:	000c4200 	andeq	r4, ip, r0, lsl #4
    61ac:	2f890600 	svccs	0x00890600
    61b0:	000010f2 	strdeq	r1, [r0], -r2
    61b4:	000010f2 	strdeq	r1, [r0], -r2
    61b8:	d12f9c06 	teqle	pc, r6, lsl #24
    61bc:	d1000001 	tstle	r0, r1
    61c0:	06000001 	streq	r0, [r0], -r1
    61c4:	0fc22fa8 	svceq	0x00c22fa8
    61c8:	0fc20000 	svceq	0x00c20000
    61cc:	19080000 	stmdbne	r8, {}	; <UNPREDICTABLE>
    61d0:	000b7000 	andeq	r7, fp, r0
    61d4:	c4000400 	strgt	r0, [r0], #-1024	; 0x400
    61d8:	04000018 	streq	r0, [r0], #-24
    61dc:	0010f801 	andseq	pc, r0, r1, lsl #16
    61e0:	12c20c00 	sbcne	r0, r2, #0, 24
    61e4:	0e7c0000 	cdpeq	0, 7, cr0, cr12, cr0, {0}
    61e8:	ab200000 	blge	8061f0 <__bss_end__+0x7fa000>
    61ec:	01200000 	teqeq	r0, r0
    61f0:	164a0000 	strbne	r0, [sl], -r0
    61f4:	04020000 	streq	r0, [r2], #-0
    61f8:	746e6905 	strbtvc	r6, [lr], #-2309	; 0x905
    61fc:	07040300 	streq	r0, [r4, -r0, lsl #6]
    6200:	00000183 	andeq	r0, r0, r3, lsl #3
    6204:	00002c04 	andeq	r2, r0, r4, lsl #24
    6208:	06010300 	streq	r0, [r1], -r0, lsl #6
    620c:	00000014 	andeq	r0, r0, r4, lsl r0
    6210:	b8050203 	stmdalt	r5, {r0, r1, r9}
    6214:	03000001 	movweq	r0, #1
    6218:	019e0504 	orrseq	r0, lr, r4, lsl #10
    621c:	08030000 	stmdaeq	r3, {}	; <UNPREDICTABLE>
    6220:	00019905 	andeq	r9, r1, r5, lsl #18
    6224:	08010300 	stmdaeq	r1, {r8, r9}
    6228:	00000012 	andeq	r0, r0, r2, lsl r0
    622c:	2d070203 	sfmcs	f0, 4, [r7, #-12]
    6230:	03000000 	movweq	r0, #0
    6234:	017e0704 	cmneq	lr, r4, lsl #14
    6238:	08030000 	stmdaeq	r3, {}	; <UNPREDICTABLE>
    623c:	00017907 	andeq	r7, r1, r7, lsl #18
    6240:	100d0500 	andne	r0, sp, r0, lsl #10
    6244:	07020000 	streq	r0, [r2, -r0]
    6248:	00000025 	andeq	r0, r0, r5, lsr #32
    624c:	000ff705 	andeq	pc, pc, r5, lsl #14
    6250:	462c0300 	strtmi	r0, [ip], -r0, lsl #6
    6254:	05000000 	streq	r0, [r0, #-0]
    6258:	000010d3 	ldrdeq	r1, [r0], -r3
    625c:	00467203 	subeq	r7, r6, r3, lsl #4
    6260:	a1060000 	mrsge	r0, (UNDEF: 6)
    6264:	0400000f 	streq	r0, [r0], #-15
    6268:	002c0165 	eoreq	r0, ip, r5, ror #2
    626c:	04070000 	streq	r0, [r7], #-0
    6270:	00bca603 	adcseq	sl, ip, r3, lsl #12
    6274:	8c080000 	stchi	0, cr0, [r8], {-0}
    6278:	0300000f 	movweq	r0, #15
    627c:	000091a8 	andeq	r9, r0, r8, lsr #3
    6280:	0f340800 	svceq	0x00340800
    6284:	a9030000 	stmdbge	r3, {}	; <UNPREDICTABLE>
    6288:	000000bc 	strheq	r0, [r0], -ip
    628c:	00540900 	subseq	r0, r4, r0, lsl #18
    6290:	00cc0000 	sbceq	r0, ip, r0
    6294:	cc0a0000 	stcgt	0, cr0, [sl], {-0}
    6298:	03000000 	movweq	r0, #0
    629c:	07040300 	streq	r0, [r4, -r0, lsl #6]
    62a0:	00000190 	muleq	r0, r0, r1
    62a4:	a303080b 	movwge	r0, #14347	; 0x380b
    62a8:	000000f4 	strdeq	r0, [r0], -r4
    62ac:	0010b80c 	andseq	fp, r0, ip, lsl #16
    62b0:	25a50300 	strcs	r0, [r5, #768]!	; 0x300
    62b4:	00000000 	andeq	r0, r0, r0
    62b8:	0010c00c 	andseq	ip, r0, ip
    62bc:	9daa0300 	stcls	3, cr0, [sl]
    62c0:	04000000 	streq	r0, [r0], #-0
    62c4:	104b0500 	subne	r0, fp, r0, lsl #10
    62c8:	ab030000 	blge	c62d0 <__bss_end__+0xba0e0>
    62cc:	000000d3 	ldrdeq	r0, [r0], -r3
    62d0:	000efd05 	andeq	pc, lr, r5, lsl #26
    62d4:	70af0300 	adcvc	r0, pc, r0, lsl #6
    62d8:	0d000000 	stceq	0, cr0, [r0, #-0]
    62dc:	12040e04 	andne	r0, r4, #4, 28	; 0x40
    62e0:	03000001 	movweq	r0, #1
    62e4:	001b0801 	andseq	r0, fp, r1, lsl #16
    62e8:	12040000 	andne	r0, r4, #0
    62ec:	05000001 	streq	r0, [r0, #-1]
    62f0:	00001175 	andeq	r1, r0, r5, ror r1
    62f4:	00621605 	rsbeq	r1, r2, r5, lsl #12
    62f8:	0e0f0000 	cdpeq	0, 0, cr0, cr15, cr0, {0}
    62fc:	1800000f 	stmdane	r0, {r0, r1, r2, r3}
    6300:	017c2d05 	cmneq	ip, r5, lsl #26
    6304:	6c0c0000 	stcvs	0, cr0, [ip], {-0}
    6308:	05000010 	streq	r0, [r0, #-16]
    630c:	00017c2f 	andeq	r7, r1, pc, lsr #24
    6310:	5f100000 	svcpl	0x00100000
    6314:	3005006b 	andcc	r0, r5, fp, rrx
    6318:	00000025 	andeq	r0, r0, r5, lsr #32
    631c:	10a30c04 	adcne	r0, r3, r4, lsl #24
    6320:	30050000 	andcc	r0, r5, r0
    6324:	00000025 	andeq	r0, r0, r5, lsr #32
    6328:	0ee90c08 	cdpeq	12, 14, cr0, cr9, cr8, {0}
    632c:	30050000 	andcc	r0, r5, r0
    6330:	00000025 	andeq	r0, r0, r5, lsr #32
    6334:	11bc0c0c 			; <UNDEFINED> instruction: 0x11bc0c0c
    6338:	30050000 	andcc	r0, r5, r0
    633c:	00000025 	andeq	r0, r0, r5, lsr #32
    6340:	785f1010 	ldmdavc	pc, {r4, ip}^	; <UNPREDICTABLE>
    6344:	82310500 	eorshi	r0, r1, #0, 10
    6348:	14000001 	strne	r0, [r0], #-1
    634c:	29040e00 	stmdbcs	r4, {r9, sl, fp}
    6350:	09000001 	stmdbeq	r0, {r0}
    6354:	0000011e 	andeq	r0, r0, lr, lsl r1
    6358:	00000192 	muleq	r0, r2, r1
    635c:	0000cc0a 	andeq	ip, r0, sl, lsl #24
    6360:	0f000000 	svceq	0x00000000
    6364:	00000f2f 	andeq	r0, r0, pc, lsr #30
    6368:	0b350524 	bleq	d47800 <__bss_end__+0xd3b610>
    636c:	0c000002 	stceq	0, cr0, [r0], {2}
    6370:	00000de7 	andeq	r0, r0, r7, ror #27
    6374:	00253705 	eoreq	r3, r5, r5, lsl #14
    6378:	0c000000 	stceq	0, cr0, [r0], {-0}
    637c:	000010db 	ldrdeq	r1, [r0], -fp
    6380:	00253805 	eoreq	r3, r5, r5, lsl #16
    6384:	0c040000 	stceq	0, cr0, [r4], {-0}
    6388:	00000e15 	andeq	r0, r0, r5, lsl lr
    638c:	00253905 	eoreq	r3, r5, r5, lsl #18
    6390:	0c080000 	stceq	0, cr0, [r8], {-0}
    6394:	000012a6 	andeq	r1, r0, r6, lsr #5
    6398:	00253a05 	eoreq	r3, r5, r5, lsl #20
    639c:	0c0c0000 	stceq	0, cr0, [ip], {-0}
    63a0:	00000fdb 	ldrdeq	r0, [r0], -fp
    63a4:	00253b05 	eoreq	r3, r5, r5, lsl #22
    63a8:	0c100000 	ldceq	0, cr0, [r0], {-0}
    63ac:	00000fb0 			; <UNDEFINED> instruction: 0x00000fb0
    63b0:	00253c05 	eoreq	r3, r5, r5, lsl #24
    63b4:	0c140000 	ldceq	0, cr0, [r4], {-0}
    63b8:	000011c1 	andeq	r1, r0, r1, asr #3
    63bc:	00253d05 	eoreq	r3, r5, r5, lsl #26
    63c0:	0c180000 	ldceq	0, cr0, [r8], {-0}
    63c4:	0000102d 	andeq	r1, r0, sp, lsr #32
    63c8:	00253e05 	eoreq	r3, r5, r5, lsl #28
    63cc:	0c1c0000 	ldceq	0, cr0, [ip], {-0}
    63d0:	0000126d 	andeq	r1, r0, sp, ror #4
    63d4:	00253f05 	eoreq	r3, r5, r5, lsl #30
    63d8:	00200000 	eoreq	r0, r0, r0
    63dc:	000e2411 	andeq	r2, lr, r1, lsl r4
    63e0:	05010800 	streq	r0, [r1, #-2048]	; 0x800
    63e4:	00024b48 	andeq	r4, r2, r8, asr #22
    63e8:	0ed00c00 	cdpeq	12, 13, cr0, cr0, cr0, {0}
    63ec:	49050000 	stmdbmi	r5, {}	; <UNPREDICTABLE>
    63f0:	0000024b 	andeq	r0, r0, fp, asr #4
    63f4:	0d6c0c00 	stcleq	12, cr0, [ip, #-0]
    63f8:	4a050000 	bmi	146400 <__bss_end__+0x13a210>
    63fc:	0000024b 	andeq	r0, r0, fp, asr #4
    6400:	11671280 	cmnne	r7, r0, lsl #5
    6404:	4c050000 	stcmi	0, cr0, [r5], {-0}
    6408:	0000011e 	andeq	r0, r0, lr, lsl r1
    640c:	49120100 	ldmdbmi	r2, {r8}
    6410:	0500000e 	streq	r0, [r0, #-14]
    6414:	00011e4f 	andeq	r1, r1, pc, asr #28
    6418:	00010400 	andeq	r0, r1, r0, lsl #8
    641c:	00010a09 	andeq	r0, r1, r9, lsl #20
    6420:	00025b00 	andeq	r5, r2, r0, lsl #22
    6424:	00cc0a00 	sbceq	r0, ip, r0, lsl #20
    6428:	001f0000 	andseq	r0, pc, r0
    642c:	000fe411 	andeq	lr, pc, r1, lsl r4	; <UNPREDICTABLE>
    6430:	05019000 	streq	r9, [r1, #-0]
    6434:	0002995b 	andeq	r9, r2, fp, asr r9
    6438:	106c0c00 	rsbne	r0, ip, r0, lsl #24
    643c:	5c050000 	stcpl	0, cr0, [r5], {-0}
    6440:	00000299 	muleq	r0, r9, r2
    6444:	10840c00 	addne	r0, r4, r0, lsl #24
    6448:	5d050000 	stcpl	0, cr0, [r5, #-0]
    644c:	00000025 	andeq	r0, r0, r5, lsr #32
    6450:	0ee40c04 	cdpeq	12, 14, cr0, cr4, cr4, {0}
    6454:	5f050000 	svcpl	0x00050000
    6458:	0000029f 	muleq	r0, pc, r2	; <UNPREDICTABLE>
    645c:	0e240c08 	cdpeq	12, 2, cr0, cr4, cr8, {0}
    6460:	60050000 	andvs	r0, r5, r0
    6464:	0000020b 	andeq	r0, r0, fp, lsl #4
    6468:	040e0088 	streq	r0, [lr], #-136	; 0x88
    646c:	0000025b 	andeq	r0, r0, fp, asr r2
    6470:	0002af09 	andeq	sl, r2, r9, lsl #30
    6474:	0002af00 	andeq	sl, r2, r0, lsl #30
    6478:	00cc0a00 	sbceq	r0, ip, r0, lsl #20
    647c:	001f0000 	andseq	r0, pc, r0
    6480:	02b5040e 	adcseq	r0, r5, #234881024	; 0xe000000
    6484:	0f130000 	svceq	0x00130000
    6488:	00001037 	andeq	r1, r0, r7, lsr r0
    648c:	db730508 	blle	1cc78b4 <__bss_end__+0x1cbb6c4>
    6490:	0c000002 	stceq	0, cr0, [r0], {2}
    6494:	00000e0a 	andeq	r0, r0, sl, lsl #28
    6498:	02db7405 	sbcseq	r7, fp, #83886080	; 0x5000000
    649c:	0c000000 	stceq	0, cr0, [r0], {-0}
    64a0:	00000d78 	andeq	r0, r0, r8, ror sp
    64a4:	00257505 	eoreq	r7, r5, r5, lsl #10
    64a8:	00040000 	andeq	r0, r4, r0
    64ac:	0054040e 	subseq	r0, r4, lr, lsl #8
    64b0:	560f0000 	strpl	r0, [pc], -r0
    64b4:	68000010 	stmdavs	r0, {r4}
    64b8:	040bb305 	streq	fp, [fp], #-773	; 0x305
    64bc:	5f100000 	svcpl	0x00100000
    64c0:	b4050070 	strlt	r0, [r5], #-112	; 0x70
    64c4:	000002db 	ldrdeq	r0, [r0], -fp
    64c8:	725f1000 	subsvc	r1, pc, #0
    64cc:	25b50500 	ldrcs	r0, [r5, #1280]!	; 0x500
    64d0:	04000000 	streq	r0, [r0], #-0
    64d4:	00775f10 	rsbseq	r5, r7, r0, lsl pc
    64d8:	0025b605 	eoreq	fp, r5, r5, lsl #12
    64dc:	0c080000 	stceq	0, cr0, [r8], {-0}
    64e0:	00000e42 	andeq	r0, r0, r2, asr #28
    64e4:	003fb705 	eorseq	fp, pc, r5, lsl #14
    64e8:	0c0c0000 	stceq	0, cr0, [ip], {-0}
    64ec:	00000f55 	andeq	r0, r0, r5, asr pc
    64f0:	003fb805 	eorseq	fp, pc, r5, lsl #16
    64f4:	100e0000 	andne	r0, lr, r0
    64f8:	0066625f 	rsbeq	r6, r6, pc, asr r2
    64fc:	02b6b905 	adcseq	fp, r6, #81920	; 0x14000
    6500:	0c100000 	ldceq	0, cr0, [r0], {-0}
    6504:	00000db1 			; <UNDEFINED> instruction: 0x00000db1
    6508:	0025ba05 	eoreq	fp, r5, r5, lsl #20
    650c:	0c180000 	ldceq	0, cr0, [r8], {-0}
    6510:	00000e32 	andeq	r0, r0, r2, lsr lr
    6514:	010ac105 	tsteq	sl, r5, lsl #2
    6518:	0c1c0000 	ldceq	0, cr0, [ip], {-0}
    651c:	000012cd 	andeq	r1, r0, sp, asr #5
    6520:	0566c305 	strbeq	ip, [r6, #-773]!	; 0x305
    6524:	0c200000 	stceq	0, cr0, [r0], #-0
    6528:	000012e7 	andeq	r1, r0, r7, ror #5
    652c:	0590c505 	ldreq	ip, [r0, #1285]	; 0x505
    6530:	0c240000 	stceq	0, cr0, [r4], #-0
    6534:	000010c8 	andeq	r1, r0, r8, asr #1
    6538:	05b4c805 	ldreq	ip, [r4, #2053]!	; 0x805
    653c:	0c280000 	stceq	0, cr0, [r8], #-0
    6540:	00001287 	andeq	r1, r0, r7, lsl #5
    6544:	05cec905 	strbeq	ip, [lr, #2309]	; 0x905
    6548:	102c0000 	eorne	r0, ip, r0
    654c:	0062755f 	rsbeq	r7, r2, pc, asr r5
    6550:	02b6cc05 	adcseq	ip, r6, #1280	; 0x500
    6554:	10300000 	eorsne	r0, r0, r0
    6558:	0070755f 	rsbseq	r7, r0, pc, asr r5
    655c:	02dbcd05 	sbcseq	ip, fp, #320	; 0x140
    6560:	10380000 	eorsne	r0, r8, r0
    6564:	0072755f 	rsbseq	r7, r2, pc, asr r5
    6568:	0025ce05 	eoreq	ip, r5, r5, lsl #28
    656c:	0c3c0000 	ldceq	0, cr0, [ip], #-0
    6570:	00000df5 	strdeq	r0, [r0], -r5
    6574:	05d4d105 	ldrbeq	sp, [r4, #261]	; 0x105
    6578:	0c400000 	mareq	acc0, r0, r0
    657c:	00001232 	andeq	r1, r0, r2, lsr r2
    6580:	05e4d205 	strbeq	sp, [r4, #517]!	; 0x205
    6584:	10430000 	subne	r0, r3, r0
    6588:	00626c5f 	rsbeq	r6, r2, pc, asr ip
    658c:	02b6d505 	adcseq	sp, r6, #20971520	; 0x1400000
    6590:	0c440000 	mareq	acc0, r0, r4
    6594:	00000e58 	andeq	r0, r0, r8, asr lr
    6598:	0025d805 	eoreq	sp, r5, r5, lsl #16
    659c:	0c4c0000 	mareq	acc0, r0, ip
    65a0:	00000fba 			; <UNDEFINED> instruction: 0x00000fba
    65a4:	007bd905 	rsbseq	sp, fp, r5, lsl #18
    65a8:	0c500000 	mraeq	r0, r0, acc0
    65ac:	0000121d 	andeq	r1, r0, sp, lsl r2
    65b0:	0429dc05 	strteq	sp, [r9], #-3077	; 0xc05
    65b4:	0c540000 	mraeq	r0, r4, acc0
    65b8:	000006a7 	andeq	r0, r0, r7, lsr #13
    65bc:	00ffe005 	rscseq	lr, pc, r5
    65c0:	0c580000 	mraeq	r0, r8, acc0
    65c4:	0000105e 	andeq	r1, r0, lr, asr r0
    65c8:	00f4e205 	rscseq	lr, r4, r5, lsl #4
    65cc:	0c5c0000 	mraeq	r0, ip, acc0
    65d0:	00000fa8 	andeq	r0, r0, r8, lsr #31
    65d4:	0025e305 	eoreq	lr, r5, r5, lsl #6
    65d8:	00640000 	rsbeq	r0, r4, r0
    65dc:	00002514 	andeq	r2, r0, r4, lsl r5
    65e0:	00042900 	andeq	r2, r4, r0, lsl #18
    65e4:	04291500 	strteq	r1, [r9], #-1280	; 0x500
    65e8:	0a150000 	beq	5465f0 <__bss_end__+0x53a400>
    65ec:	15000001 	strne	r0, [r0, #-1]
    65f0:	0000010c 	andeq	r0, r0, ip, lsl #2
    65f4:	00002515 	andeq	r2, r0, r5, lsl r5
    65f8:	040e0000 	streq	r0, [lr], #-0
    65fc:	00000434 	andeq	r0, r0, r4, lsr r4
    6600:	00042904 	andeq	r2, r4, r4, lsl #18
    6604:	10ab1600 	adcne	r1, fp, r0, lsl #12
    6608:	04280000 	strteq	r0, [r8], #-0
    660c:	66023805 	strvs	r3, [r2], -r5, lsl #16
    6610:	17000005 	strne	r0, [r0, -r5]
    6614:	00001026 	andeq	r1, r0, r6, lsr #32
    6618:	25023a05 	strcs	r3, [r2, #-2565]	; 0xa05
    661c:	00000000 	andeq	r0, r0, r0
    6620:	000e5117 	andeq	r5, lr, r7, lsl r1
    6624:	023f0500 	eorseq	r0, pc, #0, 10
    6628:	0000063b 	andeq	r0, r0, fp, lsr r6
    662c:	0f451704 	svceq	0x00451704
    6630:	3f050000 	svccc	0x00050000
    6634:	00063b02 	andeq	r3, r6, r2, lsl #22
    6638:	06170800 	ldreq	r0, [r7], -r0, lsl #16
    663c:	0500000f 	streq	r0, [r0, #-15]
    6640:	063b023f 			; <UNDEFINED> instruction: 0x063b023f
    6644:	170c0000 	strne	r0, [ip, -r0]
    6648:	0000107f 	andeq	r1, r0, pc, ror r0
    664c:	25024105 	strcs	r4, [r2, #-261]	; 0x105
    6650:	10000000 	andne	r0, r0, r0
    6654:	000d8617 	andeq	r8, sp, r7, lsl r6
    6658:	02420500 	subeq	r0, r2, #0, 10
    665c:	0000081d 	andeq	r0, r0, sp, lsl r8
    6660:	119d1714 	orrsne	r1, sp, r4, lsl r7
    6664:	44050000 	strmi	r0, [r5], #-0
    6668:	00002502 	andeq	r2, r0, r2, lsl #10
    666c:	89173000 	ldmdbhi	r7, {ip, sp}
    6670:	05000010 	streq	r0, [r0, #-16]
    6674:	058a0245 	streq	r0, [sl, #581]	; 0x245
    6678:	17340000 	ldrne	r0, [r4, -r0]!
    667c:	00000fec 	andeq	r0, r0, ip, ror #31
    6680:	25024705 	strcs	r4, [r2, #-1797]	; 0x705
    6684:	38000000 	stmdacc	r0, {}	; <UNPREDICTABLE>
    6688:	00109917 	andseq	r9, r0, r7, lsl r9
    668c:	02490500 	subeq	r0, r9, #0, 10
    6690:	00000838 	andeq	r0, r0, r8, lsr r8
    6694:	0f84173c 	svceq	0x0084173c
    6698:	4c050000 	stcmi	0, cr0, [r5], {-0}
    669c:	00017c02 	andeq	r7, r1, r2, lsl #24
    66a0:	25174000 	ldrcs	r4, [r7, #-0]
    66a4:	0500000f 	streq	r0, [r0, #-15]
    66a8:	0025024d 	eoreq	r0, r5, sp, asr #4
    66ac:	17440000 	strbne	r0, [r4, -r0]
    66b0:	000012a1 	andeq	r1, r0, r1, lsr #5
    66b4:	7c024e05 	stcvc	14, cr4, [r2], {5}
    66b8:	48000001 	stmdami	r0, {r0}
    66bc:	00100317 	andseq	r0, r0, r7, lsl r3
    66c0:	024f0500 	subeq	r0, pc, #0, 10
    66c4:	0000083e 	andeq	r0, r0, lr, lsr r8
    66c8:	0f4d174c 	svceq	0x004d174c
    66cc:	52050000 	andpl	r0, r5, #0
    66d0:	00002502 	andeq	r2, r0, r2, lsl #10
    66d4:	74175000 	ldrvc	r5, [r7], #-0
    66d8:	0500000e 	streq	r0, [r0, #-14]
    66dc:	010c0253 	tsteq	ip, r3, asr r2
    66e0:	17540000 	ldrbne	r0, [r4, -r0]
    66e4:	0000101f 	andeq	r1, r0, pc, lsl r0
    66e8:	fb027605 	blx	a3f06 <__bss_end__+0x97d16>
    66ec:	58000007 	stmdapl	r0, {r0, r1, r2}
    66f0:	000fe418 	andeq	lr, pc, r8, lsl r4	; <UNPREDICTABLE>
    66f4:	027a0500 	rsbseq	r0, sl, #0, 10
    66f8:	00000299 	muleq	r0, r9, r2
    66fc:	62180148 	andsvs	r0, r8, #72, 2
    6700:	0500000f 	streq	r0, [r0, #-15]
    6704:	025b027b 	subseq	r0, fp, #-1342177273	; 0xb0000007
    6708:	014c0000 	mrseq	r0, (UNDEF: 76)
    670c:	00120318 	andseq	r0, r2, r8, lsl r3
    6710:	027f0500 	rsbseq	r0, pc, #0, 10
    6714:	0000084f 	andeq	r0, r0, pc, asr #16
    6718:	3a1802dc 	bcc	607290 <__bss_end__+0x5fb0a0>
    671c:	0500000e 	streq	r0, [r0, #-14]
    6720:	06000284 	streq	r0, [r0], -r4, lsl #5
    6724:	02e00000 	rsceq	r0, r0, #0
    6728:	000e1f18 	andeq	r1, lr, r8, lsl pc
    672c:	02850500 	addeq	r0, r5, #0, 10
    6730:	0000085b 	andeq	r0, r0, fp, asr r8
    6734:	0e0002ec 	cdpeq	2, 0, cr0, cr0, cr12, {7}
    6738:	00040b04 	andeq	r0, r4, r4, lsl #22
    673c:	00251400 	eoreq	r1, r5, r0, lsl #8
    6740:	058a0000 	streq	r0, [sl]
    6744:	29150000 	ldmdbcs	r5, {}	; <UNPREDICTABLE>
    6748:	15000004 	strne	r0, [r0, #-4]
    674c:	0000010a 	andeq	r0, r0, sl, lsl #2
    6750:	00058a15 	andeq	r8, r5, r5, lsl sl
    6754:	00251500 	eoreq	r1, r5, r0, lsl #10
    6758:	0e000000 	cdpeq	0, 0, cr0, cr0, cr0, {0}
    675c:	00011904 	andeq	r1, r1, r4, lsl #18
    6760:	6c040e00 	stcvs	14, cr0, [r4], {-0}
    6764:	14000005 	strne	r0, [r0], #-5
    6768:	00000086 	andeq	r0, r0, r6, lsl #1
    676c:	000005b4 			; <UNDEFINED> instruction: 0x000005b4
    6770:	00042915 	andeq	r2, r4, r5, lsl r9
    6774:	010a1500 	tsteq	sl, r0, lsl #10
    6778:	86150000 	ldrhi	r0, [r5], -r0
    677c:	15000000 	strne	r0, [r0, #-0]
    6780:	00000025 	andeq	r0, r0, r5, lsr #32
    6784:	96040e00 	strls	r0, [r4], -r0, lsl #28
    6788:	14000005 	strne	r0, [r0], #-5
    678c:	00000025 	andeq	r0, r0, r5, lsr #32
    6790:	000005ce 	andeq	r0, r0, lr, asr #11
    6794:	00042915 	andeq	r2, r4, r5, lsl r9
    6798:	010a1500 	tsteq	sl, r0, lsl #10
    679c:	0e000000 	cdpeq	0, 0, cr0, cr0, cr0, {0}
    67a0:	0005ba04 	andeq	fp, r5, r4, lsl #20
    67a4:	00540900 	subseq	r0, r4, r0, lsl #18
    67a8:	05e40000 	strbeq	r0, [r4, #0]!
    67ac:	cc0a0000 	stcgt	0, cr0, [sl], {-0}
    67b0:	02000000 	andeq	r0, r0, #0
    67b4:	00540900 	subseq	r0, r4, r0, lsl #18
    67b8:	05f40000 	ldrbeq	r0, [r4, #0]!
    67bc:	cc0a0000 	stcgt	0, cr0, [sl], {-0}
    67c0:	00000000 	andeq	r0, r0, r0
    67c4:	10440600 	subne	r0, r4, r0, lsl #12
    67c8:	1d050000 	stcne	0, cr0, [r5, #-0]
    67cc:	0002e101 	andeq	lr, r2, r1, lsl #2
    67d0:	11cb1900 	bicne	r1, fp, r0, lsl #18
    67d4:	050c0000 	streq	r0, [ip, #-0]
    67d8:	06350121 	ldrteq	r0, [r5], -r1, lsr #2
    67dc:	6c170000 	ldcvs	0, cr0, [r7], {-0}
    67e0:	05000010 	streq	r0, [r0, #-16]
    67e4:	06350123 	ldrteq	r0, [r5], -r3, lsr #2
    67e8:	17000000 	strne	r0, [r0, -r0]
    67ec:	00000f5b 	andeq	r0, r0, fp, asr pc
    67f0:	25012405 	strcs	r2, [r1, #-1029]	; 0x405
    67f4:	04000000 	streq	r0, [r0], #-0
    67f8:	00103e17 	andseq	r3, r0, r7, lsl lr
    67fc:	01250500 	teqeq	r5, r0, lsl #10
    6800:	0000063b 	andeq	r0, r0, fp, lsr r6
    6804:	040e0008 	streq	r0, [lr], #-8
    6808:	00000600 	andeq	r0, r0, r0, lsl #12
    680c:	05f4040e 	ldrbeq	r0, [r4, #1038]!	; 0x40e
    6810:	7e190000 	cdpvc	0, 1, cr0, cr9, cr0, {0}
    6814:	0e00000d 	cdpeq	0, 0, cr0, cr0, cr13, {0}
    6818:	76013d05 	strvc	r3, [r1], -r5, lsl #26
    681c:	17000006 	strne	r0, [r0, -r6]
    6820:	000010b2 	strheq	r1, [r0], -r2
    6824:	76013e05 	strvc	r3, [r1], -r5, lsl #28
    6828:	00000006 	andeq	r0, r0, r6
    682c:	0010ec17 	andseq	lr, r0, r7, lsl ip
    6830:	013f0500 	teqeq	pc, r0, lsl #10
    6834:	00000676 	andeq	r0, r0, r6, ror r6
    6838:	11701706 	cmnne	r0, r6, lsl #14
    683c:	40050000 	andmi	r0, r5, r0
    6840:	00005b01 	andeq	r5, r0, r1, lsl #22
    6844:	09000c00 	stmdbeq	r0, {sl, fp}
    6848:	0000005b 	andeq	r0, r0, fp, asr r0
    684c:	00000686 	andeq	r0, r0, r6, lsl #13
    6850:	0000cc0a 	andeq	ip, r0, sl, lsl #24
    6854:	1a000200 	bne	705c <__code_start__-0xfa4>
    6858:	025705d0 	subseq	r0, r7, #208, 10	; 0x34000000
    685c:	00000787 	andeq	r0, r0, r7, lsl #15
    6860:	0011af17 	andseq	sl, r1, r7, lsl pc
    6864:	02590500 	subseq	r0, r9, #0, 10
    6868:	0000002c 	andeq	r0, r0, ip, lsr #32
    686c:	115a1700 	cmpne	sl, r0, lsl #14
    6870:	5a050000 	bpl	146878 <__bss_end__+0x13a688>
    6874:	00010c02 	andeq	r0, r1, r2, lsl #24
    6878:	77170400 	ldrvc	r0, [r7, -r0, lsl #8]
    687c:	0500000f 	streq	r0, [r0, #-15]
    6880:	0787025b 			; <UNDEFINED> instruction: 0x0787025b
    6884:	17080000 	strne	r0, [r8, -r0]
    6888:	00001278 	andeq	r1, r0, r8, ror r2
    688c:	92025c05 	andls	r5, r2, #1280	; 0x500
    6890:	24000001 	strcs	r0, [r0], #-1
    6894:	000f1617 	andeq	r1, pc, r7, lsl r6	; <UNPREDICTABLE>
    6898:	025d0500 	subseq	r0, sp, #0, 10
    689c:	00000025 	andeq	r0, r0, r5, lsr #32
    68a0:	10671748 	rsbne	r1, r7, r8, asr #14
    68a4:	5e050000 	cdppl	0, 0, cr0, cr5, cr0, {0}
    68a8:	00006902 	andeq	r6, r0, r2, lsl #18
    68ac:	8e175000 	cdphi	0, 1, cr5, cr7, cr0, {0}
    68b0:	05000012 	streq	r0, [r0, #-18]
    68b4:	0641025f 			; <UNDEFINED> instruction: 0x0641025f
    68b8:	17580000 	ldrbne	r0, [r8, -r0]
    68bc:	00001072 	andeq	r1, r0, r2, ror r0
    68c0:	f4026005 	vst4.8	{d6-d9}, [r2], r5
    68c4:	68000000 	stmdavs	r0, {}	; <UNPREDICTABLE>
    68c8:	00129317 	andseq	r9, r2, r7, lsl r3
    68cc:	02610500 	rsbeq	r0, r1, #0, 10
    68d0:	000000f4 	strdeq	r0, [r0], -r4
    68d4:	0dd91770 	ldcleq	7, cr1, [r9, #448]	; 0x1c0
    68d8:	62050000 	andvs	r0, r5, #0
    68dc:	0000f402 	andeq	pc, r0, r2, lsl #8
    68e0:	eb177800 	bl	5e48e8 <__bss_end__+0x5d86f8>
    68e4:	05000011 	streq	r0, [r0, #-17]
    68e8:	07970263 	ldreq	r0, [r7, r3, ror #4]
    68ec:	17800000 	strne	r0, [r0, r0]
    68f0:	00000f6b 	andeq	r0, r0, fp, ror #30
    68f4:	a7026405 	strge	r6, [r2, -r5, lsl #8]
    68f8:	88000007 	stmdahi	r0, {r0, r1, r2}
    68fc:	00117d17 	andseq	r7, r1, r7, lsl sp
    6900:	02650500 	rsbeq	r0, r5, #0, 10
    6904:	00000025 	andeq	r0, r0, r5, lsr #32
    6908:	0ec217a0 	cdpeq	7, 12, cr1, cr2, cr0, {5}
    690c:	66050000 	strvs	r0, [r5], -r0
    6910:	0000f402 	andeq	pc, r0, r2, lsl #8
    6914:	ca17a400 	bgt	5ef91c <__bss_end__+0x5e372c>
    6918:	0500000d 	streq	r0, [r0, #-13]
    691c:	00f40267 	rscseq	r0, r4, r7, ror #4
    6920:	17ac0000 	strne	r0, [ip, r0]!
    6924:	00000eb1 			; <UNDEFINED> instruction: 0x00000eb1
    6928:	f4026805 	vst2.8	{d6-d7}, [r2], r5
    692c:	b4000000 	strlt	r0, [r0], #-0
    6930:	000d9117 	andeq	r9, sp, r7, lsl r1
    6934:	02690500 	rsbeq	r0, r9, #0, 10
    6938:	000000f4 	strdeq	r0, [r0], -r4
    693c:	0da017bc 	stceq	7, cr1, [r0, #752]!	; 0x2f0
    6940:	6a050000 	bvs	146948 <__bss_end__+0x13a758>
    6944:	0000f402 	andeq	pc, r0, r2, lsl #8
    6948:	2417c400 	ldrcs	ip, [r7], #-1024	; 0x400
    694c:	05000010 	streq	r0, [r0, #-16]
    6950:	0025026b 	eoreq	r0, r5, fp, ror #4
    6954:	00cc0000 	sbceq	r0, ip, r0
    6958:	00011209 	andeq	r1, r1, r9, lsl #4
    695c:	00079700 	andeq	r9, r7, r0, lsl #14
    6960:	00cc0a00 	sbceq	r0, ip, r0, lsl #20
    6964:	00190000 	andseq	r0, r9, r0
    6968:	00011209 	andeq	r1, r1, r9, lsl #4
    696c:	0007a700 	andeq	sl, r7, r0, lsl #14
    6970:	00cc0a00 	sbceq	r0, ip, r0, lsl #20
    6974:	00070000 	andeq	r0, r7, r0
    6978:	00011209 	andeq	r1, r1, r9, lsl #4
    697c:	0007b700 	andeq	fp, r7, r0, lsl #14
    6980:	00cc0a00 	sbceq	r0, ip, r0, lsl #20
    6984:	00170000 	andseq	r0, r7, r0
    6988:	7005f01a 	andvc	pc, r5, sl, lsl r0	; <UNPREDICTABLE>
    698c:	0007db02 	andeq	sp, r7, r2, lsl #22
    6990:	0fd41700 	svceq	0x00d41700
    6994:	73050000 	movwvc	r0, #20480	; 0x5000
    6998:	0007db02 	andeq	sp, r7, r2, lsl #22
    699c:	e2170000 	ands	r0, r7, #0
    69a0:	05000011 	streq	r0, [r0, #-17]
    69a4:	07eb0274 			; <UNDEFINED> instruction: 0x07eb0274
    69a8:	00780000 	rsbseq	r0, r8, r0
    69ac:	0002db09 	andeq	sp, r2, r9, lsl #22
    69b0:	0007eb00 	andeq	lr, r7, r0, lsl #22
    69b4:	00cc0a00 	sbceq	r0, ip, r0, lsl #20
    69b8:	001d0000 	andseq	r0, sp, r0
    69bc:	00002c09 	andeq	r2, r0, r9, lsl #24
    69c0:	0007fb00 	andeq	pc, r7, r0, lsl #22
    69c4:	00cc0a00 	sbceq	r0, ip, r0, lsl #20
    69c8:	001d0000 	andseq	r0, sp, r0
    69cc:	5505f01b 	strpl	pc, [r5, #-27]
    69d0:	00081d02 	andeq	r1, r8, r2, lsl #26
    69d4:	10ab1c00 	adcne	r1, fp, r0, lsl #24
    69d8:	6c050000 	stcvs	0, cr0, [r5], {-0}
    69dc:	00068602 	andeq	r8, r6, r2, lsl #12
    69e0:	12381c00 	eorsne	r1, r8, #0, 24
    69e4:	75050000 	strvc	r0, [r5, #-0]
    69e8:	0007b702 	andeq	fp, r7, r2, lsl #14
    69ec:	12090000 	andne	r0, r9, #0
    69f0:	2d000001 	stccs	0, cr0, [r0, #-4]
    69f4:	0a000008 	beq	6a1c <__code_start__-0x15e4>
    69f8:	000000cc 	andeq	r0, r0, ip, asr #1
    69fc:	381d0018 	ldmdacc	sp, {r3, r4}
    6a00:	15000008 	strne	r0, [r0, #-8]
    6a04:	00000429 	andeq	r0, r0, r9, lsr #8
    6a08:	2d040e00 	stccs	14, cr0, [r4, #-0]
    6a0c:	0e000008 	cdpeq	0, 0, cr0, cr0, cr8, {0}
    6a10:	00017c04 	andeq	r7, r1, r4, lsl #24
    6a14:	084f1d00 	stmdaeq	pc, {r8, sl, fp, ip}^	; <UNPREDICTABLE>
    6a18:	25150000 	ldrcs	r0, [r5, #-0]
    6a1c:	00000000 	andeq	r0, r0, r0
    6a20:	0855040e 	ldmdaeq	r5, {r1, r2, r3, sl}^
    6a24:	040e0000 	streq	r0, [lr], #-0
    6a28:	00000844 	andeq	r0, r0, r4, asr #16
    6a2c:	0005f409 	andeq	pc, r5, r9, lsl #8
    6a30:	00086b00 	andeq	r6, r8, r0, lsl #22
    6a34:	00cc0a00 	sbceq	r0, ip, r0, lsl #20
    6a38:	00020000 	andeq	r0, r2, r0
    6a3c:	0011911e 	andseq	r9, r1, lr, lsl r1
    6a40:	02fd0500 	rscseq	r0, sp, #0, 10
    6a44:	00000429 	andeq	r0, r0, r9, lsr #8
    6a48:	00118a1e 	andseq	r8, r1, lr, lsl sl
    6a4c:	02fe0500 	rscseq	r0, lr, #0, 10
    6a50:	0000042f 	andeq	r0, r0, pc, lsr #8
    6a54:	00002514 	andeq	r2, r0, r4, lsl r5
    6a58:	00089200 	andeq	r9, r8, r0, lsl #4
    6a5c:	00251500 	eoreq	r1, r5, r0, lsl #10
    6a60:	1f000000 	svcne	0x00000000
    6a64:	0000097b 	andeq	r0, r0, fp, ror r9
    6a68:	089d1d06 	ldmeq	sp, {r1, r2, r8, sl, fp, ip}
    6a6c:	040e0000 	streq	r0, [lr], #-0
    6a70:	00000883 	andeq	r0, r0, r3, lsl #17
    6a74:	00002514 	andeq	r2, r0, r4, lsl r5
    6a78:	0008b200 	andeq	fp, r8, r0, lsl #4
    6a7c:	058a1500 	streq	r1, [sl, #1280]	; 0x500
    6a80:	1f000000 	svcne	0x00000000
    6a84:	000009b8 			; <UNDEFINED> instruction: 0x000009b8
    6a88:	08bd2206 	popeq	{r1, r2, r9, sp}
    6a8c:	040e0000 	streq	r0, [lr], #-0
    6a90:	000008a3 	andeq	r0, r0, r3, lsr #17
    6a94:	00540120 	subseq	r0, r4, r0, lsr #2
    6a98:	0c070000 	stceq	0, cr0, [r7], {-0}
    6a9c:	00000900 	andeq	r0, r0, r0, lsl #18
    6aa0:	000dba21 	andeq	fp, sp, r1, lsr #20
    6aa4:	d1210000 	teqle	r1, r0
    6aa8:	01000011 	tsteq	r0, r1, lsl r0
    6aac:	00122321 	andseq	r2, r2, r1, lsr #6
    6ab0:	fb210400 	blx	847aba <__bss_end__+0x83b8ca>
    6ab4:	0500000d 	streq	r0, [r0, #-13]
    6ab8:	000f9221 	andeq	r9, pc, r1, lsr #4
    6abc:	40210600 	eormi	r0, r1, r0, lsl #12
    6ac0:	07000012 	smladeq	r0, r2, r0, r0
    6ac4:	00124f21 	andseq	r4, r2, r1, lsr #30
    6ac8:	5e210300 	cdppl	3, 2, cr0, cr1, cr0, {0}
    6acc:	02000012 	andeq	r0, r0, #18
    6ad0:	131d0500 	tstne	sp, #0, 10
    6ad4:	15070000 	strne	r0, [r7, #-0]
    6ad8:	000008c3 	andeq	r0, r0, r3, asr #17
    6adc:	0012ee22 	andseq	lr, r2, r2, lsr #28
    6ae0:	331d0100 	tstcc	sp, #0, 2
    6ae4:	1c000000 	stcne	0, cr0, [r0], {-0}
    6ae8:	22202000 	eorcs	r2, r0, #0
    6aec:	00001329 	andeq	r1, r0, r9, lsr #6
    6af0:	00331e01 	eorseq	r1, r3, r1, lsl #28
    6af4:	00280000 	eoreq	r0, r8, r0
    6af8:	f8222020 			; <UNDEFINED> instruction: 0xf8222020
    6afc:	01000012 	tsteq	r0, r2, lsl r0
    6b00:	0000331f 	andeq	r3, r0, pc, lsl r3
    6b04:	20003400 	andcs	r3, r0, r0, lsl #8
    6b08:	12c92320 	sbcne	r2, r9, #32, 6	; 0x80000000
    6b0c:	56010000 	strpl	r0, [r1], -r0
    6b10:	00000025 	andeq	r0, r0, r5, lsr #32
    6b14:	0000ac0c 	andeq	sl, r0, ip, lsl #24
    6b18:	00000034 	andeq	r0, r0, r4, lsr r0
    6b1c:	09989c01 	ldmibeq	r8, {r0, sl, fp, ip, pc}
    6b20:	70240000 	eorvc	r0, r4, r0
    6b24:	01006e69 	tsteq	r0, r9, ror #28
    6b28:	00002c56 	andeq	r2, r0, r6, asr ip
    6b2c:	001ce200 	andseq	lr, ip, r0, lsl #4
    6b30:	12bd2500 	adcsne	r2, sp, #0, 10
    6b34:	59010000 	stmdbpl	r1, {}	; <UNPREDICTABLE>
    6b38:	0000002c 	andeq	r0, r0, ip, lsr #32
    6b3c:	00001d1c 	andeq	r1, r0, ip, lsl sp
    6b40:	66666f26 	strbtvs	r6, [r6], -r6, lsr #30
    6b44:	2c5a0100 	ldfcse	f0, [sl], {-0}
    6b48:	5a000000 	bpl	6b50 <__code_start__-0x14b0>
    6b4c:	2700001d 	smladcs	r0, sp, r0, r0
    6b50:	0000ac28 	andeq	sl, r0, r8, lsr #24
    6b54:	00000b5d 	andeq	r0, r0, sp, asr fp
    6b58:	0b500128 	bleq	1407000 <__bss_end__+0x13fae10>
    6b5c:	355001f3 	ldrbcc	r0, [r0, #-499]	; 0x1f3
    6b60:	80b42325 	adcshi	r2, r4, r5, lsr #6
    6b64:	00028180 	andeq	r8, r2, r0, lsl #3
    6b68:	12e32900 	rscne	r2, r3, #0, 18
    6b6c:	4f010000 	svcmi	0x00010000
    6b70:	0000abf0 	strdeq	sl, [r0], -r0
    6b74:	0000001c 	andeq	r0, r0, ip, lsl r0
    6b78:	09e89c01 	stmibeq	r8!, {r0, sl, fp, ip, pc}^
    6b7c:	70240000 	eorvc	r0, r4, r0
    6b80:	01006e69 	tsteq	r0, r9, ror #28
    6b84:	00002c4f 	andeq	r2, r0, pc, asr #24
    6b88:	001d6d00 	andseq	r6, sp, r0, lsl #26
    6b8c:	00762400 	rsbseq	r2, r6, r0, lsl #8
    6b90:	002c4f01 	eoreq	r4, ip, r1, lsl #30
    6b94:	1da70000 	stcne	0, cr0, [r7]
    6b98:	002a0000 	eoreq	r0, sl, r0
    6b9c:	230000ac 	movwcs	r0, #172	; 0xac
    6ba0:	de00000a 	cdple	0, 0, cr0, cr0, cr10, {0}
    6ba4:	28000009 	stmdacs	r0, {r0, r3}
    6ba8:	f3035001 	vhadd.u8	d5, d3, d1
    6bac:	2b005001 	blcs	1abb8 <__bss_end__+0xe9c8>
    6bb0:	0000ac08 	andeq	sl, r0, r8, lsl #24
    6bb4:	00000a64 	andeq	r0, r0, r4, ror #20
    6bb8:	13022900 	movwne	r2, #10496	; 0x2900
    6bbc:	4a010000 	bmi	46bc4 <__bss_end__+0x3a9d4>
    6bc0:	0000abe0 	andeq	sl, r0, r0, ror #23
    6bc4:	00000010 	andeq	r0, r0, r0, lsl r0
    6bc8:	0a239c01 	beq	8edbd4 <__bss_end__+0x8e19e4>
    6bcc:	70240000 	eorvc	r0, r4, r0
    6bd0:	01006e69 	tsteq	r0, r9, ror #28
    6bd4:	00002c4a 	andeq	r2, r0, sl, asr #24
    6bd8:	001de100 	andseq	lr, sp, r0, lsl #2
    6bdc:	abec2700 	blge	ffb107e4 <__bss_end__+0xffb045f4>
    6be0:	0ae00000 	beq	ff806be8 <__bss_end__+0xff7fa9f8>
    6be4:	01280000 	teqeq	r8, r0
    6be8:	01f30350 	mvnseq	r0, r0, asr r3
    6bec:	51012850 	tstpl	r1, r0, asr r8
    6bf0:	00003001 	andeq	r3, r0, r1
    6bf4:	0012b029 	andseq	fp, r2, r9, lsr #32
    6bf8:	bc430100 	stflte	f0, [r3], {-0}
    6bfc:	240000ab 	strcs	r0, [r0], #-171	; 0xab
    6c00:	01000000 	mrseq	r0, (UNDEF: 0)
    6c04:	000a649c 	muleq	sl, ip, r4
    6c08:	69702400 	ldmdbvs	r0!, {sl, sp}^
    6c0c:	4301006e 	movwmi	r0, #4206	; 0x106e
    6c10:	0000002c 	andeq	r0, r0, ip, lsr #32
    6c14:	00001e02 	andeq	r1, r0, r2, lsl #28
    6c18:	00abd827 	adceq	sp, fp, r7, lsr #16
    6c1c:	000b6800 	andeq	r6, fp, r0, lsl #16
    6c20:	50012800 	andpl	r2, r1, r0, lsl #16
    6c24:	00280c05 	eoreq	r0, r8, r5, lsl #24
    6c28:	01282020 	teqeq	r8, r0, lsr #32
    6c2c:	f3310551 	vqrshl.u64	q0, <illegal reg q0.5>, <illegal reg q0.5>
    6c30:	00245001 	eoreq	r5, r4, r1
    6c34:	13112900 	tstne	r1, #0, 18
    6c38:	3c010000 	stccc	0, cr0, [r1], {-0}
    6c3c:	0000ab98 	muleq	r0, r8, fp
    6c40:	00000024 	andeq	r0, r0, r4, lsr #32
    6c44:	0aa59c01 	beq	fe96dc50 <__bss_end__+0xfe961a60>
    6c48:	70240000 	eorvc	r0, r4, r0
    6c4c:	01006e69 	tsteq	r0, r9, ror #28
    6c50:	00002c3c 	andeq	r2, r0, ip, lsr ip
    6c54:	001e2300 	andseq	r2, lr, r0, lsl #6
    6c58:	abb42700 	blge	fed10860 <__bss_end__+0xfed04670>
    6c5c:	0b680000 	bleq	1a06c64 <__bss_end__+0x19faa74>
    6c60:	01280000 	teqeq	r8, r0
    6c64:	1c0c0550 	cfstr32ne	mvfx0, [ip], {80}	; 0x50
    6c68:	28202000 	stmdacs	r0!, {sp}
    6c6c:	31055101 	tstcc	r5, r1, lsl #2
    6c70:	245001f3 	ldrbcs	r0, [r0], #-499	; 0x1f3
    6c74:	d3290000 	teqle	r9, #0
    6c78:	01000012 	tsteq	r0, r2, lsl r0
    6c7c:	00ab8837 	adceq	r8, fp, r7, lsr r8
    6c80:	00001000 	andeq	r1, r0, r0
    6c84:	e09c0100 	adds	r0, ip, r0, lsl #2
    6c88:	2400000a 	strcs	r0, [r0], #-10
    6c8c:	006e6970 	rsbeq	r6, lr, r0, ror r9
    6c90:	002c3701 	eoreq	r3, ip, r1, lsl #14
    6c94:	1e440000 	cdpne	0, 4, cr0, cr4, cr0, {0}
    6c98:	94270000 	strtls	r0, [r7], #-0
    6c9c:	e00000ab 	and	r0, r0, fp, lsr #1
    6ca0:	2800000a 	stmdacs	r0, {r1, r3}
    6ca4:	f3035001 	vhadd.u8	d5, d3, d1
    6ca8:	01285001 	teqeq	r8, r1
    6cac:	00310151 	eorseq	r0, r1, r1, asr r1
    6cb0:	0fc22900 	svceq	0x00c22900
    6cb4:	28010000 	stmdacs	r1, {}	; <UNPREDICTABLE>
    6cb8:	0000ab20 	andeq	sl, r0, r0, lsr #22
    6cbc:	00000068 	andeq	r0, r0, r8, rrx
    6cc0:	0b5d9c01 	bleq	176dccc <__bss_end__+0x1761adc>
    6cc4:	70240000 	eorvc	r0, r4, r0
    6cc8:	01006e69 	tsteq	r0, r9, ror #28
    6ccc:	00002c28 	andeq	r2, r0, r8, lsr #24
    6cd0:	001e6500 	andseq	r6, lr, r0, lsl #10
    6cd4:	12082c00 	andne	r2, r8, #0, 24
    6cd8:	28010000 	stmdacs	r1, {}	; <UNPREDICTABLE>
    6cdc:	00000900 	andeq	r0, r0, r0, lsl #18
    6ce0:	00001e86 	andeq	r1, r0, r6, lsl #29
    6ce4:	66666f2d 	strbtvs	r6, [r6], -sp, lsr #30
    6ce8:	2c2d0100 	stfcss	f0, [sp], #-0
    6cec:	01000000 	mrseq	r0, (UNDEF: 0)
    6cf0:	00672d54 	rsbeq	r2, r7, r4, asr sp
    6cf4:	002c2f01 	eoreq	r2, ip, r1, lsl #30
    6cf8:	56010000 	strpl	r0, [r1], -r0
    6cfc:	01007626 	tsteq	r0, r6, lsr #12
    6d00:	00002c31 	andeq	r2, r0, r1, lsr ip
    6d04:	001ea700 	andseq	sl, lr, r0, lsl #14
    6d08:	ab6c2a00 	blge	1b11510 <__bss_end__+0x1b05320>
    6d0c:	0b5d0000 	bleq	1746d14 <__bss_end__+0x173ab24>
    6d10:	0b4c0000 	bleq	1306d18 <__bss_end__+0x12fab28>
    6d14:	01280000 	teqeq	r8, r0
    6d18:	00760250 	rsbseq	r0, r6, r0, asr r2
    6d1c:	ab802700 	blge	fe010924 <__bss_end__+0xfe004734>
    6d20:	0b680000 	bleq	1a06d28 <__bss_end__+0x19fab38>
    6d24:	01280000 	teqeq	r8, r0
    6d28:	00760250 	rsbseq	r0, r6, r0, asr r2
    6d2c:	3b2e0000 	blcc	b86d34 <__bss_end__+0xb7ab44>
    6d30:	3b00000d 	blcc	6d6c <__code_start__-0x1294>
    6d34:	0600000d 	streq	r0, [r0], -sp
    6d38:	0c702ea7 	ldcleq	14, cr2, [r0], #-668	; 0xfffffd64
    6d3c:	0c700000 	ldcleq	0, cr0, [r0], #-0
    6d40:	9b060000 	blls	186d48 <__bss_end__+0x17ab58>
    6d44:	000c2400 	andeq	r2, ip, r0, lsl #8
    6d48:	32000400 	andcc	r0, r0, #0, 8
    6d4c:	0400001b 	streq	r0, [r0], #-27
    6d50:	0010f801 	andseq	pc, r0, r1, lsl #16
    6d54:	13330c00 	teqne	r3, #0, 24
    6d58:	0e7c0000 	cdpeq	0, 7, cr0, cr12, cr0, {0}
    6d5c:	ac400000 	marge	acc0, r0, r0
    6d60:	01940000 	orrseq	r0, r4, r0
    6d64:	17790000 	ldrbne	r0, [r9, -r0]!
    6d68:	04020000 	streq	r0, [r2], #-0
    6d6c:	746e6905 	strbtvc	r6, [lr], #-2309	; 0x905
    6d70:	07040300 	streq	r0, [r4, -r0, lsl #6]
    6d74:	00000183 	andeq	r0, r0, r3, lsl #3
    6d78:	14060103 	strne	r0, [r6], #-259	; 0x103
    6d7c:	03000000 	movweq	r0, #0
    6d80:	01b80502 			; <UNDEFINED> instruction: 0x01b80502
    6d84:	04030000 	streq	r0, [r3], #-0
    6d88:	00019e05 	andeq	r9, r1, r5, lsl #28
    6d8c:	05080300 	streq	r0, [r8, #-768]	; 0x300
    6d90:	00000199 	muleq	r0, r9, r1
    6d94:	12080103 	andne	r0, r8, #-1073741824	; 0xc0000000
    6d98:	03000000 	movweq	r0, #0
    6d9c:	002d0702 	eoreq	r0, sp, r2, lsl #14
    6da0:	04030000 	streq	r0, [r3], #-0
    6da4:	00017e07 	andeq	r7, r1, r7, lsl #28
    6da8:	07080300 	streq	r0, [r8, -r0, lsl #6]
    6dac:	00000179 	andeq	r0, r0, r9, ror r1
    6db0:	00100d04 	andseq	r0, r0, r4, lsl #26
    6db4:	25070200 	strcs	r0, [r7, #-512]	; 0x200
    6db8:	04000000 	streq	r0, [r0], #-0
    6dbc:	00000ff7 	strdeq	r0, [r0], -r7
    6dc0:	00412c03 	subeq	r2, r1, r3, lsl #24
    6dc4:	d3040000 	movwle	r0, #16384	; 0x4000
    6dc8:	03000010 	movweq	r0, #16
    6dcc:	00004172 	andeq	r4, r0, r2, ror r1
    6dd0:	0fa10500 	svceq	0x00a10500
    6dd4:	65040000 	strvs	r0, [r4, #-0]
    6dd8:	00002c01 	andeq	r2, r0, r1, lsl #24
    6ddc:	03040600 	movweq	r0, #17920	; 0x4600
    6de0:	0000b7a6 	andeq	fp, r0, r6, lsr #15
    6de4:	0f8c0700 	svceq	0x008c0700
    6de8:	a8030000 	stmdage	r3, {}	; <UNPREDICTABLE>
    6dec:	0000008c 	andeq	r0, r0, ip, lsl #1
    6df0:	000f3407 	andeq	r3, pc, r7, lsl #8
    6df4:	b7a90300 	strlt	r0, [r9, r0, lsl #6]!
    6df8:	00000000 	andeq	r0, r0, r0
    6dfc:	00004f08 	andeq	r4, r0, r8, lsl #30
    6e00:	0000c700 	andeq	ip, r0, r0, lsl #14
    6e04:	00c70900 	sbceq	r0, r7, r0, lsl #18
    6e08:	00030000 	andeq	r0, r3, r0
    6e0c:	90070403 	andls	r0, r7, r3, lsl #8
    6e10:	0a000001 	beq	6e1c <__code_start__-0x11e4>
    6e14:	efa30308 	svc	0x00a30308
    6e18:	0b000000 	bleq	6e20 <__code_start__-0x11e0>
    6e1c:	000010b8 	strheq	r1, [r0], -r8
    6e20:	0025a503 	eoreq	sl, r5, r3, lsl #10
    6e24:	0b000000 	bleq	6e2c <__code_start__-0x11d4>
    6e28:	000010c0 	andeq	r1, r0, r0, asr #1
    6e2c:	0098aa03 	addseq	sl, r8, r3, lsl #20
    6e30:	00040000 	andeq	r0, r4, r0
    6e34:	00104b04 	andseq	r4, r0, r4, lsl #22
    6e38:	ceab0300 	cdpgt	3, 10, cr0, cr11, cr0, {0}
    6e3c:	04000000 	streq	r0, [r0], #-0
    6e40:	00000efd 	strdeq	r0, [r0], -sp
    6e44:	006baf03 	rsbeq	sl, fp, r3, lsl #30
    6e48:	040c0000 	streq	r0, [ip], #-0
    6e4c:	010d040d 	tsteq	sp, sp, lsl #8
    6e50:	01030000 	mrseq	r0, (UNDEF: 3)
    6e54:	00001b08 	andeq	r1, r0, r8, lsl #22
    6e58:	010d0e00 	tsteq	sp, r0, lsl #28
    6e5c:	75040000 	strvc	r0, [r4, #-0]
    6e60:	05000011 	streq	r0, [r0, #-17]
    6e64:	00005d16 	andeq	r5, r0, r6, lsl sp
    6e68:	0f0e0f00 	svceq	0x000e0f00
    6e6c:	05180000 	ldreq	r0, [r8, #-0]
    6e70:	0001772d 	andeq	r7, r1, sp, lsr #14
    6e74:	106c0b00 	rsbne	r0, ip, r0, lsl #22
    6e78:	2f050000 	svccs	0x00050000
    6e7c:	00000177 	andeq	r0, r0, r7, ror r1
    6e80:	6b5f1000 	blvs	17cae88 <__bss_end__+0x17bec98>
    6e84:	25300500 	ldrcs	r0, [r0, #-1280]!	; 0x500
    6e88:	04000000 	streq	r0, [r0], #-0
    6e8c:	0010a30b 	andseq	sl, r0, fp, lsl #6
    6e90:	25300500 	ldrcs	r0, [r0, #-1280]!	; 0x500
    6e94:	08000000 	stmdaeq	r0, {}	; <UNPREDICTABLE>
    6e98:	000ee90b 	andeq	lr, lr, fp, lsl #18
    6e9c:	25300500 	ldrcs	r0, [r0, #-1280]!	; 0x500
    6ea0:	0c000000 	stceq	0, cr0, [r0], {-0}
    6ea4:	0011bc0b 	andseq	fp, r1, fp, lsl #24
    6ea8:	25300500 	ldrcs	r0, [r0, #-1280]!	; 0x500
    6eac:	10000000 	andne	r0, r0, r0
    6eb0:	00785f10 	rsbseq	r5, r8, r0, lsl pc
    6eb4:	017d3105 	cmneq	sp, r5, lsl #2
    6eb8:	00140000 	andseq	r0, r4, r0
    6ebc:	0124040d 	teqeq	r4, sp, lsl #8
    6ec0:	19080000 	stmdbne	r8, {}	; <UNPREDICTABLE>
    6ec4:	8d000001 	stchi	0, cr0, [r0, #-4]
    6ec8:	09000001 	stmdbeq	r0, {r0}
    6ecc:	000000c7 	andeq	r0, r0, r7, asr #1
    6ed0:	2f0f0000 	svccs	0x000f0000
    6ed4:	2400000f 	strcs	r0, [r0], #-15
    6ed8:	02063505 	andeq	r3, r6, #20971520	; 0x1400000
    6edc:	e70b0000 	str	r0, [fp, -r0]
    6ee0:	0500000d 	streq	r0, [r0, #-13]
    6ee4:	00002537 	andeq	r2, r0, r7, lsr r5
    6ee8:	db0b0000 	blle	2c6ef0 <__bss_end__+0x2bad00>
    6eec:	05000010 	streq	r0, [r0, #-16]
    6ef0:	00002538 	andeq	r2, r0, r8, lsr r5
    6ef4:	150b0400 	strne	r0, [fp, #-1024]	; 0x400
    6ef8:	0500000e 	streq	r0, [r0, #-14]
    6efc:	00002539 	andeq	r2, r0, r9, lsr r5
    6f00:	a60b0800 	strge	r0, [fp], -r0, lsl #16
    6f04:	05000012 	streq	r0, [r0, #-18]
    6f08:	0000253a 	andeq	r2, r0, sl, lsr r5
    6f0c:	db0b0c00 	blle	2c9f14 <__bss_end__+0x2bdd24>
    6f10:	0500000f 	streq	r0, [r0, #-15]
    6f14:	0000253b 	andeq	r2, r0, fp, lsr r5
    6f18:	b00b1000 	andlt	r1, fp, r0
    6f1c:	0500000f 	streq	r0, [r0, #-15]
    6f20:	0000253c 	andeq	r2, r0, ip, lsr r5
    6f24:	c10b1400 	tstgt	fp, r0, lsl #8
    6f28:	05000011 	streq	r0, [r0, #-17]
    6f2c:	0000253d 	andeq	r2, r0, sp, lsr r5
    6f30:	2d0b1800 	stccs	8, cr1, [fp, #-0]
    6f34:	05000010 	streq	r0, [r0, #-16]
    6f38:	0000253e 	andeq	r2, r0, lr, lsr r5
    6f3c:	6d0b1c00 	stcvs	12, cr1, [fp, #-0]
    6f40:	05000012 	streq	r0, [r0, #-18]
    6f44:	0000253f 	andeq	r2, r0, pc, lsr r5
    6f48:	11002000 	mrsne	r2, (UNDEF: 0)
    6f4c:	00000e24 	andeq	r0, r0, r4, lsr #28
    6f50:	48050108 	stmdami	r5, {r3, r8}
    6f54:	00000246 	andeq	r0, r0, r6, asr #4
    6f58:	000ed00b 	andeq	sp, lr, fp
    6f5c:	46490500 	strbmi	r0, [r9], -r0, lsl #10
    6f60:	00000002 	andeq	r0, r0, r2
    6f64:	000d6c0b 	andeq	r6, sp, fp, lsl #24
    6f68:	464a0500 	strbmi	r0, [sl], -r0, lsl #10
    6f6c:	80000002 	andhi	r0, r0, r2
    6f70:	00116712 	andseq	r6, r1, r2, lsl r7
    6f74:	194c0500 	stmdbne	ip, {r8, sl}^
    6f78:	00000001 	andeq	r0, r0, r1
    6f7c:	0e491201 	cdpeq	2, 4, cr1, cr9, cr1, {0}
    6f80:	4f050000 	svcmi	0x00050000
    6f84:	00000119 	andeq	r0, r0, r9, lsl r1
    6f88:	08000104 	stmdaeq	r0, {r2, r8}
    6f8c:	00000105 	andeq	r0, r0, r5, lsl #2
    6f90:	00000256 	andeq	r0, r0, r6, asr r2
    6f94:	0000c709 	andeq	ip, r0, r9, lsl #14
    6f98:	11001f00 	tstne	r0, r0, lsl #30
    6f9c:	00000fe4 	andeq	r0, r0, r4, ror #31
    6fa0:	5b050190 	blpl	1475e8 <__bss_end__+0x13b3f8>
    6fa4:	00000294 	muleq	r0, r4, r2
    6fa8:	00106c0b 	andseq	r6, r0, fp, lsl #24
    6fac:	945c0500 	ldrbls	r0, [ip], #-1280	; 0x500
    6fb0:	00000002 	andeq	r0, r0, r2
    6fb4:	0010840b 	andseq	r8, r0, fp, lsl #8
    6fb8:	255d0500 	ldrbcs	r0, [sp, #-1280]	; 0x500
    6fbc:	04000000 	streq	r0, [r0], #-0
    6fc0:	000ee40b 	andeq	lr, lr, fp, lsl #8
    6fc4:	9a5f0500 	bls	17c83cc <__bss_end__+0x17bc1dc>
    6fc8:	08000002 	stmdaeq	r0, {r1}
    6fcc:	000e240b 	andeq	r2, lr, fp, lsl #8
    6fd0:	06600500 	strbteq	r0, [r0], -r0, lsl #10
    6fd4:	88000002 	stmdahi	r0, {r1}
    6fd8:	56040d00 	strpl	r0, [r4], -r0, lsl #26
    6fdc:	08000002 	stmdaeq	r0, {r1}
    6fe0:	000002aa 	andeq	r0, r0, sl, lsr #5
    6fe4:	000002aa 	andeq	r0, r0, sl, lsr #5
    6fe8:	0000c709 	andeq	ip, r0, r9, lsl #14
    6fec:	0d001f00 	stceq	15, cr1, [r0, #-0]
    6ff0:	0002b004 	andeq	fp, r2, r4
    6ff4:	370f1300 	strcc	r1, [pc, -r0, lsl #6]
    6ff8:	08000010 	stmdaeq	r0, {r4}
    6ffc:	02d67305 	sbcseq	r7, r6, #335544320	; 0x14000000
    7000:	0a0b0000 	beq	2c7008 <__bss_end__+0x2bae18>
    7004:	0500000e 	streq	r0, [r0, #-14]
    7008:	0002d674 	andeq	sp, r2, r4, ror r6
    700c:	780b0000 	stmdavc	fp, {}	; <UNPREDICTABLE>
    7010:	0500000d 	streq	r0, [r0, #-13]
    7014:	00002575 	andeq	r2, r0, r5, ror r5
    7018:	0d000400 	cfstrseq	mvf0, [r0, #-0]
    701c:	00004f04 	andeq	r4, r0, r4, lsl #30
    7020:	10560f00 	subsne	r0, r6, r0, lsl #30
    7024:	05680000 	strbeq	r0, [r8, #-0]!
    7028:	000406b3 			; <UNDEFINED> instruction: 0x000406b3
    702c:	705f1000 	subsvc	r1, pc, r0
    7030:	d6b40500 	ldrtle	r0, [r4], r0, lsl #10
    7034:	00000002 	andeq	r0, r0, r2
    7038:	00725f10 	rsbseq	r5, r2, r0, lsl pc
    703c:	0025b505 	eoreq	fp, r5, r5, lsl #10
    7040:	10040000 	andne	r0, r4, r0
    7044:	0500775f 	streq	r7, [r0, #-1887]	; 0x75f
    7048:	000025b6 			; <UNDEFINED> instruction: 0x000025b6
    704c:	420b0800 	andmi	r0, fp, #0, 16
    7050:	0500000e 	streq	r0, [r0, #-14]
    7054:	00003ab7 			; <UNDEFINED> instruction: 0x00003ab7
    7058:	550b0c00 	strpl	r0, [fp, #-3072]	; 0xc00
    705c:	0500000f 	streq	r0, [r0, #-15]
    7060:	00003ab8 			; <UNDEFINED> instruction: 0x00003ab8
    7064:	5f100e00 	svcpl	0x00100e00
    7068:	05006662 	streq	r6, [r0, #-1634]	; 0x662
    706c:	0002b1b9 			; <UNDEFINED> instruction: 0x0002b1b9
    7070:	b10b1000 	mrslt	r1, (UNDEF: 11)
    7074:	0500000d 	streq	r0, [r0, #-13]
    7078:	000025ba 			; <UNDEFINED> instruction: 0x000025ba
    707c:	320b1800 	andcc	r1, fp, #0, 16
    7080:	0500000e 	streq	r0, [r0, #-14]
    7084:	000105c1 	andeq	r0, r1, r1, asr #11
    7088:	cd0b1c00 	stcgt	12, cr1, [fp, #-0]
    708c:	05000012 	streq	r0, [r0, #-18]
    7090:	000561c3 	andeq	r6, r5, r3, asr #3
    7094:	e70b2000 	str	r2, [fp, -r0]
    7098:	05000012 	streq	r0, [r0, #-18]
    709c:	00058bc5 	andeq	r8, r5, r5, asr #23
    70a0:	c80b2400 	stmdagt	fp, {sl, sp}
    70a4:	05000010 	streq	r0, [r0, #-16]
    70a8:	0005afc8 	andeq	sl, r5, r8, asr #31
    70ac:	870b2800 	strhi	r2, [fp, -r0, lsl #16]
    70b0:	05000012 	streq	r0, [r0, #-18]
    70b4:	0005c9c9 	andeq	ip, r5, r9, asr #19
    70b8:	5f102c00 	svcpl	0x00102c00
    70bc:	05006275 	streq	r6, [r0, #-629]	; 0x275
    70c0:	0002b1cc 	andeq	fp, r2, ip, asr #3
    70c4:	5f103000 	svcpl	0x00103000
    70c8:	05007075 	streq	r7, [r0, #-117]	; 0x75
    70cc:	0002d6cd 	andeq	sp, r2, sp, asr #13
    70d0:	5f103800 	svcpl	0x00103800
    70d4:	05007275 	streq	r7, [r0, #-629]	; 0x275
    70d8:	000025ce 	andeq	r2, r0, lr, asr #11
    70dc:	f50b3c00 			; <UNDEFINED> instruction: 0xf50b3c00
    70e0:	0500000d 	streq	r0, [r0, #-13]
    70e4:	0005cfd1 	ldrdeq	ip, [r5], -r1
    70e8:	320b4000 	andcc	r4, fp, #0
    70ec:	05000012 	streq	r0, [r0, #-18]
    70f0:	0005dfd2 	ldrdeq	sp, [r5], -r2
    70f4:	5f104300 	svcpl	0x00104300
    70f8:	0500626c 	streq	r6, [r0, #-620]	; 0x26c
    70fc:	0002b1d5 	ldrdeq	fp, [r2], -r5
    7100:	580b4400 	stmdapl	fp, {sl, lr}
    7104:	0500000e 	streq	r0, [r0, #-14]
    7108:	000025d8 	ldrdeq	r2, [r0], -r8
    710c:	ba0b4c00 	blt	2da114 <__bss_end__+0x2cdf24>
    7110:	0500000f 	streq	r0, [r0, #-15]
    7114:	000076d9 	ldrdeq	r7, [r0], -r9
    7118:	1d0b5000 	stcne	0, cr5, [fp, #-0]
    711c:	05000012 	streq	r0, [r0, #-18]
    7120:	000424dc 	ldrdeq	r2, [r4], -ip
    7124:	a70b5400 	strge	r5, [fp, -r0, lsl #8]
    7128:	05000006 	streq	r0, [r0, #-6]
    712c:	0000fae0 	andeq	pc, r0, r0, ror #21
    7130:	5e0b5800 	cdppl	8, 0, cr5, cr11, cr0, {0}
    7134:	05000010 	streq	r0, [r0, #-16]
    7138:	0000efe2 	andeq	lr, r0, r2, ror #31
    713c:	a80b5c00 	stmdage	fp, {sl, fp, ip, lr}
    7140:	0500000f 	streq	r0, [r0, #-15]
    7144:	000025e3 	andeq	r2, r0, r3, ror #11
    7148:	14006400 	strne	r6, [r0], #-1024	; 0x400
    714c:	00000025 	andeq	r0, r0, r5, lsr #32
    7150:	00000424 	andeq	r0, r0, r4, lsr #8
    7154:	00042415 	andeq	r2, r4, r5, lsl r4
    7158:	01051500 	tsteq	r5, r0, lsl #10
    715c:	07150000 	ldreq	r0, [r5, -r0]
    7160:	15000001 	strne	r0, [r0, #-1]
    7164:	00000025 	andeq	r0, r0, r5, lsr #32
    7168:	2f040d00 	svccs	0x00040d00
    716c:	0e000004 	cdpeq	0, 0, cr0, cr0, cr4, {0}
    7170:	00000424 	andeq	r0, r0, r4, lsr #8
    7174:	0010ab16 	andseq	sl, r0, r6, lsl fp
    7178:	05042800 	streq	r2, [r4, #-2048]	; 0x800
    717c:	05610238 	strbeq	r0, [r1, #-568]!	; 0x238
    7180:	26170000 	ldrcs	r0, [r7], -r0
    7184:	05000010 	streq	r0, [r0, #-16]
    7188:	0025023a 	eoreq	r0, r5, sl, lsr r2
    718c:	17000000 	strne	r0, [r0, -r0]
    7190:	00000e51 	andeq	r0, r0, r1, asr lr
    7194:	36023f05 	strcc	r3, [r2], -r5, lsl #30
    7198:	04000006 	streq	r0, [r0], #-6
    719c:	000f4517 	andeq	r4, pc, r7, lsl r5	; <UNPREDICTABLE>
    71a0:	023f0500 	eorseq	r0, pc, #0, 10
    71a4:	00000636 	andeq	r0, r0, r6, lsr r6
    71a8:	0f061708 	svceq	0x00061708
    71ac:	3f050000 	svccc	0x00050000
    71b0:	00063602 	andeq	r3, r6, r2, lsl #12
    71b4:	7f170c00 	svcvc	0x00170c00
    71b8:	05000010 	streq	r0, [r0, #-16]
    71bc:	00250241 	eoreq	r0, r5, r1, asr #4
    71c0:	17100000 	ldrne	r0, [r0, -r0]
    71c4:	00000d86 	andeq	r0, r0, r6, lsl #27
    71c8:	18024205 	stmdane	r2, {r0, r2, r9, lr}
    71cc:	14000008 	strne	r0, [r0], #-8
    71d0:	00119d17 	andseq	r9, r1, r7, lsl sp
    71d4:	02440500 	subeq	r0, r4, #0, 10
    71d8:	00000025 	andeq	r0, r0, r5, lsr #32
    71dc:	10891730 	addne	r1, r9, r0, lsr r7
    71e0:	45050000 	strmi	r0, [r5, #-0]
    71e4:	00058502 	andeq	r8, r5, r2, lsl #10
    71e8:	ec173400 	cfldrs	mvf3, [r7], {-0}
    71ec:	0500000f 	streq	r0, [r0, #-15]
    71f0:	00250247 	eoreq	r0, r5, r7, asr #4
    71f4:	17380000 	ldrne	r0, [r8, -r0]!
    71f8:	00001099 	muleq	r0, r9, r0
    71fc:	33024905 	movwcc	r4, #10501	; 0x2905
    7200:	3c000008 	stccc	0, cr0, [r0], {8}
    7204:	000f8417 	andeq	r8, pc, r7, lsl r4	; <UNPREDICTABLE>
    7208:	024c0500 	subeq	r0, ip, #0, 10
    720c:	00000177 	andeq	r0, r0, r7, ror r1
    7210:	0f251740 	svceq	0x00251740
    7214:	4d050000 	stcmi	0, cr0, [r5, #-0]
    7218:	00002502 	andeq	r2, r0, r2, lsl #10
    721c:	a1174400 	tstge	r7, r0, lsl #8
    7220:	05000012 	streq	r0, [r0, #-18]
    7224:	0177024e 	cmneq	r7, lr, asr #4
    7228:	17480000 	strbne	r0, [r8, -r0]
    722c:	00001003 	andeq	r1, r0, r3
    7230:	39024f05 	stmdbcc	r2, {r0, r2, r8, r9, sl, fp, lr}
    7234:	4c000008 	stcmi	0, cr0, [r0], {8}
    7238:	000f4d17 	andeq	r4, pc, r7, lsl sp	; <UNPREDICTABLE>
    723c:	02520500 	subseq	r0, r2, #0, 10
    7240:	00000025 	andeq	r0, r0, r5, lsr #32
    7244:	0e741750 	mrceq	7, 3, r1, cr4, cr0, {2}
    7248:	53050000 	movwpl	r0, #20480	; 0x5000
    724c:	00010702 	andeq	r0, r1, r2, lsl #14
    7250:	1f175400 	svcne	0x00175400
    7254:	05000010 	streq	r0, [r0, #-16]
    7258:	07f60276 			; <UNDEFINED> instruction: 0x07f60276
    725c:	18580000 	ldmdane	r8, {}^	; <UNPREDICTABLE>
    7260:	00000fe4 	andeq	r0, r0, r4, ror #31
    7264:	94027a05 	strls	r7, [r2], #-2565	; 0xa05
    7268:	48000002 	stmdami	r0, {r1}
    726c:	0f621801 	svceq	0x00621801
    7270:	7b050000 	blvc	147278 <__bss_end__+0x13b088>
    7274:	00025602 	andeq	r5, r2, r2, lsl #12
    7278:	18014c00 	stmdane	r1, {sl, fp, lr}
    727c:	00001203 	andeq	r1, r0, r3, lsl #4
    7280:	4a027f05 	bmi	a6e9c <__bss_end__+0x9acac>
    7284:	dc000008 	stcle	0, cr0, [r0], {8}
    7288:	0e3a1802 	cdpeq	8, 3, cr1, cr10, cr2, {0}
    728c:	84050000 	strhi	r0, [r5], #-0
    7290:	0005fb02 	andeq	pc, r5, r2, lsl #22
    7294:	1802e000 	stmdane	r2, {sp, lr, pc}
    7298:	00000e1f 	andeq	r0, r0, pc, lsl lr
    729c:	56028505 	strpl	r8, [r2], -r5, lsl #10
    72a0:	ec000008 	stc	0, cr0, [r0], {8}
    72a4:	040d0002 	streq	r0, [sp], #-2
    72a8:	00000406 	andeq	r0, r0, r6, lsl #8
    72ac:	00002514 	andeq	r2, r0, r4, lsl r5
    72b0:	00058500 	andeq	r8, r5, r0, lsl #10
    72b4:	04241500 	strteq	r1, [r4], #-1280	; 0x500
    72b8:	05150000 	ldreq	r0, [r5, #-0]
    72bc:	15000001 	strne	r0, [r0, #-1]
    72c0:	00000585 	andeq	r0, r0, r5, lsl #11
    72c4:	00002515 	andeq	r2, r0, r5, lsl r5
    72c8:	040d0000 	streq	r0, [sp], #-0
    72cc:	00000114 	andeq	r0, r0, r4, lsl r1
    72d0:	0567040d 	strbeq	r0, [r7, #-1037]!	; 0x40d
    72d4:	81140000 	tsthi	r4, r0
    72d8:	af000000 	svcge	0x00000000
    72dc:	15000005 	strne	r0, [r0, #-5]
    72e0:	00000424 	andeq	r0, r0, r4, lsr #8
    72e4:	00010515 	andeq	r0, r1, r5, lsl r5
    72e8:	00811500 	addeq	r1, r1, r0, lsl #10
    72ec:	25150000 	ldrcs	r0, [r5, #-0]
    72f0:	00000000 	andeq	r0, r0, r0
    72f4:	0591040d 	ldreq	r0, [r1, #1037]	; 0x40d
    72f8:	25140000 	ldrcs	r0, [r4, #-0]
    72fc:	c9000000 	stmdbgt	r0, {}	; <UNPREDICTABLE>
    7300:	15000005 	strne	r0, [r0, #-5]
    7304:	00000424 	andeq	r0, r0, r4, lsr #8
    7308:	00010515 	andeq	r0, r1, r5, lsl r5
    730c:	040d0000 	streq	r0, [sp], #-0
    7310:	000005b5 			; <UNDEFINED> instruction: 0x000005b5
    7314:	00004f08 	andeq	r4, r0, r8, lsl #30
    7318:	0005df00 	andeq	sp, r5, r0, lsl #30
    731c:	00c70900 	sbceq	r0, r7, r0, lsl #18
    7320:	00020000 	andeq	r0, r2, r0
    7324:	00004f08 	andeq	r4, r0, r8, lsl #30
    7328:	0005ef00 	andeq	lr, r5, r0, lsl #30
    732c:	00c70900 	sbceq	r0, r7, r0, lsl #18
    7330:	00000000 	andeq	r0, r0, r0
    7334:	00104405 	andseq	r4, r0, r5, lsl #8
    7338:	011d0500 	tsteq	sp, r0, lsl #10
    733c:	000002dc 	ldrdeq	r0, [r0], -ip
    7340:	0011cb19 	andseq	ip, r1, r9, lsl fp
    7344:	21050c00 	tstcs	r5, r0, lsl #24
    7348:	00063001 	andeq	r3, r6, r1
    734c:	106c1700 	rsbne	r1, ip, r0, lsl #14
    7350:	23050000 	movwcs	r0, #20480	; 0x5000
    7354:	00063001 	andeq	r3, r6, r1
    7358:	5b170000 	blpl	5c7360 <__bss_end__+0x5bb170>
    735c:	0500000f 	streq	r0, [r0, #-15]
    7360:	00250124 	eoreq	r0, r5, r4, lsr #2
    7364:	17040000 	strne	r0, [r4, -r0]
    7368:	0000103e 	andeq	r1, r0, lr, lsr r0
    736c:	36012505 	strcc	r2, [r1], -r5, lsl #10
    7370:	08000006 	stmdaeq	r0, {r1, r2}
    7374:	fb040d00 	blx	10a77e <__bss_end__+0xfe58e>
    7378:	0d000005 	stceq	0, cr0, [r0, #-20]	; 0xffffffec
    737c:	0005ef04 	andeq	lr, r5, r4, lsl #30
    7380:	0d7e1900 	ldcleq	9, cr1, [lr, #-0]
    7384:	050e0000 	streq	r0, [lr, #-0]
    7388:	0671013d 			; <UNDEFINED> instruction: 0x0671013d
    738c:	b2170000 	andslt	r0, r7, #0
    7390:	05000010 	streq	r0, [r0, #-16]
    7394:	0671013e 			; <UNDEFINED> instruction: 0x0671013e
    7398:	17000000 	strne	r0, [r0, -r0]
    739c:	000010ec 	andeq	r1, r0, ip, ror #1
    73a0:	71013f05 	tstvc	r1, r5, lsl #30
    73a4:	06000006 	streq	r0, [r0], -r6
    73a8:	00117017 	andseq	r7, r1, r7, lsl r0
    73ac:	01400500 	cmpeq	r0, r0, lsl #10
    73b0:	00000056 	andeq	r0, r0, r6, asr r0
    73b4:	5608000c 	strpl	r0, [r8], -ip
    73b8:	81000000 	mrshi	r0, (UNDEF: 0)
    73bc:	09000006 	stmdbeq	r0, {r1, r2}
    73c0:	000000c7 	andeq	r0, r0, r7, asr #1
    73c4:	d01a0002 	andsle	r0, sl, r2
    73c8:	82025705 	andhi	r5, r2, #1310720	; 0x140000
    73cc:	17000007 	strne	r0, [r0, -r7]
    73d0:	000011af 	andeq	r1, r0, pc, lsr #3
    73d4:	2c025905 	stccs	9, cr5, [r2], {5}
    73d8:	00000000 	andeq	r0, r0, r0
    73dc:	00115a17 	andseq	r5, r1, r7, lsl sl
    73e0:	025a0500 	subseq	r0, sl, #0, 10
    73e4:	00000107 	andeq	r0, r0, r7, lsl #2
    73e8:	0f771704 	svceq	0x00771704
    73ec:	5b050000 	blpl	1473f4 <__bss_end__+0x13b204>
    73f0:	00078202 	andeq	r8, r7, r2, lsl #4
    73f4:	78170800 	ldmdavc	r7, {fp}
    73f8:	05000012 	streq	r0, [r0, #-18]
    73fc:	018d025c 	orreq	r0, sp, ip, asr r2
    7400:	17240000 	strne	r0, [r4, -r0]!
    7404:	00000f16 	andeq	r0, r0, r6, lsl pc
    7408:	25025d05 	strcs	r5, [r2, #-3333]	; 0xd05
    740c:	48000000 	stmdami	r0, {}	; <UNPREDICTABLE>
    7410:	00106717 	andseq	r6, r0, r7, lsl r7
    7414:	025e0500 	subseq	r0, lr, #0, 10
    7418:	00000064 	andeq	r0, r0, r4, rrx
    741c:	128e1750 	addne	r1, lr, #80, 14	; 0x1400000
    7420:	5f050000 	svcpl	0x00050000
    7424:	00063c02 	andeq	r3, r6, r2, lsl #24
    7428:	72175800 	andsvc	r5, r7, #0, 16
    742c:	05000010 	streq	r0, [r0, #-16]
    7430:	00ef0260 	rsceq	r0, pc, r0, ror #4
    7434:	17680000 	strbne	r0, [r8, -r0]!
    7438:	00001293 	muleq	r0, r3, r2
    743c:	ef026105 	svc	0x00026105
    7440:	70000000 	andvc	r0, r0, r0
    7444:	000dd917 	andeq	sp, sp, r7, lsl r9
    7448:	02620500 	rsbeq	r0, r2, #0, 10
    744c:	000000ef 	andeq	r0, r0, pc, ror #1
    7450:	11eb1778 	mvnne	r1, r8, ror r7
    7454:	63050000 	movwvs	r0, #20480	; 0x5000
    7458:	00079202 	andeq	r9, r7, r2, lsl #4
    745c:	6b178000 	blvs	5e7464 <__bss_end__+0x5db274>
    7460:	0500000f 	streq	r0, [r0, #-15]
    7464:	07a20264 	streq	r0, [r2, r4, ror #4]!
    7468:	17880000 	strne	r0, [r8, r0]
    746c:	0000117d 	andeq	r1, r0, sp, ror r1
    7470:	25026505 	strcs	r6, [r2, #-1285]	; 0x505
    7474:	a0000000 	andge	r0, r0, r0
    7478:	000ec217 	andeq	ip, lr, r7, lsl r2
    747c:	02660500 	rsbeq	r0, r6, #0, 10
    7480:	000000ef 	andeq	r0, r0, pc, ror #1
    7484:	0dca17a4 	stcleq	7, cr1, [sl, #656]	; 0x290
    7488:	67050000 	strvs	r0, [r5, -r0]
    748c:	0000ef02 	andeq	lr, r0, r2, lsl #30
    7490:	b117ac00 	tstlt	r7, r0, lsl #24
    7494:	0500000e 	streq	r0, [r0, #-14]
    7498:	00ef0268 	rsceq	r0, pc, r8, ror #4
    749c:	17b40000 	ldrne	r0, [r4, r0]!
    74a0:	00000d91 	muleq	r0, r1, sp
    74a4:	ef026905 	svc	0x00026905
    74a8:	bc000000 	stclt	0, cr0, [r0], {-0}
    74ac:	000da017 	andeq	sl, sp, r7, lsl r0
    74b0:	026a0500 	rsbeq	r0, sl, #0, 10
    74b4:	000000ef 	andeq	r0, r0, pc, ror #1
    74b8:	102417c4 	eorne	r1, r4, r4, asr #15
    74bc:	6b050000 	blvs	1474c4 <__bss_end__+0x13b2d4>
    74c0:	00002502 	andeq	r2, r0, r2, lsl #10
    74c4:	0800cc00 	stmdaeq	r0, {sl, fp, lr, pc}
    74c8:	0000010d 	andeq	r0, r0, sp, lsl #2
    74cc:	00000792 	muleq	r0, r2, r7
    74d0:	0000c709 	andeq	ip, r0, r9, lsl #14
    74d4:	08001900 	stmdaeq	r0, {r8, fp, ip}
    74d8:	0000010d 	andeq	r0, r0, sp, lsl #2
    74dc:	000007a2 	andeq	r0, r0, r2, lsr #15
    74e0:	0000c709 	andeq	ip, r0, r9, lsl #14
    74e4:	08000700 	stmdaeq	r0, {r8, r9, sl}
    74e8:	0000010d 	andeq	r0, r0, sp, lsl #2
    74ec:	000007b2 			; <UNDEFINED> instruction: 0x000007b2
    74f0:	0000c709 	andeq	ip, r0, r9, lsl #14
    74f4:	1a001700 	bne	d0fc <__bss_end__+0xf0c>
    74f8:	027005f0 	rsbseq	r0, r0, #240, 10	; 0x3c000000
    74fc:	000007d6 	ldrdeq	r0, [r0], -r6
    7500:	000fd417 	andeq	sp, pc, r7, lsl r4	; <UNPREDICTABLE>
    7504:	02730500 	rsbseq	r0, r3, #0, 10
    7508:	000007d6 	ldrdeq	r0, [r0], -r6
    750c:	11e21700 	mvnne	r1, r0, lsl #14
    7510:	74050000 	strvc	r0, [r5], #-0
    7514:	0007e602 	andeq	lr, r7, r2, lsl #12
    7518:	08007800 	stmdaeq	r0, {fp, ip, sp, lr}
    751c:	000002d6 	ldrdeq	r0, [r0], -r6
    7520:	000007e6 	andeq	r0, r0, r6, ror #15
    7524:	0000c709 	andeq	ip, r0, r9, lsl #14
    7528:	08001d00 	stmdaeq	r0, {r8, sl, fp, ip}
    752c:	0000002c 	andeq	r0, r0, ip, lsr #32
    7530:	000007f6 	strdeq	r0, [r0], -r6
    7534:	0000c709 	andeq	ip, r0, r9, lsl #14
    7538:	1b001d00 	blne	e940 <__bss_end__+0x2750>
    753c:	025505f0 	subseq	r0, r5, #240, 10	; 0x3c000000
    7540:	00000818 	andeq	r0, r0, r8, lsl r8
    7544:	0010ab1c 	andseq	sl, r0, ip, lsl fp
    7548:	026c0500 	rsbeq	r0, ip, #0, 10
    754c:	00000681 	andeq	r0, r0, r1, lsl #13
    7550:	0012381c 	andseq	r3, r2, ip, lsl r8
    7554:	02750500 	rsbseq	r0, r5, #0, 10
    7558:	000007b2 			; <UNDEFINED> instruction: 0x000007b2
    755c:	010d0800 	tsteq	sp, r0, lsl #16
    7560:	08280000 	stmdaeq	r8!, {}	; <UNPREDICTABLE>
    7564:	c7090000 	strgt	r0, [r9, -r0]
    7568:	18000000 	stmdane	r0, {}	; <UNPREDICTABLE>
    756c:	08331d00 	ldmdaeq	r3!, {r8, sl, fp, ip}
    7570:	24150000 	ldrcs	r0, [r5], #-0
    7574:	00000004 	andeq	r0, r0, r4
    7578:	0828040d 	stmdaeq	r8!, {r0, r2, r3, sl}
    757c:	040d0000 	streq	r0, [sp], #-0
    7580:	00000177 	andeq	r0, r0, r7, ror r1
    7584:	00084a1d 	andeq	r4, r8, sp, lsl sl
    7588:	00251500 	eoreq	r1, r5, r0, lsl #10
    758c:	0d000000 	stceq	0, cr0, [r0, #-0]
    7590:	00085004 	andeq	r5, r8, r4
    7594:	3f040d00 	svccc	0x00040d00
    7598:	08000008 	stmdaeq	r0, {r3}
    759c:	000005ef 	andeq	r0, r0, pc, ror #11
    75a0:	00000866 	andeq	r0, r0, r6, ror #16
    75a4:	0000c709 	andeq	ip, r0, r9, lsl #14
    75a8:	1e000200 	cdpne	2, 0, cr0, cr0, cr0, {0}
    75ac:	00001191 	muleq	r0, r1, r1
    75b0:	2402fd05 	strcs	pc, [r2], #-3333	; 0xd05
    75b4:	1e000004 	cdpne	0, 0, cr0, cr0, cr4, {0}
    75b8:	0000118a 	andeq	r1, r0, sl, lsl #3
    75bc:	2a02fe05 	bcs	c6dd8 <__bss_end__+0xbabe8>
    75c0:	14000004 	strne	r0, [r0], #-4
    75c4:	00000025 	andeq	r0, r0, r5, lsr #32
    75c8:	0000088d 	andeq	r0, r0, sp, lsl #17
    75cc:	00002515 	andeq	r2, r0, r5, lsl r5
    75d0:	7b1f0000 	blvc	7c75d8 <__bss_end__+0x7bb3e8>
    75d4:	06000009 	streq	r0, [r0], -r9
    75d8:	0008981d 	andeq	r9, r8, sp, lsl r8
    75dc:	7e040d00 	cdpvc	13, 0, cr0, cr4, cr0, {0}
    75e0:	14000008 	strne	r0, [r0], #-8
    75e4:	00000025 	andeq	r0, r0, r5, lsr #32
    75e8:	000008ad 	andeq	r0, r0, sp, lsr #17
    75ec:	00058515 	andeq	r8, r5, r5, lsl r5
    75f0:	b81f0000 	ldmdalt	pc, {}	; <UNPREDICTABLE>
    75f4:	06000009 	streq	r0, [r0], -r9
    75f8:	0008b822 	andeq	fp, r8, r2, lsr #16
    75fc:	9e040d00 	cdpls	13, 0, cr0, cr4, cr0, {0}
    7600:	03000008 	movweq	r0, #8
    7604:	134a0408 	movtne	r0, #41992	; 0xa408
    7608:	951f0000 	ldrls	r0, [pc, #-0]	; 7610 <__code_start__-0x9f0>
    760c:	01000013 	tsteq	r0, r3, lsl r0
    7610:	00010d0d 	andeq	r0, r1, sp, lsl #26
    7614:	13b72000 			; <UNDEFINED> instruction: 0x13b72000
    7618:	0e010000 	cdpeq	0, 0, cr0, cr1, cr0, {0}
    761c:	00000107 	andeq	r0, r0, r7, lsl #2
    7620:	ade00305 	stclge	3, cr0, [r0, #20]!
    7624:	ac200000 	stcge	0, cr0, [r0], #-0
    7628:	01000013 	tsteq	r0, r3, lsl r0
    762c:	0001070f 	andeq	r0, r1, pc, lsl #14
    7630:	e4030500 	str	r0, [r3], #-1280	; 0x500
    7634:	210000ad 	smlatbcs	r0, sp, r0, r0
    7638:	00001378 	andeq	r1, r0, r8, ror r3
    763c:	adc43801 	stclge	8, cr3, [r4, #4]
    7640:	00100000 	andseq	r0, r0, r0
    7644:	9c010000 	stcls	0, cr0, [r1], {-0}
    7648:	00000913 	andeq	r0, r0, r3, lsl r9
    764c:	01007022 	tsteq	r0, r2, lsr #32
    7650:	00010538 	andeq	r0, r1, r8, lsr r5
    7654:	00500100 	subseq	r0, r0, r0, lsl #2
    7658:	00135123 	andseq	r5, r3, r3, lsr #2
    765c:	b0370100 	eorslt	r0, r7, r0, lsl #2
    7660:	140000ad 	strne	r0, [r0], #-173	; 0xad
    7664:	01000000 	mrseq	r0, (UNDEF: 0)
    7668:	1372219c 	cmnne	r2, #156, 2	; 0x27
    766c:	36010000 	strcc	r0, [r1], -r0
    7670:	0000adac 	andeq	sl, r0, ip, lsr #27
    7674:	00000004 	andeq	r0, r0, r4
    7678:	09459c01 	stmdbeq	r5, {r0, sl, fp, ip, pc}^
    767c:	70220000 	eorvc	r0, r2, r0
    7680:	05360100 	ldreq	r0, [r6, #-256]!	; 0x100
    7684:	01000001 	tsteq	r0, r1
    7688:	8c240050 	stchi	0, cr0, [r4], #-320	; 0xfffffec0
    768c:	01000002 	tsteq	r0, r2
    7690:	00010529 	andeq	r0, r1, r9, lsr #10
    7694:	00ad2000 	adceq	r2, sp, r0
    7698:	00008c00 	andeq	r8, r0, r0, lsl #24
    769c:	309c0100 	addscc	r0, ip, r0, lsl #2
    76a0:	2500000a 	strcs	r0, [r0, #-10]
    76a4:	000003e4 	andeq	r0, r0, r4, ror #7
    76a8:	002c2901 	eoreq	r2, ip, r1, lsl #18
    76ac:	1ed80000 	cdpne	0, 13, cr0, cr8, cr0, {0}
    76b0:	5d250000 	stcpl	0, cr0, [r5, #-0]
    76b4:	01000002 	tsteq	r0, r2
    76b8:	00002c29 	andeq	r2, r0, r9, lsr #24
    76bc:	001f2b00 	andseq	r2, pc, r0, lsl #22
    76c0:	00632600 	rsbeq	r2, r3, r0, lsl #12
    76c4:	0a400000 	beq	10076cc <__bss_end__+0xffb4dc>
    76c8:	03050000 	movweq	r0, #20480	; 0x5000
    76cc:	0000bcd4 	ldrdeq	fp, [r0], -r4
    76d0:	01006827 	tsteq	r0, r7, lsr #16
    76d4:	00002c2e 	andeq	r2, r0, lr, lsr #24
    76d8:	001f7200 	andseq	r7, pc, r0, lsl #4
    76dc:	ad5c2800 	ldclge	8, cr2, [ip, #-0]
    76e0:	0a790000 	beq	1e476e8 <__bss_end__+0x1e3b4f8>
    76e4:	09ad0000 	stmibeq	sp!, {}	; <UNPREDICTABLE>
    76e8:	01290000 	teqeq	r9, r0
    76ec:	01f30350 	mvnseq	r0, r0, asr r3
    76f0:	642a0050 	strtvs	r0, [sl], #-80	; 0x50
    76f4:	fb0000ad 	blx	79b2 <__code_start__-0x64e>
    76f8:	2800000b 	stmdacs	r0, {r0, r1, r3}
    76fc:	0000ad78 	andeq	sl, r0, r8, ror sp
    7700:	00000c06 	andeq	r0, r0, r6, lsl #24
    7704:	000009e5 	andeq	r0, r0, r5, ror #19
    7708:	05500129 	ldrbeq	r0, [r0, #-297]	; 0x129
    770c:	00bd2003 	adcseq	r2, sp, r3
    7710:	51012900 	tstpl	r1, r0, lsl #18
    7714:	bce40305 	stcllt	3, cr0, [r4], #20
    7718:	01290000 	teqeq	r9, r0
    771c:	d4030552 	strle	r0, [r3], #-1362	; 0x552
    7720:	290000bc 	stmdbcs	r0, {r2, r3, r4, r5, r7}
    7724:	08025301 	stmdaeq	r2, {r0, r8, r9, ip, lr}
    7728:	7c2a002a 	stcvc	0, cr0, [sl], #-168	; 0xffffff58
    772c:	110000ad 	smlatbne	r0, sp, r0, r0
    7730:	2a00000c 	bcs	7768 <__code_start__-0x898>
    7734:	0000ad80 	andeq	sl, r0, r0, lsl #27
    7738:	00000bfb 	strdeq	r0, [r0], -fp
    773c:	00ad9428 	adceq	r9, sp, r8, lsr #8
    7740:	000c0600 	andeq	r0, ip, r0, lsl #12
    7744:	000a2600 	andeq	r2, sl, r0, lsl #12
    7748:	50012900 	andpl	r2, r1, r0, lsl #18
    774c:	bd800305 	stclt	3, cr0, [r0, #20]
    7750:	01290000 	teqeq	r9, r0
    7754:	e4030551 	str	r0, [r3], #-1361	; 0x551
    7758:	290000bc 	stmdbcs	r0, {r2, r3, r4, r5, r7}
    775c:	03055201 	movweq	r5, #20993	; 0x5201
    7760:	0000bcd4 	ldrdeq	fp, [r0], -r4
    7764:	02530129 	subseq	r0, r3, #1073741834	; 0x4000000a
    7768:	2a003008 	bcs	13790 <__bss_end__+0x75a0>
    776c:	0000ad98 	muleq	r0, r8, sp
    7770:	00000c11 	andeq	r0, r0, r1, lsl ip
    7774:	01140800 	tsteq	r4, r0, lsl #16
    7778:	0a400000 	beq	1007780 <__bss_end__+0xffb590>
    777c:	c7090000 	strgt	r0, [r9, -r0]
    7780:	0f000000 	svceq	0x00000000
    7784:	0a300e00 	beq	c0af8c <__bss_end__+0xbfed9c>
    7788:	84240000 	strthi	r0, [r4], #-0
    778c:	01000013 	tsteq	r0, r3, lsl r0
    7790:	00010525 	andeq	r0, r1, r5, lsr #10
    7794:	00ad1400 	adceq	r1, sp, r0, lsl #8
    7798:	00000c00 	andeq	r0, r0, r0, lsl #24
    779c:	689c0100 	ldmvs	ip, {r8}
    77a0:	2a00000a 	bcs	77d0 <__code_start__-0x830>
    77a4:	0000ad1c 	andeq	sl, r0, ip, lsl sp
    77a8:	00000bd1 	ldrdeq	r0, [r0], -r1
    77ac:	133d2300 	teqne	sp, #0, 6
    77b0:	24010000 	strcs	r0, [r1], #-0
    77b4:	0000ad10 	andeq	sl, r0, r0, lsl sp
    77b8:	00000004 	andeq	r0, r0, r4
    77bc:	cd249c01 	stcgt	12, cr9, [r4, #-4]!
    77c0:	01000013 	tsteq	r0, r3, lsl r0
    77c4:	0001051a 	andeq	r0, r1, sl, lsl r5
    77c8:	00acac00 	adceq	sl, ip, r0, lsl #24
    77cc:	00006400 	andeq	r6, r0, r0, lsl #8
    77d0:	249c0100 	ldrcs	r0, [ip], #256	; 0x100
    77d4:	2b00000b 	blcs	7808 <__code_start__-0x7f8>
    77d8:	01007a73 	tsteq	r0, r3, ror sl
    77dc:	00002c1a 	andeq	r2, r0, sl, lsl ip
    77e0:	001faa00 	andseq	sl, pc, r0, lsl #20
    77e4:	00632600 	rsbeq	r2, r3, r0, lsl #12
    77e8:	0b340000 	bleq	d077f0 <__bss_end__+0xcfb600>
    77ec:	03050000 	movweq	r0, #20480	; 0x5000
    77f0:	0000bccc 	andeq	fp, r0, ip, asr #25
    77f4:	0002a52c 	andeq	sl, r2, ip, lsr #10
    77f8:	051e0100 	ldreq	r0, [lr, #-256]	; 0x100
    77fc:	f4000001 	vst4.8	{d0-d3}, [r0], r1
    7800:	2800001f 	stmdacs	r0, {r0, r1, r2, r3, r4}
    7804:	0000acdc 	ldrdeq	sl, [r0], -ip
    7808:	00000c1c 	andeq	r0, r0, ip, lsl ip
    780c:	00000ae3 	andeq	r0, r0, r3, ror #21
    7810:	02500129 	subseq	r0, r0, #1073741834	; 0x4000000a
    7814:	01290074 	teqeq	r9, r4, ror r0
    7818:	29300151 	ldmdbcs	r0!, {r0, r4, r6, r8}
    781c:	f3085201 	vhsub.u8	d5, d8, d1
    7820:	07235001 	streq	r5, [r3, -r1]!
    7824:	001af809 	andseq	pc, sl, r9, lsl #16
    7828:	00ace82a 	adceq	lr, ip, sl, lsr #16
    782c:	000bfb00 	andeq	pc, fp, r0, lsl #22
    7830:	acfc2800 	ldclge	8, cr2, [ip]
    7834:	0c060000 	stceq	0, cr0, [r6], {-0}
    7838:	0b1a0000 	bleq	687840 <__bss_end__+0x67b650>
    783c:	01290000 	teqeq	r9, r0
    7840:	0c030550 	cfstr32eq	mvfx0, [r3], {80}	; 0x50
    7844:	290000bd 	stmdbcs	r0, {r0, r2, r3, r4, r5, r7}
    7848:	03055101 	movweq	r5, #20737	; 0x5101
    784c:	0000bce4 	andeq	fp, r0, r4, ror #25
    7850:	05520129 	ldrbeq	r0, [r2, #-297]	; 0x129
    7854:	00bccc03 	adcseq	ip, ip, r3, lsl #24
    7858:	53012900 	movwpl	r2, #6400	; 0x1900
    785c:	2a004b01 	bcs	1a468 <__bss_end__+0xe278>
    7860:	0000ad00 	andeq	sl, r0, r0, lsl #26
    7864:	00000c11 	andeq	r0, r0, r1, lsl ip
    7868:	01140800 	tsteq	r4, r0, lsl #16
    786c:	0b340000 	bleq	d07874 <__bss_end__+0xcfb684>
    7870:	c7090000 	strgt	r0, [r9, -r0]
    7874:	07000000 	streq	r0, [r0, -r0]
    7878:	0b240e00 	bleq	90b080 <__bss_end__+0x8fee90>
    787c:	5b210000 	blpl	847884 <__bss_end__+0x83b694>
    7880:	01000013 	tsteq	r0, r3, lsl r0
    7884:	00ac5c14 	adceq	r5, ip, r4, lsl ip
    7888:	00005000 	andeq	r5, r0, r0
    788c:	bc9c0100 	ldflts	f0, [ip], {0}
    7890:	2500000b 	strcs	r0, [r0, #-11]
    7894:	000002a4 	andeq	r0, r0, r4, lsr #5
    7898:	002c1401 	eoreq	r1, ip, r1, lsl #8
    789c:	20070000 	andcs	r0, r7, r0
    78a0:	a52c0000 	strge	r0, [ip, #-0]!
    78a4:	01000002 	tsteq	r0, r2
    78a8:	00010715 	andeq	r0, r1, r5, lsl r7
    78ac:	00202800 	eoreq	r2, r0, r0, lsl #16
    78b0:	00632600 	rsbeq	r2, r3, r0, lsl #12
    78b4:	0bcc0000 	bleq	ff3078bc <__bss_end__+0xff2fb6cc>
    78b8:	03050000 	movweq	r0, #20480	; 0x5000
    78bc:	0000bcb4 			; <UNDEFINED> instruction: 0x0000bcb4
    78c0:	00ac842a 	adceq	r8, ip, sl, lsr #8
    78c4:	000bfb00 	andeq	pc, fp, r0, lsl #22
    78c8:	ac982800 	ldcge	8, cr2, [r8], {0}
    78cc:	0c060000 	stceq	0, cr0, [r6], {-0}
    78d0:	0bb20000 	bleq	fec878d8 <__bss_end__+0xfec7b6e8>
    78d4:	01290000 	teqeq	r9, r0
    78d8:	f0030550 			; <UNDEFINED> instruction: 0xf0030550
    78dc:	290000bc 	stmdbcs	r0, {r2, r3, r4, r5, r7}
    78e0:	03055101 	movweq	r5, #20737	; 0x5101
    78e4:	0000bce4 	andeq	fp, r0, r4, ror #25
    78e8:	05520129 	ldrbeq	r0, [r2, #-297]	; 0x129
    78ec:	00bcb403 	adcseq	fp, ip, r3, lsl #8
    78f0:	53012900 	movwpl	r2, #6400	; 0x1900
    78f4:	2a004601 	bcs	19100 <__bss_end__+0xcf10>
    78f8:	0000ac9c 	muleq	r0, ip, ip
    78fc:	00000c11 	andeq	r0, r0, r1, lsl ip
    7900:	01140800 	tsteq	r4, r0, lsl #16
    7904:	0bcc0000 	bleq	ff30790c <__bss_end__+0xff2fb71c>
    7908:	c7090000 	strgt	r0, [r9, -r0]
    790c:	16000000 	strne	r0, [r0], -r0
    7910:	0bbc0e00 	bleq	fef0b118 <__bss_end__+0xfeefef28>
    7914:	a42d0000 	strtge	r0, [sp], #-0
    7918:	01000013 	tsteq	r0, r3, lsl r0
    791c:	00010512 	andeq	r0, r1, r2, lsl r5
    7920:	00ac5000 	adceq	r5, ip, r0
    7924:	00000c00 	andeq	r0, r0, r0, lsl #24
    7928:	2d9c0100 	ldfcss	f0, [ip]
    792c:	000013bc 			; <UNDEFINED> instruction: 0x000013bc
    7930:	01051101 	tsteq	r5, r1, lsl #2
    7934:	ac400000 	marge	acc0, r0, r0
    7938:	00100000 	andseq	r0, r0, r0
    793c:	9c010000 	stcls	0, cr0, [r1], {-0}
    7940:	0001c22e 	andeq	ip, r1, lr, lsr #4
    7944:	0001c200 	andeq	ip, r1, r0, lsl #4
    7948:	2e1e0600 	cfmsub32cs	mvax0, mvfx0, mvfx14, mvfx0
    794c:	0000094a 	andeq	r0, r0, sl, asr #18
    7950:	0000094a 	andeq	r0, r0, sl, asr #18
    7954:	202e2906 	eorcs	r2, lr, r6, lsl #18
    7958:	20000000 	andcs	r0, r0, r0
    795c:	06000000 	streq	r0, [r0], -r0
    7960:	04ce2e65 	strbeq	r2, [lr], #3685	; 0xe65
    7964:	04ce0000 	strbeq	r0, [lr], #0
    7968:	19070000 	stmdbne	r7, {}	; <UNPREDICTABLE>
	...

Disassembly of section .debug_abbrev:

00000000 <.debug_abbrev>:
       0:	25011101 	strcs	r1, [r1, #-257]	; 0x101
       4:	030b130e 	movweq	r1, #45838	; 0xb30e
       8:	110e1b0e 	tstne	lr, lr, lsl #22
       c:	10061201 	andne	r1, r6, r1, lsl #4
      10:	02000017 	andeq	r0, r0, #23
      14:	0b0b0024 	bleq	2c00ac <__bss_end__+0x2b3ebc>
      18:	08030b3e 	stmdaeq	r3, {r1, r2, r3, r4, r5, r8, r9, fp}
      1c:	24030000 	strcs	r0, [r3], #-0
      20:	3e0b0b00 	vmlacc.f64	d0, d11, d0
      24:	000e030b 	andeq	r0, lr, fp, lsl #6
      28:	000f0400 	andeq	r0, pc, r0, lsl #8
      2c:	13490b0b 	movtne	r0, #39691	; 0x9b0b
      30:	26050000 	strcs	r0, [r5], -r0
      34:	00134900 	andseq	r4, r3, r0, lsl #18
      38:	01010600 	tsteq	r1, r0, lsl #12
      3c:	13011349 	movwne	r1, #4937	; 0x1349
      40:	21070000 	mrscs	r0, (UNDEF: 7)
      44:	2f134900 	svccs	0x00134900
      48:	0800000b 	stmdaeq	r0, {r0, r1, r3}
      4c:	193f012e 	ldmdbne	pc!, {r1, r2, r3, r5, r8}	; <UNPREDICTABLE>
      50:	0b3a0e03 	bleq	e83864 <__bss_end__+0xe77674>
      54:	19270b3b 	stmdbne	r7!, {r0, r1, r3, r4, r5, r8, r9, fp}
      58:	06120111 			; <UNDEFINED> instruction: 0x06120111
      5c:	42971840 	addsmi	r1, r7, #64, 16	; 0x400000
      60:	00130119 	andseq	r0, r3, r9, lsl r1
      64:	00340900 	eorseq	r0, r4, r0, lsl #18
      68:	13490e03 	movtne	r0, #40451	; 0x9e03
      6c:	18021934 	stmdane	r2, {r2, r4, r5, r8, fp, ip}
      70:	340a0000 	strcc	r0, [sl], #-0
      74:	3a080300 	bcc	200c7c <__bss_end__+0x1f4a8c>
      78:	490b3b0b 	stmdbmi	fp, {r0, r1, r3, r8, r9, fp, ip, sp}
      7c:	00180213 	andseq	r0, r8, r3, lsl r2
      80:	00340b00 	eorseq	r0, r4, r0, lsl #22
      84:	0b3a0803 	bleq	e82098 <__bss_end__+0xe75ea8>
      88:	13490b3b 	movtne	r0, #39739	; 0x9b3b
      8c:	00001702 	andeq	r1, r0, r2, lsl #14
      90:	0182890c 	orreq	r8, r2, ip, lsl #18
      94:	31011100 	mrscc	r1, (UNDEF: 17)
      98:	0d000013 	stceq	0, cr0, [r0, #-76]	; 0xffffffb4
      9c:	01018289 	smlabbeq	r1, r9, r2, r8
      a0:	13310111 	teqne	r1, #1073741828	; 0x40000004
      a4:	00001301 	andeq	r1, r0, r1, lsl #6
      a8:	01828a0e 	orreq	r8, r2, lr, lsl #20
      ac:	91180200 	tstls	r8, r0, lsl #4
      b0:	00001842 	andeq	r1, r0, r2, asr #16
      b4:	0182890f 	orreq	r8, r2, pc, lsl #18
      b8:	31011101 	tstcc	r1, r1, lsl #2
      bc:	10000013 	andne	r0, r0, r3, lsl r0
      c0:	0e030034 	mcreq	0, 0, r0, cr3, cr4, {1}
      c4:	0b3b0b3a 	bleq	ec2db4 <__bss_end__+0xeb6bc4>
      c8:	193f1349 	ldmdbne	pc!, {r0, r3, r6, r8, r9, ip}	; <UNPREDICTABLE>
      cc:	0000193c 	andeq	r1, r0, ip, lsr r9
      d0:	3f002e11 	svccc	0x00002e11
      d4:	3a0e0319 	bcc	380d40 <__bss_end__+0x374b50>
      d8:	270b3b0b 	strcs	r3, [fp, -fp, lsl #22]
      dc:	00193c19 	andseq	r3, r9, r9, lsl ip
      e0:	002e1200 	eoreq	r1, lr, r0, lsl #4
      e4:	0e03193f 	mcreq	9, 0, r1, cr3, cr15, {1}
      e8:	0b3b0b3a 	bleq	ec2dd8 <__bss_end__+0xeb6be8>
      ec:	13491927 	movtne	r1, #39207	; 0x9927
      f0:	0000193c 	andeq	r1, r0, ip, lsr r9
      f4:	3f012e13 	svccc	0x00012e13
      f8:	3a0e0319 	bcc	380d64 <__bss_end__+0x374b74>
      fc:	270b3b0b 	strcs	r3, [fp, -fp, lsl #22]
     100:	3c134919 	ldccc	9, cr4, [r3], {25}
     104:	00130119 	andseq	r0, r3, r9, lsl r1
     108:	00051400 	andeq	r1, r5, r0, lsl #8
     10c:	00001349 	andeq	r1, r0, r9, asr #6
     110:	00001815 	andeq	r1, r0, r5, lsl r8
     114:	00351600 	eorseq	r1, r5, r0, lsl #12
     118:	01000000 	mrseq	r0, (UNDEF: 0)
     11c:	0e250111 	mcreq	1, 1, r0, cr5, cr1, {0}
     120:	0e030b13 	vmoveq.32	d3[0], r0
     124:	01110e1b 	tsteq	r1, fp, lsl lr
     128:	17100612 			; <UNDEFINED> instruction: 0x17100612
     12c:	24020000 	strcs	r0, [r2], #-0
     130:	3e0b0b00 	vmlacc.f64	d0, d11, d0
     134:	0008030b 	andeq	r0, r8, fp, lsl #6
     138:	00160300 	andseq	r0, r6, r0, lsl #6
     13c:	0b3a0e03 	bleq	e83950 <__bss_end__+0xe77760>
     140:	13490b3b 	movtne	r0, #39739	; 0x9b3b
     144:	24040000 	strcs	r0, [r4], #-0
     148:	3e0b0b00 	vmlacc.f64	d0, d11, d0
     14c:	000e030b 	andeq	r0, lr, fp, lsl #6
     150:	000f0500 	andeq	r0, pc, r0, lsl #10
     154:	00000b0b 	andeq	r0, r0, fp, lsl #22
     158:	0b000f06 	bleq	3d78 <__code_start__-0x4288>
     15c:	0013490b 	andseq	r4, r3, fp, lsl #18
     160:	00260700 	eoreq	r0, r6, r0, lsl #14
     164:	00001349 	andeq	r1, r0, r9, asr #6
     168:	03011308 	movweq	r1, #4872	; 0x1308
     16c:	3a0b0b0e 	bcc	2c2dac <__bss_end__+0x2b6bbc>
     170:	010b3b0b 	tsteq	fp, fp, lsl #22
     174:	09000013 	stmdbeq	r0, {r0, r1, r4}
     178:	0e03000d 	cdpeq	0, 0, cr0, cr3, cr13, {0}
     17c:	0b3b0b3a 	bleq	ec2e6c <__bss_end__+0xeb6c7c>
     180:	0b0b1349 	bleq	2c4eac <__bss_end__+0x2b8cbc>
     184:	0b0c0b0d 	bleq	302dc0 <__bss_end__+0x2f6bd0>
     188:	00000b38 	andeq	r0, r0, r8, lsr fp
     18c:	03000d0a 	movweq	r0, #3338	; 0xd0a
     190:	3b0b3a08 	blcc	2ce9b8 <__bss_end__+0x2c27c8>
     194:	0b13490b 	bleq	4d25c8 <__bss_end__+0x4c63d8>
     198:	0c0b0d0b 	stceq	13, cr0, [fp], {11}
     19c:	000b380b 	andeq	r3, fp, fp, lsl #16
     1a0:	01040b00 	tsteq	r4, r0, lsl #22
     1a4:	0b3a0b0b 	bleq	e82dd8 <__bss_end__+0xe76be8>
     1a8:	13010b3b 	movwne	r0, #6971	; 0x1b3b
     1ac:	280c0000 	stmdacs	ip, {}	; <UNPREDICTABLE>
     1b0:	1c0e0300 	stcne	3, cr0, [lr], {-0}
     1b4:	0d00000d 	stceq	0, cr0, [r0, #-52]	; 0xffffffcc
     1b8:	0e03012e 	adfeqsp	f0, f3, #0.5
     1bc:	0b3b0b3a 	bleq	ec2eac <__bss_end__+0xeb6cbc>
     1c0:	13491927 	movtne	r1, #39207	; 0x9927
     1c4:	13010b20 	movwne	r0, #6944	; 0x1b20
     1c8:	050e0000 	streq	r0, [lr, #-0]
     1cc:	3a080300 	bcc	200dd4 <__bss_end__+0x1f4be4>
     1d0:	490b3b0b 	stmdbmi	fp, {r0, r1, r3, r8, r9, fp, ip, sp}
     1d4:	0f000013 	svceq	0x00000013
     1d8:	193f012e 	ldmdbne	pc!, {r1, r2, r3, r5, r8}	; <UNPREDICTABLE>
     1dc:	0b3a0e03 	bleq	e839f0 <__bss_end__+0xe77800>
     1e0:	19270b3b 	stmdbne	r7!, {r0, r1, r3, r4, r5, r8, r9, fp}
     1e4:	01111349 	tsteq	r1, r9, asr #6
     1e8:	18400612 	stmdane	r0, {r1, r4, r9, sl}^
     1ec:	01194297 			; <UNDEFINED> instruction: 0x01194297
     1f0:	10000013 	andne	r0, r0, r3, lsl r0
     1f4:	00018289 	andeq	r8, r1, r9, lsl #5
     1f8:	13310111 	teqne	r1, #1073741828	; 0x40000004
     1fc:	05110000 	ldreq	r0, [r1, #-0]
     200:	3a080300 	bcc	200e08 <__bss_end__+0x1f4c18>
     204:	490b3b0b 	stmdbmi	fp, {r0, r1, r3, r8, r9, fp, ip, sp}
     208:	00170213 	andseq	r0, r7, r3, lsl r2
     20c:	00341200 	eorseq	r1, r4, r0, lsl #4
     210:	13490e03 	movtne	r0, #40451	; 0x9e03
     214:	18021934 	stmdane	r2, {r2, r4, r5, r8, fp, ip}
     218:	34130000 	ldrcc	r0, [r3], #-0
     21c:	3a0e0300 	bcc	380e24 <__bss_end__+0x374c34>
     220:	490b3b0b 	stmdbmi	fp, {r0, r1, r3, r8, r9, fp, ip, sp}
     224:	00170213 	andseq	r0, r7, r3, lsl r2
     228:	00341400 	eorseq	r1, r4, r0, lsl #8
     22c:	0b3a0803 	bleq	e82240 <__bss_end__+0xe76050>
     230:	13490b3b 	movtne	r0, #39739	; 0x9b3b
     234:	00001702 	andeq	r1, r0, r2, lsl #14
     238:	01828915 	orreq	r8, r2, r5, lsl r9
     23c:	31011101 	tstcc	r1, r1, lsl #2
     240:	00130113 	andseq	r0, r3, r3, lsl r1
     244:	828a1600 	addhi	r1, sl, #0, 12
     248:	18020001 	stmdane	r2, {r0}
     24c:	00184291 	mulseq	r8, r1, r2
     250:	01011700 	tsteq	r1, r0, lsl #14
     254:	13011349 	movwne	r1, #4937	; 0x1349
     258:	21180000 	tstcs	r8, r0
     25c:	2f134900 	svccs	0x00134900
     260:	1900000b 	stmdbne	r0, {r0, r1, r3}
     264:	0e03012e 	adfeqsp	f0, f3, #0.5
     268:	0b3b0b3a 	bleq	ec2f58 <__bss_end__+0xeb6d68>
     26c:	01111927 	tsteq	r1, r7, lsr #18
     270:	18400612 	stmdane	r0, {r1, r4, r9, sl}^
     274:	01194297 			; <UNDEFINED> instruction: 0x01194297
     278:	1a000013 	bne	2cc <__code_start__-0x7d34>
     27c:	0e030005 	cdpeq	0, 0, cr0, cr3, cr5, {0}
     280:	0b3b0b3a 	bleq	ec2f70 <__bss_end__+0xeb6d80>
     284:	17021349 	strne	r1, [r2, -r9, asr #6]
     288:	1d1b0000 	ldcne	0, cr0, [fp, #-0]
     28c:	11133101 	tstne	r3, r1, lsl #2
     290:	58061201 	stmdapl	r6, {r0, r9, ip}
     294:	010b590b 	tsteq	fp, fp, lsl #18
     298:	1c000013 	stcne	0, cr0, [r0], {19}
     29c:	13310005 	teqne	r1, #5
     2a0:	00001702 	andeq	r1, r0, r2, lsl #14
     2a4:	55010b1d 	strpl	r0, [r1, #-2845]	; 0xb1d
     2a8:	00130117 	andseq	r0, r3, r7, lsl r1
     2ac:	010b1e00 	tsteq	fp, r0, lsl #28
     2b0:	00001755 	andeq	r1, r0, r5, asr r7
     2b4:	0182891f 	orreq	r8, r2, pc, lsl r9
     2b8:	31011101 	tstcc	r1, r1, lsl #2
     2bc:	20000013 	andcs	r0, r0, r3, lsl r0
     2c0:	193f012e 	ldmdbne	pc!, {r1, r2, r3, r5, r8}	; <UNPREDICTABLE>
     2c4:	0b3a0e03 	bleq	e83ad8 <__bss_end__+0xe778e8>
     2c8:	19270b3b 	stmdbne	r7!, {r0, r1, r3, r4, r5, r8, r9, fp}
     2cc:	06120111 			; <UNDEFINED> instruction: 0x06120111
     2d0:	42971840 	addsmi	r1, r7, #64, 16	; 0x400000
     2d4:	00130119 	andseq	r0, r3, r9, lsl r1
     2d8:	00052100 	andeq	r2, r5, r0, lsl #2
     2dc:	0b3a0803 	bleq	e822f0 <__bss_end__+0xe76100>
     2e0:	13490b3b 	movtne	r0, #39739	; 0x9b3b
     2e4:	00001802 	andeq	r1, r0, r2, lsl #16
     2e8:	03003422 	movweq	r3, #1058	; 0x422
     2ec:	3b0b3a08 	blcc	2ceb14 <__bss_end__+0x2c2924>
     2f0:	1c13490b 	ldcne	9, cr4, [r3], {11}
     2f4:	23000005 	movwcs	r0, #5
     2f8:	0e030034 	mcreq	0, 0, r0, cr3, cr4, {1}
     2fc:	0b3b0b3a 	bleq	ec2fec <__bss_end__+0xeb6dfc>
     300:	051c1349 	ldreq	r1, [ip, #-841]	; 0x349
     304:	34240000 	strtcc	r0, [r4], #-0
     308:	3a080300 	bcc	200f10 <__bss_end__+0x1f4d20>
     30c:	490b3b0b 	stmdbmi	fp, {r0, r1, r3, r8, r9, fp, ip, sp}
     310:	00180213 	andseq	r0, r8, r3, lsl r2
     314:	00342500 	eorseq	r2, r4, r0, lsl #10
     318:	0b3a0e03 	bleq	e83b2c <__bss_end__+0xe7793c>
     31c:	13490b3b 	movtne	r0, #39739	; 0x9b3b
     320:	00001802 	andeq	r1, r0, r2, lsl #16
     324:	3f002e26 	svccc	0x00002e26
     328:	3a0e0319 	bcc	380f94 <__bss_end__+0x374da4>
     32c:	270b3b0b 	strcs	r3, [fp, -fp, lsl #22]
     330:	3c134919 	ldccc	9, cr4, [r3], {25}
     334:	27000019 	smladcs	r0, r9, r0, r0
     338:	193f002e 	ldmdbne	pc!, {r1, r2, r3, r5}	; <UNPREDICTABLE>
     33c:	0b3a0e03 	bleq	e83b50 <__bss_end__+0xe77960>
     340:	19270b3b 	stmdbne	r7!, {r0, r1, r3, r4, r5, r8, r9, fp}
     344:	0000193c 	andeq	r1, r0, ip, lsr r9
     348:	3f012e28 	svccc	0x00012e28
     34c:	3a0e0319 	bcc	380fb8 <__bss_end__+0x374dc8>
     350:	270b3b0b 	strcs	r3, [fp, -fp, lsl #22]
     354:	3c134919 	ldccc	9, cr4, [r3], {25}
     358:	00130119 	andseq	r0, r3, r9, lsl r1
     35c:	00052900 	andeq	r2, r5, r0, lsl #18
     360:	00001349 	andeq	r1, r0, r9, asr #6
     364:	0000182a 	andeq	r1, r0, sl, lsr #16
     368:	012e2b00 	teqeq	lr, r0, lsl #22
     36c:	0e03193f 	mcreq	9, 0, r1, cr3, cr15, {1}
     370:	0b3b0b3a 	bleq	ec3060 <__bss_end__+0xeb6e70>
     374:	193c1927 	ldmdbne	ip!, {r0, r1, r2, r5, r8, fp, ip}
     378:	00001301 	andeq	r1, r0, r1, lsl #6
     37c:	0000262c 	andeq	r2, r0, ip, lsr #12
     380:	012e2d00 	teqeq	lr, r0, lsl #26
     384:	0e03193f 	mcreq	9, 0, r1, cr3, cr15, {1}
     388:	0b3b0b3a 	bleq	ec3078 <__bss_end__+0xeb6e88>
     38c:	193c1927 	ldmdbne	ip!, {r0, r1, r2, r5, r8, fp, ip}
     390:	01000000 	mrseq	r0, (UNDEF: 0)
     394:	0e250111 	mcreq	1, 1, r0, cr5, cr1, {0}
     398:	0e030b13 	vmoveq.32	d3[0], r0
     39c:	01110e1b 	tsteq	r1, fp, lsl lr
     3a0:	17100612 			; <UNDEFINED> instruction: 0x17100612
     3a4:	24020000 	strcs	r0, [r2], #-0
     3a8:	3e0b0b00 	vmlacc.f64	d0, d11, d0
     3ac:	0008030b 	andeq	r0, r8, fp, lsl #6
     3b0:	00240300 	eoreq	r0, r4, r0, lsl #6
     3b4:	0b3e0b0b 	bleq	f82fe8 <__bss_end__+0xf76df8>
     3b8:	00000e03 	andeq	r0, r0, r3, lsl #28
     3bc:	03001604 	movweq	r1, #1540	; 0x604
     3c0:	3b0b3a0e 	blcc	2cec00 <__bss_end__+0x2c2a10>
     3c4:	0013490b 	andseq	r4, r3, fp, lsl #18
     3c8:	000f0500 	andeq	r0, pc, r0, lsl #10
     3cc:	13490b0b 	movtne	r0, #39691	; 0x9b0b
     3d0:	26060000 	strcs	r0, [r6], -r0
     3d4:	00134900 	andseq	r4, r3, r0, lsl #18
     3d8:	01010700 	tsteq	r1, r0, lsl #14
     3dc:	13011349 	movwne	r1, #4937	; 0x1349
     3e0:	21080000 	mrscs	r0, (UNDEF: 8)
     3e4:	2f134900 	svccs	0x00134900
     3e8:	0900000b 	stmdbeq	r0, {r0, r1, r3}
     3ec:	0e030113 	mcreq	1, 0, r0, cr3, cr3, {0}
     3f0:	0b3a0b0b 	bleq	e83024 <__bss_end__+0xe76e34>
     3f4:	13010b3b 	movwne	r0, #6971	; 0x1b3b
     3f8:	0d0a0000 	stceq	0, cr0, [sl, #-0]
     3fc:	3a0e0300 	bcc	381004 <__bss_end__+0x374e14>
     400:	490b3b0b 	stmdbmi	fp, {r0, r1, r3, r8, r9, fp, ip, sp}
     404:	0d0b0b13 	vstreq	d0, [fp, #-76]	; 0xffffffb4
     408:	380b0c0b 	stmdacc	fp, {r0, r1, r3, sl, fp}
     40c:	0b00000b 	bleq	440 <__code_start__-0x7bc0>
     410:	0803000d 	stmdaeq	r3, {r0, r2, r3}
     414:	0b3b0b3a 	bleq	ec3104 <__bss_end__+0xeb6f14>
     418:	0b0b1349 	bleq	2c5144 <__bss_end__+0x2b8f54>
     41c:	0b0c0b0d 	bleq	303058 <__bss_end__+0x2f6e68>
     420:	00000b38 	andeq	r0, r0, r8, lsr fp
     424:	3f012e0c 	svccc	0x00012e0c
     428:	3a0e0319 	bcc	381094 <__bss_end__+0x374ea4>
     42c:	270b3b0b 	strcs	r3, [fp, -fp, lsl #22]
     430:	12011119 	andne	r1, r1, #1073741830	; 0x40000006
     434:	97184006 	ldrls	r4, [r8, -r6]
     438:	13011942 	movwne	r1, #6466	; 0x1942
     43c:	050d0000 	streq	r0, [sp, #-0]
     440:	3a080300 	bcc	201048 <__bss_end__+0x1f4e58>
     444:	490b3b0b 	stmdbmi	fp, {r0, r1, r3, r8, r9, fp, ip, sp}
     448:	00170213 	andseq	r0, r7, r3, lsl r2
     44c:	00050e00 	andeq	r0, r5, r0, lsl #28
     450:	0b3a0e03 	bleq	e83c64 <__bss_end__+0xe77a74>
     454:	13490b3b 	movtne	r0, #39739	; 0x9b3b
     458:	00001702 	andeq	r1, r0, r2, lsl #14
     45c:	0182890f 	orreq	r8, r2, pc, lsl #18
     460:	31011101 	tstcc	r1, r1, lsl #2
     464:	00130113 	andseq	r0, r3, r3, lsl r1
     468:	828a1000 	addhi	r1, sl, #0
     46c:	18020001 	stmdane	r2, {r0}
     470:	00184291 	mulseq	r8, r1, r2
     474:	82891100 	addhi	r1, r9, #0, 2
     478:	01110101 	tsteq	r1, r1, lsl #2
     47c:	00001331 	andeq	r1, r0, r1, lsr r3
     480:	00002612 	andeq	r2, r0, r2, lsl r6
     484:	82891300 	addhi	r1, r9, #0, 6
     488:	01110001 	tsteq	r1, r1
     48c:	00001331 	andeq	r1, r0, r1, lsr r3
     490:	03012e14 	movweq	r2, #7700	; 0x1e14
     494:	3b0b3a0e 	blcc	2cecd4 <__bss_end__+0x2c2ae4>
     498:	1119270b 	tstne	r9, fp, lsl #14
     49c:	40061201 	andmi	r1, r6, r1, lsl #4
     4a0:	19429718 	stmdbne	r2, {r3, r4, r8, r9, sl, ip, pc}^
     4a4:	00001301 	andeq	r1, r0, r1, lsl #6
     4a8:	03003415 	movweq	r3, #1045	; 0x415
     4ac:	3413490e 	ldrcc	r4, [r3], #-2318	; 0x90e
     4b0:	00180219 	andseq	r0, r8, r9, lsl r2
     4b4:	002e1600 	eoreq	r1, lr, r0, lsl #12
     4b8:	0e03193f 	mcreq	9, 0, r1, cr3, cr15, {1}
     4bc:	0b3b0b3a 	bleq	ec31ac <__bss_end__+0xeb6fbc>
     4c0:	13491927 	movtne	r1, #39207	; 0x9927
     4c4:	06120111 			; <UNDEFINED> instruction: 0x06120111
     4c8:	42971840 	addsmi	r1, r7, #64, 16	; 0x400000
     4cc:	17000019 	smladne	r0, r9, r0, r0
     4d0:	08030034 	stmdaeq	r3, {r2, r4, r5}
     4d4:	0b3b0b3a 	bleq	ec31c4 <__bss_end__+0xeb6fd4>
     4d8:	18021349 	stmdane	r2, {r0, r3, r6, r8, r9, ip}
     4dc:	0b180000 	bleq	6004e4 <__bss_end__+0x5f42f4>
     4e0:	12011101 	andne	r1, r1, #1073741824	; 0x40000000
     4e4:	00130106 	andseq	r0, r3, r6, lsl #2
     4e8:	01171900 	tsteq	r7, r0, lsl #18
     4ec:	0b0b0803 	bleq	2c2500 <__bss_end__+0x2b6310>
     4f0:	0b3b0b3a 	bleq	ec31e0 <__bss_end__+0xeb6ff0>
     4f4:	00001301 	andeq	r1, r0, r1, lsl #6
     4f8:	03000d1a 	movweq	r0, #3354	; 0xd1a
     4fc:	3b0b3a08 	blcc	2ced24 <__bss_end__+0x2c2b34>
     500:	0013490b 	andseq	r4, r3, fp, lsl #18
     504:	00341b00 	eorseq	r1, r4, r0, lsl #22
     508:	0b3a0803 	bleq	e8251c <__bss_end__+0xe7632c>
     50c:	13490b3b 	movtne	r0, #39739	; 0x9b3b
     510:	00000d1c 	andeq	r0, r0, ip, lsl sp
     514:	0300341c 	movweq	r3, #1052	; 0x41c
     518:	3b0b3a0e 	blcc	2ced58 <__bss_end__+0x2c2b68>
     51c:	1c13490b 	ldcne	9, cr4, [r3], {11}
     520:	1d00000b 	stcne	0, cr0, [r0, #-44]	; 0xffffffd4
     524:	0e030034 	mcreq	0, 0, r0, cr3, cr4, {1}
     528:	0b3b0b3a 	bleq	ec3218 <__bss_end__+0xeb7028>
     52c:	051c1349 	ldreq	r1, [ip, #-841]	; 0x349
     530:	2e1e0000 	cdpcs	0, 1, cr0, cr14, cr0, {0}
     534:	03193f01 	tsteq	r9, #1, 30
     538:	3b0b3a0e 	blcc	2ced78 <__bss_end__+0x2c2b88>
     53c:	4919270b 	ldmdbmi	r9, {r0, r1, r3, r8, r9, sl, sp}
     540:	01193c13 	tsteq	r9, r3, lsl ip
     544:	1f000013 	svcne	0x00000013
     548:	13490005 	movtne	r0, #36869	; 0x9005
     54c:	18200000 	stmdane	r0!, {}	; <UNPREDICTABLE>
     550:	21000000 	mrscs	r0, (UNDEF: 0)
     554:	193f002e 	ldmdbne	pc!, {r1, r2, r3, r5}	; <UNPREDICTABLE>
     558:	0b3a0e03 	bleq	e83d6c <__bss_end__+0xe77b7c>
     55c:	19270b3b 	stmdbne	r7!, {r0, r1, r3, r4, r5, r8, r9, fp}
     560:	193c1349 	ldmdbne	ip!, {r0, r3, r6, r8, r9, ip}
     564:	2e220000 	cdpcs	0, 2, cr0, cr2, cr0, {0}
     568:	03193f00 	tsteq	r9, #0, 30
     56c:	3b0b3a0e 	blcc	2cedac <__bss_end__+0x2c2bbc>
     570:	3c19270b 	ldccc	7, cr2, [r9], {11}
     574:	00000019 	andeq	r0, r0, r9, lsl r0
     578:	25011101 	strcs	r1, [r1, #-257]	; 0x101
     57c:	030b130e 	movweq	r1, #45838	; 0xb30e
     580:	110e1b0e 	tstne	lr, lr, lsl #22
     584:	10061201 	andne	r1, r6, r1, lsl #4
     588:	02000017 	andeq	r0, r0, #23
     58c:	0b0b0024 	bleq	2c0624 <__bss_end__+0x2b4434>
     590:	08030b3e 	stmdaeq	r3, {r1, r2, r3, r4, r5, r8, r9, fp}
     594:	24030000 	strcs	r0, [r3], #-0
     598:	3e0b0b00 	vmlacc.f64	d0, d11, d0
     59c:	000e030b 	andeq	r0, lr, fp, lsl #6
     5a0:	00160400 	andseq	r0, r6, r0, lsl #8
     5a4:	0b3a0e03 	bleq	e83db8 <__bss_end__+0xe77bc8>
     5a8:	13490b3b 	movtne	r0, #39739	; 0x9b3b
     5ac:	0f050000 	svceq	0x00050000
     5b0:	000b0b00 	andeq	r0, fp, r0, lsl #22
     5b4:	000f0600 	andeq	r0, pc, r0, lsl #12
     5b8:	13490b0b 	movtne	r0, #39691	; 0x9b0b
     5bc:	26070000 	strcs	r0, [r7], -r0
     5c0:	00134900 	andseq	r4, r3, r0, lsl #18
     5c4:	01130800 	tsteq	r3, r0, lsl #16
     5c8:	0b0b0e03 	bleq	2c3ddc <__bss_end__+0x2b7bec>
     5cc:	0b3b0b3a 	bleq	ec32bc <__bss_end__+0xeb70cc>
     5d0:	00001301 	andeq	r1, r0, r1, lsl #6
     5d4:	03000d09 	movweq	r0, #3337	; 0xd09
     5d8:	3b0b3a08 	blcc	2cee00 <__bss_end__+0x2c2c10>
     5dc:	0b13490b 	bleq	4d2a10 <__bss_end__+0x4c6820>
     5e0:	0c0b0d0b 	stceq	13, cr0, [fp], {11}
     5e4:	000b380b 	andeq	r3, fp, fp, lsl #16
     5e8:	000d0a00 	andeq	r0, sp, r0, lsl #20
     5ec:	0b3a0e03 	bleq	e83e00 <__bss_end__+0xe77c10>
     5f0:	13490b3b 	movtne	r0, #39739	; 0x9b3b
     5f4:	0b0d0b0b 	bleq	343228 <__bss_end__+0x337038>
     5f8:	0b380b0c 	bleq	e03230 <__bss_end__+0xdf7040>
     5fc:	040b0000 	streq	r0, [fp], #-0
     600:	3a0b0b01 	bcc	2c320c <__bss_end__+0x2b701c>
     604:	010b3b0b 	tsteq	fp, fp, lsl #22
     608:	0c000013 	stceq	0, cr0, [r0], {19}
     60c:	0e030028 	cdpeq	0, 0, cr0, cr3, cr8, {1}
     610:	00000d1c 	andeq	r0, r0, ip, lsl sp
     614:	0b01130d 	bleq	45250 <__bss_end__+0x39060>
     618:	3b0b3a0b 	blcc	2cee4c <__bss_end__+0x2c2c5c>
     61c:	0013010b 	andseq	r0, r3, fp, lsl #2
     620:	000d0e00 	andeq	r0, sp, r0, lsl #28
     624:	0b3a0e03 	bleq	e83e38 <__bss_end__+0xe77c48>
     628:	13490b3b 	movtne	r0, #39739	; 0x9b3b
     62c:	00000b38 	andeq	r0, r0, r8, lsr fp
     630:	03012e0f 	movweq	r2, #7695	; 0x1e0f
     634:	3b0b3a0e 	blcc	2cee74 <__bss_end__+0x2c2c84>
     638:	4919270b 	ldmdbmi	r9, {r0, r1, r3, r8, r9, sl, sp}
     63c:	010b2013 	tsteq	fp, r3, lsl r0
     640:	10000013 	andne	r0, r0, r3, lsl r0
     644:	08030034 	stmdaeq	r3, {r2, r4, r5}
     648:	0b3b0b3a 	bleq	ec3338 <__bss_end__+0xeb7148>
     64c:	00001349 	andeq	r1, r0, r9, asr #6
     650:	03000511 	movweq	r0, #1297	; 0x511
     654:	3b0b3a08 	blcc	2cee7c <__bss_end__+0x2c2c8c>
     658:	0013490b 	andseq	r4, r3, fp, lsl #18
     65c:	002e1200 	eoreq	r1, lr, r0, lsl #4
     660:	0e03193f 	mcreq	9, 0, r1, cr3, cr15, {1}
     664:	0b3b0b3a 	bleq	ec3354 <__bss_end__+0xeb7164>
     668:	13491927 	movtne	r1, #39207	; 0x9927
     66c:	06120111 			; <UNDEFINED> instruction: 0x06120111
     670:	42971840 	addsmi	r1, r7, #64, 16	; 0x400000
     674:	13000019 	movwne	r0, #25
     678:	193f012e 	ldmdbne	pc!, {r1, r2, r3, r5, r8}	; <UNPREDICTABLE>
     67c:	0b3a0e03 	bleq	e83e90 <__bss_end__+0xe77ca0>
     680:	19270b3b 	stmdbne	r7!, {r0, r1, r3, r4, r5, r8, r9, fp}
     684:	06120111 			; <UNDEFINED> instruction: 0x06120111
     688:	42971840 	addsmi	r1, r7, #64, 16	; 0x400000
     68c:	00130119 	andseq	r0, r3, r9, lsl r1
     690:	00051400 	andeq	r1, r5, r0, lsl #8
     694:	0b3a0e03 	bleq	e83ea8 <__bss_end__+0xe77cb8>
     698:	13490b3b 	movtne	r0, #39739	; 0x9b3b
     69c:	00001802 	andeq	r1, r0, r2, lsl #16
     6a0:	03000515 	movweq	r0, #1301	; 0x515
     6a4:	3b0b3a08 	blcc	2ceecc <__bss_end__+0x2c2cdc>
     6a8:	0213490b 	andseq	r4, r3, #180224	; 0x2c000
     6ac:	16000017 			; <UNDEFINED> instruction: 0x16000017
     6b0:	0e030005 	cdpeq	0, 0, cr0, cr3, cr5, {0}
     6b4:	0b3b0b3a 	bleq	ec33a4 <__bss_end__+0xeb71b4>
     6b8:	17021349 	strne	r1, [r2, -r9, asr #6]
     6bc:	34170000 	ldrcc	r0, [r7], #-0
     6c0:	3a080300 	bcc	2012c8 <__bss_end__+0x1f50d8>
     6c4:	490b3b0b 	stmdbmi	fp, {r0, r1, r3, r8, r9, fp, ip, sp}
     6c8:	00180213 	andseq	r0, r8, r3, lsl r2
     6cc:	00341800 	eorseq	r1, r4, r0, lsl #16
     6d0:	13490e03 	movtne	r0, #40451	; 0x9e03
     6d4:	18021934 	stmdane	r2, {r2, r4, r5, r8, fp, ip}
     6d8:	89190000 	ldmdbhi	r9, {}	; <UNPREDICTABLE>
     6dc:	11010182 	smlabbne	r1, r2, r1, r0
     6e0:	01133101 	tsteq	r3, r1, lsl #2
     6e4:	1a000013 	bne	738 <__code_start__-0x78c8>
     6e8:	0001828a 	andeq	r8, r1, sl, lsl #5
     6ec:	42911802 	addsmi	r1, r1, #131072	; 0x20000
     6f0:	1b000018 	blne	758 <__code_start__-0x78a8>
     6f4:	00018289 	andeq	r8, r1, r9, lsl #5
     6f8:	13310111 	teqne	r1, #1073741828	; 0x40000004
     6fc:	891c0000 	ldmdbhi	ip, {}	; <UNPREDICTABLE>
     700:	11010182 	smlabbne	r1, r2, r1, r0
     704:	00133101 	andseq	r3, r3, r1, lsl #2
     708:	01011d00 	tsteq	r1, r0, lsl #26
     70c:	13011349 	movwne	r1, #4937	; 0x1349
     710:	211e0000 	tstcs	lr, r0
     714:	2f134900 	svccs	0x00134900
     718:	1f00000b 	svcne	0x0000000b
     71c:	0e030034 	mcreq	0, 0, r0, cr3, cr4, {1}
     720:	19341349 	ldmdbne	r4!, {r0, r3, r6, r8, r9, ip}
     724:	00000e1c 	andeq	r0, r0, ip, lsl lr
     728:	03012e20 	movweq	r2, #7712	; 0x1e20
     72c:	3b0b3a0e 	blcc	2cef6c <__bss_end__+0x2c2d7c>
     730:	4919270b 	ldmdbmi	r9, {r0, r1, r3, r8, r9, sl, sp}
     734:	12011113 	andne	r1, r1, #-1073741820	; 0xc0000004
     738:	97184006 	ldrls	r4, [r8, -r6]
     73c:	13011942 	movwne	r1, #6466	; 0x1942
     740:	34210000 	strtcc	r0, [r1], #-0
     744:	3a080300 	bcc	20134c <__bss_end__+0x1f515c>
     748:	490b3b0b 	stmdbmi	fp, {r0, r1, r3, r8, r9, fp, ip, sp}
     74c:	00170213 	andseq	r0, r7, r3, lsl r2
     750:	011d2200 	tsteq	sp, r0, lsl #4
     754:	01111331 	tsteq	r1, r1, lsr r3
     758:	0b580612 	bleq	1601fa8 <__bss_end__+0x15f5db8>
     75c:	13010b59 	movwne	r0, #7001	; 0x1b59
     760:	05230000 	streq	r0, [r3, #-0]!
     764:	02133100 	andseq	r3, r3, #0, 2
     768:	24000017 	strcs	r0, [r0], #-23
     76c:	0111010b 	tsteq	r1, fp, lsl #2
     770:	00000612 	andeq	r0, r0, r2, lsl r6
     774:	31003425 	tstcc	r0, r5, lsr #8
     778:	00170213 	andseq	r0, r7, r3, lsl r2
     77c:	00342600 	eorseq	r2, r4, r0, lsl #12
     780:	18021331 	stmdane	r2, {r0, r4, r5, r8, r9, ip}
     784:	2e270000 	cdpcs	0, 2, cr0, cr7, cr0, {0}
     788:	3a0e0301 	bcc	381394 <__bss_end__+0x3751a4>
     78c:	270b3b0b 	strcs	r3, [fp, -fp, lsl #22]
     790:	12011119 	andne	r1, r1, #1073741830	; 0x40000006
     794:	97184006 	ldrls	r4, [r8, -r6]
     798:	13011942 	movwne	r1, #6466	; 0x1942
     79c:	2e280000 	cdpcs	0, 2, cr0, cr8, cr0, {0}
     7a0:	03193f00 	tsteq	r9, #0, 30
     7a4:	3b0b3a0e 	blcc	2cefe4 <__bss_end__+0x2c2df4>
     7a8:	1119270b 	tstne	r9, fp, lsl #14
     7ac:	40061201 	andmi	r1, r6, r1, lsl #4
     7b0:	19429718 	stmdbne	r2, {r3, r4, r8, r9, sl, ip, pc}^
     7b4:	34290000 	strtcc	r0, [r9], #-0
     7b8:	3a0e0300 	bcc	3813c0 <__bss_end__+0x3751d0>
     7bc:	490b3b0b 	stmdbmi	fp, {r0, r1, r3, r8, r9, fp, ip, sp}
     7c0:	2a000013 	bcs	814 <__code_start__-0x77ec>
     7c4:	13310034 	teqne	r1, #52	; 0x34
     7c8:	342b0000 	strtcc	r0, [fp], #-0
     7cc:	3a0e0300 	bcc	3813d4 <__bss_end__+0x3751e4>
     7d0:	490b3b0b 	stmdbmi	fp, {r0, r1, r3, r8, r9, fp, ip, sp}
     7d4:	00061c13 	andeq	r1, r6, r3, lsl ip
     7d8:	00342c00 	eorseq	r2, r4, r0, lsl #24
     7dc:	13490e03 	movtne	r0, #40451	; 0x9e03
     7e0:	00001934 	andeq	r1, r0, r4, lsr r9
     7e4:	3f012e2d 	svccc	0x00012e2d
     7e8:	3a0e0319 	bcc	381454 <__bss_end__+0x375264>
     7ec:	270b3b0b 	strcs	r3, [fp, -fp, lsl #22]
     7f0:	11134919 	tstne	r3, r9, lsl r9
     7f4:	40061201 	andmi	r1, r6, r1, lsl #4
     7f8:	19429718 	stmdbne	r2, {r3, r4, r8, r9, sl, ip, pc}^
     7fc:	00001301 	andeq	r1, r0, r1, lsl #6
     800:	0300342e 	movweq	r3, #1070	; 0x42e
     804:	3b0b3a0e 	blcc	2cf044 <__bss_end__+0x2c2e54>
     808:	0213490b 	andseq	r4, r3, #180224	; 0x2c000
     80c:	2f000018 	svccs	0x00000018
     810:	0e030034 	mcreq	0, 0, r0, cr3, cr4, {1}
     814:	0b3b0b3a 	bleq	ec3504 <__bss_end__+0xeb7314>
     818:	193f1349 	ldmdbne	pc!, {r0, r3, r6, r8, r9, ip}	; <UNPREDICTABLE>
     81c:	0000193c 	andeq	r1, r0, ip, lsr r9
     820:	3f002e30 	svccc	0x00002e30
     824:	3a0e0319 	bcc	381490 <__bss_end__+0x3752a0>
     828:	270b3b0b 	strcs	r3, [fp, -fp, lsl #22]
     82c:	00193c19 	andseq	r3, r9, r9, lsl ip
     830:	012e3100 	teqeq	lr, r0, lsl #2
     834:	0e03193f 	mcreq	9, 0, r1, cr3, cr15, {1}
     838:	0b3b0b3a 	bleq	ec3528 <__bss_end__+0xeb7338>
     83c:	13491927 	movtne	r1, #39207	; 0x9927
     840:	1301193c 	movwne	r1, #6460	; 0x193c
     844:	05320000 	ldreq	r0, [r2, #-0]!
     848:	00134900 	andseq	r4, r3, r0, lsl #18
     84c:	00183300 	andseq	r3, r8, r0, lsl #6
     850:	2e340000 	cdpcs	0, 3, cr0, cr4, cr0, {0}
     854:	03193f00 	tsteq	r9, #0, 30
     858:	3b0b3a0e 	blcc	2cf098 <__bss_end__+0x2c2ea8>
     85c:	4919270b 	ldmdbmi	r9, {r0, r1, r3, r8, r9, sl, sp}
     860:	00193c13 	andseq	r3, r9, r3, lsl ip
     864:	012e3500 	teqeq	lr, r0, lsl #10
     868:	0e03193f 	mcreq	9, 0, r1, cr3, cr15, {1}
     86c:	0b3b0b3a 	bleq	ec355c <__bss_end__+0xeb736c>
     870:	193c1927 	ldmdbne	ip!, {r0, r1, r2, r5, r8, fp, ip}
     874:	00001301 	andeq	r1, r0, r1, lsl #6
     878:	3f012e36 	svccc	0x00012e36
     87c:	3a0e0319 	bcc	3814e8 <__bss_end__+0x3752f8>
     880:	270b3b0b 	strcs	r3, [fp, -fp, lsl #22]
     884:	00193c19 	andseq	r3, r9, r9, lsl ip
     888:	11010000 	mrsne	r0, (UNDEF: 1)
     88c:	130e2501 	movwne	r2, #58625	; 0xe501
     890:	1b0e030b 	blne	3814c4 <__bss_end__+0x3752d4>
     894:	1201110e 	andne	r1, r1, #-2147483645	; 0x80000003
     898:	00171006 	andseq	r1, r7, r6
     89c:	00240200 	eoreq	r0, r4, r0, lsl #4
     8a0:	0b3e0b0b 	bleq	f834d4 <__bss_end__+0xf772e4>
     8a4:	00000803 	andeq	r0, r0, r3, lsl #16
     8a8:	0b002403 	bleq	98bc <memcheck_init+0xcc>
     8ac:	030b3e0b 	movweq	r3, #48651	; 0xbe0b
     8b0:	0400000e 	streq	r0, [r0], #-14
     8b4:	0e030016 	mcreq	0, 0, r0, cr3, cr6, {0}
     8b8:	0b3b0b3a 	bleq	ec35a8 <__bss_end__+0xeb73b8>
     8bc:	00001349 	andeq	r1, r0, r9, asr #6
     8c0:	0b000f05 	bleq	44dc <__code_start__-0x3b24>
     8c4:	0013490b 	andseq	r4, r3, fp, lsl #18
     8c8:	00260600 	eoreq	r0, r6, r0, lsl #12
     8cc:	00001349 	andeq	r1, r0, r9, asr #6
     8d0:	3f012e07 	svccc	0x00012e07
     8d4:	3a0e0319 	bcc	381540 <__bss_end__+0x375350>
     8d8:	270b3b0b 	strcs	r3, [fp, -fp, lsl #22]
     8dc:	11134919 	tstne	r3, r9, lsl r9
     8e0:	40061201 	andmi	r1, r6, r1, lsl #4
     8e4:	19429718 	stmdbne	r2, {r3, r4, r8, r9, sl, ip, pc}^
     8e8:	00001301 	andeq	r1, r0, r1, lsl #6
     8ec:	03000508 	movweq	r0, #1288	; 0x508
     8f0:	3b0b3a0e 	blcc	2cf130 <__bss_end__+0x2c2f40>
     8f4:	0213490b 	andseq	r4, r3, #180224	; 0x2c000
     8f8:	09000017 	stmdbeq	r0, {r0, r1, r2, r4}
     8fc:	08030005 	stmdaeq	r3, {r0, r2}
     900:	0b3b0b3a 	bleq	ec35f0 <__bss_end__+0xeb7400>
     904:	17021349 	strne	r1, [r2, -r9, asr #6]
     908:	340a0000 	strcc	r0, [sl], #-0
     90c:	3a0e0300 	bcc	381514 <__bss_end__+0x375324>
     910:	490b3b0b 	stmdbmi	fp, {r0, r1, r3, r8, r9, fp, ip, sp}
     914:	00170213 	andseq	r0, r7, r3, lsl r2
     918:	00340b00 	eorseq	r0, r4, r0, lsl #22
     91c:	0b3a0803 	bleq	e82930 <__bss_end__+0xe76740>
     920:	13490b3b 	movtne	r0, #39739	; 0x9b3b
     924:	00001702 	andeq	r1, r0, r2, lsl #14
     928:	0000260c 	andeq	r2, r0, ip, lsl #12
     92c:	11010000 	mrsne	r0, (UNDEF: 1)
     930:	130e2501 	movwne	r2, #58625	; 0xe501
     934:	1b0e030b 	blne	381568 <__bss_end__+0x375378>
     938:	1201110e 	andne	r1, r1, #-2147483645	; 0x80000003
     93c:	00171006 	andseq	r1, r7, r6
     940:	00240200 	eoreq	r0, r4, r0, lsl #4
     944:	0b3e0b0b 	bleq	f83578 <__bss_end__+0xf77388>
     948:	00000e03 	andeq	r0, r0, r3, lsl #28
     94c:	0b002403 	bleq	9960 <memcheck_on+0x20>
     950:	030b3e0b 	movweq	r3, #48651	; 0xbe0b
     954:	04000008 	streq	r0, [r0], #-8
     958:	0b0b000f 	bleq	2c099c <__bss_end__+0x2b47ac>
     95c:	0f050000 	svceq	0x00050000
     960:	490b0b00 	stmdbmi	fp, {r8, r9, fp}
     964:	06000013 			; <UNDEFINED> instruction: 0x06000013
     968:	0e030016 	mcreq	0, 0, r0, cr3, cr6, {0}
     96c:	0b3b0b3a 	bleq	ec365c <__bss_end__+0xeb746c>
     970:	00001349 	andeq	r1, r0, r9, asr #6
     974:	3f012e07 	svccc	0x00012e07
     978:	3a0e0319 	bcc	3815e4 <__bss_end__+0x3753f4>
     97c:	270b3b0b 	strcs	r3, [fp, -fp, lsl #22]
     980:	11134919 	tstne	r3, r9, lsl r9
     984:	40061201 	andmi	r1, r6, r1, lsl #4
     988:	19429718 	stmdbne	r2, {r3, r4, r8, r9, sl, ip, pc}^
     98c:	05080000 	streq	r0, [r8, #-0]
     990:	3a080300 	bcc	201598 <__bss_end__+0x1f53a8>
     994:	490b3b0b 	stmdbmi	fp, {r0, r1, r3, r8, r9, fp, ip, sp}
     998:	00180213 	andseq	r0, r8, r3, lsl r2
     99c:	00050900 	andeq	r0, r5, r0, lsl #18
     9a0:	0b3a0803 	bleq	e829b4 <__bss_end__+0xe767c4>
     9a4:	13490b3b 	movtne	r0, #39739	; 0x9b3b
     9a8:	00001702 	andeq	r1, r0, r2, lsl #14
     9ac:	0300340a 	movweq	r3, #1034	; 0x40a
     9b0:	3b0b3a08 	blcc	2cf1d8 <__bss_end__+0x2c2fe8>
     9b4:	0213490b 	andseq	r4, r3, #180224	; 0x2c000
     9b8:	0b000017 	bleq	a1c <__code_start__-0x75e4>
     9bc:	08030034 	stmdaeq	r3, {r2, r4, r5}
     9c0:	0b3b0b3a 	bleq	ec36b0 <__bss_end__+0xeb74c0>
     9c4:	18021349 	stmdane	r2, {r0, r3, r6, r8, r9, ip}
     9c8:	01000000 	mrseq	r0, (UNDEF: 0)
     9cc:	0e250111 	mcreq	1, 1, r0, cr5, cr1, {0}
     9d0:	0e030b13 	vmoveq.32	d3[0], r0
     9d4:	01110e1b 	tsteq	r1, fp, lsl lr
     9d8:	17100612 			; <UNDEFINED> instruction: 0x17100612
     9dc:	16020000 	strne	r0, [r2], -r0
     9e0:	3a0e0300 	bcc	3815e8 <__bss_end__+0x3753f8>
     9e4:	490b3b0b 	stmdbmi	fp, {r0, r1, r3, r8, r9, fp, ip, sp}
     9e8:	03000013 	movweq	r0, #19
     9ec:	0e030113 	mcreq	1, 0, r0, cr3, cr3, {0}
     9f0:	0b3a0b0b 	bleq	e83624 <__bss_end__+0xe77434>
     9f4:	13010b3b 	movwne	r0, #6971	; 0x1b3b
     9f8:	0d040000 	stceq	0, cr0, [r4, #-0]
     9fc:	490e0300 	stmdbmi	lr, {r8, r9}
     a00:	340b3813 	strcc	r3, [fp], #-2067	; 0x813
     a04:	05000019 	streq	r0, [r0, #-25]
     a08:	0b0b000f 	bleq	2c0a4c <__bss_end__+0x2b485c>
     a0c:	24060000 	strcs	r0, [r6], #-0
     a10:	3e0b0b00 	vmlacc.f64	d0, d11, d0
     a14:	0008030b 	andeq	r0, r8, fp, lsl #6
     a18:	00240700 	eoreq	r0, r4, r0, lsl #14
     a1c:	0b3e0b0b 	bleq	f83650 <__bss_end__+0xf77460>
     a20:	00000e03 	andeq	r0, r0, r3, lsl #28
     a24:	0b000f08 	bleq	464c <__code_start__-0x39b4>
     a28:	0013490b 	andseq	r4, r3, fp, lsl #18
     a2c:	00260900 	eoreq	r0, r6, r0, lsl #18
     a30:	00001349 	andeq	r1, r0, r9, asr #6
     a34:	3f012e0a 	svccc	0x00012e0a
     a38:	3a0e0319 	bcc	3816a4 <__bss_end__+0x3754b4>
     a3c:	270b3b0b 	strcs	r3, [fp, -fp, lsl #22]
     a40:	11134919 	tstne	r3, r9, lsl r9
     a44:	40061201 	andmi	r1, r6, r1, lsl #4
     a48:	19429718 	stmdbne	r2, {r3, r4, r8, r9, sl, ip, pc}^
     a4c:	00001301 	andeq	r1, r0, r1, lsl #6
     a50:	0300050b 	movweq	r0, #1291	; 0x50b
     a54:	3b0b3a08 	blcc	2cf27c <__bss_end__+0x2c308c>
     a58:	0213490b 	andseq	r4, r3, #180224	; 0x2c000
     a5c:	0c000018 	stceq	0, cr0, [r0], {24}
     a60:	00000018 	andeq	r0, r0, r8, lsl r0
     a64:	0300340d 	movweq	r3, #1037	; 0x40d
     a68:	3b0b3a08 	blcc	2cf290 <__bss_end__+0x2c30a0>
     a6c:	0213490b 	andseq	r4, r3, #180224	; 0x2c000
     a70:	0e000018 	mcreq	0, 0, r0, cr0, cr8, {0}
     a74:	0e030034 	mcreq	0, 0, r0, cr3, cr4, {1}
     a78:	0b3b0b3a 	bleq	ec3768 <__bss_end__+0xeb7578>
     a7c:	18021349 	stmdane	r2, {r0, r3, r6, r8, r9, ip}
     a80:	340f0000 	strcc	r0, [pc], #-0	; a88 <__code_start__-0x7578>
     a84:	3a080300 	bcc	20168c <__bss_end__+0x1f549c>
     a88:	490b3b0b 	stmdbmi	fp, {r0, r1, r3, r8, r9, fp, ip, sp}
     a8c:	00170213 	andseq	r0, r7, r3, lsl r2
     a90:	82891000 	addhi	r1, r9, #0
     a94:	01110101 	tsteq	r1, r1, lsl #2
     a98:	13011331 	movwne	r1, #4913	; 0x1331
     a9c:	8a110000 	bhi	440aa4 <__bss_end__+0x4348b4>
     aa0:	02000182 	andeq	r0, r0, #-2147483616	; 0x80000020
     aa4:	18429118 	stmdane	r2, {r3, r4, r8, ip, pc}^
     aa8:	89120000 	ldmdbhi	r2, {}	; <UNPREDICTABLE>
     aac:	11010182 	smlabbne	r1, r2, r1, r0
     ab0:	13000001 	movwne	r0, #1
     ab4:	13490101 	movtne	r0, #37121	; 0x9101
     ab8:	00001301 	andeq	r1, r0, r1, lsl #6
     abc:	49002114 	stmdbmi	r0, {r2, r4, r8, sp}
     ac0:	00052f13 	andeq	r2, r5, r3, lsl pc
     ac4:	01151500 	tsteq	r5, r0, lsl #10
     ac8:	13491927 	movtne	r1, #39207	; 0x9927
     acc:	00001301 	andeq	r1, r0, r1, lsl #6
     ad0:	49000516 	stmdbmi	r0, {r1, r2, r4, r8, sl}
     ad4:	17000013 	smladne	r0, r3, r0, r0
     ad8:	0e030034 	mcreq	0, 0, r0, cr3, cr4, {1}
     adc:	0b3b0b3a 	bleq	ec37cc <__bss_end__+0xeb75dc>
     ae0:	193f1349 	ldmdbne	pc!, {r0, r3, r6, r8, r9, ip}	; <UNPREDICTABLE>
     ae4:	0000193c 	andeq	r1, r0, ip, lsr r9
     ae8:	3f012e18 	svccc	0x00012e18
     aec:	3a0e0319 	bcc	381758 <__bss_end__+0x375568>
     af0:	270b3b0b 	strcs	r3, [fp, -fp, lsl #22]
     af4:	3c134919 	ldccc	9, cr4, [r3], {25}
     af8:	00000019 	andeq	r0, r0, r9, lsl r0
     afc:	25011101 	strcs	r1, [r1, #-257]	; 0x101
     b00:	030b130e 	movweq	r1, #45838	; 0xb30e
     b04:	110e1b0e 	tstne	lr, lr, lsl #22
     b08:	10061201 	andne	r1, r6, r1, lsl #4
     b0c:	02000017 	andeq	r0, r0, #23
     b10:	0b0b0024 	bleq	2c0ba8 <__bss_end__+0x2b49b8>
     b14:	08030b3e 	stmdaeq	r3, {r1, r2, r3, r4, r5, r8, r9, fp}
     b18:	24030000 	strcs	r0, [r3], #-0
     b1c:	3e0b0b00 	vmlacc.f64	d0, d11, d0
     b20:	000e030b 	andeq	r0, lr, fp, lsl #6
     b24:	012e0400 	teqeq	lr, r0, lsl #8
     b28:	0b3a0e03 	bleq	e8433c <__bss_end__+0xe7814c>
     b2c:	19270b3b 	stmdbne	r7!, {r0, r1, r3, r4, r5, r8, r9, fp}
     b30:	01111349 	tsteq	r1, r9, asr #6
     b34:	18400612 	stmdane	r0, {r1, r4, r9, sl}^
     b38:	01194297 			; <UNDEFINED> instruction: 0x01194297
     b3c:	05000013 	streq	r0, [r0, #-19]
     b40:	08030005 	stmdaeq	r3, {r0, r2}
     b44:	0b3b0b3a 	bleq	ec3834 <__bss_end__+0xeb7644>
     b48:	17021349 	strne	r1, [r2, -r9, asr #6]
     b4c:	89060000 	stmdbhi	r6, {}	; <UNPREDICTABLE>
     b50:	11010182 	smlabbne	r1, r2, r1, r0
     b54:	00133101 	andseq	r3, r3, r1, lsl #2
     b58:	828a0700 	addhi	r0, sl, #0, 14
     b5c:	18020001 	stmdane	r2, {r0}
     b60:	00184291 	mulseq	r8, r1, r2
     b64:	002e0800 	eoreq	r0, lr, r0, lsl #16
     b68:	0e03193f 	mcreq	9, 0, r1, cr3, cr15, {1}
     b6c:	0b3b0b3a 	bleq	ec385c <__bss_end__+0xeb766c>
     b70:	01111927 	tsteq	r1, r7, lsr #18
     b74:	18400612 	stmdane	r0, {r1, r4, r9, sl}^
     b78:	00194297 	mulseq	r9, r7, r2
     b7c:	012e0900 	teqeq	lr, r0, lsl #18
     b80:	0e03193f 	mcreq	9, 0, r1, cr3, cr15, {1}
     b84:	0b3b0b3a 	bleq	ec3874 <__bss_end__+0xeb7684>
     b88:	01111927 	tsteq	r1, r7, lsr #18
     b8c:	18400612 	stmdane	r0, {r1, r4, r9, sl}^
     b90:	01194297 			; <UNDEFINED> instruction: 0x01194297
     b94:	0a000013 	beq	be8 <__code_start__-0x7418>
     b98:	08030005 	stmdaeq	r3, {r0, r2}
     b9c:	0b3b0b3a 	bleq	ec388c <__bss_end__+0xeb769c>
     ba0:	18021349 	stmdane	r2, {r0, r3, r6, r8, r9, ip}
     ba4:	150b0000 	strne	r0, [fp, #-0]
     ba8:	49192701 	ldmdbmi	r9, {r0, r8, r9, sl, sp}
     bac:	00130113 	andseq	r0, r3, r3, lsl r1
     bb0:	00050c00 	andeq	r0, r5, r0, lsl #24
     bb4:	00001349 	andeq	r1, r0, r9, asr #6
     bb8:	0b000f0d 	bleq	47f4 <__code_start__-0x380c>
     bbc:	0013490b 	andseq	r4, r3, fp, lsl #18
     bc0:	00340e00 	eorseq	r0, r4, r0, lsl #28
     bc4:	0b3a0e03 	bleq	e843d8 <__bss_end__+0xe781e8>
     bc8:	13490b3b 	movtne	r0, #39739	; 0x9b3b
     bcc:	1802193f 	stmdane	r2, {r0, r1, r2, r3, r4, r5, r8, fp, ip}
     bd0:	2e0f0000 	cdpcs	0, 0, cr0, cr15, cr0, {0}
     bd4:	03193f01 	tsteq	r9, #1, 30
     bd8:	3b0b3a0e 	blcc	2cf418 <__bss_end__+0x2c3228>
     bdc:	3c19270b 	ldccc	7, cr2, [r9], {11}
     be0:	00000019 	andeq	r0, r0, r9, lsl r0
     be4:	25011101 	strcs	r1, [r1, #-257]	; 0x101
     be8:	030b130e 	movweq	r1, #45838	; 0xb30e
     bec:	110e1b0e 	tstne	lr, lr, lsl #22
     bf0:	10061201 	andne	r1, r6, r1, lsl #4
     bf4:	02000017 	andeq	r0, r0, #23
     bf8:	0b0b0024 	bleq	2c0c90 <__bss_end__+0x2b4aa0>
     bfc:	08030b3e 	stmdaeq	r3, {r1, r2, r3, r4, r5, r8, r9, fp}
     c00:	24030000 	strcs	r0, [r3], #-0
     c04:	3e0b0b00 	vmlacc.f64	d0, d11, d0
     c08:	000e030b 	andeq	r0, lr, fp, lsl #6
     c0c:	000f0400 	andeq	r0, pc, r0, lsl #8
     c10:	13490b0b 	movtne	r0, #39691	; 0x9b0b
     c14:	26050000 	strcs	r0, [r5], -r0
     c18:	00134900 	andseq	r4, r3, r0, lsl #18
     c1c:	012e0600 	teqeq	lr, r0, lsl #12
     c20:	0e03193f 	mcreq	9, 0, r1, cr3, cr15, {1}
     c24:	0b3b0b3a 	bleq	ec3914 <__bss_end__+0xeb7724>
     c28:	13491927 	movtne	r1, #39207	; 0x9927
     c2c:	06120111 			; <UNDEFINED> instruction: 0x06120111
     c30:	42961840 	addsmi	r1, r6, #64, 16	; 0x400000
     c34:	00130119 	andseq	r0, r3, r9, lsl r1
     c38:	00050700 	andeq	r0, r5, r0, lsl #14
     c3c:	0b3a0803 	bleq	e82c50 <__bss_end__+0xe76a60>
     c40:	13490b3b 	movtne	r0, #39739	; 0x9b3b
     c44:	00001702 	andeq	r1, r0, r2, lsl #14
     c48:	27011508 	strcs	r1, [r1, -r8, lsl #10]
     c4c:	01134919 	tsteq	r3, r9, lsl r9
     c50:	09000013 	stmdbeq	r0, {r0, r1, r4}
     c54:	13490005 	movtne	r0, #36869	; 0x9005
     c58:	340a0000 	strcc	r0, [sl], #-0
     c5c:	3a0e0300 	bcc	381864 <__bss_end__+0x375674>
     c60:	490b3b0b 	stmdbmi	fp, {r0, r1, r3, r8, r9, fp, ip, sp}
     c64:	3c193f13 	ldccc	15, cr3, [r9], {19}
     c68:	0b000019 	bleq	cd4 <__code_start__-0x732c>
     c6c:	0e030034 	mcreq	0, 0, r0, cr3, cr4, {1}
     c70:	0b3b0b3a 	bleq	ec3960 <__bss_end__+0xeb7770>
     c74:	193f1349 	ldmdbne	pc!, {r0, r3, r6, r8, r9, ip}	; <UNPREDICTABLE>
     c78:	00001802 	andeq	r1, r0, r2, lsl #16
     c7c:	01110100 	tsteq	r1, r0, lsl #2
     c80:	0b130e25 	bleq	4c451c <__bss_end__+0x4b832c>
     c84:	0e1b0e03 	cdpeq	14, 1, cr0, cr11, cr3, {0}
     c88:	06120111 			; <UNDEFINED> instruction: 0x06120111
     c8c:	00001710 	andeq	r1, r0, r0, lsl r7
     c90:	0b002402 	bleq	9ca0 <cp15_icache_inv+0x24>
     c94:	030b3e0b 	movweq	r3, #48651	; 0xbe0b
     c98:	03000008 	movweq	r0, #8
     c9c:	0b0b0024 	bleq	2c0d34 <__bss_end__+0x2b4b44>
     ca0:	0e030b3e 	vmoveq.16	d3[0], r0
     ca4:	0f040000 	svceq	0x00040000
     ca8:	000b0b00 	andeq	r0, fp, r0, lsl #22
     cac:	000f0500 	andeq	r0, pc, r0, lsl #10
     cb0:	13490b0b 	movtne	r0, #39691	; 0x9b0b
     cb4:	26060000 	strcs	r0, [r6], -r0
     cb8:	00134900 	andseq	r4, r3, r0, lsl #18
     cbc:	00160700 	andseq	r0, r6, r0, lsl #14
     cc0:	0b3a0e03 	bleq	e844d4 <__bss_end__+0xe782e4>
     cc4:	13490b3b 	movtne	r0, #39739	; 0x9b3b
     cc8:	13080000 	movwne	r0, #32768	; 0x8000
     ccc:	0b0e0301 	bleq	3818d8 <__bss_end__+0x3756e8>
     cd0:	3b0b3a0b 	blcc	2cf504 <__bss_end__+0x2c3314>
     cd4:	0013010b 	andseq	r0, r3, fp, lsl #2
     cd8:	000d0900 	andeq	r0, sp, r0, lsl #18
     cdc:	13490e03 	movtne	r0, #40451	; 0x9e03
     ce0:	19340b38 	ldmdbne	r4!, {r3, r4, r5, r8, r9, fp}
     ce4:	2e0a0000 	cdpcs	0, 0, cr0, cr10, cr0, {0}
     ce8:	3a0e0301 	bcc	3818f4 <__bss_end__+0x375704>
     cec:	270b3b0b 	strcs	r3, [fp, -fp, lsl #22]
     cf0:	11134919 	tstne	r3, r9, lsl r9
     cf4:	40061201 	andmi	r1, r6, r1, lsl #4
     cf8:	19429718 	stmdbne	r2, {r3, r4, r8, r9, sl, ip, pc}^
     cfc:	00001301 	andeq	r1, r0, r1, lsl #6
     d00:	0300050b 	movweq	r0, #1291	; 0x50b
     d04:	3b0b3a08 	blcc	2cf52c <__bss_end__+0x2c333c>
     d08:	0213490b 	andseq	r4, r3, #180224	; 0x2c000
     d0c:	0c000017 	stceq	0, cr0, [r0], {23}
     d10:	0803012e 	stmdaeq	r3, {r1, r2, r3, r5, r8}
     d14:	0b3b0b3a 	bleq	ec3a04 <__bss_end__+0xeb7814>
     d18:	13491927 	movtne	r1, #39207	; 0x9927
     d1c:	06120111 			; <UNDEFINED> instruction: 0x06120111
     d20:	42971840 	addsmi	r1, r7, #64, 16	; 0x400000
     d24:	00130119 	andseq	r0, r3, r9, lsl r1
     d28:	00050d00 	andeq	r0, r5, r0, lsl #26
     d2c:	0b3a0e03 	bleq	e84540 <__bss_end__+0xe78350>
     d30:	13490b3b 	movtne	r0, #39739	; 0x9b3b
     d34:	00001702 	andeq	r1, r0, r2, lsl #14
     d38:	0300050e 	movweq	r0, #1294	; 0x50e
     d3c:	3b0b3a0e 	blcc	2cf57c <__bss_end__+0x2c338c>
     d40:	0213490b 	andseq	r4, r3, #180224	; 0x2c000
     d44:	0f000018 	svceq	0x00000018
     d48:	08030034 	stmdaeq	r3, {r2, r4, r5}
     d4c:	0b3b0b3a 	bleq	ec3a3c <__bss_end__+0xeb784c>
     d50:	18021349 	stmdane	r2, {r0, r3, r6, r8, r9, ip}
     d54:	34100000 	ldrcc	r0, [r0], #-0
     d58:	3a080300 	bcc	201960 <__bss_end__+0x1f5770>
     d5c:	490b3b0b 	stmdbmi	fp, {r0, r1, r3, r8, r9, fp, ip, sp}
     d60:	00170213 	andseq	r0, r7, r3, lsl r2
     d64:	00341100 	eorseq	r1, r4, r0, lsl #2
     d68:	13490e03 	movtne	r0, #40451	; 0x9e03
     d6c:	18021934 	stmdane	r2, {r2, r4, r5, r8, fp, ip}
     d70:	0b120000 	bleq	480d78 <__bss_end__+0x474b88>
     d74:	12011101 	andne	r1, r1, #1073741824	; 0x40000000
     d78:	00130106 	andseq	r0, r3, r6, lsl #2
     d7c:	00341300 	eorseq	r1, r4, r0, lsl #6
     d80:	0b3a0e03 	bleq	e84594 <__bss_end__+0xe783a4>
     d84:	13490b3b 	movtne	r0, #39739	; 0x9b3b
     d88:	00001702 	andeq	r1, r0, r2, lsl #14
     d8c:	01828914 	orreq	r8, r2, r4, lsl r9
     d90:	31011100 	mrscc	r1, (UNDEF: 17)
     d94:	15000013 	strne	r0, [r0, #-19]
     d98:	01018289 	smlabbeq	r1, r9, r2, r8
     d9c:	13310111 	teqne	r1, #1073741828	; 0x40000004
     da0:	00001301 	andeq	r1, r0, r1, lsl #6
     da4:	01828a16 	orreq	r8, r2, r6, lsl sl
     da8:	91180200 	tstls	r8, r0, lsl #4
     dac:	00001842 	andeq	r1, r0, r2, asr #16
     db0:	01828917 	orreq	r8, r2, r7, lsl r9
     db4:	31011101 	tstcc	r1, r1, lsl #2
     db8:	18000013 	stmdane	r0, {r0, r1, r4}
     dbc:	13490101 	movtne	r0, #37121	; 0x9101
     dc0:	00001301 	andeq	r1, r0, r1, lsl #6
     dc4:	49002119 	stmdbmi	r0, {r0, r3, r4, r8, sp}
     dc8:	000b2f13 	andeq	r2, fp, r3, lsl pc
     dcc:	012e1a00 	teqeq	lr, r0, lsl #20
     dd0:	0e03193f 	mcreq	9, 0, r1, cr3, cr15, {1}
     dd4:	0b3b0b3a 	bleq	ec3ac4 <__bss_end__+0xeb78d4>
     dd8:	01111927 	tsteq	r1, r7, lsr #18
     ddc:	18400612 	stmdane	r0, {r1, r4, r9, sl}^
     de0:	01194297 			; <UNDEFINED> instruction: 0x01194297
     de4:	1b000013 	blne	e38 <__code_start__-0x71c8>
     de8:	19270115 	stmdbne	r7!, {r0, r2, r4, r8}
     dec:	13011349 	movwne	r1, #4937	; 0x1349
     df0:	051c0000 	ldreq	r0, [ip, #-0]
     df4:	00134900 	andseq	r4, r3, r0, lsl #18
     df8:	012e1d00 	teqeq	lr, r0, lsl #26
     dfc:	0e03193f 	mcreq	9, 0, r1, cr3, cr15, {1}
     e00:	0b3b0b3a 	bleq	ec3af0 <__bss_end__+0xeb7900>
     e04:	13491927 	movtne	r1, #39207	; 0x9927
     e08:	06120111 			; <UNDEFINED> instruction: 0x06120111
     e0c:	42971840 	addsmi	r1, r7, #64, 16	; 0x400000
     e10:	00130119 	andseq	r0, r3, r9, lsl r1
     e14:	010b1e00 	tsteq	fp, r0, lsl #28
     e18:	06120111 			; <UNDEFINED> instruction: 0x06120111
     e1c:	891f0000 	ldmdbhi	pc, {}	; <UNPREDICTABLE>
     e20:	11010182 	smlabbne	r1, r2, r1, r0
     e24:	00130101 	andseq	r0, r3, r1, lsl #2
     e28:	00342000 	eorseq	r2, r4, r0
     e2c:	0b3a0e03 	bleq	e84640 <__bss_end__+0xe78450>
     e30:	13490b3b 	movtne	r0, #39739	; 0x9b3b
     e34:	193c193f 	ldmdbne	ip!, {r0, r1, r2, r3, r4, r5, r8, fp, ip}
     e38:	2e210000 	cdpcs	0, 2, cr0, cr1, cr0, {0}
     e3c:	03193f00 	tsteq	r9, #0, 30
     e40:	3b0b3a0e 	blcc	2cf680 <__bss_end__+0x2c3490>
     e44:	3c19270b 	ldccc	7, cr2, [r9], {11}
     e48:	22000019 	andcs	r0, r0, #25
     e4c:	193f012e 	ldmdbne	pc!, {r1, r2, r3, r5, r8}	; <UNPREDICTABLE>
     e50:	0b3a0e03 	bleq	e84664 <__bss_end__+0xe78474>
     e54:	19270b3b 	stmdbne	r7!, {r0, r1, r3, r4, r5, r8, r9, fp}
     e58:	193c1349 	ldmdbne	ip!, {r0, r3, r6, r8, r9, ip}
     e5c:	00001301 	andeq	r1, r0, r1, lsl #6
     e60:	00001823 	andeq	r1, r0, r3, lsr #16
     e64:	11010000 	mrsne	r0, (UNDEF: 1)
     e68:	130e2501 	movwne	r2, #58625	; 0xe501
     e6c:	1b0e030b 	blne	381aa0 <__bss_end__+0x3758b0>
     e70:	1201110e 	andne	r1, r1, #-2147483645	; 0x80000003
     e74:	00171006 	andseq	r1, r7, r6
     e78:	00240200 	eoreq	r0, r4, r0, lsl #4
     e7c:	0b3e0b0b 	bleq	f83ab0 <__bss_end__+0xf778c0>
     e80:	00000803 	andeq	r0, r0, r3, lsl #16
     e84:	0b002403 	bleq	9e98 <our_mmu_disable_set_asm+0x1c>
     e88:	030b3e0b 	movweq	r3, #48651	; 0xbe0b
     e8c:	0400000e 	streq	r0, [r0], #-14
     e90:	0b0b000f 	bleq	2c0ed4 <__bss_end__+0x2b4ce4>
     e94:	00001349 	andeq	r1, r0, r9, asr #6
     e98:	49002605 	stmdbmi	r0, {r0, r2, r9, sl, sp}
     e9c:	06000013 			; <UNDEFINED> instruction: 0x06000013
     ea0:	193f012e 	ldmdbne	pc!, {r1, r2, r3, r5, r8}	; <UNPREDICTABLE>
     ea4:	0b3a0e03 	bleq	e846b8 <__bss_end__+0xe784c8>
     ea8:	19270b3b 	stmdbne	r7!, {r0, r1, r3, r4, r5, r8, r9, fp}
     eac:	06120111 			; <UNDEFINED> instruction: 0x06120111
     eb0:	42971840 	addsmi	r1, r7, #64, 16	; 0x400000
     eb4:	00130119 	andseq	r0, r3, r9, lsl r1
     eb8:	82890700 	addhi	r0, r9, #0, 14
     ebc:	01110001 	tsteq	r1, r1
     ec0:	00001331 	andeq	r1, r0, r1, lsr r3
     ec4:	01828908 	orreq	r8, r2, r8, lsl #18
     ec8:	01011101 	tsteq	r1, r1, lsl #2
     ecc:	09000013 	stmdbeq	r0, {r0, r1, r4}
     ed0:	0001828a 	andeq	r8, r1, sl, lsl #5
     ed4:	42911802 	addsmi	r1, r1, #131072	; 0x20000
     ed8:	0a000018 	beq	f40 <__code_start__-0x70c0>
     edc:	01018289 	smlabbeq	r1, r9, r2, r8
     ee0:	13310111 	teqne	r1, #1073741828	; 0x40000004
     ee4:	00001301 	andeq	r1, r0, r1, lsl #6
     ee8:	2701150b 	strcs	r1, [r1, -fp, lsl #10]
     eec:	01134919 	tsteq	r3, r9, lsl r9
     ef0:	0c000013 	stceq	0, cr0, [r0], {19}
     ef4:	13490005 	movtne	r0, #36869	; 0x9005
     ef8:	340d0000 	strcc	r0, [sp], #-0
     efc:	3a0e0300 	bcc	381b04 <__bss_end__+0x375914>
     f00:	490b3b0b 	stmdbmi	fp, {r0, r1, r3, r8, r9, fp, ip, sp}
     f04:	3c193f13 	ldccc	15, cr3, [r9], {19}
     f08:	0e000019 	mcreq	0, 0, r0, cr0, cr9, {0}
     f0c:	193f002e 	ldmdbne	pc!, {r1, r2, r3, r5}	; <UNPREDICTABLE>
     f10:	0b3a0e03 	bleq	e84724 <__bss_end__+0xe78534>
     f14:	19270b3b 	stmdbne	r7!, {r0, r1, r3, r4, r5, r8, r9, fp}
     f18:	0000193c 	andeq	r1, r0, ip, lsr r9
     f1c:	3f012e0f 	svccc	0x00012e0f
     f20:	3a0e0319 	bcc	381b8c <__bss_end__+0x37599c>
     f24:	270b3b0b 	strcs	r3, [fp, -fp, lsl #22]
     f28:	01193c19 	tsteq	r9, r9, lsl ip
     f2c:	00000013 	andeq	r0, r0, r3, lsl r0
     f30:	25011101 	strcs	r1, [r1, #-257]	; 0x101
     f34:	030b130e 	movweq	r1, #45838	; 0xb30e
     f38:	110e1b0e 	tstne	lr, lr, lsl #22
     f3c:	10061201 	andne	r1, r6, r1, lsl #4
     f40:	02000017 	andeq	r0, r0, #23
     f44:	0b0b0024 	bleq	2c0fdc <__bss_end__+0x2b4dec>
     f48:	08030b3e 	stmdaeq	r3, {r1, r2, r3, r4, r5, r8, r9, fp}
     f4c:	24030000 	strcs	r0, [r3], #-0
     f50:	3e0b0b00 	vmlacc.f64	d0, d11, d0
     f54:	000e030b 	andeq	r0, lr, fp, lsl #6
     f58:	012e0400 	teqeq	lr, r0, lsl #8
     f5c:	0e03193f 	mcreq	9, 0, r1, cr3, cr15, {1}
     f60:	0b3b0b3a 	bleq	ec3c50 <__bss_end__+0xeb7a60>
     f64:	06120111 			; <UNDEFINED> instruction: 0x06120111
     f68:	42971840 	addsmi	r1, r7, #64, 16	; 0x400000
     f6c:	00130119 	andseq	r0, r3, r9, lsl r1
     f70:	00340500 	eorseq	r0, r4, r0, lsl #10
     f74:	0b3a0e03 	bleq	e84788 <__bss_end__+0xe78598>
     f78:	13490b3b 	movtne	r0, #39739	; 0x9b3b
     f7c:	193c193f 	ldmdbne	ip!, {r0, r1, r2, r3, r4, r5, r8, fp, ip}
     f80:	2e060000 	cdpcs	0, 0, cr0, cr6, cr0, {0}
     f84:	03193f00 	tsteq	r9, #0, 30
     f88:	3b0b3a0e 	blcc	2cf7c8 <__bss_end__+0x2c35d8>
     f8c:	3c19270b 	ldccc	7, cr2, [r9], {11}
     f90:	07000019 	smladeq	r0, r9, r0, r0
     f94:	08030034 	stmdaeq	r3, {r2, r4, r5}
     f98:	0b3b0b3a 	bleq	ec3c88 <__bss_end__+0xeb7a98>
     f9c:	17021349 	strne	r1, [r2, -r9, asr #6]
     fa0:	34080000 	strcc	r0, [r8], #-0
     fa4:	3a0e0300 	bcc	381bac <__bss_end__+0x3759bc>
     fa8:	490b3b0b 	stmdbmi	fp, {r0, r1, r3, r8, r9, fp, ip, sp}
     fac:	09000013 	stmdbeq	r0, {r0, r1, r4}
     fb0:	00018289 	andeq	r8, r1, r9, lsl #5
     fb4:	13310111 	teqne	r1, #1073741828	; 0x40000004
     fb8:	0f0a0000 	svceq	0x000a0000
     fbc:	490b0b00 	stmdbmi	fp, {r8, r9, fp}
     fc0:	00000013 	andeq	r0, r0, r3, lsl r0
     fc4:	25011101 	strcs	r1, [r1, #-257]	; 0x101
     fc8:	030b130e 	movweq	r1, #45838	; 0xb30e
     fcc:	110e1b0e 	tstne	lr, lr, lsl #22
     fd0:	10061201 	andne	r1, r6, r1, lsl #4
     fd4:	02000017 	andeq	r0, r0, #23
     fd8:	0b0b0024 	bleq	2c1070 <__bss_end__+0x2b4e80>
     fdc:	08030b3e 	stmdaeq	r3, {r1, r2, r3, r4, r5, r8, r9, fp}
     fe0:	24030000 	strcs	r0, [r3], #-0
     fe4:	3e0b0b00 	vmlacc.f64	d0, d11, d0
     fe8:	000e030b 	andeq	r0, lr, fp, lsl #6
     fec:	000f0400 	andeq	r0, pc, r0, lsl #8
     ff0:	13490b0b 	movtne	r0, #39691	; 0x9b0b
     ff4:	26050000 	strcs	r0, [r5], -r0
     ff8:	00134900 	andseq	r4, r3, r0, lsl #18
     ffc:	012e0600 	teqeq	lr, r0, lsl #12
    1000:	0e03193f 	mcreq	9, 0, r1, cr3, cr15, {1}
    1004:	0b3b0b3a 	bleq	ec3cf4 <__bss_end__+0xeb7b04>
    1008:	01111927 	tsteq	r1, r7, lsr #18
    100c:	18400612 	stmdane	r0, {r1, r4, r9, sl}^
    1010:	01194297 			; <UNDEFINED> instruction: 0x01194297
    1014:	07000013 	smladeq	r0, r3, r0, r0
    1018:	08030005 	stmdaeq	r3, {r0, r2}
    101c:	0b3b0b3a 	bleq	ec3d0c <__bss_end__+0xeb7b1c>
    1020:	17021349 	strne	r1, [r2, -r9, asr #6]
    1024:	34080000 	strcc	r0, [r8], #-0
    1028:	490e0300 	stmdbmi	lr, {r8, r9}
    102c:	02193413 	andseq	r3, r9, #318767104	; 0x13000000
    1030:	09000018 	stmdbeq	r0, {r3, r4}
    1034:	00018289 	andeq	r8, r1, r9, lsl #5
    1038:	13310111 	teqne	r1, #1073741828	; 0x40000004
    103c:	890a0000 	stmdbhi	sl, {}	; <UNPREDICTABLE>
    1040:	11010182 	smlabbne	r1, r2, r1, r0
    1044:	01133101 	tsteq	r3, r1, lsl #2
    1048:	0b000013 	bleq	109c <__code_start__-0x6f64>
    104c:	0001828a 	andeq	r8, r1, sl, lsl #5
    1050:	42911802 	addsmi	r1, r1, #131072	; 0x20000
    1054:	0c000018 	stceq	0, cr0, [r0], {24}
    1058:	13490101 	movtne	r0, #37121	; 0x9101
    105c:	00001301 	andeq	r1, r0, r1, lsl #6
    1060:	4900210d 	stmdbmi	r0, {r0, r2, r3, r8, sp}
    1064:	000b2f13 	andeq	r2, fp, r3, lsl pc
    1068:	002e0e00 	eoreq	r0, lr, r0, lsl #28
    106c:	0e03193f 	mcreq	9, 0, r1, cr3, cr15, {1}
    1070:	0b3b0b3a 	bleq	ec3d60 <__bss_end__+0xeb7b70>
    1074:	193c1927 	ldmdbne	ip!, {r0, r1, r2, r5, r8, fp, ip}
    1078:	2e0f0000 	cdpcs	0, 0, cr0, cr15, cr0, {0}
    107c:	03193f01 	tsteq	r9, #1, 30
    1080:	3b0b3a0e 	blcc	2cf8c0 <__bss_end__+0x2c36d0>
    1084:	4919270b 	ldmdbmi	r9, {r0, r1, r3, r8, r9, sl, sp}
    1088:	01193c13 	tsteq	r9, r3, lsl ip
    108c:	10000013 	andne	r0, r0, r3, lsl r0
    1090:	13490005 	movtne	r0, #36869	; 0x9005
    1094:	18110000 	ldmdane	r1, {}	; <UNPREDICTABLE>
    1098:	00000000 	andeq	r0, r0, r0
    109c:	25011101 	strcs	r1, [r1, #-257]	; 0x101
    10a0:	030b130e 	movweq	r1, #45838	; 0xb30e
    10a4:	110e1b0e 	tstne	lr, lr, lsl #22
    10a8:	10061201 	andne	r1, r6, r1, lsl #4
    10ac:	02000017 	andeq	r0, r0, #23
    10b0:	0b0b0024 	bleq	2c1148 <__bss_end__+0x2b4f58>
    10b4:	08030b3e 	stmdaeq	r3, {r1, r2, r3, r4, r5, r8, r9, fp}
    10b8:	24030000 	strcs	r0, [r3], #-0
    10bc:	3e0b0b00 	vmlacc.f64	d0, d11, d0
    10c0:	000e030b 	andeq	r0, lr, fp, lsl #6
    10c4:	000f0400 	andeq	r0, pc, r0, lsl #8
    10c8:	13490b0b 	movtne	r0, #39691	; 0x9b0b
    10cc:	26050000 	strcs	r0, [r5], -r0
    10d0:	00134900 	andseq	r4, r3, r0, lsl #18
    10d4:	012e0600 	teqeq	lr, r0, lsl #12
    10d8:	0e03193f 	mcreq	9, 0, r1, cr3, cr15, {1}
    10dc:	0b3b0b3a 	bleq	ec3dcc <__bss_end__+0xeb7bdc>
    10e0:	01111927 	tsteq	r1, r7, lsr #18
    10e4:	18400612 	stmdane	r0, {r1, r4, r9, sl}^
    10e8:	01194297 			; <UNDEFINED> instruction: 0x01194297
    10ec:	07000013 	smladeq	r0, r3, r0, r0
    10f0:	08030005 	stmdaeq	r3, {r0, r2}
    10f4:	0b3b0b3a 	bleq	ec3de4 <__bss_end__+0xeb7bf4>
    10f8:	17021349 	strne	r1, [r2, -r9, asr #6]
    10fc:	34080000 	strcc	r0, [r8], #-0
    1100:	490e0300 	stmdbmi	lr, {r8, r9}
    1104:	02193413 	andseq	r3, r9, #318767104	; 0x13000000
    1108:	09000018 	stmdbeq	r0, {r3, r4}
    110c:	00018289 	andeq	r8, r1, r9, lsl #5
    1110:	13310111 	teqne	r1, #1073741828	; 0x40000004
    1114:	890a0000 	stmdbhi	sl, {}	; <UNPREDICTABLE>
    1118:	11010182 	smlabbne	r1, r2, r1, r0
    111c:	01133101 	tsteq	r3, r1, lsl #2
    1120:	0b000013 	bleq	1174 <__code_start__-0x6e8c>
    1124:	0001828a 	andeq	r8, r1, sl, lsl #5
    1128:	42911802 	addsmi	r1, r1, #131072	; 0x20000
    112c:	0c000018 	stceq	0, cr0, [r0], {24}
    1130:	13490101 	movtne	r0, #37121	; 0x9101
    1134:	00001301 	andeq	r1, r0, r1, lsl #6
    1138:	4900210d 	stmdbmi	r0, {r0, r2, r3, r8, sp}
    113c:	000b2f13 	andeq	r2, fp, r3, lsl pc
    1140:	002e0e00 	eoreq	r0, lr, r0, lsl #28
    1144:	0e03193f 	mcreq	9, 0, r1, cr3, cr15, {1}
    1148:	0b3b0b3a 	bleq	ec3e38 <__bss_end__+0xeb7c48>
    114c:	193c1927 	ldmdbne	ip!, {r0, r1, r2, r5, r8, fp, ip}
    1150:	2e0f0000 	cdpcs	0, 0, cr0, cr15, cr0, {0}
    1154:	03193f01 	tsteq	r9, #1, 30
    1158:	3b0b3a0e 	blcc	2cf998 <__bss_end__+0x2c37a8>
    115c:	4919270b 	ldmdbmi	r9, {r0, r1, r3, r8, r9, sl, sp}
    1160:	01193c13 	tsteq	r9, r3, lsl ip
    1164:	10000013 	andne	r0, r0, r3, lsl r0
    1168:	13490005 	movtne	r0, #36869	; 0x9005
    116c:	18110000 	ldmdane	r1, {}	; <UNPREDICTABLE>
    1170:	00000000 	andeq	r0, r0, r0
    1174:	25011101 	strcs	r1, [r1, #-257]	; 0x101
    1178:	030b130e 	movweq	r1, #45838	; 0xb30e
    117c:	110e1b0e 	tstne	lr, lr, lsl #22
    1180:	10061201 	andne	r1, r6, r1, lsl #4
    1184:	02000017 	andeq	r0, r0, #23
    1188:	0b0b0024 	bleq	2c1220 <__bss_end__+0x2b5030>
    118c:	08030b3e 	stmdaeq	r3, {r1, r2, r3, r4, r5, r8, r9, fp}
    1190:	24030000 	strcs	r0, [r3], #-0
    1194:	3e0b0b00 	vmlacc.f64	d0, d11, d0
    1198:	000e030b 	andeq	r0, lr, fp, lsl #6
    119c:	000f0400 	andeq	r0, pc, r0, lsl #8
    11a0:	13490b0b 	movtne	r0, #39691	; 0x9b0b
    11a4:	26050000 	strcs	r0, [r5], -r0
    11a8:	00134900 	andseq	r4, r3, r0, lsl #18
    11ac:	012e0600 	teqeq	lr, r0, lsl #12
    11b0:	0e03193f 	mcreq	9, 0, r1, cr3, cr15, {1}
    11b4:	0b3b0b3a 	bleq	ec3ea4 <__bss_end__+0xeb7cb4>
    11b8:	01111927 	tsteq	r1, r7, lsr #18
    11bc:	18400612 	stmdane	r0, {r1, r4, r9, sl}^
    11c0:	01194297 			; <UNDEFINED> instruction: 0x01194297
    11c4:	07000013 	smladeq	r0, r3, r0, r0
    11c8:	08030005 	stmdaeq	r3, {r0, r2}
    11cc:	0b3b0b3a 	bleq	ec3ebc <__bss_end__+0xeb7ccc>
    11d0:	17021349 	strne	r1, [r2, -r9, asr #6]
    11d4:	34080000 	strcc	r0, [r8], #-0
    11d8:	490e0300 	stmdbmi	lr, {r8, r9}
    11dc:	02193413 	andseq	r3, r9, #318767104	; 0x13000000
    11e0:	09000018 	stmdbeq	r0, {r3, r4}
    11e4:	00018289 	andeq	r8, r1, r9, lsl #5
    11e8:	13310111 	teqne	r1, #1073741828	; 0x40000004
    11ec:	890a0000 	stmdbhi	sl, {}	; <UNPREDICTABLE>
    11f0:	11010182 	smlabbne	r1, r2, r1, r0
    11f4:	01133101 	tsteq	r3, r1, lsl #2
    11f8:	0b000013 	bleq	124c <__code_start__-0x6db4>
    11fc:	0001828a 	andeq	r8, r1, sl, lsl #5
    1200:	42911802 	addsmi	r1, r1, #131072	; 0x20000
    1204:	0c000018 	stceq	0, cr0, [r0], {24}
    1208:	13490101 	movtne	r0, #37121	; 0x9101
    120c:	00001301 	andeq	r1, r0, r1, lsl #6
    1210:	4900210d 	stmdbmi	r0, {r0, r2, r3, r8, sp}
    1214:	000b2f13 	andeq	r2, fp, r3, lsl pc
    1218:	002e0e00 	eoreq	r0, lr, r0, lsl #28
    121c:	0e03193f 	mcreq	9, 0, r1, cr3, cr15, {1}
    1220:	0b3b0b3a 	bleq	ec3f10 <__bss_end__+0xeb7d20>
    1224:	193c1927 	ldmdbne	ip!, {r0, r1, r2, r5, r8, fp, ip}
    1228:	2e0f0000 	cdpcs	0, 0, cr0, cr15, cr0, {0}
    122c:	03193f01 	tsteq	r9, #1, 30
    1230:	3b0b3a0e 	blcc	2cfa70 <__bss_end__+0x2c3880>
    1234:	4919270b 	ldmdbmi	r9, {r0, r1, r3, r8, r9, sl, sp}
    1238:	01193c13 	tsteq	r9, r3, lsl ip
    123c:	10000013 	andne	r0, r0, r3, lsl r0
    1240:	13490005 	movtne	r0, #36869	; 0x9005
    1244:	18110000 	ldmdane	r1, {}	; <UNPREDICTABLE>
    1248:	00000000 	andeq	r0, r0, r0
    124c:	25011101 	strcs	r1, [r1, #-257]	; 0x101
    1250:	030b130e 	movweq	r1, #45838	; 0xb30e
    1254:	110e1b0e 	tstne	lr, lr, lsl #22
    1258:	10061201 	andne	r1, r6, r1, lsl #4
    125c:	02000017 	andeq	r0, r0, #23
    1260:	0b0b0024 	bleq	2c12f8 <__bss_end__+0x2b5108>
    1264:	08030b3e 	stmdaeq	r3, {r1, r2, r3, r4, r5, r8, r9, fp}
    1268:	24030000 	strcs	r0, [r3], #-0
    126c:	3e0b0b00 	vmlacc.f64	d0, d11, d0
    1270:	000e030b 	andeq	r0, lr, fp, lsl #6
    1274:	000f0400 	andeq	r0, pc, r0, lsl #8
    1278:	13490b0b 	movtne	r0, #39691	; 0x9b0b
    127c:	26050000 	strcs	r0, [r5], -r0
    1280:	00134900 	andseq	r4, r3, r0, lsl #18
    1284:	012e0600 	teqeq	lr, r0, lsl #12
    1288:	0e03193f 	mcreq	9, 0, r1, cr3, cr15, {1}
    128c:	0b3b0b3a 	bleq	ec3f7c <__bss_end__+0xeb7d8c>
    1290:	01111927 	tsteq	r1, r7, lsr #18
    1294:	18400612 	stmdane	r0, {r1, r4, r9, sl}^
    1298:	01194297 			; <UNDEFINED> instruction: 0x01194297
    129c:	07000013 	smladeq	r0, r3, r0, r0
    12a0:	08030005 	stmdaeq	r3, {r0, r2}
    12a4:	0b3b0b3a 	bleq	ec3f94 <__bss_end__+0xeb7da4>
    12a8:	17021349 	strne	r1, [r2, -r9, asr #6]
    12ac:	34080000 	strcc	r0, [r8], #-0
    12b0:	490e0300 	stmdbmi	lr, {r8, r9}
    12b4:	02193413 	andseq	r3, r9, #318767104	; 0x13000000
    12b8:	09000018 	stmdbeq	r0, {r3, r4}
    12bc:	00018289 	andeq	r8, r1, r9, lsl #5
    12c0:	13310111 	teqne	r1, #1073741828	; 0x40000004
    12c4:	890a0000 	stmdbhi	sl, {}	; <UNPREDICTABLE>
    12c8:	11010182 	smlabbne	r1, r2, r1, r0
    12cc:	01133101 	tsteq	r3, r1, lsl #2
    12d0:	0b000013 	bleq	1324 <__code_start__-0x6cdc>
    12d4:	0001828a 	andeq	r8, r1, sl, lsl #5
    12d8:	42911802 	addsmi	r1, r1, #131072	; 0x20000
    12dc:	0c000018 	stceq	0, cr0, [r0], {24}
    12e0:	13490101 	movtne	r0, #37121	; 0x9101
    12e4:	00001301 	andeq	r1, r0, r1, lsl #6
    12e8:	4900210d 	stmdbmi	r0, {r0, r2, r3, r8, sp}
    12ec:	000b2f13 	andeq	r2, fp, r3, lsl pc
    12f0:	002e0e00 	eoreq	r0, lr, r0, lsl #28
    12f4:	0e03193f 	mcreq	9, 0, r1, cr3, cr15, {1}
    12f8:	0b3b0b3a 	bleq	ec3fe8 <__bss_end__+0xeb7df8>
    12fc:	193c1927 	ldmdbne	ip!, {r0, r1, r2, r5, r8, fp, ip}
    1300:	2e0f0000 	cdpcs	0, 0, cr0, cr15, cr0, {0}
    1304:	03193f01 	tsteq	r9, #1, 30
    1308:	3b0b3a0e 	blcc	2cfb48 <__bss_end__+0x2c3958>
    130c:	4919270b 	ldmdbmi	r9, {r0, r1, r3, r8, r9, sl, sp}
    1310:	01193c13 	tsteq	r9, r3, lsl ip
    1314:	10000013 	andne	r0, r0, r3, lsl r0
    1318:	13490005 	movtne	r0, #36869	; 0x9005
    131c:	18110000 	ldmdane	r1, {}	; <UNPREDICTABLE>
    1320:	00000000 	andeq	r0, r0, r0
    1324:	25011101 	strcs	r1, [r1, #-257]	; 0x101
    1328:	030b130e 	movweq	r1, #45838	; 0xb30e
    132c:	110e1b0e 	tstne	lr, lr, lsl #22
    1330:	10061201 	andne	r1, r6, r1, lsl #4
    1334:	02000017 	andeq	r0, r0, #23
    1338:	0b0b0024 	bleq	2c13d0 <__bss_end__+0x2b51e0>
    133c:	08030b3e 	stmdaeq	r3, {r1, r2, r3, r4, r5, r8, r9, fp}
    1340:	24030000 	strcs	r0, [r3], #-0
    1344:	3e0b0b00 	vmlacc.f64	d0, d11, d0
    1348:	000e030b 	andeq	r0, lr, fp, lsl #6
    134c:	002e0400 	eoreq	r0, lr, r0, lsl #8
    1350:	0e03193f 	mcreq	9, 0, r1, cr3, cr15, {1}
    1354:	0b3b0b3a 	bleq	ec4044 <__bss_end__+0xeb7e54>
    1358:	01111927 	tsteq	r1, r7, lsr #18
    135c:	18400612 	stmdane	r0, {r1, r4, r9, sl}^
    1360:	00194297 	mulseq	r9, r7, r2
    1364:	11010000 	mrsne	r0, (UNDEF: 1)
    1368:	130e2501 	movwne	r2, #58625	; 0xe501
    136c:	1b0e030b 	blne	381fa0 <__bss_end__+0x375db0>
    1370:	1201110e 	andne	r1, r1, #-2147483645	; 0x80000003
    1374:	00171006 	andseq	r1, r7, r6
    1378:	00240200 	eoreq	r0, r4, r0, lsl #4
    137c:	0b3e0b0b 	bleq	f83fb0 <__bss_end__+0xf77dc0>
    1380:	00000803 	andeq	r0, r0, r3, lsl #16
    1384:	0b002403 	bleq	a398 <va_printk+0x1c>
    1388:	030b3e0b 	movweq	r3, #48651	; 0xbe0b
    138c:	0400000e 	streq	r0, [r0], #-14
    1390:	0b0b0104 	bleq	2c17a8 <__bss_end__+0x2b55b8>
    1394:	0b3b0b3a 	bleq	ec4084 <__bss_end__+0xeb7e94>
    1398:	00001301 	andeq	r1, r0, r1, lsl #6
    139c:	03002805 	movweq	r2, #2053	; 0x805
    13a0:	000d1c0e 	andeq	r1, sp, lr, lsl #24
    13a4:	012e0600 	teqeq	lr, r0, lsl #12
    13a8:	0e03193f 	mcreq	9, 0, r1, cr3, cr15, {1}
    13ac:	0b3b0b3a 	bleq	ec409c <__bss_end__+0xeb7eac>
    13b0:	01111927 	tsteq	r1, r7, lsr #18
    13b4:	18400612 	stmdane	r0, {r1, r4, r9, sl}^
    13b8:	01194297 			; <UNDEFINED> instruction: 0x01194297
    13bc:	07000013 	smladeq	r0, r3, r0, r0
    13c0:	0e030034 	mcreq	0, 0, r0, cr3, cr4, {1}
    13c4:	0b3b0b3a 	bleq	ec40b4 <__bss_end__+0xeb7ec4>
    13c8:	193f1349 	ldmdbne	pc!, {r0, r3, r6, r8, r9, ip}	; <UNPREDICTABLE>
    13cc:	0000193c 	andeq	r1, r0, ip, lsr r9
    13d0:	03003408 	movweq	r3, #1032	; 0x408
    13d4:	3b0b3a08 	blcc	2cfbfc <__bss_end__+0x2c3a0c>
    13d8:	1c13490b 	ldcne	9, cr4, [r3], {11}
    13dc:	0900000b 	stmdbeq	r0, {r0, r1, r3}
    13e0:	08030034 	stmdaeq	r3, {r2, r4, r5}
    13e4:	0b3b0b3a 	bleq	ec40d4 <__bss_end__+0xeb7ee4>
    13e8:	00001349 	andeq	r1, r0, r9, asr #6
    13ec:	0300340a 	movweq	r3, #1034	; 0x40a
    13f0:	3b0b3a08 	blcc	2cfc18 <__bss_end__+0x2c3a28>
    13f4:	0213490b 	andseq	r4, r3, #180224	; 0x2c000
    13f8:	0b000018 	bleq	1460 <__code_start__-0x6ba0>
    13fc:	0111010b 	tsteq	r1, fp, lsl #2
    1400:	13010612 	movwne	r0, #5650	; 0x1612
    1404:	340c0000 	strcc	r0, [ip], #-0
    1408:	3a080300 	bcc	202010 <__bss_end__+0x1f5e20>
    140c:	490b3b0b 	stmdbmi	fp, {r0, r1, r3, r8, r9, fp, ip, sp}
    1410:	00170213 	andseq	r0, r7, r3, lsl r2
    1414:	82890d00 	addhi	r0, r9, #0, 26
    1418:	01110001 	tsteq	r1, r1
    141c:	00001331 	andeq	r1, r0, r1, lsr r3
    1420:	0182890e 	orreq	r8, r2, lr, lsl #18
    1424:	31011101 	tstcc	r1, r1, lsl #2
    1428:	00130113 	andseq	r0, r3, r3, lsl r1
    142c:	828a0f00 	addhi	r0, sl, #0, 30
    1430:	18020001 	stmdane	r2, {r0}
    1434:	00184291 	mulseq	r8, r1, r2
    1438:	000f1000 	andeq	r1, pc, r0
    143c:	13490b0b 	movtne	r0, #39691	; 0x9b0b
    1440:	2e110000 	cdpcs	0, 1, cr0, cr1, cr0, {0}
    1444:	03193f00 	tsteq	r9, #0, 30
    1448:	3b0b3a0e 	blcc	2cfc88 <__bss_end__+0x2c3a98>
    144c:	3c19270b 	ldccc	7, cr2, [r9], {11}
    1450:	12000019 	andne	r0, r0, #25
    1454:	193f012e 	ldmdbne	pc!, {r1, r2, r3, r5, r8}	; <UNPREDICTABLE>
    1458:	0b3a0e03 	bleq	e84c6c <__bss_end__+0xe78a7c>
    145c:	19270b3b 	stmdbne	r7!, {r0, r1, r3, r4, r5, r8, r9, fp}
    1460:	0000193c 	andeq	r1, r0, ip, lsr r9
    1464:	49000513 	stmdbmi	r0, {r0, r1, r4, r8, sl}
    1468:	00000013 	andeq	r0, r0, r3, lsl r0
    146c:	25011101 	strcs	r1, [r1, #-257]	; 0x101
    1470:	030b130e 	movweq	r1, #45838	; 0xb30e
    1474:	550e1b0e 	strpl	r1, [lr, #-2830]	; 0xb0e
    1478:	10011117 	andne	r1, r1, r7, lsl r1
    147c:	02000017 	andeq	r0, r0, #23
    1480:	0b0b0024 	bleq	2c1518 <__bss_end__+0x2b5328>
    1484:	08030b3e 	stmdaeq	r3, {r1, r2, r3, r4, r5, r8, r9, fp}
    1488:	24030000 	strcs	r0, [r3], #-0
    148c:	3e0b0b00 	vmlacc.f64	d0, d11, d0
    1490:	000e030b 	andeq	r0, lr, fp, lsl #6
    1494:	012e0400 	teqeq	lr, r0, lsl #8
    1498:	0e03193f 	mcreq	9, 0, r1, cr3, cr15, {1}
    149c:	0b3b0b3a 	bleq	ec418c <__bss_end__+0xeb7f9c>
    14a0:	13491927 	movtne	r1, #39207	; 0x9927
    14a4:	06120111 			; <UNDEFINED> instruction: 0x06120111
    14a8:	42971840 	addsmi	r1, r7, #64, 16	; 0x400000
    14ac:	00130119 	andseq	r0, r3, r9, lsl r1
    14b0:	00340500 	eorseq	r0, r4, r0, lsl #10
    14b4:	0b3a0e03 	bleq	e84cc8 <__bss_end__+0xe78ad8>
    14b8:	13490b3b 	movtne	r0, #39739	; 0x9b3b
    14bc:	00001702 	andeq	r1, r0, r2, lsl #14
    14c0:	3f012e06 	svccc	0x00012e06
    14c4:	3a0e0319 	bcc	382130 <__bss_end__+0x375f40>
    14c8:	270b3b0b 	strcs	r3, [fp, -fp, lsl #22]
    14cc:	12011119 	andne	r1, r1, #1073741830	; 0x40000006
    14d0:	97184006 	ldrls	r4, [r8, -r6]
    14d4:	13011942 	movwne	r1, #6466	; 0x1942
    14d8:	34070000 	strcc	r0, [r7], #-0
    14dc:	3a0e0300 	bcc	3820e4 <__bss_end__+0x375ef4>
    14e0:	490b3b0b 	stmdbmi	fp, {r0, r1, r3, r8, r9, fp, ip, sp}
    14e4:	00061c13 	andeq	r1, r6, r3, lsl ip
    14e8:	00340800 	eorseq	r0, r4, r0, lsl #16
    14ec:	0b3a0e03 	bleq	e84d00 <__bss_end__+0xe78b10>
    14f0:	13490b3b 	movtne	r0, #39739	; 0x9b3b
    14f4:	00000b1c 	andeq	r0, r0, ip, lsl fp
    14f8:	01828909 	orreq	r8, r2, r9, lsl #18
    14fc:	31011100 	mrscc	r1, (UNDEF: 17)
    1500:	0a000013 	beq	1554 <__code_start__-0x6aac>
    1504:	01018289 	smlabbeq	r1, r9, r2, r8
    1508:	13310111 	teqne	r1, #1073741828	; 0x40000004
    150c:	00001301 	andeq	r1, r0, r1, lsl #6
    1510:	01828a0b 	orreq	r8, r2, fp, lsl #20
    1514:	91180200 	tstls	r8, r0, lsl #4
    1518:	00001842 	andeq	r1, r0, r2, asr #16
    151c:	0182890c 	orreq	r8, r2, ip, lsl #18
    1520:	31011101 	tstcc	r1, r1, lsl #2
    1524:	0d000013 	stceq	0, cr0, [r0, #-76]	; 0xffffffb4
    1528:	13490026 	movtne	r0, #36902	; 0x9026
    152c:	2e0e0000 	cdpcs	0, 0, cr0, cr14, cr0, {0}
    1530:	03193f01 	tsteq	r9, #1, 30
    1534:	3b0b3a0e 	blcc	2cfd74 <__bss_end__+0x2c3b84>
    1538:	3c19270b 	ldccc	7, cr2, [r9], {11}
    153c:	00130119 	andseq	r0, r3, r9, lsl r1
    1540:	00050f00 	andeq	r0, r5, r0, lsl #30
    1544:	00001349 	andeq	r1, r0, r9, asr #6
    1548:	3f012e10 	svccc	0x00012e10
    154c:	3a0e0319 	bcc	3821b8 <__bss_end__+0x375fc8>
    1550:	270b3b0b 	strcs	r3, [fp, -fp, lsl #22]
    1554:	00193c19 	andseq	r3, r9, r9, lsl ip
    1558:	11010000 	mrsne	r0, (UNDEF: 1)
    155c:	130e2501 	movwne	r2, #58625	; 0xe501
    1560:	1b0e030b 	blne	382194 <__bss_end__+0x375fa4>
    1564:	1201110e 	andne	r1, r1, #-2147483645	; 0x80000003
    1568:	00171006 	andseq	r1, r7, r6
    156c:	00240200 	eoreq	r0, r4, r0, lsl #4
    1570:	0b3e0b0b 	bleq	f841a4 <__bss_end__+0xf77fb4>
    1574:	00000803 	andeq	r0, r0, r3, lsl #16
    1578:	0b002403 	bleq	a58c <va_printk+0x210>
    157c:	030b3e0b 	movweq	r3, #48651	; 0xbe0b
    1580:	0400000e 	streq	r0, [r0], #-14
    1584:	193f012e 	ldmdbne	pc!, {r1, r2, r3, r5, r8}	; <UNPREDICTABLE>
    1588:	0b3a0e03 	bleq	e84d9c <__bss_end__+0xe78bac>
    158c:	19270b3b 	stmdbne	r7!, {r0, r1, r3, r4, r5, r8, r9, fp}
    1590:	06120111 			; <UNDEFINED> instruction: 0x06120111
    1594:	42971840 	addsmi	r1, r7, #64, 16	; 0x400000
    1598:	00130119 	andseq	r0, r3, r9, lsl r1
    159c:	00050500 	andeq	r0, r5, r0, lsl #10
    15a0:	0b3a0e03 	bleq	e84db4 <__bss_end__+0xe78bc4>
    15a4:	13490b3b 	movtne	r0, #39739	; 0x9b3b
    15a8:	00001702 	andeq	r1, r0, r2, lsl #14
    15ac:	3f012e06 	svccc	0x00012e06
    15b0:	3a0e0319 	bcc	38221c <__bss_end__+0x37602c>
    15b4:	270b3b0b 	strcs	r3, [fp, -fp, lsl #22]
    15b8:	11134919 	tstne	r3, r9, lsl r9
    15bc:	40061201 	andmi	r1, r6, r1, lsl #4
    15c0:	19429718 	stmdbne	r2, {r3, r4, r8, r9, sl, ip, pc}^
    15c4:	00001301 	andeq	r1, r0, r1, lsl #6
    15c8:	01828907 	orreq	r8, r2, r7, lsl #18
    15cc:	31011101 	tstcc	r1, r1, lsl #2
    15d0:	08000013 	stmdaeq	r0, {r0, r1, r4}
    15d4:	0001828a 	andeq	r8, r1, sl, lsl #5
    15d8:	42911802 	addsmi	r1, r1, #131072	; 0x20000
    15dc:	09000018 	stmdbeq	r0, {r3, r4}
    15e0:	08030034 	stmdaeq	r3, {r2, r4, r5}
    15e4:	0b3b0b3a 	bleq	ec42d4 <__bss_end__+0xeb80e4>
    15e8:	17021349 	strne	r1, [r2, -r9, asr #6]
    15ec:	890a0000 	stmdbhi	sl, {}	; <UNPREDICTABLE>
    15f0:	11000182 	smlabbne	r0, r2, r1, r0
    15f4:	00133101 	andseq	r3, r3, r1, lsl #2
    15f8:	00050b00 	andeq	r0, r5, r0, lsl #22
    15fc:	0b3a0803 	bleq	e83610 <__bss_end__+0xe77420>
    1600:	13490b3b 	movtne	r0, #39739	; 0x9b3b
    1604:	00001702 	andeq	r1, r0, r2, lsl #14
    1608:	0300340c 	movweq	r3, #1036	; 0x40c
    160c:	3b0b3a08 	blcc	2cfe34 <__bss_end__+0x2c3c44>
    1610:	0213490b 	andseq	r4, r3, #180224	; 0x2c000
    1614:	0d000018 	stceq	0, cr0, [r0, #-96]	; 0xffffffa0
    1618:	0111010b 	tsteq	r1, fp, lsl #2
    161c:	13010612 	movwne	r0, #5650	; 0x1612
    1620:	2e0e0000 	cdpcs	0, 0, cr0, cr14, cr0, {0}
    1624:	03193f01 	tsteq	r9, #1, 30
    1628:	3b0b3a0e 	blcc	2cfe68 <__bss_end__+0x2c3c78>
    162c:	4919270b 	ldmdbmi	r9, {r0, r1, r3, r8, r9, sl, sp}
    1630:	01193c13 	tsteq	r9, r3, lsl ip
    1634:	0f000013 	svceq	0x00000013
    1638:	13490005 	movtne	r0, #36869	; 0x9005
    163c:	2e100000 	cdpcs	0, 1, cr0, cr0, cr0, {0}
    1640:	03193f00 	tsteq	r9, #0, 30
    1644:	3b0b3a0e 	blcc	2cfe84 <__bss_end__+0x2c3c94>
    1648:	3c19270b 	ldccc	7, cr2, [r9], {11}
    164c:	00000019 	andeq	r0, r0, r9, lsl r0
    1650:	25011101 	strcs	r1, [r1, #-257]	; 0x101
    1654:	030b130e 	movweq	r1, #45838	; 0xb30e
    1658:	110e1b0e 	tstne	lr, lr, lsl #22
    165c:	10061201 	andne	r1, r6, r1, lsl #4
    1660:	02000017 	andeq	r0, r0, #23
    1664:	0b0b0024 	bleq	2c16fc <__bss_end__+0x2b550c>
    1668:	08030b3e 	stmdaeq	r3, {r1, r2, r3, r4, r5, r8, r9, fp}
    166c:	24030000 	strcs	r0, [r3], #-0
    1670:	3e0b0b00 	vmlacc.f64	d0, d11, d0
    1674:	000e030b 	andeq	r0, lr, fp, lsl #6
    1678:	00350400 	eorseq	r0, r5, r0, lsl #8
    167c:	00001349 	andeq	r1, r0, r9, asr #6
    1680:	03001605 	movweq	r1, #1541	; 0x605
    1684:	3b0b3a0e 	blcc	2cfec4 <__bss_end__+0x2c3cd4>
    1688:	0013490b 	andseq	r4, r3, fp, lsl #18
    168c:	00160600 	andseq	r0, r6, r0, lsl #12
    1690:	0b3a0e03 	bleq	e84ea4 <__bss_end__+0xe78cb4>
    1694:	1349053b 	movtne	r0, #38203	; 0x953b
    1698:	17070000 	strne	r0, [r7, -r0]
    169c:	3a0b0b01 	bcc	2c42a8 <__bss_end__+0x2b80b8>
    16a0:	010b3b0b 	tsteq	fp, fp, lsl #22
    16a4:	08000013 	stmdaeq	r0, {r0, r1, r4}
    16a8:	0e03000d 	cdpeq	0, 0, cr0, cr3, cr13, {0}
    16ac:	0b3b0b3a 	bleq	ec439c <__bss_end__+0xeb81ac>
    16b0:	00001349 	andeq	r1, r0, r9, asr #6
    16b4:	49010109 	stmdbmi	r1, {r0, r3, r8}
    16b8:	00130113 	andseq	r0, r3, r3, lsl r1
    16bc:	00210a00 	eoreq	r0, r1, r0, lsl #20
    16c0:	0b2f1349 	bleq	bc63ec <__bss_end__+0xbba1fc>
    16c4:	130b0000 	movwne	r0, #45056	; 0xb000
    16c8:	3a0b0b01 	bcc	2c42d4 <__bss_end__+0x2b80e4>
    16cc:	010b3b0b 	tsteq	fp, fp, lsl #22
    16d0:	0c000013 	stceq	0, cr0, [r0], {19}
    16d4:	0e03000d 	cdpeq	0, 0, cr0, cr3, cr13, {0}
    16d8:	0b3b0b3a 	bleq	ec43c8 <__bss_end__+0xeb81d8>
    16dc:	0b381349 	bleq	e06408 <__bss_end__+0xdfa218>
    16e0:	0f0d0000 	svceq	0x000d0000
    16e4:	000b0b00 	andeq	r0, fp, r0, lsl #22
    16e8:	000f0e00 	andeq	r0, pc, r0, lsl #28
    16ec:	13490b0b 	movtne	r0, #39691	; 0x9b0b
    16f0:	260f0000 	strcs	r0, [pc], -r0
    16f4:	00134900 	andseq	r4, r3, r0, lsl #18
    16f8:	01131000 	tsteq	r3, r0
    16fc:	0b0b0e03 	bleq	2c4f10 <__bss_end__+0x2b8d20>
    1700:	0b3b0b3a 	bleq	ec43f0 <__bss_end__+0xeb8200>
    1704:	00001301 	andeq	r1, r0, r1, lsl #6
    1708:	03000d11 	movweq	r0, #3345	; 0xd11
    170c:	3b0b3a08 	blcc	2cff34 <__bss_end__+0x2c3d44>
    1710:	3813490b 	ldmdacc	r3, {r0, r1, r3, r8, fp, lr}
    1714:	1200000b 	andne	r0, r0, #11
    1718:	0e030113 	mcreq	1, 0, r0, cr3, cr3, {0}
    171c:	0b3a050b 	bleq	e82b50 <__bss_end__+0xe76960>
    1720:	13010b3b 	movwne	r0, #6971	; 0x1b3b
    1724:	0d130000 	ldceq	0, cr0, [r3, #-0]
    1728:	3a0e0300 	bcc	382330 <__bss_end__+0x376140>
    172c:	490b3b0b 	stmdbmi	fp, {r0, r1, r3, r8, r9, fp, ip, sp}
    1730:	00053813 	andeq	r3, r5, r3, lsl r8
    1734:	00151400 	andseq	r1, r5, r0, lsl #8
    1738:	00001927 	andeq	r1, r0, r7, lsr #18
    173c:	27011515 	smladcs	r1, r5, r5, r1
    1740:	01134919 	tsteq	r3, r9, lsl r9
    1744:	16000013 			; <UNDEFINED> instruction: 0x16000013
    1748:	13490005 	movtne	r0, #36869	; 0x9005
    174c:	13170000 	tstne	r7, #0
    1750:	0b0e0301 	bleq	38235c <__bss_end__+0x37616c>
    1754:	3b0b3a05 	blcc	2cff70 <__bss_end__+0x2c3d80>
    1758:	00130105 	andseq	r0, r3, r5, lsl #2
    175c:	000d1800 	andeq	r1, sp, r0, lsl #16
    1760:	0b3a0e03 	bleq	e84f74 <__bss_end__+0xe78d84>
    1764:	1349053b 	movtne	r0, #38203	; 0x953b
    1768:	00000b38 	andeq	r0, r0, r8, lsr fp
    176c:	03000d19 	movweq	r0, #3353	; 0xd19
    1770:	3b0b3a0e 	blcc	2cffb0 <__bss_end__+0x2c3dc0>
    1774:	38134905 	ldmdacc	r3, {r0, r2, r8, fp, lr}
    1778:	1a000005 	bne	1794 <__code_start__-0x686c>
    177c:	0e030113 	mcreq	1, 0, r0, cr3, cr3, {0}
    1780:	0b3a0b0b 	bleq	e843b4 <__bss_end__+0xe781c4>
    1784:	1301053b 	movwne	r0, #5435	; 0x153b
    1788:	131b0000 	tstne	fp, #0
    178c:	3a0b0b01 	bcc	2c4398 <__bss_end__+0x2b81a8>
    1790:	01053b0b 	tsteq	r5, fp, lsl #22
    1794:	1c000013 	stcne	0, cr0, [r0], {19}
    1798:	0b0b0117 	bleq	2c1bfc <__bss_end__+0x2b5a0c>
    179c:	053b0b3a 	ldreq	r0, [fp, #-2874]!	; 0xb3a
    17a0:	00001301 	andeq	r1, r0, r1, lsl #6
    17a4:	03000d1d 	movweq	r0, #3357	; 0xd1d
    17a8:	3b0b3a0e 	blcc	2cffe8 <__bss_end__+0x2c3df8>
    17ac:	00134905 	andseq	r4, r3, r5, lsl #18
    17b0:	01151e00 	tsteq	r5, r0, lsl #28
    17b4:	13011927 	movwne	r1, #6439	; 0x1927
    17b8:	341f0000 	ldrcc	r0, [pc], #-0	; 17c0 <__code_start__-0x6840>
    17bc:	3a0e0300 	bcc	3823c4 <__bss_end__+0x3761d4>
    17c0:	49053b0b 	stmdbmi	r5, {r0, r1, r3, r8, r9, fp, ip, sp}
    17c4:	3c193f13 	ldccc	15, cr3, [r9], {19}
    17c8:	20000019 	andcs	r0, r0, r9, lsl r0
    17cc:	0e030034 	mcreq	0, 0, r0, cr3, cr4, {1}
    17d0:	0b3b0b3a 	bleq	ec44c0 <__bss_end__+0xeb82d0>
    17d4:	193f1349 	ldmdbne	pc!, {r0, r3, r6, r8, r9, ip}	; <UNPREDICTABLE>
    17d8:	0000193c 	andeq	r1, r0, ip, lsr r9
    17dc:	0b010421 	bleq	42868 <__bss_end__+0x36678>
    17e0:	3a13490b 	bcc	4d3c14 <__bss_end__+0x4c7a24>
    17e4:	010b3b0b 	tsteq	fp, fp, lsl #22
    17e8:	22000013 	andcs	r0, r0, #19
    17ec:	0e030028 	cdpeq	0, 0, cr0, cr3, cr8, {1}
    17f0:	00000b1c 	andeq	r0, r0, ip, lsl fp
    17f4:	03003423 	movweq	r3, #1059	; 0x423
    17f8:	3b0b3a0e 	blcc	2d0038 <__bss_end__+0x2c3e48>
    17fc:	1c13490b 	ldcne	9, cr4, [r3], {11}
    1800:	24000006 	strcs	r0, [r0], #-6
    1804:	193f012e 	ldmdbne	pc!, {r1, r2, r3, r5, r8}	; <UNPREDICTABLE>
    1808:	0b3a0e03 	bleq	e8501c <__bss_end__+0xe78e2c>
    180c:	19270b3b 	stmdbne	r7!, {r0, r1, r3, r4, r5, r8, r9, fp}
    1810:	01111349 	tsteq	r1, r9, asr #6
    1814:	18400612 	stmdane	r0, {r1, r4, r9, sl}^
    1818:	01194297 			; <UNDEFINED> instruction: 0x01194297
    181c:	25000013 	strcs	r0, [r0, #-19]
    1820:	00018289 	andeq	r8, r1, r9, lsl #5
    1824:	13310111 	teqne	r1, #1073741828	; 0x40000004
    1828:	2e260000 	cdpcs	0, 2, cr0, cr6, cr0, {0}
    182c:	03193f01 	tsteq	r9, #1, 30
    1830:	3b0b3a0e 	blcc	2d0070 <__bss_end__+0x2c3e80>
    1834:	1119270b 	tstne	r9, fp, lsl #14
    1838:	40061201 	andmi	r1, r6, r1, lsl #4
    183c:	19429718 	stmdbne	r2, {r3, r4, r8, r9, sl, ip, pc}^
    1840:	00001301 	andeq	r1, r0, r1, lsl #6
    1844:	03000527 	movweq	r0, #1319	; 0x527
    1848:	3b0b3a08 	blcc	2d0070 <__bss_end__+0x2c3e80>
    184c:	0213490b 	andseq	r4, r3, #180224	; 0x2c000
    1850:	28000017 	stmdacs	r0, {r0, r1, r2, r4}
    1854:	01018289 	smlabbeq	r1, r9, r2, r8
    1858:	13310111 	teqne	r1, #1073741828	; 0x40000004
    185c:	00001301 	andeq	r1, r0, r1, lsl #6
    1860:	01828a29 	orreq	r8, r2, r9, lsr #20
    1864:	91180200 	tstls	r8, r0, lsl #4
    1868:	00001842 	andeq	r1, r0, r2, asr #16
    186c:	0300342a 	movweq	r3, #1066	; 0x42a
    1870:	3b0b3a08 	blcc	2d0098 <__bss_end__+0x2c3ea8>
    1874:	0213490b 	andseq	r4, r3, #180224	; 0x2c000
    1878:	2b000018 	blcs	18e0 <__code_start__-0x6720>
    187c:	01018289 	smlabbeq	r1, r9, r2, r8
    1880:	13310111 	teqne	r1, #1073741828	; 0x40000004
    1884:	2e2c0000 	cdpcs	0, 2, cr0, cr12, cr0, {0}
    1888:	3a0e0301 	bcc	382494 <__bss_end__+0x3762a4>
    188c:	270b3b0b 	strcs	r3, [fp, -fp, lsl #22]
    1890:	12011119 	andne	r1, r1, #1073741830	; 0x40000006
    1894:	97184006 	ldrls	r4, [r8, -r6]
    1898:	13011942 	movwne	r1, #6466	; 0x1942
    189c:	052d0000 	streq	r0, [sp, #-0]!
    18a0:	3a0e0300 	bcc	3824a8 <__bss_end__+0x3762b8>
    18a4:	490b3b0b 	stmdbmi	fp, {r0, r1, r3, r8, r9, fp, ip, sp}
    18a8:	00170213 	andseq	r0, r7, r3, lsl r2
    18ac:	00352e00 	eorseq	r2, r5, r0, lsl #28
    18b0:	2e2f0000 	cdpcs	0, 2, cr0, cr15, cr0, {0}
    18b4:	3c193f00 	ldccc	15, cr3, [r9], {-0}
    18b8:	030e6e19 	movweq	r6, #60953	; 0xee19
    18bc:	3b0b3a0e 	blcc	2d00fc <__bss_end__+0x2c3f0c>
    18c0:	0000000b 	andeq	r0, r0, fp
    18c4:	25011101 	strcs	r1, [r1, #-257]	; 0x101
    18c8:	030b130e 	movweq	r1, #45838	; 0xb30e
    18cc:	110e1b0e 	tstne	lr, lr, lsl #22
    18d0:	10061201 	andne	r1, r6, r1, lsl #4
    18d4:	02000017 	andeq	r0, r0, #23
    18d8:	0b0b0024 	bleq	2c1970 <__bss_end__+0x2b5780>
    18dc:	08030b3e 	stmdaeq	r3, {r1, r2, r3, r4, r5, r8, r9, fp}
    18e0:	24030000 	strcs	r0, [r3], #-0
    18e4:	3e0b0b00 	vmlacc.f64	d0, d11, d0
    18e8:	000e030b 	andeq	r0, lr, fp, lsl #6
    18ec:	00260400 	eoreq	r0, r6, r0, lsl #8
    18f0:	00001349 	andeq	r1, r0, r9, asr #6
    18f4:	03001605 	movweq	r1, #1541	; 0x605
    18f8:	3b0b3a0e 	blcc	2d0138 <__bss_end__+0x2c3f48>
    18fc:	0013490b 	andseq	r4, r3, fp, lsl #18
    1900:	00160600 	andseq	r0, r6, r0, lsl #12
    1904:	0b3a0e03 	bleq	e85118 <__bss_end__+0xe78f28>
    1908:	1349053b 	movtne	r0, #38203	; 0x953b
    190c:	17070000 	strne	r0, [r7, -r0]
    1910:	3a0b0b01 	bcc	2c451c <__bss_end__+0x2b832c>
    1914:	010b3b0b 	tsteq	fp, fp, lsl #22
    1918:	08000013 	stmdaeq	r0, {r0, r1, r4}
    191c:	0e03000d 	cdpeq	0, 0, cr0, cr3, cr13, {0}
    1920:	0b3b0b3a 	bleq	ec4610 <__bss_end__+0xeb8420>
    1924:	00001349 	andeq	r1, r0, r9, asr #6
    1928:	49010109 	stmdbmi	r1, {r0, r3, r8}
    192c:	00130113 	andseq	r0, r3, r3, lsl r1
    1930:	00210a00 	eoreq	r0, r1, r0, lsl #20
    1934:	0b2f1349 	bleq	bc6660 <__bss_end__+0xbba470>
    1938:	130b0000 	movwne	r0, #45056	; 0xb000
    193c:	3a0b0b01 	bcc	2c4548 <__bss_end__+0x2b8358>
    1940:	010b3b0b 	tsteq	fp, fp, lsl #22
    1944:	0c000013 	stceq	0, cr0, [r0], {19}
    1948:	0e03000d 	cdpeq	0, 0, cr0, cr3, cr13, {0}
    194c:	0b3b0b3a 	bleq	ec463c <__bss_end__+0xeb844c>
    1950:	0b381349 	bleq	e0667c <__bss_end__+0xdfa48c>
    1954:	0f0d0000 	svceq	0x000d0000
    1958:	000b0b00 	andeq	r0, fp, r0, lsl #22
    195c:	000f0e00 	andeq	r0, pc, r0, lsl #28
    1960:	13490b0b 	movtne	r0, #39691	; 0x9b0b
    1964:	130f0000 	movwne	r0, #61440	; 0xf000
    1968:	0b0e0301 	bleq	382574 <__bss_end__+0x376384>
    196c:	3b0b3a0b 	blcc	2d01a0 <__bss_end__+0x2c3fb0>
    1970:	0013010b 	andseq	r0, r3, fp, lsl #2
    1974:	000d1000 	andeq	r1, sp, r0
    1978:	0b3a0803 	bleq	e8398c <__bss_end__+0xe7779c>
    197c:	13490b3b 	movtne	r0, #39739	; 0x9b3b
    1980:	00000b38 	andeq	r0, r0, r8, lsr fp
    1984:	03011311 	movweq	r1, #4881	; 0x1311
    1988:	3a050b0e 	bcc	1445c8 <__bss_end__+0x1383d8>
    198c:	010b3b0b 	tsteq	fp, fp, lsl #22
    1990:	12000013 	andne	r0, r0, #19
    1994:	0e03000d 	cdpeq	0, 0, cr0, cr3, cr13, {0}
    1998:	0b3b0b3a 	bleq	ec4688 <__bss_end__+0xeb8498>
    199c:	05381349 	ldreq	r1, [r8, #-841]!	; 0x349
    19a0:	15130000 	ldrne	r0, [r3, #-0]
    19a4:	00192700 	andseq	r2, r9, r0, lsl #14
    19a8:	01151400 	tsteq	r5, r0, lsl #8
    19ac:	13491927 	movtne	r1, #39207	; 0x9927
    19b0:	00001301 	andeq	r1, r0, r1, lsl #6
    19b4:	49000515 	stmdbmi	r0, {r0, r2, r4, r8, sl}
    19b8:	16000013 			; <UNDEFINED> instruction: 0x16000013
    19bc:	0e030113 	mcreq	1, 0, r0, cr3, cr3, {0}
    19c0:	0b3a050b 	bleq	e82df4 <__bss_end__+0xe76c04>
    19c4:	1301053b 	movwne	r0, #5435	; 0x153b
    19c8:	0d170000 	ldceq	0, cr0, [r7, #-0]
    19cc:	3a0e0300 	bcc	3825d4 <__bss_end__+0x3763e4>
    19d0:	49053b0b 	stmdbmi	r5, {r0, r1, r3, r8, r9, fp, ip, sp}
    19d4:	000b3813 	andeq	r3, fp, r3, lsl r8
    19d8:	000d1800 	andeq	r1, sp, r0, lsl #16
    19dc:	0b3a0e03 	bleq	e851f0 <__bss_end__+0xe79000>
    19e0:	1349053b 	movtne	r0, #38203	; 0x953b
    19e4:	00000538 	andeq	r0, r0, r8, lsr r5
    19e8:	03011319 	movweq	r1, #4889	; 0x1319
    19ec:	3a0b0b0e 	bcc	2c462c <__bss_end__+0x2b843c>
    19f0:	01053b0b 	tsteq	r5, fp, lsl #22
    19f4:	1a000013 	bne	1a48 <__code_start__-0x65b8>
    19f8:	0b0b0113 	bleq	2c1e4c <__bss_end__+0x2b5c5c>
    19fc:	053b0b3a 	ldreq	r0, [fp, #-2874]!	; 0xb3a
    1a00:	00001301 	andeq	r1, r0, r1, lsl #6
    1a04:	0b01171b 	bleq	47678 <__bss_end__+0x3b488>
    1a08:	3b0b3a0b 	blcc	2d023c <__bss_end__+0x2c404c>
    1a0c:	00130105 	andseq	r0, r3, r5, lsl #2
    1a10:	000d1c00 	andeq	r1, sp, r0, lsl #24
    1a14:	0b3a0e03 	bleq	e85228 <__bss_end__+0xe79038>
    1a18:	1349053b 	movtne	r0, #38203	; 0x953b
    1a1c:	151d0000 	ldrne	r0, [sp, #-0]
    1a20:	01192701 	tsteq	r9, r1, lsl #14
    1a24:	1e000013 	mcrne	0, 0, r0, cr0, cr3, {0}
    1a28:	0e030034 	mcreq	0, 0, r0, cr3, cr4, {1}
    1a2c:	053b0b3a 	ldreq	r0, [fp, #-2874]!	; 0xb3a
    1a30:	193f1349 	ldmdbne	pc!, {r0, r3, r6, r8, r9, ip}	; <UNPREDICTABLE>
    1a34:	0000193c 	andeq	r1, r0, ip, lsr r9
    1a38:	0300341f 	movweq	r3, #1055	; 0x41f
    1a3c:	3b0b3a0e 	blcc	2d027c <__bss_end__+0x2c408c>
    1a40:	3f13490b 	svccc	0x0013490b
    1a44:	00193c19 	andseq	r3, r9, r9, lsl ip
    1a48:	01042000 	mrseq	r2, (UNDEF: 4)
    1a4c:	13490b0b 	movtne	r0, #39691	; 0x9b0b
    1a50:	0b3b0b3a 	bleq	ec4740 <__bss_end__+0xeb8550>
    1a54:	00001301 	andeq	r1, r0, r1, lsl #6
    1a58:	03002821 	movweq	r2, #2081	; 0x821
    1a5c:	000b1c0e 	andeq	r1, fp, lr, lsl #24
    1a60:	00342200 	eorseq	r2, r4, r0, lsl #4
    1a64:	0b3a0e03 	bleq	e85278 <__bss_end__+0xe79088>
    1a68:	13490b3b 	movtne	r0, #39739	; 0x9b3b
    1a6c:	0000061c 	andeq	r0, r0, ip, lsl r6
    1a70:	3f012e23 	svccc	0x00012e23
    1a74:	3a0e0319 	bcc	3826e0 <__bss_end__+0x3764f0>
    1a78:	270b3b0b 	strcs	r3, [fp, -fp, lsl #22]
    1a7c:	11134919 	tstne	r3, r9, lsl r9
    1a80:	40061201 	andmi	r1, r6, r1, lsl #4
    1a84:	19429718 	stmdbne	r2, {r3, r4, r8, r9, sl, ip, pc}^
    1a88:	00001301 	andeq	r1, r0, r1, lsl #6
    1a8c:	03000524 	movweq	r0, #1316	; 0x524
    1a90:	3b0b3a08 	blcc	2d02b8 <__bss_end__+0x2c40c8>
    1a94:	0213490b 	andseq	r4, r3, #180224	; 0x2c000
    1a98:	25000017 	strcs	r0, [r0, #-23]
    1a9c:	0e030034 	mcreq	0, 0, r0, cr3, cr4, {1}
    1aa0:	0b3b0b3a 	bleq	ec4790 <__bss_end__+0xeb85a0>
    1aa4:	17021349 	strne	r1, [r2, -r9, asr #6]
    1aa8:	34260000 	strtcc	r0, [r6], #-0
    1aac:	3a080300 	bcc	2026b4 <__bss_end__+0x1f64c4>
    1ab0:	490b3b0b 	stmdbmi	fp, {r0, r1, r3, r8, r9, fp, ip, sp}
    1ab4:	00170213 	andseq	r0, r7, r3, lsl r2
    1ab8:	82892700 	addhi	r2, r9, #0, 14
    1abc:	01110101 	tsteq	r1, r1, lsl #2
    1ac0:	00001331 	andeq	r1, r0, r1, lsr r3
    1ac4:	01828a28 	orreq	r8, r2, r8, lsr #20
    1ac8:	91180200 	tstls	r8, r0, lsl #4
    1acc:	00001842 	andeq	r1, r0, r2, asr #16
    1ad0:	3f012e29 	svccc	0x00012e29
    1ad4:	3a0e0319 	bcc	382740 <__bss_end__+0x376550>
    1ad8:	270b3b0b 	strcs	r3, [fp, -fp, lsl #22]
    1adc:	12011119 	andne	r1, r1, #1073741830	; 0x40000006
    1ae0:	97184006 	ldrls	r4, [r8, -r6]
    1ae4:	13011942 	movwne	r1, #6466	; 0x1942
    1ae8:	892a0000 	stmdbhi	sl!, {}	; <UNPREDICTABLE>
    1aec:	11010182 	smlabbne	r1, r2, r1, r0
    1af0:	01133101 	tsteq	r3, r1, lsl #2
    1af4:	2b000013 	blcs	1b48 <__code_start__-0x64b8>
    1af8:	00018289 	andeq	r8, r1, r9, lsl #5
    1afc:	13310111 	teqne	r1, #1073741828	; 0x40000004
    1b00:	052c0000 	streq	r0, [ip, #-0]!
    1b04:	3a0e0300 	bcc	38270c <__bss_end__+0x37651c>
    1b08:	490b3b0b 	stmdbmi	fp, {r0, r1, r3, r8, r9, fp, ip, sp}
    1b0c:	00170213 	andseq	r0, r7, r3, lsl r2
    1b10:	00342d00 	eorseq	r2, r4, r0, lsl #26
    1b14:	0b3a0803 	bleq	e83b28 <__bss_end__+0xe77938>
    1b18:	13490b3b 	movtne	r0, #39739	; 0x9b3b
    1b1c:	00001802 	andeq	r1, r0, r2, lsl #16
    1b20:	3f002e2e 	svccc	0x00002e2e
    1b24:	6e193c19 	mrcvs	12, 0, r3, cr9, cr9, {0}
    1b28:	3a0e030e 	bcc	382768 <__bss_end__+0x376578>
    1b2c:	000b3b0b 	andeq	r3, fp, fp, lsl #22
    1b30:	11010000 	mrsne	r0, (UNDEF: 1)
    1b34:	130e2501 	movwne	r2, #58625	; 0xe501
    1b38:	1b0e030b 	blne	38276c <__bss_end__+0x37657c>
    1b3c:	1201110e 	andne	r1, r1, #-2147483645	; 0x80000003
    1b40:	00171006 	andseq	r1, r7, r6
    1b44:	00240200 	eoreq	r0, r4, r0, lsl #4
    1b48:	0b3e0b0b 	bleq	f8477c <__bss_end__+0xf7858c>
    1b4c:	00000803 	andeq	r0, r0, r3, lsl #16
    1b50:	0b002403 	bleq	ab64 <gpio_set_function+0x44>
    1b54:	030b3e0b 	movweq	r3, #48651	; 0xbe0b
    1b58:	0400000e 	streq	r0, [r0], #-14
    1b5c:	0e030016 	mcreq	0, 0, r0, cr3, cr6, {0}
    1b60:	0b3b0b3a 	bleq	ec4850 <__bss_end__+0xeb8660>
    1b64:	00001349 	andeq	r1, r0, r9, asr #6
    1b68:	03001605 	movweq	r1, #1541	; 0x605
    1b6c:	3b0b3a0e 	blcc	2d03ac <__bss_end__+0x2c41bc>
    1b70:	00134905 	andseq	r4, r3, r5, lsl #18
    1b74:	01170600 	tsteq	r7, r0, lsl #12
    1b78:	0b3a0b0b 	bleq	e847ac <__bss_end__+0xe785bc>
    1b7c:	13010b3b 	movwne	r0, #6971	; 0x1b3b
    1b80:	0d070000 	stceq	0, cr0, [r7, #-0]
    1b84:	3a0e0300 	bcc	38278c <__bss_end__+0x37659c>
    1b88:	490b3b0b 	stmdbmi	fp, {r0, r1, r3, r8, r9, fp, ip, sp}
    1b8c:	08000013 	stmdaeq	r0, {r0, r1, r4}
    1b90:	13490101 	movtne	r0, #37121	; 0x9101
    1b94:	00001301 	andeq	r1, r0, r1, lsl #6
    1b98:	49002109 	stmdbmi	r0, {r0, r3, r8, sp}
    1b9c:	000b2f13 	andeq	r2, fp, r3, lsl pc
    1ba0:	01130a00 	tsteq	r3, r0, lsl #20
    1ba4:	0b3a0b0b 	bleq	e847d8 <__bss_end__+0xe785e8>
    1ba8:	13010b3b 	movwne	r0, #6971	; 0x1b3b
    1bac:	0d0b0000 	stceq	0, cr0, [fp, #-0]
    1bb0:	3a0e0300 	bcc	3827b8 <__bss_end__+0x3765c8>
    1bb4:	490b3b0b 	stmdbmi	fp, {r0, r1, r3, r8, r9, fp, ip, sp}
    1bb8:	000b3813 	andeq	r3, fp, r3, lsl r8
    1bbc:	000f0c00 	andeq	r0, pc, r0, lsl #24
    1bc0:	00000b0b 	andeq	r0, r0, fp, lsl #22
    1bc4:	0b000f0d 	bleq	5800 <__code_start__-0x2800>
    1bc8:	0013490b 	andseq	r4, r3, fp, lsl #18
    1bcc:	00260e00 	eoreq	r0, r6, r0, lsl #28
    1bd0:	00001349 	andeq	r1, r0, r9, asr #6
    1bd4:	0301130f 	movweq	r1, #4879	; 0x130f
    1bd8:	3a0b0b0e 	bcc	2c4818 <__bss_end__+0x2b8628>
    1bdc:	010b3b0b 	tsteq	fp, fp, lsl #22
    1be0:	10000013 	andne	r0, r0, r3, lsl r0
    1be4:	0803000d 	stmdaeq	r3, {r0, r2, r3}
    1be8:	0b3b0b3a 	bleq	ec48d8 <__bss_end__+0xeb86e8>
    1bec:	0b381349 	bleq	e06918 <__bss_end__+0xdfa728>
    1bf0:	13110000 	tstne	r1, #0
    1bf4:	0b0e0301 	bleq	382800 <__bss_end__+0x376610>
    1bf8:	3b0b3a05 	blcc	2d0414 <__bss_end__+0x2c4224>
    1bfc:	0013010b 	andseq	r0, r3, fp, lsl #2
    1c00:	000d1200 	andeq	r1, sp, r0, lsl #4
    1c04:	0b3a0e03 	bleq	e85418 <__bss_end__+0xe79228>
    1c08:	13490b3b 	movtne	r0, #39739	; 0x9b3b
    1c0c:	00000538 	andeq	r0, r0, r8, lsr r5
    1c10:	27001513 	smladcs	r0, r3, r5, r1
    1c14:	14000019 	strne	r0, [r0], #-25
    1c18:	19270115 	stmdbne	r7!, {r0, r2, r4, r8}
    1c1c:	13011349 	movwne	r1, #4937	; 0x1349
    1c20:	05150000 	ldreq	r0, [r5, #-0]
    1c24:	00134900 	andseq	r4, r3, r0, lsl #18
    1c28:	01131600 	tsteq	r3, r0, lsl #12
    1c2c:	050b0e03 	streq	r0, [fp, #-3587]	; 0xe03
    1c30:	053b0b3a 	ldreq	r0, [fp, #-2874]!	; 0xb3a
    1c34:	00001301 	andeq	r1, r0, r1, lsl #6
    1c38:	03000d17 	movweq	r0, #3351	; 0xd17
    1c3c:	3b0b3a0e 	blcc	2d047c <__bss_end__+0x2c428c>
    1c40:	38134905 	ldmdacc	r3, {r0, r2, r8, fp, lr}
    1c44:	1800000b 	stmdane	r0, {r0, r1, r3}
    1c48:	0e03000d 	cdpeq	0, 0, cr0, cr3, cr13, {0}
    1c4c:	053b0b3a 	ldreq	r0, [fp, #-2874]!	; 0xb3a
    1c50:	05381349 	ldreq	r1, [r8, #-841]!	; 0x349
    1c54:	13190000 	tstne	r9, #0
    1c58:	0b0e0301 	bleq	382864 <__bss_end__+0x376674>
    1c5c:	3b0b3a0b 	blcc	2d0490 <__bss_end__+0x2c42a0>
    1c60:	00130105 	andseq	r0, r3, r5, lsl #2
    1c64:	01131a00 	tsteq	r3, r0, lsl #20
    1c68:	0b3a0b0b 	bleq	e8489c <__bss_end__+0xe786ac>
    1c6c:	1301053b 	movwne	r0, #5435	; 0x153b
    1c70:	171b0000 	ldrne	r0, [fp, -r0]
    1c74:	3a0b0b01 	bcc	2c4880 <__bss_end__+0x2b8690>
    1c78:	01053b0b 	tsteq	r5, fp, lsl #22
    1c7c:	1c000013 	stcne	0, cr0, [r0], {19}
    1c80:	0e03000d 	cdpeq	0, 0, cr0, cr3, cr13, {0}
    1c84:	053b0b3a 	ldreq	r0, [fp, #-2874]!	; 0xb3a
    1c88:	00001349 	andeq	r1, r0, r9, asr #6
    1c8c:	2701151d 	smladcs	r1, sp, r5, r1
    1c90:	00130119 	andseq	r0, r3, r9, lsl r1
    1c94:	00341e00 	eorseq	r1, r4, r0, lsl #28
    1c98:	0b3a0e03 	bleq	e854ac <__bss_end__+0xe792bc>
    1c9c:	1349053b 	movtne	r0, #38203	; 0x953b
    1ca0:	193c193f 	ldmdbne	ip!, {r0, r1, r2, r3, r4, r5, r8, fp, ip}
    1ca4:	341f0000 	ldrcc	r0, [pc], #-0	; 1cac <__code_start__-0x6354>
    1ca8:	3a0e0300 	bcc	3828b0 <__bss_end__+0x3766c0>
    1cac:	490b3b0b 	stmdbmi	fp, {r0, r1, r3, r8, r9, fp, ip, sp}
    1cb0:	3c193f13 	ldccc	15, cr3, [r9], {19}
    1cb4:	20000019 	andcs	r0, r0, r9, lsl r0
    1cb8:	0e030034 	mcreq	0, 0, r0, cr3, cr4, {1}
    1cbc:	0b3b0b3a 	bleq	ec49ac <__bss_end__+0xeb87bc>
    1cc0:	18021349 	stmdane	r2, {r0, r3, r6, r8, r9, ip}
    1cc4:	2e210000 	cdpcs	0, 2, cr0, cr1, cr0, {0}
    1cc8:	03193f01 	tsteq	r9, #1, 30
    1ccc:	3b0b3a0e 	blcc	2d050c <__bss_end__+0x2c431c>
    1cd0:	1119270b 	tstne	r9, fp, lsl #14
    1cd4:	40061201 	andmi	r1, r6, r1, lsl #4
    1cd8:	19429718 	stmdbne	r2, {r3, r4, r8, r9, sl, ip, pc}^
    1cdc:	00001301 	andeq	r1, r0, r1, lsl #6
    1ce0:	03000522 	movweq	r0, #1314	; 0x522
    1ce4:	3b0b3a08 	blcc	2d050c <__bss_end__+0x2c431c>
    1ce8:	0213490b 	andseq	r4, r3, #180224	; 0x2c000
    1cec:	23000018 	movwcs	r0, #24
    1cf0:	193f002e 	ldmdbne	pc!, {r1, r2, r3, r5}	; <UNPREDICTABLE>
    1cf4:	0b3a0e03 	bleq	e85508 <__bss_end__+0xe79318>
    1cf8:	19270b3b 	stmdbne	r7!, {r0, r1, r3, r4, r5, r8, r9, fp}
    1cfc:	06120111 			; <UNDEFINED> instruction: 0x06120111
    1d00:	42971840 	addsmi	r1, r7, #64, 16	; 0x400000
    1d04:	24000019 	strcs	r0, [r0], #-25
    1d08:	193f012e 	ldmdbne	pc!, {r1, r2, r3, r5, r8}	; <UNPREDICTABLE>
    1d0c:	0b3a0e03 	bleq	e85520 <__bss_end__+0xe79330>
    1d10:	19270b3b 	stmdbne	r7!, {r0, r1, r3, r4, r5, r8, r9, fp}
    1d14:	01111349 	tsteq	r1, r9, asr #6
    1d18:	18400612 	stmdane	r0, {r1, r4, r9, sl}^
    1d1c:	01194297 			; <UNDEFINED> instruction: 0x01194297
    1d20:	25000013 	strcs	r0, [r0, #-19]
    1d24:	0e030005 	cdpeq	0, 0, cr0, cr3, cr5, {0}
    1d28:	0b3b0b3a 	bleq	ec4a18 <__bss_end__+0xeb8828>
    1d2c:	17021349 	strne	r1, [r2, -r9, asr #6]
    1d30:	34260000 	strtcc	r0, [r6], #-0
    1d34:	490e0300 	stmdbmi	lr, {r8, r9}
    1d38:	02193413 	andseq	r3, r9, #318767104	; 0x13000000
    1d3c:	27000018 	smladcs	r0, r8, r0, r0
    1d40:	08030034 	stmdaeq	r3, {r2, r4, r5}
    1d44:	0b3b0b3a 	bleq	ec4a34 <__bss_end__+0xeb8844>
    1d48:	17021349 	strne	r1, [r2, -r9, asr #6]
    1d4c:	89280000 	stmdbhi	r8!, {}	; <UNPREDICTABLE>
    1d50:	11010182 	smlabbne	r1, r2, r1, r0
    1d54:	01133101 	tsteq	r3, r1, lsl #2
    1d58:	29000013 	stmdbcs	r0, {r0, r1, r4}
    1d5c:	0001828a 	andeq	r8, r1, sl, lsl #5
    1d60:	42911802 	addsmi	r1, r1, #131072	; 0x20000
    1d64:	2a000018 	bcs	1dcc <__code_start__-0x6234>
    1d68:	00018289 	andeq	r8, r1, r9, lsl #5
    1d6c:	13310111 	teqne	r1, #1073741828	; 0x40000004
    1d70:	052b0000 	streq	r0, [fp, #-0]!
    1d74:	3a080300 	bcc	20297c <__bss_end__+0x1f678c>
    1d78:	490b3b0b 	stmdbmi	fp, {r0, r1, r3, r8, r9, fp, ip, sp}
    1d7c:	00170213 	andseq	r0, r7, r3, lsl r2
    1d80:	00342c00 	eorseq	r2, r4, r0, lsl #24
    1d84:	0b3a0e03 	bleq	e85598 <__bss_end__+0xe793a8>
    1d88:	13490b3b 	movtne	r0, #39739	; 0x9b3b
    1d8c:	00001702 	andeq	r1, r0, r2, lsl #14
    1d90:	3f002e2d 	svccc	0x00002e2d
    1d94:	3a0e0319 	bcc	382a00 <__bss_end__+0x376810>
    1d98:	270b3b0b 	strcs	r3, [fp, -fp, lsl #22]
    1d9c:	11134919 	tstne	r3, r9, lsl r9
    1da0:	40061201 	andmi	r1, r6, r1, lsl #4
    1da4:	19429718 	stmdbne	r2, {r3, r4, r8, r9, sl, ip, pc}^
    1da8:	2e2e0000 	cdpcs	0, 2, cr0, cr14, cr0, {0}
    1dac:	3c193f00 	ldccc	15, cr3, [r9], {-0}
    1db0:	030e6e19 	movweq	r6, #60953	; 0xee19
    1db4:	3b0b3a0e 	blcc	2d05f4 <__bss_end__+0x2c4404>
    1db8:	0000000b 	andeq	r0, r0, fp

Disassembly of section .debug_loc:

00000000 <.debug_loc>:
       0:	00000088 	andeq	r0, r0, r8, lsl #1
       4:	0000008c 	andeq	r0, r0, ip, lsl #1
       8:	8c500001 	mrrchi	0, 0, r0, r0, cr1	; <UNPREDICTABLE>
       c:	54000000 	strpl	r0, [r0], #-0
      10:	01000001 	tsteq	r0, r1
      14:	00005500 	andeq	r5, r0, r0, lsl #10
      18:	00000000 	andeq	r0, r0, r0
      1c:	00b00000 	adcseq	r0, r0, r0
      20:	00b30000 	adcseq	r0, r3, r0
      24:	00010000 	andeq	r0, r1, r0
      28:	0000b350 	andeq	fp, r0, r0, asr r3
      2c:	00015400 	andeq	r5, r1, r0, lsl #8
      30:	54000100 	strpl	r0, [r0], #-256	; 0x100
	...
      3c:	00000010 	andeq	r0, r0, r0, lsl r0
      40:	00000023 	andeq	r0, r0, r3, lsr #32
      44:	23500001 	cmpcs	r0, #1
      48:	44000000 	strmi	r0, [r0], #-0
      4c:	04000000 	streq	r0, [r0], #-0
      50:	5001f300 	andpl	pc, r1, r0, lsl #6
      54:	0000449f 	muleq	r0, pc, r4	; <UNPREDICTABLE>
      58:	00005b00 	andeq	r5, r0, r0, lsl #22
      5c:	50000100 	andpl	r0, r0, r0, lsl #2
      60:	0000005b 	andeq	r0, r0, fp, asr r0
      64:	0000007c 	andeq	r0, r0, ip, ror r0
      68:	01f30004 	mvnseq	r0, r4
      6c:	007c9f50 	rsbseq	r9, ip, r0, asr pc
      70:	00800000 	addeq	r0, r0, r0
      74:	00010000 	andeq	r0, r1, r0
      78:	00008050 	andeq	r8, r0, r0, asr r0
      7c:	0000a000 	andeq	sl, r0, r0
      80:	f3000400 	vshl.u8	d0, d0, d0
      84:	009f5001 	addseq	r5, pc, r1
      88:	00000000 	andeq	r0, r0, r0
      8c:	10000000 	andne	r0, r0, r0
      90:	23000000 	movwcs	r0, #0
      94:	01000000 	mrseq	r0, (UNDEF: 0)
      98:	00235100 	eoreq	r5, r3, r0, lsl #2
      9c:	00440000 	subeq	r0, r4, r0
      a0:	00040000 	andeq	r0, r4, r0
      a4:	9f5101f3 	svcls	0x005101f3
      a8:	00000044 	andeq	r0, r0, r4, asr #32
      ac:	00000048 	andeq	r0, r0, r8, asr #32
      b0:	48510001 	ldmdami	r1, {r0}^
      b4:	a0000000 	andge	r0, r0, r0
      b8:	04000000 	streq	r0, [r0], #-0
      bc:	5101f300 	mrspl	pc, SP_irq	; <UNPREDICTABLE>
      c0:	0000009f 	muleq	r0, pc, r0	; <UNPREDICTABLE>
      c4:	00000000 	andeq	r0, r0, r0
      c8:	00004800 	andeq	r4, r0, r0, lsl #16
      cc:	00005b00 	andeq	r5, r0, r0, lsl #22
      d0:	51000100 	mrspl	r0, (UNDEF: 16)
      d4:	0000005b 	andeq	r0, r0, fp, asr r0
      d8:	0000007c 	andeq	r0, r0, ip, ror r0
      dc:	01f30006 	mvnseq	r0, r6
      e0:	9f254451 	svcls	0x00254451
      e4:	0000007c 	andeq	r0, r0, ip, ror r0
      e8:	000000a0 	andeq	r0, r0, r0, lsr #1
      ec:	00510001 	subseq	r0, r1, r1
      f0:	00000000 	andeq	r0, r0, r0
      f4:	4c000000 	stcmi	0, cr0, [r0], {-0}
      f8:	5b000000 	blpl	100 <__code_start__-0x7f00>
      fc:	01000000 	mrseq	r0, (UNDEF: 0)
     100:	005b5300 	subseq	r5, fp, r0, lsl #6
     104:	007c0000 	rsbseq	r0, ip, r0
     108:	000c0000 	andeq	r0, ip, r0
     10c:	445101f3 	ldrbmi	r0, [r1], #-499	; 0x1f3
     110:	f3243225 	vhsub.u32	d3, d4, d21
     114:	9f225001 	svcls	0x00225001
     118:	0000007c 	andeq	r0, r0, ip, ror r0
     11c:	000000a0 	andeq	r0, r0, r0, lsr #1
     120:	00530001 	subseq	r0, r3, r1
     124:	00000000 	andeq	r0, r0, r0
     128:	a0000000 	andge	r0, r0, r0
     12c:	c3000000 	movwgt	r0, #0
     130:	01000000 	mrseq	r0, (UNDEF: 0)
     134:	00c35000 	sbceq	r5, r3, r0
     138:	01080000 	mrseq	r0, (UNDEF: 8)
     13c:	00010000 	andeq	r0, r1, r0
     140:	00010858 	andeq	r0, r1, r8, asr r8
     144:	00011400 	andeq	r1, r1, r0, lsl #8
     148:	50000100 	andpl	r0, r0, r0, lsl #2
     14c:	00000114 	andeq	r0, r0, r4, lsl r1
     150:	00000128 	andeq	r0, r0, r8, lsr #2
     154:	28580001 	ldmdacs	r8, {r0}^
     158:	38000001 	stmdacc	r0, {r0}
     15c:	04000001 	streq	r0, [r0], #-1
     160:	5001f300 	andpl	pc, r1, r0, lsl #6
     164:	0000009f 	muleq	r0, pc, r0	; <UNPREDICTABLE>
     168:	00000000 	andeq	r0, r0, r0
     16c:	0000a000 	andeq	sl, r0, r0
     170:	0000b400 	andeq	fp, r0, r0, lsl #8
     174:	51000100 	mrspl	r0, (UNDEF: 16)
     178:	000000b4 	strheq	r0, [r0], -r4
     17c:	000000b8 	strheq	r0, [r0], -r8
     180:	01f30004 	mvnseq	r0, r4
     184:	00009f51 	andeq	r9, r0, r1, asr pc
     188:	00000000 	andeq	r0, r0, r0
     18c:	00a00000 	adceq	r0, r0, r0
     190:	00c30000 	sbceq	r0, r3, r0
     194:	00010000 	andeq	r0, r1, r0
     198:	0000c352 	andeq	ip, r0, r2, asr r3
     19c:	00010800 	andeq	r0, r1, r0, lsl #16
     1a0:	55000100 	strpl	r0, [r0, #-256]	; 0x100
     1a4:	00000108 	andeq	r0, r0, r8, lsl #2
     1a8:	00000114 	andeq	r0, r0, r4, lsl r1
     1ac:	14520001 	ldrbne	r0, [r2], #-1
     1b0:	28000001 	stmdacs	r0, {r0}
     1b4:	01000001 	tsteq	r0, r1
     1b8:	01285500 	teqeq	r8, r0, lsl #10
     1bc:	01380000 	teqeq	r8, r0
     1c0:	00040000 	andeq	r0, r4, r0
     1c4:	9f5201f3 	svcls	0x005201f3
	...
     1d0:	000000a0 	andeq	r0, r0, r0, lsr #1
     1d4:	000000c3 	andeq	r0, r0, r3, asr #1
     1d8:	c3530001 	cmpgt	r3, #1
     1dc:	08000000 	stmdaeq	r0, {}	; <UNPREDICTABLE>
     1e0:	04000001 	streq	r0, [r0], #-1
     1e4:	5301f300 	movwpl	pc, #4864	; 0x1300	; <UNPREDICTABLE>
     1e8:	0001089f 	muleq	r1, pc, r8	; <UNPREDICTABLE>
     1ec:	00011400 	andeq	r1, r1, r0, lsl #8
     1f0:	53000100 	movwpl	r0, #256	; 0x100
     1f4:	00000114 	andeq	r0, r0, r4, lsl r1
     1f8:	00000138 	andeq	r0, r0, r8, lsr r1
     1fc:	01f30004 	mvnseq	r0, r4
     200:	00009f53 	andeq	r9, r0, r3, asr pc
     204:	00000000 	andeq	r0, r0, r0
     208:	00b00000 	adcseq	r0, r0, r0
     20c:	00b40000 	adcseq	r0, r4, r0
     210:	00010000 	andeq	r0, r1, r0
     214:	0000b451 	andeq	fp, r0, r1, asr r4
     218:	00013800 	andeq	r3, r1, r0, lsl #16
     21c:	f3000400 	vshl.u8	d0, d0, d0
     220:	009f5101 	addseq	r5, pc, r1, lsl #2
     224:	00000000 	andeq	r0, r0, r0
     228:	e4000000 	str	r0, [r0], #-0
     22c:	08000000 	stmdaeq	r0, {}	; <UNPREDICTABLE>
     230:	01000001 	tsteq	r0, r1
     234:	01145400 	tsteq	r4, r0, lsl #8
     238:	01280000 	teqeq	r8, r0
     23c:	00010000 	andeq	r0, r1, r0
     240:	00000054 	andeq	r0, r0, r4, asr r0
     244:	00000000 	andeq	r0, r0, r0
     248:	0000f000 	andeq	pc, r0, r0
     24c:	00010800 	andeq	r0, r1, r0, lsl #16
     250:	50000100 	andpl	r0, r0, r0, lsl #2
	...
     25c:	00000138 	andeq	r0, r0, r8, lsr r1
     260:	00000143 	andeq	r0, r0, r3, asr #2
     264:	43500001 	cmpmi	r0, #1
     268:	48000001 	stmdami	r0, {r0}
     26c:	04000001 	streq	r0, [r0], #-1
     270:	5001f300 	andpl	pc, r1, r0, lsl #6
     274:	0000009f 	muleq	r0, pc, r0	; <UNPREDICTABLE>
     278:	00000000 	andeq	r0, r0, r0
     27c:	00013800 	andeq	r3, r1, r0, lsl #16
     280:	00014300 	andeq	r4, r1, r0, lsl #6
     284:	51000100 	mrspl	r0, (UNDEF: 16)
     288:	00000143 	andeq	r0, r0, r3, asr #2
     28c:	00000148 	andeq	r0, r0, r8, asr #2
     290:	01f30004 	mvnseq	r0, r4
     294:	00009f51 	andeq	r9, r0, r1, asr pc
     298:	00000000 	andeq	r0, r0, r0
     29c:	01380000 	teqeq	r8, r0
     2a0:	01430000 	mrseq	r0, (UNDEF: 67)
     2a4:	00010000 	andeq	r0, r1, r0
     2a8:	00014352 	andeq	r4, r1, r2, asr r3
     2ac:	00014800 	andeq	r4, r1, r0, lsl #16
     2b0:	f3000400 	vshl.u8	d0, d0, d0
     2b4:	009f5201 	addseq	r5, pc, r1, lsl #4
     2b8:	00000000 	andeq	r0, r0, r0
     2bc:	48000000 	stmdami	r0, {}	; <UNPREDICTABLE>
     2c0:	53000001 	movwpl	r0, #1
     2c4:	01000001 	tsteq	r0, r1
     2c8:	01535000 	cmpeq	r3, r0
     2cc:	01580000 	cmpeq	r8, r0
     2d0:	00040000 	andeq	r0, r4, r0
     2d4:	9f5001f3 	svcls	0x005001f3
	...
     2e0:	00000148 	andeq	r0, r0, r8, asr #2
     2e4:	00000153 	andeq	r0, r0, r3, asr r1
     2e8:	53510001 	cmppl	r1, #1
     2ec:	58000001 	stmdapl	r0, {r0}
     2f0:	04000001 	streq	r0, [r0], #-1
     2f4:	5101f300 	mrspl	pc, SP_irq	; <UNPREDICTABLE>
     2f8:	0000009f 	muleq	r0, pc, r0	; <UNPREDICTABLE>
     2fc:	00000000 	andeq	r0, r0, r0
     300:	00014800 	andeq	r4, r1, r0, lsl #16
     304:	00015300 	andeq	r5, r1, r0, lsl #6
     308:	52000100 	andpl	r0, r0, #0, 2
     30c:	00000153 	andeq	r0, r0, r3, asr r1
     310:	00000158 	andeq	r0, r0, r8, asr r1
     314:	01f30004 	mvnseq	r0, r4
     318:	00009f52 	andeq	r9, r0, r2, asr pc
     31c:	00000000 	andeq	r0, r0, r0
     320:	01580000 	cmpeq	r8, r0
     324:	01630000 	cmneq	r3, r0
     328:	00010000 	andeq	r0, r1, r0
     32c:	00016350 	andeq	r6, r1, r0, asr r3
     330:	00016800 	andeq	r6, r1, r0, lsl #16
     334:	f3000400 	vshl.u8	d0, d0, d0
     338:	009f5001 	addseq	r5, pc, r1
     33c:	00000000 	andeq	r0, r0, r0
     340:	58000000 	stmdapl	r0, {}	; <UNPREDICTABLE>
     344:	63000001 	movwvs	r0, #1
     348:	01000001 	tsteq	r0, r1
     34c:	01635100 	cmneq	r3, r0, lsl #2
     350:	01680000 	cmneq	r8, r0
     354:	00040000 	andeq	r0, r4, r0
     358:	9f5101f3 	svcls	0x005101f3
	...
     364:	00000158 	andeq	r0, r0, r8, asr r1
     368:	00000163 	andeq	r0, r0, r3, ror #2
     36c:	63520001 	cmpvs	r2, #1
     370:	68000001 	stmdavs	r0, {r0}
     374:	04000001 	streq	r0, [r0], #-1
     378:	5201f300 	andpl	pc, r1, #0, 6
     37c:	0000009f 	muleq	r0, pc, r0	; <UNPREDICTABLE>
     380:	00000000 	andeq	r0, r0, r0
     384:	00016800 	andeq	r6, r1, r0, lsl #16
     388:	00017b00 	andeq	r7, r1, r0, lsl #22
     38c:	50000100 	andpl	r0, r0, r0, lsl #2
     390:	0000017b 	andeq	r0, r0, fp, ror r1
     394:	0000019c 	muleq	r0, ip, r1
     398:	01f30004 	mvnseq	r0, r4
     39c:	019c9f50 	orrseq	r9, ip, r0, asr pc
     3a0:	01bf0000 			; <UNDEFINED> instruction: 0x01bf0000
     3a4:	00010000 	andeq	r0, r1, r0
     3a8:	0001bf50 	andeq	fp, r1, r0, asr pc
     3ac:	0001e000 	andeq	lr, r1, r0
     3b0:	f3000400 	vshl.u8	d0, d0, d0
     3b4:	e09f5001 	adds	r5, pc, r1
     3b8:	00000001 	andeq	r0, r0, r1
     3bc:	01000002 	tsteq	r0, r2
     3c0:	00005000 	andeq	r5, r0, r0
     3c4:	00000000 	andeq	r0, r0, r0
     3c8:	01680000 	cmneq	r8, r0
     3cc:	017b0000 	cmneq	fp, r0
     3d0:	00010000 	andeq	r0, r1, r0
     3d4:	00017b51 	andeq	r7, r1, r1, asr fp
     3d8:	00019c00 	andeq	r9, r1, r0, lsl #24
     3dc:	f3000400 	vshl.u8	d0, d0, d0
     3e0:	9c9f5101 	ldflss	f5, [pc], {1}
     3e4:	bf000001 	svclt	0x00000001
     3e8:	01000001 	tsteq	r0, r1
     3ec:	01bf5100 			; <UNDEFINED> instruction: 0x01bf5100
     3f0:	01e00000 	mvneq	r0, r0
     3f4:	00040000 	andeq	r0, r4, r0
     3f8:	9f5101f3 	svcls	0x005101f3
     3fc:	000001e0 	andeq	r0, r0, r0, ror #3
     400:	00000200 	andeq	r0, r0, r0, lsl #4
     404:	00510001 	subseq	r0, r1, r1
	...
     410:	1f000002 	svcne	0x00000002
     414:	01000002 	tsteq	r0, r2
     418:	021f5000 	andseq	r5, pc, #0
     41c:	02400000 	subeq	r0, r0, #0
     420:	00010000 	andeq	r0, r1, r0
     424:	00024054 	andeq	r4, r2, r4, asr r0
     428:	00024b00 	andeq	r4, r2, r0, lsl #22
     42c:	50000100 	andpl	r0, r0, r0, lsl #2
     430:	0000024b 	andeq	r0, r0, fp, asr #4
     434:	0000026c 	andeq	r0, r0, ip, ror #4
     438:	6c540001 	mrrcvs	0, 0, r0, r4, cr1
     43c:	77000002 	strvc	r0, [r0, -r2]
     440:	01000002 	tsteq	r0, r2
     444:	02775000 	rsbseq	r5, r7, #0
     448:	02980000 	addseq	r0, r8, #0
     44c:	00010000 	andeq	r0, r1, r0
     450:	00029854 	andeq	r9, r2, r4, asr r8
     454:	0002b300 	andeq	fp, r2, r0, lsl #6
     458:	50000100 	andpl	r0, r0, r0, lsl #2
     45c:	000002b3 			; <UNDEFINED> instruction: 0x000002b3
     460:	000002d4 	ldrdeq	r0, [r0], -r4
     464:	d4540001 	ldrble	r0, [r4], #-1
     468:	d7000002 	strle	r0, [r0, -r2]
     46c:	01000002 	tsteq	r0, r2
     470:	02d75000 	sbcseq	r5, r7, #0
     474:	03680000 	cmneq	r8, #0
     478:	00010000 	andeq	r0, r1, r0
     47c:	00036854 	andeq	r6, r3, r4, asr r8
     480:	00039400 	andeq	r9, r3, r0, lsl #8
     484:	f3000400 	vshl.u8	d0, d0, d0
     488:	009f5001 	addseq	r5, pc, r1
	...
     494:	1f000002 	svcne	0x00000002
     498:	01000002 	tsteq	r0, r2
     49c:	021f5100 	andseq	r5, pc, #0, 2
     4a0:	02400000 	subeq	r0, r0, #0
     4a4:	00040000 	andeq	r0, r4, r0
     4a8:	9f5101f3 	svcls	0x005101f3
     4ac:	00000240 	andeq	r0, r0, r0, asr #4
     4b0:	0000024b 	andeq	r0, r0, fp, asr #4
     4b4:	4b510001 	blmi	14404c0 <__bss_end__+0x14342d0>
     4b8:	6c000002 	stcvs	0, cr0, [r0], {2}
     4bc:	04000002 	streq	r0, [r0], #-2
     4c0:	5101f300 	mrspl	pc, SP_irq	; <UNPREDICTABLE>
     4c4:	00026c9f 	muleq	r2, pc, ip	; <UNPREDICTABLE>
     4c8:	00027700 	andeq	r7, r2, r0, lsl #14
     4cc:	51000100 	mrspl	r0, (UNDEF: 16)
     4d0:	00000277 	andeq	r0, r0, r7, ror r2
     4d4:	00000298 	muleq	r0, r8, r2
     4d8:	01f30004 	mvnseq	r0, r4
     4dc:	02989f51 	addseq	r9, r8, #324	; 0x144
     4e0:	02b30000 	adcseq	r0, r3, #0
     4e4:	00010000 	andeq	r0, r1, r0
     4e8:	0002b351 	andeq	fp, r2, r1, asr r3
     4ec:	0002d400 	andeq	sp, r2, r0, lsl #8
     4f0:	f3000400 	vshl.u8	d0, d0, d0
     4f4:	d49f5101 	ldrle	r5, [pc], #257	; 4fc <__code_start__-0x7b04>
     4f8:	d7000002 	strle	r0, [r0, -r2]
     4fc:	01000002 	tsteq	r0, r2
     500:	02d75100 	sbcseq	r5, r7, #0, 2
     504:	03940000 	orrseq	r0, r4, #0
     508:	00040000 	andeq	r0, r4, r0
     50c:	9f5101f3 	svcls	0x005101f3
	...
     518:	00000200 	andeq	r0, r0, r0, lsl #4
     51c:	0000021f 	andeq	r0, r0, pc, lsl r2
     520:	1f520001 	svcne	0x00520001
     524:	40000002 	andmi	r0, r0, r2
     528:	01000002 	tsteq	r0, r2
     52c:	02405900 	subeq	r5, r0, #0, 18
     530:	024b0000 	subeq	r0, fp, #0
     534:	00010000 	andeq	r0, r1, r0
     538:	00024b52 	andeq	r4, r2, r2, asr fp
     53c:	00026c00 	andeq	r6, r2, r0, lsl #24
     540:	59000100 	stmdbpl	r0, {r8}
     544:	0000026c 	andeq	r0, r0, ip, ror #4
     548:	00000277 	andeq	r0, r0, r7, ror r2
     54c:	77520001 	ldrbvc	r0, [r2, -r1]
     550:	98000002 	stmdals	r0, {r1}
     554:	01000002 	tsteq	r0, r2
     558:	02985900 	addseq	r5, r8, #0, 18
     55c:	02b30000 	adcseq	r0, r3, #0
     560:	00010000 	andeq	r0, r1, r0
     564:	0002b352 	andeq	fp, r2, r2, asr r3
     568:	0002d400 	andeq	sp, r2, r0, lsl #8
     56c:	59000100 	stmdbpl	r0, {r8}
     570:	000002d4 	ldrdeq	r0, [r0], -r4
     574:	000002d7 	ldrdeq	r0, [r0], -r7
     578:	d7520001 	ldrble	r0, [r2, -r1]
     57c:	68000002 	stmdavs	r0, {r1}
     580:	01000003 	tsteq	r0, r3
     584:	03685900 	cmneq	r8, #0, 18
     588:	03940000 	orrseq	r0, r4, #0
     58c:	00040000 	andeq	r0, r4, r0
     590:	9f5201f3 	svcls	0x005201f3
	...
     59c:	00000200 	andeq	r0, r0, r0, lsl #4
     5a0:	0000021f 	andeq	r0, r0, pc, lsl r2
     5a4:	1f530001 	svcne	0x00530001
     5a8:	40000002 	andmi	r0, r0, r2
     5ac:	01000002 	tsteq	r0, r2
     5b0:	02405800 	subeq	r5, r0, #0, 16
     5b4:	024b0000 	subeq	r0, fp, #0
     5b8:	00010000 	andeq	r0, r1, r0
     5bc:	00024b53 	andeq	r4, r2, r3, asr fp
     5c0:	00026c00 	andeq	r6, r2, r0, lsl #24
     5c4:	58000100 	stmdapl	r0, {r8}
     5c8:	0000026c 	andeq	r0, r0, ip, ror #4
     5cc:	00000277 	andeq	r0, r0, r7, ror r2
     5d0:	77530001 	ldrbvc	r0, [r3, -r1]
     5d4:	98000002 	stmdals	r0, {r1}
     5d8:	01000002 	tsteq	r0, r2
     5dc:	02985800 	addseq	r5, r8, #0, 16
     5e0:	02a80000 	adceq	r0, r8, #0
     5e4:	00010000 	andeq	r0, r1, r0
     5e8:	0002a853 	andeq	sl, r2, r3, asr r8
     5ec:	00030000 	andeq	r0, r3, r0
     5f0:	58000100 	stmdapl	r0, {r8}
     5f4:	00000300 	andeq	r0, r0, r0, lsl #6
     5f8:	00000394 	muleq	r0, r4, r3
     5fc:	01f30004 	mvnseq	r0, r4
     600:	00009f53 	andeq	r9, r0, r3, asr pc
     604:	00000000 	andeq	r0, r0, r0
     608:	029c0000 	addseq	r0, ip, #0
     60c:	03680000 	cmneq	r8, #0
     610:	00010000 	andeq	r0, r1, r0
     614:	00036856 	andeq	r6, r3, r6, asr r8
     618:	00039400 	andeq	r9, r3, r0, lsl #8
     61c:	f3000600 	vmax.u8	d0, d0, d0
     620:	25445101 	strbcs	r5, [r4, #-257]	; 0x101
     624:	0000009f 	muleq	r0, pc, r0	; <UNPREDICTABLE>
     628:	00000000 	andeq	r0, r0, r0
     62c:	0002a400 	andeq	sl, r2, r0, lsl #8
     630:	00036800 	andeq	r6, r3, r0, lsl #16
     634:	55000100 	strpl	r0, [r0, #-256]	; 0x100
     638:	00000368 	andeq	r0, r0, r8, ror #6
     63c:	00000394 	muleq	r0, r4, r3
     640:	00500001 	subseq	r0, r0, r1
     644:	00000000 	andeq	r0, r0, r0
     648:	94000000 	strls	r0, [r0], #-0
     64c:	bb000003 	bllt	660 <__code_start__-0x79a0>
     650:	01000003 	tsteq	r0, r3
     654:	03bb5000 			; <UNDEFINED> instruction: 0x03bb5000
     658:	03dc0000 	bicseq	r0, ip, #0
     65c:	00010000 	andeq	r0, r1, r0
     660:	0003dc59 	andeq	sp, r3, r9, asr ip
     664:	0003e700 	andeq	lr, r3, r0, lsl #14
     668:	50000100 	andpl	r0, r0, r0, lsl #2
     66c:	000003e7 	andeq	r0, r0, r7, ror #7
     670:	00000408 	andeq	r0, r0, r8, lsl #8
     674:	08590001 	ldmdaeq	r9, {r0}^
     678:	13000004 	movwne	r0, #4
     67c:	01000004 	tsteq	r0, r4
     680:	04135000 	ldreq	r5, [r3], #-0
     684:	04580000 	ldrbeq	r0, [r8], #-0
     688:	00010000 	andeq	r0, r1, r0
     68c:	00045859 	andeq	r5, r4, r9, asr r8
     690:	00045c00 	andeq	r5, r4, r0, lsl #24
     694:	50000100 	andpl	r0, r0, r0, lsl #2
     698:	0000045c 	andeq	r0, r0, ip, asr r4
     69c:	0000046c 	andeq	r0, r0, ip, ror #8
     6a0:	6c590001 	mrrcvs	0, 0, r0, r9, cr1
     6a4:	84000004 	strhi	r0, [r0], #-4
     6a8:	04000004 	streq	r0, [r0], #-4
     6ac:	5001f300 	andpl	pc, r1, r0, lsl #6
     6b0:	0000009f 	muleq	r0, pc, r0	; <UNPREDICTABLE>
     6b4:	00000000 	andeq	r0, r0, r0
     6b8:	00039400 	andeq	r9, r3, r0, lsl #8
     6bc:	0003bb00 	andeq	fp, r3, r0, lsl #22
     6c0:	51000100 	mrspl	r0, (UNDEF: 16)
     6c4:	000003bb 			; <UNDEFINED> instruction: 0x000003bb
     6c8:	000003dc 	ldrdeq	r0, [r0], -ip
     6cc:	dc550001 	mrrcle	0, 0, r0, r5, cr1
     6d0:	e7000003 	str	r0, [r0, -r3]
     6d4:	01000003 	tsteq	r0, r3
     6d8:	03e75100 	mvneq	r5, #0, 2
     6dc:	04080000 	streq	r0, [r8], #-0
     6e0:	00010000 	andeq	r0, r1, r0
     6e4:	00040855 	andeq	r0, r4, r5, asr r8
     6e8:	00041300 	andeq	r1, r4, r0, lsl #6
     6ec:	51000100 	mrspl	r0, (UNDEF: 16)
     6f0:	00000413 	andeq	r0, r0, r3, lsl r4
     6f4:	00000458 	andeq	r0, r0, r8, asr r4
     6f8:	58550001 	ldmdapl	r5, {r0}^
     6fc:	5c000004 	stcpl	0, cr0, [r0], {4}
     700:	01000004 	tsteq	r0, r4
     704:	045c5100 	ldrbeq	r5, [ip], #-256	; 0x100
     708:	046c0000 	strbteq	r0, [ip], #-0
     70c:	00010000 	andeq	r0, r1, r0
     710:	00000055 	andeq	r0, r0, r5, asr r0
     714:	00000000 	andeq	r0, r0, r0
     718:	00039400 	andeq	r9, r3, r0, lsl #8
     71c:	0003bb00 	andeq	fp, r3, r0, lsl #22
     720:	52000100 	andpl	r0, r0, #0, 2
     724:	000003bb 			; <UNDEFINED> instruction: 0x000003bb
     728:	000003dc 	ldrdeq	r0, [r0], -ip
     72c:	dc560001 	mrrcle	0, 0, r0, r6, cr1
     730:	e7000003 	str	r0, [r0, -r3]
     734:	01000003 	tsteq	r0, r3
     738:	03e75200 	mvneq	r5, #0, 4
     73c:	04080000 	streq	r0, [r8], #-0
     740:	00010000 	andeq	r0, r1, r0
     744:	00040856 	andeq	r0, r4, r6, asr r8
     748:	00041300 	andeq	r1, r4, r0, lsl #6
     74c:	52000100 	andpl	r0, r0, #0, 2
     750:	00000413 	andeq	r0, r0, r3, lsl r4
     754:	00000458 	andeq	r0, r0, r8, asr r4
     758:	58560001 	ldmdapl	r6, {r0}^
     75c:	5c000004 	stcpl	0, cr0, [r0], {4}
     760:	01000004 	tsteq	r0, r4
     764:	045c5200 	ldrbeq	r5, [ip], #-512	; 0x200
     768:	046c0000 	strbteq	r0, [ip], #-0
     76c:	00010000 	andeq	r0, r1, r0
     770:	00000056 	andeq	r0, r0, r6, asr r0
     774:	00000000 	andeq	r0, r0, r0
     778:	00039400 	andeq	r9, r3, r0, lsl #8
     77c:	0003bb00 	andeq	fp, r3, r0, lsl #22
     780:	53000100 	movwpl	r0, #256	; 0x100
     784:	000003bb 			; <UNDEFINED> instruction: 0x000003bb
     788:	000003dc 	ldrdeq	r0, [r0], -ip
     78c:	dc570001 	mrrcle	0, 0, r0, r7, cr1
     790:	e7000003 	str	r0, [r0, -r3]
     794:	01000003 	tsteq	r0, r3
     798:	03e75300 	mvneq	r5, #0, 6
     79c:	04080000 	streq	r0, [r8], #-0
     7a0:	00010000 	andeq	r0, r1, r0
     7a4:	00040857 	andeq	r0, r4, r7, asr r8
     7a8:	00041300 	andeq	r1, r4, r0, lsl #6
     7ac:	53000100 	movwpl	r0, #256	; 0x100
     7b0:	00000413 	andeq	r0, r0, r3, lsl r4
     7b4:	00000458 	andeq	r0, r0, r8, asr r4
     7b8:	58570001 	ldmdapl	r7, {r0}^
     7bc:	5c000004 	stcpl	0, cr0, [r0], {4}
     7c0:	01000004 	tsteq	r0, r4
     7c4:	045c5300 	ldrbeq	r5, [ip], #-768	; 0x300
     7c8:	046c0000 	strbteq	r0, [ip], #-0
     7cc:	00010000 	andeq	r0, r1, r0
     7d0:	00046c57 	andeq	r6, r4, r7, asr ip
     7d4:	00048400 	andeq	r8, r4, r0, lsl #8
     7d8:	f3000400 	vshl.u8	d0, d0, d0
     7dc:	009f5301 	addseq	r5, pc, r1, lsl #6
     7e0:	00000000 	andeq	r0, r0, r0
     7e4:	34000000 	strcc	r0, [r0], #-0
     7e8:	58000004 	stmdapl	r0, {r2}
     7ec:	01000004 	tsteq	r0, r4
     7f0:	045c5400 	ldrbeq	r5, [ip], #-1024	; 0x400
     7f4:	046c0000 	strbteq	r0, [ip], #-0
     7f8:	00010000 	andeq	r0, r1, r0
     7fc:	00000054 	andeq	r0, r0, r4, asr r0
     800:	00000000 	andeq	r0, r0, r0
     804:	00048400 	andeq	r8, r4, r0, lsl #8
     808:	00049b00 	andeq	r9, r4, r0, lsl #22
     80c:	50000100 	andpl	r0, r0, r0, lsl #2
     810:	0000049b 	muleq	r0, fp, r4
     814:	000004bc 			; <UNDEFINED> instruction: 0x000004bc
     818:	bc540001 	mrrclt	0, 0, r0, r4, cr1
     81c:	c7000004 	strgt	r0, [r0, -r4]
     820:	01000004 	tsteq	r0, r4
     824:	04c75000 	strbeq	r5, [r7], #0
     828:	04e80000 	strbteq	r0, [r8], #0
     82c:	00010000 	andeq	r0, r1, r0
     830:	0004e854 	andeq	lr, r4, r4, asr r8
     834:	0004f300 	andeq	pc, r4, r0, lsl #6
     838:	50000100 	andpl	r0, r0, r0, lsl #2
     83c:	000004f3 	strdeq	r0, [r0], -r3
     840:	00000500 	andeq	r0, r0, r0, lsl #10
     844:	00540001 	subseq	r0, r4, r1
     848:	18000005 	stmdane	r0, {r0, r2}
     84c:	01000005 	tsteq	r0, r5
     850:	00005000 	andeq	r5, r0, r0
     854:	00000000 	andeq	r0, r0, r0
     858:	04840000 	streq	r0, [r4], #0
     85c:	049b0000 	ldreq	r0, [fp], #0
     860:	00010000 	andeq	r0, r1, r0
     864:	00049b51 	andeq	r9, r4, r1, asr fp
     868:	0004bc00 	andeq	fp, r4, r0, lsl #24
     86c:	f3000400 	vshl.u8	d0, d0, d0
     870:	bc9f5101 	ldflts	f5, [pc], {1}
     874:	c7000004 	strgt	r0, [r0, -r4]
     878:	01000004 	tsteq	r0, r4
     87c:	04c75100 	strbeq	r5, [r7], #256	; 0x100
     880:	04e80000 	strbteq	r0, [r8], #0
     884:	00040000 	andeq	r0, r4, r0
     888:	9f5101f3 	svcls	0x005101f3
     88c:	000004e8 	andeq	r0, r0, r8, ror #9
     890:	000004ec 	andeq	r0, r0, ip, ror #9
     894:	ec510001 	mrrc	0, 0, r0, r1, cr1
     898:	18000004 	stmdane	r0, {r2}
     89c:	04000005 	streq	r0, [r0], #-5
     8a0:	5101f300 	mrspl	pc, SP_irq	; <UNPREDICTABLE>
     8a4:	0000009f 	muleq	r0, pc, r0	; <UNPREDICTABLE>
     8a8:	00000000 	andeq	r0, r0, r0
     8ac:	0004bc00 	andeq	fp, r4, r0, lsl #24
     8b0:	0004c700 	andeq	ip, r4, r0, lsl #14
     8b4:	50000100 	andpl	r0, r0, r0, lsl #2
     8b8:	000004c7 	andeq	r0, r0, r7, asr #9
     8bc:	000004e8 	andeq	r0, r0, r8, ror #9
     8c0:	e8540001 	ldmda	r4, {r0}^
     8c4:	f3000004 	vhadd.u8	d0, d0, d4
     8c8:	01000004 	tsteq	r0, r4
     8cc:	04f35000 	ldrbteq	r5, [r3], #0
     8d0:	05000000 	streq	r0, [r0, #-0]
     8d4:	00010000 	andeq	r0, r1, r0
     8d8:	00050054 	andeq	r0, r5, r4, asr r0
     8dc:	00051800 	andeq	r1, r5, r0, lsl #16
     8e0:	50000100 	andpl	r0, r0, r0, lsl #2
	...
     8ec:	00000518 	andeq	r0, r0, r8, lsl r5
     8f0:	0000052b 	andeq	r0, r0, fp, lsr #10
     8f4:	2b500001 	blcs	1400900 <__bss_end__+0x13f4710>
     8f8:	4c000005 	stcmi	0, cr0, [r0], {5}
     8fc:	04000005 	streq	r0, [r0], #-5
     900:	5001f300 	andpl	pc, r1, r0, lsl #6
     904:	00054c9f 	muleq	r5, pc, ip	; <UNPREDICTABLE>
     908:	00055300 	andeq	r5, r5, r0, lsl #6
     90c:	50000100 	andpl	r0, r0, r0, lsl #2
     910:	00000553 	andeq	r0, r0, r3, asr r5
     914:	000005a8 	andeq	r0, r0, r8, lsr #11
     918:	01f30004 	mvnseq	r0, r4
     91c:	00009f50 	andeq	r9, r0, r0, asr pc
     920:	00000000 	andeq	r0, r0, r0
     924:	05540000 	ldrbeq	r0, [r4, #-0]
     928:	055f0000 	ldrbeq	r0, [pc, #-0]	; 930 <__code_start__-0x76d0>
     92c:	00010000 	andeq	r0, r1, r0
     930:	00058050 	andeq	r8, r5, r0, asr r0
     934:	00058700 	andeq	r8, r5, r0, lsl #14
     938:	50000100 	andpl	r0, r0, r0, lsl #2
	...
     944:	000005c4 	andeq	r0, r0, r4, asr #11
     948:	000005cf 	andeq	r0, r0, pc, asr #11
     94c:	f0500001 			; <UNDEFINED> instruction: 0xf0500001
     950:	fb000005 	blx	96e <__code_start__-0x7692>
     954:	01000005 	tsteq	r0, r5
     958:	061c5000 	ldreq	r5, [ip], -r0
     95c:	06380000 	ldrteq	r0, [r8], -r0
     960:	00010000 	andeq	r0, r1, r0
     964:	00000050 	andeq	r0, r0, r0, asr r0
     968:	00000000 	andeq	r0, r0, r0
     96c:	00064400 	andeq	r4, r6, r0, lsl #8
     970:	00065700 	andeq	r5, r6, r0, lsl #14
     974:	50000100 	andpl	r0, r0, r0, lsl #2
     978:	00000678 	andeq	r0, r0, r8, ror r6
     97c:	00000683 	andeq	r0, r0, r3, lsl #13
     980:	a4500001 	ldrbge	r0, [r0], #-1
     984:	a7000006 	strge	r0, [r0, -r6]
     988:	01000006 	tsteq	r0, r6
     98c:	00005000 	andeq	r5, r0, r0
     990:	00000000 	andeq	r0, r0, r0
     994:	06d00000 	ldrbeq	r0, [r0], r0
     998:	06db0000 	ldrbeq	r0, [fp], r0
     99c:	00010000 	andeq	r0, r1, r0
     9a0:	0006fc50 	andeq	pc, r6, r0, asr ip	; <UNPREDICTABLE>
     9a4:	00070000 	andeq	r0, r7, r0
     9a8:	50000100 	andpl	r0, r0, r0, lsl #2
	...
     9b4:	0000071c 	andeq	r0, r0, ip, lsl r7
     9b8:	0000072f 	andeq	r0, r0, pc, lsr #14
     9bc:	50500001 	subspl	r0, r0, r1
     9c0:	53000007 	movwpl	r0, #7
     9c4:	01000007 	tsteq	r0, r7
     9c8:	00005000 	andeq	r5, r0, r0
     9cc:	00000000 	andeq	r0, r0, r0
     9d0:	07780000 	ldrbeq	r0, [r8, -r0]!
     9d4:	07830000 	streq	r0, [r3, r0]
     9d8:	00010000 	andeq	r0, r1, r0
     9dc:	0007a450 	andeq	sl, r7, r0, asr r4
     9e0:	0007a800 	andeq	sl, r7, r0, lsl #16
     9e4:	50000100 	andpl	r0, r0, r0, lsl #2
	...
     9f0:	000007cc 	andeq	r0, r0, ip, asr #15
     9f4:	000007d3 	ldrdeq	r0, [r0], -r3
     9f8:	d3500001 	cmple	r0, #1
     9fc:	d8000007 	stmdale	r0, {r0, r1, r2}
     a00:	04000007 	streq	r0, [r0], #-7
     a04:	5001f300 	andpl	pc, r1, r0, lsl #6
     a08:	0000009f 	muleq	r0, pc, r0	; <UNPREDICTABLE>
     a0c:	00000000 	andeq	r0, r0, r0
     a10:	0007d800 	andeq	sp, r7, r0, lsl #16
     a14:	0007eb00 	andeq	lr, r7, r0, lsl #22
     a18:	50000100 	andpl	r0, r0, r0, lsl #2
     a1c:	000007eb 	andeq	r0, r0, fp, ror #15
     a20:	0000080c 	andeq	r0, r0, ip, lsl #16
     a24:	01f30004 	mvnseq	r0, r4
     a28:	080c9f50 	stmdaeq	ip, {r4, r6, r8, r9, sl, fp, ip, pc}
     a2c:	08170000 	ldmdaeq	r7, {}	; <UNPREDICTABLE>
     a30:	00010000 	andeq	r0, r1, r0
     a34:	00081750 	andeq	r1, r8, r0, asr r7
     a38:	00083800 	andeq	r3, r8, r0, lsl #16
     a3c:	f3000400 	vshl.u8	d0, d0, d0
     a40:	389f5001 	ldmcc	pc, {r0, ip, lr}	; <UNPREDICTABLE>
     a44:	47000008 	strmi	r0, [r0, -r8]
     a48:	01000008 	tsteq	r0, r8
     a4c:	08475000 	stmdaeq	r7, {ip, lr}^
     a50:	08680000 	stmdaeq	r8!, {}^	; <UNPREDICTABLE>
     a54:	00040000 	andeq	r0, r4, r0
     a58:	9f5001f3 	svcls	0x005001f3
     a5c:	00000868 	andeq	r0, r0, r8, ror #16
     a60:	0000086c 	andeq	r0, r0, ip, ror #16
     a64:	6c500001 	mrrcvs	0, 0, r0, r0, cr1	; <UNPREDICTABLE>
     a68:	94000008 	strls	r0, [r0], #-8
     a6c:	04000008 	streq	r0, [r0], #-8
     a70:	5001f300 	andpl	pc, r1, r0, lsl #6
     a74:	0000009f 	muleq	r0, pc, r0	; <UNPREDICTABLE>
     a78:	00000000 	andeq	r0, r0, r0
     a7c:	0007d800 	andeq	sp, r7, r0, lsl #16
     a80:	0007eb00 	andeq	lr, r7, r0, lsl #22
     a84:	51000100 	mrspl	r0, (UNDEF: 16)
     a88:	000007eb 	andeq	r0, r0, fp, ror #15
     a8c:	0000080c 	andeq	r0, r0, ip, lsl #16
     a90:	01f30004 	mvnseq	r0, r4
     a94:	080c9f51 	stmdaeq	ip, {r0, r4, r6, r8, r9, sl, fp, ip, pc}
     a98:	08170000 	ldmdaeq	r7, {}	; <UNPREDICTABLE>
     a9c:	00010000 	andeq	r0, r1, r0
     aa0:	00081751 	andeq	r1, r8, r1, asr r7
     aa4:	00083800 	andeq	r3, r8, r0, lsl #16
     aa8:	f3000400 	vshl.u8	d0, d0, d0
     aac:	389f5101 	ldmcc	pc, {r0, r8, ip, lr}	; <UNPREDICTABLE>
     ab0:	47000008 	strmi	r0, [r0, -r8]
     ab4:	01000008 	tsteq	r0, r8
     ab8:	08475100 	stmdaeq	r7, {r8, ip, lr}^
     abc:	08680000 	stmdaeq	r8!, {}^	; <UNPREDICTABLE>
     ac0:	00040000 	andeq	r0, r4, r0
     ac4:	9f5101f3 	svcls	0x005101f3
     ac8:	00000868 	andeq	r0, r0, r8, ror #16
     acc:	00000870 	andeq	r0, r0, r0, ror r8
     ad0:	70510001 	subsvc	r0, r1, r1
     ad4:	73000008 	movwvc	r0, #8
     ad8:	03000008 	movweq	r0, #8
     adc:	9f017300 	svcls	0x00017300
     ae0:	00000873 	andeq	r0, r0, r3, ror r8
     ae4:	00000894 	muleq	r0, r4, r8
     ae8:	01f30004 	mvnseq	r0, r4
     aec:	00009f51 	andeq	r9, r0, r1, asr pc
     af0:	00000000 	andeq	r0, r0, r0
     af4:	07d80000 	ldrbeq	r0, [r8, r0]
     af8:	07eb0000 	strbeq	r0, [fp, r0]!
     afc:	00010000 	andeq	r0, r1, r0
     b00:	0007eb52 	andeq	lr, r7, r2, asr fp
     b04:	00080c00 	andeq	r0, r8, r0, lsl #24
     b08:	f3000400 	vshl.u8	d0, d0, d0
     b0c:	0c9f5201 	lfmeq	f5, 4, [pc], {1}
     b10:	17000008 	strne	r0, [r0, -r8]
     b14:	01000008 	tsteq	r0, r8
     b18:	08175200 	ldmdaeq	r7, {r9, ip, lr}
     b1c:	08380000 	ldmdaeq	r8!, {}	; <UNPREDICTABLE>
     b20:	00040000 	andeq	r0, r4, r0
     b24:	9f5201f3 	svcls	0x005201f3
     b28:	00000838 	andeq	r0, r0, r8, lsr r8
     b2c:	00000847 	andeq	r0, r0, r7, asr #16
     b30:	47520001 	ldrbmi	r0, [r2, -r1]
     b34:	68000008 	stmdavs	r0, {r3}
     b38:	04000008 	streq	r0, [r0], #-8
     b3c:	5201f300 	andpl	pc, r1, #0, 6
     b40:	0008689f 	muleq	r8, pc, r8	; <UNPREDICTABLE>
     b44:	00087300 	andeq	r7, r8, r0, lsl #6
     b48:	52000100 	andpl	r0, r0, #0, 2
     b4c:	00000873 	andeq	r0, r0, r3, ror r8
     b50:	00000894 	muleq	r0, r4, r8
     b54:	01f30004 	mvnseq	r0, r4
     b58:	00009f52 	andeq	r9, r0, r2, asr pc
     b5c:	00000000 	andeq	r0, r0, r0
     b60:	08940000 	ldmeq	r4, {}	; <UNPREDICTABLE>
     b64:	08a30000 	stmiaeq	r3!, {}	; <UNPREDICTABLE>
     b68:	00010000 	andeq	r0, r1, r0
     b6c:	0008a350 	andeq	sl, r8, r0, asr r3
     b70:	0008dc00 	andeq	sp, r8, r0, lsl #24
     b74:	54000100 	strpl	r0, [r0], #-256	; 0x100
	...
     b84:	00000010 	andeq	r0, r0, r0, lsl r0
     b88:	10500001 	subsne	r0, r0, r1
     b8c:	34000000 	strcc	r0, [r0], #-0
     b90:	01000000 	mrseq	r0, (UNDEF: 0)
     b94:	00005500 	andeq	r5, r0, r0, lsl #10
	...
     ba0:	00140000 	andseq	r0, r4, r0
     ba4:	00010000 	andeq	r0, r1, r0
     ba8:	00001451 	andeq	r1, r0, r1, asr r4
     bac:	00001700 	andeq	r1, r0, r0, lsl #14
     bb0:	50000100 	andpl	r0, r0, r0, lsl #2
     bb4:	00000017 	andeq	r0, r0, r7, lsl r0
     bb8:	00000034 	andeq	r0, r0, r4, lsr r0
     bbc:	01f30004 	mvnseq	r0, r4
     bc0:	00009f51 	andeq	r9, r0, r1, asr pc
	...
     bcc:	00170000 	andseq	r0, r7, r0
     bd0:	00010000 	andeq	r0, r1, r0
     bd4:	00001752 	andeq	r1, r0, r2, asr r7
     bd8:	00003400 	andeq	r3, r0, r0, lsl #8
     bdc:	54000100 	strpl	r0, [r0], #-256	; 0x100
	...
     be8:	00000064 	andeq	r0, r0, r4, rrx
     bec:	00000083 	andeq	r0, r0, r3, lsl #1
     bf0:	83500001 	cmphi	r0, #1
     bf4:	a4000000 	strge	r0, [r0], #-0
     bf8:	04000000 	streq	r0, [r0], #-0
     bfc:	5001f300 	andpl	pc, r1, r0, lsl #6
     c00:	0000a49f 	muleq	r0, pc, r4	; <UNPREDICTABLE>
     c04:	0000b300 	andeq	fp, r0, r0, lsl #6
     c08:	50000100 	andpl	r0, r0, r0, lsl #2
     c0c:	000000b3 	strheq	r0, [r0], -r3
     c10:	000000d4 	ldrdeq	r0, [r0], -r4
     c14:	01f30004 	mvnseq	r0, r4
     c18:	00d49f50 	sbcseq	r9, r4, r0, asr pc
     c1c:	00e30000 	rsceq	r0, r3, r0
     c20:	00010000 	andeq	r0, r1, r0
     c24:	0000e350 	andeq	lr, r0, r0, asr r3
     c28:	00010400 	andeq	r0, r1, r0, lsl #8
     c2c:	f3000400 	vshl.u8	d0, d0, d0
     c30:	049f5001 	ldreq	r5, [pc], #1	; c38 <__code_start__-0x73c8>
     c34:	13000001 	movwne	r0, #1
     c38:	01000001 	tsteq	r0, r1
     c3c:	01135000 	tsteq	r3, r0
     c40:	01340000 	teqeq	r4, r0
     c44:	00040000 	andeq	r0, r4, r0
     c48:	9f5001f3 	svcls	0x005001f3
     c4c:	00000134 	andeq	r0, r0, r4, lsr r1
     c50:	00000143 	andeq	r0, r0, r3, asr #2
     c54:	43500001 	cmpmi	r0, #1
     c58:	64000001 	strvs	r0, [r0], #-1
     c5c:	04000001 	streq	r0, [r0], #-1
     c60:	5001f300 	andpl	pc, r1, r0, lsl #6
     c64:	0001649f 	muleq	r1, pc, r4	; <UNPREDICTABLE>
     c68:	00017300 	andeq	r7, r1, r0, lsl #6
     c6c:	50000100 	andpl	r0, r0, r0, lsl #2
     c70:	00000173 	andeq	r0, r0, r3, ror r1
     c74:	00000194 	muleq	r0, r4, r1
     c78:	01f30004 	mvnseq	r0, r4
     c7c:	01949f50 	orrseq	r9, r4, r0, asr pc
     c80:	01a30000 			; <UNDEFINED> instruction: 0x01a30000
     c84:	00010000 	andeq	r0, r1, r0
     c88:	0001a350 	andeq	sl, r1, r0, asr r3
     c8c:	0001c400 	andeq	ip, r1, r0, lsl #8
     c90:	f3000400 	vshl.u8	d0, d0, d0
     c94:	c49f5001 	ldrgt	r5, [pc], #1	; c9c <__code_start__-0x7364>
     c98:	d3000001 	movwle	r0, #1
     c9c:	01000001 	tsteq	r0, r1
     ca0:	01d35000 	bicseq	r5, r3, r0
     ca4:	01f40000 	mvnseq	r0, r0
     ca8:	00040000 	andeq	r0, r4, r0
     cac:	9f5001f3 	svcls	0x005001f3
     cb0:	000001f4 	strdeq	r0, [r0], -r4
     cb4:	00000203 	andeq	r0, r0, r3, lsl #4
     cb8:	03500001 	cmpeq	r0, #1
     cbc:	24000002 	strcs	r0, [r0], #-2
     cc0:	04000002 	streq	r0, [r0], #-2
     cc4:	5001f300 	andpl	pc, r1, r0, lsl #6
     cc8:	0002249f 	muleq	r2, pc, r4	; <UNPREDICTABLE>
     ccc:	00025c00 	andeq	r5, r2, r0, lsl #24
     cd0:	50000100 	andpl	r0, r0, r0, lsl #2
	...
     cdc:	0000025c 	andeq	r0, r0, ip, asr r2
     ce0:	00000267 	andeq	r0, r0, r7, ror #4
     ce4:	67500001 	ldrbvs	r0, [r0, -r1]
     ce8:	60000002 	andvs	r0, r0, r2
     cec:	01000004 	tsteq	r0, r4
     cf0:	00005400 	andeq	r5, r0, r0, lsl #8
     cf4:	00000000 	andeq	r0, r0, r0
     cf8:	04680000 	strbteq	r0, [r8], #-0
     cfc:	04740000 	ldrbteq	r0, [r4], #-0
     d00:	00010000 	andeq	r0, r1, r0
     d04:	00047450 	andeq	r7, r4, r0, asr r4
     d08:	0004b400 	andeq	fp, r4, r0, lsl #8
     d0c:	54000100 	strpl	r0, [r0], #-256	; 0x100
	...
     d18:	000004b4 			; <UNDEFINED> instruction: 0x000004b4
     d1c:	000004cb 	andeq	r0, r0, fp, asr #9
     d20:	cb500001 	blgt	1400d2c <__bss_end__+0x13f4b3c>
     d24:	ec000004 	stc	0, cr0, [r0], {4}
     d28:	04000004 	streq	r0, [r0], #-4
     d2c:	5001f300 	andpl	pc, r1, r0, lsl #6
     d30:	0004ec9f 	muleq	r4, pc, ip	; <UNPREDICTABLE>
     d34:	0004ff00 	andeq	pc, r4, r0, lsl #30
     d38:	50000100 	andpl	r0, r0, r0, lsl #2
     d3c:	000004ff 	strdeq	r0, [r0], -pc	; <UNPREDICTABLE>
     d40:	00000520 	andeq	r0, r0, r0, lsr #10
     d44:	01f30004 	mvnseq	r0, r4
     d48:	05209f50 	streq	r9, [r0, #-3920]!	; 0xf50
     d4c:	052f0000 	streq	r0, [pc, #-0]!	; d54 <__code_start__-0x72ac>
     d50:	00010000 	andeq	r0, r1, r0
     d54:	00052f50 	andeq	r2, r5, r0, asr pc
     d58:	00055000 	andeq	r5, r5, r0
     d5c:	f3000400 	vshl.u8	d0, d0, d0
     d60:	509f5001 	addspl	r5, pc, r1
     d64:	5f000005 	svcpl	0x00000005
     d68:	01000005 	tsteq	r0, r5
     d6c:	055f5000 	ldrbeq	r5, [pc, #-0]	; d74 <__code_start__-0x728c>
     d70:	05800000 	streq	r0, [r0]
     d74:	00040000 	andeq	r0, r4, r0
     d78:	9f5001f3 	svcls	0x005001f3
     d7c:	00000580 	andeq	r0, r0, r0, lsl #11
     d80:	0000058f 	andeq	r0, r0, pc, lsl #11
     d84:	8f500001 	svchi	0x00500001
     d88:	b0000005 	andlt	r0, r0, r5
     d8c:	04000005 	streq	r0, [r0], #-5
     d90:	5001f300 	andpl	pc, r1, r0, lsl #6
     d94:	0005b09f 	muleq	r5, pc, r0	; <UNPREDICTABLE>
     d98:	0005bf00 	andeq	fp, r5, r0, lsl #30
     d9c:	50000100 	andpl	r0, r0, r0, lsl #2
     da0:	000005bf 			; <UNDEFINED> instruction: 0x000005bf
     da4:	000005e0 	andeq	r0, r0, r0, ror #11
     da8:	01f30004 	mvnseq	r0, r4
     dac:	05e09f50 	strbeq	r9, [r0, #3920]!	; 0xf50
     db0:	05ef0000 	strbeq	r0, [pc, #0]!	; db8 <__code_start__-0x7248>
     db4:	00010000 	andeq	r0, r1, r0
     db8:	0005ef50 	andeq	lr, r5, r0, asr pc
     dbc:	00061000 	andeq	r1, r6, r0
     dc0:	f3000400 	vshl.u8	d0, d0, d0
     dc4:	109f5001 	addsne	r5, pc, r1
     dc8:	1f000006 	svcne	0x00000006
     dcc:	01000006 	tsteq	r0, r6
     dd0:	061f5000 	ldreq	r5, [pc], -r0
     dd4:	06400000 	strbeq	r0, [r0], -r0
     dd8:	00040000 	andeq	r0, r4, r0
     ddc:	9f5001f3 	svcls	0x005001f3
     de0:	00000640 	andeq	r0, r0, r0, asr #12
     de4:	00000674 	andeq	r0, r0, r4, ror r6
     de8:	00500001 	subseq	r0, r0, r1
     dec:	00000000 	andeq	r0, r0, r0
     df0:	30000000 	andcc	r0, r0, r0
     df4:	3c000007 	stccc	0, cr0, [r0], {7}
     df8:	01000007 	tsteq	r0, r7
     dfc:	073c5000 	ldreq	r5, [ip, -r0]!
     e00:	09000000 	stmdbeq	r0, {}	; <UNPREDICTABLE>
     e04:	00010000 	andeq	r0, r1, r0
     e08:	00000054 	andeq	r0, r0, r4, asr r0
     e0c:	00000000 	andeq	r0, r0, r0
     e10:	00003400 	andeq	r3, r0, r0, lsl #8
     e14:	00004c00 	andeq	r4, r0, r0, lsl #24
     e18:	50000100 	andpl	r0, r0, r0, lsl #2
     e1c:	0000004c 	andeq	r0, r0, ip, asr #32
     e20:	00000104 	andeq	r0, r0, r4, lsl #2
     e24:	04560001 	ldrbeq	r0, [r6], #-1
     e28:	24000001 	strcs	r0, [r0], #-1
     e2c:	04000001 	streq	r0, [r0], #-1
     e30:	5001f300 	andpl	pc, r1, r0, lsl #6
     e34:	0000009f 	muleq	r0, pc, r0	; <UNPREDICTABLE>
     e38:	00000000 	andeq	r0, r0, r0
     e3c:	00003400 	andeq	r3, r0, r0, lsl #8
     e40:	00004f00 	andeq	r4, r0, r0, lsl #30
     e44:	51000100 	mrspl	r0, (UNDEF: 16)
     e48:	0000004f 	andeq	r0, r0, pc, asr #32
     e4c:	00000104 	andeq	r0, r0, r4, lsl #2
     e50:	04540001 	ldrbeq	r0, [r4], #-1
     e54:	24000001 	strcs	r0, [r0], #-1
     e58:	04000001 	streq	r0, [r0], #-1
     e5c:	5101f300 	mrspl	pc, SP_irq	; <UNPREDICTABLE>
     e60:	0000009f 	muleq	r0, pc, r0	; <UNPREDICTABLE>
     e64:	00000000 	andeq	r0, r0, r0
     e68:	00003400 	andeq	r3, r0, r0, lsl #8
     e6c:	00004f00 	andeq	r4, r0, r0, lsl #30
     e70:	52000100 	andpl	r0, r0, #0, 2
     e74:	0000004f 	andeq	r0, r0, pc, asr #32
     e78:	00000104 	andeq	r0, r0, r4, lsl #2
     e7c:	04550001 	ldrbeq	r0, [r5], #-1
     e80:	24000001 	strcs	r0, [r0], #-1
     e84:	04000001 	streq	r0, [r0], #-1
     e88:	5201f300 	andpl	pc, r1, #0, 6
     e8c:	0000009f 	muleq	r0, pc, r0	; <UNPREDICTABLE>
     e90:	00000000 	andeq	r0, r0, r0
     e94:	00012400 	andeq	r2, r1, r0, lsl #8
     e98:	00013300 	andeq	r3, r1, r0, lsl #6
     e9c:	50000100 	andpl	r0, r0, r0, lsl #2
     ea0:	00000133 	andeq	r0, r0, r3, lsr r1
     ea4:	000001b4 			; <UNDEFINED> instruction: 0x000001b4
     ea8:	b4540001 	ldrblt	r0, [r4], #-1
     eac:	c8000001 	stmdagt	r0, {r0}
     eb0:	04000001 	streq	r0, [r0], #-1
     eb4:	5001f300 	andpl	pc, r1, r0, lsl #6
     eb8:	0000009f 	muleq	r0, pc, r0	; <UNPREDICTABLE>
     ebc:	00000000 	andeq	r0, r0, r0
     ec0:	00013400 	andeq	r3, r1, r0, lsl #8
     ec4:	00014b00 	andeq	r4, r1, r0, lsl #22
     ec8:	50000100 	andpl	r0, r0, r0, lsl #2
     ecc:	0000016c 	andeq	r0, r0, ip, ror #2
     ed0:	00000177 	andeq	r0, r0, r7, ror r1
     ed4:	98500001 	ldmdals	r0, {r0}^
     ed8:	ac000001 	stcge	0, cr0, [r0], {1}
     edc:	01000001 	tsteq	r0, r1
     ee0:	00005000 	andeq	r5, r0, r0
     ee4:	00000000 	andeq	r0, r0, r0
     ee8:	01400000 	mrseq	r0, (UNDEF: 64)
     eec:	014b0000 	mrseq	r0, (UNDEF: 75)
     ef0:	00010000 	andeq	r0, r1, r0
     ef4:	00014b52 	andeq	r4, r1, r2, asr fp
     ef8:	00016c00 	andeq	r6, r1, r0, lsl #24
     efc:	74000500 	strvc	r0, [r0], #-1280	; 0x500
     f00:	9f243101 	svcls	0x00243101
     f04:	0000016c 	andeq	r0, r0, ip, ror #2
     f08:	00000177 	andeq	r0, r0, r7, ror r1
     f0c:	77520001 	ldrbvc	r0, [r2, -r1]
     f10:	98000001 	stmdals	r0, {r0}
     f14:	05000001 	streq	r0, [r0, #-1]
     f18:	31017400 	tstcc	r1, r0, lsl #8
     f1c:	01989f24 	orrseq	r9, r8, r4, lsr #30
     f20:	019c0000 	orrseq	r0, ip, r0
     f24:	00010000 	andeq	r0, r1, r0
     f28:	00019c52 	andeq	r9, r1, r2, asr ip
     f2c:	0001b400 	andeq	fp, r1, r0, lsl #8
     f30:	74000500 	strvc	r0, [r0], #-1280	; 0x500
     f34:	9f243101 	svcls	0x00243101
     f38:	000001b4 			; <UNDEFINED> instruction: 0x000001b4
     f3c:	000001c8 	andeq	r0, r0, r8, asr #3
     f40:	01f30008 	mvnseq	r0, r8
     f44:	31012350 	tstcc	r1, r0, asr r3
     f48:	00009f24 	andeq	r9, r0, r4, lsr #30
     f4c:	00000000 	andeq	r0, r0, r0
     f50:	01400000 	mrseq	r0, (UNDEF: 64)
     f54:	014b0000 	mrseq	r0, (UNDEF: 75)
     f58:	00010000 	andeq	r0, r1, r0
     f5c:	00014b53 	andeq	r4, r1, r3, asr fp
     f60:	00016c00 	andeq	r6, r1, r0, lsl #24
     f64:	74000500 	strvc	r0, [r0], #-1280	; 0x500
     f68:	9f243100 	svcls	0x00243100
     f6c:	0000016c 	andeq	r0, r0, ip, ror #2
     f70:	00000177 	andeq	r0, r0, r7, ror r1
     f74:	77530001 	ldrbvc	r0, [r3, -r1]
     f78:	98000001 	stmdals	r0, {r0}
     f7c:	05000001 	streq	r0, [r0, #-1]
     f80:	31007400 	tstcc	r0, r0, lsl #8
     f84:	01989f24 	orrseq	r9, r8, r4, lsr #30
     f88:	01c80000 	biceq	r0, r8, r0
     f8c:	00010000 	andeq	r0, r1, r0
     f90:	00000053 	andeq	r0, r0, r3, asr r0
     f94:	00000000 	andeq	r0, r0, r0
     f98:	00014000 	andeq	r4, r1, r0
     f9c:	00014b00 	andeq	r4, r1, r0, lsl #22
     fa0:	50000100 	andpl	r0, r0, r0, lsl #2
     fa4:	0000016c 	andeq	r0, r0, ip, ror #2
     fa8:	00000177 	andeq	r0, r0, r7, ror r1
     fac:	98500001 	ldmdals	r0, {r0}^
     fb0:	ac000001 	stcge	0, cr0, [r0], {1}
     fb4:	01000001 	tsteq	r0, r1
     fb8:	00005000 	andeq	r5, r0, r0
     fbc:	00000000 	andeq	r0, r0, r0
     fc0:	01a00000 	moveq	r0, r0
     fc4:	01a80000 			; <UNDEFINED> instruction: 0x01a80000
     fc8:	00010000 	andeq	r0, r1, r0
     fcc:	0001a852 	andeq	sl, r1, r2, asr r8
     fd0:	0001b400 	andeq	fp, r1, r0, lsl #8
     fd4:	74000a00 	strvc	r0, [r0], #-2560	; 0xa00
     fd8:	73243101 	teqvc	r4, #1073741824	; 0x40000000
     fdc:	01231c00 	teqeq	r3, r0, lsl #24
     fe0:	0001b49f 	muleq	r1, pc, r4	; <UNPREDICTABLE>
     fe4:	0001c800 	andeq	ip, r1, r0, lsl #16
     fe8:	f3000d00 	vpadd.f32	d0, d0, d0
     fec:	01235001 	teqeq	r3, r1
     ff0:	00732431 	rsbseq	r2, r3, r1, lsr r4
     ff4:	9f01231c 	svcls	0x0001231c
	...
    1000:	000001c8 	andeq	r0, r0, r8, asr #3
    1004:	000001db 	ldrdeq	r0, [r0], -fp
    1008:	db500001 	blle	1401014 <__bss_end__+0x13f4e24>
    100c:	fc000001 	stc2	0, cr0, [r0], {1}
    1010:	04000001 	streq	r0, [r0], #-1
    1014:	5001f300 	andpl	pc, r1, r0, lsl #6
    1018:	0001fc9f 	muleq	r1, pc, ip	; <UNPREDICTABLE>
    101c:	00020700 	andeq	r0, r2, r0, lsl #14
    1020:	50000100 	andpl	r0, r0, r0, lsl #2
    1024:	00000207 	andeq	r0, r0, r7, lsl #4
    1028:	00000228 	andeq	r0, r0, r8, lsr #4
    102c:	01f30004 	mvnseq	r0, r4
    1030:	02289f50 	eoreq	r9, r8, #80, 30	; 0x140
    1034:	022b0000 	eoreq	r0, fp, #0
    1038:	00010000 	andeq	r0, r1, r0
    103c:	00022b50 	andeq	r2, r2, r0, asr fp
    1040:	00025c00 	andeq	r5, r2, r0, lsl #24
    1044:	f3000400 	vshl.u8	d0, d0, d0
    1048:	009f5001 	addseq	r5, pc, r1
    104c:	00000000 	andeq	r0, r0, r0
    1050:	c8000000 	stmdagt	r0, {}	; <UNPREDICTABLE>
    1054:	db000001 	blle	1060 <__code_start__-0x6fa0>
    1058:	01000001 	tsteq	r0, r1
    105c:	01db5100 	bicseq	r5, fp, r0, lsl #2
    1060:	01fc0000 	mvnseq	r0, r0
    1064:	00040000 	andeq	r0, r4, r0
    1068:	9f5101f3 	svcls	0x005101f3
    106c:	000001fc 	strdeq	r0, [r0], -ip
    1070:	00000207 	andeq	r0, r0, r7, lsl #4
    1074:	07510001 	ldrbeq	r0, [r1, -r1]
    1078:	28000002 	stmdacs	r0, {r1}
    107c:	04000002 	streq	r0, [r0], #-2
    1080:	5101f300 	mrspl	pc, SP_irq	; <UNPREDICTABLE>
    1084:	0002289f 	muleq	r2, pc, r8	; <UNPREDICTABLE>
    1088:	00022b00 	andeq	r2, r2, r0, lsl #22
    108c:	51000100 	mrspl	r0, (UNDEF: 16)
    1090:	0000022b 	andeq	r0, r0, fp, lsr #4
    1094:	0000025c 	andeq	r0, r0, ip, asr r2
    1098:	01f30004 	mvnseq	r0, r4
    109c:	00009f51 	andeq	r9, r0, r1, asr pc
    10a0:	00000000 	andeq	r0, r0, r0
    10a4:	02700000 	rsbseq	r0, r0, #0
    10a8:	02870000 	addeq	r0, r7, #0
    10ac:	00010000 	andeq	r0, r1, r0
    10b0:	00028750 	andeq	r8, r2, r0, asr r7
    10b4:	0002a000 	andeq	sl, r2, r0
    10b8:	f3000400 	vshl.u8	d0, d0, d0
    10bc:	a09f5001 	addsge	r5, pc, r1
    10c0:	a3000002 	movwge	r0, #2
    10c4:	01000002 	tsteq	r0, r2
    10c8:	02a35000 	adceq	r5, r3, #0
    10cc:	02d80000 	sbcseq	r0, r8, #0
    10d0:	00040000 	andeq	r0, r4, r0
    10d4:	9f5001f3 	svcls	0x005001f3
	...
    10e0:	00000278 	andeq	r0, r0, r8, ror r2
    10e4:	0000027c 	andeq	r0, r0, ip, ror r2
    10e8:	00530001 	subseq	r0, r3, r1
    10ec:	00000000 	andeq	r0, r0, r0
    10f0:	d8000000 	stmdale	r0, {}	; <UNPREDICTABLE>
    10f4:	df000002 	svcle	0x00000002
    10f8:	01000002 	tsteq	r0, r2
    10fc:	02df5000 	sbcseq	r5, pc, #0
    1100:	03080000 	movweq	r0, #32768	; 0x8000
    1104:	00040000 	andeq	r0, r4, r0
    1108:	9f5001f3 	svcls	0x005001f3
	...
    1114:	00000548 	andeq	r0, r0, r8, asr #10
    1118:	00000563 	andeq	r0, r0, r3, ror #10
    111c:	63500001 	cmpvs	r0, #1
    1120:	84000005 	strhi	r0, [r0], #-5
    1124:	04000005 	streq	r0, [r0], #-5
    1128:	5001f300 	andpl	pc, r1, r0, lsl #6
    112c:	0005849f 	muleq	r5, pc, r4	; <UNPREDICTABLE>
    1130:	00058c00 	andeq	r8, r5, r0, lsl #24
    1134:	50000100 	andpl	r0, r0, r0, lsl #2
    1138:	0000058c 	andeq	r0, r0, ip, lsl #11
    113c:	00000594 	muleq	r0, r4, r5
    1140:	94520001 	ldrbls	r0, [r2], #-1
    1144:	9b000005 	blls	1160 <__code_start__-0x6ea0>
    1148:	01000005 	tsteq	r0, r5
    114c:	059b5100 	ldreq	r5, [fp, #256]	; 0x100
    1150:	05b80000 	ldreq	r0, [r8, #0]!
    1154:	00040000 	andeq	r0, r4, r0
    1158:	9f5001f3 	svcls	0x005001f3
	...
    1164:	000005b8 			; <UNDEFINED> instruction: 0x000005b8
    1168:	000005d3 	ldrdeq	r0, [r0], -r3
    116c:	d3500001 	cmple	r0, #1
    1170:	f4000005 	vst4.8	{d0-d3}, [r0], r5
    1174:	04000005 	streq	r0, [r0], #-5
    1178:	5001f300 	andpl	pc, r1, r0, lsl #6
    117c:	0005f49f 	muleq	r5, pc, r4	; <UNPREDICTABLE>
    1180:	0005fc00 	andeq	pc, r5, r0, lsl #24
    1184:	50000100 	andpl	r0, r0, r0, lsl #2
    1188:	000005fc 	strdeq	r0, [r0], -ip
    118c:	00000604 	andeq	r0, r0, r4, lsl #12
    1190:	04520001 	ldrbeq	r0, [r2], #-1
    1194:	0b000006 	bleq	11b4 <__code_start__-0x6e4c>
    1198:	01000006 	tsteq	r0, r6
    119c:	060b5100 	streq	r5, [fp], -r0, lsl #2
    11a0:	06280000 	strteq	r0, [r8], -r0
    11a4:	00040000 	andeq	r0, r4, r0
    11a8:	9f5001f3 	svcls	0x005001f3
	...
    11b4:	00000628 	andeq	r0, r0, r8, lsr #12
    11b8:	00000630 	andeq	r0, r0, r0, lsr r6
    11bc:	30500001 	subscc	r0, r0, r1
    11c0:	3c000006 	stccc	0, cr0, [r0], {6}
    11c4:	05000006 	streq	r0, [r0, #-6]
    11c8:	44007100 	strmi	r7, [r0], #-256	; 0x100
    11cc:	063c9f24 	ldrteq	r9, [ip], -r4, lsr #30
    11d0:	06430000 	strbeq	r0, [r3], -r0
    11d4:	00010000 	andeq	r0, r1, r0
    11d8:	00064351 	andeq	r4, r6, r1, asr r3
    11dc:	00064c00 	andeq	r4, r6, r0, lsl #24
    11e0:	f3000800 	vsub.i8	d0, d0, d0
    11e4:	25445001 	strbcs	r5, [r4, #-1]
    11e8:	009f2444 	addseq	r2, pc, r4, asr #8
	...
    11f4:	24000000 	strcs	r0, [r0], #-0
    11f8:	01000000 	mrseq	r0, (UNDEF: 0)
    11fc:	00245000 	eoreq	r5, r4, r0
    1200:	00e40000 	rsceq	r0, r4, r0
    1204:	00040000 	andeq	r0, r4, r0
    1208:	9f5001f3 	svcls	0x005001f3
    120c:	000000e4 	andeq	r0, r0, r4, ror #1
    1210:	000000e8 	andeq	r0, r0, r8, ror #1
    1214:	e8500001 	ldmda	r0, {r0}^
    1218:	f0000000 			; <UNDEFINED> instruction: 0xf0000000
    121c:	04000000 	streq	r0, [r0], #-0
    1220:	5001f300 	andpl	pc, r1, r0, lsl #6
    1224:	0000009f 	muleq	r0, pc, r0	; <UNPREDICTABLE>
	...
    1230:	00002000 	andeq	r2, r0, r0
    1234:	51000100 	mrspl	r0, (UNDEF: 16)
    1238:	00000020 	andeq	r0, r0, r0, lsr #32
    123c:	00000080 	andeq	r0, r0, r0, lsl #1
    1240:	9c510001 	mrrcls	0, 0, r0, r1, cr1
    1244:	a0000000 	andge	r0, r0, r0
    1248:	01000000 	mrseq	r0, (UNDEF: 0)
    124c:	00b85100 	adcseq	r5, r8, r0, lsl #2
    1250:	00c80000 	sbceq	r0, r8, r0
    1254:	00010000 	andeq	r0, r1, r0
    1258:	0000e451 	andeq	lr, r0, r1, asr r4
    125c:	0000e800 	andeq	lr, r0, r0, lsl #16
    1260:	51000100 	mrspl	r0, (UNDEF: 16)
	...
    126c:	00000004 	andeq	r0, r0, r4
    1270:	00000024 	andeq	r0, r0, r4, lsr #32
    1274:	24500001 	ldrbcs	r0, [r0], #-1
    1278:	90000000 	andls	r0, r0, r0
    127c:	01000000 	mrseq	r0, (UNDEF: 0)
    1280:	009c5300 	addseq	r5, ip, r0, lsl #6
    1284:	00a40000 	adceq	r0, r4, r0
    1288:	00010000 	andeq	r0, r1, r0
    128c:	0000b853 	andeq	fp, r0, r3, asr r8
    1290:	0000bc00 	andeq	fp, r0, r0, lsl #24
    1294:	53000100 	movwpl	r0, #256	; 0x100
    1298:	000000e4 	andeq	r0, r0, r4, ror #1
    129c:	000000e8 	andeq	r0, r0, r8, ror #1
    12a0:	00500001 	subseq	r0, r0, r1
    12a4:	00000000 	andeq	r0, r0, r0
    12a8:	08000000 	stmdaeq	r0, {}	; <UNPREDICTABLE>
    12ac:	20000000 	andcs	r0, r0, r0
    12b0:	01000000 	mrseq	r0, (UNDEF: 0)
    12b4:	00205100 	eoreq	r5, r0, r0, lsl #2
    12b8:	00340000 	eorseq	r0, r4, r0
    12bc:	00010000 	andeq	r0, r1, r0
    12c0:	00003452 	andeq	r3, r0, r2, asr r4
    12c4:	00004800 	andeq	r4, r0, r0, lsl #16
    12c8:	50000100 	andpl	r0, r0, r0, lsl #2
    12cc:	00000048 	andeq	r0, r0, r8, asr #32
    12d0:	000000cc 	andeq	r0, r0, ip, asr #1
    12d4:	cc520001 	mrrcgt	0, 0, r0, r2, cr1
    12d8:	e0000000 	and	r0, r0, r0
    12dc:	01000000 	mrseq	r0, (UNDEF: 0)
    12e0:	00e45000 	rsceq	r5, r4, r0
    12e4:	00e80000 	rsceq	r0, r8, r0
    12e8:	00010000 	andeq	r0, r1, r0
    12ec:	00000051 	andeq	r0, r0, r1, asr r0
    12f0:	00000000 	andeq	r0, r0, r0
    12f4:	00004400 	andeq	r4, r0, r0, lsl #8
    12f8:	00004800 	andeq	r4, r0, r0, lsl #16
    12fc:	52000100 	andpl	r0, r0, #0, 2
    1300:	00000048 	andeq	r0, r0, r8, asr #32
    1304:	0000004c 	andeq	r0, r0, ip, asr #32
    1308:	007c0012 	rsbseq	r0, ip, r2, lsl r0
    130c:	02732438 	rsbseq	r2, r3, #56, 8	; 0x38000000
    1310:	ff080194 			; <UNDEFINED> instruction: 0xff080194
    1314:	243b221a 	ldrtcs	r2, [fp], #-538	; 0x21a
    1318:	9f270070 	svcls	0x00270070
    131c:	0000004c 	andeq	r0, r0, ip, asr #32
    1320:	00000054 	andeq	r0, r0, r4, asr r0
    1324:	007c0012 	rsbseq	r0, ip, r2, lsl r0
    1328:	7e732438 	mrcvc	4, 3, r2, cr3, cr8, {1}
    132c:	ff080194 			; <UNDEFINED> instruction: 0xff080194
    1330:	243b221a 	ldrtcs	r2, [fp], #-538	; 0x21a
    1334:	9f270070 	svcls	0x00270070
	...
    1340:	0000001c 	andeq	r0, r0, ip, lsl r0
    1344:	000000e4 	andeq	r0, r0, r4, ror #1
    1348:	00540001 	subseq	r0, r4, r1
	...
    1354:	04000000 	streq	r0, [r0], #-0
    1358:	01000000 	mrseq	r0, (UNDEF: 0)
    135c:	00045200 	andeq	r5, r4, r0, lsl #4
    1360:	00200000 	eoreq	r0, r0, r0
    1364:	00040000 	andeq	r0, r4, r0
    1368:	9f5201f3 	svcls	0x005201f3
	...
    1378:	0000000c 	andeq	r0, r0, ip
    137c:	0c500001 	mrrceq	0, 0, r0, r0, cr1	; <UNPREDICTABLE>
    1380:	14000000 	strne	r0, [r0], #-0
    1384:	03000000 	movweq	r0, #0
    1388:	9f017300 	svcls	0x00017300
    138c:	00000014 	andeq	r0, r0, r4, lsl r0
    1390:	00000020 	andeq	r0, r0, r0, lsr #32
    1394:	00530001 	subseq	r0, r3, r1
    1398:	00000000 	andeq	r0, r0, r0
    139c:	2c000000 	stccs	0, cr0, [r0], {-0}
    13a0:	38000000 	stmdacc	r0, {}	; <UNPREDICTABLE>
    13a4:	01000000 	mrseq	r0, (UNDEF: 0)
    13a8:	00385000 	eorseq	r5, r8, r0
    13ac:	00480000 	subeq	r0, r8, r0
    13b0:	00010000 	andeq	r0, r1, r0
    13b4:	00004855 	andeq	r4, r0, r5, asr r8
    13b8:	00005800 	andeq	r5, r0, r0, lsl #16
    13bc:	50000100 	andpl	r0, r0, r0, lsl #2
	...
    13cc:	0000000b 	andeq	r0, r0, fp
    13d0:	0b500001 	bleq	14013dc <__bss_end__+0x13f51ec>
    13d4:	14000000 	strne	r0, [r0], #-0
    13d8:	01000000 	mrseq	r0, (UNDEF: 0)
    13dc:	00005400 	andeq	r5, r0, r0, lsl #8
	...
    13e8:	00100000 	andseq	r0, r0, r0
    13ec:	00010000 	andeq	r0, r1, r0
    13f0:	00001050 	andeq	r1, r0, r0, asr r0
    13f4:	00003400 	andeq	r3, r0, r0, lsl #8
    13f8:	54000100 	strpl	r0, [r0], #-256	; 0x100
	...
    1408:	00000004 	andeq	r0, r0, r4
    140c:	04500001 	ldrbeq	r0, [r0], #-1
    1410:	0c000000 	stceq	0, cr0, [r0], {-0}
    1414:	03000000 	movweq	r0, #0
    1418:	9f307000 	svcls	0x00307000
    141c:	0000000c 	andeq	r0, r0, ip
    1420:	00000014 	andeq	r0, r0, r4, lsl r0
    1424:	01f30004 	mvnseq	r0, r4
    1428:	00009f50 	andeq	r9, r0, r0, asr pc
    142c:	00000000 	andeq	r0, r0, r0
    1430:	00140000 	andseq	r0, r4, r0
    1434:	00200000 	eoreq	r0, r0, r0
    1438:	00010000 	andeq	r0, r1, r0
    143c:	00002050 	andeq	r2, r0, r0, asr r0
    1440:	00002c00 	andeq	r2, r0, r0, lsl #24
    1444:	70000300 	andvc	r0, r0, r0, lsl #6
    1448:	002c9f01 	eoreq	r9, ip, r1, lsl #30
    144c:	00400000 	subeq	r0, r0, r0
    1450:	00010000 	andeq	r0, r1, r0
    1454:	00000050 	andeq	r0, r0, r0, asr r0
    1458:	00000000 	andeq	r0, r0, r0
    145c:	00001400 	andeq	r1, r0, r0, lsl #8
    1460:	00001800 	andeq	r1, r0, r0, lsl #16
    1464:	51000100 	mrspl	r0, (UNDEF: 16)
    1468:	00000018 	andeq	r0, r0, r8, lsl r0
    146c:	00000040 	andeq	r0, r0, r0, asr #32
    1470:	01f30004 	mvnseq	r0, r4
    1474:	00009f51 	andeq	r9, r0, r1, asr pc
    1478:	00000000 	andeq	r0, r0, r0
    147c:	00400000 	subeq	r0, r0, r0
    1480:	00600000 	rsbeq	r0, r0, r0
    1484:	00010000 	andeq	r0, r1, r0
    1488:	00006050 	andeq	r6, r0, r0, asr r0
    148c:	00006c00 	andeq	r6, r0, r0, lsl #24
    1490:	71000300 	mrsvc	r0, LR_irq
    1494:	006c9f01 	rsbeq	r9, ip, r1, lsl #30
    1498:	00740000 	rsbseq	r0, r4, r0
    149c:	00010000 	andeq	r0, r1, r0
    14a0:	00007451 	andeq	r7, r0, r1, asr r4
    14a4:	00008000 	andeq	r8, r0, r0
    14a8:	71000300 	mrsvc	r0, LR_irq
    14ac:	00009f01 	andeq	r9, r0, r1, lsl #30
    14b0:	00000000 	andeq	r0, r0, r0
    14b4:	00400000 	subeq	r0, r0, r0
    14b8:	00500000 	subseq	r0, r0, r0
    14bc:	00010000 	andeq	r0, r1, r0
    14c0:	00005051 	andeq	r5, r0, r1, asr r0
    14c4:	00008000 	andeq	r8, r0, r0
    14c8:	f3000400 	vshl.u8	d0, d0, d0
    14cc:	009f5101 	addseq	r5, pc, r1, lsl #2
    14d0:	00000000 	andeq	r0, r0, r0
    14d4:	40000000 	andmi	r0, r0, r0
    14d8:	58000000 	stmdapl	r0, {}	; <UNPREDICTABLE>
    14dc:	01000000 	mrseq	r0, (UNDEF: 0)
    14e0:	00585200 	subseq	r5, r8, r0, lsl #4
    14e4:	00640000 	rsbeq	r0, r4, r0
    14e8:	00010000 	andeq	r0, r1, r0
    14ec:	00006452 	andeq	r6, r0, r2, asr r4
    14f0:	00006800 	andeq	r6, r0, r0, lsl #16
    14f4:	72000300 	andvc	r0, r0, #0, 6
    14f8:	00689f01 	rsbeq	r9, r8, r1, lsl #30
    14fc:	00800000 	addeq	r0, r0, r0
    1500:	00010000 	andeq	r0, r1, r0
    1504:	00000052 	andeq	r0, r0, r2, asr r0
    1508:	00000000 	andeq	r0, r0, r0
    150c:	00004000 	andeq	r4, r0, r0
    1510:	00005400 	andeq	r5, r0, r0, lsl #8
    1514:	53000100 	movwpl	r0, #256	; 0x100
    1518:	00000054 	andeq	r0, r0, r4, asr r0
    151c:	00000078 	andeq	r0, r0, r8, ror r0
    1520:	00530001 	subseq	r0, r3, r1
    1524:	00000000 	andeq	r0, r0, r0
    1528:	48000000 	stmdami	r0, {}	; <UNPREDICTABLE>
    152c:	60000000 	andvs	r0, r0, r0
    1530:	01000000 	mrseq	r0, (UNDEF: 0)
    1534:	00605c00 	rsbeq	r5, r0, r0, lsl #24
    1538:	00800000 	addeq	r0, r0, r0
    153c:	000a0000 	andeq	r0, sl, r0
    1540:	f35201f3 	vbsl	q8, q9, <illegal reg q9.5>
    1544:	231c5301 	tstcs	ip, #67108864	; 0x4000000
    1548:	00009f01 	andeq	r9, r0, r1, lsl #30
    154c:	00000000 	andeq	r0, r0, r0
    1550:	00800000 	addeq	r0, r0, r0
    1554:	00a40000 	adceq	r0, r4, r0
    1558:	00010000 	andeq	r0, r1, r0
    155c:	0000a450 	andeq	sl, r0, r0, asr r4
    1560:	00011800 	andeq	r1, r1, r0, lsl #16
    1564:	70000300 	andvc	r0, r0, r0, lsl #6
    1568:	01189f02 	tsteq	r8, r2, lsl #30
    156c:	023c0000 	eorseq	r0, ip, #0
    1570:	00040000 	andeq	r0, r4, r0
    1574:	9f5001f3 	svcls	0x005001f3
	...
    1580:	00000080 	andeq	r0, r0, r0, lsl #1
    1584:	000000f0 	strdeq	r0, [r0], -r0	; <UNPREDICTABLE>
    1588:	f0510001 			; <UNDEFINED> instruction: 0xf0510001
    158c:	60000000 	andvs	r0, r0, r0
    1590:	01000001 	tsteq	r0, r1
    1594:	01605500 	cmneq	r0, r0, lsl #10
    1598:	016c0000 	cmneq	ip, r0
    159c:	00010000 	andeq	r0, r1, r0
    15a0:	00016c51 	andeq	r6, r1, r1, asr ip
    15a4:	0001a000 	andeq	sl, r1, r0
    15a8:	55000100 	strpl	r0, [r0, #-256]	; 0x100
    15ac:	000001a0 	andeq	r0, r0, r0, lsr #3
    15b0:	000001b4 			; <UNDEFINED> instruction: 0x000001b4
    15b4:	b4510001 	ldrblt	r0, [r1], #-1
    15b8:	d4000001 	strle	r0, [r0], #-1
    15bc:	01000001 	tsteq	r0, r1
    15c0:	01d45500 	bicseq	r5, r4, r0, lsl #10
    15c4:	01d70000 	bicseq	r0, r7, r0
    15c8:	00010000 	andeq	r0, r1, r0
    15cc:	0001d751 	andeq	sp, r1, r1, asr r7
    15d0:	00021c00 	andeq	r1, r2, r0, lsl #24
    15d4:	55000100 	strpl	r0, [r0, #-256]	; 0x100
    15d8:	0000021c 	andeq	r0, r0, ip, lsl r2
    15dc:	0000023c 	andeq	r0, r0, ip, lsr r2
    15e0:	01f30004 	mvnseq	r0, r4
    15e4:	00009f51 	andeq	r9, r0, r1, asr pc
    15e8:	00000000 	andeq	r0, r0, r0
    15ec:	00800000 	addeq	r0, r0, r0
    15f0:	00940000 	addseq	r0, r4, r0
    15f4:	00010000 	andeq	r0, r1, r0
    15f8:	00009452 	andeq	r9, r0, r2, asr r4
    15fc:	00021c00 	andeq	r1, r2, r0, lsl #24
    1600:	54000100 	strpl	r0, [r0], #-256	; 0x100
    1604:	0000021c 	andeq	r0, r0, ip, lsl r2
    1608:	0000023c 	andeq	r0, r0, ip, lsr r2
    160c:	01f30004 	mvnseq	r0, r4
    1610:	00009f52 	andeq	r9, r0, r2, asr pc
    1614:	00000000 	andeq	r0, r0, r0
    1618:	00800000 	addeq	r0, r0, r0
    161c:	01000000 	mrseq	r0, (UNDEF: 0)
    1620:	00010000 	andeq	r0, r1, r0
    1624:	00010453 	andeq	r0, r1, r3, asr r4
    1628:	00010800 	andeq	r0, r1, r0, lsl #16
    162c:	53000100 	movwpl	r0, #256	; 0x100
    1630:	00000160 	andeq	r0, r0, r0, ror #2
    1634:	00000164 	andeq	r0, r0, r4, ror #2
    1638:	64530001 	ldrbvs	r0, [r3], #-1
    163c:	6c000001 	stcvs	0, cr0, [r0], {1}
    1640:	01000001 	tsteq	r0, r1
    1644:	016c5c00 	cmneq	ip, r0, lsl #24
    1648:	01a00000 	moveq	r0, r0
    164c:	00040000 	andeq	r0, r4, r0
    1650:	9f5301f3 	svcls	0x005301f3
    1654:	000001a0 	andeq	r0, r0, r0, lsr #3
    1658:	000001b0 			; <UNDEFINED> instruction: 0x000001b0
    165c:	b0530001 	subslt	r0, r3, r1
    1660:	b4000001 	strlt	r0, [r0], #-1
    1664:	01000001 	tsteq	r0, r1
    1668:	01b45c00 			; <UNDEFINED> instruction: 0x01b45c00
    166c:	01d40000 	bicseq	r0, r4, r0
    1670:	00040000 	andeq	r0, r4, r0
    1674:	9f5301f3 	svcls	0x005301f3
    1678:	000001d4 	ldrdeq	r0, [r0], -r4
    167c:	000001d7 	ldrdeq	r0, [r0], -r7
    1680:	d7530001 	ldrble	r0, [r3, -r1]
    1684:	f8000001 			; <UNDEFINED> instruction: 0xf8000001
    1688:	04000001 	streq	r0, [r0], #-1
    168c:	5301f300 	movwpl	pc, #4864	; 0x1300	; <UNPREDICTABLE>
    1690:	0000009f 	muleq	r0, pc, r0	; <UNPREDICTABLE>
    1694:	00000000 	andeq	r0, r0, r0
    1698:	00008000 	andeq	r8, r0, r0
    169c:	00009c00 	andeq	r9, r0, r0, lsl #24
    16a0:	91000200 	mrsls	r0, R8_usr
    16a4:	00009c00 	andeq	r9, r0, r0, lsl #24
    16a8:	0001d700 	andeq	sp, r1, r0, lsl #14
    16ac:	52000100 	andpl	r0, r0, #0, 2
    16b0:	000001f8 	strdeq	r0, [r0], -r8
    16b4:	000001ff 	strdeq	r0, [r0], -pc	; <UNPREDICTABLE>
    16b8:	00520001 	subseq	r0, r2, r1
    16bc:	00000000 	andeq	r0, r0, r0
    16c0:	9c000000 	stcls	0, cr0, [r0], {-0}
    16c4:	0c000000 	stceq	0, cr0, [r0], {-0}
    16c8:	04000001 	streq	r0, [r0], #-1
    16cc:	7fa09100 	svcvc	0x00a09100
    16d0:	00010c9f 	muleq	r1, pc, ip	; <UNPREDICTABLE>
    16d4:	00011800 	andeq	r1, r1, r0, lsl #16
    16d8:	51000100 	mrspl	r0, (UNDEF: 16)
    16dc:	00000118 	andeq	r0, r0, r8, lsl r1
    16e0:	0000011c 	andeq	r0, r0, ip, lsl r1
    16e4:	1c500001 	mrrcne	0, 0, r0, r0, cr1	; <UNPREDICTABLE>
    16e8:	20000001 	andcs	r0, r0, r1
    16ec:	01000001 	tsteq	r0, r1
    16f0:	01205100 	teqeq	r0, r0, lsl #2
    16f4:	01600000 	cmneq	r0, r0
    16f8:	00010000 	andeq	r0, r1, r0
    16fc:	00016050 	andeq	r6, r1, r0, asr r0
    1700:	00016400 	andeq	r6, r1, r0, lsl #8
    1704:	91000400 	tstls	r0, r0, lsl #8
    1708:	649f7fa0 	ldrvs	r7, [pc], #4000	; 1710 <__code_start__-0x68f0>
    170c:	6c000001 	stcvs	0, cr0, [r0], {1}
    1710:	01000001 	tsteq	r0, r1
    1714:	016c5300 	cmneq	ip, r0, lsl #6
    1718:	01700000 	cmneq	r0, r0
    171c:	00010000 	andeq	r0, r1, r0
    1720:	00017050 	andeq	r7, r1, r0, asr r0
    1724:	00017400 	andeq	r7, r1, r0, lsl #8
    1728:	53000100 	movwpl	r0, #256	; 0x100
    172c:	00000174 	andeq	r0, r0, r4, ror r1
    1730:	00000188 	andeq	r0, r0, r8, lsl #3
    1734:	88500001 	ldmdahi	r0, {r0}^
    1738:	94000001 	strls	r0, [r0], #-1
    173c:	03000001 	movweq	r0, #1
    1740:	9f017000 	svcls	0x00017000
    1744:	00000194 	muleq	r0, r4, r1
    1748:	000001a0 	andeq	r0, r0, r0, lsr #3
    174c:	a0500001 	subsge	r0, r0, r1
    1750:	a8000001 	stmdage	r0, {r0}
    1754:	04000001 	streq	r0, [r0], #-1
    1758:	7fa19100 	svcvc	0x00a19100
    175c:	0001a89f 	muleq	r1, pc, r8	; <UNPREDICTABLE>
    1760:	0001ac00 	andeq	sl, r1, r0, lsl #24
    1764:	50000100 	andpl	r0, r0, r0, lsl #2
    1768:	000001ac 	andeq	r0, r0, ip, lsr #3
    176c:	000001b0 			; <UNDEFINED> instruction: 0x000001b0
    1770:	a0910004 	addsge	r0, r1, r4
    1774:	01b09f7f 	rorseq	r9, pc, pc
    1778:	01b80000 			; <UNDEFINED> instruction: 0x01b80000
    177c:	00010000 	andeq	r0, r1, r0
    1780:	0001b853 	andeq	fp, r1, r3, asr r8
    1784:	0001d400 	andeq	sp, r1, r0, lsl #8
    1788:	50000100 	andpl	r0, r0, r0, lsl #2
    178c:	000001d4 	ldrdeq	r0, [r0], -r4
    1790:	000001f8 	strdeq	r0, [r0], -r8
    1794:	a0910004 	addsge	r0, r1, r4
    1798:	01f89f7f 	mvnseq	r9, pc, ror pc
    179c:	01ff0000 	mvnseq	r0, r0
    17a0:	00010000 	andeq	r0, r1, r0
    17a4:	00000050 	andeq	r0, r0, r0, asr r0
    17a8:	00000000 	andeq	r0, r0, r0
    17ac:	0000a000 	andeq	sl, r0, r0
    17b0:	0000ec00 	andeq	lr, r0, r0, lsl #24
    17b4:	5c000100 	stfpls	f0, [r0], {-0}
    17b8:	000000ec 	andeq	r0, r0, ip, ror #1
    17bc:	00000100 	andeq	r0, r0, r0, lsl #2
    17c0:	00530001 	subseq	r0, r3, r1
    17c4:	04000001 	streq	r0, [r0], #-1
    17c8:	01000001 	tsteq	r0, r1
    17cc:	01045c00 	tsteq	r4, r0, lsl #24
    17d0:	01080000 	mrseq	r0, (UNDEF: 8)
    17d4:	00010000 	andeq	r0, r1, r0
    17d8:	00010853 	andeq	r0, r1, r3, asr r8
    17dc:	00016000 	andeq	r6, r1, r0
    17e0:	5c000100 	stfpls	f0, [r0], {-0}
    17e4:	00000160 	andeq	r0, r0, r0, ror #2
    17e8:	00000164 	andeq	r0, r0, r4, ror #2
    17ec:	64530001 	ldrbvs	r0, [r3], #-1
    17f0:	80000001 	andhi	r0, r0, r1
    17f4:	01000001 	tsteq	r0, r1
    17f8:	01805c00 	orreq	r5, r0, r0, lsl #24
    17fc:	01840000 	orreq	r0, r4, r0
    1800:	00050000 	andeq	r0, r5, r0
    1804:	2534007c 	ldrcs	r0, [r4, #-124]!	; 0x7c
    1808:	0001849f 	muleq	r1, pc, r4	; <UNPREDICTABLE>
    180c:	0001a000 	andeq	sl, r1, r0
    1810:	5c000100 	stfpls	f0, [r0], {-0}
    1814:	000001a0 	andeq	r0, r0, r0, lsr #3
    1818:	000001b0 			; <UNDEFINED> instruction: 0x000001b0
    181c:	b0530001 	subslt	r0, r3, r1
    1820:	c4000001 	strgt	r0, [r0], #-1
    1824:	01000001 	tsteq	r0, r1
    1828:	01c45c00 	biceq	r5, r4, r0, lsl #24
    182c:	01cc0000 	biceq	r0, ip, r0
    1830:	00050000 	andeq	r0, r5, r0
    1834:	2531007c 	ldrcs	r0, [r1, #-124]!	; 0x7c
    1838:	0001cc9f 	muleq	r1, pc, ip	; <UNPREDICTABLE>
    183c:	0001d400 	andeq	sp, r1, r0, lsl #8
    1840:	5c000100 	stfpls	f0, [r0], {-0}
    1844:	000001d4 	ldrdeq	r0, [r0], -r4
    1848:	000001d7 	ldrdeq	r0, [r0], -r7
    184c:	d7530001 	ldrble	r0, [r3, -r1]
    1850:	f8000001 			; <UNDEFINED> instruction: 0xf8000001
    1854:	04000001 	streq	r0, [r0], #-1
    1858:	5301f300 	movwpl	pc, #4864	; 0x1300	; <UNPREDICTABLE>
    185c:	0001f89f 	muleq	r1, pc, r8	; <UNPREDICTABLE>
    1860:	0001ff00 	andeq	pc, r1, r0, lsl #30
    1864:	5c000100 	stfpls	f0, [r0], {-0}
	...
    1870:	000000ec 	andeq	r0, r0, ip, ror #1
    1874:	000000fc 	strdeq	r0, [r0], -ip
    1878:	9f300002 	svcls	0x00300002
    187c:	000000fc 	strdeq	r0, [r0], -ip
    1880:	00000104 	andeq	r0, r0, r4, lsl #2
    1884:	9f310002 	svcls	0x00310002
    1888:	00000104 	andeq	r0, r0, r4, lsl #2
    188c:	00000108 	andeq	r0, r0, r8, lsl #2
    1890:	9f300002 	svcls	0x00300002
	...
    189c:	0000023c 	andeq	r0, r0, ip, lsr r2
    18a0:	0000024f 	andeq	r0, r0, pc, asr #4
    18a4:	4f500001 	svcmi	0x00500001
    18a8:	70000002 	andvc	r0, r0, r2
    18ac:	04000002 	streq	r0, [r0], #-2
    18b0:	5001f300 	andpl	pc, r1, r0, lsl #6
    18b4:	0002709f 	muleq	r2, pc, r0	; <UNPREDICTABLE>
    18b8:	0002a400 	andeq	sl, r2, r0, lsl #8
    18bc:	50000100 	andpl	r0, r0, r0, lsl #2
	...
    18c8:	0000023c 	andeq	r0, r0, ip, lsr r2
    18cc:	0000024f 	andeq	r0, r0, pc, asr #4
    18d0:	4f510001 	svcmi	0x00510001
    18d4:	70000002 	andvc	r0, r0, r2
    18d8:	04000002 	streq	r0, [r0], #-2
    18dc:	5101f300 	mrspl	pc, SP_irq	; <UNPREDICTABLE>
    18e0:	0002709f 	muleq	r2, pc, r0	; <UNPREDICTABLE>
    18e4:	0002a400 	andeq	sl, r2, r0, lsl #8
    18e8:	51000100 	mrspl	r0, (UNDEF: 16)
	...
    18f4:	000002a4 	andeq	r0, r0, r4, lsr #5
    18f8:	000002d4 	ldrdeq	r0, [r0], -r4
    18fc:	d4500001 	ldrble	r0, [r0], #-1
    1900:	58000002 	stmdapl	r0, {r1}
    1904:	01000005 	tsteq	r0, r5
    1908:	05585b00 	ldrbeq	r5, [r8, #-2816]	; 0xb00
    190c:	05780000 	ldrbeq	r0, [r8, #-0]!
    1910:	00040000 	andeq	r0, r4, r0
    1914:	9f5001f3 	svcls	0x005001f3
	...
    1920:	000002a4 	andeq	r0, r0, r4, lsr #5
    1924:	000002bc 			; <UNDEFINED> instruction: 0x000002bc
    1928:	bc510001 	mrrclt	0, 0, r0, r1, cr1
    192c:	d4000002 	strle	r0, [r0], #-2
    1930:	03000002 	movweq	r0, #2
    1934:	9f017100 	svcls	0x00017100
    1938:	000002d4 	ldrdeq	r0, [r0], -r4
    193c:	00000578 	andeq	r0, r0, r8, ror r5
    1940:	01f30004 	mvnseq	r0, r4
    1944:	00009f51 	andeq	r9, r0, r1, asr pc
    1948:	00000000 	andeq	r0, r0, r0
    194c:	02a40000 	adceq	r0, r4, #0
    1950:	02d40000 	sbcseq	r0, r4, #0
    1954:	00010000 	andeq	r0, r1, r0
    1958:	0002d452 	andeq	sp, r2, r2, asr r4
    195c:	00055800 	andeq	r5, r5, r0, lsl #16
    1960:	56000100 	strpl	r0, [r0], -r0, lsl #2
	...
    196c:	000002a4 	andeq	r0, r0, r4, lsr #5
    1970:	000002c4 	andeq	r0, r0, r4, asr #5
    1974:	00530001 	subseq	r0, r3, r1
    1978:	00000000 	andeq	r0, r0, r0
    197c:	b8000000 	stmdalt	r0, {}	; <UNPREDICTABLE>
    1980:	d4000002 	strle	r0, [r0], #-2
    1984:	01000002 	tsteq	r0, r2
    1988:	02d45000 	sbcseq	r5, r4, #0
    198c:	02d80000 	sbcseq	r0, r8, #0
    1990:	00010000 	andeq	r0, r1, r0
    1994:	0002d854 	andeq	sp, r2, r4, asr r8
    1998:	0002e400 	andeq	lr, r2, r0, lsl #8
    199c:	74000300 	strvc	r0, [r0], #-768	; 0x300
    19a0:	02e49f01 	rsceq	r9, r4, #1, 30
    19a4:	02f00000 	rscseq	r0, r0, #0
    19a8:	00010000 	andeq	r0, r1, r0
    19ac:	0002f054 	andeq	pc, r2, r4, asr r0	; <UNPREDICTABLE>
    19b0:	0002fc00 	andeq	pc, r2, r0, lsl #24
    19b4:	74000300 	strvc	r0, [r0], #-768	; 0x300
    19b8:	02fc9f01 	rscseq	r9, ip, #1, 30
    19bc:	050c0000 	streq	r0, [ip, #-0]
    19c0:	00010000 	andeq	r0, r1, r0
    19c4:	00050c54 	andeq	r0, r5, r4, asr ip
    19c8:	00051800 	andeq	r1, r5, r0, lsl #16
    19cc:	74000300 	strvc	r0, [r0], #-768	; 0x300
    19d0:	05189f01 	ldreq	r9, [r8, #-3841]	; 0xf01
    19d4:	05440000 	strbeq	r0, [r4, #-0]
    19d8:	00010000 	andeq	r0, r1, r0
    19dc:	00054454 	andeq	r4, r5, r4, asr r4
    19e0:	00055000 	andeq	r5, r5, r0
    19e4:	50000100 	andpl	r0, r0, r0, lsl #2
    19e8:	00000550 	andeq	r0, r0, r0, asr r5
    19ec:	00000558 	andeq	r0, r0, r8, asr r5
    19f0:	01740003 	cmneq	r4, r3
    19f4:	0000009f 	muleq	r0, pc, r0	; <UNPREDICTABLE>
    19f8:	00000000 	andeq	r0, r0, r0
    19fc:	0002c000 	andeq	ip, r2, r0
    1a00:	00055800 	andeq	r5, r5, r0, lsl #16
    1a04:	58000100 	stmdapl	r0, {r8}
    1a08:	00000558 	andeq	r0, r0, r8, asr r5
    1a0c:	00000578 	andeq	r0, r0, r8, ror r5
    1a10:	01f3000a 	mvnseq	r0, sl
    1a14:	5001f351 	andpl	pc, r1, r1, asr r3	; <UNPREDICTABLE>
    1a18:	9f1c3122 	svcls	0x001c3122
	...
    1a24:	000002c8 	andeq	r0, r0, r8, asr #5
    1a28:	000002d4 	ldrdeq	r0, [r0], -r4
    1a2c:	d4520001 	ldrble	r0, [r2], #-1
    1a30:	78000002 	stmdavc	r0, {r1}
    1a34:	03000005 	movweq	r0, #5
    1a38:	7ecc9100 	acsvce	f1, f0
	...
    1a44:	00000410 	andeq	r0, r0, r0, lsl r4
    1a48:	00000414 	andeq	r0, r0, r4, lsl r4
    1a4c:	38500001 	ldmdacc	r0, {r0}^
    1a50:	3c000004 	stccc	0, cr0, [r0], {4}
    1a54:	01000004 	tsteq	r0, r4
    1a58:	04605000 	strbteq	r5, [r0], #-0
    1a5c:	04640000 	strbteq	r0, [r4], #-0
    1a60:	00010000 	andeq	r0, r1, r0
    1a64:	00048850 	andeq	r8, r4, r0, asr r8
    1a68:	00048c00 	andeq	r8, r4, r0, lsl #24
    1a6c:	50000100 	andpl	r0, r0, r0, lsl #2
    1a70:	00000494 	muleq	r0, r4, r4
    1a74:	00000498 	muleq	r0, r8, r4
    1a78:	bc500001 	mrrclt	0, 0, r0, r0, cr1	; <UNPREDICTABLE>
    1a7c:	c0000004 	andgt	r0, r0, r4
    1a80:	01000004 	tsteq	r0, r4
    1a84:	05045000 	streq	r5, [r4, #-0]
    1a88:	052c0000 	streq	r0, [ip, #-0]!
    1a8c:	00010000 	andeq	r0, r1, r0
    1a90:	00000050 	andeq	r0, r0, r0, asr r0
    1a94:	00000000 	andeq	r0, r0, r0
    1a98:	00030400 	andeq	r0, r3, r0, lsl #8
    1a9c:	00030c00 	andeq	r0, r3, r0, lsl #24
    1aa0:	30000200 	andcc	r0, r0, r0, lsl #4
    1aa4:	00030c9f 	muleq	r3, pc, ip	; <UNPREDICTABLE>
    1aa8:	00031000 	andeq	r1, r3, r0
    1aac:	57000100 	strpl	r0, [r0, -r0, lsl #2]
    1ab0:	0000031c 	andeq	r0, r0, ip, lsl r3
    1ab4:	0000052c 	andeq	r0, r0, ip, lsr #10
    1ab8:	00570001 	subseq	r0, r7, r1
    1abc:	00000000 	andeq	r0, r0, r0
    1ac0:	14000000 	strne	r0, [r0], #-0
    1ac4:	1c000000 	stcne	0, cr0, [r0], {-0}
    1ac8:	03000000 	movweq	r0, #0
    1acc:	9f047300 	svcls	0x00047300
    1ad0:	0000001c 	andeq	r0, r0, ip, lsl r0
    1ad4:	00000027 	andeq	r0, r0, r7, lsr #32
    1ad8:	00530001 	subseq	r0, r3, r1
	...
    1ae4:	0f000000 	svceq	0x00000000
    1ae8:	01000000 	mrseq	r0, (UNDEF: 0)
    1aec:	000f5000 	andeq	r5, pc, r0
    1af0:	00440000 	subeq	r0, r4, r0
    1af4:	00010000 	andeq	r0, r1, r0
    1af8:	00000054 	andeq	r0, r0, r4, asr r0
	...
    1b04:	00000f00 	andeq	r0, r0, r0, lsl #30
    1b08:	50000100 	andpl	r0, r0, r0, lsl #2
    1b0c:	0000000f 	andeq	r0, r0, pc
    1b10:	00000044 	andeq	r0, r0, r4, asr #32
    1b14:	00540001 	subseq	r0, r4, r1
	...
    1b20:	0f000000 	svceq	0x00000000
    1b24:	01000000 	mrseq	r0, (UNDEF: 0)
    1b28:	000f5000 	andeq	r5, pc, r0
    1b2c:	00440000 	subeq	r0, r4, r0
    1b30:	00010000 	andeq	r0, r1, r0
    1b34:	00000054 	andeq	r0, r0, r4, asr r0
	...
    1b40:	00000f00 	andeq	r0, r0, r0, lsl #30
    1b44:	50000100 	andpl	r0, r0, r0, lsl #2
    1b48:	0000000f 	andeq	r0, r0, pc
    1b4c:	00000044 	andeq	r0, r0, r4, asr #32
    1b50:	00540001 	subseq	r0, r4, r1
    1b54:	00000000 	andeq	r0, r0, r0
    1b58:	34000000 	strcc	r0, [r0], #-0
    1b5c:	40000000 	andmi	r0, r0, r0
    1b60:	02000000 	andeq	r0, r0, #0
    1b64:	409f3000 	addsmi	r3, pc, r0
    1b68:	6c000000 	stcvs	0, cr0, [r0], {-0}
    1b6c:	01000000 	mrseq	r0, (UNDEF: 0)
    1b70:	00005300 	andeq	r5, r0, r0, lsl #6
    1b74:	00000000 	andeq	r0, r0, r0
    1b78:	a8380000 	ldmdage	r8!, {}	; <UNPREDICTABLE>
    1b7c:	a83c0000 	ldmdage	ip!, {}	; <UNPREDICTABLE>
    1b80:	00020000 	andeq	r0, r2, r0
    1b84:	a83c9f30 	ldmdage	ip!, {r4, r5, r8, r9, sl, fp, ip, pc}
    1b88:	a8400000 	stmdage	r0, {}^	; <UNPREDICTABLE>
    1b8c:	00010000 	andeq	r0, r1, r0
    1b90:	00000050 	andeq	r0, r0, r0, asr r0
    1b94:	00000000 	andeq	r0, r0, r0
    1b98:	00a85000 	adceq	r5, r8, r0
    1b9c:	00a85400 	adceq	r5, r8, r0, lsl #8
    1ba0:	30000200 	andcc	r0, r0, r0, lsl #4
    1ba4:	00a8549f 	umlaleq	r5, r8, pc, r4	; <UNPREDICTABLE>
    1ba8:	00a85800 	adceq	r5, r8, r0, lsl #16
    1bac:	53000100 	movwpl	r0, #256	; 0x100
    1bb0:	0000a85c 	andeq	sl, r0, ip, asr r8
    1bb4:	0000a864 	andeq	sl, r0, r4, ror #16
    1bb8:	00530001 	subseq	r0, r3, r1
	...
    1bc4:	04000000 	streq	r0, [r0], #-0
    1bc8:	01000000 	mrseq	r0, (UNDEF: 0)
    1bcc:	00045000 	andeq	r5, r4, r0
    1bd0:	000c0000 	andeq	r0, ip, r0
    1bd4:	00010000 	andeq	r0, r1, r0
    1bd8:	00000c53 	andeq	r0, r0, r3, asr ip
    1bdc:	00001000 	andeq	r1, r0, r0
    1be0:	50000100 	andpl	r0, r0, r0, lsl #2
    1be4:	00000010 	andeq	r0, r0, r0, lsl r0
    1be8:	0000001c 	andeq	r0, r0, ip, lsl r0
    1bec:	00530001 	subseq	r0, r3, r1
    1bf0:	00000000 	andeq	r0, r0, r0
    1bf4:	40000000 	andmi	r0, r0, r0
    1bf8:	43000000 	movwmi	r0, #0
    1bfc:	01000000 	mrseq	r0, (UNDEF: 0)
    1c00:	00435000 	subeq	r5, r3, r0
    1c04:	004c0000 	subeq	r0, ip, r0
    1c08:	00010000 	andeq	r0, r1, r0
    1c0c:	00000054 	andeq	r0, r0, r4, asr r0
    1c10:	00000000 	andeq	r0, r0, r0
    1c14:	00004c00 	andeq	r4, r0, r0, lsl #24
    1c18:	00005700 	andeq	r5, r0, r0, lsl #14
    1c1c:	50000100 	andpl	r0, r0, r0, lsl #2
    1c20:	00000057 	andeq	r0, r0, r7, asr r0
    1c24:	00000070 	andeq	r0, r0, r0, ror r0
    1c28:	00550001 	subseq	r0, r5, r1
    1c2c:	00000000 	andeq	r0, r0, r0
    1c30:	60000000 	andvs	r0, r0, r0
    1c34:	64000000 	strvs	r0, [r0], #-0
    1c38:	01000000 	mrseq	r0, (UNDEF: 0)
    1c3c:	00005000 	andeq	r5, r0, r0
    1c40:	00000000 	andeq	r0, r0, r0
    1c44:	00700000 	rsbseq	r0, r0, r0
    1c48:	007c0000 	rsbseq	r0, ip, r0
    1c4c:	00010000 	andeq	r0, r1, r0
    1c50:	00007c50 	andeq	r7, r0, r0, asr ip
    1c54:	00008400 	andeq	r8, r0, r0, lsl #8
    1c58:	f3000400 	vshl.u8	d0, d0, d0
    1c5c:	009f5001 	addseq	r5, pc, r1
    1c60:	00000000 	andeq	r0, r0, r0
    1c64:	84000000 	strhi	r0, [r0], #-0
    1c68:	90000000 	andls	r0, r0, r0
    1c6c:	01000000 	mrseq	r0, (UNDEF: 0)
    1c70:	00905000 	addseq	r5, r0, r0
    1c74:	00980000 	addseq	r0, r8, r0
    1c78:	00040000 	andeq	r0, r4, r0
    1c7c:	9f5001f3 	svcls	0x005001f3
	...
    1c88:	00000138 	andeq	r0, r0, r8, lsr r1
    1c8c:	00000143 	andeq	r0, r0, r3, asr #2
    1c90:	43500001 	cmpmi	r0, #1
    1c94:	68000001 	stmdavs	r0, {r0}
    1c98:	01000001 	tsteq	r0, r1
    1c9c:	00005400 	andeq	r5, r0, r0, lsl #8
	...
    1ca8:	000f0000 	andeq	r0, pc, r0
    1cac:	00010000 	andeq	r0, r1, r0
    1cb0:	00000f50 	andeq	r0, r0, r0, asr pc
    1cb4:	00002000 	andeq	r2, r0, r0
    1cb8:	54000100 	strpl	r0, [r0], #-256	; 0x100
	...
    1cc8:	0000000f 	andeq	r0, r0, pc
    1ccc:	0f510001 	svceq	0x00510001
    1cd0:	20000000 	andcs	r0, r0, r0
    1cd4:	01000000 	mrseq	r0, (UNDEF: 0)
    1cd8:	00005500 	andeq	r5, r0, r0, lsl #10
    1cdc:	00000000 	andeq	r0, r0, r0
    1ce0:	00ec0000 	rsceq	r0, ip, r0
    1ce4:	01040000 	mrseq	r0, (UNDEF: 4)
    1ce8:	00010000 	andeq	r0, r1, r0
    1cec:	00010450 	andeq	r0, r1, r0, asr r4
    1cf0:	00011400 	andeq	r1, r1, r0, lsl #8
    1cf4:	f3000400 	vshl.u8	d0, d0, d0
    1cf8:	149f5001 	ldrne	r5, [pc], #1	; 1d00 <__code_start__-0x6300>
    1cfc:	18000001 	stmdane	r0, {r0}
    1d00:	01000001 	tsteq	r0, r1
    1d04:	01185000 	tsteq	r8, r0
    1d08:	01200000 	teqeq	r0, r0
    1d0c:	00040000 	andeq	r0, r4, r0
    1d10:	9f5001f3 	svcls	0x005001f3
	...
    1d1c:	000000f8 	strdeq	r0, [r0], -r8
    1d20:	00000104 	andeq	r0, r0, r4, lsl #2
    1d24:	0070000b 	rsbseq	r0, r0, fp
    1d28:	b4232535 	strtlt	r2, [r3], #-1333	; 0x535
    1d2c:	02818080 	addeq	r8, r1, #128	; 0x80
    1d30:	0001049f 	muleq	r1, pc, r4	; <UNPREDICTABLE>
    1d34:	00010700 	andeq	r0, r1, r0, lsl #14
    1d38:	50000100 	andpl	r0, r0, r0, lsl #2
    1d3c:	00000107 	andeq	r0, r0, r7, lsl #2
    1d40:	00000114 	andeq	r0, r0, r4, lsl r1
    1d44:	01f3000c 	mvnseq	r0, ip
    1d48:	23253550 	teqcs	r5, #80, 10	; 0x14000000
    1d4c:	818080b4 	strhhi	r8, [r0, r4]
    1d50:	00009f02 	andeq	r9, r0, r2, lsl #30
    1d54:	00000000 	andeq	r0, r0, r0
    1d58:	00fc0000 	rscseq	r0, ip, r0
    1d5c:	01140000 	tsteq	r4, r0
    1d60:	00010000 	andeq	r0, r1, r0
    1d64:	00000054 	andeq	r0, r0, r4, asr r0
    1d68:	00000000 	andeq	r0, r0, r0
    1d6c:	0000d000 	andeq	sp, r0, r0
    1d70:	0000df00 	andeq	sp, r0, r0, lsl #30
    1d74:	50000100 	andpl	r0, r0, r0, lsl #2
    1d78:	000000df 	ldrdeq	r0, [r0], -pc	; <UNPREDICTABLE>
    1d7c:	000000e4 	andeq	r0, r0, r4, ror #1
    1d80:	01f30004 	mvnseq	r0, r4
    1d84:	00e49f50 	rsceq	r9, r4, r0, asr pc
    1d88:	00e70000 	rsceq	r0, r7, r0
    1d8c:	00010000 	andeq	r0, r1, r0
    1d90:	0000e750 	andeq	lr, r0, r0, asr r7
    1d94:	0000ec00 	andeq	lr, r0, r0, lsl #24
    1d98:	f3000400 	vshl.u8	d0, d0, d0
    1d9c:	009f5001 	addseq	r5, pc, r1
    1da0:	00000000 	andeq	r0, r0, r0
    1da4:	d0000000 	andle	r0, r0, r0
    1da8:	df000000 	svcle	0x00000000
    1dac:	01000000 	mrseq	r0, (UNDEF: 0)
    1db0:	00df5100 	sbcseq	r5, pc, r0, lsl #2
    1db4:	00e40000 	rsceq	r0, r4, r0
    1db8:	00040000 	andeq	r0, r4, r0
    1dbc:	9f5101f3 	svcls	0x005101f3
    1dc0:	000000e4 	andeq	r0, r0, r4, ror #1
    1dc4:	000000e7 	andeq	r0, r0, r7, ror #1
    1dc8:	e7510001 	ldrb	r0, [r1, -r1]
    1dcc:	ec000000 	stc	0, cr0, [r0], {-0}
    1dd0:	04000000 	streq	r0, [r0], #-0
    1dd4:	5101f300 	mrspl	pc, SP_irq	; <UNPREDICTABLE>
    1dd8:	0000009f 	muleq	r0, pc, r0	; <UNPREDICTABLE>
    1ddc:	00000000 	andeq	r0, r0, r0
    1de0:	0000c000 	andeq	ip, r0, r0
    1de4:	0000cb00 	andeq	ip, r0, r0, lsl #22
    1de8:	50000100 	andpl	r0, r0, r0, lsl #2
    1dec:	000000cb 	andeq	r0, r0, fp, asr #1
    1df0:	000000d0 	ldrdeq	r0, [r0], -r0	; <UNPREDICTABLE>
    1df4:	01f30004 	mvnseq	r0, r4
    1df8:	00009f50 	andeq	r9, r0, r0, asr pc
    1dfc:	00000000 	andeq	r0, r0, r0
    1e00:	009c0000 	addseq	r0, ip, r0
    1e04:	00b40000 	adcseq	r0, r4, r0
    1e08:	00010000 	andeq	r0, r1, r0
    1e0c:	0000b450 	andeq	fp, r0, r0, asr r4
    1e10:	0000c000 	andeq	ip, r0, r0
    1e14:	f3000400 	vshl.u8	d0, d0, d0
    1e18:	009f5001 	addseq	r5, pc, r1
    1e1c:	00000000 	andeq	r0, r0, r0
    1e20:	78000000 	stmdavc	r0, {}	; <UNPREDICTABLE>
    1e24:	90000000 	andls	r0, r0, r0
    1e28:	01000000 	mrseq	r0, (UNDEF: 0)
    1e2c:	00905000 	addseq	r5, r0, r0
    1e30:	009c0000 	addseq	r0, ip, r0
    1e34:	00040000 	andeq	r0, r4, r0
    1e38:	9f5001f3 	svcls	0x005001f3
	...
    1e44:	00000068 	andeq	r0, r0, r8, rrx
    1e48:	00000073 	andeq	r0, r0, r3, ror r0
    1e4c:	73500001 	cmpvc	r0, #1
    1e50:	78000000 	stmdavc	r0, {}	; <UNPREDICTABLE>
    1e54:	04000000 	streq	r0, [r0], #-0
    1e58:	5001f300 	andpl	pc, r1, r0, lsl #6
    1e5c:	0000009f 	muleq	r0, pc, r0	; <UNPREDICTABLE>
	...
    1e68:	00004800 	andeq	r4, r0, r0, lsl #16
    1e6c:	50000100 	andpl	r0, r0, r0, lsl #2
    1e70:	00000048 	andeq	r0, r0, r8, asr #32
    1e74:	00000068 	andeq	r0, r0, r8, rrx
    1e78:	01f30004 	mvnseq	r0, r4
    1e7c:	00009f50 	andeq	r9, r0, r0, asr pc
	...
    1e88:	004b0000 	subeq	r0, fp, r0
    1e8c:	00010000 	andeq	r0, r1, r0
    1e90:	00004b51 	andeq	r4, r0, r1, asr fp
    1e94:	00006800 	andeq	r6, r0, r0, lsl #16
    1e98:	f3000400 	vshl.u8	d0, d0, d0
    1e9c:	009f5101 	addseq	r5, pc, r1, lsl #2
    1ea0:	00000000 	andeq	r0, r0, r0
    1ea4:	4c000000 	stcmi	0, cr0, [r0], {-0}
    1ea8:	54000000 	strpl	r0, [r0], #-0
    1eac:	01000000 	mrseq	r0, (UNDEF: 0)
    1eb0:	00545000 	subseq	r5, r4, r0
    1eb4:	00580000 	subseq	r0, r8, r0
    1eb8:	00090000 	andeq	r0, r9, r0
    1ebc:	00740075 	rsbseq	r0, r4, r5, ror r0
    1ec0:	21007124 	tstcs	r0, r4, lsr #2
    1ec4:	0000589f 	muleq	r0, pc, r8	; <UNPREDICTABLE>
    1ec8:	00005f00 	andeq	r5, r0, r0, lsl #30
    1ecc:	51000100 	mrspl	r0, (UNDEF: 16)
	...
    1ed8:	000000e0 	andeq	r0, r0, r0, ror #1
    1edc:	0000011b 	andeq	r0, r0, fp, lsl r1
    1ee0:	1b500001 	blne	1401eec <__bss_end__+0x13f5cfc>
    1ee4:	20000001 	andcs	r0, r0, r1
    1ee8:	04000001 	streq	r0, [r0], #-1
    1eec:	5001f300 	andpl	pc, r1, r0, lsl #6
    1ef0:	0001209f 	muleq	r1, pc, r0	; <UNPREDICTABLE>
    1ef4:	00012300 	andeq	r2, r1, r0, lsl #6
    1ef8:	50000100 	andpl	r0, r0, r0, lsl #2
    1efc:	00000123 	andeq	r0, r0, r3, lsr #2
    1f00:	0000013c 	andeq	r0, r0, ip, lsr r1
    1f04:	01f30004 	mvnseq	r0, r4
    1f08:	013c9f50 	teqeq	ip, r0, asr pc
    1f0c:	013f0000 	teqeq	pc, r0
    1f10:	00010000 	andeq	r0, r1, r0
    1f14:	00013f50 	andeq	r3, r1, r0, asr pc
    1f18:	00016c00 	andeq	r6, r1, r0, lsl #24
    1f1c:	f3000400 	vshl.u8	d0, d0, d0
    1f20:	009f5001 	addseq	r5, pc, r1
    1f24:	00000000 	andeq	r0, r0, r0
    1f28:	e0000000 	and	r0, r0, r0
    1f2c:	08000000 	stmdaeq	r0, {}	; <UNPREDICTABLE>
    1f30:	01000001 	tsteq	r0, r1
    1f34:	01085100 	mrseq	r5, (UNDEF: 24)
    1f38:	011b0000 	tsteq	fp, r0
    1f3c:	00030000 	andeq	r0, r3, r0
    1f40:	1b9f0171 	blne	fe7c250c <__bss_end__+0xfe7b631c>
    1f44:	20000001 	andcs	r0, r0, r1
    1f48:	04000001 	streq	r0, [r0], #-1
    1f4c:	5101f300 	mrspl	pc, SP_irq	; <UNPREDICTABLE>
    1f50:	0001209f 	muleq	r1, pc, r0	; <UNPREDICTABLE>
    1f54:	00012300 	andeq	r2, r1, r0, lsl #6
    1f58:	51000100 	mrspl	r0, (UNDEF: 16)
    1f5c:	00000123 	andeq	r0, r0, r3, lsr #2
    1f60:	0000016c 	andeq	r0, r0, ip, ror #2
    1f64:	01f30004 	mvnseq	r0, r4
    1f68:	00009f51 	andeq	r9, r0, r1, asr pc
    1f6c:	00000000 	andeq	r0, r0, r0
    1f70:	00f80000 	rscseq	r0, r8, r0
    1f74:	00fc0000 	rscseq	r0, ip, r0
    1f78:	00010000 	andeq	r0, r1, r0
    1f7c:	0000fc52 	andeq	pc, r0, r2, asr ip	; <UNPREDICTABLE>
    1f80:	00010400 	andeq	r0, r1, r0, lsl #8
    1f84:	03000500 	movweq	r0, #1280	; 0x500
    1f88:	0000ade0 	andeq	sl, r0, r0, ror #27
    1f8c:	00000104 	andeq	r0, r0, r4, lsl #2
    1f90:	0000011b 	andeq	r0, r0, fp, lsl r1
    1f94:	3c530001 	mrrccc	0, 0, r0, r3, cr1
    1f98:	3f000001 	svccc	0x00000001
    1f9c:	01000001 	tsteq	r0, r1
    1fa0:	00005300 	andeq	r5, r0, r0, lsl #6
    1fa4:	00000000 	andeq	r0, r0, r0
    1fa8:	006c0000 	rsbeq	r0, ip, r0
    1fac:	00800000 	addeq	r0, r0, r0
    1fb0:	00010000 	andeq	r0, r1, r0
    1fb4:	00008050 	andeq	r8, r0, r0, asr r0
    1fb8:	00009b00 	andeq	r9, r0, r0, lsl #22
    1fbc:	52000100 	andpl	r0, r0, #0, 2
    1fc0:	0000009b 	muleq	r0, fp, r0
    1fc4:	000000a4 	andeq	r0, r0, r4, lsr #1
    1fc8:	01f30009 	mvnseq	r0, r9
    1fcc:	09072350 	stmdbeq	r7, {r4, r6, r8, r9, sp}
    1fd0:	a49f1af8 	ldrge	r1, [pc], #2808	; 1fd8 <__code_start__-0x6028>
    1fd4:	a7000000 	strge	r0, [r0, -r0]
    1fd8:	01000000 	mrseq	r0, (UNDEF: 0)
    1fdc:	00a75000 	adceq	r5, r7, r0
    1fe0:	00d00000 	sbcseq	r0, r0, r0
    1fe4:	00040000 	andeq	r0, r4, r0
    1fe8:	9f5001f3 	svcls	0x005001f3
	...
    1ff4:	00000088 	andeq	r0, r0, r8, lsl #1
    1ff8:	000000a4 	andeq	r0, r0, r4, lsr #1
    1ffc:	00540001 	subseq	r0, r4, r1
    2000:	00000000 	andeq	r0, r0, r0
    2004:	1c000000 	stcne	0, cr0, [r0], {-0}
    2008:	43000000 	movwmi	r0, #0
    200c:	01000000 	mrseq	r0, (UNDEF: 0)
    2010:	00435000 	subeq	r5, r3, r0
    2014:	006c0000 	rsbeq	r0, ip, r0
    2018:	00040000 	andeq	r0, r4, r0
    201c:	9f5001f3 	svcls	0x005001f3
	...
    2028:	0000001c 	andeq	r0, r0, ip, lsl r0
    202c:	00000043 	andeq	r0, r0, r3, asr #32
    2030:	43500001 	cmpmi	r0, #1
    2034:	6c000000 	stcvs	0, cr0, [r0], {-0}
    2038:	04000000 	streq	r0, [r0], #-0
    203c:	5001f300 	andpl	pc, r1, r0, lsl #6
    2040:	0000009f 	muleq	r0, pc, r0	; <UNPREDICTABLE>
    2044:	00000000 	andeq	r0, r0, r0
	...

Disassembly of section .debug_aranges:

00000000 <.debug_aranges>:
   0:	0000001c 	andeq	r0, r0, ip, lsl r0
   4:	00000002 	andeq	r0, r0, r2
   8:	00040000 	andeq	r0, r4, r0
   c:	00000000 	andeq	r0, r0, r0
  10:	00008020 	andeq	r8, r0, r0, lsr #32
  14:	00000194 	muleq	r0, r4, r1
	...
  20:	0000001c 	andeq	r0, r0, ip, lsl r0
  24:	03d50002 	bicseq	r0, r5, #2
  28:	00040000 	andeq	r0, r4, r0
  2c:	00000000 	andeq	r0, r0, r0
  30:	000082f8 	strdeq	r8, [r0], -r8	; <UNPREDICTABLE>
  34:	000008dc 	ldrdeq	r0, [r0], -ip
	...
  40:	0000001c 	andeq	r0, r0, ip, lsl r0
  44:	19270002 	stmdbne	r7!, {r1}
  48:	00040000 	andeq	r0, r4, r0
  4c:	00000000 	andeq	r0, r0, r0
  50:	00008bd4 	ldrdeq	r8, [r0], -r4
  54:	00000914 	andeq	r0, r0, r4, lsl r9
	...
  60:	0000001c 	andeq	r0, r0, ip, lsl r0
  64:	2ac90002 	bcs	ff240074 <__bss_end__+0xff233e84>
  68:	00040000 	andeq	r0, r4, r0
  6c:	00000000 	andeq	r0, r0, r0
  70:	000094e8 	andeq	r9, r0, r8, ror #9
  74:	00000684 	andeq	r0, r0, r4, lsl #13
	...
  80:	0000001c 	andeq	r0, r0, ip, lsl r0
  84:	3b3b0002 	blcc	ec0094 <__bss_end__+0xeb3ea4>
  88:	00040000 	andeq	r0, r4, r0
  8c:	00000000 	andeq	r0, r0, r0
  90:	00009f00 	andeq	r9, r0, r0, lsl #30
  94:	000000f0 	strdeq	r0, [r0], -r0	; <UNPREDICTABLE>
	...
  a0:	0000001c 	andeq	r0, r0, ip, lsl r0
  a4:	3c510002 	mrrccc	0, 0, r0, r1, cr2
  a8:	00040000 	andeq	r0, r4, r0
  ac:	00000000 	andeq	r0, r0, r0
  b0:	00009ff0 	strdeq	r9, [r0], -r0
  b4:	00000020 	andeq	r0, r0, r0, lsr #32
	...
  c0:	0000001c 	andeq	r0, r0, ip, lsl r0
  c4:	3d300002 	ldccc	0, cr0, [r0, #-8]!
  c8:	00040000 	andeq	r0, r4, r0
  cc:	00000000 	andeq	r0, r0, r0
  d0:	0000a010 	andeq	sl, r0, r0, lsl r0
  d4:	00000058 	andeq	r0, r0, r8, asr r0
	...
  e0:	0000001c 	andeq	r0, r0, ip, lsl r0
  e4:	3ec50002 	cdpcc	0, 12, cr0, cr5, cr2, {0}
  e8:	00040000 	andeq	r0, r4, r0
  ec:	00000000 	andeq	r0, r0, r0
  f0:	0000a068 	andeq	sl, r0, r8, rrx
  f4:	0000003c 	andeq	r0, r0, ip, lsr r0
	...
 100:	0000001c 	andeq	r0, r0, ip, lsl r0
 104:	3fdc0002 	svccc	0x00dc0002
 108:	00040000 	andeq	r0, r4, r0
 10c:	00000000 	andeq	r0, r0, r0
 110:	0000a0a4 	andeq	sl, r0, r4, lsr #1
 114:	00000034 	andeq	r0, r0, r4, lsr r0
	...
 120:	0000001c 	andeq	r0, r0, ip, lsl r0
 124:	40ce0002 	sbcmi	r0, lr, r2
 128:	00040000 	andeq	r0, r4, r0
 12c:	00000000 	andeq	r0, r0, r0
 130:	0000a0d8 	ldrdeq	sl, [r0], -r8
 134:	00000578 	andeq	r0, r0, r8, ror r5
	...
 140:	0000001c 	andeq	r0, r0, ip, lsl r0
 144:	47b70002 	ldrmi	r0, [r7, r2]!
 148:	00040000 	andeq	r0, r4, r0
 14c:	00000000 	andeq	r0, r0, r0
 150:	0000a650 	andeq	sl, r0, r0, asr r6
 154:	0000002c 	andeq	r0, r0, ip, lsr #32
	...
 160:	0000001c 	andeq	r0, r0, ip, lsl r0
 164:	48ca0002 	stmiami	sl, {r1}^
 168:	00040000 	andeq	r0, r4, r0
 16c:	00000000 	andeq	r0, r0, r0
 170:	0000a67c 	andeq	sl, r0, ip, ror r6
 174:	00000038 	andeq	r0, r0, r8, lsr r0
	...
 180:	0000001c 	andeq	r0, r0, ip, lsl r0
 184:	49dd0002 	ldmibmi	sp, {r1}^
 188:	00040000 	andeq	r0, r4, r0
 18c:	00000000 	andeq	r0, r0, r0
 190:	0000a6b4 			; <UNDEFINED> instruction: 0x0000a6b4
 194:	00000044 	andeq	r0, r0, r4, asr #32
	...
 1a0:	0000001c 	andeq	r0, r0, ip, lsl r0
 1a4:	4b1f0002 	blmi	7c01b4 <__bss_end__+0x7b3fc4>
 1a8:	00040000 	andeq	r0, r4, r0
 1ac:	00000000 	andeq	r0, r0, r0
 1b0:	0000a6f8 	strdeq	sl, [r0], -r8
 1b4:	00000044 	andeq	r0, r0, r4, asr #32
	...
 1c0:	0000001c 	andeq	r0, r0, ip, lsl r0
 1c4:	4c610002 	stclmi	0, cr0, [r1], #-8
 1c8:	00040000 	andeq	r0, r4, r0
 1cc:	00000000 	andeq	r0, r0, r0
 1d0:	0000a73c 	andeq	sl, r0, ip, lsr r7
 1d4:	00000044 	andeq	r0, r0, r4, asr #32
	...
 1e0:	0000001c 	andeq	r0, r0, ip, lsl r0
 1e4:	4da30002 	stcmi	0, cr0, [r3, #8]!
 1e8:	00040000 	andeq	r0, r4, r0
 1ec:	00000000 	andeq	r0, r0, r0
 1f0:	0000a780 	andeq	sl, r0, r0, lsl #15
 1f4:	00000044 	andeq	r0, r0, r4, asr #32
	...
 200:	0000001c 	andeq	r0, r0, ip, lsl r0
 204:	4ee50002 	cdpmi	0, 14, cr0, cr5, cr2, {0}
 208:	00040000 	andeq	r0, r4, r0
 20c:	00000000 	andeq	r0, r0, r0
 210:	0000a7c4 	andeq	sl, r0, r4, asr #15
 214:	00000008 	andeq	r0, r0, r8
	...
 220:	0000001c 	andeq	r0, r0, ip, lsl r0
 224:	4f810002 	svcmi	0x00810002
 228:	00040000 	andeq	r0, r4, r0
 22c:	00000000 	andeq	r0, r0, r0
 230:	0000a7cc 	andeq	sl, r0, ip, asr #15
 234:	0000006c 	andeq	r0, r0, ip, rrx
	...
 240:	0000001c 	andeq	r0, r0, ip, lsl r0
 244:	515c0002 	cmppl	ip, r2
 248:	00040000 	andeq	r0, r4, r0
 24c:	00000000 	andeq	r0, r0, r0
 250:	0000a838 	andeq	sl, r0, r8, lsr r8
 254:	00000074 	andeq	r0, r0, r4, ror r0
	...
 260:	0000001c 	andeq	r0, r0, ip, lsl r0
 264:	530d0002 	movwpl	r0, #53250	; 0xd002
 268:	00040000 	andeq	r0, r4, r0
 26c:	00000000 	andeq	r0, r0, r0
 270:	0000a8ac 	andeq	sl, r0, ip, lsr #17
 274:	00000098 	muleq	r0, r8, r0
	...
 280:	0000001c 	andeq	r0, r0, ip, lsl r0
 284:	55080002 	strpl	r0, [r8, #-2]
 288:	00040000 	andeq	r0, r4, r0
 28c:	00000000 	andeq	r0, r0, r0
 290:	0000a9a8 	andeq	sl, r0, r8, lsr #19
 294:	00000178 	andeq	r0, r0, r8, ror r1
	...
 2a0:	0000001c 	andeq	r0, r0, ip, lsl r0
 2a4:	61d10002 	bicsvs	r0, r1, r2
 2a8:	00040000 	andeq	r0, r4, r0
 2ac:	00000000 	andeq	r0, r0, r0
 2b0:	0000ab20 	andeq	sl, r0, r0, lsr #22
 2b4:	00000120 	andeq	r0, r0, r0, lsr #2
	...
 2c0:	0000001c 	andeq	r0, r0, ip, lsl r0
 2c4:	6d450002 	stclvs	0, cr0, [r5, #-8]
 2c8:	00040000 	andeq	r0, r4, r0
 2cc:	00000000 	andeq	r0, r0, r0
 2d0:	0000ac40 	andeq	sl, r0, r0, asr #24
 2d4:	00000194 	muleq	r0, r4, r1
	...

Disassembly of section .debug_line:

00000000 <.debug_line>:
       0:	00000108 	andeq	r0, r0, r8, lsl #2
       4:	00b80002 	adcseq	r0, r8, r2
       8:	01020000 	mrseq	r0, (UNDEF: 2)
       c:	000d0efb 	strdeq	r0, [sp], -fp
      10:	01010101 	tsteq	r1, r1, lsl #2
      14:	01000000 	mrseq	r0, (UNDEF: 0)
      18:	74010000 	strvc	r0, [r1], #-0
      1c:	73747365 	cmnvc	r4, #-1811939327	; 0x94000001
      20:	2f002e00 	svccs	0x00002e00
      24:	72657355 	rsbvc	r7, r5, #1409286145	; 0x54000001
      28:	72622f73 	rsbvc	r2, r2, #460	; 0x1cc
      2c:	6a6e6169 	bvs	1b985d8 <__bss_end__+0x1b8c3e8>
      30:	442f6e75 	strtmi	r6, [pc], #-3701	; 38 <__code_start__-0x7fc8>
      34:	746b7365 	strbtvc	r7, [fp], #-869	; 0x365
      38:	732f706f 	teqvc	pc, #111	; 0x6f
      3c:	6f6f6863 	svcvs	0x006f6863
      40:	70532f6c 	subsvc	r2, r3, ip, ror #30
      44:	676e6972 			; <UNDEFINED> instruction: 0x676e6972
      48:	30323931 	eorscc	r3, r2, r1, lsr r9
      4c:	3253432f 	subscc	r4, r3, #-1140850688	; 0xbc000000
      50:	584c3034 	stmdapl	ip, {r2, r4, r5, ip, sp}^
      54:	3273632f 	rsbscc	r6, r3, #-1140850688	; 0xbc000000
      58:	786c3034 	stmdavc	ip!, {r2, r4, r5, ip, sp}^
      5c:	7330322d 	teqvc	r0, #-805306366	; 0xd0000002
      60:	6c2f7270 	sfmvs	f7, 4, [pc], #-448	; fffffea8 <__bss_end__+0xffff3cb8>
      64:	69706269 	ldmdbvs	r0!, {r0, r3, r5, r6, r9, sp, lr}^
      68:	636e692f 	cmnvs	lr, #770048	; 0xbc000
      6c:	6564756c 	strbvs	r7, [r4, #-1388]!	; 0x56c
      70:	61700000 	cmnvs	r0, r0
      74:	2d327472 	cfldrscs	mvf7, [r2, #-456]!	; 0xfffffe38
      78:	74736574 	ldrbtvc	r6, [r3], #-1396	; 0x574
      7c:	00632e31 	rsbeq	r2, r3, r1, lsr lr
      80:	6d000001 	stcvs	0, cr0, [r0, #-4]
      84:	68636d65 	stmdavs	r3!, {r0, r2, r5, r6, r8, sl, fp, sp, lr}^
      88:	2e6b6365 	cdpcs	3, 6, cr6, cr11, cr5, {3}
      8c:	00020068 	andeq	r0, r2, r8, rrx
      90:	69707200 	ldmdbvs	r0!, {r9, ip, sp, lr}^
      94:	0300682e 	movweq	r6, #2094	; 0x82e
      98:	72610000 	rsbvc	r0, r1, #0
      9c:	2d36766d 	ldccs	6, cr7, [r6, #-436]!	; 0xfffffe4c
      a0:	682e6d76 	stmdavs	lr!, {r1, r2, r4, r5, r6, r8, sl, fp, sp, lr}
      a4:	00000200 	andeq	r0, r0, r0, lsl #4
      a8:	34317063 	ldrtcc	r7, [r1], #-99	; 0x63
      ac:	6265642d 	rsbvs	r6, r5, #754974720	; 0x2d000000
      b0:	682e6775 	stmdavs	lr!, {r0, r2, r4, r5, r6, r8, r9, sl, sp, lr}
      b4:	00000200 	andeq	r0, r0, r0, lsl #4
      b8:	2e756d6d 	cdpcs	13, 7, cr6, cr5, cr13, {3}
      bc:	00020068 	andeq	r0, r2, r8, rrx
      c0:	05000000 	streq	r0, [r0, #-0]
      c4:	00802002 	addeq	r2, r0, r2
      c8:	2f4b1900 	svccs	0x004b1900
      cc:	04020035 	streq	r0, [r2], #-53	; 0x35
      d0:	06660601 	strbteq	r0, [r6], -r1, lsl #12
      d4:	00672308 	rsbeq	r2, r7, r8, lsl #6
      d8:	06010402 	streq	r0, [r1], -r2, lsl #8
      dc:	22080666 	andcs	r0, r8, #106954752	; 0x6600000
      e0:	6c678367 	stclvs	3, cr8, [r7], #-412	; 0xfffffe64
      e4:	0402002f 	streq	r0, [r2], #-47	; 0x2f
      e8:	06660601 	strbteq	r0, [r6], -r1, lsl #12
      ec:	02002308 	andeq	r2, r0, #8, 6	; 0x20000000
      f0:	4a060104 	bmi	180508 <__bss_end__+0x174318>
      f4:	00210806 	eoreq	r0, r1, r6, lsl #16
      f8:	06010402 	streq	r0, [r1], -r2, lsl #8
      fc:	2108064a 	tstcs	r8, sl, asr #12
     100:	2f920883 	svccs	0x00920883
     104:	022f2f2f 	eoreq	r2, pc, #47, 30	; 0xbc
     108:	01010002 	tsteq	r1, r2
     10c:	000002f5 	strdeq	r0, [r0], -r5
     110:	016a0002 	cmneq	sl, r2
     114:	01020000 	mrseq	r0, (UNDEF: 2)
     118:	000d0efb 	strdeq	r0, [sp], -fp
     11c:	01010101 	tsteq	r1, r1, lsl #2
     120:	01000000 	mrseq	r0, (UNDEF: 0)
     124:	2f010000 	svccs	0x00010000
     128:	2f727375 	svccs	0x00727375
     12c:	61636f6c 	cmnvs	r3, ip, ror #30
     130:	65432f6c 	strbvs	r2, [r3, #-3948]	; 0xf6c
     134:	72616c6c 	rsbvc	r6, r1, #108, 24	; 0x6c00
     138:	6d72612f 	ldfvse	f6, [r2, #-188]!	; 0xffffff44
     13c:	6e6f6e2d 	cdpvs	14, 6, cr6, cr15, cr13, {1}
     140:	61652d65 	cmnvs	r5, r5, ror #26
     144:	342f6962 	strtcc	r6, [pc], #-2402	; 14c <__code_start__-0x7eb4>
     148:	332e382e 	teqcc	lr, #3014656	; 0x2e0000
     14c:	3173632d 	cmncc	r3, sp, lsr #6
     150:	2f653037 	svccs	0x00653037
     154:	2f62696c 	svccs	0x0062696c
     158:	2f636367 	svccs	0x00636367
     15c:	2d6d7261 	sfmcs	f7, 2, [sp, #-388]!	; 0xfffffe7c
     160:	656e6f6e 	strbvs	r6, [lr, #-3950]!	; 0xf6e
     164:	6261652d 	rsbvs	r6, r1, #188743680	; 0xb400000
     168:	2e342f69 	cdpcs	15, 3, cr2, cr4, cr9, {3}
     16c:	2f332e38 	svccs	0x00332e38
     170:	6c636e69 	stclvs	14, cr6, [r3], #-420	; 0xfffffe5c
     174:	00656475 	rsbeq	r6, r5, r5, ror r4
     178:	6573552f 	ldrbvs	r5, [r3, #-1327]!	; 0x52f
     17c:	622f7372 	eorvs	r7, pc, #-939524095	; 0xc8000001
     180:	6e616972 	mcrvs	9, 3, r6, cr1, cr2, {3}
     184:	2f6e756a 	svccs	0x006e756a
     188:	6b736544 	blvs	1cd96a0 <__bss_end__+0x1ccd4b0>
     18c:	2f706f74 	svccs	0x00706f74
     190:	6f686373 	svcvs	0x00686373
     194:	532f6c6f 	teqpl	pc, #28416	; 0x6f00
     198:	6e697270 	mcrvs	2, 3, r7, cr9, cr0, {3}
     19c:	32393167 	eorscc	r3, r9, #-1073741799	; 0xc0000019
     1a0:	53432f30 	movtpl	r2, #16176	; 0x3f30
     1a4:	4c303432 	cfldrsmi	mvf3, [r0], #-200	; 0xffffff38
     1a8:	73632f58 	cmnvc	r3, #88, 30	; 0x160
     1ac:	6c303432 	cfldrsvs	mvf3, [r0], #-200	; 0xffffff38
     1b0:	30322d78 	eorscc	r2, r2, r8, ror sp
     1b4:	2f727073 	svccs	0x00727073
     1b8:	7062696c 	rsbvc	r6, r2, ip, ror #18
     1bc:	6e692f69 	cdpvs	15, 6, cr2, cr9, cr9, {3}
     1c0:	64756c63 	ldrbtvs	r6, [r5], #-3171	; 0xc63
     1c4:	752f0065 	strvc	r0, [pc, #-101]!	; 167 <__code_start__-0x7e99>
     1c8:	6c2f7273 	sfmvs	f7, 4, [pc], #-460	; 4 <__code_start__-0x7ffc>
     1cc:	6c61636f 	stclvs	3, cr6, [r1], #-444	; 0xfffffe44
     1d0:	6c65432f 	stclvs	3, cr4, [r5], #-188	; 0xffffff44
     1d4:	2f72616c 	svccs	0x0072616c
     1d8:	2d6d7261 	sfmcs	f7, 2, [sp, #-388]!	; 0xfffffe7c
     1dc:	656e6f6e 	strbvs	r6, [lr, #-3950]!	; 0xf6e
     1e0:	6261652d 	rsbvs	r6, r1, #188743680	; 0xb400000
     1e4:	2e342f69 	cdpcs	15, 3, cr2, cr4, cr9, {3}
     1e8:	2d332e38 	ldccs	14, cr2, [r3, #-224]!	; 0xffffff20
     1ec:	37317363 	ldrcc	r7, [r1, -r3, ror #6]!
     1f0:	612f6530 	teqvs	pc, r0, lsr r5	; <UNPREDICTABLE>
     1f4:	6e2d6d72 	mcrvs	13, 1, r6, cr13, cr2, {3}
     1f8:	2d656e6f 	stclcs	14, cr6, [r5, #-444]!	; 0xfffffe44
     1fc:	69626165 	stmdbvs	r2!, {r0, r2, r5, r6, r8, sp, lr}^
     200:	636e692f 	cmnvs	lr, #770048	; 0xbc000
     204:	6564756c 	strbvs	r7, [r4, #-1388]!	; 0x56c
     208:	6d6d0000 	stclvs	0, cr0, [sp, #-0]
     20c:	00632e75 	rsbeq	r2, r3, r5, ror lr
     210:	6d000000 	stcvs	0, cr0, [r0, #-0]
     214:	682e756d 	stmdavs	lr!, {r0, r2, r3, r5, r6, r8, sl, ip, sp, lr}
     218:	00000000 	andeq	r0, r0, r0
     21c:	64647473 	strbtvs	r7, [r4], #-1139	; 0x473
     220:	682e6665 	stmdavs	lr!, {r0, r2, r5, r6, r9, sl, sp, lr}
     224:	00000100 	andeq	r0, r0, r0, lsl #2
     228:	69647473 	stmdbvs	r4!, {r0, r1, r4, r5, r6, sl, ip, sp, lr}^
     22c:	672d746e 	strvs	r7, [sp, -lr, ror #8]!
     230:	682e6363 	stmdavs	lr!, {r0, r1, r5, r6, r8, r9, sp, lr}
     234:	00000100 	andeq	r0, r0, r0, lsl #2
     238:	766d7261 	strbtvc	r7, [sp], -r1, ror #4
     23c:	70632d36 	rsbvc	r2, r3, r6, lsr sp
     240:	682e3531 	stmdavs	lr!, {r0, r4, r5, r8, sl, ip, sp}
     244:	00000000 	andeq	r0, r0, r0
     248:	766d7261 	strbtvc	r7, [sp], -r1, ror #4
     24c:	6d762d36 	ldclvs	13, cr2, [r6, #-216]!	; 0xffffff28
     250:	0000682e 	andeq	r6, r0, lr, lsr #16
     254:	70720000 	rsbsvc	r0, r2, r0
     258:	00682e69 	rsbeq	r2, r8, r9, ror #28
     25c:	73000002 	movwvc	r0, #2
     260:	6e697274 	mcrvs	2, 3, r7, cr9, cr4, {3}
     264:	00682e67 	rsbeq	r2, r8, r7, ror #28
     268:	72000003 	andvc	r0, r0, #3
     26c:	692d6970 	pushvs	{r4, r5, r6, r8, fp, sp, lr}
     270:	7265746e 	rsbvc	r7, r5, #1845493760	; 0x6e000000
     274:	74707572 	ldrbtvc	r7, [r0], #-1394	; 0x572
     278:	00682e73 	rsbeq	r2, r8, r3, ror lr
     27c:	00000002 	andeq	r0, r0, r2
     280:	f8020500 			; <UNDEFINED> instruction: 0xf8020500
     284:	03000082 	movweq	r0, #130	; 0x82
     288:	2f2f010a 	svccs	0x002f010a
     28c:	02004b4c 	andeq	r4, r0, #76, 22	; 0x13000
     290:	4a060104 	bmi	1806a8 <__bss_end__+0x1744b8>
     294:	2f210806 	svccs	0x00210806
     298:	0402002f 	streq	r0, [r2], #-47	; 0x2f
     29c:	06660601 	strbteq	r0, [r6], -r1, lsl #12
     2a0:	23082208 	movwcs	r2, #33288	; 0x8208
     2a4:	e0030204 	and	r0, r3, r4, lsl #4
     2a8:	01048200 	mrseq	r8, R12_usr
     2ac:	4a7fa203 	bmi	1fe8ac0 <__bss_end__+0x1fdc8d0>
     2b0:	01040200 	mrseq	r0, R12_usr
     2b4:	02004a06 	andeq	r4, r0, #24576	; 0x6000
     2b8:	08060204 	stmdaeq	r6, {r2, r9}
     2bc:	04020025 	streq	r0, [r2], #-37	; 0x25
     2c0:	02006702 	andeq	r6, r0, #524288	; 0x80000
     2c4:	6b7d0204 	blvs	1f40adc <__bss_end__+0x1f348ec>
     2c8:	01040200 	mrseq	r0, R12_usr
     2cc:	bc2f5245 	sfmlt	f5, 4, [pc], #-276	; 1c0 <__code_start__-0x7e40>
     2d0:	682f682f 	stmdavs	pc!, {r0, r1, r2, r3, r5, fp, sp, lr}	; <UNPREDICTABLE>
     2d4:	004b6a2f 	subeq	r6, fp, pc, lsr #20
     2d8:	06010402 	streq	r0, [r1], -r2, lsl #8
     2dc:	2208064a 	andcs	r0, r8, #77594624	; 0x4a00000
     2e0:	040200bd 	streq	r0, [r2], #-189	; 0xbd
     2e4:	064a0601 	strbeq	r0, [sl], -r1, lsl #12
     2e8:	09032108 	stmdbeq	r3, {r3, r8, sp}
     2ec:	02009ff2 	andeq	r9, r0, #968	; 0x3c8
     2f0:	4a060104 	bmi	180708 <__bss_end__+0x174518>
     2f4:	00210806 	eoreq	r0, r1, r6, lsl #16
     2f8:	06010402 	streq	r0, [r1], -r2, lsl #8
     2fc:	2108064a 	tstcs	r8, sl, asr #12
     300:	01040200 	mrseq	r0, R12_usr
     304:	08064a06 	stmdaeq	r6, {r1, r2, r9, fp, lr}
     308:	004b2f22 	subeq	r2, fp, r2, lsr #30
     30c:	06010402 	streq	r0, [r1], -r2, lsl #8
     310:	21080666 	tstcs	r8, r6, ror #12
     314:	6730674f 	ldrvs	r6, [r0, -pc, asr #14]!
     318:	836768a0 	cmnhi	r7, #160, 16	; 0xa00000
     31c:	0885834b 	stmeq	r5, {r0, r1, r3, r6, r8, r9, pc}
     320:	0200d7ae 	andeq	sp, r0, #45613056	; 0x2b80000
     324:	4a060104 	bmi	18073c <__bss_end__+0x17454c>
     328:	00210806 	eoreq	r0, r1, r6, lsl #16
     32c:	06010402 	streq	r0, [r1], -r2, lsl #8
     330:	2108064a 	tstcs	r8, sl, asr #12
     334:	01040200 	mrseq	r0, R12_usr
     338:	02004a06 	andeq	r4, r0, #24576	; 0x6000
     33c:	08060204 	stmdaeq	r6, {r2, r9}
     340:	04020022 	streq	r0, [r2], #-34	; 0x22
     344:	02009f02 	andeq	r9, r0, #2, 30
     348:	002f0204 	eoreq	r0, pc, r4, lsl #4
     34c:	2b020402 	blcs	8135c <__bss_end__+0x7516c>
     350:	01040200 	mrseq	r0, R12_usr
     354:	4f066606 	svcmi	0x00066606
     358:	020067f4 	andeq	r6, r0, #244, 14	; 0x3d00000
     35c:	4a060104 	bmi	180774 <__bss_end__+0x174584>
     360:	00240806 	eoreq	r0, r4, r6, lsl #16
     364:	06010402 	streq	r0, [r1], -r2, lsl #8
     368:	2208064a 	andcs	r0, r8, #77594624	; 0x4a00000
     36c:	4b220868 	blmi	882514 <__bss_end__+0x876324>
     370:	01040200 	mrseq	r0, R12_usr
     374:	08064a06 	stmdaeq	r6, {r1, r2, r9, fp, lr}
     378:	02004b24 	andeq	r4, r0, #36, 22	; 0x9000
     37c:	4a060104 	bmi	180794 <__bss_end__+0x1745a4>
     380:	4b220806 	blmi	8823a0 <__bss_end__+0x8761b0>
     384:	30304bfa 	ldrshtcc	r4, [r0], -sl
     388:	02002f4c 	andeq	r2, r0, #76, 30	; 0x130
     38c:	4a060104 	bmi	1807a4 <__bss_end__+0x1745b4>
     390:	00210806 	eoreq	r0, r1, r6, lsl #16
     394:	06010402 	streq	r0, [r1], -r2, lsl #8
     398:	2108064a 	tstcs	r8, sl, asr #12
     39c:	4b4e2fd8 	blmi	138c304 <__bss_end__+0x1380114>
     3a0:	01040200 	mrseq	r0, R12_usr
     3a4:	08064a06 	stmdaeq	r6, {r1, r2, r9, fp, lr}
     3a8:	04020021 	streq	r0, [r2], #-33	; 0x21
     3ac:	064a0601 	strbeq	r0, [sl], -r1, lsl #12
     3b0:	d72f2108 	strle	r2, [pc, -r8, lsl #2]!
     3b4:	02002f4b 	andeq	r2, r0, #300	; 0x12c
     3b8:	4a060104 	bmi	1807d0 <__bss_end__+0x1745e0>
     3bc:	4b220806 	blmi	8823dc <__bss_end__+0x8761ec>
     3c0:	02004bbc 	andeq	r4, r0, #188, 22	; 0x2f000
     3c4:	4a060104 	bmi	1807dc <__bss_end__+0x1745ec>
     3c8:	2f210806 	svccs	0x00210806
     3cc:	002f4bbb 	strhteq	r4, [pc], -fp
     3d0:	06010402 	streq	r0, [r1], -r2, lsl #8
     3d4:	2208064a 	andcs	r0, r8, #77594624	; 0x4a00000
     3d8:	3014bd4b 	andscc	fp, r4, fp, asr #26
     3dc:	4b4f2f2f 	blmi	13cc0a0 <__bss_end__+0x13bfeb0>
     3e0:	01040200 	mrseq	r0, R12_usr
     3e4:	08064a06 	stmdaeq	r6, {r1, r2, r9, fp, lr}
     3e8:	04020021 	streq	r0, [r2], #-33	; 0x21
     3ec:	064a0601 	strbeq	r0, [sl], -r1, lsl #12
     3f0:	02002108 	andeq	r2, r0, #8, 2
     3f4:	66060104 	strvs	r0, [r6], -r4, lsl #2
     3f8:	67210806 	strvs	r0, [r1, -r6, lsl #16]!
     3fc:	2f6767f5 	svccs	0x006767f5
     400:	01001602 	tsteq	r0, r2, lsl #12
     404:	00028001 	andeq	r8, r2, r1
     408:	5e000200 	cdppl	2, 0, cr0, cr0, cr0, {0}
     40c:	02000001 	andeq	r0, r0, #1
     410:	0d0efb01 	vstreq	d15, [lr, #-4]
     414:	01010100 	mrseq	r0, (UNDEF: 17)
     418:	00000001 	andeq	r0, r0, r1
     41c:	01000001 	tsteq	r0, r1
     420:	7273752f 	rsbsvc	r7, r3, #197132288	; 0xbc00000
     424:	636f6c2f 	cmnvs	pc, #12032	; 0x2f00
     428:	432f6c61 	teqmi	pc, #24832	; 0x6100
     42c:	616c6c65 	cmnvs	ip, r5, ror #24
     430:	72612f72 	rsbvc	r2, r1, #456	; 0x1c8
     434:	6f6e2d6d 	svcvs	0x006e2d6d
     438:	652d656e 	strvs	r6, [sp, #-1390]!	; 0x56e
     43c:	2f696261 	svccs	0x00696261
     440:	2e382e34 	mrccs	14, 1, r2, cr8, cr4, {1}
     444:	73632d33 	cmnvc	r3, #3264	; 0xcc0
     448:	65303731 	ldrvs	r3, [r0, #-1841]!	; 0x731
     44c:	62696c2f 	rsbvs	r6, r9, #12032	; 0x2f00
     450:	6363672f 	cmnvs	r3, #12320768	; 0xbc0000
     454:	6d72612f 	ldfvse	f6, [r2, #-188]!	; 0xffffff44
     458:	6e6f6e2d 	cdpvs	14, 6, cr6, cr15, cr13, {1}
     45c:	61652d65 	cmnvs	r5, r5, ror #26
     460:	342f6962 	strtcc	r6, [pc], #-2402	; 468 <__code_start__-0x7b98>
     464:	332e382e 	teqcc	lr, #3014656	; 0x2e0000
     468:	636e692f 	cmnvs	lr, #770048	; 0xbc000
     46c:	6564756c 	strbvs	r7, [r4, #-1388]!	; 0x56c
     470:	73552f00 	cmpvc	r5, #0, 30
     474:	2f737265 	svccs	0x00737265
     478:	61697262 	cmnvs	r9, r2, ror #4
     47c:	6e756a6e 	vsubvs.f32	s13, s10, s29
     480:	7365442f 	cmnvc	r5, #788529152	; 0x2f000000
     484:	706f746b 	rsbvc	r7, pc, fp, ror #8
     488:	6863732f 	stmdavs	r3!, {r0, r1, r2, r3, r5, r8, r9, ip, sp, lr}^
     48c:	2f6c6f6f 	svccs	0x006c6f6f
     490:	69727053 	ldmdbvs	r2!, {r0, r1, r4, r6, ip, sp, lr}^
     494:	3931676e 	ldmdbcc	r1!, {r1, r2, r3, r5, r6, r8, r9, sl, sp, lr}
     498:	432f3032 	teqmi	pc, #50	; 0x32
     49c:	30343253 	eorscc	r3, r4, r3, asr r2
     4a0:	632f584c 	teqvs	pc, #76, 16	; 0x4c0000
     4a4:	30343273 	eorscc	r3, r4, r3, ror r2
     4a8:	322d786c 	eorcc	r7, sp, #108, 16	; 0x6c0000
     4ac:	72707330 	rsbsvc	r7, r0, #48, 6	; 0xc0000000
     4b0:	62696c2f 	rsbvs	r6, r9, #12032	; 0x2f00
     4b4:	6c2f6970 	stcvs	9, cr6, [pc], #-448	; 2fc <__code_start__-0x7d04>
     4b8:	00636269 	rsbeq	r6, r3, r9, ror #4
     4bc:	6573552f 	ldrbvs	r5, [r3, #-1327]!	; 0x52f
     4c0:	622f7372 	eorvs	r7, pc, #-939524095	; 0xc8000001
     4c4:	6e616972 	mcrvs	9, 3, r6, cr1, cr2, {3}
     4c8:	2f6e756a 	svccs	0x006e756a
     4cc:	6b736544 	blvs	1cd99e4 <__bss_end__+0x1ccd7f4>
     4d0:	2f706f74 	svccs	0x00706f74
     4d4:	6f686373 	svcvs	0x00686373
     4d8:	532f6c6f 	teqpl	pc, #28416	; 0x6f00
     4dc:	6e697270 	mcrvs	2, 3, r7, cr9, cr0, {3}
     4e0:	32393167 	eorscc	r3, r9, #-1073741799	; 0xc0000019
     4e4:	53432f30 	movtpl	r2, #16176	; 0x3f30
     4e8:	4c303432 	cfldrsmi	mvf3, [r0], #-200	; 0xffffff38
     4ec:	73632f58 	cmnvc	r3, #88, 30	; 0x160
     4f0:	6c303432 	cfldrsvs	mvf3, [r0], #-200	; 0xffffff38
     4f4:	30322d78 	eorscc	r2, r2, r8, ror sp
     4f8:	2f727073 	svccs	0x00727073
     4fc:	7062696c 	rsbvc	r6, r2, ip, ror #18
     500:	6e692f69 	cdpvs	15, 6, cr2, cr9, cr9, {3}
     504:	64756c63 	ldrbtvs	r6, [r5], #-3171	; 0xc63
     508:	6d000065 	stcvs	0, cr0, [r0, #-404]	; 0xfffffe6c
     50c:	682d756d 	stmdavs	sp!, {r0, r2, r3, r5, r6, r8, sl, ip, sp, lr}
     510:	65706c65 	ldrbvs	r6, [r0, #-3173]!	; 0xc65
     514:	632e7372 	teqvs	lr, #-939524095	; 0xc8000001
     518:	00000000 	andeq	r0, r0, r0
     51c:	766d7261 	strbtvc	r7, [sp], -r1, ror #4
     520:	70632d36 	rsbvc	r2, r3, r6, lsr sp
     524:	682e3531 	stmdavs	lr!, {r0, r4, r5, r8, sl, ip, sp}
     528:	00000000 	andeq	r0, r0, r0
     52c:	766d7261 	strbtvc	r7, [sp], -r1, ror #4
     530:	6d762d36 	ldclvs	13, cr2, [r6, #-216]!	; 0xffffff28
     534:	0000682e 	andeq	r6, r0, lr, lsr #16
     538:	74730000 	ldrbtvc	r0, [r3], #-0
     53c:	746e6964 	strbtvc	r6, [lr], #-2404	; 0x964
     540:	6363672d 	cmnvs	r3, #11796480	; 0xb40000
     544:	0100682e 	tsteq	r0, lr, lsr #16
     548:	696c0000 	stmdbvs	ip!, {}^	; <UNPREDICTABLE>
     54c:	652d6362 	strvs	r6, [sp, #-866]!	; 0x362
     550:	61727478 	cmnvs	r2, r8, ror r4
     554:	0200682e 	andeq	r6, r0, #3014656	; 0x2e0000
     558:	70720000 	rsbsvc	r0, r2, r0
     55c:	00682e69 	rsbeq	r2, r8, r9, ror #28
     560:	6d000003 	stcvs	0, cr0, [r0, #-12]
     564:	682e756d 	stmdavs	lr!, {r0, r2, r3, r5, r6, r8, sl, ip, sp, lr}
     568:	00000000 	andeq	r0, r0, r0
     56c:	02050000 	andeq	r0, r5, #0
     570:	00008bd4 	ldrdeq	r8, [r0], -r4
     574:	67010e03 	strvs	r0, [r1, -r3, lsl #28]
     578:	4b2f4308 	blmi	bd11a0 <__bss_end__+0xbc4fb0>
     57c:	4a1903dd 	bmi	6414f8 <__bss_end__+0x635308>
     580:	02004c01 	andeq	r4, r0, #256	; 0x100
     584:	9e060104 	adflss	f0, f6, f4
     588:	00210806 	eoreq	r0, r1, r6, lsl #16
     58c:	06010402 	streq	r0, [r1], -r2, lsl #8
     590:	21080666 	tstcs	r8, r6, ror #12
     594:	01040200 	mrseq	r0, R12_usr
     598:	08066606 	stmdaeq	r6, {r1, r2, r9, sl, sp, lr}
     59c:	04020023 	streq	r0, [r2], #-35	; 0x23
     5a0:	06660601 	strbteq	r0, [r6], -r1, lsl #12
     5a4:	02002108 	andeq	r2, r0, #8, 2
     5a8:	66060104 	strvs	r0, [r6], -r4, lsl #2
     5ac:	00210806 	eoreq	r0, r1, r6, lsl #16
     5b0:	06010402 	streq	r0, [r1], -r2, lsl #8
     5b4:	09030666 	stmdbeq	r3, {r1, r2, r5, r6, r9, sl}
     5b8:	02002008 	andeq	r2, r0, #8
     5bc:	66060104 	strvs	r0, [r6], -r4, lsl #2
     5c0:	00210806 	eoreq	r0, r1, r6, lsl #16
     5c4:	06010402 	streq	r0, [r1], -r2, lsl #8
     5c8:	21080666 	tstcs	r8, r6, ror #12
     5cc:	01040200 	mrseq	r0, R12_usr
     5d0:	08066606 	stmdaeq	r6, {r1, r2, r9, sl, sp, lr}
     5d4:	4bae0821 	blmi	feb82660 <__bss_end__+0xfeb76470>
     5d8:	bbbb4b30 	bllt	feed32a0 <__bss_end__+0xfeec70b0>
     5dc:	9f9fbbbb 	svcls	0x009fbbbb
     5e0:	bbbbbbbb 	bllt	feeef4d4 <__bss_end__+0xfeee32e4>
     5e4:	9f9fbbbb 	svcls	0x009fbbbb
     5e8:	02bbbbbb 	adcseq	fp, fp, #191488	; 0x2ec00
     5ec:	01501934 	cmpeq	r0, r4, lsr r9
     5f0:	67834b4b 	strvs	r4, [r3, fp, asr #22]
     5f4:	02004bf8 	andeq	r4, r0, #248, 22	; 0x3e000
     5f8:	66060104 	strvs	r0, [r6], -r4, lsl #2
     5fc:	00210806 	eoreq	r0, r1, r6, lsl #16
     600:	06010402 	streq	r0, [r1], -r2, lsl #8
     604:	21080682 	smlabbcs	r8, r2, r6, r0
     608:	01040200 	mrseq	r0, R12_usr
     60c:	08066606 	stmdaeq	r6, {r1, r2, r9, sl, sp, lr}
     610:	04020021 	streq	r0, [r2], #-33	; 0x21
     614:	06660601 	strbteq	r0, [r6], -r1, lsl #12
     618:	02002108 	andeq	r2, r0, #8, 2
     61c:	66060104 	strvs	r0, [r6], -r4, lsl #2
     620:	00210806 	eoreq	r0, r1, r6, lsl #16
     624:	06010402 	streq	r0, [r1], -r2, lsl #8
     628:	21080666 	tstcs	r8, r6, ror #12
     62c:	01040200 	mrseq	r0, R12_usr
     630:	08066606 	stmdaeq	r6, {r1, r2, r9, sl, sp, lr}
     634:	04020021 	streq	r0, [r2], #-33	; 0x21
     638:	06660601 	strbteq	r0, [r6], -r1, lsl #12
     63c:	93082108 	movwls	r2, #33032	; 0x8108
     640:	674b4c15 	smlaldvs	r4, fp, r5, ip
     644:	004a1103 	subeq	r1, sl, r3, lsl #2
     648:	06010402 	streq	r0, [r1], -r2, lsl #8
     64c:	04020066 	streq	r0, [r2], #-102	; 0x66
     650:	00c80802 	sbceq	r0, r8, r2, lsl #16
     654:	4a010402 	bmi	41664 <__bss_end__+0x35474>
     658:	08210806 	stmdaeq	r1!, {r1, r2, fp}
     65c:	674b4b22 	strbvs	r4, [fp, -r2, lsr #22]
     660:	01040200 	mrseq	r0, R12_usr
     664:	06200806 	strteq	r0, [r0], -r6, lsl #16
     668:	bb4c9f4b 	bllt	132839c <__bss_end__+0x131c1ac>
     66c:	bbbb9f9f 	bllt	feee84f0 <__bss_end__+0xfeedc300>
     670:	040200bb 	streq	r0, [r2], #-187	; 0xbb
     674:	58080601 	stmdapl	r8, {r0, r9, sl}
     678:	bbbb4b06 	bllt	feed3298 <__bss_end__+0xfeec70a8>
     67c:	2a02a0bb 	bcs	a8970 <__bss_end__+0x9c780>
     680:	2f2f2f19 	svccs	0x002f2f19
     684:	01000402 	tsteq	r0, r2, lsl #8
     688:	0001fc01 	andeq	pc, r1, r1, lsl #24
     68c:	1f000200 	svcne	0x00000200
     690:	02000001 	andeq	r0, r0, #1
     694:	0d0efb01 	vstreq	d15, [lr, #-4]
     698:	01010100 	mrseq	r0, (UNDEF: 17)
     69c:	00000001 	andeq	r0, r0, r1
     6a0:	01000001 	tsteq	r0, r1
     6a4:	7273752f 	rsbsvc	r7, r3, #197132288	; 0xbc00000
     6a8:	636f6c2f 	cmnvs	pc, #12032	; 0x2f00
     6ac:	432f6c61 	teqmi	pc, #24832	; 0x6100
     6b0:	616c6c65 	cmnvs	ip, r5, ror #24
     6b4:	72612f72 	rsbvc	r2, r1, #456	; 0x1c8
     6b8:	6f6e2d6d 	svcvs	0x006e2d6d
     6bc:	652d656e 	strvs	r6, [sp, #-1390]!	; 0x56e
     6c0:	2f696261 	svccs	0x00696261
     6c4:	2e382e34 	mrccs	14, 1, r2, cr8, cr4, {1}
     6c8:	73632d33 	cmnvc	r3, #3264	; 0xcc0
     6cc:	65303731 	ldrvs	r3, [r0, #-1841]!	; 0x731
     6d0:	62696c2f 	rsbvs	r6, r9, #12032	; 0x2f00
     6d4:	6363672f 	cmnvs	r3, #12320768	; 0xbc0000
     6d8:	6d72612f 	ldfvse	f6, [r2, #-188]!	; 0xffffff44
     6dc:	6e6f6e2d 	cdpvs	14, 6, cr6, cr15, cr13, {1}
     6e0:	61652d65 	cmnvs	r5, r5, ror #26
     6e4:	342f6962 	strtcc	r6, [pc], #-2402	; 6ec <__code_start__-0x7914>
     6e8:	332e382e 	teqcc	lr, #3014656	; 0x2e0000
     6ec:	636e692f 	cmnvs	lr, #770048	; 0xbc000
     6f0:	6564756c 	strbvs	r7, [r4, #-1388]!	; 0x56c
     6f4:	73552f00 	cmpvc	r5, #0, 30
     6f8:	2f737265 	svccs	0x00737265
     6fc:	61697262 	cmnvs	r9, r2, ror #4
     700:	6e756a6e 	vsubvs.f32	s13, s10, s29
     704:	7365442f 	cmnvc	r5, #788529152	; 0x2f000000
     708:	706f746b 	rsbvc	r7, pc, fp, ror #8
     70c:	6863732f 	stmdavs	r3!, {r0, r1, r2, r3, r5, r8, r9, ip, sp, lr}^
     710:	2f6c6f6f 	svccs	0x006c6f6f
     714:	69727053 	ldmdbvs	r2!, {r0, r1, r4, r6, ip, sp, lr}^
     718:	3931676e 	ldmdbcc	r1!, {r1, r2, r3, r5, r6, r8, r9, sl, sp, lr}
     71c:	432f3032 	teqmi	pc, #50	; 0x32
     720:	30343253 	eorscc	r3, r4, r3, asr r2
     724:	632f584c 	teqvs	pc, #76, 16	; 0x4c0000
     728:	30343273 	eorscc	r3, r4, r3, ror r2
     72c:	322d786c 	eorcc	r7, sp, #108, 16	; 0x6c0000
     730:	72707330 	rsbsvc	r7, r0, #48, 6	; 0xc0000000
     734:	62696c2f 	rsbvs	r6, r9, #12032	; 0x2f00
     738:	692f6970 	stmdbvs	pc!, {r4, r5, r6, r8, fp, sp, lr}	; <UNPREDICTABLE>
     73c:	756c636e 	strbvc	r6, [ip, #-878]!	; 0x36e
     740:	00006564 	andeq	r6, r0, r4, ror #10
     744:	636d656d 	cmnvs	sp, #457179136	; 0x1b400000
     748:	6b636568 	blvs	18d9cf0 <__bss_end__+0x18cdb00>
     74c:	0000632e 	andeq	r6, r0, lr, lsr #6
     750:	69620000 	stmdbvs	r2!, {}^	; <UNPREDICTABLE>
     754:	75732d74 	ldrbvc	r2, [r3, #-3444]!	; 0xd74
     758:	726f7070 	rsbvc	r7, pc, #112	; 0x70
     75c:	00682e74 	rsbeq	r2, r8, r4, ror lr
     760:	63000000 	movwvs	r0, #0
     764:	2d343170 	ldfcss	f3, [r4, #-448]!	; 0xfffffe40
     768:	75626564 	strbvc	r6, [r2, #-1380]!	; 0x564
     76c:	00682e67 	rsbeq	r2, r8, r7, ror #28
     770:	61000000 	mrsvs	r0, (UNDEF: 0)
     774:	36766d72 			; <UNDEFINED> instruction: 0x36766d72
     778:	2e6d762d 	cdpcs	6, 6, cr7, cr13, cr13, {1}
     77c:	00000068 	andeq	r0, r0, r8, rrx
     780:	64747300 	ldrbtvs	r7, [r4], #-768	; 0x300
     784:	2d746e69 	ldclcs	14, cr6, [r4, #-420]!	; 0xfffffe5c
     788:	2e636367 	cdpcs	3, 6, cr6, cr3, cr7, {3}
     78c:	00010068 	andeq	r0, r1, r8, rrx
     790:	6d656d00 	stclvs	13, cr6, [r5, #-0]
     794:	63656863 	cmnvs	r5, #6488064	; 0x630000
     798:	00682e6b 	rsbeq	r2, r8, fp, ror #28
     79c:	72000000 	andvc	r0, r0, #0
     7a0:	682e6970 	stmdavs	lr!, {r4, r5, r6, r8, fp, sp, lr}
     7a4:	00000200 	andeq	r0, r0, r0, lsl #4
     7a8:	2e756d6d 	cdpcs	13, 7, cr6, cr5, cr13, {3}
     7ac:	00000068 	andeq	r0, r0, r8, rrx
     7b0:	05000000 	streq	r0, [r0, #-0]
     7b4:	0094e802 	addseq	lr, r4, r2, lsl #16
     7b8:	011b0300 	tsteq	fp, r0, lsl #6
     7bc:	1367672f 	cmnne	r7, #12320768	; 0xbc0000
     7c0:	004b9fc0 	subeq	r9, fp, r0, asr #31
     7c4:	06010402 	streq	r0, [r1], -r2, lsl #8
     7c8:	21080666 	tstcs	r8, r6, ror #12
     7cc:	01040200 	mrseq	r0, R12_usr
     7d0:	08066606 	stmdaeq	r6, {r1, r2, r9, sl, sp, lr}
     7d4:	04020021 	streq	r0, [r2], #-33	; 0x21
     7d8:	06660601 	strbteq	r0, [r6], -r1, lsl #12
     7dc:	03d72108 	bicseq	r2, r7, #8, 2
     7e0:	673c080d 	ldrvs	r0, [ip, -sp, lsl #16]!
     7e4:	0302042f 	movweq	r0, #9263	; 0x242f
     7e8:	59086662 	stmdbpl	r8, {r1, r5, r6, r9, sl, sp, lr}
     7ec:	044b5908 	strbeq	r5, [fp], #-2312	; 0x908
     7f0:	4a1c0301 	bmi	7013fc <__bss_end__+0x6f520c>
     7f4:	02004bf6 	andeq	r4, r0, #251904	; 0x3d800
     7f8:	4a060104 	bmi	180c10 <__bss_end__+0x174a20>
     7fc:	00210806 	eoreq	r0, r1, r6, lsl #16
     800:	06010402 	streq	r0, [r1], -r2, lsl #8
     804:	2208064a 	andcs	r0, r8, #77594624	; 0x4a00000
     808:	90080a03 	andls	r0, r8, r3, lsl #20
     80c:	0304a213 	movweq	sl, #16915	; 0x4213
     810:	032e0c03 	teqeq	lr, #768	; 0x300
     814:	4b342e13 	blmi	d0c068 <__bss_end__+0xcffe78>
     818:	5c030104 	stfpls	f0, [r3], {4}
     81c:	082003d6 	stmdaeq	r0!, {r1, r2, r4, r6, r7, r8, r9}
     820:	032f2fac 	teqeq	pc, #172, 30	; 0x2b0
     824:	4c3c080c 	ldcmi	8, cr0, [ip], #-48	; 0xffffffd0
     828:	0402002f 	streq	r0, [r2], #-47	; 0x2f
     82c:	06660601 	strbteq	r0, [r6], -r1, lsl #12
     830:	009f2408 	addseq	r2, pc, r8, lsl #8
     834:	06010402 	streq	r0, [r1], -r2, lsl #8
     838:	2508064a 	strcs	r0, [r8, #-1610]	; 0x64a
     83c:	9fa2bc84 	svcls	0x00a2bc84
     840:	34a1a19f 	strtcc	sl, [r1], #415	; 0x19f
     844:	5c08834d 	stcpl	3, cr8, [r8], {77}	; 0x4d
     848:	002fa04b 	eoreq	sl, pc, fp, asr #32
     84c:	06010402 	streq	r0, [r1], -r2, lsl #8
     850:	21080666 	tstcs	r8, r6, ror #12
     854:	2f4cf59f 	svccs	0x004cf59f
     858:	01040200 	mrseq	r0, R12_usr
     85c:	08066606 	stmdaeq	r6, {r1, r2, r9, sl, sp, lr}
     860:	67d89f21 	ldrbvs	r9, [r8, r1, lsr #30]
     864:	01040200 	mrseq	r0, R12_usr
     868:	08066606 	stmdaeq	r6, {r1, r2, r9, sl, sp, lr}
     86c:	67d8bb23 	ldrbvs	fp, [r8, r3, lsr #22]
     870:	01040200 	mrseq	r0, R12_usr
     874:	08066606 	stmdaeq	r6, {r1, r2, r9, sl, sp, lr}
     878:	2fd8bb23 	svccs	0x00d8bb23
     87c:	4b2fda30 	blmi	bf7144 <__bss_end__+0xbeaf54>
     880:	2f692f6a 	svccs	0x00692f6a
     884:	01000602 	tsteq	r0, r2, lsl #12
     888:	0000de01 	andeq	sp, r0, r1, lsl #28
     88c:	83000200 	movwhi	r0, #512	; 0x200
     890:	02000000 	andeq	r0, r0, #0
     894:	0d0efb01 	vstreq	d15, [lr, #-4]
     898:	01010100 	mrseq	r0, (UNDEF: 17)
     89c:	00000001 	andeq	r0, r0, r1
     8a0:	01000001 	tsteq	r0, r1
     8a4:	6362696c 	cmnvs	r2, #108, 18	; 0x1b0000
     8a8:	73752f00 	cmnvc	r5, #0, 30
     8ac:	6f6c2f72 	svcvs	0x006c2f72
     8b0:	2f6c6163 	svccs	0x006c6163
     8b4:	6c6c6543 	cfstr64vs	mvdx6, [ip], #-268	; 0xfffffef4
     8b8:	612f7261 	teqvs	pc, r1, ror #4
     8bc:	6e2d6d72 	mcrvs	13, 1, r6, cr13, cr2, {3}
     8c0:	2d656e6f 	stclcs	14, cr6, [r5, #-444]!	; 0xfffffe44
     8c4:	69626165 	stmdbvs	r2!, {r0, r2, r5, r6, r8, sp, lr}^
     8c8:	382e342f 	stmdacc	lr!, {r0, r1, r2, r3, r5, sl, ip, sp}
     8cc:	632d332e 	teqvs	sp, #-1207959552	; 0xb8000000
     8d0:	30373173 	eorscc	r3, r7, r3, ror r1
     8d4:	696c2f65 	stmdbvs	ip!, {r0, r2, r5, r6, r8, r9, sl, fp, sp}^
     8d8:	63672f62 	cmnvs	r7, #392	; 0x188
     8dc:	72612f63 	rsbvc	r2, r1, #396	; 0x18c
     8e0:	6f6e2d6d 	svcvs	0x006e2d6d
     8e4:	652d656e 	strvs	r6, [sp, #-1390]!	; 0x56e
     8e8:	2f696261 	svccs	0x00696261
     8ec:	2e382e34 	mrccs	14, 1, r2, cr8, cr4, {1}
     8f0:	6e692f33 	mcrvs	15, 3, r2, cr9, cr3, {1}
     8f4:	64756c63 	ldrbtvs	r6, [r5], #-3171	; 0xc63
     8f8:	68000065 	stmdavs	r0, {r0, r2, r5, r6}
     8fc:	2e687361 	cdpcs	3, 6, cr7, cr8, cr1, {3}
     900:	00010063 	andeq	r0, r1, r3, rrx
     904:	64747300 	ldrbtvs	r7, [r4], #-768	; 0x300
     908:	2d746e69 	ldclcs	14, cr6, [r4, #-420]!	; 0xfffffe5c
     90c:	2e636367 	cdpcs	3, 6, cr6, cr3, cr7, {3}
     910:	00020068 	andeq	r0, r2, r8, rrx
     914:	05000000 	streq	r0, [r0, #-0]
     918:	009f0002 	addseq	r0, pc, r2
     91c:	010e0300 	mrseq	r0, ELR_hyp
     920:	2f843130 	svccs	0x00843130
     924:	04020031 	streq	r0, [r2], #-49	; 0x31
     928:	02002f02 	andeq	r2, r0, #2, 30
     92c:	00830204 	addeq	r0, r3, r4, lsl #4
     930:	83020402 	movwhi	r0, #9218	; 0x2402
     934:	02040200 	andeq	r0, r4, #0, 4
     938:	0402002f 	streq	r0, [r2], #-47	; 0x2f
     93c:	02002f02 	andeq	r2, r0, #2, 30
     940:	00290204 	eoreq	r0, r9, r4, lsl #4
     944:	06010402 	streq	r0, [r1], -r2, lsl #8
     948:	0903062e 	stmdbeq	r3, {r1, r2, r3, r5, r9, sl}
     94c:	2f83d74a 	svccs	0x0083d74a
     950:	832f2f4b 	teqhi	pc, #300	; 0x12c
     954:	4b2f2f2f 	blmi	bcc618 <__bss_end__+0xbc0428>
     958:	2f2f322f 	svccs	0x002f322f
     95c:	302f2f2f 	eorcc	r2, pc, pc, lsr #30
     960:	032e5a03 	teqeq	lr, #12288	; 0x3000
     964:	04022e27 	streq	r2, [r2], #-3623	; 0xe27
     968:	ec010100 	stfs	f0, [r1], {-0}
     96c:	02000000 	andeq	r0, r0, #0
     970:	0000d000 	andeq	sp, r0, r0
     974:	fb010200 	blx	4117e <__bss_end__+0x34f8e>
     978:	01000d0e 	tsteq	r0, lr, lsl #26
     97c:	00010101 	andeq	r0, r1, r1, lsl #2
     980:	00010000 	andeq	r0, r1, r0
     984:	696c0100 	stmdbvs	ip!, {r8}^
     988:	2f006362 	svccs	0x00006362
     98c:	2f727375 	svccs	0x00727375
     990:	61636f6c 	cmnvs	r3, ip, ror #30
     994:	65432f6c 	strbvs	r2, [r3, #-3948]	; 0xf6c
     998:	72616c6c 	rsbvc	r6, r1, #108, 24	; 0x6c00
     99c:	6d72612f 	ldfvse	f6, [r2, #-188]!	; 0xffffff44
     9a0:	6e6f6e2d 	cdpvs	14, 6, cr6, cr15, cr13, {1}
     9a4:	61652d65 	cmnvs	r5, r5, ror #26
     9a8:	342f6962 	strtcc	r6, [pc], #-2402	; 9b0 <__code_start__-0x7650>
     9ac:	332e382e 	teqcc	lr, #3014656	; 0x2e0000
     9b0:	3173632d 	cmncc	r3, sp, lsr #6
     9b4:	2f653037 	svccs	0x00653037
     9b8:	2f62696c 	svccs	0x0062696c
     9bc:	2f636367 	svccs	0x00636367
     9c0:	2d6d7261 	sfmcs	f7, 2, [sp, #-388]!	; 0xfffffe7c
     9c4:	656e6f6e 	strbvs	r6, [lr, #-3950]!	; 0xf6e
     9c8:	6261652d 	rsbvs	r6, r1, #188743680	; 0xb400000
     9cc:	2e342f69 	cdpcs	15, 3, cr2, cr4, cr9, {3}
     9d0:	2f332e38 	svccs	0x00332e38
     9d4:	6c636e69 	stclvs	14, cr6, [r3], #-420	; 0xfffffe5c
     9d8:	00656475 	rsbeq	r6, r5, r5, ror r4
     9dc:	7273752f 	rsbsvc	r7, r3, #197132288	; 0xbc00000
     9e0:	636f6c2f 	cmnvs	pc, #12032	; 0x2f00
     9e4:	432f6c61 	teqmi	pc, #24832	; 0x6100
     9e8:	616c6c65 	cmnvs	ip, r5, ror #24
     9ec:	72612f72 	rsbvc	r2, r1, #456	; 0x1c8
     9f0:	6f6e2d6d 	svcvs	0x006e2d6d
     9f4:	652d656e 	strvs	r6, [sp, #-1390]!	; 0x56e
     9f8:	2f696261 	svccs	0x00696261
     9fc:	2e382e34 	mrccs	14, 1, r2, cr8, cr4, {1}
     a00:	73632d33 	cmnvc	r3, #3264	; 0xcc0
     a04:	65303731 	ldrvs	r3, [r0, #-1841]!	; 0x731
     a08:	6d72612f 	ldfvse	f6, [r2, #-188]!	; 0xffffff44
     a0c:	6e6f6e2d 	cdpvs	14, 6, cr6, cr15, cr13, {1}
     a10:	61652d65 	cmnvs	r5, r5, ror #26
     a14:	692f6962 	stmdbvs	pc!, {r1, r5, r6, r8, fp, sp, lr}	; <UNPREDICTABLE>
     a18:	756c636e 	strbvc	r6, [ip, #-878]!	; 0x36e
     a1c:	00006564 	andeq	r6, r0, r4, ror #10
     a20:	736d656d 	cmnvc	sp, #457179136	; 0x1b400000
     a24:	632e7465 	teqvs	lr, #1694498816	; 0x65000000
     a28:	00000100 	andeq	r0, r0, r0, lsl #2
     a2c:	64647473 	strbtvs	r7, [r4], #-1139	; 0x473
     a30:	682e6665 	stmdavs	lr!, {r0, r2, r5, r6, r9, sl, sp, lr}
     a34:	00000200 	andeq	r0, r0, r0, lsl #4
     a38:	69727473 	ldmdbvs	r2!, {r0, r1, r4, r5, r6, sl, ip, sp, lr}^
     a3c:	682e676e 	stmdavs	lr!, {r1, r2, r3, r5, r6, r8, r9, sl, sp, lr}
     a40:	00000300 	andeq	r0, r0, r0, lsl #6
     a44:	02050000 	andeq	r0, r5, #0
     a48:	00009ff0 	strdeq	r9, [r0], -r0
     a4c:	2f4c1314 	svccs	0x004c1314
     a50:	01040200 	mrseq	r0, R12_usr
     a54:	02024d49 	andeq	r4, r2, #4672	; 0x1240
     a58:	0c010100 	stfeqs	f0, [r1], {-0}
     a5c:	02000001 	andeq	r0, r0, #1
     a60:	0000f500 	andeq	pc, r0, r0, lsl #10
     a64:	fb010200 	blx	4126e <__bss_end__+0x3507e>
     a68:	01000d0e 	tsteq	r0, lr, lsl #26
     a6c:	00010101 	andeq	r0, r1, r1, lsl #2
     a70:	00010000 	andeq	r0, r1, r0
     a74:	696c0100 	stmdbvs	ip!, {r8}^
     a78:	2f006362 	svccs	0x00006362
     a7c:	2f727375 	svccs	0x00727375
     a80:	61636f6c 	cmnvs	r3, ip, ror #30
     a84:	65432f6c 	strbvs	r2, [r3, #-3948]	; 0xf6c
     a88:	72616c6c 	rsbvc	r6, r1, #108, 24	; 0x6c00
     a8c:	6d72612f 	ldfvse	f6, [r2, #-188]!	; 0xffffff44
     a90:	6e6f6e2d 	cdpvs	14, 6, cr6, cr15, cr13, {1}
     a94:	61652d65 	cmnvs	r5, r5, ror #26
     a98:	342f6962 	strtcc	r6, [pc], #-2402	; aa0 <__code_start__-0x7560>
     a9c:	332e382e 	teqcc	lr, #3014656	; 0x2e0000
     aa0:	3173632d 	cmncc	r3, sp, lsr #6
     aa4:	2f653037 	svccs	0x00653037
     aa8:	2f62696c 	svccs	0x0062696c
     aac:	2f636367 	svccs	0x00636367
     ab0:	2d6d7261 	sfmcs	f7, 2, [sp, #-388]!	; 0xfffffe7c
     ab4:	656e6f6e 	strbvs	r6, [lr, #-3950]!	; 0xf6e
     ab8:	6261652d 	rsbvs	r6, r1, #188743680	; 0xb400000
     abc:	2e342f69 	cdpcs	15, 3, cr2, cr4, cr9, {3}
     ac0:	2f332e38 	svccs	0x00332e38
     ac4:	6c636e69 	stclvs	14, cr6, [r3], #-420	; 0xfffffe5c
     ac8:	00656475 	rsbeq	r6, r5, r5, ror r4
     acc:	6573552f 	ldrbvs	r5, [r3, #-1327]!	; 0x52f
     ad0:	622f7372 	eorvs	r7, pc, #-939524095	; 0xc8000001
     ad4:	6e616972 	mcrvs	9, 3, r6, cr1, cr2, {3}
     ad8:	2f6e756a 	svccs	0x006e756a
     adc:	6b736544 	blvs	1cd9ff4 <__bss_end__+0x1ccde04>
     ae0:	2f706f74 	svccs	0x00706f74
     ae4:	6f686373 	svcvs	0x00686373
     ae8:	532f6c6f 	teqpl	pc, #28416	; 0x6f00
     aec:	6e697270 	mcrvs	2, 3, r7, cr9, cr0, {3}
     af0:	32393167 	eorscc	r3, r9, #-1073741799	; 0xc0000019
     af4:	53432f30 	movtpl	r2, #16176	; 0x3f30
     af8:	4c303432 	cfldrsmi	mvf3, [r0], #-200	; 0xffffff38
     afc:	73632f58 	cmnvc	r3, #88, 30	; 0x160
     b00:	6c303432 	cfldrsvs	mvf3, [r0], #-200	; 0xffffff38
     b04:	30322d78 	eorscc	r2, r2, r8, ror sp
     b08:	2f727073 	svccs	0x00727073
     b0c:	7062696c 	rsbvc	r6, r2, ip, ror #18
     b10:	6e692f69 	cdpvs	15, 6, cr2, cr9, cr9, {3}
     b14:	64756c63 	ldrbtvs	r6, [r5], #-3171	; 0xc63
     b18:	70000065 	andvc	r0, r0, r5, rrx
     b1c:	746e6972 	strbtvc	r6, [lr], #-2418	; 0x972
     b20:	00632e6b 	rsbeq	r2, r3, fp, ror #28
     b24:	73000001 	movwvc	r0, #1
     b28:	72616474 	rsbvc	r6, r1, #116, 8	; 0x74000000
     b2c:	00682e67 	rsbeq	r2, r8, r7, ror #28
     b30:	3c000002 	stccc	0, cr0, [r0], {2}
     b34:	6c697562 	cfstr64vs	mvdx7, [r9], #-392	; 0xfffffe78
     b38:	6e692d74 	mcrvs	13, 3, r2, cr9, cr4, {3}
     b3c:	0000003e 	andeq	r0, r0, lr, lsr r0
     b40:	69707200 	ldmdbvs	r0!, {r9, ip, sp, lr}^
     b44:	0300682e 	movweq	r6, #2094	; 0x82e
     b48:	61760000 	cmnvs	r6, r0
     b4c:	6972702d 	ldmdbvs	r2!, {r0, r2, r3, r5, ip, sp, lr}^
     b50:	2e6b746e 	cdpcs	4, 6, cr7, cr11, cr14, {3}
     b54:	00010068 	andeq	r0, r1, r8, rrx
     b58:	05000000 	streq	r0, [r0, #-0]
     b5c:	00a01002 	adceq	r1, r0, r2
     b60:	4b6b1700 	blmi	1ac6768 <__bss_end__+0x1aba578>
     b64:	0e0289bf 	mcreq	9, 0, r8, cr2, cr15, {5}
     b68:	94010100 	strls	r0, [r1], #-256	; 0x100
     b6c:	02000000 	andeq	r0, r0, #0
     b70:	00007c00 	andeq	r7, r0, r0, lsl #24
     b74:	fb010200 	blx	4137e <__bss_end__+0x3518e>
     b78:	01000d0e 	tsteq	r0, lr, lsl #26
     b7c:	00010101 	andeq	r0, r1, r1, lsl #2
     b80:	00010000 	andeq	r0, r1, r0
     b84:	696c0100 	stmdbvs	ip!, {r8}^
     b88:	2f006362 	svccs	0x00006362
     b8c:	72657355 	rsbvc	r7, r5, #1409286145	; 0x54000001
     b90:	72622f73 	rsbvc	r2, r2, #460	; 0x1cc
     b94:	6a6e6169 	bvs	1b99140 <__bss_end__+0x1b8cf50>
     b98:	442f6e75 	strtmi	r6, [pc], #-3701	; ba0 <__code_start__-0x7460>
     b9c:	746b7365 	strbtvc	r7, [fp], #-869	; 0x365
     ba0:	732f706f 	teqvc	pc, #111	; 0x6f
     ba4:	6f6f6863 	svcvs	0x006f6863
     ba8:	70532f6c 	subsvc	r2, r3, ip, ror #30
     bac:	676e6972 			; <UNDEFINED> instruction: 0x676e6972
     bb0:	30323931 	eorscc	r3, r2, r1, lsr r9
     bb4:	3253432f 	subscc	r4, r3, #-1140850688	; 0xbc000000
     bb8:	584c3034 	stmdapl	ip, {r2, r4, r5, ip, sp}^
     bbc:	3273632f 	rsbscc	r6, r3, #-1140850688	; 0xbc000000
     bc0:	786c3034 	stmdavc	ip!, {r2, r4, r5, ip, sp}^
     bc4:	7330322d 	teqvc	r0, #-805306366	; 0xd0000002
     bc8:	6c2f7270 	sfmvs	f7, 4, [pc], #-448	; a10 <__code_start__-0x75f0>
     bcc:	69706269 	ldmdbvs	r0!, {r0, r3, r5, r6, r9, sp, lr}^
     bd0:	636e692f 	cmnvs	lr, #770048	; 0xbc000
     bd4:	6564756c 	strbvs	r7, [r4, #-1388]!	; 0x56c
     bd8:	75700000 	ldrbvc	r0, [r0, #-0]!
     bdc:	61686374 	smcvs	34356	; 0x8634
     be0:	00632e72 	rsbeq	r2, r3, r2, ror lr
     be4:	72000001 	andvc	r0, r0, #1
     be8:	682e6970 	stmdavs	lr!, {r4, r5, r6, r8, fp, sp, lr}
     bec:	00000200 	andeq	r0, r0, r0, lsl #4
     bf0:	02050000 	andeq	r0, r5, #0
     bf4:	0000a068 	andeq	sl, r0, r8, rrx
     bf8:	136b4a14 	cmnne	fp, #20, 20	; 0x14000
     bfc:	080213bc 	stmdaeq	r2, {r2, r3, r4, r5, r7, r8, r9, ip}
     c00:	a0010100 	andge	r0, r1, r0, lsl #2
     c04:	02000000 	andeq	r0, r0, #0
     c08:	00007900 	andeq	r7, r0, r0, lsl #18
     c0c:	fb010200 	blx	41416 <__bss_end__+0x35226>
     c10:	01000d0e 	tsteq	r0, lr, lsl #26
     c14:	00010101 	andeq	r0, r1, r1, lsl #2
     c18:	00010000 	andeq	r0, r1, r0
     c1c:	696c0100 	stmdbvs	ip!, {r8}^
     c20:	2f006362 	svccs	0x00006362
     c24:	72657355 	rsbvc	r7, r5, #1409286145	; 0x54000001
     c28:	72622f73 	rsbvc	r2, r2, #460	; 0x1cc
     c2c:	6a6e6169 	bvs	1b991d8 <__bss_end__+0x1b8cfe8>
     c30:	442f6e75 	strtmi	r6, [pc], #-3701	; c38 <__code_start__-0x73c8>
     c34:	746b7365 	strbtvc	r7, [fp], #-869	; 0x365
     c38:	732f706f 	teqvc	pc, #111	; 0x6f
     c3c:	6f6f6863 	svcvs	0x006f6863
     c40:	70532f6c 	subsvc	r2, r3, ip, ror #30
     c44:	676e6972 			; <UNDEFINED> instruction: 0x676e6972
     c48:	30323931 	eorscc	r3, r2, r1, lsr r9
     c4c:	3253432f 	subscc	r4, r3, #-1140850688	; 0xbc000000
     c50:	584c3034 	stmdapl	ip, {r2, r4, r5, ip, sp}^
     c54:	3273632f 	rsbscc	r6, r3, #-1140850688	; 0xbc000000
     c58:	786c3034 	stmdavc	ip!, {r2, r4, r5, ip, sp}^
     c5c:	7330322d 	teqvc	r0, #-805306366	; 0xd0000002
     c60:	6c2f7270 	sfmvs	f7, 4, [pc], #-448	; aa8 <__code_start__-0x7558>
     c64:	69706269 	ldmdbvs	r0!, {r0, r3, r5, r6, r9, sp, lr}^
     c68:	636e692f 	cmnvs	lr, #770048	; 0xbc000
     c6c:	6564756c 	strbvs	r7, [r4, #-1388]!	; 0x56c
     c70:	75700000 	ldrbvc	r0, [r0, #-0]!
     c74:	632e6b74 	teqvs	lr, #116, 22	; 0x1d000
     c78:	00000100 	andeq	r0, r0, r0, lsl #2
     c7c:	2e697072 	mcrcs	0, 3, r7, cr9, cr2, {3}
     c80:	00020068 	andeq	r0, r2, r8, rrx
     c84:	05000000 	streq	r0, [r0, #-0]
     c88:	00a0a402 	adceq	sl, r0, r2, lsl #8
     c8c:	2d4c1500 	cfstr64cs	mvdx1, [ip, #-0]
     c90:	02040200 	andeq	r0, r4, #0, 4
     c94:	0402002f 	streq	r0, [r2], #-47	; 0x2f
     c98:	02004902 	andeq	r4, r0, #32768	; 0x8000
     c9c:	2e060104 	adfcss	f0, f6, f4
     ca0:	06026b06 	streq	r6, [r2], -r6, lsl #22
     ca4:	f1010100 	setend	le
     ca8:	02000001 	andeq	r0, r0, #1
     cac:	0000e900 	andeq	lr, r0, r0, lsl #18
     cb0:	fb010200 	blx	414ba <__bss_end__+0x352ca>
     cb4:	01000d0e 	tsteq	r0, lr, lsl #26
     cb8:	00010101 	andeq	r0, r1, r1, lsl #2
     cbc:	00010000 	andeq	r0, r1, r0
     cc0:	696c0100 	stmdbvs	ip!, {r8}^
     cc4:	2f006362 	svccs	0x00006362
     cc8:	2f727375 	svccs	0x00727375
     ccc:	61636f6c 	cmnvs	r3, ip, ror #30
     cd0:	65432f6c 	strbvs	r2, [r3, #-3948]	; 0xf6c
     cd4:	72616c6c 	rsbvc	r6, r1, #108, 24	; 0x6c00
     cd8:	6d72612f 	ldfvse	f6, [r2, #-188]!	; 0xffffff44
     cdc:	6e6f6e2d 	cdpvs	14, 6, cr6, cr15, cr13, {1}
     ce0:	61652d65 	cmnvs	r5, r5, ror #26
     ce4:	342f6962 	strtcc	r6, [pc], #-2402	; cec <__code_start__-0x7314>
     ce8:	332e382e 	teqcc	lr, #3014656	; 0x2e0000
     cec:	3173632d 	cmncc	r3, sp, lsr #6
     cf0:	2f653037 	svccs	0x00653037
     cf4:	2f62696c 	svccs	0x0062696c
     cf8:	2f636367 	svccs	0x00636367
     cfc:	2d6d7261 	sfmcs	f7, 2, [sp, #-388]!	; 0xfffffe7c
     d00:	656e6f6e 	strbvs	r6, [lr, #-3950]!	; 0xf6e
     d04:	6261652d 	rsbvs	r6, r1, #188743680	; 0xb400000
     d08:	2e342f69 	cdpcs	15, 3, cr2, cr4, cr9, {3}
     d0c:	2f332e38 	svccs	0x00332e38
     d10:	6c636e69 	stclvs	14, cr6, [r3], #-420	; 0xfffffe5c
     d14:	00656475 	rsbeq	r6, r5, r5, ror r4
     d18:	6573552f 	ldrbvs	r5, [r3, #-1327]!	; 0x52f
     d1c:	622f7372 	eorvs	r7, pc, #-939524095	; 0xc8000001
     d20:	6e616972 	mcrvs	9, 3, r6, cr1, cr2, {3}
     d24:	2f6e756a 	svccs	0x006e756a
     d28:	6b736544 	blvs	1cda240 <__bss_end__+0x1cce050>
     d2c:	2f706f74 	svccs	0x00706f74
     d30:	6f686373 	svcvs	0x00686373
     d34:	532f6c6f 	teqpl	pc, #28416	; 0x6f00
     d38:	6e697270 	mcrvs	2, 3, r7, cr9, cr0, {3}
     d3c:	32393167 	eorscc	r3, r9, #-1073741799	; 0xc0000019
     d40:	53432f30 	movtpl	r2, #16176	; 0x3f30
     d44:	4c303432 	cfldrsmi	mvf3, [r0], #-200	; 0xffffff38
     d48:	73632f58 	cmnvc	r3, #88, 30	; 0x160
     d4c:	6c303432 	cfldrsvs	mvf3, [r0], #-200	; 0xffffff38
     d50:	30322d78 	eorscc	r2, r2, r8, ror sp
     d54:	2f727073 	svccs	0x00727073
     d58:	7062696c 	rsbvc	r6, r2, ip, ror #18
     d5c:	6e692f69 	cdpvs	15, 6, cr2, cr9, cr9, {3}
     d60:	64756c63 	ldrbtvs	r6, [r5], #-3171	; 0xc63
     d64:	76000065 	strvc	r0, [r0], -r5, rrx
     d68:	72702d61 	rsbsvc	r2, r0, #6208	; 0x1840
     d6c:	6b746e69 	blvs	1d1c718 <__bss_end__+0x1d10528>
     d70:	0100632e 	tsteq	r0, lr, lsr #6
     d74:	74730000 	ldrbtvc	r0, [r3], #-0
     d78:	67726164 	ldrbvs	r6, [r2, -r4, ror #2]!
     d7c:	0200682e 	andeq	r6, r0, #3014656	; 0x2e0000
     d80:	70720000 	rsbsvc	r0, r2, r0
     d84:	00682e69 	rsbeq	r2, r8, r9, ror #28
     d88:	3c000003 	stccc	0, cr0, [r0], {3}
     d8c:	6c697562 	cfstr64vs	mvdx7, [r9], #-392	; 0xfffffe78
     d90:	6e692d74 	mcrvs	13, 3, r2, cr9, cr4, {3}
     d94:	0000003e 	andeq	r0, r0, lr, lsr r0
     d98:	05000000 	streq	r0, [r0, #-0]
     d9c:	00a0d802 	adceq	sp, r0, r2, lsl #16
     da0:	01260300 	teqeq	r6, r0, lsl #6
     da4:	3113a501 	tstcc	r3, r1, lsl #10
     da8:	0402002d 	streq	r0, [r2], #-45	; 0x2d
     dac:	02002f02 	andeq	r2, r0, #2, 30
     db0:	002d0204 	eoreq	r0, sp, r4, lsl #4
     db4:	2f020402 	svccs	0x00020402
     db8:	01040200 	mrseq	r0, R12_usr
     dbc:	304c4c2d 	subcc	r4, ip, sp, lsr #24
     dc0:	4f2f4b14 	svcmi	0x002f4b14
     dc4:	02040200 	andeq	r0, r4, #0, 4
     dc8:	04020067 	streq	r0, [r2], #-103	; 0x67
     dcc:	4d4c6501 	cfstr64mi	mvdx6, [ip, #-4]
     dd0:	312fa030 	teqcc	pc, r0, lsr r0	; <UNPREDICTABLE>
     dd4:	16260230 			; <UNDEFINED> instruction: 0x16260230
     dd8:	002c2d84 	eoreq	r2, ip, r4, lsl #27
     ddc:	30010402 	andcc	r0, r1, r2, lsl #8
     de0:	01040200 	mrseq	r0, R12_usr
     de4:	00660633 	rsbeq	r0, r6, r3, lsr r6
     de8:	2e010402 	cdpcs	4, 0, cr0, cr1, cr2, {0}
     dec:	01040200 	mrseq	r0, R12_usr
     df0:	67210806 	strvs	r0, [r1, -r6, lsl #16]!
     df4:	8273032f 	rsbshi	r0, r3, #-1140850688	; 0xbc000000
     df8:	002e1303 	eoreq	r1, lr, r3, lsl #6
     dfc:	06010402 	streq	r0, [r1], -r2, lsl #8
     e00:	04020066 	streq	r0, [r2], #-102	; 0x66
     e04:	4b830601 	blmi	fe0c2610 <__bss_end__+0xfe0b6420>
     e08:	4b31674b 	blmi	c5ab3c <__bss_end__+0xc4e94c>
     e0c:	032e6503 	teqeq	lr, #12582912	; 0xc00000
     e10:	02002e23 	andeq	r2, r0, #560	; 0x230
     e14:	2e060104 	adfcss	f0, f6, f4
     e18:	01040200 	mrseq	r0, R12_usr
     e1c:	02009f06 	andeq	r9, r0, #6, 30
     e20:	086a0104 	stmdaeq	sl!, {r2, r8}^
     e24:	a403d723 	strge	sp, [r3], #-1827	; 0x723
     e28:	4b3c087f 	blmi	f0302c <__bss_end__+0xef6e3c>
     e2c:	01040200 	mrseq	r0, R12_usr
     e30:	08064a06 	stmdaeq	r6, {r1, r2, r9, fp, lr}
     e34:	4b2f4b21 	blmi	bd3ac0 <__bss_end__+0xbc78d0>
     e38:	f200db03 	vqdmulh.s<illegal width 8>	d13, d0, d3
     e3c:	32484c9f 	subcc	r4, r8, #40704	; 0x9f00
     e40:	4b842f4b 	blmi	fe10cb74 <__bss_end__+0xfe100984>
     e44:	314d2d2f 	cmpcc	sp, pc, lsr #26
     e48:	00832f30 	addeq	r2, r3, r0, lsr pc
     e4c:	2c010402 	cfstrscs	mvf0, [r1], {2}
     e50:	040200be 	streq	r0, [r2], #-190	; 0xbe
     e54:	064a0601 	strbeq	r0, [sl], -r1, lsl #12
     e58:	36022208 	strcc	r2, [r2], -r8, lsl #4
     e5c:	d60e0316 			; <UNDEFINED> instruction: 0xd60e0316
     e60:	08302108 	ldmdaeq	r0!, {r3, r8, sp}
     e64:	21083121 	tstcs	r8, r1, lsr #2
     e68:	30210830 	eorcc	r0, r1, r0, lsr r8
     e6c:	2108304b 	tstcs	r8, fp, asr #32
     e70:	83834b30 	orrhi	r4, r3, #48, 22	; 0xc000
     e74:	002f31d9 	ldrdeq	r3, [pc], -r9	; <UNPREDICTABLE>
     e78:	65010402 	strvs	r0, [r1, #-1026]	; 0x402
     e7c:	02040200 	andeq	r0, r4, #0, 4
     e80:	02004a06 	andeq	r4, r0, #24576	; 0x6000
     e84:	03060104 	movweq	r0, #24836	; 0x6104
     e88:	00667fbf 	strhteq	r7, [r6], #-255	; 0xffffff01
     e8c:	06020402 	streq	r0, [r2], -r2, lsl #8
     e90:	c5030666 	strgt	r0, [r3, #-1638]	; 0x666
     e94:	02684a00 	rsbeq	r4, r8, #0, 20
     e98:	01010016 	tsteq	r1, r6, lsl r0
     e9c:	0000009d 	muleq	r0, sp, r0
     ea0:	00860002 	addeq	r0, r6, r2
     ea4:	01020000 	mrseq	r0, (UNDEF: 2)
     ea8:	000d0efb 	strdeq	r0, [sp], -fp
     eac:	01010101 	tsteq	r1, r1, lsl #2
     eb0:	01000000 	mrseq	r0, (UNDEF: 0)
     eb4:	73010000 	movwvc	r0, #4096	; 0x1000
     eb8:	66666174 			; <UNDEFINED> instruction: 0x66666174
     ebc:	6372732d 	cmnvs	r2, #-1275068416	; 0xb4000000
     ec0:	73552f00 	cmpvc	r5, #0, 30
     ec4:	2f737265 	svccs	0x00737265
     ec8:	61697262 	cmnvs	r9, r2, ror #4
     ecc:	6e756a6e 	vsubvs.f32	s13, s10, s29
     ed0:	7365442f 	cmnvc	r5, #788529152	; 0x2f000000
     ed4:	706f746b 	rsbvc	r7, pc, fp, ror #8
     ed8:	6863732f 	stmdavs	r3!, {r0, r1, r2, r3, r5, r8, r9, ip, sp, lr}^
     edc:	2f6c6f6f 	svccs	0x006c6f6f
     ee0:	69727053 	ldmdbvs	r2!, {r0, r1, r4, r6, ip, sp, lr}^
     ee4:	3931676e 	ldmdbcc	r1!, {r1, r2, r3, r5, r6, r8, r9, sl, sp, lr}
     ee8:	432f3032 	teqmi	pc, #50	; 0x32
     eec:	30343253 	eorscc	r3, r4, r3, asr r2
     ef0:	632f584c 	teqvs	pc, #76, 16	; 0x4c0000
     ef4:	30343273 	eorscc	r3, r4, r3, ror r2
     ef8:	322d786c 	eorcc	r7, sp, #108, 16	; 0x6c0000
     efc:	72707330 	rsbsvc	r7, r0, #48, 6	; 0xc0000000
     f00:	62696c2f 	rsbvs	r6, r9, #12032	; 0x2f00
     f04:	692f6970 	stmdbvs	pc!, {r4, r5, r6, r8, fp, sp, lr}	; <UNPREDICTABLE>
     f08:	756c636e 	strbvc	r6, [ip, #-878]!	; 0x36e
     f0c:	00006564 	andeq	r6, r0, r4, ror #10
     f10:	61656c63 	cmnvs	r5, r3, ror #24
     f14:	65722d6e 	ldrbvs	r2, [r2, #-3438]!	; 0xd6e
     f18:	746f6f62 	strbtvc	r6, [pc], #-3938	; f20 <__code_start__-0x70e0>
     f1c:	0100632e 	tsteq	r0, lr, lsr #6
     f20:	70720000 	rsbsvc	r0, r2, r0
     f24:	00682e69 	rsbeq	r2, r8, r9, ror #28
     f28:	00000002 	andeq	r0, r0, r2
     f2c:	50020500 	andpl	r0, r2, r0, lsl #10
     f30:	150000a6 	strne	r0, [r0, #-166]	; 0xa6
     f34:	4b832f2f 	blmi	fe0ccbf8 <__bss_end__+0xfe0c0a08>
     f38:	01000602 	tsteq	r0, r2, lsl #12
     f3c:	0000a601 	andeq	sl, r0, r1, lsl #12
     f40:	80000200 	andhi	r0, r0, r0, lsl #4
     f44:	02000000 	andeq	r0, r0, #0
     f48:	0d0efb01 	vstreq	d15, [lr, #-4]
     f4c:	01010100 	mrseq	r0, (UNDEF: 17)
     f50:	00000001 	andeq	r0, r0, r1
     f54:	01000001 	tsteq	r0, r1
     f58:	66617473 			; <UNDEFINED> instruction: 0x66617473
     f5c:	72732d66 	rsbsvc	r2, r3, #6528	; 0x1980
     f60:	552f0063 	strpl	r0, [pc, #-99]!	; f05 <__code_start__-0x70fb>
     f64:	73726573 	cmnvc	r2, #482344960	; 0x1cc00000
     f68:	6972622f 	ldmdbvs	r2!, {r0, r1, r2, r3, r5, r9, sp, lr}^
     f6c:	756a6e61 	strbvc	r6, [sl, #-3681]!	; 0xe61
     f70:	65442f6e 	strbvs	r2, [r4, #-3950]	; 0xf6e
     f74:	6f746b73 	svcvs	0x00746b73
     f78:	63732f70 	cmnvs	r3, #112, 30	; 0x1c0
     f7c:	6c6f6f68 	stclvs	15, cr6, [pc], #-416	; de4 <__code_start__-0x721c>
     f80:	7270532f 	rsbsvc	r5, r0, #-1140850688	; 0xbc000000
     f84:	31676e69 	cmncc	r7, r9, ror #28
     f88:	2f303239 	svccs	0x00303239
     f8c:	34325343 	ldrtcc	r5, [r2], #-835	; 0x343
     f90:	2f584c30 	svccs	0x00584c30
     f94:	34327363 	ldrtcc	r7, [r2], #-867	; 0x363
     f98:	2d786c30 	ldclcs	12, cr6, [r8, #-192]!	; 0xffffff40
     f9c:	70733032 	rsbsvc	r3, r3, r2, lsr r0
     fa0:	696c2f72 	stmdbvs	ip!, {r1, r4, r5, r6, r8, r9, sl, fp, sp}^
     fa4:	2f697062 	svccs	0x00697062
     fa8:	6c636e69 	stclvs	14, cr6, [r3], #-420	; 0xfffffe5c
     fac:	00656475 	rsbeq	r6, r5, r5, ror r4
     fb0:	74736300 	ldrbtvc	r6, [r3], #-768	; 0x300
     fb4:	2e747261 	cdpcs	2, 7, cr7, cr4, cr1, {3}
     fb8:	00010063 	andeq	r0, r1, r3, rrx
     fbc:	69707200 	ldmdbvs	r0!, {r9, ip, sp, lr}^
     fc0:	0200682e 	andeq	r6, r0, #3014656	; 0x2e0000
     fc4:	00000000 	andeq	r0, r0, r0
     fc8:	a67c0205 	ldrbtge	r0, [ip], -r5, lsl #4
     fcc:	0c030000 	stceq	0, cr0, [r3], {-0}
     fd0:	2f313201 	svccs	0x00313201
     fd4:	02002f2d 	andeq	r2, r0, #45, 30	; 0xb4
     fd8:	03490104 	movteq	r0, #37124	; 0x9104
     fdc:	0d034a09 	vstreq	s8, [r3, #-36]	; 0xffffffdc
     fe0:	06022f2e 	streq	r2, [r2], -lr, lsr #30
     fe4:	a2010100 	andge	r0, r1, #0, 2
     fe8:	02000000 	andeq	r0, r0, #0
     fec:	00008e00 	andeq	r8, r0, r0, lsl #28
     ff0:	fb010200 	blx	417fa <__bss_end__+0x3560a>
     ff4:	01000d0e 	tsteq	r0, lr, lsl #26
     ff8:	00010101 	andeq	r0, r1, r1, lsl #2
     ffc:	00010000 	andeq	r0, r1, r0
    1000:	74730100 	ldrbtvc	r0, [r3], #-256	; 0x100
    1004:	2d666661 	stclcs	6, cr6, [r6, #-388]!	; 0xfffffe7c
    1008:	00637273 	rsbeq	r7, r3, r3, ror r2
    100c:	6573552f 	ldrbvs	r5, [r3, #-1327]!	; 0x52f
    1010:	622f7372 	eorvs	r7, pc, #-939524095	; 0xc8000001
    1014:	6e616972 	mcrvs	9, 3, r6, cr1, cr2, {3}
    1018:	2f6e756a 	svccs	0x006e756a
    101c:	6b736544 	blvs	1cda534 <__bss_end__+0x1cce344>
    1020:	2f706f74 	svccs	0x00706f74
    1024:	6f686373 	svcvs	0x00686373
    1028:	532f6c6f 	teqpl	pc, #28416	; 0x6f00
    102c:	6e697270 	mcrvs	2, 3, r7, cr9, cr0, {3}
    1030:	32393167 	eorscc	r3, r9, #-1073741799	; 0xc0000019
    1034:	53432f30 	movtpl	r2, #16176	; 0x3f30
    1038:	4c303432 	cfldrsmi	mvf3, [r0], #-200	; 0xffffff38
    103c:	73632f58 	cmnvc	r3, #88, 30	; 0x160
    1040:	6c303432 	cfldrsvs	mvf3, [r0], #-200	; 0xffffff38
    1044:	30322d78 	eorscc	r2, r2, r8, ror sp
    1048:	2f727073 	svccs	0x00727073
    104c:	7062696c 	rsbvc	r6, r2, ip, ror #18
    1050:	6e692f69 	cdpvs	15, 6, cr2, cr9, cr9, {3}
    1054:	64756c63 	ldrbtvs	r6, [r5], #-3171	; 0xc63
    1058:	64000065 	strvs	r0, [r0], #-101	; 0x65
    105c:	75616665 	strbvc	r6, [r1, #-1637]!	; 0x665
    1060:	682d746c 	stmdavs	sp!, {r2, r3, r5, r6, sl, ip, sp, lr}
    1064:	6c646e61 	stclvs	14, cr6, [r4], #-388	; 0xfffffe7c
    1068:	662d7265 	strtvs	r7, [sp], -r5, ror #4
    106c:	2e747361 	cdpcs	3, 7, cr7, cr4, cr1, {3}
    1070:	00010063 	andeq	r0, r1, r3, rrx
    1074:	69707200 	ldmdbvs	r0!, {r9, ip, sp, lr}^
    1078:	0200682e 	andeq	r6, r0, #3014656	; 0x2e0000
    107c:	00000000 	andeq	r0, r0, r0
    1080:	a6b40205 	ldrtge	r0, [r4], r5, lsl #4
    1084:	66130000 	ldrvs	r0, [r3], -r0
    1088:	01001c02 	tsteq	r0, r2, lsl #24
    108c:	0000a601 	andeq	sl, r0, r1, lsl #12
    1090:	92000200 	andls	r0, r0, #0, 4
    1094:	02000000 	andeq	r0, r0, #0
    1098:	0d0efb01 	vstreq	d15, [lr, #-4]
    109c:	01010100 	mrseq	r0, (UNDEF: 17)
    10a0:	00000001 	andeq	r0, r0, r1
    10a4:	01000001 	tsteq	r0, r1
    10a8:	66617473 			; <UNDEFINED> instruction: 0x66617473
    10ac:	72732d66 	rsbsvc	r2, r3, #6528	; 0x1980
    10b0:	552f0063 	strpl	r0, [pc, #-99]!	; 1055 <__code_start__-0x6fab>
    10b4:	73726573 	cmnvc	r2, #482344960	; 0x1cc00000
    10b8:	6972622f 	ldmdbvs	r2!, {r0, r1, r2, r3, r5, r9, sp, lr}^
    10bc:	756a6e61 	strbvc	r6, [sl, #-3681]!	; 0xe61
    10c0:	65442f6e 	strbvs	r2, [r4, #-3950]	; 0xf6e
    10c4:	6f746b73 	svcvs	0x00746b73
    10c8:	63732f70 	cmnvs	r3, #112, 30	; 0x1c0
    10cc:	6c6f6f68 	stclvs	15, cr6, [pc], #-416	; f34 <__code_start__-0x70cc>
    10d0:	7270532f 	rsbsvc	r5, r0, #-1140850688	; 0xbc000000
    10d4:	31676e69 	cmncc	r7, r9, ror #28
    10d8:	2f303239 	svccs	0x00303239
    10dc:	34325343 	ldrtcc	r5, [r2], #-835	; 0x343
    10e0:	2f584c30 	svccs	0x00584c30
    10e4:	34327363 	ldrtcc	r7, [r2], #-867	; 0x363
    10e8:	2d786c30 	ldclcs	12, cr6, [r8, #-192]!	; 0xffffff40
    10ec:	70733032 	rsbsvc	r3, r3, r2, lsr r0
    10f0:	696c2f72 	stmdbvs	ip!, {r1, r4, r5, r6, r8, r9, sl, fp, sp}^
    10f4:	2f697062 	svccs	0x00697062
    10f8:	6c636e69 	stclvs	14, cr6, [r3], #-420	; 0xfffffe5c
    10fc:	00656475 	rsbeq	r6, r5, r5, ror r4
    1100:	66656400 	strbtvs	r6, [r5], -r0, lsl #8
    1104:	746c7561 	strbtvc	r7, [ip], #-1377	; 0x561
    1108:	6e61682d 	cdpvs	8, 6, cr6, cr1, cr13, {1}
    110c:	72656c64 	rsbvc	r6, r5, #100, 24	; 0x6400
    1110:	6572702d 	ldrbvs	r7, [r2, #-45]!	; 0x2d
    1114:	63746566 	cmnvs	r4, #427819008	; 0x19800000
    1118:	00632e68 	rsbeq	r2, r3, r8, ror #28
    111c:	72000001 	andvc	r0, r0, #1
    1120:	682e6970 	stmdavs	lr!, {r4, r5, r6, r8, fp, sp, lr}
    1124:	00000200 	andeq	r0, r0, r0, lsl #4
    1128:	02050000 	andeq	r0, r5, #0
    112c:	0000a6f8 	strdeq	sl, [r0], -r8
    1130:	1c026613 	stcne	6, cr6, [r2], {19}
    1134:	a3010100 	movwge	r0, #4352	; 0x1100
    1138:	02000000 	andeq	r0, r0, #0
    113c:	00008f00 	andeq	r8, r0, r0, lsl #30
    1140:	fb010200 	blx	4194a <__bss_end__+0x3575a>
    1144:	01000d0e 	tsteq	r0, lr, lsl #26
    1148:	00010101 	andeq	r0, r1, r1, lsl #2
    114c:	00010000 	andeq	r0, r1, r0
    1150:	74730100 	ldrbtvc	r0, [r3], #-256	; 0x100
    1154:	2d666661 	stclcs	6, cr6, [r6, #-388]!	; 0xfffffe7c
    1158:	00637273 	rsbeq	r7, r3, r3, ror r2
    115c:	6573552f 	ldrbvs	r5, [r3, #-1327]!	; 0x52f
    1160:	622f7372 	eorvs	r7, pc, #-939524095	; 0xc8000001
    1164:	6e616972 	mcrvs	9, 3, r6, cr1, cr2, {3}
    1168:	2f6e756a 	svccs	0x006e756a
    116c:	6b736544 	blvs	1cda684 <__bss_end__+0x1cce494>
    1170:	2f706f74 	svccs	0x00706f74
    1174:	6f686373 	svcvs	0x00686373
    1178:	532f6c6f 	teqpl	pc, #28416	; 0x6f00
    117c:	6e697270 	mcrvs	2, 3, r7, cr9, cr0, {3}
    1180:	32393167 	eorscc	r3, r9, #-1073741799	; 0xc0000019
    1184:	53432f30 	movtpl	r2, #16176	; 0x3f30
    1188:	4c303432 	cfldrsmi	mvf3, [r0], #-200	; 0xffffff38
    118c:	73632f58 	cmnvc	r3, #88, 30	; 0x160
    1190:	6c303432 	cfldrsvs	mvf3, [r0], #-200	; 0xffffff38
    1194:	30322d78 	eorscc	r2, r2, r8, ror sp
    1198:	2f727073 	svccs	0x00727073
    119c:	7062696c 	rsbvc	r6, r2, ip, ror #18
    11a0:	6e692f69 	cdpvs	15, 6, cr2, cr9, cr9, {3}
    11a4:	64756c63 	ldrbtvs	r6, [r5], #-3171	; 0xc63
    11a8:	64000065 	strvs	r0, [r0], #-101	; 0x65
    11ac:	75616665 	strbvc	r6, [r1, #-1637]!	; 0x665
    11b0:	682d746c 	stmdavs	sp!, {r2, r3, r5, r6, sl, ip, sp, lr}
    11b4:	6c646e61 	stclvs	14, cr6, [r4], #-388	; 0xfffffe7c
    11b8:	722d7265 	eorvc	r7, sp, #1342177286	; 0x50000006
    11bc:	74657365 	strbtvc	r7, [r5], #-869	; 0x365
    11c0:	0100632e 	tsteq	r0, lr, lsr #6
    11c4:	70720000 	rsbsvc	r0, r2, r0
    11c8:	00682e69 	rsbeq	r2, r8, r9, ror #28
    11cc:	00000002 	andeq	r0, r0, r2
    11d0:	3c020500 	cfstr32cc	mvfx0, [r2], {-0}
    11d4:	130000a7 	movwne	r0, #167	; 0xa7
    11d8:	001c0266 	andseq	r0, ip, r6, ror #4
    11dc:	00ac0101 	adceq	r0, ip, r1, lsl #2
    11e0:	00020000 	andeq	r0, r2, r0
    11e4:	00000098 	muleq	r0, r8, r0
    11e8:	0efb0102 	cdpeq	1, 15, cr0, cr11, cr2, {0}
    11ec:	0101000d 	tsteq	r1, sp
    11f0:	00000101 	andeq	r0, r0, r1, lsl #2
    11f4:	00000100 	andeq	r0, r0, r0, lsl #2
    11f8:	61747301 	cmnvs	r4, r1, lsl #6
    11fc:	732d6666 	teqvc	sp, #106954752	; 0x6600000
    1200:	2f006372 	svccs	0x00006372
    1204:	72657355 	rsbvc	r7, r5, #1409286145	; 0x54000001
    1208:	72622f73 	rsbvc	r2, r2, #460	; 0x1cc
    120c:	6a6e6169 	bvs	1b997b8 <__bss_end__+0x1b8d5c8>
    1210:	442f6e75 	strtmi	r6, [pc], #-3701	; 1218 <__code_start__-0x6de8>
    1214:	746b7365 	strbtvc	r7, [fp], #-869	; 0x365
    1218:	732f706f 	teqvc	pc, #111	; 0x6f
    121c:	6f6f6863 	svcvs	0x006f6863
    1220:	70532f6c 	subsvc	r2, r3, ip, ror #30
    1224:	676e6972 			; <UNDEFINED> instruction: 0x676e6972
    1228:	30323931 	eorscc	r3, r2, r1, lsr r9
    122c:	3253432f 	subscc	r4, r3, #-1140850688	; 0xbc000000
    1230:	584c3034 	stmdapl	ip, {r2, r4, r5, ip, sp}^
    1234:	3273632f 	rsbscc	r6, r3, #-1140850688	; 0xbc000000
    1238:	786c3034 	stmdavc	ip!, {r2, r4, r5, ip, sp}^
    123c:	7330322d 	teqvc	r0, #-805306366	; 0xd0000002
    1240:	6c2f7270 	sfmvs	f7, 4, [pc], #-448	; 1088 <__code_start__-0x6f78>
    1244:	69706269 	ldmdbvs	r0!, {r0, r3, r5, r6, r9, sp, lr}^
    1248:	636e692f 	cmnvs	lr, #770048	; 0xbc000
    124c:	6564756c 	strbvs	r7, [r4, #-1388]!	; 0x56c
    1250:	65640000 	strbvs	r0, [r4, #-0]!
    1254:	6c756166 	ldfvse	f6, [r5], #-408	; 0xfffffe68
    1258:	61682d74 	smcvs	33492	; 0x82d4
    125c:	656c646e 	strbvs	r6, [ip, #-1134]!	; 0x46e
    1260:	6e752d72 	mrcvs	13, 3, r2, cr5, cr2, {3}
    1264:	69666564 	stmdbvs	r6!, {r2, r5, r6, r8, sl, sp, lr}^
    1268:	2d64656e 	cfstr64cs	mvdx6, [r4, #-440]!	; 0xfffffe48
    126c:	74736e69 	ldrbtvc	r6, [r3], #-3689	; 0xe69
    1270:	0100632e 	tsteq	r0, lr, lsr #6
    1274:	70720000 	rsbsvc	r0, r2, r0
    1278:	00682e69 	rsbeq	r2, r8, r9, ror #28
    127c:	00000002 	andeq	r0, r0, r2
    1280:	80020500 	andhi	r0, r2, r0, lsl #10
    1284:	130000a7 	movwne	r0, #167	; 0xa7
    1288:	001c0266 	andseq	r0, ip, r6, ror #4
    128c:	00470101 	subeq	r0, r7, r1, lsl #2
    1290:	00020000 	andeq	r0, r2, r0
    1294:	00000033 	andeq	r0, r0, r3, lsr r0
    1298:	0efb0102 	cdpeq	1, 15, cr0, cr11, cr2, {0}
    129c:	0101000d 	tsteq	r1, sp
    12a0:	00000101 	andeq	r0, r0, r1, lsl #2
    12a4:	00000100 	andeq	r0, r0, r0, lsl #2
    12a8:	61747301 	cmnvs	r4, r1, lsl #6
    12ac:	732d6666 	teqvc	sp, #106954752	; 0x6600000
    12b0:	00006372 	andeq	r6, r0, r2, ror r3
    12b4:	61666564 	cmnvs	r6, r4, ror #10
    12b8:	2d746c75 	ldclcs	12, cr6, [r4, #-468]!	; 0xfffffe2c
    12bc:	646e6168 	strbtvs	r6, [lr], #-360	; 0x168
    12c0:	7372656c 	cmnvc	r2, #108, 10	; 0x1b000000
    12c4:	0100632e 	tsteq	r0, lr, lsr #6
    12c8:	00000000 	andeq	r0, r0, r0
    12cc:	a7c40205 	strbge	r0, [r4, r5, lsl #4]
    12d0:	2f150000 	svccs	0x00150000
    12d4:	01000202 	tsteq	r0, r2, lsl #4
    12d8:	0000c901 	andeq	ip, r0, r1, lsl #18
    12dc:	9a000200 	bls	1ae4 <__code_start__-0x651c>
    12e0:	02000000 	andeq	r0, r0, #0
    12e4:	0d0efb01 	vstreq	d15, [lr, #-4]
    12e8:	01010100 	mrseq	r0, (UNDEF: 17)
    12ec:	00000001 	andeq	r0, r0, r1
    12f0:	01000001 	tsteq	r0, r1
    12f4:	66617473 			; <UNDEFINED> instruction: 0x66617473
    12f8:	72732d66 	rsbsvc	r2, r3, #6528	; 0x1980
    12fc:	552f0063 	strpl	r0, [pc, #-99]!	; 12a1 <__code_start__-0x6d5f>
    1300:	73726573 	cmnvc	r2, #482344960	; 0x1cc00000
    1304:	6972622f 	ldmdbvs	r2!, {r0, r1, r2, r3, r5, r9, sp, lr}^
    1308:	756a6e61 	strbvc	r6, [sl, #-3681]!	; 0xe61
    130c:	65442f6e 	strbvs	r2, [r4, #-3950]	; 0xf6e
    1310:	6f746b73 	svcvs	0x00746b73
    1314:	63732f70 	cmnvs	r3, #112, 30	; 0x1c0
    1318:	6c6f6f68 	stclvs	15, cr6, [pc], #-416	; 1180 <__code_start__-0x6e80>
    131c:	7270532f 	rsbsvc	r5, r0, #-1140850688	; 0xbc000000
    1320:	31676e69 	cmncc	r7, r9, ror #28
    1324:	2f303239 	svccs	0x00303239
    1328:	34325343 	ldrtcc	r5, [r2], #-835	; 0x343
    132c:	2f584c30 	svccs	0x00584c30
    1330:	34327363 	ldrtcc	r7, [r2], #-867	; 0x363
    1334:	2d786c30 	ldclcs	12, cr6, [r8, #-192]!	; 0xffffff40
    1338:	70733032 	rsbsvc	r3, r3, r2, lsr r0
    133c:	696c2f72 	stmdbvs	ip!, {r1, r4, r5, r6, r8, r9, sl, fp, sp}^
    1340:	2f697062 	svccs	0x00697062
    1344:	6c636e69 	stclvs	14, cr6, [r3], #-420	; 0xfffffe5c
    1348:	00656475 	rsbeq	r6, r5, r5, ror r4
    134c:	746e6900 	strbtvc	r6, [lr], #-2304	; 0x900
    1350:	75727265 	ldrbvc	r7, [r2, #-613]!	; 0x265
    1354:	2d737470 	cfldrdcs	mvd7, [r3, #-448]!	; 0xfffffe40
    1358:	00632e63 	rsbeq	r2, r3, r3, ror #28
    135c:	72000001 	andvc	r0, r0, #1
    1360:	692d6970 	pushvs	{r4, r5, r6, r8, fp, sp, lr}
    1364:	7265746e 	rsbvc	r7, r5, #1845493760	; 0x6e000000
    1368:	74707572 	ldrbtvc	r7, [r0], #-1394	; 0x572
    136c:	00682e73 	rsbeq	r2, r8, r3, ror lr
    1370:	72000002 	andvc	r0, r0, #2
    1374:	682e6970 	stmdavs	lr!, {r4, r5, r6, r8, fp, sp, lr}
    1378:	00000200 	andeq	r0, r0, r0, lsl #4
    137c:	02050000 	andeq	r0, r5, #0
    1380:	0000a7cc 	andeq	sl, r0, ip, asr #15
    1384:	31011a03 	tstcc	r1, r3, lsl #20
    1388:	3667672f 	strbtcc	r6, [r7], -pc, lsr #14
    138c:	002d2f83 	eoreq	r2, sp, r3, lsl #31
    1390:	2f020402 	svccs	0x00020402
    1394:	02040200 	andeq	r0, r4, #0, 4
    1398:	04020065 	streq	r0, [r2], #-101	; 0x65
    139c:	062e0601 	strteq	r0, [lr], -r1, lsl #12
    13a0:	000a024c 	andeq	r0, sl, ip, asr #4
    13a4:	00a20101 	adceq	r0, r2, r1, lsl #2
    13a8:	00020000 	andeq	r0, r2, r0
    13ac:	00000080 	andeq	r0, r0, r0, lsl #1
    13b0:	0efb0102 	cdpeq	1, 15, cr0, cr11, cr2, {0}
    13b4:	0101000d 	tsteq	r1, sp
    13b8:	00000101 	andeq	r0, r0, r1, lsl #2
    13bc:	00000100 	andeq	r0, r0, r0, lsl #2
    13c0:	61747301 	cmnvs	r4, r1, lsl #6
    13c4:	732d6666 	teqvc	sp, #106954752	; 0x6600000
    13c8:	2f006372 	svccs	0x00006372
    13cc:	72657355 	rsbvc	r7, r5, #1409286145	; 0x54000001
    13d0:	72622f73 	rsbvc	r2, r2, #460	; 0x1cc
    13d4:	6a6e6169 	bvs	1b99980 <__bss_end__+0x1b8d790>
    13d8:	442f6e75 	strtmi	r6, [pc], #-3701	; 13e0 <__code_start__-0x6c20>
    13dc:	746b7365 	strbtvc	r7, [fp], #-869	; 0x365
    13e0:	732f706f 	teqvc	pc, #111	; 0x6f
    13e4:	6f6f6863 	svcvs	0x006f6863
    13e8:	70532f6c 	subsvc	r2, r3, ip, ror #30
    13ec:	676e6972 			; <UNDEFINED> instruction: 0x676e6972
    13f0:	30323931 	eorscc	r3, r2, r1, lsr r9
    13f4:	3253432f 	subscc	r4, r3, #-1140850688	; 0xbc000000
    13f8:	584c3034 	stmdapl	ip, {r2, r4, r5, ip, sp}^
    13fc:	3273632f 	rsbscc	r6, r3, #-1140850688	; 0xbc000000
    1400:	786c3034 	stmdavc	ip!, {r2, r4, r5, ip, sp}^
    1404:	7330322d 	teqvc	r0, #-805306366	; 0xd0000002
    1408:	6c2f7270 	sfmvs	f7, 4, [pc], #-448	; 1250 <__code_start__-0x6db0>
    140c:	69706269 	ldmdbvs	r0!, {r0, r3, r5, r6, r9, sp, lr}^
    1410:	636e692f 	cmnvs	lr, #770048	; 0xbc000
    1414:	6564756c 	strbvs	r7, [r4, #-1388]!	; 0x56c
    1418:	65720000 	ldrbvs	r0, [r2, #-0]!
    141c:	746f6f62 	strbtvc	r6, [pc], #-3938	; 1424 <__code_start__-0x6bdc>
    1420:	0100632e 	tsteq	r0, lr, lsr #6
    1424:	70720000 	rsbsvc	r0, r2, r0
    1428:	00682e69 	rsbeq	r2, r8, r9, ror #28
    142c:	00000002 	andeq	r0, r0, r2
    1430:	38020500 	stmdacc	r2, {r8, sl}
    1434:	030000a8 	movweq	r0, #168	; 0xa8
    1438:	3114010d 	tstcc	r4, sp, lsl #2
    143c:	2f15852f 	svccs	0x0015852f
    1440:	672f4d4b 	strvs	r4, [pc, -fp, asr #26]!
    1444:	02675235 	rsbeq	r5, r7, #1342177283	; 0x50000003
    1448:	01010010 	tsteq	r1, r0, lsl r0
    144c:	000000ae 	andeq	r0, r0, lr, lsr #1
    1450:	007f0002 	rsbseq	r0, pc, r2
    1454:	01020000 	mrseq	r0, (UNDEF: 2)
    1458:	000d0efb 	strdeq	r0, [sp], -fp
    145c:	01010101 	tsteq	r1, r1, lsl #2
    1460:	01000000 	mrseq	r0, (UNDEF: 0)
    1464:	73010000 	movwvc	r0, #4096	; 0x1000
    1468:	66666174 			; <UNDEFINED> instruction: 0x66666174
    146c:	6372732d 	cmnvs	r2, #-1275068416	; 0xb4000000
    1470:	73552f00 	cmpvc	r5, #0, 30
    1474:	2f737265 	svccs	0x00737265
    1478:	61697262 	cmnvs	r9, r2, ror #4
    147c:	6e756a6e 	vsubvs.f32	s13, s10, s29
    1480:	7365442f 	cmnvc	r5, #788529152	; 0x2f000000
    1484:	706f746b 	rsbvc	r7, pc, fp, ror #8
    1488:	6863732f 	stmdavs	r3!, {r0, r1, r2, r3, r5, r8, r9, ip, sp, lr}^
    148c:	2f6c6f6f 	svccs	0x006c6f6f
    1490:	69727053 	ldmdbvs	r2!, {r0, r1, r4, r6, ip, sp, lr}^
    1494:	3931676e 	ldmdbcc	r1!, {r1, r2, r3, r5, r6, r8, r9, sl, sp, lr}
    1498:	432f3032 	teqmi	pc, #50	; 0x32
    149c:	30343253 	eorscc	r3, r4, r3, asr r2
    14a0:	632f584c 	teqvs	pc, #76, 16	; 0x4c0000
    14a4:	30343273 	eorscc	r3, r4, r3, ror r2
    14a8:	322d786c 	eorcc	r7, sp, #108, 16	; 0x6c0000
    14ac:	72707330 	rsbsvc	r7, r0, #48, 6	; 0xc0000000
    14b0:	62696c2f 	rsbvs	r6, r9, #12032	; 0x2f00
    14b4:	692f6970 	stmdbvs	pc!, {r4, r5, r6, r8, fp, sp, lr}	; <UNPREDICTABLE>
    14b8:	756c636e 	strbvc	r6, [ip, #-878]!	; 0x36e
    14bc:	00006564 	andeq	r6, r0, r4, ror #10
    14c0:	656d6974 	strbvs	r6, [sp, #-2420]!	; 0x974
    14c4:	00632e72 	rsbeq	r2, r3, r2, ror lr
    14c8:	72000001 	andvc	r0, r0, #1
    14cc:	682e6970 	stmdavs	lr!, {r4, r5, r6, r8, fp, sp, lr}
    14d0:	00000200 	andeq	r0, r0, r0, lsl #4
    14d4:	02050000 	andeq	r0, r5, #0
    14d8:	0000a8ac 	andeq	sl, r0, ip, lsr #17
    14dc:	2d2f1416 	cfstrscs	mvf1, [pc, #-88]!	; 148c <__code_start__-0x6b74>
    14e0:	01040200 	mrseq	r0, R12_usr
    14e4:	6d062e06 	stcvs	14, cr2, [r6, #-24]	; 0xffffffe8
    14e8:	4d4b2f31 	stclmi	15, cr2, [fp, #-196]	; 0xffffff3c
    14ec:	304b2f31 	subcc	r2, fp, r1, lsr pc
    14f0:	2f4c4b4c 	svccs	0x004c4b4c
    14f4:	842f2f6a 	strthi	r2, [pc], #-3946	; 14fc <__code_start__-0x6b04>
    14f8:	0008022f 	andeq	r0, r8, pc, lsr #4
    14fc:	01480101 	cmpeq	r8, r1, lsl #2
    1500:	00020000 	andeq	r0, r2, r0
    1504:	00000102 	andeq	r0, r0, r2, lsl #2
    1508:	0efb0102 	cdpeq	1, 15, cr0, cr11, cr2, {0}
    150c:	0101000d 	tsteq	r1, sp
    1510:	00000101 	andeq	r0, r0, r1, lsl #2
    1514:	00000100 	andeq	r0, r0, r0, lsl #2
    1518:	73752f01 	cmnvc	r5, #1, 30
    151c:	6e692f72 	mcrvs	15, 3, r2, cr9, cr2, {3}
    1520:	64756c63 	ldrbtvs	r6, [r5], #-3171	; 0xc63
    1524:	656e2f65 	strbvs	r2, [lr, #-3941]!	; 0xf65
    1528:	62696c77 	rsbvs	r6, r9, #30464	; 0x7700
    152c:	7379732f 	cmnvc	r9, #-1140850688	; 0xbc000000
    1530:	73752f00 	cmnvc	r5, #0, 30
    1534:	696c2f72 	stmdbvs	ip!, {r1, r4, r5, r6, r8, r9, sl, fp, sp}^
    1538:	63672f62 	cmnvs	r7, #392	; 0x188
    153c:	72612f63 	rsbvc	r2, r1, #396	; 0x18c
    1540:	6f6e2d6d 	svcvs	0x006e2d6d
    1544:	652d656e 	strvs	r6, [sp, #-1390]!	; 0x56e
    1548:	2f696261 	svccs	0x00696261
    154c:	2e332e36 	mrccs	14, 1, r2, cr3, cr6, {1}
    1550:	6e692f31 	mcrvs	15, 3, r2, cr9, cr1, {1}
    1554:	64756c63 	ldrbtvs	r6, [r5], #-3171	; 0xc63
    1558:	682f0065 	stmdavs	pc!, {r0, r2, r5, r6}	; <UNPREDICTABLE>
    155c:	2f656d6f 	svccs	0x00656d6f
    1560:	6c676e65 	stclvs	14, cr6, [r7], #-404	; 0xfffffe6c
    1564:	632f7265 	teqvs	pc, #1342177286	; 0x50000006
    1568:	7373616c 	cmnvc	r3, #108, 2
    156c:	3273632f 	rsbscc	r6, r3, #-1140850688	; 0xbc000000
    1570:	786c3034 	stmdavc	ip!, {r2, r4, r5, ip, sp}^
    1574:	7330322d 	teqvc	r0, #-805306366	; 0xd0000002
    1578:	2f2f7270 	svccs	0x002f7270
    157c:	7062696c 	rsbvc	r6, r2, ip, ror #18
    1580:	682f0069 	stmdavs	pc!, {r0, r3, r5, r6}	; <UNPREDICTABLE>
    1584:	2f656d6f 	svccs	0x00656d6f
    1588:	6c676e65 	stclvs	14, cr6, [r7], #-404	; 0xfffffe6c
    158c:	632f7265 	teqvs	pc, #1342177286	; 0x50000006
    1590:	7373616c 	cmnvc	r3, #108, 2
    1594:	3273632f 	rsbscc	r6, r3, #-1140850688	; 0xbc000000
    1598:	786c3034 	stmdavc	ip!, {r2, r4, r5, ip, sp}^
    159c:	7330322d 	teqvc	r0, #-805306366	; 0xd0000002
    15a0:	2f2f7270 	svccs	0x002f7270
    15a4:	7062696c 	rsbvc	r6, r2, ip, ror #18
    15a8:	74732f69 	ldrbtvc	r2, [r3], #-3945	; 0xf69
    15ac:	2d666661 	stclcs	6, cr6, [r6, #-388]!	; 0xfffffe7c
    15b0:	00637273 	rsbeq	r7, r3, r3, ror r2
    15b4:	72617500 	rsbvc	r7, r1, #0, 10
    15b8:	00632e74 	rsbeq	r2, r3, r4, ror lr
    15bc:	6c000000 	stcvs	0, cr0, [r0], {-0}
    15c0:	2e6b636f 	cdpcs	3, 6, cr6, cr11, cr15, {3}
    15c4:	00010068 	andeq	r0, r1, r8, rrx
    15c8:	79745f00 	ldmdbvc	r4!, {r8, r9, sl, fp, ip, lr}^
    15cc:	2e736570 	mrccs	5, 3, r6, cr3, cr0, {3}
    15d0:	00010068 	andeq	r0, r1, r8, rrx
    15d4:	64747300 	ldrbtvs	r7, [r4], #-768	; 0x300
    15d8:	2e666564 	cdpcs	5, 6, cr6, cr6, cr4, {3}
    15dc:	00020068 	andeq	r0, r2, r8, rrx
    15e0:	65657200 	strbvs	r7, [r5, #-512]!	; 0x200
    15e4:	682e746e 	stmdavs	lr!, {r1, r2, r3, r5, r6, sl, ip, sp, lr}
    15e8:	00000100 	andeq	r0, r0, r0, lsl #2
    15ec:	2e697072 	mcrcs	0, 3, r7, cr9, cr2, {3}
    15f0:	00030068 	andeq	r0, r3, r8, rrx
    15f4:	72617500 	rsbvc	r7, r1, #0, 10
    15f8:	00682e74 	rsbeq	r2, r8, r4, ror lr
    15fc:	67000004 	strvs	r0, [r0, -r4]
    1600:	2e6f6970 	mcrcs	9, 3, r6, cr15, cr0, {3}
    1604:	00040068 	andeq	r0, r4, r8, rrx
    1608:	05000000 	streq	r0, [r0, #-0]
    160c:	00a9a802 	adceq	sl, r9, r2, lsl #16
    1610:	012c0300 	teqeq	ip, r0, lsl #6
    1614:	9e0c0367 	cdpls	3, 0, cr0, cr12, cr7, {3}
    1618:	35686735 	strbcc	r6, [r8, #-1845]!	; 0x735
    161c:	2e0c0368 	cdpcs	3, 0, cr0, cr12, cr8, {3}
    1620:	69696b85 	stmdbvs	r9!, {r0, r2, r7, r8, r9, fp, sp, lr}^
    1624:	6b660c03 	blvs	1984638 <__bss_end__+0x1978448>
    1628:	34420867 	strbcc	r0, [r2], #-2151	; 0x867
    162c:	68364b68 	ldmdavs	r6!, {r3, r5, r6, r8, r9, fp, lr}
    1630:	02002f87 	andeq	r2, r0, #540	; 0x21c
    1634:	682f0104 	stmdavs	pc!, {r2, r8}	; <UNPREDICTABLE>
    1638:	4b673067 	blmi	19cd7dc <__bss_end__+0x19c15ec>
    163c:	01040200 	mrseq	r0, R12_usr
    1640:	6967682f 	stmdbvs	r7!, {r0, r1, r2, r3, r5, fp, sp, lr}^
    1644:	0006022e 	andeq	r0, r6, lr, lsr #4
    1648:	012b0101 	teqeq	fp, r1, lsl #2
    164c:	00020000 	andeq	r0, r2, r0
    1650:	000000f8 	strdeq	r0, [r0], -r8
    1654:	0efb0102 	cdpeq	1, 15, cr0, cr11, cr2, {0}
    1658:	0101000d 	tsteq	r1, sp
    165c:	00000101 	andeq	r0, r0, r1, lsl #2
    1660:	00000100 	andeq	r0, r0, r0, lsl #2
    1664:	73752f01 	cmnvc	r5, #1, 30
    1668:	6e692f72 	mcrvs	15, 3, r2, cr9, cr2, {3}
    166c:	64756c63 	ldrbtvs	r6, [r5], #-3171	; 0xc63
    1670:	656e2f65 	strbvs	r2, [lr, #-3941]!	; 0xf65
    1674:	62696c77 	rsbvs	r6, r9, #30464	; 0x7700
    1678:	7379732f 	cmnvc	r9, #-1140850688	; 0xbc000000
    167c:	73752f00 	cmnvc	r5, #0, 30
    1680:	696c2f72 	stmdbvs	ip!, {r1, r4, r5, r6, r8, r9, sl, fp, sp}^
    1684:	63672f62 	cmnvs	r7, #392	; 0x188
    1688:	72612f63 	rsbvc	r2, r1, #396	; 0x18c
    168c:	6f6e2d6d 	svcvs	0x006e2d6d
    1690:	652d656e 	strvs	r6, [sp, #-1390]!	; 0x56e
    1694:	2f696261 	svccs	0x00696261
    1698:	2e332e36 	mrccs	14, 1, r2, cr3, cr6, {1}
    169c:	6e692f31 	mcrvs	15, 3, r2, cr9, cr1, {1}
    16a0:	64756c63 	ldrbtvs	r6, [r5], #-3171	; 0xc63
    16a4:	682f0065 	stmdavs	pc!, {r0, r2, r5, r6}	; <UNPREDICTABLE>
    16a8:	2f656d6f 	svccs	0x00656d6f
    16ac:	6c676e65 	stclvs	14, cr6, [r7], #-404	; 0xfffffe6c
    16b0:	632f7265 	teqvs	pc, #1342177286	; 0x50000006
    16b4:	7373616c 	cmnvc	r3, #108, 2
    16b8:	3273632f 	rsbscc	r6, r3, #-1140850688	; 0xbc000000
    16bc:	786c3034 	stmdavc	ip!, {r2, r4, r5, ip, sp}^
    16c0:	7330322d 	teqvc	r0, #-805306366	; 0xd0000002
    16c4:	2f2f7270 	svccs	0x002f7270
    16c8:	7062696c 	rsbvc	r6, r2, ip, ror #18
    16cc:	682f0069 	stmdavs	pc!, {r0, r3, r5, r6}	; <UNPREDICTABLE>
    16d0:	2f656d6f 	svccs	0x00656d6f
    16d4:	6c676e65 	stclvs	14, cr6, [r7], #-404	; 0xfffffe6c
    16d8:	632f7265 	teqvs	pc, #1342177286	; 0x50000006
    16dc:	7373616c 	cmnvc	r3, #108, 2
    16e0:	3273632f 	rsbscc	r6, r3, #-1140850688	; 0xbc000000
    16e4:	786c3034 	stmdavc	ip!, {r2, r4, r5, ip, sp}^
    16e8:	7330322d 	teqvc	r0, #-805306366	; 0xd0000002
    16ec:	2f2f7270 	svccs	0x002f7270
    16f0:	7062696c 	rsbvc	r6, r2, ip, ror #18
    16f4:	74732f69 	ldrbtvc	r2, [r3], #-3945	; 0xf69
    16f8:	2d666661 	stclcs	6, cr6, [r6, #-388]!	; 0xfffffe7c
    16fc:	00637273 	rsbeq	r7, r3, r3, ror r2
    1700:	69706700 	ldmdbvs	r0!, {r8, r9, sl, sp, lr}^
    1704:	00632e6f 	rsbeq	r2, r3, pc, ror #28
    1708:	6c000000 	stcvs	0, cr0, [r0], {-0}
    170c:	2e6b636f 	cdpcs	3, 6, cr6, cr11, cr15, {3}
    1710:	00010068 	andeq	r0, r1, r8, rrx
    1714:	79745f00 	ldmdbvc	r4!, {r8, r9, sl, fp, ip, lr}^
    1718:	2e736570 	mrccs	5, 3, r6, cr3, cr0, {3}
    171c:	00010068 	andeq	r0, r1, r8, rrx
    1720:	64747300 	ldrbtvs	r7, [r4], #-768	; 0x300
    1724:	2e666564 	cdpcs	5, 6, cr6, cr6, cr4, {3}
    1728:	00020068 	andeq	r0, r2, r8, rrx
    172c:	65657200 	strbvs	r7, [r5, #-512]!	; 0x200
    1730:	682e746e 	stmdavs	lr!, {r1, r2, r3, r5, r6, sl, ip, sp, lr}
    1734:	00000100 	andeq	r0, r0, r0, lsl #2
    1738:	2e697072 	mcrcs	0, 3, r7, cr9, cr2, {3}
    173c:	00030068 	andeq	r0, r3, r8, rrx
    1740:	69706700 	ldmdbvs	r0!, {r8, r9, sl, sp, lr}^
    1744:	00682e6f 	rsbeq	r2, r8, pc, ror #28
    1748:	00000004 	andeq	r0, r0, r4
    174c:	20020500 	andcs	r0, r2, r0, lsl #10
    1750:	030000ab 	movweq	r0, #171	; 0xab
    1754:	4c130127 	ldfmis	f0, [r3], {39}	; 0x27
    1758:	68f44f47 	ldmvs	r4!, {r0, r1, r2, r6, r8, r9, sl, fp, lr}^
    175c:	2fa14c4b 	svccs	0x00a14c4b
    1760:	3149136a 	cmpcc	r9, sl, ror #6
    1764:	314913be 	strhcc	r1, [r9, #-62]	; 0xffffffc2
    1768:	2f6a2fbe 	svccs	0x006a2fbe
    176c:	134f484d 	movtne	r4, #63565	; 0xf84d
    1770:	b72f3249 	strlt	r3, [pc, -r9, asr #4]!
    1774:	01000602 	tsteq	r0, r2, lsl #12
    1778:	00013401 	andeq	r3, r1, r1, lsl #8
    177c:	df000200 	svcle	0x00000200
    1780:	02000000 	andeq	r0, r0, #0
    1784:	0d0efb01 	vstreq	d15, [lr, #-4]
    1788:	01010100 	mrseq	r0, (UNDEF: 17)
    178c:	00000001 	andeq	r0, r0, r1
    1790:	01000001 	tsteq	r0, r1
    1794:	7273752f 	rsbsvc	r7, r3, #197132288	; 0xbc00000
    1798:	636e692f 	cmnvs	lr, #770048	; 0xbc000
    179c:	6564756c 	strbvs	r7, [r4, #-1388]!	; 0x56c
    17a0:	77656e2f 	strbvc	r6, [r5, -pc, lsr #28]!
    17a4:	2f62696c 	svccs	0x0062696c
    17a8:	00737973 	rsbseq	r7, r3, r3, ror r9
    17ac:	7273752f 	rsbsvc	r7, r3, #197132288	; 0xbc00000
    17b0:	62696c2f 	rsbvs	r6, r9, #12032	; 0x2f00
    17b4:	6363672f 	cmnvs	r3, #12320768	; 0xbc0000
    17b8:	6d72612f 	ldfvse	f6, [r2, #-188]!	; 0xffffff44
    17bc:	6e6f6e2d 	cdpvs	14, 6, cr6, cr15, cr13, {1}
    17c0:	61652d65 	cmnvs	r5, r5, ror #26
    17c4:	362f6962 	strtcc	r6, [pc], -r2, ror #18
    17c8:	312e332e 	teqcc	lr, lr, lsr #6
    17cc:	636e692f 	cmnvs	lr, #770048	; 0xbc000
    17d0:	6564756c 	strbvs	r7, [r4, #-1388]!	; 0x56c
    17d4:	6f682f00 	svcvs	0x00682f00
    17d8:	652f656d 	strvs	r6, [pc, #-1389]!	; 1273 <__code_start__-0x6d8d>
    17dc:	656c676e 	strbvs	r6, [ip, #-1902]!	; 0x76e
    17e0:	6c632f72 	stclvs	15, cr2, [r3], #-456	; 0xfffffe38
    17e4:	2f737361 	svccs	0x00737361
    17e8:	34327363 	ldrtcc	r7, [r2], #-867	; 0x363
    17ec:	2d786c30 	ldclcs	12, cr6, [r8, #-192]!	; 0xffffff40
    17f0:	70733032 	rsbsvc	r3, r3, r2, lsr r0
    17f4:	6c2f2f72 	stcvs	15, cr2, [pc], #-456	; 1634 <__code_start__-0x69cc>
    17f8:	69706269 	ldmdbvs	r0!, {r0, r3, r5, r6, r9, sp, lr}^
    17fc:	73752f00 	cmnvc	r5, #0, 30
    1800:	6e692f72 	mcrvs	15, 3, r2, cr9, cr2, {3}
    1804:	64756c63 	ldrbtvs	r6, [r5], #-3171	; 0xc63
    1808:	656e2f65 	strbvs	r2, [lr, #-3941]!	; 0xf65
    180c:	62696c77 	rsbvs	r6, r9, #30464	; 0x7700
    1810:	6d6b0000 	stclvs	0, cr0, [fp, #-0]
    1814:	6f6c6c61 	svcvs	0x006c6c61
    1818:	00632e63 	rsbeq	r2, r3, r3, ror #28
    181c:	6c000000 	stcvs	0, cr0, [r0], {-0}
    1820:	2e6b636f 	cdpcs	3, 6, cr6, cr11, cr15, {3}
    1824:	00010068 	andeq	r0, r1, r8, rrx
    1828:	79745f00 	ldmdbvc	r4!, {r8, r9, sl, fp, ip, lr}^
    182c:	2e736570 	mrccs	5, 3, r6, cr3, cr0, {3}
    1830:	00010068 	andeq	r0, r1, r8, rrx
    1834:	64747300 	ldrbtvs	r7, [r4], #-768	; 0x300
    1838:	2e666564 	cdpcs	5, 6, cr6, cr6, cr4, {3}
    183c:	00020068 	andeq	r0, r2, r8, rrx
    1840:	65657200 	strbvs	r7, [r5, #-512]!	; 0x200
    1844:	682e746e 	stmdavs	lr!, {r1, r2, r3, r5, r6, sl, ip, sp, lr}
    1848:	00000100 	andeq	r0, r0, r0, lsl #2
    184c:	2e697072 	mcrcs	0, 3, r7, cr9, cr2, {3}
    1850:	00030068 	andeq	r0, r3, r8, rrx
    1854:	72747300 	rsbsvc	r7, r4, #0, 6
    1858:	2e676e69 	cdpcs	14, 6, cr6, cr7, cr9, {3}
    185c:	00040068 	andeq	r0, r4, r8, rrx
    1860:	05000000 	streq	r0, [r0, #-0]
    1864:	00ac4002 	adceq	r4, ip, r2
    1868:	01100300 	tsteq	r0, r0, lsl #6
    186c:	68018301 	stmdavs	r1, {r0, r8, r9, pc}
    1870:	02008314 	andeq	r8, r0, #20, 6	; 0x50000000
    1874:	007f0104 	rsbseq	r0, pc, r4, lsl #2
    1878:	30010402 	andcc	r0, r1, r2, lsl #8
    187c:	4b2f5c08 	blmi	bd88a4 <__bss_end__+0xbcc6b4>
    1880:	684b4b4c 	stmdavs	fp, {r2, r3, r6, r8, r9, fp, lr}^
    1884:	01040200 	mrseq	r0, R12_usr
    1888:	034a7903 	movteq	r7, #43267	; 0xa903
    188c:	2f580809 	svccs	0x00580809
    1890:	2f4e2e01 	svccs	0x004e2e01
    1894:	67674b6a 	strbvs	r4, [r7, -sl, ror #22]!
    1898:	02002f4c 	andeq	r2, r0, #76, 30	; 0x130
    189c:	76030104 	strvc	r0, [r3], -r4, lsl #2
    18a0:	0402002e 	streq	r0, [r2], #-46	; 0x2e
    18a4:	7a08dc01 	bvc	2388b0 <__bss_end__+0x22c6c0>
    18a8:	019f012f 	orrseq	r0, pc, pc, lsr #2
    18ac:	01000802 	tsteq	r0, r2, lsl #16
    18b0:	Address 0x00000000000018b0 is out of bounds.


Disassembly of section .debug_str:

00000000 <.debug_str>:
       0:	6d746f6e 	ldclvs	15, cr6, [r4, #-440]!	; 0xfffffe48
       4:	006e6961 	rsbeq	r6, lr, r1, ror #18
       8:	74726175 	ldrbtvc	r6, [r2], #-373	; 0x175
       c:	696e695f 	stmdbvs	lr!, {r0, r1, r2, r3, r4, r6, r8, fp, sp, lr}^
      10:	6e750074 	mrcvs	0, 3, r0, cr5, cr4, {3}
      14:	6e676973 	mcrvs	9, 3, r6, cr7, cr3, {3}
      18:	63206465 	teqvs	r0, #1694498816	; 0x65000000
      1c:	00726168 	rsbseq	r6, r2, r8, ror #2
      20:	61656c63 	cmnvs	r5, r3, ror #24
      24:	65725f6e 	ldrbvs	r5, [r2, #-3950]!	; 0xf6e
      28:	746f6f62 	strbtvc	r6, [pc], #-3938	; 30 <__code_start__-0x7fd0>
      2c:	6f687300 	svcvs	0x00687300
      30:	75207472 	strvc	r7, [r0, #-1138]!	; 0x472
      34:	6769736e 	strbvs	r7, [r9, -lr, ror #6]!
      38:	2064656e 	rsbcs	r6, r4, lr, ror #10
      3c:	00746e69 	rsbseq	r6, r4, r9, ror #28
      40:	5f6b7262 	svcpl	0x006b7262
      44:	62726576 	rsbsvs	r6, r2, #494927872	; 0x1d800000
      48:	5f65736f 	svcpl	0x0065736f
      4c:	656d0070 	strbvs	r0, [sp, #-112]!	; 0x70
      50:	6568636d 	strbvs	r6, [r8, #-877]!	; 0x36d
      54:	6f5f6b63 	svcvs	0x005f6b63
      58:	76006666 	strvc	r6, [r0], -r6, ror #12
      5c:	65745f6d 	ldrbvs	r5, [r4, #-3949]!	; 0xf6d
      60:	5f007473 	svcpl	0x00007473
      64:	4e55465f 	mrcmi	6, 2, r4, cr5, cr15, {2}
      68:	4f495443 	svcmi	0x00495443
      6c:	005f5f4e 	subseq	r5, pc, lr, asr #30
      70:	636d656d 	cmnvs	sp, #457179136	; 0x1b400000
      74:	6b636568 	blvs	18d961c <__bss_end__+0x18cd42c>
      78:	006e6f5f 	rsbeq	r6, lr, pc, asr pc
      7c:	6573552f 	ldrbvs	r5, [r3, #-1327]!	; 0x52f
      80:	622f7372 	eorvs	r7, pc, #-939524095	; 0xc8000001
      84:	6e616972 	mcrvs	9, 3, r6, cr1, cr2, {3}
      88:	2f6e756a 	svccs	0x006e756a
      8c:	6b736544 	blvs	1cd95a4 <__bss_end__+0x1ccd3b4>
      90:	2f706f74 	svccs	0x00706f74
      94:	6f686373 	svcvs	0x00686373
      98:	532f6c6f 	teqpl	pc, #28416	; 0x6f00
      9c:	6e697270 	mcrvs	2, 3, r7, cr9, cr0, {3}
      a0:	32393167 	eorscc	r3, r9, #-1073741799	; 0xc0000019
      a4:	53432f30 	movtpl	r2, #16176	; 0x3f30
      a8:	4c303432 	cfldrsmi	mvf3, [r0], #-200	; 0xffffff38
      ac:	73632f58 	cmnvc	r3, #88, 30	; 0x160
      b0:	6c303432 	cfldrsvs	mvf3, [r0], #-200	; 0xffffff38
      b4:	30322d78 	eorscc	r2, r2, r8, ror sp
      b8:	2f727073 	svccs	0x00727073
      bc:	7362616c 	cmnvc	r2, #108, 2
      c0:	2d37312f 	ldfcss	f3, [r7, #-188]!	; 0xffffff44
      c4:	636d656d 	cmnvs	sp, #457179136	; 0x1b400000
      c8:	6b636568 	blvs	18d9670 <__bss_end__+0x18cd480>
      cc:	7261702f 	rsbvc	r7, r1, #47	; 0x2f
      d0:	762d3274 			; <UNDEFINED> instruction: 0x762d3274
      d4:	72742d6d 	rsbsvc	r2, r4, #6976	; 0x1b40
      d8:	6d007061 	stcvs	0, cr7, [r0, #-388]	; 0xfffffe7c
      dc:	695f756d 	ldmdbvs	pc, {r0, r2, r3, r5, r6, r8, sl, ip, sp, lr}^	; <UNPREDICTABLE>
      e0:	6e655f73 	mcrvs	15, 3, r5, cr5, cr3, {3}
      e4:	656c6261 	strbvs	r6, [ip, #-609]!	; 0x261
      e8:	65740064 	ldrbvs	r0, [r4, #-100]!	; 0x64
      ec:	2f737473 	svccs	0x00737473
      f0:	74726170 	ldrbtvc	r6, [r2], #-368	; 0x170
      f4:	65742d32 	ldrbvs	r2, [r4, #-3378]!	; 0xd32
      f8:	2e317473 	mrccs	4, 1, r7, cr1, cr3, {3}
      fc:	4e470063 	cdpmi	0, 4, cr0, cr7, cr3, {3}
     100:	20432055 	subcs	r2, r3, r5, asr r0
     104:	2e382e34 	mrccs	14, 1, r2, cr8, cr4, {1}
     108:	6d2d2033 	stcvs	0, cr2, [sp, #-204]!	; 0xffffff34
     10c:	3d757063 	ldclcc	0, cr7, [r5, #-396]!	; 0xfffffe74
     110:	316d7261 	cmncc	sp, r1, ror #4
     114:	6a363731 	bvs	d8dde0 <__bss_end__+0xd81bf0>
     118:	732d667a 	teqvc	sp, #127926272	; 0x7a00000
     11c:	746d2d20 	strbtvc	r2, [sp], #-3360	; 0xd20
     120:	3d656e75 	stclcc	14, cr6, [r5, #-468]!	; 0xfffffe2c
     124:	316d7261 	cmncc	sp, r1, ror #4
     128:	6a363731 	bvs	d8ddf4 <__bss_end__+0xd81c04>
     12c:	732d667a 	teqvc	sp, #127926272	; 0x7a00000
     130:	67672d20 	strbvs	r2, [r7, -r0, lsr #26]!
     134:	2d206264 	sfmcs	f6, 4, [r0, #-400]!	; 0xfffffe70
     138:	2d20674f 	stccs	7, cr6, [r0, #-316]!	; 0xfffffec4
     13c:	3d647473 	cfstrdcc	mvd7, [r4, #-460]!	; 0xfffffe34
     140:	39756e67 	ldmdbcc	r5!, {r0, r1, r2, r5, r6, r9, sl, fp, sp, lr}^
     144:	662d2039 			; <UNDEFINED> instruction: 0x662d2039
     148:	65657266 	strbvs	r7, [r5, #-614]!	; 0x266
     14c:	6e617473 	mcrvs	4, 3, r7, cr1, cr3, {3}
     150:	676e6964 	strbvs	r6, [lr, -r4, ror #18]!
     154:	6e662d20 	cdpvs	13, 6, cr2, cr6, cr0, {1}
     158:	6f742d6f 	svcvs	0x00742d6f
     15c:	76656c70 			; <UNDEFINED> instruction: 0x76656c70
     160:	722d6c65 	eorvc	r6, sp, #25856	; 0x6500
     164:	64726f65 	ldrbtvs	r6, [r2], #-3941	; 0xf65
     168:	6d007265 	sfmvs	f7, 4, [r0, #-404]	; 0xfffffe6c
     16c:	68636d65 	stmdavs	r3!, {r0, r2, r5, r6, r8, sl, fp, sp, lr}^
     170:	5f6b6365 	svcpl	0x006b6365
     174:	74696e69 	strbtvc	r6, [r9], #-3689	; 0xe69
     178:	6e6f6c00 	cdpvs	12, 6, cr6, cr15, cr0, {0}
     17c:	6f6c2067 	svcvs	0x006c2067
     180:	7520676e 	strvc	r6, [r0, #-1902]!	; 0x76e
     184:	6769736e 	strbvs	r7, [r9, -lr, ror #6]!
     188:	2064656e 	rsbcs	r6, r4, lr, ror #10
     18c:	00746e69 	rsbseq	r6, r4, r9, ror #28
     190:	657a6973 	ldrbvs	r6, [sl, #-2419]!	; 0x973
     194:	65707974 	ldrbvs	r7, [r0, #-2420]!	; 0x974
     198:	6e6f6c00 	cdpvs	12, 6, cr6, cr15, cr0, {0}
     19c:	6f6c2067 	svcvs	0x006c2067
     1a0:	6920676e 	stmdbvs	r0!, {r1, r2, r3, r5, r6, r8, r9, sl, sp, lr}
     1a4:	6300746e 	movwvs	r7, #1134	; 0x46e
     1a8:	6b636568 	blvs	18d9750 <__bss_end__+0x18cd560>
     1ac:	5f6d765f 	svcpl	0x006d765f
     1b0:	75727473 	ldrbvc	r7, [r2, #-1139]!	; 0x473
     1b4:	00737463 	rsbseq	r7, r3, r3, ror #8
     1b8:	726f6873 	rsbvc	r6, pc, #7536640	; 0x730000
     1bc:	6e692074 	mcrvs	0, 3, r2, cr9, cr4, {3}
     1c0:	70720074 	rsbsvc	r0, r2, r4, ror r0
     1c4:	65725f69 	ldrbvs	r5, [r2, #-3945]!	; 0xf69
     1c8:	5f746573 	svcpl	0x00746573
     1cc:	63747570 	cmnvs	r4, #112, 10	; 0x1c000000
     1d0:	74656700 	strbtvc	r6, [r5], #-1792	; 0x700
     1d4:	5a003233 	bpl	caa8 <__bss_end__+0x8b8>
     1d8:	6172625f 	cmnvs	r2, pc, asr r2
     1dc:	5f68636e 	svcpl	0x0068636e
     1e0:	64657270 	strbtvs	r7, [r5], #-624	; 0x270
     1e4:	69736100 	ldmdbvs	r3!, {r8, sp, lr}^
     1e8:	756f0064 	strbvc	r0, [pc, #-100]!	; 18c <__code_start__-0x7e74>
     1ec:	6d6d5f72 	stclvs	15, cr5, [sp, #-456]!	; 0xfffffe38
     1f0:	65725f75 	ldrbvs	r5, [r2, #-3957]!	; 0xf75
     1f4:	00746573 	rsbseq	r6, r4, r3, ror r5
     1f8:	5f756d6d 	svcpl	0x00756d6d
     1fc:	6b72616d 	blvs	1c987b8 <__bss_end__+0x1c8c5c8>
     200:	6365735f 	cmnvs	r5, #2080374785	; 0x7c000001
     204:	6165725f 	cmnvs	r5, pc, asr r2
     208:	6c6e6f64 	stclvs	15, cr6, [lr], #-400	; 0xfffffe70
     20c:	69730079 	ldmdbvs	r3!, {r0, r3, r4, r5, r6}^
     210:	745f657a 	ldrbvc	r6, [pc], #-1402	; 218 <__code_start__-0x7de8>
     214:	756d6d00 	strbvc	r6, [sp, #-3328]!	; 0xd00
     218:	6365735f 	cmnvs	r5, #2080374785	; 0x7c000001
     21c:	7469625f 	strbtvc	r6, [r9], #-607	; 0x25f
     220:	6e6f5f73 	mcrvs	15, 3, r5, cr15, cr3, {3}
     224:	5600796c 	strpl	r7, [r0], -ip, ror #18
     228:	6769685f 			; <UNDEFINED> instruction: 0x6769685f
     22c:	78655f68 	stmdavc	r5!, {r3, r5, r6, r8, r9, sl, fp, ip, lr}^
     230:	74706563 	ldrbtvc	r6, [r0], #-1379	; 0x563
     234:	4200765f 	andmi	r7, r0, #99614720	; 0x5f00000
     238:	646e655f 	strbtvs	r6, [lr], #-1375	; 0x55f
     23c:	006e6169 	rsbeq	r6, lr, r9, ror #2
     240:	2e756d6d 	cdpcs	13, 7, cr6, cr5, cr13, {3}
     244:	736e0063 	cmnvc	lr, #99	; 0x63
     248:	49006365 	stmdbmi	r0, {r0, r2, r5, r6, r8, r9, sp, lr}
     24c:	6163695f 	cmnvs	r3, pc, asr r9
     250:	5f656863 	svcpl	0x00656863
     254:	62616e65 	rsbvs	r6, r1, #1616	; 0x650
     258:	4100656c 	tstmi	r0, ip, ror #10
     25c:	696c615f 	stmdbvs	ip!, {r0, r1, r2, r3, r4, r6, r8, sp, lr}^
     260:	656d6e67 	strbvs	r6, [sp, #-3687]!	; 0xe67
     264:	6f00746e 	svcvs	0x0000746e
     268:	635f7275 	cmpvs	pc, #1342177287	; 0x50000007
     26c:	5f353170 	svcpl	0x00353170
     270:	5f746573 	svcpl	0x00746573
     274:	636f7270 	cmnvs	pc, #112, 4
     278:	745f6469 	ldrbvc	r6, [pc], #-1129	; 280 <__code_start__-0x7d80>
     27c:	30726274 	rsbscc	r6, r2, r4, ror r2
     280:	5f504100 	svcpl	0x00504100
     284:	6f5f6472 	svcvs	0x005f6472
     288:	00796c6e 	rsbseq	r6, r9, lr, ror #24
     28c:	6c616d6b 	stclvs	13, cr6, [r1], #-428	; 0xfffffe54
     290:	5f636f6c 	svcpl	0x00636f6c
     294:	67696c61 	strbvs	r6, [r9, -r1, ror #24]!
     298:	0064656e 	rsbeq	r6, r4, lr, ror #10
     29c:	5f636573 	svcpl	0x00636573
     2a0:	65736162 	ldrbvs	r6, [r3, #-354]!	; 0x162
     2a4:	6464615f 	strbtvs	r6, [r4], #-351	; 0x15f
     2a8:	6d6d0072 	stclvs	0, cr0, [sp, #-456]!	; 0xfffffe38
     2ac:	6e655f75 	mcrvs	15, 3, r5, cr5, cr5, {3}
     2b0:	656c6261 	strbvs	r6, [ip, #-609]!	; 0x261
     2b4:	7465735f 	strbtvc	r7, [r5], #-863	; 0x35f
     2b8:	69727700 	ldmdbvs	r2!, {r8, r9, sl, ip, sp, lr}^
     2bc:	645f6574 	ldrbvs	r6, [pc], #-1396	; 2c4 <__code_start__-0x7d3c>
     2c0:	69616d6f 	stmdbvs	r1!, {r0, r1, r2, r3, r5, r6, r8, sl, fp, sp, lr}^
     2c4:	63615f6e 	cmnvs	r1, #440	; 0x1b8
     2c8:	73736563 	cmnvc	r3, #415236096	; 0x18c00000
     2cc:	7274635f 	rsbsvc	r6, r4, #2080374785	; 0x7c000001
     2d0:	6d6d006c 	stclvs	0, cr0, [sp, #-432]!	; 0xfffffe50
     2d4:	69645f75 	stmdbvs	r4!, {r0, r2, r4, r5, r6, r8, r9, sl, fp, ip, lr}^
     2d8:	6c626173 	stfvse	f6, [r2], #-460	; 0xfffffe34
     2dc:	65735f65 	ldrbvs	r5, [r3, #-3941]!	; 0xf65
     2e0:	756f0074 	strbvc	r0, [pc, #-116]!	; 274 <__code_start__-0x7d8c>
     2e4:	70635f72 	rsbvc	r5, r3, r2, ror pc
     2e8:	645f3531 	ldrbvs	r3, [pc], #-1329	; 2f0 <__code_start__-0x7d10>
     2ec:	69616d6f 	stmdbvs	r1!, {r0, r1, r2, r3, r5, r6, r8, sl, fp, sp, lr}^
     2f0:	74635f6e 	strbtvc	r5, [r3], #-3950	; 0xf6e
     2f4:	775f6c72 			; <UNDEFINED> instruction: 0x775f6c72
     2f8:	6c660072 	stclvs	0, cr0, [r6], #-456	; 0xfffffe38
     2fc:	00745f64 	rsbseq	r5, r4, r4, ror #30
     300:	5f72756f 	svcpl	0x0072756f
     304:	5f756d6d 	svcpl	0x00756d6d
     308:	61736964 	cmnvs	r3, r4, ror #18
     30c:	5f656c62 	svcpl	0x00656c62
     310:	5f746573 	svcpl	0x00746573
     314:	006d7361 	rsbeq	r7, sp, r1, ror #6
     318:	68736168 	ldmdavs	r3!, {r3, r5, r6, r8, sp, lr}^
     31c:	6972705f 	ldmdbvs	r2!, {r0, r1, r2, r3, r4, r6, ip, sp, lr}^
     320:	5200746e 	andpl	r7, r0, #1845493760	; 0x6e000000
     324:	61635f52 	cmnvs	r3, r2, asr pc
     328:	5f656863 	svcpl	0x00656863
     32c:	00706572 	rsbseq	r6, r0, r2, ror r5
     330:	65707573 	ldrbvs	r7, [r0, #-1395]!	; 0x573
     334:	70630072 	rsbvc	r0, r3, r2, ror r0
     338:	635f3531 	cmpvs	pc, #205520896	; 0xc400000
     33c:	5f6c7274 	svcpl	0x006c7274
     340:	31676572 	smccc	30290	; 0x7652
     344:	0072775f 	rsbseq	r7, r2, pc, asr r7
     348:	5f756d6d 	svcpl	0x00756d6d
     34c:	6b72616d 	blvs	1c98908 <__bss_end__+0x1c8c718>
     350:	6365735f 	cmnvs	r5, #2080374785	; 0x7c000001
     354:	0077725f 	rsbseq	r7, r7, pc, asr r2
     358:	5f646c66 	svcpl	0x00646c66
     35c:	6d006b6d 	vstrvs	d6, [r0, #-436]	; 0xfffffe4c
     360:	705f756d 	subsvc	r7, pc, sp, ror #10
     364:	6c615f74 	stclvs	15, cr5, [r1], #-464	; 0xfffffe30
     368:	00636f6c 	rsbeq	r6, r3, ip, ror #30
     36c:	7365725f 	cmnvc	r5, #-268435451	; 0xf0000005
     370:	65767265 	ldrbvs	r7, [r6, #-613]!	; 0x265
     374:	5f003064 	svcpl	0x00003064
     378:	65736572 	ldrbvs	r6, [r3, #-1394]!	; 0x572
     37c:	64657672 	strbtvs	r7, [r5], #-1650	; 0x672
     380:	50410031 	subpl	r0, r1, r1, lsr r0
     384:	0077725f 	rsbseq	r7, r7, pc, asr r2
     388:	73726966 	cmnvc	r2, #1671168	; 0x198000
     38c:	656c5f74 	strbvs	r5, [ip, #-3956]!	; 0xf74
     390:	5f6c6576 	svcpl	0x006c6576
     394:	63736564 	cmnvs	r3, #100, 10	; 0x19000000
     398:	74706972 	ldrbtvc	r6, [r0], #-2418	; 0x972
     39c:	6d00726f 	sfmvs	f7, 4, [r0, #-444]	; 0xfffffe44
     3a0:	6d5f756d 	cfldr64vs	mvdx7, [pc, #-436]	; 1f4 <__code_start__-0x7e0c>
     3a4:	735f7061 	cmpvc	pc, #97	; 0x61
     3a8:	69746365 	ldmdbvs	r4!, {r0, r2, r5, r6, r8, r9, sp, lr}^
     3ac:	6d006e6f 	stcvs	14, cr6, [r0, #-444]	; 0xfffffe44
     3b0:	645f756d 	ldrbvs	r7, [pc], #-1389	; 3b8 <__code_start__-0x7c48>
     3b4:	62617369 	rsbvs	r7, r1, #-1543503871	; 0xa4000001
     3b8:	6300656c 	movwvs	r6, #1388	; 0x56c
     3bc:	5f353170 	svcpl	0x00353170
     3c0:	6c727463 	cfldrdvs	mvd7, [r2], #-396	; 0xfffffe74
     3c4:	6765725f 			; <UNDEFINED> instruction: 0x6765725f
     3c8:	64725f31 	ldrbtvs	r5, [r2], #-3889	; 0xf31
     3cc:	5f455600 	svcpl	0x00455600
     3d0:	74636576 	strbtvc	r6, [r3], #-1398	; 0x576
     3d4:	746e695f 	strbtvc	r6, [lr], #-2399	; 0x95f
     3d8:	725f5200 	subsvc	r5, pc, #0, 4
     3dc:	705f6d6f 	subsvc	r6, pc, pc, ror #26
     3e0:	00746f72 	rsbseq	r6, r4, r2, ror pc
     3e4:	7479626e 	ldrbtvc	r6, [r9], #-622	; 0x26e
     3e8:	46007365 	strmi	r7, [r0], -r5, ror #6
     3ec:	6f665f41 	svcvs	0x00665f41
     3f0:	5f656372 	svcpl	0x00656372
     3f4:	6f007061 	svcvs	0x00007061
     3f8:	6d5f7275 	lfmvs	f7, 2, [pc, #-468]	; 22c <__code_start__-0x7dd4>
     3fc:	735f756d 	cmpvc	pc, #457179136	; 0x1b400000
     400:	5f636e79 	svcpl	0x00636e79
     404:	5f657470 	svcpl	0x00657470
     408:	73646f6d 	cmnvc	r4, #436	; 0x1b4
     40c:	775f5700 	ldrbvc	r5, [pc, -r0, lsl #14]
     410:	65746972 	ldrbvs	r6, [r4, #-2418]!	; 0x972
     414:	6675625f 			; <UNDEFINED> instruction: 0x6675625f
     418:	705f5300 	subsvc	r5, pc, r0, lsl #6
     41c:	00746f72 	rsbseq	r6, r4, r2, ror pc
     420:	5f756d6d 	svcpl	0x00756d6d
     424:	6b72616d 	blvs	1c989e0 <__bss_end__+0x1c8c7f0>
     428:	6365735f 	cmnvs	r5, #2080374785	; 0x7c000001
     42c:	5f70615f 	svcpl	0x0070615f
     430:	6d726570 	cfldr64vs	mvdx6, [r2, #-448]!	; 0xfffffe40
     434:	756d6d00 	strbvc	r6, [sp, #-3328]!	; 0xd00
     438:	696e695f 	stmdbvs	lr!, {r0, r1, r2, r3, r4, r6, r8, fp, sp, lr}^
     43c:	6d6d0074 	stclvs	0, cr0, [sp, #-464]!	; 0xfffffe30
     440:	74705f75 	ldrbtvc	r5, [r0], #-3957	; 0xf75
     444:	6c6c615f 	stfvse	f6, [ip], #-380	; 0xfffffe84
     448:	615f636f 	cmpvs	pc, pc, ror #6
     44c:	4d4d0074 	stclmi	0, cr0, [sp, #-464]	; 0xfffffe30
     450:	6e655f55 	mcrvs	15, 3, r5, cr5, cr5, {2}
     454:	656c6261 	strbvs	r6, [ip, #-609]!	; 0x261
     458:	5f550064 	svcpl	0x00550064
     45c:	6c616e75 	stclvs	14, cr6, [r1], #-468	; 0xfffffe2c
     460:	656e6769 	strbvs	r6, [lr, #-1897]!	; 0x769
     464:	69750064 	ldmdbvs	r5!, {r2, r5, r6}^
     468:	3233746e 	eorscc	r7, r3, #1845493760	; 0x6e000000
     46c:	5800745f 	stmdapl	r0, {r0, r1, r2, r3, r4, r6, sl, ip, sp, lr}
     470:	74705f50 	ldrbtvc	r5, [r0], #-3920	; 0xf50
     474:	5f525400 	svcpl	0x00525400
     478:	5f786574 	svcpl	0x00786574
     47c:	616d6572 	smcvs	54866	; 0xd652
     480:	6e690070 	mcrvs	0, 3, r0, cr9, cr0, {3}
     484:	00786564 	rsbseq	r6, r8, r4, ror #10
     488:	746e6f63 	strbtvc	r6, [lr], #-3939	; 0xf63
     48c:	5f6c6f72 	svcpl	0x006c6f72
     490:	31676572 	smccc	30290	; 0x7652
     494:	6d736100 	ldfvse	f6, [r3, #-0]
     498:	746f6e5f 	strbtvc	r6, [pc], #-3679	; 4a0 <__code_start__-0x7b60>
     49c:	706d695f 	rsbvc	r6, sp, pc, asr r9
     4a0:	656d656c 	strbvs	r6, [sp, #-1388]!	; 0x56c
     4a4:	6465746e 	strbtvs	r7, [r5], #-1134	; 0x46e
     4a8:	756d6d00 	strbvc	r6, [sp, #-3328]!	; 0xd00
     4ac:	616e655f 	cmnvs	lr, pc, asr r5
     4b0:	00656c62 	rsbeq	r6, r5, r2, ror #24
     4b4:	35317063 	ldrcc	r7, [r1, #-99]!	; 0x63
     4b8:	7274635f 	rsbsvc	r6, r4, #2080374785	; 0x7c000001
     4bc:	65725f6c 	ldrbvs	r5, [r2, #-3948]!	; 0xf6c
     4c0:	745f3167 	ldrbvc	r3, [pc], #-359	; 4c8 <__code_start__-0x7b38>
     4c4:	6e755f00 	cdpvs	15, 7, cr5, cr5, cr0, {0}
     4c8:	64657375 	strbtvs	r7, [r5], #-885	; 0x375
     4cc:	656d0031 	strbvs	r0, [sp, #-49]!	; 0x31
     4d0:	7465736d 	strbtvc	r7, [r5], #-877	; 0x36d
     4d4:	646c6600 	strbtvs	r6, [ip], #-1536	; 0x600
     4d8:	6972705f 	ldmdbvs	r2!, {r0, r1, r2, r3, r4, r6, ip, sp, lr}^
     4dc:	7200746e 	andvc	r7, r0, #1845493760	; 0x6e000000
     4e0:	5f646165 	svcpl	0x00646165
     4e4:	616d6f64 	cmnvs	sp, r4, ror #30
     4e8:	615f6e69 	cmpvs	pc, r9, ror #28
     4ec:	73656363 	cmnvc	r5, #-1946157055	; 0x8c000001
     4f0:	74635f73 	strbtvc	r5, [r3], #-3955	; 0xf73
     4f4:	66006c72 			; <UNDEFINED> instruction: 0x66006c72
     4f8:	735f646c 	cmpvc	pc, #108, 8	; 0x6c000000
     4fc:	625f7465 	subsvs	r7, pc, #1694498816	; 0x65000000
     500:	5f657361 	svcpl	0x00657361
     504:	72646461 	rsbvc	r6, r4, #1627389952	; 0x61000000
     508:	756d6d00 	strbvc	r6, [sp, #-3328]!	; 0xd00
     50c:	736e695f 	cmnvc	lr, #1556480	; 0x17c000
     510:	6c6c6174 	stfvse	f6, [ip], #-464	; 0xfffffe30
     514:	6e61685f 	mcrvs	8, 3, r6, cr1, cr15, {2}
     518:	72656c64 	rsbvc	r6, r5, #100, 24	; 0x6400
     51c:	50410073 	subpl	r0, r1, r3, ror r0
     520:	5f6f6e5f 	svcpl	0x006f6e5f
     524:	65636361 	strbvs	r6, [r3, #-865]!	; 0x361
     528:	64007373 	strvs	r7, [r0], #-883	; 0x373
     52c:	69616d6f 	stmdbvs	r1!, {r0, r1, r2, r3, r5, r6, r8, sl, fp, sp, lr}^
     530:	735f006e 	cmpvc	pc, #110	; 0x6e
     534:	00307a62 	eorseq	r7, r0, r2, ror #20
     538:	7a62735f 	bvc	189d2bc <__bss_end__+0x18910cc>
     53c:	6d6d0031 	stclvs	0, cr0, [sp, #-196]!	; 0xffffff3c
     540:	616d5f75 	smcvs	54773	; 0xd5f5
     544:	65735f70 	ldrbvs	r5, [r3, #-3952]!	; 0xf70
     548:	6f697463 	svcvs	0x00697463
     54c:	4c00736e 	stcmi	3, cr7, [r0], {110}	; 0x6e
     550:	6e655f32 	mcrvs	15, 3, r5, cr5, cr2, {1}
     554:	656c6261 	strbvs	r6, [ip, #-609]!	; 0x261
     558:	5f430064 	svcpl	0x00430064
     55c:	66696e75 			; <UNDEFINED> instruction: 0x66696e75
     560:	5f646569 	svcpl	0x00646569
     564:	62616e65 	rsbvs	r6, r1, #1616	; 0x650
     568:	6f00656c 	svcvs	0x0000656c
     56c:	6d5f7275 	lfmvs	f7, 2, [pc, #-468]	; 3a0 <__code_start__-0x7c60>
     570:	655f756d 	ldrbvs	r7, [pc, #-1389]	; b <__code_start__-0x7ff5>
     574:	6c62616e 	stfvse	f6, [r2], #-440	; 0xfffffe48
     578:	65735f65 	ldrbvs	r5, [r3, #-3941]!	; 0xf65
     57c:	73615f74 	cmnvc	r1, #116, 30	; 0x1d0
     580:	6d6d006d 	stclvs	0, cr0, [sp, #-436]!	; 0xfffffe4c
     584:	6f6c5f75 	svcvs	0x006c5f75
     588:	70756b6f 	rsbsvc	r6, r5, pc, ror #22
     58c:	6365735f 	cmnvs	r5, #2080374785	; 0x7c000001
     590:	6e6f6974 	mcrvs	9, 3, r6, cr15, cr4, {3}
     594:	656e4f00 	strbvs	r4, [lr, #-3840]!	; 0xf00
     598:	6d00424d 	sfmvs	f4, 4, [r0, #-308]	; 0xfffffecc
     59c:	6d5f756d 	cfldr64vs	mvdx7, [pc, #-436]	; 3f0 <__code_start__-0x7c10>
     5a0:	5f6b7261 	svcpl	0x006b7261
     5a4:	5f636573 	svcpl	0x00636573
     5a8:	615f6f6e 	cmpvs	pc, lr, ror #30
     5ac:	73656363 	cmnvc	r5, #-1946157055	; 0x8c000001
     5b0:	6e690073 	mcrvs	0, 3, r0, cr9, cr3, {3}
     5b4:	6e695f74 	mcrvs	15, 3, r5, cr9, cr4, {3}
     5b8:	6d007469 	cfstrsvs	mvf7, [r0, #-420]	; 0xfffffe5c
     5bc:	682d756d 	stmdavs	sp!, {r0, r2, r3, r5, r6, r8, sl, ip, sp, lr}
     5c0:	65706c65 	ldrbvs	r6, [r0, #-3173]!	; 0xc65
     5c4:	632e7372 	teqvs	lr, #-939524095	; 0xc8000001
     5c8:	646c6600 	strbtvs	r6, [ip], #-1536	; 0x600
     5cc:	6568635f 	strbvs	r6, [r8, #-863]!	; 0x35f
     5d0:	6f5f6b63 	svcvs	0x005f6b63
     5d4:	65736666 	ldrbvs	r6, [r3, #-1638]!	; 0x666
     5d8:	66007374 			; <UNDEFINED> instruction: 0x66007374
     5dc:	5f747361 	svcpl	0x00747361
     5e0:	68736168 	ldmdavs	r3!, {r3, r5, r6, r8, sp, lr}^
     5e4:	6e6f6300 	cdpvs	3, 6, cr6, cr15, cr0, {0}
     5e8:	6c6f7274 	sfmvs	f7, 2, [pc], #-464	; 420 <__code_start__-0x7be0>
     5ec:	6765725f 			; <UNDEFINED> instruction: 0x6765725f
     5f0:	61735f31 	cmnvs	r3, r1, lsr pc
     5f4:	7974696e 	ldmdbvc	r4!, {r1, r2, r3, r5, r6, r8, fp, sp, lr}^
     5f8:	6568635f 	strbvs	r6, [r8, #-863]!	; 0x35f
     5fc:	66006b63 	strvs	r6, [r0], -r3, ror #22
     600:	635f646c 	cmpvs	pc, #108, 8	; 0x6c000000
     604:	6b636568 	blvs	18d9bac <__bss_end__+0x18cd9bc>
     608:	6c61765f 	stclvs	6, cr7, [r1], #-380	; 0xfffffe84
     60c:	73006469 	movwvc	r6, #1129	; 0x469
     610:	74666968 	strbtvc	r6, [r6], #-2408	; 0x968
     614:	626c7400 	rsbvs	r7, ip, #0, 8
     618:	6e6f635f 	mcrvs	3, 3, r6, cr15, cr15, {2}
     61c:	00676966 	rsbeq	r6, r7, r6, ror #18
     620:	5f746573 	svcpl	0x00746573
     624:	006c6c61 	rsbeq	r6, ip, r1, ror #24
     628:	746e6f63 	strbtvc	r6, [lr], #-3939	; 0xf63
     62c:	5f6c6f72 	svcpl	0x006c6f72
     630:	31676572 	smccc	30290	; 0x7652
     634:	6972705f 	ldmdbvs	r2!, {r0, r1, r2, r3, r4, r6, ip, sp, lr}^
     638:	7400746e 	strvc	r7, [r0], #-1134	; 0x46e
     63c:	635f626c 	cmpvs	pc, #108, 4	; 0xc0000006
     640:	69666e6f 	stmdbvs	r6!, {r0, r1, r2, r3, r5, r6, r9, sl, fp, sp, lr}^
     644:	68635f67 	stmdavs	r3!, {r0, r1, r2, r5, r6, r8, r9, sl, fp, ip, lr}^
     648:	5f6b6365 	svcpl	0x006b6365
     64c:	7366666f 	cmnvc	r6, #116391936	; 0x6f00000
     650:	00737465 	rsbseq	r7, r3, r5, ror #8
     654:	616d6f64 	cmnvs	sp, r4, ror #30
     658:	615f6e69 	cmpvs	pc, r9, ror #28
     65c:	705f6c63 	subsvc	r6, pc, r3, ror #24
     660:	746e6972 	strbtvc	r6, [lr], #-2418	; 0x972
     664:	6e6f6300 	cdpvs	3, 6, cr6, cr15, cr0, {0}
     668:	6c6f7274 	sfmvs	f7, 2, [pc], #-464	; 4a0 <__code_start__-0x7b60>
     66c:	6765725f 			; <UNDEFINED> instruction: 0x6765725f
     670:	68635f31 	stmdavs	r3!, {r0, r4, r5, r8, r9, sl, fp, ip, lr}^
     674:	5f6b6365 	svcpl	0x006b6365
     678:	7366666f 	cmnvc	r6, #116391936	; 0x6f00000
     67c:	00737465 	rsbseq	r7, r3, r5, ror #8
     680:	5f626c74 	svcpl	0x00626c74
     684:	666e6f63 	strbtvs	r6, [lr], -r3, ror #30
     688:	705f6769 	subsvc	r6, pc, r9, ror #14
     68c:	746e6972 	strbtvc	r6, [lr], #-2418	; 0x972
     690:	696e7500 	stmdbvs	lr!, {r8, sl, ip, sp, lr}^
     694:	64656966 	strbtvs	r6, [r5], #-2406	; 0x966
     698:	6e00705f 	mcrvs	0, 0, r7, cr0, cr15, {2}
     69c:	6c5f695f 	mrrcvs	9, 5, r6, pc, cr15	; <UNPREDICTABLE>
     6a0:	006b636f 	rsbeq	r6, fp, pc, ror #6
     6a4:	5f645f6e 	svcpl	0x00645f6e
     6a8:	6b636f6c 	blvs	18dc460 <__bss_end__+0x18d0270>
     6ac:	74616400 	strbtvc	r6, [r1], #-1024	; 0x400
     6b0:	62615f61 	rsbvs	r5, r1, #388	; 0x184
     6b4:	5f74726f 	svcpl	0x0074726f
     6b8:	74636576 	strbtvc	r6, [r3], #-1398	; 0x576
     6bc:	7700726f 	strvc	r7, [r0, -pc, ror #4]
     6c0:	645f7361 	ldrbvs	r7, [pc], #-865	; 6c8 <__code_start__-0x7938>
     6c4:	67756265 	ldrbvs	r6, [r5, -r5, ror #4]!
     6c8:	7461645f 	strbtvc	r6, [r1], #-1119	; 0x45f
     6cc:	75616661 	strbvc	r6, [r1, #-1633]!	; 0x661
     6d0:	6d00746c 	cfstrsvs	mvf7, [r0, #-432]	; 0xfffffe50
     6d4:	68636d65 	stmdavs	r3!, {r0, r2, r5, r6, r8, sl, fp, sp, lr}^
     6d8:	2e6b6365 	cdpcs	3, 6, cr6, cr11, cr5, {3}
     6dc:	4f440063 	svcmi	0x00440063
     6e0:	616d5f4d 	cmnvs	sp, sp, asr #30
     6e4:	6567616e 	strbvs	r6, [r7, #-366]!	; 0x16e
     6e8:	72740072 	rsbsvc	r0, r4, #114	; 0x72
     6ec:	5f6b6361 	svcpl	0x006b6361
     6f0:	6d006469 	cfstrsvs	mvf6, [r0, #-420]	; 0xfffffe5c
     6f4:	68636d65 	stmdavs	r3!, {r0, r2, r5, r6, r8, sl, fp, sp, lr}^
     6f8:	5f6b6365 	svcpl	0x006b6365
     6fc:	70617274 	rsbvc	r7, r1, r4, ror r2
     700:	616e655f 	cmnvs	lr, pc, asr r5
     704:	00656c62 	rsbeq	r6, r5, r2, ror #24
     708:	5f6d6f64 	svcpl	0x006d6f64
     70c:	6d006469 	cfstrsvs	mvf6, [r0, #-420]	; 0xfffffe5c
     710:	725f756d 	subsvc	r7, pc, #457179136	; 0x1b400000
     714:	6d757365 	ldclvs	3, cr7, [r5, #-404]!	; 0xfffffe6c
     718:	00705f65 	rsbseq	r5, r0, r5, ror #30
     71c:	7473616c 	ldrbtvc	r6, [r3], #-364	; 0x16c
     720:	7561665f 	strbvc	r6, [r1, #-1631]!	; 0x65f
     724:	6d00746c 	cfstrsvs	mvf7, [r0, #-432]	; 0xfffffe50
     728:	68636d65 	stmdavs	r3!, {r0, r2, r5, r6, r8, sl, fp, sp, lr}^
     72c:	5f6b6365 	svcpl	0x006b6365
     730:	70617274 	rsbvc	r7, r1, r4, ror r2
     734:	616e655f 	cmnvs	lr, pc, asr r5
     738:	64656c62 	strbtvs	r6, [r5], #-3170	; 0xc62
     73c:	4d4f4400 	cfstrdmi	mvd4, [pc, #-0]	; 744 <__code_start__-0x78bc>
     740:	696c635f 	stmdbvs	ip!, {r0, r1, r2, r3, r4, r6, r8, r9, sp, lr}^
     744:	00746e65 	rsbseq	r6, r4, r5, ror #28
     748:	636d656d 	cmnvs	sp, #457179136	; 0x1b400000
     74c:	6b636568 	blvs	18d9cf4 <__bss_end__+0x18cdb04>
     750:	6172745f 	cmnvs	r2, pc, asr r4
     754:	69645f70 	stmdbvs	r4!, {r4, r5, r6, r8, r9, sl, fp, ip, lr}^
     758:	6c626173 	stfvse	f6, [r2], #-460	; 0xfffffe34
     75c:	66640065 	strbtvs	r0, [r4], -r5, rrx
     760:	44007273 	strmi	r7, [r0], #-627	; 0x273
     764:	725f4d4f 	subsvc	r4, pc, #5056	; 0x13c0
     768:	72657365 	rsbvc	r7, r5, #-1811939327	; 0x94000001
     76c:	00646576 	rsbeq	r6, r4, r6, ror r5
     770:	6c756166 	ldfvse	f6, [r5], #-408	; 0xfffffe68
     774:	65725f74 	ldrbvs	r5, [r2, #-3956]!	; 0xf74
     778:	6e6f7361 	cdpvs	3, 6, cr7, cr15, cr1, {3}
     77c:	6d656d00 	stclvs	13, cr6, [r5, #-0]
     780:	63656863 	cmnvs	r5, #6488064	; 0x630000
     784:	6f6e5f6b 	svcvs	0x006e5f6b
     788:	6363615f 	cmnvs	r3, #-1073741801	; 0xc0000017
     78c:	00737365 	rsbseq	r7, r3, r5, ror #6
     790:	5f726166 	svcpl	0x00726166
     794:	00746567 	rsbseq	r6, r4, r7, ror #10
     798:	5f4d4f44 	svcpl	0x004d4f44
     79c:	615f6f6e 	cmpvs	pc, lr, ror #30
     7a0:	73656363 	cmnvc	r5, #-1946157055	; 0x8c000001
     7a4:	61660073 	smcvs	24579	; 0x6003
     7a8:	5f746c75 	svcpl	0x00746c75
     7ac:	72646461 	rsbvc	r6, r4, #1627389952	; 0x61000000
     7b0:	73616c00 	cmnvc	r1, #0, 24
     7b4:	61665f74 	smcvs	26100	; 0x65f4
     7b8:	5f746c75 	svcpl	0x00746c75
     7bc:	00746573 	rsbseq	r6, r4, r3, ror r5
     7c0:	6c756166 	ldfvse	f6, [r5], #-408	; 0xfffffe68
     7c4:	63705f74 	cmnvs	r0, #116, 30	; 0x1d0
     7c8:	6d656d00 	stclvs	13, cr6, [r5, #-0]
     7cc:	63656863 	cmnvs	r5, #6488064	; 0x630000
     7d0:	72745f6b 	rsbsvc	r5, r4, #428	; 0x1ac
     7d4:	006b6361 	rsbeq	r6, fp, r1, ror #6
     7d8:	5f736177 	svcpl	0x00736177
     7dc:	75626564 	strbvc	r6, [r2, #-1380]!	; 0x564
     7e0:	75616667 	strbvc	r6, [r1, #-1639]!	; 0x667
     7e4:	725f746c 	subsvc	r7, pc, #108, 8	; 0x6c000000
     7e8:	74696200 	strbtvc	r6, [r9], #-512	; 0x200
     7ec:	65675f73 	strbvs	r5, [r7, #-3955]!	; 0xf73
     7f0:	6f640074 	svcvs	0x00640074
     7f4:	65705f6d 	ldrbvs	r5, [r0, #-3949]!	; 0xf6d
     7f8:	735f6d72 	cmpvc	pc, #7296	; 0x1c80
     7fc:	6c007465 	cfstrsvs	mvf7, [r0], {101}	; 0x65
     800:	5f747361 	svcpl	0x00747361
     804:	6c756166 	ldfvse	f6, [r5], #-408	; 0xfffffe68
     808:	65675f74 	strbvs	r5, [r7, #-3956]!	; 0xf74
     80c:	66640074 			; <UNDEFINED> instruction: 0x66640074
     810:	675f7273 			; <UNDEFINED> instruction: 0x675f7273
     814:	66007465 	strvs	r7, [r0], -r5, ror #8
     818:	746c7561 	strbtvc	r7, [ip], #-1377	; 0x561
     81c:	7078655f 	rsbsvc	r6, r8, pc, asr r5
     820:	65746365 	ldrbvs	r6, [r4, #-869]!	; 0x365
     824:	656d0064 	strbvs	r0, [sp, #-100]!	; 0x64
     828:	6568636d 	strbvs	r6, [r8, #-877]!	; 0x36d
     82c:	635f6b63 	cmpvs	pc, #101376	; 0x18c00
     830:	69746e6f 	ldmdbvs	r4!, {r0, r1, r2, r3, r5, r6, r9, sl, fp, sp, lr}^
     834:	5f65756e 	svcpl	0x0065756e
     838:	65746661 	ldrbvs	r6, [r4, #-1633]!	; 0x661
     83c:	61665f72 	smcvs	26098	; 0x65f2
     840:	00746c75 	rsbseq	r6, r4, r5, ror ip
     844:	7473616c 	ldrbtvc	r6, [r3], #-364	; 0x16c
     848:	7561665f 	strbvc	r6, [r1, #-1631]!	; 0x65f
     84c:	745f746c 	ldrbvc	r7, [pc], #-1132	; 854 <__code_start__-0x77ac>
     850:	6d6f6400 	cfstrdvs	mvd6, [pc, #-0]	; 858 <__code_start__-0x77a8>
     854:	7265705f 	rsbvc	r7, r5, #95	; 0x5f
     858:	65675f6d 	strbvs	r5, [r7, #-3949]!	; 0xf6d
     85c:	656d0074 	strbvs	r0, [sp, #-116]!	; 0x74
     860:	6568636d 	strbvs	r6, [r8, #-877]!	; 0x36d
     864:	6d5f6b63 	vldrvs	d22, [pc, #-396]	; 6e0 <__code_start__-0x7920>
     868:	6c007061 	stcvs	0, cr7, [r0], {97}	; 0x61
     86c:	2f636269 	svccs	0x00636269
     870:	68736168 	ldmdavs	r3!, {r3, r5, r6, r8, sp, lr}^
     874:	4700632e 	strmi	r6, [r0, -lr, lsr #6]
     878:	4320554e 	teqmi	r0, #327155712	; 0x13800000
     87c:	382e3420 	stmdacc	lr!, {r5, sl, ip, sp}
     880:	2d20332e 	stccs	3, cr3, [r0, #-184]!	; 0xffffff48
     884:	7570636d 	ldrbvc	r6, [r0, #-877]!	; 0x36d
     888:	6d72613d 	ldfvse	f6, [r2, #-244]!	; 0xffffff0c
     88c:	36373131 			; <UNDEFINED> instruction: 0x36373131
     890:	2d667a6a 	vstmdbcs	r6!, {s15-s120}
     894:	6d2d2073 	stcvs	0, cr2, [sp, #-460]!	; 0xfffffe34
     898:	656e7574 	strbvs	r7, [lr, #-1396]!	; 0x574
     89c:	6d72613d 	ldfvse	f6, [r2, #-244]!	; 0xffffff0c
     8a0:	36373131 			; <UNDEFINED> instruction: 0x36373131
     8a4:	2d667a6a 	vstmdbcs	r6!, {s15-s120}
     8a8:	672d2073 			; <UNDEFINED> instruction: 0x672d2073
     8ac:	20626467 	rsbcs	r6, r2, r7, ror #8
     8b0:	20674f2d 	rsbcs	r4, r7, sp, lsr #30
     8b4:	6474732d 	ldrbtvs	r7, [r4], #-813	; 0x32d
     8b8:	756e673d 	strbvc	r6, [lr, #-1853]!	; 0x73d
     8bc:	2d203939 	stccs	9, cr3, [r0, #-228]!	; 0xffffff1c
     8c0:	65726666 	ldrbvs	r6, [r2, #-1638]!	; 0x666
     8c4:	61747365 	cmnvs	r4, r5, ror #6
     8c8:	6e69646e 	cdpvs	4, 6, cr6, cr9, cr14, {3}
     8cc:	69750067 	ldmdbvs	r5!, {r0, r1, r2, r5, r6}^
     8d0:	5f38746e 	svcpl	0x0038746e
     8d4:	552f0074 	strpl	r0, [pc, #-116]!	; 868 <__code_start__-0x7798>
     8d8:	73726573 	cmnvc	r2, #482344960	; 0x1cc00000
     8dc:	6972622f 	ldmdbvs	r2!, {r0, r1, r2, r3, r5, r9, sp, lr}^
     8e0:	756a6e61 	strbvc	r6, [sl, #-3681]!	; 0xe61
     8e4:	65442f6e 	strbvs	r2, [r4, #-3950]	; 0xf6e
     8e8:	6f746b73 	svcvs	0x00746b73
     8ec:	63732f70 	cmnvs	r3, #112, 30	; 0x1c0
     8f0:	6c6f6f68 	stclvs	15, cr6, [pc], #-416	; 758 <__code_start__-0x78a8>
     8f4:	7270532f 	rsbsvc	r5, r0, #-1140850688	; 0xbc000000
     8f8:	31676e69 	cmncc	r7, r9, ror #28
     8fc:	2f303239 	svccs	0x00303239
     900:	34325343 	ldrtcc	r5, [r2], #-835	; 0x343
     904:	2f584c30 	svccs	0x00584c30
     908:	34327363 	ldrtcc	r7, [r2], #-867	; 0x363
     90c:	2d786c30 	ldclcs	12, cr6, [r8, #-192]!	; 0xffffff40
     910:	70733032 	rsbsvc	r3, r3, r2, lsr r0
     914:	696c2f72 	stmdbvs	ip!, {r1, r4, r5, r6, r8, r9, sl, fp, sp}^
     918:	00697062 	rsbeq	r7, r9, r2, rrx
     91c:	6362696c 	cmnvs	r2, #108, 18	; 0x1b0000
     920:	6d656d2f 	stclvs	13, cr6, [r5, #-188]!	; 0xffffff44
     924:	2e746573 	mrccs	5, 3, r6, cr4, cr3, {3}
     928:	5f5f0063 	svcpl	0x005f0063
     92c:	63756e67 	cmnvs	r5, #1648	; 0x670
     930:	5f61765f 	svcpl	0x0061765f
     934:	7473696c 	ldrbtvc	r6, [r3], #-2412	; 0x96c
     938:	62696c00 	rsbvs	r6, r9, #0, 24
     93c:	72702f63 	rsbsvc	r2, r0, #396	; 0x18c
     940:	6b746e69 	blvs	1d1c2ec <__bss_end__+0x1d100fc>
     944:	7600632e 	strvc	r6, [r0], -lr, lsr #6
     948:	72705f61 	rsbsvc	r5, r0, #388	; 0x184
     94c:	6b746e69 	blvs	1d1c2f8 <__bss_end__+0x1d10108>
     950:	765f5f00 	ldrbvc	r5, [pc], -r0, lsl #30
     954:	696c5f61 	stmdbvs	ip!, {r0, r5, r6, r8, r9, sl, fp, ip, lr}^
     958:	5f007473 	svcpl	0x00007473
     95c:	0070615f 	rsbseq	r6, r0, pc, asr r1
     960:	74726175 	ldrbtvc	r6, [r2], #-373	; 0x175
     964:	7475705f 	ldrbtvc	r7, [r5], #-95	; 0x5f
     968:	6e690063 	cdpvs	0, 6, cr0, cr9, cr3, {3}
     96c:	6e726574 	mrcvs	5, 3, r6, cr2, cr4, {3}
     970:	705f6c61 	subsvc	r6, pc, r1, ror #24
     974:	68637475 	stmdavs	r3!, {r0, r2, r4, r5, r6, sl, ip, sp, lr}^
     978:	72007261 	andvc	r7, r0, #268435462	; 0x10000006
     97c:	705f6970 	subsvc	r6, pc, r0, ror r9	; <UNPREDICTABLE>
     980:	68637475 	stmdavs	r3!, {r0, r2, r4, r5, r6, sl, ip, sp, lr}^
     984:	6c007261 	sfmvs	f7, 4, [r0], {97}	; 0x61
     988:	2f636269 	svccs	0x00636269
     98c:	63747570 	cmnvs	r4, #112, 10	; 0x1c000000
     990:	2e726168 	rpwcssz	f6, f2, #0.0
     994:	70720063 	rsbsvc	r0, r2, r3, rrx
     998:	65735f69 	ldrbvs	r5, [r3, #-3945]!	; 0xf69
     99c:	75705f74 	ldrbvc	r5, [r0, #-3956]!	; 0xf74
     9a0:	6c006374 	stcvs	3, cr6, [r0], {116}	; 0x74
     9a4:	2f636269 	svccs	0x00636269
     9a8:	6b747570 	blvs	1d1df70 <__bss_end__+0x1d11d80>
     9ac:	6900632e 	stmdbvs	r0, {r1, r2, r3, r5, r8, r9, sp, lr}
     9b0:	7265746e 	rsbvc	r7, r5, #1845493760	; 0x6e000000
     9b4:	5f6c616e 	svcpl	0x006c616e
     9b8:	6b747570 	blvs	1d1df80 <__bss_end__+0x1d11d90>
     9bc:	746d6600 	strbtvc	r6, [sp], #-1536	; 0x600
     9c0:	6174735f 	cmnvs	r4, pc, asr r3
     9c4:	6e007472 	mcrvs	4, 0, r7, cr0, cr2, {3}
     9c8:	705f6765 	subsvc	r6, pc, r5, ror #14
     9cc:	76657200 	strbtvc	r7, [r5], -r0, lsl #4
     9d0:	65737265 	ldrbvs	r7, [r3, #-613]!	; 0x265
     9d4:	64736900 	ldrbtvs	r6, [r3], #-2304	; 0x900
     9d8:	74696769 	strbtvc	r6, [r9], #-1897	; 0x769
     9dc:	74757000 	ldrbtvc	r7, [r5], #-0
     9e0:	70665f73 	rsbvc	r5, r6, r3, ror pc
     9e4:	67697300 	strbvs	r7, [r9, -r0, lsl #6]!
     9e8:	5f64656e 	svcpl	0x0064656e
     9ec:	696c0070 	stmdbvs	ip!, {r4, r5, r6}^
     9f0:	762f6362 	strtvc	r6, [pc], -r2, ror #6
     9f4:	72702d61 	rsbsvc	r2, r0, #6208	; 0x1840
     9f8:	6b746e69 	blvs	1d1c3a4 <__bss_end__+0x1d101b4>
     9fc:	7200632e 	andvc	r6, r0, #-1207959552	; 0xb8000000
     a00:	735f6970 	cmpvc	pc, #112, 18	; 0x1c0000
     a04:	6f5f7465 	svcvs	0x005f7465
     a08:	75707475 	ldrbvc	r7, [r0, #-1141]!	; 0x475
     a0c:	69770074 	ldmdbvs	r7!, {r2, r4, r5, r6}^
     a10:	00687464 	rsbeq	r7, r8, r4, ror #8
     a14:	63747570 	cmnvs	r4, #112, 10	; 0x1c000000
     a18:	0070665f 	rsbseq	r6, r0, pc, asr r6
     a1c:	74696d65 	strbtvc	r6, [r9], #-3429	; 0xd65
     a20:	62657200 	rsbvs	r7, r5, #0, 4
     a24:	5f746f6f 	svcpl	0x00746f6f
     a28:	646e6168 	strbtvs	r6, [lr], #-360	; 0x168
     a2c:	0072656c 	rsbseq	r6, r2, ip, ror #10
     a30:	66617473 			; <UNDEFINED> instruction: 0x66617473
     a34:	72732d66 	rsbsvc	r2, r3, #6528	; 0x1980
     a38:	6c632f63 	stclvs	15, cr2, [r3], #-396	; 0xfffffe74
     a3c:	2d6e6165 	stfcse	f6, [lr, #-404]!	; 0xfffffe6c
     a40:	6f626572 	svcvs	0x00626572
     a44:	632e746f 	teqvs	lr, #1862270976	; 0x6f000000
     a48:	69707200 	ldmdbvs	r0!, {r9, ip, sp, lr}^
     a4c:	6265725f 	rsbvs	r7, r5, #-268435451	; 0xf0000005
     a50:	00746f6f 	rsbseq	r6, r4, pc, ror #30
     a54:	616c6564 	cmnvs	ip, r4, ror #10
     a58:	736d5f79 	cmnvc	sp, #484	; 0x1e4
     a5c:	625f5f00 	subsvs	r5, pc, #0, 30
     a60:	735f7373 	cmpvc	pc, #-872415231	; 0xcc000001
     a64:	74726174 	ldrbtvc	r6, [r2], #-372	; 0x174
     a68:	5f005f5f 	svcpl	0x00005f5f
     a6c:	7373625f 	cmnvc	r3, #-268435451	; 0xf0000005
     a70:	646e655f 	strbtvs	r6, [lr], #-1375	; 0x55f
     a74:	63005f5f 	movwvs	r5, #3935	; 0xf5f
     a78:	72617473 	rsbvc	r7, r1, #1929379840	; 0x73000000
     a7c:	61685f74 	smcvs	34292	; 0x85f4
     a80:	656c646e 	strbvs	r6, [ip, #-1134]!	; 0x46e
     a84:	73620072 	cmnvc	r2, #114	; 0x72
     a88:	6e655f73 	mcrvs	15, 3, r5, cr5, cr3, {3}
     a8c:	635f0064 	cmpvs	pc, #100	; 0x64
     a90:	72617473 	rsbvc	r7, r1, #1929379840	; 0x73000000
     a94:	74730074 	ldrbtvc	r0, [r3], #-116	; 0x74
     a98:	2d666661 	stclcs	6, cr6, [r6, #-388]!	; 0xfffffe7c
     a9c:	2f637273 	svccs	0x00637273
     aa0:	61747363 	cmnvs	r4, r3, ror #6
     aa4:	632e7472 	teqvs	lr, #1912602624	; 0x72000000
     aa8:	61747300 	cmnvs	r4, r0, lsl #6
     aac:	732d6666 	teqvc	sp, #106954752	; 0x6600000
     ab0:	642f6372 	strtvs	r6, [pc], #-882	; ab8 <__code_start__-0x7548>
     ab4:	75616665 	strbvc	r6, [r1, #-1637]!	; 0x665
     ab8:	682d746c 	stmdavs	sp!, {r2, r3, r5, r6, sl, ip, sp, lr}
     abc:	6c646e61 	stclvs	14, cr6, [r4], #-388	; 0xfffffe7c
     ac0:	662d7265 	strtvs	r7, [sp], -r5, ror #4
     ac4:	2e747361 	cdpcs	3, 7, cr7, cr4, cr1, {3}
     ac8:	61660063 	cmnvs	r6, r3, rrx
     acc:	695f7473 	ldmdbvs	pc, {r0, r1, r4, r5, r6, sl, ip, sp, lr}^	; <UNPREDICTABLE>
     ad0:	7265746e 	rsbvc	r7, r5, #1845493760	; 0x6e000000
     ad4:	74707572 	ldrbtvc	r7, [r0], #-1394	; 0x572
     ad8:	6365765f 	cmnvs	r5, #99614720	; 0x5f00000
     adc:	00726f74 	rsbseq	r6, r2, r4, ror pc
     ae0:	66617473 			; <UNDEFINED> instruction: 0x66617473
     ae4:	72732d66 	rsbsvc	r2, r3, #6528	; 0x1980
     ae8:	65642f63 	strbvs	r2, [r4, #-3939]!	; 0xf63
     aec:	6c756166 	ldfvse	f6, [r5], #-408	; 0xfffffe68
     af0:	61682d74 	smcvs	33492	; 0x82d4
     af4:	656c646e 	strbvs	r6, [ip, #-1134]!	; 0x46e
     af8:	72702d72 	rsbsvc	r2, r0, #7296	; 0x1c80
     afc:	74656665 	strbtvc	r6, [r5], #-1637	; 0x665
     b00:	632e6863 	teqvs	lr, #6488064	; 0x630000
     b04:	65727000 	ldrbvs	r7, [r2, #-0]!
     b08:	63746566 	cmnvs	r4, #427819008	; 0x19800000
     b0c:	62615f68 	rsbvs	r5, r1, #104, 30	; 0x1a0
     b10:	5f74726f 	svcpl	0x0074726f
     b14:	74636576 	strbtvc	r6, [r3], #-1398	; 0x576
     b18:	7200726f 	andvc	r7, r0, #-268435450	; 0xf0000006
     b1c:	74657365 	strbtvc	r7, [r5], #-869	; 0x365
     b20:	6365765f 	cmnvs	r5, #99614720	; 0x5f00000
     b24:	00726f74 	rsbseq	r6, r2, r4, ror pc
     b28:	66617473 			; <UNDEFINED> instruction: 0x66617473
     b2c:	72732d66 	rsbsvc	r2, r3, #6528	; 0x1980
     b30:	65642f63 	strbvs	r2, [r4, #-3939]!	; 0xf63
     b34:	6c756166 	ldfvse	f6, [r5], #-408	; 0xfffffe68
     b38:	61682d74 	smcvs	33492	; 0x82d4
     b3c:	656c646e 	strbvs	r6, [ip, #-1134]!	; 0x46e
     b40:	65722d72 	ldrbvs	r2, [r2, #-3442]!	; 0xd72
     b44:	2e746573 	mrccs	5, 3, r6, cr4, cr3, {3}
     b48:	74730063 	ldrbtvc	r0, [r3], #-99	; 0x63
     b4c:	2d666661 	stclcs	6, cr6, [r6, #-388]!	; 0xfffffe7c
     b50:	2f637273 	svccs	0x00637273
     b54:	61666564 	cmnvs	r6, r4, ror #10
     b58:	2d746c75 	ldclcs	12, cr6, [r4, #-468]!	; 0xfffffe2c
     b5c:	646e6168 	strbtvs	r6, [lr], #-360	; 0x168
     b60:	2d72656c 	cfldr64cs	mvdx6, [r2, #-432]!	; 0xfffffe50
     b64:	65646e75 	strbvs	r6, [r4, #-3701]!	; 0xe75
     b68:	656e6966 	strbvs	r6, [lr, #-2406]!	; 0x966
     b6c:	6e692d64 	cdpvs	13, 6, cr2, cr9, cr4, {3}
     b70:	632e7473 	teqvs	lr, #1929379840	; 0x73000000
     b74:	646e7500 	strbtvs	r7, [lr], #-1280	; 0x500
     b78:	6e696665 	cdpvs	6, 6, cr6, cr9, cr5, {3}
     b7c:	695f6465 	ldmdbvs	pc, {r0, r2, r5, r6, sl, sp, lr}^	; <UNPREDICTABLE>
     b80:	7274736e 	rsbsvc	r7, r4, #-1207959551	; 0xb8000001
     b84:	69746375 	ldmdbvs	r4!, {r0, r2, r4, r5, r6, r8, r9, sp, lr}^
     b88:	765f6e6f 	ldrbvc	r6, [pc], -pc, ror #28
     b8c:	6f746365 	svcvs	0x00746365
     b90:	74730072 	ldrbtvc	r0, [r3], #-114	; 0x72
     b94:	2d666661 	stclcs	6, cr6, [r6, #-388]!	; 0xfffffe7c
     b98:	2f637273 	svccs	0x00637273
     b9c:	61666564 	cmnvs	r6, r4, ror #10
     ba0:	2d746c75 	ldclcs	12, cr6, [r4, #-468]!	; 0xfffffe2c
     ba4:	646e6168 	strbtvs	r6, [lr], #-360	; 0x168
     ba8:	7372656c 	cmnvc	r2, #108, 10	; 0x1b000000
     bac:	4900632e 	stmdbmi	r0, {r1, r2, r3, r5, r8, r9, sp, lr}
     bb0:	705f5152 	subsvc	r5, pc, r2, asr r1	; <UNPREDICTABLE>
     bb4:	69646e65 	stmdbvs	r4!, {r0, r2, r5, r6, r9, sl, fp, sp, lr}^
     bb8:	325f676e 	subscc	r6, pc, #28835840	; 0x1b80000
     bbc:	73694400 	cmnvc	r9, #0, 8
     bc0:	656c6261 	strbvs	r6, [ip, #-609]!	; 0x261
     bc4:	7361425f 	cmnvc	r1, #-268435451	; 0xf0000005
     bc8:	495f6369 	ldmdbmi	pc, {r0, r3, r5, r6, r8, r9, sp, lr}^	; <UNPREDICTABLE>
     bcc:	00735152 	rsbseq	r5, r3, r2, asr r1
     bd0:	5f514946 	svcpl	0x00514946
     bd4:	746e6f63 	strbtvc	r6, [lr], #-3939	; 0xf63
     bd8:	006c6f72 	rsbeq	r6, ip, r2, ror pc
     bdc:	746e695f 	strbtvc	r6, [lr], #-2399	; 0x95f
     be0:	75727265 	ldrbvc	r7, [r2, #-613]!	; 0x265
     be4:	745f7470 	ldrbvc	r7, [pc], #-1136	; bec <__code_start__-0x7414>
     be8:	656c6261 	strbvs	r6, [ip, #-609]!	; 0x261
     bec:	51524900 	cmppl	r2, r0, lsl #18
     bf0:	7361625f 	cmnvc	r1, #-268435451	; 0xf0000005
     bf4:	705f6369 	subsvc	r6, pc, r9, ror #6
     bf8:	69646e65 	stmdbvs	r4!, {r0, r2, r5, r6, r9, sl, fp, sp, lr}^
     bfc:	4500676e 	strmi	r6, [r0, #-1902]	; 0x76e
     c00:	6c62616e 	stfvse	f6, [r2], #-440	; 0xfffffe48
     c04:	61425f65 	cmpvs	r2, r5, ror #30
     c08:	5f636973 	svcpl	0x00636973
     c0c:	73515249 	cmpvc	r1, #-1879048188	; 0x90000004
     c10:	616e4500 	cmnvs	lr, r0, lsl #10
     c14:	5f656c62 	svcpl	0x00656c62
     c18:	73515249 	cmpvc	r1, #-1879048188	; 0x90000004
     c1c:	4500315f 	strmi	r3, [r0, #-351]	; 0x15f
     c20:	6c62616e 	stfvse	f6, [r2], #-440	; 0xfffffe48
     c24:	52495f65 	subpl	r5, r9, #404	; 0x194
     c28:	325f7351 	subscc	r7, pc, #1140850689	; 0x44000001
     c2c:	6e695f00 	cdpvs	15, 6, cr5, cr9, cr0, {0}
     c30:	72726574 	rsbsvc	r6, r2, #116, 10	; 0x1d000000
     c34:	5f747075 	svcpl	0x00747075
     c38:	6c626174 	stfvse	f6, [r2], #-464	; 0xfffffe30
     c3c:	6e655f65 	cdpvs	15, 6, cr5, cr5, cr5, {3}
     c40:	65640064 	strbvs	r0, [r4, #-100]!	; 0x64
     c44:	61625f76 	smcvs	9718	; 0x25f6
     c48:	65697272 	strbvs	r7, [r9, #-626]!	; 0x272
     c4c:	74730072 	ldrbtvc	r0, [r3], #-114	; 0x72
     c50:	2d666661 	stclcs	6, cr6, [r6, #-388]!	; 0xfffffe7c
     c54:	2f637273 	svccs	0x00637273
     c58:	65746e69 	ldrbvs	r6, [r4, #-3689]!	; 0xe69
     c5c:	70757272 	rsbsvc	r7, r5, r2, ror r2
     c60:	632d7374 	teqvs	sp, #116, 6	; 0xd0000001
     c64:	4900632e 	stmdbmi	r0, {r1, r2, r3, r5, r8, r9, sp, lr}
     c68:	425f5152 	subsmi	r5, pc, #-2147483628	; 0x80000014
     c6c:	00657361 	rsbeq	r7, r5, r1, ror #6
     c70:	33545550 	cmpcc	r4, #80, 10	; 0x14000000
     c74:	69440032 	stmdbvs	r4, {r1, r4, r5}^
     c78:	6c626173 	stfvse	f6, [r2], #-460	; 0xfffffe34
     c7c:	52495f65 	subpl	r5, r9, #404	; 0x194
     c80:	315f7351 	cmpcc	pc, r1, asr r3	; <UNPREDICTABLE>
     c84:	73694400 	cmnvc	r9, #0, 8
     c88:	656c6261 	strbvs	r6, [ip, #-609]!	; 0x261
     c8c:	5152495f 	cmppl	r2, pc, asr r9
     c90:	00325f73 	eorseq	r5, r2, r3, ror pc
     c94:	5f515249 	svcpl	0x00515249
     c98:	646e6570 	strbtvs	r6, [lr], #-1392	; 0x570
     c9c:	5f676e69 	svcpl	0x00676e69
     ca0:	74610031 	strbtvc	r0, [r1], #-49	; 0x31
     ca4:	6573755f 	ldrbvs	r7, [r3, #-1375]!	; 0x55f
     ca8:	656c5f72 	strbvs	r5, [ip, #-3954]!	; 0xf72
     cac:	006c6576 	rsbeq	r6, ip, r6, ror r5
     cb0:	66617473 			; <UNDEFINED> instruction: 0x66617473
     cb4:	72732d66 	rsbsvc	r2, r3, #6528	; 0x1980
     cb8:	65722f63 	ldrbvs	r2, [r2, #-3939]!	; 0xf63
     cbc:	746f6f62 	strbtvc	r6, [pc], #-3938	; cc4 <__code_start__-0x733c>
     cc0:	5000632e 	andpl	r6, r0, lr, lsr #6
     cc4:	53525f4d 	cmppl	r2, #308	; 0x134
     cc8:	575f4354 			; <UNDEFINED> instruction: 0x575f4354
     ccc:	47464352 	smlsldmi	r4, r6, r2, r3
     cd0:	4c55465f 	mrrcmi	6, 5, r4, r5, cr15
     cd4:	45525f4c 	ldrbmi	r5, [r2, #-3916]	; 0xf4c
     cd8:	00544553 	subseq	r4, r4, r3, asr r5
     cdc:	575f4d50 			; <UNDEFINED> instruction: 0x575f4d50
     ce0:	00474f44 	subeq	r4, r7, r4, asr #30
     ce4:	5f746573 	svcpl	0x00746573
     ce8:	72657375 	rsbvc	r7, r5, #-738197503	; 0xd4000001
     cec:	76656c5f 			; <UNDEFINED> instruction: 0x76656c5f
     cf0:	50006c65 	andpl	r6, r0, r5, ror #24
     cf4:	41505f4d 	cmpmi	r0, sp, asr #30
     cf8:	4f575353 	svcmi	0x00575353
     cfc:	50004452 	andpl	r4, r0, r2, asr r4
     d00:	53525f4d 	cmppl	r2, #308	; 0x134
     d04:	63004354 	movwvs	r4, #852	; 0x354
     d08:	00727370 	rsbseq	r7, r2, r0, ror r3
     d0c:	656d6974 	strbvs	r6, [sp, #-2420]!	; 0x974
     d10:	65675f72 	strbvs	r5, [r7, #-3954]!	; 0xf72
     d14:	73755f74 	cmnvc	r5, #116, 30	; 0x1d0
     d18:	725f6365 	subsvc	r6, pc, #-1811939327	; 0x94000001
     d1c:	64007761 	strvs	r7, [r0], #-1889	; 0x761
     d20:	79616c65 	stmdbvc	r1!, {r0, r2, r5, r6, sl, fp, sp, lr}^
     d24:	6365735f 	cmnvs	r5, #2080374785	; 0x7c000001
     d28:	61747300 	cmnvs	r4, r0, lsl #6
     d2c:	732d6666 	teqvc	sp, #106954752	; 0x6600000
     d30:	742f6372 	strtvc	r6, [pc], #-882	; d38 <__code_start__-0x72c8>
     d34:	72656d69 	rsbvc	r6, r5, #6720	; 0x1a40
     d38:	4700632e 	strmi	r6, [r0, -lr, lsr #6]
     d3c:	32335445 	eorscc	r5, r3, #1157627904	; 0x45000000
     d40:	63697400 	cmnvs	r9, #0, 8
     d44:	6400736b 	strvs	r7, [r0], #-875	; 0x36b
     d48:	79616c65 	stmdbvc	r1!, {r0, r2, r5, r6, sl, fp, sp, lr}^
     d4c:	6379635f 	cmnvs	r9, #2080374785	; 0x7c000001
     d50:	0073656c 	rsbseq	r6, r3, ip, ror #10
     d54:	616c6564 	cmnvs	ip, r4, ror #10
     d58:	73755f79 	cmnvc	r5, #484	; 0x1e4
     d5c:	6d697400 	cfstrdvs	mvd7, [r9, #-0]
     d60:	675f7265 	ldrbvs	r7, [pc, -r5, ror #4]
     d64:	755f7465 	ldrbvc	r7, [pc, #-1125]	; 907 <__code_start__-0x76f9>
     d68:	00636573 	rsbeq	r6, r3, r3, ror r5
     d6c:	6f73645f 	svcvs	0x0073645f
     d70:	6e61685f 	mcrvs	8, 3, r6, cr1, cr15, {2}
     d74:	00656c64 	rsbeq	r6, r5, r4, ror #24
     d78:	7a69735f 	bvc	1a5dafc <__bss_end__+0x1a5190c>
     d7c:	725f0065 	subsvc	r0, pc, #101	; 0x65
     d80:	34646e61 	strbtcc	r6, [r4], #-3681	; 0xe61
     d84:	655f0038 	ldrbvs	r0, [pc, #-56]	; d54 <__code_start__-0x72ac>
     d88:	6772656d 	ldrbvs	r6, [r2, -sp, ror #10]!
     d8c:	79636e65 	stmdbvc	r3!, {r0, r2, r5, r6, r9, sl, fp, sp, lr}^
     d90:	63775f00 	cmnvs	r7, #0, 30
     d94:	6d6f7472 	cfstrdvs	mvd7, [pc, #-456]!	; bd4 <__code_start__-0x742c>
     d98:	74735f62 	ldrbtvc	r5, [r3], #-3938	; 0xf62
     d9c:	00657461 	rsbeq	r7, r5, r1, ror #8
     da0:	7363775f 	cmnvc	r3, #24903680	; 0x17c0000
     da4:	6d6f7472 	cfstrdvs	mvd7, [pc, #-456]!	; be4 <__code_start__-0x741c>
     da8:	735f7362 	cmpvc	pc, #-2013265919	; 0x88000001
     dac:	65746174 	ldrbvs	r6, [r4, #-372]!	; 0x174
     db0:	626c5f00 	rsbvs	r5, ip, #0, 30
     db4:	7a697366 	bvc	1a5db54 <__bss_end__+0x1a51964>
     db8:	50470065 	subpl	r0, r7, r5, rrx
     dbc:	465f4f49 	ldrbmi	r4, [pc], -r9, asr #30
     dc0:	5f434e55 	svcpl	0x00434e55
     dc4:	55504e49 	ldrbpl	r4, [r0, #-3657]	; 0xe49
     dc8:	6d5f0054 	ldclvs	0, cr0, [pc, #-336]	; c80 <__code_start__-0x7380>
     dcc:	6f747262 	svcvs	0x00747262
     dd0:	735f6377 	cmpvc	pc, #-603979775	; 0xdc000001
     dd4:	65746174 	ldrbvs	r6, [r4, #-372]!	; 0x174
     dd8:	63775f00 	cmnvs	r7, #0, 30
     ddc:	626d6f74 	rsbvs	r6, sp, #116, 30	; 0x1d0
     de0:	6174735f 	cmnvs	r4, pc, asr r3
     de4:	5f006574 	svcpl	0x00006574
     de8:	5f6d745f 	svcpl	0x006d745f
     dec:	00636573 	rsbeq	r6, r3, r3, ror r5
     df0:	74617473 	strbtvc	r7, [r1], #-1139	; 0x473
     df4:	62755f00 	rsbsvs	r5, r5, #0, 30
     df8:	47006675 	smlsdxmi	r0, r5, r6, r6
     dfc:	5f4f4950 	svcpl	0x004f4950
     e00:	434e5546 	movtmi	r5, #58694	; 0xe546
     e04:	544c415f 	strbpl	r4, [ip], #-351	; 0x15f
     e08:	625f0031 	subsvs	r0, pc, #49	; 0x31
     e0c:	00657361 	rsbeq	r7, r5, r1, ror #6
     e10:	6c746e63 	ldclvs	14, cr6, [r4], #-396	; 0xfffffe74
     e14:	745f5f00 	ldrbvc	r5, [pc], #-3840	; e1c <__code_start__-0x71e4>
     e18:	6f685f6d 	svcvs	0x00685f6d
     e1c:	5f007275 	svcpl	0x00007275
     e20:	0066735f 	rsbeq	r7, r6, pc, asr r3
     e24:	5f6e6f5f 	svcpl	0x006e6f5f
     e28:	74697865 	strbtvc	r7, [r9], #-2149	; 0x865
     e2c:	6772615f 			; <UNDEFINED> instruction: 0x6772615f
     e30:	635f0073 	cmpvs	pc, #115	; 0x73
     e34:	696b6f6f 	stmdbvs	fp!, {r0, r1, r2, r3, r5, r6, r8, r9, sl, fp, sp, lr}^
     e38:	5f5f0065 	svcpl	0x005f0065
     e3c:	756c6773 	strbvc	r6, [ip, #-1907]!	; 0x773
     e40:	665f0065 	ldrbvs	r0, [pc], -r5, rrx
     e44:	7367616c 	cmnvc	r7, #108, 2
     e48:	73695f00 	cmnvc	r9, #0, 30
     e4c:	6178635f 	cmnvs	r8, pc, asr r3
     e50:	74735f00 	ldrbtvc	r5, [r3], #-3840	; 0xf00
     e54:	006e6964 	rsbeq	r6, lr, r4, ror #18
     e58:	6b6c625f 	blvs	1b197dc <__bss_end__+0x1b0d5ec>
     e5c:	657a6973 	ldrbvs	r6, [sl, #-2419]!	; 0x973
     e60:	72617500 	rsbvc	r7, r1, #0, 10
     e64:	00632e74 	rsbeq	r2, r3, r4, ror lr
     e68:	5f787561 	svcpl	0x00787561
     e6c:	69726570 	ldmdbvs	r2!, {r4, r5, r6, r8, sl, sp, lr}^
     e70:	00736870 	rsbseq	r6, r3, r0, ror r8
     e74:	7476635f 	ldrbtvc	r6, [r6], #-863	; 0x35f
     e78:	00667562 	rsbeq	r7, r6, r2, ror #10
     e7c:	6d6f682f 	stclvs	8, cr6, [pc, #-188]!	; dc8 <__code_start__-0x7238>
     e80:	6e652f65 	cdpvs	15, 6, cr2, cr5, cr5, {3}
     e84:	72656c67 	rsbvc	r6, r5, #26368	; 0x6700
     e88:	616c632f 	cmnvs	ip, pc, lsr #6
     e8c:	632f7373 	teqvs	pc, #-872415231	; 0xcc000001
     e90:	30343273 	eorscc	r3, r4, r3, ror r2
     e94:	322d786c 	eorcc	r7, sp, #108, 16	; 0x6c0000
     e98:	72707330 	rsbsvc	r7, r0, #48, 6	; 0xc0000000
     e9c:	62696c2f 	rsbvs	r6, r9, #12032	; 0x2f00
     ea0:	732f6970 	teqvc	pc, #112, 18	; 0x1c0000
     ea4:	66666174 			; <UNDEFINED> instruction: 0x66666174
     ea8:	6972702d 	ldmdbvs	r2!, {r0, r2, r3, r5, ip, sp, lr}^
     eac:	65746176 	ldrbvs	r6, [r4, #-374]!	; 0x176
     eb0:	626d5f00 	rsbvs	r5, sp, #0, 30
     eb4:	6f747273 	svcvs	0x00747273
     eb8:	5f736377 	svcpl	0x00736377
     ebc:	74617473 	strbtvc	r7, [r1], #-1139	; 0x473
     ec0:	6d5f0065 	ldclvs	0, cr0, [pc, #-404]	; d34 <__code_start__-0x72cc>
     ec4:	656c7262 	strbvs	r7, [ip, #-610]!	; 0x262
     ec8:	74735f6e 	ldrbtvc	r5, [r3], #-3950	; 0xf6e
     ecc:	00657461 	rsbeq	r7, r5, r1, ror #8
     ed0:	616e665f 	cmnvs	lr, pc, asr r6
     ed4:	00736772 	rsbseq	r6, r3, r2, ror r7
     ed8:	5f787561 	svcpl	0x00787561
     edc:	62616e65 	rsbvs	r6, r1, #1616	; 0x650
     ee0:	0073656c 	rsbseq	r6, r3, ip, ror #10
     ee4:	736e665f 	cmnvc	lr, #99614720	; 0x5f00000
     ee8:	69735f00 	ldmdbvs	r3!, {r8, r9, sl, fp, ip, lr}^
     eec:	75006e67 	strvc	r6, [r0, #-3687]	; 0xe67
     ef0:	5f747261 	svcpl	0x00747261
     ef4:	5f6e6163 	svcpl	0x006e6163
     ef8:	63747570 	cmnvs	r4, #112, 10	; 0x1c000000
     efc:	6c665f00 	stclvs	15, cr5, [r6], #-0
     f00:	5f6b636f 	svcpl	0x006b636f
     f04:	735f0074 	cmpvc	pc, #116	; 0x74
     f08:	72656474 	rsbvc	r6, r5, #116, 8	; 0x74000000
     f0c:	425f0072 	subsmi	r0, pc, #114	; 0x72
     f10:	6e696769 	cdpvs	7, 6, cr6, cr9, cr9, {3}
     f14:	675f0074 			; <UNDEFINED> instruction: 0x675f0074
     f18:	616d6d61 	cmnvs	sp, r1, ror #26
     f1c:	6769735f 			; <UNDEFINED> instruction: 0x6769735f
     f20:	6d61676e 	stclvs	7, cr6, [r1, #-440]!	; 0xfffffe48
     f24:	65725f00 	ldrbvs	r5, [r2, #-3840]!	; 0xf00
     f28:	746c7573 	strbtvc	r7, [ip], #-1395	; 0x573
     f2c:	5f006b5f 	svcpl	0x00006b5f
     f30:	006d745f 	rsbeq	r7, sp, pc, asr r4
     f34:	63775f5f 	cmnvs	r7, #380	; 0x17c
     f38:	75006268 	strvc	r6, [r0, #-616]	; 0x268
     f3c:	5f747261 	svcpl	0x00747261
     f40:	63746567 	cmnvs	r4, #432013312	; 0x19c00000
     f44:	74735f00 	ldrbtvc	r5, [r3], #-3840	; 0xf00
     f48:	74756f64 	ldrbtvc	r6, [r5], #-3940	; 0xf64
     f4c:	76635f00 	strbtvc	r5, [r3], -r0, lsl #30
     f50:	6e656c74 	mcrvs	12, 3, r6, cr5, cr4, {3}
     f54:	69665f00 	stmdbvs	r6!, {r8, r9, sl, fp, ip, lr}^
     f58:	5f00656c 	svcpl	0x0000656c
     f5c:	626f696e 	rsbvs	r6, pc, #1802240	; 0x1b8000
     f60:	615f0073 	cmpvs	pc, r3, ror r0	; <UNPREDICTABLE>
     f64:	69786574 	ldmdbvs	r8!, {r2, r4, r5, r6, r8, sl, sp, lr}^
     f68:	5f003074 	svcpl	0x00003074
     f6c:	6e676973 	mcrvs	9, 3, r6, cr7, cr3, {3}
     f70:	625f6c61 	subsvs	r6, pc, #24832	; 0x6100
     f74:	5f006675 	svcpl	0x00006675
     f78:	74637361 	strbtvc	r7, [r3], #-865	; 0x361
     f7c:	5f656d69 	svcpl	0x00656d69
     f80:	00667562 	rsbeq	r7, r6, r2, ror #10
     f84:	7365725f 	cmnvc	r5, #-268435451	; 0xf0000005
     f88:	00746c75 	rsbseq	r6, r4, r5, ror ip
     f8c:	63775f5f 	cmnvs	r7, #380	; 0x17c
     f90:	50470068 	subpl	r0, r7, r8, rrx
     f94:	465f4f49 	ldrbmi	r4, [pc], -r9, asr #30
     f98:	5f434e55 	svcpl	0x00434e55
     f9c:	32544c41 	subscc	r4, r4, #16640	; 0x4100
     fa0:	6e697700 	cdpvs	7, 6, cr7, cr9, cr0, {0}
     fa4:	00745f74 	rsbseq	r5, r4, r4, ror pc
     fa8:	616c665f 	cmnvs	ip, pc, asr r6
     fac:	00327367 	eorseq	r7, r2, r7, ror #6
     fb0:	6d745f5f 	ldclvs	15, cr5, [r4, #-380]!	; 0xfffffe84
     fb4:	6165795f 	cmnvs	r5, pc, asr r9
     fb8:	6f5f0072 	svcvs	0x005f0072
     fbc:	65736666 	ldrbvs	r6, [r3, #-1638]!	; 0x666
     fc0:	70670074 	rsbvc	r0, r7, r4, ror r0
     fc4:	735f6f69 	cmpvc	pc, #420	; 0x1a4
     fc8:	665f7465 	ldrbvs	r7, [pc], -r5, ror #8
     fcc:	74636e75 	strbtvc	r6, [r3], #-3701	; 0xe75
     fd0:	006e6f69 	rsbeq	r6, lr, r9, ror #30
     fd4:	78656e5f 	stmdavc	r5!, {r0, r1, r2, r3, r4, r6, r9, sl, fp, sp, lr}^
     fd8:	5f006674 	svcpl	0x00006674
     fdc:	5f6d745f 	svcpl	0x006d745f
     fe0:	006e6f6d 	rsbeq	r6, lr, sp, ror #30
     fe4:	6574615f 	ldrbvs	r6, [r4, #-351]!	; 0x15f
     fe8:	00746978 	rsbseq	r6, r4, r8, ror r9
     fec:	64735f5f 	ldrbtvs	r5, [r3], #-3935	; 0xf5f
     ff0:	6e696469 	cdpvs	4, 6, cr6, cr9, cr9, {3}
     ff4:	5f007469 	svcpl	0x00007469
     ff8:	5f66666f 	svcpl	0x0066666f
     ffc:	61750074 	cmnvs	r5, r4, ror r0
    1000:	5f007472 	svcpl	0x00007472
    1004:	65657266 	strbvs	r7, [r5, #-614]!	; 0x266
    1008:	7473696c 	ldrbtvc	r6, [r3], #-2412	; 0x96c
    100c:	4f4c5f00 	svcmi	0x004c5f00
    1010:	525f4b43 	subspl	r4, pc, #68608	; 0x10c00
    1014:	52554345 	subspl	r4, r5, #335544321	; 0x14000001
    1018:	45564953 	ldrbmi	r4, [r6, #-2387]	; 0x953
    101c:	5f00545f 	svcpl	0x0000545f
    1020:	0077656e 	rsbseq	r6, r7, lr, ror #10
    1024:	655f685f 	ldrbvs	r6, [pc, #-2143]	; 7cd <__code_start__-0x7833>
    1028:	6f6e7272 	svcvs	0x006e7272
    102c:	745f5f00 	ldrbvc	r5, [pc], #-3840	; 1034 <__code_start__-0x6fcc>
    1030:	64795f6d 	ldrbtvs	r5, [r9], #-3949	; 0xf6d
    1034:	5f007961 	svcpl	0x00007961
    1038:	7562735f 	strbvc	r7, [r2, #-863]!	; 0x35f
    103c:	695f0066 	ldmdbvs	pc, {r1, r2, r5, r6}^	; <UNPREDICTABLE>
    1040:	0073626f 	rsbseq	r6, r3, pc, ror #4
    1044:	49465f5f 	stmdbmi	r6, {r0, r1, r2, r3, r4, r6, r8, r9, sl, fp, ip, lr}^
    1048:	5f00454c 	svcpl	0x0000454c
    104c:	7473626d 	ldrbtvc	r6, [r3], #-621	; 0x26d
    1050:	5f657461 	svcpl	0x00657461
    1054:	5f5f0074 	svcpl	0x005f0074
    1058:	4c494673 	mcrrmi	6, 7, r4, r9, cr3
    105c:	6d5f0045 	ldclvs	0, cr0, [pc, #-276]	; f50 <__code_start__-0x70b0>
    1060:	61747362 	cmnvs	r4, r2, ror #6
    1064:	5f006574 	svcpl	0x00006574
    1068:	646e6172 	strbtvs	r6, [lr], #-370	; 0x172
    106c:	78656e5f 	stmdavc	r5!, {r0, r1, r2, r3, r4, r6, r9, sl, fp, sp, lr}^
    1070:	6d5f0074 	ldclvs	0, cr0, [pc, #-464]	; ea8 <__code_start__-0x7158>
    1074:	6e656c62 	cdpvs	12, 6, cr6, cr5, cr2, {3}
    1078:	6174735f 	cmnvs	r4, pc, asr r3
    107c:	5f006574 	svcpl	0x00006574
    1080:	00636e69 	rsbeq	r6, r3, r9, ror #28
    1084:	646e695f 	strbtvs	r6, [lr], #-2399	; 0x95f
    1088:	75635f00 	strbvc	r5, [r3, #-3840]!	; 0xf00
    108c:	6e657272 	mcrvs	2, 3, r7, cr5, cr2, {3}
    1090:	6f6c5f74 	svcvs	0x006c5f74
    1094:	656c6163 	strbvs	r6, [ip, #-355]!	; 0x163
    1098:	635f5f00 	cmpvs	pc, #0, 30
    109c:	6e61656c 	cdpvs	5, 6, cr6, cr1, cr12, {3}
    10a0:	5f007075 	svcpl	0x00007075
    10a4:	7778616d 	ldrbvc	r6, [r8, -sp, ror #2]!
    10a8:	5f007364 	svcpl	0x00007364
    10ac:	6e656572 	mcrvs	5, 3, r6, cr5, cr2, {3}
    10b0:	735f0074 	cmpvc	pc, #116	; 0x74
    10b4:	00646565 	rsbeq	r6, r4, r5, ror #10
    10b8:	6f635f5f 	svcvs	0x00635f5f
    10bc:	00746e75 	rsbseq	r6, r4, r5, ror lr
    10c0:	61765f5f 	cmnvs	r6, pc, asr pc
    10c4:	0065756c 	rsbeq	r7, r5, ip, ror #10
    10c8:	6565735f 	strbvs	r7, [r5, #-863]!	; 0x35f
    10cc:	6162006b 	cmnvs	r2, fp, rrx
    10d0:	5f006475 	svcpl	0x00006475
    10d4:	736f7066 	cmnvc	pc, #102	; 0x66
    10d8:	5f00745f 	svcpl	0x0000745f
    10dc:	5f6d745f 	svcpl	0x006d745f
    10e0:	006e696d 	rsbeq	r6, lr, sp, ror #18
    10e4:	61726373 	cmnvs	r2, r3, ror r3
    10e8:	00686374 	rsbeq	r6, r8, r4, ror r3
    10ec:	6c756d5f 	ldclvs	13, cr6, [r5], #-380	; 0xfffffe84
    10f0:	75700074 	ldrbvc	r0, [r0, #-116]!	; 0x74
    10f4:	00323374 	eorseq	r3, r2, r4, ror r3
    10f8:	20554e47 	subscs	r4, r5, r7, asr #28
    10fc:	20393943 	eorscs	r3, r9, r3, asr #18
    1100:	2e332e36 	mrccs	14, 1, r2, cr3, cr6, {1}
    1104:	30322031 	eorscc	r2, r2, r1, lsr r0
    1108:	36303731 			; <UNDEFINED> instruction: 0x36303731
    110c:	2d203032 	stccs	0, cr3, [r0, #-200]!	; 0xffffff38
    1110:	7570636d 	ldrbvc	r6, [r0, #-877]!	; 0x36d
    1114:	6d72613d 	ldfvse	f6, [r2, #-244]!	; 0xffffff0c
    1118:	36373131 			; <UNDEFINED> instruction: 0x36373131
    111c:	2d667a6a 	vstmdbcs	r6!, {s15-s120}
    1120:	6d2d2073 	stcvs	0, cr2, [sp, #-460]!	; 0xfffffe34
    1124:	656e7574 	strbvs	r7, [lr, #-1396]!	; 0x574
    1128:	6d72613d 	ldfvse	f6, [r2, #-244]!	; 0xffffff0c
    112c:	36373131 			; <UNDEFINED> instruction: 0x36373131
    1130:	2d667a6a 	vstmdbcs	r6!, {s15-s120}
    1134:	672d2073 			; <UNDEFINED> instruction: 0x672d2073
    1138:	20626467 	rsbcs	r6, r2, r7, ror #8
    113c:	20674f2d 	rsbcs	r4, r7, sp, lsr #30
    1140:	6474732d 	ldrbtvs	r7, [r4], #-813	; 0x32d
    1144:	756e673d 	strbvc	r6, [lr, #-1853]!	; 0x73d
    1148:	2d203939 	stccs	9, cr3, [r0, #-228]!	; 0xffffff1c
    114c:	65726666 	ldrbvs	r6, [r2, #-1638]!	; 0x666
    1150:	61747365 	cmnvs	r4, r5, ror #6
    1154:	6e69646e 	cdpvs	4, 6, cr6, cr9, cr14, {3}
    1158:	735f0067 	cmpvc	pc, #103	; 0x67
    115c:	6f747274 	svcvs	0x00747274
    1160:	616c5f6b 	cmnvs	ip, fp, ror #30
    1164:	5f007473 	svcpl	0x00007473
    1168:	79746e66 	ldmdbvc	r4!, {r1, r2, r5, r6, r9, sl, fp, sp, lr}^
    116c:	00736570 	rsbseq	r6, r3, r0, ror r5
    1170:	6464615f 	strbtvs	r6, [r4], #-351	; 0x15f
    1174:	555f5f00 	ldrbpl	r5, [pc, #-3840]	; 27c <__code_start__-0x7d84>
    1178:	676e6f4c 	strbvs	r6, [lr, -ip, asr #30]!
    117c:	65675f00 	strbvs	r5, [r7, #-3840]!	; 0xf00
    1180:	74616474 	strbtvc	r6, [r1], #-1140	; 0x474
    1184:	72655f65 	rsbvc	r5, r5, #404	; 0x194
    1188:	675f0072 			; <UNDEFINED> instruction: 0x675f0072
    118c:	61626f6c 	cmnvs	r2, ip, ror #30
    1190:	6d695f6c 	stclvs	15, cr5, [r9, #-432]!	; 0xfffffe50
    1194:	65727570 	ldrbvs	r7, [r2, #-1392]!	; 0x570
    1198:	7274705f 	rsbsvc	r7, r4, #95	; 0x5f
    119c:	75635f00 	strbvc	r5, [r3, #-3840]!	; 0xf00
    11a0:	6e657272 	mcrvs	2, 3, r7, cr5, cr2, {3}
    11a4:	61635f74 	smcvs	13812	; 0x35f4
    11a8:	6f676574 	svcvs	0x00676574
    11ac:	5f007972 	svcpl	0x00007972
    11b0:	73756e75 	cmnvc	r5, #1872	; 0x750
    11b4:	725f6465 	subsvc	r6, pc, #1694498816	; 0x65000000
    11b8:	00646e61 	rsbeq	r6, r4, r1, ror #28
    11bc:	7364775f 	cmnvc	r4, #24903680	; 0x17c0000
    11c0:	745f5f00 	ldrbvc	r5, [pc], #-3840	; 11c8 <__code_start__-0x6e38>
    11c4:	64775f6d 	ldrbtvs	r5, [r7], #-3949	; 0xf6d
    11c8:	5f007961 	svcpl	0x00007961
    11cc:	65756c67 	ldrbvs	r6, [r5, #-3175]!	; 0xc67
    11d0:	49504700 	ldmdbmi	r0, {r8, r9, sl, lr}^
    11d4:	55465f4f 	strbpl	r5, [r6, #-3919]	; 0xf4f
    11d8:	4f5f434e 	svcmi	0x005f434e
    11dc:	55505455 	ldrbpl	r5, [r0, #-1109]	; 0x455
    11e0:	6e5f0054 	mrcvs	0, 2, r0, cr15, cr4, {2}
    11e4:	6c6c616d 	stfvse	f6, [ip], #-436	; 0xfffffe4c
    11e8:	5f00636f 	svcpl	0x0000636f
    11ec:	6134366c 	teqvs	r4, ip, ror #12
    11f0:	6675625f 			; <UNDEFINED> instruction: 0x6675625f
    11f4:	72617500 	rsbvc	r7, r1, #0, 10
    11f8:	61635f74 	smcvs	13812	; 0x35f4
    11fc:	65675f6e 	strbvs	r5, [r7, #-3950]!	; 0xf6e
    1200:	5f006374 	svcpl	0x00006374
    1204:	5f676973 	svcpl	0x00676973
    1208:	636e7566 	cmnvs	lr, #427819008	; 0x19800000
    120c:	5f726f00 	svcpl	0x00726f00
    1210:	32336e69 	eorscc	r6, r3, #1680	; 0x690
    1214:	72617500 	rsbvc	r7, r1, #0, 10
    1218:	61685f74 	smcvs	34292	; 0x85f4
    121c:	61645f73 	smcvs	17907	; 0x45f3
    1220:	47006174 	smlsdxmi	r0, r4, r1, r6
    1224:	5f4f4950 	svcpl	0x004f4950
    1228:	434e5546 	movtmi	r5, #58694	; 0xe546
    122c:	544c415f 	strbpl	r4, [ip], #-351	; 0x15f
    1230:	6e5f0030 	mrcvs	0, 2, r0, cr15, cr0, {1}
    1234:	00667562 	rsbeq	r7, r6, r2, ror #10
    1238:	756e755f 	strbvc	r7, [lr, #-1375]!	; 0x55f
    123c:	00646573 	rsbeq	r6, r4, r3, ror r5
    1240:	4f495047 	svcmi	0x00495047
    1244:	4e55465f 	mrcmi	6, 2, r4, cr5, cr15, {2}
    1248:	4c415f43 	mcrrmi	15, 4, r5, r1, cr3
    124c:	47003354 	smlsdmi	r0, r4, r3, r3
    1250:	5f4f4950 	svcpl	0x004f4950
    1254:	434e5546 	movtmi	r5, #58694	; 0xe546
    1258:	544c415f 	strbpl	r4, [ip], #-351	; 0x15f
    125c:	50470034 	subpl	r0, r7, r4, lsr r0
    1260:	465f4f49 	ldrbmi	r4, [pc], -r9, asr #30
    1264:	5f434e55 	svcpl	0x00434e55
    1268:	35544c41 	ldrbcc	r4, [r4, #-3137]	; 0xc41
    126c:	745f5f00 	ldrbvc	r5, [pc], #-3840	; 1274 <__code_start__-0x6d8c>
    1270:	73695f6d 	cmnvc	r9, #436	; 0x1b4
    1274:	00747364 	rsbseq	r7, r4, r4, ror #6
    1278:	636f6c5f 	cmnvs	pc, #24320	; 0x5f00
    127c:	69746c61 	ldmdbvs	r4!, {r0, r5, r6, sl, fp, sp, lr}^
    1280:	625f656d 	subsvs	r6, pc, #457179136	; 0x1b400000
    1284:	5f006675 	svcpl	0x00006675
    1288:	736f6c63 	cmnvc	pc, #25344	; 0x6300
    128c:	725f0065 	subsvc	r0, pc, #101	; 0x65
    1290:	5f003834 	svcpl	0x00003834
    1294:	6f74626d 	svcvs	0x0074626d
    1298:	735f6377 	cmpvc	pc, #-603979775	; 0xdc000001
    129c:	65746174 	ldrbvs	r6, [r4, #-372]!	; 0x174
    12a0:	35705f00 	ldrbcc	r5, [r0, #-3840]!	; 0xf00
    12a4:	5f5f0073 	svcpl	0x005f0073
    12a8:	6d5f6d74 	ldclvs	13, cr6, [pc, #-464]	; 10e0 <__code_start__-0x6f20>
    12ac:	00796164 	rsbseq	r6, r9, r4, ror #2
    12b0:	6f697067 	svcvs	0x00697067
    12b4:	7465735f 	strbtvc	r7, [r5], #-863	; 0x35f
    12b8:	66666f5f 	uqsaxvs	r6, r6, pc	; <UNPREDICTABLE>
    12bc:	6e616200 	cdpvs	2, 6, cr6, cr1, cr0, {0}
    12c0:	7067006b 	rsbvc	r0, r7, fp, rrx
    12c4:	632e6f69 	teqvs	lr, #420	; 0x1a4
    12c8:	69706700 	ldmdbvs	r0!, {r8, r9, sl, sp, lr}^
    12cc:	65725f6f 	ldrbvs	r5, [r2, #-3951]!	; 0xf6f
    12d0:	67006461 	strvs	r6, [r0, -r1, ror #8]
    12d4:	5f6f6970 	svcpl	0x006f6970
    12d8:	5f746573 	svcpl	0x00746573
    12dc:	7074756f 	rsbsvc	r7, r4, pc, ror #10
    12e0:	67007475 	smlsdxvs	r0, r5, r4, r7
    12e4:	5f6f6970 	svcpl	0x006f6970
    12e8:	74697277 	strbtvc	r7, [r9], #-631	; 0x277
    12ec:	70670065 	rsbvc	r0, r7, r5, rrx
    12f0:	735f6f69 	cmpvc	pc, #420	; 0x1a4
    12f4:	00307465 	eorseq	r7, r0, r5, ror #8
    12f8:	6f697067 	svcvs	0x00697067
    12fc:	76656c5f 			; <UNDEFINED> instruction: 0x76656c5f
    1300:	70670030 	rsbvc	r0, r7, r0, lsr r0
    1304:	735f6f69 	cmpvc	pc, #420	; 0x1a4
    1308:	695f7465 	ldmdbvs	pc, {r0, r2, r5, r6, sl, ip, sp, lr}^	; <UNPREDICTABLE>
    130c:	7475706e 	ldrbtvc	r7, [r5], #-110	; 0x6e
    1310:	69706700 	ldmdbvs	r0!, {r8, r9, sl, sp, lr}^
    1314:	65735f6f 	ldrbvs	r5, [r3, #-3951]!	; 0xf6f
    1318:	6e6f5f74 	mcrvs	15, 3, r5, cr15, cr4, {3}
    131c:	69706700 	ldmdbvs	r0!, {r8, r9, sl, sp, lr}^
    1320:	75665f6f 	strbvc	r5, [r6, #-3951]!	; 0xf6f
    1324:	745f636e 	ldrbvc	r6, [pc], #-878	; 132c <__code_start__-0x6cd4>
    1328:	69706700 	ldmdbvs	r0!, {r8, r9, sl, sp, lr}^
    132c:	6c635f6f 	stclvs	15, cr5, [r3], #-444	; 0xfffffe44
    1330:	6b003072 	blvs	d500 <__bss_end__+0x1310>
    1334:	6c6c616d 	stfvse	f6, [ip], #-436	; 0xfffffe4c
    1338:	632e636f 	teqvs	lr, #-1140850687	; 0xbc000001
    133c:	616d6b00 	cmnvs	sp, r0, lsl #22
    1340:	636f6c6c 	cmnvs	pc, #108, 24	; 0x6c00
    1344:	696e695f 	stmdbvs	lr!, {r0, r1, r2, r3, r4, r6, r8, fp, sp, lr}^
    1348:	6f640074 	svcvs	0x00640074
    134c:	656c6275 	strbvs	r6, [ip, #-629]!	; 0x275
    1350:	72666b00 	rsbvc	r6, r6, #0, 22
    1354:	615f6565 	cmpvs	pc, r5, ror #10
    1358:	6b006c6c 	blvs	1c510 <__bss_end__+0x10320>
    135c:	6c6c616d 	stfvse	f6, [ip], #-436	; 0xfffffe4c
    1360:	695f636f 	ldmdbvs	pc, {r0, r1, r2, r3, r5, r6, r8, r9, sp, lr}^	; <UNPREDICTABLE>
    1364:	5f74696e 	svcpl	0x0074696e
    1368:	5f746573 	svcpl	0x00746573
    136c:	72617473 	rsbvc	r7, r1, #1929379840	; 0x73000000
    1370:	666b0074 			; <UNDEFINED> instruction: 0x666b0074
    1374:	00656572 	rsbeq	r6, r5, r2, ror r5
    1378:	6572666b 	ldrbvs	r6, [r2, #-1643]!	; 0x66b
    137c:	66615f65 	strbtvs	r5, [r1], -r5, ror #30
    1380:	00726574 	rsbseq	r6, r2, r4, ror r5
    1384:	6c616d6b 	stclvs	13, cr6, [r1], #-428	; 0xfffffe54
    1388:	5f636f6c 	svcpl	0x00636f6c
    138c:	70616568 	rsbvc	r6, r1, r8, ror #10
    1390:	7274705f 	rsbsvc	r7, r4, #95	; 0x5f
    1394:	685f5f00 	ldmdavs	pc, {r8, r9, sl, fp, ip, lr}^	; <UNPREDICTABLE>
    1398:	5f706165 	svcpl	0x00706165
    139c:	72617473 	rsbvc	r7, r1, #1929379840	; 0x73000000
    13a0:	005f5f74 	subseq	r5, pc, r4, ror pc	; <UNPREDICTABLE>
    13a4:	6c616d6b 	stclvs	13, cr6, [r1], #-428	; 0xfffffe54
    13a8:	5f636f6c 	svcpl	0x00636f6c
    13ac:	70616568 	rsbvc	r6, r1, r8, ror #10
    13b0:	6174735f 	cmnvs	r4, pc, asr r3
    13b4:	68007472 	stmdavs	r0, {r1, r4, r5, r6, sl, ip, sp, lr}
    13b8:	00706165 	rsbseq	r6, r0, r5, ror #2
    13bc:	6c616d6b 	stclvs	13, cr6, [r1], #-428	; 0xfffffe54
    13c0:	5f636f6c 	svcpl	0x00636f6c
    13c4:	70616568 	rsbvc	r6, r1, r8, ror #10
    13c8:	646e655f 	strbtvs	r6, [lr], #-1375	; 0x55f
    13cc:	616d6b00 	cmnvs	sp, r0, lsl #22
    13d0:	636f6c6c 	cmnvs	pc, #108, 24	; 0x6c00
	...

Disassembly of section .debug_frame:

00000000 <.debug_frame>:
   0:	0000000c 	andeq	r0, r0, ip
   4:	ffffffff 			; <UNDEFINED> instruction: 0xffffffff
   8:	7c020001 	stcvc	0, cr0, [r2], {1}
   c:	000d0c0e 	andeq	r0, sp, lr, lsl #24
  10:	00000018 	andeq	r0, r0, r8, lsl r0
  14:	00000000 	andeq	r0, r0, r0
  18:	00008020 	andeq	r8, r0, r0, lsr #32
  1c:	00000180 	andeq	r0, r0, r0, lsl #3
  20:	840c0e42 	strhi	r0, [ip], #-3650	; 0xe42
  24:	8e028503 	cfsh32hi	mvfx8, mvfx2, #3
  28:	200e4201 	andcs	r4, lr, r1, lsl #4
  2c:	00000014 	andeq	r0, r0, r4, lsl r0
  30:	00000000 	andeq	r0, r0, r0
  34:	000081a0 	andeq	r8, r0, r0, lsr #3
  38:	00000014 	andeq	r0, r0, r4, lsl r0
  3c:	83080e42 	movwhi	r0, #36418	; 0x8e42
  40:	00018e02 	andeq	r8, r1, r2, lsl #28
  44:	0000000c 	andeq	r0, r0, ip
  48:	ffffffff 			; <UNDEFINED> instruction: 0xffffffff
  4c:	7c020001 	stcvc	0, cr0, [r2], {1}
  50:	000d0c0e 	andeq	r0, sp, lr, lsl #24
  54:	00000014 	andeq	r0, r0, r4, lsl r0
  58:	00000044 	andeq	r0, r0, r4, asr #32
  5c:	000082f8 	strdeq	r8, [r0], -r8	; <UNPREDICTABLE>
  60:	00000010 	andeq	r0, r0, r0, lsl r0
  64:	83080e42 	movwhi	r0, #36418	; 0x8e42
  68:	00018e02 	andeq	r8, r1, r2, lsl #28
  6c:	00000014 	andeq	r0, r0, r4, lsl r0
  70:	00000044 	andeq	r0, r0, r4, asr #32
  74:	00008308 	andeq	r8, r0, r8, lsl #6
  78:	00000090 	muleq	r0, r0, r0
  7c:	8e040e42 	cdphi	14, 0, cr0, cr4, cr2, {2}
  80:	100e4201 	andne	r4, lr, r1, lsl #4
  84:	00000020 	andeq	r0, r0, r0, lsr #32
  88:	00000044 	andeq	r0, r0, r4, asr #32
  8c:	00008398 	muleq	r0, r8, r3
  90:	00000098 	muleq	r0, r8, r0
  94:	84180e42 	ldrhi	r0, [r8], #-3650	; 0xe42
  98:	86058506 	strhi	r8, [r5], -r6, lsl #10
  9c:	88038704 	stmdahi	r3, {r2, r8, r9, sl, pc}
  a0:	42018e02 	andmi	r8, r1, #2, 28
  a4:	0000200e 	andeq	r2, r0, lr
  a8:	00000014 	andeq	r0, r0, r4, lsl r0
  ac:	00000044 	andeq	r0, r0, r4, asr #32
  b0:	00008430 	andeq	r8, r0, r0, lsr r4
  b4:	00000010 	andeq	r0, r0, r0, lsl r0
  b8:	83080e42 	movwhi	r0, #36418	; 0x8e42
  bc:	00018e02 	andeq	r8, r1, r2, lsl #28
  c0:	00000014 	andeq	r0, r0, r4, lsl r0
  c4:	00000044 	andeq	r0, r0, r4, asr #32
  c8:	00008440 	andeq	r8, r0, r0, asr #8
  cc:	00000010 	andeq	r0, r0, r0, lsl r0
  d0:	83080e42 	movwhi	r0, #36418	; 0x8e42
  d4:	00018e02 	andeq	r8, r1, r2, lsl #28
  d8:	00000014 	andeq	r0, r0, r4, lsl r0
  dc:	00000044 	andeq	r0, r0, r4, asr #32
  e0:	00008450 	andeq	r8, r0, r0, asr r4
  e4:	00000010 	andeq	r0, r0, r0, lsl r0
  e8:	83080e42 	movwhi	r0, #36418	; 0x8e42
  ec:	00018e02 	andeq	r8, r1, r2, lsl #28
  f0:	00000014 	andeq	r0, r0, r4, lsl r0
  f4:	00000044 	andeq	r0, r0, r4, asr #32
  f8:	00008460 	andeq	r8, r0, r0, ror #8
  fc:	00000098 	muleq	r0, r8, r0
 100:	8e040e42 	cdphi	14, 0, cr0, cr4, cr2, {2}
 104:	100e4201 	andne	r4, lr, r1, lsl #4
 108:	00000020 	andeq	r0, r0, r0, lsr #32
 10c:	00000044 	andeq	r0, r0, r4, asr #32
 110:	000084f8 	strdeq	r8, [r0], -r8	; <UNPREDICTABLE>
 114:	00000194 	muleq	r0, r4, r1
 118:	841c0e42 	ldrhi	r0, [ip], #-3650	; 0xe42
 11c:	86068507 	strhi	r8, [r6], -r7, lsl #10
 120:	88048705 	stmdahi	r4, {r0, r2, r8, r9, sl, pc}
 124:	8e028903 	cdphi	9, 0, cr8, cr2, cr3, {0}
 128:	280e4201 	stmdacs	lr, {r0, r9, lr}
 12c:	00000020 	andeq	r0, r0, r0, lsr #32
 130:	00000044 	andeq	r0, r0, r4, asr #32
 134:	0000868c 	andeq	r8, r0, ip, lsl #13
 138:	000000f0 	strdeq	r0, [r0], -r0	; <UNPREDICTABLE>
 13c:	841c0e42 	ldrhi	r0, [ip], #-3650	; 0xe42
 140:	86068507 	strhi	r8, [r6], -r7, lsl #10
 144:	88048705 	stmdahi	r4, {r0, r2, r8, r9, sl, pc}
 148:	8e028903 	cdphi	9, 0, cr8, cr2, cr3, {0}
 14c:	280e4201 	stmdacs	lr, {r0, r9, lr}
 150:	00000018 	andeq	r0, r0, r8, lsl r0
 154:	00000044 	andeq	r0, r0, r4, asr #32
 158:	0000877c 	andeq	r8, r0, ip, ror r7
 15c:	00000094 	muleq	r0, r4, r0
 160:	84080e42 	strhi	r0, [r8], #-3650	; 0xe42
 164:	42018e02 	andmi	r8, r1, #2, 28
 168:	0000100e 	andeq	r1, r0, lr
 16c:	00000014 	andeq	r0, r0, r4, lsl r0
 170:	00000044 	andeq	r0, r0, r4, asr #32
 174:	00008810 	andeq	r8, r0, r0, lsl r8
 178:	00000090 	muleq	r0, r0, r0
 17c:	8e040e42 	cdphi	14, 0, cr0, cr4, cr2, {2}
 180:	100e4201 	andne	r4, lr, r1, lsl #4
 184:	00000014 	andeq	r0, r0, r4, lsl r0
 188:	00000044 	andeq	r0, r0, r4, asr #32
 18c:	000088a0 	andeq	r8, r0, r0, lsr #17
 190:	00000090 	muleq	r0, r0, r0
 194:	8e040e42 	cdphi	14, 0, cr0, cr4, cr2, {2}
 198:	100e4201 	andne	r4, lr, r1, lsl #4
 19c:	00000014 	andeq	r0, r0, r4, lsl r0
 1a0:	00000044 	andeq	r0, r0, r4, asr #32
 1a4:	00008930 	andeq	r8, r0, r0, lsr r9
 1a8:	0000000c 	andeq	r0, r0, ip
 1ac:	83080e42 	movwhi	r0, #36418	; 0x8e42
 1b0:	00018e02 	andeq	r8, r1, r2, lsl #28
 1b4:	00000014 	andeq	r0, r0, r4, lsl r0
 1b8:	00000044 	andeq	r0, r0, r4, asr #32
 1bc:	0000893c 	andeq	r8, r0, ip, lsr r9
 1c0:	00000080 	andeq	r0, r0, r0, lsl #1
 1c4:	8e040e42 	cdphi	14, 0, cr0, cr4, cr2, {2}
 1c8:	100e4201 	andne	r4, lr, r1, lsl #4
 1cc:	00000014 	andeq	r0, r0, r4, lsl r0
 1d0:	00000044 	andeq	r0, r0, r4, asr #32
 1d4:	000089bc 			; <UNDEFINED> instruction: 0x000089bc
 1d8:	00000058 	andeq	r0, r0, r8, asr r0
 1dc:	8e040e42 	cdphi	14, 0, cr0, cr4, cr2, {2}
 1e0:	100e4201 	andne	r4, lr, r1, lsl #4
 1e4:	00000014 	andeq	r0, r0, r4, lsl r0
 1e8:	00000044 	andeq	r0, r0, r4, asr #32
 1ec:	00008a14 	andeq	r8, r0, r4, lsl sl
 1f0:	00000050 	andeq	r0, r0, r0, asr r0
 1f4:	8e040e42 	cdphi	14, 0, cr0, cr4, cr2, {2}
 1f8:	100e4201 	andne	r4, lr, r1, lsl #4
 1fc:	00000014 	andeq	r0, r0, r4, lsl r0
 200:	00000044 	andeq	r0, r0, r4, asr #32
 204:	00008a64 	andeq	r8, r0, r4, ror #20
 208:	00000058 	andeq	r0, r0, r8, asr r0
 20c:	8e040e42 	cdphi	14, 0, cr0, cr4, cr2, {2}
 210:	100e4201 	andne	r4, lr, r1, lsl #4
 214:	0000000c 	andeq	r0, r0, ip
 218:	00000044 	andeq	r0, r0, r4, asr #32
 21c:	00008abc 			; <UNDEFINED> instruction: 0x00008abc
 220:	00000008 	andeq	r0, r0, r8
 224:	00000014 	andeq	r0, r0, r4, lsl r0
 228:	00000044 	andeq	r0, r0, r4, asr #32
 22c:	00008ac4 	andeq	r8, r0, r4, asr #21
 230:	0000000c 	andeq	r0, r0, ip
 234:	83080e42 	movwhi	r0, #36418	; 0x8e42
 238:	00018e02 	andeq	r8, r1, r2, lsl #28
 23c:	00000014 	andeq	r0, r0, r4, lsl r0
 240:	00000044 	andeq	r0, r0, r4, asr #32
 244:	00008ad0 	ldrdeq	r8, [r0], -r0
 248:	000000bc 	strheq	r0, [r0], -ip
 24c:	8e040e42 	cdphi	14, 0, cr0, cr4, cr2, {2}
 250:	100e4201 	andne	r4, lr, r1, lsl #4
 254:	00000014 	andeq	r0, r0, r4, lsl r0
 258:	00000044 	andeq	r0, r0, r4, asr #32
 25c:	00008b8c 	andeq	r8, r0, ip, lsl #23
 260:	00000048 	andeq	r0, r0, r8, asr #32
 264:	8e040e42 	cdphi	14, 0, cr0, cr4, cr2, {2}
 268:	100e4201 	andne	r4, lr, r1, lsl #4
 26c:	0000000c 	andeq	r0, r0, ip
 270:	ffffffff 			; <UNDEFINED> instruction: 0xffffffff
 274:	7c020001 	stcvc	0, cr0, [r2], {1}
 278:	000d0c0e 	andeq	r0, sp, lr, lsl #24
 27c:	00000018 	andeq	r0, r0, r8, lsl r0
 280:	0000026c 	andeq	r0, r0, ip, ror #4
 284:	00008bd4 	ldrdeq	r8, [r0], -r4
 288:	00000034 	andeq	r0, r0, r4, lsr r0
 28c:	83100e42 	tsthi	r0, #1056	; 0x420
 290:	85038404 	strhi	r8, [r3, #-1028]	; 0x404
 294:	00018e02 	andeq	r8, r1, r2, lsl #28
 298:	00000014 	andeq	r0, r0, r4, lsl r0
 29c:	0000026c 	andeq	r0, r0, ip, ror #4
 2a0:	00008c08 	andeq	r8, r0, r8, lsl #24
 2a4:	00000028 	andeq	r0, r0, r8, lsr #32
 2a8:	83080e42 	movwhi	r0, #36418	; 0x8e42
 2ac:	00018e02 	andeq	r8, r1, r2, lsl #28
 2b0:	00000014 	andeq	r0, r0, r4, lsl r0
 2b4:	0000026c 	andeq	r0, r0, ip, ror #4
 2b8:	00008c30 	andeq	r8, r0, r0, lsr ip
 2bc:	00000008 	andeq	r0, r0, r8
 2c0:	8e040e42 	cdphi	14, 0, cr0, cr4, cr2, {2}
 2c4:	00000001 	andeq	r0, r0, r1
 2c8:	00000014 	andeq	r0, r0, r4, lsl r0
 2cc:	0000026c 	andeq	r0, r0, ip, ror #4
 2d0:	00008c38 	andeq	r8, r0, r8, lsr ip
 2d4:	000001f8 	strdeq	r0, [r0], -r8
 2d8:	8e040e42 	cdphi	14, 0, cr0, cr4, cr2, {2}
 2dc:	100e4201 	andne	r4, lr, r1, lsl #4
 2e0:	00000014 	andeq	r0, r0, r4, lsl r0
 2e4:	0000026c 	andeq	r0, r0, ip, ror #4
 2e8:	00008e30 	andeq	r8, r0, r0, lsr lr
 2ec:	00000204 	andeq	r0, r0, r4, lsl #4
 2f0:	84080e42 	strhi	r0, [r8], #-3650	; 0xe42
 2f4:	00018e02 	andeq	r8, r1, r2, lsl #28
 2f8:	00000014 	andeq	r0, r0, r4, lsl r0
 2fc:	0000026c 	andeq	r0, r0, ip, ror #4
 300:	00009034 	andeq	r9, r0, r4, lsr r0
 304:	00000008 	andeq	r0, r0, r8
 308:	8e040e42 	cdphi	14, 0, cr0, cr4, cr2, {2}
 30c:	00000001 	andeq	r0, r0, r1
 310:	00000014 	andeq	r0, r0, r4, lsl r0
 314:	0000026c 	andeq	r0, r0, ip, ror #4
 318:	0000903c 	andeq	r9, r0, ip, lsr r0
 31c:	0000004c 	andeq	r0, r0, ip, asr #32
 320:	84080e42 	strhi	r0, [r8], #-3650	; 0xe42
 324:	00018e02 	andeq	r8, r1, r2, lsl #28
 328:	00000014 	andeq	r0, r0, r4, lsl r0
 32c:	0000026c 	andeq	r0, r0, ip, ror #4
 330:	00009088 	andeq	r9, r0, r8, lsl #1
 334:	000001c0 	andeq	r0, r0, r0, asr #3
 338:	8e040e42 	cdphi	14, 0, cr0, cr4, cr2, {2}
 33c:	100e4201 	andne	r4, lr, r1, lsl #4
 340:	0000000c 	andeq	r0, r0, ip
 344:	0000026c 	andeq	r0, r0, ip, ror #4
 348:	00009248 	andeq	r9, r0, r8, asr #4
 34c:	00000008 	andeq	r0, r0, r8
 350:	00000018 	andeq	r0, r0, r8, lsl r0
 354:	0000026c 	andeq	r0, r0, ip, ror #4
 358:	00009250 	andeq	r9, r0, r0, asr r2
 35c:	000000b4 	strheq	r0, [r0], -r4
 360:	84080e42 	strhi	r0, [r8], #-3650	; 0xe42
 364:	42018e02 	andmi	r8, r1, #2, 28
 368:	0000280e 	andeq	r2, r0, lr, lsl #16
 36c:	00000014 	andeq	r0, r0, r4, lsl r0
 370:	0000026c 	andeq	r0, r0, ip, ror #4
 374:	00009304 	andeq	r9, r0, r4, lsl #6
 378:	000001d0 	ldrdeq	r0, [r0], -r0	; <UNPREDICTABLE>
 37c:	84080e42 	strhi	r0, [r8], #-3650	; 0xe42
 380:	00018e02 	andeq	r8, r1, r2, lsl #28
 384:	00000014 	andeq	r0, r0, r4, lsl r0
 388:	0000026c 	andeq	r0, r0, ip, ror #4
 38c:	000094d4 	ldrdeq	r9, [r0], -r4
 390:	00000014 	andeq	r0, r0, r4, lsl r0
 394:	83080e42 	movwhi	r0, #36418	; 0x8e42
 398:	00018e02 	andeq	r8, r1, r2, lsl #28
 39c:	0000000c 	andeq	r0, r0, ip
 3a0:	ffffffff 			; <UNDEFINED> instruction: 0xffffffff
 3a4:	7c020001 	stcvc	0, cr0, [r2], {1}
 3a8:	000d0c0e 	andeq	r0, sp, lr, lsl #24
 3ac:	0000000c 	andeq	r0, r0, ip
 3b0:	0000039c 	muleq	r0, ip, r3
 3b4:	000094e8 	andeq	r9, r0, r8, ror #9
 3b8:	0000001c 	andeq	r0, r0, ip, lsl r0
 3bc:	0000000c 	andeq	r0, r0, ip
 3c0:	0000039c 	muleq	r0, ip, r3
 3c4:	00009504 	andeq	r9, r0, r4, lsl #10
 3c8:	00000018 	andeq	r0, r0, r8, lsl r0
 3cc:	0000001c 	andeq	r0, r0, ip, lsl r0
 3d0:	0000039c 	muleq	r0, ip, r3
 3d4:	0000951c 	andeq	r9, r0, ip, lsl r5
 3d8:	000000f0 	strdeq	r0, [r0], -r0	; <UNPREDICTABLE>
 3dc:	84100e42 	ldrhi	r0, [r0], #-3650	; 0xe42
 3e0:	86038504 	strhi	r8, [r3], -r4, lsl #10
 3e4:	42018e02 	andmi	r8, r1, #2, 28
 3e8:	0000280e 	andeq	r2, r0, lr, lsl #16
 3ec:	00000018 	andeq	r0, r0, r8, lsl r0
 3f0:	0000039c 	muleq	r0, ip, r3
 3f4:	0000960c 	andeq	r9, r0, ip, lsl #12
 3f8:	000000a4 	andeq	r0, r0, r4, lsr #1
 3fc:	84080e42 	strhi	r0, [r8], #-3650	; 0xe42
 400:	42018e02 	andmi	r8, r1, #2, 28
 404:	0000100e 	andeq	r1, r0, lr
 408:	00000014 	andeq	r0, r0, r4, lsl r0
 40c:	0000039c 	muleq	r0, ip, r3
 410:	000096b0 			; <UNDEFINED> instruction: 0x000096b0
 414:	00000094 	muleq	r0, r4, r0
 418:	8e040e42 	cdphi	14, 0, cr0, cr4, cr2, {2}
 41c:	100e4201 	andne	r4, lr, r1, lsl #4
 420:	0000000c 	andeq	r0, r0, ip
 424:	0000039c 	muleq	r0, ip, r3
 428:	00009744 	andeq	r9, r0, r4, asr #14
 42c:	00000014 	andeq	r0, r0, r4, lsl r0
 430:	00000014 	andeq	r0, r0, r4, lsl r0
 434:	0000039c 	muleq	r0, ip, r3
 438:	00009758 	andeq	r9, r0, r8, asr r7
 43c:	00000068 	andeq	r0, r0, r8, rrx
 440:	83080e42 	movwhi	r0, #36418	; 0x8e42
 444:	00018e02 	andeq	r8, r1, r2, lsl #28
 448:	00000014 	andeq	r0, r0, r4, lsl r0
 44c:	0000039c 	muleq	r0, ip, r3
 450:	000097c0 	andeq	r9, r0, r0, asr #15
 454:	00000030 	andeq	r0, r0, r0, lsr r0
 458:	83080e42 	movwhi	r0, #36418	; 0x8e42
 45c:	00018e02 	andeq	r8, r1, r2, lsl #28
 460:	00000018 	andeq	r0, r0, r8, lsl r0
 464:	0000039c 	muleq	r0, ip, r3
 468:	000097f0 	strdeq	r9, [r0], -r0
 46c:	00000150 	andeq	r0, r0, r0, asr r1
 470:	84080e42 	strhi	r0, [r8], #-3650	; 0xe42
 474:	42018e02 	andmi	r8, r1, #2, 28
 478:	0000100e 	andeq	r1, r0, lr
 47c:	00000014 	andeq	r0, r0, r4, lsl r0
 480:	0000039c 	muleq	r0, ip, r3
 484:	00009940 	andeq	r9, r0, r0, asr #18
 488:	00000084 	andeq	r0, r0, r4, lsl #1
 48c:	8e040e42 	cdphi	14, 0, cr0, cr4, cr2, {2}
 490:	100e4201 	andne	r4, lr, r1, lsl #4
 494:	00000014 	andeq	r0, r0, r4, lsl r0
 498:	0000039c 	muleq	r0, ip, r3
 49c:	000099c4 	andeq	r9, r0, r4, asr #19
 4a0:	0000006c 	andeq	r0, r0, ip, rrx
 4a4:	8e040e42 	cdphi	14, 0, cr0, cr4, cr2, {2}
 4a8:	100e4201 	andne	r4, lr, r1, lsl #4
 4ac:	00000014 	andeq	r0, r0, r4, lsl r0
 4b0:	0000039c 	muleq	r0, ip, r3
 4b4:	00009a30 	andeq	r9, r0, r0, lsr sl
 4b8:	00000070 	andeq	r0, r0, r0, ror r0
 4bc:	8e040e42 	cdphi	14, 0, cr0, cr4, cr2, {2}
 4c0:	100e4201 	andne	r4, lr, r1, lsl #4
 4c4:	00000014 	andeq	r0, r0, r4, lsl r0
 4c8:	0000039c 	muleq	r0, ip, r3
 4cc:	00009aa0 	andeq	r9, r0, r0, lsr #21
 4d0:	00000070 	andeq	r0, r0, r0, ror r0
 4d4:	8e040e42 	cdphi	14, 0, cr0, cr4, cr2, {2}
 4d8:	100e4201 	andne	r4, lr, r1, lsl #4
 4dc:	00000014 	andeq	r0, r0, r4, lsl r0
 4e0:	0000039c 	muleq	r0, ip, r3
 4e4:	00009b10 	andeq	r9, r0, r0, lsl fp
 4e8:	00000024 	andeq	r0, r0, r4, lsr #32
 4ec:	83080e42 	movwhi	r0, #36418	; 0x8e42
 4f0:	00018e02 	andeq	r8, r1, r2, lsl #28
 4f4:	00000014 	andeq	r0, r0, r4, lsl r0
 4f8:	0000039c 	muleq	r0, ip, r3
 4fc:	00009b34 	andeq	r9, r0, r4, lsr fp
 500:	00000018 	andeq	r0, r0, r8, lsl r0
 504:	83080e42 	movwhi	r0, #36418	; 0x8e42
 508:	00018e02 	andeq	r8, r1, r2, lsl #28
 50c:	00000014 	andeq	r0, r0, r4, lsl r0
 510:	0000039c 	muleq	r0, ip, r3
 514:	00009b4c 	andeq	r9, r0, ip, asr #22
 518:	00000010 	andeq	r0, r0, r0, lsl r0
 51c:	83080e42 	movwhi	r0, #36418	; 0x8e42
 520:	00018e02 	andeq	r8, r1, r2, lsl #28
 524:	00000014 	andeq	r0, r0, r4, lsl r0
 528:	0000039c 	muleq	r0, ip, r3
 52c:	00009b5c 	andeq	r9, r0, ip, asr fp
 530:	00000010 	andeq	r0, r0, r0, lsl r0
 534:	83080e42 	movwhi	r0, #36418	; 0x8e42
 538:	00018e02 	andeq	r8, r1, r2, lsl #28
 53c:	0000000c 	andeq	r0, r0, ip
 540:	ffffffff 			; <UNDEFINED> instruction: 0xffffffff
 544:	7c020001 	stcvc	0, cr0, [r2], {1}
 548:	000d0c0e 	andeq	r0, sp, lr, lsl #24
 54c:	00000014 	andeq	r0, r0, r4, lsl r0
 550:	0000053c 	andeq	r0, r0, ip, lsr r5
 554:	00009f00 	andeq	r9, r0, r0, lsl #30
 558:	000000f0 	strdeq	r0, [r0], -r0	; <UNPREDICTABLE>
 55c:	84040e42 	strhi	r0, [r4], #-3650	; 0xe42
 560:	00000001 	andeq	r0, r0, r1
 564:	0000000c 	andeq	r0, r0, ip
 568:	ffffffff 			; <UNDEFINED> instruction: 0xffffffff
 56c:	7c020001 	stcvc	0, cr0, [r2], {1}
 570:	000d0c0e 	andeq	r0, sp, lr, lsl #24
 574:	0000000c 	andeq	r0, r0, ip
 578:	00000564 	andeq	r0, r0, r4, ror #10
 57c:	00009ff0 	strdeq	r9, [r0], -r0
 580:	00000020 	andeq	r0, r0, r0, lsr #32
 584:	0000000c 	andeq	r0, r0, ip
 588:	ffffffff 			; <UNDEFINED> instruction: 0xffffffff
 58c:	7c020001 	stcvc	0, cr0, [r2], {1}
 590:	000d0c0e 	andeq	r0, sp, lr, lsl #24
 594:	00000024 	andeq	r0, r0, r4, lsr #32
 598:	00000584 	andeq	r0, r0, r4, lsl #11
 59c:	0000a010 	andeq	sl, r0, r0, lsl r0
 5a0:	00000058 	andeq	r0, r0, r8, asr r0
 5a4:	80100e42 	andshi	r0, r0, r2, asr #28
 5a8:	82038104 	andhi	r8, r3, #4, 2
 5ac:	42018302 	andmi	r8, r1, #134217728	; 0x8000000
 5b0:	07841c0e 	streq	r1, [r4, lr, lsl #24]
 5b4:	058e0685 	streq	r0, [lr, #1669]	; 0x685
 5b8:	00280e42 	eoreq	r0, r8, r2, asr #28
 5bc:	0000000c 	andeq	r0, r0, ip
 5c0:	ffffffff 			; <UNDEFINED> instruction: 0xffffffff
 5c4:	7c020001 	stcvc	0, cr0, [r2], {1}
 5c8:	000d0c0e 	andeq	r0, sp, lr, lsl #24
 5cc:	00000014 	andeq	r0, r0, r4, lsl r0
 5d0:	000005bc 			; <UNDEFINED> instruction: 0x000005bc
 5d4:	0000a068 	andeq	sl, r0, r8, rrx
 5d8:	00000014 	andeq	r0, r0, r4, lsl r0
 5dc:	84080e42 	strhi	r0, [r8], #-3650	; 0xe42
 5e0:	00018e02 	andeq	r8, r1, r2, lsl #28
 5e4:	0000000c 	andeq	r0, r0, ip
 5e8:	000005bc 			; <UNDEFINED> instruction: 0x000005bc
 5ec:	0000a07c 	andeq	sl, r0, ip, ror r0
 5f0:	00000018 	andeq	r0, r0, r8, lsl r0
 5f4:	0000000c 	andeq	r0, r0, ip
 5f8:	000005bc 			; <UNDEFINED> instruction: 0x000005bc
 5fc:	0000a094 	muleq	r0, r4, r0
 600:	00000010 	andeq	r0, r0, r0, lsl r0
 604:	0000000c 	andeq	r0, r0, ip
 608:	ffffffff 			; <UNDEFINED> instruction: 0xffffffff
 60c:	7c020001 	stcvc	0, cr0, [r2], {1}
 610:	000d0c0e 	andeq	r0, sp, lr, lsl #24
 614:	00000018 	andeq	r0, r0, r8, lsl r0
 618:	00000604 	andeq	r0, r0, r4, lsl #12
 61c:	0000a0a4 	andeq	sl, r0, r4, lsr #1
 620:	00000034 	andeq	r0, r0, r4, lsr r0
 624:	83100e42 	tsthi	r0, #1056	; 0x420
 628:	85038404 	strhi	r8, [r3, #-1028]	; 0x404
 62c:	00018e02 	andeq	r8, r1, r2, lsl #28
 630:	0000000c 	andeq	r0, r0, ip
 634:	ffffffff 			; <UNDEFINED> instruction: 0xffffffff
 638:	7c020001 	stcvc	0, cr0, [r2], {1}
 63c:	000d0c0e 	andeq	r0, sp, lr, lsl #24
 640:	0000000c 	andeq	r0, r0, ip
 644:	00000630 	andeq	r0, r0, r0, lsr r6
 648:	0000a0d8 	ldrdeq	sl, [r0], -r8
 64c:	00000014 	andeq	r0, r0, r4, lsl r0
 650:	0000000c 	andeq	r0, r0, ip
 654:	00000630 	andeq	r0, r0, r0, lsr r6
 658:	0000a0ec 	andeq	sl, r0, ip, ror #1
 65c:	0000002c 	andeq	r0, r0, ip, lsr #32
 660:	0000000c 	andeq	r0, r0, ip
 664:	00000630 	andeq	r0, r0, r0, lsr r6
 668:	0000a118 	andeq	sl, r0, r8, lsl r1
 66c:	00000040 	andeq	r0, r0, r0, asr #32
 670:	00000020 	andeq	r0, r0, r0, lsr #32
 674:	00000630 	andeq	r0, r0, r0, lsr r6
 678:	0000a158 	andeq	sl, r0, r8, asr r1
 67c:	000001bc 			; <UNDEFINED> instruction: 0x000001bc
 680:	84180e42 	ldrhi	r0, [r8], #-3650	; 0xe42
 684:	86058506 	strhi	r8, [r5], -r6, lsl #10
 688:	88038704 	stmdahi	r3, {r2, r8, r9, sl, pc}
 68c:	42018e02 	andmi	r8, r1, #2, 28
 690:	0000600e 	andeq	r6, r0, lr
 694:	00000014 	andeq	r0, r0, r4, lsl r0
 698:	00000630 	andeq	r0, r0, r0, lsr r6
 69c:	0000a314 	andeq	sl, r0, r4, lsl r3
 6a0:	00000068 	andeq	r0, r0, r8, rrx
 6a4:	8e040e42 	cdphi	14, 0, cr0, cr4, cr2, {2}
 6a8:	100e4201 	andne	r4, lr, r1, lsl #4
 6ac:	00000028 	andeq	r0, r0, r8, lsr #32
 6b0:	00000630 	andeq	r0, r0, r0, lsr r6
 6b4:	0000a37c 	andeq	sl, r0, ip, ror r3
 6b8:	000002d4 	ldrdeq	r0, [r0], -r4
 6bc:	84240e42 	strthi	r0, [r4], #-3650	; 0xe42
 6c0:	86088509 	strhi	r8, [r8], -r9, lsl #10
 6c4:	88068707 	stmdahi	r6, {r0, r1, r2, r8, r9, sl, pc}
 6c8:	8a048905 	bhi	122ae4 <__bss_end__+0x1168f4>
 6cc:	8e028b03 	vmlahi.f64	d8, d2, d3
 6d0:	b80e4201 	stmdalt	lr, {r0, r9, lr}
 6d4:	00000001 	andeq	r0, r0, r1
 6d8:	0000000c 	andeq	r0, r0, ip
 6dc:	ffffffff 			; <UNDEFINED> instruction: 0xffffffff
 6e0:	7c020001 	stcvc	0, cr0, [r2], {1}
 6e4:	000d0c0e 	andeq	r0, sp, lr, lsl #24
 6e8:	00000014 	andeq	r0, r0, r4, lsl r0
 6ec:	000006d8 	ldrdeq	r0, [r0], -r8
 6f0:	0000a650 	andeq	sl, r0, r0, asr r6
 6f4:	0000002c 	andeq	r0, r0, ip, lsr #32
 6f8:	83080e42 	movwhi	r0, #36418	; 0x8e42
 6fc:	00018e02 	andeq	r8, r1, r2, lsl #28
 700:	0000000c 	andeq	r0, r0, ip
 704:	ffffffff 			; <UNDEFINED> instruction: 0xffffffff
 708:	7c020001 	stcvc	0, cr0, [r2], {1}
 70c:	000d0c0e 	andeq	r0, sp, lr, lsl #24
 710:	00000014 	andeq	r0, r0, r4, lsl r0
 714:	00000700 	andeq	r0, r0, r0, lsl #14
 718:	0000a67c 	andeq	sl, r0, ip, ror r6
 71c:	00000038 	andeq	r0, r0, r8, lsr r0
 720:	83080e42 	movwhi	r0, #36418	; 0x8e42
 724:	00018e02 	andeq	r8, r1, r2, lsl #28
 728:	0000000c 	andeq	r0, r0, ip
 72c:	ffffffff 			; <UNDEFINED> instruction: 0xffffffff
 730:	7c020001 	stcvc	0, cr0, [r2], {1}
 734:	000d0c0e 	andeq	r0, sp, lr, lsl #24
 738:	00000014 	andeq	r0, r0, r4, lsl r0
 73c:	00000728 	andeq	r0, r0, r8, lsr #14
 740:	0000a6b4 			; <UNDEFINED> instruction: 0x0000a6b4
 744:	00000044 	andeq	r0, r0, r4, asr #32
 748:	8e040e42 	cdphi	14, 0, cr0, cr4, cr2, {2}
 74c:	100e4201 	andne	r4, lr, r1, lsl #4
 750:	0000000c 	andeq	r0, r0, ip
 754:	ffffffff 			; <UNDEFINED> instruction: 0xffffffff
 758:	7c020001 	stcvc	0, cr0, [r2], {1}
 75c:	000d0c0e 	andeq	r0, sp, lr, lsl #24
 760:	00000014 	andeq	r0, r0, r4, lsl r0
 764:	00000750 	andeq	r0, r0, r0, asr r7
 768:	0000a6f8 	strdeq	sl, [r0], -r8
 76c:	00000044 	andeq	r0, r0, r4, asr #32
 770:	8e040e42 	cdphi	14, 0, cr0, cr4, cr2, {2}
 774:	100e4201 	andne	r4, lr, r1, lsl #4
 778:	0000000c 	andeq	r0, r0, ip
 77c:	ffffffff 			; <UNDEFINED> instruction: 0xffffffff
 780:	7c020001 	stcvc	0, cr0, [r2], {1}
 784:	000d0c0e 	andeq	r0, sp, lr, lsl #24
 788:	00000014 	andeq	r0, r0, r4, lsl r0
 78c:	00000778 	andeq	r0, r0, r8, ror r7
 790:	0000a73c 	andeq	sl, r0, ip, lsr r7
 794:	00000044 	andeq	r0, r0, r4, asr #32
 798:	8e040e42 	cdphi	14, 0, cr0, cr4, cr2, {2}
 79c:	100e4201 	andne	r4, lr, r1, lsl #4
 7a0:	0000000c 	andeq	r0, r0, ip
 7a4:	ffffffff 			; <UNDEFINED> instruction: 0xffffffff
 7a8:	7c020001 	stcvc	0, cr0, [r2], {1}
 7ac:	000d0c0e 	andeq	r0, sp, lr, lsl #24
 7b0:	00000014 	andeq	r0, r0, r4, lsl r0
 7b4:	000007a0 	andeq	r0, r0, r0, lsr #15
 7b8:	0000a780 	andeq	sl, r0, r0, lsl #15
 7bc:	00000044 	andeq	r0, r0, r4, asr #32
 7c0:	8e040e42 	cdphi	14, 0, cr0, cr4, cr2, {2}
 7c4:	100e4201 	andne	r4, lr, r1, lsl #4
 7c8:	0000000c 	andeq	r0, r0, ip
 7cc:	ffffffff 			; <UNDEFINED> instruction: 0xffffffff
 7d0:	7c020001 	stcvc	0, cr0, [r2], {1}
 7d4:	000d0c0e 	andeq	r0, sp, lr, lsl #24
 7d8:	0000000c 	andeq	r0, r0, ip
 7dc:	000007c8 	andeq	r0, r0, r8, asr #15
 7e0:	0000a7c4 	andeq	sl, r0, r4, asr #15
 7e4:	00000004 	andeq	r0, r0, r4
 7e8:	0000000c 	andeq	r0, r0, ip
 7ec:	000007c8 	andeq	r0, r0, r8, asr #15
 7f0:	0000a7c8 	andeq	sl, r0, r8, asr #15
 7f4:	00000004 	andeq	r0, r0, r4
 7f8:	0000000c 	andeq	r0, r0, ip
 7fc:	ffffffff 			; <UNDEFINED> instruction: 0xffffffff
 800:	7c020001 	stcvc	0, cr0, [r2], {1}
 804:	000d0c0e 	andeq	r0, sp, lr, lsl #24
 808:	00000014 	andeq	r0, r0, r4, lsl r0
 80c:	000007f8 	strdeq	r0, [r0], -r8
 810:	0000a7cc 	andeq	sl, r0, ip, asr #15
 814:	0000006c 	andeq	r0, r0, ip, rrx
 818:	83080e42 	movwhi	r0, #36418	; 0x8e42
 81c:	00018e02 	andeq	r8, r1, r2, lsl #28
 820:	0000000c 	andeq	r0, r0, ip
 824:	ffffffff 			; <UNDEFINED> instruction: 0xffffffff
 828:	7c020001 	stcvc	0, cr0, [r2], {1}
 82c:	000d0c0e 	andeq	r0, sp, lr, lsl #24
 830:	0000000c 	andeq	r0, r0, ip
 834:	00000820 	andeq	r0, r0, r0, lsr #16
 838:	0000a838 	andeq	sl, r0, r8, lsr r8
 83c:	00000018 	andeq	r0, r0, r8, lsl r0
 840:	0000000c 	andeq	r0, r0, ip
 844:	00000820 	andeq	r0, r0, r0, lsr #16
 848:	0000a850 	andeq	sl, r0, r0, asr r8
 84c:	00000014 	andeq	r0, r0, r4, lsl r0
 850:	00000014 	andeq	r0, r0, r4, lsl r0
 854:	00000820 	andeq	r0, r0, r0, lsr #16
 858:	0000a864 	andeq	sl, r0, r4, ror #16
 85c:	00000048 	andeq	r0, r0, r8, asr #32
 860:	83080e42 	movwhi	r0, #36418	; 0x8e42
 864:	00018e02 	andeq	r8, r1, r2, lsl #28
 868:	0000000c 	andeq	r0, r0, ip
 86c:	ffffffff 			; <UNDEFINED> instruction: 0xffffffff
 870:	7c020001 	stcvc	0, cr0, [r2], {1}
 874:	000d0c0e 	andeq	r0, sp, lr, lsl #24
 878:	0000000c 	andeq	r0, r0, ip
 87c:	00000868 	andeq	r0, r0, r8, ror #16
 880:	0000a8ac 	andeq	sl, r0, ip, lsr #17
 884:	0000001c 	andeq	r0, r0, ip, lsl r0
 888:	00000014 	andeq	r0, r0, r4, lsl r0
 88c:	00000868 	andeq	r0, r0, r8, ror #16
 890:	0000a8c8 	andeq	sl, r0, r8, asr #17
 894:	00000014 	andeq	r0, r0, r4, lsl r0
 898:	83080e42 	movwhi	r0, #36418	; 0x8e42
 89c:	00018e02 	andeq	r8, r1, r2, lsl #28
 8a0:	00000014 	andeq	r0, r0, r4, lsl r0
 8a4:	00000868 	andeq	r0, r0, r8, ror #16
 8a8:	0000a8dc 	ldrdeq	sl, [r0], -ip
 8ac:	0000001c 	andeq	r0, r0, ip, lsl r0
 8b0:	84080e42 	strhi	r0, [r8], #-3650	; 0xe42
 8b4:	00018e02 	andeq	r8, r1, r2, lsl #28
 8b8:	00000018 	andeq	r0, r0, r8, lsl r0
 8bc:	00000868 	andeq	r0, r0, r8, ror #16
 8c0:	0000a8f8 	strdeq	sl, [r0], -r8
 8c4:	00000024 	andeq	r0, r0, r4, lsr #32
 8c8:	83100e42 	tsthi	r0, #1056	; 0x420
 8cc:	85038404 	strhi	r8, [r3, #-1028]	; 0x404
 8d0:	00018e02 	andeq	r8, r1, r2, lsl #28
 8d4:	00000014 	andeq	r0, r0, r4, lsl r0
 8d8:	00000868 	andeq	r0, r0, r8, ror #16
 8dc:	0000a91c 	andeq	sl, r0, ip, lsl r9
 8e0:	00000014 	andeq	r0, r0, r4, lsl r0
 8e4:	83080e42 	movwhi	r0, #36418	; 0x8e42
 8e8:	00018e02 	andeq	r8, r1, r2, lsl #28
 8ec:	00000014 	andeq	r0, r0, r4, lsl r0
 8f0:	00000868 	andeq	r0, r0, r8, ror #16
 8f4:	0000a930 	andeq	sl, r0, r0, lsr r9
 8f8:	00000014 	andeq	r0, r0, r4, lsl r0
 8fc:	83080e42 	movwhi	r0, #36418	; 0x8e42
 900:	00018e02 	andeq	r8, r1, r2, lsl #28
 904:	0000000c 	andeq	r0, r0, ip
 908:	ffffffff 			; <UNDEFINED> instruction: 0xffffffff
 90c:	7c020001 	stcvc	0, cr0, [r2], {1}
 910:	000d0c0e 	andeq	r0, sp, lr, lsl #24
 914:	00000018 	andeq	r0, r0, r8, lsl r0
 918:	00000904 	andeq	r0, r0, r4, lsl #18
 91c:	0000a9a8 	andeq	sl, r0, r8, lsr #19
 920:	00000020 	andeq	r0, r0, r0, lsr #32
 924:	84100e42 	ldrhi	r0, [r0], #-3650	; 0xe42
 928:	86038504 	strhi	r8, [r3], -r4, lsl #10
 92c:	00018e02 	andeq	r8, r1, r2, lsl #28
 930:	00000014 	andeq	r0, r0, r4, lsl r0
 934:	00000904 	andeq	r0, r0, r4, lsl #18
 938:	0000a9c8 	andeq	sl, r0, r8, asr #19
 93c:	000000b0 	strheq	r0, [r0], -r0	; <UNPREDICTABLE>
 940:	84080e42 	strhi	r0, [r8], #-3650	; 0xe42
 944:	00018e02 	andeq	r8, r1, r2, lsl #28
 948:	00000014 	andeq	r0, r0, r4, lsl r0
 94c:	00000904 	andeq	r0, r0, r4, lsl #18
 950:	0000aa78 	andeq	sl, r0, r8, ror sl
 954:	00000018 	andeq	r0, r0, r8, lsl r0
 958:	84080e42 	strhi	r0, [r8], #-3650	; 0xe42
 95c:	00018e02 	andeq	r8, r1, r2, lsl #28
 960:	00000014 	andeq	r0, r0, r4, lsl r0
 964:	00000904 	andeq	r0, r0, r4, lsl #18
 968:	0000aa90 	muleq	r0, r0, sl
 96c:	00000020 	andeq	r0, r0, r0, lsr #32
 970:	84080e42 	strhi	r0, [r8], #-3650	; 0xe42
 974:	00018e02 	andeq	r8, r1, r2, lsl #28
 978:	00000014 	andeq	r0, r0, r4, lsl r0
 97c:	00000904 	andeq	r0, r0, r4, lsl #18
 980:	0000aab0 			; <UNDEFINED> instruction: 0x0000aab0
 984:	00000030 	andeq	r0, r0, r0, lsr r0
 988:	84080e42 	strhi	r0, [r8], #-3650	; 0xe42
 98c:	00018e02 	andeq	r8, r1, r2, lsl #28
 990:	00000014 	andeq	r0, r0, r4, lsl r0
 994:	00000904 	andeq	r0, r0, r4, lsl #18
 998:	0000aae0 	andeq	sl, r0, r0, ror #21
 99c:	00000030 	andeq	r0, r0, r0, lsr r0
 9a0:	84080e42 	strhi	r0, [r8], #-3650	; 0xe42
 9a4:	00018e02 	andeq	r8, r1, r2, lsl #28
 9a8:	00000014 	andeq	r0, r0, r4, lsl r0
 9ac:	00000904 	andeq	r0, r0, r4, lsl #18
 9b0:	0000ab10 	andeq	sl, r0, r0, lsl fp
 9b4:	00000010 	andeq	r0, r0, r0, lsl r0
 9b8:	84080e42 	strhi	r0, [r8], #-3650	; 0xe42
 9bc:	00018e02 	andeq	r8, r1, r2, lsl #28
 9c0:	0000000c 	andeq	r0, r0, ip
 9c4:	ffffffff 			; <UNDEFINED> instruction: 0xffffffff
 9c8:	7c020001 	stcvc	0, cr0, [r2], {1}
 9cc:	000d0c0e 	andeq	r0, sp, lr, lsl #24
 9d0:	00000018 	andeq	r0, r0, r8, lsl r0
 9d4:	000009c0 	andeq	r0, r0, r0, asr #19
 9d8:	0000ab20 	andeq	sl, r0, r0, lsr #22
 9dc:	00000068 	andeq	r0, r0, r8, rrx
 9e0:	84100e4a 	ldrhi	r0, [r0], #-3658	; 0xe4a
 9e4:	86038504 	strhi	r8, [r3], -r4, lsl #10
 9e8:	00018e02 	andeq	r8, r1, r2, lsl #28
 9ec:	00000014 	andeq	r0, r0, r4, lsl r0
 9f0:	000009c0 	andeq	r0, r0, r0, asr #19
 9f4:	0000ab88 	andeq	sl, r0, r8, lsl #23
 9f8:	00000010 	andeq	r0, r0, r0, lsl r0
 9fc:	84080e42 	strhi	r0, [r8], #-3650	; 0xe42
 a00:	00018e02 	andeq	r8, r1, r2, lsl #28
 a04:	00000014 	andeq	r0, r0, r4, lsl r0
 a08:	000009c0 	andeq	r0, r0, r0, asr #19
 a0c:	0000ab98 	muleq	r0, r8, fp
 a10:	00000024 	andeq	r0, r0, r4, lsr #32
 a14:	84080e46 	strhi	r0, [r8], #-3654	; 0xe46
 a18:	00018e02 	andeq	r8, r1, r2, lsl #28
 a1c:	00000014 	andeq	r0, r0, r4, lsl r0
 a20:	000009c0 	andeq	r0, r0, r0, asr #19
 a24:	0000abbc 			; <UNDEFINED> instruction: 0x0000abbc
 a28:	00000024 	andeq	r0, r0, r4, lsr #32
 a2c:	84080e46 	strhi	r0, [r8], #-3654	; 0xe46
 a30:	00018e02 	andeq	r8, r1, r2, lsl #28
 a34:	00000014 	andeq	r0, r0, r4, lsl r0
 a38:	000009c0 	andeq	r0, r0, r0, asr #19
 a3c:	0000abe0 	andeq	sl, r0, r0, ror #23
 a40:	00000010 	andeq	r0, r0, r0, lsl r0
 a44:	84080e42 	strhi	r0, [r8], #-3650	; 0xe42
 a48:	00018e02 	andeq	r8, r1, r2, lsl #28
 a4c:	00000014 	andeq	r0, r0, r4, lsl r0
 a50:	000009c0 	andeq	r0, r0, r0, asr #19
 a54:	0000abf0 	strdeq	sl, [r0], -r0
 a58:	0000001c 	andeq	r0, r0, ip, lsl r0
 a5c:	84080e42 	strhi	r0, [r8], #-3650	; 0xe42
 a60:	00018e02 	andeq	r8, r1, r2, lsl #28
 a64:	00000018 	andeq	r0, r0, r8, lsl r0
 a68:	000009c0 	andeq	r0, r0, r0, asr #19
 a6c:	0000ac0c 	andeq	sl, r0, ip, lsl #24
 a70:	00000034 	andeq	r0, r0, r4, lsr r0
 a74:	84080e46 	strhi	r0, [r8], #-3654	; 0xe46
 a78:	4e018e02 	cdpmi	14, 0, cr8, cr1, cr2, {0}
 a7c:	cec4000e 	cdpgt	0, 12, cr0, cr4, cr14, {0}
 a80:	0000000c 	andeq	r0, r0, ip
 a84:	ffffffff 			; <UNDEFINED> instruction: 0xffffffff
 a88:	7c020001 	stcvc	0, cr0, [r2], {1}
 a8c:	000d0c0e 	andeq	r0, sp, lr, lsl #24
 a90:	0000000c 	andeq	r0, r0, ip
 a94:	00000a80 	andeq	r0, r0, r0, lsl #21
 a98:	0000ac40 	andeq	sl, r0, r0, asr #24
 a9c:	00000010 	andeq	r0, r0, r0, lsl r0
 aa0:	0000000c 	andeq	r0, r0, ip
 aa4:	00000a80 	andeq	r0, r0, r0, lsl #21
 aa8:	0000ac50 	andeq	sl, r0, r0, asr ip
 aac:	0000000c 	andeq	r0, r0, ip
 ab0:	00000014 	andeq	r0, r0, r4, lsl r0
 ab4:	00000a80 	andeq	r0, r0, r0, lsl #21
 ab8:	0000ac5c 	andeq	sl, r0, ip, asr ip
 abc:	00000050 	andeq	r0, r0, r0, asr r0
 ac0:	84080e52 	strhi	r0, [r8], #-3666	; 0xe52
 ac4:	00018e02 	andeq	r8, r1, r2, lsl #28
 ac8:	00000014 	andeq	r0, r0, r4, lsl r0
 acc:	00000a80 	andeq	r0, r0, r0, lsl #21
 ad0:	0000acac 	andeq	sl, r0, ip, lsr #25
 ad4:	00000064 	andeq	r0, r0, r4, rrx
 ad8:	84080e42 	strhi	r0, [r8], #-3650	; 0xe42
 adc:	00018e02 	andeq	r8, r1, r2, lsl #28
 ae0:	0000000c 	andeq	r0, r0, ip
 ae4:	00000a80 	andeq	r0, r0, r0, lsl #21
 ae8:	0000ad10 	andeq	sl, r0, r0, lsl sp
 aec:	00000004 	andeq	r0, r0, r4
 af0:	00000014 	andeq	r0, r0, r4, lsl r0
 af4:	00000a80 	andeq	r0, r0, r0, lsl #21
 af8:	0000ad14 	andeq	sl, r0, r4, lsl sp
 afc:	0000000c 	andeq	r0, r0, ip
 b00:	84080e42 	strhi	r0, [r8], #-3650	; 0xe42
 b04:	00018e02 	andeq	r8, r1, r2, lsl #28
 b08:	00000014 	andeq	r0, r0, r4, lsl r0
 b0c:	00000a80 	andeq	r0, r0, r0, lsl #21
 b10:	0000ad20 	andeq	sl, r0, r0, lsr #26
 b14:	0000008c 	andeq	r0, r0, ip, lsl #1
 b18:	84080e42 	strhi	r0, [r8], #-3650	; 0xe42
 b1c:	00018e02 	andeq	r8, r1, r2, lsl #28
 b20:	0000000c 	andeq	r0, r0, ip
 b24:	00000a80 	andeq	r0, r0, r0, lsl #21
 b28:	0000adac 	andeq	sl, r0, ip, lsr #27
 b2c:	00000004 	andeq	r0, r0, r4
 b30:	0000000c 	andeq	r0, r0, ip
 b34:	00000a80 	andeq	r0, r0, r0, lsl #21
 b38:	0000adb0 			; <UNDEFINED> instruction: 0x0000adb0
 b3c:	00000014 	andeq	r0, r0, r4, lsl r0
 b40:	0000000c 	andeq	r0, r0, ip
 b44:	00000a80 	andeq	r0, r0, r0, lsl #21
 b48:	0000adc4 	andeq	sl, r0, r4, asr #27
 b4c:	00000010 	andeq	r0, r0, r0, lsl r0

Disassembly of section .debug_ranges:

00000000 <.debug_ranges>:
   0:	000000e4 	andeq	r0, r0, r4, ror #1
   4:	00000108 	andeq	r0, r0, r8, lsl #2
   8:	0000010c 	andeq	r0, r0, ip, lsl #2
   c:	0000011c 	andeq	r0, r0, ip, lsl r1
	...
  18:	000000e4 	andeq	r0, r0, r4, ror #1
  1c:	00000100 	andeq	r0, r0, r0, lsl #2
  20:	0000010c 	andeq	r0, r0, ip, lsl #2
  24:	00000114 	andeq	r0, r0, r4, lsl r1
	...
  30:	00000434 	andeq	r0, r0, r4, lsr r4
  34:	00000458 	andeq	r0, r0, r8, asr r4
  38:	0000045c 	andeq	r0, r0, ip, asr r4
  3c:	00000464 	andeq	r0, r0, r4, ror #8
	...
  48:	0000a838 	andeq	sl, r0, r8, lsr r8
  4c:	0000a8ac 	andeq	sl, r0, ip, lsr #17
	...
