
tests/part2-test3.elf:     file format elf32-littlearm


Disassembly of section .text:

00008000 <__code_start__>:
    8000:	e3a00013 	mov	r0, #19
    8004:	e129f000 	msr	CPSR_fc, r0
    8008:	e3a01000 	mov	r1, #0
    800c:	ee073f95 	mcr	15, 0, r3, cr7, cr5, {4}
    8010:	e3a0d302 	mov	sp, #134217728	; 0x8000000
    8014:	e3a0b000 	mov	fp, #0
    8018:	eb000a8e 	bl	aa58 <_cstart>
    801c:	eb000b07 	bl	ac40 <rpi_reboot>

00008020 <notmain>:
    8020:	e92d4010 	push	{r4, lr}
    8024:	e24dd008 	sub	sp, sp, #8
    8028:	eb0006be 	bl	9b28 <memcheck_init>
    802c:	eb000711 	bl	9c78 <memcheck_on>
    8030:	eb0000b8 	bl	8318 <mmu_is_enabled>
    8034:	e3500000 	cmp	r0, #0
    8038:	1a000008 	bne	8060 <notmain+0x40>
    803c:	eb000905 	bl	a458 <rpi_reset_putc>
    8040:	e59f3148 	ldr	r3, [pc, #328]	; 8190 <notmain+0x170>
    8044:	e58d3000 	str	r3, [sp]
    8048:	e59f0144 	ldr	r0, [pc, #324]	; 8194 <notmain+0x174>
    804c:	e59f1144 	ldr	r1, [pc, #324]	; 8198 <notmain+0x178>
    8050:	e59f2144 	ldr	r2, [pc, #324]	; 819c <notmain+0x17c>
    8054:	e3a03007 	mov	r3, #7
    8058:	eb0008e3 	bl	a3ec <printk>
    805c:	eb000a72 	bl	aa2c <clean_reboot>
    8060:	e59f0138 	ldr	r0, [pc, #312]	; 81a0 <notmain+0x180>
    8064:	eb0008e0 	bl	a3ec <printk>
    8068:	e3a00407 	mov	r0, #117440512	; 0x7000000
    806c:	eb00075b 	bl	9de0 <memcheck_track>
    8070:	e59f012c 	ldr	r0, [pc, #300]	; 81a4 <notmain+0x184>
    8074:	eb0008dc 	bl	a3ec <printk>
    8078:	eb0005bb 	bl	976c <memcheck_continue_after_fault>
    807c:	e59f0124 	ldr	r0, [pc, #292]	; 81a8 <notmain+0x188>
    8080:	eb0008d9 	bl	a3ec <printk>
    8084:	eb000798 	bl	9eec <memcheck_trap_enable>
    8088:	e59f411c 	ldr	r4, [pc, #284]	; 81ac <notmain+0x18c>
    808c:	e1a00004 	mov	r0, r4
    8090:	eb0008d5 	bl	a3ec <printk>
    8094:	e59f0114 	ldr	r0, [pc, #276]	; 81b0 <notmain+0x190>
    8098:	e3a01407 	mov	r1, #117440512	; 0x7000000
    809c:	e59f2110 	ldr	r2, [pc, #272]	; 81b4 <notmain+0x194>
    80a0:	eb0008d1 	bl	a3ec <printk>
    80a4:	e3a00407 	mov	r0, #117440512	; 0x7000000
    80a8:	e3a01004 	mov	r1, #4
    80ac:	eb000b23 	bl	ad40 <PUT32>
    80b0:	e1a00004 	mov	r0, r4
    80b4:	eb0008cc 	bl	a3ec <printk>
    80b8:	e59f00f8 	ldr	r0, [pc, #248]	; 81b8 <notmain+0x198>
    80bc:	eb0008ca 	bl	a3ec <printk>
    80c0:	eb00076c 	bl	9e78 <memcheck_trap_enabled>
    80c4:	e3500000 	cmp	r0, #0
    80c8:	0a000008 	beq	80f0 <notmain+0xd0>
    80cc:	eb0008e1 	bl	a458 <rpi_reset_putc>
    80d0:	e59f30e4 	ldr	r3, [pc, #228]	; 81bc <notmain+0x19c>
    80d4:	e58d3000 	str	r3, [sp]
    80d8:	e59f00b4 	ldr	r0, [pc, #180]	; 8194 <notmain+0x174>
    80dc:	e59f10b4 	ldr	r1, [pc, #180]	; 8198 <notmain+0x178>
    80e0:	e59f20b4 	ldr	r2, [pc, #180]	; 819c <notmain+0x17c>
    80e4:	e3a03022 	mov	r3, #34	; 0x22
    80e8:	eb0008bf 	bl	a3ec <printk>
    80ec:	eb000a4e 	bl	aa2c <clean_reboot>
    80f0:	e59f40b4 	ldr	r4, [pc, #180]	; 81ac <notmain+0x18c>
    80f4:	e1a00004 	mov	r0, r4
    80f8:	eb0008bb 	bl	a3ec <printk>
    80fc:	e59f00bc 	ldr	r0, [pc, #188]	; 81c0 <notmain+0x1a0>
    8100:	eb0008b9 	bl	a3ec <printk>
    8104:	e59f00a8 	ldr	r0, [pc, #168]	; 81b4 <notmain+0x194>
    8108:	e3a01407 	mov	r1, #117440512	; 0x7000000
    810c:	e3a02009 	mov	r2, #9
    8110:	eb000509 	bl	953c <fault_expected>
    8114:	e1a00004 	mov	r0, r4
    8118:	eb0008b3 	bl	a3ec <printk>
    811c:	e59f00a0 	ldr	r0, [pc, #160]	; 81c4 <notmain+0x1a4>
    8120:	e3a01407 	mov	r1, #117440512	; 0x7000000
    8124:	e3a02004 	mov	r2, #4
    8128:	eb0008af 	bl	a3ec <printk>
    812c:	e3a00407 	mov	r0, #117440512	; 0x7000000
    8130:	eb000b0e 	bl	ad70 <GET32>
    8134:	e3500004 	cmp	r0, #4
    8138:	0a000008 	beq	8160 <notmain+0x140>
    813c:	eb0008c5 	bl	a458 <rpi_reset_putc>
    8140:	e59f3080 	ldr	r3, [pc, #128]	; 81c8 <notmain+0x1a8>
    8144:	e58d3000 	str	r3, [sp]
    8148:	e59f0044 	ldr	r0, [pc, #68]	; 8194 <notmain+0x174>
    814c:	e59f1044 	ldr	r1, [pc, #68]	; 8198 <notmain+0x178>
    8150:	e59f2044 	ldr	r2, [pc, #68]	; 819c <notmain+0x17c>
    8154:	e3a03028 	mov	r3, #40	; 0x28
    8158:	eb0008a3 	bl	a3ec <printk>
    815c:	eb000a32 	bl	aa2c <clean_reboot>
    8160:	e59f4044 	ldr	r4, [pc, #68]	; 81ac <notmain+0x18c>
    8164:	e1a00004 	mov	r0, r4
    8168:	eb00089f 	bl	a3ec <printk>
    816c:	e59f0058 	ldr	r0, [pc, #88]	; 81cc <notmain+0x1ac>
    8170:	e3a01407 	mov	r1, #117440512	; 0x7000000
    8174:	e3a02004 	mov	r2, #4
    8178:	eb00089b 	bl	a3ec <printk>
    817c:	e1a00004 	mov	r0, r4
    8180:	eb000899 	bl	a3ec <printk>
    8184:	e59f0044 	ldr	r0, [pc, #68]	; 81d0 <notmain+0x1b0>
    8188:	eb000897 	bl	a3ec <printk>
    818c:	eb000a26 	bl	aa2c <clean_reboot>
    8190:	0000b230 	andeq	fp, r0, r0, lsr r2
    8194:	0000b208 	andeq	fp, r0, r8, lsl #4
    8198:	0000b21c 	andeq	fp, r0, ip, lsl r2
    819c:	0000b39c 	muleq	r0, ip, r3
    81a0:	0000b244 	andeq	fp, r0, r4, asr #4
    81a4:	0000b260 	andeq	fp, r0, r0, ror #4
    81a8:	0000b280 	andeq	fp, r0, r0, lsl #5
    81ac:	0000b2a4 	andeq	fp, r0, r4, lsr #5
    81b0:	0000b2ac 	andeq	fp, r0, ip, lsr #5
    81b4:	0000ad40 	andeq	sl, r0, r0, asr #26
    81b8:	0000b2e4 	andeq	fp, r0, r4, ror #5
    81bc:	0000b320 	andeq	fp, r0, r0, lsr #6
    81c0:	0000b33c 	andeq	fp, r0, ip, lsr r3
    81c4:	0000b350 	andeq	fp, r0, r0, asr r3
    81c8:	0000b368 	andeq	fp, r0, r8, ror #6
    81cc:	0000b37c 	andeq	fp, r0, ip, ror r3
    81d0:	0000b390 	muleq	r0, r0, r3

000081d4 <_interrupt_table>:
    81d4:	e59ff020 	ldr	pc, [pc, #32]	; 81fc <_reset_asm>
    81d8:	e59ff020 	ldr	pc, [pc, #32]	; 8200 <_undefined_instruction_asm>
    81dc:	e59ff020 	ldr	pc, [pc, #32]	; 8204 <_software_interrupt_asm>
    81e0:	e59ff020 	ldr	pc, [pc, #32]	; 8208 <_prefetch_abort_asm>
    81e4:	e59ff020 	ldr	pc, [pc, #32]	; 820c <_data_abort_asm>
    81e8:	e59ff00c 	ldr	pc, [pc, #12]	; 81fc <_reset_asm>
    81ec:	e59ff01c 	ldr	pc, [pc, #28]	; 8210 <_interrupt_asm>

000081f0 <fast_interrupt_asm>:
    81f0:	e3a0d409 	mov	sp, #150994944	; 0x9000000
    81f4:	e24ee004 	sub	lr, lr, #4
    81f8:	eb000a24 	bl	aa90 <fast_interrupt_vector>

000081fc <_reset_asm>:
    81fc:	0000822c 	andeq	r8, r0, ip, lsr #4

00008200 <_undefined_instruction_asm>:
    8200:	00008270 	andeq	r8, r0, r0, ror r2

00008204 <_software_interrupt_asm>:
    8204:	0000827c 	andeq	r8, r0, ip, ror r2

00008208 <_prefetch_abort_asm>:
    8208:	00008254 	andeq	r8, r0, r4, asr r2

0000820c <_data_abort_asm>:
    820c:	00008238 	andeq	r8, r0, r8, lsr r2

00008210 <_interrupt_asm>:
    8210:	00008214 	andeq	r8, r0, r4, lsl r2

00008214 <_interrupt_table_end>:
    8214:	e3a0d409 	mov	sp, #150994944	; 0x9000000
    8218:	e24ee004 	sub	lr, lr, #4
    821c:	e92d5fff 	push	{r0, r1, r2, r3, r4, r5, r6, r7, r8, r9, sl, fp, ip, lr}
    8220:	e1a0000e 	mov	r0, lr
    8224:	e8bd5fff 	pop	{r0, r1, r2, r3, r4, r5, r6, r7, r8, r9, sl, fp, ip, lr}
    8228:	e1b0f00e 	movs	pc, lr

0000822c <reset_asm>:
    822c:	e3a0d409 	mov	sp, #150994944	; 0x9000000
    8230:	e24ee004 	sub	lr, lr, #4
    8234:	eb000a37 	bl	ab18 <reset_vector>

00008238 <data_abort_asm>:
    8238:	e24ee008 	sub	lr, lr, #8
    823c:	e3a0d409 	mov	sp, #150994944	; 0x9000000
    8240:	e92d5fff 	push	{r0, r1, r2, r3, r4, r5, r6, r7, r8, r9, sl, fp, ip, lr}
    8244:	e1a0000e 	mov	r0, lr
    8248:	eb00054c 	bl	9780 <data_abort_vector>
    824c:	e8bd5fff 	pop	{r0, r1, r2, r3, r4, r5, r6, r7, r8, r9, sl, fp, ip, lr}
    8250:	e1b0f00e 	movs	pc, lr

00008254 <prefetch_abort_asm>:
    8254:	e24ee004 	sub	lr, lr, #4
    8258:	e3a0d409 	mov	sp, #150994944	; 0x9000000
    825c:	e92d5fff 	push	{r0, r1, r2, r3, r4, r5, r6, r7, r8, r9, sl, fp, ip, lr}
    8260:	e1a0000e 	mov	r0, lr
    8264:	eb000a1a 	bl	aad4 <prefetch_abort_vector>
    8268:	e8bd5fff 	pop	{r0, r1, r2, r3, r4, r5, r6, r7, r8, r9, sl, fp, ip, lr}
    826c:	e1b0f00e 	movs	pc, lr

00008270 <undefined_instruction_asm>:
    8270:	e3a0d409 	mov	sp, #150994944	; 0x9000000
    8274:	e24ee004 	sub	lr, lr, #4
    8278:	eb000a37 	bl	ab5c <undefined_instruction_vector>

0000827c <software_interrupt_asm>:
    827c:	e92d5ff0 	push	{r4, r5, r6, r7, r8, r9, sl, fp, ip, lr}
    8280:	e24ee004 	sub	lr, lr, #4
    8284:	e1a01000 	mov	r1, r0
    8288:	e1a0000e 	mov	r0, lr
    828c:	e8bd5ff0 	pop	{r4, r5, r6, r7, r8, r9, sl, fp, ip, lr}
    8290:	e1b0f00e 	movs	pc, lr

00008294 <user_trampoline_ret>:
    8294:	e92d5ff0 	push	{r4, r5, r6, r7, r8, r9, sl, fp, ip, lr}
    8298:	e10f4000 	mrs	r4, CPSR
    829c:	e129f000 	msr	CPSR_fc, r0
    82a0:	ee070f95 	mcr	15, 0, r0, cr7, cr5, {4}
    82a4:	e3a0d407 	mov	sp, #117440512	; 0x7000000
    82a8:	e1a00002 	mov	r0, r2
    82ac:	e12fff31 	blx	r1
    82b0:	e1a00004 	mov	r0, r4
    82b4:	ef000001 	svc	0x00000001
    82b8:	e8bd5ff0 	pop	{r4, r5, r6, r7, r8, r9, sl, fp, ip, lr}
    82bc:	e12fff1e 	bx	lr

000082c0 <sys_try_lock_asm>:
    82c0:	e92d5ff0 	push	{r4, r5, r6, r7, r8, r9, sl, fp, ip, lr}
    82c4:	ef000002 	svc	0x00000002
    82c8:	e8bd5ff0 	pop	{r4, r5, r6, r7, r8, r9, sl, fp, ip, lr}
    82cc:	e12fff1e 	bx	lr

000082d0 <sys_foo_asm>:
    82d0:	e92d5ff0 	push	{r4, r5, r6, r7, r8, r9, sl, fp, ip, lr}
    82d4:	ef000003 	svc	0x00000003
    82d8:	e8bd5ff0 	pop	{r4, r5, r6, r7, r8, r9, sl, fp, ip, lr}
    82dc:	e12fff1e 	bx	lr

000082e0 <run_fn_helper>:
    82e0:	e92d5ff0 	push	{r4, r5, r6, r7, r8, r9, sl, fp, ip, lr}
    82e4:	e10f4000 	mrs	r4, CPSR
    82e8:	e129f000 	msr	CPSR_fc, r0
    82ec:	ee070f95 	mcr	15, 0, r0, cr7, cr5, {4}
    82f0:	e1a0d002 	mov	sp, r2
    82f4:	e1a00002 	mov	r0, r2
    82f8:	e5911000 	ldr	r1, [r1]
    82fc:	e12fff31 	blx	r1
    8300:	e1a05000 	mov	r5, r0
    8304:	e1a00004 	mov	r0, r4
    8308:	ef000001 	svc	0x00000001
    830c:	e1a00005 	mov	r0, r5
    8310:	e8bd5ff0 	pop	{r4, r5, r6, r7, r8, r9, sl, fp, ip, lr}
    8314:	e12fff1e 	bx	lr

00008318 <mmu_is_enabled>:
    8318:	e92d4008 	push	{r3, lr}
    831c:	eb00071e 	bl	9f9c <cp15_ctrl_reg1_rd>
    8320:	e2000001 	and	r0, r0, #1
    8324:	e8bd8008 	pop	{r3, pc}

00008328 <mmu_lookup_section>:
    8328:	e52de004 	push	{lr}		; (str lr, [sp, #-4]!)
    832c:	e24dd00c 	sub	sp, sp, #12
    8330:	e3110013 	tst	r1, #19
    8334:	0a000008 	beq	835c <mmu_lookup_section+0x34>
    8338:	eb000846 	bl	a458 <rpi_reset_putc>
    833c:	e59f305c 	ldr	r3, [pc, #92]	; 83a0 <mmu_lookup_section+0x78>
    8340:	e58d3000 	str	r3, [sp]
    8344:	e59f0058 	ldr	r0, [pc, #88]	; 83a4 <mmu_lookup_section+0x7c>
    8348:	e59f1058 	ldr	r1, [pc, #88]	; 83a8 <mmu_lookup_section+0x80>
    834c:	e59f2058 	ldr	r2, [pc, #88]	; 83ac <mmu_lookup_section+0x84>
    8350:	e3a03010 	mov	r3, #16
    8354:	eb000824 	bl	a3ec <printk>
    8358:	eb0009b3 	bl	aa2c <clean_reboot>
    835c:	e1a01a21 	lsr	r1, r1, #20
    8360:	e0803101 	add	r3, r0, r1, lsl #2
    8364:	e7d02101 	ldrb	r2, [r0, r1, lsl #2]
    8368:	e3120003 	tst	r2, #3
    836c:	1a000008 	bne	8394 <mmu_lookup_section+0x6c>
    8370:	eb000838 	bl	a458 <rpi_reset_putc>
    8374:	e59f3034 	ldr	r3, [pc, #52]	; 83b0 <mmu_lookup_section+0x88>
    8378:	e58d3000 	str	r3, [sp]
    837c:	e59f0030 	ldr	r0, [pc, #48]	; 83b4 <mmu_lookup_section+0x8c>
    8380:	e59f1020 	ldr	r1, [pc, #32]	; 83a8 <mmu_lookup_section+0x80>
    8384:	e59f2020 	ldr	r2, [pc, #32]	; 83ac <mmu_lookup_section+0x84>
    8388:	e3a03013 	mov	r3, #19
    838c:	eb000816 	bl	a3ec <printk>
    8390:	eb0009a5 	bl	aa2c <clean_reboot>
    8394:	e1a00003 	mov	r0, r3
    8398:	e28dd00c 	add	sp, sp, #12
    839c:	e49df004 	pop	{pc}		; (ldr pc, [sp], #4)
    83a0:	0000b4a0 	andeq	fp, r0, r0, lsr #9
    83a4:	0000b208 	andeq	fp, r0, r8, lsl #4
    83a8:	0000b498 	muleq	r0, r8, r4
    83ac:	0000b3a8 	andeq	fp, r0, r8, lsr #7
    83b0:	0000b4e4 	andeq	fp, r0, r4, ror #9
    83b4:	0000b4b4 			; <UNDEFINED> instruction: 0x0000b4b4

000083b8 <mmu_mark_sec_ap_perm>:
    83b8:	e92d41f0 	push	{r4, r5, r6, r7, r8, lr}
    83bc:	e24dd008 	sub	sp, sp, #8
    83c0:	e1a08000 	mov	r8, r0
    83c4:	e1a05002 	mov	r5, r2
    83c8:	e1a01aa1 	lsr	r1, r1, #21
    83cc:	e1a07a81 	lsl	r7, r1, #21
    83d0:	e3530003 	cmp	r3, #3
    83d4:	9a000011 	bls	8420 <mmu_mark_sec_ap_perm+0x68>
    83d8:	eb00081e 	bl	a458 <rpi_reset_putc>
    83dc:	e59f305c 	ldr	r3, [pc, #92]	; 8440 <mmu_mark_sec_ap_perm+0x88>
    83e0:	e58d3000 	str	r3, [sp]
    83e4:	e59f0058 	ldr	r0, [pc, #88]	; 8444 <mmu_mark_sec_ap_perm+0x8c>
    83e8:	e59f1058 	ldr	r1, [pc, #88]	; 8448 <mmu_mark_sec_ap_perm+0x90>
    83ec:	e59f2058 	ldr	r2, [pc, #88]	; 844c <mmu_mark_sec_ap_perm+0x94>
    83f0:	e3a0301a 	mov	r3, #26
    83f4:	eb0007fc 	bl	a3ec <printk>
    83f8:	eb00098b 	bl	aa2c <clean_reboot>
    83fc:	e1a00008 	mov	r0, r8
    8400:	e1a01007 	mov	r1, r7
    8404:	ebffffc7 	bl	8328 <mmu_lookup_section>
    8408:	e5d03001 	ldrb	r3, [r0, #1]
    840c:	e3c3300c 	bic	r3, r3, #12
    8410:	e1863003 	orr	r3, r6, r3
    8414:	e5c03001 	strb	r3, [r0, #1]
    8418:	e2844001 	add	r4, r4, #1
    841c:	ea000002 	b	842c <mmu_mark_sec_ap_perm+0x74>
    8420:	e3a04000 	mov	r4, #0
    8424:	e2036003 	and	r6, r3, #3
    8428:	e1a06106 	lsl	r6, r6, #2
    842c:	e1540005 	cmp	r4, r5
    8430:	3afffff1 	bcc	83fc <mmu_mark_sec_ap_perm+0x44>
    8434:	eb000754 	bl	a18c <our_mmu_sync_pte_mods>
    8438:	e28dd008 	add	sp, sp, #8
    843c:	e8bd81f0 	pop	{r4, r5, r6, r7, r8, pc}
    8440:	0000b524 	andeq	fp, r0, r4, lsr #10
    8444:	0000b4f0 	strdeq	fp, [r0], -r0
    8448:	0000b498 	muleq	r0, r8, r4
    844c:	0000b3bc 			; <UNDEFINED> instruction: 0x0000b3bc

00008450 <mmu_mark_sec_readonly>:
    8450:	e92d4008 	push	{r3, lr}
    8454:	e3a03002 	mov	r3, #2
    8458:	ebffffd6 	bl	83b8 <mmu_mark_sec_ap_perm>
    845c:	e8bd8008 	pop	{r3, pc}

00008460 <mmu_mark_sec_rw>:
    8460:	e92d4008 	push	{r3, lr}
    8464:	e3a03003 	mov	r3, #3
    8468:	ebffffd2 	bl	83b8 <mmu_mark_sec_ap_perm>
    846c:	e8bd8008 	pop	{r3, pc}

00008470 <mmu_mark_sec_no_access>:
    8470:	e92d4008 	push	{r3, lr}
    8474:	e3a03000 	mov	r3, #0
    8478:	ebffffce 	bl	83b8 <mmu_mark_sec_ap_perm>
    847c:	e8bd8008 	pop	{r3, pc}

00008480 <fld_set_base_addr>:
    8480:	e52de004 	push	{lr}		; (str lr, [sp, #-4]!)
    8484:	e24dd00c 	sub	sp, sp, #12
    8488:	e3110013 	tst	r1, #19
    848c:	0a000008 	beq	84b4 <fld_set_base_addr+0x34>
    8490:	eb0007f0 	bl	a458 <rpi_reset_putc>
    8494:	e59f3064 	ldr	r3, [pc, #100]	; 8500 <fld_set_base_addr+0x80>
    8498:	e58d3000 	str	r3, [sp]
    849c:	e59f0060 	ldr	r0, [pc, #96]	; 8504 <fld_set_base_addr+0x84>
    84a0:	e59f1060 	ldr	r1, [pc, #96]	; 8508 <fld_set_base_addr+0x88>
    84a4:	e59f2060 	ldr	r2, [pc, #96]	; 850c <fld_set_base_addr+0x8c>
    84a8:	e3a03032 	mov	r3, #50	; 0x32
    84ac:	eb0007ce 	bl	a3ec <printk>
    84b0:	eb00095d 	bl	aa2c <clean_reboot>
    84b4:	e1a02a21 	lsr	r2, r1, #20
    84b8:	e1d030b2 	ldrh	r3, [r0, #2]
    84bc:	e3c33cff 	bic	r3, r3, #65280	; 0xff00
    84c0:	e3c330f0 	bic	r3, r3, #240	; 0xf0
    84c4:	e1833202 	orr	r3, r3, r2, lsl #4
    84c8:	e1c030b2 	strh	r3, [r0, #2]
    84cc:	e1510a02 	cmp	r1, r2, lsl #20
    84d0:	0a000008 	beq	84f8 <fld_set_base_addr+0x78>
    84d4:	eb0007df 	bl	a458 <rpi_reset_putc>
    84d8:	e59f3030 	ldr	r3, [pc, #48]	; 8510 <fld_set_base_addr+0x90>
    84dc:	e58d3000 	str	r3, [sp]
    84e0:	e59f002c 	ldr	r0, [pc, #44]	; 8514 <fld_set_base_addr+0x94>
    84e4:	e59f101c 	ldr	r1, [pc, #28]	; 8508 <fld_set_base_addr+0x88>
    84e8:	e59f201c 	ldr	r2, [pc, #28]	; 850c <fld_set_base_addr+0x8c>
    84ec:	e3a03037 	mov	r3, #55	; 0x37
    84f0:	eb0007bd 	bl	a3ec <printk>
    84f4:	eb00094c 	bl	aa2c <clean_reboot>
    84f8:	e28dd00c 	add	sp, sp, #12
    84fc:	e49df004 	pop	{pc}		; (ldr pc, [sp], #4)
    8500:	0000b568 	andeq	fp, r0, r8, ror #10
    8504:	0000b534 	andeq	fp, r0, r4, lsr r5
    8508:	0000b498 	muleq	r0, r8, r4
    850c:	0000b3e4 	andeq	fp, r0, r4, ror #7
    8510:	0000b594 	muleq	r0, r4, r5
    8514:	0000b208 	andeq	fp, r0, r8, lsl #4

00008518 <mmu_map_section>:
    8518:	e92d43f0 	push	{r4, r5, r6, r7, r8, r9, lr}
    851c:	e24dd00c 	sub	sp, sp, #12
    8520:	e1a04000 	mov	r4, r0
    8524:	e1a09002 	mov	r9, r2
    8528:	e1a08003 	mov	r8, r3
    852c:	e353000f 	cmp	r3, #15
    8530:	9a000008 	bls	8558 <mmu_map_section+0x40>
    8534:	eb0007c7 	bl	a458 <rpi_reset_putc>
    8538:	e59f3140 	ldr	r3, [pc, #320]	; 8680 <mmu_map_section+0x168>
    853c:	e58d3000 	str	r3, [sp]
    8540:	e59f013c 	ldr	r0, [pc, #316]	; 8684 <mmu_map_section+0x16c>
    8544:	e59f113c 	ldr	r1, [pc, #316]	; 8688 <mmu_map_section+0x170>
    8548:	e59f213c 	ldr	r2, [pc, #316]	; 868c <mmu_map_section+0x174>
    854c:	e3a03042 	mov	r3, #66	; 0x42
    8550:	eb0007a5 	bl	a3ec <printk>
    8554:	eb000934 	bl	aa2c <clean_reboot>
    8558:	e3110013 	tst	r1, #19
    855c:	0a000008 	beq	8584 <mmu_map_section+0x6c>
    8560:	eb0007bc 	bl	a458 <rpi_reset_putc>
    8564:	e59f3124 	ldr	r3, [pc, #292]	; 8690 <mmu_map_section+0x178>
    8568:	e58d3000 	str	r3, [sp]
    856c:	e59f0110 	ldr	r0, [pc, #272]	; 8684 <mmu_map_section+0x16c>
    8570:	e59f1110 	ldr	r1, [pc, #272]	; 8688 <mmu_map_section+0x170>
    8574:	e59f2110 	ldr	r2, [pc, #272]	; 868c <mmu_map_section+0x174>
    8578:	e3a03043 	mov	r3, #67	; 0x43
    857c:	eb00079a 	bl	a3ec <printk>
    8580:	eb000929 	bl	aa2c <clean_reboot>
    8584:	e3120013 	tst	r2, #19
    8588:	0a000008 	beq	85b0 <mmu_map_section+0x98>
    858c:	eb0007b1 	bl	a458 <rpi_reset_putc>
    8590:	e59f30fc 	ldr	r3, [pc, #252]	; 8694 <mmu_map_section+0x17c>
    8594:	e58d3000 	str	r3, [sp]
    8598:	e59f00e4 	ldr	r0, [pc, #228]	; 8684 <mmu_map_section+0x16c>
    859c:	e59f10e4 	ldr	r1, [pc, #228]	; 8688 <mmu_map_section+0x170>
    85a0:	e59f20e4 	ldr	r2, [pc, #228]	; 868c <mmu_map_section+0x174>
    85a4:	e3a03044 	mov	r3, #68	; 0x44
    85a8:	eb00078f 	bl	a3ec <printk>
    85ac:	eb00091e 	bl	aa2c <clean_reboot>
    85b0:	e1a06a21 	lsr	r6, r1, #20
    85b4:	e1a07106 	lsl	r7, r6, #2
    85b8:	e0805007 	add	r5, r0, r7
    85bc:	e7d03106 	ldrb	r3, [r0, r6, lsl #2]
    85c0:	e3130003 	tst	r3, #3
    85c4:	0a000008 	beq	85ec <mmu_map_section+0xd4>
    85c8:	eb0007a2 	bl	a458 <rpi_reset_putc>
    85cc:	e59f30c4 	ldr	r3, [pc, #196]	; 8698 <mmu_map_section+0x180>
    85d0:	e58d3000 	str	r3, [sp]
    85d4:	e59f00c0 	ldr	r0, [pc, #192]	; 869c <mmu_map_section+0x184>
    85d8:	e59f10a8 	ldr	r1, [pc, #168]	; 8688 <mmu_map_section+0x170>
    85dc:	e59f20a8 	ldr	r2, [pc, #168]	; 868c <mmu_map_section+0x174>
    85e0:	e3a03048 	mov	r3, #72	; 0x48
    85e4:	eb000780 	bl	a3ec <printk>
    85e8:	eb00090f 	bl	aa2c <clean_reboot>
    85ec:	eb00031d 	bl	9268 <fld_mk>
    85f0:	e7840106 	str	r0, [r4, r6, lsl #2]
    85f4:	e5d53002 	ldrb	r3, [r5, #2]
    85f8:	e3c33002 	bic	r3, r3, #2
    85fc:	e5c53002 	strb	r3, [r5, #2]
    8600:	e5d53001 	ldrb	r3, [r5, #1]
    8604:	e203300f 	and	r3, r3, #15
    8608:	e383300c 	orr	r3, r3, #12
    860c:	e5c53001 	strb	r3, [r5, #1]
    8610:	e19430b7 	ldrh	r3, [r4, r7]
    8614:	e208800f 	and	r8, r8, #15
    8618:	e3c33e1e 	bic	r3, r3, #480	; 0x1e0
    861c:	e1838288 	orr	r8, r3, r8, lsl #5
    8620:	e18480b7 	strh	r8, [r4, r7]
    8624:	e7d43106 	ldrb	r3, [r4, r6, lsl #2]
    8628:	e3c33010 	bic	r3, r3, #16
    862c:	e7c43106 	strb	r3, [r4, r6, lsl #2]
    8630:	e1a00005 	mov	r0, r5
    8634:	e1a01009 	mov	r1, r9
    8638:	ebffff90 	bl	8480 <fld_set_base_addr>
    863c:	e59f305c 	ldr	r3, [pc, #92]	; 86a0 <mmu_map_section+0x188>
    8640:	e5933000 	ldr	r3, [r3]
    8644:	e3530000 	cmp	r3, #0
    8648:	0a000009 	beq	8674 <mmu_map_section+0x15c>
    864c:	e1a00005 	mov	r0, r5
    8650:	eb000333 	bl	9324 <fld_print>
    8654:	e59f0048 	ldr	r0, [pc, #72]	; 86a4 <mmu_map_section+0x18c>
    8658:	e1a01004 	mov	r1, r4
    865c:	e7942106 	ldr	r2, [r4, r6, lsl #2]
    8660:	eb000761 	bl	a3ec <printk>
    8664:	e59f003c 	ldr	r0, [pc, #60]	; 86a8 <mmu_map_section+0x190>
    8668:	e1a01005 	mov	r1, r5
    866c:	e3a02004 	mov	r2, #4
    8670:	eb00015f 	bl	8bf4 <hash_print>
    8674:	e1a00005 	mov	r0, r5
    8678:	e28dd00c 	add	sp, sp, #12
    867c:	e8bd83f0 	pop	{r4, r5, r6, r7, r8, r9, pc}
    8680:	0000b5b8 			; <UNDEFINED> instruction: 0x0000b5b8
    8684:	0000b208 	andeq	fp, r0, r8, lsl #4
    8688:	0000b498 	muleq	r0, r8, r4
    868c:	0000b3d4 	ldrdeq	fp, [r0], -r4
    8690:	0000b4a0 	andeq	fp, r0, r0, lsr #9
    8694:	0000b5c4 	andeq	fp, r0, r4, asr #11
    8698:	0000b604 	andeq	fp, r0, r4, lsl #12
    869c:	0000b5d8 	ldrdeq	fp, [r0], -r8
    86a0:	0000c5a8 	andeq	ip, r0, r8, lsr #11
    86a4:	0000b610 	andeq	fp, r0, r0, lsl r6
    86a8:	0000b624 	andeq	fp, r0, r4, lsr #12

000086ac <mmu_map_sections>:
    86ac:	e92d43f0 	push	{r4, r5, r6, r7, r8, r9, lr}
    86b0:	e24dd00c 	sub	sp, sp, #12
    86b4:	e1a09000 	mov	r9, r0
    86b8:	e1a05001 	mov	r5, r1
    86bc:	e1a06002 	mov	r6, r2
    86c0:	e1a07003 	mov	r7, r3
    86c4:	e59d8028 	ldr	r8, [sp, #40]	; 0x28
    86c8:	e358000f 	cmp	r8, #15
    86cc:	9a000008 	bls	86f4 <mmu_map_sections+0x48>
    86d0:	eb000760 	bl	a458 <rpi_reset_putc>
    86d4:	e59f30a8 	ldr	r3, [pc, #168]	; 8784 <mmu_map_sections+0xd8>
    86d8:	e58d3000 	str	r3, [sp]
    86dc:	e59f00a4 	ldr	r0, [pc, #164]	; 8788 <mmu_map_sections+0xdc>
    86e0:	e59f10a4 	ldr	r1, [pc, #164]	; 878c <mmu_map_sections+0xe0>
    86e4:	e59f20a4 	ldr	r2, [pc, #164]	; 8790 <mmu_map_sections+0xe4>
    86e8:	e3a03060 	mov	r3, #96	; 0x60
    86ec:	eb00073e 	bl	a3ec <printk>
    86f0:	eb0008cd 	bl	aa2c <clean_reboot>
    86f4:	e3110013 	tst	r1, #19
    86f8:	0a000008 	beq	8720 <mmu_map_sections+0x74>
    86fc:	eb000755 	bl	a458 <rpi_reset_putc>
    8700:	e59f308c 	ldr	r3, [pc, #140]	; 8794 <mmu_map_sections+0xe8>
    8704:	e58d3000 	str	r3, [sp]
    8708:	e59f0078 	ldr	r0, [pc, #120]	; 8788 <mmu_map_sections+0xdc>
    870c:	e59f1078 	ldr	r1, [pc, #120]	; 878c <mmu_map_sections+0xe0>
    8710:	e59f2078 	ldr	r2, [pc, #120]	; 8790 <mmu_map_sections+0xe4>
    8714:	e3a03061 	mov	r3, #97	; 0x61
    8718:	eb000733 	bl	a3ec <printk>
    871c:	eb0008c2 	bl	aa2c <clean_reboot>
    8720:	e3120013 	tst	r2, #19
    8724:	0a000011 	beq	8770 <mmu_map_sections+0xc4>
    8728:	eb00074a 	bl	a458 <rpi_reset_putc>
    872c:	e59f3064 	ldr	r3, [pc, #100]	; 8798 <mmu_map_sections+0xec>
    8730:	e58d3000 	str	r3, [sp]
    8734:	e59f004c 	ldr	r0, [pc, #76]	; 8788 <mmu_map_sections+0xdc>
    8738:	e59f104c 	ldr	r1, [pc, #76]	; 878c <mmu_map_sections+0xe0>
    873c:	e59f204c 	ldr	r2, [pc, #76]	; 8790 <mmu_map_sections+0xe4>
    8740:	e3a03062 	mov	r3, #98	; 0x62
    8744:	eb000728 	bl	a3ec <printk>
    8748:	eb0008b7 	bl	aa2c <clean_reboot>
    874c:	e1a00009 	mov	r0, r9
    8750:	e1a01005 	mov	r1, r5
    8754:	e1a02006 	mov	r2, r6
    8758:	e1a03008 	mov	r3, r8
    875c:	ebffff6d 	bl	8518 <mmu_map_section>
    8760:	e2855601 	add	r5, r5, #1048576	; 0x100000
    8764:	e2866601 	add	r6, r6, #1048576	; 0x100000
    8768:	e2844001 	add	r4, r4, #1
    876c:	ea000000 	b	8774 <mmu_map_sections+0xc8>
    8770:	e3a04000 	mov	r4, #0
    8774:	e1540007 	cmp	r4, r7
    8778:	3afffff3 	bcc	874c <mmu_map_sections+0xa0>
    877c:	e28dd00c 	add	sp, sp, #12
    8780:	e8bd83f0 	pop	{r4, r5, r6, r7, r8, r9, pc}
    8784:	0000b5b8 			; <UNDEFINED> instruction: 0x0000b5b8
    8788:	0000b208 	andeq	fp, r0, r8, lsl #4
    878c:	0000b498 	muleq	r0, r8, r4
    8790:	0000b3f8 	strdeq	fp, [r0], -r8
    8794:	0000b4a0 	andeq	fp, r0, r0, lsr #9
    8798:	0000b5c4 	andeq	fp, r0, r4, asr #11

0000879c <mmu_pt_alloc_at>:
    879c:	e92d4010 	push	{r4, lr}
    87a0:	e24dd008 	sub	sp, sp, #8
    87a4:	e1a04000 	mov	r4, r0
    87a8:	e310000d 	tst	r0, #13
    87ac:	0a000008 	beq	87d4 <mmu_pt_alloc_at+0x38>
    87b0:	eb000728 	bl	a458 <rpi_reset_putc>
    87b4:	e59f305c 	ldr	r3, [pc, #92]	; 8818 <mmu_pt_alloc_at+0x7c>
    87b8:	e58d3000 	str	r3, [sp]
    87bc:	e59f0058 	ldr	r0, [pc, #88]	; 881c <mmu_pt_alloc_at+0x80>
    87c0:	e59f1058 	ldr	r1, [pc, #88]	; 8820 <mmu_pt_alloc_at+0x84>
    87c4:	e59f2058 	ldr	r2, [pc, #88]	; 8824 <mmu_pt_alloc_at+0x88>
    87c8:	e3a0306b 	mov	r3, #107	; 0x6b
    87cc:	eb000706 	bl	a3ec <printk>
    87d0:	eb000895 	bl	aa2c <clean_reboot>
    87d4:	e3510901 	cmp	r1, #16384	; 0x4000
    87d8:	0a000008 	beq	8800 <mmu_pt_alloc_at+0x64>
    87dc:	eb00071d 	bl	a458 <rpi_reset_putc>
    87e0:	e59f3040 	ldr	r3, [pc, #64]	; 8828 <mmu_pt_alloc_at+0x8c>
    87e4:	e58d3000 	str	r3, [sp]
    87e8:	e59f003c 	ldr	r0, [pc, #60]	; 882c <mmu_pt_alloc_at+0x90>
    87ec:	e59f102c 	ldr	r1, [pc, #44]	; 8820 <mmu_pt_alloc_at+0x84>
    87f0:	e59f202c 	ldr	r2, [pc, #44]	; 8824 <mmu_pt_alloc_at+0x88>
    87f4:	e3a0306f 	mov	r3, #111	; 0x6f
    87f8:	eb0006fb 	bl	a3ec <printk>
    87fc:	eb00088a 	bl	aa2c <clean_reboot>
    8800:	e3a01000 	mov	r1, #0
    8804:	e3a02901 	mov	r2, #16384	; 0x4000
    8808:	eb0006ef 	bl	a3cc <memset>
    880c:	e1a00004 	mov	r0, r4
    8810:	e28dd008 	add	sp, sp, #8
    8814:	e8bd8010 	pop	{r4, pc}
    8818:	0000b668 	andeq	fp, r0, r8, ror #12
    881c:	0000b630 	andeq	fp, r0, r0, lsr r6
    8820:	0000b498 	muleq	r0, r8, r4
    8824:	0000b40c 	andeq	fp, r0, ip, lsl #8
    8828:	0000b6e4 	andeq	fp, r0, r4, ror #13
    882c:	0000b6a8 	andeq	fp, r0, r8, lsr #13

00008830 <mmu_pt_alloc>:
    8830:	e52de004 	push	{lr}		; (str lr, [sp, #-4]!)
    8834:	e24dd00c 	sub	sp, sp, #12
    8838:	e3500a01 	cmp	r0, #4096	; 0x1000
    883c:	0a000008 	beq	8864 <mmu_pt_alloc+0x34>
    8840:	eb000704 	bl	a458 <rpi_reset_putc>
    8844:	e59f305c 	ldr	r3, [pc, #92]	; 88a8 <mmu_pt_alloc+0x78>
    8848:	e58d3000 	str	r3, [sp]
    884c:	e59f0058 	ldr	r0, [pc, #88]	; 88ac <mmu_pt_alloc+0x7c>
    8850:	e59f1058 	ldr	r1, [pc, #88]	; 88b0 <mmu_pt_alloc+0x80>
    8854:	e59f2058 	ldr	r2, [pc, #88]	; 88b4 <mmu_pt_alloc+0x84>
    8858:	e3a03076 	mov	r3, #118	; 0x76
    885c:	eb0006e2 	bl	a3ec <printk>
    8860:	eb000871 	bl	aa2c <clean_reboot>
    8864:	e3a01901 	mov	r1, #16384	; 0x4000
    8868:	eb000a2c 	bl	b120 <kmalloc_aligned>
    886c:	e310000d 	tst	r0, #13
    8870:	0a000008 	beq	8898 <mmu_pt_alloc+0x68>
    8874:	eb0006f7 	bl	a458 <rpi_reset_putc>
    8878:	e59f3038 	ldr	r3, [pc, #56]	; 88b8 <mmu_pt_alloc+0x88>
    887c:	e58d3000 	str	r3, [sp]
    8880:	e59f0034 	ldr	r0, [pc, #52]	; 88bc <mmu_pt_alloc+0x8c>
    8884:	e59f1024 	ldr	r1, [pc, #36]	; 88b0 <mmu_pt_alloc+0x80>
    8888:	e59f2024 	ldr	r2, [pc, #36]	; 88b4 <mmu_pt_alloc+0x84>
    888c:	e3a0307b 	mov	r3, #123	; 0x7b
    8890:	eb0006d5 	bl	a3ec <printk>
    8894:	eb000864 	bl	aa2c <clean_reboot>
    8898:	e3a01901 	mov	r1, #16384	; 0x4000
    889c:	ebffffbe 	bl	879c <mmu_pt_alloc_at>
    88a0:	e28dd00c 	add	sp, sp, #12
    88a4:	e49df004 	pop	{pc}		; (ldr pc, [sp], #4)
    88a8:	0000b748 	andeq	fp, r0, r8, asr #14
    88ac:	0000b6f0 	strdeq	fp, [r0], -r0
    88b0:	0000b498 	muleq	r0, r8, r4
    88b4:	0000b41c 	andeq	fp, r0, ip, lsl r4
    88b8:	0000b754 	andeq	fp, r0, r4, asr r7
    88bc:	0000b630 	andeq	fp, r0, r0, lsr r6

000088c0 <mmu_init>:
    88c0:	e52de004 	push	{lr}		; (str lr, [sp, #-4]!)
    88c4:	e24dd00c 	sub	sp, sp, #12
    88c8:	eb000641 	bl	a1d4 <our_mmu_reset>
    88cc:	eb0005b2 	bl	9f9c <cp15_ctrl_reg1_rd>
    88d0:	e3800502 	orr	r0, r0, #8388608	; 0x800000
    88d4:	eb000625 	bl	a170 <cp15_ctrl_reg1_wr>
    88d8:	eb0005af 	bl	9f9c <cp15_ctrl_reg1_rd>
    88dc:	e3100502 	tst	r0, #8388608	; 0x800000
    88e0:	1a000008 	bne	8908 <mmu_init+0x48>
    88e4:	eb0006db 	bl	a458 <rpi_reset_putc>
    88e8:	e59f304c 	ldr	r3, [pc, #76]	; 893c <mmu_init+0x7c>
    88ec:	e58d3000 	str	r3, [sp]
    88f0:	e59f0048 	ldr	r0, [pc, #72]	; 8940 <mmu_init+0x80>
    88f4:	e59f1048 	ldr	r1, [pc, #72]	; 8944 <mmu_init+0x84>
    88f8:	e59f2048 	ldr	r2, [pc, #72]	; 8948 <mmu_init+0x88>
    88fc:	e3a0308e 	mov	r3, #142	; 0x8e
    8900:	eb0006b9 	bl	a3ec <printk>
    8904:	eb000848 	bl	aa2c <clean_reboot>
    8908:	e3100001 	tst	r0, #1
    890c:	0a000008 	beq	8934 <mmu_init+0x74>
    8910:	eb0006d0 	bl	a458 <rpi_reset_putc>
    8914:	e59f3030 	ldr	r3, [pc, #48]	; 894c <mmu_init+0x8c>
    8918:	e58d3000 	str	r3, [sp]
    891c:	e59f001c 	ldr	r0, [pc, #28]	; 8940 <mmu_init+0x80>
    8920:	e59f101c 	ldr	r1, [pc, #28]	; 8944 <mmu_init+0x84>
    8924:	e59f201c 	ldr	r2, [pc, #28]	; 8948 <mmu_init+0x88>
    8928:	e3a0308f 	mov	r3, #143	; 0x8f
    892c:	eb0006ae 	bl	a3ec <printk>
    8930:	eb00083d 	bl	aa2c <clean_reboot>
    8934:	e28dd00c 	add	sp, sp, #12
    8938:	e49df004 	pop	{pc}		; (ldr pc, [sp], #4)
    893c:	0000b790 	muleq	r0, r0, r7
    8940:	0000b208 	andeq	fp, r0, r8, lsl #4
    8944:	0000b498 	muleq	r0, r8, r4
    8948:	0000b42c 	andeq	fp, r0, ip, lsr #8
    894c:	0000b79c 	muleq	r0, ip, r7

00008950 <mmu_install_handlers>:
    8950:	e92d4008 	push	{r3, lr}
    8954:	eb000893 	bl	aba8 <int_init>
    8958:	e8bd8008 	pop	{r3, pc}

0000895c <mmu_disable_set>:
    895c:	e52de004 	push	{lr}		; (str lr, [sp, #-4]!)
    8960:	e24dd00c 	sub	sp, sp, #12
    8964:	e3100001 	tst	r0, #1
    8968:	0a000008 	beq	8990 <mmu_disable_set+0x34>
    896c:	eb0006b9 	bl	a458 <rpi_reset_putc>
    8970:	e59f3050 	ldr	r3, [pc, #80]	; 89c8 <mmu_disable_set+0x6c>
    8974:	e58d3000 	str	r3, [sp]
    8978:	e59f004c 	ldr	r0, [pc, #76]	; 89cc <mmu_disable_set+0x70>
    897c:	e59f104c 	ldr	r1, [pc, #76]	; 89d0 <mmu_disable_set+0x74>
    8980:	e59f204c 	ldr	r2, [pc, #76]	; 89d4 <mmu_disable_set+0x78>
    8984:	e3a03098 	mov	r3, #152	; 0x98
    8988:	eb000697 	bl	a3ec <printk>
    898c:	eb000826 	bl	aa2c <clean_reboot>
    8990:	e3100004 	tst	r0, #4
    8994:	0a000008 	beq	89bc <mmu_disable_set+0x60>
    8998:	eb0006ae 	bl	a458 <rpi_reset_putc>
    899c:	e59f3034 	ldr	r3, [pc, #52]	; 89d8 <mmu_disable_set+0x7c>
    89a0:	e58d3000 	str	r3, [sp]
    89a4:	e59f0020 	ldr	r0, [pc, #32]	; 89cc <mmu_disable_set+0x70>
    89a8:	e59f1020 	ldr	r1, [pc, #32]	; 89d0 <mmu_disable_set+0x74>
    89ac:	e59f2020 	ldr	r2, [pc, #32]	; 89d4 <mmu_disable_set+0x78>
    89b0:	e3a03099 	mov	r3, #153	; 0x99
    89b4:	eb00068c 	bl	a3ec <printk>
    89b8:	eb00081b 	bl	aa2c <clean_reboot>
    89bc:	eb000625 	bl	a258 <our_mmu_disable_set_asm>
    89c0:	e28dd00c 	add	sp, sp, #12
    89c4:	e49df004 	pop	{pc}		; (ldr pc, [sp], #4)
    89c8:	0000b7ac 	andeq	fp, r0, ip, lsr #15
    89cc:	0000b208 	andeq	fp, r0, r8, lsl #4
    89d0:	0000b498 	muleq	r0, r8, r4
    89d4:	0000b438 	andeq	fp, r0, r8, lsr r4
    89d8:	0000b7bc 			; <UNDEFINED> instruction: 0x0000b7bc

000089dc <mmu_disable>:
    89dc:	e52de004 	push	{lr}		; (str lr, [sp, #-4]!)
    89e0:	e24dd00c 	sub	sp, sp, #12
    89e4:	eb00056c 	bl	9f9c <cp15_ctrl_reg1_rd>
    89e8:	e3100001 	tst	r0, #1
    89ec:	1a000008 	bne	8a14 <mmu_disable+0x38>
    89f0:	eb000698 	bl	a458 <rpi_reset_putc>
    89f4:	e59f3028 	ldr	r3, [pc, #40]	; 8a24 <mmu_disable+0x48>
    89f8:	e58d3000 	str	r3, [sp]
    89fc:	e59f0024 	ldr	r0, [pc, #36]	; 8a28 <mmu_disable+0x4c>
    8a00:	e59f1024 	ldr	r1, [pc, #36]	; 8a2c <mmu_disable+0x50>
    8a04:	e59f2024 	ldr	r2, [pc, #36]	; 8a30 <mmu_disable+0x54>
    8a08:	e3a0309e 	mov	r3, #158	; 0x9e
    8a0c:	eb000676 	bl	a3ec <printk>
    8a10:	eb000805 	bl	aa2c <clean_reboot>
    8a14:	e3c00001 	bic	r0, r0, #1
    8a18:	ebffffcf 	bl	895c <mmu_disable_set>
    8a1c:	e28dd00c 	add	sp, sp, #12
    8a20:	e49df004 	pop	{pc}		; (ldr pc, [sp], #4)
    8a24:	0000b7d0 	ldrdeq	fp, [r0], -r0
    8a28:	0000b208 	andeq	fp, r0, r8, lsl #4
    8a2c:	0000b498 	muleq	r0, r8, r4
    8a30:	0000b448 	andeq	fp, r0, r8, asr #8

00008a34 <mmu_enable_set>:
    8a34:	e52de004 	push	{lr}		; (str lr, [sp, #-4]!)
    8a38:	e24dd00c 	sub	sp, sp, #12
    8a3c:	e3100001 	tst	r0, #1
    8a40:	1a000008 	bne	8a68 <mmu_enable_set+0x34>
    8a44:	eb000683 	bl	a458 <rpi_reset_putc>
    8a48:	e59f3024 	ldr	r3, [pc, #36]	; 8a74 <mmu_enable_set+0x40>
    8a4c:	e58d3000 	str	r3, [sp]
    8a50:	e59f0020 	ldr	r0, [pc, #32]	; 8a78 <mmu_enable_set+0x44>
    8a54:	e59f1020 	ldr	r1, [pc, #32]	; 8a7c <mmu_enable_set+0x48>
    8a58:	e59f2020 	ldr	r2, [pc, #32]	; 8a80 <mmu_enable_set+0x4c>
    8a5c:	e3a030a4 	mov	r3, #164	; 0xa4
    8a60:	eb000661 	bl	a3ec <printk>
    8a64:	eb0007f0 	bl	aa2c <clean_reboot>
    8a68:	eb0005f2 	bl	a238 <our_mmu_enable_set_asm>
    8a6c:	e28dd00c 	add	sp, sp, #12
    8a70:	e49df004 	pop	{pc}		; (ldr pc, [sp], #4)
    8a74:	0000b7d0 	ldrdeq	fp, [r0], -r0
    8a78:	0000b208 	andeq	fp, r0, r8, lsl #4
    8a7c:	0000b498 	muleq	r0, r8, r4
    8a80:	0000b454 	andeq	fp, r0, r4, asr r4

00008a84 <mmu_enable>:
    8a84:	e52de004 	push	{lr}		; (str lr, [sp, #-4]!)
    8a88:	e24dd00c 	sub	sp, sp, #12
    8a8c:	eb000542 	bl	9f9c <cp15_ctrl_reg1_rd>
    8a90:	e3100001 	tst	r0, #1
    8a94:	0a000008 	beq	8abc <mmu_enable+0x38>
    8a98:	eb00066e 	bl	a458 <rpi_reset_putc>
    8a9c:	e59f3028 	ldr	r3, [pc, #40]	; 8acc <mmu_enable+0x48>
    8aa0:	e58d3000 	str	r3, [sp]
    8aa4:	e59f0024 	ldr	r0, [pc, #36]	; 8ad0 <mmu_enable+0x4c>
    8aa8:	e59f1024 	ldr	r1, [pc, #36]	; 8ad4 <mmu_enable+0x50>
    8aac:	e59f2024 	ldr	r2, [pc, #36]	; 8ad8 <mmu_enable+0x54>
    8ab0:	e3a030a9 	mov	r3, #169	; 0xa9
    8ab4:	eb00064c 	bl	a3ec <printk>
    8ab8:	eb0007db 	bl	aa2c <clean_reboot>
    8abc:	e3800001 	orr	r0, r0, #1
    8ac0:	ebffffdb 	bl	8a34 <mmu_enable_set>
    8ac4:	e28dd00c 	add	sp, sp, #12
    8ac8:	e49df004 	pop	{pc}		; (ldr pc, [sp], #4)
    8acc:	0000b7ac 	andeq	fp, r0, ip, lsr #15
    8ad0:	0000b208 	andeq	fp, r0, r8, lsl #4
    8ad4:	0000b498 	muleq	r0, r8, r4
    8ad8:	0000b464 	andeq	fp, r0, r4, ror #8

00008adc <read_domain_access_ctrl>:
    8adc:	ee130f10 	mrc	15, 0, r0, cr3, cr0, {0}
    8ae0:	e12fff1e 	bx	lr

00008ae4 <write_domain_access_ctrl>:
    8ae4:	e92d4008 	push	{r3, lr}
    8ae8:	eb000599 	bl	a154 <our_cp15_domain_ctrl_wr>
    8aec:	e8bd8008 	pop	{r3, pc}

00008af0 <set_procid_ttbr0>:
    8af0:	e52de004 	push	{lr}		; (str lr, [sp, #-4]!)
    8af4:	e24dd00c 	sub	sp, sp, #12
    8af8:	e1b03c20 	lsrs	r3, r0, #24
    8afc:	0a000008 	beq	8b24 <set_procid_ttbr0+0x34>
    8b00:	eb000654 	bl	a458 <rpi_reset_putc>
    8b04:	e59f3088 	ldr	r3, [pc, #136]	; 8b94 <set_procid_ttbr0+0xa4>
    8b08:	e58d3000 	str	r3, [sp]
    8b0c:	e59f0084 	ldr	r0, [pc, #132]	; 8b98 <set_procid_ttbr0+0xa8>
    8b10:	e59f1084 	ldr	r1, [pc, #132]	; 8b9c <set_procid_ttbr0+0xac>
    8b14:	e59f2084 	ldr	r2, [pc, #132]	; 8ba0 <set_procid_ttbr0+0xb0>
    8b18:	e3a030bb 	mov	r3, #187	; 0xbb
    8b1c:	eb000632 	bl	a3ec <printk>
    8b20:	eb0007c1 	bl	aa2c <clean_reboot>
    8b24:	e3500040 	cmp	r0, #64	; 0x40
    8b28:	8a000008 	bhi	8b50 <set_procid_ttbr0+0x60>
    8b2c:	eb000649 	bl	a458 <rpi_reset_putc>
    8b30:	e59f306c 	ldr	r3, [pc, #108]	; 8ba4 <set_procid_ttbr0+0xb4>
    8b34:	e58d3000 	str	r3, [sp]
    8b38:	e59f0058 	ldr	r0, [pc, #88]	; 8b98 <set_procid_ttbr0+0xa8>
    8b3c:	e59f1058 	ldr	r1, [pc, #88]	; 8b9c <set_procid_ttbr0+0xac>
    8b40:	e59f2058 	ldr	r2, [pc, #88]	; 8ba0 <set_procid_ttbr0+0xb0>
    8b44:	e3a030bc 	mov	r3, #188	; 0xbc
    8b48:	eb000627 	bl	a3ec <printk>
    8b4c:	eb0007b6 	bl	aa2c <clean_reboot>
    8b50:	e2413001 	sub	r3, r1, #1
    8b54:	e353003e 	cmp	r3, #62	; 0x3e
    8b58:	9a000008 	bls	8b80 <set_procid_ttbr0+0x90>
    8b5c:	eb00063d 	bl	a458 <rpi_reset_putc>
    8b60:	e59f3040 	ldr	r3, [pc, #64]	; 8ba8 <set_procid_ttbr0+0xb8>
    8b64:	e58d3000 	str	r3, [sp]
    8b68:	e59f0028 	ldr	r0, [pc, #40]	; 8b98 <set_procid_ttbr0+0xa8>
    8b6c:	e59f1028 	ldr	r1, [pc, #40]	; 8b9c <set_procid_ttbr0+0xac>
    8b70:	e59f2028 	ldr	r2, [pc, #40]	; 8ba0 <set_procid_ttbr0+0xb0>
    8b74:	e3a030bd 	mov	r3, #189	; 0xbd
    8b78:	eb00061b 	bl	a3ec <printk>
    8b7c:	eb0007aa 	bl	aa2c <clean_reboot>
    8b80:	e1810400 	orr	r0, r1, r0, lsl #8
    8b84:	e1a01002 	mov	r1, r2
    8b88:	eb000587 	bl	a1ac <our_cp15_set_procid_ttbr0>
    8b8c:	e28dd00c 	add	sp, sp, #12
    8b90:	e49df004 	pop	{pc}		; (ldr pc, [sp], #4)
    8b94:	0000b7e0 	andeq	fp, r0, r0, ror #15
    8b98:	0000b208 	andeq	fp, r0, r8, lsl #4
    8b9c:	0000b498 	muleq	r0, r8, r4
    8ba0:	0000b470 	andeq	fp, r0, r0, ror r4
    8ba4:	0000b7f4 	strdeq	fp, [r0], -r4
    8ba8:	0000b800 	andeq	fp, r0, r0, lsl #16

00008bac <asm_not_implemented>:
    8bac:	e52de004 	push	{lr}		; (str lr, [sp, #-4]!)
    8bb0:	e24dd00c 	sub	sp, sp, #12
    8bb4:	e1a04000 	mov	r4, r0
    8bb8:	ebfffdd6 	bl	8318 <mmu_is_enabled>
    8bbc:	e3500000 	cmp	r0, #0
    8bc0:	0a000000 	beq	8bc8 <asm_not_implemented+0x1c>
    8bc4:	ebffff84 	bl	89dc <mmu_disable>
    8bc8:	eb000622 	bl	a458 <rpi_reset_putc>
    8bcc:	e58d4000 	str	r4, [sp]
    8bd0:	e59f0010 	ldr	r0, [pc, #16]	; 8be8 <asm_not_implemented+0x3c>
    8bd4:	e59f1010 	ldr	r1, [pc, #16]	; 8bec <asm_not_implemented+0x40>
    8bd8:	e59f2010 	ldr	r2, [pc, #16]	; 8bf0 <asm_not_implemented+0x44>
    8bdc:	e3a030c5 	mov	r3, #197	; 0xc5
    8be0:	eb000601 	bl	a3ec <printk>
    8be4:	eb000790 	bl	aa2c <clean_reboot>
    8be8:	0000b814 	andeq	fp, r0, r4, lsl r8
    8bec:	0000b498 	muleq	r0, r8, r4
    8bf0:	0000b484 	andeq	fp, r0, r4, lsl #9

00008bf4 <hash_print>:
    8bf4:	e92d4038 	push	{r3, r4, r5, lr}
    8bf8:	e1a05000 	mov	r5, r0
    8bfc:	e1a04002 	mov	r4, r2
    8c00:	e1a00001 	mov	r0, r1
    8c04:	e1a01002 	mov	r1, r2
    8c08:	eb0005b3 	bl	a2dc <fast_hash>
    8c0c:	e1a02000 	mov	r2, r0
    8c10:	e59f000c 	ldr	r0, [pc, #12]	; 8c24 <hash_print+0x30>
    8c14:	e1a01005 	mov	r1, r5
    8c18:	e1a03004 	mov	r3, r4
    8c1c:	eb0005f2 	bl	a3ec <printk>
    8c20:	e8bd8038 	pop	{r3, r4, r5, pc}
    8c24:	0000b84c 	andeq	fp, r0, ip, asr #16

00008c28 <domain_acl_print>:
    8c28:	e92d4008 	push	{r3, lr}
    8c2c:	e59f0014 	ldr	r0, [pc, #20]	; 8c48 <domain_acl_print+0x20>
    8c30:	eb0005ed 	bl	a3ec <printk>
    8c34:	ebffffa8 	bl	8adc <read_domain_access_ctrl>
    8c38:	e1a01000 	mov	r1, r0
    8c3c:	e59f0008 	ldr	r0, [pc, #8]	; 8c4c <domain_acl_print+0x24>
    8c40:	eb0005e9 	bl	a3ec <printk>
    8c44:	e8bd8008 	pop	{r3, pc}
    8c48:	0000b868 	andeq	fp, r0, r8, ror #16
    8c4c:	0000b880 	andeq	fp, r0, r0, lsl #17

00008c50 <control_reg1_check_offsets>:
    8c50:	e52de004 	push	{lr}		; (str lr, [sp, #-4]!)
    8c54:	e49df004 	pop	{pc}		; (ldr pc, [sp], #4)

00008c58 <control_reg1_sanity_check>:
    8c58:	e52de004 	push	{lr}		; (str lr, [sp, #-4]!)
    8c5c:	e24dd00c 	sub	sp, sp, #12
    8c60:	e5d03000 	ldrb	r3, [r0]
    8c64:	e1a03223 	lsr	r3, r3, #4
    8c68:	e2033007 	and	r3, r3, #7
    8c6c:	e3530007 	cmp	r3, #7
    8c70:	0a000008 	beq	8c98 <control_reg1_sanity_check+0x40>
    8c74:	eb0005f7 	bl	a458 <rpi_reset_putc>
    8c78:	e59f31a0 	ldr	r3, [pc, #416]	; 8e20 <control_reg1_sanity_check+0x1c8>
    8c7c:	e58d3000 	str	r3, [sp]
    8c80:	e59f019c 	ldr	r0, [pc, #412]	; 8e24 <control_reg1_sanity_check+0x1cc>
    8c84:	e59f119c 	ldr	r1, [pc, #412]	; 8e28 <control_reg1_sanity_check+0x1d0>
    8c88:	e59f219c 	ldr	r2, [pc, #412]	; 8e2c <control_reg1_sanity_check+0x1d4>
    8c8c:	e3a0303b 	mov	r3, #59	; 0x3b
    8c90:	eb0005d5 	bl	a3ec <printk>
    8c94:	eb000764 	bl	aa2c <clean_reboot>
    8c98:	e5d03002 	ldrb	r3, [r0, #2]
    8c9c:	e3130001 	tst	r3, #1
    8ca0:	1a000008 	bne	8cc8 <control_reg1_sanity_check+0x70>
    8ca4:	eb0005eb 	bl	a458 <rpi_reset_putc>
    8ca8:	e59f3180 	ldr	r3, [pc, #384]	; 8e30 <control_reg1_sanity_check+0x1d8>
    8cac:	e58d3000 	str	r3, [sp]
    8cb0:	e59f016c 	ldr	r0, [pc, #364]	; 8e24 <control_reg1_sanity_check+0x1cc>
    8cb4:	e59f116c 	ldr	r1, [pc, #364]	; 8e28 <control_reg1_sanity_check+0x1d0>
    8cb8:	e59f216c 	ldr	r2, [pc, #364]	; 8e2c <control_reg1_sanity_check+0x1d4>
    8cbc:	e3a0303c 	mov	r3, #60	; 0x3c
    8cc0:	eb0005c9 	bl	a3ec <printk>
    8cc4:	eb000758 	bl	aa2c <clean_reboot>
    8cc8:	e5d03002 	ldrb	r3, [r0, #2]
    8ccc:	e3130004 	tst	r3, #4
    8cd0:	1a000008 	bne	8cf8 <control_reg1_sanity_check+0xa0>
    8cd4:	eb0005df 	bl	a458 <rpi_reset_putc>
    8cd8:	e59f3154 	ldr	r3, [pc, #340]	; 8e34 <control_reg1_sanity_check+0x1dc>
    8cdc:	e58d3000 	str	r3, [sp]
    8ce0:	e59f013c 	ldr	r0, [pc, #316]	; 8e24 <control_reg1_sanity_check+0x1cc>
    8ce4:	e59f113c 	ldr	r1, [pc, #316]	; 8e28 <control_reg1_sanity_check+0x1d0>
    8ce8:	e59f213c 	ldr	r2, [pc, #316]	; 8e2c <control_reg1_sanity_check+0x1d4>
    8cec:	e3a0303d 	mov	r3, #61	; 0x3d
    8cf0:	eb0005bd 	bl	a3ec <printk>
    8cf4:	eb00074c 	bl	aa2c <clean_reboot>
    8cf8:	e5d03002 	ldrb	r3, [r0, #2]
    8cfc:	e3130002 	tst	r3, #2
    8d00:	0a000008 	beq	8d28 <control_reg1_sanity_check+0xd0>
    8d04:	eb0005d3 	bl	a458 <rpi_reset_putc>
    8d08:	e59f3128 	ldr	r3, [pc, #296]	; 8e38 <control_reg1_sanity_check+0x1e0>
    8d0c:	e58d3000 	str	r3, [sp]
    8d10:	e59f010c 	ldr	r0, [pc, #268]	; 8e24 <control_reg1_sanity_check+0x1cc>
    8d14:	e59f110c 	ldr	r1, [pc, #268]	; 8e28 <control_reg1_sanity_check+0x1d0>
    8d18:	e59f210c 	ldr	r2, [pc, #268]	; 8e2c <control_reg1_sanity_check+0x1d4>
    8d1c:	e3a03040 	mov	r3, #64	; 0x40
    8d20:	eb0005b1 	bl	a3ec <printk>
    8d24:	eb000740 	bl	aa2c <clean_reboot>
    8d28:	e5d03002 	ldrb	r3, [r0, #2]
    8d2c:	e3130008 	tst	r3, #8
    8d30:	0a000008 	beq	8d58 <control_reg1_sanity_check+0x100>
    8d34:	eb0005c7 	bl	a458 <rpi_reset_putc>
    8d38:	e59f30fc 	ldr	r3, [pc, #252]	; 8e3c <control_reg1_sanity_check+0x1e4>
    8d3c:	e58d3000 	str	r3, [sp]
    8d40:	e59f00dc 	ldr	r0, [pc, #220]	; 8e24 <control_reg1_sanity_check+0x1cc>
    8d44:	e59f10dc 	ldr	r1, [pc, #220]	; 8e28 <control_reg1_sanity_check+0x1d0>
    8d48:	e59f20dc 	ldr	r2, [pc, #220]	; 8e2c <control_reg1_sanity_check+0x1d4>
    8d4c:	e3a03041 	mov	r3, #65	; 0x41
    8d50:	eb0005a5 	bl	a3ec <printk>
    8d54:	eb000734 	bl	aa2c <clean_reboot>
    8d58:	e5d03002 	ldrb	r3, [r0, #2]
    8d5c:	e3130010 	tst	r3, #16
    8d60:	0a000008 	beq	8d88 <control_reg1_sanity_check+0x130>
    8d64:	eb0005bb 	bl	a458 <rpi_reset_putc>
    8d68:	e59f30d0 	ldr	r3, [pc, #208]	; 8e40 <control_reg1_sanity_check+0x1e8>
    8d6c:	e58d3000 	str	r3, [sp]
    8d70:	e59f00ac 	ldr	r0, [pc, #172]	; 8e24 <control_reg1_sanity_check+0x1cc>
    8d74:	e59f10ac 	ldr	r1, [pc, #172]	; 8e28 <control_reg1_sanity_check+0x1d0>
    8d78:	e59f20ac 	ldr	r2, [pc, #172]	; 8e2c <control_reg1_sanity_check+0x1d4>
    8d7c:	e3a03042 	mov	r3, #66	; 0x42
    8d80:	eb000599 	bl	a3ec <printk>
    8d84:	eb000728 	bl	aa2c <clean_reboot>
    8d88:	e5d03003 	ldrb	r3, [r0, #3]
    8d8c:	e3130004 	tst	r3, #4
    8d90:	0a000008 	beq	8db8 <control_reg1_sanity_check+0x160>
    8d94:	eb0005af 	bl	a458 <rpi_reset_putc>
    8d98:	e59f30a4 	ldr	r3, [pc, #164]	; 8e44 <control_reg1_sanity_check+0x1ec>
    8d9c:	e58d3000 	str	r3, [sp]
    8da0:	e59f007c 	ldr	r0, [pc, #124]	; 8e24 <control_reg1_sanity_check+0x1cc>
    8da4:	e59f107c 	ldr	r1, [pc, #124]	; 8e28 <control_reg1_sanity_check+0x1d0>
    8da8:	e59f207c 	ldr	r2, [pc, #124]	; 8e2c <control_reg1_sanity_check+0x1d4>
    8dac:	e3a0304b 	mov	r3, #75	; 0x4b
    8db0:	eb00058d 	bl	a3ec <printk>
    8db4:	eb00071c 	bl	aa2c <clean_reboot>
    8db8:	e5d03001 	ldrb	r3, [r0, #1]
    8dbc:	e3130010 	tst	r3, #16
    8dc0:	0a000008 	beq	8de8 <control_reg1_sanity_check+0x190>
    8dc4:	eb0005a3 	bl	a458 <rpi_reset_putc>
    8dc8:	e59f3078 	ldr	r3, [pc, #120]	; 8e48 <control_reg1_sanity_check+0x1f0>
    8dcc:	e58d3000 	str	r3, [sp]
    8dd0:	e59f004c 	ldr	r0, [pc, #76]	; 8e24 <control_reg1_sanity_check+0x1cc>
    8dd4:	e59f104c 	ldr	r1, [pc, #76]	; 8e28 <control_reg1_sanity_check+0x1d0>
    8dd8:	e59f204c 	ldr	r2, [pc, #76]	; 8e2c <control_reg1_sanity_check+0x1d4>
    8ddc:	e3a0304c 	mov	r3, #76	; 0x4c
    8de0:	eb000581 	bl	a3ec <printk>
    8de4:	eb000710 	bl	aa2c <clean_reboot>
    8de8:	e5d03000 	ldrb	r3, [r0]
    8dec:	e3130004 	tst	r3, #4
    8df0:	0a000008 	beq	8e18 <control_reg1_sanity_check+0x1c0>
    8df4:	eb000597 	bl	a458 <rpi_reset_putc>
    8df8:	e59f304c 	ldr	r3, [pc, #76]	; 8e4c <control_reg1_sanity_check+0x1f4>
    8dfc:	e58d3000 	str	r3, [sp]
    8e00:	e59f001c 	ldr	r0, [pc, #28]	; 8e24 <control_reg1_sanity_check+0x1cc>
    8e04:	e59f101c 	ldr	r1, [pc, #28]	; 8e28 <control_reg1_sanity_check+0x1d0>
    8e08:	e59f201c 	ldr	r2, [pc, #28]	; 8e2c <control_reg1_sanity_check+0x1d4>
    8e0c:	e3a0304d 	mov	r3, #77	; 0x4d
    8e10:	eb000575 	bl	a3ec <printk>
    8e14:	eb000704 	bl	aa2c <clean_reboot>
    8e18:	e28dd00c 	add	sp, sp, #12
    8e1c:	e49df004 	pop	{pc}		; (ldr pc, [sp], #4)
    8e20:	0000b9e4 	andeq	fp, r0, r4, ror #19
    8e24:	0000b208 	andeq	fp, r0, r8, lsl #4
    8e28:	0000b8d0 	ldrdeq	fp, [r0], -r0
    8e2c:	0000bc24 	andeq	fp, r0, r4, lsr #24
    8e30:	0000b9fc 	strdeq	fp, [r0], -ip
    8e34:	0000ba08 	andeq	fp, r0, r8, lsl #20
    8e38:	0000ba14 	andeq	fp, r0, r4, lsl sl
    8e3c:	0000ba24 	andeq	fp, r0, r4, lsr #20
    8e40:	0000ba34 	andeq	fp, r0, r4, lsr sl
    8e44:	0000ba40 	andeq	fp, r0, r0, asr #20
    8e48:	0000ba50 	andeq	fp, r0, r0, asr sl
    8e4c:	0000ba64 	andeq	fp, r0, r4, ror #20

00008e50 <control_reg1_print>:
    8e50:	e92d4010 	push	{r4, lr}
    8e54:	e1a04000 	mov	r4, r0
    8e58:	ebffff7e 	bl	8c58 <control_reg1_sanity_check>
    8e5c:	e59f01a0 	ldr	r0, [pc, #416]	; 9004 <control_reg1_print+0x1b4>
    8e60:	eb000561 	bl	a3ec <printk>
    8e64:	e5d41003 	ldrb	r1, [r4, #3]
    8e68:	e1a012a1 	lsr	r1, r1, #5
    8e6c:	e59f0194 	ldr	r0, [pc, #404]	; 9008 <control_reg1_print+0x1b8>
    8e70:	e2011001 	and	r1, r1, #1
    8e74:	e59f2190 	ldr	r2, [pc, #400]	; 900c <control_reg1_print+0x1bc>
    8e78:	eb00055b 	bl	a3ec <printk>
    8e7c:	e5d41003 	ldrb	r1, [r4, #3]
    8e80:	e1a01221 	lsr	r1, r1, #4
    8e84:	e59f017c 	ldr	r0, [pc, #380]	; 9008 <control_reg1_print+0x1b8>
    8e88:	e2011001 	and	r1, r1, #1
    8e8c:	e59f217c 	ldr	r2, [pc, #380]	; 9010 <control_reg1_print+0x1c0>
    8e90:	eb000555 	bl	a3ec <printk>
    8e94:	e5d41003 	ldrb	r1, [r4, #3]
    8e98:	e1a01121 	lsr	r1, r1, #2
    8e9c:	e59f0164 	ldr	r0, [pc, #356]	; 9008 <control_reg1_print+0x1b8>
    8ea0:	e2011001 	and	r1, r1, #1
    8ea4:	e59f2168 	ldr	r2, [pc, #360]	; 9014 <control_reg1_print+0x1c4>
    8ea8:	eb00054f 	bl	a3ec <printk>
    8eac:	e5d41003 	ldrb	r1, [r4, #3]
    8eb0:	e1a010a1 	lsr	r1, r1, #1
    8eb4:	e59f014c 	ldr	r0, [pc, #332]	; 9008 <control_reg1_print+0x1b8>
    8eb8:	e2011001 	and	r1, r1, #1
    8ebc:	e59f2154 	ldr	r2, [pc, #340]	; 9018 <control_reg1_print+0x1c8>
    8ec0:	eb000549 	bl	a3ec <printk>
    8ec4:	e5d41003 	ldrb	r1, [r4, #3]
    8ec8:	e59f0138 	ldr	r0, [pc, #312]	; 9008 <control_reg1_print+0x1b8>
    8ecc:	e2011001 	and	r1, r1, #1
    8ed0:	e59f2144 	ldr	r2, [pc, #324]	; 901c <control_reg1_print+0x1cc>
    8ed4:	eb000544 	bl	a3ec <printk>
    8ed8:	e5d41002 	ldrb	r1, [r4, #2]
    8edc:	e59f0124 	ldr	r0, [pc, #292]	; 9008 <control_reg1_print+0x1b8>
    8ee0:	e1a013a1 	lsr	r1, r1, #7
    8ee4:	e59f2134 	ldr	r2, [pc, #308]	; 9020 <control_reg1_print+0x1d0>
    8ee8:	eb00053f 	bl	a3ec <printk>
    8eec:	e5d41002 	ldrb	r1, [r4, #2]
    8ef0:	e1a01321 	lsr	r1, r1, #6
    8ef4:	e59f010c 	ldr	r0, [pc, #268]	; 9008 <control_reg1_print+0x1b8>
    8ef8:	e2011001 	and	r1, r1, #1
    8efc:	e59f2120 	ldr	r2, [pc, #288]	; 9024 <control_reg1_print+0x1d4>
    8f00:	eb000539 	bl	a3ec <printk>
    8f04:	e5d41002 	ldrb	r1, [r4, #2]
    8f08:	e1a012a1 	lsr	r1, r1, #5
    8f0c:	e59f00f4 	ldr	r0, [pc, #244]	; 9008 <control_reg1_print+0x1b8>
    8f10:	e2011001 	and	r1, r1, #1
    8f14:	e59f210c 	ldr	r2, [pc, #268]	; 9028 <control_reg1_print+0x1d8>
    8f18:	eb000533 	bl	a3ec <printk>
    8f1c:	e5d41001 	ldrb	r1, [r4, #1]
    8f20:	e1a01321 	lsr	r1, r1, #6
    8f24:	e59f00dc 	ldr	r0, [pc, #220]	; 9008 <control_reg1_print+0x1b8>
    8f28:	e2011001 	and	r1, r1, #1
    8f2c:	e59f20f8 	ldr	r2, [pc, #248]	; 902c <control_reg1_print+0x1dc>
    8f30:	eb00052d 	bl	a3ec <printk>
    8f34:	e5d41001 	ldrb	r1, [r4, #1]
    8f38:	e1a01221 	lsr	r1, r1, #4
    8f3c:	e59f00c4 	ldr	r0, [pc, #196]	; 9008 <control_reg1_print+0x1b8>
    8f40:	e2011001 	and	r1, r1, #1
    8f44:	e59f20e4 	ldr	r2, [pc, #228]	; 9030 <control_reg1_print+0x1e0>
    8f48:	eb000527 	bl	a3ec <printk>
    8f4c:	e5d41001 	ldrb	r1, [r4, #1]
    8f50:	e1a011a1 	lsr	r1, r1, #3
    8f54:	e59f00ac 	ldr	r0, [pc, #172]	; 9008 <control_reg1_print+0x1b8>
    8f58:	e2011001 	and	r1, r1, #1
    8f5c:	e59f20d0 	ldr	r2, [pc, #208]	; 9034 <control_reg1_print+0x1e4>
    8f60:	eb000521 	bl	a3ec <printk>
    8f64:	e5d41001 	ldrb	r1, [r4, #1]
    8f68:	e1a010a1 	lsr	r1, r1, #1
    8f6c:	e59f0094 	ldr	r0, [pc, #148]	; 9008 <control_reg1_print+0x1b8>
    8f70:	e2011001 	and	r1, r1, #1
    8f74:	e59f20bc 	ldr	r2, [pc, #188]	; 9038 <control_reg1_print+0x1e8>
    8f78:	eb00051b 	bl	a3ec <printk>
    8f7c:	e5d41001 	ldrb	r1, [r4, #1]
    8f80:	e59f0080 	ldr	r0, [pc, #128]	; 9008 <control_reg1_print+0x1b8>
    8f84:	e2011001 	and	r1, r1, #1
    8f88:	e59f20ac 	ldr	r2, [pc, #172]	; 903c <control_reg1_print+0x1ec>
    8f8c:	eb000516 	bl	a3ec <printk>
    8f90:	e5d41000 	ldrb	r1, [r4]
    8f94:	e59f006c 	ldr	r0, [pc, #108]	; 9008 <control_reg1_print+0x1b8>
    8f98:	e1a013a1 	lsr	r1, r1, #7
    8f9c:	e59f209c 	ldr	r2, [pc, #156]	; 9040 <control_reg1_print+0x1f0>
    8fa0:	eb000511 	bl	a3ec <printk>
    8fa4:	e5d41000 	ldrb	r1, [r4]
    8fa8:	e1a011a1 	lsr	r1, r1, #3
    8fac:	e59f0054 	ldr	r0, [pc, #84]	; 9008 <control_reg1_print+0x1b8>
    8fb0:	e2011001 	and	r1, r1, #1
    8fb4:	e59f2088 	ldr	r2, [pc, #136]	; 9044 <control_reg1_print+0x1f4>
    8fb8:	eb00050b 	bl	a3ec <printk>
    8fbc:	e5d41000 	ldrb	r1, [r4]
    8fc0:	e1a01121 	lsr	r1, r1, #2
    8fc4:	e59f003c 	ldr	r0, [pc, #60]	; 9008 <control_reg1_print+0x1b8>
    8fc8:	e2011001 	and	r1, r1, #1
    8fcc:	e59f2074 	ldr	r2, [pc, #116]	; 9048 <control_reg1_print+0x1f8>
    8fd0:	eb000505 	bl	a3ec <printk>
    8fd4:	e5d41000 	ldrb	r1, [r4]
    8fd8:	e1a010a1 	lsr	r1, r1, #1
    8fdc:	e59f0024 	ldr	r0, [pc, #36]	; 9008 <control_reg1_print+0x1b8>
    8fe0:	e2011001 	and	r1, r1, #1
    8fe4:	e59f2060 	ldr	r2, [pc, #96]	; 904c <control_reg1_print+0x1fc>
    8fe8:	eb0004ff 	bl	a3ec <printk>
    8fec:	e5d41000 	ldrb	r1, [r4]
    8ff0:	e59f0010 	ldr	r0, [pc, #16]	; 9008 <control_reg1_print+0x1b8>
    8ff4:	e2011001 	and	r1, r1, #1
    8ff8:	e59f2050 	ldr	r2, [pc, #80]	; 9050 <control_reg1_print+0x200>
    8ffc:	eb0004fa 	bl	a3ec <printk>
    9000:	e8bd8010 	pop	{r4, pc}
    9004:	0000ba7c 	andeq	fp, r0, ip, ror sl
    9008:	0000ba94 	muleq	r0, r4, sl
    900c:	0000b9d8 	ldrdeq	fp, [r0], -r8
    9010:	0000b9c8 	andeq	fp, r0, r8, asr #19
    9014:	0000ba44 	andeq	fp, r0, r4, asr #20
    9018:	0000b9c4 	andeq	fp, r0, r4, asr #19
    901c:	0000b9b8 			; <UNDEFINED> instruction: 0x0000b9b8
    9020:	0000b9b0 			; <UNDEFINED> instruction: 0x0000b9b0
    9024:	0000b9a4 	andeq	fp, r0, r4, lsr #19
    9028:	0000b9a0 	andeq	fp, r0, r0, lsr #19
    902c:	0000b98c 	andeq	fp, r0, ip, lsl #19
    9030:	0000ba54 	andeq	fp, r0, r4, asr sl
    9034:	0000b96c 	andeq	fp, r0, ip, ror #18
    9038:	0000b95c 	andeq	fp, r0, ip, asr r9
    903c:	0000b954 	andeq	fp, r0, r4, asr r9
    9040:	0000b948 	andeq	fp, r0, r8, asr #18
    9044:	0000b93c 	andeq	fp, r0, ip, lsr r9
    9048:	0000ba68 	andeq	fp, r0, r8, ror #20
    904c:	0000b930 	andeq	fp, r0, r0, lsr r9
    9050:	0000b7a0 	andeq	fp, r0, r0, lsr #15

00009054 <tlb_config_check_offsets>:
    9054:	e52de004 	push	{lr}		; (str lr, [sp, #-4]!)
    9058:	e49df004 	pop	{pc}		; (ldr pc, [sp], #4)

0000905c <tlb_config_print>:
    905c:	e92d4010 	push	{r4, lr}
    9060:	e1a04000 	mov	r4, r0
    9064:	e59f002c 	ldr	r0, [pc, #44]	; 9098 <tlb_config_print+0x3c>
    9068:	eb0004df 	bl	a3ec <printk>
    906c:	e5d41000 	ldrb	r1, [r4]
    9070:	e59f0024 	ldr	r0, [pc, #36]	; 909c <tlb_config_print+0x40>
    9074:	e2011001 	and	r1, r1, #1
    9078:	eb0004db 	bl	a3ec <printk>
    907c:	e59f001c 	ldr	r0, [pc, #28]	; 90a0 <tlb_config_print+0x44>
    9080:	e5d41001 	ldrb	r1, [r4, #1]
    9084:	eb0004d8 	bl	a3ec <printk>
    9088:	e59f0014 	ldr	r0, [pc, #20]	; 90a4 <tlb_config_print+0x48>
    908c:	e5d41002 	ldrb	r1, [r4, #2]
    9090:	eb0004d5 	bl	a3ec <printk>
    9094:	e8bd8010 	pop	{r4, pc}
    9098:	0000bacc 	andeq	fp, r0, ip, asr #21
    909c:	0000badc 	ldrdeq	fp, [r0], -ip
    90a0:	0000baec 	andeq	fp, r0, ip, ror #21
    90a4:	0000bb04 	andeq	fp, r0, r4, lsl #22

000090a8 <fld_check_valid>:
    90a8:	e52de004 	push	{lr}		; (str lr, [sp, #-4]!)
    90ac:	e24dd00c 	sub	sp, sp, #12
    90b0:	e5d03002 	ldrb	r3, [r0, #2]
    90b4:	e3130008 	tst	r3, #8
    90b8:	0a000008 	beq	90e0 <fld_check_valid+0x38>
    90bc:	eb0004e5 	bl	a458 <rpi_reset_putc>
    90c0:	e59f3174 	ldr	r3, [pc, #372]	; 923c <fld_check_valid+0x194>
    90c4:	e58d3000 	str	r3, [sp]
    90c8:	e59f0170 	ldr	r0, [pc, #368]	; 9240 <fld_check_valid+0x198>
    90cc:	e59f1170 	ldr	r1, [pc, #368]	; 9244 <fld_check_valid+0x19c>
    90d0:	e59f2170 	ldr	r2, [pc, #368]	; 9248 <fld_check_valid+0x1a0>
    90d4:	e3a0307d 	mov	r3, #125	; 0x7d
    90d8:	eb0004c3 	bl	a3ec <printk>
    90dc:	eb000652 	bl	aa2c <clean_reboot>
    90e0:	e5d03000 	ldrb	r3, [r0]
    90e4:	e2033003 	and	r3, r3, #3
    90e8:	e3530002 	cmp	r3, #2
    90ec:	0a000008 	beq	9114 <fld_check_valid+0x6c>
    90f0:	eb0004d8 	bl	a458 <rpi_reset_putc>
    90f4:	e59f3150 	ldr	r3, [pc, #336]	; 924c <fld_check_valid+0x1a4>
    90f8:	e58d3000 	str	r3, [sp]
    90fc:	e59f013c 	ldr	r0, [pc, #316]	; 9240 <fld_check_valid+0x198>
    9100:	e59f113c 	ldr	r1, [pc, #316]	; 9244 <fld_check_valid+0x19c>
    9104:	e59f213c 	ldr	r2, [pc, #316]	; 9248 <fld_check_valid+0x1a0>
    9108:	e3a0307e 	mov	r3, #126	; 0x7e
    910c:	eb0004b6 	bl	a3ec <printk>
    9110:	eb000645 	bl	aa2c <clean_reboot>
    9114:	e5d03002 	ldrb	r3, [r0, #2]
    9118:	e3130001 	tst	r3, #1
    911c:	0a000008 	beq	9144 <fld_check_valid+0x9c>
    9120:	eb0004cc 	bl	a458 <rpi_reset_putc>
    9124:	e59f3124 	ldr	r3, [pc, #292]	; 9250 <fld_check_valid+0x1a8>
    9128:	e58d3000 	str	r3, [sp]
    912c:	e59f010c 	ldr	r0, [pc, #268]	; 9240 <fld_check_valid+0x198>
    9130:	e59f110c 	ldr	r1, [pc, #268]	; 9244 <fld_check_valid+0x19c>
    9134:	e59f210c 	ldr	r2, [pc, #268]	; 9248 <fld_check_valid+0x1a0>
    9138:	e3a0307f 	mov	r3, #127	; 0x7f
    913c:	eb0004aa 	bl	a3ec <printk>
    9140:	eb000639 	bl	aa2c <clean_reboot>
    9144:	e5d03001 	ldrb	r3, [r0, #1]
    9148:	e3130002 	tst	r3, #2
    914c:	0a000008 	beq	9174 <fld_check_valid+0xcc>
    9150:	eb0004c0 	bl	a458 <rpi_reset_putc>
    9154:	e59f30f8 	ldr	r3, [pc, #248]	; 9254 <fld_check_valid+0x1ac>
    9158:	e58d3000 	str	r3, [sp]
    915c:	e59f00dc 	ldr	r0, [pc, #220]	; 9240 <fld_check_valid+0x198>
    9160:	e59f10dc 	ldr	r1, [pc, #220]	; 9244 <fld_check_valid+0x19c>
    9164:	e59f20dc 	ldr	r2, [pc, #220]	; 9248 <fld_check_valid+0x1a0>
    9168:	e3a03080 	mov	r3, #128	; 0x80
    916c:	eb00049e 	bl	a3ec <printk>
    9170:	eb00062d 	bl	aa2c <clean_reboot>
    9174:	e5d03001 	ldrb	r3, [r0, #1]
    9178:	e3130070 	tst	r3, #112	; 0x70
    917c:	0a000008 	beq	91a4 <fld_check_valid+0xfc>
    9180:	eb0004b4 	bl	a458 <rpi_reset_putc>
    9184:	e59f30cc 	ldr	r3, [pc, #204]	; 9258 <fld_check_valid+0x1b0>
    9188:	e58d3000 	str	r3, [sp]
    918c:	e59f00ac 	ldr	r0, [pc, #172]	; 9240 <fld_check_valid+0x198>
    9190:	e59f10ac 	ldr	r1, [pc, #172]	; 9244 <fld_check_valid+0x19c>
    9194:	e59f20ac 	ldr	r2, [pc, #172]	; 9248 <fld_check_valid+0x1a0>
    9198:	e3a03081 	mov	r3, #129	; 0x81
    919c:	eb000492 	bl	a3ec <printk>
    91a0:	eb000621 	bl	aa2c <clean_reboot>
    91a4:	e5d03000 	ldrb	r3, [r0]
    91a8:	e3130008 	tst	r3, #8
    91ac:	0a000008 	beq	91d4 <fld_check_valid+0x12c>
    91b0:	eb0004a8 	bl	a458 <rpi_reset_putc>
    91b4:	e59f30a0 	ldr	r3, [pc, #160]	; 925c <fld_check_valid+0x1b4>
    91b8:	e58d3000 	str	r3, [sp]
    91bc:	e59f007c 	ldr	r0, [pc, #124]	; 9240 <fld_check_valid+0x198>
    91c0:	e59f107c 	ldr	r1, [pc, #124]	; 9244 <fld_check_valid+0x19c>
    91c4:	e59f207c 	ldr	r2, [pc, #124]	; 9248 <fld_check_valid+0x1a0>
    91c8:	e3a03082 	mov	r3, #130	; 0x82
    91cc:	eb000486 	bl	a3ec <printk>
    91d0:	eb000615 	bl	aa2c <clean_reboot>
    91d4:	e5d03000 	ldrb	r3, [r0]
    91d8:	e3130004 	tst	r3, #4
    91dc:	0a000008 	beq	9204 <fld_check_valid+0x15c>
    91e0:	eb00049c 	bl	a458 <rpi_reset_putc>
    91e4:	e59f3074 	ldr	r3, [pc, #116]	; 9260 <fld_check_valid+0x1b8>
    91e8:	e58d3000 	str	r3, [sp]
    91ec:	e59f004c 	ldr	r0, [pc, #76]	; 9240 <fld_check_valid+0x198>
    91f0:	e59f104c 	ldr	r1, [pc, #76]	; 9244 <fld_check_valid+0x19c>
    91f4:	e59f204c 	ldr	r2, [pc, #76]	; 9248 <fld_check_valid+0x1a0>
    91f8:	e3a03083 	mov	r3, #131	; 0x83
    91fc:	eb00047a 	bl	a3ec <printk>
    9200:	eb000609 	bl	aa2c <clean_reboot>
    9204:	e5d03002 	ldrb	r3, [r0, #2]
    9208:	e3130004 	tst	r3, #4
    920c:	0a000008 	beq	9234 <fld_check_valid+0x18c>
    9210:	eb000490 	bl	a458 <rpi_reset_putc>
    9214:	e59f3048 	ldr	r3, [pc, #72]	; 9264 <fld_check_valid+0x1bc>
    9218:	e58d3000 	str	r3, [sp]
    921c:	e59f001c 	ldr	r0, [pc, #28]	; 9240 <fld_check_valid+0x198>
    9220:	e59f101c 	ldr	r1, [pc, #28]	; 9244 <fld_check_valid+0x19c>
    9224:	e59f201c 	ldr	r2, [pc, #28]	; 9248 <fld_check_valid+0x1a0>
    9228:	e3a03084 	mov	r3, #132	; 0x84
    922c:	eb00046e 	bl	a3ec <printk>
    9230:	eb0005fd 	bl	aa2c <clean_reboot>
    9234:	e28dd00c 	add	sp, sp, #12
    9238:	e49df004 	pop	{pc}		; (ldr pc, [sp], #4)
    923c:	0000bb1c 	andeq	fp, r0, ip, lsl fp
    9240:	0000b208 	andeq	fp, r0, r8, lsl #4
    9244:	0000b8d0 	ldrdeq	fp, [r0], -r0
    9248:	0000bc40 	andeq	fp, r0, r0, asr #24
    924c:	0000bb2c 	andeq	fp, r0, ip, lsr #22
    9250:	0000bb3c 	andeq	fp, r0, ip, lsr fp
    9254:	0000bb48 	andeq	fp, r0, r8, asr #22
    9258:	0000bb54 	andeq	fp, r0, r4, asr fp
    925c:	0000bb60 	andeq	fp, r0, r0, ror #22
    9260:	0000bb6c 	andeq	fp, r0, ip, ror #22
    9264:	0000bb78 	andeq	fp, r0, r8, ror fp

00009268 <fld_mk>:
    9268:	e3a00002 	mov	r0, #2
    926c:	e12fff1e 	bx	lr

00009270 <fld_check_offsets>:
    9270:	e92d4010 	push	{r4, lr}
    9274:	e24dd020 	sub	sp, sp, #32
    9278:	ebfffffa 	bl	9268 <fld_mk>
    927c:	e28d3020 	add	r3, sp, #32
    9280:	e5230004 	str	r0, [r3, #-4]!
    9284:	e1a00003 	mov	r0, r3
    9288:	ebffff86 	bl	90a8 <fld_check_valid>
    928c:	e59f4074 	ldr	r4, [pc, #116]	; 9308 <fld_check_offsets+0x98>
    9290:	e1540004 	cmp	r4, r4
    9294:	0a00000e 	beq	92d4 <fld_check_offsets+0x64>
    9298:	eb00046e 	bl	a458 <rpi_reset_putc>
    929c:	e58d4000 	str	r4, [sp]
    92a0:	e58d4004 	str	r4, [sp, #4]
    92a4:	e59f3060 	ldr	r3, [pc, #96]	; 930c <fld_check_offsets+0x9c>
    92a8:	e58d3008 	str	r3, [sp, #8]
    92ac:	e3a03014 	mov	r3, #20
    92b0:	e58d300c 	str	r3, [sp, #12]
    92b4:	e3a0300c 	mov	r3, #12
    92b8:	e58d3010 	str	r3, [sp, #16]
    92bc:	e59f004c 	ldr	r0, [pc, #76]	; 9310 <fld_check_offsets+0xa0>
    92c0:	e59f104c 	ldr	r1, [pc, #76]	; 9314 <fld_check_offsets+0xa4>
    92c4:	e59f204c 	ldr	r2, [pc, #76]	; 9318 <fld_check_offsets+0xa8>
    92c8:	e3a030a0 	mov	r3, #160	; 0xa0
    92cc:	eb000446 	bl	a3ec <printk>
    92d0:	eb0005d5 	bl	aa2c <clean_reboot>
    92d4:	e3740601 	cmn	r4, #1048576	; 0x100000
    92d8:	0a000008 	beq	9300 <fld_check_offsets+0x90>
    92dc:	eb00045d 	bl	a458 <rpi_reset_putc>
    92e0:	e59f3034 	ldr	r3, [pc, #52]	; 931c <fld_check_offsets+0xac>
    92e4:	e58d3000 	str	r3, [sp]
    92e8:	e59f0030 	ldr	r0, [pc, #48]	; 9320 <fld_check_offsets+0xb0>
    92ec:	e59f1020 	ldr	r1, [pc, #32]	; 9314 <fld_check_offsets+0xa4>
    92f0:	e59f2020 	ldr	r2, [pc, #32]	; 9318 <fld_check_offsets+0xa8>
    92f4:	e3a030a0 	mov	r3, #160	; 0xa0
    92f8:	eb00043b 	bl	a3ec <printk>
    92fc:	eb0005ca 	bl	aa2c <clean_reboot>
    9300:	e28dd020 	add	sp, sp, #32
    9304:	e8bd8010 	pop	{r4, pc}
    9308:	fff00000 			; <UNDEFINED> instruction: 0xfff00000	; IMB
    930c:	0000bbc0 	andeq	fp, r0, r0, asr #23
    9310:	0000b8ec 	andeq	fp, r0, ip, ror #17
    9314:	0000b8d0 	ldrdeq	fp, [r0], -r0
    9318:	0000bc88 	andeq	fp, r0, r8, lsl #25
    931c:	0000b8e0 	andeq	fp, r0, r0, ror #17
    9320:	0000b208 	andeq	fp, r0, r8, lsl #4

00009324 <fld_print>:
    9324:	e92d4010 	push	{r4, lr}
    9328:	e1a04000 	mov	r4, r0
    932c:	e59f0178 	ldr	r0, [pc, #376]	; 94ac <fld_print+0x188>
    9330:	eb00042d 	bl	a3ec <printk>
    9334:	e59f0174 	ldr	r0, [pc, #372]	; 94b0 <fld_print+0x18c>
    9338:	e1a01004 	mov	r1, r4
    933c:	eb00042a 	bl	a3ec <printk>
    9340:	e1d410b2 	ldrh	r1, [r4, #2]
    9344:	e59f0168 	ldr	r0, [pc, #360]	; 94b4 <fld_print+0x190>
    9348:	e1a01221 	lsr	r1, r1, #4
    934c:	e59f2164 	ldr	r2, [pc, #356]	; 94b8 <fld_print+0x194>
    9350:	eb000425 	bl	a3ec <printk>
    9354:	e1d410b2 	ldrh	r1, [r4, #2]
    9358:	e1a01221 	lsr	r1, r1, #4
    935c:	e3510008 	cmp	r1, #8
    9360:	da000001 	ble	936c <fld_print+0x48>
    9364:	e59f0150 	ldr	r0, [pc, #336]	; 94bc <fld_print+0x198>
    9368:	eb00041f 	bl	a3ec <printk>
    936c:	e1d410b2 	ldrh	r1, [r4, #2]
    9370:	e1a01221 	lsr	r1, r1, #4
    9374:	e59f0144 	ldr	r0, [pc, #324]	; 94c0 <fld_print+0x19c>
    9378:	e1a01a01 	lsl	r1, r1, #20
    937c:	eb00041a 	bl	a3ec <printk>
    9380:	e59f013c 	ldr	r0, [pc, #316]	; 94c4 <fld_print+0x1a0>
    9384:	eb000418 	bl	a3ec <printk>
    9388:	e5d41002 	ldrb	r1, [r4, #2]
    938c:	e1a010a1 	lsr	r1, r1, #1
    9390:	e59f011c 	ldr	r0, [pc, #284]	; 94b4 <fld_print+0x190>
    9394:	e2011001 	and	r1, r1, #1
    9398:	e59f2128 	ldr	r2, [pc, #296]	; 94c8 <fld_print+0x1a4>
    939c:	eb000412 	bl	a3ec <printk>
    93a0:	e5d41002 	ldrb	r1, [r4, #2]
    93a4:	e59f0108 	ldr	r0, [pc, #264]	; 94b4 <fld_print+0x190>
    93a8:	e2011001 	and	r1, r1, #1
    93ac:	e59f2118 	ldr	r2, [pc, #280]	; 94cc <fld_print+0x1a8>
    93b0:	eb00040d 	bl	a3ec <printk>
    93b4:	e5d41001 	ldrb	r1, [r4, #1]
    93b8:	e59f00f4 	ldr	r0, [pc, #244]	; 94b4 <fld_print+0x190>
    93bc:	e1a013a1 	lsr	r1, r1, #7
    93c0:	e59f2108 	ldr	r2, [pc, #264]	; 94d0 <fld_print+0x1ac>
    93c4:	eb000408 	bl	a3ec <printk>
    93c8:	e5d41001 	ldrb	r1, [r4, #1]
    93cc:	e1a01221 	lsr	r1, r1, #4
    93d0:	e59f00dc 	ldr	r0, [pc, #220]	; 94b4 <fld_print+0x190>
    93d4:	e2011007 	and	r1, r1, #7
    93d8:	e59f20f4 	ldr	r2, [pc, #244]	; 94d4 <fld_print+0x1b0>
    93dc:	eb000402 	bl	a3ec <printk>
    93e0:	e5d41001 	ldrb	r1, [r4, #1]
    93e4:	e1a01121 	lsr	r1, r1, #2
    93e8:	e59f00c4 	ldr	r0, [pc, #196]	; 94b4 <fld_print+0x190>
    93ec:	e2011003 	and	r1, r1, #3
    93f0:	e59f20e0 	ldr	r2, [pc, #224]	; 94d8 <fld_print+0x1b4>
    93f4:	eb0003fc 	bl	a3ec <printk>
    93f8:	e5d41001 	ldrb	r1, [r4, #1]
    93fc:	e1a010a1 	lsr	r1, r1, #1
    9400:	e59f00ac 	ldr	r0, [pc, #172]	; 94b4 <fld_print+0x190>
    9404:	e2011001 	and	r1, r1, #1
    9408:	e59f20cc 	ldr	r2, [pc, #204]	; 94dc <fld_print+0x1b8>
    940c:	eb0003f6 	bl	a3ec <printk>
    9410:	e1d410b0 	ldrh	r1, [r4]
    9414:	e1a012a1 	lsr	r1, r1, #5
    9418:	e59f0094 	ldr	r0, [pc, #148]	; 94b4 <fld_print+0x190>
    941c:	e201100f 	and	r1, r1, #15
    9420:	e59f20b8 	ldr	r2, [pc, #184]	; 94e0 <fld_print+0x1bc>
    9424:	eb0003f0 	bl	a3ec <printk>
    9428:	e1d410b0 	ldrh	r1, [r4]
    942c:	e1a012a1 	lsr	r1, r1, #5
    9430:	e201100f 	and	r1, r1, #15
    9434:	e3510008 	cmp	r1, #8
    9438:	da000001 	ble	9444 <fld_print+0x120>
    943c:	e59f0078 	ldr	r0, [pc, #120]	; 94bc <fld_print+0x198>
    9440:	eb0003e9 	bl	a3ec <printk>
    9444:	e5d41000 	ldrb	r1, [r4]
    9448:	e1a01221 	lsr	r1, r1, #4
    944c:	e59f0060 	ldr	r0, [pc, #96]	; 94b4 <fld_print+0x190>
    9450:	e2011001 	and	r1, r1, #1
    9454:	e59f2088 	ldr	r2, [pc, #136]	; 94e4 <fld_print+0x1c0>
    9458:	eb0003e3 	bl	a3ec <printk>
    945c:	e5d41000 	ldrb	r1, [r4]
    9460:	e1a011a1 	lsr	r1, r1, #3
    9464:	e59f0048 	ldr	r0, [pc, #72]	; 94b4 <fld_print+0x190>
    9468:	e2011001 	and	r1, r1, #1
    946c:	e59f2074 	ldr	r2, [pc, #116]	; 94e8 <fld_print+0x1c4>
    9470:	eb0003dd 	bl	a3ec <printk>
    9474:	e5d41000 	ldrb	r1, [r4]
    9478:	e1a01121 	lsr	r1, r1, #2
    947c:	e59f0030 	ldr	r0, [pc, #48]	; 94b4 <fld_print+0x190>
    9480:	e2011001 	and	r1, r1, #1
    9484:	e59f2060 	ldr	r2, [pc, #96]	; 94ec <fld_print+0x1c8>
    9488:	eb0003d7 	bl	a3ec <printk>
    948c:	e5d41000 	ldrb	r1, [r4]
    9490:	e59f001c 	ldr	r0, [pc, #28]	; 94b4 <fld_print+0x190>
    9494:	e2011003 	and	r1, r1, #3
    9498:	e59f2050 	ldr	r2, [pc, #80]	; 94f0 <fld_print+0x1cc>
    949c:	eb0003d2 	bl	a3ec <printk>
    94a0:	e1a00004 	mov	r0, r4
    94a4:	ebfffeff 	bl	90a8 <fld_check_valid>
    94a8:	e8bd8010 	pop	{r4, pc}
    94ac:	0000bbd0 	ldrdeq	fp, [r0], -r0
    94b0:	0000bbf0 	strdeq	fp, [r0], -r0
    94b4:	0000ba94 	muleq	r0, r4, sl
    94b8:	0000bbc0 	andeq	fp, r0, r0, asr #23
    94bc:	0000baa0 	andeq	fp, r0, r0, lsr #21
    94c0:	0000bbf8 	strdeq	fp, [r0], -r8
    94c4:	0000bc0c 	andeq	fp, r0, ip, lsl #24
    94c8:	0000bbb4 			; <UNDEFINED> instruction: 0x0000bbb4
    94cc:	0000bbb0 			; <UNDEFINED> instruction: 0x0000bbb0
    94d0:	0000bbac 	andeq	fp, r0, ip, lsr #23
    94d4:	0000bba8 	andeq	fp, r0, r8, lsr #23
    94d8:	0000bba4 	andeq	fp, r0, r4, lsr #23
    94dc:	0000bba0 	andeq	fp, r0, r0, lsr #23
    94e0:	0000bb98 	muleq	r0, r8, fp
    94e4:	0000bb94 	muleq	r0, r4, fp
    94e8:	0000bb90 	muleq	r0, r0, fp
    94ec:	0000bb8c 	andeq	fp, r0, ip, lsl #23
    94f0:	0000bb88 	andeq	fp, r0, r8, lsl #23

000094f4 <check_vm_structs>:
    94f4:	e92d4008 	push	{r3, lr}
    94f8:	ebfffdd4 	bl	8c50 <control_reg1_check_offsets>
    94fc:	ebfffed4 	bl	9054 <tlb_config_check_offsets>
    9500:	ebffff5a 	bl	9270 <fld_check_offsets>
    9504:	e8bd8008 	pop	{r3, pc}

00009508 <last_fault_get>:
    9508:	e1a03000 	mov	r3, r0
    950c:	e59f200c 	ldr	r2, [pc, #12]	; 9520 <last_fault_get+0x18>
    9510:	e8920007 	ldm	r2, {r0, r1, r2}
    9514:	e8830007 	stm	r3, {r0, r1, r2}
    9518:	e1a00003 	mov	r0, r3
    951c:	e12fff1e 	bx	lr
    9520:	0000c5b0 			; <UNDEFINED> instruction: 0x0000c5b0

00009524 <last_fault_set>:
    9524:	e59f300c 	ldr	r3, [pc, #12]	; 9538 <last_fault_set+0x14>
    9528:	e5831000 	str	r1, [r3]
    952c:	e5830004 	str	r0, [r3, #4]
    9530:	e5832008 	str	r2, [r3, #8]
    9534:	e12fff1e 	bx	lr
    9538:	0000c5b0 			; <UNDEFINED> instruction: 0x0000c5b0

0000953c <fault_expected>:
    953c:	e92d4070 	push	{r4, r5, r6, lr}
    9540:	e24dd018 	sub	sp, sp, #24
    9544:	e1a06000 	mov	r6, r0
    9548:	e1a04001 	mov	r4, r1
    954c:	e1a05002 	mov	r5, r2
    9550:	e28d000c 	add	r0, sp, #12
    9554:	ebffffeb 	bl	9508 <last_fault_get>
    9558:	e59d300c 	ldr	r3, [sp, #12]
    955c:	e1530004 	cmp	r3, r4
    9560:	0a000008 	beq	9588 <fault_expected+0x4c>
    9564:	eb0003bb 	bl	a458 <rpi_reset_putc>
    9568:	e59f309c 	ldr	r3, [pc, #156]	; 960c <fault_expected+0xd0>
    956c:	e58d3000 	str	r3, [sp]
    9570:	e59f0098 	ldr	r0, [pc, #152]	; 9610 <fault_expected+0xd4>
    9574:	e59f1098 	ldr	r1, [pc, #152]	; 9614 <fault_expected+0xd8>
    9578:	e59f2098 	ldr	r2, [pc, #152]	; 9618 <fault_expected+0xdc>
    957c:	e3a0302a 	mov	r3, #42	; 0x2a
    9580:	eb000399 	bl	a3ec <printk>
    9584:	eb000528 	bl	aa2c <clean_reboot>
    9588:	e59d3010 	ldr	r3, [sp, #16]
    958c:	e1530006 	cmp	r3, r6
    9590:	0a000008 	beq	95b8 <fault_expected+0x7c>
    9594:	eb0003af 	bl	a458 <rpi_reset_putc>
    9598:	e59f307c 	ldr	r3, [pc, #124]	; 961c <fault_expected+0xe0>
    959c:	e58d3000 	str	r3, [sp]
    95a0:	e59f0068 	ldr	r0, [pc, #104]	; 9610 <fault_expected+0xd4>
    95a4:	e59f1068 	ldr	r1, [pc, #104]	; 9614 <fault_expected+0xd8>
    95a8:	e59f2068 	ldr	r2, [pc, #104]	; 9618 <fault_expected+0xdc>
    95ac:	e3a0302b 	mov	r3, #43	; 0x2b
    95b0:	eb00038d 	bl	a3ec <printk>
    95b4:	eb00051c 	bl	aa2c <clean_reboot>
    95b8:	e59d3014 	ldr	r3, [sp, #20]
    95bc:	e1530005 	cmp	r3, r5
    95c0:	0a000008 	beq	95e8 <fault_expected+0xac>
    95c4:	eb0003a3 	bl	a458 <rpi_reset_putc>
    95c8:	e59f3050 	ldr	r3, [pc, #80]	; 9620 <fault_expected+0xe4>
    95cc:	e58d3000 	str	r3, [sp]
    95d0:	e59f0038 	ldr	r0, [pc, #56]	; 9610 <fault_expected+0xd4>
    95d4:	e59f1038 	ldr	r1, [pc, #56]	; 9614 <fault_expected+0xd8>
    95d8:	e59f2038 	ldr	r2, [pc, #56]	; 9618 <fault_expected+0xdc>
    95dc:	e3a0302c 	mov	r3, #44	; 0x2c
    95e0:	eb000381 	bl	a3ec <printk>
    95e4:	eb000510 	bl	aa2c <clean_reboot>
    95e8:	e59f0034 	ldr	r0, [pc, #52]	; 9624 <fault_expected+0xe8>
    95ec:	eb00037e 	bl	a3ec <printk>
    95f0:	e59f0030 	ldr	r0, [pc, #48]	; 9628 <fault_expected+0xec>
    95f4:	e1a01006 	mov	r1, r6
    95f8:	e1a02004 	mov	r2, r4
    95fc:	e1a03005 	mov	r3, r5
    9600:	eb000379 	bl	a3ec <printk>
    9604:	e28dd018 	add	sp, sp, #24
    9608:	e8bd8070 	pop	{r4, r5, r6, pc}
    960c:	0000bca8 	andeq	fp, r0, r8, lsr #25
    9610:	0000b208 	andeq	fp, r0, r8, lsl #4
    9614:	0000bc9c 	muleq	r0, ip, ip
    9618:	0000c178 	andeq	ip, r0, r8, ror r1
    961c:	0000bcc0 	andeq	fp, r0, r0, asr #25
    9620:	0000bcd4 	ldrdeq	fp, [r0], -r4
    9624:	0000b2a4 	andeq	fp, r0, r4, lsr #5
    9628:	0000bcf0 	strdeq	fp, [r0], -r0

0000962c <dom_perm_get>:
    962c:	e92d4010 	push	{r4, lr}
    9630:	e24dd008 	sub	sp, sp, #8
    9634:	e1a04000 	mov	r4, r0
    9638:	ebfffd27 	bl	8adc <read_domain_access_ctrl>
    963c:	e1a03084 	lsl	r3, r4, #1
    9640:	e2842001 	add	r2, r4, #1
    9644:	e1a02082 	lsl	r2, r2, #1
    9648:	e1530002 	cmp	r3, r2
    964c:	9a000008 	bls	9674 <dom_perm_get+0x48>
    9650:	eb000380 	bl	a458 <rpi_reset_putc>
    9654:	e59f3060 	ldr	r3, [pc, #96]	; 96bc <dom_perm_get+0x90>
    9658:	e58d3000 	str	r3, [sp]
    965c:	e59f005c 	ldr	r0, [pc, #92]	; 96c0 <dom_perm_get+0x94>
    9660:	e59f105c 	ldr	r1, [pc, #92]	; 96c4 <dom_perm_get+0x98>
    9664:	e59f205c 	ldr	r2, [pc, #92]	; 96c8 <dom_perm_get+0x9c>
    9668:	e3a0301d 	mov	r3, #29
    966c:	eb00035e 	bl	a3ec <printk>
    9670:	eb0004ed 	bl	aa2c <clean_reboot>
    9674:	e352001f 	cmp	r2, #31
    9678:	9a000008 	bls	96a0 <dom_perm_get+0x74>
    967c:	eb000375 	bl	a458 <rpi_reset_putc>
    9680:	e59f3044 	ldr	r3, [pc, #68]	; 96cc <dom_perm_get+0xa0>
    9684:	e58d3000 	str	r3, [sp]
    9688:	e59f0030 	ldr	r0, [pc, #48]	; 96c0 <dom_perm_get+0x94>
    968c:	e59f1030 	ldr	r1, [pc, #48]	; 96c4 <dom_perm_get+0x98>
    9690:	e59f2030 	ldr	r2, [pc, #48]	; 96c8 <dom_perm_get+0x9c>
    9694:	e3a0301e 	mov	r3, #30
    9698:	eb000353 	bl	a3ec <printk>
    969c:	eb0004e2 	bl	aa2c <clean_reboot>
    96a0:	e0632002 	rsb	r2, r3, r2
    96a4:	e2822001 	add	r2, r2, #1
    96a8:	e3e01000 	mvn	r1, #0
    96ac:	e1e02211 	mvn	r2, r1, lsl r2
    96b0:	e0020330 	and	r0, r2, r0, lsr r3
    96b4:	e28dd008 	add	sp, sp, #8
    96b8:	e8bd8010 	pop	{r4, pc}
    96bc:	0000bd34 	andeq	fp, r0, r4, lsr sp
    96c0:	0000b208 	andeq	fp, r0, r8, lsl #4
    96c4:	0000bd24 	andeq	fp, r0, r4, lsr #26
    96c8:	0000c1fc 	strdeq	ip, [r0], -ip	; <UNPREDICTABLE>
    96cc:	0000bd40 	andeq	fp, r0, r0, asr #26

000096d0 <dom_perm_set>:
    96d0:	e92d4030 	push	{r4, r5, lr}
    96d4:	e24dd00c 	sub	sp, sp, #12
    96d8:	e1a04000 	mov	r4, r0
    96dc:	e1a05001 	mov	r5, r1
    96e0:	e350000f 	cmp	r0, #15
    96e4:	9a000008 	bls	970c <dom_perm_set+0x3c>
    96e8:	eb00035a 	bl	a458 <rpi_reset_putc>
    96ec:	e59f3064 	ldr	r3, [pc, #100]	; 9758 <dom_perm_set+0x88>
    96f0:	e58d3000 	str	r3, [sp]
    96f4:	e59f0060 	ldr	r0, [pc, #96]	; 975c <dom_perm_set+0x8c>
    96f8:	e59f1060 	ldr	r1, [pc, #96]	; 9760 <dom_perm_set+0x90>
    96fc:	e59f2060 	ldr	r2, [pc, #96]	; 9764 <dom_perm_set+0x94>
    9700:	e3a03043 	mov	r3, #67	; 0x43
    9704:	eb000338 	bl	a3ec <printk>
    9708:	eb0004c7 	bl	aa2c <clean_reboot>
    970c:	e3510001 	cmp	r1, #1
    9710:	9a000008 	bls	9738 <dom_perm_set+0x68>
    9714:	eb00034f 	bl	a458 <rpi_reset_putc>
    9718:	e59f3048 	ldr	r3, [pc, #72]	; 9768 <dom_perm_set+0x98>
    971c:	e58d3000 	str	r3, [sp]
    9720:	e59f0034 	ldr	r0, [pc, #52]	; 975c <dom_perm_set+0x8c>
    9724:	e59f1034 	ldr	r1, [pc, #52]	; 9760 <dom_perm_set+0x90>
    9728:	e59f2034 	ldr	r2, [pc, #52]	; 9764 <dom_perm_set+0x94>
    972c:	e3a03044 	mov	r3, #68	; 0x44
    9730:	eb00032d 	bl	a3ec <printk>
    9734:	eb0004bc 	bl	aa2c <clean_reboot>
    9738:	ebfffce7 	bl	8adc <read_domain_access_ctrl>
    973c:	e1a04084 	lsl	r4, r4, #1
    9740:	e3a03003 	mov	r3, #3
    9744:	e1c00413 	bic	r0, r0, r3, lsl r4
    9748:	e1800415 	orr	r0, r0, r5, lsl r4
    974c:	ebfffce4 	bl	8ae4 <write_domain_access_ctrl>
    9750:	e28dd00c 	add	sp, sp, #12
    9754:	e8bd8030 	pop	{r4, r5, pc}
    9758:	0000b5b8 			; <UNDEFINED> instruction: 0x0000b5b8
    975c:	0000b208 	andeq	fp, r0, r8, lsl #4
    9760:	0000bc9c 	muleq	r0, ip, ip
    9764:	0000c220 	andeq	ip, r0, r0, lsr #4
    9768:	0000bd48 	andeq	fp, r0, r8, asr #26

0000976c <memcheck_continue_after_fault>:
    976c:	e3a02001 	mov	r2, #1
    9770:	e59f3004 	ldr	r3, [pc, #4]	; 977c <memcheck_continue_after_fault+0x10>
    9774:	e5832000 	str	r2, [r3]
    9778:	e12fff1e 	bx	lr
    977c:	0000c5bc 			; <UNDEFINED> instruction: 0x0000c5bc

00009780 <data_abort_vector>:
    9780:	e92d4070 	push	{r4, r5, r6, lr}
    9784:	e24dd008 	sub	sp, sp, #8
    9788:	e1a06000 	mov	r6, r0
    978c:	ee154f10 	mrc	15, 0, r4, cr5, cr0, {0}
    9790:	ee165f10 	mrc	15, 0, r5, cr6, cr0, {0}
    9794:	e59f02f0 	ldr	r0, [pc, #752]	; 9a8c <data_abort_vector+0x30c>
    9798:	eb000313 	bl	a3ec <printk>
    979c:	e204200f 	and	r2, r4, #15
    97a0:	e2044b01 	and	r4, r4, #1024	; 0x400
    97a4:	e1824324 	orr	r4, r2, r4, lsr #6
    97a8:	e1a00006 	mov	r0, r6
    97ac:	e1a01005 	mov	r1, r5
    97b0:	e1a02004 	mov	r2, r4
    97b4:	ebffff5a 	bl	9524 <last_fault_set>
    97b8:	e354001a 	cmp	r4, #26
    97bc:	979ff104 	ldrls	pc, [pc, r4, lsl #2]
    97c0:	ea0000a8 	b	9a68 <data_abort_vector+0x2e8>
    97c4:	0000984c 	andeq	r9, r0, ip, asr #16
    97c8:	00009830 	andeq	r9, r0, r0, lsr r8
    97cc:	00009a4c 	andeq	r9, r0, ip, asr #20
    97d0:	00009868 	andeq	r9, r0, r8, ror #16
    97d4:	00009884 	andeq	r9, r0, r4, lsl #17
    97d8:	000098d8 	ldrdeq	r9, [r0], -r8
    97dc:	00009a68 	andeq	r9, r0, r8, ror #20
    97e0:	000098ec 	andeq	r9, r0, ip, ror #17
    97e4:	000099a4 	andeq	r9, r0, r4, lsr #19
    97e8:	00009908 	andeq	r9, r0, r8, lsl #18
    97ec:	000099c0 	andeq	r9, r0, r0, asr #19
    97f0:	0000994c 	andeq	r9, r0, ip, asr #18
    97f4:	000098a0 	andeq	r9, r0, r0, lsr #17
    97f8:	00009968 	andeq	r9, r0, r8, ror #18
    97fc:	000098bc 			; <UNDEFINED> instruction: 0x000098bc
    9800:	00009988 	andeq	r9, r0, r8, lsl #19
    9804:	00009a68 	andeq	r9, r0, r8, ror #20
    9808:	00009a68 	andeq	r9, r0, r8, ror #20
    980c:	00009a68 	andeq	r9, r0, r8, ror #20
    9810:	00009a68 	andeq	r9, r0, r8, ror #20
    9814:	000099dc 	ldrdeq	r9, [r0], -ip
    9818:	00009a68 	andeq	r9, r0, r8, ror #20
    981c:	00009a14 	andeq	r9, r0, r4, lsl sl
    9820:	00009a68 	andeq	r9, r0, r8, ror #20
    9824:	00009a30 	andeq	r9, r0, r0, lsr sl
    9828:	00009a68 	andeq	r9, r0, r8, ror #20
    982c:	000099f8 	strdeq	r9, [r0], -r8
    9830:	eb000308 	bl	a458 <rpi_reset_putc>
    9834:	e59f0254 	ldr	r0, [pc, #596]	; 9a90 <data_abort_vector+0x310>
    9838:	e59f1254 	ldr	r1, [pc, #596]	; 9a94 <data_abort_vector+0x314>
    983c:	e59f2254 	ldr	r2, [pc, #596]	; 9a98 <data_abort_vector+0x318>
    9840:	e3a0308b 	mov	r3, #139	; 0x8b
    9844:	eb0002e8 	bl	a3ec <printk>
    9848:	eb000477 	bl	aa2c <clean_reboot>
    984c:	eb000301 	bl	a458 <rpi_reset_putc>
    9850:	e59f0244 	ldr	r0, [pc, #580]	; 9a9c <data_abort_vector+0x31c>
    9854:	e59f1238 	ldr	r1, [pc, #568]	; 9a94 <data_abort_vector+0x314>
    9858:	e59f2238 	ldr	r2, [pc, #568]	; 9a98 <data_abort_vector+0x318>
    985c:	e3a0308e 	mov	r3, #142	; 0x8e
    9860:	eb0002e1 	bl	a3ec <printk>
    9864:	eb000470 	bl	aa2c <clean_reboot>
    9868:	eb0002fa 	bl	a458 <rpi_reset_putc>
    986c:	e59f022c 	ldr	r0, [pc, #556]	; 9aa0 <data_abort_vector+0x320>
    9870:	e59f121c 	ldr	r1, [pc, #540]	; 9a94 <data_abort_vector+0x314>
    9874:	e59f221c 	ldr	r2, [pc, #540]	; 9a98 <data_abort_vector+0x318>
    9878:	e3a03091 	mov	r3, #145	; 0x91
    987c:	eb0002da 	bl	a3ec <printk>
    9880:	eb000469 	bl	aa2c <clean_reboot>
    9884:	eb0002f3 	bl	a458 <rpi_reset_putc>
    9888:	e59f0214 	ldr	r0, [pc, #532]	; 9aa4 <data_abort_vector+0x324>
    988c:	e59f1200 	ldr	r1, [pc, #512]	; 9a94 <data_abort_vector+0x314>
    9890:	e59f2200 	ldr	r2, [pc, #512]	; 9a98 <data_abort_vector+0x318>
    9894:	e3a03094 	mov	r3, #148	; 0x94
    9898:	eb0002d3 	bl	a3ec <printk>
    989c:	eb000462 	bl	aa2c <clean_reboot>
    98a0:	eb0002ec 	bl	a458 <rpi_reset_putc>
    98a4:	e59f01fc 	ldr	r0, [pc, #508]	; 9aa8 <data_abort_vector+0x328>
    98a8:	e59f11e4 	ldr	r1, [pc, #484]	; 9a94 <data_abort_vector+0x314>
    98ac:	e59f21e4 	ldr	r2, [pc, #484]	; 9a98 <data_abort_vector+0x318>
    98b0:	e3a03097 	mov	r3, #151	; 0x97
    98b4:	eb0002cc 	bl	a3ec <printk>
    98b8:	eb00045b 	bl	aa2c <clean_reboot>
    98bc:	eb0002e5 	bl	a458 <rpi_reset_putc>
    98c0:	e59f01e4 	ldr	r0, [pc, #484]	; 9aac <data_abort_vector+0x32c>
    98c4:	e59f11c8 	ldr	r1, [pc, #456]	; 9a94 <data_abort_vector+0x314>
    98c8:	e59f21c8 	ldr	r2, [pc, #456]	; 9a98 <data_abort_vector+0x318>
    98cc:	e3a0309a 	mov	r3, #154	; 0x9a
    98d0:	eb0002c5 	bl	a3ec <printk>
    98d4:	eb000454 	bl	aa2c <clean_reboot>
    98d8:	e59f01d0 	ldr	r0, [pc, #464]	; 9ab0 <data_abort_vector+0x330>
    98dc:	eb0002c2 	bl	a3ec <printk>
    98e0:	e59f01cc 	ldr	r0, [pc, #460]	; 9ab4 <data_abort_vector+0x334>
    98e4:	eb0002c0 	bl	a3ec <printk>
    98e8:	eb00044f 	bl	aa2c <clean_reboot>
    98ec:	eb0002d9 	bl	a458 <rpi_reset_putc>
    98f0:	e59f01c0 	ldr	r0, [pc, #448]	; 9ab8 <data_abort_vector+0x338>
    98f4:	e59f1198 	ldr	r1, [pc, #408]	; 9a94 <data_abort_vector+0x314>
    98f8:	e59f2198 	ldr	r2, [pc, #408]	; 9a98 <data_abort_vector+0x318>
    98fc:	e3a030a0 	mov	r3, #160	; 0xa0
    9900:	eb0002b9 	bl	a3ec <printk>
    9904:	eb000448 	bl	aa2c <clean_reboot>
    9908:	e59f01ac 	ldr	r0, [pc, #428]	; 9abc <data_abort_vector+0x33c>
    990c:	eb0002b6 	bl	a3ec <printk>
    9910:	e59f31a8 	ldr	r3, [pc, #424]	; 9ac0 <data_abort_vector+0x340>
    9914:	e5933000 	ldr	r3, [r3]
    9918:	e3530000 	cmp	r3, #0
    991c:	1a000004 	bne	9934 <data_abort_vector+0x1b4>
    9920:	e59f0188 	ldr	r0, [pc, #392]	; 9ab0 <data_abort_vector+0x330>
    9924:	eb0002b0 	bl	a3ec <printk>
    9928:	e59f0194 	ldr	r0, [pc, #404]	; 9ac4 <data_abort_vector+0x344>
    992c:	eb0002ae 	bl	a3ec <printk>
    9930:	eb00043d 	bl	aa2c <clean_reboot>
    9934:	e59f0174 	ldr	r0, [pc, #372]	; 9ab0 <data_abort_vector+0x330>
    9938:	eb0002ab 	bl	a3ec <printk>
    993c:	e59f0184 	ldr	r0, [pc, #388]	; 9ac8 <data_abort_vector+0x348>
    9940:	eb0002a9 	bl	a3ec <printk>
    9944:	eb000151 	bl	9e90 <memcheck_trap_disable>
    9948:	ea00004d 	b	9a84 <data_abort_vector+0x304>
    994c:	eb0002c1 	bl	a458 <rpi_reset_putc>
    9950:	e59f0174 	ldr	r0, [pc, #372]	; 9acc <data_abort_vector+0x34c>
    9954:	e59f1138 	ldr	r1, [pc, #312]	; 9a94 <data_abort_vector+0x314>
    9958:	e59f2138 	ldr	r2, [pc, #312]	; 9a98 <data_abort_vector+0x318>
    995c:	e3a030ad 	mov	r3, #173	; 0xad
    9960:	eb0002a1 	bl	a3ec <printk>
    9964:	eb000430 	bl	aa2c <clean_reboot>
    9968:	eb0002ba 	bl	a458 <rpi_reset_putc>
    996c:	e58d5000 	str	r5, [sp]
    9970:	e59f0158 	ldr	r0, [pc, #344]	; 9ad0 <data_abort_vector+0x350>
    9974:	e59f1118 	ldr	r1, [pc, #280]	; 9a94 <data_abort_vector+0x314>
    9978:	e59f2118 	ldr	r2, [pc, #280]	; 9a98 <data_abort_vector+0x318>
    997c:	e3a030b0 	mov	r3, #176	; 0xb0
    9980:	eb000299 	bl	a3ec <printk>
    9984:	eb000428 	bl	aa2c <clean_reboot>
    9988:	eb0002b2 	bl	a458 <rpi_reset_putc>
    998c:	e59f0140 	ldr	r0, [pc, #320]	; 9ad4 <data_abort_vector+0x354>
    9990:	e59f10fc 	ldr	r1, [pc, #252]	; 9a94 <data_abort_vector+0x314>
    9994:	e59f20fc 	ldr	r2, [pc, #252]	; 9a98 <data_abort_vector+0x318>
    9998:	e3a030b3 	mov	r3, #179	; 0xb3
    999c:	eb000292 	bl	a3ec <printk>
    99a0:	eb000421 	bl	aa2c <clean_reboot>
    99a4:	eb0002ab 	bl	a458 <rpi_reset_putc>
    99a8:	e59f0128 	ldr	r0, [pc, #296]	; 9ad8 <data_abort_vector+0x358>
    99ac:	e59f10e0 	ldr	r1, [pc, #224]	; 9a94 <data_abort_vector+0x314>
    99b0:	e59f20e0 	ldr	r2, [pc, #224]	; 9a98 <data_abort_vector+0x318>
    99b4:	e3a030b6 	mov	r3, #182	; 0xb6
    99b8:	eb00028b 	bl	a3ec <printk>
    99bc:	eb00041a 	bl	aa2c <clean_reboot>
    99c0:	eb0002a4 	bl	a458 <rpi_reset_putc>
    99c4:	e59f0110 	ldr	r0, [pc, #272]	; 9adc <data_abort_vector+0x35c>
    99c8:	e59f10c4 	ldr	r1, [pc, #196]	; 9a94 <data_abort_vector+0x314>
    99cc:	e59f20c4 	ldr	r2, [pc, #196]	; 9a98 <data_abort_vector+0x318>
    99d0:	e3a030b9 	mov	r3, #185	; 0xb9
    99d4:	eb000284 	bl	a3ec <printk>
    99d8:	eb000413 	bl	aa2c <clean_reboot>
    99dc:	eb00029d 	bl	a458 <rpi_reset_putc>
    99e0:	e59f00f8 	ldr	r0, [pc, #248]	; 9ae0 <data_abort_vector+0x360>
    99e4:	e59f10a8 	ldr	r1, [pc, #168]	; 9a94 <data_abort_vector+0x314>
    99e8:	e59f20a8 	ldr	r2, [pc, #168]	; 9a98 <data_abort_vector+0x318>
    99ec:	e3a030bc 	mov	r3, #188	; 0xbc
    99f0:	eb00027d 	bl	a3ec <printk>
    99f4:	eb00040c 	bl	aa2c <clean_reboot>
    99f8:	eb000296 	bl	a458 <rpi_reset_putc>
    99fc:	e59f00e0 	ldr	r0, [pc, #224]	; 9ae4 <data_abort_vector+0x364>
    9a00:	e59f108c 	ldr	r1, [pc, #140]	; 9a94 <data_abort_vector+0x314>
    9a04:	e59f208c 	ldr	r2, [pc, #140]	; 9a98 <data_abort_vector+0x318>
    9a08:	e3a030bf 	mov	r3, #191	; 0xbf
    9a0c:	eb000276 	bl	a3ec <printk>
    9a10:	eb000405 	bl	aa2c <clean_reboot>
    9a14:	eb00028f 	bl	a458 <rpi_reset_putc>
    9a18:	e59f00c8 	ldr	r0, [pc, #200]	; 9ae8 <data_abort_vector+0x368>
    9a1c:	e59f1070 	ldr	r1, [pc, #112]	; 9a94 <data_abort_vector+0x314>
    9a20:	e59f2070 	ldr	r2, [pc, #112]	; 9a98 <data_abort_vector+0x318>
    9a24:	e3a030c2 	mov	r3, #194	; 0xc2
    9a28:	eb00026f 	bl	a3ec <printk>
    9a2c:	eb0003fe 	bl	aa2c <clean_reboot>
    9a30:	eb000288 	bl	a458 <rpi_reset_putc>
    9a34:	e59f00b0 	ldr	r0, [pc, #176]	; 9aec <data_abort_vector+0x36c>
    9a38:	e59f1054 	ldr	r1, [pc, #84]	; 9a94 <data_abort_vector+0x314>
    9a3c:	e59f2054 	ldr	r2, [pc, #84]	; 9a98 <data_abort_vector+0x318>
    9a40:	e3a030c5 	mov	r3, #197	; 0xc5
    9a44:	eb000268 	bl	a3ec <printk>
    9a48:	eb0003f7 	bl	aa2c <clean_reboot>
    9a4c:	eb000281 	bl	a458 <rpi_reset_putc>
    9a50:	e59f0098 	ldr	r0, [pc, #152]	; 9af0 <data_abort_vector+0x370>
    9a54:	e59f1038 	ldr	r1, [pc, #56]	; 9a94 <data_abort_vector+0x314>
    9a58:	e59f2038 	ldr	r2, [pc, #56]	; 9a98 <data_abort_vector+0x318>
    9a5c:	e3a030c8 	mov	r3, #200	; 0xc8
    9a60:	eb000261 	bl	a3ec <printk>
    9a64:	eb0003f0 	bl	aa2c <clean_reboot>
    9a68:	eb00027a 	bl	a458 <rpi_reset_putc>
    9a6c:	e59f0080 	ldr	r0, [pc, #128]	; 9af4 <data_abort_vector+0x374>
    9a70:	e59f101c 	ldr	r1, [pc, #28]	; 9a94 <data_abort_vector+0x314>
    9a74:	e59f201c 	ldr	r2, [pc, #28]	; 9a98 <data_abort_vector+0x318>
    9a78:	e3a030cb 	mov	r3, #203	; 0xcb
    9a7c:	eb00025a 	bl	a3ec <printk>
    9a80:	eb0003e9 	bl	aa2c <clean_reboot>
    9a84:	e28dd008 	add	sp, sp, #8
    9a88:	e8bd8070 	pop	{r4, r5, r6, pc}
    9a8c:	0000bd74 	andeq	fp, r0, r4, ror sp
    9a90:	0000bd8c 	andeq	fp, r0, ip, lsl #27
    9a94:	0000bc9c 	muleq	r0, ip, ip
    9a98:	0000c188 	andeq	ip, r0, r8, lsl #3
    9a9c:	0000bdb0 			; <UNDEFINED> instruction: 0x0000bdb0
    9aa0:	0000bdcc 	andeq	fp, r0, ip, asr #27
    9aa4:	0000bdf4 	strdeq	fp, [r0], -r4
    9aa8:	0000be20 	andeq	fp, r0, r0, lsr #28
    9aac:	0000be4c 	andeq	fp, r0, ip, asr #28
    9ab0:	0000b2a4 	andeq	fp, r0, r4, lsr #5
    9ab4:	0000be78 	andeq	fp, r0, r8, ror lr
    9ab8:	0000bea0 	andeq	fp, r0, r0, lsr #29
    9abc:	0000bec8 	andeq	fp, r0, r8, asr #29
    9ac0:	0000c5bc 			; <UNDEFINED> instruction: 0x0000c5bc
    9ac4:	0000bee0 	andeq	fp, r0, r0, ror #29
    9ac8:	0000bef0 	strdeq	fp, [r0], -r0
    9acc:	0000bf08 	andeq	fp, r0, r8, lsl #30
    9ad0:	0000bf2c 	andeq	fp, r0, ip, lsr #30
    9ad4:	0000bf5c 	andeq	fp, r0, ip, asr pc
    9ad8:	0000bf84 	andeq	fp, r0, r4, lsl #31
    9adc:	0000bfac 	andeq	fp, r0, ip, lsr #31
    9ae0:	0000bfd4 	ldrdeq	fp, [r0], -r4
    9ae4:	0000bff0 	strdeq	fp, [r0], -r0
    9ae8:	0000c018 	andeq	ip, r0, r8, lsl r0
    9aec:	0000c044 	andeq	ip, r0, r4, asr #32
    9af0:	0000c06c 	andeq	ip, r0, ip, rrx
    9af4:	0000c08c 	andeq	ip, r0, ip, lsl #1

00009af8 <interrupt_vector>:
    9af8:	e92d4008 	push	{r3, lr}
    9afc:	ebfffbb6 	bl	89dc <mmu_disable>
    9b00:	eb000254 	bl	a458 <rpi_reset_putc>
    9b04:	e59f0010 	ldr	r0, [pc, #16]	; 9b1c <interrupt_vector+0x24>
    9b08:	e59f1010 	ldr	r1, [pc, #16]	; 9b20 <interrupt_vector+0x28>
    9b0c:	e59f2010 	ldr	r2, [pc, #16]	; 9b24 <interrupt_vector+0x2c>
    9b10:	e3a030e4 	mov	r3, #228	; 0xe4
    9b14:	eb000234 	bl	a3ec <printk>
    9b18:	eb0003c3 	bl	aa2c <clean_reboot>
    9b1c:	0000c0b4 	strheq	ip, [r0], -r4
    9b20:	0000bc9c 	muleq	r0, ip, ip
    9b24:	0000c19c 	muleq	r0, ip, r1

00009b28 <memcheck_init>:
    9b28:	e92d4010 	push	{r4, lr}
    9b2c:	e24dd008 	sub	sp, sp, #8
    9b30:	ebfffb62 	bl	88c0 <mmu_init>
    9b34:	ebfff9f7 	bl	8318 <mmu_is_enabled>
    9b38:	e3500000 	cmp	r0, #0
    9b3c:	0a000008 	beq	9b64 <memcheck_init+0x3c>
    9b40:	eb000244 	bl	a458 <rpi_reset_putc>
    9b44:	e59f3108 	ldr	r3, [pc, #264]	; 9c54 <memcheck_init+0x12c>
    9b48:	e58d3000 	str	r3, [sp]
    9b4c:	e59f0104 	ldr	r0, [pc, #260]	; 9c58 <memcheck_init+0x130>
    9b50:	e59f1104 	ldr	r1, [pc, #260]	; 9c5c <memcheck_init+0x134>
    9b54:	e59f2104 	ldr	r2, [pc, #260]	; 9c60 <memcheck_init+0x138>
    9b58:	e3a030f3 	mov	r3, #243	; 0xf3
    9b5c:	eb000222 	bl	a3ec <printk>
    9b60:	eb0003b1 	bl	aa2c <clean_reboot>
    9b64:	e3a00601 	mov	r0, #1048576	; 0x100000
    9b68:	e3a01901 	mov	r1, #16384	; 0x4000
    9b6c:	ebfffb0a 	bl	879c <mmu_pt_alloc_at>
    9b70:	e59f30ec 	ldr	r3, [pc, #236]	; 9c64 <memcheck_init+0x13c>
    9b74:	e5830000 	str	r0, [r3]
    9b78:	e3500601 	cmp	r0, #1048576	; 0x100000
    9b7c:	0a000008 	beq	9ba4 <memcheck_init+0x7c>
    9b80:	eb000234 	bl	a458 <rpi_reset_putc>
    9b84:	e59f30dc 	ldr	r3, [pc, #220]	; 9c68 <memcheck_init+0x140>
    9b88:	e58d3000 	str	r3, [sp]
    9b8c:	e59f00c4 	ldr	r0, [pc, #196]	; 9c58 <memcheck_init+0x130>
    9b90:	e59f10c4 	ldr	r1, [pc, #196]	; 9c5c <memcheck_init+0x134>
    9b94:	e59f20c4 	ldr	r2, [pc, #196]	; 9c60 <memcheck_init+0x138>
    9b98:	e3a030f8 	mov	r3, #248	; 0xf8
    9b9c:	eb000212 	bl	a3ec <printk>
    9ba0:	eb0003a1 	bl	aa2c <clean_reboot>
    9ba4:	e3a01000 	mov	r1, #0
    9ba8:	e1a02001 	mov	r2, r1
    9bac:	e3a03001 	mov	r3, #1
    9bb0:	ebfffa58 	bl	8518 <mmu_map_section>
    9bb4:	e59f40a8 	ldr	r4, [pc, #168]	; 9c64 <memcheck_init+0x13c>
    9bb8:	e5940000 	ldr	r0, [r4]
    9bbc:	e3a01601 	mov	r1, #1048576	; 0x100000
    9bc0:	e1a02001 	mov	r2, r1
    9bc4:	e3a03001 	mov	r3, #1
    9bc8:	ebfffa52 	bl	8518 <mmu_map_section>
    9bcc:	e5940000 	ldr	r0, [r4]
    9bd0:	e3a0167f 	mov	r1, #133169152	; 0x7f00000
    9bd4:	e1a02001 	mov	r2, r1
    9bd8:	e3a03001 	mov	r3, #1
    9bdc:	ebfffa4d 	bl	8518 <mmu_map_section>
    9be0:	e5940000 	ldr	r0, [r4]
    9be4:	e3a01202 	mov	r1, #536870912	; 0x20000000
    9be8:	e1a02001 	mov	r2, r1
    9bec:	e3a03001 	mov	r3, #1
    9bf0:	ebfffa48 	bl	8518 <mmu_map_section>
    9bf4:	e59f2070 	ldr	r2, [pc, #112]	; 9c6c <memcheck_init+0x144>
    9bf8:	e5940000 	ldr	r0, [r4]
    9bfc:	e1a01002 	mov	r1, r2
    9c00:	e3a03001 	mov	r3, #1
    9c04:	ebfffa43 	bl	8518 <mmu_map_section>
    9c08:	e59f2060 	ldr	r2, [pc, #96]	; 9c70 <memcheck_init+0x148>
    9c0c:	e5940000 	ldr	r0, [r4]
    9c10:	e1a01002 	mov	r1, r2
    9c14:	e3a03001 	mov	r3, #1
    9c18:	ebfffa3e 	bl	8518 <mmu_map_section>
    9c1c:	e5940000 	ldr	r0, [r4]
    9c20:	e3a0168f 	mov	r1, #149946368	; 0x8f00000
    9c24:	e1a02001 	mov	r2, r1
    9c28:	e3a03001 	mov	r3, #1
    9c2c:	ebfffa39 	bl	8518 <mmu_map_section>
    9c30:	ebfffb46 	bl	8950 <mmu_install_handlers>
    9c34:	e3a00004 	mov	r0, #4
    9c38:	ebfffba9 	bl	8ae4 <write_domain_access_ctrl>
    9c3c:	e59f0030 	ldr	r0, [pc, #48]	; 9c74 <memcheck_init+0x14c>
    9c40:	e3a01001 	mov	r1, #1
    9c44:	e5942000 	ldr	r2, [r4]
    9c48:	ebfffba8 	bl	8af0 <set_procid_ttbr0>
    9c4c:	e28dd008 	add	sp, sp, #8
    9c50:	e8bd8010 	pop	{r4, pc}
    9c54:	0000c0d0 	ldrdeq	ip, [r0], -r0
    9c58:	0000b208 	andeq	fp, r0, r8, lsl #4
    9c5c:	0000bc9c 	muleq	r0, ip, ip
    9c60:	0000c1b0 			; <UNDEFINED> instruction: 0x0000c1b0
    9c64:	0000c5c0 	andeq	ip, r0, r0, asr #11
    9c68:	0000c0e4 	andeq	ip, r0, r4, ror #1
    9c6c:	20100000 	andscs	r0, r0, r0
    9c70:	20200000 	eorcs	r0, r0, r0
    9c74:	0000140e 	andeq	r1, r0, lr, lsl #8

00009c78 <memcheck_on>:
    9c78:	e52de004 	push	{lr}		; (str lr, [sp, #-4]!)
    9c7c:	e24dd00c 	sub	sp, sp, #12
    9c80:	e59f005c 	ldr	r0, [pc, #92]	; 9ce4 <memcheck_on+0x6c>
    9c84:	e59f105c 	ldr	r1, [pc, #92]	; 9ce8 <memcheck_on+0x70>
    9c88:	e59f205c 	ldr	r2, [pc, #92]	; 9cec <memcheck_on+0x74>
    9c8c:	e3a03f47 	mov	r3, #284	; 0x11c
    9c90:	eb0001d5 	bl	a3ec <printk>
    9c94:	ebfffb7a 	bl	8a84 <mmu_enable>
    9c98:	ebfff99e 	bl	8318 <mmu_is_enabled>
    9c9c:	e3500000 	cmp	r0, #0
    9ca0:	1a000008 	bne	9cc8 <memcheck_on+0x50>
    9ca4:	eb0001eb 	bl	a458 <rpi_reset_putc>
    9ca8:	e59f3040 	ldr	r3, [pc, #64]	; 9cf0 <memcheck_on+0x78>
    9cac:	e58d3000 	str	r3, [sp]
    9cb0:	e59f003c 	ldr	r0, [pc, #60]	; 9cf4 <memcheck_on+0x7c>
    9cb4:	e59f102c 	ldr	r1, [pc, #44]	; 9ce8 <memcheck_on+0x70>
    9cb8:	e59f202c 	ldr	r2, [pc, #44]	; 9cec <memcheck_on+0x74>
    9cbc:	e59f3034 	ldr	r3, [pc, #52]	; 9cf8 <memcheck_on+0x80>
    9cc0:	eb0001c9 	bl	a3ec <printk>
    9cc4:	eb000358 	bl	aa2c <clean_reboot>
    9cc8:	e59f002c 	ldr	r0, [pc, #44]	; 9cfc <memcheck_on+0x84>
    9ccc:	e59f1014 	ldr	r1, [pc, #20]	; 9ce8 <memcheck_on+0x70>
    9cd0:	e59f2014 	ldr	r2, [pc, #20]	; 9cec <memcheck_on+0x74>
    9cd4:	e3a03e12 	mov	r3, #288	; 0x120
    9cd8:	eb0001c3 	bl	a3ec <printk>
    9cdc:	e28dd00c 	add	sp, sp, #12
    9ce0:	e49df004 	pop	{pc}		; (ldr pc, [sp], #4)
    9ce4:	0000c0f0 	strdeq	ip, [r0], -r0
    9ce8:	0000bc9c 	muleq	r0, ip, ip
    9cec:	0000c1c0 	andeq	ip, r0, r0, asr #3
    9cf0:	0000b230 	andeq	fp, r0, r0, lsr r2
    9cf4:	0000b208 	andeq	fp, r0, r8, lsl #4
    9cf8:	0000011f 	andeq	r0, r0, pc, lsl r1
    9cfc:	0000c118 	andeq	ip, r0, r8, lsl r1

00009d00 <memcheck_off>:
    9d00:	e52de004 	push	{lr}		; (str lr, [sp, #-4]!)
    9d04:	e24dd00c 	sub	sp, sp, #12
    9d08:	ebfffb33 	bl	89dc <mmu_disable>
    9d0c:	ebfff981 	bl	8318 <mmu_is_enabled>
    9d10:	e3500000 	cmp	r0, #0
    9d14:	0a000008 	beq	9d3c <memcheck_off+0x3c>
    9d18:	eb0001ce 	bl	a458 <rpi_reset_putc>
    9d1c:	e59f3034 	ldr	r3, [pc, #52]	; 9d58 <memcheck_off+0x58>
    9d20:	e58d3000 	str	r3, [sp]
    9d24:	e59f0030 	ldr	r0, [pc, #48]	; 9d5c <memcheck_off+0x5c>
    9d28:	e59f1030 	ldr	r1, [pc, #48]	; 9d60 <memcheck_off+0x60>
    9d2c:	e59f2030 	ldr	r2, [pc, #48]	; 9d64 <memcheck_off+0x64>
    9d30:	e59f3030 	ldr	r3, [pc, #48]	; 9d68 <memcheck_off+0x68>
    9d34:	eb0001ac 	bl	a3ec <printk>
    9d38:	eb00033b 	bl	aa2c <clean_reboot>
    9d3c:	e59f0028 	ldr	r0, [pc, #40]	; 9d6c <memcheck_off+0x6c>
    9d40:	e59f1018 	ldr	r1, [pc, #24]	; 9d60 <memcheck_off+0x60>
    9d44:	e59f2018 	ldr	r2, [pc, #24]	; 9d64 <memcheck_off+0x64>
    9d48:	e3a03f4a 	mov	r3, #296	; 0x128
    9d4c:	eb0001a6 	bl	a3ec <printk>
    9d50:	e28dd00c 	add	sp, sp, #12
    9d54:	e49df004 	pop	{pc}		; (ldr pc, [sp], #4)
    9d58:	0000c0d0 	ldrdeq	ip, [r0], -r0
    9d5c:	0000b208 	andeq	fp, r0, r8, lsl #4
    9d60:	0000bc9c 	muleq	r0, ip, ip
    9d64:	0000c1cc 	andeq	ip, r0, ip, asr #3
    9d68:	00000127 	andeq	r0, r0, r7, lsr #2
    9d6c:	0000c130 	andeq	ip, r0, r0, lsr r1

00009d70 <memcheck_map>:
    9d70:	e52de004 	push	{lr}		; (str lr, [sp, #-4]!)
    9d74:	e24dd00c 	sub	sp, sp, #12
    9d78:	e1a02000 	mov	r2, r0
    9d7c:	e3c034ff 	bic	r3, r0, #-16777216	; 0xff000000
    9d80:	e3d3160f 	bics	r1, r3, #15728640	; 0xf00000
    9d84:	0a000008 	beq	9dac <memcheck_map+0x3c>
    9d88:	eb0001b2 	bl	a458 <rpi_reset_putc>
    9d8c:	e59f3038 	ldr	r3, [pc, #56]	; 9dcc <memcheck_map+0x5c>
    9d90:	e58d3000 	str	r3, [sp]
    9d94:	e59f0034 	ldr	r0, [pc, #52]	; 9dd0 <memcheck_map+0x60>
    9d98:	e59f1034 	ldr	r1, [pc, #52]	; 9dd4 <memcheck_map+0x64>
    9d9c:	e59f2034 	ldr	r2, [pc, #52]	; 9dd8 <memcheck_map+0x68>
    9da0:	e3a03f4b 	mov	r3, #300	; 0x12c
    9da4:	eb000190 	bl	a3ec <printk>
    9da8:	eb00031f 	bl	aa2c <clean_reboot>
    9dac:	e59f3028 	ldr	r3, [pc, #40]	; 9ddc <memcheck_map+0x6c>
    9db0:	e5930000 	ldr	r0, [r3]
    9db4:	e1a01002 	mov	r1, r2
    9db8:	e2822601 	add	r2, r2, #1048576	; 0x100000
    9dbc:	e3a03001 	mov	r3, #1
    9dc0:	ebfff9d4 	bl	8518 <mmu_map_section>
    9dc4:	e28dd00c 	add	sp, sp, #12
    9dc8:	e49df004 	pop	{pc}		; (ldr pc, [sp], #4)
    9dcc:	0000c148 	andeq	ip, r0, r8, asr #2
    9dd0:	0000b208 	andeq	fp, r0, r8, lsl #4
    9dd4:	0000bc9c 	muleq	r0, ip, ip
    9dd8:	0000c1dc 	ldrdeq	ip, [r0], -ip	; <UNPREDICTABLE>
    9ddc:	0000c5c0 	andeq	ip, r0, r0, asr #11

00009de0 <memcheck_track>:
    9de0:	e52de004 	push	{lr}		; (str lr, [sp, #-4]!)
    9de4:	e24dd00c 	sub	sp, sp, #12
    9de8:	e1a02000 	mov	r2, r0
    9dec:	e3c034ff 	bic	r3, r0, #-16777216	; 0xff000000
    9df0:	e3d3160f 	bics	r1, r3, #15728640	; 0xf00000
    9df4:	0a000008 	beq	9e1c <memcheck_track+0x3c>
    9df8:	eb000196 	bl	a458 <rpi_reset_putc>
    9dfc:	e59f3038 	ldr	r3, [pc, #56]	; 9e3c <memcheck_track+0x5c>
    9e00:	e58d3000 	str	r3, [sp]
    9e04:	e59f0034 	ldr	r0, [pc, #52]	; 9e40 <memcheck_track+0x60>
    9e08:	e59f1034 	ldr	r1, [pc, #52]	; 9e44 <memcheck_track+0x64>
    9e0c:	e59f2034 	ldr	r2, [pc, #52]	; 9e48 <memcheck_track+0x68>
    9e10:	e59f3034 	ldr	r3, [pc, #52]	; 9e4c <memcheck_track+0x6c>
    9e14:	eb000174 	bl	a3ec <printk>
    9e18:	eb000303 	bl	aa2c <clean_reboot>
    9e1c:	e59f302c 	ldr	r3, [pc, #44]	; 9e50 <memcheck_track+0x70>
    9e20:	e5930000 	ldr	r0, [r3]
    9e24:	e1a01002 	mov	r1, r2
    9e28:	e2822601 	add	r2, r2, #1048576	; 0x100000
    9e2c:	e3a03002 	mov	r3, #2
    9e30:	ebfff9b8 	bl	8518 <mmu_map_section>
    9e34:	e28dd00c 	add	sp, sp, #12
    9e38:	e49df004 	pop	{pc}		; (ldr pc, [sp], #4)
    9e3c:	0000c148 	andeq	ip, r0, r8, asr #2
    9e40:	0000b208 	andeq	fp, r0, r8, lsl #4
    9e44:	0000bc9c 	muleq	r0, ip, ip
    9e48:	0000c1ec 	andeq	ip, r0, ip, ror #3
    9e4c:	00000133 	andeq	r0, r0, r3, lsr r1
    9e50:	0000c5c0 	andeq	ip, r0, r0, asr #11

00009e54 <memcheck_no_access>:
    9e54:	e92d4008 	push	{r3, lr}
    9e58:	e1a01a20 	lsr	r1, r0, #20
    9e5c:	e59f3010 	ldr	r3, [pc, #16]	; 9e74 <memcheck_no_access+0x20>
    9e60:	e5930000 	ldr	r0, [r3]
    9e64:	e1a01a01 	lsl	r1, r1, #20
    9e68:	e3a02001 	mov	r2, #1
    9e6c:	ebfff97f 	bl	8470 <mmu_mark_sec_no_access>
    9e70:	e8bd8008 	pop	{r3, pc}
    9e74:	0000c5c0 	andeq	ip, r0, r0, asr #11

00009e78 <memcheck_trap_enabled>:
    9e78:	e92d4008 	push	{r3, lr}
    9e7c:	e3a00002 	mov	r0, #2
    9e80:	ebfffde9 	bl	962c <dom_perm_get>
    9e84:	e2700001 	rsbs	r0, r0, #1
    9e88:	33a00000 	movcc	r0, #0
    9e8c:	e8bd8008 	pop	{r3, pc}

00009e90 <memcheck_trap_disable>:
    9e90:	e52de004 	push	{lr}		; (str lr, [sp, #-4]!)
    9e94:	e24dd00c 	sub	sp, sp, #12
    9e98:	e3a00002 	mov	r0, #2
    9e9c:	e3a01001 	mov	r1, #1
    9ea0:	ebfffe0a 	bl	96d0 <dom_perm_set>
    9ea4:	ebfffff3 	bl	9e78 <memcheck_trap_enabled>
    9ea8:	e3500000 	cmp	r0, #0
    9eac:	0a000008 	beq	9ed4 <memcheck_trap_disable+0x44>
    9eb0:	eb000168 	bl	a458 <rpi_reset_putc>
    9eb4:	e59f3020 	ldr	r3, [pc, #32]	; 9edc <memcheck_trap_disable+0x4c>
    9eb8:	e58d3000 	str	r3, [sp]
    9ebc:	e59f001c 	ldr	r0, [pc, #28]	; 9ee0 <memcheck_trap_disable+0x50>
    9ec0:	e59f101c 	ldr	r1, [pc, #28]	; 9ee4 <memcheck_trap_disable+0x54>
    9ec4:	e59f201c 	ldr	r2, [pc, #28]	; 9ee8 <memcheck_trap_disable+0x58>
    9ec8:	e3a03f52 	mov	r3, #328	; 0x148
    9ecc:	eb000146 	bl	a3ec <printk>
    9ed0:	eb0002d5 	bl	aa2c <clean_reboot>
    9ed4:	e28dd00c 	add	sp, sp, #12
    9ed8:	e49df004 	pop	{pc}		; (ldr pc, [sp], #4)
    9edc:	0000b320 	andeq	fp, r0, r0, lsr #6
    9ee0:	0000b208 	andeq	fp, r0, r8, lsl #4
    9ee4:	0000bc9c 	muleq	r0, ip, ip
    9ee8:	0000c208 	andeq	ip, r0, r8, lsl #4

00009eec <memcheck_trap_enable>:
    9eec:	e52de004 	push	{lr}		; (str lr, [sp, #-4]!)
    9ef0:	e24dd00c 	sub	sp, sp, #12
    9ef4:	e3a00002 	mov	r0, #2
    9ef8:	e3a01000 	mov	r1, #0
    9efc:	ebfffdf3 	bl	96d0 <dom_perm_set>
    9f00:	ebffffdc 	bl	9e78 <memcheck_trap_enabled>
    9f04:	e3500000 	cmp	r0, #0
    9f08:	1a000008 	bne	9f30 <memcheck_trap_enable+0x44>
    9f0c:	eb000151 	bl	a458 <rpi_reset_putc>
    9f10:	e59f3020 	ldr	r3, [pc, #32]	; 9f38 <memcheck_trap_enable+0x4c>
    9f14:	e58d3000 	str	r3, [sp]
    9f18:	e59f001c 	ldr	r0, [pc, #28]	; 9f3c <memcheck_trap_enable+0x50>
    9f1c:	e59f101c 	ldr	r1, [pc, #28]	; 9f40 <memcheck_trap_enable+0x54>
    9f20:	e59f201c 	ldr	r2, [pc, #28]	; 9f44 <memcheck_trap_enable+0x58>
    9f24:	e3a03f53 	mov	r3, #332	; 0x14c
    9f28:	eb00012f 	bl	a3ec <printk>
    9f2c:	eb0002be 	bl	aa2c <clean_reboot>
    9f30:	e28dd00c 	add	sp, sp, #12
    9f34:	e49df004 	pop	{pc}		; (ldr pc, [sp], #4)
    9f38:	0000c160 	andeq	ip, r0, r0, ror #2
    9f3c:	0000b208 	andeq	fp, r0, r8, lsl #4
    9f40:	0000bc9c 	muleq	r0, ip, ip
    9f44:	0000c230 	andeq	ip, r0, r0, lsr r2

00009f48 <cp15_sync>:
    9f48:	e3a02000 	mov	r2, #0
    9f4c:	ee072fd5 	mcr	15, 0, r2, cr7, cr5, {6}
    9f50:	ee072f9a 	mcr	15, 0, r2, cr7, cr10, {4}
    9f54:	ee072f95 	mcr	15, 0, r2, cr7, cr5, {4}
    9f58:	e12fff1e 	bx	lr

00009f5c <cp15_barrier>:
    9f5c:	e3a02000 	mov	r2, #0
    9f60:	ee072f9a 	mcr	15, 0, r2, cr7, cr10, {4}
    9f64:	ee072f95 	mcr	15, 0, r2, cr7, cr5, {4}
    9f68:	e12fff1e 	bx	lr

00009f6c <cp15_ttbr0_rd>:
    9f6c:	ee120f10 	mrc	15, 0, r0, cr2, cr0, {0}
    9f70:	e12fff1e 	bx	lr

00009f74 <cp15_ttbr1_rd>:
    9f74:	ee120f30 	mrc	15, 0, r0, cr2, cr0, {1}
    9f78:	e12fff1e 	bx	lr

00009f7c <cp15_ttbr_ctrl_rd>:
    9f7c:	ee120f50 	mrc	15, 0, r0, cr2, cr0, {2}
    9f80:	e12fff1e 	bx	lr

00009f84 <cp15_domain_ctrl_rd>:
    9f84:	ee130f10 	mrc	15, 0, r0, cr3, cr0, {0}
    9f88:	e12fff1e 	bx	lr

00009f8c <cp15_cache_type_rd>:
    9f8c:	ee100f30 	mrc	15, 0, r0, cr0, cr0, {1}
    9f90:	e12fff1e 	bx	lr

00009f94 <cp15_tlb_config_rd>:
    9f94:	ee100f70 	mrc	15, 0, r0, cr0, cr0, {3}
    9f98:	e12fff1e 	bx	lr

00009f9c <cp15_ctrl_reg1_rd>:
    9f9c:	ee110f10 	mrc	15, 0, r0, cr1, cr0, {0}
    9fa0:	e12fff1e 	bx	lr

00009fa4 <cp15_ctrl_reg1_rd_u32>:
    9fa4:	ee110f10 	mrc	15, 0, r0, cr1, cr0, {0}
    9fa8:	e12fff1e 	bx	lr

00009fac <cp15_procid_rd>:
    9fac:	ee1d0f30 	mrc	15, 0, r0, cr13, cr0, {1}
    9fb0:	e12fff1e 	bx	lr

00009fb4 <cp15_dsb>:
    9fb4:	e3a02000 	mov	r2, #0
    9fb8:	ee072f9a 	mcr	15, 0, r2, cr7, cr10, {4}
    9fbc:	e12fff1e 	bx	lr

00009fc0 <cp15_dmb>:
    9fc0:	e3a02000 	mov	r2, #0
    9fc4:	ee072fba 	mcr	15, 0, r2, cr7, cr10, {5}
    9fc8:	e12fff1e 	bx	lr

00009fcc <cp15_prefetch_flush>:
    9fcc:	e3a02000 	mov	r2, #0
    9fd0:	ee072f95 	mcr	15, 0, r2, cr7, cr5, {4}
    9fd4:	e12fff1e 	bx	lr

00009fd8 <cp15_btb_flush>:
    9fd8:	e3a02000 	mov	r2, #0
    9fdc:	ee072fd5 	mcr	15, 0, r2, cr7, cr5, {6}
    9fe0:	e12fff1e 	bx	lr

00009fe4 <cp15_caches_inv>:
    9fe4:	e3a00000 	mov	r0, #0
    9fe8:	ee070f15 	mcr	15, 0, r0, cr7, cr5, {0}
    9fec:	ee070f15 	mcr	15, 0, r0, cr7, cr5, {0}
    9ff0:	ee070f15 	mcr	15, 0, r0, cr7, cr5, {0}
    9ff4:	ee070f15 	mcr	15, 0, r0, cr7, cr5, {0}
    9ff8:	e320f000 	nop	{0}
    9ffc:	e320f000 	nop	{0}
    a000:	e320f000 	nop	{0}
    a004:	e320f000 	nop	{0}
    a008:	e320f000 	nop	{0}
    a00c:	e320f000 	nop	{0}
    a010:	e320f000 	nop	{0}
    a014:	e320f000 	nop	{0}
    a018:	e320f000 	nop	{0}
    a01c:	e320f000 	nop	{0}
    a020:	e320f000 	nop	{0}
    a024:	ee070f16 	mcr	15, 0, r0, cr7, cr6, {0}
    a028:	ee070f9a 	mcr	15, 0, r0, cr7, cr10, {4}
    a02c:	ee070fd5 	mcr	15, 0, r0, cr7, cr5, {6}
    a030:	ee070f9a 	mcr	15, 0, r0, cr7, cr10, {4}
    a034:	ee070f95 	mcr	15, 0, r0, cr7, cr5, {4}
    a038:	e12fff1e 	bx	lr

0000a03c <cp15_dcache_clean_inv>:
    a03c:	e3a00000 	mov	r0, #0
    a040:	ee070f1e 	mcr	15, 0, r0, cr7, cr14, {0}
    a044:	ee070f9a 	mcr	15, 0, r0, cr7, cr10, {4}
    a048:	ee070fd5 	mcr	15, 0, r0, cr7, cr5, {6}
    a04c:	ee070f9a 	mcr	15, 0, r0, cr7, cr10, {4}
    a050:	ee070f95 	mcr	15, 0, r0, cr7, cr5, {4}
    a054:	e12fff1e 	bx	lr

0000a058 <cp15_icache_inv>:
    a058:	e3a00000 	mov	r0, #0
    a05c:	ee070f15 	mcr	15, 0, r0, cr7, cr5, {0}
    a060:	ee070f15 	mcr	15, 0, r0, cr7, cr5, {0}
    a064:	ee070f15 	mcr	15, 0, r0, cr7, cr5, {0}
    a068:	ee070f15 	mcr	15, 0, r0, cr7, cr5, {0}
    a06c:	e320f000 	nop	{0}
    a070:	e320f000 	nop	{0}
    a074:	e320f000 	nop	{0}
    a078:	e320f000 	nop	{0}
    a07c:	e320f000 	nop	{0}
    a080:	e320f000 	nop	{0}
    a084:	e320f000 	nop	{0}
    a088:	e320f000 	nop	{0}
    a08c:	e320f000 	nop	{0}
    a090:	e320f000 	nop	{0}
    a094:	e320f000 	nop	{0}
    a098:	ee070f9a 	mcr	15, 0, r0, cr7, cr10, {4}
    a09c:	ee070fd5 	mcr	15, 0, r0, cr7, cr5, {6}
    a0a0:	ee070f9a 	mcr	15, 0, r0, cr7, cr10, {4}
    a0a4:	ee070f95 	mcr	15, 0, r0, cr7, cr5, {4}
    a0a8:	e12fff1e 	bx	lr

0000a0ac <cp15_itlb_inv>:
    a0ac:	e3a00000 	mov	r0, #0
    a0b0:	ee080f15 	mcr	15, 0, r0, cr8, cr5, {0}
    a0b4:	ee070f9a 	mcr	15, 0, r0, cr7, cr10, {4}
    a0b8:	ee070fd5 	mcr	15, 0, r0, cr7, cr5, {6}
    a0bc:	ee070f9a 	mcr	15, 0, r0, cr7, cr10, {4}
    a0c0:	ee070f95 	mcr	15, 0, r0, cr7, cr5, {4}
    a0c4:	e12fff1e 	bx	lr

0000a0c8 <cp15_dtlb_inv>:
    a0c8:	e3a00000 	mov	r0, #0
    a0cc:	ee080f16 	mcr	15, 0, r0, cr8, cr6, {0}
    a0d0:	ee070f9a 	mcr	15, 0, r0, cr7, cr10, {4}
    a0d4:	ee070fd5 	mcr	15, 0, r0, cr7, cr5, {6}
    a0d8:	ee070f9a 	mcr	15, 0, r0, cr7, cr10, {4}
    a0dc:	ee070f95 	mcr	15, 0, r0, cr7, cr5, {4}
    a0e0:	e12fff1e 	bx	lr

0000a0e4 <cp15_tlbs_inv>:
    a0e4:	e3a00000 	mov	r0, #0
    a0e8:	ee080f17 	mcr	15, 0, r0, cr8, cr7, {0}
    a0ec:	ee070f9a 	mcr	15, 0, r0, cr7, cr10, {4}
    a0f0:	ee070fd5 	mcr	15, 0, r0, cr7, cr5, {6}
    a0f4:	ee070f9a 	mcr	15, 0, r0, cr7, cr10, {4}
    a0f8:	ee070f95 	mcr	15, 0, r0, cr7, cr5, {4}
    a0fc:	e12fff1e 	bx	lr

0000a100 <cp15_ttbr0_wr>:
    a100:	e3a01000 	mov	r1, #0
    a104:	ee020f10 	mcr	15, 0, r0, cr2, cr0, {0}
    a108:	ee071f9a 	mcr	15, 0, r1, cr7, cr10, {4}
    a10c:	ee071fd5 	mcr	15, 0, r1, cr7, cr5, {6}
    a110:	ee071f9a 	mcr	15, 0, r1, cr7, cr10, {4}
    a114:	ee071f95 	mcr	15, 0, r1, cr7, cr5, {4}
    a118:	e12fff1e 	bx	lr

0000a11c <cp15_ttbr1_wr>:
    a11c:	e3a01000 	mov	r1, #0
    a120:	ee020f10 	mcr	15, 0, r0, cr2, cr0, {0}
    a124:	ee071f9a 	mcr	15, 0, r1, cr7, cr10, {4}
    a128:	ee071fd5 	mcr	15, 0, r1, cr7, cr5, {6}
    a12c:	ee071f9a 	mcr	15, 0, r1, cr7, cr10, {4}
    a130:	ee071f95 	mcr	15, 0, r1, cr7, cr5, {4}
    a134:	e12fff1e 	bx	lr

0000a138 <cp15_ttbr_ctrl_wr>:
    a138:	e3a01000 	mov	r1, #0
    a13c:	ee020f50 	mcr	15, 0, r0, cr2, cr0, {2}
    a140:	ee071f9a 	mcr	15, 0, r1, cr7, cr10, {4}
    a144:	ee071fd5 	mcr	15, 0, r1, cr7, cr5, {6}
    a148:	ee071f9a 	mcr	15, 0, r1, cr7, cr10, {4}
    a14c:	ee071f95 	mcr	15, 0, r1, cr7, cr5, {4}
    a150:	e12fff1e 	bx	lr

0000a154 <our_cp15_domain_ctrl_wr>:
    a154:	e3a01000 	mov	r1, #0
    a158:	ee030f10 	mcr	15, 0, r0, cr3, cr0, {0}
    a15c:	ee071f9a 	mcr	15, 0, r1, cr7, cr10, {4}
    a160:	ee071fd5 	mcr	15, 0, r1, cr7, cr5, {6}
    a164:	ee071f9a 	mcr	15, 0, r1, cr7, cr10, {4}
    a168:	ee071f95 	mcr	15, 0, r1, cr7, cr5, {4}
    a16c:	e12fff1e 	bx	lr

0000a170 <cp15_ctrl_reg1_wr>:
    a170:	e3a01000 	mov	r1, #0
    a174:	ee010f10 	mcr	15, 0, r0, cr1, cr0, {0}
    a178:	ee071f9a 	mcr	15, 0, r1, cr7, cr10, {4}
    a17c:	ee071fd5 	mcr	15, 0, r1, cr7, cr5, {6}
    a180:	ee071f9a 	mcr	15, 0, r1, cr7, cr10, {4}
    a184:	ee071f95 	mcr	15, 0, r1, cr7, cr5, {4}
    a188:	e12fff1e 	bx	lr

0000a18c <our_mmu_sync_pte_mods>:
    a18c:	e3a02000 	mov	r2, #0
    a190:	ee072f1e 	mcr	15, 0, r2, cr7, cr14, {0}
    a194:	ee072f9a 	mcr	15, 0, r2, cr7, cr10, {4}
    a198:	ee082f17 	mcr	15, 0, r2, cr8, cr7, {0}
    a19c:	ee072fd5 	mcr	15, 0, r2, cr7, cr5, {6}
    a1a0:	ee072f9a 	mcr	15, 0, r2, cr7, cr10, {4}
    a1a4:	ee072f95 	mcr	15, 0, r2, cr7, cr5, {4}
    a1a8:	e12fff1e 	bx	lr

0000a1ac <our_cp15_set_procid_ttbr0>:
    a1ac:	e3a02000 	mov	r2, #0
    a1b0:	ee072f9a 	mcr	15, 0, r2, cr7, cr10, {4}
    a1b4:	ee0d2f30 	mcr	15, 0, r2, cr13, cr0, {1}
    a1b8:	ee072f95 	mcr	15, 0, r2, cr7, cr5, {4}
    a1bc:	ee021f10 	mcr	15, 0, r1, cr2, cr0, {0}
    a1c0:	ee022f30 	mcr	15, 0, r2, cr2, cr0, {1}
    a1c4:	ee072f95 	mcr	15, 0, r2, cr7, cr5, {4}
    a1c8:	ee0d0f30 	mcr	15, 0, r0, cr13, cr0, {1}
    a1cc:	ee072f9a 	mcr	15, 0, r2, cr7, cr10, {4}
    a1d0:	e12fff1e 	bx	lr

0000a1d4 <our_mmu_reset>:
    a1d4:	e3a00000 	mov	r0, #0
    a1d8:	e3a00000 	mov	r0, #0
    a1dc:	ee070f16 	mcr	15, 0, r0, cr7, cr6, {0}
    a1e0:	ee070f15 	mcr	15, 0, r0, cr7, cr5, {0}
    a1e4:	ee070f15 	mcr	15, 0, r0, cr7, cr5, {0}
    a1e8:	ee070f15 	mcr	15, 0, r0, cr7, cr5, {0}
    a1ec:	ee070f15 	mcr	15, 0, r0, cr7, cr5, {0}
    a1f0:	e320f000 	nop	{0}
    a1f4:	e320f000 	nop	{0}
    a1f8:	e320f000 	nop	{0}
    a1fc:	e320f000 	nop	{0}
    a200:	e320f000 	nop	{0}
    a204:	e320f000 	nop	{0}
    a208:	e320f000 	nop	{0}
    a20c:	e320f000 	nop	{0}
    a210:	e320f000 	nop	{0}
    a214:	e320f000 	nop	{0}
    a218:	e320f000 	nop	{0}
    a21c:	ee080f17 	mcr	15, 0, r0, cr8, cr7, {0}
    a220:	ee070f9a 	mcr	15, 0, r0, cr7, cr10, {4}
    a224:	ee070f9a 	mcr	15, 0, r0, cr7, cr10, {4}
    a228:	ee070fd5 	mcr	15, 0, r0, cr7, cr5, {6}
    a22c:	ee070f9a 	mcr	15, 0, r0, cr7, cr10, {4}
    a230:	ee070f95 	mcr	15, 0, r0, cr7, cr5, {4}
    a234:	e12fff1e 	bx	lr

0000a238 <our_mmu_enable_set_asm>:
    a238:	e3a01000 	mov	r1, #0
    a23c:	ee071f9a 	mcr	15, 0, r1, cr7, cr10, {4}
    a240:	ee010f10 	mcr	15, 0, r0, cr1, cr0, {0}
    a244:	ee071f9a 	mcr	15, 0, r1, cr7, cr10, {4}
    a248:	ee071fd5 	mcr	15, 0, r1, cr7, cr5, {6}
    a24c:	ee071f9a 	mcr	15, 0, r1, cr7, cr10, {4}
    a250:	ee071f95 	mcr	15, 0, r1, cr7, cr5, {4}
    a254:	e12fff1e 	bx	lr

0000a258 <our_mmu_disable_set_asm>:
    a258:	e3a01000 	mov	r1, #0
    a25c:	ee071f9a 	mcr	15, 0, r1, cr7, cr10, {4}
    a260:	ee071f1e 	mcr	15, 0, r1, cr7, cr14, {0}
    a264:	ee071f9a 	mcr	15, 0, r1, cr7, cr10, {4}
    a268:	ee071f95 	mcr	15, 0, r1, cr7, cr5, {4}
    a26c:	ee112f10 	mrc	15, 0, r2, cr1, cr0, {0}
    a270:	e3c22004 	bic	r2, r2, #4
    a274:	ee012f10 	mcr	15, 0, r2, cr1, cr0, {0}
    a278:	ee071f9a 	mcr	15, 0, r1, cr7, cr10, {4}
    a27c:	ee071f95 	mcr	15, 0, r1, cr7, cr5, {4}
    a280:	ee010f10 	mcr	15, 0, r0, cr1, cr0, {0}
    a284:	ee071f9a 	mcr	15, 0, r1, cr7, cr10, {4}
    a288:	ee071f95 	mcr	15, 0, r1, cr7, cr5, {4}
    a28c:	ee071f15 	mcr	15, 0, r1, cr7, cr5, {0}
    a290:	ee071f15 	mcr	15, 0, r1, cr7, cr5, {0}
    a294:	ee071f15 	mcr	15, 0, r1, cr7, cr5, {0}
    a298:	ee071f15 	mcr	15, 0, r1, cr7, cr5, {0}
    a29c:	e320f000 	nop	{0}
    a2a0:	e320f000 	nop	{0}
    a2a4:	e320f000 	nop	{0}
    a2a8:	e320f000 	nop	{0}
    a2ac:	e320f000 	nop	{0}
    a2b0:	e320f000 	nop	{0}
    a2b4:	e320f000 	nop	{0}
    a2b8:	e320f000 	nop	{0}
    a2bc:	e320f000 	nop	{0}
    a2c0:	e320f000 	nop	{0}
    a2c4:	e320f000 	nop	{0}
    a2c8:	ee071f9a 	mcr	15, 0, r1, cr7, cr10, {4}
    a2cc:	ee071fd5 	mcr	15, 0, r1, cr7, cr5, {6}
    a2d0:	ee071f9a 	mcr	15, 0, r1, cr7, cr10, {4}
    a2d4:	ee071f95 	mcr	15, 0, r1, cr7, cr5, {4}
    a2d8:	e12fff1e 	bx	lr

0000a2dc <fast_hash>:
    a2dc:	e52d4004 	push	{r4}		; (str r4, [sp, #-4]!)
    a2e0:	e1a02001 	mov	r2, r1
    a2e4:	e1a03000 	mov	r3, r0
    a2e8:	e3500000 	cmp	r0, #0
    a2ec:	13510000 	cmpne	r1, #0
    a2f0:	da000032 	ble	a3c0 <fast_hash+0xe4>
    a2f4:	e2014003 	and	r4, r1, #3
    a2f8:	e1a01141 	asr	r1, r1, #2
    a2fc:	ea00000b 	b	a330 <fast_hash+0x54>
    a300:	e5d3c001 	ldrb	ip, [r3, #1]
    a304:	e5d30000 	ldrb	r0, [r3]
    a308:	e080040c 	add	r0, r0, ip, lsl #8
    a30c:	e0800002 	add	r0, r0, r2
    a310:	e5d3c003 	ldrb	ip, [r3, #3]
    a314:	e5d32002 	ldrb	r2, [r3, #2]
    a318:	e082240c 	add	r2, r2, ip, lsl #8
    a31c:	e0202582 	eor	r2, r0, r2, lsl #11
    a320:	e0222800 	eor	r2, r2, r0, lsl #16
    a324:	e2833004 	add	r3, r3, #4
    a328:	e08225a2 	add	r2, r2, r2, lsr #11
    a32c:	e2411001 	sub	r1, r1, #1
    a330:	e3510000 	cmp	r1, #0
    a334:	cafffff1 	bgt	a300 <fast_hash+0x24>
    a338:	e3540002 	cmp	r4, #2
    a33c:	0a00000d 	beq	a378 <fast_hash+0x9c>
    a340:	e3540003 	cmp	r4, #3
    a344:	0a000002 	beq	a354 <fast_hash+0x78>
    a348:	e3540001 	cmp	r4, #1
    a34c:	1a000014 	bne	a3a4 <fast_hash+0xc8>
    a350:	ea00000f 	b	a394 <fast_hash+0xb8>
    a354:	e5d30001 	ldrb	r0, [r3, #1]
    a358:	e5d31000 	ldrb	r1, [r3]
    a35c:	e0811400 	add	r1, r1, r0, lsl #8
    a360:	e0812002 	add	r2, r1, r2
    a364:	e0222802 	eor	r2, r2, r2, lsl #16
    a368:	e1d330d2 	ldrsb	r3, [r3, #2]
    a36c:	e0222903 	eor	r2, r2, r3, lsl #18
    a370:	e08225a2 	add	r2, r2, r2, lsr #11
    a374:	ea00000a 	b	a3a4 <fast_hash+0xc8>
    a378:	e5d31001 	ldrb	r1, [r3, #1]
    a37c:	e5d33000 	ldrb	r3, [r3]
    a380:	e0833401 	add	r3, r3, r1, lsl #8
    a384:	e0832002 	add	r2, r3, r2
    a388:	e0222582 	eor	r2, r2, r2, lsl #11
    a38c:	e08228a2 	add	r2, r2, r2, lsr #17
    a390:	ea000003 	b	a3a4 <fast_hash+0xc8>
    a394:	e1d330d0 	ldrsb	r3, [r3]
    a398:	e0832002 	add	r2, r3, r2
    a39c:	e0222502 	eor	r2, r2, r2, lsl #10
    a3a0:	e08220a2 	add	r2, r2, r2, lsr #1
    a3a4:	e0220182 	eor	r0, r2, r2, lsl #3
    a3a8:	e08002a0 	add	r0, r0, r0, lsr #5
    a3ac:	e0200200 	eor	r0, r0, r0, lsl #4
    a3b0:	e08008a0 	add	r0, r0, r0, lsr #17
    a3b4:	e0200c80 	eor	r0, r0, r0, lsl #25
    a3b8:	e0800320 	add	r0, r0, r0, lsr #6
    a3bc:	ea000000 	b	a3c4 <fast_hash+0xe8>
    a3c0:	e3a00000 	mov	r0, #0
    a3c4:	e49d4004 	pop	{r4}		; (ldr r4, [sp], #4)
    a3c8:	e12fff1e 	bx	lr

0000a3cc <memset>:
    a3cc:	e0802002 	add	r2, r0, r2
    a3d0:	e1a03000 	mov	r3, r0
    a3d4:	ea000001 	b	a3e0 <memset+0x14>
    a3d8:	e5c31000 	strb	r1, [r3]
    a3dc:	e2833001 	add	r3, r3, #1
    a3e0:	e1530002 	cmp	r3, r2
    a3e4:	3afffffb 	bcc	a3d8 <memset+0xc>
    a3e8:	e12fff1e 	bx	lr

0000a3ec <printk>:
    a3ec:	e92d000f 	push	{r0, r1, r2, r3}
    a3f0:	e92d4030 	push	{r4, r5, lr}
    a3f4:	e24dd00c 	sub	sp, sp, #12
    a3f8:	e28d301c 	add	r3, sp, #28
    a3fc:	e58d3004 	str	r3, [sp, #4]
    a400:	e59f4034 	ldr	r4, [pc, #52]	; a43c <printk+0x50>
    a404:	e1a00004 	mov	r0, r4
    a408:	e3a01b01 	mov	r1, #1024	; 0x400
    a40c:	e59d2018 	ldr	r2, [sp, #24]
    a410:	eb0000d0 	bl	a758 <va_printk>
    a414:	e1a05000 	mov	r5, r0
    a418:	e59f3020 	ldr	r3, [pc, #32]	; a440 <printk+0x54>
    a41c:	e5933000 	ldr	r3, [r3]
    a420:	e1a00004 	mov	r0, r4
    a424:	e12fff33 	blx	r3
    a428:	e1a00005 	mov	r0, r5
    a42c:	e28dd00c 	add	sp, sp, #12
    a430:	e8bd4030 	pop	{r4, r5, lr}
    a434:	e28dd010 	add	sp, sp, #16
    a438:	e12fff1e 	bx	lr
    a43c:	0000c5c4 	andeq	ip, r0, r4, asr #11
    a440:	0000b1fc 	strdeq	fp, [r0], -ip

0000a444 <internal_putchar>:
    a444:	e92d4010 	push	{r4, lr}
    a448:	e1a04000 	mov	r4, r0
    a44c:	eb00029a 	bl	aebc <uart_putc>
    a450:	e1a00004 	mov	r0, r4
    a454:	e8bd8010 	pop	{r4, pc}

0000a458 <rpi_reset_putc>:
    a458:	e59f2008 	ldr	r2, [pc, #8]	; a468 <rpi_reset_putc+0x10>
    a45c:	e59f3008 	ldr	r3, [pc, #8]	; a46c <rpi_reset_putc+0x14>
    a460:	e5832000 	str	r2, [r3]
    a464:	e12fff1e 	bx	lr
    a468:	0000a444 	andeq	sl, r0, r4, asr #8
    a46c:	0000b1f8 	strdeq	fp, [r0], -r8

0000a470 <rpi_set_putc>:
    a470:	e59f3004 	ldr	r3, [pc, #4]	; a47c <rpi_set_putc+0xc>
    a474:	e5830000 	str	r0, [r3]
    a478:	e12fff1e 	bx	lr
    a47c:	0000b1f8 	strdeq	fp, [r0], -r8

0000a480 <internal_putk>:
    a480:	e92d4038 	push	{r3, r4, r5, lr}
    a484:	e1a04000 	mov	r4, r0
    a488:	e59f5020 	ldr	r5, [pc, #32]	; a4b0 <internal_putk+0x30>
    a48c:	ea000002 	b	a49c <internal_putk+0x1c>
    a490:	e5953000 	ldr	r3, [r5]
    a494:	e12fff33 	blx	r3
    a498:	e2844001 	add	r4, r4, #1
    a49c:	e5d40000 	ldrb	r0, [r4]
    a4a0:	e3500000 	cmp	r0, #0
    a4a4:	1afffff9 	bne	a490 <internal_putk+0x10>
    a4a8:	e3a00001 	mov	r0, #1
    a4ac:	e8bd8038 	pop	{r3, r4, r5, pc}
    a4b0:	0000b1f8 	strdeq	fp, [r0], -r8

0000a4b4 <isdigit>:
    a4b4:	e2400030 	sub	r0, r0, #48	; 0x30
    a4b8:	e3500009 	cmp	r0, #9
    a4bc:	83a00000 	movhi	r0, #0
    a4c0:	93a00001 	movls	r0, #1
    a4c4:	e12fff1e 	bx	lr

0000a4c8 <pad>:
    a4c8:	e0611000 	rsb	r1, r1, r0
    a4cc:	e3a03020 	mov	r3, #32
    a4d0:	ea000002 	b	a4e0 <pad+0x18>
    a4d4:	e5c03000 	strb	r3, [r0]
    a4d8:	e2811001 	add	r1, r1, #1
    a4dc:	e2800001 	add	r0, r0, #1
    a4e0:	e1510002 	cmp	r1, r2
    a4e4:	bafffffa 	blt	a4d4 <pad+0xc>
    a4e8:	e3a03000 	mov	r3, #0
    a4ec:	e5c03000 	strb	r3, [r0]
    a4f0:	e12fff1e 	bx	lr

0000a4f4 <reverse>:
    a4f4:	e063c002 	rsb	ip, r3, r2
    a4f8:	e28cc001 	add	ip, ip, #1
    a4fc:	e15c0001 	cmp	ip, r1
    a500:	c061100c 	rsbgt	r1, r1, ip
    a504:	c0833001 	addgt	r3, r3, r1
    a508:	e2422001 	sub	r2, r2, #1
    a50c:	e1a01000 	mov	r1, r0
    a510:	ea000002 	b	a520 <reverse+0x2c>
    a514:	e452c001 	ldrb	ip, [r2], #-1
    a518:	e5c1c000 	strb	ip, [r1]
    a51c:	e2811001 	add	r1, r1, #1
    a520:	e1520003 	cmp	r2, r3
    a524:	2afffffa 	bcs	a514 <reverse+0x20>
    a528:	e3a03000 	mov	r3, #0
    a52c:	e5c13000 	strb	r3, [r1]
    a530:	e12fff1e 	bx	lr

0000a534 <emit>:
    a534:	e92d41f0 	push	{r4, r5, r6, r7, r8, lr}
    a538:	e24dd048 	sub	sp, sp, #72	; 0x48
    a53c:	e1a05001 	mov	r5, r1
    a540:	e1a04002 	mov	r4, r2
    a544:	e59d2060 	ldr	r2, [sp, #96]	; 0x60
    a548:	e1520004 	cmp	r2, r4
    a54c:	c2442001 	subgt	r2, r4, #1
    a550:	e1a0c003 	mov	ip, r3
    a554:	e2400002 	sub	r0, r0, #2
    a558:	e350000e 	cmp	r0, #14
    a55c:	979ff100 	ldrls	pc, [pc, r0, lsl #2]
    a560:	ea000048 	b	a688 <emit+0x154>
    a564:	0000a660 	andeq	sl, r0, r0, ror #12
    a568:	0000a688 	andeq	sl, r0, r8, lsl #13
    a56c:	0000a688 	andeq	sl, r0, r8, lsl #13
    a570:	0000a688 	andeq	sl, r0, r8, lsl #13
    a574:	0000a688 	andeq	sl, r0, r8, lsl #13
    a578:	0000a688 	andeq	sl, r0, r8, lsl #13
    a57c:	0000a654 	andeq	sl, r0, r4, asr r6
    a580:	0000a688 	andeq	sl, r0, r8, lsl #13
    a584:	0000a5a0 	andeq	sl, r0, r0, lsr #11
    a588:	0000a688 	andeq	sl, r0, r8, lsl #13
    a58c:	0000a688 	andeq	sl, r0, r8, lsl #13
    a590:	0000a688 	andeq	sl, r0, r8, lsl #13
    a594:	0000a688 	andeq	sl, r0, r8, lsl #13
    a598:	0000a688 	andeq	sl, r0, r8, lsl #13
    a59c:	0000a614 	andeq	sl, r0, r4, lsl r6
    a5a0:	e59d1064 	ldr	r1, [sp, #100]	; 0x64
    a5a4:	e2911000 	adds	r1, r1, #0
    a5a8:	13a01001 	movne	r1, #1
    a5ac:	e0111fa3 	ands	r1, r1, r3, lsr #31
    a5b0:	1263c000 	rsbne	ip, r3, #0
    a5b4:	13a08001 	movne	r8, #1
    a5b8:	03a08000 	moveq	r8, #0
    a5bc:	e28d1008 	add	r1, sp, #8
    a5c0:	e59f7108 	ldr	r7, [pc, #264]	; a6d0 <emit+0x19c>
    a5c4:	e59f6108 	ldr	r6, [pc, #264]	; a6d4 <emit+0x1a0>
    a5c8:	ea000000 	b	a5d0 <emit+0x9c>
    a5cc:	e1a01000 	mov	r1, r0
    a5d0:	e2810001 	add	r0, r1, #1
    a5d4:	e083ec97 	umull	lr, r3, r7, ip
    a5d8:	e1a031a3 	lsr	r3, r3, #3
    a5dc:	e1a0e003 	mov	lr, r3
    a5e0:	e0833103 	add	r3, r3, r3, lsl #2
    a5e4:	e1a03083 	lsl	r3, r3, #1
    a5e8:	e063300c 	rsb	r3, r3, ip
    a5ec:	e7d63003 	ldrb	r3, [r6, r3]
    a5f0:	e5c13000 	strb	r3, [r1]
    a5f4:	e1a0c00e 	mov	ip, lr
    a5f8:	e35e0000 	cmp	lr, #0
    a5fc:	1afffff2 	bne	a5cc <emit+0x98>
    a600:	e3580000 	cmp	r8, #0
    a604:	12810002 	addne	r0, r1, #2
    a608:	13a0302d 	movne	r3, #45	; 0x2d
    a60c:	15c13001 	strbne	r3, [r1, #1]
    a610:	ea000025 	b	a6ac <emit+0x178>
    a614:	e28d3008 	add	r3, sp, #8
    a618:	e59fe0b8 	ldr	lr, [pc, #184]	; a6d8 <emit+0x1a4>
    a61c:	ea000000 	b	a624 <emit+0xf0>
    a620:	e1a03000 	mov	r3, r0
    a624:	e2830001 	add	r0, r3, #1
    a628:	e20c100f 	and	r1, ip, #15
    a62c:	e7de1001 	ldrb	r1, [lr, r1]
    a630:	e5c31000 	strb	r1, [r3]
    a634:	e1b0c22c 	lsrs	ip, ip, #4
    a638:	1afffff8 	bne	a620 <emit+0xec>
    a63c:	e3a01078 	mov	r1, #120	; 0x78
    a640:	e5c31001 	strb	r1, [r3, #1]
    a644:	e2830003 	add	r0, r3, #3
    a648:	e3a01030 	mov	r1, #48	; 0x30
    a64c:	e5c31002 	strb	r1, [r3, #2]
    a650:	ea000015 	b	a6ac <emit+0x178>
    a654:	e5cd3008 	strb	r3, [sp, #8]
    a658:	e28d0009 	add	r0, sp, #9
    a65c:	ea000012 	b	a6ac <emit+0x178>
    a660:	e28d3008 	add	r3, sp, #8
    a664:	e59fe070 	ldr	lr, [pc, #112]	; a6dc <emit+0x1a8>
    a668:	e2830001 	add	r0, r3, #1
    a66c:	e20c1001 	and	r1, ip, #1
    a670:	e7de1001 	ldrb	r1, [lr, r1]
    a674:	e5c31000 	strb	r1, [r3]
    a678:	e1a03000 	mov	r3, r0
    a67c:	e1b0c0ac 	lsrs	ip, ip, #1
    a680:	1afffff8 	bne	a668 <emit+0x134>
    a684:	ea000008 	b	a6ac <emit+0x178>
    a688:	ebffff72 	bl	a458 <rpi_reset_putc>
    a68c:	e59f304c 	ldr	r3, [pc, #76]	; a6e0 <emit+0x1ac>
    a690:	e58d3000 	str	r3, [sp]
    a694:	e59f0048 	ldr	r0, [pc, #72]	; a6e4 <emit+0x1b0>
    a698:	e59f1048 	ldr	r1, [pc, #72]	; a6e8 <emit+0x1b4>
    a69c:	e59f2048 	ldr	r2, [pc, #72]	; a6ec <emit+0x1b8>
    a6a0:	e3a03077 	mov	r3, #119	; 0x77
    a6a4:	ebffff50 	bl	a3ec <printk>
    a6a8:	eb0000df 	bl	aa2c <clean_reboot>
    a6ac:	e28d1008 	add	r1, sp, #8
    a6b0:	ebffff84 	bl	a4c8 <pad>
    a6b4:	e1a02000 	mov	r2, r0
    a6b8:	e1a00005 	mov	r0, r5
    a6bc:	e1a01004 	mov	r1, r4
    a6c0:	e28d3008 	add	r3, sp, #8
    a6c4:	ebffff8a 	bl	a4f4 <reverse>
    a6c8:	e28dd048 	add	sp, sp, #72	; 0x48
    a6cc:	e8bd81f0 	pop	{r4, r5, r6, r7, r8, pc}
    a6d0:	cccccccd 	stclgt	12, cr12, [ip], {205}	; 0xcd
    a6d4:	0000c280 	andeq	ip, r0, r0, lsl #5
    a6d8:	0000c28c 	andeq	ip, r0, ip, lsl #5
    a6dc:	0000c2a0 	andeq	ip, r0, r0, lsr #5
    a6e0:	0000ba20 	andeq	fp, r0, r0, lsr #20
    a6e4:	0000b208 	andeq	fp, r0, r8, lsl #4
    a6e8:	0000c26c 	andeq	ip, r0, ip, ror #4
    a6ec:	0000c248 	andeq	ip, r0, r8, asr #4

0000a6f0 <rpi_set_output>:
    a6f0:	e52de004 	push	{lr}		; (str lr, [sp, #-4]!)
    a6f4:	e24dd00c 	sub	sp, sp, #12
    a6f8:	e3500000 	cmp	r0, #0
    a6fc:	1a000008 	bne	a724 <rpi_set_output+0x34>
    a700:	ebffff54 	bl	a458 <rpi_reset_putc>
    a704:	e59f3034 	ldr	r3, [pc, #52]	; a740 <rpi_set_output+0x50>
    a708:	e58d3000 	str	r3, [sp]
    a70c:	e59f0030 	ldr	r0, [pc, #48]	; a744 <rpi_set_output+0x54>
    a710:	e59f1030 	ldr	r1, [pc, #48]	; a748 <rpi_set_output+0x58>
    a714:	e59f2030 	ldr	r2, [pc, #48]	; a74c <rpi_set_output+0x5c>
    a718:	e3a03020 	mov	r3, #32
    a71c:	ebffff32 	bl	a3ec <printk>
    a720:	eb0000c1 	bl	aa2c <clean_reboot>
    a724:	e59f3024 	ldr	r3, [pc, #36]	; a750 <rpi_set_output+0x60>
    a728:	e5830000 	str	r0, [r3]
    a72c:	e3510000 	cmp	r1, #0
    a730:	159f301c 	ldrne	r3, [pc, #28]	; a754 <rpi_set_output+0x64>
    a734:	15831000 	strne	r1, [r3]
    a738:	e28dd00c 	add	sp, sp, #12
    a73c:	e49df004 	pop	{pc}		; (ldr pc, [sp], #4)
    a740:	0000c2a4 	andeq	ip, r0, r4, lsr #5
    a744:	0000b208 	andeq	fp, r0, r8, lsl #4
    a748:	0000c26c 	andeq	ip, r0, ip, ror #4
    a74c:	0000c250 	andeq	ip, r0, r0, asr r2
    a750:	0000b1f8 	strdeq	fp, [r0], -r8
    a754:	0000b1fc 	strdeq	fp, [r0], -ip

0000a758 <va_printk>:
    a758:	e92d4ff0 	push	{r4, r5, r6, r7, r8, r9, sl, fp, lr}
    a75c:	e24dd094 	sub	sp, sp, #148	; 0x94
    a760:	e1a0b000 	mov	fp, r0
    a764:	e58d200c 	str	r2, [sp, #12]
    a768:	e1a0a003 	mov	sl, r3
    a76c:	e2411001 	sub	r1, r1, #1
    a770:	e0808001 	add	r8, r0, r1
    a774:	e3a03000 	mov	r3, #0
    a778:	e5c03000 	strb	r3, [r0]
    a77c:	e1a04000 	mov	r4, r0
    a780:	e1a06002 	mov	r6, r2
    a784:	ea000095 	b	a9e0 <va_printk+0x288>
    a788:	e3530025 	cmp	r3, #37	; 0x25
    a78c:	12866001 	addne	r6, r6, #1
    a790:	15c43000 	strbne	r3, [r4]
    a794:	12844001 	addne	r4, r4, #1
    a798:	1a000090 	bne	a9e0 <va_printk+0x288>
    a79c:	e5d62001 	ldrb	r2, [r6, #1]
    a7a0:	e3520025 	cmp	r2, #37	; 0x25
    a7a4:	05c43000 	strbeq	r3, [r4]
    a7a8:	02866002 	addeq	r6, r6, #2
    a7ac:	02844001 	addeq	r4, r4, #1
    a7b0:	0a00008a 	beq	a9e0 <va_printk+0x288>
    a7b4:	e2866001 	add	r6, r6, #1
    a7b8:	e3a07000 	mov	r7, #0
    a7bc:	ea000004 	b	a7d4 <va_printk+0x7c>
    a7c0:	e0877107 	add	r7, r7, r7, lsl #2
    a7c4:	e1a07087 	lsl	r7, r7, #1
    a7c8:	e0877005 	add	r7, r7, r5
    a7cc:	e2477030 	sub	r7, r7, #48	; 0x30
    a7d0:	e2866001 	add	r6, r6, #1
    a7d4:	e5d65000 	ldrb	r5, [r6]
    a7d8:	e1a09005 	mov	r9, r5
    a7dc:	e1a00005 	mov	r0, r5
    a7e0:	ebffff33 	bl	a4b4 <isdigit>
    a7e4:	e3500000 	cmp	r0, #0
    a7e8:	1afffff4 	bne	a7c0 <va_printk+0x68>
    a7ec:	e357001f 	cmp	r7, #31
    a7f0:	9a000008 	bls	a818 <va_printk+0xc0>
    a7f4:	ebffff17 	bl	a458 <rpi_reset_putc>
    a7f8:	e59f320c 	ldr	r3, [pc, #524]	; aa0c <va_printk+0x2b4>
    a7fc:	e58d3000 	str	r3, [sp]
    a800:	e59f0208 	ldr	r0, [pc, #520]	; aa10 <va_printk+0x2b8>
    a804:	e59f1208 	ldr	r1, [pc, #520]	; aa14 <va_printk+0x2bc>
    a808:	e59f2208 	ldr	r2, [pc, #520]	; aa18 <va_printk+0x2c0>
    a80c:	e3a03095 	mov	r3, #149	; 0x95
    a810:	ebfffef5 	bl	a3ec <printk>
    a814:	eb000084 	bl	aa2c <clean_reboot>
    a818:	e2455062 	sub	r5, r5, #98	; 0x62
    a81c:	e3550016 	cmp	r5, #22
    a820:	979ff105 	ldrls	pc, [pc, r5, lsl #2]
    a824:	ea000052 	b	a974 <va_printk+0x21c>
    a828:	0000a918 	andeq	sl, r0, r8, lsl r9
    a82c:	0000a94c 	andeq	sl, r0, ip, asr #18
    a830:	0000a8a0 	andeq	sl, r0, r0, lsr #17
    a834:	0000a974 	andeq	sl, r0, r4, ror r9
    a838:	0000a884 	andeq	sl, r0, r4, lsl #17
    a83c:	0000a974 	andeq	sl, r0, r4, ror r9
    a840:	0000a974 	andeq	sl, r0, r4, ror r9
    a844:	0000a974 	andeq	sl, r0, r4, ror r9
    a848:	0000a974 	andeq	sl, r0, r4, ror r9
    a84c:	0000a974 	andeq	sl, r0, r4, ror r9
    a850:	0000a974 	andeq	sl, r0, r4, ror r9
    a854:	0000a974 	andeq	sl, r0, r4, ror r9
    a858:	0000a974 	andeq	sl, r0, r4, ror r9
    a85c:	0000a974 	andeq	sl, r0, r4, ror r9
    a860:	0000a8f0 	strdeq	sl, [r0], -r0
    a864:	0000a974 	andeq	sl, r0, r4, ror r9
    a868:	0000a974 	andeq	sl, r0, r4, ror r9
    a86c:	0000a940 	andeq	sl, r0, r0, asr #18
    a870:	0000a974 	andeq	sl, r0, r4, ror r9
    a874:	0000a8c8 	andeq	sl, r0, r8, asr #17
    a878:	0000a974 	andeq	sl, r0, r4, ror r9
    a87c:	0000a974 	andeq	sl, r0, r4, ror r9
    a880:	0000a8f0 	strdeq	sl, [r0], -r0
    a884:	ebfffef3 	bl	a458 <rpi_reset_putc>
    a888:	e59f018c 	ldr	r0, [pc, #396]	; aa1c <va_printk+0x2c4>
    a88c:	e59f1180 	ldr	r1, [pc, #384]	; aa14 <va_printk+0x2bc>
    a890:	e59f2180 	ldr	r2, [pc, #384]	; aa18 <va_printk+0x2c0>
    a894:	e3a0309b 	mov	r3, #155	; 0x9b
    a898:	ebfffed3 	bl	a3ec <printk>
    a89c:	eb000062 	bl	aa2c <clean_reboot>
    a8a0:	e59a3000 	ldr	r3, [sl]
    a8a4:	e28aa004 	add	sl, sl, #4
    a8a8:	e58d7000 	str	r7, [sp]
    a8ac:	e3a02001 	mov	r2, #1
    a8b0:	e58d2004 	str	r2, [sp, #4]
    a8b4:	e3a0000a 	mov	r0, #10
    a8b8:	e28d1010 	add	r1, sp, #16
    a8bc:	e3a02080 	mov	r2, #128	; 0x80
    a8c0:	ebffff1b 	bl	a534 <emit>
    a8c4:	ea00003b 	b	a9b8 <va_printk+0x260>
    a8c8:	e59a3000 	ldr	r3, [sl]
    a8cc:	e28aa004 	add	sl, sl, #4
    a8d0:	e58d7000 	str	r7, [sp]
    a8d4:	e3a02000 	mov	r2, #0
    a8d8:	e58d2004 	str	r2, [sp, #4]
    a8dc:	e3a0000a 	mov	r0, #10
    a8e0:	e28d1010 	add	r1, sp, #16
    a8e4:	e3a02080 	mov	r2, #128	; 0x80
    a8e8:	ebffff11 	bl	a534 <emit>
    a8ec:	ea000031 	b	a9b8 <va_printk+0x260>
    a8f0:	e59a3000 	ldr	r3, [sl]
    a8f4:	e28aa004 	add	sl, sl, #4
    a8f8:	e58d7000 	str	r7, [sp]
    a8fc:	e3a02000 	mov	r2, #0
    a900:	e58d2004 	str	r2, [sp, #4]
    a904:	e3a00010 	mov	r0, #16
    a908:	e08d1000 	add	r1, sp, r0
    a90c:	e3a02080 	mov	r2, #128	; 0x80
    a910:	ebffff07 	bl	a534 <emit>
    a914:	ea000027 	b	a9b8 <va_printk+0x260>
    a918:	e59a3000 	ldr	r3, [sl]
    a91c:	e28aa004 	add	sl, sl, #4
    a920:	e58d7000 	str	r7, [sp]
    a924:	e3a02000 	mov	r2, #0
    a928:	e58d2004 	str	r2, [sp, #4]
    a92c:	e3a00002 	mov	r0, #2
    a930:	e28d1010 	add	r1, sp, #16
    a934:	e3a02080 	mov	r2, #128	; 0x80
    a938:	ebfffefd 	bl	a534 <emit>
    a93c:	ea00001d 	b	a9b8 <va_printk+0x260>
    a940:	e59a0000 	ldr	r0, [sl]
    a944:	e28aa004 	add	sl, sl, #4
    a948:	ea00001a 	b	a9b8 <va_printk+0x260>
    a94c:	e59a3000 	ldr	r3, [sl]
    a950:	e28aa004 	add	sl, sl, #4
    a954:	e58d7000 	str	r7, [sp]
    a958:	e3a02000 	mov	r2, #0
    a95c:	e58d2004 	str	r2, [sp, #4]
    a960:	e3a00008 	mov	r0, #8
    a964:	e28d1010 	add	r1, sp, #16
    a968:	e3a02080 	mov	r2, #128	; 0x80
    a96c:	ebfffef0 	bl	a534 <emit>
    a970:	ea000010 	b	a9b8 <va_printk+0x260>
    a974:	e3a03000 	mov	r3, #0
    a978:	e5c63001 	strb	r3, [r6, #1]
    a97c:	e59f009c 	ldr	r0, [pc, #156]	; aa20 <va_printk+0x2c8>
    a980:	e1a01009 	mov	r1, r9
    a984:	e1a02009 	mov	r2, r9
    a988:	ebfffe97 	bl	a3ec <printk>
    a98c:	e59f3090 	ldr	r3, [pc, #144]	; aa24 <va_printk+0x2cc>
    a990:	e5933000 	ldr	r3, [r3]
    a994:	e59d000c 	ldr	r0, [sp, #12]
    a998:	e12fff33 	blx	r3
    a99c:	ebfffead 	bl	a458 <rpi_reset_putc>
    a9a0:	e59f0080 	ldr	r0, [pc, #128]	; aa28 <va_printk+0x2d0>
    a9a4:	e59f1068 	ldr	r1, [pc, #104]	; aa14 <va_printk+0x2bc>
    a9a8:	e59f2068 	ldr	r2, [pc, #104]	; aa18 <va_printk+0x2c0>
    a9ac:	e3a030bf 	mov	r3, #191	; 0xbf
    a9b0:	ebfffe8d 	bl	a3ec <printk>
    a9b4:	eb00001c 	bl	aa2c <clean_reboot>
    a9b8:	e2866001 	add	r6, r6, #1
    a9bc:	ea000002 	b	a9cc <va_printk+0x274>
    a9c0:	e2800001 	add	r0, r0, #1
    a9c4:	e5c43000 	strb	r3, [r4]
    a9c8:	e2844001 	add	r4, r4, #1
    a9cc:	e1540008 	cmp	r4, r8
    a9d0:	2a000002 	bcs	a9e0 <va_printk+0x288>
    a9d4:	e5d03000 	ldrb	r3, [r0]
    a9d8:	e3530000 	cmp	r3, #0
    a9dc:	1afffff7 	bne	a9c0 <va_printk+0x268>
    a9e0:	e5d63000 	ldrb	r3, [r6]
    a9e4:	e3530000 	cmp	r3, #0
    a9e8:	0a000001 	beq	a9f4 <va_printk+0x29c>
    a9ec:	e1540008 	cmp	r4, r8
    a9f0:	3affff64 	bcc	a788 <va_printk+0x30>
    a9f4:	e2840001 	add	r0, r4, #1
    a9f8:	e3a03000 	mov	r3, #0
    a9fc:	e5c43000 	strb	r3, [r4]
    aa00:	e06b0000 	rsb	r0, fp, r0
    aa04:	e28dd094 	add	sp, sp, #148	; 0x94
    aa08:	e8bd8ff0 	pop	{r4, r5, r6, r7, r8, r9, sl, fp, pc}
    aa0c:	0000c2ac 	andeq	ip, r0, ip, lsr #5
    aa10:	0000b208 	andeq	fp, r0, r8, lsl #4
    aa14:	0000c26c 	andeq	ip, r0, ip, ror #4
    aa18:	0000c260 	andeq	ip, r0, r0, ror #4
    aa1c:	0000c2b8 			; <UNDEFINED> instruction: 0x0000c2b8
    aa20:	0000c2e0 	andeq	ip, r0, r0, ror #5
    aa24:	0000b1fc 	strdeq	fp, [r0], -ip
    aa28:	0000c310 	andeq	ip, r0, r0, lsl r3

0000aa2c <clean_reboot>:
    aa2c:	e92d4008 	push	{r3, lr}
    aa30:	eb00005b 	bl	aba4 <reboot_handler>
    aa34:	e59f3014 	ldr	r3, [pc, #20]	; aa50 <clean_reboot+0x24>
    aa38:	e5933000 	ldr	r3, [r3]
    aa3c:	e59f0010 	ldr	r0, [pc, #16]	; aa54 <clean_reboot+0x28>
    aa40:	e12fff33 	blx	r3
    aa44:	e3a00064 	mov	r0, #100	; 0x64
    aa48:	eb0000aa 	bl	acf8 <delay_ms>
    aa4c:	eb00007b 	bl	ac40 <rpi_reboot>
    aa50:	0000b1fc 	strdeq	fp, [r0], -ip
    aa54:	0000c330 	andeq	ip, r0, r0, lsr r3

0000aa58 <_cstart>:
    aa58:	e92d4008 	push	{r3, lr}
    aa5c:	e59f3024 	ldr	r3, [pc, #36]	; aa88 <_cstart+0x30>
    aa60:	e59f2024 	ldr	r2, [pc, #36]	; aa8c <_cstart+0x34>
    aa64:	e3a01000 	mov	r1, #0
    aa68:	ea000001 	b	aa74 <_cstart+0x1c>
    aa6c:	e5831000 	str	r1, [r3]
    aa70:	e2833004 	add	r3, r3, #4
    aa74:	e1530002 	cmp	r3, r2
    aa78:	3afffffb 	bcc	aa6c <_cstart+0x14>
    aa7c:	eb000047 	bl	aba0 <cstart_handler>
    aa80:	ebfff566 	bl	8020 <notmain>
    aa84:	ebffffe8 	bl	aa2c <clean_reboot>
    aa88:	0000c5a8 	andeq	ip, r0, r8, lsr #11
    aa8c:	0000c9c8 	andeq	ip, r0, r8, asr #19

0000aa90 <fast_interrupt_vector>:
    aa90:	e52de004 	push	{lr}		; (str lr, [sp, #-4]!)
    aa94:	e24dd00c 	sub	sp, sp, #12
    aa98:	e1a04000 	mov	r4, r0
    aa9c:	ebfffe6d 	bl	a458 <rpi_reset_putc>
    aaa0:	e59f301c 	ldr	r3, [pc, #28]	; aac4 <fast_interrupt_vector+0x34>
    aaa4:	e58d3000 	str	r3, [sp]
    aaa8:	e58d4004 	str	r4, [sp, #4]
    aaac:	e59f0014 	ldr	r0, [pc, #20]	; aac8 <fast_interrupt_vector+0x38>
    aab0:	e59f1014 	ldr	r1, [pc, #20]	; aacc <fast_interrupt_vector+0x3c>
    aab4:	e59f2014 	ldr	r2, [pc, #20]	; aad0 <fast_interrupt_vector+0x40>
    aab8:	e3a03002 	mov	r3, #2
    aabc:	ebfffe4a 	bl	a3ec <printk>
    aac0:	ebffffd9 	bl	aa2c <clean_reboot>
    aac4:	0000c3b4 			; <UNDEFINED> instruction: 0x0000c3b4
    aac8:	0000c354 	andeq	ip, r0, r4, asr r3
    aacc:	0000c390 	muleq	r0, r0, r3
    aad0:	0000c33c 	andeq	ip, r0, ip, lsr r3

0000aad4 <prefetch_abort_vector>:
    aad4:	e52de004 	push	{lr}		; (str lr, [sp, #-4]!)
    aad8:	e24dd00c 	sub	sp, sp, #12
    aadc:	e1a04000 	mov	r4, r0
    aae0:	ebfffe5c 	bl	a458 <rpi_reset_putc>
    aae4:	e59f301c 	ldr	r3, [pc, #28]	; ab08 <prefetch_abort_vector+0x34>
    aae8:	e58d3000 	str	r3, [sp]
    aaec:	e58d4004 	str	r4, [sp, #4]
    aaf0:	e59f0014 	ldr	r0, [pc, #20]	; ab0c <prefetch_abort_vector+0x38>
    aaf4:	e59f1014 	ldr	r1, [pc, #20]	; ab10 <prefetch_abort_vector+0x3c>
    aaf8:	e59f2014 	ldr	r2, [pc, #20]	; ab14 <prefetch_abort_vector+0x40>
    aafc:	e3a03002 	mov	r3, #2
    ab00:	ebfffe39 	bl	a3ec <printk>
    ab04:	ebffffc8 	bl	aa2c <clean_reboot>
    ab08:	0000c3fc 	strdeq	ip, [r0], -ip	; <UNPREDICTABLE>
    ab0c:	0000c354 	andeq	ip, r0, r4, asr r3
    ab10:	0000c3d4 	ldrdeq	ip, [r0], -r4
    ab14:	0000c3bc 			; <UNDEFINED> instruction: 0x0000c3bc

0000ab18 <reset_vector>:
    ab18:	e52de004 	push	{lr}		; (str lr, [sp, #-4]!)
    ab1c:	e24dd00c 	sub	sp, sp, #12
    ab20:	e1a04000 	mov	r4, r0
    ab24:	ebfffe4b 	bl	a458 <rpi_reset_putc>
    ab28:	e59f301c 	ldr	r3, [pc, #28]	; ab4c <reset_vector+0x34>
    ab2c:	e58d3000 	str	r3, [sp]
    ab30:	e58d4004 	str	r4, [sp, #4]
    ab34:	e59f0014 	ldr	r0, [pc, #20]	; ab50 <reset_vector+0x38>
    ab38:	e59f1014 	ldr	r1, [pc, #20]	; ab54 <reset_vector+0x3c>
    ab3c:	e59f2014 	ldr	r2, [pc, #20]	; ab58 <reset_vector+0x40>
    ab40:	e3a03002 	mov	r3, #2
    ab44:	ebfffe28 	bl	a3ec <printk>
    ab48:	ebffffb7 	bl	aa2c <clean_reboot>
    ab4c:	0000c440 	andeq	ip, r0, r0, asr #8
    ab50:	0000c354 	andeq	ip, r0, r4, asr r3
    ab54:	0000c41c 	andeq	ip, r0, ip, lsl r4
    ab58:	0000c40c 	andeq	ip, r0, ip, lsl #8

0000ab5c <undefined_instruction_vector>:
    ab5c:	e52de004 	push	{lr}		; (str lr, [sp, #-4]!)
    ab60:	e24dd00c 	sub	sp, sp, #12
    ab64:	e1a04000 	mov	r4, r0
    ab68:	ebfffe3a 	bl	a458 <rpi_reset_putc>
    ab6c:	e59f301c 	ldr	r3, [pc, #28]	; ab90 <undefined_instruction_vector+0x34>
    ab70:	e58d3000 	str	r3, [sp]
    ab74:	e58d4004 	str	r4, [sp, #4]
    ab78:	e59f0014 	ldr	r0, [pc, #20]	; ab94 <undefined_instruction_vector+0x38>
    ab7c:	e59f1014 	ldr	r1, [pc, #20]	; ab98 <undefined_instruction_vector+0x3c>
    ab80:	e59f2014 	ldr	r2, [pc, #20]	; ab9c <undefined_instruction_vector+0x40>
    ab84:	e3a03002 	mov	r3, #2
    ab88:	ebfffe17 	bl	a3ec <printk>
    ab8c:	ebffffa6 	bl	aa2c <clean_reboot>
    ab90:	0000c494 	muleq	r0, r4, r4
    ab94:	0000c354 	andeq	ip, r0, r4, asr r3
    ab98:	0000c468 	andeq	ip, r0, r8, ror #8
    ab9c:	0000c448 	andeq	ip, r0, r8, asr #8

0000aba0 <cstart_handler>:
    aba0:	e12fff1e 	bx	lr

0000aba4 <reboot_handler>:
    aba4:	e12fff1e 	bx	lr

0000aba8 <int_init>:
    aba8:	e92d4008 	push	{r3, lr}
    abac:	eb00005b 	bl	ad20 <dev_barrier>
    abb0:	e59f004c 	ldr	r0, [pc, #76]	; ac04 <int_init+0x5c>
    abb4:	e3e01000 	mvn	r1, #0
    abb8:	eb000060 	bl	ad40 <PUT32>
    abbc:	e59f0044 	ldr	r0, [pc, #68]	; ac08 <int_init+0x60>
    abc0:	e3e01000 	mvn	r1, #0
    abc4:	eb00005d 	bl	ad40 <PUT32>
    abc8:	eb000054 	bl	ad20 <dev_barrier>
    abcc:	e59f3038 	ldr	r3, [pc, #56]	; ac0c <int_init+0x64>
    abd0:	e59f0038 	ldr	r0, [pc, #56]	; ac10 <int_init+0x68>
    abd4:	e0630000 	rsb	r0, r3, r0
    abd8:	e1a00140 	asr	r0, r0, #2
    abdc:	e3a03000 	mov	r3, #0
    abe0:	e59fc024 	ldr	ip, [pc, #36]	; ac0c <int_init+0x64>
    abe4:	ea000003 	b	abf8 <int_init+0x50>
    abe8:	e1a02103 	lsl	r2, r3, #2
    abec:	e79c1103 	ldr	r1, [ip, r3, lsl #2]
    abf0:	e5821000 	str	r1, [r2]
    abf4:	e2833001 	add	r3, r3, #1
    abf8:	e1530000 	cmp	r3, r0
    abfc:	3afffff9 	bcc	abe8 <int_init+0x40>
    ac00:	e8bd8008 	pop	{r3, pc}
    ac04:	2000b21c 	andcs	fp, r0, ip, lsl r2
    ac08:	2000b220 	andcs	fp, r0, r0, lsr #4
    ac0c:	000081d4 	ldrdeq	r8, [r0], -r4
    ac10:	00008214 	andeq	r8, r0, r4, lsl r2

0000ac14 <at_user_level>:
    ac14:	e10f0000 	mrs	r0, CPSR
    ac18:	e200001f 	and	r0, r0, #31
    ac1c:	e3500010 	cmp	r0, #16
    ac20:	13a00000 	movne	r0, #0
    ac24:	03a00001 	moveq	r0, #1
    ac28:	e12fff1e 	bx	lr

0000ac2c <set_user_level>:
    ac2c:	e10f3000 	mrs	r3, CPSR
    ac30:	e3c3301f 	bic	r3, r3, #31
    ac34:	e3833010 	orr	r3, r3, #16
    ac38:	e129f003 	msr	CPSR_fc, r3
    ac3c:	e12fff1e 	bx	lr

0000ac40 <rpi_reboot>:
    ac40:	e92d4008 	push	{r3, lr}
    ac44:	ebfffff2 	bl	ac14 <at_user_level>
    ac48:	e3500000 	cmp	r0, #0
    ac4c:	0a000000 	beq	ac54 <rpi_reboot+0x14>
    ac50:	ebfffff5 	bl	ac2c <set_user_level>
    ac54:	e3a0001e 	mov	r0, #30
    ac58:	eb000026 	bl	acf8 <delay_ms>
    ac5c:	e59f0014 	ldr	r0, [pc, #20]	; ac78 <rpi_reboot+0x38>
    ac60:	e59f1014 	ldr	r1, [pc, #20]	; ac7c <rpi_reboot+0x3c>
    ac64:	eb000035 	bl	ad40 <PUT32>
    ac68:	e59f0010 	ldr	r0, [pc, #16]	; ac80 <rpi_reboot+0x40>
    ac6c:	e59f1010 	ldr	r1, [pc, #16]	; ac84 <rpi_reboot+0x44>
    ac70:	eb000032 	bl	ad40 <PUT32>
    ac74:	eafffffe 	b	ac74 <rpi_reboot+0x34>
    ac78:	20100024 	andscs	r0, r0, r4, lsr #32
    ac7c:	5a000001 	bpl	ac88 <delay_cycles>
    ac80:	2010001c 	andscs	r0, r0, ip, lsl r0
    ac84:	5a000020 	bpl	ad0c <delay_sec>

0000ac88 <delay_cycles>:
    ac88:	ea000001 	b	ac94 <delay_cycles+0xc>
    ac8c:	e2811000 	add	r1, r1, #0
    ac90:	e1a00003 	mov	r0, r3
    ac94:	e2403001 	sub	r3, r0, #1
    ac98:	e3500000 	cmp	r0, #0
    ac9c:	1afffffa 	bne	ac8c <delay_cycles+0x4>
    aca0:	e12fff1e 	bx	lr

0000aca4 <timer_get_usec_raw>:
    aca4:	e92d4008 	push	{r3, lr}
    aca8:	e59f0004 	ldr	r0, [pc, #4]	; acb4 <timer_get_usec_raw+0x10>
    acac:	eb00002f 	bl	ad70 <GET32>
    acb0:	e8bd8008 	pop	{r3, pc}
    acb4:	20003004 	andcs	r3, r0, r4

0000acb8 <timer_get_usec>:
    acb8:	e92d4010 	push	{r4, lr}
    acbc:	eb000017 	bl	ad20 <dev_barrier>
    acc0:	ebfffff7 	bl	aca4 <timer_get_usec_raw>
    acc4:	e1a04000 	mov	r4, r0
    acc8:	eb000014 	bl	ad20 <dev_barrier>
    accc:	e1a00004 	mov	r0, r4
    acd0:	e8bd8010 	pop	{r4, pc}

0000acd4 <delay_us>:
    acd4:	e92d4038 	push	{r3, r4, r5, lr}
    acd8:	e1a05000 	mov	r5, r0
    acdc:	ebfffff5 	bl	acb8 <timer_get_usec>
    ace0:	e1a04000 	mov	r4, r0
    ace4:	ebfffff3 	bl	acb8 <timer_get_usec>
    ace8:	e0640000 	rsb	r0, r4, r0
    acec:	e1500005 	cmp	r0, r5
    acf0:	3afffffb 	bcc	ace4 <delay_us+0x10>
    acf4:	e8bd8038 	pop	{r3, r4, r5, pc}

0000acf8 <delay_ms>:
    acf8:	e92d4008 	push	{r3, lr}
    acfc:	e3a03ffa 	mov	r3, #1000	; 0x3e8
    ad00:	e0000093 	mul	r0, r3, r0
    ad04:	ebfffff2 	bl	acd4 <delay_us>
    ad08:	e8bd8008 	pop	{r3, pc}

0000ad0c <delay_sec>:
    ad0c:	e92d4008 	push	{r3, lr}
    ad10:	e3a03ffa 	mov	r3, #1000	; 0x3e8
    ad14:	e0000093 	mul	r0, r3, r0
    ad18:	ebfffff6 	bl	acf8 <delay_ms>
    ad1c:	e8bd8008 	pop	{r3, pc}

0000ad20 <dev_barrier>:
    ad20:	ea000002 	b	ad30 <dsb>

0000ad24 <dmb>:
    ad24:	e3a00000 	mov	r0, #0
    ad28:	ee070fba 	mcr	15, 0, r0, cr7, cr10, {5}
    ad2c:	e12fff1e 	bx	lr

0000ad30 <dsb>:
    ad30:	ee070f9a 	mcr	15, 0, r0, cr7, cr10, {4}
    ad34:	e12fff1e 	bx	lr

0000ad38 <put32>:
    ad38:	e5801000 	str	r1, [r0]
    ad3c:	e12fff1e 	bx	lr

0000ad40 <PUT32>:
    ad40:	e5801000 	str	r1, [r0]
    ad44:	e12fff1e 	bx	lr

0000ad48 <put16>:
    ad48:	e1c010b0 	strh	r1, [r0]
    ad4c:	e12fff1e 	bx	lr

0000ad50 <PUT16>:
    ad50:	e1c010b0 	strh	r1, [r0]
    ad54:	e12fff1e 	bx	lr

0000ad58 <put8>:
    ad58:	e5c01000 	strb	r1, [r0]
    ad5c:	e12fff1e 	bx	lr

0000ad60 <PUT8>:
    ad60:	e5c01000 	strb	r1, [r0]
    ad64:	e12fff1e 	bx	lr

0000ad68 <get32>:
    ad68:	e5900000 	ldr	r0, [r0]
    ad6c:	e12fff1e 	bx	lr

0000ad70 <GET32>:
    ad70:	e5900000 	ldr	r0, [r0]
    ad74:	e12fff1e 	bx	lr

0000ad78 <GETPC>:
    ad78:	e1a0000e 	mov	r0, lr
    ad7c:	e12fff1e 	bx	lr

0000ad80 <dummy>:
    ad80:	e12fff1e 	bx	lr

0000ad84 <or_in32>:
    ad84:	e92d4070 	push	{r4, r5, r6, lr}
    ad88:	e1a04000 	mov	r4, r0
    ad8c:	e1a05001 	mov	r5, r1
    ad90:	ebfffff4 	bl	ad68 <get32>
    ad94:	e1801005 	orr	r1, r0, r5
    ad98:	e1a00004 	mov	r0, r4
    ad9c:	ebffffe5 	bl	ad38 <put32>
    ada0:	e8bd8070 	pop	{r4, r5, r6, pc}

0000ada4 <uart_init>:
    ada4:	e92d4010 	push	{r4, lr}
    ada8:	e3a01002 	mov	r1, #2
    adac:	e3a0000e 	mov	r0, #14
    adb0:	eb000051 	bl	aefc <gpio_set_function>
    adb4:	e3a01002 	mov	r1, #2
    adb8:	e3a0000f 	mov	r0, #15
    adbc:	eb00004e 	bl	aefc <gpio_set_function>
    adc0:	ebffffd6 	bl	ad20 <dev_barrier>
    adc4:	e3a01001 	mov	r1, #1
    adc8:	e59f0064 	ldr	r0, [pc, #100]	; ae34 <uart_init+0x90>
    adcc:	ebffffec 	bl	ad84 <or_in32>
    add0:	ebffffd2 	bl	ad20 <dev_barrier>
    add4:	e59f405c 	ldr	r4, [pc, #92]	; ae38 <uart_init+0x94>
    add8:	e3a01000 	mov	r1, #0
    addc:	e1a00004 	mov	r0, r4
    ade0:	ebffffd4 	bl	ad38 <put32>
    ade4:	e3a01000 	mov	r1, #0
    ade8:	e59f004c 	ldr	r0, [pc, #76]	; ae3c <uart_init+0x98>
    adec:	ebffffd1 	bl	ad38 <put32>
    adf0:	e3a01003 	mov	r1, #3
    adf4:	e59f0044 	ldr	r0, [pc, #68]	; ae40 <uart_init+0x9c>
    adf8:	ebffffce 	bl	ad38 <put32>
    adfc:	e3a01000 	mov	r1, #0
    ae00:	e59f003c 	ldr	r0, [pc, #60]	; ae44 <uart_init+0xa0>
    ae04:	ebffffcb 	bl	ad38 <put32>
    ae08:	e3a010c7 	mov	r1, #199	; 0xc7
    ae0c:	e59f0034 	ldr	r0, [pc, #52]	; ae48 <uart_init+0xa4>
    ae10:	ebffffc8 	bl	ad38 <put32>
    ae14:	e59f1030 	ldr	r1, [pc, #48]	; ae4c <uart_init+0xa8>
    ae18:	e59f0030 	ldr	r0, [pc, #48]	; ae50 <uart_init+0xac>
    ae1c:	ebffffc5 	bl	ad38 <put32>
    ae20:	e3a01003 	mov	r1, #3
    ae24:	e1a00004 	mov	r0, r4
    ae28:	ebffffc2 	bl	ad38 <put32>
    ae2c:	ebffffbb 	bl	ad20 <dev_barrier>
    ae30:	e8bd8010 	pop	{r4, pc}
    ae34:	20215004 	eorcs	r5, r1, r4
    ae38:	20215060 	eorcs	r5, r1, r0, rrx
    ae3c:	20215044 	eorcs	r5, r1, r4, asr #32
    ae40:	2021504c 	eorcs	r5, r1, ip, asr #32
    ae44:	20215050 	eorcs	r5, r1, r0, asr r0
    ae48:	20215048 	eorcs	r5, r1, r8, asr #32
    ae4c:	0000010e 	andeq	r0, r0, lr, lsl #2
    ae50:	20215068 	eorcs	r5, r1, r8, rrx

0000ae54 <uart_can_getc>:
    ae54:	e92d4010 	push	{r4, lr}
    ae58:	e59f0008 	ldr	r0, [pc, #8]	; ae68 <uart_can_getc+0x14>
    ae5c:	ebffffc1 	bl	ad68 <get32>
    ae60:	e2000001 	and	r0, r0, #1
    ae64:	e8bd8010 	pop	{r4, pc}
    ae68:	20215064 	eorcs	r5, r1, r4, rrx

0000ae6c <uart_can_putc>:
    ae6c:	e92d4010 	push	{r4, lr}
    ae70:	e59f0010 	ldr	r0, [pc, #16]	; ae88 <uart_can_putc+0x1c>
    ae74:	ebffffbb 	bl	ad68 <get32>
    ae78:	e3100002 	tst	r0, #2
    ae7c:	13a00001 	movne	r0, #1
    ae80:	03a00000 	moveq	r0, #0
    ae84:	e8bd8010 	pop	{r4, pc}
    ae88:	20215064 	eorcs	r5, r1, r4, rrx

0000ae8c <uart_getc>:
    ae8c:	e92d4010 	push	{r4, lr}
    ae90:	ebffffa2 	bl	ad20 <dev_barrier>
    ae94:	ebffffee 	bl	ae54 <uart_can_getc>
    ae98:	e3500000 	cmp	r0, #0
    ae9c:	0afffffc 	beq	ae94 <uart_getc+0x8>
    aea0:	e59f0010 	ldr	r0, [pc, #16]	; aeb8 <uart_getc+0x2c>
    aea4:	ebffffaf 	bl	ad68 <get32>
    aea8:	e6ef4070 	uxtb	r4, r0
    aeac:	ebffff9b 	bl	ad20 <dev_barrier>
    aeb0:	e1a00004 	mov	r0, r4
    aeb4:	e8bd8010 	pop	{r4, pc}
    aeb8:	20215040 	eorcs	r5, r1, r0, asr #32

0000aebc <uart_putc>:
    aebc:	e92d4010 	push	{r4, lr}
    aec0:	e1a04000 	mov	r4, r0
    aec4:	ebffff95 	bl	ad20 <dev_barrier>
    aec8:	ebffffe7 	bl	ae6c <uart_can_putc>
    aecc:	e3500000 	cmp	r0, #0
    aed0:	0afffffc 	beq	aec8 <uart_putc+0xc>
    aed4:	e6ef1074 	uxtb	r1, r4
    aed8:	e59f0008 	ldr	r0, [pc, #8]	; aee8 <uart_putc+0x2c>
    aedc:	ebffff95 	bl	ad38 <put32>
    aee0:	ebffff8e 	bl	ad20 <dev_barrier>
    aee4:	e8bd8010 	pop	{r4, pc}
    aee8:	20215040 	eorcs	r5, r1, r0, asr #32

0000aeec <uart_has_data>:
    aeec:	e92d4010 	push	{r4, lr}
    aef0:	ebffff8a 	bl	ad20 <dev_barrier>
    aef4:	ebffffd6 	bl	ae54 <uart_can_getc>
    aef8:	e8bd8010 	pop	{r4, pc}

0000aefc <gpio_set_function>:
    aefc:	e350001f 	cmp	r0, #31
    af00:	812fff1e 	bxhi	lr
    af04:	e3d13007 	bics	r3, r1, #7
    af08:	112fff1e 	bxne	lr
    af0c:	e92d4070 	push	{r4, r5, r6, lr}
    af10:	e1a05001 	mov	r5, r1
    af14:	e59f3044 	ldr	r3, [pc, #68]	; af60 <gpio_set_function+0x64>
    af18:	e0832093 	umull	r2, r3, r3, r0
    af1c:	e1a031a3 	lsr	r3, r3, #3
    af20:	e1a06003 	mov	r6, r3
    af24:	e0833103 	add	r3, r3, r3, lsl #2
    af28:	e1a02083 	lsl	r2, r3, #1
    af2c:	e0403002 	sub	r3, r0, r2
    af30:	e0834083 	add	r4, r3, r3, lsl #1
    af34:	e2866302 	add	r6, r6, #134217728	; 0x8000000
    af38:	e2866702 	add	r6, r6, #524288	; 0x80000
    af3c:	e1a06106 	lsl	r6, r6, #2
    af40:	e1a00006 	mov	r0, r6
    af44:	ebffff89 	bl	ad70 <GET32>
    af48:	e3a01007 	mov	r1, #7
    af4c:	e1c01411 	bic	r1, r0, r1, lsl r4
    af50:	e1811415 	orr	r1, r1, r5, lsl r4
    af54:	e1a00006 	mov	r0, r6
    af58:	ebffff78 	bl	ad40 <PUT32>
    af5c:	e8bd8070 	pop	{r4, r5, r6, pc}
    af60:	cccccccd 	stclgt	12, cr12, [ip], {205}	; 0xcd

0000af64 <gpio_set_output>:
    af64:	e92d4010 	push	{r4, lr}
    af68:	e3a01001 	mov	r1, #1
    af6c:	ebffffe2 	bl	aefc <gpio_set_function>
    af70:	e8bd8010 	pop	{r4, pc}

0000af74 <gpio_set_on>:
    af74:	e350001f 	cmp	r0, #31
    af78:	812fff1e 	bxhi	lr
    af7c:	e92d4010 	push	{r4, lr}
    af80:	e3a01001 	mov	r1, #1
    af84:	e1a01011 	lsl	r1, r1, r0
    af88:	e59f0004 	ldr	r0, [pc, #4]	; af94 <gpio_set_on+0x20>
    af8c:	ebffff6b 	bl	ad40 <PUT32>
    af90:	e8bd8010 	pop	{r4, pc}
    af94:	2020001c 	eorcs	r0, r0, ip, lsl r0

0000af98 <gpio_set_off>:
    af98:	e350001f 	cmp	r0, #31
    af9c:	812fff1e 	bxhi	lr
    afa0:	e92d4010 	push	{r4, lr}
    afa4:	e3a01001 	mov	r1, #1
    afa8:	e1a01011 	lsl	r1, r1, r0
    afac:	e59f0004 	ldr	r0, [pc, #4]	; afb8 <gpio_set_off+0x20>
    afb0:	ebffff62 	bl	ad40 <PUT32>
    afb4:	e8bd8010 	pop	{r4, pc}
    afb8:	20200028 	eorcs	r0, r0, r8, lsr #32

0000afbc <gpio_set_input>:
    afbc:	e92d4010 	push	{r4, lr}
    afc0:	e3a01000 	mov	r1, #0
    afc4:	ebffffcc 	bl	aefc <gpio_set_function>
    afc8:	e8bd8010 	pop	{r4, pc}

0000afcc <gpio_write>:
    afcc:	e92d4010 	push	{r4, lr}
    afd0:	e3510000 	cmp	r1, #0
    afd4:	1a000001 	bne	afe0 <gpio_write+0x14>
    afd8:	ebffffee 	bl	af98 <gpio_set_off>
    afdc:	e8bd8010 	pop	{r4, pc}
    afe0:	ebffffe3 	bl	af74 <gpio_set_on>
    afe4:	e8bd8010 	pop	{r4, pc}

0000afe8 <gpio_read>:
    afe8:	e350001f 	cmp	r0, #31
    afec:	8a000007 	bhi	b010 <gpio_read+0x28>
    aff0:	e92d4010 	push	{r4, lr}
    aff4:	e200401f 	and	r4, r0, #31
    aff8:	e59f3018 	ldr	r3, [pc, #24]	; b018 <gpio_read+0x30>
    affc:	e08302a0 	add	r0, r3, r0, lsr #5
    b000:	ebffff5a 	bl	ad70 <GET32>
    b004:	e1a00430 	lsr	r0, r0, r4
    b008:	e2000001 	and	r0, r0, #1
    b00c:	e8bd8010 	pop	{r4, pc}
    b010:	e3e00000 	mvn	r0, #0
    b014:	e12fff1e 	bx	lr
    b018:	20200034 	eorcs	r0, r0, r4, lsr r0

0000b01c <kmalloc_heap_end>:
    b01c:	e59f3004 	ldr	r3, [pc, #4]	; b028 <kmalloc_heap_end+0xc>
    b020:	e5930000 	ldr	r0, [r3]
    b024:	e12fff1e 	bx	lr
    b028:	0000b200 	andeq	fp, r0, r0, lsl #4

0000b02c <kmalloc_heap_start>:
    b02c:	e59f0000 	ldr	r0, [pc]	; b034 <kmalloc_heap_start+0x8>
    b030:	e12fff1e 	bx	lr
    b034:	0000c9c8 	andeq	ip, r0, r8, asr #19

0000b038 <kmalloc_init_set_start>:
    b038:	e59f3044 	ldr	r3, [pc, #68]	; b084 <kmalloc_init_set_start+0x4c>
    b03c:	e5933000 	ldr	r3, [r3]
    b040:	e1500003 	cmp	r0, r3
    b044:	9a000003 	bls	b058 <kmalloc_init_set_start+0x20>
    b048:	e59f3034 	ldr	r3, [pc, #52]	; b084 <kmalloc_init_set_start+0x4c>
    b04c:	e5830000 	str	r0, [r3]
    b050:	e5830004 	str	r0, [r3, #4]
    b054:	e12fff1e 	bx	lr
    b058:	e52de004 	push	{lr}		; (str lr, [sp, #-4]!)
    b05c:	e24dd00c 	sub	sp, sp, #12
    b060:	ebfffcfc 	bl	a458 <rpi_reset_putc>
    b064:	e59f301c 	ldr	r3, [pc, #28]	; b088 <kmalloc_init_set_start+0x50>
    b068:	e58d3000 	str	r3, [sp]
    b06c:	e3a03016 	mov	r3, #22
    b070:	e59f2014 	ldr	r2, [pc, #20]	; b08c <kmalloc_init_set_start+0x54>
    b074:	e59f1014 	ldr	r1, [pc, #20]	; b090 <kmalloc_init_set_start+0x58>
    b078:	e59f0014 	ldr	r0, [pc, #20]	; b094 <kmalloc_init_set_start+0x5c>
    b07c:	ebfffcda 	bl	a3ec <printk>
    b080:	ebfffe69 	bl	aa2c <clean_reboot>
    b084:	0000b200 	andeq	fp, r0, r0, lsl #4
    b088:	0000c4e0 	andeq	ip, r0, r0, ror #9
    b08c:	0000c4a4 	andeq	ip, r0, r4, lsr #9
    b090:	0000c4d4 	ldrdeq	ip, [r0], -r4
    b094:	0000b208 	andeq	fp, r0, r8, lsl #4

0000b098 <kmalloc>:
    b098:	e92d4010 	push	{r4, lr}
    b09c:	e24dd008 	sub	sp, sp, #8
    b0a0:	e3500000 	cmp	r0, #0
    b0a4:	0a00000b 	beq	b0d8 <kmalloc+0x40>
    b0a8:	e2802007 	add	r2, r0, #7
    b0ac:	e3c22007 	bic	r2, r2, #7
    b0b0:	e59f3044 	ldr	r3, [pc, #68]	; b0fc <kmalloc+0x64>
    b0b4:	e5934000 	ldr	r4, [r3]
    b0b8:	e0841002 	add	r1, r4, r2
    b0bc:	e5831000 	str	r1, [r3]
    b0c0:	e3a01000 	mov	r1, #0
    b0c4:	e1a00004 	mov	r0, r4
    b0c8:	ebfffcbf 	bl	a3cc <memset>
    b0cc:	e1a00004 	mov	r0, r4
    b0d0:	e28dd008 	add	sp, sp, #8
    b0d4:	e8bd8010 	pop	{r4, pc}
    b0d8:	ebfffcde 	bl	a458 <rpi_reset_putc>
    b0dc:	e59f301c 	ldr	r3, [pc, #28]	; b100 <kmalloc+0x68>
    b0e0:	e58d3000 	str	r3, [sp]
    b0e4:	e3a0301b 	mov	r3, #27
    b0e8:	e59f2014 	ldr	r2, [pc, #20]	; b104 <kmalloc+0x6c>
    b0ec:	e59f1014 	ldr	r1, [pc, #20]	; b108 <kmalloc+0x70>
    b0f0:	e59f0014 	ldr	r0, [pc, #20]	; b10c <kmalloc+0x74>
    b0f4:	ebfffcbc 	bl	a3ec <printk>
    b0f8:	ebfffe4b 	bl	aa2c <clean_reboot>
    b0fc:	0000b200 	andeq	fp, r0, r0, lsl #4
    b100:	0000c4ec 	andeq	ip, r0, ip, ror #9
    b104:	0000c4bc 			; <UNDEFINED> instruction: 0x0000c4bc
    b108:	0000c4d4 	ldrdeq	ip, [r0], -r4
    b10c:	0000b208 	andeq	fp, r0, r8, lsl #4

0000b110 <kmalloc_init>:
    b110:	e12fff1e 	bx	lr

0000b114 <kmalloc_heap_ptr>:
    b114:	e92d4010 	push	{r4, lr}
    b118:	ebffffc3 	bl	b02c <kmalloc_heap_start>
    b11c:	e8bd8010 	pop	{r4, pc}

0000b120 <kmalloc_aligned>:
    b120:	e52de004 	push	{lr}		; (str lr, [sp, #-4]!)
    b124:	e24dd00c 	sub	sp, sp, #12
    b128:	e2613000 	rsb	r3, r1, #0
    b12c:	e1d12003 	bics	r2, r1, r3
    b130:	1a00000c 	bne	b168 <kmalloc_aligned+0x48>
    b134:	e59f2074 	ldr	r2, [pc, #116]	; b1b0 <kmalloc_aligned+0x90>
    b138:	e5922000 	ldr	r2, [r2]
    b13c:	e0812002 	add	r2, r1, r2
    b140:	e2422001 	sub	r2, r2, #1
    b144:	e0033002 	and	r3, r3, r2
    b148:	e2411001 	sub	r1, r1, #1
    b14c:	e1130001 	tst	r3, r1
    b150:	1a00000d 	bne	b18c <kmalloc_aligned+0x6c>
    b154:	e59f2054 	ldr	r2, [pc, #84]	; b1b0 <kmalloc_aligned+0x90>
    b158:	e5823000 	str	r3, [r2]
    b15c:	ebffffcd 	bl	b098 <kmalloc>
    b160:	e28dd00c 	add	sp, sp, #12
    b164:	e49df004 	pop	{pc}		; (ldr pc, [sp], #4)
    b168:	ebfffcba 	bl	a458 <rpi_reset_putc>
    b16c:	e59f3040 	ldr	r3, [pc, #64]	; b1b4 <kmalloc_aligned+0x94>
    b170:	e58d3000 	str	r3, [sp]
    b174:	e3a0302a 	mov	r3, #42	; 0x2a
    b178:	e59f2038 	ldr	r2, [pc, #56]	; b1b8 <kmalloc_aligned+0x98>
    b17c:	e59f1038 	ldr	r1, [pc, #56]	; b1bc <kmalloc_aligned+0x9c>
    b180:	e59f0038 	ldr	r0, [pc, #56]	; b1c0 <kmalloc_aligned+0xa0>
    b184:	ebfffc98 	bl	a3ec <printk>
    b188:	ebfffe27 	bl	aa2c <clean_reboot>
    b18c:	ebfffcb1 	bl	a458 <rpi_reset_putc>
    b190:	e59f302c 	ldr	r3, [pc, #44]	; b1c4 <kmalloc_aligned+0xa4>
    b194:	e58d3000 	str	r3, [sp]
    b198:	e3a03030 	mov	r3, #48	; 0x30
    b19c:	e59f2014 	ldr	r2, [pc, #20]	; b1b8 <kmalloc_aligned+0x98>
    b1a0:	e59f1014 	ldr	r1, [pc, #20]	; b1bc <kmalloc_aligned+0x9c>
    b1a4:	e59f001c 	ldr	r0, [pc, #28]	; b1c8 <kmalloc_aligned+0xa8>
    b1a8:	ebfffc8f 	bl	a3ec <printk>
    b1ac:	ebfffe1e 	bl	aa2c <clean_reboot>
    b1b0:	0000b200 	andeq	fp, r0, r0, lsl #4
    b1b4:	0000c524 	andeq	ip, r0, r4, lsr #10
    b1b8:	0000c4c4 	andeq	ip, r0, r4, asr #9
    b1bc:	0000c4d4 	ldrdeq	ip, [r0], -r4
    b1c0:	0000c4f0 	strdeq	ip, [r0], -r0
    b1c4:	0000c57c 	andeq	ip, r0, ip, ror r5
    b1c8:	0000c550 	andeq	ip, r0, r0, asr r5

0000b1cc <kfree>:
    b1cc:	e12fff1e 	bx	lr

0000b1d0 <kfree_all>:
    b1d0:	e59f3008 	ldr	r3, [pc, #8]	; b1e0 <kfree_all+0x10>
    b1d4:	e5932004 	ldr	r2, [r3, #4]
    b1d8:	e5832000 	str	r2, [r3]
    b1dc:	e12fff1e 	bx	lr
    b1e0:	0000b200 	andeq	fp, r0, r0, lsl #4

0000b1e4 <kfree_after>:
    b1e4:	e59f3004 	ldr	r3, [pc, #4]	; b1f0 <kfree_after+0xc>
    b1e8:	e5830000 	str	r0, [r3]
    b1ec:	e12fff1e 	bx	lr
    b1f0:	0000b200 	andeq	fp, r0, r0, lsl #4

0000b1f4 <__code_end__>:
    b1f4:	00000000 	andeq	r0, r0, r0

Disassembly of section .data:

0000b1f8 <__data_start__>:
    b1f8:	0000a444 	andeq	sl, r0, r4, asr #8

0000b1fc <putk>:
    b1fc:	0000a480 	andeq	sl, r0, r0, lsl #9

0000b200 <heap>:
    b200:	0000c9c8 	andeq	ip, r0, r8, asr #19

0000b204 <heap_start>:
    b204:	0000c9c8 	andeq	ip, r0, r8, asr #19

Disassembly of section .rodata:

0000b208 <__FUNCTION__.4437-0x194>:
    b208:	494e4150 	stmdbmi	lr, {r4, r6, r8, lr}^
    b20c:	73253a43 	teqvc	r5, #274432	; 0x43000
    b210:	3a73253a 	bcc	1cd4700 <__bss_end__+0x1cc7d38>
    b214:	253a6425 	ldrcs	r6, [sl, #-1061]!	; 0x425
    b218:	00000a73 	andeq	r0, r0, r3, ror sl
    b21c:	74736574 	ldrbtvc	r6, [r3], #-1396	; 0x574
    b220:	61702f73 	cmnvs	r0, r3, ror pc
    b224:	2d327472 	cfldrscs	mvf7, [r2, #-456]!	; 0xfffffe38
    b228:	74736574 	ldrbtvc	r6, [r3], #-1396	; 0x574
    b22c:	00632e33 	rsbeq	r2, r3, r3, lsr lr
    b230:	5f756d6d 	svcpl	0x00756d6d
    b234:	655f7369 	ldrbvs	r7, [pc, #-873]	; aed3 <uart_putc+0x17>
    b238:	6c62616e 	stfvse	f6, [r2], #-440	; 0xfffffe48
    b23c:	29286465 	stmdbcs	r8!, {r0, r2, r5, r6, sl, sp, lr}
    b240:	00000000 	andeq	r0, r0, r0
    b244:	756f6261 	strbvc	r6, [pc, #-609]!	; afeb <gpio_read+0x3>
    b248:	6f742074 	svcvs	0x00742074
    b24c:	206f6420 	rsbcs	r6, pc, r0, lsr #8
    b250:	636d656d 	cmnvs	sp, #457179136	; 0x1b400000
    b254:	6b636568 	blvs	18e47fc <__bss_end__+0x18d7e34>
    b258:	61727420 	cmnvs	r2, r0, lsr #8
    b25c:	000a6b63 	andeq	r6, sl, r3, ror #22
    b260:	756f6261 	strbvc	r6, [pc, #-609]!	; b007 <gpio_read+0x1f>
    b264:	6f742074 	svcvs	0x00742074
    b268:	206f6420 	rsbcs	r6, pc, r0, lsr #8
    b26c:	636d656d 	cmnvs	sp, #457179136	; 0x1b400000
    b270:	6b636568 	blvs	18e4818 <__bss_end__+0x18d7e50>
    b274:	6e6f6320 	cdpvs	3, 6, cr6, cr15, cr0, {1}
    b278:	756e6974 	strbvc	r6, [lr, #-2420]!	; 0x974
    b27c:	00000a65 	andeq	r0, r0, r5, ror #20
    b280:	756f6261 	strbvc	r6, [pc, #-609]!	; b027 <kmalloc_heap_end+0xb>
    b284:	6f742074 	svcvs	0x00742074
    b288:	206f6420 	rsbcs	r6, pc, r0, lsr #8
    b28c:	636d656d 	cmnvs	sp, #457179136	; 0x1b400000
    b290:	6b636568 	blvs	18e4838 <__bss_end__+0x18d7e70>
    b294:	74666120 	strbtvc	r6, [r6], #-288	; 0x120
    b298:	66207265 	strtvs	r7, [r0], -r5, ror #4
    b29c:	746c7561 	strbtvc	r7, [ip], #-1377	; 0x561
    b2a0:	00000000 	andeq	r0, r0, r0
    b2a4:	43415254 	movtmi	r5, #4692	; 0x1254
    b2a8:	00003a45 	andeq	r3, r0, r5, asr #20
    b2ac:	65707865 	ldrbvs	r7, [r0, #-2149]!	; 0x865
    b2b0:	27207463 	strcs	r7, [r0, -r3, ror #8]!
    b2b4:	616d6f64 	cmnvs	sp, r4, ror #30
    b2b8:	73206e69 	teqvc	r0, #1680	; 0x690
    b2bc:	69746365 	ldmdbvs	r4!, {r0, r2, r5, r6, r8, r9, sp, lr}^
    b2c0:	66206e6f 	strtvs	r6, [r0], -pc, ror #28
    b2c4:	746c7561 	strbtvc	r7, [ip], #-1377	; 0x561
    b2c8:	6f662027 	svcvs	0x00662027
    b2cc:	64612072 	strbtvs	r2, [r1], #-114	; 0x72
    b2d0:	25207264 	strcs	r7, [r0, #-612]!	; 0x264
    b2d4:	61202c70 	teqvs	r0, r0, ror ip
    b2d8:	63702074 	cmnvs	r0, #116	; 0x74
    b2dc:	0a702520 	beq	1c14764 <__bss_end__+0x1c07d9c>
    b2e0:	00000000 	andeq	r0, r0, r0
    b2e4:	75736572 	ldrbvc	r6, [r3, #-1394]!	; 0x572
    b2e8:	2064656d 	rsbcs	r6, r4, sp, ror #10
    b2ec:	65746661 	ldrbvs	r6, [r4, #-1633]!	; 0x661
    b2f0:	61662072 	smcvs	25090	; 0x6202
    b2f4:	3a746c75 	bcc	1d264d0 <__bss_end__+0x1d19b08>
    b2f8:	65686320 	strbvs	r6, [r8, #-800]!	; 0x320
    b2fc:	6e696b63 	vnmulvs.f64	d22, d9, d19
    b300:	68742067 	ldmdavs	r4!, {r0, r1, r2, r5, r6, sp}^
    b304:	74207461 	strtvc	r7, [r0], #-1121	; 0x461
    b308:	70706172 	rsbsvc	r6, r0, r2, ror r1
    b30c:	20676e69 	rsbcs	r6, r7, r9, ror #28
    b310:	64207369 	strtvs	r7, [r0], #-873	; 0x369
    b314:	62617369 	rsbvs	r7, r1, #-1543503871	; 0xa4000001
    b318:	0a64656c 	beq	19248d0 <__bss_end__+0x1917f08>
    b31c:	00000000 	andeq	r0, r0, r0
    b320:	6d656d21 	stclvs	13, cr6, [r5, #-132]!	; 0xffffff7c
    b324:	63656863 	cmnvs	r5, #6488064	; 0x630000
    b328:	72745f6b 	rsbsvc	r5, r4, #428	; 0x1ac
    b32c:	655f7061 	ldrbvs	r7, [pc, #-97]	; b2d3 <__data_end__+0xcb>
    b330:	6c62616e 	stfvse	f6, [r2], #-440	; 0xfffffe48
    b334:	29286465 	stmdbcs	r8!, {r0, r2, r5, r6, sl, sp, lr}
    b338:	00000000 	andeq	r0, r0, r0
    b33c:	72726f63 	rsbsvc	r6, r2, #396	; 0x18c
    b340:	3a746365 	bcc	1d240dc <__bss_end__+0x1d17714>
    b344:	73696420 	cmnvc	r9, #32, 8	; 0x20000000
    b348:	656c6261 	strbvs	r6, [ip, #-609]!	; 0x261
    b34c:	00000a64 	andeq	r0, r0, r4, ror #20
    b350:	63656863 	cmnvs	r5, #6488064	; 0x630000
    b354:	676e696b 	strbvs	r6, [lr, -fp, ror #18]!
    b358:	61687420 	cmnvs	r8, r0, lsr #8
    b35c:	70252074 	eorvc	r2, r5, r4, ror r0
    b360:	203d3d20 	eorscs	r3, sp, r0, lsr #26
    b364:	000a6425 	andeq	r6, sl, r5, lsr #8
    b368:	33544547 	cmpcc	r4, #297795584	; 0x11c00000
    b36c:	70732832 	rsbsvc	r2, r3, r2, lsr r8
    b370:	3d3d2029 	ldccc	0, cr2, [sp, #-164]!	; 0xffffff5c
    b374:	6c617620 	stclvs	6, cr7, [r1], #-128	; 0xffffff80
    b378:	00000000 	andeq	r0, r0, r0
    b37c:	72726f63 	rsbsvc	r6, r2, #396	; 0x18c
    b380:	3a746365 	bcc	1d2411c <__bss_end__+0x1d17754>
    b384:	20702520 	rsbscs	r2, r0, r0, lsr #10
    b388:	25203d3d 	strcs	r3, [r0, #-3389]!	; 0xd3d
    b38c:	00000a64 	andeq	r0, r0, r4, ror #20
    b390:	63637573 	cmnvs	r3, #482344960	; 0x1cc00000
    b394:	21737365 	cmncs	r3, r5, ror #6
    b398:	00000a21 	andeq	r0, r0, r1, lsr #20

0000b39c <__FUNCTION__.4437>:
    b39c:	6d746f6e 	ldclvs	15, cr6, [r4, #-440]!	; 0xfffffe48
    b3a0:	006e6961 	rsbeq	r6, lr, r1, ror #18

0000b3a4 <OneMB>:
    b3a4:	00100000 	andseq	r0, r0, r0

0000b3a8 <__FUNCTION__.4417>:
    b3a8:	5f756d6d 	svcpl	0x00756d6d
    b3ac:	6b6f6f6c 	blvs	1be7164 <__bss_end__+0x1bda79c>
    b3b0:	735f7075 	cmpvc	pc, #117	; 0x75
    b3b4:	69746365 	ldmdbvs	r4!, {r0, r2, r5, r6, r8, r9, sp, lr}^
    b3b8:	00006e6f 	andeq	r6, r0, pc, ror #28

0000b3bc <__FUNCTION__.4426>:
    b3bc:	5f756d6d 	svcpl	0x00756d6d
    b3c0:	6b72616d 	blvs	1ca397c <__bss_end__+0x1c96fb4>
    b3c4:	6365735f 	cmnvs	r5, #2080374785	; 0x7c000001
    b3c8:	5f70615f 	svcpl	0x0070615f
    b3cc:	6d726570 	cfldr64vs	mvdx6, [r2, #-448]!	; 0xfffffe40
    b3d0:	00000000 	andeq	r0, r0, r0

0000b3d4 <__FUNCTION__.4458>:
    b3d4:	5f756d6d 	svcpl	0x00756d6d
    b3d8:	5f70616d 	svcpl	0x0070616d
    b3dc:	74636573 	strbtvc	r6, [r3], #-1395	; 0x573
    b3e0:	006e6f69 	rsbeq	r6, lr, r9, ror #30

0000b3e4 <__FUNCTION__.4451>:
    b3e4:	5f646c66 	svcpl	0x00646c66
    b3e8:	5f746573 	svcpl	0x00746573
    b3ec:	65736162 	ldrbvs	r6, [r3, #-354]!	; 0x162
    b3f0:	6464615f 	strbtvs	r6, [r4], #-351	; 0x15f
    b3f4:	00000072 	andeq	r0, r0, r2, ror r0

0000b3f8 <__FUNCTION__.4468>:
    b3f8:	5f756d6d 	svcpl	0x00756d6d
    b3fc:	5f70616d 	svcpl	0x0070616d
    b400:	74636573 	strbtvc	r6, [r3], #-1395	; 0x573
    b404:	736e6f69 	cmnvc	lr, #420	; 0x1a4
    b408:	00000000 	andeq	r0, r0, r0

0000b40c <__FUNCTION__.4477>:
    b40c:	5f756d6d 	svcpl	0x00756d6d
    b410:	615f7470 	cmpvs	pc, r0, ror r4	; <UNPREDICTABLE>
    b414:	636f6c6c 	cmnvs	pc, #108, 24	; 0x6c00
    b418:	0074615f 	rsbseq	r6, r4, pc, asr r1

0000b41c <__FUNCTION__.4483>:
    b41c:	5f756d6d 	svcpl	0x00756d6d
    b420:	615f7470 	cmpvs	pc, r0, ror r4	; <UNPREDICTABLE>
    b424:	636f6c6c 	cmnvs	pc, #108, 24	; 0x6c00
    b428:	00000000 	andeq	r0, r0, r0

0000b42c <__FUNCTION__.4490>:
    b42c:	5f756d6d 	svcpl	0x00756d6d
    b430:	74696e69 	strbtvc	r6, [r9], #-3689	; 0xe69
    b434:	00000000 	andeq	r0, r0, r0

0000b438 <__FUNCTION__.4497>:
    b438:	5f756d6d 	svcpl	0x00756d6d
    b43c:	61736964 	cmnvs	r3, r4, ror #18
    b440:	5f656c62 	svcpl	0x00656c62
    b444:	00746573 	rsbseq	r6, r4, r3, ror r5

0000b448 <__FUNCTION__.4502>:
    b448:	5f756d6d 	svcpl	0x00756d6d
    b44c:	61736964 	cmnvs	r3, r4, ror #18
    b450:	00656c62 	rsbeq	r6, r5, r2, ror #24

0000b454 <__FUNCTION__.4506>:
    b454:	5f756d6d 	svcpl	0x00756d6d
    b458:	62616e65 	rsbvs	r6, r1, #1616	; 0x650
    b45c:	735f656c 	cmpvc	pc, #108, 10	; 0x1b000000
    b460:	00007465 	andeq	r7, r0, r5, ror #8

0000b464 <__FUNCTION__.4511>:
    b464:	5f756d6d 	svcpl	0x00756d6d
    b468:	62616e65 	rsbvs	r6, r1, #1616	; 0x650
    b46c:	0000656c 	andeq	r6, r0, ip, ror #10

0000b470 <__FUNCTION__.4524>:
    b470:	5f746573 	svcpl	0x00746573
    b474:	636f7270 	cmnvs	pc, #112, 4
    b478:	745f6469 	ldrbvc	r6, [pc], #-1129	; b480 <__FUNCTION__.4524+0x10>
    b47c:	30726274 	rsbscc	r6, r2, r4, ror r2
    b480:	00000000 	andeq	r0, r0, r0

0000b484 <__FUNCTION__.4528>:
    b484:	5f6d7361 	svcpl	0x006d7361
    b488:	5f746f6e 	svcpl	0x00746f6e
    b48c:	6c706d69 	ldclvs	13, cr6, [r0], #-420	; 0xfffffe5c
    b490:	6e656d65 	cdpvs	13, 6, cr6, cr5, cr5, {3}
    b494:	00646574 	rsbeq	r6, r4, r4, ror r5
    b498:	2e756d6d 	cdpcs	13, 7, cr6, cr5, cr13, {3}
    b49c:	00000063 	andeq	r0, r0, r3, rrx
    b4a0:	615f7369 	cmpvs	pc, r9, ror #6
    b4a4:	6e67696c 	cdpvs	9, 6, cr6, cr7, cr12, {3}
    b4a8:	76286465 	strtvc	r6, [r8], -r5, ror #8
    b4ac:	32202c61 	eorcc	r2, r0, #24832	; 0x6100
    b4b0:	00002930 	andeq	r2, r0, r0, lsr r9
    b4b4:	4f525245 	svcmi	0x00525245
    b4b8:	73253a52 	teqvc	r5, #335872	; 0x52000
    b4bc:	3a73253a 	bcc	1cd49ac <__bss_end__+0x1cc7fe4>
    b4c0:	203a6425 	eorscs	r6, sl, r5, lsr #8
    b4c4:	534c4146 	movtpl	r4, #49478	; 0xc146
    b4c8:	253c2845 	ldrcs	r2, [ip, #-2117]!	; 0x845
    b4cc:	3a293e73 	bcc	a5aea0 <__bss_end__+0xa4e4d8>
    b4d0:	766e6920 	strbtvc	r6, [lr], -r0, lsr #18
    b4d4:	64696c61 	strbtvs	r6, [r9], #-3169	; 0xc61
    b4d8:	63657320 	cmnvs	r5, #32, 6	; 0x80000000
    b4dc:	6e6f6974 	mcrvs	9, 3, r6, cr15, cr4, {3}
    b4e0:	0000000a 	andeq	r0, r0, sl
    b4e4:	2d657470 	cfstrdcs	mvd7, [r5, #-448]!	; 0xfffffe40
    b4e8:	6761743e 			; <UNDEFINED> instruction: 0x6761743e
    b4ec:	00000000 	andeq	r0, r0, r0
    b4f0:	4f525245 	svcmi	0x00525245
    b4f4:	73253a52 	teqvc	r5, #335872	; 0x52000
    b4f8:	3a73253a 	bcc	1cd49e8 <__bss_end__+0x1cc8020>
    b4fc:	203a6425 	eorscs	r6, sl, r5, lsr #8
    b500:	534c4146 	movtpl	r4, #49478	; 0xc146
    b504:	253c2845 	ldrcs	r2, [ip, #-2117]!	; 0x845
    b508:	3a293e73 	bcc	a5aedc <__bss_end__+0xa4e514>
    b50c:	766e6920 	strbtvc	r6, [lr], -r0, lsr #18
    b510:	64696c61 	strbtvs	r6, [r9], #-3169	; 0xc61
    b514:	72657020 	rsbvc	r7, r5, #32
    b518:	7373696d 	cmnvc	r3, #1785856	; 0x1b4000
    b51c:	0a6e6f69 	beq	1ba72c8 <__bss_end__+0x1b9a900>
    b520:	00000000 	andeq	r0, r0, r0
    b524:	6d726570 	cfldr64vs	mvdx6, [r2, #-448]!	; 0xfffffe40
    b528:	203d3c20 	eorscs	r3, sp, r0, lsr #24
    b52c:	31316230 	teqcc	r1, r0, lsr r2
    b530:	00000000 	andeq	r0, r0, r0
    b534:	4f525245 	svcmi	0x00525245
    b538:	73253a52 	teqvc	r5, #335872	; 0x52000
    b53c:	3a73253a 	bcc	1cd4a2c <__bss_end__+0x1cc8064>
    b540:	203a6425 	eorscs	r6, sl, r5, lsr #8
    b544:	534c4146 	movtpl	r4, #49478	; 0xc146
    b548:	253c2845 	ldrcs	r2, [ip, #-2117]!	; 0x845
    b54c:	3a293e73 	bcc	a5af20 <__bss_end__+0xa4e558>
    b550:	64646120 	strbtvs	r6, [r4], #-288	; 0x120
    b554:	73692072 	cmnvc	r9, #114	; 0x72
    b558:	746f6e20 	strbtvc	r6, [pc], #-3616	; b560 <__FUNCTION__.4528+0xdc>
    b55c:	696c6120 	stmdbvs	ip!, {r5, r8, sp, lr}^
    b560:	64656e67 	strbtvs	r6, [r5], #-3687	; 0xe67
    b564:	00000a21 	andeq	r0, r0, r1, lsr #20
    b568:	61282828 	teqvs	r8, r8, lsr #16
    b56c:	29726464 	ldmdbcs	r2!, {r2, r5, r6, sl, sp, lr}^
    b570:	28202620 	stmdacs	r0!, {r5, r9, sl, sp}
    b574:	70797428 	rsbsvc	r7, r9, r8, lsr #8
    b578:	28666f65 	stmdacs	r6!, {r0, r2, r5, r6, r8, r9, sl, fp, sp, lr}^
    b57c:	72646461 	rsbvc	r6, r4, #1627389952	; 0x61000000
    b580:	32282929 	eorcc	r2, r8, #671744	; 0xa4000
    b584:	2d202930 	stccs	9, cr2, [r0, #-192]!	; 0xffffff40
    b588:	29293120 	stmdbcs	r9!, {r5, r8, ip, sp}
    b58c:	203d3d20 	eorscs	r3, sp, r0, lsr #26
    b590:	00002930 	andeq	r2, r0, r0, lsr r9
    b594:	3e2d6628 	cfmadda32cc	mvax1, mvax6, mvfx13, mvfx8
    b598:	5f636573 	svcpl	0x00636573
    b59c:	65736162 	ldrbvs	r6, [r3, #-354]!	; 0x162
    b5a0:	6464615f 	strbtvs	r6, [r4], #-351	; 0x15f
    b5a4:	3c3c2072 	ldccc	0, cr2, [ip], #-456	; 0xfffffe38
    b5a8:	29303220 	ldmdbcs	r0!, {r5, r9, ip, sp}
    b5ac:	203d3d20 	eorscs	r3, sp, r0, lsr #26
    b5b0:	72646461 	rsbvc	r6, r4, #1627389952	; 0x61000000
    b5b4:	00000000 	andeq	r0, r0, r0
    b5b8:	206d6f64 	rsbcs	r6, sp, r4, ror #30
    b5bc:	3631203c 			; <UNDEFINED> instruction: 0x3631203c
    b5c0:	00000000 	andeq	r0, r0, r0
    b5c4:	615f7369 	cmpvs	pc, r9, ror #6
    b5c8:	6e67696c 	cdpvs	9, 6, cr6, cr7, cr12, {3}
    b5cc:	70286465 	eorvc	r6, r8, r5, ror #8
    b5d0:	32202c61 	eorcc	r2, r0, #24832	; 0x6100
    b5d4:	00002930 	andeq	r2, r0, r0, lsr r9
    b5d8:	4f525245 	svcmi	0x00525245
    b5dc:	73253a52 	teqvc	r5, #335872	; 0x52000
    b5e0:	3a73253a 	bcc	1cd4ad0 <__bss_end__+0x1cc8108>
    b5e4:	203a6425 	eorscs	r6, sl, r5, lsr #8
    b5e8:	534c4146 	movtpl	r4, #49478	; 0xc146
    b5ec:	253c2845 	ldrcs	r2, [ip, #-2117]!	; 0x845
    b5f0:	3a293e73 	bcc	a5afc4 <__bss_end__+0xa4e5fc>
    b5f4:	726c6120 	rsbvc	r6, ip, #32, 2
    b5f8:	79646165 	stmdbvc	r4!, {r0, r2, r5, r6, r8, sp, lr}^
    b5fc:	74657320 	strbtvc	r7, [r5], #-800	; 0x320
    b600:	0000000a 	andeq	r0, r0, sl
    b604:	65747021 	ldrbvs	r7, [r4, #-33]!	; 0x21
    b608:	61743e2d 	cmnvs	r4, sp, lsr #28
    b60c:	00000067 	andeq	r0, r0, r7, rrx
    b610:	702e796d 	eorvc	r7, lr, sp, ror #18
    b614:	20406574 	subcs	r6, r0, r4, ror r5
    b618:	78257830 	stmdavc	r5!, {r4, r5, fp, ip, sp, lr}
    b61c:	25203d20 	strcs	r3, [r0, #-3360]!	; 0xd20
    b620:	00000a62 	andeq	r0, r0, r2, ror #20
    b624:	20455450 	subcs	r5, r5, r0, asr r4
    b628:	3a637263 	bcc	18e7fbc <__bss_end__+0x18db5f4>
    b62c:	00000000 	andeq	r0, r0, r0
    b630:	4f525245 	svcmi	0x00525245
    b634:	73253a52 	teqvc	r5, #335872	; 0x52000
    b638:	3a73253a 	bcc	1cd4b28 <__bss_end__+0x1cc8160>
    b63c:	203a6425 	eorscs	r6, sl, r5, lsr #8
    b640:	534c4146 	movtpl	r4, #49478	; 0xc146
    b644:	253c2845 	ldrcs	r2, [ip, #-2117]!	; 0x845
    b648:	3a293e73 	bcc	a5b01c <__bss_end__+0xa4e654>
    b64c:	73756d20 	cmnvc	r5, #32, 26	; 0x800
    b650:	65622074 	strbvs	r2, [r2, #-116]!	; 0x74
    b654:	2d343120 	ldfcss	f3, [r4, #-128]!	; 0xffffff80
    b658:	20746962 	rsbscs	r6, r4, r2, ror #18
    b65c:	67696c61 	strbvs	r6, [r9, -r1, ror #24]!
    b660:	2164656e 	cmncs	r4, lr, ror #10
    b664:	0000000a 	andeq	r0, r0, sl
    b668:	28282828 	stmdacs	r8!, {r3, r5, fp, sp}
    b66c:	746e6975 	strbtvc	r6, [lr], #-2421	; 0x975
    b670:	745f3233 	ldrbvc	r3, [pc], #-563	; b678 <__FUNCTION__.4528+0x1f4>
    b674:	64646129 	strbtvs	r6, [r4], #-297	; 0x129
    b678:	26202972 			; <UNDEFINED> instruction: 0x26202972
    b67c:	74282820 	strtvc	r2, [r8], #-2080	; 0x820
    b680:	6f657079 	svcvs	0x00657079
    b684:	75282866 	strvc	r2, [r8, #-2150]!	; 0x866
    b688:	33746e69 	cmncc	r4, #1680	; 0x690
    b68c:	29745f32 	ldmdbcs	r4!, {r1, r4, r5, r8, r9, sl, fp, ip, lr}^
    b690:	72646461 	rsbvc	r6, r4, #1627389952	; 0x61000000
    b694:	31282929 	teqcc	r8, r9, lsr #18
    b698:	2d202934 	stccs	9, cr2, [r0, #-208]!	; 0xffffff30
    b69c:	29293120 	stmdbcs	r9!, {r5, r8, ip, sp}
    b6a0:	203d3d20 	eorscs	r3, sp, r0, lsr #26
    b6a4:	00002930 	andeq	r2, r0, r0, lsr r9
    b6a8:	4f525245 	svcmi	0x00525245
    b6ac:	73253a52 	teqvc	r5, #335872	; 0x52000
    b6b0:	3a73253a 	bcc	1cd4ba0 <__bss_end__+0x1cc81d8>
    b6b4:	203a6425 	eorscs	r6, sl, r5, lsr #8
    b6b8:	534c4146 	movtpl	r4, #49478	; 0xc146
    b6bc:	253c2845 	ldrcs	r2, [ip, #-2117]!	; 0x845
    b6c0:	3a293e73 	bcc	a5b094 <__bss_end__+0xa4e6cc>
    b6c4:	6c6e6f20 	stclvs	15, cr6, [lr], #-128	; 0xffffff80
    b6c8:	61682079 	smcvs	33289	; 0x8209
    b6cc:	6e69646e 	cdpvs	4, 6, cr6, cr9, cr14, {3}
    b6d0:	75662067 	strbvc	r2, [r6, #-103]!	; 0x67
    b6d4:	61206c6c 	teqvs	r0, ip, ror #24
    b6d8:	636f6c6c 	cmnvs	pc, #108, 24	; 0x6c00
    b6dc:	6f697461 	svcvs	0x00697461
    b6e0:	00000a6e 	andeq	r0, r0, lr, ror #20
    b6e4:	7479626e 	ldrbtvc	r6, [r9], #-622	; 0x26e
    b6e8:	3d207365 	stccc	3, cr7, [r0, #-404]!	; 0xfffffe6c
    b6ec:	006e203d 	rsbeq	r2, lr, sp, lsr r0
    b6f0:	4f525245 	svcmi	0x00525245
    b6f4:	73253a52 	teqvc	r5, #335872	; 0x52000
    b6f8:	3a73253a 	bcc	1cd4be8 <__bss_end__+0x1cc8220>
    b6fc:	203a6425 	eorscs	r6, sl, r5, lsr #8
    b700:	534c4146 	movtpl	r4, #49478	; 0xc146
    b704:	253c2845 	ldrcs	r2, [ip, #-2117]!	; 0x845
    b708:	3a293e73 	bcc	a5b0dc <__bss_end__+0xa4e714>
    b70c:	20657720 	rsbcs	r7, r5, r0, lsr #14
    b710:	796c6e6f 	stmdbvc	ip!, {r0, r1, r2, r3, r5, r6, r9, sl, fp, sp, lr}^
    b714:	6e616820 	cdpvs	8, 6, cr6, cr1, cr0, {1}
    b718:	6e696c64 	cdpvs	12, 6, cr6, cr9, cr4, {3}
    b71c:	20612067 	rsbcs	r2, r1, r7, rrx
    b720:	6c6c7566 	cfstr64vs	mvdx7, [ip], #-408	; 0xfffffe68
    b724:	6f702d79 	svcvs	0x00702d79
    b728:	616c7570 	smcvs	51024	; 0xc750
    b72c:	20646574 	rsbcs	r6, r4, r4, ror r5
    b730:	65676170 	strbvs	r6, [r7, #-368]!	; 0x170
    b734:	62617420 	rsbvs	r7, r1, #32, 8	; 0x20000000
    b738:	7220656c 	eorvc	r6, r0, #108, 10	; 0x1b000000
    b73c:	74686769 	strbtvc	r6, [r8], #-1897	; 0x769
    b740:	776f6e20 	strbvc	r6, [pc, -r0, lsr #28]!
    b744:	0000000a 	andeq	r0, r0, sl
    b748:	3d3d206e 	ldccc	0, cr2, [sp, #-440]!	; 0xfffffe48
    b74c:	39303420 	ldmdbcc	r0!, {r5, sl, ip, sp}
    b750:	00000036 	andeq	r0, r0, r6, lsr r0
    b754:	28282828 	stmdacs	r8!, {r3, r5, fp, sp}
    b758:	746e6975 	strbtvc	r6, [lr], #-2421	; 0x975
    b75c:	745f3233 	ldrbvc	r3, [pc], #-563	; b764 <__FUNCTION__.4528+0x2e0>
    b760:	29747029 	ldmdbcs	r4!, {r0, r3, r5, ip, sp, lr}^
    b764:	28202620 	stmdacs	r0!, {r5, r9, sl, sp}
    b768:	70797428 	rsbsvc	r7, r9, r8, lsr #8
    b76c:	28666f65 	stmdacs	r6!, {r0, r2, r5, r6, r8, r9, sl, fp, sp, lr}^
    b770:	6e697528 	cdpvs	5, 6, cr7, cr9, cr8, {1}
    b774:	5f323374 	svcpl	0x00323374
    b778:	74702974 	ldrbtvc	r2, [r0], #-2420	; 0x974
    b77c:	31282929 	teqcc	r8, r9, lsr #18
    b780:	2d202934 	stccs	9, cr2, [r0, #-208]!	; 0xffffff30
    b784:	29293120 	stmdbcs	r9!, {r5, r8, ip, sp}
    b788:	203d3d20 	eorscs	r3, sp, r0, lsr #26
    b78c:	00002930 	andeq	r2, r0, r0, lsr r9
    b790:	582e3163 	stmdapl	lr!, {r0, r1, r5, r6, r8, ip, sp}
    b794:	74705f50 	ldrbtvc	r5, [r0], #-3920	; 0xf50
    b798:	00000000 	andeq	r0, r0, r0
    b79c:	2e316321 	cdpcs	3, 3, cr6, cr1, cr1, {1}
    b7a0:	5f554d4d 	svcpl	0x00554d4d
    b7a4:	62616e65 	rsbvs	r6, r1, #1616	; 0x650
    b7a8:	0064656c 	rsbeq	r6, r4, ip, ror #10
    b7ac:	4d2e6321 	stcmi	3, cr6, [lr, #-132]!	; 0xffffff7c
    b7b0:	655f554d 	ldrbvs	r5, [pc, #-1357]	; b26b <__data_end__+0x63>
    b7b4:	6c62616e 	stfvse	f6, [r2], #-440	; 0xfffffe48
    b7b8:	00006465 	andeq	r6, r0, r5, ror #8
    b7bc:	432e6321 	teqmi	lr, #-2080374784	; 0x84000000
    b7c0:	696e755f 	stmdbvs	lr!, {r0, r1, r2, r3, r4, r6, r8, sl, ip, sp, lr}^
    b7c4:	64656966 	strbtvs	r6, [r5], #-2406	; 0x966
    b7c8:	616e655f 	cmnvs	lr, pc, asr r5
    b7cc:	00656c62 	rsbeq	r6, r5, r2, ror #24
    b7d0:	4d4d2e63 	stclmi	14, cr2, [sp, #-396]	; 0xfffffe74
    b7d4:	6e655f55 	mcrvs	15, 3, r5, cr5, cr5, {2}
    b7d8:	656c6261 	strbvs	r6, [ip, #-609]!	; 0x261
    b7dc:	00000064 	andeq	r0, r0, r4, rrx
    b7e0:	64697028 	strbtvs	r7, [r9], #-40	; 0x28
    b7e4:	203e3e20 	eorscs	r3, lr, r0, lsr #28
    b7e8:	20293432 	eorcs	r3, r9, r2, lsr r4
    b7ec:	30203d3d 	eorcc	r3, r0, sp, lsr sp
    b7f0:	00000000 	andeq	r0, r0, r0
    b7f4:	20646970 	rsbcs	r6, r4, r0, ror r9
    b7f8:	3436203e 	ldrtcc	r2, [r6], #-62	; 0x3e
    b7fc:	00000000 	andeq	r0, r0, r0
    b800:	64697361 	strbtvs	r7, [r9], #-865	; 0x361
    b804:	36203c20 	strtcc	r3, [r0], -r0, lsr #24
    b808:	26262034 			; <UNDEFINED> instruction: 0x26262034
    b80c:	69736120 	ldmdbvs	r3!, {r5, r8, sp, lr}^
    b810:	00000064 	andeq	r0, r0, r4, rrx
    b814:	494e4150 	stmdbmi	lr, {r4, r6, r8, lr}^
    b818:	73253a43 	teqvc	r5, #274432	; 0x43000
    b81c:	3a73253a 	bcc	1cd4d0c <__bss_end__+0x1cc8344>
    b820:	633a6425 	teqvs	sl, #620756992	; 0x25000000
    b824:	656c6c61 	strbvs	r6, [ip, #-3169]!	; 0xc61
    b828:	6e752064 	cdpvs	0, 7, cr2, cr5, cr4, {3}
    b82c:	6c706d69 	ldclvs	13, cr6, [r0], #-420	; 0xfffffe5c
    b830:	6e656d65 	cdpvs	13, 6, cr6, cr5, cr5, {3}
    b834:	20646574 	rsbcs	r6, r4, r4, ror r5
    b838:	206d7361 	rsbcs	r7, sp, r1, ror #6
    b83c:	74756f72 	ldrbtvc	r6, [r5], #-3954	; 0xf72
    b840:	20656e69 	rsbcs	r6, r5, r9, ror #28
    b844:	25207461 	strcs	r7, [r0, #-1121]!	; 0x461
    b848:	000a0a78 	andeq	r0, sl, r8, ror sl
    b84c:	48534148 	ldmdami	r3, {r3, r6, r8, lr}^
    b850:	3a73253a 	bcc	1cd4d40 <__bss_end__+0x1cc8378>
    b854:	73616820 	cmnvc	r1, #32, 16	; 0x200000
    b858:	78253d68 	stmdavc	r5!, {r3, r5, r6, r8, sl, fp, ip, sp}
    b85c:	79626e2c 	stmdbvc	r2!, {r2, r3, r5, r9, sl, fp, sp, lr}^
    b860:	3d736574 	cfldr64cc	mvdx6, [r3, #-464]!	; 0xfffffe30
    b864:	000a6425 	andeq	r6, sl, r5, lsr #8
    b868:	616d6f64 	cmnvs	sp, r4, ror #30
    b86c:	61206e69 	teqvs	r0, r9, ror #28
    b870:	73656363 	cmnvc	r5, #-1946157055	; 0x8c000001
    b874:	6f632073 	svcvs	0x00632073
    b878:	6f72746e 	svcvs	0x0072746e
    b87c:	000a3a6c 	andeq	r3, sl, ip, ror #20
    b880:	0a622509 	beq	1894cac <__bss_end__+0x18882e4>
    b884:	00000000 	andeq	r0, r0, r0
    b888:	494e4150 	stmdbmi	lr, {r4, r6, r8, lr}^
    b88c:	73253a43 	teqvc	r5, #274432	; 0x43000
    b890:	3a73253a 	bcc	1cd4d80 <__bss_end__+0x1cc83b8>
    b894:	6f3a6425 	svcvs	0x003a6425
    b898:	65736666 	ldrbvs	r6, [r3, #-1638]!	; 0x666
    b89c:	72772074 	rsbsvc	r2, r7, #116	; 0x74
    b8a0:	3a676e6f 	bcc	19e7264 <__bss_end__+0x19da89c>
    b8a4:	70786520 	rsbsvc	r6, r8, r0, lsr #10
    b8a8:	20746365 	rsbscs	r6, r4, r5, ror #6
    b8ac:	67207825 	strvs	r7, [r0, -r5, lsr #16]!
    b8b0:	2520746f 	strcs	r7, [r0, #-1135]!	; 0x46f
    b8b4:	73252078 	teqvc	r5, #120	; 0x78
    b8b8:	666f5b20 	strbtvs	r5, [pc], -r0, lsr #22
    b8bc:	64253d66 	strtvs	r3, [r5], #-3430	; 0xd66
    b8c0:	69626e2c 	stmdbvs	r2!, {r2, r3, r5, r9, sl, fp, sp, lr}^
    b8c4:	253d7374 	ldrcs	r7, [sp, #-884]!	; 0x374
    b8c8:	0a0a5d64 	beq	2a2e60 <__bss_end__+0x296498>
    b8cc:	00000000 	andeq	r0, r0, r0
    b8d0:	2d756d6d 	ldclcs	13, cr6, [r5, #-436]!	; 0xfffffe4c
    b8d4:	706c6568 	rsbvc	r6, ip, r8, ror #10
    b8d8:	2e737265 	cdpcs	2, 7, cr7, cr3, cr5, {3}
    b8dc:	00000063 	andeq	r0, r0, r3, rrx
    b8e0:	20752e78 	rsbscs	r2, r5, r8, ror lr
    b8e4:	65203d3d 	strvs	r3, [r0, #-3389]!	; 0xd3d
    b8e8:	00007078 	andeq	r7, r0, r8, ror r0
    b8ec:	494e4150 	stmdbmi	lr, {r4, r6, r8, lr}^
    b8f0:	73253a43 	teqvc	r5, #274432	; 0x43000
    b8f4:	3a73253a 	bcc	1cd4de4 <__bss_end__+0x1cc841c>
    b8f8:	773a6425 	ldrvc	r6, [sl, -r5, lsr #8]!
    b8fc:	68746469 	ldmdavs	r4!, {r0, r3, r5, r6, sl, sp, lr}^
    b900:	6f727720 	svcvs	0x00727720
    b904:	203a676e 	eorscs	r6, sl, lr, ror #14
    b908:	65707865 	ldrbvs	r7, [r0, #-2149]!	; 0x865
    b90c:	25207463 	strcs	r7, [r0, #-1123]!	; 0x463
    b910:	6f672078 	svcvs	0x00672078
    b914:	78252074 	stmdavc	r5!, {r2, r4, r5, r6, sp}
    b918:	20732520 	rsbscs	r2, r3, r0, lsr #10
    b91c:	66666f5b 	uqsaxvs	r6, r6, fp
    b920:	2c64253d 	cfstr64cs	mvdx2, [r4], #-244	; 0xffffff0c
    b924:	7469626e 	strbtvc	r6, [r9], #-622	; 0x26e
    b928:	64253d73 	strtvs	r3, [r5], #-3443	; 0xd73
    b92c:	000a0a5d 	andeq	r0, sl, sp, asr sl
    b930:	6c615f41 	stclvs	15, cr5, [r1], #-260	; 0xfffffefc
    b934:	6d6e6769 	stclvs	7, cr6, [lr, #-420]!	; 0xfffffe5c
    b938:	00746e65 	rsbseq	r6, r4, r5, ror #28
    b93c:	72775f57 	rsbsvc	r5, r7, #348	; 0x15c
    b940:	5f657469 	svcpl	0x00657469
    b944:	00667562 	rsbeq	r7, r6, r2, ror #10
    b948:	6e655f42 	cdpvs	15, 6, cr5, cr5, cr2, {2}
    b94c:	6e616964 	cdpvs	9, 6, cr6, cr1, cr4, {3}
    b950:	00000000 	andeq	r0, r0, r0
    b954:	72705f53 	rsbsvc	r5, r0, #332	; 0x14c
    b958:	0000746f 	andeq	r7, r0, pc, ror #8
    b95c:	6f725f52 	svcvs	0x00725f52
    b960:	72705f6d 	rsbsvc	r5, r0, #436	; 0x1b4
    b964:	0000746f 	andeq	r7, r0, pc, ror #8
    b968:	00000046 	andeq	r0, r0, r6, asr #32
    b96c:	72625f5a 	rsbvc	r5, r2, #360	; 0x168
    b970:	68636e61 	stmdavs	r3!, {r0, r5, r6, r9, sl, fp, sp, lr}^
    b974:	6572705f 	ldrbvs	r7, [r2, #-95]!	; 0x5f
    b978:	00000064 	andeq	r0, r0, r4, rrx
    b97c:	69685f56 	stmdbvs	r8!, {r1, r2, r4, r6, r8, r9, sl, fp, ip, lr}^
    b980:	655f6867 	ldrbvs	r6, [pc, #-2151]	; b121 <kmalloc_aligned+0x1>
    b984:	70656378 	rsbvc	r6, r5, r8, ror r3
    b988:	00765f74 	rsbseq	r5, r6, r4, ror pc
    b98c:	635f5252 	cmpvs	pc, #536870917	; 0x20000005
    b990:	65686361 	strbvs	r6, [r8, #-865]!	; 0x361
    b994:	7065725f 	rsbvc	r7, r5, pc, asr r2
    b998:	00000000 	andeq	r0, r0, r0
    b99c:	0000344c 	andeq	r3, r0, ip, asr #8
    b9a0:	00003146 	andeq	r3, r0, r6, asr #2
    b9a4:	6e755f55 	mrcvs	15, 3, r5, cr5, cr5, {2}
    b9a8:	67696c61 	strbvs	r6, [r9, -r1, ror #24]!
    b9ac:	0064656e 	rsbeq	r6, r4, lr, ror #10
    b9b0:	705f5058 	subsvc	r5, pc, r8, asr r0	; <UNPREDICTABLE>
    b9b4:	00000074 	andeq	r0, r0, r4, ror r0
    b9b8:	765f4556 			; <UNDEFINED> instruction: 0x765f4556
    b9bc:	5f746365 	svcpl	0x00746365
    b9c0:	00746e69 	rsbseq	r6, r4, r9, ror #28
    b9c4:	00004545 	andeq	r4, r0, r5, asr #10
    b9c8:	745f5254 	ldrbvc	r5, [pc], #-596	; b9d0 <__FUNCTION__.4528+0x54c>
    b9cc:	725f7865 	subsvc	r7, pc, #6619136	; 0x650000
    b9d0:	70616d65 	rsbvc	r6, r1, r5, ror #26
    b9d4:	00000000 	andeq	r0, r0, r0
    b9d8:	665f4146 	ldrbvs	r4, [pc], -r6, asr #2
    b9dc:	6563726f 	strbvs	r7, [r3, #-623]!	; 0x26f
    b9e0:	0070615f 	rsbseq	r6, r0, pc, asr r1
    b9e4:	5f3e2d72 	svcpl	0x003e2d72
    b9e8:	73756e75 	cmnvc	r5, #1872	; 0x750
    b9ec:	20316465 	eorscs	r6, r1, r5, ror #8
    b9f0:	30203d3d 	eorcc	r3, r0, sp, lsr sp
    b9f4:	31313162 	teqcc	r1, r2, ror #2
    b9f8:	00000000 	andeq	r0, r0, r0
    b9fc:	5f3e2d72 	svcpl	0x003e2d72
    ba00:	3d207464 	cfstrscc	mvf7, [r0, #-400]!	; 0xfffffe70
    ba04:	0031203d 	eorseq	r2, r1, sp, lsr r0
    ba08:	5f3e2d72 	svcpl	0x003e2d72
    ba0c:	3d207469 	cfstrscc	mvf7, [r0, #-420]!	; 0xfffffe5c
    ba10:	0031203d 	eorseq	r2, r1, sp, lsr r0
    ba14:	5f3e2d72 	svcpl	0x003e2d72
    ba18:	307a6273 	rsbscc	r6, sl, r3, ror r2
    ba1c:	203d3d20 	eorscs	r3, sp, r0, lsr #26
    ba20:	00000030 	andeq	r0, r0, r0, lsr r0
    ba24:	5f3e2d72 	svcpl	0x003e2d72
    ba28:	317a6273 	cmncc	sl, r3, ror r2
    ba2c:	203d3d20 	eorscs	r3, sp, r0, lsr #26
    ba30:	00000030 	andeq	r0, r0, r0, lsr r0
    ba34:	5f3e2d72 	svcpl	0x003e2d72
    ba38:	3d207473 	cfstrscc	mvf7, [r0, #-460]!	; 0xfffffe34
    ba3c:	0030203d 	eorseq	r2, r0, sp, lsr r0
    ba40:	3e2d7221 	cdpcc	2, 2, cr7, cr13, cr1, {1}
    ba44:	655f324c 	ldrbvs	r3, [pc, #-588]	; b800 <__FUNCTION__.4528+0x37c>
    ba48:	6c62616e 	stfvse	f6, [r2], #-440	; 0xfffffe48
    ba4c:	00006465 	andeq	r6, r0, r5, ror #8
    ba50:	3e2d7221 	cdpcc	2, 2, cr7, cr13, cr1, {1}
    ba54:	63695f49 	cmnvs	r9, #292	; 0x124
    ba58:	65686361 	strbvs	r6, [r8, #-865]!	; 0x361
    ba5c:	616e655f 	cmnvs	lr, pc, asr r5
    ba60:	00656c62 	rsbeq	r6, r5, r2, ror #24
    ba64:	3e2d7221 	cdpcc	2, 2, cr7, cr13, cr1, {1}
    ba68:	6e755f43 	cdpvs	15, 7, cr5, cr5, cr3, {2}
    ba6c:	65696669 	strbvs	r6, [r9, #-1641]!	; 0x669
    ba70:	6e655f64 	cdpvs	15, 6, cr5, cr5, cr4, {3}
    ba74:	656c6261 	strbvs	r6, [ip, #-609]!	; 0x261
    ba78:	00000000 	andeq	r0, r0, r0
    ba7c:	74737973 	ldrbtvc	r7, [r3], #-2419	; 0x973
    ba80:	63206d65 	teqvs	r0, #6464	; 0x1940
    ba84:	72746e6f 	rsbsvc	r6, r4, #1776	; 0x6f0
    ba88:	72206c6f 	eorvc	r6, r0, #28416	; 0x6f00
    ba8c:	0a3d6765 	beq	f65828 <__bss_end__+0xf58e60>
    ba90:	00000000 	andeq	r0, r0, r0
    ba94:	25623009 	strbcs	r3, [r2, #-9]!
    ba98:	203d0962 	eorscs	r0, sp, r2, ror #18
    ba9c:	000a7325 	andeq	r7, sl, r5, lsr #6
    baa0:	25783009 	ldrbcs	r3, [r8, #-9]!
    baa4:	00000a78 	andeq	r0, r0, r8, ror sl
    baa8:	66696e75 			; <UNDEFINED> instruction: 0x66696e75
    baac:	5f646569 	svcpl	0x00646569
    bab0:	00000070 	andeq	r0, r0, r0, ror r0
    bab4:	5f645f6e 	svcpl	0x00645f6e
    bab8:	6b636f6c 	blvs	18e7870 <__bss_end__+0x18daea8>
    babc:	00000000 	andeq	r0, r0, r0
    bac0:	5f695f6e 	svcpl	0x00695f6e
    bac4:	6b636f6c 	blvs	18e787c <__bss_end__+0x18daeb4>
    bac8:	00000000 	andeq	r0, r0, r0
    bacc:	20424c54 	subcs	r4, r2, r4, asr ip
    bad0:	666e6f63 	strbtvs	r6, [lr], -r3, ror #30
    bad4:	0a3a6769 	beq	ea5880 <__bss_end__+0xe98eb8>
    bad8:	00000000 	andeq	r0, r0, r0
    badc:	696e7509 	stmdbvs	lr!, {r0, r3, r8, sl, ip, sp, lr}^
    bae0:	64656966 	strbtvs	r6, [r5], #-2406	; 0x966
    bae4:	0a64253d 	beq	1914fe0 <__bss_end__+0x1908618>
    bae8:	00000000 	andeq	r0, r0, r0
    baec:	636f6c09 	cmnvs	pc, #2304	; 0x900
    baf0:	6c62616b 	stfvse	f6, [r2], #-428	; 0xfffffe54
    baf4:	61642065 	cmnvs	r4, r5, rrx
    baf8:	65206174 	strvs	r6, [r0, #-372]!	; 0x174
    bafc:	253d746e 	ldrcs	r7, [sp, #-1134]!	; 0x46e
    bb00:	00000a64 	andeq	r0, r0, r4, ror #20
    bb04:	636f6c09 	cmnvs	pc, #2304	; 0x900
    bb08:	6c62616b 	stfvse	f6, [r2], #-428	; 0xfffffe54
    bb0c:	6e692065 	cdpvs	0, 6, cr2, cr9, cr5, {3}
    bb10:	65207473 	strvs	r7, [r0, #-1139]!	; 0x473
    bb14:	253d746e 	ldrcs	r7, [sp, #-1134]!	; 0x46e
    bb18:	00000a64 	andeq	r0, r0, r4, ror #20
    bb1c:	5f3e2d66 	svcpl	0x003e2d66
    bb20:	317a6273 	cmncc	sl, r3, ror r2
    bb24:	203d3d20 	eorscs	r3, sp, r0, lsr #26
    bb28:	00000030 	andeq	r0, r0, r0, lsr r0
    bb2c:	743e2d66 	ldrtvc	r2, [lr], #-3430	; 0xd66
    bb30:	3d206761 	stccc	7, cr6, [r0, #-388]!	; 0xfffffe7c
    bb34:	6230203d 	eorsvs	r2, r0, #61	; 0x3d
    bb38:	00003031 	andeq	r3, r0, r1, lsr r0
    bb3c:	533e2d66 	teqpl	lr, #6528	; 0x1980
    bb40:	203d3d20 	eorscs	r3, sp, r0, lsr #26
    bb44:	00000030 	andeq	r0, r0, r0, lsr r0
    bb48:	493e2d66 	ldmdbmi	lr!, {r1, r2, r5, r6, r8, sl, fp, sp}
    bb4c:	3d20504d 	stccc	0, cr5, [r0, #-308]!	; 0xfffffecc
    bb50:	0030203d 	eorseq	r2, r0, sp, lsr r0
    bb54:	543e2d66 	ldrtpl	r2, [lr], #-3430	; 0xd66
    bb58:	3d205845 	stccc	8, cr5, [r0, #-276]!	; 0xfffffeec
    bb5c:	0030203d 	eorseq	r2, r0, sp, lsr r0
    bb60:	433e2d66 	teqmi	lr, #6528	; 0x1980
    bb64:	203d3d20 	eorscs	r3, sp, r0, lsr #26
    bb68:	00000030 	andeq	r0, r0, r0, lsr r0
    bb6c:	423e2d66 	eorsmi	r2, lr, #6528	; 0x1980
    bb70:	203d3d20 	eorscs	r3, sp, r0, lsr #26
    bb74:	00000030 	andeq	r0, r0, r0, lsr r0
    bb78:	733e2d66 	teqvc	lr, #6528	; 0x1980
    bb7c:	72657075 	rsbvc	r7, r5, #117	; 0x75
    bb80:	203d3d20 	eorscs	r3, sp, r0, lsr #26
    bb84:	00000030 	andeq	r0, r0, r0, lsr r0
    bb88:	00676174 	rsbeq	r6, r7, r4, ror r1
    bb8c:	00000042 	andeq	r0, r0, r2, asr #32
    bb90:	00000043 	andeq	r0, r0, r3, asr #32
    bb94:	00004e58 	andeq	r4, r0, r8, asr lr
    bb98:	616d6f64 	cmnvs	sp, r4, ror #30
    bb9c:	00006e69 	andeq	r6, r0, r9, ror #28
    bba0:	00504d49 	subseq	r4, r0, r9, asr #26
    bba4:	00005041 	andeq	r5, r0, r1, asr #32
    bba8:	00584554 	subseq	r4, r8, r4, asr r5
    bbac:	00585041 	subseq	r5, r8, r1, asr #32
    bbb0:	00000053 	andeq	r0, r0, r3, asr r0
    bbb4:	0000476e 	andeq	r4, r0, lr, ror #14
    bbb8:	65707573 	ldrbvs	r7, [r0, #-1395]!	; 0x573
    bbbc:	00000072 	andeq	r0, r0, r2, ror r0
    bbc0:	5f636573 	svcpl	0x00636573
    bbc4:	65736162 	ldrbvs	r6, [r3, #-354]!	; 0x162
    bbc8:	6464615f 	strbtvs	r6, [r4], #-351	; 0x15f
    bbcc:	00000072 	andeq	r0, r0, r2, ror r0
    bbd0:	2d2d2d2d 	stccs	13, cr2, [sp, #-180]!	; 0xffffff4c
    bbd4:	2d2d2d2d 	stccs	13, cr2, [sp, #-180]!	; 0xffffff4c
    bbd8:	2d2d2d2d 	stccs	13, cr2, [sp, #-180]!	; 0xffffff4c
    bbdc:	2d2d2d2d 	stccs	13, cr2, [sp, #-180]!	; 0xffffff4c
    bbe0:	2d2d2d2d 	stccs	13, cr2, [sp, #-180]!	; 0xffffff4c
    bbe4:	2d2d2d2d 	stccs	13, cr2, [sp, #-180]!	; 0xffffff4c
    bbe8:	2d2d2d2d 	stccs	13, cr2, [sp, #-180]!	; 0xffffff4c
    bbec:	000a2d2d 	andeq	r2, sl, sp, lsr #26
    bbf0:	78257830 	stmdavc	r5!, {r4, r5, fp, ip, sp, lr}
    bbf4:	00000a3a 	andeq	r0, r0, sl, lsr sl
    bbf8:	2d202009 	stccs	0, cr2, [r0, #-36]!	; 0xffffffdc
    bbfc:	76203e2d 	strtvc	r3, [r0], -sp, lsr #28
    bc00:	78303d61 	ldmdavc	r0!, {r0, r5, r6, r8, sl, fp, ip, sp}
    bc04:	0a783825 	beq	1e19ca0 <__bss_end__+0x1e0d2d8>
    bc08:	00000000 	andeq	r0, r0, r0
    bc0c:	20202009 	eorcs	r2, r0, r9
    bc10:	20202020 	eorcs	r2, r0, r0, lsr #32
    bc14:	20202020 	eorcs	r2, r0, r0, lsr #32
    bc18:	34353637 	ldrtcc	r3, [r5], #-1591	; 0x637
    bc1c:	30313233 	eorscc	r3, r1, r3, lsr r2
    bc20:	0000000a 	andeq	r0, r0, sl

0000bc24 <__FUNCTION__.4576>:
    bc24:	746e6f63 	strbtvc	r6, [lr], #-3939	; 0xf63
    bc28:	5f6c6f72 	svcpl	0x006c6f72
    bc2c:	31676572 	smccc	30290	; 0x7652
    bc30:	6e61735f 	mcrvs	3, 3, r7, cr1, cr15, {2}
    bc34:	5f797469 	svcpl	0x00797469
    bc38:	63656863 	cmnvs	r5, #6488064	; 0x630000
    bc3c:	0000006b 	andeq	r0, r0, fp, rrx

0000bc40 <__FUNCTION__.4619>:
    bc40:	5f646c66 	svcpl	0x00646c66
    bc44:	63656863 	cmnvs	r5, #6488064	; 0x630000
    bc48:	61765f6b 	cmnvs	r6, fp, ror #30
    bc4c:	0064696c 	rsbeq	r6, r4, ip, ror #18

0000bc50 <__FUNCTION__.4390>:
    bc50:	746e6f63 	strbtvc	r6, [lr], #-3939	; 0xf63
    bc54:	5f6c6f72 	svcpl	0x006c6f72
    bc58:	31676572 	smccc	30290	; 0x7652
    bc5c:	6568635f 	strbvs	r6, [r8, #-863]!	; 0x35f
    bc60:	6f5f6b63 	svcvs	0x005f6b63
    bc64:	65736666 	ldrbvs	r6, [r3, #-1638]!	; 0x666
    bc68:	00007374 	andeq	r7, r0, r4, ror r3

0000bc6c <__FUNCTION__.4592>:
    bc6c:	5f626c74 	svcpl	0x00626c74
    bc70:	666e6f63 	strbtvs	r6, [lr], -r3, ror #30
    bc74:	635f6769 	cmpvs	pc, #27525120	; 0x1a40000
    bc78:	6b636568 	blvs	18e5220 <__bss_end__+0x18d8858>
    bc7c:	66666f5f 	uqsaxvs	r6, r6, pc	; <UNPREDICTABLE>
    bc80:	73746573 	cmnvc	r4, #482344960	; 0x1cc00000
    bc84:	00000000 	andeq	r0, r0, r0

0000bc88 <__FUNCTION__.4628>:
    bc88:	5f646c66 	svcpl	0x00646c66
    bc8c:	63656863 	cmnvs	r5, #6488064	; 0x630000
    bc90:	666f5f6b 	strbtvs	r5, [pc], -fp, ror #30
    bc94:	74657366 	strbtvc	r7, [r5], #-870	; 0x366
    bc98:	00000073 	andeq	r0, r0, r3, ror r0
    bc9c:	636d656d 	cmnvs	sp, #457179136	; 0x1b400000
    bca0:	6b636568 	blvs	18e5248 <__bss_end__+0x18d8880>
    bca4:	0000632e 	andeq	r6, r0, lr, lsr #6
    bca8:	61662e6c 	cmnvs	r6, ip, ror #28
    bcac:	5f746c75 	svcpl	0x00746c75
    bcb0:	72646461 	rsbvc	r6, r4, #1627389952	; 0x61000000
    bcb4:	203d3d20 	eorscs	r3, sp, r0, lsr #26
    bcb8:	72646461 	rsbvc	r6, r4, #1627389952	; 0x61000000
    bcbc:	00000000 	andeq	r0, r0, r0
    bcc0:	61662e6c 	cmnvs	r6, ip, ror #28
    bcc4:	5f746c75 	svcpl	0x00746c75
    bcc8:	3d206370 	stccc	3, cr6, [r0, #-448]!	; 0xfffffe40
    bccc:	6370203d 	cmnvs	r0, #61	; 0x3d
    bcd0:	00000000 	andeq	r0, r0, r0
    bcd4:	61662e6c 	cmnvs	r6, ip, ror #28
    bcd8:	5f746c75 	svcpl	0x00746c75
    bcdc:	73616572 	cmnvc	r1, #478150656	; 0x1c800000
    bce0:	3d206e6f 	stccc	14, cr6, [r0, #-444]!	; 0xfffffe44
    bce4:	6572203d 	ldrbvs	r2, [r2, #-61]!	; 0x3d
    bce8:	6e6f7361 	cdpvs	3, 6, cr7, cr15, cr1, {3}
    bcec:	00000000 	andeq	r0, r0, r0
    bcf0:	20776173 	rsbscs	r6, r7, r3, ror r1
    bcf4:	65707865 	ldrbvs	r7, [r0, #-2149]!	; 0x865
    bcf8:	64657463 	strbtvs	r7, [r5], #-1123	; 0x463
    bcfc:	75616620 	strbvc	r6, [r1, #-1568]!	; 0x620
    bd00:	6120746c 	teqvs	r0, ip, ror #8
    bd04:	63702074 	cmnvs	r0, #116	; 0x74
    bd08:	2c70253d 	cfldr64cs	mvdx2, [r0], #-244	; 0xffffff0c
    bd0c:	64646120 	strbtvs	r6, [r4], #-288	; 0x120
    bd10:	70253d72 	eorvc	r3, r5, r2, ror sp
    bd14:	6572202c 	ldrbvs	r2, [r2, #-44]!	; 0x2c
    bd18:	6e6f7361 	cdpvs	3, 6, cr7, cr15, cr1, {3}
    bd1c:	0a64253d 	beq	1915218 <__bss_end__+0x1908850>
    bd20:	00000000 	andeq	r0, r0, r0
    bd24:	2d746962 	ldclcs	9, cr6, [r4, #-392]!	; 0xfffffe78
    bd28:	70707573 	rsbsvc	r7, r0, r3, ror r5
    bd2c:	2e74726f 	cdpcs	2, 7, cr7, cr4, cr15, {3}
    bd30:	00000068 	andeq	r0, r0, r8, rrx
    bd34:	3c20626c 	sfmcc	f6, 4, [r0], #-432	; 0xfffffe50
    bd38:	6275203d 	rsbsvs	r2, r5, #61	; 0x3d
    bd3c:	00000000 	andeq	r0, r0, r0
    bd40:	3c206275 	sfmcc	f6, 4, [r0], #-468	; 0xfffffe2c
    bd44:	00323320 	eorseq	r3, r2, r0, lsr #6
    bd48:	6d726570 	cfldr64vs	mvdx6, [r2, #-448]!	; 0xfffffe40
    bd4c:	203d3d20 	eorscs	r3, sp, r0, lsr #26
    bd50:	5f4d4f44 	svcpl	0x004d4f44
    bd54:	65696c63 	strbvs	r6, [r9, #-3171]!	; 0xc63
    bd58:	7c20746e 	cfstrsvc	mvf7, [r0], #-440	; 0xfffffe48
    bd5c:	6570207c 	ldrbvs	r2, [r0, #-124]!	; 0x7c
    bd60:	3d206d72 	stccc	13, cr6, [r0, #-456]!	; 0xfffffe38
    bd64:	4f44203d 	svcmi	0x0044203d
    bd68:	6f6e5f4d 	svcvs	0x006e5f4d
    bd6c:	6363615f 	cmnvs	r3, #-1073741801	; 0xc0000017
    bd70:	00737365 	rsbseq	r7, r3, r5, ror #6
    bd74:	64206e49 	strtvs	r6, [r0], #-3657	; 0xe49
    bd78:	20617461 	rsbcs	r7, r1, r1, ror #8
    bd7c:	726f6261 	rsbvc	r6, pc, #268435462	; 0x10000006
    bd80:	65762074 	ldrbvs	r2, [r6, #-116]!	; 0x74
    bd84:	726f7463 	rsbvc	r7, pc, #1660944384	; 0x63000000
    bd88:	0000000a 	andeq	r0, r0, sl
    bd8c:	494e4150 	stmdbmi	lr, {r4, r6, r8, lr}^
    bd90:	73253a43 	teqvc	r5, #274432	; 0x43000
    bd94:	3a73253a 	bcc	1cd5284 <__bss_end__+0x1cc88bc>
    bd98:	413a6425 	teqmi	sl, r5, lsr #8
    bd9c:	6e67696c 	cdpvs	9, 6, cr6, cr7, cr12, {3}
    bda0:	746e656d 	strbtvc	r6, [lr], #-1389	; 0x56d
    bda4:	75616620 	strbvc	r6, [r1, #-1568]!	; 0x620
    bda8:	0a0a746c 	beq	2a8f60 <__bss_end__+0x29c598>
    bdac:	00000000 	andeq	r0, r0, r0
    bdb0:	494e4150 	stmdbmi	lr, {r4, r6, r8, lr}^
    bdb4:	73253a43 	teqvc	r5, #274432	; 0x43000
    bdb8:	3a73253a 	bcc	1cd52a8 <__bss_end__+0x1cc88e0>
    bdbc:	543a6425 	ldrtpl	r6, [sl], #-1061	; 0x425
    bdc0:	4d20424c 	sfmmi	f4, 4, [r0, #-304]!	; 0xfffffed0
    bdc4:	20737369 	rsbscs	r7, r3, r9, ror #6
    bdc8:	00000a0a 	andeq	r0, r0, sl, lsl #20
    bdcc:	494e4150 	stmdbmi	lr, {r4, r6, r8, lr}^
    bdd0:	73253a43 	teqvc	r5, #274432	; 0x43000
    bdd4:	3a73253a 	bcc	1cd52c4 <__bss_end__+0x1cc88fc>
    bdd8:	443a6425 	ldrtmi	r6, [sl], #-1061	; 0x425
    bddc:	41207065 	teqmi	r0, r5, rrx
    bde0:	6e67696c 	cdpvs	9, 6, cr6, cr7, cr12, {3}
    bde4:	746e656d 	strbtvc	r6, [lr], #-1389	; 0x56d
    bde8:	75616620 	strbvc	r6, [r1, #-1568]!	; 0x620
    bdec:	0a0a746c 	beq	2a8fa4 <__bss_end__+0x29c5dc>
    bdf0:	00000000 	andeq	r0, r0, r0
    bdf4:	494e4150 	stmdbmi	lr, {r4, r6, r8, lr}^
    bdf8:	73253a43 	teqvc	r5, #274432	; 0x43000
    bdfc:	3a73253a 	bcc	1cd52ec <__bss_end__+0x1cc8924>
    be00:	493a6425 	ldmdbmi	sl!, {r0, r2, r5, sl, sp, lr}
    be04:	68636143 	stmdavs	r3!, {r0, r1, r6, r8, sp, lr}^
    be08:	614d2065 	cmpvs	sp, r5, rrx
    be0c:	65746e69 	ldrbvs	r6, [r4, #-3689]!	; 0xe69
    be10:	636e616e 	cmnvs	lr, #-2147483621	; 0x8000001b
    be14:	61662065 	cmnvs	r6, r5, rrx
    be18:	0a746c75 	beq	1d26ff4 <__bss_end__+0x1d1a62c>
    be1c:	0000000a 	andeq	r0, r0, sl
    be20:	494e4150 	stmdbmi	lr, {r4, r6, r8, lr}^
    be24:	73253a43 	teqvc	r5, #274432	; 0x43000
    be28:	3a73253a 	bcc	1cd5318 <__bss_end__+0x1cc8950>
    be2c:	543a6425 	ldrtpl	r6, [sl], #-1061	; 0x425
    be30:	736e6172 	cmnvc	lr, #-2147483620	; 0x8000001c
    be34:	6974616c 	ldmdbvs	r4!, {r2, r3, r5, r6, r8, sp, lr}^
    be38:	4c206e6f 	stcmi	14, cr6, [r0], #-444	; 0xfffffe44
    be3c:	6c657665 	stclvs	6, cr7, [r5], #-404	; 0xfffffe6c
    be40:	66203120 	strtvs	r3, [r0], -r0, lsr #2
    be44:	746c7561 	strbtvc	r7, [ip], #-1377	; 0x561
    be48:	00000a0a 	andeq	r0, r0, sl, lsl #20
    be4c:	494e4150 	stmdbmi	lr, {r4, r6, r8, lr}^
    be50:	73253a43 	teqvc	r5, #274432	; 0x43000
    be54:	3a73253a 	bcc	1cd5344 <__bss_end__+0x1cc897c>
    be58:	543a6425 	ldrtpl	r6, [sl], #-1061	; 0x425
    be5c:	736e6172 	cmnvc	lr, #-2147483620	; 0x8000001c
    be60:	6974616c 	ldmdbvs	r4!, {r2, r3, r5, r6, r8, sp, lr}^
    be64:	6c206e6f 	stcvs	14, cr6, [r0], #-444	; 0xfffffe44
    be68:	6c657665 	stclvs	6, cr7, [r5], #-404	; 0xfffffe6c
    be6c:	66203220 	strtvs	r3, [r0], -r0, lsr #4
    be70:	746c7561 	strbtvc	r7, [ip], #-1377	; 0x561
    be74:	00000a0a 	andeq	r0, r0, sl, lsl #20
    be78:	74636573 	strbtvc	r6, [r3], #-1395	; 0x573
    be7c:	206e6f69 	rsbcs	r6, lr, r9, ror #30
    be80:	74616c78 	strbtvc	r6, [r1], #-3192	; 0xc78
    be84:	61662065 	cmnvs	r6, r5, rrx
    be88:	3a746c75 	bcc	1d27064 <__bss_end__+0x1d1a69c>
    be8c:	64646120 	strbtvs	r6, [r4], #-288	; 0x120
    be90:	70253d72 	eorvc	r3, r5, r2, ror sp
    be94:	7461202c 	strbtvc	r2, [r1], #-44	; 0x2c
    be98:	3d637020 	stclcc	0, cr7, [r3, #-128]!	; 0xffffff80
    be9c:	000a7025 	andeq	r7, sl, r5, lsr #32
    bea0:	494e4150 	stmdbmi	lr, {r4, r6, r8, lr}^
    bea4:	73253a43 	teqvc	r5, #274432	; 0x43000
    bea8:	3a73253a 	bcc	1cd5398 <__bss_end__+0x1cc89d0>
    beac:	543a6425 	ldrtpl	r6, [sl], #-1061	; 0x425
    beb0:	736e6172 	cmnvc	lr, #-2147483620	; 0x8000001c
    beb4:	6974616c 	ldmdbvs	r4!, {r2, r3, r5, r6, r8, sp, lr}^
    beb8:	70206e6f 	eorvc	r6, r0, pc, ror #28
    bebc:	20656761 	rsbcs	r6, r5, r1, ror #14
    bec0:	6c756166 	ldfvse	f6, [r5], #-408	; 0xfffffe68
    bec4:	000a0a74 	andeq	r0, sl, r4, ror sl
    bec8:	616d6f44 	cmnvs	sp, r4, asr #30
    becc:	73206e69 	teqvc	r0, #1680	; 0x690
    bed0:	69746365 	ldmdbvs	r4!, {r0, r2, r5, r6, r8, r9, sp, lr}^
    bed4:	66206e6f 	strtvs	r6, [r0], -pc, ror #28
    bed8:	746c7561 	strbtvc	r7, [ip], #-1377	; 0x561
    bedc:	0000000a 	andeq	r0, r0, sl
    bee0:	6e696f47 	cdpvs	15, 6, cr6, cr9, cr7, {2}
    bee4:	6f742067 	svcvs	0x00742067
    bee8:	65696420 	strbvs	r6, [r9, #-1056]!	; 0x420
    beec:	00000a21 	andeq	r0, r0, r1, lsr #20
    bef0:	6e696f67 	cdpvs	15, 6, cr6, cr9, cr7, {3}
    bef4:	6f742067 	svcvs	0x00742067
    bef8:	79727420 	ldmdbvc	r2!, {r5, sl, ip, sp, lr}^
    befc:	206f7420 	rsbcs	r7, pc, r0, lsr #8
    bf00:	75736572 	ldrbvc	r6, [r3, #-1394]!	; 0x572
    bf04:	000a656d 	andeq	r6, sl, sp, ror #10
    bf08:	494e4150 	stmdbmi	lr, {r4, r6, r8, lr}^
    bf0c:	73253a43 	teqvc	r5, #274432	; 0x43000
    bf10:	3a73253a 	bcc	1cd5400 <__bss_end__+0x1cc8a38>
    bf14:	443a6425 	ldrtmi	r6, [sl], #-1061	; 0x425
    bf18:	69616d6f 	stmdbvs	r1!, {r0, r1, r2, r3, r5, r6, r8, sl, fp, sp, lr}^
    bf1c:	6170206e 	cmnvs	r0, lr, rrx
    bf20:	66206567 	strtvs	r6, [r0], -r7, ror #10
    bf24:	746c7561 	strbtvc	r7, [ip], #-1377	; 0x561
    bf28:	00000a0a 	andeq	r0, r0, sl, lsl #20
    bf2c:	494e4150 	stmdbmi	lr, {r4, r6, r8, lr}^
    bf30:	73253a43 	teqvc	r5, #274432	; 0x43000
    bf34:	3a73253a 	bcc	1cd5424 <__bss_end__+0x1cc8a5c>
    bf38:	733a6425 	teqvc	sl, #620756992	; 0x25000000
    bf3c:	69746365 	ldmdbvs	r4!, {r0, r2, r5, r6, r8, r9, sp, lr}^
    bf40:	70206e6f 	eorvc	r6, r0, pc, ror #28
    bf44:	696d7265 	stmdbvs	sp!, {r0, r2, r5, r6, r9, ip, sp, lr}^
    bf48:	6f697373 	svcvs	0x00697373
    bf4c:	6166206e 	cmnvs	r6, lr, rrx
    bf50:	3a746c75 	bcc	1d2712c <__bss_end__+0x1d1a764>
    bf54:	0a782520 	beq	1e153dc <__bss_end__+0x1e08a14>
    bf58:	00000000 	andeq	r0, r0, r0
    bf5c:	494e4150 	stmdbmi	lr, {r4, r6, r8, lr}^
    bf60:	73253a43 	teqvc	r5, #274432	; 0x43000
    bf64:	3a73253a 	bcc	1cd5454 <__bss_end__+0x1cc8a8c>
    bf68:	503a6425 	eorspl	r6, sl, r5, lsr #8
    bf6c:	696d7265 	stmdbvs	sp!, {r0, r2, r5, r6, r9, ip, sp, lr}^
    bf70:	6f697373 	svcvs	0x00697373
    bf74:	6170206e 	cmnvs	r0, lr, rrx
    bf78:	66206567 	strtvs	r6, [r0], -r7, ror #10
    bf7c:	746c7561 	strbtvc	r7, [ip], #-1377	; 0x561
    bf80:	00000a0a 	andeq	r0, r0, sl, lsl #20
    bf84:	494e4150 	stmdbmi	lr, {r4, r6, r8, lr}^
    bf88:	73253a43 	teqvc	r5, #274432	; 0x43000
    bf8c:	3a73253a 	bcc	1cd547c <__bss_end__+0x1cc8ab4>
    bf90:	503a6425 	eorspl	r6, sl, r5, lsr #8
    bf94:	69636572 	stmdbvs	r3!, {r1, r4, r5, r6, r8, sl, sp, lr}^
    bf98:	65206573 	strvs	r6, [r0, #-1395]!	; 0x573
    bf9c:	72657478 	rsbvc	r7, r5, #120, 8	; 0x78000000
    bfa0:	206c616e 	rsbcs	r6, ip, lr, ror #2
    bfa4:	726f6261 	rsbvc	r6, pc, #268435462	; 0x10000006
    bfa8:	000a0a74 	andeq	r0, sl, r4, ror sl
    bfac:	494e4150 	stmdbmi	lr, {r4, r6, r8, lr}^
    bfb0:	73253a43 	teqvc	r5, #274432	; 0x43000
    bfb4:	3a73253a 	bcc	1cd54a4 <__bss_end__+0x1cc8adc>
    bfb8:	453a6425 	ldrmi	r6, [sl, #-1061]!	; 0x425
    bfbc:	72657478 	rsbvc	r7, r5, #120, 8	; 0x78000000
    bfc0:	206c616e 	rsbcs	r6, ip, lr, ror #2
    bfc4:	726f6261 	rsbvc	r6, pc, #268435462	; 0x10000006
    bfc8:	72702074 	rsbsvc	r2, r0, #116	; 0x74
    bfcc:	73696365 	cmnvc	r9, #-1811939327	; 0x94000001
    bfd0:	000a0a65 	andeq	r0, sl, r5, ror #20
    bfd4:	494e4150 	stmdbmi	lr, {r4, r6, r8, lr}^
    bfd8:	73253a43 	teqvc	r5, #274432	; 0x43000
    bfdc:	3a73253a 	bcc	1cd54cc <__bss_end__+0x1cc8b04>
    bfe0:	543a6425 	ldrtpl	r6, [sl], #-1061	; 0x425
    bfe4:	4c20424c 	sfmmi	f4, 4, [r0], #-304	; 0xfffffed0
    bfe8:	0a6b636f 	beq	1ae4dac <__bss_end__+0x1ad83e4>
    bfec:	0000000a 	andeq	r0, r0, sl
    bff0:	494e4150 	stmdbmi	lr, {r4, r6, r8, lr}^
    bff4:	73253a43 	teqvc	r5, #274432	; 0x43000
    bff8:	3a73253a 	bcc	1cd54e8 <__bss_end__+0x1cc8b20>
    bffc:	433a6425 	teqmi	sl, #620756992	; 0x25000000
    c000:	6f72706f 	svcvs	0x0072706f
    c004:	73736563 	cmnvc	r3, #415236096	; 0x18c00000
    c008:	6420726f 	strtvs	r7, [r0], #-623	; 0x26f
    c00c:	20617461 	rsbcs	r7, r1, r1, ror #8
    c010:	726f6261 	rsbvc	r6, pc, #268435462	; 0x10000006
    c014:	000a0a74 	andeq	r0, sl, r4, ror sl
    c018:	494e4150 	stmdbmi	lr, {r4, r6, r8, lr}^
    c01c:	73253a43 	teqvc	r5, #274432	; 0x43000
    c020:	3a73253a 	bcc	1cd5510 <__bss_end__+0x1cc8b48>
    c024:	493a6425 	ldmdbmi	sl!, {r0, r2, r5, sl, sp, lr}
    c028:	6572706d 	ldrbvs	r7, [r2, #-109]!	; 0x6d
    c02c:	65736963 	ldrbvs	r6, [r3, #-2403]!	; 0x963
    c030:	74786520 	ldrbtvc	r6, [r8], #-1312	; 0x520
    c034:	616e7265 	cmnvs	lr, r5, ror #4
    c038:	6261206c 	rsbvs	r2, r1, #108	; 0x6c
    c03c:	0a74726f 	beq	1d28a00 <__bss_end__+0x1d1c038>
    c040:	0000000a 	andeq	r0, r0, sl
    c044:	494e4150 	stmdbmi	lr, {r4, r6, r8, lr}^
    c048:	73253a43 	teqvc	r5, #274432	; 0x43000
    c04c:	3a73253a 	bcc	1cd553c <__bss_end__+0x1cc8b74>
    c050:	503a6425 	eorspl	r6, sl, r5, lsr #8
    c054:	74697261 	strbtvc	r7, [r9], #-609	; 0x261
    c058:	72652079 	rsbvc	r2, r5, #121	; 0x79
    c05c:	20726f72 	rsbscs	r6, r2, r2, ror pc
    c060:	65637865 	strbvs	r7, [r3, #-2149]!	; 0x865
    c064:	6f697470 	svcvs	0x00697470
    c068:	000a0a6e 	andeq	r0, sl, lr, ror #20
    c06c:	494e4150 	stmdbmi	lr, {r4, r6, r8, lr}^
    c070:	73253a43 	teqvc	r5, #274432	; 0x43000
    c074:	3a73253a 	bcc	1cd5564 <__bss_end__+0x1cc8b9c>
    c078:	443a6425 	ldrtmi	r6, [sl], #-1061	; 0x425
    c07c:	67756265 	ldrbvs	r6, [r5, -r5, ror #4]!
    c080:	65766520 	ldrbvs	r6, [r6, #-1312]!	; 0x520
    c084:	0a0a746e 	beq	2a9244 <__bss_end__+0x29c87c>
    c088:	00000000 	andeq	r0, r0, r0
    c08c:	494e4150 	stmdbmi	lr, {r4, r6, r8, lr}^
    c090:	73253a43 	teqvc	r5, #274432	; 0x43000
    c094:	3a73253a 	bcc	1cd5584 <__bss_end__+0x1cc8bbc>
    c098:	573a6425 	ldrpl	r6, [sl, -r5, lsr #8]!
    c09c:	63204654 	teqvs	r0, #84, 12	; 0x5400000
    c0a0:	20657361 	rsbcs	r7, r5, r1, ror #6
    c0a4:	74207369 	strtvc	r7, [r0], #-873	; 0x369
    c0a8:	21736968 	cmncs	r3, r8, ror #18
    c0ac:	3f3f213f 	svccc	0x003f213f
    c0b0:	0000000a 	andeq	r0, r0, sl
    c0b4:	494e4150 	stmdbmi	lr, {r4, r6, r8, lr}^
    c0b8:	73253a43 	teqvc	r5, #274432	; 0x43000
    c0bc:	3a73253a 	bcc	1cd55ac <__bss_end__+0x1cc8be4>
    c0c0:	693a6425 	ldmdbvs	sl!, {r0, r2, r5, sl, sp, lr}
    c0c4:	736f706d 	cmnvc	pc, #109	; 0x6d
    c0c8:	6c626973 	stclvs	9, cr6, [r2], #-460	; 0xfffffe34
    c0cc:	000a0a65 	andeq	r0, sl, r5, ror #20
    c0d0:	756d6d21 	strbvc	r6, [sp, #-3361]!	; 0xd21
    c0d4:	5f73695f 	svcpl	0x0073695f
    c0d8:	62616e65 	rsbvs	r6, r1, #1616	; 0x650
    c0dc:	2864656c 	stmdacs	r4!, {r2, r3, r5, r6, r8, sl, sp, lr}^
    c0e0:	00000029 	andeq	r0, r0, r9, lsr #32
    c0e4:	3d207470 	cfstrscc	mvf7, [r0, #-448]!	; 0xfffffe40
    c0e8:	6162203d 	cmnvs	r2, sp, lsr r0
    c0ec:	00006573 	andeq	r6, r0, r3, ror r5
    c0f0:	253a7325 	ldrcs	r7, [sl, #-805]!	; 0x325
    c0f4:	64253a73 	strtvs	r3, [r5], #-2675	; 0xa73
    c0f8:	6d656d3a 	stclvs	13, cr6, [r5, #-232]!	; 0xffffff18
    c0fc:	63656863 	cmnvs	r5, #6488064	; 0x630000
    c100:	61203a6b 	teqvs	r0, fp, ror #20
    c104:	74756f62 	ldrbtvc	r6, [r5], #-3938	; 0xf62
    c108:	206f7420 	rsbcs	r7, pc, r0, lsr #8
    c10c:	6e727574 	mrcvs	5, 3, r7, cr2, cr4, {3}
    c110:	0a4e4f20 	beq	139fd98 <__bss_end__+0x13933d0>
    c114:	00000000 	andeq	r0, r0, r0
    c118:	253a7325 	ldrcs	r7, [sl, #-805]!	; 0x325
    c11c:	64253a73 	strtvs	r3, [r5], #-2675	; 0xa73
    c120:	6d656d3a 	stclvs	13, cr6, [r5, #-232]!	; 0xffffff18
    c124:	63656863 	cmnvs	r5, #6488064	; 0x630000
    c128:	4f203a6b 	svcmi	0x00203a6b
    c12c:	00000a4e 	andeq	r0, r0, lr, asr #20
    c130:	253a7325 	ldrcs	r7, [sl, #-805]!	; 0x325
    c134:	64253a73 	strtvs	r3, [r5], #-2675	; 0xa73
    c138:	6d656d3a 	stclvs	13, cr6, [r5, #-232]!	; 0xffffff18
    c13c:	63656863 	cmnvs	r5, #6488064	; 0x630000
    c140:	4f203a6b 	svcmi	0x00203a6b
    c144:	000a4646 	andeq	r4, sl, r6, asr #12
    c148:	615f7369 	cmpvs	pc, r9, ror #6
    c14c:	6e67696c 	cdpvs	9, 6, cr6, cr7, cr12, {3}
    c150:	62286465 	eorvs	r6, r8, #1694498816	; 0x65000000
    c154:	2c657361 	stclcs	3, cr7, [r5], #-388	; 0xfffffe7c
    c158:	4d656e4f 	stclmi	14, cr6, [r5, #-316]!	; 0xfffffec4
    c15c:	00002942 	andeq	r2, r0, r2, asr #18
    c160:	636d656d 	cmnvs	sp, #457179136	; 0x1b400000
    c164:	6b636568 	blvs	18e570c <__bss_end__+0x18d8d44>
    c168:	6172745f 	cmnvs	r2, pc, asr r4
    c16c:	6e655f70 	mcrvs	15, 3, r5, cr5, cr0, {3}
    c170:	656c6261 	strbvs	r6, [ip, #-609]!	; 0x261
    c174:	00292864 	eoreq	r2, r9, r4, ror #16

0000c178 <__FUNCTION__.4603>:
    c178:	6c756166 	ldfvse	f6, [r5], #-408	; 0xfffffe68
    c17c:	78655f74 	stmdavc	r5!, {r2, r4, r5, r6, r8, r9, sl, fp, ip, lr}^
    c180:	74636570 	strbtvc	r6, [r3], #-1392	; 0x570
    c184:	00006465 	andeq	r6, r0, r5, ror #8

0000c188 <__FUNCTION__.4656>:
    c188:	61746164 	cmnvs	r4, r4, ror #2
    c18c:	6f62615f 	svcvs	0x0062615f
    c190:	765f7472 			; <UNDEFINED> instruction: 0x765f7472
    c194:	6f746365 	svcvs	0x00746365
    c198:	00000072 	andeq	r0, r0, r2, ror r0

0000c19c <__FUNCTION__.4679>:
    c19c:	65746e69 	ldrbvs	r6, [r4, #-3689]!	; 0xe69
    c1a0:	70757272 	rsbsvc	r7, r5, r2, ror r2
    c1a4:	65765f74 	ldrbvs	r5, [r6, #-3956]!	; 0xf74
    c1a8:	726f7463 	rsbvc	r7, pc, #1660944384	; 0x63000000
    c1ac:	00000000 	andeq	r0, r0, r0

0000c1b0 <__FUNCTION__.4684>:
    c1b0:	636d656d 	cmnvs	sp, #457179136	; 0x1b400000
    c1b4:	6b636568 	blvs	18e575c <__bss_end__+0x18d8d94>
    c1b8:	696e695f 	stmdbvs	lr!, {r0, r1, r2, r3, r4, r6, r8, fp, sp, lr}^
    c1bc:	00000074 	andeq	r0, r0, r4, ror r0

0000c1c0 <__FUNCTION__.4689>:
    c1c0:	636d656d 	cmnvs	sp, #457179136	; 0x1b400000
    c1c4:	6b636568 	blvs	18e576c <__bss_end__+0x18d8da4>
    c1c8:	006e6f5f 	rsbeq	r6, lr, pc, asr pc

0000c1cc <__FUNCTION__.4693>:
    c1cc:	636d656d 	cmnvs	sp, #457179136	; 0x1b400000
    c1d0:	6b636568 	blvs	18e5778 <__bss_end__+0x18d8db0>
    c1d4:	66666f5f 	uqsaxvs	r6, r6, pc	; <UNPREDICTABLE>
    c1d8:	00000000 	andeq	r0, r0, r0

0000c1dc <__FUNCTION__.4697>:
    c1dc:	636d656d 	cmnvs	sp, #457179136	; 0x1b400000
    c1e0:	6b636568 	blvs	18e5788 <__bss_end__+0x18d8dc0>
    c1e4:	70616d5f 	rsbvc	r6, r1, pc, asr sp
    c1e8:	00000000 	andeq	r0, r0, r0

0000c1ec <__FUNCTION__.4701>:
    c1ec:	636d656d 	cmnvs	sp, #457179136	; 0x1b400000
    c1f0:	6b636568 	blvs	18e5798 <__bss_end__+0x18d8dd0>
    c1f4:	6172745f 	cmnvs	r2, pc, asr r4
    c1f8:	00006b63 	andeq	r6, r0, r3, ror #22

0000c1fc <__FUNCTION__.4469>:
    c1fc:	73746962 	cmnvc	r4, #1605632	; 0x188000
    c200:	7465675f 	strbtvc	r6, [r5], #-1887	; 0x75f
    c204:	00000000 	andeq	r0, r0, r0

0000c208 <__FUNCTION__.4712>:
    c208:	636d656d 	cmnvs	sp, #457179136	; 0x1b400000
    c20c:	6b636568 	blvs	18e57b4 <__bss_end__+0x18d8dec>
    c210:	6172745f 	cmnvs	r2, pc, asr r4
    c214:	69645f70 	stmdbvs	r4!, {r4, r5, r6, r8, r9, sl, fp, ip, lr}^
    c218:	6c626173 	stfvse	f6, [r2], #-460	; 0xfffffe34
    c21c:	00000065 	andeq	r0, r0, r5, rrx

0000c220 <__FUNCTION__.4612>:
    c220:	5f6d6f64 	svcpl	0x006d6f64
    c224:	6d726570 	cfldr64vs	mvdx6, [r2, #-448]!	; 0xfffffe40
    c228:	7465735f 	strbtvc	r7, [r5], #-863	; 0x35f
    c22c:	00000000 	andeq	r0, r0, r0

0000c230 <__FUNCTION__.4716>:
    c230:	636d656d 	cmnvs	sp, #457179136	; 0x1b400000
    c234:	6b636568 	blvs	18e57dc <__bss_end__+0x18d8e14>
    c238:	6172745f 	cmnvs	r2, pc, asr r4
    c23c:	6e655f70 	mcrvs	15, 3, r5, cr5, cr0, {3}
    c240:	656c6261 	strbvs	r6, [ip, #-609]!	; 0x261
    c244:	00000000 	andeq	r0, r0, r0

0000c248 <__FUNCTION__.4249>:
    c248:	74696d65 	strbtvc	r6, [r9], #-3429	; 0xd65
    c24c:	00000000 	andeq	r0, r0, r0

0000c250 <__FUNCTION__.4197>:
    c250:	5f697072 	svcpl	0x00697072
    c254:	5f746573 	svcpl	0x00746573
    c258:	7074756f 	rsbsvc	r7, r4, pc, ror #10
    c25c:	00007475 	andeq	r7, r0, r5, ror r4

0000c260 <__FUNCTION__.4272>:
    c260:	705f6176 	subsvc	r6, pc, r6, ror r1	; <UNPREDICTABLE>
    c264:	746e6972 	strbtvc	r6, [lr], #-2418	; 0x972
    c268:	0000006b 	andeq	r0, r0, fp, rrx
    c26c:	6362696c 	cmnvs	r2, #108, 18	; 0x1b0000
    c270:	2d61762f 	stclcs	6, cr7, [r1, #-188]!	; 0xffffff44
    c274:	6e697270 	mcrvs	2, 3, r7, cr9, cr0, {3}
    c278:	632e6b74 	teqvs	lr, #116, 22	; 0x1d000
    c27c:	00000000 	andeq	r0, r0, r0
    c280:	33323130 	teqcc	r2, #48, 2
    c284:	37363534 			; <UNDEFINED> instruction: 0x37363534
    c288:	00003938 	andeq	r3, r0, r8, lsr r9
    c28c:	33323130 	teqcc	r2, #48, 2
    c290:	37363534 			; <UNDEFINED> instruction: 0x37363534
    c294:	62613938 	rsbvs	r3, r1, #56, 18	; 0xe0000
    c298:	66656463 	strbtvs	r6, [r5], -r3, ror #8
    c29c:	00000000 	andeq	r0, r0, r0
    c2a0:	00003130 	andeq	r3, r0, r0, lsr r1
    c2a4:	63747570 	cmnvs	r4, #112, 10	; 0x1c000000
    c2a8:	0070665f 	rsbseq	r6, r0, pc, asr r6
    c2ac:	74646977 	strbtvc	r6, [r4], #-2423	; 0x977
    c2b0:	203c2068 	eorscs	r2, ip, r8, rrx
    c2b4:	00003233 	andeq	r3, r0, r3, lsr r2
    c2b8:	494e4150 	stmdbmi	lr, {r4, r6, r8, lr}^
    c2bc:	73253a43 	teqvc	r5, #274432	; 0x43000
    c2c0:	3a73253a 	bcc	1cd57b0 <__bss_end__+0x1cc8de8>
    c2c4:	663a6425 	ldrtvs	r6, [sl], -r5, lsr #8
    c2c8:	74616f6c 	strbtvc	r6, [r1], #-3948	; 0xf6c
    c2cc:	746f6e20 	strbtvc	r6, [pc], #-3616	; c2d4 <__FUNCTION__.4272+0x74>
    c2d0:	616e6520 	cmnvs	lr, r0, lsr #10
    c2d4:	64656c62 	strbtvs	r6, [r5], #-3170	; 0xc62
    c2d8:	0a212121 	beq	854764 <__bss_end__+0x847d9c>
    c2dc:	00000000 	andeq	r0, r0, r0
    c2e0:	6e697270 	mcrvs	2, 3, r7, cr9, cr0, {3}
    c2e4:	203a6b74 	eorscs	r6, sl, r4, ror fp
    c2e8:	20746f6e 	rsbscs	r6, r4, lr, ror #30
    c2ec:	646e6168 	strbtvs	r6, [lr], #-360	; 0x168
    c2f0:	676e696c 	strbvs	r6, [lr, -ip, ror #18]!
    c2f4:	65707320 	ldrbvs	r7, [r0, #-800]!	; 0x320
    c2f8:	69666963 	stmdbvs	r6!, {r0, r1, r5, r6, r8, fp, sp, lr}^
    c2fc:	27207265 	strcs	r7, [r0, -r5, ror #4]!
    c300:	20276325 	eorcs	r6, r7, r5, lsr #6
    c304:	63736128 	cmnvs	r3, #40, 2
    c308:	253d6969 	ldrcs	r6, [sp, #-2409]!	; 0x969
    c30c:	000a2964 	andeq	r2, sl, r4, ror #18
    c310:	494e4150 	stmdbmi	lr, {r4, r6, r8, lr}^
    c314:	73253a43 	teqvc	r5, #274432	; 0x43000
    c318:	3a73253a 	bcc	1cd5808 <__bss_end__+0x1cc8e40>
    c31c:	703a6425 	eorsvc	r6, sl, r5, lsr #8
    c320:	746e6972 	strbtvc	r6, [lr], #-2418	; 0x972
    c324:	7265206b 	rsbvc	r2, r5, #107	; 0x6b
    c328:	0a726f72 	beq	1ca80f8 <__bss_end__+0x1c9b730>
    c32c:	0000000a 	andeq	r0, r0, sl
    c330:	454e4f44 	strbmi	r4, [lr, #-3908]	; 0xf44
    c334:	0a212121 	beq	8547c0 <__bss_end__+0x847df8>
    c338:	00000000 	andeq	r0, r0, r0

0000c33c <__FUNCTION__.4220>:
    c33c:	74736166 	ldrbtvc	r6, [r3], #-358	; 0x166
    c340:	746e695f 	strbtvc	r6, [lr], #-2399	; 0x95f
    c344:	75727265 	ldrbvc	r7, [r2, #-613]!	; 0x265
    c348:	765f7470 			; <UNDEFINED> instruction: 0x765f7470
    c34c:	6f746365 	svcvs	0x00746365
    c350:	00000072 	andeq	r0, r0, r2, ror r0
    c354:	494e4150 	stmdbmi	lr, {r4, r6, r8, lr}^
    c358:	73253a43 	teqvc	r5, #274432	; 0x43000
    c35c:	3a73253a 	bcc	1cd584c <__bss_end__+0x1cc8e84>
    c360:	453a6425 	ldrmi	r6, [sl, #-1061]!	; 0x425
    c364:	524f5252 	subpl	r5, pc, #536870917	; 0x20000005
    c368:	6e75203a 	mrcvs	0, 3, r2, cr5, cr10, {1}
    c36c:	646e6168 	strbtvs	r6, [lr], #-360	; 0x168
    c370:	2064656c 	rsbcs	r6, r4, ip, ror #10
    c374:	65637865 	strbvs	r7, [r3, #-2149]!	; 0x865
    c378:	6f697470 	svcvs	0x00697470
    c37c:	253c206e 	ldrcs	r2, [ip, #-110]!	; 0x6e
    c380:	61203e73 	teqvs	r0, r3, ror lr
    c384:	43502074 	cmpmi	r0, #116	; 0x74
    c388:	0a78253d 	beq	1e15884 <__bss_end__+0x1e08ebc>
    c38c:	0000000a 	andeq	r0, r0, sl
    c390:	66617473 			; <UNDEFINED> instruction: 0x66617473
    c394:	72732d66 	rsbsvc	r2, r3, #6528	; 0x1980
    c398:	65642f63 	strbvs	r2, [r4, #-3939]!	; 0xf63
    c39c:	6c756166 	ldfvse	f6, [r5], #-408	; 0xfffffe68
    c3a0:	61682d74 	smcvs	33492	; 0x82d4
    c3a4:	656c646e 	strbvs	r6, [ip, #-1134]!	; 0x46e
    c3a8:	61662d72 	smcvs	25298	; 0x62d2
    c3ac:	632e7473 	teqvs	lr, #1929379840	; 0x73000000
    c3b0:	00000000 	andeq	r0, r0, r0
    c3b4:	74736166 	ldrbtvc	r6, [r3], #-358	; 0x166
    c3b8:	00000000 	andeq	r0, r0, r0

0000c3bc <__FUNCTION__.4220>:
    c3bc:	66657270 			; <UNDEFINED> instruction: 0x66657270
    c3c0:	68637465 	stmdavs	r3!, {r0, r2, r5, r6, sl, ip, sp, lr}^
    c3c4:	6f62615f 	svcvs	0x0062615f
    c3c8:	765f7472 			; <UNDEFINED> instruction: 0x765f7472
    c3cc:	6f746365 	svcvs	0x00746365
    c3d0:	00000072 	andeq	r0, r0, r2, ror r0
    c3d4:	66617473 			; <UNDEFINED> instruction: 0x66617473
    c3d8:	72732d66 	rsbsvc	r2, r3, #6528	; 0x1980
    c3dc:	65642f63 	strbvs	r2, [r4, #-3939]!	; 0xf63
    c3e0:	6c756166 	ldfvse	f6, [r5], #-408	; 0xfffffe68
    c3e4:	61682d74 	smcvs	33492	; 0x82d4
    c3e8:	656c646e 	strbvs	r6, [ip, #-1134]!	; 0x46e
    c3ec:	72702d72 	rsbsvc	r2, r0, #7296	; 0x1c80
    c3f0:	74656665 	strbtvc	r6, [r5], #-1637	; 0x665
    c3f4:	632e6863 	teqvs	lr, #6488064	; 0x630000
    c3f8:	00000000 	andeq	r0, r0, r0
    c3fc:	66657270 			; <UNDEFINED> instruction: 0x66657270
    c400:	68637465 	stmdavs	r3!, {r0, r2, r5, r6, sl, ip, sp, lr}^
    c404:	6f626120 	svcvs	0x00626120
    c408:	00007472 	andeq	r7, r0, r2, ror r4

0000c40c <__FUNCTION__.4220>:
    c40c:	65736572 	ldrbvs	r6, [r3, #-1394]!	; 0x572
    c410:	65765f74 	ldrbvs	r5, [r6, #-3956]!	; 0xf74
    c414:	726f7463 	rsbvc	r7, pc, #1660944384	; 0x63000000
    c418:	00000000 	andeq	r0, r0, r0
    c41c:	66617473 			; <UNDEFINED> instruction: 0x66617473
    c420:	72732d66 	rsbsvc	r2, r3, #6528	; 0x1980
    c424:	65642f63 	strbvs	r2, [r4, #-3939]!	; 0xf63
    c428:	6c756166 	ldfvse	f6, [r5], #-408	; 0xfffffe68
    c42c:	61682d74 	smcvs	33492	; 0x82d4
    c430:	656c646e 	strbvs	r6, [ip, #-1134]!	; 0x46e
    c434:	65722d72 	ldrbvs	r2, [r2, #-3442]!	; 0xd72
    c438:	2e746573 	mrccs	5, 3, r6, cr4, cr3, {3}
    c43c:	00000063 	andeq	r0, r0, r3, rrx
    c440:	65736572 	ldrbvs	r6, [r3, #-1394]!	; 0x572
    c444:	00000074 	andeq	r0, r0, r4, ror r0

0000c448 <__FUNCTION__.4220>:
    c448:	65646e75 	strbvs	r6, [r4, #-3701]!	; 0xe75
    c44c:	656e6966 	strbvs	r6, [lr, #-2406]!	; 0x966
    c450:	6e695f64 	cdpvs	15, 6, cr5, cr9, cr4, {3}
    c454:	75727473 	ldrbvc	r7, [r2, #-1139]!	; 0x473
    c458:	6f697463 	svcvs	0x00697463
    c45c:	65765f6e 	ldrbvs	r5, [r6, #-3950]!	; 0xf6e
    c460:	726f7463 	rsbvc	r7, pc, #1660944384	; 0x63000000
    c464:	00000000 	andeq	r0, r0, r0
    c468:	66617473 			; <UNDEFINED> instruction: 0x66617473
    c46c:	72732d66 	rsbsvc	r2, r3, #6528	; 0x1980
    c470:	65642f63 	strbvs	r2, [r4, #-3939]!	; 0xf63
    c474:	6c756166 	ldfvse	f6, [r5], #-408	; 0xfffffe68
    c478:	61682d74 	smcvs	33492	; 0x82d4
    c47c:	656c646e 	strbvs	r6, [ip, #-1134]!	; 0x46e
    c480:	6e752d72 	mrcvs	13, 3, r2, cr5, cr2, {3}
    c484:	69666564 	stmdbvs	r6!, {r2, r5, r6, r8, sl, sp, lr}^
    c488:	2d64656e 	cfstr64cs	mvdx6, [r4, #-440]!	; 0xfffffe48
    c48c:	74736e69 	ldrbtvc	r6, [r3], #-3689	; 0xe69
    c490:	0000632e 	andeq	r6, r0, lr, lsr #6
    c494:	65646e75 	strbvs	r6, [r4, #-3701]!	; 0xe75
    c498:	656e6966 	strbvs	r6, [lr, #-2406]!	; 0x966
    c49c:	6e692064 	cdpvs	0, 6, cr2, cr9, cr4, {3}
    c4a0:	00007473 	andeq	r7, r0, r3, ror r4

0000c4a4 <__FUNCTION__.4241>:
    c4a4:	6c616d6b 	stclvs	13, cr6, [r1], #-428	; 0xfffffe54
    c4a8:	5f636f6c 	svcpl	0x00636f6c
    c4ac:	74696e69 	strbtvc	r6, [r9], #-3689	; 0xe69
    c4b0:	7465735f 	strbtvc	r7, [r5], #-863	; 0x35f
    c4b4:	6174735f 	cmnvs	r4, pc, asr r3
    c4b8:	00007472 	andeq	r7, r0, r2, ror r4

0000c4bc <__FUNCTION__.4245>:
    c4bc:	6c616d6b 	stclvs	13, cr6, [r1], #-428	; 0xfffffe54
    c4c0:	00636f6c 	rsbeq	r6, r3, ip, ror #30

0000c4c4 <__FUNCTION__.4257>:
    c4c4:	6c616d6b 	stclvs	13, cr6, [r1], #-428	; 0xfffffe54
    c4c8:	5f636f6c 	svcpl	0x00636f6c
    c4cc:	67696c61 	strbvs	r6, [r9, -r1, ror #24]!
    c4d0:	0064656e 	rsbeq	r6, r4, lr, ror #10
    c4d4:	6c616d6b 	stclvs	13, cr6, [r1], #-428	; 0xfffffe54
    c4d8:	2e636f6c 	cdpcs	15, 6, cr6, cr3, cr12, {3}
    c4dc:	00000063 	andeq	r0, r0, r3, rrx
    c4e0:	72646461 	rsbvc	r6, r4, #1627389952	; 0x61000000
    c4e4:	68203e20 	stmdavs	r0!, {r5, r9, sl, fp, ip, sp}
    c4e8:	00706165 	rsbseq	r6, r0, r5, ror #2
    c4ec:	00007a73 	andeq	r7, r0, r3, ror sl
    c4f0:	4f525245 	svcmi	0x00525245
    c4f4:	73253a52 	teqvc	r5, #335872	; 0x52000
    c4f8:	3a73253a 	bcc	1cd59e8 <__bss_end__+0x1cc9020>
    c4fc:	203a6425 	eorscs	r6, sl, r5, lsr #8
    c500:	534c4146 	movtpl	r4, #49478	; 0xc146
    c504:	253c2845 	ldrcs	r2, [ip, #-2117]!	; 0x845
    c508:	3a293e73 	bcc	a5bedc <__bss_end__+0xa4f514>
    c50c:	73736120 	cmnvc	r3, #32, 2
    c510:	6e696d75 	mcrvs	13, 3, r6, cr9, cr5, {3}
    c514:	6f702067 	svcvs	0x00702067
    c518:	20726577 	rsbscs	r6, r2, r7, ror r5
    c51c:	7420666f 	strtvc	r6, [r0], #-1647	; 0x66f
    c520:	000a6f77 	andeq	r6, sl, r7, ror pc
    c524:	61282828 	teqvs	r8, r8, lsr #16
    c528:	6e67696c 	cdpvs	9, 6, cr6, cr7, cr12, {3}
    c52c:	746e656d 	strbtvc	r6, [lr], #-1389	; 0x56d
    c530:	282d2629 	stmdacs	sp!, {r0, r3, r5, r9, sl, sp}
    c534:	67696c61 	strbvs	r6, [r9, -r1, ror #24]!
    c538:	6e656d6e 	cdpvs	13, 6, cr6, cr5, cr14, {3}
    c53c:	20292974 	eorcs	r2, r9, r4, ror r9
    c540:	28203d3d 	stmdacs	r0!, {r0, r2, r3, r4, r5, r8, sl, fp, ip, sp}
    c544:	67696c61 	strbvs	r6, [r9, -r1, ror #24]!
    c548:	6e656d6e 	cdpvs	13, 6, cr6, cr5, cr14, {3}
    c54c:	00292974 	eoreq	r2, r9, r4, ror r9
    c550:	4f525245 	svcmi	0x00525245
    c554:	73253a52 	teqvc	r5, #335872	; 0x52000
    c558:	3a73253a 	bcc	1cd5a48 <__bss_end__+0x1cc9080>
    c55c:	203a6425 	eorscs	r6, sl, r5, lsr #8
    c560:	534c4146 	movtpl	r4, #49478	; 0xc146
    c564:	253c2845 	ldrcs	r2, [ip, #-2117]!	; 0x845
    c568:	3a293e73 	bcc	a5bf3c <__bss_end__+0xa4f574>
    c56c:	706d6920 	rsbvc	r6, sp, r0, lsr #18
    c570:	6973736f 	ldmdbvs	r3!, {r0, r1, r2, r3, r5, r6, r8, r9, ip, sp, lr}^
    c574:	0a656c62 	beq	1967704 <__bss_end__+0x195ad3c>
    c578:	00000000 	andeq	r0, r0, r0
    c57c:	68282828 	stmdavs	r8!, {r3, r5, fp, sp}
    c580:	20262029 	eorcs	r2, r6, r9, lsr #32
    c584:	79742828 	ldmdbvc	r4!, {r3, r5, fp, sp}^
    c588:	666f6570 			; <UNDEFINED> instruction: 0x666f6570
    c58c:	29296828 	stmdbcs	r9!, {r3, r5, fp, sp, lr}
    c590:	696c6128 	stmdbvs	ip!, {r3, r5, r8, sp, lr}^
    c594:	656d6e67 	strbvs	r6, [sp, #-3687]!	; 0xe67
    c598:	2029746e 	eorcs	r7, r9, lr, ror #8
    c59c:	2931202d 	ldmdbcs	r1!, {r0, r2, r3, r5, sp}
    c5a0:	3d3d2029 	ldccc	0, cr2, [sp, #-164]!	; 0xffffff5c
    c5a4:	00293020 	eoreq	r3, r9, r0, lsr #32

Disassembly of section .bss:

0000c5a8 <__bss_start__>:
    c5a8:	00000000 	andeq	r0, r0, r0

0000c5ac <pt_st>:
    c5ac:	00000000 	andeq	r0, r0, r0

0000c5b0 <last_fault>:
	...

0000c5bc <mmu_resume_p>:
    c5bc:	00000000 	andeq	r0, r0, r0

0000c5c0 <pt>:
    c5c0:	00000000 	andeq	r0, r0, r0

0000c5c4 <buf.4189>:
	...

Disassembly of section .ARM.attributes:

00000000 <.ARM.attributes>:
   0:	00002a41 	andeq	r2, r0, r1, asr #20
   4:	61656100 	cmnvs	r5, r0, lsl #2
   8:	01006962 	tsteq	r0, r2, ror #18
   c:	00000020 	andeq	r0, r0, r0, lsr #32
  10:	4b5a3605 	blmi	168d82c <__bss_end__+0x1680e64>
  14:	08070600 	stmdaeq	r7, {r9, sl}
  18:	12010901 	andne	r0, r1, #16384	; 0x4000
  1c:	15011404 	strne	r1, [r1, #-1028]	; 0x404
  20:	18031701 	stmdane	r3, {r0, r8, r9, sl, ip}
  24:	22011a01 	andcs	r1, r1, #4096	; 0x1000
  28:	Address 0x0000000000000028 is out of bounds.


Disassembly of section .comment:

00000000 <.comment>:
   0:	3a434347 	bcc	10d0d24 <__bss_end__+0x10c435c>
   4:	4e472820 	cdpmi	8, 4, cr2, cr7, cr0, {1}
   8:	34202955 	strtcc	r2, [r0], #-2389	; 0x955
   c:	332e382e 	teqcc	lr, #3014656	; 0x2e0000
  10:	43434700 	movtmi	r4, #14080	; 0x3700
  14:	3128203a 	teqcc	r8, sl, lsr r0
  18:	2e363a35 	mrccs	10, 1, r3, cr6, cr5, {1}
  1c:	2b312e33 	blcs	c4b8f0 <__bss_end__+0xc3ef28>
  20:	326e7673 	rsbcc	r7, lr, #120586240	; 0x7300000
  24:	33303335 	teqcc	r0, #-738197504	; 0xd4000000
  28:	62312d39 	eorsvs	r2, r1, #3648	; 0xe40
  2c:	646c6975 	strbtvs	r6, [ip], #-2421	; 0x975
  30:	36202931 			; <UNDEFINED> instruction: 0x36202931
  34:	312e332e 	teqcc	lr, lr, lsr #6
  38:	31303220 	teqcc	r0, r0, lsr #4
  3c:	32363037 	eorscc	r3, r6, #55	; 0x37
  40:	Address 0x0000000000000040 is out of bounds.


Disassembly of section .debug_info:

00000000 <.debug_info>:
       0:	00000487 	andeq	r0, r0, r7, lsl #9
       4:	00000004 	andeq	r0, r0, r4
       8:	01040000 	mrseq	r0, (UNDEF: 4)
       c:	00000162 	andeq	r0, r0, r2, ror #2
      10:	0000b201 	andeq	fp, r0, r1, lsl #4
      14:	0000f400 	andeq	pc, r0, r0, lsl #8
      18:	00802000 	addeq	r2, r0, r0
      1c:	0001b400 	andeq	fp, r1, r0, lsl #8
      20:	00000000 	andeq	r0, r0, r0
      24:	05040200 	streq	r0, [r4, #-512]	; 0x200
      28:	00746e69 	rsbseq	r6, r4, r9, ror #28
      2c:	e7070403 	str	r0, [r7, -r3, lsl #8]
      30:	03000001 	movweq	r0, #1
      34:	005c0601 	subseq	r0, ip, r1, lsl #12
      38:	02030000 	andeq	r0, r3, #0
      3c:	00022905 	andeq	r2, r2, r5, lsl #18
      40:	05040300 	streq	r0, [r4, #-768]	; 0x300
      44:	00000202 	andeq	r0, r0, r2, lsl #4
      48:	fd050803 	stc2	8, cr0, [r5, #-12]
      4c:	03000001 	movweq	r0, #1
      50:	005a0801 	subseq	r0, sl, r1, lsl #16
      54:	02030000 	andeq	r0, r3, #0
      58:	00009f07 	andeq	r9, r0, r7, lsl #30
      5c:	02330400 	eorseq	r0, r3, #0, 8
      60:	34050000 	strcc	r0, [r5], #-0
      64:	00000068 	andeq	r0, r0, r8, rrx
      68:	e2070403 	and	r0, r7, #50331648	; 0x3000000
      6c:	03000001 	movweq	r0, #1
      70:	01dd0708 	bicseq	r0, sp, r8, lsl #14
      74:	04030000 	streq	r0, [r3], #-0
      78:	0001f407 	andeq	pc, r1, r7, lsl #8
      7c:	08010300 	stmdaeq	r1, {r8, r9}
      80:	00000063 	andeq	r0, r0, r3, rrx
      84:	008a0405 	addeq	r0, sl, r5, lsl #8
      88:	7d060000 	stcvc	0, cr0, [r6, #-0]
      8c:	07000000 	streq	r0, [r0, -r0]
      90:	0000007d 	andeq	r0, r0, sp, ror r0
      94:	0000009f 	muleq	r0, pc, r0	; <UNPREDICTABLE>
      98:	00007608 	andeq	r7, r0, r8, lsl #12
      9c:	09000700 	stmdbeq	r0, {r8, r9, sl}
      a0:	ba710401 	blt	1c410ac <__bss_end__+0x1c346e4>
      a4:	0a000000 	beq	ac <__code_start__-0x7f54>
      a8:	0000008b 	andeq	r0, r0, fp, lsl #1
      ac:	00470a05 	subeq	r0, r7, r5, lsl #20
      b0:	0a0d0000 	beq	3400b8 <__bss_end__+0x3336f0>
      b4:	00000000 	andeq	r0, r0, r0
      b8:	2a0b0009 	bcs	2c00e4 <__bss_end__+0x2b371c>
      bc:	01000000 	mrseq	r0, (UNDEF: 0)
      c0:	00802004 	addeq	r2, r0, r4
      c4:	0001b400 	andeq	fp, r1, r0, lsl #8
      c8:	dc9c0100 	ldfles	f0, [ip], {0}
      cc:	0c000003 	stceq	0, cr0, [r0], {3}
      d0:	000000db 	ldrdeq	r0, [r0], -fp
      d4:	000003dc 	ldrdeq	r0, [r0], -ip
      d8:	b39c0305 	orrslt	r0, ip, #335544320	; 0x14000000
      dc:	730d0000 	movwvc	r0, #53248	; 0xd000
      e0:	0a010070 	beq	402a8 <__bss_end__+0x338e0>
      e4:	0000005d 	andeq	r0, r0, sp, asr r0
      e8:	07000000 	streq	r0, [r0, -r0]
      ec:	6c61760e 	stclvs	6, cr7, [r1], #-56	; 0xffffffc8
      f0:	2c1e0100 	ldfcss	f0, [lr], {-0}
      f4:	04000000 	streq	r0, [r0], #-0
      f8:	00802c0f 	addeq	r2, r0, pc, lsl #24
      fc:	0003e100 	andeq	lr, r3, r0, lsl #2
     100:	80300f00 	eorshi	r0, r0, r0, lsl #30
     104:	03e80000 	mvneq	r0, #0
     108:	340f0000 	strcc	r0, [pc], #-0	; 110 <__code_start__-0x7ef0>
     10c:	ef000080 	svc	0x00000080
     110:	0f000003 	svceq	0x00000003
     114:	00008040 	andeq	r8, r0, r0, asr #32
     118:	000003fa 	strdeq	r0, [r0], -sl
     11c:	00805c10 	addeq	r5, r0, r0, lsl ip
     120:	00040100 	andeq	r0, r4, r0, lsl #2
     124:	00015400 	andeq	r5, r1, r0, lsl #8
     128:	53011100 	movwpl	r1, #4352	; 0x1100
     12c:	01113701 	tsteq	r1, r1, lsl #14
     130:	9c030552 	cfstr32ls	mvfx0, [r3], {82}	; 0x52
     134:	110000b3 	strhne	r0, [r0, -r3]
     138:	03055101 	movweq	r5, #20737	; 0x5101
     13c:	0000b21c 	andeq	fp, r0, ip, lsl r2
     140:	05500111 	ldrbeq	r0, [r0, #-273]	; 0x111
     144:	00b20803 	adcseq	r0, r2, r3, lsl #16
     148:	7d021100 	stfvcs	f1, [r2, #-0]
     14c:	30030500 	andcc	r0, r3, r0, lsl #10
     150:	000000b2 	strheq	r0, [r0], -r2
     154:	0080600f 	addeq	r6, r0, pc
     158:	00041700 	andeq	r1, r4, r0, lsl #14
     15c:	80681000 	rsbhi	r1, r8, r0
     160:	04010000 	streq	r0, [r1], #-0
     164:	01740000 	cmneq	r4, r0
     168:	01110000 	tsteq	r1, r0
     16c:	44030550 	strmi	r0, [r3], #-1360	; 0x550
     170:	000000b2 	strheq	r0, [r0], -r2
     174:	00807010 	addeq	r7, r0, r0, lsl r0
     178:	00041e00 	andeq	r1, r4, r0, lsl #28
     17c:	00018900 	andeq	r8, r1, r0, lsl #18
     180:	50011100 	andpl	r1, r1, r0, lsl #2
     184:	24464c03 	strbcs	r4, [r6], #-3075	; 0xc03
     188:	80781000 	rsbshi	r1, r8, r0
     18c:	04010000 	streq	r0, [r1], #-0
     190:	01a00000 	moveq	r0, r0
     194:	01110000 	tsteq	r1, r0
     198:	60030550 	andvs	r0, r3, r0, asr r5
     19c:	000000b2 	strheq	r0, [r0], -r2
     1a0:	00807c0f 	addeq	r7, r0, pc, lsl #24
     1a4:	00042f00 	andeq	r2, r4, r0, lsl #30
     1a8:	80841000 	addhi	r1, r4, r0
     1ac:	04010000 	streq	r0, [r1], #-0
     1b0:	01c00000 	biceq	r0, r0, r0
     1b4:	01110000 	tsteq	r1, r0
     1b8:	80030550 	andhi	r0, r3, r0, asr r5
     1bc:	000000b2 	strheq	r0, [r0], -r2
     1c0:	0080880f 	addeq	r8, r0, pc, lsl #16
     1c4:	00043600 	andeq	r3, r4, r0, lsl #12
     1c8:	80941000 	addshi	r1, r4, r0
     1cc:	04010000 	streq	r0, [r1], #-0
     1d0:	01dd0000 	bicseq	r0, sp, r0
     1d4:	01110000 	tsteq	r1, r0
     1d8:	00740250 	rsbseq	r0, r4, r0, asr r2
     1dc:	80a41000 	adchi	r1, r4, r0
     1e0:	04010000 	streq	r0, [r1], #-0
     1e4:	01fb0000 	mvnseq	r0, r0
     1e8:	01110000 	tsteq	r1, r0
     1ec:	464c0351 			; <UNDEFINED> instruction: 0x464c0351
     1f0:	50011124 	andpl	r1, r1, r4, lsr #2
     1f4:	b2ac0305 	adclt	r0, ip, #335544320	; 0x14000000
     1f8:	10000000 	andne	r0, r0, r0
     1fc:	000080b0 	strheq	r8, [r0], -r0
     200:	0000043d 	andeq	r0, r0, sp, lsr r4
     204:	00000215 	andeq	r0, r0, r5, lsl r2
     208:	01510111 	cmpeq	r1, r1, lsl r1
     20c:	50011134 	andpl	r1, r1, r4, lsr r1
     210:	24464c03 	strbcs	r4, [r6], #-3075	; 0xc03
     214:	80b81000 	adcshi	r1, r8, r0
     218:	04010000 	streq	r0, [r1], #-0
     21c:	02290000 	eoreq	r0, r9, #0
     220:	01110000 	tsteq	r1, r0
     224:	00740250 	rsbseq	r0, r4, r0, asr r2
     228:	80c01000 	sbchi	r1, r0, r0
     22c:	04010000 	streq	r0, [r1], #-0
     230:	02400000 	subeq	r0, r0, #0
     234:	01110000 	tsteq	r1, r0
     238:	e4030550 	str	r0, [r3], #-1360	; 0x550
     23c:	000000b2 	strheq	r0, [r0], -r2
     240:	0080c40f 	addeq	ip, r0, pc, lsl #8
     244:	00045300 	andeq	r5, r4, r0, lsl #6
     248:	80d00f00 	sbcshi	r0, r0, r0, lsl #30
     24c:	03fa0000 	mvnseq	r0, #0
     250:	ec100000 	ldc	0, cr0, [r0], {-0}
     254:	01000080 	smlabbeq	r0, r0, r0, r0
     258:	8b000004 	blhi	270 <__code_start__-0x7d90>
     25c:	11000002 	tstne	r0, r2
     260:	08025301 	stmdaeq	r2, {r0, r8, r9, ip, lr}
     264:	52011122 	andpl	r1, r1, #-2147483640	; 0x80000008
     268:	b39c0305 	orrslt	r0, ip, #335544320	; 0x14000000
     26c:	01110000 	tsteq	r1, r0
     270:	1c030551 	cfstr32ne	mvfx0, [r3], {81}	; 0x51
     274:	110000b2 	strhne	r0, [r0, -r2]
     278:	03055001 	movweq	r5, #20481	; 0x5001
     27c:	0000b208 	andeq	fp, r0, r8, lsl #4
     280:	007d0211 	rsbseq	r0, sp, r1, lsl r2
     284:	b3200305 	teqlt	r0, #335544320	; 0x14000000
     288:	0f000000 	svceq	0x00000000
     28c:	000080f0 	strdeq	r8, [r0], -r0
     290:	00000417 	andeq	r0, r0, r7, lsl r4
     294:	0080fc10 	addeq	pc, r0, r0, lsl ip	; <UNPREDICTABLE>
     298:	00040100 	andeq	r0, r4, r0, lsl #2
     29c:	0002a800 	andeq	sl, r2, r0, lsl #16
     2a0:	50011100 	andpl	r1, r1, r0, lsl #2
     2a4:	00007402 	andeq	r7, r0, r2, lsl #8
     2a8:	00810410 	addeq	r0, r1, r0, lsl r4
     2ac:	00040100 	andeq	r0, r4, r0, lsl #2
     2b0:	0002bf00 	andeq	fp, r2, r0, lsl #30
     2b4:	50011100 	andpl	r1, r1, r0, lsl #2
     2b8:	b33c0305 	teqlt	ip, #335544320	; 0x14000000
     2bc:	10000000 	andne	r0, r0, r0
     2c0:	00008114 	andeq	r8, r0, r4, lsl r1
     2c4:	0000045e 	andeq	r0, r0, lr, asr r4
     2c8:	000002d9 	ldrdeq	r0, [r0], -r9
     2cc:	01520111 	cmpeq	r2, r1, lsl r1
     2d0:	51011139 	tstpl	r1, r9, lsr r1
     2d4:	24464c03 	strbcs	r4, [r6], #-3075	; 0xc03
     2d8:	811c1000 	tsthi	ip, r0
     2dc:	04010000 	streq	r0, [r1], #-0
     2e0:	02ed0000 	rsceq	r0, sp, #0
     2e4:	01110000 	tsteq	r1, r0
     2e8:	00740250 	rsbseq	r0, r4, r0, asr r2
     2ec:	812c1000 	teqhi	ip, r0
     2f0:	04010000 	streq	r0, [r1], #-0
     2f4:	03100000 	tsteq	r0, #0
     2f8:	01110000 	tsteq	r1, r0
     2fc:	11340152 	teqne	r4, r2, asr r1
     300:	4c035101 	stfmis	f5, [r3], {1}
     304:	01112446 	tsteq	r1, r6, asr #8
     308:	50030550 	andpl	r0, r3, r0, asr r5
     30c:	000000b3 	strheq	r0, [r0], -r3
     310:	00813410 	addeq	r3, r1, r0, lsl r4
     314:	00047900 	andeq	r7, r4, r0, lsl #18
     318:	00032500 	andeq	r2, r3, r0, lsl #10
     31c:	50011100 	andpl	r1, r1, r0, lsl #2
     320:	24464c03 	strbcs	r4, [r6], #-3075	; 0xc03
     324:	81400f00 	cmphi	r0, r0, lsl #30
     328:	03fa0000 	mvnseq	r0, #0
     32c:	5c100000 	ldcpl	0, cr0, [r0], {-0}
     330:	01000081 	smlabbeq	r0, r1, r0, r0
     334:	67000004 	strvs	r0, [r0, -r4]
     338:	11000003 	tstne	r0, r3
     33c:	08025301 	stmdaeq	r2, {r0, r8, r9, ip, lr}
     340:	52011128 	andpl	r1, r1, #40, 2
     344:	b39c0305 	orrslt	r0, ip, #335544320	; 0x14000000
     348:	01110000 	tsteq	r1, r0
     34c:	1c030551 	cfstr32ne	mvfx0, [r3], {81}	; 0x51
     350:	110000b2 	strhne	r0, [r0, -r2]
     354:	03055001 	movweq	r5, #20481	; 0x5001
     358:	0000b208 	andeq	fp, r0, r8, lsl #4
     35c:	007d0211 	rsbseq	r0, sp, r1, lsl r2
     360:	b3680305 	cmnlt	r8, #335544320	; 0x14000000
     364:	0f000000 	svceq	0x00000000
     368:	00008160 	andeq	r8, r0, r0, ror #2
     36c:	00000417 	andeq	r0, r0, r7, lsl r4
     370:	00816c10 	addeq	r6, r1, r0, lsl ip
     374:	00040100 	andeq	r0, r4, r0, lsl #2
     378:	00038400 	andeq	r8, r3, r0, lsl #8
     37c:	50011100 	andpl	r1, r1, r0, lsl #2
     380:	00007402 	andeq	r7, r0, r2, lsl #8
     384:	00817c10 	addeq	r7, r1, r0, lsl ip
     388:	00040100 	andeq	r0, r4, r0, lsl #2
     38c:	0003a700 	andeq	sl, r3, r0, lsl #14
     390:	52011100 	andpl	r1, r1, #0, 2
     394:	01113401 	tsteq	r1, r1, lsl #8
     398:	464c0351 			; <UNDEFINED> instruction: 0x464c0351
     39c:	50011124 	andpl	r1, r1, r4, lsr #2
     3a0:	b37c0305 	cmnlt	ip, #335544320	; 0x14000000
     3a4:	10000000 	andne	r0, r0, r0
     3a8:	00008184 	andeq	r8, r0, r4, lsl #3
     3ac:	00000401 	andeq	r0, r0, r1, lsl #8
     3b0:	000003bb 			; <UNDEFINED> instruction: 0x000003bb
     3b4:	02500111 	subseq	r0, r0, #1073741828	; 0x40000004
     3b8:	10000074 	andne	r0, r0, r4, ror r0
     3bc:	0000818c 	andeq	r8, r0, ip, lsl #3
     3c0:	00000401 	andeq	r0, r0, r1, lsl #8
     3c4:	000003d2 	ldrdeq	r0, [r0], -r2
     3c8:	05500111 	ldrbeq	r0, [r0, #-273]	; 0x111
     3cc:	00b39003 	adcseq	r9, r3, r3
     3d0:	900f0000 	andls	r0, pc, r0
     3d4:	17000081 	strne	r0, [r0, -r1, lsl #1]
     3d8:	00000004 	andeq	r0, r0, r4
     3dc:	00008f06 	andeq	r8, r0, r6, lsl #30
     3e0:	01cf1200 	biceq	r1, pc, r0, lsl #4
     3e4:	09020000 	stmdbeq	r2, {}	; <UNPREDICTABLE>
     3e8:	0000e812 	andeq	lr, r0, r2, lsl r8
     3ec:	130c0200 	movwne	r0, #49664	; 0xc200
     3f0:	00000153 	andeq	r0, r0, r3, asr r1
     3f4:	00256c04 	eoreq	r6, r5, r4, lsl #24
     3f8:	3c120000 	ldccc	0, cr0, [r2], {-0}
     3fc:	03000002 	movweq	r0, #2
     400:	0a92141e 	beq	fe485480 <__bss_end__+0xfe478ab8>
     404:	29030000 	stmdbcs	r3, {}	; <UNPREDICTABLE>
     408:	00000025 	andeq	r0, r0, r5, lsr #32
     40c:	00000417 	andeq	r0, r0, r7, lsl r4
     410:	00008415 	andeq	r8, r0, r5, lsl r4
     414:	12001600 	andne	r1, r0, #0, 12
     418:	00000068 	andeq	r0, r0, r8, rrx
     41c:	15176503 	ldrne	r6, [r7, #-1283]	; 0x503
     420:	02000000 	andeq	r0, r0, #0
     424:	00042f11 	andeq	r2, r4, r1, lsl pc
     428:	005d1500 	subseq	r1, sp, r0, lsl #10
     42c:	12000000 	andne	r0, r0, #0
     430:	0000020b 	andeq	r0, r0, fp, lsl #4
     434:	c6121f02 	ldrgt	r1, [r2], -r2, lsl #30
     438:	02000000 	andeq	r0, r0, #0
     43c:	00241715 	eoreq	r1, r4, r5, lsl r7
     440:	9b030000 	blls	c0448 <__bss_end__+0xb3a80>
     444:	00000453 	andeq	r0, r0, r3, asr r4
     448:	00002c15 	andeq	r2, r0, r5, lsl ip
     44c:	002c1500 	eoreq	r1, ip, r0, lsl #10
     450:	13000000 	movwne	r0, #0
     454:	00000075 	andeq	r0, r0, r5, ror r0
     458:	002c1b02 	eoreq	r1, ip, r2, lsl #22
     45c:	32170000 	andscc	r0, r7, #0
     460:	02000000 	andeq	r0, r0, #0
     464:	0004792f 	andeq	r7, r4, pc, lsr #18
     468:	005d1500 	subseq	r1, sp, r0, lsl #10
     46c:	5d150000 	ldcpl	0, cr0, [r5, #-0]
     470:	15000000 	strne	r0, [r0, #-0]
     474:	0000005d 	andeq	r0, r0, sp, asr r0
     478:	00411800 	subeq	r1, r1, r0, lsl #16
     47c:	a7030000 	strge	r0, [r3, -r0]
     480:	0000002c 	andeq	r0, r0, ip, lsr #32
     484:	00002c15 	andeq	r2, r0, r5, lsl ip
     488:	4e000000 	cdpmi	0, 0, cr0, cr0, cr0, {0}
     48c:	04000015 	streq	r0, [r0], #-21
     490:	00014300 	andeq	r4, r1, r0, lsl #6
     494:	62010400 	andvs	r0, r1, #0, 8
     498:	01000001 	tsteq	r0, r1
     49c:	000002b4 			; <UNDEFINED> instruction: 0x000002b4
     4a0:	000000f4 	strdeq	r0, [r0], -r4
     4a4:	00008318 	andeq	r8, r0, r8, lsl r3
     4a8:	000008dc 	ldrdeq	r0, [r0], -ip
     4ac:	0000013d 	andeq	r0, r0, sp, lsr r1
     4b0:	69050402 	stmdbvs	r5, {r1, sl}
     4b4:	0300746e 	movweq	r7, #1134	; 0x46e
     4b8:	00000282 	andeq	r0, r0, r2, lsl #5
     4bc:	0037d403 	eorseq	sp, r7, r3, lsl #8
     4c0:	04040000 	streq	r0, [r4], #-0
     4c4:	0001e707 	andeq	lr, r1, r7, lsl #14
     4c8:	06010400 	streq	r0, [r1], -r0, lsl #8
     4cc:	0000005c 	andeq	r0, r0, ip, asr r0
     4d0:	29050204 	stmdbcs	r5, {r2, r9}
     4d4:	04000002 	streq	r0, [r0], #-2
     4d8:	02020504 	andeq	r0, r2, #4, 10	; 0x1000000
     4dc:	08040000 	stmdaeq	r4, {}	; <UNPREDICTABLE>
     4e0:	0001fd05 	andeq	pc, r1, r5, lsl #26
     4e4:	08010400 	stmdaeq	r1, {sl}
     4e8:	0000005a 	andeq	r0, r0, sl, asr r0
     4ec:	9f070204 	svcls	0x00070204
     4f0:	03000000 	movweq	r0, #0
     4f4:	00000233 	andeq	r0, r0, r3, lsr r2
     4f8:	00733404 	rsbseq	r3, r3, r4, lsl #8
     4fc:	04040000 	streq	r0, [r4], #-0
     500:	0001e207 	andeq	lr, r1, r7, lsl #4
     504:	07080400 	streq	r0, [r8, -r0, lsl #8]
     508:	000001dd 	ldrdeq	r0, [r0], -sp
     50c:	f4070404 	vst3.8	{d0-d2}, [r7], r4
     510:	05000001 	streq	r0, [r0, #-1]
     514:	08010404 	stmdaeq	r1, {r2, sl}
     518:	00000063 	andeq	r0, r0, r3, rrx
     51c:	00970406 	addseq	r0, r7, r6, lsl #8
     520:	8a070000 	bhi	1c0528 <__bss_end__+0x1b3b60>
     524:	08000000 	stmdaeq	r0, {}	; <UNPREDICTABLE>
     528:	000004f3 	strdeq	r0, [r0], -r3
     52c:	572a0504 	strpl	r0, [sl, -r4, lsl #10]!
     530:	09000002 	stmdbeq	r0, {r1}
     534:	000004c2 	andeq	r0, r0, r2, asr #9
     538:	00372c05 	eorseq	r2, r7, r5, lsl #24
     53c:	01040000 	mrseq	r0, (UNDEF: 4)
     540:	cf09001f 	svcgt	0x0009001f
     544:	05000002 	streq	r0, [r0, #-2]
     548:	0000372d 	andeq	r3, r0, sp, lsr #14
     54c:	1e010400 	cfcpysne	mvf0, mvf1
     550:	05c50900 	strbeq	r0, [r5, #2304]	; 0x900
     554:	2e050000 	cdpcs	0, 0, cr0, cr5, cr0, {0}
     558:	00000037 	andeq	r0, r0, r7, lsr r0
     55c:	001d0104 	andseq	r0, sp, r4, lsl #2
     560:	00048109 	andeq	r8, r4, r9, lsl #2
     564:	37310500 	ldrcc	r0, [r1, -r0, lsl #10]!
     568:	04000000 	streq	r0, [r0], #-0
     56c:	09001c01 	stmdbeq	r0, {r0, sl, fp, ip}
     570:	00000530 	andeq	r0, r0, r0, lsr r5
     574:	00373205 	eorseq	r3, r7, r5, lsl #4
     578:	03040000 	movweq	r0, #16384	; 0x4000
     57c:	ab090019 	blge	2405e8 <__bss_end__+0x233c20>
     580:	05000002 	streq	r0, [r0, #-2]
     584:	00003733 	andeq	r3, r0, r3, lsr r7
     588:	18010400 	stmdane	r1, {sl}
     58c:	048d0900 	streq	r0, [sp], #2304	; 0x900
     590:	34050000 	strcc	r0, [r5], #-0
     594:	00000037 	andeq	r0, r0, r7, lsr r0
     598:	00170104 	andseq	r0, r7, r4, lsl #2
     59c:	00044d09 	andeq	r4, r4, r9, lsl #26
     5a0:	37350500 	ldrcc	r0, [r5, -r0, lsl #10]!
     5a4:	04000000 	streq	r0, [r0], #-0
     5a8:	0a001601 	beq	5db4 <__code_start__-0x224c>
     5ac:	36050046 	strcc	r0, [r5], -r6, asr #32
     5b0:	00000037 	andeq	r0, r0, r7, lsr r0
     5b4:	00150104 	andseq	r0, r5, r4, lsl #2
     5b8:	00024b09 	andeq	r4, r2, r9, lsl #22
     5bc:	37370500 	ldrcc	r0, [r7, -r0, lsl #10]!
     5c0:	04000000 	streq	r0, [r0], #-0
     5c4:	09001401 	stmdbeq	r0, {r0, sl, ip}
     5c8:	000002bf 			; <UNDEFINED> instruction: 0x000002bf
     5cc:	00373805 	eorseq	r3, r7, r5, lsl #16
     5d0:	01040000 	mrseq	r0, (UNDEF: 4)
     5d4:	9b090013 	blls	240628 <__bss_end__+0x233c60>
     5d8:	05000002 	streq	r0, [r0, #-2]
     5dc:	00003739 	andeq	r3, r0, r9, lsr r7
     5e0:	12010400 	andne	r0, r1, #0, 8
     5e4:	03970900 	orrseq	r0, r7, #0, 18
     5e8:	3a050000 	bcc	1405f0 <__bss_end__+0x133c28>
     5ec:	00000037 	andeq	r0, r0, r7, lsr r0
     5f0:	00110104 	andseq	r0, r1, r4, lsl #2
     5f4:	00344c0a 	eorseq	r4, r4, sl, lsl #24
     5f8:	00373b05 	eorseq	r3, r7, r5, lsl #22
     5fc:	01040000 	mrseq	r0, (UNDEF: 4)
     600:	5f0a0010 	svcpl	0x000a0010
     604:	05007464 	streq	r7, [r0, #-1124]	; 0x464
     608:	0000373c 	andeq	r3, r0, ip, lsr r7
     60c:	0f010400 	svceq	0x00010400
     610:	059d0900 	ldreq	r0, [sp, #2304]	; 0x900
     614:	3d050000 	stccc	0, cr0, [r5, #-0]
     618:	00000037 	andeq	r0, r0, r7, lsr r0
     61c:	000e0104 	andeq	r0, lr, r4, lsl #2
     620:	74695f0a 	strbtvc	r5, [r9], #-3850	; 0xf0a
     624:	373e0500 	ldrcc	r0, [lr, -r0, lsl #10]!
     628:	04000000 	streq	r0, [r0], #-0
     62c:	09000d01 	stmdbeq	r0, {r0, r8, sl, fp}
     630:	000005a3 	andeq	r0, r0, r3, lsr #11
     634:	00373f05 	eorseq	r3, r7, r5, lsl #30
     638:	01040000 	mrseq	r0, (UNDEF: 4)
     63c:	5f0a000c 	svcpl	0x000a000c
     640:	05007473 	streq	r7, [r0, #-1139]	; 0x473
     644:	00003740 	andeq	r3, r0, r0, asr #14
     648:	0b010400 	bleq	41650 <__bss_end__+0x34c88>
     64c:	31460a00 	cmpcc	r6, r0, lsl #20
     650:	37410500 	strbcc	r0, [r1, -r0, lsl #10]
     654:	04000000 	streq	r0, [r0], #-0
     658:	09000a01 	stmdbeq	r0, {r0, r9, fp}
     65c:	000004ce 	andeq	r0, r0, lr, asr #9
     660:	00374205 	eorseq	r4, r7, r5, lsl #4
     664:	01040000 	mrseq	r0, (UNDEF: 4)
     668:	da090009 	ble	240694 <__bss_end__+0x233ccc>
     66c:	05000004 	streq	r0, [r0, #-4]
     670:	00003743 	andeq	r3, r0, r3, asr #14
     674:	08010400 	stmdaeq	r1, {sl}
     678:	04410900 	strbeq	r0, [r1], #-2304	; 0x900
     67c:	45050000 	strmi	r0, [r5, #-0]
     680:	00000037 	andeq	r0, r0, r7, lsr r0
     684:	00070104 	andeq	r0, r7, r4, lsl #2
     688:	0045450a 	subeq	r4, r5, sl, lsl #10
     68c:	00374605 	eorseq	r4, r7, r5, lsl #12
     690:	01040000 	mrseq	r0, (UNDEF: 4)
     694:	ba090006 	blt	2406b4 <__bss_end__+0x233cec>
     698:	05000005 	streq	r0, [r0, #-5]
     69c:	00003747 	andeq	r3, r0, r7, asr #14
     6a0:	05010400 	streq	r0, [r1, #-1024]	; 0x400
     6a4:	03e00900 	mvneq	r0, #0, 18
     6a8:	48050000 	stmdami	r5, {}	; <UNPREDICTABLE>
     6ac:	00000037 	andeq	r0, r0, r7, lsr r0
     6b0:	00040104 	andeq	r0, r4, r4, lsl #2
     6b4:	0004e009 	andeq	lr, r4, r9
     6b8:	37490500 	strbcc	r0, [r9, -r0, lsl #10]
     6bc:	04000000 	streq	r0, [r0], #-0
     6c0:	09000301 	stmdbeq	r0, {r0, r8, r9}
     6c4:	0000045f 	andeq	r0, r0, pc, asr r4
     6c8:	00374a05 	eorseq	r4, r7, r5, lsl #20
     6cc:	01040000 	mrseq	r0, (UNDEF: 4)
     6d0:	eb090002 	bl	2406e0 <__bss_end__+0x233d18>
     6d4:	05000003 	streq	r0, [r0, #-3]
     6d8:	0000374b 	andeq	r3, r0, fp, asr #14
     6dc:	00020400 	andeq	r0, r2, r0, lsl #8
     6e0:	1f030000 	svcne	0x00030000
     6e4:	05000005 	streq	r0, [r0, #-5]
     6e8:	00009c4c 	andeq	r9, r0, ip, asr #24
     6ec:	03fc0800 	mvnseq	r0, #0, 16
     6f0:	06040000 	streq	r0, [r4], -r0
     6f4:	00033846 	andeq	r3, r3, r6, asr #16
     6f8:	61740a00 	cmnvs	r4, r0, lsl #20
     6fc:	48060067 	stmdami	r6, {r0, r1, r2, r5, r6}
     700:	00000037 	andeq	r0, r0, r7, lsr r0
     704:	001e0204 	andseq	r0, lr, r4, lsl #4
     708:	0600420a 	streq	r4, [r0], -sl, lsl #4
     70c:	00003749 	andeq	r3, r0, r9, asr #14
     710:	1d010400 	cfstrsne	mvf0, [r1, #-0]
     714:	00430a00 	subeq	r0, r3, r0, lsl #20
     718:	00374a06 	eorseq	r4, r7, r6, lsl #20
     71c:	01040000 	mrseq	r0, (UNDEF: 4)
     720:	580a001c 	stmdapl	sl, {r2, r3, r4}
     724:	4b06004e 	blmi	180864 <__bss_end__+0x173e9c>
     728:	00000037 	andeq	r0, r0, r7, lsr r0
     72c:	001b0104 	andseq	r0, fp, r4, lsl #2
     730:	00059609 	andeq	r9, r5, r9, lsl #12
     734:	374e0600 	strbcc	r0, [lr, -r0, lsl #12]
     738:	04000000 	streq	r0, [r0], #-0
     73c:	0a001704 	beq	6354 <__code_start__-0x1cac>
     740:	00504d49 	subseq	r4, r0, r9, asr #26
     744:	00374f06 	eorseq	r4, r7, r6, lsl #30
     748:	01040000 	mrseq	r0, (UNDEF: 4)
     74c:	410a0016 	tstmi	sl, r6, lsl r0
     750:	52060050 	andpl	r0, r6, #80	; 0x50
     754:	00000037 	andeq	r0, r0, r7, lsr r0
     758:	00140204 	andseq	r0, r4, r4, lsl #4
     75c:	5845540a 	stmdapl	r5, {r1, r3, sl, ip, lr}^
     760:	37530600 	ldrbcc	r0, [r3, -r0, lsl #12]
     764:	04000000 	streq	r0, [r0], #-0
     768:	0a001103 	beq	4b7c <__code_start__-0x3484>
     76c:	00585041 	subseq	r5, r8, r1, asr #32
     770:	00375406 	eorseq	r5, r7, r6, lsl #8
     774:	01040000 	mrseq	r0, (UNDEF: 4)
     778:	530a0010 	movwpl	r0, #40976	; 0xa010
     77c:	37550600 	ldrbcc	r0, [r5, -r0, lsl #12]
     780:	04000000 	streq	r0, [r0], #-0
     784:	0a000f01 	beq	4390 <__code_start__-0x3c70>
     788:	0600476e 	streq	r4, [r0], -lr, ror #14
     78c:	00003756 	andeq	r3, r0, r6, asr r7
     790:	0e010400 	cfcpyseq	mvf0, mvf1
     794:	03a40900 			; <UNDEFINED> instruction: 0x03a40900
     798:	57060000 	strpl	r0, [r6, -r0]
     79c:	00000037 	andeq	r0, r0, r7, lsr r0
     7a0:	000d0104 	andeq	r0, sp, r4, lsl #2
     7a4:	0005a309 	andeq	sl, r5, r9, lsl #6
     7a8:	37580600 	ldrbcc	r0, [r8, -r0, lsl #12]
     7ac:	04000000 	streq	r0, [r0], #-0
     7b0:	09000c01 	stmdbeq	r0, {r0, sl, fp}
     7b4:	00000310 	andeq	r0, r0, r0, lsl r3
     7b8:	00375906 	eorseq	r5, r7, r6, lsl #18
     7bc:	0c040000 	stceq	0, cr0, [r4], {-0}
     7c0:	03000000 	movweq	r0, #0
     7c4:	0000036e 	andeq	r0, r0, lr, ror #6
     7c8:	02625a06 	rsbeq	r5, r2, #24576	; 0x6000
     7cc:	010b0000 	mrseq	r0, (UNDEF: 11)
     7d0:	035e5e06 	cmpeq	lr, #6, 28	; 0x60
     7d4:	f60c0000 			; <UNDEFINED> instruction: 0xf60c0000
     7d8:	03000003 	movweq	r0, #3
     7dc:	0005890c 	andeq	r8, r5, ip, lsl #18
     7e0:	f50c0000 			; <UNDEFINED> instruction: 0xf50c0000
     7e4:	02000002 	andeq	r0, r0, #2
     7e8:	02890d00 	addeq	r0, r9, #0, 26
     7ec:	78020000 	stmdavc	r2, {}	; <UNPREDICTABLE>
     7f0:	00000037 	andeq	r0, r0, r7, lsr r0
     7f4:	00037803 	andeq	r7, r3, r3, lsl #16
     7f8:	00750e00 	rsbseq	r0, r5, r0, lsl #28
     7fc:	00377802 	eorseq	r7, r7, r2, lsl #16
     800:	0f000000 	svceq	0x00000000
     804:	00000153 	andeq	r0, r0, r3, asr r1
     808:	00250b01 	eoreq	r0, r5, r1, lsl #22
     80c:	83180000 	tsthi	r8, #0
     810:	00100000 	andseq	r0, r0, r0
     814:	9c010000 	stcls	0, cr0, [r1], {-0}
     818:	0000039b 	muleq	r0, fp, r3
     81c:	00832010 	addeq	r2, r3, r0, lsl r0
     820:	00144000 	andseq	r4, r4, r0
     824:	ed0f0000 	stc	0, cr0, [pc, #-0]	; 82c <__code_start__-0x77d4>
     828:	01000005 	tsteq	r0, r5
     82c:	0004920f 	andeq	r9, r4, pc, lsl #4
     830:	00832800 	addeq	r2, r3, r0, lsl #16
     834:	00009000 	andeq	r9, r0, r0
     838:	929c0100 	addsls	r0, ip, #0, 2
     83c:	11000004 	tstne	r0, r4
     840:	01007470 	tsteq	r0, r0, ror r4
     844:	0004920f 	andeq	r9, r4, pc, lsl #4
     848:	00000000 	andeq	r0, r0, r0
     84c:	61761100 	cmnvs	r6, r0, lsl #2
     850:	370f0100 	strcc	r0, [pc, -r0, lsl #2]
     854:	53000000 	movwpl	r0, #0
     858:	12000000 	andne	r0, r0, #0
     85c:	000000db 	ldrdeq	r0, [r0], -fp
     860:	000004a8 	andeq	r0, r0, r8, lsr #9
     864:	b3a80305 			; <UNDEFINED> instruction: 0xb3a80305
     868:	ed130000 	ldc	0, cr0, [r3, #-0]
     86c:	01000004 	tsteq	r0, r4
     870:	00003711 	andeq	r3, r0, r1, lsl r7
     874:	00008d00 	andeq	r8, r0, r0, lsl #26
     878:	74701400 	ldrbtvc	r1, [r0], #-1024	; 0x400
     87c:	12010065 	andne	r0, r1, #101	; 0x65
     880:	00000492 	muleq	r0, r2, r4
     884:	000000bb 	strheq	r0, [r0], -fp
     888:	00833c10 	addeq	r3, r3, r0, lsl ip
     88c:	00144b00 	andseq	r4, r4, r0, lsl #22
     890:	83581500 	cmphi	r8, #0, 10
     894:	14520000 	ldrbne	r0, [r2], #-0
     898:	043e0000 	ldrteq	r0, [lr], #-0
     89c:	01160000 	tsteq	r6, r0
     8a0:	16400153 			; <UNDEFINED> instruction: 0x16400153
     8a4:	03055201 	movweq	r5, #20993	; 0x5201
     8a8:	0000b3a8 	andeq	fp, r0, r8, lsr #7
     8ac:	05510116 	ldrbeq	r0, [r1, #-278]	; 0x116
     8b0:	00b49803 	adcseq	r9, r4, r3, lsl #16
     8b4:	50011600 	andpl	r1, r1, r0, lsl #12
     8b8:	b2080305 	andlt	r0, r8, #335544320	; 0x14000000
     8bc:	02160000 	andseq	r0, r6, #0
     8c0:	0305007d 	movweq	r0, #20605	; 0x507d
     8c4:	0000b4a0 	andeq	fp, r0, r0, lsr #9
     8c8:	835c1000 	cmphi	ip, #0
     8cc:	14680000 	strbtne	r0, [r8], #-0
     8d0:	74100000 	ldrvc	r0, [r0], #-0
     8d4:	4b000083 	blmi	ae8 <__code_start__-0x7518>
     8d8:	15000014 	strne	r0, [r0, #-20]
     8dc:	00008390 	muleq	r0, r0, r3
     8e0:	00001452 	andeq	r1, r0, r2, asr r4
     8e4:	00000488 	andeq	r0, r0, r8, lsl #9
     8e8:	01530116 	cmpeq	r3, r6, lsl r1
     8ec:	52011643 	andpl	r1, r1, #70254592	; 0x4300000
     8f0:	b3a80305 			; <UNDEFINED> instruction: 0xb3a80305
     8f4:	01160000 	tsteq	r6, r0
     8f8:	98030551 	stmdals	r3, {r0, r4, r6, r8, sl}
     8fc:	160000b4 			; <UNDEFINED> instruction: 0x160000b4
     900:	03055001 	movweq	r5, #20481	; 0x5001
     904:	0000b4b4 			; <UNDEFINED> instruction: 0x0000b4b4
     908:	007d0216 	rsbseq	r0, sp, r6, lsl r2
     90c:	b4e40305 	strbtlt	r0, [r4], #773	; 0x305
     910:	10000000 	andne	r0, r0, r0
     914:	00008394 	muleq	r0, r4, r3
     918:	00001468 	andeq	r1, r0, r8, ror #8
     91c:	38040600 	stmdacc	r4, {r9, sl}
     920:	17000003 	strne	r0, [r0, -r3]
     924:	0000008a 	andeq	r0, r0, sl, lsl #1
     928:	000004a8 	andeq	r0, r0, r8, lsr #9
     92c:	00008118 	andeq	r8, r0, r8, lsl r1
     930:	07001200 	streq	r1, [r0, -r0, lsl #4]
     934:	00000498 	muleq	r0, r8, r4
     938:	00049419 	andeq	r9, r4, r9, lsl r4
     93c:	b8180100 	ldmdalt	r8, {r8}
     940:	98000083 	stmdals	r0, {r0, r1, r7}
     944:	01000000 	mrseq	r0, (UNDEF: 0)
     948:	0005be9c 	muleq	r5, ip, lr
     94c:	74701100 	ldrbtvc	r1, [r0], #-256	; 0x100
     950:	92180100 	andsls	r0, r8, #0, 2
     954:	ef000004 	svc	0x00000004
     958:	11000000 	mrsne	r0, (UNDEF: 0)
     95c:	01006176 	tsteq	r0, r6, ror r1
     960:	00003718 	andeq	r3, r0, r8, lsl r7
     964:	00013100 	andeq	r3, r1, r0, lsl #2
     968:	02ba1a00 	adcseq	r1, sl, #0, 20
     96c:	18010000 	stmdane	r1, {}	; <UNPREDICTABLE>
     970:	00000037 	andeq	r0, r0, r7, lsr r0
     974:	00000152 	andeq	r0, r0, r2, asr r1
     978:	0004a41a 	andeq	sl, r4, sl, lsl r4
     97c:	37180100 	ldrcc	r0, [r8, -r0, lsl #2]
     980:	94000000 	strls	r0, [r0], #-0
     984:	12000001 	andne	r0, r0, #1
     988:	000000db 	ldrdeq	r0, [r0], -fp
     98c:	000005ce 	andeq	r0, r0, lr, asr #11
     990:	b3bc0305 			; <UNDEFINED> instruction: 0xb3bc0305
     994:	5e1b0000 	cdppl	0, 1, cr0, cr11, cr0, {0}
     998:	c8000003 	stmdagt	r0, {r0, r1}
     99c:	08000083 	stmdaeq	r0, {r0, r1, r7}
     9a0:	01000000 	mrseq	r0, (UNDEF: 0)
     9a4:	00052819 	andeq	r2, r5, r9, lsl r8
     9a8:	036e1c00 	cmneq	lr, #0, 24
     9ac:	01ce0000 	biceq	r0, lr, r0
     9b0:	1d000000 	stcne	0, cr0, [r0, #-0]
     9b4:	00000000 	andeq	r0, r0, r0
     9b8:	0000056a 	andeq	r0, r0, sl, ror #10
     9bc:	01006914 	tsteq	r0, r4, lsl r9
     9c0:	0000251b 	andeq	r2, r0, fp, lsl r5
     9c4:	0001ef00 	andeq	lr, r1, r0, lsl #30
     9c8:	00181e00 	andseq	r1, r8, r0, lsl #28
     9cc:	70140000 	andsvc	r0, r4, r0
     9d0:	01006574 	tsteq	r0, r4, ror r5
     9d4:	0004921f 	andeq	r9, r4, pc, lsl r2
     9d8:	00020d00 	andeq	r0, r2, r0, lsl #26
     9dc:	84081f00 	strhi	r1, [r8], #-3840	; 0xf00
     9e0:	039b0000 	orrseq	r0, fp, #0
     9e4:	01160000 	tsteq	r6, r0
     9e8:	00770251 	rsbseq	r0, r7, r1, asr r2
     9ec:	02500116 	subseq	r0, r0, #-2147483643	; 0x80000005
     9f0:	00000078 	andeq	r0, r0, r8, ror r0
     9f4:	83dc1000 	bicshi	r1, ip, #0
     9f8:	144b0000 	strbne	r0, [fp], #-0
     9fc:	f8150000 			; <UNDEFINED> instruction: 0xf8150000
     a00:	52000083 	andpl	r0, r0, #131	; 0x83
     a04:	ab000014 	blge	a5c <__code_start__-0x75a4>
     a08:	16000005 	strne	r0, [r0], -r5
     a0c:	4a015301 	bmi	55618 <__bss_end__+0x48c50>
     a10:	05520116 	ldrbeq	r0, [r2, #-278]	; 0x116
     a14:	00b3bc03 	adcseq	fp, r3, r3, lsl #24
     a18:	51011600 	tstpl	r1, r0, lsl #12
     a1c:	b4980305 	ldrlt	r0, [r8], #773	; 0x305
     a20:	01160000 	tsteq	r6, r0
     a24:	f0030550 			; <UNDEFINED> instruction: 0xf0030550
     a28:	160000b4 			; <UNDEFINED> instruction: 0x160000b4
     a2c:	05007d02 	streq	r7, [r0, #-3330]	; 0xd02
     a30:	00b52403 	adcseq	r2, r5, r3, lsl #8
     a34:	fc100000 	ldc2	0, cr0, [r0], {-0}
     a38:	68000083 	stmdavs	r0, {r0, r1, r7}
     a3c:	10000014 	andne	r0, r0, r4, lsl r0
     a40:	00008438 	andeq	r8, r0, r8, lsr r4
     a44:	0000146f 	andeq	r1, r0, pc, ror #8
     a48:	008a1700 	addeq	r1, sl, r0, lsl #14
     a4c:	05ce0000 	strbeq	r0, [lr]
     a50:	81180000 	tsthi	r8, r0
     a54:	14000000 	strne	r0, [r0], #-0
     a58:	05be0700 	ldreq	r0, [lr, #1792]!	; 0x700
     a5c:	6c200000 	stcvs	0, cr0, [r0], #-0
     a60:	01000002 	tsteq	r0, r2
     a64:	00845026 	addeq	r5, r4, r6, lsr #32
     a68:	00001000 	andeq	r1, r0, r0
     a6c:	389c0100 	ldmcc	ip, {r8}
     a70:	11000006 	tstne	r0, r6
     a74:	01007470 	tsteq	r0, r0, ror r4
     a78:	00049226 	andeq	r9, r4, r6, lsr #4
     a7c:	00022000 	andeq	r2, r2, r0
     a80:	61761100 	cmnvs	r6, r0, lsl #2
     a84:	37260100 	strcc	r0, [r6, -r0, lsl #2]!
     a88:	41000000 	mrsmi	r0, (UNDEF: 0)
     a8c:	1a000002 	bne	a9c <__code_start__-0x7564>
     a90:	000002ba 			; <UNDEFINED> instruction: 0x000002ba
     a94:	00372601 	eorseq	r2, r7, r1, lsl #12
     a98:	02620000 	rsbeq	r0, r2, #0
     a9c:	5c1f0000 	ldcpl	0, cr0, [pc], {-0}
     aa0:	ad000084 	stcge	0, cr0, [r0, #-528]	; 0xfffffdf0
     aa4:	16000004 	strne	r0, [r0], -r4
     aa8:	32015301 	andcc	r5, r1, #67108864	; 0x4000000
     aac:	03520116 	cmpeq	r2, #-2147483643	; 0x80000005
     ab0:	165201f3 			; <UNDEFINED> instruction: 0x165201f3
     ab4:	f3035101 	vrhadd.u8	d5, d3, d1
     ab8:	01165101 	tsteq	r6, r1, lsl #2
     abc:	01f30350 	mvnseq	r0, r0, asr r3
     ac0:	20000050 	andcs	r0, r0, r0, asr r0
     ac4:	000003bc 			; <UNDEFINED> instruction: 0x000003bc
     ac8:	84602901 	strbthi	r2, [r0], #-2305	; 0x901
     acc:	00100000 	andseq	r0, r0, r0
     ad0:	9c010000 	stcls	0, cr0, [r1], {-0}
     ad4:	0000069d 	muleq	r0, sp, r6
     ad8:	00747011 	rsbseq	r7, r4, r1, lsl r0
     adc:	04922901 	ldreq	r2, [r2], #2305	; 0x901
     ae0:	02830000 	addeq	r0, r3, #0
     ae4:	76110000 	ldrvc	r0, [r1], -r0
     ae8:	29010061 	stmdbcs	r1, {r0, r5, r6}
     aec:	00000037 	andeq	r0, r0, r7, lsr r0
     af0:	000002a4 	andeq	r0, r0, r4, lsr #5
     af4:	0002ba1a 	andeq	fp, r2, sl, lsl sl
     af8:	37290100 	strcc	r0, [r9, -r0, lsl #2]!
     afc:	c5000000 	strgt	r0, [r0, #-0]
     b00:	1f000002 	svcne	0x00000002
     b04:	0000846c 	andeq	r8, r0, ip, ror #8
     b08:	000004ad 	andeq	r0, r0, sp, lsr #9
     b0c:	01530116 	cmpeq	r3, r6, lsl r1
     b10:	52011633 	andpl	r1, r1, #53477376	; 0x3300000
     b14:	5201f303 	andpl	pc, r1, #201326592	; 0xc000000
     b18:	03510116 	cmpeq	r1, #-2147483643	; 0x80000005
     b1c:	165101f3 			; <UNDEFINED> instruction: 0x165101f3
     b20:	f3035001 	vhadd.u8	d5, d3, d1
     b24:	00005001 	andeq	r5, r0, r1
     b28:	00060620 	andeq	r0, r6, r0, lsr #12
     b2c:	702c0100 	eorvc	r0, ip, r0, lsl #2
     b30:	10000084 	andne	r0, r0, r4, lsl #1
     b34:	01000000 	mrseq	r0, (UNDEF: 0)
     b38:	0007029c 	muleq	r7, ip, r2
     b3c:	74701100 	ldrbtvc	r1, [r0], #-256	; 0x100
     b40:	922c0100 	eorls	r0, ip, #0, 2
     b44:	e6000004 	str	r0, [r0], -r4
     b48:	11000002 	tstne	r0, r2
     b4c:	01006176 	tsteq	r0, r6, ror r1
     b50:	0000372c 	andeq	r3, r0, ip, lsr #14
     b54:	00030700 	andeq	r0, r3, r0, lsl #14
     b58:	02ba1a00 	adcseq	r1, sl, #0, 20
     b5c:	2c010000 	stccs	0, cr0, [r1], {-0}
     b60:	00000037 	andeq	r0, r0, r7, lsr r0
     b64:	00000328 	andeq	r0, r0, r8, lsr #6
     b68:	00847c1f 	addeq	r7, r4, pc, lsl ip
     b6c:	0004ad00 	andeq	sl, r4, r0, lsl #26
     b70:	53011600 	movwpl	r1, #5632	; 0x1600
     b74:	01163001 	tsteq	r6, r1
     b78:	01f30352 	mvnseq	r0, r2, asr r3
     b7c:	51011652 	tstpl	r1, r2, asr r6
     b80:	5101f303 	tstpl	r1, r3, lsl #6
     b84:	03500116 	cmpeq	r0, #-2147483643	; 0x80000005
     b88:	005001f3 	ldrsheq	r0, [r0], #-19	; 0xffffffed
     b8c:	05621900 	strbeq	r1, [r2, #-2304]!	; 0x900
     b90:	31010000 	mrscc	r0, (UNDEF: 1)
     b94:	00008480 	andeq	r8, r0, r0, lsl #9
     b98:	00000098 	muleq	r0, r8, r0
     b9c:	07d99c01 	ldrbeq	r9, [r9, r1, lsl #24]
     ba0:	66110000 	ldrvs	r0, [r1], -r0
     ba4:	92310100 	eorsls	r0, r1, #0, 2
     ba8:	49000004 	stmdbmi	r0, {r2}
     bac:	1a000003 	bne	bc0 <__code_start__-0x7440>
     bb0:	00000319 	andeq	r0, r0, r9, lsl r3
     bb4:	00373101 	eorseq	r3, r7, r1, lsl #2
     bb8:	038e0000 	orreq	r0, lr, #0
     bbc:	db120000 	blle	480bc4 <__bss_end__+0x4741fc>
     bc0:	e9000000 	stmdb	r0, {}	; <UNPREDICTABLE>
     bc4:	05000007 	streq	r0, [r0, #-7]
     bc8:	00b3e403 	adcseq	lr, r3, r3, lsl #8
     bcc:	84941000 	ldrhi	r1, [r4], #0
     bd0:	144b0000 	strbne	r0, [fp], #-0
     bd4:	b0150000 	andslt	r0, r5, r0
     bd8:	52000084 	andpl	r0, r0, #132	; 0x84
     bdc:	84000014 	strhi	r0, [r0], #-20
     be0:	16000007 	strne	r0, [r0], -r7
     be4:	08025301 	stmdaeq	r2, {r0, r8, r9, ip, lr}
     be8:	52011632 	andpl	r1, r1, #52428800	; 0x3200000
     bec:	b3e40305 	mvnlt	r0, #335544320	; 0x14000000
     bf0:	01160000 	tsteq	r6, r0
     bf4:	98030551 	stmdals	r3, {r0, r4, r6, r8, sl}
     bf8:	160000b4 			; <UNDEFINED> instruction: 0x160000b4
     bfc:	03055001 	movweq	r5, #20481	; 0x5001
     c00:	0000b534 	andeq	fp, r0, r4, lsr r5
     c04:	007d0216 	rsbseq	r0, sp, r6, lsl r2
     c08:	b5680305 	strblt	r0, [r8, #-773]!	; 0x305
     c0c:	10000000 	andne	r0, r0, r0
     c10:	000084b4 			; <UNDEFINED> instruction: 0x000084b4
     c14:	00001468 	andeq	r1, r0, r8, ror #8
     c18:	0084d810 	addeq	sp, r4, r0, lsl r8
     c1c:	00144b00 	andseq	r4, r4, r0, lsl #22
     c20:	84f41500 	ldrbthi	r1, [r4], #1280	; 0x500
     c24:	14520000 	ldrbne	r0, [r2], #-0
     c28:	07cf0000 	strbeq	r0, [pc, r0]
     c2c:	01160000 	tsteq	r6, r0
     c30:	37080253 	smlsdcc	r8, r3, r2, r0
     c34:	05520116 	ldrbeq	r0, [r2, #-278]	; 0x116
     c38:	00b3e403 	adcseq	lr, r3, r3, lsl #8
     c3c:	51011600 	tstpl	r1, r0, lsl #12
     c40:	b4980305 	ldrlt	r0, [r8], #773	; 0x305
     c44:	01160000 	tsteq	r6, r0
     c48:	08030550 	stmdaeq	r3, {r4, r6, r8, sl}
     c4c:	160000b2 			; <UNDEFINED> instruction: 0x160000b2
     c50:	05007d02 	streq	r7, [r0, #-3330]	; 0xd02
     c54:	00b59403 	adcseq	r9, r5, r3, lsl #8
     c58:	f8100000 			; <UNDEFINED> instruction: 0xf8100000
     c5c:	68000084 	stmdavs	r0, {r2, r7}
     c60:	00000014 	andeq	r0, r0, r4, lsl r0
     c64:	00008a17 	andeq	r8, r0, r7, lsl sl
     c68:	0007e900 	andeq	lr, r7, r0, lsl #18
     c6c:	00811800 	addeq	r1, r1, r0, lsl #16
     c70:	00110000 	andseq	r0, r1, r0
     c74:	0007d907 	andeq	sp, r7, r7, lsl #18
     c78:	04130f00 	ldreq	r0, [r3], #-3840	; 0xf00
     c7c:	41010000 	mrsmi	r0, (UNDEF: 1)
     c80:	00000492 	muleq	r0, r2, r4
     c84:	00008518 	andeq	r8, r0, r8, lsl r5
     c88:	00000194 	muleq	r0, r4, r1
     c8c:	0a0c9c01 	beq	327c98 <__bss_end__+0x31b2d0>
     c90:	70110000 	andsvc	r0, r1, r0
     c94:	41010074 	tstmi	r1, r4, ror r0
     c98:	00000492 	muleq	r0, r2, r4
     c9c:	000003d3 	ldrdeq	r0, [r0], -r3
     ca0:	00617611 	rsbeq	r7, r1, r1, lsl r6
     ca4:	00684101 	rsbeq	r4, r8, r1, lsl #2
     ca8:	04570000 	ldrbeq	r0, [r7], #-0
     cac:	70110000 	andsvc	r0, r1, r0
     cb0:	41010061 	tstmi	r1, r1, rrx
     cb4:	00000068 	andeq	r0, r0, r8, rrx
     cb8:	000004dc 	ldrdeq	r0, [r0], -ip
     cbc:	6d6f6411 	cfstrdvs	mvd6, [pc, #-68]!	; c80 <__code_start__-0x7380>
     cc0:	68410100 	stmdavs	r1, {r8}^
     cc4:	60000000 	andvs	r0, r0, r0
     cc8:	12000005 	andne	r0, r0, #5
     ccc:	000000db 	ldrdeq	r0, [r0], -fp
     cd0:	00000a1c 	andeq	r0, r0, ip, lsl sl
     cd4:	b3d40305 	bicslt	r0, r4, #335544320	; 0x14000000
     cd8:	ed130000 	ldc	0, cr0, [r3, #-0]
     cdc:	01000004 	tsteq	r0, r4
     ce0:	00003746 	andeq	r3, r0, r6, asr #14
     ce4:	0005ce00 	andeq	ip, r5, r0, lsl #28
     ce8:	74701400 	ldrbtvc	r1, [r0], #-1024	; 0x400
     cec:	47010065 	strmi	r0, [r1, -r5, rrx]
     cf0:	00000492 	muleq	r0, r2, r4
     cf4:	000005f1 	strdeq	r0, [r0], -r1
     cf8:	00853810 	addeq	r3, r5, r0, lsl r8
     cfc:	00144b00 	andseq	r4, r4, r0, lsl #22
     d00:	85541500 	ldrbhi	r1, [r4, #-1280]	; 0x500
     d04:	14520000 	ldrbne	r0, [r2], #-0
     d08:	08af0000 	stmiaeq	pc!, {}	; <UNPREDICTABLE>
     d0c:	01160000 	tsteq	r6, r0
     d10:	42080253 	andmi	r0, r8, #805306373	; 0x30000005
     d14:	05520116 	ldrbeq	r0, [r2, #-278]	; 0x116
     d18:	00b3d403 	adcseq	sp, r3, r3, lsl #8
     d1c:	51011600 	tstpl	r1, r0, lsl #12
     d20:	b4980305 	ldrlt	r0, [r8], #773	; 0x305
     d24:	01160000 	tsteq	r6, r0
     d28:	08030550 	stmdaeq	r3, {r4, r6, r8, sl}
     d2c:	160000b2 			; <UNDEFINED> instruction: 0x160000b2
     d30:	05007d02 	streq	r7, [r0, #-3330]	; 0xd02
     d34:	00b5b803 	adcseq	fp, r5, r3, lsl #16
     d38:	58100000 	ldmdapl	r0, {}	; <UNPREDICTABLE>
     d3c:	68000085 	stmdavs	r0, {r0, r2, r7}
     d40:	10000014 	andne	r0, r0, r4, lsl r0
     d44:	00008564 	andeq	r8, r0, r4, ror #10
     d48:	0000144b 	andeq	r1, r0, fp, asr #8
     d4c:	00858015 	addeq	r8, r5, r5, lsl r0
     d50:	00145200 	andseq	r5, r4, r0, lsl #4
     d54:	0008fa00 	andeq	pc, r8, r0, lsl #20
     d58:	53011600 	movwpl	r1, #5632	; 0x1600
     d5c:	16430802 	strbne	r0, [r3], -r2, lsl #16
     d60:	03055201 	movweq	r5, #20993	; 0x5201
     d64:	0000b3d4 	ldrdeq	fp, [r0], -r4
     d68:	05510116 	ldrbeq	r0, [r1, #-278]	; 0x116
     d6c:	00b49803 	adcseq	r9, r4, r3, lsl #16
     d70:	50011600 	andpl	r1, r1, r0, lsl #12
     d74:	b2080305 	andlt	r0, r8, #335544320	; 0x14000000
     d78:	02160000 	andseq	r0, r6, #0
     d7c:	0305007d 	movweq	r0, #20605	; 0x507d
     d80:	0000b4a0 	andeq	fp, r0, r0, lsr #9
     d84:	85841000 	strhi	r1, [r4]
     d88:	14680000 	strbtne	r0, [r8], #-0
     d8c:	90100000 	andsls	r0, r0, r0
     d90:	4b000085 	blmi	fac <__code_start__-0x7054>
     d94:	15000014 	strne	r0, [r0, #-20]
     d98:	000085ac 	andeq	r8, r0, ip, lsr #11
     d9c:	00001452 	andeq	r1, r0, r2, asr r4
     da0:	00000945 	andeq	r0, r0, r5, asr #18
     da4:	02530116 	subseq	r0, r3, #-2147483643	; 0x80000005
     da8:	01164408 	tsteq	r6, r8, lsl #8
     dac:	d4030552 	strle	r0, [r3], #-1362	; 0x552
     db0:	160000b3 			; <UNDEFINED> instruction: 0x160000b3
     db4:	03055101 	movweq	r5, #20737	; 0x5101
     db8:	0000b498 	muleq	r0, r8, r4
     dbc:	05500116 	ldrbeq	r0, [r0, #-278]	; 0x116
     dc0:	00b20803 	adcseq	r0, r2, r3, lsl #16
     dc4:	7d021600 	stcvc	6, cr1, [r2, #-0]
     dc8:	c4030500 	strgt	r0, [r3], #-1280	; 0x500
     dcc:	000000b5 	strheq	r0, [r0], -r5
     dd0:	0085b010 	addeq	fp, r5, r0, lsl r0
     dd4:	00146800 	andseq	r6, r4, r0, lsl #16
     dd8:	85cc1000 	strbhi	r1, [ip]
     ddc:	144b0000 	strbne	r0, [fp], #-0
     de0:	e8150000 	ldmda	r5, {}	; <UNPREDICTABLE>
     de4:	52000085 	andpl	r0, r0, #133	; 0x85
     de8:	90000014 	andls	r0, r0, r4, lsl r0
     dec:	16000009 	strne	r0, [r0], -r9
     df0:	08025301 	stmdaeq	r2, {r0, r8, r9, ip, lr}
     df4:	52011648 	andpl	r1, r1, #72, 12	; 0x4800000
     df8:	b3d40305 	bicslt	r0, r4, #335544320	; 0x14000000
     dfc:	01160000 	tsteq	r6, r0
     e00:	98030551 	stmdals	r3, {r0, r4, r6, r8, sl}
     e04:	160000b4 			; <UNDEFINED> instruction: 0x160000b4
     e08:	03055001 	movweq	r5, #20481	; 0x5001
     e0c:	0000b5d8 	ldrdeq	fp, [r0], -r8
     e10:	007d0216 	rsbseq	r0, sp, r6, lsl r2
     e14:	b6040305 	strlt	r0, [r4], -r5, lsl #6
     e18:	10000000 	andne	r0, r0, r0
     e1c:	000085ec 	andeq	r8, r0, ip, ror #11
     e20:	00001468 	andeq	r1, r0, r8, ror #8
     e24:	0085f010 	addeq	pc, r5, r0, lsl r0	; <UNPREDICTABLE>
     e28:	00147600 	andseq	r7, r4, r0, lsl #12
     e2c:	863c1500 	ldrthi	r1, [ip], -r0, lsl #10
     e30:	07020000 	streq	r0, [r2, -r0]
     e34:	09bc0000 	ldmibeq	ip!, {}	; <UNPREDICTABLE>
     e38:	01160000 	tsteq	r6, r0
     e3c:	00790251 	rsbseq	r0, r9, r1, asr r2
     e40:	02500116 	subseq	r0, r0, #-2147483643	; 0x80000005
     e44:	15000075 	strne	r0, [r0, #-117]	; 0x75
     e48:	00008654 	andeq	r8, r0, r4, asr r6
     e4c:	00001481 	andeq	r1, r0, r1, lsl #9
     e50:	000009d0 	ldrdeq	r0, [r0], -r0	; <UNPREDICTABLE>
     e54:	02500116 	subseq	r0, r0, #-2147483643	; 0x80000005
     e58:	15000075 	strne	r0, [r0, #-117]	; 0x75
     e5c:	00008664 	andeq	r8, r0, r4, ror #12
     e60:	00001452 	andeq	r1, r0, r2, asr r4
     e64:	000009ed 	andeq	r0, r0, sp, ror #19
     e68:	02510116 	subseq	r0, r1, #-2147483643	; 0x80000005
     e6c:	01160074 	tsteq	r6, r4, ror r0
     e70:	10030550 	andne	r0, r3, r0, asr r5
     e74:	000000b6 	strheq	r0, [r0], -r6
     e78:	0086741f 	addeq	r7, r6, pc, lsl r4
     e7c:	00149200 	andseq	r9, r4, r0, lsl #4
     e80:	52011600 	andpl	r1, r1, #0, 12
     e84:	01163401 	tsteq	r6, r1, lsl #8
     e88:	00750251 	rsbseq	r0, r5, r1, asr r2
     e8c:	05500116 	ldrbeq	r0, [r0, #-278]	; 0x116
     e90:	00b62403 	adcseq	r2, r6, r3, lsl #8
     e94:	17000000 	strne	r0, [r0, -r0]
     e98:	0000008a 	andeq	r0, r0, sl, lsl #1
     e9c:	00000a1c 	andeq	r0, r0, ip, lsl sl
     ea0:	00008118 	andeq	r8, r0, r8, lsl r1
     ea4:	07000f00 	streq	r0, [r0, -r0, lsl #30]
     ea8:	00000a0c 	andeq	r0, r0, ip, lsl #20
     eac:	0005a920 	andeq	sl, r5, r0, lsr #18
     eb0:	ac5f0100 	ldfgee	f0, [pc], {-0}
     eb4:	f0000086 			; <UNDEFINED> instruction: 0xf0000086
     eb8:	01000000 	mrseq	r0, (UNDEF: 0)
     ebc:	000ba79c 	muleq	fp, ip, r7
     ec0:	74701100 	ldrbtvc	r1, [r0], #-256	; 0x100
     ec4:	925f0100 	subsls	r0, pc, #0, 2
     ec8:	0f000004 	svceq	0x00000004
     ecc:	11000006 	tstne	r0, r6
     ed0:	01006176 	tsteq	r0, r6, ror r1
     ed4:	0000375f 	andeq	r3, r0, pc, asr r7
     ed8:	00067d00 	andeq	r7, r6, r0, lsl #26
     edc:	61701100 	cmnvs	r0, r0, lsl #2
     ee0:	375f0100 	ldrbcc	r0, [pc, -r0, lsl #2]
     ee4:	dd000000 	stcle	0, cr0, [r0, #-0]
     ee8:	1a000006 	bne	f08 <__code_start__-0x70f8>
     eec:	000002ba 			; <UNDEFINED> instruction: 0x000002ba
     ef0:	00375f01 	eorseq	r5, r7, r1, lsl #30
     ef4:	073d0000 	ldreq	r0, [sp, -r0]!
     ef8:	64210000 	strtvs	r0, [r1], #-0
     efc:	01006d6f 	tsteq	r0, pc, ror #26
     f00:	0000685f 	andeq	r6, r0, pc, asr r8
     f04:	00910200 	addseq	r0, r1, r0, lsl #4
     f08:	0000db12 	andeq	sp, r0, r2, lsl fp
     f0c:	000bb700 	andeq	fp, fp, r0, lsl #14
     f10:	f8030500 			; <UNDEFINED> instruction: 0xf8030500
     f14:	1d0000b3 	stcne	0, cr0, [r0, #-716]	; 0xfffffd34
     f18:	00000030 	andeq	r0, r0, r0, lsr r0
     f1c:	00000ac5 	andeq	r0, r0, r5, asr #21
     f20:	01006914 	tsteq	r0, r4, lsl r9
     f24:	00003763 	andeq	r3, r0, r3, ror #14
     f28:	0007ab00 	andeq	sl, r7, r0, lsl #22
     f2c:	87601f00 	strbhi	r1, [r0, -r0, lsl #30]!
     f30:	07ee0000 	strbeq	r0, [lr, r0]!
     f34:	01160000 	tsteq	r6, r0
     f38:	00780253 	rsbseq	r0, r8, r3, asr r2
     f3c:	02520116 	subseq	r0, r2, #-2147483643	; 0x80000005
     f40:	01160076 	tsteq	r6, r6, ror r0
     f44:	00750251 	rsbseq	r0, r5, r1, asr r2
     f48:	02500116 	subseq	r0, r0, #-2147483643	; 0x80000005
     f4c:	00000079 	andeq	r0, r0, r9, ror r0
     f50:	0086d410 	addeq	sp, r6, r0, lsl r4
     f54:	00144b00 	andseq	r4, r4, r0, lsl #22
     f58:	86f01500 	ldrbthi	r1, [r0], r0, lsl #10
     f5c:	14520000 	ldrbne	r0, [r2], #-0
     f60:	0b070000 	bleq	1c0f68 <__bss_end__+0x1b45a0>
     f64:	01160000 	tsteq	r6, r0
     f68:	60080253 	andvs	r0, r8, r3, asr r2
     f6c:	05520116 	ldrbeq	r0, [r2, #-278]	; 0x116
     f70:	00b3f803 	adcseq	pc, r3, r3, lsl #16
     f74:	51011600 	tstpl	r1, r0, lsl #12
     f78:	b4980305 	ldrlt	r0, [r8], #773	; 0x305
     f7c:	01160000 	tsteq	r6, r0
     f80:	08030550 	stmdaeq	r3, {r4, r6, r8, sl}
     f84:	160000b2 			; <UNDEFINED> instruction: 0x160000b2
     f88:	05007d02 	streq	r7, [r0, #-3330]	; 0xd02
     f8c:	00b5b803 	adcseq	fp, r5, r3, lsl #16
     f90:	f4100000 			; <UNDEFINED> instruction: 0xf4100000
     f94:	68000086 	stmdavs	r0, {r1, r2, r7}
     f98:	10000014 	andne	r0, r0, r4, lsl r0
     f9c:	00008700 	andeq	r8, r0, r0, lsl #14
     fa0:	0000144b 	andeq	r1, r0, fp, asr #8
     fa4:	00871c15 	addeq	r1, r7, r5, lsl ip
     fa8:	00145200 	andseq	r5, r4, r0, lsl #4
     fac:	000b5200 	andeq	r5, fp, r0, lsl #4
     fb0:	53011600 	movwpl	r1, #5632	; 0x1600
     fb4:	16610802 	strbtne	r0, [r1], -r2, lsl #16
     fb8:	03055201 	movweq	r5, #20993	; 0x5201
     fbc:	0000b3f8 	strdeq	fp, [r0], -r8
     fc0:	05510116 	ldrbeq	r0, [r1, #-278]	; 0x116
     fc4:	00b49803 	adcseq	r9, r4, r3, lsl #16
     fc8:	50011600 	andpl	r1, r1, r0, lsl #12
     fcc:	b2080305 	andlt	r0, r8, #335544320	; 0x14000000
     fd0:	02160000 	andseq	r0, r6, #0
     fd4:	0305007d 	movweq	r0, #20605	; 0x507d
     fd8:	0000b4a0 	andeq	fp, r0, r0, lsr #9
     fdc:	87201000 	strhi	r1, [r0, -r0]!
     fe0:	14680000 	strbtne	r0, [r8], #-0
     fe4:	2c100000 	ldccs	0, cr0, [r0], {-0}
     fe8:	4b000087 	blmi	120c <__code_start__-0x6df4>
     fec:	15000014 	strne	r0, [r0, #-20]
     ff0:	00008748 	andeq	r8, r0, r8, asr #14
     ff4:	00001452 	andeq	r1, r0, r2, asr r4
     ff8:	00000b9d 	muleq	r0, sp, fp
     ffc:	02530116 	subseq	r0, r3, #-2147483643	; 0x80000005
    1000:	01166208 	tsteq	r6, r8, lsl #4
    1004:	f8030552 			; <UNDEFINED> instruction: 0xf8030552
    1008:	160000b3 			; <UNDEFINED> instruction: 0x160000b3
    100c:	03055101 	movweq	r5, #20737	; 0x5101
    1010:	0000b498 	muleq	r0, r8, r4
    1014:	05500116 	ldrbeq	r0, [r0, #-278]	; 0x116
    1018:	00b20803 	adcseq	r0, r2, r3, lsl #16
    101c:	7d021600 	stcvc	6, cr1, [r2, #-0]
    1020:	c4030500 	strgt	r0, [r3], #-1280	; 0x500
    1024:	000000b5 	strheq	r0, [r0], -r5
    1028:	00874c10 	addeq	r4, r7, r0, lsl ip
    102c:	00146800 	andseq	r6, r4, r0, lsl #16
    1030:	8a170000 	bhi	5c1038 <__bss_end__+0x5b4670>
    1034:	b7000000 	strlt	r0, [r0, -r0]
    1038:	1800000b 	stmdane	r0, {r0, r1, r3}
    103c:	00000081 	andeq	r0, r0, r1, lsl #1
    1040:	a7070010 	smladge	r7, r0, r0, r0
    1044:	0f00000b 	svceq	0x0000000b
    1048:	000004b2 			; <UNDEFINED> instruction: 0x000004b2
    104c:	04926a01 	ldreq	r6, [r2], #2561	; 0xa01
    1050:	879c0000 	ldrhi	r0, [ip, r0]
    1054:	00940000 	addseq	r0, r4, r0
    1058:	9c010000 	stcls	0, cr0, [r1], {-0}
    105c:	00000cc8 	andeq	r0, r0, r8, asr #25
    1060:	0003191a 	andeq	r1, r3, sl, lsl r9
    1064:	886a0100 	stmdahi	sl!, {r8}^
    1068:	c9000000 	stmdbgt	r0, {}	; <UNPREDICTABLE>
    106c:	1a000007 	bne	1090 <__code_start__-0x6f70>
    1070:	00000458 	andeq	r0, r0, r8, asr r4
    1074:	00376a01 	eorseq	r6, r7, r1, lsl #20
    1078:	081e0000 	ldmdaeq	lr, {}	; <UNPREDICTABLE>
    107c:	db120000 	blle	481084 <__bss_end__+0x4746bc>
    1080:	c8000000 	stmdagt	r0, {}	; <UNPREDICTABLE>
    1084:	0500000c 	streq	r0, [r0, #-12]
    1088:	00b40c03 	adcseq	r0, r4, r3, lsl #24
    108c:	74701400 	ldrbtvc	r1, [r0], #-1024	; 0x400
    1090:	926c0100 	rsbls	r0, ip, #0, 2
    1094:	71000004 	tstvc	r0, r4
    1098:	22000008 	andcs	r0, r0, #8
    109c:	6e01006e 	cdpvs	0, 0, cr0, cr1, cr14, {3}
    10a0:	00000037 	andeq	r0, r0, r7, lsr r0
    10a4:	b4104000 	ldrlt	r4, [r0], #-0
    10a8:	4b000087 	blmi	12cc <__code_start__-0x6d34>
    10ac:	15000014 	strne	r0, [r0, #-20]
    10b0:	000087d0 	ldrdeq	r8, [r0], -r0
    10b4:	00001452 	andeq	r1, r0, r2, asr r4
    10b8:	00000c5d 	andeq	r0, r0, sp, asr ip
    10bc:	02530116 	subseq	r0, r3, #-2147483643	; 0x80000005
    10c0:	01166b08 	tsteq	r6, r8, lsl #22
    10c4:	0c030552 	cfstr32eq	mvfx0, [r3], {82}	; 0x52
    10c8:	160000b4 			; <UNDEFINED> instruction: 0x160000b4
    10cc:	03055101 	movweq	r5, #20737	; 0x5101
    10d0:	0000b498 	muleq	r0, r8, r4
    10d4:	05500116 	ldrbeq	r0, [r0, #-278]	; 0x116
    10d8:	00b63003 	adcseq	r3, r6, r3
    10dc:	7d021600 	stcvc	6, cr1, [r2, #-0]
    10e0:	68030500 	stmdavs	r3, {r8, sl}
    10e4:	000000b6 	strheq	r0, [r0], -r6
    10e8:	0087d410 	addeq	sp, r7, r0, lsl r4
    10ec:	00146800 	andseq	r6, r4, r0, lsl #16
    10f0:	87e01000 	strbhi	r1, [r0, r0]!
    10f4:	144b0000 	strbne	r0, [fp], #-0
    10f8:	fc150000 	ldc2	0, cr0, [r5], {-0}
    10fc:	52000087 	andpl	r0, r0, #135	; 0x87
    1100:	a8000014 	stmdage	r0, {r2, r4}
    1104:	1600000c 	strne	r0, [r0], -ip
    1108:	08025301 	stmdaeq	r2, {r0, r8, r9, ip, lr}
    110c:	5201166f 	andpl	r1, r1, #116391936	; 0x6f00000
    1110:	b40c0305 	strlt	r0, [ip], #-773	; 0x305
    1114:	01160000 	tsteq	r6, r0
    1118:	98030551 	stmdals	r3, {r0, r4, r6, r8, sl}
    111c:	160000b4 			; <UNDEFINED> instruction: 0x160000b4
    1120:	03055001 	movweq	r5, #20481	; 0x5001
    1124:	0000b6a8 	andeq	fp, r0, r8, lsr #13
    1128:	007d0216 	rsbseq	r0, sp, r6, lsl r2
    112c:	b6e40305 	strbtlt	r0, [r4], r5, lsl #6
    1130:	10000000 	andne	r0, r0, r0
    1134:	00008800 	andeq	r8, r0, r0, lsl #16
    1138:	00001468 	andeq	r1, r0, r8, ror #8
    113c:	00880c1f 	addeq	r0, r8, pc, lsl ip
    1140:	0014b400 	andseq	fp, r4, r0, lsl #8
    1144:	52011600 	andpl	r1, r1, #0, 12
    1148:	40000a03 	andmi	r0, r0, r3, lsl #20
    114c:	01510116 	cmpeq	r1, r6, lsl r1
    1150:	07000030 	smladxeq	r0, r0, r0, r0
    1154:	00000a0c 	andeq	r0, r0, ip, lsl #20
    1158:	0003d30f 	andeq	sp, r3, pc, lsl #6
    115c:	92750100 	rsbsls	r0, r5, #0, 2
    1160:	30000004 	andcc	r0, r0, r4
    1164:	90000088 	andls	r0, r0, r8, lsl #1
    1168:	01000000 	mrseq	r0, (UNDEF: 0)
    116c:	000dda9c 	muleq	sp, ip, sl
    1170:	006e1100 	rsbeq	r1, lr, r0, lsl #2
    1174:	00377501 	eorseq	r7, r7, r1, lsl #10
    1178:	08b00000 	ldmeq	r0!, {}	; <UNPREDICTABLE>
    117c:	db120000 	blle	481184 <__bss_end__+0x4747bc>
    1180:	ea000000 	b	1188 <__code_start__-0x6e78>
    1184:	0500000d 	streq	r0, [r0, #-13]
    1188:	00b41c03 	adcseq	r1, r4, r3, lsl #24
    118c:	04582300 	ldrbeq	r2, [r8], #-768	; 0x300
    1190:	77010000 	strvc	r0, [r1, -r0]
    1194:	00000037 	andeq	r0, r0, r7, lsr r0
    1198:	70144000 	andsvc	r4, r4, r0
    119c:	7a010074 	bvc	41374 <__bss_end__+0x349ac>
    11a0:	00000492 	muleq	r0, r2, r4
    11a4:	000008ea 	andeq	r0, r0, sl, ror #17
    11a8:	00884410 	addeq	r4, r8, r0, lsl r4
    11ac:	00144b00 	andseq	r4, r4, r0, lsl #22
    11b0:	88601500 	stmdahi	r0!, {r8, sl, ip}^
    11b4:	14520000 	ldrbne	r0, [r2], #-0
    11b8:	0d5f0000 	ldcleq	0, cr0, [pc, #-0]	; 11c0 <__code_start__-0x6e40>
    11bc:	01160000 	tsteq	r6, r0
    11c0:	76080253 			; <UNDEFINED> instruction: 0x76080253
    11c4:	05520116 	ldrbeq	r0, [r2, #-278]	; 0x116
    11c8:	00b41c03 	adcseq	r1, r4, r3, lsl #24
    11cc:	51011600 	tstpl	r1, r0, lsl #12
    11d0:	b4980305 	ldrlt	r0, [r8], #773	; 0x305
    11d4:	01160000 	tsteq	r6, r0
    11d8:	f0030550 			; <UNDEFINED> instruction: 0xf0030550
    11dc:	160000b6 			; <UNDEFINED> instruction: 0x160000b6
    11e0:	05007d02 	streq	r7, [r0, #-3330]	; 0xd02
    11e4:	00b74803 	adcseq	r4, r7, r3, lsl #16
    11e8:	64100000 	ldrvs	r0, [r0], #-0
    11ec:	68000088 	stmdavs	r0, {r3, r7}
    11f0:	15000014 	strne	r0, [r0, #-20]
    11f4:	0000886c 	andeq	r8, r0, ip, ror #16
    11f8:	000014d3 	ldrdeq	r1, [r0], -r3
    11fc:	00000d7d 	andeq	r0, r0, sp, ror sp
    1200:	03510116 	cmpeq	r1, #-2147483643	; 0x80000005
    1204:	0040000a 	subeq	r0, r0, sl
    1208:	00887810 	addeq	r7, r8, r0, lsl r8
    120c:	00144b00 	andseq	r4, r4, r0, lsl #22
    1210:	88941500 	ldmhi	r4, {r8, sl, ip}
    1214:	14520000 	ldrbne	r0, [r2], #-0
    1218:	0dbf0000 	ldceq	0, cr0, [pc]	; 1220 <__code_start__-0x6de0>
    121c:	01160000 	tsteq	r6, r0
    1220:	7b080253 	blvc	201b74 <__bss_end__+0x1f51ac>
    1224:	05520116 	ldrbeq	r0, [r2, #-278]	; 0x116
    1228:	00b41c03 	adcseq	r1, r4, r3, lsl #24
    122c:	51011600 	tstpl	r1, r0, lsl #12
    1230:	b4980305 	ldrlt	r0, [r8], #773	; 0x305
    1234:	01160000 	tsteq	r6, r0
    1238:	30030550 	andcc	r0, r3, r0, asr r5
    123c:	160000b6 			; <UNDEFINED> instruction: 0x160000b6
    1240:	05007d02 	streq	r7, [r0, #-3330]	; 0xd02
    1244:	00b75403 	adcseq	r5, r7, r3, lsl #8
    1248:	98100000 	ldmdals	r0, {}	; <UNPREDICTABLE>
    124c:	68000088 	stmdavs	r0, {r3, r7}
    1250:	1f000014 	svcne	0x00000014
    1254:	000088a0 	andeq	r8, r0, r0, lsr #17
    1258:	00000bbc 			; <UNDEFINED> instruction: 0x00000bbc
    125c:	03510116 	cmpeq	r1, #-2147483643	; 0x80000005
    1260:	0040000a 	subeq	r0, r0, sl
    1264:	008a1700 	addeq	r1, sl, r0, lsl #14
    1268:	0dea0000 	stcleq	0, cr0, [sl]
    126c:	81180000 	tsthi	r8, r0
    1270:	0c000000 	stceq	0, cr0, [r0], {-0}
    1274:	0dda0700 	ldcleq	7, cr0, [sl]
    1278:	a9200000 	stmdbge	r0!, {}	; <UNPREDICTABLE>
    127c:	01000004 	tsteq	r0, r4
    1280:	0088c086 	addeq	ip, r8, r6, lsl #1
    1284:	00009000 	andeq	r9, r0, r0
    1288:	dc9c0100 	ldfles	f0, [ip], {0}
    128c:	1400000e 	strne	r0, [r0], #-14
    1290:	01003163 	tsteq	r0, r3, ror #2
    1294:	00009c89 	andeq	r9, r0, r9, lsl #25
    1298:	00090800 	andeq	r0, r9, r0, lsl #16
    129c:	00db1200 	sbcseq	r1, fp, r0, lsl #4
    12a0:	0eec0000 	cdpeq	0, 14, cr0, cr12, cr0, {0}
    12a4:	03050000 	movweq	r0, #20480	; 0x5000
    12a8:	0000b42c 	andeq	fp, r0, ip, lsr #8
    12ac:	0088cc10 	addeq	ip, r8, r0, lsl ip
    12b0:	0014ed00 	andseq	lr, r4, r0, lsl #26
    12b4:	88d01000 	ldmhi	r0, {ip}^
    12b8:	14400000 	strbne	r0, [r0], #-0
    12bc:	d8100000 	ldmdale	r0, {}	; <UNPREDICTABLE>
    12c0:	f4000088 	vst4.32	{d0-d3}, [r0], r8
    12c4:	10000014 	andne	r0, r0, r4, lsl r0
    12c8:	000088dc 	ldrdeq	r8, [r0], -ip
    12cc:	00001440 	andeq	r1, r0, r0, asr #8
    12d0:	0088e810 	addeq	lr, r8, r0, lsl r8
    12d4:	00144b00 	andseq	r4, r4, r0, lsl #22
    12d8:	89041500 	stmdbhi	r4, {r8, sl, ip}
    12dc:	14520000 	ldrbne	r0, [r2], #-0
    12e0:	0e870000 	cdpeq	0, 8, cr0, cr7, cr0, {0}
    12e4:	01160000 	tsteq	r6, r0
    12e8:	8e080253 	mcrhi	2, 0, r0, cr8, cr3, {2}
    12ec:	05520116 	ldrbeq	r0, [r2, #-278]	; 0x116
    12f0:	00b42c03 	adcseq	r2, r4, r3, lsl #24
    12f4:	51011600 	tstpl	r1, r0, lsl #12
    12f8:	b4980305 	ldrlt	r0, [r8], #773	; 0x305
    12fc:	01160000 	tsteq	r6, r0
    1300:	08030550 	stmdaeq	r3, {r4, r6, r8, sl}
    1304:	160000b2 			; <UNDEFINED> instruction: 0x160000b2
    1308:	05007d02 	streq	r7, [r0, #-3330]	; 0xd02
    130c:	00b79003 	adcseq	r9, r7, r3
    1310:	08100000 	ldmdaeq	r0, {}	; <UNPREDICTABLE>
    1314:	68000089 	stmdavs	r0, {r0, r3, r7}
    1318:	10000014 	andne	r0, r0, r4, lsl r0
    131c:	00008914 	andeq	r8, r0, r4, lsl r9
    1320:	0000144b 	andeq	r1, r0, fp, asr #8
    1324:	00893015 	addeq	r3, r9, r5, lsl r0
    1328:	00145200 	andseq	r5, r4, r0, lsl #4
    132c:	000ed200 	andeq	sp, lr, r0, lsl #4
    1330:	53011600 	movwpl	r1, #5632	; 0x1600
    1334:	168f0802 	strne	r0, [pc], r2, lsl #16
    1338:	03055201 	movweq	r5, #20993	; 0x5201
    133c:	0000b42c 	andeq	fp, r0, ip, lsr #8
    1340:	05510116 	ldrbeq	r0, [r1, #-278]	; 0x116
    1344:	00b49803 	adcseq	r9, r4, r3, lsl #16
    1348:	50011600 	andpl	r1, r1, r0, lsl #12
    134c:	b2080305 	andlt	r0, r8, #335544320	; 0x14000000
    1350:	02160000 	andseq	r0, r6, #0
    1354:	0305007d 	movweq	r0, #20605	; 0x507d
    1358:	0000b79c 	muleq	r0, ip, r7
    135c:	89341000 	ldmdbhi	r4!, {ip}
    1360:	14680000 	strbtne	r0, [r8], #-0
    1364:	17000000 	strne	r0, [r0, -r0]
    1368:	0000008a 	andeq	r0, r0, sl, lsl #1
    136c:	00000eec 	andeq	r0, r0, ip, ror #29
    1370:	00008118 	andeq	r8, r0, r8, lsl r1
    1374:	07000800 	streq	r0, [r0, -r0, lsl #16]
    1378:	00000edc 	ldrdeq	r0, [r0], -ip
    137c:	00057420 	andeq	r7, r5, r0, lsr #8
    1380:	50920100 	addspl	r0, r2, r0, lsl #2
    1384:	0c000089 	stceq	0, cr0, [r0], {137}	; 0x89
    1388:	01000000 	mrseq	r0, (UNDEF: 0)
    138c:	000f109c 	muleq	pc, ip, r0	; <UNPREDICTABLE>
    1390:	89581000 	ldmdbhi	r8, {ip}^
    1394:	15050000 	strne	r0, [r5, #-0]
    1398:	20000000 	andcs	r0, r0, r0
    139c:	00000346 	andeq	r0, r0, r6, asr #6
    13a0:	895c9701 	ldmdbhi	ip, {r0, r8, r9, sl, ip, pc}^
    13a4:	00800000 	addeq	r0, r0, r0
    13a8:	9c010000 	stcls	0, cr0, [r1], {-0}
    13ac:	00000fe1 	andeq	r0, r0, r1, ror #31
    13b0:	01006311 	tsteq	r0, r1, lsl r3
    13b4:	00025797 	muleq	r2, r7, r7
    13b8:	00093100 	andeq	r3, r9, r0, lsl #2
    13bc:	00db1200 	sbcseq	r1, fp, r0, lsl #4
    13c0:	0fe10000 	svceq	0x00e10000
    13c4:	03050000 	movweq	r0, #20480	; 0x5000
    13c8:	0000b438 	andeq	fp, r0, r8, lsr r4
    13cc:	00897010 	addeq	r7, r9, r0, lsl r0
    13d0:	00144b00 	andseq	r4, r4, r0, lsl #22
    13d4:	898c1500 	stmibhi	ip, {r8, sl, ip}
    13d8:	14520000 	ldrbne	r0, [r2], #-0
    13dc:	0f830000 	svceq	0x00830000
    13e0:	01160000 	tsteq	r6, r0
    13e4:	98080253 	stmdals	r8, {r0, r1, r4, r6, r9}
    13e8:	05520116 	ldrbeq	r0, [r2, #-278]	; 0x116
    13ec:	00b43803 	adcseq	r3, r4, r3, lsl #16
    13f0:	51011600 	tstpl	r1, r0, lsl #12
    13f4:	b4980305 	ldrlt	r0, [r8], #773	; 0x305
    13f8:	01160000 	tsteq	r6, r0
    13fc:	08030550 	stmdaeq	r3, {r4, r6, r8, sl}
    1400:	160000b2 			; <UNDEFINED> instruction: 0x160000b2
    1404:	05007d02 	streq	r7, [r0, #-3330]	; 0xd02
    1408:	00b7ac03 	adcseq	sl, r7, r3, lsl #24
    140c:	90100000 	andsls	r0, r0, r0
    1410:	68000089 	stmdavs	r0, {r0, r3, r7}
    1414:	10000014 	andne	r0, r0, r4, lsl r0
    1418:	0000899c 	muleq	r0, ip, r9
    141c:	0000144b 	andeq	r1, r0, fp, asr #8
    1420:	0089b815 	addeq	fp, r9, r5, lsl r8
    1424:	00145200 	andseq	r5, r4, r0, lsl #4
    1428:	000fce00 	andeq	ip, pc, r0, lsl #28
    142c:	53011600 	movwpl	r1, #5632	; 0x1600
    1430:	16990802 	ldrne	r0, [r9], r2, lsl #16
    1434:	03055201 	movweq	r5, #20993	; 0x5201
    1438:	0000b438 	andeq	fp, r0, r8, lsr r4
    143c:	05510116 	ldrbeq	r0, [r1, #-278]	; 0x116
    1440:	00b49803 	adcseq	r9, r4, r3, lsl #16
    1444:	50011600 	andpl	r1, r1, r0, lsl #12
    1448:	b2080305 	andlt	r0, r8, #335544320	; 0x14000000
    144c:	02160000 	andseq	r0, r6, #0
    1450:	0305007d 	movweq	r0, #20605	; 0x507d
    1454:	0000b7bc 			; <UNDEFINED> instruction: 0x0000b7bc
    1458:	89bc1000 	ldmibhi	ip!, {ip}
    145c:	14680000 	strbtne	r0, [r8], #-0
    1460:	c0100000 	andsgt	r0, r0, r0
    1464:	0c000089 	stceq	0, cr0, [r0], {137}	; 0x89
    1468:	00000015 	andeq	r0, r0, r5, lsl r0
    146c:	000a0c07 	andeq	r0, sl, r7, lsl #24
    1470:	04232000 	strteq	r2, [r3], #-0
    1474:	9c010000 	stcls	0, cr0, [r1], {-0}
    1478:	000089dc 	ldrdeq	r8, [r0], -ip
    147c:	00000058 	andeq	r0, r0, r8, asr r0
    1480:	10759c01 	rsbsne	r9, r5, r1, lsl #24
    1484:	63140000 	tstvs	r4, #0
    1488:	579d0100 	ldrpl	r0, [sp, r0, lsl #2]
    148c:	5a000002 	bpl	149c <__code_start__-0x6b64>
    1490:	12000009 	andne	r0, r0, #9
    1494:	000000db 	ldrdeq	r0, [r0], -fp
    1498:	00001085 	andeq	r1, r0, r5, lsl #1
    149c:	b4480305 	strblt	r0, [r8], #-773	; 0x305
    14a0:	e8100000 	ldmda	r0, {}	; <UNPREDICTABLE>
    14a4:	40000089 	andmi	r0, r0, r9, lsl #1
    14a8:	10000014 	andne	r0, r0, r4, lsl r0
    14ac:	000089f4 	strdeq	r8, [r0], -r4
    14b0:	0000144b 	andeq	r1, r0, fp, asr #8
    14b4:	008a1015 	addeq	r1, sl, r5, lsl r0
    14b8:	00145200 	andseq	r5, r4, r0, lsl #4
    14bc:	00106200 	andseq	r6, r0, r0, lsl #4
    14c0:	53011600 	movwpl	r1, #5632	; 0x1600
    14c4:	169e0802 	ldrne	r0, [lr], r2, lsl #16
    14c8:	03055201 	movweq	r5, #20993	; 0x5201
    14cc:	0000b448 	andeq	fp, r0, r8, asr #8
    14d0:	05510116 	ldrbeq	r0, [r1, #-278]	; 0x116
    14d4:	00b49803 	adcseq	r9, r4, r3, lsl #16
    14d8:	50011600 	andpl	r1, r1, r0, lsl #12
    14dc:	b2080305 	andlt	r0, r8, #335544320	; 0x14000000
    14e0:	02160000 	andseq	r0, r6, #0
    14e4:	0305007d 	movweq	r0, #20605	; 0x507d
    14e8:	0000b7d0 	ldrdeq	fp, [r0], -r0
    14ec:	8a141000 	bhi	5054f4 <__bss_end__+0x4f8b2c>
    14f0:	14680000 	strbtne	r0, [r8], #-0
    14f4:	1c100000 	ldcne	0, cr0, [r0], {-0}
    14f8:	1000008a 	andne	r0, r0, sl, lsl #1
    14fc:	0000000f 	andeq	r0, r0, pc
    1500:	00008a17 	andeq	r8, r0, r7, lsl sl
    1504:	00108500 	andseq	r8, r0, r0, lsl #10
    1508:	00811800 	addeq	r1, r1, r0, lsl #16
    150c:	000b0000 	andeq	r0, fp, r0
    1510:	00107507 	andseq	r7, r0, r7, lsl #10
    1514:	031e2000 	tsteq	lr, #0
    1518:	a3010000 	movwge	r0, #4096	; 0x1000
    151c:	00008a34 	andeq	r8, r0, r4, lsr sl
    1520:	00000050 	andeq	r0, r0, r0, asr r0
    1524:	11109c01 	tstne	r0, r1, lsl #24
    1528:	63110000 	tstvs	r1, #0
    152c:	57a30100 	strpl	r0, [r3, r0, lsl #2]!
    1530:	78000002 	stmdavc	r0, {r1}
    1534:	12000009 	andne	r0, r0, #9
    1538:	000000db 	ldrdeq	r0, [r0], -fp
    153c:	00001120 	andeq	r1, r0, r0, lsr #2
    1540:	b4540305 	ldrblt	r0, [r4], #-773	; 0x305
    1544:	48100000 	ldmdami	r0, {}	; <UNPREDICTABLE>
    1548:	4b00008a 	blmi	1778 <__code_start__-0x6888>
    154c:	15000014 	strne	r0, [r0, #-20]
    1550:	00008a64 	andeq	r8, r0, r4, ror #20
    1554:	00001452 	andeq	r1, r0, r2, asr r4
    1558:	000010fd 	strdeq	r1, [r0], -sp
    155c:	02530116 	subseq	r0, r3, #-2147483643	; 0x80000005
    1560:	0116a408 	tsteq	r6, r8, lsl #8
    1564:	54030552 	strpl	r0, [r3], #-1362	; 0x552
    1568:	160000b4 			; <UNDEFINED> instruction: 0x160000b4
    156c:	03055101 	movweq	r5, #20737	; 0x5101
    1570:	0000b498 	muleq	r0, r8, r4
    1574:	05500116 	ldrbeq	r0, [r0, #-278]	; 0x116
    1578:	00b20803 	adcseq	r0, r2, r3, lsl #16
    157c:	7d021600 	stcvc	6, cr1, [r2, #-0]
    1580:	d0030500 	andle	r0, r3, r0, lsl #10
    1584:	000000b7 	strheq	r0, [r0], -r7
    1588:	008a6810 	addeq	r6, sl, r0, lsl r8
    158c:	00146800 	andseq	r6, r4, r0, lsl #16
    1590:	8a6c1000 	bhi	1b05598 <__bss_end__+0x1af8bd0>
    1594:	151d0000 	ldrne	r0, [sp, #-0]
    1598:	17000000 	strne	r0, [r0, -r0]
    159c:	0000008a 	andeq	r0, r0, sl, lsl #1
    15a0:	00001120 	andeq	r1, r0, r0, lsr #2
    15a4:	00008118 	andeq	r8, r0, r8, lsl r1
    15a8:	07000e00 	streq	r0, [r0, -r0, lsl #28]
    15ac:	00001110 	andeq	r1, r0, r0, lsl r1
    15b0:	00051420 	andeq	r1, r5, r0, lsr #8
    15b4:	84a70100 	strthi	r0, [r7], #256	; 0x100
    15b8:	5800008a 	stmdapl	r0, {r1, r3, r7}
    15bc:	01000000 	mrseq	r0, (UNDEF: 0)
    15c0:	0011b49c 	mulseq	r1, ip, r4
    15c4:	00631400 	rsbeq	r1, r3, r0, lsl #8
    15c8:	0257a801 	subseq	sl, r7, #65536	; 0x10000
    15cc:	09960000 	ldmibeq	r6, {}	; <UNPREDICTABLE>
    15d0:	db120000 	blle	4815d8 <__bss_end__+0x474c10>
    15d4:	c4000000 	strgt	r0, [r0], #-0
    15d8:	05000011 	streq	r0, [r0, #-17]
    15dc:	00b46403 	adcseq	r6, r4, r3, lsl #8
    15e0:	8a901000 	bhi	fe4055e8 <__bss_end__+0xfe3f8c20>
    15e4:	14400000 	strbne	r0, [r0], #-0
    15e8:	9c100000 	ldcls	0, cr0, [r0], {-0}
    15ec:	4b00008a 	blmi	181c <__code_start__-0x67e4>
    15f0:	15000014 	strne	r0, [r0, #-20]
    15f4:	00008ab8 			; <UNDEFINED> instruction: 0x00008ab8
    15f8:	00001452 	andeq	r1, r0, r2, asr r4
    15fc:	000011a1 	andeq	r1, r0, r1, lsr #3
    1600:	02530116 	subseq	r0, r3, #-2147483643	; 0x80000005
    1604:	0116a908 	tsteq	r6, r8, lsl #18
    1608:	64030552 	strvs	r0, [r3], #-1362	; 0x552
    160c:	160000b4 			; <UNDEFINED> instruction: 0x160000b4
    1610:	03055101 	movweq	r5, #20737	; 0x5101
    1614:	0000b498 	muleq	r0, r8, r4
    1618:	05500116 	ldrbeq	r0, [r0, #-278]	; 0x116
    161c:	00b20803 	adcseq	r0, r2, r3, lsl #16
    1620:	7d021600 	stcvc	6, cr1, [r2, #-0]
    1624:	ac030500 	cfstr32ge	mvfx0, [r3], {-0}
    1628:	000000b7 	strheq	r0, [r0], -r7
    162c:	008abc10 	addeq	fp, sl, r0, lsl ip
    1630:	00146800 	andseq	r6, r4, r0, lsl #16
    1634:	8ac41000 	bhi	ff10563c <__bss_end__+0xff0f8c74>
    1638:	108a0000 	addne	r0, sl, r0
    163c:	17000000 	strne	r0, [r0, -r0]
    1640:	0000008a 	andeq	r0, r0, sl, lsl #1
    1644:	000011c4 	andeq	r1, r0, r4, asr #3
    1648:	00008118 	andeq	r8, r0, r8, lsl r1
    164c:	07000a00 	streq	r0, [r0, -r0, lsl #20]
    1650:	000011b4 			; <UNDEFINED> instruction: 0x000011b4
    1654:	00054a0f 	andeq	r4, r5, pc, lsl #20
    1658:	68af0100 	stmiavs	pc!, {r8}	; <UNPREDICTABLE>
    165c:	dc000000 	stcle	0, cr0, [r0], {-0}
    1660:	0800008a 	stmdaeq	r0, {r1, r3, r7}
    1664:	01000000 	mrseq	r0, (UNDEF: 0)
    1668:	0011ee9c 	mulseq	r1, ip, lr
    166c:	00722400 	rsbseq	r2, r2, r0, lsl #8
    1670:	0068b001 	rsbeq	fp, r8, r1
    1674:	50010000 	andpl	r0, r1, r0
    1678:	032d2000 	teqeq	sp, #0
    167c:	b4010000 	strlt	r0, [r1], #-0
    1680:	00008ae4 	andeq	r8, r0, r4, ror #21
    1684:	0000000c 	andeq	r0, r0, ip
    1688:	12229c01 	eorne	r9, r2, #256	; 0x100
    168c:	72110000 	andsvc	r0, r1, #0
    1690:	37b40100 	ldrcc	r0, [r4, r0, lsl #2]!
    1694:	b4000000 	strlt	r0, [r0], #-0
    1698:	1f000009 	svcne	0x00000009
    169c:	00008aec 	andeq	r8, r0, ip, ror #21
    16a0:	0000152e 	andeq	r1, r0, lr, lsr #10
    16a4:	03500116 	cmpeq	r0, #-2147483643	; 0x80000005
    16a8:	005001f3 	ldrsheq	r0, [r0], #-19	; 0xffffffed
    16ac:	02e42000 	rsceq	r2, r4, #0
    16b0:	ba010000 	blt	416b8 <__bss_end__+0x34cf0>
    16b4:	00008af0 	strdeq	r8, [r0], -r0
    16b8:	000000bc 	strheq	r0, [r0], -ip
    16bc:	13729c01 	cmnne	r2, #256	; 0x100
    16c0:	70110000 	andsvc	r0, r1, r0
    16c4:	01006469 	tsteq	r0, r9, ror #8
    16c8:	000037ba 			; <UNDEFINED> instruction: 0x000037ba
    16cc:	0009d500 	andeq	sp, r9, r0, lsl #10
    16d0:	02591a00 	subseq	r1, r9, #0, 20
    16d4:	ba010000 	blt	416dc <__bss_end__+0x34d14>
    16d8:	00000037 	andeq	r0, r0, r7, lsr r0
    16dc:	00000a41 	andeq	r0, r0, r1, asr #20
    16e0:	00747011 	rsbseq	r7, r4, r1, lsl r0
    16e4:	0492ba01 	ldreq	fp, [r2], #2561	; 0xa01
    16e8:	0aba0000 	beq	fee816f0 <__bss_end__+0xfee74d28>
    16ec:	db120000 	blle	4816f4 <__bss_end__+0x474d2c>
    16f0:	72000000 	andvc	r0, r0, #0
    16f4:	05000013 	streq	r0, [r0, #-19]
    16f8:	00b47003 	adcseq	r7, r4, r3
    16fc:	8b041000 	blhi	105704 <__bss_end__+0xf8d3c>
    1700:	144b0000 	strbne	r0, [fp], #-0
    1704:	20150000 	andscs	r0, r5, r0
    1708:	5200008b 	andpl	r0, r0, #139	; 0x8b
    170c:	b4000014 	strlt	r0, [r0], #-20
    1710:	16000012 			; <UNDEFINED> instruction: 0x16000012
    1714:	08025301 	stmdaeq	r2, {r0, r8, r9, ip, lr}
    1718:	520116bb 	andpl	r1, r1, #196083712	; 0xbb00000
    171c:	b4700305 	ldrbtlt	r0, [r0], #-773	; 0x305
    1720:	01160000 	tsteq	r6, r0
    1724:	98030551 	stmdals	r3, {r0, r4, r6, r8, sl}
    1728:	160000b4 			; <UNDEFINED> instruction: 0x160000b4
    172c:	03055001 	movweq	r5, #20481	; 0x5001
    1730:	0000b208 	andeq	fp, r0, r8, lsl #4
    1734:	007d0216 	rsbseq	r0, sp, r6, lsl r2
    1738:	b7e00305 	strblt	r0, [r0, r5, lsl #6]!
    173c:	10000000 	andne	r0, r0, r0
    1740:	00008b24 	andeq	r8, r0, r4, lsr #22
    1744:	00001468 	andeq	r1, r0, r8, ror #8
    1748:	008b3010 	addeq	r3, fp, r0, lsl r0
    174c:	00144b00 	andseq	r4, r4, r0, lsl #22
    1750:	8b4c1500 	blhi	1306b58 <__bss_end__+0x12fa190>
    1754:	14520000 	ldrbne	r0, [r2], #-0
    1758:	12ff0000 	rscsne	r0, pc, #0
    175c:	01160000 	tsteq	r6, r0
    1760:	bc080253 	sfmlt	f0, 4, [r8], {83}	; 0x53
    1764:	05520116 	ldrbeq	r0, [r2, #-278]	; 0x116
    1768:	00b47003 	adcseq	r7, r4, r3
    176c:	51011600 	tstpl	r1, r0, lsl #12
    1770:	b4980305 	ldrlt	r0, [r8], #773	; 0x305
    1774:	01160000 	tsteq	r6, r0
    1778:	08030550 	stmdaeq	r3, {r4, r6, r8, sl}
    177c:	160000b2 			; <UNDEFINED> instruction: 0x160000b2
    1780:	05007d02 	streq	r7, [r0, #-3330]	; 0xd02
    1784:	00b7f403 	adcseq	pc, r7, r3, lsl #8
    1788:	50100000 	andspl	r0, r0, r0
    178c:	6800008b 	stmdavs	r0, {r0, r1, r3, r7}
    1790:	10000014 	andne	r0, r0, r4, lsl r0
    1794:	00008b60 	andeq	r8, r0, r0, ror #22
    1798:	0000144b 	andeq	r1, r0, fp, asr #8
    179c:	008b7c15 	addeq	r7, fp, r5, lsl ip
    17a0:	00145200 	andseq	r5, r4, r0, lsl #4
    17a4:	00134a00 	andseq	r4, r3, r0, lsl #20
    17a8:	53011600 	movwpl	r1, #5632	; 0x1600
    17ac:	16bd0802 	ldrtne	r0, [sp], r2, lsl #16
    17b0:	03055201 	movweq	r5, #20993	; 0x5201
    17b4:	0000b470 	andeq	fp, r0, r0, ror r4
    17b8:	05510116 	ldrbeq	r0, [r1, #-278]	; 0x116
    17bc:	00b49803 	adcseq	r9, r4, r3, lsl #16
    17c0:	50011600 	andpl	r1, r1, r0, lsl #12
    17c4:	b2080305 	andlt	r0, r8, #335544320	; 0x14000000
    17c8:	02160000 	andseq	r0, r6, #0
    17cc:	0305007d 	movweq	r0, #20605	; 0x507d
    17d0:	0000b800 	andeq	fp, r0, r0, lsl #16
    17d4:	8b801000 	blhi	fe0057dc <__bss_end__+0xfdff8e14>
    17d8:	14680000 	strbtne	r0, [r8], #-0
    17dc:	8c1f0000 	ldchi	0, cr0, [pc], {-0}
    17e0:	3f00008b 	svccc	0x0000008b
    17e4:	16000015 			; <UNDEFINED> instruction: 0x16000015
    17e8:	f3035101 	vrhadd.u8	d5, d3, d1
    17ec:	01165201 	tsteq	r6, r1, lsl #4
    17f0:	01f30950 	mvnseq	r0, r0, asr r9
    17f4:	f3243850 	vceq.i32	<illegal reg q1.5>, q2, q0
    17f8:	00215101 	eoreq	r5, r1, r1, lsl #2
    17fc:	0ba70700 	bleq	fe9c3404 <__bss_end__+0xfe9b6a3c>
    1800:	00200000 	eoreq	r0, r0, r0
    1804:	01000005 	tsteq	r0, r5
    1808:	008bacc2 	addeq	sl, fp, r2, asr #25
    180c:	00004800 	andeq	r4, r0, r0, lsl #16
    1810:	049c0100 	ldreq	r0, [ip], #256	; 0x100
    1814:	11000014 	tstne	r0, r4, lsl r0
    1818:	0100726c 	tsteq	r0, ip, ror #4
    181c:	000037c2 	andeq	r3, r0, r2, asr #15
    1820:	000b2600 	andeq	r2, fp, r0, lsl #12
    1824:	00db1200 	sbcseq	r1, fp, r0, lsl #4
    1828:	14140000 	ldrne	r0, [r4], #-0
    182c:	03050000 	movweq	r0, #20480	; 0x5000
    1830:	0000b484 	andeq	fp, r0, r4, lsl #9
    1834:	008bbc10 	addeq	fp, fp, r0, lsl ip
    1838:	00037800 	andeq	r7, r3, r0, lsl #16
    183c:	8bc81000 	blhi	ff205844 <__bss_end__+0xff1f8e7c>
    1840:	0fe60000 	svceq	0x00e60000
    1844:	cc100000 	ldcgt	0, cr0, [r0], {-0}
    1848:	4b00008b 	blmi	1a7c <__code_start__-0x6584>
    184c:	15000014 	strne	r0, [r0, #-20]
    1850:	00008be4 	andeq	r8, r0, r4, ror #23
    1854:	00001452 	andeq	r1, r0, r2, asr r4
    1858:	000013fa 	strdeq	r1, [r0], -sl
    185c:	02530116 	subseq	r0, r3, #-2147483643	; 0x80000005
    1860:	0116c508 	tsteq	r6, r8, lsl #10
    1864:	84030552 	strhi	r0, [r3], #-1362	; 0x552
    1868:	160000b4 			; <UNDEFINED> instruction: 0x160000b4
    186c:	03055101 	movweq	r5, #20737	; 0x5101
    1870:	0000b498 	muleq	r0, r8, r4
    1874:	05500116 	ldrbeq	r0, [r0, #-278]	; 0x116
    1878:	00b81403 	adcseq	r1, r8, r3, lsl #8
    187c:	7d021600 	stcvc	6, cr1, [r2, #-0]
    1880:	00740200 	rsbseq	r0, r4, r0, lsl #4
    1884:	8be81000 	blhi	ffa0588c <__bss_end__+0xff9f8ec4>
    1888:	14680000 	strbtne	r0, [r8], #-0
    188c:	17000000 	strne	r0, [r0, -r0]
    1890:	0000008a 	andeq	r0, r0, sl, lsl #1
    1894:	00001414 	andeq	r1, r0, r4, lsl r4
    1898:	00008118 	andeq	r8, r0, r8, lsl r1
    189c:	07001300 	streq	r1, [r0, -r0, lsl #6]
    18a0:	00001404 	andeq	r1, r0, r4, lsl #8
    18a4:	00060025 	andeq	r0, r6, r5, lsr #32
    18a8:	2a070100 	bcs	1c1cb0 <__bss_end__+0x1b52e8>
    18ac:	05000014 	streq	r0, [r0, #-20]
    18b0:	00b3a403 	adcseq	sl, r3, r3, lsl #8
    18b4:	00370700 	eorseq	r0, r7, r0, lsl #14
    18b8:	fc250000 	stc2	0, cr0, [r5], #-0
    18bc:	01000008 	tsteq	r0, r8
    18c0:	00002509 	andeq	r2, r0, r9, lsl #10
    18c4:	a8030500 	stmdage	r3, {r8, sl}
    18c8:	260000c5 	strcs	r0, [r0], -r5, asr #1
    18cc:	0000042f 	andeq	r0, r0, pc, lsr #8
    18d0:	02574e05 	subseq	r4, r7, #5, 28	; 0x50
    18d4:	3c270000 	stccc	0, cr0, [r7], #-0
    18d8:	07000002 	streq	r0, [r0, -r2]
    18dc:	0a92281e 	beq	fe48b95c <__bss_end__+0xfe47ef94>
    18e0:	29070000 	stmdbcs	r7, {}	; <UNPREDICTABLE>
    18e4:	00000025 	andeq	r0, r0, r5, lsr #32
    18e8:	00001468 	andeq	r1, r0, r8, ror #8
    18ec:	00009129 	andeq	r9, r0, r9, lsr #2
    18f0:	27002a00 	strcs	r2, [r0, -r0, lsl #20]
    18f4:	00000068 	andeq	r0, r0, r8, rrx
    18f8:	6b276507 	blvs	9dad1c <__bss_end__+0x9ce354>
    18fc:	02000004 	andeq	r0, r0, #4
    1900:	03cc2652 	biceq	r2, ip, #85983232	; 0x5200000
    1904:	73060000 	movwvc	r0, #24576	; 0x6000
    1908:	00000338 	andeq	r0, r0, r8, lsr r3
    190c:	0005402b 	andeq	r4, r5, fp, lsr #32
    1910:	92700600 	rsbsls	r0, r0, #0, 12
    1914:	29000014 	stmdbcs	r0, {r2, r4}
    1918:	00000492 	muleq	r0, r2, r4
    191c:	038c2b00 	orreq	r2, ip, #0, 22
    1920:	7a060000 	bvc	181928 <__bss_end__+0x174f60>
    1924:	000014ad 	andeq	r1, r0, sp, lsr #9
    1928:	00009129 	andeq	r9, r0, r9, lsr #2
    192c:	14ad2900 	strtne	r2, [sp], #2304	; 0x900
    1930:	37290000 	strcc	r0, [r9, -r0]!
    1934:	00000000 	andeq	r0, r0, r0
    1938:	14b30406 	ldrtne	r0, [r3], #1030	; 0x406
    193c:	282c0000 	stmdacs	ip!, {}	; <UNPREDICTABLE>
    1940:	00000539 	andeq	r0, r0, r9, lsr r5
    1944:	00881b08 	addeq	r1, r8, r8, lsl #22
    1948:	14d30000 	ldrbne	r0, [r3], #0
    194c:	88290000 	stmdahi	r9!, {}	; <UNPREDICTABLE>
    1950:	29000000 	stmdbcs	r0, {}	; <UNPREDICTABLE>
    1954:	00000025 	andeq	r0, r0, r5, lsr #32
    1958:	00002c29 	andeq	r2, r0, r9, lsr #24
    195c:	00280000 	eoreq	r0, r8, r0
    1960:	07000003 	streq	r0, [r0, -r3]
    1964:	0000886d 	andeq	r8, r0, sp, ror #16
    1968:	0014ed00 	andseq	lr, r4, r0, lsl #26
    196c:	00372900 	eorseq	r2, r7, r0, lsl #18
    1970:	37290000 	strcc	r0, [r9, -r0]!
    1974:	00000000 	andeq	r0, r0, r0
    1978:	00025e27 	andeq	r5, r2, r7, lsr #28
    197c:	2b5b0200 	blcs	16c2184 <__bss_end__+0x16b57bc>
    1980:	000003aa 	andeq	r0, r0, sl, lsr #7
    1984:	15055005 	strne	r5, [r5, #-5]
    1988:	57290000 	strpl	r0, [r9, -r0]!
    198c:	00000002 	andeq	r0, r0, r2
    1990:	00061d27 	andeq	r1, r6, r7, lsr #26
    1994:	2b360900 	blcs	d83d9c <__bss_end__+0xd773d4>
    1998:	00000374 	andeq	r0, r0, r4, ror r3
    199c:	151d6602 	ldrne	r6, [sp, #-1538]	; 0x602
    19a0:	57290000 	strpl	r0, [r9, -r0]!
    19a4:	00000002 	andeq	r0, r0, r2
    19a8:	0005d62b 	andeq	sp, r5, fp, lsr #12
    19ac:	2e670200 	cdpcs	2, 6, cr0, cr7, cr0, {0}
    19b0:	29000015 	stmdbcs	r0, {r0, r2, r4}
    19b4:	00000257 	andeq	r0, r0, r7, asr r2
    19b8:	03562b00 	cmpeq	r6, #0, 22
    19bc:	56020000 	strpl	r0, [r2], -r0
    19c0:	0000153f 	andeq	r1, r0, pc, lsr r5
    19c4:	00006829 	andeq	r6, r0, r9, lsr #16
    19c8:	db2d0000 	blle	b419d0 <__bss_end__+0xb35008>
    19cc:	02000002 	andeq	r0, r0, #2
    19d0:	00682960 	rsbeq	r2, r8, r0, ror #18
    19d4:	92290000 	eorls	r0, r9, #0
    19d8:	00000004 	andeq	r0, r0, r4
    19dc:	00119e00 	andseq	r9, r1, r0, lsl #28
    19e0:	bb000400 	bllt	29e8 <__code_start__-0x5618>
    19e4:	04000003 	streq	r0, [r0], #-3
    19e8:	00016201 	andeq	r6, r1, r1, lsl #4
    19ec:	06260100 	strteq	r0, [r6], -r0, lsl #2
    19f0:	00f40000 	rscseq	r0, r4, r0
    19f4:	8bf40000 	blhi	ffd019fc <__bss_end__+0xffcf5034>
    19f8:	09140000 	ldmdbeq	r4, {}	; <UNPREDICTABLE>
    19fc:	04360000 	ldrteq	r0, [r6], #-0
    1a00:	04020000 	streq	r0, [r2], #-0
    1a04:	746e6905 	strbtvc	r6, [lr], #-2309	; 0x905
    1a08:	07040300 	streq	r0, [r4, -r0, lsl #6]
    1a0c:	000001e7 	andeq	r0, r0, r7, ror #3
    1a10:	5c060103 	stfpls	f0, [r6], {3}
    1a14:	03000000 	movweq	r0, #0
    1a18:	02290502 	eoreq	r0, r9, #8388608	; 0x800000
    1a1c:	04030000 	streq	r0, [r3], #-0
    1a20:	00020205 	andeq	r0, r2, r5, lsl #4
    1a24:	05080300 	streq	r0, [r8, #-768]	; 0x300
    1a28:	000001fd 	strdeq	r0, [r0], -sp
    1a2c:	5a080103 	bpl	201e40 <__bss_end__+0x1f5478>
    1a30:	03000000 	movweq	r0, #0
    1a34:	009f0702 	addseq	r0, pc, r2, lsl #14
    1a38:	33040000 	movwcc	r0, #16384	; 0x4000
    1a3c:	04000002 	streq	r0, [r0], #-2
    1a40:	00006834 	andeq	r6, r0, r4, lsr r8
    1a44:	07040300 	streq	r0, [r4, -r0, lsl #6]
    1a48:	000001e2 	andeq	r0, r0, r2, ror #3
    1a4c:	dd070803 	stcle	8, cr0, [r7, #-12]
    1a50:	03000001 	movweq	r0, #1
    1a54:	01f40704 	mvnseq	r0, r4, lsl #14
    1a58:	01030000 	mrseq	r0, (UNDEF: 3)
    1a5c:	00006308 	andeq	r6, r0, r8, lsl #6
    1a60:	8a040500 	bhi	102e68 <__bss_end__+0xf64a0>
    1a64:	06000000 	streq	r0, [r0], -r0
    1a68:	0000007d 	andeq	r0, r0, sp, ror r0
    1a6c:	00007d07 	andeq	r7, r0, r7, lsl #26
    1a70:	00009f00 	andeq	r9, r0, r0, lsl #30
    1a74:	00760800 	rsbseq	r0, r6, r0, lsl #16
    1a78:	00190000 	andseq	r0, r9, r0
    1a7c:	00007d07 	andeq	r7, r0, r7, lsl #26
    1a80:	0000af00 	andeq	sl, r0, r0, lsl #30
    1a84:	00760800 	rsbseq	r0, r6, r0, lsl #16
    1a88:	00180000 	andseq	r0, r8, r0
    1a8c:	00068009 	andeq	r8, r6, r9
    1a90:	08020400 	stmdaeq	r2, {sl}
    1a94:	00000107 	andeq	r0, r0, r7, lsl #2
    1a98:	00070d0a 	andeq	r0, r7, sl, lsl #26
    1a9c:	2c0a0200 	sfmcs	f0, 4, [sl], {-0}
    1aa0:	04000000 	streq	r0, [r0], #-0
    1aa4:	0a001f01 	beq	96b0 <dom_perm_get+0x84>
    1aa8:	0000059d 	muleq	r0, sp, r5
    1aac:	002c0b02 	eoreq	r0, ip, r2, lsl #22
    1ab0:	07040000 	streq	r0, [r4, -r0]
    1ab4:	200a0018 	andcs	r0, sl, r8, lsl r0
    1ab8:	02000007 	andeq	r0, r0, #7
    1abc:	00002c0c 	andeq	r2, r0, ip, lsl #24
    1ac0:	10080400 	andne	r0, r8, r0, lsl #8
    1ac4:	07170a00 	ldreq	r0, [r7, -r0, lsl #20]
    1ac8:	0d020000 	stceq	0, cr0, [r2, #-0]
    1acc:	0000002c 	andeq	r0, r0, ip, lsr #32
    1ad0:	00080804 	andeq	r0, r8, r4, lsl #16
    1ad4:	0005a30a 	andeq	sl, r5, sl, lsl #6
    1ad8:	2c0e0200 	sfmcs	f0, 4, [lr], {-0}
    1adc:	04000000 	streq	r0, [r0], #-0
    1ae0:	00000008 	andeq	r0, r0, r8
    1ae4:	0004f309 	andeq	pc, r4, r9, lsl #6
    1ae8:	2a020400 	bcs	82af0 <__bss_end__+0x76128>
    1aec:	000002c2 	andeq	r0, r0, r2, asr #5
    1af0:	0004c20a 	andeq	ip, r4, sl, lsl #4
    1af4:	2c2c0200 	sfmcs	f0, 4, [ip], #-0
    1af8:	04000000 	streq	r0, [r0], #-0
    1afc:	0a001f01 	beq	9708 <dom_perm_set+0x38>
    1b00:	000002cf 	andeq	r0, r0, pc, asr #5
    1b04:	002c2d02 	eoreq	r2, ip, r2, lsl #26
    1b08:	01040000 	mrseq	r0, (UNDEF: 4)
    1b0c:	c50a001e 	strgt	r0, [sl, #-30]
    1b10:	02000005 	andeq	r0, r0, #5
    1b14:	00002c2e 	andeq	r2, r0, lr, lsr #24
    1b18:	1d010400 	cfstrsne	mvf0, [r1, #-0]
    1b1c:	04810a00 	streq	r0, [r1], #2560	; 0xa00
    1b20:	31020000 	mrscc	r0, (UNDEF: 2)
    1b24:	0000002c 	andeq	r0, r0, ip, lsr #32
    1b28:	001c0104 	andseq	r0, ip, r4, lsl #2
    1b2c:	0005300a 	andeq	r3, r5, sl
    1b30:	2c320200 	lfmcs	f0, 4, [r2], #-0
    1b34:	04000000 	streq	r0, [r0], #-0
    1b38:	0a001903 	beq	7f4c <__code_start__-0xb4>
    1b3c:	000002ab 	andeq	r0, r0, fp, lsr #5
    1b40:	002c3302 	eoreq	r3, ip, r2, lsl #6
    1b44:	01040000 	mrseq	r0, (UNDEF: 4)
    1b48:	8d0a0018 	stchi	0, cr0, [sl, #-96]	; 0xffffffa0
    1b4c:	02000004 	andeq	r0, r0, #4
    1b50:	00002c34 	andeq	r2, r0, r4, lsr ip
    1b54:	17010400 	strne	r0, [r1, -r0, lsl #8]
    1b58:	044d0a00 	strbeq	r0, [sp], #-2560	; 0xa00
    1b5c:	35020000 	strcc	r0, [r2, #-0]
    1b60:	0000002c 	andeq	r0, r0, ip, lsr #32
    1b64:	00160104 	andseq	r0, r6, r4, lsl #2
    1b68:	0200460b 	andeq	r4, r0, #11534336	; 0xb00000
    1b6c:	00002c36 	andeq	r2, r0, r6, lsr ip
    1b70:	15010400 	strne	r0, [r1, #-1024]	; 0x400
    1b74:	024b0a00 	subeq	r0, fp, #0, 20
    1b78:	37020000 	strcc	r0, [r2, -r0]
    1b7c:	0000002c 	andeq	r0, r0, ip, lsr #32
    1b80:	00140104 	andseq	r0, r4, r4, lsl #2
    1b84:	0002bf0a 	andeq	fp, r2, sl, lsl #30
    1b88:	2c380200 	lfmcs	f0, 4, [r8], #-0
    1b8c:	04000000 	streq	r0, [r0], #-0
    1b90:	0a001301 	beq	679c <__code_start__-0x1864>
    1b94:	0000029b 	muleq	r0, fp, r2
    1b98:	002c3902 	eoreq	r3, ip, r2, lsl #18
    1b9c:	01040000 	mrseq	r0, (UNDEF: 4)
    1ba0:	970a0012 	smladls	sl, r2, r0, r0
    1ba4:	02000003 	andeq	r0, r0, #3
    1ba8:	00002c3a 	andeq	r2, r0, sl, lsr ip
    1bac:	11010400 	tstne	r1, r0, lsl #8
    1bb0:	344c0b00 	strbcc	r0, [ip], #-2816	; 0xb00
    1bb4:	2c3b0200 	lfmcs	f0, 4, [fp], #-0
    1bb8:	04000000 	streq	r0, [r0], #-0
    1bbc:	0b001001 	bleq	5bc8 <__code_start__-0x2438>
    1bc0:	0074645f 	rsbseq	r6, r4, pc, asr r4
    1bc4:	002c3c02 	eoreq	r3, ip, r2, lsl #24
    1bc8:	01040000 	mrseq	r0, (UNDEF: 4)
    1bcc:	9d0a000f 	stcls	0, cr0, [sl, #-60]	; 0xffffffc4
    1bd0:	02000005 	andeq	r0, r0, #5
    1bd4:	00002c3d 	andeq	r2, r0, sp, lsr ip
    1bd8:	0e010400 	cfcpyseq	mvf0, mvf1
    1bdc:	695f0b00 	ldmdbvs	pc, {r8, r9, fp}^	; <UNPREDICTABLE>
    1be0:	3e020074 	mcrcc	0, 0, r0, cr2, cr4, {3}
    1be4:	0000002c 	andeq	r0, r0, ip, lsr #32
    1be8:	000d0104 	andeq	r0, sp, r4, lsl #2
    1bec:	0005a30a 	andeq	sl, r5, sl, lsl #6
    1bf0:	2c3f0200 	lfmcs	f0, 4, [pc], #-0	; 1bf8 <__code_start__-0x6408>
    1bf4:	04000000 	streq	r0, [r0], #-0
    1bf8:	0b000c01 	bleq	4c04 <__code_start__-0x33fc>
    1bfc:	0074735f 	rsbseq	r7, r4, pc, asr r3
    1c00:	002c4002 	eoreq	r4, ip, r2
    1c04:	01040000 	mrseq	r0, (UNDEF: 4)
    1c08:	460b000b 	strmi	r0, [fp], -fp
    1c0c:	41020031 	tstmi	r2, r1, lsr r0
    1c10:	0000002c 	andeq	r0, r0, ip, lsr #32
    1c14:	000a0104 	andeq	r0, sl, r4, lsl #2
    1c18:	0004ce0a 	andeq	ip, r4, sl, lsl #28
    1c1c:	2c420200 	sfmcs	f0, 2, [r2], {-0}
    1c20:	04000000 	streq	r0, [r0], #-0
    1c24:	0a000901 	beq	4030 <__code_start__-0x3fd0>
    1c28:	000004da 	ldrdeq	r0, [r0], -sl
    1c2c:	002c4302 	eoreq	r4, ip, r2, lsl #6
    1c30:	01040000 	mrseq	r0, (UNDEF: 4)
    1c34:	410a0008 	tstmi	sl, r8
    1c38:	02000004 	andeq	r0, r0, #4
    1c3c:	00002c45 	andeq	r2, r0, r5, asr #24
    1c40:	07010400 	streq	r0, [r1, -r0, lsl #8]
    1c44:	45450b00 	strbmi	r0, [r5, #-2816]	; 0xb00
    1c48:	2c460200 	sfmcs	f0, 2, [r6], {-0}
    1c4c:	04000000 	streq	r0, [r0], #-0
    1c50:	0a000601 	beq	345c <__code_start__-0x4ba4>
    1c54:	000005ba 			; <UNDEFINED> instruction: 0x000005ba
    1c58:	002c4702 	eoreq	r4, ip, r2, lsl #14
    1c5c:	01040000 	mrseq	r0, (UNDEF: 4)
    1c60:	e00a0005 	and	r0, sl, r5
    1c64:	02000003 	andeq	r0, r0, #3
    1c68:	00002c48 	andeq	r2, r0, r8, asr #24
    1c6c:	04010400 	streq	r0, [r1], #-1024	; 0x400
    1c70:	04e00a00 	strbteq	r0, [r0], #2560	; 0xa00
    1c74:	49020000 	stmdbmi	r2, {}	; <UNPREDICTABLE>
    1c78:	0000002c 	andeq	r0, r0, ip, lsr #32
    1c7c:	00030104 	andeq	r0, r3, r4, lsl #2
    1c80:	00045f0a 	andeq	r5, r4, sl, lsl #30
    1c84:	2c4a0200 	sfmcs	f0, 2, [sl], {-0}
    1c88:	04000000 	streq	r0, [r0], #-0
    1c8c:	0a000201 	beq	2498 <__code_start__-0x5b68>
    1c90:	000003eb 	andeq	r0, r0, fp, ror #7
    1c94:	002c4b02 	eoreq	r4, ip, r2, lsl #22
    1c98:	02040000 	andeq	r0, r4, #0
    1c9c:	09000000 	stmdbeq	r0, {}	; <UNPREDICTABLE>
    1ca0:	000003fc 	strdeq	r0, [r0], -ip
    1ca4:	98460304 	stmdals	r6, {r2, r8, r9}^
    1ca8:	0b000003 	bleq	1cbc <__code_start__-0x6344>
    1cac:	00676174 	rsbeq	r6, r7, r4, ror r1
    1cb0:	002c4803 	eoreq	r4, ip, r3, lsl #16
    1cb4:	02040000 	andeq	r0, r4, #0
    1cb8:	420b001e 	andmi	r0, fp, #30
    1cbc:	2c490300 	mcrrcs	3, 0, r0, r9, cr0
    1cc0:	04000000 	streq	r0, [r0], #-0
    1cc4:	0b001d01 	bleq	90d0 <fld_check_valid+0x28>
    1cc8:	4a030043 	bmi	c1ddc <__bss_end__+0xb5414>
    1ccc:	0000002c 	andeq	r0, r0, ip, lsr #32
    1cd0:	001c0104 	andseq	r0, ip, r4, lsl #2
    1cd4:	004e580b 	subeq	r5, lr, fp, lsl #16
    1cd8:	002c4b03 	eoreq	r4, ip, r3, lsl #22
    1cdc:	01040000 	mrseq	r0, (UNDEF: 4)
    1ce0:	960a001b 			; <UNDEFINED> instruction: 0x960a001b
    1ce4:	03000005 	movweq	r0, #5
    1ce8:	00002c4e 	andeq	r2, r0, lr, asr #24
    1cec:	17040400 	strne	r0, [r4, -r0, lsl #8]
    1cf0:	4d490b00 	vstrmi	d16, [r9, #-0]
    1cf4:	4f030050 	svcmi	0x00030050
    1cf8:	0000002c 	andeq	r0, r0, ip, lsr #32
    1cfc:	00160104 	andseq	r0, r6, r4, lsl #2
    1d00:	0050410b 	subseq	r4, r0, fp, lsl #2
    1d04:	002c5203 	eoreq	r5, ip, r3, lsl #4
    1d08:	02040000 	andeq	r0, r4, #0
    1d0c:	540b0014 	strpl	r0, [fp], #-20
    1d10:	03005845 	movweq	r5, #2117	; 0x845
    1d14:	00002c53 	andeq	r2, r0, r3, asr ip
    1d18:	11030400 	tstne	r3, r0, lsl #8
    1d1c:	50410b00 	subpl	r0, r1, r0, lsl #22
    1d20:	54030058 	strpl	r0, [r3], #-88	; 0x58
    1d24:	0000002c 	andeq	r0, r0, ip, lsr #32
    1d28:	00100104 	andseq	r0, r0, r4, lsl #2
    1d2c:	0300530b 	movweq	r5, #779	; 0x30b
    1d30:	00002c55 	andeq	r2, r0, r5, asr ip
    1d34:	0f010400 	svceq	0x00010400
    1d38:	476e0b00 	strbmi	r0, [lr, -r0, lsl #22]!
    1d3c:	2c560300 	mrrccs	3, 0, r0, r6, cr0
    1d40:	04000000 	streq	r0, [r0], #-0
    1d44:	0a000e01 	beq	5550 <__code_start__-0x2ab0>
    1d48:	000003a4 	andeq	r0, r0, r4, lsr #7
    1d4c:	002c5703 	eoreq	r5, ip, r3, lsl #14
    1d50:	01040000 	mrseq	r0, (UNDEF: 4)
    1d54:	a30a000d 	movwge	r0, #40973	; 0xa00d
    1d58:	03000005 	movweq	r0, #5
    1d5c:	00002c58 	andeq	r2, r0, r8, asr ip
    1d60:	0c010400 	cfstrseq	mvf0, [r1], {-0}
    1d64:	03100a00 	tsteq	r0, #0, 20
    1d68:	59030000 	stmdbpl	r3, {}	; <UNPREDICTABLE>
    1d6c:	0000002c 	andeq	r0, r0, ip, lsr #32
    1d70:	00000c04 	andeq	r0, r0, r4, lsl #24
    1d74:	036e0400 	cmneq	lr, #0, 8
    1d78:	5a030000 	bpl	c1d80 <__bss_end__+0xb53b8>
    1d7c:	000002c2 	andeq	r0, r0, r2, asr #5
    1d80:	00038c0c 	andeq	r8, r3, ip, lsl #24
    1d84:	f40f0100 	vst4.8	{d0,d2,d4,d6}, [pc], r0
    1d88:	3400008b 	strcc	r0, [r0], #-139	; 0x8b
    1d8c:	01000000 	mrseq	r0, (UNDEF: 0)
    1d90:	00041e9c 	muleq	r4, ip, lr
    1d94:	736d0d00 	cmnvc	sp, #0, 26
    1d98:	0f010067 	svceq	0x00010067
    1d9c:	00000084 	andeq	r0, r0, r4, lsl #1
    1da0:	00000b44 	andeq	r0, r0, r4, asr #22
    1da4:	00136a0e 	andseq	r6, r3, lr, lsl #20
    1da8:	1e0f0100 	adfnee	f0, f7, f0
    1dac:	62000004 	andvs	r0, r0, #4
    1db0:	0d00000b 	stceq	0, cr0, [r0, #-44]	; 0xffffffd4
    1db4:	0f01006e 	svceq	0x0001006e
    1db8:	0000002c 	andeq	r0, r0, ip, lsr #32
    1dbc:	00000b8e 	andeq	r0, r0, lr, lsl #23
    1dc0:	008c0c0f 	addeq	r0, ip, pc, lsl #24
    1dc4:	00115800 	andseq	r5, r1, r0, lsl #16
    1dc8:	0003fe00 	andeq	pc, r3, r0, lsl #28
    1dcc:	51011000 	mrspl	r1, (UNDEF: 1)
    1dd0:	10007402 	andne	r7, r0, r2, lsl #8
    1dd4:	f3035001 	vhadd.u8	d5, d3, d1
    1dd8:	11005101 	tstne	r0, r1, lsl #2
    1ddc:	00008c20 	andeq	r8, r0, r0, lsr #24
    1de0:	00001172 	andeq	r1, r0, r2, ror r1
    1de4:	02530110 	subseq	r0, r3, #16, 2
    1de8:	01100074 	tsteq	r0, r4, ror r0
    1dec:	00750251 	rsbseq	r0, r5, r1, asr r2
    1df0:	05500110 	ldrbeq	r0, [r0, #-272]	; 0x110
    1df4:	00b84c03 	adcseq	r4, r8, r3, lsl #24
    1df8:	05000000 	streq	r0, [r0, #-0]
    1dfc:	00042404 	andeq	r2, r4, r4, lsl #8
    1e00:	d00c1200 	andle	r1, ip, r0, lsl #4
    1e04:	01000006 	tsteq	r0, r6
    1e08:	008c2817 	addeq	r2, ip, r7, lsl r8
    1e0c:	00002800 	andeq	r2, r0, r0, lsl #16
    1e10:	6e9c0100 	fmlvse	f0, f4, f0
    1e14:	0f000004 	svceq	0x00000004
    1e18:	00008c34 	andeq	r8, r0, r4, lsr ip
    1e1c:	00001172 	andeq	r1, r0, r2, ror r1
    1e20:	00000451 	andeq	r0, r0, r1, asr r4
    1e24:	05500110 	ldrbeq	r0, [r0, #-272]	; 0x110
    1e28:	00b86803 	adcseq	r6, r8, r3, lsl #16
    1e2c:	38130000 	ldmdacc	r3, {}	; <UNPREDICTABLE>
    1e30:	8800008c 	stmdahi	r0, {r2, r3, r7}
    1e34:	11000011 	tstne	r0, r1, lsl r0
    1e38:	00008c44 	andeq	r8, r0, r4, asr #24
    1e3c:	00001172 	andeq	r1, r0, r2, ror r1
    1e40:	05500110 	ldrbeq	r0, [r0, #-272]	; 0x110
    1e44:	00b88003 	adcseq	r8, r8, r3
    1e48:	14000000 	strne	r0, [r0], #-0
    1e4c:	000006e1 	andeq	r0, r0, r1, ror #13
    1e50:	8c502001 	mrrchi	0, 0, r2, r0, cr1
    1e54:	00080000 	andeq	r0, r8, r0
    1e58:	9c010000 	stcls	0, cr0, [r1], {-0}
    1e5c:	00000493 	muleq	r0, r3, r4
    1e60:	0000db15 	andeq	sp, r0, r5, lsl fp
    1e64:	0004a300 	andeq	sl, r4, r0, lsl #6
    1e68:	50030500 	andpl	r0, r3, r0, lsl #10
    1e6c:	000000bc 	strheq	r0, [r0], -ip
    1e70:	00007d07 	andeq	r7, r0, r7, lsl #26
    1e74:	0004a300 	andeq	sl, r4, r0, lsl #6
    1e78:	00760800 	rsbseq	r0, r6, r0, lsl #16
    1e7c:	001a0000 	andseq	r0, sl, r0
    1e80:	00049306 	andeq	r9, r4, r6, lsl #6
    1e84:	06501400 	ldrbeq	r1, [r0], -r0, lsl #8
    1e88:	39010000 	stmdbcc	r1, {}	; <UNPREDICTABLE>
    1e8c:	00008c58 	andeq	r8, r0, r8, asr ip
    1e90:	000001f8 	strdeq	r0, [r0], -r8
    1e94:	077d9c01 	ldrbeq	r9, [sp, -r1, lsl #24]!
    1e98:	720d0000 	andvc	r0, sp, #0
    1e9c:	7d390100 	ldfvcs	f0, [r9, #-0]
    1ea0:	ac000007 	stcge	0, cr0, [r0], {7}
    1ea4:	1500000b 	strne	r0, [r0, #-11]
    1ea8:	000000db 	ldrdeq	r0, [r0], -fp
    1eac:	00000783 	andeq	r0, r0, r3, lsl #15
    1eb0:	bc240305 	stclt	3, cr0, [r4], #-20	; 0xffffffec
    1eb4:	78130000 	ldmdavc	r3, {}	; <UNPREDICTABLE>
    1eb8:	9300008c 	movwls	r0, #140	; 0x8c
    1ebc:	0f000011 	svceq	0x00000011
    1ec0:	00008c94 	muleq	r0, r4, ip
    1ec4:	00001172 	andeq	r1, r0, r2, ror r1
    1ec8:	0000051b 	andeq	r0, r0, fp, lsl r5
    1ecc:	02530110 	subseq	r0, r3, #16, 2
    1ed0:	01103b08 	tsteq	r0, r8, lsl #22
    1ed4:	24030552 	strcs	r0, [r3], #-1362	; 0x552
    1ed8:	100000bc 	strhne	r0, [r0], -ip
    1edc:	03055101 	movweq	r5, #20737	; 0x5101
    1ee0:	0000b8d0 	ldrdeq	fp, [r0], -r0
    1ee4:	05500110 	ldrbeq	r0, [r0, #-272]	; 0x110
    1ee8:	00b20803 	adcseq	r0, r2, r3, lsl #16
    1eec:	7d021000 	stcvc	0, cr1, [r2, #-0]
    1ef0:	e4030500 	str	r0, [r3], #-1280	; 0x500
    1ef4:	000000b9 	strheq	r0, [r0], -r9
    1ef8:	008c9813 	addeq	r9, ip, r3, lsl r8
    1efc:	00119a00 	andseq	r9, r1, r0, lsl #20
    1f00:	8ca81300 	stchi	3, cr1, [r8]
    1f04:	11930000 	orrsne	r0, r3, r0
    1f08:	c40f0000 	strgt	r0, [pc], #-0	; 1f10 <__code_start__-0x60f0>
    1f0c:	7200008c 	andvc	r0, r0, #140	; 0x8c
    1f10:	66000011 			; <UNDEFINED> instruction: 0x66000011
    1f14:	10000005 	andne	r0, r0, r5
    1f18:	08025301 	stmdaeq	r2, {r0, r8, r9, ip, lr}
    1f1c:	5201103c 	andpl	r1, r1, #60	; 0x3c
    1f20:	bc240305 	stclt	3, cr0, [r4], #-20	; 0xffffffec
    1f24:	01100000 	tsteq	r0, r0
    1f28:	d0030551 	andle	r0, r3, r1, asr r5
    1f2c:	100000b8 	strhne	r0, [r0], -r8
    1f30:	03055001 	movweq	r5, #20481	; 0x5001
    1f34:	0000b208 	andeq	fp, r0, r8, lsl #4
    1f38:	007d0210 	rsbseq	r0, sp, r0, lsl r2
    1f3c:	b9fc0305 	ldmiblt	ip!, {r0, r2, r8, r9}^
    1f40:	13000000 	movwne	r0, #0
    1f44:	00008cc8 	andeq	r8, r0, r8, asr #25
    1f48:	0000119a 	muleq	r0, sl, r1
    1f4c:	008cd813 	addeq	sp, ip, r3, lsl r8
    1f50:	00119300 	andseq	r9, r1, r0, lsl #6
    1f54:	8cf40f00 	ldclhi	15, cr0, [r4]
    1f58:	11720000 	cmnne	r2, r0
    1f5c:	05b10000 	ldreq	r0, [r1, #0]!
    1f60:	01100000 	tsteq	r0, r0
    1f64:	3d080253 	sfmcc	f0, 4, [r8, #-332]	; 0xfffffeb4
    1f68:	05520110 	ldrbeq	r0, [r2, #-272]	; 0x110
    1f6c:	00bc2403 	adcseq	r2, ip, r3, lsl #8
    1f70:	51011000 	mrspl	r1, (UNDEF: 1)
    1f74:	b8d00305 	ldmlt	r0, {r0, r2, r8, r9}^
    1f78:	01100000 	tsteq	r0, r0
    1f7c:	08030550 	stmdaeq	r3, {r4, r6, r8, sl}
    1f80:	100000b2 	strhne	r0, [r0], -r2
    1f84:	05007d02 	streq	r7, [r0, #-3330]	; 0xd02
    1f88:	00ba0803 	adcseq	r0, sl, r3, lsl #16
    1f8c:	f8130000 			; <UNDEFINED> instruction: 0xf8130000
    1f90:	9a00008c 	bls	21c8 <__code_start__-0x5e38>
    1f94:	13000011 	movwne	r0, #17
    1f98:	00008d08 	andeq	r8, r0, r8, lsl #26
    1f9c:	00001193 	muleq	r0, r3, r1
    1fa0:	008d240f 	addeq	r2, sp, pc, lsl #8
    1fa4:	00117200 	andseq	r7, r1, r0, lsl #4
    1fa8:	0005fc00 	andeq	pc, r5, r0, lsl #24
    1fac:	53011000 	movwpl	r1, #4096	; 0x1000
    1fb0:	10400802 	subne	r0, r0, r2, lsl #16
    1fb4:	03055201 	movweq	r5, #20993	; 0x5201
    1fb8:	0000bc24 	andeq	fp, r0, r4, lsr #24
    1fbc:	05510110 	ldrbeq	r0, [r1, #-272]	; 0x110
    1fc0:	00b8d003 	adcseq	sp, r8, r3
    1fc4:	50011000 	andpl	r1, r1, r0
    1fc8:	b2080305 	andlt	r0, r8, #335544320	; 0x14000000
    1fcc:	02100000 	andseq	r0, r0, #0
    1fd0:	0305007d 	movweq	r0, #20605	; 0x507d
    1fd4:	0000ba14 	andeq	fp, r0, r4, lsl sl
    1fd8:	8d281300 	stchi	3, cr1, [r8, #-0]
    1fdc:	119a0000 	orrsne	r0, sl, r0
    1fe0:	38130000 	ldmdacc	r3, {}	; <UNPREDICTABLE>
    1fe4:	9300008d 	movwls	r0, #141	; 0x8d
    1fe8:	0f000011 	svceq	0x00000011
    1fec:	00008d54 	andeq	r8, r0, r4, asr sp
    1ff0:	00001172 	andeq	r1, r0, r2, ror r1
    1ff4:	00000647 	andeq	r0, r0, r7, asr #12
    1ff8:	02530110 	subseq	r0, r3, #16, 2
    1ffc:	01104108 	tsteq	r0, r8, lsl #2
    2000:	24030552 	strcs	r0, [r3], #-1362	; 0x552
    2004:	100000bc 	strhne	r0, [r0], -ip
    2008:	03055101 	movweq	r5, #20737	; 0x5101
    200c:	0000b8d0 	ldrdeq	fp, [r0], -r0
    2010:	05500110 	ldrbeq	r0, [r0, #-272]	; 0x110
    2014:	00b20803 	adcseq	r0, r2, r3, lsl #16
    2018:	7d021000 	stcvc	0, cr1, [r2, #-0]
    201c:	24030500 	strcs	r0, [r3], #-1280	; 0x500
    2020:	000000ba 	strheq	r0, [r0], -sl
    2024:	008d5813 	addeq	r5, sp, r3, lsl r8
    2028:	00119a00 	andseq	r9, r1, r0, lsl #20
    202c:	8d681300 	stclhi	3, cr1, [r8, #-0]
    2030:	11930000 	orrsne	r0, r3, r0
    2034:	840f0000 	strhi	r0, [pc], #-0	; 203c <__code_start__-0x5fc4>
    2038:	7200008d 	andvc	r0, r0, #141	; 0x8d
    203c:	92000011 	andls	r0, r0, #17
    2040:	10000006 	andne	r0, r0, r6
    2044:	08025301 	stmdaeq	r2, {r0, r8, r9, ip, lr}
    2048:	52011042 	andpl	r1, r1, #66	; 0x42
    204c:	bc240305 	stclt	3, cr0, [r4], #-20	; 0xffffffec
    2050:	01100000 	tsteq	r0, r0
    2054:	d0030551 	andle	r0, r3, r1, asr r5
    2058:	100000b8 	strhne	r0, [r0], -r8
    205c:	03055001 	movweq	r5, #20481	; 0x5001
    2060:	0000b208 	andeq	fp, r0, r8, lsl #4
    2064:	007d0210 	rsbseq	r0, sp, r0, lsl r2
    2068:	ba340305 	blt	d02c84 <__bss_end__+0xcf62bc>
    206c:	13000000 	movwne	r0, #0
    2070:	00008d88 	andeq	r8, r0, r8, lsl #27
    2074:	0000119a 	muleq	r0, sl, r1
    2078:	008d9813 	addeq	r9, sp, r3, lsl r8
    207c:	00119300 	andseq	r9, r1, r0, lsl #6
    2080:	8db40f00 	ldchi	15, cr0, [r4]
    2084:	11720000 	cmnne	r2, r0
    2088:	06dd0000 	ldrbeq	r0, [sp], r0
    208c:	01100000 	tsteq	r0, r0
    2090:	4b080253 	blmi	2029e4 <__bss_end__+0x1f601c>
    2094:	05520110 	ldrbeq	r0, [r2, #-272]	; 0x110
    2098:	00bc2403 	adcseq	r2, ip, r3, lsl #8
    209c:	51011000 	mrspl	r1, (UNDEF: 1)
    20a0:	b8d00305 	ldmlt	r0, {r0, r2, r8, r9}^
    20a4:	01100000 	tsteq	r0, r0
    20a8:	08030550 	stmdaeq	r3, {r4, r6, r8, sl}
    20ac:	100000b2 	strhne	r0, [r0], -r2
    20b0:	05007d02 	streq	r7, [r0, #-3330]	; 0xd02
    20b4:	00ba4003 	adcseq	r4, sl, r3
    20b8:	b8130000 	ldmdalt	r3, {}	; <UNPREDICTABLE>
    20bc:	9a00008d 	bls	22f8 <__code_start__-0x5d08>
    20c0:	13000011 	movwne	r0, #17
    20c4:	00008dc8 	andeq	r8, r0, r8, asr #27
    20c8:	00001193 	muleq	r0, r3, r1
    20cc:	008de40f 	addeq	lr, sp, pc, lsl #8
    20d0:	00117200 	andseq	r7, r1, r0, lsl #4
    20d4:	00072800 	andeq	r2, r7, r0, lsl #16
    20d8:	53011000 	movwpl	r1, #4096	; 0x1000
    20dc:	104c0802 	subne	r0, ip, r2, lsl #16
    20e0:	03055201 	movweq	r5, #20993	; 0x5201
    20e4:	0000bc24 	andeq	fp, r0, r4, lsr #24
    20e8:	05510110 	ldrbeq	r0, [r1, #-272]	; 0x110
    20ec:	00b8d003 	adcseq	sp, r8, r3
    20f0:	50011000 	andpl	r1, r1, r0
    20f4:	b2080305 	andlt	r0, r8, #335544320	; 0x14000000
    20f8:	02100000 	andseq	r0, r0, #0
    20fc:	0305007d 	movweq	r0, #20605	; 0x507d
    2100:	0000ba50 	andeq	fp, r0, r0, asr sl
    2104:	8de81300 	stclhi	3, cr1, [r8]
    2108:	119a0000 	orrsne	r0, sl, r0
    210c:	f8130000 			; <UNDEFINED> instruction: 0xf8130000
    2110:	9300008d 	movwls	r0, #141	; 0x8d
    2114:	0f000011 	svceq	0x00000011
    2118:	00008e14 	andeq	r8, r0, r4, lsl lr
    211c:	00001172 	andeq	r1, r0, r2, ror r1
    2120:	00000773 	andeq	r0, r0, r3, ror r7
    2124:	02530110 	subseq	r0, r3, #16, 2
    2128:	01104d08 	tsteq	r0, r8, lsl #26
    212c:	24030552 	strcs	r0, [r3], #-1362	; 0x552
    2130:	100000bc 	strhne	r0, [r0], -ip
    2134:	03055101 	movweq	r5, #20737	; 0x5101
    2138:	0000b8d0 	ldrdeq	fp, [r0], -r0
    213c:	05500110 	ldrbeq	r0, [r0, #-272]	; 0x110
    2140:	00b20803 	adcseq	r0, r2, r3, lsl #16
    2144:	7d021000 	stcvc	0, cr1, [r2, #-0]
    2148:	64030500 	strvs	r0, [r3], #-1280	; 0x500
    214c:	000000ba 	strheq	r0, [r0], -sl
    2150:	008e1813 	addeq	r1, lr, r3, lsl r8
    2154:	00119a00 	andseq	r9, r1, r0, lsl #20
    2158:	04050000 	streq	r0, [r5], #-0
    215c:	00000107 	andeq	r0, r0, r7, lsl #2
    2160:	00008f06 	andeq	r8, r0, r6, lsl #30
    2164:	06a40c00 	strteq	r0, [r4], r0, lsl #24
    2168:	50010000 	andpl	r0, r1, r0
    216c:	00008e50 	andeq	r8, r0, r0, asr lr
    2170:	00000204 	andeq	r0, r0, r4, lsl #4
    2174:	0a129c01 	beq	4a9180 <__bss_end__+0x49c7b8>
    2178:	720d0000 	andvc	r0, sp, #0
    217c:	7d500100 	ldfvce	f0, [r0, #-0]
    2180:	a0000007 	andge	r0, r0, r7
    2184:	0f00000c 	svceq	0x0000000c
    2188:	00008e5c 	andeq	r8, r0, ip, asr lr
    218c:	000004a8 	andeq	r0, r0, r8, lsr #9
    2190:	000007be 			; <UNDEFINED> instruction: 0x000007be
    2194:	02500110 	subseq	r0, r0, #16, 2
    2198:	0f000074 	svceq	0x00000074
    219c:	00008e64 	andeq	r8, r0, r4, ror #28
    21a0:	00001172 	andeq	r1, r0, r2, ror r1
    21a4:	000007d5 	ldrdeq	r0, [r0], -r5
    21a8:	05500110 	ldrbeq	r0, [r0, #-272]	; 0x110
    21ac:	00ba7c03 	adcseq	r7, sl, r3, lsl #24
    21b0:	7c0f0000 	stcvc	0, cr0, [pc], {-0}
    21b4:	7200008e 	andvc	r0, r0, #142	; 0x8e
    21b8:	f5000011 			; <UNDEFINED> instruction: 0xf5000011
    21bc:	10000007 	andne	r0, r0, r7
    21c0:	03055201 	movweq	r5, #20993	; 0x5201
    21c4:	0000b9d8 	ldrdeq	fp, [r0], -r8
    21c8:	05500110 	ldrbeq	r0, [r0, #-272]	; 0x110
    21cc:	00ba9403 	adcseq	r9, sl, r3, lsl #8
    21d0:	940f0000 	strls	r0, [pc], #-0	; 21d8 <__code_start__-0x5e28>
    21d4:	7200008e 	andvc	r0, r0, #142	; 0x8e
    21d8:	15000011 	strne	r0, [r0, #-17]
    21dc:	10000008 	andne	r0, r0, r8
    21e0:	03055201 	movweq	r5, #20993	; 0x5201
    21e4:	0000b9c8 	andeq	fp, r0, r8, asr #19
    21e8:	05500110 	ldrbeq	r0, [r0, #-272]	; 0x110
    21ec:	00ba9403 	adcseq	r9, sl, r3, lsl #8
    21f0:	ac0f0000 	stcge	0, cr0, [pc], {-0}
    21f4:	7200008e 	andvc	r0, r0, #142	; 0x8e
    21f8:	35000011 	strcc	r0, [r0, #-17]
    21fc:	10000008 	andne	r0, r0, r8
    2200:	03055201 	movweq	r5, #20993	; 0x5201
    2204:	0000ba44 	andeq	fp, r0, r4, asr #20
    2208:	05500110 	ldrbeq	r0, [r0, #-272]	; 0x110
    220c:	00ba9403 	adcseq	r9, sl, r3, lsl #8
    2210:	c40f0000 	strgt	r0, [pc], #-0	; 2218 <__code_start__-0x5de8>
    2214:	7200008e 	andvc	r0, r0, #142	; 0x8e
    2218:	55000011 	strpl	r0, [r0, #-17]
    221c:	10000008 	andne	r0, r0, r8
    2220:	03055201 	movweq	r5, #20993	; 0x5201
    2224:	0000b9c4 	andeq	fp, r0, r4, asr #19
    2228:	05500110 	ldrbeq	r0, [r0, #-272]	; 0x110
    222c:	00ba9403 	adcseq	r9, sl, r3, lsl #8
    2230:	d80f0000 	stmdale	pc, {}	; <UNPREDICTABLE>
    2234:	7200008e 	andvc	r0, r0, #142	; 0x8e
    2238:	75000011 	strvc	r0, [r0, #-17]
    223c:	10000008 	andne	r0, r0, r8
    2240:	03055201 	movweq	r5, #20993	; 0x5201
    2244:	0000b9b8 			; <UNDEFINED> instruction: 0x0000b9b8
    2248:	05500110 	ldrbeq	r0, [r0, #-272]	; 0x110
    224c:	00ba9403 	adcseq	r9, sl, r3, lsl #8
    2250:	ec0f0000 	stc	0, cr0, [pc], {-0}
    2254:	7200008e 	andvc	r0, r0, #142	; 0x8e
    2258:	95000011 	strls	r0, [r0, #-17]
    225c:	10000008 	andne	r0, r0, r8
    2260:	03055201 	movweq	r5, #20993	; 0x5201
    2264:	0000b9b0 			; <UNDEFINED> instruction: 0x0000b9b0
    2268:	05500110 	ldrbeq	r0, [r0, #-272]	; 0x110
    226c:	00ba9403 	adcseq	r9, sl, r3, lsl #8
    2270:	040f0000 	streq	r0, [pc], #-0	; 2278 <__code_start__-0x5d88>
    2274:	7200008f 	andvc	r0, r0, #143	; 0x8f
    2278:	b5000011 	strlt	r0, [r0, #-17]
    227c:	10000008 	andne	r0, r0, r8
    2280:	03055201 	movweq	r5, #20993	; 0x5201
    2284:	0000b9a4 	andeq	fp, r0, r4, lsr #19
    2288:	05500110 	ldrbeq	r0, [r0, #-272]	; 0x110
    228c:	00ba9403 	adcseq	r9, sl, r3, lsl #8
    2290:	1c0f0000 	stcne	0, cr0, [pc], {-0}
    2294:	7200008f 	andvc	r0, r0, #143	; 0x8f
    2298:	d5000011 	strle	r0, [r0, #-17]
    229c:	10000008 	andne	r0, r0, r8
    22a0:	03055201 	movweq	r5, #20993	; 0x5201
    22a4:	0000b9a0 	andeq	fp, r0, r0, lsr #19
    22a8:	05500110 	ldrbeq	r0, [r0, #-272]	; 0x110
    22ac:	00ba9403 	adcseq	r9, sl, r3, lsl #8
    22b0:	340f0000 	strcc	r0, [pc], #-0	; 22b8 <__code_start__-0x5d48>
    22b4:	7200008f 	andvc	r0, r0, #143	; 0x8f
    22b8:	f5000011 			; <UNDEFINED> instruction: 0xf5000011
    22bc:	10000008 	andne	r0, r0, r8
    22c0:	03055201 	movweq	r5, #20993	; 0x5201
    22c4:	0000b98c 	andeq	fp, r0, ip, lsl #19
    22c8:	05500110 	ldrbeq	r0, [r0, #-272]	; 0x110
    22cc:	00ba9403 	adcseq	r9, sl, r3, lsl #8
    22d0:	4c0f0000 	stcmi	0, cr0, [pc], {-0}
    22d4:	7200008f 	andvc	r0, r0, #143	; 0x8f
    22d8:	15000011 	strne	r0, [r0, #-17]
    22dc:	10000009 	andne	r0, r0, r9
    22e0:	03055201 	movweq	r5, #20993	; 0x5201
    22e4:	0000ba54 	andeq	fp, r0, r4, asr sl
    22e8:	05500110 	ldrbeq	r0, [r0, #-272]	; 0x110
    22ec:	00ba9403 	adcseq	r9, sl, r3, lsl #8
    22f0:	640f0000 	strvs	r0, [pc], #-0	; 22f8 <__code_start__-0x5d08>
    22f4:	7200008f 	andvc	r0, r0, #143	; 0x8f
    22f8:	35000011 	strcc	r0, [r0, #-17]
    22fc:	10000009 	andne	r0, r0, r9
    2300:	03055201 	movweq	r5, #20993	; 0x5201
    2304:	0000b96c 	andeq	fp, r0, ip, ror #18
    2308:	05500110 	ldrbeq	r0, [r0, #-272]	; 0x110
    230c:	00ba9403 	adcseq	r9, sl, r3, lsl #8
    2310:	7c0f0000 	stcvc	0, cr0, [pc], {-0}
    2314:	7200008f 	andvc	r0, r0, #143	; 0x8f
    2318:	55000011 	strpl	r0, [r0, #-17]
    231c:	10000009 	andne	r0, r0, r9
    2320:	03055201 	movweq	r5, #20993	; 0x5201
    2324:	0000b95c 	andeq	fp, r0, ip, asr r9
    2328:	05500110 	ldrbeq	r0, [r0, #-272]	; 0x110
    232c:	00ba9403 	adcseq	r9, sl, r3, lsl #8
    2330:	900f0000 	andls	r0, pc, r0
    2334:	7200008f 	andvc	r0, r0, #143	; 0x8f
    2338:	75000011 	strvc	r0, [r0, #-17]
    233c:	10000009 	andne	r0, r0, r9
    2340:	03055201 	movweq	r5, #20993	; 0x5201
    2344:	0000b954 	andeq	fp, r0, r4, asr r9
    2348:	05500110 	ldrbeq	r0, [r0, #-272]	; 0x110
    234c:	00ba9403 	adcseq	r9, sl, r3, lsl #8
    2350:	a40f0000 	strge	r0, [pc], #-0	; 2358 <__code_start__-0x5ca8>
    2354:	7200008f 	andvc	r0, r0, #143	; 0x8f
    2358:	95000011 	strls	r0, [r0, #-17]
    235c:	10000009 	andne	r0, r0, r9
    2360:	03055201 	movweq	r5, #20993	; 0x5201
    2364:	0000b948 	andeq	fp, r0, r8, asr #18
    2368:	05500110 	ldrbeq	r0, [r0, #-272]	; 0x110
    236c:	00ba9403 	adcseq	r9, sl, r3, lsl #8
    2370:	bc0f0000 	stclt	0, cr0, [pc], {-0}
    2374:	7200008f 	andvc	r0, r0, #143	; 0x8f
    2378:	b5000011 	strlt	r0, [r0, #-17]
    237c:	10000009 	andne	r0, r0, r9
    2380:	03055201 	movweq	r5, #20993	; 0x5201
    2384:	0000b93c 	andeq	fp, r0, ip, lsr r9
    2388:	05500110 	ldrbeq	r0, [r0, #-272]	; 0x110
    238c:	00ba9403 	adcseq	r9, sl, r3, lsl #8
    2390:	d40f0000 	strle	r0, [pc], #-0	; 2398 <__code_start__-0x5c68>
    2394:	7200008f 	andvc	r0, r0, #143	; 0x8f
    2398:	d5000011 	strle	r0, [r0, #-17]
    239c:	10000009 	andne	r0, r0, r9
    23a0:	03055201 	movweq	r5, #20993	; 0x5201
    23a4:	0000ba68 	andeq	fp, r0, r8, ror #20
    23a8:	05500110 	ldrbeq	r0, [r0, #-272]	; 0x110
    23ac:	00ba9403 	adcseq	r9, sl, r3, lsl #8
    23b0:	ec0f0000 	stc	0, cr0, [pc], {-0}
    23b4:	7200008f 	andvc	r0, r0, #143	; 0x8f
    23b8:	f5000011 			; <UNDEFINED> instruction: 0xf5000011
    23bc:	10000009 	andne	r0, r0, r9
    23c0:	03055201 	movweq	r5, #20993	; 0x5201
    23c4:	0000b930 	andeq	fp, r0, r0, lsr r9
    23c8:	05500110 	ldrbeq	r0, [r0, #-272]	; 0x110
    23cc:	00ba9403 	adcseq	r9, sl, r3, lsl #8
    23d0:	00110000 	andseq	r0, r1, r0
    23d4:	72000090 	andvc	r0, r0, #144	; 0x90
    23d8:	10000011 	andne	r0, r0, r1, lsl r0
    23dc:	03055201 	movweq	r5, #20993	; 0x5201
    23e0:	0000b7a0 	andeq	fp, r0, r0, lsr #15
    23e4:	05500110 	ldrbeq	r0, [r0, #-272]	; 0x110
    23e8:	00ba9403 	adcseq	r9, sl, r3, lsl #8
    23ec:	14000000 	strne	r0, [r0], #-0
    23f0:	000006b7 			; <UNDEFINED> instruction: 0x000006b7
    23f4:	90546c01 	subsls	r6, r4, r1, lsl #24
    23f8:	00080000 	andeq	r0, r8, r0
    23fc:	9c010000 	stcls	0, cr0, [r1], {-0}
    2400:	00000a37 	andeq	r0, r0, r7, lsr sl
    2404:	0000db15 	andeq	sp, r0, r5, lsl fp
    2408:	000a3700 	andeq	r3, sl, r0, lsl #14
    240c:	6c030500 	cfstr32vs	mvfx0, [r3], {-0}
    2410:	000000bc 	strheq	r0, [r0], -ip
    2414:	00009f06 	andeq	r9, r0, r6, lsl #30
    2418:	06fc0c00 	ldrbteq	r0, [ip], r0, lsl #24
    241c:	72010000 	andvc	r0, r1, #0
    2420:	0000905c 	andeq	r9, r0, ip, asr r0
    2424:	0000004c 	andeq	r0, r0, ip, asr #32
    2428:	0ab79c01 	beq	fede9434 <__bss_end__+0xfeddca6c>
    242c:	630d0000 	movwvs	r0, #53248	; 0xd000
    2430:	b7720100 	ldrblt	r0, [r2, -r0, lsl #2]!
    2434:	be00000a 	cdplt	0, 0, cr0, cr0, cr10, {0}
    2438:	0f00000c 	svceq	0x0000000c
    243c:	0000906c 	andeq	r9, r0, ip, rrx
    2440:	00001172 	andeq	r1, r0, r2, ror r1
    2444:	00000a75 	andeq	r0, r0, r5, ror sl
    2448:	05500110 	ldrbeq	r0, [r0, #-272]	; 0x110
    244c:	00bacc03 	adcseq	ip, sl, r3, lsl #24
    2450:	7c0f0000 	stcvc	0, cr0, [pc], {-0}
    2454:	72000090 	andvc	r0, r0, #144	; 0x90
    2458:	8c000011 	stchi	0, cr0, [r0], {17}
    245c:	1000000a 	andne	r0, r0, sl
    2460:	03055001 	movweq	r5, #20481	; 0x5001
    2464:	0000badc 	ldrdeq	fp, [r0], -ip
    2468:	90880f00 	addls	r0, r8, r0, lsl #30
    246c:	11720000 	cmnne	r2, r0
    2470:	0aa30000 	beq	fe8c2478 <__bss_end__+0xfe8b5ab0>
    2474:	01100000 	tsteq	r0, r0
    2478:	ec030550 	cfstr32	mvfx0, [r3], {80}	; 0x50
    247c:	000000ba 	strheq	r0, [r0], -sl
    2480:	00909411 	addseq	r9, r0, r1, lsl r4
    2484:	00117200 	andseq	r7, r1, r0, lsl #4
    2488:	50011000 	andpl	r1, r1, r0
    248c:	bb040305 	bllt	1030a8 <__bss_end__+0xf66e0>
    2490:	00000000 	andeq	r0, r0, r0
    2494:	00af0405 	adceq	r0, pc, r5, lsl #8
    2498:	6a140000 	bvs	5024a0 <__bss_end__+0x4f5ad8>
    249c:	01000006 	tsteq	r0, r6
    24a0:	0090a87c 	addseq	sl, r0, ip, ror r8
    24a4:	0001c000 	andeq	ip, r1, r0
    24a8:	479c0100 	ldrmi	r0, [ip, r0, lsl #2]
    24ac:	0d00000d 	stceq	0, cr0, [r0, #-52]	; 0xffffffcc
    24b0:	7c010066 	stcvc	0, cr0, [r1], {102}	; 0x66
    24b4:	00000d47 	andeq	r0, r0, r7, asr #26
    24b8:	00000cdc 	ldrdeq	r0, [r0], -ip
    24bc:	0000db15 	andeq	sp, r0, r5, lsl fp
    24c0:	000d5d00 	andeq	r5, sp, r0, lsl #26
    24c4:	40030500 	andmi	r0, r3, r0, lsl #10
    24c8:	130000bc 	movwne	r0, #188	; 0xbc
    24cc:	000090c0 	andeq	r9, r0, r0, asr #1
    24d0:	00001193 	muleq	r0, r3, r1
    24d4:	0090dc0f 	addseq	sp, r0, pc, lsl #24
    24d8:	00117200 	andseq	r7, r1, r0, lsl #4
    24dc:	000b3000 	andeq	r3, fp, r0
    24e0:	53011000 	movwpl	r1, #4096	; 0x1000
    24e4:	107d0802 	rsbsne	r0, sp, r2, lsl #16
    24e8:	03055201 	movweq	r5, #20993	; 0x5201
    24ec:	0000bc40 	andeq	fp, r0, r0, asr #24
    24f0:	05510110 	ldrbeq	r0, [r1, #-272]	; 0x110
    24f4:	00b8d003 	adcseq	sp, r8, r3
    24f8:	50011000 	andpl	r1, r1, r0
    24fc:	b2080305 	andlt	r0, r8, #335544320	; 0x14000000
    2500:	02100000 	andseq	r0, r0, #0
    2504:	0305007d 	movweq	r0, #20605	; 0x507d
    2508:	0000bb1c 	andeq	fp, r0, ip, lsl fp
    250c:	90e01300 	rscls	r1, r0, r0, lsl #6
    2510:	119a0000 	orrsne	r0, sl, r0
    2514:	f4130000 			; <UNDEFINED> instruction: 0xf4130000
    2518:	93000090 	movwls	r0, #144	; 0x90
    251c:	0f000011 	svceq	0x00000011
    2520:	00009110 	andeq	r9, r0, r0, lsl r1
    2524:	00001172 	andeq	r1, r0, r2, ror r1
    2528:	00000b7b 	andeq	r0, r0, fp, ror fp
    252c:	02530110 	subseq	r0, r3, #16, 2
    2530:	01107e08 	tsteq	r0, r8, lsl #28
    2534:	40030552 	andmi	r0, r3, r2, asr r5
    2538:	100000bc 	strhne	r0, [r0], -ip
    253c:	03055101 	movweq	r5, #20737	; 0x5101
    2540:	0000b8d0 	ldrdeq	fp, [r0], -r0
    2544:	05500110 	ldrbeq	r0, [r0, #-272]	; 0x110
    2548:	00b20803 	adcseq	r0, r2, r3, lsl #16
    254c:	7d021000 	stcvc	0, cr1, [r2, #-0]
    2550:	2c030500 	cfstr32cs	mvfx0, [r3], {-0}
    2554:	000000bb 	strheq	r0, [r0], -fp
    2558:	00911413 	addseq	r1, r1, r3, lsl r4
    255c:	00119a00 	andseq	r9, r1, r0, lsl #20
    2560:	91241300 	teqls	r4, r0, lsl #6
    2564:	11930000 	orrsne	r0, r3, r0
    2568:	400f0000 	andmi	r0, pc, r0
    256c:	72000091 	andvc	r0, r0, #145	; 0x91
    2570:	c6000011 			; <UNDEFINED> instruction: 0xc6000011
    2574:	1000000b 	andne	r0, r0, fp
    2578:	08025301 	stmdaeq	r2, {r0, r8, r9, ip, lr}
    257c:	5201107f 	andpl	r1, r1, #127	; 0x7f
    2580:	bc400305 	mcrrlt	3, 0, r0, r0, cr5
    2584:	01100000 	tsteq	r0, r0
    2588:	d0030551 	andle	r0, r3, r1, asr r5
    258c:	100000b8 	strhne	r0, [r0], -r8
    2590:	03055001 	movweq	r5, #20481	; 0x5001
    2594:	0000b208 	andeq	fp, r0, r8, lsl #4
    2598:	007d0210 	rsbseq	r0, sp, r0, lsl r2
    259c:	bb3c0305 	bllt	f031b8 <__bss_end__+0xef67f0>
    25a0:	13000000 	movwne	r0, #0
    25a4:	00009144 	andeq	r9, r0, r4, asr #2
    25a8:	0000119a 	muleq	r0, sl, r1
    25ac:	00915413 	addseq	r5, r1, r3, lsl r4
    25b0:	00119300 	andseq	r9, r1, r0, lsl #6
    25b4:	91700f00 	cmnls	r0, r0, lsl #30
    25b8:	11720000 	cmnne	r2, r0
    25bc:	0c110000 	ldceq	0, cr0, [r1], {-0}
    25c0:	01100000 	tsteq	r0, r0
    25c4:	80080253 	andhi	r0, r8, r3, asr r2
    25c8:	05520110 	ldrbeq	r0, [r2, #-272]	; 0x110
    25cc:	00bc4003 	adcseq	r4, ip, r3
    25d0:	51011000 	mrspl	r1, (UNDEF: 1)
    25d4:	b8d00305 	ldmlt	r0, {r0, r2, r8, r9}^
    25d8:	01100000 	tsteq	r0, r0
    25dc:	08030550 	stmdaeq	r3, {r4, r6, r8, sl}
    25e0:	100000b2 	strhne	r0, [r0], -r2
    25e4:	05007d02 	streq	r7, [r0, #-3330]	; 0xd02
    25e8:	00bb4803 	adcseq	r4, fp, r3, lsl #16
    25ec:	74130000 	ldrvc	r0, [r3], #-0
    25f0:	9a000091 	bls	283c <__code_start__-0x57c4>
    25f4:	13000011 	movwne	r0, #17
    25f8:	00009184 	andeq	r9, r0, r4, lsl #3
    25fc:	00001193 	muleq	r0, r3, r1
    2600:	0091a00f 	addseq	sl, r1, pc
    2604:	00117200 	andseq	r7, r1, r0, lsl #4
    2608:	000c5c00 	andeq	r5, ip, r0, lsl #24
    260c:	53011000 	movwpl	r1, #4096	; 0x1000
    2610:	10810802 	addne	r0, r1, r2, lsl #16
    2614:	03055201 	movweq	r5, #20993	; 0x5201
    2618:	0000bc40 	andeq	fp, r0, r0, asr #24
    261c:	05510110 	ldrbeq	r0, [r1, #-272]	; 0x110
    2620:	00b8d003 	adcseq	sp, r8, r3
    2624:	50011000 	andpl	r1, r1, r0
    2628:	b2080305 	andlt	r0, r8, #335544320	; 0x14000000
    262c:	02100000 	andseq	r0, r0, #0
    2630:	0305007d 	movweq	r0, #20605	; 0x507d
    2634:	0000bb54 	andeq	fp, r0, r4, asr fp
    2638:	91a41300 			; <UNDEFINED> instruction: 0x91a41300
    263c:	119a0000 	orrsne	r0, sl, r0
    2640:	b4130000 	ldrlt	r0, [r3], #-0
    2644:	93000091 	movwls	r0, #145	; 0x91
    2648:	0f000011 	svceq	0x00000011
    264c:	000091d0 	ldrdeq	r9, [r0], -r0
    2650:	00001172 	andeq	r1, r0, r2, ror r1
    2654:	00000ca7 	andeq	r0, r0, r7, lsr #25
    2658:	02530110 	subseq	r0, r3, #16, 2
    265c:	01108208 	tsteq	r0, r8, lsl #4
    2660:	40030552 	andmi	r0, r3, r2, asr r5
    2664:	100000bc 	strhne	r0, [r0], -ip
    2668:	03055101 	movweq	r5, #20737	; 0x5101
    266c:	0000b8d0 	ldrdeq	fp, [r0], -r0
    2670:	05500110 	ldrbeq	r0, [r0, #-272]	; 0x110
    2674:	00b20803 	adcseq	r0, r2, r3, lsl #16
    2678:	7d021000 	stcvc	0, cr1, [r2, #-0]
    267c:	60030500 	andvs	r0, r3, r0, lsl #10
    2680:	000000bb 	strheq	r0, [r0], -fp
    2684:	0091d413 	addseq	sp, r1, r3, lsl r4
    2688:	00119a00 	andseq	r9, r1, r0, lsl #20
    268c:	91e41300 	mvnls	r1, r0, lsl #6
    2690:	11930000 	orrsne	r0, r3, r0
    2694:	000f0000 	andeq	r0, pc, r0
    2698:	72000092 	andvc	r0, r0, #146	; 0x92
    269c:	f2000011 	vqadd.s8	d0, d0, d1
    26a0:	1000000c 	andne	r0, r0, ip
    26a4:	08025301 	stmdaeq	r2, {r0, r8, r9, ip, lr}
    26a8:	52011083 	andpl	r1, r1, #131	; 0x83
    26ac:	bc400305 	mcrrlt	3, 0, r0, r0, cr5
    26b0:	01100000 	tsteq	r0, r0
    26b4:	d0030551 	andle	r0, r3, r1, asr r5
    26b8:	100000b8 	strhne	r0, [r0], -r8
    26bc:	03055001 	movweq	r5, #20481	; 0x5001
    26c0:	0000b208 	andeq	fp, r0, r8, lsl #4
    26c4:	007d0210 	rsbseq	r0, sp, r0, lsl r2
    26c8:	bb6c0305 	bllt	1b032e4 <__bss_end__+0x1af691c>
    26cc:	13000000 	movwne	r0, #0
    26d0:	00009204 	andeq	r9, r0, r4, lsl #4
    26d4:	0000119a 	muleq	r0, sl, r1
    26d8:	00921413 	addseq	r1, r2, r3, lsl r4
    26dc:	00119300 	andseq	r9, r1, r0, lsl #6
    26e0:	92300f00 	eorsls	r0, r0, #0, 30
    26e4:	11720000 	cmnne	r2, r0
    26e8:	0d3d0000 	ldceq	0, cr0, [sp, #-0]
    26ec:	01100000 	tsteq	r0, r0
    26f0:	84080253 	strhi	r0, [r8], #-595	; 0x253
    26f4:	05520110 	ldrbeq	r0, [r2, #-272]	; 0x110
    26f8:	00bc4003 	adcseq	r4, ip, r3
    26fc:	51011000 	mrspl	r1, (UNDEF: 1)
    2700:	b8d00305 	ldmlt	r0, {r0, r2, r8, r9}^
    2704:	01100000 	tsteq	r0, r0
    2708:	08030550 	stmdaeq	r3, {r4, r6, r8, sl}
    270c:	100000b2 	strhne	r0, [r0], -r2
    2710:	05007d02 	streq	r7, [r0, #-3330]	; 0xd02
    2714:	00bb7803 	adcseq	r7, fp, r3, lsl #16
    2718:	34130000 	ldrcc	r0, [r3], #-0
    271c:	9a000092 	bls	296c <__code_start__-0x5694>
    2720:	00000011 	andeq	r0, r0, r1, lsl r0
    2724:	03980405 	orrseq	r0, r8, #83886080	; 0x5000000
    2728:	7d070000 	stcvc	0, cr0, [r7, #-0]
    272c:	5d000000 	stcpl	0, cr0, [r0, #-0]
    2730:	0800000d 	stmdaeq	r0, {r0, r2, r3}
    2734:	00000076 	andeq	r0, r0, r6, ror r0
    2738:	4d06000f 	stcmi	0, cr0, [r6, #-60]	; 0xffffffc4
    273c:	1600000d 	strne	r0, [r0], -sp
    2740:	000003cc 	andeq	r0, r0, ip, asr #7
    2744:	03988801 	orrseq	r8, r8, #65536	; 0x10000
    2748:	92680000 	rsbls	r0, r8, #0
    274c:	00080000 	andeq	r0, r8, r0
    2750:	9c010000 	stcls	0, cr0, [r1], {-0}
    2754:	00063414 	andeq	r3, r6, r4, lsl r4
    2758:	708d0100 	addvc	r0, sp, r0, lsl #2
    275c:	b4000092 	strlt	r0, [r0], #-146	; 0x92
    2760:	01000000 	mrseq	r0, (UNDEF: 0)
    2764:	000ecf9c 	muleq	lr, ip, pc	; <UNPREDICTABLE>
    2768:	00661700 	rsbeq	r1, r6, r0, lsl #14
    276c:	03988e01 	orrseq	r8, r8, #1, 28
    2770:	91020000 	mrsls	r0, (UNDEF: 2)
    2774:	00db1574 	sbcseq	r1, fp, r4, ror r5
    2778:	0edf0000 	cdpeq	0, 13, cr0, cr15, cr0, {0}
    277c:	03050000 	movweq	r0, #20480	; 0x5000
    2780:	0000bc88 	andeq	fp, r0, r8, lsl #25
    2784:	00928c18 	addseq	r8, r2, r8, lsl ip
    2788:	00007400 	andeq	r7, r0, r0, lsl #8
    278c:	000eb500 	andeq	fp, lr, r0, lsl #10
    2790:	755f1900 	ldrbvc	r1, [pc, #-2304]	; 1e98 <__code_start__-0x6168>
    2794:	a0010400 	andge	r0, r1, r0, lsl #8
    2798:	00000dd2 	ldrdeq	r0, [r0], -r2
    279c:	0100731a 	tsteq	r0, sl, lsl r3
    27a0:	000398a0 	andeq	r9, r3, r0, lsr #17
    27a4:	00751a00 	rsbseq	r1, r5, r0, lsl #20
    27a8:	002ca001 	eoreq	sl, ip, r1
    27ac:	17000000 	strne	r0, [r0, -r0]
    27b0:	a0010078 	andge	r0, r1, r8, ror r0
    27b4:	00000db4 			; <UNDEFINED> instruction: 0x00000db4
    27b8:	651b5301 	ldrvs	r5, [fp, #-769]	; 0x301
    27bc:	01007078 	tsteq	r0, r8, ror r0
    27c0:	00002ca0 	andeq	r2, r0, r0, lsr #25
    27c4:	40808000 	addmi	r8, r0, r0
    27c8:	00067a1c 	andeq	r7, r6, ip, lsl sl
    27cc:	2ca00100 	stfcss	f0, [r0]
    27d0:	14000000 	strne	r0, [r0], #-0
    27d4:	00068b1d 	andeq	r8, r6, sp, lsl fp
    27d8:	2ca00100 	stfcss	f0, [r0]
    27dc:	ff000000 			; <UNDEFINED> instruction: 0xff000000
    27e0:	929c130f 	addsls	r1, ip, #1006632960	; 0x3c000000
    27e4:	11930000 	orrsne	r0, r3, r0
    27e8:	d00f0000 	andle	r0, pc, r0
    27ec:	72000092 	andvc	r0, r0, #146	; 0x92
    27f0:	60000011 	andvs	r0, r0, r1, lsl r0
    27f4:	1000000e 	andne	r0, r0, lr
    27f8:	08025301 	stmdaeq	r2, {r0, r8, r9, ip, lr}
    27fc:	520110a0 	andpl	r1, r1, #160	; 0xa0
    2800:	bc880305 	stclt	3, cr0, [r8], {5}
    2804:	01100000 	tsteq	r0, r0
    2808:	d0030551 	andle	r0, r3, r1, asr r5
    280c:	100000b8 	strhne	r0, [r0], -r8
    2810:	03055001 	movweq	r5, #20481	; 0x5001
    2814:	0000b8ec 	andeq	fp, r0, ip, ror #17
    2818:	107d0210 	rsbsne	r0, sp, r0, lsl r2
    281c:	02103c01 	andseq	r3, r0, #256	; 0x100
    2820:	44010c7d 	strmi	r0, [r1], #-3197	; 0xc7d
    2824:	087d0210 	ldmdaeq	sp!, {r4, r9}^
    2828:	bbc00305 	bllt	ff003444 <__bss_end__+0xfeff6a7c>
    282c:	02100000 	andseq	r0, r0, #0
    2830:	7402047d 	strvc	r0, [r2], #-1149	; 0x47d
    2834:	7d021000 	stcvc	0, cr1, [r2, #-0]
    2838:	00740200 	rsbseq	r0, r4, r0, lsl #4
    283c:	92d41300 	sbcsls	r1, r4, #0, 6
    2840:	119a0000 	orrsne	r0, sl, r0
    2844:	e0130000 	ands	r0, r3, r0
    2848:	93000092 	movwls	r0, #146	; 0x92
    284c:	0f000011 	svceq	0x00000011
    2850:	000092fc 	strdeq	r9, [r0], -ip
    2854:	00001172 	andeq	r1, r0, r2, ror r1
    2858:	00000eab 	andeq	r0, r0, fp, lsr #29
    285c:	02530110 	subseq	r0, r3, #16, 2
    2860:	0110a008 	tsteq	r0, r8
    2864:	88030552 	stmdahi	r3, {r1, r4, r6, r8, sl}
    2868:	100000bc 	strhne	r0, [r0], -ip
    286c:	03055101 	movweq	r5, #20737	; 0x5101
    2870:	0000b8d0 	ldrdeq	fp, [r0], -r0
    2874:	05500110 	ldrbeq	r0, [r0, #-272]	; 0x110
    2878:	00b20803 	adcseq	r0, r2, r3, lsl #16
    287c:	7d021000 	stcvc	0, cr1, [r2, #-0]
    2880:	e0030500 	and	r0, r3, r0, lsl #10
    2884:	000000b8 	strheq	r0, [r0], -r8
    2888:	00930013 	addseq	r0, r3, r3, lsl r0
    288c:	00119a00 	andseq	r9, r1, r0, lsl #20
    2890:	7c130000 	ldcvc	0, cr0, [r3], {-0}
    2894:	62000092 	andvs	r0, r0, #146	; 0x92
    2898:	1100000d 	tstne	r0, sp
    289c:	0000928c 	andeq	r9, r0, ip, lsl #5
    28a0:	00000abd 			; <UNDEFINED> instruction: 0x00000abd
    28a4:	02500110 	subseq	r0, r0, #16, 2
    28a8:	00006c91 	muleq	r0, r1, ip
    28ac:	00007d07 	andeq	r7, r0, r7, lsl #26
    28b0:	000edf00 	andeq	sp, lr, r0, lsl #30
    28b4:	00760800 	rsbseq	r0, r6, r0, lsl #16
    28b8:	00110000 	andseq	r0, r1, r0
    28bc:	000ecf06 	andeq	ip, lr, r6, lsl #30
    28c0:	05400c00 	strbeq	r0, [r0, #-3072]	; 0xc00
    28c4:	a3010000 	movwge	r0, #4096	; 0x1000
    28c8:	00009324 	andeq	r9, r0, r4, lsr #6
    28cc:	000001d0 	ldrdeq	r0, [r0], -r0	; <UNPREDICTABLE>
    28d0:	11279c01 	teqne	r7, r1, lsl #24
    28d4:	660d0000 	strvs	r0, [sp], -r0
    28d8:	47a30100 	strmi	r0, [r3, r0, lsl #2]!
    28dc:	b700000d 	strlt	r0, [r0, -sp]
    28e0:	0f00000d 	svceq	0x0000000d
    28e4:	00009334 	andeq	r9, r0, r4, lsr r3
    28e8:	00001172 	andeq	r1, r0, r2, ror r1
    28ec:	00000f1d 	andeq	r0, r0, sp, lsl pc
    28f0:	05500110 	ldrbeq	r0, [r0, #-272]	; 0x110
    28f4:	00bbd003 	adcseq	sp, fp, r3
    28f8:	400f0000 	andmi	r0, pc, r0
    28fc:	72000093 	andvc	r0, r0, #147	; 0x93
    2900:	3a000011 	bcc	294c <__code_start__-0x56b4>
    2904:	1000000f 	andne	r0, r0, pc
    2908:	74025101 	strvc	r5, [r2], #-257	; 0x101
    290c:	50011000 	andpl	r1, r1, r0
    2910:	bbf00305 	bllt	ffc0352c <__bss_end__+0xffbf6b64>
    2914:	0f000000 	svceq	0x00000000
    2918:	00009354 	andeq	r9, r0, r4, asr r3
    291c:	00001172 	andeq	r1, r0, r2, ror r1
    2920:	00000f5a 	andeq	r0, r0, sl, asr pc
    2924:	05520110 	ldrbeq	r0, [r2, #-272]	; 0x110
    2928:	00bbc003 	adcseq	ip, fp, r3
    292c:	50011000 	andpl	r1, r1, r0
    2930:	ba940305 	blt	fe50354c <__bss_end__+0xfe4f6b84>
    2934:	0f000000 	svceq	0x00000000
    2938:	0000936c 	andeq	r9, r0, ip, ror #6
    293c:	00001172 	andeq	r1, r0, r2, ror r1
    2940:	00000f71 	andeq	r0, r0, r1, ror pc
    2944:	05500110 	ldrbeq	r0, [r0, #-272]	; 0x110
    2948:	00baa003 	adcseq	sl, sl, r3
    294c:	800f0000 	andhi	r0, pc, r0
    2950:	72000093 	andvc	r0, r0, #147	; 0x93
    2954:	88000011 	stmdahi	r0, {r0, r4}
    2958:	1000000f 	andne	r0, r0, pc
    295c:	03055001 	movweq	r5, #20481	; 0x5001
    2960:	0000bbf8 	strdeq	fp, [r0], -r8
    2964:	93880f00 	orrls	r0, r8, #0, 30
    2968:	11720000 	cmnne	r2, r0
    296c:	0f9f0000 	svceq	0x009f0000
    2970:	01100000 	tsteq	r0, r0
    2974:	0c030550 	cfstr32eq	mvfx0, [r3], {80}	; 0x50
    2978:	000000bc 	strheq	r0, [r0], -ip
    297c:	0093a00f 	addseq	sl, r3, pc
    2980:	00117200 	andseq	r7, r1, r0, lsl #4
    2984:	000fbf00 	andeq	fp, pc, r0, lsl #30
    2988:	52011000 	andpl	r1, r1, #0
    298c:	bbb40305 	bllt	fed035a8 <__bss_end__+0xfecf6be0>
    2990:	01100000 	tsteq	r0, r0
    2994:	94030550 	strls	r0, [r3], #-1360	; 0x550
    2998:	000000ba 	strheq	r0, [r0], -sl
    299c:	0093b40f 	addseq	fp, r3, pc, lsl #8
    29a0:	00117200 	andseq	r7, r1, r0, lsl #4
    29a4:	000fdf00 	andeq	sp, pc, r0, lsl #30
    29a8:	52011000 	andpl	r1, r1, #0
    29ac:	bbb00305 	bllt	fec035c8 <__bss_end__+0xfebf6c00>
    29b0:	01100000 	tsteq	r0, r0
    29b4:	94030550 	strls	r0, [r3], #-1360	; 0x550
    29b8:	000000ba 	strheq	r0, [r0], -sl
    29bc:	0093c80f 	addseq	ip, r3, pc, lsl #16
    29c0:	00117200 	andseq	r7, r1, r0, lsl #4
    29c4:	000fff00 	andeq	pc, pc, r0, lsl #30
    29c8:	52011000 	andpl	r1, r1, #0
    29cc:	bbac0305 	bllt	feb035e8 <__bss_end__+0xfeaf6c20>
    29d0:	01100000 	tsteq	r0, r0
    29d4:	94030550 	strls	r0, [r3], #-1360	; 0x550
    29d8:	000000ba 	strheq	r0, [r0], -sl
    29dc:	0093e00f 	addseq	lr, r3, pc
    29e0:	00117200 	andseq	r7, r1, r0, lsl #4
    29e4:	00101f00 	andseq	r1, r0, r0, lsl #30
    29e8:	52011000 	andpl	r1, r1, #0
    29ec:	bba80305 	bllt	fea03608 <__bss_end__+0xfe9f6c40>
    29f0:	01100000 	tsteq	r0, r0
    29f4:	94030550 	strls	r0, [r3], #-1360	; 0x550
    29f8:	000000ba 	strheq	r0, [r0], -sl
    29fc:	0093f80f 	addseq	pc, r3, pc, lsl #16
    2a00:	00117200 	andseq	r7, r1, r0, lsl #4
    2a04:	00103f00 	andseq	r3, r0, r0, lsl #30
    2a08:	52011000 	andpl	r1, r1, #0
    2a0c:	bba40305 	bllt	fe903628 <__bss_end__+0xfe8f6c60>
    2a10:	01100000 	tsteq	r0, r0
    2a14:	94030550 	strls	r0, [r3], #-1360	; 0x550
    2a18:	000000ba 	strheq	r0, [r0], -sl
    2a1c:	0094100f 	addseq	r1, r4, pc
    2a20:	00117200 	andseq	r7, r1, r0, lsl #4
    2a24:	00105f00 	andseq	r5, r0, r0, lsl #30
    2a28:	52011000 	andpl	r1, r1, #0
    2a2c:	bba00305 	bllt	fe803648 <__bss_end__+0xfe7f6c80>
    2a30:	01100000 	tsteq	r0, r0
    2a34:	94030550 	strls	r0, [r3], #-1360	; 0x550
    2a38:	000000ba 	strheq	r0, [r0], -sl
    2a3c:	0094280f 	addseq	r2, r4, pc, lsl #16
    2a40:	00117200 	andseq	r7, r1, r0, lsl #4
    2a44:	00107f00 	andseq	r7, r0, r0, lsl #30
    2a48:	52011000 	andpl	r1, r1, #0
    2a4c:	bb980305 	bllt	fe603668 <__bss_end__+0xfe5f6ca0>
    2a50:	01100000 	tsteq	r0, r0
    2a54:	94030550 	strls	r0, [r3], #-1360	; 0x550
    2a58:	000000ba 	strheq	r0, [r0], -sl
    2a5c:	0094440f 	addseq	r4, r4, pc, lsl #8
    2a60:	00117200 	andseq	r7, r1, r0, lsl #4
    2a64:	00109600 	andseq	r9, r0, r0, lsl #12
    2a68:	50011000 	andpl	r1, r1, r0
    2a6c:	baa00305 	blt	fe803688 <__bss_end__+0xfe7f6cc0>
    2a70:	0f000000 	svceq	0x00000000
    2a74:	0000945c 	andeq	r9, r0, ip, asr r4
    2a78:	00001172 	andeq	r1, r0, r2, ror r1
    2a7c:	000010b6 	strheq	r1, [r0], -r6
    2a80:	05520110 	ldrbeq	r0, [r2, #-272]	; 0x110
    2a84:	00bb9403 	adcseq	r9, fp, r3, lsl #8
    2a88:	50011000 	andpl	r1, r1, r0
    2a8c:	ba940305 	blt	fe5036a8 <__bss_end__+0xfe4f6ce0>
    2a90:	0f000000 	svceq	0x00000000
    2a94:	00009474 	andeq	r9, r0, r4, ror r4
    2a98:	00001172 	andeq	r1, r0, r2, ror r1
    2a9c:	000010d6 	ldrdeq	r1, [r0], -r6
    2aa0:	05520110 	ldrbeq	r0, [r2, #-272]	; 0x110
    2aa4:	00bb9003 	adcseq	r9, fp, r3
    2aa8:	50011000 	andpl	r1, r1, r0
    2aac:	ba940305 	blt	fe5036c8 <__bss_end__+0xfe4f6d00>
    2ab0:	0f000000 	svceq	0x00000000
    2ab4:	0000948c 	andeq	r9, r0, ip, lsl #9
    2ab8:	00001172 	andeq	r1, r0, r2, ror r1
    2abc:	000010f6 	strdeq	r1, [r0], -r6
    2ac0:	05520110 	ldrbeq	r0, [r2, #-272]	; 0x110
    2ac4:	00bb8c03 	adcseq	r8, fp, r3, lsl #24
    2ac8:	50011000 	andpl	r1, r1, r0
    2acc:	ba940305 	blt	fe5036e8 <__bss_end__+0xfe4f6d20>
    2ad0:	0f000000 	svceq	0x00000000
    2ad4:	000094a0 	andeq	r9, r0, r0, lsr #9
    2ad8:	00001172 	andeq	r1, r0, r2, ror r1
    2adc:	00001116 	andeq	r1, r0, r6, lsl r1
    2ae0:	05520110 	ldrbeq	r0, [r2, #-272]	; 0x110
    2ae4:	00bb8803 	adcseq	r8, fp, r3, lsl #16
    2ae8:	50011000 	andpl	r1, r1, r0
    2aec:	ba940305 	blt	fe503708 <__bss_end__+0xfe4f6d40>
    2af0:	11000000 	mrsne	r0, (UNDEF: 0)
    2af4:	000094a8 	andeq	r9, r0, r8, lsr #9
    2af8:	00000abd 			; <UNDEFINED> instruction: 0x00000abd
    2afc:	02500110 	subseq	r0, r0, #16, 2
    2b00:	00000074 	andeq	r0, r0, r4, ror r0
    2b04:	0006930c 	andeq	r9, r6, ip, lsl #6
    2b08:	f4bd0100 			; <UNDEFINED> instruction: 0xf4bd0100
    2b0c:	14000094 	strne	r0, [r0], #-148	; 0x94
    2b10:	01000000 	mrseq	r0, (UNDEF: 0)
    2b14:	0011589c 	mulseq	r1, ip, r8
    2b18:	94fc1300 	ldrbtls	r1, [ip], #768	; 0x300
    2b1c:	046e0000 	strbteq	r0, [lr], #-0
    2b20:	00130000 	andseq	r0, r3, r0
    2b24:	12000095 	andne	r0, r0, #149	; 0x95
    2b28:	1300000a 	movwne	r0, #10
    2b2c:	00009504 	andeq	r9, r0, r4, lsl #10
    2b30:	00000d77 	andeq	r0, r0, r7, ror sp
    2b34:	06461e00 	strbeq	r1, [r6], -r0, lsl #28
    2b38:	05050000 	streq	r0, [r5, #-0]
    2b3c:	0000005d 	andeq	r0, r0, sp, asr r0
    2b40:	00001172 	andeq	r1, r0, r2, ror r1
    2b44:	00041e1f 	andeq	r1, r4, pc, lsl lr
    2b48:	00251f00 	eoreq	r1, r5, r0, lsl #30
    2b4c:	1e000000 	cdpne	0, 0, cr0, cr0, cr0, {0}
    2b50:	00000a92 	muleq	r0, r2, sl
    2b54:	00252906 	eoreq	r2, r5, r6, lsl #18
    2b58:	11880000 	orrne	r0, r8, r0
    2b5c:	841f0000 	ldrhi	r0, [pc], #-0	; 2b64 <__code_start__-0x549c>
    2b60:	20000000 	andcs	r0, r0, r0
    2b64:	054a2100 	strbeq	r2, [sl, #-256]	; 0x100
    2b68:	6e070000 	cdpvs	0, 0, cr0, cr7, cr0, {0}
    2b6c:	0000005d 	andeq	r0, r0, sp, asr r0
    2b70:	00023c22 	andeq	r3, r2, r2, lsr #24
    2b74:	221e0600 	andscs	r0, lr, #0, 12
    2b78:	00000068 	andeq	r0, r0, r8, rrx
    2b7c:	33006506 	movwcc	r6, #1286	; 0x506
    2b80:	04000016 	streq	r0, [r0], #-22
    2b84:	0005a000 	andeq	sl, r5, r0
    2b88:	62010400 	andvs	r0, r1, #0, 8
    2b8c:	01000001 	tsteq	r0, r1
    2b90:	00000782 	andeq	r0, r0, r2, lsl #15
    2b94:	000000f4 	strdeq	r0, [r0], -r4
    2b98:	00009508 	andeq	r9, r0, r8, lsl #10
    2b9c:	00000a40 	andeq	r0, r0, r0, asr #20
    2ba0:	000006ba 			; <UNDEFINED> instruction: 0x000006ba
    2ba4:	69050402 	stmdbvs	r5, {r1, sl}
    2ba8:	0300746e 	movweq	r7, #1134	; 0x46e
    2bac:	01e70704 	mvneq	r0, r4, lsl #14
    2bb0:	01030000 	mrseq	r0, (UNDEF: 3)
    2bb4:	00005c06 	andeq	r5, r0, r6, lsl #24
    2bb8:	05020300 	streq	r0, [r2, #-768]	; 0x300
    2bbc:	00000229 	andeq	r0, r0, r9, lsr #4
    2bc0:	02050403 	andeq	r0, r5, #50331648	; 0x3000000
    2bc4:	03000002 	movweq	r0, #2
    2bc8:	01fd0508 	mvnseq	r0, r8, lsl #10
    2bcc:	01030000 	mrseq	r0, (UNDEF: 3)
    2bd0:	00005a08 	andeq	r5, r0, r8, lsl #20
    2bd4:	07020300 	streq	r0, [r2, -r0, lsl #6]
    2bd8:	0000009f 	muleq	r0, pc, r0	; <UNPREDICTABLE>
    2bdc:	00023304 	andeq	r3, r2, r4, lsl #6
    2be0:	68340500 	ldmdavs	r4!, {r8, sl}
    2be4:	03000000 	movweq	r0, #0
    2be8:	01e20704 	mvneq	r0, r4, lsl #14
    2bec:	08030000 	stmdaeq	r3, {}	; <UNPREDICTABLE>
    2bf0:	0001dd07 	andeq	sp, r1, r7, lsl #26
    2bf4:	07040300 	streq	r0, [r4, -r0, lsl #6]
    2bf8:	000001f4 	strdeq	r0, [r0], -r4
    2bfc:	01030405 	tsteq	r3, r5, lsl #8
    2c00:	00006308 	andeq	r6, r0, r8, lsl #6
    2c04:	8c040600 	stchi	6, cr0, [r4], {-0}
    2c08:	07000000 	streq	r0, [r0, -r0]
    2c0c:	0000007f 	andeq	r0, r0, pc, ror r0
    2c10:	0003fc08 	andeq	pc, r3, r8, lsl #24
    2c14:	46040400 	strmi	r0, [r4], -r0, lsl #8
    2c18:	00000167 	andeq	r0, r0, r7, ror #2
    2c1c:	67617409 	strbvs	r7, [r1, -r9, lsl #8]!
    2c20:	2c480400 	cfstrdcs	mvd0, [r8], {-0}
    2c24:	04000000 	streq	r0, [r0], #-0
    2c28:	09001e02 	stmdbeq	r0, {r1, r9, sl, fp, ip}
    2c2c:	49040042 	stmdbmi	r4, {r1, r6}
    2c30:	0000002c 	andeq	r0, r0, ip, lsr #32
    2c34:	001d0104 	andseq	r0, sp, r4, lsl #2
    2c38:	04004309 	streq	r4, [r0], #-777	; 0x309
    2c3c:	00002c4a 	andeq	r2, r0, sl, asr #24
    2c40:	1c010400 	cfstrsne	mvf0, [r1], {-0}
    2c44:	4e580900 	cdpmi	9, 5, cr0, cr8, cr0, {0}
    2c48:	2c4b0400 	cfstrdcs	mvd0, [fp], {-0}
    2c4c:	04000000 	streq	r0, [r0], #-0
    2c50:	0a001b01 	beq	985c <data_abort_vector+0xdc>
    2c54:	00000596 	muleq	r0, r6, r5
    2c58:	002c4e04 	eoreq	r4, ip, r4, lsl #28
    2c5c:	04040000 	streq	r0, [r4], #-0
    2c60:	49090017 	stmdbmi	r9, {r0, r1, r2, r4}
    2c64:	0400504d 	streq	r5, [r0], #-77	; 0x4d
    2c68:	00002c4f 	andeq	r2, r0, pc, asr #24
    2c6c:	16010400 	strne	r0, [r1], -r0, lsl #8
    2c70:	50410900 	subpl	r0, r1, r0, lsl #18
    2c74:	2c520400 	cfldrdcs	mvd0, [r2], {-0}
    2c78:	04000000 	streq	r0, [r0], #-0
    2c7c:	09001402 	stmdbeq	r0, {r1, sl, ip}
    2c80:	00584554 	subseq	r4, r8, r4, asr r5
    2c84:	002c5304 	eoreq	r5, ip, r4, lsl #6
    2c88:	03040000 	movweq	r0, #16384	; 0x4000
    2c8c:	41090011 	tstmi	r9, r1, lsl r0
    2c90:	04005850 	streq	r5, [r0], #-2128	; 0x850
    2c94:	00002c54 	andeq	r2, r0, r4, asr ip
    2c98:	10010400 	andne	r0, r1, r0, lsl #8
    2c9c:	00530900 	subseq	r0, r3, r0, lsl #18
    2ca0:	002c5504 	eoreq	r5, ip, r4, lsl #10
    2ca4:	01040000 	mrseq	r0, (UNDEF: 4)
    2ca8:	6e09000f 	cdpvs	0, 0, cr0, cr9, cr15, {0}
    2cac:	56040047 	strpl	r0, [r4], -r7, asr #32
    2cb0:	0000002c 	andeq	r0, r0, ip, lsr #32
    2cb4:	000e0104 	andeq	r0, lr, r4, lsl #2
    2cb8:	0003a40a 	andeq	sl, r3, sl, lsl #8
    2cbc:	2c570400 	cfldrdcs	mvd0, [r7], {-0}
    2cc0:	04000000 	streq	r0, [r0], #-0
    2cc4:	0a000d01 	beq	60d0 <__code_start__-0x1f30>
    2cc8:	000005a3 	andeq	r0, r0, r3, lsr #11
    2ccc:	002c5804 	eoreq	r5, ip, r4, lsl #16
    2cd0:	01040000 	mrseq	r0, (UNDEF: 4)
    2cd4:	100a000c 	andne	r0, sl, ip
    2cd8:	04000003 	streq	r0, [r0], #-3
    2cdc:	00002c59 	andeq	r2, r0, r9, asr ip
    2ce0:	000c0400 	andeq	r0, ip, r0, lsl #8
    2ce4:	6e040000 	cdpvs	0, 0, cr0, cr4, cr0, {0}
    2ce8:	04000003 	streq	r0, [r0], #-3
    2cec:	0000915a 	andeq	r9, r0, sl, asr r1
    2cf0:	04010b00 	streq	r0, [r1], #-2816	; 0xb00
    2cf4:	00019368 	andeq	r9, r1, r8, ror #6
    2cf8:	088e0c00 	stmeq	lr, {sl, fp}
    2cfc:	0c000000 	stceq	0, cr0, [r0], {-0}
    2d00:	00000807 	andeq	r0, r0, r7, lsl #16
    2d04:	082d0c01 	stmdaeq	sp!, {r0, sl, fp}
    2d08:	0c020000 	stceq	0, cr0, [r2], {-0}
    2d0c:	0000078d 	andeq	r0, r0, sp, lsl #15
    2d10:	0c0d0003 	stceq	0, cr0, [sp], {3}
    2d14:	01c02606 	biceq	r2, r0, r6, lsl #12
    2d18:	ac0e0000 	stcge	0, cr0, [lr], {-0}
    2d1c:	06000008 	streq	r0, [r0], -r8
    2d20:	00005d27 	andeq	r5, r0, r7, lsr #26
    2d24:	ef0e0000 	svc	0x000e0000
    2d28:	06000008 	streq	r0, [r0], -r8
    2d2c:	00005d28 	andeq	r5, r0, r8, lsr #26
    2d30:	540e0400 	strpl	r0, [lr], #-1024	; 0x400
    2d34:	06000008 	streq	r0, [r0], -r8
    2d38:	00005d29 	andeq	r5, r0, r9, lsr #26
    2d3c:	04000800 	streq	r0, [r0], #-2048	; 0x800
    2d40:	00000965 	andeq	r0, r0, r5, ror #18
    2d44:	01932a06 	orrseq	r2, r3, r6, lsl #20
    2d48:	040b0000 	streq	r0, [fp], #-0
    2d4c:	01dd1301 	bicseq	r1, sp, r1, lsl #6
    2d50:	000c0000 	andeq	r0, ip, r0
    2d54:	80000006 	andhi	r0, r0, r6
    2d58:	0000c080 	andeq	ip, r0, r0, lsl #1
    2d5c:	1601010b 	strne	r0, [r1], -fp, lsl #2
    2d60:	000001f2 	strdeq	r0, [r0], -r2
    2d64:	0007c70c 	andeq	ip, r7, ip, lsl #14
    2d68:	a80c0100 	stmdage	ip, {r8}
    2d6c:	02000007 	andeq	r0, r0, #7
    2d70:	01010b00 	tsteq	r1, r0, lsl #22
    2d74:	00026d60 	andeq	r6, r2, r0, ror #26
    2d78:	07b10c00 	ldreq	r0, [r1, r0, lsl #24]!
    2d7c:	0c010000 	stceq	0, cr0, [r1], {-0}
    2d80:	00000972 	andeq	r0, r0, r2, ror r9
    2d84:	08b70c00 	ldmeq	r7!, {sl, fp}
    2d88:	0c030000 	stceq	0, cr0, [r3], {-0}
    2d8c:	00000735 	andeq	r0, r0, r5, lsr r7
    2d90:	08c60c04 	stmiaeq	r6, {r2, sl, fp}^
    2d94:	0c0c0000 	stceq	0, cr0, [ip], {-0}
    2d98:	0000083a 	andeq	r0, r0, sl, lsr r8
    2d9c:	07f30c0e 	ldrbeq	r0, [r3, lr, lsl #24]!
    2da0:	0c050000 	stceq	0, cr0, [r5], {-0}
    2da4:	0000093b 	andeq	r0, r0, fp, lsr r9
    2da8:	07990c07 	ldreq	r0, [r9, r7, lsl #24]
    2dac:	0c090000 	stceq	0, cr0, [r9], {-0}
    2db0:	00000729 	andeq	r0, r0, r9, lsr #14
    2db4:	09800c0b 	stmibeq	r0, {r0, r1, r3, sl, fp}
    2db8:	0c0d0000 	stceq	0, cr0, [sp], {-0}
    2dbc:	0000089c 	muleq	r0, ip, r8
    2dc0:	09550c0f 	ldmdbeq	r5, {r0, r1, r2, r3, sl, fp}^
    2dc4:	0c080000 	stceq	0, cr0, [r8], {-0}
    2dc8:	0000087c 	andeq	r0, r0, ip, ror r8
    2dcc:	07790c0a 	ldrbeq	r0, [r9, -sl, lsl #24]!
    2dd0:	0c140000 	ldceq	0, cr0, [r4], {-0}
    2dd4:	0000090f 	andeq	r0, r0, pc, lsl #18
    2dd8:	076a0c1a 			; <UNDEFINED> instruction: 0x076a0c1a
    2ddc:	0c160000 	ldceq	0, cr0, [r6], {-0}
    2de0:	00000748 	andeq	r0, r0, r8, asr #14
    2de4:	07bb0c18 			; <UNDEFINED> instruction: 0x07bb0c18
    2de8:	00020000 	andeq	r0, r2, r0
    2dec:	00094c0f 	andeq	r4, r9, pc, lsl #24
    2df0:	5d5f0300 	ldclpl	3, cr0, [pc, #-0]	; 2df8 <__code_start__-0x5208>
    2df4:	03000000 	movweq	r0, #0
    2df8:	00000289 	andeq	r0, r0, r9, lsl #5
    2dfc:	74657210 	strbtvc	r7, [r5], #-528	; 0x210
    2e00:	5d5f0300 	ldclpl	3, cr0, [pc, #-0]	; 2e08 <__code_start__-0x51f8>
    2e04:	00000000 	andeq	r0, r0, r0
    2e08:	0008740f 	andeq	r7, r8, pc, lsl #8
    2e0c:	5d630300 	stclpl	3, cr0, [r3, #-0]
    2e10:	03000000 	movweq	r0, #0
    2e14:	000002a5 	andeq	r0, r0, r5, lsr #5
    2e18:	74657210 	strbtvc	r7, [r5], #-528	; 0x210
    2e1c:	5d630300 	stclpl	3, cr0, [r3, #-0]
    2e20:	00000000 	andeq	r0, r0, r0
    2e24:	00092c11 	andeq	r2, r9, r1, lsl ip
    2e28:	c01e0100 	andsgt	r0, lr, r0, lsl #2
    2e2c:	08000001 	stmdaeq	r0, {r0}
    2e30:	1c000095 	stcne	0, cr0, [r0], {149}	; 0x95
    2e34:	01000000 	mrseq	r0, (UNDEF: 0)
    2e38:	08e0129c 	stmiaeq	r0!, {r2, r3, r4, r7, r9, ip}^
    2e3c:	21010000 	mrscs	r0, (UNDEF: 1)
    2e40:	00009524 	andeq	r9, r0, r4, lsr #10
    2e44:	00000018 	andeq	r0, r0, r8, lsl r0
    2e48:	02f79c01 	rscseq	r9, r7, #256	; 0x100
    2e4c:	ef130000 	svc	0x00130000
    2e50:	01000008 	tsteq	r0, r8
    2e54:	00005d21 	andeq	r5, r0, r1, lsr #26
    2e58:	13500100 	cmpne	r0, #0, 2
    2e5c:	000008ac 	andeq	r0, r0, ip, lsr #17
    2e60:	005d2101 	subseq	r2, sp, r1, lsl #2
    2e64:	51010000 	mrspl	r0, (UNDEF: 1)
    2e68:	00085a13 	andeq	r5, r8, r3, lsl sl
    2e6c:	5d210100 	stfpls	f0, [r1, #-0]
    2e70:	01000000 	mrseq	r0, (UNDEF: 0)
    2e74:	32120052 	andscc	r0, r2, #82	; 0x52
    2e78:	01000000 	mrseq	r0, (UNDEF: 0)
    2e7c:	00953c28 	addseq	r3, r5, r8, lsr #24
    2e80:	0000f000 	andeq	pc, r0, r0
    2e84:	859c0100 	ldrhi	r0, [ip, #256]	; 0x100
    2e88:	14000004 	strne	r0, [r0], #-4
    2e8c:	01006370 	tsteq	r0, r0, ror r3
    2e90:	00005d28 	andeq	r5, r0, r8, lsr #26
    2e94:	000dd500 	andeq	sp, sp, r0, lsl #10
    2e98:	03191500 	tsteq	r9, #0, 10
    2e9c:	28010000 	stmdacs	r1, {}	; <UNPREDICTABLE>
    2ea0:	0000005d 	andeq	r0, r0, sp, asr r0
    2ea4:	00000e01 	andeq	r0, r0, r1, lsl #28
    2ea8:	00085a15 	andeq	r5, r8, r5, lsl sl
    2eac:	5d280100 	stfpls	f0, [r8, #-0]
    2eb0:	2d000000 	stccs	0, cr0, [r0, #-0]
    2eb4:	1600000e 	strne	r0, [r0], -lr
    2eb8:	2901006c 	stmdbcs	r1, {r2, r3, r5, r6}
    2ebc:	000001c0 	andeq	r0, r0, r0, asr #3
    2ec0:	17649102 	strbne	r9, [r4, -r2, lsl #2]!
    2ec4:	000000db 	ldrdeq	r0, [r0], -fp
    2ec8:	00000495 	muleq	r0, r5, r4
    2ecc:	c1780305 	cmngt	r8, r5, lsl #6
    2ed0:	58180000 	ldmdapl	r8, {}	; <UNPREDICTABLE>
    2ed4:	a5000095 	strge	r0, [r0, #-149]	; 0x95
    2ed8:	67000002 	strvs	r0, [r0, -r2]
    2edc:	19000003 	stmdbne	r0, {r0, r1}
    2ee0:	91025001 	tstls	r2, r1
    2ee4:	681a005c 	ldmdavs	sl, {r2, r3, r4, r6}
    2ee8:	5f000095 	svcpl	0x00000095
    2eec:	18000015 	stmdane	r0, {r0, r2, r4}
    2ef0:	00009584 	andeq	r9, r0, r4, lsl #11
    2ef4:	00001566 	andeq	r1, r0, r6, ror #10
    2ef8:	000003a9 	andeq	r0, r0, r9, lsr #7
    2efc:	02530119 	subseq	r0, r3, #1073741830	; 0x40000006
    2f00:	01192a08 	tsteq	r9, r8, lsl #20
    2f04:	78030552 	stmdavc	r3, {r1, r4, r6, r8, sl}
    2f08:	190000c1 	stmdbne	r0, {r0, r6, r7}
    2f0c:	03055101 	movweq	r5, #20737	; 0x5101
    2f10:	0000bc9c 	muleq	r0, ip, ip
    2f14:	05500119 	ldrbeq	r0, [r0, #-281]	; 0x119
    2f18:	00b20803 	adcseq	r0, r2, r3, lsl #16
    2f1c:	7d021900 	stcvc	9, cr1, [r2, #-0]
    2f20:	a8030500 	stmdage	r3, {r8, sl}
    2f24:	000000bc 	strheq	r0, [r0], -ip
    2f28:	0095881a 	addseq	r8, r5, sl, lsl r8
    2f2c:	00157c00 	andseq	r7, r5, r0, lsl #24
    2f30:	95981a00 	ldrls	r1, [r8, #2560]	; 0xa00
    2f34:	155f0000 	ldrbne	r0, [pc, #-0]	; 2f3c <__code_start__-0x50c4>
    2f38:	b4180000 	ldrlt	r0, [r8], #-0
    2f3c:	66000095 			; <UNDEFINED> instruction: 0x66000095
    2f40:	f4000015 	vst4.8	{d0-d3}, [r0 :64], r5
    2f44:	19000003 	stmdbne	r0, {r0, r1}
    2f48:	08025301 	stmdaeq	r2, {r0, r8, r9, ip, lr}
    2f4c:	5201192b 	andpl	r1, r1, #704512	; 0xac000
    2f50:	c1780305 	cmngt	r8, r5, lsl #6
    2f54:	01190000 	tsteq	r9, r0
    2f58:	9c030551 	cfstr32ls	mvfx0, [r3], {81}	; 0x51
    2f5c:	190000bc 	stmdbne	r0, {r2, r3, r4, r5, r7}
    2f60:	03055001 	movweq	r5, #20481	; 0x5001
    2f64:	0000b208 	andeq	fp, r0, r8, lsl #4
    2f68:	007d0219 	rsbseq	r0, sp, r9, lsl r2
    2f6c:	bcc00305 	stcllt	3, cr0, [r0], {5}
    2f70:	1a000000 	bne	2f78 <__code_start__-0x5088>
    2f74:	000095b8 			; <UNDEFINED> instruction: 0x000095b8
    2f78:	0000157c 	andeq	r1, r0, ip, ror r5
    2f7c:	0095c81a 	addseq	ip, r5, sl, lsl r8
    2f80:	00155f00 	andseq	r5, r5, r0, lsl #30
    2f84:	95e41800 	strbls	r1, [r4, #2048]!	; 0x800
    2f88:	15660000 	strbne	r0, [r6, #-0]!
    2f8c:	043f0000 	ldrteq	r0, [pc], #-0	; 2f94 <__code_start__-0x506c>
    2f90:	01190000 	tsteq	r9, r0
    2f94:	2c080253 	sfmcs	f0, 4, [r8], {83}	; 0x53
    2f98:	05520119 	ldrbeq	r0, [r2, #-281]	; 0x119
    2f9c:	00c17803 	sbceq	r7, r1, r3, lsl #16
    2fa0:	51011900 	tstpl	r1, r0, lsl #18
    2fa4:	bc9c0305 	ldclt	3, cr0, [ip], {5}
    2fa8:	01190000 	tsteq	r9, r0
    2fac:	08030550 	stmdaeq	r3, {r4, r6, r8, sl}
    2fb0:	190000b2 	stmdbne	r0, {r1, r4, r5, r7}
    2fb4:	05007d02 	streq	r7, [r0, #-3330]	; 0xd02
    2fb8:	00bcd403 	adcseq	sp, ip, r3, lsl #8
    2fbc:	e81a0000 	ldmda	sl, {}	; <UNPREDICTABLE>
    2fc0:	7c000095 	stcvc	0, cr0, [r0], {149}	; 0x95
    2fc4:	18000015 	stmdane	r0, {r0, r2, r4}
    2fc8:	000095f0 	strdeq	r9, [r0], -r0
    2fcc:	00001566 	andeq	r1, r0, r6, ror #10
    2fd0:	0000045f 	andeq	r0, r0, pc, asr r4
    2fd4:	05500119 	ldrbeq	r0, [r0, #-281]	; 0x119
    2fd8:	00b2a403 	adcseq	sl, r2, r3, lsl #8
    2fdc:	041b0000 	ldreq	r0, [fp], #-0
    2fe0:	66000096 			; <UNDEFINED> instruction: 0x66000096
    2fe4:	19000015 	stmdbne	r0, {r0, r2, r4}
    2fe8:	75025301 	strvc	r5, [r2, #-769]	; 0x301
    2fec:	52011900 	andpl	r1, r1, #0, 18
    2ff0:	19007402 	stmdbne	r0, {r1, sl, ip, sp, lr}
    2ff4:	76025101 	strvc	r5, [r2], -r1, lsl #2
    2ff8:	50011900 	andpl	r1, r1, r0, lsl #18
    2ffc:	bcf00305 	ldcllt	3, cr0, [r0], #20
    3000:	00000000 	andeq	r0, r0, r0
    3004:	00007f1c 	andeq	r7, r0, ip, lsl pc
    3008:	00049500 	andeq	r9, r4, r0, lsl #10
    300c:	00761d00 	rsbseq	r1, r6, r0, lsl #26
    3010:	000e0000 	andeq	r0, lr, r0
    3014:	00048507 	andeq	r8, r4, r7, lsl #10
    3018:	09060f00 	stmdbeq	r6, {r8, r9, sl, fp}
    301c:	1c020000 	stcne	0, cr0, [r2], {-0}
    3020:	0000005d 	andeq	r0, r0, sp, asr r0
    3024:	0004de03 	andeq	sp, r4, r3, lsl #28
    3028:	00781e00 	rsbseq	r1, r8, r0, lsl #28
    302c:	005d1c02 	subseq	r1, sp, r2, lsl #24
    3030:	6c1e0000 	ldcvs	0, cr0, [lr], {-0}
    3034:	1c020062 	stcne	0, cr0, [r2], {98}	; 0x62
    3038:	0000002c 	andeq	r0, r0, ip, lsr #32
    303c:	0062751e 	rsbeq	r7, r2, lr, lsl r5
    3040:	002c1c02 	eoreq	r1, ip, r2, lsl #24
    3044:	db1f0000 	blle	7c304c <__bss_end__+0x7b6684>
    3048:	ee000000 	cdp	0, 0, cr0, cr0, cr0, {0}
    304c:	06000004 	streq	r0, [r0], -r4
    3050:	10000009 	andne	r0, r0, r9
    3054:	1f02006e 	svcne	0x0002006e
    3058:	0000002c 	andeq	r0, r0, ip, lsr #32
    305c:	007f1c00 	rsbseq	r1, pc, r0, lsl #24
    3060:	04ee0000 	strbteq	r0, [lr], #0
    3064:	761d0000 	ldrvc	r0, [sp], -r0
    3068:	08000000 	stmdaeq	r0, {}	; <UNPREDICTABLE>
    306c:	04de0700 	ldrbeq	r0, [lr], #1792	; 0x700
    3070:	93200000 	teqls	r0, #0
    3074:	01000009 	tsteq	r0, r9
    3078:	00002c3b 	andeq	r2, r0, fp, lsr ip
    307c:	00962c00 	addseq	r2, r6, r0, lsl #24
    3080:	0000a400 	andeq	sl, r0, r0, lsl #8
    3084:	139c0100 	orrsne	r0, ip, #0, 2
    3088:	14000006 	strne	r0, [r0], #-6
    308c:	006d6f64 	rsbeq	r6, sp, r4, ror #30
    3090:	002c3b01 	eoreq	r3, ip, r1, lsl #22
    3094:	0e590000 	cdpeq	0, 5, cr0, cr9, cr0, {0}
    3098:	78210000 	stmdavc	r1!, {}	; <UNPREDICTABLE>
    309c:	2c3c0100 	ldfcss	f0, [ip], #-0
    30a0:	85000000 	strhi	r0, [r0, #-0]
    30a4:	2200000e 	andcs	r0, r0, #14
    30a8:	0000049a 	muleq	r0, sl, r4
    30ac:	00009648 	andeq	r9, r0, r8, asr #12
    30b0:	00000068 	andeq	r0, r0, r8, rrx
    30b4:	06093d01 	streq	r3, [r9], -r1, lsl #26
    30b8:	bd230000 	stclt	0, cr0, [r3, #-0]
    30bc:	ae000004 	cdpge	0, 0, cr0, cr0, cr4, {0}
    30c0:	2300000e 	movwcs	r0, #14
    30c4:	000004b3 			; <UNDEFINED> instruction: 0x000004b3
    30c8:	00000f16 	andeq	r0, r0, r6, lsl pc
    30cc:	0004aa23 	andeq	sl, r4, r3, lsr #20
    30d0:	000f5d00 	andeq	r5, pc, r0, lsl #26
    30d4:	96482400 	strbls	r2, [r8], -r0, lsl #8
    30d8:	00680000 	rsbeq	r0, r8, r0
    30dc:	d4250000 	strtle	r0, [r5], #-0
    30e0:	86000004 	strhi	r0, [r0], -r4
    30e4:	2600000f 	strcs	r0, [r0], -pc
    30e8:	000004c7 	andeq	r0, r0, r7, asr #9
    30ec:	c1fc0305 	mvnsgt	r0, r5, lsl #6
    30f0:	541a0000 	ldrpl	r0, [sl], #-0
    30f4:	5f000096 	svcpl	0x00000096
    30f8:	18000015 	stmdane	r0, {r0, r2, r4}
    30fc:	00009670 	andeq	r9, r0, r0, ror r6
    3100:	00001566 	andeq	r1, r0, r6, ror #10
    3104:	000005b4 			; <UNDEFINED> instruction: 0x000005b4
    3108:	01530119 	cmpeq	r3, r9, lsl r1
    310c:	5201194d 	andpl	r1, r1, #1261568	; 0x134000
    3110:	c1fc0305 	mvnsgt	r0, r5, lsl #6
    3114:	01190000 	tsteq	r9, r0
    3118:	24030551 	strcs	r0, [r3], #-1361	; 0x551
    311c:	190000bd 	stmdbne	r0, {r0, r2, r3, r4, r5, r7}
    3120:	03055001 	movweq	r5, #20481	; 0x5001
    3124:	0000b208 	andeq	fp, r0, r8, lsl #4
    3128:	007d0219 	rsbseq	r0, sp, r9, lsl r2
    312c:	bd340305 	ldclt	3, cr0, [r4, #-20]!	; 0xffffffec
    3130:	1a000000 	bne	3138 <__code_start__-0x4ec8>
    3134:	00009674 	andeq	r9, r0, r4, ror r6
    3138:	0000157c 	andeq	r1, r0, ip, ror r5
    313c:	0096801a 	addseq	r8, r6, sl, lsl r0
    3140:	00155f00 	andseq	r5, r5, r0, lsl #30
    3144:	969c1800 	ldrls	r1, [ip], r0, lsl #16
    3148:	15660000 	strbne	r0, [r6, #-0]!
    314c:	05fe0000 	ldrbeq	r0, [lr, #0]!
    3150:	01190000 	tsteq	r9, r0
    3154:	194e0153 	stmdbne	lr, {r0, r1, r4, r6, r8}^
    3158:	03055201 	movweq	r5, #20993	; 0x5201
    315c:	0000c1fc 	strdeq	ip, [r0], -ip	; <UNPREDICTABLE>
    3160:	05510119 	ldrbeq	r0, [r1, #-281]	; 0x119
    3164:	00bd2403 	adcseq	r2, sp, r3, lsl #8
    3168:	50011900 	andpl	r1, r1, r0, lsl #18
    316c:	b2080305 	andlt	r0, r8, #335544320	; 0x14000000
    3170:	02190000 	andseq	r0, r9, #0
    3174:	0305007d 	movweq	r0, #20605	; 0x507d
    3178:	0000bd40 	andeq	fp, r0, r0, asr #26
    317c:	96a01a00 	strtls	r1, [r0], r0, lsl #20
    3180:	157c0000 	ldrbne	r0, [ip, #-0]!
    3184:	00000000 	andeq	r0, r0, r0
    3188:	00963c1a 	addseq	r3, r6, sl, lsl ip
    318c:	00158300 	andseq	r8, r5, r0, lsl #6
    3190:	1f270000 	svcne	0x00270000
    3194:	01000009 	tsteq	r0, r9
    3198:	0096d042 	addseq	sp, r6, r2, asr #32
    319c:	00009c00 	andeq	r9, r0, r0, lsl #24
    31a0:	0d9c0100 	ldfeqs	f0, [ip]
    31a4:	14000007 	strne	r0, [r0], #-7
    31a8:	006d6f64 	rsbeq	r6, sp, r4, ror #30
    31ac:	002c4201 	eoreq	r4, ip, r1, lsl #4
    31b0:	0fc40000 	svceq	0x00c40000
    31b4:	a4150000 	ldrge	r0, [r5], #-0
    31b8:	01000004 	tsteq	r0, r4
    31bc:	00002c42 	andeq	r2, r0, r2, asr #24
    31c0:	00101c00 	andseq	r1, r0, r0, lsl #24
    31c4:	00db1700 	sbcseq	r1, fp, r0, lsl #14
    31c8:	071d0000 	ldreq	r0, [sp, -r0]
    31cc:	03050000 	movweq	r0, #20480	; 0x5000
    31d0:	0000c220 	andeq	ip, r0, r0, lsr #4
    31d4:	63616421 	cmnvs	r1, #553648128	; 0x21000000
    31d8:	2c460100 	stfcse	f0, [r6], {-0}
    31dc:	74000000 	strvc	r0, [r0], #-0
    31e0:	1a000010 	bne	3228 <__code_start__-0x4dd8>
    31e4:	000096ec 	andeq	r9, r0, ip, ror #13
    31e8:	0000155f 	andeq	r1, r0, pc, asr r5
    31ec:	00970818 	addseq	r0, r7, r8, lsl r8
    31f0:	00156600 	andseq	r6, r5, r0, lsl #12
    31f4:	0006a600 	andeq	sl, r6, r0, lsl #12
    31f8:	53011900 	movwpl	r1, #6400	; 0x1900
    31fc:	19430802 	stmdbne	r3, {r1, fp}^
    3200:	03055201 	movweq	r5, #20993	; 0x5201
    3204:	0000c220 	andeq	ip, r0, r0, lsr #4
    3208:	05510119 	ldrbeq	r0, [r1, #-281]	; 0x119
    320c:	00bc9c03 	adcseq	r9, ip, r3, lsl #24
    3210:	50011900 	andpl	r1, r1, r0, lsl #18
    3214:	b2080305 	andlt	r0, r8, #335544320	; 0x14000000
    3218:	02190000 	andseq	r0, r9, #0
    321c:	0305007d 	movweq	r0, #20605	; 0x507d
    3220:	0000b5b8 			; <UNDEFINED> instruction: 0x0000b5b8
    3224:	970c1a00 	strls	r1, [ip, -r0, lsl #20]
    3228:	157c0000 	ldrbne	r0, [ip, #-0]!
    322c:	181a0000 	ldmdane	sl, {}	; <UNPREDICTABLE>
    3230:	5f000097 	svcpl	0x00000097
    3234:	18000015 	stmdane	r0, {r0, r2, r4}
    3238:	00009734 	andeq	r9, r0, r4, lsr r7
    323c:	00001566 	andeq	r1, r0, r6, ror #10
    3240:	000006f1 	strdeq	r0, [r0], -r1
    3244:	02530119 	subseq	r0, r3, #1073741830	; 0x40000006
    3248:	01194408 	tsteq	r9, r8, lsl #8
    324c:	20030552 	andcs	r0, r3, r2, asr r5
    3250:	190000c2 	stmdbne	r0, {r1, r6, r7}
    3254:	03055101 	movweq	r5, #20737	; 0x5101
    3258:	0000bc9c 	muleq	r0, ip, ip
    325c:	05500119 	ldrbeq	r0, [r0, #-281]	; 0x119
    3260:	00b20803 	adcseq	r0, r2, r3, lsl #16
    3264:	7d021900 	stcvc	9, cr1, [r2, #-0]
    3268:	48030500 	stmdami	r3, {r8, sl}
    326c:	000000bd 	strheq	r0, [r0], -sp
    3270:	0097381a 	addseq	r3, r7, sl, lsl r8
    3274:	00157c00 	andseq	r7, r5, r0, lsl #24
    3278:	973c1a00 	ldrls	r1, [ip, -r0, lsl #20]!
    327c:	15830000 	strne	r0, [r3]
    3280:	501a0000 	andspl	r0, sl, r0
    3284:	8e000097 	mcrhi	0, 0, r0, cr0, cr7, {4}
    3288:	00000015 	andeq	r0, r0, r5, lsl r0
    328c:	00007f1c 	andeq	r7, r0, ip, lsl pc
    3290:	00071d00 	andeq	r1, r7, r0, lsl #26
    3294:	00761d00 	rsbseq	r1, r6, r0, lsl #26
    3298:	000c0000 	andeq	r0, ip, r0
    329c:	00070d07 	andeq	r0, r7, r7, lsl #26
    32a0:	020b2800 	andeq	r2, fp, #0, 16
    32a4:	52010000 	andpl	r0, r1, #0
    32a8:	0000976c 	andeq	r9, r0, ip, ror #14
    32ac:	00000014 	andeq	r0, r0, r4, lsl r0
    32b0:	58129c01 	ldmdapl	r2, {r0, sl, fp, ip, pc}
    32b4:	01000007 	tsteq	r0, r7
    32b8:	00978077 	addseq	r8, r7, r7, ror r0
    32bc:	00037800 	andeq	r7, r3, r0, lsl #16
    32c0:	639c0100 	orrsvs	r0, ip, #0, 2
    32c4:	1400000d 	strne	r0, [r0], #-13
    32c8:	0100726c 	tsteq	r0, ip, ror #4
    32cc:	00002c77 	andeq	r2, r0, r7, ror ip
    32d0:	00109a00 	andseq	r9, r0, r0, lsl #20
    32d4:	08282900 	stmdaeq	r8!, {r8, fp, sp}
    32d8:	7d010000 	stcvc	0, cr0, [r1, #-0]
    32dc:	0000002c 	andeq	r0, r0, ip, lsr #32
    32e0:	0008ac2a 	andeq	sl, r8, sl, lsr #24
    32e4:	2c7e0100 	ldfcse	f0, [lr], #-0
    32e8:	01000000 	mrseq	r0, (UNDEF: 0)
    32ec:	085a2b55 	ldmdaeq	sl, {r0, r2, r4, r6, r8, r9, fp, sp}^
    32f0:	86010000 	strhi	r0, [r1], -r0
    32f4:	0000002c 	andeq	r0, r0, ip, lsr #32
    32f8:	000010c6 	andeq	r1, r0, r6, asr #1
    32fc:	0000db17 	andeq	sp, r0, r7, lsl fp
    3300:	000d7300 	andeq	r7, sp, r0, lsl #6
    3304:	88030500 	stmdahi	r3, {r8, sl}
    3308:	220000c1 	andcs	r0, r0, #193	; 0xc1
    330c:	0000026d 	andeq	r0, r0, sp, ror #4
    3310:	0000978c 	andeq	r9, r0, ip, lsl #15
    3314:	00000004 	andeq	r0, r0, r4
    3318:	07af7d01 	streq	r7, [pc, r1, lsl #26]!
    331c:	8c240000 	stchi	0, cr0, [r4], #-0
    3320:	04000097 	streq	r0, [r0], #-151	; 0x97
    3324:	2c000000 	stccs	0, cr0, [r0], {-0}
    3328:	0000027d 	andeq	r0, r0, sp, ror r2
    332c:	89220000 	stmdbhi	r2!, {}	; <UNPREDICTABLE>
    3330:	90000002 	andls	r0, r0, r2
    3334:	04000097 	streq	r0, [r0], #-151	; 0x97
    3338:	01000000 	mrseq	r0, (UNDEF: 0)
    333c:	0007d67e 	andeq	sp, r7, lr, ror r6
    3340:	97902400 	ldrls	r2, [r0, r0, lsl #8]
    3344:	00040000 	andeq	r0, r4, r0
    3348:	99250000 	stmdbls	r5!, {}	; <UNPREDICTABLE>
    334c:	d9000002 	stmdble	r0, {r1}
    3350:	00000010 	andeq	r0, r0, r0, lsl r0
    3354:	979c1800 	ldrls	r1, [ip, r0, lsl #16]
    3358:	15660000 	strbne	r0, [r6, #-0]!
    335c:	07ed0000 	strbeq	r0, [sp, r0]!
    3360:	01190000 	tsteq	r9, r0
    3364:	74030550 	strvc	r0, [r3], #-1360	; 0x550
    3368:	000000bd 	strheq	r0, [r0], -sp
    336c:	0097b818 	addseq	fp, r7, r8, lsl r8
    3370:	0002ba00 	andeq	fp, r2, r0, lsl #20
    3374:	00080d00 	andeq	r0, r8, r0, lsl #26
    3378:	52011900 	andpl	r1, r1, #0, 18
    337c:	19007402 	stmdbne	r0, {r1, sl, ip, sp, lr}
    3380:	75025101 	strvc	r5, [r2, #-257]	; 0x101
    3384:	50011900 	andpl	r1, r1, r0, lsl #18
    3388:	00007602 	andeq	r7, r0, r2, lsl #12
    338c:	0098341a 	addseq	r3, r8, sl, lsl r4
    3390:	00155f00 	andseq	r5, r5, r0, lsl #30
    3394:	98481800 	stmdals	r8, {fp, ip}^
    3398:	15660000 	strbne	r0, [r6, #-0]!
    339c:	08450000 	stmdaeq	r5, {}^	; <UNPREDICTABLE>
    33a0:	01190000 	tsteq	r9, r0
    33a4:	8b080253 	blhi	203cf8 <__bss_end__+0x1f7330>
    33a8:	05520119 	ldrbeq	r0, [r2, #-281]	; 0x119
    33ac:	00c18803 	sbceq	r8, r1, r3, lsl #16
    33b0:	51011900 	tstpl	r1, r0, lsl #18
    33b4:	bc9c0305 	ldclt	3, cr0, [ip], {5}
    33b8:	01190000 	tsteq	r9, r0
    33bc:	8c030550 	cfstr32hi	mvfx0, [r3], {80}	; 0x50
    33c0:	000000bd 	strheq	r0, [r0], -sp
    33c4:	00984c1a 	addseq	r4, r8, sl, lsl ip
    33c8:	00157c00 	andseq	r7, r5, r0, lsl #24
    33cc:	98501a00 	ldmdals	r0, {r9, fp, ip}^
    33d0:	155f0000 	ldrbne	r0, [pc, #-0]	; 33d8 <__code_start__-0x4c28>
    33d4:	64180000 	ldrvs	r0, [r8], #-0
    33d8:	66000098 			; <UNDEFINED> instruction: 0x66000098
    33dc:	86000015 			; <UNDEFINED> instruction: 0x86000015
    33e0:	19000008 	stmdbne	r0, {r3}
    33e4:	08025301 	stmdaeq	r2, {r0, r8, r9, ip, lr}
    33e8:	5201198e 	andpl	r1, r1, #2326528	; 0x238000
    33ec:	c1880305 	orrgt	r0, r8, r5, lsl #6
    33f0:	01190000 	tsteq	r9, r0
    33f4:	9c030551 	cfstr32ls	mvfx0, [r3], {81}	; 0x51
    33f8:	190000bc 	stmdbne	r0, {r2, r3, r4, r5, r7}
    33fc:	03055001 	movweq	r5, #20481	; 0x5001
    3400:	0000bdb0 			; <UNDEFINED> instruction: 0x0000bdb0
    3404:	98681a00 	stmdals	r8!, {r9, fp, ip}^
    3408:	157c0000 	ldrbne	r0, [ip, #-0]!
    340c:	6c1a0000 	ldcvs	0, cr0, [sl], {-0}
    3410:	5f000098 	svcpl	0x00000098
    3414:	18000015 	stmdane	r0, {r0, r2, r4}
    3418:	00009880 	andeq	r9, r0, r0, lsl #17
    341c:	00001566 	andeq	r1, r0, r6, ror #10
    3420:	000008c7 	andeq	r0, r0, r7, asr #17
    3424:	02530119 	subseq	r0, r3, #1073741830	; 0x40000006
    3428:	01199108 	tsteq	r9, r8, lsl #2
    342c:	88030552 	stmdahi	r3, {r1, r4, r6, r8, sl}
    3430:	190000c1 	stmdbne	r0, {r0, r6, r7}
    3434:	03055101 	movweq	r5, #20737	; 0x5101
    3438:	0000bc9c 	muleq	r0, ip, ip
    343c:	05500119 	ldrbeq	r0, [r0, #-281]	; 0x119
    3440:	00bdcc03 	adcseq	ip, sp, r3, lsl #24
    3444:	841a0000 	ldrhi	r0, [sl], #-0
    3448:	7c000098 	stcvc	0, cr0, [r0], {152}	; 0x98
    344c:	1a000015 	bne	34a8 <__code_start__-0x4b58>
    3450:	00009888 	andeq	r9, r0, r8, lsl #17
    3454:	0000155f 	andeq	r1, r0, pc, asr r5
    3458:	00989c18 	addseq	r9, r8, r8, lsl ip
    345c:	00156600 	andseq	r6, r5, r0, lsl #12
    3460:	00090800 	andeq	r0, r9, r0, lsl #16
    3464:	53011900 	movwpl	r1, #6400	; 0x1900
    3468:	19940802 	ldmibne	r4, {r1, fp}
    346c:	03055201 	movweq	r5, #20993	; 0x5201
    3470:	0000c188 	andeq	ip, r0, r8, lsl #3
    3474:	05510119 	ldrbeq	r0, [r1, #-281]	; 0x119
    3478:	00bc9c03 	adcseq	r9, ip, r3, lsl #24
    347c:	50011900 	andpl	r1, r1, r0, lsl #18
    3480:	bdf40305 	ldcllt	3, cr0, [r4, #20]!
    3484:	1a000000 	bne	348c <__code_start__-0x4b74>
    3488:	000098a0 	andeq	r9, r0, r0, lsr #17
    348c:	0000157c 	andeq	r1, r0, ip, ror r5
    3490:	0098a41a 	addseq	sl, r8, sl, lsl r4
    3494:	00155f00 	andseq	r5, r5, r0, lsl #30
    3498:	98b81800 	ldmls	r8!, {fp, ip}
    349c:	15660000 	strbne	r0, [r6, #-0]!
    34a0:	09490000 	stmdbeq	r9, {}^	; <UNPREDICTABLE>
    34a4:	01190000 	tsteq	r9, r0
    34a8:	97080253 	smlsdls	r8, r3, r2, r0
    34ac:	05520119 	ldrbeq	r0, [r2, #-281]	; 0x119
    34b0:	00c18803 	sbceq	r8, r1, r3, lsl #16
    34b4:	51011900 	tstpl	r1, r0, lsl #18
    34b8:	bc9c0305 	ldclt	3, cr0, [ip], {5}
    34bc:	01190000 	tsteq	r9, r0
    34c0:	20030550 	andcs	r0, r3, r0, asr r5
    34c4:	000000be 	strheq	r0, [r0], -lr
    34c8:	0098bc1a 	addseq	fp, r8, sl, lsl ip
    34cc:	00157c00 	andseq	r7, r5, r0, lsl #24
    34d0:	98c01a00 	stmials	r0, {r9, fp, ip}^
    34d4:	155f0000 	ldrbne	r0, [pc, #-0]	; 34dc <__code_start__-0x4b24>
    34d8:	d4180000 	ldrle	r0, [r8], #-0
    34dc:	66000098 			; <UNDEFINED> instruction: 0x66000098
    34e0:	8a000015 	bhi	353c <__code_start__-0x4ac4>
    34e4:	19000009 	stmdbne	r0, {r0, r3}
    34e8:	08025301 	stmdaeq	r2, {r0, r8, r9, ip, lr}
    34ec:	5201199a 	andpl	r1, r1, #2523136	; 0x268000
    34f0:	c1880305 	orrgt	r0, r8, r5, lsl #6
    34f4:	01190000 	tsteq	r9, r0
    34f8:	9c030551 	cfstr32ls	mvfx0, [r3], {81}	; 0x51
    34fc:	190000bc 	stmdbne	r0, {r2, r3, r4, r5, r7}
    3500:	03055001 	movweq	r5, #20481	; 0x5001
    3504:	0000be4c 	andeq	fp, r0, ip, asr #28
    3508:	98d81a00 	ldmls	r8, {r9, fp, ip}^
    350c:	157c0000 	ldrbne	r0, [ip, #-0]!
    3510:	e0180000 	ands	r0, r8, r0
    3514:	66000098 			; <UNDEFINED> instruction: 0x66000098
    3518:	aa000015 	bge	3574 <__code_start__-0x4a8c>
    351c:	19000009 	stmdbne	r0, {r0, r3}
    3520:	03055001 	movweq	r5, #20481	; 0x5001
    3524:	0000b2a4 	andeq	fp, r0, r4, lsr #5
    3528:	98e81800 	stmials	r8!, {fp, ip}^
    352c:	15660000 	strbne	r0, [r6, #-0]!
    3530:	09c10000 	stmibeq	r1, {}^	; <UNPREDICTABLE>
    3534:	01190000 	tsteq	r9, r0
    3538:	78030550 	stmdavc	r3, {r4, r6, r8, sl}
    353c:	000000be 	strheq	r0, [r0], -lr
    3540:	0098ec1a 	addseq	lr, r8, sl, lsl ip
    3544:	00157c00 	andseq	r7, r5, r0, lsl #24
    3548:	98f01a00 	ldmls	r0!, {r9, fp, ip}^
    354c:	155f0000 	ldrbne	r0, [pc, #-0]	; 3554 <__code_start__-0x4aac>
    3550:	04180000 	ldreq	r0, [r8], #-0
    3554:	66000099 			; <UNDEFINED> instruction: 0x66000099
    3558:	02000015 	andeq	r0, r0, #21
    355c:	1900000a 	stmdbne	r0, {r1, r3}
    3560:	08025301 	stmdaeq	r2, {r0, r8, r9, ip, lr}
    3564:	520119a0 	andpl	r1, r1, #160, 18	; 0x280000
    3568:	c1880305 	orrgt	r0, r8, r5, lsl #6
    356c:	01190000 	tsteq	r9, r0
    3570:	9c030551 	cfstr32ls	mvfx0, [r3], {81}	; 0x51
    3574:	190000bc 	stmdbne	r0, {r2, r3, r4, r5, r7}
    3578:	03055001 	movweq	r5, #20481	; 0x5001
    357c:	0000bea0 	andeq	fp, r0, r0, lsr #29
    3580:	99081a00 	stmdbls	r8, {r9, fp, ip}
    3584:	157c0000 	ldrbne	r0, [ip, #-0]!
    3588:	10180000 	andsne	r0, r8, r0
    358c:	66000099 			; <UNDEFINED> instruction: 0x66000099
    3590:	22000015 	andcs	r0, r0, #21
    3594:	1900000a 	stmdbne	r0, {r1, r3}
    3598:	03055001 	movweq	r5, #20481	; 0x5001
    359c:	0000bec8 	andeq	fp, r0, r8, asr #29
    35a0:	99281800 	stmdbls	r8!, {fp, ip}
    35a4:	15660000 	strbne	r0, [r6, #-0]!
    35a8:	0a390000 	beq	e435b0 <__bss_end__+0xe36be8>
    35ac:	01190000 	tsteq	r9, r0
    35b0:	a4030550 	strge	r0, [r3], #-1360	; 0x550
    35b4:	000000b2 	strheq	r0, [r0], -r2
    35b8:	00993018 	addseq	r3, r9, r8, lsl r0
    35bc:	00156600 	andseq	r6, r5, r0, lsl #12
    35c0:	000a5000 	andeq	r5, sl, r0
    35c4:	50011900 	andpl	r1, r1, r0, lsl #18
    35c8:	bee00305 	cdplt	3, 14, cr0, cr0, cr5, {0}
    35cc:	1a000000 	bne	35d4 <__code_start__-0x4a2c>
    35d0:	00009934 	andeq	r9, r0, r4, lsr r9
    35d4:	0000157c 	andeq	r1, r0, ip, ror r5
    35d8:	00993c18 	addseq	r3, r9, r8, lsl ip
    35dc:	00156600 	andseq	r6, r5, r0, lsl #12
    35e0:	000a7000 	andeq	r7, sl, r0
    35e4:	50011900 	andpl	r1, r1, r0, lsl #18
    35e8:	b2a40305 	adclt	r0, r4, #335544320	; 0x14000000
    35ec:	18000000 	stmdane	r0, {}	; <UNPREDICTABLE>
    35f0:	00009944 	andeq	r9, r0, r4, asr #18
    35f4:	00001566 	andeq	r1, r0, r6, ror #10
    35f8:	00000a87 	andeq	r0, r0, r7, lsl #21
    35fc:	05500119 	ldrbeq	r0, [r0, #-281]	; 0x119
    3600:	00bef003 	adcseq	pc, lr, r3
    3604:	481a0000 	ldmdami	sl, {}	; <UNPREDICTABLE>
    3608:	bb000099 	bllt	3874 <__code_start__-0x478c>
    360c:	1a000013 	bne	3660 <__code_start__-0x49a0>
    3610:	00009950 	andeq	r9, r0, r0, asr r9
    3614:	0000155f 	andeq	r1, r0, pc, asr r5
    3618:	00996418 	addseq	r6, r9, r8, lsl r4
    361c:	00156600 	andseq	r6, r5, r0, lsl #12
    3620:	000ac800 	andeq	ip, sl, r0, lsl #16
    3624:	53011900 	movwpl	r1, #6400	; 0x1900
    3628:	19ad0802 	stmibne	sp!, {r1, fp}
    362c:	03055201 	movweq	r5, #20993	; 0x5201
    3630:	0000c188 	andeq	ip, r0, r8, lsl #3
    3634:	05510119 	ldrbeq	r0, [r1, #-281]	; 0x119
    3638:	00bc9c03 	adcseq	r9, ip, r3, lsl #24
    363c:	50011900 	andpl	r1, r1, r0, lsl #18
    3640:	bf080305 	svclt	0x00080305
    3644:	1a000000 	bne	364c <__code_start__-0x49b4>
    3648:	00009968 	andeq	r9, r0, r8, ror #18
    364c:	0000157c 	andeq	r1, r0, ip, ror r5
    3650:	00996c1a 	addseq	r6, r9, sl, lsl ip
    3654:	00155f00 	andseq	r5, r5, r0, lsl #30
    3658:	99841800 	stmibls	r4, {fp, ip}
    365c:	15660000 	strbne	r0, [r6, #-0]!
    3660:	0b100000 	bleq	403668 <__bss_end__+0x3f6ca0>
    3664:	01190000 	tsteq	r9, r0
    3668:	b0080253 	andlt	r0, r8, r3, asr r2
    366c:	05520119 	ldrbeq	r0, [r2, #-281]	; 0x119
    3670:	00c18803 	sbceq	r8, r1, r3, lsl #16
    3674:	51011900 	tstpl	r1, r0, lsl #18
    3678:	bc9c0305 	ldclt	3, cr0, [ip], {5}
    367c:	01190000 	tsteq	r9, r0
    3680:	2c030550 	cfstr32cs	mvfx0, [r3], {80}	; 0x50
    3684:	190000bf 	stmdbne	r0, {r0, r1, r2, r3, r4, r5, r7}
    3688:	02007d02 	andeq	r7, r0, #2, 26	; 0x80
    368c:	1a000075 	bne	3868 <__code_start__-0x4798>
    3690:	00009988 	andeq	r9, r0, r8, lsl #19
    3694:	0000157c 	andeq	r1, r0, ip, ror r5
    3698:	00998c1a 	addseq	r8, r9, sl, lsl ip
    369c:	00155f00 	andseq	r5, r5, r0, lsl #30
    36a0:	99a01800 	stmibls	r0!, {fp, ip}
    36a4:	15660000 	strbne	r0, [r6, #-0]!
    36a8:	0b510000 	bleq	14436b0 <__bss_end__+0x1436ce8>
    36ac:	01190000 	tsteq	r9, r0
    36b0:	b3080253 	movwlt	r0, #33363	; 0x8253
    36b4:	05520119 	ldrbeq	r0, [r2, #-281]	; 0x119
    36b8:	00c18803 	sbceq	r8, r1, r3, lsl #16
    36bc:	51011900 	tstpl	r1, r0, lsl #18
    36c0:	bc9c0305 	ldclt	3, cr0, [ip], {5}
    36c4:	01190000 	tsteq	r9, r0
    36c8:	5c030550 	cfstr32pl	mvfx0, [r3], {80}	; 0x50
    36cc:	000000bf 	strheq	r0, [r0], -pc	; <UNPREDICTABLE>
    36d0:	0099a41a 	addseq	sl, r9, sl, lsl r4
    36d4:	00157c00 	andseq	r7, r5, r0, lsl #24
    36d8:	99a81a00 	stmibls	r8!, {r9, fp, ip}
    36dc:	155f0000 	ldrbne	r0, [pc, #-0]	; 36e4 <__code_start__-0x491c>
    36e0:	bc180000 	ldclt	0, cr0, [r8], {-0}
    36e4:	66000099 			; <UNDEFINED> instruction: 0x66000099
    36e8:	92000015 	andls	r0, r0, #21
    36ec:	1900000b 	stmdbne	r0, {r0, r1, r3}
    36f0:	08025301 	stmdaeq	r2, {r0, r8, r9, ip, lr}
    36f4:	520119b6 	andpl	r1, r1, #2981888	; 0x2d8000
    36f8:	c1880305 	orrgt	r0, r8, r5, lsl #6
    36fc:	01190000 	tsteq	r9, r0
    3700:	9c030551 	cfstr32ls	mvfx0, [r3], {81}	; 0x51
    3704:	190000bc 	stmdbne	r0, {r2, r3, r4, r5, r7}
    3708:	03055001 	movweq	r5, #20481	; 0x5001
    370c:	0000bf84 	andeq	fp, r0, r4, lsl #31
    3710:	99c01a00 	stmibls	r0, {r9, fp, ip}^
    3714:	157c0000 	ldrbne	r0, [ip, #-0]!
    3718:	c41a0000 	ldrgt	r0, [sl], #-0
    371c:	5f000099 	svcpl	0x00000099
    3720:	18000015 	stmdane	r0, {r0, r2, r4}
    3724:	000099d8 	ldrdeq	r9, [r0], -r8
    3728:	00001566 	andeq	r1, r0, r6, ror #10
    372c:	00000bd3 	ldrdeq	r0, [r0], -r3
    3730:	02530119 	subseq	r0, r3, #1073741830	; 0x40000006
    3734:	0119b908 	tsteq	r9, r8, lsl #18
    3738:	88030552 	stmdahi	r3, {r1, r4, r6, r8, sl}
    373c:	190000c1 	stmdbne	r0, {r0, r6, r7}
    3740:	03055101 	movweq	r5, #20737	; 0x5101
    3744:	0000bc9c 	muleq	r0, ip, ip
    3748:	05500119 	ldrbeq	r0, [r0, #-281]	; 0x119
    374c:	00bfac03 	adcseq	sl, pc, r3, lsl #24
    3750:	dc1a0000 	ldcle	0, cr0, [sl], {-0}
    3754:	7c000099 	stcvc	0, cr0, [r0], {153}	; 0x99
    3758:	1a000015 	bne	37b4 <__code_start__-0x484c>
    375c:	000099e0 	andeq	r9, r0, r0, ror #19
    3760:	0000155f 	andeq	r1, r0, pc, asr r5
    3764:	0099f418 	addseq	pc, r9, r8, lsl r4	; <UNPREDICTABLE>
    3768:	00156600 	andseq	r6, r5, r0, lsl #12
    376c:	000c1400 	andeq	r1, ip, r0, lsl #8
    3770:	53011900 	movwpl	r1, #6400	; 0x1900
    3774:	19bc0802 	ldmibne	ip!, {r1, fp}
    3778:	03055201 	movweq	r5, #20993	; 0x5201
    377c:	0000c188 	andeq	ip, r0, r8, lsl #3
    3780:	05510119 	ldrbeq	r0, [r1, #-281]	; 0x119
    3784:	00bc9c03 	adcseq	r9, ip, r3, lsl #24
    3788:	50011900 	andpl	r1, r1, r0, lsl #18
    378c:	bfd40305 	svclt	0x00d40305
    3790:	1a000000 	bne	3798 <__code_start__-0x4868>
    3794:	000099f8 	strdeq	r9, [r0], -r8
    3798:	0000157c 	andeq	r1, r0, ip, ror r5
    379c:	0099fc1a 	addseq	pc, r9, sl, lsl ip	; <UNPREDICTABLE>
    37a0:	00155f00 	andseq	r5, r5, r0, lsl #30
    37a4:	9a101800 	bls	4097ac <__bss_end__+0x3fcde4>
    37a8:	15660000 	strbne	r0, [r6, #-0]!
    37ac:	0c550000 	mraeq	r0, r5, acc0
    37b0:	01190000 	tsteq	r9, r0
    37b4:	bf080253 	svclt	0x00080253
    37b8:	05520119 	ldrbeq	r0, [r2, #-281]	; 0x119
    37bc:	00c18803 	sbceq	r8, r1, r3, lsl #16
    37c0:	51011900 	tstpl	r1, r0, lsl #18
    37c4:	bc9c0305 	ldclt	3, cr0, [ip], {5}
    37c8:	01190000 	tsteq	r9, r0
    37cc:	f0030550 			; <UNDEFINED> instruction: 0xf0030550
    37d0:	000000bf 	strheq	r0, [r0], -pc	; <UNPREDICTABLE>
    37d4:	009a141a 	addseq	r1, sl, sl, lsl r4
    37d8:	00157c00 	andseq	r7, r5, r0, lsl #24
    37dc:	9a181a00 	bls	609fe4 <__bss_end__+0x5fd61c>
    37e0:	155f0000 	ldrbne	r0, [pc, #-0]	; 37e8 <__code_start__-0x4818>
    37e4:	2c180000 	ldccs	0, cr0, [r8], {-0}
    37e8:	6600009a 			; <UNDEFINED> instruction: 0x6600009a
    37ec:	96000015 			; <UNDEFINED> instruction: 0x96000015
    37f0:	1900000c 	stmdbne	r0, {r2, r3}
    37f4:	08025301 	stmdaeq	r2, {r0, r8, r9, ip, lr}
    37f8:	520119c2 	andpl	r1, r1, #3178496	; 0x308000
    37fc:	c1880305 	orrgt	r0, r8, r5, lsl #6
    3800:	01190000 	tsteq	r9, r0
    3804:	9c030551 	cfstr32ls	mvfx0, [r3], {81}	; 0x51
    3808:	190000bc 	stmdbne	r0, {r2, r3, r4, r5, r7}
    380c:	03055001 	movweq	r5, #20481	; 0x5001
    3810:	0000c018 	andeq	ip, r0, r8, lsl r0
    3814:	9a301a00 	bls	c0a01c <__bss_end__+0xbfd654>
    3818:	157c0000 	ldrbne	r0, [ip, #-0]!
    381c:	341a0000 	ldrcc	r0, [sl], #-0
    3820:	5f00009a 	svcpl	0x0000009a
    3824:	18000015 	stmdane	r0, {r0, r2, r4}
    3828:	00009a48 	andeq	r9, r0, r8, asr #20
    382c:	00001566 	andeq	r1, r0, r6, ror #10
    3830:	00000cd7 	ldrdeq	r0, [r0], -r7
    3834:	02530119 	subseq	r0, r3, #1073741830	; 0x40000006
    3838:	0119c508 	tsteq	r9, r8, lsl #10
    383c:	88030552 	stmdahi	r3, {r1, r4, r6, r8, sl}
    3840:	190000c1 	stmdbne	r0, {r0, r6, r7}
    3844:	03055101 	movweq	r5, #20737	; 0x5101
    3848:	0000bc9c 	muleq	r0, ip, ip
    384c:	05500119 	ldrbeq	r0, [r0, #-281]	; 0x119
    3850:	00c04403 	sbceq	r4, r0, r3, lsl #8
    3854:	4c1a0000 	ldcmi	0, cr0, [sl], {-0}
    3858:	7c00009a 	stcvc	0, cr0, [r0], {154}	; 0x9a
    385c:	1a000015 	bne	38b8 <__code_start__-0x4748>
    3860:	00009a50 	andeq	r9, r0, r0, asr sl
    3864:	0000155f 	andeq	r1, r0, pc, asr r5
    3868:	009a6418 	addseq	r6, sl, r8, lsl r4
    386c:	00156600 	andseq	r6, r5, r0, lsl #12
    3870:	000d1800 	andeq	r1, sp, r0, lsl #16
    3874:	53011900 	movwpl	r1, #6400	; 0x1900
    3878:	19c80802 	stmibne	r8, {r1, fp}^
    387c:	03055201 	movweq	r5, #20993	; 0x5201
    3880:	0000c188 	andeq	ip, r0, r8, lsl #3
    3884:	05510119 	ldrbeq	r0, [r1, #-281]	; 0x119
    3888:	00bc9c03 	adcseq	r9, ip, r3, lsl #24
    388c:	50011900 	andpl	r1, r1, r0, lsl #18
    3890:	c06c0305 	rsbgt	r0, ip, r5, lsl #6
    3894:	1a000000 	bne	389c <__code_start__-0x4764>
    3898:	00009a68 	andeq	r9, r0, r8, ror #20
    389c:	0000157c 	andeq	r1, r0, ip, ror r5
    38a0:	009a6c1a 	addseq	r6, sl, sl, lsl ip
    38a4:	00155f00 	andseq	r5, r5, r0, lsl #30
    38a8:	9a801800 	bls	fe0098b0 <__bss_end__+0xfdffcee8>
    38ac:	15660000 	strbne	r0, [r6, #-0]!
    38b0:	0d590000 	ldcleq	0, cr0, [r9, #-0]
    38b4:	01190000 	tsteq	r9, r0
    38b8:	cb080253 	blgt	20420c <__bss_end__+0x1f7844>
    38bc:	05520119 	ldrbeq	r0, [r2, #-281]	; 0x119
    38c0:	00c18803 	sbceq	r8, r1, r3, lsl #16
    38c4:	51011900 	tstpl	r1, r0, lsl #18
    38c8:	bc9c0305 	ldclt	3, cr0, [ip], {5}
    38cc:	01190000 	tsteq	r9, r0
    38d0:	8c030550 	cfstr32hi	mvfx0, [r3], {80}	; 0x50
    38d4:	000000c0 	andeq	r0, r0, r0, asr #1
    38d8:	009a841a 	addseq	r8, sl, sl, lsl r4
    38dc:	00157c00 	andseq	r7, r5, r0, lsl #24
    38e0:	7f1c0000 	svcvc	0x001c0000
    38e4:	73000000 	movwvc	r0, #0
    38e8:	1d00000d 	stcne	0, cr0, [r0, #-52]	; 0xffffffcc
    38ec:	00000076 	andeq	r0, r0, r6, ror r0
    38f0:	63070011 	movwvs	r0, #28689	; 0x7011
    38f4:	1200000d 	andne	r0, r0, #13
    38f8:	00000c17 	andeq	r0, r0, r7, lsl ip
    38fc:	9af8e201 	bls	ffe3c108 <__bss_end__+0xffe2f740>
    3900:	00300000 	eorseq	r0, r0, r0
    3904:	9c010000 	stcls	0, cr0, [r1], {-0}
    3908:	00000df5 	strdeq	r0, [r0], -r5
    390c:	00726c14 	rsbseq	r6, r2, r4, lsl ip
    3910:	002ce201 	eoreq	lr, ip, r1, lsl #4
    3914:	10ec0000 	rscne	r0, ip, r0
    3918:	db170000 	blle	5c3920 <__bss_end__+0x5b6f58>
    391c:	05000000 	streq	r0, [r0, #-0]
    3920:	0500000e 	streq	r0, [r0, #-14]
    3924:	00c19c03 	sbceq	r9, r1, r3, lsl #24
    3928:	9b001a00 	blls	a130 <cp15_ttbr1_wr+0x14>
    392c:	159f0000 	ldrne	r0, [pc]	; 3934 <__code_start__-0x46cc>
    3930:	041a0000 	ldreq	r0, [sl], #-0
    3934:	5f00009b 	svcpl	0x0000009b
    3938:	18000015 	stmdane	r0, {r0, r2, r4}
    393c:	00009b18 	andeq	r9, r0, r8, lsl fp
    3940:	00001566 	andeq	r1, r0, r6, ror #10
    3944:	00000deb 	andeq	r0, r0, fp, ror #27
    3948:	02530119 	subseq	r0, r3, #1073741830	; 0x40000006
    394c:	0119e408 	tsteq	r9, r8, lsl #8
    3950:	9c030552 	cfstr32ls	mvfx0, [r3], {82}	; 0x52
    3954:	190000c1 	stmdbne	r0, {r0, r6, r7}
    3958:	03055101 	movweq	r5, #20737	; 0x5101
    395c:	0000bc9c 	muleq	r0, ip, ip
    3960:	05500119 	ldrbeq	r0, [r0, #-281]	; 0x119
    3964:	00c0b403 	sbceq	fp, r0, r3, lsl #8
    3968:	1c1a0000 	ldcne	0, cr0, [sl], {-0}
    396c:	7c00009b 	stcvc	0, cr0, [r0], {155}	; 0x9b
    3970:	00000015 	andeq	r0, r0, r5, lsl r0
    3974:	00007f1c 	andeq	r7, r0, ip, lsl pc
    3978:	000e0500 	andeq	r0, lr, r0, lsl #10
    397c:	00761d00 	rsbseq	r1, r6, r0, lsl #26
    3980:	00100000 	andseq	r0, r0, r0
    3984:	000df507 	andeq	pc, sp, r7, lsl #10
    3988:	01cf1200 	biceq	r1, pc, r0, lsl #4
    398c:	f0010000 			; <UNDEFINED> instruction: 0xf0010000
    3990:	00009b28 	andeq	r9, r0, r8, lsr #22
    3994:	00000150 	andeq	r0, r0, r0, asr r1
    3998:	10239c01 	eorne	r9, r3, r1, lsl #24
    399c:	db170000 	blle	5c39a4 <__bss_end__+0x5b6fdc>
    39a0:	33000000 	movwcc	r0, #0
    39a4:	05000010 	streq	r0, [r0, #-16]
    39a8:	00c1b003 	sbceq	fp, r1, r3
    39ac:	0f512d00 	svceq	0x00512d00
    39b0:	f5010000 			; <UNDEFINED> instruction: 0xf5010000
    39b4:	0000007d 	andeq	r0, r0, sp, ror r0
    39b8:	00100000 	andseq	r0, r0, r0
    39bc:	009b341a 	addseq	r3, fp, sl, lsl r4
    39c0:	0015a600 	andseq	sl, r5, r0, lsl #12
    39c4:	9b381a00 	blls	e0a1cc <__bss_end__+0xdfd804>
    39c8:	15ad0000 	strne	r0, [sp, #0]!
    39cc:	441a0000 	ldrmi	r0, [sl], #-0
    39d0:	5f00009b 	svcpl	0x0000009b
    39d4:	18000015 	stmdane	r0, {r0, r2, r4}
    39d8:	00009b60 	andeq	r9, r0, r0, ror #22
    39dc:	00001566 	andeq	r1, r0, r6, ror #10
    39e0:	00000e91 	muleq	r0, r1, lr
    39e4:	02530119 	subseq	r0, r3, #1073741830	; 0x40000006
    39e8:	0119f308 	tsteq	r9, r8, lsl #6
    39ec:	b0030552 	andlt	r0, r3, r2, asr r5
    39f0:	190000c1 	stmdbne	r0, {r0, r6, r7}
    39f4:	03055101 	movweq	r5, #20737	; 0x5101
    39f8:	0000bc9c 	muleq	r0, ip, ip
    39fc:	05500119 	ldrbeq	r0, [r0, #-281]	; 0x119
    3a00:	00b20803 	adcseq	r0, r2, r3, lsl #16
    3a04:	7d021900 	stcvc	9, cr1, [r2, #-0]
    3a08:	d0030500 	andle	r0, r3, r0, lsl #10
    3a0c:	000000c0 	andeq	r0, r0, r0, asr #1
    3a10:	009b641a 	addseq	r6, fp, sl, lsl r4
    3a14:	00157c00 	andseq	r7, r5, r0, lsl #24
    3a18:	9b701800 	blls	1c09a20 <__bss_end__+0x1bfd058>
    3a1c:	15b80000 	ldrne	r0, [r8, #0]!
    3a20:	0eb60000 	cdpeq	0, 11, cr0, cr6, cr0, {0}
    3a24:	01190000 	tsteq	r9, r0
    3a28:	000a0351 	andeq	r0, sl, r1, asr r3
    3a2c:	50011940 	andpl	r1, r1, r0, asr #18
    3a30:	24404003 	strbcs	r4, [r0], #-3
    3a34:	9b841a00 	blls	fe10a23c <__bss_end__+0xfe0fd874>
    3a38:	155f0000 	ldrbne	r0, [pc, #-0]	; 3a40 <__code_start__-0x45c0>
    3a3c:	a0180000 	andsge	r0, r8, r0
    3a40:	6600009b 			; <UNDEFINED> instruction: 0x6600009b
    3a44:	f8000015 			; <UNDEFINED> instruction: 0xf8000015
    3a48:	1900000e 	stmdbne	r0, {r1, r2, r3}
    3a4c:	08025301 	stmdaeq	r2, {r0, r8, r9, ip, lr}
    3a50:	520119f8 	andpl	r1, r1, #248, 18	; 0x3e0000
    3a54:	c1b00305 	lslsgt	r0, r5, #6
    3a58:	01190000 	tsteq	r9, r0
    3a5c:	9c030551 	cfstr32ls	mvfx0, [r3], {81}	; 0x51
    3a60:	190000bc 	stmdbne	r0, {r2, r3, r4, r5, r7}
    3a64:	03055001 	movweq	r5, #20481	; 0x5001
    3a68:	0000b208 	andeq	fp, r0, r8, lsl #4
    3a6c:	007d0219 	rsbseq	r0, sp, r9, lsl r2
    3a70:	c0e40305 	rscgt	r0, r4, r5, lsl #6
    3a74:	1a000000 	bne	3a7c <__code_start__-0x4584>
    3a78:	00009ba4 	andeq	r9, r0, r4, lsr #23
    3a7c:	0000157c 	andeq	r1, r0, ip, ror r5
    3a80:	009bb418 	addseq	fp, fp, r8, lsl r4
    3a84:	0015d200 	andseq	sp, r5, r0, lsl #4
    3a88:	000f1e00 	andeq	r1, pc, r0, lsl #28
    3a8c:	53011900 	movwpl	r1, #6400	; 0x1900
    3a90:	01193101 	tsteq	r9, r1, lsl #2
    3a94:	19300152 	ldmdbne	r0!, {r1, r4, r6, r8}
    3a98:	30015101 	andcc	r5, r1, r1, lsl #2
    3a9c:	9bcc1800 	blls	ff309aa4 <__bss_end__+0xff2fd0dc>
    3aa0:	15d20000 	ldrbne	r0, [r2]
    3aa4:	0f3f0000 	svceq	0x003f0000
    3aa8:	01190000 	tsteq	r9, r0
    3aac:	19310153 	ldmdbne	r1!, {r0, r1, r4, r6, r8}
    3ab0:	40035201 	andmi	r5, r3, r1, lsl #4
    3ab4:	01192440 	tsteq	r9, r0, asr #8
    3ab8:	40400351 	submi	r0, r0, r1, asr r3
    3abc:	e0180024 	ands	r0, r8, r4, lsr #32
    3ac0:	d200009b 	andle	r0, r0, #155	; 0x9b
    3ac4:	62000015 	andvs	r0, r0, #21
    3ac8:	1900000f 	stmdbne	r0, {r0, r1, r2, r3}
    3acc:	31015301 	tstcc	r1, r1, lsl #6
    3ad0:	04520119 	ldrbeq	r0, [r2], #-281	; 0x119
    3ad4:	2443fe08 	strbcs	pc, [r3], #-3592	; 0xe08	; <UNPREDICTABLE>
    3ad8:	04510119 	ldrbeq	r0, [r1], #-281	; 0x119
    3adc:	2443fe08 	strbcs	pc, [r3], #-3592	; 0xe08	; <UNPREDICTABLE>
    3ae0:	9bf41800 	blls	ffd09ae8 <__bss_end__+0xffcfd120>
    3ae4:	15d20000 	ldrbne	r0, [r2]
    3ae8:	0f830000 	svceq	0x00830000
    3aec:	01190000 	tsteq	r9, r0
    3af0:	19310153 	ldmdbne	r1!, {r0, r1, r4, r6, r8}
    3af4:	40035201 	andmi	r5, r3, r1, lsl #4
    3af8:	01192449 	tsteq	r9, r9, asr #8
    3afc:	49400351 	stmdbmi	r0, {r0, r4, r6, r8, r9}^
    3b00:	08180024 	ldmdaeq	r8, {r2, r5}
    3b04:	d200009c 	andle	r0, r0, #156	; 0x9c
    3b08:	a8000015 	stmdage	r0, {r0, r2, r4}
    3b0c:	1900000f 	stmdbne	r0, {r0, r1, r2, r3}
    3b10:	31015301 	tstcc	r1, r1, lsl #6
    3b14:	05520119 	ldrbeq	r0, [r2, #-281]	; 0x119
    3b18:	1000000c 	andne	r0, r0, ip
    3b1c:	51011920 	tstpl	r1, r0, lsr #18
    3b20:	00000c05 	andeq	r0, r0, r5, lsl #24
    3b24:	18002010 	stmdane	r0, {r4, sp}
    3b28:	00009c1c 	andeq	r9, r0, ip, lsl ip
    3b2c:	000015d2 	ldrdeq	r1, [r0], -r2
    3b30:	00000fcd 	andeq	r0, r0, sp, asr #31
    3b34:	01530119 	cmpeq	r3, r9, lsl r1
    3b38:	52011931 	andpl	r1, r1, #802816	; 0xc4000
    3b3c:	00000c05 	andeq	r0, r0, r5, lsl #24
    3b40:	01192020 	tsteq	r9, r0, lsr #32
    3b44:	000c0551 	andeq	r0, ip, r1, asr r5
    3b48:	00202000 	eoreq	r2, r0, r0
    3b4c:	009c3018 	addseq	r3, ip, r8, lsl r0
    3b50:	0015d200 	andseq	sp, r5, r0, lsl #4
    3b54:	000ff000 	andeq	pc, pc, r0
    3b58:	53011900 	movwpl	r1, #6400	; 0x1900
    3b5c:	01193101 	tsteq	r9, r1, lsl #2
    3b60:	8f080452 	svchi	0x00080452
    3b64:	01192444 	tsteq	r9, r4, asr #8
    3b68:	8f080451 	svchi	0x00080451
    3b6c:	1a002444 	bne	cc84 <__bss_end__+0x2bc>
    3b70:	00009c34 	andeq	r9, r0, r4, lsr ip
    3b74:	000015f6 	strdeq	r1, [r0], -r6
    3b78:	009c3c18 	addseq	r3, ip, r8, lsl ip
    3b7c:	00158e00 	andseq	r8, r5, r0, lsl #28
    3b80:	00100c00 	andseq	r0, r0, r0, lsl #24
    3b84:	50011900 	andpl	r1, r1, r0, lsl #18
    3b88:	1b003401 	blne	10b94 <__bss_end__+0x41cc>
    3b8c:	00009c4c 	andeq	r9, r0, ip, asr #24
    3b90:	000015fd 	strdeq	r1, [r0], -sp
    3b94:	01510119 	cmpeq	r1, r9, lsl r1
    3b98:	50011931 	andpl	r1, r1, r1, lsr r9
    3b9c:	140e0a03 	strne	r0, [lr], #-2563	; 0xa03
    3ba0:	7f1c0000 	svcvc	0x001c0000
    3ba4:	33000000 	movwcc	r0, #0
    3ba8:	1d000010 	stcne	0, cr0, [r0, #-64]	; 0xffffffc0
    3bac:	00000076 	andeq	r0, r0, r6, ror r0
    3bb0:	2307000d 	movwcs	r0, #28685	; 0x700d
    3bb4:	2e000010 	mcrcs	0, 0, r0, cr0, cr0, {0}
    3bb8:	000000e8 	andeq	r0, r0, r8, ror #1
    3bbc:	78011b01 	stmdavc	r1, {r0, r8, r9, fp, ip}
    3bc0:	8800009c 	stmdahi	r0, {r2, r3, r4, r7}
    3bc4:	01000000 	mrseq	r0, (UNDEF: 0)
    3bc8:	0011189c 	mulseq	r1, ip, r8
    3bcc:	00db1700 	sbcseq	r1, fp, r0, lsl #14
    3bd0:	11280000 	teqne	r8, r0
    3bd4:	03050000 	movweq	r0, #20480	; 0x5000
    3bd8:	0000c1c0 	andeq	ip, r0, r0, asr #3
    3bdc:	009c9418 	addseq	r9, ip, r8, lsl r4
    3be0:	00156600 	andseq	r6, r5, r0, lsl #12
    3be4:	00108d00 	andseq	r8, r0, r0, lsl #26
    3be8:	53011900 	movwpl	r1, #6400	; 0x1900
    3bec:	011c0a03 	tsteq	ip, r3, lsl #20
    3bf0:	05520119 	ldrbeq	r0, [r2, #-281]	; 0x119
    3bf4:	00c1c003 	sbceq	ip, r1, r3
    3bf8:	51011900 	tstpl	r1, r0, lsl #18
    3bfc:	bc9c0305 	ldclt	3, cr0, [ip], {5}
    3c00:	01190000 	tsteq	r9, r0
    3c04:	f0030550 			; <UNDEFINED> instruction: 0xf0030550
    3c08:	000000c0 	andeq	r0, r0, r0, asr #1
    3c0c:	009c981a 	addseq	r9, ip, sl, lsl r8
    3c10:	00161800 	andseq	r1, r6, r0, lsl #16
    3c14:	9c9c1a00 	vldmials	ip, {s2-s1}
    3c18:	15ad0000 	strne	r0, [sp, #0]!
    3c1c:	a81a0000 	ldmdage	sl, {}	; <UNPREDICTABLE>
    3c20:	5f00009c 	svcpl	0x0000009c
    3c24:	18000015 	stmdane	r0, {r0, r2, r4}
    3c28:	00009cc4 	andeq	r9, r0, r4, asr #25
    3c2c:	00001566 	andeq	r1, r0, r6, ror #10
    3c30:	000010e2 	andeq	r1, r0, r2, ror #1
    3c34:	03530119 	cmpeq	r3, #1073741830	; 0x40000006
    3c38:	19011f0a 	stmdbne	r1, {r1, r3, r8, r9, sl, fp, ip}
    3c3c:	03055201 	movweq	r5, #20993	; 0x5201
    3c40:	0000c1c0 	andeq	ip, r0, r0, asr #3
    3c44:	05510119 	ldrbeq	r0, [r1, #-281]	; 0x119
    3c48:	00bc9c03 	adcseq	r9, ip, r3, lsl #24
    3c4c:	50011900 	andpl	r1, r1, r0, lsl #18
    3c50:	b2080305 	andlt	r0, r8, #335544320	; 0x14000000
    3c54:	02190000 	andseq	r0, r9, #0
    3c58:	0305007d 	movweq	r0, #20605	; 0x507d
    3c5c:	0000b230 	andeq	fp, r0, r0, lsr r2
    3c60:	9cc81a00 	vstmials	r8, {s3-s2}
    3c64:	157c0000 	ldrbne	r0, [ip, #-0]!
    3c68:	dc1b0000 	ldcle	0, cr0, [fp], {-0}
    3c6c:	6600009c 			; <UNDEFINED> instruction: 0x6600009c
    3c70:	19000015 	stmdbne	r0, {r0, r2, r4}
    3c74:	0a035301 	beq	d8880 <__bss_end__+0xcbeb8>
    3c78:	01190120 	tsteq	r9, r0, lsr #2
    3c7c:	c0030552 	andgt	r0, r3, r2, asr r5
    3c80:	190000c1 	stmdbne	r0, {r0, r6, r7}
    3c84:	03055101 	movweq	r5, #20737	; 0x5101
    3c88:	0000bc9c 	muleq	r0, ip, ip
    3c8c:	05500119 	ldrbeq	r0, [r0, #-281]	; 0x119
    3c90:	00c11803 	sbceq	r1, r1, r3, lsl #16
    3c94:	1c000000 	stcne	0, cr0, [r0], {-0}
    3c98:	0000007f 	andeq	r0, r0, pc, ror r0
    3c9c:	00001128 	andeq	r1, r0, r8, lsr #2
    3ca0:	0000761d 	andeq	r7, r0, sp, lsl r6
    3ca4:	07000b00 	streq	r0, [r0, -r0, lsl #22]
    3ca8:	00001118 	andeq	r1, r0, r8, lsl r1
    3cac:	0007ce2e 	andeq	ip, r7, lr, lsr #28
    3cb0:	01240100 	teqeq	r4, r0, lsl #2
    3cb4:	00009d00 	andeq	r9, r0, r0, lsl #26
    3cb8:	00000070 	andeq	r0, r0, r0, ror r0
    3cbc:	11dd9c01 	bicsne	r9, sp, r1, lsl #24
    3cc0:	db170000 	blle	5c3cc8 <__bss_end__+0x5b7300>
    3cc4:	dd000000 	stcle	0, cr0, [r0, #-0]
    3cc8:	05000011 	streq	r0, [r0, #-17]
    3ccc:	00c1cc03 	sbceq	ip, r1, r3, lsl #24
    3cd0:	9d0c1a00 	vstrls	s2, [ip, #-0]
    3cd4:	159f0000 	ldrne	r0, [pc]	; 3cdc <__code_start__-0x4324>
    3cd8:	101a0000 	andsne	r0, sl, r0
    3cdc:	ad00009d 	stcge	0, cr0, [r0, #-628]	; 0xfffffd8c
    3ce0:	1a000015 	bne	3d3c <__code_start__-0x42c4>
    3ce4:	00009d1c 	andeq	r9, r0, ip, lsl sp
    3ce8:	0000155f 	andeq	r1, r0, pc, asr r5
    3cec:	009d3818 	addseq	r3, sp, r8, lsl r8
    3cf0:	00156600 	andseq	r6, r5, r0, lsl #12
    3cf4:	0011a700 	andseq	sl, r1, r0, lsl #14
    3cf8:	53011900 	movwpl	r1, #6400	; 0x1900
    3cfc:	01270a03 	teqeq	r7, r3, lsl #20
    3d00:	05520119 	ldrbeq	r0, [r2, #-281]	; 0x119
    3d04:	00c1cc03 	sbceq	ip, r1, r3, lsl #24
    3d08:	51011900 	tstpl	r1, r0, lsl #18
    3d0c:	bc9c0305 	ldclt	3, cr0, [ip], {5}
    3d10:	01190000 	tsteq	r9, r0
    3d14:	08030550 	stmdaeq	r3, {r4, r6, r8, sl}
    3d18:	190000b2 	stmdbne	r0, {r1, r4, r5, r7}
    3d1c:	05007d02 	streq	r7, [r0, #-3330]	; 0xd02
    3d20:	00c0d003 	sbceq	sp, r0, r3
    3d24:	3c1a0000 	ldccc	0, cr0, [sl], {-0}
    3d28:	7c00009d 	stcvc	0, cr0, [r0], {157}	; 0x9d
    3d2c:	1b000015 	blne	3d88 <__code_start__-0x4278>
    3d30:	00009d50 	andeq	r9, r0, r0, asr sp
    3d34:	00001566 	andeq	r1, r0, r6, ror #10
    3d38:	03530119 	cmpeq	r3, #1073741830	; 0x40000006
    3d3c:	1901280a 	stmdbne	r1, {r1, r3, fp, sp}
    3d40:	03055201 	movweq	r5, #20993	; 0x5201
    3d44:	0000c1cc 	andeq	ip, r0, ip, asr #3
    3d48:	05510119 	ldrbeq	r0, [r1, #-281]	; 0x119
    3d4c:	00bc9c03 	adcseq	r9, ip, r3, lsl #24
    3d50:	50011900 	andpl	r1, r1, r0, lsl #18
    3d54:	c1300305 	teqgt	r0, r5, lsl #6
    3d58:	00000000 	andeq	r0, r0, r0
    3d5c:	00070d07 	andeq	r0, r7, r7, lsl #26
    3d60:	09a62e00 	stmibeq	r6!, {r9, sl, fp, sp}
    3d64:	2b010000 	blcs	43d6c <__bss_end__+0x373a4>
    3d68:	009d7001 	addseq	r7, sp, r1
    3d6c:	00007000 	andeq	r7, r0, r0
    3d70:	859c0100 	ldrhi	r0, [ip, #256]	; 0x100
    3d74:	2f000012 	svccs	0x00000012
    3d78:	00000f51 	andeq	r0, r0, r1, asr pc
    3d7c:	5d012b01 	vstrpl	d2, [r1, #-4]
    3d80:	0d000000 	stceq	0, cr0, [r0, #-0]
    3d84:	17000011 	smladne	r0, r1, r0, r0
    3d88:	000000db 	ldrdeq	r0, [r0], -fp
    3d8c:	00001285 	andeq	r1, r0, r5, lsl #5
    3d90:	c1dc0305 	bicsgt	r0, ip, r5, lsl #6
    3d94:	8c1a0000 	ldchi	0, cr0, [sl], {-0}
    3d98:	5f00009d 	svcpl	0x0000009d
    3d9c:	18000015 	stmdane	r0, {r0, r2, r4}
    3da0:	00009da8 	andeq	r9, r0, r8, lsr #27
    3da4:	00001566 	andeq	r1, r0, r6, ror #10
    3da8:	0000125a 	andeq	r1, r0, sl, asr r2
    3dac:	03530119 	cmpeq	r3, #1073741830	; 0x40000006
    3db0:	19012c0a 	stmdbne	r1, {r1, r3, sl, fp, sp}
    3db4:	03055201 	movweq	r5, #20993	; 0x5201
    3db8:	0000c1dc 	ldrdeq	ip, [r0], -ip	; <UNPREDICTABLE>
    3dbc:	05510119 	ldrbeq	r0, [r1, #-281]	; 0x119
    3dc0:	00bc9c03 	adcseq	r9, ip, r3, lsl #24
    3dc4:	50011900 	andpl	r1, r1, r0, lsl #18
    3dc8:	b2080305 	andlt	r0, r8, #335544320	; 0x14000000
    3dcc:	02190000 	andseq	r0, r9, #0
    3dd0:	0305007d 	movweq	r0, #20605	; 0x507d
    3dd4:	0000c148 	andeq	ip, r0, r8, asr #2
    3dd8:	9dac1a00 	stcls	10, cr1, [ip]
    3ddc:	157c0000 	ldrbne	r0, [ip, #-0]!
    3de0:	c41b0000 	ldrgt	r0, [fp], #-0
    3de4:	d200009d 	andle	r0, r0, #157	; 0x9d
    3de8:	19000015 	stmdbne	r0, {r0, r2, r4}
    3dec:	31015301 	tstcc	r1, r1, lsl #6
    3df0:	07520119 	smmlaeq	r2, r9, r1, r0
    3df4:	235001f3 	cmpcs	r0, #-1073741764	; 0xc000003c
    3df8:	19408080 	stmdbne	r0, {r7, pc}^
    3dfc:	f3035101 	vrhadd.u8	d5, d3, d1
    3e00:	00005001 	andeq	r5, r0, r1
    3e04:	00070d07 	andeq	r0, r7, r7, lsl #26
    3e08:	00152e00 	andseq	r2, r5, r0, lsl #28
    3e0c:	32010000 	andcc	r0, r1, #0
    3e10:	009de001 	addseq	lr, sp, r1
    3e14:	00007400 	andeq	r7, r0, r0, lsl #8
    3e18:	2d9c0100 	ldfcss	f0, [ip]
    3e1c:	2f000013 	svccs	0x00000013
    3e20:	00000f51 	andeq	r0, r0, r1, asr pc
    3e24:	5d013201 	sfmpl	f3, 4, [r1, #-4]
    3e28:	5d000000 	stcpl	0, cr0, [r0, #-0]
    3e2c:	17000011 	smladne	r0, r1, r0, r0
    3e30:	000000db 	ldrdeq	r0, [r0], -fp
    3e34:	0000132d 	andeq	r1, r0, sp, lsr #6
    3e38:	c1ec0305 	mvngt	r0, r5, lsl #6
    3e3c:	fc1a0000 	ldc2	0, cr0, [sl], {-0}
    3e40:	5f00009d 	svcpl	0x0000009d
    3e44:	18000015 	stmdane	r0, {r0, r2, r4}
    3e48:	00009e18 	andeq	r9, r0, r8, lsl lr
    3e4c:	00001566 	andeq	r1, r0, r6, ror #10
    3e50:	00001302 	andeq	r1, r0, r2, lsl #6
    3e54:	03530119 	cmpeq	r3, #1073741830	; 0x40000006
    3e58:	1901330a 	stmdbne	r1, {r1, r3, r8, r9, ip, sp}
    3e5c:	03055201 	movweq	r5, #20993	; 0x5201
    3e60:	0000c1ec 	andeq	ip, r0, ip, ror #3
    3e64:	05510119 	ldrbeq	r0, [r1, #-281]	; 0x119
    3e68:	00bc9c03 	adcseq	r9, ip, r3, lsl #24
    3e6c:	50011900 	andpl	r1, r1, r0, lsl #18
    3e70:	b2080305 	andlt	r0, r8, #335544320	; 0x14000000
    3e74:	02190000 	andseq	r0, r9, #0
    3e78:	0305007d 	movweq	r0, #20605	; 0x507d
    3e7c:	0000c148 	andeq	ip, r0, r8, asr #2
    3e80:	9e1c1a00 	vnmlsls.f32	s2, s24, s0
    3e84:	157c0000 	ldrbne	r0, [ip, #-0]!
    3e88:	341b0000 	ldrcc	r0, [fp], #-0
    3e8c:	d200009e 	andle	r0, r0, #158	; 0x9e
    3e90:	19000015 	stmdbne	r0, {r0, r2, r4}
    3e94:	32015301 	andcc	r5, r1, #67108864	; 0x4000000
    3e98:	07520119 	smmlaeq	r2, r9, r1, r0
    3e9c:	235001f3 	cmpcs	r0, #-1073741764	; 0xc000003c
    3ea0:	19408080 	stmdbne	r0, {r7, pc}^
    3ea4:	f3035101 	vrhadd.u8	d5, d3, d1
    3ea8:	00005001 	andeq	r5, r0, r1
    3eac:	00048507 	andeq	r8, r4, r7, lsl #10
    3eb0:	08612e00 	stmdaeq	r1!, {r9, sl, fp, sp}^
    3eb4:	39010000 	stmdbcc	r1, {}	; <UNPREDICTABLE>
    3eb8:	009e5401 	addseq	r5, lr, r1, lsl #8
    3ebc:	00002400 	andeq	r2, r0, r0, lsl #8
    3ec0:	7c9c0100 	ldfvcs	f0, [ip], {0}
    3ec4:	2f000013 	svccs	0x00000013
    3ec8:	00000f51 	andeq	r0, r0, r1, asr pc
    3ecc:	5d013901 	stcpl	9, cr3, [r1, #-4]
    3ed0:	ad000000 	stcge	0, cr0, [r0, #-0]
    3ed4:	30000011 	andcc	r0, r0, r1, lsl r0
    3ed8:	000000db 	ldrdeq	r0, [r0], -fp
    3edc:	0000138c 	andeq	r1, r0, ip, lsl #7
    3ee0:	009e701b 	addseq	r7, lr, fp, lsl r0
    3ee4:	00161f00 	andseq	r1, r6, r0, lsl #30
    3ee8:	52011900 	andpl	r1, r1, #0, 18
    3eec:	01193101 	tsteq	r9, r1, lsl #2
    3ef0:	01f30751 	mvnseq	r0, r1, asr r7
    3ef4:	44254450 	strtmi	r4, [r5], #-1104	; 0x450
    3ef8:	1c000024 	stcne	0, cr0, [r0], {36}	; 0x24
    3efc:	0000007f 	andeq	r0, r0, pc, ror r0
    3f00:	0000138c 	andeq	r1, r0, ip, lsl #7
    3f04:	0000761d 	andeq	r7, r0, sp, lsl r6
    3f08:	07001200 	streq	r1, [r0, -r0, lsl #4]
    3f0c:	0000137c 	andeq	r1, r0, ip, ror r3
    3f10:	00007531 	andeq	r7, r0, r1, lsr r5
    3f14:	01400100 	mrseq	r0, (UNDEF: 80)
    3f18:	0000002c 	andeq	r0, r0, ip, lsr #32
    3f1c:	00009e78 	andeq	r9, r0, r8, ror lr
    3f20:	00000018 	andeq	r0, r0, r8, lsl r0
    3f24:	13bb9c01 			; <UNDEFINED> instruction: 0x13bb9c01
    3f28:	841b0000 	ldrhi	r0, [fp], #-0
    3f2c:	f300009e 	vqadd.u8	d0, d16, d14
    3f30:	19000004 	stmdbne	r0, {r2}
    3f34:	32015001 	andcc	r5, r1, #1
    3f38:	122e0000 	eorne	r0, lr, #0
    3f3c:	01000008 	tsteq	r0, r8
    3f40:	9e900146 	fmllssm	f0, f0, f6
    3f44:	005c0000 	subseq	r0, ip, r0
    3f48:	9c010000 	stcls	0, cr0, [r1], {-0}
    3f4c:	0000144e 	andeq	r1, r0, lr, asr #8
    3f50:	0000db17 	andeq	sp, r0, r7, lsl fp
    3f54:	00145e00 	andseq	r5, r4, r0, lsl #28
    3f58:	08030500 	stmdaeq	r3, {r8, sl}
    3f5c:	180000c2 	stmdane	r0, {r1, r6, r7}
    3f60:	00009ea4 	andeq	r9, r0, r4, lsr #29
    3f64:	00000613 	andeq	r0, r0, r3, lsl r6
    3f68:	000013f8 	strdeq	r1, [r0], -r8
    3f6c:	01510119 	cmpeq	r1, r9, lsl r1
    3f70:	50011931 	andpl	r1, r1, r1, lsr r9
    3f74:	1a003201 	bne	10780 <__bss_end__+0x3db8>
    3f78:	00009ea8 	andeq	r9, r0, r8, lsr #29
    3f7c:	00001391 	muleq	r0, r1, r3
    3f80:	009eb41a 	addseq	fp, lr, sl, lsl r4
    3f84:	00155f00 	andseq	r5, r5, r0, lsl #30
    3f88:	9ed01800 	cdpls	8, 13, cr1, cr0, cr0, {0}
    3f8c:	15660000 	strbne	r0, [r6, #-0]!
    3f90:	14440000 	strbne	r0, [r4], #-0
    3f94:	01190000 	tsteq	r9, r0
    3f98:	480a0353 	stmdami	sl, {r0, r1, r4, r6, r8, r9}
    3f9c:	52011901 	andpl	r1, r1, #16384	; 0x4000
    3fa0:	c2080305 	andgt	r0, r8, #335544320	; 0x14000000
    3fa4:	01190000 	tsteq	r9, r0
    3fa8:	9c030551 	cfstr32ls	mvfx0, [r3], {81}	; 0x51
    3fac:	190000bc 	stmdbne	r0, {r2, r3, r4, r5, r7}
    3fb0:	03055001 	movweq	r5, #20481	; 0x5001
    3fb4:	0000b208 	andeq	fp, r0, r8, lsl #4
    3fb8:	007d0219 	rsbseq	r0, sp, r9, lsl r2
    3fbc:	b3200305 	teqlt	r0, #335544320	; 0x14000000
    3fc0:	1a000000 	bne	3fc8 <__code_start__-0x4038>
    3fc4:	00009ed4 	ldrdeq	r9, [r0], -r4
    3fc8:	0000157c 	andeq	r1, r0, ip, ror r5
    3fcc:	007f1c00 	rsbseq	r1, pc, r0, lsl #24
    3fd0:	145e0000 	ldrbne	r0, [lr], #-0
    3fd4:	761d0000 	ldrvc	r0, [sp], -r0
    3fd8:	15000000 	strne	r0, [r0, #-0]
    3fdc:	144e0700 	strbne	r0, [lr], #-1792	; 0x700
    3fe0:	c62e0000 	strtgt	r0, [lr], -r0
    3fe4:	01000000 	mrseq	r0, (UNDEF: 0)
    3fe8:	9eec014a 	cdpls	1, 14, cr0, cr12, cr10, {2}
    3fec:	005c0000 	subseq	r0, ip, r0
    3ff0:	9c010000 	stcls	0, cr0, [r1], {-0}
    3ff4:	000014f6 	strdeq	r1, [r0], -r6
    3ff8:	0000db17 	andeq	sp, r0, r7, lsl fp
    3ffc:	00150600 	andseq	r0, r5, r0, lsl #12
    4000:	30030500 	andcc	r0, r3, r0, lsl #10
    4004:	180000c2 	stmdane	r0, {r1, r6, r7}
    4008:	00009f00 	andeq	r9, r0, r0, lsl #30
    400c:	00000613 	andeq	r0, r0, r3, lsl r6
    4010:	000014a0 	andeq	r1, r0, r0, lsr #9
    4014:	01510119 	cmpeq	r1, r9, lsl r1
    4018:	50011930 	andpl	r1, r1, r0, lsr r9
    401c:	1a003201 	bne	10828 <__bss_end__+0x3e60>
    4020:	00009f04 	andeq	r9, r0, r4, lsl #30
    4024:	00001391 	muleq	r0, r1, r3
    4028:	009f101a 	addseq	r1, pc, sl, lsl r0	; <UNPREDICTABLE>
    402c:	00155f00 	andseq	r5, r5, r0, lsl #30
    4030:	9f2c1800 	svcls	0x002c1800
    4034:	15660000 	strbne	r0, [r6, #-0]!
    4038:	14ec0000 	strbtne	r0, [ip], #0
    403c:	01190000 	tsteq	r9, r0
    4040:	4c0a0353 	stcmi	3, cr0, [sl], {83}	; 0x53
    4044:	52011901 	andpl	r1, r1, #16384	; 0x4000
    4048:	c2300305 	eorsgt	r0, r0, #335544320	; 0x14000000
    404c:	01190000 	tsteq	r9, r0
    4050:	9c030551 	cfstr32ls	mvfx0, [r3], {81}	; 0x51
    4054:	190000bc 	stmdbne	r0, {r2, r3, r4, r5, r7}
    4058:	03055001 	movweq	r5, #20481	; 0x5001
    405c:	0000b208 	andeq	fp, r0, r8, lsl #4
    4060:	007d0219 	rsbseq	r0, sp, r9, lsl r2
    4064:	c1600305 	cmngt	r0, r5, lsl #6
    4068:	1a000000 	bne	4070 <__code_start__-0x3f90>
    406c:	00009f30 	andeq	r9, r0, r0, lsr pc
    4070:	0000157c 	andeq	r1, r0, ip, ror r5
    4074:	007f1c00 	rsbseq	r1, pc, r0, lsl #24
    4078:	15060000 	strne	r0, [r6, #-0]
    407c:	761d0000 	ldrvc	r0, [sp], -r0
    4080:	14000000 	strne	r0, [r0], #-0
    4084:	14f60700 	ldrbtne	r0, [r6], #1792	; 0x700
    4088:	a02a0000 	eorge	r0, sl, r0
    408c:	01000009 	tsteq	r0, r9
    4090:	00151c18 	andseq	r1, r5, r8, lsl ip
    4094:	ac030500 	cfstr32ge	mvfx0, [r3], {-0}
    4098:	060000c5 	streq	r0, [r0], -r5, asr #1
    409c:	00016704 	andeq	r6, r1, r4, lsl #14
    40a0:	07e82a00 	strbeq	r2, [r8, r0, lsl #20]!
    40a4:	1d010000 	stcne	0, cr0, [r1, #-0]
    40a8:	000001c0 	andeq	r0, r0, r0, asr #3
    40ac:	c5b00305 	ldrgt	r0, [r0, #773]!	; 0x305
    40b0:	db2a0000 	blle	a840b8 <__bss_end__+0xa776f0>
    40b4:	01000007 	tsteq	r0, r7
    40b8:	00002c51 	andeq	r2, r0, r1, asr ip
    40bc:	bc030500 	cfstr32lt	mvfx0, [r3], {-0}
    40c0:	160000c5 	strne	r0, [r0], -r5, asr #1
    40c4:	01007470 	tsteq	r0, r0, ror r4
    40c8:	00151ced 	andseq	r1, r5, sp, ror #25
    40cc:	c0030500 	andgt	r0, r3, r0, lsl #10
    40d0:	320000c5 	andcc	r0, r0, #197	; 0xc5
    40d4:	000008f8 	strdeq	r0, [r0], -r8
    40d8:	0025c203 	eoreq	ip, r5, r3, lsl #4
    40dc:	3c330000 	ldccc	0, cr0, [r3], #-0
    40e0:	07000002 	streq	r0, [r0, -r2]
    40e4:	0a92341e 	beq	fe491164 <__bss_end__+0xfe48479c>
    40e8:	29070000 	stmdbcs	r7, {}	; <UNPREDICTABLE>
    40ec:	00000025 	andeq	r0, r0, r5, lsr #32
    40f0:	0000157c 	andeq	r1, r0, ip, ror r5
    40f4:	00008635 	andeq	r8, r0, r5, lsr r6
    40f8:	33003600 	movwcc	r3, #1536	; 0x600
    40fc:	00000068 	andeq	r0, r0, r8, rrx
    4100:	4a376507 	bmi	ddd524 <__bss_end__+0xdd0b5c>
    4104:	08000005 	stmdaeq	r0, {r0, r2}
    4108:	00005d6e 	andeq	r5, r0, lr, ror #26
    410c:	032d3800 	teqeq	sp, #0, 16
    4110:	48080000 	stmdami	r8, {}	; <UNPREDICTABLE>
    4114:	0000159f 	muleq	r0, pc, r5	; <UNPREDICTABLE>
    4118:	00002c35 	andeq	r2, r0, r5, lsr ip
    411c:	23330000 	teqcs	r3, #0
    4120:	08000004 	stmdaeq	r0, {r2}
    4124:	04a9333b 	strteq	r3, [r9], #827	; 0x33b
    4128:	0d080000 	stceq	0, cr0, [r8, #-0]
    412c:	00015337 	andeq	r5, r1, r7, lsr r3
    4130:	256c0800 	strbcs	r0, [ip, #-2048]!	; 0x800
    4134:	34000000 	strcc	r0, [r0], #-0
    4138:	000004b2 			; <UNDEFINED> instruction: 0x000004b2
    413c:	151c2108 	ldrne	r2, [ip, #-264]	; 0x108
    4140:	15d20000 	ldrbne	r0, [r2]
    4144:	7d350000 	ldcvc	0, cr0, [r5, #-0]
    4148:	35000000 	strcc	r0, [r0, #-0]
    414c:	0000002c 	andeq	r0, r0, ip, lsr #32
    4150:	04133400 	ldreq	r3, [r3], #-1024	; 0x400
    4154:	25080000 	strcs	r0, [r8, #-0]
    4158:	0000151c 	andeq	r1, r0, ip, lsl r5
    415c:	000015f6 	strdeq	r1, [r0], -r6
    4160:	00151c35 	andseq	r1, r5, r5, lsr ip
    4164:	005d3500 	subseq	r3, sp, r0, lsl #10
    4168:	5d350000 	ldcpl	0, cr0, [r5, #-0]
    416c:	35000000 	strcc	r0, [r0, #-0]
    4170:	0000005d 	andeq	r0, r0, sp, asr r0
    4174:	05743300 	ldrbeq	r3, [r4, #-768]!	; 0x300
    4178:	0f080000 	svceq	0x00080000
    417c:	0002e438 	andeq	lr, r2, r8, lsr r4
    4180:	18450800 	stmdane	r5, {fp}^
    4184:	35000016 	strcc	r0, [r0, #-22]
    4188:	0000002c 	andeq	r0, r0, ip, lsr #32
    418c:	00002c35 	andeq	r2, r0, r5, lsr ip
    4190:	151c3500 	ldrne	r3, [ip, #-1280]	; 0x500
    4194:	33000000 	movwcc	r0, #0
    4198:	00000514 	andeq	r0, r0, r4, lsl r5
    419c:	06393a08 	ldrteq	r3, [r9], -r8, lsl #20
    41a0:	08000006 	stmdaeq	r0, {r1, r2}
    41a4:	151c3533 	ldrne	r3, [ip, #-1331]	; 0x533
    41a8:	2c350000 	ldccs	0, cr0, [r5], #-0
    41ac:	35000000 	strcc	r0, [r0, #-0]
    41b0:	0000002c 	andeq	r0, r0, ip, lsr #32
    41b4:	01120000 	tsteq	r2, r0
    41b8:	00040000 	andeq	r0, r4, r0
    41bc:	000008ea 	andeq	r0, r0, sl, ror #17
    41c0:	09bf0104 	ldmibeq	pc!, {r2, r8}	; <UNPREDICTABLE>
    41c4:	b3010000 	movwlt	r0, #4096	; 0x1000
    41c8:	1e000009 	cdpne	0, 0, cr0, cr0, cr9, {0}
    41cc:	dc00000a 	stcle	0, cr0, [r0], {10}
    41d0:	f00000a2 			; <UNDEFINED> instruction: 0xf00000a2
    41d4:	ef000000 	svc	0x00000000
    41d8:	02000008 	andeq	r0, r0, #8
    41dc:	6e690504 	cdpvs	5, 6, cr0, cr9, cr4, {0}
    41e0:	04030074 	streq	r0, [r3], #-116	; 0x74
    41e4:	0001e707 	andeq	lr, r1, r7, lsl #14
    41e8:	06010300 	streq	r0, [r1], -r0, lsl #6
    41ec:	0000005c 	andeq	r0, r0, ip, asr r0
    41f0:	29050203 	stmdbcs	r5, {r0, r1, r9}
    41f4:	03000002 	movweq	r0, #2
    41f8:	02020504 	andeq	r0, r2, #4, 10	; 0x1000000
    41fc:	08030000 	stmdaeq	r3, {}	; <UNPREDICTABLE>
    4200:	0001fd05 	andeq	pc, r1, r5, lsl #26
    4204:	0a160400 	beq	58520c <__bss_end__+0x578844>
    4208:	2e020000 	cdpcs	0, 0, cr0, cr2, cr0, {0}
    420c:	0000005a 	andeq	r0, r0, sl, asr r0
    4210:	5a080103 	bpl	204624 <__bss_end__+0x1f7c5c>
    4214:	03000000 	movweq	r0, #0
    4218:	009f0702 	addseq	r0, pc, r2, lsl #14
    421c:	33040000 	movwcc	r0, #16384	; 0x4000
    4220:	02000002 	andeq	r0, r0, #2
    4224:	00007334 	andeq	r7, r0, r4, lsr r3
    4228:	07040300 	streq	r0, [r4, -r0, lsl #6]
    422c:	000001e2 	andeq	r0, r0, r2, ror #3
    4230:	dd070803 	stcle	8, cr0, [r7, #-12]
    4234:	03000001 	movweq	r0, #1
    4238:	01f40704 	mvnseq	r0, r4, lsl #14
    423c:	01030000 	mrseq	r0, (UNDEF: 3)
    4240:	00006308 	andeq	r6, r0, r8, lsl #6
    4244:	95040500 	strls	r0, [r4, #-1280]	; 0x500
    4248:	06000000 	streq	r0, [r0], -r0
    424c:	00000088 	andeq	r0, r0, r8, lsl #1
    4250:	00064607 	andeq	r4, r6, r7, lsl #12
    4254:	680f0100 	stmdavs	pc, {r8}	; <UNPREDICTABLE>
    4258:	dc000000 	stcle	0, cr0, [r0], {-0}
    425c:	f00000a2 			; <UNDEFINED> instruction: 0xf00000a2
    4260:	01000000 	mrseq	r0, (UNDEF: 0)
    4264:	00010e9c 	muleq	r1, ip, lr
    4268:	13690800 	cmnne	r9, #0, 16
    426c:	0f010000 	svceq	0x00010000
    4270:	0000010e 	andeq	r0, r0, lr, lsl #2
    4274:	000011ec 	andeq	r1, r0, ip, ror #3
    4278:	6e656c09 	cdpvs	12, 6, cr6, cr5, cr9, {0}
    427c:	250f0100 	strcs	r0, [pc, #-256]	; 4184 <__code_start__-0x3e7c>
    4280:	26000000 	strcs	r0, [r0], -r0
    4284:	0a000012 	beq	42d4 <__code_start__-0x3d2c>
    4288:	0000136a 	andeq	r1, r0, sl, ror #6
    428c:	008f1001 	addeq	r1, pc, r1
    4290:	12650000 	rsbne	r0, r5, #0
    4294:	4b0a0000 	blmi	28429c <__bss_end__+0x2778d4>
    4298:	01000006 	tsteq	r0, r6
    429c:	00006811 	andeq	r6, r0, r1, lsl r8
    42a0:	0012a400 	andseq	sl, r2, r0, lsl #8
    42a4:	6d740b00 	vldmdbvs	r4!, {d16-d15}
    42a8:	11010070 	tstne	r1, r0, ror r0
    42ac:	00000068 	andeq	r0, r0, r8, rrx
    42b0:	000012ee 	andeq	r1, r0, lr, ror #5
    42b4:	6d65720b 	sfmvs	f7, 2, [r5, #-44]!	; 0xffffffd4
    42b8:	25120100 	ldrcs	r0, [r2, #-256]	; 0x100
    42bc:	39000000 	stmdbcc	r0, {}	; <UNPREDICTABLE>
    42c0:	00000013 	andeq	r0, r0, r3, lsl r0
    42c4:	01140405 	tsteq	r4, r5, lsl #8
    42c8:	000c0000 	andeq	r0, ip, r0
    42cc:	000000db 	ldrdeq	r0, [r0], -fp
    42d0:	098e0004 	stmibeq	lr, {r2}
    42d4:	01040000 	mrseq	r0, (UNDEF: 4)
    42d8:	000009bf 			; <UNDEFINED> instruction: 0x000009bf
    42dc:	000a6401 	andeq	r6, sl, r1, lsl #8
    42e0:	000a1e00 	andeq	r1, sl, r0, lsl #28
    42e4:	00a3cc00 	adceq	ip, r3, r0, lsl #24
    42e8:	00002000 	andeq	r2, r0, r0
    42ec:	0009d100 	andeq	sp, r9, r0, lsl #2
    42f0:	06010200 	streq	r0, [r1], -r0, lsl #4
    42f4:	0000005c 	andeq	r0, r0, ip, asr r0
    42f8:	5a080102 	bpl	204708 <__bss_end__+0x1f7d40>
    42fc:	02000000 	andeq	r0, r0, #0
    4300:	02290502 	eoreq	r0, r9, #8388608	; 0x800000
    4304:	02020000 	andeq	r0, r2, #0
    4308:	00009f07 	andeq	r9, r0, r7, lsl #30
    430c:	05040300 	streq	r0, [r4, #-768]	; 0x300
    4310:	00746e69 	rsbseq	r6, r4, r9, ror #28
    4314:	e7070402 	str	r0, [r7, -r2, lsl #8]
    4318:	02000001 	andeq	r0, r0, #1
    431c:	01fd0508 	mvnseq	r0, r8, lsl #10
    4320:	08020000 	stmdaeq	r2, {}	; <UNPREDICTABLE>
    4324:	0001dd07 	andeq	sp, r1, r7, lsl #26
    4328:	05040200 	streq	r0, [r4, #-512]	; 0x200
    432c:	00000202 	andeq	r0, r0, r2, lsl #4
    4330:	f4070402 	vst3.8	{d0-d2}, [r7], r2
    4334:	04000001 	streq	r0, [r0], #-1
    4338:	07040204 	streq	r0, [r4, -r4, lsl #4]
    433c:	000001e2 	andeq	r0, r0, r2, ror #3
    4340:	007a0405 	rsbseq	r0, sl, r5, lsl #8
    4344:	01020000 	mrseq	r0, (UNDEF: 2)
    4348:	00006308 	andeq	r6, r0, r8, lsl #6
    434c:	02820600 	addeq	r0, r2, #0, 12
    4350:	d4020000 	strle	r0, [r2], #-0
    4354:	00000048 	andeq	r0, r0, r8, asr #32
    4358:	00053907 	andeq	r3, r5, r7, lsl #18
    435c:	6b1b0300 	blvs	6c4f64 <__bss_end__+0x6b859c>
    4360:	cc000000 	stcgt	0, cr0, [r0], {-0}
    4364:	200000a3 	andcs	r0, r0, r3, lsr #1
    4368:	01000000 	mrseq	r0, (UNDEF: 0)
    436c:	705f089c 			; <UNDEFINED> instruction: 0x705f089c
    4370:	6b030100 	blvs	c4778 <__bss_end__+0xb7db0>
    4374:	01000000 	mrseq	r0, (UNDEF: 0)
    4378:	00630850 	rsbeq	r0, r3, r0, asr r8
    437c:	00410301 	subeq	r0, r1, r1, lsl #6
    4380:	51010000 	mrspl	r0, (UNDEF: 1)
    4384:	01006e09 	tsteq	r0, r9, lsl #28
    4388:	00008103 	andeq	r8, r0, r3, lsl #2
    438c:	00134c00 	andseq	r4, r3, r0, lsl #24
    4390:	00700a00 	rsbseq	r0, r0, r0, lsl #20
    4394:	00740401 	rsbseq	r0, r4, r1, lsl #8
    4398:	136d0000 	cmnne	sp, #0
    439c:	650b0000 	strvs	r0, [fp, #-0]
    43a0:	74040100 	strvc	r0, [r4], #-256	; 0x100
    43a4:	01000000 	mrseq	r0, (UNDEF: 0)
    43a8:	91000052 	qaddls	r0, r2, r0
    43ac:	04000001 	streq	r0, [r0], #-1
    43b0:	000a2b00 	andeq	r2, sl, r0, lsl #22
    43b4:	bf010400 	svclt	0x00010400
    43b8:	01000009 	tsteq	r0, r9
    43bc:	00000a81 	andeq	r0, r0, r1, lsl #21
    43c0:	00000a1e 	andeq	r0, r0, lr, lsl sl
    43c4:	0000a3ec 	andeq	sl, r0, ip, ror #7
    43c8:	00000058 	andeq	r0, r0, r8, asr r0
    43cc:	00000ac1 	andeq	r0, r0, r1, asr #21
    43d0:	000a7202 	andeq	r7, sl, r2, lsl #4
    43d4:	30280200 	eorcc	r0, r8, r0, lsl #4
    43d8:	03000000 	movweq	r0, #0
    43dc:	00000a99 	muleq	r0, r9, sl
    43e0:	47000304 	strmi	r0, [r0, -r4, lsl #6]
    43e4:	04000000 	streq	r0, [r0], #-0
    43e8:	00000aa3 	andeq	r0, r0, r3, lsr #21
    43ec:	00000047 	andeq	r0, r0, r7, asr #32
    43f0:	04050000 	streq	r0, [r5], #-0
    43f4:	000a9b02 	andeq	r9, sl, r2, lsl #22
    43f8:	25620200 	strbcs	r0, [r2, #-512]!	; 0x200
    43fc:	06000000 	streq	r0, [r0], -r0
    4400:	6e690504 	cdpvs	5, 6, cr0, cr9, cr4, {0}
    4404:	04070074 	streq	r0, [r7], #-116	; 0x74
    4408:	0001e707 	andeq	lr, r1, r7, lsl #14
    440c:	06010700 	streq	r0, [r1], -r0, lsl #14
    4410:	0000005c 	andeq	r0, r0, ip, asr r0
    4414:	29050207 	stmdbcs	r5, {r0, r1, r2, r9}
    4418:	07000002 	streq	r0, [r0, -r2]
    441c:	02020504 	andeq	r0, r2, #4, 10	; 0x1000000
    4420:	08070000 	stmdaeq	r7, {}	; <UNPREDICTABLE>
    4424:	0001fd05 	andeq	pc, r1, r5, lsl #26
    4428:	08010700 	stmdaeq	r1, {r8, r9, sl}
    442c:	0000005a 	andeq	r0, r0, sl, asr r0
    4430:	9f070207 	svcls	0x00070207
    4434:	07000000 	streq	r0, [r0, -r0]
    4438:	01e20704 	mvneq	r0, r4, lsl #14
    443c:	08070000 	stmdaeq	r7, {}	; <UNPREDICTABLE>
    4440:	0001dd07 	andeq	sp, r1, r7, lsl #26
    4444:	07040700 	streq	r0, [r4, -r0, lsl #14]
    4448:	000001f4 	strdeq	r0, [r0], -r4
    444c:	00a70408 	adceq	r0, r7, r8, lsl #8
    4450:	01070000 	mrseq	r0, (UNDEF: 7)
    4454:	00006308 	andeq	r6, r0, r8, lsl #6
    4458:	b4040800 	strlt	r0, [r4], #-2048	; 0x800
    445c:	09000000 	stmdbeq	r0, {}	; <UNPREDICTABLE>
    4460:	000000a7 	andeq	r0, r0, r7, lsr #1
    4464:	000a920a 	andeq	r9, sl, sl, lsl #4
    4468:	54060100 	strpl	r0, [r6], #-256	; 0x100
    446c:	ec000000 	stc	0, cr0, [r0], {-0}
    4470:	580000a3 	stmdapl	r0, {r0, r1, r5, r7}
    4474:	01000000 	mrseq	r0, (UNDEF: 0)
    4478:	0001439c 	muleq	r1, ip, r3
    447c:	6d660b00 	vstmdbvs	r6!, {d16-d15}
    4480:	06010074 			; <UNDEFINED> instruction: 0x06010074
    4484:	000000ae 	andeq	r0, r0, lr, lsr #1
    4488:	0c709102 	ldfeqp	f1, [r0], #-8
    448c:	6675620d 	ldrbtvs	r6, [r5], -sp, lsl #4
    4490:	43080100 	movwmi	r0, #33024	; 0x8100
    4494:	05000001 	streq	r0, [r0, #-1]
    4498:	00c5c403 	sbceq	ip, r5, r3, lsl #8
    449c:	0f730e00 	svceq	0x00730e00
    44a0:	09010000 	stmdbeq	r1, {}	; <UNPREDICTABLE>
    44a4:	00000049 	andeq	r0, r0, r9, asr #32
    44a8:	0f5c9102 	svceq	0x005c9102
    44ac:	01007a73 	tsteq	r0, r3, ror sl
    44b0:	0000540c 	andeq	r5, r0, ip, lsl #8
    44b4:	00139800 	andseq	r9, r3, r0, lsl #16
    44b8:	a4141000 	ldrge	r1, [r4], #-0
    44bc:	01740000 	cmneq	r4, r0
    44c0:	01360000 	teqeq	r6, r0
    44c4:	01110000 	tsteq	r1, r0
    44c8:	4c910253 	lfmmi	f0, 4, [r1], {83}	; 0x53
    44cc:	03520111 	cmpeq	r2, #1073741828	; 0x40000004
    44d0:	11064891 			; <UNDEFINED> instruction: 0x11064891
    44d4:	0a035101 	beq	d88e0 <__bss_end__+0xcbf18>
    44d8:	01110400 	tsteq	r1, r0, lsl #8
    44dc:	00740250 	rsbseq	r0, r4, r0, asr r2
    44e0:	a4281200 	strtge	r1, [r8], #-512	; 0x200
    44e4:	01110000 	tsteq	r1, r0
    44e8:	00740250 	rsbseq	r0, r4, r0, asr r2
    44ec:	a7130000 	ldrge	r0, [r3, -r0]
    44f0:	54000000 	strpl	r0, [r0], #-0
    44f4:	14000001 	strne	r0, [r0], #-1
    44f8:	0000009a 	muleq	r0, sl, r0
    44fc:	150003ff 	strne	r0, [r0, #-1023]	; 0x3ff
    4500:	00000054 	andeq	r0, r0, r4, asr r0
    4504:	00000163 	andeq	r0, r0, r3, ror #2
    4508:	0000ae16 	andeq	sl, r0, r6, lsl lr
    450c:	00170000 	andseq	r0, r7, r0
    4510:	0400000b 	streq	r0, [r0], #-11
    4514:	00016e22 	andeq	r6, r1, r2, lsr #28
    4518:	54040800 	strpl	r0, [r4], #-2048	; 0x800
    451c:	18000001 	stmdane	r0, {r0}
    4520:	00000a8f 	andeq	r0, r0, pc, lsl #21
    4524:	00540205 	subseq	r0, r4, r5, lsl #4
    4528:	a1160000 	tstge	r6, r0
    452c:	16000000 	strne	r0, [r0], -r0
    4530:	00000054 	andeq	r0, r0, r4, asr r0
    4534:	0000ae16 	andeq	sl, r0, r6, lsl lr
    4538:	00491600 	subeq	r1, r9, r0, lsl #12
    453c:	00000000 	andeq	r0, r0, r0
    4540:	00000113 	andeq	r0, r0, r3, lsl r1
    4544:	0b5c0004 	bleq	170455c <__bss_end__+0x16f7b94>
    4548:	01040000 	mrseq	r0, (UNDEF: 4)
    454c:	000009bf 			; <UNDEFINED> instruction: 0x000009bf
    4550:	000acf01 	andeq	ip, sl, r1, lsl #30
    4554:	000a1e00 	andeq	r1, sl, r0, lsl #28
    4558:	00a44400 	adceq	r4, r4, r0, lsl #8
    455c:	00003c00 	andeq	r3, r0, r0, lsl #24
    4560:	000bd100 	andeq	sp, fp, r0, lsl #2
    4564:	05040200 	streq	r0, [r4, #-512]	; 0x200
    4568:	00746e69 	rsbseq	r6, r4, r9, ror #28
    456c:	e7070403 	str	r0, [r7, -r3, lsl #8]
    4570:	03000001 	movweq	r0, #1
    4574:	005c0601 	subseq	r0, ip, r1, lsl #12
    4578:	02030000 	andeq	r0, r3, #0
    457c:	00022905 	andeq	r2, r2, r5, lsl #18
    4580:	05040300 	streq	r0, [r4, #-768]	; 0x300
    4584:	00000202 	andeq	r0, r0, r2, lsl #4
    4588:	fd050803 	stc2	8, cr0, [r5, #-12]
    458c:	03000001 	movweq	r0, #1
    4590:	005a0801 	subseq	r0, sl, r1, lsl #16
    4594:	02030000 	andeq	r0, r3, #0
    4598:	00009f07 	andeq	r9, r0, r7, lsl #30
    459c:	07040300 	streq	r0, [r4, -r0, lsl #6]
    45a0:	000001e2 	andeq	r0, r0, r2, ror #3
    45a4:	dd070803 	stcle	8, cr0, [r7, #-12]
    45a8:	03000001 	movweq	r0, #1
    45ac:	01f40704 	mvnseq	r0, r4, lsl #14
    45b0:	01030000 	mrseq	r0, (UNDEF: 3)
    45b4:	00006308 	andeq	r6, r0, r8, lsl #6
    45b8:	0ab20400 	beq	fec855c0 <__bss_end__+0xfec78bf8>
    45bc:	03010000 	movweq	r0, #4096	; 0x1000
    45c0:	00000025 	andeq	r0, r0, r5, lsr #32
    45c4:	0000a444 	andeq	sl, r0, r4, asr #8
    45c8:	00000014 	andeq	r0, r0, r4, lsl r0
    45cc:	00b09c01 	adcseq	r9, r0, r1, lsl #24
    45d0:	63050000 	movwvs	r0, #20480	; 0x5000
    45d4:	25030100 	strcs	r0, [r3, #-256]	; 0x100
    45d8:	c1000000 	mrsgt	r0, (UNDEF: 0)
    45dc:	06000013 			; <UNDEFINED> instruction: 0x06000013
    45e0:	0000a450 	andeq	sl, r0, r0, asr r4
    45e4:	00000109 	andeq	r0, r0, r9, lsl #2
    45e8:	02500107 	subseq	r0, r0, #-1073741823	; 0xc0000001
    45ec:	00000074 	andeq	r0, r0, r4, ror r0
    45f0:	00023c08 	andeq	r3, r2, r8, lsl #24
    45f4:	58080100 	stmdapl	r8, {r8}
    45f8:	180000a4 	stmdane	r0, {r2, r5, r7}
    45fc:	01000000 	mrseq	r0, (UNDEF: 0)
    4600:	0ade099c 	beq	ff786c78 <__bss_end__+0xff77a2b0>
    4604:	0b010000 	bleq	4460c <__bss_end__+0x37c44>
    4608:	0000a470 	andeq	sl, r0, r0, ror r4
    460c:	00000010 	andeq	r0, r0, r0, lsl r0
    4610:	00e39c01 	rsceq	r9, r3, r1, lsl #24
    4614:	660a0000 	strvs	r0, [sl], -r0
    4618:	0b010070 	bleq	447e0 <__bss_end__+0x37e18>
    461c:	000000f2 	strdeq	r0, [r0], -r2
    4620:	0b005001 	bleq	1862c <__bss_end__+0xbc64>
    4624:	00000025 	andeq	r0, r0, r5, lsr #32
    4628:	000000f2 	strdeq	r0, [r0], -r2
    462c:	0000250c 	andeq	r2, r0, ip, lsl #10
    4630:	040d0000 	streq	r0, [sp], #-0
    4634:	000000e3 	andeq	r0, r0, r3, ror #1
    4638:	000ac30e 	andeq	ip, sl, lr, lsl #6
    463c:	f2060100 	vrhadd.s8	d0, d6, d0
    4640:	05000000 	streq	r0, [r0, #-0]
    4644:	00b1f803 	adcseq	pc, r1, r3, lsl #16
    4648:	0aa80f00 	beq	fea08250 <__bss_end__+0xfe9fb888>
    464c:	3c020000 	stccc	0, cr0, [r2], {-0}
    4650:	00002c0c 	andeq	r2, r0, ip, lsl #24
    4654:	ee000000 	cdp	0, 0, cr0, cr0, cr0, {0}
    4658:	04000000 	streq	r0, [r0], #-0
    465c:	000c4400 	andeq	r4, ip, r0, lsl #8
    4660:	bf010400 	svclt	0x00010400
    4664:	01000009 	tsteq	r0, r9
    4668:	00000aeb 	andeq	r0, r0, fp, ror #21
    466c:	00000a1e 	andeq	r0, r0, lr, lsl sl
    4670:	0000a480 	andeq	sl, r0, r0, lsl #9
    4674:	00000034 	andeq	r0, r0, r4, lsr r0
    4678:	00000c69 	andeq	r0, r0, r9, ror #24
    467c:	69050402 	stmdbvs	r5, {r1, sl}
    4680:	0300746e 	movweq	r7, #1134	; 0x46e
    4684:	01e70704 	mvneq	r0, r4, lsl #14
    4688:	01030000 	mrseq	r0, (UNDEF: 3)
    468c:	00005c06 	andeq	r5, r0, r6, lsl #24
    4690:	05020300 	streq	r0, [r2, #-768]	; 0x300
    4694:	00000229 	andeq	r0, r0, r9, lsr #4
    4698:	02050403 	andeq	r0, r5, #50331648	; 0x3000000
    469c:	03000002 	movweq	r0, #2
    46a0:	01fd0508 	mvnseq	r0, r8, lsl #10
    46a4:	01030000 	mrseq	r0, (UNDEF: 3)
    46a8:	00005a08 	andeq	r5, r0, r8, lsl #20
    46ac:	07020300 	streq	r0, [r2, -r0, lsl #6]
    46b0:	0000009f 	muleq	r0, pc, r0	; <UNPREDICTABLE>
    46b4:	e2070403 	and	r0, r7, #50331648	; 0x3000000
    46b8:	03000001 	movweq	r0, #1
    46bc:	01dd0708 	bicseq	r0, sp, r8, lsl #14
    46c0:	04030000 	streq	r0, [r3], #-0
    46c4:	0001f407 	andeq	pc, r1, r7, lsl #8
    46c8:	08010300 	stmdaeq	r1, {r8, r9}
    46cc:	00000063 	andeq	r0, r0, r3, rrx
    46d0:	007f0404 	rsbseq	r0, pc, r4, lsl #8
    46d4:	72050000 	andvc	r0, r5, #0
    46d8:	06000000 	streq	r0, [r0], -r0
    46dc:	00000af7 	strdeq	r0, [r0], -r7
    46e0:	00250401 	eoreq	r0, r5, r1, lsl #8
    46e4:	a4800000 	strge	r0, [r0], #0
    46e8:	00340000 	eorseq	r0, r4, r0
    46ec:	9c010000 	stcls	0, cr0, [r1], {-0}
    46f0:	000000ab 	andeq	r0, r0, fp, lsr #1
    46f4:	01007007 	tsteq	r0, r7
    46f8:	00007904 	andeq	r7, r0, r4, lsl #18
    46fc:	0013df00 	andseq	sp, r3, r0, lsl #30
    4700:	25080000 	strcs	r0, [r8, #-0]
    4704:	ba000000 	blt	470c <__code_start__-0x38f4>
    4708:	09000000 	stmdbeq	r0, {}	; <UNPREDICTABLE>
    470c:	00000025 	andeq	r0, r0, r5, lsr #32
    4710:	0ac30a00 	beq	ff0c6f18 <__bss_end__+0xff0ba550>
    4714:	1d020000 	stcne	0, cr0, [r2, #-0]
    4718:	000000c5 	andeq	r0, r0, r5, asr #1
    471c:	00ab0404 	adceq	r0, fp, r4, lsl #8
    4720:	25080000 	strcs	r0, [r8, #-0]
    4724:	da000000 	ble	472c <__code_start__-0x38d4>
    4728:	09000000 	stmdbeq	r0, {}	; <UNPREDICTABLE>
    472c:	00000079 	andeq	r0, r0, r9, ror r0
    4730:	0b000b00 	bleq	7338 <__code_start__-0xcc8>
    4734:	0c010000 	stceq	0, cr0, [r1], {-0}
    4738:	000000eb 	andeq	r0, r0, fp, ror #1
    473c:	b1fc0305 	mvnslt	r0, r5, lsl #6
    4740:	04040000 	streq	r0, [r4], #-0
    4744:	000000cb 	andeq	r0, r0, fp, asr #1
    4748:	0006e500 	andeq	lr, r6, r0, lsl #10
    474c:	dd000400 	cfstrsle	mvf0, [r0, #-0]
    4750:	0400000c 	streq	r0, [r0], #-12
    4754:	0009bf01 	andeq	fp, r9, r1, lsl #30
    4758:	0b360100 	bleq	d84b60 <__bss_end__+0xd78198>
    475c:	0a1e0000 	beq	784764 <__bss_end__+0x777d9c>
    4760:	a4b40000 	ldrtge	r0, [r4], #0
    4764:	05780000 	ldrbeq	r0, [r8, #-0]!
    4768:	0d0d0000 	stceq	0, cr0, [sp, #-0]
    476c:	04020000 	streq	r0, [r2], #-0
    4770:	746e6905 	strbtvc	r6, [lr], #-2309	; 0x905
    4774:	07040300 	streq	r0, [r4, -r0, lsl #6]
    4778:	000001e7 	andeq	r0, r0, r7, ror #3
    477c:	5c060103 	stfpls	f0, [r6], {3}
    4780:	03000000 	movweq	r0, #0
    4784:	02290502 	eoreq	r0, r9, #8388608	; 0x800000
    4788:	04030000 	streq	r0, [r3], #-0
    478c:	00020205 	andeq	r0, r2, r5, lsl #4
    4790:	05080300 	streq	r0, [r8, #-768]	; 0x300
    4794:	000001fd 	strdeq	r0, [r0], -sp
    4798:	5a080103 	bpl	204bac <__bss_end__+0x1f81e4>
    479c:	03000000 	movweq	r0, #0
    47a0:	009f0702 	addseq	r0, pc, r2, lsl #14
    47a4:	04030000 	streq	r0, [r3], #-0
    47a8:	0001e207 	andeq	lr, r1, r7, lsl #4
    47ac:	07080300 	streq	r0, [r8, -r0, lsl #6]
    47b0:	000001dd 	ldrdeq	r0, [r0], -sp
    47b4:	f4070403 	vst3.8	{d0-d2}, [r7], r3
    47b8:	04000001 	streq	r0, [r0], #-1
    47bc:	7a040504 	bvc	105bd4 <__bss_end__+0xf920c>
    47c0:	03000000 	movweq	r0, #0
    47c4:	00630801 	rsbeq	r0, r3, r1, lsl #16
    47c8:	04050000 	streq	r0, [r5], #-0
    47cc:	00000087 	andeq	r0, r0, r7, lsl #1
    47d0:	00007a06 	andeq	r7, r0, r6, lsl #20
    47d4:	0a720700 	beq	1c863dc <__bss_end__+0x1c79a14>
    47d8:	28020000 	stmdacs	r2, {}	; <UNPREDICTABLE>
    47dc:	00000097 	muleq	r0, r7, r0
    47e0:	000a9908 	andeq	r9, sl, r8, lsl #18
    47e4:	00040400 	andeq	r0, r4, r0, lsl #8
    47e8:	000000ae 	andeq	r0, r0, lr, lsr #1
    47ec:	000aa309 	andeq	sl, sl, r9, lsl #6
    47f0:	00007200 	andeq	r7, r0, r0, lsl #4
    47f4:	07000000 	streq	r0, [r0, -r0]
    47f8:	00000a9b 	muleq	r0, fp, sl
    47fc:	008c6202 	addeq	r6, ip, r2, lsl #4
    4800:	1d0a0000 	stcne	0, cr0, [sl, #-0]
    4804:	0100000b 	tsteq	r0, fp
    4808:	00002527 	andeq	r2, r0, r7, lsr #10
    480c:	00a4b400 	adceq	fp, r4, r0, lsl #8
    4810:	00001400 	andeq	r1, r0, r0, lsl #8
    4814:	e09c0100 	adds	r0, ip, r0, lsl #2
    4818:	0b000000 	bleq	4820 <__code_start__-0x37e0>
    481c:	27010063 	strcs	r0, [r1, -r3, rrx]
    4820:	00000025 	andeq	r0, r0, r5, lsr #32
    4824:	000013fd 	strdeq	r1, [r0], -sp
    4828:	61700c00 	cmnvs	r0, r0, lsl #24
    482c:	2e010064 	cdpcs	0, 0, cr0, cr1, cr4, {3}
    4830:	00000074 	andeq	r0, r0, r4, ror r0
    4834:	0000a4c8 	andeq	sl, r0, r8, asr #9
    4838:	0000002c 	andeq	r0, r0, ip, lsr #32
    483c:	01309c01 	teqeq	r0, r1, lsl #24
    4840:	700b0000 	andvc	r0, fp, r0
    4844:	742e0100 	strtvc	r0, [lr], #-256	; 0x100
    4848:	2b000000 	blcs	4850 <__code_start__-0x37b0>
    484c:	0d000014 	stceq	0, cr0, [r0, #-80]	; 0xffffffb0
    4850:	00000f51 	andeq	r0, r0, r1, asr pc
    4854:	00742e01 	rsbseq	r2, r4, r1, lsl #28
    4858:	14560000 	ldrbne	r0, [r6], #-0
    485c:	560e0000 	strpl	r0, [lr], -r0
    4860:	0100000b 	tsteq	r0, fp
    4864:	0000252e 	andeq	r2, r0, lr, lsr #10
    4868:	0f520100 	svceq	0x00520100
    486c:	006e656c 	rsbeq	r6, lr, ip, ror #10
    4870:	00252f01 	eoreq	r2, r5, r1, lsl #30
    4874:	51010000 	mrspl	r0, (UNDEF: 1)
    4878:	0b150a00 	bleq	547080 <__bss_end__+0x53a6b8>
    487c:	37010000 	strcc	r0, [r1, -r0]
    4880:	00000074 	andeq	r0, r0, r4, ror r0
    4884:	0000a4f4 	strdeq	sl, [r0], -r4
    4888:	00000040 	andeq	r0, r0, r0, asr #32
    488c:	019c9c01 	orrseq	r9, ip, r1, lsl #24
    4890:	640b0000 	strvs	r0, [fp], #-0
    4894:	01007473 	tsteq	r0, r3, ror r4
    4898:	00007437 	andeq	r7, r0, r7, lsr r4
    489c:	00147700 	andseq	r7, r4, r0, lsl #14
    48a0:	006e0b00 	rsbeq	r0, lr, r0, lsl #22
    48a4:	00253701 	eoreq	r3, r5, r1, lsl #14
    48a8:	14af0000 	strtne	r0, [pc], #0	; 48b0 <__code_start__-0x3750>
    48ac:	700b0000 	andvc	r0, fp, r0
    48b0:	74370100 	ldrtvc	r0, [r7], #-256	; 0x100
    48b4:	d0000000 	andle	r0, r0, r0
    48b8:	0d000014 	stceq	0, cr0, [r0, #-80]	; 0xffffffb0
    48bc:	000014fd 	strdeq	r1, [r0], -sp
    48c0:	00743701 	rsbseq	r3, r4, r1, lsl #14
    48c4:	15060000 	strne	r0, [r6, #-0]
    48c8:	6c100000 	ldcvs	0, cr0, [r0], {-0}
    48cc:	01006e65 	tsteq	r0, r5, ror #28
    48d0:	00002539 	andeq	r2, r0, r9, lsr r5
    48d4:	00152400 	andseq	r2, r5, r0, lsl #8
    48d8:	00730f00 	rsbseq	r0, r3, r0, lsl #30
    48dc:	00743d01 	rsbseq	r3, r4, r1, lsl #26
    48e0:	50010000 	andpl	r0, r1, r0
    48e4:	0b640a00 	bleq	19070ec <__bss_end__+0x18fa724>
    48e8:	47010000 	strmi	r0, [r1, -r0]
    48ec:	00000074 	andeq	r0, r0, r4, ror r0
    48f0:	0000a534 	andeq	sl, r0, r4, lsr r5
    48f4:	000001bc 			; <UNDEFINED> instruction: 0x000001bc
    48f8:	02df9c01 	sbcseq	r9, pc, #256	; 0x100
    48fc:	510d0000 	mrspl	r0, (UNDEF: 13)
    4900:	0100000f 	tsteq	r0, pc
    4904:	00002c47 	andeq	r2, r0, r7, asr #24
    4908:	00154b00 	andseq	r4, r5, r0, lsl #22
    490c:	73640b00 	cmnvc	r4, #0, 22
    4910:	47010074 	smlsdxmi	r1, r4, r0, r0
    4914:	00000074 	andeq	r0, r0, r4, ror r0
    4918:	00001579 	andeq	r1, r0, r9, ror r5
    491c:	01006e0b 	tsteq	r0, fp, lsl #28
    4920:	00002547 	andeq	r2, r0, r7, asr #10
    4924:	0015e700 	andseq	lr, r5, r0, lsl #14
    4928:	61760b00 	cmnvs	r6, r0, lsl #22
    492c:	4701006c 	strmi	r0, [r1, -ip, rrx]
    4930:	00000025 	andeq	r0, r0, r5, lsr #32
    4934:	00001613 	andeq	r1, r0, r3, lsl r6
    4938:	000b560d 	andeq	r5, fp, sp, lsl #12
    493c:	25470100 	strbcs	r0, [r7, #-256]	; 0x100
    4940:	92000000 	andls	r0, r0, #0
    4944:	0e000016 	mcreq	0, 0, r0, cr0, cr6, {0}
    4948:	00000b2d 	andeq	r0, r0, sp, lsr #22
    494c:	00254701 	eoreq	r4, r5, r1, lsl #14
    4950:	91020000 	mrsls	r0, (UNDEF: 2)
    4954:	75620f04 	strbvc	r0, [r2, #-3844]!	; 0xf04
    4958:	4c010066 	stcmi	0, cr0, [r1], {102}	; 0x66
    495c:	000002df 	ldrdeq	r0, [r0], -pc	; <UNPREDICTABLE>
    4960:	7fa89103 	svcvc	0x00a89103
    4964:	01007010 	tsteq	r0, r0, lsl r0
    4968:	0000744c 	andeq	r7, r0, ip, asr #8
    496c:	0016bc00 	andseq	fp, r6, r0, lsl #24
    4970:	00751000 	rsbseq	r1, r5, r0
    4974:	002c4d01 	eoreq	r4, ip, r1, lsl #26
    4978:	17a60000 	strne	r0, [r6, r0]!
    497c:	db110000 	blle	444984 <__bss_end__+0x437fbc>
    4980:	ff000000 			; <UNDEFINED> instruction: 0xff000000
    4984:	05000002 	streq	r0, [r0, #-2]
    4988:	00c24803 	sbceq	r4, r2, r3, lsl #16
    498c:	a5a01200 	strge	r1, [r0, #512]!	; 0x200
    4990:	00740000 	rsbseq	r0, r4, r0
    4994:	02610000 	rsbeq	r0, r1, #0
    4998:	0f130000 	svceq	0x00130000
    499c:	0100000b 	tsteq	r0, fp
    49a0:	00002c52 	andeq	r2, r0, r2, asr ip
    49a4:	00186900 	andseq	r6, r8, r0, lsl #18
    49a8:	8c140000 	ldchi	0, cr0, [r4], {-0}
    49ac:	c40000a6 	strgt	r0, [r0], #-166	; 0xa6
    49b0:	15000006 	strne	r0, [r0, #-6]
    49b4:	0000a6a8 	andeq	sl, r0, r8, lsr #13
    49b8:	000006cb 	andeq	r0, r0, fp, asr #13
    49bc:	000002a3 	andeq	r0, r0, r3, lsr #5
    49c0:	02530116 	subseq	r0, r3, #-2147483643	; 0x80000005
    49c4:	01167708 	tsteq	r6, r8, lsl #14
    49c8:	48030552 	stmdami	r3, {r1, r4, r6, r8, sl}
    49cc:	160000c2 	strne	r0, [r0], -r2, asr #1
    49d0:	03055101 	movweq	r5, #20737	; 0x5101
    49d4:	0000c26c 	andeq	ip, r0, ip, ror #4
    49d8:	05500116 	ldrbeq	r0, [r0, #-278]	; 0x116
    49dc:	00b20803 	adcseq	r0, r2, r3, lsl #16
    49e0:	7d021600 	stcvc	6, cr1, [r2, #-0]
    49e4:	20030500 	andcs	r0, r3, r0, lsl #10
    49e8:	000000ba 	strheq	r0, [r0], -sl
    49ec:	00a6ac14 	adceq	sl, r6, r4, lsl ip
    49f0:	0006e100 	andeq	lr, r6, r0, lsl #2
    49f4:	a6b41500 	ldrtge	r1, [r4], r0, lsl #10
    49f8:	00e00000 	rsceq	r0, r0, r0
    49fc:	02c10000 	sbceq	r0, r1, #0
    4a00:	01160000 	tsteq	r6, r0
    4a04:	a0910351 	addsge	r0, r1, r1, asr r3
    4a08:	c817007f 	ldmdagt	r7, {r0, r1, r2, r3, r4, r5, r6}
    4a0c:	300000a6 	andcc	r0, r0, r6, lsr #1
    4a10:	16000001 	strne	r0, [r0], -r1
    4a14:	91035301 	tstls	r3, r1, lsl #6
    4a18:	01167fa0 	tsteq	r6, r0, lsr #31
    4a1c:	00740251 	rsbseq	r0, r4, r1, asr r2
    4a20:	02500116 	subseq	r0, r0, #-2147483643	; 0x80000005
    4a24:	00000075 	andeq	r0, r0, r5, ror r0
    4a28:	00007a18 	andeq	r7, r0, r8, lsl sl
    4a2c:	0002ef00 	andeq	lr, r2, r0, lsl #30
    4a30:	006b1900 	rsbeq	r1, fp, r0, lsl #18
    4a34:	003f0000 	eorseq	r0, pc, r0
    4a38:	00007a18 	andeq	r7, r0, r8, lsl sl
    4a3c:	0002ff00 	andeq	pc, r2, r0, lsl #30
    4a40:	006b1900 	rsbeq	r1, fp, r0, lsl #18
    4a44:	00040000 	andeq	r0, r4, r0
    4a48:	0002ef06 	andeq	lr, r2, r6, lsl #30
    4a4c:	0b471a00 	bleq	11cb254 <__bss_end__+0x11be88c>
    4a50:	1f010000 	svcne	0x00010000
    4a54:	0000a6f0 	strdeq	sl, [r0], -r0
    4a58:	00000068 	andeq	r0, r0, r8, rrx
    4a5c:	03929c01 	orrseq	r9, r2, #256	; 0x100
    4a60:	5c0d0000 	stcpl	0, cr0, [sp], {-0}
    4a64:	0100000b 	tsteq	r0, fp
    4a68:	0003a11f 	andeq	sl, r3, pc, lsl r1
    4a6c:	00189500 	andseq	r9, r8, r0, lsl #10
    4a70:	0b250d00 	bleq	947e78 <__bss_end__+0x93b4b0>
    4a74:	1f010000 	svcne	0x00010000
    4a78:	000003b6 			; <UNDEFINED> instruction: 0x000003b6
    4a7c:	000018c1 	andeq	r1, r0, r1, asr #17
    4a80:	0000db11 	andeq	sp, r0, r1, lsl fp
    4a84:	0003cc00 	andeq	ip, r3, r0, lsl #24
    4a88:	50030500 	andpl	r0, r3, r0, lsl #10
    4a8c:	140000c2 	strne	r0, [r0], #-194	; 0xc2
    4a90:	0000a704 	andeq	sl, r0, r4, lsl #14
    4a94:	000006c4 	andeq	r0, r0, r4, asr #13
    4a98:	00a72015 	adceq	r2, r7, r5, lsl r0
    4a9c:	0006cb00 	andeq	ip, r6, r0, lsl #22
    4aa0:	00038800 	andeq	r8, r3, r0, lsl #16
    4aa4:	53011600 	movwpl	r1, #5632	; 0x1600
    4aa8:	16200802 	strtne	r0, [r0], -r2, lsl #16
    4aac:	03055201 	movweq	r5, #20993	; 0x5201
    4ab0:	0000c250 	andeq	ip, r0, r0, asr r2
    4ab4:	05510116 	ldrbeq	r0, [r1, #-278]	; 0x116
    4ab8:	00c26c03 	sbceq	r6, r2, r3, lsl #24
    4abc:	50011600 	andpl	r1, r1, r0, lsl #12
    4ac0:	b2080305 	andlt	r0, r8, #335544320	; 0x14000000
    4ac4:	02160000 	andseq	r0, r6, #0
    4ac8:	0305007d 	movweq	r0, #20605	; 0x507d
    4acc:	0000c2a4 	andeq	ip, r0, r4, lsr #5
    4ad0:	a7241400 	strge	r1, [r4, -r0, lsl #8]!
    4ad4:	06e10000 	strbteq	r0, [r1], r0
    4ad8:	1b000000 	blne	4ae0 <__code_start__-0x3520>
    4adc:	00000025 	andeq	r0, r0, r5, lsr #32
    4ae0:	000003a1 	andeq	r0, r0, r1, lsr #7
    4ae4:	0000251c 	andeq	r2, r0, ip, lsl r5
    4ae8:	04050000 	streq	r0, [r5], #-0
    4aec:	00000392 	muleq	r0, r2, r3
    4af0:	0000251b 	andeq	r2, r0, fp, lsl r5
    4af4:	0003b600 	andeq	fp, r3, r0, lsl #12
    4af8:	00811c00 	addeq	r1, r1, r0, lsl #24
    4afc:	05000000 	streq	r0, [r0, #-0]
    4b00:	0003a704 	andeq	sl, r3, r4, lsl #14
    4b04:	007a1800 	rsbseq	r1, sl, r0, lsl #16
    4b08:	03cc0000 	biceq	r0, ip, #0
    4b0c:	6b190000 	blvs	644b14 <__bss_end__+0x63814c>
    4b10:	0e000000 	cdpeq	0, 0, cr0, cr0, cr0, {0}
    4b14:	03bc0600 			; <UNDEFINED> instruction: 0x03bc0600
    4b18:	8f1d0000 	svchi	0x001d0000
    4b1c:	0100000a 	tsteq	r0, sl
    4b20:	0000257f 	andeq	r2, r0, pc, ror r5
    4b24:	00a75800 	adceq	r5, r7, r0, lsl #16
    4b28:	0002d400 	andeq	sp, r2, r0, lsl #8
    4b2c:	899c0100 	ldmibhi	ip, {r8}
    4b30:	0b000006 	bleq	4b50 <__code_start__-0x34b0>
    4b34:	00667562 	rsbeq	r7, r6, r2, ror #10
    4b38:	00747f01 	rsbseq	r7, r4, r1, lsl #30
    4b3c:	18ed0000 	stmiane	sp!, {}^	; <UNPREDICTABLE>
    4b40:	6e0b0000 	cdpvs	0, 0, cr0, cr11, cr0, {0}
    4b44:	257f0100 	ldrbcs	r0, [pc, #-256]!	; 4a4c <__code_start__-0x35b4>
    4b48:	19000000 	stmdbne	r0, {}	; <UNPREDICTABLE>
    4b4c:	0b000019 	bleq	4bb8 <__code_start__-0x3448>
    4b50:	00746d66 	rsbseq	r6, r4, r6, ror #26
    4b54:	00817f01 	addeq	r7, r1, r1, lsl #30
    4b58:	19470000 	stmdbne	r7, {}^	; <UNPREDICTABLE>
    4b5c:	730d0000 	movwvc	r0, #53248	; 0xd000
    4b60:	0100000f 	tsteq	r0, pc
    4b64:	0000ae7f 	andeq	sl, r0, pc, ror lr
    4b68:	00196500 	andseq	r6, r9, r0, lsl #10
    4b6c:	00701000 	rsbseq	r1, r0, r0
    4b70:	00748001 	rsbseq	r8, r4, r1
    4b74:	19780000 	ldmdbne	r8!, {}^	; <UNPREDICTABLE>
    4b78:	65100000 	ldrvs	r0, [r0, #-0]
    4b7c:	74800100 	strvc	r0, [r0], #256	; 0x100
    4b80:	f6000000 			; <UNDEFINED> instruction: 0xf6000000
    4b84:	13000019 	movwne	r0, #25
    4b88:	00000b05 	andeq	r0, r0, r5, lsl #22
    4b8c:	00818301 	addeq	r8, r1, r1, lsl #6
    4b90:	1a1d0000 	bne	744b98 <__bss_end__+0x7381d0>
    4b94:	db110000 	blle	444b9c <__bss_end__+0x4381d4>
    4b98:	99000000 	stmdbls	r0, {}	; <UNPREDICTABLE>
    4b9c:	05000006 	streq	r0, [r0, #-6]
    4ba0:	00c26003 	sbceq	r6, r2, r3
    4ba4:	a7b41e00 	ldrge	r1, [r4, r0, lsl #28]!
    4ba8:	022c0000 	eoreq	r0, ip, #0
    4bac:	73100000 	tstvc	r0, #0
    4bb0:	748e0100 	strvc	r0, [lr], #256	; 0x100
    4bb4:	3d000000 	stccc	0, cr0, [r0, #-0]
    4bb8:	0f00001a 	svceq	0x0000001a
    4bbc:	006d756e 	rsbeq	r7, sp, lr, ror #10
    4bc0:	069e8e01 	ldreq	r8, [lr], r1, lsl #28
    4bc4:	91030000 	mrsls	r0, (UNDEF: 3)
    4bc8:	56137ed8 			; <UNDEFINED> instruction: 0x56137ed8
    4bcc:	0100000b 	tsteq	r0, fp
    4bd0:	00002c8f 	andeq	r2, r0, pc, lsl #25
    4bd4:	001a9200 	andseq	r9, sl, r0, lsl #4
    4bd8:	a7e41500 	strbge	r1, [r4, r0, lsl #10]!
    4bdc:	00b90000 	adcseq	r0, r9, r0
    4be0:	04a40000 	strteq	r0, [r4], #0
    4be4:	01160000 	tsteq	r6, r0
    4be8:	00750250 	rsbseq	r0, r5, r0, asr r2
    4bec:	a7f81400 	ldrbge	r1, [r8, r0, lsl #8]!
    4bf0:	06c40000 	strbeq	r0, [r4], r0
    4bf4:	14150000 	ldrne	r0, [r5], #-0
    4bf8:	cb0000a8 	blgt	4ea0 <__code_start__-0x3160>
    4bfc:	e6000006 	str	r0, [r0], -r6
    4c00:	16000004 	strne	r0, [r0], -r4
    4c04:	08025301 	stmdaeq	r2, {r0, r8, r9, ip, lr}
    4c08:	52011695 	andpl	r1, r1, #156237824	; 0x9500000
    4c0c:	c2600305 	rsbgt	r0, r0, #335544320	; 0x14000000
    4c10:	01160000 	tsteq	r6, r0
    4c14:	6c030551 	cfstr32vs	mvfx0, [r3], {81}	; 0x51
    4c18:	160000c2 	strne	r0, [r0], -r2, asr #1
    4c1c:	03055001 	movweq	r5, #20481	; 0x5001
    4c20:	0000b208 	andeq	fp, r0, r8, lsl #4
    4c24:	007d0216 	rsbseq	r0, sp, r6, lsl r2
    4c28:	c2ac0305 	adcgt	r0, ip, #335544320	; 0x14000000
    4c2c:	14000000 	strne	r0, [r0], #-0
    4c30:	0000a818 	andeq	sl, r0, r8, lsl r8
    4c34:	000006e1 	andeq	r0, r0, r1, ror #13
    4c38:	00a88814 	adceq	r8, r8, r4, lsl r8
    4c3c:	0006c400 	andeq	ip, r6, r0, lsl #8
    4c40:	a89c1500 	ldmge	ip, {r8, sl, ip}
    4c44:	06cb0000 	strbeq	r0, [fp], r0
    4c48:	05270000 	streq	r0, [r7, #-0]!
    4c4c:	01160000 	tsteq	r6, r0
    4c50:	9b080253 	blls	2055a4 <__bss_end__+0x1f8bdc>
    4c54:	05520116 	ldrbeq	r0, [r2, #-278]	; 0x116
    4c58:	00c26003 	sbceq	r6, r2, r3
    4c5c:	51011600 	tstpl	r1, r0, lsl #12
    4c60:	c26c0305 	rsbgt	r0, ip, #335544320	; 0x14000000
    4c64:	01160000 	tsteq	r6, r0
    4c68:	b8030550 	stmdalt	r3, {r4, r6, r8, sl}
    4c6c:	000000c2 	andeq	r0, r0, r2, asr #1
    4c70:	00a8a014 	adceq	sl, r8, r4, lsl r0
    4c74:	0006e100 	andeq	lr, r6, r0, lsl #2
    4c78:	a8c41500 	stmiage	r4, {r8, sl, ip}^
    4c7c:	019c0000 	orrseq	r0, ip, r0
    4c80:	055d0000 	ldrbeq	r0, [sp, #-0]
    4c84:	01160000 	tsteq	r6, r0
    4c88:	80080252 	andhi	r0, r8, r2, asr r2
    4c8c:	03510116 	cmpeq	r1, #-2147483643	; 0x80000005
    4c90:	167ed091 			; <UNDEFINED> instruction: 0x167ed091
    4c94:	3a015001 	bcc	58ca0 <__bss_end__+0x4c2d8>
    4c98:	047d0216 	ldrbteq	r0, [sp], #-534	; 0x216
    4c9c:	02163101 	andseq	r3, r6, #1073741824	; 0x40000000
    4ca0:	7702007d 	smlsdxvc	r2, sp, r0, r0
    4ca4:	ec150000 	ldc	0, cr0, [r5], {-0}
    4ca8:	9c0000a8 	stcls	0, cr0, [r0], {168}	; 0xa8
    4cac:	8a000001 	bhi	4cb8 <__code_start__-0x3348>
    4cb0:	16000005 	strne	r0, [r0], -r5
    4cb4:	08025201 	stmdaeq	r2, {r0, r9, ip, lr}
    4cb8:	51011680 	smlabbpl	r1, r0, r6, r1
    4cbc:	7ed09103 	atnvcs	f1, f3
    4cc0:	01500116 	cmpeq	r0, r6, lsl r1
    4cc4:	7d02163a 	stcvc	6, cr1, [r2, #-232]	; 0xffffff18
    4cc8:	16300104 	ldrtne	r0, [r0], -r4, lsl #2
    4ccc:	02007d02 	andeq	r7, r0, #2, 26	; 0x80
    4cd0:	15000077 	strne	r0, [r0, #-119]	; 0x77
    4cd4:	0000a914 	andeq	sl, r0, r4, lsl r9
    4cd8:	0000019c 	muleq	r0, ip, r1
    4cdc:	000005b7 			; <UNDEFINED> instruction: 0x000005b7
    4ce0:	02520116 	subseq	r0, r2, #-2147483643	; 0x80000005
    4ce4:	01168008 	tsteq	r6, r8
    4ce8:	d0910351 	addsle	r0, r1, r1, asr r3
    4cec:	5001167e 	andpl	r1, r1, lr, ror r6
    4cf0:	02164001 	andseq	r4, r6, #1
    4cf4:	3001047d 	andcc	r0, r1, sp, ror r4
    4cf8:	007d0216 	rsbseq	r0, sp, r6, lsl r2
    4cfc:	00007702 	andeq	r7, r0, r2, lsl #14
    4d00:	00a93c15 	adceq	r3, r9, r5, lsl ip
    4d04:	00019c00 	andeq	r9, r1, r0, lsl #24
    4d08:	0005e400 	andeq	lr, r5, r0, lsl #8
    4d0c:	52011600 	andpl	r1, r1, #0, 12
    4d10:	16800802 	strne	r0, [r0], r2, lsl #16
    4d14:	91035101 	tstls	r3, r1, lsl #2
    4d18:	01167ed0 			; <UNDEFINED> instruction: 0x01167ed0
    4d1c:	16320150 			; <UNDEFINED> instruction: 0x16320150
    4d20:	01047d02 	tsteq	r4, r2, lsl #26
    4d24:	7d021630 	stcvc	6, cr1, [r2, #-192]	; 0xffffff40
    4d28:	00770200 	rsbseq	r0, r7, r0, lsl #4
    4d2c:	a9701500 	ldmdbge	r0!, {r8, sl, ip}^
    4d30:	019c0000 	orrseq	r0, ip, r0
    4d34:	06110000 	ldreq	r0, [r1], -r0
    4d38:	01160000 	tsteq	r6, r0
    4d3c:	80080252 	andhi	r0, r8, r2, asr r2
    4d40:	03510116 	cmpeq	r1, #-2147483643	; 0x80000005
    4d44:	167ed091 			; <UNDEFINED> instruction: 0x167ed091
    4d48:	38015001 	stmdacc	r1, {r0, ip, lr}
    4d4c:	047d0216 	ldrbteq	r0, [sp], #-534	; 0x216
    4d50:	02163001 	andseq	r3, r6, #1
    4d54:	7702007d 	smlsdxvc	r2, sp, r0, r0
    4d58:	8c150000 	ldchi	0, cr0, [r5], {-0}
    4d5c:	cb0000a9 	blgt	5008 <__code_start__-0x2ff8>
    4d60:	34000006 	strcc	r0, [r0], #-6
    4d64:	16000006 	strne	r0, [r0], -r6
    4d68:	79025201 	stmdbvc	r2, {r0, r9, ip, lr}
    4d6c:	51011600 	tstpl	r1, r0, lsl #12
    4d70:	16007902 	strne	r7, [r0], -r2, lsl #18
    4d74:	03055001 	movweq	r5, #20481	; 0x5001
    4d78:	0000c2e0 	andeq	ip, r0, r0, ror #5
    4d7c:	a99c1f00 	ldmibge	ip, {r8, r9, sl, fp, ip}
    4d80:	06460000 	strbeq	r0, [r6], -r0
    4d84:	01160000 	tsteq	r6, r0
    4d88:	cc910450 	cfldrsgt	mvf0, [r1], {80}	; 0x50
    4d8c:	1400067e 	strne	r0, [r0], #-1662	; 0x67e
    4d90:	0000a9a0 	andeq	sl, r0, r0, lsr #19
    4d94:	000006c4 	andeq	r0, r0, r4, asr #13
    4d98:	00a9b415 	adceq	fp, r9, r5, lsl r4
    4d9c:	0006cb00 	andeq	ip, r6, r0, lsl #22
    4da0:	00067e00 	andeq	r7, r6, r0, lsl #28
    4da4:	53011600 	movwpl	r1, #5632	; 0x1600
    4da8:	16bf0802 	ldrtne	r0, [pc], r2, lsl #16
    4dac:	03055201 	movweq	r5, #20993	; 0x5201
    4db0:	0000c260 	andeq	ip, r0, r0, ror #4
    4db4:	05510116 	ldrbeq	r0, [r1, #-278]	; 0x116
    4db8:	00c26c03 	sbceq	r6, r2, r3, lsl #24
    4dbc:	50011600 	andpl	r1, r1, r0, lsl #12
    4dc0:	c3100305 	tstgt	r0, #335544320	; 0x14000000
    4dc4:	14000000 	strne	r0, [r0], #-0
    4dc8:	0000a9b8 			; <UNDEFINED> instruction: 0x0000a9b8
    4dcc:	000006e1 	andeq	r0, r0, r1, ror #13
    4dd0:	7a180000 	bvc	604dd8 <__bss_end__+0x5f8410>
    4dd4:	99000000 	stmdbls	r0, {}	; <UNPREDICTABLE>
    4dd8:	19000006 	stmdbne	r0, {r1, r2}
    4ddc:	0000006b 	andeq	r0, r0, fp, rrx
    4de0:	89060009 	stmdbhi	r6, {r0, r3}
    4de4:	18000006 	stmdane	r0, {r1, r2}
    4de8:	0000007a 	andeq	r0, r0, sl, ror r0
    4dec:	000006ae 	andeq	r0, r0, lr, lsr #13
    4df0:	00006b19 	andeq	r6, r0, r9, lsl fp
    4df4:	20007f00 	andcs	r7, r0, r0, lsl #30
    4df8:	00000ac3 	andeq	r0, r0, r3, asr #21
    4dfc:	03a11d03 			; <UNDEFINED> instruction: 0x03a11d03
    4e00:	00200000 	eoreq	r0, r0, r0
    4e04:	0300000b 	movweq	r0, #11
    4e08:	0003b622 	andeq	fp, r3, r2, lsr #12
    4e0c:	023c2100 	eorseq	r2, ip, #0, 2
    4e10:	1e030000 	cdpne	0, 0, cr0, cr3, cr0, {0}
    4e14:	000a9222 	andeq	r9, sl, r2, lsr #4
    4e18:	25290300 	strcs	r0, [r9, #-768]!	; 0x300
    4e1c:	e1000000 	mrs	r0, (UNDEF: 0)
    4e20:	1c000006 	stcne	0, cr0, [r0], {6}
    4e24:	00000081 	andeq	r0, r0, r1, lsl #1
    4e28:	68210023 	stmdavs	r1!, {r0, r1, r5}
    4e2c:	03000000 	movweq	r0, #0
    4e30:	010f0065 	tsteq	pc, r5, rrx
    4e34:	00040000 	andeq	r0, r4, r0
    4e38:	00000ec6 	andeq	r0, r0, r6, asr #29
    4e3c:	09bf0104 	ldmibeq	pc!, {r2, r8}	; <UNPREDICTABLE>
    4e40:	78010000 	stmdavc	r1, {}	; <UNPREDICTABLE>
    4e44:	1e00000b 	cdpne	0, 0, cr0, cr0, cr11, {0}
    4e48:	2c00000a 	stccs	0, cr0, [r0], {10}
    4e4c:	2c0000aa 	stccs	0, cr0, [r0], {170}	; 0xaa
    4e50:	02000000 	andeq	r0, r0, #0
    4e54:	0200000f 	andeq	r0, r0, #15
    4e58:	6e690504 	cdpvs	5, 6, cr0, cr9, cr4, {0}
    4e5c:	04030074 	streq	r0, [r3], #-116	; 0x74
    4e60:	0001e707 	andeq	lr, r1, r7, lsl #14
    4e64:	06010300 	streq	r0, [r1], -r0, lsl #6
    4e68:	0000005c 	andeq	r0, r0, ip, asr r0
    4e6c:	29050203 	stmdbcs	r5, {r0, r1, r9}
    4e70:	03000002 	movweq	r0, #2
    4e74:	02020504 	andeq	r0, r2, #4, 10	; 0x1000000
    4e78:	08030000 	stmdaeq	r3, {}	; <UNPREDICTABLE>
    4e7c:	0001fd05 	andeq	pc, r1, r5, lsl #26
    4e80:	08010300 	stmdaeq	r1, {r8, r9}
    4e84:	0000005a 	andeq	r0, r0, sl, asr r0
    4e88:	9f070203 	svcls	0x00070203
    4e8c:	03000000 	movweq	r0, #0
    4e90:	01e20704 	mvneq	r0, r4, lsl #14
    4e94:	08030000 	stmdaeq	r3, {}	; <UNPREDICTABLE>
    4e98:	0001dd07 	andeq	sp, r1, r7, lsl #26
    4e9c:	07040300 	streq	r0, [r4, -r0, lsl #6]
    4ea0:	000001f4 	strdeq	r0, [r0], -r4
    4ea4:	63080103 	movwvs	r0, #33027	; 0x8103
    4ea8:	04000000 	streq	r0, [r0], #-0
    4eac:	00007f04 	andeq	r7, r0, r4, lsl #30
    4eb0:	00720500 	rsbseq	r0, r2, r0, lsl #10
    4eb4:	68060000 	stmdavs	r6, {}	; <UNPREDICTABLE>
    4eb8:	01000000 	mrseq	r0, (UNDEF: 0)
    4ebc:	00aa2c04 	adceq	r2, sl, r4, lsl #24
    4ec0:	00002c00 	andeq	r2, r0, r0, lsl #24
    4ec4:	d39c0100 	orrsle	r0, ip, #0, 2
    4ec8:	07000000 	streq	r0, [r0, -r0]
    4ecc:	0000aa34 	andeq	sl, r0, r4, lsr sl
    4ed0:	000000f3 	strdeq	r0, [r0], -r3
    4ed4:	00aa4408 	adceq	r4, sl, r8, lsl #8
    4ed8:	0000b500 	andeq	fp, r0, r0, lsl #10
    4edc:	50010900 	andpl	r0, r1, r0, lsl #18
    4ee0:	c3300305 	teqgt	r0, #335544320	; 0x14000000
    4ee4:	0a000000 	beq	4eec <__code_start__-0x3114>
    4ee8:	0000aa4c 	andeq	sl, r0, ip, asr #20
    4eec:	000000fa 	strdeq	r0, [r0], -sl
    4ef0:	000000c9 	andeq	r0, r0, r9, asr #1
    4ef4:	02500109 	subseq	r0, r0, #1073741826	; 0x40000002
    4ef8:	07006408 	streq	r6, [r0, -r8, lsl #8]
    4efc:	0000aa50 	andeq	sl, r0, r0, asr sl
    4f00:	0000010b 	andeq	r0, r0, fp, lsl #2
    4f04:	00250b00 	eoreq	r0, r5, r0, lsl #22
    4f08:	00e20000 	rsceq	r0, r2, r0
    4f0c:	790c0000 	stmdbvc	ip, {}	; <UNPREDICTABLE>
    4f10:	00000000 	andeq	r0, r0, r0
    4f14:	000b000d 	andeq	r0, fp, sp
    4f18:	ed220200 	sfm	f0, 4, [r2, #-0]
    4f1c:	04000000 	streq	r0, [r0], #-0
    4f20:	0000d304 	andeq	sp, r0, r4, lsl #6
    4f24:	0b690e00 	bleq	1a4872c <__bss_end__+0x1a3bd64>
    4f28:	dc020000 	stcle	0, cr0, [r2], {-0}
    4f2c:	000b9c0f 	andeq	r9, fp, pc, lsl #24
    4f30:	0b4f0200 	bleq	13c5738 <__bss_end__+0x13b8d70>
    4f34:	0c000001 	stceq	0, cr0, [r0], {1}
    4f38:	0000002c 	andeq	r0, r0, ip, lsr #32
    4f3c:	0b910e00 	bleq	fe448744 <__bss_end__+0xfe43bd7c>
    4f40:	62020000 	andvs	r0, r2, #0
    4f44:	00010f00 	andeq	r0, r1, r0, lsl #30
    4f48:	90000400 	andls	r0, r0, r0, lsl #8
    4f4c:	0400000f 	streq	r0, [r0], #-15
    4f50:	0009bf01 	andeq	fp, r9, r1, lsl #30
    4f54:	0bde0100 	bleq	ff78535c <__bss_end__+0xff778994>
    4f58:	0a1e0000 	beq	784f60 <__bss_end__+0x778598>
    4f5c:	aa580000 	bge	1604f64 <__bss_end__+0x15f859c>
    4f60:	00380000 	eorseq	r0, r8, r0
    4f64:	0fa30000 	svceq	0x00a30000
    4f68:	04020000 	streq	r0, [r2], #-0
    4f6c:	746e6905 	strbtvc	r6, [lr], #-2309	; 0x905
    4f70:	07040300 	streq	r0, [r4, -r0, lsl #6]
    4f74:	000001e7 	andeq	r0, r0, r7, ror #3
    4f78:	5c060103 	stfpls	f0, [r6], {3}
    4f7c:	03000000 	movweq	r0, #0
    4f80:	02290502 	eoreq	r0, r9, #8388608	; 0x800000
    4f84:	04030000 	streq	r0, [r3], #-0
    4f88:	00020205 	andeq	r0, r2, r5, lsl #4
    4f8c:	05080300 	streq	r0, [r8, #-768]	; 0x300
    4f90:	000001fd 	strdeq	r0, [r0], -sp
    4f94:	5a080103 	bpl	2053a8 <__bss_end__+0x1f89e0>
    4f98:	03000000 	movweq	r0, #0
    4f9c:	009f0702 	addseq	r0, pc, r2, lsl #14
    4fa0:	04030000 	streq	r0, [r3], #-0
    4fa4:	0001e207 	andeq	lr, r1, r7, lsl #4
    4fa8:	07080300 	streq	r0, [r8, -r0, lsl #6]
    4fac:	000001dd 	ldrdeq	r0, [r0], -sp
    4fb0:	f4070403 	vst3.8	{d0-d2}, [r7], r3
    4fb4:	03000001 	movweq	r0, #1
    4fb8:	00630801 	rsbeq	r0, r3, r1, lsl #16
    4fbc:	d6040000 	strle	r0, [r4], -r0
    4fc0:	0100000b 	tsteq	r0, fp
    4fc4:	00aa580d 	adceq	r5, sl, sp, lsl #16
    4fc8:	00003800 	andeq	r3, r0, r0, lsl #16
    4fcc:	e19c0100 	orrs	r0, ip, r0, lsl #2
    4fd0:	05000000 	streq	r0, [r0, #-0]
    4fd4:	00000ba5 	andeq	r0, r0, r5, lsr #23
    4fd8:	00250e01 	eoreq	r0, r5, r1, lsl #28
    4fdc:	b3050000 	movwlt	r0, #20480	; 0x5000
    4fe0:	0100000b 	tsteq	r0, fp
    4fe4:	0000250e 	andeq	r2, r0, lr, lsl #10
    4fe8:	002a0600 	eoreq	r0, sl, r0, lsl #12
    4fec:	0f010000 	svceq	0x00010000
    4ff0:	73736207 	cmnvc	r3, #1879048192	; 0x70000000
    4ff4:	e1110100 	tst	r1, r0, lsl #2
    4ff8:	bc000000 	stclt	0, cr0, [r0], {-0}
    4ffc:	0800001a 	stmdaeq	r0, {r1, r3, r4}
    5000:	00000bce 	andeq	r0, r0, lr, asr #23
    5004:	00e11201 	rsceq	r1, r1, r1, lsl #4
    5008:	80090000 	andhi	r0, r9, r0
    500c:	fd0000aa 	stc2	0, cr0, [r0, #-680]	; 0xfffffd58
    5010:	09000000 	stmdbeq	r0, {}	; <UNPREDICTABLE>
    5014:	0000aa84 	andeq	sl, r0, r4, lsl #21
    5018:	00000104 	andeq	r0, r0, r4, lsl #2
    501c:	00aa8809 	adceq	r8, sl, r9, lsl #16
    5020:	00010b00 	andeq	r0, r1, r0, lsl #22
    5024:	040a0000 	streq	r0, [sl], #-0
    5028:	00000025 	andeq	r0, r0, r5, lsr #32
    502c:	000ba505 	andeq	sl, fp, r5, lsl #10
    5030:	250e0100 	strcs	r0, [lr, #-256]	; 0x100
    5034:	05000000 	streq	r0, [r0, #-0]
    5038:	00000bb3 			; <UNDEFINED> instruction: 0x00000bb3
    503c:	00250e01 	eoreq	r0, r5, r1, lsl #28
    5040:	bf060000 	svclt	0x00060000
    5044:	0200000b 	andeq	r0, r0, #11
    5048:	002a06da 	ldrdeq	r0, [sl], -sl	; <UNPREDICTABLE>
    504c:	d7020000 	strle	r0, [r2, -r0]
    5050:	00006806 	andeq	r6, r0, r6, lsl #16
    5054:	00650200 	rsbeq	r0, r5, r0, lsl #4
    5058:	0000013e 	andeq	r0, r0, lr, lsr r1
    505c:	10240004 	eorne	r0, r4, r4
    5060:	01040000 	mrseq	r0, (UNDEF: 4)
    5064:	000009bf 			; <UNDEFINED> instruction: 0x000009bf
    5068:	000bf101 	andeq	pc, fp, r1, lsl #2
    506c:	000a1e00 	andeq	r1, sl, r0, lsl #28
    5070:	00aa9000 	adceq	r9, sl, r0
    5074:	00004400 	andeq	r4, r0, r0, lsl #8
    5078:	00104d00 	andseq	r4, r0, r0, lsl #26
    507c:	05040200 	streq	r0, [r4, #-512]	; 0x200
    5080:	00746e69 	rsbseq	r6, r4, r9, ror #28
    5084:	e7070403 	str	r0, [r7, -r3, lsl #8]
    5088:	03000001 	movweq	r0, #1
    508c:	005c0601 	subseq	r0, ip, r1, lsl #12
    5090:	02030000 	andeq	r0, r3, #0
    5094:	00022905 	andeq	r2, r2, r5, lsl #18
    5098:	05040300 	streq	r0, [r4, #-768]	; 0x300
    509c:	00000202 	andeq	r0, r0, r2, lsl #4
    50a0:	fd050803 	stc2	8, cr0, [r5, #-12]
    50a4:	03000001 	movweq	r0, #1
    50a8:	005a0801 	subseq	r0, sl, r1, lsl #16
    50ac:	02030000 	andeq	r0, r3, #0
    50b0:	00009f07 	andeq	r9, r0, r7, lsl #30
    50b4:	07040300 	streq	r0, [r4, -r0, lsl #6]
    50b8:	000001e2 	andeq	r0, r0, r2, ror #3
    50bc:	dd070803 	stcle	8, cr0, [r7, #-12]
    50c0:	03000001 	movweq	r0, #1
    50c4:	01f40704 	mvnseq	r0, r4, lsl #14
    50c8:	01030000 	mrseq	r0, (UNDEF: 3)
    50cc:	00006308 	andeq	r6, r0, r8, lsl #6
    50d0:	7f040400 	svcvc	0x00040400
    50d4:	05000000 	streq	r0, [r0, #-0]
    50d8:	00000072 	andeq	r0, r0, r2, ror r0
    50dc:	000c1206 	andeq	r1, ip, r6, lsl #4
    50e0:	90020100 	andls	r0, r2, r0, lsl #2
    50e4:	440000aa 	strmi	r0, [r0], #-170	; 0xaa
    50e8:	01000000 	mrseq	r0, (UNDEF: 0)
    50ec:	0001089c 	muleq	r1, ip, r8
    50f0:	63700700 	cmnvs	r0, #0, 14
    50f4:	2c020100 	stfcss	f0, [r2], {-0}
    50f8:	dc000000 	stcle	0, cr0, [r0], {-0}
    50fc:	0800001a 	stmdaeq	r0, {r1, r3, r4}
    5100:	000000db 	ldrdeq	r0, [r0], -fp
    5104:	00000118 	andeq	r0, r0, r8, lsl r1
    5108:	c33c0305 	teqgt	ip, #335544320	; 0x14000000
    510c:	a0090000 	andge	r0, r9, r0
    5110:	1d0000aa 	stcne	0, cr0, [r0, #-680]	; 0xfffffd58
    5114:	0a000001 	beq	5120 <__code_start__-0x2ee0>
    5118:	0000aac0 	andeq	sl, r0, r0, asr #21
    511c:	00000124 	andeq	r0, r0, r4, lsr #2
    5120:	000000fe 	strdeq	r0, [r0], -lr
    5124:	0153010b 	cmpeq	r3, fp, lsl #2
    5128:	52010b32 	andpl	r0, r1, #51200	; 0xc800
    512c:	c33c0305 	teqgt	ip, #335544320	; 0x14000000
    5130:	010b0000 	mrseq	r0, (UNDEF: 11)
    5134:	90030551 	andls	r0, r3, r1, asr r5
    5138:	0b0000c3 	bleq	544c <__code_start__-0x2bb4>
    513c:	03055001 	movweq	r5, #20481	; 0x5001
    5140:	0000c354 	andeq	ip, r0, r4, asr r3
    5144:	047d020b 	ldrbteq	r0, [sp], #-523	; 0x20b
    5148:	0b007402 	bleq	22158 <__bss_end__+0x15790>
    514c:	05007d02 	streq	r7, [r0, #-3330]	; 0xd02
    5150:	00c3b403 	sbceq	fp, r3, r3, lsl #8
    5154:	c4090000 	strgt	r0, [r9], #-0
    5158:	3a0000aa 	bcc	5408 <__code_start__-0x2bf8>
    515c:	00000001 	andeq	r0, r0, r1
    5160:	0000720c 	andeq	r7, r0, ip, lsl #4
    5164:	00011800 	andeq	r1, r1, r0, lsl #16
    5168:	006b0d00 	rsbeq	r0, fp, r0, lsl #26
    516c:	00150000 	andseq	r0, r5, r0
    5170:	00010805 	andeq	r0, r1, r5, lsl #16
    5174:	023c0e00 	eorseq	r0, ip, #0, 28
    5178:	1e020000 	cdpne	0, 0, cr0, cr2, cr0, {0}
    517c:	000a920f 	andeq	r9, sl, pc, lsl #4
    5180:	25290200 	strcs	r0, [r9, #-512]!	; 0x200
    5184:	3a000000 	bcc	518c <__code_start__-0x2e74>
    5188:	10000001 	andne	r0, r0, r1
    518c:	00000079 	andeq	r0, r0, r9, ror r0
    5190:	680e0011 	stmdavs	lr, {r0, r4}
    5194:	02000000 	andeq	r0, r0, #0
    5198:	013e0065 	teqeq	lr, r5, rrx
    519c:	00040000 	andeq	r0, r4, r0
    51a0:	000010fc 	strdeq	r1, [r0], -ip
    51a4:	09bf0104 	ldmibeq	pc!, {r2, r8}	; <UNPREDICTABLE>
    51a8:	28010000 	stmdacs	r1, {}	; <UNPREDICTABLE>
    51ac:	1e00000c 	cdpne	0, 0, cr0, cr0, cr12, {0}
    51b0:	d400000a 	strle	r0, [r0], #-10
    51b4:	440000aa 	strmi	r0, [r0], #-170	; 0xaa
    51b8:	f3000000 	vhadd.u8	d0, d0, d0
    51bc:	02000010 	andeq	r0, r0, #16
    51c0:	6e690504 	cdpvs	5, 6, cr0, cr9, cr4, {0}
    51c4:	04030074 	streq	r0, [r3], #-116	; 0x74
    51c8:	0001e707 	andeq	lr, r1, r7, lsl #14
    51cc:	06010300 	streq	r0, [r1], -r0, lsl #6
    51d0:	0000005c 	andeq	r0, r0, ip, asr r0
    51d4:	29050203 	stmdbcs	r5, {r0, r1, r9}
    51d8:	03000002 	movweq	r0, #2
    51dc:	02020504 	andeq	r0, r2, #4, 10	; 0x1000000
    51e0:	08030000 	stmdaeq	r3, {}	; <UNPREDICTABLE>
    51e4:	0001fd05 	andeq	pc, r1, r5, lsl #26
    51e8:	08010300 	stmdaeq	r1, {r8, r9}
    51ec:	0000005a 	andeq	r0, r0, sl, asr r0
    51f0:	9f070203 	svcls	0x00070203
    51f4:	03000000 	movweq	r0, #0
    51f8:	01e20704 	mvneq	r0, r4, lsl #14
    51fc:	08030000 	stmdaeq	r3, {}	; <UNPREDICTABLE>
    5200:	0001dd07 	andeq	sp, r1, r7, lsl #26
    5204:	07040300 	streq	r0, [r4, -r0, lsl #6]
    5208:	000001f4 	strdeq	r0, [r0], -r4
    520c:	63080103 	movwvs	r0, #33027	; 0x8103
    5210:	04000000 	streq	r0, [r0], #-0
    5214:	00007f04 	andeq	r7, r0, r4, lsl #30
    5218:	00720500 	rsbseq	r0, r2, r0, lsl #10
    521c:	4d060000 	stcmi	0, cr0, [r6, #-0]
    5220:	0100000c 	tsteq	r0, ip
    5224:	00aad402 	adceq	sp, sl, r2, lsl #8
    5228:	00004400 	andeq	r4, r0, r0, lsl #8
    522c:	089c0100 	ldmeq	ip, {r8}
    5230:	07000001 	streq	r0, [r0, -r1]
    5234:	01006370 	tsteq	r0, r0, ror r3
    5238:	00002c02 	andeq	r2, r0, r2, lsl #24
    523c:	001afa00 	andseq	pc, sl, r0, lsl #20
    5240:	00db0800 	sbcseq	r0, fp, r0, lsl #16
    5244:	01180000 	tsteq	r8, r0
    5248:	03050000 	movweq	r0, #20480	; 0x5000
    524c:	0000c3bc 			; <UNDEFINED> instruction: 0x0000c3bc
    5250:	00aae409 	adceq	lr, sl, r9, lsl #8
    5254:	00011d00 	andeq	r1, r1, r0, lsl #26
    5258:	ab040a00 	blge	107a60 <__bss_end__+0xfb098>
    525c:	01240000 	teqeq	r4, r0
    5260:	00fe0000 	rscseq	r0, lr, r0
    5264:	010b0000 	mrseq	r0, (UNDEF: 11)
    5268:	0b320153 	bleq	c857bc <__bss_end__+0xc78df4>
    526c:	03055201 	movweq	r5, #20993	; 0x5201
    5270:	0000c3bc 			; <UNDEFINED> instruction: 0x0000c3bc
    5274:	0551010b 	ldrbeq	r0, [r1, #-267]	; 0x10b
    5278:	00c3d403 	sbceq	sp, r3, r3, lsl #8
    527c:	50010b00 	andpl	r0, r1, r0, lsl #22
    5280:	c3540305 	cmpgt	r4, #335544320	; 0x14000000
    5284:	020b0000 	andeq	r0, fp, #0
    5288:	7402047d 	strvc	r0, [r2], #-1149	; 0x47d
    528c:	7d020b00 	vstrvc	d0, [r2, #-0]
    5290:	fc030500 	stc2	5, cr0, [r3], {-0}
    5294:	000000c3 	andeq	r0, r0, r3, asr #1
    5298:	00ab0809 	adceq	r0, fp, r9, lsl #16
    529c:	00013a00 	andeq	r3, r1, r0, lsl #20
    52a0:	720c0000 	andvc	r0, ip, #0
    52a4:	18000000 	stmdane	r0, {}	; <UNPREDICTABLE>
    52a8:	0d000001 	stceq	0, cr0, [r0, #-4]
    52ac:	0000006b 	andeq	r0, r0, fp, rrx
    52b0:	08050015 	stmdaeq	r5, {r0, r2, r4}
    52b4:	0e000001 	cdpeq	0, 0, cr0, cr0, cr1, {0}
    52b8:	0000023c 	andeq	r0, r0, ip, lsr r2
    52bc:	920f1e02 	andls	r1, pc, #2, 28
    52c0:	0200000a 	andeq	r0, r0, #10
    52c4:	00002529 	andeq	r2, r0, r9, lsr #10
    52c8:	00013a00 	andeq	r3, r1, r0, lsl #20
    52cc:	00791000 	rsbseq	r1, r9, r0
    52d0:	00110000 	andseq	r0, r1, r0
    52d4:	0000680e 	andeq	r6, r0, lr, lsl #16
    52d8:	00650200 	rsbeq	r0, r5, r0, lsl #4
    52dc:	0000013e 	andeq	r0, r0, lr, lsr r1
    52e0:	11d40004 	bicsne	r0, r4, r4
    52e4:	01040000 	mrseq	r0, (UNDEF: 4)
    52e8:	000009bf 			; <UNDEFINED> instruction: 0x000009bf
    52ec:	000c7001 	andeq	r7, ip, r1
    52f0:	000a1e00 	andeq	r1, sl, r0, lsl #28
    52f4:	00ab1800 	adceq	r1, fp, r0, lsl #16
    52f8:	00004400 	andeq	r4, r0, r0, lsl #8
    52fc:	00119d00 	andseq	r9, r1, r0, lsl #26
    5300:	05040200 	streq	r0, [r4, #-512]	; 0x200
    5304:	00746e69 	rsbseq	r6, r4, r9, ror #28
    5308:	e7070403 	str	r0, [r7, -r3, lsl #8]
    530c:	03000001 	movweq	r0, #1
    5310:	005c0601 	subseq	r0, ip, r1, lsl #12
    5314:	02030000 	andeq	r0, r3, #0
    5318:	00022905 	andeq	r2, r2, r5, lsl #18
    531c:	05040300 	streq	r0, [r4, #-768]	; 0x300
    5320:	00000202 	andeq	r0, r0, r2, lsl #4
    5324:	fd050803 	stc2	8, cr0, [r5, #-12]
    5328:	03000001 	movweq	r0, #1
    532c:	005a0801 	subseq	r0, sl, r1, lsl #16
    5330:	02030000 	andeq	r0, r3, #0
    5334:	00009f07 	andeq	r9, r0, r7, lsl #30
    5338:	07040300 	streq	r0, [r4, -r0, lsl #6]
    533c:	000001e2 	andeq	r0, r0, r2, ror #3
    5340:	dd070803 	stcle	8, cr0, [r7, #-12]
    5344:	03000001 	movweq	r0, #1
    5348:	01f40704 	mvnseq	r0, r4, lsl #14
    534c:	01030000 	mrseq	r0, (UNDEF: 3)
    5350:	00006308 	andeq	r6, r0, r8, lsl #6
    5354:	7f040400 	svcvc	0x00040400
    5358:	05000000 	streq	r0, [r0, #-0]
    535c:	00000072 	andeq	r0, r0, r2, ror r0
    5360:	000c6306 	andeq	r6, ip, r6, lsl #6
    5364:	18020100 	stmdane	r2, {r8}
    5368:	440000ab 	strmi	r0, [r0], #-171	; 0xab
    536c:	01000000 	mrseq	r0, (UNDEF: 0)
    5370:	0001089c 	muleq	r1, ip, r8
    5374:	63700700 	cmnvs	r0, #0, 14
    5378:	2c020100 	stfcss	f0, [r2], {-0}
    537c:	18000000 	stmdane	r0, {}	; <UNPREDICTABLE>
    5380:	0800001b 	stmdaeq	r0, {r0, r1, r3, r4}
    5384:	000000db 	ldrdeq	r0, [r0], -fp
    5388:	00000118 	andeq	r0, r0, r8, lsl r1
    538c:	c40c0305 	strgt	r0, [ip], #-773	; 0x305
    5390:	28090000 	stmdacs	r9, {}	; <UNPREDICTABLE>
    5394:	1d0000ab 	stcne	0, cr0, [r0, #-684]	; 0xfffffd54
    5398:	0a000001 	beq	53a4 <__code_start__-0x2c5c>
    539c:	0000ab48 	andeq	sl, r0, r8, asr #22
    53a0:	00000124 	andeq	r0, r0, r4, lsr #2
    53a4:	000000fe 	strdeq	r0, [r0], -lr
    53a8:	0153010b 	cmpeq	r3, fp, lsl #2
    53ac:	52010b32 	andpl	r0, r1, #51200	; 0xc800
    53b0:	c40c0305 	strgt	r0, [ip], #-773	; 0x305
    53b4:	010b0000 	mrseq	r0, (UNDEF: 11)
    53b8:	1c030551 	cfstr32ne	mvfx0, [r3], {81}	; 0x51
    53bc:	0b0000c4 	bleq	56d4 <__code_start__-0x292c>
    53c0:	03055001 	movweq	r5, #20481	; 0x5001
    53c4:	0000c354 	andeq	ip, r0, r4, asr r3
    53c8:	047d020b 	ldrbteq	r0, [sp], #-523	; 0x20b
    53cc:	0b007402 	bleq	223dc <__bss_end__+0x15a14>
    53d0:	05007d02 	streq	r7, [r0, #-3330]	; 0xd02
    53d4:	00c44003 	sbceq	r4, r4, r3
    53d8:	4c090000 	stcmi	0, cr0, [r9], {-0}
    53dc:	3a0000ab 	bcc	5690 <__code_start__-0x2970>
    53e0:	00000001 	andeq	r0, r0, r1
    53e4:	0000720c 	andeq	r7, r0, ip, lsl #4
    53e8:	00011800 	andeq	r1, r1, r0, lsl #16
    53ec:	006b0d00 	rsbeq	r0, fp, r0, lsl #26
    53f0:	000c0000 	andeq	r0, ip, r0
    53f4:	00010805 	andeq	r0, r1, r5, lsl #16
    53f8:	023c0e00 	eorseq	r0, ip, #0, 28
    53fc:	1e020000 	cdpne	0, 0, cr0, cr2, cr0, {0}
    5400:	000a920f 	andeq	r9, sl, pc, lsl #4
    5404:	25290200 	strcs	r0, [r9, #-512]!	; 0x200
    5408:	3a000000 	bcc	5410 <__code_start__-0x2bf0>
    540c:	10000001 	andne	r0, r0, r1
    5410:	00000079 	andeq	r0, r0, r9, ror r0
    5414:	680e0011 	stmdavs	lr, {r0, r4}
    5418:	02000000 	andeq	r0, r0, #0
    541c:	013e0065 	teqeq	lr, r5, rrx
    5420:	00040000 	andeq	r0, r4, r0
    5424:	000012ac 	andeq	r1, r0, ip, lsr #5
    5428:	09bf0104 	ldmibeq	pc!, {r2, r8}	; <UNPREDICTABLE>
    542c:	92010000 	andls	r0, r1, #0
    5430:	1e00000c 	cdpne	0, 0, cr0, cr0, cr12, {0}
    5434:	5c00000a 	stcpl	0, cr0, [r0], {10}
    5438:	440000ab 	strmi	r0, [r0], #-171	; 0xab
    543c:	44000000 	strmi	r0, [r0], #-0
    5440:	02000012 	andeq	r0, r0, #18
    5444:	6e690504 	cdpvs	5, 6, cr0, cr9, cr4, {0}
    5448:	04030074 	streq	r0, [r3], #-116	; 0x74
    544c:	0001e707 	andeq	lr, r1, r7, lsl #14
    5450:	06010300 	streq	r0, [r1], -r0, lsl #6
    5454:	0000005c 	andeq	r0, r0, ip, asr r0
    5458:	29050203 	stmdbcs	r5, {r0, r1, r9}
    545c:	03000002 	movweq	r0, #2
    5460:	02020504 	andeq	r0, r2, #4, 10	; 0x1000000
    5464:	08030000 	stmdaeq	r3, {}	; <UNPREDICTABLE>
    5468:	0001fd05 	andeq	pc, r1, r5, lsl #26
    546c:	08010300 	stmdaeq	r1, {r8, r9}
    5470:	0000005a 	andeq	r0, r0, sl, asr r0
    5474:	9f070203 	svcls	0x00070203
    5478:	03000000 	movweq	r0, #0
    547c:	01e20704 	mvneq	r0, r4, lsl #14
    5480:	08030000 	stmdaeq	r3, {}	; <UNPREDICTABLE>
    5484:	0001dd07 	andeq	sp, r1, r7, lsl #26
    5488:	07040300 	streq	r0, [r4, -r0, lsl #6]
    548c:	000001f4 	strdeq	r0, [r0], -r4
    5490:	63080103 	movwvs	r0, #33027	; 0x8103
    5494:	04000000 	streq	r0, [r0], #-0
    5498:	00007f04 	andeq	r7, r0, r4, lsl #30
    549c:	00720500 	rsbseq	r0, r2, r0, lsl #10
    54a0:	bd060000 	stclt	0, cr0, [r6, #-0]
    54a4:	0100000c 	tsteq	r0, ip
    54a8:	00ab5c02 	adceq	r5, fp, r2, lsl #24
    54ac:	00004400 	andeq	r4, r0, r0, lsl #8
    54b0:	089c0100 	ldmeq	ip, {r8}
    54b4:	07000001 	streq	r0, [r0, -r1]
    54b8:	01006370 	tsteq	r0, r0, ror r3
    54bc:	00002c02 	andeq	r2, r0, r2, lsl #24
    54c0:	001b3600 	andseq	r3, fp, r0, lsl #12
    54c4:	00db0800 	sbcseq	r0, fp, r0, lsl #16
    54c8:	01180000 	tsteq	r8, r0
    54cc:	03050000 	movweq	r0, #20480	; 0x5000
    54d0:	0000c448 	andeq	ip, r0, r8, asr #8
    54d4:	00ab6c09 	adceq	r6, fp, r9, lsl #24
    54d8:	00011d00 	andeq	r1, r1, r0, lsl #26
    54dc:	ab8c0a00 	blge	fe307ce4 <__bss_end__+0xfe2fb31c>
    54e0:	01240000 	teqeq	r4, r0
    54e4:	00fe0000 	rscseq	r0, lr, r0
    54e8:	010b0000 	mrseq	r0, (UNDEF: 11)
    54ec:	0b320153 	bleq	c85a40 <__bss_end__+0xc79078>
    54f0:	03055201 	movweq	r5, #20993	; 0x5201
    54f4:	0000c448 	andeq	ip, r0, r8, asr #8
    54f8:	0551010b 	ldrbeq	r0, [r1, #-267]	; 0x10b
    54fc:	00c46803 	sbceq	r6, r4, r3, lsl #16
    5500:	50010b00 	andpl	r0, r1, r0, lsl #22
    5504:	c3540305 	cmpgt	r4, #335544320	; 0x14000000
    5508:	020b0000 	andeq	r0, fp, #0
    550c:	7402047d 	strvc	r0, [r2], #-1149	; 0x47d
    5510:	7d020b00 	vstrvc	d0, [r2, #-0]
    5514:	94030500 	strls	r0, [r3], #-1280	; 0x500
    5518:	000000c4 	andeq	r0, r0, r4, asr #1
    551c:	00ab9009 	adceq	r9, fp, r9
    5520:	00013a00 	andeq	r3, r1, r0, lsl #20
    5524:	720c0000 	andvc	r0, ip, #0
    5528:	18000000 	stmdane	r0, {}	; <UNPREDICTABLE>
    552c:	0d000001 	stceq	0, cr0, [r0, #-4]
    5530:	0000006b 	andeq	r0, r0, fp, rrx
    5534:	0805001c 	stmdaeq	r5, {r2, r3, r4}
    5538:	0e000001 	cdpeq	0, 0, cr0, cr0, cr1, {0}
    553c:	0000023c 	andeq	r0, r0, ip, lsr r2
    5540:	920f1e02 	andls	r1, pc, #2, 28
    5544:	0200000a 	andeq	r0, r0, #10
    5548:	00002529 	andeq	r2, r0, r9, lsr #10
    554c:	00013a00 	andeq	r3, r1, r0, lsl #20
    5550:	00791000 	rsbseq	r1, r9, r0
    5554:	00110000 	andseq	r0, r1, r0
    5558:	0000680e 	andeq	r6, r0, lr, lsl #16
    555c:	00650200 	rsbeq	r0, r5, r0, lsl #4
    5560:	00000098 	muleq	r0, r8, r0
    5564:	13840004 	orrne	r0, r4, #4
    5568:	01040000 	mrseq	r0, (UNDEF: 4)
    556c:	000009bf 			; <UNDEFINED> instruction: 0x000009bf
    5570:	000cda01 	andeq	sp, ip, r1, lsl #20
    5574:	000a1e00 	andeq	r1, sl, r0, lsl #28
    5578:	00aba000 	adceq	sl, fp, r0
    557c:	00000800 	andeq	r0, r0, r0, lsl #16
    5580:	0012f400 	andseq	pc, r2, r0, lsl #8
    5584:	05040200 	streq	r0, [r4, #-512]	; 0x200
    5588:	00746e69 	rsbseq	r6, r4, r9, ror #28
    558c:	e7070403 	str	r0, [r7, -r3, lsl #8]
    5590:	03000001 	movweq	r0, #1
    5594:	005c0601 	subseq	r0, ip, r1, lsl #12
    5598:	02030000 	andeq	r0, r3, #0
    559c:	00022905 	andeq	r2, r2, r5, lsl #18
    55a0:	05040300 	streq	r0, [r4, #-768]	; 0x300
    55a4:	00000202 	andeq	r0, r0, r2, lsl #4
    55a8:	fd050803 	stc2	8, cr0, [r5, #-12]
    55ac:	03000001 	movweq	r0, #1
    55b0:	005a0801 	subseq	r0, sl, r1, lsl #16
    55b4:	02030000 	andeq	r0, r3, #0
    55b8:	00009f07 	andeq	r9, r0, r7, lsl #30
    55bc:	07040300 	streq	r0, [r4, -r0, lsl #6]
    55c0:	000001e2 	andeq	r0, r0, r2, ror #3
    55c4:	dd070803 	stcle	8, cr0, [r7, #-12]
    55c8:	03000001 	movweq	r0, #1
    55cc:	01f40704 	mvnseq	r0, r4, lsl #14
    55d0:	01030000 	mrseq	r0, (UNDEF: 3)
    55d4:	00006308 	andeq	r6, r0, r8, lsl #6
    55d8:	0bbf0400 	bleq	fefc65e0 <__bss_end__+0xfefb9c18>
    55dc:	04010000 	streq	r0, [r1], #-0
    55e0:	0000aba0 	andeq	sl, r0, r0, lsr #23
    55e4:	00000004 	andeq	r0, r0, r4
    55e8:	69049c01 	stmdbvs	r4, {r0, sl, fp, ip, pc}
    55ec:	0100000b 	tsteq	r0, fp
    55f0:	00aba405 	adceq	sl, fp, r5, lsl #8
    55f4:	00000400 	andeq	r0, r0, r0, lsl #8
    55f8:	009c0100 	addseq	r0, ip, r0, lsl #2
    55fc:	000001d7 	ldrdeq	r0, [r0], -r7
    5600:	13c60004 	bicne	r0, r6, #4
    5604:	01040000 	mrseq	r0, (UNDEF: 4)
    5608:	000009bf 			; <UNDEFINED> instruction: 0x000009bf
    560c:	000d9601 	andeq	r9, sp, r1, lsl #12
    5610:	000a1e00 	andeq	r1, sl, r0, lsl #28
    5614:	00aba800 	adceq	sl, fp, r0, lsl #16
    5618:	00006c00 	andeq	r6, r0, r0, lsl #24
    561c:	00133f00 	andseq	r3, r3, r0, lsl #30
    5620:	05040200 	streq	r0, [r4, #-512]	; 0x200
    5624:	00746e69 	rsbseq	r6, r4, r9, ror #28
    5628:	e7070403 	str	r0, [r7, -r3, lsl #8]
    562c:	03000001 	movweq	r0, #1
    5630:	005c0601 	subseq	r0, ip, r1, lsl #12
    5634:	02030000 	andeq	r0, r3, #0
    5638:	00022905 	andeq	r2, r2, r5, lsl #18
    563c:	05040300 	streq	r0, [r4, #-768]	; 0x300
    5640:	00000202 	andeq	r0, r0, r2, lsl #4
    5644:	fd050803 	stc2	8, cr0, [r5, #-12]
    5648:	03000001 	movweq	r0, #1
    564c:	005a0801 	subseq	r0, sl, r1, lsl #16
    5650:	02030000 	andeq	r0, r3, #0
    5654:	00009f07 	andeq	r9, r0, r7, lsl #30
    5658:	07040300 	streq	r0, [r4, -r0, lsl #6]
    565c:	000001e2 	andeq	r0, r0, r2, ror #3
    5660:	dd070803 	stcle	8, cr0, [r7, #-12]
    5664:	03000001 	movweq	r0, #1
    5668:	01f40704 	mvnseq	r0, r4, lsl #14
    566c:	01030000 	mrseq	r0, (UNDEF: 3)
    5670:	00006308 	andeq	r6, r0, r8, lsl #6
    5674:	02040400 	andeq	r0, r4, #0, 8
    5678:	0000f014 	andeq	pc, r0, r4, lsl r0	; <UNPREDICTABLE>
    567c:	0daf0500 	cfstr32eq	mvfx0, [pc]	; 5684 <__code_start__-0x297c>
    5680:	e4800000 	str	r0, [r0], #0
    5684:	05028082 	streq	r8, [r2, #-130]	; 0x82
    5688:	00000d35 	andeq	r0, r0, r5, lsr sp
    568c:	8082e480 	addhi	lr, r2, r0, lsl #9
    5690:	0dd60502 	cfldr64eq	mvdx0, [r6, #8]
    5694:	e4840000 	str	r0, [r4], #0
    5698:	05028082 	streq	r8, [r2, #-130]	; 0x82
    569c:	00000cf7 	strdeq	r0, [r0], -r7
    56a0:	8082e488 	addhi	lr, r2, r8, lsl #9
    56a4:	0d180502 	cfldr32eq	mvfx0, [r8, #-8]
    56a8:	e48c0000 	str	r0, [ip], #0
    56ac:	05028082 	streq	r8, [r2, #-130]	; 0x82
    56b0:	00000d59 	andeq	r0, r0, r9, asr sp
    56b4:	8082e490 	umullhi	lr, r2, r0, r4
    56b8:	0d670502 	cfstr64eq	mvdx0, [r7, #-8]!
    56bc:	e4940000 	ldr	r0, [r4], #0
    56c0:	05028082 	streq	r8, [r2, #-130]	; 0x82
    56c4:	00000d47 	andeq	r0, r0, r7, asr #26
    56c8:	8082e498 	umullhi	lr, r2, r8, r4
    56cc:	0db80502 	cfldr32eq	mvfx0, [r8, #8]!
    56d0:	e49c0000 	ldr	r0, [ip], #0
    56d4:	05028082 	streq	r8, [r2, #-130]	; 0x82
    56d8:	00000dc7 	andeq	r0, r0, r7, asr #27
    56dc:	8082e4a0 	addhi	lr, r2, r0, lsr #9
    56e0:	0d050502 	cfstr32eq	mvfx0, [r5, #-8]
    56e4:	e4a40000 	strt	r0, [r4], #0
    56e8:	00028082 	andeq	r8, r2, r2, lsl #1
    56ec:	00061d06 	andeq	r1, r6, r6, lsl #26
    56f0:	a81b0100 	ldmdage	fp, {r8}
    56f4:	6c0000ab 	stcvs	0, cr0, [r0], {171}	; 0xab
    56f8:	01000000 	mrseq	r0, (UNDEF: 0)
    56fc:	0001a59c 	muleq	r1, ip, r5
    5700:	0d240700 	stceq	7, cr0, [r4, #-0]
    5704:	23010000 	movwcs	r0, #4096	; 0x1000
    5708:	0000002c 	andeq	r0, r0, ip, lsr #32
    570c:	000d7507 	andeq	r7, sp, r7, lsl #10
    5710:	2c240100 	stfcss	f0, [r4], #-0
    5714:	08000000 	stmdaeq	r0, {}	; <UNPREDICTABLE>
    5718:	00747364 	rsbseq	r7, r4, r4, ror #6
    571c:	01a52701 			; <UNDEFINED> instruction: 0x01a52701
    5720:	09000000 	stmdbeq	r0, {}	; <UNPREDICTABLE>
    5724:	00637273 	rsbeq	r7, r3, r3, ror r2
    5728:	01a52801 			; <UNDEFINED> instruction: 0x01a52801
    572c:	6e0a0000 	cdpvs	0, 0, cr0, cr10, cr0, {0}
    5730:	2c290100 	stfcss	f0, [r9], #-0
    5734:	01000000 	mrseq	r0, (UNDEF: 0)
    5738:	abdc0b50 	blge	ff708480 <__bss_end__+0xff6fbab8>
    573c:	00240000 	eoreq	r0, r4, r0
    5740:	01580000 	cmpeq	r8, r0
    5744:	690c0000 	stmdbvs	ip, {}	; <UNPREDICTABLE>
    5748:	252a0100 	strcs	r0, [sl, #-256]!	; 0x100
    574c:	54000000 	strpl	r0, [r0], #-0
    5750:	0000001b 	andeq	r0, r0, fp, lsl r0
    5754:	00abb00d 	adceq	fp, fp, sp
    5758:	0001c100 	andeq	ip, r1, r0, lsl #2
    575c:	abbc0e00 	blge	fef08f64 <__bss_end__+0xfeefc59c>
    5760:	01c80000 	biceq	r0, r8, r0
    5764:	017e0000 	cmneq	lr, r0
    5768:	010f0000 	mrseq	r0, CPSR
    576c:	ff090251 			; <UNDEFINED> instruction: 0xff090251
    5770:	0550010f 	ldrbeq	r0, [r0, #-271]	; 0x10f
    5774:	00b21c0c 	adcseq	r1, r2, ip, lsl #24
    5778:	c80e0020 	stmdagt	lr, {r5}
    577c:	c80000ab 	stmdagt	r0, {r0, r1, r3, r5, r7}
    5780:	9b000001 	blls	578c <__code_start__-0x2874>
    5784:	0f000001 	svceq	0x00000001
    5788:	09025101 	stmdbeq	r2, {r0, r8, ip, lr}
    578c:	50010fff 	strdpl	r0, [r1], -pc	; <UNPREDICTABLE>
    5790:	b2200c05 	eorlt	r0, r0, #1280	; 0x500
    5794:	0d002000 	stceq	0, cr2, [r0, #-0]
    5798:	0000abcc 	andeq	sl, r0, ip, asr #23
    579c:	000001c1 	andeq	r0, r0, r1, asr #3
    57a0:	2c041000 	stccs	0, cr1, [r4], {-0}
    57a4:	07000000 	streq	r0, [r0, -r0]
    57a8:	00000d24 	andeq	r0, r0, r4, lsr #26
    57ac:	002c2301 	eoreq	r2, ip, r1, lsl #6
    57b0:	75070000 	strvc	r0, [r7, #-0]
    57b4:	0100000d 	tsteq	r0, sp
    57b8:	00002c24 	andeq	r2, r0, r4, lsr #24
    57bc:	0d8a1100 	stfeqs	f1, [sl]
    57c0:	89030000 	stmdbhi	r3, {}	; <UNPREDICTABLE>
    57c4:	00002412 	andeq	r2, r0, r2, lsl r4
    57c8:	139b0300 	orrsne	r0, fp, #0, 6
    57cc:	0000002c 	andeq	r0, r0, ip, lsr #32
    57d0:	00002c13 	andeq	r2, r0, r3, lsl ip
    57d4:	ad000000 	stcge	0, cr0, [r0, #-0]
    57d8:	04000001 	streq	r0, [r0], #-1
    57dc:	0014cc00 	andseq	ip, r4, r0, lsl #24
    57e0:	bf010400 	svclt	0x00010400
    57e4:	01000009 	tsteq	r0, r9
    57e8:	00000df2 	strdeq	r0, [r0], -r2
    57ec:	00000a1e 	andeq	r0, r0, lr, lsl sl
    57f0:	00000048 	andeq	r0, r0, r8, asr #32
    57f4:	00000000 	andeq	r0, r0, r0
    57f8:	0000140c 	andeq	r1, r0, ip, lsl #8
    57fc:	69050402 	stmdbvs	r5, {r1, sl}
    5800:	0300746e 	movweq	r7, #1134	; 0x46e
    5804:	01e70704 	mvneq	r0, r4, lsl #14
    5808:	01030000 	mrseq	r0, (UNDEF: 3)
    580c:	00005c06 	andeq	r5, r0, r6, lsl #24
    5810:	05020300 	streq	r0, [r2, #-768]	; 0x300
    5814:	00000229 	andeq	r0, r0, r9, lsr #4
    5818:	02050403 	andeq	r0, r5, #50331648	; 0x3000000
    581c:	03000002 	movweq	r0, #2
    5820:	01fd0508 	mvnseq	r0, r8, lsl #10
    5824:	01030000 	mrseq	r0, (UNDEF: 3)
    5828:	00005a08 	andeq	r5, r0, r8, lsl #20
    582c:	07020300 	streq	r0, [r2, -r0, lsl #6]
    5830:	0000009f 	muleq	r0, pc, r0	; <UNPREDICTABLE>
    5834:	e2070403 	and	r0, r7, #50331648	; 0x3000000
    5838:	03000001 	movweq	r0, #1
    583c:	01dd0708 	bicseq	r0, sp, r8, lsl #14
    5840:	04030000 	streq	r0, [r3], #-0
    5844:	0001f407 	andeq	pc, r1, r7, lsl #8
    5848:	08010300 	stmdaeq	r1, {r8, r9}
    584c:	00000063 	andeq	r0, r0, r3, rrx
    5850:	000de404 	andeq	lr, sp, r4, lsl #8
    5854:	250e0100 	strcs	r0, [lr, #-256]	; 0x100
    5858:	14000000 	strne	r0, [r0], #-0
    585c:	180000ac 	stmdane	r0, {r2, r3, r5, r7}
    5860:	01000000 	mrseq	r0, (UNDEF: 0)
    5864:	0000a29c 	muleq	r0, ip, r2
    5868:	0e490500 	cdpeq	5, 4, cr0, cr9, cr0, {0}
    586c:	0f010000 	svceq	0x00010000
    5870:	0000002c 	andeq	r0, r0, ip, lsr #32
    5874:	00001b73 	andeq	r1, r0, r3, ror fp
    5878:	0e260600 	cfmadda32eq	mvax0, mvax0, mvfx6, mvfx0
    587c:	17010000 	strne	r0, [r1, -r0]
    5880:	0000ac2c 	andeq	sl, r0, ip, lsr #24
    5884:	00000014 	andeq	r0, r0, r4, lsl r0
    5888:	00c79c01 	sbceq	r9, r7, r1, lsl #24
    588c:	49050000 	stmdbmi	r5, {}	; <UNPREDICTABLE>
    5890:	0100000e 	tsteq	r0, lr
    5894:	00002c18 	andeq	r2, r0, r8, lsl ip
    5898:	001b9200 	andseq	r9, fp, r0, lsl #4
    589c:	91060000 	mrsls	r0, (UNDEF: 6)
    58a0:	0100000b 	tsteq	r0, fp
    58a4:	00ac401f 	adceq	r4, ip, pc, lsl r0
    58a8:	00004800 	andeq	r4, r0, r0, lsl #16
    58ac:	779c0100 	ldrvc	r0, [ip, r0, lsl #2]
    58b0:	07000001 	streq	r0, [r0, -r1]
    58b4:	00000e41 	andeq	r0, r0, r1, asr #28
    58b8:	01772a01 	cmneq	r7, r1, lsl #20
    58bc:	001c0000 	andseq	r0, ip, r0
    58c0:	1e072010 	mcrne	0, 0, r2, cr7, cr0, {0}
    58c4:	0100000e 	tsteq	r0, lr
    58c8:	0001772b 	andeq	r7, r1, fp, lsr #14
    58cc:	10002400 	andne	r2, r0, r0, lsl #8
    58d0:	0e350720 	cdpeq	7, 3, cr0, cr5, cr0, {1}
    58d4:	2c010000 	stccs	0, cr0, [r1], {-0}
    58d8:	00000177 	andeq	r0, r0, r7, ror r1
    58dc:	5a000000 	bpl	58e4 <__code_start__-0x271c>
    58e0:	000e0508 	andeq	r0, lr, r8, lsl #10
    58e4:	772d0100 	strvc	r0, [sp, -r0, lsl #2]!
    58e8:	20000001 	andcs	r0, r0, r1
    58ec:	00ac4809 	adceq	r4, ip, r9, lsl #16
    58f0:	00007900 	andeq	r7, r0, r0, lsl #18
    58f4:	ac540900 	mrrcge	9, 0, r0, r4, cr0
    58f8:	00a20000 	adceq	r0, r2, r0
    58fc:	5c0a0000 	stcpl	0, cr0, [sl], {-0}
    5900:	8d0000ac 	stchi	0, cr0, [r0, #-688]	; 0xfffffd50
    5904:	3a000001 	bcc	5910 <__code_start__-0x26f0>
    5908:	0b000001 	bleq	5914 <__code_start__-0x26ec>
    590c:	4e015001 	cdpmi	0, 0, cr5, cr1, cr1, {0}
    5910:	ac680a00 	stclge	10, cr0, [r8], #-0
    5914:	019e0000 	orrseq	r0, lr, r0
    5918:	015a0000 	cmpeq	sl, r0
    591c:	010b0000 	mrseq	r0, (UNDEF: 11)
    5920:	010c0551 	tsteq	ip, r1, asr r5
    5924:	0b5a0000 	bleq	168592c <__bss_end__+0x1678f64>
    5928:	0c055001 	stceq	0, cr5, [r5], {1}
    592c:	20100024 	andscs	r0, r0, r4, lsr #32
    5930:	ac740c00 	ldclge	12, cr0, [r4], #-0
    5934:	019e0000 	orrseq	r0, lr, r0
    5938:	010b0000 	mrseq	r0, (UNDEF: 11)
    593c:	200c0551 	andcs	r0, ip, r1, asr r5
    5940:	0b5a0000 	bleq	1685948 <__bss_end__+0x1678f80>
    5944:	0c055001 	stceq	0, cr5, [r5], {1}
    5948:	2010001c 	andscs	r0, r0, ip, lsl r0
    594c:	250d0000 	strcs	r0, [sp, #-0]
    5950:	08000000 	stmdaeq	r0, {}	; <UNPREDICTABLE>
    5954:	00000de7 	andeq	r0, r0, r7, ror #27
    5958:	01880d01 	orreq	r0, r8, r1, lsl #26
    595c:	0d100000 	ldceq	0, cr0, [r0, #-0]
    5960:	0000002c 	andeq	r0, r0, ip, lsr #32
    5964:	000b9c0e 	andeq	r9, fp, lr, lsl #24
    5968:	9e4f0200 	cdpls	2, 4, cr0, cr15, cr0, {0}
    596c:	0f000001 	svceq	0x00000001
    5970:	0000002c 	andeq	r0, r0, ip, lsr #32
    5974:	00241000 	eoreq	r1, r4, r0
    5978:	9b020000 	blls	85980 <__bss_end__+0x78fb8>
    597c:	00002c0f 	andeq	r2, r0, pc, lsl #24
    5980:	002c0f00 	eoreq	r0, ip, r0, lsl #30
    5984:	00000000 	andeq	r0, r0, r0
    5988:	000001f7 	strdeq	r0, [r0], -r7
    598c:	15ba0004 	ldrne	r0, [sl, #4]!
    5990:	01040000 	mrseq	r0, (UNDEF: 4)
    5994:	000009bf 			; <UNDEFINED> instruction: 0x000009bf
    5998:	000e6b01 	andeq	r6, lr, r1, lsl #22
    599c:	000a1e00 	andeq	r1, sl, r0, lsl #28
    59a0:	00ac8800 	adceq	r8, ip, r0, lsl #16
    59a4:	00009800 	andeq	r9, r0, r0, lsl #16
    59a8:	0014b200 	andseq	fp, r4, r0, lsl #4
    59ac:	05040200 	streq	r0, [r4, #-512]	; 0x200
    59b0:	00746e69 	rsbseq	r6, r4, r9, ror #28
    59b4:	e7070403 	str	r0, [r7, -r3, lsl #8]
    59b8:	03000001 	movweq	r0, #1
    59bc:	005c0601 	subseq	r0, ip, r1, lsl #12
    59c0:	02030000 	andeq	r0, r3, #0
    59c4:	00022905 	andeq	r2, r2, r5, lsl #18
    59c8:	05040300 	streq	r0, [r4, #-768]	; 0x300
    59cc:	00000202 	andeq	r0, r0, r2, lsl #4
    59d0:	fd050803 	stc2	8, cr0, [r5, #-12]
    59d4:	03000001 	movweq	r0, #1
    59d8:	005a0801 	subseq	r0, sl, r1, lsl #16
    59dc:	02030000 	andeq	r0, r3, #0
    59e0:	00009f07 	andeq	r9, r0, r7, lsl #30
    59e4:	07040300 	streq	r0, [r4, -r0, lsl #6]
    59e8:	000001e2 	andeq	r0, r0, r2, ror #3
    59ec:	dd070803 	stcle	8, cr0, [r7, #-12]
    59f0:	03000001 	movweq	r0, #1
    59f4:	01f40704 	mvnseq	r0, r4, lsl #14
    59f8:	01030000 	mrseq	r0, (UNDEF: 3)
    59fc:	00006308 	andeq	r6, r0, r8, lsl #6
    5a00:	0e830400 	cdpeq	4, 8, cr0, cr3, cr0, {0}
    5a04:	05010000 	streq	r0, [r1, #-0]
    5a08:	0000ac88 	andeq	sl, r0, r8, lsl #25
    5a0c:	0000001c 	andeq	r0, r0, ip, lsl r0
    5a10:	009e9c01 	addseq	r9, lr, r1, lsl #24
    5a14:	7d050000 	stcvc	0, cr0, [r5, #-0]
    5a18:	0100000e 	tsteq	r0, lr
    5a1c:	00002c05 	andeq	r2, r0, r5, lsl #24
    5a20:	001bbc00 	andseq	fp, fp, r0, lsl #24
    5a24:	4e060000 	cdpmi	0, 0, cr0, cr6, cr0, {0}
    5a28:	0100000e 	tsteq	r0, lr
    5a2c:	00002c11 	andeq	r2, r0, r1, lsl ip
    5a30:	00aca400 	adceq	sl, ip, r0, lsl #8
    5a34:	00001400 	andeq	r1, r0, r0, lsl #8
    5a38:	cb9c0100 	blgt	fe705e40 <__bss_end__+0xfe6f9478>
    5a3c:	07000000 	streq	r0, [r0, -r0]
    5a40:	0000acb0 			; <UNDEFINED> instruction: 0x0000acb0
    5a44:	000001de 	ldrdeq	r0, [r0], -lr
    5a48:	05500108 	ldrbeq	r0, [r0, #-264]	; 0x108
    5a4c:	0030040c 	eorseq	r0, r0, ip, lsl #8
    5a50:	06000020 	streq	r0, [r0], -r0, lsr #32
    5a54:	00000e99 	muleq	r0, r9, lr
    5a58:	002c1601 	eoreq	r1, ip, r1, lsl #12
    5a5c:	acb80000 	ldcge	0, cr0, [r8]
    5a60:	001c0000 	andseq	r0, ip, r0
    5a64:	9c010000 	stcls	0, cr0, [r1], {-0}
    5a68:	0000010d 	andeq	r0, r0, sp, lsl #2
    5a6c:	01007509 	tsteq	r0, r9, lsl #10
    5a70:	00002c1a 	andeq	r2, r0, sl, lsl ip
    5a74:	001bf000 	andseq	pc, fp, r0
    5a78:	acc00a00 	vstmiage	r0, {s1-s0}
    5a7c:	01f30000 	mvnseq	r0, r0
    5a80:	c40a0000 	strgt	r0, [sl], #-0
    5a84:	9e0000ac 	cdpls	0, 0, cr0, cr0, cr12, {5}
    5a88:	0a000000 	beq	5a90 <__code_start__-0x2570>
    5a8c:	0000accc 	andeq	sl, r0, ip, asr #25
    5a90:	000001f3 	strdeq	r0, [r0], -r3
    5a94:	0e900400 	cdpeq	4, 9, cr0, cr0, cr0, {0}
    5a98:	1f010000 	svcne	0x00010000
    5a9c:	0000acd4 	ldrdeq	sl, [r0], -r4
    5aa0:	00000024 	andeq	r0, r0, r4, lsr #32
    5aa4:	016b9c01 	cmneq	fp, r1, lsl #24
    5aa8:	750b0000 	strvc	r0, [fp, #-0]
    5aac:	1f010073 	svcne	0x00010073
    5ab0:	0000002c 	andeq	r0, r0, ip, lsr #32
    5ab4:	00001c0e 	andeq	r1, r0, lr, lsl #24
    5ab8:	0062720c 	rsbeq	r7, r2, ip, lsl #4
    5abc:	002c2001 	eoreq	r2, ip, r1
    5ac0:	54010000 	strpl	r0, [r1], #-0
    5ac4:	00ace40d 	adceq	lr, ip, sp, lsl #8
    5ac8:	00001000 	andeq	r1, r0, r0
    5acc:	00016100 	andeq	r6, r1, r0, lsl #2
    5ad0:	61720900 	cmnvs	r2, r0, lsl #18
    5ad4:	2c220100 	stfcss	f0, [r2], #-0
    5ad8:	2c000000 	stccs	0, cr0, [r0], {-0}
    5adc:	0a00001c 	beq	5b54 <__code_start__-0x24ac>
    5ae0:	0000ace8 	andeq	sl, r0, r8, ror #25
    5ae4:	000000cb 	andeq	r0, r0, fp, asr #1
    5ae8:	ace00a00 	vstmiage	r0!, {s1-s0}
    5aec:	00cb0000 	sbceq	r0, fp, r0
    5af0:	04000000 	streq	r0, [r0], #-0
    5af4:	00000b9c 	muleq	r0, ip, fp
    5af8:	acf82801 	ldclge	8, cr2, [r8], #4
    5afc:	00140000 	andseq	r0, r4, r0
    5b00:	9c010000 	stcls	0, cr0, [r1], {-0}
    5b04:	000001a4 	andeq	r0, r0, r4, lsr #3
    5b08:	00736d0b 	rsbseq	r6, r3, fp, lsl #26
    5b0c:	002c2801 	eoreq	r2, ip, r1, lsl #16
    5b10:	1c3f0000 	ldcne	0, cr0, [pc], #-0	; 5b18 <__code_start__-0x24e8>
    5b14:	08070000 	stmdaeq	r7, {}	; <UNPREDICTABLE>
    5b18:	0d0000ad 	stceq	0, cr0, [r0, #-692]	; 0xfffffd4c
    5b1c:	08000001 	stmdaeq	r0, {r0}
    5b20:	f3075001 	vhadd.u8	d5, d7, d1
    5b24:	e80a5001 	stmda	sl, {r0, ip, lr}
    5b28:	00001e03 	andeq	r1, r0, r3, lsl #28
    5b2c:	000e6104 	andeq	r6, lr, r4, lsl #2
    5b30:	0c2b0100 	stfeqs	f0, [fp], #-0
    5b34:	140000ad 	strne	r0, [r0], #-173	; 0xad
    5b38:	01000000 	mrseq	r0, (UNDEF: 0)
    5b3c:	0001de9c 	muleq	r1, ip, lr
    5b40:	65730b00 	ldrbvs	r0, [r3, #-2816]!	; 0xb00
    5b44:	2b010063 	blcs	45cd8 <__bss_end__+0x39310>
    5b48:	0000002c 	andeq	r0, r0, ip, lsr #32
    5b4c:	00001c60 	andeq	r1, r0, r0, ror #24
    5b50:	00ad1c07 	adceq	r1, sp, r7, lsl #24
    5b54:	00016b00 	andeq	r6, r1, r0, lsl #22
    5b58:	50010800 	andpl	r0, r1, r0, lsl #16
    5b5c:	5001f307 	andpl	pc, r1, r7, lsl #6
    5b60:	1e03e80a 	cdpne	8, 0, cr14, cr3, cr10, {0}
    5b64:	410e0000 	mrsmi	r0, (UNDEF: 14)
    5b68:	02000000 	andeq	r0, r0, #0
    5b6c:	00002ca7 	andeq	r2, r0, r7, lsr #25
    5b70:	0001f300 	andeq	pc, r1, r0, lsl #6
    5b74:	002c0f00 	eoreq	r0, ip, r0, lsl #30
    5b78:	10000000 	andne	r0, r0, r0
    5b7c:	00000d8a 	andeq	r0, r0, sl, lsl #27
    5b80:	c5008902 	strgt	r8, [r0, #-2306]	; 0x902
    5b84:	0400000c 	streq	r0, [r0], #-12
    5b88:	0016b000 	andseq	fp, r6, r0
    5b8c:	3e010400 	cfcpyscc	mvf0, mvf1
    5b90:	0c000012 	stceq	0, cr0, [r0], {18}
    5b94:	00000fa7 	andeq	r0, r0, r7, lsr #31
    5b98:	00000fc2 	andeq	r0, r0, r2, asr #31
    5b9c:	0000ad84 	andeq	sl, r0, r4, lsl #27
    5ba0:	00000178 	andeq	r0, r0, r8, ror r1
    5ba4:	00001564 	andeq	r1, r0, r4, ror #10
    5ba8:	69050402 	stmdbvs	r5, {r1, sl}
    5bac:	0300746e 	movweq	r7, #1134	; 0x46e
    5bb0:	01e70704 	mvneq	r0, r4, lsl #14
    5bb4:	2c040000 	stccs	0, cr0, [r4], {-0}
    5bb8:	03000000 	movweq	r0, #0
    5bbc:	005c0601 	subseq	r0, ip, r1, lsl #12
    5bc0:	02030000 	andeq	r0, r3, #0
    5bc4:	00022905 	andeq	r2, r2, r5, lsl #18
    5bc8:	05040300 	streq	r0, [r4, #-768]	; 0x300
    5bcc:	00000202 	andeq	r0, r0, r2, lsl #4
    5bd0:	fd050803 	stc2	8, cr0, [r5, #-12]
    5bd4:	03000001 	movweq	r0, #1
    5bd8:	005a0801 	subseq	r0, sl, r1, lsl #16
    5bdc:	02030000 	andeq	r0, r3, #0
    5be0:	00009f07 	andeq	r9, r0, r7, lsl #30
    5be4:	07040300 	streq	r0, [r4, -r0, lsl #6]
    5be8:	000001e2 	andeq	r0, r0, r2, ror #3
    5bec:	dd070803 	stcle	8, cr0, [r7, #-12]
    5bf0:	05000001 	streq	r0, [r0, #-1]
    5bf4:	00001153 	andeq	r1, r0, r3, asr r1
    5bf8:	00250702 	eoreq	r0, r5, r2, lsl #14
    5bfc:	3d050000 	stccc	0, cr0, [r5, #-0]
    5c00:	03000011 	movweq	r0, #17
    5c04:	0000462c 	andeq	r4, r0, ip, lsr #12
    5c08:	12190500 	andsne	r0, r9, #0, 10
    5c0c:	72030000 	andvc	r0, r3, #0
    5c10:	00000046 	andeq	r0, r0, r6, asr #32
    5c14:	0010e706 	andseq	lr, r0, r6, lsl #14
    5c18:	01650400 	cmneq	r5, r0, lsl #8
    5c1c:	0000002c 	andeq	r0, r0, ip, lsr #32
    5c20:	a6030407 	strge	r0, [r3], -r7, lsl #8
    5c24:	000000bc 	strheq	r0, [r0], -ip
    5c28:	0010d208 	andseq	sp, r0, r8, lsl #4
    5c2c:	91a80300 			; <UNDEFINED> instruction: 0x91a80300
    5c30:	08000000 	stmdaeq	r0, {}	; <UNPREDICTABLE>
    5c34:	0000107a 	andeq	r1, r0, sl, ror r0
    5c38:	00bca903 	adcseq	sl, ip, r3, lsl #18
    5c3c:	09000000 	stmdbeq	r0, {}	; <UNPREDICTABLE>
    5c40:	00000054 	andeq	r0, r0, r4, asr r0
    5c44:	000000cc 	andeq	r0, r0, ip, asr #1
    5c48:	0000cc0a 	andeq	ip, r0, sl, lsl #24
    5c4c:	03000300 	movweq	r0, #768	; 0x300
    5c50:	01f40704 	mvnseq	r0, r4, lsl #14
    5c54:	080b0000 	stmdaeq	fp, {}	; <UNPREDICTABLE>
    5c58:	00f4a303 	rscseq	sl, r4, r3, lsl #6
    5c5c:	fe0c0000 	cdp2	0, 0, cr0, cr12, cr0, {0}
    5c60:	03000011 	movweq	r0, #17
    5c64:	000025a5 	andeq	r2, r0, r5, lsr #11
    5c68:	060c0000 	streq	r0, [ip], -r0
    5c6c:	03000012 	movweq	r0, #18
    5c70:	00009daa 	andeq	r9, r0, sl, lsr #27
    5c74:	05000400 	streq	r0, [r0, #-1024]	; 0x400
    5c78:	00001191 	muleq	r0, r1, r1
    5c7c:	00d3ab03 	sbcseq	sl, r3, r3, lsl #22
    5c80:	43050000 	movwmi	r0, #20480	; 0x5000
    5c84:	03000010 	movweq	r0, #16
    5c88:	000070af 	andeq	r7, r0, pc, lsr #1
    5c8c:	0e040d00 	cdpeq	13, 0, cr0, cr4, cr0, {0}
    5c90:	00011204 	andeq	r1, r1, r4, lsl #4
    5c94:	08010300 	stmdaeq	r1, {r8, r9}
    5c98:	00000063 	andeq	r0, r0, r3, rrx
    5c9c:	0001120f 	andeq	r1, r1, pc, lsl #4
    5ca0:	12bb0500 	adcsne	r0, fp, #0, 10
    5ca4:	16050000 	strne	r0, [r5], -r0
    5ca8:	00000062 	andeq	r0, r0, r2, rrx
    5cac:	00105410 	andseq	r5, r0, r0, lsl r4
    5cb0:	2d051800 	stccs	8, cr1, [r5, #-0]
    5cb4:	0000017c 	andeq	r0, r0, ip, ror r1
    5cb8:	0011b20c 	andseq	fp, r1, ip, lsl #4
    5cbc:	7c2f0500 	cfstr32vc	mvfx0, [pc], #-0	; 5cc4 <__code_start__-0x233c>
    5cc0:	00000001 	andeq	r0, r0, r1
    5cc4:	006b5f11 	rsbeq	r5, fp, r1, lsl pc
    5cc8:	00253005 	eoreq	r3, r5, r5
    5ccc:	0c040000 	stceq	0, cr0, [r4], {-0}
    5cd0:	000011e9 	andeq	r1, r0, r9, ror #3
    5cd4:	00253005 	eoreq	r3, r5, r5
    5cd8:	0c080000 	stceq	0, cr0, [r8], {-0}
    5cdc:	0000102f 	andeq	r1, r0, pc, lsr #32
    5ce0:	00253005 	eoreq	r3, r5, r5
    5ce4:	0c0c0000 	stceq	0, cr0, [ip], {-0}
    5ce8:	00001302 	andeq	r1, r0, r2, lsl #6
    5cec:	00253005 	eoreq	r3, r5, r5
    5cf0:	11100000 	tstne	r0, r0
    5cf4:	0500785f 	streq	r7, [r0, #-2143]	; 0x85f
    5cf8:	00018231 	andeq	r8, r1, r1, lsr r2
    5cfc:	0e001400 	cfcpyseq	mvf1, mvf0
    5d00:	00012904 	andeq	r2, r1, r4, lsl #18
    5d04:	011e0900 	tsteq	lr, r0, lsl #18
    5d08:	01920000 	orrseq	r0, r2, r0
    5d0c:	cc0a0000 	stcgt	0, cr0, [sl], {-0}
    5d10:	00000000 	andeq	r0, r0, r0
    5d14:	10751000 	rsbsne	r1, r5, r0
    5d18:	05240000 	streq	r0, [r4, #-0]!
    5d1c:	00020b35 	andeq	r0, r2, r5, lsr fp
    5d20:	0f2d0c00 	svceq	0x002d0c00
    5d24:	37050000 	strcc	r0, [r5, -r0]
    5d28:	00000025 	andeq	r0, r0, r5, lsr #32
    5d2c:	12210c00 	eorne	r0, r1, #0, 24
    5d30:	38050000 	stmdacc	r5, {}	; <UNPREDICTABLE>
    5d34:	00000025 	andeq	r0, r0, r5, lsr #32
    5d38:	0f5b0c04 	svceq	0x005b0c04
    5d3c:	39050000 	stmdbcc	r5, {}	; <UNPREDICTABLE>
    5d40:	00000025 	andeq	r0, r0, r5, lsr #32
    5d44:	13f20c08 	mvnsne	r0, #8, 24	; 0x800
    5d48:	3a050000 	bcc	145d50 <__bss_end__+0x139388>
    5d4c:	00000025 	andeq	r0, r0, r5, lsr #32
    5d50:	11210c0c 	teqne	r1, ip, lsl #24
    5d54:	3b050000 	blcc	145d5c <__bss_end__+0x139394>
    5d58:	00000025 	andeq	r0, r0, r5, lsr #32
    5d5c:	10f60c10 	rscsne	r0, r6, r0, lsl ip
    5d60:	3c050000 	stccc	0, cr0, [r5], {-0}
    5d64:	00000025 	andeq	r0, r0, r5, lsr #32
    5d68:	13070c14 	movwne	r0, #31764	; 0x7c14
    5d6c:	3d050000 	stccc	0, cr0, [r5, #-0]
    5d70:	00000025 	andeq	r0, r0, r5, lsr #32
    5d74:	11730c18 	cmnne	r3, r8, lsl ip
    5d78:	3e050000 	cdpcc	0, 0, cr0, cr5, cr0, {0}
    5d7c:	00000025 	andeq	r0, r0, r5, lsr #32
    5d80:	13b90c1c 			; <UNDEFINED> instruction: 0x13b90c1c
    5d84:	3f050000 	svccc	0x00050000
    5d88:	00000025 	andeq	r0, r0, r5, lsr #32
    5d8c:	6a120020 	bvs	485e14 <__bss_end__+0x47944c>
    5d90:	0800000f 	stmdaeq	r0, {r0, r1, r2, r3}
    5d94:	4b480501 	blmi	12071a0 <__bss_end__+0x11fa7d8>
    5d98:	0c000002 	stceq	0, cr0, [r0], {2}
    5d9c:	00001016 	andeq	r1, r0, r6, lsl r0
    5da0:	024b4905 	subeq	r4, fp, #81920	; 0x14000
    5da4:	0c000000 	stceq	0, cr0, [r0], {-0}
    5da8:	00000ea8 	andeq	r0, r0, r8, lsr #29
    5dac:	024b4a05 	subeq	r4, fp, #20480	; 0x5000
    5db0:	13800000 	orrne	r0, r0, #0
    5db4:	000012ad 	andeq	r1, r0, sp, lsr #5
    5db8:	011e4c05 	tsteq	lr, r5, lsl #24
    5dbc:	01000000 	mrseq	r0, (UNDEF: 0)
    5dc0:	000f8f13 	andeq	r8, pc, r3, lsl pc	; <UNPREDICTABLE>
    5dc4:	1e4f0500 	cdpne	5, 4, cr0, cr15, cr0, {0}
    5dc8:	04000001 	streq	r0, [r0], #-1
    5dcc:	0a090001 	beq	245dd8 <__bss_end__+0x239410>
    5dd0:	5b000001 	blpl	5ddc <__code_start__-0x2224>
    5dd4:	0a000002 	beq	5de4 <__code_start__-0x221c>
    5dd8:	000000cc 	andeq	r0, r0, ip, asr #1
    5ddc:	2a12001f 	bcs	485e60 <__bss_end__+0x479498>
    5de0:	90000011 	andls	r0, r0, r1, lsl r0
    5de4:	995b0501 	ldmdbls	fp, {r0, r8, sl}^
    5de8:	0c000002 	stceq	0, cr0, [r0], {2}
    5dec:	000011b2 			; <UNDEFINED> instruction: 0x000011b2
    5df0:	02995c05 	addseq	r5, r9, #1280	; 0x500
    5df4:	0c000000 	stceq	0, cr0, [r0], {-0}
    5df8:	000011ca 	andeq	r1, r0, sl, asr #3
    5dfc:	00255d05 	eoreq	r5, r5, r5, lsl #26
    5e00:	0c040000 	stceq	0, cr0, [r4], {-0}
    5e04:	0000102a 	andeq	r1, r0, sl, lsr #32
    5e08:	029f5f05 	addseq	r5, pc, #5, 30
    5e0c:	0c080000 	stceq	0, cr0, [r8], {-0}
    5e10:	00000f6a 	andeq	r0, r0, sl, ror #30
    5e14:	020b6005 	andeq	r6, fp, #5
    5e18:	00880000 	addeq	r0, r8, r0
    5e1c:	025b040e 	subseq	r0, fp, #234881024	; 0xe000000
    5e20:	af090000 	svcge	0x00090000
    5e24:	af000002 	svcge	0x00000002
    5e28:	0a000002 	beq	5e38 <__code_start__-0x21c8>
    5e2c:	000000cc 	andeq	r0, r0, ip, asr #1
    5e30:	040e001f 	streq	r0, [lr], #-31
    5e34:	000002b5 			; <UNDEFINED> instruction: 0x000002b5
    5e38:	117d1014 	cmnne	sp, r4, lsl r0
    5e3c:	05080000 	streq	r0, [r8, #-0]
    5e40:	0002db73 	andeq	sp, r2, r3, ror fp
    5e44:	0f500c00 	svceq	0x00500c00
    5e48:	74050000 	strvc	r0, [r5], #-0
    5e4c:	000002db 	ldrdeq	r0, [r0], -fp
    5e50:	0eb40c00 	cdpeq	12, 11, cr0, cr4, cr0, {0}
    5e54:	75050000 	strvc	r0, [r5, #-0]
    5e58:	00000025 	andeq	r0, r0, r5, lsr #32
    5e5c:	040e0004 	streq	r0, [lr], #-4
    5e60:	00000054 	andeq	r0, r0, r4, asr r0
    5e64:	00119c10 	andseq	r9, r1, r0, lsl ip
    5e68:	b3056800 	movwlt	r6, #22528	; 0x5800
    5e6c:	0000040b 	andeq	r0, r0, fp, lsl #8
    5e70:	00705f11 	rsbseq	r5, r0, r1, lsl pc
    5e74:	02dbb405 	sbcseq	fp, fp, #83886080	; 0x5000000
    5e78:	11000000 	mrsne	r0, (UNDEF: 0)
    5e7c:	0500725f 	streq	r7, [r0, #-607]	; 0x25f
    5e80:	000025b5 			; <UNDEFINED> instruction: 0x000025b5
    5e84:	5f110400 	svcpl	0x00110400
    5e88:	b6050077 			; <UNDEFINED> instruction: 0xb6050077
    5e8c:	00000025 	andeq	r0, r0, r5, lsr #32
    5e90:	0f880c08 	svceq	0x00880c08
    5e94:	b7050000 	strlt	r0, [r5, -r0]
    5e98:	0000003f 	andeq	r0, r0, pc, lsr r0
    5e9c:	109b0c0c 	addsne	r0, fp, ip, lsl #24
    5ea0:	b8050000 	stmdalt	r5, {}	; <UNPREDICTABLE>
    5ea4:	0000003f 	andeq	r0, r0, pc, lsr r0
    5ea8:	625f110e 	subsvs	r1, pc, #-2147483645	; 0x80000003
    5eac:	b9050066 	stmdblt	r5, {r1, r2, r5, r6}
    5eb0:	000002b6 			; <UNDEFINED> instruction: 0x000002b6
    5eb4:	0ef70c10 	mrceq	12, 7, r0, cr7, cr0, {0}
    5eb8:	ba050000 	blt	145ec0 <__bss_end__+0x1394f8>
    5ebc:	00000025 	andeq	r0, r0, r5, lsr #32
    5ec0:	0f780c18 	svceq	0x00780c18
    5ec4:	c1050000 	mrsgt	r0, (UNDEF: 5)
    5ec8:	0000010a 	andeq	r0, r0, sl, lsl #2
    5ecc:	14190c1c 	ldrne	r0, [r9], #-3100	; 0xc1c
    5ed0:	c3050000 	movwgt	r0, #20480	; 0x5000
    5ed4:	00000566 	andeq	r0, r0, r6, ror #10
    5ed8:	14330c20 	ldrtne	r0, [r3], #-3104	; 0xc20
    5edc:	c5050000 	strgt	r0, [r5, #-0]
    5ee0:	00000590 	muleq	r0, r0, r5
    5ee4:	120e0c24 	andne	r0, lr, #36, 24	; 0x2400
    5ee8:	c8050000 	stmdagt	r5, {}	; <UNPREDICTABLE>
    5eec:	000005b4 			; <UNDEFINED> instruction: 0x000005b4
    5ef0:	13d30c28 	bicsne	r0, r3, #40, 24	; 0x2800
    5ef4:	c9050000 	stmdbgt	r5, {}	; <UNPREDICTABLE>
    5ef8:	000005ce 	andeq	r0, r0, lr, asr #11
    5efc:	755f112c 	ldrbvc	r1, [pc, #-300]	; 5dd8 <__code_start__-0x2228>
    5f00:	cc050062 	stcgt	0, cr0, [r5], {98}	; 0x62
    5f04:	000002b6 			; <UNDEFINED> instruction: 0x000002b6
    5f08:	755f1130 	ldrbvc	r1, [pc, #-304]	; 5de0 <__code_start__-0x2220>
    5f0c:	cd050070 	stcgt	0, cr0, [r5, #-448]	; 0xfffffe40
    5f10:	000002db 	ldrdeq	r0, [r0], -fp
    5f14:	755f1138 	ldrbvc	r1, [pc, #-312]	; 5de4 <__code_start__-0x221c>
    5f18:	ce050072 	mcrgt	0, 0, r0, cr5, cr2, {3}
    5f1c:	00000025 	andeq	r0, r0, r5, lsr #32
    5f20:	0f3b0c3c 	svceq	0x003b0c3c
    5f24:	d1050000 	mrsle	r0, (UNDEF: 5)
    5f28:	000005d4 	ldrdeq	r0, [r0], -r4
    5f2c:	137e0c40 	cmnne	lr, #64, 24	; 0x4000
    5f30:	d2050000 	andle	r0, r5, #0
    5f34:	000005e4 	andeq	r0, r0, r4, ror #11
    5f38:	6c5f1143 	ldfvse	f1, [pc], {67}	; 0x43
    5f3c:	d5050062 	strle	r0, [r5, #-98]	; 0x62
    5f40:	000002b6 			; <UNDEFINED> instruction: 0x000002b6
    5f44:	0f9e0c44 	svceq	0x009e0c44
    5f48:	d8050000 	stmdale	r5, {}	; <UNPREDICTABLE>
    5f4c:	00000025 	andeq	r0, r0, r5, lsr #32
    5f50:	11000c4c 	tstne	r0, ip, asr #24
    5f54:	d9050000 	stmdble	r5, {}	; <UNPREDICTABLE>
    5f58:	0000007b 	andeq	r0, r0, fp, ror r0
    5f5c:	13690c50 	cmnne	r9, #80, 24	; 0x5000
    5f60:	dc050000 	stcle	0, cr0, [r5], {-0}
    5f64:	00000429 	andeq	r0, r0, r9, lsr #8
    5f68:	07230c54 			; <UNDEFINED> instruction: 0x07230c54
    5f6c:	e0050000 	and	r0, r5, r0
    5f70:	000000ff 	strdeq	r0, [r0], -pc	; <UNPREDICTABLE>
    5f74:	11a40c58 			; <UNDEFINED> instruction: 0x11a40c58
    5f78:	e2050000 	and	r0, r5, #0
    5f7c:	000000f4 	strdeq	r0, [r0], -r4
    5f80:	10ee0c5c 	rscne	r0, lr, ip, asr ip
    5f84:	e3050000 	movw	r0, #20480	; 0x5000
    5f88:	00000025 	andeq	r0, r0, r5, lsr #32
    5f8c:	25150064 	ldrcs	r0, [r5, #-100]	; 0x64
    5f90:	29000000 	stmdbcs	r0, {}	; <UNPREDICTABLE>
    5f94:	16000004 	strne	r0, [r0], -r4
    5f98:	00000429 	andeq	r0, r0, r9, lsr #8
    5f9c:	00010a16 	andeq	r0, r1, r6, lsl sl
    5fa0:	010c1600 	tsteq	ip, r0, lsl #12
    5fa4:	25160000 	ldrcs	r0, [r6, #-0]
    5fa8:	00000000 	andeq	r0, r0, r0
    5fac:	0434040e 	ldrteq	r0, [r4], #-1038	; 0x40e
    5fb0:	290f0000 	stmdbcs	pc, {}	; <UNPREDICTABLE>
    5fb4:	17000004 	strne	r0, [r0, -r4]
    5fb8:	000011f1 	strdeq	r1, [r0], -r1	; <UNPREDICTABLE>
    5fbc:	38050428 	stmdacc	r5, {r3, r5, sl}
    5fc0:	00056602 	andeq	r6, r5, r2, lsl #12
    5fc4:	116c1800 	cmnne	ip, r0, lsl #16
    5fc8:	3a050000 	bcc	145fd0 <__bss_end__+0x139608>
    5fcc:	00002502 	andeq	r2, r0, r2, lsl #10
    5fd0:	97180000 	ldrls	r0, [r8, -r0]
    5fd4:	0500000f 	streq	r0, [r0, #-15]
    5fd8:	063b023f 			; <UNDEFINED> instruction: 0x063b023f
    5fdc:	18040000 	stmdane	r4, {}	; <UNPREDICTABLE>
    5fe0:	0000108b 	andeq	r1, r0, fp, lsl #1
    5fe4:	3b023f05 	blcc	95c00 <__bss_end__+0x89238>
    5fe8:	08000006 	stmdaeq	r0, {r1, r2}
    5fec:	00104c18 	andseq	r4, r0, r8, lsl ip
    5ff0:	023f0500 	eorseq	r0, pc, #0, 10
    5ff4:	0000063b 	andeq	r0, r0, fp, lsr r6
    5ff8:	11c5180c 	bicne	r1, r5, ip, lsl #16
    5ffc:	41050000 	mrsmi	r0, (UNDEF: 5)
    6000:	00002502 	andeq	r2, r0, r2, lsl #10
    6004:	c2181000 	andsgt	r1, r8, #0
    6008:	0500000e 	streq	r0, [r0, #-14]
    600c:	081d0242 	ldmdaeq	sp, {r1, r6, r9}
    6010:	18140000 	ldmdane	r4, {}	; <UNPREDICTABLE>
    6014:	000012e3 	andeq	r1, r0, r3, ror #5
    6018:	25024405 	strcs	r4, [r2, #-1029]	; 0x405
    601c:	30000000 	andcc	r0, r0, r0
    6020:	0011cf18 	andseq	ip, r1, r8, lsl pc
    6024:	02450500 	subeq	r0, r5, #0, 10
    6028:	0000058a 	andeq	r0, r0, sl, lsl #11
    602c:	11321834 	teqne	r2, r4, lsr r8
    6030:	47050000 	strmi	r0, [r5, -r0]
    6034:	00002502 	andeq	r2, r0, r2, lsl #10
    6038:	df183800 	svcle	0x00183800
    603c:	05000011 	streq	r0, [r0, #-17]
    6040:	08380249 	ldmdaeq	r8!, {r0, r3, r6, r9}
    6044:	183c0000 	ldmdane	ip!, {}	; <UNPREDICTABLE>
    6048:	000010ca 	andeq	r1, r0, sl, asr #1
    604c:	7c024c05 	stcvc	12, cr4, [r2], {5}
    6050:	40000001 	andmi	r0, r0, r1
    6054:	00106b18 	andseq	r6, r0, r8, lsl fp
    6058:	024d0500 	subeq	r0, sp, #0, 10
    605c:	00000025 	andeq	r0, r0, r5, lsr #32
    6060:	13ed1844 	mvnne	r1, #68, 16	; 0x440000
    6064:	4e050000 	cdpmi	0, 0, cr0, cr5, cr0, {0}
    6068:	00017c02 	andeq	r7, r1, r2, lsl #24
    606c:	49184800 	ldmdbmi	r8, {fp, lr}
    6070:	05000011 	streq	r0, [r0, #-17]
    6074:	083e024f 	ldmdaeq	lr!, {r0, r1, r2, r3, r6, r9}
    6078:	184c0000 	stmdane	ip, {}^	; <UNPREDICTABLE>
    607c:	00001093 	muleq	r0, r3, r0
    6080:	25025205 	strcs	r5, [r2, #-517]	; 0x205
    6084:	50000000 	andpl	r0, r0, r0
    6088:	000fba18 	andeq	fp, pc, r8, lsl sl	; <UNPREDICTABLE>
    608c:	02530500 	subseq	r0, r3, #0, 10
    6090:	0000010c 	andeq	r0, r0, ip, lsl #2
    6094:	11651854 	cmnne	r5, r4, asr r8
    6098:	76050000 	strvc	r0, [r5], -r0
    609c:	0007fb02 	andeq	pc, r7, r2, lsl #22
    60a0:	2a195800 	bcs	65c0a8 <__bss_end__+0x64f6e0>
    60a4:	05000011 	streq	r0, [r0, #-17]
    60a8:	0299027a 	addseq	r0, r9, #-1610612729	; 0xa0000007
    60ac:	01480000 	mrseq	r0, (UNDEF: 72)
    60b0:	0010a819 	andseq	sl, r0, r9, lsl r8
    60b4:	027b0500 	rsbseq	r0, fp, #0, 10
    60b8:	0000025b 	andeq	r0, r0, fp, asr r2
    60bc:	4f19014c 	svcmi	0x0019014c
    60c0:	05000013 	streq	r0, [r0, #-19]
    60c4:	084f027f 	stmdaeq	pc, {r0, r1, r2, r3, r4, r5, r6, r9}^	; <UNPREDICTABLE>
    60c8:	02dc0000 	sbcseq	r0, ip, #0
    60cc:	000f8019 	andeq	r8, pc, r9, lsl r0	; <UNPREDICTABLE>
    60d0:	02840500 	addeq	r0, r4, #0, 10
    60d4:	00000600 	andeq	r0, r0, r0, lsl #12
    60d8:	651902e0 	ldrvs	r0, [r9, #-736]	; 0x2e0
    60dc:	0500000f 	streq	r0, [r0, #-15]
    60e0:	085b0285 	ldmdaeq	fp, {r0, r2, r7, r9}^
    60e4:	02ec0000 	rsceq	r0, ip, #0
    60e8:	0b040e00 	bleq	1098f0 <__bss_end__+0xfcf28>
    60ec:	15000004 	strne	r0, [r0, #-4]
    60f0:	00000025 	andeq	r0, r0, r5, lsr #32
    60f4:	0000058a 	andeq	r0, r0, sl, lsl #11
    60f8:	00042916 	andeq	r2, r4, r6, lsl r9
    60fc:	010a1600 	tsteq	sl, r0, lsl #12
    6100:	8a160000 	bhi	586108 <__bss_end__+0x579740>
    6104:	16000005 	strne	r0, [r0], -r5
    6108:	00000025 	andeq	r0, r0, r5, lsr #32
    610c:	19040e00 	stmdbne	r4, {r9, sl, fp}
    6110:	0e000001 	cdpeq	0, 0, cr0, cr0, cr1, {0}
    6114:	00056c04 	andeq	r6, r5, r4, lsl #24
    6118:	00861500 	addeq	r1, r6, r0, lsl #10
    611c:	05b40000 	ldreq	r0, [r4, #0]!
    6120:	29160000 	ldmdbcs	r6, {}	; <UNPREDICTABLE>
    6124:	16000004 	strne	r0, [r0], -r4
    6128:	0000010a 	andeq	r0, r0, sl, lsl #2
    612c:	00008616 	andeq	r8, r0, r6, lsl r6
    6130:	00251600 	eoreq	r1, r5, r0, lsl #12
    6134:	0e000000 	cdpeq	0, 0, cr0, cr0, cr0, {0}
    6138:	00059604 	andeq	r9, r5, r4, lsl #12
    613c:	00251500 	eoreq	r1, r5, r0, lsl #10
    6140:	05ce0000 	strbeq	r0, [lr]
    6144:	29160000 	ldmdbcs	r6, {}	; <UNPREDICTABLE>
    6148:	16000004 	strne	r0, [r0], -r4
    614c:	0000010a 	andeq	r0, r0, sl, lsl #2
    6150:	ba040e00 	blt	109958 <__bss_end__+0xfcf90>
    6154:	09000005 	stmdbeq	r0, {r0, r2}
    6158:	00000054 	andeq	r0, r0, r4, asr r0
    615c:	000005e4 	andeq	r0, r0, r4, ror #11
    6160:	0000cc0a 	andeq	ip, r0, sl, lsl #24
    6164:	09000200 	stmdbeq	r0, {r9}
    6168:	00000054 	andeq	r0, r0, r4, asr r0
    616c:	000005f4 	strdeq	r0, [r0], -r4
    6170:	0000cc0a 	andeq	ip, r0, sl, lsl #24
    6174:	06000000 	streq	r0, [r0], -r0
    6178:	0000118a 	andeq	r1, r0, sl, lsl #3
    617c:	e1011d05 	tst	r1, r5, lsl #26
    6180:	1a000002 	bne	6190 <__code_start__-0x1e70>
    6184:	00001311 	andeq	r1, r0, r1, lsl r3
    6188:	0121050c 	teqeq	r1, ip, lsl #10
    618c:	00000635 	andeq	r0, r0, r5, lsr r6
    6190:	0011b218 	andseq	fp, r1, r8, lsl r2
    6194:	01230500 	teqeq	r3, r0, lsl #10
    6198:	00000635 	andeq	r0, r0, r5, lsr r6
    619c:	10a11800 	adcne	r1, r1, r0, lsl #16
    61a0:	24050000 	strcs	r0, [r5], #-0
    61a4:	00002501 	andeq	r2, r0, r1, lsl #10
    61a8:	84180400 	ldrhi	r0, [r8], #-1024	; 0x400
    61ac:	05000011 	streq	r0, [r0, #-17]
    61b0:	063b0125 	ldrteq	r0, [fp], -r5, lsr #2
    61b4:	00080000 	andeq	r0, r8, r0
    61b8:	0600040e 	streq	r0, [r0], -lr, lsl #8
    61bc:	040e0000 	streq	r0, [lr], #-0
    61c0:	000005f4 	strdeq	r0, [r0], -r4
    61c4:	000eba1a 	andeq	fp, lr, sl, lsl sl
    61c8:	3d050e00 	stccc	14, cr0, [r5, #-0]
    61cc:	00067601 	andeq	r7, r6, r1, lsl #12
    61d0:	11f81800 	mvnsne	r1, r0, lsl #16
    61d4:	3e050000 	cdpcc	0, 0, cr0, cr5, cr0, {0}
    61d8:	00067601 	andeq	r7, r6, r1, lsl #12
    61dc:	32180000 	andscc	r0, r8, #0
    61e0:	05000012 	streq	r0, [r0, #-18]
    61e4:	0676013f 			; <UNDEFINED> instruction: 0x0676013f
    61e8:	18060000 	stmdane	r6, {}	; <UNPREDICTABLE>
    61ec:	000012b6 			; <UNDEFINED> instruction: 0x000012b6
    61f0:	5b014005 	blpl	5620c <__bss_end__+0x49844>
    61f4:	0c000000 	stceq	0, cr0, [r0], {-0}
    61f8:	005b0900 	subseq	r0, fp, r0, lsl #18
    61fc:	06860000 	streq	r0, [r6], r0
    6200:	cc0a0000 	stcgt	0, cr0, [sl], {-0}
    6204:	02000000 	andeq	r0, r0, #0
    6208:	05d01b00 	ldrbeq	r1, [r0, #2816]	; 0xb00
    620c:	07870257 			; <UNDEFINED> instruction: 0x07870257
    6210:	f5180000 			; <UNDEFINED> instruction: 0xf5180000
    6214:	05000012 	streq	r0, [r0, #-18]
    6218:	002c0259 	eoreq	r0, ip, r9, asr r2
    621c:	18000000 	stmdane	r0, {}	; <UNPREDICTABLE>
    6220:	000012a0 	andeq	r1, r0, r0, lsr #5
    6224:	0c025a05 	stceq	10, cr5, [r2], {5}
    6228:	04000001 	streq	r0, [r0], #-1
    622c:	0010bd18 	andseq	fp, r0, r8, lsl sp
    6230:	025b0500 	subseq	r0, fp, #0, 10
    6234:	00000787 	andeq	r0, r0, r7, lsl #15
    6238:	13c41808 	bicne	r1, r4, #8, 16	; 0x80000
    623c:	5c050000 	stcpl	0, cr0, [r5], {-0}
    6240:	00019202 	andeq	r9, r1, r2, lsl #4
    6244:	5c182400 	cfldrspl	mvf2, [r8], {-0}
    6248:	05000010 	streq	r0, [r0, #-16]
    624c:	0025025d 	eoreq	r0, r5, sp, asr r2
    6250:	18480000 	stmdane	r8, {}^	; <UNPREDICTABLE>
    6254:	000011ad 	andeq	r1, r0, sp, lsr #3
    6258:	69025e05 	stmdbvs	r2, {r0, r2, r9, sl, fp, ip, lr}
    625c:	50000000 	andpl	r0, r0, r0
    6260:	0013da18 	andseq	sp, r3, r8, lsl sl
    6264:	025f0500 	subseq	r0, pc, #0, 10
    6268:	00000641 	andeq	r0, r0, r1, asr #12
    626c:	11b81858 			; <UNDEFINED> instruction: 0x11b81858
    6270:	60050000 	andvs	r0, r5, r0
    6274:	0000f402 	andeq	pc, r0, r2, lsl #8
    6278:	df186800 	svcle	0x00186800
    627c:	05000013 	streq	r0, [r0, #-19]
    6280:	00f40261 	rscseq	r0, r4, r1, ror #4
    6284:	18700000 	ldmdane	r0!, {}^	; <UNPREDICTABLE>
    6288:	00000f1f 	andeq	r0, r0, pc, lsl pc
    628c:	f4026205 	vst1.8	{d6-d9}, [r2], r5
    6290:	78000000 	stmdavc	r0, {}	; <UNPREDICTABLE>
    6294:	00133118 	andseq	r3, r3, r8, lsl r1
    6298:	02630500 	rsbeq	r0, r3, #0, 10
    629c:	00000797 	muleq	r0, r7, r7
    62a0:	10b11880 	adcsne	r1, r1, r0, lsl #17
    62a4:	64050000 	strvs	r0, [r5], #-0
    62a8:	0007a702 	andeq	sl, r7, r2, lsl #14
    62ac:	c3188800 	tstgt	r8, #0, 16
    62b0:	05000012 	streq	r0, [r0, #-18]
    62b4:	00250265 	eoreq	r0, r5, r5, ror #4
    62b8:	18a00000 	stmiane	r0!, {}	; <UNPREDICTABLE>
    62bc:	00001008 	andeq	r1, r0, r8
    62c0:	f4026605 	vst1.8	{d6-d8}, [r2], r5
    62c4:	a4000000 	strge	r0, [r0], #-0
    62c8:	000f1018 	andeq	r1, pc, r8, lsl r0	; <UNPREDICTABLE>
    62cc:	02670500 	rsbeq	r0, r7, #0, 10
    62d0:	000000f4 	strdeq	r0, [r0], -r4
    62d4:	0ff718ac 	svceq	0x00f718ac
    62d8:	68050000 	stmdavs	r5, {}	; <UNPREDICTABLE>
    62dc:	0000f402 	andeq	pc, r0, r2, lsl #8
    62e0:	d718b400 	ldrle	fp, [r8, -r0, lsl #8]
    62e4:	0500000e 	streq	r0, [r0, #-14]
    62e8:	00f40269 	rscseq	r0, r4, r9, ror #4
    62ec:	18bc0000 	ldmne	ip!, {}	; <UNPREDICTABLE>
    62f0:	00000ee6 	andeq	r0, r0, r6, ror #29
    62f4:	f4026a05 	vst1.8	{d6-d7}, [r2], r5
    62f8:	c4000000 	strgt	r0, [r0], #-0
    62fc:	00116a18 	andseq	r6, r1, r8, lsl sl
    6300:	026b0500 	rsbeq	r0, fp, #0, 10
    6304:	00000025 	andeq	r0, r0, r5, lsr #32
    6308:	120900cc 	andne	r0, r9, #204	; 0xcc
    630c:	97000001 	strls	r0, [r0, -r1]
    6310:	0a000007 	beq	6334 <__code_start__-0x1ccc>
    6314:	000000cc 	andeq	r0, r0, ip, asr #1
    6318:	12090019 	andne	r0, r9, #25
    631c:	a7000001 	strge	r0, [r0, -r1]
    6320:	0a000007 	beq	6344 <__code_start__-0x1cbc>
    6324:	000000cc 	andeq	r0, r0, ip, asr #1
    6328:	12090007 	andne	r0, r9, #7
    632c:	b7000001 	strlt	r0, [r0, -r1]
    6330:	0a000007 	beq	6354 <__code_start__-0x1cac>
    6334:	000000cc 	andeq	r0, r0, ip, asr #1
    6338:	f01b0017 			; <UNDEFINED> instruction: 0xf01b0017
    633c:	db027005 	blle	a2358 <__bss_end__+0x95990>
    6340:	18000007 	stmdane	r0, {r0, r1, r2}
    6344:	0000111a 	andeq	r1, r0, sl, lsl r1
    6348:	db027305 	blle	a2f64 <__bss_end__+0x9659c>
    634c:	00000007 	andeq	r0, r0, r7
    6350:	00132818 	andseq	r2, r3, r8, lsl r8
    6354:	02740500 	rsbseq	r0, r4, #0, 10
    6358:	000007eb 	andeq	r0, r0, fp, ror #15
    635c:	db090078 	blle	246544 <__bss_end__+0x239b7c>
    6360:	eb000002 	bl	6370 <__code_start__-0x1c90>
    6364:	0a000007 	beq	6388 <__code_start__-0x1c78>
    6368:	000000cc 	andeq	r0, r0, ip, asr #1
    636c:	2c09001d 	stccs	0, cr0, [r9], {29}
    6370:	fb000000 	blx	637a <__code_start__-0x1c86>
    6374:	0a000007 	beq	6398 <__code_start__-0x1c68>
    6378:	000000cc 	andeq	r0, r0, ip, asr #1
    637c:	f01c001d 			; <UNDEFINED> instruction: 0xf01c001d
    6380:	1d025505 	cfstr32ne	mvfx5, [r2, #-20]	; 0xffffffec
    6384:	1d000008 	stcne	0, cr0, [r0, #-32]	; 0xffffffe0
    6388:	000011f1 	strdeq	r1, [r0], -r1	; <UNPREDICTABLE>
    638c:	86026c05 	strhi	r6, [r2], -r5, lsl #24
    6390:	1d000006 	stcne	0, cr0, [r0, #-24]	; 0xffffffe8
    6394:	00001384 	andeq	r1, r0, r4, lsl #7
    6398:	b7027505 	strlt	r7, [r2, -r5, lsl #10]
    639c:	00000007 	andeq	r0, r0, r7
    63a0:	00011209 	andeq	r1, r1, r9, lsl #4
    63a4:	00082d00 	andeq	r2, r8, r0, lsl #26
    63a8:	00cc0a00 	sbceq	r0, ip, r0, lsl #20
    63ac:	00180000 	andseq	r0, r8, r0
    63b0:	0008381e 	andeq	r3, r8, lr, lsl r8
    63b4:	04291600 	strteq	r1, [r9], #-1536	; 0x600
    63b8:	0e000000 	cdpeq	0, 0, cr0, cr0, cr0, {0}
    63bc:	00082d04 	andeq	r2, r8, r4, lsl #26
    63c0:	7c040e00 	stcvc	14, cr0, [r4], {-0}
    63c4:	1e000001 	cdpne	0, 0, cr0, cr0, cr1, {0}
    63c8:	0000084f 	andeq	r0, r0, pc, asr #16
    63cc:	00002516 	andeq	r2, r0, r6, lsl r5
    63d0:	040e0000 	streq	r0, [lr], #-0
    63d4:	00000855 	andeq	r0, r0, r5, asr r8
    63d8:	0844040e 	stmdaeq	r4, {r1, r2, r3, sl}^
    63dc:	f4090000 	vst4.8	{d0-d3}, [r9], r0
    63e0:	6b000005 	blvs	63fc <__code_start__-0x1c04>
    63e4:	0a000008 	beq	640c <__code_start__-0x1bf4>
    63e8:	000000cc 	andeq	r0, r0, ip, asr #1
    63ec:	d71f0002 	ldrle	r0, [pc, -r2]
    63f0:	05000012 	streq	r0, [r0, #-18]
    63f4:	042902fd 	strteq	r0, [r9], #-765	; 0x2fd
    63f8:	d01f0000 	andsle	r0, pc, r0
    63fc:	05000012 	streq	r0, [r0, #-18]
    6400:	042f02fe 	strteq	r0, [pc], #-766	; 6408 <__code_start__-0x1bf8>
    6404:	25150000 	ldrcs	r0, [r5, #-0]
    6408:	92000000 	andls	r0, r0, #0
    640c:	16000008 	strne	r0, [r0], -r8
    6410:	00000025 	andeq	r0, r0, r5, lsr #32
    6414:	0ac32000 	beq	ff0ce41c <__bss_end__+0xff0c1a54>
    6418:	1d060000 	stcne	0, cr0, [r6, #-0]
    641c:	0000089d 	muleq	r0, sp, r8
    6420:	0883040e 	stmeq	r3, {r1, r2, r3, sl}
    6424:	25150000 	ldrcs	r0, [r5, #-0]
    6428:	b2000000 	andlt	r0, r0, #0
    642c:	16000008 	strne	r0, [r0], -r8
    6430:	0000058a 	andeq	r0, r0, sl, lsl #11
    6434:	0b002000 	bleq	e43c <__bss_end__+0x1a74>
    6438:	22060000 	andcs	r0, r6, #0
    643c:	000008bd 			; <UNDEFINED> instruction: 0x000008bd
    6440:	08a3040e 	stmiaeq	r3!, {r1, r2, r3, sl}
    6444:	01210000 	teqeq	r1, r0
    6448:	00000054 	andeq	r0, r0, r4, asr r0
    644c:	09000c08 	stmdbeq	r0, {r3, sl, fp}
    6450:	00220000 	eoreq	r0, r2, r0
    6454:	0000000f 	andeq	r0, r0, pc
    6458:	00131722 	andseq	r1, r3, r2, lsr #14
    645c:	6f220100 	svcvs	0x00220100
    6460:	04000013 	streq	r0, [r0], #-19
    6464:	000f4122 	andeq	r4, pc, r2, lsr #2
    6468:	d8220500 	stmdale	r2!, {r8, sl}
    646c:	06000010 			; <UNDEFINED> instruction: 0x06000010
    6470:	00138c22 	andseq	r8, r3, r2, lsr #24
    6474:	9b220700 	blls	88807c <__bss_end__+0x87b6b4>
    6478:	03000013 	movweq	r0, #19
    647c:	0013aa22 	andseq	sl, r3, r2, lsr #20
    6480:	10000200 	andne	r0, r0, r0, lsl #4
    6484:	00000fae 	andeq	r0, r0, lr, lsr #31
    6488:	9006072c 	andls	r0, r6, ip, lsr #14
    648c:	11000009 	tstne	r0, r9
    6490:	07006f69 	streq	r6, [r0, -r9, ror #30]
    6494:	00003309 	andeq	r3, r0, r9, lsl #6
    6498:	69110000 	ldmdbvs	r1, {}	; <UNPREDICTABLE>
    649c:	07007265 	streq	r7, [r0, -r5, ror #4]
    64a0:	0000330a 	andeq	r3, r0, sl, lsl #6
    64a4:	69110400 	ldmdbvs	r1, {sl}
    64a8:	07007269 	streq	r7, [r0, -r9, ror #4]
    64ac:	00003311 	andeq	r3, r0, r1, lsl r3
    64b0:	6c110800 	ldcvs	8, cr0, [r1], {-0}
    64b4:	07007263 	streq	r7, [r0, -r3, ror #4]
    64b8:	00003313 	andeq	r3, r0, r3, lsl r3
    64bc:	6d110c00 	ldcvs	12, cr0, [r1, #-0]
    64c0:	07007263 	streq	r7, [r0, -r3, ror #4]
    64c4:	00003314 	andeq	r3, r0, r4, lsl r3
    64c8:	6c111000 	ldcvs	0, cr1, [r1], {-0}
    64cc:	07007273 	smlsdxeq	r0, r3, r2, r7
    64d0:	00003315 	andeq	r3, r0, r5, lsl r3
    64d4:	6d111400 	cfldrsvs	mvf1, [r1, #-0]
    64d8:	07007273 	smlsdxeq	r0, r3, r2, r7
    64dc:	00003316 	andeq	r3, r0, r6, lsl r3
    64e0:	2a0c1800 	bcs	30c4e8 <__bss_end__+0x2ffb20>
    64e4:	07000012 	smladeq	r0, r2, r0, r0
    64e8:	00003317 	andeq	r3, r0, r7, lsl r3
    64ec:	560c1c00 	strpl	r1, [ip], -r0, lsl #24
    64f0:	0700000f 	streq	r0, [r0, -pc]
    64f4:	0000331b 	andeq	r3, r0, fp, lsl r3
    64f8:	360c2000 	strcc	r2, [ip], -r0
    64fc:	0700000f 	streq	r0, [r0, -pc]
    6500:	0000331d 	andeq	r3, r0, sp, lsl r3
    6504:	140c2400 	strne	r2, [ip], #-1024	; 0x400
    6508:	07000012 	smladeq	r0, r2, r0, r0
    650c:	0000331e 	andeq	r3, r0, lr, lsl r3
    6510:	23002800 	movwcs	r2, #2048	; 0x800
    6514:	0000101e 	andeq	r1, r0, lr, lsl r0
    6518:	09a50701 	stmibeq	r5!, {r0, r8, r9, sl}
    651c:	50040000 	andpl	r0, r4, r0
    6520:	040e2021 	streq	r2, [lr], #-33	; 0x21
    6524:	00000033 	andeq	r0, r0, r3, lsr r0
    6528:	00099f0f 	andeq	r9, r9, pc, lsl #30
    652c:	11442300 	mrsne	r2, SPSR_abt
    6530:	28010000 	stmdacs	r1, {}	; <UNPREDICTABLE>
    6534:	000009bf 			; <UNDEFINED> instruction: 0x000009bf
    6538:	20215040 	eorcs	r5, r1, r0, asr #32
    653c:	0900040e 	stmdbeq	r0, {r1, r2, r3, sl}
    6540:	b90f0000 	stmdblt	pc, {}	; <UNPREDICTABLE>
    6544:	24000009 	strcs	r0, [r0], #-9
    6548:	00001361 	andeq	r1, r0, r1, ror #6
    654c:	0025a701 	eoreq	sl, r5, r1, lsl #14
    6550:	aeec0000 	cdpge	0, 14, cr0, cr12, cr0, {0}
    6554:	00100000 	andseq	r0, r0, r0
    6558:	9c010000 	stcls	0, cr0, [r1], {-0}
    655c:	000009f0 	strdeq	r0, [r0], -r0	; <UNPREDICTABLE>
    6560:	00aef425 	adceq	pc, lr, r5, lsr #8
    6564:	000c9c00 	andeq	r9, ip, r0, lsl #24
    6568:	aef82500 	cdpge	5, 15, cr2, cr8, cr0, {0}
    656c:	0ad20000 	beq	ff486574 <__bss_end__+0xff479bac>
    6570:	26000000 	strcs	r0, [r0], -r0
    6574:	00000aa8 	andeq	r0, r0, r8, lsr #21
    6578:	aebc9f01 	cdpge	15, 11, cr9, cr12, cr1, {0}
    657c:	00300000 	eorseq	r0, r0, r0
    6580:	9c010000 	stcls	0, cr0, [r1], {-0}
    6584:	00000a4e 	andeq	r0, r0, lr, asr #20
    6588:	01006327 	tsteq	r0, r7, lsr #6
    658c:	00002c9f 	muleq	r0, pc, ip	; <UNPREDICTABLE>
    6590:	001c8100 	andseq	r8, ip, r0, lsl #2
    6594:	aec82500 	cdpge	5, 12, cr2, cr8, cr0, {0}
    6598:	0c9c0000 	ldceq	0, cr0, [ip], {0}
    659c:	cc250000 	stcgt	0, cr0, [r5], #-0
    65a0:	a50000ae 	strge	r0, [r0, #-174]	; 0xae
    65a4:	2800000a 	stmdacs	r0, {r1, r3}
    65a8:	0000aee0 	andeq	sl, r0, r0, ror #29
    65ac:	00000ca7 	andeq	r0, r0, r7, lsr #25
    65b0:	00000a44 	andeq	r0, r0, r4, asr #20
    65b4:	05500129 	ldrbeq	r0, [r0, #-297]	; 0x129
    65b8:	2150400c 	cmpcs	r0, ip
    65bc:	51012920 	tstpl	r1, r0, lsr #18
    65c0:	08007405 	stmdaeq	r0, {r0, r2, sl, ip, sp, lr}
    65c4:	25001aff 	strcs	r1, [r0, #-2815]	; 0xaff
    65c8:	0000aee4 	andeq	sl, r0, r4, ror #29
    65cc:	00000c9c 	muleq	r0, ip, ip
    65d0:	10812400 	addne	r2, r1, r0, lsl #8
    65d4:	97010000 	strls	r0, [r1, -r0]
    65d8:	00000025 	andeq	r0, r0, r5, lsr #32
    65dc:	0000ae8c 	andeq	sl, r0, ip, lsl #29
    65e0:	00000030 	andeq	r0, r0, r0, lsr r0
    65e4:	0aa59c01 	beq	fe96d5f0 <__bss_end__+0xfe960c28>
    65e8:	632a0000 	teqvs	sl, #0
    65ec:	259b0100 	ldrcs	r0, [fp, #256]	; 0x100
    65f0:	01000000 	mrseq	r0, (UNDEF: 0)
    65f4:	ae942554 	mrcge	5, 4, r2, cr4, cr4, {2}
    65f8:	0c9c0000 	ldceq	0, cr0, [ip], {0}
    65fc:	98250000 	stmdals	r5!, {}	; <UNPREDICTABLE>
    6600:	d20000ae 	andle	r0, r0, #174	; 0xae
    6604:	2800000a 	stmdacs	r0, {r1, r3}
    6608:	0000aea8 	andeq	sl, r0, r8, lsr #29
    660c:	00000cb2 			; <UNDEFINED> instruction: 0x00000cb2
    6610:	00000a9b 	muleq	r0, fp, sl
    6614:	05500129 	ldrbeq	r0, [r0, #-297]	; 0x129
    6618:	2150400c 	cmpcs	r0, ip
    661c:	b0250020 	eorlt	r0, r5, r0, lsr #32
    6620:	9c0000ae 	stcls	0, cr0, [r0], {174}	; 0xae
    6624:	0000000c 	andeq	r0, r0, ip
    6628:	00103524 	andseq	r3, r0, r4, lsr #10
    662c:	25880100 	strcs	r0, [r8, #256]	; 0x100
    6630:	6c000000 	stcvs	0, cr0, [r0], {-0}
    6634:	200000ae 	andcs	r0, r0, lr, lsr #1
    6638:	01000000 	mrseq	r0, (UNDEF: 0)
    663c:	000ad29c 	muleq	sl, ip, r2
    6640:	ae782b00 	vaddge.f64	d18, d8, d0
    6644:	0cb20000 	ldceq	0, cr0, [r2]
    6648:	01290000 	teqeq	r9, r0
    664c:	640c0550 	strvs	r0, [ip], #-1360	; 0x550
    6650:	00202150 	eoreq	r2, r0, r0, asr r1
    6654:	13412400 	movtne	r2, #5120	; 0x1400
    6658:	7f010000 	svcvc	0x00010000
    665c:	00000025 	andeq	r0, r0, r5, lsr #32
    6660:	0000ae54 	andeq	sl, r0, r4, asr lr
    6664:	00000018 	andeq	r0, r0, r8, lsl r0
    6668:	0aff9c01 	beq	fffed674 <__bss_end__+0xfffe0cac>
    666c:	602b0000 	eorvs	r0, fp, r0
    6670:	b20000ae 	andlt	r0, r0, #174	; 0xae
    6674:	2900000c 	stmdbcs	r0, {r2, r3}
    6678:	0c055001 	stceq	0, cr5, [r5], {1}
    667c:	20215064 	eorcs	r5, r1, r4, rrx
    6680:	cd260000 	stcgt	0, cr0, [r6, #-0]
    6684:	0100000e 	tsteq	r0, lr
    6688:	00ada43a 	adceq	sl, sp, sl, lsr r4
    668c:	0000b000 	andeq	fp, r0, r0
    6690:	3d9c0100 	ldfccs	f0, [ip]
    6694:	2800000c 	stmdacs	r0, {r2, r3}
    6698:	0000adb4 			; <UNDEFINED> instruction: 0x0000adb4
    669c:	00000cbd 			; <UNDEFINED> instruction: 0x00000cbd
    66a0:	00000b2c 	andeq	r0, r0, ip, lsr #22
    66a4:	01500129 	cmpeq	r0, r9, lsr #2
    66a8:	5101293e 	tstpl	r1, lr, lsr r9
    66ac:	28003201 	stmdacs	r0, {r0, r9, ip, sp}
    66b0:	0000adc0 	andeq	sl, r0, r0, asr #27
    66b4:	00000cbd 			; <UNDEFINED> instruction: 0x00000cbd
    66b8:	00000b44 	andeq	r0, r0, r4, asr #22
    66bc:	01500129 	cmpeq	r0, r9, lsr #2
    66c0:	5101293f 	tstpl	r1, pc, lsr r9
    66c4:	25003201 	strcs	r3, [r0, #-513]	; 0x201
    66c8:	0000adc4 	andeq	sl, r0, r4, asr #27
    66cc:	00000c9c 	muleq	r0, ip, ip
    66d0:	00add028 	adceq	sp, sp, r8, lsr #32
    66d4:	000c3d00 	andeq	r3, ip, r0, lsl #26
    66d8:	000b6900 	andeq	r6, fp, r0, lsl #18
    66dc:	50012900 	andpl	r2, r1, r0, lsl #18
    66e0:	50040c05 	andpl	r0, r4, r5, lsl #24
    66e4:	01292021 	teqeq	r9, r1, lsr #32
    66e8:	00310151 	eorseq	r0, r1, r1, asr r1
    66ec:	00add425 	adceq	sp, sp, r5, lsr #8
    66f0:	000c9c00 	andeq	r9, ip, r0, lsl #24
    66f4:	ade42800 	stclge	8, cr2, [r4]
    66f8:	0ca70000 	stceq	0, cr0, [r7]
    66fc:	0b8b0000 	bleq	fe2c6704 <__bss_end__+0xfe2b9d3c>
    6700:	01290000 	teqeq	r9, r0
    6704:	00740250 	rsbseq	r0, r4, r0, asr r2
    6708:	01510129 	cmpeq	r1, r9, lsr #2
    670c:	f0280030 			; <UNDEFINED> instruction: 0xf0280030
    6710:	a70000ad 	strge	r0, [r0, -sp, lsr #1]
    6714:	a700000c 	strge	r0, [r0, -ip]
    6718:	2900000b 	stmdbcs	r0, {r0, r1, r3}
    671c:	0c055001 	stceq	0, cr5, [r5], {1}
    6720:	20215044 	eorcs	r5, r1, r4, asr #32
    6724:	01510129 	cmpeq	r1, r9, lsr #2
    6728:	fc280030 	stc2	0, cr0, [r8], #-192	; 0xffffff40
    672c:	a70000ad 	strge	r0, [r0, -sp, lsr #1]
    6730:	c300000c 	movwgt	r0, #12
    6734:	2900000b 	stmdbcs	r0, {r0, r1, r3}
    6738:	0c055001 	stceq	0, cr5, [r5], {1}
    673c:	2021504c 	eorcs	r5, r1, ip, asr #32
    6740:	01510129 	cmpeq	r1, r9, lsr #2
    6744:	08280033 	stmdaeq	r8!, {r0, r1, r4, r5}
    6748:	a70000ae 	strge	r0, [r0, -lr, lsr #1]
    674c:	df00000c 	svcle	0x0000000c
    6750:	2900000b 	stmdbcs	r0, {r0, r1, r3}
    6754:	0c055001 	stceq	0, cr5, [r5], {1}
    6758:	20215050 	eorcs	r5, r1, r0, asr r0
    675c:	01510129 	cmpeq	r1, r9, lsr #2
    6760:	14280030 	strtne	r0, [r8], #-48	; 0x30
    6764:	a70000ae 	strge	r0, [r0, -lr, lsr #1]
    6768:	fc00000c 	stc2	0, cr0, [r0], {12}
    676c:	2900000b 	stmdbcs	r0, {r0, r1, r3}
    6770:	0c055001 	stceq	0, cr5, [r5], {1}
    6774:	20215048 	eorcs	r5, r1, r8, asr #32
    6778:	02510129 	subseq	r0, r1, #1073741834	; 0x4000000a
    677c:	2800c708 	stmdacs	r0, {r3, r8, r9, sl, lr, pc}
    6780:	0000ae20 	andeq	sl, r0, r0, lsr #28
    6784:	00000ca7 	andeq	r0, r0, r7, lsr #25
    6788:	00000c1a 	andeq	r0, r0, sl, lsl ip
    678c:	05500129 	ldrbeq	r0, [r0, #-297]	; 0x129
    6790:	2150680c 	cmpcs	r0, ip, lsl #16
    6794:	51012920 	tstpl	r1, r0, lsr #18
    6798:	010e0a03 	tsteq	lr, r3, lsl #20
    679c:	ae2c2800 	cdpge	8, 2, cr2, cr12, cr0, {0}
    67a0:	0ca70000 	stceq	0, cr0, [r7]
    67a4:	0c330000 	ldceq	0, cr0, [r3], #-0
    67a8:	01290000 	teqeq	r9, r0
    67ac:	00740250 	rsbseq	r0, r4, r0, asr r2
    67b0:	01510129 	cmpeq	r1, r9, lsr #2
    67b4:	30250033 	eorcc	r0, r5, r3, lsr r0
    67b8:	9c0000ae 	stcls	0, cr0, [r0], {174}	; 0xae
    67bc:	0000000c 	andeq	r0, r0, ip
    67c0:	0013592c 	andseq	r5, r3, ip, lsr #18
    67c4:	842d0100 	strthi	r0, [sp], #-256	; 0x100
    67c8:	200000ad 	andcs	r0, r0, sp, lsr #1
    67cc:	01000000 	mrseq	r0, (UNDEF: 0)
    67d0:	000c959c 	muleq	ip, ip, r5
    67d4:	03192d00 	tsteq	r9, #0, 26
    67d8:	2d010000 	stccs	0, cr0, [r1, #-0]
    67dc:	00000c95 	muleq	r0, r5, ip
    67e0:	00001c9f 	muleq	r0, pc, ip	; <UNPREDICTABLE>
    67e4:	6c617627 	stclvs	6, cr7, [r1], #-156	; 0xffffff64
    67e8:	2c2d0100 	stfcss	f0, [sp], #-0
    67ec:	bd000000 	stclt	0, cr0, [r0, #-0]
    67f0:	2800001c 	stmdacs	r0, {r2, r3, r4}
    67f4:	0000ad94 	muleq	r0, r4, sp
    67f8:	00000cb2 			; <UNDEFINED> instruction: 0x00000cb2
    67fc:	00000c84 	andeq	r0, r0, r4, lsl #25
    6800:	02500129 	subseq	r0, r0, #1073741834	; 0x4000000a
    6804:	2b000074 	blcs	69dc <__code_start__-0x1624>
    6808:	0000ada0 	andeq	sl, r0, r0, lsr #27
    680c:	00000ca7 	andeq	r0, r0, r7, lsr #25
    6810:	02500129 	subseq	r0, r0, #1073741834	; 0x4000000a
    6814:	00000074 	andeq	r0, r0, r4, ror r0
    6818:	0c9b040e 	cfldrseq	mvf0, [fp], {14}
    681c:	2f2e0000 	svccs	0x002e0000
    6820:	00000d8a 	andeq	r0, r0, sl, lsl #27
    6824:	00000d8a 	andeq	r0, r0, sl, lsl #27
    6828:	382f8906 	stmdacc	pc!, {r1, r2, r8, fp, pc}	; <UNPREDICTABLE>
    682c:	38000012 	stmdacc	r0, {r1, r4}
    6830:	06000012 			; <UNDEFINED> instruction: 0x06000012
    6834:	133b2f9c 	teqne	fp, #156, 30	; 0x270
    6838:	133b0000 	teqne	fp, #0
    683c:	a8060000 	stmdage	r6, {}	; <UNPREDICTABLE>
    6840:	0011082f 	andseq	r0, r1, pc, lsr #16
    6844:	00110800 	andseq	r0, r1, r0, lsl #16
    6848:	00190800 	andseq	r0, r9, r0, lsl #16
    684c:	00000b70 	andeq	r0, r0, r0, ror fp
    6850:	19240004 	stmdbne	r4!, {r2}
    6854:	01040000 	mrseq	r0, (UNDEF: 4)
    6858:	0000123e 	andeq	r1, r0, lr, lsr r2
    685c:	00140e0c 	andseq	r0, r4, ip, lsl #28
    6860:	000fc200 	andeq	ip, pc, r0, lsl #4
    6864:	00aefc00 	adceq	pc, lr, r0, lsl #24
    6868:	00012000 	andeq	r2, r1, r0
    686c:	00168600 	andseq	r8, r6, r0, lsl #12
    6870:	05040200 	streq	r0, [r4, #-512]	; 0x200
    6874:	00746e69 	rsbseq	r6, r4, r9, ror #28
    6878:	e7070403 	str	r0, [r7, -r3, lsl #8]
    687c:	04000001 	streq	r0, [r0], #-1
    6880:	0000002c 	andeq	r0, r0, ip, lsr #32
    6884:	5c060103 	stfpls	f0, [r6], {3}
    6888:	03000000 	movweq	r0, #0
    688c:	02290502 	eoreq	r0, r9, #8388608	; 0x800000
    6890:	04030000 	streq	r0, [r3], #-0
    6894:	00020205 	andeq	r0, r2, r5, lsl #4
    6898:	05080300 	streq	r0, [r8, #-768]	; 0x300
    689c:	000001fd 	strdeq	r0, [r0], -sp
    68a0:	5a080103 	bpl	206cb4 <__bss_end__+0x1fa2ec>
    68a4:	03000000 	movweq	r0, #0
    68a8:	009f0702 	addseq	r0, pc, r2, lsl #14
    68ac:	04030000 	streq	r0, [r3], #-0
    68b0:	0001e207 	andeq	lr, r1, r7, lsl #4
    68b4:	07080300 	streq	r0, [r8, -r0, lsl #6]
    68b8:	000001dd 	ldrdeq	r0, [r0], -sp
    68bc:	00115305 	andseq	r5, r1, r5, lsl #6
    68c0:	25070200 	strcs	r0, [r7, #-512]	; 0x200
    68c4:	05000000 	streq	r0, [r0, #-0]
    68c8:	0000113d 	andeq	r1, r0, sp, lsr r1
    68cc:	00462c03 	subeq	r2, r6, r3, lsl #24
    68d0:	19050000 	stmdbne	r5, {}	; <UNPREDICTABLE>
    68d4:	03000012 	movweq	r0, #18
    68d8:	00004672 	andeq	r4, r0, r2, ror r6
    68dc:	10e70600 	rscne	r0, r7, r0, lsl #12
    68e0:	65040000 	strvs	r0, [r4, #-0]
    68e4:	00002c01 	andeq	r2, r0, r1, lsl #24
    68e8:	03040700 	movweq	r0, #18176	; 0x4700
    68ec:	0000bca6 	andeq	fp, r0, r6, lsr #25
    68f0:	10d20800 	sbcsne	r0, r2, r0, lsl #16
    68f4:	a8030000 	stmdage	r3, {}	; <UNPREDICTABLE>
    68f8:	00000091 	muleq	r0, r1, r0
    68fc:	00107a08 	andseq	r7, r0, r8, lsl #20
    6900:	bca90300 	stclt	3, cr0, [r9]
    6904:	00000000 	andeq	r0, r0, r0
    6908:	00005409 	andeq	r5, r0, r9, lsl #8
    690c:	0000cc00 	andeq	ip, r0, r0, lsl #24
    6910:	00cc0a00 	sbceq	r0, ip, r0, lsl #20
    6914:	00030000 	andeq	r0, r3, r0
    6918:	f4070403 	vst3.8	{d0-d2}, [r7], r3
    691c:	0b000001 	bleq	6928 <__code_start__-0x16d8>
    6920:	f4a30308 	vld4.8	{d0[0],d1[0],d2[0],d3[0]}, [r3], r8
    6924:	0c000000 	stceq	0, cr0, [r0], {-0}
    6928:	000011fe 	strdeq	r1, [r0], -lr
    692c:	0025a503 	eoreq	sl, r5, r3, lsl #10
    6930:	0c000000 	stceq	0, cr0, [r0], {-0}
    6934:	00001206 	andeq	r1, r0, r6, lsl #4
    6938:	009daa03 	addseq	sl, sp, r3, lsl #20
    693c:	00040000 	andeq	r0, r4, r0
    6940:	00119105 	andseq	r9, r1, r5, lsl #2
    6944:	d3ab0300 			; <UNDEFINED> instruction: 0xd3ab0300
    6948:	05000000 	streq	r0, [r0, #-0]
    694c:	00001043 	andeq	r1, r0, r3, asr #32
    6950:	0070af03 	rsbseq	sl, r0, r3, lsl #30
    6954:	040d0000 	streq	r0, [sp], #-0
    6958:	0112040e 	tsteq	r2, lr, lsl #8
    695c:	01030000 	mrseq	r0, (UNDEF: 3)
    6960:	00006308 	andeq	r6, r0, r8, lsl #6
    6964:	01120400 	tsteq	r2, r0, lsl #8
    6968:	bb050000 	bllt	146970 <__bss_end__+0x139fa8>
    696c:	05000012 	streq	r0, [r0, #-18]
    6970:	00006216 	andeq	r6, r0, r6, lsl r2
    6974:	10540f00 	subsne	r0, r4, r0, lsl #30
    6978:	05180000 	ldreq	r0, [r8, #-0]
    697c:	00017c2d 	andeq	r7, r1, sp, lsr #24
    6980:	11b20c00 			; <UNDEFINED> instruction: 0x11b20c00
    6984:	2f050000 	svccs	0x00050000
    6988:	0000017c 	andeq	r0, r0, ip, ror r1
    698c:	6b5f1000 	blvs	17ca994 <__bss_end__+0x17bdfcc>
    6990:	25300500 	ldrcs	r0, [r0, #-1280]!	; 0x500
    6994:	04000000 	streq	r0, [r0], #-0
    6998:	0011e90c 	andseq	lr, r1, ip, lsl #18
    699c:	25300500 	ldrcs	r0, [r0, #-1280]!	; 0x500
    69a0:	08000000 	stmdaeq	r0, {}	; <UNPREDICTABLE>
    69a4:	00102f0c 	andseq	r2, r0, ip, lsl #30
    69a8:	25300500 	ldrcs	r0, [r0, #-1280]!	; 0x500
    69ac:	0c000000 	stceq	0, cr0, [r0], {-0}
    69b0:	0013020c 	andseq	r0, r3, ip, lsl #4
    69b4:	25300500 	ldrcs	r0, [r0, #-1280]!	; 0x500
    69b8:	10000000 	andne	r0, r0, r0
    69bc:	00785f10 	rsbseq	r5, r8, r0, lsl pc
    69c0:	01823105 	orreq	r3, r2, r5, lsl #2
    69c4:	00140000 	andseq	r0, r4, r0
    69c8:	0129040e 	teqeq	r9, lr, lsl #8
    69cc:	1e090000 	cdpne	0, 0, cr0, cr9, cr0, {0}
    69d0:	92000001 	andls	r0, r0, #1
    69d4:	0a000001 	beq	69e0 <__code_start__-0x1620>
    69d8:	000000cc 	andeq	r0, r0, ip, asr #1
    69dc:	750f0000 	strvc	r0, [pc, #-0]	; 69e4 <__code_start__-0x161c>
    69e0:	24000010 	strcs	r0, [r0], #-16
    69e4:	020b3505 	andeq	r3, fp, #20971520	; 0x1400000
    69e8:	2d0c0000 	stccs	0, cr0, [ip, #-0]
    69ec:	0500000f 	streq	r0, [r0, #-15]
    69f0:	00002537 	andeq	r2, r0, r7, lsr r5
    69f4:	210c0000 	mrscs	r0, (UNDEF: 12)
    69f8:	05000012 	streq	r0, [r0, #-18]
    69fc:	00002538 	andeq	r2, r0, r8, lsr r5
    6a00:	5b0c0400 	blpl	307a08 <__bss_end__+0x2fb040>
    6a04:	0500000f 	streq	r0, [r0, #-15]
    6a08:	00002539 	andeq	r2, r0, r9, lsr r5
    6a0c:	f20c0800 	vadd.i8	d0, d12, d0
    6a10:	05000013 	streq	r0, [r0, #-19]
    6a14:	0000253a 	andeq	r2, r0, sl, lsr r5
    6a18:	210c0c00 	tstcs	ip, r0, lsl #24
    6a1c:	05000011 	streq	r0, [r0, #-17]
    6a20:	0000253b 	andeq	r2, r0, fp, lsr r5
    6a24:	f60c1000 			; <UNDEFINED> instruction: 0xf60c1000
    6a28:	05000010 	streq	r0, [r0, #-16]
    6a2c:	0000253c 	andeq	r2, r0, ip, lsr r5
    6a30:	070c1400 	streq	r1, [ip, -r0, lsl #8]
    6a34:	05000013 	streq	r0, [r0, #-19]
    6a38:	0000253d 	andeq	r2, r0, sp, lsr r5
    6a3c:	730c1800 	movwvc	r1, #51200	; 0xc800
    6a40:	05000011 	streq	r0, [r0, #-17]
    6a44:	0000253e 	andeq	r2, r0, lr, lsr r5
    6a48:	b90c1c00 	stmdblt	ip, {sl, fp, ip}
    6a4c:	05000013 	streq	r0, [r0, #-19]
    6a50:	0000253f 	andeq	r2, r0, pc, lsr r5
    6a54:	11002000 	mrsne	r2, (UNDEF: 0)
    6a58:	00000f6a 	andeq	r0, r0, sl, ror #30
    6a5c:	48050108 	stmdami	r5, {r3, r8}
    6a60:	0000024b 	andeq	r0, r0, fp, asr #4
    6a64:	0010160c 	andseq	r1, r0, ip, lsl #12
    6a68:	4b490500 	blmi	1247e70 <__bss_end__+0x123b4a8>
    6a6c:	00000002 	andeq	r0, r0, r2
    6a70:	000ea80c 	andeq	sl, lr, ip, lsl #16
    6a74:	4b4a0500 	blmi	1287e7c <__bss_end__+0x127b4b4>
    6a78:	80000002 	andhi	r0, r0, r2
    6a7c:	0012ad12 	andseq	sl, r2, r2, lsl sp
    6a80:	1e4c0500 	cdpne	5, 4, cr0, cr12, cr0, {0}
    6a84:	00000001 	andeq	r0, r0, r1
    6a88:	0f8f1201 	svceq	0x008f1201
    6a8c:	4f050000 	svcmi	0x00050000
    6a90:	0000011e 	andeq	r0, r0, lr, lsl r1
    6a94:	09000104 	stmdbeq	r0, {r2, r8}
    6a98:	0000010a 	andeq	r0, r0, sl, lsl #2
    6a9c:	0000025b 	andeq	r0, r0, fp, asr r2
    6aa0:	0000cc0a 	andeq	ip, r0, sl, lsl #24
    6aa4:	11001f00 	tstne	r0, r0, lsl #30
    6aa8:	0000112a 	andeq	r1, r0, sl, lsr #2
    6aac:	5b050190 	blpl	1470f4 <__bss_end__+0x13a72c>
    6ab0:	00000299 	muleq	r0, r9, r2
    6ab4:	0011b20c 	andseq	fp, r1, ip, lsl #4
    6ab8:	995c0500 	ldmdbls	ip, {r8, sl}^
    6abc:	00000002 	andeq	r0, r0, r2
    6ac0:	0011ca0c 	andseq	ip, r1, ip, lsl #20
    6ac4:	255d0500 	ldrbcs	r0, [sp, #-1280]	; 0x500
    6ac8:	04000000 	streq	r0, [r0], #-0
    6acc:	00102a0c 	andseq	r2, r0, ip, lsl #20
    6ad0:	9f5f0500 	svcls	0x005f0500
    6ad4:	08000002 	stmdaeq	r0, {r1}
    6ad8:	000f6a0c 	andeq	r6, pc, ip, lsl #20
    6adc:	0b600500 	bleq	1807ee4 <__bss_end__+0x17fb51c>
    6ae0:	88000002 	stmdahi	r0, {r1}
    6ae4:	5b040e00 	blpl	10a2ec <__bss_end__+0xfd924>
    6ae8:	09000002 	stmdbeq	r0, {r1}
    6aec:	000002af 	andeq	r0, r0, pc, lsr #5
    6af0:	000002af 	andeq	r0, r0, pc, lsr #5
    6af4:	0000cc0a 	andeq	ip, r0, sl, lsl #24
    6af8:	0e001f00 	cdpeq	15, 0, cr1, cr0, cr0, {0}
    6afc:	0002b504 	andeq	fp, r2, r4, lsl #10
    6b00:	7d0f1300 	stcvc	3, cr1, [pc, #-0]	; 6b08 <__code_start__-0x14f8>
    6b04:	08000011 	stmdaeq	r0, {r0, r4}
    6b08:	02db7305 	sbcseq	r7, fp, #335544320	; 0x14000000
    6b0c:	500c0000 	andpl	r0, ip, r0
    6b10:	0500000f 	streq	r0, [r0, #-15]
    6b14:	0002db74 	andeq	sp, r2, r4, ror fp
    6b18:	b40c0000 	strlt	r0, [ip], #-0
    6b1c:	0500000e 	streq	r0, [r0, #-14]
    6b20:	00002575 	andeq	r2, r0, r5, ror r5
    6b24:	0e000400 	cfcpyseq	mvf0, mvf0
    6b28:	00005404 	andeq	r5, r0, r4, lsl #8
    6b2c:	119c0f00 	orrsne	r0, ip, r0, lsl #30
    6b30:	05680000 	strbeq	r0, [r8, #-0]!
    6b34:	00040bb3 			; <UNDEFINED> instruction: 0x00040bb3
    6b38:	705f1000 	subsvc	r1, pc, r0
    6b3c:	dbb40500 	blle	fed07f44 <__bss_end__+0xfecfb57c>
    6b40:	00000002 	andeq	r0, r0, r2
    6b44:	00725f10 	rsbseq	r5, r2, r0, lsl pc
    6b48:	0025b505 	eoreq	fp, r5, r5, lsl #10
    6b4c:	10040000 	andne	r0, r4, r0
    6b50:	0500775f 	streq	r7, [r0, #-1887]	; 0x75f
    6b54:	000025b6 			; <UNDEFINED> instruction: 0x000025b6
    6b58:	880c0800 	stmdahi	ip, {fp}
    6b5c:	0500000f 	streq	r0, [r0, #-15]
    6b60:	00003fb7 			; <UNDEFINED> instruction: 0x00003fb7
    6b64:	9b0c0c00 	blls	309b6c <__bss_end__+0x2fd1a4>
    6b68:	05000010 	streq	r0, [r0, #-16]
    6b6c:	00003fb8 			; <UNDEFINED> instruction: 0x00003fb8
    6b70:	5f100e00 	svcpl	0x00100e00
    6b74:	05006662 	streq	r6, [r0, #-1634]	; 0x662
    6b78:	0002b6b9 			; <UNDEFINED> instruction: 0x0002b6b9
    6b7c:	f70c1000 			; <UNDEFINED> instruction: 0xf70c1000
    6b80:	0500000e 	streq	r0, [r0, #-14]
    6b84:	000025ba 			; <UNDEFINED> instruction: 0x000025ba
    6b88:	780c1800 	stmdavc	ip, {fp, ip}
    6b8c:	0500000f 	streq	r0, [r0, #-15]
    6b90:	00010ac1 	andeq	r0, r1, r1, asr #21
    6b94:	190c1c00 	stmdbne	ip, {sl, fp, ip}
    6b98:	05000014 	streq	r0, [r0, #-20]
    6b9c:	000566c3 	andeq	r6, r5, r3, asr #13
    6ba0:	330c2000 	movwcc	r2, #49152	; 0xc000
    6ba4:	05000014 	streq	r0, [r0, #-20]
    6ba8:	000590c5 	andeq	r9, r5, r5, asr #1
    6bac:	0e0c2400 	cfcpyseq	mvf2, mvf12
    6bb0:	05000012 	streq	r0, [r0, #-18]
    6bb4:	0005b4c8 	andeq	fp, r5, r8, asr #9
    6bb8:	d30c2800 	movwle	r2, #51200	; 0xc800
    6bbc:	05000013 	streq	r0, [r0, #-19]
    6bc0:	0005cec9 	andeq	ip, r5, r9, asr #29
    6bc4:	5f102c00 	svcpl	0x00102c00
    6bc8:	05006275 	streq	r6, [r0, #-629]	; 0x275
    6bcc:	0002b6cc 	andeq	fp, r2, ip, asr #13
    6bd0:	5f103000 	svcpl	0x00103000
    6bd4:	05007075 	streq	r7, [r0, #-117]	; 0x75
    6bd8:	0002dbcd 	andeq	sp, r2, sp, asr #23
    6bdc:	5f103800 	svcpl	0x00103800
    6be0:	05007275 	streq	r7, [r0, #-629]	; 0x275
    6be4:	000025ce 	andeq	r2, r0, lr, asr #11
    6be8:	3b0c3c00 	blcc	315bf0 <__bss_end__+0x309228>
    6bec:	0500000f 	streq	r0, [r0, #-15]
    6bf0:	0005d4d1 	ldrdeq	sp, [r5], -r1
    6bf4:	7e0c4000 	cdpvc	0, 0, cr4, cr12, cr0, {0}
    6bf8:	05000013 	streq	r0, [r0, #-19]
    6bfc:	0005e4d2 	ldrdeq	lr, [r5], -r2
    6c00:	5f104300 	svcpl	0x00104300
    6c04:	0500626c 	streq	r6, [r0, #-620]	; 0x26c
    6c08:	0002b6d5 	ldrdeq	fp, [r2], -r5
    6c0c:	9e0c4400 	cfcpysls	mvf4, mvf12
    6c10:	0500000f 	streq	r0, [r0, #-15]
    6c14:	000025d8 	ldrdeq	r2, [r0], -r8
    6c18:	000c4c00 	andeq	r4, ip, r0, lsl #24
    6c1c:	05000011 	streq	r0, [r0, #-17]
    6c20:	00007bd9 	ldrdeq	r7, [r0], -r9
    6c24:	690c5000 	stmdbvs	ip, {ip, lr}
    6c28:	05000013 	streq	r0, [r0, #-19]
    6c2c:	000429dc 	ldrdeq	r2, [r4], -ip
    6c30:	230c5400 	movwcs	r5, #50176	; 0xc400
    6c34:	05000007 	streq	r0, [r0, #-7]
    6c38:	0000ffe0 	andeq	pc, r0, r0, ror #31
    6c3c:	a40c5800 	strge	r5, [ip], #-2048	; 0x800
    6c40:	05000011 	streq	r0, [r0, #-17]
    6c44:	0000f4e2 	andeq	pc, r0, r2, ror #9
    6c48:	ee0c5c00 	cdp	12, 0, cr5, cr12, cr0, {0}
    6c4c:	05000010 	streq	r0, [r0, #-16]
    6c50:	000025e3 	andeq	r2, r0, r3, ror #11
    6c54:	14006400 	strne	r6, [r0], #-1024	; 0x400
    6c58:	00000025 	andeq	r0, r0, r5, lsr #32
    6c5c:	00000429 	andeq	r0, r0, r9, lsr #8
    6c60:	00042915 	andeq	r2, r4, r5, lsl r9
    6c64:	010a1500 	tsteq	sl, r0, lsl #10
    6c68:	0c150000 	ldceq	0, cr0, [r5], {-0}
    6c6c:	15000001 	strne	r0, [r0, #-1]
    6c70:	00000025 	andeq	r0, r0, r5, lsr #32
    6c74:	34040e00 	strcc	r0, [r4], #-3584	; 0xe00
    6c78:	04000004 	streq	r0, [r0], #-4
    6c7c:	00000429 	andeq	r0, r0, r9, lsr #8
    6c80:	0011f116 	andseq	pc, r1, r6, lsl r1	; <UNPREDICTABLE>
    6c84:	05042800 	streq	r2, [r4, #-2048]	; 0x800
    6c88:	05660238 	strbeq	r0, [r6, #-568]!	; 0x238
    6c8c:	6c170000 	ldcvs	0, cr0, [r7], {-0}
    6c90:	05000011 	streq	r0, [r0, #-17]
    6c94:	0025023a 	eoreq	r0, r5, sl, lsr r2
    6c98:	17000000 	strne	r0, [r0, -r0]
    6c9c:	00000f97 	muleq	r0, r7, pc	; <UNPREDICTABLE>
    6ca0:	3b023f05 	blcc	968bc <__bss_end__+0x89ef4>
    6ca4:	04000006 	streq	r0, [r0], #-6
    6ca8:	00108b17 	andseq	r8, r0, r7, lsl fp
    6cac:	023f0500 	eorseq	r0, pc, #0, 10
    6cb0:	0000063b 	andeq	r0, r0, fp, lsr r6
    6cb4:	104c1708 	subne	r1, ip, r8, lsl #14
    6cb8:	3f050000 	svccc	0x00050000
    6cbc:	00063b02 	andeq	r3, r6, r2, lsl #22
    6cc0:	c5170c00 	ldrgt	r0, [r7, #-3072]	; 0xc00
    6cc4:	05000011 	streq	r0, [r0, #-17]
    6cc8:	00250241 	eoreq	r0, r5, r1, asr #4
    6ccc:	17100000 	ldrne	r0, [r0, -r0]
    6cd0:	00000ec2 	andeq	r0, r0, r2, asr #29
    6cd4:	1d024205 	sfmne	f4, 4, [r2, #-20]	; 0xffffffec
    6cd8:	14000008 	strne	r0, [r0], #-8
    6cdc:	0012e317 	andseq	lr, r2, r7, lsl r3
    6ce0:	02440500 	subeq	r0, r4, #0, 10
    6ce4:	00000025 	andeq	r0, r0, r5, lsr #32
    6ce8:	11cf1730 	bicne	r1, pc, r0, lsr r7	; <UNPREDICTABLE>
    6cec:	45050000 	strmi	r0, [r5, #-0]
    6cf0:	00058a02 	andeq	r8, r5, r2, lsl #20
    6cf4:	32173400 	andscc	r3, r7, #0, 8
    6cf8:	05000011 	streq	r0, [r0, #-17]
    6cfc:	00250247 	eoreq	r0, r5, r7, asr #4
    6d00:	17380000 	ldrne	r0, [r8, -r0]!
    6d04:	000011df 	ldrdeq	r1, [r0], -pc	; <UNPREDICTABLE>
    6d08:	38024905 	stmdacc	r2, {r0, r2, r8, fp, lr}
    6d0c:	3c000008 	stccc	0, cr0, [r0], {8}
    6d10:	0010ca17 	andseq	ip, r0, r7, lsl sl
    6d14:	024c0500 	subeq	r0, ip, #0, 10
    6d18:	0000017c 	andeq	r0, r0, ip, ror r1
    6d1c:	106b1740 	rsbne	r1, fp, r0, asr #14
    6d20:	4d050000 	stcmi	0, cr0, [r5, #-0]
    6d24:	00002502 	andeq	r2, r0, r2, lsl #10
    6d28:	ed174400 	cfldrs	mvf4, [r7, #-0]
    6d2c:	05000013 	streq	r0, [r0, #-19]
    6d30:	017c024e 	cmneq	ip, lr, asr #4
    6d34:	17480000 	strbne	r0, [r8, -r0]
    6d38:	00001149 	andeq	r1, r0, r9, asr #2
    6d3c:	3e024f05 	cdpcc	15, 0, cr4, cr2, cr5, {0}
    6d40:	4c000008 	stcmi	0, cr0, [r0], {8}
    6d44:	00109317 	andseq	r9, r0, r7, lsl r3
    6d48:	02520500 	subseq	r0, r2, #0, 10
    6d4c:	00000025 	andeq	r0, r0, r5, lsr #32
    6d50:	0fba1750 	svceq	0x00ba1750
    6d54:	53050000 	movwpl	r0, #20480	; 0x5000
    6d58:	00010c02 	andeq	r0, r1, r2, lsl #24
    6d5c:	65175400 	ldrvs	r5, [r7, #-1024]	; 0x400
    6d60:	05000011 	streq	r0, [r0, #-17]
    6d64:	07fb0276 			; <UNDEFINED> instruction: 0x07fb0276
    6d68:	18580000 	ldmdane	r8, {}^	; <UNPREDICTABLE>
    6d6c:	0000112a 	andeq	r1, r0, sl, lsr #2
    6d70:	99027a05 	stmdbls	r2, {r0, r2, r9, fp, ip, sp, lr}
    6d74:	48000002 	stmdami	r0, {r1}
    6d78:	10a81801 	adcne	r1, r8, r1, lsl #16
    6d7c:	7b050000 	blvc	146d84 <__bss_end__+0x13a3bc>
    6d80:	00025b02 	andeq	r5, r2, r2, lsl #22
    6d84:	18014c00 	stmdane	r1, {sl, fp, lr}
    6d88:	0000134f 	andeq	r1, r0, pc, asr #6
    6d8c:	4f027f05 	svcmi	0x00027f05
    6d90:	dc000008 	stcle	0, cr0, [r0], {8}
    6d94:	0f801802 	svceq	0x00801802
    6d98:	84050000 	strhi	r0, [r5], #-0
    6d9c:	00060002 	andeq	r0, r6, r2
    6da0:	1802e000 	stmdane	r2, {sp, lr, pc}
    6da4:	00000f65 	andeq	r0, r0, r5, ror #30
    6da8:	5b028505 	blpl	a81c4 <__bss_end__+0x9b7fc>
    6dac:	ec000008 	stc	0, cr0, [r0], {8}
    6db0:	040e0002 	streq	r0, [lr], #-2
    6db4:	0000040b 	andeq	r0, r0, fp, lsl #8
    6db8:	00002514 	andeq	r2, r0, r4, lsl r5
    6dbc:	00058a00 	andeq	r8, r5, r0, lsl #20
    6dc0:	04291500 	strteq	r1, [r9], #-1280	; 0x500
    6dc4:	0a150000 	beq	546dcc <__bss_end__+0x53a404>
    6dc8:	15000001 	strne	r0, [r0, #-1]
    6dcc:	0000058a 	andeq	r0, r0, sl, lsl #11
    6dd0:	00002515 	andeq	r2, r0, r5, lsl r5
    6dd4:	040e0000 	streq	r0, [lr], #-0
    6dd8:	00000119 	andeq	r0, r0, r9, lsl r1
    6ddc:	056c040e 	strbeq	r0, [ip, #-1038]!	; 0x40e
    6de0:	86140000 	ldrhi	r0, [r4], -r0
    6de4:	b4000000 	strlt	r0, [r0], #-0
    6de8:	15000005 	strne	r0, [r0, #-5]
    6dec:	00000429 	andeq	r0, r0, r9, lsr #8
    6df0:	00010a15 	andeq	r0, r1, r5, lsl sl
    6df4:	00861500 	addeq	r1, r6, r0, lsl #10
    6df8:	25150000 	ldrcs	r0, [r5, #-0]
    6dfc:	00000000 	andeq	r0, r0, r0
    6e00:	0596040e 	ldreq	r0, [r6, #1038]	; 0x40e
    6e04:	25140000 	ldrcs	r0, [r4, #-0]
    6e08:	ce000000 	cdpgt	0, 0, cr0, cr0, cr0, {0}
    6e0c:	15000005 	strne	r0, [r0, #-5]
    6e10:	00000429 	andeq	r0, r0, r9, lsr #8
    6e14:	00010a15 	andeq	r0, r1, r5, lsl sl
    6e18:	040e0000 	streq	r0, [lr], #-0
    6e1c:	000005ba 			; <UNDEFINED> instruction: 0x000005ba
    6e20:	00005409 	andeq	r5, r0, r9, lsl #8
    6e24:	0005e400 	andeq	lr, r5, r0, lsl #8
    6e28:	00cc0a00 	sbceq	r0, ip, r0, lsl #20
    6e2c:	00020000 	andeq	r0, r2, r0
    6e30:	00005409 	andeq	r5, r0, r9, lsl #8
    6e34:	0005f400 	andeq	pc, r5, r0, lsl #8
    6e38:	00cc0a00 	sbceq	r0, ip, r0, lsl #20
    6e3c:	00000000 	andeq	r0, r0, r0
    6e40:	00118a06 	andseq	r8, r1, r6, lsl #20
    6e44:	011d0500 	tsteq	sp, r0, lsl #10
    6e48:	000002e1 	andeq	r0, r0, r1, ror #5
    6e4c:	00131119 	andseq	r1, r3, r9, lsl r1
    6e50:	21050c00 	tstcs	r5, r0, lsl #24
    6e54:	00063501 	andeq	r3, r6, r1, lsl #10
    6e58:	11b21700 			; <UNDEFINED> instruction: 0x11b21700
    6e5c:	23050000 	movwcs	r0, #20480	; 0x5000
    6e60:	00063501 	andeq	r3, r6, r1, lsl #10
    6e64:	a1170000 	tstge	r7, r0
    6e68:	05000010 	streq	r0, [r0, #-16]
    6e6c:	00250124 	eoreq	r0, r5, r4, lsr #2
    6e70:	17040000 	strne	r0, [r4, -r0]
    6e74:	00001184 	andeq	r1, r0, r4, lsl #3
    6e78:	3b012505 	blcc	50294 <__bss_end__+0x438cc>
    6e7c:	08000006 	stmdaeq	r0, {r1, r2}
    6e80:	00040e00 	andeq	r0, r4, r0, lsl #28
    6e84:	0e000006 	cdpeq	0, 0, cr0, cr0, cr6, {0}
    6e88:	0005f404 	andeq	pc, r5, r4, lsl #8
    6e8c:	0eba1900 	cdpeq	9, 11, cr1, cr10, cr0, {0}
    6e90:	050e0000 	streq	r0, [lr, #-0]
    6e94:	0676013d 			; <UNDEFINED> instruction: 0x0676013d
    6e98:	f8170000 			; <UNDEFINED> instruction: 0xf8170000
    6e9c:	05000011 	streq	r0, [r0, #-17]
    6ea0:	0676013e 			; <UNDEFINED> instruction: 0x0676013e
    6ea4:	17000000 	strne	r0, [r0, -r0]
    6ea8:	00001232 	andeq	r1, r0, r2, lsr r2
    6eac:	76013f05 	strvc	r3, [r1], -r5, lsl #30
    6eb0:	06000006 	streq	r0, [r0], -r6
    6eb4:	0012b617 	andseq	fp, r2, r7, lsl r6
    6eb8:	01400500 	cmpeq	r0, r0, lsl #10
    6ebc:	0000005b 	andeq	r0, r0, fp, asr r0
    6ec0:	5b09000c 	blpl	246ef8 <__bss_end__+0x23a530>
    6ec4:	86000000 	strhi	r0, [r0], -r0
    6ec8:	0a000006 	beq	6ee8 <__code_start__-0x1118>
    6ecc:	000000cc 	andeq	r0, r0, ip, asr #1
    6ed0:	d01a0002 	andsle	r0, sl, r2
    6ed4:	87025705 	strhi	r5, [r2, -r5, lsl #14]
    6ed8:	17000007 	strne	r0, [r0, -r7]
    6edc:	000012f5 	strdeq	r1, [r0], -r5
    6ee0:	2c025905 	stccs	9, cr5, [r2], {5}
    6ee4:	00000000 	andeq	r0, r0, r0
    6ee8:	0012a017 	andseq	sl, r2, r7, lsl r0
    6eec:	025a0500 	subseq	r0, sl, #0, 10
    6ef0:	0000010c 	andeq	r0, r0, ip, lsl #2
    6ef4:	10bd1704 	adcsne	r1, sp, r4, lsl #14
    6ef8:	5b050000 	blpl	146f00 <__bss_end__+0x13a538>
    6efc:	00078702 	andeq	r8, r7, r2, lsl #14
    6f00:	c4170800 	ldrgt	r0, [r7], #-2048	; 0x800
    6f04:	05000013 	streq	r0, [r0, #-19]
    6f08:	0192025c 	orrseq	r0, r2, ip, asr r2
    6f0c:	17240000 	strne	r0, [r4, -r0]!
    6f10:	0000105c 	andeq	r1, r0, ip, asr r0
    6f14:	25025d05 	strcs	r5, [r2, #-3333]	; 0xd05
    6f18:	48000000 	stmdami	r0, {}	; <UNPREDICTABLE>
    6f1c:	0011ad17 	andseq	sl, r1, r7, lsl sp
    6f20:	025e0500 	subseq	r0, lr, #0, 10
    6f24:	00000069 	andeq	r0, r0, r9, rrx
    6f28:	13da1750 	bicsne	r1, sl, #80, 14	; 0x1400000
    6f2c:	5f050000 	svcpl	0x00050000
    6f30:	00064102 	andeq	r4, r6, r2, lsl #2
    6f34:	b8175800 	ldmdalt	r7, {fp, ip, lr}
    6f38:	05000011 	streq	r0, [r0, #-17]
    6f3c:	00f40260 	rscseq	r0, r4, r0, ror #4
    6f40:	17680000 	strbne	r0, [r8, -r0]!
    6f44:	000013df 	ldrdeq	r1, [r0], -pc	; <UNPREDICTABLE>
    6f48:	f4026105 	vst4.8	{d6,d8,d10,d12}, [r2], r5
    6f4c:	70000000 	andvc	r0, r0, r0
    6f50:	000f1f17 	andeq	r1, pc, r7, lsl pc	; <UNPREDICTABLE>
    6f54:	02620500 	rsbeq	r0, r2, #0, 10
    6f58:	000000f4 	strdeq	r0, [r0], -r4
    6f5c:	13311778 	teqne	r1, #120, 14	; 0x1e00000
    6f60:	63050000 	movwvs	r0, #20480	; 0x5000
    6f64:	00079702 	andeq	r9, r7, r2, lsl #14
    6f68:	b1178000 	tstlt	r7, r0
    6f6c:	05000010 	streq	r0, [r0, #-16]
    6f70:	07a70264 	streq	r0, [r7, r4, ror #4]!
    6f74:	17880000 	strne	r0, [r8, r0]
    6f78:	000012c3 	andeq	r1, r0, r3, asr #5
    6f7c:	25026505 	strcs	r6, [r2, #-1285]	; 0x505
    6f80:	a0000000 	andge	r0, r0, r0
    6f84:	00100817 	andseq	r0, r0, r7, lsl r8
    6f88:	02660500 	rsbeq	r0, r6, #0, 10
    6f8c:	000000f4 	strdeq	r0, [r0], -r4
    6f90:	0f1017a4 	svceq	0x001017a4
    6f94:	67050000 	strvs	r0, [r5, -r0]
    6f98:	0000f402 	andeq	pc, r0, r2, lsl #8
    6f9c:	f717ac00 			; <UNDEFINED> instruction: 0xf717ac00
    6fa0:	0500000f 	streq	r0, [r0, #-15]
    6fa4:	00f40268 	rscseq	r0, r4, r8, ror #4
    6fa8:	17b40000 	ldrne	r0, [r4, r0]!
    6fac:	00000ed7 	ldrdeq	r0, [r0], -r7
    6fb0:	f4026905 	vst2.8	{d6,d8}, [r2], r5
    6fb4:	bc000000 	stclt	0, cr0, [r0], {-0}
    6fb8:	000ee617 	andeq	lr, lr, r7, lsl r6
    6fbc:	026a0500 	rsbeq	r0, sl, #0, 10
    6fc0:	000000f4 	strdeq	r0, [r0], -r4
    6fc4:	116a17c4 	cmnne	sl, r4, asr #15
    6fc8:	6b050000 	blvs	146fd0 <__bss_end__+0x13a608>
    6fcc:	00002502 	andeq	r2, r0, r2, lsl #10
    6fd0:	0900cc00 	stmdbeq	r0, {sl, fp, lr, pc}
    6fd4:	00000112 	andeq	r0, r0, r2, lsl r1
    6fd8:	00000797 	muleq	r0, r7, r7
    6fdc:	0000cc0a 	andeq	ip, r0, sl, lsl #24
    6fe0:	09001900 	stmdbeq	r0, {r8, fp, ip}
    6fe4:	00000112 	andeq	r0, r0, r2, lsl r1
    6fe8:	000007a7 	andeq	r0, r0, r7, lsr #15
    6fec:	0000cc0a 	andeq	ip, r0, sl, lsl #24
    6ff0:	09000700 	stmdbeq	r0, {r8, r9, sl}
    6ff4:	00000112 	andeq	r0, r0, r2, lsl r1
    6ff8:	000007b7 			; <UNDEFINED> instruction: 0x000007b7
    6ffc:	0000cc0a 	andeq	ip, r0, sl, lsl #24
    7000:	1a001700 	bne	cc08 <__bss_end__+0x240>
    7004:	027005f0 	rsbseq	r0, r0, #240, 10	; 0x3c000000
    7008:	000007db 	ldrdeq	r0, [r0], -fp
    700c:	00111a17 	andseq	r1, r1, r7, lsl sl
    7010:	02730500 	rsbseq	r0, r3, #0, 10
    7014:	000007db 	ldrdeq	r0, [r0], -fp
    7018:	13281700 	teqne	r8, #0, 14
    701c:	74050000 	strvc	r0, [r5], #-0
    7020:	0007eb02 	andeq	lr, r7, r2, lsl #22
    7024:	09007800 	stmdbeq	r0, {fp, ip, sp, lr}
    7028:	000002db 	ldrdeq	r0, [r0], -fp
    702c:	000007eb 	andeq	r0, r0, fp, ror #15
    7030:	0000cc0a 	andeq	ip, r0, sl, lsl #24
    7034:	09001d00 	stmdbeq	r0, {r8, sl, fp, ip}
    7038:	0000002c 	andeq	r0, r0, ip, lsr #32
    703c:	000007fb 	strdeq	r0, [r0], -fp
    7040:	0000cc0a 	andeq	ip, r0, sl, lsl #24
    7044:	1b001d00 	blne	e44c <__bss_end__+0x1a84>
    7048:	025505f0 	subseq	r0, r5, #240, 10	; 0x3c000000
    704c:	0000081d 	andeq	r0, r0, sp, lsl r8
    7050:	0011f11c 	andseq	pc, r1, ip, lsl r1	; <UNPREDICTABLE>
    7054:	026c0500 	rsbeq	r0, ip, #0, 10
    7058:	00000686 	andeq	r0, r0, r6, lsl #13
    705c:	0013841c 	andseq	r8, r3, ip, lsl r4
    7060:	02750500 	rsbseq	r0, r5, #0, 10
    7064:	000007b7 			; <UNDEFINED> instruction: 0x000007b7
    7068:	01120900 	tsteq	r2, r0, lsl #18
    706c:	082d0000 	stmdaeq	sp!, {}	; <UNPREDICTABLE>
    7070:	cc0a0000 	stcgt	0, cr0, [sl], {-0}
    7074:	18000000 	stmdane	r0, {}	; <UNPREDICTABLE>
    7078:	08381d00 	ldmdaeq	r8!, {r8, sl, fp, ip}
    707c:	29150000 	ldmdbcs	r5, {}	; <UNPREDICTABLE>
    7080:	00000004 	andeq	r0, r0, r4
    7084:	082d040e 	stmdaeq	sp!, {r1, r2, r3, sl}
    7088:	040e0000 	streq	r0, [lr], #-0
    708c:	0000017c 	andeq	r0, r0, ip, ror r1
    7090:	00084f1d 	andeq	r4, r8, sp, lsl pc
    7094:	00251500 	eoreq	r1, r5, r0, lsl #10
    7098:	0e000000 	cdpeq	0, 0, cr0, cr0, cr0, {0}
    709c:	00085504 	andeq	r5, r8, r4, lsl #10
    70a0:	44040e00 	strmi	r0, [r4], #-3584	; 0xe00
    70a4:	09000008 	stmdbeq	r0, {r3}
    70a8:	000005f4 	strdeq	r0, [r0], -r4
    70ac:	0000086b 	andeq	r0, r0, fp, ror #16
    70b0:	0000cc0a 	andeq	ip, r0, sl, lsl #24
    70b4:	1e000200 	cdpne	2, 0, cr0, cr0, cr0, {0}
    70b8:	000012d7 	ldrdeq	r1, [r0], -r7
    70bc:	2902fd05 	stmdbcs	r2, {r0, r2, r8, sl, fp, ip, sp, lr, pc}
    70c0:	1e000004 	cdpne	0, 0, cr0, cr0, cr4, {0}
    70c4:	000012d0 	ldrdeq	r1, [r0], -r0
    70c8:	2f02fe05 	svccs	0x0002fe05
    70cc:	14000004 	strne	r0, [r0], #-4
    70d0:	00000025 	andeq	r0, r0, r5, lsr #32
    70d4:	00000892 	muleq	r0, r2, r8
    70d8:	00002515 	andeq	r2, r0, r5, lsl r5
    70dc:	c31f0000 	tstgt	pc, #0
    70e0:	0600000a 	streq	r0, [r0], -sl
    70e4:	00089d1d 	andeq	r9, r8, sp, lsl sp
    70e8:	83040e00 	movwhi	r0, #19968	; 0x4e00
    70ec:	14000008 	strne	r0, [r0], #-8
    70f0:	00000025 	andeq	r0, r0, r5, lsr #32
    70f4:	000008b2 			; <UNDEFINED> instruction: 0x000008b2
    70f8:	00058a15 	andeq	r8, r5, r5, lsl sl
    70fc:	001f0000 	andseq	r0, pc, r0
    7100:	0600000b 	streq	r0, [r0], -fp
    7104:	0008bd22 	andeq	fp, r8, r2, lsr #26
    7108:	a3040e00 	movwge	r0, #19968	; 0x4e00
    710c:	20000008 	andcs	r0, r0, r8
    7110:	00005401 	andeq	r5, r0, r1, lsl #8
    7114:	000c0700 	andeq	r0, ip, r0, lsl #14
    7118:	21000009 	tstcs	r0, r9
    711c:	00000f00 	andeq	r0, r0, r0, lsl #30
    7120:	13172100 	tstne	r7, #0, 2
    7124:	21010000 	mrscs	r0, (UNDEF: 1)
    7128:	0000136f 	andeq	r1, r0, pc, ror #6
    712c:	0f412104 	svceq	0x00412104
    7130:	21050000 	mrscs	r0, (UNDEF: 5)
    7134:	000010d8 	ldrdeq	r1, [r0], -r8
    7138:	138c2106 	orrne	r2, ip, #-2147483647	; 0x80000001
    713c:	21070000 	mrscs	r0, (UNDEF: 7)
    7140:	0000139b 	muleq	r0, fp, r3
    7144:	13aa2103 			; <UNDEFINED> instruction: 0x13aa2103
    7148:	00020000 	andeq	r0, r2, r0
    714c:	00146905 	andseq	r6, r4, r5, lsl #18
    7150:	c3150700 	tstgt	r5, #0, 14
    7154:	22000008 	andcs	r0, r0, #8
    7158:	0000143a 	andeq	r1, r0, sl, lsr r4
    715c:	00331d01 	eorseq	r1, r3, r1, lsl #26
    7160:	001c0000 	andseq	r0, ip, r0
    7164:	75222020 	strvc	r2, [r2, #-32]!
    7168:	01000014 	tsteq	r0, r4, lsl r0
    716c:	0000331e 	andeq	r3, r0, lr, lsl r3
    7170:	20002800 	andcs	r2, r0, r0, lsl #16
    7174:	14442220 	strbne	r2, [r4], #-544	; 0x220
    7178:	1f010000 	svcne	0x00010000
    717c:	00000033 	andeq	r0, r0, r3, lsr r0
    7180:	20200034 	eorcs	r0, r0, r4, lsr r0
    7184:	00141523 	andseq	r1, r4, r3, lsr #10
    7188:	25560100 	ldrbcs	r0, [r6, #-256]	; 0x100
    718c:	e8000000 	stmda	r0, {}	; <UNPREDICTABLE>
    7190:	340000af 	strcc	r0, [r0], #-175	; 0xaf
    7194:	01000000 	mrseq	r0, (UNDEF: 0)
    7198:	0009989c 	muleq	r9, ip, r8
    719c:	69702400 	ldmdbvs	r0!, {sl, sp}^
    71a0:	5601006e 	strpl	r0, [r1], -lr, rrx
    71a4:	0000002c 	andeq	r0, r0, ip, lsr #32
    71a8:	00001cdb 	ldrdeq	r1, [r0], -fp
    71ac:	00140925 	andseq	r0, r4, r5, lsr #18
    71b0:	2c590100 	ldfcse	f0, [r9], {-0}
    71b4:	15000000 	strne	r0, [r0, #-0]
    71b8:	2600001d 			; <UNDEFINED> instruction: 0x2600001d
    71bc:	0066666f 	rsbeq	r6, r6, pc, ror #12
    71c0:	002c5a01 	eoreq	r5, ip, r1, lsl #20
    71c4:	1d530000 	ldclne	0, cr0, [r3, #-0]
    71c8:	04270000 	strteq	r0, [r7], #-0
    71cc:	5d0000b0 	stcpl	0, cr0, [r0, #-704]	; 0xfffffd40
    71d0:	2800000b 	stmdacs	r0, {r0, r1, r3}
    71d4:	f30b5001 	vhadd.u8	d5, d11, d1
    71d8:	25355001 	ldrcs	r5, [r5, #-1]!
    71dc:	8080b423 	addhi	fp, r0, r3, lsr #8
    71e0:	00000281 	andeq	r0, r0, r1, lsl #5
    71e4:	00142f29 	andseq	r2, r4, r9, lsr #30
    71e8:	cc4f0100 	stfgte	f0, [pc], {-0}
    71ec:	1c0000af 	stcne	0, cr0, [r0], {175}	; 0xaf
    71f0:	01000000 	mrseq	r0, (UNDEF: 0)
    71f4:	0009e89c 	muleq	r9, ip, r8
    71f8:	69702400 	ldmdbvs	r0!, {sl, sp}^
    71fc:	4f01006e 	svcmi	0x0001006e
    7200:	0000002c 	andeq	r0, r0, ip, lsr #32
    7204:	00001d66 	andeq	r1, r0, r6, ror #26
    7208:	01007624 	tsteq	r0, r4, lsr #12
    720c:	00002c4f 	andeq	r2, r0, pc, asr #24
    7210:	001da000 	andseq	sl, sp, r0
    7214:	afdc2a00 	svcge	0x00dc2a00
    7218:	0a230000 	beq	8c7220 <__bss_end__+0x8ba858>
    721c:	09de0000 	ldmibeq	lr, {}^	; <UNPREDICTABLE>
    7220:	01280000 	teqeq	r8, r0
    7224:	01f30350 	mvnseq	r0, r0, asr r3
    7228:	e42b0050 	strt	r0, [fp], #-80	; 0x50
    722c:	640000af 	strvs	r0, [r0], #-175	; 0xaf
    7230:	0000000a 	andeq	r0, r0, sl
    7234:	00144e29 	andseq	r4, r4, r9, lsr #28
    7238:	bc4a0100 	stflte	f0, [sl], {-0}
    723c:	100000af 	andne	r0, r0, pc, lsr #1
    7240:	01000000 	mrseq	r0, (UNDEF: 0)
    7244:	000a239c 	muleq	sl, ip, r3
    7248:	69702400 	ldmdbvs	r0!, {sl, sp}^
    724c:	4a01006e 	bmi	4740c <__bss_end__+0x3aa44>
    7250:	0000002c 	andeq	r0, r0, ip, lsr #32
    7254:	00001dda 	ldrdeq	r1, [r0], -sl
    7258:	00afc827 	adceq	ip, pc, r7, lsr #16
    725c:	000ae000 	andeq	lr, sl, r0
    7260:	50012800 	andpl	r2, r1, r0, lsl #16
    7264:	5001f303 	andpl	pc, r1, r3, lsl #6
    7268:	01510128 	cmpeq	r1, r8, lsr #2
    726c:	29000030 	stmdbcs	r0, {r4, r5}
    7270:	000013fc 	strdeq	r1, [r0], -ip
    7274:	af984301 	svcge	0x00984301
    7278:	00240000 	eoreq	r0, r4, r0
    727c:	9c010000 	stcls	0, cr0, [r1], {-0}
    7280:	00000a64 	andeq	r0, r0, r4, ror #20
    7284:	6e697024 	cdpvs	0, 6, cr7, cr9, cr4, {1}
    7288:	2c430100 	stfcse	f0, [r3], {-0}
    728c:	fb000000 	blx	7296 <__code_start__-0xd6a>
    7290:	2700001d 	smladcs	r0, sp, r0, r0
    7294:	0000afb4 			; <UNDEFINED> instruction: 0x0000afb4
    7298:	00000b68 	andeq	r0, r0, r8, ror #22
    729c:	05500128 	ldrbeq	r0, [r0, #-296]	; 0x128
    72a0:	2000280c 	andcs	r2, r0, ip, lsl #16
    72a4:	51012820 	tstpl	r1, r0, lsr #16
    72a8:	01f33105 	mvnseq	r3, r5, lsl #2
    72ac:	00002450 	andeq	r2, r0, r0, asr r4
    72b0:	00145d29 	andseq	r5, r4, r9, lsr #26
    72b4:	743c0100 	ldrtvc	r0, [ip], #-256	; 0x100
    72b8:	240000af 	strcs	r0, [r0], #-175	; 0xaf
    72bc:	01000000 	mrseq	r0, (UNDEF: 0)
    72c0:	000aa59c 	muleq	sl, ip, r5
    72c4:	69702400 	ldmdbvs	r0!, {sl, sp}^
    72c8:	3c01006e 	stccc	0, cr0, [r1], {110}	; 0x6e
    72cc:	0000002c 	andeq	r0, r0, ip, lsr #32
    72d0:	00001e1c 	andeq	r1, r0, ip, lsl lr
    72d4:	00af9027 	adceq	r9, pc, r7, lsr #32
    72d8:	000b6800 	andeq	r6, fp, r0, lsl #16
    72dc:	50012800 	andpl	r2, r1, r0, lsl #16
    72e0:	001c0c05 	andseq	r0, ip, r5, lsl #24
    72e4:	01282020 	teqeq	r8, r0, lsr #32
    72e8:	f3310551 	vqrshl.u64	q0, <illegal reg q0.5>, <illegal reg q0.5>
    72ec:	00245001 	eoreq	r5, r4, r1
    72f0:	141f2900 	ldrne	r2, [pc], #-2304	; 72f8 <__code_start__-0xd08>
    72f4:	37010000 	strcc	r0, [r1, -r0]
    72f8:	0000af64 	andeq	sl, r0, r4, ror #30
    72fc:	00000010 	andeq	r0, r0, r0, lsl r0
    7300:	0ae09c01 	beq	ff82e30c <__bss_end__+0xff821944>
    7304:	70240000 	eorvc	r0, r4, r0
    7308:	01006e69 	tsteq	r0, r9, ror #28
    730c:	00002c37 	andeq	r2, r0, r7, lsr ip
    7310:	001e3d00 	andseq	r3, lr, r0, lsl #26
    7314:	af702700 	svcge	0x00702700
    7318:	0ae00000 	beq	ff807320 <__bss_end__+0xff7fa958>
    731c:	01280000 	teqeq	r8, r0
    7320:	01f30350 	mvnseq	r0, r0, asr r3
    7324:	51012850 	tstpl	r1, r0, asr r8
    7328:	00003101 	andeq	r3, r0, r1, lsl #2
    732c:	00110829 	andseq	r0, r1, r9, lsr #16
    7330:	fc280100 	stc2	1, cr0, [r8], #-0
    7334:	680000ae 	stmdavs	r0, {r1, r2, r3, r5, r7}
    7338:	01000000 	mrseq	r0, (UNDEF: 0)
    733c:	000b5d9c 	muleq	fp, ip, sp
    7340:	69702400 	ldmdbvs	r0!, {sl, sp}^
    7344:	2801006e 	stmdacs	r1, {r1, r2, r3, r5, r6}
    7348:	0000002c 	andeq	r0, r0, ip, lsr #32
    734c:	00001e5e 	andeq	r1, r0, lr, asr lr
    7350:	0013542c 	andseq	r5, r3, ip, lsr #8
    7354:	00280100 	eoreq	r0, r8, r0, lsl #2
    7358:	7f000009 	svcvc	0x00000009
    735c:	2d00001e 	stccs	0, cr0, [r0, #-120]	; 0xffffff88
    7360:	0066666f 	rsbeq	r6, r6, pc, ror #12
    7364:	002c2d01 	eoreq	r2, ip, r1, lsl #26
    7368:	54010000 	strpl	r0, [r1], #-0
    736c:	0100672d 	tsteq	r0, sp, lsr #14
    7370:	00002c2f 	andeq	r2, r0, pc, lsr #24
    7374:	26560100 	ldrbcs	r0, [r6], -r0, lsl #2
    7378:	31010076 	tstcc	r1, r6, ror r0
    737c:	0000002c 	andeq	r0, r0, ip, lsr #32
    7380:	00001ea0 	andeq	r1, r0, r0, lsr #29
    7384:	00af482a 	adceq	r4, pc, sl, lsr #16
    7388:	000b5d00 	andeq	r5, fp, r0, lsl #26
    738c:	000b4c00 	andeq	r4, fp, r0, lsl #24
    7390:	50012800 	andpl	r2, r1, r0, lsl #16
    7394:	00007602 	andeq	r7, r0, r2, lsl #12
    7398:	00af5c27 	adceq	r5, pc, r7, lsr #24
    739c:	000b6800 	andeq	r6, fp, r0, lsl #16
    73a0:	50012800 	andpl	r2, r1, r0, lsl #16
    73a4:	00007602 	andeq	r7, r0, r2, lsl #12
    73a8:	00412e00 	subeq	r2, r1, r0, lsl #28
    73ac:	00410000 	subeq	r0, r1, r0
    73b0:	a7060000 	strge	r0, [r6, -r0]
    73b4:	0000242e 	andeq	r2, r0, lr, lsr #8
    73b8:	00002400 	andeq	r2, r0, r0, lsl #8
    73bc:	009b0600 	addseq	r0, fp, r0, lsl #12
    73c0:	00000c4c 	andeq	r0, r0, ip, asr #24
    73c4:	1b920004 	blne	fe4873dc <__bss_end__+0xfe47aa14>
    73c8:	01040000 	mrseq	r0, (UNDEF: 4)
    73cc:	0000123e 	andeq	r1, r0, lr, lsr r2
    73d0:	00147f0c 	andseq	r7, r4, ip, lsl #30
    73d4:	000fc200 	andeq	ip, pc, r0, lsl #4
    73d8:	00b01c00 	adcseq	r1, r0, r0, lsl #24
    73dc:	0001d800 	andeq	sp, r1, r0, lsl #16
    73e0:	00178b00 	andseq	r8, r7, r0, lsl #22
    73e4:	05040200 	streq	r0, [r4, #-512]	; 0x200
    73e8:	00746e69 	rsbseq	r6, r4, r9, ror #28
    73ec:	e7070403 	str	r0, [r7, -r3, lsl #8]
    73f0:	03000001 	movweq	r0, #1
    73f4:	005c0601 	subseq	r0, ip, r1, lsl #12
    73f8:	02030000 	andeq	r0, r3, #0
    73fc:	00022905 	andeq	r2, r2, r5, lsl #18
    7400:	05040300 	streq	r0, [r4, #-768]	; 0x300
    7404:	00000202 	andeq	r0, r0, r2, lsl #4
    7408:	fd050803 	stc2	8, cr0, [r5, #-12]
    740c:	03000001 	movweq	r0, #1
    7410:	005a0801 	subseq	r0, sl, r1, lsl #16
    7414:	02030000 	andeq	r0, r3, #0
    7418:	00009f07 	andeq	r9, r0, r7, lsl #30
    741c:	07040300 	streq	r0, [r4, -r0, lsl #6]
    7420:	000001e2 	andeq	r0, r0, r2, ror #3
    7424:	dd070803 	stcle	8, cr0, [r7, #-12]
    7428:	04000001 	streq	r0, [r0], #-1
    742c:	00001153 	andeq	r1, r0, r3, asr r1
    7430:	00250702 	eoreq	r0, r5, r2, lsl #14
    7434:	3d040000 	stccc	0, cr0, [r4, #-0]
    7438:	03000011 	movweq	r0, #17
    743c:	0000412c 	andeq	r4, r0, ip, lsr #2
    7440:	12190400 	andsne	r0, r9, #0, 8
    7444:	72030000 	andvc	r0, r3, #0
    7448:	00000041 	andeq	r0, r0, r1, asr #32
    744c:	0010e705 	andseq	lr, r0, r5, lsl #14
    7450:	01650400 	cmneq	r5, r0, lsl #8
    7454:	0000002c 	andeq	r0, r0, ip, lsr #32
    7458:	a6030406 	strge	r0, [r3], -r6, lsl #8
    745c:	000000b7 	strheq	r0, [r0], -r7
    7460:	0010d207 	andseq	sp, r0, r7, lsl #4
    7464:	8ca80300 	stchi	3, cr0, [r8]
    7468:	07000000 	streq	r0, [r0, -r0]
    746c:	0000107a 	andeq	r1, r0, sl, ror r0
    7470:	00b7a903 	adcseq	sl, r7, r3, lsl #18
    7474:	08000000 	stmdaeq	r0, {}	; <UNPREDICTABLE>
    7478:	0000004f 	andeq	r0, r0, pc, asr #32
    747c:	000000c7 	andeq	r0, r0, r7, asr #1
    7480:	0000c709 	andeq	ip, r0, r9, lsl #14
    7484:	03000300 	movweq	r0, #768	; 0x300
    7488:	01f40704 	mvnseq	r0, r4, lsl #14
    748c:	080a0000 	stmdaeq	sl, {}	; <UNPREDICTABLE>
    7490:	00efa303 	rsceq	sl, pc, r3, lsl #6
    7494:	fe0b0000 	cdp2	0, 0, cr0, cr11, cr0, {0}
    7498:	03000011 	movweq	r0, #17
    749c:	000025a5 	andeq	r2, r0, r5, lsr #11
    74a0:	060b0000 	streq	r0, [fp], -r0
    74a4:	03000012 	movweq	r0, #18
    74a8:	000098aa 	andeq	r9, r0, sl, lsr #17
    74ac:	04000400 	streq	r0, [r0], #-1024	; 0x400
    74b0:	00001191 	muleq	r0, r1, r1
    74b4:	00ceab03 	sbceq	sl, lr, r3, lsl #22
    74b8:	43040000 	movwmi	r0, #16384	; 0x4000
    74bc:	03000010 	movweq	r0, #16
    74c0:	00006baf 	andeq	r6, r0, pc, lsr #23
    74c4:	0d040c00 	stceq	12, cr0, [r4, #-0]
    74c8:	00010d04 	andeq	r0, r1, r4, lsl #26
    74cc:	08010300 	stmdaeq	r1, {r8, r9}
    74d0:	00000063 	andeq	r0, r0, r3, rrx
    74d4:	00010d0e 	andeq	r0, r1, lr, lsl #26
    74d8:	12bb0400 	adcsne	r0, fp, #0, 8
    74dc:	16050000 	strne	r0, [r5], -r0
    74e0:	0000005d 	andeq	r0, r0, sp, asr r0
    74e4:	0010540f 	andseq	r5, r0, pc, lsl #8
    74e8:	2d051800 	stccs	8, cr1, [r5, #-0]
    74ec:	00000177 	andeq	r0, r0, r7, ror r1
    74f0:	0011b20b 	andseq	fp, r1, fp, lsl #4
    74f4:	772f0500 	strvc	r0, [pc, -r0, lsl #10]!
    74f8:	00000001 	andeq	r0, r0, r1
    74fc:	006b5f10 	rsbeq	r5, fp, r0, lsl pc
    7500:	00253005 	eoreq	r3, r5, r5
    7504:	0b040000 	bleq	10750c <__bss_end__+0xfab44>
    7508:	000011e9 	andeq	r1, r0, r9, ror #3
    750c:	00253005 	eoreq	r3, r5, r5
    7510:	0b080000 	bleq	207518 <__bss_end__+0x1fab50>
    7514:	0000102f 	andeq	r1, r0, pc, lsr #32
    7518:	00253005 	eoreq	r3, r5, r5
    751c:	0b0c0000 	bleq	307524 <__bss_end__+0x2fab5c>
    7520:	00001302 	andeq	r1, r0, r2, lsl #6
    7524:	00253005 	eoreq	r3, r5, r5
    7528:	10100000 	andsne	r0, r0, r0
    752c:	0500785f 	streq	r7, [r0, #-2143]	; 0x85f
    7530:	00017d31 	andeq	r7, r1, r1, lsr sp
    7534:	0d001400 	cfstrseq	mvf1, [r0, #-0]
    7538:	00012404 	andeq	r2, r1, r4, lsl #8
    753c:	01190800 	tsteq	r9, r0, lsl #16
    7540:	018d0000 	orreq	r0, sp, r0
    7544:	c7090000 	strgt	r0, [r9, -r0]
    7548:	00000000 	andeq	r0, r0, r0
    754c:	10750f00 	rsbsne	r0, r5, r0, lsl #30
    7550:	05240000 	streq	r0, [r4, #-0]!
    7554:	00020635 	andeq	r0, r2, r5, lsr r6
    7558:	0f2d0b00 	svceq	0x002d0b00
    755c:	37050000 	strcc	r0, [r5, -r0]
    7560:	00000025 	andeq	r0, r0, r5, lsr #32
    7564:	12210b00 	eorne	r0, r1, #0, 22
    7568:	38050000 	stmdacc	r5, {}	; <UNPREDICTABLE>
    756c:	00000025 	andeq	r0, r0, r5, lsr #32
    7570:	0f5b0b04 	svceq	0x005b0b04
    7574:	39050000 	stmdbcc	r5, {}	; <UNPREDICTABLE>
    7578:	00000025 	andeq	r0, r0, r5, lsr #32
    757c:	13f20b08 	mvnsne	r0, #8, 22	; 0x2000
    7580:	3a050000 	bcc	147588 <__bss_end__+0x13abc0>
    7584:	00000025 	andeq	r0, r0, r5, lsr #32
    7588:	11210b0c 	teqne	r1, ip, lsl #22
    758c:	3b050000 	blcc	147594 <__bss_end__+0x13abcc>
    7590:	00000025 	andeq	r0, r0, r5, lsr #32
    7594:	10f60b10 	rscsne	r0, r6, r0, lsl fp
    7598:	3c050000 	stccc	0, cr0, [r5], {-0}
    759c:	00000025 	andeq	r0, r0, r5, lsr #32
    75a0:	13070b14 	movwne	r0, #31508	; 0x7b14
    75a4:	3d050000 	stccc	0, cr0, [r5, #-0]
    75a8:	00000025 	andeq	r0, r0, r5, lsr #32
    75ac:	11730b18 	cmnne	r3, r8, lsl fp
    75b0:	3e050000 	cdpcc	0, 0, cr0, cr5, cr0, {0}
    75b4:	00000025 	andeq	r0, r0, r5, lsr #32
    75b8:	13b90b1c 			; <UNDEFINED> instruction: 0x13b90b1c
    75bc:	3f050000 	svccc	0x00050000
    75c0:	00000025 	andeq	r0, r0, r5, lsr #32
    75c4:	6a110020 	bvs	44764c <__bss_end__+0x43ac84>
    75c8:	0800000f 	stmdaeq	r0, {r0, r1, r2, r3}
    75cc:	46480501 	strbmi	r0, [r8], -r1, lsl #10
    75d0:	0b000002 	bleq	75e0 <__code_start__-0xa20>
    75d4:	00001016 	andeq	r1, r0, r6, lsl r0
    75d8:	02464905 	subeq	r4, r6, #81920	; 0x14000
    75dc:	0b000000 	bleq	75e4 <__code_start__-0xa1c>
    75e0:	00000ea8 	andeq	r0, r0, r8, lsr #29
    75e4:	02464a05 	subeq	r4, r6, #20480	; 0x5000
    75e8:	12800000 	addne	r0, r0, #0
    75ec:	000012ad 	andeq	r1, r0, sp, lsr #5
    75f0:	01194c05 	tsteq	r9, r5, lsl #24
    75f4:	01000000 	mrseq	r0, (UNDEF: 0)
    75f8:	000f8f12 	andeq	r8, pc, r2, lsl pc	; <UNPREDICTABLE>
    75fc:	194f0500 	stmdbne	pc, {r8, sl}^	; <UNPREDICTABLE>
    7600:	04000001 	streq	r0, [r0], #-1
    7604:	05080001 	streq	r0, [r8, #-1]
    7608:	56000001 	strpl	r0, [r0], -r1
    760c:	09000002 	stmdbeq	r0, {r1}
    7610:	000000c7 	andeq	r0, r0, r7, asr #1
    7614:	2a11001f 	bcs	447698 <__bss_end__+0x43acd0>
    7618:	90000011 	andls	r0, r0, r1, lsl r0
    761c:	945b0501 	ldrbls	r0, [fp], #-1281	; 0x501
    7620:	0b000002 	bleq	7630 <__code_start__-0x9d0>
    7624:	000011b2 			; <UNDEFINED> instruction: 0x000011b2
    7628:	02945c05 	addseq	r5, r4, #1280	; 0x500
    762c:	0b000000 	bleq	7634 <__code_start__-0x9cc>
    7630:	000011ca 	andeq	r1, r0, sl, asr #3
    7634:	00255d05 	eoreq	r5, r5, r5, lsl #26
    7638:	0b040000 	bleq	107640 <__bss_end__+0xfac78>
    763c:	0000102a 	andeq	r1, r0, sl, lsr #32
    7640:	029a5f05 	addseq	r5, sl, #5, 30
    7644:	0b080000 	bleq	20764c <__bss_end__+0x1fac84>
    7648:	00000f6a 	andeq	r0, r0, sl, ror #30
    764c:	02066005 	andeq	r6, r6, #5
    7650:	00880000 	addeq	r0, r8, r0
    7654:	0256040d 	subseq	r0, r6, #218103808	; 0xd000000
    7658:	aa080000 	bge	207660 <__bss_end__+0x1fac98>
    765c:	aa000002 	bge	766c <__code_start__-0x994>
    7660:	09000002 	stmdbeq	r0, {r1}
    7664:	000000c7 	andeq	r0, r0, r7, asr #1
    7668:	040d001f 	streq	r0, [sp], #-31
    766c:	000002b0 			; <UNDEFINED> instruction: 0x000002b0
    7670:	117d0f13 	cmnne	sp, r3, lsl pc
    7674:	05080000 	streq	r0, [r8, #-0]
    7678:	0002d673 	andeq	sp, r2, r3, ror r6
    767c:	0f500b00 	svceq	0x00500b00
    7680:	74050000 	strvc	r0, [r5], #-0
    7684:	000002d6 	ldrdeq	r0, [r0], -r6
    7688:	0eb40b00 	vmoveq.f64	d0, #64	; 0x40
    768c:	75050000 	strvc	r0, [r5, #-0]
    7690:	00000025 	andeq	r0, r0, r5, lsr #32
    7694:	040d0004 	streq	r0, [sp], #-4
    7698:	0000004f 	andeq	r0, r0, pc, asr #32
    769c:	00119c0f 	andseq	r9, r1, pc, lsl #24
    76a0:	b3056800 	movwlt	r6, #22528	; 0x5800
    76a4:	00000406 	andeq	r0, r0, r6, lsl #8
    76a8:	00705f10 	rsbseq	r5, r0, r0, lsl pc
    76ac:	02d6b405 	sbcseq	fp, r6, #83886080	; 0x5000000
    76b0:	10000000 	andne	r0, r0, r0
    76b4:	0500725f 	streq	r7, [r0, #-607]	; 0x25f
    76b8:	000025b5 			; <UNDEFINED> instruction: 0x000025b5
    76bc:	5f100400 	svcpl	0x00100400
    76c0:	b6050077 			; <UNDEFINED> instruction: 0xb6050077
    76c4:	00000025 	andeq	r0, r0, r5, lsr #32
    76c8:	0f880b08 	svceq	0x00880b08
    76cc:	b7050000 	strlt	r0, [r5, -r0]
    76d0:	0000003a 	andeq	r0, r0, sl, lsr r0
    76d4:	109b0b0c 	addsne	r0, fp, ip, lsl #22
    76d8:	b8050000 	stmdalt	r5, {}	; <UNPREDICTABLE>
    76dc:	0000003a 	andeq	r0, r0, sl, lsr r0
    76e0:	625f100e 	subsvs	r1, pc, #14
    76e4:	b9050066 	stmdblt	r5, {r1, r2, r5, r6}
    76e8:	000002b1 			; <UNDEFINED> instruction: 0x000002b1
    76ec:	0ef70b10 	vmoveq.u8	r0, d7[4]
    76f0:	ba050000 	blt	1476f8 <__bss_end__+0x13ad30>
    76f4:	00000025 	andeq	r0, r0, r5, lsr #32
    76f8:	0f780b18 	svceq	0x00780b18
    76fc:	c1050000 	mrsgt	r0, (UNDEF: 5)
    7700:	00000105 	andeq	r0, r0, r5, lsl #2
    7704:	14190b1c 	ldrne	r0, [r9], #-2844	; 0xb1c
    7708:	c3050000 	movwgt	r0, #20480	; 0x5000
    770c:	00000561 	andeq	r0, r0, r1, ror #10
    7710:	14330b20 	ldrtne	r0, [r3], #-2848	; 0xb20
    7714:	c5050000 	strgt	r0, [r5, #-0]
    7718:	0000058b 	andeq	r0, r0, fp, lsl #11
    771c:	120e0b24 	andne	r0, lr, #36, 22	; 0x9000
    7720:	c8050000 	stmdagt	r5, {}	; <UNPREDICTABLE>
    7724:	000005af 	andeq	r0, r0, pc, lsr #11
    7728:	13d30b28 	bicsne	r0, r3, #40, 22	; 0xa000
    772c:	c9050000 	stmdbgt	r5, {}	; <UNPREDICTABLE>
    7730:	000005c9 	andeq	r0, r0, r9, asr #11
    7734:	755f102c 	ldrbvc	r1, [pc, #-44]	; 7710 <__code_start__-0x8f0>
    7738:	cc050062 	stcgt	0, cr0, [r5], {98}	; 0x62
    773c:	000002b1 			; <UNDEFINED> instruction: 0x000002b1
    7740:	755f1030 	ldrbvc	r1, [pc, #-48]	; 7718 <__code_start__-0x8e8>
    7744:	cd050070 	stcgt	0, cr0, [r5, #-448]	; 0xfffffe40
    7748:	000002d6 	ldrdeq	r0, [r0], -r6
    774c:	755f1038 	ldrbvc	r1, [pc, #-56]	; 771c <__code_start__-0x8e4>
    7750:	ce050072 	mcrgt	0, 0, r0, cr5, cr2, {3}
    7754:	00000025 	andeq	r0, r0, r5, lsr #32
    7758:	0f3b0b3c 	svceq	0x003b0b3c
    775c:	d1050000 	mrsle	r0, (UNDEF: 5)
    7760:	000005cf 	andeq	r0, r0, pc, asr #11
    7764:	137e0b40 	cmnne	lr, #64, 22	; 0x10000
    7768:	d2050000 	andle	r0, r5, #0
    776c:	000005df 	ldrdeq	r0, [r0], -pc	; <UNPREDICTABLE>
    7770:	6c5f1043 	mrrcvs	0, 4, r1, pc, cr3	; <UNPREDICTABLE>
    7774:	d5050062 	strle	r0, [r5, #-98]	; 0x62
    7778:	000002b1 			; <UNDEFINED> instruction: 0x000002b1
    777c:	0f9e0b44 	svceq	0x009e0b44
    7780:	d8050000 	stmdale	r5, {}	; <UNPREDICTABLE>
    7784:	00000025 	andeq	r0, r0, r5, lsr #32
    7788:	11000b4c 	tstne	r0, ip, asr #22
    778c:	d9050000 	stmdble	r5, {}	; <UNPREDICTABLE>
    7790:	00000076 	andeq	r0, r0, r6, ror r0
    7794:	13690b50 	cmnne	r9, #80, 22	; 0x14000
    7798:	dc050000 	stcle	0, cr0, [r5], {-0}
    779c:	00000424 	andeq	r0, r0, r4, lsr #8
    77a0:	07230b54 			; <UNDEFINED> instruction: 0x07230b54
    77a4:	e0050000 	and	r0, r5, r0
    77a8:	000000fa 	strdeq	r0, [r0], -sl
    77ac:	11a40b58 			; <UNDEFINED> instruction: 0x11a40b58
    77b0:	e2050000 	and	r0, r5, #0
    77b4:	000000ef 	andeq	r0, r0, pc, ror #1
    77b8:	10ee0b5c 	rscne	r0, lr, ip, asr fp
    77bc:	e3050000 	movw	r0, #20480	; 0x5000
    77c0:	00000025 	andeq	r0, r0, r5, lsr #32
    77c4:	25140064 	ldrcs	r0, [r4, #-100]	; 0x64
    77c8:	24000000 	strcs	r0, [r0], #-0
    77cc:	15000004 	strne	r0, [r0, #-4]
    77d0:	00000424 	andeq	r0, r0, r4, lsr #8
    77d4:	00010515 	andeq	r0, r1, r5, lsl r5
    77d8:	01071500 	tsteq	r7, r0, lsl #10
    77dc:	25150000 	ldrcs	r0, [r5, #-0]
    77e0:	00000000 	andeq	r0, r0, r0
    77e4:	042f040d 	strteq	r0, [pc], #-1037	; 77ec <__code_start__-0x814>
    77e8:	240e0000 	strcs	r0, [lr], #-0
    77ec:	16000004 	strne	r0, [r0], -r4
    77f0:	000011f1 	strdeq	r1, [r0], -r1	; <UNPREDICTABLE>
    77f4:	38050428 	stmdacc	r5, {r3, r5, sl}
    77f8:	00056102 	andeq	r6, r5, r2, lsl #2
    77fc:	116c1700 	cmnne	ip, r0, lsl #14
    7800:	3a050000 	bcc	147808 <__bss_end__+0x13ae40>
    7804:	00002502 	andeq	r2, r0, r2, lsl #10
    7808:	97170000 	ldrls	r0, [r7, -r0]
    780c:	0500000f 	streq	r0, [r0, #-15]
    7810:	0636023f 			; <UNDEFINED> instruction: 0x0636023f
    7814:	17040000 	strne	r0, [r4, -r0]
    7818:	0000108b 	andeq	r1, r0, fp, lsl #1
    781c:	36023f05 	strcc	r3, [r2], -r5, lsl #30
    7820:	08000006 	stmdaeq	r0, {r1, r2}
    7824:	00104c17 	andseq	r4, r0, r7, lsl ip
    7828:	023f0500 	eorseq	r0, pc, #0, 10
    782c:	00000636 	andeq	r0, r0, r6, lsr r6
    7830:	11c5170c 	bicne	r1, r5, ip, lsl #14
    7834:	41050000 	mrsmi	r0, (UNDEF: 5)
    7838:	00002502 	andeq	r2, r0, r2, lsl #10
    783c:	c2171000 	andsgt	r1, r7, #0
    7840:	0500000e 	streq	r0, [r0, #-14]
    7844:	08180242 	ldmdaeq	r8, {r1, r6, r9}
    7848:	17140000 	ldrne	r0, [r4, -r0]
    784c:	000012e3 	andeq	r1, r0, r3, ror #5
    7850:	25024405 	strcs	r4, [r2, #-1029]	; 0x405
    7854:	30000000 	andcc	r0, r0, r0
    7858:	0011cf17 	andseq	ip, r1, r7, lsl pc
    785c:	02450500 	subeq	r0, r5, #0, 10
    7860:	00000585 	andeq	r0, r0, r5, lsl #11
    7864:	11321734 	teqne	r2, r4, lsr r7
    7868:	47050000 	strmi	r0, [r5, -r0]
    786c:	00002502 	andeq	r2, r0, r2, lsl #10
    7870:	df173800 	svcle	0x00173800
    7874:	05000011 	streq	r0, [r0, #-17]
    7878:	08330249 	ldmdaeq	r3!, {r0, r3, r6, r9}
    787c:	173c0000 	ldrne	r0, [ip, -r0]!
    7880:	000010ca 	andeq	r1, r0, sl, asr #1
    7884:	77024c05 	strvc	r4, [r2, -r5, lsl #24]
    7888:	40000001 	andmi	r0, r0, r1
    788c:	00106b17 	andseq	r6, r0, r7, lsl fp
    7890:	024d0500 	subeq	r0, sp, #0, 10
    7894:	00000025 	andeq	r0, r0, r5, lsr #32
    7898:	13ed1744 	mvnne	r1, #68, 14	; 0x1100000
    789c:	4e050000 	cdpmi	0, 0, cr0, cr5, cr0, {0}
    78a0:	00017702 	andeq	r7, r1, r2, lsl #14
    78a4:	49174800 	ldmdbmi	r7, {fp, lr}
    78a8:	05000011 	streq	r0, [r0, #-17]
    78ac:	0839024f 	ldmdaeq	r9!, {r0, r1, r2, r3, r6, r9}
    78b0:	174c0000 	strbne	r0, [ip, -r0]
    78b4:	00001093 	muleq	r0, r3, r0
    78b8:	25025205 	strcs	r5, [r2, #-517]	; 0x205
    78bc:	50000000 	andpl	r0, r0, r0
    78c0:	000fba17 	andeq	fp, pc, r7, lsl sl	; <UNPREDICTABLE>
    78c4:	02530500 	subseq	r0, r3, #0, 10
    78c8:	00000107 	andeq	r0, r0, r7, lsl #2
    78cc:	11651754 	cmnne	r5, r4, asr r7
    78d0:	76050000 	strvc	r0, [r5], -r0
    78d4:	0007f602 	andeq	pc, r7, r2, lsl #12
    78d8:	2a185800 	bcs	61d8e0 <__bss_end__+0x610f18>
    78dc:	05000011 	streq	r0, [r0, #-17]
    78e0:	0294027a 	addseq	r0, r4, #-1610612729	; 0xa0000007
    78e4:	01480000 	mrseq	r0, (UNDEF: 72)
    78e8:	0010a818 	andseq	sl, r0, r8, lsl r8
    78ec:	027b0500 	rsbseq	r0, fp, #0, 10
    78f0:	00000256 	andeq	r0, r0, r6, asr r2
    78f4:	4f18014c 	svcmi	0x0018014c
    78f8:	05000013 	streq	r0, [r0, #-19]
    78fc:	084a027f 	stmdaeq	sl, {r0, r1, r2, r3, r4, r5, r6, r9}^
    7900:	02dc0000 	sbcseq	r0, ip, #0
    7904:	000f8018 	andeq	r8, pc, r8, lsl r0	; <UNPREDICTABLE>
    7908:	02840500 	addeq	r0, r4, #0, 10
    790c:	000005fb 	strdeq	r0, [r0], -fp
    7910:	651802e0 	ldrvs	r0, [r8, #-736]	; 0x2e0
    7914:	0500000f 	streq	r0, [r0, #-15]
    7918:	08560285 	ldmdaeq	r6, {r0, r2, r7, r9}^
    791c:	02ec0000 	rsceq	r0, ip, #0
    7920:	06040d00 	streq	r0, [r4], -r0, lsl #26
    7924:	14000004 	strne	r0, [r0], #-4
    7928:	00000025 	andeq	r0, r0, r5, lsr #32
    792c:	00000585 	andeq	r0, r0, r5, lsl #11
    7930:	00042415 	andeq	r2, r4, r5, lsl r4
    7934:	01051500 	tsteq	r5, r0, lsl #10
    7938:	85150000 	ldrhi	r0, [r5, #-0]
    793c:	15000005 	strne	r0, [r0, #-5]
    7940:	00000025 	andeq	r0, r0, r5, lsr #32
    7944:	14040d00 	strne	r0, [r4], #-3328	; 0xd00
    7948:	0d000001 	stceq	0, cr0, [r0, #-4]
    794c:	00056704 	andeq	r6, r5, r4, lsl #14
    7950:	00811400 	addeq	r1, r1, r0, lsl #8
    7954:	05af0000 	streq	r0, [pc, #0]!	; 795c <__code_start__-0x6a4>
    7958:	24150000 	ldrcs	r0, [r5], #-0
    795c:	15000004 	strne	r0, [r0, #-4]
    7960:	00000105 	andeq	r0, r0, r5, lsl #2
    7964:	00008115 	andeq	r8, r0, r5, lsl r1
    7968:	00251500 	eoreq	r1, r5, r0, lsl #10
    796c:	0d000000 	stceq	0, cr0, [r0, #-0]
    7970:	00059104 	andeq	r9, r5, r4, lsl #2
    7974:	00251400 	eoreq	r1, r5, r0, lsl #8
    7978:	05c90000 	strbeq	r0, [r9]
    797c:	24150000 	ldrcs	r0, [r5], #-0
    7980:	15000004 	strne	r0, [r0, #-4]
    7984:	00000105 	andeq	r0, r0, r5, lsl #2
    7988:	b5040d00 	strlt	r0, [r4, #-3328]	; 0xd00
    798c:	08000005 	stmdaeq	r0, {r0, r2}
    7990:	0000004f 	andeq	r0, r0, pc, asr #32
    7994:	000005df 	ldrdeq	r0, [r0], -pc	; <UNPREDICTABLE>
    7998:	0000c709 	andeq	ip, r0, r9, lsl #14
    799c:	08000200 	stmdaeq	r0, {r9}
    79a0:	0000004f 	andeq	r0, r0, pc, asr #32
    79a4:	000005ef 	andeq	r0, r0, pc, ror #11
    79a8:	0000c709 	andeq	ip, r0, r9, lsl #14
    79ac:	05000000 	streq	r0, [r0, #-0]
    79b0:	0000118a 	andeq	r1, r0, sl, lsl #3
    79b4:	dc011d05 	stcle	13, cr1, [r1], {5}
    79b8:	19000002 	stmdbne	r0, {r1}
    79bc:	00001311 	andeq	r1, r0, r1, lsl r3
    79c0:	0121050c 	teqeq	r1, ip, lsl #10
    79c4:	00000630 	andeq	r0, r0, r0, lsr r6
    79c8:	0011b217 	andseq	fp, r1, r7, lsl r2
    79cc:	01230500 	teqeq	r3, r0, lsl #10
    79d0:	00000630 	andeq	r0, r0, r0, lsr r6
    79d4:	10a11700 	adcne	r1, r1, r0, lsl #14
    79d8:	24050000 	strcs	r0, [r5], #-0
    79dc:	00002501 	andeq	r2, r0, r1, lsl #10
    79e0:	84170400 	ldrhi	r0, [r7], #-1024	; 0x400
    79e4:	05000011 	streq	r0, [r0, #-17]
    79e8:	06360125 	ldrteq	r0, [r6], -r5, lsr #2
    79ec:	00080000 	andeq	r0, r8, r0
    79f0:	05fb040d 	ldrbeq	r0, [fp, #1037]!	; 0x40d
    79f4:	040d0000 	streq	r0, [sp], #-0
    79f8:	000005ef 	andeq	r0, r0, pc, ror #11
    79fc:	000eba19 	andeq	fp, lr, r9, lsl sl
    7a00:	3d050e00 	stccc	14, cr0, [r5, #-0]
    7a04:	00067101 	andeq	r7, r6, r1, lsl #2
    7a08:	11f81700 	mvnsne	r1, r0, lsl #14
    7a0c:	3e050000 	cdpcc	0, 0, cr0, cr5, cr0, {0}
    7a10:	00067101 	andeq	r7, r6, r1, lsl #2
    7a14:	32170000 	andscc	r0, r7, #0
    7a18:	05000012 	streq	r0, [r0, #-18]
    7a1c:	0671013f 			; <UNDEFINED> instruction: 0x0671013f
    7a20:	17060000 	strne	r0, [r6, -r0]
    7a24:	000012b6 			; <UNDEFINED> instruction: 0x000012b6
    7a28:	56014005 	strpl	r4, [r1], -r5
    7a2c:	0c000000 	stceq	0, cr0, [r0], {-0}
    7a30:	00560800 	subseq	r0, r6, r0, lsl #16
    7a34:	06810000 	streq	r0, [r1], r0
    7a38:	c7090000 	strgt	r0, [r9, -r0]
    7a3c:	02000000 	andeq	r0, r0, #0
    7a40:	05d01a00 	ldrbeq	r1, [r0, #2560]	; 0xa00
    7a44:	07820257 			; <UNDEFINED> instruction: 0x07820257
    7a48:	f5170000 			; <UNDEFINED> instruction: 0xf5170000
    7a4c:	05000012 	streq	r0, [r0, #-18]
    7a50:	002c0259 	eoreq	r0, ip, r9, asr r2
    7a54:	17000000 	strne	r0, [r0, -r0]
    7a58:	000012a0 	andeq	r1, r0, r0, lsr #5
    7a5c:	07025a05 	streq	r5, [r2, -r5, lsl #20]
    7a60:	04000001 	streq	r0, [r0], #-1
    7a64:	0010bd17 	andseq	fp, r0, r7, lsl sp
    7a68:	025b0500 	subseq	r0, fp, #0, 10
    7a6c:	00000782 	andeq	r0, r0, r2, lsl #15
    7a70:	13c41708 	bicne	r1, r4, #8, 14	; 0x200000
    7a74:	5c050000 	stcpl	0, cr0, [r5], {-0}
    7a78:	00018d02 	andeq	r8, r1, r2, lsl #26
    7a7c:	5c172400 	cfldrspl	mvf2, [r7], {-0}
    7a80:	05000010 	streq	r0, [r0, #-16]
    7a84:	0025025d 	eoreq	r0, r5, sp, asr r2
    7a88:	17480000 	strbne	r0, [r8, -r0]
    7a8c:	000011ad 	andeq	r1, r0, sp, lsr #3
    7a90:	64025e05 	strvs	r5, [r2], #-3589	; 0xe05
    7a94:	50000000 	andpl	r0, r0, r0
    7a98:	0013da17 	andseq	sp, r3, r7, lsl sl
    7a9c:	025f0500 	subseq	r0, pc, #0, 10
    7aa0:	0000063c 	andeq	r0, r0, ip, lsr r6
    7aa4:	11b81758 			; <UNDEFINED> instruction: 0x11b81758
    7aa8:	60050000 	andvs	r0, r5, r0
    7aac:	0000ef02 	andeq	lr, r0, r2, lsl #30
    7ab0:	df176800 	svcle	0x00176800
    7ab4:	05000013 	streq	r0, [r0, #-19]
    7ab8:	00ef0261 	rsceq	r0, pc, r1, ror #4
    7abc:	17700000 	ldrbne	r0, [r0, -r0]!
    7ac0:	00000f1f 	andeq	r0, r0, pc, lsl pc
    7ac4:	ef026205 	svc	0x00026205
    7ac8:	78000000 	stmdavc	r0, {}	; <UNPREDICTABLE>
    7acc:	00133117 	andseq	r3, r3, r7, lsl r1
    7ad0:	02630500 	rsbeq	r0, r3, #0, 10
    7ad4:	00000792 	muleq	r0, r2, r7
    7ad8:	10b11780 	adcsne	r1, r1, r0, lsl #15
    7adc:	64050000 	strvs	r0, [r5], #-0
    7ae0:	0007a202 	andeq	sl, r7, r2, lsl #4
    7ae4:	c3178800 	tstgt	r7, #0, 16
    7ae8:	05000012 	streq	r0, [r0, #-18]
    7aec:	00250265 	eoreq	r0, r5, r5, ror #4
    7af0:	17a00000 	strne	r0, [r0, r0]!
    7af4:	00001008 	andeq	r1, r0, r8
    7af8:	ef026605 	svc	0x00026605
    7afc:	a4000000 	strge	r0, [r0], #-0
    7b00:	000f1017 	andeq	r1, pc, r7, lsl r0	; <UNPREDICTABLE>
    7b04:	02670500 	rsbeq	r0, r7, #0, 10
    7b08:	000000ef 	andeq	r0, r0, pc, ror #1
    7b0c:	0ff717ac 	svceq	0x00f717ac
    7b10:	68050000 	stmdavs	r5, {}	; <UNPREDICTABLE>
    7b14:	0000ef02 	andeq	lr, r0, r2, lsl #30
    7b18:	d717b400 	ldrle	fp, [r7, -r0, lsl #8]
    7b1c:	0500000e 	streq	r0, [r0, #-14]
    7b20:	00ef0269 	rsceq	r0, pc, r9, ror #4
    7b24:	17bc0000 	ldrne	r0, [ip, r0]!
    7b28:	00000ee6 	andeq	r0, r0, r6, ror #29
    7b2c:	ef026a05 	svc	0x00026a05
    7b30:	c4000000 	strgt	r0, [r0], #-0
    7b34:	00116a17 	andseq	r6, r1, r7, lsl sl
    7b38:	026b0500 	rsbeq	r0, fp, #0, 10
    7b3c:	00000025 	andeq	r0, r0, r5, lsr #32
    7b40:	0d0800cc 	stceq	0, cr0, [r8, #-816]	; 0xfffffcd0
    7b44:	92000001 	andls	r0, r0, #1
    7b48:	09000007 	stmdbeq	r0, {r0, r1, r2}
    7b4c:	000000c7 	andeq	r0, r0, r7, asr #1
    7b50:	0d080019 	stceq	0, cr0, [r8, #-100]	; 0xffffff9c
    7b54:	a2000001 	andge	r0, r0, #1
    7b58:	09000007 	stmdbeq	r0, {r0, r1, r2}
    7b5c:	000000c7 	andeq	r0, r0, r7, asr #1
    7b60:	0d080007 	stceq	0, cr0, [r8, #-28]	; 0xffffffe4
    7b64:	b2000001 	andlt	r0, r0, #1
    7b68:	09000007 	stmdbeq	r0, {r0, r1, r2}
    7b6c:	000000c7 	andeq	r0, r0, r7, asr #1
    7b70:	f01a0017 			; <UNDEFINED> instruction: 0xf01a0017
    7b74:	d6027005 	strle	r7, [r2], -r5
    7b78:	17000007 	strne	r0, [r0, -r7]
    7b7c:	0000111a 	andeq	r1, r0, sl, lsl r1
    7b80:	d6027305 	strle	r7, [r2], -r5, lsl #6
    7b84:	00000007 	andeq	r0, r0, r7
    7b88:	00132817 	andseq	r2, r3, r7, lsl r8
    7b8c:	02740500 	rsbseq	r0, r4, #0, 10
    7b90:	000007e6 	andeq	r0, r0, r6, ror #15
    7b94:	d6080078 			; <UNDEFINED> instruction: 0xd6080078
    7b98:	e6000002 	str	r0, [r0], -r2
    7b9c:	09000007 	stmdbeq	r0, {r0, r1, r2}
    7ba0:	000000c7 	andeq	r0, r0, r7, asr #1
    7ba4:	2c08001d 	stccs	0, cr0, [r8], {29}
    7ba8:	f6000000 			; <UNDEFINED> instruction: 0xf6000000
    7bac:	09000007 	stmdbeq	r0, {r0, r1, r2}
    7bb0:	000000c7 	andeq	r0, r0, r7, asr #1
    7bb4:	f01b001d 			; <UNDEFINED> instruction: 0xf01b001d
    7bb8:	18025505 	stmdane	r2, {r0, r2, r8, sl, ip, lr}
    7bbc:	1c000008 	stcne	0, cr0, [r0], {8}
    7bc0:	000011f1 	strdeq	r1, [r0], -r1	; <UNPREDICTABLE>
    7bc4:	81026c05 	tsthi	r2, r5, lsl #24
    7bc8:	1c000006 	stcne	0, cr0, [r0], {6}
    7bcc:	00001384 	andeq	r1, r0, r4, lsl #7
    7bd0:	b2027505 	andlt	r7, r2, #20971520	; 0x1400000
    7bd4:	00000007 	andeq	r0, r0, r7
    7bd8:	00010d08 	andeq	r0, r1, r8, lsl #26
    7bdc:	00082800 	andeq	r2, r8, r0, lsl #16
    7be0:	00c70900 	sbceq	r0, r7, r0, lsl #18
    7be4:	00180000 	andseq	r0, r8, r0
    7be8:	0008331d 	andeq	r3, r8, sp, lsl r3
    7bec:	04241500 	strteq	r1, [r4], #-1280	; 0x500
    7bf0:	0d000000 	stceq	0, cr0, [r0, #-0]
    7bf4:	00082804 	andeq	r2, r8, r4, lsl #16
    7bf8:	77040d00 	strvc	r0, [r4, -r0, lsl #26]
    7bfc:	1d000001 	stcne	0, cr0, [r0, #-4]
    7c00:	0000084a 	andeq	r0, r0, sl, asr #16
    7c04:	00002515 	andeq	r2, r0, r5, lsl r5
    7c08:	040d0000 	streq	r0, [sp], #-0
    7c0c:	00000850 	andeq	r0, r0, r0, asr r8
    7c10:	083f040d 	ldmdaeq	pc!, {r0, r2, r3, sl}	; <UNPREDICTABLE>
    7c14:	ef080000 	svc	0x00080000
    7c18:	66000005 	strvs	r0, [r0], -r5
    7c1c:	09000008 	stmdbeq	r0, {r3}
    7c20:	000000c7 	andeq	r0, r0, r7, asr #1
    7c24:	d71e0002 	ldrle	r0, [lr, -r2]
    7c28:	05000012 	streq	r0, [r0, #-18]
    7c2c:	042402fd 	strteq	r0, [r4], #-765	; 0x2fd
    7c30:	d01e0000 	andsle	r0, lr, r0
    7c34:	05000012 	streq	r0, [r0, #-18]
    7c38:	042a02fe 	strteq	r0, [sl], #-766	; 0x2fe
    7c3c:	25140000 	ldrcs	r0, [r4, #-0]
    7c40:	8d000000 	stchi	0, cr0, [r0, #-0]
    7c44:	15000008 	strne	r0, [r0, #-8]
    7c48:	00000025 	andeq	r0, r0, r5, lsr #32
    7c4c:	0ac31f00 	beq	ff0cf854 <__bss_end__+0xff0c2e8c>
    7c50:	1d060000 	stcne	0, cr0, [r6, #-0]
    7c54:	00000898 	muleq	r0, r8, r8
    7c58:	087e040d 	ldmdaeq	lr!, {r0, r2, r3, sl}^
    7c5c:	25140000 	ldrcs	r0, [r4, #-0]
    7c60:	ad000000 	stcge	0, cr0, [r0, #-0]
    7c64:	15000008 	strne	r0, [r0, #-8]
    7c68:	00000585 	andeq	r0, r0, r5, lsl #11
    7c6c:	0b001f00 	bleq	f874 <__bss_end__+0x2eac>
    7c70:	22060000 	andcs	r0, r6, #0
    7c74:	000008b8 			; <UNDEFINED> instruction: 0x000008b8
    7c78:	089e040d 	ldmeq	lr, {r0, r2, r3, sl}
    7c7c:	08030000 	stmdaeq	r3, {}	; <UNPREDICTABLE>
    7c80:	00149604 	andseq	r9, r4, r4, lsl #12
    7c84:	14e11f00 	strbtne	r1, [r1], #3840	; 0xf00
    7c88:	0d010000 	stceq	0, cr0, [r1, #-0]
    7c8c:	0000010d 	andeq	r0, r0, sp, lsl #2
    7c90:	00150320 	andseq	r0, r5, r0, lsr #6
    7c94:	070e0100 	streq	r0, [lr, -r0, lsl #2]
    7c98:	05000001 	streq	r0, [r0, #-1]
    7c9c:	00b20003 	adcseq	r0, r2, r3
    7ca0:	14f82000 	ldrbtne	r2, [r8], #0
    7ca4:	0f010000 	svceq	0x00010000
    7ca8:	00000107 	andeq	r0, r0, r7, lsl #2
    7cac:	b2040305 	andlt	r0, r4, #335544320	; 0x14000000
    7cb0:	c4210000 	strtgt	r0, [r1], #-0
    7cb4:	01000014 	tsteq	r0, r4, lsl r0
    7cb8:	00b1e438 	adcseq	lr, r1, r8, lsr r4
    7cbc:	00001000 	andeq	r1, r0, r0
    7cc0:	139c0100 	orrsne	r0, ip, #0, 2
    7cc4:	22000009 	andcs	r0, r0, #9
    7cc8:	38010070 	stmdacc	r1, {r4, r5, r6}
    7ccc:	00000105 	andeq	r0, r0, r5, lsl #2
    7cd0:	23005001 	movwcs	r5, #1
    7cd4:	0000149d 	muleq	r0, sp, r4
    7cd8:	b1d03701 	bicslt	r3, r0, r1, lsl #14
    7cdc:	00140000 	andseq	r0, r4, r0
    7ce0:	9c010000 	stcls	0, cr0, [r1], {-0}
    7ce4:	0014be21 	andseq	fp, r4, r1, lsr #28
    7ce8:	cc360100 	ldfgts	f0, [r6], #-0
    7cec:	040000b1 	streq	r0, [r0], #-177	; 0xb1
    7cf0:	01000000 	mrseq	r0, (UNDEF: 0)
    7cf4:	0009459c 	muleq	r9, ip, r5
    7cf8:	00702200 	rsbseq	r2, r0, r0, lsl #4
    7cfc:	01053601 	tsteq	r5, r1, lsl #12
    7d00:	50010000 	andpl	r0, r1, r0
    7d04:	03002400 	movweq	r2, #1024	; 0x400
    7d08:	29010000 	stmdbcs	r1, {}	; <UNPREDICTABLE>
    7d0c:	00000105 	andeq	r0, r0, r5, lsl #2
    7d10:	0000b120 	andeq	fp, r0, r0, lsr #2
    7d14:	000000ac 	andeq	r0, r0, ip, lsr #1
    7d18:	0a449c01 	beq	112ed24 <__bss_end__+0x112235c>
    7d1c:	58250000 	stmdapl	r5!, {}	; <UNPREDICTABLE>
    7d20:	01000004 	tsteq	r0, r4
    7d24:	00002c29 	andeq	r2, r0, r9, lsr #24
    7d28:	001ed100 	andseq	sp, lr, r0, lsl #2
    7d2c:	02d12500 	sbcseq	r2, r1, #0, 10
    7d30:	29010000 	stmdbcs	r1, {}	; <UNPREDICTABLE>
    7d34:	0000002c 	andeq	r0, r0, ip, lsr #32
    7d38:	00001f24 	andeq	r1, r0, r4, lsr #30
    7d3c:	0000db26 	andeq	sp, r0, r6, lsr #22
    7d40:	000a5400 	andeq	r5, sl, r0, lsl #8
    7d44:	c4030500 	strgt	r0, [r3], #-1280	; 0x500
    7d48:	270000c4 	strcs	r0, [r0, -r4, asr #1]
    7d4c:	2e010068 	cdpcs	0, 0, cr0, cr1, cr8, {3}
    7d50:	0000002c 	andeq	r0, r0, ip, lsr #32
    7d54:	00001f6b 	andeq	r1, r0, fp, ror #30
    7d58:	00b16028 	adcseq	r6, r1, r8, lsr #32
    7d5c:	000a8d00 	andeq	r8, sl, r0, lsl #26
    7d60:	0009ad00 	andeq	sl, r9, r0, lsl #26
    7d64:	50012900 	andpl	r2, r1, r0, lsl #18
    7d68:	5001f303 	andpl	pc, r1, r3, lsl #6
    7d6c:	b16c2a00 	cmnlt	ip, r0, lsl #20
    7d70:	0c230000 	stceq	0, cr0, [r3], #-0
    7d74:	88280000 	stmdahi	r8!, {}	; <UNPREDICTABLE>
    7d78:	2e0000b1 	mcrcs	0, 0, r0, cr0, cr1, {5}
    7d7c:	ef00000c 	svc	0x0000000c
    7d80:	29000009 	stmdbcs	r0, {r0, r3}
    7d84:	03055001 	movweq	r5, #20481	; 0x5001
    7d88:	0000c4f0 	strdeq	ip, [r0], -r0
    7d8c:	05510129 	ldrbeq	r0, [r1, #-297]	; 0x129
    7d90:	00c4d403 	sbceq	sp, r4, r3, lsl #8
    7d94:	52012900 	andpl	r2, r1, #0, 18
    7d98:	c4c40305 	strbgt	r0, [r4], #773	; 0x305
    7d9c:	01290000 	teqeq	r9, r0
    7da0:	2a080253 	bcs	2086f4 <__bss_end__+0x1fbd2c>
    7da4:	007d0229 	rsbseq	r0, sp, r9, lsr #4
    7da8:	c5240305 	strgt	r0, [r4, #-773]!	; 0x305
    7dac:	2a000000 	bcs	7db4 <__code_start__-0x24c>
    7db0:	0000b18c 	andeq	fp, r0, ip, lsl #3
    7db4:	00000c39 	andeq	r0, r0, r9, lsr ip
    7db8:	00b1902a 	adcseq	r9, r1, sl, lsr #32
    7dbc:	000c2300 	andeq	r2, ip, r0, lsl #6
    7dc0:	b1ac2800 			; <UNDEFINED> instruction: 0xb1ac2800
    7dc4:	0c2e0000 	stceq	0, cr0, [lr], #-0
    7dc8:	0a3a0000 	beq	e87dd0 <__bss_end__+0xe7b408>
    7dcc:	01290000 	teqeq	r9, r0
    7dd0:	50030550 	andpl	r0, r3, r0, asr r5
    7dd4:	290000c5 	stmdbcs	r0, {r0, r2, r6, r7}
    7dd8:	03055101 	movweq	r5, #20737	; 0x5101
    7ddc:	0000c4d4 	ldrdeq	ip, [r0], -r4
    7de0:	05520129 	ldrbeq	r0, [r2, #-297]	; 0x129
    7de4:	00c4c403 	sbceq	ip, r4, r3, lsl #8
    7de8:	53012900 	movwpl	r2, #6400	; 0x1900
    7dec:	29300802 	ldmdbcs	r0!, {r1, fp}
    7df0:	05007d02 	streq	r7, [r0, #-3330]	; 0xd02
    7df4:	00c57c03 	sbceq	r7, r5, r3, lsl #24
    7df8:	b02a0000 	eorlt	r0, sl, r0
    7dfc:	390000b1 	stmdbcc	r0, {r0, r4, r5, r7}
    7e00:	0000000c 	andeq	r0, r0, ip
    7e04:	00011408 	andeq	r1, r1, r8, lsl #8
    7e08:	000a5400 	andeq	r5, sl, r0, lsl #8
    7e0c:	00c70900 	sbceq	r0, r7, r0, lsl #18
    7e10:	000f0000 	andeq	r0, pc, r0
    7e14:	000a440e 	andeq	r4, sl, lr, lsl #8
    7e18:	14d02400 	ldrbne	r2, [r0], #1024	; 0x400
    7e1c:	25010000 	strcs	r0, [r1, #-0]
    7e20:	00000105 	andeq	r0, r0, r5, lsl #2
    7e24:	0000b114 	andeq	fp, r0, r4, lsl r1
    7e28:	0000000c 	andeq	r0, r0, ip
    7e2c:	0a7c9c01 	beq	1f2ee38 <__bss_end__+0x1f22470>
    7e30:	1c2a0000 	stcne	0, cr0, [sl], #-0
    7e34:	f90000b1 			; <UNDEFINED> instruction: 0xf90000b1
    7e38:	0000000b 	andeq	r0, r0, fp
    7e3c:	00148923 	andseq	r8, r4, r3, lsr #18
    7e40:	10240100 	eorne	r0, r4, r0, lsl #2
    7e44:	040000b1 	streq	r0, [r0], #-177	; 0xb1
    7e48:	01000000 	mrseq	r0, (UNDEF: 0)
    7e4c:	1519249c 	ldrne	r2, [r9, #-1180]	; 0x49c
    7e50:	1a010000 	bne	47e58 <__bss_end__+0x3b490>
    7e54:	00000105 	andeq	r0, r0, r5, lsl #2
    7e58:	0000b098 	muleq	r0, r8, r0
    7e5c:	00000078 	andeq	r0, r0, r8, ror r0
    7e60:	0b429c01 	bleq	10aee6c <__bss_end__+0x10a24a4>
    7e64:	732b0000 	teqvc	fp, #0
    7e68:	1a01007a 	bne	48058 <__bss_end__+0x3b690>
    7e6c:	0000002c 	andeq	r0, r0, ip, lsr #32
    7e70:	00001fa3 	andeq	r1, r0, r3, lsr #31
    7e74:	0000db26 	andeq	sp, r0, r6, lsr #22
    7e78:	000b5200 	andeq	r5, fp, r0, lsl #4
    7e7c:	bc030500 	cfstr32lt	mvfx0, [r3], {-0}
    7e80:	2c0000c4 	stccs	0, cr0, [r0], {196}	; 0xc4
    7e84:	00000319 	andeq	r0, r0, r9, lsl r3
    7e88:	01051e01 	tsteq	r5, r1, lsl #28
    7e8c:	1fed0000 	svcne	0x00ed0000
    7e90:	cc280000 	stcgt	0, cr0, [r8], #-0
    7e94:	440000b0 	strmi	r0, [r0], #-176	; 0xb0
    7e98:	f700000c 			; <UNDEFINED> instruction: 0xf700000c
    7e9c:	2900000a 	stmdbcs	r0, {r1, r3}
    7ea0:	74025001 	strvc	r5, [r2], #-1
    7ea4:	51012900 	tstpl	r1, r0, lsl #18
    7ea8:	01293001 	teqeq	r9, r1
    7eac:	01f30852 	mvnseq	r0, r2, asr r8
    7eb0:	09072350 	stmdbeq	r7, {r4, r6, r8, r9, sp}
    7eb4:	2a001af8 	bcs	ea9c <__bss_end__+0x20d4>
    7eb8:	0000b0dc 	ldrdeq	fp, [r0], -ip
    7ebc:	00000c23 	andeq	r0, r0, r3, lsr #24
    7ec0:	00b0f828 	adcseq	pc, r0, r8, lsr #16
    7ec4:	000c2e00 	andeq	r2, ip, r0, lsl #28
    7ec8:	000b3800 	andeq	r3, fp, r0, lsl #16
    7ecc:	50012900 	andpl	r2, r1, r0, lsl #18
    7ed0:	b2080305 	andlt	r0, r8, #335544320	; 0x14000000
    7ed4:	01290000 	teqeq	r9, r0
    7ed8:	d4030551 	strle	r0, [r3], #-1361	; 0x551
    7edc:	290000c4 	stmdbcs	r0, {r2, r6, r7}
    7ee0:	03055201 	movweq	r5, #20993	; 0x5201
    7ee4:	0000c4bc 			; <UNDEFINED> instruction: 0x0000c4bc
    7ee8:	01530129 	cmpeq	r3, r9, lsr #2
    7eec:	7d02294b 	stcvc	9, cr2, [r2, #-300]	; 0xfffffed4
    7ef0:	ec030500 	cfstr32	mvfx0, [r3], {-0}
    7ef4:	000000c4 	andeq	r0, r0, r4, asr #1
    7ef8:	00b0fc2a 	adcseq	pc, r0, sl, lsr #24
    7efc:	000c3900 	andeq	r3, ip, r0, lsl #18
    7f00:	14080000 	strne	r0, [r8], #-0
    7f04:	52000001 	andpl	r0, r0, #1
    7f08:	0900000b 	stmdbeq	r0, {r0, r1, r3}
    7f0c:	000000c7 	andeq	r0, r0, r7, asr #1
    7f10:	420e0007 	andmi	r0, lr, #7
    7f14:	2100000b 	tstcs	r0, fp
    7f18:	000014a7 	andeq	r1, r0, r7, lsr #9
    7f1c:	b0381401 	eorslt	r1, r8, r1, lsl #8
    7f20:	00600000 	rsbeq	r0, r0, r0
    7f24:	9c010000 	stcls	0, cr0, [r1], {-0}
    7f28:	00000be4 	andeq	r0, r0, r4, ror #23
    7f2c:	00031825 	andeq	r1, r3, r5, lsr #16
    7f30:	2c140100 	ldfcss	f0, [r4], {-0}
    7f34:	00000000 	andeq	r0, r0, r0
    7f38:	2c000020 	stccs	0, cr0, [r0], {32}
    7f3c:	00000319 	andeq	r0, r0, r9, lsl r3
    7f40:	01071501 	tsteq	r7, r1, lsl #10
    7f44:	20210000 	eorcs	r0, r1, r0
    7f48:	db260000 	blle	987f50 <__bss_end__+0x97b588>
    7f4c:	f4000000 	vst4.8	{d0-d3}, [r0], r0
    7f50:	0500000b 	streq	r0, [r0, #-11]
    7f54:	00c4a403 	sbceq	sl, r4, r3, lsl #8
    7f58:	b0642a00 	rsblt	r2, r4, r0, lsl #20
    7f5c:	0c230000 	stceq	0, cr0, [r3], #-0
    7f60:	80280000 	eorhi	r0, r8, r0
    7f64:	2e0000b0 	mcrcs	0, 0, r0, cr0, cr0, {5}
    7f68:	da00000c 	ble	7fa0 <__code_start__-0x60>
    7f6c:	2900000b 	stmdbcs	r0, {r0, r1, r3}
    7f70:	03055001 	movweq	r5, #20481	; 0x5001
    7f74:	0000b208 	andeq	fp, r0, r8, lsl #4
    7f78:	05510129 	ldrbeq	r0, [r1, #-297]	; 0x129
    7f7c:	00c4d403 	sbceq	sp, r4, r3, lsl #8
    7f80:	52012900 	andpl	r2, r1, #0, 18
    7f84:	c4a40305 	strtgt	r0, [r4], #773	; 0x305
    7f88:	01290000 	teqeq	r9, r0
    7f8c:	29460153 	stmdbcs	r6, {r0, r1, r4, r6, r8}^
    7f90:	05007d02 	streq	r7, [r0, #-3330]	; 0xd02
    7f94:	00c4e003 	sbceq	lr, r4, r3
    7f98:	842a0000 	strthi	r0, [sl], #-0
    7f9c:	390000b0 	stmdbcc	r0, {r4, r5, r7}
    7fa0:	0000000c 	andeq	r0, r0, ip
    7fa4:	00011408 	andeq	r1, r1, r8, lsl #8
    7fa8:	000bf400 	andeq	pc, fp, r0, lsl #8
    7fac:	00c70900 	sbceq	r0, r7, r0, lsl #18
    7fb0:	00160000 	andseq	r0, r6, r0
    7fb4:	000be40e 	andeq	lr, fp, lr, lsl #8
    7fb8:	14f02d00 	ldrbtne	r2, [r0], #3328	; 0xd00
    7fbc:	12010000 	andne	r0, r1, #0
    7fc0:	00000105 	andeq	r0, r0, r5, lsl #2
    7fc4:	0000b02c 	andeq	fp, r0, ip, lsr #32
    7fc8:	0000000c 	andeq	r0, r0, ip
    7fcc:	082d9c01 	stmdaeq	sp!, {r0, sl, fp, ip, pc}
    7fd0:	01000015 	tsteq	r0, r5, lsl r0
    7fd4:	00010511 	andeq	r0, r1, r1, lsl r5
    7fd8:	00b01c00 	adcseq	r1, r0, r0, lsl #24
    7fdc:	00001000 	andeq	r1, r0, r0
    7fe0:	2e9c0100 	fmlcse	f0, f4, f0
    7fe4:	0000023c 	andeq	r0, r0, ip, lsr r2
    7fe8:	0000023c 	andeq	r0, r0, ip, lsr r2
    7fec:	922e1e06 	eorls	r1, lr, #6, 28	; 0x60
    7ff0:	9200000a 	andls	r0, r0, #10
    7ff4:	0600000a 	streq	r0, [r0], -sl
    7ff8:	00682e29 	rsbeq	r2, r8, r9, lsr #28
    7ffc:	00680000 	rsbeq	r0, r8, r0
    8000:	65060000 	strvs	r0, [r6, #-0]
    8004:	0005392e 	andeq	r3, r5, lr, lsr #18
    8008:	00053900 	andeq	r3, r5, r0, lsl #18
    800c:	00190700 	andseq	r0, r9, r0, lsl #14

Disassembly of section .debug_abbrev:

00000000 <.debug_abbrev>:
       0:	25011101 	strcs	r1, [r1, #-257]	; 0x101
       4:	030b130e 	movweq	r1, #45838	; 0xb30e
       8:	110e1b0e 	tstne	lr, lr, lsl #22
       c:	10061201 	andne	r1, r6, r1, lsl #4
      10:	02000017 	andeq	r0, r0, #23
      14:	0b0b0024 	bleq	2c00ac <__bss_end__+0x2b36e4>
      18:	08030b3e 	stmdaeq	r3, {r1, r2, r3, r4, r5, r8, r9, fp}
      1c:	24030000 	strcs	r0, [r3], #-0
      20:	3e0b0b00 	vmlacc.f64	d0, d11, d0
      24:	000e030b 	andeq	r0, lr, fp, lsl #6
      28:	00160400 	andseq	r0, r6, r0, lsl #8
      2c:	0b3a0e03 	bleq	e83840 <__bss_end__+0xe76e78>
      30:	13490b3b 	movtne	r0, #39739	; 0x9b3b
      34:	0f050000 	svceq	0x00050000
      38:	490b0b00 	stmdbmi	fp, {r8, r9, fp}
      3c:	06000013 			; <UNDEFINED> instruction: 0x06000013
      40:	13490026 	movtne	r0, #36902	; 0x9026
      44:	01070000 	mrseq	r0, (UNDEF: 7)
      48:	01134901 	tsteq	r3, r1, lsl #18
      4c:	08000013 	stmdaeq	r0, {r0, r1, r4}
      50:	13490021 	movtne	r0, #36897	; 0x9021
      54:	00000b2f 	andeq	r0, r0, pc, lsr #22
      58:	0b010409 	bleq	41084 <__bss_end__+0x346bc>
      5c:	3b0b3a0b 	blcc	2ce890 <__bss_end__+0x2c1ec8>
      60:	0013010b 	andseq	r0, r3, fp, lsl #2
      64:	00280a00 	eoreq	r0, r8, r0, lsl #20
      68:	0d1c0e03 	ldceq	14, cr0, [ip, #-12]
      6c:	2e0b0000 	cdpcs	0, 0, cr0, cr11, cr0, {0}
      70:	03193f01 	tsteq	r9, #1, 30
      74:	3b0b3a0e 	blcc	2ce8b4 <__bss_end__+0x2c1eec>
      78:	1119270b 	tstne	r9, fp, lsl #14
      7c:	40061201 	andmi	r1, r6, r1, lsl #4
      80:	19429718 	stmdbne	r2, {r3, r4, r8, r9, sl, ip, pc}^
      84:	00001301 	andeq	r1, r0, r1, lsl #6
      88:	0300340c 	movweq	r3, #1036	; 0x40c
      8c:	3413490e 	ldrcc	r4, [r3], #-2318	; 0x90e
      90:	00180219 	andseq	r0, r8, r9, lsl r2
      94:	00340d00 	eorseq	r0, r4, r0, lsl #26
      98:	0b3a0803 	bleq	e820ac <__bss_end__+0xe756e4>
      9c:	13490b3b 	movtne	r0, #39739	; 0x9b3b
      a0:	0000061c 	andeq	r0, r0, ip, lsl r6
      a4:	0300340e 	movweq	r3, #1038	; 0x40e
      a8:	3b0b3a08 	blcc	2ce8d0 <__bss_end__+0x2c1f08>
      ac:	1c13490b 	ldcne	9, cr4, [r3], {11}
      b0:	0f00000b 	svceq	0x0000000b
      b4:	00018289 	andeq	r8, r1, r9, lsl #5
      b8:	13310111 	teqne	r1, #1073741828	; 0x40000004
      bc:	89100000 	ldmdbhi	r0, {}	; <UNPREDICTABLE>
      c0:	11010182 	smlabbne	r1, r2, r1, r0
      c4:	01133101 	tsteq	r3, r1, lsl #2
      c8:	11000013 	tstne	r0, r3, lsl r0
      cc:	0001828a 	andeq	r8, r1, sl, lsl #5
      d0:	42911802 	addsmi	r1, r1, #131072	; 0x20000
      d4:	12000018 	andne	r0, r0, #24
      d8:	193f002e 	ldmdbne	pc!, {r1, r2, r3, r5}	; <UNPREDICTABLE>
      dc:	0b3a0e03 	bleq	e838f0 <__bss_end__+0xe76f28>
      e0:	19270b3b 	stmdbne	r7!, {r0, r1, r3, r4, r5, r8, r9, fp}
      e4:	0000193c 	andeq	r1, r0, ip, lsr r9
      e8:	3f002e13 	svccc	0x00002e13
      ec:	3a0e0319 	bcc	380d58 <__bss_end__+0x374390>
      f0:	270b3b0b 	strcs	r3, [fp, -fp, lsl #22]
      f4:	3c134919 	ldccc	9, cr4, [r3], {25}
      f8:	14000019 	strne	r0, [r0], #-25
      fc:	193f012e 	ldmdbne	pc!, {r1, r2, r3, r5, r8}	; <UNPREDICTABLE>
     100:	0b3a0e03 	bleq	e83914 <__bss_end__+0xe76f4c>
     104:	19270b3b 	stmdbne	r7!, {r0, r1, r3, r4, r5, r8, r9, fp}
     108:	193c1349 	ldmdbne	ip!, {r0, r3, r6, r8, r9, ip}
     10c:	00001301 	andeq	r1, r0, r1, lsl #6
     110:	49000515 	stmdbmi	r0, {r0, r2, r4, r8, sl}
     114:	16000013 			; <UNDEFINED> instruction: 0x16000013
     118:	00000018 	andeq	r0, r0, r8, lsl r0
     11c:	3f012e17 	svccc	0x00012e17
     120:	3a0e0319 	bcc	380d8c <__bss_end__+0x3743c4>
     124:	270b3b0b 	strcs	r3, [fp, -fp, lsl #22]
     128:	01193c19 	tsteq	r9, r9, lsl ip
     12c:	18000013 	stmdane	r0, {r0, r1, r4}
     130:	193f012e 	ldmdbne	pc!, {r1, r2, r3, r5, r8}	; <UNPREDICTABLE>
     134:	0b3a0e03 	bleq	e83948 <__bss_end__+0xe76f80>
     138:	19270b3b 	stmdbne	r7!, {r0, r1, r3, r4, r5, r8, r9, fp}
     13c:	193c1349 	ldmdbne	ip!, {r0, r3, r6, r8, r9, ip}
     140:	01000000 	mrseq	r0, (UNDEF: 0)
     144:	0e250111 	mcreq	1, 1, r0, cr5, cr1, {0}
     148:	0e030b13 	vmoveq.32	d3[0], r0
     14c:	01110e1b 	tsteq	r1, fp, lsl lr
     150:	17100612 			; <UNDEFINED> instruction: 0x17100612
     154:	24020000 	strcs	r0, [r2], #-0
     158:	3e0b0b00 	vmlacc.f64	d0, d11, d0
     15c:	0008030b 	andeq	r0, r8, fp, lsl #6
     160:	00160300 	andseq	r0, r6, r0, lsl #6
     164:	0b3a0e03 	bleq	e83978 <__bss_end__+0xe76fb0>
     168:	13490b3b 	movtne	r0, #39739	; 0x9b3b
     16c:	24040000 	strcs	r0, [r4], #-0
     170:	3e0b0b00 	vmlacc.f64	d0, d11, d0
     174:	000e030b 	andeq	r0, lr, fp, lsl #6
     178:	000f0500 	andeq	r0, pc, r0, lsl #10
     17c:	00000b0b 	andeq	r0, r0, fp, lsl #22
     180:	0b000f06 	bleq	3da0 <__code_start__-0x4260>
     184:	0013490b 	andseq	r4, r3, fp, lsl #18
     188:	00260700 	eoreq	r0, r6, r0, lsl #14
     18c:	00001349 	andeq	r1, r0, r9, asr #6
     190:	03011308 	movweq	r1, #4872	; 0x1308
     194:	3a0b0b0e 	bcc	2c2dd4 <__bss_end__+0x2b640c>
     198:	010b3b0b 	tsteq	fp, fp, lsl #22
     19c:	09000013 	stmdbeq	r0, {r0, r1, r4}
     1a0:	0e03000d 	cdpeq	0, 0, cr0, cr3, cr13, {0}
     1a4:	0b3b0b3a 	bleq	ec2e94 <__bss_end__+0xeb64cc>
     1a8:	0b0b1349 	bleq	2c4ed4 <__bss_end__+0x2b850c>
     1ac:	0b0c0b0d 	bleq	302de8 <__bss_end__+0x2f6420>
     1b0:	00000b38 	andeq	r0, r0, r8, lsr fp
     1b4:	03000d0a 	movweq	r0, #3338	; 0xd0a
     1b8:	3b0b3a08 	blcc	2ce9e0 <__bss_end__+0x2c2018>
     1bc:	0b13490b 	bleq	4d25f0 <__bss_end__+0x4c5c28>
     1c0:	0c0b0d0b 	stceq	13, cr0, [fp], {11}
     1c4:	000b380b 	andeq	r3, fp, fp, lsl #16
     1c8:	01040b00 	tsteq	r4, r0, lsl #22
     1cc:	0b3a0b0b 	bleq	e82e00 <__bss_end__+0xe76438>
     1d0:	13010b3b 	movwne	r0, #6971	; 0x1b3b
     1d4:	280c0000 	stmdacs	ip, {}	; <UNPREDICTABLE>
     1d8:	1c0e0300 	stcne	3, cr0, [lr], {-0}
     1dc:	0d00000d 	stceq	0, cr0, [r0, #-52]	; 0xffffffcc
     1e0:	0e03012e 	adfeqsp	f0, f3, #0.5
     1e4:	0b3b0b3a 	bleq	ec2ed4 <__bss_end__+0xeb650c>
     1e8:	13491927 	movtne	r1, #39207	; 0x9927
     1ec:	13010b20 	movwne	r0, #6944	; 0x1b20
     1f0:	050e0000 	streq	r0, [lr, #-0]
     1f4:	3a080300 	bcc	200dfc <__bss_end__+0x1f4434>
     1f8:	490b3b0b 	stmdbmi	fp, {r0, r1, r3, r8, r9, fp, ip, sp}
     1fc:	0f000013 	svceq	0x00000013
     200:	193f012e 	ldmdbne	pc!, {r1, r2, r3, r5, r8}	; <UNPREDICTABLE>
     204:	0b3a0e03 	bleq	e83a18 <__bss_end__+0xe77050>
     208:	19270b3b 	stmdbne	r7!, {r0, r1, r3, r4, r5, r8, r9, fp}
     20c:	01111349 	tsteq	r1, r9, asr #6
     210:	18400612 	stmdane	r0, {r1, r4, r9, sl}^
     214:	01194297 			; <UNDEFINED> instruction: 0x01194297
     218:	10000013 	andne	r0, r0, r3, lsl r0
     21c:	00018289 	andeq	r8, r1, r9, lsl #5
     220:	13310111 	teqne	r1, #1073741828	; 0x40000004
     224:	05110000 	ldreq	r0, [r1, #-0]
     228:	3a080300 	bcc	200e30 <__bss_end__+0x1f4468>
     22c:	490b3b0b 	stmdbmi	fp, {r0, r1, r3, r8, r9, fp, ip, sp}
     230:	00170213 	andseq	r0, r7, r3, lsl r2
     234:	00341200 	eorseq	r1, r4, r0, lsl #4
     238:	13490e03 	movtne	r0, #40451	; 0x9e03
     23c:	18021934 	stmdane	r2, {r2, r4, r5, r8, fp, ip}
     240:	34130000 	ldrcc	r0, [r3], #-0
     244:	3a0e0300 	bcc	380e4c <__bss_end__+0x374484>
     248:	490b3b0b 	stmdbmi	fp, {r0, r1, r3, r8, r9, fp, ip, sp}
     24c:	00170213 	andseq	r0, r7, r3, lsl r2
     250:	00341400 	eorseq	r1, r4, r0, lsl #8
     254:	0b3a0803 	bleq	e82268 <__bss_end__+0xe758a0>
     258:	13490b3b 	movtne	r0, #39739	; 0x9b3b
     25c:	00001702 	andeq	r1, r0, r2, lsl #14
     260:	01828915 	orreq	r8, r2, r5, lsl r9
     264:	31011101 	tstcc	r1, r1, lsl #2
     268:	00130113 	andseq	r0, r3, r3, lsl r1
     26c:	828a1600 	addhi	r1, sl, #0, 12
     270:	18020001 	stmdane	r2, {r0}
     274:	00184291 	mulseq	r8, r1, r2
     278:	01011700 	tsteq	r1, r0, lsl #14
     27c:	13011349 	movwne	r1, #4937	; 0x1349
     280:	21180000 	tstcs	r8, r0
     284:	2f134900 	svccs	0x00134900
     288:	1900000b 	stmdbne	r0, {r0, r1, r3}
     28c:	0e03012e 	adfeqsp	f0, f3, #0.5
     290:	0b3b0b3a 	bleq	ec2f80 <__bss_end__+0xeb65b8>
     294:	01111927 	tsteq	r1, r7, lsr #18
     298:	18400612 	stmdane	r0, {r1, r4, r9, sl}^
     29c:	01194297 			; <UNDEFINED> instruction: 0x01194297
     2a0:	1a000013 	bne	2f4 <__code_start__-0x7d0c>
     2a4:	0e030005 	cdpeq	0, 0, cr0, cr3, cr5, {0}
     2a8:	0b3b0b3a 	bleq	ec2f98 <__bss_end__+0xeb65d0>
     2ac:	17021349 	strne	r1, [r2, -r9, asr #6]
     2b0:	1d1b0000 	ldcne	0, cr0, [fp, #-0]
     2b4:	11133101 	tstne	r3, r1, lsl #2
     2b8:	58061201 	stmdapl	r6, {r0, r9, ip}
     2bc:	010b590b 	tsteq	fp, fp, lsl #18
     2c0:	1c000013 	stcne	0, cr0, [r0], {19}
     2c4:	13310005 	teqne	r1, #5
     2c8:	00001702 	andeq	r1, r0, r2, lsl #14
     2cc:	55010b1d 	strpl	r0, [r1, #-2845]	; 0xb1d
     2d0:	00130117 	andseq	r0, r3, r7, lsl r1
     2d4:	010b1e00 	tsteq	fp, r0, lsl #28
     2d8:	00001755 	andeq	r1, r0, r5, asr r7
     2dc:	0182891f 	orreq	r8, r2, pc, lsl r9
     2e0:	31011101 	tstcc	r1, r1, lsl #2
     2e4:	20000013 	andcs	r0, r0, r3, lsl r0
     2e8:	193f012e 	ldmdbne	pc!, {r1, r2, r3, r5, r8}	; <UNPREDICTABLE>
     2ec:	0b3a0e03 	bleq	e83b00 <__bss_end__+0xe77138>
     2f0:	19270b3b 	stmdbne	r7!, {r0, r1, r3, r4, r5, r8, r9, fp}
     2f4:	06120111 			; <UNDEFINED> instruction: 0x06120111
     2f8:	42971840 	addsmi	r1, r7, #64, 16	; 0x400000
     2fc:	00130119 	andseq	r0, r3, r9, lsl r1
     300:	00052100 	andeq	r2, r5, r0, lsl #2
     304:	0b3a0803 	bleq	e82318 <__bss_end__+0xe75950>
     308:	13490b3b 	movtne	r0, #39739	; 0x9b3b
     30c:	00001802 	andeq	r1, r0, r2, lsl #16
     310:	03003422 	movweq	r3, #1058	; 0x422
     314:	3b0b3a08 	blcc	2ceb3c <__bss_end__+0x2c2174>
     318:	1c13490b 	ldcne	9, cr4, [r3], {11}
     31c:	23000005 	movwcs	r0, #5
     320:	0e030034 	mcreq	0, 0, r0, cr3, cr4, {1}
     324:	0b3b0b3a 	bleq	ec3014 <__bss_end__+0xeb664c>
     328:	051c1349 	ldreq	r1, [ip, #-841]	; 0x349
     32c:	34240000 	strtcc	r0, [r4], #-0
     330:	3a080300 	bcc	200f38 <__bss_end__+0x1f4570>
     334:	490b3b0b 	stmdbmi	fp, {r0, r1, r3, r8, r9, fp, ip, sp}
     338:	00180213 	andseq	r0, r8, r3, lsl r2
     33c:	00342500 	eorseq	r2, r4, r0, lsl #10
     340:	0b3a0e03 	bleq	e83b54 <__bss_end__+0xe7718c>
     344:	13490b3b 	movtne	r0, #39739	; 0x9b3b
     348:	00001802 	andeq	r1, r0, r2, lsl #16
     34c:	3f002e26 	svccc	0x00002e26
     350:	3a0e0319 	bcc	380fbc <__bss_end__+0x3745f4>
     354:	270b3b0b 	strcs	r3, [fp, -fp, lsl #22]
     358:	3c134919 	ldccc	9, cr4, [r3], {25}
     35c:	27000019 	smladcs	r0, r9, r0, r0
     360:	193f002e 	ldmdbne	pc!, {r1, r2, r3, r5}	; <UNPREDICTABLE>
     364:	0b3a0e03 	bleq	e83b78 <__bss_end__+0xe771b0>
     368:	19270b3b 	stmdbne	r7!, {r0, r1, r3, r4, r5, r8, r9, fp}
     36c:	0000193c 	andeq	r1, r0, ip, lsr r9
     370:	3f012e28 	svccc	0x00012e28
     374:	3a0e0319 	bcc	380fe0 <__bss_end__+0x374618>
     378:	270b3b0b 	strcs	r3, [fp, -fp, lsl #22]
     37c:	3c134919 	ldccc	9, cr4, [r3], {25}
     380:	00130119 	andseq	r0, r3, r9, lsl r1
     384:	00052900 	andeq	r2, r5, r0, lsl #18
     388:	00001349 	andeq	r1, r0, r9, asr #6
     38c:	0000182a 	andeq	r1, r0, sl, lsr #16
     390:	012e2b00 	teqeq	lr, r0, lsl #22
     394:	0e03193f 	mcreq	9, 0, r1, cr3, cr15, {1}
     398:	0b3b0b3a 	bleq	ec3088 <__bss_end__+0xeb66c0>
     39c:	193c1927 	ldmdbne	ip!, {r0, r1, r2, r5, r8, fp, ip}
     3a0:	00001301 	andeq	r1, r0, r1, lsl #6
     3a4:	0000262c 	andeq	r2, r0, ip, lsr #12
     3a8:	012e2d00 	teqeq	lr, r0, lsl #26
     3ac:	0e03193f 	mcreq	9, 0, r1, cr3, cr15, {1}
     3b0:	0b3b0b3a 	bleq	ec30a0 <__bss_end__+0xeb66d8>
     3b4:	193c1927 	ldmdbne	ip!, {r0, r1, r2, r5, r8, fp, ip}
     3b8:	01000000 	mrseq	r0, (UNDEF: 0)
     3bc:	0e250111 	mcreq	1, 1, r0, cr5, cr1, {0}
     3c0:	0e030b13 	vmoveq.32	d3[0], r0
     3c4:	01110e1b 	tsteq	r1, fp, lsl lr
     3c8:	17100612 			; <UNDEFINED> instruction: 0x17100612
     3cc:	24020000 	strcs	r0, [r2], #-0
     3d0:	3e0b0b00 	vmlacc.f64	d0, d11, d0
     3d4:	0008030b 	andeq	r0, r8, fp, lsl #6
     3d8:	00240300 	eoreq	r0, r4, r0, lsl #6
     3dc:	0b3e0b0b 	bleq	f83010 <__bss_end__+0xf76648>
     3e0:	00000e03 	andeq	r0, r0, r3, lsl #28
     3e4:	03001604 	movweq	r1, #1540	; 0x604
     3e8:	3b0b3a0e 	blcc	2cec28 <__bss_end__+0x2c2260>
     3ec:	0013490b 	andseq	r4, r3, fp, lsl #18
     3f0:	000f0500 	andeq	r0, pc, r0, lsl #10
     3f4:	13490b0b 	movtne	r0, #39691	; 0x9b0b
     3f8:	26060000 	strcs	r0, [r6], -r0
     3fc:	00134900 	andseq	r4, r3, r0, lsl #18
     400:	01010700 	tsteq	r1, r0, lsl #14
     404:	13011349 	movwne	r1, #4937	; 0x1349
     408:	21080000 	mrscs	r0, (UNDEF: 8)
     40c:	2f134900 	svccs	0x00134900
     410:	0900000b 	stmdbeq	r0, {r0, r1, r3}
     414:	0e030113 	mcreq	1, 0, r0, cr3, cr3, {0}
     418:	0b3a0b0b 	bleq	e8304c <__bss_end__+0xe76684>
     41c:	13010b3b 	movwne	r0, #6971	; 0x1b3b
     420:	0d0a0000 	stceq	0, cr0, [sl, #-0]
     424:	3a0e0300 	bcc	38102c <__bss_end__+0x374664>
     428:	490b3b0b 	stmdbmi	fp, {r0, r1, r3, r8, r9, fp, ip, sp}
     42c:	0d0b0b13 	vstreq	d0, [fp, #-76]	; 0xffffffb4
     430:	380b0c0b 	stmdacc	fp, {r0, r1, r3, sl, fp}
     434:	0b00000b 	bleq	468 <__code_start__-0x7b98>
     438:	0803000d 	stmdaeq	r3, {r0, r2, r3}
     43c:	0b3b0b3a 	bleq	ec312c <__bss_end__+0xeb6764>
     440:	0b0b1349 	bleq	2c516c <__bss_end__+0x2b87a4>
     444:	0b0c0b0d 	bleq	303080 <__bss_end__+0x2f66b8>
     448:	00000b38 	andeq	r0, r0, r8, lsr fp
     44c:	3f012e0c 	svccc	0x00012e0c
     450:	3a0e0319 	bcc	3810bc <__bss_end__+0x3746f4>
     454:	270b3b0b 	strcs	r3, [fp, -fp, lsl #22]
     458:	12011119 	andne	r1, r1, #1073741830	; 0x40000006
     45c:	97184006 	ldrls	r4, [r8, -r6]
     460:	13011942 	movwne	r1, #6466	; 0x1942
     464:	050d0000 	streq	r0, [sp, #-0]
     468:	3a080300 	bcc	201070 <__bss_end__+0x1f46a8>
     46c:	490b3b0b 	stmdbmi	fp, {r0, r1, r3, r8, r9, fp, ip, sp}
     470:	00170213 	andseq	r0, r7, r3, lsl r2
     474:	00050e00 	andeq	r0, r5, r0, lsl #28
     478:	0b3a0e03 	bleq	e83c8c <__bss_end__+0xe772c4>
     47c:	13490b3b 	movtne	r0, #39739	; 0x9b3b
     480:	00001702 	andeq	r1, r0, r2, lsl #14
     484:	0182890f 	orreq	r8, r2, pc, lsl #18
     488:	31011101 	tstcc	r1, r1, lsl #2
     48c:	00130113 	andseq	r0, r3, r3, lsl r1
     490:	828a1000 	addhi	r1, sl, #0
     494:	18020001 	stmdane	r2, {r0}
     498:	00184291 	mulseq	r8, r1, r2
     49c:	82891100 	addhi	r1, r9, #0, 2
     4a0:	01110101 	tsteq	r1, r1, lsl #2
     4a4:	00001331 	andeq	r1, r0, r1, lsr r3
     4a8:	00002612 	andeq	r2, r0, r2, lsl r6
     4ac:	82891300 	addhi	r1, r9, #0, 6
     4b0:	01110001 	tsteq	r1, r1
     4b4:	00001331 	andeq	r1, r0, r1, lsr r3
     4b8:	03012e14 	movweq	r2, #7700	; 0x1e14
     4bc:	3b0b3a0e 	blcc	2cecfc <__bss_end__+0x2c2334>
     4c0:	1119270b 	tstne	r9, fp, lsl #14
     4c4:	40061201 	andmi	r1, r6, r1, lsl #4
     4c8:	19429718 	stmdbne	r2, {r3, r4, r8, r9, sl, ip, pc}^
     4cc:	00001301 	andeq	r1, r0, r1, lsl #6
     4d0:	03003415 	movweq	r3, #1045	; 0x415
     4d4:	3413490e 	ldrcc	r4, [r3], #-2318	; 0x90e
     4d8:	00180219 	andseq	r0, r8, r9, lsl r2
     4dc:	002e1600 	eoreq	r1, lr, r0, lsl #12
     4e0:	0e03193f 	mcreq	9, 0, r1, cr3, cr15, {1}
     4e4:	0b3b0b3a 	bleq	ec31d4 <__bss_end__+0xeb680c>
     4e8:	13491927 	movtne	r1, #39207	; 0x9927
     4ec:	06120111 			; <UNDEFINED> instruction: 0x06120111
     4f0:	42971840 	addsmi	r1, r7, #64, 16	; 0x400000
     4f4:	17000019 	smladne	r0, r9, r0, r0
     4f8:	08030034 	stmdaeq	r3, {r2, r4, r5}
     4fc:	0b3b0b3a 	bleq	ec31ec <__bss_end__+0xeb6824>
     500:	18021349 	stmdane	r2, {r0, r3, r6, r8, r9, ip}
     504:	0b180000 	bleq	60050c <__bss_end__+0x5f3b44>
     508:	12011101 	andne	r1, r1, #1073741824	; 0x40000000
     50c:	00130106 	andseq	r0, r3, r6, lsl #2
     510:	01171900 	tsteq	r7, r0, lsl #18
     514:	0b0b0803 	bleq	2c2528 <__bss_end__+0x2b5b60>
     518:	0b3b0b3a 	bleq	ec3208 <__bss_end__+0xeb6840>
     51c:	00001301 	andeq	r1, r0, r1, lsl #6
     520:	03000d1a 	movweq	r0, #3354	; 0xd1a
     524:	3b0b3a08 	blcc	2ced4c <__bss_end__+0x2c2384>
     528:	0013490b 	andseq	r4, r3, fp, lsl #18
     52c:	00341b00 	eorseq	r1, r4, r0, lsl #22
     530:	0b3a0803 	bleq	e82544 <__bss_end__+0xe75b7c>
     534:	13490b3b 	movtne	r0, #39739	; 0x9b3b
     538:	00000d1c 	andeq	r0, r0, ip, lsl sp
     53c:	0300341c 	movweq	r3, #1052	; 0x41c
     540:	3b0b3a0e 	blcc	2ced80 <__bss_end__+0x2c23b8>
     544:	1c13490b 	ldcne	9, cr4, [r3], {11}
     548:	1d00000b 	stcne	0, cr0, [r0, #-44]	; 0xffffffd4
     54c:	0e030034 	mcreq	0, 0, r0, cr3, cr4, {1}
     550:	0b3b0b3a 	bleq	ec3240 <__bss_end__+0xeb6878>
     554:	051c1349 	ldreq	r1, [ip, #-841]	; 0x349
     558:	2e1e0000 	cdpcs	0, 1, cr0, cr14, cr0, {0}
     55c:	03193f01 	tsteq	r9, #1, 30
     560:	3b0b3a0e 	blcc	2ceda0 <__bss_end__+0x2c23d8>
     564:	4919270b 	ldmdbmi	r9, {r0, r1, r3, r8, r9, sl, sp}
     568:	01193c13 	tsteq	r9, r3, lsl ip
     56c:	1f000013 	svcne	0x00000013
     570:	13490005 	movtne	r0, #36869	; 0x9005
     574:	18200000 	stmdane	r0!, {}	; <UNPREDICTABLE>
     578:	21000000 	mrscs	r0, (UNDEF: 0)
     57c:	193f002e 	ldmdbne	pc!, {r1, r2, r3, r5}	; <UNPREDICTABLE>
     580:	0b3a0e03 	bleq	e83d94 <__bss_end__+0xe773cc>
     584:	19270b3b 	stmdbne	r7!, {r0, r1, r3, r4, r5, r8, r9, fp}
     588:	193c1349 	ldmdbne	ip!, {r0, r3, r6, r8, r9, ip}
     58c:	2e220000 	cdpcs	0, 2, cr0, cr2, cr0, {0}
     590:	03193f00 	tsteq	r9, #0, 30
     594:	3b0b3a0e 	blcc	2cedd4 <__bss_end__+0x2c240c>
     598:	3c19270b 	ldccc	7, cr2, [r9], {11}
     59c:	00000019 	andeq	r0, r0, r9, lsl r0
     5a0:	25011101 	strcs	r1, [r1, #-257]	; 0x101
     5a4:	030b130e 	movweq	r1, #45838	; 0xb30e
     5a8:	110e1b0e 	tstne	lr, lr, lsl #22
     5ac:	10061201 	andne	r1, r6, r1, lsl #4
     5b0:	02000017 	andeq	r0, r0, #23
     5b4:	0b0b0024 	bleq	2c064c <__bss_end__+0x2b3c84>
     5b8:	08030b3e 	stmdaeq	r3, {r1, r2, r3, r4, r5, r8, r9, fp}
     5bc:	24030000 	strcs	r0, [r3], #-0
     5c0:	3e0b0b00 	vmlacc.f64	d0, d11, d0
     5c4:	000e030b 	andeq	r0, lr, fp, lsl #6
     5c8:	00160400 	andseq	r0, r6, r0, lsl #8
     5cc:	0b3a0e03 	bleq	e83de0 <__bss_end__+0xe77418>
     5d0:	13490b3b 	movtne	r0, #39739	; 0x9b3b
     5d4:	0f050000 	svceq	0x00050000
     5d8:	000b0b00 	andeq	r0, fp, r0, lsl #22
     5dc:	000f0600 	andeq	r0, pc, r0, lsl #12
     5e0:	13490b0b 	movtne	r0, #39691	; 0x9b0b
     5e4:	26070000 	strcs	r0, [r7], -r0
     5e8:	00134900 	andseq	r4, r3, r0, lsl #18
     5ec:	01130800 	tsteq	r3, r0, lsl #16
     5f0:	0b0b0e03 	bleq	2c3e04 <__bss_end__+0x2b743c>
     5f4:	0b3b0b3a 	bleq	ec32e4 <__bss_end__+0xeb691c>
     5f8:	00001301 	andeq	r1, r0, r1, lsl #6
     5fc:	03000d09 	movweq	r0, #3337	; 0xd09
     600:	3b0b3a08 	blcc	2cee28 <__bss_end__+0x2c2460>
     604:	0b13490b 	bleq	4d2a38 <__bss_end__+0x4c6070>
     608:	0c0b0d0b 	stceq	13, cr0, [fp], {11}
     60c:	000b380b 	andeq	r3, fp, fp, lsl #16
     610:	000d0a00 	andeq	r0, sp, r0, lsl #20
     614:	0b3a0e03 	bleq	e83e28 <__bss_end__+0xe77460>
     618:	13490b3b 	movtne	r0, #39739	; 0x9b3b
     61c:	0b0d0b0b 	bleq	343250 <__bss_end__+0x336888>
     620:	0b380b0c 	bleq	e03258 <__bss_end__+0xdf6890>
     624:	040b0000 	streq	r0, [fp], #-0
     628:	3a0b0b01 	bcc	2c3234 <__bss_end__+0x2b686c>
     62c:	010b3b0b 	tsteq	fp, fp, lsl #22
     630:	0c000013 	stceq	0, cr0, [r0], {19}
     634:	0e030028 	cdpeq	0, 0, cr0, cr3, cr8, {1}
     638:	00000d1c 	andeq	r0, r0, ip, lsl sp
     63c:	0b01130d 	bleq	45278 <__bss_end__+0x388b0>
     640:	3b0b3a0b 	blcc	2cee74 <__bss_end__+0x2c24ac>
     644:	0013010b 	andseq	r0, r3, fp, lsl #2
     648:	000d0e00 	andeq	r0, sp, r0, lsl #28
     64c:	0b3a0e03 	bleq	e83e60 <__bss_end__+0xe77498>
     650:	13490b3b 	movtne	r0, #39739	; 0x9b3b
     654:	00000b38 	andeq	r0, r0, r8, lsr fp
     658:	03012e0f 	movweq	r2, #7695	; 0x1e0f
     65c:	3b0b3a0e 	blcc	2cee9c <__bss_end__+0x2c24d4>
     660:	4919270b 	ldmdbmi	r9, {r0, r1, r3, r8, r9, sl, sp}
     664:	010b2013 	tsteq	fp, r3, lsl r0
     668:	10000013 	andne	r0, r0, r3, lsl r0
     66c:	08030034 	stmdaeq	r3, {r2, r4, r5}
     670:	0b3b0b3a 	bleq	ec3360 <__bss_end__+0xeb6998>
     674:	00001349 	andeq	r1, r0, r9, asr #6
     678:	3f002e11 	svccc	0x00002e11
     67c:	3a0e0319 	bcc	3812e8 <__bss_end__+0x374920>
     680:	270b3b0b 	strcs	r3, [fp, -fp, lsl #22]
     684:	11134919 	tstne	r3, r9, lsl r9
     688:	40061201 	andmi	r1, r6, r1, lsl #4
     68c:	19429718 	stmdbne	r2, {r3, r4, r8, r9, sl, ip, pc}^
     690:	2e120000 	cdpcs	0, 1, cr0, cr2, cr0, {0}
     694:	03193f01 	tsteq	r9, #1, 30
     698:	3b0b3a0e 	blcc	2ceed8 <__bss_end__+0x2c2510>
     69c:	1119270b 	tstne	r9, fp, lsl #14
     6a0:	40061201 	andmi	r1, r6, r1, lsl #4
     6a4:	19429718 	stmdbne	r2, {r3, r4, r8, r9, sl, ip, pc}^
     6a8:	00001301 	andeq	r1, r0, r1, lsl #6
     6ac:	03000513 	movweq	r0, #1299	; 0x513
     6b0:	3b0b3a0e 	blcc	2ceef0 <__bss_end__+0x2c2528>
     6b4:	0213490b 	andseq	r4, r3, #180224	; 0x2c000
     6b8:	14000018 	strne	r0, [r0], #-24
     6bc:	08030005 	stmdaeq	r3, {r0, r2}
     6c0:	0b3b0b3a 	bleq	ec33b0 <__bss_end__+0xeb69e8>
     6c4:	17021349 	strne	r1, [r2, -r9, asr #6]
     6c8:	05150000 	ldreq	r0, [r5, #-0]
     6cc:	3a0e0300 	bcc	3812d4 <__bss_end__+0x37490c>
     6d0:	490b3b0b 	stmdbmi	fp, {r0, r1, r3, r8, r9, fp, ip, sp}
     6d4:	00170213 	andseq	r0, r7, r3, lsl r2
     6d8:	00341600 	eorseq	r1, r4, r0, lsl #12
     6dc:	0b3a0803 	bleq	e826f0 <__bss_end__+0xe75d28>
     6e0:	13490b3b 	movtne	r0, #39739	; 0x9b3b
     6e4:	00001802 	andeq	r1, r0, r2, lsl #16
     6e8:	03003417 	movweq	r3, #1047	; 0x417
     6ec:	3413490e 	ldrcc	r4, [r3], #-2318	; 0x90e
     6f0:	00180219 	andseq	r0, r8, r9, lsl r2
     6f4:	82891800 	addhi	r1, r9, #0, 16
     6f8:	01110101 	tsteq	r1, r1, lsl #2
     6fc:	13011331 	movwne	r1, #4913	; 0x1331
     700:	8a190000 	bhi	640708 <__bss_end__+0x633d40>
     704:	02000182 	andeq	r0, r0, #-2147483616	; 0x80000020
     708:	18429118 	stmdane	r2, {r3, r4, r8, ip, pc}^
     70c:	891a0000 	ldmdbhi	sl, {}	; <UNPREDICTABLE>
     710:	11000182 	smlabbne	r0, r2, r1, r0
     714:	00133101 	andseq	r3, r3, r1, lsl #2
     718:	82891b00 	addhi	r1, r9, #0, 22
     71c:	01110101 	tsteq	r1, r1, lsl #2
     720:	00001331 	andeq	r1, r0, r1, lsr r3
     724:	4901011c 	stmdbmi	r1, {r2, r3, r4, r8}
     728:	00130113 	andseq	r0, r3, r3, lsl r1
     72c:	00211d00 	eoreq	r1, r1, r0, lsl #26
     730:	0b2f1349 	bleq	bc545c <__bss_end__+0xbb8a94>
     734:	051e0000 	ldreq	r0, [lr, #-0]
     738:	3a080300 	bcc	201340 <__bss_end__+0x1f4978>
     73c:	490b3b0b 	stmdbmi	fp, {r0, r1, r3, r8, r9, fp, ip, sp}
     740:	1f000013 	svcne	0x00000013
     744:	0e030034 	mcreq	0, 0, r0, cr3, cr4, {1}
     748:	19341349 	ldmdbne	r4!, {r0, r3, r6, r8, r9, ip}
     74c:	00000e1c 	andeq	r0, r0, ip, lsl lr
     750:	03012e20 	movweq	r2, #7712	; 0x1e20
     754:	3b0b3a0e 	blcc	2cef94 <__bss_end__+0x2c25cc>
     758:	4919270b 	ldmdbmi	r9, {r0, r1, r3, r8, r9, sl, sp}
     75c:	12011113 	andne	r1, r1, #-1073741820	; 0xc0000004
     760:	97184006 	ldrls	r4, [r8, -r6]
     764:	13011942 	movwne	r1, #6466	; 0x1942
     768:	34210000 	strtcc	r0, [r1], #-0
     76c:	3a080300 	bcc	201374 <__bss_end__+0x1f49ac>
     770:	490b3b0b 	stmdbmi	fp, {r0, r1, r3, r8, r9, fp, ip, sp}
     774:	00170213 	andseq	r0, r7, r3, lsl r2
     778:	011d2200 	tsteq	sp, r0, lsl #4
     77c:	01111331 	tsteq	r1, r1, lsr r3
     780:	0b580612 	bleq	1601fd0 <__bss_end__+0x15f5608>
     784:	13010b59 	movwne	r0, #7001	; 0x1b59
     788:	05230000 	streq	r0, [r3, #-0]!
     78c:	02133100 	andseq	r3, r3, #0, 2
     790:	24000017 	strcs	r0, [r0], #-23
     794:	0111010b 	tsteq	r1, fp, lsl #2
     798:	00000612 	andeq	r0, r0, r2, lsl r6
     79c:	31003425 	tstcc	r0, r5, lsr #8
     7a0:	00170213 	andseq	r0, r7, r3, lsl r2
     7a4:	00342600 	eorseq	r2, r4, r0, lsl #12
     7a8:	18021331 	stmdane	r2, {r0, r4, r5, r8, r9, ip}
     7ac:	2e270000 	cdpcs	0, 2, cr0, cr7, cr0, {0}
     7b0:	3a0e0301 	bcc	3813bc <__bss_end__+0x3749f4>
     7b4:	270b3b0b 	strcs	r3, [fp, -fp, lsl #22]
     7b8:	12011119 	andne	r1, r1, #1073741830	; 0x40000006
     7bc:	97184006 	ldrls	r4, [r8, -r6]
     7c0:	13011942 	movwne	r1, #6466	; 0x1942
     7c4:	2e280000 	cdpcs	0, 2, cr0, cr8, cr0, {0}
     7c8:	03193f00 	tsteq	r9, #0, 30
     7cc:	3b0b3a0e 	blcc	2cf00c <__bss_end__+0x2c2644>
     7d0:	1119270b 	tstne	r9, fp, lsl #14
     7d4:	40061201 	andmi	r1, r6, r1, lsl #4
     7d8:	19429718 	stmdbne	r2, {r3, r4, r8, r9, sl, ip, pc}^
     7dc:	34290000 	strtcc	r0, [r9], #-0
     7e0:	3a0e0300 	bcc	3813e8 <__bss_end__+0x374a20>
     7e4:	490b3b0b 	stmdbmi	fp, {r0, r1, r3, r8, r9, fp, ip, sp}
     7e8:	2a000013 	bcs	83c <__code_start__-0x77c4>
     7ec:	0e030034 	mcreq	0, 0, r0, cr3, cr4, {1}
     7f0:	0b3b0b3a 	bleq	ec34e0 <__bss_end__+0xeb6b18>
     7f4:	18021349 	stmdane	r2, {r0, r3, r6, r8, r9, ip}
     7f8:	342b0000 	strtcc	r0, [fp], #-0
     7fc:	3a0e0300 	bcc	381404 <__bss_end__+0x374a3c>
     800:	490b3b0b 	stmdbmi	fp, {r0, r1, r3, r8, r9, fp, ip, sp}
     804:	00170213 	andseq	r0, r7, r3, lsl r2
     808:	00342c00 	eorseq	r2, r4, r0, lsl #24
     80c:	00001331 	andeq	r1, r0, r1, lsr r3
     810:	0300342d 	movweq	r3, #1069	; 0x42d
     814:	3b0b3a0e 	blcc	2cf054 <__bss_end__+0x2c268c>
     818:	1c13490b 	ldcne	9, cr4, [r3], {11}
     81c:	2e000006 	cdpcs	0, 0, cr0, cr0, cr6, {0}
     820:	193f012e 	ldmdbne	pc!, {r1, r2, r3, r5, r8}	; <UNPREDICTABLE>
     824:	0b3a0e03 	bleq	e84038 <__bss_end__+0xe77670>
     828:	1927053b 	stmdbne	r7!, {r0, r1, r3, r4, r5, r8, sl}
     82c:	06120111 			; <UNDEFINED> instruction: 0x06120111
     830:	42971840 	addsmi	r1, r7, #64, 16	; 0x400000
     834:	00130119 	andseq	r0, r3, r9, lsl r1
     838:	00052f00 	andeq	r2, r5, r0, lsl #30
     83c:	0b3a0e03 	bleq	e84050 <__bss_end__+0xe77688>
     840:	1349053b 	movtne	r0, #38203	; 0x953b
     844:	00001702 	andeq	r1, r0, r2, lsl #14
     848:	03003430 	movweq	r3, #1072	; 0x430
     84c:	3413490e 	ldrcc	r4, [r3], #-2318	; 0x90e
     850:	31000019 	tstcc	r0, r9, lsl r0
     854:	193f012e 	ldmdbne	pc!, {r1, r2, r3, r5, r8}	; <UNPREDICTABLE>
     858:	0b3a0e03 	bleq	e8406c <__bss_end__+0xe776a4>
     85c:	1927053b 	stmdbne	r7!, {r0, r1, r3, r4, r5, r8, sl}
     860:	01111349 	tsteq	r1, r9, asr #6
     864:	18400612 	stmdane	r0, {r1, r4, r9, sl}^
     868:	01194297 			; <UNDEFINED> instruction: 0x01194297
     86c:	32000013 	andcc	r0, r0, #19
     870:	0e030034 	mcreq	0, 0, r0, cr3, cr4, {1}
     874:	0b3b0b3a 	bleq	ec3564 <__bss_end__+0xeb6b9c>
     878:	193f1349 	ldmdbne	pc!, {r0, r3, r6, r8, r9, ip}	; <UNPREDICTABLE>
     87c:	0000193c 	andeq	r1, r0, ip, lsr r9
     880:	3f002e33 	svccc	0x00002e33
     884:	3a0e0319 	bcc	3814f0 <__bss_end__+0x374b28>
     888:	270b3b0b 	strcs	r3, [fp, -fp, lsl #22]
     88c:	00193c19 	andseq	r3, r9, r9, lsl ip
     890:	012e3400 	teqeq	lr, r0, lsl #8
     894:	0e03193f 	mcreq	9, 0, r1, cr3, cr15, {1}
     898:	0b3b0b3a 	bleq	ec3588 <__bss_end__+0xeb6bc0>
     89c:	13491927 	movtne	r1, #39207	; 0x9927
     8a0:	1301193c 	movwne	r1, #6460	; 0x193c
     8a4:	05350000 	ldreq	r0, [r5, #-0]!
     8a8:	00134900 	andseq	r4, r3, r0, lsl #18
     8ac:	00183600 	andseq	r3, r8, r0, lsl #12
     8b0:	2e370000 	cdpcs	0, 3, cr0, cr7, cr0, {0}
     8b4:	03193f00 	tsteq	r9, #0, 30
     8b8:	3b0b3a0e 	blcc	2cf0f8 <__bss_end__+0x2c2730>
     8bc:	4919270b 	ldmdbmi	r9, {r0, r1, r3, r8, r9, sl, sp}
     8c0:	00193c13 	andseq	r3, r9, r3, lsl ip
     8c4:	012e3800 	teqeq	lr, r0, lsl #16
     8c8:	0e03193f 	mcreq	9, 0, r1, cr3, cr15, {1}
     8cc:	0b3b0b3a 	bleq	ec35bc <__bss_end__+0xeb6bf4>
     8d0:	193c1927 	ldmdbne	ip!, {r0, r1, r2, r5, r8, fp, ip}
     8d4:	00001301 	andeq	r1, r0, r1, lsl #6
     8d8:	3f012e39 	svccc	0x00012e39
     8dc:	3a0e0319 	bcc	381548 <__bss_end__+0x374b80>
     8e0:	270b3b0b 	strcs	r3, [fp, -fp, lsl #22]
     8e4:	00193c19 	andseq	r3, r9, r9, lsl ip
     8e8:	11010000 	mrsne	r0, (UNDEF: 1)
     8ec:	130e2501 	movwne	r2, #58625	; 0xe501
     8f0:	1b0e030b 	blne	381524 <__bss_end__+0x374b5c>
     8f4:	1201110e 	andne	r1, r1, #-2147483645	; 0x80000003
     8f8:	00171006 	andseq	r1, r7, r6
     8fc:	00240200 	eoreq	r0, r4, r0, lsl #4
     900:	0b3e0b0b 	bleq	f83534 <__bss_end__+0xf76b6c>
     904:	00000803 	andeq	r0, r0, r3, lsl #16
     908:	0b002403 	bleq	991c <data_abort_vector+0x19c>
     90c:	030b3e0b 	movweq	r3, #48651	; 0xbe0b
     910:	0400000e 	streq	r0, [r0], #-14
     914:	0e030016 	mcreq	0, 0, r0, cr3, cr6, {0}
     918:	0b3b0b3a 	bleq	ec3608 <__bss_end__+0xeb6c40>
     91c:	00001349 	andeq	r1, r0, r9, asr #6
     920:	0b000f05 	bleq	453c <__code_start__-0x3ac4>
     924:	0013490b 	andseq	r4, r3, fp, lsl #18
     928:	00260600 	eoreq	r0, r6, r0, lsl #12
     92c:	00001349 	andeq	r1, r0, r9, asr #6
     930:	3f012e07 	svccc	0x00012e07
     934:	3a0e0319 	bcc	3815a0 <__bss_end__+0x374bd8>
     938:	270b3b0b 	strcs	r3, [fp, -fp, lsl #22]
     93c:	11134919 	tstne	r3, r9, lsl r9
     940:	40061201 	andmi	r1, r6, r1, lsl #4
     944:	19429718 	stmdbne	r2, {r3, r4, r8, r9, sl, ip, pc}^
     948:	00001301 	andeq	r1, r0, r1, lsl #6
     94c:	03000508 	movweq	r0, #1288	; 0x508
     950:	3b0b3a0e 	blcc	2cf190 <__bss_end__+0x2c27c8>
     954:	0213490b 	andseq	r4, r3, #180224	; 0x2c000
     958:	09000017 	stmdbeq	r0, {r0, r1, r2, r4}
     95c:	08030005 	stmdaeq	r3, {r0, r2}
     960:	0b3b0b3a 	bleq	ec3650 <__bss_end__+0xeb6c88>
     964:	17021349 	strne	r1, [r2, -r9, asr #6]
     968:	340a0000 	strcc	r0, [sl], #-0
     96c:	3a0e0300 	bcc	381574 <__bss_end__+0x374bac>
     970:	490b3b0b 	stmdbmi	fp, {r0, r1, r3, r8, r9, fp, ip, sp}
     974:	00170213 	andseq	r0, r7, r3, lsl r2
     978:	00340b00 	eorseq	r0, r4, r0, lsl #22
     97c:	0b3a0803 	bleq	e82990 <__bss_end__+0xe75fc8>
     980:	13490b3b 	movtne	r0, #39739	; 0x9b3b
     984:	00001702 	andeq	r1, r0, r2, lsl #14
     988:	0000260c 	andeq	r2, r0, ip, lsl #12
     98c:	11010000 	mrsne	r0, (UNDEF: 1)
     990:	130e2501 	movwne	r2, #58625	; 0xe501
     994:	1b0e030b 	blne	3815c8 <__bss_end__+0x374c00>
     998:	1201110e 	andne	r1, r1, #-2147483645	; 0x80000003
     99c:	00171006 	andseq	r1, r7, r6
     9a0:	00240200 	eoreq	r0, r4, r0, lsl #4
     9a4:	0b3e0b0b 	bleq	f835d8 <__bss_end__+0xf76c10>
     9a8:	00000e03 	andeq	r0, r0, r3, lsl #28
     9ac:	0b002403 	bleq	99c0 <data_abort_vector+0x240>
     9b0:	030b3e0b 	movweq	r3, #48651	; 0xbe0b
     9b4:	04000008 	streq	r0, [r0], #-8
     9b8:	0b0b000f 	bleq	2c09fc <__bss_end__+0x2b4034>
     9bc:	0f050000 	svceq	0x00050000
     9c0:	490b0b00 	stmdbmi	fp, {r8, r9, fp}
     9c4:	06000013 			; <UNDEFINED> instruction: 0x06000013
     9c8:	0e030016 	mcreq	0, 0, r0, cr3, cr6, {0}
     9cc:	0b3b0b3a 	bleq	ec36bc <__bss_end__+0xeb6cf4>
     9d0:	00001349 	andeq	r1, r0, r9, asr #6
     9d4:	3f012e07 	svccc	0x00012e07
     9d8:	3a0e0319 	bcc	381644 <__bss_end__+0x374c7c>
     9dc:	270b3b0b 	strcs	r3, [fp, -fp, lsl #22]
     9e0:	11134919 	tstne	r3, r9, lsl r9
     9e4:	40061201 	andmi	r1, r6, r1, lsl #4
     9e8:	19429718 	stmdbne	r2, {r3, r4, r8, r9, sl, ip, pc}^
     9ec:	05080000 	streq	r0, [r8, #-0]
     9f0:	3a080300 	bcc	2015f8 <__bss_end__+0x1f4c30>
     9f4:	490b3b0b 	stmdbmi	fp, {r0, r1, r3, r8, r9, fp, ip, sp}
     9f8:	00180213 	andseq	r0, r8, r3, lsl r2
     9fc:	00050900 	andeq	r0, r5, r0, lsl #18
     a00:	0b3a0803 	bleq	e82a14 <__bss_end__+0xe7604c>
     a04:	13490b3b 	movtne	r0, #39739	; 0x9b3b
     a08:	00001702 	andeq	r1, r0, r2, lsl #14
     a0c:	0300340a 	movweq	r3, #1034	; 0x40a
     a10:	3b0b3a08 	blcc	2cf238 <__bss_end__+0x2c2870>
     a14:	0213490b 	andseq	r4, r3, #180224	; 0x2c000
     a18:	0b000017 	bleq	a7c <__code_start__-0x7584>
     a1c:	08030034 	stmdaeq	r3, {r2, r4, r5}
     a20:	0b3b0b3a 	bleq	ec3710 <__bss_end__+0xeb6d48>
     a24:	18021349 	stmdane	r2, {r0, r3, r6, r8, r9, ip}
     a28:	01000000 	mrseq	r0, (UNDEF: 0)
     a2c:	0e250111 	mcreq	1, 1, r0, cr5, cr1, {0}
     a30:	0e030b13 	vmoveq.32	d3[0], r0
     a34:	01110e1b 	tsteq	r1, fp, lsl lr
     a38:	17100612 			; <UNDEFINED> instruction: 0x17100612
     a3c:	16020000 	strne	r0, [r2], -r0
     a40:	3a0e0300 	bcc	381648 <__bss_end__+0x374c80>
     a44:	490b3b0b 	stmdbmi	fp, {r0, r1, r3, r8, r9, fp, ip, sp}
     a48:	03000013 	movweq	r0, #19
     a4c:	0e030113 	mcreq	1, 0, r0, cr3, cr3, {0}
     a50:	0b3a0b0b 	bleq	e83684 <__bss_end__+0xe76cbc>
     a54:	13010b3b 	movwne	r0, #6971	; 0x1b3b
     a58:	0d040000 	stceq	0, cr0, [r4, #-0]
     a5c:	490e0300 	stmdbmi	lr, {r8, r9}
     a60:	340b3813 	strcc	r3, [fp], #-2067	; 0x813
     a64:	05000019 	streq	r0, [r0, #-25]
     a68:	0b0b000f 	bleq	2c0aac <__bss_end__+0x2b40e4>
     a6c:	24060000 	strcs	r0, [r6], #-0
     a70:	3e0b0b00 	vmlacc.f64	d0, d11, d0
     a74:	0008030b 	andeq	r0, r8, fp, lsl #6
     a78:	00240700 	eoreq	r0, r4, r0, lsl #14
     a7c:	0b3e0b0b 	bleq	f836b0 <__bss_end__+0xf76ce8>
     a80:	00000e03 	andeq	r0, r0, r3, lsl #28
     a84:	0b000f08 	bleq	46ac <__code_start__-0x3954>
     a88:	0013490b 	andseq	r4, r3, fp, lsl #18
     a8c:	00260900 	eoreq	r0, r6, r0, lsl #18
     a90:	00001349 	andeq	r1, r0, r9, asr #6
     a94:	3f012e0a 	svccc	0x00012e0a
     a98:	3a0e0319 	bcc	381704 <__bss_end__+0x374d3c>
     a9c:	270b3b0b 	strcs	r3, [fp, -fp, lsl #22]
     aa0:	11134919 	tstne	r3, r9, lsl r9
     aa4:	40061201 	andmi	r1, r6, r1, lsl #4
     aa8:	19429718 	stmdbne	r2, {r3, r4, r8, r9, sl, ip, pc}^
     aac:	00001301 	andeq	r1, r0, r1, lsl #6
     ab0:	0300050b 	movweq	r0, #1291	; 0x50b
     ab4:	3b0b3a08 	blcc	2cf2dc <__bss_end__+0x2c2914>
     ab8:	0213490b 	andseq	r4, r3, #180224	; 0x2c000
     abc:	0c000018 	stceq	0, cr0, [r0], {24}
     ac0:	00000018 	andeq	r0, r0, r8, lsl r0
     ac4:	0300340d 	movweq	r3, #1037	; 0x40d
     ac8:	3b0b3a08 	blcc	2cf2f0 <__bss_end__+0x2c2928>
     acc:	0213490b 	andseq	r4, r3, #180224	; 0x2c000
     ad0:	0e000018 	mcreq	0, 0, r0, cr0, cr8, {0}
     ad4:	0e030034 	mcreq	0, 0, r0, cr3, cr4, {1}
     ad8:	0b3b0b3a 	bleq	ec37c8 <__bss_end__+0xeb6e00>
     adc:	18021349 	stmdane	r2, {r0, r3, r6, r8, r9, ip}
     ae0:	340f0000 	strcc	r0, [pc], #-0	; ae8 <__code_start__-0x7518>
     ae4:	3a080300 	bcc	2016ec <__bss_end__+0x1f4d24>
     ae8:	490b3b0b 	stmdbmi	fp, {r0, r1, r3, r8, r9, fp, ip, sp}
     aec:	00170213 	andseq	r0, r7, r3, lsl r2
     af0:	82891000 	addhi	r1, r9, #0
     af4:	01110101 	tsteq	r1, r1, lsl #2
     af8:	13011331 	movwne	r1, #4913	; 0x1331
     afc:	8a110000 	bhi	440b04 <__bss_end__+0x43413c>
     b00:	02000182 	andeq	r0, r0, #-2147483616	; 0x80000020
     b04:	18429118 	stmdane	r2, {r3, r4, r8, ip, pc}^
     b08:	89120000 	ldmdbhi	r2, {}	; <UNPREDICTABLE>
     b0c:	11010182 	smlabbne	r1, r2, r1, r0
     b10:	13000001 	movwne	r0, #1
     b14:	13490101 	movtne	r0, #37121	; 0x9101
     b18:	00001301 	andeq	r1, r0, r1, lsl #6
     b1c:	49002114 	stmdbmi	r0, {r2, r4, r8, sp}
     b20:	00052f13 	andeq	r2, r5, r3, lsl pc
     b24:	01151500 	tsteq	r5, r0, lsl #10
     b28:	13491927 	movtne	r1, #39207	; 0x9927
     b2c:	00001301 	andeq	r1, r0, r1, lsl #6
     b30:	49000516 	stmdbmi	r0, {r1, r2, r4, r8, sl}
     b34:	17000013 	smladne	r0, r3, r0, r0
     b38:	0e030034 	mcreq	0, 0, r0, cr3, cr4, {1}
     b3c:	0b3b0b3a 	bleq	ec382c <__bss_end__+0xeb6e64>
     b40:	193f1349 	ldmdbne	pc!, {r0, r3, r6, r8, r9, ip}	; <UNPREDICTABLE>
     b44:	0000193c 	andeq	r1, r0, ip, lsr r9
     b48:	3f012e18 	svccc	0x00012e18
     b4c:	3a0e0319 	bcc	3817b8 <__bss_end__+0x374df0>
     b50:	270b3b0b 	strcs	r3, [fp, -fp, lsl #22]
     b54:	3c134919 	ldccc	9, cr4, [r3], {25}
     b58:	00000019 	andeq	r0, r0, r9, lsl r0
     b5c:	25011101 	strcs	r1, [r1, #-257]	; 0x101
     b60:	030b130e 	movweq	r1, #45838	; 0xb30e
     b64:	110e1b0e 	tstne	lr, lr, lsl #22
     b68:	10061201 	andne	r1, r6, r1, lsl #4
     b6c:	02000017 	andeq	r0, r0, #23
     b70:	0b0b0024 	bleq	2c0c08 <__bss_end__+0x2b4240>
     b74:	08030b3e 	stmdaeq	r3, {r1, r2, r3, r4, r5, r8, r9, fp}
     b78:	24030000 	strcs	r0, [r3], #-0
     b7c:	3e0b0b00 	vmlacc.f64	d0, d11, d0
     b80:	000e030b 	andeq	r0, lr, fp, lsl #6
     b84:	012e0400 	teqeq	lr, r0, lsl #8
     b88:	0b3a0e03 	bleq	e8439c <__bss_end__+0xe779d4>
     b8c:	19270b3b 	stmdbne	r7!, {r0, r1, r3, r4, r5, r8, r9, fp}
     b90:	01111349 	tsteq	r1, r9, asr #6
     b94:	18400612 	stmdane	r0, {r1, r4, r9, sl}^
     b98:	01194297 			; <UNDEFINED> instruction: 0x01194297
     b9c:	05000013 	streq	r0, [r0, #-19]
     ba0:	08030005 	stmdaeq	r3, {r0, r2}
     ba4:	0b3b0b3a 	bleq	ec3894 <__bss_end__+0xeb6ecc>
     ba8:	17021349 	strne	r1, [r2, -r9, asr #6]
     bac:	89060000 	stmdbhi	r6, {}	; <UNPREDICTABLE>
     bb0:	11010182 	smlabbne	r1, r2, r1, r0
     bb4:	00133101 	andseq	r3, r3, r1, lsl #2
     bb8:	828a0700 	addhi	r0, sl, #0, 14
     bbc:	18020001 	stmdane	r2, {r0}
     bc0:	00184291 	mulseq	r8, r1, r2
     bc4:	002e0800 	eoreq	r0, lr, r0, lsl #16
     bc8:	0e03193f 	mcreq	9, 0, r1, cr3, cr15, {1}
     bcc:	0b3b0b3a 	bleq	ec38bc <__bss_end__+0xeb6ef4>
     bd0:	01111927 	tsteq	r1, r7, lsr #18
     bd4:	18400612 	stmdane	r0, {r1, r4, r9, sl}^
     bd8:	00194297 	mulseq	r9, r7, r2
     bdc:	012e0900 	teqeq	lr, r0, lsl #18
     be0:	0e03193f 	mcreq	9, 0, r1, cr3, cr15, {1}
     be4:	0b3b0b3a 	bleq	ec38d4 <__bss_end__+0xeb6f0c>
     be8:	01111927 	tsteq	r1, r7, lsr #18
     bec:	18400612 	stmdane	r0, {r1, r4, r9, sl}^
     bf0:	01194297 			; <UNDEFINED> instruction: 0x01194297
     bf4:	0a000013 	beq	c48 <__code_start__-0x73b8>
     bf8:	08030005 	stmdaeq	r3, {r0, r2}
     bfc:	0b3b0b3a 	bleq	ec38ec <__bss_end__+0xeb6f24>
     c00:	18021349 	stmdane	r2, {r0, r3, r6, r8, r9, ip}
     c04:	150b0000 	strne	r0, [fp, #-0]
     c08:	49192701 	ldmdbmi	r9, {r0, r8, r9, sl, sp}
     c0c:	00130113 	andseq	r0, r3, r3, lsl r1
     c10:	00050c00 	andeq	r0, r5, r0, lsl #24
     c14:	00001349 	andeq	r1, r0, r9, asr #6
     c18:	0b000f0d 	bleq	4854 <__code_start__-0x37ac>
     c1c:	0013490b 	andseq	r4, r3, fp, lsl #18
     c20:	00340e00 	eorseq	r0, r4, r0, lsl #28
     c24:	0b3a0e03 	bleq	e84438 <__bss_end__+0xe77a70>
     c28:	13490b3b 	movtne	r0, #39739	; 0x9b3b
     c2c:	1802193f 	stmdane	r2, {r0, r1, r2, r3, r4, r5, r8, fp, ip}
     c30:	2e0f0000 	cdpcs	0, 0, cr0, cr15, cr0, {0}
     c34:	03193f01 	tsteq	r9, #1, 30
     c38:	3b0b3a0e 	blcc	2cf478 <__bss_end__+0x2c2ab0>
     c3c:	3c19270b 	ldccc	7, cr2, [r9], {11}
     c40:	00000019 	andeq	r0, r0, r9, lsl r0
     c44:	25011101 	strcs	r1, [r1, #-257]	; 0x101
     c48:	030b130e 	movweq	r1, #45838	; 0xb30e
     c4c:	110e1b0e 	tstne	lr, lr, lsl #22
     c50:	10061201 	andne	r1, r6, r1, lsl #4
     c54:	02000017 	andeq	r0, r0, #23
     c58:	0b0b0024 	bleq	2c0cf0 <__bss_end__+0x2b4328>
     c5c:	08030b3e 	stmdaeq	r3, {r1, r2, r3, r4, r5, r8, r9, fp}
     c60:	24030000 	strcs	r0, [r3], #-0
     c64:	3e0b0b00 	vmlacc.f64	d0, d11, d0
     c68:	000e030b 	andeq	r0, lr, fp, lsl #6
     c6c:	000f0400 	andeq	r0, pc, r0, lsl #8
     c70:	13490b0b 	movtne	r0, #39691	; 0x9b0b
     c74:	26050000 	strcs	r0, [r5], -r0
     c78:	00134900 	andseq	r4, r3, r0, lsl #18
     c7c:	012e0600 	teqeq	lr, r0, lsl #12
     c80:	0e03193f 	mcreq	9, 0, r1, cr3, cr15, {1}
     c84:	0b3b0b3a 	bleq	ec3974 <__bss_end__+0xeb6fac>
     c88:	13491927 	movtne	r1, #39207	; 0x9927
     c8c:	06120111 			; <UNDEFINED> instruction: 0x06120111
     c90:	42961840 	addsmi	r1, r6, #64, 16	; 0x400000
     c94:	00130119 	andseq	r0, r3, r9, lsl r1
     c98:	00050700 	andeq	r0, r5, r0, lsl #14
     c9c:	0b3a0803 	bleq	e82cb0 <__bss_end__+0xe762e8>
     ca0:	13490b3b 	movtne	r0, #39739	; 0x9b3b
     ca4:	00001702 	andeq	r1, r0, r2, lsl #14
     ca8:	27011508 	strcs	r1, [r1, -r8, lsl #10]
     cac:	01134919 	tsteq	r3, r9, lsl r9
     cb0:	09000013 	stmdbeq	r0, {r0, r1, r4}
     cb4:	13490005 	movtne	r0, #36869	; 0x9005
     cb8:	340a0000 	strcc	r0, [sl], #-0
     cbc:	3a0e0300 	bcc	3818c4 <__bss_end__+0x374efc>
     cc0:	490b3b0b 	stmdbmi	fp, {r0, r1, r3, r8, r9, fp, ip, sp}
     cc4:	3c193f13 	ldccc	15, cr3, [r9], {19}
     cc8:	0b000019 	bleq	d34 <__code_start__-0x72cc>
     ccc:	0e030034 	mcreq	0, 0, r0, cr3, cr4, {1}
     cd0:	0b3b0b3a 	bleq	ec39c0 <__bss_end__+0xeb6ff8>
     cd4:	193f1349 	ldmdbne	pc!, {r0, r3, r6, r8, r9, ip}	; <UNPREDICTABLE>
     cd8:	00001802 	andeq	r1, r0, r2, lsl #16
     cdc:	01110100 	tsteq	r1, r0, lsl #2
     ce0:	0b130e25 	bleq	4c457c <__bss_end__+0x4b7bb4>
     ce4:	0e1b0e03 	cdpeq	14, 1, cr0, cr11, cr3, {0}
     ce8:	06120111 			; <UNDEFINED> instruction: 0x06120111
     cec:	00001710 	andeq	r1, r0, r0, lsl r7
     cf0:	0b002402 	bleq	9d00 <memcheck_off>
     cf4:	030b3e0b 	movweq	r3, #48651	; 0xbe0b
     cf8:	03000008 	movweq	r0, #8
     cfc:	0b0b0024 	bleq	2c0d94 <__bss_end__+0x2b43cc>
     d00:	0e030b3e 	vmoveq.16	d3[0], r0
     d04:	0f040000 	svceq	0x00040000
     d08:	000b0b00 	andeq	r0, fp, r0, lsl #22
     d0c:	000f0500 	andeq	r0, pc, r0, lsl #10
     d10:	13490b0b 	movtne	r0, #39691	; 0x9b0b
     d14:	26060000 	strcs	r0, [r6], -r0
     d18:	00134900 	andseq	r4, r3, r0, lsl #18
     d1c:	00160700 	andseq	r0, r6, r0, lsl #14
     d20:	0b3a0e03 	bleq	e84534 <__bss_end__+0xe77b6c>
     d24:	13490b3b 	movtne	r0, #39739	; 0x9b3b
     d28:	13080000 	movwne	r0, #32768	; 0x8000
     d2c:	0b0e0301 	bleq	381938 <__bss_end__+0x374f70>
     d30:	3b0b3a0b 	blcc	2cf564 <__bss_end__+0x2c2b9c>
     d34:	0013010b 	andseq	r0, r3, fp, lsl #2
     d38:	000d0900 	andeq	r0, sp, r0, lsl #18
     d3c:	13490e03 	movtne	r0, #40451	; 0x9e03
     d40:	19340b38 	ldmdbne	r4!, {r3, r4, r5, r8, r9, fp}
     d44:	2e0a0000 	cdpcs	0, 0, cr0, cr10, cr0, {0}
     d48:	3a0e0301 	bcc	381954 <__bss_end__+0x374f8c>
     d4c:	270b3b0b 	strcs	r3, [fp, -fp, lsl #22]
     d50:	11134919 	tstne	r3, r9, lsl r9
     d54:	40061201 	andmi	r1, r6, r1, lsl #4
     d58:	19429718 	stmdbne	r2, {r3, r4, r8, r9, sl, ip, pc}^
     d5c:	00001301 	andeq	r1, r0, r1, lsl #6
     d60:	0300050b 	movweq	r0, #1291	; 0x50b
     d64:	3b0b3a08 	blcc	2cf58c <__bss_end__+0x2c2bc4>
     d68:	0213490b 	andseq	r4, r3, #180224	; 0x2c000
     d6c:	0c000017 	stceq	0, cr0, [r0], {23}
     d70:	0803012e 	stmdaeq	r3, {r1, r2, r3, r5, r8}
     d74:	0b3b0b3a 	bleq	ec3a64 <__bss_end__+0xeb709c>
     d78:	13491927 	movtne	r1, #39207	; 0x9927
     d7c:	06120111 			; <UNDEFINED> instruction: 0x06120111
     d80:	42971840 	addsmi	r1, r7, #64, 16	; 0x400000
     d84:	00130119 	andseq	r0, r3, r9, lsl r1
     d88:	00050d00 	andeq	r0, r5, r0, lsl #26
     d8c:	0b3a0e03 	bleq	e845a0 <__bss_end__+0xe77bd8>
     d90:	13490b3b 	movtne	r0, #39739	; 0x9b3b
     d94:	00001702 	andeq	r1, r0, r2, lsl #14
     d98:	0300050e 	movweq	r0, #1294	; 0x50e
     d9c:	3b0b3a0e 	blcc	2cf5dc <__bss_end__+0x2c2c14>
     da0:	0213490b 	andseq	r4, r3, #180224	; 0x2c000
     da4:	0f000018 	svceq	0x00000018
     da8:	08030034 	stmdaeq	r3, {r2, r4, r5}
     dac:	0b3b0b3a 	bleq	ec3a9c <__bss_end__+0xeb70d4>
     db0:	18021349 	stmdane	r2, {r0, r3, r6, r8, r9, ip}
     db4:	34100000 	ldrcc	r0, [r0], #-0
     db8:	3a080300 	bcc	2019c0 <__bss_end__+0x1f4ff8>
     dbc:	490b3b0b 	stmdbmi	fp, {r0, r1, r3, r8, r9, fp, ip, sp}
     dc0:	00170213 	andseq	r0, r7, r3, lsl r2
     dc4:	00341100 	eorseq	r1, r4, r0, lsl #2
     dc8:	13490e03 	movtne	r0, #40451	; 0x9e03
     dcc:	18021934 	stmdane	r2, {r2, r4, r5, r8, fp, ip}
     dd0:	0b120000 	bleq	480dd8 <__bss_end__+0x474410>
     dd4:	12011101 	andne	r1, r1, #1073741824	; 0x40000000
     dd8:	00130106 	andseq	r0, r3, r6, lsl #2
     ddc:	00341300 	eorseq	r1, r4, r0, lsl #6
     de0:	0b3a0e03 	bleq	e845f4 <__bss_end__+0xe77c2c>
     de4:	13490b3b 	movtne	r0, #39739	; 0x9b3b
     de8:	00001702 	andeq	r1, r0, r2, lsl #14
     dec:	01828914 	orreq	r8, r2, r4, lsl r9
     df0:	31011100 	mrscc	r1, (UNDEF: 17)
     df4:	15000013 	strne	r0, [r0, #-19]
     df8:	01018289 	smlabbeq	r1, r9, r2, r8
     dfc:	13310111 	teqne	r1, #1073741828	; 0x40000004
     e00:	00001301 	andeq	r1, r0, r1, lsl #6
     e04:	01828a16 	orreq	r8, r2, r6, lsl sl
     e08:	91180200 	tstls	r8, r0, lsl #4
     e0c:	00001842 	andeq	r1, r0, r2, asr #16
     e10:	01828917 	orreq	r8, r2, r7, lsl r9
     e14:	31011101 	tstcc	r1, r1, lsl #2
     e18:	18000013 	stmdane	r0, {r0, r1, r4}
     e1c:	13490101 	movtne	r0, #37121	; 0x9101
     e20:	00001301 	andeq	r1, r0, r1, lsl #6
     e24:	49002119 	stmdbmi	r0, {r0, r3, r4, r8, sp}
     e28:	000b2f13 	andeq	r2, fp, r3, lsl pc
     e2c:	012e1a00 	teqeq	lr, r0, lsl #20
     e30:	0e03193f 	mcreq	9, 0, r1, cr3, cr15, {1}
     e34:	0b3b0b3a 	bleq	ec3b24 <__bss_end__+0xeb715c>
     e38:	01111927 	tsteq	r1, r7, lsr #18
     e3c:	18400612 	stmdane	r0, {r1, r4, r9, sl}^
     e40:	01194297 			; <UNDEFINED> instruction: 0x01194297
     e44:	1b000013 	blne	e98 <__code_start__-0x7168>
     e48:	19270115 	stmdbne	r7!, {r0, r2, r4, r8}
     e4c:	13011349 	movwne	r1, #4937	; 0x1349
     e50:	051c0000 	ldreq	r0, [ip, #-0]
     e54:	00134900 	andseq	r4, r3, r0, lsl #18
     e58:	012e1d00 	teqeq	lr, r0, lsl #26
     e5c:	0e03193f 	mcreq	9, 0, r1, cr3, cr15, {1}
     e60:	0b3b0b3a 	bleq	ec3b50 <__bss_end__+0xeb7188>
     e64:	13491927 	movtne	r1, #39207	; 0x9927
     e68:	06120111 			; <UNDEFINED> instruction: 0x06120111
     e6c:	42971840 	addsmi	r1, r7, #64, 16	; 0x400000
     e70:	00130119 	andseq	r0, r3, r9, lsl r1
     e74:	010b1e00 	tsteq	fp, r0, lsl #28
     e78:	06120111 			; <UNDEFINED> instruction: 0x06120111
     e7c:	891f0000 	ldmdbhi	pc, {}	; <UNPREDICTABLE>
     e80:	11010182 	smlabbne	r1, r2, r1, r0
     e84:	00130101 	andseq	r0, r3, r1, lsl #2
     e88:	00342000 	eorseq	r2, r4, r0
     e8c:	0b3a0e03 	bleq	e846a0 <__bss_end__+0xe77cd8>
     e90:	13490b3b 	movtne	r0, #39739	; 0x9b3b
     e94:	193c193f 	ldmdbne	ip!, {r0, r1, r2, r3, r4, r5, r8, fp, ip}
     e98:	2e210000 	cdpcs	0, 2, cr0, cr1, cr0, {0}
     e9c:	03193f00 	tsteq	r9, #0, 30
     ea0:	3b0b3a0e 	blcc	2cf6e0 <__bss_end__+0x2c2d18>
     ea4:	3c19270b 	ldccc	7, cr2, [r9], {11}
     ea8:	22000019 	andcs	r0, r0, #25
     eac:	193f012e 	ldmdbne	pc!, {r1, r2, r3, r5, r8}	; <UNPREDICTABLE>
     eb0:	0b3a0e03 	bleq	e846c4 <__bss_end__+0xe77cfc>
     eb4:	19270b3b 	stmdbne	r7!, {r0, r1, r3, r4, r5, r8, r9, fp}
     eb8:	193c1349 	ldmdbne	ip!, {r0, r3, r6, r8, r9, ip}
     ebc:	00001301 	andeq	r1, r0, r1, lsl #6
     ec0:	00001823 	andeq	r1, r0, r3, lsr #16
     ec4:	11010000 	mrsne	r0, (UNDEF: 1)
     ec8:	130e2501 	movwne	r2, #58625	; 0xe501
     ecc:	1b0e030b 	blne	381b00 <__bss_end__+0x375138>
     ed0:	1201110e 	andne	r1, r1, #-2147483645	; 0x80000003
     ed4:	00171006 	andseq	r1, r7, r6
     ed8:	00240200 	eoreq	r0, r4, r0, lsl #4
     edc:	0b3e0b0b 	bleq	f83b10 <__bss_end__+0xf77148>
     ee0:	00000803 	andeq	r0, r0, r3, lsl #16
     ee4:	0b002403 	bleq	9ef8 <memcheck_trap_enable+0xc>
     ee8:	030b3e0b 	movweq	r3, #48651	; 0xbe0b
     eec:	0400000e 	streq	r0, [r0], #-14
     ef0:	0b0b000f 	bleq	2c0f34 <__bss_end__+0x2b456c>
     ef4:	00001349 	andeq	r1, r0, r9, asr #6
     ef8:	49002605 	stmdbmi	r0, {r0, r2, r9, sl, sp}
     efc:	06000013 			; <UNDEFINED> instruction: 0x06000013
     f00:	193f012e 	ldmdbne	pc!, {r1, r2, r3, r5, r8}	; <UNPREDICTABLE>
     f04:	0b3a0e03 	bleq	e84718 <__bss_end__+0xe77d50>
     f08:	19270b3b 	stmdbne	r7!, {r0, r1, r3, r4, r5, r8, r9, fp}
     f0c:	06120111 			; <UNDEFINED> instruction: 0x06120111
     f10:	42971840 	addsmi	r1, r7, #64, 16	; 0x400000
     f14:	00130119 	andseq	r0, r3, r9, lsl r1
     f18:	82890700 	addhi	r0, r9, #0, 14
     f1c:	01110001 	tsteq	r1, r1
     f20:	00001331 	andeq	r1, r0, r1, lsr r3
     f24:	01828908 	orreq	r8, r2, r8, lsl #18
     f28:	01011101 	tsteq	r1, r1, lsl #2
     f2c:	09000013 	stmdbeq	r0, {r0, r1, r4}
     f30:	0001828a 	andeq	r8, r1, sl, lsl #5
     f34:	42911802 	addsmi	r1, r1, #131072	; 0x20000
     f38:	0a000018 	beq	fa0 <__code_start__-0x7060>
     f3c:	01018289 	smlabbeq	r1, r9, r2, r8
     f40:	13310111 	teqne	r1, #1073741828	; 0x40000004
     f44:	00001301 	andeq	r1, r0, r1, lsl #6
     f48:	2701150b 	strcs	r1, [r1, -fp, lsl #10]
     f4c:	01134919 	tsteq	r3, r9, lsl r9
     f50:	0c000013 	stceq	0, cr0, [r0], {19}
     f54:	13490005 	movtne	r0, #36869	; 0x9005
     f58:	340d0000 	strcc	r0, [sp], #-0
     f5c:	3a0e0300 	bcc	381b64 <__bss_end__+0x37519c>
     f60:	490b3b0b 	stmdbmi	fp, {r0, r1, r3, r8, r9, fp, ip, sp}
     f64:	3c193f13 	ldccc	15, cr3, [r9], {19}
     f68:	0e000019 	mcreq	0, 0, r0, cr0, cr9, {0}
     f6c:	193f002e 	ldmdbne	pc!, {r1, r2, r3, r5}	; <UNPREDICTABLE>
     f70:	0b3a0e03 	bleq	e84784 <__bss_end__+0xe77dbc>
     f74:	19270b3b 	stmdbne	r7!, {r0, r1, r3, r4, r5, r8, r9, fp}
     f78:	0000193c 	andeq	r1, r0, ip, lsr r9
     f7c:	3f012e0f 	svccc	0x00012e0f
     f80:	3a0e0319 	bcc	381bec <__bss_end__+0x375224>
     f84:	270b3b0b 	strcs	r3, [fp, -fp, lsl #22]
     f88:	01193c19 	tsteq	r9, r9, lsl ip
     f8c:	00000013 	andeq	r0, r0, r3, lsl r0
     f90:	25011101 	strcs	r1, [r1, #-257]	; 0x101
     f94:	030b130e 	movweq	r1, #45838	; 0xb30e
     f98:	110e1b0e 	tstne	lr, lr, lsl #22
     f9c:	10061201 	andne	r1, r6, r1, lsl #4
     fa0:	02000017 	andeq	r0, r0, #23
     fa4:	0b0b0024 	bleq	2c103c <__bss_end__+0x2b4674>
     fa8:	08030b3e 	stmdaeq	r3, {r1, r2, r3, r4, r5, r8, r9, fp}
     fac:	24030000 	strcs	r0, [r3], #-0
     fb0:	3e0b0b00 	vmlacc.f64	d0, d11, d0
     fb4:	000e030b 	andeq	r0, lr, fp, lsl #6
     fb8:	012e0400 	teqeq	lr, r0, lsl #8
     fbc:	0e03193f 	mcreq	9, 0, r1, cr3, cr15, {1}
     fc0:	0b3b0b3a 	bleq	ec3cb0 <__bss_end__+0xeb72e8>
     fc4:	06120111 			; <UNDEFINED> instruction: 0x06120111
     fc8:	42971840 	addsmi	r1, r7, #64, 16	; 0x400000
     fcc:	00130119 	andseq	r0, r3, r9, lsl r1
     fd0:	00340500 	eorseq	r0, r4, r0, lsl #10
     fd4:	0b3a0e03 	bleq	e847e8 <__bss_end__+0xe77e20>
     fd8:	13490b3b 	movtne	r0, #39739	; 0x9b3b
     fdc:	193c193f 	ldmdbne	ip!, {r0, r1, r2, r3, r4, r5, r8, fp, ip}
     fe0:	2e060000 	cdpcs	0, 0, cr0, cr6, cr0, {0}
     fe4:	03193f00 	tsteq	r9, #0, 30
     fe8:	3b0b3a0e 	blcc	2cf828 <__bss_end__+0x2c2e60>
     fec:	3c19270b 	ldccc	7, cr2, [r9], {11}
     ff0:	07000019 	smladeq	r0, r9, r0, r0
     ff4:	08030034 	stmdaeq	r3, {r2, r4, r5}
     ff8:	0b3b0b3a 	bleq	ec3ce8 <__bss_end__+0xeb7320>
     ffc:	17021349 	strne	r1, [r2, -r9, asr #6]
    1000:	34080000 	strcc	r0, [r8], #-0
    1004:	3a0e0300 	bcc	381c0c <__bss_end__+0x375244>
    1008:	490b3b0b 	stmdbmi	fp, {r0, r1, r3, r8, r9, fp, ip, sp}
    100c:	09000013 	stmdbeq	r0, {r0, r1, r4}
    1010:	00018289 	andeq	r8, r1, r9, lsl #5
    1014:	13310111 	teqne	r1, #1073741828	; 0x40000004
    1018:	0f0a0000 	svceq	0x000a0000
    101c:	490b0b00 	stmdbmi	fp, {r8, r9, fp}
    1020:	00000013 	andeq	r0, r0, r3, lsl r0
    1024:	25011101 	strcs	r1, [r1, #-257]	; 0x101
    1028:	030b130e 	movweq	r1, #45838	; 0xb30e
    102c:	110e1b0e 	tstne	lr, lr, lsl #22
    1030:	10061201 	andne	r1, r6, r1, lsl #4
    1034:	02000017 	andeq	r0, r0, #23
    1038:	0b0b0024 	bleq	2c10d0 <__bss_end__+0x2b4708>
    103c:	08030b3e 	stmdaeq	r3, {r1, r2, r3, r4, r5, r8, r9, fp}
    1040:	24030000 	strcs	r0, [r3], #-0
    1044:	3e0b0b00 	vmlacc.f64	d0, d11, d0
    1048:	000e030b 	andeq	r0, lr, fp, lsl #6
    104c:	000f0400 	andeq	r0, pc, r0, lsl #8
    1050:	13490b0b 	movtne	r0, #39691	; 0x9b0b
    1054:	26050000 	strcs	r0, [r5], -r0
    1058:	00134900 	andseq	r4, r3, r0, lsl #18
    105c:	012e0600 	teqeq	lr, r0, lsl #12
    1060:	0e03193f 	mcreq	9, 0, r1, cr3, cr15, {1}
    1064:	0b3b0b3a 	bleq	ec3d54 <__bss_end__+0xeb738c>
    1068:	01111927 	tsteq	r1, r7, lsr #18
    106c:	18400612 	stmdane	r0, {r1, r4, r9, sl}^
    1070:	01194297 			; <UNDEFINED> instruction: 0x01194297
    1074:	07000013 	smladeq	r0, r3, r0, r0
    1078:	08030005 	stmdaeq	r3, {r0, r2}
    107c:	0b3b0b3a 	bleq	ec3d6c <__bss_end__+0xeb73a4>
    1080:	17021349 	strne	r1, [r2, -r9, asr #6]
    1084:	34080000 	strcc	r0, [r8], #-0
    1088:	490e0300 	stmdbmi	lr, {r8, r9}
    108c:	02193413 	andseq	r3, r9, #318767104	; 0x13000000
    1090:	09000018 	stmdbeq	r0, {r3, r4}
    1094:	00018289 	andeq	r8, r1, r9, lsl #5
    1098:	13310111 	teqne	r1, #1073741828	; 0x40000004
    109c:	890a0000 	stmdbhi	sl, {}	; <UNPREDICTABLE>
    10a0:	11010182 	smlabbne	r1, r2, r1, r0
    10a4:	01133101 	tsteq	r3, r1, lsl #2
    10a8:	0b000013 	bleq	10fc <__code_start__-0x6f04>
    10ac:	0001828a 	andeq	r8, r1, sl, lsl #5
    10b0:	42911802 	addsmi	r1, r1, #131072	; 0x20000
    10b4:	0c000018 	stceq	0, cr0, [r0], {24}
    10b8:	13490101 	movtne	r0, #37121	; 0x9101
    10bc:	00001301 	andeq	r1, r0, r1, lsl #6
    10c0:	4900210d 	stmdbmi	r0, {r0, r2, r3, r8, sp}
    10c4:	000b2f13 	andeq	r2, fp, r3, lsl pc
    10c8:	002e0e00 	eoreq	r0, lr, r0, lsl #28
    10cc:	0e03193f 	mcreq	9, 0, r1, cr3, cr15, {1}
    10d0:	0b3b0b3a 	bleq	ec3dc0 <__bss_end__+0xeb73f8>
    10d4:	193c1927 	ldmdbne	ip!, {r0, r1, r2, r5, r8, fp, ip}
    10d8:	2e0f0000 	cdpcs	0, 0, cr0, cr15, cr0, {0}
    10dc:	03193f01 	tsteq	r9, #1, 30
    10e0:	3b0b3a0e 	blcc	2cf920 <__bss_end__+0x2c2f58>
    10e4:	4919270b 	ldmdbmi	r9, {r0, r1, r3, r8, r9, sl, sp}
    10e8:	01193c13 	tsteq	r9, r3, lsl ip
    10ec:	10000013 	andne	r0, r0, r3, lsl r0
    10f0:	13490005 	movtne	r0, #36869	; 0x9005
    10f4:	18110000 	ldmdane	r1, {}	; <UNPREDICTABLE>
    10f8:	00000000 	andeq	r0, r0, r0
    10fc:	25011101 	strcs	r1, [r1, #-257]	; 0x101
    1100:	030b130e 	movweq	r1, #45838	; 0xb30e
    1104:	110e1b0e 	tstne	lr, lr, lsl #22
    1108:	10061201 	andne	r1, r6, r1, lsl #4
    110c:	02000017 	andeq	r0, r0, #23
    1110:	0b0b0024 	bleq	2c11a8 <__bss_end__+0x2b47e0>
    1114:	08030b3e 	stmdaeq	r3, {r1, r2, r3, r4, r5, r8, r9, fp}
    1118:	24030000 	strcs	r0, [r3], #-0
    111c:	3e0b0b00 	vmlacc.f64	d0, d11, d0
    1120:	000e030b 	andeq	r0, lr, fp, lsl #6
    1124:	000f0400 	andeq	r0, pc, r0, lsl #8
    1128:	13490b0b 	movtne	r0, #39691	; 0x9b0b
    112c:	26050000 	strcs	r0, [r5], -r0
    1130:	00134900 	andseq	r4, r3, r0, lsl #18
    1134:	012e0600 	teqeq	lr, r0, lsl #12
    1138:	0e03193f 	mcreq	9, 0, r1, cr3, cr15, {1}
    113c:	0b3b0b3a 	bleq	ec3e2c <__bss_end__+0xeb7464>
    1140:	01111927 	tsteq	r1, r7, lsr #18
    1144:	18400612 	stmdane	r0, {r1, r4, r9, sl}^
    1148:	01194297 			; <UNDEFINED> instruction: 0x01194297
    114c:	07000013 	smladeq	r0, r3, r0, r0
    1150:	08030005 	stmdaeq	r3, {r0, r2}
    1154:	0b3b0b3a 	bleq	ec3e44 <__bss_end__+0xeb747c>
    1158:	17021349 	strne	r1, [r2, -r9, asr #6]
    115c:	34080000 	strcc	r0, [r8], #-0
    1160:	490e0300 	stmdbmi	lr, {r8, r9}
    1164:	02193413 	andseq	r3, r9, #318767104	; 0x13000000
    1168:	09000018 	stmdbeq	r0, {r3, r4}
    116c:	00018289 	andeq	r8, r1, r9, lsl #5
    1170:	13310111 	teqne	r1, #1073741828	; 0x40000004
    1174:	890a0000 	stmdbhi	sl, {}	; <UNPREDICTABLE>
    1178:	11010182 	smlabbne	r1, r2, r1, r0
    117c:	01133101 	tsteq	r3, r1, lsl #2
    1180:	0b000013 	bleq	11d4 <__code_start__-0x6e2c>
    1184:	0001828a 	andeq	r8, r1, sl, lsl #5
    1188:	42911802 	addsmi	r1, r1, #131072	; 0x20000
    118c:	0c000018 	stceq	0, cr0, [r0], {24}
    1190:	13490101 	movtne	r0, #37121	; 0x9101
    1194:	00001301 	andeq	r1, r0, r1, lsl #6
    1198:	4900210d 	stmdbmi	r0, {r0, r2, r3, r8, sp}
    119c:	000b2f13 	andeq	r2, fp, r3, lsl pc
    11a0:	002e0e00 	eoreq	r0, lr, r0, lsl #28
    11a4:	0e03193f 	mcreq	9, 0, r1, cr3, cr15, {1}
    11a8:	0b3b0b3a 	bleq	ec3e98 <__bss_end__+0xeb74d0>
    11ac:	193c1927 	ldmdbne	ip!, {r0, r1, r2, r5, r8, fp, ip}
    11b0:	2e0f0000 	cdpcs	0, 0, cr0, cr15, cr0, {0}
    11b4:	03193f01 	tsteq	r9, #1, 30
    11b8:	3b0b3a0e 	blcc	2cf9f8 <__bss_end__+0x2c3030>
    11bc:	4919270b 	ldmdbmi	r9, {r0, r1, r3, r8, r9, sl, sp}
    11c0:	01193c13 	tsteq	r9, r3, lsl ip
    11c4:	10000013 	andne	r0, r0, r3, lsl r0
    11c8:	13490005 	movtne	r0, #36869	; 0x9005
    11cc:	18110000 	ldmdane	r1, {}	; <UNPREDICTABLE>
    11d0:	00000000 	andeq	r0, r0, r0
    11d4:	25011101 	strcs	r1, [r1, #-257]	; 0x101
    11d8:	030b130e 	movweq	r1, #45838	; 0xb30e
    11dc:	110e1b0e 	tstne	lr, lr, lsl #22
    11e0:	10061201 	andne	r1, r6, r1, lsl #4
    11e4:	02000017 	andeq	r0, r0, #23
    11e8:	0b0b0024 	bleq	2c1280 <__bss_end__+0x2b48b8>
    11ec:	08030b3e 	stmdaeq	r3, {r1, r2, r3, r4, r5, r8, r9, fp}
    11f0:	24030000 	strcs	r0, [r3], #-0
    11f4:	3e0b0b00 	vmlacc.f64	d0, d11, d0
    11f8:	000e030b 	andeq	r0, lr, fp, lsl #6
    11fc:	000f0400 	andeq	r0, pc, r0, lsl #8
    1200:	13490b0b 	movtne	r0, #39691	; 0x9b0b
    1204:	26050000 	strcs	r0, [r5], -r0
    1208:	00134900 	andseq	r4, r3, r0, lsl #18
    120c:	012e0600 	teqeq	lr, r0, lsl #12
    1210:	0e03193f 	mcreq	9, 0, r1, cr3, cr15, {1}
    1214:	0b3b0b3a 	bleq	ec3f04 <__bss_end__+0xeb753c>
    1218:	01111927 	tsteq	r1, r7, lsr #18
    121c:	18400612 	stmdane	r0, {r1, r4, r9, sl}^
    1220:	01194297 			; <UNDEFINED> instruction: 0x01194297
    1224:	07000013 	smladeq	r0, r3, r0, r0
    1228:	08030005 	stmdaeq	r3, {r0, r2}
    122c:	0b3b0b3a 	bleq	ec3f1c <__bss_end__+0xeb7554>
    1230:	17021349 	strne	r1, [r2, -r9, asr #6]
    1234:	34080000 	strcc	r0, [r8], #-0
    1238:	490e0300 	stmdbmi	lr, {r8, r9}
    123c:	02193413 	andseq	r3, r9, #318767104	; 0x13000000
    1240:	09000018 	stmdbeq	r0, {r3, r4}
    1244:	00018289 	andeq	r8, r1, r9, lsl #5
    1248:	13310111 	teqne	r1, #1073741828	; 0x40000004
    124c:	890a0000 	stmdbhi	sl, {}	; <UNPREDICTABLE>
    1250:	11010182 	smlabbne	r1, r2, r1, r0
    1254:	01133101 	tsteq	r3, r1, lsl #2
    1258:	0b000013 	bleq	12ac <__code_start__-0x6d54>
    125c:	0001828a 	andeq	r8, r1, sl, lsl #5
    1260:	42911802 	addsmi	r1, r1, #131072	; 0x20000
    1264:	0c000018 	stceq	0, cr0, [r0], {24}
    1268:	13490101 	movtne	r0, #37121	; 0x9101
    126c:	00001301 	andeq	r1, r0, r1, lsl #6
    1270:	4900210d 	stmdbmi	r0, {r0, r2, r3, r8, sp}
    1274:	000b2f13 	andeq	r2, fp, r3, lsl pc
    1278:	002e0e00 	eoreq	r0, lr, r0, lsl #28
    127c:	0e03193f 	mcreq	9, 0, r1, cr3, cr15, {1}
    1280:	0b3b0b3a 	bleq	ec3f70 <__bss_end__+0xeb75a8>
    1284:	193c1927 	ldmdbne	ip!, {r0, r1, r2, r5, r8, fp, ip}
    1288:	2e0f0000 	cdpcs	0, 0, cr0, cr15, cr0, {0}
    128c:	03193f01 	tsteq	r9, #1, 30
    1290:	3b0b3a0e 	blcc	2cfad0 <__bss_end__+0x2c3108>
    1294:	4919270b 	ldmdbmi	r9, {r0, r1, r3, r8, r9, sl, sp}
    1298:	01193c13 	tsteq	r9, r3, lsl ip
    129c:	10000013 	andne	r0, r0, r3, lsl r0
    12a0:	13490005 	movtne	r0, #36869	; 0x9005
    12a4:	18110000 	ldmdane	r1, {}	; <UNPREDICTABLE>
    12a8:	00000000 	andeq	r0, r0, r0
    12ac:	25011101 	strcs	r1, [r1, #-257]	; 0x101
    12b0:	030b130e 	movweq	r1, #45838	; 0xb30e
    12b4:	110e1b0e 	tstne	lr, lr, lsl #22
    12b8:	10061201 	andne	r1, r6, r1, lsl #4
    12bc:	02000017 	andeq	r0, r0, #23
    12c0:	0b0b0024 	bleq	2c1358 <__bss_end__+0x2b4990>
    12c4:	08030b3e 	stmdaeq	r3, {r1, r2, r3, r4, r5, r8, r9, fp}
    12c8:	24030000 	strcs	r0, [r3], #-0
    12cc:	3e0b0b00 	vmlacc.f64	d0, d11, d0
    12d0:	000e030b 	andeq	r0, lr, fp, lsl #6
    12d4:	000f0400 	andeq	r0, pc, r0, lsl #8
    12d8:	13490b0b 	movtne	r0, #39691	; 0x9b0b
    12dc:	26050000 	strcs	r0, [r5], -r0
    12e0:	00134900 	andseq	r4, r3, r0, lsl #18
    12e4:	012e0600 	teqeq	lr, r0, lsl #12
    12e8:	0e03193f 	mcreq	9, 0, r1, cr3, cr15, {1}
    12ec:	0b3b0b3a 	bleq	ec3fdc <__bss_end__+0xeb7614>
    12f0:	01111927 	tsteq	r1, r7, lsr #18
    12f4:	18400612 	stmdane	r0, {r1, r4, r9, sl}^
    12f8:	01194297 			; <UNDEFINED> instruction: 0x01194297
    12fc:	07000013 	smladeq	r0, r3, r0, r0
    1300:	08030005 	stmdaeq	r3, {r0, r2}
    1304:	0b3b0b3a 	bleq	ec3ff4 <__bss_end__+0xeb762c>
    1308:	17021349 	strne	r1, [r2, -r9, asr #6]
    130c:	34080000 	strcc	r0, [r8], #-0
    1310:	490e0300 	stmdbmi	lr, {r8, r9}
    1314:	02193413 	andseq	r3, r9, #318767104	; 0x13000000
    1318:	09000018 	stmdbeq	r0, {r3, r4}
    131c:	00018289 	andeq	r8, r1, r9, lsl #5
    1320:	13310111 	teqne	r1, #1073741828	; 0x40000004
    1324:	890a0000 	stmdbhi	sl, {}	; <UNPREDICTABLE>
    1328:	11010182 	smlabbne	r1, r2, r1, r0
    132c:	01133101 	tsteq	r3, r1, lsl #2
    1330:	0b000013 	bleq	1384 <__code_start__-0x6c7c>
    1334:	0001828a 	andeq	r8, r1, sl, lsl #5
    1338:	42911802 	addsmi	r1, r1, #131072	; 0x20000
    133c:	0c000018 	stceq	0, cr0, [r0], {24}
    1340:	13490101 	movtne	r0, #37121	; 0x9101
    1344:	00001301 	andeq	r1, r0, r1, lsl #6
    1348:	4900210d 	stmdbmi	r0, {r0, r2, r3, r8, sp}
    134c:	000b2f13 	andeq	r2, fp, r3, lsl pc
    1350:	002e0e00 	eoreq	r0, lr, r0, lsl #28
    1354:	0e03193f 	mcreq	9, 0, r1, cr3, cr15, {1}
    1358:	0b3b0b3a 	bleq	ec4048 <__bss_end__+0xeb7680>
    135c:	193c1927 	ldmdbne	ip!, {r0, r1, r2, r5, r8, fp, ip}
    1360:	2e0f0000 	cdpcs	0, 0, cr0, cr15, cr0, {0}
    1364:	03193f01 	tsteq	r9, #1, 30
    1368:	3b0b3a0e 	blcc	2cfba8 <__bss_end__+0x2c31e0>
    136c:	4919270b 	ldmdbmi	r9, {r0, r1, r3, r8, r9, sl, sp}
    1370:	01193c13 	tsteq	r9, r3, lsl ip
    1374:	10000013 	andne	r0, r0, r3, lsl r0
    1378:	13490005 	movtne	r0, #36869	; 0x9005
    137c:	18110000 	ldmdane	r1, {}	; <UNPREDICTABLE>
    1380:	00000000 	andeq	r0, r0, r0
    1384:	25011101 	strcs	r1, [r1, #-257]	; 0x101
    1388:	030b130e 	movweq	r1, #45838	; 0xb30e
    138c:	110e1b0e 	tstne	lr, lr, lsl #22
    1390:	10061201 	andne	r1, r6, r1, lsl #4
    1394:	02000017 	andeq	r0, r0, #23
    1398:	0b0b0024 	bleq	2c1430 <__bss_end__+0x2b4a68>
    139c:	08030b3e 	stmdaeq	r3, {r1, r2, r3, r4, r5, r8, r9, fp}
    13a0:	24030000 	strcs	r0, [r3], #-0
    13a4:	3e0b0b00 	vmlacc.f64	d0, d11, d0
    13a8:	000e030b 	andeq	r0, lr, fp, lsl #6
    13ac:	002e0400 	eoreq	r0, lr, r0, lsl #8
    13b0:	0e03193f 	mcreq	9, 0, r1, cr3, cr15, {1}
    13b4:	0b3b0b3a 	bleq	ec40a4 <__bss_end__+0xeb76dc>
    13b8:	01111927 	tsteq	r1, r7, lsr #18
    13bc:	18400612 	stmdane	r0, {r1, r4, r9, sl}^
    13c0:	00194297 	mulseq	r9, r7, r2
    13c4:	11010000 	mrsne	r0, (UNDEF: 1)
    13c8:	130e2501 	movwne	r2, #58625	; 0xe501
    13cc:	1b0e030b 	blne	382000 <__bss_end__+0x375638>
    13d0:	1201110e 	andne	r1, r1, #-2147483645	; 0x80000003
    13d4:	00171006 	andseq	r1, r7, r6
    13d8:	00240200 	eoreq	r0, r4, r0, lsl #4
    13dc:	0b3e0b0b 	bleq	f84010 <__bss_end__+0xf77648>
    13e0:	00000803 	andeq	r0, r0, r3, lsl #16
    13e4:	0b002403 	bleq	a3f8 <printk+0xc>
    13e8:	030b3e0b 	movweq	r3, #48651	; 0xbe0b
    13ec:	0400000e 	streq	r0, [r0], #-14
    13f0:	0b0b0104 	bleq	2c1808 <__bss_end__+0x2b4e40>
    13f4:	0b3b0b3a 	bleq	ec40e4 <__bss_end__+0xeb771c>
    13f8:	00001301 	andeq	r1, r0, r1, lsl #6
    13fc:	03002805 	movweq	r2, #2053	; 0x805
    1400:	000d1c0e 	andeq	r1, sp, lr, lsl #24
    1404:	012e0600 	teqeq	lr, r0, lsl #12
    1408:	0e03193f 	mcreq	9, 0, r1, cr3, cr15, {1}
    140c:	0b3b0b3a 	bleq	ec40fc <__bss_end__+0xeb7734>
    1410:	01111927 	tsteq	r1, r7, lsr #18
    1414:	18400612 	stmdane	r0, {r1, r4, r9, sl}^
    1418:	01194297 			; <UNDEFINED> instruction: 0x01194297
    141c:	07000013 	smladeq	r0, r3, r0, r0
    1420:	0e030034 	mcreq	0, 0, r0, cr3, cr4, {1}
    1424:	0b3b0b3a 	bleq	ec4114 <__bss_end__+0xeb774c>
    1428:	193f1349 	ldmdbne	pc!, {r0, r3, r6, r8, r9, ip}	; <UNPREDICTABLE>
    142c:	0000193c 	andeq	r1, r0, ip, lsr r9
    1430:	03003408 	movweq	r3, #1032	; 0x408
    1434:	3b0b3a08 	blcc	2cfc5c <__bss_end__+0x2c3294>
    1438:	1c13490b 	ldcne	9, cr4, [r3], {11}
    143c:	0900000b 	stmdbeq	r0, {r0, r1, r3}
    1440:	08030034 	stmdaeq	r3, {r2, r4, r5}
    1444:	0b3b0b3a 	bleq	ec4134 <__bss_end__+0xeb776c>
    1448:	00001349 	andeq	r1, r0, r9, asr #6
    144c:	0300340a 	movweq	r3, #1034	; 0x40a
    1450:	3b0b3a08 	blcc	2cfc78 <__bss_end__+0x2c32b0>
    1454:	0213490b 	andseq	r4, r3, #180224	; 0x2c000
    1458:	0b000018 	bleq	14c0 <__code_start__-0x6b40>
    145c:	0111010b 	tsteq	r1, fp, lsl #2
    1460:	13010612 	movwne	r0, #5650	; 0x1612
    1464:	340c0000 	strcc	r0, [ip], #-0
    1468:	3a080300 	bcc	202070 <__bss_end__+0x1f56a8>
    146c:	490b3b0b 	stmdbmi	fp, {r0, r1, r3, r8, r9, fp, ip, sp}
    1470:	00170213 	andseq	r0, r7, r3, lsl r2
    1474:	82890d00 	addhi	r0, r9, #0, 26
    1478:	01110001 	tsteq	r1, r1
    147c:	00001331 	andeq	r1, r0, r1, lsr r3
    1480:	0182890e 	orreq	r8, r2, lr, lsl #18
    1484:	31011101 	tstcc	r1, r1, lsl #2
    1488:	00130113 	andseq	r0, r3, r3, lsl r1
    148c:	828a0f00 	addhi	r0, sl, #0, 30
    1490:	18020001 	stmdane	r2, {r0}
    1494:	00184291 	mulseq	r8, r1, r2
    1498:	000f1000 	andeq	r1, pc, r0
    149c:	13490b0b 	movtne	r0, #39691	; 0x9b0b
    14a0:	2e110000 	cdpcs	0, 1, cr0, cr1, cr0, {0}
    14a4:	03193f00 	tsteq	r9, #0, 30
    14a8:	3b0b3a0e 	blcc	2cfce8 <__bss_end__+0x2c3320>
    14ac:	3c19270b 	ldccc	7, cr2, [r9], {11}
    14b0:	12000019 	andne	r0, r0, #25
    14b4:	193f012e 	ldmdbne	pc!, {r1, r2, r3, r5, r8}	; <UNPREDICTABLE>
    14b8:	0b3a0e03 	bleq	e84ccc <__bss_end__+0xe78304>
    14bc:	19270b3b 	stmdbne	r7!, {r0, r1, r3, r4, r5, r8, r9, fp}
    14c0:	0000193c 	andeq	r1, r0, ip, lsr r9
    14c4:	49000513 	stmdbmi	r0, {r0, r1, r4, r8, sl}
    14c8:	00000013 	andeq	r0, r0, r3, lsl r0
    14cc:	25011101 	strcs	r1, [r1, #-257]	; 0x101
    14d0:	030b130e 	movweq	r1, #45838	; 0xb30e
    14d4:	550e1b0e 	strpl	r1, [lr, #-2830]	; 0xb0e
    14d8:	10011117 	andne	r1, r1, r7, lsl r1
    14dc:	02000017 	andeq	r0, r0, #23
    14e0:	0b0b0024 	bleq	2c1578 <__bss_end__+0x2b4bb0>
    14e4:	08030b3e 	stmdaeq	r3, {r1, r2, r3, r4, r5, r8, r9, fp}
    14e8:	24030000 	strcs	r0, [r3], #-0
    14ec:	3e0b0b00 	vmlacc.f64	d0, d11, d0
    14f0:	000e030b 	andeq	r0, lr, fp, lsl #6
    14f4:	012e0400 	teqeq	lr, r0, lsl #8
    14f8:	0e03193f 	mcreq	9, 0, r1, cr3, cr15, {1}
    14fc:	0b3b0b3a 	bleq	ec41ec <__bss_end__+0xeb7824>
    1500:	13491927 	movtne	r1, #39207	; 0x9927
    1504:	06120111 			; <UNDEFINED> instruction: 0x06120111
    1508:	42971840 	addsmi	r1, r7, #64, 16	; 0x400000
    150c:	00130119 	andseq	r0, r3, r9, lsl r1
    1510:	00340500 	eorseq	r0, r4, r0, lsl #10
    1514:	0b3a0e03 	bleq	e84d28 <__bss_end__+0xe78360>
    1518:	13490b3b 	movtne	r0, #39739	; 0x9b3b
    151c:	00001702 	andeq	r1, r0, r2, lsl #14
    1520:	3f012e06 	svccc	0x00012e06
    1524:	3a0e0319 	bcc	382190 <__bss_end__+0x3757c8>
    1528:	270b3b0b 	strcs	r3, [fp, -fp, lsl #22]
    152c:	12011119 	andne	r1, r1, #1073741830	; 0x40000006
    1530:	97184006 	ldrls	r4, [r8, -r6]
    1534:	13011942 	movwne	r1, #6466	; 0x1942
    1538:	34070000 	strcc	r0, [r7], #-0
    153c:	3a0e0300 	bcc	382144 <__bss_end__+0x37577c>
    1540:	490b3b0b 	stmdbmi	fp, {r0, r1, r3, r8, r9, fp, ip, sp}
    1544:	00061c13 	andeq	r1, r6, r3, lsl ip
    1548:	00340800 	eorseq	r0, r4, r0, lsl #16
    154c:	0b3a0e03 	bleq	e84d60 <__bss_end__+0xe78398>
    1550:	13490b3b 	movtne	r0, #39739	; 0x9b3b
    1554:	00000b1c 	andeq	r0, r0, ip, lsl fp
    1558:	01828909 	orreq	r8, r2, r9, lsl #18
    155c:	31011100 	mrscc	r1, (UNDEF: 17)
    1560:	0a000013 	beq	15b4 <__code_start__-0x6a4c>
    1564:	01018289 	smlabbeq	r1, r9, r2, r8
    1568:	13310111 	teqne	r1, #1073741828	; 0x40000004
    156c:	00001301 	andeq	r1, r0, r1, lsl #6
    1570:	01828a0b 	orreq	r8, r2, fp, lsl #20
    1574:	91180200 	tstls	r8, r0, lsl #4
    1578:	00001842 	andeq	r1, r0, r2, asr #16
    157c:	0182890c 	orreq	r8, r2, ip, lsl #18
    1580:	31011101 	tstcc	r1, r1, lsl #2
    1584:	0d000013 	stceq	0, cr0, [r0, #-76]	; 0xffffffb4
    1588:	13490026 	movtne	r0, #36902	; 0x9026
    158c:	2e0e0000 	cdpcs	0, 0, cr0, cr14, cr0, {0}
    1590:	03193f01 	tsteq	r9, #1, 30
    1594:	3b0b3a0e 	blcc	2cfdd4 <__bss_end__+0x2c340c>
    1598:	3c19270b 	ldccc	7, cr2, [r9], {11}
    159c:	00130119 	andseq	r0, r3, r9, lsl r1
    15a0:	00050f00 	andeq	r0, r5, r0, lsl #30
    15a4:	00001349 	andeq	r1, r0, r9, asr #6
    15a8:	3f012e10 	svccc	0x00012e10
    15ac:	3a0e0319 	bcc	382218 <__bss_end__+0x375850>
    15b0:	270b3b0b 	strcs	r3, [fp, -fp, lsl #22]
    15b4:	00193c19 	andseq	r3, r9, r9, lsl ip
    15b8:	11010000 	mrsne	r0, (UNDEF: 1)
    15bc:	130e2501 	movwne	r2, #58625	; 0xe501
    15c0:	1b0e030b 	blne	3821f4 <__bss_end__+0x37582c>
    15c4:	1201110e 	andne	r1, r1, #-2147483645	; 0x80000003
    15c8:	00171006 	andseq	r1, r7, r6
    15cc:	00240200 	eoreq	r0, r4, r0, lsl #4
    15d0:	0b3e0b0b 	bleq	f84204 <__bss_end__+0xf7783c>
    15d4:	00000803 	andeq	r0, r0, r3, lsl #16
    15d8:	0b002403 	bleq	a5ec <emit+0xb8>
    15dc:	030b3e0b 	movweq	r3, #48651	; 0xbe0b
    15e0:	0400000e 	streq	r0, [r0], #-14
    15e4:	193f012e 	ldmdbne	pc!, {r1, r2, r3, r5, r8}	; <UNPREDICTABLE>
    15e8:	0b3a0e03 	bleq	e84dfc <__bss_end__+0xe78434>
    15ec:	19270b3b 	stmdbne	r7!, {r0, r1, r3, r4, r5, r8, r9, fp}
    15f0:	06120111 			; <UNDEFINED> instruction: 0x06120111
    15f4:	42971840 	addsmi	r1, r7, #64, 16	; 0x400000
    15f8:	00130119 	andseq	r0, r3, r9, lsl r1
    15fc:	00050500 	andeq	r0, r5, r0, lsl #10
    1600:	0b3a0e03 	bleq	e84e14 <__bss_end__+0xe7844c>
    1604:	13490b3b 	movtne	r0, #39739	; 0x9b3b
    1608:	00001702 	andeq	r1, r0, r2, lsl #14
    160c:	3f012e06 	svccc	0x00012e06
    1610:	3a0e0319 	bcc	38227c <__bss_end__+0x3758b4>
    1614:	270b3b0b 	strcs	r3, [fp, -fp, lsl #22]
    1618:	11134919 	tstne	r3, r9, lsl r9
    161c:	40061201 	andmi	r1, r6, r1, lsl #4
    1620:	19429718 	stmdbne	r2, {r3, r4, r8, r9, sl, ip, pc}^
    1624:	00001301 	andeq	r1, r0, r1, lsl #6
    1628:	01828907 	orreq	r8, r2, r7, lsl #18
    162c:	31011101 	tstcc	r1, r1, lsl #2
    1630:	08000013 	stmdaeq	r0, {r0, r1, r4}
    1634:	0001828a 	andeq	r8, r1, sl, lsl #5
    1638:	42911802 	addsmi	r1, r1, #131072	; 0x20000
    163c:	09000018 	stmdbeq	r0, {r3, r4}
    1640:	08030034 	stmdaeq	r3, {r2, r4, r5}
    1644:	0b3b0b3a 	bleq	ec4334 <__bss_end__+0xeb796c>
    1648:	17021349 	strne	r1, [r2, -r9, asr #6]
    164c:	890a0000 	stmdbhi	sl, {}	; <UNPREDICTABLE>
    1650:	11000182 	smlabbne	r0, r2, r1, r0
    1654:	00133101 	andseq	r3, r3, r1, lsl #2
    1658:	00050b00 	andeq	r0, r5, r0, lsl #22
    165c:	0b3a0803 	bleq	e83670 <__bss_end__+0xe76ca8>
    1660:	13490b3b 	movtne	r0, #39739	; 0x9b3b
    1664:	00001702 	andeq	r1, r0, r2, lsl #14
    1668:	0300340c 	movweq	r3, #1036	; 0x40c
    166c:	3b0b3a08 	blcc	2cfe94 <__bss_end__+0x2c34cc>
    1670:	0213490b 	andseq	r4, r3, #180224	; 0x2c000
    1674:	0d000018 	stceq	0, cr0, [r0, #-96]	; 0xffffffa0
    1678:	0111010b 	tsteq	r1, fp, lsl #2
    167c:	13010612 	movwne	r0, #5650	; 0x1612
    1680:	2e0e0000 	cdpcs	0, 0, cr0, cr14, cr0, {0}
    1684:	03193f01 	tsteq	r9, #1, 30
    1688:	3b0b3a0e 	blcc	2cfec8 <__bss_end__+0x2c3500>
    168c:	4919270b 	ldmdbmi	r9, {r0, r1, r3, r8, r9, sl, sp}
    1690:	01193c13 	tsteq	r9, r3, lsl ip
    1694:	0f000013 	svceq	0x00000013
    1698:	13490005 	movtne	r0, #36869	; 0x9005
    169c:	2e100000 	cdpcs	0, 1, cr0, cr0, cr0, {0}
    16a0:	03193f00 	tsteq	r9, #0, 30
    16a4:	3b0b3a0e 	blcc	2cfee4 <__bss_end__+0x2c351c>
    16a8:	3c19270b 	ldccc	7, cr2, [r9], {11}
    16ac:	00000019 	andeq	r0, r0, r9, lsl r0
    16b0:	25011101 	strcs	r1, [r1, #-257]	; 0x101
    16b4:	030b130e 	movweq	r1, #45838	; 0xb30e
    16b8:	110e1b0e 	tstne	lr, lr, lsl #22
    16bc:	10061201 	andne	r1, r6, r1, lsl #4
    16c0:	02000017 	andeq	r0, r0, #23
    16c4:	0b0b0024 	bleq	2c175c <__bss_end__+0x2b4d94>
    16c8:	08030b3e 	stmdaeq	r3, {r1, r2, r3, r4, r5, r8, r9, fp}
    16cc:	24030000 	strcs	r0, [r3], #-0
    16d0:	3e0b0b00 	vmlacc.f64	d0, d11, d0
    16d4:	000e030b 	andeq	r0, lr, fp, lsl #6
    16d8:	00350400 	eorseq	r0, r5, r0, lsl #8
    16dc:	00001349 	andeq	r1, r0, r9, asr #6
    16e0:	03001605 	movweq	r1, #1541	; 0x605
    16e4:	3b0b3a0e 	blcc	2cff24 <__bss_end__+0x2c355c>
    16e8:	0013490b 	andseq	r4, r3, fp, lsl #18
    16ec:	00160600 	andseq	r0, r6, r0, lsl #12
    16f0:	0b3a0e03 	bleq	e84f04 <__bss_end__+0xe7853c>
    16f4:	1349053b 	movtne	r0, #38203	; 0x953b
    16f8:	17070000 	strne	r0, [r7, -r0]
    16fc:	3a0b0b01 	bcc	2c4308 <__bss_end__+0x2b7940>
    1700:	010b3b0b 	tsteq	fp, fp, lsl #22
    1704:	08000013 	stmdaeq	r0, {r0, r1, r4}
    1708:	0e03000d 	cdpeq	0, 0, cr0, cr3, cr13, {0}
    170c:	0b3b0b3a 	bleq	ec43fc <__bss_end__+0xeb7a34>
    1710:	00001349 	andeq	r1, r0, r9, asr #6
    1714:	49010109 	stmdbmi	r1, {r0, r3, r8}
    1718:	00130113 	andseq	r0, r3, r3, lsl r1
    171c:	00210a00 	eoreq	r0, r1, r0, lsl #20
    1720:	0b2f1349 	bleq	bc644c <__bss_end__+0xbb9a84>
    1724:	130b0000 	movwne	r0, #45056	; 0xb000
    1728:	3a0b0b01 	bcc	2c4334 <__bss_end__+0x2b796c>
    172c:	010b3b0b 	tsteq	fp, fp, lsl #22
    1730:	0c000013 	stceq	0, cr0, [r0], {19}
    1734:	0e03000d 	cdpeq	0, 0, cr0, cr3, cr13, {0}
    1738:	0b3b0b3a 	bleq	ec4428 <__bss_end__+0xeb7a60>
    173c:	0b381349 	bleq	e06468 <__bss_end__+0xdf9aa0>
    1740:	0f0d0000 	svceq	0x000d0000
    1744:	000b0b00 	andeq	r0, fp, r0, lsl #22
    1748:	000f0e00 	andeq	r0, pc, r0, lsl #28
    174c:	13490b0b 	movtne	r0, #39691	; 0x9b0b
    1750:	260f0000 	strcs	r0, [pc], -r0
    1754:	00134900 	andseq	r4, r3, r0, lsl #18
    1758:	01131000 	tsteq	r3, r0
    175c:	0b0b0e03 	bleq	2c4f70 <__bss_end__+0x2b85a8>
    1760:	0b3b0b3a 	bleq	ec4450 <__bss_end__+0xeb7a88>
    1764:	00001301 	andeq	r1, r0, r1, lsl #6
    1768:	03000d11 	movweq	r0, #3345	; 0xd11
    176c:	3b0b3a08 	blcc	2cff94 <__bss_end__+0x2c35cc>
    1770:	3813490b 	ldmdacc	r3, {r0, r1, r3, r8, fp, lr}
    1774:	1200000b 	andne	r0, r0, #11
    1778:	0e030113 	mcreq	1, 0, r0, cr3, cr3, {0}
    177c:	0b3a050b 	bleq	e82bb0 <__bss_end__+0xe761e8>
    1780:	13010b3b 	movwne	r0, #6971	; 0x1b3b
    1784:	0d130000 	ldceq	0, cr0, [r3, #-0]
    1788:	3a0e0300 	bcc	382390 <__bss_end__+0x3759c8>
    178c:	490b3b0b 	stmdbmi	fp, {r0, r1, r3, r8, r9, fp, ip, sp}
    1790:	00053813 	andeq	r3, r5, r3, lsl r8
    1794:	00151400 	andseq	r1, r5, r0, lsl #8
    1798:	00001927 	andeq	r1, r0, r7, lsr #18
    179c:	27011515 	smladcs	r1, r5, r5, r1
    17a0:	01134919 	tsteq	r3, r9, lsl r9
    17a4:	16000013 			; <UNDEFINED> instruction: 0x16000013
    17a8:	13490005 	movtne	r0, #36869	; 0x9005
    17ac:	13170000 	tstne	r7, #0
    17b0:	0b0e0301 	bleq	3823bc <__bss_end__+0x3759f4>
    17b4:	3b0b3a05 	blcc	2cffd0 <__bss_end__+0x2c3608>
    17b8:	00130105 	andseq	r0, r3, r5, lsl #2
    17bc:	000d1800 	andeq	r1, sp, r0, lsl #16
    17c0:	0b3a0e03 	bleq	e84fd4 <__bss_end__+0xe7860c>
    17c4:	1349053b 	movtne	r0, #38203	; 0x953b
    17c8:	00000b38 	andeq	r0, r0, r8, lsr fp
    17cc:	03000d19 	movweq	r0, #3353	; 0xd19
    17d0:	3b0b3a0e 	blcc	2d0010 <__bss_end__+0x2c3648>
    17d4:	38134905 	ldmdacc	r3, {r0, r2, r8, fp, lr}
    17d8:	1a000005 	bne	17f4 <__code_start__-0x680c>
    17dc:	0e030113 	mcreq	1, 0, r0, cr3, cr3, {0}
    17e0:	0b3a0b0b 	bleq	e84414 <__bss_end__+0xe77a4c>
    17e4:	1301053b 	movwne	r0, #5435	; 0x153b
    17e8:	131b0000 	tstne	fp, #0
    17ec:	3a0b0b01 	bcc	2c43f8 <__bss_end__+0x2b7a30>
    17f0:	01053b0b 	tsteq	r5, fp, lsl #22
    17f4:	1c000013 	stcne	0, cr0, [r0], {19}
    17f8:	0b0b0117 	bleq	2c1c5c <__bss_end__+0x2b5294>
    17fc:	053b0b3a 	ldreq	r0, [fp, #-2874]!	; 0xb3a
    1800:	00001301 	andeq	r1, r0, r1, lsl #6
    1804:	03000d1d 	movweq	r0, #3357	; 0xd1d
    1808:	3b0b3a0e 	blcc	2d0048 <__bss_end__+0x2c3680>
    180c:	00134905 	andseq	r4, r3, r5, lsl #18
    1810:	01151e00 	tsteq	r5, r0, lsl #28
    1814:	13011927 	movwne	r1, #6439	; 0x1927
    1818:	341f0000 	ldrcc	r0, [pc], #-0	; 1820 <__code_start__-0x67e0>
    181c:	3a0e0300 	bcc	382424 <__bss_end__+0x375a5c>
    1820:	49053b0b 	stmdbmi	r5, {r0, r1, r3, r8, r9, fp, ip, sp}
    1824:	3c193f13 	ldccc	15, cr3, [r9], {19}
    1828:	20000019 	andcs	r0, r0, r9, lsl r0
    182c:	0e030034 	mcreq	0, 0, r0, cr3, cr4, {1}
    1830:	0b3b0b3a 	bleq	ec4520 <__bss_end__+0xeb7b58>
    1834:	193f1349 	ldmdbne	pc!, {r0, r3, r6, r8, r9, ip}	; <UNPREDICTABLE>
    1838:	0000193c 	andeq	r1, r0, ip, lsr r9
    183c:	0b010421 	bleq	428c8 <__bss_end__+0x35f00>
    1840:	3a13490b 	bcc	4d3c74 <__bss_end__+0x4c72ac>
    1844:	010b3b0b 	tsteq	fp, fp, lsl #22
    1848:	22000013 	andcs	r0, r0, #19
    184c:	0e030028 	cdpeq	0, 0, cr0, cr3, cr8, {1}
    1850:	00000b1c 	andeq	r0, r0, ip, lsl fp
    1854:	03003423 	movweq	r3, #1059	; 0x423
    1858:	3b0b3a0e 	blcc	2d0098 <__bss_end__+0x2c36d0>
    185c:	1c13490b 	ldcne	9, cr4, [r3], {11}
    1860:	24000006 	strcs	r0, [r0], #-6
    1864:	193f012e 	ldmdbne	pc!, {r1, r2, r3, r5, r8}	; <UNPREDICTABLE>
    1868:	0b3a0e03 	bleq	e8507c <__bss_end__+0xe786b4>
    186c:	19270b3b 	stmdbne	r7!, {r0, r1, r3, r4, r5, r8, r9, fp}
    1870:	01111349 	tsteq	r1, r9, asr #6
    1874:	18400612 	stmdane	r0, {r1, r4, r9, sl}^
    1878:	01194297 			; <UNDEFINED> instruction: 0x01194297
    187c:	25000013 	strcs	r0, [r0, #-19]
    1880:	00018289 	andeq	r8, r1, r9, lsl #5
    1884:	13310111 	teqne	r1, #1073741828	; 0x40000004
    1888:	2e260000 	cdpcs	0, 2, cr0, cr6, cr0, {0}
    188c:	03193f01 	tsteq	r9, #1, 30
    1890:	3b0b3a0e 	blcc	2d00d0 <__bss_end__+0x2c3708>
    1894:	1119270b 	tstne	r9, fp, lsl #14
    1898:	40061201 	andmi	r1, r6, r1, lsl #4
    189c:	19429718 	stmdbne	r2, {r3, r4, r8, r9, sl, ip, pc}^
    18a0:	00001301 	andeq	r1, r0, r1, lsl #6
    18a4:	03000527 	movweq	r0, #1319	; 0x527
    18a8:	3b0b3a08 	blcc	2d00d0 <__bss_end__+0x2c3708>
    18ac:	0213490b 	andseq	r4, r3, #180224	; 0x2c000
    18b0:	28000017 	stmdacs	r0, {r0, r1, r2, r4}
    18b4:	01018289 	smlabbeq	r1, r9, r2, r8
    18b8:	13310111 	teqne	r1, #1073741828	; 0x40000004
    18bc:	00001301 	andeq	r1, r0, r1, lsl #6
    18c0:	01828a29 	orreq	r8, r2, r9, lsr #20
    18c4:	91180200 	tstls	r8, r0, lsl #4
    18c8:	00001842 	andeq	r1, r0, r2, asr #16
    18cc:	0300342a 	movweq	r3, #1066	; 0x42a
    18d0:	3b0b3a08 	blcc	2d00f8 <__bss_end__+0x2c3730>
    18d4:	0213490b 	andseq	r4, r3, #180224	; 0x2c000
    18d8:	2b000018 	blcs	1940 <__code_start__-0x66c0>
    18dc:	01018289 	smlabbeq	r1, r9, r2, r8
    18e0:	13310111 	teqne	r1, #1073741828	; 0x40000004
    18e4:	2e2c0000 	cdpcs	0, 2, cr0, cr12, cr0, {0}
    18e8:	3a0e0301 	bcc	3824f4 <__bss_end__+0x375b2c>
    18ec:	270b3b0b 	strcs	r3, [fp, -fp, lsl #22]
    18f0:	12011119 	andne	r1, r1, #1073741830	; 0x40000006
    18f4:	97184006 	ldrls	r4, [r8, -r6]
    18f8:	13011942 	movwne	r1, #6466	; 0x1942
    18fc:	052d0000 	streq	r0, [sp, #-0]!
    1900:	3a0e0300 	bcc	382508 <__bss_end__+0x375b40>
    1904:	490b3b0b 	stmdbmi	fp, {r0, r1, r3, r8, r9, fp, ip, sp}
    1908:	00170213 	andseq	r0, r7, r3, lsl r2
    190c:	00352e00 	eorseq	r2, r5, r0, lsl #28
    1910:	2e2f0000 	cdpcs	0, 2, cr0, cr15, cr0, {0}
    1914:	3c193f00 	ldccc	15, cr3, [r9], {-0}
    1918:	030e6e19 	movweq	r6, #60953	; 0xee19
    191c:	3b0b3a0e 	blcc	2d015c <__bss_end__+0x2c3794>
    1920:	0000000b 	andeq	r0, r0, fp
    1924:	25011101 	strcs	r1, [r1, #-257]	; 0x101
    1928:	030b130e 	movweq	r1, #45838	; 0xb30e
    192c:	110e1b0e 	tstne	lr, lr, lsl #22
    1930:	10061201 	andne	r1, r6, r1, lsl #4
    1934:	02000017 	andeq	r0, r0, #23
    1938:	0b0b0024 	bleq	2c19d0 <__bss_end__+0x2b5008>
    193c:	08030b3e 	stmdaeq	r3, {r1, r2, r3, r4, r5, r8, r9, fp}
    1940:	24030000 	strcs	r0, [r3], #-0
    1944:	3e0b0b00 	vmlacc.f64	d0, d11, d0
    1948:	000e030b 	andeq	r0, lr, fp, lsl #6
    194c:	00260400 	eoreq	r0, r6, r0, lsl #8
    1950:	00001349 	andeq	r1, r0, r9, asr #6
    1954:	03001605 	movweq	r1, #1541	; 0x605
    1958:	3b0b3a0e 	blcc	2d0198 <__bss_end__+0x2c37d0>
    195c:	0013490b 	andseq	r4, r3, fp, lsl #18
    1960:	00160600 	andseq	r0, r6, r0, lsl #12
    1964:	0b3a0e03 	bleq	e85178 <__bss_end__+0xe787b0>
    1968:	1349053b 	movtne	r0, #38203	; 0x953b
    196c:	17070000 	strne	r0, [r7, -r0]
    1970:	3a0b0b01 	bcc	2c457c <__bss_end__+0x2b7bb4>
    1974:	010b3b0b 	tsteq	fp, fp, lsl #22
    1978:	08000013 	stmdaeq	r0, {r0, r1, r4}
    197c:	0e03000d 	cdpeq	0, 0, cr0, cr3, cr13, {0}
    1980:	0b3b0b3a 	bleq	ec4670 <__bss_end__+0xeb7ca8>
    1984:	00001349 	andeq	r1, r0, r9, asr #6
    1988:	49010109 	stmdbmi	r1, {r0, r3, r8}
    198c:	00130113 	andseq	r0, r3, r3, lsl r1
    1990:	00210a00 	eoreq	r0, r1, r0, lsl #20
    1994:	0b2f1349 	bleq	bc66c0 <__bss_end__+0xbb9cf8>
    1998:	130b0000 	movwne	r0, #45056	; 0xb000
    199c:	3a0b0b01 	bcc	2c45a8 <__bss_end__+0x2b7be0>
    19a0:	010b3b0b 	tsteq	fp, fp, lsl #22
    19a4:	0c000013 	stceq	0, cr0, [r0], {19}
    19a8:	0e03000d 	cdpeq	0, 0, cr0, cr3, cr13, {0}
    19ac:	0b3b0b3a 	bleq	ec469c <__bss_end__+0xeb7cd4>
    19b0:	0b381349 	bleq	e066dc <__bss_end__+0xdf9d14>
    19b4:	0f0d0000 	svceq	0x000d0000
    19b8:	000b0b00 	andeq	r0, fp, r0, lsl #22
    19bc:	000f0e00 	andeq	r0, pc, r0, lsl #28
    19c0:	13490b0b 	movtne	r0, #39691	; 0x9b0b
    19c4:	130f0000 	movwne	r0, #61440	; 0xf000
    19c8:	0b0e0301 	bleq	3825d4 <__bss_end__+0x375c0c>
    19cc:	3b0b3a0b 	blcc	2d0200 <__bss_end__+0x2c3838>
    19d0:	0013010b 	andseq	r0, r3, fp, lsl #2
    19d4:	000d1000 	andeq	r1, sp, r0
    19d8:	0b3a0803 	bleq	e839ec <__bss_end__+0xe77024>
    19dc:	13490b3b 	movtne	r0, #39739	; 0x9b3b
    19e0:	00000b38 	andeq	r0, r0, r8, lsr fp
    19e4:	03011311 	movweq	r1, #4881	; 0x1311
    19e8:	3a050b0e 	bcc	144628 <__bss_end__+0x137c60>
    19ec:	010b3b0b 	tsteq	fp, fp, lsl #22
    19f0:	12000013 	andne	r0, r0, #19
    19f4:	0e03000d 	cdpeq	0, 0, cr0, cr3, cr13, {0}
    19f8:	0b3b0b3a 	bleq	ec46e8 <__bss_end__+0xeb7d20>
    19fc:	05381349 	ldreq	r1, [r8, #-841]!	; 0x349
    1a00:	15130000 	ldrne	r0, [r3, #-0]
    1a04:	00192700 	andseq	r2, r9, r0, lsl #14
    1a08:	01151400 	tsteq	r5, r0, lsl #8
    1a0c:	13491927 	movtne	r1, #39207	; 0x9927
    1a10:	00001301 	andeq	r1, r0, r1, lsl #6
    1a14:	49000515 	stmdbmi	r0, {r0, r2, r4, r8, sl}
    1a18:	16000013 			; <UNDEFINED> instruction: 0x16000013
    1a1c:	0e030113 	mcreq	1, 0, r0, cr3, cr3, {0}
    1a20:	0b3a050b 	bleq	e82e54 <__bss_end__+0xe7648c>
    1a24:	1301053b 	movwne	r0, #5435	; 0x153b
    1a28:	0d170000 	ldceq	0, cr0, [r7, #-0]
    1a2c:	3a0e0300 	bcc	382634 <__bss_end__+0x375c6c>
    1a30:	49053b0b 	stmdbmi	r5, {r0, r1, r3, r8, r9, fp, ip, sp}
    1a34:	000b3813 	andeq	r3, fp, r3, lsl r8
    1a38:	000d1800 	andeq	r1, sp, r0, lsl #16
    1a3c:	0b3a0e03 	bleq	e85250 <__bss_end__+0xe78888>
    1a40:	1349053b 	movtne	r0, #38203	; 0x953b
    1a44:	00000538 	andeq	r0, r0, r8, lsr r5
    1a48:	03011319 	movweq	r1, #4889	; 0x1319
    1a4c:	3a0b0b0e 	bcc	2c468c <__bss_end__+0x2b7cc4>
    1a50:	01053b0b 	tsteq	r5, fp, lsl #22
    1a54:	1a000013 	bne	1aa8 <__code_start__-0x6558>
    1a58:	0b0b0113 	bleq	2c1eac <__bss_end__+0x2b54e4>
    1a5c:	053b0b3a 	ldreq	r0, [fp, #-2874]!	; 0xb3a
    1a60:	00001301 	andeq	r1, r0, r1, lsl #6
    1a64:	0b01171b 	bleq	476d8 <__bss_end__+0x3ad10>
    1a68:	3b0b3a0b 	blcc	2d029c <__bss_end__+0x2c38d4>
    1a6c:	00130105 	andseq	r0, r3, r5, lsl #2
    1a70:	000d1c00 	andeq	r1, sp, r0, lsl #24
    1a74:	0b3a0e03 	bleq	e85288 <__bss_end__+0xe788c0>
    1a78:	1349053b 	movtne	r0, #38203	; 0x953b
    1a7c:	151d0000 	ldrne	r0, [sp, #-0]
    1a80:	01192701 	tsteq	r9, r1, lsl #14
    1a84:	1e000013 	mcrne	0, 0, r0, cr0, cr3, {0}
    1a88:	0e030034 	mcreq	0, 0, r0, cr3, cr4, {1}
    1a8c:	053b0b3a 	ldreq	r0, [fp, #-2874]!	; 0xb3a
    1a90:	193f1349 	ldmdbne	pc!, {r0, r3, r6, r8, r9, ip}	; <UNPREDICTABLE>
    1a94:	0000193c 	andeq	r1, r0, ip, lsr r9
    1a98:	0300341f 	movweq	r3, #1055	; 0x41f
    1a9c:	3b0b3a0e 	blcc	2d02dc <__bss_end__+0x2c3914>
    1aa0:	3f13490b 	svccc	0x0013490b
    1aa4:	00193c19 	andseq	r3, r9, r9, lsl ip
    1aa8:	01042000 	mrseq	r2, (UNDEF: 4)
    1aac:	13490b0b 	movtne	r0, #39691	; 0x9b0b
    1ab0:	0b3b0b3a 	bleq	ec47a0 <__bss_end__+0xeb7dd8>
    1ab4:	00001301 	andeq	r1, r0, r1, lsl #6
    1ab8:	03002821 	movweq	r2, #2081	; 0x821
    1abc:	000b1c0e 	andeq	r1, fp, lr, lsl #24
    1ac0:	00342200 	eorseq	r2, r4, r0, lsl #4
    1ac4:	0b3a0e03 	bleq	e852d8 <__bss_end__+0xe78910>
    1ac8:	13490b3b 	movtne	r0, #39739	; 0x9b3b
    1acc:	0000061c 	andeq	r0, r0, ip, lsl r6
    1ad0:	3f012e23 	svccc	0x00012e23
    1ad4:	3a0e0319 	bcc	382740 <__bss_end__+0x375d78>
    1ad8:	270b3b0b 	strcs	r3, [fp, -fp, lsl #22]
    1adc:	11134919 	tstne	r3, r9, lsl r9
    1ae0:	40061201 	andmi	r1, r6, r1, lsl #4
    1ae4:	19429718 	stmdbne	r2, {r3, r4, r8, r9, sl, ip, pc}^
    1ae8:	00001301 	andeq	r1, r0, r1, lsl #6
    1aec:	03000524 	movweq	r0, #1316	; 0x524
    1af0:	3b0b3a08 	blcc	2d0318 <__bss_end__+0x2c3950>
    1af4:	0213490b 	andseq	r4, r3, #180224	; 0x2c000
    1af8:	25000017 	strcs	r0, [r0, #-23]
    1afc:	0e030034 	mcreq	0, 0, r0, cr3, cr4, {1}
    1b00:	0b3b0b3a 	bleq	ec47f0 <__bss_end__+0xeb7e28>
    1b04:	17021349 	strne	r1, [r2, -r9, asr #6]
    1b08:	34260000 	strtcc	r0, [r6], #-0
    1b0c:	3a080300 	bcc	202714 <__bss_end__+0x1f5d4c>
    1b10:	490b3b0b 	stmdbmi	fp, {r0, r1, r3, r8, r9, fp, ip, sp}
    1b14:	00170213 	andseq	r0, r7, r3, lsl r2
    1b18:	82892700 	addhi	r2, r9, #0, 14
    1b1c:	01110101 	tsteq	r1, r1, lsl #2
    1b20:	00001331 	andeq	r1, r0, r1, lsr r3
    1b24:	01828a28 	orreq	r8, r2, r8, lsr #20
    1b28:	91180200 	tstls	r8, r0, lsl #4
    1b2c:	00001842 	andeq	r1, r0, r2, asr #16
    1b30:	3f012e29 	svccc	0x00012e29
    1b34:	3a0e0319 	bcc	3827a0 <__bss_end__+0x375dd8>
    1b38:	270b3b0b 	strcs	r3, [fp, -fp, lsl #22]
    1b3c:	12011119 	andne	r1, r1, #1073741830	; 0x40000006
    1b40:	97184006 	ldrls	r4, [r8, -r6]
    1b44:	13011942 	movwne	r1, #6466	; 0x1942
    1b48:	892a0000 	stmdbhi	sl!, {}	; <UNPREDICTABLE>
    1b4c:	11010182 	smlabbne	r1, r2, r1, r0
    1b50:	01133101 	tsteq	r3, r1, lsl #2
    1b54:	2b000013 	blcs	1ba8 <__code_start__-0x6458>
    1b58:	00018289 	andeq	r8, r1, r9, lsl #5
    1b5c:	13310111 	teqne	r1, #1073741828	; 0x40000004
    1b60:	052c0000 	streq	r0, [ip, #-0]!
    1b64:	3a0e0300 	bcc	38276c <__bss_end__+0x375da4>
    1b68:	490b3b0b 	stmdbmi	fp, {r0, r1, r3, r8, r9, fp, ip, sp}
    1b6c:	00170213 	andseq	r0, r7, r3, lsl r2
    1b70:	00342d00 	eorseq	r2, r4, r0, lsl #26
    1b74:	0b3a0803 	bleq	e83b88 <__bss_end__+0xe771c0>
    1b78:	13490b3b 	movtne	r0, #39739	; 0x9b3b
    1b7c:	00001802 	andeq	r1, r0, r2, lsl #16
    1b80:	3f002e2e 	svccc	0x00002e2e
    1b84:	6e193c19 	mrcvs	12, 0, r3, cr9, cr9, {0}
    1b88:	3a0e030e 	bcc	3827c8 <__bss_end__+0x375e00>
    1b8c:	000b3b0b 	andeq	r3, fp, fp, lsl #22
    1b90:	11010000 	mrsne	r0, (UNDEF: 1)
    1b94:	130e2501 	movwne	r2, #58625	; 0xe501
    1b98:	1b0e030b 	blne	3827cc <__bss_end__+0x375e04>
    1b9c:	1201110e 	andne	r1, r1, #-2147483645	; 0x80000003
    1ba0:	00171006 	andseq	r1, r7, r6
    1ba4:	00240200 	eoreq	r0, r4, r0, lsl #4
    1ba8:	0b3e0b0b 	bleq	f847dc <__bss_end__+0xf77e14>
    1bac:	00000803 	andeq	r0, r0, r3, lsl #16
    1bb0:	0b002403 	bleq	abc4 <int_init+0x1c>
    1bb4:	030b3e0b 	movweq	r3, #48651	; 0xbe0b
    1bb8:	0400000e 	streq	r0, [r0], #-14
    1bbc:	0e030016 	mcreq	0, 0, r0, cr3, cr6, {0}
    1bc0:	0b3b0b3a 	bleq	ec48b0 <__bss_end__+0xeb7ee8>
    1bc4:	00001349 	andeq	r1, r0, r9, asr #6
    1bc8:	03001605 	movweq	r1, #1541	; 0x605
    1bcc:	3b0b3a0e 	blcc	2d040c <__bss_end__+0x2c3a44>
    1bd0:	00134905 	andseq	r4, r3, r5, lsl #18
    1bd4:	01170600 	tsteq	r7, r0, lsl #12
    1bd8:	0b3a0b0b 	bleq	e8480c <__bss_end__+0xe77e44>
    1bdc:	13010b3b 	movwne	r0, #6971	; 0x1b3b
    1be0:	0d070000 	stceq	0, cr0, [r7, #-0]
    1be4:	3a0e0300 	bcc	3827ec <__bss_end__+0x375e24>
    1be8:	490b3b0b 	stmdbmi	fp, {r0, r1, r3, r8, r9, fp, ip, sp}
    1bec:	08000013 	stmdaeq	r0, {r0, r1, r4}
    1bf0:	13490101 	movtne	r0, #37121	; 0x9101
    1bf4:	00001301 	andeq	r1, r0, r1, lsl #6
    1bf8:	49002109 	stmdbmi	r0, {r0, r3, r8, sp}
    1bfc:	000b2f13 	andeq	r2, fp, r3, lsl pc
    1c00:	01130a00 	tsteq	r3, r0, lsl #20
    1c04:	0b3a0b0b 	bleq	e84838 <__bss_end__+0xe77e70>
    1c08:	13010b3b 	movwne	r0, #6971	; 0x1b3b
    1c0c:	0d0b0000 	stceq	0, cr0, [fp, #-0]
    1c10:	3a0e0300 	bcc	382818 <__bss_end__+0x375e50>
    1c14:	490b3b0b 	stmdbmi	fp, {r0, r1, r3, r8, r9, fp, ip, sp}
    1c18:	000b3813 	andeq	r3, fp, r3, lsl r8
    1c1c:	000f0c00 	andeq	r0, pc, r0, lsl #24
    1c20:	00000b0b 	andeq	r0, r0, fp, lsl #22
    1c24:	0b000f0d 	bleq	5860 <__code_start__-0x27a0>
    1c28:	0013490b 	andseq	r4, r3, fp, lsl #18
    1c2c:	00260e00 	eoreq	r0, r6, r0, lsl #28
    1c30:	00001349 	andeq	r1, r0, r9, asr #6
    1c34:	0301130f 	movweq	r1, #4879	; 0x130f
    1c38:	3a0b0b0e 	bcc	2c4878 <__bss_end__+0x2b7eb0>
    1c3c:	010b3b0b 	tsteq	fp, fp, lsl #22
    1c40:	10000013 	andne	r0, r0, r3, lsl r0
    1c44:	0803000d 	stmdaeq	r3, {r0, r2, r3}
    1c48:	0b3b0b3a 	bleq	ec4938 <__bss_end__+0xeb7f70>
    1c4c:	0b381349 	bleq	e06978 <__bss_end__+0xdf9fb0>
    1c50:	13110000 	tstne	r1, #0
    1c54:	0b0e0301 	bleq	382860 <__bss_end__+0x375e98>
    1c58:	3b0b3a05 	blcc	2d0474 <__bss_end__+0x2c3aac>
    1c5c:	0013010b 	andseq	r0, r3, fp, lsl #2
    1c60:	000d1200 	andeq	r1, sp, r0, lsl #4
    1c64:	0b3a0e03 	bleq	e85478 <__bss_end__+0xe78ab0>
    1c68:	13490b3b 	movtne	r0, #39739	; 0x9b3b
    1c6c:	00000538 	andeq	r0, r0, r8, lsr r5
    1c70:	27001513 	smladcs	r0, r3, r5, r1
    1c74:	14000019 	strne	r0, [r0], #-25
    1c78:	19270115 	stmdbne	r7!, {r0, r2, r4, r8}
    1c7c:	13011349 	movwne	r1, #4937	; 0x1349
    1c80:	05150000 	ldreq	r0, [r5, #-0]
    1c84:	00134900 	andseq	r4, r3, r0, lsl #18
    1c88:	01131600 	tsteq	r3, r0, lsl #12
    1c8c:	050b0e03 	streq	r0, [fp, #-3587]	; 0xe03
    1c90:	053b0b3a 	ldreq	r0, [fp, #-2874]!	; 0xb3a
    1c94:	00001301 	andeq	r1, r0, r1, lsl #6
    1c98:	03000d17 	movweq	r0, #3351	; 0xd17
    1c9c:	3b0b3a0e 	blcc	2d04dc <__bss_end__+0x2c3b14>
    1ca0:	38134905 	ldmdacc	r3, {r0, r2, r8, fp, lr}
    1ca4:	1800000b 	stmdane	r0, {r0, r1, r3}
    1ca8:	0e03000d 	cdpeq	0, 0, cr0, cr3, cr13, {0}
    1cac:	053b0b3a 	ldreq	r0, [fp, #-2874]!	; 0xb3a
    1cb0:	05381349 	ldreq	r1, [r8, #-841]!	; 0x349
    1cb4:	13190000 	tstne	r9, #0
    1cb8:	0b0e0301 	bleq	3828c4 <__bss_end__+0x375efc>
    1cbc:	3b0b3a0b 	blcc	2d04f0 <__bss_end__+0x2c3b28>
    1cc0:	00130105 	andseq	r0, r3, r5, lsl #2
    1cc4:	01131a00 	tsteq	r3, r0, lsl #20
    1cc8:	0b3a0b0b 	bleq	e848fc <__bss_end__+0xe77f34>
    1ccc:	1301053b 	movwne	r0, #5435	; 0x153b
    1cd0:	171b0000 	ldrne	r0, [fp, -r0]
    1cd4:	3a0b0b01 	bcc	2c48e0 <__bss_end__+0x2b7f18>
    1cd8:	01053b0b 	tsteq	r5, fp, lsl #22
    1cdc:	1c000013 	stcne	0, cr0, [r0], {19}
    1ce0:	0e03000d 	cdpeq	0, 0, cr0, cr3, cr13, {0}
    1ce4:	053b0b3a 	ldreq	r0, [fp, #-2874]!	; 0xb3a
    1ce8:	00001349 	andeq	r1, r0, r9, asr #6
    1cec:	2701151d 	smladcs	r1, sp, r5, r1
    1cf0:	00130119 	andseq	r0, r3, r9, lsl r1
    1cf4:	00341e00 	eorseq	r1, r4, r0, lsl #28
    1cf8:	0b3a0e03 	bleq	e8550c <__bss_end__+0xe78b44>
    1cfc:	1349053b 	movtne	r0, #38203	; 0x953b
    1d00:	193c193f 	ldmdbne	ip!, {r0, r1, r2, r3, r4, r5, r8, fp, ip}
    1d04:	341f0000 	ldrcc	r0, [pc], #-0	; 1d0c <__code_start__-0x62f4>
    1d08:	3a0e0300 	bcc	382910 <__bss_end__+0x375f48>
    1d0c:	490b3b0b 	stmdbmi	fp, {r0, r1, r3, r8, r9, fp, ip, sp}
    1d10:	3c193f13 	ldccc	15, cr3, [r9], {19}
    1d14:	20000019 	andcs	r0, r0, r9, lsl r0
    1d18:	0e030034 	mcreq	0, 0, r0, cr3, cr4, {1}
    1d1c:	0b3b0b3a 	bleq	ec4a0c <__bss_end__+0xeb8044>
    1d20:	18021349 	stmdane	r2, {r0, r3, r6, r8, r9, ip}
    1d24:	2e210000 	cdpcs	0, 2, cr0, cr1, cr0, {0}
    1d28:	03193f01 	tsteq	r9, #1, 30
    1d2c:	3b0b3a0e 	blcc	2d056c <__bss_end__+0x2c3ba4>
    1d30:	1119270b 	tstne	r9, fp, lsl #14
    1d34:	40061201 	andmi	r1, r6, r1, lsl #4
    1d38:	19429718 	stmdbne	r2, {r3, r4, r8, r9, sl, ip, pc}^
    1d3c:	00001301 	andeq	r1, r0, r1, lsl #6
    1d40:	03000522 	movweq	r0, #1314	; 0x522
    1d44:	3b0b3a08 	blcc	2d056c <__bss_end__+0x2c3ba4>
    1d48:	0213490b 	andseq	r4, r3, #180224	; 0x2c000
    1d4c:	23000018 	movwcs	r0, #24
    1d50:	193f002e 	ldmdbne	pc!, {r1, r2, r3, r5}	; <UNPREDICTABLE>
    1d54:	0b3a0e03 	bleq	e85568 <__bss_end__+0xe78ba0>
    1d58:	19270b3b 	stmdbne	r7!, {r0, r1, r3, r4, r5, r8, r9, fp}
    1d5c:	06120111 			; <UNDEFINED> instruction: 0x06120111
    1d60:	42971840 	addsmi	r1, r7, #64, 16	; 0x400000
    1d64:	24000019 	strcs	r0, [r0], #-25
    1d68:	193f012e 	ldmdbne	pc!, {r1, r2, r3, r5, r8}	; <UNPREDICTABLE>
    1d6c:	0b3a0e03 	bleq	e85580 <__bss_end__+0xe78bb8>
    1d70:	19270b3b 	stmdbne	r7!, {r0, r1, r3, r4, r5, r8, r9, fp}
    1d74:	01111349 	tsteq	r1, r9, asr #6
    1d78:	18400612 	stmdane	r0, {r1, r4, r9, sl}^
    1d7c:	01194297 			; <UNDEFINED> instruction: 0x01194297
    1d80:	25000013 	strcs	r0, [r0, #-19]
    1d84:	0e030005 	cdpeq	0, 0, cr0, cr3, cr5, {0}
    1d88:	0b3b0b3a 	bleq	ec4a78 <__bss_end__+0xeb80b0>
    1d8c:	17021349 	strne	r1, [r2, -r9, asr #6]
    1d90:	34260000 	strtcc	r0, [r6], #-0
    1d94:	490e0300 	stmdbmi	lr, {r8, r9}
    1d98:	02193413 	andseq	r3, r9, #318767104	; 0x13000000
    1d9c:	27000018 	smladcs	r0, r8, r0, r0
    1da0:	08030034 	stmdaeq	r3, {r2, r4, r5}
    1da4:	0b3b0b3a 	bleq	ec4a94 <__bss_end__+0xeb80cc>
    1da8:	17021349 	strne	r1, [r2, -r9, asr #6]
    1dac:	89280000 	stmdbhi	r8!, {}	; <UNPREDICTABLE>
    1db0:	11010182 	smlabbne	r1, r2, r1, r0
    1db4:	01133101 	tsteq	r3, r1, lsl #2
    1db8:	29000013 	stmdbcs	r0, {r0, r1, r4}
    1dbc:	0001828a 	andeq	r8, r1, sl, lsl #5
    1dc0:	42911802 	addsmi	r1, r1, #131072	; 0x20000
    1dc4:	2a000018 	bcs	1e2c <__code_start__-0x61d4>
    1dc8:	00018289 	andeq	r8, r1, r9, lsl #5
    1dcc:	13310111 	teqne	r1, #1073741828	; 0x40000004
    1dd0:	052b0000 	streq	r0, [fp, #-0]!
    1dd4:	3a080300 	bcc	2029dc <__bss_end__+0x1f6014>
    1dd8:	490b3b0b 	stmdbmi	fp, {r0, r1, r3, r8, r9, fp, ip, sp}
    1ddc:	00170213 	andseq	r0, r7, r3, lsl r2
    1de0:	00342c00 	eorseq	r2, r4, r0, lsl #24
    1de4:	0b3a0e03 	bleq	e855f8 <__bss_end__+0xe78c30>
    1de8:	13490b3b 	movtne	r0, #39739	; 0x9b3b
    1dec:	00001702 	andeq	r1, r0, r2, lsl #14
    1df0:	3f002e2d 	svccc	0x00002e2d
    1df4:	3a0e0319 	bcc	382a60 <__bss_end__+0x376098>
    1df8:	270b3b0b 	strcs	r3, [fp, -fp, lsl #22]
    1dfc:	11134919 	tstne	r3, r9, lsl r9
    1e00:	40061201 	andmi	r1, r6, r1, lsl #4
    1e04:	19429718 	stmdbne	r2, {r3, r4, r8, r9, sl, ip, pc}^
    1e08:	2e2e0000 	cdpcs	0, 2, cr0, cr14, cr0, {0}
    1e0c:	3c193f00 	ldccc	15, cr3, [r9], {-0}
    1e10:	030e6e19 	movweq	r6, #60953	; 0xee19
    1e14:	3b0b3a0e 	blcc	2d0654 <__bss_end__+0x2c3c8c>
    1e18:	0000000b 	andeq	r0, r0, fp

Disassembly of section .debug_aranges:

00000000 <.debug_aranges>:
   0:	0000001c 	andeq	r0, r0, ip, lsl r0
   4:	00000002 	andeq	r0, r0, r2
   8:	00040000 	andeq	r0, r4, r0
   c:	00000000 	andeq	r0, r0, r0
  10:	00008020 	andeq	r8, r0, r0, lsr #32
  14:	000001b4 			; <UNDEFINED> instruction: 0x000001b4
	...
  20:	0000001c 	andeq	r0, r0, ip, lsl r0
  24:	048b0002 	streq	r0, [fp], #2
  28:	00040000 	andeq	r0, r4, r0
  2c:	00000000 	andeq	r0, r0, r0
  30:	00008318 	andeq	r8, r0, r8, lsl r3
  34:	000008dc 	ldrdeq	r0, [r0], -ip
	...
  40:	0000001c 	andeq	r0, r0, ip, lsl r0
  44:	19dd0002 	ldmibne	sp, {r1}^
  48:	00040000 	andeq	r0, r4, r0
  4c:	00000000 	andeq	r0, r0, r0
  50:	00008bf4 	strdeq	r8, [r0], -r4
  54:	00000914 	andeq	r0, r0, r4, lsl r9
	...
  60:	0000001c 	andeq	r0, r0, ip, lsl r0
  64:	2b7f0002 	blcs	1fc0074 <__bss_end__+0x1fb36ac>
  68:	00040000 	andeq	r0, r4, r0
  6c:	00000000 	andeq	r0, r0, r0
  70:	00009508 	andeq	r9, r0, r8, lsl #10
  74:	00000a40 	andeq	r0, r0, r0, asr #20
	...
  80:	0000001c 	andeq	r0, r0, ip, lsl r0
  84:	41b60002 			; <UNDEFINED> instruction: 0x41b60002
  88:	00040000 	andeq	r0, r4, r0
  8c:	00000000 	andeq	r0, r0, r0
  90:	0000a2dc 	ldrdeq	sl, [r0], -ip
  94:	000000f0 	strdeq	r0, [r0], -r0	; <UNPREDICTABLE>
	...
  a0:	0000001c 	andeq	r0, r0, ip, lsl r0
  a4:	42cc0002 	sbcmi	r0, ip, #2
  a8:	00040000 	andeq	r0, r4, r0
  ac:	00000000 	andeq	r0, r0, r0
  b0:	0000a3cc 	andeq	sl, r0, ip, asr #7
  b4:	00000020 	andeq	r0, r0, r0, lsr #32
	...
  c0:	0000001c 	andeq	r0, r0, ip, lsl r0
  c4:	43ab0002 			; <UNDEFINED> instruction: 0x43ab0002
  c8:	00040000 	andeq	r0, r4, r0
  cc:	00000000 	andeq	r0, r0, r0
  d0:	0000a3ec 	andeq	sl, r0, ip, ror #7
  d4:	00000058 	andeq	r0, r0, r8, asr r0
	...
  e0:	0000001c 	andeq	r0, r0, ip, lsl r0
  e4:	45400002 	strbmi	r0, [r0, #-2]
  e8:	00040000 	andeq	r0, r4, r0
  ec:	00000000 	andeq	r0, r0, r0
  f0:	0000a444 	andeq	sl, r0, r4, asr #8
  f4:	0000003c 	andeq	r0, r0, ip, lsr r0
	...
 100:	0000001c 	andeq	r0, r0, ip, lsl r0
 104:	46570002 	ldrbmi	r0, [r7], -r2
 108:	00040000 	andeq	r0, r4, r0
 10c:	00000000 	andeq	r0, r0, r0
 110:	0000a480 	andeq	sl, r0, r0, lsl #9
 114:	00000034 	andeq	r0, r0, r4, lsr r0
	...
 120:	0000001c 	andeq	r0, r0, ip, lsl r0
 124:	47490002 	strbmi	r0, [r9, -r2]
 128:	00040000 	andeq	r0, r4, r0
 12c:	00000000 	andeq	r0, r0, r0
 130:	0000a4b4 			; <UNDEFINED> instruction: 0x0000a4b4
 134:	00000578 	andeq	r0, r0, r8, ror r5
	...
 140:	0000001c 	andeq	r0, r0, ip, lsl r0
 144:	4e320002 	cdpmi	0, 3, cr0, cr2, cr2, {0}
 148:	00040000 	andeq	r0, r4, r0
 14c:	00000000 	andeq	r0, r0, r0
 150:	0000aa2c 	andeq	sl, r0, ip, lsr #20
 154:	0000002c 	andeq	r0, r0, ip, lsr #32
	...
 160:	0000001c 	andeq	r0, r0, ip, lsl r0
 164:	4f450002 	svcmi	0x00450002
 168:	00040000 	andeq	r0, r4, r0
 16c:	00000000 	andeq	r0, r0, r0
 170:	0000aa58 	andeq	sl, r0, r8, asr sl
 174:	00000038 	andeq	r0, r0, r8, lsr r0
	...
 180:	0000001c 	andeq	r0, r0, ip, lsl r0
 184:	50580002 	subspl	r0, r8, r2
 188:	00040000 	andeq	r0, r4, r0
 18c:	00000000 	andeq	r0, r0, r0
 190:	0000aa90 	muleq	r0, r0, sl
 194:	00000044 	andeq	r0, r0, r4, asr #32
	...
 1a0:	0000001c 	andeq	r0, r0, ip, lsl r0
 1a4:	519a0002 	orrspl	r0, sl, r2
 1a8:	00040000 	andeq	r0, r4, r0
 1ac:	00000000 	andeq	r0, r0, r0
 1b0:	0000aad4 	ldrdeq	sl, [r0], -r4
 1b4:	00000044 	andeq	r0, r0, r4, asr #32
	...
 1c0:	0000001c 	andeq	r0, r0, ip, lsl r0
 1c4:	52dc0002 	sbcspl	r0, ip, #2
 1c8:	00040000 	andeq	r0, r4, r0
 1cc:	00000000 	andeq	r0, r0, r0
 1d0:	0000ab18 	andeq	sl, r0, r8, lsl fp
 1d4:	00000044 	andeq	r0, r0, r4, asr #32
	...
 1e0:	0000001c 	andeq	r0, r0, ip, lsl r0
 1e4:	541e0002 	ldrpl	r0, [lr], #-2
 1e8:	00040000 	andeq	r0, r4, r0
 1ec:	00000000 	andeq	r0, r0, r0
 1f0:	0000ab5c 	andeq	sl, r0, ip, asr fp
 1f4:	00000044 	andeq	r0, r0, r4, asr #32
	...
 200:	0000001c 	andeq	r0, r0, ip, lsl r0
 204:	55600002 	strbpl	r0, [r0, #-2]!
 208:	00040000 	andeq	r0, r4, r0
 20c:	00000000 	andeq	r0, r0, r0
 210:	0000aba0 	andeq	sl, r0, r0, lsr #23
 214:	00000008 	andeq	r0, r0, r8
	...
 220:	0000001c 	andeq	r0, r0, ip, lsl r0
 224:	55fc0002 	ldrbpl	r0, [ip, #2]!
 228:	00040000 	andeq	r0, r4, r0
 22c:	00000000 	andeq	r0, r0, r0
 230:	0000aba8 	andeq	sl, r0, r8, lsr #23
 234:	0000006c 	andeq	r0, r0, ip, rrx
	...
 240:	0000001c 	andeq	r0, r0, ip, lsl r0
 244:	57d70002 	ldrbpl	r0, [r7, r2]
 248:	00040000 	andeq	r0, r4, r0
 24c:	00000000 	andeq	r0, r0, r0
 250:	0000ac14 	andeq	sl, r0, r4, lsl ip
 254:	00000074 	andeq	r0, r0, r4, ror r0
	...
 260:	0000001c 	andeq	r0, r0, ip, lsl r0
 264:	59880002 	stmibpl	r8, {r1}
 268:	00040000 	andeq	r0, r4, r0
 26c:	00000000 	andeq	r0, r0, r0
 270:	0000ac88 	andeq	sl, r0, r8, lsl #25
 274:	00000098 	muleq	r0, r8, r0
	...
 280:	0000001c 	andeq	r0, r0, ip, lsl r0
 284:	5b830002 	blpl	fe0c0294 <__bss_end__+0xfe0b38cc>
 288:	00040000 	andeq	r0, r4, r0
 28c:	00000000 	andeq	r0, r0, r0
 290:	0000ad84 	andeq	sl, r0, r4, lsl #27
 294:	00000178 	andeq	r0, r0, r8, ror r1
	...
 2a0:	0000001c 	andeq	r0, r0, ip, lsl r0
 2a4:	684c0002 	stmdavs	ip, {r1}^
 2a8:	00040000 	andeq	r0, r4, r0
 2ac:	00000000 	andeq	r0, r0, r0
 2b0:	0000aefc 	strdeq	sl, [r0], -ip
 2b4:	00000120 	andeq	r0, r0, r0, lsr #2
	...
 2c0:	0000001c 	andeq	r0, r0, ip, lsl r0
 2c4:	73c00002 	bicvc	r0, r0, #2
 2c8:	00040000 	andeq	r0, r4, r0
 2cc:	00000000 	andeq	r0, r0, r0
 2d0:	0000b01c 	andeq	fp, r0, ip, lsl r0
 2d4:	000001d8 	ldrdeq	r0, [r0], -r8
	...

Disassembly of section .debug_line:

00000000 <.debug_line>:
       0:	00000139 	andeq	r0, r0, r9, lsr r1
       4:	00fb0002 	rscseq	r0, fp, r2
       8:	01020000 	mrseq	r0, (UNDEF: 2)
       c:	000d0efb 	strdeq	r0, [sp], -fp
      10:	01010101 	tsteq	r1, r1, lsl #2
      14:	01000000 	mrseq	r0, (UNDEF: 0)
      18:	74010000 	strvc	r0, [r1], #-0
      1c:	73747365 	cmnvc	r4, #-1811939327	; 0x94000001
      20:	2f002e00 	svccs	0x00002e00
      24:	72657355 	rsbvc	r7, r5, #1409286145	; 0x54000001
      28:	72622f73 	rsbvc	r2, r2, #460	; 0x1cc
      2c:	6a6e6169 	bvs	1b985d8 <__bss_end__+0x1b8bc10>
      30:	442f6e75 	strtmi	r6, [pc], #-3701	; 38 <__code_start__-0x7fc8>
      34:	746b7365 	strbtvc	r7, [fp], #-869	; 0x365
      38:	732f706f 	teqvc	pc, #111	; 0x6f
      3c:	6f6f6863 	svcvs	0x006f6863
      40:	70532f6c 	subsvc	r2, r3, ip, ror #30
      44:	676e6972 			; <UNDEFINED> instruction: 0x676e6972
      48:	30323931 	eorscc	r3, r2, r1, lsr r9
      4c:	3253432f 	subscc	r4, r3, #-1140850688	; 0xbc000000
      50:	584c3034 	stmdapl	ip, {r2, r4, r5, ip, sp}^
      54:	3273632f 	rsbscc	r6, r3, #-1140850688	; 0xbc000000
      58:	786c3034 	stmdavc	ip!, {r2, r4, r5, ip, sp}^
      5c:	7330322d 	teqvc	r0, #-805306366	; 0xd0000002
      60:	6c2f7270 	sfmvs	f7, 4, [pc], #-448	; fffffea8 <__bss_end__+0xffff34e0>
      64:	69706269 	ldmdbvs	r0!, {r0, r3, r5, r6, r9, sp, lr}^
      68:	636e692f 	cmnvs	lr, #770048	; 0xbc000
      6c:	6564756c 	strbvs	r7, [r4, #-1388]!	; 0x56c
      70:	73752f00 	cmnvc	r5, #0, 30
      74:	6f6c2f72 	svcvs	0x006c2f72
      78:	2f6c6163 	svccs	0x006c6163
      7c:	6c6c6543 	cfstr64vs	mvdx6, [ip], #-268	; 0xfffffef4
      80:	612f7261 	teqvs	pc, r1, ror #4
      84:	6e2d6d72 	mcrvs	13, 1, r6, cr13, cr2, {3}
      88:	2d656e6f 	stclcs	14, cr6, [r5, #-444]!	; 0xfffffe44
      8c:	69626165 	stmdbvs	r2!, {r0, r2, r5, r6, r8, sp, lr}^
      90:	382e342f 	stmdacc	lr!, {r0, r1, r2, r3, r5, sl, ip, sp}
      94:	632d332e 	teqvs	sp, #-1207959552	; 0xb8000000
      98:	30373173 	eorscc	r3, r7, r3, ror r1
      9c:	696c2f65 	stmdbvs	ip!, {r0, r2, r5, r6, r8, r9, sl, fp, sp}^
      a0:	63672f62 	cmnvs	r7, #392	; 0x188
      a4:	72612f63 	rsbvc	r2, r1, #396	; 0x18c
      a8:	6f6e2d6d 	svcvs	0x006e2d6d
      ac:	652d656e 	strvs	r6, [sp, #-1390]!	; 0x56e
      b0:	2f696261 	svccs	0x00696261
      b4:	2e382e34 	mrccs	14, 1, r2, cr8, cr4, {1}
      b8:	6e692f33 	mcrvs	15, 3, r2, cr9, cr3, {1}
      bc:	64756c63 	ldrbtvs	r6, [r5], #-3171	; 0xc63
      c0:	70000065 	andvc	r0, r0, r5, rrx
      c4:	32747261 	rsbscc	r7, r4, #268435462	; 0x10000006
      c8:	7365742d 	cmnvc	r5, #754974720	; 0x2d000000
      cc:	632e3374 	teqvs	lr, #116, 6	; 0xd0000001
      d0:	00000100 	andeq	r0, r0, r0, lsl #2
      d4:	636d656d 	cmnvs	sp, #457179136	; 0x1b400000
      d8:	6b636568 	blvs	18d9680 <__bss_end__+0x18cccb8>
      dc:	0200682e 	andeq	r6, r0, #3014656	; 0x2e0000
      e0:	70720000 	rsbsvc	r0, r2, r0
      e4:	00682e69 	rsbeq	r2, r8, r9, ror #28
      e8:	6d000003 	stcvs	0, cr0, [r0, #-12]
      ec:	682e756d 	stmdavs	lr!, {r0, r2, r3, r5, r6, r8, sl, ip, sp, lr}
      f0:	00000200 	andeq	r0, r0, r0, lsl #4
      f4:	69647473 	stmdbvs	r4!, {r0, r1, r4, r5, r6, sl, ip, sp, lr}^
      f8:	672d746e 	strvs	r7, [sp, -lr, ror #8]!
      fc:	682e6363 	stmdavs	lr!, {r0, r1, r5, r6, r8, r9, sp, lr}
     100:	00000400 	andeq	r0, r0, r0, lsl #8
     104:	02050000 	andeq	r0, r5, #0
     108:	00008020 	andeq	r8, r0, r0, lsr #32
     10c:	2f2f4b15 	svccs	0x002f4b15
     110:	01040200 	mrseq	r0, R12_usr
     114:	08066606 	stmdaeq	r6, {r1, r2, r9, sl, sp, lr}
     118:	4d4c4d25 	stclmi	13, cr4, [ip, #-148]	; 0xffffff6c
     11c:	da304d30 	ble	c135e4 <__bss_end__+0xc06c1c>
     120:	02008368 	andeq	r8, r0, #104, 6	; 0xa0000001
     124:	66060104 	strvs	r0, [r6], -r4, lsl #2
     128:	9f210806 	svcls	0x00210806
     12c:	0200bb85 	andeq	fp, r0, #136192	; 0x21400
     130:	82060104 	andhi	r0, r6, #4, 2
     134:	d8210806 	stmdale	r1!, {r1, r2, fp}
     138:	01002c02 	tsteq	r0, r2, lsl #24
     13c:	0002f501 	andeq	pc, r2, r1, lsl #10
     140:	6a000200 	bvs	948 <__code_start__-0x76b8>
     144:	02000001 	andeq	r0, r0, #1
     148:	0d0efb01 	vstreq	d15, [lr, #-4]
     14c:	01010100 	mrseq	r0, (UNDEF: 17)
     150:	00000001 	andeq	r0, r0, r1
     154:	01000001 	tsteq	r0, r1
     158:	7273752f 	rsbsvc	r7, r3, #197132288	; 0xbc00000
     15c:	636f6c2f 	cmnvs	pc, #12032	; 0x2f00
     160:	432f6c61 	teqmi	pc, #24832	; 0x6100
     164:	616c6c65 	cmnvs	ip, r5, ror #24
     168:	72612f72 	rsbvc	r2, r1, #456	; 0x1c8
     16c:	6f6e2d6d 	svcvs	0x006e2d6d
     170:	652d656e 	strvs	r6, [sp, #-1390]!	; 0x56e
     174:	2f696261 	svccs	0x00696261
     178:	2e382e34 	mrccs	14, 1, r2, cr8, cr4, {1}
     17c:	73632d33 	cmnvc	r3, #3264	; 0xcc0
     180:	65303731 	ldrvs	r3, [r0, #-1841]!	; 0x731
     184:	62696c2f 	rsbvs	r6, r9, #12032	; 0x2f00
     188:	6363672f 	cmnvs	r3, #12320768	; 0xbc0000
     18c:	6d72612f 	ldfvse	f6, [r2, #-188]!	; 0xffffff44
     190:	6e6f6e2d 	cdpvs	14, 6, cr6, cr15, cr13, {1}
     194:	61652d65 	cmnvs	r5, r5, ror #26
     198:	342f6962 	strtcc	r6, [pc], #-2402	; 1a0 <__code_start__-0x7e60>
     19c:	332e382e 	teqcc	lr, #3014656	; 0x2e0000
     1a0:	636e692f 	cmnvs	lr, #770048	; 0xbc000
     1a4:	6564756c 	strbvs	r7, [r4, #-1388]!	; 0x56c
     1a8:	73552f00 	cmpvc	r5, #0, 30
     1ac:	2f737265 	svccs	0x00737265
     1b0:	61697262 	cmnvs	r9, r2, ror #4
     1b4:	6e756a6e 	vsubvs.f32	s13, s10, s29
     1b8:	7365442f 	cmnvc	r5, #788529152	; 0x2f000000
     1bc:	706f746b 	rsbvc	r7, pc, fp, ror #8
     1c0:	6863732f 	stmdavs	r3!, {r0, r1, r2, r3, r5, r8, r9, ip, sp, lr}^
     1c4:	2f6c6f6f 	svccs	0x006c6f6f
     1c8:	69727053 	ldmdbvs	r2!, {r0, r1, r4, r6, ip, sp, lr}^
     1cc:	3931676e 	ldmdbcc	r1!, {r1, r2, r3, r5, r6, r8, r9, sl, sp, lr}
     1d0:	432f3032 	teqmi	pc, #50	; 0x32
     1d4:	30343253 	eorscc	r3, r4, r3, asr r2
     1d8:	632f584c 	teqvs	pc, #76, 16	; 0x4c0000
     1dc:	30343273 	eorscc	r3, r4, r3, ror r2
     1e0:	322d786c 	eorcc	r7, sp, #108, 16	; 0x6c0000
     1e4:	72707330 	rsbsvc	r7, r0, #48, 6	; 0xc0000000
     1e8:	62696c2f 	rsbvs	r6, r9, #12032	; 0x2f00
     1ec:	692f6970 	stmdbvs	pc!, {r4, r5, r6, r8, fp, sp, lr}	; <UNPREDICTABLE>
     1f0:	756c636e 	strbvc	r6, [ip, #-878]!	; 0x36e
     1f4:	2f006564 	svccs	0x00006564
     1f8:	2f727375 	svccs	0x00727375
     1fc:	61636f6c 	cmnvs	r3, ip, ror #30
     200:	65432f6c 	strbvs	r2, [r3, #-3948]	; 0xf6c
     204:	72616c6c 	rsbvc	r6, r1, #108, 24	; 0x6c00
     208:	6d72612f 	ldfvse	f6, [r2, #-188]!	; 0xffffff44
     20c:	6e6f6e2d 	cdpvs	14, 6, cr6, cr15, cr13, {1}
     210:	61652d65 	cmnvs	r5, r5, ror #26
     214:	342f6962 	strtcc	r6, [pc], #-2402	; 21c <__code_start__-0x7de4>
     218:	332e382e 	teqcc	lr, #3014656	; 0x2e0000
     21c:	3173632d 	cmncc	r3, sp, lsr #6
     220:	2f653037 	svccs	0x00653037
     224:	2d6d7261 	sfmcs	f7, 2, [sp, #-388]!	; 0xfffffe7c
     228:	656e6f6e 	strbvs	r6, [lr, #-3950]!	; 0xf6e
     22c:	6261652d 	rsbvs	r6, r1, #188743680	; 0xb400000
     230:	6e692f69 	cdpvs	15, 6, cr2, cr9, cr9, {3}
     234:	64756c63 	ldrbtvs	r6, [r5], #-3171	; 0xc63
     238:	6d000065 	stcvs	0, cr0, [r0, #-404]	; 0xfffffe6c
     23c:	632e756d 	teqvs	lr, #457179136	; 0x1b400000
     240:	00000000 	andeq	r0, r0, r0
     244:	2e756d6d 	cdpcs	13, 7, cr6, cr5, cr13, {3}
     248:	00000068 	andeq	r0, r0, r8, rrx
     24c:	64747300 	ldrbtvs	r7, [r4], #-768	; 0x300
     250:	2e666564 	cdpcs	5, 6, cr6, cr6, cr4, {3}
     254:	00010068 	andeq	r0, r1, r8, rrx
     258:	64747300 	ldrbtvs	r7, [r4], #-768	; 0x300
     25c:	2d746e69 	ldclcs	14, cr6, [r4, #-420]!	; 0xfffffe5c
     260:	2e636367 	cdpcs	3, 6, cr6, cr3, cr7, {3}
     264:	00010068 	andeq	r0, r1, r8, rrx
     268:	6d726100 	ldfvse	f6, [r2, #-0]
     26c:	632d3676 	teqvs	sp, #123731968	; 0x7600000
     270:	2e353170 	mrccs	1, 1, r3, cr5, cr0, {3}
     274:	00000068 	andeq	r0, r0, r8, rrx
     278:	6d726100 	ldfvse	f6, [r2, #-0]
     27c:	762d3676 			; <UNDEFINED> instruction: 0x762d3676
     280:	00682e6d 	rsbeq	r2, r8, sp, ror #28
     284:	72000000 	andvc	r0, r0, #0
     288:	682e6970 	stmdavs	lr!, {r4, r5, r6, r8, fp, sp, lr}
     28c:	00000200 	andeq	r0, r0, r0, lsl #4
     290:	69727473 	ldmdbvs	r2!, {r0, r1, r4, r5, r6, sl, ip, sp, lr}^
     294:	682e676e 	stmdavs	lr!, {r1, r2, r3, r5, r6, r8, r9, sl, sp, lr}
     298:	00000300 	andeq	r0, r0, r0, lsl #6
     29c:	2d697072 	stclcs	0, cr7, [r9, #-456]!	; 0xfffffe38
     2a0:	65746e69 	ldrbvs	r6, [r4, #-3689]!	; 0xe69
     2a4:	70757272 	rsbsvc	r7, r5, r2, ror r2
     2a8:	682e7374 	stmdavs	lr!, {r2, r4, r5, r6, r8, r9, ip, sp, lr}
     2ac:	00000200 	andeq	r0, r0, r0, lsl #4
     2b0:	02050000 	andeq	r0, r5, #0
     2b4:	00008318 	andeq	r8, r0, r8, lsl r3
     2b8:	2f010a03 	svccs	0x00010a03
     2bc:	004b4c2f 	subeq	r4, fp, pc, lsr #24
     2c0:	06010402 	streq	r0, [r1], -r2, lsl #8
     2c4:	2108064a 	tstcs	r8, sl, asr #12
     2c8:	02002f2f 	andeq	r2, r0, #47, 30	; 0xbc
     2cc:	66060104 	strvs	r0, [r6], -r4, lsl #2
     2d0:	08220806 	stmdaeq	r2!, {r1, r2, fp}
     2d4:	03020423 	movweq	r0, #9251	; 0x2423
     2d8:	048200e0 	streq	r0, [r2], #224	; 0xe0
     2dc:	7fa20301 	svcvc	0x00a20301
     2e0:	0402004a 	streq	r0, [r2], #-74	; 0x4a
     2e4:	004a0601 	subeq	r0, sl, r1, lsl #12
     2e8:	06020402 	streq	r0, [r2], -r2, lsl #8
     2ec:	02002508 	andeq	r2, r0, #8, 10	; 0x2000000
     2f0:	00670204 	rsbeq	r0, r7, r4, lsl #4
     2f4:	7d020402 	cfstrsvc	mvf0, [r2, #-8]
     2f8:	0402006b 	streq	r0, [r2], #-107	; 0x6b
     2fc:	2f524501 	svccs	0x00524501
     300:	2f682fbc 	svccs	0x00682fbc
     304:	4b6a2f68 	blmi	1a8c0ac <__bss_end__+0x1a7f6e4>
     308:	01040200 	mrseq	r0, R12_usr
     30c:	08064a06 	stmdaeq	r6, {r1, r2, r9, fp, lr}
     310:	0200bd22 	andeq	fp, r0, #2176	; 0x880
     314:	4a060104 	bmi	18072c <__bss_end__+0x173d64>
     318:	03210806 	teqeq	r1, #393216	; 0x60000
     31c:	009ff209 	addseq	pc, pc, r9, lsl #4
     320:	06010402 	streq	r0, [r1], -r2, lsl #8
     324:	2108064a 	tstcs	r8, sl, asr #12
     328:	01040200 	mrseq	r0, R12_usr
     32c:	08064a06 	stmdaeq	r6, {r1, r2, r9, fp, lr}
     330:	04020021 	streq	r0, [r2], #-33	; 0x21
     334:	064a0601 	strbeq	r0, [sl], -r1, lsl #12
     338:	4b2f2208 	blmi	bc8b60 <__bss_end__+0xbbc198>
     33c:	01040200 	mrseq	r0, R12_usr
     340:	08066606 	stmdaeq	r6, {r1, r2, r9, sl, sp, lr}
     344:	30674f21 	rsbcc	r4, r7, r1, lsr #30
     348:	6768a067 	strbvs	sl, [r8, -r7, rrx]!
     34c:	85834b83 	strhi	r4, [r3, #2947]	; 0xb83
     350:	00d7ae08 	sbcseq	sl, r7, r8, lsl #28
     354:	06010402 	streq	r0, [r1], -r2, lsl #8
     358:	2108064a 	tstcs	r8, sl, asr #12
     35c:	01040200 	mrseq	r0, R12_usr
     360:	08064a06 	stmdaeq	r6, {r1, r2, r9, fp, lr}
     364:	04020021 	streq	r0, [r2], #-33	; 0x21
     368:	004a0601 	subeq	r0, sl, r1, lsl #12
     36c:	06020402 	streq	r0, [r2], -r2, lsl #8
     370:	02002208 	andeq	r2, r0, #8, 4	; 0x80000000
     374:	009f0204 	addseq	r0, pc, r4, lsl #4
     378:	2f020402 	svccs	0x00020402
     37c:	02040200 	andeq	r0, r4, #0, 4
     380:	0402002b 	streq	r0, [r2], #-43	; 0x2b
     384:	06660601 	strbteq	r0, [r6], -r1, lsl #12
     388:	0067f44f 	rsbeq	pc, r7, pc, asr #8
     38c:	06010402 	streq	r0, [r1], -r2, lsl #8
     390:	2408064a 	strcs	r0, [r8], #-1610	; 0x64a
     394:	01040200 	mrseq	r0, R12_usr
     398:	08064a06 	stmdaeq	r6, {r1, r2, r9, fp, lr}
     39c:	22086822 	andcs	r6, r8, #2228224	; 0x220000
     3a0:	0402004b 	streq	r0, [r2], #-75	; 0x4b
     3a4:	064a0601 	strbeq	r0, [sl], -r1, lsl #12
     3a8:	004b2408 	subeq	r2, fp, r8, lsl #8
     3ac:	06010402 	streq	r0, [r1], -r2, lsl #8
     3b0:	2208064a 	andcs	r0, r8, #77594624	; 0x4a00000
     3b4:	304bfa4b 	subcc	pc, fp, fp, asr #20
     3b8:	002f4c30 	eoreq	r4, pc, r0, lsr ip	; <UNPREDICTABLE>
     3bc:	06010402 	streq	r0, [r1], -r2, lsl #8
     3c0:	2108064a 	tstcs	r8, sl, asr #12
     3c4:	01040200 	mrseq	r0, R12_usr
     3c8:	08064a06 	stmdaeq	r6, {r1, r2, r9, fp, lr}
     3cc:	4e2fd821 	cdpmi	8, 2, cr13, cr15, cr1, {1}
     3d0:	0402004b 	streq	r0, [r2], #-75	; 0x4b
     3d4:	064a0601 	strbeq	r0, [sl], -r1, lsl #12
     3d8:	02002108 	andeq	r2, r0, #8, 2
     3dc:	4a060104 	bmi	1807f4 <__bss_end__+0x173e2c>
     3e0:	2f210806 	svccs	0x00210806
     3e4:	002f4bd7 	ldrdeq	r4, [pc], -r7	; <UNPREDICTABLE>
     3e8:	06010402 	streq	r0, [r1], -r2, lsl #8
     3ec:	2208064a 	andcs	r0, r8, #77594624	; 0x4a00000
     3f0:	004bbc4b 	subeq	fp, fp, fp, asr #24
     3f4:	06010402 	streq	r0, [r1], -r2, lsl #8
     3f8:	2108064a 	tstcs	r8, sl, asr #12
     3fc:	2f4bbb2f 	svccs	0x004bbb2f
     400:	01040200 	mrseq	r0, R12_usr
     404:	08064a06 	stmdaeq	r6, {r1, r2, r9, fp, lr}
     408:	14bd4b22 	ldrtne	r4, [sp], #2850	; 0xb22
     40c:	4f2f2f30 	svcmi	0x002f2f30
     410:	0402004b 	streq	r0, [r2], #-75	; 0x4b
     414:	064a0601 	strbeq	r0, [sl], -r1, lsl #12
     418:	02002108 	andeq	r2, r0, #8, 2
     41c:	4a060104 	bmi	180834 <__bss_end__+0x173e6c>
     420:	00210806 	eoreq	r0, r1, r6, lsl #16
     424:	06010402 	streq	r0, [r1], -r2, lsl #8
     428:	21080666 	tstcs	r8, r6, ror #12
     42c:	6767f567 	strbvs	pc, [r7, -r7, ror #10]!	; <UNPREDICTABLE>
     430:	0016022f 	andseq	r0, r6, pc, lsr #4
     434:	02800101 	addeq	r0, r0, #1073741824	; 0x40000000
     438:	00020000 	andeq	r0, r2, r0
     43c:	0000015e 	andeq	r0, r0, lr, asr r1
     440:	0efb0102 	cdpeq	1, 15, cr0, cr11, cr2, {0}
     444:	0101000d 	tsteq	r1, sp
     448:	00000101 	andeq	r0, r0, r1, lsl #2
     44c:	00000100 	andeq	r0, r0, r0, lsl #2
     450:	73752f01 	cmnvc	r5, #1, 30
     454:	6f6c2f72 	svcvs	0x006c2f72
     458:	2f6c6163 	svccs	0x006c6163
     45c:	6c6c6543 	cfstr64vs	mvdx6, [ip], #-268	; 0xfffffef4
     460:	612f7261 	teqvs	pc, r1, ror #4
     464:	6e2d6d72 	mcrvs	13, 1, r6, cr13, cr2, {3}
     468:	2d656e6f 	stclcs	14, cr6, [r5, #-444]!	; 0xfffffe44
     46c:	69626165 	stmdbvs	r2!, {r0, r2, r5, r6, r8, sp, lr}^
     470:	382e342f 	stmdacc	lr!, {r0, r1, r2, r3, r5, sl, ip, sp}
     474:	632d332e 	teqvs	sp, #-1207959552	; 0xb8000000
     478:	30373173 	eorscc	r3, r7, r3, ror r1
     47c:	696c2f65 	stmdbvs	ip!, {r0, r2, r5, r6, r8, r9, sl, fp, sp}^
     480:	63672f62 	cmnvs	r7, #392	; 0x188
     484:	72612f63 	rsbvc	r2, r1, #396	; 0x18c
     488:	6f6e2d6d 	svcvs	0x006e2d6d
     48c:	652d656e 	strvs	r6, [sp, #-1390]!	; 0x56e
     490:	2f696261 	svccs	0x00696261
     494:	2e382e34 	mrccs	14, 1, r2, cr8, cr4, {1}
     498:	6e692f33 	mcrvs	15, 3, r2, cr9, cr3, {1}
     49c:	64756c63 	ldrbtvs	r6, [r5], #-3171	; 0xc63
     4a0:	552f0065 	strpl	r0, [pc, #-101]!	; 443 <__code_start__-0x7bbd>
     4a4:	73726573 	cmnvc	r2, #482344960	; 0x1cc00000
     4a8:	6972622f 	ldmdbvs	r2!, {r0, r1, r2, r3, r5, r9, sp, lr}^
     4ac:	756a6e61 	strbvc	r6, [sl, #-3681]!	; 0xe61
     4b0:	65442f6e 	strbvs	r2, [r4, #-3950]	; 0xf6e
     4b4:	6f746b73 	svcvs	0x00746b73
     4b8:	63732f70 	cmnvs	r3, #112, 30	; 0x1c0
     4bc:	6c6f6f68 	stclvs	15, cr6, [pc], #-416	; 324 <__code_start__-0x7cdc>
     4c0:	7270532f 	rsbsvc	r5, r0, #-1140850688	; 0xbc000000
     4c4:	31676e69 	cmncc	r7, r9, ror #28
     4c8:	2f303239 	svccs	0x00303239
     4cc:	34325343 	ldrtcc	r5, [r2], #-835	; 0x343
     4d0:	2f584c30 	svccs	0x00584c30
     4d4:	34327363 	ldrtcc	r7, [r2], #-867	; 0x363
     4d8:	2d786c30 	ldclcs	12, cr6, [r8, #-192]!	; 0xffffff40
     4dc:	70733032 	rsbsvc	r3, r3, r2, lsr r0
     4e0:	696c2f72 	stmdbvs	ip!, {r1, r4, r5, r6, r8, r9, sl, fp, sp}^
     4e4:	2f697062 	svccs	0x00697062
     4e8:	6362696c 	cmnvs	r2, #108, 18	; 0x1b0000
     4ec:	73552f00 	cmpvc	r5, #0, 30
     4f0:	2f737265 	svccs	0x00737265
     4f4:	61697262 	cmnvs	r9, r2, ror #4
     4f8:	6e756a6e 	vsubvs.f32	s13, s10, s29
     4fc:	7365442f 	cmnvc	r5, #788529152	; 0x2f000000
     500:	706f746b 	rsbvc	r7, pc, fp, ror #8
     504:	6863732f 	stmdavs	r3!, {r0, r1, r2, r3, r5, r8, r9, ip, sp, lr}^
     508:	2f6c6f6f 	svccs	0x006c6f6f
     50c:	69727053 	ldmdbvs	r2!, {r0, r1, r4, r6, ip, sp, lr}^
     510:	3931676e 	ldmdbcc	r1!, {r1, r2, r3, r5, r6, r8, r9, sl, sp, lr}
     514:	432f3032 	teqmi	pc, #50	; 0x32
     518:	30343253 	eorscc	r3, r4, r3, asr r2
     51c:	632f584c 	teqvs	pc, #76, 16	; 0x4c0000
     520:	30343273 	eorscc	r3, r4, r3, ror r2
     524:	322d786c 	eorcc	r7, sp, #108, 16	; 0x6c0000
     528:	72707330 	rsbsvc	r7, r0, #48, 6	; 0xc0000000
     52c:	62696c2f 	rsbvs	r6, r9, #12032	; 0x2f00
     530:	692f6970 	stmdbvs	pc!, {r4, r5, r6, r8, fp, sp, lr}	; <UNPREDICTABLE>
     534:	756c636e 	strbvc	r6, [ip, #-878]!	; 0x36e
     538:	00006564 	andeq	r6, r0, r4, ror #10
     53c:	2d756d6d 	ldclcs	13, cr6, [r5, #-436]!	; 0xfffffe4c
     540:	706c6568 	rsbvc	r6, ip, r8, ror #10
     544:	2e737265 	cdpcs	2, 7, cr7, cr3, cr5, {3}
     548:	00000063 	andeq	r0, r0, r3, rrx
     54c:	6d726100 	ldfvse	f6, [r2, #-0]
     550:	632d3676 	teqvs	sp, #123731968	; 0x7600000
     554:	2e353170 	mrccs	1, 1, r3, cr5, cr0, {3}
     558:	00000068 	andeq	r0, r0, r8, rrx
     55c:	6d726100 	ldfvse	f6, [r2, #-0]
     560:	762d3676 			; <UNDEFINED> instruction: 0x762d3676
     564:	00682e6d 	rsbeq	r2, r8, sp, ror #28
     568:	73000000 	movwvc	r0, #0
     56c:	6e696474 	mcrvs	4, 3, r6, cr9, cr4, {3}
     570:	63672d74 	cmnvs	r7, #116, 26	; 0x1d00
     574:	00682e63 	rsbeq	r2, r8, r3, ror #28
     578:	6c000001 	stcvs	0, cr0, [r0], {1}
     57c:	2d636269 	sfmcs	f6, 2, [r3, #-420]!	; 0xfffffe5c
     580:	72747865 	rsbsvc	r7, r4, #6619136	; 0x650000
     584:	00682e61 	rsbeq	r2, r8, r1, ror #28
     588:	72000002 	andvc	r0, r0, #2
     58c:	682e6970 	stmdavs	lr!, {r4, r5, r6, r8, fp, sp, lr}
     590:	00000300 	andeq	r0, r0, r0, lsl #6
     594:	2e756d6d 	cdpcs	13, 7, cr6, cr5, cr13, {3}
     598:	00000068 	andeq	r0, r0, r8, rrx
     59c:	05000000 	streq	r0, [r0, #-0]
     5a0:	008bf402 	addeq	pc, fp, r2, lsl #8
     5a4:	010e0300 	mrseq	r0, ELR_hyp
     5a8:	2f430867 	svccs	0x00430867
     5ac:	1903dd4b 	stmdbne	r3, {r0, r1, r3, r6, r8, sl, fp, ip, lr, pc}
     5b0:	004c014a 	subeq	r0, ip, sl, asr #2
     5b4:	06010402 	streq	r0, [r1], -r2, lsl #8
     5b8:	2108069e 			; <UNDEFINED> instruction: 0x2108069e
     5bc:	01040200 	mrseq	r0, R12_usr
     5c0:	08066606 	stmdaeq	r6, {r1, r2, r9, sl, sp, lr}
     5c4:	04020021 	streq	r0, [r2], #-33	; 0x21
     5c8:	06660601 	strbteq	r0, [r6], -r1, lsl #12
     5cc:	02002308 	andeq	r2, r0, #8, 6	; 0x20000000
     5d0:	66060104 	strvs	r0, [r6], -r4, lsl #2
     5d4:	00210806 	eoreq	r0, r1, r6, lsl #16
     5d8:	06010402 	streq	r0, [r1], -r2, lsl #8
     5dc:	21080666 	tstcs	r8, r6, ror #12
     5e0:	01040200 	mrseq	r0, R12_usr
     5e4:	03066606 	movweq	r6, #26118	; 0x6606
     5e8:	00200809 	eoreq	r0, r0, r9, lsl #16
     5ec:	06010402 	streq	r0, [r1], -r2, lsl #8
     5f0:	21080666 	tstcs	r8, r6, ror #12
     5f4:	01040200 	mrseq	r0, R12_usr
     5f8:	08066606 	stmdaeq	r6, {r1, r2, r9, sl, sp, lr}
     5fc:	04020021 	streq	r0, [r2], #-33	; 0x21
     600:	06660601 	strbteq	r0, [r6], -r1, lsl #12
     604:	ae082108 	adfgee	f2, f0, #0.0
     608:	bb4b304b 	bllt	12cc73c <__bss_end__+0x12bfd74>
     60c:	9fbbbbbb 	svcls	0x00bbbbbb
     610:	bbbbbb9f 	bllt	feeef494 <__bss_end__+0xfeee2acc>
     614:	9fbbbbbb 	svcls	0x00bbbbbb
     618:	bbbbbb9f 	bllt	feeef49c <__bss_end__+0xfeee2ad4>
     61c:	50193402 	andspl	r3, r9, r2, lsl #8
     620:	834b4b01 	movthi	r4, #47873	; 0xbb01
     624:	004bf867 	subeq	pc, fp, r7, ror #16
     628:	06010402 	streq	r0, [r1], -r2, lsl #8
     62c:	21080666 	tstcs	r8, r6, ror #12
     630:	01040200 	mrseq	r0, R12_usr
     634:	08068206 	stmdaeq	r6, {r1, r2, r9, pc}
     638:	04020021 	streq	r0, [r2], #-33	; 0x21
     63c:	06660601 	strbteq	r0, [r6], -r1, lsl #12
     640:	02002108 	andeq	r2, r0, #8, 2
     644:	66060104 	strvs	r0, [r6], -r4, lsl #2
     648:	00210806 	eoreq	r0, r1, r6, lsl #16
     64c:	06010402 	streq	r0, [r1], -r2, lsl #8
     650:	21080666 	tstcs	r8, r6, ror #12
     654:	01040200 	mrseq	r0, R12_usr
     658:	08066606 	stmdaeq	r6, {r1, r2, r9, sl, sp, lr}
     65c:	04020021 	streq	r0, [r2], #-33	; 0x21
     660:	06660601 	strbteq	r0, [r6], -r1, lsl #12
     664:	02002108 	andeq	r2, r0, #8, 2
     668:	66060104 	strvs	r0, [r6], -r4, lsl #2
     66c:	08210806 	stmdaeq	r1!, {r1, r2, fp}
     670:	4b4c1593 	blmi	1305cc4 <__bss_end__+0x12f92fc>
     674:	4a110367 	bmi	441418 <__bss_end__+0x434a50>
     678:	01040200 	mrseq	r0, R12_usr
     67c:	02006606 	andeq	r6, r0, #6291456	; 0x600000
     680:	c8080204 	stmdagt	r8, {r2, r9}
     684:	01040200 	mrseq	r0, R12_usr
     688:	2108064a 	tstcs	r8, sl, asr #12
     68c:	4b4b2208 	blmi	12c8eb4 <__bss_end__+0x12bc4ec>
     690:	04020067 	streq	r0, [r2], #-103	; 0x67
     694:	20080601 	andcs	r0, r8, r1, lsl #12
     698:	4c9f4b06 	vldmiami	pc, {d4-d6}
     69c:	bb9f9fbb 	bllt	fe7e8590 <__bss_end__+0xfe7dbbc8>
     6a0:	0200bbbb 	andeq	fp, r0, #191488	; 0x2ec00
     6a4:	08060104 	stmdaeq	r6, {r2, r8}
     6a8:	bb4b0658 	bllt	12c2010 <__bss_end__+0x12b5648>
     6ac:	02a0bbbb 	adceq	fp, r0, #191488	; 0x2ec00
     6b0:	2f2f192a 	svccs	0x002f192a
     6b4:	0004022f 	andeq	r0, r4, pc, lsr #4
     6b8:	02310101 	eorseq	r0, r1, #1073741824	; 0x40000000
     6bc:	00020000 	andeq	r0, r2, r0
     6c0:	0000011f 	andeq	r0, r0, pc, lsl r1
     6c4:	0efb0102 	cdpeq	1, 15, cr0, cr11, cr2, {0}
     6c8:	0101000d 	tsteq	r1, sp
     6cc:	00000101 	andeq	r0, r0, r1, lsl #2
     6d0:	00000100 	andeq	r0, r0, r0, lsl #2
     6d4:	73752f01 	cmnvc	r5, #1, 30
     6d8:	6f6c2f72 	svcvs	0x006c2f72
     6dc:	2f6c6163 	svccs	0x006c6163
     6e0:	6c6c6543 	cfstr64vs	mvdx6, [ip], #-268	; 0xfffffef4
     6e4:	612f7261 	teqvs	pc, r1, ror #4
     6e8:	6e2d6d72 	mcrvs	13, 1, r6, cr13, cr2, {3}
     6ec:	2d656e6f 	stclcs	14, cr6, [r5, #-444]!	; 0xfffffe44
     6f0:	69626165 	stmdbvs	r2!, {r0, r2, r5, r6, r8, sp, lr}^
     6f4:	382e342f 	stmdacc	lr!, {r0, r1, r2, r3, r5, sl, ip, sp}
     6f8:	632d332e 	teqvs	sp, #-1207959552	; 0xb8000000
     6fc:	30373173 	eorscc	r3, r7, r3, ror r1
     700:	696c2f65 	stmdbvs	ip!, {r0, r2, r5, r6, r8, r9, sl, fp, sp}^
     704:	63672f62 	cmnvs	r7, #392	; 0x188
     708:	72612f63 	rsbvc	r2, r1, #396	; 0x18c
     70c:	6f6e2d6d 	svcvs	0x006e2d6d
     710:	652d656e 	strvs	r6, [sp, #-1390]!	; 0x56e
     714:	2f696261 	svccs	0x00696261
     718:	2e382e34 	mrccs	14, 1, r2, cr8, cr4, {1}
     71c:	6e692f33 	mcrvs	15, 3, r2, cr9, cr3, {1}
     720:	64756c63 	ldrbtvs	r6, [r5], #-3171	; 0xc63
     724:	552f0065 	strpl	r0, [pc, #-101]!	; 6c7 <__code_start__-0x7939>
     728:	73726573 	cmnvc	r2, #482344960	; 0x1cc00000
     72c:	6972622f 	ldmdbvs	r2!, {r0, r1, r2, r3, r5, r9, sp, lr}^
     730:	756a6e61 	strbvc	r6, [sl, #-3681]!	; 0xe61
     734:	65442f6e 	strbvs	r2, [r4, #-3950]	; 0xf6e
     738:	6f746b73 	svcvs	0x00746b73
     73c:	63732f70 	cmnvs	r3, #112, 30	; 0x1c0
     740:	6c6f6f68 	stclvs	15, cr6, [pc], #-416	; 5a8 <__code_start__-0x7a58>
     744:	7270532f 	rsbsvc	r5, r0, #-1140850688	; 0xbc000000
     748:	31676e69 	cmncc	r7, r9, ror #28
     74c:	2f303239 	svccs	0x00303239
     750:	34325343 	ldrtcc	r5, [r2], #-835	; 0x343
     754:	2f584c30 	svccs	0x00584c30
     758:	34327363 	ldrtcc	r7, [r2], #-867	; 0x363
     75c:	2d786c30 	ldclcs	12, cr6, [r8, #-192]!	; 0xffffff40
     760:	70733032 	rsbsvc	r3, r3, r2, lsr r0
     764:	696c2f72 	stmdbvs	ip!, {r1, r4, r5, r6, r8, r9, sl, fp, sp}^
     768:	2f697062 	svccs	0x00697062
     76c:	6c636e69 	stclvs	14, cr6, [r3], #-420	; 0xfffffe5c
     770:	00656475 	rsbeq	r6, r5, r5, ror r4
     774:	6d656d00 	stclvs	13, cr6, [r5, #-0]
     778:	63656863 	cmnvs	r5, #6488064	; 0x630000
     77c:	00632e6b 	rsbeq	r2, r3, fp, ror #28
     780:	62000000 	andvs	r0, r0, #0
     784:	732d7469 	teqvc	sp, #1761607680	; 0x69000000
     788:	6f707075 	svcvs	0x00707075
     78c:	682e7472 	stmdavs	lr!, {r1, r4, r5, r6, sl, ip, sp, lr}
     790:	00000000 	andeq	r0, r0, r0
     794:	34317063 	ldrtcc	r7, [r1], #-99	; 0x63
     798:	6265642d 	rsbvs	r6, r5, #754974720	; 0x2d000000
     79c:	682e6775 	stmdavs	lr!, {r0, r2, r4, r5, r6, r8, r9, sl, sp, lr}
     7a0:	00000000 	andeq	r0, r0, r0
     7a4:	766d7261 	strbtvc	r7, [sp], -r1, ror #4
     7a8:	6d762d36 	ldclvs	13, cr2, [r6, #-216]!	; 0xffffff28
     7ac:	0000682e 	andeq	r6, r0, lr, lsr #16
     7b0:	74730000 	ldrbtvc	r0, [r3], #-0
     7b4:	746e6964 	strbtvc	r6, [lr], #-2404	; 0x964
     7b8:	6363672d 	cmnvs	r3, #11796480	; 0xb40000
     7bc:	0100682e 	tsteq	r0, lr, lsr #16
     7c0:	656d0000 	strbvs	r0, [sp, #-0]!
     7c4:	6568636d 	strbvs	r6, [r8, #-877]!	; 0x36d
     7c8:	682e6b63 	stmdavs	lr!, {r0, r1, r5, r6, r8, r9, fp, sp, lr}
     7cc:	00000000 	andeq	r0, r0, r0
     7d0:	2e697072 	mcrcs	0, 3, r7, cr9, cr2, {3}
     7d4:	00020068 	andeq	r0, r2, r8, rrx
     7d8:	756d6d00 	strbvc	r6, [sp, #-3328]!	; 0xd00
     7dc:	0000682e 	andeq	r6, r0, lr, lsr #16
     7e0:	00000000 	andeq	r0, r0, r0
     7e4:	95080205 	strls	r0, [r8, #-517]	; 0x205
     7e8:	1d030000 	stcne	0, cr0, [r3, #-0]
     7ec:	67672f01 	strbvs	r2, [r7, -r1, lsl #30]!
     7f0:	4b9fc013 	blmi	fe7f0844 <__bss_end__+0xfe7e3e7c>
     7f4:	01040200 	mrseq	r0, R12_usr
     7f8:	08066606 	stmdaeq	r6, {r1, r2, r9, sl, sp, lr}
     7fc:	04020021 	streq	r0, [r2], #-33	; 0x21
     800:	06660601 	strbteq	r0, [r6], -r1, lsl #12
     804:	02002108 	andeq	r2, r0, #8, 2
     808:	66060104 	strvs	r0, [r6], -r4, lsl #2
     80c:	d7210806 	strle	r0, [r1, -r6, lsl #16]!
     810:	3c080d03 	stccc	13, cr0, [r8], {3}
     814:	02042f67 	andeq	r2, r4, #412	; 0x19c
     818:	08666003 	stmdaeq	r6!, {r0, r1, sp, lr}^
     81c:	4b590859 	blmi	1642988 <__bss_end__+0x1635fc0>
     820:	1e030104 	adfnes	f0, f3, f4
     824:	0083f64a 	addeq	pc, r3, sl, asr #12
     828:	06010402 	streq	r0, [r1], -r2, lsl #8
     82c:	2108064a 	tstcs	r8, sl, asr #12
     830:	01040200 	mrseq	r0, R12_usr
     834:	08064a06 	stmdaeq	r6, {r1, r2, r9, fp, lr}
     838:	4c2d2f22 	stcmi	15, cr2, [sp], #-136	; 0xffffff78
     83c:	d609034b 	strle	r0, [r9], -fp, asr #6
     840:	9e240313 	mcrls	3, 1, r0, cr4, cr3, {0}
     844:	68030304 	stmdavs	r3, {r2, r8, r9}
     848:	01043266 	tsteq	r4, r6, ror #4
     84c:	4d2e2003 	stcmi	0, cr2, [lr, #-12]!
     850:	3c028467 	cfstrscc	mvf8, [r2], {103}	; 0x67
     854:	d9d9d914 	ldmible	r9, {r2, r4, r8, fp, ip, lr, pc}^
     858:	a1d9d9d9 	ldrsbge	sp, [r9, #153]	; 0x99
     85c:	a0834bd9 	ldrdge	r4, [r3], r9
     860:	f5d94f83 			; <UNDEFINED> instruction: 0xf5d94f83
     864:	d9d9d9d9 	ldmible	r9, {r0, r3, r4, r6, r7, r8, fp, ip, lr, pc}^
     868:	d9d9d9d9 	ldmible	r9, {r0, r3, r4, r6, r7, r8, fp, ip, lr, pc}^
     86c:	02d61403 	sbcseq	r1, r6, #50331648	; 0x3000000
     870:	2f2f153a 	svccs	0x002f153a
     874:	3c080c03 	stccc	12, cr0, [r8], {3}
     878:	02002f4c 	andeq	r2, r0, #76, 30	; 0x130
     87c:	66060104 	strvs	r0, [r6], -r4, lsl #2
     880:	9f240806 	svcls	0x00240806
     884:	01040200 	mrseq	r0, R12_usr
     888:	08064a06 	stmdaeq	r6, {r1, r2, r9, fp, lr}
     88c:	a2bc8425 	adcsge	r8, ip, #620756992	; 0x25000000
     890:	a1a19f9f 	strexdge	r9, pc, [r1]
     894:	08834d34 	stmeq	r3, {r2, r4, r5, r8, sl, fp, lr}
     898:	2fa04b5c 	svccs	0x00a04b5c
     89c:	01040200 	mrseq	r0, R12_usr
     8a0:	08066606 	stmdaeq	r6, {r1, r2, r9, sl, sp, lr}
     8a4:	23089f21 	movwcs	r9, #36641	; 0x8f21
     8a8:	02002f4c 	andeq	r2, r0, #76, 30	; 0x130
     8ac:	66060104 	strvs	r0, [r6], -r4, lsl #2
     8b0:	9f210806 	svcls	0x00210806
     8b4:	020067f4 	andeq	r6, r0, #244, 14	; 0x3d00000
     8b8:	66060104 	strvs	r0, [r6], -r4, lsl #2
     8bc:	bb230806 	bllt	8c28dc <__bss_end__+0x8b5f14>
     8c0:	020067d8 	andeq	r6, r0, #216, 14	; 0x3600000
     8c4:	66060104 	strvs	r0, [r6], -r4, lsl #2
     8c8:	bb230806 	bllt	8c28e8 <__bss_end__+0x8b5f20>
     8cc:	da302ff4 	ble	c0c8a4 <__bss_end__+0xbffedc>
     8d0:	4b6a4b2f 	blmi	1a93594 <__bss_end__+0x1a86bcc>
     8d4:	04020067 	streq	r0, [r2], #-103	; 0x67
     8d8:	06660601 	strbteq	r0, [r6], -r1, lsl #12
     8dc:	4bbb2108 	blmi	feec8d04 <__bss_end__+0xfeebc33c>
     8e0:	04020067 	streq	r0, [r2], #-103	; 0x67
     8e4:	06660601 	strbteq	r0, [r6], -r1, lsl #12
     8e8:	0c022108 	stfeqs	f2, [r2], {8}
     8ec:	de010100 	adfles	f0, f1, f0
     8f0:	02000000 	andeq	r0, r0, #0
     8f4:	00008300 	andeq	r8, r0, r0, lsl #6
     8f8:	fb010200 	blx	41102 <__bss_end__+0x3473a>
     8fc:	01000d0e 	tsteq	r0, lr, lsl #26
     900:	00010101 	andeq	r0, r1, r1, lsl #2
     904:	00010000 	andeq	r0, r1, r0
     908:	696c0100 	stmdbvs	ip!, {r8}^
     90c:	2f006362 	svccs	0x00006362
     910:	2f727375 	svccs	0x00727375
     914:	61636f6c 	cmnvs	r3, ip, ror #30
     918:	65432f6c 	strbvs	r2, [r3, #-3948]	; 0xf6c
     91c:	72616c6c 	rsbvc	r6, r1, #108, 24	; 0x6c00
     920:	6d72612f 	ldfvse	f6, [r2, #-188]!	; 0xffffff44
     924:	6e6f6e2d 	cdpvs	14, 6, cr6, cr15, cr13, {1}
     928:	61652d65 	cmnvs	r5, r5, ror #26
     92c:	342f6962 	strtcc	r6, [pc], #-2402	; 934 <__code_start__-0x76cc>
     930:	332e382e 	teqcc	lr, #3014656	; 0x2e0000
     934:	3173632d 	cmncc	r3, sp, lsr #6
     938:	2f653037 	svccs	0x00653037
     93c:	2f62696c 	svccs	0x0062696c
     940:	2f636367 	svccs	0x00636367
     944:	2d6d7261 	sfmcs	f7, 2, [sp, #-388]!	; 0xfffffe7c
     948:	656e6f6e 	strbvs	r6, [lr, #-3950]!	; 0xf6e
     94c:	6261652d 	rsbvs	r6, r1, #188743680	; 0xb400000
     950:	2e342f69 	cdpcs	15, 3, cr2, cr4, cr9, {3}
     954:	2f332e38 	svccs	0x00332e38
     958:	6c636e69 	stclvs	14, cr6, [r3], #-420	; 0xfffffe5c
     95c:	00656475 	rsbeq	r6, r5, r5, ror r4
     960:	73616800 	cmnvc	r1, #0, 16
     964:	00632e68 	rsbeq	r2, r3, r8, ror #28
     968:	73000001 	movwvc	r0, #1
     96c:	6e696474 	mcrvs	4, 3, r6, cr9, cr4, {3}
     970:	63672d74 	cmnvs	r7, #116, 26	; 0x1d00
     974:	00682e63 	rsbeq	r2, r8, r3, ror #28
     978:	00000002 	andeq	r0, r0, r2
     97c:	dc020500 	cfstr32le	mvfx0, [r2], {-0}
     980:	030000a2 	movweq	r0, #162	; 0xa2
     984:	3130010e 	teqcc	r0, lr, lsl #2
     988:	00312f84 	eorseq	r2, r1, r4, lsl #31
     98c:	2f020402 	svccs	0x00020402
     990:	02040200 	andeq	r0, r4, #0, 4
     994:	04020083 	streq	r0, [r2], #-131	; 0x83
     998:	02008302 	andeq	r8, r0, #134217728	; 0x8000000
     99c:	002f0204 	eoreq	r0, pc, r4, lsl #4
     9a0:	2f020402 	svccs	0x00020402
     9a4:	02040200 	andeq	r0, r4, #0, 4
     9a8:	04020029 	streq	r0, [r2], #-41	; 0x29
     9ac:	062e0601 	strteq	r0, [lr], -r1, lsl #12
     9b0:	d74a0903 	strble	r0, [sl, -r3, lsl #18]
     9b4:	2f4b2f83 	svccs	0x004b2f83
     9b8:	2f2f832f 	svccs	0x002f832f
     9bc:	322f4b2f 	eorcc	r4, pc, #48128	; 0xbc00
     9c0:	2f2f2f2f 	svccs	0x002f2f2f
     9c4:	5a03302f 	bpl	cca88 <__bss_end__+0xc00c0>
     9c8:	2e27032e 	cdpcs	3, 2, cr0, cr7, cr14, {1}
     9cc:	01000402 	tsteq	r0, r2, lsl #8
     9d0:	0000ec01 	andeq	lr, r0, r1, lsl #24
     9d4:	d0000200 	andle	r0, r0, r0, lsl #4
     9d8:	02000000 	andeq	r0, r0, #0
     9dc:	0d0efb01 	vstreq	d15, [lr, #-4]
     9e0:	01010100 	mrseq	r0, (UNDEF: 17)
     9e4:	00000001 	andeq	r0, r0, r1
     9e8:	01000001 	tsteq	r0, r1
     9ec:	6362696c 	cmnvs	r2, #108, 18	; 0x1b0000
     9f0:	73752f00 	cmnvc	r5, #0, 30
     9f4:	6f6c2f72 	svcvs	0x006c2f72
     9f8:	2f6c6163 	svccs	0x006c6163
     9fc:	6c6c6543 	cfstr64vs	mvdx6, [ip], #-268	; 0xfffffef4
     a00:	612f7261 	teqvs	pc, r1, ror #4
     a04:	6e2d6d72 	mcrvs	13, 1, r6, cr13, cr2, {3}
     a08:	2d656e6f 	stclcs	14, cr6, [r5, #-444]!	; 0xfffffe44
     a0c:	69626165 	stmdbvs	r2!, {r0, r2, r5, r6, r8, sp, lr}^
     a10:	382e342f 	stmdacc	lr!, {r0, r1, r2, r3, r5, sl, ip, sp}
     a14:	632d332e 	teqvs	sp, #-1207959552	; 0xb8000000
     a18:	30373173 	eorscc	r3, r7, r3, ror r1
     a1c:	696c2f65 	stmdbvs	ip!, {r0, r2, r5, r6, r8, r9, sl, fp, sp}^
     a20:	63672f62 	cmnvs	r7, #392	; 0x188
     a24:	72612f63 	rsbvc	r2, r1, #396	; 0x18c
     a28:	6f6e2d6d 	svcvs	0x006e2d6d
     a2c:	652d656e 	strvs	r6, [sp, #-1390]!	; 0x56e
     a30:	2f696261 	svccs	0x00696261
     a34:	2e382e34 	mrccs	14, 1, r2, cr8, cr4, {1}
     a38:	6e692f33 	mcrvs	15, 3, r2, cr9, cr3, {1}
     a3c:	64756c63 	ldrbtvs	r6, [r5], #-3171	; 0xc63
     a40:	752f0065 	strvc	r0, [pc, #-101]!	; 9e3 <__code_start__-0x761d>
     a44:	6c2f7273 	sfmvs	f7, 4, [pc], #-460	; 880 <__code_start__-0x7780>
     a48:	6c61636f 	stclvs	3, cr6, [r1], #-444	; 0xfffffe44
     a4c:	6c65432f 	stclvs	3, cr4, [r5], #-188	; 0xffffff44
     a50:	2f72616c 	svccs	0x0072616c
     a54:	2d6d7261 	sfmcs	f7, 2, [sp, #-388]!	; 0xfffffe7c
     a58:	656e6f6e 	strbvs	r6, [lr, #-3950]!	; 0xf6e
     a5c:	6261652d 	rsbvs	r6, r1, #188743680	; 0xb400000
     a60:	2e342f69 	cdpcs	15, 3, cr2, cr4, cr9, {3}
     a64:	2d332e38 	ldccs	14, cr2, [r3, #-224]!	; 0xffffff20
     a68:	37317363 	ldrcc	r7, [r1, -r3, ror #6]!
     a6c:	612f6530 	teqvs	pc, r0, lsr r5	; <UNPREDICTABLE>
     a70:	6e2d6d72 	mcrvs	13, 1, r6, cr13, cr2, {3}
     a74:	2d656e6f 	stclcs	14, cr6, [r5, #-444]!	; 0xfffffe44
     a78:	69626165 	stmdbvs	r2!, {r0, r2, r5, r6, r8, sp, lr}^
     a7c:	636e692f 	cmnvs	lr, #770048	; 0xbc000
     a80:	6564756c 	strbvs	r7, [r4, #-1388]!	; 0x56c
     a84:	656d0000 	strbvs	r0, [sp, #-0]!
     a88:	7465736d 	strbtvc	r7, [r5], #-877	; 0x36d
     a8c:	0100632e 	tsteq	r0, lr, lsr #6
     a90:	74730000 	ldrbtvc	r0, [r3], #-0
     a94:	66656464 	strbtvs	r6, [r5], -r4, ror #8
     a98:	0200682e 	andeq	r6, r0, #3014656	; 0x2e0000
     a9c:	74730000 	ldrbtvc	r0, [r3], #-0
     aa0:	676e6972 			; <UNDEFINED> instruction: 0x676e6972
     aa4:	0300682e 	movweq	r6, #2094	; 0x82e
     aa8:	00000000 	andeq	r0, r0, r0
     aac:	a3cc0205 	bicge	r0, ip, #1342177280	; 0x50000000
     ab0:	13140000 	tstne	r4, #0
     ab4:	02002f4c 	andeq	r2, r0, #76, 30	; 0x130
     ab8:	4d490104 	stfmie	f0, [r9, #-16]
     abc:	01000202 	tsteq	r0, r2, lsl #4
     ac0:	00010c01 	andeq	r0, r1, r1, lsl #24
     ac4:	f5000200 			; <UNDEFINED> instruction: 0xf5000200
     ac8:	02000000 	andeq	r0, r0, #0
     acc:	0d0efb01 	vstreq	d15, [lr, #-4]
     ad0:	01010100 	mrseq	r0, (UNDEF: 17)
     ad4:	00000001 	andeq	r0, r0, r1
     ad8:	01000001 	tsteq	r0, r1
     adc:	6362696c 	cmnvs	r2, #108, 18	; 0x1b0000
     ae0:	73752f00 	cmnvc	r5, #0, 30
     ae4:	6f6c2f72 	svcvs	0x006c2f72
     ae8:	2f6c6163 	svccs	0x006c6163
     aec:	6c6c6543 	cfstr64vs	mvdx6, [ip], #-268	; 0xfffffef4
     af0:	612f7261 	teqvs	pc, r1, ror #4
     af4:	6e2d6d72 	mcrvs	13, 1, r6, cr13, cr2, {3}
     af8:	2d656e6f 	stclcs	14, cr6, [r5, #-444]!	; 0xfffffe44
     afc:	69626165 	stmdbvs	r2!, {r0, r2, r5, r6, r8, sp, lr}^
     b00:	382e342f 	stmdacc	lr!, {r0, r1, r2, r3, r5, sl, ip, sp}
     b04:	632d332e 	teqvs	sp, #-1207959552	; 0xb8000000
     b08:	30373173 	eorscc	r3, r7, r3, ror r1
     b0c:	696c2f65 	stmdbvs	ip!, {r0, r2, r5, r6, r8, r9, sl, fp, sp}^
     b10:	63672f62 	cmnvs	r7, #392	; 0x188
     b14:	72612f63 	rsbvc	r2, r1, #396	; 0x18c
     b18:	6f6e2d6d 	svcvs	0x006e2d6d
     b1c:	652d656e 	strvs	r6, [sp, #-1390]!	; 0x56e
     b20:	2f696261 	svccs	0x00696261
     b24:	2e382e34 	mrccs	14, 1, r2, cr8, cr4, {1}
     b28:	6e692f33 	mcrvs	15, 3, r2, cr9, cr3, {1}
     b2c:	64756c63 	ldrbtvs	r6, [r5], #-3171	; 0xc63
     b30:	552f0065 	strpl	r0, [pc, #-101]!	; ad3 <__code_start__-0x752d>
     b34:	73726573 	cmnvc	r2, #482344960	; 0x1cc00000
     b38:	6972622f 	ldmdbvs	r2!, {r0, r1, r2, r3, r5, r9, sp, lr}^
     b3c:	756a6e61 	strbvc	r6, [sl, #-3681]!	; 0xe61
     b40:	65442f6e 	strbvs	r2, [r4, #-3950]	; 0xf6e
     b44:	6f746b73 	svcvs	0x00746b73
     b48:	63732f70 	cmnvs	r3, #112, 30	; 0x1c0
     b4c:	6c6f6f68 	stclvs	15, cr6, [pc], #-416	; 9b4 <__code_start__-0x764c>
     b50:	7270532f 	rsbsvc	r5, r0, #-1140850688	; 0xbc000000
     b54:	31676e69 	cmncc	r7, r9, ror #28
     b58:	2f303239 	svccs	0x00303239
     b5c:	34325343 	ldrtcc	r5, [r2], #-835	; 0x343
     b60:	2f584c30 	svccs	0x00584c30
     b64:	34327363 	ldrtcc	r7, [r2], #-867	; 0x363
     b68:	2d786c30 	ldclcs	12, cr6, [r8, #-192]!	; 0xffffff40
     b6c:	70733032 	rsbsvc	r3, r3, r2, lsr r0
     b70:	696c2f72 	stmdbvs	ip!, {r1, r4, r5, r6, r8, r9, sl, fp, sp}^
     b74:	2f697062 	svccs	0x00697062
     b78:	6c636e69 	stclvs	14, cr6, [r3], #-420	; 0xfffffe5c
     b7c:	00656475 	rsbeq	r6, r5, r5, ror r4
     b80:	69727000 	ldmdbvs	r2!, {ip, sp, lr}^
     b84:	2e6b746e 	cdpcs	4, 6, cr7, cr11, cr14, {3}
     b88:	00010063 	andeq	r0, r1, r3, rrx
     b8c:	64747300 	ldrbtvs	r7, [r4], #-768	; 0x300
     b90:	2e677261 	cdpcs	2, 6, cr7, cr7, cr1, {3}
     b94:	00020068 	andeq	r0, r2, r8, rrx
     b98:	75623c00 	strbvc	r3, [r2, #-3072]!	; 0xc00
     b9c:	2d746c69 	ldclcs	12, cr6, [r4, #-420]!	; 0xfffffe5c
     ba0:	003e6e69 	eorseq	r6, lr, r9, ror #28
     ba4:	72000000 	andvc	r0, r0, #0
     ba8:	682e6970 	stmdavs	lr!, {r4, r5, r6, r8, fp, sp, lr}
     bac:	00000300 	andeq	r0, r0, r0, lsl #6
     bb0:	702d6176 	eorvc	r6, sp, r6, ror r1
     bb4:	746e6972 	strbtvc	r6, [lr], #-2418	; 0x972
     bb8:	00682e6b 	rsbeq	r2, r8, fp, ror #28
     bbc:	00000001 	andeq	r0, r0, r1
     bc0:	ec020500 	cfstr32	mvfx0, [r2], {-0}
     bc4:	170000a3 	strne	r0, [r0, -r3, lsr #1]
     bc8:	89bf4b6b 	ldmibhi	pc!, {r0, r1, r3, r5, r6, r8, r9, fp, lr}	; <UNPREDICTABLE>
     bcc:	01000e02 	tsteq	r0, r2, lsl #28
     bd0:	00009401 	andeq	r9, r0, r1, lsl #8
     bd4:	7c000200 	sfmvc	f0, 4, [r0], {-0}
     bd8:	02000000 	andeq	r0, r0, #0
     bdc:	0d0efb01 	vstreq	d15, [lr, #-4]
     be0:	01010100 	mrseq	r0, (UNDEF: 17)
     be4:	00000001 	andeq	r0, r0, r1
     be8:	01000001 	tsteq	r0, r1
     bec:	6362696c 	cmnvs	r2, #108, 18	; 0x1b0000
     bf0:	73552f00 	cmpvc	r5, #0, 30
     bf4:	2f737265 	svccs	0x00737265
     bf8:	61697262 	cmnvs	r9, r2, ror #4
     bfc:	6e756a6e 	vsubvs.f32	s13, s10, s29
     c00:	7365442f 	cmnvc	r5, #788529152	; 0x2f000000
     c04:	706f746b 	rsbvc	r7, pc, fp, ror #8
     c08:	6863732f 	stmdavs	r3!, {r0, r1, r2, r3, r5, r8, r9, ip, sp, lr}^
     c0c:	2f6c6f6f 	svccs	0x006c6f6f
     c10:	69727053 	ldmdbvs	r2!, {r0, r1, r4, r6, ip, sp, lr}^
     c14:	3931676e 	ldmdbcc	r1!, {r1, r2, r3, r5, r6, r8, r9, sl, sp, lr}
     c18:	432f3032 	teqmi	pc, #50	; 0x32
     c1c:	30343253 	eorscc	r3, r4, r3, asr r2
     c20:	632f584c 	teqvs	pc, #76, 16	; 0x4c0000
     c24:	30343273 	eorscc	r3, r4, r3, ror r2
     c28:	322d786c 	eorcc	r7, sp, #108, 16	; 0x6c0000
     c2c:	72707330 	rsbsvc	r7, r0, #48, 6	; 0xc0000000
     c30:	62696c2f 	rsbvs	r6, r9, #12032	; 0x2f00
     c34:	692f6970 	stmdbvs	pc!, {r4, r5, r6, r8, fp, sp, lr}	; <UNPREDICTABLE>
     c38:	756c636e 	strbvc	r6, [ip, #-878]!	; 0x36e
     c3c:	00006564 	andeq	r6, r0, r4, ror #10
     c40:	63747570 	cmnvs	r4, #112, 10	; 0x1c000000
     c44:	2e726168 	rpwcssz	f6, f2, #0.0
     c48:	00010063 	andeq	r0, r1, r3, rrx
     c4c:	69707200 	ldmdbvs	r0!, {r9, ip, sp, lr}^
     c50:	0200682e 	andeq	r6, r0, #3014656	; 0x2e0000
     c54:	00000000 	andeq	r0, r0, r0
     c58:	a4440205 	strbge	r0, [r4], #-517	; 0x205
     c5c:	4a140000 	bmi	500c64 <__bss_end__+0x4f429c>
     c60:	13bc136b 			; <UNDEFINED> instruction: 0x13bc136b
     c64:	01000802 	tsteq	r0, r2, lsl #16
     c68:	0000a001 	andeq	sl, r0, r1
     c6c:	79000200 	stmdbvc	r0, {r9}
     c70:	02000000 	andeq	r0, r0, #0
     c74:	0d0efb01 	vstreq	d15, [lr, #-4]
     c78:	01010100 	mrseq	r0, (UNDEF: 17)
     c7c:	00000001 	andeq	r0, r0, r1
     c80:	01000001 	tsteq	r0, r1
     c84:	6362696c 	cmnvs	r2, #108, 18	; 0x1b0000
     c88:	73552f00 	cmpvc	r5, #0, 30
     c8c:	2f737265 	svccs	0x00737265
     c90:	61697262 	cmnvs	r9, r2, ror #4
     c94:	6e756a6e 	vsubvs.f32	s13, s10, s29
     c98:	7365442f 	cmnvc	r5, #788529152	; 0x2f000000
     c9c:	706f746b 	rsbvc	r7, pc, fp, ror #8
     ca0:	6863732f 	stmdavs	r3!, {r0, r1, r2, r3, r5, r8, r9, ip, sp, lr}^
     ca4:	2f6c6f6f 	svccs	0x006c6f6f
     ca8:	69727053 	ldmdbvs	r2!, {r0, r1, r4, r6, ip, sp, lr}^
     cac:	3931676e 	ldmdbcc	r1!, {r1, r2, r3, r5, r6, r8, r9, sl, sp, lr}
     cb0:	432f3032 	teqmi	pc, #50	; 0x32
     cb4:	30343253 	eorscc	r3, r4, r3, asr r2
     cb8:	632f584c 	teqvs	pc, #76, 16	; 0x4c0000
     cbc:	30343273 	eorscc	r3, r4, r3, ror r2
     cc0:	322d786c 	eorcc	r7, sp, #108, 16	; 0x6c0000
     cc4:	72707330 	rsbsvc	r7, r0, #48, 6	; 0xc0000000
     cc8:	62696c2f 	rsbvs	r6, r9, #12032	; 0x2f00
     ccc:	692f6970 	stmdbvs	pc!, {r4, r5, r6, r8, fp, sp, lr}	; <UNPREDICTABLE>
     cd0:	756c636e 	strbvc	r6, [ip, #-878]!	; 0x36e
     cd4:	00006564 	andeq	r6, r0, r4, ror #10
     cd8:	6b747570 	blvs	1d1e2a0 <__bss_end__+0x1d118d8>
     cdc:	0100632e 	tsteq	r0, lr, lsr #6
     ce0:	70720000 	rsbsvc	r0, r2, r0
     ce4:	00682e69 	rsbeq	r2, r8, r9, ror #28
     ce8:	00000002 	andeq	r0, r0, r2
     cec:	80020500 	andhi	r0, r2, r0, lsl #10
     cf0:	150000a4 	strne	r0, [r0, #-164]	; 0xa4
     cf4:	02002d4c 	andeq	r2, r0, #76, 26	; 0x1300
     cf8:	002f0204 	eoreq	r0, pc, r4, lsl #4
     cfc:	49020402 	stmdbmi	r2, {r1, sl}
     d00:	01040200 	mrseq	r0, R12_usr
     d04:	6b062e06 	blvs	18c524 <__bss_end__+0x17fb5c>
     d08:	01000602 	tsteq	r0, r2, lsl #12
     d0c:	0001f101 	andeq	pc, r1, r1, lsl #2
     d10:	e9000200 	stmdb	r0, {r9}
     d14:	02000000 	andeq	r0, r0, #0
     d18:	0d0efb01 	vstreq	d15, [lr, #-4]
     d1c:	01010100 	mrseq	r0, (UNDEF: 17)
     d20:	00000001 	andeq	r0, r0, r1
     d24:	01000001 	tsteq	r0, r1
     d28:	6362696c 	cmnvs	r2, #108, 18	; 0x1b0000
     d2c:	73752f00 	cmnvc	r5, #0, 30
     d30:	6f6c2f72 	svcvs	0x006c2f72
     d34:	2f6c6163 	svccs	0x006c6163
     d38:	6c6c6543 	cfstr64vs	mvdx6, [ip], #-268	; 0xfffffef4
     d3c:	612f7261 	teqvs	pc, r1, ror #4
     d40:	6e2d6d72 	mcrvs	13, 1, r6, cr13, cr2, {3}
     d44:	2d656e6f 	stclcs	14, cr6, [r5, #-444]!	; 0xfffffe44
     d48:	69626165 	stmdbvs	r2!, {r0, r2, r5, r6, r8, sp, lr}^
     d4c:	382e342f 	stmdacc	lr!, {r0, r1, r2, r3, r5, sl, ip, sp}
     d50:	632d332e 	teqvs	sp, #-1207959552	; 0xb8000000
     d54:	30373173 	eorscc	r3, r7, r3, ror r1
     d58:	696c2f65 	stmdbvs	ip!, {r0, r2, r5, r6, r8, r9, sl, fp, sp}^
     d5c:	63672f62 	cmnvs	r7, #392	; 0x188
     d60:	72612f63 	rsbvc	r2, r1, #396	; 0x18c
     d64:	6f6e2d6d 	svcvs	0x006e2d6d
     d68:	652d656e 	strvs	r6, [sp, #-1390]!	; 0x56e
     d6c:	2f696261 	svccs	0x00696261
     d70:	2e382e34 	mrccs	14, 1, r2, cr8, cr4, {1}
     d74:	6e692f33 	mcrvs	15, 3, r2, cr9, cr3, {1}
     d78:	64756c63 	ldrbtvs	r6, [r5], #-3171	; 0xc63
     d7c:	552f0065 	strpl	r0, [pc, #-101]!	; d1f <__code_start__-0x72e1>
     d80:	73726573 	cmnvc	r2, #482344960	; 0x1cc00000
     d84:	6972622f 	ldmdbvs	r2!, {r0, r1, r2, r3, r5, r9, sp, lr}^
     d88:	756a6e61 	strbvc	r6, [sl, #-3681]!	; 0xe61
     d8c:	65442f6e 	strbvs	r2, [r4, #-3950]	; 0xf6e
     d90:	6f746b73 	svcvs	0x00746b73
     d94:	63732f70 	cmnvs	r3, #112, 30	; 0x1c0
     d98:	6c6f6f68 	stclvs	15, cr6, [pc], #-416	; c00 <__code_start__-0x7400>
     d9c:	7270532f 	rsbsvc	r5, r0, #-1140850688	; 0xbc000000
     da0:	31676e69 	cmncc	r7, r9, ror #28
     da4:	2f303239 	svccs	0x00303239
     da8:	34325343 	ldrtcc	r5, [r2], #-835	; 0x343
     dac:	2f584c30 	svccs	0x00584c30
     db0:	34327363 	ldrtcc	r7, [r2], #-867	; 0x363
     db4:	2d786c30 	ldclcs	12, cr6, [r8, #-192]!	; 0xffffff40
     db8:	70733032 	rsbsvc	r3, r3, r2, lsr r0
     dbc:	696c2f72 	stmdbvs	ip!, {r1, r4, r5, r6, r8, r9, sl, fp, sp}^
     dc0:	2f697062 	svccs	0x00697062
     dc4:	6c636e69 	stclvs	14, cr6, [r3], #-420	; 0xfffffe5c
     dc8:	00656475 	rsbeq	r6, r5, r5, ror r4
     dcc:	2d617600 	stclcs	6, cr7, [r1, #-0]
     dd0:	6e697270 	mcrvs	2, 3, r7, cr9, cr0, {3}
     dd4:	632e6b74 	teqvs	lr, #116, 22	; 0x1d000
     dd8:	00000100 	andeq	r0, r0, r0, lsl #2
     ddc:	61647473 	smcvs	18243	; 0x4743
     de0:	682e6772 	stmdavs	lr!, {r1, r4, r5, r6, r8, r9, sl, sp, lr}
     de4:	00000200 	andeq	r0, r0, r0, lsl #4
     de8:	2e697072 	mcrcs	0, 3, r7, cr9, cr2, {3}
     dec:	00030068 	andeq	r0, r3, r8, rrx
     df0:	75623c00 	strbvc	r3, [r2, #-3072]!	; 0xc00
     df4:	2d746c69 	ldclcs	12, cr6, [r4, #-420]!	; 0xfffffe5c
     df8:	003e6e69 	eorseq	r6, lr, r9, ror #28
     dfc:	00000000 	andeq	r0, r0, r0
     e00:	b4020500 	strlt	r0, [r2], #-1280	; 0x500
     e04:	030000a4 	movweq	r0, #164	; 0xa4
     e08:	a5010126 	strge	r0, [r1, #-294]	; 0x126
     e0c:	002d3113 	eoreq	r3, sp, r3, lsl r1
     e10:	2f020402 	svccs	0x00020402
     e14:	02040200 	andeq	r0, r4, #0, 4
     e18:	0402002d 	streq	r0, [r2], #-45	; 0x2d
     e1c:	02002f02 	andeq	r2, r0, #2, 30
     e20:	4c2d0104 	stfmis	f0, [sp], #-16
     e24:	4b14304c 	blmi	50cf5c <__bss_end__+0x500594>
     e28:	02004f2f 	andeq	r4, r0, #47, 30	; 0xbc
     e2c:	00670204 	rsbeq	r0, r7, r4, lsl #4
     e30:	65010402 	strvs	r0, [r1, #-1026]	; 0x402
     e34:	a0304d4c 	eorsge	r4, r0, ip, asr #26
     e38:	0230312f 	eorseq	r3, r0, #-1073741813	; 0xc000000b
     e3c:	2d841626 	stccs	6, cr1, [r4, #152]	; 0x98
     e40:	0402002c 	streq	r0, [r2], #-44	; 0x2c
     e44:	02003001 	andeq	r3, r0, #1
     e48:	06330104 	ldrteq	r0, [r3], -r4, lsl #2
     e4c:	04020066 	streq	r0, [r2], #-102	; 0x66
     e50:	02002e01 	andeq	r2, r0, #1, 28
     e54:	08060104 	stmdaeq	r6, {r2, r8}
     e58:	032f6721 	teqeq	pc, #8650752	; 0x840000
     e5c:	13038273 	movwne	r8, #12915	; 0x3273
     e60:	0402002e 	streq	r0, [r2], #-46	; 0x2e
     e64:	00660601 	rsbeq	r0, r6, r1, lsl #12
     e68:	06010402 	streq	r0, [r1], -r2, lsl #8
     e6c:	674b4b83 	strbvs	r4, [fp, -r3, lsl #23]
     e70:	65034b31 	strvs	r4, [r3, #-2865]	; 0xb31
     e74:	2e23032e 	cdpcs	3, 2, cr0, cr3, cr14, {1}
     e78:	01040200 	mrseq	r0, R12_usr
     e7c:	02002e06 	andeq	r2, r0, #6, 28	; 0x60
     e80:	9f060104 	svcls	0x00060104
     e84:	01040200 	mrseq	r0, R12_usr
     e88:	d723086a 	strle	r0, [r3, -sl, ror #16]!
     e8c:	087fa403 	ldmdaeq	pc!, {r0, r1, sl, sp, pc}^	; <UNPREDICTABLE>
     e90:	02004b3c 	andeq	r4, r0, #60, 22	; 0xf000
     e94:	4a060104 	bmi	1812ac <__bss_end__+0x1748e4>
     e98:	4b210806 	blmi	842eb8 <__bss_end__+0x8364f0>
     e9c:	db034b2f 	blle	d3b60 <__bss_end__+0xc7198>
     ea0:	4c9ff200 	lfmmi	f7, 1, [pc], {0}
     ea4:	2f4b3248 	svccs	0x004b3248
     ea8:	2d2f4b84 	vstmdbcs	pc!, {d4-d5}
     eac:	2f30314d 	svccs	0x0030314d
     eb0:	04020083 	streq	r0, [r2], #-131	; 0x83
     eb4:	00be2c01 	adcseq	r2, lr, r1, lsl #24
     eb8:	06010402 	streq	r0, [r1], -r2, lsl #8
     ebc:	2208064a 	andcs	r0, r8, #77594624	; 0x4a00000
     ec0:	03163602 	tsteq	r6, #2097152	; 0x200000
     ec4:	2108d60e 	tstcs	r8, lr, lsl #12
     ec8:	31210830 	teqcc	r1, r0, lsr r8
     ecc:	08302108 	ldmdaeq	r0!, {r3, r8, sp}
     ed0:	304b3021 	subcc	r3, fp, r1, lsr #32
     ed4:	4b302108 	blmi	c092fc <__bss_end__+0xbfc934>
     ed8:	31d98383 	bicscc	r8, r9, r3, lsl #7
     edc:	0402002f 	streq	r0, [r2], #-47	; 0x2f
     ee0:	02006501 	andeq	r6, r0, #4194304	; 0x400000
     ee4:	4a060204 	bmi	1816fc <__bss_end__+0x174d34>
     ee8:	01040200 	mrseq	r0, R12_usr
     eec:	7fbf0306 	svcvc	0x00bf0306
     ef0:	04020066 	streq	r0, [r2], #-102	; 0x66
     ef4:	06660602 	strbteq	r0, [r6], -r2, lsl #12
     ef8:	4a00c503 	bmi	3230c <__bss_end__+0x25944>
     efc:	00160268 	andseq	r0, r6, r8, ror #4
     f00:	009d0101 	addseq	r0, sp, r1, lsl #2
     f04:	00020000 	andeq	r0, r2, r0
     f08:	00000086 	andeq	r0, r0, r6, lsl #1
     f0c:	0efb0102 	cdpeq	1, 15, cr0, cr11, cr2, {0}
     f10:	0101000d 	tsteq	r1, sp
     f14:	00000101 	andeq	r0, r0, r1, lsl #2
     f18:	00000100 	andeq	r0, r0, r0, lsl #2
     f1c:	61747301 	cmnvs	r4, r1, lsl #6
     f20:	732d6666 	teqvc	sp, #106954752	; 0x6600000
     f24:	2f006372 	svccs	0x00006372
     f28:	72657355 	rsbvc	r7, r5, #1409286145	; 0x54000001
     f2c:	72622f73 	rsbvc	r2, r2, #460	; 0x1cc
     f30:	6a6e6169 	bvs	1b994dc <__bss_end__+0x1b8cb14>
     f34:	442f6e75 	strtmi	r6, [pc], #-3701	; f3c <__code_start__-0x70c4>
     f38:	746b7365 	strbtvc	r7, [fp], #-869	; 0x365
     f3c:	732f706f 	teqvc	pc, #111	; 0x6f
     f40:	6f6f6863 	svcvs	0x006f6863
     f44:	70532f6c 	subsvc	r2, r3, ip, ror #30
     f48:	676e6972 			; <UNDEFINED> instruction: 0x676e6972
     f4c:	30323931 	eorscc	r3, r2, r1, lsr r9
     f50:	3253432f 	subscc	r4, r3, #-1140850688	; 0xbc000000
     f54:	584c3034 	stmdapl	ip, {r2, r4, r5, ip, sp}^
     f58:	3273632f 	rsbscc	r6, r3, #-1140850688	; 0xbc000000
     f5c:	786c3034 	stmdavc	ip!, {r2, r4, r5, ip, sp}^
     f60:	7330322d 	teqvc	r0, #-805306366	; 0xd0000002
     f64:	6c2f7270 	sfmvs	f7, 4, [pc], #-448	; dac <__code_start__-0x7254>
     f68:	69706269 	ldmdbvs	r0!, {r0, r3, r5, r6, r9, sp, lr}^
     f6c:	636e692f 	cmnvs	lr, #770048	; 0xbc000
     f70:	6564756c 	strbvs	r7, [r4, #-1388]!	; 0x56c
     f74:	6c630000 	stclvs	0, cr0, [r3], #-0
     f78:	2d6e6165 	stfcse	f6, [lr, #-404]!	; 0xfffffe6c
     f7c:	6f626572 	svcvs	0x00626572
     f80:	632e746f 	teqvs	lr, #1862270976	; 0x6f000000
     f84:	00000100 	andeq	r0, r0, r0, lsl #2
     f88:	2e697072 	mcrcs	0, 3, r7, cr9, cr2, {3}
     f8c:	00020068 	andeq	r0, r2, r8, rrx
     f90:	05000000 	streq	r0, [r0, #-0]
     f94:	00aa2c02 	adceq	r2, sl, r2, lsl #24
     f98:	2f2f1500 	svccs	0x002f1500
     f9c:	06024b83 	streq	r4, [r2], -r3, lsl #23
     fa0:	a6010100 	strge	r0, [r1], -r0, lsl #2
     fa4:	02000000 	andeq	r0, r0, #0
     fa8:	00008000 	andeq	r8, r0, r0
     fac:	fb010200 	blx	417b6 <__bss_end__+0x34dee>
     fb0:	01000d0e 	tsteq	r0, lr, lsl #26
     fb4:	00010101 	andeq	r0, r1, r1, lsl #2
     fb8:	00010000 	andeq	r0, r1, r0
     fbc:	74730100 	ldrbtvc	r0, [r3], #-256	; 0x100
     fc0:	2d666661 	stclcs	6, cr6, [r6, #-388]!	; 0xfffffe7c
     fc4:	00637273 	rsbeq	r7, r3, r3, ror r2
     fc8:	6573552f 	ldrbvs	r5, [r3, #-1327]!	; 0x52f
     fcc:	622f7372 	eorvs	r7, pc, #-939524095	; 0xc8000001
     fd0:	6e616972 	mcrvs	9, 3, r6, cr1, cr2, {3}
     fd4:	2f6e756a 	svccs	0x006e756a
     fd8:	6b736544 	blvs	1cda4f0 <__bss_end__+0x1ccdb28>
     fdc:	2f706f74 	svccs	0x00706f74
     fe0:	6f686373 	svcvs	0x00686373
     fe4:	532f6c6f 	teqpl	pc, #28416	; 0x6f00
     fe8:	6e697270 	mcrvs	2, 3, r7, cr9, cr0, {3}
     fec:	32393167 	eorscc	r3, r9, #-1073741799	; 0xc0000019
     ff0:	53432f30 	movtpl	r2, #16176	; 0x3f30
     ff4:	4c303432 	cfldrsmi	mvf3, [r0], #-200	; 0xffffff38
     ff8:	73632f58 	cmnvc	r3, #88, 30	; 0x160
     ffc:	6c303432 	cfldrsvs	mvf3, [r0], #-200	; 0xffffff38
    1000:	30322d78 	eorscc	r2, r2, r8, ror sp
    1004:	2f727073 	svccs	0x00727073
    1008:	7062696c 	rsbvc	r6, r2, ip, ror #18
    100c:	6e692f69 	cdpvs	15, 6, cr2, cr9, cr9, {3}
    1010:	64756c63 	ldrbtvs	r6, [r5], #-3171	; 0xc63
    1014:	63000065 	movwvs	r0, #101	; 0x65
    1018:	72617473 	rsbvc	r7, r1, #1929379840	; 0x73000000
    101c:	00632e74 	rsbeq	r2, r3, r4, ror lr
    1020:	72000001 	andvc	r0, r0, #1
    1024:	682e6970 	stmdavs	lr!, {r4, r5, r6, r8, fp, sp, lr}
    1028:	00000200 	andeq	r0, r0, r0, lsl #4
    102c:	02050000 	andeq	r0, r5, #0
    1030:	0000aa58 	andeq	sl, r0, r8, asr sl
    1034:	32010c03 	andcc	r0, r1, #768	; 0x300
    1038:	2f2d2f31 	svccs	0x002d2f31
    103c:	01040200 	mrseq	r0, R12_usr
    1040:	4a090349 	bmi	241d6c <__bss_end__+0x2353a4>
    1044:	2f2e0d03 	svccs	0x002e0d03
    1048:	01000602 	tsteq	r0, r2, lsl #12
    104c:	0000a201 	andeq	sl, r0, r1, lsl #4
    1050:	8e000200 	cdphi	2, 0, cr0, cr0, cr0, {0}
    1054:	02000000 	andeq	r0, r0, #0
    1058:	0d0efb01 	vstreq	d15, [lr, #-4]
    105c:	01010100 	mrseq	r0, (UNDEF: 17)
    1060:	00000001 	andeq	r0, r0, r1
    1064:	01000001 	tsteq	r0, r1
    1068:	66617473 			; <UNDEFINED> instruction: 0x66617473
    106c:	72732d66 	rsbsvc	r2, r3, #6528	; 0x1980
    1070:	552f0063 	strpl	r0, [pc, #-99]!	; 1015 <__code_start__-0x6feb>
    1074:	73726573 	cmnvc	r2, #482344960	; 0x1cc00000
    1078:	6972622f 	ldmdbvs	r2!, {r0, r1, r2, r3, r5, r9, sp, lr}^
    107c:	756a6e61 	strbvc	r6, [sl, #-3681]!	; 0xe61
    1080:	65442f6e 	strbvs	r2, [r4, #-3950]	; 0xf6e
    1084:	6f746b73 	svcvs	0x00746b73
    1088:	63732f70 	cmnvs	r3, #112, 30	; 0x1c0
    108c:	6c6f6f68 	stclvs	15, cr6, [pc], #-416	; ef4 <__code_start__-0x710c>
    1090:	7270532f 	rsbsvc	r5, r0, #-1140850688	; 0xbc000000
    1094:	31676e69 	cmncc	r7, r9, ror #28
    1098:	2f303239 	svccs	0x00303239
    109c:	34325343 	ldrtcc	r5, [r2], #-835	; 0x343
    10a0:	2f584c30 	svccs	0x00584c30
    10a4:	34327363 	ldrtcc	r7, [r2], #-867	; 0x363
    10a8:	2d786c30 	ldclcs	12, cr6, [r8, #-192]!	; 0xffffff40
    10ac:	70733032 	rsbsvc	r3, r3, r2, lsr r0
    10b0:	696c2f72 	stmdbvs	ip!, {r1, r4, r5, r6, r8, r9, sl, fp, sp}^
    10b4:	2f697062 	svccs	0x00697062
    10b8:	6c636e69 	stclvs	14, cr6, [r3], #-420	; 0xfffffe5c
    10bc:	00656475 	rsbeq	r6, r5, r5, ror r4
    10c0:	66656400 	strbtvs	r6, [r5], -r0, lsl #8
    10c4:	746c7561 	strbtvc	r7, [ip], #-1377	; 0x561
    10c8:	6e61682d 	cdpvs	8, 6, cr6, cr1, cr13, {1}
    10cc:	72656c64 	rsbvc	r6, r5, #100, 24	; 0x6400
    10d0:	7361662d 	cmnvc	r1, #47185920	; 0x2d00000
    10d4:	00632e74 	rsbeq	r2, r3, r4, ror lr
    10d8:	72000001 	andvc	r0, r0, #1
    10dc:	682e6970 	stmdavs	lr!, {r4, r5, r6, r8, fp, sp, lr}
    10e0:	00000200 	andeq	r0, r0, r0, lsl #4
    10e4:	02050000 	andeq	r0, r5, #0
    10e8:	0000aa90 	muleq	r0, r0, sl
    10ec:	1c026613 	stcne	6, cr6, [r2], {19}
    10f0:	a6010100 	strge	r0, [r1], -r0, lsl #2
    10f4:	02000000 	andeq	r0, r0, #0
    10f8:	00009200 	andeq	r9, r0, r0, lsl #4
    10fc:	fb010200 	blx	41906 <__bss_end__+0x34f3e>
    1100:	01000d0e 	tsteq	r0, lr, lsl #26
    1104:	00010101 	andeq	r0, r1, r1, lsl #2
    1108:	00010000 	andeq	r0, r1, r0
    110c:	74730100 	ldrbtvc	r0, [r3], #-256	; 0x100
    1110:	2d666661 	stclcs	6, cr6, [r6, #-388]!	; 0xfffffe7c
    1114:	00637273 	rsbeq	r7, r3, r3, ror r2
    1118:	6573552f 	ldrbvs	r5, [r3, #-1327]!	; 0x52f
    111c:	622f7372 	eorvs	r7, pc, #-939524095	; 0xc8000001
    1120:	6e616972 	mcrvs	9, 3, r6, cr1, cr2, {3}
    1124:	2f6e756a 	svccs	0x006e756a
    1128:	6b736544 	blvs	1cda640 <__bss_end__+0x1ccdc78>
    112c:	2f706f74 	svccs	0x00706f74
    1130:	6f686373 	svcvs	0x00686373
    1134:	532f6c6f 	teqpl	pc, #28416	; 0x6f00
    1138:	6e697270 	mcrvs	2, 3, r7, cr9, cr0, {3}
    113c:	32393167 	eorscc	r3, r9, #-1073741799	; 0xc0000019
    1140:	53432f30 	movtpl	r2, #16176	; 0x3f30
    1144:	4c303432 	cfldrsmi	mvf3, [r0], #-200	; 0xffffff38
    1148:	73632f58 	cmnvc	r3, #88, 30	; 0x160
    114c:	6c303432 	cfldrsvs	mvf3, [r0], #-200	; 0xffffff38
    1150:	30322d78 	eorscc	r2, r2, r8, ror sp
    1154:	2f727073 	svccs	0x00727073
    1158:	7062696c 	rsbvc	r6, r2, ip, ror #18
    115c:	6e692f69 	cdpvs	15, 6, cr2, cr9, cr9, {3}
    1160:	64756c63 	ldrbtvs	r6, [r5], #-3171	; 0xc63
    1164:	64000065 	strvs	r0, [r0], #-101	; 0x65
    1168:	75616665 	strbvc	r6, [r1, #-1637]!	; 0x665
    116c:	682d746c 	stmdavs	sp!, {r2, r3, r5, r6, sl, ip, sp, lr}
    1170:	6c646e61 	stclvs	14, cr6, [r4], #-388	; 0xfffffe7c
    1174:	702d7265 	eorvc	r7, sp, r5, ror #4
    1178:	65666572 	strbvs	r6, [r6, #-1394]!	; 0x572
    117c:	2e686374 	mcrcs	3, 3, r6, cr8, cr4, {3}
    1180:	00010063 	andeq	r0, r1, r3, rrx
    1184:	69707200 	ldmdbvs	r0!, {r9, ip, sp, lr}^
    1188:	0200682e 	andeq	r6, r0, #3014656	; 0x2e0000
    118c:	00000000 	andeq	r0, r0, r0
    1190:	aad40205 	bge	ff5019ac <__bss_end__+0xff4f4fe4>
    1194:	66130000 	ldrvs	r0, [r3], -r0
    1198:	01001c02 	tsteq	r0, r2, lsl #24
    119c:	0000a301 	andeq	sl, r0, r1, lsl #6
    11a0:	8f000200 	svchi	0x00000200
    11a4:	02000000 	andeq	r0, r0, #0
    11a8:	0d0efb01 	vstreq	d15, [lr, #-4]
    11ac:	01010100 	mrseq	r0, (UNDEF: 17)
    11b0:	00000001 	andeq	r0, r0, r1
    11b4:	01000001 	tsteq	r0, r1
    11b8:	66617473 			; <UNDEFINED> instruction: 0x66617473
    11bc:	72732d66 	rsbsvc	r2, r3, #6528	; 0x1980
    11c0:	552f0063 	strpl	r0, [pc, #-99]!	; 1165 <__code_start__-0x6e9b>
    11c4:	73726573 	cmnvc	r2, #482344960	; 0x1cc00000
    11c8:	6972622f 	ldmdbvs	r2!, {r0, r1, r2, r3, r5, r9, sp, lr}^
    11cc:	756a6e61 	strbvc	r6, [sl, #-3681]!	; 0xe61
    11d0:	65442f6e 	strbvs	r2, [r4, #-3950]	; 0xf6e
    11d4:	6f746b73 	svcvs	0x00746b73
    11d8:	63732f70 	cmnvs	r3, #112, 30	; 0x1c0
    11dc:	6c6f6f68 	stclvs	15, cr6, [pc], #-416	; 1044 <__code_start__-0x6fbc>
    11e0:	7270532f 	rsbsvc	r5, r0, #-1140850688	; 0xbc000000
    11e4:	31676e69 	cmncc	r7, r9, ror #28
    11e8:	2f303239 	svccs	0x00303239
    11ec:	34325343 	ldrtcc	r5, [r2], #-835	; 0x343
    11f0:	2f584c30 	svccs	0x00584c30
    11f4:	34327363 	ldrtcc	r7, [r2], #-867	; 0x363
    11f8:	2d786c30 	ldclcs	12, cr6, [r8, #-192]!	; 0xffffff40
    11fc:	70733032 	rsbsvc	r3, r3, r2, lsr r0
    1200:	696c2f72 	stmdbvs	ip!, {r1, r4, r5, r6, r8, r9, sl, fp, sp}^
    1204:	2f697062 	svccs	0x00697062
    1208:	6c636e69 	stclvs	14, cr6, [r3], #-420	; 0xfffffe5c
    120c:	00656475 	rsbeq	r6, r5, r5, ror r4
    1210:	66656400 	strbtvs	r6, [r5], -r0, lsl #8
    1214:	746c7561 	strbtvc	r7, [ip], #-1377	; 0x561
    1218:	6e61682d 	cdpvs	8, 6, cr6, cr1, cr13, {1}
    121c:	72656c64 	rsbvc	r6, r5, #100, 24	; 0x6400
    1220:	7365722d 	cmnvc	r5, #-805306366	; 0xd0000002
    1224:	632e7465 	teqvs	lr, #1694498816	; 0x65000000
    1228:	00000100 	andeq	r0, r0, r0, lsl #2
    122c:	2e697072 	mcrcs	0, 3, r7, cr9, cr2, {3}
    1230:	00020068 	andeq	r0, r2, r8, rrx
    1234:	05000000 	streq	r0, [r0, #-0]
    1238:	00ab1802 	adceq	r1, fp, r2, lsl #16
    123c:	02661300 	rsbeq	r1, r6, #0, 6
    1240:	0101001c 	tsteq	r1, ip, lsl r0
    1244:	000000ac 	andeq	r0, r0, ip, lsr #1
    1248:	00980002 	addseq	r0, r8, r2
    124c:	01020000 	mrseq	r0, (UNDEF: 2)
    1250:	000d0efb 	strdeq	r0, [sp], -fp
    1254:	01010101 	tsteq	r1, r1, lsl #2
    1258:	01000000 	mrseq	r0, (UNDEF: 0)
    125c:	73010000 	movwvc	r0, #4096	; 0x1000
    1260:	66666174 			; <UNDEFINED> instruction: 0x66666174
    1264:	6372732d 	cmnvs	r2, #-1275068416	; 0xb4000000
    1268:	73552f00 	cmpvc	r5, #0, 30
    126c:	2f737265 	svccs	0x00737265
    1270:	61697262 	cmnvs	r9, r2, ror #4
    1274:	6e756a6e 	vsubvs.f32	s13, s10, s29
    1278:	7365442f 	cmnvc	r5, #788529152	; 0x2f000000
    127c:	706f746b 	rsbvc	r7, pc, fp, ror #8
    1280:	6863732f 	stmdavs	r3!, {r0, r1, r2, r3, r5, r8, r9, ip, sp, lr}^
    1284:	2f6c6f6f 	svccs	0x006c6f6f
    1288:	69727053 	ldmdbvs	r2!, {r0, r1, r4, r6, ip, sp, lr}^
    128c:	3931676e 	ldmdbcc	r1!, {r1, r2, r3, r5, r6, r8, r9, sl, sp, lr}
    1290:	432f3032 	teqmi	pc, #50	; 0x32
    1294:	30343253 	eorscc	r3, r4, r3, asr r2
    1298:	632f584c 	teqvs	pc, #76, 16	; 0x4c0000
    129c:	30343273 	eorscc	r3, r4, r3, ror r2
    12a0:	322d786c 	eorcc	r7, sp, #108, 16	; 0x6c0000
    12a4:	72707330 	rsbsvc	r7, r0, #48, 6	; 0xc0000000
    12a8:	62696c2f 	rsbvs	r6, r9, #12032	; 0x2f00
    12ac:	692f6970 	stmdbvs	pc!, {r4, r5, r6, r8, fp, sp, lr}	; <UNPREDICTABLE>
    12b0:	756c636e 	strbvc	r6, [ip, #-878]!	; 0x36e
    12b4:	00006564 	andeq	r6, r0, r4, ror #10
    12b8:	61666564 	cmnvs	r6, r4, ror #10
    12bc:	2d746c75 	ldclcs	12, cr6, [r4, #-468]!	; 0xfffffe2c
    12c0:	646e6168 	strbtvs	r6, [lr], #-360	; 0x168
    12c4:	2d72656c 	cfldr64cs	mvdx6, [r2, #-432]!	; 0xfffffe50
    12c8:	65646e75 	strbvs	r6, [r4, #-3701]!	; 0xe75
    12cc:	656e6966 	strbvs	r6, [lr, #-2406]!	; 0x966
    12d0:	6e692d64 	cdpvs	13, 6, cr2, cr9, cr4, {3}
    12d4:	632e7473 	teqvs	lr, #1929379840	; 0x73000000
    12d8:	00000100 	andeq	r0, r0, r0, lsl #2
    12dc:	2e697072 	mcrcs	0, 3, r7, cr9, cr2, {3}
    12e0:	00020068 	andeq	r0, r2, r8, rrx
    12e4:	05000000 	streq	r0, [r0, #-0]
    12e8:	00ab5c02 	adceq	r5, fp, r2, lsl #24
    12ec:	02661300 	rsbeq	r1, r6, #0, 6
    12f0:	0101001c 	tsteq	r1, ip, lsl r0
    12f4:	00000047 	andeq	r0, r0, r7, asr #32
    12f8:	00330002 	eorseq	r0, r3, r2
    12fc:	01020000 	mrseq	r0, (UNDEF: 2)
    1300:	000d0efb 	strdeq	r0, [sp], -fp
    1304:	01010101 	tsteq	r1, r1, lsl #2
    1308:	01000000 	mrseq	r0, (UNDEF: 0)
    130c:	73010000 	movwvc	r0, #4096	; 0x1000
    1310:	66666174 			; <UNDEFINED> instruction: 0x66666174
    1314:	6372732d 	cmnvs	r2, #-1275068416	; 0xb4000000
    1318:	65640000 	strbvs	r0, [r4, #-0]!
    131c:	6c756166 	ldfvse	f6, [r5], #-408	; 0xfffffe68
    1320:	61682d74 	smcvs	33492	; 0x82d4
    1324:	656c646e 	strbvs	r6, [ip, #-1134]!	; 0x46e
    1328:	632e7372 	teqvs	lr, #-939524095	; 0xc8000001
    132c:	00000100 	andeq	r0, r0, r0, lsl #2
    1330:	02050000 	andeq	r0, r5, #0
    1334:	0000aba0 	andeq	sl, r0, r0, lsr #23
    1338:	02022f15 	andeq	r2, r2, #21, 30	; 0x54
    133c:	c9010100 	stmdbgt	r1, {r8}
    1340:	02000000 	andeq	r0, r0, #0
    1344:	00009a00 	andeq	r9, r0, r0, lsl #20
    1348:	fb010200 	blx	41b52 <__bss_end__+0x3518a>
    134c:	01000d0e 	tsteq	r0, lr, lsl #26
    1350:	00010101 	andeq	r0, r1, r1, lsl #2
    1354:	00010000 	andeq	r0, r1, r0
    1358:	74730100 	ldrbtvc	r0, [r3], #-256	; 0x100
    135c:	2d666661 	stclcs	6, cr6, [r6, #-388]!	; 0xfffffe7c
    1360:	00637273 	rsbeq	r7, r3, r3, ror r2
    1364:	6573552f 	ldrbvs	r5, [r3, #-1327]!	; 0x52f
    1368:	622f7372 	eorvs	r7, pc, #-939524095	; 0xc8000001
    136c:	6e616972 	mcrvs	9, 3, r6, cr1, cr2, {3}
    1370:	2f6e756a 	svccs	0x006e756a
    1374:	6b736544 	blvs	1cda88c <__bss_end__+0x1ccdec4>
    1378:	2f706f74 	svccs	0x00706f74
    137c:	6f686373 	svcvs	0x00686373
    1380:	532f6c6f 	teqpl	pc, #28416	; 0x6f00
    1384:	6e697270 	mcrvs	2, 3, r7, cr9, cr0, {3}
    1388:	32393167 	eorscc	r3, r9, #-1073741799	; 0xc0000019
    138c:	53432f30 	movtpl	r2, #16176	; 0x3f30
    1390:	4c303432 	cfldrsmi	mvf3, [r0], #-200	; 0xffffff38
    1394:	73632f58 	cmnvc	r3, #88, 30	; 0x160
    1398:	6c303432 	cfldrsvs	mvf3, [r0], #-200	; 0xffffff38
    139c:	30322d78 	eorscc	r2, r2, r8, ror sp
    13a0:	2f727073 	svccs	0x00727073
    13a4:	7062696c 	rsbvc	r6, r2, ip, ror #18
    13a8:	6e692f69 	cdpvs	15, 6, cr2, cr9, cr9, {3}
    13ac:	64756c63 	ldrbtvs	r6, [r5], #-3171	; 0xc63
    13b0:	69000065 	stmdbvs	r0, {r0, r2, r5, r6}
    13b4:	7265746e 	rsbvc	r7, r5, #1845493760	; 0x6e000000
    13b8:	74707572 	ldrbtvc	r7, [r0], #-1394	; 0x572
    13bc:	2e632d73 	mcrcs	13, 3, r2, cr3, cr3, {3}
    13c0:	00010063 	andeq	r0, r1, r3, rrx
    13c4:	69707200 	ldmdbvs	r0!, {r9, ip, sp, lr}^
    13c8:	746e692d 	strbtvc	r6, [lr], #-2349	; 0x92d
    13cc:	75727265 	ldrbvc	r7, [r2, #-613]!	; 0x265
    13d0:	2e737470 	mrccs	4, 3, r7, cr3, cr0, {3}
    13d4:	00020068 	andeq	r0, r2, r8, rrx
    13d8:	69707200 	ldmdbvs	r0!, {r9, ip, sp, lr}^
    13dc:	0200682e 	andeq	r6, r0, #3014656	; 0x2e0000
    13e0:	00000000 	andeq	r0, r0, r0
    13e4:	aba80205 	blge	fea01c00 <__bss_end__+0xfe9f5238>
    13e8:	1a030000 	bne	c13f0 <__bss_end__+0xb4a28>
    13ec:	672f3101 	strvs	r3, [pc, -r1, lsl #2]!
    13f0:	2f833667 	svccs	0x00833667
    13f4:	0402002d 	streq	r0, [r2], #-45	; 0x2d
    13f8:	02002f02 	andeq	r2, r0, #2, 30
    13fc:	00650204 	rsbeq	r0, r5, r4, lsl #4
    1400:	06010402 	streq	r0, [r1], -r2, lsl #8
    1404:	024c062e 	subeq	r0, ip, #48234496	; 0x2e00000
    1408:	0101000a 	tsteq	r1, sl
    140c:	000000a2 	andeq	r0, r0, r2, lsr #1
    1410:	00800002 	addeq	r0, r0, r2
    1414:	01020000 	mrseq	r0, (UNDEF: 2)
    1418:	000d0efb 	strdeq	r0, [sp], -fp
    141c:	01010101 	tsteq	r1, r1, lsl #2
    1420:	01000000 	mrseq	r0, (UNDEF: 0)
    1424:	73010000 	movwvc	r0, #4096	; 0x1000
    1428:	66666174 			; <UNDEFINED> instruction: 0x66666174
    142c:	6372732d 	cmnvs	r2, #-1275068416	; 0xb4000000
    1430:	73552f00 	cmpvc	r5, #0, 30
    1434:	2f737265 	svccs	0x00737265
    1438:	61697262 	cmnvs	r9, r2, ror #4
    143c:	6e756a6e 	vsubvs.f32	s13, s10, s29
    1440:	7365442f 	cmnvc	r5, #788529152	; 0x2f000000
    1444:	706f746b 	rsbvc	r7, pc, fp, ror #8
    1448:	6863732f 	stmdavs	r3!, {r0, r1, r2, r3, r5, r8, r9, ip, sp, lr}^
    144c:	2f6c6f6f 	svccs	0x006c6f6f
    1450:	69727053 	ldmdbvs	r2!, {r0, r1, r4, r6, ip, sp, lr}^
    1454:	3931676e 	ldmdbcc	r1!, {r1, r2, r3, r5, r6, r8, r9, sl, sp, lr}
    1458:	432f3032 	teqmi	pc, #50	; 0x32
    145c:	30343253 	eorscc	r3, r4, r3, asr r2
    1460:	632f584c 	teqvs	pc, #76, 16	; 0x4c0000
    1464:	30343273 	eorscc	r3, r4, r3, ror r2
    1468:	322d786c 	eorcc	r7, sp, #108, 16	; 0x6c0000
    146c:	72707330 	rsbsvc	r7, r0, #48, 6	; 0xc0000000
    1470:	62696c2f 	rsbvs	r6, r9, #12032	; 0x2f00
    1474:	692f6970 	stmdbvs	pc!, {r4, r5, r6, r8, fp, sp, lr}	; <UNPREDICTABLE>
    1478:	756c636e 	strbvc	r6, [ip, #-878]!	; 0x36e
    147c:	00006564 	andeq	r6, r0, r4, ror #10
    1480:	6f626572 	svcvs	0x00626572
    1484:	632e746f 	teqvs	lr, #1862270976	; 0x6f000000
    1488:	00000100 	andeq	r0, r0, r0, lsl #2
    148c:	2e697072 	mcrcs	0, 3, r7, cr9, cr2, {3}
    1490:	00020068 	andeq	r0, r2, r8, rrx
    1494:	05000000 	streq	r0, [r0, #-0]
    1498:	00ac1402 	adceq	r1, ip, r2, lsl #8
    149c:	010d0300 	mrseq	r0, SP_mon
    14a0:	852f3114 	strhi	r3, [pc, #-276]!	; 1394 <__code_start__-0x6c6c>
    14a4:	4d4b2f15 	stclmi	15, cr2, [fp, #-84]	; 0xffffffac
    14a8:	5235672f 	eorspl	r6, r5, #12320768	; 0xbc0000
    14ac:	00100267 	andseq	r0, r0, r7, ror #4
    14b0:	00ae0101 	adceq	r0, lr, r1, lsl #2
    14b4:	00020000 	andeq	r0, r2, r0
    14b8:	0000007f 	andeq	r0, r0, pc, ror r0
    14bc:	0efb0102 	cdpeq	1, 15, cr0, cr11, cr2, {0}
    14c0:	0101000d 	tsteq	r1, sp
    14c4:	00000101 	andeq	r0, r0, r1, lsl #2
    14c8:	00000100 	andeq	r0, r0, r0, lsl #2
    14cc:	61747301 	cmnvs	r4, r1, lsl #6
    14d0:	732d6666 	teqvc	sp, #106954752	; 0x6600000
    14d4:	2f006372 	svccs	0x00006372
    14d8:	72657355 	rsbvc	r7, r5, #1409286145	; 0x54000001
    14dc:	72622f73 	rsbvc	r2, r2, #460	; 0x1cc
    14e0:	6a6e6169 	bvs	1b99a8c <__bss_end__+0x1b8d0c4>
    14e4:	442f6e75 	strtmi	r6, [pc], #-3701	; 14ec <__code_start__-0x6b14>
    14e8:	746b7365 	strbtvc	r7, [fp], #-869	; 0x365
    14ec:	732f706f 	teqvc	pc, #111	; 0x6f
    14f0:	6f6f6863 	svcvs	0x006f6863
    14f4:	70532f6c 	subsvc	r2, r3, ip, ror #30
    14f8:	676e6972 			; <UNDEFINED> instruction: 0x676e6972
    14fc:	30323931 	eorscc	r3, r2, r1, lsr r9
    1500:	3253432f 	subscc	r4, r3, #-1140850688	; 0xbc000000
    1504:	584c3034 	stmdapl	ip, {r2, r4, r5, ip, sp}^
    1508:	3273632f 	rsbscc	r6, r3, #-1140850688	; 0xbc000000
    150c:	786c3034 	stmdavc	ip!, {r2, r4, r5, ip, sp}^
    1510:	7330322d 	teqvc	r0, #-805306366	; 0xd0000002
    1514:	6c2f7270 	sfmvs	f7, 4, [pc], #-448	; 135c <__code_start__-0x6ca4>
    1518:	69706269 	ldmdbvs	r0!, {r0, r3, r5, r6, r9, sp, lr}^
    151c:	636e692f 	cmnvs	lr, #770048	; 0xbc000
    1520:	6564756c 	strbvs	r7, [r4, #-1388]!	; 0x56c
    1524:	69740000 	ldmdbvs	r4!, {}^	; <UNPREDICTABLE>
    1528:	2e72656d 	cdpcs	5, 7, cr6, cr2, cr13, {3}
    152c:	00010063 	andeq	r0, r1, r3, rrx
    1530:	69707200 	ldmdbvs	r0!, {r9, ip, sp, lr}^
    1534:	0200682e 	andeq	r6, r0, #3014656	; 0x2e0000
    1538:	00000000 	andeq	r0, r0, r0
    153c:	ac880205 	sfmge	f0, 4, [r8], {5}
    1540:	14160000 	ldrne	r0, [r6], #-0
    1544:	02002d2f 	andeq	r2, r0, #3008	; 0xbc0
    1548:	2e060104 	adfcss	f0, f6, f4
    154c:	2f316d06 	svccs	0x00316d06
    1550:	2f314d4b 	svccs	0x00314d4b
    1554:	4b4c304b 	blmi	130d688 <__bss_end__+0x1300cc0>
    1558:	2f6a2f4c 	svccs	0x006a2f4c
    155c:	022f842f 	eoreq	r8, pc, #788529152	; 0x2f000000
    1560:	01010008 	tsteq	r1, r8
    1564:	0000011e 	andeq	r0, r0, lr, lsl r1
    1568:	00d80002 	sbcseq	r0, r8, r2
    156c:	01020000 	mrseq	r0, (UNDEF: 2)
    1570:	000d0efb 	strdeq	r0, [sp], -fp
    1574:	01010101 	tsteq	r1, r1, lsl #2
    1578:	01000000 	mrseq	r0, (UNDEF: 0)
    157c:	2f010000 	svccs	0x00010000
    1580:	2f727375 	svccs	0x00727375
    1584:	6c636e69 	stclvs	14, cr6, [r3], #-420	; 0xfffffe5c
    1588:	2f656475 	svccs	0x00656475
    158c:	6c77656e 	cfldr64vs	mvdx6, [r7], #-440	; 0xfffffe48
    1590:	732f6269 	teqvc	pc, #-1879048186	; 0x90000006
    1594:	2f007379 	svccs	0x00007379
    1598:	2f727375 	svccs	0x00727375
    159c:	2f62696c 	svccs	0x0062696c
    15a0:	2f636367 	svccs	0x00636367
    15a4:	2d6d7261 	sfmcs	f7, 2, [sp, #-388]!	; 0xfffffe7c
    15a8:	656e6f6e 	strbvs	r6, [lr, #-3950]!	; 0xf6e
    15ac:	6261652d 	rsbvs	r6, r1, #188743680	; 0xb400000
    15b0:	2e362f69 	cdpcs	15, 3, cr2, cr6, cr9, {3}
    15b4:	2f312e33 	svccs	0x00312e33
    15b8:	6c636e69 	stclvs	14, cr6, [r3], #-420	; 0xfffffe5c
    15bc:	00656475 	rsbeq	r6, r5, r5, ror r4
    15c0:	6d6f682f 	stclvs	8, cr6, [pc, #-188]!	; 150c <__code_start__-0x6af4>
    15c4:	6e652f65 	cdpvs	15, 6, cr2, cr5, cr5, {3}
    15c8:	72656c67 	rsbvc	r6, r5, #26368	; 0x6700
    15cc:	616c632f 	cmnvs	ip, pc, lsr #6
    15d0:	632f7373 	teqvs	pc, #-872415231	; 0xcc000001
    15d4:	30343273 	eorscc	r3, r4, r3, ror r2
    15d8:	322d786c 	eorcc	r7, sp, #108, 16	; 0x6c0000
    15dc:	72707330 	rsbsvc	r7, r0, #48, 6	; 0xc0000000
    15e0:	696c2f2f 	stmdbvs	ip!, {r0, r1, r2, r3, r5, r8, r9, sl, fp, sp}^
    15e4:	2f697062 	svccs	0x00697062
    15e8:	6c636e69 	stclvs	14, cr6, [r3], #-420	; 0xfffffe5c
    15ec:	00656475 	rsbeq	r6, r5, r5, ror r4
    15f0:	72617500 	rsbvc	r7, r1, #0, 10
    15f4:	00632e74 	rsbeq	r2, r3, r4, ror lr
    15f8:	6c000000 	stcvs	0, cr0, [r0], {-0}
    15fc:	2e6b636f 	cdpcs	3, 6, cr6, cr11, cr15, {3}
    1600:	00010068 	andeq	r0, r1, r8, rrx
    1604:	79745f00 	ldmdbvc	r4!, {r8, r9, sl, fp, ip, lr}^
    1608:	2e736570 	mrccs	5, 3, r6, cr3, cr0, {3}
    160c:	00010068 	andeq	r0, r1, r8, rrx
    1610:	64747300 	ldrbtvs	r7, [r4], #-768	; 0x300
    1614:	2e666564 	cdpcs	5, 6, cr6, cr6, cr4, {3}
    1618:	00020068 	andeq	r0, r2, r8, rrx
    161c:	65657200 	strbvs	r7, [r5, #-512]!	; 0x200
    1620:	682e746e 	stmdavs	lr!, {r1, r2, r3, r5, r6, sl, ip, sp, lr}
    1624:	00000100 	andeq	r0, r0, r0, lsl #2
    1628:	2e697072 	mcrcs	0, 3, r7, cr9, cr2, {3}
    162c:	00030068 	andeq	r0, r3, r8, rrx
    1630:	72617500 	rsbvc	r7, r1, #0, 10
    1634:	00682e74 	rsbeq	r2, r8, r4, ror lr
    1638:	67000003 	strvs	r0, [r0, -r3]
    163c:	2e6f6970 	mcrcs	9, 3, r6, cr15, cr0, {3}
    1640:	00030068 	andeq	r0, r3, r8, rrx
    1644:	05000000 	streq	r0, [r0, #-0]
    1648:	00ad8402 	adceq	r8, sp, r2, lsl #8
    164c:	012c0300 	teqeq	ip, r0, lsl #6
    1650:	9e0c0367 	cdpls	3, 0, cr0, cr12, cr7, {3}
    1654:	35686735 	strbcc	r6, [r8, #-1845]!	; 0x735
    1658:	2e0c0368 	cdpcs	3, 0, cr0, cr12, cr8, {3}
    165c:	69696b85 	stmdbvs	r9!, {r0, r2, r7, r8, r9, fp, sp, lr}^
    1660:	6b660c03 	blvs	1984674 <__bss_end__+0x1977cac>
    1664:	34420867 	strbcc	r0, [r2], #-2151	; 0x867
    1668:	68364b68 	ldmdavs	r6!, {r3, r5, r6, r8, r9, fp, lr}
    166c:	02002f87 	andeq	r2, r0, #540	; 0x21c
    1670:	682f0104 	stmdavs	pc!, {r2, r8}	; <UNPREDICTABLE>
    1674:	4b673067 	blmi	19cd818 <__bss_end__+0x19c0e50>
    1678:	01040200 	mrseq	r0, R12_usr
    167c:	6967682f 	stmdbvs	r7!, {r0, r1, r2, r3, r5, fp, sp, lr}^
    1680:	0006022e 	andeq	r0, r6, lr, lsr #4
    1684:	01010101 	tsteq	r1, r1, lsl #2
    1688:	00020000 	andeq	r0, r2, r0
    168c:	000000ce 	andeq	r0, r0, lr, asr #1
    1690:	0efb0102 	cdpeq	1, 15, cr0, cr11, cr2, {0}
    1694:	0101000d 	tsteq	r1, sp
    1698:	00000101 	andeq	r0, r0, r1, lsl #2
    169c:	00000100 	andeq	r0, r0, r0, lsl #2
    16a0:	73752f01 	cmnvc	r5, #1, 30
    16a4:	6e692f72 	mcrvs	15, 3, r2, cr9, cr2, {3}
    16a8:	64756c63 	ldrbtvs	r6, [r5], #-3171	; 0xc63
    16ac:	656e2f65 	strbvs	r2, [lr, #-3941]!	; 0xf65
    16b0:	62696c77 	rsbvs	r6, r9, #30464	; 0x7700
    16b4:	7379732f 	cmnvc	r9, #-1140850688	; 0xbc000000
    16b8:	73752f00 	cmnvc	r5, #0, 30
    16bc:	696c2f72 	stmdbvs	ip!, {r1, r4, r5, r6, r8, r9, sl, fp, sp}^
    16c0:	63672f62 	cmnvs	r7, #392	; 0x188
    16c4:	72612f63 	rsbvc	r2, r1, #396	; 0x18c
    16c8:	6f6e2d6d 	svcvs	0x006e2d6d
    16cc:	652d656e 	strvs	r6, [sp, #-1390]!	; 0x56e
    16d0:	2f696261 	svccs	0x00696261
    16d4:	2e332e36 	mrccs	14, 1, r2, cr3, cr6, {1}
    16d8:	6e692f31 	mcrvs	15, 3, r2, cr9, cr1, {1}
    16dc:	64756c63 	ldrbtvs	r6, [r5], #-3171	; 0xc63
    16e0:	682f0065 	stmdavs	pc!, {r0, r2, r5, r6}	; <UNPREDICTABLE>
    16e4:	2f656d6f 	svccs	0x00656d6f
    16e8:	6c676e65 	stclvs	14, cr6, [r7], #-404	; 0xfffffe6c
    16ec:	632f7265 	teqvs	pc, #1342177286	; 0x50000006
    16f0:	7373616c 	cmnvc	r3, #108, 2
    16f4:	3273632f 	rsbscc	r6, r3, #-1140850688	; 0xbc000000
    16f8:	786c3034 	stmdavc	ip!, {r2, r4, r5, ip, sp}^
    16fc:	7330322d 	teqvc	r0, #-805306366	; 0xd0000002
    1700:	2f2f7270 	svccs	0x002f7270
    1704:	7062696c 	rsbvc	r6, r2, ip, ror #18
    1708:	6e692f69 	cdpvs	15, 6, cr2, cr9, cr9, {3}
    170c:	64756c63 	ldrbtvs	r6, [r5], #-3171	; 0xc63
    1710:	67000065 	strvs	r0, [r0, -r5, rrx]
    1714:	2e6f6970 	mcrcs	9, 3, r6, cr15, cr0, {3}
    1718:	00000063 	andeq	r0, r0, r3, rrx
    171c:	636f6c00 	cmnvs	pc, #0, 24
    1720:	00682e6b 	rsbeq	r2, r8, fp, ror #28
    1724:	5f000001 	svcpl	0x00000001
    1728:	65707974 	ldrbvs	r7, [r0, #-2420]!	; 0x974
    172c:	00682e73 	rsbeq	r2, r8, r3, ror lr
    1730:	73000001 	movwvc	r0, #1
    1734:	65646474 	strbvs	r6, [r4, #-1140]!	; 0x474
    1738:	00682e66 	rsbeq	r2, r8, r6, ror #28
    173c:	72000002 	andvc	r0, r0, #2
    1740:	746e6565 	strbtvc	r6, [lr], #-1381	; 0x565
    1744:	0100682e 	tsteq	r0, lr, lsr #16
    1748:	70720000 	rsbsvc	r0, r2, r0
    174c:	00682e69 	rsbeq	r2, r8, r9, ror #28
    1750:	67000003 	strvs	r0, [r0, -r3]
    1754:	2e6f6970 	mcrcs	9, 3, r6, cr15, cr0, {3}
    1758:	00030068 	andeq	r0, r3, r8, rrx
    175c:	05000000 	streq	r0, [r0, #-0]
    1760:	00aefc02 	adceq	pc, lr, r2, lsl #24
    1764:	01270300 	teqeq	r7, r0, lsl #6
    1768:	4f474c13 	svcmi	0x00474c13
    176c:	4c4b68f4 	mcrrmi	8, 15, r6, fp, cr4
    1770:	136a2fa1 	cmnne	sl, #644	; 0x284
    1774:	13be3149 			; <UNDEFINED> instruction: 0x13be3149
    1778:	2fbe3149 	svccs	0x00be3149
    177c:	484d2f6a 	stmdami	sp, {r1, r3, r5, r6, r8, r9, sl, fp, sp}^
    1780:	3249134f 	subcc	r1, r9, #1006632961	; 0x3c000001
    1784:	0602b72f 	streq	fp, [r2], -pc, lsr #14
    1788:	3d010100 	stfccs	f0, [r1, #-0]
    178c:	02000001 	andeq	r0, r0, #1
    1790:	0000e700 	andeq	lr, r0, r0, lsl #14
    1794:	fb010200 	blx	41f9e <__bss_end__+0x355d6>
    1798:	01000d0e 	tsteq	r0, lr, lsl #26
    179c:	00010101 	andeq	r0, r1, r1, lsl #2
    17a0:	00010000 	andeq	r0, r1, r0
    17a4:	752f0100 	strvc	r0, [pc, #-256]!	; 16ac <__code_start__-0x6954>
    17a8:	692f7273 	stmdbvs	pc!, {r0, r1, r4, r5, r6, r9, ip, sp, lr}	; <UNPREDICTABLE>
    17ac:	756c636e 	strbvc	r6, [ip, #-878]!	; 0x36e
    17b0:	6e2f6564 	cfsh64vs	mvdx6, mvdx15, #52
    17b4:	696c7765 	stmdbvs	ip!, {r0, r2, r5, r6, r8, r9, sl, ip, sp, lr}^
    17b8:	79732f62 	ldmdbvc	r3!, {r1, r5, r6, r8, r9, sl, fp, sp}^
    17bc:	752f0073 	strvc	r0, [pc, #-115]!	; 1751 <__code_start__-0x68af>
    17c0:	6c2f7273 	sfmvs	f7, 4, [pc], #-460	; 15fc <__code_start__-0x6a04>
    17c4:	672f6269 	strvs	r6, [pc, -r9, ror #4]!
    17c8:	612f6363 	teqvs	pc, r3, ror #6
    17cc:	6e2d6d72 	mcrvs	13, 1, r6, cr13, cr2, {3}
    17d0:	2d656e6f 	stclcs	14, cr6, [r5, #-444]!	; 0xfffffe44
    17d4:	69626165 	stmdbvs	r2!, {r0, r2, r5, r6, r8, sp, lr}^
    17d8:	332e362f 	teqcc	lr, #49283072	; 0x2f00000
    17dc:	692f312e 	stmdbvs	pc!, {r1, r2, r3, r5, r8, ip, sp}	; <UNPREDICTABLE>
    17e0:	756c636e 	strbvc	r6, [ip, #-878]!	; 0x36e
    17e4:	2f006564 	svccs	0x00006564
    17e8:	656d6f68 	strbvs	r6, [sp, #-3944]!	; 0xf68
    17ec:	676e652f 	strbvs	r6, [lr, -pc, lsr #10]!
    17f0:	2f72656c 	svccs	0x0072656c
    17f4:	73616c63 	cmnvc	r1, #25344	; 0x6300
    17f8:	73632f73 	cmnvc	r3, #460	; 0x1cc
    17fc:	6c303432 	cfldrsvs	mvf3, [r0], #-200	; 0xffffff38
    1800:	30322d78 	eorscc	r2, r2, r8, ror sp
    1804:	2f727073 	svccs	0x00727073
    1808:	62696c2f 	rsbvs	r6, r9, #12032	; 0x2f00
    180c:	692f6970 	stmdbvs	pc!, {r4, r5, r6, r8, fp, sp, lr}	; <UNPREDICTABLE>
    1810:	756c636e 	strbvc	r6, [ip, #-878]!	; 0x36e
    1814:	2f006564 	svccs	0x00006564
    1818:	2f727375 	svccs	0x00727375
    181c:	6c636e69 	stclvs	14, cr6, [r3], #-420	; 0xfffffe5c
    1820:	2f656475 	svccs	0x00656475
    1824:	6c77656e 	cfldr64vs	mvdx6, [r7], #-440	; 0xfffffe48
    1828:	00006269 	andeq	r6, r0, r9, ror #4
    182c:	6c616d6b 	stclvs	13, cr6, [r1], #-428	; 0xfffffe54
    1830:	2e636f6c 	cdpcs	15, 6, cr6, cr3, cr12, {3}
    1834:	00000063 	andeq	r0, r0, r3, rrx
    1838:	636f6c00 	cmnvs	pc, #0, 24
    183c:	00682e6b 	rsbeq	r2, r8, fp, ror #28
    1840:	5f000001 	svcpl	0x00000001
    1844:	65707974 	ldrbvs	r7, [r0, #-2420]!	; 0x974
    1848:	00682e73 	rsbeq	r2, r8, r3, ror lr
    184c:	73000001 	movwvc	r0, #1
    1850:	65646474 	strbvs	r6, [r4, #-1140]!	; 0x474
    1854:	00682e66 	rsbeq	r2, r8, r6, ror #28
    1858:	72000002 	andvc	r0, r0, #2
    185c:	746e6565 	strbtvc	r6, [lr], #-1381	; 0x565
    1860:	0100682e 	tsteq	r0, lr, lsr #16
    1864:	70720000 	rsbsvc	r0, r2, r0
    1868:	00682e69 	rsbeq	r2, r8, r9, ror #28
    186c:	73000003 	movwvc	r0, #3
    1870:	6e697274 	mcrvs	2, 3, r7, cr9, cr4, {3}
    1874:	00682e67 	rsbeq	r2, r8, r7, ror #28
    1878:	00000004 	andeq	r0, r0, r4
    187c:	1c020500 	cfstr32ne	mvfx0, [r2], {-0}
    1880:	030000b0 	movweq	r0, #176	; 0xb0
    1884:	83010110 	movwhi	r0, #4368	; 0x1110
    1888:	83146801 	tsthi	r4, #65536	; 0x10000
    188c:	01040200 	mrseq	r0, R12_usr
    1890:	0402007f 	streq	r0, [r2], #-127	; 0x7f
    1894:	b0084c01 	andlt	r4, r8, r1, lsl #24
    1898:	4b4c4b4b 	blmi	13145cc <__bss_end__+0x1307c04>
    189c:	0200684b 	andeq	r6, r0, #4915200	; 0x4b0000
    18a0:	79030104 	stmdbvc	r3, {r2, r8}
    18a4:	08090366 	stmdaeq	r9, {r1, r2, r5, r6, r8, r9}
    18a8:	2e012fac 	cdpcs	15, 0, cr2, cr1, cr12, {5}
    18ac:	4b6a4b4e 	blmi	1a945ec <__bss_end__+0x1a87c24>
    18b0:	2f4c6767 	svccs	0x004c6767
    18b4:	01040200 	mrseq	r0, R12_usr
    18b8:	004a7603 	subeq	r7, sl, r3, lsl #12
    18bc:	08010402 	stmdaeq	r1, {r1, sl}
    18c0:	2fea0826 	svccs	0x00ea0826
    18c4:	02019f01 	andeq	r9, r1, #1, 30
    18c8:	01010008 	tsteq	r1, r8

Disassembly of section .debug_str:

00000000 <.debug_str>:
       0:	414d4f44 	cmpmi	sp, r4, asr #30
       4:	535f4e49 	cmppl	pc, #1168	; 0x490
       8:	49544345 	ldmdbmi	r4, {r0, r2, r6, r8, r9, lr}^
       c:	465f4e4f 	ldrbmi	r4, [pc], -pc, asr #28
      10:	544c5541 	strbpl	r5, [ip], #-1345	; 0x541
      14:	6d656d00 	stclvs	13, cr6, [r5, #-0]
      18:	63656863 	cmnvs	r5, #6488064	; 0x630000
      1c:	72745f6b 	rsbsvc	r5, r4, #428	; 0x1ac
      20:	006b6361 	rsbeq	r6, fp, r1, ror #6
      24:	33545550 	cmpcc	r4, #80, 10	; 0x14000000
      28:	6f6e0032 	svcvs	0x006e0032
      2c:	69616d74 	stmdbvs	r1!, {r2, r4, r5, r6, r8, sl, fp, sp, lr}^
      30:	6166006e 	cmnvs	r6, lr, rrx
      34:	5f746c75 	svcpl	0x00746c75
      38:	65707865 	ldrbvs	r7, [r0, #-2149]!	; 0x865
      3c:	64657463 	strbtvs	r7, [r5], #-1123	; 0x463
      40:	54454700 	strbpl	r4, [r5], #-1792	; 0x700
      44:	53003233 	movwpl	r3, #563	; 0x233
      48:	49544345 	ldmdbmi	r4, {r0, r2, r6, r8, r9, lr}^
      4c:	505f4e4f 	subspl	r4, pc, pc, asr #28
      50:	5f4d5245 	svcpl	0x004d5245
      54:	4c554146 	ldfmie	f4, [r5], {70}	; 0x46
      58:	6e750054 	mrcvs	0, 3, r0, cr5, cr4, {2}
      5c:	6e676973 	mcrvs	9, 3, r6, cr7, cr3, {3}
      60:	63206465 	teqvs	r0, #1694498816	; 0x65000000
      64:	00726168 	rsbseq	r6, r2, r8, ror #2
      68:	61656c63 	cmnvs	r5, r3, ror #24
      6c:	65725f6e 	ldrbvs	r5, [r2, #-3950]!	; 0xf6e
      70:	746f6f62 	strbtvc	r6, [pc], #-3938	; 78 <__code_start__-0x7f88>
      74:	6d656d00 	stclvs	13, cr6, [r5, #-0]
      78:	63656863 	cmnvs	r5, #6488064	; 0x630000
      7c:	72745f6b 	rsbsvc	r5, r4, #428	; 0x1ac
      80:	655f7061 	ldrbvs	r7, [pc, #-97]	; 27 <__code_start__-0x7fd9>
      84:	6c62616e 	stfvse	f6, [r2], #-440	; 0xfffffe48
      88:	53006465 	movwpl	r6, #1125	; 0x465
      8c:	49544345 	ldmdbmi	r4, {r0, r2, r6, r8, r9, lr}^
      90:	585f4e4f 	ldmdapl	pc, {r0, r1, r2, r3, r6, r9, sl, fp, lr}^	; <UNPREDICTABLE>
      94:	4554414c 	ldrbmi	r4, [r4, #-332]	; 0x14c
      98:	5541465f 	strbpl	r4, [r1, #-1631]	; 0x65f
      9c:	7300544c 	movwvc	r5, #1100	; 0x44c
      a0:	74726f68 	ldrbtvc	r6, [r2], #-3944	; 0xf68
      a4:	736e7520 	cmnvc	lr, #32, 10	; 0x8000000
      a8:	656e6769 	strbvs	r6, [lr, #-1897]!	; 0x769
      ac:	6e692064 	cdpvs	0, 6, cr2, cr9, cr4, {3}
      b0:	65740074 	ldrbvs	r0, [r4, #-116]!	; 0x74
      b4:	2f737473 	svccs	0x00737473
      b8:	74726170 	ldrbtvc	r6, [r2], #-368	; 0x170
      bc:	65742d32 	ldrbvs	r2, [r4, #-3378]!	; 0xd32
      c0:	2e337473 	mrccs	4, 1, r7, cr3, cr3, {3}
      c4:	656d0063 	strbvs	r0, [sp, #-99]!	; 0x63
      c8:	6568636d 	strbvs	r6, [r8, #-877]!	; 0x36d
      cc:	745f6b63 	ldrbvc	r6, [pc], #-2915	; d4 <__code_start__-0x7f2c>
      d0:	5f706172 	svcpl	0x00706172
      d4:	62616e65 	rsbvs	r6, r1, #1616	; 0x650
      d8:	5f00656c 	svcpl	0x0000656c
      dc:	4e55465f 	mrcmi	6, 2, r4, cr5, cr15, {2}
      e0:	4f495443 	svcmi	0x00495443
      e4:	005f5f4e 	subseq	r5, pc, lr, asr #30
      e8:	636d656d 	cmnvs	sp, #457179136	; 0x1b400000
      ec:	6b636568 	blvs	18d9694 <__bss_end__+0x18ccccc>
      f0:	006e6f5f 	rsbeq	r6, lr, pc, asr pc
      f4:	6573552f 	ldrbvs	r5, [r3, #-1327]!	; 0x52f
      f8:	622f7372 	eorvs	r7, pc, #-939524095	; 0xc8000001
      fc:	6e616972 	mcrvs	9, 3, r6, cr1, cr2, {3}
     100:	2f6e756a 	svccs	0x006e756a
     104:	6b736544 	blvs	1cd961c <__bss_end__+0x1cccc54>
     108:	2f706f74 	svccs	0x00706f74
     10c:	6f686373 	svcvs	0x00686373
     110:	532f6c6f 	teqpl	pc, #28416	; 0x6f00
     114:	6e697270 	mcrvs	2, 3, r7, cr9, cr0, {3}
     118:	32393167 	eorscc	r3, r9, #-1073741799	; 0xc0000019
     11c:	53432f30 	movtpl	r2, #16176	; 0x3f30
     120:	4c303432 	cfldrsmi	mvf3, [r0], #-200	; 0xffffff38
     124:	73632f58 	cmnvc	r3, #88, 30	; 0x160
     128:	6c303432 	cfldrsvs	mvf3, [r0], #-200	; 0xffffff38
     12c:	30322d78 	eorscc	r2, r2, r8, ror sp
     130:	2f727073 	svccs	0x00727073
     134:	7362616c 	cmnvc	r2, #108, 2
     138:	2d37312f 	ldfcss	f3, [r7, #-188]!	; 0xffffff44
     13c:	636d656d 	cmnvs	sp, #457179136	; 0x1b400000
     140:	6b636568 	blvs	18d96e8 <__bss_end__+0x18ccd20>
     144:	7261702f 	rsbvc	r7, r1, #47	; 0x2f
     148:	762d3274 			; <UNDEFINED> instruction: 0x762d3274
     14c:	72742d6d 	rsbsvc	r2, r4, #6976	; 0x1b40
     150:	6d007061 	stcvs	0, cr7, [r0, #-388]	; 0xfffffe7c
     154:	695f756d 	ldmdbvs	pc, {r0, r2, r3, r5, r6, r8, sl, ip, sp, lr}^	; <UNPREDICTABLE>
     158:	6e655f73 	mcrvs	15, 3, r5, cr5, cr3, {3}
     15c:	656c6261 	strbvs	r6, [ip, #-609]!	; 0x261
     160:	4e470064 	cdpmi	0, 4, cr0, cr7, cr4, {3}
     164:	20432055 	subcs	r2, r3, r5, asr r0
     168:	2e382e34 	mrccs	14, 1, r2, cr8, cr4, {1}
     16c:	6d2d2033 	stcvs	0, cr2, [sp, #-204]!	; 0xffffff34
     170:	3d757063 	ldclcc	0, cr7, [r5, #-396]!	; 0xfffffe74
     174:	316d7261 	cmncc	sp, r1, ror #4
     178:	6a363731 	bvs	d8de44 <__bss_end__+0xd8147c>
     17c:	732d667a 	teqvc	sp, #127926272	; 0x7a00000
     180:	746d2d20 	strbtvc	r2, [sp], #-3360	; 0xd20
     184:	3d656e75 	stclcc	14, cr6, [r5, #-468]!	; 0xfffffe2c
     188:	316d7261 	cmncc	sp, r1, ror #4
     18c:	6a363731 	bvs	d8de58 <__bss_end__+0xd81490>
     190:	732d667a 	teqvc	sp, #127926272	; 0x7a00000
     194:	67672d20 	strbvs	r2, [r7, -r0, lsr #26]!
     198:	2d206264 	sfmcs	f6, 4, [r0, #-400]!	; 0xfffffe70
     19c:	2d20674f 	stccs	7, cr6, [r0, #-316]!	; 0xfffffec4
     1a0:	3d647473 	cfstrdcc	mvd7, [r4, #-460]!	; 0xfffffe34
     1a4:	39756e67 	ldmdbcc	r5!, {r0, r1, r2, r5, r6, r9, sl, fp, sp, lr}^
     1a8:	662d2039 			; <UNDEFINED> instruction: 0x662d2039
     1ac:	65657266 	strbvs	r7, [r5, #-614]!	; 0x266
     1b0:	6e617473 	mcrvs	4, 3, r7, cr1, cr3, {3}
     1b4:	676e6964 	strbvs	r6, [lr, -r4, ror #18]!
     1b8:	6e662d20 	cdpvs	13, 6, cr2, cr6, cr0, {1}
     1bc:	6f742d6f 	svcvs	0x00742d6f
     1c0:	76656c70 			; <UNDEFINED> instruction: 0x76656c70
     1c4:	722d6c65 	eorvc	r6, sp, #25856	; 0x6500
     1c8:	64726f65 	ldrbtvs	r6, [r2], #-3941	; 0xf65
     1cc:	6d007265 	sfmvs	f7, 4, [r0, #-404]	; 0xfffffe6c
     1d0:	68636d65 	stmdavs	r3!, {r0, r2, r5, r6, r8, sl, fp, sp, lr}^
     1d4:	5f6b6365 	svcpl	0x006b6365
     1d8:	74696e69 	strbtvc	r6, [r9], #-3689	; 0xe69
     1dc:	6e6f6c00 	cdpvs	12, 6, cr6, cr15, cr0, {0}
     1e0:	6f6c2067 	svcvs	0x006c2067
     1e4:	7520676e 	strvc	r6, [r0, #-1902]!	; 0x76e
     1e8:	6769736e 	strbvs	r7, [r9, -lr, ror #6]!
     1ec:	2064656e 	rsbcs	r6, r4, lr, ror #10
     1f0:	00746e69 	rsbseq	r6, r4, r9, ror #28
     1f4:	657a6973 	ldrbvs	r6, [sl, #-2419]!	; 0x973
     1f8:	65707974 	ldrbvs	r7, [r0, #-2420]!	; 0x974
     1fc:	6e6f6c00 	cdpvs	12, 6, cr6, cr15, cr0, {0}
     200:	6f6c2067 	svcvs	0x006c2067
     204:	6920676e 	stmdbvs	r0!, {r1, r2, r3, r5, r6, r8, r9, sl, sp, lr}
     208:	6d00746e 	cfstrsvs	mvf7, [r0, #-440]	; 0xfffffe48
     20c:	68636d65 	stmdavs	r3!, {r0, r2, r5, r6, r8, sl, fp, sp, lr}^
     210:	5f6b6365 	svcpl	0x006b6365
     214:	746e6f63 	strbtvc	r6, [lr], #-3939	; 0xf63
     218:	65756e69 	ldrbvs	r6, [r5, #-3689]!	; 0xe69
     21c:	7466615f 	strbtvc	r6, [r6], #-351	; 0x15f
     220:	665f7265 	ldrbvs	r7, [pc], -r5, ror #4
     224:	746c7561 	strbtvc	r7, [ip], #-1377	; 0x561
     228:	6f687300 	svcvs	0x00687300
     22c:	69207472 	stmdbvs	r0!, {r1, r4, r5, r6, sl, ip, sp, lr}
     230:	7500746e 	strvc	r7, [r0, #-1134]	; 0x46e
     234:	33746e69 	cmncc	r4, #1680	; 0x690
     238:	00745f32 	rsbseq	r5, r4, r2, lsr pc
     23c:	5f697072 	svcpl	0x00697072
     240:	65736572 	ldrbvs	r6, [r3, #-1394]!	; 0x572
     244:	75705f74 	ldrbvc	r5, [r0, #-3956]!	; 0xf74
     248:	5a006374 	bpl	19020 <__bss_end__+0xc658>
     24c:	6172625f 	cmnvs	r2, pc, asr r2
     250:	5f68636e 	svcpl	0x0068636e
     254:	64657270 	strbtvs	r7, [r5], #-624	; 0x270
     258:	69736100 	ldmdbvs	r3!, {r8, sp, lr}^
     25c:	756f0064 	strbvc	r0, [pc, #-100]!	; 200 <__code_start__-0x7e00>
     260:	6d6d5f72 	stclvs	15, cr5, [sp, #-456]!	; 0xfffffe38
     264:	65725f75 	ldrbvs	r5, [r2, #-3957]!	; 0xf75
     268:	00746573 	rsbseq	r6, r4, r3, ror r5
     26c:	5f756d6d 	svcpl	0x00756d6d
     270:	6b72616d 	blvs	1c9882c <__bss_end__+0x1c8be64>
     274:	6365735f 	cmnvs	r5, #2080374785	; 0x7c000001
     278:	6165725f 	cmnvs	r5, pc, asr r2
     27c:	6c6e6f64 	stclvs	15, cr6, [lr], #-400	; 0xfffffe70
     280:	69730079 	ldmdbvs	r3!, {r0, r3, r4, r5, r6}^
     284:	745f657a 	ldrbvc	r6, [pc], #-1402	; 28c <__code_start__-0x7d74>
     288:	756d6d00 	strbvc	r6, [sp, #-3328]!	; 0xd00
     28c:	6365735f 	cmnvs	r5, #2080374785	; 0x7c000001
     290:	7469625f 	strbtvc	r6, [r9], #-607	; 0x25f
     294:	6e6f5f73 	mcrvs	15, 3, r5, cr15, cr3, {3}
     298:	5600796c 	strpl	r7, [r0], -ip, ror #18
     29c:	6769685f 			; <UNDEFINED> instruction: 0x6769685f
     2a0:	78655f68 	stmdavc	r5!, {r3, r5, r6, r8, r9, sl, fp, ip, lr}^
     2a4:	74706563 	ldrbtvc	r6, [r0], #-1379	; 0x563
     2a8:	4200765f 	andmi	r7, r0, #99614720	; 0x5f00000
     2ac:	646e655f 	strbtvs	r6, [lr], #-1375	; 0x55f
     2b0:	006e6169 	rsbeq	r6, lr, r9, ror #2
     2b4:	2e756d6d 	cdpcs	13, 7, cr6, cr5, cr13, {3}
     2b8:	736e0063 	cmnvc	lr, #99	; 0x63
     2bc:	49006365 	stmdbmi	r0, {r0, r2, r5, r6, r8, r9, sp, lr}
     2c0:	6163695f 	cmnvs	r3, pc, asr r9
     2c4:	5f656863 	svcpl	0x00656863
     2c8:	62616e65 	rsbvs	r6, r1, #1616	; 0x650
     2cc:	4100656c 	tstmi	r0, ip, ror #10
     2d0:	696c615f 	stmdbvs	ip!, {r0, r1, r2, r3, r4, r6, r8, sp, lr}^
     2d4:	656d6e67 	strbvs	r6, [sp, #-3687]!	; 0xe67
     2d8:	6f00746e 	svcvs	0x0000746e
     2dc:	635f7275 	cmpvs	pc, #1342177287	; 0x50000007
     2e0:	5f353170 	svcpl	0x00353170
     2e4:	5f746573 	svcpl	0x00746573
     2e8:	636f7270 	cmnvs	pc, #112, 4
     2ec:	745f6469 	ldrbvc	r6, [pc], #-1129	; 2f4 <__code_start__-0x7d0c>
     2f0:	30726274 	rsbscc	r6, r2, r4, ror r2
     2f4:	5f504100 	svcpl	0x00504100
     2f8:	6f5f6472 	svcvs	0x005f6472
     2fc:	00796c6e 	rsbseq	r6, r9, lr, ror #24
     300:	6c616d6b 	stclvs	13, cr6, [r1], #-428	; 0xfffffe54
     304:	5f636f6c 	svcpl	0x00636f6c
     308:	67696c61 	strbvs	r6, [r9, -r1, ror #24]!
     30c:	0064656e 	rsbeq	r6, r4, lr, ror #10
     310:	5f636573 	svcpl	0x00636573
     314:	65736162 	ldrbvs	r6, [r3, #-354]!	; 0x162
     318:	6464615f 	strbtvs	r6, [r4], #-351	; 0x15f
     31c:	6d6d0072 	stclvs	0, cr0, [sp, #-456]!	; 0xfffffe38
     320:	6e655f75 	mcrvs	15, 3, r5, cr5, cr5, {3}
     324:	656c6261 	strbvs	r6, [ip, #-609]!	; 0x261
     328:	7465735f 	strbtvc	r7, [r5], #-863	; 0x35f
     32c:	69727700 	ldmdbvs	r2!, {r8, r9, sl, ip, sp, lr}^
     330:	645f6574 	ldrbvs	r6, [pc], #-1396	; 338 <__code_start__-0x7cc8>
     334:	69616d6f 	stmdbvs	r1!, {r0, r1, r2, r3, r5, r6, r8, sl, fp, sp, lr}^
     338:	63615f6e 	cmnvs	r1, #440	; 0x1b8
     33c:	73736563 	cmnvc	r3, #415236096	; 0x18c00000
     340:	7274635f 	rsbsvc	r6, r4, #2080374785	; 0x7c000001
     344:	6d6d006c 	stclvs	0, cr0, [sp, #-432]!	; 0xfffffe50
     348:	69645f75 	stmdbvs	r4!, {r0, r2, r4, r5, r6, r8, r9, sl, fp, ip, lr}^
     34c:	6c626173 	stfvse	f6, [r2], #-460	; 0xfffffe34
     350:	65735f65 	ldrbvs	r5, [r3, #-3941]!	; 0xf65
     354:	756f0074 	strbvc	r0, [pc, #-116]!	; 2e8 <__code_start__-0x7d18>
     358:	70635f72 	rsbvc	r5, r3, r2, ror pc
     35c:	645f3531 	ldrbvs	r3, [pc], #-1329	; 364 <__code_start__-0x7c9c>
     360:	69616d6f 	stmdbvs	r1!, {r0, r1, r2, r3, r5, r6, r8, sl, fp, sp, lr}^
     364:	74635f6e 	strbtvc	r5, [r3], #-3950	; 0xf6e
     368:	775f6c72 			; <UNDEFINED> instruction: 0x775f6c72
     36c:	6c660072 	stclvs	0, cr0, [r6], #-456	; 0xfffffe38
     370:	00745f64 	rsbseq	r5, r4, r4, ror #30
     374:	5f72756f 	svcpl	0x0072756f
     378:	5f756d6d 	svcpl	0x00756d6d
     37c:	61736964 	cmnvs	r3, r4, ror #18
     380:	5f656c62 	svcpl	0x00656c62
     384:	5f746573 	svcpl	0x00746573
     388:	006d7361 	rsbeq	r7, sp, r1, ror #6
     38c:	68736168 	ldmdavs	r3!, {r3, r5, r6, r8, sp, lr}^
     390:	6972705f 	ldmdbvs	r2!, {r0, r1, r2, r3, r4, r6, ip, sp, lr}^
     394:	5200746e 	andpl	r7, r0, #1845493760	; 0x6e000000
     398:	61635f52 	cmnvs	r3, r2, asr pc
     39c:	5f656863 	svcpl	0x00656863
     3a0:	00706572 	rsbseq	r6, r0, r2, ror r5
     3a4:	65707573 	ldrbvs	r7, [r0, #-1395]!	; 0x573
     3a8:	70630072 	rsbvc	r0, r3, r2, ror r0
     3ac:	635f3531 	cmpvs	pc, #205520896	; 0xc400000
     3b0:	5f6c7274 	svcpl	0x006c7274
     3b4:	31676572 	smccc	30290	; 0x7652
     3b8:	0072775f 	rsbseq	r7, r2, pc, asr r7
     3bc:	5f756d6d 	svcpl	0x00756d6d
     3c0:	6b72616d 	blvs	1c9897c <__bss_end__+0x1c8bfb4>
     3c4:	6365735f 	cmnvs	r5, #2080374785	; 0x7c000001
     3c8:	0077725f 	rsbseq	r7, r7, pc, asr r2
     3cc:	5f646c66 	svcpl	0x00646c66
     3d0:	6d006b6d 	vstrvs	d6, [r0, #-436]	; 0xfffffe4c
     3d4:	705f756d 	subsvc	r7, pc, sp, ror #10
     3d8:	6c615f74 	stclvs	15, cr5, [r1], #-464	; 0xfffffe30
     3dc:	00636f6c 	rsbeq	r6, r3, ip, ror #30
     3e0:	7365725f 	cmnvc	r5, #-268435451	; 0xf0000005
     3e4:	65767265 	ldrbvs	r7, [r6, #-613]!	; 0x265
     3e8:	5f003064 	svcpl	0x00003064
     3ec:	65736572 	ldrbvs	r6, [r3, #-1394]!	; 0x572
     3f0:	64657672 	strbtvs	r7, [r5], #-1650	; 0x672
     3f4:	50410031 	subpl	r0, r1, r1, lsr r0
     3f8:	0077725f 	rsbseq	r7, r7, pc, asr r2
     3fc:	73726966 	cmnvc	r2, #1671168	; 0x198000
     400:	656c5f74 	strbvs	r5, [ip, #-3956]!	; 0xf74
     404:	5f6c6576 	svcpl	0x006c6576
     408:	63736564 	cmnvs	r3, #100, 10	; 0x19000000
     40c:	74706972 	ldrbtvc	r6, [r0], #-2418	; 0x972
     410:	6d00726f 	sfmvs	f7, 4, [r0, #-444]	; 0xfffffe44
     414:	6d5f756d 	cfldr64vs	mvdx7, [pc, #-436]	; 268 <__code_start__-0x7d98>
     418:	735f7061 	cmpvc	pc, #97	; 0x61
     41c:	69746365 	ldmdbvs	r4!, {r0, r2, r5, r6, r8, r9, sp, lr}^
     420:	6d006e6f 	stcvs	14, cr6, [r0, #-444]	; 0xfffffe44
     424:	645f756d 	ldrbvs	r7, [pc], #-1389	; 42c <__code_start__-0x7bd4>
     428:	62617369 	rsbvs	r7, r1, #-1543503871	; 0xa4000001
     42c:	6300656c 	movwvs	r6, #1388	; 0x56c
     430:	5f353170 	svcpl	0x00353170
     434:	6c727463 	cfldrdvs	mvd7, [r2], #-396	; 0xfffffe74
     438:	6765725f 			; <UNDEFINED> instruction: 0x6765725f
     43c:	64725f31 	ldrbtvs	r5, [r2], #-3889	; 0xf31
     440:	5f455600 	svcpl	0x00455600
     444:	74636576 	strbtvc	r6, [r3], #-1398	; 0x576
     448:	746e695f 	strbtvc	r6, [lr], #-2399	; 0x95f
     44c:	725f5200 	subsvc	r5, pc, #0, 4
     450:	705f6d6f 	subsvc	r6, pc, pc, ror #26
     454:	00746f72 	rsbseq	r6, r4, r2, ror pc
     458:	7479626e 	ldrbtvc	r6, [r9], #-622	; 0x26e
     45c:	46007365 	strmi	r7, [r0], -r5, ror #6
     460:	6f665f41 	svcvs	0x00665f41
     464:	5f656372 	svcpl	0x00656372
     468:	6f007061 	svcvs	0x00007061
     46c:	6d5f7275 	lfmvs	f7, 2, [pc, #-468]	; 2a0 <__code_start__-0x7d60>
     470:	735f756d 	cmpvc	pc, #457179136	; 0x1b400000
     474:	5f636e79 	svcpl	0x00636e79
     478:	5f657470 	svcpl	0x00657470
     47c:	73646f6d 	cmnvc	r4, #436	; 0x1b4
     480:	775f5700 	ldrbvc	r5, [pc, -r0, lsl #14]
     484:	65746972 	ldrbvs	r6, [r4, #-2418]!	; 0x972
     488:	6675625f 			; <UNDEFINED> instruction: 0x6675625f
     48c:	705f5300 	subsvc	r5, pc, r0, lsl #6
     490:	00746f72 	rsbseq	r6, r4, r2, ror pc
     494:	5f756d6d 	svcpl	0x00756d6d
     498:	6b72616d 	blvs	1c98a54 <__bss_end__+0x1c8c08c>
     49c:	6365735f 	cmnvs	r5, #2080374785	; 0x7c000001
     4a0:	5f70615f 	svcpl	0x0070615f
     4a4:	6d726570 	cfldr64vs	mvdx6, [r2, #-448]!	; 0xfffffe40
     4a8:	756d6d00 	strbvc	r6, [sp, #-3328]!	; 0xd00
     4ac:	696e695f 	stmdbvs	lr!, {r0, r1, r2, r3, r4, r6, r8, fp, sp, lr}^
     4b0:	6d6d0074 	stclvs	0, cr0, [sp, #-464]!	; 0xfffffe30
     4b4:	74705f75 	ldrbtvc	r5, [r0], #-3957	; 0xf75
     4b8:	6c6c615f 	stfvse	f6, [ip], #-380	; 0xfffffe84
     4bc:	615f636f 	cmpvs	pc, pc, ror #6
     4c0:	4d4d0074 	stclmi	0, cr0, [sp, #-464]	; 0xfffffe30
     4c4:	6e655f55 	mcrvs	15, 3, r5, cr5, cr5, {2}
     4c8:	656c6261 	strbvs	r6, [ip, #-609]!	; 0x261
     4cc:	5f550064 	svcpl	0x00550064
     4d0:	6c616e75 	stclvs	14, cr6, [r1], #-468	; 0xfffffe2c
     4d4:	656e6769 	strbvs	r6, [lr, #-1897]!	; 0x769
     4d8:	50580064 	subspl	r0, r8, r4, rrx
     4dc:	0074705f 	rsbseq	r7, r4, pc, asr r0
     4e0:	745f5254 	ldrbvc	r5, [pc], #-596	; 4e8 <__code_start__-0x7b18>
     4e4:	725f7865 	subsvc	r7, pc, #6619136	; 0x650000
     4e8:	70616d65 	rsbvc	r6, r1, r5, ror #26
     4ec:	646e6900 	strbtvs	r6, [lr], #-2304	; 0x900
     4f0:	63007865 	movwvs	r7, #2149	; 0x865
     4f4:	72746e6f 	rsbsvc	r6, r4, #1776	; 0x6f0
     4f8:	725f6c6f 	subsvc	r6, pc, #28416	; 0x6f00
     4fc:	00316765 	eorseq	r6, r1, r5, ror #14
     500:	5f6d7361 	svcpl	0x006d7361
     504:	5f746f6e 	svcpl	0x00746f6e
     508:	6c706d69 	ldclvs	13, cr6, [r0], #-420	; 0xfffffe5c
     50c:	6e656d65 	cdpvs	13, 6, cr6, cr5, cr5, {3}
     510:	00646574 	rsbeq	r6, r4, r4, ror r5
     514:	5f756d6d 	svcpl	0x00756d6d
     518:	62616e65 	rsbvs	r6, r1, #1616	; 0x650
     51c:	6300656c 	movwvs	r6, #1388	; 0x56c
     520:	5f353170 	svcpl	0x00353170
     524:	6c727463 	cfldrdvs	mvd7, [r2], #-396	; 0xfffffe74
     528:	6765725f 			; <UNDEFINED> instruction: 0x6765725f
     52c:	00745f31 	rsbseq	r5, r4, r1, lsr pc
     530:	756e755f 	strbvc	r7, [lr, #-1375]!	; 0x55f
     534:	31646573 	smccc	18003	; 0x4653
     538:	6d656d00 	stclvs	13, cr6, [r5, #-0]
     53c:	00746573 	rsbseq	r6, r4, r3, ror r5
     540:	5f646c66 	svcpl	0x00646c66
     544:	6e697270 	mcrvs	2, 3, r7, cr9, cr0, {3}
     548:	65720074 	ldrbvs	r0, [r2, #-116]!	; 0x74
     54c:	645f6461 	ldrbvs	r6, [pc], #-1121	; 554 <__code_start__-0x7aac>
     550:	69616d6f 	stmdbvs	r1!, {r0, r1, r2, r3, r5, r6, r8, sl, fp, sp, lr}^
     554:	63615f6e 	cmnvs	r1, #440	; 0x1b8
     558:	73736563 	cmnvc	r3, #415236096	; 0x18c00000
     55c:	7274635f 	rsbsvc	r6, r4, #2080374785	; 0x7c000001
     560:	6c66006c 	stclvs	0, cr0, [r6], #-432	; 0xfffffe50
     564:	65735f64 	ldrbvs	r5, [r3, #-3940]!	; 0xf64
     568:	61625f74 	smcvs	9716	; 0x25f4
     56c:	615f6573 	cmpvs	pc, r3, ror r5	; <UNPREDICTABLE>
     570:	00726464 	rsbseq	r6, r2, r4, ror #8
     574:	5f756d6d 	svcpl	0x00756d6d
     578:	74736e69 	ldrbtvc	r6, [r3], #-3689	; 0xe69
     57c:	5f6c6c61 	svcpl	0x006c6c61
     580:	646e6168 	strbtvs	r6, [lr], #-360	; 0x168
     584:	7372656c 	cmnvc	r2, #108, 10	; 0x1b000000
     588:	5f504100 	svcpl	0x00504100
     58c:	615f6f6e 	cmpvs	pc, lr, ror #30
     590:	73656363 	cmnvc	r5, #-1946157055	; 0x8c000001
     594:	6f640073 	svcvs	0x00640073
     598:	6e69616d 	powvsez	f6, f1, #5.0
     59c:	62735f00 	rsbsvs	r5, r3, #0, 30
     5a0:	5f00307a 	svcpl	0x0000307a
     5a4:	317a6273 	cmncc	sl, r3, ror r2
     5a8:	756d6d00 	strbvc	r6, [sp, #-3328]!	; 0xd00
     5ac:	70616d5f 	rsbvc	r6, r1, pc, asr sp
     5b0:	6365735f 	cmnvs	r5, #2080374785	; 0x7c000001
     5b4:	6e6f6974 	mcrvs	9, 3, r6, cr15, cr4, {3}
     5b8:	324c0073 	subcc	r0, ip, #115	; 0x73
     5bc:	616e655f 	cmnvs	lr, pc, asr r5
     5c0:	64656c62 	strbtvs	r6, [r5], #-3170	; 0xc62
     5c4:	755f4300 	ldrbvc	r4, [pc, #-768]	; 2cc <__code_start__-0x7d34>
     5c8:	6966696e 	stmdbvs	r6!, {r1, r2, r3, r5, r6, r8, fp, sp, lr}^
     5cc:	655f6465 	ldrbvs	r6, [pc, #-1125]	; 16f <__code_start__-0x7e91>
     5d0:	6c62616e 	stfvse	f6, [r2], #-440	; 0xfffffe48
     5d4:	756f0065 	strbvc	r0, [pc, #-101]!	; 577 <__code_start__-0x7a89>
     5d8:	6d6d5f72 	stclvs	15, cr5, [sp, #-456]!	; 0xfffffe38
     5dc:	6e655f75 	mcrvs	15, 3, r5, cr5, cr5, {3}
     5e0:	656c6261 	strbvs	r6, [ip, #-609]!	; 0x261
     5e4:	7465735f 	strbtvc	r7, [r5], #-863	; 0x35f
     5e8:	6d73615f 	ldfvse	f6, [r3, #-380]!	; 0xfffffe84
     5ec:	756d6d00 	strbvc	r6, [sp, #-3328]!	; 0xd00
     5f0:	6f6f6c5f 	svcvs	0x006f6c5f
     5f4:	5f70756b 	svcpl	0x0070756b
     5f8:	74636573 	strbtvc	r6, [r3], #-1395	; 0x573
     5fc:	006e6f69 	rsbeq	r6, lr, r9, ror #30
     600:	4d656e4f 	stclmi	14, cr6, [r5, #-316]!	; 0xfffffec4
     604:	6d6d0042 	stclvs	0, cr0, [sp, #-264]!	; 0xfffffef8
     608:	616d5f75 	smcvs	54773	; 0xd5f5
     60c:	735f6b72 	cmpvc	pc, #116736	; 0x1c800
     610:	6e5f6365 	cdpvs	3, 5, cr6, cr15, cr5, {3}
     614:	63615f6f 	cmnvs	r1, #444	; 0x1bc
     618:	73736563 	cmnvc	r3, #415236096	; 0x18c00000
     61c:	746e6900 	strbtvc	r6, [lr], #-2304	; 0x900
     620:	696e695f 	stmdbvs	lr!, {r0, r1, r2, r3, r4, r6, r8, fp, sp, lr}^
     624:	6d6d0074 	stclvs	0, cr0, [sp, #-464]!	; 0xfffffe30
     628:	65682d75 	strbvs	r2, [r8, #-3445]!	; 0xd75
     62c:	7265706c 	rsbvc	r7, r5, #108	; 0x6c
     630:	00632e73 	rsbeq	r2, r3, r3, ror lr
     634:	5f646c66 	svcpl	0x00646c66
     638:	63656863 	cmnvs	r5, #6488064	; 0x630000
     63c:	666f5f6b 	strbtvs	r5, [pc], -fp, ror #30
     640:	74657366 	strbtvc	r7, [r5], #-870	; 0x366
     644:	61660073 	smcvs	24579	; 0x6003
     648:	685f7473 	ldmdavs	pc, {r0, r1, r4, r5, r6, sl, ip, sp, lr}^	; <UNPREDICTABLE>
     64c:	00687361 	rsbeq	r7, r8, r1, ror #6
     650:	746e6f63 	strbtvc	r6, [lr], #-3939	; 0xf63
     654:	5f6c6f72 	svcpl	0x006c6f72
     658:	31676572 	smccc	30290	; 0x7652
     65c:	6e61735f 	mcrvs	3, 3, r7, cr1, cr15, {2}
     660:	5f797469 	svcpl	0x00797469
     664:	63656863 	cmnvs	r5, #6488064	; 0x630000
     668:	6c66006b 	stclvs	0, cr0, [r6], #-428	; 0xfffffe54
     66c:	68635f64 	stmdavs	r3!, {r2, r5, r6, r8, r9, sl, fp, ip, lr}^
     670:	5f6b6365 	svcpl	0x006b6365
     674:	696c6176 	stmdbvs	ip!, {r1, r2, r4, r5, r6, r8, sp, lr}^
     678:	68730064 	ldmdavs	r3!, {r2, r5, r6}^
     67c:	00746669 	rsbseq	r6, r4, r9, ror #12
     680:	5f626c74 	svcpl	0x00626c74
     684:	666e6f63 	strbtvs	r6, [lr], -r3, ror #30
     688:	73006769 	movwvc	r6, #1897	; 0x769
     68c:	615f7465 	cmpvs	pc, r5, ror #8
     690:	63006c6c 	movwvs	r6, #3180	; 0xc6c
     694:	6b636568 	blvs	18d9c3c <__bss_end__+0x18cd274>
     698:	5f6d765f 	svcpl	0x006d765f
     69c:	75727473 	ldrbvc	r7, [r2, #-1139]!	; 0x473
     6a0:	00737463 	rsbseq	r7, r3, r3, ror #8
     6a4:	746e6f63 	strbtvc	r6, [lr], #-3939	; 0xf63
     6a8:	5f6c6f72 	svcpl	0x006c6f72
     6ac:	31676572 	smccc	30290	; 0x7652
     6b0:	6972705f 	ldmdbvs	r2!, {r0, r1, r2, r3, r4, r6, ip, sp, lr}^
     6b4:	7400746e 	strvc	r7, [r0], #-1134	; 0x46e
     6b8:	635f626c 	cmpvs	pc, #108, 4	; 0xc0000006
     6bc:	69666e6f 	stmdbvs	r6!, {r0, r1, r2, r3, r5, r6, r9, sl, fp, sp, lr}^
     6c0:	68635f67 	stmdavs	r3!, {r0, r1, r2, r5, r6, r8, r9, sl, fp, ip, lr}^
     6c4:	5f6b6365 	svcpl	0x006b6365
     6c8:	7366666f 	cmnvc	r6, #116391936	; 0x6f00000
     6cc:	00737465 	rsbseq	r7, r3, r5, ror #8
     6d0:	616d6f64 	cmnvs	sp, r4, ror #30
     6d4:	615f6e69 	cmpvs	pc, r9, ror #28
     6d8:	705f6c63 	subsvc	r6, pc, r3, ror #24
     6dc:	746e6972 	strbtvc	r6, [lr], #-2418	; 0x972
     6e0:	6e6f6300 	cdpvs	3, 6, cr6, cr15, cr0, {0}
     6e4:	6c6f7274 	sfmvs	f7, 2, [pc], #-464	; 51c <__code_start__-0x7ae4>
     6e8:	6765725f 			; <UNDEFINED> instruction: 0x6765725f
     6ec:	68635f31 	stmdavs	r3!, {r0, r4, r5, r8, r9, sl, fp, ip, lr}^
     6f0:	5f6b6365 	svcpl	0x006b6365
     6f4:	7366666f 	cmnvc	r6, #116391936	; 0x6f00000
     6f8:	00737465 	rsbseq	r7, r3, r5, ror #8
     6fc:	5f626c74 	svcpl	0x00626c74
     700:	666e6f63 	strbtvs	r6, [lr], -r3, ror #30
     704:	705f6769 	subsvc	r6, pc, r9, ror #14
     708:	746e6972 	strbtvc	r6, [lr], #-2418	; 0x972
     70c:	696e7500 	stmdbvs	lr!, {r8, sl, ip, sp, lr}^
     710:	64656966 	strbtvs	r6, [r5], #-2406	; 0x966
     714:	6e00705f 	mcrvs	0, 0, r7, cr0, cr15, {2}
     718:	6c5f695f 	mrrcvs	9, 5, r6, pc, cr15	; <UNPREDICTABLE>
     71c:	006b636f 	rsbeq	r6, fp, pc, ror #6
     720:	5f645f6e 	svcpl	0x00645f6e
     724:	6b636f6c 	blvs	18dc4dc <__bss_end__+0x18cfb14>
     728:	4d4f4400 	cfstrdmi	mvd4, [pc, #-0]	; 730 <__code_start__-0x78d0>
     72c:	5f4e4941 	svcpl	0x004e4941
     730:	45474150 	strbmi	r4, [r7, #-336]	; 0x150
     734:	41434900 	cmpmi	r3, r0, lsl #18
     738:	5f454843 	svcpl	0x00454843
     73c:	4e49414d 	dvfmiem	f4, f1, #5.0
     740:	504f5f54 	subpl	r5, pc, r4, asr pc	; <UNPREDICTABLE>
     744:	0054465f 	subseq	r4, r4, pc, asr r6
     748:	49524150 	ldmdbmi	r2, {r4, r6, r8, lr}^
     74c:	455f5954 	ldrbmi	r5, [pc, #-2388]	; fffffe00 <__bss_end__+0xffff3438>
     750:	455f5252 	ldrbmi	r5, [pc, #-594]	; 506 <__code_start__-0x7afa>
     754:	00504358 	subseq	r4, r0, r8, asr r3
     758:	61746164 	cmnvs	r4, r4, ror #2
     75c:	6f62615f 	svcvs	0x0062615f
     760:	765f7472 			; <UNDEFINED> instruction: 0x765f7472
     764:	6f746365 	svcvs	0x00746365
     768:	4d490072 	stclmi	0, cr0, [r9, #-456]	; 0xfffffe38
     76c:	43455250 	movtmi	r5, #21072	; 0x5250
     770:	5458455f 	ldrbpl	r4, [r8], #-1375	; 0x55f
     774:	5442415f 	strbpl	r4, [r2], #-351	; 0x15f
     778:	424c5400 	submi	r5, ip, #0, 8
     77c:	434f4c5f 	movtmi	r4, #64607	; 0xfc5f
     780:	656d004b 	strbvs	r0, [sp, #-75]!	; 0x4b
     784:	6568636d 	strbvs	r6, [r8, #-877]!	; 0x36d
     788:	632e6b63 	teqvs	lr, #101376	; 0x18c00
     78c:	4d4f4400 	cfstrdmi	mvd4, [pc, #-0]	; 794 <__code_start__-0x786c>
     790:	6e616d5f 	mcrvs	13, 3, r6, cr1, cr15, {2}
     794:	72656761 	rsbvc	r6, r5, #25427968	; 0x1840000
     798:	4d4f4400 	cfstrdmi	mvd4, [pc, #-0]	; 7a0 <__code_start__-0x7860>
     79c:	5f4e4941 	svcpl	0x004e4941
     7a0:	54434553 	strbpl	r4, [r3], #-1363	; 0x553
     7a4:	004e4f49 	subeq	r4, lr, r9, asr #30
     7a8:	63617274 	cmnvs	r1, #116, 4	; 0x40000007
     7ac:	64695f6b 	strbtvs	r5, [r9], #-3947	; 0xf6b
     7b0:	494c4100 	stmdbmi	ip, {r8, lr}^
     7b4:	454d4e47 	strbmi	r4, [sp, #-3655]	; 0xe47
     7b8:	4400544e 	strmi	r5, [r0], #-1102	; 0x44e
     7bc:	47554245 	ldrbmi	r4, [r5, -r5, asr #4]
     7c0:	4556455f 	ldrbmi	r4, [r6, #-1375]	; 0x55f
     7c4:	6400544e 	strvs	r5, [r0], #-1102	; 0x44e
     7c8:	695f6d6f 	ldmdbvs	pc, {r0, r1, r2, r3, r5, r6, r8, sl, fp, sp, lr}^	; <UNPREDICTABLE>
     7cc:	656d0064 	strbvs	r0, [sp, #-100]!	; 0x64
     7d0:	6568636d 	strbvs	r6, [r8, #-877]!	; 0x36d
     7d4:	6f5f6b63 	svcvs	0x005f6b63
     7d8:	6d006666 	stcvs	6, cr6, [r0, #-408]	; 0xfffffe68
     7dc:	725f756d 	subsvc	r7, pc, #457179136	; 0x1b400000
     7e0:	6d757365 	ldclvs	3, cr7, [r5, #-404]!	; 0xfffffe6c
     7e4:	00705f65 	rsbseq	r5, r0, r5, ror #30
     7e8:	7473616c 	ldrbtvc	r6, [r3], #-364	; 0x16c
     7ec:	7561665f 	strbvc	r6, [r1, #-1631]!	; 0x65f
     7f0:	5400746c 	strpl	r7, [r0], #-1132	; 0x46c
     7f4:	534e4152 	movtpl	r4, #57682	; 0xe152
     7f8:	4954414c 	ldmdbmi	r4, {r2, r3, r6, r8, lr}^
     7fc:	535f4e4f 	cmppl	pc, #1264	; 0x4f0
     800:	49544345 	ldmdbmi	r4, {r0, r2, r6, r8, r9, lr}^
     804:	44004e4f 	strmi	r4, [r0], #-3663	; 0xe4f
     808:	635f4d4f 	cmpvs	pc, #5056	; 0x13c0
     80c:	6e65696c 	cdpvs	9, 6, cr6, cr5, cr12, {3}
     810:	656d0074 	strbvs	r0, [sp, #-116]!	; 0x74
     814:	6568636d 	strbvs	r6, [r8, #-877]!	; 0x36d
     818:	745f6b63 	ldrbvc	r6, [pc], #-2915	; 820 <__code_start__-0x77e0>
     81c:	5f706172 	svcpl	0x00706172
     820:	61736964 	cmnvs	r3, r4, ror #18
     824:	00656c62 	rsbeq	r6, r5, r2, ror #24
     828:	72736664 	rsbsvc	r6, r3, #100, 12	; 0x6400000
     82c:	4d4f4400 	cfstrdmi	mvd4, [pc, #-0]	; 834 <__code_start__-0x77cc>
     830:	7365725f 	cmnvc	r5, #-268435451	; 0xf0000005
     834:	65767265 	ldrbvs	r7, [r6, #-613]!	; 0x265
     838:	58450064 	stmdapl	r5, {r2, r5, r6}^
     83c:	42415f54 	submi	r5, r1, #84, 30	; 0x150
     840:	52545f54 	subspl	r5, r4, #84, 30	; 0x150
     844:	4c534e41 	mrrcmi	14, 4, r4, r3, cr1
     848:	4f495441 	svcmi	0x00495441
     84c:	564c5f4e 	strbpl	r5, [ip], -lr, asr #30
     850:	00325f4c 	eorseq	r5, r2, ip, asr #30
     854:	6c756166 	ldfvse	f6, [r5], #-408	; 0xfffffe68
     858:	65725f74 	ldrbvs	r5, [r2, #-3956]!	; 0xf74
     85c:	6e6f7361 	cdpvs	3, 6, cr7, cr15, cr1, {3}
     860:	6d656d00 	stclvs	13, cr6, [r5, #-0]
     864:	63656863 	cmnvs	r5, #6488064	; 0x630000
     868:	6f6e5f6b 	svcvs	0x006e5f6b
     86c:	6363615f 	cmnvs	r3, #-1073741801	; 0xc0000017
     870:	00737365 	rsbseq	r7, r3, r5, ror #6
     874:	5f726166 	svcpl	0x00726166
     878:	00746567 	rsbseq	r6, r4, r7, ror #10
     87c:	5f545845 	svcpl	0x00545845
     880:	5f544241 	svcpl	0x00544241
     884:	43455250 	movtmi	r5, #21072	; 0x5250
     888:	5045445f 	subpl	r4, r5, pc, asr r4
     88c:	4f440052 	svcmi	0x00440052
     890:	6f6e5f4d 	svcvs	0x006e5f4d
     894:	6363615f 	cmnvs	r3, #-1073741801	; 0xc0000017
     898:	00737365 	rsbseq	r7, r3, r5, ror #6
     89c:	4d524550 	cfldr64mi	mvdx4, [r2, #-320]	; 0xfffffec0
     8a0:	49535349 	ldmdbmi	r3, {r0, r3, r6, r8, r9, ip, lr}^
     8a4:	505f4e4f 	subspl	r4, pc, pc, asr #28
     8a8:	00454741 	subeq	r4, r5, r1, asr #14
     8ac:	6c756166 	ldfvse	f6, [r5], #-408	; 0xfffffe68
     8b0:	64615f74 	strbtvs	r5, [r1], #-3956	; 0xf74
     8b4:	41007264 	tstmi	r0, r4, ror #4
     8b8:	4e47494c 	cdpmi	9, 4, cr4, cr7, cr12, {2}
     8bc:	544e454d 	strbpl	r4, [lr], #-1357	; 0x54d
     8c0:	5045445f 	subpl	r4, r5, pc, asr r4
     8c4:	58450052 	stmdapl	r5, {r1, r4, r6}^
     8c8:	42415f54 	submi	r5, r1, #84, 30	; 0x150
     8cc:	52545f54 	subspl	r5, r4, #84, 30	; 0x150
     8d0:	4c534e41 	mrrcmi	14, 4, r4, r3, cr1
     8d4:	4f495441 	svcmi	0x00495441
     8d8:	564c5f4e 	strbpl	r5, [ip], -lr, asr #30
     8dc:	00315f4c 	eorseq	r5, r1, ip, asr #30
     8e0:	7473616c 	ldrbtvc	r6, [r3], #-364	; 0x16c
     8e4:	7561665f 	strbvc	r6, [r1, #-1631]!	; 0x65f
     8e8:	735f746c 	cmpvc	pc, #108, 8	; 0x6c000000
     8ec:	66007465 	strvs	r7, [r0], -r5, ror #8
     8f0:	746c7561 	strbtvc	r7, [ip], #-1377	; 0x561
     8f4:	0063705f 	rsbeq	r7, r3, pc, asr r0
     8f8:	5f6b7262 	svcpl	0x006b7262
     8fc:	62726576 	rsbsvs	r6, r2, #494927872	; 0x1d800000
     900:	5f65736f 	svcpl	0x0065736f
     904:	69620070 	stmdbvs	r2!, {r4, r5, r6}^
     908:	675f7374 			; <UNDEFINED> instruction: 0x675f7374
     90c:	43007465 	movwmi	r7, #1125	; 0x465
     910:	4f52504f 	svcmi	0x0052504f
     914:	41445f43 	cmpmi	r4, r3, asr #30
     918:	415f4154 	cmpmi	pc, r4, asr r1	; <UNPREDICTABLE>
     91c:	64005442 	strvs	r5, [r0], #-1090	; 0x442
     920:	705f6d6f 	subsvc	r6, pc, pc, ror #26
     924:	5f6d7265 	svcpl	0x006d7265
     928:	00746573 	rsbseq	r6, r4, r3, ror r5
     92c:	7473616c 	ldrbtvc	r6, [r3], #-364	; 0x16c
     930:	7561665f 	strbvc	r6, [r1, #-1631]!	; 0x65f
     934:	675f746c 	ldrbvs	r7, [pc, -ip, ror #8]
     938:	54007465 	strpl	r7, [r0], #-1125	; 0x465
     93c:	534e4152 	movtpl	r4, #57682	; 0xe152
     940:	4954414c 	ldmdbmi	r4, {r2, r3, r6, r8, lr}^
     944:	505f4e4f 	subspl	r4, pc, pc, asr #28
     948:	00454741 	subeq	r4, r5, r1, asr #14
     94c:	72736664 	rsbsvc	r6, r3, #100, 12	; 0x6400000
     950:	7465675f 	strbtvc	r6, [r5], #-1887	; 0x75f
     954:	45525000 	ldrbmi	r5, [r2, #-0]
     958:	45534943 	ldrbmi	r4, [r3, #-2371]	; 0x943
     95c:	5458455f 	ldrbpl	r4, [r8], #-1375	; 0x55f
     960:	5442415f 	strbpl	r4, [r2], #-351	; 0x15f
     964:	73616c00 	cmnvc	r1, #0, 24
     968:	61665f74 	smcvs	26100	; 0x65f4
     96c:	5f746c75 	svcpl	0x00746c75
     970:	4d500074 	ldclmi	0, cr0, [r0, #-464]	; 0xfffffe30
     974:	545f4153 	ldrbpl	r4, [pc], #-339	; 97c <__code_start__-0x7684>
     978:	4d5f424c 	lfmmi	f4, 2, [pc, #-304]	; 850 <__code_start__-0x77b0>
     97c:	00535349 	subseq	r5, r3, r9, asr #6
     980:	4d524550 	cfldr64mi	mvdx4, [r2, #-320]	; 0xfffffec0
     984:	49535349 	ldmdbmi	r3, {r0, r3, r6, r8, r9, ip, lr}^
     988:	535f4e4f 	cmppl	pc, #1264	; 0x4f0
     98c:	49544345 	ldmdbmi	r4, {r0, r2, r6, r8, r9, lr}^
     990:	64004e4f 	strvs	r4, [r0], #-3663	; 0xe4f
     994:	705f6d6f 	subsvc	r6, pc, pc, ror #26
     998:	5f6d7265 	svcpl	0x006d7265
     99c:	00746567 	rsbseq	r6, r4, r7, ror #10
     9a0:	735f7470 	cmpvc	pc, #112, 8	; 0x70000000
     9a4:	656d0074 	strbvs	r0, [sp, #-116]!	; 0x74
     9a8:	6568636d 	strbvs	r6, [r8, #-877]!	; 0x36d
     9ac:	6d5f6b63 	vldrvs	d22, [pc, #-396]	; 828 <__code_start__-0x77d8>
     9b0:	6c007061 	stcvs	0, cr7, [r0], {97}	; 0x61
     9b4:	2f636269 	svccs	0x00636269
     9b8:	68736168 	ldmdavs	r3!, {r3, r5, r6, r8, sp, lr}^
     9bc:	4700632e 	strmi	r6, [r0, -lr, lsr #6]
     9c0:	4320554e 	teqmi	r0, #327155712	; 0x13800000
     9c4:	382e3420 	stmdacc	lr!, {r5, sl, ip, sp}
     9c8:	2d20332e 	stccs	3, cr3, [r0, #-184]!	; 0xffffff48
     9cc:	7570636d 	ldrbvc	r6, [r0, #-877]!	; 0x36d
     9d0:	6d72613d 	ldfvse	f6, [r2, #-244]!	; 0xffffff0c
     9d4:	36373131 			; <UNDEFINED> instruction: 0x36373131
     9d8:	2d667a6a 	vstmdbcs	r6!, {s15-s120}
     9dc:	6d2d2073 	stcvs	0, cr2, [sp, #-460]!	; 0xfffffe34
     9e0:	656e7574 	strbvs	r7, [lr, #-1396]!	; 0x574
     9e4:	6d72613d 	ldfvse	f6, [r2, #-244]!	; 0xffffff0c
     9e8:	36373131 			; <UNDEFINED> instruction: 0x36373131
     9ec:	2d667a6a 	vstmdbcs	r6!, {s15-s120}
     9f0:	672d2073 			; <UNDEFINED> instruction: 0x672d2073
     9f4:	20626467 	rsbcs	r6, r2, r7, ror #8
     9f8:	20674f2d 	rsbcs	r4, r7, sp, lsr #30
     9fc:	6474732d 	ldrbtvs	r7, [r4], #-813	; 0x32d
     a00:	756e673d 	strbvc	r6, [lr, #-1853]!	; 0x73d
     a04:	2d203939 	stccs	9, cr3, [r0, #-228]!	; 0xffffff1c
     a08:	65726666 	ldrbvs	r6, [r2, #-1638]!	; 0x666
     a0c:	61747365 	cmnvs	r4, r5, ror #6
     a10:	6e69646e 	cdpvs	4, 6, cr6, cr9, cr14, {3}
     a14:	69750067 	ldmdbvs	r5!, {r0, r1, r2, r5, r6}^
     a18:	5f38746e 	svcpl	0x0038746e
     a1c:	552f0074 	strpl	r0, [pc, #-116]!	; 9b0 <__code_start__-0x7650>
     a20:	73726573 	cmnvc	r2, #482344960	; 0x1cc00000
     a24:	6972622f 	ldmdbvs	r2!, {r0, r1, r2, r3, r5, r9, sp, lr}^
     a28:	756a6e61 	strbvc	r6, [sl, #-3681]!	; 0xe61
     a2c:	65442f6e 	strbvs	r2, [r4, #-3950]	; 0xf6e
     a30:	6f746b73 	svcvs	0x00746b73
     a34:	63732f70 	cmnvs	r3, #112, 30	; 0x1c0
     a38:	6c6f6f68 	stclvs	15, cr6, [pc], #-416	; 8a0 <__code_start__-0x7760>
     a3c:	7270532f 	rsbsvc	r5, r0, #-1140850688	; 0xbc000000
     a40:	31676e69 	cmncc	r7, r9, ror #28
     a44:	2f303239 	svccs	0x00303239
     a48:	34325343 	ldrtcc	r5, [r2], #-835	; 0x343
     a4c:	2f584c30 	svccs	0x00584c30
     a50:	34327363 	ldrtcc	r7, [r2], #-867	; 0x363
     a54:	2d786c30 	ldclcs	12, cr6, [r8, #-192]!	; 0xffffff40
     a58:	70733032 	rsbsvc	r3, r3, r2, lsr r0
     a5c:	696c2f72 	stmdbvs	ip!, {r1, r4, r5, r6, r8, r9, sl, fp, sp}^
     a60:	00697062 	rsbeq	r7, r9, r2, rrx
     a64:	6362696c 	cmnvs	r2, #108, 18	; 0x1b0000
     a68:	6d656d2f 	stclvs	13, cr6, [r5, #-188]!	; 0xffffff44
     a6c:	2e746573 	mrccs	5, 3, r6, cr4, cr3, {3}
     a70:	5f5f0063 	svcpl	0x005f0063
     a74:	63756e67 	cmnvs	r5, #1648	; 0x670
     a78:	5f61765f 	svcpl	0x0061765f
     a7c:	7473696c 	ldrbtvc	r6, [r3], #-2412	; 0x96c
     a80:	62696c00 	rsbvs	r6, r9, #0, 24
     a84:	72702f63 	rsbsvc	r2, r0, #396	; 0x18c
     a88:	6b746e69 	blvs	1d1c434 <__bss_end__+0x1d0fa6c>
     a8c:	7600632e 	strvc	r6, [r0], -lr, lsr #6
     a90:	72705f61 	rsbsvc	r5, r0, #388	; 0x184
     a94:	6b746e69 	blvs	1d1c440 <__bss_end__+0x1d0fa78>
     a98:	765f5f00 	ldrbvc	r5, [pc], -r0, lsl #30
     a9c:	696c5f61 	stmdbvs	ip!, {r0, r5, r6, r8, r9, sl, fp, ip, lr}^
     aa0:	5f007473 	svcpl	0x00007473
     aa4:	0070615f 	rsbseq	r6, r0, pc, asr r1
     aa8:	74726175 	ldrbtvc	r6, [r2], #-373	; 0x175
     aac:	7475705f 	ldrbtvc	r7, [r5], #-95	; 0x5f
     ab0:	6e690063 	cdpvs	0, 6, cr0, cr9, cr3, {3}
     ab4:	6e726574 	mrcvs	5, 3, r6, cr2, cr4, {3}
     ab8:	705f6c61 	subsvc	r6, pc, r1, ror #24
     abc:	68637475 	stmdavs	r3!, {r0, r2, r4, r5, r6, sl, ip, sp, lr}^
     ac0:	72007261 	andvc	r7, r0, #268435462	; 0x10000006
     ac4:	705f6970 	subsvc	r6, pc, r0, ror r9	; <UNPREDICTABLE>
     ac8:	68637475 	stmdavs	r3!, {r0, r2, r4, r5, r6, sl, ip, sp, lr}^
     acc:	6c007261 	sfmvs	f7, 4, [r0], {97}	; 0x61
     ad0:	2f636269 	svccs	0x00636269
     ad4:	63747570 	cmnvs	r4, #112, 10	; 0x1c000000
     ad8:	2e726168 	rpwcssz	f6, f2, #0.0
     adc:	70720063 	rsbsvc	r0, r2, r3, rrx
     ae0:	65735f69 	ldrbvs	r5, [r3, #-3945]!	; 0xf69
     ae4:	75705f74 	ldrbvc	r5, [r0, #-3956]!	; 0xf74
     ae8:	6c006374 	stcvs	3, cr6, [r0], {116}	; 0x74
     aec:	2f636269 	svccs	0x00636269
     af0:	6b747570 	blvs	1d1e0b8 <__bss_end__+0x1d116f0>
     af4:	6900632e 	stmdbvs	r0, {r1, r2, r3, r5, r8, r9, sp, lr}
     af8:	7265746e 	rsbvc	r7, r5, #1845493760	; 0x6e000000
     afc:	5f6c616e 	svcpl	0x006c616e
     b00:	6b747570 	blvs	1d1e0c8 <__bss_end__+0x1d11700>
     b04:	746d6600 	strbtvc	r6, [sp], #-1536	; 0x600
     b08:	6174735f 	cmnvs	r4, pc, asr r3
     b0c:	6e007472 	mcrvs	4, 0, r7, cr0, cr2, {3}
     b10:	705f6765 	subsvc	r6, pc, r5, ror #14
     b14:	76657200 	strbtvc	r7, [r5], -r0, lsl #4
     b18:	65737265 	ldrbvs	r7, [r3, #-613]!	; 0x265
     b1c:	64736900 	ldrbtvs	r6, [r3], #-2304	; 0x900
     b20:	74696769 	strbtvc	r6, [r9], #-1897	; 0x769
     b24:	74757000 	ldrbtvc	r7, [r5], #-0
     b28:	70665f73 	rsbvc	r5, r6, r3, ror pc
     b2c:	67697300 	strbvs	r7, [r9, -r0, lsl #6]!
     b30:	5f64656e 	svcpl	0x0064656e
     b34:	696c0070 	stmdbvs	ip!, {r4, r5, r6}^
     b38:	762f6362 	strtvc	r6, [pc], -r2, ror #6
     b3c:	72702d61 	rsbsvc	r2, r0, #6208	; 0x1840
     b40:	6b746e69 	blvs	1d1c4ec <__bss_end__+0x1d0fb24>
     b44:	7200632e 	andvc	r6, r0, #-1207959552	; 0xb8000000
     b48:	735f6970 	cmpvc	pc, #112, 18	; 0x1c0000
     b4c:	6f5f7465 	svcvs	0x005f7465
     b50:	75707475 	ldrbvc	r7, [r0, #-1141]!	; 0x475
     b54:	69770074 	ldmdbvs	r7!, {r2, r4, r5, r6}^
     b58:	00687464 	rsbeq	r7, r8, r4, ror #8
     b5c:	63747570 	cmnvs	r4, #112, 10	; 0x1c000000
     b60:	0070665f 	rsbseq	r6, r0, pc, asr r6
     b64:	74696d65 	strbtvc	r6, [r9], #-3429	; 0xd65
     b68:	62657200 	rsbvs	r7, r5, #0, 4
     b6c:	5f746f6f 	svcpl	0x00746f6f
     b70:	646e6168 	strbtvs	r6, [lr], #-360	; 0x168
     b74:	0072656c 	rsbseq	r6, r2, ip, ror #10
     b78:	66617473 			; <UNDEFINED> instruction: 0x66617473
     b7c:	72732d66 	rsbsvc	r2, r3, #6528	; 0x1980
     b80:	6c632f63 	stclvs	15, cr2, [r3], #-396	; 0xfffffe74
     b84:	2d6e6165 	stfcse	f6, [lr, #-404]!	; 0xfffffe6c
     b88:	6f626572 	svcvs	0x00626572
     b8c:	632e746f 	teqvs	lr, #1862270976	; 0x6f000000
     b90:	69707200 	ldmdbvs	r0!, {r9, ip, sp, lr}^
     b94:	6265725f 	rsbvs	r7, r5, #-268435451	; 0xf0000005
     b98:	00746f6f 	rsbseq	r6, r4, pc, ror #30
     b9c:	616c6564 	cmnvs	ip, r4, ror #10
     ba0:	736d5f79 	cmnvc	sp, #484	; 0x1e4
     ba4:	625f5f00 	subsvs	r5, pc, #0, 30
     ba8:	735f7373 	cmpvc	pc, #-872415231	; 0xcc000001
     bac:	74726174 	ldrbtvc	r6, [r2], #-372	; 0x174
     bb0:	5f005f5f 	svcpl	0x00005f5f
     bb4:	7373625f 	cmnvc	r3, #-268435451	; 0xf0000005
     bb8:	646e655f 	strbtvs	r6, [lr], #-1375	; 0x55f
     bbc:	63005f5f 	movwvs	r5, #3935	; 0xf5f
     bc0:	72617473 	rsbvc	r7, r1, #1929379840	; 0x73000000
     bc4:	61685f74 	smcvs	34292	; 0x85f4
     bc8:	656c646e 	strbvs	r6, [ip, #-1134]!	; 0x46e
     bcc:	73620072 	cmnvc	r2, #114	; 0x72
     bd0:	6e655f73 	mcrvs	15, 3, r5, cr5, cr3, {3}
     bd4:	635f0064 	cmpvs	pc, #100	; 0x64
     bd8:	72617473 	rsbvc	r7, r1, #1929379840	; 0x73000000
     bdc:	74730074 	ldrbtvc	r0, [r3], #-116	; 0x74
     be0:	2d666661 	stclcs	6, cr6, [r6, #-388]!	; 0xfffffe7c
     be4:	2f637273 	svccs	0x00637273
     be8:	61747363 	cmnvs	r4, r3, ror #6
     bec:	632e7472 	teqvs	lr, #1912602624	; 0x72000000
     bf0:	61747300 	cmnvs	r4, r0, lsl #6
     bf4:	732d6666 	teqvc	sp, #106954752	; 0x6600000
     bf8:	642f6372 	strtvs	r6, [pc], #-882	; c00 <__code_start__-0x7400>
     bfc:	75616665 	strbvc	r6, [r1, #-1637]!	; 0x665
     c00:	682d746c 	stmdavs	sp!, {r2, r3, r5, r6, sl, ip, sp, lr}
     c04:	6c646e61 	stclvs	14, cr6, [r4], #-388	; 0xfffffe7c
     c08:	662d7265 	strtvs	r7, [sp], -r5, ror #4
     c0c:	2e747361 	cdpcs	3, 7, cr7, cr4, cr1, {3}
     c10:	61660063 	cmnvs	r6, r3, rrx
     c14:	695f7473 	ldmdbvs	pc, {r0, r1, r4, r5, r6, sl, ip, sp, lr}^	; <UNPREDICTABLE>
     c18:	7265746e 	rsbvc	r7, r5, #1845493760	; 0x6e000000
     c1c:	74707572 	ldrbtvc	r7, [r0], #-1394	; 0x572
     c20:	6365765f 	cmnvs	r5, #99614720	; 0x5f00000
     c24:	00726f74 	rsbseq	r6, r2, r4, ror pc
     c28:	66617473 			; <UNDEFINED> instruction: 0x66617473
     c2c:	72732d66 	rsbsvc	r2, r3, #6528	; 0x1980
     c30:	65642f63 	strbvs	r2, [r4, #-3939]!	; 0xf63
     c34:	6c756166 	ldfvse	f6, [r5], #-408	; 0xfffffe68
     c38:	61682d74 	smcvs	33492	; 0x82d4
     c3c:	656c646e 	strbvs	r6, [ip, #-1134]!	; 0x46e
     c40:	72702d72 	rsbsvc	r2, r0, #7296	; 0x1c80
     c44:	74656665 	strbtvc	r6, [r5], #-1637	; 0x665
     c48:	632e6863 	teqvs	lr, #6488064	; 0x630000
     c4c:	65727000 	ldrbvs	r7, [r2, #-0]!
     c50:	63746566 	cmnvs	r4, #427819008	; 0x19800000
     c54:	62615f68 	rsbvs	r5, r1, #104, 30	; 0x1a0
     c58:	5f74726f 	svcpl	0x0074726f
     c5c:	74636576 	strbtvc	r6, [r3], #-1398	; 0x576
     c60:	7200726f 	andvc	r7, r0, #-268435450	; 0xf0000006
     c64:	74657365 	strbtvc	r7, [r5], #-869	; 0x365
     c68:	6365765f 	cmnvs	r5, #99614720	; 0x5f00000
     c6c:	00726f74 	rsbseq	r6, r2, r4, ror pc
     c70:	66617473 			; <UNDEFINED> instruction: 0x66617473
     c74:	72732d66 	rsbsvc	r2, r3, #6528	; 0x1980
     c78:	65642f63 	strbvs	r2, [r4, #-3939]!	; 0xf63
     c7c:	6c756166 	ldfvse	f6, [r5], #-408	; 0xfffffe68
     c80:	61682d74 	smcvs	33492	; 0x82d4
     c84:	656c646e 	strbvs	r6, [ip, #-1134]!	; 0x46e
     c88:	65722d72 	ldrbvs	r2, [r2, #-3442]!	; 0xd72
     c8c:	2e746573 	mrccs	5, 3, r6, cr4, cr3, {3}
     c90:	74730063 	ldrbtvc	r0, [r3], #-99	; 0x63
     c94:	2d666661 	stclcs	6, cr6, [r6, #-388]!	; 0xfffffe7c
     c98:	2f637273 	svccs	0x00637273
     c9c:	61666564 	cmnvs	r6, r4, ror #10
     ca0:	2d746c75 	ldclcs	12, cr6, [r4, #-468]!	; 0xfffffe2c
     ca4:	646e6168 	strbtvs	r6, [lr], #-360	; 0x168
     ca8:	2d72656c 	cfldr64cs	mvdx6, [r2, #-432]!	; 0xfffffe50
     cac:	65646e75 	strbvs	r6, [r4, #-3701]!	; 0xe75
     cb0:	656e6966 	strbvs	r6, [lr, #-2406]!	; 0x966
     cb4:	6e692d64 	cdpvs	13, 6, cr2, cr9, cr4, {3}
     cb8:	632e7473 	teqvs	lr, #1929379840	; 0x73000000
     cbc:	646e7500 	strbtvs	r7, [lr], #-1280	; 0x500
     cc0:	6e696665 	cdpvs	6, 6, cr6, cr9, cr5, {3}
     cc4:	695f6465 	ldmdbvs	pc, {r0, r2, r5, r6, sl, sp, lr}^	; <UNPREDICTABLE>
     cc8:	7274736e 	rsbsvc	r7, r4, #-1207959551	; 0xb8000001
     ccc:	69746375 	ldmdbvs	r4!, {r0, r2, r4, r5, r6, r8, r9, sp, lr}^
     cd0:	765f6e6f 	ldrbvc	r6, [pc], -pc, ror #28
     cd4:	6f746365 	svcvs	0x00746365
     cd8:	74730072 	ldrbtvc	r0, [r3], #-114	; 0x72
     cdc:	2d666661 	stclcs	6, cr6, [r6, #-388]!	; 0xfffffe7c
     ce0:	2f637273 	svccs	0x00637273
     ce4:	61666564 	cmnvs	r6, r4, ror #10
     ce8:	2d746c75 	ldclcs	12, cr6, [r4, #-468]!	; 0xfffffe2c
     cec:	646e6168 	strbtvs	r6, [lr], #-360	; 0x168
     cf0:	7372656c 	cmnvc	r2, #108, 10	; 0x1b000000
     cf4:	4900632e 	stmdbmi	r0, {r1, r2, r3, r5, r8, r9, sp, lr}
     cf8:	705f5152 	subsvc	r5, pc, r2, asr r1	; <UNPREDICTABLE>
     cfc:	69646e65 	stmdbvs	r4!, {r0, r2, r5, r6, r9, sl, fp, sp, lr}^
     d00:	325f676e 	subscc	r6, pc, #28835840	; 0x1b80000
     d04:	73694400 	cmnvc	r9, #0, 8
     d08:	656c6261 	strbvs	r6, [ip, #-609]!	; 0x261
     d0c:	7361425f 	cmnvc	r1, #-268435451	; 0xf0000005
     d10:	495f6369 	ldmdbmi	pc, {r0, r3, r5, r6, r8, r9, sp, lr}^	; <UNPREDICTABLE>
     d14:	00735152 	rsbseq	r5, r3, r2, asr r1
     d18:	5f514946 	svcpl	0x00514946
     d1c:	746e6f63 	strbtvc	r6, [lr], #-3939	; 0xf63
     d20:	006c6f72 	rsbeq	r6, ip, r2, ror pc
     d24:	746e695f 	strbtvc	r6, [lr], #-2399	; 0x95f
     d28:	75727265 	ldrbvc	r7, [r2, #-613]!	; 0x265
     d2c:	745f7470 	ldrbvc	r7, [pc], #-1136	; d34 <__code_start__-0x72cc>
     d30:	656c6261 	strbvs	r6, [ip, #-609]!	; 0x261
     d34:	51524900 	cmppl	r2, r0, lsl #18
     d38:	7361625f 	cmnvc	r1, #-268435451	; 0xf0000005
     d3c:	705f6369 	subsvc	r6, pc, r9, ror #6
     d40:	69646e65 	stmdbvs	r4!, {r0, r2, r5, r6, r9, sl, fp, sp, lr}^
     d44:	4500676e 	strmi	r6, [r0, #-1902]	; 0x76e
     d48:	6c62616e 	stfvse	f6, [r2], #-440	; 0xfffffe48
     d4c:	61425f65 	cmpvs	r2, r5, ror #30
     d50:	5f636973 	svcpl	0x00636973
     d54:	73515249 	cmpvc	r1, #-1879048188	; 0x90000004
     d58:	616e4500 	cmnvs	lr, r0, lsl #10
     d5c:	5f656c62 	svcpl	0x00656c62
     d60:	73515249 	cmpvc	r1, #-1879048188	; 0x90000004
     d64:	4500315f 	strmi	r3, [r0, #-351]	; 0x15f
     d68:	6c62616e 	stfvse	f6, [r2], #-440	; 0xfffffe48
     d6c:	52495f65 	subpl	r5, r9, #404	; 0x194
     d70:	325f7351 	subscc	r7, pc, #1140850689	; 0x44000001
     d74:	6e695f00 	cdpvs	15, 6, cr5, cr9, cr0, {0}
     d78:	72726574 	rsbsvc	r6, r2, #116, 10	; 0x1d000000
     d7c:	5f747075 	svcpl	0x00747075
     d80:	6c626174 	stfvse	f6, [r2], #-464	; 0xfffffe30
     d84:	6e655f65 	cdpvs	15, 6, cr5, cr5, cr5, {3}
     d88:	65640064 	strbvs	r0, [r4, #-100]!	; 0x64
     d8c:	61625f76 	smcvs	9718	; 0x25f6
     d90:	65697272 	strbvs	r7, [r9, #-626]!	; 0x272
     d94:	74730072 	ldrbtvc	r0, [r3], #-114	; 0x72
     d98:	2d666661 	stclcs	6, cr6, [r6, #-388]!	; 0xfffffe7c
     d9c:	2f637273 	svccs	0x00637273
     da0:	65746e69 	ldrbvs	r6, [r4, #-3689]!	; 0xe69
     da4:	70757272 	rsbsvc	r7, r5, r2, ror r2
     da8:	632d7374 	teqvs	sp, #116, 6	; 0xd0000001
     dac:	4900632e 	stmdbmi	r0, {r1, r2, r3, r5, r8, r9, sp, lr}
     db0:	425f5152 	subsmi	r5, pc, #-2147483628	; 0x80000014
     db4:	00657361 	rsbeq	r7, r5, r1, ror #6
     db8:	61736944 	cmnvs	r3, r4, asr #18
     dbc:	5f656c62 	svcpl	0x00656c62
     dc0:	73515249 	cmpvc	r1, #-1879048188	; 0x90000004
     dc4:	4400315f 	strmi	r3, [r0], #-351	; 0x15f
     dc8:	62617369 	rsbvs	r7, r1, #-1543503871	; 0xa4000001
     dcc:	495f656c 	ldmdbmi	pc, {r2, r3, r5, r6, r8, sl, sp, lr}^	; <UNPREDICTABLE>
     dd0:	5f735152 	svcpl	0x00735152
     dd4:	52490032 	subpl	r0, r9, #50	; 0x32
     dd8:	65705f51 	ldrbvs	r5, [r0, #-3921]!	; 0xf51
     ddc:	6e69646e 	cdpvs	4, 6, cr6, cr9, cr14, {3}
     de0:	00315f67 	eorseq	r5, r1, r7, ror #30
     de4:	755f7461 	ldrbvc	r7, [pc, #-1121]	; 98b <__code_start__-0x7675>
     de8:	5f726573 	svcpl	0x00726573
     dec:	6576656c 	ldrbvs	r6, [r6, #-1388]!	; 0x56c
     df0:	7473006c 	ldrbtvc	r0, [r3], #-108	; 0x6c
     df4:	2d666661 	stclcs	6, cr6, [r6, #-388]!	; 0xfffffe7c
     df8:	2f637273 	svccs	0x00637273
     dfc:	6f626572 	svcvs	0x00626572
     e00:	632e746f 	teqvs	lr, #1862270976	; 0x6f000000
     e04:	5f4d5000 	svcpl	0x004d5000
     e08:	43545352 	cmpmi	r4, #1207959553	; 0x48000001
     e0c:	4352575f 	cmpmi	r2, #24903680	; 0x17c0000
     e10:	465f4746 	ldrbmi	r4, [pc], -r6, asr #14
     e14:	5f4c4c55 	svcpl	0x004c4c55
     e18:	45534552 	ldrbmi	r4, [r3, #-1362]	; 0x552
     e1c:	4d500054 	ldclmi	0, cr0, [r0, #-336]	; 0xfffffeb0
     e20:	4f44575f 	svcmi	0x0044575f
     e24:	65730047 	ldrbvs	r0, [r3, #-71]!	; 0x47
     e28:	73755f74 	cmnvc	r5, #116, 30	; 0x1d0
     e2c:	6c5f7265 	lfmvs	f7, 2, [pc], {101}	; 0x65
     e30:	6c657665 	stclvs	6, cr7, [r5], #-404	; 0xfffffe6c
     e34:	5f4d5000 	svcpl	0x004d5000
     e38:	53534150 	cmppl	r3, #80, 2
     e3c:	44524f57 	ldrbmi	r4, [r2], #-3927	; 0xf57
     e40:	5f4d5000 	svcpl	0x004d5000
     e44:	43545352 	cmpmi	r4, #1207959553	; 0x48000001
     e48:	73706300 	cmnvc	r0, #0, 6
     e4c:	69740072 	ldmdbvs	r4!, {r1, r4, r5, r6}^
     e50:	5f72656d 	svcpl	0x0072656d
     e54:	5f746567 	svcpl	0x00746567
     e58:	63657375 	cmnvs	r5, #-738197503	; 0xd4000001
     e5c:	7761725f 			; <UNDEFINED> instruction: 0x7761725f
     e60:	6c656400 	cfstrdvs	mvd6, [r5], #-0
     e64:	735f7961 	cmpvc	pc, #1589248	; 0x184000
     e68:	73006365 	movwvc	r6, #869	; 0x365
     e6c:	66666174 			; <UNDEFINED> instruction: 0x66666174
     e70:	6372732d 	cmnvs	r2, #-1275068416	; 0xb4000000
     e74:	6d69742f 	cfstrdvs	mvd7, [r9, #-188]!	; 0xffffff44
     e78:	632e7265 	teqvs	lr, #1342177286	; 0x50000006
     e7c:	63697400 	cmnvs	r9, #0, 8
     e80:	6400736b 	strvs	r7, [r0], #-875	; 0x36b
     e84:	79616c65 	stmdbvc	r1!, {r0, r2, r5, r6, sl, fp, sp, lr}^
     e88:	6379635f 	cmnvs	r9, #2080374785	; 0x7c000001
     e8c:	0073656c 	rsbseq	r6, r3, ip, ror #10
     e90:	616c6564 	cmnvs	ip, r4, ror #10
     e94:	73755f79 	cmnvc	r5, #484	; 0x1e4
     e98:	6d697400 	cfstrdvs	mvd7, [r9, #-0]
     e9c:	675f7265 	ldrbvs	r7, [pc, -r5, ror #4]
     ea0:	755f7465 	ldrbvc	r7, [pc, #-1125]	; a43 <__code_start__-0x75bd>
     ea4:	00636573 	rsbeq	r6, r3, r3, ror r5
     ea8:	6f73645f 	svcvs	0x0073645f
     eac:	6e61685f 	mcrvs	8, 3, r6, cr1, cr15, {2}
     eb0:	00656c64 	rsbeq	r6, r5, r4, ror #24
     eb4:	7a69735f 	bvc	1a5dc38 <__bss_end__+0x1a51270>
     eb8:	725f0065 	subsvc	r0, pc, #101	; 0x65
     ebc:	34646e61 	strbtcc	r6, [r4], #-3681	; 0xe61
     ec0:	655f0038 	ldrbvs	r0, [pc, #-56]	; e90 <__code_start__-0x7170>
     ec4:	6772656d 	ldrbvs	r6, [r2, -sp, ror #10]!
     ec8:	79636e65 	stmdbvc	r3!, {r0, r2, r5, r6, r9, sl, fp, sp, lr}^
     ecc:	72617500 	rsbvc	r7, r1, #0, 10
     ed0:	6e695f74 	mcrvs	15, 3, r5, cr9, cr4, {3}
     ed4:	5f007469 	svcpl	0x00007469
     ed8:	74726377 	ldrbtvc	r6, [r2], #-887	; 0x377
     edc:	5f626d6f 	svcpl	0x00626d6f
     ee0:	74617473 	strbtvc	r7, [r1], #-1139	; 0x473
     ee4:	775f0065 	ldrbvc	r0, [pc, -r5, rrx]
     ee8:	74727363 	ldrbtvc	r7, [r2], #-867	; 0x363
     eec:	73626d6f 	cmnvc	r2, #7104	; 0x1bc0
     ef0:	6174735f 	cmnvs	r4, pc, asr r3
     ef4:	5f006574 	svcpl	0x00006574
     ef8:	7366626c 	cmnvc	r6, #108, 4	; 0xc0000006
     efc:	00657a69 	rsbeq	r7, r5, r9, ror #20
     f00:	4f495047 	svcmi	0x00495047
     f04:	4e55465f 	mrcmi	6, 2, r4, cr5, cr15, {2}
     f08:	4e495f43 	cdpmi	15, 4, cr5, cr9, cr3, {2}
     f0c:	00545550 	subseq	r5, r4, r0, asr r5
     f10:	72626d5f 	rsbvc	r6, r2, #6080	; 0x17c0
     f14:	63776f74 	cmnvs	r7, #116, 30	; 0x1d0
     f18:	6174735f 	cmnvs	r4, pc, asr r3
     f1c:	5f006574 	svcpl	0x00006574
     f20:	6f746377 	svcvs	0x00746377
     f24:	735f626d 	cmpvc	pc, #-805306362	; 0xd0000006
     f28:	65746174 	ldrbvs	r6, [r4, #-372]!	; 0x174
     f2c:	745f5f00 	ldrbvc	r5, [pc], #-3840	; f34 <__code_start__-0x70cc>
     f30:	65735f6d 	ldrbvs	r5, [r3, #-3949]!	; 0xf6d
     f34:	74730063 	ldrbtvc	r0, [r3], #-99	; 0x63
     f38:	5f007461 	svcpl	0x00007461
     f3c:	66756275 			; <UNDEFINED> instruction: 0x66756275
     f40:	49504700 	ldmdbmi	r0, {r8, r9, sl, lr}^
     f44:	55465f4f 	strbpl	r5, [r6, #-3919]	; 0xf4f
     f48:	415f434e 	cmpmi	pc, lr, asr #6
     f4c:	0031544c 	eorseq	r5, r1, ip, asr #8
     f50:	7361625f 	cmnvc	r1, #-268435451	; 0xf0000005
     f54:	6e630065 	cdpvs	0, 6, cr0, cr3, cr5, {3}
     f58:	5f006c74 	svcpl	0x00006c74
     f5c:	5f6d745f 	svcpl	0x006d745f
     f60:	72756f68 	rsbsvc	r6, r5, #104, 30	; 0x1a0
     f64:	735f5f00 	cmpvc	pc, #0, 30
     f68:	6f5f0066 	svcvs	0x005f0066
     f6c:	78655f6e 	stmdavc	r5!, {r1, r2, r3, r5, r6, r8, r9, sl, fp, ip, lr}^
     f70:	615f7469 	cmpvs	pc, r9, ror #8
     f74:	00736772 	rsbseq	r6, r3, r2, ror r7
     f78:	6f6f635f 	svcvs	0x006f635f
     f7c:	0065696b 	rsbeq	r6, r5, fp, ror #18
     f80:	67735f5f 			; <UNDEFINED> instruction: 0x67735f5f
     f84:	0065756c 	rsbeq	r7, r5, ip, ror #10
     f88:	616c665f 	cmnvs	ip, pc, asr r6
     f8c:	5f007367 	svcpl	0x00007367
     f90:	635f7369 	cmpvs	pc, #-1543503871	; 0xa4000001
     f94:	5f006178 	svcpl	0x00006178
     f98:	69647473 	stmdbvs	r4!, {r0, r1, r4, r5, r6, sl, ip, sp, lr}^
     f9c:	625f006e 	subsvs	r0, pc, #110	; 0x6e
     fa0:	69736b6c 	ldmdbvs	r3!, {r2, r3, r5, r6, r8, r9, fp, sp, lr}^
     fa4:	7500657a 	strvc	r6, [r0, #-1402]	; 0x57a
     fa8:	2e747261 	cdpcs	2, 7, cr7, cr4, cr1, {3}
     fac:	75610063 	strbvc	r0, [r1, #-99]!	; 0x63
     fb0:	65705f78 	ldrbvs	r5, [r0, #-3960]!	; 0xf78
     fb4:	68706972 	ldmdavs	r0!, {r1, r4, r5, r6, r8, fp, sp, lr}^
     fb8:	635f0073 	cmpvs	pc, #115	; 0x73
     fbc:	75627476 	strbvc	r7, [r2, #-1142]!	; 0x476
     fc0:	682f0066 	stmdavs	pc!, {r1, r2, r5, r6}	; <UNPREDICTABLE>
     fc4:	2f656d6f 	svccs	0x00656d6f
     fc8:	6c676e65 	stclvs	14, cr6, [r7], #-404	; 0xfffffe6c
     fcc:	632f7265 	teqvs	pc, #1342177286	; 0x50000006
     fd0:	7373616c 	cmnvc	r3, #108, 2
     fd4:	3273632f 	rsbscc	r6, r3, #-1140850688	; 0xbc000000
     fd8:	786c3034 	stmdavc	ip!, {r2, r4, r5, ip, sp}^
     fdc:	7330322d 	teqvc	r0, #-805306366	; 0xd0000002
     fe0:	6c2f7270 	sfmvs	f7, 4, [pc], #-448	; e28 <__code_start__-0x71d8>
     fe4:	69706269 	ldmdbvs	r0!, {r0, r3, r5, r6, r9, sp, lr}^
     fe8:	6174732f 	cmnvs	r4, pc, lsr #6
     fec:	702d6666 	eorvc	r6, sp, r6, ror #12
     ff0:	61766972 	cmnvs	r6, r2, ror r9
     ff4:	5f006574 	svcpl	0x00006574
     ff8:	7273626d 	rsbsvc	r6, r3, #-805306362	; 0xd0000006
     ffc:	63776f74 	cmnvs	r7, #116, 30	; 0x1d0
    1000:	74735f73 	ldrbtvc	r5, [r3], #-3955	; 0xf73
    1004:	00657461 	rsbeq	r7, r5, r1, ror #8
    1008:	72626d5f 	rsbvc	r6, r2, #6080	; 0x17c0
    100c:	5f6e656c 	svcpl	0x006e656c
    1010:	74617473 	strbtvc	r7, [r1], #-1139	; 0x473
    1014:	665f0065 	ldrbvs	r0, [pc], -r5, rrx
    1018:	6772616e 	ldrbvs	r6, [r2, -lr, ror #2]!
    101c:	75610073 	strbvc	r0, [r1, #-115]!	; 0x73
    1020:	6e655f78 	mcrvs	15, 3, r5, cr5, cr8, {3}
    1024:	656c6261 	strbvs	r6, [ip, #-609]!	; 0x261
    1028:	665f0073 			; <UNDEFINED> instruction: 0x665f0073
    102c:	5f00736e 	svcpl	0x0000736e
    1030:	6e676973 	mcrvs	9, 3, r6, cr7, cr3, {3}
    1034:	72617500 	rsbvc	r7, r1, #0, 10
    1038:	61635f74 	smcvs	13812	; 0x35f4
    103c:	75705f6e 	ldrbvc	r5, [r0, #-3950]!	; 0xf6e
    1040:	5f006374 	svcpl	0x00006374
    1044:	636f6c66 	cmnvs	pc, #26112	; 0x6600
    1048:	00745f6b 	rsbseq	r5, r4, fp, ror #30
    104c:	6474735f 	ldrbtvs	r7, [r4], #-863	; 0x35f
    1050:	00727265 	rsbseq	r7, r2, r5, ror #4
    1054:	6769425f 			; <UNDEFINED> instruction: 0x6769425f
    1058:	00746e69 	rsbseq	r6, r4, r9, ror #28
    105c:	6d61675f 	stclvs	7, cr6, [r1, #-380]!	; 0xfffffe84
    1060:	735f616d 	cmpvc	pc, #1073741851	; 0x4000001b
    1064:	676e6769 	strbvs	r6, [lr, -r9, ror #14]!
    1068:	5f006d61 	svcpl	0x00006d61
    106c:	75736572 	ldrbvc	r6, [r3, #-1394]!	; 0x572
    1070:	6b5f746c 	blvs	17de228 <__bss_end__+0x17d1860>
    1074:	745f5f00 	ldrbvc	r5, [pc], #-3840	; 107c <__code_start__-0x6f84>
    1078:	5f5f006d 	svcpl	0x005f006d
    107c:	62686377 	rsbvs	r6, r8, #-603979775	; 0xdc000001
    1080:	72617500 	rsbvc	r7, r1, #0, 10
    1084:	65675f74 	strbvs	r5, [r7, #-3956]!	; 0xf74
    1088:	5f006374 	svcpl	0x00006374
    108c:	6f647473 	svcvs	0x00647473
    1090:	5f007475 	svcpl	0x00007475
    1094:	6c747663 	ldclvs	6, cr7, [r4], #-396	; 0xfffffe74
    1098:	5f006e65 	svcpl	0x00006e65
    109c:	656c6966 	strbvs	r6, [ip, #-2406]!	; 0x966
    10a0:	696e5f00 	stmdbvs	lr!, {r8, r9, sl, fp, ip, lr}^
    10a4:	0073626f 	rsbseq	r6, r3, pc, ror #4
    10a8:	6574615f 	ldrbvs	r6, [r4, #-351]!	; 0x15f
    10ac:	30746978 	rsbscc	r6, r4, r8, ror r9
    10b0:	69735f00 	ldmdbvs	r3!, {r8, r9, sl, fp, ip, lr}^
    10b4:	6c616e67 	stclvs	14, cr6, [r1], #-412	; 0xfffffe64
    10b8:	6675625f 			; <UNDEFINED> instruction: 0x6675625f
    10bc:	73615f00 	cmnvc	r1, #0, 30
    10c0:	6d697463 	cfstrdvs	mvd7, [r9, #-396]!	; 0xfffffe74
    10c4:	75625f65 	strbvc	r5, [r2, #-3941]!	; 0xf65
    10c8:	725f0066 	subsvc	r0, pc, #102	; 0x66
    10cc:	6c757365 	ldclvs	3, cr7, [r5], #-404	; 0xfffffe6c
    10d0:	5f5f0074 	svcpl	0x005f0074
    10d4:	00686377 	rsbeq	r6, r8, r7, ror r3
    10d8:	4f495047 	svcmi	0x00495047
    10dc:	4e55465f 	mrcmi	6, 2, r4, cr5, cr15, {2}
    10e0:	4c415f43 	mcrrmi	15, 4, r5, r1, cr3
    10e4:	77003254 	smlsdvc	r0, r4, r2, r3
    10e8:	5f746e69 	svcpl	0x00746e69
    10ec:	665f0074 			; <UNDEFINED> instruction: 0x665f0074
    10f0:	7367616c 	cmnvc	r7, #108, 2
    10f4:	5f5f0032 	svcpl	0x005f0032
    10f8:	795f6d74 	ldmdbvc	pc, {r2, r4, r5, r6, r8, sl, fp, sp, lr}^	; <UNPREDICTABLE>
    10fc:	00726165 	rsbseq	r6, r2, r5, ror #2
    1100:	66666f5f 	uqsaxvs	r6, r6, pc	; <UNPREDICTABLE>
    1104:	00746573 	rsbseq	r6, r4, r3, ror r5
    1108:	6f697067 	svcvs	0x00697067
    110c:	7465735f 	strbtvc	r7, [r5], #-863	; 0x35f
    1110:	6e75665f 	mrcvs	6, 3, r6, cr5, cr15, {2}
    1114:	6f697463 	svcvs	0x00697463
    1118:	6e5f006e 	cdpvs	0, 5, cr0, cr15, cr14, {3}
    111c:	66747865 	ldrbtvs	r7, [r4], -r5, ror #16
    1120:	745f5f00 	ldrbvc	r5, [pc], #-3840	; 1128 <__code_start__-0x6ed8>
    1124:	6f6d5f6d 	svcvs	0x006d5f6d
    1128:	615f006e 	cmpvs	pc, lr, rrx
    112c:	69786574 	ldmdbvs	r8!, {r2, r4, r5, r6, r8, sl, sp, lr}^
    1130:	5f5f0074 	svcpl	0x005f0074
    1134:	64696473 	strbtvs	r6, [r9], #-1139	; 0x473
    1138:	74696e69 	strbtvc	r6, [r9], #-3689	; 0xe69
    113c:	666f5f00 	strbtvs	r5, [pc], -r0, lsl #30
    1140:	00745f66 	rsbseq	r5, r4, r6, ror #30
    1144:	74726175 	ldrbtvc	r6, [r2], #-373	; 0x175
    1148:	72665f00 	rsbvc	r5, r6, #0, 30
    114c:	696c6565 	stmdbvs	ip!, {r0, r2, r5, r6, r8, sl, sp, lr}^
    1150:	5f007473 	svcpl	0x00007473
    1154:	4b434f4c 	blmi	10d4e8c <__bss_end__+0x10c84c4>
    1158:	4345525f 	movtmi	r5, #21087	; 0x525f
    115c:	49535255 	ldmdbmi	r3, {r0, r2, r4, r6, r9, ip, lr}^
    1160:	545f4556 	ldrbpl	r4, [pc], #-1366	; 1168 <__code_start__-0x6e98>
    1164:	656e5f00 	strbvs	r5, [lr, #-3840]!	; 0xf00
    1168:	685f0077 	ldmdavs	pc, {r0, r1, r2, r4, r5, r6}^	; <UNPREDICTABLE>
    116c:	7272655f 	rsbsvc	r6, r2, #398458880	; 0x17c00000
    1170:	5f006f6e 	svcpl	0x00006f6e
    1174:	5f6d745f 	svcpl	0x006d745f
    1178:	79616479 	stmdbvc	r1!, {r0, r3, r4, r5, r6, sl, sp, lr}^
    117c:	735f5f00 	cmpvc	pc, #0, 30
    1180:	00667562 	rsbeq	r7, r6, r2, ror #10
    1184:	626f695f 	rsbvs	r6, pc, #1556480	; 0x17c000
    1188:	5f5f0073 	svcpl	0x005f0073
    118c:	454c4946 	strbmi	r4, [ip, #-2374]	; 0x946
    1190:	626d5f00 	rsbvs	r5, sp, #0, 30
    1194:	74617473 	strbtvc	r7, [r1], #-1139	; 0x473
    1198:	00745f65 	rsbseq	r5, r4, r5, ror #30
    119c:	46735f5f 	uhsaxmi	r5, r3, pc	; <UNPREDICTABLE>
    11a0:	00454c49 	subeq	r4, r5, r9, asr #24
    11a4:	73626d5f 	cmnvc	r2, #6080	; 0x17c0
    11a8:	65746174 	ldrbvs	r6, [r4, #-372]!	; 0x174
    11ac:	61725f00 	cmnvs	r2, r0, lsl #30
    11b0:	6e5f646e 	cdpvs	4, 5, cr6, cr15, cr14, {3}
    11b4:	00747865 	rsbseq	r7, r4, r5, ror #16
    11b8:	6c626d5f 	stclvs	13, cr6, [r2], #-380	; 0xfffffe84
    11bc:	735f6e65 	cmpvc	pc, #1616	; 0x650
    11c0:	65746174 	ldrbvs	r6, [r4, #-372]!	; 0x174
    11c4:	6e695f00 	cdpvs	15, 6, cr5, cr9, cr0, {0}
    11c8:	695f0063 	ldmdbvs	pc, {r0, r1, r5, r6}^	; <UNPREDICTABLE>
    11cc:	5f00646e 	svcpl	0x0000646e
    11d0:	72727563 	rsbsvc	r7, r2, #415236096	; 0x18c00000
    11d4:	5f746e65 	svcpl	0x00746e65
    11d8:	61636f6c 	cmnvs	r3, ip, ror #30
    11dc:	5f00656c 	svcpl	0x0000656c
    11e0:	656c635f 	strbvs	r6, [ip, #-863]!	; 0x35f
    11e4:	70756e61 	rsbsvc	r6, r5, r1, ror #28
    11e8:	616d5f00 	cmnvs	sp, r0, lsl #30
    11ec:	73647778 	cmnvc	r4, #120, 14	; 0x1e00000
    11f0:	65725f00 	ldrbvs	r5, [r2, #-3840]!	; 0xf00
    11f4:	00746e65 	rsbseq	r6, r4, r5, ror #28
    11f8:	6565735f 	strbvs	r7, [r5, #-863]!	; 0x35f
    11fc:	5f5f0064 	svcpl	0x005f0064
    1200:	6e756f63 	cdpvs	15, 7, cr6, cr5, cr3, {3}
    1204:	5f5f0074 	svcpl	0x005f0074
    1208:	756c6176 	strbvc	r6, [ip, #-374]!	; 0x176
    120c:	735f0065 	cmpvc	pc, #101	; 0x65
    1210:	006b6565 	rsbeq	r6, fp, r5, ror #10
    1214:	64756162 	ldrbtvs	r6, [r5], #-354	; 0x162
    1218:	70665f00 	rsbvc	r5, r6, r0, lsl #30
    121c:	745f736f 	ldrbvc	r7, [pc], #-879	; 1224 <__code_start__-0x6ddc>
    1220:	745f5f00 	ldrbvc	r5, [pc], #-3840	; 1228 <__code_start__-0x6dd8>
    1224:	696d5f6d 	stmdbvs	sp!, {r0, r2, r3, r5, r6, r8, r9, sl, fp, ip, lr}^
    1228:	6373006e 	cmnvs	r3, #110	; 0x6e
    122c:	63746172 	cmnvs	r4, #-2147483620	; 0x8000001c
    1230:	6d5f0068 	ldclvs	0, cr0, [pc, #-416]	; 1098 <__code_start__-0x6f68>
    1234:	00746c75 	rsbseq	r6, r4, r5, ror ip
    1238:	33747570 	cmncc	r4, #112, 10	; 0x1c000000
    123c:	4e470032 	mcrmi	0, 2, r0, cr7, cr2, {1}
    1240:	39432055 	stmdbcc	r3, {r0, r2, r4, r6, sp}^
    1244:	2e362039 	mrccs	0, 1, r2, cr6, cr9, {1}
    1248:	20312e33 	eorscs	r2, r1, r3, lsr lr
    124c:	37313032 			; <UNDEFINED> instruction: 0x37313032
    1250:	30323630 	eorscc	r3, r2, r0, lsr r6
    1254:	636d2d20 	cmnvs	sp, #32, 26	; 0x800
    1258:	613d7570 	teqvs	sp, r0, ror r5
    125c:	31316d72 	teqcc	r1, r2, ror sp
    1260:	7a6a3637 	bvc	1a8eb44 <__bss_end__+0x1a8217c>
    1264:	20732d66 	rsbscs	r2, r3, r6, ror #26
    1268:	75746d2d 	ldrbvc	r6, [r4, #-3373]!	; 0xd2d
    126c:	613d656e 	teqvs	sp, lr, ror #10
    1270:	31316d72 	teqcc	r1, r2, ror sp
    1274:	7a6a3637 	bvc	1a8eb58 <__bss_end__+0x1a82190>
    1278:	20732d66 	rsbscs	r2, r3, r6, ror #26
    127c:	6467672d 	strbtvs	r6, [r7], #-1837	; 0x72d
    1280:	4f2d2062 	svcmi	0x002d2062
    1284:	732d2067 	teqvc	sp, #103	; 0x67
    1288:	673d6474 			; <UNDEFINED> instruction: 0x673d6474
    128c:	3939756e 	ldmdbcc	r9!, {r1, r2, r3, r5, r6, r8, sl, ip, sp, lr}
    1290:	66662d20 	strbtvs	r2, [r6], -r0, lsr #26
    1294:	73656572 	cmnvc	r5, #478150656	; 0x1c800000
    1298:	646e6174 	strbtvs	r6, [lr], #-372	; 0x174
    129c:	00676e69 	rsbeq	r6, r7, r9, ror #28
    12a0:	7274735f 	rsbsvc	r7, r4, #2080374785	; 0x7c000001
    12a4:	5f6b6f74 	svcpl	0x006b6f74
    12a8:	7473616c 	ldrbtvc	r6, [r3], #-364	; 0x16c
    12ac:	6e665f00 	cdpvs	15, 6, cr5, cr6, cr0, {0}
    12b0:	65707974 	ldrbvs	r7, [r0, #-2420]!	; 0x974
    12b4:	615f0073 	cmpvs	pc, r3, ror r0	; <UNPREDICTABLE>
    12b8:	5f006464 	svcpl	0x00006464
    12bc:	6f4c555f 	svcvs	0x004c555f
    12c0:	5f00676e 	svcpl	0x0000676e
    12c4:	64746567 	ldrbtvs	r6, [r4], #-1383	; 0x567
    12c8:	5f657461 	svcpl	0x00657461
    12cc:	00727265 	rsbseq	r7, r2, r5, ror #4
    12d0:	6f6c675f 	svcvs	0x006c675f
    12d4:	5f6c6162 	svcpl	0x006c6162
    12d8:	75706d69 	ldrbvc	r6, [r0, #-3433]!	; 0xd69
    12dc:	705f6572 	subsvc	r6, pc, r2, ror r5	; <UNPREDICTABLE>
    12e0:	5f007274 	svcpl	0x00007274
    12e4:	72727563 	rsbsvc	r7, r2, #415236096	; 0x18c00000
    12e8:	5f746e65 	svcpl	0x00746e65
    12ec:	65746163 	ldrbvs	r6, [r4, #-355]!	; 0x163
    12f0:	79726f67 	ldmdbvc	r2!, {r0, r1, r2, r5, r6, r8, r9, sl, fp, sp, lr}^
    12f4:	6e755f00 	cdpvs	15, 7, cr5, cr5, cr0, {0}
    12f8:	64657375 	strbtvs	r7, [r5], #-885	; 0x375
    12fc:	6e61725f 	mcrvs	2, 3, r7, cr1, cr15, {2}
    1300:	775f0064 	ldrbvc	r0, [pc, -r4, rrx]
    1304:	5f007364 	svcpl	0x00007364
    1308:	5f6d745f 	svcpl	0x006d745f
    130c:	79616477 	stmdbvc	r1!, {r0, r1, r2, r4, r5, r6, sl, sp, lr}^
    1310:	6c675f00 	stclvs	15, cr5, [r7], #-0
    1314:	47006575 	smlsdxmi	r0, r5, r5, r6
    1318:	5f4f4950 	svcpl	0x004f4950
    131c:	434e5546 	movtmi	r5, #58694	; 0xe546
    1320:	54554f5f 	ldrbpl	r4, [r5], #-3935	; 0xf5f
    1324:	00545550 	subseq	r5, r4, r0, asr r5
    1328:	616d6e5f 	cmnvs	sp, pc, asr lr
    132c:	636f6c6c 	cmnvs	pc, #108, 24	; 0x6c00
    1330:	366c5f00 	strbtcc	r5, [ip], -r0, lsl #30
    1334:	625f6134 	subsvs	r6, pc, #52, 2
    1338:	67006675 	smlsdxvs	r0, r5, r6, r6
    133c:	32337465 	eorscc	r7, r3, #1694498816	; 0x65000000
    1340:	72617500 	rsbvc	r7, r1, #0, 10
    1344:	61635f74 	smcvs	13812	; 0x35f4
    1348:	65675f6e 	strbvs	r5, [r7, #-3950]!	; 0xf6e
    134c:	5f006374 	svcpl	0x00006374
    1350:	5f676973 	svcpl	0x00676973
    1354:	636e7566 	cmnvs	lr, #427819008	; 0x19800000
    1358:	5f726f00 	svcpl	0x00726f00
    135c:	32336e69 	eorscc	r6, r3, #1680	; 0x690
    1360:	72617500 	rsbvc	r7, r1, #0, 10
    1364:	61685f74 	smcvs	34292	; 0x85f4
    1368:	61645f73 	smcvs	17907	; 0x45f3
    136c:	47006174 	smlsdxmi	r0, r4, r1, r6
    1370:	5f4f4950 	svcpl	0x004f4950
    1374:	434e5546 	movtmi	r5, #58694	; 0xe546
    1378:	544c415f 	strbpl	r4, [ip], #-351	; 0x15f
    137c:	6e5f0030 	mrcvs	0, 2, r0, cr15, cr0, {1}
    1380:	00667562 	rsbeq	r7, r6, r2, ror #10
    1384:	756e755f 	strbvc	r7, [lr, #-1375]!	; 0x55f
    1388:	00646573 	rsbeq	r6, r4, r3, ror r5
    138c:	4f495047 	svcmi	0x00495047
    1390:	4e55465f 	mrcmi	6, 2, r4, cr5, cr15, {2}
    1394:	4c415f43 	mcrrmi	15, 4, r5, r1, cr3
    1398:	47003354 	smlsdmi	r0, r4, r3, r3
    139c:	5f4f4950 	svcpl	0x004f4950
    13a0:	434e5546 	movtmi	r5, #58694	; 0xe546
    13a4:	544c415f 	strbpl	r4, [ip], #-351	; 0x15f
    13a8:	50470034 	subpl	r0, r7, r4, lsr r0
    13ac:	465f4f49 	ldrbmi	r4, [pc], -r9, asr #30
    13b0:	5f434e55 	svcpl	0x00434e55
    13b4:	35544c41 	ldrbcc	r4, [r4, #-3137]	; 0xc41
    13b8:	745f5f00 	ldrbvc	r5, [pc], #-3840	; 13c0 <__code_start__-0x6c40>
    13bc:	73695f6d 	cmnvc	r9, #436	; 0x1b4
    13c0:	00747364 	rsbseq	r7, r4, r4, ror #6
    13c4:	636f6c5f 	cmnvs	pc, #24320	; 0x5f00
    13c8:	69746c61 	ldmdbvs	r4!, {r0, r5, r6, sl, fp, sp, lr}^
    13cc:	625f656d 	subsvs	r6, pc, #457179136	; 0x1b400000
    13d0:	5f006675 	svcpl	0x00006675
    13d4:	736f6c63 	cmnvc	pc, #25344	; 0x6300
    13d8:	725f0065 	subsvc	r0, pc, #101	; 0x65
    13dc:	5f003834 	svcpl	0x00003834
    13e0:	6f74626d 	svcvs	0x0074626d
    13e4:	735f6377 	cmpvc	pc, #-603979775	; 0xdc000001
    13e8:	65746174 	ldrbvs	r6, [r4, #-372]!	; 0x174
    13ec:	35705f00 	ldrbcc	r5, [r0, #-3840]!	; 0xf00
    13f0:	5f5f0073 	svcpl	0x005f0073
    13f4:	6d5f6d74 	ldclvs	13, cr6, [pc, #-464]	; 122c <__code_start__-0x6dd4>
    13f8:	00796164 	rsbseq	r6, r9, r4, ror #2
    13fc:	6f697067 	svcvs	0x00697067
    1400:	7465735f 	strbtvc	r7, [r5], #-863	; 0x35f
    1404:	66666f5f 	uqsaxvs	r6, r6, pc	; <UNPREDICTABLE>
    1408:	6e616200 	cdpvs	2, 6, cr6, cr1, cr0, {0}
    140c:	7067006b 	rsbvc	r0, r7, fp, rrx
    1410:	632e6f69 	teqvs	lr, #420	; 0x1a4
    1414:	69706700 	ldmdbvs	r0!, {r8, r9, sl, sp, lr}^
    1418:	65725f6f 	ldrbvs	r5, [r2, #-3951]!	; 0xf6f
    141c:	67006461 	strvs	r6, [r0, -r1, ror #8]
    1420:	5f6f6970 	svcpl	0x006f6970
    1424:	5f746573 	svcpl	0x00746573
    1428:	7074756f 	rsbsvc	r7, r4, pc, ror #10
    142c:	67007475 	smlsdxvs	r0, r5, r4, r7
    1430:	5f6f6970 	svcpl	0x006f6970
    1434:	74697277 	strbtvc	r7, [r9], #-631	; 0x277
    1438:	70670065 	rsbvc	r0, r7, r5, rrx
    143c:	735f6f69 	cmpvc	pc, #420	; 0x1a4
    1440:	00307465 	eorseq	r7, r0, r5, ror #8
    1444:	6f697067 	svcvs	0x00697067
    1448:	76656c5f 			; <UNDEFINED> instruction: 0x76656c5f
    144c:	70670030 	rsbvc	r0, r7, r0, lsr r0
    1450:	735f6f69 	cmpvc	pc, #420	; 0x1a4
    1454:	695f7465 	ldmdbvs	pc, {r0, r2, r5, r6, sl, ip, sp, lr}^	; <UNPREDICTABLE>
    1458:	7475706e 	ldrbtvc	r7, [r5], #-110	; 0x6e
    145c:	69706700 	ldmdbvs	r0!, {r8, r9, sl, sp, lr}^
    1460:	65735f6f 	ldrbvs	r5, [r3, #-3951]!	; 0xf6f
    1464:	6e6f5f74 	mcrvs	15, 3, r5, cr15, cr4, {3}
    1468:	69706700 	ldmdbvs	r0!, {r8, r9, sl, sp, lr}^
    146c:	75665f6f 	strbvc	r5, [r6, #-3951]!	; 0xf6f
    1470:	745f636e 	ldrbvc	r6, [pc], #-878	; 1478 <__code_start__-0x6b88>
    1474:	69706700 	ldmdbvs	r0!, {r8, r9, sl, sp, lr}^
    1478:	6c635f6f 	stclvs	15, cr5, [r3], #-444	; 0xfffffe44
    147c:	6b003072 	blvs	d64c <__bss_end__+0xc84>
    1480:	6c6c616d 	stfvse	f6, [ip], #-436	; 0xfffffe4c
    1484:	632e636f 	teqvs	lr, #-1140850687	; 0xbc000001
    1488:	616d6b00 	cmnvs	sp, r0, lsl #22
    148c:	636f6c6c 	cmnvs	pc, #108, 24	; 0x6c00
    1490:	696e695f 	stmdbvs	lr!, {r0, r1, r2, r3, r4, r6, r8, fp, sp, lr}^
    1494:	6f640074 	svcvs	0x00640074
    1498:	656c6275 	strbvs	r6, [ip, #-629]!	; 0x275
    149c:	72666b00 	rsbvc	r6, r6, #0, 22
    14a0:	615f6565 	cmpvs	pc, r5, ror #10
    14a4:	6b006c6c 	blvs	1c65c <__bss_end__+0xfc94>
    14a8:	6c6c616d 	stfvse	f6, [ip], #-436	; 0xfffffe4c
    14ac:	695f636f 	ldmdbvs	pc, {r0, r1, r2, r3, r5, r6, r8, r9, sp, lr}^	; <UNPREDICTABLE>
    14b0:	5f74696e 	svcpl	0x0074696e
    14b4:	5f746573 	svcpl	0x00746573
    14b8:	72617473 	rsbvc	r7, r1, #1929379840	; 0x73000000
    14bc:	666b0074 			; <UNDEFINED> instruction: 0x666b0074
    14c0:	00656572 	rsbeq	r6, r5, r2, ror r5
    14c4:	6572666b 	ldrbvs	r6, [r2, #-1643]!	; 0x66b
    14c8:	66615f65 	strbtvs	r5, [r1], -r5, ror #30
    14cc:	00726574 	rsbseq	r6, r2, r4, ror r5
    14d0:	6c616d6b 	stclvs	13, cr6, [r1], #-428	; 0xfffffe54
    14d4:	5f636f6c 	svcpl	0x00636f6c
    14d8:	70616568 	rsbvc	r6, r1, r8, ror #10
    14dc:	7274705f 	rsbsvc	r7, r4, #95	; 0x5f
    14e0:	685f5f00 	ldmdavs	pc, {r8, r9, sl, fp, ip, lr}^	; <UNPREDICTABLE>
    14e4:	5f706165 	svcpl	0x00706165
    14e8:	72617473 	rsbvc	r7, r1, #1929379840	; 0x73000000
    14ec:	005f5f74 	subseq	r5, pc, r4, ror pc	; <UNPREDICTABLE>
    14f0:	6c616d6b 	stclvs	13, cr6, [r1], #-428	; 0xfffffe54
    14f4:	5f636f6c 	svcpl	0x00636f6c
    14f8:	70616568 	rsbvc	r6, r1, r8, ror #10
    14fc:	6174735f 	cmnvs	r4, pc, asr r3
    1500:	68007472 	stmdavs	r0, {r1, r4, r5, r6, sl, ip, sp, lr}
    1504:	00706165 	rsbseq	r6, r0, r5, ror #2
    1508:	6c616d6b 	stclvs	13, cr6, [r1], #-428	; 0xfffffe54
    150c:	5f636f6c 	svcpl	0x00636f6c
    1510:	70616568 	rsbvc	r6, r1, r8, ror #10
    1514:	646e655f 	strbtvs	r6, [lr], #-1375	; 0x55f
    1518:	616d6b00 	cmnvs	sp, r0, lsl #22
    151c:	636f6c6c 	cmnvs	pc, #108, 24	; 0x6c00
	...

Disassembly of section .debug_frame:

00000000 <.debug_frame>:
   0:	0000000c 	andeq	r0, r0, ip
   4:	ffffffff 			; <UNDEFINED> instruction: 0xffffffff
   8:	7c020001 	stcvc	0, cr0, [r2], {1}
   c:	000d0c0e 	andeq	r0, sp, lr, lsl #24
  10:	00000018 	andeq	r0, r0, r8, lsl r0
  14:	00000000 	andeq	r0, r0, r0
  18:	00008020 	andeq	r8, r0, r0, lsr #32
  1c:	000001b4 			; <UNDEFINED> instruction: 0x000001b4
  20:	84080e42 	strhi	r0, [r8], #-3650	; 0xe42
  24:	42018e02 	andmi	r8, r1, #2, 28
  28:	0000100e 	andeq	r1, r0, lr
  2c:	0000000c 	andeq	r0, r0, ip
  30:	ffffffff 			; <UNDEFINED> instruction: 0xffffffff
  34:	7c020001 	stcvc	0, cr0, [r2], {1}
  38:	000d0c0e 	andeq	r0, sp, lr, lsl #24
  3c:	00000014 	andeq	r0, r0, r4, lsl r0
  40:	0000002c 	andeq	r0, r0, ip, lsr #32
  44:	00008318 	andeq	r8, r0, r8, lsl r3
  48:	00000010 	andeq	r0, r0, r0, lsl r0
  4c:	83080e42 	movwhi	r0, #36418	; 0x8e42
  50:	00018e02 	andeq	r8, r1, r2, lsl #28
  54:	00000014 	andeq	r0, r0, r4, lsl r0
  58:	0000002c 	andeq	r0, r0, ip, lsr #32
  5c:	00008328 	andeq	r8, r0, r8, lsr #6
  60:	00000090 	muleq	r0, r0, r0
  64:	8e040e42 	cdphi	14, 0, cr0, cr4, cr2, {2}
  68:	100e4201 	andne	r4, lr, r1, lsl #4
  6c:	00000020 	andeq	r0, r0, r0, lsr #32
  70:	0000002c 	andeq	r0, r0, ip, lsr #32
  74:	000083b8 			; <UNDEFINED> instruction: 0x000083b8
  78:	00000098 	muleq	r0, r8, r0
  7c:	84180e42 	ldrhi	r0, [r8], #-3650	; 0xe42
  80:	86058506 	strhi	r8, [r5], -r6, lsl #10
  84:	88038704 	stmdahi	r3, {r2, r8, r9, sl, pc}
  88:	42018e02 	andmi	r8, r1, #2, 28
  8c:	0000200e 	andeq	r2, r0, lr
  90:	00000014 	andeq	r0, r0, r4, lsl r0
  94:	0000002c 	andeq	r0, r0, ip, lsr #32
  98:	00008450 	andeq	r8, r0, r0, asr r4
  9c:	00000010 	andeq	r0, r0, r0, lsl r0
  a0:	83080e42 	movwhi	r0, #36418	; 0x8e42
  a4:	00018e02 	andeq	r8, r1, r2, lsl #28
  a8:	00000014 	andeq	r0, r0, r4, lsl r0
  ac:	0000002c 	andeq	r0, r0, ip, lsr #32
  b0:	00008460 	andeq	r8, r0, r0, ror #8
  b4:	00000010 	andeq	r0, r0, r0, lsl r0
  b8:	83080e42 	movwhi	r0, #36418	; 0x8e42
  bc:	00018e02 	andeq	r8, r1, r2, lsl #28
  c0:	00000014 	andeq	r0, r0, r4, lsl r0
  c4:	0000002c 	andeq	r0, r0, ip, lsr #32
  c8:	00008470 	andeq	r8, r0, r0, ror r4
  cc:	00000010 	andeq	r0, r0, r0, lsl r0
  d0:	83080e42 	movwhi	r0, #36418	; 0x8e42
  d4:	00018e02 	andeq	r8, r1, r2, lsl #28
  d8:	00000014 	andeq	r0, r0, r4, lsl r0
  dc:	0000002c 	andeq	r0, r0, ip, lsr #32
  e0:	00008480 	andeq	r8, r0, r0, lsl #9
  e4:	00000098 	muleq	r0, r8, r0
  e8:	8e040e42 	cdphi	14, 0, cr0, cr4, cr2, {2}
  ec:	100e4201 	andne	r4, lr, r1, lsl #4
  f0:	00000020 	andeq	r0, r0, r0, lsr #32
  f4:	0000002c 	andeq	r0, r0, ip, lsr #32
  f8:	00008518 	andeq	r8, r0, r8, lsl r5
  fc:	00000194 	muleq	r0, r4, r1
 100:	841c0e42 	ldrhi	r0, [ip], #-3650	; 0xe42
 104:	86068507 	strhi	r8, [r6], -r7, lsl #10
 108:	88048705 	stmdahi	r4, {r0, r2, r8, r9, sl, pc}
 10c:	8e028903 	cdphi	9, 0, cr8, cr2, cr3, {0}
 110:	280e4201 	stmdacs	lr, {r0, r9, lr}
 114:	00000020 	andeq	r0, r0, r0, lsr #32
 118:	0000002c 	andeq	r0, r0, ip, lsr #32
 11c:	000086ac 	andeq	r8, r0, ip, lsr #13
 120:	000000f0 	strdeq	r0, [r0], -r0	; <UNPREDICTABLE>
 124:	841c0e42 	ldrhi	r0, [ip], #-3650	; 0xe42
 128:	86068507 	strhi	r8, [r6], -r7, lsl #10
 12c:	88048705 	stmdahi	r4, {r0, r2, r8, r9, sl, pc}
 130:	8e028903 	cdphi	9, 0, cr8, cr2, cr3, {0}
 134:	280e4201 	stmdacs	lr, {r0, r9, lr}
 138:	00000018 	andeq	r0, r0, r8, lsl r0
 13c:	0000002c 	andeq	r0, r0, ip, lsr #32
 140:	0000879c 	muleq	r0, ip, r7
 144:	00000094 	muleq	r0, r4, r0
 148:	84080e42 	strhi	r0, [r8], #-3650	; 0xe42
 14c:	42018e02 	andmi	r8, r1, #2, 28
 150:	0000100e 	andeq	r1, r0, lr
 154:	00000014 	andeq	r0, r0, r4, lsl r0
 158:	0000002c 	andeq	r0, r0, ip, lsr #32
 15c:	00008830 	andeq	r8, r0, r0, lsr r8
 160:	00000090 	muleq	r0, r0, r0
 164:	8e040e42 	cdphi	14, 0, cr0, cr4, cr2, {2}
 168:	100e4201 	andne	r4, lr, r1, lsl #4
 16c:	00000014 	andeq	r0, r0, r4, lsl r0
 170:	0000002c 	andeq	r0, r0, ip, lsr #32
 174:	000088c0 	andeq	r8, r0, r0, asr #17
 178:	00000090 	muleq	r0, r0, r0
 17c:	8e040e42 	cdphi	14, 0, cr0, cr4, cr2, {2}
 180:	100e4201 	andne	r4, lr, r1, lsl #4
 184:	00000014 	andeq	r0, r0, r4, lsl r0
 188:	0000002c 	andeq	r0, r0, ip, lsr #32
 18c:	00008950 	andeq	r8, r0, r0, asr r9
 190:	0000000c 	andeq	r0, r0, ip
 194:	83080e42 	movwhi	r0, #36418	; 0x8e42
 198:	00018e02 	andeq	r8, r1, r2, lsl #28
 19c:	00000014 	andeq	r0, r0, r4, lsl r0
 1a0:	0000002c 	andeq	r0, r0, ip, lsr #32
 1a4:	0000895c 	andeq	r8, r0, ip, asr r9
 1a8:	00000080 	andeq	r0, r0, r0, lsl #1
 1ac:	8e040e42 	cdphi	14, 0, cr0, cr4, cr2, {2}
 1b0:	100e4201 	andne	r4, lr, r1, lsl #4
 1b4:	00000014 	andeq	r0, r0, r4, lsl r0
 1b8:	0000002c 	andeq	r0, r0, ip, lsr #32
 1bc:	000089dc 	ldrdeq	r8, [r0], -ip
 1c0:	00000058 	andeq	r0, r0, r8, asr r0
 1c4:	8e040e42 	cdphi	14, 0, cr0, cr4, cr2, {2}
 1c8:	100e4201 	andne	r4, lr, r1, lsl #4
 1cc:	00000014 	andeq	r0, r0, r4, lsl r0
 1d0:	0000002c 	andeq	r0, r0, ip, lsr #32
 1d4:	00008a34 	andeq	r8, r0, r4, lsr sl
 1d8:	00000050 	andeq	r0, r0, r0, asr r0
 1dc:	8e040e42 	cdphi	14, 0, cr0, cr4, cr2, {2}
 1e0:	100e4201 	andne	r4, lr, r1, lsl #4
 1e4:	00000014 	andeq	r0, r0, r4, lsl r0
 1e8:	0000002c 	andeq	r0, r0, ip, lsr #32
 1ec:	00008a84 	andeq	r8, r0, r4, lsl #21
 1f0:	00000058 	andeq	r0, r0, r8, asr r0
 1f4:	8e040e42 	cdphi	14, 0, cr0, cr4, cr2, {2}
 1f8:	100e4201 	andne	r4, lr, r1, lsl #4
 1fc:	0000000c 	andeq	r0, r0, ip
 200:	0000002c 	andeq	r0, r0, ip, lsr #32
 204:	00008adc 	ldrdeq	r8, [r0], -ip
 208:	00000008 	andeq	r0, r0, r8
 20c:	00000014 	andeq	r0, r0, r4, lsl r0
 210:	0000002c 	andeq	r0, r0, ip, lsr #32
 214:	00008ae4 	andeq	r8, r0, r4, ror #21
 218:	0000000c 	andeq	r0, r0, ip
 21c:	83080e42 	movwhi	r0, #36418	; 0x8e42
 220:	00018e02 	andeq	r8, r1, r2, lsl #28
 224:	00000014 	andeq	r0, r0, r4, lsl r0
 228:	0000002c 	andeq	r0, r0, ip, lsr #32
 22c:	00008af0 	strdeq	r8, [r0], -r0
 230:	000000bc 	strheq	r0, [r0], -ip
 234:	8e040e42 	cdphi	14, 0, cr0, cr4, cr2, {2}
 238:	100e4201 	andne	r4, lr, r1, lsl #4
 23c:	00000014 	andeq	r0, r0, r4, lsl r0
 240:	0000002c 	andeq	r0, r0, ip, lsr #32
 244:	00008bac 	andeq	r8, r0, ip, lsr #23
 248:	00000048 	andeq	r0, r0, r8, asr #32
 24c:	8e040e42 	cdphi	14, 0, cr0, cr4, cr2, {2}
 250:	100e4201 	andne	r4, lr, r1, lsl #4
 254:	0000000c 	andeq	r0, r0, ip
 258:	ffffffff 			; <UNDEFINED> instruction: 0xffffffff
 25c:	7c020001 	stcvc	0, cr0, [r2], {1}
 260:	000d0c0e 	andeq	r0, sp, lr, lsl #24
 264:	00000018 	andeq	r0, r0, r8, lsl r0
 268:	00000254 	andeq	r0, r0, r4, asr r2
 26c:	00008bf4 	strdeq	r8, [r0], -r4
 270:	00000034 	andeq	r0, r0, r4, lsr r0
 274:	83100e42 	tsthi	r0, #1056	; 0x420
 278:	85038404 	strhi	r8, [r3, #-1028]	; 0x404
 27c:	00018e02 	andeq	r8, r1, r2, lsl #28
 280:	00000014 	andeq	r0, r0, r4, lsl r0
 284:	00000254 	andeq	r0, r0, r4, asr r2
 288:	00008c28 	andeq	r8, r0, r8, lsr #24
 28c:	00000028 	andeq	r0, r0, r8, lsr #32
 290:	83080e42 	movwhi	r0, #36418	; 0x8e42
 294:	00018e02 	andeq	r8, r1, r2, lsl #28
 298:	00000014 	andeq	r0, r0, r4, lsl r0
 29c:	00000254 	andeq	r0, r0, r4, asr r2
 2a0:	00008c50 	andeq	r8, r0, r0, asr ip
 2a4:	00000008 	andeq	r0, r0, r8
 2a8:	8e040e42 	cdphi	14, 0, cr0, cr4, cr2, {2}
 2ac:	00000001 	andeq	r0, r0, r1
 2b0:	00000014 	andeq	r0, r0, r4, lsl r0
 2b4:	00000254 	andeq	r0, r0, r4, asr r2
 2b8:	00008c58 	andeq	r8, r0, r8, asr ip
 2bc:	000001f8 	strdeq	r0, [r0], -r8
 2c0:	8e040e42 	cdphi	14, 0, cr0, cr4, cr2, {2}
 2c4:	100e4201 	andne	r4, lr, r1, lsl #4
 2c8:	00000014 	andeq	r0, r0, r4, lsl r0
 2cc:	00000254 	andeq	r0, r0, r4, asr r2
 2d0:	00008e50 	andeq	r8, r0, r0, asr lr
 2d4:	00000204 	andeq	r0, r0, r4, lsl #4
 2d8:	84080e42 	strhi	r0, [r8], #-3650	; 0xe42
 2dc:	00018e02 	andeq	r8, r1, r2, lsl #28
 2e0:	00000014 	andeq	r0, r0, r4, lsl r0
 2e4:	00000254 	andeq	r0, r0, r4, asr r2
 2e8:	00009054 	andeq	r9, r0, r4, asr r0
 2ec:	00000008 	andeq	r0, r0, r8
 2f0:	8e040e42 	cdphi	14, 0, cr0, cr4, cr2, {2}
 2f4:	00000001 	andeq	r0, r0, r1
 2f8:	00000014 	andeq	r0, r0, r4, lsl r0
 2fc:	00000254 	andeq	r0, r0, r4, asr r2
 300:	0000905c 	andeq	r9, r0, ip, asr r0
 304:	0000004c 	andeq	r0, r0, ip, asr #32
 308:	84080e42 	strhi	r0, [r8], #-3650	; 0xe42
 30c:	00018e02 	andeq	r8, r1, r2, lsl #28
 310:	00000014 	andeq	r0, r0, r4, lsl r0
 314:	00000254 	andeq	r0, r0, r4, asr r2
 318:	000090a8 	andeq	r9, r0, r8, lsr #1
 31c:	000001c0 	andeq	r0, r0, r0, asr #3
 320:	8e040e42 	cdphi	14, 0, cr0, cr4, cr2, {2}
 324:	100e4201 	andne	r4, lr, r1, lsl #4
 328:	0000000c 	andeq	r0, r0, ip
 32c:	00000254 	andeq	r0, r0, r4, asr r2
 330:	00009268 	andeq	r9, r0, r8, ror #4
 334:	00000008 	andeq	r0, r0, r8
 338:	00000018 	andeq	r0, r0, r8, lsl r0
 33c:	00000254 	andeq	r0, r0, r4, asr r2
 340:	00009270 	andeq	r9, r0, r0, ror r2
 344:	000000b4 	strheq	r0, [r0], -r4
 348:	84080e42 	strhi	r0, [r8], #-3650	; 0xe42
 34c:	42018e02 	andmi	r8, r1, #2, 28
 350:	0000280e 	andeq	r2, r0, lr, lsl #16
 354:	00000014 	andeq	r0, r0, r4, lsl r0
 358:	00000254 	andeq	r0, r0, r4, asr r2
 35c:	00009324 	andeq	r9, r0, r4, lsr #6
 360:	000001d0 	ldrdeq	r0, [r0], -r0	; <UNPREDICTABLE>
 364:	84080e42 	strhi	r0, [r8], #-3650	; 0xe42
 368:	00018e02 	andeq	r8, r1, r2, lsl #28
 36c:	00000014 	andeq	r0, r0, r4, lsl r0
 370:	00000254 	andeq	r0, r0, r4, asr r2
 374:	000094f4 	strdeq	r9, [r0], -r4
 378:	00000014 	andeq	r0, r0, r4, lsl r0
 37c:	83080e42 	movwhi	r0, #36418	; 0x8e42
 380:	00018e02 	andeq	r8, r1, r2, lsl #28
 384:	0000000c 	andeq	r0, r0, ip
 388:	ffffffff 			; <UNDEFINED> instruction: 0xffffffff
 38c:	7c020001 	stcvc	0, cr0, [r2], {1}
 390:	000d0c0e 	andeq	r0, sp, lr, lsl #24
 394:	0000000c 	andeq	r0, r0, ip
 398:	00000384 	andeq	r0, r0, r4, lsl #7
 39c:	00009508 	andeq	r9, r0, r8, lsl #10
 3a0:	0000001c 	andeq	r0, r0, ip, lsl r0
 3a4:	0000000c 	andeq	r0, r0, ip
 3a8:	00000384 	andeq	r0, r0, r4, lsl #7
 3ac:	00009524 	andeq	r9, r0, r4, lsr #10
 3b0:	00000018 	andeq	r0, r0, r8, lsl r0
 3b4:	0000001c 	andeq	r0, r0, ip, lsl r0
 3b8:	00000384 	andeq	r0, r0, r4, lsl #7
 3bc:	0000953c 	andeq	r9, r0, ip, lsr r5
 3c0:	000000f0 	strdeq	r0, [r0], -r0	; <UNPREDICTABLE>
 3c4:	84100e42 	ldrhi	r0, [r0], #-3650	; 0xe42
 3c8:	86038504 	strhi	r8, [r3], -r4, lsl #10
 3cc:	42018e02 	andmi	r8, r1, #2, 28
 3d0:	0000280e 	andeq	r2, r0, lr, lsl #16
 3d4:	00000018 	andeq	r0, r0, r8, lsl r0
 3d8:	00000384 	andeq	r0, r0, r4, lsl #7
 3dc:	0000962c 	andeq	r9, r0, ip, lsr #12
 3e0:	000000a4 	andeq	r0, r0, r4, lsr #1
 3e4:	84080e42 	strhi	r0, [r8], #-3650	; 0xe42
 3e8:	42018e02 	andmi	r8, r1, #2, 28
 3ec:	0000100e 	andeq	r1, r0, lr
 3f0:	00000018 	andeq	r0, r0, r8, lsl r0
 3f4:	00000384 	andeq	r0, r0, r4, lsl #7
 3f8:	000096d0 	ldrdeq	r9, [r0], -r0
 3fc:	0000009c 	muleq	r0, ip, r0
 400:	840c0e42 	strhi	r0, [ip], #-3650	; 0xe42
 404:	8e028503 	cfsh32hi	mvfx8, mvfx2, #3
 408:	180e4201 	stmdane	lr, {r0, r9, lr}
 40c:	0000000c 	andeq	r0, r0, ip
 410:	00000384 	andeq	r0, r0, r4, lsl #7
 414:	0000976c 	andeq	r9, r0, ip, ror #14
 418:	00000014 	andeq	r0, r0, r4, lsl r0
 41c:	0000001c 	andeq	r0, r0, ip, lsl r0
 420:	00000384 	andeq	r0, r0, r4, lsl #7
 424:	00009780 	andeq	r9, r0, r0, lsl #15
 428:	00000378 	andeq	r0, r0, r8, ror r3
 42c:	84100e42 	ldrhi	r0, [r0], #-3650	; 0xe42
 430:	86038504 	strhi	r8, [r3], -r4, lsl #10
 434:	42018e02 	andmi	r8, r1, #2, 28
 438:	0000180e 	andeq	r1, r0, lr, lsl #16
 43c:	00000014 	andeq	r0, r0, r4, lsl r0
 440:	00000384 	andeq	r0, r0, r4, lsl #7
 444:	00009af8 	strdeq	r9, [r0], -r8
 448:	00000030 	andeq	r0, r0, r0, lsr r0
 44c:	83080e42 	movwhi	r0, #36418	; 0x8e42
 450:	00018e02 	andeq	r8, r1, r2, lsl #28
 454:	00000018 	andeq	r0, r0, r8, lsl r0
 458:	00000384 	andeq	r0, r0, r4, lsl #7
 45c:	00009b28 	andeq	r9, r0, r8, lsr #22
 460:	00000150 	andeq	r0, r0, r0, asr r1
 464:	84080e42 	strhi	r0, [r8], #-3650	; 0xe42
 468:	42018e02 	andmi	r8, r1, #2, 28
 46c:	0000100e 	andeq	r1, r0, lr
 470:	00000014 	andeq	r0, r0, r4, lsl r0
 474:	00000384 	andeq	r0, r0, r4, lsl #7
 478:	00009c78 	andeq	r9, r0, r8, ror ip
 47c:	00000088 	andeq	r0, r0, r8, lsl #1
 480:	8e040e42 	cdphi	14, 0, cr0, cr4, cr2, {2}
 484:	100e4201 	andne	r4, lr, r1, lsl #4
 488:	00000014 	andeq	r0, r0, r4, lsl r0
 48c:	00000384 	andeq	r0, r0, r4, lsl #7
 490:	00009d00 	andeq	r9, r0, r0, lsl #26
 494:	00000070 	andeq	r0, r0, r0, ror r0
 498:	8e040e42 	cdphi	14, 0, cr0, cr4, cr2, {2}
 49c:	100e4201 	andne	r4, lr, r1, lsl #4
 4a0:	00000014 	andeq	r0, r0, r4, lsl r0
 4a4:	00000384 	andeq	r0, r0, r4, lsl #7
 4a8:	00009d70 	andeq	r9, r0, r0, ror sp
 4ac:	00000070 	andeq	r0, r0, r0, ror r0
 4b0:	8e040e42 	cdphi	14, 0, cr0, cr4, cr2, {2}
 4b4:	100e4201 	andne	r4, lr, r1, lsl #4
 4b8:	00000014 	andeq	r0, r0, r4, lsl r0
 4bc:	00000384 	andeq	r0, r0, r4, lsl #7
 4c0:	00009de0 	andeq	r9, r0, r0, ror #27
 4c4:	00000074 	andeq	r0, r0, r4, ror r0
 4c8:	8e040e42 	cdphi	14, 0, cr0, cr4, cr2, {2}
 4cc:	100e4201 	andne	r4, lr, r1, lsl #4
 4d0:	00000014 	andeq	r0, r0, r4, lsl r0
 4d4:	00000384 	andeq	r0, r0, r4, lsl #7
 4d8:	00009e54 	andeq	r9, r0, r4, asr lr
 4dc:	00000024 	andeq	r0, r0, r4, lsr #32
 4e0:	83080e42 	movwhi	r0, #36418	; 0x8e42
 4e4:	00018e02 	andeq	r8, r1, r2, lsl #28
 4e8:	00000014 	andeq	r0, r0, r4, lsl r0
 4ec:	00000384 	andeq	r0, r0, r4, lsl #7
 4f0:	00009e78 	andeq	r9, r0, r8, ror lr
 4f4:	00000018 	andeq	r0, r0, r8, lsl r0
 4f8:	83080e42 	movwhi	r0, #36418	; 0x8e42
 4fc:	00018e02 	andeq	r8, r1, r2, lsl #28
 500:	00000014 	andeq	r0, r0, r4, lsl r0
 504:	00000384 	andeq	r0, r0, r4, lsl #7
 508:	00009e90 	muleq	r0, r0, lr
 50c:	0000005c 	andeq	r0, r0, ip, asr r0
 510:	8e040e42 	cdphi	14, 0, cr0, cr4, cr2, {2}
 514:	100e4201 	andne	r4, lr, r1, lsl #4
 518:	00000014 	andeq	r0, r0, r4, lsl r0
 51c:	00000384 	andeq	r0, r0, r4, lsl #7
 520:	00009eec 	andeq	r9, r0, ip, ror #29
 524:	0000005c 	andeq	r0, r0, ip, asr r0
 528:	8e040e42 	cdphi	14, 0, cr0, cr4, cr2, {2}
 52c:	100e4201 	andne	r4, lr, r1, lsl #4
 530:	0000000c 	andeq	r0, r0, ip
 534:	ffffffff 			; <UNDEFINED> instruction: 0xffffffff
 538:	7c020001 	stcvc	0, cr0, [r2], {1}
 53c:	000d0c0e 	andeq	r0, sp, lr, lsl #24
 540:	00000014 	andeq	r0, r0, r4, lsl r0
 544:	00000530 	andeq	r0, r0, r0, lsr r5
 548:	0000a2dc 	ldrdeq	sl, [r0], -ip
 54c:	000000f0 	strdeq	r0, [r0], -r0	; <UNPREDICTABLE>
 550:	84040e42 	strhi	r0, [r4], #-3650	; 0xe42
 554:	00000001 	andeq	r0, r0, r1
 558:	0000000c 	andeq	r0, r0, ip
 55c:	ffffffff 			; <UNDEFINED> instruction: 0xffffffff
 560:	7c020001 	stcvc	0, cr0, [r2], {1}
 564:	000d0c0e 	andeq	r0, sp, lr, lsl #24
 568:	0000000c 	andeq	r0, r0, ip
 56c:	00000558 	andeq	r0, r0, r8, asr r5
 570:	0000a3cc 	andeq	sl, r0, ip, asr #7
 574:	00000020 	andeq	r0, r0, r0, lsr #32
 578:	0000000c 	andeq	r0, r0, ip
 57c:	ffffffff 			; <UNDEFINED> instruction: 0xffffffff
 580:	7c020001 	stcvc	0, cr0, [r2], {1}
 584:	000d0c0e 	andeq	r0, sp, lr, lsl #24
 588:	00000024 	andeq	r0, r0, r4, lsr #32
 58c:	00000578 	andeq	r0, r0, r8, ror r5
 590:	0000a3ec 	andeq	sl, r0, ip, ror #7
 594:	00000058 	andeq	r0, r0, r8, asr r0
 598:	80100e42 	andshi	r0, r0, r2, asr #28
 59c:	82038104 	andhi	r8, r3, #4, 2
 5a0:	42018302 	andmi	r8, r1, #134217728	; 0x8000000
 5a4:	07841c0e 	streq	r1, [r4, lr, lsl #24]
 5a8:	058e0685 	streq	r0, [lr, #1669]	; 0x685
 5ac:	00280e42 	eoreq	r0, r8, r2, asr #28
 5b0:	0000000c 	andeq	r0, r0, ip
 5b4:	ffffffff 			; <UNDEFINED> instruction: 0xffffffff
 5b8:	7c020001 	stcvc	0, cr0, [r2], {1}
 5bc:	000d0c0e 	andeq	r0, sp, lr, lsl #24
 5c0:	00000014 	andeq	r0, r0, r4, lsl r0
 5c4:	000005b0 			; <UNDEFINED> instruction: 0x000005b0
 5c8:	0000a444 	andeq	sl, r0, r4, asr #8
 5cc:	00000014 	andeq	r0, r0, r4, lsl r0
 5d0:	84080e42 	strhi	r0, [r8], #-3650	; 0xe42
 5d4:	00018e02 	andeq	r8, r1, r2, lsl #28
 5d8:	0000000c 	andeq	r0, r0, ip
 5dc:	000005b0 			; <UNDEFINED> instruction: 0x000005b0
 5e0:	0000a458 	andeq	sl, r0, r8, asr r4
 5e4:	00000018 	andeq	r0, r0, r8, lsl r0
 5e8:	0000000c 	andeq	r0, r0, ip
 5ec:	000005b0 			; <UNDEFINED> instruction: 0x000005b0
 5f0:	0000a470 	andeq	sl, r0, r0, ror r4
 5f4:	00000010 	andeq	r0, r0, r0, lsl r0
 5f8:	0000000c 	andeq	r0, r0, ip
 5fc:	ffffffff 			; <UNDEFINED> instruction: 0xffffffff
 600:	7c020001 	stcvc	0, cr0, [r2], {1}
 604:	000d0c0e 	andeq	r0, sp, lr, lsl #24
 608:	00000018 	andeq	r0, r0, r8, lsl r0
 60c:	000005f8 	strdeq	r0, [r0], -r8
 610:	0000a480 	andeq	sl, r0, r0, lsl #9
 614:	00000034 	andeq	r0, r0, r4, lsr r0
 618:	83100e42 	tsthi	r0, #1056	; 0x420
 61c:	85038404 	strhi	r8, [r3, #-1028]	; 0x404
 620:	00018e02 	andeq	r8, r1, r2, lsl #28
 624:	0000000c 	andeq	r0, r0, ip
 628:	ffffffff 			; <UNDEFINED> instruction: 0xffffffff
 62c:	7c020001 	stcvc	0, cr0, [r2], {1}
 630:	000d0c0e 	andeq	r0, sp, lr, lsl #24
 634:	0000000c 	andeq	r0, r0, ip
 638:	00000624 	andeq	r0, r0, r4, lsr #12
 63c:	0000a4b4 			; <UNDEFINED> instruction: 0x0000a4b4
 640:	00000014 	andeq	r0, r0, r4, lsl r0
 644:	0000000c 	andeq	r0, r0, ip
 648:	00000624 	andeq	r0, r0, r4, lsr #12
 64c:	0000a4c8 	andeq	sl, r0, r8, asr #9
 650:	0000002c 	andeq	r0, r0, ip, lsr #32
 654:	0000000c 	andeq	r0, r0, ip
 658:	00000624 	andeq	r0, r0, r4, lsr #12
 65c:	0000a4f4 	strdeq	sl, [r0], -r4
 660:	00000040 	andeq	r0, r0, r0, asr #32
 664:	00000020 	andeq	r0, r0, r0, lsr #32
 668:	00000624 	andeq	r0, r0, r4, lsr #12
 66c:	0000a534 	andeq	sl, r0, r4, lsr r5
 670:	000001bc 			; <UNDEFINED> instruction: 0x000001bc
 674:	84180e42 	ldrhi	r0, [r8], #-3650	; 0xe42
 678:	86058506 	strhi	r8, [r5], -r6, lsl #10
 67c:	88038704 	stmdahi	r3, {r2, r8, r9, sl, pc}
 680:	42018e02 	andmi	r8, r1, #2, 28
 684:	0000600e 	andeq	r6, r0, lr
 688:	00000014 	andeq	r0, r0, r4, lsl r0
 68c:	00000624 	andeq	r0, r0, r4, lsr #12
 690:	0000a6f0 	strdeq	sl, [r0], -r0
 694:	00000068 	andeq	r0, r0, r8, rrx
 698:	8e040e42 	cdphi	14, 0, cr0, cr4, cr2, {2}
 69c:	100e4201 	andne	r4, lr, r1, lsl #4
 6a0:	00000028 	andeq	r0, r0, r8, lsr #32
 6a4:	00000624 	andeq	r0, r0, r4, lsr #12
 6a8:	0000a758 	andeq	sl, r0, r8, asr r7
 6ac:	000002d4 	ldrdeq	r0, [r0], -r4
 6b0:	84240e42 	strthi	r0, [r4], #-3650	; 0xe42
 6b4:	86088509 	strhi	r8, [r8], -r9, lsl #10
 6b8:	88068707 	stmdahi	r6, {r0, r1, r2, r8, r9, sl, pc}
 6bc:	8a048905 	bhi	122ad8 <__bss_end__+0x116110>
 6c0:	8e028b03 	vmlahi.f64	d8, d2, d3
 6c4:	b80e4201 	stmdalt	lr, {r0, r9, lr}
 6c8:	00000001 	andeq	r0, r0, r1
 6cc:	0000000c 	andeq	r0, r0, ip
 6d0:	ffffffff 			; <UNDEFINED> instruction: 0xffffffff
 6d4:	7c020001 	stcvc	0, cr0, [r2], {1}
 6d8:	000d0c0e 	andeq	r0, sp, lr, lsl #24
 6dc:	00000014 	andeq	r0, r0, r4, lsl r0
 6e0:	000006cc 	andeq	r0, r0, ip, asr #13
 6e4:	0000aa2c 	andeq	sl, r0, ip, lsr #20
 6e8:	0000002c 	andeq	r0, r0, ip, lsr #32
 6ec:	83080e42 	movwhi	r0, #36418	; 0x8e42
 6f0:	00018e02 	andeq	r8, r1, r2, lsl #28
 6f4:	0000000c 	andeq	r0, r0, ip
 6f8:	ffffffff 			; <UNDEFINED> instruction: 0xffffffff
 6fc:	7c020001 	stcvc	0, cr0, [r2], {1}
 700:	000d0c0e 	andeq	r0, sp, lr, lsl #24
 704:	00000014 	andeq	r0, r0, r4, lsl r0
 708:	000006f4 	strdeq	r0, [r0], -r4
 70c:	0000aa58 	andeq	sl, r0, r8, asr sl
 710:	00000038 	andeq	r0, r0, r8, lsr r0
 714:	83080e42 	movwhi	r0, #36418	; 0x8e42
 718:	00018e02 	andeq	r8, r1, r2, lsl #28
 71c:	0000000c 	andeq	r0, r0, ip
 720:	ffffffff 			; <UNDEFINED> instruction: 0xffffffff
 724:	7c020001 	stcvc	0, cr0, [r2], {1}
 728:	000d0c0e 	andeq	r0, sp, lr, lsl #24
 72c:	00000014 	andeq	r0, r0, r4, lsl r0
 730:	0000071c 	andeq	r0, r0, ip, lsl r7
 734:	0000aa90 	muleq	r0, r0, sl
 738:	00000044 	andeq	r0, r0, r4, asr #32
 73c:	8e040e42 	cdphi	14, 0, cr0, cr4, cr2, {2}
 740:	100e4201 	andne	r4, lr, r1, lsl #4
 744:	0000000c 	andeq	r0, r0, ip
 748:	ffffffff 			; <UNDEFINED> instruction: 0xffffffff
 74c:	7c020001 	stcvc	0, cr0, [r2], {1}
 750:	000d0c0e 	andeq	r0, sp, lr, lsl #24
 754:	00000014 	andeq	r0, r0, r4, lsl r0
 758:	00000744 	andeq	r0, r0, r4, asr #14
 75c:	0000aad4 	ldrdeq	sl, [r0], -r4
 760:	00000044 	andeq	r0, r0, r4, asr #32
 764:	8e040e42 	cdphi	14, 0, cr0, cr4, cr2, {2}
 768:	100e4201 	andne	r4, lr, r1, lsl #4
 76c:	0000000c 	andeq	r0, r0, ip
 770:	ffffffff 			; <UNDEFINED> instruction: 0xffffffff
 774:	7c020001 	stcvc	0, cr0, [r2], {1}
 778:	000d0c0e 	andeq	r0, sp, lr, lsl #24
 77c:	00000014 	andeq	r0, r0, r4, lsl r0
 780:	0000076c 	andeq	r0, r0, ip, ror #14
 784:	0000ab18 	andeq	sl, r0, r8, lsl fp
 788:	00000044 	andeq	r0, r0, r4, asr #32
 78c:	8e040e42 	cdphi	14, 0, cr0, cr4, cr2, {2}
 790:	100e4201 	andne	r4, lr, r1, lsl #4
 794:	0000000c 	andeq	r0, r0, ip
 798:	ffffffff 			; <UNDEFINED> instruction: 0xffffffff
 79c:	7c020001 	stcvc	0, cr0, [r2], {1}
 7a0:	000d0c0e 	andeq	r0, sp, lr, lsl #24
 7a4:	00000014 	andeq	r0, r0, r4, lsl r0
 7a8:	00000794 	muleq	r0, r4, r7
 7ac:	0000ab5c 	andeq	sl, r0, ip, asr fp
 7b0:	00000044 	andeq	r0, r0, r4, asr #32
 7b4:	8e040e42 	cdphi	14, 0, cr0, cr4, cr2, {2}
 7b8:	100e4201 	andne	r4, lr, r1, lsl #4
 7bc:	0000000c 	andeq	r0, r0, ip
 7c0:	ffffffff 			; <UNDEFINED> instruction: 0xffffffff
 7c4:	7c020001 	stcvc	0, cr0, [r2], {1}
 7c8:	000d0c0e 	andeq	r0, sp, lr, lsl #24
 7cc:	0000000c 	andeq	r0, r0, ip
 7d0:	000007bc 			; <UNDEFINED> instruction: 0x000007bc
 7d4:	0000aba0 	andeq	sl, r0, r0, lsr #23
 7d8:	00000004 	andeq	r0, r0, r4
 7dc:	0000000c 	andeq	r0, r0, ip
 7e0:	000007bc 			; <UNDEFINED> instruction: 0x000007bc
 7e4:	0000aba4 	andeq	sl, r0, r4, lsr #23
 7e8:	00000004 	andeq	r0, r0, r4
 7ec:	0000000c 	andeq	r0, r0, ip
 7f0:	ffffffff 			; <UNDEFINED> instruction: 0xffffffff
 7f4:	7c020001 	stcvc	0, cr0, [r2], {1}
 7f8:	000d0c0e 	andeq	r0, sp, lr, lsl #24
 7fc:	00000014 	andeq	r0, r0, r4, lsl r0
 800:	000007ec 	andeq	r0, r0, ip, ror #15
 804:	0000aba8 	andeq	sl, r0, r8, lsr #23
 808:	0000006c 	andeq	r0, r0, ip, rrx
 80c:	83080e42 	movwhi	r0, #36418	; 0x8e42
 810:	00018e02 	andeq	r8, r1, r2, lsl #28
 814:	0000000c 	andeq	r0, r0, ip
 818:	ffffffff 			; <UNDEFINED> instruction: 0xffffffff
 81c:	7c020001 	stcvc	0, cr0, [r2], {1}
 820:	000d0c0e 	andeq	r0, sp, lr, lsl #24
 824:	0000000c 	andeq	r0, r0, ip
 828:	00000814 	andeq	r0, r0, r4, lsl r8
 82c:	0000ac14 	andeq	sl, r0, r4, lsl ip
 830:	00000018 	andeq	r0, r0, r8, lsl r0
 834:	0000000c 	andeq	r0, r0, ip
 838:	00000814 	andeq	r0, r0, r4, lsl r8
 83c:	0000ac2c 	andeq	sl, r0, ip, lsr #24
 840:	00000014 	andeq	r0, r0, r4, lsl r0
 844:	00000014 	andeq	r0, r0, r4, lsl r0
 848:	00000814 	andeq	r0, r0, r4, lsl r8
 84c:	0000ac40 	andeq	sl, r0, r0, asr #24
 850:	00000048 	andeq	r0, r0, r8, asr #32
 854:	83080e42 	movwhi	r0, #36418	; 0x8e42
 858:	00018e02 	andeq	r8, r1, r2, lsl #28
 85c:	0000000c 	andeq	r0, r0, ip
 860:	ffffffff 			; <UNDEFINED> instruction: 0xffffffff
 864:	7c020001 	stcvc	0, cr0, [r2], {1}
 868:	000d0c0e 	andeq	r0, sp, lr, lsl #24
 86c:	0000000c 	andeq	r0, r0, ip
 870:	0000085c 	andeq	r0, r0, ip, asr r8
 874:	0000ac88 	andeq	sl, r0, r8, lsl #25
 878:	0000001c 	andeq	r0, r0, ip, lsl r0
 87c:	00000014 	andeq	r0, r0, r4, lsl r0
 880:	0000085c 	andeq	r0, r0, ip, asr r8
 884:	0000aca4 	andeq	sl, r0, r4, lsr #25
 888:	00000014 	andeq	r0, r0, r4, lsl r0
 88c:	83080e42 	movwhi	r0, #36418	; 0x8e42
 890:	00018e02 	andeq	r8, r1, r2, lsl #28
 894:	00000014 	andeq	r0, r0, r4, lsl r0
 898:	0000085c 	andeq	r0, r0, ip, asr r8
 89c:	0000acb8 			; <UNDEFINED> instruction: 0x0000acb8
 8a0:	0000001c 	andeq	r0, r0, ip, lsl r0
 8a4:	84080e42 	strhi	r0, [r8], #-3650	; 0xe42
 8a8:	00018e02 	andeq	r8, r1, r2, lsl #28
 8ac:	00000018 	andeq	r0, r0, r8, lsl r0
 8b0:	0000085c 	andeq	r0, r0, ip, asr r8
 8b4:	0000acd4 	ldrdeq	sl, [r0], -r4
 8b8:	00000024 	andeq	r0, r0, r4, lsr #32
 8bc:	83100e42 	tsthi	r0, #1056	; 0x420
 8c0:	85038404 	strhi	r8, [r3, #-1028]	; 0x404
 8c4:	00018e02 	andeq	r8, r1, r2, lsl #28
 8c8:	00000014 	andeq	r0, r0, r4, lsl r0
 8cc:	0000085c 	andeq	r0, r0, ip, asr r8
 8d0:	0000acf8 	strdeq	sl, [r0], -r8
 8d4:	00000014 	andeq	r0, r0, r4, lsl r0
 8d8:	83080e42 	movwhi	r0, #36418	; 0x8e42
 8dc:	00018e02 	andeq	r8, r1, r2, lsl #28
 8e0:	00000014 	andeq	r0, r0, r4, lsl r0
 8e4:	0000085c 	andeq	r0, r0, ip, asr r8
 8e8:	0000ad0c 	andeq	sl, r0, ip, lsl #26
 8ec:	00000014 	andeq	r0, r0, r4, lsl r0
 8f0:	83080e42 	movwhi	r0, #36418	; 0x8e42
 8f4:	00018e02 	andeq	r8, r1, r2, lsl #28
 8f8:	0000000c 	andeq	r0, r0, ip
 8fc:	ffffffff 			; <UNDEFINED> instruction: 0xffffffff
 900:	7c020001 	stcvc	0, cr0, [r2], {1}
 904:	000d0c0e 	andeq	r0, sp, lr, lsl #24
 908:	00000018 	andeq	r0, r0, r8, lsl r0
 90c:	000008f8 	strdeq	r0, [r0], -r8
 910:	0000ad84 	andeq	sl, r0, r4, lsl #27
 914:	00000020 	andeq	r0, r0, r0, lsr #32
 918:	84100e42 	ldrhi	r0, [r0], #-3650	; 0xe42
 91c:	86038504 	strhi	r8, [r3], -r4, lsl #10
 920:	00018e02 	andeq	r8, r1, r2, lsl #28
 924:	00000014 	andeq	r0, r0, r4, lsl r0
 928:	000008f8 	strdeq	r0, [r0], -r8
 92c:	0000ada4 	andeq	sl, r0, r4, lsr #27
 930:	000000b0 	strheq	r0, [r0], -r0	; <UNPREDICTABLE>
 934:	84080e42 	strhi	r0, [r8], #-3650	; 0xe42
 938:	00018e02 	andeq	r8, r1, r2, lsl #28
 93c:	00000014 	andeq	r0, r0, r4, lsl r0
 940:	000008f8 	strdeq	r0, [r0], -r8
 944:	0000ae54 	andeq	sl, r0, r4, asr lr
 948:	00000018 	andeq	r0, r0, r8, lsl r0
 94c:	84080e42 	strhi	r0, [r8], #-3650	; 0xe42
 950:	00018e02 	andeq	r8, r1, r2, lsl #28
 954:	00000014 	andeq	r0, r0, r4, lsl r0
 958:	000008f8 	strdeq	r0, [r0], -r8
 95c:	0000ae6c 	andeq	sl, r0, ip, ror #28
 960:	00000020 	andeq	r0, r0, r0, lsr #32
 964:	84080e42 	strhi	r0, [r8], #-3650	; 0xe42
 968:	00018e02 	andeq	r8, r1, r2, lsl #28
 96c:	00000014 	andeq	r0, r0, r4, lsl r0
 970:	000008f8 	strdeq	r0, [r0], -r8
 974:	0000ae8c 	andeq	sl, r0, ip, lsl #29
 978:	00000030 	andeq	r0, r0, r0, lsr r0
 97c:	84080e42 	strhi	r0, [r8], #-3650	; 0xe42
 980:	00018e02 	andeq	r8, r1, r2, lsl #28
 984:	00000014 	andeq	r0, r0, r4, lsl r0
 988:	000008f8 	strdeq	r0, [r0], -r8
 98c:	0000aebc 			; <UNDEFINED> instruction: 0x0000aebc
 990:	00000030 	andeq	r0, r0, r0, lsr r0
 994:	84080e42 	strhi	r0, [r8], #-3650	; 0xe42
 998:	00018e02 	andeq	r8, r1, r2, lsl #28
 99c:	00000014 	andeq	r0, r0, r4, lsl r0
 9a0:	000008f8 	strdeq	r0, [r0], -r8
 9a4:	0000aeec 	andeq	sl, r0, ip, ror #29
 9a8:	00000010 	andeq	r0, r0, r0, lsl r0
 9ac:	84080e42 	strhi	r0, [r8], #-3650	; 0xe42
 9b0:	00018e02 	andeq	r8, r1, r2, lsl #28
 9b4:	0000000c 	andeq	r0, r0, ip
 9b8:	ffffffff 			; <UNDEFINED> instruction: 0xffffffff
 9bc:	7c020001 	stcvc	0, cr0, [r2], {1}
 9c0:	000d0c0e 	andeq	r0, sp, lr, lsl #24
 9c4:	00000018 	andeq	r0, r0, r8, lsl r0
 9c8:	000009b4 			; <UNDEFINED> instruction: 0x000009b4
 9cc:	0000aefc 	strdeq	sl, [r0], -ip
 9d0:	00000068 	andeq	r0, r0, r8, rrx
 9d4:	84100e4a 	ldrhi	r0, [r0], #-3658	; 0xe4a
 9d8:	86038504 	strhi	r8, [r3], -r4, lsl #10
 9dc:	00018e02 	andeq	r8, r1, r2, lsl #28
 9e0:	00000014 	andeq	r0, r0, r4, lsl r0
 9e4:	000009b4 			; <UNDEFINED> instruction: 0x000009b4
 9e8:	0000af64 	andeq	sl, r0, r4, ror #30
 9ec:	00000010 	andeq	r0, r0, r0, lsl r0
 9f0:	84080e42 	strhi	r0, [r8], #-3650	; 0xe42
 9f4:	00018e02 	andeq	r8, r1, r2, lsl #28
 9f8:	00000014 	andeq	r0, r0, r4, lsl r0
 9fc:	000009b4 			; <UNDEFINED> instruction: 0x000009b4
 a00:	0000af74 	andeq	sl, r0, r4, ror pc
 a04:	00000024 	andeq	r0, r0, r4, lsr #32
 a08:	84080e46 	strhi	r0, [r8], #-3654	; 0xe46
 a0c:	00018e02 	andeq	r8, r1, r2, lsl #28
 a10:	00000014 	andeq	r0, r0, r4, lsl r0
 a14:	000009b4 			; <UNDEFINED> instruction: 0x000009b4
 a18:	0000af98 	muleq	r0, r8, pc	; <UNPREDICTABLE>
 a1c:	00000024 	andeq	r0, r0, r4, lsr #32
 a20:	84080e46 	strhi	r0, [r8], #-3654	; 0xe46
 a24:	00018e02 	andeq	r8, r1, r2, lsl #28
 a28:	00000014 	andeq	r0, r0, r4, lsl r0
 a2c:	000009b4 			; <UNDEFINED> instruction: 0x000009b4
 a30:	0000afbc 			; <UNDEFINED> instruction: 0x0000afbc
 a34:	00000010 	andeq	r0, r0, r0, lsl r0
 a38:	84080e42 	strhi	r0, [r8], #-3650	; 0xe42
 a3c:	00018e02 	andeq	r8, r1, r2, lsl #28
 a40:	00000014 	andeq	r0, r0, r4, lsl r0
 a44:	000009b4 			; <UNDEFINED> instruction: 0x000009b4
 a48:	0000afcc 	andeq	sl, r0, ip, asr #31
 a4c:	0000001c 	andeq	r0, r0, ip, lsl r0
 a50:	84080e42 	strhi	r0, [r8], #-3650	; 0xe42
 a54:	00018e02 	andeq	r8, r1, r2, lsl #28
 a58:	00000018 	andeq	r0, r0, r8, lsl r0
 a5c:	000009b4 			; <UNDEFINED> instruction: 0x000009b4
 a60:	0000afe8 	andeq	sl, r0, r8, ror #31
 a64:	00000034 	andeq	r0, r0, r4, lsr r0
 a68:	84080e46 	strhi	r0, [r8], #-3654	; 0xe46
 a6c:	4e018e02 	cdpmi	14, 0, cr8, cr1, cr2, {0}
 a70:	cec4000e 	cdpgt	0, 12, cr0, cr4, cr14, {0}
 a74:	0000000c 	andeq	r0, r0, ip
 a78:	ffffffff 			; <UNDEFINED> instruction: 0xffffffff
 a7c:	7c020001 	stcvc	0, cr0, [r2], {1}
 a80:	000d0c0e 	andeq	r0, sp, lr, lsl #24
 a84:	0000000c 	andeq	r0, r0, ip
 a88:	00000a74 	andeq	r0, r0, r4, ror sl
 a8c:	0000b01c 	andeq	fp, r0, ip, lsl r0
 a90:	00000010 	andeq	r0, r0, r0, lsl r0
 a94:	0000000c 	andeq	r0, r0, ip
 a98:	00000a74 	andeq	r0, r0, r4, ror sl
 a9c:	0000b02c 	andeq	fp, r0, ip, lsr #32
 aa0:	0000000c 	andeq	r0, r0, ip
 aa4:	00000014 	andeq	r0, r0, r4, lsl r0
 aa8:	00000a74 	andeq	r0, r0, r4, ror sl
 aac:	0000b038 	andeq	fp, r0, r8, lsr r0
 ab0:	00000060 	andeq	r0, r0, r0, rrx
 ab4:	8e040e52 	mcrhi	14, 0, r0, cr4, cr2, {2}
 ab8:	100e4201 	andne	r4, lr, r1, lsl #4
 abc:	0000001c 	andeq	r0, r0, ip, lsl r0
 ac0:	00000a74 	andeq	r0, r0, r4, ror sl
 ac4:	0000b098 	muleq	r0, r8, r0
 ac8:	00000078 	andeq	r0, r0, r8, ror r0
 acc:	84080e42 	strhi	r0, [r8], #-3650	; 0xe42
 ad0:	42018e02 	andmi	r8, r1, #2, 28
 ad4:	0a5a100e 	beq	1684b14 <__bss_end__+0x167814c>
 ad8:	0b42080e 	bleq	1082b18 <__bss_end__+0x1076150>
 adc:	0000000c 	andeq	r0, r0, ip
 ae0:	00000a74 	andeq	r0, r0, r4, ror sl
 ae4:	0000b110 	andeq	fp, r0, r0, lsl r1
 ae8:	00000004 	andeq	r0, r0, r4
 aec:	00000014 	andeq	r0, r0, r4, lsl r0
 af0:	00000a74 	andeq	r0, r0, r4, ror sl
 af4:	0000b114 	andeq	fp, r0, r4, lsl r1
 af8:	0000000c 	andeq	r0, r0, ip
 afc:	84080e42 	strhi	r0, [r8], #-3650	; 0xe42
 b00:	00018e02 	andeq	r8, r1, r2, lsl #28
 b04:	0000001c 	andeq	r0, r0, ip, lsl r0
 b08:	00000a74 	andeq	r0, r0, r4, ror sl
 b0c:	0000b120 	andeq	fp, r0, r0, lsr #2
 b10:	000000ac 	andeq	r0, r0, ip, lsr #1
 b14:	8e040e42 	cdphi	14, 0, cr0, cr4, cr2, {2}
 b18:	100e4201 	andne	r4, lr, r1, lsl #4
 b1c:	040e0a5e 	streq	r0, [lr], #-2654	; 0xa5e
 b20:	00000b42 	andeq	r0, r0, r2, asr #22
 b24:	0000000c 	andeq	r0, r0, ip
 b28:	00000a74 	andeq	r0, r0, r4, ror sl
 b2c:	0000b1cc 	andeq	fp, r0, ip, asr #3
 b30:	00000004 	andeq	r0, r0, r4
 b34:	0000000c 	andeq	r0, r0, ip
 b38:	00000a74 	andeq	r0, r0, r4, ror sl
 b3c:	0000b1d0 	ldrdeq	fp, [r0], -r0
 b40:	00000014 	andeq	r0, r0, r4, lsl r0
 b44:	0000000c 	andeq	r0, r0, ip
 b48:	00000a74 	andeq	r0, r0, r4, ror sl
 b4c:	0000b1e4 	andeq	fp, r0, r4, ror #3
 b50:	00000010 	andeq	r0, r0, r0, lsl r0

Disassembly of section .debug_loc:

00000000 <.debug_loc>:
       0:	00000010 	andeq	r0, r0, r0, lsl r0
       4:	00000023 	andeq	r0, r0, r3, lsr #32
       8:	23500001 	cmpcs	r0, #1
       c:	44000000 	strmi	r0, [r0], #-0
      10:	04000000 	streq	r0, [r0], #-0
      14:	5001f300 	andpl	pc, r1, r0, lsl #6
      18:	0000449f 	muleq	r0, pc, r4	; <UNPREDICTABLE>
      1c:	00005b00 	andeq	r5, r0, r0, lsl #22
      20:	50000100 	andpl	r0, r0, r0, lsl #2
      24:	0000005b 	andeq	r0, r0, fp, asr r0
      28:	0000007c 	andeq	r0, r0, ip, ror r0
      2c:	01f30004 	mvnseq	r0, r4
      30:	007c9f50 	rsbseq	r9, ip, r0, asr pc
      34:	00800000 	addeq	r0, r0, r0
      38:	00010000 	andeq	r0, r1, r0
      3c:	00008050 	andeq	r8, r0, r0, asr r0
      40:	0000a000 	andeq	sl, r0, r0
      44:	f3000400 	vshl.u8	d0, d0, d0
      48:	009f5001 	addseq	r5, pc, r1
      4c:	00000000 	andeq	r0, r0, r0
      50:	10000000 	andne	r0, r0, r0
      54:	23000000 	movwcs	r0, #0
      58:	01000000 	mrseq	r0, (UNDEF: 0)
      5c:	00235100 	eoreq	r5, r3, r0, lsl #2
      60:	00440000 	subeq	r0, r4, r0
      64:	00040000 	andeq	r0, r4, r0
      68:	9f5101f3 	svcls	0x005101f3
      6c:	00000044 	andeq	r0, r0, r4, asr #32
      70:	00000048 	andeq	r0, r0, r8, asr #32
      74:	48510001 	ldmdami	r1, {r0}^
      78:	a0000000 	andge	r0, r0, r0
      7c:	04000000 	streq	r0, [r0], #-0
      80:	5101f300 	mrspl	pc, SP_irq	; <UNPREDICTABLE>
      84:	0000009f 	muleq	r0, pc, r0	; <UNPREDICTABLE>
      88:	00000000 	andeq	r0, r0, r0
      8c:	00004800 	andeq	r4, r0, r0, lsl #16
      90:	00005b00 	andeq	r5, r0, r0, lsl #22
      94:	51000100 	mrspl	r0, (UNDEF: 16)
      98:	0000005b 	andeq	r0, r0, fp, asr r0
      9c:	0000007c 	andeq	r0, r0, ip, ror r0
      a0:	01f30006 	mvnseq	r0, r6
      a4:	9f254451 	svcls	0x00254451
      a8:	0000007c 	andeq	r0, r0, ip, ror r0
      ac:	000000a0 	andeq	r0, r0, r0, lsr #1
      b0:	00510001 	subseq	r0, r1, r1
      b4:	00000000 	andeq	r0, r0, r0
      b8:	4c000000 	stcmi	0, cr0, [r0], {-0}
      bc:	5b000000 	blpl	c4 <__code_start__-0x7f3c>
      c0:	01000000 	mrseq	r0, (UNDEF: 0)
      c4:	005b5300 	subseq	r5, fp, r0, lsl #6
      c8:	007c0000 	rsbseq	r0, ip, r0
      cc:	000c0000 	andeq	r0, ip, r0
      d0:	445101f3 	ldrbmi	r0, [r1], #-499	; 0x1f3
      d4:	f3243225 	vhsub.u32	d3, d4, d21
      d8:	9f225001 	svcls	0x00225001
      dc:	0000007c 	andeq	r0, r0, ip, ror r0
      e0:	000000a0 	andeq	r0, r0, r0, lsr #1
      e4:	00530001 	subseq	r0, r3, r1
      e8:	00000000 	andeq	r0, r0, r0
      ec:	a0000000 	andge	r0, r0, r0
      f0:	c3000000 	movwgt	r0, #0
      f4:	01000000 	mrseq	r0, (UNDEF: 0)
      f8:	00c35000 	sbceq	r5, r3, r0
      fc:	01080000 	mrseq	r0, (UNDEF: 8)
     100:	00010000 	andeq	r0, r1, r0
     104:	00010858 	andeq	r0, r1, r8, asr r8
     108:	00011400 	andeq	r1, r1, r0, lsl #8
     10c:	50000100 	andpl	r0, r0, r0, lsl #2
     110:	00000114 	andeq	r0, r0, r4, lsl r1
     114:	00000128 	andeq	r0, r0, r8, lsr #2
     118:	28580001 	ldmdacs	r8, {r0}^
     11c:	38000001 	stmdacc	r0, {r0}
     120:	04000001 	streq	r0, [r0], #-1
     124:	5001f300 	andpl	pc, r1, r0, lsl #6
     128:	0000009f 	muleq	r0, pc, r0	; <UNPREDICTABLE>
     12c:	00000000 	andeq	r0, r0, r0
     130:	0000a000 	andeq	sl, r0, r0
     134:	0000b400 	andeq	fp, r0, r0, lsl #8
     138:	51000100 	mrspl	r0, (UNDEF: 16)
     13c:	000000b4 	strheq	r0, [r0], -r4
     140:	000000b8 	strheq	r0, [r0], -r8
     144:	01f30004 	mvnseq	r0, r4
     148:	00009f51 	andeq	r9, r0, r1, asr pc
     14c:	00000000 	andeq	r0, r0, r0
     150:	00a00000 	adceq	r0, r0, r0
     154:	00c30000 	sbceq	r0, r3, r0
     158:	00010000 	andeq	r0, r1, r0
     15c:	0000c352 	andeq	ip, r0, r2, asr r3
     160:	00010800 	andeq	r0, r1, r0, lsl #16
     164:	55000100 	strpl	r0, [r0, #-256]	; 0x100
     168:	00000108 	andeq	r0, r0, r8, lsl #2
     16c:	00000114 	andeq	r0, r0, r4, lsl r1
     170:	14520001 	ldrbne	r0, [r2], #-1
     174:	28000001 	stmdacs	r0, {r0}
     178:	01000001 	tsteq	r0, r1
     17c:	01285500 	teqeq	r8, r0, lsl #10
     180:	01380000 	teqeq	r8, r0
     184:	00040000 	andeq	r0, r4, r0
     188:	9f5201f3 	svcls	0x005201f3
	...
     194:	000000a0 	andeq	r0, r0, r0, lsr #1
     198:	000000c3 	andeq	r0, r0, r3, asr #1
     19c:	c3530001 	cmpgt	r3, #1
     1a0:	08000000 	stmdaeq	r0, {}	; <UNPREDICTABLE>
     1a4:	04000001 	streq	r0, [r0], #-1
     1a8:	5301f300 	movwpl	pc, #4864	; 0x1300	; <UNPREDICTABLE>
     1ac:	0001089f 	muleq	r1, pc, r8	; <UNPREDICTABLE>
     1b0:	00011400 	andeq	r1, r1, r0, lsl #8
     1b4:	53000100 	movwpl	r0, #256	; 0x100
     1b8:	00000114 	andeq	r0, r0, r4, lsl r1
     1bc:	00000138 	andeq	r0, r0, r8, lsr r1
     1c0:	01f30004 	mvnseq	r0, r4
     1c4:	00009f53 	andeq	r9, r0, r3, asr pc
     1c8:	00000000 	andeq	r0, r0, r0
     1cc:	00b00000 	adcseq	r0, r0, r0
     1d0:	00b40000 	adcseq	r0, r4, r0
     1d4:	00010000 	andeq	r0, r1, r0
     1d8:	0000b451 	andeq	fp, r0, r1, asr r4
     1dc:	00013800 	andeq	r3, r1, r0, lsl #16
     1e0:	f3000400 	vshl.u8	d0, d0, d0
     1e4:	009f5101 	addseq	r5, pc, r1, lsl #2
     1e8:	00000000 	andeq	r0, r0, r0
     1ec:	e4000000 	str	r0, [r0], #-0
     1f0:	08000000 	stmdaeq	r0, {}	; <UNPREDICTABLE>
     1f4:	01000001 	tsteq	r0, r1
     1f8:	01145400 	tsteq	r4, r0, lsl #8
     1fc:	01280000 	teqeq	r8, r0
     200:	00010000 	andeq	r0, r1, r0
     204:	00000054 	andeq	r0, r0, r4, asr r0
     208:	00000000 	andeq	r0, r0, r0
     20c:	0000f000 	andeq	pc, r0, r0
     210:	00010800 	andeq	r0, r1, r0, lsl #16
     214:	50000100 	andpl	r0, r0, r0, lsl #2
	...
     220:	00000138 	andeq	r0, r0, r8, lsr r1
     224:	00000143 	andeq	r0, r0, r3, asr #2
     228:	43500001 	cmpmi	r0, #1
     22c:	48000001 	stmdami	r0, {r0}
     230:	04000001 	streq	r0, [r0], #-1
     234:	5001f300 	andpl	pc, r1, r0, lsl #6
     238:	0000009f 	muleq	r0, pc, r0	; <UNPREDICTABLE>
     23c:	00000000 	andeq	r0, r0, r0
     240:	00013800 	andeq	r3, r1, r0, lsl #16
     244:	00014300 	andeq	r4, r1, r0, lsl #6
     248:	51000100 	mrspl	r0, (UNDEF: 16)
     24c:	00000143 	andeq	r0, r0, r3, asr #2
     250:	00000148 	andeq	r0, r0, r8, asr #2
     254:	01f30004 	mvnseq	r0, r4
     258:	00009f51 	andeq	r9, r0, r1, asr pc
     25c:	00000000 	andeq	r0, r0, r0
     260:	01380000 	teqeq	r8, r0
     264:	01430000 	mrseq	r0, (UNDEF: 67)
     268:	00010000 	andeq	r0, r1, r0
     26c:	00014352 	andeq	r4, r1, r2, asr r3
     270:	00014800 	andeq	r4, r1, r0, lsl #16
     274:	f3000400 	vshl.u8	d0, d0, d0
     278:	009f5201 	addseq	r5, pc, r1, lsl #4
     27c:	00000000 	andeq	r0, r0, r0
     280:	48000000 	stmdami	r0, {}	; <UNPREDICTABLE>
     284:	53000001 	movwpl	r0, #1
     288:	01000001 	tsteq	r0, r1
     28c:	01535000 	cmpeq	r3, r0
     290:	01580000 	cmpeq	r8, r0
     294:	00040000 	andeq	r0, r4, r0
     298:	9f5001f3 	svcls	0x005001f3
	...
     2a4:	00000148 	andeq	r0, r0, r8, asr #2
     2a8:	00000153 	andeq	r0, r0, r3, asr r1
     2ac:	53510001 	cmppl	r1, #1
     2b0:	58000001 	stmdapl	r0, {r0}
     2b4:	04000001 	streq	r0, [r0], #-1
     2b8:	5101f300 	mrspl	pc, SP_irq	; <UNPREDICTABLE>
     2bc:	0000009f 	muleq	r0, pc, r0	; <UNPREDICTABLE>
     2c0:	00000000 	andeq	r0, r0, r0
     2c4:	00014800 	andeq	r4, r1, r0, lsl #16
     2c8:	00015300 	andeq	r5, r1, r0, lsl #6
     2cc:	52000100 	andpl	r0, r0, #0, 2
     2d0:	00000153 	andeq	r0, r0, r3, asr r1
     2d4:	00000158 	andeq	r0, r0, r8, asr r1
     2d8:	01f30004 	mvnseq	r0, r4
     2dc:	00009f52 	andeq	r9, r0, r2, asr pc
     2e0:	00000000 	andeq	r0, r0, r0
     2e4:	01580000 	cmpeq	r8, r0
     2e8:	01630000 	cmneq	r3, r0
     2ec:	00010000 	andeq	r0, r1, r0
     2f0:	00016350 	andeq	r6, r1, r0, asr r3
     2f4:	00016800 	andeq	r6, r1, r0, lsl #16
     2f8:	f3000400 	vshl.u8	d0, d0, d0
     2fc:	009f5001 	addseq	r5, pc, r1
     300:	00000000 	andeq	r0, r0, r0
     304:	58000000 	stmdapl	r0, {}	; <UNPREDICTABLE>
     308:	63000001 	movwvs	r0, #1
     30c:	01000001 	tsteq	r0, r1
     310:	01635100 	cmneq	r3, r0, lsl #2
     314:	01680000 	cmneq	r8, r0
     318:	00040000 	andeq	r0, r4, r0
     31c:	9f5101f3 	svcls	0x005101f3
	...
     328:	00000158 	andeq	r0, r0, r8, asr r1
     32c:	00000163 	andeq	r0, r0, r3, ror #2
     330:	63520001 	cmpvs	r2, #1
     334:	68000001 	stmdavs	r0, {r0}
     338:	04000001 	streq	r0, [r0], #-1
     33c:	5201f300 	andpl	pc, r1, #0, 6
     340:	0000009f 	muleq	r0, pc, r0	; <UNPREDICTABLE>
     344:	00000000 	andeq	r0, r0, r0
     348:	00016800 	andeq	r6, r1, r0, lsl #16
     34c:	00017b00 	andeq	r7, r1, r0, lsl #22
     350:	50000100 	andpl	r0, r0, r0, lsl #2
     354:	0000017b 	andeq	r0, r0, fp, ror r1
     358:	0000019c 	muleq	r0, ip, r1
     35c:	01f30004 	mvnseq	r0, r4
     360:	019c9f50 	orrseq	r9, ip, r0, asr pc
     364:	01bf0000 			; <UNDEFINED> instruction: 0x01bf0000
     368:	00010000 	andeq	r0, r1, r0
     36c:	0001bf50 	andeq	fp, r1, r0, asr pc
     370:	0001e000 	andeq	lr, r1, r0
     374:	f3000400 	vshl.u8	d0, d0, d0
     378:	e09f5001 	adds	r5, pc, r1
     37c:	00000001 	andeq	r0, r0, r1
     380:	01000002 	tsteq	r0, r2
     384:	00005000 	andeq	r5, r0, r0
     388:	00000000 	andeq	r0, r0, r0
     38c:	01680000 	cmneq	r8, r0
     390:	017b0000 	cmneq	fp, r0
     394:	00010000 	andeq	r0, r1, r0
     398:	00017b51 	andeq	r7, r1, r1, asr fp
     39c:	00019c00 	andeq	r9, r1, r0, lsl #24
     3a0:	f3000400 	vshl.u8	d0, d0, d0
     3a4:	9c9f5101 	ldflss	f5, [pc], {1}
     3a8:	bf000001 	svclt	0x00000001
     3ac:	01000001 	tsteq	r0, r1
     3b0:	01bf5100 			; <UNDEFINED> instruction: 0x01bf5100
     3b4:	01e00000 	mvneq	r0, r0
     3b8:	00040000 	andeq	r0, r4, r0
     3bc:	9f5101f3 	svcls	0x005101f3
     3c0:	000001e0 	andeq	r0, r0, r0, ror #3
     3c4:	00000200 	andeq	r0, r0, r0, lsl #4
     3c8:	00510001 	subseq	r0, r1, r1
	...
     3d4:	1f000002 	svcne	0x00000002
     3d8:	01000002 	tsteq	r0, r2
     3dc:	021f5000 	andseq	r5, pc, #0
     3e0:	02400000 	subeq	r0, r0, #0
     3e4:	00010000 	andeq	r0, r1, r0
     3e8:	00024054 	andeq	r4, r2, r4, asr r0
     3ec:	00024b00 	andeq	r4, r2, r0, lsl #22
     3f0:	50000100 	andpl	r0, r0, r0, lsl #2
     3f4:	0000024b 	andeq	r0, r0, fp, asr #4
     3f8:	0000026c 	andeq	r0, r0, ip, ror #4
     3fc:	6c540001 	mrrcvs	0, 0, r0, r4, cr1
     400:	77000002 	strvc	r0, [r0, -r2]
     404:	01000002 	tsteq	r0, r2
     408:	02775000 	rsbseq	r5, r7, #0
     40c:	02980000 	addseq	r0, r8, #0
     410:	00010000 	andeq	r0, r1, r0
     414:	00029854 	andeq	r9, r2, r4, asr r8
     418:	0002b300 	andeq	fp, r2, r0, lsl #6
     41c:	50000100 	andpl	r0, r0, r0, lsl #2
     420:	000002b3 			; <UNDEFINED> instruction: 0x000002b3
     424:	000002d4 	ldrdeq	r0, [r0], -r4
     428:	d4540001 	ldrble	r0, [r4], #-1
     42c:	d7000002 	strle	r0, [r0, -r2]
     430:	01000002 	tsteq	r0, r2
     434:	02d75000 	sbcseq	r5, r7, #0
     438:	03680000 	cmneq	r8, #0
     43c:	00010000 	andeq	r0, r1, r0
     440:	00036854 	andeq	r6, r3, r4, asr r8
     444:	00039400 	andeq	r9, r3, r0, lsl #8
     448:	f3000400 	vshl.u8	d0, d0, d0
     44c:	009f5001 	addseq	r5, pc, r1
	...
     458:	1f000002 	svcne	0x00000002
     45c:	01000002 	tsteq	r0, r2
     460:	021f5100 	andseq	r5, pc, #0, 2
     464:	02400000 	subeq	r0, r0, #0
     468:	00040000 	andeq	r0, r4, r0
     46c:	9f5101f3 	svcls	0x005101f3
     470:	00000240 	andeq	r0, r0, r0, asr #4
     474:	0000024b 	andeq	r0, r0, fp, asr #4
     478:	4b510001 	blmi	1440484 <__bss_end__+0x1433abc>
     47c:	6c000002 	stcvs	0, cr0, [r0], {2}
     480:	04000002 	streq	r0, [r0], #-2
     484:	5101f300 	mrspl	pc, SP_irq	; <UNPREDICTABLE>
     488:	00026c9f 	muleq	r2, pc, ip	; <UNPREDICTABLE>
     48c:	00027700 	andeq	r7, r2, r0, lsl #14
     490:	51000100 	mrspl	r0, (UNDEF: 16)
     494:	00000277 	andeq	r0, r0, r7, ror r2
     498:	00000298 	muleq	r0, r8, r2
     49c:	01f30004 	mvnseq	r0, r4
     4a0:	02989f51 	addseq	r9, r8, #324	; 0x144
     4a4:	02b30000 	adcseq	r0, r3, #0
     4a8:	00010000 	andeq	r0, r1, r0
     4ac:	0002b351 	andeq	fp, r2, r1, asr r3
     4b0:	0002d400 	andeq	sp, r2, r0, lsl #8
     4b4:	f3000400 	vshl.u8	d0, d0, d0
     4b8:	d49f5101 	ldrle	r5, [pc], #257	; 4c0 <__code_start__-0x7b40>
     4bc:	d7000002 	strle	r0, [r0, -r2]
     4c0:	01000002 	tsteq	r0, r2
     4c4:	02d75100 	sbcseq	r5, r7, #0, 2
     4c8:	03940000 	orrseq	r0, r4, #0
     4cc:	00040000 	andeq	r0, r4, r0
     4d0:	9f5101f3 	svcls	0x005101f3
	...
     4dc:	00000200 	andeq	r0, r0, r0, lsl #4
     4e0:	0000021f 	andeq	r0, r0, pc, lsl r2
     4e4:	1f520001 	svcne	0x00520001
     4e8:	40000002 	andmi	r0, r0, r2
     4ec:	01000002 	tsteq	r0, r2
     4f0:	02405900 	subeq	r5, r0, #0, 18
     4f4:	024b0000 	subeq	r0, fp, #0
     4f8:	00010000 	andeq	r0, r1, r0
     4fc:	00024b52 	andeq	r4, r2, r2, asr fp
     500:	00026c00 	andeq	r6, r2, r0, lsl #24
     504:	59000100 	stmdbpl	r0, {r8}
     508:	0000026c 	andeq	r0, r0, ip, ror #4
     50c:	00000277 	andeq	r0, r0, r7, ror r2
     510:	77520001 	ldrbvc	r0, [r2, -r1]
     514:	98000002 	stmdals	r0, {r1}
     518:	01000002 	tsteq	r0, r2
     51c:	02985900 	addseq	r5, r8, #0, 18
     520:	02b30000 	adcseq	r0, r3, #0
     524:	00010000 	andeq	r0, r1, r0
     528:	0002b352 	andeq	fp, r2, r2, asr r3
     52c:	0002d400 	andeq	sp, r2, r0, lsl #8
     530:	59000100 	stmdbpl	r0, {r8}
     534:	000002d4 	ldrdeq	r0, [r0], -r4
     538:	000002d7 	ldrdeq	r0, [r0], -r7
     53c:	d7520001 	ldrble	r0, [r2, -r1]
     540:	68000002 	stmdavs	r0, {r1}
     544:	01000003 	tsteq	r0, r3
     548:	03685900 	cmneq	r8, #0, 18
     54c:	03940000 	orrseq	r0, r4, #0
     550:	00040000 	andeq	r0, r4, r0
     554:	9f5201f3 	svcls	0x005201f3
	...
     560:	00000200 	andeq	r0, r0, r0, lsl #4
     564:	0000021f 	andeq	r0, r0, pc, lsl r2
     568:	1f530001 	svcne	0x00530001
     56c:	40000002 	andmi	r0, r0, r2
     570:	01000002 	tsteq	r0, r2
     574:	02405800 	subeq	r5, r0, #0, 16
     578:	024b0000 	subeq	r0, fp, #0
     57c:	00010000 	andeq	r0, r1, r0
     580:	00024b53 	andeq	r4, r2, r3, asr fp
     584:	00026c00 	andeq	r6, r2, r0, lsl #24
     588:	58000100 	stmdapl	r0, {r8}
     58c:	0000026c 	andeq	r0, r0, ip, ror #4
     590:	00000277 	andeq	r0, r0, r7, ror r2
     594:	77530001 	ldrbvc	r0, [r3, -r1]
     598:	98000002 	stmdals	r0, {r1}
     59c:	01000002 	tsteq	r0, r2
     5a0:	02985800 	addseq	r5, r8, #0, 16
     5a4:	02a80000 	adceq	r0, r8, #0
     5a8:	00010000 	andeq	r0, r1, r0
     5ac:	0002a853 	andeq	sl, r2, r3, asr r8
     5b0:	00030000 	andeq	r0, r3, r0
     5b4:	58000100 	stmdapl	r0, {r8}
     5b8:	00000300 	andeq	r0, r0, r0, lsl #6
     5bc:	00000394 	muleq	r0, r4, r3
     5c0:	01f30004 	mvnseq	r0, r4
     5c4:	00009f53 	andeq	r9, r0, r3, asr pc
     5c8:	00000000 	andeq	r0, r0, r0
     5cc:	029c0000 	addseq	r0, ip, #0
     5d0:	03680000 	cmneq	r8, #0
     5d4:	00010000 	andeq	r0, r1, r0
     5d8:	00036856 	andeq	r6, r3, r6, asr r8
     5dc:	00039400 	andeq	r9, r3, r0, lsl #8
     5e0:	f3000600 	vmax.u8	d0, d0, d0
     5e4:	25445101 	strbcs	r5, [r4, #-257]	; 0x101
     5e8:	0000009f 	muleq	r0, pc, r0	; <UNPREDICTABLE>
     5ec:	00000000 	andeq	r0, r0, r0
     5f0:	0002a400 	andeq	sl, r2, r0, lsl #8
     5f4:	00036800 	andeq	r6, r3, r0, lsl #16
     5f8:	55000100 	strpl	r0, [r0, #-256]	; 0x100
     5fc:	00000368 	andeq	r0, r0, r8, ror #6
     600:	00000394 	muleq	r0, r4, r3
     604:	00500001 	subseq	r0, r0, r1
     608:	00000000 	andeq	r0, r0, r0
     60c:	94000000 	strls	r0, [r0], #-0
     610:	bb000003 	bllt	624 <__code_start__-0x79dc>
     614:	01000003 	tsteq	r0, r3
     618:	03bb5000 			; <UNDEFINED> instruction: 0x03bb5000
     61c:	03dc0000 	bicseq	r0, ip, #0
     620:	00010000 	andeq	r0, r1, r0
     624:	0003dc59 	andeq	sp, r3, r9, asr ip
     628:	0003e700 	andeq	lr, r3, r0, lsl #14
     62c:	50000100 	andpl	r0, r0, r0, lsl #2
     630:	000003e7 	andeq	r0, r0, r7, ror #7
     634:	00000408 	andeq	r0, r0, r8, lsl #8
     638:	08590001 	ldmdaeq	r9, {r0}^
     63c:	13000004 	movwne	r0, #4
     640:	01000004 	tsteq	r0, r4
     644:	04135000 	ldreq	r5, [r3], #-0
     648:	04580000 	ldrbeq	r0, [r8], #-0
     64c:	00010000 	andeq	r0, r1, r0
     650:	00045859 	andeq	r5, r4, r9, asr r8
     654:	00045c00 	andeq	r5, r4, r0, lsl #24
     658:	50000100 	andpl	r0, r0, r0, lsl #2
     65c:	0000045c 	andeq	r0, r0, ip, asr r4
     660:	0000046c 	andeq	r0, r0, ip, ror #8
     664:	6c590001 	mrrcvs	0, 0, r0, r9, cr1
     668:	84000004 	strhi	r0, [r0], #-4
     66c:	04000004 	streq	r0, [r0], #-4
     670:	5001f300 	andpl	pc, r1, r0, lsl #6
     674:	0000009f 	muleq	r0, pc, r0	; <UNPREDICTABLE>
     678:	00000000 	andeq	r0, r0, r0
     67c:	00039400 	andeq	r9, r3, r0, lsl #8
     680:	0003bb00 	andeq	fp, r3, r0, lsl #22
     684:	51000100 	mrspl	r0, (UNDEF: 16)
     688:	000003bb 			; <UNDEFINED> instruction: 0x000003bb
     68c:	000003dc 	ldrdeq	r0, [r0], -ip
     690:	dc550001 	mrrcle	0, 0, r0, r5, cr1
     694:	e7000003 	str	r0, [r0, -r3]
     698:	01000003 	tsteq	r0, r3
     69c:	03e75100 	mvneq	r5, #0, 2
     6a0:	04080000 	streq	r0, [r8], #-0
     6a4:	00010000 	andeq	r0, r1, r0
     6a8:	00040855 	andeq	r0, r4, r5, asr r8
     6ac:	00041300 	andeq	r1, r4, r0, lsl #6
     6b0:	51000100 	mrspl	r0, (UNDEF: 16)
     6b4:	00000413 	andeq	r0, r0, r3, lsl r4
     6b8:	00000458 	andeq	r0, r0, r8, asr r4
     6bc:	58550001 	ldmdapl	r5, {r0}^
     6c0:	5c000004 	stcpl	0, cr0, [r0], {4}
     6c4:	01000004 	tsteq	r0, r4
     6c8:	045c5100 	ldrbeq	r5, [ip], #-256	; 0x100
     6cc:	046c0000 	strbteq	r0, [ip], #-0
     6d0:	00010000 	andeq	r0, r1, r0
     6d4:	00000055 	andeq	r0, r0, r5, asr r0
     6d8:	00000000 	andeq	r0, r0, r0
     6dc:	00039400 	andeq	r9, r3, r0, lsl #8
     6e0:	0003bb00 	andeq	fp, r3, r0, lsl #22
     6e4:	52000100 	andpl	r0, r0, #0, 2
     6e8:	000003bb 			; <UNDEFINED> instruction: 0x000003bb
     6ec:	000003dc 	ldrdeq	r0, [r0], -ip
     6f0:	dc560001 	mrrcle	0, 0, r0, r6, cr1
     6f4:	e7000003 	str	r0, [r0, -r3]
     6f8:	01000003 	tsteq	r0, r3
     6fc:	03e75200 	mvneq	r5, #0, 4
     700:	04080000 	streq	r0, [r8], #-0
     704:	00010000 	andeq	r0, r1, r0
     708:	00040856 	andeq	r0, r4, r6, asr r8
     70c:	00041300 	andeq	r1, r4, r0, lsl #6
     710:	52000100 	andpl	r0, r0, #0, 2
     714:	00000413 	andeq	r0, r0, r3, lsl r4
     718:	00000458 	andeq	r0, r0, r8, asr r4
     71c:	58560001 	ldmdapl	r6, {r0}^
     720:	5c000004 	stcpl	0, cr0, [r0], {4}
     724:	01000004 	tsteq	r0, r4
     728:	045c5200 	ldrbeq	r5, [ip], #-512	; 0x200
     72c:	046c0000 	strbteq	r0, [ip], #-0
     730:	00010000 	andeq	r0, r1, r0
     734:	00000056 	andeq	r0, r0, r6, asr r0
     738:	00000000 	andeq	r0, r0, r0
     73c:	00039400 	andeq	r9, r3, r0, lsl #8
     740:	0003bb00 	andeq	fp, r3, r0, lsl #22
     744:	53000100 	movwpl	r0, #256	; 0x100
     748:	000003bb 			; <UNDEFINED> instruction: 0x000003bb
     74c:	000003dc 	ldrdeq	r0, [r0], -ip
     750:	dc570001 	mrrcle	0, 0, r0, r7, cr1
     754:	e7000003 	str	r0, [r0, -r3]
     758:	01000003 	tsteq	r0, r3
     75c:	03e75300 	mvneq	r5, #0, 6
     760:	04080000 	streq	r0, [r8], #-0
     764:	00010000 	andeq	r0, r1, r0
     768:	00040857 	andeq	r0, r4, r7, asr r8
     76c:	00041300 	andeq	r1, r4, r0, lsl #6
     770:	53000100 	movwpl	r0, #256	; 0x100
     774:	00000413 	andeq	r0, r0, r3, lsl r4
     778:	00000458 	andeq	r0, r0, r8, asr r4
     77c:	58570001 	ldmdapl	r7, {r0}^
     780:	5c000004 	stcpl	0, cr0, [r0], {4}
     784:	01000004 	tsteq	r0, r4
     788:	045c5300 	ldrbeq	r5, [ip], #-768	; 0x300
     78c:	046c0000 	strbteq	r0, [ip], #-0
     790:	00010000 	andeq	r0, r1, r0
     794:	00046c57 	andeq	r6, r4, r7, asr ip
     798:	00048400 	andeq	r8, r4, r0, lsl #8
     79c:	f3000400 	vshl.u8	d0, d0, d0
     7a0:	009f5301 	addseq	r5, pc, r1, lsl #6
     7a4:	00000000 	andeq	r0, r0, r0
     7a8:	34000000 	strcc	r0, [r0], #-0
     7ac:	58000004 	stmdapl	r0, {r2}
     7b0:	01000004 	tsteq	r0, r4
     7b4:	045c5400 	ldrbeq	r5, [ip], #-1024	; 0x400
     7b8:	046c0000 	strbteq	r0, [ip], #-0
     7bc:	00010000 	andeq	r0, r1, r0
     7c0:	00000054 	andeq	r0, r0, r4, asr r0
     7c4:	00000000 	andeq	r0, r0, r0
     7c8:	00048400 	andeq	r8, r4, r0, lsl #8
     7cc:	00049b00 	andeq	r9, r4, r0, lsl #22
     7d0:	50000100 	andpl	r0, r0, r0, lsl #2
     7d4:	0000049b 	muleq	r0, fp, r4
     7d8:	000004bc 			; <UNDEFINED> instruction: 0x000004bc
     7dc:	bc540001 	mrrclt	0, 0, r0, r4, cr1
     7e0:	c7000004 	strgt	r0, [r0, -r4]
     7e4:	01000004 	tsteq	r0, r4
     7e8:	04c75000 	strbeq	r5, [r7], #0
     7ec:	04e80000 	strbteq	r0, [r8], #0
     7f0:	00010000 	andeq	r0, r1, r0
     7f4:	0004e854 	andeq	lr, r4, r4, asr r8
     7f8:	0004f300 	andeq	pc, r4, r0, lsl #6
     7fc:	50000100 	andpl	r0, r0, r0, lsl #2
     800:	000004f3 	strdeq	r0, [r0], -r3
     804:	00000500 	andeq	r0, r0, r0, lsl #10
     808:	00540001 	subseq	r0, r4, r1
     80c:	18000005 	stmdane	r0, {r0, r2}
     810:	01000005 	tsteq	r0, r5
     814:	00005000 	andeq	r5, r0, r0
     818:	00000000 	andeq	r0, r0, r0
     81c:	04840000 	streq	r0, [r4], #0
     820:	049b0000 	ldreq	r0, [fp], #0
     824:	00010000 	andeq	r0, r1, r0
     828:	00049b51 	andeq	r9, r4, r1, asr fp
     82c:	0004bc00 	andeq	fp, r4, r0, lsl #24
     830:	f3000400 	vshl.u8	d0, d0, d0
     834:	bc9f5101 	ldflts	f5, [pc], {1}
     838:	c7000004 	strgt	r0, [r0, -r4]
     83c:	01000004 	tsteq	r0, r4
     840:	04c75100 	strbeq	r5, [r7], #256	; 0x100
     844:	04e80000 	strbteq	r0, [r8], #0
     848:	00040000 	andeq	r0, r4, r0
     84c:	9f5101f3 	svcls	0x005101f3
     850:	000004e8 	andeq	r0, r0, r8, ror #9
     854:	000004ec 	andeq	r0, r0, ip, ror #9
     858:	ec510001 	mrrc	0, 0, r0, r1, cr1
     85c:	18000004 	stmdane	r0, {r2}
     860:	04000005 	streq	r0, [r0], #-5
     864:	5101f300 	mrspl	pc, SP_irq	; <UNPREDICTABLE>
     868:	0000009f 	muleq	r0, pc, r0	; <UNPREDICTABLE>
     86c:	00000000 	andeq	r0, r0, r0
     870:	0004bc00 	andeq	fp, r4, r0, lsl #24
     874:	0004c700 	andeq	ip, r4, r0, lsl #14
     878:	50000100 	andpl	r0, r0, r0, lsl #2
     87c:	000004c7 	andeq	r0, r0, r7, asr #9
     880:	000004e8 	andeq	r0, r0, r8, ror #9
     884:	e8540001 	ldmda	r4, {r0}^
     888:	f3000004 	vhadd.u8	d0, d0, d4
     88c:	01000004 	tsteq	r0, r4
     890:	04f35000 	ldrbteq	r5, [r3], #0
     894:	05000000 	streq	r0, [r0, #-0]
     898:	00010000 	andeq	r0, r1, r0
     89c:	00050054 	andeq	r0, r5, r4, asr r0
     8a0:	00051800 	andeq	r1, r5, r0, lsl #16
     8a4:	50000100 	andpl	r0, r0, r0, lsl #2
	...
     8b0:	00000518 	andeq	r0, r0, r8, lsl r5
     8b4:	0000052b 	andeq	r0, r0, fp, lsr #10
     8b8:	2b500001 	blcs	14008c4 <__bss_end__+0x13f3efc>
     8bc:	4c000005 	stcmi	0, cr0, [r0], {5}
     8c0:	04000005 	streq	r0, [r0], #-5
     8c4:	5001f300 	andpl	pc, r1, r0, lsl #6
     8c8:	00054c9f 	muleq	r5, pc, ip	; <UNPREDICTABLE>
     8cc:	00055300 	andeq	r5, r5, r0, lsl #6
     8d0:	50000100 	andpl	r0, r0, r0, lsl #2
     8d4:	00000553 	andeq	r0, r0, r3, asr r5
     8d8:	000005a8 	andeq	r0, r0, r8, lsr #11
     8dc:	01f30004 	mvnseq	r0, r4
     8e0:	00009f50 	andeq	r9, r0, r0, asr pc
     8e4:	00000000 	andeq	r0, r0, r0
     8e8:	05540000 	ldrbeq	r0, [r4, #-0]
     8ec:	055f0000 	ldrbeq	r0, [pc, #-0]	; 8f4 <__code_start__-0x770c>
     8f0:	00010000 	andeq	r0, r1, r0
     8f4:	00058050 	andeq	r8, r5, r0, asr r0
     8f8:	00058700 	andeq	r8, r5, r0, lsl #14
     8fc:	50000100 	andpl	r0, r0, r0, lsl #2
	...
     908:	000005c4 	andeq	r0, r0, r4, asr #11
     90c:	000005cf 	andeq	r0, r0, pc, asr #11
     910:	f0500001 			; <UNDEFINED> instruction: 0xf0500001
     914:	fb000005 	blx	932 <__code_start__-0x76ce>
     918:	01000005 	tsteq	r0, r5
     91c:	061c5000 	ldreq	r5, [ip], -r0
     920:	06380000 	ldrteq	r0, [r8], -r0
     924:	00010000 	andeq	r0, r1, r0
     928:	00000050 	andeq	r0, r0, r0, asr r0
     92c:	00000000 	andeq	r0, r0, r0
     930:	00064400 	andeq	r4, r6, r0, lsl #8
     934:	00065700 	andeq	r5, r6, r0, lsl #14
     938:	50000100 	andpl	r0, r0, r0, lsl #2
     93c:	00000678 	andeq	r0, r0, r8, ror r6
     940:	00000683 	andeq	r0, r0, r3, lsl #13
     944:	a4500001 	ldrbge	r0, [r0], #-1
     948:	a7000006 	strge	r0, [r0, -r6]
     94c:	01000006 	tsteq	r0, r6
     950:	00005000 	andeq	r5, r0, r0
     954:	00000000 	andeq	r0, r0, r0
     958:	06d00000 	ldrbeq	r0, [r0], r0
     95c:	06db0000 	ldrbeq	r0, [fp], r0
     960:	00010000 	andeq	r0, r1, r0
     964:	0006fc50 	andeq	pc, r6, r0, asr ip	; <UNPREDICTABLE>
     968:	00070000 	andeq	r0, r7, r0
     96c:	50000100 	andpl	r0, r0, r0, lsl #2
	...
     978:	0000071c 	andeq	r0, r0, ip, lsl r7
     97c:	0000072f 	andeq	r0, r0, pc, lsr #14
     980:	50500001 	subspl	r0, r0, r1
     984:	53000007 	movwpl	r0, #7
     988:	01000007 	tsteq	r0, r7
     98c:	00005000 	andeq	r5, r0, r0
     990:	00000000 	andeq	r0, r0, r0
     994:	07780000 	ldrbeq	r0, [r8, -r0]!
     998:	07830000 	streq	r0, [r3, r0]
     99c:	00010000 	andeq	r0, r1, r0
     9a0:	0007a450 	andeq	sl, r7, r0, asr r4
     9a4:	0007a800 	andeq	sl, r7, r0, lsl #16
     9a8:	50000100 	andpl	r0, r0, r0, lsl #2
	...
     9b4:	000007cc 	andeq	r0, r0, ip, asr #15
     9b8:	000007d3 	ldrdeq	r0, [r0], -r3
     9bc:	d3500001 	cmple	r0, #1
     9c0:	d8000007 	stmdale	r0, {r0, r1, r2}
     9c4:	04000007 	streq	r0, [r0], #-7
     9c8:	5001f300 	andpl	pc, r1, r0, lsl #6
     9cc:	0000009f 	muleq	r0, pc, r0	; <UNPREDICTABLE>
     9d0:	00000000 	andeq	r0, r0, r0
     9d4:	0007d800 	andeq	sp, r7, r0, lsl #16
     9d8:	0007eb00 	andeq	lr, r7, r0, lsl #22
     9dc:	50000100 	andpl	r0, r0, r0, lsl #2
     9e0:	000007eb 	andeq	r0, r0, fp, ror #15
     9e4:	0000080c 	andeq	r0, r0, ip, lsl #16
     9e8:	01f30004 	mvnseq	r0, r4
     9ec:	080c9f50 	stmdaeq	ip, {r4, r6, r8, r9, sl, fp, ip, pc}
     9f0:	08170000 	ldmdaeq	r7, {}	; <UNPREDICTABLE>
     9f4:	00010000 	andeq	r0, r1, r0
     9f8:	00081750 	andeq	r1, r8, r0, asr r7
     9fc:	00083800 	andeq	r3, r8, r0, lsl #16
     a00:	f3000400 	vshl.u8	d0, d0, d0
     a04:	389f5001 	ldmcc	pc, {r0, ip, lr}	; <UNPREDICTABLE>
     a08:	47000008 	strmi	r0, [r0, -r8]
     a0c:	01000008 	tsteq	r0, r8
     a10:	08475000 	stmdaeq	r7, {ip, lr}^
     a14:	08680000 	stmdaeq	r8!, {}^	; <UNPREDICTABLE>
     a18:	00040000 	andeq	r0, r4, r0
     a1c:	9f5001f3 	svcls	0x005001f3
     a20:	00000868 	andeq	r0, r0, r8, ror #16
     a24:	0000086c 	andeq	r0, r0, ip, ror #16
     a28:	6c500001 	mrrcvs	0, 0, r0, r0, cr1	; <UNPREDICTABLE>
     a2c:	94000008 	strls	r0, [r0], #-8
     a30:	04000008 	streq	r0, [r0], #-8
     a34:	5001f300 	andpl	pc, r1, r0, lsl #6
     a38:	0000009f 	muleq	r0, pc, r0	; <UNPREDICTABLE>
     a3c:	00000000 	andeq	r0, r0, r0
     a40:	0007d800 	andeq	sp, r7, r0, lsl #16
     a44:	0007eb00 	andeq	lr, r7, r0, lsl #22
     a48:	51000100 	mrspl	r0, (UNDEF: 16)
     a4c:	000007eb 	andeq	r0, r0, fp, ror #15
     a50:	0000080c 	andeq	r0, r0, ip, lsl #16
     a54:	01f30004 	mvnseq	r0, r4
     a58:	080c9f51 	stmdaeq	ip, {r0, r4, r6, r8, r9, sl, fp, ip, pc}
     a5c:	08170000 	ldmdaeq	r7, {}	; <UNPREDICTABLE>
     a60:	00010000 	andeq	r0, r1, r0
     a64:	00081751 	andeq	r1, r8, r1, asr r7
     a68:	00083800 	andeq	r3, r8, r0, lsl #16
     a6c:	f3000400 	vshl.u8	d0, d0, d0
     a70:	389f5101 	ldmcc	pc, {r0, r8, ip, lr}	; <UNPREDICTABLE>
     a74:	47000008 	strmi	r0, [r0, -r8]
     a78:	01000008 	tsteq	r0, r8
     a7c:	08475100 	stmdaeq	r7, {r8, ip, lr}^
     a80:	08680000 	stmdaeq	r8!, {}^	; <UNPREDICTABLE>
     a84:	00040000 	andeq	r0, r4, r0
     a88:	9f5101f3 	svcls	0x005101f3
     a8c:	00000868 	andeq	r0, r0, r8, ror #16
     a90:	00000870 	andeq	r0, r0, r0, ror r8
     a94:	70510001 	subsvc	r0, r1, r1
     a98:	73000008 	movwvc	r0, #8
     a9c:	03000008 	movweq	r0, #8
     aa0:	9f017300 	svcls	0x00017300
     aa4:	00000873 	andeq	r0, r0, r3, ror r8
     aa8:	00000894 	muleq	r0, r4, r8
     aac:	01f30004 	mvnseq	r0, r4
     ab0:	00009f51 	andeq	r9, r0, r1, asr pc
     ab4:	00000000 	andeq	r0, r0, r0
     ab8:	07d80000 	ldrbeq	r0, [r8, r0]
     abc:	07eb0000 	strbeq	r0, [fp, r0]!
     ac0:	00010000 	andeq	r0, r1, r0
     ac4:	0007eb52 	andeq	lr, r7, r2, asr fp
     ac8:	00080c00 	andeq	r0, r8, r0, lsl #24
     acc:	f3000400 	vshl.u8	d0, d0, d0
     ad0:	0c9f5201 	lfmeq	f5, 4, [pc], {1}
     ad4:	17000008 	strne	r0, [r0, -r8]
     ad8:	01000008 	tsteq	r0, r8
     adc:	08175200 	ldmdaeq	r7, {r9, ip, lr}
     ae0:	08380000 	ldmdaeq	r8!, {}	; <UNPREDICTABLE>
     ae4:	00040000 	andeq	r0, r4, r0
     ae8:	9f5201f3 	svcls	0x005201f3
     aec:	00000838 	andeq	r0, r0, r8, lsr r8
     af0:	00000847 	andeq	r0, r0, r7, asr #16
     af4:	47520001 	ldrbmi	r0, [r2, -r1]
     af8:	68000008 	stmdavs	r0, {r3}
     afc:	04000008 	streq	r0, [r0], #-8
     b00:	5201f300 	andpl	pc, r1, #0, 6
     b04:	0008689f 	muleq	r8, pc, r8	; <UNPREDICTABLE>
     b08:	00087300 	andeq	r7, r8, r0, lsl #6
     b0c:	52000100 	andpl	r0, r0, #0, 2
     b10:	00000873 	andeq	r0, r0, r3, ror r8
     b14:	00000894 	muleq	r0, r4, r8
     b18:	01f30004 	mvnseq	r0, r4
     b1c:	00009f52 	andeq	r9, r0, r2, asr pc
     b20:	00000000 	andeq	r0, r0, r0
     b24:	08940000 	ldmeq	r4, {}	; <UNPREDICTABLE>
     b28:	08a30000 	stmiaeq	r3!, {}	; <UNPREDICTABLE>
     b2c:	00010000 	andeq	r0, r1, r0
     b30:	0008a350 	andeq	sl, r8, r0, asr r3
     b34:	0008dc00 	andeq	sp, r8, r0, lsl #24
     b38:	54000100 	strpl	r0, [r0], #-256	; 0x100
	...
     b48:	00000010 	andeq	r0, r0, r0, lsl r0
     b4c:	10500001 	subsne	r0, r0, r1
     b50:	34000000 	strcc	r0, [r0], #-0
     b54:	01000000 	mrseq	r0, (UNDEF: 0)
     b58:	00005500 	andeq	r5, r0, r0, lsl #10
	...
     b64:	00140000 	andseq	r0, r4, r0
     b68:	00010000 	andeq	r0, r1, r0
     b6c:	00001451 	andeq	r1, r0, r1, asr r4
     b70:	00001700 	andeq	r1, r0, r0, lsl #14
     b74:	50000100 	andpl	r0, r0, r0, lsl #2
     b78:	00000017 	andeq	r0, r0, r7, lsl r0
     b7c:	00000034 	andeq	r0, r0, r4, lsr r0
     b80:	01f30004 	mvnseq	r0, r4
     b84:	00009f51 	andeq	r9, r0, r1, asr pc
	...
     b90:	00170000 	andseq	r0, r7, r0
     b94:	00010000 	andeq	r0, r1, r0
     b98:	00001752 	andeq	r1, r0, r2, asr r7
     b9c:	00003400 	andeq	r3, r0, r0, lsl #8
     ba0:	54000100 	strpl	r0, [r0], #-256	; 0x100
	...
     bac:	00000064 	andeq	r0, r0, r4, rrx
     bb0:	00000083 	andeq	r0, r0, r3, lsl #1
     bb4:	83500001 	cmphi	r0, #1
     bb8:	a4000000 	strge	r0, [r0], #-0
     bbc:	04000000 	streq	r0, [r0], #-0
     bc0:	5001f300 	andpl	pc, r1, r0, lsl #6
     bc4:	0000a49f 	muleq	r0, pc, r4	; <UNPREDICTABLE>
     bc8:	0000b300 	andeq	fp, r0, r0, lsl #6
     bcc:	50000100 	andpl	r0, r0, r0, lsl #2
     bd0:	000000b3 	strheq	r0, [r0], -r3
     bd4:	000000d4 	ldrdeq	r0, [r0], -r4
     bd8:	01f30004 	mvnseq	r0, r4
     bdc:	00d49f50 	sbcseq	r9, r4, r0, asr pc
     be0:	00e30000 	rsceq	r0, r3, r0
     be4:	00010000 	andeq	r0, r1, r0
     be8:	0000e350 	andeq	lr, r0, r0, asr r3
     bec:	00010400 	andeq	r0, r1, r0, lsl #8
     bf0:	f3000400 	vshl.u8	d0, d0, d0
     bf4:	049f5001 	ldreq	r5, [pc], #1	; bfc <__code_start__-0x7404>
     bf8:	13000001 	movwne	r0, #1
     bfc:	01000001 	tsteq	r0, r1
     c00:	01135000 	tsteq	r3, r0
     c04:	01340000 	teqeq	r4, r0
     c08:	00040000 	andeq	r0, r4, r0
     c0c:	9f5001f3 	svcls	0x005001f3
     c10:	00000134 	andeq	r0, r0, r4, lsr r1
     c14:	00000143 	andeq	r0, r0, r3, asr #2
     c18:	43500001 	cmpmi	r0, #1
     c1c:	64000001 	strvs	r0, [r0], #-1
     c20:	04000001 	streq	r0, [r0], #-1
     c24:	5001f300 	andpl	pc, r1, r0, lsl #6
     c28:	0001649f 	muleq	r1, pc, r4	; <UNPREDICTABLE>
     c2c:	00017300 	andeq	r7, r1, r0, lsl #6
     c30:	50000100 	andpl	r0, r0, r0, lsl #2
     c34:	00000173 	andeq	r0, r0, r3, ror r1
     c38:	00000194 	muleq	r0, r4, r1
     c3c:	01f30004 	mvnseq	r0, r4
     c40:	01949f50 	orrseq	r9, r4, r0, asr pc
     c44:	01a30000 			; <UNDEFINED> instruction: 0x01a30000
     c48:	00010000 	andeq	r0, r1, r0
     c4c:	0001a350 	andeq	sl, r1, r0, asr r3
     c50:	0001c400 	andeq	ip, r1, r0, lsl #8
     c54:	f3000400 	vshl.u8	d0, d0, d0
     c58:	c49f5001 	ldrgt	r5, [pc], #1	; c60 <__code_start__-0x73a0>
     c5c:	d3000001 	movwle	r0, #1
     c60:	01000001 	tsteq	r0, r1
     c64:	01d35000 	bicseq	r5, r3, r0
     c68:	01f40000 	mvnseq	r0, r0
     c6c:	00040000 	andeq	r0, r4, r0
     c70:	9f5001f3 	svcls	0x005001f3
     c74:	000001f4 	strdeq	r0, [r0], -r4
     c78:	00000203 	andeq	r0, r0, r3, lsl #4
     c7c:	03500001 	cmpeq	r0, #1
     c80:	24000002 	strcs	r0, [r0], #-2
     c84:	04000002 	streq	r0, [r0], #-2
     c88:	5001f300 	andpl	pc, r1, r0, lsl #6
     c8c:	0002249f 	muleq	r2, pc, r4	; <UNPREDICTABLE>
     c90:	00025c00 	andeq	r5, r2, r0, lsl #24
     c94:	50000100 	andpl	r0, r0, r0, lsl #2
	...
     ca0:	0000025c 	andeq	r0, r0, ip, asr r2
     ca4:	00000267 	andeq	r0, r0, r7, ror #4
     ca8:	67500001 	ldrbvs	r0, [r0, -r1]
     cac:	60000002 	andvs	r0, r0, r2
     cb0:	01000004 	tsteq	r0, r4
     cb4:	00005400 	andeq	r5, r0, r0, lsl #8
     cb8:	00000000 	andeq	r0, r0, r0
     cbc:	04680000 	strbteq	r0, [r8], #-0
     cc0:	04740000 	ldrbteq	r0, [r4], #-0
     cc4:	00010000 	andeq	r0, r1, r0
     cc8:	00047450 	andeq	r7, r4, r0, asr r4
     ccc:	0004b400 	andeq	fp, r4, r0, lsl #8
     cd0:	54000100 	strpl	r0, [r0], #-256	; 0x100
	...
     cdc:	000004b4 			; <UNDEFINED> instruction: 0x000004b4
     ce0:	000004cb 	andeq	r0, r0, fp, asr #9
     ce4:	cb500001 	blgt	1400cf0 <__bss_end__+0x13f4328>
     ce8:	ec000004 	stc	0, cr0, [r0], {4}
     cec:	04000004 	streq	r0, [r0], #-4
     cf0:	5001f300 	andpl	pc, r1, r0, lsl #6
     cf4:	0004ec9f 	muleq	r4, pc, ip	; <UNPREDICTABLE>
     cf8:	0004ff00 	andeq	pc, r4, r0, lsl #30
     cfc:	50000100 	andpl	r0, r0, r0, lsl #2
     d00:	000004ff 	strdeq	r0, [r0], -pc	; <UNPREDICTABLE>
     d04:	00000520 	andeq	r0, r0, r0, lsr #10
     d08:	01f30004 	mvnseq	r0, r4
     d0c:	05209f50 	streq	r9, [r0, #-3920]!	; 0xf50
     d10:	052f0000 	streq	r0, [pc, #-0]!	; d18 <__code_start__-0x72e8>
     d14:	00010000 	andeq	r0, r1, r0
     d18:	00052f50 	andeq	r2, r5, r0, asr pc
     d1c:	00055000 	andeq	r5, r5, r0
     d20:	f3000400 	vshl.u8	d0, d0, d0
     d24:	509f5001 	addspl	r5, pc, r1
     d28:	5f000005 	svcpl	0x00000005
     d2c:	01000005 	tsteq	r0, r5
     d30:	055f5000 	ldrbeq	r5, [pc, #-0]	; d38 <__code_start__-0x72c8>
     d34:	05800000 	streq	r0, [r0]
     d38:	00040000 	andeq	r0, r4, r0
     d3c:	9f5001f3 	svcls	0x005001f3
     d40:	00000580 	andeq	r0, r0, r0, lsl #11
     d44:	0000058f 	andeq	r0, r0, pc, lsl #11
     d48:	8f500001 	svchi	0x00500001
     d4c:	b0000005 	andlt	r0, r0, r5
     d50:	04000005 	streq	r0, [r0], #-5
     d54:	5001f300 	andpl	pc, r1, r0, lsl #6
     d58:	0005b09f 	muleq	r5, pc, r0	; <UNPREDICTABLE>
     d5c:	0005bf00 	andeq	fp, r5, r0, lsl #30
     d60:	50000100 	andpl	r0, r0, r0, lsl #2
     d64:	000005bf 			; <UNDEFINED> instruction: 0x000005bf
     d68:	000005e0 	andeq	r0, r0, r0, ror #11
     d6c:	01f30004 	mvnseq	r0, r4
     d70:	05e09f50 	strbeq	r9, [r0, #3920]!	; 0xf50
     d74:	05ef0000 	strbeq	r0, [pc, #0]!	; d7c <__code_start__-0x7284>
     d78:	00010000 	andeq	r0, r1, r0
     d7c:	0005ef50 	andeq	lr, r5, r0, asr pc
     d80:	00061000 	andeq	r1, r6, r0
     d84:	f3000400 	vshl.u8	d0, d0, d0
     d88:	109f5001 	addsne	r5, pc, r1
     d8c:	1f000006 	svcne	0x00000006
     d90:	01000006 	tsteq	r0, r6
     d94:	061f5000 	ldreq	r5, [pc], -r0
     d98:	06400000 	strbeq	r0, [r0], -r0
     d9c:	00040000 	andeq	r0, r4, r0
     da0:	9f5001f3 	svcls	0x005001f3
     da4:	00000640 	andeq	r0, r0, r0, asr #12
     da8:	00000674 	andeq	r0, r0, r4, ror r6
     dac:	00500001 	subseq	r0, r0, r1
     db0:	00000000 	andeq	r0, r0, r0
     db4:	30000000 	andcc	r0, r0, r0
     db8:	3c000007 	stccc	0, cr0, [r0], {7}
     dbc:	01000007 	tsteq	r0, r7
     dc0:	073c5000 	ldreq	r5, [ip, -r0]!
     dc4:	09000000 	stmdbeq	r0, {}	; <UNPREDICTABLE>
     dc8:	00010000 	andeq	r0, r1, r0
     dcc:	00000054 	andeq	r0, r0, r4, asr r0
     dd0:	00000000 	andeq	r0, r0, r0
     dd4:	00003400 	andeq	r3, r0, r0, lsl #8
     dd8:	00004c00 	andeq	r4, r0, r0, lsl #24
     ddc:	50000100 	andpl	r0, r0, r0, lsl #2
     de0:	0000004c 	andeq	r0, r0, ip, asr #32
     de4:	00000104 	andeq	r0, r0, r4, lsl #2
     de8:	04560001 	ldrbeq	r0, [r6], #-1
     dec:	24000001 	strcs	r0, [r0], #-1
     df0:	04000001 	streq	r0, [r0], #-1
     df4:	5001f300 	andpl	pc, r1, r0, lsl #6
     df8:	0000009f 	muleq	r0, pc, r0	; <UNPREDICTABLE>
     dfc:	00000000 	andeq	r0, r0, r0
     e00:	00003400 	andeq	r3, r0, r0, lsl #8
     e04:	00004f00 	andeq	r4, r0, r0, lsl #30
     e08:	51000100 	mrspl	r0, (UNDEF: 16)
     e0c:	0000004f 	andeq	r0, r0, pc, asr #32
     e10:	00000104 	andeq	r0, r0, r4, lsl #2
     e14:	04540001 	ldrbeq	r0, [r4], #-1
     e18:	24000001 	strcs	r0, [r0], #-1
     e1c:	04000001 	streq	r0, [r0], #-1
     e20:	5101f300 	mrspl	pc, SP_irq	; <UNPREDICTABLE>
     e24:	0000009f 	muleq	r0, pc, r0	; <UNPREDICTABLE>
     e28:	00000000 	andeq	r0, r0, r0
     e2c:	00003400 	andeq	r3, r0, r0, lsl #8
     e30:	00004f00 	andeq	r4, r0, r0, lsl #30
     e34:	52000100 	andpl	r0, r0, #0, 2
     e38:	0000004f 	andeq	r0, r0, pc, asr #32
     e3c:	00000104 	andeq	r0, r0, r4, lsl #2
     e40:	04550001 	ldrbeq	r0, [r5], #-1
     e44:	24000001 	strcs	r0, [r0], #-1
     e48:	04000001 	streq	r0, [r0], #-1
     e4c:	5201f300 	andpl	pc, r1, #0, 6
     e50:	0000009f 	muleq	r0, pc, r0	; <UNPREDICTABLE>
     e54:	00000000 	andeq	r0, r0, r0
     e58:	00012400 	andeq	r2, r1, r0, lsl #8
     e5c:	00013300 	andeq	r3, r1, r0, lsl #6
     e60:	50000100 	andpl	r0, r0, r0, lsl #2
     e64:	00000133 	andeq	r0, r0, r3, lsr r1
     e68:	000001b4 			; <UNDEFINED> instruction: 0x000001b4
     e6c:	b4540001 	ldrblt	r0, [r4], #-1
     e70:	c8000001 	stmdagt	r0, {r0}
     e74:	04000001 	streq	r0, [r0], #-1
     e78:	5001f300 	andpl	pc, r1, r0, lsl #6
     e7c:	0000009f 	muleq	r0, pc, r0	; <UNPREDICTABLE>
     e80:	00000000 	andeq	r0, r0, r0
     e84:	00013400 	andeq	r3, r1, r0, lsl #8
     e88:	00014b00 	andeq	r4, r1, r0, lsl #22
     e8c:	50000100 	andpl	r0, r0, r0, lsl #2
     e90:	0000016c 	andeq	r0, r0, ip, ror #2
     e94:	00000177 	andeq	r0, r0, r7, ror r1
     e98:	98500001 	ldmdals	r0, {r0}^
     e9c:	ac000001 	stcge	0, cr0, [r0], {1}
     ea0:	01000001 	tsteq	r0, r1
     ea4:	00005000 	andeq	r5, r0, r0
     ea8:	00000000 	andeq	r0, r0, r0
     eac:	01400000 	mrseq	r0, (UNDEF: 64)
     eb0:	014b0000 	mrseq	r0, (UNDEF: 75)
     eb4:	00010000 	andeq	r0, r1, r0
     eb8:	00014b52 	andeq	r4, r1, r2, asr fp
     ebc:	00016c00 	andeq	r6, r1, r0, lsl #24
     ec0:	74000500 	strvc	r0, [r0], #-1280	; 0x500
     ec4:	9f243101 	svcls	0x00243101
     ec8:	0000016c 	andeq	r0, r0, ip, ror #2
     ecc:	00000177 	andeq	r0, r0, r7, ror r1
     ed0:	77520001 	ldrbvc	r0, [r2, -r1]
     ed4:	98000001 	stmdals	r0, {r0}
     ed8:	05000001 	streq	r0, [r0, #-1]
     edc:	31017400 	tstcc	r1, r0, lsl #8
     ee0:	01989f24 	orrseq	r9, r8, r4, lsr #30
     ee4:	019c0000 	orrseq	r0, ip, r0
     ee8:	00010000 	andeq	r0, r1, r0
     eec:	00019c52 	andeq	r9, r1, r2, asr ip
     ef0:	0001b400 	andeq	fp, r1, r0, lsl #8
     ef4:	74000500 	strvc	r0, [r0], #-1280	; 0x500
     ef8:	9f243101 	svcls	0x00243101
     efc:	000001b4 			; <UNDEFINED> instruction: 0x000001b4
     f00:	000001c8 	andeq	r0, r0, r8, asr #3
     f04:	01f30008 	mvnseq	r0, r8
     f08:	31012350 	tstcc	r1, r0, asr r3
     f0c:	00009f24 	andeq	r9, r0, r4, lsr #30
     f10:	00000000 	andeq	r0, r0, r0
     f14:	01400000 	mrseq	r0, (UNDEF: 64)
     f18:	014b0000 	mrseq	r0, (UNDEF: 75)
     f1c:	00010000 	andeq	r0, r1, r0
     f20:	00014b53 	andeq	r4, r1, r3, asr fp
     f24:	00016c00 	andeq	r6, r1, r0, lsl #24
     f28:	74000500 	strvc	r0, [r0], #-1280	; 0x500
     f2c:	9f243100 	svcls	0x00243100
     f30:	0000016c 	andeq	r0, r0, ip, ror #2
     f34:	00000177 	andeq	r0, r0, r7, ror r1
     f38:	77530001 	ldrbvc	r0, [r3, -r1]
     f3c:	98000001 	stmdals	r0, {r0}
     f40:	05000001 	streq	r0, [r0, #-1]
     f44:	31007400 	tstcc	r0, r0, lsl #8
     f48:	01989f24 	orrseq	r9, r8, r4, lsr #30
     f4c:	01c80000 	biceq	r0, r8, r0
     f50:	00010000 	andeq	r0, r1, r0
     f54:	00000053 	andeq	r0, r0, r3, asr r0
     f58:	00000000 	andeq	r0, r0, r0
     f5c:	00014000 	andeq	r4, r1, r0
     f60:	00014b00 	andeq	r4, r1, r0, lsl #22
     f64:	50000100 	andpl	r0, r0, r0, lsl #2
     f68:	0000016c 	andeq	r0, r0, ip, ror #2
     f6c:	00000177 	andeq	r0, r0, r7, ror r1
     f70:	98500001 	ldmdals	r0, {r0}^
     f74:	ac000001 	stcge	0, cr0, [r0], {1}
     f78:	01000001 	tsteq	r0, r1
     f7c:	00005000 	andeq	r5, r0, r0
     f80:	00000000 	andeq	r0, r0, r0
     f84:	01a00000 	moveq	r0, r0
     f88:	01a80000 			; <UNDEFINED> instruction: 0x01a80000
     f8c:	00010000 	andeq	r0, r1, r0
     f90:	0001a852 	andeq	sl, r1, r2, asr r8
     f94:	0001b400 	andeq	fp, r1, r0, lsl #8
     f98:	74000a00 	strvc	r0, [r0], #-2560	; 0xa00
     f9c:	73243101 	teqvc	r4, #1073741824	; 0x40000000
     fa0:	01231c00 	teqeq	r3, r0, lsl #24
     fa4:	0001b49f 	muleq	r1, pc, r4	; <UNPREDICTABLE>
     fa8:	0001c800 	andeq	ip, r1, r0, lsl #16
     fac:	f3000d00 	vpadd.f32	d0, d0, d0
     fb0:	01235001 	teqeq	r3, r1
     fb4:	00732431 	rsbseq	r2, r3, r1, lsr r4
     fb8:	9f01231c 	svcls	0x0001231c
	...
     fc4:	000001c8 	andeq	r0, r0, r8, asr #3
     fc8:	000001e3 	andeq	r0, r0, r3, ror #3
     fcc:	e3500001 	cmp	r0, #1
     fd0:	04000001 	streq	r0, [r0], #-1
     fd4:	01000002 	tsteq	r0, r2
     fd8:	02045400 	andeq	r5, r4, #0, 8
     fdc:	020f0000 	andeq	r0, pc, #0
     fe0:	00010000 	andeq	r0, r1, r0
     fe4:	00020f50 	andeq	r0, r2, r0, asr pc
     fe8:	00023000 	andeq	r3, r2, r0
     fec:	54000100 	strpl	r0, [r0], #-256	; 0x100
     ff0:	00000230 	andeq	r0, r0, r0, lsr r2
     ff4:	00000233 	andeq	r0, r0, r3, lsr r2
     ff8:	33500001 	cmpcc	r0, #1
     ffc:	38000002 	stmdacc	r0, {r1}
    1000:	01000002 	tsteq	r0, r2
    1004:	02385400 	eorseq	r5, r8, #0, 8
    1008:	02640000 	rsbeq	r0, r4, #0
    100c:	00040000 	andeq	r0, r4, r0
    1010:	9f5001f3 	svcls	0x005001f3
	...
    101c:	000001c8 	andeq	r0, r0, r8, asr #3
    1020:	000001e3 	andeq	r0, r0, r3, ror #3
    1024:	e3510001 	cmp	r1, #1
    1028:	04000001 	streq	r0, [r0], #-1
    102c:	01000002 	tsteq	r0, r2
    1030:	02045500 	andeq	r5, r4, #0, 10
    1034:	020f0000 	andeq	r0, pc, #0
    1038:	00010000 	andeq	r0, r1, r0
    103c:	00020f51 	andeq	r0, r2, r1, asr pc
    1040:	00023000 	andeq	r3, r2, r0
    1044:	55000100 	strpl	r0, [r0, #-256]	; 0x100
    1048:	00000230 	andeq	r0, r0, r0, lsr r2
    104c:	00000233 	andeq	r0, r0, r3, lsr r2
    1050:	33510001 	cmpcc	r1, #1
    1054:	50000002 	andpl	r0, r0, r2
    1058:	01000002 	tsteq	r0, r2
    105c:	02505500 	subseq	r5, r0, #0, 10
    1060:	02640000 	rsbeq	r0, r4, #0
    1064:	00040000 	andeq	r0, r4, r0
    1068:	9f5101f3 	svcls	0x005101f3
	...
    1074:	00000240 	andeq	r0, r0, r0, asr #4
    1078:	00000244 	andeq	r0, r0, r4, asr #4
    107c:	00750009 	rsbseq	r0, r5, r9
    1080:	70240074 	eorvc	r0, r4, r4, ror r0
    1084:	449f2100 	ldrmi	r2, [pc], #256	; 108c <__code_start__-0x6f74>
    1088:	47000002 	strmi	r0, [r0, -r2]
    108c:	01000002 	tsteq	r0, r2
    1090:	00005000 	andeq	r5, r0, r0
    1094:	00000000 	andeq	r0, r0, r0
    1098:	02780000 	rsbseq	r0, r8, #0
    109c:	02900000 	addseq	r0, r0, #0
    10a0:	00010000 	andeq	r0, r1, r0
    10a4:	00029050 	andeq	r9, r2, r0, asr r0
    10a8:	00058400 	andeq	r8, r5, r0, lsl #8
    10ac:	56000100 	strpl	r0, [r0], -r0, lsl #2
    10b0:	00000584 	andeq	r0, r0, r4, lsl #11
    10b4:	000005f0 	strdeq	r0, [r0], -r0	; <UNPREDICTABLE>
    10b8:	01f30004 	mvnseq	r0, r4
    10bc:	00009f50 	andeq	r9, r0, r0, asr pc
    10c0:	00000000 	andeq	r0, r0, r0
    10c4:	02a00000 	adceq	r0, r0, #0
    10c8:	05840000 	streq	r0, [r4]
    10cc:	00010000 	andeq	r0, r1, r0
    10d0:	00000054 	andeq	r0, r0, r4, asr r0
    10d4:	00000000 	andeq	r0, r0, r0
    10d8:	00028c00 	andeq	r8, r2, r0, lsl #24
    10dc:	00058400 	andeq	r8, r5, r0, lsl #8
    10e0:	55000100 	strpl	r0, [r0, #-256]	; 0x100
	...
    10ec:	000005f0 	strdeq	r0, [r0], -r0	; <UNPREDICTABLE>
    10f0:	000005f7 	strdeq	r0, [r0], -r7
    10f4:	f7500001 			; <UNDEFINED> instruction: 0xf7500001
    10f8:	20000005 	andcs	r0, r0, r5
    10fc:	04000006 	streq	r0, [r0], #-6
    1100:	5001f300 	andpl	pc, r1, r0, lsl #6
    1104:	0000009f 	muleq	r0, pc, r0	; <UNPREDICTABLE>
    1108:	00000000 	andeq	r0, r0, r0
    110c:	00086800 	andeq	r6, r8, r0, lsl #16
    1110:	00088300 	andeq	r8, r8, r0, lsl #6
    1114:	50000100 	andpl	r0, r0, r0, lsl #2
    1118:	00000883 	andeq	r0, r0, r3, lsl #17
    111c:	000008a4 	andeq	r0, r0, r4, lsr #17
    1120:	01f30004 	mvnseq	r0, r4
    1124:	08a49f50 	stmiaeq	r4!, {r4, r6, r8, r9, sl, fp, ip, pc}
    1128:	08ac0000 	stmiaeq	ip!, {}	; <UNPREDICTABLE>
    112c:	00010000 	andeq	r0, r1, r0
    1130:	0008ac50 	andeq	sl, r8, r0, asr ip
    1134:	0008b400 	andeq	fp, r8, r0, lsl #8
    1138:	52000100 	andpl	r0, r0, #0, 2
    113c:	000008b4 			; <UNDEFINED> instruction: 0x000008b4
    1140:	000008bb 			; <UNDEFINED> instruction: 0x000008bb
    1144:	bb510001 	bllt	1441150 <__bss_end__+0x1434788>
    1148:	d8000008 	stmdale	r0, {r3}
    114c:	04000008 	streq	r0, [r0], #-8
    1150:	5001f300 	andpl	pc, r1, r0, lsl #6
    1154:	0000009f 	muleq	r0, pc, r0	; <UNPREDICTABLE>
    1158:	00000000 	andeq	r0, r0, r0
    115c:	0008d800 	andeq	sp, r8, r0, lsl #16
    1160:	0008f300 	andeq	pc, r8, r0, lsl #6
    1164:	50000100 	andpl	r0, r0, r0, lsl #2
    1168:	000008f3 	strdeq	r0, [r0], -r3
    116c:	00000914 	andeq	r0, r0, r4, lsl r9
    1170:	01f30004 	mvnseq	r0, r4
    1174:	09149f50 	ldmdbeq	r4, {r4, r6, r8, r9, sl, fp, ip, pc}
    1178:	091c0000 	ldmdbeq	ip, {}	; <UNPREDICTABLE>
    117c:	00010000 	andeq	r0, r1, r0
    1180:	00091c50 	andeq	r1, r9, r0, asr ip
    1184:	00092400 	andeq	r2, r9, r0, lsl #8
    1188:	52000100 	andpl	r0, r0, #0, 2
    118c:	00000924 	andeq	r0, r0, r4, lsr #18
    1190:	0000092b 	andeq	r0, r0, fp, lsr #18
    1194:	2b510001 	blcs	14411a0 <__bss_end__+0x14347d8>
    1198:	4c000009 	stcmi	0, cr0, [r0], {9}
    119c:	04000009 	streq	r0, [r0], #-9
    11a0:	5001f300 	andpl	pc, r1, r0, lsl #6
    11a4:	0000009f 	muleq	r0, pc, r0	; <UNPREDICTABLE>
    11a8:	00000000 	andeq	r0, r0, r0
    11ac:	00094c00 	andeq	r4, r9, r0, lsl #24
    11b0:	00095400 	andeq	r5, r9, r0, lsl #8
    11b4:	50000100 	andpl	r0, r0, r0, lsl #2
    11b8:	00000954 	andeq	r0, r0, r4, asr r9
    11bc:	00000960 	andeq	r0, r0, r0, ror #18
    11c0:	00710005 	rsbseq	r0, r1, r5
    11c4:	609f2444 	addsvs	r2, pc, r4, asr #8
    11c8:	67000009 	strvs	r0, [r0, -r9]
    11cc:	01000009 	tsteq	r0, r9
    11d0:	09675100 	stmdbeq	r7!, {r8, ip, lr}^
    11d4:	09700000 	ldmdbeq	r0!, {}^	; <UNPREDICTABLE>
    11d8:	00080000 	andeq	r0, r8, r0
    11dc:	445001f3 	ldrbmi	r0, [r0], #-499	; 0x1f3
    11e0:	9f244425 	svcls	0x00244425
	...
    11f0:	00000024 	andeq	r0, r0, r4, lsr #32
    11f4:	24500001 	ldrbcs	r0, [r0], #-1
    11f8:	e4000000 	str	r0, [r0], #-0
    11fc:	04000000 	streq	r0, [r0], #-0
    1200:	5001f300 	andpl	pc, r1, r0, lsl #6
    1204:	0000e49f 	muleq	r0, pc, r4	; <UNPREDICTABLE>
    1208:	0000e800 	andeq	lr, r0, r0, lsl #16
    120c:	50000100 	andpl	r0, r0, r0, lsl #2
    1210:	000000e8 	andeq	r0, r0, r8, ror #1
    1214:	000000f0 	strdeq	r0, [r0], -r0	; <UNPREDICTABLE>
    1218:	01f30004 	mvnseq	r0, r4
    121c:	00009f50 	andeq	r9, r0, r0, asr pc
	...
    1228:	00200000 	eoreq	r0, r0, r0
    122c:	00010000 	andeq	r0, r1, r0
    1230:	00002051 	andeq	r2, r0, r1, asr r0
    1234:	00008000 	andeq	r8, r0, r0
    1238:	51000100 	mrspl	r0, (UNDEF: 16)
    123c:	0000009c 	muleq	r0, ip, r0
    1240:	000000a0 	andeq	r0, r0, r0, lsr #1
    1244:	b8510001 	ldmdalt	r1, {r0}^
    1248:	c8000000 	stmdagt	r0, {}	; <UNPREDICTABLE>
    124c:	01000000 	mrseq	r0, (UNDEF: 0)
    1250:	00e45100 	rsceq	r5, r4, r0, lsl #2
    1254:	00e80000 	rsceq	r0, r8, r0
    1258:	00010000 	andeq	r0, r1, r0
    125c:	00000051 	andeq	r0, r0, r1, asr r0
    1260:	00000000 	andeq	r0, r0, r0
    1264:	00000400 	andeq	r0, r0, r0, lsl #8
    1268:	00002400 	andeq	r2, r0, r0, lsl #8
    126c:	50000100 	andpl	r0, r0, r0, lsl #2
    1270:	00000024 	andeq	r0, r0, r4, lsr #32
    1274:	00000090 	muleq	r0, r0, r0
    1278:	9c530001 	mrrcls	0, 0, r0, r3, cr1
    127c:	a4000000 	strge	r0, [r0], #-0
    1280:	01000000 	mrseq	r0, (UNDEF: 0)
    1284:	00b85300 	adcseq	r5, r8, r0, lsl #6
    1288:	00bc0000 	adcseq	r0, ip, r0
    128c:	00010000 	andeq	r0, r1, r0
    1290:	0000e453 	andeq	lr, r0, r3, asr r4
    1294:	0000e800 	andeq	lr, r0, r0, lsl #16
    1298:	50000100 	andpl	r0, r0, r0, lsl #2
	...
    12a4:	00000008 	andeq	r0, r0, r8
    12a8:	00000020 	andeq	r0, r0, r0, lsr #32
    12ac:	20510001 	subscs	r0, r1, r1
    12b0:	34000000 	strcc	r0, [r0], #-0
    12b4:	01000000 	mrseq	r0, (UNDEF: 0)
    12b8:	00345200 	eorseq	r5, r4, r0, lsl #4
    12bc:	00480000 	subeq	r0, r8, r0
    12c0:	00010000 	andeq	r0, r1, r0
    12c4:	00004850 	andeq	r4, r0, r0, asr r8
    12c8:	0000cc00 	andeq	ip, r0, r0, lsl #24
    12cc:	52000100 	andpl	r0, r0, #0, 2
    12d0:	000000cc 	andeq	r0, r0, ip, asr #1
    12d4:	000000e0 	andeq	r0, r0, r0, ror #1
    12d8:	e4500001 	ldrb	r0, [r0], #-1
    12dc:	e8000000 	stmda	r0, {}	; <UNPREDICTABLE>
    12e0:	01000000 	mrseq	r0, (UNDEF: 0)
    12e4:	00005100 	andeq	r5, r0, r0, lsl #2
    12e8:	00000000 	andeq	r0, r0, r0
    12ec:	00440000 	subeq	r0, r4, r0
    12f0:	00480000 	subeq	r0, r8, r0
    12f4:	00010000 	andeq	r0, r1, r0
    12f8:	00004852 	andeq	r4, r0, r2, asr r8
    12fc:	00004c00 	andeq	r4, r0, r0, lsl #24
    1300:	7c001200 	sfmvc	f1, 4, [r0], {-0}
    1304:	73243800 	teqvc	r4, #0, 16
    1308:	08019402 	stmdaeq	r1, {r1, sl, ip, pc}
    130c:	3b221aff 	blcc	887f10 <__bss_end__+0x87b548>
    1310:	27007024 	strcs	r7, [r0, -r4, lsr #32]
    1314:	00004c9f 	muleq	r0, pc, ip	; <UNPREDICTABLE>
    1318:	00005400 	andeq	r5, r0, r0, lsl #8
    131c:	7c001200 	sfmvc	f1, 4, [r0], {-0}
    1320:	73243800 	teqvc	r4, #0, 16
    1324:	0801947e 	stmdaeq	r1, {r1, r2, r3, r4, r5, r6, sl, ip, pc}
    1328:	3b221aff 	blcc	887f2c <__bss_end__+0x87b564>
    132c:	27007024 	strcs	r7, [r0, -r4, lsr #32]
    1330:	0000009f 	muleq	r0, pc, r0	; <UNPREDICTABLE>
    1334:	00000000 	andeq	r0, r0, r0
    1338:	00001c00 	andeq	r1, r0, r0, lsl #24
    133c:	0000e400 	andeq	lr, r0, r0, lsl #8
    1340:	54000100 	strpl	r0, [r0], #-256	; 0x100
	...
    1350:	00000004 	andeq	r0, r0, r4
    1354:	04520001 	ldrbeq	r0, [r2], #-1
    1358:	20000000 	andcs	r0, r0, r0
    135c:	04000000 	streq	r0, [r0], #-0
    1360:	5201f300 	andpl	pc, r1, #0, 6
    1364:	0000009f 	muleq	r0, pc, r0	; <UNPREDICTABLE>
	...
    1370:	00000c00 	andeq	r0, r0, r0, lsl #24
    1374:	50000100 	andpl	r0, r0, r0, lsl #2
    1378:	0000000c 	andeq	r0, r0, ip
    137c:	00000014 	andeq	r0, r0, r4, lsl r0
    1380:	01730003 	cmneq	r3, r3
    1384:	0000149f 	muleq	r0, pc, r4	; <UNPREDICTABLE>
    1388:	00002000 	andeq	r2, r0, r0
    138c:	53000100 	movwpl	r0, #256	; 0x100
	...
    1398:	0000002c 	andeq	r0, r0, ip, lsr #32
    139c:	00000038 	andeq	r0, r0, r8, lsr r0
    13a0:	38500001 	ldmdacc	r0, {r0}^
    13a4:	48000000 	stmdami	r0, {}	; <UNPREDICTABLE>
    13a8:	01000000 	mrseq	r0, (UNDEF: 0)
    13ac:	00485500 	subeq	r5, r8, r0, lsl #10
    13b0:	00580000 	subseq	r0, r8, r0
    13b4:	00010000 	andeq	r0, r1, r0
    13b8:	00000050 	andeq	r0, r0, r0, asr r0
	...
    13c4:	00000b00 	andeq	r0, r0, r0, lsl #22
    13c8:	50000100 	andpl	r0, r0, r0, lsl #2
    13cc:	0000000b 	andeq	r0, r0, fp
    13d0:	00000014 	andeq	r0, r0, r4, lsl r0
    13d4:	00540001 	subseq	r0, r4, r1
	...
    13e0:	10000000 	andne	r0, r0, r0
    13e4:	01000000 	mrseq	r0, (UNDEF: 0)
    13e8:	00105000 	andseq	r5, r0, r0
    13ec:	00340000 	eorseq	r0, r4, r0
    13f0:	00010000 	andeq	r0, r1, r0
    13f4:	00000054 	andeq	r0, r0, r4, asr r0
	...
    1400:	00000400 	andeq	r0, r0, r0, lsl #8
    1404:	50000100 	andpl	r0, r0, r0, lsl #2
    1408:	00000004 	andeq	r0, r0, r4
    140c:	0000000c 	andeq	r0, r0, ip
    1410:	30700003 	rsbscc	r0, r0, r3
    1414:	00000c9f 	muleq	r0, pc, ip	; <UNPREDICTABLE>
    1418:	00001400 	andeq	r1, r0, r0, lsl #8
    141c:	f3000400 	vshl.u8	d0, d0, d0
    1420:	009f5001 	addseq	r5, pc, r1
    1424:	00000000 	andeq	r0, r0, r0
    1428:	14000000 	strne	r0, [r0], #-0
    142c:	20000000 	andcs	r0, r0, r0
    1430:	01000000 	mrseq	r0, (UNDEF: 0)
    1434:	00205000 	eoreq	r5, r0, r0
    1438:	002c0000 	eoreq	r0, ip, r0
    143c:	00030000 	andeq	r0, r3, r0
    1440:	2c9f0170 	ldfcss	f0, [pc], {112}	; 0x70
    1444:	40000000 	andmi	r0, r0, r0
    1448:	01000000 	mrseq	r0, (UNDEF: 0)
    144c:	00005000 	andeq	r5, r0, r0
    1450:	00000000 	andeq	r0, r0, r0
    1454:	00140000 	andseq	r0, r4, r0
    1458:	00180000 	andseq	r0, r8, r0
    145c:	00010000 	andeq	r0, r1, r0
    1460:	00001851 	andeq	r1, r0, r1, asr r8
    1464:	00004000 	andeq	r4, r0, r0
    1468:	f3000400 	vshl.u8	d0, d0, d0
    146c:	009f5101 	addseq	r5, pc, r1, lsl #2
    1470:	00000000 	andeq	r0, r0, r0
    1474:	40000000 	andmi	r0, r0, r0
    1478:	60000000 	andvs	r0, r0, r0
    147c:	01000000 	mrseq	r0, (UNDEF: 0)
    1480:	00605000 	rsbeq	r5, r0, r0
    1484:	006c0000 	rsbeq	r0, ip, r0
    1488:	00030000 	andeq	r0, r3, r0
    148c:	6c9f0171 	ldfvss	f0, [pc], {113}	; 0x71
    1490:	74000000 	strvc	r0, [r0], #-0
    1494:	01000000 	mrseq	r0, (UNDEF: 0)
    1498:	00745100 	rsbseq	r5, r4, r0, lsl #2
    149c:	00800000 	addeq	r0, r0, r0
    14a0:	00030000 	andeq	r0, r3, r0
    14a4:	009f0171 	addseq	r0, pc, r1, ror r1	; <UNPREDICTABLE>
    14a8:	00000000 	andeq	r0, r0, r0
    14ac:	40000000 	andmi	r0, r0, r0
    14b0:	50000000 	andpl	r0, r0, r0
    14b4:	01000000 	mrseq	r0, (UNDEF: 0)
    14b8:	00505100 	subseq	r5, r0, r0, lsl #2
    14bc:	00800000 	addeq	r0, r0, r0
    14c0:	00040000 	andeq	r0, r4, r0
    14c4:	9f5101f3 	svcls	0x005101f3
	...
    14d0:	00000040 	andeq	r0, r0, r0, asr #32
    14d4:	00000058 	andeq	r0, r0, r8, asr r0
    14d8:	58520001 	ldmdapl	r2, {r0}^
    14dc:	64000000 	strvs	r0, [r0], #-0
    14e0:	01000000 	mrseq	r0, (UNDEF: 0)
    14e4:	00645200 	rsbeq	r5, r4, r0, lsl #4
    14e8:	00680000 	rsbeq	r0, r8, r0
    14ec:	00030000 	andeq	r0, r3, r0
    14f0:	689f0172 	ldmvs	pc, {r1, r4, r5, r6, r8}	; <UNPREDICTABLE>
    14f4:	80000000 	andhi	r0, r0, r0
    14f8:	01000000 	mrseq	r0, (UNDEF: 0)
    14fc:	00005200 	andeq	r5, r0, r0, lsl #4
    1500:	00000000 	andeq	r0, r0, r0
    1504:	00400000 	subeq	r0, r0, r0
    1508:	00540000 	subseq	r0, r4, r0
    150c:	00010000 	andeq	r0, r1, r0
    1510:	00005453 	andeq	r5, r0, r3, asr r4
    1514:	00007800 	andeq	r7, r0, r0, lsl #16
    1518:	53000100 	movwpl	r0, #256	; 0x100
	...
    1524:	00000048 	andeq	r0, r0, r8, asr #32
    1528:	00000060 	andeq	r0, r0, r0, rrx
    152c:	605c0001 	subsvs	r0, ip, r1
    1530:	80000000 	andhi	r0, r0, r0
    1534:	0a000000 	beq	153c <__code_start__-0x6ac4>
    1538:	5201f300 	andpl	pc, r1, #0, 6
    153c:	1c5301f3 	ldfnee	f0, [r3], {243}	; 0xf3
    1540:	009f0123 	addseq	r0, pc, r3, lsr #2
    1544:	00000000 	andeq	r0, r0, r0
    1548:	80000000 	andhi	r0, r0, r0
    154c:	a4000000 	strge	r0, [r0], #-0
    1550:	01000000 	mrseq	r0, (UNDEF: 0)
    1554:	00a45000 	adceq	r5, r4, r0
    1558:	01180000 	tsteq	r8, r0
    155c:	00030000 	andeq	r0, r3, r0
    1560:	189f0270 	ldmne	pc, {r4, r5, r6, r9}	; <UNPREDICTABLE>
    1564:	3c000001 	stccc	0, cr0, [r0], {1}
    1568:	04000002 	streq	r0, [r0], #-2
    156c:	5001f300 	andpl	pc, r1, r0, lsl #6
    1570:	0000009f 	muleq	r0, pc, r0	; <UNPREDICTABLE>
    1574:	00000000 	andeq	r0, r0, r0
    1578:	00008000 	andeq	r8, r0, r0
    157c:	0000f000 	andeq	pc, r0, r0
    1580:	51000100 	mrspl	r0, (UNDEF: 16)
    1584:	000000f0 	strdeq	r0, [r0], -r0	; <UNPREDICTABLE>
    1588:	00000160 	andeq	r0, r0, r0, ror #2
    158c:	60550001 	subsvs	r0, r5, r1
    1590:	6c000001 	stcvs	0, cr0, [r0], {1}
    1594:	01000001 	tsteq	r0, r1
    1598:	016c5100 	cmneq	ip, r0, lsl #2
    159c:	01a00000 	moveq	r0, r0
    15a0:	00010000 	andeq	r0, r1, r0
    15a4:	0001a055 	andeq	sl, r1, r5, asr r0
    15a8:	0001b400 	andeq	fp, r1, r0, lsl #8
    15ac:	51000100 	mrspl	r0, (UNDEF: 16)
    15b0:	000001b4 			; <UNDEFINED> instruction: 0x000001b4
    15b4:	000001d4 	ldrdeq	r0, [r0], -r4
    15b8:	d4550001 	ldrble	r0, [r5], #-1
    15bc:	d7000001 	strle	r0, [r0, -r1]
    15c0:	01000001 	tsteq	r0, r1
    15c4:	01d75100 	bicseq	r5, r7, r0, lsl #2
    15c8:	021c0000 	andseq	r0, ip, #0
    15cc:	00010000 	andeq	r0, r1, r0
    15d0:	00021c55 	andeq	r1, r2, r5, asr ip
    15d4:	00023c00 	andeq	r3, r2, r0, lsl #24
    15d8:	f3000400 	vshl.u8	d0, d0, d0
    15dc:	009f5101 	addseq	r5, pc, r1, lsl #2
    15e0:	00000000 	andeq	r0, r0, r0
    15e4:	80000000 	andhi	r0, r0, r0
    15e8:	94000000 	strls	r0, [r0], #-0
    15ec:	01000000 	mrseq	r0, (UNDEF: 0)
    15f0:	00945200 	addseq	r5, r4, r0, lsl #4
    15f4:	021c0000 	andseq	r0, ip, #0
    15f8:	00010000 	andeq	r0, r1, r0
    15fc:	00021c54 	andeq	r1, r2, r4, asr ip
    1600:	00023c00 	andeq	r3, r2, r0, lsl #24
    1604:	f3000400 	vshl.u8	d0, d0, d0
    1608:	009f5201 	addseq	r5, pc, r1, lsl #4
    160c:	00000000 	andeq	r0, r0, r0
    1610:	80000000 	andhi	r0, r0, r0
    1614:	00000000 	andeq	r0, r0, r0
    1618:	01000001 	tsteq	r0, r1
    161c:	01045300 	mrseq	r5, LR_abt
    1620:	01080000 	mrseq	r0, (UNDEF: 8)
    1624:	00010000 	andeq	r0, r1, r0
    1628:	00016053 	andeq	r6, r1, r3, asr r0
    162c:	00016400 	andeq	r6, r1, r0, lsl #8
    1630:	53000100 	movwpl	r0, #256	; 0x100
    1634:	00000164 	andeq	r0, r0, r4, ror #2
    1638:	0000016c 	andeq	r0, r0, ip, ror #2
    163c:	6c5c0001 	mrrcvs	0, 0, r0, ip, cr1
    1640:	a0000001 	andge	r0, r0, r1
    1644:	04000001 	streq	r0, [r0], #-1
    1648:	5301f300 	movwpl	pc, #4864	; 0x1300	; <UNPREDICTABLE>
    164c:	0001a09f 	muleq	r1, pc, r0	; <UNPREDICTABLE>
    1650:	0001b000 	andeq	fp, r1, r0
    1654:	53000100 	movwpl	r0, #256	; 0x100
    1658:	000001b0 			; <UNDEFINED> instruction: 0x000001b0
    165c:	000001b4 			; <UNDEFINED> instruction: 0x000001b4
    1660:	b45c0001 	ldrblt	r0, [ip], #-1
    1664:	d4000001 	strle	r0, [r0], #-1
    1668:	04000001 	streq	r0, [r0], #-1
    166c:	5301f300 	movwpl	pc, #4864	; 0x1300	; <UNPREDICTABLE>
    1670:	0001d49f 	muleq	r1, pc, r4	; <UNPREDICTABLE>
    1674:	0001d700 	andeq	sp, r1, r0, lsl #14
    1678:	53000100 	movwpl	r0, #256	; 0x100
    167c:	000001d7 	ldrdeq	r0, [r0], -r7
    1680:	000001f8 	strdeq	r0, [r0], -r8
    1684:	01f30004 	mvnseq	r0, r4
    1688:	00009f53 	andeq	r9, r0, r3, asr pc
    168c:	00000000 	andeq	r0, r0, r0
    1690:	00800000 	addeq	r0, r0, r0
    1694:	009c0000 	addseq	r0, ip, r0
    1698:	00020000 	andeq	r0, r2, r0
    169c:	009c0091 	umullseq	r0, ip, r1, r0
    16a0:	01d70000 	bicseq	r0, r7, r0
    16a4:	00010000 	andeq	r0, r1, r0
    16a8:	0001f852 	andeq	pc, r1, r2, asr r8	; <UNPREDICTABLE>
    16ac:	0001ff00 	andeq	pc, r1, r0, lsl #30
    16b0:	52000100 	andpl	r0, r0, #0, 2
	...
    16bc:	0000009c 	muleq	r0, ip, r0
    16c0:	0000010c 	andeq	r0, r0, ip, lsl #2
    16c4:	a0910004 	addsge	r0, r1, r4
    16c8:	010c9f7f 	tsteq	ip, pc, ror pc
    16cc:	01180000 	tsteq	r8, r0
    16d0:	00010000 	andeq	r0, r1, r0
    16d4:	00011851 	andeq	r1, r1, r1, asr r8
    16d8:	00011c00 	andeq	r1, r1, r0, lsl #24
    16dc:	50000100 	andpl	r0, r0, r0, lsl #2
    16e0:	0000011c 	andeq	r0, r0, ip, lsl r1
    16e4:	00000120 	andeq	r0, r0, r0, lsr #2
    16e8:	20510001 	subscs	r0, r1, r1
    16ec:	60000001 	andvs	r0, r0, r1
    16f0:	01000001 	tsteq	r0, r1
    16f4:	01605000 	cmneq	r0, r0
    16f8:	01640000 	cmneq	r4, r0
    16fc:	00040000 	andeq	r0, r4, r0
    1700:	9f7fa091 	svcls	0x007fa091
    1704:	00000164 	andeq	r0, r0, r4, ror #2
    1708:	0000016c 	andeq	r0, r0, ip, ror #2
    170c:	6c530001 	mrrcvs	0, 0, r0, r3, cr1
    1710:	70000001 	andvc	r0, r0, r1
    1714:	01000001 	tsteq	r0, r1
    1718:	01705000 	cmneq	r0, r0
    171c:	01740000 	cmneq	r4, r0
    1720:	00010000 	andeq	r0, r1, r0
    1724:	00017453 	andeq	r7, r1, r3, asr r4
    1728:	00018800 	andeq	r8, r1, r0, lsl #16
    172c:	50000100 	andpl	r0, r0, r0, lsl #2
    1730:	00000188 	andeq	r0, r0, r8, lsl #3
    1734:	00000194 	muleq	r0, r4, r1
    1738:	01700003 	cmneq	r0, r3
    173c:	0001949f 	muleq	r1, pc, r4	; <UNPREDICTABLE>
    1740:	0001a000 	andeq	sl, r1, r0
    1744:	50000100 	andpl	r0, r0, r0, lsl #2
    1748:	000001a0 	andeq	r0, r0, r0, lsr #3
    174c:	000001a8 	andeq	r0, r0, r8, lsr #3
    1750:	a1910004 	orrsge	r0, r1, r4
    1754:	01a89f7f 			; <UNDEFINED> instruction: 0x01a89f7f
    1758:	01ac0000 			; <UNDEFINED> instruction: 0x01ac0000
    175c:	00010000 	andeq	r0, r1, r0
    1760:	0001ac50 	andeq	sl, r1, r0, asr ip
    1764:	0001b000 	andeq	fp, r1, r0
    1768:	91000400 	tstls	r0, r0, lsl #8
    176c:	b09f7fa0 	addslt	r7, pc, r0, lsr #31
    1770:	b8000001 	stmdalt	r0, {r0}
    1774:	01000001 	tsteq	r0, r1
    1778:	01b85300 			; <UNDEFINED> instruction: 0x01b85300
    177c:	01d40000 	bicseq	r0, r4, r0
    1780:	00010000 	andeq	r0, r1, r0
    1784:	0001d450 	andeq	sp, r1, r0, asr r4
    1788:	0001f800 	andeq	pc, r1, r0, lsl #16
    178c:	91000400 	tstls	r0, r0, lsl #8
    1790:	f89f7fa0 			; <UNDEFINED> instruction: 0xf89f7fa0
    1794:	ff000001 			; <UNDEFINED> instruction: 0xff000001
    1798:	01000001 	tsteq	r0, r1
    179c:	00005000 	andeq	r5, r0, r0
    17a0:	00000000 	andeq	r0, r0, r0
    17a4:	00a00000 	adceq	r0, r0, r0
    17a8:	00ec0000 	rsceq	r0, ip, r0
    17ac:	00010000 	andeq	r0, r1, r0
    17b0:	0000ec5c 	andeq	lr, r0, ip, asr ip
    17b4:	00010000 	andeq	r0, r1, r0
    17b8:	53000100 	movwpl	r0, #256	; 0x100
    17bc:	00000100 	andeq	r0, r0, r0, lsl #2
    17c0:	00000104 	andeq	r0, r0, r4, lsl #2
    17c4:	045c0001 	ldrbeq	r0, [ip], #-1
    17c8:	08000001 	stmdaeq	r0, {r0}
    17cc:	01000001 	tsteq	r0, r1
    17d0:	01085300 	mrseq	r5, (UNDEF: 56)
    17d4:	01600000 	cmneq	r0, r0
    17d8:	00010000 	andeq	r0, r1, r0
    17dc:	0001605c 	andeq	r6, r1, ip, asr r0
    17e0:	00016400 	andeq	r6, r1, r0, lsl #8
    17e4:	53000100 	movwpl	r0, #256	; 0x100
    17e8:	00000164 	andeq	r0, r0, r4, ror #2
    17ec:	00000180 	andeq	r0, r0, r0, lsl #3
    17f0:	805c0001 	subshi	r0, ip, r1
    17f4:	84000001 	strhi	r0, [r0], #-1
    17f8:	05000001 	streq	r0, [r0, #-1]
    17fc:	34007c00 	strcc	r7, [r0], #-3072	; 0xc00
    1800:	01849f25 	orreq	r9, r4, r5, lsr #30
    1804:	01a00000 	moveq	r0, r0
    1808:	00010000 	andeq	r0, r1, r0
    180c:	0001a05c 	andeq	sl, r1, ip, asr r0
    1810:	0001b000 	andeq	fp, r1, r0
    1814:	53000100 	movwpl	r0, #256	; 0x100
    1818:	000001b0 			; <UNDEFINED> instruction: 0x000001b0
    181c:	000001c4 	andeq	r0, r0, r4, asr #3
    1820:	c45c0001 	ldrbgt	r0, [ip], #-1
    1824:	cc000001 	stcgt	0, cr0, [r0], {1}
    1828:	05000001 	streq	r0, [r0, #-1]
    182c:	31007c00 	tstcc	r0, r0, lsl #24
    1830:	01cc9f25 	biceq	r9, ip, r5, lsr #30
    1834:	01d40000 	bicseq	r0, r4, r0
    1838:	00010000 	andeq	r0, r1, r0
    183c:	0001d45c 	andeq	sp, r1, ip, asr r4
    1840:	0001d700 	andeq	sp, r1, r0, lsl #14
    1844:	53000100 	movwpl	r0, #256	; 0x100
    1848:	000001d7 	ldrdeq	r0, [r0], -r7
    184c:	000001f8 	strdeq	r0, [r0], -r8
    1850:	01f30004 	mvnseq	r0, r4
    1854:	01f89f53 	mvnseq	r9, r3, asr pc
    1858:	01ff0000 	mvnseq	r0, r0
    185c:	00010000 	andeq	r0, r1, r0
    1860:	0000005c 	andeq	r0, r0, ip, asr r0
    1864:	00000000 	andeq	r0, r0, r0
    1868:	0000ec00 	andeq	lr, r0, r0, lsl #24
    186c:	0000fc00 	andeq	pc, r0, r0, lsl #24
    1870:	30000200 	andcc	r0, r0, r0, lsl #4
    1874:	0000fc9f 	muleq	r0, pc, ip	; <UNPREDICTABLE>
    1878:	00010400 	andeq	r0, r1, r0, lsl #8
    187c:	31000200 	mrscc	r0, R8_usr
    1880:	0001049f 	muleq	r1, pc, r4	; <UNPREDICTABLE>
    1884:	00010800 	andeq	r0, r1, r0, lsl #16
    1888:	30000200 	andcc	r0, r0, r0, lsl #4
    188c:	0000009f 	muleq	r0, pc, r0	; <UNPREDICTABLE>
    1890:	00000000 	andeq	r0, r0, r0
    1894:	00023c00 	andeq	r3, r2, r0, lsl #24
    1898:	00024f00 	andeq	r4, r2, r0, lsl #30
    189c:	50000100 	andpl	r0, r0, r0, lsl #2
    18a0:	0000024f 	andeq	r0, r0, pc, asr #4
    18a4:	00000270 	andeq	r0, r0, r0, ror r2
    18a8:	01f30004 	mvnseq	r0, r4
    18ac:	02709f50 	rsbseq	r9, r0, #80, 30	; 0x140
    18b0:	02a40000 	adceq	r0, r4, #0
    18b4:	00010000 	andeq	r0, r1, r0
    18b8:	00000050 	andeq	r0, r0, r0, asr r0
    18bc:	00000000 	andeq	r0, r0, r0
    18c0:	00023c00 	andeq	r3, r2, r0, lsl #24
    18c4:	00024f00 	andeq	r4, r2, r0, lsl #30
    18c8:	51000100 	mrspl	r0, (UNDEF: 16)
    18cc:	0000024f 	andeq	r0, r0, pc, asr #4
    18d0:	00000270 	andeq	r0, r0, r0, ror r2
    18d4:	01f30004 	mvnseq	r0, r4
    18d8:	02709f51 	rsbseq	r9, r0, #324	; 0x144
    18dc:	02a40000 	adceq	r0, r4, #0
    18e0:	00010000 	andeq	r0, r1, r0
    18e4:	00000051 	andeq	r0, r0, r1, asr r0
    18e8:	00000000 	andeq	r0, r0, r0
    18ec:	0002a400 	andeq	sl, r2, r0, lsl #8
    18f0:	0002d400 	andeq	sp, r2, r0, lsl #8
    18f4:	50000100 	andpl	r0, r0, r0, lsl #2
    18f8:	000002d4 	ldrdeq	r0, [r0], -r4
    18fc:	00000558 	andeq	r0, r0, r8, asr r5
    1900:	585b0001 	ldmdapl	fp, {r0}^
    1904:	78000005 	stmdavc	r0, {r0, r2}
    1908:	04000005 	streq	r0, [r0], #-5
    190c:	5001f300 	andpl	pc, r1, r0, lsl #6
    1910:	0000009f 	muleq	r0, pc, r0	; <UNPREDICTABLE>
    1914:	00000000 	andeq	r0, r0, r0
    1918:	0002a400 	andeq	sl, r2, r0, lsl #8
    191c:	0002bc00 	andeq	fp, r2, r0, lsl #24
    1920:	51000100 	mrspl	r0, (UNDEF: 16)
    1924:	000002bc 			; <UNDEFINED> instruction: 0x000002bc
    1928:	000002d4 	ldrdeq	r0, [r0], -r4
    192c:	01710003 	cmneq	r1, r3
    1930:	0002d49f 	muleq	r2, pc, r4	; <UNPREDICTABLE>
    1934:	00057800 	andeq	r7, r5, r0, lsl #16
    1938:	f3000400 	vshl.u8	d0, d0, d0
    193c:	009f5101 	addseq	r5, pc, r1, lsl #2
    1940:	00000000 	andeq	r0, r0, r0
    1944:	a4000000 	strge	r0, [r0], #-0
    1948:	d4000002 	strle	r0, [r0], #-2
    194c:	01000002 	tsteq	r0, r2
    1950:	02d45200 	sbcseq	r5, r4, #0, 4
    1954:	05580000 	ldrbeq	r0, [r8, #-0]
    1958:	00010000 	andeq	r0, r1, r0
    195c:	00000056 	andeq	r0, r0, r6, asr r0
    1960:	00000000 	andeq	r0, r0, r0
    1964:	0002a400 	andeq	sl, r2, r0, lsl #8
    1968:	0002c400 	andeq	ip, r2, r0, lsl #8
    196c:	53000100 	movwpl	r0, #256	; 0x100
	...
    1978:	000002b8 			; <UNDEFINED> instruction: 0x000002b8
    197c:	000002d4 	ldrdeq	r0, [r0], -r4
    1980:	d4500001 	ldrble	r0, [r0], #-1
    1984:	d8000002 	stmdale	r0, {r1}
    1988:	01000002 	tsteq	r0, r2
    198c:	02d85400 	sbcseq	r5, r8, #0, 8
    1990:	02e40000 	rsceq	r0, r4, #0
    1994:	00030000 	andeq	r0, r3, r0
    1998:	e49f0174 	ldr	r0, [pc], #372	; 19a0 <__code_start__-0x6660>
    199c:	f0000002 			; <UNDEFINED> instruction: 0xf0000002
    19a0:	01000002 	tsteq	r0, r2
    19a4:	02f05400 	rscseq	r5, r0, #0, 8
    19a8:	02fc0000 	rscseq	r0, ip, #0
    19ac:	00030000 	andeq	r0, r3, r0
    19b0:	fc9f0174 	ldc2	1, cr0, [pc], {116}	; 0x74
    19b4:	0c000002 	stceq	0, cr0, [r0], {2}
    19b8:	01000005 	tsteq	r0, r5
    19bc:	050c5400 	streq	r5, [ip, #-1024]	; 0x400
    19c0:	05180000 	ldreq	r0, [r8, #-0]
    19c4:	00030000 	andeq	r0, r3, r0
    19c8:	189f0174 	ldmne	pc, {r2, r4, r5, r6, r8}	; <UNPREDICTABLE>
    19cc:	44000005 	strmi	r0, [r0], #-5
    19d0:	01000005 	tsteq	r0, r5
    19d4:	05445400 	strbeq	r5, [r4, #-1024]	; 0x400
    19d8:	05500000 	ldrbeq	r0, [r0, #-0]
    19dc:	00010000 	andeq	r0, r1, r0
    19e0:	00055050 	andeq	r5, r5, r0, asr r0
    19e4:	00055800 	andeq	r5, r5, r0, lsl #16
    19e8:	74000300 	strvc	r0, [r0], #-768	; 0x300
    19ec:	00009f01 	andeq	r9, r0, r1, lsl #30
    19f0:	00000000 	andeq	r0, r0, r0
    19f4:	02c00000 	sbceq	r0, r0, #0
    19f8:	05580000 	ldrbeq	r0, [r8, #-0]
    19fc:	00010000 	andeq	r0, r1, r0
    1a00:	00055858 	andeq	r5, r5, r8, asr r8
    1a04:	00057800 	andeq	r7, r5, r0, lsl #16
    1a08:	f3000a00 	vpmax.u8	d0, d0, d0
    1a0c:	01f35101 	mvnseq	r5, r1, lsl #2
    1a10:	1c312250 	lfmne	f2, 4, [r1], #-320	; 0xfffffec0
    1a14:	0000009f 	muleq	r0, pc, r0	; <UNPREDICTABLE>
    1a18:	00000000 	andeq	r0, r0, r0
    1a1c:	0002c800 	andeq	ip, r2, r0, lsl #16
    1a20:	0002d400 	andeq	sp, r2, r0, lsl #8
    1a24:	52000100 	andpl	r0, r0, #0, 2
    1a28:	000002d4 	ldrdeq	r0, [r0], -r4
    1a2c:	00000578 	andeq	r0, r0, r8, ror r5
    1a30:	cc910003 	ldcgt	0, cr0, [r1], {3}
    1a34:	0000007e 	andeq	r0, r0, lr, ror r0
    1a38:	00000000 	andeq	r0, r0, r0
    1a3c:	00041000 	andeq	r1, r4, r0
    1a40:	00041400 	andeq	r1, r4, r0, lsl #8
    1a44:	50000100 	andpl	r0, r0, r0, lsl #2
    1a48:	00000438 	andeq	r0, r0, r8, lsr r4
    1a4c:	0000043c 	andeq	r0, r0, ip, lsr r4
    1a50:	60500001 	subsvs	r0, r0, r1
    1a54:	64000004 	strvs	r0, [r0], #-4
    1a58:	01000004 	tsteq	r0, r4
    1a5c:	04885000 	streq	r5, [r8], #0
    1a60:	048c0000 	streq	r0, [ip], #0
    1a64:	00010000 	andeq	r0, r1, r0
    1a68:	00049450 	andeq	r9, r4, r0, asr r4
    1a6c:	00049800 	andeq	r9, r4, r0, lsl #16
    1a70:	50000100 	andpl	r0, r0, r0, lsl #2
    1a74:	000004bc 			; <UNDEFINED> instruction: 0x000004bc
    1a78:	000004c0 	andeq	r0, r0, r0, asr #9
    1a7c:	04500001 	ldrbeq	r0, [r0], #-1
    1a80:	2c000005 	stccs	0, cr0, [r0], {5}
    1a84:	01000005 	tsteq	r0, r5
    1a88:	00005000 	andeq	r5, r0, r0
    1a8c:	00000000 	andeq	r0, r0, r0
    1a90:	03040000 	movweq	r0, #16384	; 0x4000
    1a94:	030c0000 	movweq	r0, #49152	; 0xc000
    1a98:	00020000 	andeq	r0, r2, r0
    1a9c:	030c9f30 	movweq	r9, #53040	; 0xcf30
    1aa0:	03100000 	tsteq	r0, #0
    1aa4:	00010000 	andeq	r0, r1, r0
    1aa8:	00031c57 	andeq	r1, r3, r7, asr ip
    1aac:	00052c00 	andeq	r2, r5, r0, lsl #24
    1ab0:	57000100 	strpl	r0, [r0, -r0, lsl #2]
	...
    1abc:	00000014 	andeq	r0, r0, r4, lsl r0
    1ac0:	0000001c 	andeq	r0, r0, ip, lsl r0
    1ac4:	04730003 	ldrbteq	r0, [r3], #-3
    1ac8:	00001c9f 	muleq	r0, pc, ip	; <UNPREDICTABLE>
    1acc:	00002700 	andeq	r2, r0, r0, lsl #14
    1ad0:	53000100 	movwpl	r0, #256	; 0x100
	...
    1ae0:	0000000f 	andeq	r0, r0, pc
    1ae4:	0f500001 	svceq	0x00500001
    1ae8:	44000000 	strmi	r0, [r0], #-0
    1aec:	01000000 	mrseq	r0, (UNDEF: 0)
    1af0:	00005400 	andeq	r5, r0, r0, lsl #8
	...
    1afc:	000f0000 	andeq	r0, pc, r0
    1b00:	00010000 	andeq	r0, r1, r0
    1b04:	00000f50 	andeq	r0, r0, r0, asr pc
    1b08:	00004400 	andeq	r4, r0, r0, lsl #8
    1b0c:	54000100 	strpl	r0, [r0], #-256	; 0x100
	...
    1b1c:	0000000f 	andeq	r0, r0, pc
    1b20:	0f500001 	svceq	0x00500001
    1b24:	44000000 	strmi	r0, [r0], #-0
    1b28:	01000000 	mrseq	r0, (UNDEF: 0)
    1b2c:	00005400 	andeq	r5, r0, r0, lsl #8
	...
    1b38:	000f0000 	andeq	r0, pc, r0
    1b3c:	00010000 	andeq	r0, r1, r0
    1b40:	00000f50 	andeq	r0, r0, r0, asr pc
    1b44:	00004400 	andeq	r4, r0, r0, lsl #8
    1b48:	54000100 	strpl	r0, [r0], #-256	; 0x100
	...
    1b54:	00000034 	andeq	r0, r0, r4, lsr r0
    1b58:	00000040 	andeq	r0, r0, r0, asr #32
    1b5c:	9f300002 	svcls	0x00300002
    1b60:	00000040 	andeq	r0, r0, r0, asr #32
    1b64:	0000006c 	andeq	r0, r0, ip, rrx
    1b68:	00530001 	subseq	r0, r3, r1
    1b6c:	00000000 	andeq	r0, r0, r0
    1b70:	14000000 	strne	r0, [r0], #-0
    1b74:	180000ac 	stmdane	r0, {r2, r3, r5, r7}
    1b78:	020000ac 	andeq	r0, r0, #172	; 0xac
    1b7c:	189f3000 	ldmne	pc, {ip, sp}	; <UNPREDICTABLE>
    1b80:	1c0000ac 	stcne	0, cr0, [r0], {172}	; 0xac
    1b84:	010000ac 	smlatbeq	r0, ip, r0, r0
    1b88:	00005000 	andeq	r5, r0, r0
    1b8c:	00000000 	andeq	r0, r0, r0
    1b90:	ac2c0000 	stcge	0, cr0, [ip], #-0
    1b94:	ac300000 	ldcge	0, cr0, [r0], #-0
    1b98:	00020000 	andeq	r0, r2, r0
    1b9c:	ac309f30 	ldcge	15, cr9, [r0], #-192	; 0xffffff40
    1ba0:	ac340000 	ldcge	0, cr0, [r4], #-0
    1ba4:	00010000 	andeq	r0, r1, r0
    1ba8:	00ac3853 	adceq	r3, ip, r3, asr r8
    1bac:	00ac4000 	adceq	r4, ip, r0
    1bb0:	53000100 	movwpl	r0, #256	; 0x100
	...
    1bc0:	00000004 	andeq	r0, r0, r4
    1bc4:	04500001 	ldrbeq	r0, [r0], #-1
    1bc8:	0c000000 	stceq	0, cr0, [r0], {-0}
    1bcc:	01000000 	mrseq	r0, (UNDEF: 0)
    1bd0:	000c5300 	andeq	r5, ip, r0, lsl #6
    1bd4:	00100000 	andseq	r0, r0, r0
    1bd8:	00010000 	andeq	r0, r1, r0
    1bdc:	00001050 	andeq	r1, r0, r0, asr r0
    1be0:	00001c00 	andeq	r1, r0, r0, lsl #24
    1be4:	53000100 	movwpl	r0, #256	; 0x100
	...
    1bf0:	00000040 	andeq	r0, r0, r0, asr #32
    1bf4:	00000043 	andeq	r0, r0, r3, asr #32
    1bf8:	43500001 	cmpmi	r0, #1
    1bfc:	4c000000 	stcmi	0, cr0, [r0], {-0}
    1c00:	01000000 	mrseq	r0, (UNDEF: 0)
    1c04:	00005400 	andeq	r5, r0, r0, lsl #8
    1c08:	00000000 	andeq	r0, r0, r0
    1c0c:	004c0000 	subeq	r0, ip, r0
    1c10:	00570000 	subseq	r0, r7, r0
    1c14:	00010000 	andeq	r0, r1, r0
    1c18:	00005750 	andeq	r5, r0, r0, asr r7
    1c1c:	00007000 	andeq	r7, r0, r0
    1c20:	55000100 	strpl	r0, [r0, #-256]	; 0x100
	...
    1c2c:	00000060 	andeq	r0, r0, r0, rrx
    1c30:	00000064 	andeq	r0, r0, r4, rrx
    1c34:	00500001 	subseq	r0, r0, r1
    1c38:	00000000 	andeq	r0, r0, r0
    1c3c:	70000000 	andvc	r0, r0, r0
    1c40:	7c000000 	stcvc	0, cr0, [r0], {-0}
    1c44:	01000000 	mrseq	r0, (UNDEF: 0)
    1c48:	007c5000 	rsbseq	r5, ip, r0
    1c4c:	00840000 	addeq	r0, r4, r0
    1c50:	00040000 	andeq	r0, r4, r0
    1c54:	9f5001f3 	svcls	0x005001f3
	...
    1c60:	00000084 	andeq	r0, r0, r4, lsl #1
    1c64:	00000090 	muleq	r0, r0, r0
    1c68:	90500001 	subsls	r0, r0, r1
    1c6c:	98000000 	stmdals	r0, {}	; <UNPREDICTABLE>
    1c70:	04000000 	streq	r0, [r0], #-0
    1c74:	5001f300 	andpl	pc, r1, r0, lsl #6
    1c78:	0000009f 	muleq	r0, pc, r0	; <UNPREDICTABLE>
    1c7c:	00000000 	andeq	r0, r0, r0
    1c80:	00013800 	andeq	r3, r1, r0, lsl #16
    1c84:	00014300 	andeq	r4, r1, r0, lsl #6
    1c88:	50000100 	andpl	r0, r0, r0, lsl #2
    1c8c:	00000143 	andeq	r0, r0, r3, asr #2
    1c90:	00000168 	andeq	r0, r0, r8, ror #2
    1c94:	00540001 	subseq	r0, r4, r1
	...
    1ca0:	0f000000 	svceq	0x00000000
    1ca4:	01000000 	mrseq	r0, (UNDEF: 0)
    1ca8:	000f5000 	andeq	r5, pc, r0
    1cac:	00200000 	eoreq	r0, r0, r0
    1cb0:	00010000 	andeq	r0, r1, r0
    1cb4:	00000054 	andeq	r0, r0, r4, asr r0
	...
    1cc0:	00000f00 	andeq	r0, r0, r0, lsl #30
    1cc4:	51000100 	mrspl	r0, (UNDEF: 16)
    1cc8:	0000000f 	andeq	r0, r0, pc
    1ccc:	00000020 	andeq	r0, r0, r0, lsr #32
    1cd0:	00550001 	subseq	r0, r5, r1
    1cd4:	00000000 	andeq	r0, r0, r0
    1cd8:	ec000000 	stc	0, cr0, [r0], {-0}
    1cdc:	04000000 	streq	r0, [r0], #-0
    1ce0:	01000001 	tsteq	r0, r1
    1ce4:	01045000 	mrseq	r5, (UNDEF: 4)
    1ce8:	01140000 	tsteq	r4, r0
    1cec:	00040000 	andeq	r0, r4, r0
    1cf0:	9f5001f3 	svcls	0x005001f3
    1cf4:	00000114 	andeq	r0, r0, r4, lsl r1
    1cf8:	00000118 	andeq	r0, r0, r8, lsl r1
    1cfc:	18500001 	ldmdane	r0, {r0}^
    1d00:	20000001 	andcs	r0, r0, r1
    1d04:	04000001 	streq	r0, [r0], #-1
    1d08:	5001f300 	andpl	pc, r1, r0, lsl #6
    1d0c:	0000009f 	muleq	r0, pc, r0	; <UNPREDICTABLE>
    1d10:	00000000 	andeq	r0, r0, r0
    1d14:	0000f800 	andeq	pc, r0, r0, lsl #16
    1d18:	00010400 	andeq	r0, r1, r0, lsl #8
    1d1c:	70000b00 	andvc	r0, r0, r0, lsl #22
    1d20:	23253500 	teqcs	r5, #0, 10
    1d24:	818080b4 	strhhi	r8, [r0, r4]
    1d28:	01049f02 	tsteq	r4, r2, lsl #30
    1d2c:	01070000 	mrseq	r0, (UNDEF: 7)
    1d30:	00010000 	andeq	r0, r1, r0
    1d34:	00010750 	andeq	r0, r1, r0, asr r7
    1d38:	00011400 	andeq	r1, r1, r0, lsl #8
    1d3c:	f3000c00 			; <UNDEFINED> instruction: 0xf3000c00
    1d40:	25355001 	ldrcs	r5, [r5, #-1]!
    1d44:	8080b423 	addhi	fp, r0, r3, lsr #8
    1d48:	009f0281 	addseq	r0, pc, r1, lsl #5
    1d4c:	00000000 	andeq	r0, r0, r0
    1d50:	fc000000 	stc2	0, cr0, [r0], {-0}
    1d54:	14000000 	strne	r0, [r0], #-0
    1d58:	01000001 	tsteq	r0, r1
    1d5c:	00005400 	andeq	r5, r0, r0, lsl #8
    1d60:	00000000 	andeq	r0, r0, r0
    1d64:	00d00000 	sbcseq	r0, r0, r0
    1d68:	00df0000 	sbcseq	r0, pc, r0
    1d6c:	00010000 	andeq	r0, r1, r0
    1d70:	0000df50 	andeq	sp, r0, r0, asr pc
    1d74:	0000e400 	andeq	lr, r0, r0, lsl #8
    1d78:	f3000400 	vshl.u8	d0, d0, d0
    1d7c:	e49f5001 	ldr	r5, [pc], #1	; 1d84 <__code_start__-0x627c>
    1d80:	e7000000 	str	r0, [r0, -r0]
    1d84:	01000000 	mrseq	r0, (UNDEF: 0)
    1d88:	00e75000 	rsceq	r5, r7, r0
    1d8c:	00ec0000 	rsceq	r0, ip, r0
    1d90:	00040000 	andeq	r0, r4, r0
    1d94:	9f5001f3 	svcls	0x005001f3
	...
    1da0:	000000d0 	ldrdeq	r0, [r0], -r0	; <UNPREDICTABLE>
    1da4:	000000df 	ldrdeq	r0, [r0], -pc	; <UNPREDICTABLE>
    1da8:	df510001 	svcle	0x00510001
    1dac:	e4000000 	str	r0, [r0], #-0
    1db0:	04000000 	streq	r0, [r0], #-0
    1db4:	5101f300 	mrspl	pc, SP_irq	; <UNPREDICTABLE>
    1db8:	0000e49f 	muleq	r0, pc, r4	; <UNPREDICTABLE>
    1dbc:	0000e700 	andeq	lr, r0, r0, lsl #14
    1dc0:	51000100 	mrspl	r0, (UNDEF: 16)
    1dc4:	000000e7 	andeq	r0, r0, r7, ror #1
    1dc8:	000000ec 	andeq	r0, r0, ip, ror #1
    1dcc:	01f30004 	mvnseq	r0, r4
    1dd0:	00009f51 	andeq	r9, r0, r1, asr pc
    1dd4:	00000000 	andeq	r0, r0, r0
    1dd8:	00c00000 	sbceq	r0, r0, r0
    1ddc:	00cb0000 	sbceq	r0, fp, r0
    1de0:	00010000 	andeq	r0, r1, r0
    1de4:	0000cb50 	andeq	ip, r0, r0, asr fp
    1de8:	0000d000 	andeq	sp, r0, r0
    1dec:	f3000400 	vshl.u8	d0, d0, d0
    1df0:	009f5001 	addseq	r5, pc, r1
    1df4:	00000000 	andeq	r0, r0, r0
    1df8:	9c000000 	stcls	0, cr0, [r0], {-0}
    1dfc:	b4000000 	strlt	r0, [r0], #-0
    1e00:	01000000 	mrseq	r0, (UNDEF: 0)
    1e04:	00b45000 	adcseq	r5, r4, r0
    1e08:	00c00000 	sbceq	r0, r0, r0
    1e0c:	00040000 	andeq	r0, r4, r0
    1e10:	9f5001f3 	svcls	0x005001f3
	...
    1e1c:	00000078 	andeq	r0, r0, r8, ror r0
    1e20:	00000090 	muleq	r0, r0, r0
    1e24:	90500001 	subsls	r0, r0, r1
    1e28:	9c000000 	stcls	0, cr0, [r0], {-0}
    1e2c:	04000000 	streq	r0, [r0], #-0
    1e30:	5001f300 	andpl	pc, r1, r0, lsl #6
    1e34:	0000009f 	muleq	r0, pc, r0	; <UNPREDICTABLE>
    1e38:	00000000 	andeq	r0, r0, r0
    1e3c:	00006800 	andeq	r6, r0, r0, lsl #16
    1e40:	00007300 	andeq	r7, r0, r0, lsl #6
    1e44:	50000100 	andpl	r0, r0, r0, lsl #2
    1e48:	00000073 	andeq	r0, r0, r3, ror r0
    1e4c:	00000078 	andeq	r0, r0, r8, ror r0
    1e50:	01f30004 	mvnseq	r0, r4
    1e54:	00009f50 	andeq	r9, r0, r0, asr pc
	...
    1e60:	00480000 	subeq	r0, r8, r0
    1e64:	00010000 	andeq	r0, r1, r0
    1e68:	00004850 	andeq	r4, r0, r0, asr r8
    1e6c:	00006800 	andeq	r6, r0, r0, lsl #16
    1e70:	f3000400 	vshl.u8	d0, d0, d0
    1e74:	009f5001 	addseq	r5, pc, r1
	...
    1e80:	4b000000 	blmi	1e88 <__code_start__-0x6178>
    1e84:	01000000 	mrseq	r0, (UNDEF: 0)
    1e88:	004b5100 	subeq	r5, fp, r0, lsl #2
    1e8c:	00680000 	rsbeq	r0, r8, r0
    1e90:	00040000 	andeq	r0, r4, r0
    1e94:	9f5101f3 	svcls	0x005101f3
	...
    1ea0:	0000004c 	andeq	r0, r0, ip, asr #32
    1ea4:	00000054 	andeq	r0, r0, r4, asr r0
    1ea8:	54500001 	ldrbpl	r0, [r0], #-1
    1eac:	58000000 	stmdapl	r0, {}	; <UNPREDICTABLE>
    1eb0:	09000000 	stmdbeq	r0, {}	; <UNPREDICTABLE>
    1eb4:	74007500 	strvc	r7, [r0], #-1280	; 0x500
    1eb8:	00712400 	rsbseq	r2, r1, r0, lsl #8
    1ebc:	00589f21 	subseq	r9, r8, r1, lsr #30
    1ec0:	005f0000 	subseq	r0, pc, r0
    1ec4:	00010000 	andeq	r0, r1, r0
    1ec8:	00000051 	andeq	r0, r0, r1, asr r0
    1ecc:	00000000 	andeq	r0, r0, r0
    1ed0:	00010400 	andeq	r0, r1, r0, lsl #8
    1ed4:	00014300 	andeq	r4, r1, r0, lsl #6
    1ed8:	50000100 	andpl	r0, r0, r0, lsl #2
    1edc:	00000143 	andeq	r0, r0, r3, asr #2
    1ee0:	0000014c 	andeq	r0, r0, ip, asr #2
    1ee4:	01f30004 	mvnseq	r0, r4
    1ee8:	014c9f50 	cmpeq	ip, r0, asr pc
    1eec:	014f0000 	mrseq	r0, SPSR
    1ef0:	00010000 	andeq	r0, r1, r0
    1ef4:	00014f50 	andeq	r4, r1, r0, asr pc
    1ef8:	00017000 	andeq	r7, r1, r0
    1efc:	f3000400 	vshl.u8	d0, d0, d0
    1f00:	709f5001 	addsvc	r5, pc, r1
    1f04:	73000001 	movwvc	r0, #1
    1f08:	01000001 	tsteq	r0, r1
    1f0c:	01735000 	cmneq	r3, r0
    1f10:	01b00000 	movseq	r0, r0
    1f14:	00040000 	andeq	r0, r4, r0
    1f18:	9f5001f3 	svcls	0x005001f3
	...
    1f24:	00000104 	andeq	r0, r0, r4, lsl #2
    1f28:	00000130 	andeq	r0, r0, r0, lsr r1
    1f2c:	30510001 	subscc	r0, r1, r1
    1f30:	43000001 	movwmi	r0, #1
    1f34:	03000001 	movweq	r0, #1
    1f38:	9f017100 	svcls	0x00017100
    1f3c:	00000143 	andeq	r0, r0, r3, asr #2
    1f40:	0000014c 	andeq	r0, r0, ip, asr #2
    1f44:	01f30004 	mvnseq	r0, r4
    1f48:	014c9f51 	cmpeq	ip, r1, asr pc
    1f4c:	014f0000 	mrseq	r0, SPSR
    1f50:	00010000 	andeq	r0, r1, r0
    1f54:	00014f51 	andeq	r4, r1, r1, asr pc
    1f58:	0001b000 	andeq	fp, r1, r0
    1f5c:	f3000400 	vshl.u8	d0, d0, d0
    1f60:	009f5101 	addseq	r5, pc, r1, lsl #2
    1f64:	00000000 	andeq	r0, r0, r0
    1f68:	20000000 	andcs	r0, r0, r0
    1f6c:	24000001 	strcs	r0, [r0], #-1
    1f70:	01000001 	tsteq	r0, r1
    1f74:	01245200 	teqeq	r4, r0, lsl #4
    1f78:	012c0000 	teqeq	ip, r0
    1f7c:	00050000 	andeq	r0, r5, r0
    1f80:	00b20003 	adcseq	r0, r2, r3
    1f84:	00012c00 	andeq	r2, r1, r0, lsl #24
    1f88:	00014300 	andeq	r4, r1, r0, lsl #6
    1f8c:	53000100 	movwpl	r0, #256	; 0x100
    1f90:	00000170 	andeq	r0, r0, r0, ror r1
    1f94:	00000173 	andeq	r0, r0, r3, ror r1
    1f98:	00530001 	subseq	r0, r3, r1
    1f9c:	00000000 	andeq	r0, r0, r0
    1fa0:	7c000000 	stcvc	0, cr0, [r0], {-0}
    1fa4:	94000000 	strls	r0, [r0], #-0
    1fa8:	01000000 	mrseq	r0, (UNDEF: 0)
    1fac:	00945000 	addseq	r5, r4, r0
    1fb0:	00af0000 	adceq	r0, pc, r0
    1fb4:	00010000 	andeq	r0, r1, r0
    1fb8:	0000af52 	andeq	sl, r0, r2, asr pc
    1fbc:	0000bc00 	andeq	fp, r0, r0, lsl #24
    1fc0:	f3000900 	vmls.i8	d0, d0, d0
    1fc4:	07235001 	streq	r5, [r3, -r1]!
    1fc8:	9f1af809 	svcls	0x001af809
    1fcc:	000000bc 	strheq	r0, [r0], -ip
    1fd0:	000000bf 	strheq	r0, [r0], -pc	; <UNPREDICTABLE>
    1fd4:	bf500001 	svclt	0x00500001
    1fd8:	f4000000 	vst4.8	{d0-d3}, [r0], r0
    1fdc:	04000000 	streq	r0, [r0], #-0
    1fe0:	5001f300 	andpl	pc, r1, r0, lsl #6
    1fe4:	0000009f 	muleq	r0, pc, r0	; <UNPREDICTABLE>
    1fe8:	00000000 	andeq	r0, r0, r0
    1fec:	00009c00 	andeq	r9, r0, r0, lsl #24
    1ff0:	0000bc00 	andeq	fp, r0, r0, lsl #24
    1ff4:	54000100 	strpl	r0, [r0], #-256	; 0x100
	...
    2000:	0000001c 	andeq	r0, r0, ip, lsl r0
    2004:	00000047 	andeq	r0, r0, r7, asr #32
    2008:	47500001 	ldrbmi	r0, [r0, -r1]
    200c:	7c000000 	stcvc	0, cr0, [r0], {-0}
    2010:	04000000 	streq	r0, [r0], #-0
    2014:	5001f300 	andpl	pc, r1, r0, lsl #6
    2018:	0000009f 	muleq	r0, pc, r0	; <UNPREDICTABLE>
    201c:	00000000 	andeq	r0, r0, r0
    2020:	00001c00 	andeq	r1, r0, r0, lsl #24
    2024:	00004700 	andeq	r4, r0, r0, lsl #14
    2028:	50000100 	andpl	r0, r0, r0, lsl #2
    202c:	00000047 	andeq	r0, r0, r7, asr #32
    2030:	0000007c 	andeq	r0, r0, ip, ror r0
    2034:	01f30004 	mvnseq	r0, r4
    2038:	00009f50 	andeq	r9, r0, r0, asr pc
    203c:	00000000 	andeq	r0, r0, r0
	...

Disassembly of section .debug_ranges:

00000000 <.debug_ranges>:
   0:	000000e4 	andeq	r0, r0, r4, ror #1
   4:	00000108 	andeq	r0, r0, r8, lsl #2
   8:	0000010c 	andeq	r0, r0, ip, lsl #2
   c:	0000011c 	andeq	r0, r0, ip, lsl r1
	...
  18:	000000e4 	andeq	r0, r0, r4, ror #1
  1c:	00000100 	andeq	r0, r0, r0, lsl #2
  20:	0000010c 	andeq	r0, r0, ip, lsl #2
  24:	00000114 	andeq	r0, r0, r4, lsl r1
	...
  30:	00000434 	andeq	r0, r0, r4, lsr r4
  34:	00000458 	andeq	r0, r0, r8, asr r4
  38:	0000045c 	andeq	r0, r0, ip, asr r4
  3c:	00000464 	andeq	r0, r0, r4, ror #8
	...
  48:	0000ac14 	andeq	sl, r0, r4, lsl ip
  4c:	0000ac88 	andeq	sl, r0, r8, lsl #25
	...
