
tests/part2-test2.elf:     file format elf32-littlearm


Disassembly of section .text:

00008000 <__code_start__>:
    8000:	e3a00013 	mov	r0, #19
    8004:	e129f000 	msr	CPSR_fc, r0
    8008:	e3a01000 	mov	r1, #0
    800c:	ee073f95 	mcr	15, 0, r3, cr7, cr5, {4}
    8010:	e3a0d302 	mov	sp, #134217728	; 0x8000000
    8014:	e3a0b000 	mov	fp, #0
    8018:	eb000a0b 	bl	a84c <_cstart>
    801c:	eb000a84 	bl	aa34 <rpi_reboot>

00008020 <notmain>:
    8020:	e52de004 	push	{lr}		; (str lr, [sp, #-4]!)
    8024:	e24dd00c 	sub	sp, sp, #12
    8028:	eb000661 	bl	99b4 <memcheck_init>
    802c:	eb0006b4 	bl	9b04 <memcheck_on>
    8030:	eb000074 	bl	8208 <mmu_is_enabled>
    8034:	e3500000 	cmp	r0, #0
    8038:	1a000008 	bne	8060 <notmain+0x40>
    803c:	eb000882 	bl	a24c <rpi_reset_putc>
    8040:	e59f305c 	ldr	r3, [pc, #92]	; 80a4 <notmain+0x84>
    8044:	e58d3000 	str	r3, [sp]
    8048:	e59f0058 	ldr	r0, [pc, #88]	; 80a8 <notmain+0x88>
    804c:	e59f1058 	ldr	r1, [pc, #88]	; 80ac <notmain+0x8c>
    8050:	e59f2058 	ldr	r2, [pc, #88]	; 80b0 <notmain+0x90>
    8054:	e3a03008 	mov	r3, #8
    8058:	eb000860 	bl	a1e0 <printk>
    805c:	eb0009ef 	bl	a820 <clean_reboot>
    8060:	e59f004c 	ldr	r0, [pc, #76]	; 80b4 <notmain+0x94>
    8064:	eb00085d 	bl	a1e0 <printk>
    8068:	e59f0048 	ldr	r0, [pc, #72]	; 80b8 <notmain+0x98>
    806c:	e3a01407 	mov	r1, #117440512	; 0x7000000
    8070:	e59f2044 	ldr	r2, [pc, #68]	; 80bc <notmain+0x9c>
    8074:	eb000859 	bl	a1e0 <printk>
    8078:	e3a00407 	mov	r0, #117440512	; 0x7000000
    807c:	e3a01001 	mov	r1, #1
    8080:	eb000aa9 	bl	ab2c <put32>
    8084:	eb000210 	bl	88cc <mmu_disable>
    8088:	eb00086f 	bl	a24c <rpi_reset_putc>
    808c:	e59f002c 	ldr	r0, [pc, #44]	; 80c0 <notmain+0xa0>
    8090:	e59f1014 	ldr	r1, [pc, #20]	; 80ac <notmain+0x8c>
    8094:	e59f2014 	ldr	r2, [pc, #20]	; 80b0 <notmain+0x90>
    8098:	e3a03013 	mov	r3, #19
    809c:	eb00084f 	bl	a1e0 <printk>
    80a0:	eb0009de 	bl	a820 <clean_reboot>
    80a4:	0000afe0 	andeq	sl, r0, r0, ror #31
    80a8:	0000afb8 			; <UNDEFINED> instruction: 0x0000afb8
    80ac:	0000afcc 	andeq	sl, r0, ip, asr #31
    80b0:	0000b05c 	andeq	fp, r0, ip, asr r0
    80b4:	0000aff4 	strdeq	sl, [r0], -r4
    80b8:	0000affc 	strdeq	sl, [r0], -ip
    80bc:	0000ab2c 	andeq	sl, r0, ip, lsr #22
    80c0:	0000b034 	andeq	fp, r0, r4, lsr r0

000080c4 <_interrupt_table>:
    80c4:	e59ff020 	ldr	pc, [pc, #32]	; 80ec <_reset_asm>
    80c8:	e59ff020 	ldr	pc, [pc, #32]	; 80f0 <_undefined_instruction_asm>
    80cc:	e59ff020 	ldr	pc, [pc, #32]	; 80f4 <_software_interrupt_asm>
    80d0:	e59ff020 	ldr	pc, [pc, #32]	; 80f8 <_prefetch_abort_asm>
    80d4:	e59ff020 	ldr	pc, [pc, #32]	; 80fc <_data_abort_asm>
    80d8:	e59ff00c 	ldr	pc, [pc, #12]	; 80ec <_reset_asm>
    80dc:	e59ff01c 	ldr	pc, [pc, #28]	; 8100 <_interrupt_asm>

000080e0 <fast_interrupt_asm>:
    80e0:	e3a0d409 	mov	sp, #150994944	; 0x9000000
    80e4:	e24ee004 	sub	lr, lr, #4
    80e8:	eb0009e5 	bl	a884 <fast_interrupt_vector>

000080ec <_reset_asm>:
    80ec:	0000811c 	andeq	r8, r0, ip, lsl r1

000080f0 <_undefined_instruction_asm>:
    80f0:	00008160 	andeq	r8, r0, r0, ror #2

000080f4 <_software_interrupt_asm>:
    80f4:	0000816c 	andeq	r8, r0, ip, ror #2

000080f8 <_prefetch_abort_asm>:
    80f8:	00008144 	andeq	r8, r0, r4, asr #2

000080fc <_data_abort_asm>:
    80fc:	00008128 	andeq	r8, r0, r8, lsr #2

00008100 <_interrupt_asm>:
    8100:	00008104 	andeq	r8, r0, r4, lsl #2

00008104 <_interrupt_table_end>:
    8104:	e3a0d409 	mov	sp, #150994944	; 0x9000000
    8108:	e24ee004 	sub	lr, lr, #4
    810c:	e92d5fff 	push	{r0, r1, r2, r3, r4, r5, r6, r7, r8, r9, sl, fp, ip, lr}
    8110:	e1a0000e 	mov	r0, lr
    8114:	e8bd5fff 	pop	{r0, r1, r2, r3, r4, r5, r6, r7, r8, r9, sl, fp, ip, lr}
    8118:	e1b0f00e 	movs	pc, lr

0000811c <reset_asm>:
    811c:	e3a0d409 	mov	sp, #150994944	; 0x9000000
    8120:	e24ee004 	sub	lr, lr, #4
    8124:	eb0009f8 	bl	a90c <reset_vector>

00008128 <data_abort_asm>:
    8128:	e24ee008 	sub	lr, lr, #8
    812c:	e3a0d409 	mov	sp, #150994944	; 0x9000000
    8130:	e92d5fff 	push	{r0, r1, r2, r3, r4, r5, r6, r7, r8, r9, sl, fp, ip, lr}
    8134:	e1a0000e 	mov	r0, lr
    8138:	eb00054a 	bl	9668 <data_abort_vector>
    813c:	e8bd5fff 	pop	{r0, r1, r2, r3, r4, r5, r6, r7, r8, r9, sl, fp, ip, lr}
    8140:	e1b0f00e 	movs	pc, lr

00008144 <prefetch_abort_asm>:
    8144:	e24ee004 	sub	lr, lr, #4
    8148:	e3a0d409 	mov	sp, #150994944	; 0x9000000
    814c:	e92d5fff 	push	{r0, r1, r2, r3, r4, r5, r6, r7, r8, r9, sl, fp, ip, lr}
    8150:	e1a0000e 	mov	r0, lr
    8154:	eb0009db 	bl	a8c8 <prefetch_abort_vector>
    8158:	e8bd5fff 	pop	{r0, r1, r2, r3, r4, r5, r6, r7, r8, r9, sl, fp, ip, lr}
    815c:	e1b0f00e 	movs	pc, lr

00008160 <undefined_instruction_asm>:
    8160:	e3a0d409 	mov	sp, #150994944	; 0x9000000
    8164:	e24ee004 	sub	lr, lr, #4
    8168:	eb0009f8 	bl	a950 <undefined_instruction_vector>

0000816c <software_interrupt_asm>:
    816c:	e92d5ff0 	push	{r4, r5, r6, r7, r8, r9, sl, fp, ip, lr}
    8170:	e24ee004 	sub	lr, lr, #4
    8174:	e1a01000 	mov	r1, r0
    8178:	e1a0000e 	mov	r0, lr
    817c:	e8bd5ff0 	pop	{r4, r5, r6, r7, r8, r9, sl, fp, ip, lr}
    8180:	e1b0f00e 	movs	pc, lr

00008184 <user_trampoline_ret>:
    8184:	e92d5ff0 	push	{r4, r5, r6, r7, r8, r9, sl, fp, ip, lr}
    8188:	e10f4000 	mrs	r4, CPSR
    818c:	e129f000 	msr	CPSR_fc, r0
    8190:	ee070f95 	mcr	15, 0, r0, cr7, cr5, {4}
    8194:	e3a0d407 	mov	sp, #117440512	; 0x7000000
    8198:	e1a00002 	mov	r0, r2
    819c:	e12fff31 	blx	r1
    81a0:	e1a00004 	mov	r0, r4
    81a4:	ef000001 	svc	0x00000001
    81a8:	e8bd5ff0 	pop	{r4, r5, r6, r7, r8, r9, sl, fp, ip, lr}
    81ac:	e12fff1e 	bx	lr

000081b0 <sys_try_lock_asm>:
    81b0:	e92d5ff0 	push	{r4, r5, r6, r7, r8, r9, sl, fp, ip, lr}
    81b4:	ef000002 	svc	0x00000002
    81b8:	e8bd5ff0 	pop	{r4, r5, r6, r7, r8, r9, sl, fp, ip, lr}
    81bc:	e12fff1e 	bx	lr

000081c0 <sys_foo_asm>:
    81c0:	e92d5ff0 	push	{r4, r5, r6, r7, r8, r9, sl, fp, ip, lr}
    81c4:	ef000003 	svc	0x00000003
    81c8:	e8bd5ff0 	pop	{r4, r5, r6, r7, r8, r9, sl, fp, ip, lr}
    81cc:	e12fff1e 	bx	lr

000081d0 <run_fn_helper>:
    81d0:	e92d5ff0 	push	{r4, r5, r6, r7, r8, r9, sl, fp, ip, lr}
    81d4:	e10f4000 	mrs	r4, CPSR
    81d8:	e129f000 	msr	CPSR_fc, r0
    81dc:	ee070f95 	mcr	15, 0, r0, cr7, cr5, {4}
    81e0:	e1a0d002 	mov	sp, r2
    81e4:	e1a00002 	mov	r0, r2
    81e8:	e5911000 	ldr	r1, [r1]
    81ec:	e12fff31 	blx	r1
    81f0:	e1a05000 	mov	r5, r0
    81f4:	e1a00004 	mov	r0, r4
    81f8:	ef000001 	svc	0x00000001
    81fc:	e1a00005 	mov	r0, r5
    8200:	e8bd5ff0 	pop	{r4, r5, r6, r7, r8, r9, sl, fp, ip, lr}
    8204:	e12fff1e 	bx	lr

00008208 <mmu_is_enabled>:
    8208:	e92d4008 	push	{r3, lr}
    820c:	eb0006df 	bl	9d90 <cp15_ctrl_reg1_rd>
    8210:	e2000001 	and	r0, r0, #1
    8214:	e8bd8008 	pop	{r3, pc}

00008218 <mmu_lookup_section>:
    8218:	e52de004 	push	{lr}		; (str lr, [sp, #-4]!)
    821c:	e24dd00c 	sub	sp, sp, #12
    8220:	e3110013 	tst	r1, #19
    8224:	0a000008 	beq	824c <mmu_lookup_section+0x34>
    8228:	eb000807 	bl	a24c <rpi_reset_putc>
    822c:	e59f305c 	ldr	r3, [pc, #92]	; 8290 <mmu_lookup_section+0x78>
    8230:	e58d3000 	str	r3, [sp]
    8234:	e59f0058 	ldr	r0, [pc, #88]	; 8294 <mmu_lookup_section+0x7c>
    8238:	e59f1058 	ldr	r1, [pc, #88]	; 8298 <mmu_lookup_section+0x80>
    823c:	e59f2058 	ldr	r2, [pc, #88]	; 829c <mmu_lookup_section+0x84>
    8240:	e3a03010 	mov	r3, #16
    8244:	eb0007e5 	bl	a1e0 <printk>
    8248:	eb000974 	bl	a820 <clean_reboot>
    824c:	e1a01a21 	lsr	r1, r1, #20
    8250:	e0803101 	add	r3, r0, r1, lsl #2
    8254:	e7d02101 	ldrb	r2, [r0, r1, lsl #2]
    8258:	e3120003 	tst	r2, #3
    825c:	1a000008 	bne	8284 <mmu_lookup_section+0x6c>
    8260:	eb0007f9 	bl	a24c <rpi_reset_putc>
    8264:	e59f3034 	ldr	r3, [pc, #52]	; 82a0 <mmu_lookup_section+0x88>
    8268:	e58d3000 	str	r3, [sp]
    826c:	e59f0030 	ldr	r0, [pc, #48]	; 82a4 <mmu_lookup_section+0x8c>
    8270:	e59f1020 	ldr	r1, [pc, #32]	; 8298 <mmu_lookup_section+0x80>
    8274:	e59f2020 	ldr	r2, [pc, #32]	; 829c <mmu_lookup_section+0x84>
    8278:	e3a03013 	mov	r3, #19
    827c:	eb0007d7 	bl	a1e0 <printk>
    8280:	eb000966 	bl	a820 <clean_reboot>
    8284:	e1a00003 	mov	r0, r3
    8288:	e28dd00c 	add	sp, sp, #12
    828c:	e49df004 	pop	{pc}		; (ldr pc, [sp], #4)
    8290:	0000b160 	andeq	fp, r0, r0, ror #2
    8294:	0000afb8 			; <UNDEFINED> instruction: 0x0000afb8
    8298:	0000b158 	andeq	fp, r0, r8, asr r1
    829c:	0000b068 	andeq	fp, r0, r8, rrx
    82a0:	0000b1a4 	andeq	fp, r0, r4, lsr #3
    82a4:	0000b174 	andeq	fp, r0, r4, ror r1

000082a8 <mmu_mark_sec_ap_perm>:
    82a8:	e92d41f0 	push	{r4, r5, r6, r7, r8, lr}
    82ac:	e24dd008 	sub	sp, sp, #8
    82b0:	e1a08000 	mov	r8, r0
    82b4:	e1a05002 	mov	r5, r2
    82b8:	e1a01aa1 	lsr	r1, r1, #21
    82bc:	e1a07a81 	lsl	r7, r1, #21
    82c0:	e3530003 	cmp	r3, #3
    82c4:	9a000011 	bls	8310 <mmu_mark_sec_ap_perm+0x68>
    82c8:	eb0007df 	bl	a24c <rpi_reset_putc>
    82cc:	e59f305c 	ldr	r3, [pc, #92]	; 8330 <mmu_mark_sec_ap_perm+0x88>
    82d0:	e58d3000 	str	r3, [sp]
    82d4:	e59f0058 	ldr	r0, [pc, #88]	; 8334 <mmu_mark_sec_ap_perm+0x8c>
    82d8:	e59f1058 	ldr	r1, [pc, #88]	; 8338 <mmu_mark_sec_ap_perm+0x90>
    82dc:	e59f2058 	ldr	r2, [pc, #88]	; 833c <mmu_mark_sec_ap_perm+0x94>
    82e0:	e3a0301a 	mov	r3, #26
    82e4:	eb0007bd 	bl	a1e0 <printk>
    82e8:	eb00094c 	bl	a820 <clean_reboot>
    82ec:	e1a00008 	mov	r0, r8
    82f0:	e1a01007 	mov	r1, r7
    82f4:	ebffffc7 	bl	8218 <mmu_lookup_section>
    82f8:	e5d03001 	ldrb	r3, [r0, #1]
    82fc:	e3c3300c 	bic	r3, r3, #12
    8300:	e1863003 	orr	r3, r6, r3
    8304:	e5c03001 	strb	r3, [r0, #1]
    8308:	e2844001 	add	r4, r4, #1
    830c:	ea000002 	b	831c <mmu_mark_sec_ap_perm+0x74>
    8310:	e3a04000 	mov	r4, #0
    8314:	e2036003 	and	r6, r3, #3
    8318:	e1a06106 	lsl	r6, r6, #2
    831c:	e1540005 	cmp	r4, r5
    8320:	3afffff1 	bcc	82ec <mmu_mark_sec_ap_perm+0x44>
    8324:	eb000715 	bl	9f80 <our_mmu_sync_pte_mods>
    8328:	e28dd008 	add	sp, sp, #8
    832c:	e8bd81f0 	pop	{r4, r5, r6, r7, r8, pc}
    8330:	0000b1e4 	andeq	fp, r0, r4, ror #3
    8334:	0000b1b0 			; <UNDEFINED> instruction: 0x0000b1b0
    8338:	0000b158 	andeq	fp, r0, r8, asr r1
    833c:	0000b07c 	andeq	fp, r0, ip, ror r0

00008340 <mmu_mark_sec_readonly>:
    8340:	e92d4008 	push	{r3, lr}
    8344:	e3a03002 	mov	r3, #2
    8348:	ebffffd6 	bl	82a8 <mmu_mark_sec_ap_perm>
    834c:	e8bd8008 	pop	{r3, pc}

00008350 <mmu_mark_sec_rw>:
    8350:	e92d4008 	push	{r3, lr}
    8354:	e3a03003 	mov	r3, #3
    8358:	ebffffd2 	bl	82a8 <mmu_mark_sec_ap_perm>
    835c:	e8bd8008 	pop	{r3, pc}

00008360 <mmu_mark_sec_no_access>:
    8360:	e92d4008 	push	{r3, lr}
    8364:	e3a03000 	mov	r3, #0
    8368:	ebffffce 	bl	82a8 <mmu_mark_sec_ap_perm>
    836c:	e8bd8008 	pop	{r3, pc}

00008370 <fld_set_base_addr>:
    8370:	e52de004 	push	{lr}		; (str lr, [sp, #-4]!)
    8374:	e24dd00c 	sub	sp, sp, #12
    8378:	e3110013 	tst	r1, #19
    837c:	0a000008 	beq	83a4 <fld_set_base_addr+0x34>
    8380:	eb0007b1 	bl	a24c <rpi_reset_putc>
    8384:	e59f3064 	ldr	r3, [pc, #100]	; 83f0 <fld_set_base_addr+0x80>
    8388:	e58d3000 	str	r3, [sp]
    838c:	e59f0060 	ldr	r0, [pc, #96]	; 83f4 <fld_set_base_addr+0x84>
    8390:	e59f1060 	ldr	r1, [pc, #96]	; 83f8 <fld_set_base_addr+0x88>
    8394:	e59f2060 	ldr	r2, [pc, #96]	; 83fc <fld_set_base_addr+0x8c>
    8398:	e3a03032 	mov	r3, #50	; 0x32
    839c:	eb00078f 	bl	a1e0 <printk>
    83a0:	eb00091e 	bl	a820 <clean_reboot>
    83a4:	e1a02a21 	lsr	r2, r1, #20
    83a8:	e1d030b2 	ldrh	r3, [r0, #2]
    83ac:	e3c33cff 	bic	r3, r3, #65280	; 0xff00
    83b0:	e3c330f0 	bic	r3, r3, #240	; 0xf0
    83b4:	e1833202 	orr	r3, r3, r2, lsl #4
    83b8:	e1c030b2 	strh	r3, [r0, #2]
    83bc:	e1510a02 	cmp	r1, r2, lsl #20
    83c0:	0a000008 	beq	83e8 <fld_set_base_addr+0x78>
    83c4:	eb0007a0 	bl	a24c <rpi_reset_putc>
    83c8:	e59f3030 	ldr	r3, [pc, #48]	; 8400 <fld_set_base_addr+0x90>
    83cc:	e58d3000 	str	r3, [sp]
    83d0:	e59f002c 	ldr	r0, [pc, #44]	; 8404 <fld_set_base_addr+0x94>
    83d4:	e59f101c 	ldr	r1, [pc, #28]	; 83f8 <fld_set_base_addr+0x88>
    83d8:	e59f201c 	ldr	r2, [pc, #28]	; 83fc <fld_set_base_addr+0x8c>
    83dc:	e3a03037 	mov	r3, #55	; 0x37
    83e0:	eb00077e 	bl	a1e0 <printk>
    83e4:	eb00090d 	bl	a820 <clean_reboot>
    83e8:	e28dd00c 	add	sp, sp, #12
    83ec:	e49df004 	pop	{pc}		; (ldr pc, [sp], #4)
    83f0:	0000b228 	andeq	fp, r0, r8, lsr #4
    83f4:	0000b1f4 	strdeq	fp, [r0], -r4
    83f8:	0000b158 	andeq	fp, r0, r8, asr r1
    83fc:	0000b0a4 	andeq	fp, r0, r4, lsr #1
    8400:	0000b254 	andeq	fp, r0, r4, asr r2
    8404:	0000afb8 			; <UNDEFINED> instruction: 0x0000afb8

00008408 <mmu_map_section>:
    8408:	e92d43f0 	push	{r4, r5, r6, r7, r8, r9, lr}
    840c:	e24dd00c 	sub	sp, sp, #12
    8410:	e1a04000 	mov	r4, r0
    8414:	e1a09002 	mov	r9, r2
    8418:	e1a08003 	mov	r8, r3
    841c:	e353000f 	cmp	r3, #15
    8420:	9a000008 	bls	8448 <mmu_map_section+0x40>
    8424:	eb000788 	bl	a24c <rpi_reset_putc>
    8428:	e59f3140 	ldr	r3, [pc, #320]	; 8570 <mmu_map_section+0x168>
    842c:	e58d3000 	str	r3, [sp]
    8430:	e59f013c 	ldr	r0, [pc, #316]	; 8574 <mmu_map_section+0x16c>
    8434:	e59f113c 	ldr	r1, [pc, #316]	; 8578 <mmu_map_section+0x170>
    8438:	e59f213c 	ldr	r2, [pc, #316]	; 857c <mmu_map_section+0x174>
    843c:	e3a03042 	mov	r3, #66	; 0x42
    8440:	eb000766 	bl	a1e0 <printk>
    8444:	eb0008f5 	bl	a820 <clean_reboot>
    8448:	e3110013 	tst	r1, #19
    844c:	0a000008 	beq	8474 <mmu_map_section+0x6c>
    8450:	eb00077d 	bl	a24c <rpi_reset_putc>
    8454:	e59f3124 	ldr	r3, [pc, #292]	; 8580 <mmu_map_section+0x178>
    8458:	e58d3000 	str	r3, [sp]
    845c:	e59f0110 	ldr	r0, [pc, #272]	; 8574 <mmu_map_section+0x16c>
    8460:	e59f1110 	ldr	r1, [pc, #272]	; 8578 <mmu_map_section+0x170>
    8464:	e59f2110 	ldr	r2, [pc, #272]	; 857c <mmu_map_section+0x174>
    8468:	e3a03043 	mov	r3, #67	; 0x43
    846c:	eb00075b 	bl	a1e0 <printk>
    8470:	eb0008ea 	bl	a820 <clean_reboot>
    8474:	e3120013 	tst	r2, #19
    8478:	0a000008 	beq	84a0 <mmu_map_section+0x98>
    847c:	eb000772 	bl	a24c <rpi_reset_putc>
    8480:	e59f30fc 	ldr	r3, [pc, #252]	; 8584 <mmu_map_section+0x17c>
    8484:	e58d3000 	str	r3, [sp]
    8488:	e59f00e4 	ldr	r0, [pc, #228]	; 8574 <mmu_map_section+0x16c>
    848c:	e59f10e4 	ldr	r1, [pc, #228]	; 8578 <mmu_map_section+0x170>
    8490:	e59f20e4 	ldr	r2, [pc, #228]	; 857c <mmu_map_section+0x174>
    8494:	e3a03044 	mov	r3, #68	; 0x44
    8498:	eb000750 	bl	a1e0 <printk>
    849c:	eb0008df 	bl	a820 <clean_reboot>
    84a0:	e1a06a21 	lsr	r6, r1, #20
    84a4:	e1a07106 	lsl	r7, r6, #2
    84a8:	e0805007 	add	r5, r0, r7
    84ac:	e7d03106 	ldrb	r3, [r0, r6, lsl #2]
    84b0:	e3130003 	tst	r3, #3
    84b4:	0a000008 	beq	84dc <mmu_map_section+0xd4>
    84b8:	eb000763 	bl	a24c <rpi_reset_putc>
    84bc:	e59f30c4 	ldr	r3, [pc, #196]	; 8588 <mmu_map_section+0x180>
    84c0:	e58d3000 	str	r3, [sp]
    84c4:	e59f00c0 	ldr	r0, [pc, #192]	; 858c <mmu_map_section+0x184>
    84c8:	e59f10a8 	ldr	r1, [pc, #168]	; 8578 <mmu_map_section+0x170>
    84cc:	e59f20a8 	ldr	r2, [pc, #168]	; 857c <mmu_map_section+0x174>
    84d0:	e3a03048 	mov	r3, #72	; 0x48
    84d4:	eb000741 	bl	a1e0 <printk>
    84d8:	eb0008d0 	bl	a820 <clean_reboot>
    84dc:	eb00031d 	bl	9158 <fld_mk>
    84e0:	e7840106 	str	r0, [r4, r6, lsl #2]
    84e4:	e5d53002 	ldrb	r3, [r5, #2]
    84e8:	e3c33002 	bic	r3, r3, #2
    84ec:	e5c53002 	strb	r3, [r5, #2]
    84f0:	e5d53001 	ldrb	r3, [r5, #1]
    84f4:	e203300f 	and	r3, r3, #15
    84f8:	e383300c 	orr	r3, r3, #12
    84fc:	e5c53001 	strb	r3, [r5, #1]
    8500:	e19430b7 	ldrh	r3, [r4, r7]
    8504:	e208800f 	and	r8, r8, #15
    8508:	e3c33e1e 	bic	r3, r3, #480	; 0x1e0
    850c:	e1838288 	orr	r8, r3, r8, lsl #5
    8510:	e18480b7 	strh	r8, [r4, r7]
    8514:	e7d43106 	ldrb	r3, [r4, r6, lsl #2]
    8518:	e3c33010 	bic	r3, r3, #16
    851c:	e7c43106 	strb	r3, [r4, r6, lsl #2]
    8520:	e1a00005 	mov	r0, r5
    8524:	e1a01009 	mov	r1, r9
    8528:	ebffff90 	bl	8370 <fld_set_base_addr>
    852c:	e59f305c 	ldr	r3, [pc, #92]	; 8590 <mmu_map_section+0x188>
    8530:	e5933000 	ldr	r3, [r3]
    8534:	e3530000 	cmp	r3, #0
    8538:	0a000009 	beq	8564 <mmu_map_section+0x15c>
    853c:	e1a00005 	mov	r0, r5
    8540:	eb000333 	bl	9214 <fld_print>
    8544:	e59f0048 	ldr	r0, [pc, #72]	; 8594 <mmu_map_section+0x18c>
    8548:	e1a01004 	mov	r1, r4
    854c:	e7942106 	ldr	r2, [r4, r6, lsl #2]
    8550:	eb000722 	bl	a1e0 <printk>
    8554:	e59f003c 	ldr	r0, [pc, #60]	; 8598 <mmu_map_section+0x190>
    8558:	e1a01005 	mov	r1, r5
    855c:	e3a02004 	mov	r2, #4
    8560:	eb00015f 	bl	8ae4 <hash_print>
    8564:	e1a00005 	mov	r0, r5
    8568:	e28dd00c 	add	sp, sp, #12
    856c:	e8bd83f0 	pop	{r4, r5, r6, r7, r8, r9, pc}
    8570:	0000b278 	andeq	fp, r0, r8, ror r2
    8574:	0000afb8 			; <UNDEFINED> instruction: 0x0000afb8
    8578:	0000b158 	andeq	fp, r0, r8, asr r1
    857c:	0000b094 	muleq	r0, r4, r0
    8580:	0000b160 	andeq	fp, r0, r0, ror #2
    8584:	0000b284 	andeq	fp, r0, r4, lsl #5
    8588:	0000b2c4 	andeq	fp, r0, r4, asr #5
    858c:	0000b298 	muleq	r0, r8, r2
    8590:	0000c230 	andeq	ip, r0, r0, lsr r2
    8594:	0000b2d0 	ldrdeq	fp, [r0], -r0
    8598:	0000b2e4 	andeq	fp, r0, r4, ror #5

0000859c <mmu_map_sections>:
    859c:	e92d43f0 	push	{r4, r5, r6, r7, r8, r9, lr}
    85a0:	e24dd00c 	sub	sp, sp, #12
    85a4:	e1a09000 	mov	r9, r0
    85a8:	e1a05001 	mov	r5, r1
    85ac:	e1a06002 	mov	r6, r2
    85b0:	e1a07003 	mov	r7, r3
    85b4:	e59d8028 	ldr	r8, [sp, #40]	; 0x28
    85b8:	e358000f 	cmp	r8, #15
    85bc:	9a000008 	bls	85e4 <mmu_map_sections+0x48>
    85c0:	eb000721 	bl	a24c <rpi_reset_putc>
    85c4:	e59f30a8 	ldr	r3, [pc, #168]	; 8674 <mmu_map_sections+0xd8>
    85c8:	e58d3000 	str	r3, [sp]
    85cc:	e59f00a4 	ldr	r0, [pc, #164]	; 8678 <mmu_map_sections+0xdc>
    85d0:	e59f10a4 	ldr	r1, [pc, #164]	; 867c <mmu_map_sections+0xe0>
    85d4:	e59f20a4 	ldr	r2, [pc, #164]	; 8680 <mmu_map_sections+0xe4>
    85d8:	e3a03060 	mov	r3, #96	; 0x60
    85dc:	eb0006ff 	bl	a1e0 <printk>
    85e0:	eb00088e 	bl	a820 <clean_reboot>
    85e4:	e3110013 	tst	r1, #19
    85e8:	0a000008 	beq	8610 <mmu_map_sections+0x74>
    85ec:	eb000716 	bl	a24c <rpi_reset_putc>
    85f0:	e59f308c 	ldr	r3, [pc, #140]	; 8684 <mmu_map_sections+0xe8>
    85f4:	e58d3000 	str	r3, [sp]
    85f8:	e59f0078 	ldr	r0, [pc, #120]	; 8678 <mmu_map_sections+0xdc>
    85fc:	e59f1078 	ldr	r1, [pc, #120]	; 867c <mmu_map_sections+0xe0>
    8600:	e59f2078 	ldr	r2, [pc, #120]	; 8680 <mmu_map_sections+0xe4>
    8604:	e3a03061 	mov	r3, #97	; 0x61
    8608:	eb0006f4 	bl	a1e0 <printk>
    860c:	eb000883 	bl	a820 <clean_reboot>
    8610:	e3120013 	tst	r2, #19
    8614:	0a000011 	beq	8660 <mmu_map_sections+0xc4>
    8618:	eb00070b 	bl	a24c <rpi_reset_putc>
    861c:	e59f3064 	ldr	r3, [pc, #100]	; 8688 <mmu_map_sections+0xec>
    8620:	e58d3000 	str	r3, [sp]
    8624:	e59f004c 	ldr	r0, [pc, #76]	; 8678 <mmu_map_sections+0xdc>
    8628:	e59f104c 	ldr	r1, [pc, #76]	; 867c <mmu_map_sections+0xe0>
    862c:	e59f204c 	ldr	r2, [pc, #76]	; 8680 <mmu_map_sections+0xe4>
    8630:	e3a03062 	mov	r3, #98	; 0x62
    8634:	eb0006e9 	bl	a1e0 <printk>
    8638:	eb000878 	bl	a820 <clean_reboot>
    863c:	e1a00009 	mov	r0, r9
    8640:	e1a01005 	mov	r1, r5
    8644:	e1a02006 	mov	r2, r6
    8648:	e1a03008 	mov	r3, r8
    864c:	ebffff6d 	bl	8408 <mmu_map_section>
    8650:	e2855601 	add	r5, r5, #1048576	; 0x100000
    8654:	e2866601 	add	r6, r6, #1048576	; 0x100000
    8658:	e2844001 	add	r4, r4, #1
    865c:	ea000000 	b	8664 <mmu_map_sections+0xc8>
    8660:	e3a04000 	mov	r4, #0
    8664:	e1540007 	cmp	r4, r7
    8668:	3afffff3 	bcc	863c <mmu_map_sections+0xa0>
    866c:	e28dd00c 	add	sp, sp, #12
    8670:	e8bd83f0 	pop	{r4, r5, r6, r7, r8, r9, pc}
    8674:	0000b278 	andeq	fp, r0, r8, ror r2
    8678:	0000afb8 			; <UNDEFINED> instruction: 0x0000afb8
    867c:	0000b158 	andeq	fp, r0, r8, asr r1
    8680:	0000b0b8 	strheq	fp, [r0], -r8
    8684:	0000b160 	andeq	fp, r0, r0, ror #2
    8688:	0000b284 	andeq	fp, r0, r4, lsl #5

0000868c <mmu_pt_alloc_at>:
    868c:	e92d4010 	push	{r4, lr}
    8690:	e24dd008 	sub	sp, sp, #8
    8694:	e1a04000 	mov	r4, r0
    8698:	e310000d 	tst	r0, #13
    869c:	0a000008 	beq	86c4 <mmu_pt_alloc_at+0x38>
    86a0:	eb0006e9 	bl	a24c <rpi_reset_putc>
    86a4:	e59f305c 	ldr	r3, [pc, #92]	; 8708 <mmu_pt_alloc_at+0x7c>
    86a8:	e58d3000 	str	r3, [sp]
    86ac:	e59f0058 	ldr	r0, [pc, #88]	; 870c <mmu_pt_alloc_at+0x80>
    86b0:	e59f1058 	ldr	r1, [pc, #88]	; 8710 <mmu_pt_alloc_at+0x84>
    86b4:	e59f2058 	ldr	r2, [pc, #88]	; 8714 <mmu_pt_alloc_at+0x88>
    86b8:	e3a0306b 	mov	r3, #107	; 0x6b
    86bc:	eb0006c7 	bl	a1e0 <printk>
    86c0:	eb000856 	bl	a820 <clean_reboot>
    86c4:	e3510901 	cmp	r1, #16384	; 0x4000
    86c8:	0a000008 	beq	86f0 <mmu_pt_alloc_at+0x64>
    86cc:	eb0006de 	bl	a24c <rpi_reset_putc>
    86d0:	e59f3040 	ldr	r3, [pc, #64]	; 8718 <mmu_pt_alloc_at+0x8c>
    86d4:	e58d3000 	str	r3, [sp]
    86d8:	e59f003c 	ldr	r0, [pc, #60]	; 871c <mmu_pt_alloc_at+0x90>
    86dc:	e59f102c 	ldr	r1, [pc, #44]	; 8710 <mmu_pt_alloc_at+0x84>
    86e0:	e59f202c 	ldr	r2, [pc, #44]	; 8714 <mmu_pt_alloc_at+0x88>
    86e4:	e3a0306f 	mov	r3, #111	; 0x6f
    86e8:	eb0006bc 	bl	a1e0 <printk>
    86ec:	eb00084b 	bl	a820 <clean_reboot>
    86f0:	e3a01000 	mov	r1, #0
    86f4:	e3a02901 	mov	r2, #16384	; 0x4000
    86f8:	eb0006b0 	bl	a1c0 <memset>
    86fc:	e1a00004 	mov	r0, r4
    8700:	e28dd008 	add	sp, sp, #8
    8704:	e8bd8010 	pop	{r4, pc}
    8708:	0000b328 	andeq	fp, r0, r8, lsr #6
    870c:	0000b2f0 	strdeq	fp, [r0], -r0
    8710:	0000b158 	andeq	fp, r0, r8, asr r1
    8714:	0000b0cc 	andeq	fp, r0, ip, asr #1
    8718:	0000b3a4 	andeq	fp, r0, r4, lsr #7
    871c:	0000b368 	andeq	fp, r0, r8, ror #6

00008720 <mmu_pt_alloc>:
    8720:	e52de004 	push	{lr}		; (str lr, [sp, #-4]!)
    8724:	e24dd00c 	sub	sp, sp, #12
    8728:	e3500a01 	cmp	r0, #4096	; 0x1000
    872c:	0a000008 	beq	8754 <mmu_pt_alloc+0x34>
    8730:	eb0006c5 	bl	a24c <rpi_reset_putc>
    8734:	e59f305c 	ldr	r3, [pc, #92]	; 8798 <mmu_pt_alloc+0x78>
    8738:	e58d3000 	str	r3, [sp]
    873c:	e59f0058 	ldr	r0, [pc, #88]	; 879c <mmu_pt_alloc+0x7c>
    8740:	e59f1058 	ldr	r1, [pc, #88]	; 87a0 <mmu_pt_alloc+0x80>
    8744:	e59f2058 	ldr	r2, [pc, #88]	; 87a4 <mmu_pt_alloc+0x84>
    8748:	e3a03076 	mov	r3, #118	; 0x76
    874c:	eb0006a3 	bl	a1e0 <printk>
    8750:	eb000832 	bl	a820 <clean_reboot>
    8754:	e3a01901 	mov	r1, #16384	; 0x4000
    8758:	eb0009e4 	bl	aef0 <kmalloc_aligned>
    875c:	e310000d 	tst	r0, #13
    8760:	0a000008 	beq	8788 <mmu_pt_alloc+0x68>
    8764:	eb0006b8 	bl	a24c <rpi_reset_putc>
    8768:	e59f3038 	ldr	r3, [pc, #56]	; 87a8 <mmu_pt_alloc+0x88>
    876c:	e58d3000 	str	r3, [sp]
    8770:	e59f0034 	ldr	r0, [pc, #52]	; 87ac <mmu_pt_alloc+0x8c>
    8774:	e59f1024 	ldr	r1, [pc, #36]	; 87a0 <mmu_pt_alloc+0x80>
    8778:	e59f2024 	ldr	r2, [pc, #36]	; 87a4 <mmu_pt_alloc+0x84>
    877c:	e3a0307b 	mov	r3, #123	; 0x7b
    8780:	eb000696 	bl	a1e0 <printk>
    8784:	eb000825 	bl	a820 <clean_reboot>
    8788:	e3a01901 	mov	r1, #16384	; 0x4000
    878c:	ebffffbe 	bl	868c <mmu_pt_alloc_at>
    8790:	e28dd00c 	add	sp, sp, #12
    8794:	e49df004 	pop	{pc}		; (ldr pc, [sp], #4)
    8798:	0000b408 	andeq	fp, r0, r8, lsl #8
    879c:	0000b3b0 			; <UNDEFINED> instruction: 0x0000b3b0
    87a0:	0000b158 	andeq	fp, r0, r8, asr r1
    87a4:	0000b0dc 	ldrdeq	fp, [r0], -ip
    87a8:	0000b414 	andeq	fp, r0, r4, lsl r4
    87ac:	0000b2f0 	strdeq	fp, [r0], -r0

000087b0 <mmu_init>:
    87b0:	e52de004 	push	{lr}		; (str lr, [sp, #-4]!)
    87b4:	e24dd00c 	sub	sp, sp, #12
    87b8:	eb000602 	bl	9fc8 <our_mmu_reset>
    87bc:	eb000573 	bl	9d90 <cp15_ctrl_reg1_rd>
    87c0:	e3800502 	orr	r0, r0, #8388608	; 0x800000
    87c4:	eb0005e6 	bl	9f64 <cp15_ctrl_reg1_wr>
    87c8:	eb000570 	bl	9d90 <cp15_ctrl_reg1_rd>
    87cc:	e3100502 	tst	r0, #8388608	; 0x800000
    87d0:	1a000008 	bne	87f8 <mmu_init+0x48>
    87d4:	eb00069c 	bl	a24c <rpi_reset_putc>
    87d8:	e59f304c 	ldr	r3, [pc, #76]	; 882c <mmu_init+0x7c>
    87dc:	e58d3000 	str	r3, [sp]
    87e0:	e59f0048 	ldr	r0, [pc, #72]	; 8830 <mmu_init+0x80>
    87e4:	e59f1048 	ldr	r1, [pc, #72]	; 8834 <mmu_init+0x84>
    87e8:	e59f2048 	ldr	r2, [pc, #72]	; 8838 <mmu_init+0x88>
    87ec:	e3a0308e 	mov	r3, #142	; 0x8e
    87f0:	eb00067a 	bl	a1e0 <printk>
    87f4:	eb000809 	bl	a820 <clean_reboot>
    87f8:	e3100001 	tst	r0, #1
    87fc:	0a000008 	beq	8824 <mmu_init+0x74>
    8800:	eb000691 	bl	a24c <rpi_reset_putc>
    8804:	e59f3030 	ldr	r3, [pc, #48]	; 883c <mmu_init+0x8c>
    8808:	e58d3000 	str	r3, [sp]
    880c:	e59f001c 	ldr	r0, [pc, #28]	; 8830 <mmu_init+0x80>
    8810:	e59f101c 	ldr	r1, [pc, #28]	; 8834 <mmu_init+0x84>
    8814:	e59f201c 	ldr	r2, [pc, #28]	; 8838 <mmu_init+0x88>
    8818:	e3a0308f 	mov	r3, #143	; 0x8f
    881c:	eb00066f 	bl	a1e0 <printk>
    8820:	eb0007fe 	bl	a820 <clean_reboot>
    8824:	e28dd00c 	add	sp, sp, #12
    8828:	e49df004 	pop	{pc}		; (ldr pc, [sp], #4)
    882c:	0000b450 	andeq	fp, r0, r0, asr r4
    8830:	0000afb8 			; <UNDEFINED> instruction: 0x0000afb8
    8834:	0000b158 	andeq	fp, r0, r8, asr r1
    8838:	0000b0ec 	andeq	fp, r0, ip, ror #1
    883c:	0000b45c 	andeq	fp, r0, ip, asr r4

00008840 <mmu_install_handlers>:
    8840:	e92d4008 	push	{r3, lr}
    8844:	eb000854 	bl	a99c <int_init>
    8848:	e8bd8008 	pop	{r3, pc}

0000884c <mmu_disable_set>:
    884c:	e52de004 	push	{lr}		; (str lr, [sp, #-4]!)
    8850:	e24dd00c 	sub	sp, sp, #12
    8854:	e3100001 	tst	r0, #1
    8858:	0a000008 	beq	8880 <mmu_disable_set+0x34>
    885c:	eb00067a 	bl	a24c <rpi_reset_putc>
    8860:	e59f3050 	ldr	r3, [pc, #80]	; 88b8 <mmu_disable_set+0x6c>
    8864:	e58d3000 	str	r3, [sp]
    8868:	e59f004c 	ldr	r0, [pc, #76]	; 88bc <mmu_disable_set+0x70>
    886c:	e59f104c 	ldr	r1, [pc, #76]	; 88c0 <mmu_disable_set+0x74>
    8870:	e59f204c 	ldr	r2, [pc, #76]	; 88c4 <mmu_disable_set+0x78>
    8874:	e3a03098 	mov	r3, #152	; 0x98
    8878:	eb000658 	bl	a1e0 <printk>
    887c:	eb0007e7 	bl	a820 <clean_reboot>
    8880:	e3100004 	tst	r0, #4
    8884:	0a000008 	beq	88ac <mmu_disable_set+0x60>
    8888:	eb00066f 	bl	a24c <rpi_reset_putc>
    888c:	e59f3034 	ldr	r3, [pc, #52]	; 88c8 <mmu_disable_set+0x7c>
    8890:	e58d3000 	str	r3, [sp]
    8894:	e59f0020 	ldr	r0, [pc, #32]	; 88bc <mmu_disable_set+0x70>
    8898:	e59f1020 	ldr	r1, [pc, #32]	; 88c0 <mmu_disable_set+0x74>
    889c:	e59f2020 	ldr	r2, [pc, #32]	; 88c4 <mmu_disable_set+0x78>
    88a0:	e3a03099 	mov	r3, #153	; 0x99
    88a4:	eb00064d 	bl	a1e0 <printk>
    88a8:	eb0007dc 	bl	a820 <clean_reboot>
    88ac:	eb0005e6 	bl	a04c <our_mmu_disable_set_asm>
    88b0:	e28dd00c 	add	sp, sp, #12
    88b4:	e49df004 	pop	{pc}		; (ldr pc, [sp], #4)
    88b8:	0000b46c 	andeq	fp, r0, ip, ror #8
    88bc:	0000afb8 			; <UNDEFINED> instruction: 0x0000afb8
    88c0:	0000b158 	andeq	fp, r0, r8, asr r1
    88c4:	0000b0f8 	strdeq	fp, [r0], -r8
    88c8:	0000b47c 	andeq	fp, r0, ip, ror r4

000088cc <mmu_disable>:
    88cc:	e52de004 	push	{lr}		; (str lr, [sp, #-4]!)
    88d0:	e24dd00c 	sub	sp, sp, #12
    88d4:	eb00052d 	bl	9d90 <cp15_ctrl_reg1_rd>
    88d8:	e3100001 	tst	r0, #1
    88dc:	1a000008 	bne	8904 <mmu_disable+0x38>
    88e0:	eb000659 	bl	a24c <rpi_reset_putc>
    88e4:	e59f3028 	ldr	r3, [pc, #40]	; 8914 <mmu_disable+0x48>
    88e8:	e58d3000 	str	r3, [sp]
    88ec:	e59f0024 	ldr	r0, [pc, #36]	; 8918 <mmu_disable+0x4c>
    88f0:	e59f1024 	ldr	r1, [pc, #36]	; 891c <mmu_disable+0x50>
    88f4:	e59f2024 	ldr	r2, [pc, #36]	; 8920 <mmu_disable+0x54>
    88f8:	e3a0309e 	mov	r3, #158	; 0x9e
    88fc:	eb000637 	bl	a1e0 <printk>
    8900:	eb0007c6 	bl	a820 <clean_reboot>
    8904:	e3c00001 	bic	r0, r0, #1
    8908:	ebffffcf 	bl	884c <mmu_disable_set>
    890c:	e28dd00c 	add	sp, sp, #12
    8910:	e49df004 	pop	{pc}		; (ldr pc, [sp], #4)
    8914:	0000b490 	muleq	r0, r0, r4
    8918:	0000afb8 			; <UNDEFINED> instruction: 0x0000afb8
    891c:	0000b158 	andeq	fp, r0, r8, asr r1
    8920:	0000b108 	andeq	fp, r0, r8, lsl #2

00008924 <mmu_enable_set>:
    8924:	e52de004 	push	{lr}		; (str lr, [sp, #-4]!)
    8928:	e24dd00c 	sub	sp, sp, #12
    892c:	e3100001 	tst	r0, #1
    8930:	1a000008 	bne	8958 <mmu_enable_set+0x34>
    8934:	eb000644 	bl	a24c <rpi_reset_putc>
    8938:	e59f3024 	ldr	r3, [pc, #36]	; 8964 <mmu_enable_set+0x40>
    893c:	e58d3000 	str	r3, [sp]
    8940:	e59f0020 	ldr	r0, [pc, #32]	; 8968 <mmu_enable_set+0x44>
    8944:	e59f1020 	ldr	r1, [pc, #32]	; 896c <mmu_enable_set+0x48>
    8948:	e59f2020 	ldr	r2, [pc, #32]	; 8970 <mmu_enable_set+0x4c>
    894c:	e3a030a4 	mov	r3, #164	; 0xa4
    8950:	eb000622 	bl	a1e0 <printk>
    8954:	eb0007b1 	bl	a820 <clean_reboot>
    8958:	eb0005b3 	bl	a02c <our_mmu_enable_set_asm>
    895c:	e28dd00c 	add	sp, sp, #12
    8960:	e49df004 	pop	{pc}		; (ldr pc, [sp], #4)
    8964:	0000b490 	muleq	r0, r0, r4
    8968:	0000afb8 			; <UNDEFINED> instruction: 0x0000afb8
    896c:	0000b158 	andeq	fp, r0, r8, asr r1
    8970:	0000b114 	andeq	fp, r0, r4, lsl r1

00008974 <mmu_enable>:
    8974:	e52de004 	push	{lr}		; (str lr, [sp, #-4]!)
    8978:	e24dd00c 	sub	sp, sp, #12
    897c:	eb000503 	bl	9d90 <cp15_ctrl_reg1_rd>
    8980:	e3100001 	tst	r0, #1
    8984:	0a000008 	beq	89ac <mmu_enable+0x38>
    8988:	eb00062f 	bl	a24c <rpi_reset_putc>
    898c:	e59f3028 	ldr	r3, [pc, #40]	; 89bc <mmu_enable+0x48>
    8990:	e58d3000 	str	r3, [sp]
    8994:	e59f0024 	ldr	r0, [pc, #36]	; 89c0 <mmu_enable+0x4c>
    8998:	e59f1024 	ldr	r1, [pc, #36]	; 89c4 <mmu_enable+0x50>
    899c:	e59f2024 	ldr	r2, [pc, #36]	; 89c8 <mmu_enable+0x54>
    89a0:	e3a030a9 	mov	r3, #169	; 0xa9
    89a4:	eb00060d 	bl	a1e0 <printk>
    89a8:	eb00079c 	bl	a820 <clean_reboot>
    89ac:	e3800001 	orr	r0, r0, #1
    89b0:	ebffffdb 	bl	8924 <mmu_enable_set>
    89b4:	e28dd00c 	add	sp, sp, #12
    89b8:	e49df004 	pop	{pc}		; (ldr pc, [sp], #4)
    89bc:	0000b46c 	andeq	fp, r0, ip, ror #8
    89c0:	0000afb8 			; <UNDEFINED> instruction: 0x0000afb8
    89c4:	0000b158 	andeq	fp, r0, r8, asr r1
    89c8:	0000b124 	andeq	fp, r0, r4, lsr #2

000089cc <read_domain_access_ctrl>:
    89cc:	ee130f10 	mrc	15, 0, r0, cr3, cr0, {0}
    89d0:	e12fff1e 	bx	lr

000089d4 <write_domain_access_ctrl>:
    89d4:	e92d4008 	push	{r3, lr}
    89d8:	eb00055a 	bl	9f48 <our_cp15_domain_ctrl_wr>
    89dc:	e8bd8008 	pop	{r3, pc}

000089e0 <set_procid_ttbr0>:
    89e0:	e52de004 	push	{lr}		; (str lr, [sp, #-4]!)
    89e4:	e24dd00c 	sub	sp, sp, #12
    89e8:	e1b03c20 	lsrs	r3, r0, #24
    89ec:	0a000008 	beq	8a14 <set_procid_ttbr0+0x34>
    89f0:	eb000615 	bl	a24c <rpi_reset_putc>
    89f4:	e59f3088 	ldr	r3, [pc, #136]	; 8a84 <set_procid_ttbr0+0xa4>
    89f8:	e58d3000 	str	r3, [sp]
    89fc:	e59f0084 	ldr	r0, [pc, #132]	; 8a88 <set_procid_ttbr0+0xa8>
    8a00:	e59f1084 	ldr	r1, [pc, #132]	; 8a8c <set_procid_ttbr0+0xac>
    8a04:	e59f2084 	ldr	r2, [pc, #132]	; 8a90 <set_procid_ttbr0+0xb0>
    8a08:	e3a030bb 	mov	r3, #187	; 0xbb
    8a0c:	eb0005f3 	bl	a1e0 <printk>
    8a10:	eb000782 	bl	a820 <clean_reboot>
    8a14:	e3500040 	cmp	r0, #64	; 0x40
    8a18:	8a000008 	bhi	8a40 <set_procid_ttbr0+0x60>
    8a1c:	eb00060a 	bl	a24c <rpi_reset_putc>
    8a20:	e59f306c 	ldr	r3, [pc, #108]	; 8a94 <set_procid_ttbr0+0xb4>
    8a24:	e58d3000 	str	r3, [sp]
    8a28:	e59f0058 	ldr	r0, [pc, #88]	; 8a88 <set_procid_ttbr0+0xa8>
    8a2c:	e59f1058 	ldr	r1, [pc, #88]	; 8a8c <set_procid_ttbr0+0xac>
    8a30:	e59f2058 	ldr	r2, [pc, #88]	; 8a90 <set_procid_ttbr0+0xb0>
    8a34:	e3a030bc 	mov	r3, #188	; 0xbc
    8a38:	eb0005e8 	bl	a1e0 <printk>
    8a3c:	eb000777 	bl	a820 <clean_reboot>
    8a40:	e2413001 	sub	r3, r1, #1
    8a44:	e353003e 	cmp	r3, #62	; 0x3e
    8a48:	9a000008 	bls	8a70 <set_procid_ttbr0+0x90>
    8a4c:	eb0005fe 	bl	a24c <rpi_reset_putc>
    8a50:	e59f3040 	ldr	r3, [pc, #64]	; 8a98 <set_procid_ttbr0+0xb8>
    8a54:	e58d3000 	str	r3, [sp]
    8a58:	e59f0028 	ldr	r0, [pc, #40]	; 8a88 <set_procid_ttbr0+0xa8>
    8a5c:	e59f1028 	ldr	r1, [pc, #40]	; 8a8c <set_procid_ttbr0+0xac>
    8a60:	e59f2028 	ldr	r2, [pc, #40]	; 8a90 <set_procid_ttbr0+0xb0>
    8a64:	e3a030bd 	mov	r3, #189	; 0xbd
    8a68:	eb0005dc 	bl	a1e0 <printk>
    8a6c:	eb00076b 	bl	a820 <clean_reboot>
    8a70:	e1810400 	orr	r0, r1, r0, lsl #8
    8a74:	e1a01002 	mov	r1, r2
    8a78:	eb000548 	bl	9fa0 <our_cp15_set_procid_ttbr0>
    8a7c:	e28dd00c 	add	sp, sp, #12
    8a80:	e49df004 	pop	{pc}		; (ldr pc, [sp], #4)
    8a84:	0000b4a0 	andeq	fp, r0, r0, lsr #9
    8a88:	0000afb8 			; <UNDEFINED> instruction: 0x0000afb8
    8a8c:	0000b158 	andeq	fp, r0, r8, asr r1
    8a90:	0000b130 	andeq	fp, r0, r0, lsr r1
    8a94:	0000b4b4 			; <UNDEFINED> instruction: 0x0000b4b4
    8a98:	0000b4c0 	andeq	fp, r0, r0, asr #9

00008a9c <asm_not_implemented>:
    8a9c:	e52de004 	push	{lr}		; (str lr, [sp, #-4]!)
    8aa0:	e24dd00c 	sub	sp, sp, #12
    8aa4:	e1a04000 	mov	r4, r0
    8aa8:	ebfffdd6 	bl	8208 <mmu_is_enabled>
    8aac:	e3500000 	cmp	r0, #0
    8ab0:	0a000000 	beq	8ab8 <asm_not_implemented+0x1c>
    8ab4:	ebffff84 	bl	88cc <mmu_disable>
    8ab8:	eb0005e3 	bl	a24c <rpi_reset_putc>
    8abc:	e58d4000 	str	r4, [sp]
    8ac0:	e59f0010 	ldr	r0, [pc, #16]	; 8ad8 <asm_not_implemented+0x3c>
    8ac4:	e59f1010 	ldr	r1, [pc, #16]	; 8adc <asm_not_implemented+0x40>
    8ac8:	e59f2010 	ldr	r2, [pc, #16]	; 8ae0 <asm_not_implemented+0x44>
    8acc:	e3a030c5 	mov	r3, #197	; 0xc5
    8ad0:	eb0005c2 	bl	a1e0 <printk>
    8ad4:	eb000751 	bl	a820 <clean_reboot>
    8ad8:	0000b4d4 	ldrdeq	fp, [r0], -r4
    8adc:	0000b158 	andeq	fp, r0, r8, asr r1
    8ae0:	0000b144 	andeq	fp, r0, r4, asr #2

00008ae4 <hash_print>:
    8ae4:	e92d4038 	push	{r3, r4, r5, lr}
    8ae8:	e1a05000 	mov	r5, r0
    8aec:	e1a04002 	mov	r4, r2
    8af0:	e1a00001 	mov	r0, r1
    8af4:	e1a01002 	mov	r1, r2
    8af8:	eb000574 	bl	a0d0 <fast_hash>
    8afc:	e1a02000 	mov	r2, r0
    8b00:	e59f000c 	ldr	r0, [pc, #12]	; 8b14 <hash_print+0x30>
    8b04:	e1a01005 	mov	r1, r5
    8b08:	e1a03004 	mov	r3, r4
    8b0c:	eb0005b3 	bl	a1e0 <printk>
    8b10:	e8bd8038 	pop	{r3, r4, r5, pc}
    8b14:	0000b50c 	andeq	fp, r0, ip, lsl #10

00008b18 <domain_acl_print>:
    8b18:	e92d4008 	push	{r3, lr}
    8b1c:	e59f0014 	ldr	r0, [pc, #20]	; 8b38 <domain_acl_print+0x20>
    8b20:	eb0005ae 	bl	a1e0 <printk>
    8b24:	ebffffa8 	bl	89cc <read_domain_access_ctrl>
    8b28:	e1a01000 	mov	r1, r0
    8b2c:	e59f0008 	ldr	r0, [pc, #8]	; 8b3c <domain_acl_print+0x24>
    8b30:	eb0005aa 	bl	a1e0 <printk>
    8b34:	e8bd8008 	pop	{r3, pc}
    8b38:	0000b528 	andeq	fp, r0, r8, lsr #10
    8b3c:	0000b540 	andeq	fp, r0, r0, asr #10

00008b40 <control_reg1_check_offsets>:
    8b40:	e52de004 	push	{lr}		; (str lr, [sp, #-4]!)
    8b44:	e49df004 	pop	{pc}		; (ldr pc, [sp], #4)

00008b48 <control_reg1_sanity_check>:
    8b48:	e52de004 	push	{lr}		; (str lr, [sp, #-4]!)
    8b4c:	e24dd00c 	sub	sp, sp, #12
    8b50:	e5d03000 	ldrb	r3, [r0]
    8b54:	e1a03223 	lsr	r3, r3, #4
    8b58:	e2033007 	and	r3, r3, #7
    8b5c:	e3530007 	cmp	r3, #7
    8b60:	0a000008 	beq	8b88 <control_reg1_sanity_check+0x40>
    8b64:	eb0005b8 	bl	a24c <rpi_reset_putc>
    8b68:	e59f31a0 	ldr	r3, [pc, #416]	; 8d10 <control_reg1_sanity_check+0x1c8>
    8b6c:	e58d3000 	str	r3, [sp]
    8b70:	e59f019c 	ldr	r0, [pc, #412]	; 8d14 <control_reg1_sanity_check+0x1cc>
    8b74:	e59f119c 	ldr	r1, [pc, #412]	; 8d18 <control_reg1_sanity_check+0x1d0>
    8b78:	e59f219c 	ldr	r2, [pc, #412]	; 8d1c <control_reg1_sanity_check+0x1d4>
    8b7c:	e3a0303b 	mov	r3, #59	; 0x3b
    8b80:	eb000596 	bl	a1e0 <printk>
    8b84:	eb000725 	bl	a820 <clean_reboot>
    8b88:	e5d03002 	ldrb	r3, [r0, #2]
    8b8c:	e3130001 	tst	r3, #1
    8b90:	1a000008 	bne	8bb8 <control_reg1_sanity_check+0x70>
    8b94:	eb0005ac 	bl	a24c <rpi_reset_putc>
    8b98:	e59f3180 	ldr	r3, [pc, #384]	; 8d20 <control_reg1_sanity_check+0x1d8>
    8b9c:	e58d3000 	str	r3, [sp]
    8ba0:	e59f016c 	ldr	r0, [pc, #364]	; 8d14 <control_reg1_sanity_check+0x1cc>
    8ba4:	e59f116c 	ldr	r1, [pc, #364]	; 8d18 <control_reg1_sanity_check+0x1d0>
    8ba8:	e59f216c 	ldr	r2, [pc, #364]	; 8d1c <control_reg1_sanity_check+0x1d4>
    8bac:	e3a0303c 	mov	r3, #60	; 0x3c
    8bb0:	eb00058a 	bl	a1e0 <printk>
    8bb4:	eb000719 	bl	a820 <clean_reboot>
    8bb8:	e5d03002 	ldrb	r3, [r0, #2]
    8bbc:	e3130004 	tst	r3, #4
    8bc0:	1a000008 	bne	8be8 <control_reg1_sanity_check+0xa0>
    8bc4:	eb0005a0 	bl	a24c <rpi_reset_putc>
    8bc8:	e59f3154 	ldr	r3, [pc, #340]	; 8d24 <control_reg1_sanity_check+0x1dc>
    8bcc:	e58d3000 	str	r3, [sp]
    8bd0:	e59f013c 	ldr	r0, [pc, #316]	; 8d14 <control_reg1_sanity_check+0x1cc>
    8bd4:	e59f113c 	ldr	r1, [pc, #316]	; 8d18 <control_reg1_sanity_check+0x1d0>
    8bd8:	e59f213c 	ldr	r2, [pc, #316]	; 8d1c <control_reg1_sanity_check+0x1d4>
    8bdc:	e3a0303d 	mov	r3, #61	; 0x3d
    8be0:	eb00057e 	bl	a1e0 <printk>
    8be4:	eb00070d 	bl	a820 <clean_reboot>
    8be8:	e5d03002 	ldrb	r3, [r0, #2]
    8bec:	e3130002 	tst	r3, #2
    8bf0:	0a000008 	beq	8c18 <control_reg1_sanity_check+0xd0>
    8bf4:	eb000594 	bl	a24c <rpi_reset_putc>
    8bf8:	e59f3128 	ldr	r3, [pc, #296]	; 8d28 <control_reg1_sanity_check+0x1e0>
    8bfc:	e58d3000 	str	r3, [sp]
    8c00:	e59f010c 	ldr	r0, [pc, #268]	; 8d14 <control_reg1_sanity_check+0x1cc>
    8c04:	e59f110c 	ldr	r1, [pc, #268]	; 8d18 <control_reg1_sanity_check+0x1d0>
    8c08:	e59f210c 	ldr	r2, [pc, #268]	; 8d1c <control_reg1_sanity_check+0x1d4>
    8c0c:	e3a03040 	mov	r3, #64	; 0x40
    8c10:	eb000572 	bl	a1e0 <printk>
    8c14:	eb000701 	bl	a820 <clean_reboot>
    8c18:	e5d03002 	ldrb	r3, [r0, #2]
    8c1c:	e3130008 	tst	r3, #8
    8c20:	0a000008 	beq	8c48 <control_reg1_sanity_check+0x100>
    8c24:	eb000588 	bl	a24c <rpi_reset_putc>
    8c28:	e59f30fc 	ldr	r3, [pc, #252]	; 8d2c <control_reg1_sanity_check+0x1e4>
    8c2c:	e58d3000 	str	r3, [sp]
    8c30:	e59f00dc 	ldr	r0, [pc, #220]	; 8d14 <control_reg1_sanity_check+0x1cc>
    8c34:	e59f10dc 	ldr	r1, [pc, #220]	; 8d18 <control_reg1_sanity_check+0x1d0>
    8c38:	e59f20dc 	ldr	r2, [pc, #220]	; 8d1c <control_reg1_sanity_check+0x1d4>
    8c3c:	e3a03041 	mov	r3, #65	; 0x41
    8c40:	eb000566 	bl	a1e0 <printk>
    8c44:	eb0006f5 	bl	a820 <clean_reboot>
    8c48:	e5d03002 	ldrb	r3, [r0, #2]
    8c4c:	e3130010 	tst	r3, #16
    8c50:	0a000008 	beq	8c78 <control_reg1_sanity_check+0x130>
    8c54:	eb00057c 	bl	a24c <rpi_reset_putc>
    8c58:	e59f30d0 	ldr	r3, [pc, #208]	; 8d30 <control_reg1_sanity_check+0x1e8>
    8c5c:	e58d3000 	str	r3, [sp]
    8c60:	e59f00ac 	ldr	r0, [pc, #172]	; 8d14 <control_reg1_sanity_check+0x1cc>
    8c64:	e59f10ac 	ldr	r1, [pc, #172]	; 8d18 <control_reg1_sanity_check+0x1d0>
    8c68:	e59f20ac 	ldr	r2, [pc, #172]	; 8d1c <control_reg1_sanity_check+0x1d4>
    8c6c:	e3a03042 	mov	r3, #66	; 0x42
    8c70:	eb00055a 	bl	a1e0 <printk>
    8c74:	eb0006e9 	bl	a820 <clean_reboot>
    8c78:	e5d03003 	ldrb	r3, [r0, #3]
    8c7c:	e3130004 	tst	r3, #4
    8c80:	0a000008 	beq	8ca8 <control_reg1_sanity_check+0x160>
    8c84:	eb000570 	bl	a24c <rpi_reset_putc>
    8c88:	e59f30a4 	ldr	r3, [pc, #164]	; 8d34 <control_reg1_sanity_check+0x1ec>
    8c8c:	e58d3000 	str	r3, [sp]
    8c90:	e59f007c 	ldr	r0, [pc, #124]	; 8d14 <control_reg1_sanity_check+0x1cc>
    8c94:	e59f107c 	ldr	r1, [pc, #124]	; 8d18 <control_reg1_sanity_check+0x1d0>
    8c98:	e59f207c 	ldr	r2, [pc, #124]	; 8d1c <control_reg1_sanity_check+0x1d4>
    8c9c:	e3a0304b 	mov	r3, #75	; 0x4b
    8ca0:	eb00054e 	bl	a1e0 <printk>
    8ca4:	eb0006dd 	bl	a820 <clean_reboot>
    8ca8:	e5d03001 	ldrb	r3, [r0, #1]
    8cac:	e3130010 	tst	r3, #16
    8cb0:	0a000008 	beq	8cd8 <control_reg1_sanity_check+0x190>
    8cb4:	eb000564 	bl	a24c <rpi_reset_putc>
    8cb8:	e59f3078 	ldr	r3, [pc, #120]	; 8d38 <control_reg1_sanity_check+0x1f0>
    8cbc:	e58d3000 	str	r3, [sp]
    8cc0:	e59f004c 	ldr	r0, [pc, #76]	; 8d14 <control_reg1_sanity_check+0x1cc>
    8cc4:	e59f104c 	ldr	r1, [pc, #76]	; 8d18 <control_reg1_sanity_check+0x1d0>
    8cc8:	e59f204c 	ldr	r2, [pc, #76]	; 8d1c <control_reg1_sanity_check+0x1d4>
    8ccc:	e3a0304c 	mov	r3, #76	; 0x4c
    8cd0:	eb000542 	bl	a1e0 <printk>
    8cd4:	eb0006d1 	bl	a820 <clean_reboot>
    8cd8:	e5d03000 	ldrb	r3, [r0]
    8cdc:	e3130004 	tst	r3, #4
    8ce0:	0a000008 	beq	8d08 <control_reg1_sanity_check+0x1c0>
    8ce4:	eb000558 	bl	a24c <rpi_reset_putc>
    8ce8:	e59f304c 	ldr	r3, [pc, #76]	; 8d3c <control_reg1_sanity_check+0x1f4>
    8cec:	e58d3000 	str	r3, [sp]
    8cf0:	e59f001c 	ldr	r0, [pc, #28]	; 8d14 <control_reg1_sanity_check+0x1cc>
    8cf4:	e59f101c 	ldr	r1, [pc, #28]	; 8d18 <control_reg1_sanity_check+0x1d0>
    8cf8:	e59f201c 	ldr	r2, [pc, #28]	; 8d1c <control_reg1_sanity_check+0x1d4>
    8cfc:	e3a0304d 	mov	r3, #77	; 0x4d
    8d00:	eb000536 	bl	a1e0 <printk>
    8d04:	eb0006c5 	bl	a820 <clean_reboot>
    8d08:	e28dd00c 	add	sp, sp, #12
    8d0c:	e49df004 	pop	{pc}		; (ldr pc, [sp], #4)
    8d10:	0000b6a4 	andeq	fp, r0, r4, lsr #13
    8d14:	0000afb8 			; <UNDEFINED> instruction: 0x0000afb8
    8d18:	0000b590 	muleq	r0, r0, r5
    8d1c:	0000b8e4 	andeq	fp, r0, r4, ror #17
    8d20:	0000b6bc 			; <UNDEFINED> instruction: 0x0000b6bc
    8d24:	0000b6c8 	andeq	fp, r0, r8, asr #13
    8d28:	0000b6d4 	ldrdeq	fp, [r0], -r4
    8d2c:	0000b6e4 	andeq	fp, r0, r4, ror #13
    8d30:	0000b6f4 	strdeq	fp, [r0], -r4
    8d34:	0000b700 	andeq	fp, r0, r0, lsl #14
    8d38:	0000b710 	andeq	fp, r0, r0, lsl r7
    8d3c:	0000b724 	andeq	fp, r0, r4, lsr #14

00008d40 <control_reg1_print>:
    8d40:	e92d4010 	push	{r4, lr}
    8d44:	e1a04000 	mov	r4, r0
    8d48:	ebffff7e 	bl	8b48 <control_reg1_sanity_check>
    8d4c:	e59f01a0 	ldr	r0, [pc, #416]	; 8ef4 <control_reg1_print+0x1b4>
    8d50:	eb000522 	bl	a1e0 <printk>
    8d54:	e5d41003 	ldrb	r1, [r4, #3]
    8d58:	e1a012a1 	lsr	r1, r1, #5
    8d5c:	e59f0194 	ldr	r0, [pc, #404]	; 8ef8 <control_reg1_print+0x1b8>
    8d60:	e2011001 	and	r1, r1, #1
    8d64:	e59f2190 	ldr	r2, [pc, #400]	; 8efc <control_reg1_print+0x1bc>
    8d68:	eb00051c 	bl	a1e0 <printk>
    8d6c:	e5d41003 	ldrb	r1, [r4, #3]
    8d70:	e1a01221 	lsr	r1, r1, #4
    8d74:	e59f017c 	ldr	r0, [pc, #380]	; 8ef8 <control_reg1_print+0x1b8>
    8d78:	e2011001 	and	r1, r1, #1
    8d7c:	e59f217c 	ldr	r2, [pc, #380]	; 8f00 <control_reg1_print+0x1c0>
    8d80:	eb000516 	bl	a1e0 <printk>
    8d84:	e5d41003 	ldrb	r1, [r4, #3]
    8d88:	e1a01121 	lsr	r1, r1, #2
    8d8c:	e59f0164 	ldr	r0, [pc, #356]	; 8ef8 <control_reg1_print+0x1b8>
    8d90:	e2011001 	and	r1, r1, #1
    8d94:	e59f2168 	ldr	r2, [pc, #360]	; 8f04 <control_reg1_print+0x1c4>
    8d98:	eb000510 	bl	a1e0 <printk>
    8d9c:	e5d41003 	ldrb	r1, [r4, #3]
    8da0:	e1a010a1 	lsr	r1, r1, #1
    8da4:	e59f014c 	ldr	r0, [pc, #332]	; 8ef8 <control_reg1_print+0x1b8>
    8da8:	e2011001 	and	r1, r1, #1
    8dac:	e59f2154 	ldr	r2, [pc, #340]	; 8f08 <control_reg1_print+0x1c8>
    8db0:	eb00050a 	bl	a1e0 <printk>
    8db4:	e5d41003 	ldrb	r1, [r4, #3]
    8db8:	e59f0138 	ldr	r0, [pc, #312]	; 8ef8 <control_reg1_print+0x1b8>
    8dbc:	e2011001 	and	r1, r1, #1
    8dc0:	e59f2144 	ldr	r2, [pc, #324]	; 8f0c <control_reg1_print+0x1cc>
    8dc4:	eb000505 	bl	a1e0 <printk>
    8dc8:	e5d41002 	ldrb	r1, [r4, #2]
    8dcc:	e59f0124 	ldr	r0, [pc, #292]	; 8ef8 <control_reg1_print+0x1b8>
    8dd0:	e1a013a1 	lsr	r1, r1, #7
    8dd4:	e59f2134 	ldr	r2, [pc, #308]	; 8f10 <control_reg1_print+0x1d0>
    8dd8:	eb000500 	bl	a1e0 <printk>
    8ddc:	e5d41002 	ldrb	r1, [r4, #2]
    8de0:	e1a01321 	lsr	r1, r1, #6
    8de4:	e59f010c 	ldr	r0, [pc, #268]	; 8ef8 <control_reg1_print+0x1b8>
    8de8:	e2011001 	and	r1, r1, #1
    8dec:	e59f2120 	ldr	r2, [pc, #288]	; 8f14 <control_reg1_print+0x1d4>
    8df0:	eb0004fa 	bl	a1e0 <printk>
    8df4:	e5d41002 	ldrb	r1, [r4, #2]
    8df8:	e1a012a1 	lsr	r1, r1, #5
    8dfc:	e59f00f4 	ldr	r0, [pc, #244]	; 8ef8 <control_reg1_print+0x1b8>
    8e00:	e2011001 	and	r1, r1, #1
    8e04:	e59f210c 	ldr	r2, [pc, #268]	; 8f18 <control_reg1_print+0x1d8>
    8e08:	eb0004f4 	bl	a1e0 <printk>
    8e0c:	e5d41001 	ldrb	r1, [r4, #1]
    8e10:	e1a01321 	lsr	r1, r1, #6
    8e14:	e59f00dc 	ldr	r0, [pc, #220]	; 8ef8 <control_reg1_print+0x1b8>
    8e18:	e2011001 	and	r1, r1, #1
    8e1c:	e59f20f8 	ldr	r2, [pc, #248]	; 8f1c <control_reg1_print+0x1dc>
    8e20:	eb0004ee 	bl	a1e0 <printk>
    8e24:	e5d41001 	ldrb	r1, [r4, #1]
    8e28:	e1a01221 	lsr	r1, r1, #4
    8e2c:	e59f00c4 	ldr	r0, [pc, #196]	; 8ef8 <control_reg1_print+0x1b8>
    8e30:	e2011001 	and	r1, r1, #1
    8e34:	e59f20e4 	ldr	r2, [pc, #228]	; 8f20 <control_reg1_print+0x1e0>
    8e38:	eb0004e8 	bl	a1e0 <printk>
    8e3c:	e5d41001 	ldrb	r1, [r4, #1]
    8e40:	e1a011a1 	lsr	r1, r1, #3
    8e44:	e59f00ac 	ldr	r0, [pc, #172]	; 8ef8 <control_reg1_print+0x1b8>
    8e48:	e2011001 	and	r1, r1, #1
    8e4c:	e59f20d0 	ldr	r2, [pc, #208]	; 8f24 <control_reg1_print+0x1e4>
    8e50:	eb0004e2 	bl	a1e0 <printk>
    8e54:	e5d41001 	ldrb	r1, [r4, #1]
    8e58:	e1a010a1 	lsr	r1, r1, #1
    8e5c:	e59f0094 	ldr	r0, [pc, #148]	; 8ef8 <control_reg1_print+0x1b8>
    8e60:	e2011001 	and	r1, r1, #1
    8e64:	e59f20bc 	ldr	r2, [pc, #188]	; 8f28 <control_reg1_print+0x1e8>
    8e68:	eb0004dc 	bl	a1e0 <printk>
    8e6c:	e5d41001 	ldrb	r1, [r4, #1]
    8e70:	e59f0080 	ldr	r0, [pc, #128]	; 8ef8 <control_reg1_print+0x1b8>
    8e74:	e2011001 	and	r1, r1, #1
    8e78:	e59f20ac 	ldr	r2, [pc, #172]	; 8f2c <control_reg1_print+0x1ec>
    8e7c:	eb0004d7 	bl	a1e0 <printk>
    8e80:	e5d41000 	ldrb	r1, [r4]
    8e84:	e59f006c 	ldr	r0, [pc, #108]	; 8ef8 <control_reg1_print+0x1b8>
    8e88:	e1a013a1 	lsr	r1, r1, #7
    8e8c:	e59f209c 	ldr	r2, [pc, #156]	; 8f30 <control_reg1_print+0x1f0>
    8e90:	eb0004d2 	bl	a1e0 <printk>
    8e94:	e5d41000 	ldrb	r1, [r4]
    8e98:	e1a011a1 	lsr	r1, r1, #3
    8e9c:	e59f0054 	ldr	r0, [pc, #84]	; 8ef8 <control_reg1_print+0x1b8>
    8ea0:	e2011001 	and	r1, r1, #1
    8ea4:	e59f2088 	ldr	r2, [pc, #136]	; 8f34 <control_reg1_print+0x1f4>
    8ea8:	eb0004cc 	bl	a1e0 <printk>
    8eac:	e5d41000 	ldrb	r1, [r4]
    8eb0:	e1a01121 	lsr	r1, r1, #2
    8eb4:	e59f003c 	ldr	r0, [pc, #60]	; 8ef8 <control_reg1_print+0x1b8>
    8eb8:	e2011001 	and	r1, r1, #1
    8ebc:	e59f2074 	ldr	r2, [pc, #116]	; 8f38 <control_reg1_print+0x1f8>
    8ec0:	eb0004c6 	bl	a1e0 <printk>
    8ec4:	e5d41000 	ldrb	r1, [r4]
    8ec8:	e1a010a1 	lsr	r1, r1, #1
    8ecc:	e59f0024 	ldr	r0, [pc, #36]	; 8ef8 <control_reg1_print+0x1b8>
    8ed0:	e2011001 	and	r1, r1, #1
    8ed4:	e59f2060 	ldr	r2, [pc, #96]	; 8f3c <control_reg1_print+0x1fc>
    8ed8:	eb0004c0 	bl	a1e0 <printk>
    8edc:	e5d41000 	ldrb	r1, [r4]
    8ee0:	e59f0010 	ldr	r0, [pc, #16]	; 8ef8 <control_reg1_print+0x1b8>
    8ee4:	e2011001 	and	r1, r1, #1
    8ee8:	e59f2050 	ldr	r2, [pc, #80]	; 8f40 <control_reg1_print+0x200>
    8eec:	eb0004bb 	bl	a1e0 <printk>
    8ef0:	e8bd8010 	pop	{r4, pc}
    8ef4:	0000b73c 	andeq	fp, r0, ip, lsr r7
    8ef8:	0000b754 	andeq	fp, r0, r4, asr r7
    8efc:	0000b698 	muleq	r0, r8, r6
    8f00:	0000b688 	andeq	fp, r0, r8, lsl #13
    8f04:	0000b704 	andeq	fp, r0, r4, lsl #14
    8f08:	0000b684 	andeq	fp, r0, r4, lsl #13
    8f0c:	0000b678 	andeq	fp, r0, r8, ror r6
    8f10:	0000b670 	andeq	fp, r0, r0, ror r6
    8f14:	0000b664 	andeq	fp, r0, r4, ror #12
    8f18:	0000b660 	andeq	fp, r0, r0, ror #12
    8f1c:	0000b64c 	andeq	fp, r0, ip, asr #12
    8f20:	0000b714 	andeq	fp, r0, r4, lsl r7
    8f24:	0000b62c 	andeq	fp, r0, ip, lsr #12
    8f28:	0000b61c 	andeq	fp, r0, ip, lsl r6
    8f2c:	0000b614 	andeq	fp, r0, r4, lsl r6
    8f30:	0000b608 	andeq	fp, r0, r8, lsl #12
    8f34:	0000b5fc 	strdeq	fp, [r0], -ip
    8f38:	0000b728 	andeq	fp, r0, r8, lsr #14
    8f3c:	0000b5f0 	strdeq	fp, [r0], -r0
    8f40:	0000b460 	andeq	fp, r0, r0, ror #8

00008f44 <tlb_config_check_offsets>:
    8f44:	e52de004 	push	{lr}		; (str lr, [sp, #-4]!)
    8f48:	e49df004 	pop	{pc}		; (ldr pc, [sp], #4)

00008f4c <tlb_config_print>:
    8f4c:	e92d4010 	push	{r4, lr}
    8f50:	e1a04000 	mov	r4, r0
    8f54:	e59f002c 	ldr	r0, [pc, #44]	; 8f88 <tlb_config_print+0x3c>
    8f58:	eb0004a0 	bl	a1e0 <printk>
    8f5c:	e5d41000 	ldrb	r1, [r4]
    8f60:	e59f0024 	ldr	r0, [pc, #36]	; 8f8c <tlb_config_print+0x40>
    8f64:	e2011001 	and	r1, r1, #1
    8f68:	eb00049c 	bl	a1e0 <printk>
    8f6c:	e59f001c 	ldr	r0, [pc, #28]	; 8f90 <tlb_config_print+0x44>
    8f70:	e5d41001 	ldrb	r1, [r4, #1]
    8f74:	eb000499 	bl	a1e0 <printk>
    8f78:	e59f0014 	ldr	r0, [pc, #20]	; 8f94 <tlb_config_print+0x48>
    8f7c:	e5d41002 	ldrb	r1, [r4, #2]
    8f80:	eb000496 	bl	a1e0 <printk>
    8f84:	e8bd8010 	pop	{r4, pc}
    8f88:	0000b78c 	andeq	fp, r0, ip, lsl #15
    8f8c:	0000b79c 	muleq	r0, ip, r7
    8f90:	0000b7ac 	andeq	fp, r0, ip, lsr #15
    8f94:	0000b7c4 	andeq	fp, r0, r4, asr #15

00008f98 <fld_check_valid>:
    8f98:	e52de004 	push	{lr}		; (str lr, [sp, #-4]!)
    8f9c:	e24dd00c 	sub	sp, sp, #12
    8fa0:	e5d03002 	ldrb	r3, [r0, #2]
    8fa4:	e3130008 	tst	r3, #8
    8fa8:	0a000008 	beq	8fd0 <fld_check_valid+0x38>
    8fac:	eb0004a6 	bl	a24c <rpi_reset_putc>
    8fb0:	e59f3174 	ldr	r3, [pc, #372]	; 912c <fld_check_valid+0x194>
    8fb4:	e58d3000 	str	r3, [sp]
    8fb8:	e59f0170 	ldr	r0, [pc, #368]	; 9130 <fld_check_valid+0x198>
    8fbc:	e59f1170 	ldr	r1, [pc, #368]	; 9134 <fld_check_valid+0x19c>
    8fc0:	e59f2170 	ldr	r2, [pc, #368]	; 9138 <fld_check_valid+0x1a0>
    8fc4:	e3a0307d 	mov	r3, #125	; 0x7d
    8fc8:	eb000484 	bl	a1e0 <printk>
    8fcc:	eb000613 	bl	a820 <clean_reboot>
    8fd0:	e5d03000 	ldrb	r3, [r0]
    8fd4:	e2033003 	and	r3, r3, #3
    8fd8:	e3530002 	cmp	r3, #2
    8fdc:	0a000008 	beq	9004 <fld_check_valid+0x6c>
    8fe0:	eb000499 	bl	a24c <rpi_reset_putc>
    8fe4:	e59f3150 	ldr	r3, [pc, #336]	; 913c <fld_check_valid+0x1a4>
    8fe8:	e58d3000 	str	r3, [sp]
    8fec:	e59f013c 	ldr	r0, [pc, #316]	; 9130 <fld_check_valid+0x198>
    8ff0:	e59f113c 	ldr	r1, [pc, #316]	; 9134 <fld_check_valid+0x19c>
    8ff4:	e59f213c 	ldr	r2, [pc, #316]	; 9138 <fld_check_valid+0x1a0>
    8ff8:	e3a0307e 	mov	r3, #126	; 0x7e
    8ffc:	eb000477 	bl	a1e0 <printk>
    9000:	eb000606 	bl	a820 <clean_reboot>
    9004:	e5d03002 	ldrb	r3, [r0, #2]
    9008:	e3130001 	tst	r3, #1
    900c:	0a000008 	beq	9034 <fld_check_valid+0x9c>
    9010:	eb00048d 	bl	a24c <rpi_reset_putc>
    9014:	e59f3124 	ldr	r3, [pc, #292]	; 9140 <fld_check_valid+0x1a8>
    9018:	e58d3000 	str	r3, [sp]
    901c:	e59f010c 	ldr	r0, [pc, #268]	; 9130 <fld_check_valid+0x198>
    9020:	e59f110c 	ldr	r1, [pc, #268]	; 9134 <fld_check_valid+0x19c>
    9024:	e59f210c 	ldr	r2, [pc, #268]	; 9138 <fld_check_valid+0x1a0>
    9028:	e3a0307f 	mov	r3, #127	; 0x7f
    902c:	eb00046b 	bl	a1e0 <printk>
    9030:	eb0005fa 	bl	a820 <clean_reboot>
    9034:	e5d03001 	ldrb	r3, [r0, #1]
    9038:	e3130002 	tst	r3, #2
    903c:	0a000008 	beq	9064 <fld_check_valid+0xcc>
    9040:	eb000481 	bl	a24c <rpi_reset_putc>
    9044:	e59f30f8 	ldr	r3, [pc, #248]	; 9144 <fld_check_valid+0x1ac>
    9048:	e58d3000 	str	r3, [sp]
    904c:	e59f00dc 	ldr	r0, [pc, #220]	; 9130 <fld_check_valid+0x198>
    9050:	e59f10dc 	ldr	r1, [pc, #220]	; 9134 <fld_check_valid+0x19c>
    9054:	e59f20dc 	ldr	r2, [pc, #220]	; 9138 <fld_check_valid+0x1a0>
    9058:	e3a03080 	mov	r3, #128	; 0x80
    905c:	eb00045f 	bl	a1e0 <printk>
    9060:	eb0005ee 	bl	a820 <clean_reboot>
    9064:	e5d03001 	ldrb	r3, [r0, #1]
    9068:	e3130070 	tst	r3, #112	; 0x70
    906c:	0a000008 	beq	9094 <fld_check_valid+0xfc>
    9070:	eb000475 	bl	a24c <rpi_reset_putc>
    9074:	e59f30cc 	ldr	r3, [pc, #204]	; 9148 <fld_check_valid+0x1b0>
    9078:	e58d3000 	str	r3, [sp]
    907c:	e59f00ac 	ldr	r0, [pc, #172]	; 9130 <fld_check_valid+0x198>
    9080:	e59f10ac 	ldr	r1, [pc, #172]	; 9134 <fld_check_valid+0x19c>
    9084:	e59f20ac 	ldr	r2, [pc, #172]	; 9138 <fld_check_valid+0x1a0>
    9088:	e3a03081 	mov	r3, #129	; 0x81
    908c:	eb000453 	bl	a1e0 <printk>
    9090:	eb0005e2 	bl	a820 <clean_reboot>
    9094:	e5d03000 	ldrb	r3, [r0]
    9098:	e3130008 	tst	r3, #8
    909c:	0a000008 	beq	90c4 <fld_check_valid+0x12c>
    90a0:	eb000469 	bl	a24c <rpi_reset_putc>
    90a4:	e59f30a0 	ldr	r3, [pc, #160]	; 914c <fld_check_valid+0x1b4>
    90a8:	e58d3000 	str	r3, [sp]
    90ac:	e59f007c 	ldr	r0, [pc, #124]	; 9130 <fld_check_valid+0x198>
    90b0:	e59f107c 	ldr	r1, [pc, #124]	; 9134 <fld_check_valid+0x19c>
    90b4:	e59f207c 	ldr	r2, [pc, #124]	; 9138 <fld_check_valid+0x1a0>
    90b8:	e3a03082 	mov	r3, #130	; 0x82
    90bc:	eb000447 	bl	a1e0 <printk>
    90c0:	eb0005d6 	bl	a820 <clean_reboot>
    90c4:	e5d03000 	ldrb	r3, [r0]
    90c8:	e3130004 	tst	r3, #4
    90cc:	0a000008 	beq	90f4 <fld_check_valid+0x15c>
    90d0:	eb00045d 	bl	a24c <rpi_reset_putc>
    90d4:	e59f3074 	ldr	r3, [pc, #116]	; 9150 <fld_check_valid+0x1b8>
    90d8:	e58d3000 	str	r3, [sp]
    90dc:	e59f004c 	ldr	r0, [pc, #76]	; 9130 <fld_check_valid+0x198>
    90e0:	e59f104c 	ldr	r1, [pc, #76]	; 9134 <fld_check_valid+0x19c>
    90e4:	e59f204c 	ldr	r2, [pc, #76]	; 9138 <fld_check_valid+0x1a0>
    90e8:	e3a03083 	mov	r3, #131	; 0x83
    90ec:	eb00043b 	bl	a1e0 <printk>
    90f0:	eb0005ca 	bl	a820 <clean_reboot>
    90f4:	e5d03002 	ldrb	r3, [r0, #2]
    90f8:	e3130004 	tst	r3, #4
    90fc:	0a000008 	beq	9124 <fld_check_valid+0x18c>
    9100:	eb000451 	bl	a24c <rpi_reset_putc>
    9104:	e59f3048 	ldr	r3, [pc, #72]	; 9154 <fld_check_valid+0x1bc>
    9108:	e58d3000 	str	r3, [sp]
    910c:	e59f001c 	ldr	r0, [pc, #28]	; 9130 <fld_check_valid+0x198>
    9110:	e59f101c 	ldr	r1, [pc, #28]	; 9134 <fld_check_valid+0x19c>
    9114:	e59f201c 	ldr	r2, [pc, #28]	; 9138 <fld_check_valid+0x1a0>
    9118:	e3a03084 	mov	r3, #132	; 0x84
    911c:	eb00042f 	bl	a1e0 <printk>
    9120:	eb0005be 	bl	a820 <clean_reboot>
    9124:	e28dd00c 	add	sp, sp, #12
    9128:	e49df004 	pop	{pc}		; (ldr pc, [sp], #4)
    912c:	0000b7dc 	ldrdeq	fp, [r0], -ip
    9130:	0000afb8 			; <UNDEFINED> instruction: 0x0000afb8
    9134:	0000b590 	muleq	r0, r0, r5
    9138:	0000b900 	andeq	fp, r0, r0, lsl #18
    913c:	0000b7ec 	andeq	fp, r0, ip, ror #15
    9140:	0000b7fc 	strdeq	fp, [r0], -ip
    9144:	0000b808 	andeq	fp, r0, r8, lsl #16
    9148:	0000b814 	andeq	fp, r0, r4, lsl r8
    914c:	0000b820 	andeq	fp, r0, r0, lsr #16
    9150:	0000b82c 	andeq	fp, r0, ip, lsr #16
    9154:	0000b838 	andeq	fp, r0, r8, lsr r8

00009158 <fld_mk>:
    9158:	e3a00002 	mov	r0, #2
    915c:	e12fff1e 	bx	lr

00009160 <fld_check_offsets>:
    9160:	e92d4010 	push	{r4, lr}
    9164:	e24dd020 	sub	sp, sp, #32
    9168:	ebfffffa 	bl	9158 <fld_mk>
    916c:	e28d3020 	add	r3, sp, #32
    9170:	e5230004 	str	r0, [r3, #-4]!
    9174:	e1a00003 	mov	r0, r3
    9178:	ebffff86 	bl	8f98 <fld_check_valid>
    917c:	e59f4074 	ldr	r4, [pc, #116]	; 91f8 <fld_check_offsets+0x98>
    9180:	e1540004 	cmp	r4, r4
    9184:	0a00000e 	beq	91c4 <fld_check_offsets+0x64>
    9188:	eb00042f 	bl	a24c <rpi_reset_putc>
    918c:	e58d4000 	str	r4, [sp]
    9190:	e58d4004 	str	r4, [sp, #4]
    9194:	e59f3060 	ldr	r3, [pc, #96]	; 91fc <fld_check_offsets+0x9c>
    9198:	e58d3008 	str	r3, [sp, #8]
    919c:	e3a03014 	mov	r3, #20
    91a0:	e58d300c 	str	r3, [sp, #12]
    91a4:	e3a0300c 	mov	r3, #12
    91a8:	e58d3010 	str	r3, [sp, #16]
    91ac:	e59f004c 	ldr	r0, [pc, #76]	; 9200 <fld_check_offsets+0xa0>
    91b0:	e59f104c 	ldr	r1, [pc, #76]	; 9204 <fld_check_offsets+0xa4>
    91b4:	e59f204c 	ldr	r2, [pc, #76]	; 9208 <fld_check_offsets+0xa8>
    91b8:	e3a030a0 	mov	r3, #160	; 0xa0
    91bc:	eb000407 	bl	a1e0 <printk>
    91c0:	eb000596 	bl	a820 <clean_reboot>
    91c4:	e3740601 	cmn	r4, #1048576	; 0x100000
    91c8:	0a000008 	beq	91f0 <fld_check_offsets+0x90>
    91cc:	eb00041e 	bl	a24c <rpi_reset_putc>
    91d0:	e59f3034 	ldr	r3, [pc, #52]	; 920c <fld_check_offsets+0xac>
    91d4:	e58d3000 	str	r3, [sp]
    91d8:	e59f0030 	ldr	r0, [pc, #48]	; 9210 <fld_check_offsets+0xb0>
    91dc:	e59f1020 	ldr	r1, [pc, #32]	; 9204 <fld_check_offsets+0xa4>
    91e0:	e59f2020 	ldr	r2, [pc, #32]	; 9208 <fld_check_offsets+0xa8>
    91e4:	e3a030a0 	mov	r3, #160	; 0xa0
    91e8:	eb0003fc 	bl	a1e0 <printk>
    91ec:	eb00058b 	bl	a820 <clean_reboot>
    91f0:	e28dd020 	add	sp, sp, #32
    91f4:	e8bd8010 	pop	{r4, pc}
    91f8:	fff00000 			; <UNDEFINED> instruction: 0xfff00000	; IMB
    91fc:	0000b880 	andeq	fp, r0, r0, lsl #17
    9200:	0000b5ac 	andeq	fp, r0, ip, lsr #11
    9204:	0000b590 	muleq	r0, r0, r5
    9208:	0000b948 	andeq	fp, r0, r8, asr #18
    920c:	0000b5a0 	andeq	fp, r0, r0, lsr #11
    9210:	0000afb8 			; <UNDEFINED> instruction: 0x0000afb8

00009214 <fld_print>:
    9214:	e92d4010 	push	{r4, lr}
    9218:	e1a04000 	mov	r4, r0
    921c:	e59f0178 	ldr	r0, [pc, #376]	; 939c <fld_print+0x188>
    9220:	eb0003ee 	bl	a1e0 <printk>
    9224:	e59f0174 	ldr	r0, [pc, #372]	; 93a0 <fld_print+0x18c>
    9228:	e1a01004 	mov	r1, r4
    922c:	eb0003eb 	bl	a1e0 <printk>
    9230:	e1d410b2 	ldrh	r1, [r4, #2]
    9234:	e59f0168 	ldr	r0, [pc, #360]	; 93a4 <fld_print+0x190>
    9238:	e1a01221 	lsr	r1, r1, #4
    923c:	e59f2164 	ldr	r2, [pc, #356]	; 93a8 <fld_print+0x194>
    9240:	eb0003e6 	bl	a1e0 <printk>
    9244:	e1d410b2 	ldrh	r1, [r4, #2]
    9248:	e1a01221 	lsr	r1, r1, #4
    924c:	e3510008 	cmp	r1, #8
    9250:	da000001 	ble	925c <fld_print+0x48>
    9254:	e59f0150 	ldr	r0, [pc, #336]	; 93ac <fld_print+0x198>
    9258:	eb0003e0 	bl	a1e0 <printk>
    925c:	e1d410b2 	ldrh	r1, [r4, #2]
    9260:	e1a01221 	lsr	r1, r1, #4
    9264:	e59f0144 	ldr	r0, [pc, #324]	; 93b0 <fld_print+0x19c>
    9268:	e1a01a01 	lsl	r1, r1, #20
    926c:	eb0003db 	bl	a1e0 <printk>
    9270:	e59f013c 	ldr	r0, [pc, #316]	; 93b4 <fld_print+0x1a0>
    9274:	eb0003d9 	bl	a1e0 <printk>
    9278:	e5d41002 	ldrb	r1, [r4, #2]
    927c:	e1a010a1 	lsr	r1, r1, #1
    9280:	e59f011c 	ldr	r0, [pc, #284]	; 93a4 <fld_print+0x190>
    9284:	e2011001 	and	r1, r1, #1
    9288:	e59f2128 	ldr	r2, [pc, #296]	; 93b8 <fld_print+0x1a4>
    928c:	eb0003d3 	bl	a1e0 <printk>
    9290:	e5d41002 	ldrb	r1, [r4, #2]
    9294:	e59f0108 	ldr	r0, [pc, #264]	; 93a4 <fld_print+0x190>
    9298:	e2011001 	and	r1, r1, #1
    929c:	e59f2118 	ldr	r2, [pc, #280]	; 93bc <fld_print+0x1a8>
    92a0:	eb0003ce 	bl	a1e0 <printk>
    92a4:	e5d41001 	ldrb	r1, [r4, #1]
    92a8:	e59f00f4 	ldr	r0, [pc, #244]	; 93a4 <fld_print+0x190>
    92ac:	e1a013a1 	lsr	r1, r1, #7
    92b0:	e59f2108 	ldr	r2, [pc, #264]	; 93c0 <fld_print+0x1ac>
    92b4:	eb0003c9 	bl	a1e0 <printk>
    92b8:	e5d41001 	ldrb	r1, [r4, #1]
    92bc:	e1a01221 	lsr	r1, r1, #4
    92c0:	e59f00dc 	ldr	r0, [pc, #220]	; 93a4 <fld_print+0x190>
    92c4:	e2011007 	and	r1, r1, #7
    92c8:	e59f20f4 	ldr	r2, [pc, #244]	; 93c4 <fld_print+0x1b0>
    92cc:	eb0003c3 	bl	a1e0 <printk>
    92d0:	e5d41001 	ldrb	r1, [r4, #1]
    92d4:	e1a01121 	lsr	r1, r1, #2
    92d8:	e59f00c4 	ldr	r0, [pc, #196]	; 93a4 <fld_print+0x190>
    92dc:	e2011003 	and	r1, r1, #3
    92e0:	e59f20e0 	ldr	r2, [pc, #224]	; 93c8 <fld_print+0x1b4>
    92e4:	eb0003bd 	bl	a1e0 <printk>
    92e8:	e5d41001 	ldrb	r1, [r4, #1]
    92ec:	e1a010a1 	lsr	r1, r1, #1
    92f0:	e59f00ac 	ldr	r0, [pc, #172]	; 93a4 <fld_print+0x190>
    92f4:	e2011001 	and	r1, r1, #1
    92f8:	e59f20cc 	ldr	r2, [pc, #204]	; 93cc <fld_print+0x1b8>
    92fc:	eb0003b7 	bl	a1e0 <printk>
    9300:	e1d410b0 	ldrh	r1, [r4]
    9304:	e1a012a1 	lsr	r1, r1, #5
    9308:	e59f0094 	ldr	r0, [pc, #148]	; 93a4 <fld_print+0x190>
    930c:	e201100f 	and	r1, r1, #15
    9310:	e59f20b8 	ldr	r2, [pc, #184]	; 93d0 <fld_print+0x1bc>
    9314:	eb0003b1 	bl	a1e0 <printk>
    9318:	e1d410b0 	ldrh	r1, [r4]
    931c:	e1a012a1 	lsr	r1, r1, #5
    9320:	e201100f 	and	r1, r1, #15
    9324:	e3510008 	cmp	r1, #8
    9328:	da000001 	ble	9334 <fld_print+0x120>
    932c:	e59f0078 	ldr	r0, [pc, #120]	; 93ac <fld_print+0x198>
    9330:	eb0003aa 	bl	a1e0 <printk>
    9334:	e5d41000 	ldrb	r1, [r4]
    9338:	e1a01221 	lsr	r1, r1, #4
    933c:	e59f0060 	ldr	r0, [pc, #96]	; 93a4 <fld_print+0x190>
    9340:	e2011001 	and	r1, r1, #1
    9344:	e59f2088 	ldr	r2, [pc, #136]	; 93d4 <fld_print+0x1c0>
    9348:	eb0003a4 	bl	a1e0 <printk>
    934c:	e5d41000 	ldrb	r1, [r4]
    9350:	e1a011a1 	lsr	r1, r1, #3
    9354:	e59f0048 	ldr	r0, [pc, #72]	; 93a4 <fld_print+0x190>
    9358:	e2011001 	and	r1, r1, #1
    935c:	e59f2074 	ldr	r2, [pc, #116]	; 93d8 <fld_print+0x1c4>
    9360:	eb00039e 	bl	a1e0 <printk>
    9364:	e5d41000 	ldrb	r1, [r4]
    9368:	e1a01121 	lsr	r1, r1, #2
    936c:	e59f0030 	ldr	r0, [pc, #48]	; 93a4 <fld_print+0x190>
    9370:	e2011001 	and	r1, r1, #1
    9374:	e59f2060 	ldr	r2, [pc, #96]	; 93dc <fld_print+0x1c8>
    9378:	eb000398 	bl	a1e0 <printk>
    937c:	e5d41000 	ldrb	r1, [r4]
    9380:	e59f001c 	ldr	r0, [pc, #28]	; 93a4 <fld_print+0x190>
    9384:	e2011003 	and	r1, r1, #3
    9388:	e59f2050 	ldr	r2, [pc, #80]	; 93e0 <fld_print+0x1cc>
    938c:	eb000393 	bl	a1e0 <printk>
    9390:	e1a00004 	mov	r0, r4
    9394:	ebfffeff 	bl	8f98 <fld_check_valid>
    9398:	e8bd8010 	pop	{r4, pc}
    939c:	0000b890 	muleq	r0, r0, r8
    93a0:	0000b8b0 			; <UNDEFINED> instruction: 0x0000b8b0
    93a4:	0000b754 	andeq	fp, r0, r4, asr r7
    93a8:	0000b880 	andeq	fp, r0, r0, lsl #17
    93ac:	0000b760 	andeq	fp, r0, r0, ror #14
    93b0:	0000b8b8 			; <UNDEFINED> instruction: 0x0000b8b8
    93b4:	0000b8cc 	andeq	fp, r0, ip, asr #17
    93b8:	0000b874 	andeq	fp, r0, r4, ror r8
    93bc:	0000b870 	andeq	fp, r0, r0, ror r8
    93c0:	0000b86c 	andeq	fp, r0, ip, ror #16
    93c4:	0000b868 	andeq	fp, r0, r8, ror #16
    93c8:	0000b864 	andeq	fp, r0, r4, ror #16
    93cc:	0000b860 	andeq	fp, r0, r0, ror #16
    93d0:	0000b858 	andeq	fp, r0, r8, asr r8
    93d4:	0000b854 	andeq	fp, r0, r4, asr r8
    93d8:	0000b850 	andeq	fp, r0, r0, asr r8
    93dc:	0000b84c 	andeq	fp, r0, ip, asr #16
    93e0:	0000b848 	andeq	fp, r0, r8, asr #16

000093e4 <check_vm_structs>:
    93e4:	e92d4008 	push	{r3, lr}
    93e8:	ebfffdd4 	bl	8b40 <control_reg1_check_offsets>
    93ec:	ebfffed4 	bl	8f44 <tlb_config_check_offsets>
    93f0:	ebffff5a 	bl	9160 <fld_check_offsets>
    93f4:	e8bd8008 	pop	{r3, pc}

000093f8 <last_fault_get>:
    93f8:	e1a03000 	mov	r3, r0
    93fc:	e59f200c 	ldr	r2, [pc, #12]	; 9410 <last_fault_get+0x18>
    9400:	e8920007 	ldm	r2, {r0, r1, r2}
    9404:	e8830007 	stm	r3, {r0, r1, r2}
    9408:	e1a00003 	mov	r0, r3
    940c:	e12fff1e 	bx	lr
    9410:	0000c234 	andeq	ip, r0, r4, lsr r2

00009414 <last_fault_set>:
    9414:	e59f300c 	ldr	r3, [pc, #12]	; 9428 <last_fault_set+0x14>
    9418:	e5831000 	str	r1, [r3]
    941c:	e5830004 	str	r0, [r3, #4]
    9420:	e5832008 	str	r2, [r3, #8]
    9424:	e12fff1e 	bx	lr
    9428:	0000c234 	andeq	ip, r0, r4, lsr r2

0000942c <fault_expected>:
    942c:	e92d4070 	push	{r4, r5, r6, lr}
    9430:	e24dd018 	sub	sp, sp, #24
    9434:	e1a06000 	mov	r6, r0
    9438:	e1a04001 	mov	r4, r1
    943c:	e1a05002 	mov	r5, r2
    9440:	e28d000c 	add	r0, sp, #12
    9444:	ebffffeb 	bl	93f8 <last_fault_get>
    9448:	e59d300c 	ldr	r3, [sp, #12]
    944c:	e1530004 	cmp	r3, r4
    9450:	0a000008 	beq	9478 <fault_expected+0x4c>
    9454:	eb00037c 	bl	a24c <rpi_reset_putc>
    9458:	e59f309c 	ldr	r3, [pc, #156]	; 94fc <fault_expected+0xd0>
    945c:	e58d3000 	str	r3, [sp]
    9460:	e59f0098 	ldr	r0, [pc, #152]	; 9500 <fault_expected+0xd4>
    9464:	e59f1098 	ldr	r1, [pc, #152]	; 9504 <fault_expected+0xd8>
    9468:	e59f2098 	ldr	r2, [pc, #152]	; 9508 <fault_expected+0xdc>
    946c:	e3a03028 	mov	r3, #40	; 0x28
    9470:	eb00035a 	bl	a1e0 <printk>
    9474:	eb0004e9 	bl	a820 <clean_reboot>
    9478:	e59d3010 	ldr	r3, [sp, #16]
    947c:	e1530006 	cmp	r3, r6
    9480:	0a000008 	beq	94a8 <fault_expected+0x7c>
    9484:	eb000370 	bl	a24c <rpi_reset_putc>
    9488:	e59f307c 	ldr	r3, [pc, #124]	; 950c <fault_expected+0xe0>
    948c:	e58d3000 	str	r3, [sp]
    9490:	e59f0068 	ldr	r0, [pc, #104]	; 9500 <fault_expected+0xd4>
    9494:	e59f1068 	ldr	r1, [pc, #104]	; 9504 <fault_expected+0xd8>
    9498:	e59f2068 	ldr	r2, [pc, #104]	; 9508 <fault_expected+0xdc>
    949c:	e3a03029 	mov	r3, #41	; 0x29
    94a0:	eb00034e 	bl	a1e0 <printk>
    94a4:	eb0004dd 	bl	a820 <clean_reboot>
    94a8:	e59d3014 	ldr	r3, [sp, #20]
    94ac:	e1530005 	cmp	r3, r5
    94b0:	0a000008 	beq	94d8 <fault_expected+0xac>
    94b4:	eb000364 	bl	a24c <rpi_reset_putc>
    94b8:	e59f3050 	ldr	r3, [pc, #80]	; 9510 <fault_expected+0xe4>
    94bc:	e58d3000 	str	r3, [sp]
    94c0:	e59f0038 	ldr	r0, [pc, #56]	; 9500 <fault_expected+0xd4>
    94c4:	e59f1038 	ldr	r1, [pc, #56]	; 9504 <fault_expected+0xd8>
    94c8:	e59f2038 	ldr	r2, [pc, #56]	; 9508 <fault_expected+0xdc>
    94cc:	e3a0302a 	mov	r3, #42	; 0x2a
    94d0:	eb000342 	bl	a1e0 <printk>
    94d4:	eb0004d1 	bl	a820 <clean_reboot>
    94d8:	e59f0034 	ldr	r0, [pc, #52]	; 9514 <fault_expected+0xe8>
    94dc:	eb00033f 	bl	a1e0 <printk>
    94e0:	e59f0030 	ldr	r0, [pc, #48]	; 9518 <fault_expected+0xec>
    94e4:	e1a01006 	mov	r1, r6
    94e8:	e1a02004 	mov	r2, r4
    94ec:	e1a03005 	mov	r3, r5
    94f0:	eb00033a 	bl	a1e0 <printk>
    94f4:	e28dd018 	add	sp, sp, #24
    94f8:	e8bd8070 	pop	{r4, r5, r6, pc}
    94fc:	0000b968 	andeq	fp, r0, r8, ror #18
    9500:	0000afb8 			; <UNDEFINED> instruction: 0x0000afb8
    9504:	0000b95c 	andeq	fp, r0, ip, asr r9
    9508:	0000be14 	andeq	fp, r0, r4, lsl lr
    950c:	0000b980 	andeq	fp, r0, r0, lsl #19
    9510:	0000b994 	muleq	r0, r4, r9
    9514:	0000aff4 	strdeq	sl, [r0], -r4
    9518:	0000b9b0 			; <UNDEFINED> instruction: 0x0000b9b0

0000951c <dom_perm_get>:
    951c:	e92d4010 	push	{r4, lr}
    9520:	e24dd008 	sub	sp, sp, #8
    9524:	e1a04000 	mov	r4, r0
    9528:	ebfffd27 	bl	89cc <read_domain_access_ctrl>
    952c:	e1a03084 	lsl	r3, r4, #1
    9530:	e2842001 	add	r2, r4, #1
    9534:	e1a02082 	lsl	r2, r2, #1
    9538:	e1530002 	cmp	r3, r2
    953c:	9a000008 	bls	9564 <dom_perm_get+0x48>
    9540:	eb000341 	bl	a24c <rpi_reset_putc>
    9544:	e59f3060 	ldr	r3, [pc, #96]	; 95ac <dom_perm_get+0x90>
    9548:	e58d3000 	str	r3, [sp]
    954c:	e59f005c 	ldr	r0, [pc, #92]	; 95b0 <dom_perm_get+0x94>
    9550:	e59f105c 	ldr	r1, [pc, #92]	; 95b4 <dom_perm_get+0x98>
    9554:	e59f205c 	ldr	r2, [pc, #92]	; 95b8 <dom_perm_get+0x9c>
    9558:	e3a0301d 	mov	r3, #29
    955c:	eb00031f 	bl	a1e0 <printk>
    9560:	eb0004ae 	bl	a820 <clean_reboot>
    9564:	e352001f 	cmp	r2, #31
    9568:	9a000008 	bls	9590 <dom_perm_get+0x74>
    956c:	eb000336 	bl	a24c <rpi_reset_putc>
    9570:	e59f3044 	ldr	r3, [pc, #68]	; 95bc <dom_perm_get+0xa0>
    9574:	e58d3000 	str	r3, [sp]
    9578:	e59f0030 	ldr	r0, [pc, #48]	; 95b0 <dom_perm_get+0x94>
    957c:	e59f1030 	ldr	r1, [pc, #48]	; 95b4 <dom_perm_get+0x98>
    9580:	e59f2030 	ldr	r2, [pc, #48]	; 95b8 <dom_perm_get+0x9c>
    9584:	e3a0301e 	mov	r3, #30
    9588:	eb000314 	bl	a1e0 <printk>
    958c:	eb0004a3 	bl	a820 <clean_reboot>
    9590:	e0632002 	rsb	r2, r3, r2
    9594:	e2822001 	add	r2, r2, #1
    9598:	e3e01000 	mvn	r1, #0
    959c:	e1e02211 	mvn	r2, r1, lsl r2
    95a0:	e0020330 	and	r0, r2, r0, lsr r3
    95a4:	e28dd008 	add	sp, sp, #8
    95a8:	e8bd8010 	pop	{r4, pc}
    95ac:	0000b9f4 	strdeq	fp, [r0], -r4
    95b0:	0000afb8 			; <UNDEFINED> instruction: 0x0000afb8
    95b4:	0000b9e4 	andeq	fp, r0, r4, ror #19
    95b8:	0000be98 	muleq	r0, r8, lr
    95bc:	0000ba00 	andeq	fp, r0, r0, lsl #20

000095c0 <dom_perm_set>:
    95c0:	e52de004 	push	{lr}		; (str lr, [sp, #-4]!)
    95c4:	e24dd00c 	sub	sp, sp, #12
    95c8:	e350000f 	cmp	r0, #15
    95cc:	9a000008 	bls	95f4 <dom_perm_set+0x34>
    95d0:	eb00031d 	bl	a24c <rpi_reset_putc>
    95d4:	e59f3060 	ldr	r3, [pc, #96]	; 963c <dom_perm_set+0x7c>
    95d8:	e58d3000 	str	r3, [sp]
    95dc:	e59f005c 	ldr	r0, [pc, #92]	; 9640 <dom_perm_set+0x80>
    95e0:	e59f105c 	ldr	r1, [pc, #92]	; 9644 <dom_perm_set+0x84>
    95e4:	e59f205c 	ldr	r2, [pc, #92]	; 9648 <dom_perm_set+0x88>
    95e8:	e3a03041 	mov	r3, #65	; 0x41
    95ec:	eb0002fb 	bl	a1e0 <printk>
    95f0:	eb00048a 	bl	a820 <clean_reboot>
    95f4:	e3510001 	cmp	r1, #1
    95f8:	9a000008 	bls	9620 <dom_perm_set+0x60>
    95fc:	eb000312 	bl	a24c <rpi_reset_putc>
    9600:	e59f3044 	ldr	r3, [pc, #68]	; 964c <dom_perm_set+0x8c>
    9604:	e58d3000 	str	r3, [sp]
    9608:	e59f0030 	ldr	r0, [pc, #48]	; 9640 <dom_perm_set+0x80>
    960c:	e59f1030 	ldr	r1, [pc, #48]	; 9644 <dom_perm_set+0x84>
    9610:	e59f2030 	ldr	r2, [pc, #48]	; 9648 <dom_perm_set+0x88>
    9614:	e3a03042 	mov	r3, #66	; 0x42
    9618:	eb0002f0 	bl	a1e0 <printk>
    961c:	eb00047f 	bl	a820 <clean_reboot>
    9620:	eb000309 	bl	a24c <rpi_reset_putc>
    9624:	e59f0024 	ldr	r0, [pc, #36]	; 9650 <dom_perm_set+0x90>
    9628:	e59f1014 	ldr	r1, [pc, #20]	; 9644 <dom_perm_set+0x84>
    962c:	e59f2014 	ldr	r2, [pc, #20]	; 9648 <dom_perm_set+0x88>
    9630:	e3a03044 	mov	r3, #68	; 0x44
    9634:	eb0002e9 	bl	a1e0 <printk>
    9638:	eb000478 	bl	a820 <clean_reboot>
    963c:	0000b278 	andeq	fp, r0, r8, ror r2
    9640:	0000afb8 			; <UNDEFINED> instruction: 0x0000afb8
    9644:	0000b95c 	andeq	fp, r0, ip, asr r9
    9648:	0000bea4 	andeq	fp, r0, r4, lsr #29
    964c:	0000ba08 	andeq	fp, r0, r8, lsl #20
    9650:	0000ba34 	andeq	fp, r0, r4, lsr sl

00009654 <memcheck_continue_after_fault>:
    9654:	e3a02001 	mov	r2, #1
    9658:	e59f3004 	ldr	r3, [pc, #4]	; 9664 <memcheck_continue_after_fault+0x10>
    965c:	e5832000 	str	r2, [r3]
    9660:	e12fff1e 	bx	lr
    9664:	0000c240 	andeq	ip, r0, r0, asr #4

00009668 <data_abort_vector>:
    9668:	e92d4008 	push	{r3, lr}
    966c:	ee152f10 	mrc	15, 0, r2, cr5, cr0, {0}
    9670:	ee163f10 	mrc	15, 0, r3, cr6, cr0, {0}
    9674:	e1a03322 	lsr	r3, r2, #6
    9678:	e2033010 	and	r3, r3, #16
    967c:	e202200f 	and	r2, r2, #15
    9680:	e1833002 	orr	r3, r3, r2
    9684:	e353001a 	cmp	r3, #26
    9688:	979ff103 	ldrls	pc, [pc, r3, lsl #2]
    968c:	ea00009f 	b	9910 <data_abort_vector+0x2a8>
    9690:	00009718 	andeq	r9, r0, r8, lsl r7
    9694:	000096fc 	strdeq	r9, [r0], -ip
    9698:	000098f4 	strdeq	r9, [r0], -r4
    969c:	00009734 	andeq	r9, r0, r4, lsr r7
    96a0:	00009750 	andeq	r9, r0, r0, asr r7
    96a4:	000097a4 	andeq	r9, r0, r4, lsr #15
    96a8:	00009910 	andeq	r9, r0, r0, lsl r9
    96ac:	000097c0 	andeq	r9, r0, r0, asr #15
    96b0:	0000984c 	andeq	r9, r0, ip, asr #16
    96b4:	000097dc 	ldrdeq	r9, [r0], -ip
    96b8:	00009868 	andeq	r9, r0, r8, ror #16
    96bc:	000097f8 	strdeq	r9, [r0], -r8
    96c0:	0000976c 	andeq	r9, r0, ip, ror #14
    96c4:	00009814 	andeq	r9, r0, r4, lsl r8
    96c8:	00009788 	andeq	r9, r0, r8, lsl #15
    96cc:	00009830 	andeq	r9, r0, r0, lsr r8
    96d0:	00009910 	andeq	r9, r0, r0, lsl r9
    96d4:	00009910 	andeq	r9, r0, r0, lsl r9
    96d8:	00009910 	andeq	r9, r0, r0, lsl r9
    96dc:	00009910 	andeq	r9, r0, r0, lsl r9
    96e0:	00009884 	andeq	r9, r0, r4, lsl #17
    96e4:	00009910 	andeq	r9, r0, r0, lsl r9
    96e8:	000098bc 			; <UNDEFINED> instruction: 0x000098bc
    96ec:	00009910 	andeq	r9, r0, r0, lsl r9
    96f0:	000098d8 	ldrdeq	r9, [r0], -r8
    96f4:	00009910 	andeq	r9, r0, r0, lsl r9
    96f8:	000098a0 	andeq	r9, r0, r0, lsr #17
    96fc:	eb0002d2 	bl	a24c <rpi_reset_putc>
    9700:	e59f0224 	ldr	r0, [pc, #548]	; 992c <data_abort_vector+0x2c4>
    9704:	e59f1224 	ldr	r1, [pc, #548]	; 9930 <data_abort_vector+0x2c8>
    9708:	e59f2224 	ldr	r2, [pc, #548]	; 9934 <data_abort_vector+0x2cc>
    970c:	e3a03089 	mov	r3, #137	; 0x89
    9710:	eb0002b2 	bl	a1e0 <printk>
    9714:	eb000441 	bl	a820 <clean_reboot>
    9718:	eb0002cb 	bl	a24c <rpi_reset_putc>
    971c:	e59f0214 	ldr	r0, [pc, #532]	; 9938 <data_abort_vector+0x2d0>
    9720:	e59f1208 	ldr	r1, [pc, #520]	; 9930 <data_abort_vector+0x2c8>
    9724:	e59f2208 	ldr	r2, [pc, #520]	; 9934 <data_abort_vector+0x2cc>
    9728:	e3a0308c 	mov	r3, #140	; 0x8c
    972c:	eb0002ab 	bl	a1e0 <printk>
    9730:	eb00043a 	bl	a820 <clean_reboot>
    9734:	eb0002c4 	bl	a24c <rpi_reset_putc>
    9738:	e59f01fc 	ldr	r0, [pc, #508]	; 993c <data_abort_vector+0x2d4>
    973c:	e59f11ec 	ldr	r1, [pc, #492]	; 9930 <data_abort_vector+0x2c8>
    9740:	e59f21ec 	ldr	r2, [pc, #492]	; 9934 <data_abort_vector+0x2cc>
    9744:	e3a0308f 	mov	r3, #143	; 0x8f
    9748:	eb0002a4 	bl	a1e0 <printk>
    974c:	eb000433 	bl	a820 <clean_reboot>
    9750:	eb0002bd 	bl	a24c <rpi_reset_putc>
    9754:	e59f01e4 	ldr	r0, [pc, #484]	; 9940 <data_abort_vector+0x2d8>
    9758:	e59f11d0 	ldr	r1, [pc, #464]	; 9930 <data_abort_vector+0x2c8>
    975c:	e59f21d0 	ldr	r2, [pc, #464]	; 9934 <data_abort_vector+0x2cc>
    9760:	e3a03092 	mov	r3, #146	; 0x92
    9764:	eb00029d 	bl	a1e0 <printk>
    9768:	eb00042c 	bl	a820 <clean_reboot>
    976c:	eb0002b6 	bl	a24c <rpi_reset_putc>
    9770:	e59f01cc 	ldr	r0, [pc, #460]	; 9944 <data_abort_vector+0x2dc>
    9774:	e59f11b4 	ldr	r1, [pc, #436]	; 9930 <data_abort_vector+0x2c8>
    9778:	e59f21b4 	ldr	r2, [pc, #436]	; 9934 <data_abort_vector+0x2cc>
    977c:	e3a03095 	mov	r3, #149	; 0x95
    9780:	eb000296 	bl	a1e0 <printk>
    9784:	eb000425 	bl	a820 <clean_reboot>
    9788:	eb0002af 	bl	a24c <rpi_reset_putc>
    978c:	e59f01b4 	ldr	r0, [pc, #436]	; 9948 <data_abort_vector+0x2e0>
    9790:	e59f1198 	ldr	r1, [pc, #408]	; 9930 <data_abort_vector+0x2c8>
    9794:	e59f2198 	ldr	r2, [pc, #408]	; 9934 <data_abort_vector+0x2cc>
    9798:	e3a03098 	mov	r3, #152	; 0x98
    979c:	eb00028f 	bl	a1e0 <printk>
    97a0:	eb00041e 	bl	a820 <clean_reboot>
    97a4:	eb0002a8 	bl	a24c <rpi_reset_putc>
    97a8:	e59f019c 	ldr	r0, [pc, #412]	; 994c <data_abort_vector+0x2e4>
    97ac:	e59f117c 	ldr	r1, [pc, #380]	; 9930 <data_abort_vector+0x2c8>
    97b0:	e59f217c 	ldr	r2, [pc, #380]	; 9934 <data_abort_vector+0x2cc>
    97b4:	e3a0309b 	mov	r3, #155	; 0x9b
    97b8:	eb000288 	bl	a1e0 <printk>
    97bc:	eb000417 	bl	a820 <clean_reboot>
    97c0:	eb0002a1 	bl	a24c <rpi_reset_putc>
    97c4:	e59f0184 	ldr	r0, [pc, #388]	; 9950 <data_abort_vector+0x2e8>
    97c8:	e59f1160 	ldr	r1, [pc, #352]	; 9930 <data_abort_vector+0x2c8>
    97cc:	e59f2160 	ldr	r2, [pc, #352]	; 9934 <data_abort_vector+0x2cc>
    97d0:	e3a0309e 	mov	r3, #158	; 0x9e
    97d4:	eb000281 	bl	a1e0 <printk>
    97d8:	eb000410 	bl	a820 <clean_reboot>
    97dc:	eb00029a 	bl	a24c <rpi_reset_putc>
    97e0:	e59f016c 	ldr	r0, [pc, #364]	; 9954 <data_abort_vector+0x2ec>
    97e4:	e59f1144 	ldr	r1, [pc, #324]	; 9930 <data_abort_vector+0x2c8>
    97e8:	e59f2144 	ldr	r2, [pc, #324]	; 9934 <data_abort_vector+0x2cc>
    97ec:	e3a030a1 	mov	r3, #161	; 0xa1
    97f0:	eb00027a 	bl	a1e0 <printk>
    97f4:	eb000409 	bl	a820 <clean_reboot>
    97f8:	eb000293 	bl	a24c <rpi_reset_putc>
    97fc:	e59f0154 	ldr	r0, [pc, #340]	; 9958 <data_abort_vector+0x2f0>
    9800:	e59f1128 	ldr	r1, [pc, #296]	; 9930 <data_abort_vector+0x2c8>
    9804:	e59f2128 	ldr	r2, [pc, #296]	; 9934 <data_abort_vector+0x2cc>
    9808:	e3a030a4 	mov	r3, #164	; 0xa4
    980c:	eb000273 	bl	a1e0 <printk>
    9810:	eb000402 	bl	a820 <clean_reboot>
    9814:	eb00028c 	bl	a24c <rpi_reset_putc>
    9818:	e59f013c 	ldr	r0, [pc, #316]	; 995c <data_abort_vector+0x2f4>
    981c:	e59f110c 	ldr	r1, [pc, #268]	; 9930 <data_abort_vector+0x2c8>
    9820:	e59f210c 	ldr	r2, [pc, #268]	; 9934 <data_abort_vector+0x2cc>
    9824:	e3a030a7 	mov	r3, #167	; 0xa7
    9828:	eb00026c 	bl	a1e0 <printk>
    982c:	eb0003fb 	bl	a820 <clean_reboot>
    9830:	eb000285 	bl	a24c <rpi_reset_putc>
    9834:	e59f0124 	ldr	r0, [pc, #292]	; 9960 <data_abort_vector+0x2f8>
    9838:	e59f10f0 	ldr	r1, [pc, #240]	; 9930 <data_abort_vector+0x2c8>
    983c:	e59f20f0 	ldr	r2, [pc, #240]	; 9934 <data_abort_vector+0x2cc>
    9840:	e3a030aa 	mov	r3, #170	; 0xaa
    9844:	eb000265 	bl	a1e0 <printk>
    9848:	eb0003f4 	bl	a820 <clean_reboot>
    984c:	eb00027e 	bl	a24c <rpi_reset_putc>
    9850:	e59f010c 	ldr	r0, [pc, #268]	; 9964 <data_abort_vector+0x2fc>
    9854:	e59f10d4 	ldr	r1, [pc, #212]	; 9930 <data_abort_vector+0x2c8>
    9858:	e59f20d4 	ldr	r2, [pc, #212]	; 9934 <data_abort_vector+0x2cc>
    985c:	e3a030ad 	mov	r3, #173	; 0xad
    9860:	eb00025e 	bl	a1e0 <printk>
    9864:	eb0003ed 	bl	a820 <clean_reboot>
    9868:	eb000277 	bl	a24c <rpi_reset_putc>
    986c:	e59f00f4 	ldr	r0, [pc, #244]	; 9968 <data_abort_vector+0x300>
    9870:	e59f10b8 	ldr	r1, [pc, #184]	; 9930 <data_abort_vector+0x2c8>
    9874:	e59f20b8 	ldr	r2, [pc, #184]	; 9934 <data_abort_vector+0x2cc>
    9878:	e3a030b0 	mov	r3, #176	; 0xb0
    987c:	eb000257 	bl	a1e0 <printk>
    9880:	eb0003e6 	bl	a820 <clean_reboot>
    9884:	eb000270 	bl	a24c <rpi_reset_putc>
    9888:	e59f00dc 	ldr	r0, [pc, #220]	; 996c <data_abort_vector+0x304>
    988c:	e59f109c 	ldr	r1, [pc, #156]	; 9930 <data_abort_vector+0x2c8>
    9890:	e59f209c 	ldr	r2, [pc, #156]	; 9934 <data_abort_vector+0x2cc>
    9894:	e3a030b3 	mov	r3, #179	; 0xb3
    9898:	eb000250 	bl	a1e0 <printk>
    989c:	eb0003df 	bl	a820 <clean_reboot>
    98a0:	eb000269 	bl	a24c <rpi_reset_putc>
    98a4:	e59f00c4 	ldr	r0, [pc, #196]	; 9970 <data_abort_vector+0x308>
    98a8:	e59f1080 	ldr	r1, [pc, #128]	; 9930 <data_abort_vector+0x2c8>
    98ac:	e59f2080 	ldr	r2, [pc, #128]	; 9934 <data_abort_vector+0x2cc>
    98b0:	e3a030b6 	mov	r3, #182	; 0xb6
    98b4:	eb000249 	bl	a1e0 <printk>
    98b8:	eb0003d8 	bl	a820 <clean_reboot>
    98bc:	eb000262 	bl	a24c <rpi_reset_putc>
    98c0:	e59f00ac 	ldr	r0, [pc, #172]	; 9974 <data_abort_vector+0x30c>
    98c4:	e59f1064 	ldr	r1, [pc, #100]	; 9930 <data_abort_vector+0x2c8>
    98c8:	e59f2064 	ldr	r2, [pc, #100]	; 9934 <data_abort_vector+0x2cc>
    98cc:	e3a030b9 	mov	r3, #185	; 0xb9
    98d0:	eb000242 	bl	a1e0 <printk>
    98d4:	eb0003d1 	bl	a820 <clean_reboot>
    98d8:	eb00025b 	bl	a24c <rpi_reset_putc>
    98dc:	e59f0094 	ldr	r0, [pc, #148]	; 9978 <data_abort_vector+0x310>
    98e0:	e59f1048 	ldr	r1, [pc, #72]	; 9930 <data_abort_vector+0x2c8>
    98e4:	e59f2048 	ldr	r2, [pc, #72]	; 9934 <data_abort_vector+0x2cc>
    98e8:	e3a030bc 	mov	r3, #188	; 0xbc
    98ec:	eb00023b 	bl	a1e0 <printk>
    98f0:	eb0003ca 	bl	a820 <clean_reboot>
    98f4:	eb000254 	bl	a24c <rpi_reset_putc>
    98f8:	e59f007c 	ldr	r0, [pc, #124]	; 997c <data_abort_vector+0x314>
    98fc:	e59f102c 	ldr	r1, [pc, #44]	; 9930 <data_abort_vector+0x2c8>
    9900:	e59f202c 	ldr	r2, [pc, #44]	; 9934 <data_abort_vector+0x2cc>
    9904:	e3a030bf 	mov	r3, #191	; 0xbf
    9908:	eb000234 	bl	a1e0 <printk>
    990c:	eb0003c3 	bl	a820 <clean_reboot>
    9910:	eb00024d 	bl	a24c <rpi_reset_putc>
    9914:	e59f0064 	ldr	r0, [pc, #100]	; 9980 <data_abort_vector+0x318>
    9918:	e59f1010 	ldr	r1, [pc, #16]	; 9930 <data_abort_vector+0x2c8>
    991c:	e59f2010 	ldr	r2, [pc, #16]	; 9934 <data_abort_vector+0x2cc>
    9920:	e3a030c2 	mov	r3, #194	; 0xc2
    9924:	eb00022d 	bl	a1e0 <printk>
    9928:	eb0003bc 	bl	a820 <clean_reboot>
    992c:	0000ba60 	andeq	fp, r0, r0, ror #20
    9930:	0000b95c 	andeq	fp, r0, ip, asr r9
    9934:	0000be24 	andeq	fp, r0, r4, lsr #28
    9938:	0000ba84 	andeq	fp, r0, r4, lsl #21
    993c:	0000baa0 	andeq	fp, r0, r0, lsr #21
    9940:	0000bac8 	andeq	fp, r0, r8, asr #21
    9944:	0000baf4 	strdeq	fp, [r0], -r4
    9948:	0000bb20 	andeq	fp, r0, r0, lsr #22
    994c:	0000bb4c 	andeq	fp, r0, ip, asr #22
    9950:	0000bb78 	andeq	fp, r0, r8, ror fp
    9954:	0000bba0 	andeq	fp, r0, r0, lsr #23
    9958:	0000bbc8 	andeq	fp, r0, r8, asr #23
    995c:	0000bbec 	andeq	fp, r0, ip, ror #23
    9960:	0000bc10 	andeq	fp, r0, r0, lsl ip
    9964:	0000bc38 	andeq	fp, r0, r8, lsr ip
    9968:	0000bc60 	andeq	fp, r0, r0, ror #24
    996c:	0000bc88 	andeq	fp, r0, r8, lsl #25
    9970:	0000bca4 	andeq	fp, r0, r4, lsr #25
    9974:	0000bccc 	andeq	fp, r0, ip, asr #25
    9978:	0000bcf8 	strdeq	fp, [r0], -r8
    997c:	0000bd20 	andeq	fp, r0, r0, lsr #26
    9980:	0000bd40 	andeq	fp, r0, r0, asr #26

00009984 <interrupt_vector>:
    9984:	e92d4008 	push	{r3, lr}
    9988:	ebfffbcf 	bl	88cc <mmu_disable>
    998c:	eb00022e 	bl	a24c <rpi_reset_putc>
    9990:	e59f0010 	ldr	r0, [pc, #16]	; 99a8 <interrupt_vector+0x24>
    9994:	e59f1010 	ldr	r1, [pc, #16]	; 99ac <interrupt_vector+0x28>
    9998:	e59f2010 	ldr	r2, [pc, #16]	; 99b0 <interrupt_vector+0x2c>
    999c:	e3a030dc 	mov	r3, #220	; 0xdc
    99a0:	eb00020e 	bl	a1e0 <printk>
    99a4:	eb00039d 	bl	a820 <clean_reboot>
    99a8:	0000bd68 	andeq	fp, r0, r8, ror #26
    99ac:	0000b95c 	andeq	fp, r0, ip, asr r9
    99b0:	0000be38 	andeq	fp, r0, r8, lsr lr

000099b4 <memcheck_init>:
    99b4:	e92d4010 	push	{r4, lr}
    99b8:	e24dd008 	sub	sp, sp, #8
    99bc:	ebfffb7b 	bl	87b0 <mmu_init>
    99c0:	ebfffa10 	bl	8208 <mmu_is_enabled>
    99c4:	e3500000 	cmp	r0, #0
    99c8:	0a000008 	beq	99f0 <memcheck_init+0x3c>
    99cc:	eb00021e 	bl	a24c <rpi_reset_putc>
    99d0:	e59f3108 	ldr	r3, [pc, #264]	; 9ae0 <memcheck_init+0x12c>
    99d4:	e58d3000 	str	r3, [sp]
    99d8:	e59f0104 	ldr	r0, [pc, #260]	; 9ae4 <memcheck_init+0x130>
    99dc:	e59f1104 	ldr	r1, [pc, #260]	; 9ae8 <memcheck_init+0x134>
    99e0:	e59f2104 	ldr	r2, [pc, #260]	; 9aec <memcheck_init+0x138>
    99e4:	e3a030eb 	mov	r3, #235	; 0xeb
    99e8:	eb0001fc 	bl	a1e0 <printk>
    99ec:	eb00038b 	bl	a820 <clean_reboot>
    99f0:	e3a00601 	mov	r0, #1048576	; 0x100000
    99f4:	e3a01901 	mov	r1, #16384	; 0x4000
    99f8:	ebfffb23 	bl	868c <mmu_pt_alloc_at>
    99fc:	e59f30ec 	ldr	r3, [pc, #236]	; 9af0 <memcheck_init+0x13c>
    9a00:	e5830000 	str	r0, [r3]
    9a04:	e3500601 	cmp	r0, #1048576	; 0x100000
    9a08:	0a000008 	beq	9a30 <memcheck_init+0x7c>
    9a0c:	eb00020e 	bl	a24c <rpi_reset_putc>
    9a10:	e59f30dc 	ldr	r3, [pc, #220]	; 9af4 <memcheck_init+0x140>
    9a14:	e58d3000 	str	r3, [sp]
    9a18:	e59f00c4 	ldr	r0, [pc, #196]	; 9ae4 <memcheck_init+0x130>
    9a1c:	e59f10c4 	ldr	r1, [pc, #196]	; 9ae8 <memcheck_init+0x134>
    9a20:	e59f20c4 	ldr	r2, [pc, #196]	; 9aec <memcheck_init+0x138>
    9a24:	e3a030f0 	mov	r3, #240	; 0xf0
    9a28:	eb0001ec 	bl	a1e0 <printk>
    9a2c:	eb00037b 	bl	a820 <clean_reboot>
    9a30:	e3a01000 	mov	r1, #0
    9a34:	e1a02001 	mov	r2, r1
    9a38:	e3a03001 	mov	r3, #1
    9a3c:	ebfffa71 	bl	8408 <mmu_map_section>
    9a40:	e59f40a8 	ldr	r4, [pc, #168]	; 9af0 <memcheck_init+0x13c>
    9a44:	e5940000 	ldr	r0, [r4]
    9a48:	e3a01601 	mov	r1, #1048576	; 0x100000
    9a4c:	e1a02001 	mov	r2, r1
    9a50:	e3a03001 	mov	r3, #1
    9a54:	ebfffa6b 	bl	8408 <mmu_map_section>
    9a58:	e5940000 	ldr	r0, [r4]
    9a5c:	e3a0167f 	mov	r1, #133169152	; 0x7f00000
    9a60:	e1a02001 	mov	r2, r1
    9a64:	e3a03001 	mov	r3, #1
    9a68:	ebfffa66 	bl	8408 <mmu_map_section>
    9a6c:	e5940000 	ldr	r0, [r4]
    9a70:	e3a01202 	mov	r1, #536870912	; 0x20000000
    9a74:	e1a02001 	mov	r2, r1
    9a78:	e3a03001 	mov	r3, #1
    9a7c:	ebfffa61 	bl	8408 <mmu_map_section>
    9a80:	e59f2070 	ldr	r2, [pc, #112]	; 9af8 <memcheck_init+0x144>
    9a84:	e5940000 	ldr	r0, [r4]
    9a88:	e1a01002 	mov	r1, r2
    9a8c:	e3a03001 	mov	r3, #1
    9a90:	ebfffa5c 	bl	8408 <mmu_map_section>
    9a94:	e59f2060 	ldr	r2, [pc, #96]	; 9afc <memcheck_init+0x148>
    9a98:	e5940000 	ldr	r0, [r4]
    9a9c:	e1a01002 	mov	r1, r2
    9aa0:	e3a03001 	mov	r3, #1
    9aa4:	ebfffa57 	bl	8408 <mmu_map_section>
    9aa8:	e5940000 	ldr	r0, [r4]
    9aac:	e3a0168f 	mov	r1, #149946368	; 0x8f00000
    9ab0:	e1a02001 	mov	r2, r1
    9ab4:	e3a03001 	mov	r3, #1
    9ab8:	ebfffa52 	bl	8408 <mmu_map_section>
    9abc:	ebfffb5f 	bl	8840 <mmu_install_handlers>
    9ac0:	e3a00004 	mov	r0, #4
    9ac4:	ebfffbc2 	bl	89d4 <write_domain_access_ctrl>
    9ac8:	e59f0030 	ldr	r0, [pc, #48]	; 9b00 <memcheck_init+0x14c>
    9acc:	e3a01001 	mov	r1, #1
    9ad0:	e5942000 	ldr	r2, [r4]
    9ad4:	ebfffbc1 	bl	89e0 <set_procid_ttbr0>
    9ad8:	e28dd008 	add	sp, sp, #8
    9adc:	e8bd8010 	pop	{r4, pc}
    9ae0:	0000bd84 	andeq	fp, r0, r4, lsl #27
    9ae4:	0000afb8 			; <UNDEFINED> instruction: 0x0000afb8
    9ae8:	0000b95c 	andeq	fp, r0, ip, asr r9
    9aec:	0000be4c 	andeq	fp, r0, ip, asr #28
    9af0:	0000c244 	andeq	ip, r0, r4, asr #4
    9af4:	0000bd98 	muleq	r0, r8, sp
    9af8:	20100000 	andscs	r0, r0, r0
    9afc:	20200000 	eorcs	r0, r0, r0
    9b00:	0000140e 	andeq	r1, r0, lr, lsl #8

00009b04 <memcheck_on>:
    9b04:	e52de004 	push	{lr}		; (str lr, [sp, #-4]!)
    9b08:	e24dd00c 	sub	sp, sp, #12
    9b0c:	e59f005c 	ldr	r0, [pc, #92]	; 9b70 <memcheck_on+0x6c>
    9b10:	e59f105c 	ldr	r1, [pc, #92]	; 9b74 <memcheck_on+0x70>
    9b14:	e59f205c 	ldr	r2, [pc, #92]	; 9b78 <memcheck_on+0x74>
    9b18:	e3a03f45 	mov	r3, #276	; 0x114
    9b1c:	eb0001af 	bl	a1e0 <printk>
    9b20:	ebfffb93 	bl	8974 <mmu_enable>
    9b24:	ebfff9b7 	bl	8208 <mmu_is_enabled>
    9b28:	e3500000 	cmp	r0, #0
    9b2c:	1a000008 	bne	9b54 <memcheck_on+0x50>
    9b30:	eb0001c5 	bl	a24c <rpi_reset_putc>
    9b34:	e59f3040 	ldr	r3, [pc, #64]	; 9b7c <memcheck_on+0x78>
    9b38:	e58d3000 	str	r3, [sp]
    9b3c:	e59f003c 	ldr	r0, [pc, #60]	; 9b80 <memcheck_on+0x7c>
    9b40:	e59f102c 	ldr	r1, [pc, #44]	; 9b74 <memcheck_on+0x70>
    9b44:	e59f202c 	ldr	r2, [pc, #44]	; 9b78 <memcheck_on+0x74>
    9b48:	e59f3034 	ldr	r3, [pc, #52]	; 9b84 <memcheck_on+0x80>
    9b4c:	eb0001a3 	bl	a1e0 <printk>
    9b50:	eb000332 	bl	a820 <clean_reboot>
    9b54:	e59f002c 	ldr	r0, [pc, #44]	; 9b88 <memcheck_on+0x84>
    9b58:	e59f1014 	ldr	r1, [pc, #20]	; 9b74 <memcheck_on+0x70>
    9b5c:	e59f2014 	ldr	r2, [pc, #20]	; 9b78 <memcheck_on+0x74>
    9b60:	e3a03f46 	mov	r3, #280	; 0x118
    9b64:	eb00019d 	bl	a1e0 <printk>
    9b68:	e28dd00c 	add	sp, sp, #12
    9b6c:	e49df004 	pop	{pc}		; (ldr pc, [sp], #4)
    9b70:	0000bda4 	andeq	fp, r0, r4, lsr #27
    9b74:	0000b95c 	andeq	fp, r0, ip, asr r9
    9b78:	0000be5c 	andeq	fp, r0, ip, asr lr
    9b7c:	0000afe0 	andeq	sl, r0, r0, ror #31
    9b80:	0000afb8 			; <UNDEFINED> instruction: 0x0000afb8
    9b84:	00000117 	andeq	r0, r0, r7, lsl r1
    9b88:	0000bdcc 	andeq	fp, r0, ip, asr #27

00009b8c <memcheck_off>:
    9b8c:	e52de004 	push	{lr}		; (str lr, [sp, #-4]!)
    9b90:	e24dd00c 	sub	sp, sp, #12
    9b94:	ebfffb4c 	bl	88cc <mmu_disable>
    9b98:	ebfff99a 	bl	8208 <mmu_is_enabled>
    9b9c:	e3500000 	cmp	r0, #0
    9ba0:	0a000008 	beq	9bc8 <memcheck_off+0x3c>
    9ba4:	eb0001a8 	bl	a24c <rpi_reset_putc>
    9ba8:	e59f3034 	ldr	r3, [pc, #52]	; 9be4 <memcheck_off+0x58>
    9bac:	e58d3000 	str	r3, [sp]
    9bb0:	e59f0030 	ldr	r0, [pc, #48]	; 9be8 <memcheck_off+0x5c>
    9bb4:	e59f1030 	ldr	r1, [pc, #48]	; 9bec <memcheck_off+0x60>
    9bb8:	e59f2030 	ldr	r2, [pc, #48]	; 9bf0 <memcheck_off+0x64>
    9bbc:	e59f3030 	ldr	r3, [pc, #48]	; 9bf4 <memcheck_off+0x68>
    9bc0:	eb000186 	bl	a1e0 <printk>
    9bc4:	eb000315 	bl	a820 <clean_reboot>
    9bc8:	e59f0028 	ldr	r0, [pc, #40]	; 9bf8 <memcheck_off+0x6c>
    9bcc:	e59f1018 	ldr	r1, [pc, #24]	; 9bec <memcheck_off+0x60>
    9bd0:	e59f2018 	ldr	r2, [pc, #24]	; 9bf0 <memcheck_off+0x64>
    9bd4:	e3a03e12 	mov	r3, #288	; 0x120
    9bd8:	eb000180 	bl	a1e0 <printk>
    9bdc:	e28dd00c 	add	sp, sp, #12
    9be0:	e49df004 	pop	{pc}		; (ldr pc, [sp], #4)
    9be4:	0000bd84 	andeq	fp, r0, r4, lsl #27
    9be8:	0000afb8 			; <UNDEFINED> instruction: 0x0000afb8
    9bec:	0000b95c 	andeq	fp, r0, ip, asr r9
    9bf0:	0000be68 	andeq	fp, r0, r8, ror #28
    9bf4:	0000011f 	andeq	r0, r0, pc, lsl r1
    9bf8:	0000bde4 	andeq	fp, r0, r4, ror #27

00009bfc <memcheck_map>:
    9bfc:	e52de004 	push	{lr}		; (str lr, [sp, #-4]!)
    9c00:	e24dd00c 	sub	sp, sp, #12
    9c04:	e1a02000 	mov	r2, r0
    9c08:	e3c034ff 	bic	r3, r0, #-16777216	; 0xff000000
    9c0c:	e3d3160f 	bics	r1, r3, #15728640	; 0xf00000
    9c10:	0a000008 	beq	9c38 <memcheck_map+0x3c>
    9c14:	eb00018c 	bl	a24c <rpi_reset_putc>
    9c18:	e59f3038 	ldr	r3, [pc, #56]	; 9c58 <memcheck_map+0x5c>
    9c1c:	e58d3000 	str	r3, [sp]
    9c20:	e59f0034 	ldr	r0, [pc, #52]	; 9c5c <memcheck_map+0x60>
    9c24:	e59f1034 	ldr	r1, [pc, #52]	; 9c60 <memcheck_map+0x64>
    9c28:	e59f2034 	ldr	r2, [pc, #52]	; 9c64 <memcheck_map+0x68>
    9c2c:	e3a03f49 	mov	r3, #292	; 0x124
    9c30:	eb00016a 	bl	a1e0 <printk>
    9c34:	eb0002f9 	bl	a820 <clean_reboot>
    9c38:	e59f3028 	ldr	r3, [pc, #40]	; 9c68 <memcheck_map+0x6c>
    9c3c:	e5930000 	ldr	r0, [r3]
    9c40:	e1a01002 	mov	r1, r2
    9c44:	e2822601 	add	r2, r2, #1048576	; 0x100000
    9c48:	e3a03001 	mov	r3, #1
    9c4c:	ebfff9ed 	bl	8408 <mmu_map_section>
    9c50:	e28dd00c 	add	sp, sp, #12
    9c54:	e49df004 	pop	{pc}		; (ldr pc, [sp], #4)
    9c58:	0000bdfc 	strdeq	fp, [r0], -ip
    9c5c:	0000afb8 			; <UNDEFINED> instruction: 0x0000afb8
    9c60:	0000b95c 	andeq	fp, r0, ip, asr r9
    9c64:	0000be78 	andeq	fp, r0, r8, ror lr
    9c68:	0000c244 	andeq	ip, r0, r4, asr #4

00009c6c <memcheck_track>:
    9c6c:	e52de004 	push	{lr}		; (str lr, [sp, #-4]!)
    9c70:	e24dd00c 	sub	sp, sp, #12
    9c74:	e1a02000 	mov	r2, r0
    9c78:	e3c034ff 	bic	r3, r0, #-16777216	; 0xff000000
    9c7c:	e3d3160f 	bics	r1, r3, #15728640	; 0xf00000
    9c80:	0a000008 	beq	9ca8 <memcheck_track+0x3c>
    9c84:	eb000170 	bl	a24c <rpi_reset_putc>
    9c88:	e59f3038 	ldr	r3, [pc, #56]	; 9cc8 <memcheck_track+0x5c>
    9c8c:	e58d3000 	str	r3, [sp]
    9c90:	e59f0034 	ldr	r0, [pc, #52]	; 9ccc <memcheck_track+0x60>
    9c94:	e59f1034 	ldr	r1, [pc, #52]	; 9cd0 <memcheck_track+0x64>
    9c98:	e59f2034 	ldr	r2, [pc, #52]	; 9cd4 <memcheck_track+0x68>
    9c9c:	e59f3034 	ldr	r3, [pc, #52]	; 9cd8 <memcheck_track+0x6c>
    9ca0:	eb00014e 	bl	a1e0 <printk>
    9ca4:	eb0002dd 	bl	a820 <clean_reboot>
    9ca8:	e59f302c 	ldr	r3, [pc, #44]	; 9cdc <memcheck_track+0x70>
    9cac:	e5930000 	ldr	r0, [r3]
    9cb0:	e1a01002 	mov	r1, r2
    9cb4:	e2822601 	add	r2, r2, #1048576	; 0x100000
    9cb8:	e3a03002 	mov	r3, #2
    9cbc:	ebfff9d1 	bl	8408 <mmu_map_section>
    9cc0:	e28dd00c 	add	sp, sp, #12
    9cc4:	e49df004 	pop	{pc}		; (ldr pc, [sp], #4)
    9cc8:	0000bdfc 	strdeq	fp, [r0], -ip
    9ccc:	0000afb8 			; <UNDEFINED> instruction: 0x0000afb8
    9cd0:	0000b95c 	andeq	fp, r0, ip, asr r9
    9cd4:	0000be88 	andeq	fp, r0, r8, lsl #29
    9cd8:	0000012b 	andeq	r0, r0, fp, lsr #2
    9cdc:	0000c244 	andeq	ip, r0, r4, asr #4

00009ce0 <memcheck_no_access>:
    9ce0:	e92d4008 	push	{r3, lr}
    9ce4:	e1a01a20 	lsr	r1, r0, #20
    9ce8:	e59f3010 	ldr	r3, [pc, #16]	; 9d00 <memcheck_no_access+0x20>
    9cec:	e5930000 	ldr	r0, [r3]
    9cf0:	e1a01a01 	lsl	r1, r1, #20
    9cf4:	e3a02001 	mov	r2, #1
    9cf8:	ebfff998 	bl	8360 <mmu_mark_sec_no_access>
    9cfc:	e8bd8008 	pop	{r3, pc}
    9d00:	0000c244 	andeq	ip, r0, r4, asr #4

00009d04 <memcheck_trap_enabled>:
    9d04:	e92d4008 	push	{r3, lr}
    9d08:	e3a00002 	mov	r0, #2
    9d0c:	ebfffe02 	bl	951c <dom_perm_get>
    9d10:	e2700001 	rsbs	r0, r0, #1
    9d14:	33a00000 	movcc	r0, #0
    9d18:	e8bd8008 	pop	{r3, pc}

00009d1c <memcheck_trap_disable>:
    9d1c:	e92d4008 	push	{r3, lr}
    9d20:	e3a00002 	mov	r0, #2
    9d24:	e3a01001 	mov	r1, #1
    9d28:	ebfffe24 	bl	95c0 <dom_perm_set>

00009d2c <memcheck_trap_enable>:
    9d2c:	e92d4008 	push	{r3, lr}
    9d30:	e3a00002 	mov	r0, #2
    9d34:	e3a01000 	mov	r1, #0
    9d38:	ebfffe20 	bl	95c0 <dom_perm_set>

00009d3c <cp15_sync>:
    9d3c:	e3a02000 	mov	r2, #0
    9d40:	ee072fd5 	mcr	15, 0, r2, cr7, cr5, {6}
    9d44:	ee072f9a 	mcr	15, 0, r2, cr7, cr10, {4}
    9d48:	ee072f95 	mcr	15, 0, r2, cr7, cr5, {4}
    9d4c:	e12fff1e 	bx	lr

00009d50 <cp15_barrier>:
    9d50:	e3a02000 	mov	r2, #0
    9d54:	ee072f9a 	mcr	15, 0, r2, cr7, cr10, {4}
    9d58:	ee072f95 	mcr	15, 0, r2, cr7, cr5, {4}
    9d5c:	e12fff1e 	bx	lr

00009d60 <cp15_ttbr0_rd>:
    9d60:	ee120f10 	mrc	15, 0, r0, cr2, cr0, {0}
    9d64:	e12fff1e 	bx	lr

00009d68 <cp15_ttbr1_rd>:
    9d68:	ee120f30 	mrc	15, 0, r0, cr2, cr0, {1}
    9d6c:	e12fff1e 	bx	lr

00009d70 <cp15_ttbr_ctrl_rd>:
    9d70:	ee120f50 	mrc	15, 0, r0, cr2, cr0, {2}
    9d74:	e12fff1e 	bx	lr

00009d78 <cp15_domain_ctrl_rd>:
    9d78:	ee130f10 	mrc	15, 0, r0, cr3, cr0, {0}
    9d7c:	e12fff1e 	bx	lr

00009d80 <cp15_cache_type_rd>:
    9d80:	ee100f30 	mrc	15, 0, r0, cr0, cr0, {1}
    9d84:	e12fff1e 	bx	lr

00009d88 <cp15_tlb_config_rd>:
    9d88:	ee100f70 	mrc	15, 0, r0, cr0, cr0, {3}
    9d8c:	e12fff1e 	bx	lr

00009d90 <cp15_ctrl_reg1_rd>:
    9d90:	ee110f10 	mrc	15, 0, r0, cr1, cr0, {0}
    9d94:	e12fff1e 	bx	lr

00009d98 <cp15_ctrl_reg1_rd_u32>:
    9d98:	ee110f10 	mrc	15, 0, r0, cr1, cr0, {0}
    9d9c:	e12fff1e 	bx	lr

00009da0 <cp15_procid_rd>:
    9da0:	ee1d0f30 	mrc	15, 0, r0, cr13, cr0, {1}
    9da4:	e12fff1e 	bx	lr

00009da8 <cp15_dsb>:
    9da8:	e3a02000 	mov	r2, #0
    9dac:	ee072f9a 	mcr	15, 0, r2, cr7, cr10, {4}
    9db0:	e12fff1e 	bx	lr

00009db4 <cp15_dmb>:
    9db4:	e3a02000 	mov	r2, #0
    9db8:	ee072fba 	mcr	15, 0, r2, cr7, cr10, {5}
    9dbc:	e12fff1e 	bx	lr

00009dc0 <cp15_prefetch_flush>:
    9dc0:	e3a02000 	mov	r2, #0
    9dc4:	ee072f95 	mcr	15, 0, r2, cr7, cr5, {4}
    9dc8:	e12fff1e 	bx	lr

00009dcc <cp15_btb_flush>:
    9dcc:	e3a02000 	mov	r2, #0
    9dd0:	ee072fd5 	mcr	15, 0, r2, cr7, cr5, {6}
    9dd4:	e12fff1e 	bx	lr

00009dd8 <cp15_caches_inv>:
    9dd8:	e3a00000 	mov	r0, #0
    9ddc:	ee070f15 	mcr	15, 0, r0, cr7, cr5, {0}
    9de0:	ee070f15 	mcr	15, 0, r0, cr7, cr5, {0}
    9de4:	ee070f15 	mcr	15, 0, r0, cr7, cr5, {0}
    9de8:	ee070f15 	mcr	15, 0, r0, cr7, cr5, {0}
    9dec:	e320f000 	nop	{0}
    9df0:	e320f000 	nop	{0}
    9df4:	e320f000 	nop	{0}
    9df8:	e320f000 	nop	{0}
    9dfc:	e320f000 	nop	{0}
    9e00:	e320f000 	nop	{0}
    9e04:	e320f000 	nop	{0}
    9e08:	e320f000 	nop	{0}
    9e0c:	e320f000 	nop	{0}
    9e10:	e320f000 	nop	{0}
    9e14:	e320f000 	nop	{0}
    9e18:	ee070f16 	mcr	15, 0, r0, cr7, cr6, {0}
    9e1c:	ee070f9a 	mcr	15, 0, r0, cr7, cr10, {4}
    9e20:	ee070fd5 	mcr	15, 0, r0, cr7, cr5, {6}
    9e24:	ee070f9a 	mcr	15, 0, r0, cr7, cr10, {4}
    9e28:	ee070f95 	mcr	15, 0, r0, cr7, cr5, {4}
    9e2c:	e12fff1e 	bx	lr

00009e30 <cp15_dcache_clean_inv>:
    9e30:	e3a00000 	mov	r0, #0
    9e34:	ee070f1e 	mcr	15, 0, r0, cr7, cr14, {0}
    9e38:	ee070f9a 	mcr	15, 0, r0, cr7, cr10, {4}
    9e3c:	ee070fd5 	mcr	15, 0, r0, cr7, cr5, {6}
    9e40:	ee070f9a 	mcr	15, 0, r0, cr7, cr10, {4}
    9e44:	ee070f95 	mcr	15, 0, r0, cr7, cr5, {4}
    9e48:	e12fff1e 	bx	lr

00009e4c <cp15_icache_inv>:
    9e4c:	e3a00000 	mov	r0, #0
    9e50:	ee070f15 	mcr	15, 0, r0, cr7, cr5, {0}
    9e54:	ee070f15 	mcr	15, 0, r0, cr7, cr5, {0}
    9e58:	ee070f15 	mcr	15, 0, r0, cr7, cr5, {0}
    9e5c:	ee070f15 	mcr	15, 0, r0, cr7, cr5, {0}
    9e60:	e320f000 	nop	{0}
    9e64:	e320f000 	nop	{0}
    9e68:	e320f000 	nop	{0}
    9e6c:	e320f000 	nop	{0}
    9e70:	e320f000 	nop	{0}
    9e74:	e320f000 	nop	{0}
    9e78:	e320f000 	nop	{0}
    9e7c:	e320f000 	nop	{0}
    9e80:	e320f000 	nop	{0}
    9e84:	e320f000 	nop	{0}
    9e88:	e320f000 	nop	{0}
    9e8c:	ee070f9a 	mcr	15, 0, r0, cr7, cr10, {4}
    9e90:	ee070fd5 	mcr	15, 0, r0, cr7, cr5, {6}
    9e94:	ee070f9a 	mcr	15, 0, r0, cr7, cr10, {4}
    9e98:	ee070f95 	mcr	15, 0, r0, cr7, cr5, {4}
    9e9c:	e12fff1e 	bx	lr

00009ea0 <cp15_itlb_inv>:
    9ea0:	e3a00000 	mov	r0, #0
    9ea4:	ee080f15 	mcr	15, 0, r0, cr8, cr5, {0}
    9ea8:	ee070f9a 	mcr	15, 0, r0, cr7, cr10, {4}
    9eac:	ee070fd5 	mcr	15, 0, r0, cr7, cr5, {6}
    9eb0:	ee070f9a 	mcr	15, 0, r0, cr7, cr10, {4}
    9eb4:	ee070f95 	mcr	15, 0, r0, cr7, cr5, {4}
    9eb8:	e12fff1e 	bx	lr

00009ebc <cp15_dtlb_inv>:
    9ebc:	e3a00000 	mov	r0, #0
    9ec0:	ee080f16 	mcr	15, 0, r0, cr8, cr6, {0}
    9ec4:	ee070f9a 	mcr	15, 0, r0, cr7, cr10, {4}
    9ec8:	ee070fd5 	mcr	15, 0, r0, cr7, cr5, {6}
    9ecc:	ee070f9a 	mcr	15, 0, r0, cr7, cr10, {4}
    9ed0:	ee070f95 	mcr	15, 0, r0, cr7, cr5, {4}
    9ed4:	e12fff1e 	bx	lr

00009ed8 <cp15_tlbs_inv>:
    9ed8:	e3a00000 	mov	r0, #0
    9edc:	ee080f17 	mcr	15, 0, r0, cr8, cr7, {0}
    9ee0:	ee070f9a 	mcr	15, 0, r0, cr7, cr10, {4}
    9ee4:	ee070fd5 	mcr	15, 0, r0, cr7, cr5, {6}
    9ee8:	ee070f9a 	mcr	15, 0, r0, cr7, cr10, {4}
    9eec:	ee070f95 	mcr	15, 0, r0, cr7, cr5, {4}
    9ef0:	e12fff1e 	bx	lr

00009ef4 <cp15_ttbr0_wr>:
    9ef4:	e3a01000 	mov	r1, #0
    9ef8:	ee020f10 	mcr	15, 0, r0, cr2, cr0, {0}
    9efc:	ee071f9a 	mcr	15, 0, r1, cr7, cr10, {4}
    9f00:	ee071fd5 	mcr	15, 0, r1, cr7, cr5, {6}
    9f04:	ee071f9a 	mcr	15, 0, r1, cr7, cr10, {4}
    9f08:	ee071f95 	mcr	15, 0, r1, cr7, cr5, {4}
    9f0c:	e12fff1e 	bx	lr

00009f10 <cp15_ttbr1_wr>:
    9f10:	e3a01000 	mov	r1, #0
    9f14:	ee020f10 	mcr	15, 0, r0, cr2, cr0, {0}
    9f18:	ee071f9a 	mcr	15, 0, r1, cr7, cr10, {4}
    9f1c:	ee071fd5 	mcr	15, 0, r1, cr7, cr5, {6}
    9f20:	ee071f9a 	mcr	15, 0, r1, cr7, cr10, {4}
    9f24:	ee071f95 	mcr	15, 0, r1, cr7, cr5, {4}
    9f28:	e12fff1e 	bx	lr

00009f2c <cp15_ttbr_ctrl_wr>:
    9f2c:	e3a01000 	mov	r1, #0
    9f30:	ee020f50 	mcr	15, 0, r0, cr2, cr0, {2}
    9f34:	ee071f9a 	mcr	15, 0, r1, cr7, cr10, {4}
    9f38:	ee071fd5 	mcr	15, 0, r1, cr7, cr5, {6}
    9f3c:	ee071f9a 	mcr	15, 0, r1, cr7, cr10, {4}
    9f40:	ee071f95 	mcr	15, 0, r1, cr7, cr5, {4}
    9f44:	e12fff1e 	bx	lr

00009f48 <our_cp15_domain_ctrl_wr>:
    9f48:	e3a01000 	mov	r1, #0
    9f4c:	ee030f10 	mcr	15, 0, r0, cr3, cr0, {0}
    9f50:	ee071f9a 	mcr	15, 0, r1, cr7, cr10, {4}
    9f54:	ee071fd5 	mcr	15, 0, r1, cr7, cr5, {6}
    9f58:	ee071f9a 	mcr	15, 0, r1, cr7, cr10, {4}
    9f5c:	ee071f95 	mcr	15, 0, r1, cr7, cr5, {4}
    9f60:	e12fff1e 	bx	lr

00009f64 <cp15_ctrl_reg1_wr>:
    9f64:	e3a01000 	mov	r1, #0
    9f68:	ee010f10 	mcr	15, 0, r0, cr1, cr0, {0}
    9f6c:	ee071f9a 	mcr	15, 0, r1, cr7, cr10, {4}
    9f70:	ee071fd5 	mcr	15, 0, r1, cr7, cr5, {6}
    9f74:	ee071f9a 	mcr	15, 0, r1, cr7, cr10, {4}
    9f78:	ee071f95 	mcr	15, 0, r1, cr7, cr5, {4}
    9f7c:	e12fff1e 	bx	lr

00009f80 <our_mmu_sync_pte_mods>:
    9f80:	e3a02000 	mov	r2, #0
    9f84:	ee072f1e 	mcr	15, 0, r2, cr7, cr14, {0}
    9f88:	ee072f9a 	mcr	15, 0, r2, cr7, cr10, {4}
    9f8c:	ee082f17 	mcr	15, 0, r2, cr8, cr7, {0}
    9f90:	ee072fd5 	mcr	15, 0, r2, cr7, cr5, {6}
    9f94:	ee072f9a 	mcr	15, 0, r2, cr7, cr10, {4}
    9f98:	ee072f95 	mcr	15, 0, r2, cr7, cr5, {4}
    9f9c:	e12fff1e 	bx	lr

00009fa0 <our_cp15_set_procid_ttbr0>:
    9fa0:	e3a02000 	mov	r2, #0
    9fa4:	ee072f9a 	mcr	15, 0, r2, cr7, cr10, {4}
    9fa8:	ee0d2f30 	mcr	15, 0, r2, cr13, cr0, {1}
    9fac:	ee072f95 	mcr	15, 0, r2, cr7, cr5, {4}
    9fb0:	ee021f10 	mcr	15, 0, r1, cr2, cr0, {0}
    9fb4:	ee022f30 	mcr	15, 0, r2, cr2, cr0, {1}
    9fb8:	ee072f95 	mcr	15, 0, r2, cr7, cr5, {4}
    9fbc:	ee0d0f30 	mcr	15, 0, r0, cr13, cr0, {1}
    9fc0:	ee072f9a 	mcr	15, 0, r2, cr7, cr10, {4}
    9fc4:	e12fff1e 	bx	lr

00009fc8 <our_mmu_reset>:
    9fc8:	e3a00000 	mov	r0, #0
    9fcc:	e3a00000 	mov	r0, #0
    9fd0:	ee070f16 	mcr	15, 0, r0, cr7, cr6, {0}
    9fd4:	ee070f15 	mcr	15, 0, r0, cr7, cr5, {0}
    9fd8:	ee070f15 	mcr	15, 0, r0, cr7, cr5, {0}
    9fdc:	ee070f15 	mcr	15, 0, r0, cr7, cr5, {0}
    9fe0:	ee070f15 	mcr	15, 0, r0, cr7, cr5, {0}
    9fe4:	e320f000 	nop	{0}
    9fe8:	e320f000 	nop	{0}
    9fec:	e320f000 	nop	{0}
    9ff0:	e320f000 	nop	{0}
    9ff4:	e320f000 	nop	{0}
    9ff8:	e320f000 	nop	{0}
    9ffc:	e320f000 	nop	{0}
    a000:	e320f000 	nop	{0}
    a004:	e320f000 	nop	{0}
    a008:	e320f000 	nop	{0}
    a00c:	e320f000 	nop	{0}
    a010:	ee080f17 	mcr	15, 0, r0, cr8, cr7, {0}
    a014:	ee070f9a 	mcr	15, 0, r0, cr7, cr10, {4}
    a018:	ee070f9a 	mcr	15, 0, r0, cr7, cr10, {4}
    a01c:	ee070fd5 	mcr	15, 0, r0, cr7, cr5, {6}
    a020:	ee070f9a 	mcr	15, 0, r0, cr7, cr10, {4}
    a024:	ee070f95 	mcr	15, 0, r0, cr7, cr5, {4}
    a028:	e12fff1e 	bx	lr

0000a02c <our_mmu_enable_set_asm>:
    a02c:	e3a01000 	mov	r1, #0
    a030:	ee071f9a 	mcr	15, 0, r1, cr7, cr10, {4}
    a034:	ee010f10 	mcr	15, 0, r0, cr1, cr0, {0}
    a038:	ee071f9a 	mcr	15, 0, r1, cr7, cr10, {4}
    a03c:	ee071fd5 	mcr	15, 0, r1, cr7, cr5, {6}
    a040:	ee071f9a 	mcr	15, 0, r1, cr7, cr10, {4}
    a044:	ee071f95 	mcr	15, 0, r1, cr7, cr5, {4}
    a048:	e12fff1e 	bx	lr

0000a04c <our_mmu_disable_set_asm>:
    a04c:	e3a01000 	mov	r1, #0
    a050:	ee071f9a 	mcr	15, 0, r1, cr7, cr10, {4}
    a054:	ee071f1e 	mcr	15, 0, r1, cr7, cr14, {0}
    a058:	ee071f9a 	mcr	15, 0, r1, cr7, cr10, {4}
    a05c:	ee071f95 	mcr	15, 0, r1, cr7, cr5, {4}
    a060:	ee112f10 	mrc	15, 0, r2, cr1, cr0, {0}
    a064:	e3c22004 	bic	r2, r2, #4
    a068:	ee012f10 	mcr	15, 0, r2, cr1, cr0, {0}
    a06c:	ee071f9a 	mcr	15, 0, r1, cr7, cr10, {4}
    a070:	ee071f95 	mcr	15, 0, r1, cr7, cr5, {4}
    a074:	ee010f10 	mcr	15, 0, r0, cr1, cr0, {0}
    a078:	ee071f9a 	mcr	15, 0, r1, cr7, cr10, {4}
    a07c:	ee071f95 	mcr	15, 0, r1, cr7, cr5, {4}
    a080:	ee071f15 	mcr	15, 0, r1, cr7, cr5, {0}
    a084:	ee071f15 	mcr	15, 0, r1, cr7, cr5, {0}
    a088:	ee071f15 	mcr	15, 0, r1, cr7, cr5, {0}
    a08c:	ee071f15 	mcr	15, 0, r1, cr7, cr5, {0}
    a090:	e320f000 	nop	{0}
    a094:	e320f000 	nop	{0}
    a098:	e320f000 	nop	{0}
    a09c:	e320f000 	nop	{0}
    a0a0:	e320f000 	nop	{0}
    a0a4:	e320f000 	nop	{0}
    a0a8:	e320f000 	nop	{0}
    a0ac:	e320f000 	nop	{0}
    a0b0:	e320f000 	nop	{0}
    a0b4:	e320f000 	nop	{0}
    a0b8:	e320f000 	nop	{0}
    a0bc:	ee071f9a 	mcr	15, 0, r1, cr7, cr10, {4}
    a0c0:	ee071fd5 	mcr	15, 0, r1, cr7, cr5, {6}
    a0c4:	ee071f9a 	mcr	15, 0, r1, cr7, cr10, {4}
    a0c8:	ee071f95 	mcr	15, 0, r1, cr7, cr5, {4}
    a0cc:	e12fff1e 	bx	lr

0000a0d0 <fast_hash>:
    a0d0:	e52d4004 	push	{r4}		; (str r4, [sp, #-4]!)
    a0d4:	e1a02001 	mov	r2, r1
    a0d8:	e1a03000 	mov	r3, r0
    a0dc:	e3500000 	cmp	r0, #0
    a0e0:	13510000 	cmpne	r1, #0
    a0e4:	da000032 	ble	a1b4 <fast_hash+0xe4>
    a0e8:	e2014003 	and	r4, r1, #3
    a0ec:	e1a01141 	asr	r1, r1, #2
    a0f0:	ea00000b 	b	a124 <fast_hash+0x54>
    a0f4:	e5d3c001 	ldrb	ip, [r3, #1]
    a0f8:	e5d30000 	ldrb	r0, [r3]
    a0fc:	e080040c 	add	r0, r0, ip, lsl #8
    a100:	e0800002 	add	r0, r0, r2
    a104:	e5d3c003 	ldrb	ip, [r3, #3]
    a108:	e5d32002 	ldrb	r2, [r3, #2]
    a10c:	e082240c 	add	r2, r2, ip, lsl #8
    a110:	e0202582 	eor	r2, r0, r2, lsl #11
    a114:	e0222800 	eor	r2, r2, r0, lsl #16
    a118:	e2833004 	add	r3, r3, #4
    a11c:	e08225a2 	add	r2, r2, r2, lsr #11
    a120:	e2411001 	sub	r1, r1, #1
    a124:	e3510000 	cmp	r1, #0
    a128:	cafffff1 	bgt	a0f4 <fast_hash+0x24>
    a12c:	e3540002 	cmp	r4, #2
    a130:	0a00000d 	beq	a16c <fast_hash+0x9c>
    a134:	e3540003 	cmp	r4, #3
    a138:	0a000002 	beq	a148 <fast_hash+0x78>
    a13c:	e3540001 	cmp	r4, #1
    a140:	1a000014 	bne	a198 <fast_hash+0xc8>
    a144:	ea00000f 	b	a188 <fast_hash+0xb8>
    a148:	e5d30001 	ldrb	r0, [r3, #1]
    a14c:	e5d31000 	ldrb	r1, [r3]
    a150:	e0811400 	add	r1, r1, r0, lsl #8
    a154:	e0812002 	add	r2, r1, r2
    a158:	e0222802 	eor	r2, r2, r2, lsl #16
    a15c:	e1d330d2 	ldrsb	r3, [r3, #2]
    a160:	e0222903 	eor	r2, r2, r3, lsl #18
    a164:	e08225a2 	add	r2, r2, r2, lsr #11
    a168:	ea00000a 	b	a198 <fast_hash+0xc8>
    a16c:	e5d31001 	ldrb	r1, [r3, #1]
    a170:	e5d33000 	ldrb	r3, [r3]
    a174:	e0833401 	add	r3, r3, r1, lsl #8
    a178:	e0832002 	add	r2, r3, r2
    a17c:	e0222582 	eor	r2, r2, r2, lsl #11
    a180:	e08228a2 	add	r2, r2, r2, lsr #17
    a184:	ea000003 	b	a198 <fast_hash+0xc8>
    a188:	e1d330d0 	ldrsb	r3, [r3]
    a18c:	e0832002 	add	r2, r3, r2
    a190:	e0222502 	eor	r2, r2, r2, lsl #10
    a194:	e08220a2 	add	r2, r2, r2, lsr #1
    a198:	e0220182 	eor	r0, r2, r2, lsl #3
    a19c:	e08002a0 	add	r0, r0, r0, lsr #5
    a1a0:	e0200200 	eor	r0, r0, r0, lsl #4
    a1a4:	e08008a0 	add	r0, r0, r0, lsr #17
    a1a8:	e0200c80 	eor	r0, r0, r0, lsl #25
    a1ac:	e0800320 	add	r0, r0, r0, lsr #6
    a1b0:	ea000000 	b	a1b8 <fast_hash+0xe8>
    a1b4:	e3a00000 	mov	r0, #0
    a1b8:	e49d4004 	pop	{r4}		; (ldr r4, [sp], #4)
    a1bc:	e12fff1e 	bx	lr

0000a1c0 <memset>:
    a1c0:	e0802002 	add	r2, r0, r2
    a1c4:	e1a03000 	mov	r3, r0
    a1c8:	ea000001 	b	a1d4 <memset+0x14>
    a1cc:	e5c31000 	strb	r1, [r3]
    a1d0:	e2833001 	add	r3, r3, #1
    a1d4:	e1530002 	cmp	r3, r2
    a1d8:	3afffffb 	bcc	a1cc <memset+0xc>
    a1dc:	e12fff1e 	bx	lr

0000a1e0 <printk>:
    a1e0:	e92d000f 	push	{r0, r1, r2, r3}
    a1e4:	e92d4030 	push	{r4, r5, lr}
    a1e8:	e24dd00c 	sub	sp, sp, #12
    a1ec:	e28d301c 	add	r3, sp, #28
    a1f0:	e58d3004 	str	r3, [sp, #4]
    a1f4:	e59f4034 	ldr	r4, [pc, #52]	; a230 <printk+0x50>
    a1f8:	e1a00004 	mov	r0, r4
    a1fc:	e3a01b01 	mov	r1, #1024	; 0x400
    a200:	e59d2018 	ldr	r2, [sp, #24]
    a204:	eb0000d0 	bl	a54c <va_printk>
    a208:	e1a05000 	mov	r5, r0
    a20c:	e59f3020 	ldr	r3, [pc, #32]	; a234 <printk+0x54>
    a210:	e5933000 	ldr	r3, [r3]
    a214:	e1a00004 	mov	r0, r4
    a218:	e12fff33 	blx	r3
    a21c:	e1a00005 	mov	r0, r5
    a220:	e28dd00c 	add	sp, sp, #12
    a224:	e8bd4030 	pop	{r4, r5, lr}
    a228:	e28dd010 	add	sp, sp, #16
    a22c:	e12fff1e 	bx	lr
    a230:	0000c248 	andeq	ip, r0, r8, asr #4
    a234:	0000afac 	andeq	sl, r0, ip, lsr #31

0000a238 <internal_putchar>:
    a238:	e92d4010 	push	{r4, lr}
    a23c:	e1a04000 	mov	r4, r0
    a240:	eb00029a 	bl	acb0 <uart_putc>
    a244:	e1a00004 	mov	r0, r4
    a248:	e8bd8010 	pop	{r4, pc}

0000a24c <rpi_reset_putc>:
    a24c:	e59f2008 	ldr	r2, [pc, #8]	; a25c <rpi_reset_putc+0x10>
    a250:	e59f3008 	ldr	r3, [pc, #8]	; a260 <rpi_reset_putc+0x14>
    a254:	e5832000 	str	r2, [r3]
    a258:	e12fff1e 	bx	lr
    a25c:	0000a238 	andeq	sl, r0, r8, lsr r2
    a260:	0000afa8 	andeq	sl, r0, r8, lsr #31

0000a264 <rpi_set_putc>:
    a264:	e59f3004 	ldr	r3, [pc, #4]	; a270 <rpi_set_putc+0xc>
    a268:	e5830000 	str	r0, [r3]
    a26c:	e12fff1e 	bx	lr
    a270:	0000afa8 	andeq	sl, r0, r8, lsr #31

0000a274 <internal_putk>:
    a274:	e92d4038 	push	{r3, r4, r5, lr}
    a278:	e1a04000 	mov	r4, r0
    a27c:	e59f5020 	ldr	r5, [pc, #32]	; a2a4 <internal_putk+0x30>
    a280:	ea000002 	b	a290 <internal_putk+0x1c>
    a284:	e5953000 	ldr	r3, [r5]
    a288:	e12fff33 	blx	r3
    a28c:	e2844001 	add	r4, r4, #1
    a290:	e5d40000 	ldrb	r0, [r4]
    a294:	e3500000 	cmp	r0, #0
    a298:	1afffff9 	bne	a284 <internal_putk+0x10>
    a29c:	e3a00001 	mov	r0, #1
    a2a0:	e8bd8038 	pop	{r3, r4, r5, pc}
    a2a4:	0000afa8 	andeq	sl, r0, r8, lsr #31

0000a2a8 <isdigit>:
    a2a8:	e2400030 	sub	r0, r0, #48	; 0x30
    a2ac:	e3500009 	cmp	r0, #9
    a2b0:	83a00000 	movhi	r0, #0
    a2b4:	93a00001 	movls	r0, #1
    a2b8:	e12fff1e 	bx	lr

0000a2bc <pad>:
    a2bc:	e0611000 	rsb	r1, r1, r0
    a2c0:	e3a03020 	mov	r3, #32
    a2c4:	ea000002 	b	a2d4 <pad+0x18>
    a2c8:	e5c03000 	strb	r3, [r0]
    a2cc:	e2811001 	add	r1, r1, #1
    a2d0:	e2800001 	add	r0, r0, #1
    a2d4:	e1510002 	cmp	r1, r2
    a2d8:	bafffffa 	blt	a2c8 <pad+0xc>
    a2dc:	e3a03000 	mov	r3, #0
    a2e0:	e5c03000 	strb	r3, [r0]
    a2e4:	e12fff1e 	bx	lr

0000a2e8 <reverse>:
    a2e8:	e063c002 	rsb	ip, r3, r2
    a2ec:	e28cc001 	add	ip, ip, #1
    a2f0:	e15c0001 	cmp	ip, r1
    a2f4:	c061100c 	rsbgt	r1, r1, ip
    a2f8:	c0833001 	addgt	r3, r3, r1
    a2fc:	e2422001 	sub	r2, r2, #1
    a300:	e1a01000 	mov	r1, r0
    a304:	ea000002 	b	a314 <reverse+0x2c>
    a308:	e452c001 	ldrb	ip, [r2], #-1
    a30c:	e5c1c000 	strb	ip, [r1]
    a310:	e2811001 	add	r1, r1, #1
    a314:	e1520003 	cmp	r2, r3
    a318:	2afffffa 	bcs	a308 <reverse+0x20>
    a31c:	e3a03000 	mov	r3, #0
    a320:	e5c13000 	strb	r3, [r1]
    a324:	e12fff1e 	bx	lr

0000a328 <emit>:
    a328:	e92d41f0 	push	{r4, r5, r6, r7, r8, lr}
    a32c:	e24dd048 	sub	sp, sp, #72	; 0x48
    a330:	e1a05001 	mov	r5, r1
    a334:	e1a04002 	mov	r4, r2
    a338:	e59d2060 	ldr	r2, [sp, #96]	; 0x60
    a33c:	e1520004 	cmp	r2, r4
    a340:	c2442001 	subgt	r2, r4, #1
    a344:	e1a0c003 	mov	ip, r3
    a348:	e2400002 	sub	r0, r0, #2
    a34c:	e350000e 	cmp	r0, #14
    a350:	979ff100 	ldrls	pc, [pc, r0, lsl #2]
    a354:	ea000048 	b	a47c <emit+0x154>
    a358:	0000a454 	andeq	sl, r0, r4, asr r4
    a35c:	0000a47c 	andeq	sl, r0, ip, ror r4
    a360:	0000a47c 	andeq	sl, r0, ip, ror r4
    a364:	0000a47c 	andeq	sl, r0, ip, ror r4
    a368:	0000a47c 	andeq	sl, r0, ip, ror r4
    a36c:	0000a47c 	andeq	sl, r0, ip, ror r4
    a370:	0000a448 	andeq	sl, r0, r8, asr #8
    a374:	0000a47c 	andeq	sl, r0, ip, ror r4
    a378:	0000a394 	muleq	r0, r4, r3
    a37c:	0000a47c 	andeq	sl, r0, ip, ror r4
    a380:	0000a47c 	andeq	sl, r0, ip, ror r4
    a384:	0000a47c 	andeq	sl, r0, ip, ror r4
    a388:	0000a47c 	andeq	sl, r0, ip, ror r4
    a38c:	0000a47c 	andeq	sl, r0, ip, ror r4
    a390:	0000a408 	andeq	sl, r0, r8, lsl #8
    a394:	e59d1064 	ldr	r1, [sp, #100]	; 0x64
    a398:	e2911000 	adds	r1, r1, #0
    a39c:	13a01001 	movne	r1, #1
    a3a0:	e0111fa3 	ands	r1, r1, r3, lsr #31
    a3a4:	1263c000 	rsbne	ip, r3, #0
    a3a8:	13a08001 	movne	r8, #1
    a3ac:	03a08000 	moveq	r8, #0
    a3b0:	e28d1008 	add	r1, sp, #8
    a3b4:	e59f7108 	ldr	r7, [pc, #264]	; a4c4 <emit+0x19c>
    a3b8:	e59f6108 	ldr	r6, [pc, #264]	; a4c8 <emit+0x1a0>
    a3bc:	ea000000 	b	a3c4 <emit+0x9c>
    a3c0:	e1a01000 	mov	r1, r0
    a3c4:	e2810001 	add	r0, r1, #1
    a3c8:	e083ec97 	umull	lr, r3, r7, ip
    a3cc:	e1a031a3 	lsr	r3, r3, #3
    a3d0:	e1a0e003 	mov	lr, r3
    a3d4:	e0833103 	add	r3, r3, r3, lsl #2
    a3d8:	e1a03083 	lsl	r3, r3, #1
    a3dc:	e063300c 	rsb	r3, r3, ip
    a3e0:	e7d63003 	ldrb	r3, [r6, r3]
    a3e4:	e5c13000 	strb	r3, [r1]
    a3e8:	e1a0c00e 	mov	ip, lr
    a3ec:	e35e0000 	cmp	lr, #0
    a3f0:	1afffff2 	bne	a3c0 <emit+0x98>
    a3f4:	e3580000 	cmp	r8, #0
    a3f8:	12810002 	addne	r0, r1, #2
    a3fc:	13a0302d 	movne	r3, #45	; 0x2d
    a400:	15c13001 	strbne	r3, [r1, #1]
    a404:	ea000025 	b	a4a0 <emit+0x178>
    a408:	e28d3008 	add	r3, sp, #8
    a40c:	e59fe0b8 	ldr	lr, [pc, #184]	; a4cc <emit+0x1a4>
    a410:	ea000000 	b	a418 <emit+0xf0>
    a414:	e1a03000 	mov	r3, r0
    a418:	e2830001 	add	r0, r3, #1
    a41c:	e20c100f 	and	r1, ip, #15
    a420:	e7de1001 	ldrb	r1, [lr, r1]
    a424:	e5c31000 	strb	r1, [r3]
    a428:	e1b0c22c 	lsrs	ip, ip, #4
    a42c:	1afffff8 	bne	a414 <emit+0xec>
    a430:	e3a01078 	mov	r1, #120	; 0x78
    a434:	e5c31001 	strb	r1, [r3, #1]
    a438:	e2830003 	add	r0, r3, #3
    a43c:	e3a01030 	mov	r1, #48	; 0x30
    a440:	e5c31002 	strb	r1, [r3, #2]
    a444:	ea000015 	b	a4a0 <emit+0x178>
    a448:	e5cd3008 	strb	r3, [sp, #8]
    a44c:	e28d0009 	add	r0, sp, #9
    a450:	ea000012 	b	a4a0 <emit+0x178>
    a454:	e28d3008 	add	r3, sp, #8
    a458:	e59fe070 	ldr	lr, [pc, #112]	; a4d0 <emit+0x1a8>
    a45c:	e2830001 	add	r0, r3, #1
    a460:	e20c1001 	and	r1, ip, #1
    a464:	e7de1001 	ldrb	r1, [lr, r1]
    a468:	e5c31000 	strb	r1, [r3]
    a46c:	e1a03000 	mov	r3, r0
    a470:	e1b0c0ac 	lsrs	ip, ip, #1
    a474:	1afffff8 	bne	a45c <emit+0x134>
    a478:	ea000008 	b	a4a0 <emit+0x178>
    a47c:	ebffff72 	bl	a24c <rpi_reset_putc>
    a480:	e59f304c 	ldr	r3, [pc, #76]	; a4d4 <emit+0x1ac>
    a484:	e58d3000 	str	r3, [sp]
    a488:	e59f0048 	ldr	r0, [pc, #72]	; a4d8 <emit+0x1b0>
    a48c:	e59f1048 	ldr	r1, [pc, #72]	; a4dc <emit+0x1b4>
    a490:	e59f2048 	ldr	r2, [pc, #72]	; a4e0 <emit+0x1b8>
    a494:	e3a03077 	mov	r3, #119	; 0x77
    a498:	ebffff50 	bl	a1e0 <printk>
    a49c:	eb0000df 	bl	a820 <clean_reboot>
    a4a0:	e28d1008 	add	r1, sp, #8
    a4a4:	ebffff84 	bl	a2bc <pad>
    a4a8:	e1a02000 	mov	r2, r0
    a4ac:	e1a00005 	mov	r0, r5
    a4b0:	e1a01004 	mov	r1, r4
    a4b4:	e28d3008 	add	r3, sp, #8
    a4b8:	ebffff8a 	bl	a2e8 <reverse>
    a4bc:	e28dd048 	add	sp, sp, #72	; 0x48
    a4c0:	e8bd81f0 	pop	{r4, r5, r6, r7, r8, pc}
    a4c4:	cccccccd 	stclgt	12, cr12, [ip], {205}	; 0xcd
    a4c8:	0000beec 	andeq	fp, r0, ip, ror #29
    a4cc:	0000bef8 	strdeq	fp, [r0], -r8
    a4d0:	0000bf0c 	andeq	fp, r0, ip, lsl #30
    a4d4:	0000b6e0 	andeq	fp, r0, r0, ror #13
    a4d8:	0000afb8 			; <UNDEFINED> instruction: 0x0000afb8
    a4dc:	0000bed8 	ldrdeq	fp, [r0], -r8
    a4e0:	0000beb4 			; <UNDEFINED> instruction: 0x0000beb4

0000a4e4 <rpi_set_output>:
    a4e4:	e52de004 	push	{lr}		; (str lr, [sp, #-4]!)
    a4e8:	e24dd00c 	sub	sp, sp, #12
    a4ec:	e3500000 	cmp	r0, #0
    a4f0:	1a000008 	bne	a518 <rpi_set_output+0x34>
    a4f4:	ebffff54 	bl	a24c <rpi_reset_putc>
    a4f8:	e59f3034 	ldr	r3, [pc, #52]	; a534 <rpi_set_output+0x50>
    a4fc:	e58d3000 	str	r3, [sp]
    a500:	e59f0030 	ldr	r0, [pc, #48]	; a538 <rpi_set_output+0x54>
    a504:	e59f1030 	ldr	r1, [pc, #48]	; a53c <rpi_set_output+0x58>
    a508:	e59f2030 	ldr	r2, [pc, #48]	; a540 <rpi_set_output+0x5c>
    a50c:	e3a03020 	mov	r3, #32
    a510:	ebffff32 	bl	a1e0 <printk>
    a514:	eb0000c1 	bl	a820 <clean_reboot>
    a518:	e59f3024 	ldr	r3, [pc, #36]	; a544 <rpi_set_output+0x60>
    a51c:	e5830000 	str	r0, [r3]
    a520:	e3510000 	cmp	r1, #0
    a524:	159f301c 	ldrne	r3, [pc, #28]	; a548 <rpi_set_output+0x64>
    a528:	15831000 	strne	r1, [r3]
    a52c:	e28dd00c 	add	sp, sp, #12
    a530:	e49df004 	pop	{pc}		; (ldr pc, [sp], #4)
    a534:	0000bf10 	andeq	fp, r0, r0, lsl pc
    a538:	0000afb8 			; <UNDEFINED> instruction: 0x0000afb8
    a53c:	0000bed8 	ldrdeq	fp, [r0], -r8
    a540:	0000bebc 			; <UNDEFINED> instruction: 0x0000bebc
    a544:	0000afa8 	andeq	sl, r0, r8, lsr #31
    a548:	0000afac 	andeq	sl, r0, ip, lsr #31

0000a54c <va_printk>:
    a54c:	e92d4ff0 	push	{r4, r5, r6, r7, r8, r9, sl, fp, lr}
    a550:	e24dd094 	sub	sp, sp, #148	; 0x94
    a554:	e1a0b000 	mov	fp, r0
    a558:	e58d200c 	str	r2, [sp, #12]
    a55c:	e1a0a003 	mov	sl, r3
    a560:	e2411001 	sub	r1, r1, #1
    a564:	e0808001 	add	r8, r0, r1
    a568:	e3a03000 	mov	r3, #0
    a56c:	e5c03000 	strb	r3, [r0]
    a570:	e1a04000 	mov	r4, r0
    a574:	e1a06002 	mov	r6, r2
    a578:	ea000095 	b	a7d4 <va_printk+0x288>
    a57c:	e3530025 	cmp	r3, #37	; 0x25
    a580:	12866001 	addne	r6, r6, #1
    a584:	15c43000 	strbne	r3, [r4]
    a588:	12844001 	addne	r4, r4, #1
    a58c:	1a000090 	bne	a7d4 <va_printk+0x288>
    a590:	e5d62001 	ldrb	r2, [r6, #1]
    a594:	e3520025 	cmp	r2, #37	; 0x25
    a598:	05c43000 	strbeq	r3, [r4]
    a59c:	02866002 	addeq	r6, r6, #2
    a5a0:	02844001 	addeq	r4, r4, #1
    a5a4:	0a00008a 	beq	a7d4 <va_printk+0x288>
    a5a8:	e2866001 	add	r6, r6, #1
    a5ac:	e3a07000 	mov	r7, #0
    a5b0:	ea000004 	b	a5c8 <va_printk+0x7c>
    a5b4:	e0877107 	add	r7, r7, r7, lsl #2
    a5b8:	e1a07087 	lsl	r7, r7, #1
    a5bc:	e0877005 	add	r7, r7, r5
    a5c0:	e2477030 	sub	r7, r7, #48	; 0x30
    a5c4:	e2866001 	add	r6, r6, #1
    a5c8:	e5d65000 	ldrb	r5, [r6]
    a5cc:	e1a09005 	mov	r9, r5
    a5d0:	e1a00005 	mov	r0, r5
    a5d4:	ebffff33 	bl	a2a8 <isdigit>
    a5d8:	e3500000 	cmp	r0, #0
    a5dc:	1afffff4 	bne	a5b4 <va_printk+0x68>
    a5e0:	e357001f 	cmp	r7, #31
    a5e4:	9a000008 	bls	a60c <va_printk+0xc0>
    a5e8:	ebffff17 	bl	a24c <rpi_reset_putc>
    a5ec:	e59f320c 	ldr	r3, [pc, #524]	; a800 <va_printk+0x2b4>
    a5f0:	e58d3000 	str	r3, [sp]
    a5f4:	e59f0208 	ldr	r0, [pc, #520]	; a804 <va_printk+0x2b8>
    a5f8:	e59f1208 	ldr	r1, [pc, #520]	; a808 <va_printk+0x2bc>
    a5fc:	e59f2208 	ldr	r2, [pc, #520]	; a80c <va_printk+0x2c0>
    a600:	e3a03095 	mov	r3, #149	; 0x95
    a604:	ebfffef5 	bl	a1e0 <printk>
    a608:	eb000084 	bl	a820 <clean_reboot>
    a60c:	e2455062 	sub	r5, r5, #98	; 0x62
    a610:	e3550016 	cmp	r5, #22
    a614:	979ff105 	ldrls	pc, [pc, r5, lsl #2]
    a618:	ea000052 	b	a768 <va_printk+0x21c>
    a61c:	0000a70c 	andeq	sl, r0, ip, lsl #14
    a620:	0000a740 	andeq	sl, r0, r0, asr #14
    a624:	0000a694 	muleq	r0, r4, r6
    a628:	0000a768 	andeq	sl, r0, r8, ror #14
    a62c:	0000a678 	andeq	sl, r0, r8, ror r6
    a630:	0000a768 	andeq	sl, r0, r8, ror #14
    a634:	0000a768 	andeq	sl, r0, r8, ror #14
    a638:	0000a768 	andeq	sl, r0, r8, ror #14
    a63c:	0000a768 	andeq	sl, r0, r8, ror #14
    a640:	0000a768 	andeq	sl, r0, r8, ror #14
    a644:	0000a768 	andeq	sl, r0, r8, ror #14
    a648:	0000a768 	andeq	sl, r0, r8, ror #14
    a64c:	0000a768 	andeq	sl, r0, r8, ror #14
    a650:	0000a768 	andeq	sl, r0, r8, ror #14
    a654:	0000a6e4 	andeq	sl, r0, r4, ror #13
    a658:	0000a768 	andeq	sl, r0, r8, ror #14
    a65c:	0000a768 	andeq	sl, r0, r8, ror #14
    a660:	0000a734 	andeq	sl, r0, r4, lsr r7
    a664:	0000a768 	andeq	sl, r0, r8, ror #14
    a668:	0000a6bc 			; <UNDEFINED> instruction: 0x0000a6bc
    a66c:	0000a768 	andeq	sl, r0, r8, ror #14
    a670:	0000a768 	andeq	sl, r0, r8, ror #14
    a674:	0000a6e4 	andeq	sl, r0, r4, ror #13
    a678:	ebfffef3 	bl	a24c <rpi_reset_putc>
    a67c:	e59f018c 	ldr	r0, [pc, #396]	; a810 <va_printk+0x2c4>
    a680:	e59f1180 	ldr	r1, [pc, #384]	; a808 <va_printk+0x2bc>
    a684:	e59f2180 	ldr	r2, [pc, #384]	; a80c <va_printk+0x2c0>
    a688:	e3a0309b 	mov	r3, #155	; 0x9b
    a68c:	ebfffed3 	bl	a1e0 <printk>
    a690:	eb000062 	bl	a820 <clean_reboot>
    a694:	e59a3000 	ldr	r3, [sl]
    a698:	e28aa004 	add	sl, sl, #4
    a69c:	e58d7000 	str	r7, [sp]
    a6a0:	e3a02001 	mov	r2, #1
    a6a4:	e58d2004 	str	r2, [sp, #4]
    a6a8:	e3a0000a 	mov	r0, #10
    a6ac:	e28d1010 	add	r1, sp, #16
    a6b0:	e3a02080 	mov	r2, #128	; 0x80
    a6b4:	ebffff1b 	bl	a328 <emit>
    a6b8:	ea00003b 	b	a7ac <va_printk+0x260>
    a6bc:	e59a3000 	ldr	r3, [sl]
    a6c0:	e28aa004 	add	sl, sl, #4
    a6c4:	e58d7000 	str	r7, [sp]
    a6c8:	e3a02000 	mov	r2, #0
    a6cc:	e58d2004 	str	r2, [sp, #4]
    a6d0:	e3a0000a 	mov	r0, #10
    a6d4:	e28d1010 	add	r1, sp, #16
    a6d8:	e3a02080 	mov	r2, #128	; 0x80
    a6dc:	ebffff11 	bl	a328 <emit>
    a6e0:	ea000031 	b	a7ac <va_printk+0x260>
    a6e4:	e59a3000 	ldr	r3, [sl]
    a6e8:	e28aa004 	add	sl, sl, #4
    a6ec:	e58d7000 	str	r7, [sp]
    a6f0:	e3a02000 	mov	r2, #0
    a6f4:	e58d2004 	str	r2, [sp, #4]
    a6f8:	e3a00010 	mov	r0, #16
    a6fc:	e08d1000 	add	r1, sp, r0
    a700:	e3a02080 	mov	r2, #128	; 0x80
    a704:	ebffff07 	bl	a328 <emit>
    a708:	ea000027 	b	a7ac <va_printk+0x260>
    a70c:	e59a3000 	ldr	r3, [sl]
    a710:	e28aa004 	add	sl, sl, #4
    a714:	e58d7000 	str	r7, [sp]
    a718:	e3a02000 	mov	r2, #0
    a71c:	e58d2004 	str	r2, [sp, #4]
    a720:	e3a00002 	mov	r0, #2
    a724:	e28d1010 	add	r1, sp, #16
    a728:	e3a02080 	mov	r2, #128	; 0x80
    a72c:	ebfffefd 	bl	a328 <emit>
    a730:	ea00001d 	b	a7ac <va_printk+0x260>
    a734:	e59a0000 	ldr	r0, [sl]
    a738:	e28aa004 	add	sl, sl, #4
    a73c:	ea00001a 	b	a7ac <va_printk+0x260>
    a740:	e59a3000 	ldr	r3, [sl]
    a744:	e28aa004 	add	sl, sl, #4
    a748:	e58d7000 	str	r7, [sp]
    a74c:	e3a02000 	mov	r2, #0
    a750:	e58d2004 	str	r2, [sp, #4]
    a754:	e3a00008 	mov	r0, #8
    a758:	e28d1010 	add	r1, sp, #16
    a75c:	e3a02080 	mov	r2, #128	; 0x80
    a760:	ebfffef0 	bl	a328 <emit>
    a764:	ea000010 	b	a7ac <va_printk+0x260>
    a768:	e3a03000 	mov	r3, #0
    a76c:	e5c63001 	strb	r3, [r6, #1]
    a770:	e59f009c 	ldr	r0, [pc, #156]	; a814 <va_printk+0x2c8>
    a774:	e1a01009 	mov	r1, r9
    a778:	e1a02009 	mov	r2, r9
    a77c:	ebfffe97 	bl	a1e0 <printk>
    a780:	e59f3090 	ldr	r3, [pc, #144]	; a818 <va_printk+0x2cc>
    a784:	e5933000 	ldr	r3, [r3]
    a788:	e59d000c 	ldr	r0, [sp, #12]
    a78c:	e12fff33 	blx	r3
    a790:	ebfffead 	bl	a24c <rpi_reset_putc>
    a794:	e59f0080 	ldr	r0, [pc, #128]	; a81c <va_printk+0x2d0>
    a798:	e59f1068 	ldr	r1, [pc, #104]	; a808 <va_printk+0x2bc>
    a79c:	e59f2068 	ldr	r2, [pc, #104]	; a80c <va_printk+0x2c0>
    a7a0:	e3a030bf 	mov	r3, #191	; 0xbf
    a7a4:	ebfffe8d 	bl	a1e0 <printk>
    a7a8:	eb00001c 	bl	a820 <clean_reboot>
    a7ac:	e2866001 	add	r6, r6, #1
    a7b0:	ea000002 	b	a7c0 <va_printk+0x274>
    a7b4:	e2800001 	add	r0, r0, #1
    a7b8:	e5c43000 	strb	r3, [r4]
    a7bc:	e2844001 	add	r4, r4, #1
    a7c0:	e1540008 	cmp	r4, r8
    a7c4:	2a000002 	bcs	a7d4 <va_printk+0x288>
    a7c8:	e5d03000 	ldrb	r3, [r0]
    a7cc:	e3530000 	cmp	r3, #0
    a7d0:	1afffff7 	bne	a7b4 <va_printk+0x268>
    a7d4:	e5d63000 	ldrb	r3, [r6]
    a7d8:	e3530000 	cmp	r3, #0
    a7dc:	0a000001 	beq	a7e8 <va_printk+0x29c>
    a7e0:	e1540008 	cmp	r4, r8
    a7e4:	3affff64 	bcc	a57c <va_printk+0x30>
    a7e8:	e2840001 	add	r0, r4, #1
    a7ec:	e3a03000 	mov	r3, #0
    a7f0:	e5c43000 	strb	r3, [r4]
    a7f4:	e06b0000 	rsb	r0, fp, r0
    a7f8:	e28dd094 	add	sp, sp, #148	; 0x94
    a7fc:	e8bd8ff0 	pop	{r4, r5, r6, r7, r8, r9, sl, fp, pc}
    a800:	0000bf18 	andeq	fp, r0, r8, lsl pc
    a804:	0000afb8 			; <UNDEFINED> instruction: 0x0000afb8
    a808:	0000bed8 	ldrdeq	fp, [r0], -r8
    a80c:	0000becc 	andeq	fp, r0, ip, asr #29
    a810:	0000bf24 	andeq	fp, r0, r4, lsr #30
    a814:	0000bf4c 	andeq	fp, r0, ip, asr #30
    a818:	0000afac 	andeq	sl, r0, ip, lsr #31
    a81c:	0000bf7c 	andeq	fp, r0, ip, ror pc

0000a820 <clean_reboot>:
    a820:	e92d4008 	push	{r3, lr}
    a824:	eb00005b 	bl	a998 <reboot_handler>
    a828:	e59f3014 	ldr	r3, [pc, #20]	; a844 <clean_reboot+0x24>
    a82c:	e5933000 	ldr	r3, [r3]
    a830:	e59f0010 	ldr	r0, [pc, #16]	; a848 <clean_reboot+0x28>
    a834:	e12fff33 	blx	r3
    a838:	e3a00064 	mov	r0, #100	; 0x64
    a83c:	eb0000aa 	bl	aaec <delay_ms>
    a840:	eb00007b 	bl	aa34 <rpi_reboot>
    a844:	0000afac 	andeq	sl, r0, ip, lsr #31
    a848:	0000bf9c 	muleq	r0, ip, pc	; <UNPREDICTABLE>

0000a84c <_cstart>:
    a84c:	e92d4008 	push	{r3, lr}
    a850:	e59f3024 	ldr	r3, [pc, #36]	; a87c <_cstart+0x30>
    a854:	e59f2024 	ldr	r2, [pc, #36]	; a880 <_cstart+0x34>
    a858:	e3a01000 	mov	r1, #0
    a85c:	ea000001 	b	a868 <_cstart+0x1c>
    a860:	e5831000 	str	r1, [r3]
    a864:	e2833004 	add	r3, r3, #4
    a868:	e1530002 	cmp	r3, r2
    a86c:	3afffffb 	bcc	a860 <_cstart+0x14>
    a870:	eb000047 	bl	a994 <cstart_handler>
    a874:	ebfff5e9 	bl	8020 <notmain>
    a878:	ebffffe8 	bl	a820 <clean_reboot>
    a87c:	0000c230 	andeq	ip, r0, r0, lsr r2
    a880:	0000c648 	andeq	ip, r0, r8, asr #12

0000a884 <fast_interrupt_vector>:
    a884:	e52de004 	push	{lr}		; (str lr, [sp, #-4]!)
    a888:	e24dd00c 	sub	sp, sp, #12
    a88c:	e1a04000 	mov	r4, r0
    a890:	ebfffe6d 	bl	a24c <rpi_reset_putc>
    a894:	e59f301c 	ldr	r3, [pc, #28]	; a8b8 <fast_interrupt_vector+0x34>
    a898:	e58d3000 	str	r3, [sp]
    a89c:	e58d4004 	str	r4, [sp, #4]
    a8a0:	e59f0014 	ldr	r0, [pc, #20]	; a8bc <fast_interrupt_vector+0x38>
    a8a4:	e59f1014 	ldr	r1, [pc, #20]	; a8c0 <fast_interrupt_vector+0x3c>
    a8a8:	e59f2014 	ldr	r2, [pc, #20]	; a8c4 <fast_interrupt_vector+0x40>
    a8ac:	e3a03002 	mov	r3, #2
    a8b0:	ebfffe4a 	bl	a1e0 <printk>
    a8b4:	ebffffd9 	bl	a820 <clean_reboot>
    a8b8:	0000c020 	andeq	ip, r0, r0, lsr #32
    a8bc:	0000bfc0 	andeq	fp, r0, r0, asr #31
    a8c0:	0000bffc 	strdeq	fp, [r0], -ip
    a8c4:	0000bfa8 	andeq	fp, r0, r8, lsr #31

0000a8c8 <prefetch_abort_vector>:
    a8c8:	e52de004 	push	{lr}		; (str lr, [sp, #-4]!)
    a8cc:	e24dd00c 	sub	sp, sp, #12
    a8d0:	e1a04000 	mov	r4, r0
    a8d4:	ebfffe5c 	bl	a24c <rpi_reset_putc>
    a8d8:	e59f301c 	ldr	r3, [pc, #28]	; a8fc <prefetch_abort_vector+0x34>
    a8dc:	e58d3000 	str	r3, [sp]
    a8e0:	e58d4004 	str	r4, [sp, #4]
    a8e4:	e59f0014 	ldr	r0, [pc, #20]	; a900 <prefetch_abort_vector+0x38>
    a8e8:	e59f1014 	ldr	r1, [pc, #20]	; a904 <prefetch_abort_vector+0x3c>
    a8ec:	e59f2014 	ldr	r2, [pc, #20]	; a908 <prefetch_abort_vector+0x40>
    a8f0:	e3a03002 	mov	r3, #2
    a8f4:	ebfffe39 	bl	a1e0 <printk>
    a8f8:	ebffffc8 	bl	a820 <clean_reboot>
    a8fc:	0000c068 	andeq	ip, r0, r8, rrx
    a900:	0000bfc0 	andeq	fp, r0, r0, asr #31
    a904:	0000c040 	andeq	ip, r0, r0, asr #32
    a908:	0000c028 	andeq	ip, r0, r8, lsr #32

0000a90c <reset_vector>:
    a90c:	e52de004 	push	{lr}		; (str lr, [sp, #-4]!)
    a910:	e24dd00c 	sub	sp, sp, #12
    a914:	e1a04000 	mov	r4, r0
    a918:	ebfffe4b 	bl	a24c <rpi_reset_putc>
    a91c:	e59f301c 	ldr	r3, [pc, #28]	; a940 <reset_vector+0x34>
    a920:	e58d3000 	str	r3, [sp]
    a924:	e58d4004 	str	r4, [sp, #4]
    a928:	e59f0014 	ldr	r0, [pc, #20]	; a944 <reset_vector+0x38>
    a92c:	e59f1014 	ldr	r1, [pc, #20]	; a948 <reset_vector+0x3c>
    a930:	e59f2014 	ldr	r2, [pc, #20]	; a94c <reset_vector+0x40>
    a934:	e3a03002 	mov	r3, #2
    a938:	ebfffe28 	bl	a1e0 <printk>
    a93c:	ebffffb7 	bl	a820 <clean_reboot>
    a940:	0000c0ac 	andeq	ip, r0, ip, lsr #1
    a944:	0000bfc0 	andeq	fp, r0, r0, asr #31
    a948:	0000c088 	andeq	ip, r0, r8, lsl #1
    a94c:	0000c078 	andeq	ip, r0, r8, ror r0

0000a950 <undefined_instruction_vector>:
    a950:	e52de004 	push	{lr}		; (str lr, [sp, #-4]!)
    a954:	e24dd00c 	sub	sp, sp, #12
    a958:	e1a04000 	mov	r4, r0
    a95c:	ebfffe3a 	bl	a24c <rpi_reset_putc>
    a960:	e59f301c 	ldr	r3, [pc, #28]	; a984 <undefined_instruction_vector+0x34>
    a964:	e58d3000 	str	r3, [sp]
    a968:	e58d4004 	str	r4, [sp, #4]
    a96c:	e59f0014 	ldr	r0, [pc, #20]	; a988 <undefined_instruction_vector+0x38>
    a970:	e59f1014 	ldr	r1, [pc, #20]	; a98c <undefined_instruction_vector+0x3c>
    a974:	e59f2014 	ldr	r2, [pc, #20]	; a990 <undefined_instruction_vector+0x40>
    a978:	e3a03002 	mov	r3, #2
    a97c:	ebfffe17 	bl	a1e0 <printk>
    a980:	ebffffa6 	bl	a820 <clean_reboot>
    a984:	0000c100 	andeq	ip, r0, r0, lsl #2
    a988:	0000bfc0 	andeq	fp, r0, r0, asr #31
    a98c:	0000c0d4 	ldrdeq	ip, [r0], -r4
    a990:	0000c0b4 	strheq	ip, [r0], -r4

0000a994 <cstart_handler>:
    a994:	e12fff1e 	bx	lr

0000a998 <reboot_handler>:
    a998:	e12fff1e 	bx	lr

0000a99c <int_init>:
    a99c:	e92d4008 	push	{r3, lr}
    a9a0:	eb00005b 	bl	ab14 <dev_barrier>
    a9a4:	e59f004c 	ldr	r0, [pc, #76]	; a9f8 <int_init+0x5c>
    a9a8:	e3e01000 	mvn	r1, #0
    a9ac:	eb000060 	bl	ab34 <PUT32>
    a9b0:	e59f0044 	ldr	r0, [pc, #68]	; a9fc <int_init+0x60>
    a9b4:	e3e01000 	mvn	r1, #0
    a9b8:	eb00005d 	bl	ab34 <PUT32>
    a9bc:	eb000054 	bl	ab14 <dev_barrier>
    a9c0:	e59f3038 	ldr	r3, [pc, #56]	; aa00 <int_init+0x64>
    a9c4:	e59f0038 	ldr	r0, [pc, #56]	; aa04 <int_init+0x68>
    a9c8:	e0630000 	rsb	r0, r3, r0
    a9cc:	e1a00140 	asr	r0, r0, #2
    a9d0:	e3a03000 	mov	r3, #0
    a9d4:	e59fc024 	ldr	ip, [pc, #36]	; aa00 <int_init+0x64>
    a9d8:	ea000003 	b	a9ec <int_init+0x50>
    a9dc:	e1a02103 	lsl	r2, r3, #2
    a9e0:	e79c1103 	ldr	r1, [ip, r3, lsl #2]
    a9e4:	e5821000 	str	r1, [r2]
    a9e8:	e2833001 	add	r3, r3, #1
    a9ec:	e1530000 	cmp	r3, r0
    a9f0:	3afffff9 	bcc	a9dc <int_init+0x40>
    a9f4:	e8bd8008 	pop	{r3, pc}
    a9f8:	2000b21c 	andcs	fp, r0, ip, lsl r2
    a9fc:	2000b220 	andcs	fp, r0, r0, lsr #4
    aa00:	000080c4 	andeq	r8, r0, r4, asr #1
    aa04:	00008104 	andeq	r8, r0, r4, lsl #2

0000aa08 <at_user_level>:
    aa08:	e10f0000 	mrs	r0, CPSR
    aa0c:	e200001f 	and	r0, r0, #31
    aa10:	e3500010 	cmp	r0, #16
    aa14:	13a00000 	movne	r0, #0
    aa18:	03a00001 	moveq	r0, #1
    aa1c:	e12fff1e 	bx	lr

0000aa20 <set_user_level>:
    aa20:	e10f3000 	mrs	r3, CPSR
    aa24:	e3c3301f 	bic	r3, r3, #31
    aa28:	e3833010 	orr	r3, r3, #16
    aa2c:	e129f003 	msr	CPSR_fc, r3
    aa30:	e12fff1e 	bx	lr

0000aa34 <rpi_reboot>:
    aa34:	e92d4008 	push	{r3, lr}
    aa38:	ebfffff2 	bl	aa08 <at_user_level>
    aa3c:	e3500000 	cmp	r0, #0
    aa40:	0a000000 	beq	aa48 <rpi_reboot+0x14>
    aa44:	ebfffff5 	bl	aa20 <set_user_level>
    aa48:	e3a0001e 	mov	r0, #30
    aa4c:	eb000026 	bl	aaec <delay_ms>
    aa50:	e59f0014 	ldr	r0, [pc, #20]	; aa6c <rpi_reboot+0x38>
    aa54:	e59f1014 	ldr	r1, [pc, #20]	; aa70 <rpi_reboot+0x3c>
    aa58:	eb000035 	bl	ab34 <PUT32>
    aa5c:	e59f0010 	ldr	r0, [pc, #16]	; aa74 <rpi_reboot+0x40>
    aa60:	e59f1010 	ldr	r1, [pc, #16]	; aa78 <rpi_reboot+0x44>
    aa64:	eb000032 	bl	ab34 <PUT32>
    aa68:	eafffffe 	b	aa68 <rpi_reboot+0x34>
    aa6c:	20100024 	andscs	r0, r0, r4, lsr #32
    aa70:	5a000001 	bpl	aa7c <delay_cycles>
    aa74:	2010001c 	andscs	r0, r0, ip, lsl r0
    aa78:	5a000020 	bpl	ab00 <delay_sec>

0000aa7c <delay_cycles>:
    aa7c:	ea000001 	b	aa88 <delay_cycles+0xc>
    aa80:	e2811000 	add	r1, r1, #0
    aa84:	e1a00003 	mov	r0, r3
    aa88:	e2403001 	sub	r3, r0, #1
    aa8c:	e3500000 	cmp	r0, #0
    aa90:	1afffffa 	bne	aa80 <delay_cycles+0x4>
    aa94:	e12fff1e 	bx	lr

0000aa98 <timer_get_usec_raw>:
    aa98:	e92d4008 	push	{r3, lr}
    aa9c:	e59f0004 	ldr	r0, [pc, #4]	; aaa8 <timer_get_usec_raw+0x10>
    aaa0:	eb00002f 	bl	ab64 <GET32>
    aaa4:	e8bd8008 	pop	{r3, pc}
    aaa8:	20003004 	andcs	r3, r0, r4

0000aaac <timer_get_usec>:
    aaac:	e92d4010 	push	{r4, lr}
    aab0:	eb000017 	bl	ab14 <dev_barrier>
    aab4:	ebfffff7 	bl	aa98 <timer_get_usec_raw>
    aab8:	e1a04000 	mov	r4, r0
    aabc:	eb000014 	bl	ab14 <dev_barrier>
    aac0:	e1a00004 	mov	r0, r4
    aac4:	e8bd8010 	pop	{r4, pc}

0000aac8 <delay_us>:
    aac8:	e92d4038 	push	{r3, r4, r5, lr}
    aacc:	e1a05000 	mov	r5, r0
    aad0:	ebfffff5 	bl	aaac <timer_get_usec>
    aad4:	e1a04000 	mov	r4, r0
    aad8:	ebfffff3 	bl	aaac <timer_get_usec>
    aadc:	e0640000 	rsb	r0, r4, r0
    aae0:	e1500005 	cmp	r0, r5
    aae4:	3afffffb 	bcc	aad8 <delay_us+0x10>
    aae8:	e8bd8038 	pop	{r3, r4, r5, pc}

0000aaec <delay_ms>:
    aaec:	e92d4008 	push	{r3, lr}
    aaf0:	e3a03ffa 	mov	r3, #1000	; 0x3e8
    aaf4:	e0000093 	mul	r0, r3, r0
    aaf8:	ebfffff2 	bl	aac8 <delay_us>
    aafc:	e8bd8008 	pop	{r3, pc}

0000ab00 <delay_sec>:
    ab00:	e92d4008 	push	{r3, lr}
    ab04:	e3a03ffa 	mov	r3, #1000	; 0x3e8
    ab08:	e0000093 	mul	r0, r3, r0
    ab0c:	ebfffff6 	bl	aaec <delay_ms>
    ab10:	e8bd8008 	pop	{r3, pc}

0000ab14 <dev_barrier>:
    ab14:	ea000002 	b	ab24 <dsb>

0000ab18 <dmb>:
    ab18:	e3a00000 	mov	r0, #0
    ab1c:	ee070fba 	mcr	15, 0, r0, cr7, cr10, {5}
    ab20:	e12fff1e 	bx	lr

0000ab24 <dsb>:
    ab24:	ee070f9a 	mcr	15, 0, r0, cr7, cr10, {4}
    ab28:	e12fff1e 	bx	lr

0000ab2c <put32>:
    ab2c:	e5801000 	str	r1, [r0]
    ab30:	e12fff1e 	bx	lr

0000ab34 <PUT32>:
    ab34:	e5801000 	str	r1, [r0]
    ab38:	e12fff1e 	bx	lr

0000ab3c <put16>:
    ab3c:	e1c010b0 	strh	r1, [r0]
    ab40:	e12fff1e 	bx	lr

0000ab44 <PUT16>:
    ab44:	e1c010b0 	strh	r1, [r0]
    ab48:	e12fff1e 	bx	lr

0000ab4c <put8>:
    ab4c:	e5c01000 	strb	r1, [r0]
    ab50:	e12fff1e 	bx	lr

0000ab54 <PUT8>:
    ab54:	e5c01000 	strb	r1, [r0]
    ab58:	e12fff1e 	bx	lr

0000ab5c <get32>:
    ab5c:	e5900000 	ldr	r0, [r0]
    ab60:	e12fff1e 	bx	lr

0000ab64 <GET32>:
    ab64:	e5900000 	ldr	r0, [r0]
    ab68:	e12fff1e 	bx	lr

0000ab6c <GETPC>:
    ab6c:	e1a0000e 	mov	r0, lr
    ab70:	e12fff1e 	bx	lr

0000ab74 <dummy>:
    ab74:	e12fff1e 	bx	lr

0000ab78 <or_in32>:
    ab78:	e92d4070 	push	{r4, r5, r6, lr}
    ab7c:	e1a04000 	mov	r4, r0
    ab80:	e1a05001 	mov	r5, r1
    ab84:	ebfffff4 	bl	ab5c <get32>
    ab88:	e1801005 	orr	r1, r0, r5
    ab8c:	e1a00004 	mov	r0, r4
    ab90:	ebffffe5 	bl	ab2c <put32>
    ab94:	e8bd8070 	pop	{r4, r5, r6, pc}

0000ab98 <uart_init>:
    ab98:	e92d4010 	push	{r4, lr}
    ab9c:	e3a01002 	mov	r1, #2
    aba0:	e3a0000e 	mov	r0, #14
    aba4:	eb000051 	bl	acf0 <gpio_set_function>
    aba8:	e3a01002 	mov	r1, #2
    abac:	e3a0000f 	mov	r0, #15
    abb0:	eb00004e 	bl	acf0 <gpio_set_function>
    abb4:	ebffffd6 	bl	ab14 <dev_barrier>
    abb8:	e3a01001 	mov	r1, #1
    abbc:	e59f0064 	ldr	r0, [pc, #100]	; ac28 <uart_init+0x90>
    abc0:	ebffffec 	bl	ab78 <or_in32>
    abc4:	ebffffd2 	bl	ab14 <dev_barrier>
    abc8:	e59f405c 	ldr	r4, [pc, #92]	; ac2c <uart_init+0x94>
    abcc:	e3a01000 	mov	r1, #0
    abd0:	e1a00004 	mov	r0, r4
    abd4:	ebffffd4 	bl	ab2c <put32>
    abd8:	e3a01000 	mov	r1, #0
    abdc:	e59f004c 	ldr	r0, [pc, #76]	; ac30 <uart_init+0x98>
    abe0:	ebffffd1 	bl	ab2c <put32>
    abe4:	e3a01003 	mov	r1, #3
    abe8:	e59f0044 	ldr	r0, [pc, #68]	; ac34 <uart_init+0x9c>
    abec:	ebffffce 	bl	ab2c <put32>
    abf0:	e3a01000 	mov	r1, #0
    abf4:	e59f003c 	ldr	r0, [pc, #60]	; ac38 <uart_init+0xa0>
    abf8:	ebffffcb 	bl	ab2c <put32>
    abfc:	e3a010c7 	mov	r1, #199	; 0xc7
    ac00:	e59f0034 	ldr	r0, [pc, #52]	; ac3c <uart_init+0xa4>
    ac04:	ebffffc8 	bl	ab2c <put32>
    ac08:	e59f1030 	ldr	r1, [pc, #48]	; ac40 <uart_init+0xa8>
    ac0c:	e59f0030 	ldr	r0, [pc, #48]	; ac44 <uart_init+0xac>
    ac10:	ebffffc5 	bl	ab2c <put32>
    ac14:	e3a01003 	mov	r1, #3
    ac18:	e1a00004 	mov	r0, r4
    ac1c:	ebffffc2 	bl	ab2c <put32>
    ac20:	ebffffbb 	bl	ab14 <dev_barrier>
    ac24:	e8bd8010 	pop	{r4, pc}
    ac28:	20215004 	eorcs	r5, r1, r4
    ac2c:	20215060 	eorcs	r5, r1, r0, rrx
    ac30:	20215044 	eorcs	r5, r1, r4, asr #32
    ac34:	2021504c 	eorcs	r5, r1, ip, asr #32
    ac38:	20215050 	eorcs	r5, r1, r0, asr r0
    ac3c:	20215048 	eorcs	r5, r1, r8, asr #32
    ac40:	0000010e 	andeq	r0, r0, lr, lsl #2
    ac44:	20215068 	eorcs	r5, r1, r8, rrx

0000ac48 <uart_can_getc>:
    ac48:	e92d4010 	push	{r4, lr}
    ac4c:	e59f0008 	ldr	r0, [pc, #8]	; ac5c <uart_can_getc+0x14>
    ac50:	ebffffc1 	bl	ab5c <get32>
    ac54:	e2000001 	and	r0, r0, #1
    ac58:	e8bd8010 	pop	{r4, pc}
    ac5c:	20215064 	eorcs	r5, r1, r4, rrx

0000ac60 <uart_can_putc>:
    ac60:	e92d4010 	push	{r4, lr}
    ac64:	e59f0010 	ldr	r0, [pc, #16]	; ac7c <uart_can_putc+0x1c>
    ac68:	ebffffbb 	bl	ab5c <get32>
    ac6c:	e3100002 	tst	r0, #2
    ac70:	13a00001 	movne	r0, #1
    ac74:	03a00000 	moveq	r0, #0
    ac78:	e8bd8010 	pop	{r4, pc}
    ac7c:	20215064 	eorcs	r5, r1, r4, rrx

0000ac80 <uart_getc>:
    ac80:	e92d4010 	push	{r4, lr}
    ac84:	ebffffa2 	bl	ab14 <dev_barrier>
    ac88:	ebffffee 	bl	ac48 <uart_can_getc>
    ac8c:	e3500000 	cmp	r0, #0
    ac90:	0afffffc 	beq	ac88 <uart_getc+0x8>
    ac94:	e59f0010 	ldr	r0, [pc, #16]	; acac <uart_getc+0x2c>
    ac98:	ebffffaf 	bl	ab5c <get32>
    ac9c:	e6ef4070 	uxtb	r4, r0
    aca0:	ebffff9b 	bl	ab14 <dev_barrier>
    aca4:	e1a00004 	mov	r0, r4
    aca8:	e8bd8010 	pop	{r4, pc}
    acac:	20215040 	eorcs	r5, r1, r0, asr #32

0000acb0 <uart_putc>:
    acb0:	e92d4010 	push	{r4, lr}
    acb4:	e1a04000 	mov	r4, r0
    acb8:	ebffff95 	bl	ab14 <dev_barrier>
    acbc:	ebffffe7 	bl	ac60 <uart_can_putc>
    acc0:	e3500000 	cmp	r0, #0
    acc4:	0afffffc 	beq	acbc <uart_putc+0xc>
    acc8:	e6ef1074 	uxtb	r1, r4
    accc:	e59f0008 	ldr	r0, [pc, #8]	; acdc <uart_putc+0x2c>
    acd0:	ebffff95 	bl	ab2c <put32>
    acd4:	ebffff8e 	bl	ab14 <dev_barrier>
    acd8:	e8bd8010 	pop	{r4, pc}
    acdc:	20215040 	eorcs	r5, r1, r0, asr #32

0000ace0 <uart_has_data>:
    ace0:	e92d4010 	push	{r4, lr}
    ace4:	ebffff8a 	bl	ab14 <dev_barrier>
    ace8:	ebffffd6 	bl	ac48 <uart_can_getc>
    acec:	e8bd8010 	pop	{r4, pc}

0000acf0 <gpio_set_function>:
    acf0:	e350001f 	cmp	r0, #31
    acf4:	812fff1e 	bxhi	lr
    acf8:	e3d13007 	bics	r3, r1, #7
    acfc:	112fff1e 	bxne	lr
    ad00:	e92d4070 	push	{r4, r5, r6, lr}
    ad04:	e1a05001 	mov	r5, r1
    ad08:	e59f3044 	ldr	r3, [pc, #68]	; ad54 <gpio_set_function+0x64>
    ad0c:	e0832093 	umull	r2, r3, r3, r0
    ad10:	e1a031a3 	lsr	r3, r3, #3
    ad14:	e1a06003 	mov	r6, r3
    ad18:	e0833103 	add	r3, r3, r3, lsl #2
    ad1c:	e1a02083 	lsl	r2, r3, #1
    ad20:	e0403002 	sub	r3, r0, r2
    ad24:	e0834083 	add	r4, r3, r3, lsl #1
    ad28:	e2866302 	add	r6, r6, #134217728	; 0x8000000
    ad2c:	e2866702 	add	r6, r6, #524288	; 0x80000
    ad30:	e1a06106 	lsl	r6, r6, #2
    ad34:	e1a00006 	mov	r0, r6
    ad38:	ebffff89 	bl	ab64 <GET32>
    ad3c:	e3a01007 	mov	r1, #7
    ad40:	e1c01411 	bic	r1, r0, r1, lsl r4
    ad44:	e1811415 	orr	r1, r1, r5, lsl r4
    ad48:	e1a00006 	mov	r0, r6
    ad4c:	ebffff78 	bl	ab34 <PUT32>
    ad50:	e8bd8070 	pop	{r4, r5, r6, pc}
    ad54:	cccccccd 	stclgt	12, cr12, [ip], {205}	; 0xcd

0000ad58 <gpio_set_output>:
    ad58:	e92d4010 	push	{r4, lr}
    ad5c:	e3a01001 	mov	r1, #1
    ad60:	ebffffe2 	bl	acf0 <gpio_set_function>
    ad64:	e8bd8010 	pop	{r4, pc}

0000ad68 <gpio_set_on>:
    ad68:	e350001f 	cmp	r0, #31
    ad6c:	812fff1e 	bxhi	lr
    ad70:	e92d4010 	push	{r4, lr}
    ad74:	e3a01001 	mov	r1, #1
    ad78:	e1a01011 	lsl	r1, r1, r0
    ad7c:	e59f0004 	ldr	r0, [pc, #4]	; ad88 <gpio_set_on+0x20>
    ad80:	ebffff6b 	bl	ab34 <PUT32>
    ad84:	e8bd8010 	pop	{r4, pc}
    ad88:	2020001c 	eorcs	r0, r0, ip, lsl r0

0000ad8c <gpio_set_off>:
    ad8c:	e350001f 	cmp	r0, #31
    ad90:	812fff1e 	bxhi	lr
    ad94:	e92d4010 	push	{r4, lr}
    ad98:	e3a01001 	mov	r1, #1
    ad9c:	e1a01011 	lsl	r1, r1, r0
    ada0:	e59f0004 	ldr	r0, [pc, #4]	; adac <gpio_set_off+0x20>
    ada4:	ebffff62 	bl	ab34 <PUT32>
    ada8:	e8bd8010 	pop	{r4, pc}
    adac:	20200028 	eorcs	r0, r0, r8, lsr #32

0000adb0 <gpio_set_input>:
    adb0:	e92d4010 	push	{r4, lr}
    adb4:	e3a01000 	mov	r1, #0
    adb8:	ebffffcc 	bl	acf0 <gpio_set_function>
    adbc:	e8bd8010 	pop	{r4, pc}

0000adc0 <gpio_write>:
    adc0:	e92d4010 	push	{r4, lr}
    adc4:	e3510000 	cmp	r1, #0
    adc8:	1a000001 	bne	add4 <gpio_write+0x14>
    adcc:	ebffffee 	bl	ad8c <gpio_set_off>
    add0:	e8bd8010 	pop	{r4, pc}
    add4:	ebffffe3 	bl	ad68 <gpio_set_on>
    add8:	e8bd8010 	pop	{r4, pc}

0000addc <gpio_read>:
    addc:	e350001f 	cmp	r0, #31
    ade0:	8a000007 	bhi	ae04 <gpio_read+0x28>
    ade4:	e92d4010 	push	{r4, lr}
    ade8:	e200401f 	and	r4, r0, #31
    adec:	e59f3018 	ldr	r3, [pc, #24]	; ae0c <gpio_read+0x30>
    adf0:	e08302a0 	add	r0, r3, r0, lsr #5
    adf4:	ebffff5a 	bl	ab64 <GET32>
    adf8:	e1a00430 	lsr	r0, r0, r4
    adfc:	e2000001 	and	r0, r0, #1
    ae00:	e8bd8010 	pop	{r4, pc}
    ae04:	e3e00000 	mvn	r0, #0
    ae08:	e12fff1e 	bx	lr
    ae0c:	20200034 	eorcs	r0, r0, r4, lsr r0

0000ae10 <kmalloc_heap_end>:
    ae10:	e59f3004 	ldr	r3, [pc, #4]	; ae1c <kmalloc_heap_end+0xc>
    ae14:	e5930000 	ldr	r0, [r3]
    ae18:	e12fff1e 	bx	lr
    ae1c:	0000afb0 			; <UNDEFINED> instruction: 0x0000afb0

0000ae20 <kmalloc_heap_start>:
    ae20:	e59f0000 	ldr	r0, [pc]	; ae28 <kmalloc_heap_start+0x8>
    ae24:	e12fff1e 	bx	lr
    ae28:	0000c648 	andeq	ip, r0, r8, asr #12

0000ae2c <kmalloc_init_set_start>:
    ae2c:	e59f3038 	ldr	r3, [pc, #56]	; ae6c <kmalloc_init_set_start+0x40>
    ae30:	e5933000 	ldr	r3, [r3]
    ae34:	e1500003 	cmp	r0, r3
    ae38:	9a000003 	bls	ae4c <kmalloc_init_set_start+0x20>
    ae3c:	e59f3028 	ldr	r3, [pc, #40]	; ae6c <kmalloc_init_set_start+0x40>
    ae40:	e5830000 	str	r0, [r3]
    ae44:	e5830004 	str	r0, [r3, #4]
    ae48:	e12fff1e 	bx	lr
    ae4c:	e92d4010 	push	{r4, lr}
    ae50:	ebfffcfd 	bl	a24c <rpi_reset_putc>
    ae54:	e3a03016 	mov	r3, #22
    ae58:	e59f2010 	ldr	r2, [pc, #16]	; ae70 <kmalloc_init_set_start+0x44>
    ae5c:	e59f1010 	ldr	r1, [pc, #16]	; ae74 <kmalloc_init_set_start+0x48>
    ae60:	e59f0010 	ldr	r0, [pc, #16]	; ae78 <kmalloc_init_set_start+0x4c>
    ae64:	ebfffcdd 	bl	a1e0 <printk>
    ae68:	ebfffe6c 	bl	a820 <clean_reboot>
    ae6c:	0000afb0 			; <UNDEFINED> instruction: 0x0000afb0
    ae70:	0000c110 	andeq	ip, r0, r0, lsl r1
    ae74:	0000c140 	andeq	ip, r0, r0, asr #2
    ae78:	0000c14c 	andeq	ip, r0, ip, asr #2

0000ae7c <kmalloc>:
    ae7c:	e92d4010 	push	{r4, lr}
    ae80:	e3500000 	cmp	r0, #0
    ae84:	0a00000a 	beq	aeb4 <kmalloc+0x38>
    ae88:	e2802007 	add	r2, r0, #7
    ae8c:	e3c22007 	bic	r2, r2, #7
    ae90:	e59f3038 	ldr	r3, [pc, #56]	; aed0 <kmalloc+0x54>
    ae94:	e5934000 	ldr	r4, [r3]
    ae98:	e0841002 	add	r1, r4, r2
    ae9c:	e5831000 	str	r1, [r3]
    aea0:	e3a01000 	mov	r1, #0
    aea4:	e1a00004 	mov	r0, r4
    aea8:	ebfffcc4 	bl	a1c0 <memset>
    aeac:	e1a00004 	mov	r0, r4
    aeb0:	e8bd8010 	pop	{r4, pc}
    aeb4:	ebfffce4 	bl	a24c <rpi_reset_putc>
    aeb8:	e3a0301b 	mov	r3, #27
    aebc:	e59f2010 	ldr	r2, [pc, #16]	; aed4 <kmalloc+0x58>
    aec0:	e59f1010 	ldr	r1, [pc, #16]	; aed8 <kmalloc+0x5c>
    aec4:	e59f0010 	ldr	r0, [pc, #16]	; aedc <kmalloc+0x60>
    aec8:	ebfffcc4 	bl	a1e0 <printk>
    aecc:	ebfffe53 	bl	a820 <clean_reboot>
    aed0:	0000afb0 			; <UNDEFINED> instruction: 0x0000afb0
    aed4:	0000c128 	andeq	ip, r0, r8, lsr #2
    aed8:	0000c140 	andeq	ip, r0, r0, asr #2
    aedc:	0000c168 	andeq	ip, r0, r8, ror #2

0000aee0 <kmalloc_init>:
    aee0:	e12fff1e 	bx	lr

0000aee4 <kmalloc_heap_ptr>:
    aee4:	e92d4010 	push	{r4, lr}
    aee8:	ebffffcc 	bl	ae20 <kmalloc_heap_start>
    aeec:	e8bd8010 	pop	{r4, pc}

0000aef0 <kmalloc_aligned>:
    aef0:	e92d4010 	push	{r4, lr}
    aef4:	e2613000 	rsb	r3, r1, #0
    aef8:	e1d12003 	bics	r2, r1, r3
    aefc:	1a00000b 	bne	af30 <kmalloc_aligned+0x40>
    af00:	e59f2060 	ldr	r2, [pc, #96]	; af68 <kmalloc_aligned+0x78>
    af04:	e5922000 	ldr	r2, [r2]
    af08:	e0812002 	add	r2, r1, r2
    af0c:	e2422001 	sub	r2, r2, #1
    af10:	e0033002 	and	r3, r3, r2
    af14:	e2411001 	sub	r1, r1, #1
    af18:	e1130001 	tst	r3, r1
    af1c:	1a00000a 	bne	af4c <kmalloc_aligned+0x5c>
    af20:	e59f2040 	ldr	r2, [pc, #64]	; af68 <kmalloc_aligned+0x78>
    af24:	e5823000 	str	r3, [r2]
    af28:	ebffffd3 	bl	ae7c <kmalloc>
    af2c:	e8bd8010 	pop	{r4, pc}
    af30:	ebfffcc5 	bl	a24c <rpi_reset_putc>
    af34:	e3a0302a 	mov	r3, #42	; 0x2a
    af38:	e59f202c 	ldr	r2, [pc, #44]	; af6c <kmalloc_aligned+0x7c>
    af3c:	e59f102c 	ldr	r1, [pc, #44]	; af70 <kmalloc_aligned+0x80>
    af40:	e59f002c 	ldr	r0, [pc, #44]	; af74 <kmalloc_aligned+0x84>
    af44:	ebfffca5 	bl	a1e0 <printk>
    af48:	ebfffe34 	bl	a820 <clean_reboot>
    af4c:	ebfffcbe 	bl	a24c <rpi_reset_putc>
    af50:	e3a03030 	mov	r3, #48	; 0x30
    af54:	e59f2010 	ldr	r2, [pc, #16]	; af6c <kmalloc_aligned+0x7c>
    af58:	e59f1010 	ldr	r1, [pc, #16]	; af70 <kmalloc_aligned+0x80>
    af5c:	e59f0014 	ldr	r0, [pc, #20]	; af78 <kmalloc_aligned+0x88>
    af60:	ebfffc9e 	bl	a1e0 <printk>
    af64:	ebfffe2d 	bl	a820 <clean_reboot>
    af68:	0000afb0 			; <UNDEFINED> instruction: 0x0000afb0
    af6c:	0000c130 	andeq	ip, r0, r0, lsr r1
    af70:	0000c140 	andeq	ip, r0, r0, asr #2
    af74:	0000c17c 	andeq	ip, r0, ip, ror r1
    af78:	0000c1dc 	ldrdeq	ip, [r0], -ip	; <UNPREDICTABLE>

0000af7c <kfree>:
    af7c:	e12fff1e 	bx	lr

0000af80 <kfree_all>:
    af80:	e59f3008 	ldr	r3, [pc, #8]	; af90 <kfree_all+0x10>
    af84:	e5932004 	ldr	r2, [r3, #4]
    af88:	e5832000 	str	r2, [r3]
    af8c:	e12fff1e 	bx	lr
    af90:	0000afb0 			; <UNDEFINED> instruction: 0x0000afb0

0000af94 <kfree_after>:
    af94:	e59f3004 	ldr	r3, [pc, #4]	; afa0 <kfree_after+0xc>
    af98:	e5830000 	str	r0, [r3]
    af9c:	e12fff1e 	bx	lr
    afa0:	0000afb0 			; <UNDEFINED> instruction: 0x0000afb0

0000afa4 <__code_end__>:
    afa4:	00000000 	andeq	r0, r0, r0

Disassembly of section .data:

0000afa8 <__data_start__>:
    afa8:	0000a238 	andeq	sl, r0, r8, lsr r2

0000afac <putk>:
    afac:	0000a274 	andeq	sl, r0, r4, ror r2

0000afb0 <heap>:
    afb0:	0000c648 	andeq	ip, r0, r8, asr #12

0000afb4 <heap_start>:
    afb4:	0000c648 	andeq	ip, r0, r8, asr #12

Disassembly of section .rodata:

0000afb8 <__FUNCTION__.4437-0xa4>:
    afb8:	494e4150 	stmdbmi	lr, {r4, r6, r8, lr}^
    afbc:	73253a43 	teqvc	r5, #274432	; 0x43000
    afc0:	3a73253a 	bcc	1cd44b0 <__bss_end__+0x1cc7e68>
    afc4:	253a6425 	ldrcs	r6, [sl, #-1061]!	; 0x425
    afc8:	00000a73 	andeq	r0, r0, r3, ror sl
    afcc:	74736574 	ldrbtvc	r6, [r3], #-1396	; 0x574
    afd0:	61702f73 	cmnvs	r0, r3, ror pc
    afd4:	2d327472 	cfldrscs	mvf7, [r2, #-456]!	; 0xfffffe38
    afd8:	74736574 	ldrbtvc	r6, [r3], #-1396	; 0x574
    afdc:	00632e32 	rsbeq	r2, r3, r2, lsr lr
    afe0:	5f756d6d 	svcpl	0x00756d6d
    afe4:	655f7369 	ldrbvs	r7, [pc, #-873]	; ac83 <uart_getc+0x3>
    afe8:	6c62616e 	stfvse	f6, [r2], #-440	; 0xfffffe48
    afec:	29286465 	stmdbcs	r8!, {r0, r2, r5, r6, sl, sp, lr}
    aff0:	00000000 	andeq	r0, r0, r0
    aff4:	43415254 	movtmi	r5, #4692	; 0x1254
    aff8:	00003a45 	andeq	r3, r0, r5, asr #20
    affc:	65707865 	ldrbvs	r7, [r0, #-2149]!	; 0x865
    b000:	64207463 	strtvs	r7, [r0], #-1123	; 0x463
    b004:	66617461 	strbtvs	r7, [r1], -r1, ror #8
    b008:	746c7561 	strbtvc	r7, [ip], #-1377	; 0x561
    b00c:	616c7820 	cmnvs	ip, r0, lsr #16
    b010:	66206574 			; <UNDEFINED> instruction: 0x66206574
    b014:	746c7561 	strbtvc	r7, [ip], #-1377	; 0x561
    b018:	20746120 	rsbscs	r6, r4, r0, lsr #2
    b01c:	72646461 	rsbvc	r6, r4, #1627389952	; 0x61000000
    b020:	3a737365 	bcc	1ce7dbc <__bss_end__+0x1cdb774>
    b024:	20702520 	rsbscs	r2, r0, r0, lsr #10
    b028:	70207461 	eorvc	r7, r0, r1, ror #8
    b02c:	70252063 	eorvc	r2, r5, r3, rrx
    b030:	0000000a 	andeq	r0, r0, sl
    b034:	494e4150 	stmdbmi	lr, {r4, r6, r8, lr}^
    b038:	73253a43 	teqvc	r5, #274432	; 0x43000
    b03c:	3a73253a 	bcc	1cd452c <__bss_end__+0x1cc7ee4>
    b040:	733a6425 	teqvc	sl, #620756992	; 0x25000000
    b044:	6c756f68 	ldclvs	15, cr6, [r5], #-416	; 0xfffffe60
    b048:	6f6e2064 	svcvs	0x006e2064
    b04c:	65672074 	strbvs	r2, [r7, #-116]!	; 0x74
    b050:	65682074 	strbvs	r2, [r8, #-116]!	; 0x74
    b054:	21216572 	teqcs	r1, r2, ror r5
    b058:	00000a0a 	andeq	r0, r0, sl, lsl #20

0000b05c <__FUNCTION__.4437>:
    b05c:	6d746f6e 	ldclvs	15, cr6, [r4, #-440]!	; 0xfffffe48
    b060:	006e6961 	rsbeq	r6, lr, r1, ror #18

0000b064 <OneMB>:
    b064:	00100000 	andseq	r0, r0, r0

0000b068 <__FUNCTION__.4417>:
    b068:	5f756d6d 	svcpl	0x00756d6d
    b06c:	6b6f6f6c 	blvs	1be6e24 <__bss_end__+0x1bda7dc>
    b070:	735f7075 	cmpvc	pc, #117	; 0x75
    b074:	69746365 	ldmdbvs	r4!, {r0, r2, r5, r6, r8, r9, sp, lr}^
    b078:	00006e6f 	andeq	r6, r0, pc, ror #28

0000b07c <__FUNCTION__.4426>:
    b07c:	5f756d6d 	svcpl	0x00756d6d
    b080:	6b72616d 	blvs	1ca363c <__bss_end__+0x1c96ff4>
    b084:	6365735f 	cmnvs	r5, #2080374785	; 0x7c000001
    b088:	5f70615f 	svcpl	0x0070615f
    b08c:	6d726570 	cfldr64vs	mvdx6, [r2, #-448]!	; 0xfffffe40
    b090:	00000000 	andeq	r0, r0, r0

0000b094 <__FUNCTION__.4458>:
    b094:	5f756d6d 	svcpl	0x00756d6d
    b098:	5f70616d 	svcpl	0x0070616d
    b09c:	74636573 	strbtvc	r6, [r3], #-1395	; 0x573
    b0a0:	006e6f69 	rsbeq	r6, lr, r9, ror #30

0000b0a4 <__FUNCTION__.4451>:
    b0a4:	5f646c66 	svcpl	0x00646c66
    b0a8:	5f746573 	svcpl	0x00746573
    b0ac:	65736162 	ldrbvs	r6, [r3, #-354]!	; 0x162
    b0b0:	6464615f 	strbtvs	r6, [r4], #-351	; 0x15f
    b0b4:	00000072 	andeq	r0, r0, r2, ror r0

0000b0b8 <__FUNCTION__.4468>:
    b0b8:	5f756d6d 	svcpl	0x00756d6d
    b0bc:	5f70616d 	svcpl	0x0070616d
    b0c0:	74636573 	strbtvc	r6, [r3], #-1395	; 0x573
    b0c4:	736e6f69 	cmnvc	lr, #420	; 0x1a4
    b0c8:	00000000 	andeq	r0, r0, r0

0000b0cc <__FUNCTION__.4477>:
    b0cc:	5f756d6d 	svcpl	0x00756d6d
    b0d0:	615f7470 	cmpvs	pc, r0, ror r4	; <UNPREDICTABLE>
    b0d4:	636f6c6c 	cmnvs	pc, #108, 24	; 0x6c00
    b0d8:	0074615f 	rsbseq	r6, r4, pc, asr r1

0000b0dc <__FUNCTION__.4483>:
    b0dc:	5f756d6d 	svcpl	0x00756d6d
    b0e0:	615f7470 	cmpvs	pc, r0, ror r4	; <UNPREDICTABLE>
    b0e4:	636f6c6c 	cmnvs	pc, #108, 24	; 0x6c00
    b0e8:	00000000 	andeq	r0, r0, r0

0000b0ec <__FUNCTION__.4490>:
    b0ec:	5f756d6d 	svcpl	0x00756d6d
    b0f0:	74696e69 	strbtvc	r6, [r9], #-3689	; 0xe69
    b0f4:	00000000 	andeq	r0, r0, r0

0000b0f8 <__FUNCTION__.4497>:
    b0f8:	5f756d6d 	svcpl	0x00756d6d
    b0fc:	61736964 	cmnvs	r3, r4, ror #18
    b100:	5f656c62 	svcpl	0x00656c62
    b104:	00746573 	rsbseq	r6, r4, r3, ror r5

0000b108 <__FUNCTION__.4502>:
    b108:	5f756d6d 	svcpl	0x00756d6d
    b10c:	61736964 	cmnvs	r3, r4, ror #18
    b110:	00656c62 	rsbeq	r6, r5, r2, ror #24

0000b114 <__FUNCTION__.4506>:
    b114:	5f756d6d 	svcpl	0x00756d6d
    b118:	62616e65 	rsbvs	r6, r1, #1616	; 0x650
    b11c:	735f656c 	cmpvc	pc, #108, 10	; 0x1b000000
    b120:	00007465 	andeq	r7, r0, r5, ror #8

0000b124 <__FUNCTION__.4511>:
    b124:	5f756d6d 	svcpl	0x00756d6d
    b128:	62616e65 	rsbvs	r6, r1, #1616	; 0x650
    b12c:	0000656c 	andeq	r6, r0, ip, ror #10

0000b130 <__FUNCTION__.4524>:
    b130:	5f746573 	svcpl	0x00746573
    b134:	636f7270 	cmnvs	pc, #112, 4
    b138:	745f6469 	ldrbvc	r6, [pc], #-1129	; b140 <__FUNCTION__.4524+0x10>
    b13c:	30726274 	rsbscc	r6, r2, r4, ror r2
    b140:	00000000 	andeq	r0, r0, r0

0000b144 <__FUNCTION__.4528>:
    b144:	5f6d7361 	svcpl	0x006d7361
    b148:	5f746f6e 	svcpl	0x00746f6e
    b14c:	6c706d69 	ldclvs	13, cr6, [r0], #-420	; 0xfffffe5c
    b150:	6e656d65 	cdpvs	13, 6, cr6, cr5, cr5, {3}
    b154:	00646574 	rsbeq	r6, r4, r4, ror r5
    b158:	2e756d6d 	cdpcs	13, 7, cr6, cr5, cr13, {3}
    b15c:	00000063 	andeq	r0, r0, r3, rrx
    b160:	615f7369 	cmpvs	pc, r9, ror #6
    b164:	6e67696c 	cdpvs	9, 6, cr6, cr7, cr12, {3}
    b168:	76286465 	strtvc	r6, [r8], -r5, ror #8
    b16c:	32202c61 	eorcc	r2, r0, #24832	; 0x6100
    b170:	00002930 	andeq	r2, r0, r0, lsr r9
    b174:	4f525245 	svcmi	0x00525245
    b178:	73253a52 	teqvc	r5, #335872	; 0x52000
    b17c:	3a73253a 	bcc	1cd466c <__bss_end__+0x1cc8024>
    b180:	203a6425 	eorscs	r6, sl, r5, lsr #8
    b184:	534c4146 	movtpl	r4, #49478	; 0xc146
    b188:	253c2845 	ldrcs	r2, [ip, #-2117]!	; 0x845
    b18c:	3a293e73 	bcc	a5ab60 <__bss_end__+0xa4e518>
    b190:	766e6920 	strbtvc	r6, [lr], -r0, lsr #18
    b194:	64696c61 	strbtvs	r6, [r9], #-3169	; 0xc61
    b198:	63657320 	cmnvs	r5, #32, 6	; 0x80000000
    b19c:	6e6f6974 	mcrvs	9, 3, r6, cr15, cr4, {3}
    b1a0:	0000000a 	andeq	r0, r0, sl
    b1a4:	2d657470 	cfstrdcs	mvd7, [r5, #-448]!	; 0xfffffe40
    b1a8:	6761743e 			; <UNDEFINED> instruction: 0x6761743e
    b1ac:	00000000 	andeq	r0, r0, r0
    b1b0:	4f525245 	svcmi	0x00525245
    b1b4:	73253a52 	teqvc	r5, #335872	; 0x52000
    b1b8:	3a73253a 	bcc	1cd46a8 <__bss_end__+0x1cc8060>
    b1bc:	203a6425 	eorscs	r6, sl, r5, lsr #8
    b1c0:	534c4146 	movtpl	r4, #49478	; 0xc146
    b1c4:	253c2845 	ldrcs	r2, [ip, #-2117]!	; 0x845
    b1c8:	3a293e73 	bcc	a5ab9c <__bss_end__+0xa4e554>
    b1cc:	766e6920 	strbtvc	r6, [lr], -r0, lsr #18
    b1d0:	64696c61 	strbtvs	r6, [r9], #-3169	; 0xc61
    b1d4:	72657020 	rsbvc	r7, r5, #32
    b1d8:	7373696d 	cmnvc	r3, #1785856	; 0x1b4000
    b1dc:	0a6e6f69 	beq	1ba6f88 <__bss_end__+0x1b9a940>
    b1e0:	00000000 	andeq	r0, r0, r0
    b1e4:	6d726570 	cfldr64vs	mvdx6, [r2, #-448]!	; 0xfffffe40
    b1e8:	203d3c20 	eorscs	r3, sp, r0, lsr #24
    b1ec:	31316230 	teqcc	r1, r0, lsr r2
    b1f0:	00000000 	andeq	r0, r0, r0
    b1f4:	4f525245 	svcmi	0x00525245
    b1f8:	73253a52 	teqvc	r5, #335872	; 0x52000
    b1fc:	3a73253a 	bcc	1cd46ec <__bss_end__+0x1cc80a4>
    b200:	203a6425 	eorscs	r6, sl, r5, lsr #8
    b204:	534c4146 	movtpl	r4, #49478	; 0xc146
    b208:	253c2845 	ldrcs	r2, [ip, #-2117]!	; 0x845
    b20c:	3a293e73 	bcc	a5abe0 <__bss_end__+0xa4e598>
    b210:	64646120 	strbtvs	r6, [r4], #-288	; 0x120
    b214:	73692072 	cmnvc	r9, #114	; 0x72
    b218:	746f6e20 	strbtvc	r6, [pc], #-3616	; b220 <__FUNCTION__.4528+0xdc>
    b21c:	696c6120 	stmdbvs	ip!, {r5, r8, sp, lr}^
    b220:	64656e67 	strbtvs	r6, [r5], #-3687	; 0xe67
    b224:	00000a21 	andeq	r0, r0, r1, lsr #20
    b228:	61282828 	teqvs	r8, r8, lsr #16
    b22c:	29726464 	ldmdbcs	r2!, {r2, r5, r6, sl, sp, lr}^
    b230:	28202620 	stmdacs	r0!, {r5, r9, sl, sp}
    b234:	70797428 	rsbsvc	r7, r9, r8, lsr #8
    b238:	28666f65 	stmdacs	r6!, {r0, r2, r5, r6, r8, r9, sl, fp, sp, lr}^
    b23c:	72646461 	rsbvc	r6, r4, #1627389952	; 0x61000000
    b240:	32282929 	eorcc	r2, r8, #671744	; 0xa4000
    b244:	2d202930 	stccs	9, cr2, [r0, #-192]!	; 0xffffff40
    b248:	29293120 	stmdbcs	r9!, {r5, r8, ip, sp}
    b24c:	203d3d20 	eorscs	r3, sp, r0, lsr #26
    b250:	00002930 	andeq	r2, r0, r0, lsr r9
    b254:	3e2d6628 	cfmadda32cc	mvax1, mvax6, mvfx13, mvfx8
    b258:	5f636573 	svcpl	0x00636573
    b25c:	65736162 	ldrbvs	r6, [r3, #-354]!	; 0x162
    b260:	6464615f 	strbtvs	r6, [r4], #-351	; 0x15f
    b264:	3c3c2072 	ldccc	0, cr2, [ip], #-456	; 0xfffffe38
    b268:	29303220 	ldmdbcs	r0!, {r5, r9, ip, sp}
    b26c:	203d3d20 	eorscs	r3, sp, r0, lsr #26
    b270:	72646461 	rsbvc	r6, r4, #1627389952	; 0x61000000
    b274:	00000000 	andeq	r0, r0, r0
    b278:	206d6f64 	rsbcs	r6, sp, r4, ror #30
    b27c:	3631203c 			; <UNDEFINED> instruction: 0x3631203c
    b280:	00000000 	andeq	r0, r0, r0
    b284:	615f7369 	cmpvs	pc, r9, ror #6
    b288:	6e67696c 	cdpvs	9, 6, cr6, cr7, cr12, {3}
    b28c:	70286465 	eorvc	r6, r8, r5, ror #8
    b290:	32202c61 	eorcc	r2, r0, #24832	; 0x6100
    b294:	00002930 	andeq	r2, r0, r0, lsr r9
    b298:	4f525245 	svcmi	0x00525245
    b29c:	73253a52 	teqvc	r5, #335872	; 0x52000
    b2a0:	3a73253a 	bcc	1cd4790 <__bss_end__+0x1cc8148>
    b2a4:	203a6425 	eorscs	r6, sl, r5, lsr #8
    b2a8:	534c4146 	movtpl	r4, #49478	; 0xc146
    b2ac:	253c2845 	ldrcs	r2, [ip, #-2117]!	; 0x845
    b2b0:	3a293e73 	bcc	a5ac84 <__bss_end__+0xa4e63c>
    b2b4:	726c6120 	rsbvc	r6, ip, #32, 2
    b2b8:	79646165 	stmdbvc	r4!, {r0, r2, r5, r6, r8, sp, lr}^
    b2bc:	74657320 	strbtvc	r7, [r5], #-800	; 0x320
    b2c0:	0000000a 	andeq	r0, r0, sl
    b2c4:	65747021 	ldrbvs	r7, [r4, #-33]!	; 0x21
    b2c8:	61743e2d 	cmnvs	r4, sp, lsr #28
    b2cc:	00000067 	andeq	r0, r0, r7, rrx
    b2d0:	702e796d 	eorvc	r7, lr, sp, ror #18
    b2d4:	20406574 	subcs	r6, r0, r4, ror r5
    b2d8:	78257830 	stmdavc	r5!, {r4, r5, fp, ip, sp, lr}
    b2dc:	25203d20 	strcs	r3, [r0, #-3360]!	; 0xd20
    b2e0:	00000a62 	andeq	r0, r0, r2, ror #20
    b2e4:	20455450 	subcs	r5, r5, r0, asr r4
    b2e8:	3a637263 	bcc	18e7c7c <__bss_end__+0x18db634>
    b2ec:	00000000 	andeq	r0, r0, r0
    b2f0:	4f525245 	svcmi	0x00525245
    b2f4:	73253a52 	teqvc	r5, #335872	; 0x52000
    b2f8:	3a73253a 	bcc	1cd47e8 <__bss_end__+0x1cc81a0>
    b2fc:	203a6425 	eorscs	r6, sl, r5, lsr #8
    b300:	534c4146 	movtpl	r4, #49478	; 0xc146
    b304:	253c2845 	ldrcs	r2, [ip, #-2117]!	; 0x845
    b308:	3a293e73 	bcc	a5acdc <__bss_end__+0xa4e694>
    b30c:	73756d20 	cmnvc	r5, #32, 26	; 0x800
    b310:	65622074 	strbvs	r2, [r2, #-116]!	; 0x74
    b314:	2d343120 	ldfcss	f3, [r4, #-128]!	; 0xffffff80
    b318:	20746962 	rsbscs	r6, r4, r2, ror #18
    b31c:	67696c61 	strbvs	r6, [r9, -r1, ror #24]!
    b320:	2164656e 	cmncs	r4, lr, ror #10
    b324:	0000000a 	andeq	r0, r0, sl
    b328:	28282828 	stmdacs	r8!, {r3, r5, fp, sp}
    b32c:	746e6975 	strbtvc	r6, [lr], #-2421	; 0x975
    b330:	745f3233 	ldrbvc	r3, [pc], #-563	; b338 <__FUNCTION__.4528+0x1f4>
    b334:	64646129 	strbtvs	r6, [r4], #-297	; 0x129
    b338:	26202972 			; <UNDEFINED> instruction: 0x26202972
    b33c:	74282820 	strtvc	r2, [r8], #-2080	; 0x820
    b340:	6f657079 	svcvs	0x00657079
    b344:	75282866 	strvc	r2, [r8, #-2150]!	; 0x866
    b348:	33746e69 	cmncc	r4, #1680	; 0x690
    b34c:	29745f32 	ldmdbcs	r4!, {r1, r4, r5, r8, r9, sl, fp, ip, lr}^
    b350:	72646461 	rsbvc	r6, r4, #1627389952	; 0x61000000
    b354:	31282929 	teqcc	r8, r9, lsr #18
    b358:	2d202934 	stccs	9, cr2, [r0, #-208]!	; 0xffffff30
    b35c:	29293120 	stmdbcs	r9!, {r5, r8, ip, sp}
    b360:	203d3d20 	eorscs	r3, sp, r0, lsr #26
    b364:	00002930 	andeq	r2, r0, r0, lsr r9
    b368:	4f525245 	svcmi	0x00525245
    b36c:	73253a52 	teqvc	r5, #335872	; 0x52000
    b370:	3a73253a 	bcc	1cd4860 <__bss_end__+0x1cc8218>
    b374:	203a6425 	eorscs	r6, sl, r5, lsr #8
    b378:	534c4146 	movtpl	r4, #49478	; 0xc146
    b37c:	253c2845 	ldrcs	r2, [ip, #-2117]!	; 0x845
    b380:	3a293e73 	bcc	a5ad54 <__bss_end__+0xa4e70c>
    b384:	6c6e6f20 	stclvs	15, cr6, [lr], #-128	; 0xffffff80
    b388:	61682079 	smcvs	33289	; 0x8209
    b38c:	6e69646e 	cdpvs	4, 6, cr6, cr9, cr14, {3}
    b390:	75662067 	strbvc	r2, [r6, #-103]!	; 0x67
    b394:	61206c6c 	teqvs	r0, ip, ror #24
    b398:	636f6c6c 	cmnvs	pc, #108, 24	; 0x6c00
    b39c:	6f697461 	svcvs	0x00697461
    b3a0:	00000a6e 	andeq	r0, r0, lr, ror #20
    b3a4:	7479626e 	ldrbtvc	r6, [r9], #-622	; 0x26e
    b3a8:	3d207365 	stccc	3, cr7, [r0, #-404]!	; 0xfffffe6c
    b3ac:	006e203d 	rsbeq	r2, lr, sp, lsr r0
    b3b0:	4f525245 	svcmi	0x00525245
    b3b4:	73253a52 	teqvc	r5, #335872	; 0x52000
    b3b8:	3a73253a 	bcc	1cd48a8 <__bss_end__+0x1cc8260>
    b3bc:	203a6425 	eorscs	r6, sl, r5, lsr #8
    b3c0:	534c4146 	movtpl	r4, #49478	; 0xc146
    b3c4:	253c2845 	ldrcs	r2, [ip, #-2117]!	; 0x845
    b3c8:	3a293e73 	bcc	a5ad9c <__bss_end__+0xa4e754>
    b3cc:	20657720 	rsbcs	r7, r5, r0, lsr #14
    b3d0:	796c6e6f 	stmdbvc	ip!, {r0, r1, r2, r3, r5, r6, r9, sl, fp, sp, lr}^
    b3d4:	6e616820 	cdpvs	8, 6, cr6, cr1, cr0, {1}
    b3d8:	6e696c64 	cdpvs	12, 6, cr6, cr9, cr4, {3}
    b3dc:	20612067 	rsbcs	r2, r1, r7, rrx
    b3e0:	6c6c7566 	cfstr64vs	mvdx7, [ip], #-408	; 0xfffffe68
    b3e4:	6f702d79 	svcvs	0x00702d79
    b3e8:	616c7570 	smcvs	51024	; 0xc750
    b3ec:	20646574 	rsbcs	r6, r4, r4, ror r5
    b3f0:	65676170 	strbvs	r6, [r7, #-368]!	; 0x170
    b3f4:	62617420 	rsbvs	r7, r1, #32, 8	; 0x20000000
    b3f8:	7220656c 	eorvc	r6, r0, #108, 10	; 0x1b000000
    b3fc:	74686769 	strbtvc	r6, [r8], #-1897	; 0x769
    b400:	776f6e20 	strbvc	r6, [pc, -r0, lsr #28]!
    b404:	0000000a 	andeq	r0, r0, sl
    b408:	3d3d206e 	ldccc	0, cr2, [sp, #-440]!	; 0xfffffe48
    b40c:	39303420 	ldmdbcc	r0!, {r5, sl, ip, sp}
    b410:	00000036 	andeq	r0, r0, r6, lsr r0
    b414:	28282828 	stmdacs	r8!, {r3, r5, fp, sp}
    b418:	746e6975 	strbtvc	r6, [lr], #-2421	; 0x975
    b41c:	745f3233 	ldrbvc	r3, [pc], #-563	; b424 <__FUNCTION__.4528+0x2e0>
    b420:	29747029 	ldmdbcs	r4!, {r0, r3, r5, ip, sp, lr}^
    b424:	28202620 	stmdacs	r0!, {r5, r9, sl, sp}
    b428:	70797428 	rsbsvc	r7, r9, r8, lsr #8
    b42c:	28666f65 	stmdacs	r6!, {r0, r2, r5, r6, r8, r9, sl, fp, sp, lr}^
    b430:	6e697528 	cdpvs	5, 6, cr7, cr9, cr8, {1}
    b434:	5f323374 	svcpl	0x00323374
    b438:	74702974 	ldrbtvc	r2, [r0], #-2420	; 0x974
    b43c:	31282929 	teqcc	r8, r9, lsr #18
    b440:	2d202934 	stccs	9, cr2, [r0, #-208]!	; 0xffffff30
    b444:	29293120 	stmdbcs	r9!, {r5, r8, ip, sp}
    b448:	203d3d20 	eorscs	r3, sp, r0, lsr #26
    b44c:	00002930 	andeq	r2, r0, r0, lsr r9
    b450:	582e3163 	stmdapl	lr!, {r0, r1, r5, r6, r8, ip, sp}
    b454:	74705f50 	ldrbtvc	r5, [r0], #-3920	; 0xf50
    b458:	00000000 	andeq	r0, r0, r0
    b45c:	2e316321 	cdpcs	3, 3, cr6, cr1, cr1, {1}
    b460:	5f554d4d 	svcpl	0x00554d4d
    b464:	62616e65 	rsbvs	r6, r1, #1616	; 0x650
    b468:	0064656c 	rsbeq	r6, r4, ip, ror #10
    b46c:	4d2e6321 	stcmi	3, cr6, [lr, #-132]!	; 0xffffff7c
    b470:	655f554d 	ldrbvs	r5, [pc, #-1357]	; af2b <kmalloc_aligned+0x3b>
    b474:	6c62616e 	stfvse	f6, [r2], #-440	; 0xfffffe48
    b478:	00006465 	andeq	r6, r0, r5, ror #8
    b47c:	432e6321 	teqmi	lr, #-2080374784	; 0x84000000
    b480:	696e755f 	stmdbvs	lr!, {r0, r1, r2, r3, r4, r6, r8, sl, ip, sp, lr}^
    b484:	64656966 	strbtvs	r6, [r5], #-2406	; 0x966
    b488:	616e655f 	cmnvs	lr, pc, asr r5
    b48c:	00656c62 	rsbeq	r6, r5, r2, ror #24
    b490:	4d4d2e63 	stclmi	14, cr2, [sp, #-396]	; 0xfffffe74
    b494:	6e655f55 	mcrvs	15, 3, r5, cr5, cr5, {2}
    b498:	656c6261 	strbvs	r6, [ip, #-609]!	; 0x261
    b49c:	00000064 	andeq	r0, r0, r4, rrx
    b4a0:	64697028 	strbtvs	r7, [r9], #-40	; 0x28
    b4a4:	203e3e20 	eorscs	r3, lr, r0, lsr #28
    b4a8:	20293432 	eorcs	r3, r9, r2, lsr r4
    b4ac:	30203d3d 	eorcc	r3, r0, sp, lsr sp
    b4b0:	00000000 	andeq	r0, r0, r0
    b4b4:	20646970 	rsbcs	r6, r4, r0, ror r9
    b4b8:	3436203e 	ldrtcc	r2, [r6], #-62	; 0x3e
    b4bc:	00000000 	andeq	r0, r0, r0
    b4c0:	64697361 	strbtvs	r7, [r9], #-865	; 0x361
    b4c4:	36203c20 	strtcc	r3, [r0], -r0, lsr #24
    b4c8:	26262034 			; <UNDEFINED> instruction: 0x26262034
    b4cc:	69736120 	ldmdbvs	r3!, {r5, r8, sp, lr}^
    b4d0:	00000064 	andeq	r0, r0, r4, rrx
    b4d4:	494e4150 	stmdbmi	lr, {r4, r6, r8, lr}^
    b4d8:	73253a43 	teqvc	r5, #274432	; 0x43000
    b4dc:	3a73253a 	bcc	1cd49cc <__bss_end__+0x1cc8384>
    b4e0:	633a6425 	teqvs	sl, #620756992	; 0x25000000
    b4e4:	656c6c61 	strbvs	r6, [ip, #-3169]!	; 0xc61
    b4e8:	6e752064 	cdpvs	0, 7, cr2, cr5, cr4, {3}
    b4ec:	6c706d69 	ldclvs	13, cr6, [r0], #-420	; 0xfffffe5c
    b4f0:	6e656d65 	cdpvs	13, 6, cr6, cr5, cr5, {3}
    b4f4:	20646574 	rsbcs	r6, r4, r4, ror r5
    b4f8:	206d7361 	rsbcs	r7, sp, r1, ror #6
    b4fc:	74756f72 	ldrbtvc	r6, [r5], #-3954	; 0xf72
    b500:	20656e69 	rsbcs	r6, r5, r9, ror #28
    b504:	25207461 	strcs	r7, [r0, #-1121]!	; 0x461
    b508:	000a0a78 	andeq	r0, sl, r8, ror sl
    b50c:	48534148 	ldmdami	r3, {r3, r6, r8, lr}^
    b510:	3a73253a 	bcc	1cd4a00 <__bss_end__+0x1cc83b8>
    b514:	73616820 	cmnvc	r1, #32, 16	; 0x200000
    b518:	78253d68 	stmdavc	r5!, {r3, r5, r6, r8, sl, fp, ip, sp}
    b51c:	79626e2c 	stmdbvc	r2!, {r2, r3, r5, r9, sl, fp, sp, lr}^
    b520:	3d736574 	cfldr64cc	mvdx6, [r3, #-464]!	; 0xfffffe30
    b524:	000a6425 	andeq	r6, sl, r5, lsr #8
    b528:	616d6f64 	cmnvs	sp, r4, ror #30
    b52c:	61206e69 	teqvs	r0, r9, ror #28
    b530:	73656363 	cmnvc	r5, #-1946157055	; 0x8c000001
    b534:	6f632073 	svcvs	0x00632073
    b538:	6f72746e 	svcvs	0x0072746e
    b53c:	000a3a6c 	andeq	r3, sl, ip, ror #20
    b540:	0a622509 	beq	189496c <__bss_end__+0x1888324>
    b544:	00000000 	andeq	r0, r0, r0
    b548:	494e4150 	stmdbmi	lr, {r4, r6, r8, lr}^
    b54c:	73253a43 	teqvc	r5, #274432	; 0x43000
    b550:	3a73253a 	bcc	1cd4a40 <__bss_end__+0x1cc83f8>
    b554:	6f3a6425 	svcvs	0x003a6425
    b558:	65736666 	ldrbvs	r6, [r3, #-1638]!	; 0x666
    b55c:	72772074 	rsbsvc	r2, r7, #116	; 0x74
    b560:	3a676e6f 	bcc	19e6f24 <__bss_end__+0x19da8dc>
    b564:	70786520 	rsbsvc	r6, r8, r0, lsr #10
    b568:	20746365 	rsbscs	r6, r4, r5, ror #6
    b56c:	67207825 	strvs	r7, [r0, -r5, lsr #16]!
    b570:	2520746f 	strcs	r7, [r0, #-1135]!	; 0x46f
    b574:	73252078 	teqvc	r5, #120	; 0x78
    b578:	666f5b20 	strbtvs	r5, [pc], -r0, lsr #22
    b57c:	64253d66 	strtvs	r3, [r5], #-3430	; 0xd66
    b580:	69626e2c 	stmdbvs	r2!, {r2, r3, r5, r9, sl, fp, sp, lr}^
    b584:	253d7374 	ldrcs	r7, [sp, #-884]!	; 0x374
    b588:	0a0a5d64 	beq	2a2b20 <__bss_end__+0x2964d8>
    b58c:	00000000 	andeq	r0, r0, r0
    b590:	2d756d6d 	ldclcs	13, cr6, [r5, #-436]!	; 0xfffffe4c
    b594:	706c6568 	rsbvc	r6, ip, r8, ror #10
    b598:	2e737265 	cdpcs	2, 7, cr7, cr3, cr5, {3}
    b59c:	00000063 	andeq	r0, r0, r3, rrx
    b5a0:	20752e78 	rsbscs	r2, r5, r8, ror lr
    b5a4:	65203d3d 	strvs	r3, [r0, #-3389]!	; 0xd3d
    b5a8:	00007078 	andeq	r7, r0, r8, ror r0
    b5ac:	494e4150 	stmdbmi	lr, {r4, r6, r8, lr}^
    b5b0:	73253a43 	teqvc	r5, #274432	; 0x43000
    b5b4:	3a73253a 	bcc	1cd4aa4 <__bss_end__+0x1cc845c>
    b5b8:	773a6425 	ldrvc	r6, [sl, -r5, lsr #8]!
    b5bc:	68746469 	ldmdavs	r4!, {r0, r3, r5, r6, sl, sp, lr}^
    b5c0:	6f727720 	svcvs	0x00727720
    b5c4:	203a676e 	eorscs	r6, sl, lr, ror #14
    b5c8:	65707865 	ldrbvs	r7, [r0, #-2149]!	; 0x865
    b5cc:	25207463 	strcs	r7, [r0, #-1123]!	; 0x463
    b5d0:	6f672078 	svcvs	0x00672078
    b5d4:	78252074 	stmdavc	r5!, {r2, r4, r5, r6, sp}
    b5d8:	20732520 	rsbscs	r2, r3, r0, lsr #10
    b5dc:	66666f5b 	uqsaxvs	r6, r6, fp
    b5e0:	2c64253d 	cfstr64cs	mvdx2, [r4], #-244	; 0xffffff0c
    b5e4:	7469626e 	strbtvc	r6, [r9], #-622	; 0x26e
    b5e8:	64253d73 	strtvs	r3, [r5], #-3443	; 0xd73
    b5ec:	000a0a5d 	andeq	r0, sl, sp, asr sl
    b5f0:	6c615f41 	stclvs	15, cr5, [r1], #-260	; 0xfffffefc
    b5f4:	6d6e6769 	stclvs	7, cr6, [lr, #-420]!	; 0xfffffe5c
    b5f8:	00746e65 	rsbseq	r6, r4, r5, ror #28
    b5fc:	72775f57 	rsbsvc	r5, r7, #348	; 0x15c
    b600:	5f657469 	svcpl	0x00657469
    b604:	00667562 	rsbeq	r7, r6, r2, ror #10
    b608:	6e655f42 	cdpvs	15, 6, cr5, cr5, cr2, {2}
    b60c:	6e616964 	cdpvs	9, 6, cr6, cr1, cr4, {3}
    b610:	00000000 	andeq	r0, r0, r0
    b614:	72705f53 	rsbsvc	r5, r0, #332	; 0x14c
    b618:	0000746f 	andeq	r7, r0, pc, ror #8
    b61c:	6f725f52 	svcvs	0x00725f52
    b620:	72705f6d 	rsbsvc	r5, r0, #436	; 0x1b4
    b624:	0000746f 	andeq	r7, r0, pc, ror #8
    b628:	00000046 	andeq	r0, r0, r6, asr #32
    b62c:	72625f5a 	rsbvc	r5, r2, #360	; 0x168
    b630:	68636e61 	stmdavs	r3!, {r0, r5, r6, r9, sl, fp, sp, lr}^
    b634:	6572705f 	ldrbvs	r7, [r2, #-95]!	; 0x5f
    b638:	00000064 	andeq	r0, r0, r4, rrx
    b63c:	69685f56 	stmdbvs	r8!, {r1, r2, r4, r6, r8, r9, sl, fp, ip, lr}^
    b640:	655f6867 	ldrbvs	r6, [pc, #-2151]	; ade1 <gpio_read+0x5>
    b644:	70656378 	rsbvc	r6, r5, r8, ror r3
    b648:	00765f74 	rsbseq	r5, r6, r4, ror pc
    b64c:	635f5252 	cmpvs	pc, #536870917	; 0x20000005
    b650:	65686361 	strbvs	r6, [r8, #-865]!	; 0x361
    b654:	7065725f 	rsbvc	r7, r5, pc, asr r2
    b658:	00000000 	andeq	r0, r0, r0
    b65c:	0000344c 	andeq	r3, r0, ip, asr #8
    b660:	00003146 	andeq	r3, r0, r6, asr #2
    b664:	6e755f55 	mrcvs	15, 3, r5, cr5, cr5, {2}
    b668:	67696c61 	strbvs	r6, [r9, -r1, ror #24]!
    b66c:	0064656e 	rsbeq	r6, r4, lr, ror #10
    b670:	705f5058 	subsvc	r5, pc, r8, asr r0	; <UNPREDICTABLE>
    b674:	00000074 	andeq	r0, r0, r4, ror r0
    b678:	765f4556 			; <UNDEFINED> instruction: 0x765f4556
    b67c:	5f746365 	svcpl	0x00746365
    b680:	00746e69 	rsbseq	r6, r4, r9, ror #28
    b684:	00004545 	andeq	r4, r0, r5, asr #10
    b688:	745f5254 	ldrbvc	r5, [pc], #-596	; b690 <__FUNCTION__.4528+0x54c>
    b68c:	725f7865 	subsvc	r7, pc, #6619136	; 0x650000
    b690:	70616d65 	rsbvc	r6, r1, r5, ror #26
    b694:	00000000 	andeq	r0, r0, r0
    b698:	665f4146 	ldrbvs	r4, [pc], -r6, asr #2
    b69c:	6563726f 	strbvs	r7, [r3, #-623]!	; 0x26f
    b6a0:	0070615f 	rsbseq	r6, r0, pc, asr r1
    b6a4:	5f3e2d72 	svcpl	0x003e2d72
    b6a8:	73756e75 	cmnvc	r5, #1872	; 0x750
    b6ac:	20316465 	eorscs	r6, r1, r5, ror #8
    b6b0:	30203d3d 	eorcc	r3, r0, sp, lsr sp
    b6b4:	31313162 	teqcc	r1, r2, ror #2
    b6b8:	00000000 	andeq	r0, r0, r0
    b6bc:	5f3e2d72 	svcpl	0x003e2d72
    b6c0:	3d207464 	cfstrscc	mvf7, [r0, #-400]!	; 0xfffffe70
    b6c4:	0031203d 	eorseq	r2, r1, sp, lsr r0
    b6c8:	5f3e2d72 	svcpl	0x003e2d72
    b6cc:	3d207469 	cfstrscc	mvf7, [r0, #-420]!	; 0xfffffe5c
    b6d0:	0031203d 	eorseq	r2, r1, sp, lsr r0
    b6d4:	5f3e2d72 	svcpl	0x003e2d72
    b6d8:	307a6273 	rsbscc	r6, sl, r3, ror r2
    b6dc:	203d3d20 	eorscs	r3, sp, r0, lsr #26
    b6e0:	00000030 	andeq	r0, r0, r0, lsr r0
    b6e4:	5f3e2d72 	svcpl	0x003e2d72
    b6e8:	317a6273 	cmncc	sl, r3, ror r2
    b6ec:	203d3d20 	eorscs	r3, sp, r0, lsr #26
    b6f0:	00000030 	andeq	r0, r0, r0, lsr r0
    b6f4:	5f3e2d72 	svcpl	0x003e2d72
    b6f8:	3d207473 	cfstrscc	mvf7, [r0, #-460]!	; 0xfffffe34
    b6fc:	0030203d 	eorseq	r2, r0, sp, lsr r0
    b700:	3e2d7221 	cdpcc	2, 2, cr7, cr13, cr1, {1}
    b704:	655f324c 	ldrbvs	r3, [pc, #-588]	; b4c0 <__FUNCTION__.4528+0x37c>
    b708:	6c62616e 	stfvse	f6, [r2], #-440	; 0xfffffe48
    b70c:	00006465 	andeq	r6, r0, r5, ror #8
    b710:	3e2d7221 	cdpcc	2, 2, cr7, cr13, cr1, {1}
    b714:	63695f49 	cmnvs	r9, #292	; 0x124
    b718:	65686361 	strbvs	r6, [r8, #-865]!	; 0x361
    b71c:	616e655f 	cmnvs	lr, pc, asr r5
    b720:	00656c62 	rsbeq	r6, r5, r2, ror #24
    b724:	3e2d7221 	cdpcc	2, 2, cr7, cr13, cr1, {1}
    b728:	6e755f43 	cdpvs	15, 7, cr5, cr5, cr3, {2}
    b72c:	65696669 	strbvs	r6, [r9, #-1641]!	; 0x669
    b730:	6e655f64 	cdpvs	15, 6, cr5, cr5, cr4, {3}
    b734:	656c6261 	strbvs	r6, [ip, #-609]!	; 0x261
    b738:	00000000 	andeq	r0, r0, r0
    b73c:	74737973 	ldrbtvc	r7, [r3], #-2419	; 0x973
    b740:	63206d65 	teqvs	r0, #6464	; 0x1940
    b744:	72746e6f 	rsbsvc	r6, r4, #1776	; 0x6f0
    b748:	72206c6f 	eorvc	r6, r0, #28416	; 0x6f00
    b74c:	0a3d6765 	beq	f654e8 <__bss_end__+0xf58ea0>
    b750:	00000000 	andeq	r0, r0, r0
    b754:	25623009 	strbcs	r3, [r2, #-9]!
    b758:	203d0962 	eorscs	r0, sp, r2, ror #18
    b75c:	000a7325 	andeq	r7, sl, r5, lsr #6
    b760:	25783009 	ldrbcs	r3, [r8, #-9]!
    b764:	00000a78 	andeq	r0, r0, r8, ror sl
    b768:	66696e75 			; <UNDEFINED> instruction: 0x66696e75
    b76c:	5f646569 	svcpl	0x00646569
    b770:	00000070 	andeq	r0, r0, r0, ror r0
    b774:	5f645f6e 	svcpl	0x00645f6e
    b778:	6b636f6c 	blvs	18e7530 <__bss_end__+0x18daee8>
    b77c:	00000000 	andeq	r0, r0, r0
    b780:	5f695f6e 	svcpl	0x00695f6e
    b784:	6b636f6c 	blvs	18e753c <__bss_end__+0x18daef4>
    b788:	00000000 	andeq	r0, r0, r0
    b78c:	20424c54 	subcs	r4, r2, r4, asr ip
    b790:	666e6f63 	strbtvs	r6, [lr], -r3, ror #30
    b794:	0a3a6769 	beq	ea5540 <__bss_end__+0xe98ef8>
    b798:	00000000 	andeq	r0, r0, r0
    b79c:	696e7509 	stmdbvs	lr!, {r0, r3, r8, sl, ip, sp, lr}^
    b7a0:	64656966 	strbtvs	r6, [r5], #-2406	; 0x966
    b7a4:	0a64253d 	beq	1914ca0 <__bss_end__+0x1908658>
    b7a8:	00000000 	andeq	r0, r0, r0
    b7ac:	636f6c09 	cmnvs	pc, #2304	; 0x900
    b7b0:	6c62616b 	stfvse	f6, [r2], #-428	; 0xfffffe54
    b7b4:	61642065 	cmnvs	r4, r5, rrx
    b7b8:	65206174 	strvs	r6, [r0, #-372]!	; 0x174
    b7bc:	253d746e 	ldrcs	r7, [sp, #-1134]!	; 0x46e
    b7c0:	00000a64 	andeq	r0, r0, r4, ror #20
    b7c4:	636f6c09 	cmnvs	pc, #2304	; 0x900
    b7c8:	6c62616b 	stfvse	f6, [r2], #-428	; 0xfffffe54
    b7cc:	6e692065 	cdpvs	0, 6, cr2, cr9, cr5, {3}
    b7d0:	65207473 	strvs	r7, [r0, #-1139]!	; 0x473
    b7d4:	253d746e 	ldrcs	r7, [sp, #-1134]!	; 0x46e
    b7d8:	00000a64 	andeq	r0, r0, r4, ror #20
    b7dc:	5f3e2d66 	svcpl	0x003e2d66
    b7e0:	317a6273 	cmncc	sl, r3, ror r2
    b7e4:	203d3d20 	eorscs	r3, sp, r0, lsr #26
    b7e8:	00000030 	andeq	r0, r0, r0, lsr r0
    b7ec:	743e2d66 	ldrtvc	r2, [lr], #-3430	; 0xd66
    b7f0:	3d206761 	stccc	7, cr6, [r0, #-388]!	; 0xfffffe7c
    b7f4:	6230203d 	eorsvs	r2, r0, #61	; 0x3d
    b7f8:	00003031 	andeq	r3, r0, r1, lsr r0
    b7fc:	533e2d66 	teqpl	lr, #6528	; 0x1980
    b800:	203d3d20 	eorscs	r3, sp, r0, lsr #26
    b804:	00000030 	andeq	r0, r0, r0, lsr r0
    b808:	493e2d66 	ldmdbmi	lr!, {r1, r2, r5, r6, r8, sl, fp, sp}
    b80c:	3d20504d 	stccc	0, cr5, [r0, #-308]!	; 0xfffffecc
    b810:	0030203d 	eorseq	r2, r0, sp, lsr r0
    b814:	543e2d66 	ldrtpl	r2, [lr], #-3430	; 0xd66
    b818:	3d205845 	stccc	8, cr5, [r0, #-276]!	; 0xfffffeec
    b81c:	0030203d 	eorseq	r2, r0, sp, lsr r0
    b820:	433e2d66 	teqmi	lr, #6528	; 0x1980
    b824:	203d3d20 	eorscs	r3, sp, r0, lsr #26
    b828:	00000030 	andeq	r0, r0, r0, lsr r0
    b82c:	423e2d66 	eorsmi	r2, lr, #6528	; 0x1980
    b830:	203d3d20 	eorscs	r3, sp, r0, lsr #26
    b834:	00000030 	andeq	r0, r0, r0, lsr r0
    b838:	733e2d66 	teqvc	lr, #6528	; 0x1980
    b83c:	72657075 	rsbvc	r7, r5, #117	; 0x75
    b840:	203d3d20 	eorscs	r3, sp, r0, lsr #26
    b844:	00000030 	andeq	r0, r0, r0, lsr r0
    b848:	00676174 	rsbeq	r6, r7, r4, ror r1
    b84c:	00000042 	andeq	r0, r0, r2, asr #32
    b850:	00000043 	andeq	r0, r0, r3, asr #32
    b854:	00004e58 	andeq	r4, r0, r8, asr lr
    b858:	616d6f64 	cmnvs	sp, r4, ror #30
    b85c:	00006e69 	andeq	r6, r0, r9, ror #28
    b860:	00504d49 	subseq	r4, r0, r9, asr #26
    b864:	00005041 	andeq	r5, r0, r1, asr #32
    b868:	00584554 	subseq	r4, r8, r4, asr r5
    b86c:	00585041 	subseq	r5, r8, r1, asr #32
    b870:	00000053 	andeq	r0, r0, r3, asr r0
    b874:	0000476e 	andeq	r4, r0, lr, ror #14
    b878:	65707573 	ldrbvs	r7, [r0, #-1395]!	; 0x573
    b87c:	00000072 	andeq	r0, r0, r2, ror r0
    b880:	5f636573 	svcpl	0x00636573
    b884:	65736162 	ldrbvs	r6, [r3, #-354]!	; 0x162
    b888:	6464615f 	strbtvs	r6, [r4], #-351	; 0x15f
    b88c:	00000072 	andeq	r0, r0, r2, ror r0
    b890:	2d2d2d2d 	stccs	13, cr2, [sp, #-180]!	; 0xffffff4c
    b894:	2d2d2d2d 	stccs	13, cr2, [sp, #-180]!	; 0xffffff4c
    b898:	2d2d2d2d 	stccs	13, cr2, [sp, #-180]!	; 0xffffff4c
    b89c:	2d2d2d2d 	stccs	13, cr2, [sp, #-180]!	; 0xffffff4c
    b8a0:	2d2d2d2d 	stccs	13, cr2, [sp, #-180]!	; 0xffffff4c
    b8a4:	2d2d2d2d 	stccs	13, cr2, [sp, #-180]!	; 0xffffff4c
    b8a8:	2d2d2d2d 	stccs	13, cr2, [sp, #-180]!	; 0xffffff4c
    b8ac:	000a2d2d 	andeq	r2, sl, sp, lsr #26
    b8b0:	78257830 	stmdavc	r5!, {r4, r5, fp, ip, sp, lr}
    b8b4:	00000a3a 	andeq	r0, r0, sl, lsr sl
    b8b8:	2d202009 	stccs	0, cr2, [r0, #-36]!	; 0xffffffdc
    b8bc:	76203e2d 	strtvc	r3, [r0], -sp, lsr #28
    b8c0:	78303d61 	ldmdavc	r0!, {r0, r5, r6, r8, sl, fp, ip, sp}
    b8c4:	0a783825 	beq	1e19960 <__bss_end__+0x1e0d318>
    b8c8:	00000000 	andeq	r0, r0, r0
    b8cc:	20202009 	eorcs	r2, r0, r9
    b8d0:	20202020 	eorcs	r2, r0, r0, lsr #32
    b8d4:	20202020 	eorcs	r2, r0, r0, lsr #32
    b8d8:	34353637 	ldrtcc	r3, [r5], #-1591	; 0x637
    b8dc:	30313233 	eorscc	r3, r1, r3, lsr r2
    b8e0:	0000000a 	andeq	r0, r0, sl

0000b8e4 <__FUNCTION__.4576>:
    b8e4:	746e6f63 	strbtvc	r6, [lr], #-3939	; 0xf63
    b8e8:	5f6c6f72 	svcpl	0x006c6f72
    b8ec:	31676572 	smccc	30290	; 0x7652
    b8f0:	6e61735f 	mcrvs	3, 3, r7, cr1, cr15, {2}
    b8f4:	5f797469 	svcpl	0x00797469
    b8f8:	63656863 	cmnvs	r5, #6488064	; 0x630000
    b8fc:	0000006b 	andeq	r0, r0, fp, rrx

0000b900 <__FUNCTION__.4619>:
    b900:	5f646c66 	svcpl	0x00646c66
    b904:	63656863 	cmnvs	r5, #6488064	; 0x630000
    b908:	61765f6b 	cmnvs	r6, fp, ror #30
    b90c:	0064696c 	rsbeq	r6, r4, ip, ror #18

0000b910 <__FUNCTION__.4390>:
    b910:	746e6f63 	strbtvc	r6, [lr], #-3939	; 0xf63
    b914:	5f6c6f72 	svcpl	0x006c6f72
    b918:	31676572 	smccc	30290	; 0x7652
    b91c:	6568635f 	strbvs	r6, [r8, #-863]!	; 0x35f
    b920:	6f5f6b63 	svcvs	0x005f6b63
    b924:	65736666 	ldrbvs	r6, [r3, #-1638]!	; 0x666
    b928:	00007374 	andeq	r7, r0, r4, ror r3

0000b92c <__FUNCTION__.4592>:
    b92c:	5f626c74 	svcpl	0x00626c74
    b930:	666e6f63 	strbtvs	r6, [lr], -r3, ror #30
    b934:	635f6769 	cmpvs	pc, #27525120	; 0x1a40000
    b938:	6b636568 	blvs	18e4ee0 <__bss_end__+0x18d8898>
    b93c:	66666f5f 	uqsaxvs	r6, r6, pc	; <UNPREDICTABLE>
    b940:	73746573 	cmnvc	r4, #482344960	; 0x1cc00000
    b944:	00000000 	andeq	r0, r0, r0

0000b948 <__FUNCTION__.4628>:
    b948:	5f646c66 	svcpl	0x00646c66
    b94c:	63656863 	cmnvs	r5, #6488064	; 0x630000
    b950:	666f5f6b 	strbtvs	r5, [pc], -fp, ror #30
    b954:	74657366 	strbtvc	r7, [r5], #-870	; 0x366
    b958:	00000073 	andeq	r0, r0, r3, ror r0
    b95c:	636d656d 	cmnvs	sp, #457179136	; 0x1b400000
    b960:	6b636568 	blvs	18e4f08 <__bss_end__+0x18d88c0>
    b964:	0000632e 	andeq	r6, r0, lr, lsr #6
    b968:	61662e6c 	cmnvs	r6, ip, ror #28
    b96c:	5f746c75 	svcpl	0x00746c75
    b970:	72646461 	rsbvc	r6, r4, #1627389952	; 0x61000000
    b974:	203d3d20 	eorscs	r3, sp, r0, lsr #26
    b978:	72646461 	rsbvc	r6, r4, #1627389952	; 0x61000000
    b97c:	00000000 	andeq	r0, r0, r0
    b980:	61662e6c 	cmnvs	r6, ip, ror #28
    b984:	5f746c75 	svcpl	0x00746c75
    b988:	3d206370 	stccc	3, cr6, [r0, #-448]!	; 0xfffffe40
    b98c:	6370203d 	cmnvs	r0, #61	; 0x3d
    b990:	00000000 	andeq	r0, r0, r0
    b994:	61662e6c 	cmnvs	r6, ip, ror #28
    b998:	5f746c75 	svcpl	0x00746c75
    b99c:	73616572 	cmnvc	r1, #478150656	; 0x1c800000
    b9a0:	3d206e6f 	stccc	14, cr6, [r0, #-444]!	; 0xfffffe44
    b9a4:	6572203d 	ldrbvs	r2, [r2, #-61]!	; 0x3d
    b9a8:	6e6f7361 	cdpvs	3, 6, cr7, cr15, cr1, {3}
    b9ac:	00000000 	andeq	r0, r0, r0
    b9b0:	20776173 	rsbscs	r6, r7, r3, ror r1
    b9b4:	65707865 	ldrbvs	r7, [r0, #-2149]!	; 0x865
    b9b8:	64657463 	strbtvs	r7, [r5], #-1123	; 0x463
    b9bc:	75616620 	strbvc	r6, [r1, #-1568]!	; 0x620
    b9c0:	6120746c 	teqvs	r0, ip, ror #8
    b9c4:	63702074 	cmnvs	r0, #116	; 0x74
    b9c8:	2c70253d 	cfldr64cs	mvdx2, [r0], #-244	; 0xffffff0c
    b9cc:	64646120 	strbtvs	r6, [r4], #-288	; 0x120
    b9d0:	70253d72 	eorvc	r3, r5, r2, ror sp
    b9d4:	6572202c 	ldrbvs	r2, [r2, #-44]!	; 0x2c
    b9d8:	6e6f7361 	cdpvs	3, 6, cr7, cr15, cr1, {3}
    b9dc:	0a64253d 	beq	1914ed8 <__bss_end__+0x1908890>
    b9e0:	00000000 	andeq	r0, r0, r0
    b9e4:	2d746962 	ldclcs	9, cr6, [r4, #-392]!	; 0xfffffe78
    b9e8:	70707573 	rsbsvc	r7, r0, r3, ror r5
    b9ec:	2e74726f 	cdpcs	2, 7, cr7, cr4, cr15, {3}
    b9f0:	00000068 	andeq	r0, r0, r8, rrx
    b9f4:	3c20626c 	sfmcc	f6, 4, [r0], #-432	; 0xfffffe50
    b9f8:	6275203d 	rsbsvs	r2, r5, #61	; 0x3d
    b9fc:	00000000 	andeq	r0, r0, r0
    ba00:	3c206275 	sfmcc	f6, 4, [r0], #-468	; 0xfffffe2c
    ba04:	00323320 	eorseq	r3, r2, r0, lsr #6
    ba08:	6d726570 	cfldr64vs	mvdx6, [r2, #-448]!	; 0xfffffe40
    ba0c:	203d3d20 	eorscs	r3, sp, r0, lsr #26
    ba10:	5f4d4f44 	svcpl	0x004d4f44
    ba14:	65696c63 	strbvs	r6, [r9, #-3171]!	; 0xc63
    ba18:	7c20746e 	cfstrsvc	mvf7, [r0], #-440	; 0xfffffe48
    ba1c:	6570207c 	ldrbvs	r2, [r0, #-124]!	; 0x7c
    ba20:	3d206d72 	stccc	13, cr6, [r0, #-456]!	; 0xfffffe38
    ba24:	4f44203d 	svcmi	0x0044203d
    ba28:	6f6e5f4d 	svcvs	0x006e5f4d
    ba2c:	6363615f 	cmnvs	r3, #-1073741801	; 0xc0000017
    ba30:	00737365 	rsbseq	r7, r3, r5, ror #6
    ba34:	494e4150 	stmdbmi	lr, {r4, r6, r8, lr}^
    ba38:	73253a43 	teqvc	r5, #274432	; 0x43000
    ba3c:	3a73253a 	bcc	1cd4f2c <__bss_end__+0x1cc88e4>
    ba40:	693a6425 	ldmdbvs	sl!, {r0, r2, r5, sl, sp, lr}
    ba44:	656c706d 	strbvs	r7, [ip, #-109]!	; 0x6d
    ba48:	746e656d 	strbtvc	r6, [lr], #-1389	; 0x56d
    ba4c:	69687420 	stmdbvs	r8!, {r5, sl, ip, sp, lr}^
    ba50:	75662073 	strbvc	r2, [r6, #-115]!	; 0x73
    ba54:	6974636e 	ldmdbvs	r4!, {r1, r2, r3, r5, r6, r8, r9, sp, lr}^
    ba58:	0a216e6f 	beq	86741c <__bss_end__+0x85add4>
    ba5c:	0000000a 	andeq	r0, r0, sl
    ba60:	494e4150 	stmdbmi	lr, {r4, r6, r8, lr}^
    ba64:	73253a43 	teqvc	r5, #274432	; 0x43000
    ba68:	3a73253a 	bcc	1cd4f58 <__bss_end__+0x1cc8910>
    ba6c:	413a6425 	teqmi	sl, r5, lsr #8
    ba70:	6e67696c 	cdpvs	9, 6, cr6, cr7, cr12, {3}
    ba74:	746e656d 	strbtvc	r6, [lr], #-1389	; 0x56d
    ba78:	75616620 	strbvc	r6, [r1, #-1568]!	; 0x620
    ba7c:	0a0a746c 	beq	2a8c34 <__bss_end__+0x29c5ec>
    ba80:	00000000 	andeq	r0, r0, r0
    ba84:	494e4150 	stmdbmi	lr, {r4, r6, r8, lr}^
    ba88:	73253a43 	teqvc	r5, #274432	; 0x43000
    ba8c:	3a73253a 	bcc	1cd4f7c <__bss_end__+0x1cc8934>
    ba90:	543a6425 	ldrtpl	r6, [sl], #-1061	; 0x425
    ba94:	4d20424c 	sfmmi	f4, 4, [r0, #-304]!	; 0xfffffed0
    ba98:	20737369 	rsbscs	r7, r3, r9, ror #6
    ba9c:	00000a0a 	andeq	r0, r0, sl, lsl #20
    baa0:	494e4150 	stmdbmi	lr, {r4, r6, r8, lr}^
    baa4:	73253a43 	teqvc	r5, #274432	; 0x43000
    baa8:	3a73253a 	bcc	1cd4f98 <__bss_end__+0x1cc8950>
    baac:	443a6425 	ldrtmi	r6, [sl], #-1061	; 0x425
    bab0:	41207065 	teqmi	r0, r5, rrx
    bab4:	6e67696c 	cdpvs	9, 6, cr6, cr7, cr12, {3}
    bab8:	746e656d 	strbtvc	r6, [lr], #-1389	; 0x56d
    babc:	75616620 	strbvc	r6, [r1, #-1568]!	; 0x620
    bac0:	0a0a746c 	beq	2a8c78 <__bss_end__+0x29c630>
    bac4:	00000000 	andeq	r0, r0, r0
    bac8:	494e4150 	stmdbmi	lr, {r4, r6, r8, lr}^
    bacc:	73253a43 	teqvc	r5, #274432	; 0x43000
    bad0:	3a73253a 	bcc	1cd4fc0 <__bss_end__+0x1cc8978>
    bad4:	493a6425 	ldmdbmi	sl!, {r0, r2, r5, sl, sp, lr}
    bad8:	68636143 	stmdavs	r3!, {r0, r1, r6, r8, sp, lr}^
    badc:	614d2065 	cmpvs	sp, r5, rrx
    bae0:	65746e69 	ldrbvs	r6, [r4, #-3689]!	; 0xe69
    bae4:	636e616e 	cmnvs	lr, #-2147483621	; 0x8000001b
    bae8:	61662065 	cmnvs	r6, r5, rrx
    baec:	0a746c75 	beq	1d26cc8 <__bss_end__+0x1d1a680>
    baf0:	0000000a 	andeq	r0, r0, sl
    baf4:	494e4150 	stmdbmi	lr, {r4, r6, r8, lr}^
    baf8:	73253a43 	teqvc	r5, #274432	; 0x43000
    bafc:	3a73253a 	bcc	1cd4fec <__bss_end__+0x1cc89a4>
    bb00:	543a6425 	ldrtpl	r6, [sl], #-1061	; 0x425
    bb04:	736e6172 	cmnvc	lr, #-2147483620	; 0x8000001c
    bb08:	6974616c 	ldmdbvs	r4!, {r2, r3, r5, r6, r8, sp, lr}^
    bb0c:	4c206e6f 	stcmi	14, cr6, [r0], #-444	; 0xfffffe44
    bb10:	6c657665 	stclvs	6, cr7, [r5], #-404	; 0xfffffe6c
    bb14:	66203120 	strtvs	r3, [r0], -r0, lsr #2
    bb18:	746c7561 	strbtvc	r7, [ip], #-1377	; 0x561
    bb1c:	00000a0a 	andeq	r0, r0, sl, lsl #20
    bb20:	494e4150 	stmdbmi	lr, {r4, r6, r8, lr}^
    bb24:	73253a43 	teqvc	r5, #274432	; 0x43000
    bb28:	3a73253a 	bcc	1cd5018 <__bss_end__+0x1cc89d0>
    bb2c:	543a6425 	ldrtpl	r6, [sl], #-1061	; 0x425
    bb30:	736e6172 	cmnvc	lr, #-2147483620	; 0x8000001c
    bb34:	6974616c 	ldmdbvs	r4!, {r2, r3, r5, r6, r8, sp, lr}^
    bb38:	6c206e6f 	stcvs	14, cr6, [r0], #-444	; 0xfffffe44
    bb3c:	6c657665 	stclvs	6, cr7, [r5], #-404	; 0xfffffe6c
    bb40:	66203220 	strtvs	r3, [r0], -r0, lsr #4
    bb44:	746c7561 	strbtvc	r7, [ip], #-1377	; 0x561
    bb48:	00000a0a 	andeq	r0, r0, sl, lsl #20
    bb4c:	494e4150 	stmdbmi	lr, {r4, r6, r8, lr}^
    bb50:	73253a43 	teqvc	r5, #274432	; 0x43000
    bb54:	3a73253a 	bcc	1cd5044 <__bss_end__+0x1cc89fc>
    bb58:	543a6425 	ldrtpl	r6, [sl], #-1061	; 0x425
    bb5c:	736e6172 	cmnvc	lr, #-2147483620	; 0x8000001c
    bb60:	6974616c 	ldmdbvs	r4!, {r2, r3, r5, r6, r8, sp, lr}^
    bb64:	73206e6f 	teqvc	r0, #1776	; 0x6f0
    bb68:	69746365 	ldmdbvs	r4!, {r0, r2, r5, r6, r8, r9, sp, lr}^
    bb6c:	66206e6f 	strtvs	r6, [r0], -pc, ror #28
    bb70:	746c7561 	strbtvc	r7, [ip], #-1377	; 0x561
    bb74:	00000a0a 	andeq	r0, r0, sl, lsl #20
    bb78:	494e4150 	stmdbmi	lr, {r4, r6, r8, lr}^
    bb7c:	73253a43 	teqvc	r5, #274432	; 0x43000
    bb80:	3a73253a 	bcc	1cd5070 <__bss_end__+0x1cc8a28>
    bb84:	543a6425 	ldrtpl	r6, [sl], #-1061	; 0x425
    bb88:	736e6172 	cmnvc	lr, #-2147483620	; 0x8000001c
    bb8c:	6974616c 	ldmdbvs	r4!, {r2, r3, r5, r6, r8, sp, lr}^
    bb90:	70206e6f 	eorvc	r6, r0, pc, ror #28
    bb94:	20656761 	rsbcs	r6, r5, r1, ror #14
    bb98:	6c756166 	ldfvse	f6, [r5], #-408	; 0xfffffe68
    bb9c:	000a0a74 	andeq	r0, sl, r4, ror sl
    bba0:	494e4150 	stmdbmi	lr, {r4, r6, r8, lr}^
    bba4:	73253a43 	teqvc	r5, #274432	; 0x43000
    bba8:	3a73253a 	bcc	1cd5098 <__bss_end__+0x1cc8a50>
    bbac:	443a6425 	ldrtmi	r6, [sl], #-1061	; 0x425
    bbb0:	69616d6f 	stmdbvs	r1!, {r0, r1, r2, r3, r5, r6, r8, sl, fp, sp, lr}^
    bbb4:	6573206e 	ldrbvs	r2, [r3, #-110]!	; 0x6e
    bbb8:	6f697463 	svcvs	0x00697463
    bbbc:	6166206e 	cmnvs	r6, lr, rrx
    bbc0:	0a746c75 	beq	1d26d9c <__bss_end__+0x1d1a754>
    bbc4:	0000000a 	andeq	r0, r0, sl
    bbc8:	494e4150 	stmdbmi	lr, {r4, r6, r8, lr}^
    bbcc:	73253a43 	teqvc	r5, #274432	; 0x43000
    bbd0:	3a73253a 	bcc	1cd50c0 <__bss_end__+0x1cc8a78>
    bbd4:	443a6425 	ldrtmi	r6, [sl], #-1061	; 0x425
    bbd8:	69616d6f 	stmdbvs	r1!, {r0, r1, r2, r3, r5, r6, r8, sl, fp, sp, lr}^
    bbdc:	6170206e 	cmnvs	r0, lr, rrx
    bbe0:	66206567 	strtvs	r6, [r0], -r7, ror #10
    bbe4:	746c7561 	strbtvc	r7, [ip], #-1377	; 0x561
    bbe8:	00000a0a 	andeq	r0, r0, sl, lsl #20
    bbec:	494e4150 	stmdbmi	lr, {r4, r6, r8, lr}^
    bbf0:	73253a43 	teqvc	r5, #274432	; 0x43000
    bbf4:	3a73253a 	bcc	1cd50e4 <__bss_end__+0x1cc8a9c>
    bbf8:	503a6425 	eorspl	r6, sl, r5, lsr #8
    bbfc:	696d7265 	stmdbvs	sp!, {r0, r2, r5, r6, r9, ip, sp, lr}^
    bc00:	6f697373 	svcvs	0x00697373
    bc04:	6166206e 	cmnvs	r6, lr, rrx
    bc08:	0a746c75 	beq	1d26de4 <__bss_end__+0x1d1a79c>
    bc0c:	0000000a 	andeq	r0, r0, sl
    bc10:	494e4150 	stmdbmi	lr, {r4, r6, r8, lr}^
    bc14:	73253a43 	teqvc	r5, #274432	; 0x43000
    bc18:	3a73253a 	bcc	1cd5108 <__bss_end__+0x1cc8ac0>
    bc1c:	503a6425 	eorspl	r6, sl, r5, lsr #8
    bc20:	696d7265 	stmdbvs	sp!, {r0, r2, r5, r6, r9, ip, sp, lr}^
    bc24:	6f697373 	svcvs	0x00697373
    bc28:	6170206e 	cmnvs	r0, lr, rrx
    bc2c:	66206567 	strtvs	r6, [r0], -r7, ror #10
    bc30:	746c7561 	strbtvc	r7, [ip], #-1377	; 0x561
    bc34:	00000a0a 	andeq	r0, r0, sl, lsl #20
    bc38:	494e4150 	stmdbmi	lr, {r4, r6, r8, lr}^
    bc3c:	73253a43 	teqvc	r5, #274432	; 0x43000
    bc40:	3a73253a 	bcc	1cd5130 <__bss_end__+0x1cc8ae8>
    bc44:	503a6425 	eorspl	r6, sl, r5, lsr #8
    bc48:	69636572 	stmdbvs	r3!, {r1, r4, r5, r6, r8, sl, sp, lr}^
    bc4c:	65206573 	strvs	r6, [r0, #-1395]!	; 0x573
    bc50:	72657478 	rsbvc	r7, r5, #120, 8	; 0x78000000
    bc54:	206c616e 	rsbcs	r6, ip, lr, ror #2
    bc58:	726f6261 	rsbvc	r6, pc, #268435462	; 0x10000006
    bc5c:	000a0a74 	andeq	r0, sl, r4, ror sl
    bc60:	494e4150 	stmdbmi	lr, {r4, r6, r8, lr}^
    bc64:	73253a43 	teqvc	r5, #274432	; 0x43000
    bc68:	3a73253a 	bcc	1cd5158 <__bss_end__+0x1cc8b10>
    bc6c:	453a6425 	ldrmi	r6, [sl, #-1061]!	; 0x425
    bc70:	72657478 	rsbvc	r7, r5, #120, 8	; 0x78000000
    bc74:	206c616e 	rsbcs	r6, ip, lr, ror #2
    bc78:	726f6261 	rsbvc	r6, pc, #268435462	; 0x10000006
    bc7c:	72702074 	rsbsvc	r2, r0, #116	; 0x74
    bc80:	73696365 	cmnvc	r9, #-1811939327	; 0x94000001
    bc84:	000a0a65 	andeq	r0, sl, r5, ror #20
    bc88:	494e4150 	stmdbmi	lr, {r4, r6, r8, lr}^
    bc8c:	73253a43 	teqvc	r5, #274432	; 0x43000
    bc90:	3a73253a 	bcc	1cd5180 <__bss_end__+0x1cc8b38>
    bc94:	543a6425 	ldrtpl	r6, [sl], #-1061	; 0x425
    bc98:	4c20424c 	sfmmi	f4, 4, [r0], #-304	; 0xfffffed0
    bc9c:	0a6b636f 	beq	1ae4a60 <__bss_end__+0x1ad8418>
    bca0:	0000000a 	andeq	r0, r0, sl
    bca4:	494e4150 	stmdbmi	lr, {r4, r6, r8, lr}^
    bca8:	73253a43 	teqvc	r5, #274432	; 0x43000
    bcac:	3a73253a 	bcc	1cd519c <__bss_end__+0x1cc8b54>
    bcb0:	433a6425 	teqmi	sl, #620756992	; 0x25000000
    bcb4:	6f72706f 	svcvs	0x0072706f
    bcb8:	73736563 	cmnvc	r3, #415236096	; 0x18c00000
    bcbc:	6420726f 	strtvs	r7, [r0], #-623	; 0x26f
    bcc0:	20617461 	rsbcs	r7, r1, r1, ror #8
    bcc4:	726f6261 	rsbvc	r6, pc, #268435462	; 0x10000006
    bcc8:	000a0a74 	andeq	r0, sl, r4, ror sl
    bccc:	494e4150 	stmdbmi	lr, {r4, r6, r8, lr}^
    bcd0:	73253a43 	teqvc	r5, #274432	; 0x43000
    bcd4:	3a73253a 	bcc	1cd51c4 <__bss_end__+0x1cc8b7c>
    bcd8:	493a6425 	ldmdbmi	sl!, {r0, r2, r5, sl, sp, lr}
    bcdc:	6572706d 	ldrbvs	r7, [r2, #-109]!	; 0x6d
    bce0:	65736963 	ldrbvs	r6, [r3, #-2403]!	; 0x963
    bce4:	74786520 	ldrbtvc	r6, [r8], #-1312	; 0x520
    bce8:	616e7265 	cmnvs	lr, r5, ror #4
    bcec:	6261206c 	rsbvs	r2, r1, #108	; 0x6c
    bcf0:	0a74726f 	beq	1d286b4 <__bss_end__+0x1d1c06c>
    bcf4:	0000000a 	andeq	r0, r0, sl
    bcf8:	494e4150 	stmdbmi	lr, {r4, r6, r8, lr}^
    bcfc:	73253a43 	teqvc	r5, #274432	; 0x43000
    bd00:	3a73253a 	bcc	1cd51f0 <__bss_end__+0x1cc8ba8>
    bd04:	503a6425 	eorspl	r6, sl, r5, lsr #8
    bd08:	74697261 	strbtvc	r7, [r9], #-609	; 0x261
    bd0c:	72652079 	rsbvc	r2, r5, #121	; 0x79
    bd10:	20726f72 	rsbscs	r6, r2, r2, ror pc
    bd14:	65637865 	strbvs	r7, [r3, #-2149]!	; 0x865
    bd18:	6f697470 	svcvs	0x00697470
    bd1c:	000a0a6e 	andeq	r0, sl, lr, ror #20
    bd20:	494e4150 	stmdbmi	lr, {r4, r6, r8, lr}^
    bd24:	73253a43 	teqvc	r5, #274432	; 0x43000
    bd28:	3a73253a 	bcc	1cd5218 <__bss_end__+0x1cc8bd0>
    bd2c:	443a6425 	ldrtmi	r6, [sl], #-1061	; 0x425
    bd30:	67756265 	ldrbvs	r6, [r5, -r5, ror #4]!
    bd34:	65766520 	ldrbvs	r6, [r6, #-1312]!	; 0x520
    bd38:	0a0a746e 	beq	2a8ef8 <__bss_end__+0x29c8b0>
    bd3c:	00000000 	andeq	r0, r0, r0
    bd40:	494e4150 	stmdbmi	lr, {r4, r6, r8, lr}^
    bd44:	73253a43 	teqvc	r5, #274432	; 0x43000
    bd48:	3a73253a 	bcc	1cd5238 <__bss_end__+0x1cc8bf0>
    bd4c:	573a6425 	ldrpl	r6, [sl, -r5, lsr #8]!
    bd50:	63204654 	teqvs	r0, #84, 12	; 0x5400000
    bd54:	20657361 	rsbcs	r7, r5, r1, ror #6
    bd58:	74207369 	strtvc	r7, [r0], #-873	; 0x369
    bd5c:	21736968 	cmncs	r3, r8, ror #18
    bd60:	3f3f213f 	svccc	0x003f213f
    bd64:	0000000a 	andeq	r0, r0, sl
    bd68:	494e4150 	stmdbmi	lr, {r4, r6, r8, lr}^
    bd6c:	73253a43 	teqvc	r5, #274432	; 0x43000
    bd70:	3a73253a 	bcc	1cd5260 <__bss_end__+0x1cc8c18>
    bd74:	693a6425 	ldmdbvs	sl!, {r0, r2, r5, sl, sp, lr}
    bd78:	736f706d 	cmnvc	pc, #109	; 0x6d
    bd7c:	6c626973 	stclvs	9, cr6, [r2], #-460	; 0xfffffe34
    bd80:	000a0a65 	andeq	r0, sl, r5, ror #20
    bd84:	756d6d21 	strbvc	r6, [sp, #-3361]!	; 0xd21
    bd88:	5f73695f 	svcpl	0x0073695f
    bd8c:	62616e65 	rsbvs	r6, r1, #1616	; 0x650
    bd90:	2864656c 	stmdacs	r4!, {r2, r3, r5, r6, r8, sl, sp, lr}^
    bd94:	00000029 	andeq	r0, r0, r9, lsr #32
    bd98:	3d207470 	cfstrscc	mvf7, [r0, #-448]!	; 0xfffffe40
    bd9c:	6162203d 	cmnvs	r2, sp, lsr r0
    bda0:	00006573 	andeq	r6, r0, r3, ror r5
    bda4:	253a7325 	ldrcs	r7, [sl, #-805]!	; 0x325
    bda8:	64253a73 	strtvs	r3, [r5], #-2675	; 0xa73
    bdac:	6d656d3a 	stclvs	13, cr6, [r5, #-232]!	; 0xffffff18
    bdb0:	63656863 	cmnvs	r5, #6488064	; 0x630000
    bdb4:	61203a6b 	teqvs	r0, fp, ror #20
    bdb8:	74756f62 	ldrbtvc	r6, [r5], #-3938	; 0xf62
    bdbc:	206f7420 	rsbcs	r7, pc, r0, lsr #8
    bdc0:	6e727574 	mrcvs	5, 3, r7, cr2, cr4, {3}
    bdc4:	0a4e4f20 	beq	139fa4c <__bss_end__+0x1393404>
    bdc8:	00000000 	andeq	r0, r0, r0
    bdcc:	253a7325 	ldrcs	r7, [sl, #-805]!	; 0x325
    bdd0:	64253a73 	strtvs	r3, [r5], #-2675	; 0xa73
    bdd4:	6d656d3a 	stclvs	13, cr6, [r5, #-232]!	; 0xffffff18
    bdd8:	63656863 	cmnvs	r5, #6488064	; 0x630000
    bddc:	4f203a6b 	svcmi	0x00203a6b
    bde0:	00000a4e 	andeq	r0, r0, lr, asr #20
    bde4:	253a7325 	ldrcs	r7, [sl, #-805]!	; 0x325
    bde8:	64253a73 	strtvs	r3, [r5], #-2675	; 0xa73
    bdec:	6d656d3a 	stclvs	13, cr6, [r5, #-232]!	; 0xffffff18
    bdf0:	63656863 	cmnvs	r5, #6488064	; 0x630000
    bdf4:	4f203a6b 	svcmi	0x00203a6b
    bdf8:	000a4646 	andeq	r4, sl, r6, asr #12
    bdfc:	615f7369 	cmpvs	pc, r9, ror #6
    be00:	6e67696c 	cdpvs	9, 6, cr6, cr7, cr12, {3}
    be04:	62286465 	eorvs	r6, r8, #1694498816	; 0x65000000
    be08:	2c657361 	stclcs	3, cr7, [r5], #-388	; 0xfffffe7c
    be0c:	4d656e4f 	stclmi	14, cr6, [r5, #-316]!	; 0xfffffec4
    be10:	00002942 	andeq	r2, r0, r2, asr #18

0000be14 <__FUNCTION__.4602>:
    be14:	6c756166 	ldfvse	f6, [r5], #-408	; 0xfffffe68
    be18:	78655f74 	stmdavc	r5!, {r2, r4, r5, r6, r8, r9, sl, fp, ip, lr}^
    be1c:	74636570 	strbtvc	r6, [r3], #-1392	; 0x570
    be20:	00006465 	andeq	r6, r0, r5, ror #8

0000be24 <__FUNCTION__.4655>:
    be24:	61746164 	cmnvs	r4, r4, ror #2
    be28:	6f62615f 	svcvs	0x0062615f
    be2c:	765f7472 			; <UNDEFINED> instruction: 0x765f7472
    be30:	6f746365 	svcvs	0x00746365
    be34:	00000072 	andeq	r0, r0, r2, ror r0

0000be38 <__FUNCTION__.4678>:
    be38:	65746e69 	ldrbvs	r6, [r4, #-3689]!	; 0xe69
    be3c:	70757272 	rsbsvc	r7, r5, r2, ror r2
    be40:	65765f74 	ldrbvs	r5, [r6, #-3956]!	; 0xf74
    be44:	726f7463 	rsbvc	r7, pc, #1660944384	; 0x63000000
    be48:	00000000 	andeq	r0, r0, r0

0000be4c <__FUNCTION__.4683>:
    be4c:	636d656d 	cmnvs	sp, #457179136	; 0x1b400000
    be50:	6b636568 	blvs	18e53f8 <__bss_end__+0x18d8db0>
    be54:	696e695f 	stmdbvs	lr!, {r0, r1, r2, r3, r4, r6, r8, fp, sp, lr}^
    be58:	00000074 	andeq	r0, r0, r4, ror r0

0000be5c <__FUNCTION__.4688>:
    be5c:	636d656d 	cmnvs	sp, #457179136	; 0x1b400000
    be60:	6b636568 	blvs	18e5408 <__bss_end__+0x18d8dc0>
    be64:	006e6f5f 	rsbeq	r6, lr, pc, asr pc

0000be68 <__FUNCTION__.4692>:
    be68:	636d656d 	cmnvs	sp, #457179136	; 0x1b400000
    be6c:	6b636568 	blvs	18e5414 <__bss_end__+0x18d8dcc>
    be70:	66666f5f 	uqsaxvs	r6, r6, pc	; <UNPREDICTABLE>
    be74:	00000000 	andeq	r0, r0, r0

0000be78 <__FUNCTION__.4696>:
    be78:	636d656d 	cmnvs	sp, #457179136	; 0x1b400000
    be7c:	6b636568 	blvs	18e5424 <__bss_end__+0x18d8ddc>
    be80:	70616d5f 	rsbvc	r6, r1, pc, asr sp
    be84:	00000000 	andeq	r0, r0, r0

0000be88 <__FUNCTION__.4700>:
    be88:	636d656d 	cmnvs	sp, #457179136	; 0x1b400000
    be8c:	6b636568 	blvs	18e5434 <__bss_end__+0x18d8dec>
    be90:	6172745f 	cmnvs	r2, pc, asr r4
    be94:	00006b63 	andeq	r6, r0, r3, ror #22

0000be98 <__FUNCTION__.4469>:
    be98:	73746962 	cmnvc	r4, #1605632	; 0x188000
    be9c:	7465675f 	strbtvc	r6, [r5], #-1887	; 0x75f
    bea0:	00000000 	andeq	r0, r0, r0

0000bea4 <__FUNCTION__.4611>:
    bea4:	5f6d6f64 	svcpl	0x006d6f64
    bea8:	6d726570 	cfldr64vs	mvdx6, [r2, #-448]!	; 0xfffffe40
    beac:	7465735f 	strbtvc	r7, [r5], #-863	; 0x35f
    beb0:	00000000 	andeq	r0, r0, r0

0000beb4 <__FUNCTION__.4249>:
    beb4:	74696d65 	strbtvc	r6, [r9], #-3429	; 0xd65
    beb8:	00000000 	andeq	r0, r0, r0

0000bebc <__FUNCTION__.4197>:
    bebc:	5f697072 	svcpl	0x00697072
    bec0:	5f746573 	svcpl	0x00746573
    bec4:	7074756f 	rsbsvc	r7, r4, pc, ror #10
    bec8:	00007475 	andeq	r7, r0, r5, ror r4

0000becc <__FUNCTION__.4272>:
    becc:	705f6176 	subsvc	r6, pc, r6, ror r1	; <UNPREDICTABLE>
    bed0:	746e6972 	strbtvc	r6, [lr], #-2418	; 0x972
    bed4:	0000006b 	andeq	r0, r0, fp, rrx
    bed8:	6362696c 	cmnvs	r2, #108, 18	; 0x1b0000
    bedc:	2d61762f 	stclcs	6, cr7, [r1, #-188]!	; 0xffffff44
    bee0:	6e697270 	mcrvs	2, 3, r7, cr9, cr0, {3}
    bee4:	632e6b74 	teqvs	lr, #116, 22	; 0x1d000
    bee8:	00000000 	andeq	r0, r0, r0
    beec:	33323130 	teqcc	r2, #48, 2
    bef0:	37363534 			; <UNDEFINED> instruction: 0x37363534
    bef4:	00003938 	andeq	r3, r0, r8, lsr r9
    bef8:	33323130 	teqcc	r2, #48, 2
    befc:	37363534 			; <UNDEFINED> instruction: 0x37363534
    bf00:	62613938 	rsbvs	r3, r1, #56, 18	; 0xe0000
    bf04:	66656463 	strbtvs	r6, [r5], -r3, ror #8
    bf08:	00000000 	andeq	r0, r0, r0
    bf0c:	00003130 	andeq	r3, r0, r0, lsr r1
    bf10:	63747570 	cmnvs	r4, #112, 10	; 0x1c000000
    bf14:	0070665f 	rsbseq	r6, r0, pc, asr r6
    bf18:	74646977 	strbtvc	r6, [r4], #-2423	; 0x977
    bf1c:	203c2068 	eorscs	r2, ip, r8, rrx
    bf20:	00003233 	andeq	r3, r0, r3, lsr r2
    bf24:	494e4150 	stmdbmi	lr, {r4, r6, r8, lr}^
    bf28:	73253a43 	teqvc	r5, #274432	; 0x43000
    bf2c:	3a73253a 	bcc	1cd541c <__bss_end__+0x1cc8dd4>
    bf30:	663a6425 	ldrtvs	r6, [sl], -r5, lsr #8
    bf34:	74616f6c 	strbtvc	r6, [r1], #-3948	; 0xf6c
    bf38:	746f6e20 	strbtvc	r6, [pc], #-3616	; bf40 <__FUNCTION__.4272+0x74>
    bf3c:	616e6520 	cmnvs	lr, r0, lsr #10
    bf40:	64656c62 	strbtvs	r6, [r5], #-3170	; 0xc62
    bf44:	0a212121 	beq	8543d0 <__bss_end__+0x847d88>
    bf48:	00000000 	andeq	r0, r0, r0
    bf4c:	6e697270 	mcrvs	2, 3, r7, cr9, cr0, {3}
    bf50:	203a6b74 	eorscs	r6, sl, r4, ror fp
    bf54:	20746f6e 	rsbscs	r6, r4, lr, ror #30
    bf58:	646e6168 	strbtvs	r6, [lr], #-360	; 0x168
    bf5c:	676e696c 	strbvs	r6, [lr, -ip, ror #18]!
    bf60:	65707320 	ldrbvs	r7, [r0, #-800]!	; 0x320
    bf64:	69666963 	stmdbvs	r6!, {r0, r1, r5, r6, r8, fp, sp, lr}^
    bf68:	27207265 	strcs	r7, [r0, -r5, ror #4]!
    bf6c:	20276325 	eorcs	r6, r7, r5, lsr #6
    bf70:	63736128 	cmnvs	r3, #40, 2
    bf74:	253d6969 	ldrcs	r6, [sp, #-2409]!	; 0x969
    bf78:	000a2964 	andeq	r2, sl, r4, ror #18
    bf7c:	494e4150 	stmdbmi	lr, {r4, r6, r8, lr}^
    bf80:	73253a43 	teqvc	r5, #274432	; 0x43000
    bf84:	3a73253a 	bcc	1cd5474 <__bss_end__+0x1cc8e2c>
    bf88:	703a6425 	eorsvc	r6, sl, r5, lsr #8
    bf8c:	746e6972 	strbtvc	r6, [lr], #-2418	; 0x972
    bf90:	7265206b 	rsbvc	r2, r5, #107	; 0x6b
    bf94:	0a726f72 	beq	1ca7d64 <__bss_end__+0x1c9b71c>
    bf98:	0000000a 	andeq	r0, r0, sl
    bf9c:	454e4f44 	strbmi	r4, [lr, #-3908]	; 0xf44
    bfa0:	0a212121 	beq	85442c <__bss_end__+0x847de4>
    bfa4:	00000000 	andeq	r0, r0, r0

0000bfa8 <__FUNCTION__.4220>:
    bfa8:	74736166 	ldrbtvc	r6, [r3], #-358	; 0x166
    bfac:	746e695f 	strbtvc	r6, [lr], #-2399	; 0x95f
    bfb0:	75727265 	ldrbvc	r7, [r2, #-613]!	; 0x265
    bfb4:	765f7470 			; <UNDEFINED> instruction: 0x765f7470
    bfb8:	6f746365 	svcvs	0x00746365
    bfbc:	00000072 	andeq	r0, r0, r2, ror r0
    bfc0:	494e4150 	stmdbmi	lr, {r4, r6, r8, lr}^
    bfc4:	73253a43 	teqvc	r5, #274432	; 0x43000
    bfc8:	3a73253a 	bcc	1cd54b8 <__bss_end__+0x1cc8e70>
    bfcc:	453a6425 	ldrmi	r6, [sl, #-1061]!	; 0x425
    bfd0:	524f5252 	subpl	r5, pc, #536870917	; 0x20000005
    bfd4:	6e75203a 	mrcvs	0, 3, r2, cr5, cr10, {1}
    bfd8:	646e6168 	strbtvs	r6, [lr], #-360	; 0x168
    bfdc:	2064656c 	rsbcs	r6, r4, ip, ror #10
    bfe0:	65637865 	strbvs	r7, [r3, #-2149]!	; 0x865
    bfe4:	6f697470 	svcvs	0x00697470
    bfe8:	253c206e 	ldrcs	r2, [ip, #-110]!	; 0x6e
    bfec:	61203e73 	teqvs	r0, r3, ror lr
    bff0:	43502074 	cmpmi	r0, #116	; 0x74
    bff4:	0a78253d 	beq	1e154f0 <__bss_end__+0x1e08ea8>
    bff8:	0000000a 	andeq	r0, r0, sl
    bffc:	66617473 			; <UNDEFINED> instruction: 0x66617473
    c000:	72732d66 	rsbsvc	r2, r3, #6528	; 0x1980
    c004:	65642f63 	strbvs	r2, [r4, #-3939]!	; 0xf63
    c008:	6c756166 	ldfvse	f6, [r5], #-408	; 0xfffffe68
    c00c:	61682d74 	smcvs	33492	; 0x82d4
    c010:	656c646e 	strbvs	r6, [ip, #-1134]!	; 0x46e
    c014:	61662d72 	smcvs	25298	; 0x62d2
    c018:	632e7473 	teqvs	lr, #1929379840	; 0x73000000
    c01c:	00000000 	andeq	r0, r0, r0
    c020:	74736166 	ldrbtvc	r6, [r3], #-358	; 0x166
    c024:	00000000 	andeq	r0, r0, r0

0000c028 <__FUNCTION__.4220>:
    c028:	66657270 			; <UNDEFINED> instruction: 0x66657270
    c02c:	68637465 	stmdavs	r3!, {r0, r2, r5, r6, sl, ip, sp, lr}^
    c030:	6f62615f 	svcvs	0x0062615f
    c034:	765f7472 			; <UNDEFINED> instruction: 0x765f7472
    c038:	6f746365 	svcvs	0x00746365
    c03c:	00000072 	andeq	r0, r0, r2, ror r0
    c040:	66617473 			; <UNDEFINED> instruction: 0x66617473
    c044:	72732d66 	rsbsvc	r2, r3, #6528	; 0x1980
    c048:	65642f63 	strbvs	r2, [r4, #-3939]!	; 0xf63
    c04c:	6c756166 	ldfvse	f6, [r5], #-408	; 0xfffffe68
    c050:	61682d74 	smcvs	33492	; 0x82d4
    c054:	656c646e 	strbvs	r6, [ip, #-1134]!	; 0x46e
    c058:	72702d72 	rsbsvc	r2, r0, #7296	; 0x1c80
    c05c:	74656665 	strbtvc	r6, [r5], #-1637	; 0x665
    c060:	632e6863 	teqvs	lr, #6488064	; 0x630000
    c064:	00000000 	andeq	r0, r0, r0
    c068:	66657270 			; <UNDEFINED> instruction: 0x66657270
    c06c:	68637465 	stmdavs	r3!, {r0, r2, r5, r6, sl, ip, sp, lr}^
    c070:	6f626120 	svcvs	0x00626120
    c074:	00007472 	andeq	r7, r0, r2, ror r4

0000c078 <__FUNCTION__.4220>:
    c078:	65736572 	ldrbvs	r6, [r3, #-1394]!	; 0x572
    c07c:	65765f74 	ldrbvs	r5, [r6, #-3956]!	; 0xf74
    c080:	726f7463 	rsbvc	r7, pc, #1660944384	; 0x63000000
    c084:	00000000 	andeq	r0, r0, r0
    c088:	66617473 			; <UNDEFINED> instruction: 0x66617473
    c08c:	72732d66 	rsbsvc	r2, r3, #6528	; 0x1980
    c090:	65642f63 	strbvs	r2, [r4, #-3939]!	; 0xf63
    c094:	6c756166 	ldfvse	f6, [r5], #-408	; 0xfffffe68
    c098:	61682d74 	smcvs	33492	; 0x82d4
    c09c:	656c646e 	strbvs	r6, [ip, #-1134]!	; 0x46e
    c0a0:	65722d72 	ldrbvs	r2, [r2, #-3442]!	; 0xd72
    c0a4:	2e746573 	mrccs	5, 3, r6, cr4, cr3, {3}
    c0a8:	00000063 	andeq	r0, r0, r3, rrx
    c0ac:	65736572 	ldrbvs	r6, [r3, #-1394]!	; 0x572
    c0b0:	00000074 	andeq	r0, r0, r4, ror r0

0000c0b4 <__FUNCTION__.4220>:
    c0b4:	65646e75 	strbvs	r6, [r4, #-3701]!	; 0xe75
    c0b8:	656e6966 	strbvs	r6, [lr, #-2406]!	; 0x966
    c0bc:	6e695f64 	cdpvs	15, 6, cr5, cr9, cr4, {3}
    c0c0:	75727473 	ldrbvc	r7, [r2, #-1139]!	; 0x473
    c0c4:	6f697463 	svcvs	0x00697463
    c0c8:	65765f6e 	ldrbvs	r5, [r6, #-3950]!	; 0xf6e
    c0cc:	726f7463 	rsbvc	r7, pc, #1660944384	; 0x63000000
    c0d0:	00000000 	andeq	r0, r0, r0
    c0d4:	66617473 			; <UNDEFINED> instruction: 0x66617473
    c0d8:	72732d66 	rsbsvc	r2, r3, #6528	; 0x1980
    c0dc:	65642f63 	strbvs	r2, [r4, #-3939]!	; 0xf63
    c0e0:	6c756166 	ldfvse	f6, [r5], #-408	; 0xfffffe68
    c0e4:	61682d74 	smcvs	33492	; 0x82d4
    c0e8:	656c646e 	strbvs	r6, [ip, #-1134]!	; 0x46e
    c0ec:	6e752d72 	mrcvs	13, 3, r2, cr5, cr2, {3}
    c0f0:	69666564 	stmdbvs	r6!, {r2, r5, r6, r8, sl, sp, lr}^
    c0f4:	2d64656e 	cfstr64cs	mvdx6, [r4, #-440]!	; 0xfffffe48
    c0f8:	74736e69 	ldrbtvc	r6, [r3], #-3689	; 0xe69
    c0fc:	0000632e 	andeq	r6, r0, lr, lsr #6
    c100:	65646e75 	strbvs	r6, [r4, #-3701]!	; 0xe75
    c104:	656e6966 	strbvs	r6, [lr, #-2406]!	; 0x966
    c108:	6e692064 	cdpvs	0, 6, cr2, cr9, cr4, {3}
    c10c:	00007473 	andeq	r7, r0, r3, ror r4

0000c110 <__FUNCTION__.4237>:
    c110:	6c616d6b 	stclvs	13, cr6, [r1], #-428	; 0xfffffe54
    c114:	5f636f6c 	svcpl	0x00636f6c
    c118:	74696e69 	strbtvc	r6, [r9], #-3689	; 0xe69
    c11c:	7465735f 	strbtvc	r7, [r5], #-863	; 0x35f
    c120:	6174735f 	cmnvs	r4, pc, asr r3
    c124:	00007472 	andeq	r7, r0, r2, ror r4

0000c128 <__FUNCTION__.4241>:
    c128:	6c616d6b 	stclvs	13, cr6, [r1], #-428	; 0xfffffe54
    c12c:	00636f6c 	rsbeq	r6, r3, ip, ror #30

0000c130 <__FUNCTION__.4253>:
    c130:	6c616d6b 	stclvs	13, cr6, [r1], #-428	; 0xfffffe54
    c134:	5f636f6c 	svcpl	0x00636f6c
    c138:	67696c61 	strbvs	r6, [r9, -r1, ror #24]!
    c13c:	0064656e 	rsbeq	r6, r4, lr, ror #10
    c140:	6c616d6b 	stclvs	13, cr6, [r1], #-428	; 0xfffffe54
    c144:	2e636f6c 	cdpcs	15, 6, cr6, cr3, cr12, {3}
    c148:	00000063 	andeq	r0, r0, r3, rrx
    c14c:	494e4150 	stmdbmi	lr, {r4, r6, r8, lr}^
    c150:	73253a43 	teqvc	r5, #274432	; 0x43000
    c154:	3a73253a 	bcc	1cd5644 <__bss_end__+0x1cc8ffc>
    c158:	613a6425 	teqvs	sl, r5, lsr #8
    c15c:	20726464 	rsbscs	r6, r2, r4, ror #8
    c160:	6568203e 	strbvs	r2, [r8, #-62]!	; 0x3e
    c164:	000a7061 	andeq	r7, sl, r1, rrx
    c168:	494e4150 	stmdbmi	lr, {r4, r6, r8, lr}^
    c16c:	73253a43 	teqvc	r5, #274432	; 0x43000
    c170:	3a73253a 	bcc	1cd5660 <__bss_end__+0x1cc9018>
    c174:	733a6425 	teqvc	sl, #620756992	; 0x25000000
    c178:	00000a7a 	andeq	r0, r0, sl, ror sl
    c17c:	4f525245 	svcmi	0x00525245
    c180:	73253a52 	teqvc	r5, #335872	; 0x52000
    c184:	3a73253a 	bcc	1cd5674 <__bss_end__+0x1cc902c>
    c188:	203a6425 	eorscs	r6, sl, r5, lsr #8
    c18c:	534c4146 	movtpl	r4, #49478	; 0xc146
    c190:	283c2845 	ldmdacs	ip!, {r0, r2, r6, fp, sp}
    c194:	6c612828 	stclvs	8, cr2, [r1], #-160	; 0xffffff60
    c198:	6d6e6769 	stclvs	7, cr6, [lr, #-420]!	; 0xfffffe5c
    c19c:	29746e65 	ldmdbcs	r4!, {r0, r2, r5, r6, r9, sl, fp, sp, lr}^
    c1a0:	61282d26 	teqvs	r8, r6, lsr #26
    c1a4:	6e67696c 	cdpvs	9, 6, cr6, cr7, cr12, {3}
    c1a8:	746e656d 	strbtvc	r6, [lr], #-1389	; 0x56d
    c1ac:	3d202929 	stccc	9, cr2, [r0, #-164]!	; 0xffffff5c
    c1b0:	6128203d 	teqvs	r8, sp, lsr r0
    c1b4:	6e67696c 	cdpvs	9, 6, cr6, cr7, cr12, {3}
    c1b8:	746e656d 	strbtvc	r6, [lr], #-1389	; 0x56d
    c1bc:	293e2929 	ldmdbcs	lr!, {r0, r3, r5, r8, fp, sp}
    c1c0:	7361203a 	cmnvc	r1, #58	; 0x3a
    c1c4:	696d7573 	stmdbvs	sp!, {r0, r1, r4, r5, r6, r8, sl, ip, sp, lr}^
    c1c8:	7020676e 	eorvc	r6, r0, lr, ror #14
    c1cc:	7265776f 	rsbvc	r7, r5, #29097984	; 0x1bc0000
    c1d0:	20666f20 	rsbcs	r6, r6, r0, lsr #30
    c1d4:	0a6f7774 	beq	1be9fac <__bss_end__+0x1bdd964>
    c1d8:	00000000 	andeq	r0, r0, r0
    c1dc:	4f525245 	svcmi	0x00525245
    c1e0:	73253a52 	teqvc	r5, #335872	; 0x52000
    c1e4:	3a73253a 	bcc	1cd56d4 <__bss_end__+0x1cc908c>
    c1e8:	203a6425 	eorscs	r6, sl, r5, lsr #8
    c1ec:	534c4146 	movtpl	r4, #49478	; 0xc146
    c1f0:	283c2845 	ldmdacs	ip!, {r0, r2, r6, fp, sp}
    c1f4:	29682828 	stmdbcs	r8!, {r3, r5, fp, sp}^
    c1f8:	28202620 	stmdacs	r0!, {r5, r9, sl, sp}
    c1fc:	70797428 	rsbsvc	r7, r9, r8, lsr #8
    c200:	28666f65 	stmdacs	r6!, {r0, r2, r5, r6, r8, r9, sl, fp, sp, lr}^
    c204:	28292968 	stmdacs	r9!, {r3, r5, r6, r8, fp, sp}
    c208:	67696c61 	strbvs	r6, [r9, -r1, ror #24]!
    c20c:	6e656d6e 	cdpvs	13, 6, cr6, cr5, cr14, {3}
    c210:	2d202974 	stccs	9, cr2, [r0, #-464]!	; 0xfffffe30
    c214:	29293120 	stmdbcs	r9!, {r5, r8, ip, sp}
    c218:	203d3d20 	eorscs	r3, sp, r0, lsr #26
    c21c:	293e2930 	ldmdbcs	lr!, {r4, r5, r8, fp, sp}
    c220:	6d69203a 	stclvs	0, cr2, [r9, #-232]!	; 0xffffff18
    c224:	73736f70 	cmnvc	r3, #112, 30	; 0x1c0
    c228:	656c6269 	strbvs	r6, [ip, #-617]!	; 0x269
    c22c:	0000000a 	andeq	r0, r0, sl

Disassembly of section .bss:

0000c230 <__bss_start__>:
    c230:	00000000 	andeq	r0, r0, r0

0000c234 <last_fault>:
	...

0000c240 <mmu_resume_p>:
    c240:	00000000 	andeq	r0, r0, r0

0000c244 <pt>:
    c244:	00000000 	andeq	r0, r0, r0

0000c248 <buf.4189>:
	...

Disassembly of section .ARM.attributes:

00000000 <.ARM.attributes>:
   0:	00002a41 	andeq	r2, r0, r1, asr #20
   4:	61656100 	cmnvs	r5, r0, lsl #2
   8:	01006962 	tsteq	r0, r2, ror #18
   c:	00000020 	andeq	r0, r0, r0, lsr #32
  10:	4b5a3605 	blmi	168d82c <__bss_end__+0x16811e4>
  14:	08070600 	stmdaeq	r7, {r9, sl}
  18:	12010901 	andne	r0, r1, #16384	; 0x4000
  1c:	15011404 	strne	r1, [r1, #-1028]	; 0x404
  20:	18031701 	stmdane	r3, {r0, r8, r9, sl, ip}
  24:	22011a01 	andcs	r1, r1, #4096	; 0x1000
  28:	Address 0x0000000000000028 is out of bounds.


Disassembly of section .comment:

00000000 <.comment>:
   0:	3a434347 	bcc	10d0d24 <__bss_end__+0x10c46dc>
   4:	4e472820 	cdpmi	8, 4, cr2, cr7, cr0, {1}
   8:	34202955 	strtcc	r2, [r0], #-2389	; 0x955
   c:	332e382e 	teqcc	lr, #3014656	; 0x2e0000
  10:	43434700 	movtmi	r4, #14080	; 0x3700
  14:	3128203a 	teqcc	r8, sl, lsr r0
  18:	2e363a35 	mrccs	10, 1, r3, cr6, cr5, {1}
  1c:	2b312e33 	blcs	c4b8f0 <__bss_end__+0xc3f2a8>
  20:	326e7673 	rsbcc	r7, lr, #120586240	; 0x7300000
  24:	33303335 	teqcc	r0, #-738197504	; 0xd4000000
  28:	62312d39 	eorsvs	r2, r1, #3648	; 0xe40
  2c:	646c6975 	strbtvs	r6, [ip], #-2421	; 0x975
  30:	36202931 			; <UNDEFINED> instruction: 0x36202931
  34:	312e332e 	teqcc	lr, lr, lsr #6
  38:	31303220 	teqcc	r0, r0, lsr #4
  3c:	32363037 	eorscc	r3, r6, #55	; 0x37
  40:	Address 0x0000000000000040 is out of bounds.


Disassembly of section .debug_info:

00000000 <.debug_info>:
       0:	00000238 	andeq	r0, r0, r8, lsr r2
       4:	00000004 	andeq	r0, r0, r4
       8:	01040000 	mrseq	r0, (UNDEF: 4)
       c:	00000040 	andeq	r0, r0, r0, asr #32
      10:	0000b301 	andeq	fp, r0, r1, lsl #6
      14:	00013a00 	andeq	r3, r1, r0, lsl #20
      18:	00802000 	addeq	r2, r0, r0
      1c:	0000a400 	andeq	sl, r0, r0, lsl #8
      20:	00000000 	andeq	r0, r0, r0
      24:	05040200 	streq	r0, [r4, #-512]	; 0x200
      28:	00746e69 	rsbseq	r6, r4, r9, ror #28
      2c:	33070403 	movwcc	r0, #29699	; 0x7403
      30:	03000000 	movweq	r0, #0
      34:	00c90601 	sbceq	r0, r9, r1, lsl #12
      38:	02030000 	andeq	r0, r3, #0
      3c:	00010605 	andeq	r0, r1, r5, lsl #12
      40:	05040300 	streq	r0, [r4, #-768]	; 0x300
      44:	00000005 	andeq	r0, r0, r5
      48:	00050803 	andeq	r0, r5, r3, lsl #16
      4c:	03000000 	movweq	r0, #0
      50:	00c70801 	sbceq	r0, r7, r1, lsl #16
      54:	02030000 	andeq	r0, r3, #0
      58:	00011807 	andeq	r1, r1, r7, lsl #16
      5c:	00f00400 	rscseq	r0, r0, r0, lsl #8
      60:	34050000 	strcc	r0, [r5], #-0
      64:	00000068 	andeq	r0, r0, r8, rrx
      68:	2e070403 	cdpcs	4, 0, cr0, cr7, cr3, {0}
      6c:	03000000 	movweq	r0, #0
      70:	00290708 	eoreq	r0, r9, r8, lsl #14
      74:	04030000 	streq	r0, [r3], #-0
      78:	00019907 	andeq	r9, r1, r7, lsl #18
      7c:	08010300 	stmdaeq	r1, {r8, r9}
      80:	000000d0 	ldrdeq	r0, [r0], -r0	; <UNPREDICTABLE>
      84:	008a0405 	addeq	r0, sl, r5, lsl #8
      88:	7d060000 	stcvc	0, cr0, [r6, #-0]
      8c:	07000000 	streq	r0, [r0, -r0]
      90:	0000007d 	andeq	r0, r0, sp, ror r0
      94:	0000009f 	muleq	r0, pc, r0	; <UNPREDICTABLE>
      98:	00007608 	andeq	r7, r0, r8, lsl #12
      9c:	09000700 	stmdbeq	r0, {r8, r9, sl}
      a0:	00000110 	andeq	r0, r0, r0, lsl r1
      a4:	80200501 	eorhi	r0, r0, r1, lsl #10
      a8:	00a40000 	adceq	r0, r4, r0
      ac:	9c010000 	stcls	0, cr0, [r1], {-0}
      b0:	000001cf 	andeq	r0, r0, pc, asr #3
      b4:	00001c0a 	andeq	r1, r0, sl, lsl #24
      b8:	0001cf00 	andeq	ip, r1, r0, lsl #30
      bc:	5c030500 	cfstr32pl	mvfx0, [r3], {-0}
      c0:	0b0000b0 	bleq	388 <__code_start__-0x7c78>
      c4:	01007073 	tsteq	r0, r3, ror r0
      c8:	0001d40c 	andeq	sp, r1, ip, lsl #8
      cc:	00000000 	andeq	r0, r0, r0
      d0:	802c0c07 	eorhi	r0, ip, r7, lsl #24
      d4:	01da0000 	bicseq	r0, sl, r0
      d8:	300c0000 	andcc	r0, ip, r0
      dc:	e1000080 	smlabb	r0, r0, r0, r0
      e0:	0c000001 	stceq	0, cr0, [r0], {1}
      e4:	00008034 	andeq	r8, r0, r4, lsr r0
      e8:	000001e8 	andeq	r0, r0, r8, ror #3
      ec:	0080400c 	addeq	r4, r0, ip
      f0:	0001f300 	andeq	pc, r1, r0, lsl #6
      f4:	805c0d00 	subshi	r0, ip, r0, lsl #26
      f8:	01fa0000 	mvnseq	r0, r0
      fc:	012d0000 	teqeq	sp, r0
     100:	010e0000 	mrseq	r0, (UNDEF: 14)
     104:	0e380153 	mrceq	1, 1, r0, cr8, cr3, {2}
     108:	03055201 	movweq	r5, #20993	; 0x5201
     10c:	0000b05c 	andeq	fp, r0, ip, asr r0
     110:	0551010e 	ldrbeq	r0, [r1, #-270]	; 0x10e
     114:	00afcc03 	adceq	ip, pc, r3, lsl #24
     118:	50010e00 	andpl	r0, r1, r0, lsl #28
     11c:	afb80305 	svcge	0x00b80305
     120:	020e0000 	andeq	r0, lr, #0
     124:	0305007d 	movweq	r0, #20605	; 0x507d
     128:	0000afe0 	andeq	sl, r0, r0, ror #31
     12c:	80600c00 	rsbhi	r0, r0, r0, lsl #24
     130:	02100000 	andseq	r0, r0, #0
     134:	680d0000 	stmdavs	sp, {}	; <UNPREDICTABLE>
     138:	fa000080 	blx	340 <__code_start__-0x7cc0>
     13c:	4d000001 	stcmi	0, cr0, [r0, #-4]
     140:	0e000001 	cdpeq	0, 0, cr0, cr0, cr1, {0}
     144:	03055001 	movweq	r5, #20481	; 0x5001
     148:	0000aff4 	strdeq	sl, [r0], -r4
     14c:	80780d00 	rsbshi	r0, r8, r0, lsl #26
     150:	01fa0000 	mvnseq	r0, r0
     154:	016b0000 	cmneq	fp, r0
     158:	010e0000 	mrseq	r0, (UNDEF: 14)
     15c:	464c0351 			; <UNDEFINED> instruction: 0x464c0351
     160:	50010e24 	andpl	r0, r1, r4, lsr #28
     164:	affc0305 	svcge	0x00fc0305
     168:	0d000000 	stceq	0, cr0, [r0, #-0]
     16c:	00008084 	andeq	r8, r0, r4, lsl #1
     170:	00000217 	andeq	r0, r0, r7, lsl r2
     174:	00000185 	andeq	r0, r0, r5, lsl #3
     178:	0151010e 	cmpeq	r1, lr, lsl #2
     17c:	50010e31 	andpl	r0, r1, r1, lsr lr
     180:	24464c03 	strbcs	r4, [r6], #-3075	; 0xc03
     184:	80880c00 	addhi	r0, r8, r0, lsl #24
     188:	02340000 	eorseq	r0, r4, #0
     18c:	8c0c0000 	stchi	0, cr0, [ip], {-0}
     190:	f3000080 	vhadd.u8	d0, d16, d0
     194:	0d000001 	stceq	0, cr0, [r0, #-4]
     198:	000080a0 	andeq	r8, r0, r0, lsr #1
     19c:	000001fa 	strdeq	r0, [r0], -sl
     1a0:	000001c5 	andeq	r0, r0, r5, asr #3
     1a4:	0153010e 	cmpeq	r3, lr, lsl #2
     1a8:	52010e43 	andpl	r0, r1, #1072	; 0x430
     1ac:	b05c0305 	subslt	r0, ip, r5, lsl #6
     1b0:	010e0000 	mrseq	r0, (UNDEF: 14)
     1b4:	cc030551 	cfstr32gt	mvfx0, [r3], {81}	; 0x51
     1b8:	0e0000af 	cdpeq	0, 0, cr0, cr0, cr15, {5}
     1bc:	03055001 	movweq	r5, #20481	; 0x5001
     1c0:	0000b034 	andeq	fp, r0, r4, lsr r0
     1c4:	80a40c00 	adchi	r0, r4, r0, lsl #24
     1c8:	02100000 	andseq	r0, r0, #0
     1cc:	06000000 	streq	r0, [r0], -r0
     1d0:	0000008f 	andeq	r0, r0, pc, lsl #1
     1d4:	005d0405 	subseq	r0, sp, r5, lsl #8
     1d8:	0e0f0000 	cdpeq	0, 0, cr0, cr15, cr0, {0}
     1dc:	02000000 	andeq	r0, r0, #0
     1e0:	00e40f09 	rsceq	r0, r4, r9, lsl #30
     1e4:	0c020000 	stceq	0, cr0, [r2], {-0}
     1e8:	00012b10 	andeq	r2, r1, r0, lsl fp
     1ec:	256c0400 	strbcs	r0, [ip, #-1024]!	; 0x400
     1f0:	0f000000 	svceq	0x00000000
     1f4:	000000d5 	ldrdeq	r0, [r0], -r5
     1f8:	69111e03 	ldmdbvs	r1, {r0, r1, r9, sl, fp, ip}
     1fc:	0300000a 	movweq	r0, #10
     200:	00002529 	andeq	r2, r0, r9, lsr #10
     204:	00021000 	andeq	r1, r2, r0
     208:	00841200 	addeq	r1, r4, r0, lsl #4
     20c:	00130000 	andseq	r0, r3, r0
     210:	0000f90f 	andeq	pc, r0, pc, lsl #18
     214:	14650300 	strbtne	r0, [r5], #-768	; 0x300
     218:	000000ad 	andeq	r0, r0, sp, lsr #1
     21c:	022d9c03 	eoreq	r9, sp, #768	; 0x300
     220:	2d120000 	ldccs	0, cr0, [r2, #-0]
     224:	12000002 	andne	r0, r0, #2
     228:	0000002c 	andeq	r0, r0, ip, lsr #32
     22c:	33040500 	movwcc	r0, #17664	; 0x4500
     230:	15000002 	strne	r0, [r0, #-2]
     234:	0001a20f 	andeq	sl, r1, pc, lsl #4
     238:	003b0400 	eorseq	r0, fp, r0, lsl #8
     23c:	0000154e 	andeq	r1, r0, lr, asr #10
     240:	01100004 	tsteq	r0, r4
     244:	01040000 	mrseq	r0, (UNDEF: 4)
     248:	00000040 	andeq	r0, r0, r0, asr #32
     24c:	00021701 	andeq	r1, r2, r1, lsl #14
     250:	00013a00 	andeq	r3, r1, r0, lsl #20
     254:	00820800 	addeq	r0, r2, r0, lsl #16
     258:	0008dc00 	andeq	sp, r8, r0, lsl #24
     25c:	00012000 	andeq	r2, r1, r0
     260:	05040200 	streq	r0, [r4, #-512]	; 0x200
     264:	00746e69 	rsbseq	r6, r4, r9, ror #28
     268:	0001e503 	andeq	lr, r1, r3, lsl #10
     26c:	37d40300 	ldrbcc	r0, [r4, r0, lsl #6]
     270:	04000000 	streq	r0, [r0], #-0
     274:	00330704 	eorseq	r0, r3, r4, lsl #14
     278:	01040000 	mrseq	r0, (UNDEF: 4)
     27c:	0000c906 	andeq	ip, r0, r6, lsl #18
     280:	05020400 	streq	r0, [r2, #-1024]	; 0x400
     284:	00000106 	andeq	r0, r0, r6, lsl #2
     288:	05050404 	streq	r0, [r5, #-1028]	; 0x404
     28c:	04000000 	streq	r0, [r0], #-0
     290:	00000508 	andeq	r0, r0, r8, lsl #10
     294:	01040000 	mrseq	r0, (UNDEF: 4)
     298:	0000c708 	andeq	ip, r0, r8, lsl #14
     29c:	07020400 	streq	r0, [r2, -r0, lsl #8]
     2a0:	00000118 	andeq	r0, r0, r8, lsl r1
     2a4:	0000f003 	andeq	pc, r0, r3
     2a8:	73340400 	teqvc	r4, #0, 8
     2ac:	04000000 	streq	r0, [r0], #-0
     2b0:	002e0704 	eoreq	r0, lr, r4, lsl #14
     2b4:	08040000 	stmdaeq	r4, {}	; <UNPREDICTABLE>
     2b8:	00002907 	andeq	r2, r0, r7, lsl #18
     2bc:	07040400 	streq	r0, [r4, -r0, lsl #8]
     2c0:	00000199 	muleq	r0, r9, r1
     2c4:	01040405 	tsteq	r4, r5, lsl #8
     2c8:	0000d008 	andeq	sp, r0, r8
     2cc:	97040600 	strls	r0, [r4, -r0, lsl #12]
     2d0:	07000000 	streq	r0, [r0, -r0]
     2d4:	0000008a 	andeq	r0, r0, sl, lsl #1
     2d8:	00044a08 	andeq	r4, r4, r8, lsl #20
     2dc:	2a050400 	bcs	1412e4 <__bss_end__+0x134c9c>
     2e0:	00000257 	andeq	r0, r0, r7, asr r2
     2e4:	00041909 	andeq	r1, r4, r9, lsl #18
     2e8:	372c0500 	strcc	r0, [ip, -r0, lsl #10]!
     2ec:	04000000 	streq	r0, [r0], #-0
     2f0:	09001f01 	stmdbeq	r0, {r0, r8, r9, sl, fp, ip}
     2f4:	00000232 	andeq	r0, r0, r2, lsr r2
     2f8:	00372d05 	eorseq	r2, r7, r5, lsl #26
     2fc:	01040000 	mrseq	r0, (UNDEF: 4)
     300:	1c09001e 	stcne	0, cr0, [r9], {30}
     304:	05000005 	streq	r0, [r0, #-5]
     308:	0000372e 	andeq	r3, r0, lr, lsr #14
     30c:	1d010400 	cfstrsne	mvf0, [r1, #-0]
     310:	03d80900 	bicseq	r0, r8, #0, 18
     314:	31050000 	mrscc	r0, (UNDEF: 5)
     318:	00000037 	andeq	r0, r0, r7, lsr r0
     31c:	001c0104 	andseq	r0, ip, r4, lsl #2
     320:	00048709 	andeq	r8, r4, r9, lsl #14
     324:	37320500 	ldrcc	r0, [r2, -r0, lsl #10]!
     328:	04000000 	streq	r0, [r0], #-0
     32c:	09001903 	stmdbeq	r0, {r0, r1, r8, fp, ip}
     330:	0000020e 	andeq	r0, r0, lr, lsl #4
     334:	00373305 	eorseq	r3, r7, r5, lsl #6
     338:	01040000 	mrseq	r0, (UNDEF: 4)
     33c:	e4090018 	str	r0, [r9], #-24
     340:	05000003 	streq	r0, [r0, #-3]
     344:	00003734 	andeq	r3, r0, r4, lsr r7
     348:	17010400 	strne	r0, [r1, -r0, lsl #8]
     34c:	03a40900 			; <UNDEFINED> instruction: 0x03a40900
     350:	35050000 	strcc	r0, [r5, #-0]
     354:	00000037 	andeq	r0, r0, r7, lsr r0
     358:	00160104 	andseq	r0, r6, r4, lsl #2
     35c:	0500460a 	streq	r4, [r0, #-1546]	; 0x60a
     360:	00003736 	andeq	r3, r0, r6, lsr r7
     364:	15010400 	strne	r0, [r1, #-1024]	; 0x400
     368:	01ae0900 			; <UNDEFINED> instruction: 0x01ae0900
     36c:	37050000 	strcc	r0, [r5, -r0]
     370:	00000037 	andeq	r0, r0, r7, lsr r0
     374:	00140104 	andseq	r0, r4, r4, lsl #2
     378:	00022209 	andeq	r2, r2, r9, lsl #4
     37c:	37380500 	ldrcc	r0, [r8, -r0, lsl #10]!
     380:	04000000 	streq	r0, [r0], #-0
     384:	09001301 	stmdbeq	r0, {r0, r8, r9, ip}
     388:	000001fe 	strdeq	r0, [r0], -lr
     38c:	00373905 	eorseq	r3, r7, r5, lsl #18
     390:	01040000 	mrseq	r0, (UNDEF: 4)
     394:	fa090012 	blx	2403e4 <__bss_end__+0x233d9c>
     398:	05000002 	streq	r0, [r0, #-2]
     39c:	0000373a 	andeq	r3, r0, sl, lsr r7
     3a0:	11010400 	tstne	r1, r0, lsl #8
     3a4:	344c0a00 	strbcc	r0, [ip], #-2560	; 0xa00
     3a8:	373b0500 	ldrcc	r0, [fp, -r0, lsl #10]!
     3ac:	04000000 	streq	r0, [r0], #-0
     3b0:	0a001001 	beq	43bc <__code_start__-0x3c44>
     3b4:	0074645f 	rsbseq	r6, r4, pc, asr r4
     3b8:	00373c05 	eorseq	r3, r7, r5, lsl #24
     3bc:	01040000 	mrseq	r0, (UNDEF: 4)
     3c0:	f409000f 	vst4.8	{d0-d3}, [r9]
     3c4:	05000004 	streq	r0, [r0, #-4]
     3c8:	0000373d 	andeq	r3, r0, sp, lsr r7
     3cc:	0e010400 	cfcpyseq	mvf0, mvf1
     3d0:	695f0a00 	ldmdbvs	pc, {r9, fp}^	; <UNPREDICTABLE>
     3d4:	3e050074 	mcrcc	0, 0, r0, cr5, cr4, {3}
     3d8:	00000037 	andeq	r0, r0, r7, lsr r0
     3dc:	000d0104 	andeq	r0, sp, r4, lsl #2
     3e0:	0004fa09 	andeq	pc, r4, r9, lsl #20
     3e4:	373f0500 	ldrcc	r0, [pc, -r0, lsl #10]!
     3e8:	04000000 	streq	r0, [r0], #-0
     3ec:	0a000c01 	beq	33f8 <__code_start__-0x4c08>
     3f0:	0074735f 	rsbseq	r7, r4, pc, asr r3
     3f4:	00374005 	eorseq	r4, r7, r5
     3f8:	01040000 	mrseq	r0, (UNDEF: 4)
     3fc:	460a000b 	strmi	r0, [sl], -fp
     400:	41050031 	tstmi	r5, r1, lsr r0
     404:	00000037 	andeq	r0, r0, r7, lsr r0
     408:	000a0104 	andeq	r0, sl, r4, lsl #2
     40c:	00042509 	andeq	r2, r4, r9, lsl #10
     410:	37420500 	strbcc	r0, [r2, -r0, lsl #10]
     414:	04000000 	streq	r0, [r0], #-0
     418:	09000901 	stmdbeq	r0, {r0, r8, fp}
     41c:	00000431 	andeq	r0, r0, r1, lsr r4
     420:	00374305 	eorseq	r4, r7, r5, lsl #6
     424:	01040000 	mrseq	r0, (UNDEF: 4)
     428:	98090008 	stmdals	r9, {r3}
     42c:	05000003 	streq	r0, [r0, #-3]
     430:	00003745 	andeq	r3, r0, r5, asr #14
     434:	07010400 	streq	r0, [r1, -r0, lsl #8]
     438:	45450a00 	strbmi	r0, [r5, #-2560]	; 0xa00
     43c:	37460500 	strbcc	r0, [r6, -r0, lsl #10]
     440:	04000000 	streq	r0, [r0], #-0
     444:	09000601 	stmdbeq	r0, {r0, r9, sl}
     448:	00000511 	andeq	r0, r0, r1, lsl r5
     44c:	00374705 	eorseq	r4, r7, r5, lsl #14
     450:	01040000 	mrseq	r0, (UNDEF: 4)
     454:	43090005 	movwmi	r0, #36869	; 0x9005
     458:	05000003 	streq	r0, [r0, #-3]
     45c:	00003748 	andeq	r3, r0, r8, asr #14
     460:	04010400 	streq	r0, [r1], #-1024	; 0x400
     464:	04370900 	ldrteq	r0, [r7], #-2304	; 0x900
     468:	49050000 	stmdbmi	r5, {}	; <UNPREDICTABLE>
     46c:	00000037 	andeq	r0, r0, r7, lsr r0
     470:	00030104 	andeq	r0, r3, r4, lsl #2
     474:	0003b609 	andeq	fp, r3, r9, lsl #12
     478:	374a0500 	strbcc	r0, [sl, -r0, lsl #10]
     47c:	04000000 	streq	r0, [r0], #-0
     480:	09000201 	stmdbeq	r0, {r0, r9}
     484:	0000034e 	andeq	r0, r0, lr, asr #6
     488:	00374b05 	eorseq	r4, r7, r5, lsl #22
     48c:	02040000 	andeq	r0, r4, #0
     490:	03000000 	movweq	r0, #0
     494:	00000476 	andeq	r0, r0, r6, ror r4
     498:	009c4c05 	addseq	r4, ip, r5, lsl #24
     49c:	5f080000 	svcpl	0x00080000
     4a0:	04000003 	streq	r0, [r0], #-3
     4a4:	03384606 	teqeq	r8, #6291456	; 0x600000
     4a8:	740a0000 	strvc	r0, [sl], #-0
     4ac:	06006761 	streq	r6, [r0], -r1, ror #14
     4b0:	00003748 	andeq	r3, r0, r8, asr #14
     4b4:	1e020400 	cfcpysne	mvf0, mvf2
     4b8:	00420a00 	subeq	r0, r2, r0, lsl #20
     4bc:	00374906 	eorseq	r4, r7, r6, lsl #18
     4c0:	01040000 	mrseq	r0, (UNDEF: 4)
     4c4:	430a001d 	movwmi	r0, #40989	; 0xa01d
     4c8:	374a0600 	strbcc	r0, [sl, -r0, lsl #12]
     4cc:	04000000 	streq	r0, [r0], #-0
     4d0:	0a001c01 	beq	74dc <__code_start__-0xb24>
     4d4:	06004e58 			; <UNDEFINED> instruction: 0x06004e58
     4d8:	0000374b 	andeq	r3, r0, fp, asr #14
     4dc:	1b010400 	blne	414e4 <__bss_end__+0x34e9c>
     4e0:	04ed0900 	strbteq	r0, [sp], #2304	; 0x900
     4e4:	4e060000 	cdpmi	0, 0, cr0, cr6, cr0, {0}
     4e8:	00000037 	andeq	r0, r0, r7, lsr r0
     4ec:	00170404 	andseq	r0, r7, r4, lsl #8
     4f0:	504d490a 	subpl	r4, sp, sl, lsl #18
     4f4:	374f0600 	strbcc	r0, [pc, -r0, lsl #12]
     4f8:	04000000 	streq	r0, [r0], #-0
     4fc:	0a001601 	beq	5d08 <__code_start__-0x22f8>
     500:	06005041 	streq	r5, [r0], -r1, asr #32
     504:	00003752 	andeq	r3, r0, r2, asr r7
     508:	14020400 	strne	r0, [r2], #-1024	; 0x400
     50c:	45540a00 	ldrbmi	r0, [r4, #-2560]	; 0xa00
     510:	53060058 	movwpl	r0, #24664	; 0x6058
     514:	00000037 	andeq	r0, r0, r7, lsr r0
     518:	00110304 	andseq	r0, r1, r4, lsl #6
     51c:	5850410a 	ldmdapl	r0, {r1, r3, r8, lr}^
     520:	37540600 	ldrbcc	r0, [r4, -r0, lsl #12]
     524:	04000000 	streq	r0, [r0], #-0
     528:	0a001001 	beq	4534 <__code_start__-0x3acc>
     52c:	55060053 	strpl	r0, [r6, #-83]	; 0x53
     530:	00000037 	andeq	r0, r0, r7, lsr r0
     534:	000f0104 	andeq	r0, pc, r4, lsl #2
     538:	00476e0a 	subeq	r6, r7, sl, lsl #28
     53c:	00375606 	eorseq	r5, r7, r6, lsl #12
     540:	01040000 	mrseq	r0, (UNDEF: 4)
     544:	0709000e 	streq	r0, [r9, -lr]
     548:	06000003 	streq	r0, [r0], -r3
     54c:	00003757 	andeq	r3, r0, r7, asr r7
     550:	0d010400 	cfstrseq	mvf0, [r1, #-0]
     554:	04fa0900 	ldrbteq	r0, [sl], #2304	; 0x900
     558:	58060000 	stmdapl	r6, {}	; <UNPREDICTABLE>
     55c:	00000037 	andeq	r0, r0, r7, lsr r0
     560:	000c0104 	andeq	r0, ip, r4, lsl #2
     564:	00027309 	andeq	r7, r2, r9, lsl #6
     568:	37590600 	ldrbcc	r0, [r9, -r0, lsl #12]
     56c:	04000000 	streq	r0, [r0], #-0
     570:	0000000c 	andeq	r0, r0, ip
     574:	0002d103 	andeq	sp, r2, r3, lsl #2
     578:	625a0600 	subsvs	r0, sl, #0, 12
     57c:	0b000002 	bleq	58c <__code_start__-0x7a74>
     580:	5e5e0601 	cdppl	6, 5, cr0, cr14, cr1, {0}
     584:	0c000003 	stceq	0, cr0, [r0], {3}
     588:	00000359 	andeq	r0, r0, r9, asr r3
     58c:	04e00c03 	strbteq	r0, [r0], #3075	; 0xc03
     590:	0c000000 	stceq	0, cr0, [r0], {-0}
     594:	00000258 	andeq	r0, r0, r8, asr r2
     598:	ec0d0002 	stc	0, cr0, [sp], {2}
     59c:	02000001 	andeq	r0, r0, #1
     5a0:	00003778 	andeq	r3, r0, r8, ror r7
     5a4:	03780300 	cmneq	r8, #0, 6
     5a8:	750e0000 	strvc	r0, [lr, #-0]
     5ac:	37780200 	ldrbcc	r0, [r8, -r0, lsl #4]!
     5b0:	00000000 	andeq	r0, r0, r0
     5b4:	00012b0f 	andeq	r2, r1, pc, lsl #22
     5b8:	250b0100 	strcs	r0, [fp, #-256]	; 0x100
     5bc:	08000000 	stmdaeq	r0, {}	; <UNPREDICTABLE>
     5c0:	10000082 	andne	r0, r0, r2, lsl #1
     5c4:	01000000 	mrseq	r0, (UNDEF: 0)
     5c8:	00039b9c 	muleq	r3, ip, fp
     5cc:	82101000 	andshi	r1, r0, #0
     5d0:	14400000 	strbne	r0, [r0], #-0
     5d4:	0f000000 	svceq	0x00000000
     5d8:	00000544 	andeq	r0, r0, r4, asr #10
     5dc:	04920f01 	ldreq	r0, [r2], #3841	; 0xf01
     5e0:	82180000 	andshi	r0, r8, #0
     5e4:	00900000 	addseq	r0, r0, r0
     5e8:	9c010000 	stcls	0, cr0, [r1], {-0}
     5ec:	00000492 	muleq	r0, r2, r4
     5f0:	00747011 	rsbseq	r7, r4, r1, lsl r0
     5f4:	04920f01 	ldreq	r0, [r2], #3841	; 0xf01
     5f8:	00000000 	andeq	r0, r0, r0
     5fc:	76110000 	ldrvc	r0, [r1], -r0
     600:	0f010061 	svceq	0x00010061
     604:	00000037 	andeq	r0, r0, r7, lsr r0
     608:	00000053 	andeq	r0, r0, r3, asr r0
     60c:	00001c12 	andeq	r1, r0, r2, lsl ip
     610:	0004a800 	andeq	sl, r4, r0, lsl #16
     614:	68030500 	stmdavs	r3, {r8, sl}
     618:	130000b0 	movwne	r0, #176	; 0xb0
     61c:	00000444 	andeq	r0, r0, r4, asr #8
     620:	00371101 	eorseq	r1, r7, r1, lsl #2
     624:	008d0000 	addeq	r0, sp, r0
     628:	70140000 	andsvc	r0, r4, r0
     62c:	01006574 	tsteq	r0, r4, ror r5
     630:	00049212 	andeq	r9, r4, r2, lsl r2
     634:	0000bb00 	andeq	fp, r0, r0, lsl #22
     638:	822c1000 	eorhi	r1, ip, #0
     63c:	144b0000 	strbne	r0, [fp], #-0
     640:	48150000 	ldmdami	r5, {}	; <UNPREDICTABLE>
     644:	52000082 	andpl	r0, r0, #130	; 0x82
     648:	3e000014 	mcrcc	0, 0, r0, cr0, cr4, {0}
     64c:	16000004 	strne	r0, [r0], -r4
     650:	40015301 	andmi	r5, r1, r1, lsl #6
     654:	05520116 	ldrbeq	r0, [r2, #-278]	; 0x116
     658:	00b06803 	adcseq	r6, r0, r3, lsl #16
     65c:	51011600 	tstpl	r1, r0, lsl #12
     660:	b1580305 	cmplt	r8, r5, lsl #6
     664:	01160000 	tsteq	r6, r0
     668:	b8030550 	stmdalt	r3, {r4, r6, r8, sl}
     66c:	160000af 	strne	r0, [r0], -pc, lsr #1
     670:	05007d02 	streq	r7, [r0, #-3330]	; 0xd02
     674:	00b16003 	adcseq	r6, r1, r3
     678:	4c100000 	ldcmi	0, cr0, [r0], {-0}
     67c:	68000082 	stmdavs	r0, {r1, r7}
     680:	10000014 	andne	r0, r0, r4, lsl r0
     684:	00008264 	andeq	r8, r0, r4, ror #4
     688:	0000144b 	andeq	r1, r0, fp, asr #8
     68c:	00828015 	addeq	r8, r2, r5, lsl r0
     690:	00145200 	andseq	r5, r4, r0, lsl #4
     694:	00048800 	andeq	r8, r4, r0, lsl #16
     698:	53011600 	movwpl	r1, #5632	; 0x1600
     69c:	01164301 	tsteq	r6, r1, lsl #6
     6a0:	68030552 	stmdavs	r3, {r1, r4, r6, r8, sl}
     6a4:	160000b0 			; <UNDEFINED> instruction: 0x160000b0
     6a8:	03055101 	movweq	r5, #20737	; 0x5101
     6ac:	0000b158 	andeq	fp, r0, r8, asr r1
     6b0:	05500116 	ldrbeq	r0, [r0, #-278]	; 0x116
     6b4:	00b17403 	adcseq	r7, r1, r3, lsl #8
     6b8:	7d021600 	stcvc	6, cr1, [r2, #-0]
     6bc:	a4030500 	strge	r0, [r3], #-1280	; 0x500
     6c0:	000000b1 	strheq	r0, [r0], -r1
     6c4:	00828410 	addeq	r8, r2, r0, lsl r4
     6c8:	00146800 	andseq	r6, r4, r0, lsl #16
     6cc:	04060000 	streq	r0, [r6], #-0
     6d0:	00000338 	andeq	r0, r0, r8, lsr r3
     6d4:	00008a17 	andeq	r8, r0, r7, lsl sl
     6d8:	0004a800 	andeq	sl, r4, r0, lsl #16
     6dc:	00811800 	addeq	r1, r1, r0, lsl #16
     6e0:	00120000 	andseq	r0, r2, r0
     6e4:	00049807 	andeq	r9, r4, r7, lsl #16
     6e8:	03eb1900 	mvneq	r1, #0, 18
     6ec:	18010000 	stmdane	r1, {}	; <UNPREDICTABLE>
     6f0:	000082a8 	andeq	r8, r0, r8, lsr #5
     6f4:	00000098 	muleq	r0, r8, r0
     6f8:	05be9c01 	ldreq	r9, [lr, #3073]!	; 0xc01
     6fc:	70110000 	andsvc	r0, r1, r0
     700:	18010074 	stmdane	r1, {r2, r4, r5, r6}
     704:	00000492 	muleq	r0, r2, r4
     708:	000000ef 	andeq	r0, r0, pc, ror #1
     70c:	00617611 	rsbeq	r7, r1, r1, lsl r6
     710:	00371801 	eorseq	r1, r7, r1, lsl #16
     714:	01310000 	teqeq	r1, r0
     718:	1d1a0000 	ldcne	0, cr0, [sl, #-0]
     71c:	01000002 	tsteq	r0, r2
     720:	00003718 	andeq	r3, r0, r8, lsl r7
     724:	00015200 	andeq	r5, r1, r0, lsl #4
     728:	03fb1a00 	mvnseq	r1, #0, 20
     72c:	18010000 	stmdane	r1, {}	; <UNPREDICTABLE>
     730:	00000037 	andeq	r0, r0, r7, lsr r0
     734:	00000194 	muleq	r0, r4, r1
     738:	00001c12 	andeq	r1, r0, r2, lsl ip
     73c:	0005ce00 	andeq	ip, r5, r0, lsl #28
     740:	7c030500 	cfstr32vc	mvfx0, [r3], {-0}
     744:	1b0000b0 	blne	a0c <__code_start__-0x75f4>
     748:	0000035e 	andeq	r0, r0, lr, asr r3
     74c:	000082b8 			; <UNDEFINED> instruction: 0x000082b8
     750:	00000008 	andeq	r0, r0, r8
     754:	05281901 	streq	r1, [r8, #-2305]!	; 0x901
     758:	6e1c0000 	cdpvs	0, 1, cr0, cr12, cr0, {0}
     75c:	ce000003 	cdpgt	0, 0, cr0, cr0, cr3, {0}
     760:	00000001 	andeq	r0, r0, r1
     764:	0000001d 	andeq	r0, r0, sp, lsl r0
     768:	00056a00 	andeq	r6, r5, r0, lsl #20
     76c:	00691400 	rsbeq	r1, r9, r0, lsl #8
     770:	00251b01 	eoreq	r1, r5, r1, lsl #22
     774:	01ef0000 	mvneq	r0, r0
     778:	181e0000 	ldmdane	lr, {}	; <UNPREDICTABLE>
     77c:	14000000 	strne	r0, [r0], #-0
     780:	00657470 	rsbeq	r7, r5, r0, ror r4
     784:	04921f01 	ldreq	r1, [r2], #3841	; 0xf01
     788:	020d0000 	andeq	r0, sp, #0
     78c:	f81f0000 			; <UNDEFINED> instruction: 0xf81f0000
     790:	9b000082 	blls	9a0 <__code_start__-0x7660>
     794:	16000003 	strne	r0, [r0], -r3
     798:	77025101 	strvc	r5, [r2, -r1, lsl #2]
     79c:	50011600 	andpl	r1, r1, r0, lsl #12
     7a0:	00007802 	andeq	r7, r0, r2, lsl #16
     7a4:	cc100000 	ldcgt	0, cr0, [r0], {-0}
     7a8:	4b000082 	blmi	9b8 <__code_start__-0x7648>
     7ac:	15000014 	strne	r0, [r0, #-20]
     7b0:	000082e8 	andeq	r8, r0, r8, ror #5
     7b4:	00001452 	andeq	r1, r0, r2, asr r4
     7b8:	000005ab 	andeq	r0, r0, fp, lsr #11
     7bc:	01530116 	cmpeq	r3, r6, lsl r1
     7c0:	5201164a 	andpl	r1, r1, #77594624	; 0x4a00000
     7c4:	b07c0305 	rsbslt	r0, ip, r5, lsl #6
     7c8:	01160000 	tsteq	r6, r0
     7cc:	58030551 	stmdapl	r3, {r0, r4, r6, r8, sl}
     7d0:	160000b1 			; <UNDEFINED> instruction: 0x160000b1
     7d4:	03055001 	movweq	r5, #20481	; 0x5001
     7d8:	0000b1b0 			; <UNDEFINED> instruction: 0x0000b1b0
     7dc:	007d0216 	rsbseq	r0, sp, r6, lsl r2
     7e0:	b1e40305 	mvnlt	r0, r5, lsl #6
     7e4:	10000000 	andne	r0, r0, r0
     7e8:	000082ec 	andeq	r8, r0, ip, ror #5
     7ec:	00001468 	andeq	r1, r0, r8, ror #8
     7f0:	00832810 	addeq	r2, r3, r0, lsl r8
     7f4:	00146f00 	andseq	r6, r4, r0, lsl #30
     7f8:	8a170000 	bhi	5c0800 <__bss_end__+0x5b41b8>
     7fc:	ce000000 	cdpgt	0, 0, cr0, cr0, cr0, {0}
     800:	18000005 	stmdane	r0, {r0, r2}
     804:	00000081 	andeq	r0, r0, r1, lsl #1
     808:	be070014 	mcrlt	0, 0, r0, cr7, cr4, {0}
     80c:	20000005 	andcs	r0, r0, r5
     810:	000001cf 	andeq	r0, r0, pc, asr #3
     814:	83402601 	movthi	r2, #1537	; 0x601
     818:	00100000 	andseq	r0, r0, r0
     81c:	9c010000 	stcls	0, cr0, [r1], {-0}
     820:	00000638 	andeq	r0, r0, r8, lsr r6
     824:	00747011 	rsbseq	r7, r4, r1, lsl r0
     828:	04922601 	ldreq	r2, [r2], #1537	; 0x601
     82c:	02200000 	eoreq	r0, r0, #0
     830:	76110000 	ldrvc	r0, [r1], -r0
     834:	26010061 	strcs	r0, [r1], -r1, rrx
     838:	00000037 	andeq	r0, r0, r7, lsr r0
     83c:	00000241 	andeq	r0, r0, r1, asr #4
     840:	00021d1a 	andeq	r1, r2, sl, lsl sp
     844:	37260100 	strcc	r0, [r6, -r0, lsl #2]!
     848:	62000000 	andvs	r0, r0, #0
     84c:	1f000002 	svcne	0x00000002
     850:	0000834c 	andeq	r8, r0, ip, asr #6
     854:	000004ad 	andeq	r0, r0, sp, lsr #9
     858:	01530116 	cmpeq	r3, r6, lsl r1
     85c:	52011632 	andpl	r1, r1, #52428800	; 0x3200000
     860:	5201f303 	andpl	pc, r1, #201326592	; 0xc000000
     864:	03510116 	cmpeq	r1, #-2147483643	; 0x80000005
     868:	165101f3 			; <UNDEFINED> instruction: 0x165101f3
     86c:	f3035001 	vhadd.u8	d5, d3, d1
     870:	00005001 	andeq	r5, r0, r1
     874:	00031f20 	andeq	r1, r3, r0, lsr #30
     878:	50290100 	eorpl	r0, r9, r0, lsl #2
     87c:	10000083 	andne	r0, r0, r3, lsl #1
     880:	01000000 	mrseq	r0, (UNDEF: 0)
     884:	00069d9c 	muleq	r6, ip, sp
     888:	74701100 	ldrbtvc	r1, [r0], #-256	; 0x100
     88c:	92290100 	eorls	r0, r9, #0, 2
     890:	83000004 	movwhi	r0, #4
     894:	11000002 	tstne	r0, r2
     898:	01006176 	tsteq	r0, r6, ror r1
     89c:	00003729 	andeq	r3, r0, r9, lsr #14
     8a0:	0002a400 	andeq	sl, r2, r0, lsl #8
     8a4:	021d1a00 	andseq	r1, sp, #0, 20
     8a8:	29010000 	stmdbcs	r1, {}	; <UNPREDICTABLE>
     8ac:	00000037 	andeq	r0, r0, r7, lsr r0
     8b0:	000002c5 	andeq	r0, r0, r5, asr #5
     8b4:	00835c1f 	addeq	r5, r3, pc, lsl ip
     8b8:	0004ad00 	andeq	sl, r4, r0, lsl #26
     8bc:	53011600 	movwpl	r1, #5632	; 0x1600
     8c0:	01163301 	tsteq	r6, r1, lsl #6
     8c4:	01f30352 	mvnseq	r0, r2, asr r3
     8c8:	51011652 	tstpl	r1, r2, asr r6
     8cc:	5101f303 	tstpl	r1, r3, lsl #6
     8d0:	03500116 	cmpeq	r0, #-2147483643	; 0x80000005
     8d4:	005001f3 	ldrsheq	r0, [r0], #-19	; 0xffffffed
     8d8:	055d2000 	ldrbeq	r2, [sp, #-0]
     8dc:	2c010000 	stccs	0, cr0, [r1], {-0}
     8e0:	00008360 	andeq	r8, r0, r0, ror #6
     8e4:	00000010 	andeq	r0, r0, r0, lsl r0
     8e8:	07029c01 	streq	r9, [r2, -r1, lsl #24]
     8ec:	70110000 	andsvc	r0, r1, r0
     8f0:	2c010074 	stccs	0, cr0, [r1], {116}	; 0x74
     8f4:	00000492 	muleq	r0, r2, r4
     8f8:	000002e6 	andeq	r0, r0, r6, ror #5
     8fc:	00617611 	rsbeq	r7, r1, r1, lsl r6
     900:	00372c01 	eorseq	r2, r7, r1, lsl #24
     904:	03070000 	movweq	r0, #28672	; 0x7000
     908:	1d1a0000 	ldcne	0, cr0, [sl, #-0]
     90c:	01000002 	tsteq	r0, r2
     910:	0000372c 	andeq	r3, r0, ip, lsr #14
     914:	00032800 	andeq	r2, r3, r0, lsl #16
     918:	836c1f00 	cmnhi	ip, #0, 30
     91c:	04ad0000 	strteq	r0, [sp], #0
     920:	01160000 	tsteq	r6, r0
     924:	16300153 			; <UNDEFINED> instruction: 0x16300153
     928:	f3035201 	vhsub.u8	d5, d3, d1
     92c:	01165201 	tsteq	r6, r1, lsl #4
     930:	01f30351 	mvnseq	r0, r1, asr r3
     934:	50011651 	andpl	r1, r1, r1, asr r6
     938:	5001f303 	andpl	pc, r1, r3, lsl #6
     93c:	b9190000 	ldmdblt	r9, {}	; <UNPREDICTABLE>
     940:	01000004 	tsteq	r0, r4
     944:	00837031 	addeq	r7, r3, r1, lsr r0
     948:	00009800 	andeq	r9, r0, r0, lsl #16
     94c:	d99c0100 	ldmible	ip, {r8}
     950:	11000007 	tstne	r0, r7
     954:	31010066 	tstcc	r1, r6, rrx
     958:	00000492 	muleq	r0, r2, r4
     95c:	00000349 	andeq	r0, r0, r9, asr #6
     960:	00027c1a 	andeq	r7, r2, sl, lsl ip
     964:	37310100 	ldrcc	r0, [r1, -r0, lsl #2]!
     968:	8e000000 	cdphi	0, 0, cr0, cr0, cr0, {0}
     96c:	12000003 	andne	r0, r0, #3
     970:	0000001c 	andeq	r0, r0, ip, lsl r0
     974:	000007e9 	andeq	r0, r0, r9, ror #15
     978:	b0a40305 	adclt	r0, r4, r5, lsl #6
     97c:	84100000 	ldrhi	r0, [r0], #-0
     980:	4b000083 	blmi	b94 <__code_start__-0x746c>
     984:	15000014 	strne	r0, [r0, #-20]
     988:	000083a0 	andeq	r8, r0, r0, lsr #7
     98c:	00001452 	andeq	r1, r0, r2, asr r4
     990:	00000784 	andeq	r0, r0, r4, lsl #15
     994:	02530116 	subseq	r0, r3, #-2147483643	; 0x80000005
     998:	01163208 	tsteq	r6, r8, lsl #4
     99c:	a4030552 	strge	r0, [r3], #-1362	; 0x552
     9a0:	160000b0 			; <UNDEFINED> instruction: 0x160000b0
     9a4:	03055101 	movweq	r5, #20737	; 0x5101
     9a8:	0000b158 	andeq	fp, r0, r8, asr r1
     9ac:	05500116 	ldrbeq	r0, [r0, #-278]	; 0x116
     9b0:	00b1f403 	adcseq	pc, r1, r3, lsl #8
     9b4:	7d021600 	stcvc	6, cr1, [r2, #-0]
     9b8:	28030500 	stmdacs	r3, {r8, sl}
     9bc:	000000b2 	strheq	r0, [r0], -r2
     9c0:	0083a410 	addeq	sl, r3, r0, lsl r4
     9c4:	00146800 	andseq	r6, r4, r0, lsl #16
     9c8:	83c81000 	bichi	r1, r8, #0
     9cc:	144b0000 	strbne	r0, [fp], #-0
     9d0:	e4150000 	ldr	r0, [r5], #-0
     9d4:	52000083 	andpl	r0, r0, #131	; 0x83
     9d8:	cf000014 	svcgt	0x00000014
     9dc:	16000007 	strne	r0, [r0], -r7
     9e0:	08025301 	stmdaeq	r2, {r0, r8, r9, ip, lr}
     9e4:	52011637 	andpl	r1, r1, #57671680	; 0x3700000
     9e8:	b0a40305 	adclt	r0, r4, r5, lsl #6
     9ec:	01160000 	tsteq	r6, r0
     9f0:	58030551 	stmdapl	r3, {r0, r4, r6, r8, sl}
     9f4:	160000b1 			; <UNDEFINED> instruction: 0x160000b1
     9f8:	03055001 	movweq	r5, #20481	; 0x5001
     9fc:	0000afb8 			; <UNDEFINED> instruction: 0x0000afb8
     a00:	007d0216 	rsbseq	r0, sp, r6, lsl r2
     a04:	b2540305 	subslt	r0, r4, #335544320	; 0x14000000
     a08:	10000000 	andne	r0, r0, r0
     a0c:	000083e8 	andeq	r8, r0, r8, ror #7
     a10:	00001468 	andeq	r1, r0, r8, ror #8
     a14:	008a1700 	addeq	r1, sl, r0, lsl #14
     a18:	07e90000 	strbeq	r0, [r9, r0]!
     a1c:	81180000 	tsthi	r8, r0
     a20:	11000000 	mrsne	r0, (UNDEF: 0)
     a24:	07d90700 	ldrbeq	r0, [r9, r0, lsl #14]
     a28:	760f0000 	strvc	r0, [pc], -r0
     a2c:	01000003 	tsteq	r0, r3
     a30:	00049241 	andeq	r9, r4, r1, asr #4
     a34:	00840800 	addeq	r0, r4, r0, lsl #16
     a38:	00019400 	andeq	r9, r1, r0, lsl #8
     a3c:	0c9c0100 	ldfeqs	f0, [ip], {0}
     a40:	1100000a 	tstne	r0, sl
     a44:	01007470 	tsteq	r0, r0, ror r4
     a48:	00049241 	andeq	r9, r4, r1, asr #4
     a4c:	0003d300 	andeq	sp, r3, r0, lsl #6
     a50:	61761100 	cmnvs	r6, r0, lsl #2
     a54:	68410100 	stmdavs	r1, {r8}^
     a58:	57000000 	strpl	r0, [r0, -r0]
     a5c:	11000004 	tstne	r0, r4
     a60:	01006170 	tsteq	r0, r0, ror r1
     a64:	00006841 	andeq	r6, r0, r1, asr #16
     a68:	0004dc00 	andeq	sp, r4, r0, lsl #24
     a6c:	6f641100 	svcvs	0x00641100
     a70:	4101006d 	tstmi	r1, sp, rrx
     a74:	00000068 	andeq	r0, r0, r8, rrx
     a78:	00000560 	andeq	r0, r0, r0, ror #10
     a7c:	00001c12 	andeq	r1, r0, r2, lsl ip
     a80:	000a1c00 	andeq	r1, sl, r0, lsl #24
     a84:	94030500 	strls	r0, [r3], #-1280	; 0x500
     a88:	130000b0 	movwne	r0, #176	; 0xb0
     a8c:	00000444 	andeq	r0, r0, r4, asr #8
     a90:	00374601 	eorseq	r4, r7, r1, lsl #12
     a94:	05ce0000 	strbeq	r0, [lr]
     a98:	70140000 	andsvc	r0, r4, r0
     a9c:	01006574 	tsteq	r0, r4, ror r5
     aa0:	00049247 	andeq	r9, r4, r7, asr #4
     aa4:	0005f100 	andeq	pc, r5, r0, lsl #2
     aa8:	84281000 	strthi	r1, [r8], #-0
     aac:	144b0000 	strbne	r0, [fp], #-0
     ab0:	44150000 	ldrmi	r0, [r5], #-0
     ab4:	52000084 	andpl	r0, r0, #132	; 0x84
     ab8:	af000014 	svcge	0x00000014
     abc:	16000008 	strne	r0, [r0], -r8
     ac0:	08025301 	stmdaeq	r2, {r0, r8, r9, ip, lr}
     ac4:	52011642 	andpl	r1, r1, #69206016	; 0x4200000
     ac8:	b0940305 	addslt	r0, r4, r5, lsl #6
     acc:	01160000 	tsteq	r6, r0
     ad0:	58030551 	stmdapl	r3, {r0, r4, r6, r8, sl}
     ad4:	160000b1 			; <UNDEFINED> instruction: 0x160000b1
     ad8:	03055001 	movweq	r5, #20481	; 0x5001
     adc:	0000afb8 			; <UNDEFINED> instruction: 0x0000afb8
     ae0:	007d0216 	rsbseq	r0, sp, r6, lsl r2
     ae4:	b2780305 	rsbslt	r0, r8, #335544320	; 0x14000000
     ae8:	10000000 	andne	r0, r0, r0
     aec:	00008448 	andeq	r8, r0, r8, asr #8
     af0:	00001468 	andeq	r1, r0, r8, ror #8
     af4:	00845410 	addeq	r5, r4, r0, lsl r4
     af8:	00144b00 	andseq	r4, r4, r0, lsl #22
     afc:	84701500 	ldrbthi	r1, [r0], #-1280	; 0x500
     b00:	14520000 	ldrbne	r0, [r2], #-0
     b04:	08fa0000 	ldmeq	sl!, {}^	; <UNPREDICTABLE>
     b08:	01160000 	tsteq	r6, r0
     b0c:	43080253 	movwmi	r0, #33363	; 0x8253
     b10:	05520116 	ldrbeq	r0, [r2, #-278]	; 0x116
     b14:	00b09403 	adcseq	r9, r0, r3, lsl #8
     b18:	51011600 	tstpl	r1, r0, lsl #12
     b1c:	b1580305 	cmplt	r8, r5, lsl #6
     b20:	01160000 	tsteq	r6, r0
     b24:	b8030550 	stmdalt	r3, {r4, r6, r8, sl}
     b28:	160000af 	strne	r0, [r0], -pc, lsr #1
     b2c:	05007d02 	streq	r7, [r0, #-3330]	; 0xd02
     b30:	00b16003 	adcseq	r6, r1, r3
     b34:	74100000 	ldrvc	r0, [r0], #-0
     b38:	68000084 	stmdavs	r0, {r2, r7}
     b3c:	10000014 	andne	r0, r0, r4, lsl r0
     b40:	00008480 	andeq	r8, r0, r0, lsl #9
     b44:	0000144b 	andeq	r1, r0, fp, asr #8
     b48:	00849c15 	addeq	r9, r4, r5, lsl ip
     b4c:	00145200 	andseq	r5, r4, r0, lsl #4
     b50:	00094500 	andeq	r4, r9, r0, lsl #10
     b54:	53011600 	movwpl	r1, #5632	; 0x1600
     b58:	16440802 	strbne	r0, [r4], -r2, lsl #16
     b5c:	03055201 	movweq	r5, #20993	; 0x5201
     b60:	0000b094 	muleq	r0, r4, r0
     b64:	05510116 	ldrbeq	r0, [r1, #-278]	; 0x116
     b68:	00b15803 	adcseq	r5, r1, r3, lsl #16
     b6c:	50011600 	andpl	r1, r1, r0, lsl #12
     b70:	afb80305 	svcge	0x00b80305
     b74:	02160000 	andseq	r0, r6, #0
     b78:	0305007d 	movweq	r0, #20605	; 0x507d
     b7c:	0000b284 	andeq	fp, r0, r4, lsl #5
     b80:	84a01000 	strthi	r1, [r0], #0
     b84:	14680000 	strbtne	r0, [r8], #-0
     b88:	bc100000 	ldclt	0, cr0, [r0], {-0}
     b8c:	4b000084 	blmi	da4 <__code_start__-0x725c>
     b90:	15000014 	strne	r0, [r0, #-20]
     b94:	000084d8 	ldrdeq	r8, [r0], -r8	; <UNPREDICTABLE>
     b98:	00001452 	andeq	r1, r0, r2, asr r4
     b9c:	00000990 	muleq	r0, r0, r9
     ba0:	02530116 	subseq	r0, r3, #-2147483643	; 0x80000005
     ba4:	01164808 	tsteq	r6, r8, lsl #16
     ba8:	94030552 	strls	r0, [r3], #-1362	; 0x552
     bac:	160000b0 			; <UNDEFINED> instruction: 0x160000b0
     bb0:	03055101 	movweq	r5, #20737	; 0x5101
     bb4:	0000b158 	andeq	fp, r0, r8, asr r1
     bb8:	05500116 	ldrbeq	r0, [r0, #-278]	; 0x116
     bbc:	00b29803 	adcseq	r9, r2, r3, lsl #16
     bc0:	7d021600 	stcvc	6, cr1, [r2, #-0]
     bc4:	c4030500 	strgt	r0, [r3], #-1280	; 0x500
     bc8:	000000b2 	strheq	r0, [r0], -r2
     bcc:	0084dc10 	addeq	sp, r4, r0, lsl ip
     bd0:	00146800 	andseq	r6, r4, r0, lsl #16
     bd4:	84e01000 	strbthi	r1, [r0], #0
     bd8:	14760000 	ldrbtne	r0, [r6], #-0
     bdc:	2c150000 	ldccs	0, cr0, [r5], {-0}
     be0:	02000085 	andeq	r0, r0, #133	; 0x85
     be4:	bc000007 	stclt	0, cr0, [r0], {7}
     be8:	16000009 	strne	r0, [r0], -r9
     bec:	79025101 	stmdbvc	r2, {r0, r8, ip, lr}
     bf0:	50011600 	andpl	r1, r1, r0, lsl #12
     bf4:	00007502 	andeq	r7, r0, r2, lsl #10
     bf8:	00854415 	addeq	r4, r5, r5, lsl r4
     bfc:	00148100 	andseq	r8, r4, r0, lsl #2
     c00:	0009d000 	andeq	sp, r9, r0
     c04:	50011600 	andpl	r1, r1, r0, lsl #12
     c08:	00007502 	andeq	r7, r0, r2, lsl #10
     c0c:	00855415 	addeq	r5, r5, r5, lsl r4
     c10:	00145200 	andseq	r5, r4, r0, lsl #4
     c14:	0009ed00 	andeq	lr, r9, r0, lsl #26
     c18:	51011600 	tstpl	r1, r0, lsl #12
     c1c:	16007402 	strne	r7, [r0], -r2, lsl #8
     c20:	03055001 	movweq	r5, #20481	; 0x5001
     c24:	0000b2d0 	ldrdeq	fp, [r0], -r0
     c28:	85641f00 	strbhi	r1, [r4, #-3840]!	; 0xf00
     c2c:	14920000 	ldrne	r0, [r2], #0
     c30:	01160000 	tsteq	r6, r0
     c34:	16340152 			; <UNDEFINED> instruction: 0x16340152
     c38:	75025101 	strvc	r5, [r2, #-257]	; 0x101
     c3c:	50011600 	andpl	r1, r1, r0, lsl #12
     c40:	b2e40305 	rsclt	r0, r4, #335544320	; 0x14000000
     c44:	00000000 	andeq	r0, r0, r0
     c48:	00008a17 	andeq	r8, r0, r7, lsl sl
     c4c:	000a1c00 	andeq	r1, sl, r0, lsl #24
     c50:	00811800 	addeq	r1, r1, r0, lsl #16
     c54:	000f0000 	andeq	r0, pc, r0
     c58:	000a0c07 	andeq	r0, sl, r7, lsl #24
     c5c:	05002000 	streq	r2, [r0, #-0]
     c60:	5f010000 	svcpl	0x00010000
     c64:	0000859c 	muleq	r0, ip, r5
     c68:	000000f0 	strdeq	r0, [r0], -r0	; <UNPREDICTABLE>
     c6c:	0ba79c01 	bleq	fe9e7c78 <__bss_end__+0xfe9db630>
     c70:	70110000 	andsvc	r0, r1, r0
     c74:	5f010074 	svcpl	0x00010074
     c78:	00000492 	muleq	r0, r2, r4
     c7c:	0000060f 	andeq	r0, r0, pc, lsl #12
     c80:	00617611 	rsbeq	r7, r1, r1, lsl r6
     c84:	00375f01 	eorseq	r5, r7, r1, lsl #30
     c88:	067d0000 	ldrbteq	r0, [sp], -r0
     c8c:	70110000 	andsvc	r0, r1, r0
     c90:	5f010061 	svcpl	0x00010061
     c94:	00000037 	andeq	r0, r0, r7, lsr r0
     c98:	000006dd 	ldrdeq	r0, [r0], -sp
     c9c:	00021d1a 	andeq	r1, r2, sl, lsl sp
     ca0:	375f0100 	ldrbcc	r0, [pc, -r0, lsl #2]
     ca4:	3d000000 	stccc	0, cr0, [r0, #-0]
     ca8:	21000007 	tstcs	r0, r7
     cac:	006d6f64 	rsbeq	r6, sp, r4, ror #30
     cb0:	00685f01 	rsbeq	r5, r8, r1, lsl #30
     cb4:	91020000 	mrsls	r0, (UNDEF: 2)
     cb8:	001c1200 	andseq	r1, ip, r0, lsl #4
     cbc:	0bb70000 	bleq	fedc0cc4 <__bss_end__+0xfedb467c>
     cc0:	03050000 	movweq	r0, #20480	; 0x5000
     cc4:	0000b0b8 	strheq	fp, [r0], -r8
     cc8:	0000301d 	andeq	r3, r0, sp, lsl r0
     ccc:	000ac500 	andeq	ip, sl, r0, lsl #10
     cd0:	00691400 	rsbeq	r1, r9, r0, lsl #8
     cd4:	00376301 	eorseq	r6, r7, r1, lsl #6
     cd8:	07ab0000 	streq	r0, [fp, r0]!
     cdc:	501f0000 	andspl	r0, pc, r0
     ce0:	ee000086 	cdp	0, 0, cr0, cr0, cr6, {4}
     ce4:	16000007 	strne	r0, [r0], -r7
     ce8:	78025301 	stmdavc	r2, {r0, r8, r9, ip, lr}
     cec:	52011600 	andpl	r1, r1, #0, 12
     cf0:	16007602 	strne	r7, [r0], -r2, lsl #12
     cf4:	75025101 	strvc	r5, [r2, #-257]	; 0x101
     cf8:	50011600 	andpl	r1, r1, r0, lsl #12
     cfc:	00007902 	andeq	r7, r0, r2, lsl #18
     d00:	85c41000 	strbhi	r1, [r4]
     d04:	144b0000 	strbne	r0, [fp], #-0
     d08:	e0150000 	ands	r0, r5, r0
     d0c:	52000085 	andpl	r0, r0, #133	; 0x85
     d10:	07000014 	smladeq	r0, r4, r0, r0
     d14:	1600000b 	strne	r0, [r0], -fp
     d18:	08025301 	stmdaeq	r2, {r0, r8, r9, ip, lr}
     d1c:	52011660 	andpl	r1, r1, #96, 12	; 0x6000000
     d20:	b0b80305 	adcslt	r0, r8, r5, lsl #6
     d24:	01160000 	tsteq	r6, r0
     d28:	58030551 	stmdapl	r3, {r0, r4, r6, r8, sl}
     d2c:	160000b1 			; <UNDEFINED> instruction: 0x160000b1
     d30:	03055001 	movweq	r5, #20481	; 0x5001
     d34:	0000afb8 			; <UNDEFINED> instruction: 0x0000afb8
     d38:	007d0216 	rsbseq	r0, sp, r6, lsl r2
     d3c:	b2780305 	rsbslt	r0, r8, #335544320	; 0x14000000
     d40:	10000000 	andne	r0, r0, r0
     d44:	000085e4 	andeq	r8, r0, r4, ror #11
     d48:	00001468 	andeq	r1, r0, r8, ror #8
     d4c:	0085f010 	addeq	pc, r5, r0, lsl r0	; <UNPREDICTABLE>
     d50:	00144b00 	andseq	r4, r4, r0, lsl #22
     d54:	860c1500 	strhi	r1, [ip], -r0, lsl #10
     d58:	14520000 	ldrbne	r0, [r2], #-0
     d5c:	0b520000 	bleq	1480d64 <__bss_end__+0x147471c>
     d60:	01160000 	tsteq	r6, r0
     d64:	61080253 	tstvs	r8, r3, asr r2
     d68:	05520116 	ldrbeq	r0, [r2, #-278]	; 0x116
     d6c:	00b0b803 	adcseq	fp, r0, r3, lsl #16
     d70:	51011600 	tstpl	r1, r0, lsl #12
     d74:	b1580305 	cmplt	r8, r5, lsl #6
     d78:	01160000 	tsteq	r6, r0
     d7c:	b8030550 	stmdalt	r3, {r4, r6, r8, sl}
     d80:	160000af 	strne	r0, [r0], -pc, lsr #1
     d84:	05007d02 	streq	r7, [r0, #-3330]	; 0xd02
     d88:	00b16003 	adcseq	r6, r1, r3
     d8c:	10100000 	andsne	r0, r0, r0
     d90:	68000086 	stmdavs	r0, {r1, r2, r7}
     d94:	10000014 	andne	r0, r0, r4, lsl r0
     d98:	0000861c 	andeq	r8, r0, ip, lsl r6
     d9c:	0000144b 	andeq	r1, r0, fp, asr #8
     da0:	00863815 	addeq	r3, r6, r5, lsl r8
     da4:	00145200 	andseq	r5, r4, r0, lsl #4
     da8:	000b9d00 	andeq	r9, fp, r0, lsl #26
     dac:	53011600 	movwpl	r1, #5632	; 0x1600
     db0:	16620802 	strbtne	r0, [r2], -r2, lsl #16
     db4:	03055201 	movweq	r5, #20993	; 0x5201
     db8:	0000b0b8 	strheq	fp, [r0], -r8
     dbc:	05510116 	ldrbeq	r0, [r1, #-278]	; 0x116
     dc0:	00b15803 	adcseq	r5, r1, r3, lsl #16
     dc4:	50011600 	andpl	r1, r1, r0, lsl #12
     dc8:	afb80305 	svcge	0x00b80305
     dcc:	02160000 	andseq	r0, r6, #0
     dd0:	0305007d 	movweq	r0, #20605	; 0x507d
     dd4:	0000b284 	andeq	fp, r0, r4, lsl #5
     dd8:	863c1000 	ldrthi	r1, [ip], -r0
     ddc:	14680000 	strbtne	r0, [r8], #-0
     de0:	17000000 	strne	r0, [r0, -r0]
     de4:	0000008a 	andeq	r0, r0, sl, lsl #1
     de8:	00000bb7 			; <UNDEFINED> instruction: 0x00000bb7
     dec:	00008118 	andeq	r8, r0, r8, lsl r1
     df0:	07001000 	streq	r1, [r0, -r0]
     df4:	00000ba7 	andeq	r0, r0, r7, lsr #23
     df8:	0004090f 	andeq	r0, r4, pc, lsl #18
     dfc:	926a0100 	rsbls	r0, sl, #0, 2
     e00:	8c000004 	stchi	0, cr0, [r0], {4}
     e04:	94000086 	strls	r0, [r0], #-134	; 0x86
     e08:	01000000 	mrseq	r0, (UNDEF: 0)
     e0c:	000cc89c 	muleq	ip, ip, r8
     e10:	027c1a00 	rsbseq	r1, ip, #0, 20
     e14:	6a010000 	bvs	40e1c <__bss_end__+0x347d4>
     e18:	00000088 	andeq	r0, r0, r8, lsl #1
     e1c:	000007c9 	andeq	r0, r0, r9, asr #15
     e20:	0003af1a 	andeq	sl, r3, sl, lsl pc
     e24:	376a0100 	strbcc	r0, [sl, -r0, lsl #2]!
     e28:	1e000000 	cdpne	0, 0, cr0, cr0, cr0, {0}
     e2c:	12000008 	andne	r0, r0, #8
     e30:	0000001c 	andeq	r0, r0, ip, lsl r0
     e34:	00000cc8 	andeq	r0, r0, r8, asr #25
     e38:	b0cc0305 	sbclt	r0, ip, r5, lsl #6
     e3c:	70140000 	andsvc	r0, r4, r0
     e40:	6c010074 	stcvs	0, cr0, [r1], {116}	; 0x74
     e44:	00000492 	muleq	r0, r2, r4
     e48:	00000871 	andeq	r0, r0, r1, ror r8
     e4c:	01006e22 	tsteq	r0, r2, lsr #28
     e50:	0000376e 	andeq	r3, r0, lr, ror #14
     e54:	10400000 	subne	r0, r0, r0
     e58:	000086a4 	andeq	r8, r0, r4, lsr #13
     e5c:	0000144b 	andeq	r1, r0, fp, asr #8
     e60:	0086c015 	addeq	ip, r6, r5, lsl r0
     e64:	00145200 	andseq	r5, r4, r0, lsl #4
     e68:	000c5d00 	andeq	r5, ip, r0, lsl #26
     e6c:	53011600 	movwpl	r1, #5632	; 0x1600
     e70:	166b0802 	strbtne	r0, [fp], -r2, lsl #16
     e74:	03055201 	movweq	r5, #20993	; 0x5201
     e78:	0000b0cc 	andeq	fp, r0, ip, asr #1
     e7c:	05510116 	ldrbeq	r0, [r1, #-278]	; 0x116
     e80:	00b15803 	adcseq	r5, r1, r3, lsl #16
     e84:	50011600 	andpl	r1, r1, r0, lsl #12
     e88:	b2f00305 	rscslt	r0, r0, #335544320	; 0x14000000
     e8c:	02160000 	andseq	r0, r6, #0
     e90:	0305007d 	movweq	r0, #20605	; 0x507d
     e94:	0000b328 	andeq	fp, r0, r8, lsr #6
     e98:	86c41000 	strbhi	r1, [r4], r0
     e9c:	14680000 	strbtne	r0, [r8], #-0
     ea0:	d0100000 	andsle	r0, r0, r0
     ea4:	4b000086 	blmi	10c4 <__code_start__-0x6f3c>
     ea8:	15000014 	strne	r0, [r0, #-20]
     eac:	000086ec 	andeq	r8, r0, ip, ror #13
     eb0:	00001452 	andeq	r1, r0, r2, asr r4
     eb4:	00000ca8 	andeq	r0, r0, r8, lsr #25
     eb8:	02530116 	subseq	r0, r3, #-2147483643	; 0x80000005
     ebc:	01166f08 	tsteq	r6, r8, lsl #30
     ec0:	cc030552 	cfstr32gt	mvfx0, [r3], {82}	; 0x52
     ec4:	160000b0 			; <UNDEFINED> instruction: 0x160000b0
     ec8:	03055101 	movweq	r5, #20737	; 0x5101
     ecc:	0000b158 	andeq	fp, r0, r8, asr r1
     ed0:	05500116 	ldrbeq	r0, [r0, #-278]	; 0x116
     ed4:	00b36803 	adcseq	r6, r3, r3, lsl #16
     ed8:	7d021600 	stcvc	6, cr1, [r2, #-0]
     edc:	a4030500 	strge	r0, [r3], #-1280	; 0x500
     ee0:	000000b3 	strheq	r0, [r0], -r3
     ee4:	0086f010 	addeq	pc, r6, r0, lsl r0	; <UNPREDICTABLE>
     ee8:	00146800 	andseq	r6, r4, r0, lsl #16
     eec:	86fc1f00 	ldrbthi	r1, [ip], r0, lsl #30
     ef0:	14b40000 	ldrtne	r0, [r4], #0
     ef4:	01160000 	tsteq	r6, r0
     ef8:	000a0352 	andeq	r0, sl, r2, asr r3
     efc:	51011640 	tstpl	r1, r0, asr #12
     f00:	00003001 	andeq	r3, r0, r1
     f04:	000a0c07 	andeq	r0, sl, r7, lsl #24
     f08:	03360f00 	teqeq	r6, #0, 30
     f0c:	75010000 	strvc	r0, [r1, #-0]
     f10:	00000492 	muleq	r0, r2, r4
     f14:	00008720 	andeq	r8, r0, r0, lsr #14
     f18:	00000090 	muleq	r0, r0, r0
     f1c:	0dda9c01 	ldcleq	12, cr9, [sl, #4]
     f20:	6e110000 	cdpvs	0, 1, cr0, cr1, cr0, {0}
     f24:	37750100 	ldrbcc	r0, [r5, -r0, lsl #2]!
     f28:	b0000000 	andlt	r0, r0, r0
     f2c:	12000008 	andne	r0, r0, #8
     f30:	0000001c 	andeq	r0, r0, ip, lsl r0
     f34:	00000dea 	andeq	r0, r0, sl, ror #27
     f38:	b0dc0305 	sbcslt	r0, ip, r5, lsl #6
     f3c:	af230000 	svcge	0x00230000
     f40:	01000003 	tsteq	r0, r3
     f44:	00003777 	andeq	r3, r0, r7, ror r7
     f48:	14400000 	strbne	r0, [r0], #-0
     f4c:	01007470 	tsteq	r0, r0, ror r4
     f50:	0004927a 	andeq	r9, r4, sl, ror r2
     f54:	0008ea00 	andeq	lr, r8, r0, lsl #20
     f58:	87341000 	ldrhi	r1, [r4, -r0]!
     f5c:	144b0000 	strbne	r0, [fp], #-0
     f60:	50150000 	andspl	r0, r5, r0
     f64:	52000087 	andpl	r0, r0, #135	; 0x87
     f68:	5f000014 	svcpl	0x00000014
     f6c:	1600000d 	strne	r0, [r0], -sp
     f70:	08025301 	stmdaeq	r2, {r0, r8, r9, ip, lr}
     f74:	52011676 	andpl	r1, r1, #123731968	; 0x7600000
     f78:	b0dc0305 	sbcslt	r0, ip, r5, lsl #6
     f7c:	01160000 	tsteq	r6, r0
     f80:	58030551 	stmdapl	r3, {r0, r4, r6, r8, sl}
     f84:	160000b1 			; <UNDEFINED> instruction: 0x160000b1
     f88:	03055001 	movweq	r5, #20481	; 0x5001
     f8c:	0000b3b0 			; <UNDEFINED> instruction: 0x0000b3b0
     f90:	007d0216 	rsbseq	r0, sp, r6, lsl r2
     f94:	b4080305 	strlt	r0, [r8], #-773	; 0x305
     f98:	10000000 	andne	r0, r0, r0
     f9c:	00008754 	andeq	r8, r0, r4, asr r7
     fa0:	00001468 	andeq	r1, r0, r8, ror #8
     fa4:	00875c15 	addeq	r5, r7, r5, lsl ip
     fa8:	0014d300 	andseq	sp, r4, r0, lsl #6
     fac:	000d7d00 	andeq	r7, sp, r0, lsl #26
     fb0:	51011600 	tstpl	r1, r0, lsl #12
     fb4:	40000a03 	andmi	r0, r0, r3, lsl #20
     fb8:	87681000 	strbhi	r1, [r8, -r0]!
     fbc:	144b0000 	strbne	r0, [fp], #-0
     fc0:	84150000 	ldrhi	r0, [r5], #-0
     fc4:	52000087 	andpl	r0, r0, #135	; 0x87
     fc8:	bf000014 	svclt	0x00000014
     fcc:	1600000d 	strne	r0, [r0], -sp
     fd0:	08025301 	stmdaeq	r2, {r0, r8, r9, ip, lr}
     fd4:	5201167b 	andpl	r1, r1, #128974848	; 0x7b00000
     fd8:	b0dc0305 	sbcslt	r0, ip, r5, lsl #6
     fdc:	01160000 	tsteq	r6, r0
     fe0:	58030551 	stmdapl	r3, {r0, r4, r6, r8, sl}
     fe4:	160000b1 			; <UNDEFINED> instruction: 0x160000b1
     fe8:	03055001 	movweq	r5, #20481	; 0x5001
     fec:	0000b2f0 	strdeq	fp, [r0], -r0
     ff0:	007d0216 	rsbseq	r0, sp, r6, lsl r2
     ff4:	b4140305 	ldrlt	r0, [r4], #-773	; 0x305
     ff8:	10000000 	andne	r0, r0, r0
     ffc:	00008788 	andeq	r8, r0, r8, lsl #15
    1000:	00001468 	andeq	r1, r0, r8, ror #8
    1004:	0087901f 	addeq	r9, r7, pc, lsl r0
    1008:	000bbc00 	andeq	fp, fp, r0, lsl #24
    100c:	51011600 	tstpl	r1, r0, lsl #12
    1010:	40000a03 	andmi	r0, r0, r3, lsl #20
    1014:	8a170000 	bhi	5c101c <__bss_end__+0x5b49d4>
    1018:	ea000000 	b	1020 <__code_start__-0x6fe0>
    101c:	1800000d 	stmdane	r0, {r0, r2, r3}
    1020:	00000081 	andeq	r0, r0, r1, lsl #1
    1024:	da07000c 	ble	1c105c <__bss_end__+0x1b4a14>
    1028:	2000000d 	andcs	r0, r0, sp
    102c:	00000400 	andeq	r0, r0, r0, lsl #8
    1030:	87b08601 	ldrhi	r8, [r0, r1, lsl #12]!
    1034:	00900000 	addseq	r0, r0, r0
    1038:	9c010000 	stcls	0, cr0, [r1], {-0}
    103c:	00000edc 	ldrdeq	r0, [r0], -ip
    1040:	00316314 	eorseq	r6, r1, r4, lsl r3
    1044:	009c8901 	addseq	r8, ip, r1, lsl #18
    1048:	09080000 	stmdbeq	r8, {}	; <UNPREDICTABLE>
    104c:	1c120000 	ldcne	0, cr0, [r2], {-0}
    1050:	ec000000 	stc	0, cr0, [r0], {-0}
    1054:	0500000e 	streq	r0, [r0, #-14]
    1058:	00b0ec03 	adcseq	lr, r0, r3, lsl #24
    105c:	87bc1000 	ldrhi	r1, [ip, r0]!
    1060:	14ed0000 	strbtne	r0, [sp], #0
    1064:	c0100000 	andsgt	r0, r0, r0
    1068:	40000087 	andmi	r0, r0, r7, lsl #1
    106c:	10000014 	andne	r0, r0, r4, lsl r0
    1070:	000087c8 	andeq	r8, r0, r8, asr #15
    1074:	000014f4 	strdeq	r1, [r0], -r4
    1078:	0087cc10 	addeq	ip, r7, r0, lsl ip
    107c:	00144000 	andseq	r4, r4, r0
    1080:	87d81000 	ldrbhi	r1, [r8, r0]
    1084:	144b0000 	strbne	r0, [fp], #-0
    1088:	f4150000 			; <UNDEFINED> instruction: 0xf4150000
    108c:	52000087 	andpl	r0, r0, #135	; 0x87
    1090:	87000014 	smladhi	r0, r4, r0, r0
    1094:	1600000e 	strne	r0, [r0], -lr
    1098:	08025301 	stmdaeq	r2, {r0, r8, r9, ip, lr}
    109c:	5201168e 	andpl	r1, r1, #148897792	; 0x8e00000
    10a0:	b0ec0305 	rsclt	r0, ip, r5, lsl #6
    10a4:	01160000 	tsteq	r6, r0
    10a8:	58030551 	stmdapl	r3, {r0, r4, r6, r8, sl}
    10ac:	160000b1 			; <UNDEFINED> instruction: 0x160000b1
    10b0:	03055001 	movweq	r5, #20481	; 0x5001
    10b4:	0000afb8 			; <UNDEFINED> instruction: 0x0000afb8
    10b8:	007d0216 	rsbseq	r0, sp, r6, lsl r2
    10bc:	b4500305 	ldrblt	r0, [r0], #-773	; 0x305
    10c0:	10000000 	andne	r0, r0, r0
    10c4:	000087f8 	strdeq	r8, [r0], -r8	; <UNPREDICTABLE>
    10c8:	00001468 	andeq	r1, r0, r8, ror #8
    10cc:	00880410 	addeq	r0, r8, r0, lsl r4
    10d0:	00144b00 	andseq	r4, r4, r0, lsl #22
    10d4:	88201500 	stmdahi	r0!, {r8, sl, ip}
    10d8:	14520000 	ldrbne	r0, [r2], #-0
    10dc:	0ed20000 	cdpeq	0, 13, cr0, cr2, cr0, {0}
    10e0:	01160000 	tsteq	r6, r0
    10e4:	8f080253 	svchi	0x00080253
    10e8:	05520116 	ldrbeq	r0, [r2, #-278]	; 0x116
    10ec:	00b0ec03 	adcseq	lr, r0, r3, lsl #24
    10f0:	51011600 	tstpl	r1, r0, lsl #12
    10f4:	b1580305 	cmplt	r8, r5, lsl #6
    10f8:	01160000 	tsteq	r6, r0
    10fc:	b8030550 	stmdalt	r3, {r4, r6, r8, sl}
    1100:	160000af 	strne	r0, [r0], -pc, lsr #1
    1104:	05007d02 	streq	r7, [r0, #-3330]	; 0xd02
    1108:	00b45c03 	adcseq	r5, r4, r3, lsl #24
    110c:	24100000 	ldrcs	r0, [r0], #-0
    1110:	68000088 	stmdavs	r0, {r3, r7}
    1114:	00000014 	andeq	r0, r0, r4, lsl r0
    1118:	00008a17 	andeq	r8, r0, r7, lsl sl
    111c:	000eec00 	andeq	lr, lr, r0, lsl #24
    1120:	00811800 	addeq	r1, r1, r0, lsl #16
    1124:	00080000 	andeq	r0, r8, r0
    1128:	000edc07 	andeq	sp, lr, r7, lsl #24
    112c:	04cb2000 	strbeq	r2, [fp], #0
    1130:	92010000 	andls	r0, r1, #0
    1134:	00008840 	andeq	r8, r0, r0, asr #16
    1138:	0000000c 	andeq	r0, r0, ip
    113c:	0f109c01 	svceq	0x00109c01
    1140:	48100000 	ldmdami	r0, {}	; <UNPREDICTABLE>
    1144:	05000088 	streq	r0, [r0, #-136]	; 0x88
    1148:	00000015 	andeq	r0, r0, r5, lsl r0
    114c:	0002a920 	andeq	sl, r2, r0, lsr #18
    1150:	4c970100 	ldfmis	f0, [r7], {0}
    1154:	80000088 	andhi	r0, r0, r8, lsl #1
    1158:	01000000 	mrseq	r0, (UNDEF: 0)
    115c:	000fe19c 	muleq	pc, ip, r1	; <UNPREDICTABLE>
    1160:	00631100 	rsbeq	r1, r3, r0, lsl #2
    1164:	02579701 	subseq	r9, r7, #262144	; 0x40000
    1168:	09310000 	ldmdbeq	r1!, {}	; <UNPREDICTABLE>
    116c:	1c120000 	ldcne	0, cr0, [r2], {-0}
    1170:	e1000000 	mrs	r0, (UNDEF: 0)
    1174:	0500000f 	streq	r0, [r0, #-15]
    1178:	00b0f803 	adcseq	pc, r0, r3, lsl #16
    117c:	88601000 	stmdahi	r0!, {ip}^
    1180:	144b0000 	strbne	r0, [fp], #-0
    1184:	7c150000 	ldcvc	0, cr0, [r5], {-0}
    1188:	52000088 	andpl	r0, r0, #136	; 0x88
    118c:	83000014 	movwhi	r0, #20
    1190:	1600000f 	strne	r0, [r0], -pc
    1194:	08025301 	stmdaeq	r2, {r0, r8, r9, ip, lr}
    1198:	52011698 	andpl	r1, r1, #152, 12	; 0x9800000
    119c:	b0f80305 	rscslt	r0, r8, r5, lsl #6
    11a0:	01160000 	tsteq	r6, r0
    11a4:	58030551 	stmdapl	r3, {r0, r4, r6, r8, sl}
    11a8:	160000b1 			; <UNDEFINED> instruction: 0x160000b1
    11ac:	03055001 	movweq	r5, #20481	; 0x5001
    11b0:	0000afb8 			; <UNDEFINED> instruction: 0x0000afb8
    11b4:	007d0216 	rsbseq	r0, sp, r6, lsl r2
    11b8:	b46c0305 	strbtlt	r0, [ip], #-773	; 0x305
    11bc:	10000000 	andne	r0, r0, r0
    11c0:	00008880 	andeq	r8, r0, r0, lsl #17
    11c4:	00001468 	andeq	r1, r0, r8, ror #8
    11c8:	00888c10 	addeq	r8, r8, r0, lsl ip
    11cc:	00144b00 	andseq	r4, r4, r0, lsl #22
    11d0:	88a81500 	stmiahi	r8!, {r8, sl, ip}
    11d4:	14520000 	ldrbne	r0, [r2], #-0
    11d8:	0fce0000 	svceq	0x00ce0000
    11dc:	01160000 	tsteq	r6, r0
    11e0:	99080253 	stmdbls	r8, {r0, r1, r4, r6, r9}
    11e4:	05520116 	ldrbeq	r0, [r2, #-278]	; 0x116
    11e8:	00b0f803 	adcseq	pc, r0, r3, lsl #16
    11ec:	51011600 	tstpl	r1, r0, lsl #12
    11f0:	b1580305 	cmplt	r8, r5, lsl #6
    11f4:	01160000 	tsteq	r6, r0
    11f8:	b8030550 	stmdalt	r3, {r4, r6, r8, sl}
    11fc:	160000af 	strne	r0, [r0], -pc, lsr #1
    1200:	05007d02 	streq	r7, [r0, #-3330]	; 0xd02
    1204:	00b47c03 	adcseq	r7, r4, r3, lsl #24
    1208:	ac100000 	ldcge	0, cr0, [r0], {-0}
    120c:	68000088 	stmdavs	r0, {r3, r7}
    1210:	10000014 	andne	r0, r0, r4, lsl r0
    1214:	000088b0 			; <UNDEFINED> instruction: 0x000088b0
    1218:	0000150c 	andeq	r1, r0, ip, lsl #10
    121c:	0a0c0700 	beq	302e24 <__bss_end__+0x2f67dc>
    1220:	a2200000 	eorge	r0, r0, #0
    1224:	01000001 	tsteq	r0, r1
    1228:	0088cc9c 	umulleq	ip, r8, ip, ip
    122c:	00005800 	andeq	r5, r0, r0, lsl #16
    1230:	759c0100 	ldrvc	r0, [ip, #256]	; 0x100
    1234:	14000010 	strne	r0, [r0], #-16
    1238:	9d010063 	stcls	0, cr0, [r1, #-396]	; 0xfffffe74
    123c:	00000257 	andeq	r0, r0, r7, asr r2
    1240:	0000095a 	andeq	r0, r0, sl, asr r9
    1244:	00001c12 	andeq	r1, r0, r2, lsl ip
    1248:	00108500 	andseq	r8, r0, r0, lsl #10
    124c:	08030500 	stmdaeq	r3, {r8, sl}
    1250:	100000b1 	strhne	r0, [r0], -r1
    1254:	000088d8 	ldrdeq	r8, [r0], -r8	; <UNPREDICTABLE>
    1258:	00001440 	andeq	r1, r0, r0, asr #8
    125c:	0088e410 	addeq	lr, r8, r0, lsl r4
    1260:	00144b00 	andseq	r4, r4, r0, lsl #22
    1264:	89001500 	stmdbhi	r0, {r8, sl, ip}
    1268:	14520000 	ldrbne	r0, [r2], #-0
    126c:	10620000 	rsbne	r0, r2, r0
    1270:	01160000 	tsteq	r6, r0
    1274:	9e080253 	mcrls	2, 0, r0, cr8, cr3, {2}
    1278:	05520116 	ldrbeq	r0, [r2, #-278]	; 0x116
    127c:	00b10803 	adcseq	r0, r1, r3, lsl #16
    1280:	51011600 	tstpl	r1, r0, lsl #12
    1284:	b1580305 	cmplt	r8, r5, lsl #6
    1288:	01160000 	tsteq	r6, r0
    128c:	b8030550 	stmdalt	r3, {r4, r6, r8, sl}
    1290:	160000af 	strne	r0, [r0], -pc, lsr #1
    1294:	05007d02 	streq	r7, [r0, #-3330]	; 0xd02
    1298:	00b49003 	adcseq	r9, r4, r3
    129c:	04100000 	ldreq	r0, [r0], #-0
    12a0:	68000089 	stmdavs	r0, {r0, r3, r7}
    12a4:	10000014 	andne	r0, r0, r4, lsl r0
    12a8:	0000890c 	andeq	r8, r0, ip, lsl #18
    12ac:	00000f10 	andeq	r0, r0, r0, lsl pc
    12b0:	008a1700 	addeq	r1, sl, r0, lsl #14
    12b4:	10850000 	addne	r0, r5, r0
    12b8:	81180000 	tsthi	r8, r0
    12bc:	0b000000 	bleq	12c4 <__code_start__-0x6d3c>
    12c0:	10750700 	rsbsne	r0, r5, r0, lsl #14
    12c4:	81200000 	teqhi	r0, r0
    12c8:	01000002 	tsteq	r0, r2
    12cc:	008924a3 	addeq	r2, r9, r3, lsr #9
    12d0:	00005000 	andeq	r5, r0, r0
    12d4:	109c0100 	addsne	r0, ip, r0, lsl #2
    12d8:	11000011 	tstne	r0, r1, lsl r0
    12dc:	a3010063 	movwge	r0, #4195	; 0x1063
    12e0:	00000257 	andeq	r0, r0, r7, asr r2
    12e4:	00000978 	andeq	r0, r0, r8, ror r9
    12e8:	00001c12 	andeq	r1, r0, r2, lsl ip
    12ec:	00112000 	andseq	r2, r1, r0
    12f0:	14030500 	strne	r0, [r3], #-1280	; 0x500
    12f4:	100000b1 	strhne	r0, [r0], -r1
    12f8:	00008938 	andeq	r8, r0, r8, lsr r9
    12fc:	0000144b 	andeq	r1, r0, fp, asr #8
    1300:	00895415 	addeq	r5, r9, r5, lsl r4
    1304:	00145200 	andseq	r5, r4, r0, lsl #4
    1308:	0010fd00 	andseq	pc, r0, r0, lsl #26
    130c:	53011600 	movwpl	r1, #5632	; 0x1600
    1310:	16a40802 	strtne	r0, [r4], r2, lsl #16
    1314:	03055201 	movweq	r5, #20993	; 0x5201
    1318:	0000b114 	andeq	fp, r0, r4, lsl r1
    131c:	05510116 	ldrbeq	r0, [r1, #-278]	; 0x116
    1320:	00b15803 	adcseq	r5, r1, r3, lsl #16
    1324:	50011600 	andpl	r1, r1, r0, lsl #12
    1328:	afb80305 	svcge	0x00b80305
    132c:	02160000 	andseq	r0, r6, #0
    1330:	0305007d 	movweq	r0, #20605	; 0x507d
    1334:	0000b490 	muleq	r0, r0, r4
    1338:	89581000 	ldmdbhi	r8, {ip}^
    133c:	14680000 	strbtne	r0, [r8], #-0
    1340:	5c100000 	ldcpl	0, cr0, [r0], {-0}
    1344:	1d000089 	stcne	0, cr0, [r0, #-548]	; 0xfffffddc
    1348:	00000015 	andeq	r0, r0, r5, lsl r0
    134c:	00008a17 	andeq	r8, r0, r7, lsl sl
    1350:	00112000 	andseq	r2, r1, r0
    1354:	00811800 	addeq	r1, r1, r0, lsl #16
    1358:	000e0000 	andeq	r0, lr, r0
    135c:	00111007 	andseq	r1, r1, r7
    1360:	046b2000 	strbteq	r2, [fp], #-0
    1364:	a7010000 	strge	r0, [r1, -r0]
    1368:	00008974 	andeq	r8, r0, r4, ror r9
    136c:	00000058 	andeq	r0, r0, r8, asr r0
    1370:	11b49c01 			; <UNDEFINED> instruction: 0x11b49c01
    1374:	63140000 	tstvs	r4, #0
    1378:	57a80100 	strpl	r0, [r8, r0, lsl #2]!
    137c:	96000002 	strls	r0, [r0], -r2
    1380:	12000009 	andne	r0, r0, #9
    1384:	0000001c 	andeq	r0, r0, ip, lsl r0
    1388:	000011c4 	andeq	r1, r0, r4, asr #3
    138c:	b1240305 	teqlt	r4, r5, lsl #6
    1390:	80100000 	andshi	r0, r0, r0
    1394:	40000089 	andmi	r0, r0, r9, lsl #1
    1398:	10000014 	andne	r0, r0, r4, lsl r0
    139c:	0000898c 	andeq	r8, r0, ip, lsl #19
    13a0:	0000144b 	andeq	r1, r0, fp, asr #8
    13a4:	0089a815 	addeq	sl, r9, r5, lsl r8
    13a8:	00145200 	andseq	r5, r4, r0, lsl #4
    13ac:	0011a100 	andseq	sl, r1, r0, lsl #2
    13b0:	53011600 	movwpl	r1, #5632	; 0x1600
    13b4:	16a90802 	strtne	r0, [r9], r2, lsl #16
    13b8:	03055201 	movweq	r5, #20993	; 0x5201
    13bc:	0000b124 	andeq	fp, r0, r4, lsr #2
    13c0:	05510116 	ldrbeq	r0, [r1, #-278]	; 0x116
    13c4:	00b15803 	adcseq	r5, r1, r3, lsl #16
    13c8:	50011600 	andpl	r1, r1, r0, lsl #12
    13cc:	afb80305 	svcge	0x00b80305
    13d0:	02160000 	andseq	r0, r6, #0
    13d4:	0305007d 	movweq	r0, #20605	; 0x507d
    13d8:	0000b46c 	andeq	fp, r0, ip, ror #8
    13dc:	89ac1000 	stmibhi	ip!, {ip}
    13e0:	14680000 	strbtne	r0, [r8], #-0
    13e4:	b4100000 	ldrlt	r0, [r0], #-0
    13e8:	8a000089 	bhi	1614 <__code_start__-0x69ec>
    13ec:	00000010 	andeq	r0, r0, r0, lsl r0
    13f0:	00008a17 	andeq	r8, r0, r7, lsl sl
    13f4:	0011c400 	andseq	ip, r1, r0, lsl #8
    13f8:	00811800 	addeq	r1, r1, r0, lsl #16
    13fc:	000a0000 	andeq	r0, sl, r0
    1400:	0011b407 	andseq	fp, r1, r7, lsl #8
    1404:	04a10f00 	strteq	r0, [r1], #3840	; 0xf00
    1408:	af010000 	svcge	0x00010000
    140c:	00000068 	andeq	r0, r0, r8, rrx
    1410:	000089cc 	andeq	r8, r0, ip, asr #19
    1414:	00000008 	andeq	r0, r0, r8
    1418:	11ee9c01 	mvnne	r9, r1, lsl #24
    141c:	72240000 	eorvc	r0, r4, #0
    1420:	68b00100 	ldmvs	r0!, {r8}
    1424:	01000000 	mrseq	r0, (UNDEF: 0)
    1428:	90200050 	eorls	r0, r0, r0, asr r0
    142c:	01000002 	tsteq	r0, r2
    1430:	0089d4b4 			; <UNDEFINED> instruction: 0x0089d4b4
    1434:	00000c00 	andeq	r0, r0, r0, lsl #24
    1438:	229c0100 	addscs	r0, ip, #0, 2
    143c:	11000012 	tstne	r0, r2, lsl r0
    1440:	b4010072 	strlt	r0, [r1], #-114	; 0x72
    1444:	00000037 	andeq	r0, r0, r7, lsr r0
    1448:	000009b4 			; <UNDEFINED> instruction: 0x000009b4
    144c:	0089dc1f 	addeq	sp, r9, pc, lsl ip
    1450:	00152e00 	andseq	r2, r5, r0, lsl #28
    1454:	50011600 	andpl	r1, r1, r0, lsl #12
    1458:	5001f303 	andpl	pc, r1, r3, lsl #6
    145c:	47200000 	strmi	r0, [r0, -r0]!
    1460:	01000002 	tsteq	r0, r2
    1464:	0089e0ba 	strheq	lr, [r9], sl
    1468:	0000bc00 	andeq	fp, r0, r0, lsl #24
    146c:	729c0100 	addsvc	r0, ip, #0, 2
    1470:	11000013 	tstne	r0, r3, lsl r0
    1474:	00646970 	rsbeq	r6, r4, r0, ror r9
    1478:	0037ba01 	eorseq	fp, r7, r1, lsl #20
    147c:	09d50000 	ldmibeq	r5, {}^	; <UNPREDICTABLE>
    1480:	bc1a0000 	ldclt	0, cr0, [sl], {-0}
    1484:	01000001 	tsteq	r0, r1
    1488:	000037ba 			; <UNDEFINED> instruction: 0x000037ba
    148c:	000a4100 	andeq	r4, sl, r0, lsl #2
    1490:	74701100 	ldrbtvc	r1, [r0], #-256	; 0x100
    1494:	92ba0100 	adcsls	r0, sl, #0, 2
    1498:	ba000004 	blt	14b0 <__code_start__-0x6b50>
    149c:	1200000a 	andne	r0, r0, #10
    14a0:	0000001c 	andeq	r0, r0, ip, lsl r0
    14a4:	00001372 	andeq	r1, r0, r2, ror r3
    14a8:	b1300305 	teqlt	r0, r5, lsl #6
    14ac:	f4100000 			; <UNDEFINED> instruction: 0xf4100000
    14b0:	4b000089 	blmi	16dc <__code_start__-0x6924>
    14b4:	15000014 	strne	r0, [r0, #-20]
    14b8:	00008a10 	andeq	r8, r0, r0, lsl sl
    14bc:	00001452 	andeq	r1, r0, r2, asr r4
    14c0:	000012b4 			; <UNDEFINED> instruction: 0x000012b4
    14c4:	02530116 	subseq	r0, r3, #-2147483643	; 0x80000005
    14c8:	0116bb08 	tsteq	r6, r8, lsl #22
    14cc:	30030552 	andcc	r0, r3, r2, asr r5
    14d0:	160000b1 			; <UNDEFINED> instruction: 0x160000b1
    14d4:	03055101 	movweq	r5, #20737	; 0x5101
    14d8:	0000b158 	andeq	fp, r0, r8, asr r1
    14dc:	05500116 	ldrbeq	r0, [r0, #-278]	; 0x116
    14e0:	00afb803 	adceq	fp, pc, r3, lsl #16
    14e4:	7d021600 	stcvc	6, cr1, [r2, #-0]
    14e8:	a0030500 	andge	r0, r3, r0, lsl #10
    14ec:	000000b4 	strheq	r0, [r0], -r4
    14f0:	008a1410 	addeq	r1, sl, r0, lsl r4
    14f4:	00146800 	andseq	r6, r4, r0, lsl #16
    14f8:	8a201000 	bhi	805500 <__bss_end__+0x7f8eb8>
    14fc:	144b0000 	strbne	r0, [fp], #-0
    1500:	3c150000 	ldccc	0, cr0, [r5], {-0}
    1504:	5200008a 	andpl	r0, r0, #138	; 0x8a
    1508:	ff000014 			; <UNDEFINED> instruction: 0xff000014
    150c:	16000012 			; <UNDEFINED> instruction: 0x16000012
    1510:	08025301 	stmdaeq	r2, {r0, r8, r9, ip, lr}
    1514:	520116bc 	andpl	r1, r1, #188, 12	; 0xbc00000
    1518:	b1300305 	teqlt	r0, r5, lsl #6
    151c:	01160000 	tsteq	r6, r0
    1520:	58030551 	stmdapl	r3, {r0, r4, r6, r8, sl}
    1524:	160000b1 			; <UNDEFINED> instruction: 0x160000b1
    1528:	03055001 	movweq	r5, #20481	; 0x5001
    152c:	0000afb8 			; <UNDEFINED> instruction: 0x0000afb8
    1530:	007d0216 	rsbseq	r0, sp, r6, lsl r2
    1534:	b4b40305 	ldrtlt	r0, [r4], #773	; 0x305
    1538:	10000000 	andne	r0, r0, r0
    153c:	00008a40 	andeq	r8, r0, r0, asr #20
    1540:	00001468 	andeq	r1, r0, r8, ror #8
    1544:	008a5010 	addeq	r5, sl, r0, lsl r0
    1548:	00144b00 	andseq	r4, r4, r0, lsl #22
    154c:	8a6c1500 	bhi	1b06954 <__bss_end__+0x1afa30c>
    1550:	14520000 	ldrbne	r0, [r2], #-0
    1554:	134a0000 	movtne	r0, #40960	; 0xa000
    1558:	01160000 	tsteq	r6, r0
    155c:	bd080253 	sfmlt	f0, 4, [r8, #-332]	; 0xfffffeb4
    1560:	05520116 	ldrbeq	r0, [r2, #-278]	; 0x116
    1564:	00b13003 	adcseq	r3, r1, r3
    1568:	51011600 	tstpl	r1, r0, lsl #12
    156c:	b1580305 	cmplt	r8, r5, lsl #6
    1570:	01160000 	tsteq	r6, r0
    1574:	b8030550 	stmdalt	r3, {r4, r6, r8, sl}
    1578:	160000af 	strne	r0, [r0], -pc, lsr #1
    157c:	05007d02 	streq	r7, [r0, #-3330]	; 0xd02
    1580:	00b4c003 	adcseq	ip, r4, r3
    1584:	70100000 	andsvc	r0, r0, r0
    1588:	6800008a 	stmdavs	r0, {r1, r3, r7}
    158c:	1f000014 	svcne	0x00000014
    1590:	00008a7c 	andeq	r8, r0, ip, ror sl
    1594:	0000153f 	andeq	r1, r0, pc, lsr r5
    1598:	03510116 	cmpeq	r1, #-2147483643	; 0x80000005
    159c:	165201f3 			; <UNDEFINED> instruction: 0x165201f3
    15a0:	f3095001 	vhadd.u8	d5, d9, d1
    15a4:	24385001 	ldrtcs	r5, [r8], #-1
    15a8:	215101f3 	ldrshcs	r0, [r1, #-19]	; 0xffffffed
    15ac:	a7070000 	strge	r0, [r7, -r0]
    15b0:	2000000b 	andcs	r0, r0, fp
    15b4:	00000457 	andeq	r0, r0, r7, asr r4
    15b8:	8a9cc201 	bhi	fe731dc4 <__bss_end__+0xfe72577c>
    15bc:	00480000 	subeq	r0, r8, r0
    15c0:	9c010000 	stcls	0, cr0, [r1], {-0}
    15c4:	00001404 	andeq	r1, r0, r4, lsl #8
    15c8:	00726c11 	rsbseq	r6, r2, r1, lsl ip
    15cc:	0037c201 	eorseq	ip, r7, r1, lsl #4
    15d0:	0b260000 	bleq	9815d8 <__bss_end__+0x974f90>
    15d4:	1c120000 	ldcne	0, cr0, [r2], {-0}
    15d8:	14000000 	strne	r0, [r0], #-0
    15dc:	05000014 	streq	r0, [r0, #-20]
    15e0:	00b14403 	adcseq	r4, r1, r3, lsl #8
    15e4:	8aac1000 	bhi	feb055ec <__bss_end__+0xfeaf8fa4>
    15e8:	03780000 	cmneq	r8, #0
    15ec:	b8100000 	ldmdalt	r0, {}	; <UNPREDICTABLE>
    15f0:	e600008a 	str	r0, [r0], -sl, lsl #1
    15f4:	1000000f 	andne	r0, r0, pc
    15f8:	00008abc 			; <UNDEFINED> instruction: 0x00008abc
    15fc:	0000144b 	andeq	r1, r0, fp, asr #8
    1600:	008ad415 	addeq	sp, sl, r5, lsl r4
    1604:	00145200 	andseq	r5, r4, r0, lsl #4
    1608:	0013fa00 	andseq	pc, r3, r0, lsl #20
    160c:	53011600 	movwpl	r1, #5632	; 0x1600
    1610:	16c50802 	strbne	r0, [r5], r2, lsl #16
    1614:	03055201 	movweq	r5, #20993	; 0x5201
    1618:	0000b144 	andeq	fp, r0, r4, asr #2
    161c:	05510116 	ldrbeq	r0, [r1, #-278]	; 0x116
    1620:	00b15803 	adcseq	r5, r1, r3, lsl #16
    1624:	50011600 	andpl	r1, r1, r0, lsl #12
    1628:	b4d40305 	ldrblt	r0, [r4], #773	; 0x305
    162c:	02160000 	andseq	r0, r6, #0
    1630:	7402007d 	strvc	r0, [r2], #-125	; 0x7d
    1634:	d8100000 	ldmdale	r0, {}	; <UNPREDICTABLE>
    1638:	6800008a 	stmdavs	r0, {r1, r3, r7}
    163c:	00000014 	andeq	r0, r0, r4, lsl r0
    1640:	00008a17 	andeq	r8, r0, r7, lsl sl
    1644:	00141400 	andseq	r1, r4, r0, lsl #8
    1648:	00811800 	addeq	r1, r1, r0, lsl #16
    164c:	00130000 	andseq	r0, r3, r0
    1650:	00140407 	andseq	r0, r4, r7, lsl #8
    1654:	05572500 	ldrbeq	r2, [r7, #-1280]	; 0x500
    1658:	07010000 	streq	r0, [r1, -r0]
    165c:	0000142a 	andeq	r1, r0, sl, lsr #8
    1660:	b0640305 	rsblt	r0, r4, r5, lsl #6
    1664:	37070000 	strcc	r0, [r7, -r0]
    1668:	25000000 	strcs	r0, [r0, #-0]
    166c:	0000088d 	andeq	r0, r0, sp, lsl #17
    1670:	00250901 	eoreq	r0, r5, r1, lsl #18
    1674:	03050000 	movweq	r0, #20480	; 0x5000
    1678:	0000c230 	andeq	ip, r0, r0, lsr r2
    167c:	00038626 	andeq	r8, r3, r6, lsr #12
    1680:	574e0500 	strbpl	r0, [lr, -r0, lsl #10]
    1684:	27000002 	strcs	r0, [r0, -r2]
    1688:	000000d5 	ldrdeq	r0, [r0], -r5
    168c:	69281e07 	stmdbvs	r8!, {r0, r1, r2, r9, sl, fp, ip}
    1690:	0700000a 	streq	r0, [r0, -sl]
    1694:	00002529 	andeq	r2, r0, r9, lsr #10
    1698:	00146800 	andseq	r6, r4, r0, lsl #16
    169c:	00912900 	addseq	r2, r1, r0, lsl #18
    16a0:	002a0000 	eoreq	r0, sl, r0
    16a4:	0000f927 	andeq	pc, r0, r7, lsr #18
    16a8:	27650700 	strbcs	r0, [r5, -r0, lsl #14]!
    16ac:	000003c2 	andeq	r0, r0, r2, asr #7
    16b0:	2f265202 	svccs	0x00265202
    16b4:	06000003 	streq	r0, [r0], -r3
    16b8:	00033873 	andeq	r3, r3, r3, ror r8
    16bc:	04972b00 	ldreq	r2, [r7], #2816	; 0xb00
    16c0:	70060000 	andvc	r0, r6, r0
    16c4:	00001492 	muleq	r0, r2, r4
    16c8:	00049229 	andeq	r9, r4, r9, lsr #4
    16cc:	ef2b0000 	svc	0x002b0000
    16d0:	06000002 	streq	r0, [r0], -r2
    16d4:	0014ad7a 	andseq	sl, r4, sl, ror sp
    16d8:	00912900 	addseq	r2, r1, r0, lsl #18
    16dc:	ad290000 	stcge	0, cr0, [r9, #-0]
    16e0:	29000014 	stmdbcs	r0, {r2, r4}
    16e4:	00000037 	andeq	r0, r0, r7, lsr r0
    16e8:	b3040600 	movwlt	r0, #17920	; 0x4600
    16ec:	2c000014 	stccs	0, cr0, [r0], {20}
    16f0:	00049028 	andeq	r9, r4, r8, lsr #32
    16f4:	881b0800 	ldmdahi	fp, {fp}
    16f8:	d3000000 	movwle	r0, #0
    16fc:	29000014 	stmdbcs	r0, {r2, r4}
    1700:	00000088 	andeq	r0, r0, r8, lsl #1
    1704:	00002529 	andeq	r2, r0, r9, lsr #10
    1708:	002c2900 	eoreq	r2, ip, r0, lsl #18
    170c:	28000000 	stmdacs	r0, {}	; <UNPREDICTABLE>
    1710:	00000263 	andeq	r0, r0, r3, ror #4
    1714:	00886d07 	addeq	r6, r8, r7, lsl #26
    1718:	14ed0000 	strbtne	r0, [sp], #0
    171c:	37290000 	strcc	r0, [r9, -r0]!
    1720:	29000000 	stmdbcs	r0, {}	; <UNPREDICTABLE>
    1724:	00000037 	andeq	r0, r0, r7, lsr r0
    1728:	01c12700 	biceq	r2, r1, r0, lsl #14
    172c:	5b020000 	blpl	81734 <__bss_end__+0x750ec>
    1730:	00030d2b 	andeq	r0, r3, fp, lsr #26
    1734:	05500500 	ldrbeq	r0, [r0, #-1280]	; 0x500
    1738:	29000015 	stmdbcs	r0, {r0, r2, r4}
    173c:	00000257 	andeq	r0, r0, r7, asr r2
    1740:	05742700 	ldrbeq	r2, [r4, #-1792]!	; 0x700
    1744:	36090000 	strcc	r0, [r9], -r0
    1748:	0002d72b 	andeq	sp, r2, fp, lsr #14
    174c:	1d660200 	sfmne	f0, 2, [r6, #-0]
    1750:	29000015 	stmdbcs	r0, {r0, r2, r4}
    1754:	00000257 	andeq	r0, r0, r7, asr r2
    1758:	052d2b00 	streq	r2, [sp, #-2816]!	; 0xb00
    175c:	67020000 	strvs	r0, [r2, -r0]
    1760:	0000152e 	andeq	r1, r0, lr, lsr #10
    1764:	00025729 	andeq	r5, r2, r9, lsr #14
    1768:	b92b0000 	stmdblt	fp!, {}	; <UNPREDICTABLE>
    176c:	02000002 	andeq	r0, r0, #2
    1770:	00153f56 	andseq	r3, r5, r6, asr pc
    1774:	00682900 	rsbeq	r2, r8, r0, lsl #18
    1778:	2d000000 	stccs	0, cr0, [r0, #-0]
    177c:	0000023e 	andeq	r0, r0, lr, lsr r2
    1780:	68296002 	stmdavs	r9!, {r1, sp, lr}
    1784:	29000000 	stmdbcs	r0, {}	; <UNPREDICTABLE>
    1788:	00000492 	muleq	r0, r2, r4
    178c:	119e0000 	orrsne	r0, lr, r0
    1790:	00040000 	andeq	r0, r4, r0
    1794:	00000388 	andeq	r0, r0, r8, lsl #7
    1798:	00400104 	subeq	r0, r0, r4, lsl #2
    179c:	7d010000 	stcvc	0, cr0, [r1, #-0]
    17a0:	3a000005 	bcc	17bc <__code_start__-0x6844>
    17a4:	e4000001 	str	r0, [r0], #-1
    17a8:	1400008a 	strne	r0, [r0], #-138	; 0x8a
    17ac:	19000009 	stmdbne	r0, {r0, r3}
    17b0:	02000004 	andeq	r0, r0, #4
    17b4:	6e690504 	cdpvs	5, 6, cr0, cr9, cr4, {0}
    17b8:	04030074 	streq	r0, [r3], #-116	; 0x74
    17bc:	00003307 	andeq	r3, r0, r7, lsl #6
    17c0:	06010300 	streq	r0, [r1], -r0, lsl #6
    17c4:	000000c9 	andeq	r0, r0, r9, asr #1
    17c8:	06050203 	streq	r0, [r5], -r3, lsl #4
    17cc:	03000001 	movweq	r0, #1
    17d0:	00050504 	andeq	r0, r5, r4, lsl #10
    17d4:	08030000 	stmdaeq	r3, {}	; <UNPREDICTABLE>
    17d8:	00000005 	andeq	r0, r0, r5
    17dc:	08010300 	stmdaeq	r1, {r8, r9}
    17e0:	000000c7 	andeq	r0, r0, r7, asr #1
    17e4:	18070203 	stmdane	r7, {r0, r1, r9}
    17e8:	04000001 	streq	r0, [r0], #-1
    17ec:	000000f0 	strdeq	r0, [r0], -r0	; <UNPREDICTABLE>
    17f0:	00683404 	rsbeq	r3, r8, r4, lsl #8
    17f4:	04030000 	streq	r0, [r3], #-0
    17f8:	00002e07 	andeq	r2, r0, r7, lsl #28
    17fc:	07080300 	streq	r0, [r8, -r0, lsl #6]
    1800:	00000029 	andeq	r0, r0, r9, lsr #32
    1804:	99070403 	stmdbls	r7, {r0, r1, sl}
    1808:	03000001 	movweq	r0, #1
    180c:	00d00801 	sbcseq	r0, r0, r1, lsl #16
    1810:	04050000 	streq	r0, [r5], #-0
    1814:	0000008a 	andeq	r0, r0, sl, lsl #1
    1818:	00007d06 	andeq	r7, r0, r6, lsl #26
    181c:	007d0700 	rsbseq	r0, sp, r0, lsl #14
    1820:	009f0000 	addseq	r0, pc, r0
    1824:	76080000 	strvc	r0, [r8], -r0
    1828:	19000000 	stmdbne	r0, {}	; <UNPREDICTABLE>
    182c:	007d0700 	rsbseq	r0, sp, r0, lsl #14
    1830:	00af0000 	adceq	r0, pc, r0
    1834:	76080000 	strvc	r0, [r8], -r0
    1838:	18000000 	stmdane	r0, {}	; <UNPREDICTABLE>
    183c:	05d70900 	ldrbeq	r0, [r7, #2304]	; 0x900
    1840:	02040000 	andeq	r0, r4, #0
    1844:	00010708 	andeq	r0, r1, r8, lsl #14
    1848:	06640a00 	strbteq	r0, [r4], -r0, lsl #20
    184c:	0a020000 	beq	81854 <__bss_end__+0x7520c>
    1850:	0000002c 	andeq	r0, r0, ip, lsr #32
    1854:	001f0104 	andseq	r0, pc, r4, lsl #2
    1858:	0004f40a 	andeq	pc, r4, sl, lsl #8
    185c:	2c0b0200 	sfmcs	f0, 4, [fp], {-0}
    1860:	04000000 	streq	r0, [r0], #-0
    1864:	0a001807 	beq	7888 <__code_start__-0x778>
    1868:	00000677 	andeq	r0, r0, r7, ror r6
    186c:	002c0c02 	eoreq	r0, ip, r2, lsl #24
    1870:	08040000 	stmdaeq	r4, {}	; <UNPREDICTABLE>
    1874:	6e0a0010 	mcrvs	0, 0, r0, cr10, cr0, {0}
    1878:	02000006 	andeq	r0, r0, #6
    187c:	00002c0d 	andeq	r2, r0, sp, lsl #24
    1880:	08080400 	stmdaeq	r8, {sl}
    1884:	04fa0a00 	ldrbteq	r0, [sl], #2560	; 0xa00
    1888:	0e020000 	cdpeq	0, 0, cr0, cr2, cr0, {0}
    188c:	0000002c 	andeq	r0, r0, ip, lsr #32
    1890:	00000804 	andeq	r0, r0, r4, lsl #16
    1894:	044a0900 	strbeq	r0, [sl], #-2304	; 0x900
    1898:	02040000 	andeq	r0, r4, #0
    189c:	0002c22a 	andeq	ip, r2, sl, lsr #4
    18a0:	04190a00 	ldreq	r0, [r9], #-2560	; 0xa00
    18a4:	2c020000 	stccs	0, cr0, [r2], {-0}
    18a8:	0000002c 	andeq	r0, r0, ip, lsr #32
    18ac:	001f0104 	andseq	r0, pc, r4, lsl #2
    18b0:	0002320a 	andeq	r3, r2, sl, lsl #4
    18b4:	2c2d0200 	sfmcs	f0, 4, [sp], #-0
    18b8:	04000000 	streq	r0, [r0], #-0
    18bc:	0a001e01 	beq	90c8 <fld_check_valid+0x130>
    18c0:	0000051c 	andeq	r0, r0, ip, lsl r5
    18c4:	002c2e02 	eoreq	r2, ip, r2, lsl #28
    18c8:	01040000 	mrseq	r0, (UNDEF: 4)
    18cc:	d80a001d 	stmdale	sl, {r0, r2, r3, r4}
    18d0:	02000003 	andeq	r0, r0, #3
    18d4:	00002c31 	andeq	r2, r0, r1, lsr ip
    18d8:	1c010400 	cfstrsne	mvf0, [r1], {-0}
    18dc:	04870a00 	streq	r0, [r7], #2560	; 0xa00
    18e0:	32020000 	andcc	r0, r2, #0
    18e4:	0000002c 	andeq	r0, r0, ip, lsr #32
    18e8:	00190304 	andseq	r0, r9, r4, lsl #6
    18ec:	00020e0a 	andeq	r0, r2, sl, lsl #28
    18f0:	2c330200 	lfmcs	f0, 4, [r3], #-0
    18f4:	04000000 	streq	r0, [r0], #-0
    18f8:	0a001801 	beq	7904 <__code_start__-0x6fc>
    18fc:	000003e4 	andeq	r0, r0, r4, ror #7
    1900:	002c3402 	eoreq	r3, ip, r2, lsl #8
    1904:	01040000 	mrseq	r0, (UNDEF: 4)
    1908:	a40a0017 	strge	r0, [sl], #-23
    190c:	02000003 	andeq	r0, r0, #3
    1910:	00002c35 	andeq	r2, r0, r5, lsr ip
    1914:	16010400 	strne	r0, [r1], -r0, lsl #8
    1918:	00460b00 	subeq	r0, r6, r0, lsl #22
    191c:	002c3602 	eoreq	r3, ip, r2, lsl #12
    1920:	01040000 	mrseq	r0, (UNDEF: 4)
    1924:	ae0a0015 	mcrge	0, 0, r0, cr10, cr5, {0}
    1928:	02000001 	andeq	r0, r0, #1
    192c:	00002c37 	andeq	r2, r0, r7, lsr ip
    1930:	14010400 	strne	r0, [r1], #-1024	; 0x400
    1934:	02220a00 	eoreq	r0, r2, #0, 20
    1938:	38020000 	stmdacc	r2, {}	; <UNPREDICTABLE>
    193c:	0000002c 	andeq	r0, r0, ip, lsr #32
    1940:	00130104 	andseq	r0, r3, r4, lsl #2
    1944:	0001fe0a 	andeq	pc, r1, sl, lsl #28
    1948:	2c390200 	lfmcs	f0, 4, [r9], #-0
    194c:	04000000 	streq	r0, [r0], #-0
    1950:	0a001201 	beq	615c <__code_start__-0x1ea4>
    1954:	000002fa 	strdeq	r0, [r0], -sl
    1958:	002c3a02 	eoreq	r3, ip, r2, lsl #20
    195c:	01040000 	mrseq	r0, (UNDEF: 4)
    1960:	4c0b0011 	stcmi	0, cr0, [fp], {17}
    1964:	3b020034 	blcc	81a3c <__bss_end__+0x753f4>
    1968:	0000002c 	andeq	r0, r0, ip, lsr #32
    196c:	00100104 	andseq	r0, r0, r4, lsl #2
    1970:	74645f0b 	strbtvc	r5, [r4], #-3851	; 0xf0b
    1974:	2c3c0200 	lfmcs	f0, 4, [ip], #-0
    1978:	04000000 	streq	r0, [r0], #-0
    197c:	0a000f01 	beq	5588 <__code_start__-0x2a78>
    1980:	000004f4 	strdeq	r0, [r0], -r4
    1984:	002c3d02 	eoreq	r3, ip, r2, lsl #26
    1988:	01040000 	mrseq	r0, (UNDEF: 4)
    198c:	5f0b000e 	svcpl	0x000b000e
    1990:	02007469 	andeq	r7, r0, #1761607680	; 0x69000000
    1994:	00002c3e 	andeq	r2, r0, lr, lsr ip
    1998:	0d010400 	cfstrseq	mvf0, [r1, #-0]
    199c:	04fa0a00 	ldrbteq	r0, [sl], #2560	; 0xa00
    19a0:	3f020000 	svccc	0x00020000
    19a4:	0000002c 	andeq	r0, r0, ip, lsr #32
    19a8:	000c0104 	andeq	r0, ip, r4, lsl #2
    19ac:	74735f0b 	ldrbtvc	r5, [r3], #-3851	; 0xf0b
    19b0:	2c400200 	sfmcs	f0, 2, [r0], {-0}
    19b4:	04000000 	streq	r0, [r0], #-0
    19b8:	0b000b01 	bleq	45c4 <__code_start__-0x3a3c>
    19bc:	02003146 	andeq	r3, r0, #-2147483631	; 0x80000011
    19c0:	00002c41 	andeq	r2, r0, r1, asr #24
    19c4:	0a010400 	beq	429cc <__bss_end__+0x36384>
    19c8:	04250a00 	strteq	r0, [r5], #-2560	; 0xa00
    19cc:	42020000 	andmi	r0, r2, #0
    19d0:	0000002c 	andeq	r0, r0, ip, lsr #32
    19d4:	00090104 	andeq	r0, r9, r4, lsl #2
    19d8:	0004310a 	andeq	r3, r4, sl, lsl #2
    19dc:	2c430200 	sfmcs	f0, 2, [r3], {-0}
    19e0:	04000000 	streq	r0, [r0], #-0
    19e4:	0a000801 	beq	39f0 <__code_start__-0x4610>
    19e8:	00000398 	muleq	r0, r8, r3
    19ec:	002c4502 	eoreq	r4, ip, r2, lsl #10
    19f0:	01040000 	mrseq	r0, (UNDEF: 4)
    19f4:	450b0007 	strmi	r0, [fp, #-7]
    19f8:	46020045 	strmi	r0, [r2], -r5, asr #32
    19fc:	0000002c 	andeq	r0, r0, ip, lsr #32
    1a00:	00060104 	andeq	r0, r6, r4, lsl #2
    1a04:	0005110a 	andeq	r1, r5, sl, lsl #2
    1a08:	2c470200 	sfmcs	f0, 2, [r7], {-0}
    1a0c:	04000000 	streq	r0, [r0], #-0
    1a10:	0a000501 	beq	2e1c <__code_start__-0x51e4>
    1a14:	00000343 	andeq	r0, r0, r3, asr #6
    1a18:	002c4802 	eoreq	r4, ip, r2, lsl #16
    1a1c:	01040000 	mrseq	r0, (UNDEF: 4)
    1a20:	370a0004 	strcc	r0, [sl, -r4]
    1a24:	02000004 	andeq	r0, r0, #4
    1a28:	00002c49 	andeq	r2, r0, r9, asr #24
    1a2c:	03010400 	movweq	r0, #5120	; 0x1400
    1a30:	03b60a00 			; <UNDEFINED> instruction: 0x03b60a00
    1a34:	4a020000 	bmi	81a3c <__bss_end__+0x753f4>
    1a38:	0000002c 	andeq	r0, r0, ip, lsr #32
    1a3c:	00020104 	andeq	r0, r2, r4, lsl #2
    1a40:	00034e0a 	andeq	r4, r3, sl, lsl #28
    1a44:	2c4b0200 	sfmcs	f0, 2, [fp], {-0}
    1a48:	04000000 	streq	r0, [r0], #-0
    1a4c:	00000002 	andeq	r0, r0, r2
    1a50:	00035f09 	andeq	r5, r3, r9, lsl #30
    1a54:	46030400 	strmi	r0, [r3], -r0, lsl #8
    1a58:	00000398 	muleq	r0, r8, r3
    1a5c:	6761740b 	strbvs	r7, [r1, -fp, lsl #8]!
    1a60:	2c480300 	mcrrcs	3, 0, r0, r8, cr0
    1a64:	04000000 	streq	r0, [r0], #-0
    1a68:	0b001e02 	bleq	9278 <fld_print+0x64>
    1a6c:	49030042 	stmdbmi	r3, {r1, r6}
    1a70:	0000002c 	andeq	r0, r0, ip, lsr #32
    1a74:	001d0104 	andseq	r0, sp, r4, lsl #2
    1a78:	0300430b 	movweq	r4, #779	; 0x30b
    1a7c:	00002c4a 	andeq	r2, r0, sl, asr #24
    1a80:	1c010400 	cfstrsne	mvf0, [r1], {-0}
    1a84:	4e580b00 	vnmlsmi.f64	d16, d8, d0
    1a88:	2c4b0300 	mcrrcs	3, 0, r0, fp, cr0
    1a8c:	04000000 	streq	r0, [r0], #-0
    1a90:	0a001b01 	beq	869c <mmu_pt_alloc_at+0x10>
    1a94:	000004ed 	andeq	r0, r0, sp, ror #9
    1a98:	002c4e03 	eoreq	r4, ip, r3, lsl #28
    1a9c:	04040000 	streq	r0, [r4], #-0
    1aa0:	490b0017 	stmdbmi	fp, {r0, r1, r2, r4}
    1aa4:	0300504d 	movweq	r5, #77	; 0x4d
    1aa8:	00002c4f 	andeq	r2, r0, pc, asr #24
    1aac:	16010400 	strne	r0, [r1], -r0, lsl #8
    1ab0:	50410b00 	subpl	r0, r1, r0, lsl #22
    1ab4:	2c520300 	mrrccs	3, 0, r0, r2, cr0
    1ab8:	04000000 	streq	r0, [r0], #-0
    1abc:	0b001402 	bleq	6acc <__code_start__-0x1534>
    1ac0:	00584554 	subseq	r4, r8, r4, asr r5
    1ac4:	002c5303 	eoreq	r5, ip, r3, lsl #6
    1ac8:	03040000 	movweq	r0, #16384	; 0x4000
    1acc:	410b0011 	tstmi	fp, r1, lsl r0
    1ad0:	03005850 	movweq	r5, #2128	; 0x850
    1ad4:	00002c54 	andeq	r2, r0, r4, asr ip
    1ad8:	10010400 	andne	r0, r1, r0, lsl #8
    1adc:	00530b00 	subseq	r0, r3, r0, lsl #22
    1ae0:	002c5503 	eoreq	r5, ip, r3, lsl #10
    1ae4:	01040000 	mrseq	r0, (UNDEF: 4)
    1ae8:	6e0b000f 	cdpvs	0, 0, cr0, cr11, cr15, {0}
    1aec:	56030047 	strpl	r0, [r3], -r7, asr #32
    1af0:	0000002c 	andeq	r0, r0, ip, lsr #32
    1af4:	000e0104 	andeq	r0, lr, r4, lsl #2
    1af8:	0003070a 	andeq	r0, r3, sl, lsl #14
    1afc:	2c570300 	mrrccs	3, 0, r0, r7, cr0
    1b00:	04000000 	streq	r0, [r0], #-0
    1b04:	0a000d01 	beq	4f10 <__code_start__-0x30f0>
    1b08:	000004fa 	strdeq	r0, [r0], -sl
    1b0c:	002c5803 	eoreq	r5, ip, r3, lsl #16
    1b10:	01040000 	mrseq	r0, (UNDEF: 4)
    1b14:	730a000c 	movwvc	r0, #40972	; 0xa00c
    1b18:	03000002 	movweq	r0, #2
    1b1c:	00002c59 	andeq	r2, r0, r9, asr ip
    1b20:	000c0400 	andeq	r0, ip, r0, lsl #8
    1b24:	d1040000 	mrsle	r0, (UNDEF: 4)
    1b28:	03000002 	movweq	r0, #2
    1b2c:	0002c25a 	andeq	ip, r2, sl, asr r2
    1b30:	02ef0c00 	rsceq	r0, pc, #0, 24
    1b34:	0f010000 	svceq	0x00010000
    1b38:	00008ae4 	andeq	r8, r0, r4, ror #21
    1b3c:	00000034 	andeq	r0, r0, r4, lsr r0
    1b40:	041e9c01 	ldreq	r9, [lr], #-3073	; 0xc01
    1b44:	6d0d0000 	stcvs	0, cr0, [sp, #-0]
    1b48:	01006773 	tsteq	r0, r3, ror r7
    1b4c:	0000840f 	andeq	r8, r0, pc, lsl #8
    1b50:	000b4400 	andeq	r4, fp, r0, lsl #8
    1b54:	133f0e00 	teqne	pc, #0, 28
    1b58:	0f010000 	svceq	0x00010000
    1b5c:	0000041e 	andeq	r0, r0, lr, lsl r4
    1b60:	00000b62 	andeq	r0, r0, r2, ror #22
    1b64:	01006e0d 	tsteq	r0, sp, lsl #28
    1b68:	00002c0f 	andeq	r2, r0, pc, lsl #24
    1b6c:	000b8e00 	andeq	r8, fp, r0, lsl #28
    1b70:	8afc0f00 	bhi	fff05778 <__bss_end__+0xffef9130>
    1b74:	11580000 	cmpne	r8, r0
    1b78:	03fe0000 	mvnseq	r0, #0
    1b7c:	01100000 	tsteq	r0, r0
    1b80:	00740251 	rsbseq	r0, r4, r1, asr r2
    1b84:	03500110 	cmpeq	r0, #16, 2
    1b88:	005101f3 	ldrsheq	r0, [r1], #-19	; 0xffffffed
    1b8c:	008b1011 	addeq	r1, fp, r1, lsl r0
    1b90:	00117200 	andseq	r7, r1, r0, lsl #4
    1b94:	53011000 	movwpl	r1, #4096	; 0x1000
    1b98:	10007402 	andne	r7, r0, r2, lsl #8
    1b9c:	75025101 	strvc	r5, [r2, #-257]	; 0x101
    1ba0:	50011000 	andpl	r1, r1, r0
    1ba4:	b50c0305 	strlt	r0, [ip, #-773]	; 0x305
    1ba8:	00000000 	andeq	r0, r0, r0
    1bac:	04240405 	strteq	r0, [r4], #-1029	; 0x405
    1bb0:	0c120000 	ldceq	0, cr0, [r2], {-0}
    1bb4:	00000627 	andeq	r0, r0, r7, lsr #12
    1bb8:	8b181701 	blhi	6077c4 <__bss_end__+0x5fb17c>
    1bbc:	00280000 	eoreq	r0, r8, r0
    1bc0:	9c010000 	stcls	0, cr0, [r1], {-0}
    1bc4:	0000046e 	andeq	r0, r0, lr, ror #8
    1bc8:	008b240f 	addeq	r2, fp, pc, lsl #8
    1bcc:	00117200 	andseq	r7, r1, r0, lsl #4
    1bd0:	00045100 	andeq	r5, r4, r0, lsl #2
    1bd4:	50011000 	andpl	r1, r1, r0
    1bd8:	b5280305 	strlt	r0, [r8, #-773]!	; 0x305
    1bdc:	13000000 	movwne	r0, #0
    1be0:	00008b28 	andeq	r8, r0, r8, lsr #22
    1be4:	00001188 	andeq	r1, r0, r8, lsl #3
    1be8:	008b3411 	addeq	r3, fp, r1, lsl r4
    1bec:	00117200 	andseq	r7, r1, r0, lsl #4
    1bf0:	50011000 	andpl	r1, r1, r0
    1bf4:	b5400305 	strblt	r0, [r0, #-773]	; 0x305
    1bf8:	00000000 	andeq	r0, r0, r0
    1bfc:	00063814 	andeq	r3, r6, r4, lsl r8
    1c00:	40200100 	eormi	r0, r0, r0, lsl #2
    1c04:	0800008b 	stmdaeq	r0, {r0, r1, r3, r7}
    1c08:	01000000 	mrseq	r0, (UNDEF: 0)
    1c0c:	0004939c 	muleq	r4, ip, r3
    1c10:	001c1500 	andseq	r1, ip, r0, lsl #10
    1c14:	04a30000 	strteq	r0, [r3], #0
    1c18:	03050000 	movweq	r0, #20480	; 0x5000
    1c1c:	0000b910 	andeq	fp, r0, r0, lsl r9
    1c20:	007d0700 	rsbseq	r0, sp, r0, lsl #14
    1c24:	04a30000 	strteq	r0, [r3], #0
    1c28:	76080000 	strvc	r0, [r8], -r0
    1c2c:	1a000000 	bne	1c34 <__code_start__-0x63cc>
    1c30:	04930600 	ldreq	r0, [r3], #1536	; 0x600
    1c34:	a7140000 	ldrge	r0, [r4, -r0]
    1c38:	01000005 	tsteq	r0, r5
    1c3c:	008b4839 	addeq	r4, fp, r9, lsr r8
    1c40:	0001f800 	andeq	pc, r1, r0, lsl #16
    1c44:	7d9c0100 	ldfvcs	f0, [ip]
    1c48:	0d000007 	stceq	0, cr0, [r0, #-28]	; 0xffffffe4
    1c4c:	39010072 	stmdbcc	r1, {r1, r4, r5, r6}
    1c50:	0000077d 	andeq	r0, r0, sp, ror r7
    1c54:	00000bac 	andeq	r0, r0, ip, lsr #23
    1c58:	00001c15 	andeq	r1, r0, r5, lsl ip
    1c5c:	00078300 	andeq	r8, r7, r0, lsl #6
    1c60:	e4030500 	str	r0, [r3], #-1280	; 0x500
    1c64:	130000b8 	movwne	r0, #184	; 0xb8
    1c68:	00008b68 	andeq	r8, r0, r8, ror #22
    1c6c:	00001193 	muleq	r0, r3, r1
    1c70:	008b840f 	addeq	r8, fp, pc, lsl #8
    1c74:	00117200 	andseq	r7, r1, r0, lsl #4
    1c78:	00051b00 	andeq	r1, r5, r0, lsl #22
    1c7c:	53011000 	movwpl	r1, #4096	; 0x1000
    1c80:	103b0802 	eorsne	r0, fp, r2, lsl #16
    1c84:	03055201 	movweq	r5, #20993	; 0x5201
    1c88:	0000b8e4 	andeq	fp, r0, r4, ror #17
    1c8c:	05510110 	ldrbeq	r0, [r1, #-272]	; 0x110
    1c90:	00b59003 	adcseq	r9, r5, r3
    1c94:	50011000 	andpl	r1, r1, r0
    1c98:	afb80305 	svcge	0x00b80305
    1c9c:	02100000 	andseq	r0, r0, #0
    1ca0:	0305007d 	movweq	r0, #20605	; 0x507d
    1ca4:	0000b6a4 	andeq	fp, r0, r4, lsr #13
    1ca8:	8b881300 	blhi	fe2068b0 <__bss_end__+0xfe1fa268>
    1cac:	119a0000 	orrsne	r0, sl, r0
    1cb0:	98130000 	ldmdals	r3, {}	; <UNPREDICTABLE>
    1cb4:	9300008b 	movwls	r0, #139	; 0x8b
    1cb8:	0f000011 	svceq	0x00000011
    1cbc:	00008bb4 			; <UNDEFINED> instruction: 0x00008bb4
    1cc0:	00001172 	andeq	r1, r0, r2, ror r1
    1cc4:	00000566 	andeq	r0, r0, r6, ror #10
    1cc8:	02530110 	subseq	r0, r3, #16, 2
    1ccc:	01103c08 	tsteq	r0, r8, lsl #24
    1cd0:	e4030552 	str	r0, [r3], #-1362	; 0x552
    1cd4:	100000b8 	strhne	r0, [r0], -r8
    1cd8:	03055101 	movweq	r5, #20737	; 0x5101
    1cdc:	0000b590 	muleq	r0, r0, r5
    1ce0:	05500110 	ldrbeq	r0, [r0, #-272]	; 0x110
    1ce4:	00afb803 	adceq	fp, pc, r3, lsl #16
    1ce8:	7d021000 	stcvc	0, cr1, [r2, #-0]
    1cec:	bc030500 	cfstr32lt	mvfx0, [r3], {-0}
    1cf0:	000000b6 	strheq	r0, [r0], -r6
    1cf4:	008bb813 	addeq	fp, fp, r3, lsl r8
    1cf8:	00119a00 	andseq	r9, r1, r0, lsl #20
    1cfc:	8bc81300 	blhi	ff206904 <__bss_end__+0xff1fa2bc>
    1d00:	11930000 	orrsne	r0, r3, r0
    1d04:	e40f0000 	str	r0, [pc], #-0	; 1d0c <__code_start__-0x62f4>
    1d08:	7200008b 	andvc	r0, r0, #139	; 0x8b
    1d0c:	b1000011 	tstlt	r0, r1, lsl r0
    1d10:	10000005 	andne	r0, r0, r5
    1d14:	08025301 	stmdaeq	r2, {r0, r8, r9, ip, lr}
    1d18:	5201103d 	andpl	r1, r1, #61	; 0x3d
    1d1c:	b8e40305 	stmialt	r4!, {r0, r2, r8, r9}^
    1d20:	01100000 	tsteq	r0, r0
    1d24:	90030551 	andls	r0, r3, r1, asr r5
    1d28:	100000b5 	strhne	r0, [r0], -r5
    1d2c:	03055001 	movweq	r5, #20481	; 0x5001
    1d30:	0000afb8 			; <UNDEFINED> instruction: 0x0000afb8
    1d34:	007d0210 	rsbseq	r0, sp, r0, lsl r2
    1d38:	b6c80305 	strblt	r0, [r8], r5, lsl #6
    1d3c:	13000000 	movwne	r0, #0
    1d40:	00008be8 	andeq	r8, r0, r8, ror #23
    1d44:	0000119a 	muleq	r0, sl, r1
    1d48:	008bf813 	addeq	pc, fp, r3, lsl r8	; <UNPREDICTABLE>
    1d4c:	00119300 	andseq	r9, r1, r0, lsl #6
    1d50:	8c140f00 	ldchi	15, cr0, [r4], {-0}
    1d54:	11720000 	cmnne	r2, r0
    1d58:	05fc0000 	ldrbeq	r0, [ip, #0]!
    1d5c:	01100000 	tsteq	r0, r0
    1d60:	40080253 	andmi	r0, r8, r3, asr r2
    1d64:	05520110 	ldrbeq	r0, [r2, #-272]	; 0x110
    1d68:	00b8e403 	adcseq	lr, r8, r3, lsl #8
    1d6c:	51011000 	mrspl	r1, (UNDEF: 1)
    1d70:	b5900305 	ldrlt	r0, [r0, #773]	; 0x305
    1d74:	01100000 	tsteq	r0, r0
    1d78:	b8030550 	stmdalt	r3, {r4, r6, r8, sl}
    1d7c:	100000af 	andne	r0, r0, pc, lsr #1
    1d80:	05007d02 	streq	r7, [r0, #-3330]	; 0xd02
    1d84:	00b6d403 	adcseq	sp, r6, r3, lsl #8
    1d88:	18130000 	ldmdane	r3, {}	; <UNPREDICTABLE>
    1d8c:	9a00008c 	bls	1fc4 <__code_start__-0x603c>
    1d90:	13000011 	movwne	r0, #17
    1d94:	00008c28 	andeq	r8, r0, r8, lsr #24
    1d98:	00001193 	muleq	r0, r3, r1
    1d9c:	008c440f 	addeq	r4, ip, pc, lsl #8
    1da0:	00117200 	andseq	r7, r1, r0, lsl #4
    1da4:	00064700 	andeq	r4, r6, r0, lsl #14
    1da8:	53011000 	movwpl	r1, #4096	; 0x1000
    1dac:	10410802 	subne	r0, r1, r2, lsl #16
    1db0:	03055201 	movweq	r5, #20993	; 0x5201
    1db4:	0000b8e4 	andeq	fp, r0, r4, ror #17
    1db8:	05510110 	ldrbeq	r0, [r1, #-272]	; 0x110
    1dbc:	00b59003 	adcseq	r9, r5, r3
    1dc0:	50011000 	andpl	r1, r1, r0
    1dc4:	afb80305 	svcge	0x00b80305
    1dc8:	02100000 	andseq	r0, r0, #0
    1dcc:	0305007d 	movweq	r0, #20605	; 0x507d
    1dd0:	0000b6e4 	andeq	fp, r0, r4, ror #13
    1dd4:	8c481300 	mcrrhi	3, 0, r1, r8, cr0
    1dd8:	119a0000 	orrsne	r0, sl, r0
    1ddc:	58130000 	ldmdapl	r3, {}	; <UNPREDICTABLE>
    1de0:	9300008c 	movwls	r0, #140	; 0x8c
    1de4:	0f000011 	svceq	0x00000011
    1de8:	00008c74 	andeq	r8, r0, r4, ror ip
    1dec:	00001172 	andeq	r1, r0, r2, ror r1
    1df0:	00000692 	muleq	r0, r2, r6
    1df4:	02530110 	subseq	r0, r3, #16, 2
    1df8:	01104208 	tsteq	r0, r8, lsl #4
    1dfc:	e4030552 	str	r0, [r3], #-1362	; 0x552
    1e00:	100000b8 	strhne	r0, [r0], -r8
    1e04:	03055101 	movweq	r5, #20737	; 0x5101
    1e08:	0000b590 	muleq	r0, r0, r5
    1e0c:	05500110 	ldrbeq	r0, [r0, #-272]	; 0x110
    1e10:	00afb803 	adceq	fp, pc, r3, lsl #16
    1e14:	7d021000 	stcvc	0, cr1, [r2, #-0]
    1e18:	f4030500 	vst3.8	{d0,d2,d4}, [r3], r0
    1e1c:	000000b6 	strheq	r0, [r0], -r6
    1e20:	008c7813 	addeq	r7, ip, r3, lsl r8
    1e24:	00119a00 	andseq	r9, r1, r0, lsl #20
    1e28:	8c881300 	stchi	3, cr1, [r8], {0}
    1e2c:	11930000 	orrsne	r0, r3, r0
    1e30:	a40f0000 	strge	r0, [pc], #-0	; 1e38 <__code_start__-0x61c8>
    1e34:	7200008c 	andvc	r0, r0, #140	; 0x8c
    1e38:	dd000011 	stcle	0, cr0, [r0, #-68]	; 0xffffffbc
    1e3c:	10000006 	andne	r0, r0, r6
    1e40:	08025301 	stmdaeq	r2, {r0, r8, r9, ip, lr}
    1e44:	5201104b 	andpl	r1, r1, #75	; 0x4b
    1e48:	b8e40305 	stmialt	r4!, {r0, r2, r8, r9}^
    1e4c:	01100000 	tsteq	r0, r0
    1e50:	90030551 	andls	r0, r3, r1, asr r5
    1e54:	100000b5 	strhne	r0, [r0], -r5
    1e58:	03055001 	movweq	r5, #20481	; 0x5001
    1e5c:	0000afb8 			; <UNDEFINED> instruction: 0x0000afb8
    1e60:	007d0210 	rsbseq	r0, sp, r0, lsl r2
    1e64:	b7000305 	strlt	r0, [r0, -r5, lsl #6]
    1e68:	13000000 	movwne	r0, #0
    1e6c:	00008ca8 	andeq	r8, r0, r8, lsr #25
    1e70:	0000119a 	muleq	r0, sl, r1
    1e74:	008cb813 	addeq	fp, ip, r3, lsl r8
    1e78:	00119300 	andseq	r9, r1, r0, lsl #6
    1e7c:	8cd40f00 	ldclhi	15, cr0, [r4], {0}
    1e80:	11720000 	cmnne	r2, r0
    1e84:	07280000 	streq	r0, [r8, -r0]!
    1e88:	01100000 	tsteq	r0, r0
    1e8c:	4c080253 	sfmmi	f0, 4, [r8], {83}	; 0x53
    1e90:	05520110 	ldrbeq	r0, [r2, #-272]	; 0x110
    1e94:	00b8e403 	adcseq	lr, r8, r3, lsl #8
    1e98:	51011000 	mrspl	r1, (UNDEF: 1)
    1e9c:	b5900305 	ldrlt	r0, [r0, #773]	; 0x305
    1ea0:	01100000 	tsteq	r0, r0
    1ea4:	b8030550 	stmdalt	r3, {r4, r6, r8, sl}
    1ea8:	100000af 	andne	r0, r0, pc, lsr #1
    1eac:	05007d02 	streq	r7, [r0, #-3330]	; 0xd02
    1eb0:	00b71003 	adcseq	r1, r7, r3
    1eb4:	d8130000 	ldmdale	r3, {}	; <UNPREDICTABLE>
    1eb8:	9a00008c 	bls	20f0 <__code_start__-0x5f10>
    1ebc:	13000011 	movwne	r0, #17
    1ec0:	00008ce8 	andeq	r8, r0, r8, ror #25
    1ec4:	00001193 	muleq	r0, r3, r1
    1ec8:	008d040f 	addeq	r0, sp, pc, lsl #8
    1ecc:	00117200 	andseq	r7, r1, r0, lsl #4
    1ed0:	00077300 	andeq	r7, r7, r0, lsl #6
    1ed4:	53011000 	movwpl	r1, #4096	; 0x1000
    1ed8:	104d0802 	subne	r0, sp, r2, lsl #16
    1edc:	03055201 	movweq	r5, #20993	; 0x5201
    1ee0:	0000b8e4 	andeq	fp, r0, r4, ror #17
    1ee4:	05510110 	ldrbeq	r0, [r1, #-272]	; 0x110
    1ee8:	00b59003 	adcseq	r9, r5, r3
    1eec:	50011000 	andpl	r1, r1, r0
    1ef0:	afb80305 	svcge	0x00b80305
    1ef4:	02100000 	andseq	r0, r0, #0
    1ef8:	0305007d 	movweq	r0, #20605	; 0x507d
    1efc:	0000b724 	andeq	fp, r0, r4, lsr #14
    1f00:	8d081300 	stchi	3, cr1, [r8, #-0]
    1f04:	119a0000 	orrsne	r0, sl, r0
    1f08:	05000000 	streq	r0, [r0, #-0]
    1f0c:	00010704 	andeq	r0, r1, r4, lsl #14
    1f10:	008f0600 	addeq	r0, pc, r0, lsl #12
    1f14:	fb0c0000 	blx	301f1e <__bss_end__+0x2f58d6>
    1f18:	01000005 	tsteq	r0, r5
    1f1c:	008d4050 	addeq	r4, sp, r0, asr r0
    1f20:	00020400 	andeq	r0, r2, r0, lsl #8
    1f24:	129c0100 	addsne	r0, ip, #0, 2
    1f28:	0d00000a 	stceq	0, cr0, [r0, #-40]	; 0xffffffd8
    1f2c:	50010072 	andpl	r0, r1, r2, ror r0
    1f30:	0000077d 	andeq	r0, r0, sp, ror r7
    1f34:	00000ca0 	andeq	r0, r0, r0, lsr #25
    1f38:	008d4c0f 	addeq	r4, sp, pc, lsl #24
    1f3c:	0004a800 	andeq	sl, r4, r0, lsl #16
    1f40:	0007be00 	andeq	fp, r7, r0, lsl #28
    1f44:	50011000 	andpl	r1, r1, r0
    1f48:	00007402 	andeq	r7, r0, r2, lsl #8
    1f4c:	008d540f 	addeq	r5, sp, pc, lsl #8
    1f50:	00117200 	andseq	r7, r1, r0, lsl #4
    1f54:	0007d500 	andeq	sp, r7, r0, lsl #10
    1f58:	50011000 	andpl	r1, r1, r0
    1f5c:	b73c0305 	ldrlt	r0, [ip, -r5, lsl #6]!
    1f60:	0f000000 	svceq	0x00000000
    1f64:	00008d6c 	andeq	r8, r0, ip, ror #26
    1f68:	00001172 	andeq	r1, r0, r2, ror r1
    1f6c:	000007f5 	strdeq	r0, [r0], -r5
    1f70:	05520110 	ldrbeq	r0, [r2, #-272]	; 0x110
    1f74:	00b69803 	adcseq	r9, r6, r3, lsl #16
    1f78:	50011000 	andpl	r1, r1, r0
    1f7c:	b7540305 	ldrblt	r0, [r4, -r5, lsl #6]
    1f80:	0f000000 	svceq	0x00000000
    1f84:	00008d84 	andeq	r8, r0, r4, lsl #27
    1f88:	00001172 	andeq	r1, r0, r2, ror r1
    1f8c:	00000815 	andeq	r0, r0, r5, lsl r8
    1f90:	05520110 	ldrbeq	r0, [r2, #-272]	; 0x110
    1f94:	00b68803 	adcseq	r8, r6, r3, lsl #16
    1f98:	50011000 	andpl	r1, r1, r0
    1f9c:	b7540305 	ldrblt	r0, [r4, -r5, lsl #6]
    1fa0:	0f000000 	svceq	0x00000000
    1fa4:	00008d9c 	muleq	r0, ip, sp
    1fa8:	00001172 	andeq	r1, r0, r2, ror r1
    1fac:	00000835 	andeq	r0, r0, r5, lsr r8
    1fb0:	05520110 	ldrbeq	r0, [r2, #-272]	; 0x110
    1fb4:	00b70403 	adcseq	r0, r7, r3, lsl #8
    1fb8:	50011000 	andpl	r1, r1, r0
    1fbc:	b7540305 	ldrblt	r0, [r4, -r5, lsl #6]
    1fc0:	0f000000 	svceq	0x00000000
    1fc4:	00008db4 			; <UNDEFINED> instruction: 0x00008db4
    1fc8:	00001172 	andeq	r1, r0, r2, ror r1
    1fcc:	00000855 	andeq	r0, r0, r5, asr r8
    1fd0:	05520110 	ldrbeq	r0, [r2, #-272]	; 0x110
    1fd4:	00b68403 	adcseq	r8, r6, r3, lsl #8
    1fd8:	50011000 	andpl	r1, r1, r0
    1fdc:	b7540305 	ldrblt	r0, [r4, -r5, lsl #6]
    1fe0:	0f000000 	svceq	0x00000000
    1fe4:	00008dc8 	andeq	r8, r0, r8, asr #27
    1fe8:	00001172 	andeq	r1, r0, r2, ror r1
    1fec:	00000875 	andeq	r0, r0, r5, ror r8
    1ff0:	05520110 	ldrbeq	r0, [r2, #-272]	; 0x110
    1ff4:	00b67803 	adcseq	r7, r6, r3, lsl #16
    1ff8:	50011000 	andpl	r1, r1, r0
    1ffc:	b7540305 	ldrblt	r0, [r4, -r5, lsl #6]
    2000:	0f000000 	svceq	0x00000000
    2004:	00008ddc 	ldrdeq	r8, [r0], -ip
    2008:	00001172 	andeq	r1, r0, r2, ror r1
    200c:	00000895 	muleq	r0, r5, r8
    2010:	05520110 	ldrbeq	r0, [r2, #-272]	; 0x110
    2014:	00b67003 	adcseq	r7, r6, r3
    2018:	50011000 	andpl	r1, r1, r0
    201c:	b7540305 	ldrblt	r0, [r4, -r5, lsl #6]
    2020:	0f000000 	svceq	0x00000000
    2024:	00008df4 	strdeq	r8, [r0], -r4
    2028:	00001172 	andeq	r1, r0, r2, ror r1
    202c:	000008b5 			; <UNDEFINED> instruction: 0x000008b5
    2030:	05520110 	ldrbeq	r0, [r2, #-272]	; 0x110
    2034:	00b66403 	adcseq	r6, r6, r3, lsl #8
    2038:	50011000 	andpl	r1, r1, r0
    203c:	b7540305 	ldrblt	r0, [r4, -r5, lsl #6]
    2040:	0f000000 	svceq	0x00000000
    2044:	00008e0c 	andeq	r8, r0, ip, lsl #28
    2048:	00001172 	andeq	r1, r0, r2, ror r1
    204c:	000008d5 	ldrdeq	r0, [r0], -r5
    2050:	05520110 	ldrbeq	r0, [r2, #-272]	; 0x110
    2054:	00b66003 	adcseq	r6, r6, r3
    2058:	50011000 	andpl	r1, r1, r0
    205c:	b7540305 	ldrblt	r0, [r4, -r5, lsl #6]
    2060:	0f000000 	svceq	0x00000000
    2064:	00008e24 	andeq	r8, r0, r4, lsr #28
    2068:	00001172 	andeq	r1, r0, r2, ror r1
    206c:	000008f5 	strdeq	r0, [r0], -r5
    2070:	05520110 	ldrbeq	r0, [r2, #-272]	; 0x110
    2074:	00b64c03 	adcseq	r4, r6, r3, lsl #24
    2078:	50011000 	andpl	r1, r1, r0
    207c:	b7540305 	ldrblt	r0, [r4, -r5, lsl #6]
    2080:	0f000000 	svceq	0x00000000
    2084:	00008e3c 	andeq	r8, r0, ip, lsr lr
    2088:	00001172 	andeq	r1, r0, r2, ror r1
    208c:	00000915 	andeq	r0, r0, r5, lsl r9
    2090:	05520110 	ldrbeq	r0, [r2, #-272]	; 0x110
    2094:	00b71403 	adcseq	r1, r7, r3, lsl #8
    2098:	50011000 	andpl	r1, r1, r0
    209c:	b7540305 	ldrblt	r0, [r4, -r5, lsl #6]
    20a0:	0f000000 	svceq	0x00000000
    20a4:	00008e54 	andeq	r8, r0, r4, asr lr
    20a8:	00001172 	andeq	r1, r0, r2, ror r1
    20ac:	00000935 	andeq	r0, r0, r5, lsr r9
    20b0:	05520110 	ldrbeq	r0, [r2, #-272]	; 0x110
    20b4:	00b62c03 	adcseq	r2, r6, r3, lsl #24
    20b8:	50011000 	andpl	r1, r1, r0
    20bc:	b7540305 	ldrblt	r0, [r4, -r5, lsl #6]
    20c0:	0f000000 	svceq	0x00000000
    20c4:	00008e6c 	andeq	r8, r0, ip, ror #28
    20c8:	00001172 	andeq	r1, r0, r2, ror r1
    20cc:	00000955 	andeq	r0, r0, r5, asr r9
    20d0:	05520110 	ldrbeq	r0, [r2, #-272]	; 0x110
    20d4:	00b61c03 	adcseq	r1, r6, r3, lsl #24
    20d8:	50011000 	andpl	r1, r1, r0
    20dc:	b7540305 	ldrblt	r0, [r4, -r5, lsl #6]
    20e0:	0f000000 	svceq	0x00000000
    20e4:	00008e80 	andeq	r8, r0, r0, lsl #29
    20e8:	00001172 	andeq	r1, r0, r2, ror r1
    20ec:	00000975 	andeq	r0, r0, r5, ror r9
    20f0:	05520110 	ldrbeq	r0, [r2, #-272]	; 0x110
    20f4:	00b61403 	adcseq	r1, r6, r3, lsl #8
    20f8:	50011000 	andpl	r1, r1, r0
    20fc:	b7540305 	ldrblt	r0, [r4, -r5, lsl #6]
    2100:	0f000000 	svceq	0x00000000
    2104:	00008e94 	muleq	r0, r4, lr
    2108:	00001172 	andeq	r1, r0, r2, ror r1
    210c:	00000995 	muleq	r0, r5, r9
    2110:	05520110 	ldrbeq	r0, [r2, #-272]	; 0x110
    2114:	00b60803 	adcseq	r0, r6, r3, lsl #16
    2118:	50011000 	andpl	r1, r1, r0
    211c:	b7540305 	ldrblt	r0, [r4, -r5, lsl #6]
    2120:	0f000000 	svceq	0x00000000
    2124:	00008eac 	andeq	r8, r0, ip, lsr #29
    2128:	00001172 	andeq	r1, r0, r2, ror r1
    212c:	000009b5 			; <UNDEFINED> instruction: 0x000009b5
    2130:	05520110 	ldrbeq	r0, [r2, #-272]	; 0x110
    2134:	00b5fc03 	adcseq	pc, r5, r3, lsl #24
    2138:	50011000 	andpl	r1, r1, r0
    213c:	b7540305 	ldrblt	r0, [r4, -r5, lsl #6]
    2140:	0f000000 	svceq	0x00000000
    2144:	00008ec4 	andeq	r8, r0, r4, asr #29
    2148:	00001172 	andeq	r1, r0, r2, ror r1
    214c:	000009d5 	ldrdeq	r0, [r0], -r5
    2150:	05520110 	ldrbeq	r0, [r2, #-272]	; 0x110
    2154:	00b72803 	adcseq	r2, r7, r3, lsl #16
    2158:	50011000 	andpl	r1, r1, r0
    215c:	b7540305 	ldrblt	r0, [r4, -r5, lsl #6]
    2160:	0f000000 	svceq	0x00000000
    2164:	00008edc 	ldrdeq	r8, [r0], -ip
    2168:	00001172 	andeq	r1, r0, r2, ror r1
    216c:	000009f5 	strdeq	r0, [r0], -r5
    2170:	05520110 	ldrbeq	r0, [r2, #-272]	; 0x110
    2174:	00b5f003 	adcseq	pc, r5, r3
    2178:	50011000 	andpl	r1, r1, r0
    217c:	b7540305 	ldrblt	r0, [r4, -r5, lsl #6]
    2180:	11000000 	mrsne	r0, (UNDEF: 0)
    2184:	00008ef0 	strdeq	r8, [r0], -r0
    2188:	00001172 	andeq	r1, r0, r2, ror r1
    218c:	05520110 	ldrbeq	r0, [r2, #-272]	; 0x110
    2190:	00b46003 	adcseq	r6, r4, r3
    2194:	50011000 	andpl	r1, r1, r0
    2198:	b7540305 	ldrblt	r0, [r4, -r5, lsl #6]
    219c:	00000000 	andeq	r0, r0, r0
    21a0:	00060e14 	andeq	r0, r6, r4, lsl lr
    21a4:	446c0100 	strbtmi	r0, [ip], #-256	; 0x100
    21a8:	0800008f 	stmdaeq	r0, {r0, r1, r2, r3, r7}
    21ac:	01000000 	mrseq	r0, (UNDEF: 0)
    21b0:	000a379c 	muleq	sl, ip, r7
    21b4:	001c1500 	andseq	r1, ip, r0, lsl #10
    21b8:	0a370000 	beq	dc21c0 <__bss_end__+0xdb5b78>
    21bc:	03050000 	movweq	r0, #20480	; 0x5000
    21c0:	0000b92c 	andeq	fp, r0, ip, lsr #18
    21c4:	009f0600 	addseq	r0, pc, r0, lsl #12
    21c8:	530c0000 	movwpl	r0, #49152	; 0xc000
    21cc:	01000006 	tsteq	r0, r6
    21d0:	008f4c72 	addeq	r4, pc, r2, ror ip	; <UNPREDICTABLE>
    21d4:	00004c00 	andeq	r4, r0, r0, lsl #24
    21d8:	b79c0100 	ldrlt	r0, [ip, r0, lsl #2]
    21dc:	0d00000a 	stceq	0, cr0, [r0, #-40]	; 0xffffffd8
    21e0:	72010063 	andvc	r0, r1, #99	; 0x63
    21e4:	00000ab7 			; <UNDEFINED> instruction: 0x00000ab7
    21e8:	00000cbe 			; <UNDEFINED> instruction: 0x00000cbe
    21ec:	008f5c0f 	addeq	r5, pc, pc, lsl #24
    21f0:	00117200 	andseq	r7, r1, r0, lsl #4
    21f4:	000a7500 	andeq	r7, sl, r0, lsl #10
    21f8:	50011000 	andpl	r1, r1, r0
    21fc:	b78c0305 	strlt	r0, [ip, r5, lsl #6]
    2200:	0f000000 	svceq	0x00000000
    2204:	00008f6c 	andeq	r8, r0, ip, ror #30
    2208:	00001172 	andeq	r1, r0, r2, ror r1
    220c:	00000a8c 	andeq	r0, r0, ip, lsl #21
    2210:	05500110 	ldrbeq	r0, [r0, #-272]	; 0x110
    2214:	00b79c03 	adcseq	r9, r7, r3, lsl #24
    2218:	780f0000 	stmdavc	pc, {}	; <UNPREDICTABLE>
    221c:	7200008f 	andvc	r0, r0, #143	; 0x8f
    2220:	a3000011 	movwge	r0, #17
    2224:	1000000a 	andne	r0, r0, sl
    2228:	03055001 	movweq	r5, #20481	; 0x5001
    222c:	0000b7ac 	andeq	fp, r0, ip, lsr #15
    2230:	8f841100 	svchi	0x00841100
    2234:	11720000 	cmnne	r2, r0
    2238:	01100000 	tsteq	r0, r0
    223c:	c4030550 	strgt	r0, [r3], #-1360	; 0x550
    2240:	000000b7 	strheq	r0, [r0], -r7
    2244:	af040500 	svcge	0x00040500
    2248:	14000000 	strne	r0, [r0], #-0
    224c:	000005c1 	andeq	r0, r0, r1, asr #11
    2250:	8f987c01 	svchi	0x00987c01
    2254:	01c00000 	biceq	r0, r0, r0
    2258:	9c010000 	stcls	0, cr0, [r1], {-0}
    225c:	00000d47 	andeq	r0, r0, r7, asr #26
    2260:	0100660d 	tsteq	r0, sp, lsl #12
    2264:	000d477c 	andeq	r4, sp, ip, ror r7
    2268:	000cdc00 	andeq	sp, ip, r0, lsl #24
    226c:	001c1500 	andseq	r1, ip, r0, lsl #10
    2270:	0d5d0000 	ldcleq	0, cr0, [sp, #-0]
    2274:	03050000 	movweq	r0, #20480	; 0x5000
    2278:	0000b900 	andeq	fp, r0, r0, lsl #18
    227c:	008fb013 	addeq	fp, pc, r3, lsl r0	; <UNPREDICTABLE>
    2280:	00119300 	andseq	r9, r1, r0, lsl #6
    2284:	8fcc0f00 	svchi	0x00cc0f00
    2288:	11720000 	cmnne	r2, r0
    228c:	0b300000 	bleq	c02294 <__bss_end__+0xbf5c4c>
    2290:	01100000 	tsteq	r0, r0
    2294:	7d080253 	sfmvc	f0, 4, [r8, #-332]	; 0xfffffeb4
    2298:	05520110 	ldrbeq	r0, [r2, #-272]	; 0x110
    229c:	00b90003 	adcseq	r0, r9, r3
    22a0:	51011000 	mrspl	r1, (UNDEF: 1)
    22a4:	b5900305 	ldrlt	r0, [r0, #773]	; 0x305
    22a8:	01100000 	tsteq	r0, r0
    22ac:	b8030550 	stmdalt	r3, {r4, r6, r8, sl}
    22b0:	100000af 	andne	r0, r0, pc, lsr #1
    22b4:	05007d02 	streq	r7, [r0, #-3330]	; 0xd02
    22b8:	00b7dc03 	adcseq	sp, r7, r3, lsl #24
    22bc:	d0130000 	andsle	r0, r3, r0
    22c0:	9a00008f 	bls	2504 <__code_start__-0x5afc>
    22c4:	13000011 	movwne	r0, #17
    22c8:	00008fe4 	andeq	r8, r0, r4, ror #31
    22cc:	00001193 	muleq	r0, r3, r1
    22d0:	0090000f 	addseq	r0, r0, pc
    22d4:	00117200 	andseq	r7, r1, r0, lsl #4
    22d8:	000b7b00 	andeq	r7, fp, r0, lsl #22
    22dc:	53011000 	movwpl	r1, #4096	; 0x1000
    22e0:	107e0802 	rsbsne	r0, lr, r2, lsl #16
    22e4:	03055201 	movweq	r5, #20993	; 0x5201
    22e8:	0000b900 	andeq	fp, r0, r0, lsl #18
    22ec:	05510110 	ldrbeq	r0, [r1, #-272]	; 0x110
    22f0:	00b59003 	adcseq	r9, r5, r3
    22f4:	50011000 	andpl	r1, r1, r0
    22f8:	afb80305 	svcge	0x00b80305
    22fc:	02100000 	andseq	r0, r0, #0
    2300:	0305007d 	movweq	r0, #20605	; 0x507d
    2304:	0000b7ec 	andeq	fp, r0, ip, ror #15
    2308:	90041300 	andls	r1, r4, r0, lsl #6
    230c:	119a0000 	orrsne	r0, sl, r0
    2310:	14130000 	ldrne	r0, [r3], #-0
    2314:	93000090 	movwls	r0, #144	; 0x90
    2318:	0f000011 	svceq	0x00000011
    231c:	00009030 	andeq	r9, r0, r0, lsr r0
    2320:	00001172 	andeq	r1, r0, r2, ror r1
    2324:	00000bc6 	andeq	r0, r0, r6, asr #23
    2328:	02530110 	subseq	r0, r3, #16, 2
    232c:	01107f08 	tsteq	r0, r8, lsl #30
    2330:	00030552 	andeq	r0, r3, r2, asr r5
    2334:	100000b9 	strhne	r0, [r0], -r9
    2338:	03055101 	movweq	r5, #20737	; 0x5101
    233c:	0000b590 	muleq	r0, r0, r5
    2340:	05500110 	ldrbeq	r0, [r0, #-272]	; 0x110
    2344:	00afb803 	adceq	fp, pc, r3, lsl #16
    2348:	7d021000 	stcvc	0, cr1, [r2, #-0]
    234c:	fc030500 	stc2	5, cr0, [r3], {-0}
    2350:	000000b7 	strheq	r0, [r0], -r7
    2354:	00903413 	addseq	r3, r0, r3, lsl r4
    2358:	00119a00 	andseq	r9, r1, r0, lsl #20
    235c:	90441300 	subls	r1, r4, r0, lsl #6
    2360:	11930000 	orrsne	r0, r3, r0
    2364:	600f0000 	andvs	r0, pc, r0
    2368:	72000090 	andvc	r0, r0, #144	; 0x90
    236c:	11000011 	tstne	r0, r1, lsl r0
    2370:	1000000c 	andne	r0, r0, ip
    2374:	08025301 	stmdaeq	r2, {r0, r8, r9, ip, lr}
    2378:	52011080 	andpl	r1, r1, #128	; 0x80
    237c:	b9000305 	stmdblt	r0, {r0, r2, r8, r9}
    2380:	01100000 	tsteq	r0, r0
    2384:	90030551 	andls	r0, r3, r1, asr r5
    2388:	100000b5 	strhne	r0, [r0], -r5
    238c:	03055001 	movweq	r5, #20481	; 0x5001
    2390:	0000afb8 			; <UNDEFINED> instruction: 0x0000afb8
    2394:	007d0210 	rsbseq	r0, sp, r0, lsl r2
    2398:	b8080305 	stmdalt	r8, {r0, r2, r8, r9}
    239c:	13000000 	movwne	r0, #0
    23a0:	00009064 	andeq	r9, r0, r4, rrx
    23a4:	0000119a 	muleq	r0, sl, r1
    23a8:	00907413 	addseq	r7, r0, r3, lsl r4
    23ac:	00119300 	andseq	r9, r1, r0, lsl #6
    23b0:	90900f00 	addsls	r0, r0, r0, lsl #30
    23b4:	11720000 	cmnne	r2, r0
    23b8:	0c5c0000 	mraeq	r0, ip, acc0
    23bc:	01100000 	tsteq	r0, r0
    23c0:	81080253 	tsthi	r8, r3, asr r2
    23c4:	05520110 	ldrbeq	r0, [r2, #-272]	; 0x110
    23c8:	00b90003 	adcseq	r0, r9, r3
    23cc:	51011000 	mrspl	r1, (UNDEF: 1)
    23d0:	b5900305 	ldrlt	r0, [r0, #773]	; 0x305
    23d4:	01100000 	tsteq	r0, r0
    23d8:	b8030550 	stmdalt	r3, {r4, r6, r8, sl}
    23dc:	100000af 	andne	r0, r0, pc, lsr #1
    23e0:	05007d02 	streq	r7, [r0, #-3330]	; 0xd02
    23e4:	00b81403 	adcseq	r1, r8, r3, lsl #8
    23e8:	94130000 	ldrls	r0, [r3], #-0
    23ec:	9a000090 	bls	2634 <__code_start__-0x59cc>
    23f0:	13000011 	movwne	r0, #17
    23f4:	000090a4 	andeq	r9, r0, r4, lsr #1
    23f8:	00001193 	muleq	r0, r3, r1
    23fc:	0090c00f 	addseq	ip, r0, pc
    2400:	00117200 	andseq	r7, r1, r0, lsl #4
    2404:	000ca700 	andeq	sl, ip, r0, lsl #14
    2408:	53011000 	movwpl	r1, #4096	; 0x1000
    240c:	10820802 	addne	r0, r2, r2, lsl #16
    2410:	03055201 	movweq	r5, #20993	; 0x5201
    2414:	0000b900 	andeq	fp, r0, r0, lsl #18
    2418:	05510110 	ldrbeq	r0, [r1, #-272]	; 0x110
    241c:	00b59003 	adcseq	r9, r5, r3
    2420:	50011000 	andpl	r1, r1, r0
    2424:	afb80305 	svcge	0x00b80305
    2428:	02100000 	andseq	r0, r0, #0
    242c:	0305007d 	movweq	r0, #20605	; 0x507d
    2430:	0000b820 	andeq	fp, r0, r0, lsr #16
    2434:	90c41300 	sbcls	r1, r4, r0, lsl #6
    2438:	119a0000 	orrsne	r0, sl, r0
    243c:	d4130000 	ldrle	r0, [r3], #-0
    2440:	93000090 	movwls	r0, #144	; 0x90
    2444:	0f000011 	svceq	0x00000011
    2448:	000090f0 	strdeq	r9, [r0], -r0
    244c:	00001172 	andeq	r1, r0, r2, ror r1
    2450:	00000cf2 	strdeq	r0, [r0], -r2
    2454:	02530110 	subseq	r0, r3, #16, 2
    2458:	01108308 	tsteq	r0, r8, lsl #6
    245c:	00030552 	andeq	r0, r3, r2, asr r5
    2460:	100000b9 	strhne	r0, [r0], -r9
    2464:	03055101 	movweq	r5, #20737	; 0x5101
    2468:	0000b590 	muleq	r0, r0, r5
    246c:	05500110 	ldrbeq	r0, [r0, #-272]	; 0x110
    2470:	00afb803 	adceq	fp, pc, r3, lsl #16
    2474:	7d021000 	stcvc	0, cr1, [r2, #-0]
    2478:	2c030500 	cfstr32cs	mvfx0, [r3], {-0}
    247c:	000000b8 	strheq	r0, [r0], -r8
    2480:	0090f413 	addseq	pc, r0, r3, lsl r4	; <UNPREDICTABLE>
    2484:	00119a00 	andseq	r9, r1, r0, lsl #20
    2488:	91041300 	mrsls	r1, LR_abt
    248c:	11930000 	orrsne	r0, r3, r0
    2490:	200f0000 	andcs	r0, pc, r0
    2494:	72000091 	andvc	r0, r0, #145	; 0x91
    2498:	3d000011 	stccc	0, cr0, [r0, #-68]	; 0xffffffbc
    249c:	1000000d 	andne	r0, r0, sp
    24a0:	08025301 	stmdaeq	r2, {r0, r8, r9, ip, lr}
    24a4:	52011084 	andpl	r1, r1, #132	; 0x84
    24a8:	b9000305 	stmdblt	r0, {r0, r2, r8, r9}
    24ac:	01100000 	tsteq	r0, r0
    24b0:	90030551 	andls	r0, r3, r1, asr r5
    24b4:	100000b5 	strhne	r0, [r0], -r5
    24b8:	03055001 	movweq	r5, #20481	; 0x5001
    24bc:	0000afb8 			; <UNDEFINED> instruction: 0x0000afb8
    24c0:	007d0210 	rsbseq	r0, sp, r0, lsl r2
    24c4:	b8380305 	ldmdalt	r8!, {r0, r2, r8, r9}
    24c8:	13000000 	movwne	r0, #0
    24cc:	00009124 	andeq	r9, r0, r4, lsr #2
    24d0:	0000119a 	muleq	r0, sl, r1
    24d4:	98040500 	stmdals	r4, {r8, sl}
    24d8:	07000003 	streq	r0, [r0, -r3]
    24dc:	0000007d 	andeq	r0, r0, sp, ror r0
    24e0:	00000d5d 	andeq	r0, r0, sp, asr sp
    24e4:	00007608 	andeq	r7, r0, r8, lsl #12
    24e8:	06000f00 	streq	r0, [r0], -r0, lsl #30
    24ec:	00000d4d 	andeq	r0, r0, sp, asr #26
    24f0:	00032f16 	andeq	r2, r3, r6, lsl pc
    24f4:	98880100 	stmls	r8, {r8}
    24f8:	58000003 	stmdapl	r0, {r0, r1}
    24fc:	08000091 	stmdaeq	r0, {r0, r4, r7}
    2500:	01000000 	mrseq	r0, (UNDEF: 0)
    2504:	058b149c 	streq	r1, [fp, #1180]	; 0x49c
    2508:	8d010000 	stchi	0, cr0, [r1, #-0]
    250c:	00009160 	andeq	r9, r0, r0, ror #2
    2510:	000000b4 	strheq	r0, [r0], -r4
    2514:	0ecf9c01 	cdpeq	12, 12, cr9, cr15, cr1, {0}
    2518:	66170000 	ldrvs	r0, [r7], -r0
    251c:	988e0100 	stmls	lr, {r8}
    2520:	02000003 	andeq	r0, r0, #3
    2524:	1c157491 	cfldrsne	mvf7, [r5], {145}	; 0x91
    2528:	df000000 	svcle	0x00000000
    252c:	0500000e 	streq	r0, [r0, #-14]
    2530:	00b94803 	adcseq	r4, r9, r3, lsl #16
    2534:	917c1800 	cmnls	ip, r0, lsl #16
    2538:	00740000 	rsbseq	r0, r4, r0
    253c:	0eb50000 	cdpeq	0, 11, cr0, cr5, cr0, {0}
    2540:	5f190000 	svcpl	0x00190000
    2544:	01040075 	tsteq	r4, r5, ror r0
    2548:	000dd2a0 	andeq	sp, sp, r0, lsr #5
    254c:	00731a00 	rsbseq	r1, r3, r0, lsl #20
    2550:	0398a001 	orrseq	sl, r8, #1
    2554:	751a0000 	ldrvc	r0, [sl, #-0]
    2558:	2ca00100 	stfcss	f0, [r0]
    255c:	00000000 	andeq	r0, r0, r0
    2560:	01007817 	tsteq	r0, r7, lsl r8
    2564:	000db4a0 	andeq	fp, sp, r0, lsr #9
    2568:	1b530100 	blne	14c2970 <__bss_end__+0x14b6328>
    256c:	00707865 	rsbseq	r7, r0, r5, ror #16
    2570:	002ca001 	eoreq	sl, ip, r1
    2574:	80800000 	addhi	r0, r0, r0
    2578:	05d11c40 	ldrbeq	r1, [r1, #3136]	; 0xc40
    257c:	a0010000 	andge	r0, r1, r0
    2580:	0000002c 	andeq	r0, r0, ip, lsr #32
    2584:	05e21d14 	strbeq	r1, [r2, #3348]!	; 0xd14
    2588:	a0010000 	andge	r0, r1, r0
    258c:	0000002c 	andeq	r0, r0, ip, lsr #32
    2590:	8c130fff 	ldchi	15, cr0, [r3], {255}	; 0xff
    2594:	93000091 	movwls	r0, #145	; 0x91
    2598:	0f000011 	svceq	0x00000011
    259c:	000091c0 	andeq	r9, r0, r0, asr #3
    25a0:	00001172 	andeq	r1, r0, r2, ror r1
    25a4:	00000e60 	andeq	r0, r0, r0, ror #28
    25a8:	02530110 	subseq	r0, r3, #16, 2
    25ac:	0110a008 	tsteq	r0, r8
    25b0:	48030552 	stmdami	r3, {r1, r4, r6, r8, sl}
    25b4:	100000b9 	strhne	r0, [r0], -r9
    25b8:	03055101 	movweq	r5, #20737	; 0x5101
    25bc:	0000b590 	muleq	r0, r0, r5
    25c0:	05500110 	ldrbeq	r0, [r0, #-272]	; 0x110
    25c4:	00b5ac03 	adcseq	sl, r5, r3, lsl #24
    25c8:	7d021000 	stcvc	0, cr1, [r2, #-0]
    25cc:	103c0110 	eorsne	r0, ip, r0, lsl r1
    25d0:	010c7d02 	tsteq	ip, r2, lsl #26
    25d4:	7d021044 	stcvc	0, cr1, [r2, #-272]	; 0xfffffef0
    25d8:	80030508 	andhi	r0, r3, r8, lsl #10
    25dc:	100000b8 	strhne	r0, [r0], -r8
    25e0:	02047d02 	andeq	r7, r4, #2, 26	; 0x80
    25e4:	02100074 	andseq	r0, r0, #116	; 0x74
    25e8:	7402007d 	strvc	r0, [r2], #-125	; 0x7d
    25ec:	c4130000 	ldrgt	r0, [r3], #-0
    25f0:	9a000091 	bls	283c <__code_start__-0x57c4>
    25f4:	13000011 	movwne	r0, #17
    25f8:	000091d0 	ldrdeq	r9, [r0], -r0
    25fc:	00001193 	muleq	r0, r3, r1
    2600:	0091ec0f 	addseq	lr, r1, pc, lsl #24
    2604:	00117200 	andseq	r7, r1, r0, lsl #4
    2608:	000eab00 	andeq	sl, lr, r0, lsl #22
    260c:	53011000 	movwpl	r1, #4096	; 0x1000
    2610:	10a00802 	adcne	r0, r0, r2, lsl #16
    2614:	03055201 	movweq	r5, #20993	; 0x5201
    2618:	0000b948 	andeq	fp, r0, r8, asr #18
    261c:	05510110 	ldrbeq	r0, [r1, #-272]	; 0x110
    2620:	00b59003 	adcseq	r9, r5, r3
    2624:	50011000 	andpl	r1, r1, r0
    2628:	afb80305 	svcge	0x00b80305
    262c:	02100000 	andseq	r0, r0, #0
    2630:	0305007d 	movweq	r0, #20605	; 0x507d
    2634:	0000b5a0 	andeq	fp, r0, r0, lsr #11
    2638:	91f01300 	mvnsls	r1, r0, lsl #6
    263c:	119a0000 	orrsne	r0, sl, r0
    2640:	13000000 	movwne	r0, #0
    2644:	0000916c 	andeq	r9, r0, ip, ror #2
    2648:	00000d62 	andeq	r0, r0, r2, ror #26
    264c:	00917c11 	addseq	r7, r1, r1, lsl ip
    2650:	000abd00 	andeq	fp, sl, r0, lsl #26
    2654:	50011000 	andpl	r1, r1, r0
    2658:	006c9102 	rsbeq	r9, ip, r2, lsl #2
    265c:	007d0700 	rsbseq	r0, sp, r0, lsl #14
    2660:	0edf0000 	cdpeq	0, 13, cr0, cr15, cr0, {0}
    2664:	76080000 	strvc	r0, [r8], -r0
    2668:	11000000 	mrsne	r0, (UNDEF: 0)
    266c:	0ecf0600 	cdpeq	6, 12, cr0, cr15, cr0, {0}
    2670:	970c0000 	strls	r0, [ip, -r0]
    2674:	01000004 	tsteq	r0, r4
    2678:	009214a3 	addseq	r1, r2, r3, lsr #9
    267c:	0001d000 	andeq	sp, r1, r0
    2680:	279c0100 	ldrcs	r0, [ip, r0, lsl #2]
    2684:	0d000011 	stceq	0, cr0, [r0, #-68]	; 0xffffffbc
    2688:	a3010066 	movwge	r0, #4198	; 0x1066
    268c:	00000d47 	andeq	r0, r0, r7, asr #26
    2690:	00000db7 			; <UNDEFINED> instruction: 0x00000db7
    2694:	0092240f 	addseq	r2, r2, pc, lsl #8
    2698:	00117200 	andseq	r7, r1, r0, lsl #4
    269c:	000f1d00 	andeq	r1, pc, r0, lsl #26
    26a0:	50011000 	andpl	r1, r1, r0
    26a4:	b8900305 	ldmlt	r0, {r0, r2, r8, r9}
    26a8:	0f000000 	svceq	0x00000000
    26ac:	00009230 	andeq	r9, r0, r0, lsr r2
    26b0:	00001172 	andeq	r1, r0, r2, ror r1
    26b4:	00000f3a 	andeq	r0, r0, sl, lsr pc
    26b8:	02510110 	subseq	r0, r1, #16, 2
    26bc:	01100074 	tsteq	r0, r4, ror r0
    26c0:	b0030550 	andlt	r0, r3, r0, asr r5
    26c4:	000000b8 	strheq	r0, [r0], -r8
    26c8:	0092440f 	addseq	r4, r2, pc, lsl #8
    26cc:	00117200 	andseq	r7, r1, r0, lsl #4
    26d0:	000f5a00 	andeq	r5, pc, r0, lsl #20
    26d4:	52011000 	andpl	r1, r1, #0
    26d8:	b8800305 	stmlt	r0, {r0, r2, r8, r9}
    26dc:	01100000 	tsteq	r0, r0
    26e0:	54030550 	strpl	r0, [r3], #-1360	; 0x550
    26e4:	000000b7 	strheq	r0, [r0], -r7
    26e8:	00925c0f 	addseq	r5, r2, pc, lsl #24
    26ec:	00117200 	andseq	r7, r1, r0, lsl #4
    26f0:	000f7100 	andeq	r7, pc, r0, lsl #2
    26f4:	50011000 	andpl	r1, r1, r0
    26f8:	b7600305 	strblt	r0, [r0, -r5, lsl #6]!
    26fc:	0f000000 	svceq	0x00000000
    2700:	00009270 	andeq	r9, r0, r0, ror r2
    2704:	00001172 	andeq	r1, r0, r2, ror r1
    2708:	00000f88 	andeq	r0, r0, r8, lsl #31
    270c:	05500110 	ldrbeq	r0, [r0, #-272]	; 0x110
    2710:	00b8b803 	adcseq	fp, r8, r3, lsl #16
    2714:	780f0000 	stmdavc	pc, {}	; <UNPREDICTABLE>
    2718:	72000092 	andvc	r0, r0, #146	; 0x92
    271c:	9f000011 	svcls	0x00000011
    2720:	1000000f 	andne	r0, r0, pc
    2724:	03055001 	movweq	r5, #20481	; 0x5001
    2728:	0000b8cc 	andeq	fp, r0, ip, asr #17
    272c:	92900f00 	addsls	r0, r0, #0, 30
    2730:	11720000 	cmnne	r2, r0
    2734:	0fbf0000 	svceq	0x00bf0000
    2738:	01100000 	tsteq	r0, r0
    273c:	74030552 	strvc	r0, [r3], #-1362	; 0x552
    2740:	100000b8 	strhne	r0, [r0], -r8
    2744:	03055001 	movweq	r5, #20481	; 0x5001
    2748:	0000b754 	andeq	fp, r0, r4, asr r7
    274c:	92a40f00 	adcls	r0, r4, #0, 30
    2750:	11720000 	cmnne	r2, r0
    2754:	0fdf0000 	svceq	0x00df0000
    2758:	01100000 	tsteq	r0, r0
    275c:	70030552 	andvc	r0, r3, r2, asr r5
    2760:	100000b8 	strhne	r0, [r0], -r8
    2764:	03055001 	movweq	r5, #20481	; 0x5001
    2768:	0000b754 	andeq	fp, r0, r4, asr r7
    276c:	92b80f00 	adcsls	r0, r8, #0, 30
    2770:	11720000 	cmnne	r2, r0
    2774:	0fff0000 	svceq	0x00ff0000
    2778:	01100000 	tsteq	r0, r0
    277c:	6c030552 	cfstr32vs	mvfx0, [r3], {82}	; 0x52
    2780:	100000b8 	strhne	r0, [r0], -r8
    2784:	03055001 	movweq	r5, #20481	; 0x5001
    2788:	0000b754 	andeq	fp, r0, r4, asr r7
    278c:	92d00f00 	sbcsls	r0, r0, #0, 30
    2790:	11720000 	cmnne	r2, r0
    2794:	101f0000 	andsne	r0, pc, r0
    2798:	01100000 	tsteq	r0, r0
    279c:	68030552 	stmdavs	r3, {r1, r4, r6, r8, sl}
    27a0:	100000b8 	strhne	r0, [r0], -r8
    27a4:	03055001 	movweq	r5, #20481	; 0x5001
    27a8:	0000b754 	andeq	fp, r0, r4, asr r7
    27ac:	92e80f00 	rscls	r0, r8, #0, 30
    27b0:	11720000 	cmnne	r2, r0
    27b4:	103f0000 	eorsne	r0, pc, r0
    27b8:	01100000 	tsteq	r0, r0
    27bc:	64030552 	strvs	r0, [r3], #-1362	; 0x552
    27c0:	100000b8 	strhne	r0, [r0], -r8
    27c4:	03055001 	movweq	r5, #20481	; 0x5001
    27c8:	0000b754 	andeq	fp, r0, r4, asr r7
    27cc:	93000f00 	movwls	r0, #3840	; 0xf00
    27d0:	11720000 	cmnne	r2, r0
    27d4:	105f0000 	subsne	r0, pc, r0
    27d8:	01100000 	tsteq	r0, r0
    27dc:	60030552 	andvs	r0, r3, r2, asr r5
    27e0:	100000b8 	strhne	r0, [r0], -r8
    27e4:	03055001 	movweq	r5, #20481	; 0x5001
    27e8:	0000b754 	andeq	fp, r0, r4, asr r7
    27ec:	93180f00 	tstls	r8, #0, 30
    27f0:	11720000 	cmnne	r2, r0
    27f4:	107f0000 	rsbsne	r0, pc, r0
    27f8:	01100000 	tsteq	r0, r0
    27fc:	58030552 	stmdapl	r3, {r1, r4, r6, r8, sl}
    2800:	100000b8 	strhne	r0, [r0], -r8
    2804:	03055001 	movweq	r5, #20481	; 0x5001
    2808:	0000b754 	andeq	fp, r0, r4, asr r7
    280c:	93340f00 	teqls	r4, #0, 30
    2810:	11720000 	cmnne	r2, r0
    2814:	10960000 	addsne	r0, r6, r0
    2818:	01100000 	tsteq	r0, r0
    281c:	60030550 	andvs	r0, r3, r0, asr r5
    2820:	000000b7 	strheq	r0, [r0], -r7
    2824:	00934c0f 	addseq	r4, r3, pc, lsl #24
    2828:	00117200 	andseq	r7, r1, r0, lsl #4
    282c:	0010b600 	andseq	fp, r0, r0, lsl #12
    2830:	52011000 	andpl	r1, r1, #0
    2834:	b8540305 	ldmdalt	r4, {r0, r2, r8, r9}^
    2838:	01100000 	tsteq	r0, r0
    283c:	54030550 	strpl	r0, [r3], #-1360	; 0x550
    2840:	000000b7 	strheq	r0, [r0], -r7
    2844:	0093640f 	addseq	r6, r3, pc, lsl #8
    2848:	00117200 	andseq	r7, r1, r0, lsl #4
    284c:	0010d600 	andseq	sp, r0, r0, lsl #12
    2850:	52011000 	andpl	r1, r1, #0
    2854:	b8500305 	ldmdalt	r0, {r0, r2, r8, r9}^
    2858:	01100000 	tsteq	r0, r0
    285c:	54030550 	strpl	r0, [r3], #-1360	; 0x550
    2860:	000000b7 	strheq	r0, [r0], -r7
    2864:	00937c0f 	addseq	r7, r3, pc, lsl #24
    2868:	00117200 	andseq	r7, r1, r0, lsl #4
    286c:	0010f600 	andseq	pc, r0, r0, lsl #12
    2870:	52011000 	andpl	r1, r1, #0
    2874:	b84c0305 	stmdalt	ip, {r0, r2, r8, r9}^
    2878:	01100000 	tsteq	r0, r0
    287c:	54030550 	strpl	r0, [r3], #-1360	; 0x550
    2880:	000000b7 	strheq	r0, [r0], -r7
    2884:	0093900f 	addseq	r9, r3, pc
    2888:	00117200 	andseq	r7, r1, r0, lsl #4
    288c:	00111600 	andseq	r1, r1, r0, lsl #12
    2890:	52011000 	andpl	r1, r1, #0
    2894:	b8480305 	stmdalt	r8, {r0, r2, r8, r9}^
    2898:	01100000 	tsteq	r0, r0
    289c:	54030550 	strpl	r0, [r3], #-1360	; 0x550
    28a0:	000000b7 	strheq	r0, [r0], -r7
    28a4:	00939811 	addseq	r9, r3, r1, lsl r8
    28a8:	000abd00 	andeq	fp, sl, r0, lsl #26
    28ac:	50011000 	andpl	r1, r1, r0
    28b0:	00007402 	andeq	r7, r0, r2, lsl #8
    28b4:	05ea0c00 	strbeq	r0, [sl, #3072]!	; 0xc00
    28b8:	bd010000 	stclt	0, cr0, [r1, #-0]
    28bc:	000093e4 	andeq	r9, r0, r4, ror #7
    28c0:	00000014 	andeq	r0, r0, r4, lsl r0
    28c4:	11589c01 	cmpne	r8, r1, lsl #24
    28c8:	ec130000 	ldc	0, cr0, [r3], {-0}
    28cc:	6e000093 	mcrvs	0, 0, r0, cr0, cr3, {4}
    28d0:	13000004 	movwne	r0, #4
    28d4:	000093f0 	strdeq	r9, [r0], -r0
    28d8:	00000a12 	andeq	r0, r0, r2, lsl sl
    28dc:	0093f413 	addseq	pc, r3, r3, lsl r4	; <UNPREDICTABLE>
    28e0:	000d7700 	andeq	r7, sp, r0, lsl #14
    28e4:	9d1e0000 	ldcls	0, cr0, [lr, #-0]
    28e8:	05000005 	streq	r0, [r0, #-5]
    28ec:	00005d05 	andeq	r5, r0, r5, lsl #26
    28f0:	00117200 	andseq	r7, r1, r0, lsl #4
    28f4:	041e1f00 	ldreq	r1, [lr], #-3840	; 0xf00
    28f8:	251f0000 	ldrcs	r0, [pc, #-0]	; 2900 <__code_start__-0x5700>
    28fc:	00000000 	andeq	r0, r0, r0
    2900:	000a691e 	andeq	r6, sl, lr, lsl r9
    2904:	25290600 	strcs	r0, [r9, #-1536]!	; 0x600
    2908:	88000000 	stmdahi	r0, {}	; <UNPREDICTABLE>
    290c:	1f000011 	svcne	0x00000011
    2910:	00000084 	andeq	r0, r0, r4, lsl #1
    2914:	a1210020 	teqge	r1, r0, lsr #32
    2918:	07000004 	streq	r0, [r0, -r4]
    291c:	00005d6e 	andeq	r5, r0, lr, ror #26
    2920:	00d52200 	sbcseq	r2, r5, r0, lsl #4
    2924:	1e060000 	cdpne	0, 0, cr0, cr6, cr0, {0}
    2928:	0000f922 	andeq	pc, r0, r2, lsr #18
    292c:	00650600 	rsbeq	r0, r5, r0, lsl #12
    2930:	0000151a 	andeq	r1, r0, sl, lsl r5
    2934:	056d0004 	strbeq	r0, [sp, #-4]!
    2938:	01040000 	mrseq	r0, (UNDEF: 4)
    293c:	00000040 	andeq	r0, r0, r0, asr #32
    2940:	0006de01 	andeq	sp, r6, r1, lsl #28
    2944:	00013a00 	andeq	r3, r1, r0, lsl #20
    2948:	0093f800 	addseq	pc, r3, r0, lsl #16
    294c:	00094400 	andeq	r4, r9, r0, lsl #8
    2950:	00069d00 	andeq	r9, r6, r0, lsl #26
    2954:	05040200 	streq	r0, [r4, #-512]	; 0x200
    2958:	00746e69 	rsbseq	r6, r4, r9, ror #28
    295c:	33070403 	movwcc	r0, #29699	; 0x7403
    2960:	03000000 	movweq	r0, #0
    2964:	00c90601 	sbceq	r0, r9, r1, lsl #12
    2968:	02030000 	andeq	r0, r3, #0
    296c:	00010605 	andeq	r0, r1, r5, lsl #12
    2970:	05040300 	streq	r0, [r4, #-768]	; 0x300
    2974:	00000005 	andeq	r0, r0, r5
    2978:	00050803 	andeq	r0, r5, r3, lsl #16
    297c:	03000000 	movweq	r0, #0
    2980:	00c70801 	sbceq	r0, r7, r1, lsl #16
    2984:	02030000 	andeq	r0, r3, #0
    2988:	00011807 	andeq	r1, r1, r7, lsl #16
    298c:	00f00400 	rscseq	r0, r0, r0, lsl #8
    2990:	34040000 	strcc	r0, [r4], #-0
    2994:	00000068 	andeq	r0, r0, r8, rrx
    2998:	2e070403 	cdpcs	4, 0, cr0, cr7, cr3, {0}
    299c:	03000000 	movweq	r0, #0
    29a0:	00290708 	eoreq	r0, r9, r8, lsl #14
    29a4:	04030000 	streq	r0, [r3], #-0
    29a8:	00019907 	andeq	r9, r1, r7, lsl #18
    29ac:	03040500 	movweq	r0, #17664	; 0x4500
    29b0:	00d00801 	sbcseq	r0, r0, r1, lsl #16
    29b4:	04060000 	streq	r0, [r6], #-0
    29b8:	0000008c 	andeq	r0, r0, ip, lsl #1
    29bc:	00007f07 	andeq	r7, r0, r7, lsl #30
    29c0:	035f0800 	cmpeq	pc, #0, 16
    29c4:	03040000 	movweq	r0, #16384	; 0x4000
    29c8:	00016746 	andeq	r6, r1, r6, asr #14
    29cc:	61740900 	cmnvs	r4, r0, lsl #18
    29d0:	48030067 	stmdami	r3, {r0, r1, r2, r5, r6}
    29d4:	0000002c 	andeq	r0, r0, ip, lsr #32
    29d8:	001e0204 	andseq	r0, lr, r4, lsl #4
    29dc:	03004209 	movweq	r4, #521	; 0x209
    29e0:	00002c49 	andeq	r2, r0, r9, asr #24
    29e4:	1d010400 	cfstrsne	mvf0, [r1, #-0]
    29e8:	00430900 	subeq	r0, r3, r0, lsl #18
    29ec:	002c4a03 	eoreq	r4, ip, r3, lsl #20
    29f0:	01040000 	mrseq	r0, (UNDEF: 4)
    29f4:	5809001c 	stmdapl	r9, {r2, r3, r4}
    29f8:	4b03004e 	blmi	c2b38 <__bss_end__+0xb64f0>
    29fc:	0000002c 	andeq	r0, r0, ip, lsr #32
    2a00:	001b0104 	andseq	r0, fp, r4, lsl #2
    2a04:	0004ed0a 	andeq	lr, r4, sl, lsl #26
    2a08:	2c4e0300 	mcrrcs	3, 0, r0, lr, cr0
    2a0c:	04000000 	streq	r0, [r0], #-0
    2a10:	09001704 	stmdbeq	r0, {r2, r8, r9, sl, ip}
    2a14:	00504d49 	subseq	r4, r0, r9, asr #26
    2a18:	002c4f03 	eoreq	r4, ip, r3, lsl #30
    2a1c:	01040000 	mrseq	r0, (UNDEF: 4)
    2a20:	41090016 	tstmi	r9, r6, lsl r0
    2a24:	52030050 	andpl	r0, r3, #80	; 0x50
    2a28:	0000002c 	andeq	r0, r0, ip, lsr #32
    2a2c:	00140204 	andseq	r0, r4, r4, lsl #4
    2a30:	58455409 	stmdapl	r5, {r0, r3, sl, ip, lr}^
    2a34:	2c530300 	mrrccs	3, 0, r0, r3, cr0
    2a38:	04000000 	streq	r0, [r0], #-0
    2a3c:	09001103 	stmdbeq	r0, {r0, r1, r8, ip}
    2a40:	00585041 	subseq	r5, r8, r1, asr #32
    2a44:	002c5403 	eoreq	r5, ip, r3, lsl #8
    2a48:	01040000 	mrseq	r0, (UNDEF: 4)
    2a4c:	53090010 	movwpl	r0, #36880	; 0x9010
    2a50:	2c550300 	mrrccs	3, 0, r0, r5, cr0
    2a54:	04000000 	streq	r0, [r0], #-0
    2a58:	09000f01 	stmdbeq	r0, {r0, r8, r9, sl, fp}
    2a5c:	0300476e 	movweq	r4, #1902	; 0x76e
    2a60:	00002c56 	andeq	r2, r0, r6, asr ip
    2a64:	0e010400 	cfcpyseq	mvf0, mvf1
    2a68:	03070a00 	movweq	r0, #31232	; 0x7a00
    2a6c:	57030000 	strpl	r0, [r3, -r0]
    2a70:	0000002c 	andeq	r0, r0, ip, lsr #32
    2a74:	000d0104 	andeq	r0, sp, r4, lsl #2
    2a78:	0004fa0a 	andeq	pc, r4, sl, lsl #20
    2a7c:	2c580300 	mrrccs	3, 0, r0, r8, cr0
    2a80:	04000000 	streq	r0, [r0], #-0
    2a84:	0a000c01 	beq	5a90 <__code_start__-0x2570>
    2a88:	00000273 	andeq	r0, r0, r3, ror r2
    2a8c:	002c5903 	eoreq	r5, ip, r3, lsl #18
    2a90:	0c040000 	stceq	0, cr0, [r4], {-0}
    2a94:	04000000 	streq	r0, [r0], #-0
    2a98:	000002d1 	ldrdeq	r0, [r0], -r1
    2a9c:	00915a03 	addseq	r5, r1, r3, lsl #20
    2aa0:	010b0000 	mrseq	r0, (UNDEF: 11)
    2aa4:	01936803 	orrseq	r6, r3, r3, lsl #16
    2aa8:	100c0000 	andne	r0, ip, r0
    2aac:	00000008 	andeq	r0, r0, r8
    2ab0:	0007910c 	andeq	r9, r7, ip, lsl #2
    2ab4:	b70c0100 	strlt	r0, [ip, -r0, lsl #2]
    2ab8:	02000007 	andeq	r0, r0, #7
    2abc:	0006e90c 	andeq	lr, r6, ip, lsl #18
    2ac0:	0d000300 	stceq	3, cr0, [r0, #-0]
    2ac4:	c026050c 	eorgt	r0, r6, ip, lsl #10
    2ac8:	0e000001 	cdpeq	0, 0, cr0, cr0, cr1, {0}
    2acc:	0000082e 	andeq	r0, r0, lr, lsr #16
    2ad0:	005d2705 	subseq	r2, sp, r5, lsl #14
    2ad4:	0e000000 	cdpeq	0, 0, cr0, cr0, cr0, {0}
    2ad8:	00000871 	andeq	r0, r0, r1, ror r8
    2adc:	005d2805 	subseq	r2, sp, r5, lsl #16
    2ae0:	0e040000 	cdpeq	0, 0, cr0, cr4, cr0, {0}
    2ae4:	000007de 	ldrdeq	r0, [r0], -lr
    2ae8:	005d2905 	subseq	r2, sp, r5, lsl #18
    2aec:	00080000 	andeq	r0, r8, r0
    2af0:	00093b04 	andeq	r3, r9, r4, lsl #22
    2af4:	932a0500 	teqls	sl, #0, 10
    2af8:	0b000001 	bleq	2b04 <__code_start__-0x54fc>
    2afc:	dd130104 	ldfles	f0, [r3, #-16]
    2b00:	0c000001 	stceq	0, cr0, [r0], {1}
    2b04:	00000557 	andeq	r0, r0, r7, asr r5
    2b08:	00c08080 	sbceq	r8, r0, r0, lsl #1
    2b0c:	01010b00 	tsteq	r1, r0, lsl #22
    2b10:	0001f216 	andeq	pc, r1, r6, lsl r2	; <UNPREDICTABLE>
    2b14:	07360c00 	ldreq	r0, [r6, -r0, lsl #24]!
    2b18:	0c010000 	stceq	0, cr0, [r1], {-0}
    2b1c:	00000704 	andeq	r0, r0, r4, lsl #14
    2b20:	040d0002 	streq	r0, [sp], #-2
    2b24:	02635201 	rsbeq	r5, r3, #268435456	; 0x10000000
    2b28:	560a0000 	strpl	r0, [sl], -r0
    2b2c:	01000009 	tsteq	r0, r9
    2b30:	00002c53 	andeq	r2, r0, r3, asr ip
    2b34:	1c040400 	cfstrsne	mvf0, [r4], {-0}
    2b38:	04ed0a00 	strbteq	r0, [sp], #2560	; 0xa00
    2b3c:	54010000 	strpl	r0, [r1], #-0
    2b40:	0000002c 	andeq	r0, r0, ip, lsr #32
    2b44:	00180404 	andseq	r0, r8, r4, lsl #8
    2b48:	0007620a 	andeq	r6, r7, sl, lsl #4
    2b4c:	2c550100 	ldfcse	f0, [r5], {-0}
    2b50:	04000000 	streq	r0, [r0], #-0
    2b54:	0a001701 	beq	8760 <mmu_pt_alloc+0x40>
    2b58:	00000902 	andeq	r0, r0, r2, lsl #18
    2b5c:	002c5601 	eoreq	r5, ip, r1, lsl #12
    2b60:	01040000 	mrseq	r0, (UNDEF: 4)
    2b64:	d00a0016 	andle	r0, sl, r6, lsl r0
    2b68:	01000006 	tsteq	r0, r6
    2b6c:	00002c57 	andeq	r2, r0, r7, asr ip
    2b70:	15010400 	strne	r0, [r1, #-1024]	; 0x400
    2b74:	72770900 	rsbsvc	r0, r7, #0, 18
    2b78:	2c580100 	ldfcse	f0, [r8], {-0}
    2b7c:	04000000 	streq	r0, [r0], #-0
    2b80:	0a001401 	beq	7b8c <__code_start__-0x474>
    2b84:	00000908 	andeq	r0, r0, r8, lsl #18
    2b88:	002c5901 	eoreq	r5, ip, r1, lsl #18
    2b8c:	14040000 	strne	r0, [r4], #-0
    2b90:	04000000 	streq	r0, [r0], #-0
    2b94:	00000723 	andeq	r0, r0, r3, lsr #14
    2b98:	01f25a01 	mvnseq	r5, r1, lsl #20
    2b9c:	010b0000 	mrseq	r0, (UNDEF: 11)
    2ba0:	02e95c01 	rsceq	r5, r9, #256	; 0x100
    2ba4:	190c0000 	stmdbne	ip, {}	; <UNPREDICTABLE>
    2ba8:	01000007 	tsteq	r0, r7
    2bac:	0009480c 	andeq	r4, r9, ip, lsl #16
    2bb0:	390c0000 	stmdbcc	ip, {}	; <UNPREDICTABLE>
    2bb4:	03000008 	movweq	r0, #8
    2bb8:	00068c0c 	andeq	r8, r6, ip, lsl #24
    2bbc:	480c0400 	stmdami	ip, {sl}
    2bc0:	0c000008 	stceq	0, cr0, [r0], {8}
    2bc4:	0007c40c 	andeq	ip, r7, ip, lsl #8
    2bc8:	670c0e00 	strvs	r0, [ip, -r0, lsl #28]
    2bcc:	05000007 	streq	r0, [r0, #-7]
    2bd0:	0008e10c 	andeq	lr, r8, ip, lsl #2
    2bd4:	f50c0700 			; <UNDEFINED> instruction: 0xf50c0700
    2bd8:	09000006 	stmdbeq	r0, {r1, r2}
    2bdc:	0006800c 	andeq	r8, r6, ip
    2be0:	5d0c0b00 	vstrpl	d0, [ip, #-0]
    2be4:	0d000009 	stceq	0, cr0, [r0, #-36]	; 0xffffffdc
    2be8:	00081e0c 	andeq	r1, r8, ip, lsl #28
    2bec:	f20c0f00 	vmax.f32	d0, d12, d0
    2bf0:	08000008 	stmdaeq	r0, {r3}
    2bf4:	0007fe0c 	andeq	pc, r7, ip, lsl #28
    2bf8:	d50c0a00 	strle	r0, [ip, #-2560]	; 0xa00
    2bfc:	14000006 	strne	r0, [r0], #-6
    2c00:	0008a00c 	andeq	sl, r8, ip
    2c04:	c10c1a00 	tstgt	ip, r0, lsl #20
    2c08:	16000006 	strne	r0, [r0], -r6
    2c0c:	00069f0c 	andeq	r9, r6, ip, lsl #30
    2c10:	2a0c1800 	bcs	308c18 <__bss_end__+0x2fc5d0>
    2c14:	02000007 	andeq	r0, r0, #7
    2c18:	08d20f00 	ldmeq	r2, {r8, r9, sl, fp}^
    2c1c:	1c010000 	stcne	0, cr0, [r1], {-0}
    2c20:	000001c0 	andeq	r0, r0, r0, asr #3
    2c24:	000093f8 	strdeq	r9, [r0], -r8
    2c28:	0000001c 	andeq	r0, r0, ip, lsl r0
    2c2c:	62109c01 	andsvs	r9, r0, #256	; 0x100
    2c30:	01000008 	tsteq	r0, r8
    2c34:	0094141f 	addseq	r1, r4, pc, lsl r4
    2c38:	00001800 	andeq	r1, r0, r0, lsl #16
    2c3c:	3b9c0100 	blcc	fe703044 <__bss_end__+0xfe6f69fc>
    2c40:	11000003 	tstne	r0, r3
    2c44:	00000871 	andeq	r0, r0, r1, ror r8
    2c48:	005d1f01 	subseq	r1, sp, r1, lsl #30
    2c4c:	50010000 	andpl	r0, r1, r0
    2c50:	00082e11 	andeq	r2, r8, r1, lsl lr
    2c54:	5d1f0100 	ldfpls	f0, [pc, #-0]	; 2c5c <__code_start__-0x53a4>
    2c58:	01000000 	mrseq	r0, (UNDEF: 0)
    2c5c:	07e41151 	ubfxeq	r1, r1, #2, #5
    2c60:	1f010000 	svcne	0x00010000
    2c64:	0000005d 	andeq	r0, r0, sp, asr r0
    2c68:	10005201 	andne	r5, r0, r1, lsl #4
    2c6c:	0000090e 	andeq	r0, r0, lr, lsl #18
    2c70:	942c2601 	strtls	r2, [ip], #-1537	; 0x601
    2c74:	00f00000 	rscseq	r0, r0, r0
    2c78:	9c010000 	stcls	0, cr0, [r1], {-0}
    2c7c:	000004c9 	andeq	r0, r0, r9, asr #9
    2c80:	00637012 	rsbeq	r7, r3, r2, lsl r0
    2c84:	005d2601 	subseq	r2, sp, r1, lsl #12
    2c88:	0dd50000 	ldcleq	0, cr0, [r5]
    2c8c:	7c130000 	ldcvc	0, cr0, [r3], {-0}
    2c90:	01000002 	tsteq	r0, r2
    2c94:	00005d26 	andeq	r5, r0, r6, lsr #26
    2c98:	000e0100 	andeq	r0, lr, r0, lsl #2
    2c9c:	07e41300 	strbeq	r1, [r4, r0, lsl #6]!
    2ca0:	26010000 	strcs	r0, [r1], -r0
    2ca4:	0000005d 	andeq	r0, r0, sp, asr r0
    2ca8:	00000e2d 	andeq	r0, r0, sp, lsr #28
    2cac:	01006c14 	tsteq	r0, r4, lsl ip
    2cb0:	0001c027 	andeq	ip, r1, r7, lsr #32
    2cb4:	64910200 	ldrvs	r0, [r1], #512	; 0x200
    2cb8:	00001c15 	andeq	r1, r0, r5, lsl ip
    2cbc:	0004d900 	andeq	sp, r4, r0, lsl #18
    2cc0:	14030500 	strne	r0, [r3], #-1280	; 0x500
    2cc4:	160000be 			; <UNDEFINED> instruction: 0x160000be
    2cc8:	00009448 	andeq	r9, r0, r8, asr #8
    2ccc:	000002e9 	andeq	r0, r0, r9, ror #5
    2cd0:	000003ab 	andeq	r0, r0, fp, lsr #7
    2cd4:	02500117 	subseq	r0, r0, #-1073741819	; 0xc0000005
    2cd8:	18005c91 	stmdane	r0, {r0, r4, r7, sl, fp, ip, lr}
    2cdc:	00009458 	andeq	r9, r0, r8, asr r4
    2ce0:	00001446 	andeq	r1, r0, r6, asr #8
    2ce4:	00947416 	addseq	r7, r4, r6, lsl r4
    2ce8:	00144d00 	andseq	r4, r4, r0, lsl #26
    2cec:	0003ed00 	andeq	lr, r3, r0, lsl #26
    2cf0:	53011700 	movwpl	r1, #5888	; 0x1700
    2cf4:	17280802 	strne	r0, [r8, -r2, lsl #16]!
    2cf8:	03055201 	movweq	r5, #20993	; 0x5201
    2cfc:	0000be14 	andeq	fp, r0, r4, lsl lr
    2d00:	05510117 	ldrbeq	r0, [r1, #-279]	; 0x117
    2d04:	00b95c03 	adcseq	r5, r9, r3, lsl #24
    2d08:	50011700 	andpl	r1, r1, r0, lsl #14
    2d0c:	afb80305 	svcge	0x00b80305
    2d10:	02170000 	andseq	r0, r7, #0
    2d14:	0305007d 	movweq	r0, #20605	; 0x507d
    2d18:	0000b968 	andeq	fp, r0, r8, ror #18
    2d1c:	94781800 	ldrbtls	r1, [r8], #-2048	; 0x800
    2d20:	14630000 	strbtne	r0, [r3], #-0
    2d24:	88180000 	ldmdahi	r8, {}	; <UNPREDICTABLE>
    2d28:	46000094 			; <UNDEFINED> instruction: 0x46000094
    2d2c:	16000014 			; <UNDEFINED> instruction: 0x16000014
    2d30:	000094a4 	andeq	r9, r0, r4, lsr #9
    2d34:	0000144d 	andeq	r1, r0, sp, asr #8
    2d38:	00000438 	andeq	r0, r0, r8, lsr r4
    2d3c:	02530117 	subseq	r0, r3, #-1073741819	; 0xc0000005
    2d40:	01172908 	tsteq	r7, r8, lsl #18
    2d44:	14030552 	strne	r0, [r3], #-1362	; 0x552
    2d48:	170000be 			; <UNDEFINED> instruction: 0x170000be
    2d4c:	03055101 	movweq	r5, #20737	; 0x5101
    2d50:	0000b95c 	andeq	fp, r0, ip, asr r9
    2d54:	05500117 	ldrbeq	r0, [r0, #-279]	; 0x117
    2d58:	00afb803 	adceq	fp, pc, r3, lsl #16
    2d5c:	7d021700 	stcvc	7, cr1, [r2, #-0]
    2d60:	80030500 	andhi	r0, r3, r0, lsl #10
    2d64:	000000b9 	strheq	r0, [r0], -r9
    2d68:	0094a818 	addseq	sl, r4, r8, lsl r8
    2d6c:	00146300 	andseq	r6, r4, r0, lsl #6
    2d70:	94b81800 	ldrtls	r1, [r8], #2048	; 0x800
    2d74:	14460000 	strbne	r0, [r6], #-0
    2d78:	d4160000 	ldrle	r0, [r6], #-0
    2d7c:	4d000094 	stcmi	0, cr0, [r0, #-592]	; 0xfffffdb0
    2d80:	83000014 	movwhi	r0, #20
    2d84:	17000004 	strne	r0, [r0, -r4]
    2d88:	08025301 	stmdaeq	r2, {r0, r8, r9, ip, lr}
    2d8c:	5201172a 	andpl	r1, r1, #11010048	; 0xa80000
    2d90:	be140305 	cdplt	3, 1, cr0, cr4, cr5, {0}
    2d94:	01170000 	tsteq	r7, r0
    2d98:	5c030551 	cfstr32pl	mvfx0, [r3], {81}	; 0x51
    2d9c:	170000b9 			; <UNDEFINED> instruction: 0x170000b9
    2da0:	03055001 	movweq	r5, #20481	; 0x5001
    2da4:	0000afb8 			; <UNDEFINED> instruction: 0x0000afb8
    2da8:	007d0217 	rsbseq	r0, sp, r7, lsl r2
    2dac:	b9940305 	ldmiblt	r4, {r0, r2, r8, r9}
    2db0:	18000000 	stmdane	r0, {}	; <UNPREDICTABLE>
    2db4:	000094d8 	ldrdeq	r9, [r0], -r8
    2db8:	00001463 	andeq	r1, r0, r3, ror #8
    2dbc:	0094e016 	addseq	lr, r4, r6, lsl r0
    2dc0:	00144d00 	andseq	r4, r4, r0, lsl #26
    2dc4:	0004a300 	andeq	sl, r4, r0, lsl #6
    2dc8:	50011700 	andpl	r1, r1, r0, lsl #14
    2dcc:	aff40305 	svcge	0x00f40305
    2dd0:	19000000 	stmdbne	r0, {}	; <UNPREDICTABLE>
    2dd4:	000094f4 	strdeq	r9, [r0], -r4
    2dd8:	0000144d 	andeq	r1, r0, sp, asr #8
    2ddc:	02530117 	subseq	r0, r3, #-1073741819	; 0xc0000005
    2de0:	01170075 	tsteq	r7, r5, ror r0
    2de4:	00740252 	rsbseq	r0, r4, r2, asr r2
    2de8:	02510117 	subseq	r0, r1, #-1073741819	; 0xc0000005
    2dec:	01170076 	tsteq	r7, r6, ror r0
    2df0:	b0030550 	andlt	r0, r3, r0, asr r5
    2df4:	000000b9 	strheq	r0, [r0], -r9
    2df8:	007f1a00 	rsbseq	r1, pc, r0, lsl #20
    2dfc:	04d90000 	ldrbeq	r0, [r9], #0
    2e00:	761b0000 	ldrvc	r0, [fp], -r0
    2e04:	0e000000 	cdpeq	0, 0, cr0, cr0, cr0, {0}
    2e08:	04c90700 	strbeq	r0, [r9], #1792	; 0x700
    2e0c:	971c0000 	ldrls	r0, [ip, -r0]
    2e10:	02000008 	andeq	r0, r0, #8
    2e14:	00005d1c 	andeq	r5, r0, ip, lsl sp
    2e18:	05220300 	streq	r0, [r2, #-768]!	; 0x300
    2e1c:	781d0000 	ldmdavc	sp, {}	; <UNPREDICTABLE>
    2e20:	5d1c0200 	lfmpl	f0, 4, [ip, #-0]
    2e24:	1d000000 	stcne	0, cr0, [r0, #-0]
    2e28:	0200626c 	andeq	r6, r0, #108, 4	; 0xc0000006
    2e2c:	00002c1c 	andeq	r2, r0, ip, lsl ip
    2e30:	62751d00 	rsbsvs	r1, r5, #0, 26
    2e34:	2c1c0200 	lfmcs	f0, 4, [ip], {-0}
    2e38:	1e000000 	cdpne	0, 0, cr0, cr0, cr0, {0}
    2e3c:	0000001c 	andeq	r0, r0, ip, lsl r0
    2e40:	00000532 	andeq	r0, r0, r2, lsr r5
    2e44:	00000897 	muleq	r0, r7, r8
    2e48:	02006e1f 	andeq	r6, r0, #496	; 0x1f0
    2e4c:	00002c1f 	andeq	r2, r0, pc, lsl ip
    2e50:	7f1a0000 	svcvc	0x001a0000
    2e54:	32000000 	andcc	r0, r0, #0
    2e58:	1b000005 	blne	2e74 <__code_start__-0x518c>
    2e5c:	00000076 	andeq	r0, r0, r6, ror r0
    2e60:	22070008 	andcs	r0, r7, #8
    2e64:	20000005 	andcs	r0, r0, r5
    2e68:	00000970 	andeq	r0, r0, r0, ror r9
    2e6c:	002c3901 	eoreq	r3, ip, r1, lsl #18
    2e70:	951c0000 	ldrls	r0, [ip, #-0]
    2e74:	00a40000 	adceq	r0, r4, r0
    2e78:	9c010000 	stcls	0, cr0, [r1], {-0}
    2e7c:	00000657 	andeq	r0, r0, r7, asr r6
    2e80:	6d6f6412 	cfstrdvs	mvd6, [pc, #-72]!	; 2e40 <__code_start__-0x51c0>
    2e84:	2c390100 	ldfcss	f0, [r9], #-0
    2e88:	59000000 	stmdbpl	r0, {}	; <UNPREDICTABLE>
    2e8c:	2100000e 	tstcs	r0, lr
    2e90:	3a010078 	bcc	43078 <__bss_end__+0x36a30>
    2e94:	0000002c 	andeq	r0, r0, ip, lsr #32
    2e98:	00000e85 	andeq	r0, r0, r5, lsl #29
    2e9c:	0004de22 	andeq	sp, r4, r2, lsr #28
    2ea0:	00953800 	addseq	r3, r5, r0, lsl #16
    2ea4:	00006800 	andeq	r6, r0, r0, lsl #16
    2ea8:	4d3b0100 	ldfmis	f0, [fp, #-0]
    2eac:	23000006 	movwcs	r0, #6
    2eb0:	00000501 	andeq	r0, r0, r1, lsl #10
    2eb4:	00000eae 	andeq	r0, r0, lr, lsr #29
    2eb8:	0004f723 	andeq	pc, r4, r3, lsr #14
    2ebc:	000f1600 	andeq	r1, pc, r0, lsl #12
    2ec0:	04ee2300 	strbteq	r2, [lr], #768	; 0x300
    2ec4:	0f5d0000 	svceq	0x005d0000
    2ec8:	38240000 	stmdacc	r4!, {}	; <UNPREDICTABLE>
    2ecc:	68000095 	stmdavs	r0, {r0, r2, r4, r7}
    2ed0:	25000000 	strcs	r0, [r0, #-0]
    2ed4:	00000518 	andeq	r0, r0, r8, lsl r5
    2ed8:	00000f86 	andeq	r0, r0, r6, lsl #31
    2edc:	00050b26 	andeq	r0, r5, r6, lsr #22
    2ee0:	98030500 	stmdals	r3, {r8, sl}
    2ee4:	180000be 	stmdane	r0, {r1, r2, r3, r4, r5, r7}
    2ee8:	00009544 	andeq	r9, r0, r4, asr #10
    2eec:	00001446 	andeq	r1, r0, r6, asr #8
    2ef0:	00956016 	addseq	r6, r5, r6, lsl r0
    2ef4:	00144d00 	andseq	r4, r4, r0, lsl #26
    2ef8:	0005f800 	andeq	pc, r5, r0, lsl #16
    2efc:	53011700 	movwpl	r1, #5888	; 0x1700
    2f00:	01174d01 	tsteq	r7, r1, lsl #26
    2f04:	98030552 	stmdals	r3, {r1, r4, r6, r8, sl}
    2f08:	170000be 			; <UNDEFINED> instruction: 0x170000be
    2f0c:	03055101 	movweq	r5, #20737	; 0x5101
    2f10:	0000b9e4 	andeq	fp, r0, r4, ror #19
    2f14:	05500117 	ldrbeq	r0, [r0, #-279]	; 0x117
    2f18:	00afb803 	adceq	fp, pc, r3, lsl #16
    2f1c:	7d021700 	stcvc	7, cr1, [r2, #-0]
    2f20:	f4030500 	vst3.8	{d0,d2,d4}, [r3], r0
    2f24:	000000b9 	strheq	r0, [r0], -r9
    2f28:	00956418 	addseq	r6, r5, r8, lsl r4
    2f2c:	00146300 	andseq	r6, r4, r0, lsl #6
    2f30:	95701800 	ldrbls	r1, [r0, #-2048]!	; 0x800
    2f34:	14460000 	strbne	r0, [r6], #-0
    2f38:	8c160000 	ldchi	0, cr0, [r6], {-0}
    2f3c:	4d000095 	stcmi	0, cr0, [r0, #-596]	; 0xfffffdac
    2f40:	42000014 	andmi	r0, r0, #20
    2f44:	17000006 	strne	r0, [r0, -r6]
    2f48:	4e015301 	cdpmi	3, 0, cr5, cr1, cr1, {0}
    2f4c:	05520117 	ldrbeq	r0, [r2, #-279]	; 0x117
    2f50:	00be9803 	adcseq	r9, lr, r3, lsl #16
    2f54:	51011700 	tstpl	r1, r0, lsl #14
    2f58:	b9e40305 	stmiblt	r4!, {r0, r2, r8, r9}^
    2f5c:	01170000 	tsteq	r7, r0
    2f60:	b8030550 	stmdalt	r3, {r4, r6, r8, sl}
    2f64:	170000af 	strne	r0, [r0, -pc, lsr #1]
    2f68:	05007d02 	streq	r7, [r0, #-3330]	; 0xd02
    2f6c:	00ba0003 	adcseq	r0, sl, r3
    2f70:	90180000 	andsls	r0, r8, r0
    2f74:	63000095 	movwvs	r0, #149	; 0x95
    2f78:	00000014 	andeq	r0, r0, r4, lsl r0
    2f7c:	952c1800 	strls	r1, [ip, #-2048]!	; 0x800
    2f80:	146a0000 	strbtne	r0, [sl], #-0
    2f84:	27000000 	strcs	r0, [r0, -r0]
    2f88:	000008c5 	andeq	r0, r0, r5, asr #17
    2f8c:	95c04001 	strbls	r4, [r0, #1]
    2f90:	00940000 	addseq	r0, r4, r0
    2f94:	9c010000 	stcls	0, cr0, [r1], {-0}
    2f98:	00000771 	andeq	r0, r0, r1, ror r7
    2f9c:	6d6f6412 	cfstrdvs	mvd6, [pc, #-72]!	; 2f5c <__code_start__-0x50a4>
    2fa0:	2c400100 	stfcse	f0, [r0], {-0}
    2fa4:	c4000000 	strgt	r0, [r0], #-0
    2fa8:	1300000f 	movwne	r0, #15
    2fac:	000003fb 	strdeq	r0, [r0], -fp
    2fb0:	002c4001 	eoreq	r4, ip, r1
    2fb4:	10170000 	andsne	r0, r7, r0
    2fb8:	1c150000 	ldcne	0, cr0, [r5], {-0}
    2fbc:	81000000 	mrshi	r0, (UNDEF: 0)
    2fc0:	05000007 	streq	r0, [r0, #-7]
    2fc4:	00bea403 	adcseq	sl, lr, r3, lsl #8
    2fc8:	95d41800 	ldrbls	r1, [r4, #2048]	; 0x800
    2fcc:	14460000 	strbne	r0, [r6], #-0
    2fd0:	f0160000 			; <UNDEFINED> instruction: 0xf0160000
    2fd4:	4d000095 	stcmi	0, cr0, [r0, #-596]	; 0xfffffdac
    2fd8:	db000014 	blle	3030 <__code_start__-0x4fd0>
    2fdc:	17000006 	strne	r0, [r0, -r6]
    2fe0:	08025301 	stmdaeq	r2, {r0, r8, r9, ip, lr}
    2fe4:	52011741 	andpl	r1, r1, #17039360	; 0x1040000
    2fe8:	bea40305 	cdplt	3, 10, cr0, cr4, cr5, {0}
    2fec:	01170000 	tsteq	r7, r0
    2ff0:	5c030551 	cfstr32pl	mvfx0, [r3], {81}	; 0x51
    2ff4:	170000b9 			; <UNDEFINED> instruction: 0x170000b9
    2ff8:	03055001 	movweq	r5, #20481	; 0x5001
    2ffc:	0000afb8 			; <UNDEFINED> instruction: 0x0000afb8
    3000:	007d0217 	rsbseq	r0, sp, r7, lsl r2
    3004:	b2780305 	rsbslt	r0, r8, #335544320	; 0x14000000
    3008:	18000000 	stmdane	r0, {}	; <UNPREDICTABLE>
    300c:	000095f4 	strdeq	r9, [r0], -r4
    3010:	00001463 	andeq	r1, r0, r3, ror #8
    3014:	00960018 	addseq	r0, r6, r8, lsl r0
    3018:	00144600 	andseq	r4, r4, r0, lsl #12
    301c:	961c1600 	ldrls	r1, [ip], -r0, lsl #12
    3020:	144d0000 	strbne	r0, [sp], #-0
    3024:	07260000 	streq	r0, [r6, -r0]!
    3028:	01170000 	tsteq	r7, r0
    302c:	42080253 	andmi	r0, r8, #805306373	; 0x30000005
    3030:	05520117 	ldrbeq	r0, [r2, #-279]	; 0x117
    3034:	00bea403 	adcseq	sl, lr, r3, lsl #8
    3038:	51011700 	tstpl	r1, r0, lsl #14
    303c:	b95c0305 	ldmdblt	ip, {r0, r2, r8, r9}^
    3040:	01170000 	tsteq	r7, r0
    3044:	b8030550 	stmdalt	r3, {r4, r6, r8, sl}
    3048:	170000af 	strne	r0, [r0, -pc, lsr #1]
    304c:	05007d02 	streq	r7, [r0, #-3330]	; 0xd02
    3050:	00ba0803 	adcseq	r0, sl, r3, lsl #16
    3054:	20180000 	andscs	r0, r8, r0
    3058:	63000096 	movwvs	r0, #150	; 0x96
    305c:	18000014 	stmdane	r0, {r2, r4}
    3060:	00009624 	andeq	r9, r0, r4, lsr #12
    3064:	00001446 	andeq	r1, r0, r6, asr #8
    3068:	00963816 	addseq	r3, r6, r6, lsl r8
    306c:	00144d00 	andseq	r4, r4, r0, lsl #26
    3070:	00076700 	andeq	r6, r7, r0, lsl #14
    3074:	53011700 	movwpl	r1, #5888	; 0x1700
    3078:	17440802 	strbne	r0, [r4, -r2, lsl #16]
    307c:	03055201 	movweq	r5, #20993	; 0x5201
    3080:	0000bea4 	andeq	fp, r0, r4, lsr #29
    3084:	05510117 	ldrbeq	r0, [r1, #-279]	; 0x117
    3088:	00b95c03 	adcseq	r5, r9, r3, lsl #24
    308c:	50011700 	andpl	r1, r1, r0, lsl #14
    3090:	ba340305 	blt	d03cac <__bss_end__+0xcf7664>
    3094:	18000000 	stmdane	r0, {}	; <UNPREDICTABLE>
    3098:	0000963c 	andeq	r9, r0, ip, lsr r6
    309c:	00001463 	andeq	r1, r0, r3, ror #8
    30a0:	007f1a00 	rsbseq	r1, pc, r0, lsl #20
    30a4:	07810000 	streq	r0, [r1, r0]
    30a8:	761b0000 	ldrvc	r0, [fp], -r0
    30ac:	0c000000 	stceq	0, cr0, [r0], {-0}
    30b0:	07710700 	ldrbeq	r0, [r1, -r0, lsl #14]!
    30b4:	1d280000 	stcne	0, cr0, [r8, #-0]
    30b8:	01000009 	tsteq	r0, r9
    30bc:	0096544e 	addseq	r5, r6, lr, asr #8
    30c0:	00001400 	andeq	r1, r0, r0, lsl #8
    30c4:	109c0100 	addsne	r0, ip, r0, lsl #2
    30c8:	000006af 	andeq	r0, r0, pc, lsr #13
    30cc:	96687301 	strbtls	r7, [r8], -r1, lsl #6
    30d0:	031c0000 	tsteq	ip, #0
    30d4:	9c010000 	stcls	0, cr0, [r1], {-0}
    30d8:	00000d19 	andeq	r0, r0, r9, lsl sp
    30dc:	00726c12 	rsbseq	r6, r2, r2, lsl ip
    30e0:	002c7301 	eoreq	r7, ip, r1, lsl #6
    30e4:	106a0000 	rsbne	r0, sl, r0
    30e8:	b2290000 	eorlt	r0, r9, #0
    30ec:	01000007 	tsteq	r0, r7
    30f0:	0002637f 	andeq	r6, r2, pc, ror r3
    30f4:	00126600 	andseq	r6, r2, r0, lsl #12
    30f8:	61662100 	cmnvs	r6, r0, lsl #2
    30fc:	80010072 	andhi	r0, r1, r2, ror r0
    3100:	0000005d 	andeq	r0, r0, sp, asr r0
    3104:	00001279 	andeq	r1, r0, r9, ror r2
    3108:	0007e429 	andeq	lr, r7, r9, lsr #8
    310c:	2c850100 	stfcss	f0, [r5], {0}
    3110:	8d000000 	stchi	0, cr0, [r0, #-0]
    3114:	2a000012 	bcs	3164 <__code_start__-0x4e9c>
    3118:	0000070d 	andeq	r0, r0, sp, lsl #14
    311c:	002c8601 	eoreq	r8, ip, r1, lsl #12
    3120:	80800000 	addhi	r0, r0, r0
    3124:	001c1540 	andseq	r1, ip, r0, asr #10
    3128:	0d290000 	stceq	0, cr0, [r9, #-0]
    312c:	03050000 	movweq	r0, #20480	; 0x5000
    3130:	0000be24 	andeq	fp, r0, r4, lsr #28
    3134:	00970018 	addseq	r0, r7, r8, lsl r0
    3138:	00144600 	andseq	r4, r4, r0, lsl #12
    313c:	97141600 	ldrls	r1, [r4, -r0, lsl #12]
    3140:	144d0000 	strbne	r0, [sp], #-0
    3144:	083c0000 	ldmdaeq	ip!, {}	; <UNPREDICTABLE>
    3148:	01170000 	tsteq	r7, r0
    314c:	89080253 	stmdbhi	r8, {r0, r1, r4, r6, r9}
    3150:	05520117 	ldrbeq	r0, [r2, #-279]	; 0x117
    3154:	00be2403 	adcseq	r2, lr, r3, lsl #8
    3158:	51011700 	tstpl	r1, r0, lsl #14
    315c:	b95c0305 	ldmdblt	ip, {r0, r2, r8, r9}^
    3160:	01170000 	tsteq	r7, r0
    3164:	60030550 	andvs	r0, r3, r0, asr r5
    3168:	000000ba 	strheq	r0, [r0], -sl
    316c:	00971818 	addseq	r1, r7, r8, lsl r8
    3170:	00146300 	andseq	r6, r4, r0, lsl #6
    3174:	971c1800 	ldrls	r1, [ip, -r0, lsl #16]
    3178:	14460000 	strbne	r0, [r6], #-0
    317c:	30160000 	andscc	r0, r6, r0
    3180:	4d000097 	stcmi	0, cr0, [r0, #-604]	; 0xfffffda4
    3184:	7d000014 	stcvc	0, cr0, [r0, #-80]	; 0xffffffb0
    3188:	17000008 	strne	r0, [r0, -r8]
    318c:	08025301 	stmdaeq	r2, {r0, r8, r9, ip, lr}
    3190:	5201178c 	andpl	r1, r1, #140, 14	; 0x2300000
    3194:	be240305 	cdplt	3, 2, cr0, cr4, cr5, {0}
    3198:	01170000 	tsteq	r7, r0
    319c:	5c030551 	cfstr32pl	mvfx0, [r3], {81}	; 0x51
    31a0:	170000b9 			; <UNDEFINED> instruction: 0x170000b9
    31a4:	03055001 	movweq	r5, #20481	; 0x5001
    31a8:	0000ba84 	andeq	fp, r0, r4, lsl #21
    31ac:	97341800 	ldrls	r1, [r4, -r0, lsl #16]!
    31b0:	14630000 	strbtne	r0, [r3], #-0
    31b4:	38180000 	ldmdacc	r8, {}	; <UNPREDICTABLE>
    31b8:	46000097 			; <UNDEFINED> instruction: 0x46000097
    31bc:	16000014 			; <UNDEFINED> instruction: 0x16000014
    31c0:	0000974c 	andeq	r9, r0, ip, asr #14
    31c4:	0000144d 	andeq	r1, r0, sp, asr #8
    31c8:	000008be 			; <UNDEFINED> instruction: 0x000008be
    31cc:	02530117 	subseq	r0, r3, #-1073741819	; 0xc0000005
    31d0:	01178f08 	tsteq	r7, r8, lsl #30
    31d4:	24030552 	strcs	r0, [r3], #-1362	; 0x552
    31d8:	170000be 			; <UNDEFINED> instruction: 0x170000be
    31dc:	03055101 	movweq	r5, #20737	; 0x5101
    31e0:	0000b95c 	andeq	fp, r0, ip, asr r9
    31e4:	05500117 	ldrbeq	r0, [r0, #-279]	; 0x117
    31e8:	00baa003 	adcseq	sl, sl, r3
    31ec:	50180000 	andspl	r0, r8, r0
    31f0:	63000097 	movwvs	r0, #151	; 0x97
    31f4:	18000014 	stmdane	r0, {r2, r4}
    31f8:	00009754 	andeq	r9, r0, r4, asr r7
    31fc:	00001446 	andeq	r1, r0, r6, asr #8
    3200:	00976816 	addseq	r6, r7, r6, lsl r8
    3204:	00144d00 	andseq	r4, r4, r0, lsl #26
    3208:	0008ff00 	andeq	pc, r8, r0, lsl #30
    320c:	53011700 	movwpl	r1, #5888	; 0x1700
    3210:	17920802 	ldrne	r0, [r2, r2, lsl #16]
    3214:	03055201 	movweq	r5, #20993	; 0x5201
    3218:	0000be24 	andeq	fp, r0, r4, lsr #28
    321c:	05510117 	ldrbeq	r0, [r1, #-279]	; 0x117
    3220:	00b95c03 	adcseq	r5, r9, r3, lsl #24
    3224:	50011700 	andpl	r1, r1, r0, lsl #14
    3228:	bac80305 	blt	ff203e44 <__bss_end__+0xff1f77fc>
    322c:	18000000 	stmdane	r0, {}	; <UNPREDICTABLE>
    3230:	0000976c 	andeq	r9, r0, ip, ror #14
    3234:	00001463 	andeq	r1, r0, r3, ror #8
    3238:	00977018 	addseq	r7, r7, r8, lsl r0
    323c:	00144600 	andseq	r4, r4, r0, lsl #12
    3240:	97841600 	strls	r1, [r4, r0, lsl #12]
    3244:	144d0000 	strbne	r0, [sp], #-0
    3248:	09400000 	stmdbeq	r0, {}^	; <UNPREDICTABLE>
    324c:	01170000 	tsteq	r7, r0
    3250:	95080253 	strls	r0, [r8, #-595]	; 0x253
    3254:	05520117 	ldrbeq	r0, [r2, #-279]	; 0x117
    3258:	00be2403 	adcseq	r2, lr, r3, lsl #8
    325c:	51011700 	tstpl	r1, r0, lsl #14
    3260:	b95c0305 	ldmdblt	ip, {r0, r2, r8, r9}^
    3264:	01170000 	tsteq	r7, r0
    3268:	f4030550 	vst3.16	{d0,d2,d4}, [r3 :64], r0
    326c:	000000ba 	strheq	r0, [r0], -sl
    3270:	00978818 	addseq	r8, r7, r8, lsl r8
    3274:	00146300 	andseq	r6, r4, r0, lsl #6
    3278:	978c1800 	strls	r1, [ip, r0, lsl #16]
    327c:	14460000 	strbne	r0, [r6], #-0
    3280:	a0160000 	andsge	r0, r6, r0
    3284:	4d000097 	stcmi	0, cr0, [r0, #-604]	; 0xfffffda4
    3288:	81000014 	tsthi	r0, r4, lsl r0
    328c:	17000009 	strne	r0, [r0, -r9]
    3290:	08025301 	stmdaeq	r2, {r0, r8, r9, ip, lr}
    3294:	52011798 	andpl	r1, r1, #152, 14	; 0x2600000
    3298:	be240305 	cdplt	3, 2, cr0, cr4, cr5, {0}
    329c:	01170000 	tsteq	r7, r0
    32a0:	5c030551 	cfstr32pl	mvfx0, [r3], {81}	; 0x51
    32a4:	170000b9 			; <UNDEFINED> instruction: 0x170000b9
    32a8:	03055001 	movweq	r5, #20481	; 0x5001
    32ac:	0000bb20 	andeq	fp, r0, r0, lsr #22
    32b0:	97a41800 	strls	r1, [r4, r0, lsl #16]!
    32b4:	14630000 	strbtne	r0, [r3], #-0
    32b8:	a8180000 	ldmdage	r8, {}	; <UNPREDICTABLE>
    32bc:	46000097 			; <UNDEFINED> instruction: 0x46000097
    32c0:	16000014 			; <UNDEFINED> instruction: 0x16000014
    32c4:	000097bc 			; <UNDEFINED> instruction: 0x000097bc
    32c8:	0000144d 	andeq	r1, r0, sp, asr #8
    32cc:	000009c2 	andeq	r0, r0, r2, asr #19
    32d0:	02530117 	subseq	r0, r3, #-1073741819	; 0xc0000005
    32d4:	01179b08 	tsteq	r7, r8, lsl #22
    32d8:	24030552 	strcs	r0, [r3], #-1362	; 0x552
    32dc:	170000be 			; <UNDEFINED> instruction: 0x170000be
    32e0:	03055101 	movweq	r5, #20737	; 0x5101
    32e4:	0000b95c 	andeq	fp, r0, ip, asr r9
    32e8:	05500117 	ldrbeq	r0, [r0, #-279]	; 0x117
    32ec:	00bb4c03 	adcseq	r4, fp, r3, lsl #24
    32f0:	c0180000 	andsgt	r0, r8, r0
    32f4:	63000097 	movwvs	r0, #151	; 0x97
    32f8:	18000014 	stmdane	r0, {r2, r4}
    32fc:	000097c4 	andeq	r9, r0, r4, asr #15
    3300:	00001446 	andeq	r1, r0, r6, asr #8
    3304:	0097d816 	addseq	sp, r7, r6, lsl r8
    3308:	00144d00 	andseq	r4, r4, r0, lsl #26
    330c:	000a0300 	andeq	r0, sl, r0, lsl #6
    3310:	53011700 	movwpl	r1, #5888	; 0x1700
    3314:	179e0802 	ldrne	r0, [lr, r2, lsl #16]
    3318:	03055201 	movweq	r5, #20993	; 0x5201
    331c:	0000be24 	andeq	fp, r0, r4, lsr #28
    3320:	05510117 	ldrbeq	r0, [r1, #-279]	; 0x117
    3324:	00b95c03 	adcseq	r5, r9, r3, lsl #24
    3328:	50011700 	andpl	r1, r1, r0, lsl #14
    332c:	bb780305 	bllt	1e03f48 <__bss_end__+0x1df7900>
    3330:	18000000 	stmdane	r0, {}	; <UNPREDICTABLE>
    3334:	000097dc 	ldrdeq	r9, [r0], -ip
    3338:	00001463 	andeq	r1, r0, r3, ror #8
    333c:	0097e018 	addseq	lr, r7, r8, lsl r0
    3340:	00144600 	andseq	r4, r4, r0, lsl #12
    3344:	97f41600 	ldrbls	r1, [r4, r0, lsl #12]!
    3348:	144d0000 	strbne	r0, [sp], #-0
    334c:	0a440000 	beq	1103354 <__bss_end__+0x10f6d0c>
    3350:	01170000 	tsteq	r7, r0
    3354:	a1080253 	tstge	r8, r3, asr r2
    3358:	05520117 	ldrbeq	r0, [r2, #-279]	; 0x117
    335c:	00be2403 	adcseq	r2, lr, r3, lsl #8
    3360:	51011700 	tstpl	r1, r0, lsl #14
    3364:	b95c0305 	ldmdblt	ip, {r0, r2, r8, r9}^
    3368:	01170000 	tsteq	r7, r0
    336c:	a0030550 	andge	r0, r3, r0, asr r5
    3370:	000000bb 	strheq	r0, [r0], -fp
    3374:	0097f818 	addseq	pc, r7, r8, lsl r8	; <UNPREDICTABLE>
    3378:	00146300 	andseq	r6, r4, r0, lsl #6
    337c:	97fc1800 	ldrbls	r1, [ip, r0, lsl #16]!
    3380:	14460000 	strbne	r0, [r6], #-0
    3384:	10160000 	andsne	r0, r6, r0
    3388:	4d000098 	stcmi	0, cr0, [r0, #-608]	; 0xfffffda0
    338c:	85000014 	strhi	r0, [r0, #-20]
    3390:	1700000a 	strne	r0, [r0, -sl]
    3394:	08025301 	stmdaeq	r2, {r0, r8, r9, ip, lr}
    3398:	520117a4 	andpl	r1, r1, #164, 14	; 0x2900000
    339c:	be240305 	cdplt	3, 2, cr0, cr4, cr5, {0}
    33a0:	01170000 	tsteq	r7, r0
    33a4:	5c030551 	cfstr32pl	mvfx0, [r3], {81}	; 0x51
    33a8:	170000b9 			; <UNDEFINED> instruction: 0x170000b9
    33ac:	03055001 	movweq	r5, #20481	; 0x5001
    33b0:	0000bbc8 	andeq	fp, r0, r8, asr #23
    33b4:	98141800 	ldmdals	r4, {fp, ip}
    33b8:	14630000 	strbtne	r0, [r3], #-0
    33bc:	18180000 	ldmdane	r8, {}	; <UNPREDICTABLE>
    33c0:	46000098 			; <UNDEFINED> instruction: 0x46000098
    33c4:	16000014 			; <UNDEFINED> instruction: 0x16000014
    33c8:	0000982c 	andeq	r9, r0, ip, lsr #16
    33cc:	0000144d 	andeq	r1, r0, sp, asr #8
    33d0:	00000ac6 	andeq	r0, r0, r6, asr #21
    33d4:	02530117 	subseq	r0, r3, #-1073741819	; 0xc0000005
    33d8:	0117a708 	tsteq	r7, r8, lsl #14
    33dc:	24030552 	strcs	r0, [r3], #-1362	; 0x552
    33e0:	170000be 			; <UNDEFINED> instruction: 0x170000be
    33e4:	03055101 	movweq	r5, #20737	; 0x5101
    33e8:	0000b95c 	andeq	fp, r0, ip, asr r9
    33ec:	05500117 	ldrbeq	r0, [r0, #-279]	; 0x117
    33f0:	00bbec03 	adcseq	lr, fp, r3, lsl #24
    33f4:	30180000 	andscc	r0, r8, r0
    33f8:	63000098 	movwvs	r0, #152	; 0x98
    33fc:	18000014 	stmdane	r0, {r2, r4}
    3400:	00009834 	andeq	r9, r0, r4, lsr r8
    3404:	00001446 	andeq	r1, r0, r6, asr #8
    3408:	00984816 	addseq	r4, r8, r6, lsl r8
    340c:	00144d00 	andseq	r4, r4, r0, lsl #26
    3410:	000b0700 	andeq	r0, fp, r0, lsl #14
    3414:	53011700 	movwpl	r1, #5888	; 0x1700
    3418:	17aa0802 	strne	r0, [sl, r2, lsl #16]!
    341c:	03055201 	movweq	r5, #20993	; 0x5201
    3420:	0000be24 	andeq	fp, r0, r4, lsr #28
    3424:	05510117 	ldrbeq	r0, [r1, #-279]	; 0x117
    3428:	00b95c03 	adcseq	r5, r9, r3, lsl #24
    342c:	50011700 	andpl	r1, r1, r0, lsl #14
    3430:	bc100305 	ldclt	3, cr0, [r0], {5}
    3434:	18000000 	stmdane	r0, {}	; <UNPREDICTABLE>
    3438:	0000984c 	andeq	r9, r0, ip, asr #16
    343c:	00001463 	andeq	r1, r0, r3, ror #8
    3440:	00985018 	addseq	r5, r8, r8, lsl r0
    3444:	00144600 	andseq	r4, r4, r0, lsl #12
    3448:	98641600 	stmdals	r4!, {r9, sl, ip}^
    344c:	144d0000 	strbne	r0, [sp], #-0
    3450:	0b480000 	bleq	1203458 <__bss_end__+0x11f6e10>
    3454:	01170000 	tsteq	r7, r0
    3458:	ad080253 	sfmge	f0, 4, [r8, #-332]	; 0xfffffeb4
    345c:	05520117 	ldrbeq	r0, [r2, #-279]	; 0x117
    3460:	00be2403 	adcseq	r2, lr, r3, lsl #8
    3464:	51011700 	tstpl	r1, r0, lsl #14
    3468:	b95c0305 	ldmdblt	ip, {r0, r2, r8, r9}^
    346c:	01170000 	tsteq	r7, r0
    3470:	38030550 	stmdacc	r3, {r4, r6, r8, sl}
    3474:	000000bc 	strheq	r0, [r0], -ip
    3478:	00986818 	addseq	r6, r8, r8, lsl r8
    347c:	00146300 	andseq	r6, r4, r0, lsl #6
    3480:	986c1800 	stmdals	ip!, {fp, ip}^
    3484:	14460000 	strbne	r0, [r6], #-0
    3488:	80160000 	andshi	r0, r6, r0
    348c:	4d000098 	stcmi	0, cr0, [r0, #-608]	; 0xfffffda0
    3490:	89000014 	stmdbhi	r0, {r2, r4}
    3494:	1700000b 	strne	r0, [r0, -fp]
    3498:	08025301 	stmdaeq	r2, {r0, r8, r9, ip, lr}
    349c:	520117b0 	andpl	r1, r1, #176, 14	; 0x2c00000
    34a0:	be240305 	cdplt	3, 2, cr0, cr4, cr5, {0}
    34a4:	01170000 	tsteq	r7, r0
    34a8:	5c030551 	cfstr32pl	mvfx0, [r3], {81}	; 0x51
    34ac:	170000b9 			; <UNDEFINED> instruction: 0x170000b9
    34b0:	03055001 	movweq	r5, #20481	; 0x5001
    34b4:	0000bc60 	andeq	fp, r0, r0, ror #24
    34b8:	98841800 	stmls	r4, {fp, ip}
    34bc:	14630000 	strbtne	r0, [r3], #-0
    34c0:	88180000 	ldmdahi	r8, {}	; <UNPREDICTABLE>
    34c4:	46000098 			; <UNDEFINED> instruction: 0x46000098
    34c8:	16000014 			; <UNDEFINED> instruction: 0x16000014
    34cc:	0000989c 	muleq	r0, ip, r8
    34d0:	0000144d 	andeq	r1, r0, sp, asr #8
    34d4:	00000bca 	andeq	r0, r0, sl, asr #23
    34d8:	02530117 	subseq	r0, r3, #-1073741819	; 0xc0000005
    34dc:	0117b308 	tsteq	r7, r8, lsl #6
    34e0:	24030552 	strcs	r0, [r3], #-1362	; 0x552
    34e4:	170000be 			; <UNDEFINED> instruction: 0x170000be
    34e8:	03055101 	movweq	r5, #20737	; 0x5101
    34ec:	0000b95c 	andeq	fp, r0, ip, asr r9
    34f0:	05500117 	ldrbeq	r0, [r0, #-279]	; 0x117
    34f4:	00bc8803 	adcseq	r8, ip, r3, lsl #16
    34f8:	a0180000 	andsge	r0, r8, r0
    34fc:	63000098 	movwvs	r0, #152	; 0x98
    3500:	18000014 	stmdane	r0, {r2, r4}
    3504:	000098a4 	andeq	r9, r0, r4, lsr #17
    3508:	00001446 	andeq	r1, r0, r6, asr #8
    350c:	0098b816 	addseq	fp, r8, r6, lsl r8
    3510:	00144d00 	andseq	r4, r4, r0, lsl #26
    3514:	000c0b00 	andeq	r0, ip, r0, lsl #22
    3518:	53011700 	movwpl	r1, #5888	; 0x1700
    351c:	17b60802 	ldrne	r0, [r6, r2, lsl #16]!
    3520:	03055201 	movweq	r5, #20993	; 0x5201
    3524:	0000be24 	andeq	fp, r0, r4, lsr #28
    3528:	05510117 	ldrbeq	r0, [r1, #-279]	; 0x117
    352c:	00b95c03 	adcseq	r5, r9, r3, lsl #24
    3530:	50011700 	andpl	r1, r1, r0, lsl #14
    3534:	bca40305 	stclt	3, cr0, [r4], #20
    3538:	18000000 	stmdane	r0, {}	; <UNPREDICTABLE>
    353c:	000098bc 			; <UNDEFINED> instruction: 0x000098bc
    3540:	00001463 	andeq	r1, r0, r3, ror #8
    3544:	0098c018 	addseq	ip, r8, r8, lsl r0
    3548:	00144600 	andseq	r4, r4, r0, lsl #12
    354c:	98d41600 	ldmls	r4, {r9, sl, ip}^
    3550:	144d0000 	strbne	r0, [sp], #-0
    3554:	0c4c0000 	mareq	acc0, r0, ip
    3558:	01170000 	tsteq	r7, r0
    355c:	b9080253 	stmdblt	r8, {r0, r1, r4, r6, r9}
    3560:	05520117 	ldrbeq	r0, [r2, #-279]	; 0x117
    3564:	00be2403 	adcseq	r2, lr, r3, lsl #8
    3568:	51011700 	tstpl	r1, r0, lsl #14
    356c:	b95c0305 	ldmdblt	ip, {r0, r2, r8, r9}^
    3570:	01170000 	tsteq	r7, r0
    3574:	cc030550 	cfstr32gt	mvfx0, [r3], {80}	; 0x50
    3578:	000000bc 	strheq	r0, [r0], -ip
    357c:	0098d818 	addseq	sp, r8, r8, lsl r8
    3580:	00146300 	andseq	r6, r4, r0, lsl #6
    3584:	98dc1800 	ldmls	ip, {fp, ip}^
    3588:	14460000 	strbne	r0, [r6], #-0
    358c:	f0160000 			; <UNDEFINED> instruction: 0xf0160000
    3590:	4d000098 	stcmi	0, cr0, [r0, #-608]	; 0xfffffda0
    3594:	8d000014 	stchi	0, cr0, [r0, #-80]	; 0xffffffb0
    3598:	1700000c 	strne	r0, [r0, -ip]
    359c:	08025301 	stmdaeq	r2, {r0, r8, r9, ip, lr}
    35a0:	520117bc 	andpl	r1, r1, #188, 14	; 0x2f00000
    35a4:	be240305 	cdplt	3, 2, cr0, cr4, cr5, {0}
    35a8:	01170000 	tsteq	r7, r0
    35ac:	5c030551 	cfstr32pl	mvfx0, [r3], {81}	; 0x51
    35b0:	170000b9 			; <UNDEFINED> instruction: 0x170000b9
    35b4:	03055001 	movweq	r5, #20481	; 0x5001
    35b8:	0000bcf8 	strdeq	fp, [r0], -r8
    35bc:	98f41800 	ldmls	r4!, {fp, ip}^
    35c0:	14630000 	strbtne	r0, [r3], #-0
    35c4:	f8180000 			; <UNDEFINED> instruction: 0xf8180000
    35c8:	46000098 			; <UNDEFINED> instruction: 0x46000098
    35cc:	16000014 			; <UNDEFINED> instruction: 0x16000014
    35d0:	0000990c 	andeq	r9, r0, ip, lsl #18
    35d4:	0000144d 	andeq	r1, r0, sp, asr #8
    35d8:	00000cce 	andeq	r0, r0, lr, asr #25
    35dc:	02530117 	subseq	r0, r3, #-1073741819	; 0xc0000005
    35e0:	0117bf08 	tsteq	r7, r8, lsl #30
    35e4:	24030552 	strcs	r0, [r3], #-1362	; 0x552
    35e8:	170000be 			; <UNDEFINED> instruction: 0x170000be
    35ec:	03055101 	movweq	r5, #20737	; 0x5101
    35f0:	0000b95c 	andeq	fp, r0, ip, asr r9
    35f4:	05500117 	ldrbeq	r0, [r0, #-279]	; 0x117
    35f8:	00bd2003 	adcseq	r2, sp, r3
    35fc:	10180000 	andsne	r0, r8, r0
    3600:	63000099 	movwvs	r0, #153	; 0x99
    3604:	18000014 	stmdane	r0, {r2, r4}
    3608:	00009914 	andeq	r9, r0, r4, lsl r9
    360c:	00001446 	andeq	r1, r0, r6, asr #8
    3610:	00992816 	addseq	r2, r9, r6, lsl r8
    3614:	00144d00 	andseq	r4, r4, r0, lsl #26
    3618:	000d0f00 	andeq	r0, sp, r0, lsl #30
    361c:	53011700 	movwpl	r1, #5888	; 0x1700
    3620:	17c20802 	strbne	r0, [r2, r2, lsl #16]
    3624:	03055201 	movweq	r5, #20993	; 0x5201
    3628:	0000be24 	andeq	fp, r0, r4, lsr #28
    362c:	05510117 	ldrbeq	r0, [r1, #-279]	; 0x117
    3630:	00b95c03 	adcseq	r5, r9, r3, lsl #24
    3634:	50011700 	andpl	r1, r1, r0, lsl #14
    3638:	bd400305 	stcllt	3, cr0, [r0, #-20]	; 0xffffffec
    363c:	18000000 	stmdane	r0, {}	; <UNPREDICTABLE>
    3640:	0000992c 	andeq	r9, r0, ip, lsr #18
    3644:	00001463 	andeq	r1, r0, r3, ror #8
    3648:	007f1a00 	rsbseq	r1, pc, r0, lsl #20
    364c:	0d290000 	stceq	0, cr0, [r9, #-0]
    3650:	761b0000 	ldrvc	r0, [fp], -r0
    3654:	11000000 	mrsne	r0, (UNDEF: 0)
    3658:	0d190700 	ldceq	7, cr0, [r9, #-0]
    365c:	ee100000 	cdp	0, 1, cr0, cr0, cr0, {0}
    3660:	0100000b 	tsteq	r0, fp
    3664:	009984da 			; <UNDEFINED> instruction: 0x009984da
    3668:	00003000 	andeq	r3, r0, r0
    366c:	ab9c0100 	blge	fe703a74 <__bss_end__+0xfe6f742c>
    3670:	1200000d 	andne	r0, r0, #13
    3674:	0100726c 	tsteq	r0, ip, ror #4
    3678:	00002cda 	ldrdeq	r2, [r0], -sl
    367c:	00137100 	andseq	r7, r3, r0, lsl #2
    3680:	001c1500 	andseq	r1, ip, r0, lsl #10
    3684:	0dbb0000 	ldceq	0, cr0, [fp]
    3688:	03050000 	movweq	r0, #20480	; 0x5000
    368c:	0000be38 	andeq	fp, r0, r8, lsr lr
    3690:	00998c18 	addseq	r8, r9, r8, lsl ip
    3694:	00147500 	andseq	r7, r4, r0, lsl #10
    3698:	99901800 	ldmibls	r0, {fp, ip}
    369c:	14460000 	strbne	r0, [r6], #-0
    36a0:	a4160000 	ldrge	r0, [r6], #-0
    36a4:	4d000099 	stcmi	0, cr0, [r0, #-612]	; 0xfffffd9c
    36a8:	a1000014 	tstge	r0, r4, lsl r0
    36ac:	1700000d 	strne	r0, [r0, -sp]
    36b0:	08025301 	stmdaeq	r2, {r0, r8, r9, ip, lr}
    36b4:	520117dc 	andpl	r1, r1, #220, 14	; 0x3700000
    36b8:	be380305 	cdplt	3, 3, cr0, cr8, cr5, {0}
    36bc:	01170000 	tsteq	r7, r0
    36c0:	5c030551 	cfstr32pl	mvfx0, [r3], {81}	; 0x51
    36c4:	170000b9 			; <UNDEFINED> instruction: 0x170000b9
    36c8:	03055001 	movweq	r5, #20481	; 0x5001
    36cc:	0000bd68 	andeq	fp, r0, r8, ror #26
    36d0:	99a81800 	stmibls	r8!, {fp, ip}
    36d4:	14630000 	strbtne	r0, [r3], #-0
    36d8:	1a000000 	bne	36e0 <__code_start__-0x4920>
    36dc:	0000007f 	andeq	r0, r0, pc, ror r0
    36e0:	00000dbb 			; <UNDEFINED> instruction: 0x00000dbb
    36e4:	0000761b 	andeq	r7, r0, fp, lsl r6
    36e8:	07001000 	streq	r1, [r0, -r0]
    36ec:	00000dab 	andeq	r0, r0, fp, lsr #27
    36f0:	00000e10 	andeq	r0, r0, r0, lsl lr
    36f4:	b4e80100 	strbtlt	r0, [r8], #256	; 0x100
    36f8:	50000099 	mulpl	r0, r9, r0
    36fc:	01000001 	tsteq	r0, r1
    3700:	000fd99c 	muleq	pc, ip, r9	; <UNPREDICTABLE>
    3704:	001c1500 	andseq	r1, ip, r0, lsl #10
    3708:	0fe90000 	svceq	0x00e90000
    370c:	03050000 	movweq	r0, #20480	; 0x5000
    3710:	0000be4c 	andeq	fp, r0, ip, asr #28
    3714:	000f342b 	andeq	r3, pc, fp, lsr #8
    3718:	7ded0100 	stfvce	f0, [sp]
    371c:	00000000 	andeq	r0, r0, r0
    3720:	18001000 	stmdane	r0, {ip}
    3724:	000099c0 	andeq	r9, r0, r0, asr #19
    3728:	0000147c 	andeq	r1, r0, ip, ror r4
    372c:	0099c418 	addseq	ip, r9, r8, lsl r4
    3730:	00148300 	andseq	r8, r4, r0, lsl #6
    3734:	99d01800 	ldmibls	r0, {fp, ip}^
    3738:	14460000 	strbne	r0, [r6], #-0
    373c:	ec160000 	ldc	0, cr0, [r6], {-0}
    3740:	4d000099 	stcmi	0, cr0, [r0, #-612]	; 0xfffffd9c
    3744:	47000014 	smladmi	r0, r4, r0, r0
    3748:	1700000e 	strne	r0, [r0, -lr]
    374c:	08025301 	stmdaeq	r2, {r0, r8, r9, ip, lr}
    3750:	520117eb 	andpl	r1, r1, #61603840	; 0x3ac0000
    3754:	be4c0305 	cdplt	3, 4, cr0, cr12, cr5, {0}
    3758:	01170000 	tsteq	r7, r0
    375c:	5c030551 	cfstr32pl	mvfx0, [r3], {81}	; 0x51
    3760:	170000b9 			; <UNDEFINED> instruction: 0x170000b9
    3764:	03055001 	movweq	r5, #20481	; 0x5001
    3768:	0000afb8 			; <UNDEFINED> instruction: 0x0000afb8
    376c:	007d0217 	rsbseq	r0, sp, r7, lsl r2
    3770:	bd840305 	stclt	3, cr0, [r4, #20]
    3774:	18000000 	stmdane	r0, {}	; <UNPREDICTABLE>
    3778:	000099f0 	strdeq	r9, [r0], -r0
    377c:	00001463 	andeq	r1, r0, r3, ror #8
    3780:	0099fc16 	addseq	pc, r9, r6, lsl ip	; <UNPREDICTABLE>
    3784:	00148e00 	andseq	r8, r4, r0, lsl #28
    3788:	000e6c00 	andeq	r6, lr, r0, lsl #24
    378c:	51011700 	tstpl	r1, r0, lsl #14
    3790:	40000a03 	andmi	r0, r0, r3, lsl #20
    3794:	03500117 	cmpeq	r0, #-1073741819	; 0xc0000005
    3798:	00244040 	eoreq	r4, r4, r0, asr #32
    379c:	009a1018 	addseq	r1, sl, r8, lsl r0
    37a0:	00144600 	andseq	r4, r4, r0, lsl #12
    37a4:	9a2c1600 	bls	b08fac <__bss_end__+0xafc964>
    37a8:	144d0000 	strbne	r0, [sp], #-0
    37ac:	0eae0000 	cdpeq	0, 10, cr0, cr14, cr0, {0}
    37b0:	01170000 	tsteq	r7, r0
    37b4:	f0080253 			; <UNDEFINED> instruction: 0xf0080253
    37b8:	05520117 	ldrbeq	r0, [r2, #-279]	; 0x117
    37bc:	00be4c03 	adcseq	r4, lr, r3, lsl #24
    37c0:	51011700 	tstpl	r1, r0, lsl #14
    37c4:	b95c0305 	ldmdblt	ip, {r0, r2, r8, r9}^
    37c8:	01170000 	tsteq	r7, r0
    37cc:	b8030550 	stmdalt	r3, {r4, r6, r8, sl}
    37d0:	170000af 	strne	r0, [r0, -pc, lsr #1]
    37d4:	05007d02 	streq	r7, [r0, #-3330]	; 0xd02
    37d8:	00bd9803 	adcseq	r9, sp, r3, lsl #16
    37dc:	30180000 	andscc	r0, r8, r0
    37e0:	6300009a 	movwvs	r0, #154	; 0x9a
    37e4:	16000014 			; <UNDEFINED> instruction: 0x16000014
    37e8:	00009a40 	andeq	r9, r0, r0, asr #20
    37ec:	000014a8 	andeq	r1, r0, r8, lsr #9
    37f0:	00000ed4 	ldrdeq	r0, [r0], -r4
    37f4:	01530117 	cmpeq	r3, r7, lsl r1
    37f8:	52011731 	andpl	r1, r1, #12845056	; 0xc40000
    37fc:	01173001 	tsteq	r7, r1
    3800:	00300151 	eorseq	r0, r0, r1, asr r1
    3804:	009a5816 	addseq	r5, sl, r6, lsl r8
    3808:	0014a800 	andseq	sl, r4, r0, lsl #16
    380c:	000ef500 	andeq	pc, lr, r0, lsl #10
    3810:	53011700 	movwpl	r1, #5888	; 0x1700
    3814:	01173101 	tsteq	r7, r1, lsl #2
    3818:	40400352 	submi	r0, r0, r2, asr r3
    381c:	51011724 	tstpl	r1, r4, lsr #14
    3820:	24404003 	strbcs	r4, [r0], #-3
    3824:	9a6c1600 	bls	1b0902c <__bss_end__+0x1afc9e4>
    3828:	14a80000 	strtne	r0, [r8], #0
    382c:	0f180000 	svceq	0x00180000
    3830:	01170000 	tsteq	r7, r0
    3834:	17310153 			; <UNDEFINED> instruction: 0x17310153
    3838:	08045201 	stmdaeq	r4, {r0, r9, ip, lr}
    383c:	172443fe 			; <UNDEFINED> instruction: 0x172443fe
    3840:	08045101 	stmdaeq	r4, {r0, r8, ip, lr}
    3844:	002443fe 	strdeq	r4, [r4], -lr	; <UNPREDICTABLE>
    3848:	009a8016 	addseq	r8, sl, r6, lsl r0
    384c:	0014a800 	andseq	sl, r4, r0, lsl #16
    3850:	000f3900 	andeq	r3, pc, r0, lsl #18
    3854:	53011700 	movwpl	r1, #5888	; 0x1700
    3858:	01173101 	tsteq	r7, r1, lsl #2
    385c:	49400352 	stmdbmi	r0, {r1, r4, r6, r8, r9}^
    3860:	51011724 	tstpl	r1, r4, lsr #14
    3864:	24494003 	strbcs	r4, [r9], #-3
    3868:	9a941600 	bls	fe509070 <__bss_end__+0xfe4fca28>
    386c:	14a80000 	strtne	r0, [r8], #0
    3870:	0f5e0000 	svceq	0x005e0000
    3874:	01170000 	tsteq	r7, r0
    3878:	17310153 			; <UNDEFINED> instruction: 0x17310153
    387c:	0c055201 	sfmeq	f5, 4, [r5], {1}
    3880:	20100000 	andscs	r0, r0, r0
    3884:	05510117 	ldrbeq	r0, [r1, #-279]	; 0x117
    3888:	1000000c 	andne	r0, r0, ip
    388c:	a8160020 	ldmdage	r6, {r5}
    3890:	a800009a 	stmdage	r0, {r1, r3, r4, r7}
    3894:	83000014 	movwhi	r0, #20
    3898:	1700000f 	strne	r0, [r0, -pc]
    389c:	31015301 	tstcc	r1, r1, lsl #6
    38a0:	05520117 	ldrbeq	r0, [r2, #-279]	; 0x117
    38a4:	2000000c 	andcs	r0, r0, ip
    38a8:	51011720 	tstpl	r1, r0, lsr #14
    38ac:	00000c05 	andeq	r0, r0, r5, lsl #24
    38b0:	16002020 	strne	r2, [r0], -r0, lsr #32
    38b4:	00009abc 			; <UNDEFINED> instruction: 0x00009abc
    38b8:	000014a8 	andeq	r1, r0, r8, lsr #9
    38bc:	00000fa6 	andeq	r0, r0, r6, lsr #31
    38c0:	01530117 	cmpeq	r3, r7, lsl r1
    38c4:	52011731 	andpl	r1, r1, #12845056	; 0xc40000
    38c8:	448f0804 	strmi	r0, [pc], #2052	; 38d0 <__code_start__-0x4730>
    38cc:	51011724 	tstpl	r1, r4, lsr #14
    38d0:	448f0804 	strmi	r0, [pc], #2052	; 38d8 <__code_start__-0x4728>
    38d4:	c0180024 	andsgt	r0, r8, r4, lsr #32
    38d8:	cc00009a 	stcgt	0, cr0, [r0], {154}	; 0x9a
    38dc:	16000014 			; <UNDEFINED> instruction: 0x16000014
    38e0:	00009ac8 	andeq	r9, r0, r8, asr #21
    38e4:	000014d3 	ldrdeq	r1, [r0], -r3
    38e8:	00000fc2 	andeq	r0, r0, r2, asr #31
    38ec:	01500117 	cmpeq	r0, r7, lsl r1
    38f0:	d8190034 	ldmdale	r9, {r2, r4, r5}
    38f4:	e400009a 	str	r0, [r0], #-154	; 0x9a
    38f8:	17000014 	smladne	r0, r4, r0, r0
    38fc:	31015101 	tstcc	r1, r1, lsl #2
    3900:	03500117 	cmpeq	r0, #-1073741819	; 0xc0000005
    3904:	00140e0a 	andseq	r0, r4, sl, lsl #28
    3908:	007f1a00 	rsbseq	r1, pc, r0, lsl #20
    390c:	0fe90000 	svceq	0x00e90000
    3910:	761b0000 	ldrvc	r0, [fp], -r0
    3914:	0d000000 	stceq	0, cr0, [r0, #-0]
    3918:	0fd90700 	svceq	0x00d90700
    391c:	e42c0000 	strt	r0, [ip], #-0
    3920:	01000000 	mrseq	r0, (UNDEF: 0)
    3924:	9b040113 	blls	103d78 <__bss_end__+0xf7730>
    3928:	00880000 	addeq	r0, r8, r0
    392c:	9c010000 	stcls	0, cr0, [r1], {-0}
    3930:	000010ce 	andeq	r1, r0, lr, asr #1
    3934:	00001c15 	andeq	r1, r0, r5, lsl ip
    3938:	0010de00 	andseq	sp, r0, r0, lsl #28
    393c:	5c030500 	cfstr32pl	mvfx0, [r3], {-0}
    3940:	160000be 			; <UNDEFINED> instruction: 0x160000be
    3944:	00009b20 	andeq	r9, r0, r0, lsr #22
    3948:	0000144d 	andeq	r1, r0, sp, asr #8
    394c:	00001043 	andeq	r1, r0, r3, asr #32
    3950:	03530117 	cmpeq	r3, #-1073741819	; 0xc0000005
    3954:	1701140a 	strne	r1, [r1, -sl, lsl #8]
    3958:	03055201 	movweq	r5, #20993	; 0x5201
    395c:	0000be5c 	andeq	fp, r0, ip, asr lr
    3960:	05510117 	ldrbeq	r0, [r1, #-279]	; 0x117
    3964:	00b95c03 	adcseq	r5, r9, r3, lsl #24
    3968:	50011700 	andpl	r1, r1, r0, lsl #14
    396c:	bda40305 	stclt	3, cr0, [r4, #20]!
    3970:	18000000 	stmdane	r0, {}	; <UNPREDICTABLE>
    3974:	00009b24 	andeq	r9, r0, r4, lsr #22
    3978:	000014ff 	strdeq	r1, [r0], -pc	; <UNPREDICTABLE>
    397c:	009b2818 	addseq	r2, fp, r8, lsl r8
    3980:	00148300 	andseq	r8, r4, r0, lsl #6
    3984:	9b341800 	blls	d0998c <__bss_end__+0xcfd344>
    3988:	14460000 	strbne	r0, [r6], #-0
    398c:	50160000 	andspl	r0, r6, r0
    3990:	4d00009b 	stcmi	0, cr0, [r0, #-620]	; 0xfffffd94
    3994:	98000014 	stmdals	r0, {r2, r4}
    3998:	17000010 	smladne	r0, r0, r0, r0
    399c:	0a035301 	beq	d85a8 <__bss_end__+0xcbf60>
    39a0:	01170117 	tsteq	r7, r7, lsl r1
    39a4:	5c030552 	cfstr32pl	mvfx0, [r3], {82}	; 0x52
    39a8:	170000be 			; <UNDEFINED> instruction: 0x170000be
    39ac:	03055101 	movweq	r5, #20737	; 0x5101
    39b0:	0000b95c 	andeq	fp, r0, ip, asr r9
    39b4:	05500117 	ldrbeq	r0, [r0, #-279]	; 0x117
    39b8:	00afb803 	adceq	fp, pc, r3, lsl #16
    39bc:	7d021700 	stcvc	7, cr1, [r2, #-0]
    39c0:	e0030500 	and	r0, r3, r0, lsl #10
    39c4:	000000af 	andeq	r0, r0, pc, lsr #1
    39c8:	009b5418 	addseq	r5, fp, r8, lsl r4
    39cc:	00146300 	andseq	r6, r4, r0, lsl #6
    39d0:	9b681900 	blls	1a09dd8 <__bss_end__+0x19fd790>
    39d4:	144d0000 	strbne	r0, [sp], #-0
    39d8:	01170000 	tsteq	r7, r0
    39dc:	180a0353 	stmdane	sl, {r0, r1, r4, r6, r8, r9}
    39e0:	52011701 	andpl	r1, r1, #262144	; 0x40000
    39e4:	be5c0305 	cdplt	3, 5, cr0, cr12, cr5, {0}
    39e8:	01170000 	tsteq	r7, r0
    39ec:	5c030551 	cfstr32pl	mvfx0, [r3], {81}	; 0x51
    39f0:	170000b9 			; <UNDEFINED> instruction: 0x170000b9
    39f4:	03055001 	movweq	r5, #20481	; 0x5001
    39f8:	0000bdcc 	andeq	fp, r0, ip, asr #27
    39fc:	7f1a0000 	svcvc	0x001a0000
    3a00:	de000000 	cdple	0, 0, cr0, cr0, cr0, {0}
    3a04:	1b000010 	blne	3a4c <__code_start__-0x45b4>
    3a08:	00000076 	andeq	r0, r0, r6, ror r0
    3a0c:	ce07000b 	cdpgt	0, 0, cr0, cr7, cr11, {0}
    3a10:	2c000010 	stccs	0, cr0, [r0], {16}
    3a14:	0000073d 	andeq	r0, r0, sp, lsr r7
    3a18:	8c011c01 	stchi	12, cr1, [r1], {1}
    3a1c:	7000009b 	mulvc	r0, fp, r0
    3a20:	01000000 	mrseq	r0, (UNDEF: 0)
    3a24:	0011939c 	mulseq	r1, ip, r3
    3a28:	001c1500 	andseq	r1, ip, r0, lsl #10
    3a2c:	11930000 	orrsne	r0, r3, r0
    3a30:	03050000 	movweq	r0, #20480	; 0x5000
    3a34:	0000be68 	andeq	fp, r0, r8, ror #28
    3a38:	009b9818 	addseq	r9, fp, r8, lsl r8
    3a3c:	00147500 	andseq	r7, r4, r0, lsl #10
    3a40:	9b9c1800 	blls	fe709a48 <__bss_end__+0xfe6fd400>
    3a44:	14830000 	strne	r0, [r3], #0
    3a48:	a8180000 	ldmdage	r8, {}	; <UNPREDICTABLE>
    3a4c:	4600009b 			; <UNDEFINED> instruction: 0x4600009b
    3a50:	16000014 			; <UNDEFINED> instruction: 0x16000014
    3a54:	00009bc4 	andeq	r9, r0, r4, asr #23
    3a58:	0000144d 	andeq	r1, r0, sp, asr #8
    3a5c:	0000115d 	andeq	r1, r0, sp, asr r1
    3a60:	03530117 	cmpeq	r3, #-1073741819	; 0xc0000005
    3a64:	17011f0a 	strne	r1, [r1, -sl, lsl #30]
    3a68:	03055201 	movweq	r5, #20993	; 0x5201
    3a6c:	0000be68 	andeq	fp, r0, r8, ror #28
    3a70:	05510117 	ldrbeq	r0, [r1, #-279]	; 0x117
    3a74:	00b95c03 	adcseq	r5, r9, r3, lsl #24
    3a78:	50011700 	andpl	r1, r1, r0, lsl #14
    3a7c:	afb80305 	svcge	0x00b80305
    3a80:	02170000 	andseq	r0, r7, #0
    3a84:	0305007d 	movweq	r0, #20605	; 0x507d
    3a88:	0000bd84 	andeq	fp, r0, r4, lsl #27
    3a8c:	9bc81800 	blls	ff209a94 <__bss_end__+0xff1fd44c>
    3a90:	14630000 	strbtne	r0, [r3], #-0
    3a94:	dc190000 	ldcle	0, cr0, [r9], {-0}
    3a98:	4d00009b 	stcmi	0, cr0, [r0, #-620]	; 0xfffffd94
    3a9c:	17000014 	smladne	r0, r4, r0, r0
    3aa0:	0a035301 	beq	d86ac <__bss_end__+0xcc064>
    3aa4:	01170120 	tsteq	r7, r0, lsr #2
    3aa8:	68030552 	stmdavs	r3, {r1, r4, r6, r8, sl}
    3aac:	170000be 			; <UNDEFINED> instruction: 0x170000be
    3ab0:	03055101 	movweq	r5, #20737	; 0x5101
    3ab4:	0000b95c 	andeq	fp, r0, ip, asr r9
    3ab8:	05500117 	ldrbeq	r0, [r0, #-279]	; 0x117
    3abc:	00bde403 	adcseq	lr, sp, r3, lsl #8
    3ac0:	07000000 	streq	r0, [r0, -r0]
    3ac4:	00000771 	andeq	r0, r0, r1, ror r7
    3ac8:	00097d2c 	andeq	r7, r9, ip, lsr #26
    3acc:	01230100 	teqeq	r3, r0, lsl #2
    3ad0:	00009bfc 	strdeq	r9, [r0], -ip
    3ad4:	00000070 	andeq	r0, r0, r0, ror r0
    3ad8:	123b9c01 	eorsne	r9, fp, #256	; 0x100
    3adc:	342d0000 	strtcc	r0, [sp], #-0
    3ae0:	0100000f 	tsteq	r0, pc
    3ae4:	005d0123 	subseq	r0, sp, r3, lsr #2
    3ae8:	13920000 	orrsne	r0, r2, #0
    3aec:	1c150000 	ldcne	0, cr0, [r5], {-0}
    3af0:	3b000000 	blcc	3af8 <__code_start__-0x4508>
    3af4:	05000012 	streq	r0, [r0, #-18]
    3af8:	00be7803 	adcseq	r7, lr, r3, lsl #16
    3afc:	9c181800 	ldcls	8, cr1, [r8], {-0}
    3b00:	14460000 	strbne	r0, [r6], #-0
    3b04:	34160000 	ldrcc	r0, [r6], #-0
    3b08:	4d00009c 	stcmi	0, cr0, [r0, #-624]	; 0xfffffd90
    3b0c:	10000014 	andne	r0, r0, r4, lsl r0
    3b10:	17000012 	smladne	r0, r2, r0, r0
    3b14:	0a035301 	beq	d8720 <__bss_end__+0xcc0d8>
    3b18:	01170124 	tsteq	r7, r4, lsr #2
    3b1c:	78030552 	stmdavc	r3, {r1, r4, r6, r8, sl}
    3b20:	170000be 			; <UNDEFINED> instruction: 0x170000be
    3b24:	03055101 	movweq	r5, #20737	; 0x5101
    3b28:	0000b95c 	andeq	fp, r0, ip, asr r9
    3b2c:	05500117 	ldrbeq	r0, [r0, #-279]	; 0x117
    3b30:	00afb803 	adceq	fp, pc, r3, lsl #16
    3b34:	7d021700 	stcvc	7, cr1, [r2, #-0]
    3b38:	fc030500 	stc2	5, cr0, [r3], {-0}
    3b3c:	000000bd 	strheq	r0, [r0], -sp
    3b40:	009c3818 	addseq	r3, ip, r8, lsl r8
    3b44:	00146300 	andseq	r6, r4, r0, lsl #6
    3b48:	9c501900 	mrrcls	9, 0, r1, r0, cr0
    3b4c:	14a80000 	strtne	r0, [r8], #0
    3b50:	01170000 	tsteq	r7, r0
    3b54:	17310153 			; <UNDEFINED> instruction: 0x17310153
    3b58:	f3075201 	vhsub.u8	d5, d7, d1
    3b5c:	80235001 	eorhi	r5, r3, r1
    3b60:	01174080 	tsteq	r7, r0, lsl #1
    3b64:	01f30351 	mvnseq	r0, r1, asr r3
    3b68:	07000050 	smlsdeq	r0, r0, r0, r0
    3b6c:	00000771 	andeq	r0, r0, r1, ror r7
    3b70:	00087a2c 	andeq	r7, r8, ip, lsr #20
    3b74:	012a0100 	teqeq	sl, r0, lsl #2
    3b78:	00009c6c 	andeq	r9, r0, ip, ror #24
    3b7c:	00000074 	andeq	r0, r0, r4, ror r0
    3b80:	12e39c01 	rscne	r9, r3, #256	; 0x100
    3b84:	342d0000 	strtcc	r0, [sp], #-0
    3b88:	0100000f 	tsteq	r0, pc
    3b8c:	005d012a 	subseq	r0, sp, sl, lsr #2
    3b90:	13e20000 	mvnne	r0, #0
    3b94:	1c150000 	ldcne	0, cr0, [r5], {-0}
    3b98:	e3000000 	movw	r0, #0
    3b9c:	05000012 	streq	r0, [r0, #-18]
    3ba0:	00be8803 	adcseq	r8, lr, r3, lsl #16
    3ba4:	9c881800 	stcls	8, cr1, [r8], {0}
    3ba8:	14460000 	strbne	r0, [r6], #-0
    3bac:	a4160000 	ldrge	r0, [r6], #-0
    3bb0:	4d00009c 	stcmi	0, cr0, [r0, #-624]	; 0xfffffd90
    3bb4:	b8000014 	stmdalt	r0, {r2, r4}
    3bb8:	17000012 	smladne	r0, r2, r0, r0
    3bbc:	0a035301 	beq	d87c8 <__bss_end__+0xcc180>
    3bc0:	0117012b 	tsteq	r7, fp, lsr #2
    3bc4:	88030552 	stmdahi	r3, {r1, r4, r6, r8, sl}
    3bc8:	170000be 			; <UNDEFINED> instruction: 0x170000be
    3bcc:	03055101 	movweq	r5, #20737	; 0x5101
    3bd0:	0000b95c 	andeq	fp, r0, ip, asr r9
    3bd4:	05500117 	ldrbeq	r0, [r0, #-279]	; 0x117
    3bd8:	00afb803 	adceq	fp, pc, r3, lsl #16
    3bdc:	7d021700 	stcvc	7, cr1, [r2, #-0]
    3be0:	fc030500 	stc2	5, cr0, [r3], {-0}
    3be4:	000000bd 	strheq	r0, [r0], -sp
    3be8:	009ca818 	addseq	sl, ip, r8, lsl r8
    3bec:	00146300 	andseq	r6, r4, r0, lsl #6
    3bf0:	9cc01900 	stclls	9, cr1, [r0], {0}
    3bf4:	14a80000 	strtne	r0, [r8], #0
    3bf8:	01170000 	tsteq	r7, r0
    3bfc:	17320153 			; <UNDEFINED> instruction: 0x17320153
    3c00:	f3075201 	vhsub.u8	d5, d7, d1
    3c04:	80235001 	eorhi	r5, r3, r1
    3c08:	01174080 	tsteq	r7, r0, lsl #1
    3c0c:	01f30351 	mvnseq	r0, r1, asr r3
    3c10:	07000050 	smlsdeq	r0, r0, r0, r0
    3c14:	000004c9 	andeq	r0, r0, r9, asr #9
    3c18:	0007eb2c 	andeq	lr, r7, ip, lsr #22
    3c1c:	01310100 	teqeq	r1, r0, lsl #2
    3c20:	00009ce0 	andeq	r9, r0, r0, ror #25
    3c24:	00000024 	andeq	r0, r0, r4, lsr #32
    3c28:	13329c01 	teqne	r2, #256	; 0x100
    3c2c:	342d0000 	strtcc	r0, [sp], #-0
    3c30:	0100000f 	tsteq	r0, pc
    3c34:	005d0131 	subseq	r0, sp, r1, lsr r1
    3c38:	14320000 	ldrtne	r0, [r2], #-0
    3c3c:	1c2e0000 	stcne	0, cr0, [lr], #-0
    3c40:	42000000 	andmi	r0, r0, #0
    3c44:	19000013 	stmdbne	r0, {r0, r1, r4}
    3c48:	00009cfc 	strdeq	r9, [r0], -ip
    3c4c:	00001506 	andeq	r1, r0, r6, lsl #10
    3c50:	01520117 	cmpeq	r2, r7, lsl r1
    3c54:	51011731 	tstpl	r1, r1, lsr r7
    3c58:	5001f307 	andpl	pc, r1, r7, lsl #6
    3c5c:	24442544 	strbcs	r2, [r4], #-1348	; 0x544
    3c60:	7f1a0000 	svcvc	0x001a0000
    3c64:	42000000 	andmi	r0, r0, #0
    3c68:	1b000013 	blne	3cbc <__code_start__-0x4344>
    3c6c:	00000076 	andeq	r0, r0, r6, ror r0
    3c70:	32070012 	andcc	r0, r7, #18
    3c74:	2f000013 	svccs	0x00000013
    3c78:	0000077b 	andeq	r0, r0, fp, ror r7
    3c7c:	2c013801 	stccs	8, cr3, [r1], {1}
    3c80:	04000000 	streq	r0, [r0], #-0
    3c84:	1800009d 	stmdane	r0, {r0, r2, r3, r4, r7}
    3c88:	01000000 	mrseq	r0, (UNDEF: 0)
    3c8c:	0013719c 	mulseq	r3, ip, r1
    3c90:	9d101900 	ldcls	9, cr1, [r0, #-0]
    3c94:	05370000 	ldreq	r0, [r7, #-0]!
    3c98:	01170000 	tsteq	r7, r0
    3c9c:	00320150 	eorseq	r0, r2, r0, asr r1
    3ca0:	079c2c00 	ldreq	r2, [ip, r0, lsl #24]
    3ca4:	3e010000 	cdpcc	0, 0, cr0, cr1, cr0, {0}
    3ca8:	009d1c01 	addseq	r1, sp, r1, lsl #24
    3cac:	00001000 	andeq	r1, r0, r0
    3cb0:	a59c0100 	ldrge	r0, [ip, #256]	; 0x100
    3cb4:	2e000013 	mcrcs	0, 0, r0, cr0, cr3, {0}
    3cb8:	0000001c 	andeq	r0, r0, ip, lsl r0
    3cbc:	000013b5 			; <UNDEFINED> instruction: 0x000013b5
    3cc0:	009d2c19 	addseq	r2, sp, r9, lsl ip
    3cc4:	00065700 	andeq	r5, r6, r0, lsl #14
    3cc8:	51011700 	tstpl	r1, r0, lsl #14
    3ccc:	01173101 	tsteq	r7, r1, lsl #2
    3cd0:	00320150 	eorseq	r0, r2, r0, asr r1
    3cd4:	007f1a00 	rsbseq	r1, pc, r0, lsl #20
    3cd8:	13b50000 			; <UNDEFINED> instruction: 0x13b50000
    3cdc:	761b0000 	ldrvc	r0, [fp], -r0
    3ce0:	15000000 	strne	r0, [r0, #-0]
    3ce4:	13a50700 			; <UNDEFINED> instruction: 0x13a50700
    3ce8:	b02c0000 	eorlt	r0, ip, r0
    3cec:	01000008 	tsteq	r0, r8
    3cf0:	9d2c0142 	stflss	f0, [ip, #-264]!	; 0xfffffef8
    3cf4:	00100000 	andseq	r0, r0, r0
    3cf8:	9c010000 	stcls	0, cr0, [r1], {-0}
    3cfc:	000013ee 	andeq	r1, r0, lr, ror #7
    3d00:	00001c2e 	andeq	r1, r0, lr, lsr #24
    3d04:	0013fe00 	andseq	pc, r3, r0, lsl #28
    3d08:	9d3c1900 	ldcls	9, cr1, [ip, #-0]
    3d0c:	06570000 	ldrbeq	r0, [r7], -r0
    3d10:	01170000 	tsteq	r7, r0
    3d14:	17300151 			; <UNDEFINED> instruction: 0x17300151
    3d18:	32015001 	andcc	r5, r1, #1
    3d1c:	7f1a0000 	svcvc	0x001a0000
    3d20:	fe000000 	cdp2	0, 0, cr0, cr0, cr0, {0}
    3d24:	1b000013 	blne	3d78 <__code_start__-0x4288>
    3d28:	00000076 	andeq	r0, r0, r6, ror r0
    3d2c:	ee070014 	mcr	0, 0, r0, cr7, cr4, {0}
    3d30:	30000013 	andcc	r0, r0, r3, lsl r0
    3d34:	00000757 	andeq	r0, r0, r7, asr r7
    3d38:	01c01b01 	biceq	r1, r0, r1, lsl #22
    3d3c:	03050000 	movweq	r0, #20480	; 0x5000
    3d40:	0000c234 	andeq	ip, r0, r4, lsr r2
    3d44:	00074a30 	andeq	r4, r7, r0, lsr sl
    3d48:	2c4d0100 	stfcse	f0, [sp], {-0}
    3d4c:	05000000 	streq	r0, [r0, #-0]
    3d50:	00c24003 	sbceq	r4, r2, r3
    3d54:	74701400 	ldrbtvc	r1, [r0], #-1024	; 0x400
    3d58:	35e50100 	strbcc	r0, [r5, #256]!	; 0x100
    3d5c:	05000014 	streq	r0, [r0, #-20]
    3d60:	00c24403 	sbceq	r4, r2, r3, lsl #8
    3d64:	67040600 	strvs	r0, [r4, -r0, lsl #12]
    3d68:	31000001 	tstcc	r0, r1
    3d6c:	00000889 	andeq	r0, r0, r9, lsl #17
    3d70:	0025c208 	eoreq	ip, r5, r8, lsl #4
    3d74:	d5320000 	ldrle	r0, [r2, #-0]!
    3d78:	06000000 	streq	r0, [r0], -r0
    3d7c:	0a69331e 	beq	1a509fc <__bss_end__+0x1a443b4>
    3d80:	29060000 	stmdbcs	r6, {}	; <UNPREDICTABLE>
    3d84:	00000025 	andeq	r0, r0, r5, lsr #32
    3d88:	00001463 	andeq	r1, r0, r3, ror #8
    3d8c:	00008634 	andeq	r8, r0, r4, lsr r6
    3d90:	32003500 	andcc	r3, r0, #0, 10
    3d94:	000000f9 	strdeq	r0, [r0], -r9
    3d98:	a1366506 	teqge	r6, r6, lsl #10
    3d9c:	07000004 	streq	r0, [r0, -r4]
    3da0:	00005d6e 	andeq	r5, r0, lr, ror #26
    3da4:	01a23200 			; <UNDEFINED> instruction: 0x01a23200
    3da8:	3b070000 	blcc	1c3db0 <__bss_end__+0x1b7768>
    3dac:	00040032 	andeq	r0, r4, r2, lsr r0
    3db0:	360d0700 	strcc	r0, [sp], -r0, lsl #14
    3db4:	0000012b 	andeq	r0, r0, fp, lsr #2
    3db8:	00256c07 	eoreq	r6, r5, r7, lsl #24
    3dbc:	09330000 	ldmdbeq	r3!, {}	; <UNPREDICTABLE>
    3dc0:	07000004 	streq	r0, [r0, -r4]
    3dc4:	00143521 	andseq	r3, r4, r1, lsr #10
    3dc8:	0014a800 	andseq	sl, r4, r0, lsl #16
    3dcc:	007d3400 	rsbseq	r3, sp, r0, lsl #8
    3dd0:	2c340000 	ldccs	0, cr0, [r4], #-0
    3dd4:	00000000 	andeq	r0, r0, r0
    3dd8:	00037633 	andeq	r7, r3, r3, lsr r6
    3ddc:	35250700 	strcc	r0, [r5, #-1792]!	; 0x700
    3de0:	cc000014 	stcgt	0, cr0, [r0], {20}
    3de4:	34000014 	strcc	r0, [r0], #-20
    3de8:	00001435 	andeq	r1, r0, r5, lsr r4
    3dec:	00005d34 	andeq	r5, r0, r4, lsr sp
    3df0:	005d3400 	subseq	r3, sp, r0, lsl #8
    3df4:	5d340000 	ldcpl	0, cr0, [r4, #-0]
    3df8:	00000000 	andeq	r0, r0, r0
    3dfc:	0004cb32 	andeq	ip, r4, r2, lsr fp
    3e00:	370f0700 	strcc	r0, [pc, -r0, lsl #14]
    3e04:	00000290 	muleq	r0, r0, r2
    3e08:	14e44807 	strbtne	r4, [r4], #2055	; 0x807
    3e0c:	2c340000 	ldccs	0, cr0, [r4], #-0
    3e10:	00000000 	andeq	r0, r0, r0
    3e14:	00024737 	andeq	r4, r2, r7, lsr r7
    3e18:	ff450700 			; <UNDEFINED> instruction: 0xff450700
    3e1c:	34000014 	strcc	r0, [r0], #-20
    3e20:	0000002c 	andeq	r0, r0, ip, lsr #32
    3e24:	00002c34 	andeq	r2, r0, r4, lsr ip
    3e28:	14353400 	ldrtne	r3, [r5], #-1024	; 0x400
    3e2c:	32000000 	andcc	r0, r0, #0
    3e30:	0000046b 	andeq	r0, r0, fp, ror #8
    3e34:	5d383a07 	vldmdbpl	r8!, {s6-s12}
    3e38:	07000005 	streq	r0, [r0, -r5]
    3e3c:	14353433 	ldrtne	r3, [r5], #-1075	; 0x433
    3e40:	2c340000 	ldccs	0, cr0, [r4], #-0
    3e44:	34000000 	strcc	r0, [r0], #-0
    3e48:	0000002c 	andeq	r0, r0, ip, lsr #32
    3e4c:	01120000 	tsteq	r2, r0
    3e50:	00040000 	andeq	r0, r4, r0
    3e54:	000008b2 			; <UNDEFINED> instruction: 0x000008b2
    3e58:	09960104 	ldmibeq	r6, {r2, r8}
    3e5c:	8a010000 	bhi	43e64 <__bss_end__+0x3781c>
    3e60:	f5000009 			; <UNDEFINED> instruction: 0xf5000009
    3e64:	d0000009 	andle	r0, r0, r9
    3e68:	f00000a0 			; <UNDEFINED> instruction: 0xf00000a0
    3e6c:	ae000000 	cdpge	0, 0, cr0, cr0, cr0, {0}
    3e70:	02000008 	andeq	r0, r0, #8
    3e74:	6e690504 	cdpvs	5, 6, cr0, cr9, cr4, {0}
    3e78:	04030074 	streq	r0, [r3], #-116	; 0x74
    3e7c:	00003307 	andeq	r3, r0, r7, lsl #6
    3e80:	06010300 	streq	r0, [r1], -r0, lsl #6
    3e84:	000000c9 	andeq	r0, r0, r9, asr #1
    3e88:	06050203 	streq	r0, [r5], -r3, lsl #4
    3e8c:	03000001 	movweq	r0, #1
    3e90:	00050504 	andeq	r0, r5, r4, lsl #10
    3e94:	08030000 	stmdaeq	r3, {}	; <UNPREDICTABLE>
    3e98:	00000005 	andeq	r0, r0, r5
    3e9c:	09ed0400 	stmibeq	sp!, {sl}^
    3ea0:	2e020000 	cdpcs	0, 0, cr0, cr2, cr0, {0}
    3ea4:	0000005a 	andeq	r0, r0, sl, asr r0
    3ea8:	c7080103 	strgt	r0, [r8, -r3, lsl #2]
    3eac:	03000000 	movweq	r0, #0
    3eb0:	01180702 	tsteq	r8, r2, lsl #14
    3eb4:	f0040000 			; <UNDEFINED> instruction: 0xf0040000
    3eb8:	02000000 	andeq	r0, r0, #0
    3ebc:	00007334 	andeq	r7, r0, r4, lsr r3
    3ec0:	07040300 	streq	r0, [r4, -r0, lsl #6]
    3ec4:	0000002e 	andeq	r0, r0, lr, lsr #32
    3ec8:	29070803 	stmdbcs	r7, {r0, r1, fp}
    3ecc:	03000000 	movweq	r0, #0
    3ed0:	01990704 	orrseq	r0, r9, r4, lsl #14
    3ed4:	01030000 	mrseq	r0, (UNDEF: 3)
    3ed8:	0000d008 	andeq	sp, r0, r8
    3edc:	95040500 	strls	r0, [r4, #-1280]	; 0x500
    3ee0:	06000000 	streq	r0, [r0], -r0
    3ee4:	00000088 	andeq	r0, r0, r8, lsl #1
    3ee8:	00059d07 	andeq	r9, r5, r7, lsl #26
    3eec:	680f0100 	stmdavs	pc, {r8}	; <UNPREDICTABLE>
    3ef0:	d0000000 	andle	r0, r0, r0
    3ef4:	f00000a0 			; <UNDEFINED> instruction: 0xf00000a0
    3ef8:	01000000 	mrseq	r0, (UNDEF: 0)
    3efc:	00010e9c 	muleq	r1, ip, lr
    3f00:	133e0800 	teqne	lr, #0, 16
    3f04:	0f010000 	svceq	0x00010000
    3f08:	0000010e 	andeq	r0, r0, lr, lsl #2
    3f0c:	00001471 	andeq	r1, r0, r1, ror r4
    3f10:	6e656c09 	cdpvs	12, 6, cr6, cr5, cr9, {0}
    3f14:	250f0100 	strcs	r0, [pc, #-256]	; 3e1c <__code_start__-0x41e4>
    3f18:	ab000000 	blge	3f20 <__code_start__-0x40e0>
    3f1c:	0a000014 	beq	3f74 <__code_start__-0x408c>
    3f20:	0000133f 	andeq	r1, r0, pc, lsr r3
    3f24:	008f1001 	addeq	r1, pc, r1
    3f28:	14ea0000 	strbtne	r0, [sl], #0
    3f2c:	a20a0000 	andge	r0, sl, #0
    3f30:	01000005 	tsteq	r0, r5
    3f34:	00006811 	andeq	r6, r0, r1, lsl r8
    3f38:	00152900 	andseq	r2, r5, r0, lsl #18
    3f3c:	6d740b00 	vldmdbvs	r4!, {d16-d15}
    3f40:	11010070 	tstne	r1, r0, ror r0
    3f44:	00000068 	andeq	r0, r0, r8, rrx
    3f48:	00001573 	andeq	r1, r0, r3, ror r5
    3f4c:	6d65720b 	sfmvs	f7, 2, [r5, #-44]!	; 0xffffffd4
    3f50:	25120100 	ldrcs	r0, [r2, #-256]	; 0x100
    3f54:	be000000 	cdplt	0, 0, cr0, cr0, cr0, {0}
    3f58:	00000015 	andeq	r0, r0, r5, lsl r0
    3f5c:	01140405 	tsteq	r4, r5, lsl #8
    3f60:	000c0000 	andeq	r0, ip, r0
    3f64:	000000db 	ldrdeq	r0, [r0], -fp
    3f68:	09560004 	ldmdbeq	r6, {r2}^
    3f6c:	01040000 	mrseq	r0, (UNDEF: 4)
    3f70:	00000996 	muleq	r0, r6, r9
    3f74:	000a3b01 	andeq	r3, sl, r1, lsl #22
    3f78:	0009f500 	andeq	pc, r9, r0, lsl #10
    3f7c:	00a1c000 	adceq	ip, r1, r0
    3f80:	00002000 	andeq	r2, r0, r0
    3f84:	00099000 	andeq	r9, r9, r0
    3f88:	06010200 	streq	r0, [r1], -r0, lsl #4
    3f8c:	000000c9 	andeq	r0, r0, r9, asr #1
    3f90:	c7080102 	strgt	r0, [r8, -r2, lsl #2]
    3f94:	02000000 	andeq	r0, r0, #0
    3f98:	01060502 	tsteq	r6, r2, lsl #10
    3f9c:	02020000 	andeq	r0, r2, #0
    3fa0:	00011807 	andeq	r1, r1, r7, lsl #16
    3fa4:	05040300 	streq	r0, [r4, #-768]	; 0x300
    3fa8:	00746e69 	rsbseq	r6, r4, r9, ror #28
    3fac:	33070402 	movwcc	r0, #29698	; 0x7402
    3fb0:	02000000 	andeq	r0, r0, #0
    3fb4:	00000508 	andeq	r0, r0, r8, lsl #10
    3fb8:	08020000 	stmdaeq	r2, {}	; <UNPREDICTABLE>
    3fbc:	00002907 	andeq	r2, r0, r7, lsl #18
    3fc0:	05040200 	streq	r0, [r4, #-512]	; 0x200
    3fc4:	00000005 	andeq	r0, r0, r5
    3fc8:	99070402 	stmdbls	r7, {r1, sl}
    3fcc:	04000001 	streq	r0, [r0], #-1
    3fd0:	07040204 	streq	r0, [r4, -r4, lsl #4]
    3fd4:	0000002e 	andeq	r0, r0, lr, lsr #32
    3fd8:	007a0405 	rsbseq	r0, sl, r5, lsl #8
    3fdc:	01020000 	mrseq	r0, (UNDEF: 2)
    3fe0:	0000d008 	andeq	sp, r0, r8
    3fe4:	01e50600 	mvneq	r0, r0, lsl #12
    3fe8:	d4020000 	strle	r0, [r2], #-0
    3fec:	00000048 	andeq	r0, r0, r8, asr #32
    3ff0:	00049007 	andeq	r9, r4, r7
    3ff4:	6b1b0300 	blvs	6c4bfc <__bss_end__+0x6b85b4>
    3ff8:	c0000000 	andgt	r0, r0, r0
    3ffc:	200000a1 	andcs	r0, r0, r1, lsr #1
    4000:	01000000 	mrseq	r0, (UNDEF: 0)
    4004:	705f089c 			; <UNDEFINED> instruction: 0x705f089c
    4008:	6b030100 	blvs	c4410 <__bss_end__+0xb7dc8>
    400c:	01000000 	mrseq	r0, (UNDEF: 0)
    4010:	00630850 	rsbeq	r0, r3, r0, asr r8
    4014:	00410301 	subeq	r0, r1, r1, lsl #6
    4018:	51010000 	mrspl	r0, (UNDEF: 1)
    401c:	01006e09 	tsteq	r0, r9, lsl #28
    4020:	00008103 	andeq	r8, r0, r3, lsl #2
    4024:	0015d100 	andseq	sp, r5, r0, lsl #2
    4028:	00700a00 	rsbseq	r0, r0, r0, lsl #20
    402c:	00740401 	rsbseq	r0, r4, r1, lsl #8
    4030:	15f20000 	ldrbne	r0, [r2, #0]!
    4034:	650b0000 	strvs	r0, [fp, #-0]
    4038:	74040100 	strvc	r0, [r4], #-256	; 0x100
    403c:	01000000 	mrseq	r0, (UNDEF: 0)
    4040:	91000052 	qaddls	r0, r2, r0
    4044:	04000001 	streq	r0, [r0], #-1
    4048:	0009f300 	andeq	pc, r9, r0, lsl #6
    404c:	96010400 	strls	r0, [r1], -r0, lsl #8
    4050:	01000009 	tsteq	r0, r9
    4054:	00000a58 	andeq	r0, r0, r8, asr sl
    4058:	000009f5 	strdeq	r0, [r0], -r5
    405c:	0000a1e0 	andeq	sl, r0, r0, ror #3
    4060:	00000058 	andeq	r0, r0, r8, asr r0
    4064:	00000a80 	andeq	r0, r0, r0, lsl #21
    4068:	000a4902 	andeq	r4, sl, r2, lsl #18
    406c:	30280200 	eorcc	r0, r8, r0, lsl #4
    4070:	03000000 	movweq	r0, #0
    4074:	00000a70 	andeq	r0, r0, r0, ror sl
    4078:	47000304 	strmi	r0, [r0, -r4, lsl #6]
    407c:	04000000 	streq	r0, [r0], #-0
    4080:	00000a7a 	andeq	r0, r0, sl, ror sl
    4084:	00000047 	andeq	r0, r0, r7, asr #32
    4088:	04050000 	streq	r0, [r5], #-0
    408c:	000a7202 	andeq	r7, sl, r2, lsl #4
    4090:	25620200 	strbcs	r0, [r2, #-512]!	; 0x200
    4094:	06000000 	streq	r0, [r0], -r0
    4098:	6e690504 	cdpvs	5, 6, cr0, cr9, cr4, {0}
    409c:	04070074 	streq	r0, [r7], #-116	; 0x74
    40a0:	00003307 	andeq	r3, r0, r7, lsl #6
    40a4:	06010700 	streq	r0, [r1], -r0, lsl #14
    40a8:	000000c9 	andeq	r0, r0, r9, asr #1
    40ac:	06050207 	streq	r0, [r5], -r7, lsl #4
    40b0:	07000001 	streq	r0, [r0, -r1]
    40b4:	00050504 	andeq	r0, r5, r4, lsl #10
    40b8:	08070000 	stmdaeq	r7, {}	; <UNPREDICTABLE>
    40bc:	00000005 	andeq	r0, r0, r5
    40c0:	08010700 	stmdaeq	r1, {r8, r9, sl}
    40c4:	000000c7 	andeq	r0, r0, r7, asr #1
    40c8:	18070207 	stmdane	r7, {r0, r1, r2, r9}
    40cc:	07000001 	streq	r0, [r0, -r1]
    40d0:	002e0704 	eoreq	r0, lr, r4, lsl #14
    40d4:	08070000 	stmdaeq	r7, {}	; <UNPREDICTABLE>
    40d8:	00002907 	andeq	r2, r0, r7, lsl #18
    40dc:	07040700 	streq	r0, [r4, -r0, lsl #14]
    40e0:	00000199 	muleq	r0, r9, r1
    40e4:	00a70408 	adceq	r0, r7, r8, lsl #8
    40e8:	01070000 	mrseq	r0, (UNDEF: 7)
    40ec:	0000d008 	andeq	sp, r0, r8
    40f0:	b4040800 	strlt	r0, [r4], #-2048	; 0x800
    40f4:	09000000 	stmdbeq	r0, {}	; <UNPREDICTABLE>
    40f8:	000000a7 	andeq	r0, r0, r7, lsr #1
    40fc:	000a690a 	andeq	r6, sl, sl, lsl #18
    4100:	54060100 	strpl	r0, [r6], #-256	; 0x100
    4104:	e0000000 	and	r0, r0, r0
    4108:	580000a1 	stmdapl	r0, {r0, r5, r7}
    410c:	01000000 	mrseq	r0, (UNDEF: 0)
    4110:	0001439c 	muleq	r1, ip, r3
    4114:	6d660b00 	vstmdbvs	r6!, {d16-d15}
    4118:	06010074 			; <UNDEFINED> instruction: 0x06010074
    411c:	000000ae 	andeq	r0, r0, lr, lsr #1
    4120:	0c709102 	ldfeqp	f1, [r0], #-8
    4124:	6675620d 	ldrbtvs	r6, [r5], -sp, lsl #4
    4128:	43080100 	movwmi	r0, #33024	; 0x8100
    412c:	05000001 	streq	r0, [r0, #-1]
    4130:	00c24803 	sbceq	r4, r2, r3, lsl #16
    4134:	0f560e00 	svceq	0x00560e00
    4138:	09010000 	stmdbeq	r1, {}	; <UNPREDICTABLE>
    413c:	00000049 	andeq	r0, r0, r9, asr #32
    4140:	0f5c9102 	svceq	0x005c9102
    4144:	01007a73 	tsteq	r0, r3, ror sl
    4148:	0000540c 	andeq	r5, r0, ip, lsl #8
    414c:	00161d00 	andseq	r1, r6, r0, lsl #26
    4150:	a2081000 	andge	r1, r8, #0
    4154:	01740000 	cmneq	r4, r0
    4158:	01360000 	teqeq	r6, r0
    415c:	01110000 	tsteq	r1, r0
    4160:	4c910253 	lfmmi	f0, 4, [r1], {83}	; 0x53
    4164:	03520111 	cmpeq	r2, #1073741828	; 0x40000004
    4168:	11064891 			; <UNDEFINED> instruction: 0x11064891
    416c:	0a035101 	beq	d8578 <__bss_end__+0xcbf30>
    4170:	01110400 	tsteq	r1, r0, lsl #8
    4174:	00740250 	rsbseq	r0, r4, r0, asr r2
    4178:	a21c1200 	andsge	r1, ip, #0, 4
    417c:	01110000 	tsteq	r1, r0
    4180:	00740250 	rsbseq	r0, r4, r0, asr r2
    4184:	a7130000 	ldrge	r0, [r3, -r0]
    4188:	54000000 	strpl	r0, [r0], #-0
    418c:	14000001 	strne	r0, [r0], #-1
    4190:	0000009a 	muleq	r0, sl, r0
    4194:	150003ff 	strne	r0, [r0, #-1023]	; 0x3ff
    4198:	00000054 	andeq	r0, r0, r4, asr r0
    419c:	00000163 	andeq	r0, r0, r3, ror #2
    41a0:	0000ae16 	andeq	sl, r0, r6, lsl lr
    41a4:	d7170000 	ldrle	r0, [r7, -r0]
    41a8:	0400000a 	streq	r0, [r0], #-10
    41ac:	00016e22 	andeq	r6, r1, r2, lsr #28
    41b0:	54040800 	strpl	r0, [r4], #-2048	; 0x800
    41b4:	18000001 	stmdane	r0, {r0}
    41b8:	00000a66 	andeq	r0, r0, r6, ror #20
    41bc:	00540205 	subseq	r0, r4, r5, lsl #4
    41c0:	a1160000 	tstge	r6, r0
    41c4:	16000000 	strne	r0, [r0], -r0
    41c8:	00000054 	andeq	r0, r0, r4, asr r0
    41cc:	0000ae16 	andeq	sl, r0, r6, lsl lr
    41d0:	00491600 	subeq	r1, r9, r0, lsl #12
    41d4:	00000000 	andeq	r0, r0, r0
    41d8:	00000113 	andeq	r0, r0, r3, lsl r1
    41dc:	0b240004 	bleq	9041f4 <__bss_end__+0x8f7bac>
    41e0:	01040000 	mrseq	r0, (UNDEF: 4)
    41e4:	00000996 	muleq	r0, r6, r9
    41e8:	000aa601 	andeq	sl, sl, r1, lsl #12
    41ec:	0009f500 	andeq	pc, r9, r0, lsl #10
    41f0:	00a23800 	adceq	r3, r2, r0, lsl #16
    41f4:	00003c00 	andeq	r3, r0, r0, lsl #24
    41f8:	000b9000 	andeq	r9, fp, r0
    41fc:	05040200 	streq	r0, [r4, #-512]	; 0x200
    4200:	00746e69 	rsbseq	r6, r4, r9, ror #28
    4204:	33070403 	movwcc	r0, #29699	; 0x7403
    4208:	03000000 	movweq	r0, #0
    420c:	00c90601 	sbceq	r0, r9, r1, lsl #12
    4210:	02030000 	andeq	r0, r3, #0
    4214:	00010605 	andeq	r0, r1, r5, lsl #12
    4218:	05040300 	streq	r0, [r4, #-768]	; 0x300
    421c:	00000005 	andeq	r0, r0, r5
    4220:	00050803 	andeq	r0, r5, r3, lsl #16
    4224:	03000000 	movweq	r0, #0
    4228:	00c70801 	sbceq	r0, r7, r1, lsl #16
    422c:	02030000 	andeq	r0, r3, #0
    4230:	00011807 	andeq	r1, r1, r7, lsl #16
    4234:	07040300 	streq	r0, [r4, -r0, lsl #6]
    4238:	0000002e 	andeq	r0, r0, lr, lsr #32
    423c:	29070803 	stmdbcs	r7, {r0, r1, fp}
    4240:	03000000 	movweq	r0, #0
    4244:	01990704 	orrseq	r0, r9, r4, lsl #14
    4248:	01030000 	mrseq	r0, (UNDEF: 3)
    424c:	0000d008 	andeq	sp, r0, r8
    4250:	0a890400 	beq	fe245258 <__bss_end__+0xfe238c10>
    4254:	03010000 	movweq	r0, #4096	; 0x1000
    4258:	00000025 	andeq	r0, r0, r5, lsr #32
    425c:	0000a238 	andeq	sl, r0, r8, lsr r2
    4260:	00000014 	andeq	r0, r0, r4, lsl r0
    4264:	00b09c01 	adcseq	r9, r0, r1, lsl #24
    4268:	63050000 	movwvs	r0, #20480	; 0x5000
    426c:	25030100 	strcs	r0, [r3, #-256]	; 0x100
    4270:	46000000 	strmi	r0, [r0], -r0
    4274:	06000016 			; <UNDEFINED> instruction: 0x06000016
    4278:	0000a244 	andeq	sl, r0, r4, asr #4
    427c:	00000109 	andeq	r0, r0, r9, lsl #2
    4280:	02500107 	subseq	r0, r0, #-1073741823	; 0xc0000001
    4284:	00000074 	andeq	r0, r0, r4, ror r0
    4288:	0000d508 	andeq	sp, r0, r8, lsl #10
    428c:	4c080100 	stfmis	f0, [r8], {-0}
    4290:	180000a2 	stmdane	r0, {r1, r5, r7}
    4294:	01000000 	mrseq	r0, (UNDEF: 0)
    4298:	0ab5099c 	beq	fed46910 <__bss_end__+0xfed3a2c8>
    429c:	0b010000 	bleq	442a4 <__bss_end__+0x37c5c>
    42a0:	0000a264 	andeq	sl, r0, r4, ror #4
    42a4:	00000010 	andeq	r0, r0, r0, lsl r0
    42a8:	00e39c01 	rsceq	r9, r3, r1, lsl #24
    42ac:	660a0000 	strvs	r0, [sl], -r0
    42b0:	0b010070 	bleq	44478 <__bss_end__+0x37e30>
    42b4:	000000f2 	strdeq	r0, [r0], -r2
    42b8:	0b005001 	bleq	182c4 <__bss_end__+0xbc7c>
    42bc:	00000025 	andeq	r0, r0, r5, lsr #32
    42c0:	000000f2 	strdeq	r0, [r0], -r2
    42c4:	0000250c 	andeq	r2, r0, ip, lsl #10
    42c8:	040d0000 	streq	r0, [sp], #-0
    42cc:	000000e3 	andeq	r0, r0, r3, ror #1
    42d0:	000a9a0e 	andeq	r9, sl, lr, lsl #20
    42d4:	f2060100 	vrhadd.s8	d0, d6, d0
    42d8:	05000000 	streq	r0, [r0, #-0]
    42dc:	00afa803 	adceq	sl, pc, r3, lsl #16
    42e0:	0a7f0f00 	beq	1fc7ee8 <__bss_end__+0x1fbb8a0>
    42e4:	3c020000 	stccc	0, cr0, [r2], {-0}
    42e8:	00002c0c 	andeq	r2, r0, ip, lsl #24
    42ec:	ee000000 	cdp	0, 0, cr0, cr0, cr0, {0}
    42f0:	04000000 	streq	r0, [r0], #-0
    42f4:	000c0c00 	andeq	r0, ip, r0, lsl #24
    42f8:	96010400 	strls	r0, [r1], -r0, lsl #8
    42fc:	01000009 	tsteq	r0, r9
    4300:	00000ac2 	andeq	r0, r0, r2, asr #21
    4304:	000009f5 	strdeq	r0, [r0], -r5
    4308:	0000a274 	andeq	sl, r0, r4, ror r2
    430c:	00000034 	andeq	r0, r0, r4, lsr r0
    4310:	00000c28 	andeq	r0, r0, r8, lsr #24
    4314:	69050402 	stmdbvs	r5, {r1, sl}
    4318:	0300746e 	movweq	r7, #1134	; 0x46e
    431c:	00330704 	eorseq	r0, r3, r4, lsl #14
    4320:	01030000 	mrseq	r0, (UNDEF: 3)
    4324:	0000c906 	andeq	ip, r0, r6, lsl #18
    4328:	05020300 	streq	r0, [r2, #-768]	; 0x300
    432c:	00000106 	andeq	r0, r0, r6, lsl #2
    4330:	05050403 	streq	r0, [r5, #-1027]	; 0x403
    4334:	03000000 	movweq	r0, #0
    4338:	00000508 	andeq	r0, r0, r8, lsl #10
    433c:	01030000 	mrseq	r0, (UNDEF: 3)
    4340:	0000c708 	andeq	ip, r0, r8, lsl #14
    4344:	07020300 	streq	r0, [r2, -r0, lsl #6]
    4348:	00000118 	andeq	r0, r0, r8, lsl r1
    434c:	2e070403 	cdpcs	4, 0, cr0, cr7, cr3, {0}
    4350:	03000000 	movweq	r0, #0
    4354:	00290708 	eoreq	r0, r9, r8, lsl #14
    4358:	04030000 	streq	r0, [r3], #-0
    435c:	00019907 	andeq	r9, r1, r7, lsl #18
    4360:	08010300 	stmdaeq	r1, {r8, r9}
    4364:	000000d0 	ldrdeq	r0, [r0], -r0	; <UNPREDICTABLE>
    4368:	007f0404 	rsbseq	r0, pc, r4, lsl #8
    436c:	72050000 	andvc	r0, r5, #0
    4370:	06000000 	streq	r0, [r0], -r0
    4374:	00000ace 	andeq	r0, r0, lr, asr #21
    4378:	00250401 	eoreq	r0, r5, r1, lsl #8
    437c:	a2740000 	rsbsge	r0, r4, #0
    4380:	00340000 	eorseq	r0, r4, r0
    4384:	9c010000 	stcls	0, cr0, [r1], {-0}
    4388:	000000ab 	andeq	r0, r0, fp, lsr #1
    438c:	01007007 	tsteq	r0, r7
    4390:	00007904 	andeq	r7, r0, r4, lsl #18
    4394:	00166400 	andseq	r6, r6, r0, lsl #8
    4398:	25080000 	strcs	r0, [r8, #-0]
    439c:	ba000000 	blt	43a4 <__code_start__-0x3c5c>
    43a0:	09000000 	stmdbeq	r0, {}	; <UNPREDICTABLE>
    43a4:	00000025 	andeq	r0, r0, r5, lsr #32
    43a8:	0a9a0a00 	beq	fe686bb0 <__bss_end__+0xfe67a568>
    43ac:	1d020000 	stcne	0, cr0, [r2, #-0]
    43b0:	000000c5 	andeq	r0, r0, r5, asr #1
    43b4:	00ab0404 	adceq	r0, fp, r4, lsl #8
    43b8:	25080000 	strcs	r0, [r8, #-0]
    43bc:	da000000 	ble	43c4 <__code_start__-0x3c3c>
    43c0:	09000000 	stmdbeq	r0, {}	; <UNPREDICTABLE>
    43c4:	00000079 	andeq	r0, r0, r9, ror r0
    43c8:	0ad70b00 	beq	ff5c6fd0 <__bss_end__+0xff5ba988>
    43cc:	0c010000 	stceq	0, cr0, [r1], {-0}
    43d0:	000000eb 	andeq	r0, r0, fp, ror #1
    43d4:	afac0305 	svcge	0x00ac0305
    43d8:	04040000 	streq	r0, [r4], #-0
    43dc:	000000cb 	andeq	r0, r0, fp, asr #1
    43e0:	0006e500 	andeq	lr, r6, r0, lsl #10
    43e4:	a5000400 	strge	r0, [r0, #-1024]	; 0x400
    43e8:	0400000c 	streq	r0, [r0], #-12
    43ec:	00099601 	andeq	r9, r9, r1, lsl #12
    43f0:	0b0d0100 	bleq	3447f8 <__bss_end__+0x3381b0>
    43f4:	09f50000 	ldmibeq	r5!, {}^	; <UNPREDICTABLE>
    43f8:	a2a80000 	adcge	r0, r8, #0
    43fc:	05780000 	ldrbeq	r0, [r8, #-0]!
    4400:	0ccc0000 	stcleq	0, cr0, [ip], {0}
    4404:	04020000 	streq	r0, [r2], #-0
    4408:	746e6905 	strbtvc	r6, [lr], #-2309	; 0x905
    440c:	07040300 	streq	r0, [r4, -r0, lsl #6]
    4410:	00000033 	andeq	r0, r0, r3, lsr r0
    4414:	c9060103 	stmdbgt	r6, {r0, r1, r8}
    4418:	03000000 	movweq	r0, #0
    441c:	01060502 	tsteq	r6, r2, lsl #10
    4420:	04030000 	streq	r0, [r3], #-0
    4424:	00000505 	andeq	r0, r0, r5, lsl #10
    4428:	05080300 	streq	r0, [r8, #-768]	; 0x300
    442c:	00000000 	andeq	r0, r0, r0
    4430:	c7080103 	strgt	r0, [r8, -r3, lsl #2]
    4434:	03000000 	movweq	r0, #0
    4438:	01180702 	tsteq	r8, r2, lsl #14
    443c:	04030000 	streq	r0, [r3], #-0
    4440:	00002e07 	andeq	r2, r0, r7, lsl #28
    4444:	07080300 	streq	r0, [r8, -r0, lsl #6]
    4448:	00000029 	andeq	r0, r0, r9, lsr #32
    444c:	99070403 	stmdbls	r7, {r0, r1, sl}
    4450:	04000001 	streq	r0, [r0], #-1
    4454:	7a040504 	bvc	10586c <__bss_end__+0xf9224>
    4458:	03000000 	movweq	r0, #0
    445c:	00d00801 	sbcseq	r0, r0, r1, lsl #16
    4460:	04050000 	streq	r0, [r5], #-0
    4464:	00000087 	andeq	r0, r0, r7, lsl #1
    4468:	00007a06 	andeq	r7, r0, r6, lsl #20
    446c:	0a490700 	beq	1246074 <__bss_end__+0x1239a2c>
    4470:	28020000 	stmdacs	r2, {}	; <UNPREDICTABLE>
    4474:	00000097 	muleq	r0, r7, r0
    4478:	000a7008 	andeq	r7, sl, r8
    447c:	00040400 	andeq	r0, r4, r0, lsl #8
    4480:	000000ae 	andeq	r0, r0, lr, lsr #1
    4484:	000a7a09 	andeq	r7, sl, r9, lsl #20
    4488:	00007200 	andeq	r7, r0, r0, lsl #4
    448c:	07000000 	streq	r0, [r0, -r0]
    4490:	00000a72 	andeq	r0, r0, r2, ror sl
    4494:	008c6202 	addeq	r6, ip, r2, lsl #4
    4498:	f40a0000 	vst4.8	{d0-d3}, [sl], r0
    449c:	0100000a 	tsteq	r0, sl
    44a0:	00002527 	andeq	r2, r0, r7, lsr #10
    44a4:	00a2a800 	adceq	sl, r2, r0, lsl #16
    44a8:	00001400 	andeq	r1, r0, r0, lsl #8
    44ac:	e09c0100 	adds	r0, ip, r0, lsl #2
    44b0:	0b000000 	bleq	44b8 <__code_start__-0x3b48>
    44b4:	27010063 	strcs	r0, [r1, -r3, rrx]
    44b8:	00000025 	andeq	r0, r0, r5, lsr #32
    44bc:	00001682 	andeq	r1, r0, r2, lsl #13
    44c0:	61700c00 	cmnvs	r0, r0, lsl #24
    44c4:	2e010064 	cdpcs	0, 0, cr0, cr1, cr4, {3}
    44c8:	00000074 	andeq	r0, r0, r4, ror r0
    44cc:	0000a2bc 			; <UNDEFINED> instruction: 0x0000a2bc
    44d0:	0000002c 	andeq	r0, r0, ip, lsr #32
    44d4:	01309c01 	teqeq	r0, r1, lsl #24
    44d8:	700b0000 	andvc	r0, fp, r0
    44dc:	742e0100 	strtvc	r0, [lr], #-256	; 0x100
    44e0:	b0000000 	andlt	r0, r0, r0
    44e4:	0d000016 	stceq	0, cr0, [r0, #-88]	; 0xffffffa8
    44e8:	00000f34 	andeq	r0, r0, r4, lsr pc
    44ec:	00742e01 	rsbseq	r2, r4, r1, lsl #28
    44f0:	16db0000 	ldrbne	r0, [fp], r0
    44f4:	2d0e0000 	stccs	0, cr0, [lr, #-0]
    44f8:	0100000b 	tsteq	r0, fp
    44fc:	0000252e 	andeq	r2, r0, lr, lsr #10
    4500:	0f520100 	svceq	0x00520100
    4504:	006e656c 	rsbeq	r6, lr, ip, ror #10
    4508:	00252f01 	eoreq	r2, r5, r1, lsl #30
    450c:	51010000 	mrspl	r0, (UNDEF: 1)
    4510:	0aec0a00 	beq	ffb06d18 <__bss_end__+0xffafa6d0>
    4514:	37010000 	strcc	r0, [r1, -r0]
    4518:	00000074 	andeq	r0, r0, r4, ror r0
    451c:	0000a2e8 	andeq	sl, r0, r8, ror #5
    4520:	00000040 	andeq	r0, r0, r0, asr #32
    4524:	019c9c01 	orrseq	r9, ip, r1, lsl #24
    4528:	640b0000 	strvs	r0, [fp], #-0
    452c:	01007473 	tsteq	r0, r3, ror r4
    4530:	00007437 	andeq	r7, r0, r7, lsr r4
    4534:	0016fc00 	andseq	pc, r6, r0, lsl #24
    4538:	006e0b00 	rsbeq	r0, lr, r0, lsl #22
    453c:	00253701 	eoreq	r3, r5, r1, lsl #14
    4540:	17340000 	ldrne	r0, [r4, -r0]!
    4544:	700b0000 	andvc	r0, fp, r0
    4548:	74370100 	ldrtvc	r0, [r7], #-256	; 0x100
    454c:	55000000 	strpl	r0, [r0, #-0]
    4550:	0d000017 	stceq	0, cr0, [r0, #-92]	; 0xffffffa4
    4554:	000014d2 	ldrdeq	r1, [r0], -r2
    4558:	00743701 	rsbseq	r3, r4, r1, lsl #14
    455c:	178b0000 	strne	r0, [fp, r0]
    4560:	6c100000 	ldcvs	0, cr0, [r0], {-0}
    4564:	01006e65 	tsteq	r0, r5, ror #28
    4568:	00002539 	andeq	r2, r0, r9, lsr r5
    456c:	0017a900 	andseq	sl, r7, r0, lsl #18
    4570:	00730f00 	rsbseq	r0, r3, r0, lsl #30
    4574:	00743d01 	rsbseq	r3, r4, r1, lsl #26
    4578:	50010000 	andpl	r0, r1, r0
    457c:	0b3b0a00 	bleq	ec6d84 <__bss_end__+0xeba73c>
    4580:	47010000 	strmi	r0, [r1, -r0]
    4584:	00000074 	andeq	r0, r0, r4, ror r0
    4588:	0000a328 	andeq	sl, r0, r8, lsr #6
    458c:	000001bc 			; <UNDEFINED> instruction: 0x000001bc
    4590:	02df9c01 	sbcseq	r9, pc, #256	; 0x100
    4594:	340d0000 	strcc	r0, [sp], #-0
    4598:	0100000f 	tsteq	r0, pc
    459c:	00002c47 	andeq	r2, r0, r7, asr #24
    45a0:	0017d000 	andseq	sp, r7, r0
    45a4:	73640b00 	cmnvc	r4, #0, 22
    45a8:	47010074 	smlsdxmi	r1, r4, r0, r0
    45ac:	00000074 	andeq	r0, r0, r4, ror r0
    45b0:	000017fe 	strdeq	r1, [r0], -lr
    45b4:	01006e0b 	tsteq	r0, fp, lsl #28
    45b8:	00002547 	andeq	r2, r0, r7, asr #10
    45bc:	00186c00 	andseq	r6, r8, r0, lsl #24
    45c0:	61760b00 	cmnvs	r6, r0, lsl #22
    45c4:	4701006c 	strmi	r0, [r1, -ip, rrx]
    45c8:	00000025 	andeq	r0, r0, r5, lsr #32
    45cc:	00001898 	muleq	r0, r8, r8
    45d0:	000b2d0d 	andeq	r2, fp, sp, lsl #26
    45d4:	25470100 	strbcs	r0, [r7, #-256]	; 0x100
    45d8:	17000000 	strne	r0, [r0, -r0]
    45dc:	0e000019 	mcreq	0, 0, r0, cr0, cr9, {0}
    45e0:	00000b04 	andeq	r0, r0, r4, lsl #22
    45e4:	00254701 	eoreq	r4, r5, r1, lsl #14
    45e8:	91020000 	mrsls	r0, (UNDEF: 2)
    45ec:	75620f04 	strbvc	r0, [r2, #-3844]!	; 0xf04
    45f0:	4c010066 	stcmi	0, cr0, [r1], {102}	; 0x66
    45f4:	000002df 	ldrdeq	r0, [r0], -pc	; <UNPREDICTABLE>
    45f8:	7fa89103 	svcvc	0x00a89103
    45fc:	01007010 	tsteq	r0, r0, lsl r0
    4600:	0000744c 	andeq	r7, r0, ip, asr #8
    4604:	00194100 	andseq	r4, r9, r0, lsl #2
    4608:	00751000 	rsbseq	r1, r5, r0
    460c:	002c4d01 	eoreq	r4, ip, r1, lsl #26
    4610:	1a2b0000 	bne	ac4618 <__bss_end__+0xab7fd0>
    4614:	1c110000 	ldcne	0, cr0, [r1], {-0}
    4618:	ff000000 			; <UNDEFINED> instruction: 0xff000000
    461c:	05000002 	streq	r0, [r0, #-2]
    4620:	00beb403 	adcseq	fp, lr, r3, lsl #8
    4624:	a3941200 	orrsge	r1, r4, #0, 4
    4628:	00740000 	rsbseq	r0, r4, r0
    462c:	02610000 	rsbeq	r0, r1, #0
    4630:	e6130000 	ldr	r0, [r3], -r0
    4634:	0100000a 	tsteq	r0, sl
    4638:	00002c52 	andeq	r2, r0, r2, asr ip
    463c:	001aee00 	andseq	lr, sl, r0, lsl #28
    4640:	80140000 	andshi	r0, r4, r0
    4644:	c40000a4 	strgt	r0, [r0], #-164	; 0xa4
    4648:	15000006 	strne	r0, [r0, #-6]
    464c:	0000a49c 	muleq	r0, ip, r4
    4650:	000006cb 	andeq	r0, r0, fp, asr #13
    4654:	000002a3 	andeq	r0, r0, r3, lsr #5
    4658:	02530116 	subseq	r0, r3, #-2147483643	; 0x80000005
    465c:	01167708 	tsteq	r6, r8, lsl #14
    4660:	b4030552 	strlt	r0, [r3], #-1362	; 0x552
    4664:	160000be 			; <UNDEFINED> instruction: 0x160000be
    4668:	03055101 	movweq	r5, #20737	; 0x5101
    466c:	0000bed8 	ldrdeq	fp, [r0], -r8
    4670:	05500116 	ldrbeq	r0, [r0, #-278]	; 0x116
    4674:	00afb803 	adceq	fp, pc, r3, lsl #16
    4678:	7d021600 	stcvc	6, cr1, [r2, #-0]
    467c:	e0030500 	and	r0, r3, r0, lsl #10
    4680:	000000b6 	strheq	r0, [r0], -r6
    4684:	00a4a014 	adceq	sl, r4, r4, lsl r0
    4688:	0006e100 	andeq	lr, r6, r0, lsl #2
    468c:	a4a81500 	strtge	r1, [r8], #1280	; 0x500
    4690:	00e00000 	rsceq	r0, r0, r0
    4694:	02c10000 	sbceq	r0, r1, #0
    4698:	01160000 	tsteq	r6, r0
    469c:	a0910351 	addsge	r0, r1, r1, asr r3
    46a0:	bc17007f 	ldclt	0, cr0, [r7], {127}	; 0x7f
    46a4:	300000a4 	andcc	r0, r0, r4, lsr #1
    46a8:	16000001 	strne	r0, [r0], -r1
    46ac:	91035301 	tstls	r3, r1, lsl #6
    46b0:	01167fa0 	tsteq	r6, r0, lsr #31
    46b4:	00740251 	rsbseq	r0, r4, r1, asr r2
    46b8:	02500116 	subseq	r0, r0, #-2147483643	; 0x80000005
    46bc:	00000075 	andeq	r0, r0, r5, ror r0
    46c0:	00007a18 	andeq	r7, r0, r8, lsl sl
    46c4:	0002ef00 	andeq	lr, r2, r0, lsl #30
    46c8:	006b1900 	rsbeq	r1, fp, r0, lsl #18
    46cc:	003f0000 	eorseq	r0, pc, r0
    46d0:	00007a18 	andeq	r7, r0, r8, lsl sl
    46d4:	0002ff00 	andeq	pc, r2, r0, lsl #30
    46d8:	006b1900 	rsbeq	r1, fp, r0, lsl #18
    46dc:	00040000 	andeq	r0, r4, r0
    46e0:	0002ef06 	andeq	lr, r2, r6, lsl #30
    46e4:	0b1e1a00 	bleq	78aeec <__bss_end__+0x77e8a4>
    46e8:	1f010000 	svcne	0x00010000
    46ec:	0000a4e4 	andeq	sl, r0, r4, ror #9
    46f0:	00000068 	andeq	r0, r0, r8, rrx
    46f4:	03929c01 	orrseq	r9, r2, #256	; 0x100
    46f8:	330d0000 	movwcc	r0, #53248	; 0xd000
    46fc:	0100000b 	tsteq	r0, fp
    4700:	0003a11f 	andeq	sl, r3, pc, lsl r1
    4704:	001b1a00 	andseq	r1, fp, r0, lsl #20
    4708:	0afc0d00 	beq	fff07b10 <__bss_end__+0xffefb4c8>
    470c:	1f010000 	svcne	0x00010000
    4710:	000003b6 			; <UNDEFINED> instruction: 0x000003b6
    4714:	00001b46 	andeq	r1, r0, r6, asr #22
    4718:	00001c11 	andeq	r1, r0, r1, lsl ip
    471c:	0003cc00 	andeq	ip, r3, r0, lsl #24
    4720:	bc030500 	cfstr32lt	mvfx0, [r3], {-0}
    4724:	140000be 	strne	r0, [r0], #-190	; 0xbe
    4728:	0000a4f8 	strdeq	sl, [r0], -r8
    472c:	000006c4 	andeq	r0, r0, r4, asr #13
    4730:	00a51415 	adceq	r1, r5, r5, lsl r4
    4734:	0006cb00 	andeq	ip, r6, r0, lsl #22
    4738:	00038800 	andeq	r8, r3, r0, lsl #16
    473c:	53011600 	movwpl	r1, #5632	; 0x1600
    4740:	16200802 	strtne	r0, [r0], -r2, lsl #16
    4744:	03055201 	movweq	r5, #20993	; 0x5201
    4748:	0000bebc 			; <UNDEFINED> instruction: 0x0000bebc
    474c:	05510116 	ldrbeq	r0, [r1, #-278]	; 0x116
    4750:	00bed803 	adcseq	sp, lr, r3, lsl #16
    4754:	50011600 	andpl	r1, r1, r0, lsl #12
    4758:	afb80305 	svcge	0x00b80305
    475c:	02160000 	andseq	r0, r6, #0
    4760:	0305007d 	movweq	r0, #20605	; 0x507d
    4764:	0000bf10 	andeq	fp, r0, r0, lsl pc
    4768:	a5181400 	ldrge	r1, [r8, #-1024]	; 0x400
    476c:	06e10000 	strbteq	r0, [r1], r0
    4770:	1b000000 	blne	4778 <__code_start__-0x3888>
    4774:	00000025 	andeq	r0, r0, r5, lsr #32
    4778:	000003a1 	andeq	r0, r0, r1, lsr #7
    477c:	0000251c 	andeq	r2, r0, ip, lsl r5
    4780:	04050000 	streq	r0, [r5], #-0
    4784:	00000392 	muleq	r0, r2, r3
    4788:	0000251b 	andeq	r2, r0, fp, lsl r5
    478c:	0003b600 	andeq	fp, r3, r0, lsl #12
    4790:	00811c00 	addeq	r1, r1, r0, lsl #24
    4794:	05000000 	streq	r0, [r0, #-0]
    4798:	0003a704 	andeq	sl, r3, r4, lsl #14
    479c:	007a1800 	rsbseq	r1, sl, r0, lsl #16
    47a0:	03cc0000 	biceq	r0, ip, #0
    47a4:	6b190000 	blvs	6447ac <__bss_end__+0x638164>
    47a8:	0e000000 	cdpeq	0, 0, cr0, cr0, cr0, {0}
    47ac:	03bc0600 			; <UNDEFINED> instruction: 0x03bc0600
    47b0:	661d0000 	ldrvs	r0, [sp], -r0
    47b4:	0100000a 	tsteq	r0, sl
    47b8:	0000257f 	andeq	r2, r0, pc, ror r5
    47bc:	00a54c00 	adceq	r4, r5, r0, lsl #24
    47c0:	0002d400 	andeq	sp, r2, r0, lsl #8
    47c4:	899c0100 	ldmibhi	ip, {r8}
    47c8:	0b000006 	bleq	47e8 <__code_start__-0x3818>
    47cc:	00667562 	rsbeq	r7, r6, r2, ror #10
    47d0:	00747f01 	rsbseq	r7, r4, r1, lsl #30
    47d4:	1b720000 	blne	1c847dc <__bss_end__+0x1c78194>
    47d8:	6e0b0000 	cdpvs	0, 0, cr0, cr11, cr0, {0}
    47dc:	257f0100 	ldrbcs	r0, [pc, #-256]!	; 46e4 <__code_start__-0x391c>
    47e0:	9e000000 	cdpls	0, 0, cr0, cr0, cr0, {0}
    47e4:	0b00001b 	bleq	4858 <__code_start__-0x37a8>
    47e8:	00746d66 	rsbseq	r6, r4, r6, ror #26
    47ec:	00817f01 	addeq	r7, r1, r1, lsl #30
    47f0:	1bcc0000 	blne	ff3047f8 <__bss_end__+0xff2f81b0>
    47f4:	560d0000 	strpl	r0, [sp], -r0
    47f8:	0100000f 	tsteq	r0, pc
    47fc:	0000ae7f 	andeq	sl, r0, pc, ror lr
    4800:	001bea00 	andseq	lr, fp, r0, lsl #20
    4804:	00701000 	rsbseq	r1, r0, r0
    4808:	00748001 	rsbseq	r8, r4, r1
    480c:	1bfd0000 	blne	fff44814 <__bss_end__+0xfff381cc>
    4810:	65100000 	ldrvs	r0, [r0, #-0]
    4814:	74800100 	strvc	r0, [r0], #256	; 0x100
    4818:	7b000000 	blvc	4820 <__code_start__-0x37e0>
    481c:	1300001c 	movwne	r0, #28
    4820:	00000adc 	ldrdeq	r0, [r0], -ip
    4824:	00818301 	addeq	r8, r1, r1, lsl #6
    4828:	1ca20000 	stcne	0, cr0, [r2]
    482c:	1c110000 	ldcne	0, cr0, [r1], {-0}
    4830:	99000000 	stmdbls	r0, {}	; <UNPREDICTABLE>
    4834:	05000006 	streq	r0, [r0, #-6]
    4838:	00becc03 	adcseq	ip, lr, r3, lsl #24
    483c:	a5a81e00 	strge	r1, [r8, #3584]!	; 0xe00
    4840:	022c0000 	eoreq	r0, ip, #0
    4844:	73100000 	tstvc	r0, #0
    4848:	748e0100 	strvc	r0, [lr], #256	; 0x100
    484c:	c2000000 	andgt	r0, r0, #0
    4850:	0f00001c 	svceq	0x0000001c
    4854:	006d756e 	rsbeq	r7, sp, lr, ror #10
    4858:	069e8e01 	ldreq	r8, [lr], r1, lsl #28
    485c:	91030000 	mrsls	r0, (UNDEF: 3)
    4860:	2d137ed8 	ldccs	14, cr7, [r3, #-864]	; 0xfffffca0
    4864:	0100000b 	tsteq	r0, fp
    4868:	00002c8f 	andeq	r2, r0, pc, lsl #25
    486c:	001d1700 	andseq	r1, sp, r0, lsl #14
    4870:	a5d81500 	ldrbge	r1, [r8, #1280]	; 0x500
    4874:	00b90000 	adcseq	r0, r9, r0
    4878:	04a40000 	strteq	r0, [r4], #0
    487c:	01160000 	tsteq	r6, r0
    4880:	00750250 	rsbseq	r0, r5, r0, asr r2
    4884:	a5ec1400 	strbge	r1, [ip, #1024]!	; 0x400
    4888:	06c40000 	strbeq	r0, [r4], r0
    488c:	08150000 	ldmdaeq	r5, {}	; <UNPREDICTABLE>
    4890:	cb0000a6 	blgt	4b30 <__code_start__-0x34d0>
    4894:	e6000006 	str	r0, [r0], -r6
    4898:	16000004 	strne	r0, [r0], -r4
    489c:	08025301 	stmdaeq	r2, {r0, r8, r9, ip, lr}
    48a0:	52011695 	andpl	r1, r1, #156237824	; 0x9500000
    48a4:	becc0305 	cdplt	3, 12, cr0, cr12, cr5, {0}
    48a8:	01160000 	tsteq	r6, r0
    48ac:	d8030551 	stmdale	r3, {r0, r4, r6, r8, sl}
    48b0:	160000be 			; <UNDEFINED> instruction: 0x160000be
    48b4:	03055001 	movweq	r5, #20481	; 0x5001
    48b8:	0000afb8 			; <UNDEFINED> instruction: 0x0000afb8
    48bc:	007d0216 	rsbseq	r0, sp, r6, lsl r2
    48c0:	bf180305 	svclt	0x00180305
    48c4:	14000000 	strne	r0, [r0], #-0
    48c8:	0000a60c 	andeq	sl, r0, ip, lsl #12
    48cc:	000006e1 	andeq	r0, r0, r1, ror #13
    48d0:	00a67c14 	adceq	r7, r6, r4, lsl ip
    48d4:	0006c400 	andeq	ip, r6, r0, lsl #8
    48d8:	a6901500 	ldrge	r1, [r0], r0, lsl #10
    48dc:	06cb0000 	strbeq	r0, [fp], r0
    48e0:	05270000 	streq	r0, [r7, #-0]!
    48e4:	01160000 	tsteq	r6, r0
    48e8:	9b080253 	blls	20523c <__bss_end__+0x1f8bf4>
    48ec:	05520116 	ldrbeq	r0, [r2, #-278]	; 0x116
    48f0:	00becc03 	adcseq	ip, lr, r3, lsl #24
    48f4:	51011600 	tstpl	r1, r0, lsl #12
    48f8:	bed80305 	cdplt	3, 13, cr0, cr8, cr5, {0}
    48fc:	01160000 	tsteq	r6, r0
    4900:	24030550 	strcs	r0, [r3], #-1360	; 0x550
    4904:	000000bf 	strheq	r0, [r0], -pc	; <UNPREDICTABLE>
    4908:	00a69414 	adceq	r9, r6, r4, lsl r4
    490c:	0006e100 	andeq	lr, r6, r0, lsl #2
    4910:	a6b81500 	ldrtge	r1, [r8], r0, lsl #10
    4914:	019c0000 	orrseq	r0, ip, r0
    4918:	055d0000 	ldrbeq	r0, [sp, #-0]
    491c:	01160000 	tsteq	r6, r0
    4920:	80080252 	andhi	r0, r8, r2, asr r2
    4924:	03510116 	cmpeq	r1, #-2147483643	; 0x80000005
    4928:	167ed091 			; <UNDEFINED> instruction: 0x167ed091
    492c:	3a015001 	bcc	58938 <__bss_end__+0x4c2f0>
    4930:	047d0216 	ldrbteq	r0, [sp], #-534	; 0x216
    4934:	02163101 	andseq	r3, r6, #1073741824	; 0x40000000
    4938:	7702007d 	smlsdxvc	r2, sp, r0, r0
    493c:	e0150000 	ands	r0, r5, r0
    4940:	9c0000a6 	stcls	0, cr0, [r0], {166}	; 0xa6
    4944:	8a000001 	bhi	4950 <__code_start__-0x36b0>
    4948:	16000005 	strne	r0, [r0], -r5
    494c:	08025201 	stmdaeq	r2, {r0, r9, ip, lr}
    4950:	51011680 	smlabbpl	r1, r0, r6, r1
    4954:	7ed09103 	atnvcs	f1, f3
    4958:	01500116 	cmpeq	r0, r6, lsl r1
    495c:	7d02163a 	stcvc	6, cr1, [r2, #-232]	; 0xffffff18
    4960:	16300104 	ldrtne	r0, [r0], -r4, lsl #2
    4964:	02007d02 	andeq	r7, r0, #2, 26	; 0x80
    4968:	15000077 	strne	r0, [r0, #-119]	; 0x77
    496c:	0000a708 	andeq	sl, r0, r8, lsl #14
    4970:	0000019c 	muleq	r0, ip, r1
    4974:	000005b7 			; <UNDEFINED> instruction: 0x000005b7
    4978:	02520116 	subseq	r0, r2, #-2147483643	; 0x80000005
    497c:	01168008 	tsteq	r6, r8
    4980:	d0910351 	addsle	r0, r1, r1, asr r3
    4984:	5001167e 	andpl	r1, r1, lr, ror r6
    4988:	02164001 	andseq	r4, r6, #1
    498c:	3001047d 	andcc	r0, r1, sp, ror r4
    4990:	007d0216 	rsbseq	r0, sp, r6, lsl r2
    4994:	00007702 	andeq	r7, r0, r2, lsl #14
    4998:	00a73015 	adceq	r3, r7, r5, lsl r0
    499c:	00019c00 	andeq	r9, r1, r0, lsl #24
    49a0:	0005e400 	andeq	lr, r5, r0, lsl #8
    49a4:	52011600 	andpl	r1, r1, #0, 12
    49a8:	16800802 	strne	r0, [r0], r2, lsl #16
    49ac:	91035101 	tstls	r3, r1, lsl #2
    49b0:	01167ed0 			; <UNDEFINED> instruction: 0x01167ed0
    49b4:	16320150 			; <UNDEFINED> instruction: 0x16320150
    49b8:	01047d02 	tsteq	r4, r2, lsl #26
    49bc:	7d021630 	stcvc	6, cr1, [r2, #-192]	; 0xffffff40
    49c0:	00770200 	rsbseq	r0, r7, r0, lsl #4
    49c4:	a7641500 	strbge	r1, [r4, -r0, lsl #10]!
    49c8:	019c0000 	orrseq	r0, ip, r0
    49cc:	06110000 	ldreq	r0, [r1], -r0
    49d0:	01160000 	tsteq	r6, r0
    49d4:	80080252 	andhi	r0, r8, r2, asr r2
    49d8:	03510116 	cmpeq	r1, #-2147483643	; 0x80000005
    49dc:	167ed091 			; <UNDEFINED> instruction: 0x167ed091
    49e0:	38015001 	stmdacc	r1, {r0, ip, lr}
    49e4:	047d0216 	ldrbteq	r0, [sp], #-534	; 0x216
    49e8:	02163001 	andseq	r3, r6, #1
    49ec:	7702007d 	smlsdxvc	r2, sp, r0, r0
    49f0:	80150000 	andshi	r0, r5, r0
    49f4:	cb0000a7 	blgt	4c98 <__code_start__-0x3368>
    49f8:	34000006 	strcc	r0, [r0], #-6
    49fc:	16000006 	strne	r0, [r0], -r6
    4a00:	79025201 	stmdbvc	r2, {r0, r9, ip, lr}
    4a04:	51011600 	tstpl	r1, r0, lsl #12
    4a08:	16007902 	strne	r7, [r0], -r2, lsl #18
    4a0c:	03055001 	movweq	r5, #20481	; 0x5001
    4a10:	0000bf4c 	andeq	fp, r0, ip, asr #30
    4a14:	a7901f00 	ldrge	r1, [r0, r0, lsl #30]
    4a18:	06460000 	strbeq	r0, [r6], -r0
    4a1c:	01160000 	tsteq	r6, r0
    4a20:	cc910450 	cfldrsgt	mvf0, [r1], {80}	; 0x50
    4a24:	1400067e 	strne	r0, [r0], #-1662	; 0x67e
    4a28:	0000a794 	muleq	r0, r4, r7
    4a2c:	000006c4 	andeq	r0, r0, r4, asr #13
    4a30:	00a7a815 	adceq	sl, r7, r5, lsl r8
    4a34:	0006cb00 	andeq	ip, r6, r0, lsl #22
    4a38:	00067e00 	andeq	r7, r6, r0, lsl #28
    4a3c:	53011600 	movwpl	r1, #5632	; 0x1600
    4a40:	16bf0802 	ldrtne	r0, [pc], r2, lsl #16
    4a44:	03055201 	movweq	r5, #20993	; 0x5201
    4a48:	0000becc 	andeq	fp, r0, ip, asr #29
    4a4c:	05510116 	ldrbeq	r0, [r1, #-278]	; 0x116
    4a50:	00bed803 	adcseq	sp, lr, r3, lsl #16
    4a54:	50011600 	andpl	r1, r1, r0, lsl #12
    4a58:	bf7c0305 	svclt	0x007c0305
    4a5c:	14000000 	strne	r0, [r0], #-0
    4a60:	0000a7ac 	andeq	sl, r0, ip, lsr #15
    4a64:	000006e1 	andeq	r0, r0, r1, ror #13
    4a68:	7a180000 	bvc	604a70 <__bss_end__+0x5f8428>
    4a6c:	99000000 	stmdbls	r0, {}	; <UNPREDICTABLE>
    4a70:	19000006 	stmdbne	r0, {r1, r2}
    4a74:	0000006b 	andeq	r0, r0, fp, rrx
    4a78:	89060009 	stmdbhi	r6, {r0, r3}
    4a7c:	18000006 	stmdane	r0, {r1, r2}
    4a80:	0000007a 	andeq	r0, r0, sl, ror r0
    4a84:	000006ae 	andeq	r0, r0, lr, lsr #13
    4a88:	00006b19 	andeq	r6, r0, r9, lsl fp
    4a8c:	20007f00 	andcs	r7, r0, r0, lsl #30
    4a90:	00000a9a 	muleq	r0, sl, sl
    4a94:	03a11d03 			; <UNDEFINED> instruction: 0x03a11d03
    4a98:	d7200000 	strle	r0, [r0, -r0]!
    4a9c:	0300000a 	movweq	r0, #10
    4aa0:	0003b622 	andeq	fp, r3, r2, lsr #12
    4aa4:	00d52100 	sbcseq	r2, r5, r0, lsl #2
    4aa8:	1e030000 	cdpne	0, 0, cr0, cr3, cr0, {0}
    4aac:	000a6922 	andeq	r6, sl, r2, lsr #18
    4ab0:	25290300 	strcs	r0, [r9, #-768]!	; 0x300
    4ab4:	e1000000 	mrs	r0, (UNDEF: 0)
    4ab8:	1c000006 	stcne	0, cr0, [r0], {6}
    4abc:	00000081 	andeq	r0, r0, r1, lsl #1
    4ac0:	f9210023 			; <UNDEFINED> instruction: 0xf9210023
    4ac4:	03000000 	movweq	r0, #0
    4ac8:	010f0065 	tsteq	pc, r5, rrx
    4acc:	00040000 	andeq	r0, r4, r0
    4ad0:	00000e8e 	andeq	r0, r0, lr, lsl #29
    4ad4:	09960104 	ldmibeq	r6, {r2, r8}
    4ad8:	4f010000 	svcmi	0x00010000
    4adc:	f500000b 			; <UNDEFINED> instruction: 0xf500000b
    4ae0:	20000009 	andcs	r0, r0, r9
    4ae4:	2c0000a8 	stccs	0, cr0, [r0], {168}	; 0xa8
    4ae8:	c1000000 	mrsgt	r0, (UNDEF: 0)
    4aec:	0200000e 	andeq	r0, r0, #14
    4af0:	6e690504 	cdpvs	5, 6, cr0, cr9, cr4, {0}
    4af4:	04030074 	streq	r0, [r3], #-116	; 0x74
    4af8:	00003307 	andeq	r3, r0, r7, lsl #6
    4afc:	06010300 	streq	r0, [r1], -r0, lsl #6
    4b00:	000000c9 	andeq	r0, r0, r9, asr #1
    4b04:	06050203 	streq	r0, [r5], -r3, lsl #4
    4b08:	03000001 	movweq	r0, #1
    4b0c:	00050504 	andeq	r0, r5, r4, lsl #10
    4b10:	08030000 	stmdaeq	r3, {}	; <UNPREDICTABLE>
    4b14:	00000005 	andeq	r0, r0, r5
    4b18:	08010300 	stmdaeq	r1, {r8, r9}
    4b1c:	000000c7 	andeq	r0, r0, r7, asr #1
    4b20:	18070203 	stmdane	r7, {r0, r1, r9}
    4b24:	03000001 	movweq	r0, #1
    4b28:	002e0704 	eoreq	r0, lr, r4, lsl #14
    4b2c:	08030000 	stmdaeq	r3, {}	; <UNPREDICTABLE>
    4b30:	00002907 	andeq	r2, r0, r7, lsl #18
    4b34:	07040300 	streq	r0, [r4, -r0, lsl #6]
    4b38:	00000199 	muleq	r0, r9, r1
    4b3c:	d0080103 	andle	r0, r8, r3, lsl #2
    4b40:	04000000 	streq	r0, [r0], #-0
    4b44:	00007f04 	andeq	r7, r0, r4, lsl #30
    4b48:	00720500 	rsbseq	r0, r2, r0, lsl #10
    4b4c:	f9060000 			; <UNDEFINED> instruction: 0xf9060000
    4b50:	01000000 	mrseq	r0, (UNDEF: 0)
    4b54:	00a82004 	adceq	r2, r8, r4
    4b58:	00002c00 	andeq	r2, r0, r0, lsl #24
    4b5c:	d39c0100 	orrsle	r0, ip, #0, 2
    4b60:	07000000 	streq	r0, [r0, -r0]
    4b64:	0000a828 	andeq	sl, r0, r8, lsr #16
    4b68:	000000f3 	strdeq	r0, [r0], -r3
    4b6c:	00a83808 	adceq	r3, r8, r8, lsl #16
    4b70:	0000b500 	andeq	fp, r0, r0, lsl #10
    4b74:	50010900 	andpl	r0, r1, r0, lsl #18
    4b78:	bf9c0305 	svclt	0x009c0305
    4b7c:	0a000000 	beq	4b84 <__code_start__-0x347c>
    4b80:	0000a840 	andeq	sl, r0, r0, asr #16
    4b84:	000000fa 	strdeq	r0, [r0], -sl
    4b88:	000000c9 	andeq	r0, r0, r9, asr #1
    4b8c:	02500109 	subseq	r0, r0, #1073741826	; 0x40000002
    4b90:	07006408 	streq	r6, [r0, -r8, lsl #8]
    4b94:	0000a844 	andeq	sl, r0, r4, asr #16
    4b98:	0000010b 	andeq	r0, r0, fp, lsl #2
    4b9c:	00250b00 	eoreq	r0, r5, r0, lsl #22
    4ba0:	00e20000 	rsceq	r0, r2, r0
    4ba4:	790c0000 	stmdbvc	ip, {}	; <UNPREDICTABLE>
    4ba8:	00000000 	andeq	r0, r0, r0
    4bac:	000ad70d 	andeq	sp, sl, sp, lsl #14
    4bb0:	ed220200 	sfm	f0, 4, [r2, #-0]
    4bb4:	04000000 	streq	r0, [r0], #-0
    4bb8:	0000d304 	andeq	sp, r0, r4, lsl #6
    4bbc:	0b400e00 	bleq	10083c4 <__bss_end__+0xffbd7c>
    4bc0:	dc020000 	stcle	0, cr0, [r2], {-0}
    4bc4:	000b730f 	andeq	r7, fp, pc, lsl #6
    4bc8:	0b4f0200 	bleq	13c53d0 <__bss_end__+0x13b8d88>
    4bcc:	0c000001 	stceq	0, cr0, [r0], {1}
    4bd0:	0000002c 	andeq	r0, r0, ip, lsr #32
    4bd4:	0b680e00 	bleq	1a083dc <__bss_end__+0x19fbd94>
    4bd8:	62020000 	andvs	r0, r2, #0
    4bdc:	00010f00 	andeq	r0, r1, r0, lsl #30
    4be0:	58000400 	stmdapl	r0, {sl}
    4be4:	0400000f 	streq	r0, [r0], #-15
    4be8:	00099601 	andeq	r9, r9, r1, lsl #12
    4bec:	0bb50100 	bleq	fed44ff4 <__bss_end__+0xfed389ac>
    4bf0:	09f50000 	ldmibeq	r5!, {}^	; <UNPREDICTABLE>
    4bf4:	a84c0000 	stmdage	ip, {}^	; <UNPREDICTABLE>
    4bf8:	00380000 	eorseq	r0, r8, r0
    4bfc:	0f620000 	svceq	0x00620000
    4c00:	04020000 	streq	r0, [r2], #-0
    4c04:	746e6905 	strbtvc	r6, [lr], #-2309	; 0x905
    4c08:	07040300 	streq	r0, [r4, -r0, lsl #6]
    4c0c:	00000033 	andeq	r0, r0, r3, lsr r0
    4c10:	c9060103 	stmdbgt	r6, {r0, r1, r8}
    4c14:	03000000 	movweq	r0, #0
    4c18:	01060502 	tsteq	r6, r2, lsl #10
    4c1c:	04030000 	streq	r0, [r3], #-0
    4c20:	00000505 	andeq	r0, r0, r5, lsl #10
    4c24:	05080300 	streq	r0, [r8, #-768]	; 0x300
    4c28:	00000000 	andeq	r0, r0, r0
    4c2c:	c7080103 	strgt	r0, [r8, -r3, lsl #2]
    4c30:	03000000 	movweq	r0, #0
    4c34:	01180702 	tsteq	r8, r2, lsl #14
    4c38:	04030000 	streq	r0, [r3], #-0
    4c3c:	00002e07 	andeq	r2, r0, r7, lsl #28
    4c40:	07080300 	streq	r0, [r8, -r0, lsl #6]
    4c44:	00000029 	andeq	r0, r0, r9, lsr #32
    4c48:	99070403 	stmdbls	r7, {r0, r1, sl}
    4c4c:	03000001 	movweq	r0, #1
    4c50:	00d00801 	sbcseq	r0, r0, r1, lsl #16
    4c54:	ad040000 	stcge	0, cr0, [r4, #-0]
    4c58:	0100000b 	tsteq	r0, fp
    4c5c:	00a84c0d 	adceq	r4, r8, sp, lsl #24
    4c60:	00003800 	andeq	r3, r0, r0, lsl #16
    4c64:	e19c0100 	orrs	r0, ip, r0, lsl #2
    4c68:	05000000 	streq	r0, [r0, #-0]
    4c6c:	00000b7c 	andeq	r0, r0, ip, ror fp
    4c70:	00250e01 	eoreq	r0, r5, r1, lsl #28
    4c74:	8a050000 	bhi	144c7c <__bss_end__+0x138634>
    4c78:	0100000b 	tsteq	r0, fp
    4c7c:	0000250e 	andeq	r2, r0, lr, lsl #10
    4c80:	01100600 	tsteq	r0, r0, lsl #12
    4c84:	0f010000 	svceq	0x00010000
    4c88:	73736207 	cmnvc	r3, #1879048192	; 0x70000000
    4c8c:	e1110100 	tst	r1, r0, lsl #2
    4c90:	41000000 	mrsmi	r0, (UNDEF: 0)
    4c94:	0800001d 	stmdaeq	r0, {r0, r2, r3, r4}
    4c98:	00000ba5 	andeq	r0, r0, r5, lsr #23
    4c9c:	00e11201 	rsceq	r1, r1, r1, lsl #4
    4ca0:	74090000 	strvc	r0, [r9], #-0
    4ca4:	fd0000a8 	stc2	0, cr0, [r0, #-672]	; 0xfffffd60
    4ca8:	09000000 	stmdbeq	r0, {}	; <UNPREDICTABLE>
    4cac:	0000a878 	andeq	sl, r0, r8, ror r8
    4cb0:	00000104 	andeq	r0, r0, r4, lsl #2
    4cb4:	00a87c09 	adceq	r7, r8, r9, lsl #24
    4cb8:	00010b00 	andeq	r0, r1, r0, lsl #22
    4cbc:	040a0000 	streq	r0, [sl], #-0
    4cc0:	00000025 	andeq	r0, r0, r5, lsr #32
    4cc4:	000b7c05 	andeq	r7, fp, r5, lsl #24
    4cc8:	250e0100 	strcs	r0, [lr, #-256]	; 0x100
    4ccc:	05000000 	streq	r0, [r0, #-0]
    4cd0:	00000b8a 	andeq	r0, r0, sl, lsl #23
    4cd4:	00250e01 	eoreq	r0, r5, r1, lsl #28
    4cd8:	96060000 	strls	r0, [r6], -r0
    4cdc:	0200000b 	andeq	r0, r0, #11
    4ce0:	011006da 			; <UNDEFINED> instruction: 0x011006da
    4ce4:	d7020000 	strle	r0, [r2, -r0]
    4ce8:	0000f906 	andeq	pc, r0, r6, lsl #18
    4cec:	00650200 	rsbeq	r0, r5, r0, lsl #4
    4cf0:	0000013e 	andeq	r0, r0, lr, lsr r1
    4cf4:	0fec0004 	svceq	0x00ec0004
    4cf8:	01040000 	mrseq	r0, (UNDEF: 4)
    4cfc:	00000996 	muleq	r0, r6, r9
    4d00:	000bc801 	andeq	ip, fp, r1, lsl #16
    4d04:	0009f500 	andeq	pc, r9, r0, lsl #10
    4d08:	00a88400 	adceq	r8, r8, r0, lsl #8
    4d0c:	00004400 	andeq	r4, r0, r0, lsl #8
    4d10:	00100c00 	andseq	r0, r0, r0, lsl #24
    4d14:	05040200 	streq	r0, [r4, #-512]	; 0x200
    4d18:	00746e69 	rsbseq	r6, r4, r9, ror #28
    4d1c:	33070403 	movwcc	r0, #29699	; 0x7403
    4d20:	03000000 	movweq	r0, #0
    4d24:	00c90601 	sbceq	r0, r9, r1, lsl #12
    4d28:	02030000 	andeq	r0, r3, #0
    4d2c:	00010605 	andeq	r0, r1, r5, lsl #12
    4d30:	05040300 	streq	r0, [r4, #-768]	; 0x300
    4d34:	00000005 	andeq	r0, r0, r5
    4d38:	00050803 	andeq	r0, r5, r3, lsl #16
    4d3c:	03000000 	movweq	r0, #0
    4d40:	00c70801 	sbceq	r0, r7, r1, lsl #16
    4d44:	02030000 	andeq	r0, r3, #0
    4d48:	00011807 	andeq	r1, r1, r7, lsl #16
    4d4c:	07040300 	streq	r0, [r4, -r0, lsl #6]
    4d50:	0000002e 	andeq	r0, r0, lr, lsr #32
    4d54:	29070803 	stmdbcs	r7, {r0, r1, fp}
    4d58:	03000000 	movweq	r0, #0
    4d5c:	01990704 	orrseq	r0, r9, r4, lsl #14
    4d60:	01030000 	mrseq	r0, (UNDEF: 3)
    4d64:	0000d008 	andeq	sp, r0, r8
    4d68:	7f040400 	svcvc	0x00040400
    4d6c:	05000000 	streq	r0, [r0, #-0]
    4d70:	00000072 	andeq	r0, r0, r2, ror r0
    4d74:	000be906 	andeq	lr, fp, r6, lsl #18
    4d78:	84020100 	strhi	r0, [r2], #-256	; 0x100
    4d7c:	440000a8 	strmi	r0, [r0], #-168	; 0xa8
    4d80:	01000000 	mrseq	r0, (UNDEF: 0)
    4d84:	0001089c 	muleq	r1, ip, r8
    4d88:	63700700 	cmnvs	r0, #0, 14
    4d8c:	2c020100 	stfcss	f0, [r2], {-0}
    4d90:	61000000 	mrsvs	r0, (UNDEF: 0)
    4d94:	0800001d 	stmdaeq	r0, {r0, r2, r3, r4}
    4d98:	0000001c 	andeq	r0, r0, ip, lsl r0
    4d9c:	00000118 	andeq	r0, r0, r8, lsl r1
    4da0:	bfa80305 	svclt	0x00a80305
    4da4:	94090000 	strls	r0, [r9], #-0
    4da8:	1d0000a8 	stcne	0, cr0, [r0, #-672]	; 0xfffffd60
    4dac:	0a000001 	beq	4db8 <__code_start__-0x3248>
    4db0:	0000a8b4 			; <UNDEFINED> instruction: 0x0000a8b4
    4db4:	00000124 	andeq	r0, r0, r4, lsr #2
    4db8:	000000fe 	strdeq	r0, [r0], -lr
    4dbc:	0153010b 	cmpeq	r3, fp, lsl #2
    4dc0:	52010b32 	andpl	r0, r1, #51200	; 0xc800
    4dc4:	bfa80305 	svclt	0x00a80305
    4dc8:	010b0000 	mrseq	r0, (UNDEF: 11)
    4dcc:	fc030551 	stc2	5, cr0, [r3], {81}	; 0x51
    4dd0:	0b0000bf 	bleq	50d4 <__code_start__-0x2f2c>
    4dd4:	03055001 	movweq	r5, #20481	; 0x5001
    4dd8:	0000bfc0 	andeq	fp, r0, r0, asr #31
    4ddc:	047d020b 	ldrbteq	r0, [sp], #-523	; 0x20b
    4de0:	0b007402 	bleq	21df0 <__bss_end__+0x157a8>
    4de4:	05007d02 	streq	r7, [r0, #-3330]	; 0xd02
    4de8:	00c02003 	sbceq	r2, r0, r3
    4dec:	b8090000 	stmdalt	r9, {}	; <UNPREDICTABLE>
    4df0:	3a0000a8 	bcc	5098 <__code_start__-0x2f68>
    4df4:	00000001 	andeq	r0, r0, r1
    4df8:	0000720c 	andeq	r7, r0, ip, lsl #4
    4dfc:	00011800 	andeq	r1, r1, r0, lsl #16
    4e00:	006b0d00 	rsbeq	r0, fp, r0, lsl #26
    4e04:	00150000 	andseq	r0, r5, r0
    4e08:	00010805 	andeq	r0, r1, r5, lsl #16
    4e0c:	00d50e00 	sbcseq	r0, r5, r0, lsl #28
    4e10:	1e020000 	cdpne	0, 0, cr0, cr2, cr0, {0}
    4e14:	000a690f 	andeq	r6, sl, pc, lsl #18
    4e18:	25290200 	strcs	r0, [r9, #-512]!	; 0x200
    4e1c:	3a000000 	bcc	4e24 <__code_start__-0x31dc>
    4e20:	10000001 	andne	r0, r0, r1
    4e24:	00000079 	andeq	r0, r0, r9, ror r0
    4e28:	f90e0011 			; <UNDEFINED> instruction: 0xf90e0011
    4e2c:	02000000 	andeq	r0, r0, #0
    4e30:	013e0065 	teqeq	lr, r5, rrx
    4e34:	00040000 	andeq	r0, r4, r0
    4e38:	000010c4 	andeq	r1, r0, r4, asr #1
    4e3c:	09960104 	ldmibeq	r6, {r2, r8}
    4e40:	ff010000 			; <UNDEFINED> instruction: 0xff010000
    4e44:	f500000b 			; <UNDEFINED> instruction: 0xf500000b
    4e48:	c8000009 	stmdagt	r0, {r0, r3}
    4e4c:	440000a8 	strmi	r0, [r0], #-168	; 0xa8
    4e50:	b2000000 	andlt	r0, r0, #0
    4e54:	02000010 	andeq	r0, r0, #16
    4e58:	6e690504 	cdpvs	5, 6, cr0, cr9, cr4, {0}
    4e5c:	04030074 	streq	r0, [r3], #-116	; 0x74
    4e60:	00003307 	andeq	r3, r0, r7, lsl #6
    4e64:	06010300 	streq	r0, [r1], -r0, lsl #6
    4e68:	000000c9 	andeq	r0, r0, r9, asr #1
    4e6c:	06050203 	streq	r0, [r5], -r3, lsl #4
    4e70:	03000001 	movweq	r0, #1
    4e74:	00050504 	andeq	r0, r5, r4, lsl #10
    4e78:	08030000 	stmdaeq	r3, {}	; <UNPREDICTABLE>
    4e7c:	00000005 	andeq	r0, r0, r5
    4e80:	08010300 	stmdaeq	r1, {r8, r9}
    4e84:	000000c7 	andeq	r0, r0, r7, asr #1
    4e88:	18070203 	stmdane	r7, {r0, r1, r9}
    4e8c:	03000001 	movweq	r0, #1
    4e90:	002e0704 	eoreq	r0, lr, r4, lsl #14
    4e94:	08030000 	stmdaeq	r3, {}	; <UNPREDICTABLE>
    4e98:	00002907 	andeq	r2, r0, r7, lsl #18
    4e9c:	07040300 	streq	r0, [r4, -r0, lsl #6]
    4ea0:	00000199 	muleq	r0, r9, r1
    4ea4:	d0080103 	andle	r0, r8, r3, lsl #2
    4ea8:	04000000 	streq	r0, [r0], #-0
    4eac:	00007f04 	andeq	r7, r0, r4, lsl #30
    4eb0:	00720500 	rsbseq	r0, r2, r0, lsl #10
    4eb4:	24060000 	strcs	r0, [r6], #-0
    4eb8:	0100000c 	tsteq	r0, ip
    4ebc:	00a8c802 	adceq	ip, r8, r2, lsl #16
    4ec0:	00004400 	andeq	r4, r0, r0, lsl #8
    4ec4:	089c0100 	ldmeq	ip, {r8}
    4ec8:	07000001 	streq	r0, [r0, -r1]
    4ecc:	01006370 	tsteq	r0, r0, ror r3
    4ed0:	00002c02 	andeq	r2, r0, r2, lsl #24
    4ed4:	001d7f00 	andseq	r7, sp, r0, lsl #30
    4ed8:	001c0800 	andseq	r0, ip, r0, lsl #16
    4edc:	01180000 	tsteq	r8, r0
    4ee0:	03050000 	movweq	r0, #20480	; 0x5000
    4ee4:	0000c028 	andeq	ip, r0, r8, lsr #32
    4ee8:	00a8d809 	adceq	sp, r8, r9, lsl #16
    4eec:	00011d00 	andeq	r1, r1, r0, lsl #26
    4ef0:	a8f80a00 	ldmge	r8!, {r9, fp}^
    4ef4:	01240000 	teqeq	r4, r0
    4ef8:	00fe0000 	rscseq	r0, lr, r0
    4efc:	010b0000 	mrseq	r0, (UNDEF: 11)
    4f00:	0b320153 	bleq	c85454 <__bss_end__+0xc78e0c>
    4f04:	03055201 	movweq	r5, #20993	; 0x5201
    4f08:	0000c028 	andeq	ip, r0, r8, lsr #32
    4f0c:	0551010b 	ldrbeq	r0, [r1, #-267]	; 0x10b
    4f10:	00c04003 	sbceq	r4, r0, r3
    4f14:	50010b00 	andpl	r0, r1, r0, lsl #22
    4f18:	bfc00305 	svclt	0x00c00305
    4f1c:	020b0000 	andeq	r0, fp, #0
    4f20:	7402047d 	strvc	r0, [r2], #-1149	; 0x47d
    4f24:	7d020b00 	vstrvc	d0, [r2, #-0]
    4f28:	68030500 	stmdavs	r3, {r8, sl}
    4f2c:	000000c0 	andeq	r0, r0, r0, asr #1
    4f30:	00a8fc09 	adceq	pc, r8, r9, lsl #24
    4f34:	00013a00 	andeq	r3, r1, r0, lsl #20
    4f38:	720c0000 	andvc	r0, ip, #0
    4f3c:	18000000 	stmdane	r0, {}	; <UNPREDICTABLE>
    4f40:	0d000001 	stceq	0, cr0, [r0, #-4]
    4f44:	0000006b 	andeq	r0, r0, fp, rrx
    4f48:	08050015 	stmdaeq	r5, {r0, r2, r4}
    4f4c:	0e000001 	cdpeq	0, 0, cr0, cr0, cr1, {0}
    4f50:	000000d5 	ldrdeq	r0, [r0], -r5
    4f54:	690f1e02 	stmdbvs	pc, {r1, r9, sl, fp, ip}	; <UNPREDICTABLE>
    4f58:	0200000a 	andeq	r0, r0, #10
    4f5c:	00002529 	andeq	r2, r0, r9, lsr #10
    4f60:	00013a00 	andeq	r3, r1, r0, lsl #20
    4f64:	00791000 	rsbseq	r1, r9, r0
    4f68:	00110000 	andseq	r0, r1, r0
    4f6c:	0000f90e 	andeq	pc, r0, lr, lsl #18
    4f70:	00650200 	rsbeq	r0, r5, r0, lsl #4
    4f74:	0000013e 	andeq	r0, r0, lr, lsr r1
    4f78:	119c0004 	orrsne	r0, ip, r4
    4f7c:	01040000 	mrseq	r0, (UNDEF: 4)
    4f80:	00000996 	muleq	r0, r6, r9
    4f84:	000c4701 	andeq	r4, ip, r1, lsl #14
    4f88:	0009f500 	andeq	pc, r9, r0, lsl #10
    4f8c:	00a90c00 	adceq	r0, r9, r0, lsl #24
    4f90:	00004400 	andeq	r4, r0, r0, lsl #8
    4f94:	00115c00 	andseq	r5, r1, r0, lsl #24
    4f98:	05040200 	streq	r0, [r4, #-512]	; 0x200
    4f9c:	00746e69 	rsbseq	r6, r4, r9, ror #28
    4fa0:	33070403 	movwcc	r0, #29699	; 0x7403
    4fa4:	03000000 	movweq	r0, #0
    4fa8:	00c90601 	sbceq	r0, r9, r1, lsl #12
    4fac:	02030000 	andeq	r0, r3, #0
    4fb0:	00010605 	andeq	r0, r1, r5, lsl #12
    4fb4:	05040300 	streq	r0, [r4, #-768]	; 0x300
    4fb8:	00000005 	andeq	r0, r0, r5
    4fbc:	00050803 	andeq	r0, r5, r3, lsl #16
    4fc0:	03000000 	movweq	r0, #0
    4fc4:	00c70801 	sbceq	r0, r7, r1, lsl #16
    4fc8:	02030000 	andeq	r0, r3, #0
    4fcc:	00011807 	andeq	r1, r1, r7, lsl #16
    4fd0:	07040300 	streq	r0, [r4, -r0, lsl #6]
    4fd4:	0000002e 	andeq	r0, r0, lr, lsr #32
    4fd8:	29070803 	stmdbcs	r7, {r0, r1, fp}
    4fdc:	03000000 	movweq	r0, #0
    4fe0:	01990704 	orrseq	r0, r9, r4, lsl #14
    4fe4:	01030000 	mrseq	r0, (UNDEF: 3)
    4fe8:	0000d008 	andeq	sp, r0, r8
    4fec:	7f040400 	svcvc	0x00040400
    4ff0:	05000000 	streq	r0, [r0, #-0]
    4ff4:	00000072 	andeq	r0, r0, r2, ror r0
    4ff8:	000c3a06 	andeq	r3, ip, r6, lsl #20
    4ffc:	0c020100 	stfeqs	f0, [r2], {-0}
    5000:	440000a9 	strmi	r0, [r0], #-169	; 0xa9
    5004:	01000000 	mrseq	r0, (UNDEF: 0)
    5008:	0001089c 	muleq	r1, ip, r8
    500c:	63700700 	cmnvs	r0, #0, 14
    5010:	2c020100 	stfcss	f0, [r2], {-0}
    5014:	9d000000 	stcls	0, cr0, [r0, #-0]
    5018:	0800001d 	stmdaeq	r0, {r0, r2, r3, r4}
    501c:	0000001c 	andeq	r0, r0, ip, lsl r0
    5020:	00000118 	andeq	r0, r0, r8, lsl r1
    5024:	c0780305 	rsbsgt	r0, r8, r5, lsl #6
    5028:	1c090000 	stcne	0, cr0, [r9], {-0}
    502c:	1d0000a9 	stcne	0, cr0, [r0, #-676]	; 0xfffffd5c
    5030:	0a000001 	beq	503c <__code_start__-0x2fc4>
    5034:	0000a93c 	andeq	sl, r0, ip, lsr r9
    5038:	00000124 	andeq	r0, r0, r4, lsr #2
    503c:	000000fe 	strdeq	r0, [r0], -lr
    5040:	0153010b 	cmpeq	r3, fp, lsl #2
    5044:	52010b32 	andpl	r0, r1, #51200	; 0xc800
    5048:	c0780305 	rsbsgt	r0, r8, r5, lsl #6
    504c:	010b0000 	mrseq	r0, (UNDEF: 11)
    5050:	88030551 	stmdahi	r3, {r0, r4, r6, r8, sl}
    5054:	0b0000c0 	bleq	535c <__code_start__-0x2ca4>
    5058:	03055001 	movweq	r5, #20481	; 0x5001
    505c:	0000bfc0 	andeq	fp, r0, r0, asr #31
    5060:	047d020b 	ldrbteq	r0, [sp], #-523	; 0x20b
    5064:	0b007402 	bleq	22074 <__bss_end__+0x15a2c>
    5068:	05007d02 	streq	r7, [r0, #-3330]	; 0xd02
    506c:	00c0ac03 	sbceq	sl, r0, r3, lsl #24
    5070:	40090000 	andmi	r0, r9, r0
    5074:	3a0000a9 	bcc	5320 <__code_start__-0x2ce0>
    5078:	00000001 	andeq	r0, r0, r1
    507c:	0000720c 	andeq	r7, r0, ip, lsl #4
    5080:	00011800 	andeq	r1, r1, r0, lsl #16
    5084:	006b0d00 	rsbeq	r0, fp, r0, lsl #26
    5088:	000c0000 	andeq	r0, ip, r0
    508c:	00010805 	andeq	r0, r1, r5, lsl #16
    5090:	00d50e00 	sbcseq	r0, r5, r0, lsl #28
    5094:	1e020000 	cdpne	0, 0, cr0, cr2, cr0, {0}
    5098:	000a690f 	andeq	r6, sl, pc, lsl #18
    509c:	25290200 	strcs	r0, [r9, #-512]!	; 0x200
    50a0:	3a000000 	bcc	50a8 <__code_start__-0x2f58>
    50a4:	10000001 	andne	r0, r0, r1
    50a8:	00000079 	andeq	r0, r0, r9, ror r0
    50ac:	f90e0011 			; <UNDEFINED> instruction: 0xf90e0011
    50b0:	02000000 	andeq	r0, r0, #0
    50b4:	013e0065 	teqeq	lr, r5, rrx
    50b8:	00040000 	andeq	r0, r4, r0
    50bc:	00001274 	andeq	r1, r0, r4, ror r2
    50c0:	09960104 	ldmibeq	r6, {r2, r8}
    50c4:	69010000 	stmdbvs	r1, {}	; <UNPREDICTABLE>
    50c8:	f500000c 			; <UNDEFINED> instruction: 0xf500000c
    50cc:	50000009 	andpl	r0, r0, r9
    50d0:	440000a9 	strmi	r0, [r0], #-169	; 0xa9
    50d4:	03000000 	movweq	r0, #0
    50d8:	02000012 	andeq	r0, r0, #18
    50dc:	6e690504 	cdpvs	5, 6, cr0, cr9, cr4, {0}
    50e0:	04030074 	streq	r0, [r3], #-116	; 0x74
    50e4:	00003307 	andeq	r3, r0, r7, lsl #6
    50e8:	06010300 	streq	r0, [r1], -r0, lsl #6
    50ec:	000000c9 	andeq	r0, r0, r9, asr #1
    50f0:	06050203 	streq	r0, [r5], -r3, lsl #4
    50f4:	03000001 	movweq	r0, #1
    50f8:	00050504 	andeq	r0, r5, r4, lsl #10
    50fc:	08030000 	stmdaeq	r3, {}	; <UNPREDICTABLE>
    5100:	00000005 	andeq	r0, r0, r5
    5104:	08010300 	stmdaeq	r1, {r8, r9}
    5108:	000000c7 	andeq	r0, r0, r7, asr #1
    510c:	18070203 	stmdane	r7, {r0, r1, r9}
    5110:	03000001 	movweq	r0, #1
    5114:	002e0704 	eoreq	r0, lr, r4, lsl #14
    5118:	08030000 	stmdaeq	r3, {}	; <UNPREDICTABLE>
    511c:	00002907 	andeq	r2, r0, r7, lsl #18
    5120:	07040300 	streq	r0, [r4, -r0, lsl #6]
    5124:	00000199 	muleq	r0, r9, r1
    5128:	d0080103 	andle	r0, r8, r3, lsl #2
    512c:	04000000 	streq	r0, [r0], #-0
    5130:	00007f04 	andeq	r7, r0, r4, lsl #30
    5134:	00720500 	rsbseq	r0, r2, r0, lsl #10
    5138:	94060000 	strls	r0, [r6], #-0
    513c:	0100000c 	tsteq	r0, ip
    5140:	00a95002 	adceq	r5, r9, r2
    5144:	00004400 	andeq	r4, r0, r0, lsl #8
    5148:	089c0100 	ldmeq	ip, {r8}
    514c:	07000001 	streq	r0, [r0, -r1]
    5150:	01006370 	tsteq	r0, r0, ror r3
    5154:	00002c02 	andeq	r2, r0, r2, lsl #24
    5158:	001dbb00 	andseq	fp, sp, r0, lsl #22
    515c:	001c0800 	andseq	r0, ip, r0, lsl #16
    5160:	01180000 	tsteq	r8, r0
    5164:	03050000 	movweq	r0, #20480	; 0x5000
    5168:	0000c0b4 	strheq	ip, [r0], -r4
    516c:	00a96009 	adceq	r6, r9, r9
    5170:	00011d00 	andeq	r1, r1, r0, lsl #26
    5174:	a9800a00 	stmibge	r0, {r9, fp}
    5178:	01240000 	teqeq	r4, r0
    517c:	00fe0000 	rscseq	r0, lr, r0
    5180:	010b0000 	mrseq	r0, (UNDEF: 11)
    5184:	0b320153 	bleq	c856d8 <__bss_end__+0xc79090>
    5188:	03055201 	movweq	r5, #20993	; 0x5201
    518c:	0000c0b4 	strheq	ip, [r0], -r4
    5190:	0551010b 	ldrbeq	r0, [r1, #-267]	; 0x10b
    5194:	00c0d403 	sbceq	sp, r0, r3, lsl #8
    5198:	50010b00 	andpl	r0, r1, r0, lsl #22
    519c:	bfc00305 	svclt	0x00c00305
    51a0:	020b0000 	andeq	r0, fp, #0
    51a4:	7402047d 	strvc	r0, [r2], #-1149	; 0x47d
    51a8:	7d020b00 	vstrvc	d0, [r2, #-0]
    51ac:	00030500 	andeq	r0, r3, r0, lsl #10
    51b0:	000000c1 	andeq	r0, r0, r1, asr #1
    51b4:	00a98409 	adceq	r8, r9, r9, lsl #8
    51b8:	00013a00 	andeq	r3, r1, r0, lsl #20
    51bc:	720c0000 	andvc	r0, ip, #0
    51c0:	18000000 	stmdane	r0, {}	; <UNPREDICTABLE>
    51c4:	0d000001 	stceq	0, cr0, [r0, #-4]
    51c8:	0000006b 	andeq	r0, r0, fp, rrx
    51cc:	0805001c 	stmdaeq	r5, {r2, r3, r4}
    51d0:	0e000001 	cdpeq	0, 0, cr0, cr0, cr1, {0}
    51d4:	000000d5 	ldrdeq	r0, [r0], -r5
    51d8:	690f1e02 	stmdbvs	pc, {r1, r9, sl, fp, ip}	; <UNPREDICTABLE>
    51dc:	0200000a 	andeq	r0, r0, #10
    51e0:	00002529 	andeq	r2, r0, r9, lsr #10
    51e4:	00013a00 	andeq	r3, r1, r0, lsl #20
    51e8:	00791000 	rsbseq	r1, r9, r0
    51ec:	00110000 	andseq	r0, r1, r0
    51f0:	0000f90e 	andeq	pc, r0, lr, lsl #18
    51f4:	00650200 	rsbeq	r0, r5, r0, lsl #4
    51f8:	00000098 	muleq	r0, r8, r0
    51fc:	134c0004 	movtne	r0, #49156	; 0xc004
    5200:	01040000 	mrseq	r0, (UNDEF: 4)
    5204:	00000996 	muleq	r0, r6, r9
    5208:	000cb101 	andeq	fp, ip, r1, lsl #2
    520c:	0009f500 	andeq	pc, r9, r0, lsl #10
    5210:	00a99400 	adceq	r9, r9, r0, lsl #8
    5214:	00000800 	andeq	r0, r0, r0, lsl #16
    5218:	0012b300 	andseq	fp, r2, r0, lsl #6
    521c:	05040200 	streq	r0, [r4, #-512]	; 0x200
    5220:	00746e69 	rsbseq	r6, r4, r9, ror #28
    5224:	33070403 	movwcc	r0, #29699	; 0x7403
    5228:	03000000 	movweq	r0, #0
    522c:	00c90601 	sbceq	r0, r9, r1, lsl #12
    5230:	02030000 	andeq	r0, r3, #0
    5234:	00010605 	andeq	r0, r1, r5, lsl #12
    5238:	05040300 	streq	r0, [r4, #-768]	; 0x300
    523c:	00000005 	andeq	r0, r0, r5
    5240:	00050803 	andeq	r0, r5, r3, lsl #16
    5244:	03000000 	movweq	r0, #0
    5248:	00c70801 	sbceq	r0, r7, r1, lsl #16
    524c:	02030000 	andeq	r0, r3, #0
    5250:	00011807 	andeq	r1, r1, r7, lsl #16
    5254:	07040300 	streq	r0, [r4, -r0, lsl #6]
    5258:	0000002e 	andeq	r0, r0, lr, lsr #32
    525c:	29070803 	stmdbcs	r7, {r0, r1, fp}
    5260:	03000000 	movweq	r0, #0
    5264:	01990704 	orrseq	r0, r9, r4, lsl #14
    5268:	01030000 	mrseq	r0, (UNDEF: 3)
    526c:	0000d008 	andeq	sp, r0, r8
    5270:	0b960400 	bleq	fe586278 <__bss_end__+0xfe579c30>
    5274:	04010000 	streq	r0, [r1], #-0
    5278:	0000a994 	muleq	r0, r4, r9
    527c:	00000004 	andeq	r0, r0, r4
    5280:	40049c01 	andmi	r9, r4, r1, lsl #24
    5284:	0100000b 	tsteq	r0, fp
    5288:	00a99805 	adceq	r9, r9, r5, lsl #16
    528c:	00000400 	andeq	r0, r0, r0, lsl #8
    5290:	009c0100 	addseq	r0, ip, r0, lsl #2
    5294:	000001d7 	ldrdeq	r0, [r0], -r7
    5298:	138e0004 	orrne	r0, lr, #4
    529c:	01040000 	mrseq	r0, (UNDEF: 4)
    52a0:	00000996 	muleq	r0, r6, r9
    52a4:	000d6d01 	andeq	r6, sp, r1, lsl #26
    52a8:	0009f500 	andeq	pc, r9, r0, lsl #10
    52ac:	00a99c00 	adceq	r9, r9, r0, lsl #24
    52b0:	00006c00 	andeq	r6, r0, r0, lsl #24
    52b4:	0012fe00 	andseq	pc, r2, r0, lsl #28
    52b8:	05040200 	streq	r0, [r4, #-512]	; 0x200
    52bc:	00746e69 	rsbseq	r6, r4, r9, ror #28
    52c0:	33070403 	movwcc	r0, #29699	; 0x7403
    52c4:	03000000 	movweq	r0, #0
    52c8:	00c90601 	sbceq	r0, r9, r1, lsl #12
    52cc:	02030000 	andeq	r0, r3, #0
    52d0:	00010605 	andeq	r0, r1, r5, lsl #12
    52d4:	05040300 	streq	r0, [r4, #-768]	; 0x300
    52d8:	00000005 	andeq	r0, r0, r5
    52dc:	00050803 	andeq	r0, r5, r3, lsl #16
    52e0:	03000000 	movweq	r0, #0
    52e4:	00c70801 	sbceq	r0, r7, r1, lsl #16
    52e8:	02030000 	andeq	r0, r3, #0
    52ec:	00011807 	andeq	r1, r1, r7, lsl #16
    52f0:	07040300 	streq	r0, [r4, -r0, lsl #6]
    52f4:	0000002e 	andeq	r0, r0, lr, lsr #32
    52f8:	29070803 	stmdbcs	r7, {r0, r1, fp}
    52fc:	03000000 	movweq	r0, #0
    5300:	01990704 	orrseq	r0, r9, r4, lsl #14
    5304:	01030000 	mrseq	r0, (UNDEF: 3)
    5308:	0000d008 	andeq	sp, r0, r8
    530c:	02040400 	andeq	r0, r4, #0, 8
    5310:	0000f014 	andeq	pc, r0, r4, lsl r0	; <UNPREDICTABLE>
    5314:	0d860500 	cfstr32eq	mvfx0, [r6]
    5318:	e4800000 	str	r0, [r0], #0
    531c:	05028082 	streq	r8, [r2, #-130]	; 0x82
    5320:	00000d0c 	andeq	r0, r0, ip, lsl #26
    5324:	8082e480 	addhi	lr, r2, r0, lsl #9
    5328:	0db30502 	cfldr32eq	mvfx0, [r3, #8]!
    532c:	e4840000 	str	r0, [r4], #0
    5330:	05028082 	streq	r8, [r2, #-130]	; 0x82
    5334:	00000cce 	andeq	r0, r0, lr, asr #25
    5338:	8082e488 	addhi	lr, r2, r8, lsl #9
    533c:	0cef0502 	cfstr64eq	mvdx0, [pc], #8	; 534c <__code_start__-0x2cb4>
    5340:	e48c0000 	str	r0, [ip], #0
    5344:	05028082 	streq	r8, [r2, #-130]	; 0x82
    5348:	00000d30 	andeq	r0, r0, r0, lsr sp
    534c:	8082e490 	umullhi	lr, r2, r0, r4
    5350:	0d3e0502 	cfldr32eq	mvfx0, [lr, #-8]!
    5354:	e4940000 	ldr	r0, [r4], #0
    5358:	05028082 	streq	r8, [r2, #-130]	; 0x82
    535c:	00000d1e 	andeq	r0, r0, lr, lsl sp
    5360:	8082e498 	umullhi	lr, r2, r8, r4
    5364:	0d950502 	cfldr32eq	mvfx0, [r5, #8]
    5368:	e49c0000 	ldr	r0, [ip], #0
    536c:	05028082 	streq	r8, [r2, #-130]	; 0x82
    5370:	00000da4 	andeq	r0, r0, r4, lsr #27
    5374:	8082e4a0 	addhi	lr, r2, r0, lsr #9
    5378:	0cdc0502 	cfldr64eq	mvdx0, [ip], {2}
    537c:	e4a40000 	strt	r0, [r4], #0
    5380:	00028082 	andeq	r8, r2, r2, lsl #1
    5384:	00057406 	andeq	r7, r5, r6, lsl #8
    5388:	9c1b0100 	ldflss	f0, [fp], {-0}
    538c:	6c0000a9 	stcvs	0, cr0, [r0], {169}	; 0xa9
    5390:	01000000 	mrseq	r0, (UNDEF: 0)
    5394:	0001a59c 	muleq	r1, ip, r5
    5398:	0cfb0700 	ldcleq	7, cr0, [fp]
    539c:	23010000 	movwcs	r0, #4096	; 0x1000
    53a0:	0000002c 	andeq	r0, r0, ip, lsr #32
    53a4:	000d4c07 	andeq	r4, sp, r7, lsl #24
    53a8:	2c240100 	stfcss	f0, [r4], #-0
    53ac:	08000000 	stmdaeq	r0, {}	; <UNPREDICTABLE>
    53b0:	00747364 	rsbseq	r7, r4, r4, ror #6
    53b4:	01a52701 			; <UNDEFINED> instruction: 0x01a52701
    53b8:	09000000 	stmdbeq	r0, {}	; <UNPREDICTABLE>
    53bc:	00637273 	rsbeq	r7, r3, r3, ror r2
    53c0:	01a52801 			; <UNDEFINED> instruction: 0x01a52801
    53c4:	6e0a0000 	cdpvs	0, 0, cr0, cr10, cr0, {0}
    53c8:	2c290100 	stfcss	f0, [r9], #-0
    53cc:	01000000 	mrseq	r0, (UNDEF: 0)
    53d0:	a9d00b50 	ldmibge	r0, {r4, r6, r8, r9, fp}^
    53d4:	00240000 	eoreq	r0, r4, r0
    53d8:	01580000 	cmpeq	r8, r0
    53dc:	690c0000 	stmdbvs	ip, {}	; <UNPREDICTABLE>
    53e0:	252a0100 	strcs	r0, [sl, #-256]!	; 0x100
    53e4:	d9000000 	stmdble	r0, {}	; <UNPREDICTABLE>
    53e8:	0000001d 	andeq	r0, r0, sp, lsl r0
    53ec:	00a9a40d 	adceq	sl, r9, sp, lsl #8
    53f0:	0001c100 	andeq	ip, r1, r0, lsl #2
    53f4:	a9b00e00 	ldmibge	r0!, {r9, sl, fp}
    53f8:	01c80000 	biceq	r0, r8, r0
    53fc:	017e0000 	cmneq	lr, r0
    5400:	010f0000 	mrseq	r0, CPSR
    5404:	ff090251 			; <UNDEFINED> instruction: 0xff090251
    5408:	0550010f 	ldrbeq	r0, [r0, #-271]	; 0x10f
    540c:	00b21c0c 	adcseq	r1, r2, ip, lsl #24
    5410:	bc0e0020 	stclt	0, cr0, [lr], {32}
    5414:	c80000a9 	stmdagt	r0, {r0, r3, r5, r7}
    5418:	9b000001 	blls	5424 <__code_start__-0x2bdc>
    541c:	0f000001 	svceq	0x00000001
    5420:	09025101 	stmdbeq	r2, {r0, r8, ip, lr}
    5424:	50010fff 	strdpl	r0, [r1], -pc	; <UNPREDICTABLE>
    5428:	b2200c05 	eorlt	r0, r0, #1280	; 0x500
    542c:	0d002000 	stceq	0, cr2, [r0, #-0]
    5430:	0000a9c0 	andeq	sl, r0, r0, asr #19
    5434:	000001c1 	andeq	r0, r0, r1, asr #3
    5438:	2c041000 	stccs	0, cr1, [r4], {-0}
    543c:	07000000 	streq	r0, [r0, -r0]
    5440:	00000cfb 	strdeq	r0, [r0], -fp
    5444:	002c2301 	eoreq	r2, ip, r1, lsl #6
    5448:	4c070000 	stcmi	0, cr0, [r7], {-0}
    544c:	0100000d 	tsteq	r0, sp
    5450:	00002c24 	andeq	r2, r0, r4, lsr #24
    5454:	0d611100 	stfeqe	f1, [r1, #-0]
    5458:	89030000 	stmdbhi	r3, {}	; <UNPREDICTABLE>
    545c:	000d8f12 	andeq	r8, sp, r2, lsl pc
    5460:	139b0300 	orrsne	r0, fp, #0, 6
    5464:	0000002c 	andeq	r0, r0, ip, lsr #32
    5468:	00002c13 	andeq	r2, r0, r3, lsl ip
    546c:	ad000000 	stcge	0, cr0, [r0, #-0]
    5470:	04000001 	streq	r0, [r0], #-1
    5474:	00149400 	andseq	r9, r4, r0, lsl #8
    5478:	96010400 	strls	r0, [r1], -r0, lsl #8
    547c:	01000009 	tsteq	r0, r9
    5480:	00000dcf 	andeq	r0, r0, pc, asr #27
    5484:	000009f5 	strdeq	r0, [r0], -r5
    5488:	00000048 	andeq	r0, r0, r8, asr #32
    548c:	00000000 	andeq	r0, r0, r0
    5490:	000013cb 	andeq	r1, r0, fp, asr #7
    5494:	69050402 	stmdbvs	r5, {r1, sl}
    5498:	0300746e 	movweq	r7, #1134	; 0x46e
    549c:	00330704 	eorseq	r0, r3, r4, lsl #14
    54a0:	01030000 	mrseq	r0, (UNDEF: 3)
    54a4:	0000c906 	andeq	ip, r0, r6, lsl #18
    54a8:	05020300 	streq	r0, [r2, #-768]	; 0x300
    54ac:	00000106 	andeq	r0, r0, r6, lsl #2
    54b0:	05050403 	streq	r0, [r5, #-1027]	; 0x403
    54b4:	03000000 	movweq	r0, #0
    54b8:	00000508 	andeq	r0, r0, r8, lsl #10
    54bc:	01030000 	mrseq	r0, (UNDEF: 3)
    54c0:	0000c708 	andeq	ip, r0, r8, lsl #14
    54c4:	07020300 	streq	r0, [r2, -r0, lsl #6]
    54c8:	00000118 	andeq	r0, r0, r8, lsl r1
    54cc:	2e070403 	cdpcs	4, 0, cr0, cr7, cr3, {0}
    54d0:	03000000 	movweq	r0, #0
    54d4:	00290708 	eoreq	r0, r9, r8, lsl #14
    54d8:	04030000 	streq	r0, [r3], #-0
    54dc:	00019907 	andeq	r9, r1, r7, lsl #18
    54e0:	08010300 	stmdaeq	r1, {r8, r9}
    54e4:	000000d0 	ldrdeq	r0, [r0], -r0	; <UNPREDICTABLE>
    54e8:	000dc104 	andeq	ip, sp, r4, lsl #2
    54ec:	250e0100 	strcs	r0, [lr, #-256]	; 0x100
    54f0:	08000000 	stmdaeq	r0, {}	; <UNPREDICTABLE>
    54f4:	180000aa 	stmdane	r0, {r1, r3, r5, r7}
    54f8:	01000000 	mrseq	r0, (UNDEF: 0)
    54fc:	0000a29c 	muleq	r0, ip, r2
    5500:	0e260500 	cfsh64eq	mvdx0, mvdx6, #0
    5504:	0f010000 	svceq	0x00010000
    5508:	0000002c 	andeq	r0, r0, ip, lsr #32
    550c:	00001df8 	strdeq	r1, [r0], -r8
    5510:	0e030600 	cfmadd32eq	mvax0, mvfx0, mvfx3, mvfx0
    5514:	17010000 	strne	r0, [r1, -r0]
    5518:	0000aa20 	andeq	sl, r0, r0, lsr #20
    551c:	00000014 	andeq	r0, r0, r4, lsl r0
    5520:	00c79c01 	sbceq	r9, r7, r1, lsl #24
    5524:	26050000 	strcs	r0, [r5], -r0
    5528:	0100000e 	tsteq	r0, lr
    552c:	00002c18 	andeq	r2, r0, r8, lsl ip
    5530:	001e1700 	andseq	r1, lr, r0, lsl #14
    5534:	68060000 	stmdavs	r6, {}	; <UNPREDICTABLE>
    5538:	0100000b 	tsteq	r0, fp
    553c:	00aa341f 	adceq	r3, sl, pc, lsl r4
    5540:	00004800 	andeq	r4, r0, r0, lsl #16
    5544:	779c0100 	ldrvc	r0, [ip, r0, lsl #2]
    5548:	07000001 	streq	r0, [r0, -r1]
    554c:	00000e1e 	andeq	r0, r0, lr, lsl lr
    5550:	01772a01 	cmneq	r7, r1, lsl #20
    5554:	001c0000 	andseq	r0, ip, r0
    5558:	fb072010 	blx	1cd5a2 <__bss_end__+0x1c0f5a>
    555c:	0100000d 	tsteq	r0, sp
    5560:	0001772b 	andeq	r7, r1, fp, lsr #14
    5564:	10002400 	andne	r2, r0, r0, lsl #8
    5568:	0e120720 	cdpeq	7, 1, cr0, cr2, cr0, {1}
    556c:	2c010000 	stccs	0, cr0, [r1], {-0}
    5570:	00000177 	andeq	r0, r0, r7, ror r1
    5574:	5a000000 	bpl	557c <__code_start__-0x2a84>
    5578:	000de208 	andeq	lr, sp, r8, lsl #4
    557c:	772d0100 	strvc	r0, [sp, -r0, lsl #2]!
    5580:	20000001 	andcs	r0, r0, r1
    5584:	00aa3c09 	adceq	r3, sl, r9, lsl #24
    5588:	00007900 	andeq	r7, r0, r0, lsl #18
    558c:	aa480900 	bge	1207994 <__bss_end__+0x11fb34c>
    5590:	00a20000 	adceq	r0, r2, r0
    5594:	500a0000 	andpl	r0, sl, r0
    5598:	8d0000aa 	stchi	0, cr0, [r0, #-680]	; 0xfffffd58
    559c:	3a000001 	bcc	55a8 <__code_start__-0x2a58>
    55a0:	0b000001 	bleq	55ac <__code_start__-0x2a54>
    55a4:	4e015001 	cdpmi	0, 0, cr5, cr1, cr1, {0}
    55a8:	aa5c0a00 	bge	1707db0 <__bss_end__+0x16fb768>
    55ac:	019e0000 	orrseq	r0, lr, r0
    55b0:	015a0000 	cmpeq	sl, r0
    55b4:	010b0000 	mrseq	r0, (UNDEF: 11)
    55b8:	010c0551 	tsteq	ip, r1, asr r5
    55bc:	0b5a0000 	bleq	16855c4 <__bss_end__+0x1678f7c>
    55c0:	0c055001 	stceq	0, cr5, [r5], {1}
    55c4:	20100024 	andscs	r0, r0, r4, lsr #32
    55c8:	aa680c00 	bge	1a085d0 <__bss_end__+0x19fbf88>
    55cc:	019e0000 	orrseq	r0, lr, r0
    55d0:	010b0000 	mrseq	r0, (UNDEF: 11)
    55d4:	200c0551 	andcs	r0, ip, r1, asr r5
    55d8:	0b5a0000 	bleq	16855e0 <__bss_end__+0x1678f98>
    55dc:	0c055001 	stceq	0, cr5, [r5], {1}
    55e0:	2010001c 	andscs	r0, r0, ip, lsl r0
    55e4:	250d0000 	strcs	r0, [sp, #-0]
    55e8:	08000000 	stmdaeq	r0, {}	; <UNPREDICTABLE>
    55ec:	00000dc4 	andeq	r0, r0, r4, asr #27
    55f0:	01880d01 	orreq	r0, r8, r1, lsl #26
    55f4:	0d100000 	ldceq	0, cr0, [r0, #-0]
    55f8:	0000002c 	andeq	r0, r0, ip, lsr #32
    55fc:	000b730e 	andeq	r7, fp, lr, lsl #6
    5600:	9e4f0200 	cdpls	2, 4, cr0, cr15, cr0, {0}
    5604:	0f000001 	svceq	0x00000001
    5608:	0000002c 	andeq	r0, r0, ip, lsr #32
    560c:	0d8f1000 	stceq	0, cr1, [pc]	; 5614 <__code_start__-0x29ec>
    5610:	9b020000 	blls	85618 <__bss_end__+0x78fd0>
    5614:	00002c0f 	andeq	r2, r0, pc, lsl #24
    5618:	002c0f00 	eoreq	r0, ip, r0, lsl #30
    561c:	00000000 	andeq	r0, r0, r0
    5620:	000001f7 	strdeq	r0, [r0], -r7
    5624:	15820004 	strne	r0, [r2, #4]
    5628:	01040000 	mrseq	r0, (UNDEF: 4)
    562c:	00000996 	muleq	r0, r6, r9
    5630:	000e4801 	andeq	r4, lr, r1, lsl #16
    5634:	0009f500 	andeq	pc, r9, r0, lsl #10
    5638:	00aa7c00 	adceq	r7, sl, r0, lsl #24
    563c:	00009800 	andeq	r9, r0, r0, lsl #16
    5640:	00147100 	andseq	r7, r4, r0, lsl #2
    5644:	05040200 	streq	r0, [r4, #-512]	; 0x200
    5648:	00746e69 	rsbseq	r6, r4, r9, ror #28
    564c:	33070403 	movwcc	r0, #29699	; 0x7403
    5650:	03000000 	movweq	r0, #0
    5654:	00c90601 	sbceq	r0, r9, r1, lsl #12
    5658:	02030000 	andeq	r0, r3, #0
    565c:	00010605 	andeq	r0, r1, r5, lsl #12
    5660:	05040300 	streq	r0, [r4, #-768]	; 0x300
    5664:	00000005 	andeq	r0, r0, r5
    5668:	00050803 	andeq	r0, r5, r3, lsl #16
    566c:	03000000 	movweq	r0, #0
    5670:	00c70801 	sbceq	r0, r7, r1, lsl #16
    5674:	02030000 	andeq	r0, r3, #0
    5678:	00011807 	andeq	r1, r1, r7, lsl #16
    567c:	07040300 	streq	r0, [r4, -r0, lsl #6]
    5680:	0000002e 	andeq	r0, r0, lr, lsr #32
    5684:	29070803 	stmdbcs	r7, {r0, r1, fp}
    5688:	03000000 	movweq	r0, #0
    568c:	01990704 	orrseq	r0, r9, r4, lsl #14
    5690:	01030000 	mrseq	r0, (UNDEF: 3)
    5694:	0000d008 	andeq	sp, r0, r8
    5698:	0e660400 	cdpeq	4, 6, cr0, cr6, cr0, {0}
    569c:	05010000 	streq	r0, [r1, #-0]
    56a0:	0000aa7c 	andeq	sl, r0, ip, ror sl
    56a4:	0000001c 	andeq	r0, r0, ip, lsl r0
    56a8:	009e9c01 	addseq	r9, lr, r1, lsl #24
    56ac:	60050000 	andvs	r0, r5, r0
    56b0:	0100000e 	tsteq	r0, lr
    56b4:	00002c05 	andeq	r2, r0, r5, lsl #24
    56b8:	001e4100 	andseq	r4, lr, r0, lsl #2
    56bc:	2b060000 	blcs	1856c4 <__bss_end__+0x17907c>
    56c0:	0100000e 	tsteq	r0, lr
    56c4:	00002c11 	andeq	r2, r0, r1, lsl ip
    56c8:	00aa9800 	adceq	r9, sl, r0, lsl #16
    56cc:	00001400 	andeq	r1, r0, r0, lsl #8
    56d0:	cb9c0100 	blgt	fe705ad8 <__bss_end__+0xfe6f9490>
    56d4:	07000000 	streq	r0, [r0, -r0]
    56d8:	0000aaa4 	andeq	sl, r0, r4, lsr #21
    56dc:	000001de 	ldrdeq	r0, [r0], -lr
    56e0:	05500108 	ldrbeq	r0, [r0, #-264]	; 0x108
    56e4:	0030040c 	eorseq	r0, r0, ip, lsl #8
    56e8:	06000020 	streq	r0, [r0], -r0, lsr #32
    56ec:	00000e7c 	andeq	r0, r0, ip, ror lr
    56f0:	002c1601 	eoreq	r1, ip, r1, lsl #12
    56f4:	aaac0000 	bge	feb056fc <__bss_end__+0xfeaf90b4>
    56f8:	001c0000 	andseq	r0, ip, r0
    56fc:	9c010000 	stcls	0, cr0, [r1], {-0}
    5700:	0000010d 	andeq	r0, r0, sp, lsl #2
    5704:	01007509 	tsteq	r0, r9, lsl #10
    5708:	00002c1a 	andeq	r2, r0, sl, lsl ip
    570c:	001e7500 	andseq	r7, lr, r0, lsl #10
    5710:	aab40a00 	bge	fed07f18 <__bss_end__+0xfecfb8d0>
    5714:	01f30000 	mvnseq	r0, r0
    5718:	b80a0000 	stmdalt	sl, {}	; <UNPREDICTABLE>
    571c:	9e0000aa 	cdpls	0, 0, cr0, cr0, cr10, {5}
    5720:	0a000000 	beq	5728 <__code_start__-0x28d8>
    5724:	0000aac0 	andeq	sl, r0, r0, asr #21
    5728:	000001f3 	strdeq	r0, [r0], -r3
    572c:	0e730400 	cdpeq	4, 7, cr0, cr3, cr0, {0}
    5730:	1f010000 	svcne	0x00010000
    5734:	0000aac8 	andeq	sl, r0, r8, asr #21
    5738:	00000024 	andeq	r0, r0, r4, lsr #32
    573c:	016b9c01 	cmneq	fp, r1, lsl #24
    5740:	750b0000 	strvc	r0, [fp, #-0]
    5744:	1f010073 	svcne	0x00010073
    5748:	0000002c 	andeq	r0, r0, ip, lsr #32
    574c:	00001e93 	muleq	r0, r3, lr
    5750:	0062720c 	rsbeq	r7, r2, ip, lsl #4
    5754:	002c2001 	eoreq	r2, ip, r1
    5758:	54010000 	strpl	r0, [r1], #-0
    575c:	00aad80d 	adceq	sp, sl, sp, lsl #16
    5760:	00001000 	andeq	r1, r0, r0
    5764:	00016100 	andeq	r6, r1, r0, lsl #2
    5768:	61720900 	cmnvs	r2, r0, lsl #18
    576c:	2c220100 	stfcss	f0, [r2], #-0
    5770:	b1000000 	mrslt	r0, (UNDEF: 0)
    5774:	0a00001e 	beq	57f4 <__code_start__-0x280c>
    5778:	0000aadc 	ldrdeq	sl, [r0], -ip
    577c:	000000cb 	andeq	r0, r0, fp, asr #1
    5780:	aad40a00 	bge	ff507f88 <__bss_end__+0xff4fb940>
    5784:	00cb0000 	sbceq	r0, fp, r0
    5788:	04000000 	streq	r0, [r0], #-0
    578c:	00000b73 	andeq	r0, r0, r3, ror fp
    5790:	aaec2801 	bge	ffb0f79c <__bss_end__+0xffb03154>
    5794:	00140000 	andseq	r0, r4, r0
    5798:	9c010000 	stcls	0, cr0, [r1], {-0}
    579c:	000001a4 	andeq	r0, r0, r4, lsr #3
    57a0:	00736d0b 	rsbseq	r6, r3, fp, lsl #26
    57a4:	002c2801 	eoreq	r2, ip, r1, lsl #16
    57a8:	1ec40000 	cdpne	0, 12, cr0, cr4, cr0, {0}
    57ac:	fc070000 	stc2	0, cr0, [r7], {-0}
    57b0:	0d0000aa 	stceq	0, cr0, [r0, #-680]	; 0xfffffd58
    57b4:	08000001 	stmdaeq	r0, {r0}
    57b8:	f3075001 	vhadd.u8	d5, d7, d1
    57bc:	e80a5001 	stmda	sl, {r0, ip, lr}
    57c0:	00001e03 	andeq	r1, r0, r3, lsl #28
    57c4:	000e3e04 	andeq	r3, lr, r4, lsl #28
    57c8:	002b0100 	eoreq	r0, fp, r0, lsl #2
    57cc:	140000ab 	strne	r0, [r0], #-171	; 0xab
    57d0:	01000000 	mrseq	r0, (UNDEF: 0)
    57d4:	0001de9c 	muleq	r1, ip, lr
    57d8:	65730b00 	ldrbvs	r0, [r3, #-2816]!	; 0xb00
    57dc:	2b010063 	blcs	45970 <__bss_end__+0x39328>
    57e0:	0000002c 	andeq	r0, r0, ip, lsr #32
    57e4:	00001ee5 	andeq	r1, r0, r5, ror #29
    57e8:	00ab1007 	adceq	r1, fp, r7
    57ec:	00016b00 	andeq	r6, r1, r0, lsl #22
    57f0:	50010800 	andpl	r0, r1, r0, lsl #16
    57f4:	5001f307 	andpl	pc, r1, r7, lsl #6
    57f8:	1e03e80a 	cdpne	8, 0, cr14, cr3, cr10, {0}
    57fc:	5a0e0000 	bpl	385804 <__bss_end__+0x3791bc>
    5800:	0200000e 	andeq	r0, r0, #14
    5804:	00002ca7 	andeq	r2, r0, r7, lsr #25
    5808:	0001f300 	andeq	pc, r1, r0, lsl #6
    580c:	002c0f00 	eoreq	r0, ip, r0, lsl #30
    5810:	10000000 	andne	r0, r0, r0
    5814:	00000d61 	andeq	r0, r0, r1, ror #26
    5818:	c5008902 	strgt	r8, [r0, #-2306]	; 0x902
    581c:	0400000c 	streq	r0, [r0], #-12
    5820:	00167800 	andseq	r7, r6, r0, lsl #16
    5824:	13010400 	movwne	r0, #5120	; 0x1400
    5828:	0c000012 	stceq	0, cr0, [r0], {18}
    582c:	00000f8a 	andeq	r0, r0, sl, lsl #31
    5830:	00000fa5 	andeq	r0, r0, r5, lsr #31
    5834:	0000ab78 	andeq	sl, r0, r8, ror fp
    5838:	00000178 	andeq	r0, r0, r8, ror r1
    583c:	00001523 	andeq	r1, r0, r3, lsr #10
    5840:	69050402 	stmdbvs	r5, {r1, sl}
    5844:	0300746e 	movweq	r7, #1134	; 0x46e
    5848:	00330704 	eorseq	r0, r3, r4, lsl #14
    584c:	2c040000 	stccs	0, cr0, [r4], {-0}
    5850:	03000000 	movweq	r0, #0
    5854:	00c90601 	sbceq	r0, r9, r1, lsl #12
    5858:	02030000 	andeq	r0, r3, #0
    585c:	00010605 	andeq	r0, r1, r5, lsl #12
    5860:	05040300 	streq	r0, [r4, #-768]	; 0x300
    5864:	00000005 	andeq	r0, r0, r5
    5868:	00050803 	andeq	r0, r5, r3, lsl #16
    586c:	03000000 	movweq	r0, #0
    5870:	00c70801 	sbceq	r0, r7, r1, lsl #16
    5874:	02030000 	andeq	r0, r3, #0
    5878:	00011807 	andeq	r1, r1, r7, lsl #16
    587c:	07040300 	streq	r0, [r4, -r0, lsl #6]
    5880:	0000002e 	andeq	r0, r0, lr, lsr #32
    5884:	29070803 	stmdbcs	r7, {r0, r1, fp}
    5888:	05000000 	streq	r0, [r0, #-0]
    588c:	0000112e 	andeq	r1, r0, lr, lsr #2
    5890:	00250702 	eoreq	r0, r5, r2, lsl #14
    5894:	18050000 	stmdane	r5, {}	; <UNPREDICTABLE>
    5898:	03000011 	movweq	r0, #17
    589c:	0000462c 	andeq	r4, r0, ip, lsr #12
    58a0:	11f40500 	mvnsne	r0, r0, lsl #10
    58a4:	72030000 	andvc	r0, r3, #0
    58a8:	00000046 	andeq	r0, r0, r6, asr #32
    58ac:	0010ca06 	andseq	ip, r0, r6, lsl #20
    58b0:	01650400 	cmneq	r5, r0, lsl #8
    58b4:	0000002c 	andeq	r0, r0, ip, lsr #32
    58b8:	a6030407 	strge	r0, [r3], -r7, lsl #8
    58bc:	000000bc 	strheq	r0, [r0], -ip
    58c0:	0010b508 	andseq	fp, r0, r8, lsl #10
    58c4:	91a80300 			; <UNDEFINED> instruction: 0x91a80300
    58c8:	08000000 	stmdaeq	r0, {}	; <UNPREDICTABLE>
    58cc:	0000105d 	andeq	r1, r0, sp, asr r0
    58d0:	00bca903 	adcseq	sl, ip, r3, lsl #18
    58d4:	09000000 	stmdbeq	r0, {}	; <UNPREDICTABLE>
    58d8:	00000054 	andeq	r0, r0, r4, asr r0
    58dc:	000000cc 	andeq	r0, r0, ip, asr #1
    58e0:	0000cc0a 	andeq	ip, r0, sl, lsl #24
    58e4:	03000300 	movweq	r0, #768	; 0x300
    58e8:	01990704 	orrseq	r0, r9, r4, lsl #14
    58ec:	080b0000 	stmdaeq	fp, {}	; <UNPREDICTABLE>
    58f0:	00f4a303 	rscseq	sl, r4, r3, lsl #6
    58f4:	d90c0000 	stmdble	ip, {}	; <UNPREDICTABLE>
    58f8:	03000011 	movweq	r0, #17
    58fc:	000025a5 	andeq	r2, r0, r5, lsr #11
    5900:	e10c0000 	mrs	r0, (UNDEF: 12)
    5904:	03000011 	movweq	r0, #17
    5908:	00009daa 	andeq	r9, r0, sl, lsr #27
    590c:	05000400 	streq	r0, [r0, #-1024]	; 0x400
    5910:	0000116c 	andeq	r1, r0, ip, ror #2
    5914:	00d3ab03 	sbcseq	sl, r3, r3, lsl #22
    5918:	26050000 	strcs	r0, [r5], -r0
    591c:	03000010 	movweq	r0, #16
    5920:	000070af 	andeq	r7, r0, pc, lsr #1
    5924:	0e040d00 	cdpeq	13, 0, cr0, cr4, cr0, {0}
    5928:	00011204 	andeq	r1, r1, r4, lsl #4
    592c:	08010300 	stmdaeq	r1, {r8, r9}
    5930:	000000d0 	ldrdeq	r0, [r0], -r0	; <UNPREDICTABLE>
    5934:	0001120f 	andeq	r1, r1, pc, lsl #4
    5938:	12900500 	addsne	r0, r0, #0, 10
    593c:	16050000 	strne	r0, [r5], -r0
    5940:	00000062 	andeq	r0, r0, r2, rrx
    5944:	00103710 	andseq	r3, r0, r0, lsl r7
    5948:	2d051800 	stccs	8, cr1, [r5, #-0]
    594c:	0000017c 	andeq	r0, r0, ip, ror r1
    5950:	00118d0c 	andseq	r8, r1, ip, lsl #26
    5954:	7c2f0500 	cfstr32vc	mvfx0, [pc], #-0	; 595c <__code_start__-0x26a4>
    5958:	00000001 	andeq	r0, r0, r1
    595c:	006b5f11 	rsbeq	r5, fp, r1, lsl pc
    5960:	00253005 	eoreq	r3, r5, r5
    5964:	0c040000 	stceq	0, cr0, [r4], {-0}
    5968:	000011c4 	andeq	r1, r0, r4, asr #3
    596c:	00253005 	eoreq	r3, r5, r5
    5970:	0c080000 	stceq	0, cr0, [r8], {-0}
    5974:	00001012 	andeq	r1, r0, r2, lsl r0
    5978:	00253005 	eoreq	r3, r5, r5
    597c:	0c0c0000 	stceq	0, cr0, [ip], {-0}
    5980:	000012d7 	ldrdeq	r1, [r0], -r7
    5984:	00253005 	eoreq	r3, r5, r5
    5988:	11100000 	tstne	r0, r0
    598c:	0500785f 	streq	r7, [r0, #-2143]	; 0x85f
    5990:	00018231 	andeq	r8, r1, r1, lsr r2
    5994:	0e001400 	cfcpyseq	mvf1, mvf0
    5998:	00012904 	andeq	r2, r1, r4, lsl #18
    599c:	011e0900 	tsteq	lr, r0, lsl #18
    59a0:	01920000 	orrseq	r0, r2, r0
    59a4:	cc0a0000 	stcgt	0, cr0, [sl], {-0}
    59a8:	00000000 	andeq	r0, r0, r0
    59ac:	10581000 	subsne	r1, r8, r0
    59b0:	05240000 	streq	r0, [r4, #-0]!
    59b4:	00020b35 	andeq	r0, r2, r5, lsr fp
    59b8:	0f100c00 	svceq	0x00100c00
    59bc:	37050000 	strcc	r0, [r5, -r0]
    59c0:	00000025 	andeq	r0, r0, r5, lsr #32
    59c4:	11fc0c00 	mvnsne	r0, r0, lsl #24
    59c8:	38050000 	stmdacc	r5, {}	; <UNPREDICTABLE>
    59cc:	00000025 	andeq	r0, r0, r5, lsr #32
    59d0:	0f3e0c04 	svceq	0x003e0c04
    59d4:	39050000 	stmdbcc	r5, {}	; <UNPREDICTABLE>
    59d8:	00000025 	andeq	r0, r0, r5, lsr #32
    59dc:	13c70c08 	bicne	r0, r7, #8, 24	; 0x800
    59e0:	3a050000 	bcc	1459e8 <__bss_end__+0x1393a0>
    59e4:	00000025 	andeq	r0, r0, r5, lsr #32
    59e8:	10fc0c0c 	rscsne	r0, ip, ip, lsl #24
    59ec:	3b050000 	blcc	1459f4 <__bss_end__+0x1393ac>
    59f0:	00000025 	andeq	r0, r0, r5, lsr #32
    59f4:	10d90c10 	sbcsne	r0, r9, r0, lsl ip
    59f8:	3c050000 	stccc	0, cr0, [r5], {-0}
    59fc:	00000025 	andeq	r0, r0, r5, lsr #32
    5a00:	12dc0c14 	sbcsne	r0, ip, #20, 24	; 0x1400
    5a04:	3d050000 	stccc	0, cr0, [r5, #-0]
    5a08:	00000025 	andeq	r0, r0, r5, lsr #32
    5a0c:	114e0c18 	cmpne	lr, r8, lsl ip
    5a10:	3e050000 	cdpcc	0, 0, cr0, cr5, cr0, {0}
    5a14:	00000025 	andeq	r0, r0, r5, lsr #32
    5a18:	138e0c1c 	orrne	r0, lr, #28, 24	; 0x1c00
    5a1c:	3f050000 	svccc	0x00050000
    5a20:	00000025 	andeq	r0, r0, r5, lsr #32
    5a24:	4d120020 	ldcmi	0, cr0, [r2, #-128]	; 0xffffff80
    5a28:	0800000f 	stmdaeq	r0, {r0, r1, r2, r3}
    5a2c:	4b480501 	blmi	1206e38 <__bss_end__+0x11fa7f0>
    5a30:	0c000002 	stceq	0, cr0, [r0], {2}
    5a34:	00000ff9 	strdeq	r0, [r0], -r9
    5a38:	024b4905 	subeq	r4, fp, #81920	; 0x14000
    5a3c:	0c000000 	stceq	0, cr0, [r0], {-0}
    5a40:	00000e8b 	andeq	r0, r0, fp, lsl #29
    5a44:	024b4a05 	subeq	r4, fp, #20480	; 0x5000
    5a48:	13800000 	orrne	r0, r0, #0
    5a4c:	00001282 	andeq	r1, r0, r2, lsl #5
    5a50:	011e4c05 	tsteq	lr, r5, lsl #24
    5a54:	01000000 	mrseq	r0, (UNDEF: 0)
    5a58:	000f7213 	andeq	r7, pc, r3, lsl r2	; <UNPREDICTABLE>
    5a5c:	1e4f0500 	cdpne	5, 4, cr0, cr15, cr0, {0}
    5a60:	04000001 	streq	r0, [r0], #-1
    5a64:	0a090001 	beq	245a70 <__bss_end__+0x239428>
    5a68:	5b000001 	blpl	5a74 <__code_start__-0x258c>
    5a6c:	0a000002 	beq	5a7c <__code_start__-0x2584>
    5a70:	000000cc 	andeq	r0, r0, ip, asr #1
    5a74:	0512001f 	ldreq	r0, [r2, #-31]
    5a78:	90000011 	andls	r0, r0, r1, lsl r0
    5a7c:	995b0501 	ldmdbls	fp, {r0, r8, sl}^
    5a80:	0c000002 	stceq	0, cr0, [r0], {2}
    5a84:	0000118d 	andeq	r1, r0, sp, lsl #3
    5a88:	02995c05 	addseq	r5, r9, #1280	; 0x500
    5a8c:	0c000000 	stceq	0, cr0, [r0], {-0}
    5a90:	000011a5 	andeq	r1, r0, r5, lsr #3
    5a94:	00255d05 	eoreq	r5, r5, r5, lsl #26
    5a98:	0c040000 	stceq	0, cr0, [r4], {-0}
    5a9c:	0000100d 	andeq	r1, r0, sp
    5aa0:	029f5f05 	addseq	r5, pc, #5, 30
    5aa4:	0c080000 	stceq	0, cr0, [r8], {-0}
    5aa8:	00000f4d 	andeq	r0, r0, sp, asr #30
    5aac:	020b6005 	andeq	r6, fp, #5
    5ab0:	00880000 	addeq	r0, r8, r0
    5ab4:	025b040e 	subseq	r0, fp, #234881024	; 0xe000000
    5ab8:	af090000 	svcge	0x00090000
    5abc:	af000002 	svcge	0x00000002
    5ac0:	0a000002 	beq	5ad0 <__code_start__-0x2530>
    5ac4:	000000cc 	andeq	r0, r0, ip, asr #1
    5ac8:	040e001f 	streq	r0, [lr], #-31
    5acc:	000002b5 			; <UNDEFINED> instruction: 0x000002b5
    5ad0:	11581014 	cmpne	r8, r4, lsl r0
    5ad4:	05080000 	streq	r0, [r8, #-0]
    5ad8:	0002db73 	andeq	sp, r2, r3, ror fp
    5adc:	0f330c00 	svceq	0x00330c00
    5ae0:	74050000 	strvc	r0, [r5], #-0
    5ae4:	000002db 	ldrdeq	r0, [r0], -fp
    5ae8:	0e970c00 	cdpeq	12, 9, cr0, cr7, cr0, {0}
    5aec:	75050000 	strvc	r0, [r5, #-0]
    5af0:	00000025 	andeq	r0, r0, r5, lsr #32
    5af4:	040e0004 	streq	r0, [lr], #-4
    5af8:	00000054 	andeq	r0, r0, r4, asr r0
    5afc:	00117710 	andseq	r7, r1, r0, lsl r7
    5b00:	b3056800 	movwlt	r6, #22528	; 0x5800
    5b04:	0000040b 	andeq	r0, r0, fp, lsl #8
    5b08:	00705f11 	rsbseq	r5, r0, r1, lsl pc
    5b0c:	02dbb405 	sbcseq	fp, fp, #83886080	; 0x5000000
    5b10:	11000000 	mrsne	r0, (UNDEF: 0)
    5b14:	0500725f 	streq	r7, [r0, #-607]	; 0x25f
    5b18:	000025b5 			; <UNDEFINED> instruction: 0x000025b5
    5b1c:	5f110400 	svcpl	0x00110400
    5b20:	b6050077 			; <UNDEFINED> instruction: 0xb6050077
    5b24:	00000025 	andeq	r0, r0, r5, lsr #32
    5b28:	0f6b0c08 	svceq	0x006b0c08
    5b2c:	b7050000 	strlt	r0, [r5, -r0]
    5b30:	0000003f 	andeq	r0, r0, pc, lsr r0
    5b34:	107e0c0c 	rsbsne	r0, lr, ip, lsl #24
    5b38:	b8050000 	stmdalt	r5, {}	; <UNPREDICTABLE>
    5b3c:	0000003f 	andeq	r0, r0, pc, lsr r0
    5b40:	625f110e 	subsvs	r1, pc, #-2147483645	; 0x80000003
    5b44:	b9050066 	stmdblt	r5, {r1, r2, r5, r6}
    5b48:	000002b6 			; <UNDEFINED> instruction: 0x000002b6
    5b4c:	0eda0c10 	mrceq	12, 6, r0, cr10, cr0, {0}
    5b50:	ba050000 	blt	145b58 <__bss_end__+0x139510>
    5b54:	00000025 	andeq	r0, r0, r5, lsr #32
    5b58:	0f5b0c18 	svceq	0x005b0c18
    5b5c:	c1050000 	mrsgt	r0, (UNDEF: 5)
    5b60:	0000010a 	andeq	r0, r0, sl, lsl #2
    5b64:	13ee0c1c 	mvnne	r0, #28, 24	; 0x1c00
    5b68:	c3050000 	movwgt	r0, #20480	; 0x5000
    5b6c:	00000566 	andeq	r0, r0, r6, ror #10
    5b70:	14080c20 	strne	r0, [r8], #-3104	; 0xc20
    5b74:	c5050000 	strgt	r0, [r5, #-0]
    5b78:	00000590 	muleq	r0, r0, r5
    5b7c:	11e90c24 	mvnne	r0, r4, lsr #24
    5b80:	c8050000 	stmdagt	r5, {}	; <UNPREDICTABLE>
    5b84:	000005b4 			; <UNDEFINED> instruction: 0x000005b4
    5b88:	13a80c28 			; <UNDEFINED> instruction: 0x13a80c28
    5b8c:	c9050000 	stmdbgt	r5, {}	; <UNPREDICTABLE>
    5b90:	000005ce 	andeq	r0, r0, lr, asr #11
    5b94:	755f112c 	ldrbvc	r1, [pc, #-300]	; 5a70 <__code_start__-0x2590>
    5b98:	cc050062 	stcgt	0, cr0, [r5], {98}	; 0x62
    5b9c:	000002b6 			; <UNDEFINED> instruction: 0x000002b6
    5ba0:	755f1130 	ldrbvc	r1, [pc, #-304]	; 5a78 <__code_start__-0x2588>
    5ba4:	cd050070 	stcgt	0, cr0, [r5, #-448]	; 0xfffffe40
    5ba8:	000002db 	ldrdeq	r0, [r0], -fp
    5bac:	755f1138 	ldrbvc	r1, [pc, #-312]	; 5a7c <__code_start__-0x2584>
    5bb0:	ce050072 	mcrgt	0, 0, r0, cr5, cr2, {3}
    5bb4:	00000025 	andeq	r0, r0, r5, lsr #32
    5bb8:	0f1e0c3c 	svceq	0x001e0c3c
    5bbc:	d1050000 	mrsle	r0, (UNDEF: 5)
    5bc0:	000005d4 	ldrdeq	r0, [r0], -r4
    5bc4:	13530c40 	cmpne	r3, #64, 24	; 0x4000
    5bc8:	d2050000 	andle	r0, r5, #0
    5bcc:	000005e4 	andeq	r0, r0, r4, ror #11
    5bd0:	6c5f1143 	ldfvse	f1, [pc], {67}	; 0x43
    5bd4:	d5050062 	strle	r0, [r5, #-98]	; 0x62
    5bd8:	000002b6 			; <UNDEFINED> instruction: 0x000002b6
    5bdc:	0f810c44 	svceq	0x00810c44
    5be0:	d8050000 	stmdale	r5, {}	; <UNPREDICTABLE>
    5be4:	00000025 	andeq	r0, r0, r5, lsr #32
    5be8:	07110c4c 	ldreq	r0, [r1, -ip, asr #24]
    5bec:	d9050000 	stmdble	r5, {}	; <UNPREDICTABLE>
    5bf0:	0000007b 	andeq	r0, r0, fp, ror r0
    5bf4:	133e0c50 	teqne	lr, #80, 24	; 0x5000
    5bf8:	dc050000 	stcle	0, cr0, [r5], {-0}
    5bfc:	00000429 	andeq	r0, r0, r9, lsr #8
    5c00:	067a0c54 			; <UNDEFINED> instruction: 0x067a0c54
    5c04:	e0050000 	and	r0, r5, r0
    5c08:	000000ff 	strdeq	r0, [r0], -pc	; <UNPREDICTABLE>
    5c0c:	117f0c58 	cmnne	pc, r8, asr ip	; <UNPREDICTABLE>
    5c10:	e2050000 	and	r0, r5, #0
    5c14:	000000f4 	strdeq	r0, [r0], -r4
    5c18:	10d10c5c 	sbcsne	r0, r1, ip, asr ip
    5c1c:	e3050000 	movw	r0, #20480	; 0x5000
    5c20:	00000025 	andeq	r0, r0, r5, lsr #32
    5c24:	25150064 	ldrcs	r0, [r5, #-100]	; 0x64
    5c28:	29000000 	stmdbcs	r0, {}	; <UNPREDICTABLE>
    5c2c:	16000004 	strne	r0, [r0], -r4
    5c30:	00000429 	andeq	r0, r0, r9, lsr #8
    5c34:	00010a16 	andeq	r0, r1, r6, lsl sl
    5c38:	010c1600 	tsteq	ip, r0, lsl #12
    5c3c:	25160000 	ldrcs	r0, [r6, #-0]
    5c40:	00000000 	andeq	r0, r0, r0
    5c44:	0434040e 	ldrteq	r0, [r4], #-1038	; 0x40e
    5c48:	290f0000 	stmdbcs	pc, {}	; <UNPREDICTABLE>
    5c4c:	17000004 	strne	r0, [r0, -r4]
    5c50:	000011cc 	andeq	r1, r0, ip, asr #3
    5c54:	38050428 	stmdacc	r5, {r3, r5, sl}
    5c58:	00056602 	andeq	r6, r5, r2, lsl #12
    5c5c:	11471800 	cmpne	r7, r0, lsl #16
    5c60:	3a050000 	bcc	145c68 <__bss_end__+0x139620>
    5c64:	00002502 	andeq	r2, r0, r2, lsl #10
    5c68:	7a180000 	bvc	605c70 <__bss_end__+0x5f9628>
    5c6c:	0500000f 	streq	r0, [r0, #-15]
    5c70:	063b023f 			; <UNDEFINED> instruction: 0x063b023f
    5c74:	18040000 	stmdane	r4, {}	; <UNPREDICTABLE>
    5c78:	0000106e 	andeq	r1, r0, lr, rrx
    5c7c:	3b023f05 	blcc	95898 <__bss_end__+0x89250>
    5c80:	08000006 	stmdaeq	r0, {r1, r2}
    5c84:	00102f18 	andseq	r2, r0, r8, lsl pc
    5c88:	023f0500 	eorseq	r0, pc, #0, 10
    5c8c:	0000063b 	andeq	r0, r0, fp, lsr r6
    5c90:	11a0180c 	lslne	r1, ip, #16
    5c94:	41050000 	mrsmi	r0, (UNDEF: 5)
    5c98:	00002502 	andeq	r2, r0, r2, lsl #10
    5c9c:	a5181000 	ldrge	r1, [r8, #-0]
    5ca0:	0500000e 	streq	r0, [r0, #-14]
    5ca4:	081d0242 	ldmdaeq	sp, {r1, r6, r9}
    5ca8:	18140000 	ldmdane	r4, {}	; <UNPREDICTABLE>
    5cac:	000012b8 			; <UNDEFINED> instruction: 0x000012b8
    5cb0:	25024405 	strcs	r4, [r2, #-1029]	; 0x405
    5cb4:	30000000 	andcc	r0, r0, r0
    5cb8:	0011aa18 	andseq	sl, r1, r8, lsl sl
    5cbc:	02450500 	subeq	r0, r5, #0, 10
    5cc0:	0000058a 	andeq	r0, r0, sl, lsl #11
    5cc4:	110d1834 	tstne	sp, r4, lsr r8
    5cc8:	47050000 	strmi	r0, [r5, -r0]
    5ccc:	00002502 	andeq	r2, r0, r2, lsl #10
    5cd0:	ba183800 	blt	613cd8 <__bss_end__+0x607690>
    5cd4:	05000011 	streq	r0, [r0, #-17]
    5cd8:	08380249 	ldmdaeq	r8!, {r0, r3, r6, r9}
    5cdc:	183c0000 	ldmdane	ip!, {}	; <UNPREDICTABLE>
    5ce0:	000010ad 	andeq	r1, r0, sp, lsr #1
    5ce4:	7c024c05 	stcvc	12, cr4, [r2], {5}
    5ce8:	40000001 	andmi	r0, r0, r1
    5cec:	00104e18 	andseq	r4, r0, r8, lsl lr
    5cf0:	024d0500 	subeq	r0, sp, #0, 10
    5cf4:	00000025 	andeq	r0, r0, r5, lsr #32
    5cf8:	13c21844 	bicne	r1, r2, #68, 16	; 0x440000
    5cfc:	4e050000 	cdpmi	0, 0, cr0, cr5, cr0, {0}
    5d00:	00017c02 	andeq	r7, r1, r2, lsl #24
    5d04:	24184800 	ldrcs	r4, [r8], #-2048	; 0x800
    5d08:	05000011 	streq	r0, [r0, #-17]
    5d0c:	083e024f 	ldmdaeq	lr!, {r0, r1, r2, r3, r6, r9}
    5d10:	184c0000 	stmdane	ip, {}^	; <UNPREDICTABLE>
    5d14:	00001076 	andeq	r1, r0, r6, ror r0
    5d18:	25025205 	strcs	r5, [r2, #-517]	; 0x205
    5d1c:	50000000 	andpl	r0, r0, r0
    5d20:	000f9d18 	andeq	r9, pc, r8, lsl sp	; <UNPREDICTABLE>
    5d24:	02530500 	subseq	r0, r3, #0, 10
    5d28:	0000010c 	andeq	r0, r0, ip, lsl #2
    5d2c:	11401854 	cmpne	r0, r4, asr r8
    5d30:	76050000 	strvc	r0, [r5], -r0
    5d34:	0007fb02 	andeq	pc, r7, r2, lsl #22
    5d38:	05195800 	ldreq	r5, [r9, #-2048]	; 0x800
    5d3c:	05000011 	streq	r0, [r0, #-17]
    5d40:	0299027a 	addseq	r0, r9, #-1610612729	; 0xa0000007
    5d44:	01480000 	mrseq	r0, (UNDEF: 72)
    5d48:	00108b19 	andseq	r8, r0, r9, lsl fp
    5d4c:	027b0500 	rsbseq	r0, fp, #0, 10
    5d50:	0000025b 	andeq	r0, r0, fp, asr r2
    5d54:	2419014c 	ldrcs	r0, [r9], #-332	; 0x14c
    5d58:	05000013 	streq	r0, [r0, #-19]
    5d5c:	084f027f 	stmdaeq	pc, {r0, r1, r2, r3, r4, r5, r6, r9}^	; <UNPREDICTABLE>
    5d60:	02dc0000 	sbcseq	r0, ip, #0
    5d64:	000f6319 	andeq	r6, pc, r9, lsl r3	; <UNPREDICTABLE>
    5d68:	02840500 	addeq	r0, r4, #0, 10
    5d6c:	00000600 	andeq	r0, r0, r0, lsl #12
    5d70:	481902e0 	ldmdami	r9, {r5, r6, r7, r9}
    5d74:	0500000f 	streq	r0, [r0, #-15]
    5d78:	085b0285 	ldmdaeq	fp, {r0, r2, r7, r9}^
    5d7c:	02ec0000 	rsceq	r0, ip, #0
    5d80:	0b040e00 	bleq	109588 <__bss_end__+0xfcf40>
    5d84:	15000004 	strne	r0, [r0, #-4]
    5d88:	00000025 	andeq	r0, r0, r5, lsr #32
    5d8c:	0000058a 	andeq	r0, r0, sl, lsl #11
    5d90:	00042916 	andeq	r2, r4, r6, lsl r9
    5d94:	010a1600 	tsteq	sl, r0, lsl #12
    5d98:	8a160000 	bhi	585da0 <__bss_end__+0x579758>
    5d9c:	16000005 	strne	r0, [r0], -r5
    5da0:	00000025 	andeq	r0, r0, r5, lsr #32
    5da4:	19040e00 	stmdbne	r4, {r9, sl, fp}
    5da8:	0e000001 	cdpeq	0, 0, cr0, cr0, cr1, {0}
    5dac:	00056c04 	andeq	r6, r5, r4, lsl #24
    5db0:	00861500 	addeq	r1, r6, r0, lsl #10
    5db4:	05b40000 	ldreq	r0, [r4, #0]!
    5db8:	29160000 	ldmdbcs	r6, {}	; <UNPREDICTABLE>
    5dbc:	16000004 	strne	r0, [r0], -r4
    5dc0:	0000010a 	andeq	r0, r0, sl, lsl #2
    5dc4:	00008616 	andeq	r8, r0, r6, lsl r6
    5dc8:	00251600 	eoreq	r1, r5, r0, lsl #12
    5dcc:	0e000000 	cdpeq	0, 0, cr0, cr0, cr0, {0}
    5dd0:	00059604 	andeq	r9, r5, r4, lsl #12
    5dd4:	00251500 	eoreq	r1, r5, r0, lsl #10
    5dd8:	05ce0000 	strbeq	r0, [lr]
    5ddc:	29160000 	ldmdbcs	r6, {}	; <UNPREDICTABLE>
    5de0:	16000004 	strne	r0, [r0], -r4
    5de4:	0000010a 	andeq	r0, r0, sl, lsl #2
    5de8:	ba040e00 	blt	1095f0 <__bss_end__+0xfcfa8>
    5dec:	09000005 	stmdbeq	r0, {r0, r2}
    5df0:	00000054 	andeq	r0, r0, r4, asr r0
    5df4:	000005e4 	andeq	r0, r0, r4, ror #11
    5df8:	0000cc0a 	andeq	ip, r0, sl, lsl #24
    5dfc:	09000200 	stmdbeq	r0, {r9}
    5e00:	00000054 	andeq	r0, r0, r4, asr r0
    5e04:	000005f4 	strdeq	r0, [r0], -r4
    5e08:	0000cc0a 	andeq	ip, r0, sl, lsl #24
    5e0c:	06000000 	streq	r0, [r0], -r0
    5e10:	00001165 	andeq	r1, r0, r5, ror #2
    5e14:	e1011d05 	tst	r1, r5, lsl #26
    5e18:	1a000002 	bne	5e28 <__code_start__-0x21d8>
    5e1c:	000012e6 	andeq	r1, r0, r6, ror #5
    5e20:	0121050c 	teqeq	r1, ip, lsl #10
    5e24:	00000635 	andeq	r0, r0, r5, lsr r6
    5e28:	00118d18 	andseq	r8, r1, r8, lsl sp
    5e2c:	01230500 	teqeq	r3, r0, lsl #10
    5e30:	00000635 	andeq	r0, r0, r5, lsr r6
    5e34:	10841800 	addne	r1, r4, r0, lsl #16
    5e38:	24050000 	strcs	r0, [r5], #-0
    5e3c:	00002501 	andeq	r2, r0, r1, lsl #10
    5e40:	5f180400 	svcpl	0x00180400
    5e44:	05000011 	streq	r0, [r0, #-17]
    5e48:	063b0125 	ldrteq	r0, [fp], -r5, lsr #2
    5e4c:	00080000 	andeq	r0, r8, r0
    5e50:	0600040e 	streq	r0, [r0], -lr, lsl #8
    5e54:	040e0000 	streq	r0, [lr], #-0
    5e58:	000005f4 	strdeq	r0, [r0], -r4
    5e5c:	000e9d1a 	andeq	r9, lr, sl, lsl sp
    5e60:	3d050e00 	stccc	14, cr0, [r5, #-0]
    5e64:	00067601 	andeq	r7, r6, r1, lsl #12
    5e68:	11d31800 	bicsne	r1, r3, r0, lsl #16
    5e6c:	3e050000 	cdpcc	0, 0, cr0, cr5, cr0, {0}
    5e70:	00067601 	andeq	r7, r6, r1, lsl #12
    5e74:	0d180000 	ldceq	0, cr0, [r8, #-0]
    5e78:	05000012 	streq	r0, [r0, #-18]
    5e7c:	0676013f 			; <UNDEFINED> instruction: 0x0676013f
    5e80:	18060000 	stmdane	r6, {}	; <UNPREDICTABLE>
    5e84:	0000128b 	andeq	r1, r0, fp, lsl #5
    5e88:	5b014005 	blpl	55ea4 <__bss_end__+0x4985c>
    5e8c:	0c000000 	stceq	0, cr0, [r0], {-0}
    5e90:	005b0900 	subseq	r0, fp, r0, lsl #18
    5e94:	06860000 	streq	r0, [r6], r0
    5e98:	cc0a0000 	stcgt	0, cr0, [sl], {-0}
    5e9c:	02000000 	andeq	r0, r0, #0
    5ea0:	05d01b00 	ldrbeq	r1, [r0, #2816]	; 0xb00
    5ea4:	07870257 			; <UNDEFINED> instruction: 0x07870257
    5ea8:	ca180000 	bgt	605eb0 <__bss_end__+0x5f9868>
    5eac:	05000012 	streq	r0, [r0, #-18]
    5eb0:	002c0259 	eoreq	r0, ip, r9, asr r2
    5eb4:	18000000 	stmdane	r0, {}	; <UNPREDICTABLE>
    5eb8:	00001275 	andeq	r1, r0, r5, ror r2
    5ebc:	0c025a05 	stceq	10, cr5, [r2], {5}
    5ec0:	04000001 	streq	r0, [r0], #-1
    5ec4:	0010a018 	andseq	sl, r0, r8, lsl r0
    5ec8:	025b0500 	subseq	r0, fp, #0, 10
    5ecc:	00000787 	andeq	r0, r0, r7, lsl #15
    5ed0:	13991808 	orrsne	r1, r9, #8, 16	; 0x80000
    5ed4:	5c050000 	stcpl	0, cr0, [r5], {-0}
    5ed8:	00019202 	andeq	r9, r1, r2, lsl #4
    5edc:	3f182400 	svccc	0x00182400
    5ee0:	05000010 	streq	r0, [r0, #-16]
    5ee4:	0025025d 	eoreq	r0, r5, sp, asr r2
    5ee8:	18480000 	stmdane	r8, {}^	; <UNPREDICTABLE>
    5eec:	00001188 	andeq	r1, r0, r8, lsl #3
    5ef0:	69025e05 	stmdbvs	r2, {r0, r2, r9, sl, fp, ip, lr}
    5ef4:	50000000 	andpl	r0, r0, r0
    5ef8:	0013af18 	andseq	sl, r3, r8, lsl pc
    5efc:	025f0500 	subseq	r0, pc, #0, 10
    5f00:	00000641 	andeq	r0, r0, r1, asr #12
    5f04:	11931858 	orrsne	r1, r3, r8, asr r8
    5f08:	60050000 	andvs	r0, r5, r0
    5f0c:	0000f402 	andeq	pc, r0, r2, lsl #8
    5f10:	b4186800 	ldrlt	r6, [r8], #-2048	; 0x800
    5f14:	05000013 	streq	r0, [r0, #-19]
    5f18:	00f40261 	rscseq	r0, r4, r1, ror #4
    5f1c:	18700000 	ldmdane	r0!, {}^	; <UNPREDICTABLE>
    5f20:	00000f02 	andeq	r0, r0, r2, lsl #30
    5f24:	f4026205 	vst1.8	{d6-d9}, [r2], r5
    5f28:	78000000 	stmdavc	r0, {}	; <UNPREDICTABLE>
    5f2c:	00130618 	andseq	r0, r3, r8, lsl r6
    5f30:	02630500 	rsbeq	r0, r3, #0, 10
    5f34:	00000797 	muleq	r0, r7, r7
    5f38:	10941880 	addsne	r1, r4, r0, lsl #17
    5f3c:	64050000 	strvs	r0, [r5], #-0
    5f40:	0007a702 	andeq	sl, r7, r2, lsl #14
    5f44:	98188800 	ldmdals	r8, {fp, pc}
    5f48:	05000012 	streq	r0, [r0, #-18]
    5f4c:	00250265 	eoreq	r0, r5, r5, ror #4
    5f50:	18a00000 	stmiane	r0!, {}	; <UNPREDICTABLE>
    5f54:	00000feb 	andeq	r0, r0, fp, ror #31
    5f58:	f4026605 	vst1.8	{d6-d8}, [r2], r5
    5f5c:	a4000000 	strge	r0, [r0], #-0
    5f60:	000ef318 	andeq	pc, lr, r8, lsl r3	; <UNPREDICTABLE>
    5f64:	02670500 	rsbeq	r0, r7, #0, 10
    5f68:	000000f4 	strdeq	r0, [r0], -r4
    5f6c:	0fda18ac 	svceq	0x00da18ac
    5f70:	68050000 	stmdavs	r5, {}	; <UNPREDICTABLE>
    5f74:	0000f402 	andeq	pc, r0, r2, lsl #8
    5f78:	ba18b400 	blt	632f80 <__bss_end__+0x626938>
    5f7c:	0500000e 	streq	r0, [r0, #-14]
    5f80:	00f40269 	rscseq	r0, r4, r9, ror #4
    5f84:	18bc0000 	ldmne	ip!, {}	; <UNPREDICTABLE>
    5f88:	00000ec9 	andeq	r0, r0, r9, asr #29
    5f8c:	f4026a05 	vst1.8	{d6-d7}, [r2], r5
    5f90:	c4000000 	strgt	r0, [r0], #-0
    5f94:	00114518 	andseq	r4, r1, r8, lsl r5
    5f98:	026b0500 	rsbeq	r0, fp, #0, 10
    5f9c:	00000025 	andeq	r0, r0, r5, lsr #32
    5fa0:	120900cc 	andne	r0, r9, #204	; 0xcc
    5fa4:	97000001 	strls	r0, [r0, -r1]
    5fa8:	0a000007 	beq	5fcc <__code_start__-0x2034>
    5fac:	000000cc 	andeq	r0, r0, ip, asr #1
    5fb0:	12090019 	andne	r0, r9, #25
    5fb4:	a7000001 	strge	r0, [r0, -r1]
    5fb8:	0a000007 	beq	5fdc <__code_start__-0x2024>
    5fbc:	000000cc 	andeq	r0, r0, ip, asr #1
    5fc0:	12090007 	andne	r0, r9, #7
    5fc4:	b7000001 	strlt	r0, [r0, -r1]
    5fc8:	0a000007 	beq	5fec <__code_start__-0x2014>
    5fcc:	000000cc 	andeq	r0, r0, ip, asr #1
    5fd0:	f01b0017 			; <UNDEFINED> instruction: 0xf01b0017
    5fd4:	db027005 	blle	a1ff0 <__bss_end__+0x959a8>
    5fd8:	18000007 	stmdane	r0, {r0, r1, r2}
    5fdc:	000010f5 	strdeq	r1, [r0], -r5
    5fe0:	db027305 	blle	a2bfc <__bss_end__+0x965b4>
    5fe4:	00000007 	andeq	r0, r0, r7
    5fe8:	0012fd18 	andseq	pc, r2, r8, lsl sp	; <UNPREDICTABLE>
    5fec:	02740500 	rsbseq	r0, r4, #0, 10
    5ff0:	000007eb 	andeq	r0, r0, fp, ror #15
    5ff4:	db090078 	blle	2461dc <__bss_end__+0x239b94>
    5ff8:	eb000002 	bl	6008 <__code_start__-0x1ff8>
    5ffc:	0a000007 	beq	6020 <__code_start__-0x1fe0>
    6000:	000000cc 	andeq	r0, r0, ip, asr #1
    6004:	2c09001d 	stccs	0, cr0, [r9], {29}
    6008:	fb000000 	blx	6012 <__code_start__-0x1fee>
    600c:	0a000007 	beq	6030 <__code_start__-0x1fd0>
    6010:	000000cc 	andeq	r0, r0, ip, asr #1
    6014:	f01c001d 			; <UNDEFINED> instruction: 0xf01c001d
    6018:	1d025505 	cfstr32ne	mvfx5, [r2, #-20]	; 0xffffffec
    601c:	1d000008 	stcne	0, cr0, [r0, #-32]	; 0xffffffe0
    6020:	000011cc 	andeq	r1, r0, ip, asr #3
    6024:	86026c05 	strhi	r6, [r2], -r5, lsl #24
    6028:	1d000006 	stcne	0, cr0, [r0, #-24]	; 0xffffffe8
    602c:	00001359 	andeq	r1, r0, r9, asr r3
    6030:	b7027505 	strlt	r7, [r2, -r5, lsl #10]
    6034:	00000007 	andeq	r0, r0, r7
    6038:	00011209 	andeq	r1, r1, r9, lsl #4
    603c:	00082d00 	andeq	r2, r8, r0, lsl #26
    6040:	00cc0a00 	sbceq	r0, ip, r0, lsl #20
    6044:	00180000 	andseq	r0, r8, r0
    6048:	0008381e 	andeq	r3, r8, lr, lsl r8
    604c:	04291600 	strteq	r1, [r9], #-1536	; 0x600
    6050:	0e000000 	cdpeq	0, 0, cr0, cr0, cr0, {0}
    6054:	00082d04 	andeq	r2, r8, r4, lsl #26
    6058:	7c040e00 	stcvc	14, cr0, [r4], {-0}
    605c:	1e000001 	cdpne	0, 0, cr0, cr0, cr1, {0}
    6060:	0000084f 	andeq	r0, r0, pc, asr #16
    6064:	00002516 	andeq	r2, r0, r6, lsl r5
    6068:	040e0000 	streq	r0, [lr], #-0
    606c:	00000855 	andeq	r0, r0, r5, asr r8
    6070:	0844040e 	stmdaeq	r4, {r1, r2, r3, sl}^
    6074:	f4090000 	vst4.8	{d0-d3}, [r9], r0
    6078:	6b000005 	blvs	6094 <__code_start__-0x1f6c>
    607c:	0a000008 	beq	60a4 <__code_start__-0x1f5c>
    6080:	000000cc 	andeq	r0, r0, ip, asr #1
    6084:	ac1f0002 	ldcge	0, cr0, [pc], {2}
    6088:	05000012 	streq	r0, [r0, #-18]
    608c:	042902fd 	strteq	r0, [r9], #-765	; 0x2fd
    6090:	a51f0000 	ldrge	r0, [pc, #-0]	; 6098 <__code_start__-0x1f68>
    6094:	05000012 	streq	r0, [r0, #-18]
    6098:	042f02fe 	strteq	r0, [pc], #-766	; 60a0 <__code_start__-0x1f60>
    609c:	25150000 	ldrcs	r0, [r5, #-0]
    60a0:	92000000 	andls	r0, r0, #0
    60a4:	16000008 	strne	r0, [r0], -r8
    60a8:	00000025 	andeq	r0, r0, r5, lsr #32
    60ac:	0a9a2000 	beq	fe68e0b4 <__bss_end__+0xfe681a6c>
    60b0:	1d060000 	stcne	0, cr0, [r6, #-0]
    60b4:	0000089d 	muleq	r0, sp, r8
    60b8:	0883040e 	stmeq	r3, {r1, r2, r3, sl}
    60bc:	25150000 	ldrcs	r0, [r5, #-0]
    60c0:	b2000000 	andlt	r0, r0, #0
    60c4:	16000008 	strne	r0, [r0], -r8
    60c8:	0000058a 	andeq	r0, r0, sl, lsl #11
    60cc:	0ad72000 	beq	ff5ce0d4 <__bss_end__+0xff5c1a8c>
    60d0:	22060000 	andcs	r0, r6, #0
    60d4:	000008bd 			; <UNDEFINED> instruction: 0x000008bd
    60d8:	08a3040e 	stmiaeq	r3!, {r1, r2, r3, sl}
    60dc:	01210000 	teqeq	r1, r0
    60e0:	00000054 	andeq	r0, r0, r4, asr r0
    60e4:	09000c08 	stmdbeq	r0, {r3, sl, fp}
    60e8:	e3220000 	teq	r2, #0
    60ec:	0000000e 	andeq	r0, r0, lr
    60f0:	0012ec22 	andseq	lr, r2, r2, lsr #24
    60f4:	44220100 	strtmi	r0, [r2], #-256	; 0x100
    60f8:	04000013 	streq	r0, [r0], #-19
    60fc:	000f2422 	andeq	r2, pc, r2, lsr #8
    6100:	bb220500 	bllt	887508 <__bss_end__+0x87aec0>
    6104:	06000010 			; <UNDEFINED> instruction: 0x06000010
    6108:	00136122 	andseq	r6, r3, r2, lsr #2
    610c:	70220700 	eorvc	r0, r2, r0, lsl #14
    6110:	03000013 	movweq	r0, #19
    6114:	00137f22 	andseq	r7, r3, r2, lsr #30
    6118:	10000200 	andne	r0, r0, r0, lsl #4
    611c:	00000f91 	muleq	r0, r1, pc	; <UNPREDICTABLE>
    6120:	9006072c 	andls	r0, r6, ip, lsr #14
    6124:	11000009 	tstne	r0, r9
    6128:	07006f69 	streq	r6, [r0, -r9, ror #30]
    612c:	00003309 	andeq	r3, r0, r9, lsl #6
    6130:	69110000 	ldmdbvs	r1, {}	; <UNPREDICTABLE>
    6134:	07007265 	streq	r7, [r0, -r5, ror #4]
    6138:	0000330a 	andeq	r3, r0, sl, lsl #6
    613c:	69110400 	ldmdbvs	r1, {sl}
    6140:	07007269 	streq	r7, [r0, -r9, ror #4]
    6144:	00003311 	andeq	r3, r0, r1, lsl r3
    6148:	6c110800 	ldcvs	8, cr0, [r1], {-0}
    614c:	07007263 	streq	r7, [r0, -r3, ror #4]
    6150:	00003313 	andeq	r3, r0, r3, lsl r3
    6154:	6d110c00 	ldcvs	12, cr0, [r1, #-0]
    6158:	07007263 	streq	r7, [r0, -r3, ror #4]
    615c:	00003314 	andeq	r3, r0, r4, lsl r3
    6160:	6c111000 	ldcvs	0, cr1, [r1], {-0}
    6164:	07007273 	smlsdxeq	r0, r3, r2, r7
    6168:	00003315 	andeq	r3, r0, r5, lsl r3
    616c:	6d111400 	cfldrsvs	mvf1, [r1, #-0]
    6170:	07007273 	smlsdxeq	r0, r3, r2, r7
    6174:	00003316 	andeq	r3, r0, r6, lsl r3
    6178:	050c1800 	streq	r1, [ip, #-2048]	; 0x800
    617c:	07000012 	smladeq	r0, r2, r0, r0
    6180:	00003317 	andeq	r3, r0, r7, lsl r3
    6184:	390c1c00 	stmdbcc	ip, {sl, fp, ip}
    6188:	0700000f 	streq	r0, [r0, -pc]
    618c:	0000331b 	andeq	r3, r0, fp, lsl r3
    6190:	190c2000 	stmdbne	ip, {sp}
    6194:	0700000f 	streq	r0, [r0, -pc]
    6198:	0000331d 	andeq	r3, r0, sp, lsl r3
    619c:	ef0c2400 	svc	0x000c2400
    61a0:	07000011 	smladeq	r0, r1, r0, r0
    61a4:	0000331e 	andeq	r3, r0, lr, lsl r3
    61a8:	23002800 	movwcs	r2, #2048	; 0x800
    61ac:	00001001 	andeq	r1, r0, r1
    61b0:	09a50701 	stmibeq	r5!, {r0, r8, r9, sl}
    61b4:	50040000 	andpl	r0, r4, r0
    61b8:	040e2021 	streq	r2, [lr], #-33	; 0x21
    61bc:	00000033 	andeq	r0, r0, r3, lsr r0
    61c0:	00099f0f 	andeq	r9, r9, pc, lsl #30
    61c4:	111f2300 	tstne	pc, r0, lsl #6
    61c8:	28010000 	stmdacs	r1, {}	; <UNPREDICTABLE>
    61cc:	000009bf 			; <UNDEFINED> instruction: 0x000009bf
    61d0:	20215040 	eorcs	r5, r1, r0, asr #32
    61d4:	0900040e 	stmdbeq	r0, {r1, r2, r3, sl}
    61d8:	b90f0000 	stmdblt	pc, {}	; <UNPREDICTABLE>
    61dc:	24000009 	strcs	r0, [r0], #-9
    61e0:	00001336 	andeq	r1, r0, r6, lsr r3
    61e4:	0025a701 	eoreq	sl, r5, r1, lsl #14
    61e8:	ace00000 	stclge	0, cr0, [r0]
    61ec:	00100000 	andseq	r0, r0, r0
    61f0:	9c010000 	stcls	0, cr0, [r1], {-0}
    61f4:	000009f0 	strdeq	r0, [r0], -r0	; <UNPREDICTABLE>
    61f8:	00ace825 	adceq	lr, ip, r5, lsr #16
    61fc:	000c9c00 	andeq	r9, ip, r0, lsl #24
    6200:	acec2500 	cfstr64ge	mvdx2, [ip]
    6204:	0ad20000 	beq	ff48620c <__bss_end__+0xff479bc4>
    6208:	26000000 	strcs	r0, [r0], -r0
    620c:	00000a7f 	andeq	r0, r0, pc, ror sl
    6210:	acb09f01 	ldcge	15, cr9, [r0], #4
    6214:	00300000 	eorseq	r0, r0, r0
    6218:	9c010000 	stcls	0, cr0, [r1], {-0}
    621c:	00000a4e 	andeq	r0, r0, lr, asr #20
    6220:	01006327 	tsteq	r0, r7, lsr #6
    6224:	00002c9f 	muleq	r0, pc, ip	; <UNPREDICTABLE>
    6228:	001f0600 	andseq	r0, pc, r0, lsl #12
    622c:	acbc2500 	cfldr32ge	mvfx2, [ip]
    6230:	0c9c0000 	ldceq	0, cr0, [ip], {0}
    6234:	c0250000 	eorgt	r0, r5, r0
    6238:	a50000ac 	strge	r0, [r0, #-172]	; 0xac
    623c:	2800000a 	stmdacs	r0, {r1, r3}
    6240:	0000acd4 	ldrdeq	sl, [r0], -r4
    6244:	00000ca7 	andeq	r0, r0, r7, lsr #25
    6248:	00000a44 	andeq	r0, r0, r4, asr #20
    624c:	05500129 	ldrbeq	r0, [r0, #-297]	; 0x129
    6250:	2150400c 	cmpcs	r0, ip
    6254:	51012920 	tstpl	r1, r0, lsr #18
    6258:	08007405 	stmdaeq	r0, {r0, r2, sl, ip, sp, lr}
    625c:	25001aff 	strcs	r1, [r0, #-2815]	; 0xaff
    6260:	0000acd8 	ldrdeq	sl, [r0], -r8
    6264:	00000c9c 	muleq	r0, ip, ip
    6268:	10642400 	rsbne	r2, r4, r0, lsl #8
    626c:	97010000 	strls	r0, [r1, -r0]
    6270:	00000025 	andeq	r0, r0, r5, lsr #32
    6274:	0000ac80 	andeq	sl, r0, r0, lsl #25
    6278:	00000030 	andeq	r0, r0, r0, lsr r0
    627c:	0aa59c01 	beq	fe96d288 <__bss_end__+0xfe960c40>
    6280:	632a0000 	teqvs	sl, #0
    6284:	259b0100 	ldrcs	r0, [fp, #256]	; 0x100
    6288:	01000000 	mrseq	r0, (UNDEF: 0)
    628c:	ac882554 	cfstr32ge	mvfx2, [r8], {84}	; 0x54
    6290:	0c9c0000 	ldceq	0, cr0, [ip], {0}
    6294:	8c250000 	stchi	0, cr0, [r5], #-0
    6298:	d20000ac 	andle	r0, r0, #172	; 0xac
    629c:	2800000a 	stmdacs	r0, {r1, r3}
    62a0:	0000ac9c 	muleq	r0, ip, ip
    62a4:	00000cb2 			; <UNDEFINED> instruction: 0x00000cb2
    62a8:	00000a9b 	muleq	r0, fp, sl
    62ac:	05500129 	ldrbeq	r0, [r0, #-297]	; 0x129
    62b0:	2150400c 	cmpcs	r0, ip
    62b4:	a4250020 	strtge	r0, [r5], #-32
    62b8:	9c0000ac 	stcls	0, cr0, [r0], {172}	; 0xac
    62bc:	0000000c 	andeq	r0, r0, ip
    62c0:	00101824 	andseq	r1, r0, r4, lsr #16
    62c4:	25880100 	strcs	r0, [r8, #256]	; 0x100
    62c8:	60000000 	andvs	r0, r0, r0
    62cc:	200000ac 	andcs	r0, r0, ip, lsr #1
    62d0:	01000000 	mrseq	r0, (UNDEF: 0)
    62d4:	000ad29c 	muleq	sl, ip, r2
    62d8:	ac6c2b00 	stclge	11, cr2, [ip], #-0
    62dc:	0cb20000 	ldceq	0, cr0, [r2]
    62e0:	01290000 	teqeq	r9, r0
    62e4:	640c0550 	strvs	r0, [ip], #-1360	; 0x550
    62e8:	00202150 	eoreq	r2, r0, r0, asr r1
    62ec:	13162400 	tstne	r6, #0, 8
    62f0:	7f010000 	svcvc	0x00010000
    62f4:	00000025 	andeq	r0, r0, r5, lsr #32
    62f8:	0000ac48 	andeq	sl, r0, r8, asr #24
    62fc:	00000018 	andeq	r0, r0, r8, lsl r0
    6300:	0aff9c01 	beq	fffed30c <__bss_end__+0xfffe0cc4>
    6304:	542b0000 	strtpl	r0, [fp], #-0
    6308:	b20000ac 	andlt	r0, r0, #172	; 0xac
    630c:	2900000c 	stmdbcs	r0, {r2, r3}
    6310:	0c055001 	stceq	0, cr5, [r5], {1}
    6314:	20215064 	eorcs	r5, r1, r4, rrx
    6318:	b0260000 	eorlt	r0, r6, r0
    631c:	0100000e 	tsteq	r0, lr
    6320:	00ab983a 	adceq	r9, fp, sl, lsr r8
    6324:	0000b000 	andeq	fp, r0, r0
    6328:	3d9c0100 	ldfccs	f0, [ip]
    632c:	2800000c 	stmdacs	r0, {r2, r3}
    6330:	0000aba8 	andeq	sl, r0, r8, lsr #23
    6334:	00000cbd 			; <UNDEFINED> instruction: 0x00000cbd
    6338:	00000b2c 	andeq	r0, r0, ip, lsr #22
    633c:	01500129 	cmpeq	r0, r9, lsr #2
    6340:	5101293e 	tstpl	r1, lr, lsr r9
    6344:	28003201 	stmdacs	r0, {r0, r9, ip, sp}
    6348:	0000abb4 			; <UNDEFINED> instruction: 0x0000abb4
    634c:	00000cbd 			; <UNDEFINED> instruction: 0x00000cbd
    6350:	00000b44 	andeq	r0, r0, r4, asr #22
    6354:	01500129 	cmpeq	r0, r9, lsr #2
    6358:	5101293f 	tstpl	r1, pc, lsr r9
    635c:	25003201 	strcs	r3, [r0, #-513]	; 0x201
    6360:	0000abb8 			; <UNDEFINED> instruction: 0x0000abb8
    6364:	00000c9c 	muleq	r0, ip, ip
    6368:	00abc428 	adceq	ip, fp, r8, lsr #8
    636c:	000c3d00 	andeq	r3, ip, r0, lsl #26
    6370:	000b6900 	andeq	r6, fp, r0, lsl #18
    6374:	50012900 	andpl	r2, r1, r0, lsl #18
    6378:	50040c05 	andpl	r0, r4, r5, lsl #24
    637c:	01292021 	teqeq	r9, r1, lsr #32
    6380:	00310151 	eorseq	r0, r1, r1, asr r1
    6384:	00abc825 	adceq	ip, fp, r5, lsr #16
    6388:	000c9c00 	andeq	r9, ip, r0, lsl #24
    638c:	abd82800 	blge	ff610394 <__bss_end__+0xff603d4c>
    6390:	0ca70000 	stceq	0, cr0, [r7]
    6394:	0b8b0000 	bleq	fe2c639c <__bss_end__+0xfe2b9d54>
    6398:	01290000 	teqeq	r9, r0
    639c:	00740250 	rsbseq	r0, r4, r0, asr r2
    63a0:	01510129 	cmpeq	r1, r9, lsr #2
    63a4:	e4280030 	strt	r0, [r8], #-48	; 0x30
    63a8:	a70000ab 	strge	r0, [r0, -fp, lsr #1]
    63ac:	a700000c 	strge	r0, [r0, -ip]
    63b0:	2900000b 	stmdbcs	r0, {r0, r1, r3}
    63b4:	0c055001 	stceq	0, cr5, [r5], {1}
    63b8:	20215044 	eorcs	r5, r1, r4, asr #32
    63bc:	01510129 	cmpeq	r1, r9, lsr #2
    63c0:	f0280030 			; <UNDEFINED> instruction: 0xf0280030
    63c4:	a70000ab 	strge	r0, [r0, -fp, lsr #1]
    63c8:	c300000c 	movwgt	r0, #12
    63cc:	2900000b 	stmdbcs	r0, {r0, r1, r3}
    63d0:	0c055001 	stceq	0, cr5, [r5], {1}
    63d4:	2021504c 	eorcs	r5, r1, ip, asr #32
    63d8:	01510129 	cmpeq	r1, r9, lsr #2
    63dc:	fc280033 	stc2	0, cr0, [r8], #-204	; 0xffffff34
    63e0:	a70000ab 	strge	r0, [r0, -fp, lsr #1]
    63e4:	df00000c 	svcle	0x0000000c
    63e8:	2900000b 	stmdbcs	r0, {r0, r1, r3}
    63ec:	0c055001 	stceq	0, cr5, [r5], {1}
    63f0:	20215050 	eorcs	r5, r1, r0, asr r0
    63f4:	01510129 	cmpeq	r1, r9, lsr #2
    63f8:	08280030 	stmdaeq	r8!, {r4, r5}
    63fc:	a70000ac 	strge	r0, [r0, -ip, lsr #1]
    6400:	fc00000c 	stc2	0, cr0, [r0], {12}
    6404:	2900000b 	stmdbcs	r0, {r0, r1, r3}
    6408:	0c055001 	stceq	0, cr5, [r5], {1}
    640c:	20215048 	eorcs	r5, r1, r8, asr #32
    6410:	02510129 	subseq	r0, r1, #1073741834	; 0x4000000a
    6414:	2800c708 	stmdacs	r0, {r3, r8, r9, sl, lr, pc}
    6418:	0000ac14 	andeq	sl, r0, r4, lsl ip
    641c:	00000ca7 	andeq	r0, r0, r7, lsr #25
    6420:	00000c1a 	andeq	r0, r0, sl, lsl ip
    6424:	05500129 	ldrbeq	r0, [r0, #-297]	; 0x129
    6428:	2150680c 	cmpcs	r0, ip, lsl #16
    642c:	51012920 	tstpl	r1, r0, lsr #18
    6430:	010e0a03 	tsteq	lr, r3, lsl #20
    6434:	ac202800 	stcge	8, cr2, [r0], #-0
    6438:	0ca70000 	stceq	0, cr0, [r7]
    643c:	0c330000 	ldceq	0, cr0, [r3], #-0
    6440:	01290000 	teqeq	r9, r0
    6444:	00740250 	rsbseq	r0, r4, r0, asr r2
    6448:	01510129 	cmpeq	r1, r9, lsr #2
    644c:	24250033 	strtcs	r0, [r5], #-51	; 0x33
    6450:	9c0000ac 	stcls	0, cr0, [r0], {172}	; 0xac
    6454:	0000000c 	andeq	r0, r0, ip
    6458:	00132e2c 	andseq	r2, r3, ip, lsr #28
    645c:	782d0100 	stmdavc	sp!, {r8}
    6460:	200000ab 	andcs	r0, r0, fp, lsr #1
    6464:	01000000 	mrseq	r0, (UNDEF: 0)
    6468:	000c959c 	muleq	ip, ip, r5
    646c:	027c2d00 	rsbseq	r2, ip, #0, 26
    6470:	2d010000 	stccs	0, cr0, [r1, #-0]
    6474:	00000c95 	muleq	r0, r5, ip
    6478:	00001f24 	andeq	r1, r0, r4, lsr #30
    647c:	6c617627 	stclvs	6, cr7, [r1], #-156	; 0xffffff64
    6480:	2c2d0100 	stfcss	f0, [sp], #-0
    6484:	42000000 	andmi	r0, r0, #0
    6488:	2800001f 	stmdacs	r0, {r0, r1, r2, r3, r4}
    648c:	0000ab88 	andeq	sl, r0, r8, lsl #23
    6490:	00000cb2 			; <UNDEFINED> instruction: 0x00000cb2
    6494:	00000c84 	andeq	r0, r0, r4, lsl #25
    6498:	02500129 	subseq	r0, r0, #1073741834	; 0x4000000a
    649c:	2b000074 	blcs	6674 <__code_start__-0x198c>
    64a0:	0000ab94 	muleq	r0, r4, fp
    64a4:	00000ca7 	andeq	r0, r0, r7, lsr #25
    64a8:	02500129 	subseq	r0, r0, #1073741834	; 0x4000000a
    64ac:	00000074 	andeq	r0, r0, r4, ror r0
    64b0:	0c9b040e 	cfldrseq	mvf0, [fp], {14}
    64b4:	2f2e0000 	svccs	0x002e0000
    64b8:	00000d61 	andeq	r0, r0, r1, ror #26
    64bc:	00000d61 	andeq	r0, r0, r1, ror #26
    64c0:	ad2f8906 	stcge	9, cr8, [pc, #-24]!	; 64b0 <__code_start__-0x1b50>
    64c4:	ad000000 	stcge	0, cr0, [r0, #-0]
    64c8:	06000000 	streq	r0, [r0], -r0
    64cc:	13102f9c 	tstne	r0, #156, 30	; 0x270
    64d0:	13100000 	tstne	r0, #0
    64d4:	a8060000 	stmdage	r6, {}	; <UNPREDICTABLE>
    64d8:	0010e32f 	andseq	lr, r0, pc, lsr #6
    64dc:	0010e300 	andseq	lr, r0, r0, lsl #6
    64e0:	00190800 	andseq	r0, r9, r0, lsl #16
    64e4:	00000b70 	andeq	r0, r0, r0, ror fp
    64e8:	18ec0004 	stmiane	ip!, {r2}^
    64ec:	01040000 	mrseq	r0, (UNDEF: 4)
    64f0:	00001213 	andeq	r1, r0, r3, lsl r2
    64f4:	0013e30c 	andseq	lr, r3, ip, lsl #6
    64f8:	000fa500 	andeq	sl, pc, r0, lsl #10
    64fc:	00acf000 	adceq	pc, ip, r0
    6500:	00012000 	andeq	r2, r1, r0
    6504:	00166f00 	andseq	r6, r6, r0, lsl #30
    6508:	05040200 	streq	r0, [r4, #-512]	; 0x200
    650c:	00746e69 	rsbseq	r6, r4, r9, ror #28
    6510:	33070403 	movwcc	r0, #29699	; 0x7403
    6514:	04000000 	streq	r0, [r0], #-0
    6518:	0000002c 	andeq	r0, r0, ip, lsr #32
    651c:	c9060103 	stmdbgt	r6, {r0, r1, r8}
    6520:	03000000 	movweq	r0, #0
    6524:	01060502 	tsteq	r6, r2, lsl #10
    6528:	04030000 	streq	r0, [r3], #-0
    652c:	00000505 	andeq	r0, r0, r5, lsl #10
    6530:	05080300 	streq	r0, [r8, #-768]	; 0x300
    6534:	00000000 	andeq	r0, r0, r0
    6538:	c7080103 	strgt	r0, [r8, -r3, lsl #2]
    653c:	03000000 	movweq	r0, #0
    6540:	01180702 	tsteq	r8, r2, lsl #14
    6544:	04030000 	streq	r0, [r3], #-0
    6548:	00002e07 	andeq	r2, r0, r7, lsl #28
    654c:	07080300 	streq	r0, [r8, -r0, lsl #6]
    6550:	00000029 	andeq	r0, r0, r9, lsr #32
    6554:	00112e05 	andseq	r2, r1, r5, lsl #28
    6558:	25070200 	strcs	r0, [r7, #-512]	; 0x200
    655c:	05000000 	streq	r0, [r0, #-0]
    6560:	00001118 	andeq	r1, r0, r8, lsl r1
    6564:	00462c03 	subeq	r2, r6, r3, lsl #24
    6568:	f4050000 	vst4.8	{d0-d3}, [r5], r0
    656c:	03000011 	movweq	r0, #17
    6570:	00004672 	andeq	r4, r0, r2, ror r6
    6574:	10ca0600 	sbcne	r0, sl, r0, lsl #12
    6578:	65040000 	strvs	r0, [r4, #-0]
    657c:	00002c01 	andeq	r2, r0, r1, lsl #24
    6580:	03040700 	movweq	r0, #18176	; 0x4700
    6584:	0000bca6 	andeq	fp, r0, r6, lsr #25
    6588:	10b50800 	adcsne	r0, r5, r0, lsl #16
    658c:	a8030000 	stmdage	r3, {}	; <UNPREDICTABLE>
    6590:	00000091 	muleq	r0, r1, r0
    6594:	00105d08 	andseq	r5, r0, r8, lsl #26
    6598:	bca90300 	stclt	3, cr0, [r9]
    659c:	00000000 	andeq	r0, r0, r0
    65a0:	00005409 	andeq	r5, r0, r9, lsl #8
    65a4:	0000cc00 	andeq	ip, r0, r0, lsl #24
    65a8:	00cc0a00 	sbceq	r0, ip, r0, lsl #20
    65ac:	00030000 	andeq	r0, r3, r0
    65b0:	99070403 	stmdbls	r7, {r0, r1, sl}
    65b4:	0b000001 	bleq	65c0 <__code_start__-0x1a40>
    65b8:	f4a30308 	vld4.8	{d0[0],d1[0],d2[0],d3[0]}, [r3], r8
    65bc:	0c000000 	stceq	0, cr0, [r0], {-0}
    65c0:	000011d9 	ldrdeq	r1, [r0], -r9
    65c4:	0025a503 	eoreq	sl, r5, r3, lsl #10
    65c8:	0c000000 	stceq	0, cr0, [r0], {-0}
    65cc:	000011e1 	andeq	r1, r0, r1, ror #3
    65d0:	009daa03 	addseq	sl, sp, r3, lsl #20
    65d4:	00040000 	andeq	r0, r4, r0
    65d8:	00116c05 	andseq	r6, r1, r5, lsl #24
    65dc:	d3ab0300 			; <UNDEFINED> instruction: 0xd3ab0300
    65e0:	05000000 	streq	r0, [r0, #-0]
    65e4:	00001026 	andeq	r1, r0, r6, lsr #32
    65e8:	0070af03 	rsbseq	sl, r0, r3, lsl #30
    65ec:	040d0000 	streq	r0, [sp], #-0
    65f0:	0112040e 	tsteq	r2, lr, lsl #8
    65f4:	01030000 	mrseq	r0, (UNDEF: 3)
    65f8:	0000d008 	andeq	sp, r0, r8
    65fc:	01120400 	tsteq	r2, r0, lsl #8
    6600:	90050000 	andls	r0, r5, r0
    6604:	05000012 	streq	r0, [r0, #-18]
    6608:	00006216 	andeq	r6, r0, r6, lsl r2
    660c:	10370f00 	eorsne	r0, r7, r0, lsl #30
    6610:	05180000 	ldreq	r0, [r8, #-0]
    6614:	00017c2d 	andeq	r7, r1, sp, lsr #24
    6618:	118d0c00 	orrne	r0, sp, r0, lsl #24
    661c:	2f050000 	svccs	0x00050000
    6620:	0000017c 	andeq	r0, r0, ip, ror r1
    6624:	6b5f1000 	blvs	17ca62c <__bss_end__+0x17bdfe4>
    6628:	25300500 	ldrcs	r0, [r0, #-1280]!	; 0x500
    662c:	04000000 	streq	r0, [r0], #-0
    6630:	0011c40c 	andseq	ip, r1, ip, lsl #8
    6634:	25300500 	ldrcs	r0, [r0, #-1280]!	; 0x500
    6638:	08000000 	stmdaeq	r0, {}	; <UNPREDICTABLE>
    663c:	0010120c 	andseq	r1, r0, ip, lsl #4
    6640:	25300500 	ldrcs	r0, [r0, #-1280]!	; 0x500
    6644:	0c000000 	stceq	0, cr0, [r0], {-0}
    6648:	0012d70c 	andseq	sp, r2, ip, lsl #14
    664c:	25300500 	ldrcs	r0, [r0, #-1280]!	; 0x500
    6650:	10000000 	andne	r0, r0, r0
    6654:	00785f10 	rsbseq	r5, r8, r0, lsl pc
    6658:	01823105 	orreq	r3, r2, r5, lsl #2
    665c:	00140000 	andseq	r0, r4, r0
    6660:	0129040e 	teqeq	r9, lr, lsl #8
    6664:	1e090000 	cdpne	0, 0, cr0, cr9, cr0, {0}
    6668:	92000001 	andls	r0, r0, #1
    666c:	0a000001 	beq	6678 <__code_start__-0x1988>
    6670:	000000cc 	andeq	r0, r0, ip, asr #1
    6674:	580f0000 	stmdapl	pc, {}	; <UNPREDICTABLE>
    6678:	24000010 	strcs	r0, [r0], #-16
    667c:	020b3505 	andeq	r3, fp, #20971520	; 0x1400000
    6680:	100c0000 	andne	r0, ip, r0
    6684:	0500000f 	streq	r0, [r0, #-15]
    6688:	00002537 	andeq	r2, r0, r7, lsr r5
    668c:	fc0c0000 	stc2	0, cr0, [ip], {-0}
    6690:	05000011 	streq	r0, [r0, #-17]
    6694:	00002538 	andeq	r2, r0, r8, lsr r5
    6698:	3e0c0400 	cfcpyscc	mvf0, mvf12
    669c:	0500000f 	streq	r0, [r0, #-15]
    66a0:	00002539 	andeq	r2, r0, r9, lsr r5
    66a4:	c70c0800 	strgt	r0, [ip, -r0, lsl #16]
    66a8:	05000013 	streq	r0, [r0, #-19]
    66ac:	0000253a 	andeq	r2, r0, sl, lsr r5
    66b0:	fc0c0c00 	stc2	12, cr0, [ip], {-0}
    66b4:	05000010 	streq	r0, [r0, #-16]
    66b8:	0000253b 	andeq	r2, r0, fp, lsr r5
    66bc:	d90c1000 	stmdble	ip, {ip}
    66c0:	05000010 	streq	r0, [r0, #-16]
    66c4:	0000253c 	andeq	r2, r0, ip, lsr r5
    66c8:	dc0c1400 	cfstrsle	mvf1, [ip], {-0}
    66cc:	05000012 	streq	r0, [r0, #-18]
    66d0:	0000253d 	andeq	r2, r0, sp, lsr r5
    66d4:	4e0c1800 	cdpmi	8, 0, cr1, cr12, cr0, {0}
    66d8:	05000011 	streq	r0, [r0, #-17]
    66dc:	0000253e 	andeq	r2, r0, lr, lsr r5
    66e0:	8e0c1c00 	cdphi	12, 0, cr1, cr12, cr0, {0}
    66e4:	05000013 	streq	r0, [r0, #-19]
    66e8:	0000253f 	andeq	r2, r0, pc, lsr r5
    66ec:	11002000 	mrsne	r2, (UNDEF: 0)
    66f0:	00000f4d 	andeq	r0, r0, sp, asr #30
    66f4:	48050108 	stmdami	r5, {r3, r8}
    66f8:	0000024b 	andeq	r0, r0, fp, asr #4
    66fc:	000ff90c 	andeq	pc, pc, ip, lsl #18
    6700:	4b490500 	blmi	1247b08 <__bss_end__+0x123b4c0>
    6704:	00000002 	andeq	r0, r0, r2
    6708:	000e8b0c 	andeq	r8, lr, ip, lsl #22
    670c:	4b4a0500 	blmi	1287b14 <__bss_end__+0x127b4cc>
    6710:	80000002 	andhi	r0, r0, r2
    6714:	00128212 	andseq	r8, r2, r2, lsl r2
    6718:	1e4c0500 	cdpne	5, 4, cr0, cr12, cr0, {0}
    671c:	00000001 	andeq	r0, r0, r1
    6720:	0f721201 	svceq	0x00721201
    6724:	4f050000 	svcmi	0x00050000
    6728:	0000011e 	andeq	r0, r0, lr, lsl r1
    672c:	09000104 	stmdbeq	r0, {r2, r8}
    6730:	0000010a 	andeq	r0, r0, sl, lsl #2
    6734:	0000025b 	andeq	r0, r0, fp, asr r2
    6738:	0000cc0a 	andeq	ip, r0, sl, lsl #24
    673c:	11001f00 	tstne	r0, r0, lsl #30
    6740:	00001105 	andeq	r1, r0, r5, lsl #2
    6744:	5b050190 	blpl	146d8c <__bss_end__+0x13a744>
    6748:	00000299 	muleq	r0, r9, r2
    674c:	00118d0c 	andseq	r8, r1, ip, lsl #26
    6750:	995c0500 	ldmdbls	ip, {r8, sl}^
    6754:	00000002 	andeq	r0, r0, r2
    6758:	0011a50c 	andseq	sl, r1, ip, lsl #10
    675c:	255d0500 	ldrbcs	r0, [sp, #-1280]	; 0x500
    6760:	04000000 	streq	r0, [r0], #-0
    6764:	00100d0c 	andseq	r0, r0, ip, lsl #26
    6768:	9f5f0500 	svcls	0x005f0500
    676c:	08000002 	stmdaeq	r0, {r1}
    6770:	000f4d0c 	andeq	r4, pc, ip, lsl #26
    6774:	0b600500 	bleq	1807b7c <__bss_end__+0x17fb534>
    6778:	88000002 	stmdahi	r0, {r1}
    677c:	5b040e00 	blpl	109f84 <__bss_end__+0xfd93c>
    6780:	09000002 	stmdbeq	r0, {r1}
    6784:	000002af 	andeq	r0, r0, pc, lsr #5
    6788:	000002af 	andeq	r0, r0, pc, lsr #5
    678c:	0000cc0a 	andeq	ip, r0, sl, lsl #24
    6790:	0e001f00 	cdpeq	15, 0, cr1, cr0, cr0, {0}
    6794:	0002b504 	andeq	fp, r2, r4, lsl #10
    6798:	580f1300 	stmdapl	pc, {r8, r9, ip}	; <UNPREDICTABLE>
    679c:	08000011 	stmdaeq	r0, {r0, r4}
    67a0:	02db7305 	sbcseq	r7, fp, #335544320	; 0x14000000
    67a4:	330c0000 	movwcc	r0, #49152	; 0xc000
    67a8:	0500000f 	streq	r0, [r0, #-15]
    67ac:	0002db74 	andeq	sp, r2, r4, ror fp
    67b0:	970c0000 	strls	r0, [ip, -r0]
    67b4:	0500000e 	streq	r0, [r0, #-14]
    67b8:	00002575 	andeq	r2, r0, r5, ror r5
    67bc:	0e000400 	cfcpyseq	mvf0, mvf0
    67c0:	00005404 	andeq	r5, r0, r4, lsl #8
    67c4:	11770f00 	cmnne	r7, r0, lsl #30
    67c8:	05680000 	strbeq	r0, [r8, #-0]!
    67cc:	00040bb3 			; <UNDEFINED> instruction: 0x00040bb3
    67d0:	705f1000 	subsvc	r1, pc, r0
    67d4:	dbb40500 	blle	fed07bdc <__bss_end__+0xfecfb594>
    67d8:	00000002 	andeq	r0, r0, r2
    67dc:	00725f10 	rsbseq	r5, r2, r0, lsl pc
    67e0:	0025b505 	eoreq	fp, r5, r5, lsl #10
    67e4:	10040000 	andne	r0, r4, r0
    67e8:	0500775f 	streq	r7, [r0, #-1887]	; 0x75f
    67ec:	000025b6 			; <UNDEFINED> instruction: 0x000025b6
    67f0:	6b0c0800 	blvs	3087f8 <__bss_end__+0x2fc1b0>
    67f4:	0500000f 	streq	r0, [r0, #-15]
    67f8:	00003fb7 			; <UNDEFINED> instruction: 0x00003fb7
    67fc:	7e0c0c00 	cdpvc	12, 0, cr0, cr12, cr0, {0}
    6800:	05000010 	streq	r0, [r0, #-16]
    6804:	00003fb8 			; <UNDEFINED> instruction: 0x00003fb8
    6808:	5f100e00 	svcpl	0x00100e00
    680c:	05006662 	streq	r6, [r0, #-1634]	; 0x662
    6810:	0002b6b9 			; <UNDEFINED> instruction: 0x0002b6b9
    6814:	da0c1000 	ble	30a81c <__bss_end__+0x2fe1d4>
    6818:	0500000e 	streq	r0, [r0, #-14]
    681c:	000025ba 			; <UNDEFINED> instruction: 0x000025ba
    6820:	5b0c1800 	blpl	30c828 <__bss_end__+0x3001e0>
    6824:	0500000f 	streq	r0, [r0, #-15]
    6828:	00010ac1 	andeq	r0, r1, r1, asr #21
    682c:	ee0c1c00 	cdp	12, 0, cr1, cr12, cr0, {0}
    6830:	05000013 	streq	r0, [r0, #-19]
    6834:	000566c3 	andeq	r6, r5, r3, asr #13
    6838:	080c2000 	stmdaeq	ip, {sp}
    683c:	05000014 	streq	r0, [r0, #-20]
    6840:	000590c5 	andeq	r9, r5, r5, asr #1
    6844:	e90c2400 	stmdb	ip, {sl, sp}
    6848:	05000011 	streq	r0, [r0, #-17]
    684c:	0005b4c8 	andeq	fp, r5, r8, asr #9
    6850:	a80c2800 	stmdage	ip, {fp, sp}
    6854:	05000013 	streq	r0, [r0, #-19]
    6858:	0005cec9 	andeq	ip, r5, r9, asr #29
    685c:	5f102c00 	svcpl	0x00102c00
    6860:	05006275 	streq	r6, [r0, #-629]	; 0x275
    6864:	0002b6cc 	andeq	fp, r2, ip, asr #13
    6868:	5f103000 	svcpl	0x00103000
    686c:	05007075 	streq	r7, [r0, #-117]	; 0x75
    6870:	0002dbcd 	andeq	sp, r2, sp, asr #23
    6874:	5f103800 	svcpl	0x00103800
    6878:	05007275 	streq	r7, [r0, #-629]	; 0x275
    687c:	000025ce 	andeq	r2, r0, lr, asr #11
    6880:	1e0c3c00 	cdpne	12, 0, cr3, cr12, cr0, {0}
    6884:	0500000f 	streq	r0, [r0, #-15]
    6888:	0005d4d1 	ldrdeq	sp, [r5], -r1
    688c:	530c4000 	movwpl	r4, #49152	; 0xc000
    6890:	05000013 	streq	r0, [r0, #-19]
    6894:	0005e4d2 	ldrdeq	lr, [r5], -r2
    6898:	5f104300 	svcpl	0x00104300
    689c:	0500626c 	streq	r6, [r0, #-620]	; 0x26c
    68a0:	0002b6d5 	ldrdeq	fp, [r2], -r5
    68a4:	810c4400 	tsthi	ip, r0, lsl #8
    68a8:	0500000f 	streq	r0, [r0, #-15]
    68ac:	000025d8 	ldrdeq	r2, [r0], -r8
    68b0:	110c4c00 	tstne	ip, r0, lsl #24
    68b4:	05000007 	streq	r0, [r0, #-7]
    68b8:	00007bd9 	ldrdeq	r7, [r0], -r9
    68bc:	3e0c5000 	cdpcc	0, 0, cr5, cr12, cr0, {0}
    68c0:	05000013 	streq	r0, [r0, #-19]
    68c4:	000429dc 	ldrdeq	r2, [r4], -ip
    68c8:	7a0c5400 	bvc	31b8d0 <__bss_end__+0x30f288>
    68cc:	05000006 	streq	r0, [r0, #-6]
    68d0:	0000ffe0 	andeq	pc, r0, r0, ror #31
    68d4:	7f0c5800 	svcvc	0x000c5800
    68d8:	05000011 	streq	r0, [r0, #-17]
    68dc:	0000f4e2 	andeq	pc, r0, r2, ror #9
    68e0:	d10c5c00 	tstle	ip, r0, lsl #24
    68e4:	05000010 	streq	r0, [r0, #-16]
    68e8:	000025e3 	andeq	r2, r0, r3, ror #11
    68ec:	14006400 	strne	r6, [r0], #-1024	; 0x400
    68f0:	00000025 	andeq	r0, r0, r5, lsr #32
    68f4:	00000429 	andeq	r0, r0, r9, lsr #8
    68f8:	00042915 	andeq	r2, r4, r5, lsl r9
    68fc:	010a1500 	tsteq	sl, r0, lsl #10
    6900:	0c150000 	ldceq	0, cr0, [r5], {-0}
    6904:	15000001 	strne	r0, [r0, #-1]
    6908:	00000025 	andeq	r0, r0, r5, lsr #32
    690c:	34040e00 	strcc	r0, [r4], #-3584	; 0xe00
    6910:	04000004 	streq	r0, [r0], #-4
    6914:	00000429 	andeq	r0, r0, r9, lsr #8
    6918:	0011cc16 	andseq	ip, r1, r6, lsl ip
    691c:	05042800 	streq	r2, [r4, #-2048]	; 0x800
    6920:	05660238 	strbeq	r0, [r6, #-568]!	; 0x238
    6924:	47170000 	ldrmi	r0, [r7, -r0]
    6928:	05000011 	streq	r0, [r0, #-17]
    692c:	0025023a 	eoreq	r0, r5, sl, lsr r2
    6930:	17000000 	strne	r0, [r0, -r0]
    6934:	00000f7a 	andeq	r0, r0, sl, ror pc
    6938:	3b023f05 	blcc	96554 <__bss_end__+0x89f0c>
    693c:	04000006 	streq	r0, [r0], #-6
    6940:	00106e17 	andseq	r6, r0, r7, lsl lr
    6944:	023f0500 	eorseq	r0, pc, #0, 10
    6948:	0000063b 	andeq	r0, r0, fp, lsr r6
    694c:	102f1708 	eorne	r1, pc, r8, lsl #14
    6950:	3f050000 	svccc	0x00050000
    6954:	00063b02 	andeq	r3, r6, r2, lsl #22
    6958:	a0170c00 	andsge	r0, r7, r0, lsl #24
    695c:	05000011 	streq	r0, [r0, #-17]
    6960:	00250241 	eoreq	r0, r5, r1, asr #4
    6964:	17100000 	ldrne	r0, [r0, -r0]
    6968:	00000ea5 	andeq	r0, r0, r5, lsr #29
    696c:	1d024205 	sfmne	f4, 4, [r2, #-20]	; 0xffffffec
    6970:	14000008 	strne	r0, [r0], #-8
    6974:	0012b817 	andseq	fp, r2, r7, lsl r8
    6978:	02440500 	subeq	r0, r4, #0, 10
    697c:	00000025 	andeq	r0, r0, r5, lsr #32
    6980:	11aa1730 			; <UNDEFINED> instruction: 0x11aa1730
    6984:	45050000 	strmi	r0, [r5, #-0]
    6988:	00058a02 	andeq	r8, r5, r2, lsl #20
    698c:	0d173400 	cfldrseq	mvf3, [r7, #-0]
    6990:	05000011 	streq	r0, [r0, #-17]
    6994:	00250247 	eoreq	r0, r5, r7, asr #4
    6998:	17380000 	ldrne	r0, [r8, -r0]!
    699c:	000011ba 			; <UNDEFINED> instruction: 0x000011ba
    69a0:	38024905 	stmdacc	r2, {r0, r2, r8, fp, lr}
    69a4:	3c000008 	stccc	0, cr0, [r0], {8}
    69a8:	0010ad17 	andseq	sl, r0, r7, lsl sp
    69ac:	024c0500 	subeq	r0, ip, #0, 10
    69b0:	0000017c 	andeq	r0, r0, ip, ror r1
    69b4:	104e1740 	subne	r1, lr, r0, asr #14
    69b8:	4d050000 	stcmi	0, cr0, [r5, #-0]
    69bc:	00002502 	andeq	r2, r0, r2, lsl #10
    69c0:	c2174400 	andsgt	r4, r7, #0, 8
    69c4:	05000013 	streq	r0, [r0, #-19]
    69c8:	017c024e 	cmneq	ip, lr, asr #4
    69cc:	17480000 	strbne	r0, [r8, -r0]
    69d0:	00001124 	andeq	r1, r0, r4, lsr #2
    69d4:	3e024f05 	cdpcc	15, 0, cr4, cr2, cr5, {0}
    69d8:	4c000008 	stcmi	0, cr0, [r0], {8}
    69dc:	00107617 	andseq	r7, r0, r7, lsl r6
    69e0:	02520500 	subseq	r0, r2, #0, 10
    69e4:	00000025 	andeq	r0, r0, r5, lsr #32
    69e8:	0f9d1750 	svceq	0x009d1750
    69ec:	53050000 	movwpl	r0, #20480	; 0x5000
    69f0:	00010c02 	andeq	r0, r1, r2, lsl #24
    69f4:	40175400 	andsmi	r5, r7, r0, lsl #8
    69f8:	05000011 	streq	r0, [r0, #-17]
    69fc:	07fb0276 			; <UNDEFINED> instruction: 0x07fb0276
    6a00:	18580000 	ldmdane	r8, {}^	; <UNPREDICTABLE>
    6a04:	00001105 	andeq	r1, r0, r5, lsl #2
    6a08:	99027a05 	stmdbls	r2, {r0, r2, r9, fp, ip, sp, lr}
    6a0c:	48000002 	stmdami	r0, {r1}
    6a10:	108b1801 	addne	r1, fp, r1, lsl #16
    6a14:	7b050000 	blvc	146a1c <__bss_end__+0x13a3d4>
    6a18:	00025b02 	andeq	r5, r2, r2, lsl #22
    6a1c:	18014c00 	stmdane	r1, {sl, fp, lr}
    6a20:	00001324 	andeq	r1, r0, r4, lsr #6
    6a24:	4f027f05 	svcmi	0x00027f05
    6a28:	dc000008 	stcle	0, cr0, [r0], {8}
    6a2c:	0f631802 	svceq	0x00631802
    6a30:	84050000 	strhi	r0, [r5], #-0
    6a34:	00060002 	andeq	r0, r6, r2
    6a38:	1802e000 	stmdane	r2, {sp, lr, pc}
    6a3c:	00000f48 	andeq	r0, r0, r8, asr #30
    6a40:	5b028505 	blpl	a7e5c <__bss_end__+0x9b814>
    6a44:	ec000008 	stc	0, cr0, [r0], {8}
    6a48:	040e0002 	streq	r0, [lr], #-2
    6a4c:	0000040b 	andeq	r0, r0, fp, lsl #8
    6a50:	00002514 	andeq	r2, r0, r4, lsl r5
    6a54:	00058a00 	andeq	r8, r5, r0, lsl #20
    6a58:	04291500 	strteq	r1, [r9], #-1280	; 0x500
    6a5c:	0a150000 	beq	546a64 <__bss_end__+0x53a41c>
    6a60:	15000001 	strne	r0, [r0, #-1]
    6a64:	0000058a 	andeq	r0, r0, sl, lsl #11
    6a68:	00002515 	andeq	r2, r0, r5, lsl r5
    6a6c:	040e0000 	streq	r0, [lr], #-0
    6a70:	00000119 	andeq	r0, r0, r9, lsl r1
    6a74:	056c040e 	strbeq	r0, [ip, #-1038]!	; 0x40e
    6a78:	86140000 	ldrhi	r0, [r4], -r0
    6a7c:	b4000000 	strlt	r0, [r0], #-0
    6a80:	15000005 	strne	r0, [r0, #-5]
    6a84:	00000429 	andeq	r0, r0, r9, lsr #8
    6a88:	00010a15 	andeq	r0, r1, r5, lsl sl
    6a8c:	00861500 	addeq	r1, r6, r0, lsl #10
    6a90:	25150000 	ldrcs	r0, [r5, #-0]
    6a94:	00000000 	andeq	r0, r0, r0
    6a98:	0596040e 	ldreq	r0, [r6, #1038]	; 0x40e
    6a9c:	25140000 	ldrcs	r0, [r4, #-0]
    6aa0:	ce000000 	cdpgt	0, 0, cr0, cr0, cr0, {0}
    6aa4:	15000005 	strne	r0, [r0, #-5]
    6aa8:	00000429 	andeq	r0, r0, r9, lsr #8
    6aac:	00010a15 	andeq	r0, r1, r5, lsl sl
    6ab0:	040e0000 	streq	r0, [lr], #-0
    6ab4:	000005ba 			; <UNDEFINED> instruction: 0x000005ba
    6ab8:	00005409 	andeq	r5, r0, r9, lsl #8
    6abc:	0005e400 	andeq	lr, r5, r0, lsl #8
    6ac0:	00cc0a00 	sbceq	r0, ip, r0, lsl #20
    6ac4:	00020000 	andeq	r0, r2, r0
    6ac8:	00005409 	andeq	r5, r0, r9, lsl #8
    6acc:	0005f400 	andeq	pc, r5, r0, lsl #8
    6ad0:	00cc0a00 	sbceq	r0, ip, r0, lsl #20
    6ad4:	00000000 	andeq	r0, r0, r0
    6ad8:	00116506 	andseq	r6, r1, r6, lsl #10
    6adc:	011d0500 	tsteq	sp, r0, lsl #10
    6ae0:	000002e1 	andeq	r0, r0, r1, ror #5
    6ae4:	0012e619 	andseq	lr, r2, r9, lsl r6
    6ae8:	21050c00 	tstcs	r5, r0, lsl #24
    6aec:	00063501 	andeq	r3, r6, r1, lsl #10
    6af0:	118d1700 	orrne	r1, sp, r0, lsl #14
    6af4:	23050000 	movwcs	r0, #20480	; 0x5000
    6af8:	00063501 	andeq	r3, r6, r1, lsl #10
    6afc:	84170000 	ldrhi	r0, [r7], #-0
    6b00:	05000010 	streq	r0, [r0, #-16]
    6b04:	00250124 	eoreq	r0, r5, r4, lsr #2
    6b08:	17040000 	strne	r0, [r4, -r0]
    6b0c:	0000115f 	andeq	r1, r0, pc, asr r1
    6b10:	3b012505 	blcc	4ff2c <__bss_end__+0x438e4>
    6b14:	08000006 	stmdaeq	r0, {r1, r2}
    6b18:	00040e00 	andeq	r0, r4, r0, lsl #28
    6b1c:	0e000006 	cdpeq	0, 0, cr0, cr0, cr6, {0}
    6b20:	0005f404 	andeq	pc, r5, r4, lsl #8
    6b24:	0e9d1900 	cdpeq	9, 9, cr1, cr13, cr0, {0}
    6b28:	050e0000 	streq	r0, [lr, #-0]
    6b2c:	0676013d 			; <UNDEFINED> instruction: 0x0676013d
    6b30:	d3170000 	tstle	r7, #0
    6b34:	05000011 	streq	r0, [r0, #-17]
    6b38:	0676013e 			; <UNDEFINED> instruction: 0x0676013e
    6b3c:	17000000 	strne	r0, [r0, -r0]
    6b40:	0000120d 	andeq	r1, r0, sp, lsl #4
    6b44:	76013f05 	strvc	r3, [r1], -r5, lsl #30
    6b48:	06000006 	streq	r0, [r0], -r6
    6b4c:	00128b17 	andseq	r8, r2, r7, lsl fp
    6b50:	01400500 	cmpeq	r0, r0, lsl #10
    6b54:	0000005b 	andeq	r0, r0, fp, asr r0
    6b58:	5b09000c 	blpl	246b90 <__bss_end__+0x23a548>
    6b5c:	86000000 	strhi	r0, [r0], -r0
    6b60:	0a000006 	beq	6b80 <__code_start__-0x1480>
    6b64:	000000cc 	andeq	r0, r0, ip, asr #1
    6b68:	d01a0002 	andsle	r0, sl, r2
    6b6c:	87025705 	strhi	r5, [r2, -r5, lsl #14]
    6b70:	17000007 	strne	r0, [r0, -r7]
    6b74:	000012ca 	andeq	r1, r0, sl, asr #5
    6b78:	2c025905 	stccs	9, cr5, [r2], {5}
    6b7c:	00000000 	andeq	r0, r0, r0
    6b80:	00127517 	andseq	r7, r2, r7, lsl r5
    6b84:	025a0500 	subseq	r0, sl, #0, 10
    6b88:	0000010c 	andeq	r0, r0, ip, lsl #2
    6b8c:	10a01704 	adcne	r1, r0, r4, lsl #14
    6b90:	5b050000 	blpl	146b98 <__bss_end__+0x13a550>
    6b94:	00078702 	andeq	r8, r7, r2, lsl #14
    6b98:	99170800 	ldmdbls	r7, {fp}
    6b9c:	05000013 	streq	r0, [r0, #-19]
    6ba0:	0192025c 	orrseq	r0, r2, ip, asr r2
    6ba4:	17240000 	strne	r0, [r4, -r0]!
    6ba8:	0000103f 	andeq	r1, r0, pc, lsr r0
    6bac:	25025d05 	strcs	r5, [r2, #-3333]	; 0xd05
    6bb0:	48000000 	stmdami	r0, {}	; <UNPREDICTABLE>
    6bb4:	00118817 	andseq	r8, r1, r7, lsl r8
    6bb8:	025e0500 	subseq	r0, lr, #0, 10
    6bbc:	00000069 	andeq	r0, r0, r9, rrx
    6bc0:	13af1750 			; <UNDEFINED> instruction: 0x13af1750
    6bc4:	5f050000 	svcpl	0x00050000
    6bc8:	00064102 	andeq	r4, r6, r2, lsl #2
    6bcc:	93175800 	tstls	r7, #0, 16
    6bd0:	05000011 	streq	r0, [r0, #-17]
    6bd4:	00f40260 	rscseq	r0, r4, r0, ror #4
    6bd8:	17680000 	strbne	r0, [r8, -r0]!
    6bdc:	000013b4 			; <UNDEFINED> instruction: 0x000013b4
    6be0:	f4026105 	vst4.8	{d6,d8,d10,d12}, [r2], r5
    6be4:	70000000 	andvc	r0, r0, r0
    6be8:	000f0217 	andeq	r0, pc, r7, lsl r2	; <UNPREDICTABLE>
    6bec:	02620500 	rsbeq	r0, r2, #0, 10
    6bf0:	000000f4 	strdeq	r0, [r0], -r4
    6bf4:	13061778 	movwne	r1, #26488	; 0x6778
    6bf8:	63050000 	movwvs	r0, #20480	; 0x5000
    6bfc:	00079702 	andeq	r9, r7, r2, lsl #14
    6c00:	94178000 	ldrls	r8, [r7], #-0
    6c04:	05000010 	streq	r0, [r0, #-16]
    6c08:	07a70264 	streq	r0, [r7, r4, ror #4]!
    6c0c:	17880000 	strne	r0, [r8, r0]
    6c10:	00001298 	muleq	r0, r8, r2
    6c14:	25026505 	strcs	r6, [r2, #-1285]	; 0x505
    6c18:	a0000000 	andge	r0, r0, r0
    6c1c:	000feb17 	andeq	lr, pc, r7, lsl fp	; <UNPREDICTABLE>
    6c20:	02660500 	rsbeq	r0, r6, #0, 10
    6c24:	000000f4 	strdeq	r0, [r0], -r4
    6c28:	0ef317a4 	cdpeq	7, 15, cr1, cr3, cr4, {5}
    6c2c:	67050000 	strvs	r0, [r5, -r0]
    6c30:	0000f402 	andeq	pc, r0, r2, lsl #8
    6c34:	da17ac00 	ble	5f1c3c <__bss_end__+0x5e55f4>
    6c38:	0500000f 	streq	r0, [r0, #-15]
    6c3c:	00f40268 	rscseq	r0, r4, r8, ror #4
    6c40:	17b40000 	ldrne	r0, [r4, r0]!
    6c44:	00000eba 			; <UNDEFINED> instruction: 0x00000eba
    6c48:	f4026905 	vst2.8	{d6,d8}, [r2], r5
    6c4c:	bc000000 	stclt	0, cr0, [r0], {-0}
    6c50:	000ec917 	andeq	ip, lr, r7, lsl r9
    6c54:	026a0500 	rsbeq	r0, sl, #0, 10
    6c58:	000000f4 	strdeq	r0, [r0], -r4
    6c5c:	114517c4 	smlalbtne	r1, r5, r4, r7
    6c60:	6b050000 	blvs	146c68 <__bss_end__+0x13a620>
    6c64:	00002502 	andeq	r2, r0, r2, lsl #10
    6c68:	0900cc00 	stmdbeq	r0, {sl, fp, lr, pc}
    6c6c:	00000112 	andeq	r0, r0, r2, lsl r1
    6c70:	00000797 	muleq	r0, r7, r7
    6c74:	0000cc0a 	andeq	ip, r0, sl, lsl #24
    6c78:	09001900 	stmdbeq	r0, {r8, fp, ip}
    6c7c:	00000112 	andeq	r0, r0, r2, lsl r1
    6c80:	000007a7 	andeq	r0, r0, r7, lsr #15
    6c84:	0000cc0a 	andeq	ip, r0, sl, lsl #24
    6c88:	09000700 	stmdbeq	r0, {r8, r9, sl}
    6c8c:	00000112 	andeq	r0, r0, r2, lsl r1
    6c90:	000007b7 			; <UNDEFINED> instruction: 0x000007b7
    6c94:	0000cc0a 	andeq	ip, r0, sl, lsl #24
    6c98:	1a001700 	bne	c8a0 <__bss_end__+0x258>
    6c9c:	027005f0 	rsbseq	r0, r0, #240, 10	; 0x3c000000
    6ca0:	000007db 	ldrdeq	r0, [r0], -fp
    6ca4:	0010f517 	andseq	pc, r0, r7, lsl r5	; <UNPREDICTABLE>
    6ca8:	02730500 	rsbseq	r0, r3, #0, 10
    6cac:	000007db 	ldrdeq	r0, [r0], -fp
    6cb0:	12fd1700 	rscsne	r1, sp, #0, 14
    6cb4:	74050000 	strvc	r0, [r5], #-0
    6cb8:	0007eb02 	andeq	lr, r7, r2, lsl #22
    6cbc:	09007800 	stmdbeq	r0, {fp, ip, sp, lr}
    6cc0:	000002db 	ldrdeq	r0, [r0], -fp
    6cc4:	000007eb 	andeq	r0, r0, fp, ror #15
    6cc8:	0000cc0a 	andeq	ip, r0, sl, lsl #24
    6ccc:	09001d00 	stmdbeq	r0, {r8, sl, fp, ip}
    6cd0:	0000002c 	andeq	r0, r0, ip, lsr #32
    6cd4:	000007fb 	strdeq	r0, [r0], -fp
    6cd8:	0000cc0a 	andeq	ip, r0, sl, lsl #24
    6cdc:	1b001d00 	blne	e0e4 <__bss_end__+0x1a9c>
    6ce0:	025505f0 	subseq	r0, r5, #240, 10	; 0x3c000000
    6ce4:	0000081d 	andeq	r0, r0, sp, lsl r8
    6ce8:	0011cc1c 	andseq	ip, r1, ip, lsl ip
    6cec:	026c0500 	rsbeq	r0, ip, #0, 10
    6cf0:	00000686 	andeq	r0, r0, r6, lsl #13
    6cf4:	0013591c 	andseq	r5, r3, ip, lsl r9
    6cf8:	02750500 	rsbseq	r0, r5, #0, 10
    6cfc:	000007b7 			; <UNDEFINED> instruction: 0x000007b7
    6d00:	01120900 	tsteq	r2, r0, lsl #18
    6d04:	082d0000 	stmdaeq	sp!, {}	; <UNPREDICTABLE>
    6d08:	cc0a0000 	stcgt	0, cr0, [sl], {-0}
    6d0c:	18000000 	stmdane	r0, {}	; <UNPREDICTABLE>
    6d10:	08381d00 	ldmdaeq	r8!, {r8, sl, fp, ip}
    6d14:	29150000 	ldmdbcs	r5, {}	; <UNPREDICTABLE>
    6d18:	00000004 	andeq	r0, r0, r4
    6d1c:	082d040e 	stmdaeq	sp!, {r1, r2, r3, sl}
    6d20:	040e0000 	streq	r0, [lr], #-0
    6d24:	0000017c 	andeq	r0, r0, ip, ror r1
    6d28:	00084f1d 	andeq	r4, r8, sp, lsl pc
    6d2c:	00251500 	eoreq	r1, r5, r0, lsl #10
    6d30:	0e000000 	cdpeq	0, 0, cr0, cr0, cr0, {0}
    6d34:	00085504 	andeq	r5, r8, r4, lsl #10
    6d38:	44040e00 	strmi	r0, [r4], #-3584	; 0xe00
    6d3c:	09000008 	stmdbeq	r0, {r3}
    6d40:	000005f4 	strdeq	r0, [r0], -r4
    6d44:	0000086b 	andeq	r0, r0, fp, ror #16
    6d48:	0000cc0a 	andeq	ip, r0, sl, lsl #24
    6d4c:	1e000200 	cdpne	2, 0, cr0, cr0, cr0, {0}
    6d50:	000012ac 	andeq	r1, r0, ip, lsr #5
    6d54:	2902fd05 	stmdbcs	r2, {r0, r2, r8, sl, fp, ip, sp, lr, pc}
    6d58:	1e000004 	cdpne	0, 0, cr0, cr0, cr4, {0}
    6d5c:	000012a5 	andeq	r1, r0, r5, lsr #5
    6d60:	2f02fe05 	svccs	0x0002fe05
    6d64:	14000004 	strne	r0, [r0], #-4
    6d68:	00000025 	andeq	r0, r0, r5, lsr #32
    6d6c:	00000892 	muleq	r0, r2, r8
    6d70:	00002515 	andeq	r2, r0, r5, lsl r5
    6d74:	9a1f0000 	bls	7c6d7c <__bss_end__+0x7ba734>
    6d78:	0600000a 	streq	r0, [r0], -sl
    6d7c:	00089d1d 	andeq	r9, r8, sp, lsl sp
    6d80:	83040e00 	movwhi	r0, #19968	; 0x4e00
    6d84:	14000008 	strne	r0, [r0], #-8
    6d88:	00000025 	andeq	r0, r0, r5, lsr #32
    6d8c:	000008b2 			; <UNDEFINED> instruction: 0x000008b2
    6d90:	00058a15 	andeq	r8, r5, r5, lsl sl
    6d94:	d71f0000 	ldrle	r0, [pc, -r0]
    6d98:	0600000a 	streq	r0, [r0], -sl
    6d9c:	0008bd22 	andeq	fp, r8, r2, lsr #26
    6da0:	a3040e00 	movwge	r0, #19968	; 0x4e00
    6da4:	20000008 	andcs	r0, r0, r8
    6da8:	00005401 	andeq	r5, r0, r1, lsl #8
    6dac:	000c0700 	andeq	r0, ip, r0, lsl #14
    6db0:	21000009 	tstcs	r0, r9
    6db4:	00000ee3 	andeq	r0, r0, r3, ror #29
    6db8:	12ec2100 	rscne	r2, ip, #0, 2
    6dbc:	21010000 	mrscs	r0, (UNDEF: 1)
    6dc0:	00001344 	andeq	r1, r0, r4, asr #6
    6dc4:	0f242104 	svceq	0x00242104
    6dc8:	21050000 	mrscs	r0, (UNDEF: 5)
    6dcc:	000010bb 	strheq	r1, [r0], -fp
    6dd0:	13612106 	cmnne	r1, #-2147483647	; 0x80000001
    6dd4:	21070000 	mrscs	r0, (UNDEF: 7)
    6dd8:	00001370 	andeq	r1, r0, r0, ror r3
    6ddc:	137f2103 	cmnne	pc, #-1073741824	; 0xc0000000
    6de0:	00020000 	andeq	r0, r2, r0
    6de4:	00143e05 	andseq	r3, r4, r5, lsl #28
    6de8:	c3150700 	tstgt	r5, #0, 14
    6dec:	22000008 	andcs	r0, r0, #8
    6df0:	0000140f 	andeq	r1, r0, pc, lsl #8
    6df4:	00331d01 	eorseq	r1, r3, r1, lsl #26
    6df8:	001c0000 	andseq	r0, ip, r0
    6dfc:	4a222020 	bmi	88ee84 <__bss_end__+0x88283c>
    6e00:	01000014 	tsteq	r0, r4, lsl r0
    6e04:	0000331e 	andeq	r3, r0, lr, lsl r3
    6e08:	20002800 	andcs	r2, r0, r0, lsl #16
    6e0c:	14192220 	ldrne	r2, [r9], #-544	; 0x220
    6e10:	1f010000 	svcne	0x00010000
    6e14:	00000033 	andeq	r0, r0, r3, lsr r0
    6e18:	20200034 	eorcs	r0, r0, r4, lsr r0
    6e1c:	0013ea23 	andseq	lr, r3, r3, lsr #20
    6e20:	25560100 	ldrbcs	r0, [r6, #-256]	; 0x100
    6e24:	dc000000 	stcle	0, cr0, [r0], {-0}
    6e28:	340000ad 	strcc	r0, [r0], #-173	; 0xad
    6e2c:	01000000 	mrseq	r0, (UNDEF: 0)
    6e30:	0009989c 	muleq	r9, ip, r8
    6e34:	69702400 	ldmdbvs	r0!, {sl, sp}^
    6e38:	5601006e 	strpl	r0, [r1], -lr, rrx
    6e3c:	0000002c 	andeq	r0, r0, ip, lsr #32
    6e40:	00001f60 	andeq	r1, r0, r0, ror #30
    6e44:	0013de25 	andseq	sp, r3, r5, lsr #28
    6e48:	2c590100 	ldfcse	f0, [r9], {-0}
    6e4c:	9a000000 	bls	6e54 <__code_start__-0x11ac>
    6e50:	2600001f 			; <UNDEFINED> instruction: 0x2600001f
    6e54:	0066666f 	rsbeq	r6, r6, pc, ror #12
    6e58:	002c5a01 	eoreq	r5, ip, r1, lsl #20
    6e5c:	1fd80000 	svcne	0x00d80000
    6e60:	f8270000 			; <UNDEFINED> instruction: 0xf8270000
    6e64:	5d0000ad 	stcpl	0, cr0, [r0, #-692]	; 0xfffffd4c
    6e68:	2800000b 	stmdacs	r0, {r0, r1, r3}
    6e6c:	f30b5001 	vhadd.u8	d5, d11, d1
    6e70:	25355001 	ldrcs	r5, [r5, #-1]!
    6e74:	8080b423 	addhi	fp, r0, r3, lsr #8
    6e78:	00000281 	andeq	r0, r0, r1, lsl #5
    6e7c:	00140429 	andseq	r0, r4, r9, lsr #8
    6e80:	c04f0100 	subgt	r0, pc, r0, lsl #2
    6e84:	1c0000ad 	stcne	0, cr0, [r0], {173}	; 0xad
    6e88:	01000000 	mrseq	r0, (UNDEF: 0)
    6e8c:	0009e89c 	muleq	r9, ip, r8
    6e90:	69702400 	ldmdbvs	r0!, {sl, sp}^
    6e94:	4f01006e 	svcmi	0x0001006e
    6e98:	0000002c 	andeq	r0, r0, ip, lsr #32
    6e9c:	00001feb 	andeq	r1, r0, fp, ror #31
    6ea0:	01007624 	tsteq	r0, r4, lsr #12
    6ea4:	00002c4f 	andeq	r2, r0, pc, asr #24
    6ea8:	00202500 	eoreq	r2, r0, r0, lsl #10
    6eac:	add02a00 	vldrge	s5, [r0]
    6eb0:	0a230000 	beq	8c6eb8 <__bss_end__+0x8ba870>
    6eb4:	09de0000 	ldmibeq	lr, {}^	; <UNPREDICTABLE>
    6eb8:	01280000 	teqeq	r8, r0
    6ebc:	01f30350 	mvnseq	r0, r0, asr r3
    6ec0:	d82b0050 	stmdale	fp!, {r4, r6}
    6ec4:	640000ad 	strvs	r0, [r0], #-173	; 0xad
    6ec8:	0000000a 	andeq	r0, r0, sl
    6ecc:	00142329 	andseq	r2, r4, r9, lsr #6
    6ed0:	b04a0100 	sublt	r0, sl, r0, lsl #2
    6ed4:	100000ad 	andne	r0, r0, sp, lsr #1
    6ed8:	01000000 	mrseq	r0, (UNDEF: 0)
    6edc:	000a239c 	muleq	sl, ip, r3
    6ee0:	69702400 	ldmdbvs	r0!, {sl, sp}^
    6ee4:	4a01006e 	bmi	470a4 <__bss_end__+0x3aa5c>
    6ee8:	0000002c 	andeq	r0, r0, ip, lsr #32
    6eec:	0000205f 	andeq	r2, r0, pc, asr r0
    6ef0:	00adbc27 	adceq	fp, sp, r7, lsr #24
    6ef4:	000ae000 	andeq	lr, sl, r0
    6ef8:	50012800 	andpl	r2, r1, r0, lsl #16
    6efc:	5001f303 	andpl	pc, r1, r3, lsl #6
    6f00:	01510128 	cmpeq	r1, r8, lsr #2
    6f04:	29000030 	stmdbcs	r0, {r4, r5}
    6f08:	000013d1 	ldrdeq	r1, [r0], -r1	; <UNPREDICTABLE>
    6f0c:	ad8c4301 	stcge	3, cr4, [ip, #4]
    6f10:	00240000 	eoreq	r0, r4, r0
    6f14:	9c010000 	stcls	0, cr0, [r1], {-0}
    6f18:	00000a64 	andeq	r0, r0, r4, ror #20
    6f1c:	6e697024 	cdpvs	0, 6, cr7, cr9, cr4, {1}
    6f20:	2c430100 	stfcse	f0, [r3], {-0}
    6f24:	80000000 	andhi	r0, r0, r0
    6f28:	27000020 	strcs	r0, [r0, -r0, lsr #32]
    6f2c:	0000ada8 	andeq	sl, r0, r8, lsr #27
    6f30:	00000b68 	andeq	r0, r0, r8, ror #22
    6f34:	05500128 	ldrbeq	r0, [r0, #-296]	; 0x128
    6f38:	2000280c 	andcs	r2, r0, ip, lsl #16
    6f3c:	51012820 	tstpl	r1, r0, lsr #16
    6f40:	01f33105 	mvnseq	r3, r5, lsl #2
    6f44:	00002450 	andeq	r2, r0, r0, asr r4
    6f48:	00143229 	andseq	r3, r4, r9, lsr #4
    6f4c:	683c0100 	ldmdavs	ip!, {r8}
    6f50:	240000ad 	strcs	r0, [r0], #-173	; 0xad
    6f54:	01000000 	mrseq	r0, (UNDEF: 0)
    6f58:	000aa59c 	muleq	sl, ip, r5
    6f5c:	69702400 	ldmdbvs	r0!, {sl, sp}^
    6f60:	3c01006e 	stccc	0, cr0, [r1], {110}	; 0x6e
    6f64:	0000002c 	andeq	r0, r0, ip, lsr #32
    6f68:	000020a1 	andeq	r2, r0, r1, lsr #1
    6f6c:	00ad8427 	adceq	r8, sp, r7, lsr #8
    6f70:	000b6800 	andeq	r6, fp, r0, lsl #16
    6f74:	50012800 	andpl	r2, r1, r0, lsl #16
    6f78:	001c0c05 	andseq	r0, ip, r5, lsl #24
    6f7c:	01282020 	teqeq	r8, r0, lsr #32
    6f80:	f3310551 	vqrshl.u64	q0, <illegal reg q0.5>, <illegal reg q0.5>
    6f84:	00245001 	eoreq	r5, r4, r1
    6f88:	13f42900 	mvnsne	r2, #0, 18
    6f8c:	37010000 	strcc	r0, [r1, -r0]
    6f90:	0000ad58 	andeq	sl, r0, r8, asr sp
    6f94:	00000010 	andeq	r0, r0, r0, lsl r0
    6f98:	0ae09c01 	beq	ff82dfa4 <__bss_end__+0xff82195c>
    6f9c:	70240000 	eorvc	r0, r4, r0
    6fa0:	01006e69 	tsteq	r0, r9, ror #28
    6fa4:	00002c37 	andeq	r2, r0, r7, lsr ip
    6fa8:	0020c200 	eoreq	ip, r0, r0, lsl #4
    6fac:	ad642700 	stclge	7, cr2, [r4, #-0]
    6fb0:	0ae00000 	beq	ff806fb8 <__bss_end__+0xff7fa970>
    6fb4:	01280000 	teqeq	r8, r0
    6fb8:	01f30350 	mvnseq	r0, r0, asr r3
    6fbc:	51012850 	tstpl	r1, r0, asr r8
    6fc0:	00003101 	andeq	r3, r0, r1, lsl #2
    6fc4:	0010e329 	andseq	lr, r0, r9, lsr #6
    6fc8:	f0280100 			; <UNDEFINED> instruction: 0xf0280100
    6fcc:	680000ac 	stmdavs	r0, {r2, r3, r5, r7}
    6fd0:	01000000 	mrseq	r0, (UNDEF: 0)
    6fd4:	000b5d9c 	muleq	fp, ip, sp
    6fd8:	69702400 	ldmdbvs	r0!, {sl, sp}^
    6fdc:	2801006e 	stmdacs	r1, {r1, r2, r3, r5, r6}
    6fe0:	0000002c 	andeq	r0, r0, ip, lsr #32
    6fe4:	000020e3 	andeq	r2, r0, r3, ror #1
    6fe8:	0013292c 	andseq	r2, r3, ip, lsr #18
    6fec:	00280100 	eoreq	r0, r8, r0, lsl #2
    6ff0:	04000009 	streq	r0, [r0], #-9
    6ff4:	2d000021 	stccs	0, cr0, [r0, #-132]	; 0xffffff7c
    6ff8:	0066666f 	rsbeq	r6, r6, pc, ror #12
    6ffc:	002c2d01 	eoreq	r2, ip, r1, lsl #26
    7000:	54010000 	strpl	r0, [r1], #-0
    7004:	0100672d 	tsteq	r0, sp, lsr #14
    7008:	00002c2f 	andeq	r2, r0, pc, lsr #24
    700c:	26560100 	ldrbcs	r0, [r6], -r0, lsl #2
    7010:	31010076 	tstcc	r1, r6, ror r0
    7014:	0000002c 	andeq	r0, r0, ip, lsr #32
    7018:	00002125 	andeq	r2, r0, r5, lsr #2
    701c:	00ad3c2a 	adceq	r3, sp, sl, lsr #24
    7020:	000b5d00 	andeq	r5, fp, r0, lsl #26
    7024:	000b4c00 	andeq	r4, fp, r0, lsl #24
    7028:	50012800 	andpl	r2, r1, r0, lsl #16
    702c:	00007602 	andeq	r7, r0, r2, lsl #12
    7030:	00ad5027 	adceq	r5, sp, r7, lsr #32
    7034:	000b6800 	andeq	r6, fp, r0, lsl #16
    7038:	50012800 	andpl	r2, r1, r0, lsl #16
    703c:	00007602 	andeq	r7, r0, r2, lsl #12
    7040:	0e5a2e00 	cdpeq	14, 5, cr2, cr10, cr0, {0}
    7044:	0e5a0000 	cdpeq	0, 5, cr0, cr10, cr0, {0}
    7048:	a7060000 	strge	r0, [r6, -r0]
    704c:	000d8f2e 	andeq	r8, sp, lr, lsr #30
    7050:	000d8f00 	andeq	r8, sp, r0, lsl #30
    7054:	009b0600 	addseq	r0, fp, r0, lsl #12
    7058:	00000c24 	andeq	r0, r0, r4, lsr #24
    705c:	1b5a0004 	blne	1687074 <__bss_end__+0x167aa2c>
    7060:	01040000 	mrseq	r0, (UNDEF: 4)
    7064:	00001213 	andeq	r1, r0, r3, lsl r2
    7068:	0014540c 	andseq	r5, r4, ip, lsl #8
    706c:	000fa500 	andeq	sl, pc, r0, lsl #10
    7070:	00ae1000 	adceq	r1, lr, r0
    7074:	00019400 	andeq	r9, r1, r0, lsl #8
    7078:	00179e00 	andseq	r9, r7, r0, lsl #28
    707c:	05040200 	streq	r0, [r4, #-512]	; 0x200
    7080:	00746e69 	rsbseq	r6, r4, r9, ror #28
    7084:	33070403 	movwcc	r0, #29699	; 0x7403
    7088:	03000000 	movweq	r0, #0
    708c:	00c90601 	sbceq	r0, r9, r1, lsl #12
    7090:	02030000 	andeq	r0, r3, #0
    7094:	00010605 	andeq	r0, r1, r5, lsl #12
    7098:	05040300 	streq	r0, [r4, #-768]	; 0x300
    709c:	00000005 	andeq	r0, r0, r5
    70a0:	00050803 	andeq	r0, r5, r3, lsl #16
    70a4:	03000000 	movweq	r0, #0
    70a8:	00c70801 	sbceq	r0, r7, r1, lsl #16
    70ac:	02030000 	andeq	r0, r3, #0
    70b0:	00011807 	andeq	r1, r1, r7, lsl #16
    70b4:	07040300 	streq	r0, [r4, -r0, lsl #6]
    70b8:	0000002e 	andeq	r0, r0, lr, lsr #32
    70bc:	29070803 	stmdbcs	r7, {r0, r1, fp}
    70c0:	04000000 	streq	r0, [r0], #-0
    70c4:	0000112e 	andeq	r1, r0, lr, lsr #2
    70c8:	00250702 	eoreq	r0, r5, r2, lsl #14
    70cc:	18040000 	stmdane	r4, {}	; <UNPREDICTABLE>
    70d0:	03000011 	movweq	r0, #17
    70d4:	0000412c 	andeq	r4, r0, ip, lsr #2
    70d8:	11f40400 	mvnsne	r0, r0, lsl #8
    70dc:	72030000 	andvc	r0, r3, #0
    70e0:	00000041 	andeq	r0, r0, r1, asr #32
    70e4:	0010ca05 	andseq	ip, r0, r5, lsl #20
    70e8:	01650400 	cmneq	r5, r0, lsl #8
    70ec:	0000002c 	andeq	r0, r0, ip, lsr #32
    70f0:	a6030406 	strge	r0, [r3], -r6, lsl #8
    70f4:	000000b7 	strheq	r0, [r0], -r7
    70f8:	0010b507 	andseq	fp, r0, r7, lsl #10
    70fc:	8ca80300 	stchi	3, cr0, [r8]
    7100:	07000000 	streq	r0, [r0, -r0]
    7104:	0000105d 	andeq	r1, r0, sp, asr r0
    7108:	00b7a903 	adcseq	sl, r7, r3, lsl #18
    710c:	08000000 	stmdaeq	r0, {}	; <UNPREDICTABLE>
    7110:	0000004f 	andeq	r0, r0, pc, asr #32
    7114:	000000c7 	andeq	r0, r0, r7, asr #1
    7118:	0000c709 	andeq	ip, r0, r9, lsl #14
    711c:	03000300 	movweq	r0, #768	; 0x300
    7120:	01990704 	orrseq	r0, r9, r4, lsl #14
    7124:	080a0000 	stmdaeq	sl, {}	; <UNPREDICTABLE>
    7128:	00efa303 	rsceq	sl, pc, r3, lsl #6
    712c:	d90b0000 	stmdble	fp, {}	; <UNPREDICTABLE>
    7130:	03000011 	movweq	r0, #17
    7134:	000025a5 	andeq	r2, r0, r5, lsr #11
    7138:	e10b0000 	mrs	r0, (UNDEF: 11)
    713c:	03000011 	movweq	r0, #17
    7140:	000098aa 	andeq	r9, r0, sl, lsr #17
    7144:	04000400 	streq	r0, [r0], #-1024	; 0x400
    7148:	0000116c 	andeq	r1, r0, ip, ror #2
    714c:	00ceab03 	sbceq	sl, lr, r3, lsl #22
    7150:	26040000 	strcs	r0, [r4], -r0
    7154:	03000010 	movweq	r0, #16
    7158:	00006baf 	andeq	r6, r0, pc, lsr #23
    715c:	0d040c00 	stceq	12, cr0, [r4, #-0]
    7160:	00010d04 	andeq	r0, r1, r4, lsl #26
    7164:	08010300 	stmdaeq	r1, {r8, r9}
    7168:	000000d0 	ldrdeq	r0, [r0], -r0	; <UNPREDICTABLE>
    716c:	00010d0e 	andeq	r0, r1, lr, lsl #26
    7170:	12900400 	addsne	r0, r0, #0, 8
    7174:	16050000 	strne	r0, [r5], -r0
    7178:	0000005d 	andeq	r0, r0, sp, asr r0
    717c:	0010370f 	andseq	r3, r0, pc, lsl #14
    7180:	2d051800 	stccs	8, cr1, [r5, #-0]
    7184:	00000177 	andeq	r0, r0, r7, ror r1
    7188:	00118d0b 	andseq	r8, r1, fp, lsl #26
    718c:	772f0500 	strvc	r0, [pc, -r0, lsl #10]!
    7190:	00000001 	andeq	r0, r0, r1
    7194:	006b5f10 	rsbeq	r5, fp, r0, lsl pc
    7198:	00253005 	eoreq	r3, r5, r5
    719c:	0b040000 	bleq	1071a4 <__bss_end__+0xfab5c>
    71a0:	000011c4 	andeq	r1, r0, r4, asr #3
    71a4:	00253005 	eoreq	r3, r5, r5
    71a8:	0b080000 	bleq	2071b0 <__bss_end__+0x1fab68>
    71ac:	00001012 	andeq	r1, r0, r2, lsl r0
    71b0:	00253005 	eoreq	r3, r5, r5
    71b4:	0b0c0000 	bleq	3071bc <__bss_end__+0x2fab74>
    71b8:	000012d7 	ldrdeq	r1, [r0], -r7
    71bc:	00253005 	eoreq	r3, r5, r5
    71c0:	10100000 	andsne	r0, r0, r0
    71c4:	0500785f 	streq	r7, [r0, #-2143]	; 0x85f
    71c8:	00017d31 	andeq	r7, r1, r1, lsr sp
    71cc:	0d001400 	cfstrseq	mvf1, [r0, #-0]
    71d0:	00012404 	andeq	r2, r1, r4, lsl #8
    71d4:	01190800 	tsteq	r9, r0, lsl #16
    71d8:	018d0000 	orreq	r0, sp, r0
    71dc:	c7090000 	strgt	r0, [r9, -r0]
    71e0:	00000000 	andeq	r0, r0, r0
    71e4:	10580f00 	subsne	r0, r8, r0, lsl #30
    71e8:	05240000 	streq	r0, [r4, #-0]!
    71ec:	00020635 	andeq	r0, r2, r5, lsr r6
    71f0:	0f100b00 	svceq	0x00100b00
    71f4:	37050000 	strcc	r0, [r5, -r0]
    71f8:	00000025 	andeq	r0, r0, r5, lsr #32
    71fc:	11fc0b00 	mvnsne	r0, r0, lsl #22
    7200:	38050000 	stmdacc	r5, {}	; <UNPREDICTABLE>
    7204:	00000025 	andeq	r0, r0, r5, lsr #32
    7208:	0f3e0b04 	svceq	0x003e0b04
    720c:	39050000 	stmdbcc	r5, {}	; <UNPREDICTABLE>
    7210:	00000025 	andeq	r0, r0, r5, lsr #32
    7214:	13c70b08 	bicne	r0, r7, #8, 22	; 0x2000
    7218:	3a050000 	bcc	147220 <__bss_end__+0x13abd8>
    721c:	00000025 	andeq	r0, r0, r5, lsr #32
    7220:	10fc0b0c 	rscsne	r0, ip, ip, lsl #22
    7224:	3b050000 	blcc	14722c <__bss_end__+0x13abe4>
    7228:	00000025 	andeq	r0, r0, r5, lsr #32
    722c:	10d90b10 	sbcsne	r0, r9, r0, lsl fp
    7230:	3c050000 	stccc	0, cr0, [r5], {-0}
    7234:	00000025 	andeq	r0, r0, r5, lsr #32
    7238:	12dc0b14 	sbcsne	r0, ip, #20, 22	; 0x5000
    723c:	3d050000 	stccc	0, cr0, [r5, #-0]
    7240:	00000025 	andeq	r0, r0, r5, lsr #32
    7244:	114e0b18 	cmpne	lr, r8, lsl fp
    7248:	3e050000 	cdpcc	0, 0, cr0, cr5, cr0, {0}
    724c:	00000025 	andeq	r0, r0, r5, lsr #32
    7250:	138e0b1c 	orrne	r0, lr, #28, 22	; 0x7000
    7254:	3f050000 	svccc	0x00050000
    7258:	00000025 	andeq	r0, r0, r5, lsr #32
    725c:	4d110020 	ldcmi	0, cr0, [r1, #-128]	; 0xffffff80
    7260:	0800000f 	stmdaeq	r0, {r0, r1, r2, r3}
    7264:	46480501 	strbmi	r0, [r8], -r1, lsl #10
    7268:	0b000002 	bleq	7278 <__code_start__-0xd88>
    726c:	00000ff9 	strdeq	r0, [r0], -r9
    7270:	02464905 	subeq	r4, r6, #81920	; 0x14000
    7274:	0b000000 	bleq	727c <__code_start__-0xd84>
    7278:	00000e8b 	andeq	r0, r0, fp, lsl #29
    727c:	02464a05 	subeq	r4, r6, #20480	; 0x5000
    7280:	12800000 	addne	r0, r0, #0
    7284:	00001282 	andeq	r1, r0, r2, lsl #5
    7288:	01194c05 	tsteq	r9, r5, lsl #24
    728c:	01000000 	mrseq	r0, (UNDEF: 0)
    7290:	000f7212 	andeq	r7, pc, r2, lsl r2	; <UNPREDICTABLE>
    7294:	194f0500 	stmdbne	pc, {r8, sl}^	; <UNPREDICTABLE>
    7298:	04000001 	streq	r0, [r0], #-1
    729c:	05080001 	streq	r0, [r8, #-1]
    72a0:	56000001 	strpl	r0, [r0], -r1
    72a4:	09000002 	stmdbeq	r0, {r1}
    72a8:	000000c7 	andeq	r0, r0, r7, asr #1
    72ac:	0511001f 	ldreq	r0, [r1, #-31]
    72b0:	90000011 	andls	r0, r0, r1, lsl r0
    72b4:	945b0501 	ldrbls	r0, [fp], #-1281	; 0x501
    72b8:	0b000002 	bleq	72c8 <__code_start__-0xd38>
    72bc:	0000118d 	andeq	r1, r0, sp, lsl #3
    72c0:	02945c05 	addseq	r5, r4, #1280	; 0x500
    72c4:	0b000000 	bleq	72cc <__code_start__-0xd34>
    72c8:	000011a5 	andeq	r1, r0, r5, lsr #3
    72cc:	00255d05 	eoreq	r5, r5, r5, lsl #26
    72d0:	0b040000 	bleq	1072d8 <__bss_end__+0xfac90>
    72d4:	0000100d 	andeq	r1, r0, sp
    72d8:	029a5f05 	addseq	r5, sl, #5, 30
    72dc:	0b080000 	bleq	2072e4 <__bss_end__+0x1fac9c>
    72e0:	00000f4d 	andeq	r0, r0, sp, asr #30
    72e4:	02066005 	andeq	r6, r6, #5
    72e8:	00880000 	addeq	r0, r8, r0
    72ec:	0256040d 	subseq	r0, r6, #218103808	; 0xd000000
    72f0:	aa080000 	bge	2072f8 <__bss_end__+0x1facb0>
    72f4:	aa000002 	bge	7304 <__code_start__-0xcfc>
    72f8:	09000002 	stmdbeq	r0, {r1}
    72fc:	000000c7 	andeq	r0, r0, r7, asr #1
    7300:	040d001f 	streq	r0, [sp], #-31
    7304:	000002b0 			; <UNDEFINED> instruction: 0x000002b0
    7308:	11580f13 	cmpne	r8, r3, lsl pc
    730c:	05080000 	streq	r0, [r8, #-0]
    7310:	0002d673 	andeq	sp, r2, r3, ror r6
    7314:	0f330b00 	svceq	0x00330b00
    7318:	74050000 	strvc	r0, [r5], #-0
    731c:	000002d6 	ldrdeq	r0, [r0], -r6
    7320:	0e970b00 	vfnmseq.f64	d0, d7, d0
    7324:	75050000 	strvc	r0, [r5, #-0]
    7328:	00000025 	andeq	r0, r0, r5, lsr #32
    732c:	040d0004 	streq	r0, [sp], #-4
    7330:	0000004f 	andeq	r0, r0, pc, asr #32
    7334:	0011770f 	andseq	r7, r1, pc, lsl #14
    7338:	b3056800 	movwlt	r6, #22528	; 0x5800
    733c:	00000406 	andeq	r0, r0, r6, lsl #8
    7340:	00705f10 	rsbseq	r5, r0, r0, lsl pc
    7344:	02d6b405 	sbcseq	fp, r6, #83886080	; 0x5000000
    7348:	10000000 	andne	r0, r0, r0
    734c:	0500725f 	streq	r7, [r0, #-607]	; 0x25f
    7350:	000025b5 			; <UNDEFINED> instruction: 0x000025b5
    7354:	5f100400 	svcpl	0x00100400
    7358:	b6050077 			; <UNDEFINED> instruction: 0xb6050077
    735c:	00000025 	andeq	r0, r0, r5, lsr #32
    7360:	0f6b0b08 	svceq	0x006b0b08
    7364:	b7050000 	strlt	r0, [r5, -r0]
    7368:	0000003a 	andeq	r0, r0, sl, lsr r0
    736c:	107e0b0c 	rsbsne	r0, lr, ip, lsl #22
    7370:	b8050000 	stmdalt	r5, {}	; <UNPREDICTABLE>
    7374:	0000003a 	andeq	r0, r0, sl, lsr r0
    7378:	625f100e 	subsvs	r1, pc, #14
    737c:	b9050066 	stmdblt	r5, {r1, r2, r5, r6}
    7380:	000002b1 			; <UNDEFINED> instruction: 0x000002b1
    7384:	0eda0b10 	vmoveq.u8	r0, d10[0]
    7388:	ba050000 	blt	147390 <__bss_end__+0x13ad48>
    738c:	00000025 	andeq	r0, r0, r5, lsr #32
    7390:	0f5b0b18 	svceq	0x005b0b18
    7394:	c1050000 	mrsgt	r0, (UNDEF: 5)
    7398:	00000105 	andeq	r0, r0, r5, lsl #2
    739c:	13ee0b1c 	mvnne	r0, #28, 22	; 0x7000
    73a0:	c3050000 	movwgt	r0, #20480	; 0x5000
    73a4:	00000561 	andeq	r0, r0, r1, ror #10
    73a8:	14080b20 	strne	r0, [r8], #-2848	; 0xb20
    73ac:	c5050000 	strgt	r0, [r5, #-0]
    73b0:	0000058b 	andeq	r0, r0, fp, lsl #11
    73b4:	11e90b24 	mvnne	r0, r4, lsr #22
    73b8:	c8050000 	stmdagt	r5, {}	; <UNPREDICTABLE>
    73bc:	000005af 	andeq	r0, r0, pc, lsr #11
    73c0:	13a80b28 			; <UNDEFINED> instruction: 0x13a80b28
    73c4:	c9050000 	stmdbgt	r5, {}	; <UNPREDICTABLE>
    73c8:	000005c9 	andeq	r0, r0, r9, asr #11
    73cc:	755f102c 	ldrbvc	r1, [pc, #-44]	; 73a8 <__code_start__-0xc58>
    73d0:	cc050062 	stcgt	0, cr0, [r5], {98}	; 0x62
    73d4:	000002b1 			; <UNDEFINED> instruction: 0x000002b1
    73d8:	755f1030 	ldrbvc	r1, [pc, #-48]	; 73b0 <__code_start__-0xc50>
    73dc:	cd050070 	stcgt	0, cr0, [r5, #-448]	; 0xfffffe40
    73e0:	000002d6 	ldrdeq	r0, [r0], -r6
    73e4:	755f1038 	ldrbvc	r1, [pc, #-56]	; 73b4 <__code_start__-0xc4c>
    73e8:	ce050072 	mcrgt	0, 0, r0, cr5, cr2, {3}
    73ec:	00000025 	andeq	r0, r0, r5, lsr #32
    73f0:	0f1e0b3c 	svceq	0x001e0b3c
    73f4:	d1050000 	mrsle	r0, (UNDEF: 5)
    73f8:	000005cf 	andeq	r0, r0, pc, asr #11
    73fc:	13530b40 	cmpne	r3, #64, 22	; 0x10000
    7400:	d2050000 	andle	r0, r5, #0
    7404:	000005df 	ldrdeq	r0, [r0], -pc	; <UNPREDICTABLE>
    7408:	6c5f1043 	mrrcvs	0, 4, r1, pc, cr3	; <UNPREDICTABLE>
    740c:	d5050062 	strle	r0, [r5, #-98]	; 0x62
    7410:	000002b1 			; <UNDEFINED> instruction: 0x000002b1
    7414:	0f810b44 	svceq	0x00810b44
    7418:	d8050000 	stmdale	r5, {}	; <UNPREDICTABLE>
    741c:	00000025 	andeq	r0, r0, r5, lsr #32
    7420:	07110b4c 	ldreq	r0, [r1, -ip, asr #22]
    7424:	d9050000 	stmdble	r5, {}	; <UNPREDICTABLE>
    7428:	00000076 	andeq	r0, r0, r6, ror r0
    742c:	133e0b50 	teqne	lr, #80, 22	; 0x14000
    7430:	dc050000 	stcle	0, cr0, [r5], {-0}
    7434:	00000424 	andeq	r0, r0, r4, lsr #8
    7438:	067a0b54 			; <UNDEFINED> instruction: 0x067a0b54
    743c:	e0050000 	and	r0, r5, r0
    7440:	000000fa 	strdeq	r0, [r0], -sl
    7444:	117f0b58 	cmnne	pc, r8, asr fp	; <UNPREDICTABLE>
    7448:	e2050000 	and	r0, r5, #0
    744c:	000000ef 	andeq	r0, r0, pc, ror #1
    7450:	10d10b5c 	sbcsne	r0, r1, ip, asr fp
    7454:	e3050000 	movw	r0, #20480	; 0x5000
    7458:	00000025 	andeq	r0, r0, r5, lsr #32
    745c:	25140064 	ldrcs	r0, [r4, #-100]	; 0x64
    7460:	24000000 	strcs	r0, [r0], #-0
    7464:	15000004 	strne	r0, [r0, #-4]
    7468:	00000424 	andeq	r0, r0, r4, lsr #8
    746c:	00010515 	andeq	r0, r1, r5, lsl r5
    7470:	01071500 	tsteq	r7, r0, lsl #10
    7474:	25150000 	ldrcs	r0, [r5, #-0]
    7478:	00000000 	andeq	r0, r0, r0
    747c:	042f040d 	strteq	r0, [pc], #-1037	; 7484 <__code_start__-0xb7c>
    7480:	240e0000 	strcs	r0, [lr], #-0
    7484:	16000004 	strne	r0, [r0], -r4
    7488:	000011cc 	andeq	r1, r0, ip, asr #3
    748c:	38050428 	stmdacc	r5, {r3, r5, sl}
    7490:	00056102 	andeq	r6, r5, r2, lsl #2
    7494:	11471700 	cmpne	r7, r0, lsl #14
    7498:	3a050000 	bcc	1474a0 <__bss_end__+0x13ae58>
    749c:	00002502 	andeq	r2, r0, r2, lsl #10
    74a0:	7a170000 	bvc	5c74a8 <__bss_end__+0x5bae60>
    74a4:	0500000f 	streq	r0, [r0, #-15]
    74a8:	0636023f 			; <UNDEFINED> instruction: 0x0636023f
    74ac:	17040000 	strne	r0, [r4, -r0]
    74b0:	0000106e 	andeq	r1, r0, lr, rrx
    74b4:	36023f05 	strcc	r3, [r2], -r5, lsl #30
    74b8:	08000006 	stmdaeq	r0, {r1, r2}
    74bc:	00102f17 	andseq	r2, r0, r7, lsl pc
    74c0:	023f0500 	eorseq	r0, pc, #0, 10
    74c4:	00000636 	andeq	r0, r0, r6, lsr r6
    74c8:	11a0170c 	lslne	r1, ip, #14
    74cc:	41050000 	mrsmi	r0, (UNDEF: 5)
    74d0:	00002502 	andeq	r2, r0, r2, lsl #10
    74d4:	a5171000 	ldrge	r1, [r7, #-0]
    74d8:	0500000e 	streq	r0, [r0, #-14]
    74dc:	08180242 	ldmdaeq	r8, {r1, r6, r9}
    74e0:	17140000 	ldrne	r0, [r4, -r0]
    74e4:	000012b8 			; <UNDEFINED> instruction: 0x000012b8
    74e8:	25024405 	strcs	r4, [r2, #-1029]	; 0x405
    74ec:	30000000 	andcc	r0, r0, r0
    74f0:	0011aa17 	andseq	sl, r1, r7, lsl sl
    74f4:	02450500 	subeq	r0, r5, #0, 10
    74f8:	00000585 	andeq	r0, r0, r5, lsl #11
    74fc:	110d1734 	tstne	sp, r4, lsr r7
    7500:	47050000 	strmi	r0, [r5, -r0]
    7504:	00002502 	andeq	r2, r0, r2, lsl #10
    7508:	ba173800 	blt	5d5510 <__bss_end__+0x5c8ec8>
    750c:	05000011 	streq	r0, [r0, #-17]
    7510:	08330249 	ldmdaeq	r3!, {r0, r3, r6, r9}
    7514:	173c0000 	ldrne	r0, [ip, -r0]!
    7518:	000010ad 	andeq	r1, r0, sp, lsr #1
    751c:	77024c05 	strvc	r4, [r2, -r5, lsl #24]
    7520:	40000001 	andmi	r0, r0, r1
    7524:	00104e17 	andseq	r4, r0, r7, lsl lr
    7528:	024d0500 	subeq	r0, sp, #0, 10
    752c:	00000025 	andeq	r0, r0, r5, lsr #32
    7530:	13c21744 	bicne	r1, r2, #68, 14	; 0x1100000
    7534:	4e050000 	cdpmi	0, 0, cr0, cr5, cr0, {0}
    7538:	00017702 	andeq	r7, r1, r2, lsl #14
    753c:	24174800 	ldrcs	r4, [r7], #-2048	; 0x800
    7540:	05000011 	streq	r0, [r0, #-17]
    7544:	0839024f 	ldmdaeq	r9!, {r0, r1, r2, r3, r6, r9}
    7548:	174c0000 	strbne	r0, [ip, -r0]
    754c:	00001076 	andeq	r1, r0, r6, ror r0
    7550:	25025205 	strcs	r5, [r2, #-517]	; 0x205
    7554:	50000000 	andpl	r0, r0, r0
    7558:	000f9d17 	andeq	r9, pc, r7, lsl sp	; <UNPREDICTABLE>
    755c:	02530500 	subseq	r0, r3, #0, 10
    7560:	00000107 	andeq	r0, r0, r7, lsl #2
    7564:	11401754 	cmpne	r0, r4, asr r7
    7568:	76050000 	strvc	r0, [r5], -r0
    756c:	0007f602 	andeq	pc, r7, r2, lsl #12
    7570:	05185800 	ldreq	r5, [r8, #-2048]	; 0x800
    7574:	05000011 	streq	r0, [r0, #-17]
    7578:	0294027a 	addseq	r0, r4, #-1610612729	; 0xa0000007
    757c:	01480000 	mrseq	r0, (UNDEF: 72)
    7580:	00108b18 	andseq	r8, r0, r8, lsl fp
    7584:	027b0500 	rsbseq	r0, fp, #0, 10
    7588:	00000256 	andeq	r0, r0, r6, asr r2
    758c:	2418014c 	ldrcs	r0, [r8], #-332	; 0x14c
    7590:	05000013 	streq	r0, [r0, #-19]
    7594:	084a027f 	stmdaeq	sl, {r0, r1, r2, r3, r4, r5, r6, r9}^
    7598:	02dc0000 	sbcseq	r0, ip, #0
    759c:	000f6318 	andeq	r6, pc, r8, lsl r3	; <UNPREDICTABLE>
    75a0:	02840500 	addeq	r0, r4, #0, 10
    75a4:	000005fb 	strdeq	r0, [r0], -fp
    75a8:	481802e0 	ldmdami	r8, {r5, r6, r7, r9}
    75ac:	0500000f 	streq	r0, [r0, #-15]
    75b0:	08560285 	ldmdaeq	r6, {r0, r2, r7, r9}^
    75b4:	02ec0000 	rsceq	r0, ip, #0
    75b8:	06040d00 	streq	r0, [r4], -r0, lsl #26
    75bc:	14000004 	strne	r0, [r0], #-4
    75c0:	00000025 	andeq	r0, r0, r5, lsr #32
    75c4:	00000585 	andeq	r0, r0, r5, lsl #11
    75c8:	00042415 	andeq	r2, r4, r5, lsl r4
    75cc:	01051500 	tsteq	r5, r0, lsl #10
    75d0:	85150000 	ldrhi	r0, [r5, #-0]
    75d4:	15000005 	strne	r0, [r0, #-5]
    75d8:	00000025 	andeq	r0, r0, r5, lsr #32
    75dc:	14040d00 	strne	r0, [r4], #-3328	; 0xd00
    75e0:	0d000001 	stceq	0, cr0, [r0, #-4]
    75e4:	00056704 	andeq	r6, r5, r4, lsl #14
    75e8:	00811400 	addeq	r1, r1, r0, lsl #8
    75ec:	05af0000 	streq	r0, [pc, #0]!	; 75f4 <__code_start__-0xa0c>
    75f0:	24150000 	ldrcs	r0, [r5], #-0
    75f4:	15000004 	strne	r0, [r0, #-4]
    75f8:	00000105 	andeq	r0, r0, r5, lsl #2
    75fc:	00008115 	andeq	r8, r0, r5, lsl r1
    7600:	00251500 	eoreq	r1, r5, r0, lsl #10
    7604:	0d000000 	stceq	0, cr0, [r0, #-0]
    7608:	00059104 	andeq	r9, r5, r4, lsl #2
    760c:	00251400 	eoreq	r1, r5, r0, lsl #8
    7610:	05c90000 	strbeq	r0, [r9]
    7614:	24150000 	ldrcs	r0, [r5], #-0
    7618:	15000004 	strne	r0, [r0, #-4]
    761c:	00000105 	andeq	r0, r0, r5, lsl #2
    7620:	b5040d00 	strlt	r0, [r4, #-3328]	; 0xd00
    7624:	08000005 	stmdaeq	r0, {r0, r2}
    7628:	0000004f 	andeq	r0, r0, pc, asr #32
    762c:	000005df 	ldrdeq	r0, [r0], -pc	; <UNPREDICTABLE>
    7630:	0000c709 	andeq	ip, r0, r9, lsl #14
    7634:	08000200 	stmdaeq	r0, {r9}
    7638:	0000004f 	andeq	r0, r0, pc, asr #32
    763c:	000005ef 	andeq	r0, r0, pc, ror #11
    7640:	0000c709 	andeq	ip, r0, r9, lsl #14
    7644:	05000000 	streq	r0, [r0, #-0]
    7648:	00001165 	andeq	r1, r0, r5, ror #2
    764c:	dc011d05 	stcle	13, cr1, [r1], {5}
    7650:	19000002 	stmdbne	r0, {r1}
    7654:	000012e6 	andeq	r1, r0, r6, ror #5
    7658:	0121050c 	teqeq	r1, ip, lsl #10
    765c:	00000630 	andeq	r0, r0, r0, lsr r6
    7660:	00118d17 	andseq	r8, r1, r7, lsl sp
    7664:	01230500 	teqeq	r3, r0, lsl #10
    7668:	00000630 	andeq	r0, r0, r0, lsr r6
    766c:	10841700 	addne	r1, r4, r0, lsl #14
    7670:	24050000 	strcs	r0, [r5], #-0
    7674:	00002501 	andeq	r2, r0, r1, lsl #10
    7678:	5f170400 	svcpl	0x00170400
    767c:	05000011 	streq	r0, [r0, #-17]
    7680:	06360125 	ldrteq	r0, [r6], -r5, lsr #2
    7684:	00080000 	andeq	r0, r8, r0
    7688:	05fb040d 	ldrbeq	r0, [fp, #1037]!	; 0x40d
    768c:	040d0000 	streq	r0, [sp], #-0
    7690:	000005ef 	andeq	r0, r0, pc, ror #11
    7694:	000e9d19 	andeq	r9, lr, r9, lsl sp
    7698:	3d050e00 	stccc	14, cr0, [r5, #-0]
    769c:	00067101 	andeq	r7, r6, r1, lsl #2
    76a0:	11d31700 	bicsne	r1, r3, r0, lsl #14
    76a4:	3e050000 	cdpcc	0, 0, cr0, cr5, cr0, {0}
    76a8:	00067101 	andeq	r7, r6, r1, lsl #2
    76ac:	0d170000 	ldceq	0, cr0, [r7, #-0]
    76b0:	05000012 	streq	r0, [r0, #-18]
    76b4:	0671013f 			; <UNDEFINED> instruction: 0x0671013f
    76b8:	17060000 	strne	r0, [r6, -r0]
    76bc:	0000128b 	andeq	r1, r0, fp, lsl #5
    76c0:	56014005 	strpl	r4, [r1], -r5
    76c4:	0c000000 	stceq	0, cr0, [r0], {-0}
    76c8:	00560800 	subseq	r0, r6, r0, lsl #16
    76cc:	06810000 	streq	r0, [r1], r0
    76d0:	c7090000 	strgt	r0, [r9, -r0]
    76d4:	02000000 	andeq	r0, r0, #0
    76d8:	05d01a00 	ldrbeq	r1, [r0, #2560]	; 0xa00
    76dc:	07820257 			; <UNDEFINED> instruction: 0x07820257
    76e0:	ca170000 	bgt	5c76e8 <__bss_end__+0x5bb0a0>
    76e4:	05000012 	streq	r0, [r0, #-18]
    76e8:	002c0259 	eoreq	r0, ip, r9, asr r2
    76ec:	17000000 	strne	r0, [r0, -r0]
    76f0:	00001275 	andeq	r1, r0, r5, ror r2
    76f4:	07025a05 	streq	r5, [r2, -r5, lsl #20]
    76f8:	04000001 	streq	r0, [r0], #-1
    76fc:	0010a017 	andseq	sl, r0, r7, lsl r0
    7700:	025b0500 	subseq	r0, fp, #0, 10
    7704:	00000782 	andeq	r0, r0, r2, lsl #15
    7708:	13991708 	orrsne	r1, r9, #8, 14	; 0x200000
    770c:	5c050000 	stcpl	0, cr0, [r5], {-0}
    7710:	00018d02 	andeq	r8, r1, r2, lsl #26
    7714:	3f172400 	svccc	0x00172400
    7718:	05000010 	streq	r0, [r0, #-16]
    771c:	0025025d 	eoreq	r0, r5, sp, asr r2
    7720:	17480000 	strbne	r0, [r8, -r0]
    7724:	00001188 	andeq	r1, r0, r8, lsl #3
    7728:	64025e05 	strvs	r5, [r2], #-3589	; 0xe05
    772c:	50000000 	andpl	r0, r0, r0
    7730:	0013af17 	andseq	sl, r3, r7, lsl pc
    7734:	025f0500 	subseq	r0, pc, #0, 10
    7738:	0000063c 	andeq	r0, r0, ip, lsr r6
    773c:	11931758 	orrsne	r1, r3, r8, asr r7
    7740:	60050000 	andvs	r0, r5, r0
    7744:	0000ef02 	andeq	lr, r0, r2, lsl #30
    7748:	b4176800 	ldrlt	r6, [r7], #-2048	; 0x800
    774c:	05000013 	streq	r0, [r0, #-19]
    7750:	00ef0261 	rsceq	r0, pc, r1, ror #4
    7754:	17700000 	ldrbne	r0, [r0, -r0]!
    7758:	00000f02 	andeq	r0, r0, r2, lsl #30
    775c:	ef026205 	svc	0x00026205
    7760:	78000000 	stmdavc	r0, {}	; <UNPREDICTABLE>
    7764:	00130617 	andseq	r0, r3, r7, lsl r6
    7768:	02630500 	rsbeq	r0, r3, #0, 10
    776c:	00000792 	muleq	r0, r2, r7
    7770:	10941780 	addsne	r1, r4, r0, lsl #15
    7774:	64050000 	strvs	r0, [r5], #-0
    7778:	0007a202 	andeq	sl, r7, r2, lsl #4
    777c:	98178800 	ldmdals	r7, {fp, pc}
    7780:	05000012 	streq	r0, [r0, #-18]
    7784:	00250265 	eoreq	r0, r5, r5, ror #4
    7788:	17a00000 	strne	r0, [r0, r0]!
    778c:	00000feb 	andeq	r0, r0, fp, ror #31
    7790:	ef026605 	svc	0x00026605
    7794:	a4000000 	strge	r0, [r0], #-0
    7798:	000ef317 	andeq	pc, lr, r7, lsl r3	; <UNPREDICTABLE>
    779c:	02670500 	rsbeq	r0, r7, #0, 10
    77a0:	000000ef 	andeq	r0, r0, pc, ror #1
    77a4:	0fda17ac 	svceq	0x00da17ac
    77a8:	68050000 	stmdavs	r5, {}	; <UNPREDICTABLE>
    77ac:	0000ef02 	andeq	lr, r0, r2, lsl #30
    77b0:	ba17b400 	blt	5f47b8 <__bss_end__+0x5e8170>
    77b4:	0500000e 	streq	r0, [r0, #-14]
    77b8:	00ef0269 	rsceq	r0, pc, r9, ror #4
    77bc:	17bc0000 	ldrne	r0, [ip, r0]!
    77c0:	00000ec9 	andeq	r0, r0, r9, asr #29
    77c4:	ef026a05 	svc	0x00026a05
    77c8:	c4000000 	strgt	r0, [r0], #-0
    77cc:	00114517 	andseq	r4, r1, r7, lsl r5
    77d0:	026b0500 	rsbeq	r0, fp, #0, 10
    77d4:	00000025 	andeq	r0, r0, r5, lsr #32
    77d8:	0d0800cc 	stceq	0, cr0, [r8, #-816]	; 0xfffffcd0
    77dc:	92000001 	andls	r0, r0, #1
    77e0:	09000007 	stmdbeq	r0, {r0, r1, r2}
    77e4:	000000c7 	andeq	r0, r0, r7, asr #1
    77e8:	0d080019 	stceq	0, cr0, [r8, #-100]	; 0xffffff9c
    77ec:	a2000001 	andge	r0, r0, #1
    77f0:	09000007 	stmdbeq	r0, {r0, r1, r2}
    77f4:	000000c7 	andeq	r0, r0, r7, asr #1
    77f8:	0d080007 	stceq	0, cr0, [r8, #-28]	; 0xffffffe4
    77fc:	b2000001 	andlt	r0, r0, #1
    7800:	09000007 	stmdbeq	r0, {r0, r1, r2}
    7804:	000000c7 	andeq	r0, r0, r7, asr #1
    7808:	f01a0017 			; <UNDEFINED> instruction: 0xf01a0017
    780c:	d6027005 	strle	r7, [r2], -r5
    7810:	17000007 	strne	r0, [r0, -r7]
    7814:	000010f5 	strdeq	r1, [r0], -r5
    7818:	d6027305 	strle	r7, [r2], -r5, lsl #6
    781c:	00000007 	andeq	r0, r0, r7
    7820:	0012fd17 	andseq	pc, r2, r7, lsl sp	; <UNPREDICTABLE>
    7824:	02740500 	rsbseq	r0, r4, #0, 10
    7828:	000007e6 	andeq	r0, r0, r6, ror #15
    782c:	d6080078 			; <UNDEFINED> instruction: 0xd6080078
    7830:	e6000002 	str	r0, [r0], -r2
    7834:	09000007 	stmdbeq	r0, {r0, r1, r2}
    7838:	000000c7 	andeq	r0, r0, r7, asr #1
    783c:	2c08001d 	stccs	0, cr0, [r8], {29}
    7840:	f6000000 			; <UNDEFINED> instruction: 0xf6000000
    7844:	09000007 	stmdbeq	r0, {r0, r1, r2}
    7848:	000000c7 	andeq	r0, r0, r7, asr #1
    784c:	f01b001d 			; <UNDEFINED> instruction: 0xf01b001d
    7850:	18025505 	stmdane	r2, {r0, r2, r8, sl, ip, lr}
    7854:	1c000008 	stcne	0, cr0, [r0], {8}
    7858:	000011cc 	andeq	r1, r0, ip, asr #3
    785c:	81026c05 	tsthi	r2, r5, lsl #24
    7860:	1c000006 	stcne	0, cr0, [r0], {6}
    7864:	00001359 	andeq	r1, r0, r9, asr r3
    7868:	b2027505 	andlt	r7, r2, #20971520	; 0x1400000
    786c:	00000007 	andeq	r0, r0, r7
    7870:	00010d08 	andeq	r0, r1, r8, lsl #26
    7874:	00082800 	andeq	r2, r8, r0, lsl #16
    7878:	00c70900 	sbceq	r0, r7, r0, lsl #18
    787c:	00180000 	andseq	r0, r8, r0
    7880:	0008331d 	andeq	r3, r8, sp, lsl r3
    7884:	04241500 	strteq	r1, [r4], #-1280	; 0x500
    7888:	0d000000 	stceq	0, cr0, [r0, #-0]
    788c:	00082804 	andeq	r2, r8, r4, lsl #16
    7890:	77040d00 	strvc	r0, [r4, -r0, lsl #26]
    7894:	1d000001 	stcne	0, cr0, [r0, #-4]
    7898:	0000084a 	andeq	r0, r0, sl, asr #16
    789c:	00002515 	andeq	r2, r0, r5, lsl r5
    78a0:	040d0000 	streq	r0, [sp], #-0
    78a4:	00000850 	andeq	r0, r0, r0, asr r8
    78a8:	083f040d 	ldmdaeq	pc!, {r0, r2, r3, sl}	; <UNPREDICTABLE>
    78ac:	ef080000 	svc	0x00080000
    78b0:	66000005 	strvs	r0, [r0], -r5
    78b4:	09000008 	stmdbeq	r0, {r3}
    78b8:	000000c7 	andeq	r0, r0, r7, asr #1
    78bc:	ac1e0002 	ldcge	0, cr0, [lr], {2}
    78c0:	05000012 	streq	r0, [r0, #-18]
    78c4:	042402fd 	strteq	r0, [r4], #-765	; 0x2fd
    78c8:	a51e0000 	ldrge	r0, [lr, #-0]
    78cc:	05000012 	streq	r0, [r0, #-18]
    78d0:	042a02fe 	strteq	r0, [sl], #-766	; 0x2fe
    78d4:	25140000 	ldrcs	r0, [r4, #-0]
    78d8:	8d000000 	stchi	0, cr0, [r0, #-0]
    78dc:	15000008 	strne	r0, [r0, #-8]
    78e0:	00000025 	andeq	r0, r0, r5, lsr #32
    78e4:	0a9a1f00 	beq	fe68f4ec <__bss_end__+0xfe682ea4>
    78e8:	1d060000 	stcne	0, cr0, [r6, #-0]
    78ec:	00000898 	muleq	r0, r8, r8
    78f0:	087e040d 	ldmdaeq	lr!, {r0, r2, r3, sl}^
    78f4:	25140000 	ldrcs	r0, [r4, #-0]
    78f8:	ad000000 	stcge	0, cr0, [r0, #-0]
    78fc:	15000008 	strne	r0, [r0, #-8]
    7900:	00000585 	andeq	r0, r0, r5, lsl #11
    7904:	0ad71f00 	beq	ff5cf50c <__bss_end__+0xff5c2ec4>
    7908:	22060000 	andcs	r0, r6, #0
    790c:	000008b8 			; <UNDEFINED> instruction: 0x000008b8
    7910:	089e040d 	ldmeq	lr, {r0, r2, r3, sl}
    7914:	08030000 	stmdaeq	r3, {}	; <UNPREDICTABLE>
    7918:	00146b04 	andseq	r6, r4, r4, lsl #22
    791c:	14b61f00 	ldrtne	r1, [r6], #3840	; 0xf00
    7920:	0d010000 	stceq	0, cr0, [r1, #-0]
    7924:	0000010d 	andeq	r0, r0, sp, lsl #2
    7928:	0014d820 	andseq	sp, r4, r0, lsr #16
    792c:	070e0100 	streq	r0, [lr, -r0, lsl #2]
    7930:	05000001 	streq	r0, [r0, #-1]
    7934:	00afb003 	adceq	fp, pc, r3
    7938:	14cd2000 	strbne	r2, [sp], #0
    793c:	0f010000 	svceq	0x00010000
    7940:	00000107 	andeq	r0, r0, r7, lsl #2
    7944:	afb40305 	svcge	0x00b40305
    7948:	99210000 	stmdbls	r1!, {}	; <UNPREDICTABLE>
    794c:	01000014 	tsteq	r0, r4, lsl r0
    7950:	00af9438 	adceq	r9, pc, r8, lsr r4	; <UNPREDICTABLE>
    7954:	00001000 	andeq	r1, r0, r0
    7958:	139c0100 	orrsne	r0, ip, #0, 2
    795c:	22000009 	andcs	r0, r0, #9
    7960:	38010070 	stmdacc	r1, {r4, r5, r6}
    7964:	00000105 	andeq	r0, r0, r5, lsl #2
    7968:	23005001 	movwcs	r5, #1
    796c:	00001472 	andeq	r1, r0, r2, ror r4
    7970:	af803701 	svcge	0x00803701
    7974:	00140000 	andseq	r0, r4, r0
    7978:	9c010000 	stcls	0, cr0, [r1], {-0}
    797c:	00149321 	andseq	r9, r4, r1, lsr #6
    7980:	7c360100 	ldfvcs	f0, [r6], #-0
    7984:	040000af 	streq	r0, [r0], #-175	; 0xaf
    7988:	01000000 	mrseq	r0, (UNDEF: 0)
    798c:	0009459c 	muleq	r9, ip, r5
    7990:	00702200 	rsbseq	r2, r0, r0, lsl #4
    7994:	01053601 	tsteq	r5, r1, lsl #12
    7998:	50010000 	andpl	r0, r1, r0
    799c:	02632400 	rsbeq	r2, r3, #0, 8
    79a0:	29010000 	stmdbcs	r1, {}	; <UNPREDICTABLE>
    79a4:	00000105 	andeq	r0, r0, r5, lsl #2
    79a8:	0000aef0 	strdeq	sl, [r0], -r0
    79ac:	0000008c 	andeq	r0, r0, ip, lsl #1
    79b0:	0a309c01 	beq	c2e9bc <__bss_end__+0xc22374>
    79b4:	af250000 	svcge	0x00250000
    79b8:	01000003 	tsteq	r0, r3
    79bc:	00002c29 	andeq	r2, r0, r9, lsr #24
    79c0:	00215600 	eoreq	r5, r1, r0, lsl #12
    79c4:	02342500 	eorseq	r2, r4, #0, 10
    79c8:	29010000 	stmdbcs	r1, {}	; <UNPREDICTABLE>
    79cc:	0000002c 	andeq	r0, r0, ip, lsr #32
    79d0:	000021a9 	andeq	r2, r0, r9, lsr #3
    79d4:	00001c26 	andeq	r1, r0, r6, lsr #24
    79d8:	000a4000 	andeq	r4, sl, r0
    79dc:	30030500 	andcc	r0, r3, r0, lsl #10
    79e0:	270000c1 	strcs	r0, [r0, -r1, asr #1]
    79e4:	2e010068 	cdpcs	0, 0, cr0, cr1, cr8, {3}
    79e8:	0000002c 	andeq	r0, r0, ip, lsr #32
    79ec:	000021f0 	strdeq	r2, [r0], -r0
    79f0:	00af2c28 	adceq	r2, pc, r8, lsr #24
    79f4:	000a7900 	andeq	r7, sl, r0, lsl #18
    79f8:	0009ad00 	andeq	sl, r9, r0, lsl #26
    79fc:	50012900 	andpl	r2, r1, r0, lsl #18
    7a00:	5001f303 	andpl	pc, r1, r3, lsl #6
    7a04:	af342a00 	svcge	0x00342a00
    7a08:	0bfb0000 	bleq	ffec7a10 <__bss_end__+0xffebb3c8>
    7a0c:	48280000 	stmdami	r8!, {}	; <UNPREDICTABLE>
    7a10:	060000af 	streq	r0, [r0], -pc, lsr #1
    7a14:	e500000c 	str	r0, [r0, #-12]
    7a18:	29000009 	stmdbcs	r0, {r0, r3}
    7a1c:	03055001 	movweq	r5, #20481	; 0x5001
    7a20:	0000c17c 	andeq	ip, r0, ip, ror r1
    7a24:	05510129 	ldrbeq	r0, [r1, #-297]	; 0x129
    7a28:	00c14003 	sbceq	r4, r1, r3
    7a2c:	52012900 	andpl	r2, r1, #0, 18
    7a30:	c1300305 	teqgt	r0, r5, lsl #6
    7a34:	01290000 	teqeq	r9, r0
    7a38:	2a080253 	bcs	20838c <__bss_end__+0x1fbd44>
    7a3c:	af4c2a00 	svcge	0x004c2a00
    7a40:	0c110000 	ldceq	0, cr0, [r1], {-0}
    7a44:	502a0000 	eorpl	r0, sl, r0
    7a48:	fb0000af 	blx	7d0e <__code_start__-0x2f2>
    7a4c:	2800000b 	stmdacs	r0, {r0, r1, r3}
    7a50:	0000af64 	andeq	sl, r0, r4, ror #30
    7a54:	00000c06 	andeq	r0, r0, r6, lsl #24
    7a58:	00000a26 	andeq	r0, r0, r6, lsr #20
    7a5c:	05500129 	ldrbeq	r0, [r0, #-297]	; 0x129
    7a60:	00c1dc03 	sbceq	sp, r1, r3, lsl #24
    7a64:	51012900 	tstpl	r1, r0, lsl #18
    7a68:	c1400305 	cmpgt	r0, r5, lsl #6
    7a6c:	01290000 	teqeq	r9, r0
    7a70:	30030552 	andcc	r0, r3, r2, asr r5
    7a74:	290000c1 	stmdbcs	r0, {r0, r6, r7}
    7a78:	08025301 	stmdaeq	r2, {r0, r8, r9, ip, lr}
    7a7c:	682a0030 	stmdavs	sl!, {r4, r5}
    7a80:	110000af 	smlatbne	r0, pc, r0, r0	; <UNPREDICTABLE>
    7a84:	0000000c 	andeq	r0, r0, ip
    7a88:	00011408 	andeq	r1, r1, r8, lsl #8
    7a8c:	000a4000 	andeq	r4, sl, r0
    7a90:	00c70900 	sbceq	r0, r7, r0, lsl #18
    7a94:	000f0000 	andeq	r0, pc, r0
    7a98:	000a300e 	andeq	r3, sl, lr
    7a9c:	14a52400 	strtne	r2, [r5], #1024	; 0x400
    7aa0:	25010000 	strcs	r0, [r1, #-0]
    7aa4:	00000105 	andeq	r0, r0, r5, lsl #2
    7aa8:	0000aee4 	andeq	sl, r0, r4, ror #29
    7aac:	0000000c 	andeq	r0, r0, ip
    7ab0:	0a689c01 	beq	1a2eabc <__bss_end__+0x1a22474>
    7ab4:	ec2a0000 	stc	0, cr0, [sl], #-0
    7ab8:	d10000ae 	smlatble	r0, lr, r0, r0
    7abc:	0000000b 	andeq	r0, r0, fp
    7ac0:	00145e23 	andseq	r5, r4, r3, lsr #28
    7ac4:	e0240100 	eor	r0, r4, r0, lsl #2
    7ac8:	040000ae 	streq	r0, [r0], #-174	; 0xae
    7acc:	01000000 	mrseq	r0, (UNDEF: 0)
    7ad0:	14ee249c 	strbtne	r2, [lr], #1180	; 0x49c
    7ad4:	1a010000 	bne	47adc <__bss_end__+0x3b494>
    7ad8:	00000105 	andeq	r0, r0, r5, lsl #2
    7adc:	0000ae7c 	andeq	sl, r0, ip, ror lr
    7ae0:	00000064 	andeq	r0, r0, r4, rrx
    7ae4:	0b249c01 	bleq	92eaf0 <__bss_end__+0x9224a8>
    7ae8:	732b0000 	teqvc	fp, #0
    7aec:	1a01007a 	bne	47cdc <__bss_end__+0x3b694>
    7af0:	0000002c 	andeq	r0, r0, ip, lsr #32
    7af4:	00002228 	andeq	r2, r0, r8, lsr #4
    7af8:	00001c26 	andeq	r1, r0, r6, lsr #24
    7afc:	000b3400 	andeq	r3, fp, r0, lsl #8
    7b00:	28030500 	stmdacs	r3, {r8, sl}
    7b04:	2c0000c1 	stccs	0, cr0, [r0], {193}	; 0xc1
    7b08:	0000027c 	andeq	r0, r0, ip, ror r2
    7b0c:	01051e01 	tsteq	r5, r1, lsl #28
    7b10:	22720000 	rsbscs	r0, r2, #0
    7b14:	ac280000 	stcge	0, cr0, [r8], #-0
    7b18:	1c0000ae 	stcne	0, cr0, [r0], {174}	; 0xae
    7b1c:	e300000c 	movw	r0, #12
    7b20:	2900000a 	stmdbcs	r0, {r1, r3}
    7b24:	74025001 	strvc	r5, [r2], #-1
    7b28:	51012900 	tstpl	r1, r0, lsl #18
    7b2c:	01293001 	teqeq	r9, r1
    7b30:	01f30852 	mvnseq	r0, r2, asr r8
    7b34:	09072350 	stmdbeq	r7, {r4, r6, r8, r9, sp}
    7b38:	2a001af8 	bcs	e720 <__bss_end__+0x20d8>
    7b3c:	0000aeb8 			; <UNDEFINED> instruction: 0x0000aeb8
    7b40:	00000bfb 	strdeq	r0, [r0], -fp
    7b44:	00aecc28 	adceq	ip, lr, r8, lsr #24
    7b48:	000c0600 	andeq	r0, ip, r0, lsl #12
    7b4c:	000b1a00 	andeq	r1, fp, r0, lsl #20
    7b50:	50012900 	andpl	r2, r1, r0, lsl #18
    7b54:	c1680305 	cmngt	r8, r5, lsl #6
    7b58:	01290000 	teqeq	r9, r0
    7b5c:	40030551 	andmi	r0, r3, r1, asr r5
    7b60:	290000c1 	stmdbcs	r0, {r0, r6, r7}
    7b64:	03055201 	movweq	r5, #20993	; 0x5201
    7b68:	0000c128 	andeq	ip, r0, r8, lsr #2
    7b6c:	01530129 	cmpeq	r3, r9, lsr #2
    7b70:	d02a004b 	eorle	r0, sl, fp, asr #32
    7b74:	110000ae 	smlatbne	r0, lr, r0, r0
    7b78:	0000000c 	andeq	r0, r0, ip
    7b7c:	00011408 	andeq	r1, r1, r8, lsl #8
    7b80:	000b3400 	andeq	r3, fp, r0, lsl #8
    7b84:	00c70900 	sbceq	r0, r7, r0, lsl #18
    7b88:	00070000 	andeq	r0, r7, r0
    7b8c:	000b240e 	andeq	r2, fp, lr, lsl #8
    7b90:	147c2100 	ldrbtne	r2, [ip], #-256	; 0x100
    7b94:	14010000 	strne	r0, [r1], #-0
    7b98:	0000ae2c 	andeq	sl, r0, ip, lsr #28
    7b9c:	00000050 	andeq	r0, r0, r0, asr r0
    7ba0:	0bbc9c01 	bleq	fef2ebac <__bss_end__+0xfef22564>
    7ba4:	7b250000 	blvc	947bac <__bss_end__+0x93b564>
    7ba8:	01000002 	tsteq	r0, r2
    7bac:	00002c14 	andeq	r2, r0, r4, lsl ip
    7bb0:	00228500 	eoreq	r8, r2, r0, lsl #10
    7bb4:	027c2c00 	rsbseq	r2, ip, #0, 24
    7bb8:	15010000 	strne	r0, [r1, #-0]
    7bbc:	00000107 	andeq	r0, r0, r7, lsl #2
    7bc0:	000022a6 	andeq	r2, r0, r6, lsr #5
    7bc4:	00001c26 	andeq	r1, r0, r6, lsr #24
    7bc8:	000bcc00 	andeq	ip, fp, r0, lsl #24
    7bcc:	10030500 	andne	r0, r3, r0, lsl #10
    7bd0:	2a0000c1 	bcs	7edc <__code_start__-0x124>
    7bd4:	0000ae54 	andeq	sl, r0, r4, asr lr
    7bd8:	00000bfb 	strdeq	r0, [r0], -fp
    7bdc:	00ae6828 	adceq	r6, lr, r8, lsr #16
    7be0:	000c0600 	andeq	r0, ip, r0, lsl #12
    7be4:	000bb200 	andeq	fp, fp, r0, lsl #4
    7be8:	50012900 	andpl	r2, r1, r0, lsl #18
    7bec:	c14c0305 	cmpgt	ip, r5, lsl #6
    7bf0:	01290000 	teqeq	r9, r0
    7bf4:	40030551 	andmi	r0, r3, r1, asr r5
    7bf8:	290000c1 	stmdbcs	r0, {r0, r6, r7}
    7bfc:	03055201 	movweq	r5, #20993	; 0x5201
    7c00:	0000c110 	andeq	ip, r0, r0, lsl r1
    7c04:	01530129 	cmpeq	r3, r9, lsr #2
    7c08:	6c2a0046 	stcvs	0, cr0, [sl], #-280	; 0xfffffee8
    7c0c:	110000ae 	smlatbne	r0, lr, r0, r0
    7c10:	0000000c 	andeq	r0, r0, ip
    7c14:	00011408 	andeq	r1, r1, r8, lsl #8
    7c18:	000bcc00 	andeq	ip, fp, r0, lsl #24
    7c1c:	00c70900 	sbceq	r0, r7, r0, lsl #18
    7c20:	00160000 	andseq	r0, r6, r0
    7c24:	000bbc0e 	andeq	fp, fp, lr, lsl #24
    7c28:	14c52d00 	strbne	r2, [r5], #3328	; 0xd00
    7c2c:	12010000 	andne	r0, r1, #0
    7c30:	00000105 	andeq	r0, r0, r5, lsl #2
    7c34:	0000ae20 	andeq	sl, r0, r0, lsr #28
    7c38:	0000000c 	andeq	r0, r0, ip
    7c3c:	dd2d9c01 	stcle	12, cr9, [sp, #-4]!
    7c40:	01000014 	tsteq	r0, r4, lsl r0
    7c44:	00010511 	andeq	r0, r1, r1, lsl r5
    7c48:	00ae1000 	adceq	r1, lr, r0
    7c4c:	00001000 	andeq	r1, r0, r0
    7c50:	2e9c0100 	fmlcse	f0, f4, f0
    7c54:	000000d5 	ldrdeq	r0, [r0], -r5
    7c58:	000000d5 	ldrdeq	r0, [r0], -r5
    7c5c:	692e1e06 	stmdbvs	lr!, {r1, r2, r9, sl, fp, ip}
    7c60:	6900000a 	stmdbvs	r0, {r1, r3}
    7c64:	0600000a 	streq	r0, [r0], -sl
    7c68:	00f92e29 	rscseq	r2, r9, r9, lsr #28
    7c6c:	00f90000 	rscseq	r0, r9, r0
    7c70:	65060000 	strvs	r0, [r6, #-0]
    7c74:	0004902e 	andeq	r9, r4, lr, lsr #32
    7c78:	00049000 	andeq	r9, r4, r0
    7c7c:	00190700 	andseq	r0, r9, r0, lsl #14

Disassembly of section .debug_abbrev:

00000000 <.debug_abbrev>:
       0:	25011101 	strcs	r1, [r1, #-257]	; 0x101
       4:	030b130e 	movweq	r1, #45838	; 0xb30e
       8:	110e1b0e 	tstne	lr, lr, lsl #22
       c:	10061201 	andne	r1, r6, r1, lsl #4
      10:	02000017 	andeq	r0, r0, #23
      14:	0b0b0024 	bleq	2c00ac <__bss_end__+0x2b3a64>
      18:	08030b3e 	stmdaeq	r3, {r1, r2, r3, r4, r5, r8, r9, fp}
      1c:	24030000 	strcs	r0, [r3], #-0
      20:	3e0b0b00 	vmlacc.f64	d0, d11, d0
      24:	000e030b 	andeq	r0, lr, fp, lsl #6
      28:	00160400 	andseq	r0, r6, r0, lsl #8
      2c:	0b3a0e03 	bleq	e83840 <__bss_end__+0xe771f8>
      30:	13490b3b 	movtne	r0, #39739	; 0x9b3b
      34:	0f050000 	svceq	0x00050000
      38:	490b0b00 	stmdbmi	fp, {r8, r9, fp}
      3c:	06000013 			; <UNDEFINED> instruction: 0x06000013
      40:	13490026 	movtne	r0, #36902	; 0x9026
      44:	01070000 	mrseq	r0, (UNDEF: 7)
      48:	01134901 	tsteq	r3, r1, lsl #18
      4c:	08000013 	stmdaeq	r0, {r0, r1, r4}
      50:	13490021 	movtne	r0, #36897	; 0x9021
      54:	00000b2f 	andeq	r0, r0, pc, lsr #22
      58:	3f012e09 	svccc	0x00012e09
      5c:	3a0e0319 	bcc	380cc8 <__bss_end__+0x374680>
      60:	270b3b0b 	strcs	r3, [fp, -fp, lsl #22]
      64:	12011119 	andne	r1, r1, #1073741830	; 0x40000006
      68:	97184006 	ldrls	r4, [r8, -r6]
      6c:	13011942 	movwne	r1, #6466	; 0x1942
      70:	340a0000 	strcc	r0, [sl], #-0
      74:	490e0300 	stmdbmi	lr, {r8, r9}
      78:	02193413 	andseq	r3, r9, #318767104	; 0x13000000
      7c:	0b000018 	bleq	e4 <__code_start__-0x7f1c>
      80:	08030034 	stmdaeq	r3, {r2, r4, r5}
      84:	0b3b0b3a 	bleq	ec2d74 <__bss_end__+0xeb672c>
      88:	061c1349 	ldreq	r1, [ip], -r9, asr #6
      8c:	890c0000 	stmdbhi	ip, {}	; <UNPREDICTABLE>
      90:	11000182 	smlabbne	r0, r2, r1, r0
      94:	00133101 	andseq	r3, r3, r1, lsl #2
      98:	82890d00 	addhi	r0, r9, #0, 26
      9c:	01110101 	tsteq	r1, r1, lsl #2
      a0:	13011331 	movwne	r1, #4913	; 0x1331
      a4:	8a0e0000 	bhi	3800ac <__bss_end__+0x373a64>
      a8:	02000182 	andeq	r0, r0, #-2147483616	; 0x80000020
      ac:	18429118 	stmdane	r2, {r3, r4, r8, ip, pc}^
      b0:	2e0f0000 	cdpcs	0, 0, cr0, cr15, cr0, {0}
      b4:	03193f00 	tsteq	r9, #0, 30
      b8:	3b0b3a0e 	blcc	2ce8f8 <__bss_end__+0x2c22b0>
      bc:	3c19270b 	ldccc	7, cr2, [r9], {11}
      c0:	10000019 	andne	r0, r0, r9, lsl r0
      c4:	193f002e 	ldmdbne	pc!, {r1, r2, r3, r5}	; <UNPREDICTABLE>
      c8:	0b3a0e03 	bleq	e838dc <__bss_end__+0xe77294>
      cc:	19270b3b 	stmdbne	r7!, {r0, r1, r3, r4, r5, r8, r9, fp}
      d0:	193c1349 	ldmdbne	ip!, {r0, r3, r6, r8, r9, ip}
      d4:	2e110000 	cdpcs	0, 1, cr0, cr1, cr0, {0}
      d8:	03193f01 	tsteq	r9, #1, 30
      dc:	3b0b3a0e 	blcc	2ce91c <__bss_end__+0x2c22d4>
      e0:	4919270b 	ldmdbmi	r9, {r0, r1, r3, r8, r9, sl, sp}
      e4:	01193c13 	tsteq	r9, r3, lsl ip
      e8:	12000013 	andne	r0, r0, #19
      ec:	13490005 	movtne	r0, #36869	; 0x9005
      f0:	18130000 	ldmdane	r3, {}	; <UNPREDICTABLE>
      f4:	14000000 	strne	r0, [r0], #-0
      f8:	193f012e 	ldmdbne	pc!, {r1, r2, r3, r5, r8}	; <UNPREDICTABLE>
      fc:	0b3a0e03 	bleq	e83910 <__bss_end__+0xe772c8>
     100:	19270b3b 	stmdbne	r7!, {r0, r1, r3, r4, r5, r8, r9, fp}
     104:	1301193c 	movwne	r1, #6460	; 0x193c
     108:	35150000 	ldrcc	r0, [r5, #-0]
     10c:	00000000 	andeq	r0, r0, r0
     110:	25011101 	strcs	r1, [r1, #-257]	; 0x101
     114:	030b130e 	movweq	r1, #45838	; 0xb30e
     118:	110e1b0e 	tstne	lr, lr, lsl #22
     11c:	10061201 	andne	r1, r6, r1, lsl #4
     120:	02000017 	andeq	r0, r0, #23
     124:	0b0b0024 	bleq	2c01bc <__bss_end__+0x2b3b74>
     128:	08030b3e 	stmdaeq	r3, {r1, r2, r3, r4, r5, r8, r9, fp}
     12c:	16030000 	strne	r0, [r3], -r0
     130:	3a0e0300 	bcc	380d38 <__bss_end__+0x3746f0>
     134:	490b3b0b 	stmdbmi	fp, {r0, r1, r3, r8, r9, fp, ip, sp}
     138:	04000013 	streq	r0, [r0], #-19
     13c:	0b0b0024 	bleq	2c01d4 <__bss_end__+0x2b3b8c>
     140:	0e030b3e 	vmoveq.16	d3[0], r0
     144:	0f050000 	svceq	0x00050000
     148:	000b0b00 	andeq	r0, fp, r0, lsl #22
     14c:	000f0600 	andeq	r0, pc, r0, lsl #12
     150:	13490b0b 	movtne	r0, #39691	; 0x9b0b
     154:	26070000 	strcs	r0, [r7], -r0
     158:	00134900 	andseq	r4, r3, r0, lsl #18
     15c:	01130800 	tsteq	r3, r0, lsl #16
     160:	0b0b0e03 	bleq	2c3974 <__bss_end__+0x2b732c>
     164:	0b3b0b3a 	bleq	ec2e54 <__bss_end__+0xeb680c>
     168:	00001301 	andeq	r1, r0, r1, lsl #6
     16c:	03000d09 	movweq	r0, #3337	; 0xd09
     170:	3b0b3a0e 	blcc	2ce9b0 <__bss_end__+0x2c2368>
     174:	0b13490b 	bleq	4d25a8 <__bss_end__+0x4c5f60>
     178:	0c0b0d0b 	stceq	13, cr0, [fp], {11}
     17c:	000b380b 	andeq	r3, fp, fp, lsl #16
     180:	000d0a00 	andeq	r0, sp, r0, lsl #20
     184:	0b3a0803 	bleq	e82198 <__bss_end__+0xe75b50>
     188:	13490b3b 	movtne	r0, #39739	; 0x9b3b
     18c:	0b0d0b0b 	bleq	342dc0 <__bss_end__+0x336778>
     190:	0b380b0c 	bleq	e02dc8 <__bss_end__+0xdf6780>
     194:	040b0000 	streq	r0, [fp], #-0
     198:	3a0b0b01 	bcc	2c2da4 <__bss_end__+0x2b675c>
     19c:	010b3b0b 	tsteq	fp, fp, lsl #22
     1a0:	0c000013 	stceq	0, cr0, [r0], {19}
     1a4:	0e030028 	cdpeq	0, 0, cr0, cr3, cr8, {1}
     1a8:	00000d1c 	andeq	r0, r0, ip, lsl sp
     1ac:	03012e0d 	movweq	r2, #7693	; 0x1e0d
     1b0:	3b0b3a0e 	blcc	2ce9f0 <__bss_end__+0x2c23a8>
     1b4:	4919270b 	ldmdbmi	r9, {r0, r1, r3, r8, r9, sl, sp}
     1b8:	010b2013 	tsteq	fp, r3, lsl r0
     1bc:	0e000013 	mcreq	0, 0, r0, cr0, cr3, {0}
     1c0:	08030005 	stmdaeq	r3, {r0, r2}
     1c4:	0b3b0b3a 	bleq	ec2eb4 <__bss_end__+0xeb686c>
     1c8:	00001349 	andeq	r1, r0, r9, asr #6
     1cc:	3f012e0f 	svccc	0x00012e0f
     1d0:	3a0e0319 	bcc	380e3c <__bss_end__+0x3747f4>
     1d4:	270b3b0b 	strcs	r3, [fp, -fp, lsl #22]
     1d8:	11134919 	tstne	r3, r9, lsl r9
     1dc:	40061201 	andmi	r1, r6, r1, lsl #4
     1e0:	19429718 	stmdbne	r2, {r3, r4, r8, r9, sl, ip, pc}^
     1e4:	00001301 	andeq	r1, r0, r1, lsl #6
     1e8:	01828910 	orreq	r8, r2, r0, lsl r9
     1ec:	31011100 	mrscc	r1, (UNDEF: 17)
     1f0:	11000013 	tstne	r0, r3, lsl r0
     1f4:	08030005 	stmdaeq	r3, {r0, r2}
     1f8:	0b3b0b3a 	bleq	ec2ee8 <__bss_end__+0xeb68a0>
     1fc:	17021349 	strne	r1, [r2, -r9, asr #6]
     200:	34120000 	ldrcc	r0, [r2], #-0
     204:	490e0300 	stmdbmi	lr, {r8, r9}
     208:	02193413 	andseq	r3, r9, #318767104	; 0x13000000
     20c:	13000018 	movwne	r0, #24
     210:	0e030034 	mcreq	0, 0, r0, cr3, cr4, {1}
     214:	0b3b0b3a 	bleq	ec2f04 <__bss_end__+0xeb68bc>
     218:	17021349 	strne	r1, [r2, -r9, asr #6]
     21c:	34140000 	ldrcc	r0, [r4], #-0
     220:	3a080300 	bcc	200e28 <__bss_end__+0x1f47e0>
     224:	490b3b0b 	stmdbmi	fp, {r0, r1, r3, r8, r9, fp, ip, sp}
     228:	00170213 	andseq	r0, r7, r3, lsl r2
     22c:	82891500 	addhi	r1, r9, #0, 10
     230:	01110101 	tsteq	r1, r1, lsl #2
     234:	13011331 	movwne	r1, #4913	; 0x1331
     238:	8a160000 	bhi	580240 <__bss_end__+0x573bf8>
     23c:	02000182 	andeq	r0, r0, #-2147483616	; 0x80000020
     240:	18429118 	stmdane	r2, {r3, r4, r8, ip, pc}^
     244:	01170000 	tsteq	r7, r0
     248:	01134901 	tsteq	r3, r1, lsl #18
     24c:	18000013 	stmdane	r0, {r0, r1, r4}
     250:	13490021 	movtne	r0, #36897	; 0x9021
     254:	00000b2f 	andeq	r0, r0, pc, lsr #22
     258:	03012e19 	movweq	r2, #7705	; 0x1e19
     25c:	3b0b3a0e 	blcc	2cea9c <__bss_end__+0x2c2454>
     260:	1119270b 	tstne	r9, fp, lsl #14
     264:	40061201 	andmi	r1, r6, r1, lsl #4
     268:	19429718 	stmdbne	r2, {r3, r4, r8, r9, sl, ip, pc}^
     26c:	00001301 	andeq	r1, r0, r1, lsl #6
     270:	0300051a 	movweq	r0, #1306	; 0x51a
     274:	3b0b3a0e 	blcc	2ceab4 <__bss_end__+0x2c246c>
     278:	0213490b 	andseq	r4, r3, #180224	; 0x2c000
     27c:	1b000017 	blne	2e0 <__code_start__-0x7d20>
     280:	1331011d 	teqne	r1, #1073741831	; 0x40000007
     284:	06120111 			; <UNDEFINED> instruction: 0x06120111
     288:	0b590b58 	bleq	1642ff0 <__bss_end__+0x16369a8>
     28c:	00001301 	andeq	r1, r0, r1, lsl #6
     290:	3100051c 	tstcc	r0, ip, lsl r5
     294:	00170213 	andseq	r0, r7, r3, lsl r2
     298:	010b1d00 	tsteq	fp, r0, lsl #26
     29c:	13011755 	movwne	r1, #5973	; 0x1755
     2a0:	0b1e0000 	bleq	7802a8 <__bss_end__+0x773c60>
     2a4:	00175501 	andseq	r5, r7, r1, lsl #10
     2a8:	82891f00 	addhi	r1, r9, #0, 30
     2ac:	01110101 	tsteq	r1, r1, lsl #2
     2b0:	00001331 	andeq	r1, r0, r1, lsr r3
     2b4:	3f012e20 	svccc	0x00012e20
     2b8:	3a0e0319 	bcc	380f24 <__bss_end__+0x3748dc>
     2bc:	270b3b0b 	strcs	r3, [fp, -fp, lsl #22]
     2c0:	12011119 	andne	r1, r1, #1073741830	; 0x40000006
     2c4:	97184006 	ldrls	r4, [r8, -r6]
     2c8:	13011942 	movwne	r1, #6466	; 0x1942
     2cc:	05210000 	streq	r0, [r1, #-0]!
     2d0:	3a080300 	bcc	200ed8 <__bss_end__+0x1f4890>
     2d4:	490b3b0b 	stmdbmi	fp, {r0, r1, r3, r8, r9, fp, ip, sp}
     2d8:	00180213 	andseq	r0, r8, r3, lsl r2
     2dc:	00342200 	eorseq	r2, r4, r0, lsl #4
     2e0:	0b3a0803 	bleq	e822f4 <__bss_end__+0xe75cac>
     2e4:	13490b3b 	movtne	r0, #39739	; 0x9b3b
     2e8:	0000051c 	andeq	r0, r0, ip, lsl r5
     2ec:	03003423 	movweq	r3, #1059	; 0x423
     2f0:	3b0b3a0e 	blcc	2ceb30 <__bss_end__+0x2c24e8>
     2f4:	1c13490b 	ldcne	9, cr4, [r3], {11}
     2f8:	24000005 	strcs	r0, [r0], #-5
     2fc:	08030034 	stmdaeq	r3, {r2, r4, r5}
     300:	0b3b0b3a 	bleq	ec2ff0 <__bss_end__+0xeb69a8>
     304:	18021349 	stmdane	r2, {r0, r3, r6, r8, r9, ip}
     308:	34250000 	strtcc	r0, [r5], #-0
     30c:	3a0e0300 	bcc	380f14 <__bss_end__+0x3748cc>
     310:	490b3b0b 	stmdbmi	fp, {r0, r1, r3, r8, r9, fp, ip, sp}
     314:	00180213 	andseq	r0, r8, r3, lsl r2
     318:	002e2600 	eoreq	r2, lr, r0, lsl #12
     31c:	0e03193f 	mcreq	9, 0, r1, cr3, cr15, {1}
     320:	0b3b0b3a 	bleq	ec3010 <__bss_end__+0xeb69c8>
     324:	13491927 	movtne	r1, #39207	; 0x9927
     328:	0000193c 	andeq	r1, r0, ip, lsr r9
     32c:	3f002e27 	svccc	0x00002e27
     330:	3a0e0319 	bcc	380f9c <__bss_end__+0x374954>
     334:	270b3b0b 	strcs	r3, [fp, -fp, lsl #22]
     338:	00193c19 	andseq	r3, r9, r9, lsl ip
     33c:	012e2800 	teqeq	lr, r0, lsl #16
     340:	0e03193f 	mcreq	9, 0, r1, cr3, cr15, {1}
     344:	0b3b0b3a 	bleq	ec3034 <__bss_end__+0xeb69ec>
     348:	13491927 	movtne	r1, #39207	; 0x9927
     34c:	1301193c 	movwne	r1, #6460	; 0x193c
     350:	05290000 	streq	r0, [r9, #-0]!
     354:	00134900 	andseq	r4, r3, r0, lsl #18
     358:	00182a00 	andseq	r2, r8, r0, lsl #20
     35c:	2e2b0000 	cdpcs	0, 2, cr0, cr11, cr0, {0}
     360:	03193f01 	tsteq	r9, #1, 30
     364:	3b0b3a0e 	blcc	2ceba4 <__bss_end__+0x2c255c>
     368:	3c19270b 	ldccc	7, cr2, [r9], {11}
     36c:	00130119 	andseq	r0, r3, r9, lsl r1
     370:	00262c00 	eoreq	r2, r6, r0, lsl #24
     374:	2e2d0000 	cdpcs	0, 2, cr0, cr13, cr0, {0}
     378:	03193f01 	tsteq	r9, #1, 30
     37c:	3b0b3a0e 	blcc	2cebbc <__bss_end__+0x2c2574>
     380:	3c19270b 	ldccc	7, cr2, [r9], {11}
     384:	00000019 	andeq	r0, r0, r9, lsl r0
     388:	25011101 	strcs	r1, [r1, #-257]	; 0x101
     38c:	030b130e 	movweq	r1, #45838	; 0xb30e
     390:	110e1b0e 	tstne	lr, lr, lsl #22
     394:	10061201 	andne	r1, r6, r1, lsl #4
     398:	02000017 	andeq	r0, r0, #23
     39c:	0b0b0024 	bleq	2c0434 <__bss_end__+0x2b3dec>
     3a0:	08030b3e 	stmdaeq	r3, {r1, r2, r3, r4, r5, r8, r9, fp}
     3a4:	24030000 	strcs	r0, [r3], #-0
     3a8:	3e0b0b00 	vmlacc.f64	d0, d11, d0
     3ac:	000e030b 	andeq	r0, lr, fp, lsl #6
     3b0:	00160400 	andseq	r0, r6, r0, lsl #8
     3b4:	0b3a0e03 	bleq	e83bc8 <__bss_end__+0xe77580>
     3b8:	13490b3b 	movtne	r0, #39739	; 0x9b3b
     3bc:	0f050000 	svceq	0x00050000
     3c0:	490b0b00 	stmdbmi	fp, {r8, r9, fp}
     3c4:	06000013 			; <UNDEFINED> instruction: 0x06000013
     3c8:	13490026 	movtne	r0, #36902	; 0x9026
     3cc:	01070000 	mrseq	r0, (UNDEF: 7)
     3d0:	01134901 	tsteq	r3, r1, lsl #18
     3d4:	08000013 	stmdaeq	r0, {r0, r1, r4}
     3d8:	13490021 	movtne	r0, #36897	; 0x9021
     3dc:	00000b2f 	andeq	r0, r0, pc, lsr #22
     3e0:	03011309 	movweq	r1, #4873	; 0x1309
     3e4:	3a0b0b0e 	bcc	2c3024 <__bss_end__+0x2b69dc>
     3e8:	010b3b0b 	tsteq	fp, fp, lsl #22
     3ec:	0a000013 	beq	440 <__code_start__-0x7bc0>
     3f0:	0e03000d 	cdpeq	0, 0, cr0, cr3, cr13, {0}
     3f4:	0b3b0b3a 	bleq	ec30e4 <__bss_end__+0xeb6a9c>
     3f8:	0b0b1349 	bleq	2c5124 <__bss_end__+0x2b8adc>
     3fc:	0b0c0b0d 	bleq	303038 <__bss_end__+0x2f69f0>
     400:	00000b38 	andeq	r0, r0, r8, lsr fp
     404:	03000d0b 	movweq	r0, #3339	; 0xd0b
     408:	3b0b3a08 	blcc	2cec30 <__bss_end__+0x2c25e8>
     40c:	0b13490b 	bleq	4d2840 <__bss_end__+0x4c61f8>
     410:	0c0b0d0b 	stceq	13, cr0, [fp], {11}
     414:	000b380b 	andeq	r3, fp, fp, lsl #16
     418:	012e0c00 	teqeq	lr, r0, lsl #24
     41c:	0e03193f 	mcreq	9, 0, r1, cr3, cr15, {1}
     420:	0b3b0b3a 	bleq	ec3110 <__bss_end__+0xeb6ac8>
     424:	01111927 	tsteq	r1, r7, lsr #18
     428:	18400612 	stmdane	r0, {r1, r4, r9, sl}^
     42c:	01194297 			; <UNDEFINED> instruction: 0x01194297
     430:	0d000013 	stceq	0, cr0, [r0, #-76]	; 0xffffffb4
     434:	08030005 	stmdaeq	r3, {r0, r2}
     438:	0b3b0b3a 	bleq	ec3128 <__bss_end__+0xeb6ae0>
     43c:	17021349 	strne	r1, [r2, -r9, asr #6]
     440:	050e0000 	streq	r0, [lr, #-0]
     444:	3a0e0300 	bcc	38104c <__bss_end__+0x374a04>
     448:	490b3b0b 	stmdbmi	fp, {r0, r1, r3, r8, r9, fp, ip, sp}
     44c:	00170213 	andseq	r0, r7, r3, lsl r2
     450:	82890f00 	addhi	r0, r9, #0, 30
     454:	01110101 	tsteq	r1, r1, lsl #2
     458:	13011331 	movwne	r1, #4913	; 0x1331
     45c:	8a100000 	bhi	400464 <__bss_end__+0x3f3e1c>
     460:	02000182 	andeq	r0, r0, #-2147483616	; 0x80000020
     464:	18429118 	stmdane	r2, {r3, r4, r8, ip, pc}^
     468:	89110000 	ldmdbhi	r1, {}	; <UNPREDICTABLE>
     46c:	11010182 	smlabbne	r1, r2, r1, r0
     470:	00133101 	andseq	r3, r3, r1, lsl #2
     474:	00261200 	eoreq	r1, r6, r0, lsl #4
     478:	89130000 	ldmdbhi	r3, {}	; <UNPREDICTABLE>
     47c:	11000182 	smlabbne	r0, r2, r1, r0
     480:	00133101 	andseq	r3, r3, r1, lsl #2
     484:	012e1400 	teqeq	lr, r0, lsl #8
     488:	0b3a0e03 	bleq	e83c9c <__bss_end__+0xe77654>
     48c:	19270b3b 	stmdbne	r7!, {r0, r1, r3, r4, r5, r8, r9, fp}
     490:	06120111 			; <UNDEFINED> instruction: 0x06120111
     494:	42971840 	addsmi	r1, r7, #64, 16	; 0x400000
     498:	00130119 	andseq	r0, r3, r9, lsl r1
     49c:	00341500 	eorseq	r1, r4, r0, lsl #10
     4a0:	13490e03 	movtne	r0, #40451	; 0x9e03
     4a4:	18021934 	stmdane	r2, {r2, r4, r5, r8, fp, ip}
     4a8:	2e160000 	cdpcs	0, 1, cr0, cr6, cr0, {0}
     4ac:	03193f00 	tsteq	r9, #0, 30
     4b0:	3b0b3a0e 	blcc	2cecf0 <__bss_end__+0x2c26a8>
     4b4:	4919270b 	ldmdbmi	r9, {r0, r1, r3, r8, r9, sl, sp}
     4b8:	12011113 	andne	r1, r1, #-1073741820	; 0xc0000004
     4bc:	97184006 	ldrls	r4, [r8, -r6]
     4c0:	00001942 	andeq	r1, r0, r2, asr #18
     4c4:	03003417 	movweq	r3, #1047	; 0x417
     4c8:	3b0b3a08 	blcc	2cecf0 <__bss_end__+0x2c26a8>
     4cc:	0213490b 	andseq	r4, r3, #180224	; 0x2c000
     4d0:	18000018 	stmdane	r0, {r3, r4}
     4d4:	0111010b 	tsteq	r1, fp, lsl #2
     4d8:	13010612 	movwne	r0, #5650	; 0x1612
     4dc:	17190000 	ldrne	r0, [r9, -r0]
     4e0:	0b080301 	bleq	2010ec <__bss_end__+0x1f4aa4>
     4e4:	3b0b3a0b 	blcc	2ced18 <__bss_end__+0x2c26d0>
     4e8:	0013010b 	andseq	r0, r3, fp, lsl #2
     4ec:	000d1a00 	andeq	r1, sp, r0, lsl #20
     4f0:	0b3a0803 	bleq	e82504 <__bss_end__+0xe75ebc>
     4f4:	13490b3b 	movtne	r0, #39739	; 0x9b3b
     4f8:	341b0000 	ldrcc	r0, [fp], #-0
     4fc:	3a080300 	bcc	201104 <__bss_end__+0x1f4abc>
     500:	490b3b0b 	stmdbmi	fp, {r0, r1, r3, r8, r9, fp, ip, sp}
     504:	000d1c13 	andeq	r1, sp, r3, lsl ip
     508:	00341c00 	eorseq	r1, r4, r0, lsl #24
     50c:	0b3a0e03 	bleq	e83d20 <__bss_end__+0xe776d8>
     510:	13490b3b 	movtne	r0, #39739	; 0x9b3b
     514:	00000b1c 	andeq	r0, r0, ip, lsl fp
     518:	0300341d 	movweq	r3, #1053	; 0x41d
     51c:	3b0b3a0e 	blcc	2ced5c <__bss_end__+0x2c2714>
     520:	1c13490b 	ldcne	9, cr4, [r3], {11}
     524:	1e000005 	cdpne	0, 0, cr0, cr0, cr5, {0}
     528:	193f012e 	ldmdbne	pc!, {r1, r2, r3, r5, r8}	; <UNPREDICTABLE>
     52c:	0b3a0e03 	bleq	e83d40 <__bss_end__+0xe776f8>
     530:	19270b3b 	stmdbne	r7!, {r0, r1, r3, r4, r5, r8, r9, fp}
     534:	193c1349 	ldmdbne	ip!, {r0, r3, r6, r8, r9, ip}
     538:	00001301 	andeq	r1, r0, r1, lsl #6
     53c:	4900051f 	stmdbmi	r0, {r0, r1, r2, r3, r4, r8, sl}
     540:	20000013 	andcs	r0, r0, r3, lsl r0
     544:	00000018 	andeq	r0, r0, r8, lsl r0
     548:	3f002e21 	svccc	0x00002e21
     54c:	3a0e0319 	bcc	3811b8 <__bss_end__+0x374b70>
     550:	270b3b0b 	strcs	r3, [fp, -fp, lsl #22]
     554:	3c134919 	ldccc	9, cr4, [r3], {25}
     558:	22000019 	andcs	r0, r0, #25
     55c:	193f002e 	ldmdbne	pc!, {r1, r2, r3, r5}	; <UNPREDICTABLE>
     560:	0b3a0e03 	bleq	e83d74 <__bss_end__+0xe7772c>
     564:	19270b3b 	stmdbne	r7!, {r0, r1, r3, r4, r5, r8, r9, fp}
     568:	0000193c 	andeq	r1, r0, ip, lsr r9
     56c:	01110100 	tsteq	r1, r0, lsl #2
     570:	0b130e25 	bleq	4c3e0c <__bss_end__+0x4b77c4>
     574:	0e1b0e03 	cdpeq	14, 1, cr0, cr11, cr3, {0}
     578:	06120111 			; <UNDEFINED> instruction: 0x06120111
     57c:	00001710 	andeq	r1, r0, r0, lsl r7
     580:	0b002402 	bleq	9590 <dom_perm_get+0x74>
     584:	030b3e0b 	movweq	r3, #48651	; 0xbe0b
     588:	03000008 	movweq	r0, #8
     58c:	0b0b0024 	bleq	2c0624 <__bss_end__+0x2b3fdc>
     590:	0e030b3e 	vmoveq.16	d3[0], r0
     594:	16040000 	strne	r0, [r4], -r0
     598:	3a0e0300 	bcc	3811a0 <__bss_end__+0x374b58>
     59c:	490b3b0b 	stmdbmi	fp, {r0, r1, r3, r8, r9, fp, ip, sp}
     5a0:	05000013 	streq	r0, [r0, #-19]
     5a4:	0b0b000f 	bleq	2c05e8 <__bss_end__+0x2b3fa0>
     5a8:	0f060000 	svceq	0x00060000
     5ac:	490b0b00 	stmdbmi	fp, {r8, r9, fp}
     5b0:	07000013 	smladeq	r0, r3, r0, r0
     5b4:	13490026 	movtne	r0, #36902	; 0x9026
     5b8:	13080000 	movwne	r0, #32768	; 0x8000
     5bc:	0b0e0301 	bleq	3811c8 <__bss_end__+0x374b80>
     5c0:	3b0b3a0b 	blcc	2cedf4 <__bss_end__+0x2c27ac>
     5c4:	0013010b 	andseq	r0, r3, fp, lsl #2
     5c8:	000d0900 	andeq	r0, sp, r0, lsl #18
     5cc:	0b3a0803 	bleq	e825e0 <__bss_end__+0xe75f98>
     5d0:	13490b3b 	movtne	r0, #39739	; 0x9b3b
     5d4:	0b0d0b0b 	bleq	343208 <__bss_end__+0x336bc0>
     5d8:	0b380b0c 	bleq	e03210 <__bss_end__+0xdf6bc8>
     5dc:	0d0a0000 	stceq	0, cr0, [sl, #-0]
     5e0:	3a0e0300 	bcc	3811e8 <__bss_end__+0x374ba0>
     5e4:	490b3b0b 	stmdbmi	fp, {r0, r1, r3, r8, r9, fp, ip, sp}
     5e8:	0d0b0b13 	vstreq	d0, [fp, #-76]	; 0xffffffb4
     5ec:	380b0c0b 	stmdacc	fp, {r0, r1, r3, sl, fp}
     5f0:	0b00000b 	bleq	624 <__code_start__-0x79dc>
     5f4:	0b0b0104 	bleq	2c0a0c <__bss_end__+0x2b43c4>
     5f8:	0b3b0b3a 	bleq	ec32e8 <__bss_end__+0xeb6ca0>
     5fc:	00001301 	andeq	r1, r0, r1, lsl #6
     600:	0300280c 	movweq	r2, #2060	; 0x80c
     604:	000d1c0e 	andeq	r1, sp, lr, lsl #24
     608:	01130d00 	tsteq	r3, r0, lsl #26
     60c:	0b3a0b0b 	bleq	e83240 <__bss_end__+0xe76bf8>
     610:	13010b3b 	movwne	r0, #6971	; 0x1b3b
     614:	0d0e0000 	stceq	0, cr0, [lr, #-0]
     618:	3a0e0300 	bcc	381220 <__bss_end__+0x374bd8>
     61c:	490b3b0b 	stmdbmi	fp, {r0, r1, r3, r8, r9, fp, ip, sp}
     620:	000b3813 	andeq	r3, fp, r3, lsl r8
     624:	002e0f00 	eoreq	r0, lr, r0, lsl #30
     628:	0e03193f 	mcreq	9, 0, r1, cr3, cr15, {1}
     62c:	0b3b0b3a 	bleq	ec331c <__bss_end__+0xeb6cd4>
     630:	13491927 	movtne	r1, #39207	; 0x9927
     634:	06120111 			; <UNDEFINED> instruction: 0x06120111
     638:	42971840 	addsmi	r1, r7, #64, 16	; 0x400000
     63c:	10000019 	andne	r0, r0, r9, lsl r0
     640:	193f012e 	ldmdbne	pc!, {r1, r2, r3, r5, r8}	; <UNPREDICTABLE>
     644:	0b3a0e03 	bleq	e83e58 <__bss_end__+0xe77810>
     648:	19270b3b 	stmdbne	r7!, {r0, r1, r3, r4, r5, r8, r9, fp}
     64c:	06120111 			; <UNDEFINED> instruction: 0x06120111
     650:	42971840 	addsmi	r1, r7, #64, 16	; 0x400000
     654:	00130119 	andseq	r0, r3, r9, lsl r1
     658:	00051100 	andeq	r1, r5, r0, lsl #2
     65c:	0b3a0e03 	bleq	e83e70 <__bss_end__+0xe77828>
     660:	13490b3b 	movtne	r0, #39739	; 0x9b3b
     664:	00001802 	andeq	r1, r0, r2, lsl #16
     668:	03000512 	movweq	r0, #1298	; 0x512
     66c:	3b0b3a08 	blcc	2cee94 <__bss_end__+0x2c284c>
     670:	0213490b 	andseq	r4, r3, #180224	; 0x2c000
     674:	13000017 	movwne	r0, #23
     678:	0e030005 	cdpeq	0, 0, cr0, cr3, cr5, {0}
     67c:	0b3b0b3a 	bleq	ec336c <__bss_end__+0xeb6d24>
     680:	17021349 	strne	r1, [r2, -r9, asr #6]
     684:	34140000 	ldrcc	r0, [r4], #-0
     688:	3a080300 	bcc	201290 <__bss_end__+0x1f4c48>
     68c:	490b3b0b 	stmdbmi	fp, {r0, r1, r3, r8, r9, fp, ip, sp}
     690:	00180213 	andseq	r0, r8, r3, lsl r2
     694:	00341500 	eorseq	r1, r4, r0, lsl #10
     698:	13490e03 	movtne	r0, #40451	; 0x9e03
     69c:	18021934 	stmdane	r2, {r2, r4, r5, r8, fp, ip}
     6a0:	89160000 	ldmdbhi	r6, {}	; <UNPREDICTABLE>
     6a4:	11010182 	smlabbne	r1, r2, r1, r0
     6a8:	01133101 	tsteq	r3, r1, lsl #2
     6ac:	17000013 	smladne	r0, r3, r0, r0
     6b0:	0001828a 	andeq	r8, r1, sl, lsl #5
     6b4:	42911802 	addsmi	r1, r1, #131072	; 0x20000
     6b8:	18000018 	stmdane	r0, {r3, r4}
     6bc:	00018289 	andeq	r8, r1, r9, lsl #5
     6c0:	13310111 	teqne	r1, #1073741828	; 0x40000004
     6c4:	89190000 	ldmdbhi	r9, {}	; <UNPREDICTABLE>
     6c8:	11010182 	smlabbne	r1, r2, r1, r0
     6cc:	00133101 	andseq	r3, r3, r1, lsl #2
     6d0:	01011a00 	tsteq	r1, r0, lsl #20
     6d4:	13011349 	movwne	r1, #4937	; 0x1349
     6d8:	211b0000 	tstcs	fp, r0
     6dc:	2f134900 	svccs	0x00134900
     6e0:	1c00000b 	stcne	0, cr0, [r0], {11}
     6e4:	0e03012e 	adfeqsp	f0, f3, #0.5
     6e8:	0b3b0b3a 	bleq	ec33d8 <__bss_end__+0xeb6d90>
     6ec:	13491927 	movtne	r1, #39207	; 0x9927
     6f0:	13010b20 	movwne	r0, #6944	; 0x1b20
     6f4:	051d0000 	ldreq	r0, [sp, #-0]
     6f8:	3a080300 	bcc	201300 <__bss_end__+0x1f4cb8>
     6fc:	490b3b0b 	stmdbmi	fp, {r0, r1, r3, r8, r9, fp, ip, sp}
     700:	1e000013 	mcrne	0, 0, r0, cr0, cr3, {0}
     704:	0e030034 	mcreq	0, 0, r0, cr3, cr4, {1}
     708:	19341349 	ldmdbne	r4!, {r0, r3, r6, r8, r9, ip}
     70c:	00000e1c 	andeq	r0, r0, ip, lsl lr
     710:	0300341f 	movweq	r3, #1055	; 0x41f
     714:	3b0b3a08 	blcc	2cef3c <__bss_end__+0x2c28f4>
     718:	0013490b 	andseq	r4, r3, fp, lsl #18
     71c:	012e2000 	teqeq	lr, r0
     720:	0b3a0e03 	bleq	e83f34 <__bss_end__+0xe778ec>
     724:	19270b3b 	stmdbne	r7!, {r0, r1, r3, r4, r5, r8, r9, fp}
     728:	01111349 	tsteq	r1, r9, asr #6
     72c:	18400612 	stmdane	r0, {r1, r4, r9, sl}^
     730:	01194297 			; <UNDEFINED> instruction: 0x01194297
     734:	21000013 	tstcs	r0, r3, lsl r0
     738:	08030034 	stmdaeq	r3, {r2, r4, r5}
     73c:	0b3b0b3a 	bleq	ec342c <__bss_end__+0xeb6de4>
     740:	17021349 	strne	r1, [r2, -r9, asr #6]
     744:	1d220000 	stcne	0, cr0, [r2, #-0]
     748:	11133101 	tstne	r3, r1, lsl #2
     74c:	58061201 	stmdapl	r6, {r0, r9, ip}
     750:	010b590b 	tsteq	fp, fp, lsl #18
     754:	23000013 	movwcs	r0, #19
     758:	13310005 	teqne	r1, #5
     75c:	00001702 	andeq	r1, r0, r2, lsl #14
     760:	11010b24 	tstne	r1, r4, lsr #22
     764:	00061201 	andeq	r1, r6, r1, lsl #4
     768:	00342500 	eorseq	r2, r4, r0, lsl #10
     76c:	17021331 	smladxne	r2, r1, r3, r1
     770:	34260000 	strtcc	r0, [r6], #-0
     774:	02133100 	andseq	r3, r3, #0, 2
     778:	27000018 	smladcs	r0, r8, r0, r0
     77c:	0e03012e 	adfeqsp	f0, f3, #0.5
     780:	0b3b0b3a 	bleq	ec3470 <__bss_end__+0xeb6e28>
     784:	01111927 	tsteq	r1, r7, lsr #18
     788:	18400612 	stmdane	r0, {r1, r4, r9, sl}^
     78c:	01194297 			; <UNDEFINED> instruction: 0x01194297
     790:	28000013 	stmdacs	r0, {r0, r1, r4}
     794:	193f002e 	ldmdbne	pc!, {r1, r2, r3, r5}	; <UNPREDICTABLE>
     798:	0b3a0e03 	bleq	e83fac <__bss_end__+0xe77964>
     79c:	19270b3b 	stmdbne	r7!, {r0, r1, r3, r4, r5, r8, r9, fp}
     7a0:	06120111 			; <UNDEFINED> instruction: 0x06120111
     7a4:	42971840 	addsmi	r1, r7, #64, 16	; 0x400000
     7a8:	29000019 	stmdbcs	r0, {r0, r3, r4}
     7ac:	0e030034 	mcreq	0, 0, r0, cr3, cr4, {1}
     7b0:	0b3b0b3a 	bleq	ec34a0 <__bss_end__+0xeb6e58>
     7b4:	17021349 	strne	r1, [r2, -r9, asr #6]
     7b8:	342a0000 	strtcc	r0, [sl], #-0
     7bc:	3a0e0300 	bcc	3813c4 <__bss_end__+0x374d7c>
     7c0:	490b3b0b 	stmdbmi	fp, {r0, r1, r3, r8, r9, fp, ip, sp}
     7c4:	000d1c13 	andeq	r1, sp, r3, lsl ip
     7c8:	00342b00 	eorseq	r2, r4, r0, lsl #22
     7cc:	0b3a0e03 	bleq	e83fe0 <__bss_end__+0xe77998>
     7d0:	13490b3b 	movtne	r0, #39739	; 0x9b3b
     7d4:	0000061c 	andeq	r0, r0, ip, lsl r6
     7d8:	3f012e2c 	svccc	0x00012e2c
     7dc:	3a0e0319 	bcc	381448 <__bss_end__+0x374e00>
     7e0:	27053b0b 	strcs	r3, [r5, -fp, lsl #22]
     7e4:	12011119 	andne	r1, r1, #1073741830	; 0x40000006
     7e8:	97184006 	ldrls	r4, [r8, -r6]
     7ec:	13011942 	movwne	r1, #6466	; 0x1942
     7f0:	052d0000 	streq	r0, [sp, #-0]!
     7f4:	3a0e0300 	bcc	3813fc <__bss_end__+0x374db4>
     7f8:	49053b0b 	stmdbmi	r5, {r0, r1, r3, r8, r9, fp, ip, sp}
     7fc:	00170213 	andseq	r0, r7, r3, lsl r2
     800:	00342e00 	eorseq	r2, r4, r0, lsl #28
     804:	13490e03 	movtne	r0, #40451	; 0x9e03
     808:	00001934 	andeq	r1, r0, r4, lsr r9
     80c:	3f012e2f 	svccc	0x00012e2f
     810:	3a0e0319 	bcc	38147c <__bss_end__+0x374e34>
     814:	27053b0b 	strcs	r3, [r5, -fp, lsl #22]
     818:	11134919 	tstne	r3, r9, lsl r9
     81c:	40061201 	andmi	r1, r6, r1, lsl #4
     820:	19429718 	stmdbne	r2, {r3, r4, r8, r9, sl, ip, pc}^
     824:	00001301 	andeq	r1, r0, r1, lsl #6
     828:	03003430 	movweq	r3, #1072	; 0x430
     82c:	3b0b3a0e 	blcc	2cf06c <__bss_end__+0x2c2a24>
     830:	0213490b 	andseq	r4, r3, #180224	; 0x2c000
     834:	31000018 	tstcc	r0, r8, lsl r0
     838:	0e030034 	mcreq	0, 0, r0, cr3, cr4, {1}
     83c:	0b3b0b3a 	bleq	ec352c <__bss_end__+0xeb6ee4>
     840:	193f1349 	ldmdbne	pc!, {r0, r3, r6, r8, r9, ip}	; <UNPREDICTABLE>
     844:	0000193c 	andeq	r1, r0, ip, lsr r9
     848:	3f002e32 	svccc	0x00002e32
     84c:	3a0e0319 	bcc	3814b8 <__bss_end__+0x374e70>
     850:	270b3b0b 	strcs	r3, [fp, -fp, lsl #22]
     854:	00193c19 	andseq	r3, r9, r9, lsl ip
     858:	012e3300 	teqeq	lr, r0, lsl #6
     85c:	0e03193f 	mcreq	9, 0, r1, cr3, cr15, {1}
     860:	0b3b0b3a 	bleq	ec3550 <__bss_end__+0xeb6f08>
     864:	13491927 	movtne	r1, #39207	; 0x9927
     868:	1301193c 	movwne	r1, #6460	; 0x193c
     86c:	05340000 	ldreq	r0, [r4, #-0]!
     870:	00134900 	andseq	r4, r3, r0, lsl #18
     874:	00183500 	andseq	r3, r8, r0, lsl #10
     878:	2e360000 	cdpcs	0, 3, cr0, cr6, cr0, {0}
     87c:	03193f00 	tsteq	r9, #0, 30
     880:	3b0b3a0e 	blcc	2cf0c0 <__bss_end__+0x2c2a78>
     884:	4919270b 	ldmdbmi	r9, {r0, r1, r3, r8, r9, sl, sp}
     888:	00193c13 	andseq	r3, r9, r3, lsl ip
     88c:	012e3700 	teqeq	lr, r0, lsl #14
     890:	0e03193f 	mcreq	9, 0, r1, cr3, cr15, {1}
     894:	0b3b0b3a 	bleq	ec3584 <__bss_end__+0xeb6f3c>
     898:	193c1927 	ldmdbne	ip!, {r0, r1, r2, r5, r8, fp, ip}
     89c:	00001301 	andeq	r1, r0, r1, lsl #6
     8a0:	3f012e38 	svccc	0x00012e38
     8a4:	3a0e0319 	bcc	381510 <__bss_end__+0x374ec8>
     8a8:	270b3b0b 	strcs	r3, [fp, -fp, lsl #22]
     8ac:	00193c19 	andseq	r3, r9, r9, lsl ip
     8b0:	11010000 	mrsne	r0, (UNDEF: 1)
     8b4:	130e2501 	movwne	r2, #58625	; 0xe501
     8b8:	1b0e030b 	blne	3814ec <__bss_end__+0x374ea4>
     8bc:	1201110e 	andne	r1, r1, #-2147483645	; 0x80000003
     8c0:	00171006 	andseq	r1, r7, r6
     8c4:	00240200 	eoreq	r0, r4, r0, lsl #4
     8c8:	0b3e0b0b 	bleq	f834fc <__bss_end__+0xf76eb4>
     8cc:	00000803 	andeq	r0, r0, r3, lsl #16
     8d0:	0b002403 	bleq	98e4 <data_abort_vector+0x27c>
     8d4:	030b3e0b 	movweq	r3, #48651	; 0xbe0b
     8d8:	0400000e 	streq	r0, [r0], #-14
     8dc:	0e030016 	mcreq	0, 0, r0, cr3, cr6, {0}
     8e0:	0b3b0b3a 	bleq	ec35d0 <__bss_end__+0xeb6f88>
     8e4:	00001349 	andeq	r1, r0, r9, asr #6
     8e8:	0b000f05 	bleq	4504 <__code_start__-0x3afc>
     8ec:	0013490b 	andseq	r4, r3, fp, lsl #18
     8f0:	00260600 	eoreq	r0, r6, r0, lsl #12
     8f4:	00001349 	andeq	r1, r0, r9, asr #6
     8f8:	3f012e07 	svccc	0x00012e07
     8fc:	3a0e0319 	bcc	381568 <__bss_end__+0x374f20>
     900:	270b3b0b 	strcs	r3, [fp, -fp, lsl #22]
     904:	11134919 	tstne	r3, r9, lsl r9
     908:	40061201 	andmi	r1, r6, r1, lsl #4
     90c:	19429718 	stmdbne	r2, {r3, r4, r8, r9, sl, ip, pc}^
     910:	00001301 	andeq	r1, r0, r1, lsl #6
     914:	03000508 	movweq	r0, #1288	; 0x508
     918:	3b0b3a0e 	blcc	2cf158 <__bss_end__+0x2c2b10>
     91c:	0213490b 	andseq	r4, r3, #180224	; 0x2c000
     920:	09000017 	stmdbeq	r0, {r0, r1, r2, r4}
     924:	08030005 	stmdaeq	r3, {r0, r2}
     928:	0b3b0b3a 	bleq	ec3618 <__bss_end__+0xeb6fd0>
     92c:	17021349 	strne	r1, [r2, -r9, asr #6]
     930:	340a0000 	strcc	r0, [sl], #-0
     934:	3a0e0300 	bcc	38153c <__bss_end__+0x374ef4>
     938:	490b3b0b 	stmdbmi	fp, {r0, r1, r3, r8, r9, fp, ip, sp}
     93c:	00170213 	andseq	r0, r7, r3, lsl r2
     940:	00340b00 	eorseq	r0, r4, r0, lsl #22
     944:	0b3a0803 	bleq	e82958 <__bss_end__+0xe76310>
     948:	13490b3b 	movtne	r0, #39739	; 0x9b3b
     94c:	00001702 	andeq	r1, r0, r2, lsl #14
     950:	0000260c 	andeq	r2, r0, ip, lsl #12
     954:	11010000 	mrsne	r0, (UNDEF: 1)
     958:	130e2501 	movwne	r2, #58625	; 0xe501
     95c:	1b0e030b 	blne	381590 <__bss_end__+0x374f48>
     960:	1201110e 	andne	r1, r1, #-2147483645	; 0x80000003
     964:	00171006 	andseq	r1, r7, r6
     968:	00240200 	eoreq	r0, r4, r0, lsl #4
     96c:	0b3e0b0b 	bleq	f835a0 <__bss_end__+0xf76f58>
     970:	00000e03 	andeq	r0, r0, r3, lsl #28
     974:	0b002403 	bleq	9988 <interrupt_vector+0x4>
     978:	030b3e0b 	movweq	r3, #48651	; 0xbe0b
     97c:	04000008 	streq	r0, [r0], #-8
     980:	0b0b000f 	bleq	2c09c4 <__bss_end__+0x2b437c>
     984:	0f050000 	svceq	0x00050000
     988:	490b0b00 	stmdbmi	fp, {r8, r9, fp}
     98c:	06000013 			; <UNDEFINED> instruction: 0x06000013
     990:	0e030016 	mcreq	0, 0, r0, cr3, cr6, {0}
     994:	0b3b0b3a 	bleq	ec3684 <__bss_end__+0xeb703c>
     998:	00001349 	andeq	r1, r0, r9, asr #6
     99c:	3f012e07 	svccc	0x00012e07
     9a0:	3a0e0319 	bcc	38160c <__bss_end__+0x374fc4>
     9a4:	270b3b0b 	strcs	r3, [fp, -fp, lsl #22]
     9a8:	11134919 	tstne	r3, r9, lsl r9
     9ac:	40061201 	andmi	r1, r6, r1, lsl #4
     9b0:	19429718 	stmdbne	r2, {r3, r4, r8, r9, sl, ip, pc}^
     9b4:	05080000 	streq	r0, [r8, #-0]
     9b8:	3a080300 	bcc	2015c0 <__bss_end__+0x1f4f78>
     9bc:	490b3b0b 	stmdbmi	fp, {r0, r1, r3, r8, r9, fp, ip, sp}
     9c0:	00180213 	andseq	r0, r8, r3, lsl r2
     9c4:	00050900 	andeq	r0, r5, r0, lsl #18
     9c8:	0b3a0803 	bleq	e829dc <__bss_end__+0xe76394>
     9cc:	13490b3b 	movtne	r0, #39739	; 0x9b3b
     9d0:	00001702 	andeq	r1, r0, r2, lsl #14
     9d4:	0300340a 	movweq	r3, #1034	; 0x40a
     9d8:	3b0b3a08 	blcc	2cf200 <__bss_end__+0x2c2bb8>
     9dc:	0213490b 	andseq	r4, r3, #180224	; 0x2c000
     9e0:	0b000017 	bleq	a44 <__code_start__-0x75bc>
     9e4:	08030034 	stmdaeq	r3, {r2, r4, r5}
     9e8:	0b3b0b3a 	bleq	ec36d8 <__bss_end__+0xeb7090>
     9ec:	18021349 	stmdane	r2, {r0, r3, r6, r8, r9, ip}
     9f0:	01000000 	mrseq	r0, (UNDEF: 0)
     9f4:	0e250111 	mcreq	1, 1, r0, cr5, cr1, {0}
     9f8:	0e030b13 	vmoveq.32	d3[0], r0
     9fc:	01110e1b 	tsteq	r1, fp, lsl lr
     a00:	17100612 			; <UNDEFINED> instruction: 0x17100612
     a04:	16020000 	strne	r0, [r2], -r0
     a08:	3a0e0300 	bcc	381610 <__bss_end__+0x374fc8>
     a0c:	490b3b0b 	stmdbmi	fp, {r0, r1, r3, r8, r9, fp, ip, sp}
     a10:	03000013 	movweq	r0, #19
     a14:	0e030113 	mcreq	1, 0, r0, cr3, cr3, {0}
     a18:	0b3a0b0b 	bleq	e8364c <__bss_end__+0xe77004>
     a1c:	13010b3b 	movwne	r0, #6971	; 0x1b3b
     a20:	0d040000 	stceq	0, cr0, [r4, #-0]
     a24:	490e0300 	stmdbmi	lr, {r8, r9}
     a28:	340b3813 	strcc	r3, [fp], #-2067	; 0x813
     a2c:	05000019 	streq	r0, [r0, #-25]
     a30:	0b0b000f 	bleq	2c0a74 <__bss_end__+0x2b442c>
     a34:	24060000 	strcs	r0, [r6], #-0
     a38:	3e0b0b00 	vmlacc.f64	d0, d11, d0
     a3c:	0008030b 	andeq	r0, r8, fp, lsl #6
     a40:	00240700 	eoreq	r0, r4, r0, lsl #14
     a44:	0b3e0b0b 	bleq	f83678 <__bss_end__+0xf77030>
     a48:	00000e03 	andeq	r0, r0, r3, lsl #28
     a4c:	0b000f08 	bleq	4674 <__code_start__-0x398c>
     a50:	0013490b 	andseq	r4, r3, fp, lsl #18
     a54:	00260900 	eoreq	r0, r6, r0, lsl #18
     a58:	00001349 	andeq	r1, r0, r9, asr #6
     a5c:	3f012e0a 	svccc	0x00012e0a
     a60:	3a0e0319 	bcc	3816cc <__bss_end__+0x375084>
     a64:	270b3b0b 	strcs	r3, [fp, -fp, lsl #22]
     a68:	11134919 	tstne	r3, r9, lsl r9
     a6c:	40061201 	andmi	r1, r6, r1, lsl #4
     a70:	19429718 	stmdbne	r2, {r3, r4, r8, r9, sl, ip, pc}^
     a74:	00001301 	andeq	r1, r0, r1, lsl #6
     a78:	0300050b 	movweq	r0, #1291	; 0x50b
     a7c:	3b0b3a08 	blcc	2cf2a4 <__bss_end__+0x2c2c5c>
     a80:	0213490b 	andseq	r4, r3, #180224	; 0x2c000
     a84:	0c000018 	stceq	0, cr0, [r0], {24}
     a88:	00000018 	andeq	r0, r0, r8, lsl r0
     a8c:	0300340d 	movweq	r3, #1037	; 0x40d
     a90:	3b0b3a08 	blcc	2cf2b8 <__bss_end__+0x2c2c70>
     a94:	0213490b 	andseq	r4, r3, #180224	; 0x2c000
     a98:	0e000018 	mcreq	0, 0, r0, cr0, cr8, {0}
     a9c:	0e030034 	mcreq	0, 0, r0, cr3, cr4, {1}
     aa0:	0b3b0b3a 	bleq	ec3790 <__bss_end__+0xeb7148>
     aa4:	18021349 	stmdane	r2, {r0, r3, r6, r8, r9, ip}
     aa8:	340f0000 	strcc	r0, [pc], #-0	; ab0 <__code_start__-0x7550>
     aac:	3a080300 	bcc	2016b4 <__bss_end__+0x1f506c>
     ab0:	490b3b0b 	stmdbmi	fp, {r0, r1, r3, r8, r9, fp, ip, sp}
     ab4:	00170213 	andseq	r0, r7, r3, lsl r2
     ab8:	82891000 	addhi	r1, r9, #0
     abc:	01110101 	tsteq	r1, r1, lsl #2
     ac0:	13011331 	movwne	r1, #4913	; 0x1331
     ac4:	8a110000 	bhi	440acc <__bss_end__+0x434484>
     ac8:	02000182 	andeq	r0, r0, #-2147483616	; 0x80000020
     acc:	18429118 	stmdane	r2, {r3, r4, r8, ip, pc}^
     ad0:	89120000 	ldmdbhi	r2, {}	; <UNPREDICTABLE>
     ad4:	11010182 	smlabbne	r1, r2, r1, r0
     ad8:	13000001 	movwne	r0, #1
     adc:	13490101 	movtne	r0, #37121	; 0x9101
     ae0:	00001301 	andeq	r1, r0, r1, lsl #6
     ae4:	49002114 	stmdbmi	r0, {r2, r4, r8, sp}
     ae8:	00052f13 	andeq	r2, r5, r3, lsl pc
     aec:	01151500 	tsteq	r5, r0, lsl #10
     af0:	13491927 	movtne	r1, #39207	; 0x9927
     af4:	00001301 	andeq	r1, r0, r1, lsl #6
     af8:	49000516 	stmdbmi	r0, {r1, r2, r4, r8, sl}
     afc:	17000013 	smladne	r0, r3, r0, r0
     b00:	0e030034 	mcreq	0, 0, r0, cr3, cr4, {1}
     b04:	0b3b0b3a 	bleq	ec37f4 <__bss_end__+0xeb71ac>
     b08:	193f1349 	ldmdbne	pc!, {r0, r3, r6, r8, r9, ip}	; <UNPREDICTABLE>
     b0c:	0000193c 	andeq	r1, r0, ip, lsr r9
     b10:	3f012e18 	svccc	0x00012e18
     b14:	3a0e0319 	bcc	381780 <__bss_end__+0x375138>
     b18:	270b3b0b 	strcs	r3, [fp, -fp, lsl #22]
     b1c:	3c134919 	ldccc	9, cr4, [r3], {25}
     b20:	00000019 	andeq	r0, r0, r9, lsl r0
     b24:	25011101 	strcs	r1, [r1, #-257]	; 0x101
     b28:	030b130e 	movweq	r1, #45838	; 0xb30e
     b2c:	110e1b0e 	tstne	lr, lr, lsl #22
     b30:	10061201 	andne	r1, r6, r1, lsl #4
     b34:	02000017 	andeq	r0, r0, #23
     b38:	0b0b0024 	bleq	2c0bd0 <__bss_end__+0x2b4588>
     b3c:	08030b3e 	stmdaeq	r3, {r1, r2, r3, r4, r5, r8, r9, fp}
     b40:	24030000 	strcs	r0, [r3], #-0
     b44:	3e0b0b00 	vmlacc.f64	d0, d11, d0
     b48:	000e030b 	andeq	r0, lr, fp, lsl #6
     b4c:	012e0400 	teqeq	lr, r0, lsl #8
     b50:	0b3a0e03 	bleq	e84364 <__bss_end__+0xe77d1c>
     b54:	19270b3b 	stmdbne	r7!, {r0, r1, r3, r4, r5, r8, r9, fp}
     b58:	01111349 	tsteq	r1, r9, asr #6
     b5c:	18400612 	stmdane	r0, {r1, r4, r9, sl}^
     b60:	01194297 			; <UNDEFINED> instruction: 0x01194297
     b64:	05000013 	streq	r0, [r0, #-19]
     b68:	08030005 	stmdaeq	r3, {r0, r2}
     b6c:	0b3b0b3a 	bleq	ec385c <__bss_end__+0xeb7214>
     b70:	17021349 	strne	r1, [r2, -r9, asr #6]
     b74:	89060000 	stmdbhi	r6, {}	; <UNPREDICTABLE>
     b78:	11010182 	smlabbne	r1, r2, r1, r0
     b7c:	00133101 	andseq	r3, r3, r1, lsl #2
     b80:	828a0700 	addhi	r0, sl, #0, 14
     b84:	18020001 	stmdane	r2, {r0}
     b88:	00184291 	mulseq	r8, r1, r2
     b8c:	002e0800 	eoreq	r0, lr, r0, lsl #16
     b90:	0e03193f 	mcreq	9, 0, r1, cr3, cr15, {1}
     b94:	0b3b0b3a 	bleq	ec3884 <__bss_end__+0xeb723c>
     b98:	01111927 	tsteq	r1, r7, lsr #18
     b9c:	18400612 	stmdane	r0, {r1, r4, r9, sl}^
     ba0:	00194297 	mulseq	r9, r7, r2
     ba4:	012e0900 	teqeq	lr, r0, lsl #18
     ba8:	0e03193f 	mcreq	9, 0, r1, cr3, cr15, {1}
     bac:	0b3b0b3a 	bleq	ec389c <__bss_end__+0xeb7254>
     bb0:	01111927 	tsteq	r1, r7, lsr #18
     bb4:	18400612 	stmdane	r0, {r1, r4, r9, sl}^
     bb8:	01194297 			; <UNDEFINED> instruction: 0x01194297
     bbc:	0a000013 	beq	c10 <__code_start__-0x73f0>
     bc0:	08030005 	stmdaeq	r3, {r0, r2}
     bc4:	0b3b0b3a 	bleq	ec38b4 <__bss_end__+0xeb726c>
     bc8:	18021349 	stmdane	r2, {r0, r3, r6, r8, r9, ip}
     bcc:	150b0000 	strne	r0, [fp, #-0]
     bd0:	49192701 	ldmdbmi	r9, {r0, r8, r9, sl, sp}
     bd4:	00130113 	andseq	r0, r3, r3, lsl r1
     bd8:	00050c00 	andeq	r0, r5, r0, lsl #24
     bdc:	00001349 	andeq	r1, r0, r9, asr #6
     be0:	0b000f0d 	bleq	481c <__code_start__-0x37e4>
     be4:	0013490b 	andseq	r4, r3, fp, lsl #18
     be8:	00340e00 	eorseq	r0, r4, r0, lsl #28
     bec:	0b3a0e03 	bleq	e84400 <__bss_end__+0xe77db8>
     bf0:	13490b3b 	movtne	r0, #39739	; 0x9b3b
     bf4:	1802193f 	stmdane	r2, {r0, r1, r2, r3, r4, r5, r8, fp, ip}
     bf8:	2e0f0000 	cdpcs	0, 0, cr0, cr15, cr0, {0}
     bfc:	03193f01 	tsteq	r9, #1, 30
     c00:	3b0b3a0e 	blcc	2cf440 <__bss_end__+0x2c2df8>
     c04:	3c19270b 	ldccc	7, cr2, [r9], {11}
     c08:	00000019 	andeq	r0, r0, r9, lsl r0
     c0c:	25011101 	strcs	r1, [r1, #-257]	; 0x101
     c10:	030b130e 	movweq	r1, #45838	; 0xb30e
     c14:	110e1b0e 	tstne	lr, lr, lsl #22
     c18:	10061201 	andne	r1, r6, r1, lsl #4
     c1c:	02000017 	andeq	r0, r0, #23
     c20:	0b0b0024 	bleq	2c0cb8 <__bss_end__+0x2b4670>
     c24:	08030b3e 	stmdaeq	r3, {r1, r2, r3, r4, r5, r8, r9, fp}
     c28:	24030000 	strcs	r0, [r3], #-0
     c2c:	3e0b0b00 	vmlacc.f64	d0, d11, d0
     c30:	000e030b 	andeq	r0, lr, fp, lsl #6
     c34:	000f0400 	andeq	r0, pc, r0, lsl #8
     c38:	13490b0b 	movtne	r0, #39691	; 0x9b0b
     c3c:	26050000 	strcs	r0, [r5], -r0
     c40:	00134900 	andseq	r4, r3, r0, lsl #18
     c44:	012e0600 	teqeq	lr, r0, lsl #12
     c48:	0e03193f 	mcreq	9, 0, r1, cr3, cr15, {1}
     c4c:	0b3b0b3a 	bleq	ec393c <__bss_end__+0xeb72f4>
     c50:	13491927 	movtne	r1, #39207	; 0x9927
     c54:	06120111 			; <UNDEFINED> instruction: 0x06120111
     c58:	42961840 	addsmi	r1, r6, #64, 16	; 0x400000
     c5c:	00130119 	andseq	r0, r3, r9, lsl r1
     c60:	00050700 	andeq	r0, r5, r0, lsl #14
     c64:	0b3a0803 	bleq	e82c78 <__bss_end__+0xe76630>
     c68:	13490b3b 	movtne	r0, #39739	; 0x9b3b
     c6c:	00001702 	andeq	r1, r0, r2, lsl #14
     c70:	27011508 	strcs	r1, [r1, -r8, lsl #10]
     c74:	01134919 	tsteq	r3, r9, lsl r9
     c78:	09000013 	stmdbeq	r0, {r0, r1, r4}
     c7c:	13490005 	movtne	r0, #36869	; 0x9005
     c80:	340a0000 	strcc	r0, [sl], #-0
     c84:	3a0e0300 	bcc	38188c <__bss_end__+0x375244>
     c88:	490b3b0b 	stmdbmi	fp, {r0, r1, r3, r8, r9, fp, ip, sp}
     c8c:	3c193f13 	ldccc	15, cr3, [r9], {19}
     c90:	0b000019 	bleq	cfc <__code_start__-0x7304>
     c94:	0e030034 	mcreq	0, 0, r0, cr3, cr4, {1}
     c98:	0b3b0b3a 	bleq	ec3988 <__bss_end__+0xeb7340>
     c9c:	193f1349 	ldmdbne	pc!, {r0, r3, r6, r8, r9, ip}	; <UNPREDICTABLE>
     ca0:	00001802 	andeq	r1, r0, r2, lsl #16
     ca4:	01110100 	tsteq	r1, r0, lsl #2
     ca8:	0b130e25 	bleq	4c4544 <__bss_end__+0x4b7efc>
     cac:	0e1b0e03 	cdpeq	14, 1, cr0, cr11, cr3, {0}
     cb0:	06120111 			; <UNDEFINED> instruction: 0x06120111
     cb4:	00001710 	andeq	r1, r0, r0, lsl r7
     cb8:	0b002402 	bleq	9cc8 <memcheck_track+0x5c>
     cbc:	030b3e0b 	movweq	r3, #48651	; 0xbe0b
     cc0:	03000008 	movweq	r0, #8
     cc4:	0b0b0024 	bleq	2c0d5c <__bss_end__+0x2b4714>
     cc8:	0e030b3e 	vmoveq.16	d3[0], r0
     ccc:	0f040000 	svceq	0x00040000
     cd0:	000b0b00 	andeq	r0, fp, r0, lsl #22
     cd4:	000f0500 	andeq	r0, pc, r0, lsl #10
     cd8:	13490b0b 	movtne	r0, #39691	; 0x9b0b
     cdc:	26060000 	strcs	r0, [r6], -r0
     ce0:	00134900 	andseq	r4, r3, r0, lsl #18
     ce4:	00160700 	andseq	r0, r6, r0, lsl #14
     ce8:	0b3a0e03 	bleq	e844fc <__bss_end__+0xe77eb4>
     cec:	13490b3b 	movtne	r0, #39739	; 0x9b3b
     cf0:	13080000 	movwne	r0, #32768	; 0x8000
     cf4:	0b0e0301 	bleq	381900 <__bss_end__+0x3752b8>
     cf8:	3b0b3a0b 	blcc	2cf52c <__bss_end__+0x2c2ee4>
     cfc:	0013010b 	andseq	r0, r3, fp, lsl #2
     d00:	000d0900 	andeq	r0, sp, r0, lsl #18
     d04:	13490e03 	movtne	r0, #40451	; 0x9e03
     d08:	19340b38 	ldmdbne	r4!, {r3, r4, r5, r8, r9, fp}
     d0c:	2e0a0000 	cdpcs	0, 0, cr0, cr10, cr0, {0}
     d10:	3a0e0301 	bcc	38191c <__bss_end__+0x3752d4>
     d14:	270b3b0b 	strcs	r3, [fp, -fp, lsl #22]
     d18:	11134919 	tstne	r3, r9, lsl r9
     d1c:	40061201 	andmi	r1, r6, r1, lsl #4
     d20:	19429718 	stmdbne	r2, {r3, r4, r8, r9, sl, ip, pc}^
     d24:	00001301 	andeq	r1, r0, r1, lsl #6
     d28:	0300050b 	movweq	r0, #1291	; 0x50b
     d2c:	3b0b3a08 	blcc	2cf554 <__bss_end__+0x2c2f0c>
     d30:	0213490b 	andseq	r4, r3, #180224	; 0x2c000
     d34:	0c000017 	stceq	0, cr0, [r0], {23}
     d38:	0803012e 	stmdaeq	r3, {r1, r2, r3, r5, r8}
     d3c:	0b3b0b3a 	bleq	ec3a2c <__bss_end__+0xeb73e4>
     d40:	13491927 	movtne	r1, #39207	; 0x9927
     d44:	06120111 			; <UNDEFINED> instruction: 0x06120111
     d48:	42971840 	addsmi	r1, r7, #64, 16	; 0x400000
     d4c:	00130119 	andseq	r0, r3, r9, lsl r1
     d50:	00050d00 	andeq	r0, r5, r0, lsl #26
     d54:	0b3a0e03 	bleq	e84568 <__bss_end__+0xe77f20>
     d58:	13490b3b 	movtne	r0, #39739	; 0x9b3b
     d5c:	00001702 	andeq	r1, r0, r2, lsl #14
     d60:	0300050e 	movweq	r0, #1294	; 0x50e
     d64:	3b0b3a0e 	blcc	2cf5a4 <__bss_end__+0x2c2f5c>
     d68:	0213490b 	andseq	r4, r3, #180224	; 0x2c000
     d6c:	0f000018 	svceq	0x00000018
     d70:	08030034 	stmdaeq	r3, {r2, r4, r5}
     d74:	0b3b0b3a 	bleq	ec3a64 <__bss_end__+0xeb741c>
     d78:	18021349 	stmdane	r2, {r0, r3, r6, r8, r9, ip}
     d7c:	34100000 	ldrcc	r0, [r0], #-0
     d80:	3a080300 	bcc	201988 <__bss_end__+0x1f5340>
     d84:	490b3b0b 	stmdbmi	fp, {r0, r1, r3, r8, r9, fp, ip, sp}
     d88:	00170213 	andseq	r0, r7, r3, lsl r2
     d8c:	00341100 	eorseq	r1, r4, r0, lsl #2
     d90:	13490e03 	movtne	r0, #40451	; 0x9e03
     d94:	18021934 	stmdane	r2, {r2, r4, r5, r8, fp, ip}
     d98:	0b120000 	bleq	480da0 <__bss_end__+0x474758>
     d9c:	12011101 	andne	r1, r1, #1073741824	; 0x40000000
     da0:	00130106 	andseq	r0, r3, r6, lsl #2
     da4:	00341300 	eorseq	r1, r4, r0, lsl #6
     da8:	0b3a0e03 	bleq	e845bc <__bss_end__+0xe77f74>
     dac:	13490b3b 	movtne	r0, #39739	; 0x9b3b
     db0:	00001702 	andeq	r1, r0, r2, lsl #14
     db4:	01828914 	orreq	r8, r2, r4, lsl r9
     db8:	31011100 	mrscc	r1, (UNDEF: 17)
     dbc:	15000013 	strne	r0, [r0, #-19]
     dc0:	01018289 	smlabbeq	r1, r9, r2, r8
     dc4:	13310111 	teqne	r1, #1073741828	; 0x40000004
     dc8:	00001301 	andeq	r1, r0, r1, lsl #6
     dcc:	01828a16 	orreq	r8, r2, r6, lsl sl
     dd0:	91180200 	tstls	r8, r0, lsl #4
     dd4:	00001842 	andeq	r1, r0, r2, asr #16
     dd8:	01828917 	orreq	r8, r2, r7, lsl r9
     ddc:	31011101 	tstcc	r1, r1, lsl #2
     de0:	18000013 	stmdane	r0, {r0, r1, r4}
     de4:	13490101 	movtne	r0, #37121	; 0x9101
     de8:	00001301 	andeq	r1, r0, r1, lsl #6
     dec:	49002119 	stmdbmi	r0, {r0, r3, r4, r8, sp}
     df0:	000b2f13 	andeq	r2, fp, r3, lsl pc
     df4:	012e1a00 	teqeq	lr, r0, lsl #20
     df8:	0e03193f 	mcreq	9, 0, r1, cr3, cr15, {1}
     dfc:	0b3b0b3a 	bleq	ec3aec <__bss_end__+0xeb74a4>
     e00:	01111927 	tsteq	r1, r7, lsr #18
     e04:	18400612 	stmdane	r0, {r1, r4, r9, sl}^
     e08:	01194297 			; <UNDEFINED> instruction: 0x01194297
     e0c:	1b000013 	blne	e60 <__code_start__-0x71a0>
     e10:	19270115 	stmdbne	r7!, {r0, r2, r4, r8}
     e14:	13011349 	movwne	r1, #4937	; 0x1349
     e18:	051c0000 	ldreq	r0, [ip, #-0]
     e1c:	00134900 	andseq	r4, r3, r0, lsl #18
     e20:	012e1d00 	teqeq	lr, r0, lsl #26
     e24:	0e03193f 	mcreq	9, 0, r1, cr3, cr15, {1}
     e28:	0b3b0b3a 	bleq	ec3b18 <__bss_end__+0xeb74d0>
     e2c:	13491927 	movtne	r1, #39207	; 0x9927
     e30:	06120111 			; <UNDEFINED> instruction: 0x06120111
     e34:	42971840 	addsmi	r1, r7, #64, 16	; 0x400000
     e38:	00130119 	andseq	r0, r3, r9, lsl r1
     e3c:	010b1e00 	tsteq	fp, r0, lsl #28
     e40:	06120111 			; <UNDEFINED> instruction: 0x06120111
     e44:	891f0000 	ldmdbhi	pc, {}	; <UNPREDICTABLE>
     e48:	11010182 	smlabbne	r1, r2, r1, r0
     e4c:	00130101 	andseq	r0, r3, r1, lsl #2
     e50:	00342000 	eorseq	r2, r4, r0
     e54:	0b3a0e03 	bleq	e84668 <__bss_end__+0xe78020>
     e58:	13490b3b 	movtne	r0, #39739	; 0x9b3b
     e5c:	193c193f 	ldmdbne	ip!, {r0, r1, r2, r3, r4, r5, r8, fp, ip}
     e60:	2e210000 	cdpcs	0, 2, cr0, cr1, cr0, {0}
     e64:	03193f00 	tsteq	r9, #0, 30
     e68:	3b0b3a0e 	blcc	2cf6a8 <__bss_end__+0x2c3060>
     e6c:	3c19270b 	ldccc	7, cr2, [r9], {11}
     e70:	22000019 	andcs	r0, r0, #25
     e74:	193f012e 	ldmdbne	pc!, {r1, r2, r3, r5, r8}	; <UNPREDICTABLE>
     e78:	0b3a0e03 	bleq	e8468c <__bss_end__+0xe78044>
     e7c:	19270b3b 	stmdbne	r7!, {r0, r1, r3, r4, r5, r8, r9, fp}
     e80:	193c1349 	ldmdbne	ip!, {r0, r3, r6, r8, r9, ip}
     e84:	00001301 	andeq	r1, r0, r1, lsl #6
     e88:	00001823 	andeq	r1, r0, r3, lsr #16
     e8c:	11010000 	mrsne	r0, (UNDEF: 1)
     e90:	130e2501 	movwne	r2, #58625	; 0xe501
     e94:	1b0e030b 	blne	381ac8 <__bss_end__+0x375480>
     e98:	1201110e 	andne	r1, r1, #-2147483645	; 0x80000003
     e9c:	00171006 	andseq	r1, r7, r6
     ea0:	00240200 	eoreq	r0, r4, r0, lsl #4
     ea4:	0b3e0b0b 	bleq	f83ad8 <__bss_end__+0xf77490>
     ea8:	00000803 	andeq	r0, r0, r3, lsl #16
     eac:	0b002403 	bleq	9ec0 <cp15_dtlb_inv+0x4>
     eb0:	030b3e0b 	movweq	r3, #48651	; 0xbe0b
     eb4:	0400000e 	streq	r0, [r0], #-14
     eb8:	0b0b000f 	bleq	2c0efc <__bss_end__+0x2b48b4>
     ebc:	00001349 	andeq	r1, r0, r9, asr #6
     ec0:	49002605 	stmdbmi	r0, {r0, r2, r9, sl, sp}
     ec4:	06000013 			; <UNDEFINED> instruction: 0x06000013
     ec8:	193f012e 	ldmdbne	pc!, {r1, r2, r3, r5, r8}	; <UNPREDICTABLE>
     ecc:	0b3a0e03 	bleq	e846e0 <__bss_end__+0xe78098>
     ed0:	19270b3b 	stmdbne	r7!, {r0, r1, r3, r4, r5, r8, r9, fp}
     ed4:	06120111 			; <UNDEFINED> instruction: 0x06120111
     ed8:	42971840 	addsmi	r1, r7, #64, 16	; 0x400000
     edc:	00130119 	andseq	r0, r3, r9, lsl r1
     ee0:	82890700 	addhi	r0, r9, #0, 14
     ee4:	01110001 	tsteq	r1, r1
     ee8:	00001331 	andeq	r1, r0, r1, lsr r3
     eec:	01828908 	orreq	r8, r2, r8, lsl #18
     ef0:	01011101 	tsteq	r1, r1, lsl #2
     ef4:	09000013 	stmdbeq	r0, {r0, r1, r4}
     ef8:	0001828a 	andeq	r8, r1, sl, lsl #5
     efc:	42911802 	addsmi	r1, r1, #131072	; 0x20000
     f00:	0a000018 	beq	f68 <__code_start__-0x7098>
     f04:	01018289 	smlabbeq	r1, r9, r2, r8
     f08:	13310111 	teqne	r1, #1073741828	; 0x40000004
     f0c:	00001301 	andeq	r1, r0, r1, lsl #6
     f10:	2701150b 	strcs	r1, [r1, -fp, lsl #10]
     f14:	01134919 	tsteq	r3, r9, lsl r9
     f18:	0c000013 	stceq	0, cr0, [r0], {19}
     f1c:	13490005 	movtne	r0, #36869	; 0x9005
     f20:	340d0000 	strcc	r0, [sp], #-0
     f24:	3a0e0300 	bcc	381b2c <__bss_end__+0x3754e4>
     f28:	490b3b0b 	stmdbmi	fp, {r0, r1, r3, r8, r9, fp, ip, sp}
     f2c:	3c193f13 	ldccc	15, cr3, [r9], {19}
     f30:	0e000019 	mcreq	0, 0, r0, cr0, cr9, {0}
     f34:	193f002e 	ldmdbne	pc!, {r1, r2, r3, r5}	; <UNPREDICTABLE>
     f38:	0b3a0e03 	bleq	e8474c <__bss_end__+0xe78104>
     f3c:	19270b3b 	stmdbne	r7!, {r0, r1, r3, r4, r5, r8, r9, fp}
     f40:	0000193c 	andeq	r1, r0, ip, lsr r9
     f44:	3f012e0f 	svccc	0x00012e0f
     f48:	3a0e0319 	bcc	381bb4 <__bss_end__+0x37556c>
     f4c:	270b3b0b 	strcs	r3, [fp, -fp, lsl #22]
     f50:	01193c19 	tsteq	r9, r9, lsl ip
     f54:	00000013 	andeq	r0, r0, r3, lsl r0
     f58:	25011101 	strcs	r1, [r1, #-257]	; 0x101
     f5c:	030b130e 	movweq	r1, #45838	; 0xb30e
     f60:	110e1b0e 	tstne	lr, lr, lsl #22
     f64:	10061201 	andne	r1, r6, r1, lsl #4
     f68:	02000017 	andeq	r0, r0, #23
     f6c:	0b0b0024 	bleq	2c1004 <__bss_end__+0x2b49bc>
     f70:	08030b3e 	stmdaeq	r3, {r1, r2, r3, r4, r5, r8, r9, fp}
     f74:	24030000 	strcs	r0, [r3], #-0
     f78:	3e0b0b00 	vmlacc.f64	d0, d11, d0
     f7c:	000e030b 	andeq	r0, lr, fp, lsl #6
     f80:	012e0400 	teqeq	lr, r0, lsl #8
     f84:	0e03193f 	mcreq	9, 0, r1, cr3, cr15, {1}
     f88:	0b3b0b3a 	bleq	ec3c78 <__bss_end__+0xeb7630>
     f8c:	06120111 			; <UNDEFINED> instruction: 0x06120111
     f90:	42971840 	addsmi	r1, r7, #64, 16	; 0x400000
     f94:	00130119 	andseq	r0, r3, r9, lsl r1
     f98:	00340500 	eorseq	r0, r4, r0, lsl #10
     f9c:	0b3a0e03 	bleq	e847b0 <__bss_end__+0xe78168>
     fa0:	13490b3b 	movtne	r0, #39739	; 0x9b3b
     fa4:	193c193f 	ldmdbne	ip!, {r0, r1, r2, r3, r4, r5, r8, fp, ip}
     fa8:	2e060000 	cdpcs	0, 0, cr0, cr6, cr0, {0}
     fac:	03193f00 	tsteq	r9, #0, 30
     fb0:	3b0b3a0e 	blcc	2cf7f0 <__bss_end__+0x2c31a8>
     fb4:	3c19270b 	ldccc	7, cr2, [r9], {11}
     fb8:	07000019 	smladeq	r0, r9, r0, r0
     fbc:	08030034 	stmdaeq	r3, {r2, r4, r5}
     fc0:	0b3b0b3a 	bleq	ec3cb0 <__bss_end__+0xeb7668>
     fc4:	17021349 	strne	r1, [r2, -r9, asr #6]
     fc8:	34080000 	strcc	r0, [r8], #-0
     fcc:	3a0e0300 	bcc	381bd4 <__bss_end__+0x37558c>
     fd0:	490b3b0b 	stmdbmi	fp, {r0, r1, r3, r8, r9, fp, ip, sp}
     fd4:	09000013 	stmdbeq	r0, {r0, r1, r4}
     fd8:	00018289 	andeq	r8, r1, r9, lsl #5
     fdc:	13310111 	teqne	r1, #1073741828	; 0x40000004
     fe0:	0f0a0000 	svceq	0x000a0000
     fe4:	490b0b00 	stmdbmi	fp, {r8, r9, fp}
     fe8:	00000013 	andeq	r0, r0, r3, lsl r0
     fec:	25011101 	strcs	r1, [r1, #-257]	; 0x101
     ff0:	030b130e 	movweq	r1, #45838	; 0xb30e
     ff4:	110e1b0e 	tstne	lr, lr, lsl #22
     ff8:	10061201 	andne	r1, r6, r1, lsl #4
     ffc:	02000017 	andeq	r0, r0, #23
    1000:	0b0b0024 	bleq	2c1098 <__bss_end__+0x2b4a50>
    1004:	08030b3e 	stmdaeq	r3, {r1, r2, r3, r4, r5, r8, r9, fp}
    1008:	24030000 	strcs	r0, [r3], #-0
    100c:	3e0b0b00 	vmlacc.f64	d0, d11, d0
    1010:	000e030b 	andeq	r0, lr, fp, lsl #6
    1014:	000f0400 	andeq	r0, pc, r0, lsl #8
    1018:	13490b0b 	movtne	r0, #39691	; 0x9b0b
    101c:	26050000 	strcs	r0, [r5], -r0
    1020:	00134900 	andseq	r4, r3, r0, lsl #18
    1024:	012e0600 	teqeq	lr, r0, lsl #12
    1028:	0e03193f 	mcreq	9, 0, r1, cr3, cr15, {1}
    102c:	0b3b0b3a 	bleq	ec3d1c <__bss_end__+0xeb76d4>
    1030:	01111927 	tsteq	r1, r7, lsr #18
    1034:	18400612 	stmdane	r0, {r1, r4, r9, sl}^
    1038:	01194297 			; <UNDEFINED> instruction: 0x01194297
    103c:	07000013 	smladeq	r0, r3, r0, r0
    1040:	08030005 	stmdaeq	r3, {r0, r2}
    1044:	0b3b0b3a 	bleq	ec3d34 <__bss_end__+0xeb76ec>
    1048:	17021349 	strne	r1, [r2, -r9, asr #6]
    104c:	34080000 	strcc	r0, [r8], #-0
    1050:	490e0300 	stmdbmi	lr, {r8, r9}
    1054:	02193413 	andseq	r3, r9, #318767104	; 0x13000000
    1058:	09000018 	stmdbeq	r0, {r3, r4}
    105c:	00018289 	andeq	r8, r1, r9, lsl #5
    1060:	13310111 	teqne	r1, #1073741828	; 0x40000004
    1064:	890a0000 	stmdbhi	sl, {}	; <UNPREDICTABLE>
    1068:	11010182 	smlabbne	r1, r2, r1, r0
    106c:	01133101 	tsteq	r3, r1, lsl #2
    1070:	0b000013 	bleq	10c4 <__code_start__-0x6f3c>
    1074:	0001828a 	andeq	r8, r1, sl, lsl #5
    1078:	42911802 	addsmi	r1, r1, #131072	; 0x20000
    107c:	0c000018 	stceq	0, cr0, [r0], {24}
    1080:	13490101 	movtne	r0, #37121	; 0x9101
    1084:	00001301 	andeq	r1, r0, r1, lsl #6
    1088:	4900210d 	stmdbmi	r0, {r0, r2, r3, r8, sp}
    108c:	000b2f13 	andeq	r2, fp, r3, lsl pc
    1090:	002e0e00 	eoreq	r0, lr, r0, lsl #28
    1094:	0e03193f 	mcreq	9, 0, r1, cr3, cr15, {1}
    1098:	0b3b0b3a 	bleq	ec3d88 <__bss_end__+0xeb7740>
    109c:	193c1927 	ldmdbne	ip!, {r0, r1, r2, r5, r8, fp, ip}
    10a0:	2e0f0000 	cdpcs	0, 0, cr0, cr15, cr0, {0}
    10a4:	03193f01 	tsteq	r9, #1, 30
    10a8:	3b0b3a0e 	blcc	2cf8e8 <__bss_end__+0x2c32a0>
    10ac:	4919270b 	ldmdbmi	r9, {r0, r1, r3, r8, r9, sl, sp}
    10b0:	01193c13 	tsteq	r9, r3, lsl ip
    10b4:	10000013 	andne	r0, r0, r3, lsl r0
    10b8:	13490005 	movtne	r0, #36869	; 0x9005
    10bc:	18110000 	ldmdane	r1, {}	; <UNPREDICTABLE>
    10c0:	00000000 	andeq	r0, r0, r0
    10c4:	25011101 	strcs	r1, [r1, #-257]	; 0x101
    10c8:	030b130e 	movweq	r1, #45838	; 0xb30e
    10cc:	110e1b0e 	tstne	lr, lr, lsl #22
    10d0:	10061201 	andne	r1, r6, r1, lsl #4
    10d4:	02000017 	andeq	r0, r0, #23
    10d8:	0b0b0024 	bleq	2c1170 <__bss_end__+0x2b4b28>
    10dc:	08030b3e 	stmdaeq	r3, {r1, r2, r3, r4, r5, r8, r9, fp}
    10e0:	24030000 	strcs	r0, [r3], #-0
    10e4:	3e0b0b00 	vmlacc.f64	d0, d11, d0
    10e8:	000e030b 	andeq	r0, lr, fp, lsl #6
    10ec:	000f0400 	andeq	r0, pc, r0, lsl #8
    10f0:	13490b0b 	movtne	r0, #39691	; 0x9b0b
    10f4:	26050000 	strcs	r0, [r5], -r0
    10f8:	00134900 	andseq	r4, r3, r0, lsl #18
    10fc:	012e0600 	teqeq	lr, r0, lsl #12
    1100:	0e03193f 	mcreq	9, 0, r1, cr3, cr15, {1}
    1104:	0b3b0b3a 	bleq	ec3df4 <__bss_end__+0xeb77ac>
    1108:	01111927 	tsteq	r1, r7, lsr #18
    110c:	18400612 	stmdane	r0, {r1, r4, r9, sl}^
    1110:	01194297 			; <UNDEFINED> instruction: 0x01194297
    1114:	07000013 	smladeq	r0, r3, r0, r0
    1118:	08030005 	stmdaeq	r3, {r0, r2}
    111c:	0b3b0b3a 	bleq	ec3e0c <__bss_end__+0xeb77c4>
    1120:	17021349 	strne	r1, [r2, -r9, asr #6]
    1124:	34080000 	strcc	r0, [r8], #-0
    1128:	490e0300 	stmdbmi	lr, {r8, r9}
    112c:	02193413 	andseq	r3, r9, #318767104	; 0x13000000
    1130:	09000018 	stmdbeq	r0, {r3, r4}
    1134:	00018289 	andeq	r8, r1, r9, lsl #5
    1138:	13310111 	teqne	r1, #1073741828	; 0x40000004
    113c:	890a0000 	stmdbhi	sl, {}	; <UNPREDICTABLE>
    1140:	11010182 	smlabbne	r1, r2, r1, r0
    1144:	01133101 	tsteq	r3, r1, lsl #2
    1148:	0b000013 	bleq	119c <__code_start__-0x6e64>
    114c:	0001828a 	andeq	r8, r1, sl, lsl #5
    1150:	42911802 	addsmi	r1, r1, #131072	; 0x20000
    1154:	0c000018 	stceq	0, cr0, [r0], {24}
    1158:	13490101 	movtne	r0, #37121	; 0x9101
    115c:	00001301 	andeq	r1, r0, r1, lsl #6
    1160:	4900210d 	stmdbmi	r0, {r0, r2, r3, r8, sp}
    1164:	000b2f13 	andeq	r2, fp, r3, lsl pc
    1168:	002e0e00 	eoreq	r0, lr, r0, lsl #28
    116c:	0e03193f 	mcreq	9, 0, r1, cr3, cr15, {1}
    1170:	0b3b0b3a 	bleq	ec3e60 <__bss_end__+0xeb7818>
    1174:	193c1927 	ldmdbne	ip!, {r0, r1, r2, r5, r8, fp, ip}
    1178:	2e0f0000 	cdpcs	0, 0, cr0, cr15, cr0, {0}
    117c:	03193f01 	tsteq	r9, #1, 30
    1180:	3b0b3a0e 	blcc	2cf9c0 <__bss_end__+0x2c3378>
    1184:	4919270b 	ldmdbmi	r9, {r0, r1, r3, r8, r9, sl, sp}
    1188:	01193c13 	tsteq	r9, r3, lsl ip
    118c:	10000013 	andne	r0, r0, r3, lsl r0
    1190:	13490005 	movtne	r0, #36869	; 0x9005
    1194:	18110000 	ldmdane	r1, {}	; <UNPREDICTABLE>
    1198:	00000000 	andeq	r0, r0, r0
    119c:	25011101 	strcs	r1, [r1, #-257]	; 0x101
    11a0:	030b130e 	movweq	r1, #45838	; 0xb30e
    11a4:	110e1b0e 	tstne	lr, lr, lsl #22
    11a8:	10061201 	andne	r1, r6, r1, lsl #4
    11ac:	02000017 	andeq	r0, r0, #23
    11b0:	0b0b0024 	bleq	2c1248 <__bss_end__+0x2b4c00>
    11b4:	08030b3e 	stmdaeq	r3, {r1, r2, r3, r4, r5, r8, r9, fp}
    11b8:	24030000 	strcs	r0, [r3], #-0
    11bc:	3e0b0b00 	vmlacc.f64	d0, d11, d0
    11c0:	000e030b 	andeq	r0, lr, fp, lsl #6
    11c4:	000f0400 	andeq	r0, pc, r0, lsl #8
    11c8:	13490b0b 	movtne	r0, #39691	; 0x9b0b
    11cc:	26050000 	strcs	r0, [r5], -r0
    11d0:	00134900 	andseq	r4, r3, r0, lsl #18
    11d4:	012e0600 	teqeq	lr, r0, lsl #12
    11d8:	0e03193f 	mcreq	9, 0, r1, cr3, cr15, {1}
    11dc:	0b3b0b3a 	bleq	ec3ecc <__bss_end__+0xeb7884>
    11e0:	01111927 	tsteq	r1, r7, lsr #18
    11e4:	18400612 	stmdane	r0, {r1, r4, r9, sl}^
    11e8:	01194297 			; <UNDEFINED> instruction: 0x01194297
    11ec:	07000013 	smladeq	r0, r3, r0, r0
    11f0:	08030005 	stmdaeq	r3, {r0, r2}
    11f4:	0b3b0b3a 	bleq	ec3ee4 <__bss_end__+0xeb789c>
    11f8:	17021349 	strne	r1, [r2, -r9, asr #6]
    11fc:	34080000 	strcc	r0, [r8], #-0
    1200:	490e0300 	stmdbmi	lr, {r8, r9}
    1204:	02193413 	andseq	r3, r9, #318767104	; 0x13000000
    1208:	09000018 	stmdbeq	r0, {r3, r4}
    120c:	00018289 	andeq	r8, r1, r9, lsl #5
    1210:	13310111 	teqne	r1, #1073741828	; 0x40000004
    1214:	890a0000 	stmdbhi	sl, {}	; <UNPREDICTABLE>
    1218:	11010182 	smlabbne	r1, r2, r1, r0
    121c:	01133101 	tsteq	r3, r1, lsl #2
    1220:	0b000013 	bleq	1274 <__code_start__-0x6d8c>
    1224:	0001828a 	andeq	r8, r1, sl, lsl #5
    1228:	42911802 	addsmi	r1, r1, #131072	; 0x20000
    122c:	0c000018 	stceq	0, cr0, [r0], {24}
    1230:	13490101 	movtne	r0, #37121	; 0x9101
    1234:	00001301 	andeq	r1, r0, r1, lsl #6
    1238:	4900210d 	stmdbmi	r0, {r0, r2, r3, r8, sp}
    123c:	000b2f13 	andeq	r2, fp, r3, lsl pc
    1240:	002e0e00 	eoreq	r0, lr, r0, lsl #28
    1244:	0e03193f 	mcreq	9, 0, r1, cr3, cr15, {1}
    1248:	0b3b0b3a 	bleq	ec3f38 <__bss_end__+0xeb78f0>
    124c:	193c1927 	ldmdbne	ip!, {r0, r1, r2, r5, r8, fp, ip}
    1250:	2e0f0000 	cdpcs	0, 0, cr0, cr15, cr0, {0}
    1254:	03193f01 	tsteq	r9, #1, 30
    1258:	3b0b3a0e 	blcc	2cfa98 <__bss_end__+0x2c3450>
    125c:	4919270b 	ldmdbmi	r9, {r0, r1, r3, r8, r9, sl, sp}
    1260:	01193c13 	tsteq	r9, r3, lsl ip
    1264:	10000013 	andne	r0, r0, r3, lsl r0
    1268:	13490005 	movtne	r0, #36869	; 0x9005
    126c:	18110000 	ldmdane	r1, {}	; <UNPREDICTABLE>
    1270:	00000000 	andeq	r0, r0, r0
    1274:	25011101 	strcs	r1, [r1, #-257]	; 0x101
    1278:	030b130e 	movweq	r1, #45838	; 0xb30e
    127c:	110e1b0e 	tstne	lr, lr, lsl #22
    1280:	10061201 	andne	r1, r6, r1, lsl #4
    1284:	02000017 	andeq	r0, r0, #23
    1288:	0b0b0024 	bleq	2c1320 <__bss_end__+0x2b4cd8>
    128c:	08030b3e 	stmdaeq	r3, {r1, r2, r3, r4, r5, r8, r9, fp}
    1290:	24030000 	strcs	r0, [r3], #-0
    1294:	3e0b0b00 	vmlacc.f64	d0, d11, d0
    1298:	000e030b 	andeq	r0, lr, fp, lsl #6
    129c:	000f0400 	andeq	r0, pc, r0, lsl #8
    12a0:	13490b0b 	movtne	r0, #39691	; 0x9b0b
    12a4:	26050000 	strcs	r0, [r5], -r0
    12a8:	00134900 	andseq	r4, r3, r0, lsl #18
    12ac:	012e0600 	teqeq	lr, r0, lsl #12
    12b0:	0e03193f 	mcreq	9, 0, r1, cr3, cr15, {1}
    12b4:	0b3b0b3a 	bleq	ec3fa4 <__bss_end__+0xeb795c>
    12b8:	01111927 	tsteq	r1, r7, lsr #18
    12bc:	18400612 	stmdane	r0, {r1, r4, r9, sl}^
    12c0:	01194297 			; <UNDEFINED> instruction: 0x01194297
    12c4:	07000013 	smladeq	r0, r3, r0, r0
    12c8:	08030005 	stmdaeq	r3, {r0, r2}
    12cc:	0b3b0b3a 	bleq	ec3fbc <__bss_end__+0xeb7974>
    12d0:	17021349 	strne	r1, [r2, -r9, asr #6]
    12d4:	34080000 	strcc	r0, [r8], #-0
    12d8:	490e0300 	stmdbmi	lr, {r8, r9}
    12dc:	02193413 	andseq	r3, r9, #318767104	; 0x13000000
    12e0:	09000018 	stmdbeq	r0, {r3, r4}
    12e4:	00018289 	andeq	r8, r1, r9, lsl #5
    12e8:	13310111 	teqne	r1, #1073741828	; 0x40000004
    12ec:	890a0000 	stmdbhi	sl, {}	; <UNPREDICTABLE>
    12f0:	11010182 	smlabbne	r1, r2, r1, r0
    12f4:	01133101 	tsteq	r3, r1, lsl #2
    12f8:	0b000013 	bleq	134c <__code_start__-0x6cb4>
    12fc:	0001828a 	andeq	r8, r1, sl, lsl #5
    1300:	42911802 	addsmi	r1, r1, #131072	; 0x20000
    1304:	0c000018 	stceq	0, cr0, [r0], {24}
    1308:	13490101 	movtne	r0, #37121	; 0x9101
    130c:	00001301 	andeq	r1, r0, r1, lsl #6
    1310:	4900210d 	stmdbmi	r0, {r0, r2, r3, r8, sp}
    1314:	000b2f13 	andeq	r2, fp, r3, lsl pc
    1318:	002e0e00 	eoreq	r0, lr, r0, lsl #28
    131c:	0e03193f 	mcreq	9, 0, r1, cr3, cr15, {1}
    1320:	0b3b0b3a 	bleq	ec4010 <__bss_end__+0xeb79c8>
    1324:	193c1927 	ldmdbne	ip!, {r0, r1, r2, r5, r8, fp, ip}
    1328:	2e0f0000 	cdpcs	0, 0, cr0, cr15, cr0, {0}
    132c:	03193f01 	tsteq	r9, #1, 30
    1330:	3b0b3a0e 	blcc	2cfb70 <__bss_end__+0x2c3528>
    1334:	4919270b 	ldmdbmi	r9, {r0, r1, r3, r8, r9, sl, sp}
    1338:	01193c13 	tsteq	r9, r3, lsl ip
    133c:	10000013 	andne	r0, r0, r3, lsl r0
    1340:	13490005 	movtne	r0, #36869	; 0x9005
    1344:	18110000 	ldmdane	r1, {}	; <UNPREDICTABLE>
    1348:	00000000 	andeq	r0, r0, r0
    134c:	25011101 	strcs	r1, [r1, #-257]	; 0x101
    1350:	030b130e 	movweq	r1, #45838	; 0xb30e
    1354:	110e1b0e 	tstne	lr, lr, lsl #22
    1358:	10061201 	andne	r1, r6, r1, lsl #4
    135c:	02000017 	andeq	r0, r0, #23
    1360:	0b0b0024 	bleq	2c13f8 <__bss_end__+0x2b4db0>
    1364:	08030b3e 	stmdaeq	r3, {r1, r2, r3, r4, r5, r8, r9, fp}
    1368:	24030000 	strcs	r0, [r3], #-0
    136c:	3e0b0b00 	vmlacc.f64	d0, d11, d0
    1370:	000e030b 	andeq	r0, lr, fp, lsl #6
    1374:	002e0400 	eoreq	r0, lr, r0, lsl #8
    1378:	0e03193f 	mcreq	9, 0, r1, cr3, cr15, {1}
    137c:	0b3b0b3a 	bleq	ec406c <__bss_end__+0xeb7a24>
    1380:	01111927 	tsteq	r1, r7, lsr #18
    1384:	18400612 	stmdane	r0, {r1, r4, r9, sl}^
    1388:	00194297 	mulseq	r9, r7, r2
    138c:	11010000 	mrsne	r0, (UNDEF: 1)
    1390:	130e2501 	movwne	r2, #58625	; 0xe501
    1394:	1b0e030b 	blne	381fc8 <__bss_end__+0x375980>
    1398:	1201110e 	andne	r1, r1, #-2147483645	; 0x80000003
    139c:	00171006 	andseq	r1, r7, r6
    13a0:	00240200 	eoreq	r0, r4, r0, lsl #4
    13a4:	0b3e0b0b 	bleq	f83fd8 <__bss_end__+0xf77990>
    13a8:	00000803 	andeq	r0, r0, r3, lsl #16
    13ac:	0b002403 	bleq	a3c0 <emit+0x98>
    13b0:	030b3e0b 	movweq	r3, #48651	; 0xbe0b
    13b4:	0400000e 	streq	r0, [r0], #-14
    13b8:	0b0b0104 	bleq	2c17d0 <__bss_end__+0x2b5188>
    13bc:	0b3b0b3a 	bleq	ec40ac <__bss_end__+0xeb7a64>
    13c0:	00001301 	andeq	r1, r0, r1, lsl #6
    13c4:	03002805 	movweq	r2, #2053	; 0x805
    13c8:	000d1c0e 	andeq	r1, sp, lr, lsl #24
    13cc:	012e0600 	teqeq	lr, r0, lsl #12
    13d0:	0e03193f 	mcreq	9, 0, r1, cr3, cr15, {1}
    13d4:	0b3b0b3a 	bleq	ec40c4 <__bss_end__+0xeb7a7c>
    13d8:	01111927 	tsteq	r1, r7, lsr #18
    13dc:	18400612 	stmdane	r0, {r1, r4, r9, sl}^
    13e0:	01194297 			; <UNDEFINED> instruction: 0x01194297
    13e4:	07000013 	smladeq	r0, r3, r0, r0
    13e8:	0e030034 	mcreq	0, 0, r0, cr3, cr4, {1}
    13ec:	0b3b0b3a 	bleq	ec40dc <__bss_end__+0xeb7a94>
    13f0:	193f1349 	ldmdbne	pc!, {r0, r3, r6, r8, r9, ip}	; <UNPREDICTABLE>
    13f4:	0000193c 	andeq	r1, r0, ip, lsr r9
    13f8:	03003408 	movweq	r3, #1032	; 0x408
    13fc:	3b0b3a08 	blcc	2cfc24 <__bss_end__+0x2c35dc>
    1400:	1c13490b 	ldcne	9, cr4, [r3], {11}
    1404:	0900000b 	stmdbeq	r0, {r0, r1, r3}
    1408:	08030034 	stmdaeq	r3, {r2, r4, r5}
    140c:	0b3b0b3a 	bleq	ec40fc <__bss_end__+0xeb7ab4>
    1410:	00001349 	andeq	r1, r0, r9, asr #6
    1414:	0300340a 	movweq	r3, #1034	; 0x40a
    1418:	3b0b3a08 	blcc	2cfc40 <__bss_end__+0x2c35f8>
    141c:	0213490b 	andseq	r4, r3, #180224	; 0x2c000
    1420:	0b000018 	bleq	1488 <__code_start__-0x6b78>
    1424:	0111010b 	tsteq	r1, fp, lsl #2
    1428:	13010612 	movwne	r0, #5650	; 0x1612
    142c:	340c0000 	strcc	r0, [ip], #-0
    1430:	3a080300 	bcc	202038 <__bss_end__+0x1f59f0>
    1434:	490b3b0b 	stmdbmi	fp, {r0, r1, r3, r8, r9, fp, ip, sp}
    1438:	00170213 	andseq	r0, r7, r3, lsl r2
    143c:	82890d00 	addhi	r0, r9, #0, 26
    1440:	01110001 	tsteq	r1, r1
    1444:	00001331 	andeq	r1, r0, r1, lsr r3
    1448:	0182890e 	orreq	r8, r2, lr, lsl #18
    144c:	31011101 	tstcc	r1, r1, lsl #2
    1450:	00130113 	andseq	r0, r3, r3, lsl r1
    1454:	828a0f00 	addhi	r0, sl, #0, 30
    1458:	18020001 	stmdane	r2, {r0}
    145c:	00184291 	mulseq	r8, r1, r2
    1460:	000f1000 	andeq	r1, pc, r0
    1464:	13490b0b 	movtne	r0, #39691	; 0x9b0b
    1468:	2e110000 	cdpcs	0, 1, cr0, cr1, cr0, {0}
    146c:	03193f00 	tsteq	r9, #0, 30
    1470:	3b0b3a0e 	blcc	2cfcb0 <__bss_end__+0x2c3668>
    1474:	3c19270b 	ldccc	7, cr2, [r9], {11}
    1478:	12000019 	andne	r0, r0, #25
    147c:	193f012e 	ldmdbne	pc!, {r1, r2, r3, r5, r8}	; <UNPREDICTABLE>
    1480:	0b3a0e03 	bleq	e84c94 <__bss_end__+0xe7864c>
    1484:	19270b3b 	stmdbne	r7!, {r0, r1, r3, r4, r5, r8, r9, fp}
    1488:	0000193c 	andeq	r1, r0, ip, lsr r9
    148c:	49000513 	stmdbmi	r0, {r0, r1, r4, r8, sl}
    1490:	00000013 	andeq	r0, r0, r3, lsl r0
    1494:	25011101 	strcs	r1, [r1, #-257]	; 0x101
    1498:	030b130e 	movweq	r1, #45838	; 0xb30e
    149c:	550e1b0e 	strpl	r1, [lr, #-2830]	; 0xb0e
    14a0:	10011117 	andne	r1, r1, r7, lsl r1
    14a4:	02000017 	andeq	r0, r0, #23
    14a8:	0b0b0024 	bleq	2c1540 <__bss_end__+0x2b4ef8>
    14ac:	08030b3e 	stmdaeq	r3, {r1, r2, r3, r4, r5, r8, r9, fp}
    14b0:	24030000 	strcs	r0, [r3], #-0
    14b4:	3e0b0b00 	vmlacc.f64	d0, d11, d0
    14b8:	000e030b 	andeq	r0, lr, fp, lsl #6
    14bc:	012e0400 	teqeq	lr, r0, lsl #8
    14c0:	0e03193f 	mcreq	9, 0, r1, cr3, cr15, {1}
    14c4:	0b3b0b3a 	bleq	ec41b4 <__bss_end__+0xeb7b6c>
    14c8:	13491927 	movtne	r1, #39207	; 0x9927
    14cc:	06120111 			; <UNDEFINED> instruction: 0x06120111
    14d0:	42971840 	addsmi	r1, r7, #64, 16	; 0x400000
    14d4:	00130119 	andseq	r0, r3, r9, lsl r1
    14d8:	00340500 	eorseq	r0, r4, r0, lsl #10
    14dc:	0b3a0e03 	bleq	e84cf0 <__bss_end__+0xe786a8>
    14e0:	13490b3b 	movtne	r0, #39739	; 0x9b3b
    14e4:	00001702 	andeq	r1, r0, r2, lsl #14
    14e8:	3f012e06 	svccc	0x00012e06
    14ec:	3a0e0319 	bcc	382158 <__bss_end__+0x375b10>
    14f0:	270b3b0b 	strcs	r3, [fp, -fp, lsl #22]
    14f4:	12011119 	andne	r1, r1, #1073741830	; 0x40000006
    14f8:	97184006 	ldrls	r4, [r8, -r6]
    14fc:	13011942 	movwne	r1, #6466	; 0x1942
    1500:	34070000 	strcc	r0, [r7], #-0
    1504:	3a0e0300 	bcc	38210c <__bss_end__+0x375ac4>
    1508:	490b3b0b 	stmdbmi	fp, {r0, r1, r3, r8, r9, fp, ip, sp}
    150c:	00061c13 	andeq	r1, r6, r3, lsl ip
    1510:	00340800 	eorseq	r0, r4, r0, lsl #16
    1514:	0b3a0e03 	bleq	e84d28 <__bss_end__+0xe786e0>
    1518:	13490b3b 	movtne	r0, #39739	; 0x9b3b
    151c:	00000b1c 	andeq	r0, r0, ip, lsl fp
    1520:	01828909 	orreq	r8, r2, r9, lsl #18
    1524:	31011100 	mrscc	r1, (UNDEF: 17)
    1528:	0a000013 	beq	157c <__code_start__-0x6a84>
    152c:	01018289 	smlabbeq	r1, r9, r2, r8
    1530:	13310111 	teqne	r1, #1073741828	; 0x40000004
    1534:	00001301 	andeq	r1, r0, r1, lsl #6
    1538:	01828a0b 	orreq	r8, r2, fp, lsl #20
    153c:	91180200 	tstls	r8, r0, lsl #4
    1540:	00001842 	andeq	r1, r0, r2, asr #16
    1544:	0182890c 	orreq	r8, r2, ip, lsl #18
    1548:	31011101 	tstcc	r1, r1, lsl #2
    154c:	0d000013 	stceq	0, cr0, [r0, #-76]	; 0xffffffb4
    1550:	13490026 	movtne	r0, #36902	; 0x9026
    1554:	2e0e0000 	cdpcs	0, 0, cr0, cr14, cr0, {0}
    1558:	03193f01 	tsteq	r9, #1, 30
    155c:	3b0b3a0e 	blcc	2cfd9c <__bss_end__+0x2c3754>
    1560:	3c19270b 	ldccc	7, cr2, [r9], {11}
    1564:	00130119 	andseq	r0, r3, r9, lsl r1
    1568:	00050f00 	andeq	r0, r5, r0, lsl #30
    156c:	00001349 	andeq	r1, r0, r9, asr #6
    1570:	3f012e10 	svccc	0x00012e10
    1574:	3a0e0319 	bcc	3821e0 <__bss_end__+0x375b98>
    1578:	270b3b0b 	strcs	r3, [fp, -fp, lsl #22]
    157c:	00193c19 	andseq	r3, r9, r9, lsl ip
    1580:	11010000 	mrsne	r0, (UNDEF: 1)
    1584:	130e2501 	movwne	r2, #58625	; 0xe501
    1588:	1b0e030b 	blne	3821bc <__bss_end__+0x375b74>
    158c:	1201110e 	andne	r1, r1, #-2147483645	; 0x80000003
    1590:	00171006 	andseq	r1, r7, r6
    1594:	00240200 	eoreq	r0, r4, r0, lsl #4
    1598:	0b3e0b0b 	bleq	f841cc <__bss_end__+0xf77b84>
    159c:	00000803 	andeq	r0, r0, r3, lsl #16
    15a0:	0b002403 	bleq	a5b4 <va_printk+0x68>
    15a4:	030b3e0b 	movweq	r3, #48651	; 0xbe0b
    15a8:	0400000e 	streq	r0, [r0], #-14
    15ac:	193f012e 	ldmdbne	pc!, {r1, r2, r3, r5, r8}	; <UNPREDICTABLE>
    15b0:	0b3a0e03 	bleq	e84dc4 <__bss_end__+0xe7877c>
    15b4:	19270b3b 	stmdbne	r7!, {r0, r1, r3, r4, r5, r8, r9, fp}
    15b8:	06120111 			; <UNDEFINED> instruction: 0x06120111
    15bc:	42971840 	addsmi	r1, r7, #64, 16	; 0x400000
    15c0:	00130119 	andseq	r0, r3, r9, lsl r1
    15c4:	00050500 	andeq	r0, r5, r0, lsl #10
    15c8:	0b3a0e03 	bleq	e84ddc <__bss_end__+0xe78794>
    15cc:	13490b3b 	movtne	r0, #39739	; 0x9b3b
    15d0:	00001702 	andeq	r1, r0, r2, lsl #14
    15d4:	3f012e06 	svccc	0x00012e06
    15d8:	3a0e0319 	bcc	382244 <__bss_end__+0x375bfc>
    15dc:	270b3b0b 	strcs	r3, [fp, -fp, lsl #22]
    15e0:	11134919 	tstne	r3, r9, lsl r9
    15e4:	40061201 	andmi	r1, r6, r1, lsl #4
    15e8:	19429718 	stmdbne	r2, {r3, r4, r8, r9, sl, ip, pc}^
    15ec:	00001301 	andeq	r1, r0, r1, lsl #6
    15f0:	01828907 	orreq	r8, r2, r7, lsl #18
    15f4:	31011101 	tstcc	r1, r1, lsl #2
    15f8:	08000013 	stmdaeq	r0, {r0, r1, r4}
    15fc:	0001828a 	andeq	r8, r1, sl, lsl #5
    1600:	42911802 	addsmi	r1, r1, #131072	; 0x20000
    1604:	09000018 	stmdbeq	r0, {r3, r4}
    1608:	08030034 	stmdaeq	r3, {r2, r4, r5}
    160c:	0b3b0b3a 	bleq	ec42fc <__bss_end__+0xeb7cb4>
    1610:	17021349 	strne	r1, [r2, -r9, asr #6]
    1614:	890a0000 	stmdbhi	sl, {}	; <UNPREDICTABLE>
    1618:	11000182 	smlabbne	r0, r2, r1, r0
    161c:	00133101 	andseq	r3, r3, r1, lsl #2
    1620:	00050b00 	andeq	r0, r5, r0, lsl #22
    1624:	0b3a0803 	bleq	e83638 <__bss_end__+0xe76ff0>
    1628:	13490b3b 	movtne	r0, #39739	; 0x9b3b
    162c:	00001702 	andeq	r1, r0, r2, lsl #14
    1630:	0300340c 	movweq	r3, #1036	; 0x40c
    1634:	3b0b3a08 	blcc	2cfe5c <__bss_end__+0x2c3814>
    1638:	0213490b 	andseq	r4, r3, #180224	; 0x2c000
    163c:	0d000018 	stceq	0, cr0, [r0, #-96]	; 0xffffffa0
    1640:	0111010b 	tsteq	r1, fp, lsl #2
    1644:	13010612 	movwne	r0, #5650	; 0x1612
    1648:	2e0e0000 	cdpcs	0, 0, cr0, cr14, cr0, {0}
    164c:	03193f01 	tsteq	r9, #1, 30
    1650:	3b0b3a0e 	blcc	2cfe90 <__bss_end__+0x2c3848>
    1654:	4919270b 	ldmdbmi	r9, {r0, r1, r3, r8, r9, sl, sp}
    1658:	01193c13 	tsteq	r9, r3, lsl ip
    165c:	0f000013 	svceq	0x00000013
    1660:	13490005 	movtne	r0, #36869	; 0x9005
    1664:	2e100000 	cdpcs	0, 1, cr0, cr0, cr0, {0}
    1668:	03193f00 	tsteq	r9, #0, 30
    166c:	3b0b3a0e 	blcc	2cfeac <__bss_end__+0x2c3864>
    1670:	3c19270b 	ldccc	7, cr2, [r9], {11}
    1674:	00000019 	andeq	r0, r0, r9, lsl r0
    1678:	25011101 	strcs	r1, [r1, #-257]	; 0x101
    167c:	030b130e 	movweq	r1, #45838	; 0xb30e
    1680:	110e1b0e 	tstne	lr, lr, lsl #22
    1684:	10061201 	andne	r1, r6, r1, lsl #4
    1688:	02000017 	andeq	r0, r0, #23
    168c:	0b0b0024 	bleq	2c1724 <__bss_end__+0x2b50dc>
    1690:	08030b3e 	stmdaeq	r3, {r1, r2, r3, r4, r5, r8, r9, fp}
    1694:	24030000 	strcs	r0, [r3], #-0
    1698:	3e0b0b00 	vmlacc.f64	d0, d11, d0
    169c:	000e030b 	andeq	r0, lr, fp, lsl #6
    16a0:	00350400 	eorseq	r0, r5, r0, lsl #8
    16a4:	00001349 	andeq	r1, r0, r9, asr #6
    16a8:	03001605 	movweq	r1, #1541	; 0x605
    16ac:	3b0b3a0e 	blcc	2cfeec <__bss_end__+0x2c38a4>
    16b0:	0013490b 	andseq	r4, r3, fp, lsl #18
    16b4:	00160600 	andseq	r0, r6, r0, lsl #12
    16b8:	0b3a0e03 	bleq	e84ecc <__bss_end__+0xe78884>
    16bc:	1349053b 	movtne	r0, #38203	; 0x953b
    16c0:	17070000 	strne	r0, [r7, -r0]
    16c4:	3a0b0b01 	bcc	2c42d0 <__bss_end__+0x2b7c88>
    16c8:	010b3b0b 	tsteq	fp, fp, lsl #22
    16cc:	08000013 	stmdaeq	r0, {r0, r1, r4}
    16d0:	0e03000d 	cdpeq	0, 0, cr0, cr3, cr13, {0}
    16d4:	0b3b0b3a 	bleq	ec43c4 <__bss_end__+0xeb7d7c>
    16d8:	00001349 	andeq	r1, r0, r9, asr #6
    16dc:	49010109 	stmdbmi	r1, {r0, r3, r8}
    16e0:	00130113 	andseq	r0, r3, r3, lsl r1
    16e4:	00210a00 	eoreq	r0, r1, r0, lsl #20
    16e8:	0b2f1349 	bleq	bc6414 <__bss_end__+0xbb9dcc>
    16ec:	130b0000 	movwne	r0, #45056	; 0xb000
    16f0:	3a0b0b01 	bcc	2c42fc <__bss_end__+0x2b7cb4>
    16f4:	010b3b0b 	tsteq	fp, fp, lsl #22
    16f8:	0c000013 	stceq	0, cr0, [r0], {19}
    16fc:	0e03000d 	cdpeq	0, 0, cr0, cr3, cr13, {0}
    1700:	0b3b0b3a 	bleq	ec43f0 <__bss_end__+0xeb7da8>
    1704:	0b381349 	bleq	e06430 <__bss_end__+0xdf9de8>
    1708:	0f0d0000 	svceq	0x000d0000
    170c:	000b0b00 	andeq	r0, fp, r0, lsl #22
    1710:	000f0e00 	andeq	r0, pc, r0, lsl #28
    1714:	13490b0b 	movtne	r0, #39691	; 0x9b0b
    1718:	260f0000 	strcs	r0, [pc], -r0
    171c:	00134900 	andseq	r4, r3, r0, lsl #18
    1720:	01131000 	tsteq	r3, r0
    1724:	0b0b0e03 	bleq	2c4f38 <__bss_end__+0x2b88f0>
    1728:	0b3b0b3a 	bleq	ec4418 <__bss_end__+0xeb7dd0>
    172c:	00001301 	andeq	r1, r0, r1, lsl #6
    1730:	03000d11 	movweq	r0, #3345	; 0xd11
    1734:	3b0b3a08 	blcc	2cff5c <__bss_end__+0x2c3914>
    1738:	3813490b 	ldmdacc	r3, {r0, r1, r3, r8, fp, lr}
    173c:	1200000b 	andne	r0, r0, #11
    1740:	0e030113 	mcreq	1, 0, r0, cr3, cr3, {0}
    1744:	0b3a050b 	bleq	e82b78 <__bss_end__+0xe76530>
    1748:	13010b3b 	movwne	r0, #6971	; 0x1b3b
    174c:	0d130000 	ldceq	0, cr0, [r3, #-0]
    1750:	3a0e0300 	bcc	382358 <__bss_end__+0x375d10>
    1754:	490b3b0b 	stmdbmi	fp, {r0, r1, r3, r8, r9, fp, ip, sp}
    1758:	00053813 	andeq	r3, r5, r3, lsl r8
    175c:	00151400 	andseq	r1, r5, r0, lsl #8
    1760:	00001927 	andeq	r1, r0, r7, lsr #18
    1764:	27011515 	smladcs	r1, r5, r5, r1
    1768:	01134919 	tsteq	r3, r9, lsl r9
    176c:	16000013 			; <UNDEFINED> instruction: 0x16000013
    1770:	13490005 	movtne	r0, #36869	; 0x9005
    1774:	13170000 	tstne	r7, #0
    1778:	0b0e0301 	bleq	382384 <__bss_end__+0x375d3c>
    177c:	3b0b3a05 	blcc	2cff98 <__bss_end__+0x2c3950>
    1780:	00130105 	andseq	r0, r3, r5, lsl #2
    1784:	000d1800 	andeq	r1, sp, r0, lsl #16
    1788:	0b3a0e03 	bleq	e84f9c <__bss_end__+0xe78954>
    178c:	1349053b 	movtne	r0, #38203	; 0x953b
    1790:	00000b38 	andeq	r0, r0, r8, lsr fp
    1794:	03000d19 	movweq	r0, #3353	; 0xd19
    1798:	3b0b3a0e 	blcc	2cffd8 <__bss_end__+0x2c3990>
    179c:	38134905 	ldmdacc	r3, {r0, r2, r8, fp, lr}
    17a0:	1a000005 	bne	17bc <__code_start__-0x6844>
    17a4:	0e030113 	mcreq	1, 0, r0, cr3, cr3, {0}
    17a8:	0b3a0b0b 	bleq	e843dc <__bss_end__+0xe77d94>
    17ac:	1301053b 	movwne	r0, #5435	; 0x153b
    17b0:	131b0000 	tstne	fp, #0
    17b4:	3a0b0b01 	bcc	2c43c0 <__bss_end__+0x2b7d78>
    17b8:	01053b0b 	tsteq	r5, fp, lsl #22
    17bc:	1c000013 	stcne	0, cr0, [r0], {19}
    17c0:	0b0b0117 	bleq	2c1c24 <__bss_end__+0x2b55dc>
    17c4:	053b0b3a 	ldreq	r0, [fp, #-2874]!	; 0xb3a
    17c8:	00001301 	andeq	r1, r0, r1, lsl #6
    17cc:	03000d1d 	movweq	r0, #3357	; 0xd1d
    17d0:	3b0b3a0e 	blcc	2d0010 <__bss_end__+0x2c39c8>
    17d4:	00134905 	andseq	r4, r3, r5, lsl #18
    17d8:	01151e00 	tsteq	r5, r0, lsl #28
    17dc:	13011927 	movwne	r1, #6439	; 0x1927
    17e0:	341f0000 	ldrcc	r0, [pc], #-0	; 17e8 <__code_start__-0x6818>
    17e4:	3a0e0300 	bcc	3823ec <__bss_end__+0x375da4>
    17e8:	49053b0b 	stmdbmi	r5, {r0, r1, r3, r8, r9, fp, ip, sp}
    17ec:	3c193f13 	ldccc	15, cr3, [r9], {19}
    17f0:	20000019 	andcs	r0, r0, r9, lsl r0
    17f4:	0e030034 	mcreq	0, 0, r0, cr3, cr4, {1}
    17f8:	0b3b0b3a 	bleq	ec44e8 <__bss_end__+0xeb7ea0>
    17fc:	193f1349 	ldmdbne	pc!, {r0, r3, r6, r8, r9, ip}	; <UNPREDICTABLE>
    1800:	0000193c 	andeq	r1, r0, ip, lsr r9
    1804:	0b010421 	bleq	42890 <__bss_end__+0x36248>
    1808:	3a13490b 	bcc	4d3c3c <__bss_end__+0x4c75f4>
    180c:	010b3b0b 	tsteq	fp, fp, lsl #22
    1810:	22000013 	andcs	r0, r0, #19
    1814:	0e030028 	cdpeq	0, 0, cr0, cr3, cr8, {1}
    1818:	00000b1c 	andeq	r0, r0, ip, lsl fp
    181c:	03003423 	movweq	r3, #1059	; 0x423
    1820:	3b0b3a0e 	blcc	2d0060 <__bss_end__+0x2c3a18>
    1824:	1c13490b 	ldcne	9, cr4, [r3], {11}
    1828:	24000006 	strcs	r0, [r0], #-6
    182c:	193f012e 	ldmdbne	pc!, {r1, r2, r3, r5, r8}	; <UNPREDICTABLE>
    1830:	0b3a0e03 	bleq	e85044 <__bss_end__+0xe789fc>
    1834:	19270b3b 	stmdbne	r7!, {r0, r1, r3, r4, r5, r8, r9, fp}
    1838:	01111349 	tsteq	r1, r9, asr #6
    183c:	18400612 	stmdane	r0, {r1, r4, r9, sl}^
    1840:	01194297 			; <UNDEFINED> instruction: 0x01194297
    1844:	25000013 	strcs	r0, [r0, #-19]
    1848:	00018289 	andeq	r8, r1, r9, lsl #5
    184c:	13310111 	teqne	r1, #1073741828	; 0x40000004
    1850:	2e260000 	cdpcs	0, 2, cr0, cr6, cr0, {0}
    1854:	03193f01 	tsteq	r9, #1, 30
    1858:	3b0b3a0e 	blcc	2d0098 <__bss_end__+0x2c3a50>
    185c:	1119270b 	tstne	r9, fp, lsl #14
    1860:	40061201 	andmi	r1, r6, r1, lsl #4
    1864:	19429718 	stmdbne	r2, {r3, r4, r8, r9, sl, ip, pc}^
    1868:	00001301 	andeq	r1, r0, r1, lsl #6
    186c:	03000527 	movweq	r0, #1319	; 0x527
    1870:	3b0b3a08 	blcc	2d0098 <__bss_end__+0x2c3a50>
    1874:	0213490b 	andseq	r4, r3, #180224	; 0x2c000
    1878:	28000017 	stmdacs	r0, {r0, r1, r2, r4}
    187c:	01018289 	smlabbeq	r1, r9, r2, r8
    1880:	13310111 	teqne	r1, #1073741828	; 0x40000004
    1884:	00001301 	andeq	r1, r0, r1, lsl #6
    1888:	01828a29 	orreq	r8, r2, r9, lsr #20
    188c:	91180200 	tstls	r8, r0, lsl #4
    1890:	00001842 	andeq	r1, r0, r2, asr #16
    1894:	0300342a 	movweq	r3, #1066	; 0x42a
    1898:	3b0b3a08 	blcc	2d00c0 <__bss_end__+0x2c3a78>
    189c:	0213490b 	andseq	r4, r3, #180224	; 0x2c000
    18a0:	2b000018 	blcs	1908 <__code_start__-0x66f8>
    18a4:	01018289 	smlabbeq	r1, r9, r2, r8
    18a8:	13310111 	teqne	r1, #1073741828	; 0x40000004
    18ac:	2e2c0000 	cdpcs	0, 2, cr0, cr12, cr0, {0}
    18b0:	3a0e0301 	bcc	3824bc <__bss_end__+0x375e74>
    18b4:	270b3b0b 	strcs	r3, [fp, -fp, lsl #22]
    18b8:	12011119 	andne	r1, r1, #1073741830	; 0x40000006
    18bc:	97184006 	ldrls	r4, [r8, -r6]
    18c0:	13011942 	movwne	r1, #6466	; 0x1942
    18c4:	052d0000 	streq	r0, [sp, #-0]!
    18c8:	3a0e0300 	bcc	3824d0 <__bss_end__+0x375e88>
    18cc:	490b3b0b 	stmdbmi	fp, {r0, r1, r3, r8, r9, fp, ip, sp}
    18d0:	00170213 	andseq	r0, r7, r3, lsl r2
    18d4:	00352e00 	eorseq	r2, r5, r0, lsl #28
    18d8:	2e2f0000 	cdpcs	0, 2, cr0, cr15, cr0, {0}
    18dc:	3c193f00 	ldccc	15, cr3, [r9], {-0}
    18e0:	030e6e19 	movweq	r6, #60953	; 0xee19
    18e4:	3b0b3a0e 	blcc	2d0124 <__bss_end__+0x2c3adc>
    18e8:	0000000b 	andeq	r0, r0, fp
    18ec:	25011101 	strcs	r1, [r1, #-257]	; 0x101
    18f0:	030b130e 	movweq	r1, #45838	; 0xb30e
    18f4:	110e1b0e 	tstne	lr, lr, lsl #22
    18f8:	10061201 	andne	r1, r6, r1, lsl #4
    18fc:	02000017 	andeq	r0, r0, #23
    1900:	0b0b0024 	bleq	2c1998 <__bss_end__+0x2b5350>
    1904:	08030b3e 	stmdaeq	r3, {r1, r2, r3, r4, r5, r8, r9, fp}
    1908:	24030000 	strcs	r0, [r3], #-0
    190c:	3e0b0b00 	vmlacc.f64	d0, d11, d0
    1910:	000e030b 	andeq	r0, lr, fp, lsl #6
    1914:	00260400 	eoreq	r0, r6, r0, lsl #8
    1918:	00001349 	andeq	r1, r0, r9, asr #6
    191c:	03001605 	movweq	r1, #1541	; 0x605
    1920:	3b0b3a0e 	blcc	2d0160 <__bss_end__+0x2c3b18>
    1924:	0013490b 	andseq	r4, r3, fp, lsl #18
    1928:	00160600 	andseq	r0, r6, r0, lsl #12
    192c:	0b3a0e03 	bleq	e85140 <__bss_end__+0xe78af8>
    1930:	1349053b 	movtne	r0, #38203	; 0x953b
    1934:	17070000 	strne	r0, [r7, -r0]
    1938:	3a0b0b01 	bcc	2c4544 <__bss_end__+0x2b7efc>
    193c:	010b3b0b 	tsteq	fp, fp, lsl #22
    1940:	08000013 	stmdaeq	r0, {r0, r1, r4}
    1944:	0e03000d 	cdpeq	0, 0, cr0, cr3, cr13, {0}
    1948:	0b3b0b3a 	bleq	ec4638 <__bss_end__+0xeb7ff0>
    194c:	00001349 	andeq	r1, r0, r9, asr #6
    1950:	49010109 	stmdbmi	r1, {r0, r3, r8}
    1954:	00130113 	andseq	r0, r3, r3, lsl r1
    1958:	00210a00 	eoreq	r0, r1, r0, lsl #20
    195c:	0b2f1349 	bleq	bc6688 <__bss_end__+0xbba040>
    1960:	130b0000 	movwne	r0, #45056	; 0xb000
    1964:	3a0b0b01 	bcc	2c4570 <__bss_end__+0x2b7f28>
    1968:	010b3b0b 	tsteq	fp, fp, lsl #22
    196c:	0c000013 	stceq	0, cr0, [r0], {19}
    1970:	0e03000d 	cdpeq	0, 0, cr0, cr3, cr13, {0}
    1974:	0b3b0b3a 	bleq	ec4664 <__bss_end__+0xeb801c>
    1978:	0b381349 	bleq	e066a4 <__bss_end__+0xdfa05c>
    197c:	0f0d0000 	svceq	0x000d0000
    1980:	000b0b00 	andeq	r0, fp, r0, lsl #22
    1984:	000f0e00 	andeq	r0, pc, r0, lsl #28
    1988:	13490b0b 	movtne	r0, #39691	; 0x9b0b
    198c:	130f0000 	movwne	r0, #61440	; 0xf000
    1990:	0b0e0301 	bleq	38259c <__bss_end__+0x375f54>
    1994:	3b0b3a0b 	blcc	2d01c8 <__bss_end__+0x2c3b80>
    1998:	0013010b 	andseq	r0, r3, fp, lsl #2
    199c:	000d1000 	andeq	r1, sp, r0
    19a0:	0b3a0803 	bleq	e839b4 <__bss_end__+0xe7736c>
    19a4:	13490b3b 	movtne	r0, #39739	; 0x9b3b
    19a8:	00000b38 	andeq	r0, r0, r8, lsr fp
    19ac:	03011311 	movweq	r1, #4881	; 0x1311
    19b0:	3a050b0e 	bcc	1445f0 <__bss_end__+0x137fa8>
    19b4:	010b3b0b 	tsteq	fp, fp, lsl #22
    19b8:	12000013 	andne	r0, r0, #19
    19bc:	0e03000d 	cdpeq	0, 0, cr0, cr3, cr13, {0}
    19c0:	0b3b0b3a 	bleq	ec46b0 <__bss_end__+0xeb8068>
    19c4:	05381349 	ldreq	r1, [r8, #-841]!	; 0x349
    19c8:	15130000 	ldrne	r0, [r3, #-0]
    19cc:	00192700 	andseq	r2, r9, r0, lsl #14
    19d0:	01151400 	tsteq	r5, r0, lsl #8
    19d4:	13491927 	movtne	r1, #39207	; 0x9927
    19d8:	00001301 	andeq	r1, r0, r1, lsl #6
    19dc:	49000515 	stmdbmi	r0, {r0, r2, r4, r8, sl}
    19e0:	16000013 			; <UNDEFINED> instruction: 0x16000013
    19e4:	0e030113 	mcreq	1, 0, r0, cr3, cr3, {0}
    19e8:	0b3a050b 	bleq	e82e1c <__bss_end__+0xe767d4>
    19ec:	1301053b 	movwne	r0, #5435	; 0x153b
    19f0:	0d170000 	ldceq	0, cr0, [r7, #-0]
    19f4:	3a0e0300 	bcc	3825fc <__bss_end__+0x375fb4>
    19f8:	49053b0b 	stmdbmi	r5, {r0, r1, r3, r8, r9, fp, ip, sp}
    19fc:	000b3813 	andeq	r3, fp, r3, lsl r8
    1a00:	000d1800 	andeq	r1, sp, r0, lsl #16
    1a04:	0b3a0e03 	bleq	e85218 <__bss_end__+0xe78bd0>
    1a08:	1349053b 	movtne	r0, #38203	; 0x953b
    1a0c:	00000538 	andeq	r0, r0, r8, lsr r5
    1a10:	03011319 	movweq	r1, #4889	; 0x1319
    1a14:	3a0b0b0e 	bcc	2c4654 <__bss_end__+0x2b800c>
    1a18:	01053b0b 	tsteq	r5, fp, lsl #22
    1a1c:	1a000013 	bne	1a70 <__code_start__-0x6590>
    1a20:	0b0b0113 	bleq	2c1e74 <__bss_end__+0x2b582c>
    1a24:	053b0b3a 	ldreq	r0, [fp, #-2874]!	; 0xb3a
    1a28:	00001301 	andeq	r1, r0, r1, lsl #6
    1a2c:	0b01171b 	bleq	476a0 <__bss_end__+0x3b058>
    1a30:	3b0b3a0b 	blcc	2d0264 <__bss_end__+0x2c3c1c>
    1a34:	00130105 	andseq	r0, r3, r5, lsl #2
    1a38:	000d1c00 	andeq	r1, sp, r0, lsl #24
    1a3c:	0b3a0e03 	bleq	e85250 <__bss_end__+0xe78c08>
    1a40:	1349053b 	movtne	r0, #38203	; 0x953b
    1a44:	151d0000 	ldrne	r0, [sp, #-0]
    1a48:	01192701 	tsteq	r9, r1, lsl #14
    1a4c:	1e000013 	mcrne	0, 0, r0, cr0, cr3, {0}
    1a50:	0e030034 	mcreq	0, 0, r0, cr3, cr4, {1}
    1a54:	053b0b3a 	ldreq	r0, [fp, #-2874]!	; 0xb3a
    1a58:	193f1349 	ldmdbne	pc!, {r0, r3, r6, r8, r9, ip}	; <UNPREDICTABLE>
    1a5c:	0000193c 	andeq	r1, r0, ip, lsr r9
    1a60:	0300341f 	movweq	r3, #1055	; 0x41f
    1a64:	3b0b3a0e 	blcc	2d02a4 <__bss_end__+0x2c3c5c>
    1a68:	3f13490b 	svccc	0x0013490b
    1a6c:	00193c19 	andseq	r3, r9, r9, lsl ip
    1a70:	01042000 	mrseq	r2, (UNDEF: 4)
    1a74:	13490b0b 	movtne	r0, #39691	; 0x9b0b
    1a78:	0b3b0b3a 	bleq	ec4768 <__bss_end__+0xeb8120>
    1a7c:	00001301 	andeq	r1, r0, r1, lsl #6
    1a80:	03002821 	movweq	r2, #2081	; 0x821
    1a84:	000b1c0e 	andeq	r1, fp, lr, lsl #24
    1a88:	00342200 	eorseq	r2, r4, r0, lsl #4
    1a8c:	0b3a0e03 	bleq	e852a0 <__bss_end__+0xe78c58>
    1a90:	13490b3b 	movtne	r0, #39739	; 0x9b3b
    1a94:	0000061c 	andeq	r0, r0, ip, lsl r6
    1a98:	3f012e23 	svccc	0x00012e23
    1a9c:	3a0e0319 	bcc	382708 <__bss_end__+0x3760c0>
    1aa0:	270b3b0b 	strcs	r3, [fp, -fp, lsl #22]
    1aa4:	11134919 	tstne	r3, r9, lsl r9
    1aa8:	40061201 	andmi	r1, r6, r1, lsl #4
    1aac:	19429718 	stmdbne	r2, {r3, r4, r8, r9, sl, ip, pc}^
    1ab0:	00001301 	andeq	r1, r0, r1, lsl #6
    1ab4:	03000524 	movweq	r0, #1316	; 0x524
    1ab8:	3b0b3a08 	blcc	2d02e0 <__bss_end__+0x2c3c98>
    1abc:	0213490b 	andseq	r4, r3, #180224	; 0x2c000
    1ac0:	25000017 	strcs	r0, [r0, #-23]
    1ac4:	0e030034 	mcreq	0, 0, r0, cr3, cr4, {1}
    1ac8:	0b3b0b3a 	bleq	ec47b8 <__bss_end__+0xeb8170>
    1acc:	17021349 	strne	r1, [r2, -r9, asr #6]
    1ad0:	34260000 	strtcc	r0, [r6], #-0
    1ad4:	3a080300 	bcc	2026dc <__bss_end__+0x1f6094>
    1ad8:	490b3b0b 	stmdbmi	fp, {r0, r1, r3, r8, r9, fp, ip, sp}
    1adc:	00170213 	andseq	r0, r7, r3, lsl r2
    1ae0:	82892700 	addhi	r2, r9, #0, 14
    1ae4:	01110101 	tsteq	r1, r1, lsl #2
    1ae8:	00001331 	andeq	r1, r0, r1, lsr r3
    1aec:	01828a28 	orreq	r8, r2, r8, lsr #20
    1af0:	91180200 	tstls	r8, r0, lsl #4
    1af4:	00001842 	andeq	r1, r0, r2, asr #16
    1af8:	3f012e29 	svccc	0x00012e29
    1afc:	3a0e0319 	bcc	382768 <__bss_end__+0x376120>
    1b00:	270b3b0b 	strcs	r3, [fp, -fp, lsl #22]
    1b04:	12011119 	andne	r1, r1, #1073741830	; 0x40000006
    1b08:	97184006 	ldrls	r4, [r8, -r6]
    1b0c:	13011942 	movwne	r1, #6466	; 0x1942
    1b10:	892a0000 	stmdbhi	sl!, {}	; <UNPREDICTABLE>
    1b14:	11010182 	smlabbne	r1, r2, r1, r0
    1b18:	01133101 	tsteq	r3, r1, lsl #2
    1b1c:	2b000013 	blcs	1b70 <__code_start__-0x6490>
    1b20:	00018289 	andeq	r8, r1, r9, lsl #5
    1b24:	13310111 	teqne	r1, #1073741828	; 0x40000004
    1b28:	052c0000 	streq	r0, [ip, #-0]!
    1b2c:	3a0e0300 	bcc	382734 <__bss_end__+0x3760ec>
    1b30:	490b3b0b 	stmdbmi	fp, {r0, r1, r3, r8, r9, fp, ip, sp}
    1b34:	00170213 	andseq	r0, r7, r3, lsl r2
    1b38:	00342d00 	eorseq	r2, r4, r0, lsl #26
    1b3c:	0b3a0803 	bleq	e83b50 <__bss_end__+0xe77508>
    1b40:	13490b3b 	movtne	r0, #39739	; 0x9b3b
    1b44:	00001802 	andeq	r1, r0, r2, lsl #16
    1b48:	3f002e2e 	svccc	0x00002e2e
    1b4c:	6e193c19 	mrcvs	12, 0, r3, cr9, cr9, {0}
    1b50:	3a0e030e 	bcc	382790 <__bss_end__+0x376148>
    1b54:	000b3b0b 	andeq	r3, fp, fp, lsl #22
    1b58:	11010000 	mrsne	r0, (UNDEF: 1)
    1b5c:	130e2501 	movwne	r2, #58625	; 0xe501
    1b60:	1b0e030b 	blne	382794 <__bss_end__+0x37614c>
    1b64:	1201110e 	andne	r1, r1, #-2147483645	; 0x80000003
    1b68:	00171006 	andseq	r1, r7, r6
    1b6c:	00240200 	eoreq	r0, r4, r0, lsl #4
    1b70:	0b3e0b0b 	bleq	f847a4 <__bss_end__+0xf7815c>
    1b74:	00000803 	andeq	r0, r0, r3, lsl #16
    1b78:	0b002403 	bleq	ab8c <or_in32+0x14>
    1b7c:	030b3e0b 	movweq	r3, #48651	; 0xbe0b
    1b80:	0400000e 	streq	r0, [r0], #-14
    1b84:	0e030016 	mcreq	0, 0, r0, cr3, cr6, {0}
    1b88:	0b3b0b3a 	bleq	ec4878 <__bss_end__+0xeb8230>
    1b8c:	00001349 	andeq	r1, r0, r9, asr #6
    1b90:	03001605 	movweq	r1, #1541	; 0x605
    1b94:	3b0b3a0e 	blcc	2d03d4 <__bss_end__+0x2c3d8c>
    1b98:	00134905 	andseq	r4, r3, r5, lsl #18
    1b9c:	01170600 	tsteq	r7, r0, lsl #12
    1ba0:	0b3a0b0b 	bleq	e847d4 <__bss_end__+0xe7818c>
    1ba4:	13010b3b 	movwne	r0, #6971	; 0x1b3b
    1ba8:	0d070000 	stceq	0, cr0, [r7, #-0]
    1bac:	3a0e0300 	bcc	3827b4 <__bss_end__+0x37616c>
    1bb0:	490b3b0b 	stmdbmi	fp, {r0, r1, r3, r8, r9, fp, ip, sp}
    1bb4:	08000013 	stmdaeq	r0, {r0, r1, r4}
    1bb8:	13490101 	movtne	r0, #37121	; 0x9101
    1bbc:	00001301 	andeq	r1, r0, r1, lsl #6
    1bc0:	49002109 	stmdbmi	r0, {r0, r3, r8, sp}
    1bc4:	000b2f13 	andeq	r2, fp, r3, lsl pc
    1bc8:	01130a00 	tsteq	r3, r0, lsl #20
    1bcc:	0b3a0b0b 	bleq	e84800 <__bss_end__+0xe781b8>
    1bd0:	13010b3b 	movwne	r0, #6971	; 0x1b3b
    1bd4:	0d0b0000 	stceq	0, cr0, [fp, #-0]
    1bd8:	3a0e0300 	bcc	3827e0 <__bss_end__+0x376198>
    1bdc:	490b3b0b 	stmdbmi	fp, {r0, r1, r3, r8, r9, fp, ip, sp}
    1be0:	000b3813 	andeq	r3, fp, r3, lsl r8
    1be4:	000f0c00 	andeq	r0, pc, r0, lsl #24
    1be8:	00000b0b 	andeq	r0, r0, fp, lsl #22
    1bec:	0b000f0d 	bleq	5828 <__code_start__-0x27d8>
    1bf0:	0013490b 	andseq	r4, r3, fp, lsl #18
    1bf4:	00260e00 	eoreq	r0, r6, r0, lsl #28
    1bf8:	00001349 	andeq	r1, r0, r9, asr #6
    1bfc:	0301130f 	movweq	r1, #4879	; 0x130f
    1c00:	3a0b0b0e 	bcc	2c4840 <__bss_end__+0x2b81f8>
    1c04:	010b3b0b 	tsteq	fp, fp, lsl #22
    1c08:	10000013 	andne	r0, r0, r3, lsl r0
    1c0c:	0803000d 	stmdaeq	r3, {r0, r2, r3}
    1c10:	0b3b0b3a 	bleq	ec4900 <__bss_end__+0xeb82b8>
    1c14:	0b381349 	bleq	e06940 <__bss_end__+0xdfa2f8>
    1c18:	13110000 	tstne	r1, #0
    1c1c:	0b0e0301 	bleq	382828 <__bss_end__+0x3761e0>
    1c20:	3b0b3a05 	blcc	2d043c <__bss_end__+0x2c3df4>
    1c24:	0013010b 	andseq	r0, r3, fp, lsl #2
    1c28:	000d1200 	andeq	r1, sp, r0, lsl #4
    1c2c:	0b3a0e03 	bleq	e85440 <__bss_end__+0xe78df8>
    1c30:	13490b3b 	movtne	r0, #39739	; 0x9b3b
    1c34:	00000538 	andeq	r0, r0, r8, lsr r5
    1c38:	27001513 	smladcs	r0, r3, r5, r1
    1c3c:	14000019 	strne	r0, [r0], #-25
    1c40:	19270115 	stmdbne	r7!, {r0, r2, r4, r8}
    1c44:	13011349 	movwne	r1, #4937	; 0x1349
    1c48:	05150000 	ldreq	r0, [r5, #-0]
    1c4c:	00134900 	andseq	r4, r3, r0, lsl #18
    1c50:	01131600 	tsteq	r3, r0, lsl #12
    1c54:	050b0e03 	streq	r0, [fp, #-3587]	; 0xe03
    1c58:	053b0b3a 	ldreq	r0, [fp, #-2874]!	; 0xb3a
    1c5c:	00001301 	andeq	r1, r0, r1, lsl #6
    1c60:	03000d17 	movweq	r0, #3351	; 0xd17
    1c64:	3b0b3a0e 	blcc	2d04a4 <__bss_end__+0x2c3e5c>
    1c68:	38134905 	ldmdacc	r3, {r0, r2, r8, fp, lr}
    1c6c:	1800000b 	stmdane	r0, {r0, r1, r3}
    1c70:	0e03000d 	cdpeq	0, 0, cr0, cr3, cr13, {0}
    1c74:	053b0b3a 	ldreq	r0, [fp, #-2874]!	; 0xb3a
    1c78:	05381349 	ldreq	r1, [r8, #-841]!	; 0x349
    1c7c:	13190000 	tstne	r9, #0
    1c80:	0b0e0301 	bleq	38288c <__bss_end__+0x376244>
    1c84:	3b0b3a0b 	blcc	2d04b8 <__bss_end__+0x2c3e70>
    1c88:	00130105 	andseq	r0, r3, r5, lsl #2
    1c8c:	01131a00 	tsteq	r3, r0, lsl #20
    1c90:	0b3a0b0b 	bleq	e848c4 <__bss_end__+0xe7827c>
    1c94:	1301053b 	movwne	r0, #5435	; 0x153b
    1c98:	171b0000 	ldrne	r0, [fp, -r0]
    1c9c:	3a0b0b01 	bcc	2c48a8 <__bss_end__+0x2b8260>
    1ca0:	01053b0b 	tsteq	r5, fp, lsl #22
    1ca4:	1c000013 	stcne	0, cr0, [r0], {19}
    1ca8:	0e03000d 	cdpeq	0, 0, cr0, cr3, cr13, {0}
    1cac:	053b0b3a 	ldreq	r0, [fp, #-2874]!	; 0xb3a
    1cb0:	00001349 	andeq	r1, r0, r9, asr #6
    1cb4:	2701151d 	smladcs	r1, sp, r5, r1
    1cb8:	00130119 	andseq	r0, r3, r9, lsl r1
    1cbc:	00341e00 	eorseq	r1, r4, r0, lsl #28
    1cc0:	0b3a0e03 	bleq	e854d4 <__bss_end__+0xe78e8c>
    1cc4:	1349053b 	movtne	r0, #38203	; 0x953b
    1cc8:	193c193f 	ldmdbne	ip!, {r0, r1, r2, r3, r4, r5, r8, fp, ip}
    1ccc:	341f0000 	ldrcc	r0, [pc], #-0	; 1cd4 <__code_start__-0x632c>
    1cd0:	3a0e0300 	bcc	3828d8 <__bss_end__+0x376290>
    1cd4:	490b3b0b 	stmdbmi	fp, {r0, r1, r3, r8, r9, fp, ip, sp}
    1cd8:	3c193f13 	ldccc	15, cr3, [r9], {19}
    1cdc:	20000019 	andcs	r0, r0, r9, lsl r0
    1ce0:	0e030034 	mcreq	0, 0, r0, cr3, cr4, {1}
    1ce4:	0b3b0b3a 	bleq	ec49d4 <__bss_end__+0xeb838c>
    1ce8:	18021349 	stmdane	r2, {r0, r3, r6, r8, r9, ip}
    1cec:	2e210000 	cdpcs	0, 2, cr0, cr1, cr0, {0}
    1cf0:	03193f01 	tsteq	r9, #1, 30
    1cf4:	3b0b3a0e 	blcc	2d0534 <__bss_end__+0x2c3eec>
    1cf8:	1119270b 	tstne	r9, fp, lsl #14
    1cfc:	40061201 	andmi	r1, r6, r1, lsl #4
    1d00:	19429718 	stmdbne	r2, {r3, r4, r8, r9, sl, ip, pc}^
    1d04:	00001301 	andeq	r1, r0, r1, lsl #6
    1d08:	03000522 	movweq	r0, #1314	; 0x522
    1d0c:	3b0b3a08 	blcc	2d0534 <__bss_end__+0x2c3eec>
    1d10:	0213490b 	andseq	r4, r3, #180224	; 0x2c000
    1d14:	23000018 	movwcs	r0, #24
    1d18:	193f002e 	ldmdbne	pc!, {r1, r2, r3, r5}	; <UNPREDICTABLE>
    1d1c:	0b3a0e03 	bleq	e85530 <__bss_end__+0xe78ee8>
    1d20:	19270b3b 	stmdbne	r7!, {r0, r1, r3, r4, r5, r8, r9, fp}
    1d24:	06120111 			; <UNDEFINED> instruction: 0x06120111
    1d28:	42971840 	addsmi	r1, r7, #64, 16	; 0x400000
    1d2c:	24000019 	strcs	r0, [r0], #-25
    1d30:	193f012e 	ldmdbne	pc!, {r1, r2, r3, r5, r8}	; <UNPREDICTABLE>
    1d34:	0b3a0e03 	bleq	e85548 <__bss_end__+0xe78f00>
    1d38:	19270b3b 	stmdbne	r7!, {r0, r1, r3, r4, r5, r8, r9, fp}
    1d3c:	01111349 	tsteq	r1, r9, asr #6
    1d40:	18400612 	stmdane	r0, {r1, r4, r9, sl}^
    1d44:	01194297 			; <UNDEFINED> instruction: 0x01194297
    1d48:	25000013 	strcs	r0, [r0, #-19]
    1d4c:	0e030005 	cdpeq	0, 0, cr0, cr3, cr5, {0}
    1d50:	0b3b0b3a 	bleq	ec4a40 <__bss_end__+0xeb83f8>
    1d54:	17021349 	strne	r1, [r2, -r9, asr #6]
    1d58:	34260000 	strtcc	r0, [r6], #-0
    1d5c:	490e0300 	stmdbmi	lr, {r8, r9}
    1d60:	02193413 	andseq	r3, r9, #318767104	; 0x13000000
    1d64:	27000018 	smladcs	r0, r8, r0, r0
    1d68:	08030034 	stmdaeq	r3, {r2, r4, r5}
    1d6c:	0b3b0b3a 	bleq	ec4a5c <__bss_end__+0xeb8414>
    1d70:	17021349 	strne	r1, [r2, -r9, asr #6]
    1d74:	89280000 	stmdbhi	r8!, {}	; <UNPREDICTABLE>
    1d78:	11010182 	smlabbne	r1, r2, r1, r0
    1d7c:	01133101 	tsteq	r3, r1, lsl #2
    1d80:	29000013 	stmdbcs	r0, {r0, r1, r4}
    1d84:	0001828a 	andeq	r8, r1, sl, lsl #5
    1d88:	42911802 	addsmi	r1, r1, #131072	; 0x20000
    1d8c:	2a000018 	bcs	1df4 <__code_start__-0x620c>
    1d90:	00018289 	andeq	r8, r1, r9, lsl #5
    1d94:	13310111 	teqne	r1, #1073741828	; 0x40000004
    1d98:	052b0000 	streq	r0, [fp, #-0]!
    1d9c:	3a080300 	bcc	2029a4 <__bss_end__+0x1f635c>
    1da0:	490b3b0b 	stmdbmi	fp, {r0, r1, r3, r8, r9, fp, ip, sp}
    1da4:	00170213 	andseq	r0, r7, r3, lsl r2
    1da8:	00342c00 	eorseq	r2, r4, r0, lsl #24
    1dac:	0b3a0e03 	bleq	e855c0 <__bss_end__+0xe78f78>
    1db0:	13490b3b 	movtne	r0, #39739	; 0x9b3b
    1db4:	00001702 	andeq	r1, r0, r2, lsl #14
    1db8:	3f002e2d 	svccc	0x00002e2d
    1dbc:	3a0e0319 	bcc	382a28 <__bss_end__+0x3763e0>
    1dc0:	270b3b0b 	strcs	r3, [fp, -fp, lsl #22]
    1dc4:	11134919 	tstne	r3, r9, lsl r9
    1dc8:	40061201 	andmi	r1, r6, r1, lsl #4
    1dcc:	19429718 	stmdbne	r2, {r3, r4, r8, r9, sl, ip, pc}^
    1dd0:	2e2e0000 	cdpcs	0, 2, cr0, cr14, cr0, {0}
    1dd4:	3c193f00 	ldccc	15, cr3, [r9], {-0}
    1dd8:	030e6e19 	movweq	r6, #60953	; 0xee19
    1ddc:	3b0b3a0e 	blcc	2d061c <__bss_end__+0x2c3fd4>
    1de0:	0000000b 	andeq	r0, r0, fp

Disassembly of section .debug_aranges:

00000000 <.debug_aranges>:
   0:	0000001c 	andeq	r0, r0, ip, lsl r0
   4:	00000002 	andeq	r0, r0, r2
   8:	00040000 	andeq	r0, r4, r0
   c:	00000000 	andeq	r0, r0, r0
  10:	00008020 	andeq	r8, r0, r0, lsr #32
  14:	000000a4 	andeq	r0, r0, r4, lsr #1
	...
  20:	0000001c 	andeq	r0, r0, ip, lsl r0
  24:	023c0002 	eorseq	r0, ip, #2
  28:	00040000 	andeq	r0, r4, r0
  2c:	00000000 	andeq	r0, r0, r0
  30:	00008208 	andeq	r8, r0, r8, lsl #4
  34:	000008dc 	ldrdeq	r0, [r0], -ip
	...
  40:	0000001c 	andeq	r0, r0, ip, lsl r0
  44:	178e0002 	strne	r0, [lr, r2]
  48:	00040000 	andeq	r0, r4, r0
  4c:	00000000 	andeq	r0, r0, r0
  50:	00008ae4 	andeq	r8, r0, r4, ror #21
  54:	00000914 	andeq	r0, r0, r4, lsl r9
	...
  60:	0000001c 	andeq	r0, r0, ip, lsl r0
  64:	29300002 	ldmdbcs	r0!, {r1}
  68:	00040000 	andeq	r0, r4, r0
  6c:	00000000 	andeq	r0, r0, r0
  70:	000093f8 	strdeq	r9, [r0], -r8
  74:	00000944 	andeq	r0, r0, r4, asr #18
	...
  80:	0000001c 	andeq	r0, r0, ip, lsl r0
  84:	3e4e0002 	cdpcc	0, 4, cr0, cr14, cr2, {0}
  88:	00040000 	andeq	r0, r4, r0
  8c:	00000000 	andeq	r0, r0, r0
  90:	0000a0d0 	ldrdeq	sl, [r0], -r0
  94:	000000f0 	strdeq	r0, [r0], -r0	; <UNPREDICTABLE>
	...
  a0:	0000001c 	andeq	r0, r0, ip, lsl r0
  a4:	3f640002 	svccc	0x00640002
  a8:	00040000 	andeq	r0, r4, r0
  ac:	00000000 	andeq	r0, r0, r0
  b0:	0000a1c0 	andeq	sl, r0, r0, asr #3
  b4:	00000020 	andeq	r0, r0, r0, lsr #32
	...
  c0:	0000001c 	andeq	r0, r0, ip, lsl r0
  c4:	40430002 	submi	r0, r3, r2
  c8:	00040000 	andeq	r0, r4, r0
  cc:	00000000 	andeq	r0, r0, r0
  d0:	0000a1e0 	andeq	sl, r0, r0, ror #3
  d4:	00000058 	andeq	r0, r0, r8, asr r0
	...
  e0:	0000001c 	andeq	r0, r0, ip, lsl r0
  e4:	41d80002 	bicsmi	r0, r8, r2
  e8:	00040000 	andeq	r0, r4, r0
  ec:	00000000 	andeq	r0, r0, r0
  f0:	0000a238 	andeq	sl, r0, r8, lsr r2
  f4:	0000003c 	andeq	r0, r0, ip, lsr r0
	...
 100:	0000001c 	andeq	r0, r0, ip, lsl r0
 104:	42ef0002 	rscmi	r0, pc, #2
 108:	00040000 	andeq	r0, r4, r0
 10c:	00000000 	andeq	r0, r0, r0
 110:	0000a274 	andeq	sl, r0, r4, ror r2
 114:	00000034 	andeq	r0, r0, r4, lsr r0
	...
 120:	0000001c 	andeq	r0, r0, ip, lsl r0
 124:	43e10002 	mvnmi	r0, #2
 128:	00040000 	andeq	r0, r4, r0
 12c:	00000000 	andeq	r0, r0, r0
 130:	0000a2a8 	andeq	sl, r0, r8, lsr #5
 134:	00000578 	andeq	r0, r0, r8, ror r5
	...
 140:	0000001c 	andeq	r0, r0, ip, lsl r0
 144:	4aca0002 	bmi	ff280154 <__bss_end__+0xff273b0c>
 148:	00040000 	andeq	r0, r4, r0
 14c:	00000000 	andeq	r0, r0, r0
 150:	0000a820 	andeq	sl, r0, r0, lsr #16
 154:	0000002c 	andeq	r0, r0, ip, lsr #32
	...
 160:	0000001c 	andeq	r0, r0, ip, lsl r0
 164:	4bdd0002 	blmi	ff740174 <__bss_end__+0xff733b2c>
 168:	00040000 	andeq	r0, r4, r0
 16c:	00000000 	andeq	r0, r0, r0
 170:	0000a84c 	andeq	sl, r0, ip, asr #16
 174:	00000038 	andeq	r0, r0, r8, lsr r0
	...
 180:	0000001c 	andeq	r0, r0, ip, lsl r0
 184:	4cf00002 	ldclmi	0, cr0, [r0], #8
 188:	00040000 	andeq	r0, r4, r0
 18c:	00000000 	andeq	r0, r0, r0
 190:	0000a884 	andeq	sl, r0, r4, lsl #17
 194:	00000044 	andeq	r0, r0, r4, asr #32
	...
 1a0:	0000001c 	andeq	r0, r0, ip, lsl r0
 1a4:	4e320002 	cdpmi	0, 3, cr0, cr2, cr2, {0}
 1a8:	00040000 	andeq	r0, r4, r0
 1ac:	00000000 	andeq	r0, r0, r0
 1b0:	0000a8c8 	andeq	sl, r0, r8, asr #17
 1b4:	00000044 	andeq	r0, r0, r4, asr #32
	...
 1c0:	0000001c 	andeq	r0, r0, ip, lsl r0
 1c4:	4f740002 	svcmi	0x00740002
 1c8:	00040000 	andeq	r0, r4, r0
 1cc:	00000000 	andeq	r0, r0, r0
 1d0:	0000a90c 	andeq	sl, r0, ip, lsl #18
 1d4:	00000044 	andeq	r0, r0, r4, asr #32
	...
 1e0:	0000001c 	andeq	r0, r0, ip, lsl r0
 1e4:	50b60002 	adcspl	r0, r6, r2
 1e8:	00040000 	andeq	r0, r4, r0
 1ec:	00000000 	andeq	r0, r0, r0
 1f0:	0000a950 	andeq	sl, r0, r0, asr r9
 1f4:	00000044 	andeq	r0, r0, r4, asr #32
	...
 200:	0000001c 	andeq	r0, r0, ip, lsl r0
 204:	51f80002 	mvnspl	r0, r2
 208:	00040000 	andeq	r0, r4, r0
 20c:	00000000 	andeq	r0, r0, r0
 210:	0000a994 	muleq	r0, r4, r9
 214:	00000008 	andeq	r0, r0, r8
	...
 220:	0000001c 	andeq	r0, r0, ip, lsl r0
 224:	52940002 	addspl	r0, r4, #2
 228:	00040000 	andeq	r0, r4, r0
 22c:	00000000 	andeq	r0, r0, r0
 230:	0000a99c 	muleq	r0, ip, r9
 234:	0000006c 	andeq	r0, r0, ip, rrx
	...
 240:	0000001c 	andeq	r0, r0, ip, lsl r0
 244:	546f0002 	strbtpl	r0, [pc], #-2	; 24c <__code_start__-0x7db4>
 248:	00040000 	andeq	r0, r4, r0
 24c:	00000000 	andeq	r0, r0, r0
 250:	0000aa08 	andeq	sl, r0, r8, lsl #20
 254:	00000074 	andeq	r0, r0, r4, ror r0
	...
 260:	0000001c 	andeq	r0, r0, ip, lsl r0
 264:	56200002 	strtpl	r0, [r0], -r2
 268:	00040000 	andeq	r0, r4, r0
 26c:	00000000 	andeq	r0, r0, r0
 270:	0000aa7c 	andeq	sl, r0, ip, ror sl
 274:	00000098 	muleq	r0, r8, r0
	...
 280:	0000001c 	andeq	r0, r0, ip, lsl r0
 284:	581b0002 	ldmdapl	fp, {r1}
 288:	00040000 	andeq	r0, r4, r0
 28c:	00000000 	andeq	r0, r0, r0
 290:	0000ab78 	andeq	sl, r0, r8, ror fp
 294:	00000178 	andeq	r0, r0, r8, ror r1
	...
 2a0:	0000001c 	andeq	r0, r0, ip, lsl r0
 2a4:	64e40002 	strbtvs	r0, [r4], #2
 2a8:	00040000 	andeq	r0, r4, r0
 2ac:	00000000 	andeq	r0, r0, r0
 2b0:	0000acf0 	strdeq	sl, [r0], -r0
 2b4:	00000120 	andeq	r0, r0, r0, lsr #2
	...
 2c0:	0000001c 	andeq	r0, r0, ip, lsl r0
 2c4:	70580002 	subsvc	r0, r8, r2
 2c8:	00040000 	andeq	r0, r4, r0
 2cc:	00000000 	andeq	r0, r0, r0
 2d0:	0000ae10 	andeq	sl, r0, r0, lsl lr
 2d4:	00000194 	muleq	r0, r4, r1
	...

Disassembly of section .debug_line:

00000000 <.debug_line>:
       0:	0000011c 	andeq	r0, r0, ip, lsl r1
       4:	00fb0002 	rscseq	r0, fp, r2
       8:	01020000 	mrseq	r0, (UNDEF: 2)
       c:	000d0efb 	strdeq	r0, [sp], -fp
      10:	01010101 	tsteq	r1, r1, lsl #2
      14:	01000000 	mrseq	r0, (UNDEF: 0)
      18:	74010000 	strvc	r0, [r1], #-0
      1c:	73747365 	cmnvc	r4, #-1811939327	; 0x94000001
      20:	2f002e00 	svccs	0x00002e00
      24:	72657355 	rsbvc	r7, r5, #1409286145	; 0x54000001
      28:	72622f73 	rsbvc	r2, r2, #460	; 0x1cc
      2c:	6a6e6169 	bvs	1b985d8 <__bss_end__+0x1b8bf90>
      30:	442f6e75 	strtmi	r6, [pc], #-3701	; 38 <__code_start__-0x7fc8>
      34:	746b7365 	strbtvc	r7, [fp], #-869	; 0x365
      38:	732f706f 	teqvc	pc, #111	; 0x6f
      3c:	6f6f6863 	svcvs	0x006f6863
      40:	70532f6c 	subsvc	r2, r3, ip, ror #30
      44:	676e6972 			; <UNDEFINED> instruction: 0x676e6972
      48:	30323931 	eorscc	r3, r2, r1, lsr r9
      4c:	3253432f 	subscc	r4, r3, #-1140850688	; 0xbc000000
      50:	584c3034 	stmdapl	ip, {r2, r4, r5, ip, sp}^
      54:	3273632f 	rsbscc	r6, r3, #-1140850688	; 0xbc000000
      58:	786c3034 	stmdavc	ip!, {r2, r4, r5, ip, sp}^
      5c:	7330322d 	teqvc	r0, #-805306366	; 0xd0000002
      60:	6c2f7270 	sfmvs	f7, 4, [pc], #-448	; fffffea8 <__bss_end__+0xffff3860>
      64:	69706269 	ldmdbvs	r0!, {r0, r3, r5, r6, r9, sp, lr}^
      68:	636e692f 	cmnvs	lr, #770048	; 0xbc000
      6c:	6564756c 	strbvs	r7, [r4, #-1388]!	; 0x56c
      70:	73752f00 	cmnvc	r5, #0, 30
      74:	6f6c2f72 	svcvs	0x006c2f72
      78:	2f6c6163 	svccs	0x006c6163
      7c:	6c6c6543 	cfstr64vs	mvdx6, [ip], #-268	; 0xfffffef4
      80:	612f7261 	teqvs	pc, r1, ror #4
      84:	6e2d6d72 	mcrvs	13, 1, r6, cr13, cr2, {3}
      88:	2d656e6f 	stclcs	14, cr6, [r5, #-444]!	; 0xfffffe44
      8c:	69626165 	stmdbvs	r2!, {r0, r2, r5, r6, r8, sp, lr}^
      90:	382e342f 	stmdacc	lr!, {r0, r1, r2, r3, r5, sl, ip, sp}
      94:	632d332e 	teqvs	sp, #-1207959552	; 0xb8000000
      98:	30373173 	eorscc	r3, r7, r3, ror r1
      9c:	696c2f65 	stmdbvs	ip!, {r0, r2, r5, r6, r8, r9, sl, fp, sp}^
      a0:	63672f62 	cmnvs	r7, #392	; 0x188
      a4:	72612f63 	rsbvc	r2, r1, #396	; 0x18c
      a8:	6f6e2d6d 	svcvs	0x006e2d6d
      ac:	652d656e 	strvs	r6, [sp, #-1390]!	; 0x56e
      b0:	2f696261 	svccs	0x00696261
      b4:	2e382e34 	mrccs	14, 1, r2, cr8, cr4, {1}
      b8:	6e692f33 	mcrvs	15, 3, r2, cr9, cr3, {1}
      bc:	64756c63 	ldrbtvs	r6, [r5], #-3171	; 0xc63
      c0:	70000065 	andvc	r0, r0, r5, rrx
      c4:	32747261 	rsbscc	r7, r4, #268435462	; 0x10000006
      c8:	7365742d 	cmnvc	r5, #754974720	; 0x2d000000
      cc:	632e3274 	teqvs	lr, #116, 4	; 0x40000007
      d0:	00000100 	andeq	r0, r0, r0, lsl #2
      d4:	636d656d 	cmnvs	sp, #457179136	; 0x1b400000
      d8:	6b636568 	blvs	18d9680 <__bss_end__+0x18cd038>
      dc:	0200682e 	andeq	r6, r0, #3014656	; 0x2e0000
      e0:	70720000 	rsbsvc	r0, r2, r0
      e4:	00682e69 	rsbeq	r2, r8, r9, ror #28
      e8:	6d000003 	stcvs	0, cr0, [r0, #-12]
      ec:	682e756d 	stmdavs	lr!, {r0, r2, r3, r5, r6, r8, sl, ip, sp, lr}
      f0:	00000200 	andeq	r0, r0, r0, lsl #4
      f4:	69647473 	stmdbvs	r4!, {r0, r1, r4, r5, r6, sl, ip, sp, lr}^
      f8:	672d746e 	strvs	r7, [sp, -lr, ror #8]!
      fc:	682e6363 	stmdavs	lr!, {r0, r1, r5, r6, r8, r9, sp, lr}
     100:	00000400 	andeq	r0, r0, r0, lsl #8
     104:	02050000 	andeq	r0, r5, #0
     108:	00008020 	andeq	r8, r0, r0, lsr #32
     10c:	2f2f4b16 	svccs	0x002f4b16
     110:	01040200 	mrseq	r0, R12_usr
     114:	08066606 	stmdaeq	r6, {r1, r2, r9, sl, sp, lr}
     118:	0268be25 	rsbeq	fp, r8, #592	; 0x250
     11c:	01010020 	tsteq	r1, r0, lsr #32
     120:	000002f5 	strdeq	r0, [r0], -r5
     124:	016a0002 	cmneq	sl, r2
     128:	01020000 	mrseq	r0, (UNDEF: 2)
     12c:	000d0efb 	strdeq	r0, [sp], -fp
     130:	01010101 	tsteq	r1, r1, lsl #2
     134:	01000000 	mrseq	r0, (UNDEF: 0)
     138:	2f010000 	svccs	0x00010000
     13c:	2f727375 	svccs	0x00727375
     140:	61636f6c 	cmnvs	r3, ip, ror #30
     144:	65432f6c 	strbvs	r2, [r3, #-3948]	; 0xf6c
     148:	72616c6c 	rsbvc	r6, r1, #108, 24	; 0x6c00
     14c:	6d72612f 	ldfvse	f6, [r2, #-188]!	; 0xffffff44
     150:	6e6f6e2d 	cdpvs	14, 6, cr6, cr15, cr13, {1}
     154:	61652d65 	cmnvs	r5, r5, ror #26
     158:	342f6962 	strtcc	r6, [pc], #-2402	; 160 <__code_start__-0x7ea0>
     15c:	332e382e 	teqcc	lr, #3014656	; 0x2e0000
     160:	3173632d 	cmncc	r3, sp, lsr #6
     164:	2f653037 	svccs	0x00653037
     168:	2f62696c 	svccs	0x0062696c
     16c:	2f636367 	svccs	0x00636367
     170:	2d6d7261 	sfmcs	f7, 2, [sp, #-388]!	; 0xfffffe7c
     174:	656e6f6e 	strbvs	r6, [lr, #-3950]!	; 0xf6e
     178:	6261652d 	rsbvs	r6, r1, #188743680	; 0xb400000
     17c:	2e342f69 	cdpcs	15, 3, cr2, cr4, cr9, {3}
     180:	2f332e38 	svccs	0x00332e38
     184:	6c636e69 	stclvs	14, cr6, [r3], #-420	; 0xfffffe5c
     188:	00656475 	rsbeq	r6, r5, r5, ror r4
     18c:	6573552f 	ldrbvs	r5, [r3, #-1327]!	; 0x52f
     190:	622f7372 	eorvs	r7, pc, #-939524095	; 0xc8000001
     194:	6e616972 	mcrvs	9, 3, r6, cr1, cr2, {3}
     198:	2f6e756a 	svccs	0x006e756a
     19c:	6b736544 	blvs	1cd96b4 <__bss_end__+0x1ccd06c>
     1a0:	2f706f74 	svccs	0x00706f74
     1a4:	6f686373 	svcvs	0x00686373
     1a8:	532f6c6f 	teqpl	pc, #28416	; 0x6f00
     1ac:	6e697270 	mcrvs	2, 3, r7, cr9, cr0, {3}
     1b0:	32393167 	eorscc	r3, r9, #-1073741799	; 0xc0000019
     1b4:	53432f30 	movtpl	r2, #16176	; 0x3f30
     1b8:	4c303432 	cfldrsmi	mvf3, [r0], #-200	; 0xffffff38
     1bc:	73632f58 	cmnvc	r3, #88, 30	; 0x160
     1c0:	6c303432 	cfldrsvs	mvf3, [r0], #-200	; 0xffffff38
     1c4:	30322d78 	eorscc	r2, r2, r8, ror sp
     1c8:	2f727073 	svccs	0x00727073
     1cc:	7062696c 	rsbvc	r6, r2, ip, ror #18
     1d0:	6e692f69 	cdpvs	15, 6, cr2, cr9, cr9, {3}
     1d4:	64756c63 	ldrbtvs	r6, [r5], #-3171	; 0xc63
     1d8:	752f0065 	strvc	r0, [pc, #-101]!	; 17b <__code_start__-0x7e85>
     1dc:	6c2f7273 	sfmvs	f7, 4, [pc], #-460	; 18 <__code_start__-0x7fe8>
     1e0:	6c61636f 	stclvs	3, cr6, [r1], #-444	; 0xfffffe44
     1e4:	6c65432f 	stclvs	3, cr4, [r5], #-188	; 0xffffff44
     1e8:	2f72616c 	svccs	0x0072616c
     1ec:	2d6d7261 	sfmcs	f7, 2, [sp, #-388]!	; 0xfffffe7c
     1f0:	656e6f6e 	strbvs	r6, [lr, #-3950]!	; 0xf6e
     1f4:	6261652d 	rsbvs	r6, r1, #188743680	; 0xb400000
     1f8:	2e342f69 	cdpcs	15, 3, cr2, cr4, cr9, {3}
     1fc:	2d332e38 	ldccs	14, cr2, [r3, #-224]!	; 0xffffff20
     200:	37317363 	ldrcc	r7, [r1, -r3, ror #6]!
     204:	612f6530 	teqvs	pc, r0, lsr r5	; <UNPREDICTABLE>
     208:	6e2d6d72 	mcrvs	13, 1, r6, cr13, cr2, {3}
     20c:	2d656e6f 	stclcs	14, cr6, [r5, #-444]!	; 0xfffffe44
     210:	69626165 	stmdbvs	r2!, {r0, r2, r5, r6, r8, sp, lr}^
     214:	636e692f 	cmnvs	lr, #770048	; 0xbc000
     218:	6564756c 	strbvs	r7, [r4, #-1388]!	; 0x56c
     21c:	6d6d0000 	stclvs	0, cr0, [sp, #-0]
     220:	00632e75 	rsbeq	r2, r3, r5, ror lr
     224:	6d000000 	stcvs	0, cr0, [r0, #-0]
     228:	682e756d 	stmdavs	lr!, {r0, r2, r3, r5, r6, r8, sl, ip, sp, lr}
     22c:	00000000 	andeq	r0, r0, r0
     230:	64647473 	strbtvs	r7, [r4], #-1139	; 0x473
     234:	682e6665 	stmdavs	lr!, {r0, r2, r5, r6, r9, sl, sp, lr}
     238:	00000100 	andeq	r0, r0, r0, lsl #2
     23c:	69647473 	stmdbvs	r4!, {r0, r1, r4, r5, r6, sl, ip, sp, lr}^
     240:	672d746e 	strvs	r7, [sp, -lr, ror #8]!
     244:	682e6363 	stmdavs	lr!, {r0, r1, r5, r6, r8, r9, sp, lr}
     248:	00000100 	andeq	r0, r0, r0, lsl #2
     24c:	766d7261 	strbtvc	r7, [sp], -r1, ror #4
     250:	70632d36 	rsbvc	r2, r3, r6, lsr sp
     254:	682e3531 	stmdavs	lr!, {r0, r4, r5, r8, sl, ip, sp}
     258:	00000000 	andeq	r0, r0, r0
     25c:	766d7261 	strbtvc	r7, [sp], -r1, ror #4
     260:	6d762d36 	ldclvs	13, cr2, [r6, #-216]!	; 0xffffff28
     264:	0000682e 	andeq	r6, r0, lr, lsr #16
     268:	70720000 	rsbsvc	r0, r2, r0
     26c:	00682e69 	rsbeq	r2, r8, r9, ror #28
     270:	73000002 	movwvc	r0, #2
     274:	6e697274 	mcrvs	2, 3, r7, cr9, cr4, {3}
     278:	00682e67 	rsbeq	r2, r8, r7, ror #28
     27c:	72000003 	andvc	r0, r0, #3
     280:	692d6970 	pushvs	{r4, r5, r6, r8, fp, sp, lr}
     284:	7265746e 	rsbvc	r7, r5, #1845493760	; 0x6e000000
     288:	74707572 	ldrbtvc	r7, [r0], #-1394	; 0x572
     28c:	00682e73 	rsbeq	r2, r8, r3, ror lr
     290:	00000002 	andeq	r0, r0, r2
     294:	08020500 	stmdaeq	r2, {r8, sl}
     298:	03000082 	movweq	r0, #130	; 0x82
     29c:	2f2f010a 	svccs	0x002f010a
     2a0:	02004b4c 	andeq	r4, r0, #76, 22	; 0x13000
     2a4:	4a060104 	bmi	1806bc <__bss_end__+0x174074>
     2a8:	2f210806 	svccs	0x00210806
     2ac:	0402002f 	streq	r0, [r2], #-47	; 0x2f
     2b0:	06660601 	strbteq	r0, [r6], -r1, lsl #12
     2b4:	23082208 	movwcs	r2, #33288	; 0x8208
     2b8:	e0030204 	and	r0, r3, r4, lsl #4
     2bc:	01048200 	mrseq	r8, R12_usr
     2c0:	4a7fa203 	bmi	1fe8ad4 <__bss_end__+0x1fdc48c>
     2c4:	01040200 	mrseq	r0, R12_usr
     2c8:	02004a06 	andeq	r4, r0, #24576	; 0x6000
     2cc:	08060204 	stmdaeq	r6, {r2, r9}
     2d0:	04020025 	streq	r0, [r2], #-37	; 0x25
     2d4:	02006702 	andeq	r6, r0, #524288	; 0x80000
     2d8:	6b7d0204 	blvs	1f40af0 <__bss_end__+0x1f344a8>
     2dc:	01040200 	mrseq	r0, R12_usr
     2e0:	bc2f5245 	sfmlt	f5, 4, [pc], #-276	; 1d4 <__code_start__-0x7e2c>
     2e4:	682f682f 	stmdavs	pc!, {r0, r1, r2, r3, r5, fp, sp, lr}	; <UNPREDICTABLE>
     2e8:	004b6a2f 	subeq	r6, fp, pc, lsr #20
     2ec:	06010402 	streq	r0, [r1], -r2, lsl #8
     2f0:	2208064a 	andcs	r0, r8, #77594624	; 0x4a00000
     2f4:	040200bd 	streq	r0, [r2], #-189	; 0xbd
     2f8:	064a0601 	strbeq	r0, [sl], -r1, lsl #12
     2fc:	09032108 	stmdbeq	r3, {r3, r8, sp}
     300:	02009ff2 	andeq	r9, r0, #968	; 0x3c8
     304:	4a060104 	bmi	18071c <__bss_end__+0x1740d4>
     308:	00210806 	eoreq	r0, r1, r6, lsl #16
     30c:	06010402 	streq	r0, [r1], -r2, lsl #8
     310:	2108064a 	tstcs	r8, sl, asr #12
     314:	01040200 	mrseq	r0, R12_usr
     318:	08064a06 	stmdaeq	r6, {r1, r2, r9, fp, lr}
     31c:	004b2f22 	subeq	r2, fp, r2, lsr #30
     320:	06010402 	streq	r0, [r1], -r2, lsl #8
     324:	21080666 	tstcs	r8, r6, ror #12
     328:	6730674f 	ldrvs	r6, [r0, -pc, asr #14]!
     32c:	836768a0 	cmnhi	r7, #160, 16	; 0xa00000
     330:	0885834b 	stmeq	r5, {r0, r1, r3, r6, r8, r9, pc}
     334:	0200d7ae 	andeq	sp, r0, #45613056	; 0x2b80000
     338:	4a060104 	bmi	180750 <__bss_end__+0x174108>
     33c:	00210806 	eoreq	r0, r1, r6, lsl #16
     340:	06010402 	streq	r0, [r1], -r2, lsl #8
     344:	2108064a 	tstcs	r8, sl, asr #12
     348:	01040200 	mrseq	r0, R12_usr
     34c:	02004a06 	andeq	r4, r0, #24576	; 0x6000
     350:	08060204 	stmdaeq	r6, {r2, r9}
     354:	04020022 	streq	r0, [r2], #-34	; 0x22
     358:	02009f02 	andeq	r9, r0, #2, 30
     35c:	002f0204 	eoreq	r0, pc, r4, lsl #4
     360:	2b020402 	blcs	81370 <__bss_end__+0x74d28>
     364:	01040200 	mrseq	r0, R12_usr
     368:	4f066606 	svcmi	0x00066606
     36c:	020067f4 	andeq	r6, r0, #244, 14	; 0x3d00000
     370:	4a060104 	bmi	180788 <__bss_end__+0x174140>
     374:	00240806 	eoreq	r0, r4, r6, lsl #16
     378:	06010402 	streq	r0, [r1], -r2, lsl #8
     37c:	2208064a 	andcs	r0, r8, #77594624	; 0x4a00000
     380:	4b220868 	blmi	882528 <__bss_end__+0x875ee0>
     384:	01040200 	mrseq	r0, R12_usr
     388:	08064a06 	stmdaeq	r6, {r1, r2, r9, fp, lr}
     38c:	02004b24 	andeq	r4, r0, #36, 22	; 0x9000
     390:	4a060104 	bmi	1807a8 <__bss_end__+0x174160>
     394:	4b220806 	blmi	8823b4 <__bss_end__+0x875d6c>
     398:	30304bfa 	ldrshtcc	r4, [r0], -sl
     39c:	02002f4c 	andeq	r2, r0, #76, 30	; 0x130
     3a0:	4a060104 	bmi	1807b8 <__bss_end__+0x174170>
     3a4:	00210806 	eoreq	r0, r1, r6, lsl #16
     3a8:	06010402 	streq	r0, [r1], -r2, lsl #8
     3ac:	2108064a 	tstcs	r8, sl, asr #12
     3b0:	4b4e2fd8 	blmi	138c318 <__bss_end__+0x137fcd0>
     3b4:	01040200 	mrseq	r0, R12_usr
     3b8:	08064a06 	stmdaeq	r6, {r1, r2, r9, fp, lr}
     3bc:	04020021 	streq	r0, [r2], #-33	; 0x21
     3c0:	064a0601 	strbeq	r0, [sl], -r1, lsl #12
     3c4:	d72f2108 	strle	r2, [pc, -r8, lsl #2]!
     3c8:	02002f4b 	andeq	r2, r0, #300	; 0x12c
     3cc:	4a060104 	bmi	1807e4 <__bss_end__+0x17419c>
     3d0:	4b220806 	blmi	8823f0 <__bss_end__+0x875da8>
     3d4:	02004bbc 	andeq	r4, r0, #188, 22	; 0x2f000
     3d8:	4a060104 	bmi	1807f0 <__bss_end__+0x1741a8>
     3dc:	2f210806 	svccs	0x00210806
     3e0:	002f4bbb 	strhteq	r4, [pc], -fp
     3e4:	06010402 	streq	r0, [r1], -r2, lsl #8
     3e8:	2208064a 	andcs	r0, r8, #77594624	; 0x4a00000
     3ec:	3014bd4b 	andscc	fp, r4, fp, asr #26
     3f0:	4b4f2f2f 	blmi	13cc0b4 <__bss_end__+0x13bfa6c>
     3f4:	01040200 	mrseq	r0, R12_usr
     3f8:	08064a06 	stmdaeq	r6, {r1, r2, r9, fp, lr}
     3fc:	04020021 	streq	r0, [r2], #-33	; 0x21
     400:	064a0601 	strbeq	r0, [sl], -r1, lsl #12
     404:	02002108 	andeq	r2, r0, #8, 2
     408:	66060104 	strvs	r0, [r6], -r4, lsl #2
     40c:	67210806 	strvs	r0, [r1, -r6, lsl #16]!
     410:	2f6767f5 	svccs	0x006767f5
     414:	01001602 	tsteq	r0, r2, lsl #12
     418:	00028001 	andeq	r8, r2, r1
     41c:	5e000200 	cdppl	2, 0, cr0, cr0, cr0, {0}
     420:	02000001 	andeq	r0, r0, #1
     424:	0d0efb01 	vstreq	d15, [lr, #-4]
     428:	01010100 	mrseq	r0, (UNDEF: 17)
     42c:	00000001 	andeq	r0, r0, r1
     430:	01000001 	tsteq	r0, r1
     434:	7273752f 	rsbsvc	r7, r3, #197132288	; 0xbc00000
     438:	636f6c2f 	cmnvs	pc, #12032	; 0x2f00
     43c:	432f6c61 	teqmi	pc, #24832	; 0x6100
     440:	616c6c65 	cmnvs	ip, r5, ror #24
     444:	72612f72 	rsbvc	r2, r1, #456	; 0x1c8
     448:	6f6e2d6d 	svcvs	0x006e2d6d
     44c:	652d656e 	strvs	r6, [sp, #-1390]!	; 0x56e
     450:	2f696261 	svccs	0x00696261
     454:	2e382e34 	mrccs	14, 1, r2, cr8, cr4, {1}
     458:	73632d33 	cmnvc	r3, #3264	; 0xcc0
     45c:	65303731 	ldrvs	r3, [r0, #-1841]!	; 0x731
     460:	62696c2f 	rsbvs	r6, r9, #12032	; 0x2f00
     464:	6363672f 	cmnvs	r3, #12320768	; 0xbc0000
     468:	6d72612f 	ldfvse	f6, [r2, #-188]!	; 0xffffff44
     46c:	6e6f6e2d 	cdpvs	14, 6, cr6, cr15, cr13, {1}
     470:	61652d65 	cmnvs	r5, r5, ror #26
     474:	342f6962 	strtcc	r6, [pc], #-2402	; 47c <__code_start__-0x7b84>
     478:	332e382e 	teqcc	lr, #3014656	; 0x2e0000
     47c:	636e692f 	cmnvs	lr, #770048	; 0xbc000
     480:	6564756c 	strbvs	r7, [r4, #-1388]!	; 0x56c
     484:	73552f00 	cmpvc	r5, #0, 30
     488:	2f737265 	svccs	0x00737265
     48c:	61697262 	cmnvs	r9, r2, ror #4
     490:	6e756a6e 	vsubvs.f32	s13, s10, s29
     494:	7365442f 	cmnvc	r5, #788529152	; 0x2f000000
     498:	706f746b 	rsbvc	r7, pc, fp, ror #8
     49c:	6863732f 	stmdavs	r3!, {r0, r1, r2, r3, r5, r8, r9, ip, sp, lr}^
     4a0:	2f6c6f6f 	svccs	0x006c6f6f
     4a4:	69727053 	ldmdbvs	r2!, {r0, r1, r4, r6, ip, sp, lr}^
     4a8:	3931676e 	ldmdbcc	r1!, {r1, r2, r3, r5, r6, r8, r9, sl, sp, lr}
     4ac:	432f3032 	teqmi	pc, #50	; 0x32
     4b0:	30343253 	eorscc	r3, r4, r3, asr r2
     4b4:	632f584c 	teqvs	pc, #76, 16	; 0x4c0000
     4b8:	30343273 	eorscc	r3, r4, r3, ror r2
     4bc:	322d786c 	eorcc	r7, sp, #108, 16	; 0x6c0000
     4c0:	72707330 	rsbsvc	r7, r0, #48, 6	; 0xc0000000
     4c4:	62696c2f 	rsbvs	r6, r9, #12032	; 0x2f00
     4c8:	6c2f6970 	stcvs	9, cr6, [pc], #-448	; 310 <__code_start__-0x7cf0>
     4cc:	00636269 	rsbeq	r6, r3, r9, ror #4
     4d0:	6573552f 	ldrbvs	r5, [r3, #-1327]!	; 0x52f
     4d4:	622f7372 	eorvs	r7, pc, #-939524095	; 0xc8000001
     4d8:	6e616972 	mcrvs	9, 3, r6, cr1, cr2, {3}
     4dc:	2f6e756a 	svccs	0x006e756a
     4e0:	6b736544 	blvs	1cd99f8 <__bss_end__+0x1ccd3b0>
     4e4:	2f706f74 	svccs	0x00706f74
     4e8:	6f686373 	svcvs	0x00686373
     4ec:	532f6c6f 	teqpl	pc, #28416	; 0x6f00
     4f0:	6e697270 	mcrvs	2, 3, r7, cr9, cr0, {3}
     4f4:	32393167 	eorscc	r3, r9, #-1073741799	; 0xc0000019
     4f8:	53432f30 	movtpl	r2, #16176	; 0x3f30
     4fc:	4c303432 	cfldrsmi	mvf3, [r0], #-200	; 0xffffff38
     500:	73632f58 	cmnvc	r3, #88, 30	; 0x160
     504:	6c303432 	cfldrsvs	mvf3, [r0], #-200	; 0xffffff38
     508:	30322d78 	eorscc	r2, r2, r8, ror sp
     50c:	2f727073 	svccs	0x00727073
     510:	7062696c 	rsbvc	r6, r2, ip, ror #18
     514:	6e692f69 	cdpvs	15, 6, cr2, cr9, cr9, {3}
     518:	64756c63 	ldrbtvs	r6, [r5], #-3171	; 0xc63
     51c:	6d000065 	stcvs	0, cr0, [r0, #-404]	; 0xfffffe6c
     520:	682d756d 	stmdavs	sp!, {r0, r2, r3, r5, r6, r8, sl, ip, sp, lr}
     524:	65706c65 	ldrbvs	r6, [r0, #-3173]!	; 0xc65
     528:	632e7372 	teqvs	lr, #-939524095	; 0xc8000001
     52c:	00000000 	andeq	r0, r0, r0
     530:	766d7261 	strbtvc	r7, [sp], -r1, ror #4
     534:	70632d36 	rsbvc	r2, r3, r6, lsr sp
     538:	682e3531 	stmdavs	lr!, {r0, r4, r5, r8, sl, ip, sp}
     53c:	00000000 	andeq	r0, r0, r0
     540:	766d7261 	strbtvc	r7, [sp], -r1, ror #4
     544:	6d762d36 	ldclvs	13, cr2, [r6, #-216]!	; 0xffffff28
     548:	0000682e 	andeq	r6, r0, lr, lsr #16
     54c:	74730000 	ldrbtvc	r0, [r3], #-0
     550:	746e6964 	strbtvc	r6, [lr], #-2404	; 0x964
     554:	6363672d 	cmnvs	r3, #11796480	; 0xb40000
     558:	0100682e 	tsteq	r0, lr, lsr #16
     55c:	696c0000 	stmdbvs	ip!, {}^	; <UNPREDICTABLE>
     560:	652d6362 	strvs	r6, [sp, #-866]!	; 0x362
     564:	61727478 	cmnvs	r2, r8, ror r4
     568:	0200682e 	andeq	r6, r0, #3014656	; 0x2e0000
     56c:	70720000 	rsbsvc	r0, r2, r0
     570:	00682e69 	rsbeq	r2, r8, r9, ror #28
     574:	6d000003 	stcvs	0, cr0, [r0, #-12]
     578:	682e756d 	stmdavs	lr!, {r0, r2, r3, r5, r6, r8, sl, ip, sp, lr}
     57c:	00000000 	andeq	r0, r0, r0
     580:	02050000 	andeq	r0, r5, #0
     584:	00008ae4 	andeq	r8, r0, r4, ror #21
     588:	67010e03 	strvs	r0, [r1, -r3, lsl #28]
     58c:	4b2f4308 	blmi	bd11b4 <__bss_end__+0xbc4b6c>
     590:	4a1903dd 	bmi	64150c <__bss_end__+0x634ec4>
     594:	02004c01 	andeq	r4, r0, #256	; 0x100
     598:	9e060104 	adflss	f0, f6, f4
     59c:	00210806 	eoreq	r0, r1, r6, lsl #16
     5a0:	06010402 	streq	r0, [r1], -r2, lsl #8
     5a4:	21080666 	tstcs	r8, r6, ror #12
     5a8:	01040200 	mrseq	r0, R12_usr
     5ac:	08066606 	stmdaeq	r6, {r1, r2, r9, sl, sp, lr}
     5b0:	04020023 	streq	r0, [r2], #-35	; 0x23
     5b4:	06660601 	strbteq	r0, [r6], -r1, lsl #12
     5b8:	02002108 	andeq	r2, r0, #8, 2
     5bc:	66060104 	strvs	r0, [r6], -r4, lsl #2
     5c0:	00210806 	eoreq	r0, r1, r6, lsl #16
     5c4:	06010402 	streq	r0, [r1], -r2, lsl #8
     5c8:	09030666 	stmdbeq	r3, {r1, r2, r5, r6, r9, sl}
     5cc:	02002008 	andeq	r2, r0, #8
     5d0:	66060104 	strvs	r0, [r6], -r4, lsl #2
     5d4:	00210806 	eoreq	r0, r1, r6, lsl #16
     5d8:	06010402 	streq	r0, [r1], -r2, lsl #8
     5dc:	21080666 	tstcs	r8, r6, ror #12
     5e0:	01040200 	mrseq	r0, R12_usr
     5e4:	08066606 	stmdaeq	r6, {r1, r2, r9, sl, sp, lr}
     5e8:	4bae0821 	blmi	feb82674 <__bss_end__+0xfeb7602c>
     5ec:	bbbb4b30 	bllt	feed32b4 <__bss_end__+0xfeec6c6c>
     5f0:	9f9fbbbb 	svcls	0x009fbbbb
     5f4:	bbbbbbbb 	bllt	feeef4e8 <__bss_end__+0xfeee2ea0>
     5f8:	9f9fbbbb 	svcls	0x009fbbbb
     5fc:	02bbbbbb 	adcseq	fp, fp, #191488	; 0x2ec00
     600:	01501934 	cmpeq	r0, r4, lsr r9
     604:	67834b4b 	strvs	r4, [r3, fp, asr #22]
     608:	02004bf8 	andeq	r4, r0, #248, 22	; 0x3e000
     60c:	66060104 	strvs	r0, [r6], -r4, lsl #2
     610:	00210806 	eoreq	r0, r1, r6, lsl #16
     614:	06010402 	streq	r0, [r1], -r2, lsl #8
     618:	21080682 	smlabbcs	r8, r2, r6, r0
     61c:	01040200 	mrseq	r0, R12_usr
     620:	08066606 	stmdaeq	r6, {r1, r2, r9, sl, sp, lr}
     624:	04020021 	streq	r0, [r2], #-33	; 0x21
     628:	06660601 	strbteq	r0, [r6], -r1, lsl #12
     62c:	02002108 	andeq	r2, r0, #8, 2
     630:	66060104 	strvs	r0, [r6], -r4, lsl #2
     634:	00210806 	eoreq	r0, r1, r6, lsl #16
     638:	06010402 	streq	r0, [r1], -r2, lsl #8
     63c:	21080666 	tstcs	r8, r6, ror #12
     640:	01040200 	mrseq	r0, R12_usr
     644:	08066606 	stmdaeq	r6, {r1, r2, r9, sl, sp, lr}
     648:	04020021 	streq	r0, [r2], #-33	; 0x21
     64c:	06660601 	strbteq	r0, [r6], -r1, lsl #12
     650:	93082108 	movwls	r2, #33032	; 0x8108
     654:	674b4c15 	smlaldvs	r4, fp, r5, ip
     658:	004a1103 	subeq	r1, sl, r3, lsl #2
     65c:	06010402 	streq	r0, [r1], -r2, lsl #8
     660:	04020066 	streq	r0, [r2], #-102	; 0x66
     664:	00c80802 	sbceq	r0, r8, r2, lsl #16
     668:	4a010402 	bmi	41678 <__bss_end__+0x35030>
     66c:	08210806 	stmdaeq	r1!, {r1, r2, fp}
     670:	674b4b22 	strbvs	r4, [fp, -r2, lsr #22]
     674:	01040200 	mrseq	r0, R12_usr
     678:	06200806 	strteq	r0, [r0], -r6, lsl #16
     67c:	bb4c9f4b 	bllt	13283b0 <__bss_end__+0x131bd68>
     680:	bbbb9f9f 	bllt	feee8504 <__bss_end__+0xfeedbebc>
     684:	040200bb 	streq	r0, [r2], #-187	; 0xbb
     688:	58080601 	stmdapl	r8, {r0, r9, sl}
     68c:	bbbb4b06 	bllt	feed32ac <__bss_end__+0xfeec6c64>
     690:	2a02a0bb 	bcs	a8984 <__bss_end__+0x9c33c>
     694:	2f2f2f19 	svccs	0x002f2f19
     698:	01000402 	tsteq	r0, r2, lsl #8
     69c:	00020d01 	andeq	r0, r2, r1, lsl #26
     6a0:	1f000200 	svcne	0x00000200
     6a4:	02000001 	andeq	r0, r0, #1
     6a8:	0d0efb01 	vstreq	d15, [lr, #-4]
     6ac:	01010100 	mrseq	r0, (UNDEF: 17)
     6b0:	00000001 	andeq	r0, r0, r1
     6b4:	01000001 	tsteq	r0, r1
     6b8:	7273752f 	rsbsvc	r7, r3, #197132288	; 0xbc00000
     6bc:	636f6c2f 	cmnvs	pc, #12032	; 0x2f00
     6c0:	432f6c61 	teqmi	pc, #24832	; 0x6100
     6c4:	616c6c65 	cmnvs	ip, r5, ror #24
     6c8:	72612f72 	rsbvc	r2, r1, #456	; 0x1c8
     6cc:	6f6e2d6d 	svcvs	0x006e2d6d
     6d0:	652d656e 	strvs	r6, [sp, #-1390]!	; 0x56e
     6d4:	2f696261 	svccs	0x00696261
     6d8:	2e382e34 	mrccs	14, 1, r2, cr8, cr4, {1}
     6dc:	73632d33 	cmnvc	r3, #3264	; 0xcc0
     6e0:	65303731 	ldrvs	r3, [r0, #-1841]!	; 0x731
     6e4:	62696c2f 	rsbvs	r6, r9, #12032	; 0x2f00
     6e8:	6363672f 	cmnvs	r3, #12320768	; 0xbc0000
     6ec:	6d72612f 	ldfvse	f6, [r2, #-188]!	; 0xffffff44
     6f0:	6e6f6e2d 	cdpvs	14, 6, cr6, cr15, cr13, {1}
     6f4:	61652d65 	cmnvs	r5, r5, ror #26
     6f8:	342f6962 	strtcc	r6, [pc], #-2402	; 700 <__code_start__-0x7900>
     6fc:	332e382e 	teqcc	lr, #3014656	; 0x2e0000
     700:	636e692f 	cmnvs	lr, #770048	; 0xbc000
     704:	6564756c 	strbvs	r7, [r4, #-1388]!	; 0x56c
     708:	73552f00 	cmpvc	r5, #0, 30
     70c:	2f737265 	svccs	0x00737265
     710:	61697262 	cmnvs	r9, r2, ror #4
     714:	6e756a6e 	vsubvs.f32	s13, s10, s29
     718:	7365442f 	cmnvc	r5, #788529152	; 0x2f000000
     71c:	706f746b 	rsbvc	r7, pc, fp, ror #8
     720:	6863732f 	stmdavs	r3!, {r0, r1, r2, r3, r5, r8, r9, ip, sp, lr}^
     724:	2f6c6f6f 	svccs	0x006c6f6f
     728:	69727053 	ldmdbvs	r2!, {r0, r1, r4, r6, ip, sp, lr}^
     72c:	3931676e 	ldmdbcc	r1!, {r1, r2, r3, r5, r6, r8, r9, sl, sp, lr}
     730:	432f3032 	teqmi	pc, #50	; 0x32
     734:	30343253 	eorscc	r3, r4, r3, asr r2
     738:	632f584c 	teqvs	pc, #76, 16	; 0x4c0000
     73c:	30343273 	eorscc	r3, r4, r3, ror r2
     740:	322d786c 	eorcc	r7, sp, #108, 16	; 0x6c0000
     744:	72707330 	rsbsvc	r7, r0, #48, 6	; 0xc0000000
     748:	62696c2f 	rsbvs	r6, r9, #12032	; 0x2f00
     74c:	692f6970 	stmdbvs	pc!, {r4, r5, r6, r8, fp, sp, lr}	; <UNPREDICTABLE>
     750:	756c636e 	strbvc	r6, [ip, #-878]!	; 0x36e
     754:	00006564 	andeq	r6, r0, r4, ror #10
     758:	636d656d 	cmnvs	sp, #457179136	; 0x1b400000
     75c:	6b636568 	blvs	18d9d04 <__bss_end__+0x18cd6bc>
     760:	0000632e 	andeq	r6, r0, lr, lsr #6
     764:	69620000 	stmdbvs	r2!, {}^	; <UNPREDICTABLE>
     768:	75732d74 	ldrbvc	r2, [r3, #-3444]!	; 0xd74
     76c:	726f7070 	rsbvc	r7, pc, #112	; 0x70
     770:	00682e74 	rsbeq	r2, r8, r4, ror lr
     774:	61000000 	mrsvs	r0, (UNDEF: 0)
     778:	36766d72 			; <UNDEFINED> instruction: 0x36766d72
     77c:	2e6d762d 	cdpcs	6, 6, cr7, cr13, cr13, {1}
     780:	00000068 	andeq	r0, r0, r8, rrx
     784:	64747300 	ldrbtvs	r7, [r4], #-768	; 0x300
     788:	2d746e69 	ldclcs	14, cr6, [r4, #-420]!	; 0xfffffe5c
     78c:	2e636367 	cdpcs	3, 6, cr6, cr3, cr7, {3}
     790:	00010068 	andeq	r0, r1, r8, rrx
     794:	6d656d00 	stclvs	13, cr6, [r5, #-0]
     798:	63656863 	cmnvs	r5, #6488064	; 0x630000
     79c:	00682e6b 	rsbeq	r2, r8, fp, ror #28
     7a0:	72000000 	andvc	r0, r0, #0
     7a4:	682e6970 	stmdavs	lr!, {r4, r5, r6, r8, fp, sp, lr}
     7a8:	00000200 	andeq	r0, r0, r0, lsl #4
     7ac:	2e756d6d 	cdpcs	13, 7, cr6, cr5, cr13, {3}
     7b0:	00000068 	andeq	r0, r0, r8, rrx
     7b4:	31706300 	cmncc	r0, r0, lsl #6
     7b8:	65642d34 	strbvs	r2, [r4, #-3380]!	; 0xd34
     7bc:	2e677562 	cdpcs	5, 6, cr7, cr7, cr2, {3}
     7c0:	00000068 	andeq	r0, r0, r8, rrx
     7c4:	05000000 	streq	r0, [r0, #-0]
     7c8:	0093f802 	addseq	pc, r3, r2, lsl #16
     7cc:	011b0300 	tsteq	fp, r0, lsl #6
     7d0:	1367672f 	cmnne	r7, #12320768	; 0xbc0000
     7d4:	004b9fc0 	subeq	r9, fp, r0, asr #31
     7d8:	06010402 	streq	r0, [r1], -r2, lsl #8
     7dc:	21080666 	tstcs	r8, r6, ror #12
     7e0:	01040200 	mrseq	r0, R12_usr
     7e4:	08066606 	stmdaeq	r6, {r1, r2, r9, sl, sp, lr}
     7e8:	04020021 	streq	r0, [r2], #-33	; 0x21
     7ec:	06660601 	strbteq	r0, [r6], -r1, lsl #12
     7f0:	03d72108 	bicseq	r2, r7, #8, 2
     7f4:	673c080d 	ldrvs	r0, [ip, -sp, lsl #16]!
     7f8:	0302042f 	movweq	r0, #9263	; 0x242f
     7fc:	59086662 	stmdbpl	r8, {r1, r5, r6, r9, sl, sp, lr}
     800:	044b5908 	strbeq	r5, [fp], #-2312	; 0x908
     804:	4a1c0301 	bmi	701410 <__bss_end__+0x6f4dc8>
     808:	02004bf6 	andeq	r4, r0, #251904	; 0x3d800
     80c:	4a060104 	bmi	180c24 <__bss_end__+0x1745dc>
     810:	00210806 	eoreq	r0, r1, r6, lsl #16
     814:	06010402 	streq	r0, [r1], -r2, lsl #8
     818:	2208064a 	andcs	r0, r8, #77594624	; 0x4a00000
     81c:	90080a03 	andls	r0, r8, r3, lsl #20
     820:	9e240313 	mcrls	3, 1, r0, cr4, cr3, {0}
     824:	2f2e0f03 	svccs	0x002e0f03
     828:	3c028430 	cfstrscc	mvf8, [r2], {48}	; 0x30
     82c:	d9d9d914 	ldmible	r9, {r2, r4, r8, fp, ip, lr, pc}^
     830:	d9d9d9d9 	ldmible	r9, {r0, r3, r4, r6, r7, r8, fp, ip, lr, pc}^
     834:	d9d9d9d9 	ldmible	r9, {r0, r3, r4, r6, r7, r8, fp, ip, lr, pc}^
     838:	d9d9d9d9 	ldmible	r9, {r0, r3, r4, r6, r7, r8, fp, ip, lr, pc}^
     83c:	d9d9d9d9 	ldmible	r9, {r0, r3, r4, r6, r7, r8, fp, ip, lr, pc}^
     840:	3a021803 	bcc	86854 <__bss_end__+0x7a20c>
     844:	032f2f01 	teqeq	pc, #1, 30
     848:	4c3c080c 	ldcmi	8, cr0, [ip], #-48	; 0xffffffd0
     84c:	0402002f 	streq	r0, [r2], #-47	; 0x2f
     850:	06660601 	strbteq	r0, [r6], -r1, lsl #12
     854:	009f2408 	addseq	r2, pc, r8, lsl #8
     858:	06010402 	streq	r0, [r1], -r2, lsl #8
     85c:	2508064a 	strcs	r0, [r8, #-1610]	; 0x64a
     860:	9fa2bc84 	svcls	0x00a2bc84
     864:	34a1a19f 	strtcc	sl, [r1], #415	; 0x19f
     868:	5c08834d 	stcpl	3, cr8, [r8], {77}	; 0x4d
     86c:	002fa04b 	eoreq	sl, pc, fp, asr #32
     870:	06010402 	streq	r0, [r1], -r2, lsl #8
     874:	21080666 	tstcs	r8, r6, ror #12
     878:	4c23089f 	stcmi	8, cr0, [r3], #-636	; 0xfffffd84
     87c:	0402002f 	streq	r0, [r2], #-47	; 0x2f
     880:	06660601 	strbteq	r0, [r6], -r1, lsl #12
     884:	f49f2108 			; <UNDEFINED> instruction: 0xf49f2108
     888:	04020067 	streq	r0, [r2], #-103	; 0x67
     88c:	06660601 	strbteq	r0, [r6], -r1, lsl #12
     890:	d8bb2308 	ldmle	fp!, {r3, r8, r9, sp}
     894:	04020067 	streq	r0, [r2], #-103	; 0x67
     898:	06660601 	strbteq	r0, [r6], -r1, lsl #12
     89c:	f4bb2308 			; <UNDEFINED> instruction: 0xf4bb2308
     8a0:	2fda302f 	svccs	0x00da302f
     8a4:	692f6a4b 	stmdbvs	pc!, {r0, r1, r3, r6, r9, fp, sp, lr}	; <UNPREDICTABLE>
     8a8:	0006022f 	andeq	r0, r6, pc, lsr #4
     8ac:	00de0101 	sbcseq	r0, lr, r1, lsl #2
     8b0:	00020000 	andeq	r0, r2, r0
     8b4:	00000083 	andeq	r0, r0, r3, lsl #1
     8b8:	0efb0102 	cdpeq	1, 15, cr0, cr11, cr2, {0}
     8bc:	0101000d 	tsteq	r1, sp
     8c0:	00000101 	andeq	r0, r0, r1, lsl #2
     8c4:	00000100 	andeq	r0, r0, r0, lsl #2
     8c8:	62696c01 	rsbvs	r6, r9, #256	; 0x100
     8cc:	752f0063 	strvc	r0, [pc, #-99]!	; 871 <__code_start__-0x778f>
     8d0:	6c2f7273 	sfmvs	f7, 4, [pc], #-460	; 70c <__code_start__-0x78f4>
     8d4:	6c61636f 	stclvs	3, cr6, [r1], #-444	; 0xfffffe44
     8d8:	6c65432f 	stclvs	3, cr4, [r5], #-188	; 0xffffff44
     8dc:	2f72616c 	svccs	0x0072616c
     8e0:	2d6d7261 	sfmcs	f7, 2, [sp, #-388]!	; 0xfffffe7c
     8e4:	656e6f6e 	strbvs	r6, [lr, #-3950]!	; 0xf6e
     8e8:	6261652d 	rsbvs	r6, r1, #188743680	; 0xb400000
     8ec:	2e342f69 	cdpcs	15, 3, cr2, cr4, cr9, {3}
     8f0:	2d332e38 	ldccs	14, cr2, [r3, #-224]!	; 0xffffff20
     8f4:	37317363 	ldrcc	r7, [r1, -r3, ror #6]!
     8f8:	6c2f6530 	cfstr32vs	mvfx6, [pc], #-192	; 840 <__code_start__-0x77c0>
     8fc:	672f6269 	strvs	r6, [pc, -r9, ror #4]!
     900:	612f6363 	teqvs	pc, r3, ror #6
     904:	6e2d6d72 	mcrvs	13, 1, r6, cr13, cr2, {3}
     908:	2d656e6f 	stclcs	14, cr6, [r5, #-444]!	; 0xfffffe44
     90c:	69626165 	stmdbvs	r2!, {r0, r2, r5, r6, r8, sp, lr}^
     910:	382e342f 	stmdacc	lr!, {r0, r1, r2, r3, r5, sl, ip, sp}
     914:	692f332e 	stmdbvs	pc!, {r1, r2, r3, r5, r8, r9, ip, sp}	; <UNPREDICTABLE>
     918:	756c636e 	strbvc	r6, [ip, #-878]!	; 0x36e
     91c:	00006564 	andeq	r6, r0, r4, ror #10
     920:	68736168 	ldmdavs	r3!, {r3, r5, r6, r8, sp, lr}^
     924:	0100632e 	tsteq	r0, lr, lsr #6
     928:	74730000 	ldrbtvc	r0, [r3], #-0
     92c:	746e6964 	strbtvc	r6, [lr], #-2404	; 0x964
     930:	6363672d 	cmnvs	r3, #11796480	; 0xb40000
     934:	0200682e 	andeq	r6, r0, #3014656	; 0x2e0000
     938:	00000000 	andeq	r0, r0, r0
     93c:	a0d00205 	sbcsge	r0, r0, r5, lsl #4
     940:	0e030000 	cdpeq	0, 0, cr0, cr3, cr0, {0}
     944:	84313001 	ldrthi	r3, [r1], #-1
     948:	0200312f 	andeq	r3, r0, #-1073741813	; 0xc000000b
     94c:	002f0204 	eoreq	r0, pc, r4, lsl #4
     950:	83020402 	movwhi	r0, #9218	; 0x2402
     954:	02040200 	andeq	r0, r4, #0, 4
     958:	04020083 	streq	r0, [r2], #-131	; 0x83
     95c:	02002f02 	andeq	r2, r0, #2, 30
     960:	002f0204 	eoreq	r0, pc, r4, lsl #4
     964:	29020402 	stmdbcs	r2, {r1, sl}
     968:	01040200 	mrseq	r0, R12_usr
     96c:	03062e06 	movweq	r2, #28166	; 0x6e06
     970:	83d74a09 	bicshi	r4, r7, #36864	; 0x9000
     974:	2f2f4b2f 	svccs	0x002f4b2f
     978:	2f2f2f83 	svccs	0x002f2f83
     97c:	2f322f4b 	svccs	0x00322f4b
     980:	2f2f2f2f 	svccs	0x002f2f2f
     984:	2e5a0330 	mrccs	3, 2, r0, cr10, cr0, {1}
     988:	022e2703 	eoreq	r2, lr, #786432	; 0xc0000
     98c:	01010004 	tsteq	r1, r4
     990:	000000ec 	andeq	r0, r0, ip, ror #1
     994:	00d00002 	sbcseq	r0, r0, r2
     998:	01020000 	mrseq	r0, (UNDEF: 2)
     99c:	000d0efb 	strdeq	r0, [sp], -fp
     9a0:	01010101 	tsteq	r1, r1, lsl #2
     9a4:	01000000 	mrseq	r0, (UNDEF: 0)
     9a8:	6c010000 	stcvs	0, cr0, [r1], {-0}
     9ac:	00636269 	rsbeq	r6, r3, r9, ror #4
     9b0:	7273752f 	rsbsvc	r7, r3, #197132288	; 0xbc00000
     9b4:	636f6c2f 	cmnvs	pc, #12032	; 0x2f00
     9b8:	432f6c61 	teqmi	pc, #24832	; 0x6100
     9bc:	616c6c65 	cmnvs	ip, r5, ror #24
     9c0:	72612f72 	rsbvc	r2, r1, #456	; 0x1c8
     9c4:	6f6e2d6d 	svcvs	0x006e2d6d
     9c8:	652d656e 	strvs	r6, [sp, #-1390]!	; 0x56e
     9cc:	2f696261 	svccs	0x00696261
     9d0:	2e382e34 	mrccs	14, 1, r2, cr8, cr4, {1}
     9d4:	73632d33 	cmnvc	r3, #3264	; 0xcc0
     9d8:	65303731 	ldrvs	r3, [r0, #-1841]!	; 0x731
     9dc:	62696c2f 	rsbvs	r6, r9, #12032	; 0x2f00
     9e0:	6363672f 	cmnvs	r3, #12320768	; 0xbc0000
     9e4:	6d72612f 	ldfvse	f6, [r2, #-188]!	; 0xffffff44
     9e8:	6e6f6e2d 	cdpvs	14, 6, cr6, cr15, cr13, {1}
     9ec:	61652d65 	cmnvs	r5, r5, ror #26
     9f0:	342f6962 	strtcc	r6, [pc], #-2402	; 9f8 <__code_start__-0x7608>
     9f4:	332e382e 	teqcc	lr, #3014656	; 0x2e0000
     9f8:	636e692f 	cmnvs	lr, #770048	; 0xbc000
     9fc:	6564756c 	strbvs	r7, [r4, #-1388]!	; 0x56c
     a00:	73752f00 	cmnvc	r5, #0, 30
     a04:	6f6c2f72 	svcvs	0x006c2f72
     a08:	2f6c6163 	svccs	0x006c6163
     a0c:	6c6c6543 	cfstr64vs	mvdx6, [ip], #-268	; 0xfffffef4
     a10:	612f7261 	teqvs	pc, r1, ror #4
     a14:	6e2d6d72 	mcrvs	13, 1, r6, cr13, cr2, {3}
     a18:	2d656e6f 	stclcs	14, cr6, [r5, #-444]!	; 0xfffffe44
     a1c:	69626165 	stmdbvs	r2!, {r0, r2, r5, r6, r8, sp, lr}^
     a20:	382e342f 	stmdacc	lr!, {r0, r1, r2, r3, r5, sl, ip, sp}
     a24:	632d332e 	teqvs	sp, #-1207959552	; 0xb8000000
     a28:	30373173 	eorscc	r3, r7, r3, ror r1
     a2c:	72612f65 	rsbvc	r2, r1, #404	; 0x194
     a30:	6f6e2d6d 	svcvs	0x006e2d6d
     a34:	652d656e 	strvs	r6, [sp, #-1390]!	; 0x56e
     a38:	2f696261 	svccs	0x00696261
     a3c:	6c636e69 	stclvs	14, cr6, [r3], #-420	; 0xfffffe5c
     a40:	00656475 	rsbeq	r6, r5, r5, ror r4
     a44:	6d656d00 	stclvs	13, cr6, [r5, #-0]
     a48:	2e746573 	mrccs	5, 3, r6, cr4, cr3, {3}
     a4c:	00010063 	andeq	r0, r1, r3, rrx
     a50:	64747300 	ldrbtvs	r7, [r4], #-768	; 0x300
     a54:	2e666564 	cdpcs	5, 6, cr6, cr6, cr4, {3}
     a58:	00020068 	andeq	r0, r2, r8, rrx
     a5c:	72747300 	rsbsvc	r7, r4, #0, 6
     a60:	2e676e69 	cdpcs	14, 6, cr6, cr7, cr9, {3}
     a64:	00030068 	andeq	r0, r3, r8, rrx
     a68:	05000000 	streq	r0, [r0, #-0]
     a6c:	00a1c002 	adceq	ip, r1, r2
     a70:	4c131400 	cfldrsmi	mvf1, [r3], {-0}
     a74:	0402002f 	streq	r0, [r2], #-47	; 0x2f
     a78:	024d4901 	subeq	r4, sp, #16384	; 0x4000
     a7c:	01010002 	tsteq	r1, r2
     a80:	0000010c 	andeq	r0, r0, ip, lsl #2
     a84:	00f50002 	rscseq	r0, r5, r2
     a88:	01020000 	mrseq	r0, (UNDEF: 2)
     a8c:	000d0efb 	strdeq	r0, [sp], -fp
     a90:	01010101 	tsteq	r1, r1, lsl #2
     a94:	01000000 	mrseq	r0, (UNDEF: 0)
     a98:	6c010000 	stcvs	0, cr0, [r1], {-0}
     a9c:	00636269 	rsbeq	r6, r3, r9, ror #4
     aa0:	7273752f 	rsbsvc	r7, r3, #197132288	; 0xbc00000
     aa4:	636f6c2f 	cmnvs	pc, #12032	; 0x2f00
     aa8:	432f6c61 	teqmi	pc, #24832	; 0x6100
     aac:	616c6c65 	cmnvs	ip, r5, ror #24
     ab0:	72612f72 	rsbvc	r2, r1, #456	; 0x1c8
     ab4:	6f6e2d6d 	svcvs	0x006e2d6d
     ab8:	652d656e 	strvs	r6, [sp, #-1390]!	; 0x56e
     abc:	2f696261 	svccs	0x00696261
     ac0:	2e382e34 	mrccs	14, 1, r2, cr8, cr4, {1}
     ac4:	73632d33 	cmnvc	r3, #3264	; 0xcc0
     ac8:	65303731 	ldrvs	r3, [r0, #-1841]!	; 0x731
     acc:	62696c2f 	rsbvs	r6, r9, #12032	; 0x2f00
     ad0:	6363672f 	cmnvs	r3, #12320768	; 0xbc0000
     ad4:	6d72612f 	ldfvse	f6, [r2, #-188]!	; 0xffffff44
     ad8:	6e6f6e2d 	cdpvs	14, 6, cr6, cr15, cr13, {1}
     adc:	61652d65 	cmnvs	r5, r5, ror #26
     ae0:	342f6962 	strtcc	r6, [pc], #-2402	; ae8 <__code_start__-0x7518>
     ae4:	332e382e 	teqcc	lr, #3014656	; 0x2e0000
     ae8:	636e692f 	cmnvs	lr, #770048	; 0xbc000
     aec:	6564756c 	strbvs	r7, [r4, #-1388]!	; 0x56c
     af0:	73552f00 	cmpvc	r5, #0, 30
     af4:	2f737265 	svccs	0x00737265
     af8:	61697262 	cmnvs	r9, r2, ror #4
     afc:	6e756a6e 	vsubvs.f32	s13, s10, s29
     b00:	7365442f 	cmnvc	r5, #788529152	; 0x2f000000
     b04:	706f746b 	rsbvc	r7, pc, fp, ror #8
     b08:	6863732f 	stmdavs	r3!, {r0, r1, r2, r3, r5, r8, r9, ip, sp, lr}^
     b0c:	2f6c6f6f 	svccs	0x006c6f6f
     b10:	69727053 	ldmdbvs	r2!, {r0, r1, r4, r6, ip, sp, lr}^
     b14:	3931676e 	ldmdbcc	r1!, {r1, r2, r3, r5, r6, r8, r9, sl, sp, lr}
     b18:	432f3032 	teqmi	pc, #50	; 0x32
     b1c:	30343253 	eorscc	r3, r4, r3, asr r2
     b20:	632f584c 	teqvs	pc, #76, 16	; 0x4c0000
     b24:	30343273 	eorscc	r3, r4, r3, ror r2
     b28:	322d786c 	eorcc	r7, sp, #108, 16	; 0x6c0000
     b2c:	72707330 	rsbsvc	r7, r0, #48, 6	; 0xc0000000
     b30:	62696c2f 	rsbvs	r6, r9, #12032	; 0x2f00
     b34:	692f6970 	stmdbvs	pc!, {r4, r5, r6, r8, fp, sp, lr}	; <UNPREDICTABLE>
     b38:	756c636e 	strbvc	r6, [ip, #-878]!	; 0x36e
     b3c:	00006564 	andeq	r6, r0, r4, ror #10
     b40:	6e697270 	mcrvs	2, 3, r7, cr9, cr0, {3}
     b44:	632e6b74 	teqvs	lr, #116, 22	; 0x1d000
     b48:	00000100 	andeq	r0, r0, r0, lsl #2
     b4c:	61647473 	smcvs	18243	; 0x4743
     b50:	682e6772 	stmdavs	lr!, {r1, r4, r5, r6, r8, r9, sl, sp, lr}
     b54:	00000200 	andeq	r0, r0, r0, lsl #4
     b58:	6975623c 	ldmdbvs	r5!, {r2, r3, r4, r5, r9, sp, lr}^
     b5c:	692d746c 	pushvs	{r2, r3, r5, r6, sl, ip, sp, lr}
     b60:	00003e6e 	andeq	r3, r0, lr, ror #28
     b64:	70720000 	rsbsvc	r0, r2, r0
     b68:	00682e69 	rsbeq	r2, r8, r9, ror #28
     b6c:	76000003 	strvc	r0, [r0], -r3
     b70:	72702d61 	rsbsvc	r2, r0, #6208	; 0x1840
     b74:	6b746e69 	blvs	1d1c520 <__bss_end__+0x1d0fed8>
     b78:	0100682e 	tsteq	r0, lr, lsr #16
     b7c:	00000000 	andeq	r0, r0, r0
     b80:	a1e00205 	mvnge	r0, r5, lsl #4
     b84:	6b170000 	blvs	5c0b8c <__bss_end__+0x5b4544>
     b88:	0289bf4b 	addeq	fp, r9, #300	; 0x12c
     b8c:	0101000e 	tsteq	r1, lr
     b90:	00000094 	muleq	r0, r4, r0
     b94:	007c0002 	rsbseq	r0, ip, r2
     b98:	01020000 	mrseq	r0, (UNDEF: 2)
     b9c:	000d0efb 	strdeq	r0, [sp], -fp
     ba0:	01010101 	tsteq	r1, r1, lsl #2
     ba4:	01000000 	mrseq	r0, (UNDEF: 0)
     ba8:	6c010000 	stcvs	0, cr0, [r1], {-0}
     bac:	00636269 	rsbeq	r6, r3, r9, ror #4
     bb0:	6573552f 	ldrbvs	r5, [r3, #-1327]!	; 0x52f
     bb4:	622f7372 	eorvs	r7, pc, #-939524095	; 0xc8000001
     bb8:	6e616972 	mcrvs	9, 3, r6, cr1, cr2, {3}
     bbc:	2f6e756a 	svccs	0x006e756a
     bc0:	6b736544 	blvs	1cda0d8 <__bss_end__+0x1ccda90>
     bc4:	2f706f74 	svccs	0x00706f74
     bc8:	6f686373 	svcvs	0x00686373
     bcc:	532f6c6f 	teqpl	pc, #28416	; 0x6f00
     bd0:	6e697270 	mcrvs	2, 3, r7, cr9, cr0, {3}
     bd4:	32393167 	eorscc	r3, r9, #-1073741799	; 0xc0000019
     bd8:	53432f30 	movtpl	r2, #16176	; 0x3f30
     bdc:	4c303432 	cfldrsmi	mvf3, [r0], #-200	; 0xffffff38
     be0:	73632f58 	cmnvc	r3, #88, 30	; 0x160
     be4:	6c303432 	cfldrsvs	mvf3, [r0], #-200	; 0xffffff38
     be8:	30322d78 	eorscc	r2, r2, r8, ror sp
     bec:	2f727073 	svccs	0x00727073
     bf0:	7062696c 	rsbvc	r6, r2, ip, ror #18
     bf4:	6e692f69 	cdpvs	15, 6, cr2, cr9, cr9, {3}
     bf8:	64756c63 	ldrbtvs	r6, [r5], #-3171	; 0xc63
     bfc:	70000065 	andvc	r0, r0, r5, rrx
     c00:	68637475 	stmdavs	r3!, {r0, r2, r4, r5, r6, sl, ip, sp, lr}^
     c04:	632e7261 	teqvs	lr, #268435462	; 0x10000006
     c08:	00000100 	andeq	r0, r0, r0, lsl #2
     c0c:	2e697072 	mcrcs	0, 3, r7, cr9, cr2, {3}
     c10:	00020068 	andeq	r0, r2, r8, rrx
     c14:	05000000 	streq	r0, [r0, #-0]
     c18:	00a23802 	adceq	r3, r2, r2, lsl #16
     c1c:	6b4a1400 	blvs	1285c24 <__bss_end__+0x12795dc>
     c20:	0213bc13 	andseq	fp, r3, #4864	; 0x1300
     c24:	01010008 	tsteq	r1, r8
     c28:	000000a0 	andeq	r0, r0, r0, lsr #1
     c2c:	00790002 	rsbseq	r0, r9, r2
     c30:	01020000 	mrseq	r0, (UNDEF: 2)
     c34:	000d0efb 	strdeq	r0, [sp], -fp
     c38:	01010101 	tsteq	r1, r1, lsl #2
     c3c:	01000000 	mrseq	r0, (UNDEF: 0)
     c40:	6c010000 	stcvs	0, cr0, [r1], {-0}
     c44:	00636269 	rsbeq	r6, r3, r9, ror #4
     c48:	6573552f 	ldrbvs	r5, [r3, #-1327]!	; 0x52f
     c4c:	622f7372 	eorvs	r7, pc, #-939524095	; 0xc8000001
     c50:	6e616972 	mcrvs	9, 3, r6, cr1, cr2, {3}
     c54:	2f6e756a 	svccs	0x006e756a
     c58:	6b736544 	blvs	1cda170 <__bss_end__+0x1ccdb28>
     c5c:	2f706f74 	svccs	0x00706f74
     c60:	6f686373 	svcvs	0x00686373
     c64:	532f6c6f 	teqpl	pc, #28416	; 0x6f00
     c68:	6e697270 	mcrvs	2, 3, r7, cr9, cr0, {3}
     c6c:	32393167 	eorscc	r3, r9, #-1073741799	; 0xc0000019
     c70:	53432f30 	movtpl	r2, #16176	; 0x3f30
     c74:	4c303432 	cfldrsmi	mvf3, [r0], #-200	; 0xffffff38
     c78:	73632f58 	cmnvc	r3, #88, 30	; 0x160
     c7c:	6c303432 	cfldrsvs	mvf3, [r0], #-200	; 0xffffff38
     c80:	30322d78 	eorscc	r2, r2, r8, ror sp
     c84:	2f727073 	svccs	0x00727073
     c88:	7062696c 	rsbvc	r6, r2, ip, ror #18
     c8c:	6e692f69 	cdpvs	15, 6, cr2, cr9, cr9, {3}
     c90:	64756c63 	ldrbtvs	r6, [r5], #-3171	; 0xc63
     c94:	70000065 	andvc	r0, r0, r5, rrx
     c98:	2e6b7475 	mcrcs	4, 3, r7, cr11, cr5, {3}
     c9c:	00010063 	andeq	r0, r1, r3, rrx
     ca0:	69707200 	ldmdbvs	r0!, {r9, ip, sp, lr}^
     ca4:	0200682e 	andeq	r6, r0, #3014656	; 0x2e0000
     ca8:	00000000 	andeq	r0, r0, r0
     cac:	a2740205 	rsbsge	r0, r4, #1342177280	; 0x50000000
     cb0:	4c150000 	ldcmi	0, cr0, [r5], {-0}
     cb4:	0402002d 	streq	r0, [r2], #-45	; 0x2d
     cb8:	02002f02 	andeq	r2, r0, #2, 30
     cbc:	00490204 	subeq	r0, r9, r4, lsl #4
     cc0:	06010402 	streq	r0, [r1], -r2, lsl #8
     cc4:	026b062e 	rsbeq	r0, fp, #48234496	; 0x2e00000
     cc8:	01010006 	tsteq	r1, r6
     ccc:	000001f1 	strdeq	r0, [r0], -r1
     cd0:	00e90002 	rsceq	r0, r9, r2
     cd4:	01020000 	mrseq	r0, (UNDEF: 2)
     cd8:	000d0efb 	strdeq	r0, [sp], -fp
     cdc:	01010101 	tsteq	r1, r1, lsl #2
     ce0:	01000000 	mrseq	r0, (UNDEF: 0)
     ce4:	6c010000 	stcvs	0, cr0, [r1], {-0}
     ce8:	00636269 	rsbeq	r6, r3, r9, ror #4
     cec:	7273752f 	rsbsvc	r7, r3, #197132288	; 0xbc00000
     cf0:	636f6c2f 	cmnvs	pc, #12032	; 0x2f00
     cf4:	432f6c61 	teqmi	pc, #24832	; 0x6100
     cf8:	616c6c65 	cmnvs	ip, r5, ror #24
     cfc:	72612f72 	rsbvc	r2, r1, #456	; 0x1c8
     d00:	6f6e2d6d 	svcvs	0x006e2d6d
     d04:	652d656e 	strvs	r6, [sp, #-1390]!	; 0x56e
     d08:	2f696261 	svccs	0x00696261
     d0c:	2e382e34 	mrccs	14, 1, r2, cr8, cr4, {1}
     d10:	73632d33 	cmnvc	r3, #3264	; 0xcc0
     d14:	65303731 	ldrvs	r3, [r0, #-1841]!	; 0x731
     d18:	62696c2f 	rsbvs	r6, r9, #12032	; 0x2f00
     d1c:	6363672f 	cmnvs	r3, #12320768	; 0xbc0000
     d20:	6d72612f 	ldfvse	f6, [r2, #-188]!	; 0xffffff44
     d24:	6e6f6e2d 	cdpvs	14, 6, cr6, cr15, cr13, {1}
     d28:	61652d65 	cmnvs	r5, r5, ror #26
     d2c:	342f6962 	strtcc	r6, [pc], #-2402	; d34 <__code_start__-0x72cc>
     d30:	332e382e 	teqcc	lr, #3014656	; 0x2e0000
     d34:	636e692f 	cmnvs	lr, #770048	; 0xbc000
     d38:	6564756c 	strbvs	r7, [r4, #-1388]!	; 0x56c
     d3c:	73552f00 	cmpvc	r5, #0, 30
     d40:	2f737265 	svccs	0x00737265
     d44:	61697262 	cmnvs	r9, r2, ror #4
     d48:	6e756a6e 	vsubvs.f32	s13, s10, s29
     d4c:	7365442f 	cmnvc	r5, #788529152	; 0x2f000000
     d50:	706f746b 	rsbvc	r7, pc, fp, ror #8
     d54:	6863732f 	stmdavs	r3!, {r0, r1, r2, r3, r5, r8, r9, ip, sp, lr}^
     d58:	2f6c6f6f 	svccs	0x006c6f6f
     d5c:	69727053 	ldmdbvs	r2!, {r0, r1, r4, r6, ip, sp, lr}^
     d60:	3931676e 	ldmdbcc	r1!, {r1, r2, r3, r5, r6, r8, r9, sl, sp, lr}
     d64:	432f3032 	teqmi	pc, #50	; 0x32
     d68:	30343253 	eorscc	r3, r4, r3, asr r2
     d6c:	632f584c 	teqvs	pc, #76, 16	; 0x4c0000
     d70:	30343273 	eorscc	r3, r4, r3, ror r2
     d74:	322d786c 	eorcc	r7, sp, #108, 16	; 0x6c0000
     d78:	72707330 	rsbsvc	r7, r0, #48, 6	; 0xc0000000
     d7c:	62696c2f 	rsbvs	r6, r9, #12032	; 0x2f00
     d80:	692f6970 	stmdbvs	pc!, {r4, r5, r6, r8, fp, sp, lr}	; <UNPREDICTABLE>
     d84:	756c636e 	strbvc	r6, [ip, #-878]!	; 0x36e
     d88:	00006564 	andeq	r6, r0, r4, ror #10
     d8c:	702d6176 	eorvc	r6, sp, r6, ror r1
     d90:	746e6972 	strbtvc	r6, [lr], #-2418	; 0x972
     d94:	00632e6b 	rsbeq	r2, r3, fp, ror #28
     d98:	73000001 	movwvc	r0, #1
     d9c:	72616474 	rsbvc	r6, r1, #116, 8	; 0x74000000
     da0:	00682e67 	rsbeq	r2, r8, r7, ror #28
     da4:	72000002 	andvc	r0, r0, #2
     da8:	682e6970 	stmdavs	lr!, {r4, r5, r6, r8, fp, sp, lr}
     dac:	00000300 	andeq	r0, r0, r0, lsl #6
     db0:	6975623c 	ldmdbvs	r5!, {r2, r3, r4, r5, r9, sp, lr}^
     db4:	692d746c 	pushvs	{r2, r3, r5, r6, sl, ip, sp, lr}
     db8:	00003e6e 	andeq	r3, r0, lr, ror #28
     dbc:	00000000 	andeq	r0, r0, r0
     dc0:	a2a80205 	adcge	r0, r8, #1342177280	; 0x50000000
     dc4:	26030000 	strcs	r0, [r3], -r0
     dc8:	13a50101 			; <UNDEFINED> instruction: 0x13a50101
     dcc:	02002d31 	andeq	r2, r0, #3136	; 0xc40
     dd0:	002f0204 	eoreq	r0, pc, r4, lsl #4
     dd4:	2d020402 	cfstrscs	mvf0, [r2, #-8]
     dd8:	02040200 	andeq	r0, r4, #0, 4
     ddc:	0402002f 	streq	r0, [r2], #-47	; 0x2f
     de0:	4c4c2d01 	mcrrmi	13, 0, r2, ip, cr1
     de4:	2f4b1430 	svccs	0x004b1430
     de8:	0402004f 	streq	r0, [r2], #-79	; 0x4f
     dec:	02006702 	andeq	r6, r0, #524288	; 0x80000
     df0:	4c650104 	stfmie	f0, [r5], #-16
     df4:	2fa0304d 	svccs	0x00a0304d
     df8:	26023031 			; <UNDEFINED> instruction: 0x26023031
     dfc:	2c2d8416 	cfstrscs	mvf8, [sp], #-88	; 0xffffffa8
     e00:	01040200 	mrseq	r0, R12_usr
     e04:	04020030 	streq	r0, [r2], #-48	; 0x30
     e08:	66063301 	strvs	r3, [r6], -r1, lsl #6
     e0c:	01040200 	mrseq	r0, R12_usr
     e10:	0402002e 	streq	r0, [r2], #-46	; 0x2e
     e14:	21080601 	tstcs	r8, r1, lsl #12
     e18:	73032f67 	movwvc	r2, #16231	; 0x3f67
     e1c:	2e130382 	cdpcs	3, 1, cr0, cr3, cr2, {4}
     e20:	01040200 	mrseq	r0, R12_usr
     e24:	02006606 	andeq	r6, r0, #6291456	; 0x600000
     e28:	83060104 	movwhi	r0, #24836	; 0x6104
     e2c:	31674b4b 	cmncc	r7, fp, asr #22
     e30:	2e65034b 	cdpcs	3, 6, cr0, cr5, cr11, {2}
     e34:	002e2303 	eoreq	r2, lr, r3, lsl #6
     e38:	06010402 	streq	r0, [r1], -r2, lsl #8
     e3c:	0402002e 	streq	r0, [r2], #-46	; 0x2e
     e40:	009f0601 	addseq	r0, pc, r1, lsl #12
     e44:	6a010402 	bvs	41e54 <__bss_end__+0x3580c>
     e48:	03d72308 	bicseq	r2, r7, #8, 6	; 0x20000000
     e4c:	3c087fa4 	stccc	15, cr7, [r8], {164}	; 0xa4
     e50:	0402004b 	streq	r0, [r2], #-75	; 0x4b
     e54:	064a0601 	strbeq	r0, [sl], -r1, lsl #12
     e58:	2f4b2108 	svccs	0x004b2108
     e5c:	00db034b 	sbcseq	r0, fp, fp, asr #6
     e60:	484c9ff2 	stmdami	ip, {r1, r4, r5, r6, r7, r8, r9, sl, fp, ip, pc}^
     e64:	842f4b32 	strthi	r4, [pc], #-2866	; e6c <__code_start__-0x7194>
     e68:	4d2d2f4b 	stcmi	15, cr2, [sp, #-300]!	; 0xfffffed4
     e6c:	832f3031 	teqhi	pc, #49	; 0x31
     e70:	01040200 	mrseq	r0, R12_usr
     e74:	0200be2c 	andeq	fp, r0, #44, 28	; 0x2c0
     e78:	4a060104 	bmi	181290 <__bss_end__+0x174c48>
     e7c:	02220806 	eoreq	r0, r2, #393216	; 0x60000
     e80:	0e031636 	mcreq	6, 0, r1, cr3, cr6, {1}
     e84:	302108d6 	ldrdcc	r0, [r1], -r6	; <UNPREDICTABLE>
     e88:	08312108 	ldmdaeq	r1!, {r3, r8, sp}
     e8c:	21083021 	tstcs	r8, r1, lsr #32
     e90:	08304b30 	ldmdaeq	r0!, {r4, r5, r8, r9, fp, lr}
     e94:	834b3021 	movthi	r3, #45089	; 0xb021
     e98:	2f31d983 	svccs	0x0031d983
     e9c:	01040200 	mrseq	r0, R12_usr
     ea0:	04020065 	streq	r0, [r2], #-101	; 0x65
     ea4:	004a0602 	subeq	r0, sl, r2, lsl #12
     ea8:	06010402 	streq	r0, [r1], -r2, lsl #8
     eac:	667fbf03 	ldrbtvs	fp, [pc], -r3, lsl #30
     eb0:	02040200 	andeq	r0, r4, #0, 4
     eb4:	03066606 	movweq	r6, #26118	; 0x6606
     eb8:	684a00c5 	stmdavs	sl, {r0, r2, r6, r7}^
     ebc:	01001602 	tsteq	r0, r2, lsl #12
     ec0:	00009d01 	andeq	r9, r0, r1, lsl #26
     ec4:	86000200 	strhi	r0, [r0], -r0, lsl #4
     ec8:	02000000 	andeq	r0, r0, #0
     ecc:	0d0efb01 	vstreq	d15, [lr, #-4]
     ed0:	01010100 	mrseq	r0, (UNDEF: 17)
     ed4:	00000001 	andeq	r0, r0, r1
     ed8:	01000001 	tsteq	r0, r1
     edc:	66617473 			; <UNDEFINED> instruction: 0x66617473
     ee0:	72732d66 	rsbsvc	r2, r3, #6528	; 0x1980
     ee4:	552f0063 	strpl	r0, [pc, #-99]!	; e89 <__code_start__-0x7177>
     ee8:	73726573 	cmnvc	r2, #482344960	; 0x1cc00000
     eec:	6972622f 	ldmdbvs	r2!, {r0, r1, r2, r3, r5, r9, sp, lr}^
     ef0:	756a6e61 	strbvc	r6, [sl, #-3681]!	; 0xe61
     ef4:	65442f6e 	strbvs	r2, [r4, #-3950]	; 0xf6e
     ef8:	6f746b73 	svcvs	0x00746b73
     efc:	63732f70 	cmnvs	r3, #112, 30	; 0x1c0
     f00:	6c6f6f68 	stclvs	15, cr6, [pc], #-416	; d68 <__code_start__-0x7298>
     f04:	7270532f 	rsbsvc	r5, r0, #-1140850688	; 0xbc000000
     f08:	31676e69 	cmncc	r7, r9, ror #28
     f0c:	2f303239 	svccs	0x00303239
     f10:	34325343 	ldrtcc	r5, [r2], #-835	; 0x343
     f14:	2f584c30 	svccs	0x00584c30
     f18:	34327363 	ldrtcc	r7, [r2], #-867	; 0x363
     f1c:	2d786c30 	ldclcs	12, cr6, [r8, #-192]!	; 0xffffff40
     f20:	70733032 	rsbsvc	r3, r3, r2, lsr r0
     f24:	696c2f72 	stmdbvs	ip!, {r1, r4, r5, r6, r8, r9, sl, fp, sp}^
     f28:	2f697062 	svccs	0x00697062
     f2c:	6c636e69 	stclvs	14, cr6, [r3], #-420	; 0xfffffe5c
     f30:	00656475 	rsbeq	r6, r5, r5, ror r4
     f34:	656c6300 	strbvs	r6, [ip, #-768]!	; 0x300
     f38:	722d6e61 	eorvc	r6, sp, #1552	; 0x610
     f3c:	6f6f6265 	svcvs	0x006f6265
     f40:	00632e74 	rsbeq	r2, r3, r4, ror lr
     f44:	72000001 	andvc	r0, r0, #1
     f48:	682e6970 	stmdavs	lr!, {r4, r5, r6, r8, fp, sp, lr}
     f4c:	00000200 	andeq	r0, r0, r0, lsl #4
     f50:	02050000 	andeq	r0, r5, #0
     f54:	0000a820 	andeq	sl, r0, r0, lsr #16
     f58:	832f2f15 	teqhi	pc, #21, 30	; 0x54
     f5c:	0006024b 	andeq	r0, r6, fp, asr #4
     f60:	00a60101 	adceq	r0, r6, r1, lsl #2
     f64:	00020000 	andeq	r0, r2, r0
     f68:	00000080 	andeq	r0, r0, r0, lsl #1
     f6c:	0efb0102 	cdpeq	1, 15, cr0, cr11, cr2, {0}
     f70:	0101000d 	tsteq	r1, sp
     f74:	00000101 	andeq	r0, r0, r1, lsl #2
     f78:	00000100 	andeq	r0, r0, r0, lsl #2
     f7c:	61747301 	cmnvs	r4, r1, lsl #6
     f80:	732d6666 	teqvc	sp, #106954752	; 0x6600000
     f84:	2f006372 	svccs	0x00006372
     f88:	72657355 	rsbvc	r7, r5, #1409286145	; 0x54000001
     f8c:	72622f73 	rsbvc	r2, r2, #460	; 0x1cc
     f90:	6a6e6169 	bvs	1b9953c <__bss_end__+0x1b8cef4>
     f94:	442f6e75 	strtmi	r6, [pc], #-3701	; f9c <__code_start__-0x7064>
     f98:	746b7365 	strbtvc	r7, [fp], #-869	; 0x365
     f9c:	732f706f 	teqvc	pc, #111	; 0x6f
     fa0:	6f6f6863 	svcvs	0x006f6863
     fa4:	70532f6c 	subsvc	r2, r3, ip, ror #30
     fa8:	676e6972 			; <UNDEFINED> instruction: 0x676e6972
     fac:	30323931 	eorscc	r3, r2, r1, lsr r9
     fb0:	3253432f 	subscc	r4, r3, #-1140850688	; 0xbc000000
     fb4:	584c3034 	stmdapl	ip, {r2, r4, r5, ip, sp}^
     fb8:	3273632f 	rsbscc	r6, r3, #-1140850688	; 0xbc000000
     fbc:	786c3034 	stmdavc	ip!, {r2, r4, r5, ip, sp}^
     fc0:	7330322d 	teqvc	r0, #-805306366	; 0xd0000002
     fc4:	6c2f7270 	sfmvs	f7, 4, [pc], #-448	; e0c <__code_start__-0x71f4>
     fc8:	69706269 	ldmdbvs	r0!, {r0, r3, r5, r6, r9, sp, lr}^
     fcc:	636e692f 	cmnvs	lr, #770048	; 0xbc000
     fd0:	6564756c 	strbvs	r7, [r4, #-1388]!	; 0x56c
     fd4:	73630000 	cmnvc	r3, #0
     fd8:	74726174 	ldrbtvc	r6, [r2], #-372	; 0x174
     fdc:	0100632e 	tsteq	r0, lr, lsr #6
     fe0:	70720000 	rsbsvc	r0, r2, r0
     fe4:	00682e69 	rsbeq	r2, r8, r9, ror #28
     fe8:	00000002 	andeq	r0, r0, r2
     fec:	4c020500 	cfstr32mi	mvfx0, [r2], {-0}
     ff0:	030000a8 	movweq	r0, #168	; 0xa8
     ff4:	3132010c 	teqcc	r2, ip, lsl #2
     ff8:	002f2d2f 	eoreq	r2, pc, pc, lsr #26
     ffc:	49010402 	stmdbmi	r1, {r1, sl}
    1000:	034a0903 	movteq	r0, #43267	; 0xa903
    1004:	022f2e0d 	eoreq	r2, pc, #13, 28	; 0xd0
    1008:	01010006 	tsteq	r1, r6
    100c:	000000a2 	andeq	r0, r0, r2, lsr #1
    1010:	008e0002 	addeq	r0, lr, r2
    1014:	01020000 	mrseq	r0, (UNDEF: 2)
    1018:	000d0efb 	strdeq	r0, [sp], -fp
    101c:	01010101 	tsteq	r1, r1, lsl #2
    1020:	01000000 	mrseq	r0, (UNDEF: 0)
    1024:	73010000 	movwvc	r0, #4096	; 0x1000
    1028:	66666174 			; <UNDEFINED> instruction: 0x66666174
    102c:	6372732d 	cmnvs	r2, #-1275068416	; 0xb4000000
    1030:	73552f00 	cmpvc	r5, #0, 30
    1034:	2f737265 	svccs	0x00737265
    1038:	61697262 	cmnvs	r9, r2, ror #4
    103c:	6e756a6e 	vsubvs.f32	s13, s10, s29
    1040:	7365442f 	cmnvc	r5, #788529152	; 0x2f000000
    1044:	706f746b 	rsbvc	r7, pc, fp, ror #8
    1048:	6863732f 	stmdavs	r3!, {r0, r1, r2, r3, r5, r8, r9, ip, sp, lr}^
    104c:	2f6c6f6f 	svccs	0x006c6f6f
    1050:	69727053 	ldmdbvs	r2!, {r0, r1, r4, r6, ip, sp, lr}^
    1054:	3931676e 	ldmdbcc	r1!, {r1, r2, r3, r5, r6, r8, r9, sl, sp, lr}
    1058:	432f3032 	teqmi	pc, #50	; 0x32
    105c:	30343253 	eorscc	r3, r4, r3, asr r2
    1060:	632f584c 	teqvs	pc, #76, 16	; 0x4c0000
    1064:	30343273 	eorscc	r3, r4, r3, ror r2
    1068:	322d786c 	eorcc	r7, sp, #108, 16	; 0x6c0000
    106c:	72707330 	rsbsvc	r7, r0, #48, 6	; 0xc0000000
    1070:	62696c2f 	rsbvs	r6, r9, #12032	; 0x2f00
    1074:	692f6970 	stmdbvs	pc!, {r4, r5, r6, r8, fp, sp, lr}	; <UNPREDICTABLE>
    1078:	756c636e 	strbvc	r6, [ip, #-878]!	; 0x36e
    107c:	00006564 	andeq	r6, r0, r4, ror #10
    1080:	61666564 	cmnvs	r6, r4, ror #10
    1084:	2d746c75 	ldclcs	12, cr6, [r4, #-468]!	; 0xfffffe2c
    1088:	646e6168 	strbtvs	r6, [lr], #-360	; 0x168
    108c:	2d72656c 	cfldr64cs	mvdx6, [r2, #-432]!	; 0xfffffe50
    1090:	74736166 	ldrbtvc	r6, [r3], #-358	; 0x166
    1094:	0100632e 	tsteq	r0, lr, lsr #6
    1098:	70720000 	rsbsvc	r0, r2, r0
    109c:	00682e69 	rsbeq	r2, r8, r9, ror #28
    10a0:	00000002 	andeq	r0, r0, r2
    10a4:	84020500 	strhi	r0, [r2], #-1280	; 0x500
    10a8:	130000a8 	movwne	r0, #168	; 0xa8
    10ac:	001c0266 	andseq	r0, ip, r6, ror #4
    10b0:	00a60101 	adceq	r0, r6, r1, lsl #2
    10b4:	00020000 	andeq	r0, r2, r0
    10b8:	00000092 	muleq	r0, r2, r0
    10bc:	0efb0102 	cdpeq	1, 15, cr0, cr11, cr2, {0}
    10c0:	0101000d 	tsteq	r1, sp
    10c4:	00000101 	andeq	r0, r0, r1, lsl #2
    10c8:	00000100 	andeq	r0, r0, r0, lsl #2
    10cc:	61747301 	cmnvs	r4, r1, lsl #6
    10d0:	732d6666 	teqvc	sp, #106954752	; 0x6600000
    10d4:	2f006372 	svccs	0x00006372
    10d8:	72657355 	rsbvc	r7, r5, #1409286145	; 0x54000001
    10dc:	72622f73 	rsbvc	r2, r2, #460	; 0x1cc
    10e0:	6a6e6169 	bvs	1b9968c <__bss_end__+0x1b8d044>
    10e4:	442f6e75 	strtmi	r6, [pc], #-3701	; 10ec <__code_start__-0x6f14>
    10e8:	746b7365 	strbtvc	r7, [fp], #-869	; 0x365
    10ec:	732f706f 	teqvc	pc, #111	; 0x6f
    10f0:	6f6f6863 	svcvs	0x006f6863
    10f4:	70532f6c 	subsvc	r2, r3, ip, ror #30
    10f8:	676e6972 			; <UNDEFINED> instruction: 0x676e6972
    10fc:	30323931 	eorscc	r3, r2, r1, lsr r9
    1100:	3253432f 	subscc	r4, r3, #-1140850688	; 0xbc000000
    1104:	584c3034 	stmdapl	ip, {r2, r4, r5, ip, sp}^
    1108:	3273632f 	rsbscc	r6, r3, #-1140850688	; 0xbc000000
    110c:	786c3034 	stmdavc	ip!, {r2, r4, r5, ip, sp}^
    1110:	7330322d 	teqvc	r0, #-805306366	; 0xd0000002
    1114:	6c2f7270 	sfmvs	f7, 4, [pc], #-448	; f5c <__code_start__-0x70a4>
    1118:	69706269 	ldmdbvs	r0!, {r0, r3, r5, r6, r9, sp, lr}^
    111c:	636e692f 	cmnvs	lr, #770048	; 0xbc000
    1120:	6564756c 	strbvs	r7, [r4, #-1388]!	; 0x56c
    1124:	65640000 	strbvs	r0, [r4, #-0]!
    1128:	6c756166 	ldfvse	f6, [r5], #-408	; 0xfffffe68
    112c:	61682d74 	smcvs	33492	; 0x82d4
    1130:	656c646e 	strbvs	r6, [ip, #-1134]!	; 0x46e
    1134:	72702d72 	rsbsvc	r2, r0, #7296	; 0x1c80
    1138:	74656665 	strbtvc	r6, [r5], #-1637	; 0x665
    113c:	632e6863 	teqvs	lr, #6488064	; 0x630000
    1140:	00000100 	andeq	r0, r0, r0, lsl #2
    1144:	2e697072 	mcrcs	0, 3, r7, cr9, cr2, {3}
    1148:	00020068 	andeq	r0, r2, r8, rrx
    114c:	05000000 	streq	r0, [r0, #-0]
    1150:	00a8c802 	adceq	ip, r8, r2, lsl #16
    1154:	02661300 	rsbeq	r1, r6, #0, 6
    1158:	0101001c 	tsteq	r1, ip, lsl r0
    115c:	000000a3 	andeq	r0, r0, r3, lsr #1
    1160:	008f0002 	addeq	r0, pc, r2
    1164:	01020000 	mrseq	r0, (UNDEF: 2)
    1168:	000d0efb 	strdeq	r0, [sp], -fp
    116c:	01010101 	tsteq	r1, r1, lsl #2
    1170:	01000000 	mrseq	r0, (UNDEF: 0)
    1174:	73010000 	movwvc	r0, #4096	; 0x1000
    1178:	66666174 			; <UNDEFINED> instruction: 0x66666174
    117c:	6372732d 	cmnvs	r2, #-1275068416	; 0xb4000000
    1180:	73552f00 	cmpvc	r5, #0, 30
    1184:	2f737265 	svccs	0x00737265
    1188:	61697262 	cmnvs	r9, r2, ror #4
    118c:	6e756a6e 	vsubvs.f32	s13, s10, s29
    1190:	7365442f 	cmnvc	r5, #788529152	; 0x2f000000
    1194:	706f746b 	rsbvc	r7, pc, fp, ror #8
    1198:	6863732f 	stmdavs	r3!, {r0, r1, r2, r3, r5, r8, r9, ip, sp, lr}^
    119c:	2f6c6f6f 	svccs	0x006c6f6f
    11a0:	69727053 	ldmdbvs	r2!, {r0, r1, r4, r6, ip, sp, lr}^
    11a4:	3931676e 	ldmdbcc	r1!, {r1, r2, r3, r5, r6, r8, r9, sl, sp, lr}
    11a8:	432f3032 	teqmi	pc, #50	; 0x32
    11ac:	30343253 	eorscc	r3, r4, r3, asr r2
    11b0:	632f584c 	teqvs	pc, #76, 16	; 0x4c0000
    11b4:	30343273 	eorscc	r3, r4, r3, ror r2
    11b8:	322d786c 	eorcc	r7, sp, #108, 16	; 0x6c0000
    11bc:	72707330 	rsbsvc	r7, r0, #48, 6	; 0xc0000000
    11c0:	62696c2f 	rsbvs	r6, r9, #12032	; 0x2f00
    11c4:	692f6970 	stmdbvs	pc!, {r4, r5, r6, r8, fp, sp, lr}	; <UNPREDICTABLE>
    11c8:	756c636e 	strbvc	r6, [ip, #-878]!	; 0x36e
    11cc:	00006564 	andeq	r6, r0, r4, ror #10
    11d0:	61666564 	cmnvs	r6, r4, ror #10
    11d4:	2d746c75 	ldclcs	12, cr6, [r4, #-468]!	; 0xfffffe2c
    11d8:	646e6168 	strbtvs	r6, [lr], #-360	; 0x168
    11dc:	2d72656c 	cfldr64cs	mvdx6, [r2, #-432]!	; 0xfffffe50
    11e0:	65736572 	ldrbvs	r6, [r3, #-1394]!	; 0x572
    11e4:	00632e74 	rsbeq	r2, r3, r4, ror lr
    11e8:	72000001 	andvc	r0, r0, #1
    11ec:	682e6970 	stmdavs	lr!, {r4, r5, r6, r8, fp, sp, lr}
    11f0:	00000200 	andeq	r0, r0, r0, lsl #4
    11f4:	02050000 	andeq	r0, r5, #0
    11f8:	0000a90c 	andeq	sl, r0, ip, lsl #18
    11fc:	1c026613 	stcne	6, cr6, [r2], {19}
    1200:	ac010100 	stfges	f0, [r1], {-0}
    1204:	02000000 	andeq	r0, r0, #0
    1208:	00009800 	andeq	r9, r0, r0, lsl #16
    120c:	fb010200 	blx	41a16 <__bss_end__+0x353ce>
    1210:	01000d0e 	tsteq	r0, lr, lsl #26
    1214:	00010101 	andeq	r0, r1, r1, lsl #2
    1218:	00010000 	andeq	r0, r1, r0
    121c:	74730100 	ldrbtvc	r0, [r3], #-256	; 0x100
    1220:	2d666661 	stclcs	6, cr6, [r6, #-388]!	; 0xfffffe7c
    1224:	00637273 	rsbeq	r7, r3, r3, ror r2
    1228:	6573552f 	ldrbvs	r5, [r3, #-1327]!	; 0x52f
    122c:	622f7372 	eorvs	r7, pc, #-939524095	; 0xc8000001
    1230:	6e616972 	mcrvs	9, 3, r6, cr1, cr2, {3}
    1234:	2f6e756a 	svccs	0x006e756a
    1238:	6b736544 	blvs	1cda750 <__bss_end__+0x1cce108>
    123c:	2f706f74 	svccs	0x00706f74
    1240:	6f686373 	svcvs	0x00686373
    1244:	532f6c6f 	teqpl	pc, #28416	; 0x6f00
    1248:	6e697270 	mcrvs	2, 3, r7, cr9, cr0, {3}
    124c:	32393167 	eorscc	r3, r9, #-1073741799	; 0xc0000019
    1250:	53432f30 	movtpl	r2, #16176	; 0x3f30
    1254:	4c303432 	cfldrsmi	mvf3, [r0], #-200	; 0xffffff38
    1258:	73632f58 	cmnvc	r3, #88, 30	; 0x160
    125c:	6c303432 	cfldrsvs	mvf3, [r0], #-200	; 0xffffff38
    1260:	30322d78 	eorscc	r2, r2, r8, ror sp
    1264:	2f727073 	svccs	0x00727073
    1268:	7062696c 	rsbvc	r6, r2, ip, ror #18
    126c:	6e692f69 	cdpvs	15, 6, cr2, cr9, cr9, {3}
    1270:	64756c63 	ldrbtvs	r6, [r5], #-3171	; 0xc63
    1274:	64000065 	strvs	r0, [r0], #-101	; 0x65
    1278:	75616665 	strbvc	r6, [r1, #-1637]!	; 0x665
    127c:	682d746c 	stmdavs	sp!, {r2, r3, r5, r6, sl, ip, sp, lr}
    1280:	6c646e61 	stclvs	14, cr6, [r4], #-388	; 0xfffffe7c
    1284:	752d7265 	strvc	r7, [sp, #-613]!	; 0x265
    1288:	6665646e 	strbtvs	r6, [r5], -lr, ror #8
    128c:	64656e69 	strbtvs	r6, [r5], #-3689	; 0xe69
    1290:	736e692d 	cmnvc	lr, #737280	; 0xb4000
    1294:	00632e74 	rsbeq	r2, r3, r4, ror lr
    1298:	72000001 	andvc	r0, r0, #1
    129c:	682e6970 	stmdavs	lr!, {r4, r5, r6, r8, fp, sp, lr}
    12a0:	00000200 	andeq	r0, r0, r0, lsl #4
    12a4:	02050000 	andeq	r0, r5, #0
    12a8:	0000a950 	andeq	sl, r0, r0, asr r9
    12ac:	1c026613 	stcne	6, cr6, [r2], {19}
    12b0:	47010100 	strmi	r0, [r1, -r0, lsl #2]
    12b4:	02000000 	andeq	r0, r0, #0
    12b8:	00003300 	andeq	r3, r0, r0, lsl #6
    12bc:	fb010200 	blx	41ac6 <__bss_end__+0x3547e>
    12c0:	01000d0e 	tsteq	r0, lr, lsl #26
    12c4:	00010101 	andeq	r0, r1, r1, lsl #2
    12c8:	00010000 	andeq	r0, r1, r0
    12cc:	74730100 	ldrbtvc	r0, [r3], #-256	; 0x100
    12d0:	2d666661 	stclcs	6, cr6, [r6, #-388]!	; 0xfffffe7c
    12d4:	00637273 	rsbeq	r7, r3, r3, ror r2
    12d8:	66656400 	strbtvs	r6, [r5], -r0, lsl #8
    12dc:	746c7561 	strbtvc	r7, [ip], #-1377	; 0x561
    12e0:	6e61682d 	cdpvs	8, 6, cr6, cr1, cr13, {1}
    12e4:	72656c64 	rsbvc	r6, r5, #100, 24	; 0x6400
    12e8:	00632e73 	rsbeq	r2, r3, r3, ror lr
    12ec:	00000001 	andeq	r0, r0, r1
    12f0:	94020500 	strls	r0, [r2], #-1280	; 0x500
    12f4:	150000a9 	strne	r0, [r0, #-169]	; 0xa9
    12f8:	0002022f 	andeq	r0, r2, pc, lsr #4
    12fc:	00c90101 	sbceq	r0, r9, r1, lsl #2
    1300:	00020000 	andeq	r0, r2, r0
    1304:	0000009a 	muleq	r0, sl, r0
    1308:	0efb0102 	cdpeq	1, 15, cr0, cr11, cr2, {0}
    130c:	0101000d 	tsteq	r1, sp
    1310:	00000101 	andeq	r0, r0, r1, lsl #2
    1314:	00000100 	andeq	r0, r0, r0, lsl #2
    1318:	61747301 	cmnvs	r4, r1, lsl #6
    131c:	732d6666 	teqvc	sp, #106954752	; 0x6600000
    1320:	2f006372 	svccs	0x00006372
    1324:	72657355 	rsbvc	r7, r5, #1409286145	; 0x54000001
    1328:	72622f73 	rsbvc	r2, r2, #460	; 0x1cc
    132c:	6a6e6169 	bvs	1b998d8 <__bss_end__+0x1b8d290>
    1330:	442f6e75 	strtmi	r6, [pc], #-3701	; 1338 <__code_start__-0x6cc8>
    1334:	746b7365 	strbtvc	r7, [fp], #-869	; 0x365
    1338:	732f706f 	teqvc	pc, #111	; 0x6f
    133c:	6f6f6863 	svcvs	0x006f6863
    1340:	70532f6c 	subsvc	r2, r3, ip, ror #30
    1344:	676e6972 			; <UNDEFINED> instruction: 0x676e6972
    1348:	30323931 	eorscc	r3, r2, r1, lsr r9
    134c:	3253432f 	subscc	r4, r3, #-1140850688	; 0xbc000000
    1350:	584c3034 	stmdapl	ip, {r2, r4, r5, ip, sp}^
    1354:	3273632f 	rsbscc	r6, r3, #-1140850688	; 0xbc000000
    1358:	786c3034 	stmdavc	ip!, {r2, r4, r5, ip, sp}^
    135c:	7330322d 	teqvc	r0, #-805306366	; 0xd0000002
    1360:	6c2f7270 	sfmvs	f7, 4, [pc], #-448	; 11a8 <__code_start__-0x6e58>
    1364:	69706269 	ldmdbvs	r0!, {r0, r3, r5, r6, r9, sp, lr}^
    1368:	636e692f 	cmnvs	lr, #770048	; 0xbc000
    136c:	6564756c 	strbvs	r7, [r4, #-1388]!	; 0x56c
    1370:	6e690000 	cdpvs	0, 6, cr0, cr9, cr0, {0}
    1374:	72726574 	rsbsvc	r6, r2, #116, 10	; 0x1d000000
    1378:	73747075 	cmnvc	r4, #117	; 0x75
    137c:	632e632d 	teqvs	lr, #-1275068416	; 0xb4000000
    1380:	00000100 	andeq	r0, r0, r0, lsl #2
    1384:	2d697072 	stclcs	0, cr7, [r9, #-456]!	; 0xfffffe38
    1388:	65746e69 	ldrbvs	r6, [r4, #-3689]!	; 0xe69
    138c:	70757272 	rsbsvc	r7, r5, r2, ror r2
    1390:	682e7374 	stmdavs	lr!, {r2, r4, r5, r6, r8, r9, ip, sp, lr}
    1394:	00000200 	andeq	r0, r0, r0, lsl #4
    1398:	2e697072 	mcrcs	0, 3, r7, cr9, cr2, {3}
    139c:	00020068 	andeq	r0, r2, r8, rrx
    13a0:	05000000 	streq	r0, [r0, #-0]
    13a4:	00a99c02 	adceq	r9, r9, r2, lsl #24
    13a8:	011a0300 	tsteq	sl, r0, lsl #6
    13ac:	67672f31 			; <UNDEFINED> instruction: 0x67672f31
    13b0:	2d2f8336 	stccs	3, cr8, [pc, #-216]!	; 12e0 <__code_start__-0x6d20>
    13b4:	02040200 	andeq	r0, r4, #0, 4
    13b8:	0402002f 	streq	r0, [r2], #-47	; 0x2f
    13bc:	02006502 	andeq	r6, r0, #8388608	; 0x800000
    13c0:	2e060104 	adfcss	f0, f6, f4
    13c4:	0a024c06 	beq	943e4 <__bss_end__+0x87d9c>
    13c8:	a2010100 	andge	r0, r1, #0, 2
    13cc:	02000000 	andeq	r0, r0, #0
    13d0:	00008000 	andeq	r8, r0, r0
    13d4:	fb010200 	blx	41bde <__bss_end__+0x35596>
    13d8:	01000d0e 	tsteq	r0, lr, lsl #26
    13dc:	00010101 	andeq	r0, r1, r1, lsl #2
    13e0:	00010000 	andeq	r0, r1, r0
    13e4:	74730100 	ldrbtvc	r0, [r3], #-256	; 0x100
    13e8:	2d666661 	stclcs	6, cr6, [r6, #-388]!	; 0xfffffe7c
    13ec:	00637273 	rsbeq	r7, r3, r3, ror r2
    13f0:	6573552f 	ldrbvs	r5, [r3, #-1327]!	; 0x52f
    13f4:	622f7372 	eorvs	r7, pc, #-939524095	; 0xc8000001
    13f8:	6e616972 	mcrvs	9, 3, r6, cr1, cr2, {3}
    13fc:	2f6e756a 	svccs	0x006e756a
    1400:	6b736544 	blvs	1cda918 <__bss_end__+0x1cce2d0>
    1404:	2f706f74 	svccs	0x00706f74
    1408:	6f686373 	svcvs	0x00686373
    140c:	532f6c6f 	teqpl	pc, #28416	; 0x6f00
    1410:	6e697270 	mcrvs	2, 3, r7, cr9, cr0, {3}
    1414:	32393167 	eorscc	r3, r9, #-1073741799	; 0xc0000019
    1418:	53432f30 	movtpl	r2, #16176	; 0x3f30
    141c:	4c303432 	cfldrsmi	mvf3, [r0], #-200	; 0xffffff38
    1420:	73632f58 	cmnvc	r3, #88, 30	; 0x160
    1424:	6c303432 	cfldrsvs	mvf3, [r0], #-200	; 0xffffff38
    1428:	30322d78 	eorscc	r2, r2, r8, ror sp
    142c:	2f727073 	svccs	0x00727073
    1430:	7062696c 	rsbvc	r6, r2, ip, ror #18
    1434:	6e692f69 	cdpvs	15, 6, cr2, cr9, cr9, {3}
    1438:	64756c63 	ldrbtvs	r6, [r5], #-3171	; 0xc63
    143c:	72000065 	andvc	r0, r0, #101	; 0x65
    1440:	6f6f6265 	svcvs	0x006f6265
    1444:	00632e74 	rsbeq	r2, r3, r4, ror lr
    1448:	72000001 	andvc	r0, r0, #1
    144c:	682e6970 	stmdavs	lr!, {r4, r5, r6, r8, fp, sp, lr}
    1450:	00000200 	andeq	r0, r0, r0, lsl #4
    1454:	02050000 	andeq	r0, r5, #0
    1458:	0000aa08 	andeq	sl, r0, r8, lsl #20
    145c:	14010d03 	strne	r0, [r1], #-3331	; 0xd03
    1460:	15852f31 	strne	r2, [r5, #3889]	; 0xf31
    1464:	2f4d4b2f 	svccs	0x004d4b2f
    1468:	67523567 	ldrbvs	r3, [r2, -r7, ror #10]
    146c:	01001002 	tsteq	r0, r2
    1470:	0000ae01 	andeq	sl, r0, r1, lsl #28
    1474:	7f000200 	svcvc	0x00000200
    1478:	02000000 	andeq	r0, r0, #0
    147c:	0d0efb01 	vstreq	d15, [lr, #-4]
    1480:	01010100 	mrseq	r0, (UNDEF: 17)
    1484:	00000001 	andeq	r0, r0, r1
    1488:	01000001 	tsteq	r0, r1
    148c:	66617473 			; <UNDEFINED> instruction: 0x66617473
    1490:	72732d66 	rsbsvc	r2, r3, #6528	; 0x1980
    1494:	552f0063 	strpl	r0, [pc, #-99]!	; 1439 <__code_start__-0x6bc7>
    1498:	73726573 	cmnvc	r2, #482344960	; 0x1cc00000
    149c:	6972622f 	ldmdbvs	r2!, {r0, r1, r2, r3, r5, r9, sp, lr}^
    14a0:	756a6e61 	strbvc	r6, [sl, #-3681]!	; 0xe61
    14a4:	65442f6e 	strbvs	r2, [r4, #-3950]	; 0xf6e
    14a8:	6f746b73 	svcvs	0x00746b73
    14ac:	63732f70 	cmnvs	r3, #112, 30	; 0x1c0
    14b0:	6c6f6f68 	stclvs	15, cr6, [pc], #-416	; 1318 <__code_start__-0x6ce8>
    14b4:	7270532f 	rsbsvc	r5, r0, #-1140850688	; 0xbc000000
    14b8:	31676e69 	cmncc	r7, r9, ror #28
    14bc:	2f303239 	svccs	0x00303239
    14c0:	34325343 	ldrtcc	r5, [r2], #-835	; 0x343
    14c4:	2f584c30 	svccs	0x00584c30
    14c8:	34327363 	ldrtcc	r7, [r2], #-867	; 0x363
    14cc:	2d786c30 	ldclcs	12, cr6, [r8, #-192]!	; 0xffffff40
    14d0:	70733032 	rsbsvc	r3, r3, r2, lsr r0
    14d4:	696c2f72 	stmdbvs	ip!, {r1, r4, r5, r6, r8, r9, sl, fp, sp}^
    14d8:	2f697062 	svccs	0x00697062
    14dc:	6c636e69 	stclvs	14, cr6, [r3], #-420	; 0xfffffe5c
    14e0:	00656475 	rsbeq	r6, r5, r5, ror r4
    14e4:	6d697400 	cfstrdvs	mvd7, [r9, #-0]
    14e8:	632e7265 	teqvs	lr, #1342177286	; 0x50000006
    14ec:	00000100 	andeq	r0, r0, r0, lsl #2
    14f0:	2e697072 	mcrcs	0, 3, r7, cr9, cr2, {3}
    14f4:	00020068 	andeq	r0, r2, r8, rrx
    14f8:	05000000 	streq	r0, [r0, #-0]
    14fc:	00aa7c02 	adceq	r7, sl, r2, lsl #24
    1500:	2f141600 	svccs	0x00141600
    1504:	0402002d 	streq	r0, [r2], #-45	; 0x2d
    1508:	062e0601 	strteq	r0, [lr], -r1, lsl #12
    150c:	4b2f316d 	blmi	bcdac8 <__bss_end__+0xbc1480>
    1510:	4b2f314d 	blmi	bcda4c <__bss_end__+0xbc1404>
    1514:	4c4b4c30 	mcrrmi	12, 3, r4, fp, cr0
    1518:	2f2f6a2f 	svccs	0x002f6a2f
    151c:	08022f84 	stmdaeq	r2, {r2, r7, r8, r9, sl, fp, sp}
    1520:	48010100 	stmdami	r1, {r8}
    1524:	02000001 	andeq	r0, r0, #1
    1528:	00010200 	andeq	r0, r1, r0, lsl #4
    152c:	fb010200 	blx	41d36 <__bss_end__+0x356ee>
    1530:	01000d0e 	tsteq	r0, lr, lsl #26
    1534:	00010101 	andeq	r0, r1, r1, lsl #2
    1538:	00010000 	andeq	r0, r1, r0
    153c:	752f0100 	strvc	r0, [pc, #-256]!	; 1444 <__code_start__-0x6bbc>
    1540:	692f7273 	stmdbvs	pc!, {r0, r1, r4, r5, r6, r9, ip, sp, lr}	; <UNPREDICTABLE>
    1544:	756c636e 	strbvc	r6, [ip, #-878]!	; 0x36e
    1548:	6e2f6564 	cfsh64vs	mvdx6, mvdx15, #52
    154c:	696c7765 	stmdbvs	ip!, {r0, r2, r5, r6, r8, r9, sl, ip, sp, lr}^
    1550:	79732f62 	ldmdbvc	r3!, {r1, r5, r6, r8, r9, sl, fp, sp}^
    1554:	752f0073 	strvc	r0, [pc, #-115]!	; 14e9 <__code_start__-0x6b17>
    1558:	6c2f7273 	sfmvs	f7, 4, [pc], #-460	; 1394 <__code_start__-0x6c6c>
    155c:	672f6269 	strvs	r6, [pc, -r9, ror #4]!
    1560:	612f6363 	teqvs	pc, r3, ror #6
    1564:	6e2d6d72 	mcrvs	13, 1, r6, cr13, cr2, {3}
    1568:	2d656e6f 	stclcs	14, cr6, [r5, #-444]!	; 0xfffffe44
    156c:	69626165 	stmdbvs	r2!, {r0, r2, r5, r6, r8, sp, lr}^
    1570:	332e362f 	teqcc	lr, #49283072	; 0x2f00000
    1574:	692f312e 	stmdbvs	pc!, {r1, r2, r3, r5, r8, ip, sp}	; <UNPREDICTABLE>
    1578:	756c636e 	strbvc	r6, [ip, #-878]!	; 0x36e
    157c:	2f006564 	svccs	0x00006564
    1580:	656d6f68 	strbvs	r6, [sp, #-3944]!	; 0xf68
    1584:	676e652f 	strbvs	r6, [lr, -pc, lsr #10]!
    1588:	2f72656c 	svccs	0x0072656c
    158c:	73616c63 	cmnvc	r1, #25344	; 0x6300
    1590:	73632f73 	cmnvc	r3, #460	; 0x1cc
    1594:	6c303432 	cfldrsvs	mvf3, [r0], #-200	; 0xffffff38
    1598:	30322d78 	eorscc	r2, r2, r8, ror sp
    159c:	2f727073 	svccs	0x00727073
    15a0:	62696c2f 	rsbvs	r6, r9, #12032	; 0x2f00
    15a4:	2f006970 	svccs	0x00006970
    15a8:	656d6f68 	strbvs	r6, [sp, #-3944]!	; 0xf68
    15ac:	676e652f 	strbvs	r6, [lr, -pc, lsr #10]!
    15b0:	2f72656c 	svccs	0x0072656c
    15b4:	73616c63 	cmnvc	r1, #25344	; 0x6300
    15b8:	73632f73 	cmnvc	r3, #460	; 0x1cc
    15bc:	6c303432 	cfldrsvs	mvf3, [r0], #-200	; 0xffffff38
    15c0:	30322d78 	eorscc	r2, r2, r8, ror sp
    15c4:	2f727073 	svccs	0x00727073
    15c8:	62696c2f 	rsbvs	r6, r9, #12032	; 0x2f00
    15cc:	732f6970 	teqvc	pc, #112, 18	; 0x1c0000
    15d0:	66666174 			; <UNDEFINED> instruction: 0x66666174
    15d4:	6372732d 	cmnvs	r2, #-1275068416	; 0xb4000000
    15d8:	61750000 	cmnvs	r5, r0
    15dc:	632e7472 	teqvs	lr, #1912602624	; 0x72000000
    15e0:	00000000 	andeq	r0, r0, r0
    15e4:	6b636f6c 	blvs	18dd39c <__bss_end__+0x18d0d54>
    15e8:	0100682e 	tsteq	r0, lr, lsr #16
    15ec:	745f0000 	ldrbvc	r0, [pc], #-0	; 15f4 <__code_start__-0x6a0c>
    15f0:	73657079 	cmnvc	r5, #121	; 0x79
    15f4:	0100682e 	tsteq	r0, lr, lsr #16
    15f8:	74730000 	ldrbtvc	r0, [r3], #-0
    15fc:	66656464 	strbtvs	r6, [r5], -r4, ror #8
    1600:	0200682e 	andeq	r6, r0, #3014656	; 0x2e0000
    1604:	65720000 	ldrbvs	r0, [r2, #-0]!
    1608:	2e746e65 	cdpcs	14, 7, cr6, cr4, cr5, {3}
    160c:	00010068 	andeq	r0, r1, r8, rrx
    1610:	69707200 	ldmdbvs	r0!, {r9, ip, sp, lr}^
    1614:	0300682e 	movweq	r6, #2094	; 0x82e
    1618:	61750000 	cmnvs	r5, r0
    161c:	682e7472 	stmdavs	lr!, {r1, r4, r5, r6, sl, ip, sp, lr}
    1620:	00000400 	andeq	r0, r0, r0, lsl #8
    1624:	6f697067 	svcvs	0x00697067
    1628:	0400682e 	streq	r6, [r0], #-2094	; 0x82e
    162c:	00000000 	andeq	r0, r0, r0
    1630:	ab780205 	blge	1e01e4c <__bss_end__+0x1df5804>
    1634:	2c030000 	stccs	0, cr0, [r3], {-0}
    1638:	0c036701 	stceq	7, cr6, [r3], {1}
    163c:	6867359e 	stmdavs	r7!, {r1, r2, r3, r4, r7, r8, sl, ip, sp}^
    1640:	0c036835 	stceq	8, cr6, [r3], {53}	; 0x35
    1644:	696b852e 	stmdbvs	fp!, {r1, r2, r3, r5, r8, sl, pc}^
    1648:	660c0369 	strvs	r0, [ip], -r9, ror #6
    164c:	4208676b 	andmi	r6, r8, #28049408	; 0x1ac0000
    1650:	364b6834 			; <UNDEFINED> instruction: 0x364b6834
    1654:	002f8768 	eoreq	r8, pc, r8, ror #14
    1658:	2f010402 	svccs	0x00010402
    165c:	67306768 	ldrvs	r6, [r0, -r8, ror #14]!
    1660:	0402004b 	streq	r0, [r2], #-75	; 0x4b
    1664:	67682f01 	strbvs	r2, [r8, -r1, lsl #30]!
    1668:	06022e69 	streq	r2, [r2], -r9, ror #28
    166c:	2b010100 	blcs	41a74 <__bss_end__+0x3542c>
    1670:	02000001 	andeq	r0, r0, #1
    1674:	0000f800 	andeq	pc, r0, r0, lsl #16
    1678:	fb010200 	blx	41e82 <__bss_end__+0x3583a>
    167c:	01000d0e 	tsteq	r0, lr, lsl #26
    1680:	00010101 	andeq	r0, r1, r1, lsl #2
    1684:	00010000 	andeq	r0, r1, r0
    1688:	752f0100 	strvc	r0, [pc, #-256]!	; 1590 <__code_start__-0x6a70>
    168c:	692f7273 	stmdbvs	pc!, {r0, r1, r4, r5, r6, r9, ip, sp, lr}	; <UNPREDICTABLE>
    1690:	756c636e 	strbvc	r6, [ip, #-878]!	; 0x36e
    1694:	6e2f6564 	cfsh64vs	mvdx6, mvdx15, #52
    1698:	696c7765 	stmdbvs	ip!, {r0, r2, r5, r6, r8, r9, sl, ip, sp, lr}^
    169c:	79732f62 	ldmdbvc	r3!, {r1, r5, r6, r8, r9, sl, fp, sp}^
    16a0:	752f0073 	strvc	r0, [pc, #-115]!	; 1635 <__code_start__-0x69cb>
    16a4:	6c2f7273 	sfmvs	f7, 4, [pc], #-460	; 14e0 <__code_start__-0x6b20>
    16a8:	672f6269 	strvs	r6, [pc, -r9, ror #4]!
    16ac:	612f6363 	teqvs	pc, r3, ror #6
    16b0:	6e2d6d72 	mcrvs	13, 1, r6, cr13, cr2, {3}
    16b4:	2d656e6f 	stclcs	14, cr6, [r5, #-444]!	; 0xfffffe44
    16b8:	69626165 	stmdbvs	r2!, {r0, r2, r5, r6, r8, sp, lr}^
    16bc:	332e362f 	teqcc	lr, #49283072	; 0x2f00000
    16c0:	692f312e 	stmdbvs	pc!, {r1, r2, r3, r5, r8, ip, sp}	; <UNPREDICTABLE>
    16c4:	756c636e 	strbvc	r6, [ip, #-878]!	; 0x36e
    16c8:	2f006564 	svccs	0x00006564
    16cc:	656d6f68 	strbvs	r6, [sp, #-3944]!	; 0xf68
    16d0:	676e652f 	strbvs	r6, [lr, -pc, lsr #10]!
    16d4:	2f72656c 	svccs	0x0072656c
    16d8:	73616c63 	cmnvc	r1, #25344	; 0x6300
    16dc:	73632f73 	cmnvc	r3, #460	; 0x1cc
    16e0:	6c303432 	cfldrsvs	mvf3, [r0], #-200	; 0xffffff38
    16e4:	30322d78 	eorscc	r2, r2, r8, ror sp
    16e8:	2f727073 	svccs	0x00727073
    16ec:	62696c2f 	rsbvs	r6, r9, #12032	; 0x2f00
    16f0:	2f006970 	svccs	0x00006970
    16f4:	656d6f68 	strbvs	r6, [sp, #-3944]!	; 0xf68
    16f8:	676e652f 	strbvs	r6, [lr, -pc, lsr #10]!
    16fc:	2f72656c 	svccs	0x0072656c
    1700:	73616c63 	cmnvc	r1, #25344	; 0x6300
    1704:	73632f73 	cmnvc	r3, #460	; 0x1cc
    1708:	6c303432 	cfldrsvs	mvf3, [r0], #-200	; 0xffffff38
    170c:	30322d78 	eorscc	r2, r2, r8, ror sp
    1710:	2f727073 	svccs	0x00727073
    1714:	62696c2f 	rsbvs	r6, r9, #12032	; 0x2f00
    1718:	732f6970 	teqvc	pc, #112, 18	; 0x1c0000
    171c:	66666174 			; <UNDEFINED> instruction: 0x66666174
    1720:	6372732d 	cmnvs	r2, #-1275068416	; 0xb4000000
    1724:	70670000 	rsbvc	r0, r7, r0
    1728:	632e6f69 	teqvs	lr, #420	; 0x1a4
    172c:	00000000 	andeq	r0, r0, r0
    1730:	6b636f6c 	blvs	18dd4e8 <__bss_end__+0x18d0ea0>
    1734:	0100682e 	tsteq	r0, lr, lsr #16
    1738:	745f0000 	ldrbvc	r0, [pc], #-0	; 1740 <__code_start__-0x68c0>
    173c:	73657079 	cmnvc	r5, #121	; 0x79
    1740:	0100682e 	tsteq	r0, lr, lsr #16
    1744:	74730000 	ldrbtvc	r0, [r3], #-0
    1748:	66656464 	strbtvs	r6, [r5], -r4, ror #8
    174c:	0200682e 	andeq	r6, r0, #3014656	; 0x2e0000
    1750:	65720000 	ldrbvs	r0, [r2, #-0]!
    1754:	2e746e65 	cdpcs	14, 7, cr6, cr4, cr5, {3}
    1758:	00010068 	andeq	r0, r1, r8, rrx
    175c:	69707200 	ldmdbvs	r0!, {r9, ip, sp, lr}^
    1760:	0300682e 	movweq	r6, #2094	; 0x82e
    1764:	70670000 	rsbvc	r0, r7, r0
    1768:	682e6f69 	stmdavs	lr!, {r0, r3, r5, r6, r8, r9, sl, fp, sp, lr}
    176c:	00000400 	andeq	r0, r0, r0, lsl #8
    1770:	02050000 	andeq	r0, r5, #0
    1774:	0000acf0 	strdeq	sl, [r0], -r0
    1778:	13012703 	movwne	r2, #5891	; 0x1703
    177c:	f44f474c 	vst1.16	{d20}, [pc], ip
    1780:	a14c4b68 	cmpge	ip, r8, ror #22
    1784:	49136a2f 	ldmdbmi	r3, {r0, r1, r2, r3, r5, r9, fp, sp, lr}
    1788:	4913be31 	ldmdbmi	r3, {r0, r4, r5, r9, sl, fp, ip, sp, pc}
    178c:	6a2fbe31 	bvs	bf1058 <__bss_end__+0xbe4a10>
    1790:	4f484d2f 	svcmi	0x00484d2f
    1794:	2f324913 	svccs	0x00324913
    1798:	000602b7 			; <UNDEFINED> instruction: 0x000602b7
    179c:	01340101 	teqeq	r4, r1, lsl #2
    17a0:	00020000 	andeq	r0, r2, r0
    17a4:	000000df 	ldrdeq	r0, [r0], -pc	; <UNPREDICTABLE>
    17a8:	0efb0102 	cdpeq	1, 15, cr0, cr11, cr2, {0}
    17ac:	0101000d 	tsteq	r1, sp
    17b0:	00000101 	andeq	r0, r0, r1, lsl #2
    17b4:	00000100 	andeq	r0, r0, r0, lsl #2
    17b8:	73752f01 	cmnvc	r5, #1, 30
    17bc:	6e692f72 	mcrvs	15, 3, r2, cr9, cr2, {3}
    17c0:	64756c63 	ldrbtvs	r6, [r5], #-3171	; 0xc63
    17c4:	656e2f65 	strbvs	r2, [lr, #-3941]!	; 0xf65
    17c8:	62696c77 	rsbvs	r6, r9, #30464	; 0x7700
    17cc:	7379732f 	cmnvc	r9, #-1140850688	; 0xbc000000
    17d0:	73752f00 	cmnvc	r5, #0, 30
    17d4:	696c2f72 	stmdbvs	ip!, {r1, r4, r5, r6, r8, r9, sl, fp, sp}^
    17d8:	63672f62 	cmnvs	r7, #392	; 0x188
    17dc:	72612f63 	rsbvc	r2, r1, #396	; 0x18c
    17e0:	6f6e2d6d 	svcvs	0x006e2d6d
    17e4:	652d656e 	strvs	r6, [sp, #-1390]!	; 0x56e
    17e8:	2f696261 	svccs	0x00696261
    17ec:	2e332e36 	mrccs	14, 1, r2, cr3, cr6, {1}
    17f0:	6e692f31 	mcrvs	15, 3, r2, cr9, cr1, {1}
    17f4:	64756c63 	ldrbtvs	r6, [r5], #-3171	; 0xc63
    17f8:	682f0065 	stmdavs	pc!, {r0, r2, r5, r6}	; <UNPREDICTABLE>
    17fc:	2f656d6f 	svccs	0x00656d6f
    1800:	6c676e65 	stclvs	14, cr6, [r7], #-404	; 0xfffffe6c
    1804:	632f7265 	teqvs	pc, #1342177286	; 0x50000006
    1808:	7373616c 	cmnvc	r3, #108, 2
    180c:	3273632f 	rsbscc	r6, r3, #-1140850688	; 0xbc000000
    1810:	786c3034 	stmdavc	ip!, {r2, r4, r5, ip, sp}^
    1814:	7330322d 	teqvc	r0, #-805306366	; 0xd0000002
    1818:	2f2f7270 	svccs	0x002f7270
    181c:	7062696c 	rsbvc	r6, r2, ip, ror #18
    1820:	752f0069 	strvc	r0, [pc, #-105]!	; 17bf <__code_start__-0x6841>
    1824:	692f7273 	stmdbvs	pc!, {r0, r1, r4, r5, r6, r9, ip, sp, lr}	; <UNPREDICTABLE>
    1828:	756c636e 	strbvc	r6, [ip, #-878]!	; 0x36e
    182c:	6e2f6564 	cfsh64vs	mvdx6, mvdx15, #52
    1830:	696c7765 	stmdbvs	ip!, {r0, r2, r5, r6, r8, r9, sl, ip, sp, lr}^
    1834:	6b000062 	blvs	19c4 <__code_start__-0x663c>
    1838:	6c6c616d 	stfvse	f6, [ip], #-436	; 0xfffffe4c
    183c:	632e636f 	teqvs	lr, #-1140850687	; 0xbc000001
    1840:	00000000 	andeq	r0, r0, r0
    1844:	6b636f6c 	blvs	18dd5fc <__bss_end__+0x18d0fb4>
    1848:	0100682e 	tsteq	r0, lr, lsr #16
    184c:	745f0000 	ldrbvc	r0, [pc], #-0	; 1854 <__code_start__-0x67ac>
    1850:	73657079 	cmnvc	r5, #121	; 0x79
    1854:	0100682e 	tsteq	r0, lr, lsr #16
    1858:	74730000 	ldrbtvc	r0, [r3], #-0
    185c:	66656464 	strbtvs	r6, [r5], -r4, ror #8
    1860:	0200682e 	andeq	r6, r0, #3014656	; 0x2e0000
    1864:	65720000 	ldrbvs	r0, [r2, #-0]!
    1868:	2e746e65 	cdpcs	14, 7, cr6, cr4, cr5, {3}
    186c:	00010068 	andeq	r0, r1, r8, rrx
    1870:	69707200 	ldmdbvs	r0!, {r9, ip, sp, lr}^
    1874:	0300682e 	movweq	r6, #2094	; 0x82e
    1878:	74730000 	ldrbtvc	r0, [r3], #-0
    187c:	676e6972 			; <UNDEFINED> instruction: 0x676e6972
    1880:	0400682e 	streq	r6, [r0], #-2094	; 0x82e
    1884:	00000000 	andeq	r0, r0, r0
    1888:	ae100205 	cdpge	2, 1, cr0, cr0, cr5, {0}
    188c:	10030000 	andne	r0, r3, r0
    1890:	01830101 	orreq	r0, r3, r1, lsl #2
    1894:	00831468 	addeq	r1, r3, r8, ror #8
    1898:	7f010402 	svcvc	0x00010402
    189c:	01040200 	mrseq	r0, R12_usr
    18a0:	2f5c0830 	svccs	0x005c0830
    18a4:	4b4b4c4b 	blmi	12d49d8 <__bss_end__+0x12c8390>
    18a8:	04020068 	streq	r0, [r2], #-104	; 0x68
    18ac:	4a790301 	bmi	1e424b8 <__bss_end__+0x1e35e70>
    18b0:	58080903 	stmdapl	r8, {r0, r1, r8, fp}
    18b4:	4e2e012f 	sufmiep	f0, f6, #10.0
    18b8:	674b6a2f 	strbvs	r6, [fp, -pc, lsr #20]
    18bc:	002f4c67 	eoreq	r4, pc, r7, ror #24
    18c0:	03010402 	movweq	r0, #5122	; 0x1402
    18c4:	02002e76 	andeq	r2, r0, #1888	; 0x760
    18c8:	08dc0104 	ldmeq	ip, {r2, r8}^
    18cc:	9f012f7a 	svcls	0x00012f7a
    18d0:	00080201 	andeq	r0, r8, r1, lsl #4
    18d4:	Address 0x00000000000018d4 is out of bounds.


Disassembly of section .debug_str:

00000000 <.debug_str>:
       0:	676e6f6c 	strbvs	r6, [lr, -ip, ror #30]!
       4:	6e6f6c20 	cdpvs	12, 6, cr6, cr15, cr0, {1}
       8:	6e692067 	cdpvs	0, 6, cr2, cr9, cr7, {3}
       c:	656d0074 	strbvs	r0, [sp, #-116]!	; 0x74
      10:	6568636d 	strbvs	r6, [r8, #-877]!	; 0x36d
      14:	695f6b63 	ldmdbvs	pc, {r0, r1, r5, r6, r8, r9, fp, sp, lr}^	; <UNPREDICTABLE>
      18:	0074696e 	rsbseq	r6, r4, lr, ror #18
      1c:	55465f5f 	strbpl	r5, [r6, #-3935]	; 0xf5f
      20:	4954434e 	ldmdbmi	r4, {r1, r2, r3, r6, r8, r9, lr}^
      24:	5f5f4e4f 	svcpl	0x005f4e4f
      28:	6e6f6c00 	cdpvs	12, 6, cr6, cr15, cr0, {0}
      2c:	6f6c2067 	svcvs	0x006c2067
      30:	7520676e 	strvc	r6, [r0, #-1902]!	; 0x76e
      34:	6769736e 	strbvs	r7, [r9, -lr, ror #6]!
      38:	2064656e 	rsbcs	r6, r4, lr, ror #10
      3c:	00746e69 	rsbseq	r6, r4, r9, ror #28
      40:	20554e47 	subscs	r4, r5, r7, asr #28
      44:	2e342043 	cdpcs	0, 3, cr2, cr4, cr3, {2}
      48:	20332e38 	eorscs	r2, r3, r8, lsr lr
      4c:	70636d2d 	rsbvc	r6, r3, sp, lsr #26
      50:	72613d75 	rsbvc	r3, r1, #7488	; 0x1d40
      54:	3731316d 	ldrcc	r3, [r1, -sp, ror #2]!
      58:	667a6a36 			; <UNDEFINED> instruction: 0x667a6a36
      5c:	2d20732d 	stccs	3, cr7, [r0, #-180]!	; 0xffffff4c
      60:	6e75746d 	cdpvs	4, 7, cr7, cr5, cr13, {3}
      64:	72613d65 	rsbvc	r3, r1, #6464	; 0x1940
      68:	3731316d 	ldrcc	r3, [r1, -sp, ror #2]!
      6c:	667a6a36 			; <UNDEFINED> instruction: 0x667a6a36
      70:	2d20732d 	stccs	3, cr7, [r0, #-180]!	; 0xffffff4c
      74:	62646767 	rsbvs	r6, r4, #27000832	; 0x19c0000
      78:	674f2d20 	strbvs	r2, [pc, -r0, lsr #26]
      7c:	74732d20 	ldrbtvc	r2, [r3], #-3360	; 0xd20
      80:	6e673d64 	cdpvs	13, 6, cr3, cr7, cr4, {3}
      84:	20393975 	eorscs	r3, r9, r5, ror r9
      88:	7266662d 	rsbvc	r6, r6, #47185920	; 0x2d00000
      8c:	74736565 	ldrbtvc	r6, [r3], #-1381	; 0x565
      90:	69646e61 	stmdbvs	r4!, {r0, r5, r6, r9, sl, fp, sp, lr}^
      94:	2d20676e 	stccs	7, cr6, [r0, #-440]!	; 0xfffffe48
      98:	2d6f6e66 	stclcs	14, cr6, [pc, #-408]!	; ffffff08 <__bss_end__+0xffff38c0>
      9c:	6c706f74 	ldclvs	15, cr6, [r0], #-464	; 0xfffffe30
      a0:	6c657665 	stclvs	6, cr7, [r5], #-404	; 0xfffffe6c
      a4:	6f65722d 	svcvs	0x0065722d
      a8:	72656472 	rsbvc	r6, r5, #1912602624	; 0x72000000
      ac:	74757000 	ldrbtvc	r7, [r5], #-0
      b0:	74003233 	strvc	r3, [r0], #-563	; 0x233
      b4:	73747365 	cmnvc	r4, #-1811939327	; 0x94000001
      b8:	7261702f 	rsbvc	r7, r1, #47	; 0x2f
      bc:	742d3274 	strtvc	r3, [sp], #-628	; 0x274
      c0:	32747365 	rsbscc	r7, r4, #-1811939327	; 0x94000001
      c4:	7500632e 	strvc	r6, [r0, #-814]	; 0x32e
      c8:	6769736e 	strbvs	r7, [r9, -lr, ror #6]!
      cc:	2064656e 	rsbcs	r6, r4, lr, ror #10
      d0:	72616863 	rsbvc	r6, r1, #6488064	; 0x630000
      d4:	69707200 	ldmdbvs	r0!, {r9, ip, sp, lr}^
      d8:	7365725f 	cmnvc	r5, #-268435451	; 0xf0000005
      dc:	705f7465 	subsvc	r7, pc, r5, ror #8
      e0:	00637475 	rsbeq	r7, r3, r5, ror r4
      e4:	636d656d 	cmnvs	sp, #457179136	; 0x1b400000
      e8:	6b636568 	blvs	18d9690 <__bss_end__+0x18cd048>
      ec:	006e6f5f 	rsbeq	r6, lr, pc, asr pc
      f0:	746e6975 	strbtvc	r6, [lr], #-2421	; 0x975
      f4:	745f3233 	ldrbvc	r3, [pc], #-563	; fc <__code_start__-0x7f04>
      f8:	656c6300 	strbvs	r6, [ip, #-768]!	; 0x300
      fc:	725f6e61 	subsvc	r6, pc, #1552	; 0x610
     100:	6f6f6265 	svcvs	0x006f6265
     104:	68730074 	ldmdavs	r3!, {r2, r4, r5, r6}^
     108:	2074726f 	rsbscs	r7, r4, pc, ror #4
     10c:	00746e69 	rsbseq	r6, r4, r9, ror #28
     110:	6d746f6e 	ldclvs	15, cr6, [r4, #-440]!	; 0xfffffe48
     114:	006e6961 	rsbeq	r6, lr, r1, ror #18
     118:	726f6873 	rsbvc	r6, pc, #7536640	; 0x730000
     11c:	6e752074 	mrcvs	0, 3, r2, cr5, cr4, {3}
     120:	6e676973 	mcrvs	9, 3, r6, cr7, cr3, {3}
     124:	69206465 	stmdbvs	r0!, {r0, r2, r5, r6, sl, sp, lr}
     128:	6d00746e 	cfstrsvs	mvf7, [r0, #-440]	; 0xfffffe48
     12c:	695f756d 	ldmdbvs	pc, {r0, r2, r3, r5, r6, r8, sl, ip, sp, lr}^	; <UNPREDICTABLE>
     130:	6e655f73 	mcrvs	15, 3, r5, cr5, cr3, {3}
     134:	656c6261 	strbvs	r6, [ip, #-609]!	; 0x261
     138:	552f0064 	strpl	r0, [pc, #-100]!	; dc <__code_start__-0x7f24>
     13c:	73726573 	cmnvc	r2, #482344960	; 0x1cc00000
     140:	6972622f 	ldmdbvs	r2!, {r0, r1, r2, r3, r5, r9, sp, lr}^
     144:	756a6e61 	strbvc	r6, [sl, #-3681]!	; 0xe61
     148:	65442f6e 	strbvs	r2, [r4, #-3950]	; 0xf6e
     14c:	6f746b73 	svcvs	0x00746b73
     150:	63732f70 	cmnvs	r3, #112, 30	; 0x1c0
     154:	6c6f6f68 	stclvs	15, cr6, [pc], #-416	; ffffffbc <__bss_end__+0xffff3974>
     158:	7270532f 	rsbsvc	r5, r0, #-1140850688	; 0xbc000000
     15c:	31676e69 	cmncc	r7, r9, ror #28
     160:	2f303239 	svccs	0x00303239
     164:	34325343 	ldrtcc	r5, [r2], #-835	; 0x343
     168:	2f584c30 	svccs	0x00584c30
     16c:	34327363 	ldrtcc	r7, [r2], #-867	; 0x363
     170:	2d786c30 	ldclcs	12, cr6, [r8, #-192]!	; 0xffffff40
     174:	70733032 	rsbsvc	r3, r3, r2, lsr r0
     178:	616c2f72 	smcvs	49906	; 0xc2f2
     17c:	312f7362 	teqcc	pc, r2, ror #6
     180:	656d2d37 	strbvs	r2, [sp, #-3383]!	; 0xd37
     184:	6568636d 	strbvs	r6, [r8, #-877]!	; 0x36d
     188:	702f6b63 	eorvc	r6, pc, r3, ror #22
     18c:	32747261 	rsbscc	r7, r4, #268435462	; 0x10000006
     190:	2d6d762d 	stclcs	6, cr7, [sp, #-180]!	; 0xffffff4c
     194:	70617274 	rsbvc	r7, r1, r4, ror r2
     198:	7a697300 	bvc	1a5cda0 <__bss_end__+0x1a50758>
     19c:	70797465 	rsbsvc	r7, r9, r5, ror #8
     1a0:	6d6d0065 	stclvs	0, cr0, [sp, #-404]!	; 0xfffffe6c
     1a4:	69645f75 	stmdbvs	r4!, {r0, r2, r4, r5, r6, r8, r9, sl, fp, ip, lr}^
     1a8:	6c626173 	stfvse	f6, [r2], #-460	; 0xfffffe34
     1ac:	5f5a0065 	svcpl	0x005a0065
     1b0:	6e617262 	cdpvs	2, 6, cr7, cr1, cr2, {3}
     1b4:	705f6863 	subsvc	r6, pc, r3, ror #16
     1b8:	00646572 	rsbeq	r6, r4, r2, ror r5
     1bc:	64697361 	strbtvs	r7, [r9], #-865	; 0x361
     1c0:	72756f00 	rsbsvc	r6, r5, #0, 30
     1c4:	756d6d5f 	strbvc	r6, [sp, #-3423]!	; 0xd5f
     1c8:	7365725f 	cmnvc	r5, #-268435451	; 0xf0000005
     1cc:	6d007465 	cfstrsvs	mvf7, [r0, #-404]	; 0xfffffe6c
     1d0:	6d5f756d 	cfldr64vs	mvdx7, [pc, #-436]	; 24 <__code_start__-0x7fdc>
     1d4:	5f6b7261 	svcpl	0x006b7261
     1d8:	5f636573 	svcpl	0x00636573
     1dc:	64616572 	strbtvs	r6, [r1], #-1394	; 0x572
     1e0:	796c6e6f 	stmdbvc	ip!, {r0, r1, r2, r3, r5, r6, r9, sl, fp, sp, lr}^
     1e4:	7a697300 	bvc	1a5cdec <__bss_end__+0x1a507a4>
     1e8:	00745f65 	rsbseq	r5, r4, r5, ror #30
     1ec:	5f756d6d 	svcpl	0x00756d6d
     1f0:	5f636573 	svcpl	0x00636573
     1f4:	73746962 	cmnvc	r4, #1605632	; 0x188000
     1f8:	6c6e6f5f 	stclvs	15, cr6, [lr], #-380	; 0xfffffe84
     1fc:	5f560079 	svcpl	0x00560079
     200:	68676968 	stmdavs	r7!, {r3, r5, r6, r8, fp, sp, lr}^
     204:	6378655f 	cmnvs	r8, #398458880	; 0x17c00000
     208:	5f747065 	svcpl	0x00747065
     20c:	5f420076 	svcpl	0x00420076
     210:	69646e65 	stmdbvs	r4!, {r0, r2, r5, r6, r9, sl, fp, sp, lr}^
     214:	6d006e61 	stcvs	14, cr6, [r0, #-388]	; 0xfffffe7c
     218:	632e756d 	teqvs	lr, #457179136	; 0x1b400000
     21c:	65736e00 	ldrbvs	r6, [r3, #-3584]!	; 0xe00
     220:	5f490063 	svcpl	0x00490063
     224:	63616369 	cmnvs	r1, #-1543503871	; 0xa4000001
     228:	655f6568 	ldrbvs	r6, [pc, #-1384]	; fffffcc8 <__bss_end__+0xffff3680>
     22c:	6c62616e 	stfvse	f6, [r2], #-440	; 0xfffffe48
     230:	5f410065 	svcpl	0x00410065
     234:	67696c61 	strbvs	r6, [r9, -r1, ror #24]!
     238:	6e656d6e 	cdpvs	13, 6, cr6, cr5, cr14, {3}
     23c:	756f0074 	strbvc	r0, [pc, #-116]!	; 1d0 <__code_start__-0x7e30>
     240:	70635f72 	rsbvc	r5, r3, r2, ror pc
     244:	735f3531 	cmpvc	pc, #205520896	; 0xc400000
     248:	705f7465 	subsvc	r7, pc, r5, ror #8
     24c:	69636f72 	stmdbvs	r3!, {r1, r4, r5, r6, r8, r9, sl, fp, sp, lr}^
     250:	74745f64 	ldrbtvc	r5, [r4], #-3940	; 0xf64
     254:	00307262 	eorseq	r7, r0, r2, ror #4
     258:	725f5041 	subsvc	r5, pc, #65	; 0x41
     25c:	6e6f5f64 	cdpvs	15, 6, cr5, cr15, cr4, {3}
     260:	6b00796c 	blvs	1e818 <__bss_end__+0x121d0>
     264:	6c6c616d 	stfvse	f6, [ip], #-436	; 0xfffffe4c
     268:	615f636f 	cmpvs	pc, pc, ror #6
     26c:	6e67696c 	cdpvs	9, 6, cr6, cr7, cr12, {3}
     270:	73006465 	movwvc	r6, #1125	; 0x465
     274:	625f6365 	subsvs	r6, pc, #-1811939327	; 0x94000001
     278:	5f657361 	svcpl	0x00657361
     27c:	72646461 	rsbvc	r6, r4, #1627389952	; 0x61000000
     280:	756d6d00 	strbvc	r6, [sp, #-3328]!	; 0xd00
     284:	616e655f 	cmnvs	lr, pc, asr r5
     288:	5f656c62 	svcpl	0x00656c62
     28c:	00746573 	rsbseq	r6, r4, r3, ror r5
     290:	74697277 	strbtvc	r7, [r9], #-631	; 0x277
     294:	6f645f65 	svcvs	0x00645f65
     298:	6e69616d 	powvsez	f6, f1, #5.0
     29c:	6363615f 	cmnvs	r3, #-1073741801	; 0xc0000017
     2a0:	5f737365 	svcpl	0x00737365
     2a4:	6c727463 	cfldrdvs	mvd7, [r2], #-396	; 0xfffffe74
     2a8:	756d6d00 	strbvc	r6, [sp, #-3328]!	; 0xd00
     2ac:	7369645f 	cmnvc	r9, #1593835520	; 0x5f000000
     2b0:	656c6261 	strbvs	r6, [ip, #-609]!	; 0x261
     2b4:	7465735f 	strbtvc	r7, [r5], #-863	; 0x35f
     2b8:	72756f00 	rsbsvc	r6, r5, #0, 30
     2bc:	3170635f 	cmncc	r0, pc, asr r3
     2c0:	6f645f35 	svcvs	0x00645f35
     2c4:	6e69616d 	powvsez	f6, f1, #5.0
     2c8:	7274635f 	rsbsvc	r6, r4, #2080374785	; 0x7c000001
     2cc:	72775f6c 	rsbsvc	r5, r7, #108, 30	; 0x1b0
     2d0:	646c6600 	strbtvs	r6, [ip], #-1536	; 0x600
     2d4:	6f00745f 	svcvs	0x0000745f
     2d8:	6d5f7275 	lfmvs	f7, 2, [pc, #-468]	; 10c <__code_start__-0x7ef4>
     2dc:	645f756d 	ldrbvs	r7, [pc], #-1389	; 2e4 <__code_start__-0x7d1c>
     2e0:	62617369 	rsbvs	r7, r1, #-1543503871	; 0xa4000001
     2e4:	735f656c 	cmpvc	pc, #108, 10	; 0x1b000000
     2e8:	615f7465 	cmpvs	pc, r5, ror #8
     2ec:	68006d73 	stmdavs	r0, {r0, r1, r4, r5, r6, r8, sl, fp, sp, lr}
     2f0:	5f687361 	svcpl	0x00687361
     2f4:	6e697270 	mcrvs	2, 3, r7, cr9, cr0, {3}
     2f8:	52520074 	subspl	r0, r2, #116	; 0x74
     2fc:	6361635f 	cmnvs	r1, #2080374785	; 0x7c000001
     300:	725f6568 	subsvc	r6, pc, #104, 10	; 0x1a000000
     304:	73007065 	movwvc	r7, #101	; 0x65
     308:	72657075 	rsbvc	r7, r5, #117	; 0x75
     30c:	31706300 	cmncc	r0, r0, lsl #6
     310:	74635f35 	strbtvc	r5, [r3], #-3893	; 0xf35
     314:	725f6c72 	subsvc	r6, pc, #29184	; 0x7200
     318:	5f316765 	svcpl	0x00316765
     31c:	6d007277 	sfmvs	f7, 4, [r0, #-476]	; 0xfffffe24
     320:	6d5f756d 	cfldr64vs	mvdx7, [pc, #-436]	; 174 <__code_start__-0x7e8c>
     324:	5f6b7261 	svcpl	0x006b7261
     328:	5f636573 	svcpl	0x00636573
     32c:	66007772 			; <UNDEFINED> instruction: 0x66007772
     330:	6d5f646c 	cfldrdvs	mvd6, [pc, #-432]	; 188 <__code_start__-0x7e78>
     334:	6d6d006b 	stclvs	0, cr0, [sp, #-428]!	; 0xfffffe54
     338:	74705f75 	ldrbtvc	r5, [r0], #-3957	; 0xf75
     33c:	6c6c615f 	stfvse	f6, [ip], #-380	; 0xfffffe84
     340:	5f00636f 	svcpl	0x0000636f
     344:	65736572 	ldrbvs	r6, [r3, #-1394]!	; 0x572
     348:	64657672 	strbtvs	r7, [r5], #-1650	; 0x672
     34c:	725f0030 	subsvc	r0, pc, #48	; 0x30
     350:	72657365 	rsbvc	r7, r5, #-1811939327	; 0x94000001
     354:	31646576 	smccc	18006	; 0x4656
     358:	5f504100 	svcpl	0x00504100
     35c:	66007772 			; <UNDEFINED> instruction: 0x66007772
     360:	74737269 	ldrbtvc	r7, [r3], #-617	; 0x269
     364:	76656c5f 			; <UNDEFINED> instruction: 0x76656c5f
     368:	645f6c65 	ldrbvs	r6, [pc], #-3173	; 370 <__code_start__-0x7c90>
     36c:	72637365 	rsbvc	r7, r3, #-1811939327	; 0x94000001
     370:	6f747069 	svcvs	0x00747069
     374:	6d6d0072 	stclvs	0, cr0, [sp, #-456]!	; 0xfffffe38
     378:	616d5f75 	smcvs	54773	; 0xd5f5
     37c:	65735f70 	ldrbvs	r5, [r3, #-3952]!	; 0xf70
     380:	6f697463 	svcvs	0x00697463
     384:	7063006e 	rsbvc	r0, r3, lr, rrx
     388:	635f3531 	cmpvs	pc, #205520896	; 0xc400000
     38c:	5f6c7274 	svcpl	0x006c7274
     390:	31676572 	smccc	30290	; 0x7652
     394:	0064725f 	rsbeq	r7, r4, pc, asr r2
     398:	765f4556 			; <UNDEFINED> instruction: 0x765f4556
     39c:	5f746365 	svcpl	0x00746365
     3a0:	00746e69 	rsbseq	r6, r4, r9, ror #28
     3a4:	6f725f52 	svcvs	0x00725f52
     3a8:	72705f6d 	rsbsvc	r5, r0, #436	; 0x1b4
     3ac:	6e00746f 	cdpvs	4, 0, cr7, cr0, cr15, {3}
     3b0:	65747962 	ldrbvs	r7, [r4, #-2402]!	; 0x962
     3b4:	41460073 	hvcmi	24579	; 0x6003
     3b8:	726f665f 	rsbvc	r6, pc, #99614720	; 0x5f00000
     3bc:	615f6563 	cmpvs	pc, r3, ror #10
     3c0:	756f0070 	strbvc	r0, [pc, #-112]!	; 358 <__code_start__-0x7ca8>
     3c4:	6d6d5f72 	stclvs	15, cr5, [sp, #-456]!	; 0xfffffe38
     3c8:	79735f75 	ldmdbvc	r3!, {r0, r2, r4, r5, r6, r8, r9, sl, fp, ip, lr}^
     3cc:	705f636e 	subsvc	r6, pc, lr, ror #6
     3d0:	6d5f6574 	cfldr64vs	mvdx6, [pc, #-464]	; 208 <__code_start__-0x7df8>
     3d4:	0073646f 	rsbseq	r6, r3, pc, ror #8
     3d8:	72775f57 	rsbsvc	r5, r7, #348	; 0x15c
     3dc:	5f657469 	svcpl	0x00657469
     3e0:	00667562 	rsbeq	r7, r6, r2, ror #10
     3e4:	72705f53 	rsbsvc	r5, r0, #332	; 0x14c
     3e8:	6d00746f 	cfstrsvs	mvf7, [r0, #-444]	; 0xfffffe44
     3ec:	6d5f756d 	cfldr64vs	mvdx7, [pc, #-436]	; 240 <__code_start__-0x7dc0>
     3f0:	5f6b7261 	svcpl	0x006b7261
     3f4:	5f636573 	svcpl	0x00636573
     3f8:	705f7061 	subsvc	r7, pc, r1, rrx
     3fc:	006d7265 	rsbeq	r7, sp, r5, ror #4
     400:	5f756d6d 	svcpl	0x00756d6d
     404:	74696e69 	strbtvc	r6, [r9], #-3689	; 0xe69
     408:	756d6d00 	strbvc	r6, [sp, #-3328]!	; 0xd00
     40c:	5f74705f 	svcpl	0x0074705f
     410:	6f6c6c61 	svcvs	0x006c6c61
     414:	74615f63 	strbtvc	r5, [r1], #-3939	; 0xf63
     418:	554d4d00 	strbpl	r4, [sp, #-3328]	; 0xd00
     41c:	616e655f 	cmnvs	lr, pc, asr r5
     420:	64656c62 	strbtvs	r6, [r5], #-3170	; 0xc62
     424:	755f5500 	ldrbvc	r5, [pc, #-1280]	; ffffff2c <__bss_end__+0xffff38e4>
     428:	696c616e 	stmdbvs	ip!, {r1, r2, r3, r5, r6, r8, sp, lr}^
     42c:	64656e67 	strbtvs	r6, [r5], #-3687	; 0xe67
     430:	5f505800 	svcpl	0x00505800
     434:	54007470 	strpl	r7, [r0], #-1136	; 0x470
     438:	65745f52 	ldrbvs	r5, [r4, #-3922]!	; 0xf52
     43c:	65725f78 	ldrbvs	r5, [r2, #-3960]!	; 0xf78
     440:	0070616d 	rsbseq	r6, r0, sp, ror #2
     444:	65646e69 	strbvs	r6, [r4, #-3689]!	; 0xe69
     448:	6f630078 	svcvs	0x00630078
     44c:	6f72746e 	svcvs	0x0072746e
     450:	65725f6c 	ldrbvs	r5, [r2, #-3948]!	; 0xf6c
     454:	61003167 	tstvs	r0, r7, ror #2
     458:	6e5f6d73 	mrcvs	13, 2, r6, cr15, cr3, {3}
     45c:	695f746f 	ldmdbvs	pc, {r0, r1, r2, r3, r5, r6, sl, ip, sp, lr}^	; <UNPREDICTABLE>
     460:	656c706d 	strbvs	r7, [ip, #-109]!	; 0x6d
     464:	746e656d 	strbtvc	r6, [lr], #-1389	; 0x56d
     468:	6d006465 	cfstrsvs	mvf6, [r0, #-404]	; 0xfffffe6c
     46c:	655f756d 	ldrbvs	r7, [pc, #-1389]	; ffffff07 <__bss_end__+0xffff38bf>
     470:	6c62616e 	stfvse	f6, [r2], #-440	; 0xfffffe48
     474:	70630065 	rsbvc	r0, r3, r5, rrx
     478:	635f3531 	cmpvs	pc, #205520896	; 0xc400000
     47c:	5f6c7274 	svcpl	0x006c7274
     480:	31676572 	smccc	30290	; 0x7652
     484:	5f00745f 	svcpl	0x0000745f
     488:	73756e75 	cmnvc	r5, #1872	; 0x750
     48c:	00316465 	eorseq	r6, r1, r5, ror #8
     490:	736d656d 	cmnvc	sp, #457179136	; 0x1b400000
     494:	66007465 	strvs	r7, [r0], -r5, ror #8
     498:	705f646c 	subsvc	r6, pc, ip, ror #8
     49c:	746e6972 	strbtvc	r6, [lr], #-2418	; 0x972
     4a0:	61657200 	cmnvs	r5, r0, lsl #4
     4a4:	6f645f64 	svcvs	0x00645f64
     4a8:	6e69616d 	powvsez	f6, f1, #5.0
     4ac:	6363615f 	cmnvs	r3, #-1073741801	; 0xc0000017
     4b0:	5f737365 	svcpl	0x00737365
     4b4:	6c727463 	cfldrdvs	mvd7, [r2], #-396	; 0xfffffe74
     4b8:	646c6600 	strbtvs	r6, [ip], #-1536	; 0x600
     4bc:	7465735f 	strbtvc	r7, [r5], #-863	; 0x35f
     4c0:	7361625f 	cmnvc	r1, #-268435451	; 0xf0000005
     4c4:	64615f65 	strbtvs	r5, [r1], #-3941	; 0xf65
     4c8:	6d007264 	sfmvs	f7, 4, [r0, #-400]	; 0xfffffe70
     4cc:	695f756d 	ldmdbvs	pc, {r0, r2, r3, r5, r6, r8, sl, ip, sp, lr}^	; <UNPREDICTABLE>
     4d0:	6174736e 	cmnvs	r4, lr, ror #6
     4d4:	685f6c6c 	ldmdavs	pc, {r2, r3, r5, r6, sl, fp, sp, lr}^	; <UNPREDICTABLE>
     4d8:	6c646e61 	stclvs	14, cr6, [r4], #-388	; 0xfffffe7c
     4dc:	00737265 	rsbseq	r7, r3, r5, ror #4
     4e0:	6e5f5041 	cdpvs	0, 5, cr5, cr15, cr1, {2}
     4e4:	63615f6f 	cmnvs	r1, #444	; 0x1bc
     4e8:	73736563 	cmnvc	r3, #415236096	; 0x18c00000
     4ec:	6d6f6400 	cfstrdvs	mvd6, [pc, #-0]	; 4f4 <__code_start__-0x7b0c>
     4f0:	006e6961 	rsbeq	r6, lr, r1, ror #18
     4f4:	7a62735f 	bvc	189d278 <__bss_end__+0x1890c30>
     4f8:	735f0030 	cmpvc	pc, #48	; 0x30
     4fc:	00317a62 	eorseq	r7, r1, r2, ror #20
     500:	5f756d6d 	svcpl	0x00756d6d
     504:	5f70616d 	svcpl	0x0070616d
     508:	74636573 	strbtvc	r6, [r3], #-1395	; 0x573
     50c:	736e6f69 	cmnvc	lr, #420	; 0x1a4
     510:	5f324c00 	svcpl	0x00324c00
     514:	62616e65 	rsbvs	r6, r1, #1616	; 0x650
     518:	0064656c 	rsbeq	r6, r4, ip, ror #10
     51c:	6e755f43 	cdpvs	15, 7, cr5, cr5, cr3, {2}
     520:	65696669 	strbvs	r6, [r9, #-1641]!	; 0x669
     524:	6e655f64 	cdpvs	15, 6, cr5, cr5, cr4, {3}
     528:	656c6261 	strbvs	r6, [ip, #-609]!	; 0x261
     52c:	72756f00 	rsbsvc	r6, r5, #0, 30
     530:	756d6d5f 	strbvc	r6, [sp, #-3423]!	; 0xd5f
     534:	616e655f 	cmnvs	lr, pc, asr r5
     538:	5f656c62 	svcpl	0x00656c62
     53c:	5f746573 	svcpl	0x00746573
     540:	006d7361 	rsbeq	r7, sp, r1, ror #6
     544:	5f756d6d 	svcpl	0x00756d6d
     548:	6b6f6f6c 	blvs	1bdc300 <__bss_end__+0x1bcfcb8>
     54c:	735f7075 	cmpvc	pc, #117	; 0x75
     550:	69746365 	ldmdbvs	r4!, {r0, r2, r5, r6, r8, r9, sp, lr}^
     554:	4f006e6f 	svcmi	0x00006e6f
     558:	424d656e 	submi	r6, sp, #461373440	; 0x1b800000
     55c:	756d6d00 	strbvc	r6, [sp, #-3328]!	; 0xd00
     560:	72616d5f 	rsbvc	r6, r1, #6080	; 0x17c0
     564:	65735f6b 	ldrbvs	r5, [r3, #-3947]!	; 0xf6b
     568:	6f6e5f63 	svcvs	0x006e5f63
     56c:	6363615f 	cmnvs	r3, #-1073741801	; 0xc0000017
     570:	00737365 	rsbseq	r7, r3, r5, ror #6
     574:	5f746e69 	svcpl	0x00746e69
     578:	74696e69 	strbtvc	r6, [r9], #-3689	; 0xe69
     57c:	756d6d00 	strbvc	r6, [sp, #-3328]!	; 0xd00
     580:	6c65682d 	stclvs	8, cr6, [r5], #-180	; 0xffffff4c
     584:	73726570 	cmnvc	r2, #112, 10	; 0x1c000000
     588:	6600632e 	strvs	r6, [r0], -lr, lsr #6
     58c:	635f646c 	cmpvs	pc, #108, 8	; 0x6c000000
     590:	6b636568 	blvs	18d9b38 <__bss_end__+0x18cd4f0>
     594:	66666f5f 	uqsaxvs	r6, r6, pc	; <UNPREDICTABLE>
     598:	73746573 	cmnvc	r4, #482344960	; 0x1cc00000
     59c:	73616600 	cmnvc	r1, #0, 12
     5a0:	61685f74 	smcvs	34292	; 0x85f4
     5a4:	63006873 	movwvs	r6, #2163	; 0x873
     5a8:	72746e6f 	rsbsvc	r6, r4, #1776	; 0x6f0
     5ac:	725f6c6f 	subsvc	r6, pc, #28416	; 0x6f00
     5b0:	5f316765 	svcpl	0x00316765
     5b4:	696e6173 	stmdbvs	lr!, {r0, r1, r4, r5, r6, r8, sp, lr}^
     5b8:	635f7974 	cmpvs	pc, #116, 18	; 0x1d0000
     5bc:	6b636568 	blvs	18d9b64 <__bss_end__+0x18cd51c>
     5c0:	646c6600 	strbtvs	r6, [ip], #-1536	; 0x600
     5c4:	6568635f 	strbvs	r6, [r8, #-863]!	; 0x35f
     5c8:	765f6b63 	ldrbvc	r6, [pc], -r3, ror #22
     5cc:	64696c61 	strbtvs	r6, [r9], #-3169	; 0xc61
     5d0:	69687300 	stmdbvs	r8!, {r8, r9, ip, sp, lr}^
     5d4:	74007466 	strvc	r7, [r0], #-1126	; 0x466
     5d8:	635f626c 	cmpvs	pc, #108, 4	; 0xc0000006
     5dc:	69666e6f 	stmdbvs	r6!, {r0, r1, r2, r3, r5, r6, r9, sl, fp, sp, lr}^
     5e0:	65730067 	ldrbvs	r0, [r3, #-103]!	; 0x67
     5e4:	6c615f74 	stclvs	15, cr5, [r1], #-464	; 0xfffffe30
     5e8:	6863006c 	stmdavs	r3!, {r2, r3, r5, r6}^
     5ec:	5f6b6365 	svcpl	0x006b6365
     5f0:	735f6d76 	cmpvc	pc, #7552	; 0x1d80
     5f4:	63757274 	cmnvs	r5, #116, 4	; 0x40000007
     5f8:	63007374 	movwvs	r7, #884	; 0x374
     5fc:	72746e6f 	rsbsvc	r6, r4, #1776	; 0x6f0
     600:	725f6c6f 	subsvc	r6, pc, #28416	; 0x6f00
     604:	5f316765 	svcpl	0x00316765
     608:	6e697270 	mcrvs	2, 3, r7, cr9, cr0, {3}
     60c:	6c740074 	ldclvs	0, cr0, [r4], #-464	; 0xfffffe30
     610:	6f635f62 	svcvs	0x00635f62
     614:	6769666e 	strbvs	r6, [r9, -lr, ror #12]!
     618:	6568635f 	strbvs	r6, [r8, #-863]!	; 0x35f
     61c:	6f5f6b63 	svcvs	0x005f6b63
     620:	65736666 	ldrbvs	r6, [r3, #-1638]!	; 0x666
     624:	64007374 	strvs	r7, [r0], #-884	; 0x374
     628:	69616d6f 	stmdbvs	r1!, {r0, r1, r2, r3, r5, r6, r8, sl, fp, sp, lr}^
     62c:	63615f6e 	cmnvs	r1, #440	; 0x1b8
     630:	72705f6c 	rsbsvc	r5, r0, #108, 30	; 0x1b0
     634:	00746e69 	rsbseq	r6, r4, r9, ror #28
     638:	746e6f63 	strbtvc	r6, [lr], #-3939	; 0xf63
     63c:	5f6c6f72 	svcpl	0x006c6f72
     640:	31676572 	smccc	30290	; 0x7652
     644:	6568635f 	strbvs	r6, [r8, #-863]!	; 0x35f
     648:	6f5f6b63 	svcvs	0x005f6b63
     64c:	65736666 	ldrbvs	r6, [r3, #-1638]!	; 0x666
     650:	74007374 	strvc	r7, [r0], #-884	; 0x374
     654:	635f626c 	cmpvs	pc, #108, 4	; 0xc0000006
     658:	69666e6f 	stmdbvs	r6!, {r0, r1, r2, r3, r5, r6, r9, sl, fp, sp, lr}^
     65c:	72705f67 	rsbsvc	r5, r0, #412	; 0x19c
     660:	00746e69 	rsbseq	r6, r4, r9, ror #28
     664:	66696e75 			; <UNDEFINED> instruction: 0x66696e75
     668:	5f646569 	svcpl	0x00646569
     66c:	5f6e0070 	svcpl	0x006e0070
     670:	6f6c5f69 	svcvs	0x006c5f69
     674:	6e006b63 	vmlsvs.f64	d6, d0, d19
     678:	6c5f645f 	cfldrdvs	mvd6, [pc], {95}	; 0x5f
     67c:	006b636f 	rsbeq	r6, fp, pc, ror #6
     680:	414d4f44 	cmpmi	sp, r4, asr #30
     684:	505f4e49 	subspl	r4, pc, r9, asr #28
     688:	00454741 	subeq	r4, r5, r1, asr #14
     68c:	43414349 	movtmi	r4, #4937	; 0x1349
     690:	4d5f4548 	cfldr64mi	mvdx4, [pc, #-288]	; 578 <__code_start__-0x7a88>
     694:	544e4941 	strbpl	r4, [lr], #-2369	; 0x941
     698:	5f504f5f 	svcpl	0x00504f5f
     69c:	50005446 	andpl	r5, r0, r6, asr #8
     6a0:	54495241 	strbpl	r5, [r9], #-577	; 0x241
     6a4:	52455f59 	subpl	r5, r5, #356	; 0x164
     6a8:	58455f52 	stmdapl	r5, {r1, r4, r6, r8, r9, sl, fp, ip, lr}^
     6ac:	64005043 	strvs	r5, [r0], #-67	; 0x43
     6b0:	5f617461 	svcpl	0x00617461
     6b4:	726f6261 	rsbvc	r6, pc, #268435462	; 0x10000006
     6b8:	65765f74 	ldrbvs	r5, [r6, #-3956]!	; 0xf74
     6bc:	726f7463 	rsbvc	r7, pc, #1660944384	; 0x63000000
     6c0:	504d4900 	subpl	r4, sp, r0, lsl #18
     6c4:	5f434552 	svcpl	0x00434552
     6c8:	5f545845 	svcpl	0x00545845
     6cc:	00544241 	subseq	r4, r4, r1, asr #4
     6d0:	345f7366 	ldrbcc	r7, [pc], #-870	; 6d8 <__code_start__-0x7928>
     6d4:	424c5400 	submi	r5, ip, #0, 8
     6d8:	434f4c5f 	movtmi	r4, #64607	; 0xfc5f
     6dc:	656d004b 	strbvs	r0, [sp, #-75]!	; 0x4b
     6e0:	6568636d 	strbvs	r6, [r8, #-877]!	; 0x36d
     6e4:	632e6b63 	teqvs	lr, #101376	; 0x18c00
     6e8:	4d4f4400 	cfstrdmi	mvd4, [pc, #-0]	; 6f0 <__code_start__-0x7910>
     6ec:	6e616d5f 	mcrvs	13, 3, r6, cr1, cr15, {2}
     6f0:	72656761 	rsbvc	r6, r5, #25427968	; 0x1840000
     6f4:	4d4f4400 	cfstrdmi	mvd4, [pc, #-0]	; 6fc <__code_start__-0x7904>
     6f8:	5f4e4941 	svcpl	0x004e4941
     6fc:	54434553 	strbpl	r4, [r3], #-1363	; 0x553
     700:	004e4f49 	subeq	r4, lr, r9, asr #30
     704:	63617274 	cmnvs	r1, #116, 4	; 0x40000007
     708:	64695f6b 	strbtvs	r5, [r9], #-3947	; 0xf6b
     70c:	73616d00 	cmnvc	r1, #0, 26
     710:	666f5f6b 	strbtvs	r5, [pc], -fp, ror #30
     714:	74657366 	strbtvc	r7, [r5], #-870	; 0x366
     718:	494c4100 	stmdbmi	ip, {r8, lr}^
     71c:	454d4e47 	strbmi	r4, [sp, #-3655]	; 0xe47
     720:	6400544e 	strvs	r5, [r0], #-1102	; 0x44e
     724:	5f727366 	svcpl	0x00727366
     728:	45440074 	strbmi	r0, [r4, #-116]	; 0x74
     72c:	5f475542 	svcpl	0x00475542
     730:	4e455645 	cdpmi	6, 4, cr5, cr5, cr5, {2}
     734:	6f640054 	svcvs	0x00640054
     738:	64695f6d 	strbtvs	r5, [r9], #-3949	; 0xf6d
     73c:	6d656d00 	stclvs	13, cr6, [r5, #-0]
     740:	63656863 	cmnvs	r5, #6488064	; 0x630000
     744:	666f5f6b 	strbtvs	r5, [pc], -fp, ror #30
     748:	6d6d0066 	stclvs	0, cr0, [sp, #-408]!	; 0xfffffe68
     74c:	65725f75 	ldrbvs	r5, [r2, #-3957]!	; 0xf75
     750:	656d7573 	strbvs	r7, [sp, #-1395]!	; 0x573
     754:	6c00705f 	stcvs	0, cr7, [r0], {95}	; 0x5f
     758:	5f747361 	svcpl	0x00747361
     75c:	6c756166 	ldfvse	f6, [r5], #-408	; 0xfffffe68
     760:	657a0074 	ldrbvs	r0, [sl, #-116]!	; 0x74
     764:	54006f72 	strpl	r6, [r0], #-3954	; 0xf72
     768:	534e4152 	movtpl	r4, #57682	; 0xe152
     76c:	4954414c 	ldmdbmi	r4, {r2, r3, r6, r8, lr}^
     770:	535f4e4f 	cmppl	pc, #1264	; 0x4f0
     774:	49544345 	ldmdbmi	r4, {r0, r2, r6, r8, r9, lr}^
     778:	6d004e4f 	stcvs	14, cr4, [r0, #-316]	; 0xfffffec4
     77c:	68636d65 	stmdavs	r3!, {r0, r2, r5, r6, r8, sl, fp, sp, lr}^
     780:	5f6b6365 	svcpl	0x006b6365
     784:	70617274 	rsbvc	r7, r1, r4, ror r2
     788:	616e655f 	cmnvs	lr, pc, asr r5
     78c:	64656c62 	strbtvs	r6, [r5], #-3170	; 0xc62
     790:	4d4f4400 	cfstrdmi	mvd4, [pc, #-0]	; 798 <__code_start__-0x7868>
     794:	696c635f 	stmdbvs	ip!, {r0, r1, r2, r3, r4, r6, r8, r9, sp, lr}^
     798:	00746e65 	rsbseq	r6, r4, r5, ror #28
     79c:	636d656d 	cmnvs	sp, #457179136	; 0x1b400000
     7a0:	6b636568 	blvs	18d9d48 <__bss_end__+0x18cd700>
     7a4:	6172745f 	cmnvs	r2, pc, asr r4
     7a8:	69645f70 	stmdbvs	r4!, {r4, r5, r6, r8, r9, sl, fp, ip, lr}^
     7ac:	6c626173 	stfvse	f6, [r2], #-460	; 0xfffffe34
     7b0:	66640065 	strbtvs	r0, [r4], -r5, rrx
     7b4:	44007273 	strmi	r7, [r0], #-627	; 0x273
     7b8:	725f4d4f 	subsvc	r4, pc, #5056	; 0x13c0
     7bc:	72657365 	rsbvc	r7, r5, #-1811939327	; 0x94000001
     7c0:	00646576 	rsbeq	r6, r4, r6, ror r5
     7c4:	5f545845 	svcpl	0x00545845
     7c8:	5f544241 	svcpl	0x00544241
     7cc:	4e415254 	mcrmi	2, 2, r5, cr1, cr4, {2}
     7d0:	54414c53 	strbpl	r4, [r1], #-3155	; 0xc53
     7d4:	5f4e4f49 	svcpl	0x004e4f49
     7d8:	5f4c564c 	svcpl	0x004c564c
     7dc:	61660032 	cmnvs	r6, r2, lsr r0
     7e0:	5f746c75 	svcpl	0x00746c75
     7e4:	73616572 	cmnvc	r1, #478150656	; 0x1c800000
     7e8:	6d006e6f 	stcvs	14, cr6, [r0, #-444]	; 0xfffffe44
     7ec:	68636d65 	stmdavs	r3!, {r0, r2, r5, r6, r8, sl, fp, sp, lr}^
     7f0:	5f6b6365 	svcpl	0x006b6365
     7f4:	615f6f6e 	cmpvs	pc, lr, ror #30
     7f8:	73656363 	cmnvc	r5, #-1946157055	; 0x8c000001
     7fc:	58450073 	stmdapl	r5, {r0, r1, r4, r5, r6}^
     800:	42415f54 	submi	r5, r1, #84, 30	; 0x150
     804:	52505f54 	subspl	r5, r0, #84, 30	; 0x150
     808:	445f4345 	ldrbmi	r4, [pc], #-837	; 810 <__code_start__-0x77f0>
     80c:	00525045 	subseq	r5, r2, r5, asr #32
     810:	5f4d4f44 	svcpl	0x004d4f44
     814:	615f6f6e 	cmpvs	pc, lr, ror #30
     818:	73656363 	cmnvc	r5, #-1946157055	; 0x8c000001
     81c:	45500073 	ldrbmi	r0, [r0, #-115]	; 0x73
     820:	53494d52 	movtpl	r4, #40274	; 0x9d52
     824:	4e4f4953 	mcrmi	9, 2, r4, cr15, cr3, {2}
     828:	4741505f 	smlsldmi	r5, r1, pc, r0	; <UNPREDICTABLE>
     82c:	61660045 	cmnvs	r6, r5, asr #32
     830:	5f746c75 	svcpl	0x00746c75
     834:	72646461 	rsbvc	r6, r4, #1627389952	; 0x61000000
     838:	494c4100 	stmdbmi	ip, {r8, lr}^
     83c:	454d4e47 	strbmi	r4, [sp, #-3655]	; 0xe47
     840:	445f544e 	ldrbmi	r5, [pc], #-1102	; 848 <__code_start__-0x77b8>
     844:	00525045 	subseq	r5, r2, r5, asr #32
     848:	5f545845 	svcpl	0x00545845
     84c:	5f544241 	svcpl	0x00544241
     850:	4e415254 	mcrmi	2, 2, r5, cr1, cr4, {2}
     854:	54414c53 	strbpl	r4, [r1], #-3155	; 0xc53
     858:	5f4e4f49 	svcpl	0x004e4f49
     85c:	5f4c564c 	svcpl	0x004c564c
     860:	616c0031 	cmnvs	ip, r1, lsr r0
     864:	665f7473 			; <UNDEFINED> instruction: 0x665f7473
     868:	746c7561 	strbtvc	r7, [ip], #-1377	; 0x561
     86c:	7465735f 	strbtvc	r7, [r5], #-863	; 0x35f
     870:	75616600 	strbvc	r6, [r1, #-1536]!	; 0x600
     874:	705f746c 	subsvc	r7, pc, ip, ror #8
     878:	656d0063 	strbvs	r0, [sp, #-99]!	; 0x63
     87c:	6568636d 	strbvs	r6, [r8, #-877]!	; 0x36d
     880:	745f6b63 	ldrbvc	r6, [pc], #-2915	; 888 <__code_start__-0x7778>
     884:	6b636172 	blvs	18d8e54 <__bss_end__+0x18cc80c>
     888:	6b726200 	blvs	1c99090 <__bss_end__+0x1c8ca48>
     88c:	7265765f 	rsbvc	r7, r5, #99614720	; 0x5f00000
     890:	65736f62 	ldrbvs	r6, [r3, #-3938]!	; 0xf62
     894:	6200705f 	andvs	r7, r0, #95	; 0x5f
     898:	5f737469 	svcpl	0x00737469
     89c:	00746567 	rsbseq	r6, r4, r7, ror #10
     8a0:	52504f43 	subspl	r4, r0, #268	; 0x10c
     8a4:	445f434f 	ldrbmi	r4, [pc], #-847	; 8ac <__code_start__-0x7754>
     8a8:	5f415441 	svcpl	0x00415441
     8ac:	00544241 	subseq	r4, r4, r1, asr #4
     8b0:	636d656d 	cmnvs	sp, #457179136	; 0x1b400000
     8b4:	6b636568 	blvs	18d9e5c <__bss_end__+0x18cd814>
     8b8:	6172745f 	cmnvs	r2, pc, asr r4
     8bc:	6e655f70 	mcrvs	15, 3, r5, cr5, cr0, {3}
     8c0:	656c6261 	strbvs	r6, [ip, #-609]!	; 0x261
     8c4:	6d6f6400 	cfstrdvs	mvd6, [pc, #-0]	; 8cc <__code_start__-0x7734>
     8c8:	7265705f 	rsbvc	r7, r5, #95	; 0x5f
     8cc:	65735f6d 	ldrbvs	r5, [r3, #-3949]!	; 0xf6d
     8d0:	616c0074 	smcvs	49156	; 0xc004
     8d4:	665f7473 			; <UNDEFINED> instruction: 0x665f7473
     8d8:	746c7561 	strbtvc	r7, [ip], #-1377	; 0x561
     8dc:	7465675f 	strbtvc	r6, [r5], #-1887	; 0x75f
     8e0:	41525400 	cmpmi	r2, r0, lsl #8
     8e4:	414c534e 	cmpmi	ip, lr, asr #6
     8e8:	4e4f4954 	mcrmi	9, 2, r4, cr15, cr4, {2}
     8ec:	4741505f 	smlsldmi	r5, r1, pc, r0	; <UNPREDICTABLE>
     8f0:	52500045 	subspl	r0, r0, #69	; 0x45
     8f4:	53494345 	movtpl	r4, #37701	; 0x9345
     8f8:	58455f45 	stmdapl	r5, {r0, r2, r6, r8, r9, sl, fp, ip, lr}^
     8fc:	42415f54 	submi	r5, r1, #84, 30	; 0x150
     900:	62730054 	rsbsvs	r0, r3, #84	; 0x54
     904:	00315f7a 	eorseq	r5, r1, sl, ror pc
     908:	5f7a6273 	svcpl	0x007a6273
     90c:	61660032 	cmnvs	r6, r2, lsr r0
     910:	5f746c75 	svcpl	0x00746c75
     914:	65707865 	ldrbvs	r7, [r0, #-2149]!	; 0x865
     918:	64657463 	strbtvs	r7, [r5], #-1123	; 0x463
     91c:	6d656d00 	stclvs	13, cr6, [r5, #-0]
     920:	63656863 	cmnvs	r5, #6488064	; 0x630000
     924:	6f635f6b 	svcvs	0x00635f6b
     928:	6e69746e 	cdpvs	4, 6, cr7, cr9, cr14, {3}
     92c:	615f6575 	cmpvs	pc, r5, ror r5	; <UNPREDICTABLE>
     930:	72657466 	rsbvc	r7, r5, #1711276032	; 0x66000000
     934:	7561665f 	strbvc	r6, [r1, #-1631]!	; 0x65f
     938:	6c00746c 	cfstrsvs	mvf7, [r0], {108}	; 0x6c
     93c:	5f747361 	svcpl	0x00747361
     940:	6c756166 	ldfvse	f6, [r5], #-408	; 0xfffffe68
     944:	00745f74 	rsbseq	r5, r4, r4, ror pc
     948:	41534d50 	cmpmi	r3, r0, asr sp
     94c:	424c545f 	submi	r5, ip, #1593835520	; 0x5f000000
     950:	53494d5f 	movtpl	r4, #40287	; 0x9d5f
     954:	74730053 	ldrbtvc	r0, [r3], #-83	; 0x53
     958:	73757461 	cmnvc	r5, #1627389952	; 0x61000000
     95c:	52455000 	subpl	r5, r5, #0
     960:	5353494d 	cmppl	r3, #1261568	; 0x134000
     964:	5f4e4f49 	svcpl	0x004e4f49
     968:	54434553 	strbpl	r4, [r3], #-1363	; 0x553
     96c:	004e4f49 	subeq	r4, lr, r9, asr #30
     970:	5f6d6f64 	svcpl	0x006d6f64
     974:	6d726570 	cfldr64vs	mvdx6, [r2, #-448]!	; 0xfffffe40
     978:	7465675f 	strbtvc	r6, [r5], #-1887	; 0x75f
     97c:	6d656d00 	stclvs	13, cr6, [r5, #-0]
     980:	63656863 	cmnvs	r5, #6488064	; 0x630000
     984:	616d5f6b 	cmnvs	sp, fp, ror #30
     988:	696c0070 	stmdbvs	ip!, {r4, r5, r6}^
     98c:	682f6362 	stmdavs	pc!, {r1, r5, r6, r8, r9, sp, lr}	; <UNPREDICTABLE>
     990:	2e687361 	cdpcs	3, 6, cr7, cr8, cr1, {3}
     994:	4e470063 	cdpmi	0, 4, cr0, cr7, cr3, {3}
     998:	20432055 	subcs	r2, r3, r5, asr r0
     99c:	2e382e34 	mrccs	14, 1, r2, cr8, cr4, {1}
     9a0:	6d2d2033 	stcvs	0, cr2, [sp, #-204]!	; 0xffffff34
     9a4:	3d757063 	ldclcc	0, cr7, [r5, #-396]!	; 0xfffffe74
     9a8:	316d7261 	cmncc	sp, r1, ror #4
     9ac:	6a363731 	bvs	d8e678 <__bss_end__+0xd82030>
     9b0:	732d667a 	teqvc	sp, #127926272	; 0x7a00000
     9b4:	746d2d20 	strbtvc	r2, [sp], #-3360	; 0xd20
     9b8:	3d656e75 	stclcc	14, cr6, [r5, #-468]!	; 0xfffffe2c
     9bc:	316d7261 	cmncc	sp, r1, ror #4
     9c0:	6a363731 	bvs	d8e68c <__bss_end__+0xd82044>
     9c4:	732d667a 	teqvc	sp, #127926272	; 0x7a00000
     9c8:	67672d20 	strbvs	r2, [r7, -r0, lsr #26]!
     9cc:	2d206264 	sfmcs	f6, 4, [r0, #-400]!	; 0xfffffe70
     9d0:	2d20674f 	stccs	7, cr6, [r0, #-316]!	; 0xfffffec4
     9d4:	3d647473 	cfstrdcc	mvd7, [r4, #-460]!	; 0xfffffe34
     9d8:	39756e67 	ldmdbcc	r5!, {r0, r1, r2, r5, r6, r9, sl, fp, sp, lr}^
     9dc:	662d2039 			; <UNDEFINED> instruction: 0x662d2039
     9e0:	65657266 	strbvs	r7, [r5, #-614]!	; 0x266
     9e4:	6e617473 	mcrvs	4, 3, r7, cr1, cr3, {3}
     9e8:	676e6964 	strbvs	r6, [lr, -r4, ror #18]!
     9ec:	6e697500 	cdpvs	5, 6, cr7, cr9, cr0, {0}
     9f0:	745f3874 	ldrbvc	r3, [pc], #-2164	; 9f8 <__code_start__-0x7608>
     9f4:	73552f00 	cmpvc	r5, #0, 30
     9f8:	2f737265 	svccs	0x00737265
     9fc:	61697262 	cmnvs	r9, r2, ror #4
     a00:	6e756a6e 	vsubvs.f32	s13, s10, s29
     a04:	7365442f 	cmnvc	r5, #788529152	; 0x2f000000
     a08:	706f746b 	rsbvc	r7, pc, fp, ror #8
     a0c:	6863732f 	stmdavs	r3!, {r0, r1, r2, r3, r5, r8, r9, ip, sp, lr}^
     a10:	2f6c6f6f 	svccs	0x006c6f6f
     a14:	69727053 	ldmdbvs	r2!, {r0, r1, r4, r6, ip, sp, lr}^
     a18:	3931676e 	ldmdbcc	r1!, {r1, r2, r3, r5, r6, r8, r9, sl, sp, lr}
     a1c:	432f3032 	teqmi	pc, #50	; 0x32
     a20:	30343253 	eorscc	r3, r4, r3, asr r2
     a24:	632f584c 	teqvs	pc, #76, 16	; 0x4c0000
     a28:	30343273 	eorscc	r3, r4, r3, ror r2
     a2c:	322d786c 	eorcc	r7, sp, #108, 16	; 0x6c0000
     a30:	72707330 	rsbsvc	r7, r0, #48, 6	; 0xc0000000
     a34:	62696c2f 	rsbvs	r6, r9, #12032	; 0x2f00
     a38:	6c006970 	stcvs	9, cr6, [r0], {112}	; 0x70
     a3c:	2f636269 	svccs	0x00636269
     a40:	736d656d 	cmnvc	sp, #457179136	; 0x1b400000
     a44:	632e7465 	teqvs	lr, #1694498816	; 0x65000000
     a48:	675f5f00 	ldrbvs	r5, [pc, -r0, lsl #30]
     a4c:	5f63756e 	svcpl	0x0063756e
     a50:	6c5f6176 	ldfvse	f6, [pc], {118}	; 0x76
     a54:	00747369 	rsbseq	r7, r4, r9, ror #6
     a58:	6362696c 	cmnvs	r2, #108, 18	; 0x1b0000
     a5c:	6972702f 	ldmdbvs	r2!, {r0, r1, r2, r3, r5, ip, sp, lr}^
     a60:	2e6b746e 	cdpcs	4, 6, cr7, cr11, cr14, {3}
     a64:	61760063 	cmnvs	r6, r3, rrx
     a68:	6972705f 	ldmdbvs	r2!, {r0, r1, r2, r3, r4, r6, ip, sp, lr}^
     a6c:	006b746e 	rsbeq	r7, fp, lr, ror #8
     a70:	61765f5f 	cmnvs	r6, pc, asr pc
     a74:	73696c5f 	cmnvc	r9, #24320	; 0x5f00
     a78:	5f5f0074 	svcpl	0x005f0074
     a7c:	75007061 	strvc	r7, [r0, #-97]	; 0x61
     a80:	5f747261 	svcpl	0x00747261
     a84:	63747570 	cmnvs	r4, #112, 10	; 0x1c000000
     a88:	746e6900 	strbtvc	r6, [lr], #-2304	; 0x900
     a8c:	616e7265 	cmnvs	lr, r5, ror #4
     a90:	75705f6c 	ldrbvc	r5, [r0, #-3948]!	; 0xf6c
     a94:	61686374 	smcvs	34356	; 0x8634
     a98:	70720072 	rsbsvc	r0, r2, r2, ror r0
     a9c:	75705f69 	ldrbvc	r5, [r0, #-3945]!	; 0xf69
     aa0:	61686374 	smcvs	34356	; 0x8634
     aa4:	696c0072 	stmdbvs	ip!, {r1, r4, r5, r6}^
     aa8:	702f6362 	eorvc	r6, pc, r2, ror #6
     aac:	68637475 	stmdavs	r3!, {r0, r2, r4, r5, r6, sl, ip, sp, lr}^
     ab0:	632e7261 	teqvs	lr, #268435462	; 0x10000006
     ab4:	69707200 	ldmdbvs	r0!, {r9, ip, sp, lr}^
     ab8:	7465735f 	strbtvc	r7, [r5], #-863	; 0x35f
     abc:	7475705f 	ldrbtvc	r7, [r5], #-95	; 0x5f
     ac0:	696c0063 	stmdbvs	ip!, {r0, r1, r5, r6}^
     ac4:	702f6362 	eorvc	r6, pc, r2, ror #6
     ac8:	2e6b7475 	mcrcs	4, 3, r7, cr11, cr5, {3}
     acc:	6e690063 	cdpvs	0, 6, cr0, cr9, cr3, {3}
     ad0:	6e726574 	mrcvs	5, 3, r6, cr2, cr4, {3}
     ad4:	705f6c61 	subsvc	r6, pc, r1, ror #24
     ad8:	006b7475 	rsbeq	r7, fp, r5, ror r4
     adc:	5f746d66 	svcpl	0x00746d66
     ae0:	72617473 	rsbvc	r7, r1, #1929379840	; 0x73000000
     ae4:	656e0074 	strbvs	r0, [lr, #-116]!	; 0x74
     ae8:	00705f67 	rsbseq	r5, r0, r7, ror #30
     aec:	65766572 	ldrbvs	r6, [r6, #-1394]!	; 0x572
     af0:	00657372 	rsbeq	r7, r5, r2, ror r3
     af4:	69647369 	stmdbvs	r4!, {r0, r3, r5, r6, r8, r9, ip, sp, lr}^
     af8:	00746967 	rsbseq	r6, r4, r7, ror #18
     afc:	73747570 	cmnvc	r4, #112, 10	; 0x1c000000
     b00:	0070665f 	rsbseq	r6, r0, pc, asr r6
     b04:	6e676973 	mcrvs	9, 3, r6, cr7, cr3, {3}
     b08:	705f6465 	subsvc	r6, pc, r5, ror #8
     b0c:	62696c00 	rsbvs	r6, r9, #0, 24
     b10:	61762f63 	cmnvs	r6, r3, ror #30
     b14:	6972702d 	ldmdbvs	r2!, {r0, r2, r3, r5, ip, sp, lr}^
     b18:	2e6b746e 	cdpcs	4, 6, cr7, cr11, cr14, {3}
     b1c:	70720063 	rsbsvc	r0, r2, r3, rrx
     b20:	65735f69 	ldrbvs	r5, [r3, #-3945]!	; 0xf69
     b24:	756f5f74 	strbvc	r5, [pc, #-3956]!	; fffffbb8 <__bss_end__+0xffff3570>
     b28:	74757074 	ldrbtvc	r7, [r5], #-116	; 0x74
     b2c:	64697700 	strbtvs	r7, [r9], #-1792	; 0x700
     b30:	70006874 	andvc	r6, r0, r4, ror r8
     b34:	5f637475 	svcpl	0x00637475
     b38:	65007066 	strvs	r7, [r0, #-102]	; 0x66
     b3c:	0074696d 	rsbseq	r6, r4, sp, ror #18
     b40:	6f626572 	svcvs	0x00626572
     b44:	685f746f 	ldmdavs	pc, {r0, r1, r2, r3, r5, r6, sl, ip, sp, lr}^	; <UNPREDICTABLE>
     b48:	6c646e61 	stclvs	14, cr6, [r4], #-388	; 0xfffffe7c
     b4c:	73007265 	movwvc	r7, #613	; 0x265
     b50:	66666174 			; <UNDEFINED> instruction: 0x66666174
     b54:	6372732d 	cmnvs	r2, #-1275068416	; 0xb4000000
     b58:	656c632f 	strbvs	r6, [ip, #-815]!	; 0x32f
     b5c:	722d6e61 	eorvc	r6, sp, #1552	; 0x610
     b60:	6f6f6265 	svcvs	0x006f6265
     b64:	00632e74 	rsbeq	r2, r3, r4, ror lr
     b68:	5f697072 	svcpl	0x00697072
     b6c:	6f626572 	svcvs	0x00626572
     b70:	6400746f 	strvs	r7, [r0], #-1135	; 0x46f
     b74:	79616c65 	stmdbvc	r1!, {r0, r2, r5, r6, sl, fp, sp, lr}^
     b78:	00736d5f 	rsbseq	r6, r3, pc, asr sp
     b7c:	73625f5f 	cmnvc	r2, #380	; 0x17c
     b80:	74735f73 	ldrbtvc	r5, [r3], #-3955	; 0xf73
     b84:	5f747261 	svcpl	0x00747261
     b88:	5f5f005f 	svcpl	0x005f005f
     b8c:	5f737362 	svcpl	0x00737362
     b90:	5f646e65 	svcpl	0x00646e65
     b94:	7363005f 	cmnvc	r3, #95	; 0x5f
     b98:	74726174 	ldrbtvc	r6, [r2], #-372	; 0x174
     b9c:	6e61685f 	mcrvs	8, 3, r6, cr1, cr15, {2}
     ba0:	72656c64 	rsbvc	r6, r5, #100, 24	; 0x6400
     ba4:	73736200 	cmnvc	r3, #0, 4
     ba8:	646e655f 	strbtvs	r6, [lr], #-1375	; 0x55f
     bac:	73635f00 	cmnvc	r3, #0, 30
     bb0:	74726174 	ldrbtvc	r6, [r2], #-372	; 0x174
     bb4:	61747300 	cmnvs	r4, r0, lsl #6
     bb8:	732d6666 	teqvc	sp, #106954752	; 0x6600000
     bbc:	632f6372 	teqvs	pc, #-939524095	; 0xc8000001
     bc0:	72617473 	rsbvc	r7, r1, #1929379840	; 0x73000000
     bc4:	00632e74 	rsbeq	r2, r3, r4, ror lr
     bc8:	66617473 			; <UNDEFINED> instruction: 0x66617473
     bcc:	72732d66 	rsbsvc	r2, r3, #6528	; 0x1980
     bd0:	65642f63 	strbvs	r2, [r4, #-3939]!	; 0xf63
     bd4:	6c756166 	ldfvse	f6, [r5], #-408	; 0xfffffe68
     bd8:	61682d74 	smcvs	33492	; 0x82d4
     bdc:	656c646e 	strbvs	r6, [ip, #-1134]!	; 0x46e
     be0:	61662d72 	smcvs	25298	; 0x62d2
     be4:	632e7473 	teqvs	lr, #1929379840	; 0x73000000
     be8:	73616600 	cmnvc	r1, #0, 12
     bec:	6e695f74 	mcrvs	15, 3, r5, cr9, cr4, {3}
     bf0:	72726574 	rsbsvc	r6, r2, #116, 10	; 0x1d000000
     bf4:	5f747075 	svcpl	0x00747075
     bf8:	74636576 	strbtvc	r6, [r3], #-1398	; 0x576
     bfc:	7300726f 	movwvc	r7, #623	; 0x26f
     c00:	66666174 			; <UNDEFINED> instruction: 0x66666174
     c04:	6372732d 	cmnvs	r2, #-1275068416	; 0xb4000000
     c08:	6665642f 	strbtvs	r6, [r5], -pc, lsr #8
     c0c:	746c7561 	strbtvc	r7, [ip], #-1377	; 0x561
     c10:	6e61682d 	cdpvs	8, 6, cr6, cr1, cr13, {1}
     c14:	72656c64 	rsbvc	r6, r5, #100, 24	; 0x6400
     c18:	6572702d 	ldrbvs	r7, [r2, #-45]!	; 0x2d
     c1c:	63746566 	cmnvs	r4, #427819008	; 0x19800000
     c20:	00632e68 	rsbeq	r2, r3, r8, ror #28
     c24:	66657270 			; <UNDEFINED> instruction: 0x66657270
     c28:	68637465 	stmdavs	r3!, {r0, r2, r5, r6, sl, ip, sp, lr}^
     c2c:	6f62615f 	svcvs	0x0062615f
     c30:	765f7472 			; <UNDEFINED> instruction: 0x765f7472
     c34:	6f746365 	svcvs	0x00746365
     c38:	65720072 	ldrbvs	r0, [r2, #-114]!	; 0x72
     c3c:	5f746573 	svcpl	0x00746573
     c40:	74636576 	strbtvc	r6, [r3], #-1398	; 0x576
     c44:	7300726f 	movwvc	r7, #623	; 0x26f
     c48:	66666174 			; <UNDEFINED> instruction: 0x66666174
     c4c:	6372732d 	cmnvs	r2, #-1275068416	; 0xb4000000
     c50:	6665642f 	strbtvs	r6, [r5], -pc, lsr #8
     c54:	746c7561 	strbtvc	r7, [ip], #-1377	; 0x561
     c58:	6e61682d 	cdpvs	8, 6, cr6, cr1, cr13, {1}
     c5c:	72656c64 	rsbvc	r6, r5, #100, 24	; 0x6400
     c60:	7365722d 	cmnvc	r5, #-805306366	; 0xd0000002
     c64:	632e7465 	teqvs	lr, #1694498816	; 0x65000000
     c68:	61747300 	cmnvs	r4, r0, lsl #6
     c6c:	732d6666 	teqvc	sp, #106954752	; 0x6600000
     c70:	642f6372 	strtvs	r6, [pc], #-882	; c78 <__code_start__-0x7388>
     c74:	75616665 	strbvc	r6, [r1, #-1637]!	; 0x665
     c78:	682d746c 	stmdavs	sp!, {r2, r3, r5, r6, sl, ip, sp, lr}
     c7c:	6c646e61 	stclvs	14, cr6, [r4], #-388	; 0xfffffe7c
     c80:	752d7265 	strvc	r7, [sp, #-613]!	; 0x265
     c84:	6665646e 	strbtvs	r6, [r5], -lr, ror #8
     c88:	64656e69 	strbtvs	r6, [r5], #-3689	; 0xe69
     c8c:	736e692d 	cmnvc	lr, #737280	; 0xb4000
     c90:	00632e74 	rsbeq	r2, r3, r4, ror lr
     c94:	65646e75 	strbvs	r6, [r4, #-3701]!	; 0xe75
     c98:	656e6966 	strbvs	r6, [lr, #-2406]!	; 0x966
     c9c:	6e695f64 	cdpvs	15, 6, cr5, cr9, cr4, {3}
     ca0:	75727473 	ldrbvc	r7, [r2, #-1139]!	; 0x473
     ca4:	6f697463 	svcvs	0x00697463
     ca8:	65765f6e 	ldrbvs	r5, [r6, #-3950]!	; 0xf6e
     cac:	726f7463 	rsbvc	r7, pc, #1660944384	; 0x63000000
     cb0:	61747300 	cmnvs	r4, r0, lsl #6
     cb4:	732d6666 	teqvc	sp, #106954752	; 0x6600000
     cb8:	642f6372 	strtvs	r6, [pc], #-882	; cc0 <__code_start__-0x7340>
     cbc:	75616665 	strbvc	r6, [r1, #-1637]!	; 0x665
     cc0:	682d746c 	stmdavs	sp!, {r2, r3, r5, r6, sl, ip, sp, lr}
     cc4:	6c646e61 	stclvs	14, cr6, [r4], #-388	; 0xfffffe7c
     cc8:	2e737265 	cdpcs	2, 7, cr7, cr3, cr5, {3}
     ccc:	52490063 	subpl	r0, r9, #99	; 0x63
     cd0:	65705f51 	ldrbvs	r5, [r0, #-3921]!	; 0xf51
     cd4:	6e69646e 	cdpvs	4, 6, cr6, cr9, cr14, {3}
     cd8:	00325f67 	eorseq	r5, r2, r7, ror #30
     cdc:	61736944 	cmnvs	r3, r4, asr #18
     ce0:	5f656c62 	svcpl	0x00656c62
     ce4:	69736142 	ldmdbvs	r3!, {r1, r6, r8, sp, lr}^
     ce8:	52495f63 	subpl	r5, r9, #396	; 0x18c
     cec:	46007351 			; <UNDEFINED> instruction: 0x46007351
     cf0:	635f5149 	cmpvs	pc, #1073741842	; 0x40000012
     cf4:	72746e6f 	rsbsvc	r6, r4, #1776	; 0x6f0
     cf8:	5f006c6f 	svcpl	0x00006c6f
     cfc:	65746e69 	ldrbvs	r6, [r4, #-3689]!	; 0xe69
     d00:	70757272 	rsbsvc	r7, r5, r2, ror r2
     d04:	61745f74 	cmnvs	r4, r4, ror pc
     d08:	00656c62 	rsbeq	r6, r5, r2, ror #24
     d0c:	5f515249 	svcpl	0x00515249
     d10:	69736162 	ldmdbvs	r3!, {r1, r5, r6, r8, sp, lr}^
     d14:	65705f63 	ldrbvs	r5, [r0, #-3939]!	; 0xf63
     d18:	6e69646e 	cdpvs	4, 6, cr6, cr9, cr14, {3}
     d1c:	6e450067 	cdpvs	0, 4, cr0, cr5, cr7, {3}
     d20:	656c6261 	strbvs	r6, [ip, #-609]!	; 0x261
     d24:	7361425f 	cmnvc	r1, #-268435451	; 0xf0000005
     d28:	495f6369 	ldmdbmi	pc, {r0, r3, r5, r6, r8, r9, sp, lr}^	; <UNPREDICTABLE>
     d2c:	00735152 	rsbseq	r5, r3, r2, asr r1
     d30:	62616e45 	rsbvs	r6, r1, #1104	; 0x450
     d34:	495f656c 	ldmdbmi	pc, {r2, r3, r5, r6, r8, sl, sp, lr}^	; <UNPREDICTABLE>
     d38:	5f735152 	svcpl	0x00735152
     d3c:	6e450031 	mcrvs	0, 2, r0, cr5, cr1, {1}
     d40:	656c6261 	strbvs	r6, [ip, #-609]!	; 0x261
     d44:	5152495f 	cmppl	r2, pc, asr r9
     d48:	00325f73 	eorseq	r5, r2, r3, ror pc
     d4c:	746e695f 	strbtvc	r6, [lr], #-2399	; 0x95f
     d50:	75727265 	ldrbvc	r7, [r2, #-613]!	; 0x265
     d54:	745f7470 	ldrbvc	r7, [pc], #-1136	; d5c <__code_start__-0x72a4>
     d58:	656c6261 	strbvs	r6, [ip, #-609]!	; 0x261
     d5c:	646e655f 	strbtvs	r6, [lr], #-1375	; 0x55f
     d60:	76656400 	strbtvc	r6, [r5], -r0, lsl #8
     d64:	7261625f 	rsbvc	r6, r1, #-268435451	; 0xf0000005
     d68:	72656972 	rsbvc	r6, r5, #1867776	; 0x1c8000
     d6c:	61747300 	cmnvs	r4, r0, lsl #6
     d70:	732d6666 	teqvc	sp, #106954752	; 0x6600000
     d74:	692f6372 	stmdbvs	pc!, {r1, r4, r5, r6, r8, r9, sp, lr}	; <UNPREDICTABLE>
     d78:	7265746e 	rsbvc	r7, r5, #1845493760	; 0x6e000000
     d7c:	74707572 	ldrbtvc	r7, [r0], #-1394	; 0x572
     d80:	2e632d73 	mcrcs	13, 3, r2, cr3, cr3, {3}
     d84:	52490063 	subpl	r0, r9, #99	; 0x63
     d88:	61425f51 	cmpvs	r2, r1, asr pc
     d8c:	50006573 	andpl	r6, r0, r3, ror r5
     d90:	32335455 	eorscc	r5, r3, #1426063360	; 0x55000000
     d94:	73694400 	cmnvc	r9, #0, 8
     d98:	656c6261 	strbvs	r6, [ip, #-609]!	; 0x261
     d9c:	5152495f 	cmppl	r2, pc, asr r9
     da0:	00315f73 	eorseq	r5, r1, r3, ror pc
     da4:	61736944 	cmnvs	r3, r4, asr #18
     da8:	5f656c62 	svcpl	0x00656c62
     dac:	73515249 	cmpvc	r1, #-1879048188	; 0x90000004
     db0:	4900325f 	stmdbmi	r0, {r0, r1, r2, r3, r4, r6, r9, ip, sp}
     db4:	705f5152 	subsvc	r5, pc, r2, asr r1	; <UNPREDICTABLE>
     db8:	69646e65 	stmdbvs	r4!, {r0, r2, r5, r6, r9, sl, fp, sp, lr}^
     dbc:	315f676e 	cmpcc	pc, lr, ror #14
     dc0:	5f746100 	svcpl	0x00746100
     dc4:	72657375 	rsbvc	r7, r5, #-738197503	; 0xd4000001
     dc8:	76656c5f 			; <UNDEFINED> instruction: 0x76656c5f
     dcc:	73006c65 	movwvc	r6, #3173	; 0xc65
     dd0:	66666174 			; <UNDEFINED> instruction: 0x66666174
     dd4:	6372732d 	cmnvs	r2, #-1275068416	; 0xb4000000
     dd8:	6265722f 	rsbvs	r7, r5, #-268435454	; 0xf0000002
     ddc:	2e746f6f 	cdpcs	15, 7, cr6, cr4, cr15, {3}
     de0:	4d500063 	ldclmi	0, cr0, [r0, #-396]	; 0xfffffe74
     de4:	5453525f 	ldrbpl	r5, [r3], #-607	; 0x25f
     de8:	52575f43 	subspl	r5, r7, #268	; 0x10c
     dec:	5f474643 	svcpl	0x00474643
     df0:	4c4c5546 	cfstr64mi	mvdx5, [ip], {70}	; 0x46
     df4:	5345525f 	movtpl	r5, #21087	; 0x525f
     df8:	50005445 	andpl	r5, r0, r5, asr #8
     dfc:	44575f4d 	ldrbmi	r5, [r7], #-3917	; 0xf4d
     e00:	7300474f 	movwvc	r4, #1871	; 0x74f
     e04:	755f7465 	ldrbvc	r7, [pc, #-1125]	; 9a7 <__code_start__-0x7659>
     e08:	5f726573 	svcpl	0x00726573
     e0c:	6576656c 	ldrbvs	r6, [r6, #-1388]!	; 0x56c
     e10:	4d50006c 	ldclmi	0, cr0, [r0, #-432]	; 0xfffffe50
     e14:	5341505f 	movtpl	r5, #4191	; 0x105f
     e18:	524f5753 	subpl	r5, pc, #21757952	; 0x14c0000
     e1c:	4d500044 	ldclmi	0, cr0, [r0, #-272]	; 0xfffffef0
     e20:	5453525f 	ldrbpl	r5, [r3], #-607	; 0x25f
     e24:	70630043 	rsbvc	r0, r3, r3, asr #32
     e28:	74007273 	strvc	r7, [r0], #-627	; 0x273
     e2c:	72656d69 	rsbvc	r6, r5, #6720	; 0x1a40
     e30:	7465675f 	strbtvc	r6, [r5], #-1887	; 0x75f
     e34:	6573755f 	ldrbvs	r7, [r3, #-1375]!	; 0x55f
     e38:	61725f63 	cmnvs	r2, r3, ror #30
     e3c:	65640077 	strbvs	r0, [r4, #-119]!	; 0x77
     e40:	5f79616c 	svcpl	0x0079616c
     e44:	00636573 	rsbeq	r6, r3, r3, ror r5
     e48:	66617473 			; <UNDEFINED> instruction: 0x66617473
     e4c:	72732d66 	rsbsvc	r2, r3, #6528	; 0x1980
     e50:	69742f63 	ldmdbvs	r4!, {r0, r1, r5, r6, r8, r9, sl, fp, sp}^
     e54:	2e72656d 	cdpcs	5, 7, cr6, cr2, cr13, {3}
     e58:	45470063 	strbmi	r0, [r7, #-99]	; 0x63
     e5c:	00323354 	eorseq	r3, r2, r4, asr r3
     e60:	6b636974 	blvs	18db438 <__bss_end__+0x18cedf0>
     e64:	65640073 	strbvs	r0, [r4, #-115]!	; 0x73
     e68:	5f79616c 	svcpl	0x0079616c
     e6c:	6c637963 	stclvs	9, cr7, [r3], #-396	; 0xfffffe74
     e70:	64007365 	strvs	r7, [r0], #-869	; 0x365
     e74:	79616c65 	stmdbvc	r1!, {r0, r2, r5, r6, sl, fp, sp, lr}^
     e78:	0073755f 	rsbseq	r7, r3, pc, asr r5
     e7c:	656d6974 	strbvs	r6, [sp, #-2420]!	; 0x974
     e80:	65675f72 	strbvs	r5, [r7, #-3954]!	; 0xf72
     e84:	73755f74 	cmnvc	r5, #116, 30	; 0x1d0
     e88:	5f006365 	svcpl	0x00006365
     e8c:	5f6f7364 	svcpl	0x006f7364
     e90:	646e6168 	strbtvs	r6, [lr], #-360	; 0x168
     e94:	5f00656c 	svcpl	0x0000656c
     e98:	657a6973 	ldrbvs	r6, [sl, #-2419]!	; 0x973
     e9c:	61725f00 	cmnvs	r2, r0, lsl #30
     ea0:	3834646e 	ldmdacc	r4!, {r1, r2, r3, r5, r6, sl, sp, lr}
     ea4:	6d655f00 	stclvs	15, cr5, [r5, #-0]
     ea8:	65677265 	strbvs	r7, [r7, #-613]!	; 0x265
     eac:	0079636e 	rsbseq	r6, r9, lr, ror #6
     eb0:	74726175 	ldrbtvc	r6, [r2], #-373	; 0x175
     eb4:	696e695f 	stmdbvs	lr!, {r0, r1, r2, r3, r4, r6, r8, fp, sp, lr}^
     eb8:	775f0074 			; <UNDEFINED> instruction: 0x775f0074
     ebc:	6f747263 	svcvs	0x00747263
     ec0:	735f626d 	cmpvc	pc, #-805306362	; 0xd0000006
     ec4:	65746174 	ldrbvs	r6, [r4, #-372]!	; 0x174
     ec8:	63775f00 	cmnvs	r7, #0, 30
     ecc:	6f747273 	svcvs	0x00747273
     ed0:	5f73626d 	svcpl	0x0073626d
     ed4:	74617473 	strbtvc	r7, [r1], #-1139	; 0x473
     ed8:	6c5f0065 	mrrcvs	0, 6, r0, pc, cr5	; <UNPREDICTABLE>
     edc:	69736662 	ldmdbvs	r3!, {r1, r5, r6, r9, sl, sp, lr}^
     ee0:	4700657a 	smlsdxmi	r0, sl, r5, r6
     ee4:	5f4f4950 	svcpl	0x004f4950
     ee8:	434e5546 	movtmi	r5, #58694	; 0xe546
     eec:	504e495f 	subpl	r4, lr, pc, asr r9
     ef0:	5f005455 	svcpl	0x00005455
     ef4:	7472626d 	ldrbtvc	r6, [r2], #-621	; 0x26d
     ef8:	5f63776f 	svcpl	0x0063776f
     efc:	74617473 	strbtvc	r7, [r1], #-1139	; 0x473
     f00:	775f0065 	ldrbvc	r0, [pc, -r5, rrx]
     f04:	6d6f7463 	cfstrdvs	mvd7, [pc, #-396]!	; d80 <__code_start__-0x7280>
     f08:	74735f62 	ldrbtvc	r5, [r3], #-3938	; 0xf62
     f0c:	00657461 	rsbeq	r7, r5, r1, ror #8
     f10:	6d745f5f 	ldclvs	15, cr5, [r4, #-380]!	; 0xfffffe84
     f14:	6365735f 	cmnvs	r5, #2080374785	; 0x7c000001
     f18:	61747300 	cmnvs	r4, r0, lsl #6
     f1c:	755f0074 	ldrbvc	r0, [pc, #-116]	; eb0 <__code_start__-0x7150>
     f20:	00667562 	rsbeq	r7, r6, r2, ror #10
     f24:	4f495047 	svcmi	0x00495047
     f28:	4e55465f 	mrcmi	6, 2, r4, cr5, cr15, {2}
     f2c:	4c415f43 	mcrrmi	15, 4, r5, r1, cr3
     f30:	5f003154 	svcpl	0x00003154
     f34:	65736162 	ldrbvs	r6, [r3, #-354]!	; 0x162
     f38:	746e6300 	strbtvc	r6, [lr], #-768	; 0x300
     f3c:	5f5f006c 	svcpl	0x005f006c
     f40:	685f6d74 	ldmdavs	pc, {r2, r4, r5, r6, r8, sl, fp, sp, lr}^	; <UNPREDICTABLE>
     f44:	0072756f 	rsbseq	r7, r2, pc, ror #10
     f48:	66735f5f 	uhsaxvs	r5, r3, pc	; <UNPREDICTABLE>
     f4c:	6e6f5f00 	cdpvs	15, 6, cr5, cr15, cr0, {0}
     f50:	6978655f 	ldmdbvs	r8!, {r0, r1, r2, r3, r4, r6, r8, sl, sp, lr}^
     f54:	72615f74 	rsbvc	r5, r1, #116, 30	; 0x1d0
     f58:	5f007367 	svcpl	0x00007367
     f5c:	6b6f6f63 	blvs	1bdccf0 <__bss_end__+0x1bd06a8>
     f60:	5f006569 	svcpl	0x00006569
     f64:	6c67735f 	stclvs	3, cr7, [r7], #-380	; 0xfffffe84
     f68:	5f006575 	svcpl	0x00006575
     f6c:	67616c66 	strbvs	r6, [r1, -r6, ror #24]!
     f70:	695f0073 	ldmdbvs	pc, {r0, r1, r4, r5, r6}^	; <UNPREDICTABLE>
     f74:	78635f73 	stmdavc	r3!, {r0, r1, r4, r5, r6, r8, r9, sl, fp, ip, lr}^
     f78:	735f0061 	cmpvc	pc, #97	; 0x61
     f7c:	6e696474 	mcrvs	4, 3, r6, cr9, cr4, {3}
     f80:	6c625f00 	stclvs	15, cr5, [r2], #-0
     f84:	7a69736b 	bvc	1a5dd38 <__bss_end__+0x1a516f0>
     f88:	61750065 	cmnvs	r5, r5, rrx
     f8c:	632e7472 	teqvs	lr, #1912602624	; 0x72000000
     f90:	78756100 	ldmdavc	r5!, {r8, sp, lr}^
     f94:	7265705f 	rsbvc	r7, r5, #95	; 0x5f
     f98:	73687069 	cmnvc	r8, #105	; 0x69
     f9c:	76635f00 	strbtvc	r5, [r3], -r0, lsl #30
     fa0:	66756274 			; <UNDEFINED> instruction: 0x66756274
     fa4:	6f682f00 	svcvs	0x00682f00
     fa8:	652f656d 	strvs	r6, [pc, #-1389]!	; a43 <__code_start__-0x75bd>
     fac:	656c676e 	strbvs	r6, [ip, #-1902]!	; 0x76e
     fb0:	6c632f72 	stclvs	15, cr2, [r3], #-456	; 0xfffffe38
     fb4:	2f737361 	svccs	0x00737361
     fb8:	34327363 	ldrtcc	r7, [r2], #-867	; 0x363
     fbc:	2d786c30 	ldclcs	12, cr6, [r8, #-192]!	; 0xffffff40
     fc0:	70733032 	rsbsvc	r3, r3, r2, lsr r0
     fc4:	696c2f72 	stmdbvs	ip!, {r1, r4, r5, r6, r8, r9, sl, fp, sp}^
     fc8:	2f697062 	svccs	0x00697062
     fcc:	66617473 			; <UNDEFINED> instruction: 0x66617473
     fd0:	72702d66 	rsbsvc	r2, r0, #6528	; 0x1980
     fd4:	74617669 	strbtvc	r7, [r1], #-1641	; 0x669
     fd8:	6d5f0065 	ldclvs	0, cr0, [pc, #-404]	; e4c <__code_start__-0x71b4>
     fdc:	74727362 	ldrbtvc	r7, [r2], #-866	; 0x362
     fe0:	7363776f 	cmnvc	r3, #29097984	; 0x1bc0000
     fe4:	6174735f 	cmnvs	r4, pc, asr r3
     fe8:	5f006574 	svcpl	0x00006574
     fec:	6c72626d 	lfmvs	f6, 2, [r2], #-436	; 0xfffffe4c
     ff0:	735f6e65 	cmpvc	pc, #1616	; 0x650
     ff4:	65746174 	ldrbvs	r6, [r4, #-372]!	; 0x174
     ff8:	6e665f00 	cdpvs	15, 6, cr5, cr6, cr0, {0}
     ffc:	73677261 	cmnvc	r7, #268435462	; 0x10000006
    1000:	78756100 	ldmdavc	r5!, {r8, sp, lr}^
    1004:	616e655f 	cmnvs	lr, pc, asr r5
    1008:	73656c62 	cmnvc	r5, #25088	; 0x6200
    100c:	6e665f00 	cdpvs	15, 6, cr5, cr6, cr0, {0}
    1010:	735f0073 	cmpvc	pc, #115	; 0x73
    1014:	006e6769 	rsbeq	r6, lr, r9, ror #14
    1018:	74726175 	ldrbtvc	r6, [r2], #-373	; 0x175
    101c:	6e61635f 	mcrvs	3, 3, r6, cr1, cr15, {2}
    1020:	7475705f 	ldrbtvc	r7, [r5], #-95	; 0x5f
    1024:	665f0063 	ldrbvs	r0, [pc], -r3, rrx
    1028:	6b636f6c 	blvs	18dcde0 <__bss_end__+0x18d0798>
    102c:	5f00745f 	svcpl	0x0000745f
    1030:	65647473 	strbvs	r7, [r4, #-1139]!	; 0x473
    1034:	5f007272 	svcpl	0x00007272
    1038:	69676942 	stmdbvs	r7!, {r1, r6, r8, fp, sp, lr}^
    103c:	5f00746e 	svcpl	0x0000746e
    1040:	6d6d6167 	stfvse	f6, [sp, #-412]!	; 0xfffffe64
    1044:	69735f61 	ldmdbvs	r3!, {r0, r5, r6, r8, r9, sl, fp, ip, lr}^
    1048:	61676e67 	cmnvs	r7, r7, ror #28
    104c:	725f006d 	subsvc	r0, pc, #109	; 0x6d
    1050:	6c757365 	ldclvs	3, cr7, [r5], #-404	; 0xfffffe6c
    1054:	006b5f74 	rsbeq	r5, fp, r4, ror pc
    1058:	6d745f5f 	ldclvs	15, cr5, [r4, #-380]!	; 0xfffffe84
    105c:	775f5f00 	ldrbvc	r5, [pc, -r0, lsl #30]
    1060:	00626863 	rsbeq	r6, r2, r3, ror #16
    1064:	74726175 	ldrbtvc	r6, [r2], #-373	; 0x175
    1068:	7465675f 	strbtvc	r6, [r5], #-1887	; 0x75f
    106c:	735f0063 	cmpvc	pc, #99	; 0x63
    1070:	756f6474 	strbvc	r6, [pc, #-1140]!	; c04 <__code_start__-0x73fc>
    1074:	635f0074 	cmpvs	pc, #116	; 0x74
    1078:	656c7476 	strbvs	r7, [ip, #-1142]!	; 0x476
    107c:	665f006e 	ldrbvs	r0, [pc], -lr, rrx
    1080:	00656c69 	rsbeq	r6, r5, r9, ror #24
    1084:	6f696e5f 	svcvs	0x00696e5f
    1088:	5f007362 	svcpl	0x00007362
    108c:	78657461 	stmdavc	r5!, {r0, r5, r6, sl, ip, sp, lr}^
    1090:	00307469 	eorseq	r7, r0, r9, ror #8
    1094:	6769735f 			; <UNDEFINED> instruction: 0x6769735f
    1098:	5f6c616e 	svcpl	0x006c616e
    109c:	00667562 	rsbeq	r7, r6, r2, ror #10
    10a0:	6373615f 	cmnvs	r3, #-1073741801	; 0xc0000017
    10a4:	656d6974 	strbvs	r6, [sp, #-2420]!	; 0x974
    10a8:	6675625f 			; <UNDEFINED> instruction: 0x6675625f
    10ac:	65725f00 	ldrbvs	r5, [r2, #-3840]!	; 0xf00
    10b0:	746c7573 	strbtvc	r7, [ip], #-1395	; 0x573
    10b4:	775f5f00 	ldrbvc	r5, [pc, -r0, lsl #30]
    10b8:	47006863 	strmi	r6, [r0, -r3, ror #16]
    10bc:	5f4f4950 	svcpl	0x004f4950
    10c0:	434e5546 	movtmi	r5, #58694	; 0xe546
    10c4:	544c415f 	strbpl	r4, [ip], #-351	; 0x15f
    10c8:	69770032 	ldmdbvs	r7!, {r1, r4, r5}^
    10cc:	745f746e 	ldrbvc	r7, [pc], #-1134	; 10d4 <__code_start__-0x6f2c>
    10d0:	6c665f00 	stclvs	15, cr5, [r6], #-0
    10d4:	32736761 	rsbscc	r6, r3, #25427968	; 0x1840000
    10d8:	745f5f00 	ldrbvc	r5, [pc], #-3840	; 10e0 <__code_start__-0x6f20>
    10dc:	65795f6d 	ldrbvs	r5, [r9, #-3949]!	; 0xf6d
    10e0:	67007261 	strvs	r7, [r0, -r1, ror #4]
    10e4:	5f6f6970 	svcpl	0x006f6970
    10e8:	5f746573 	svcpl	0x00746573
    10ec:	636e7566 	cmnvs	lr, #427819008	; 0x19800000
    10f0:	6e6f6974 	mcrvs	9, 3, r6, cr15, cr4, {3}
    10f4:	656e5f00 	strbvs	r5, [lr, #-3840]!	; 0xf00
    10f8:	00667478 	rsbeq	r7, r6, r8, ror r4
    10fc:	6d745f5f 	ldclvs	15, cr5, [r4, #-380]!	; 0xfffffe84
    1100:	6e6f6d5f 	mcrvs	13, 3, r6, cr15, cr15, {2}
    1104:	74615f00 	strbtvc	r5, [r1], #-3840	; 0xf00
    1108:	74697865 	strbtvc	r7, [r9], #-2149	; 0x865
    110c:	735f5f00 	cmpvc	pc, #0, 30
    1110:	69646964 	stmdbvs	r4!, {r2, r5, r6, r8, fp, sp, lr}^
    1114:	0074696e 	rsbseq	r6, r4, lr, ror #18
    1118:	66666f5f 	uqsaxvs	r6, r6, pc	; <UNPREDICTABLE>
    111c:	7500745f 	strvc	r7, [r0, #-1119]	; 0x45f
    1120:	00747261 	rsbseq	r7, r4, r1, ror #4
    1124:	6572665f 	ldrbvs	r6, [r2, #-1631]!	; 0x65f
    1128:	73696c65 	cmnvc	r9, #25856	; 0x6500
    112c:	4c5f0074 	mrrcmi	0, 7, r0, pc, cr4	; <UNPREDICTABLE>
    1130:	5f4b434f 	svcpl	0x004b434f
    1134:	55434552 	strbpl	r4, [r3, #-1362]	; 0x552
    1138:	56495352 			; <UNDEFINED> instruction: 0x56495352
    113c:	00545f45 	subseq	r5, r4, r5, asr #30
    1140:	77656e5f 			; <UNDEFINED> instruction: 0x77656e5f
    1144:	5f685f00 	svcpl	0x00685f00
    1148:	6e727265 	cdpvs	2, 7, cr7, cr2, cr5, {3}
    114c:	5f5f006f 	svcpl	0x005f006f
    1150:	795f6d74 	ldmdbvc	pc, {r2, r4, r5, r6, r8, sl, fp, sp, lr}^	; <UNPREDICTABLE>
    1154:	00796164 	rsbseq	r6, r9, r4, ror #2
    1158:	62735f5f 	rsbsvs	r5, r3, #380	; 0x17c
    115c:	5f006675 	svcpl	0x00006675
    1160:	73626f69 	cmnvc	r2, #420	; 0x1a4
    1164:	465f5f00 	ldrbmi	r5, [pc], -r0, lsl #30
    1168:	00454c49 	subeq	r4, r5, r9, asr #24
    116c:	73626d5f 	cmnvc	r2, #6080	; 0x17c0
    1170:	65746174 	ldrbvs	r6, [r4, #-372]!	; 0x174
    1174:	5f00745f 	svcpl	0x0000745f
    1178:	4946735f 	stmdbmi	r6, {r0, r1, r2, r3, r4, r6, r8, r9, ip, sp, lr}^
    117c:	5f00454c 	svcpl	0x0000454c
    1180:	7473626d 	ldrbtvc	r6, [r3], #-621	; 0x26d
    1184:	00657461 	rsbeq	r7, r5, r1, ror #8
    1188:	6e61725f 	mcrvs	2, 3, r7, cr1, cr15, {2}
    118c:	656e5f64 	strbvs	r5, [lr, #-3940]!	; 0xf64
    1190:	5f007478 	svcpl	0x00007478
    1194:	656c626d 	strbvs	r6, [ip, #-621]!	; 0x26d
    1198:	74735f6e 	ldrbtvc	r5, [r3], #-3950	; 0xf6e
    119c:	00657461 	rsbeq	r7, r5, r1, ror #8
    11a0:	636e695f 	cmnvs	lr, #1556480	; 0x17c000
    11a4:	6e695f00 	cdpvs	15, 6, cr5, cr9, cr0, {0}
    11a8:	635f0064 	cmpvs	pc, #100	; 0x64
    11ac:	65727275 	ldrbvs	r7, [r2, #-629]!	; 0x275
    11b0:	6c5f746e 	cfldrdvs	mvd7, [pc], {110}	; 0x6e
    11b4:	6c61636f 	stclvs	3, cr6, [r1], #-444	; 0xfffffe44
    11b8:	5f5f0065 	svcpl	0x005f0065
    11bc:	61656c63 	cmnvs	r5, r3, ror #24
    11c0:	0070756e 	rsbseq	r7, r0, lr, ror #10
    11c4:	78616d5f 	stmdavc	r1!, {r0, r1, r2, r3, r4, r6, r8, sl, fp, sp, lr}^
    11c8:	00736477 	rsbseq	r6, r3, r7, ror r4
    11cc:	6565725f 	strbvs	r7, [r5, #-607]!	; 0x25f
    11d0:	5f00746e 	svcpl	0x0000746e
    11d4:	64656573 	strbtvs	r6, [r5], #-1395	; 0x573
    11d8:	635f5f00 	cmpvs	pc, #0, 30
    11dc:	746e756f 	strbtvc	r7, [lr], #-1391	; 0x56f
    11e0:	765f5f00 	ldrbvc	r5, [pc], -r0, lsl #30
    11e4:	65756c61 	ldrbvs	r6, [r5, #-3169]!	; 0xc61
    11e8:	65735f00 	ldrbvs	r5, [r3, #-3840]!	; 0xf00
    11ec:	62006b65 	andvs	r6, r0, #103424	; 0x19400
    11f0:	00647561 	rsbeq	r7, r4, r1, ror #10
    11f4:	6f70665f 	svcvs	0x0070665f
    11f8:	00745f73 	rsbseq	r5, r4, r3, ror pc
    11fc:	6d745f5f 	ldclvs	15, cr5, [r4, #-380]!	; 0xfffffe84
    1200:	6e696d5f 	mcrvs	13, 3, r6, cr9, cr15, {2}
    1204:	72637300 	rsbvc	r7, r3, #0, 6
    1208:	68637461 	stmdavs	r3!, {r0, r5, r6, sl, ip, sp, lr}^
    120c:	756d5f00 	strbvc	r5, [sp, #-3840]!	; 0xf00
    1210:	4700746c 	strmi	r7, [r0, -ip, ror #8]
    1214:	4320554e 	teqmi	r0, #327155712	; 0x13800000
    1218:	36203939 			; <UNDEFINED> instruction: 0x36203939
    121c:	312e332e 	teqcc	lr, lr, lsr #6
    1220:	31303220 	teqcc	r0, r0, lsr #4
    1224:	32363037 	eorscc	r3, r6, #55	; 0x37
    1228:	6d2d2030 	stcvs	0, cr2, [sp, #-192]!	; 0xffffff40
    122c:	3d757063 	ldclcc	0, cr7, [r5, #-396]!	; 0xfffffe74
    1230:	316d7261 	cmncc	sp, r1, ror #4
    1234:	6a363731 	bvs	d8ef00 <__bss_end__+0xd828b8>
    1238:	732d667a 	teqvc	sp, #127926272	; 0x7a00000
    123c:	746d2d20 	strbtvc	r2, [sp], #-3360	; 0xd20
    1240:	3d656e75 	stclcc	14, cr6, [r5, #-468]!	; 0xfffffe2c
    1244:	316d7261 	cmncc	sp, r1, ror #4
    1248:	6a363731 	bvs	d8ef14 <__bss_end__+0xd828cc>
    124c:	732d667a 	teqvc	sp, #127926272	; 0x7a00000
    1250:	67672d20 	strbvs	r2, [r7, -r0, lsr #26]!
    1254:	2d206264 	sfmcs	f6, 4, [r0, #-400]!	; 0xfffffe70
    1258:	2d20674f 	stccs	7, cr6, [r0, #-316]!	; 0xfffffec4
    125c:	3d647473 	cfstrdcc	mvd7, [r4, #-460]!	; 0xfffffe34
    1260:	39756e67 	ldmdbcc	r5!, {r0, r1, r2, r5, r6, r9, sl, fp, sp, lr}^
    1264:	662d2039 			; <UNDEFINED> instruction: 0x662d2039
    1268:	65657266 	strbvs	r7, [r5, #-614]!	; 0x266
    126c:	6e617473 	mcrvs	4, 3, r7, cr1, cr3, {3}
    1270:	676e6964 	strbvs	r6, [lr, -r4, ror #18]!
    1274:	74735f00 	ldrbtvc	r5, [r3], #-3840	; 0xf00
    1278:	6b6f7472 	blvs	1bde448 <__bss_end__+0x1bd1e00>
    127c:	73616c5f 	cmnvc	r1, #24320	; 0x5f00
    1280:	665f0074 			; <UNDEFINED> instruction: 0x665f0074
    1284:	7079746e 	rsbsvc	r7, r9, lr, ror #8
    1288:	5f007365 	svcpl	0x00007365
    128c:	00646461 	rsbeq	r6, r4, r1, ror #8
    1290:	4c555f5f 	mrrcmi	15, 5, r5, r5, cr15	; <UNPREDICTABLE>
    1294:	00676e6f 	rsbeq	r6, r7, pc, ror #28
    1298:	7465675f 	strbtvc	r6, [r5], #-1887	; 0x75f
    129c:	65746164 	ldrbvs	r6, [r4, #-356]!	; 0x164
    12a0:	7272655f 	rsbsvc	r6, r2, #398458880	; 0x17c00000
    12a4:	6c675f00 	stclvs	15, cr5, [r7], #-0
    12a8:	6c61626f 	sfmvs	f6, 2, [r1], #-444	; 0xfffffe44
    12ac:	706d695f 	rsbvc	r6, sp, pc, asr r9
    12b0:	5f657275 	svcpl	0x00657275
    12b4:	00727470 	rsbseq	r7, r2, r0, ror r4
    12b8:	7275635f 	rsbsvc	r6, r5, #2080374785	; 0x7c000001
    12bc:	746e6572 	strbtvc	r6, [lr], #-1394	; 0x572
    12c0:	7461635f 	strbtvc	r6, [r1], #-863	; 0x35f
    12c4:	726f6765 	rsbvc	r6, pc, #26476544	; 0x1940000
    12c8:	755f0079 	ldrbvc	r0, [pc, #-121]	; 1257 <__code_start__-0x6da9>
    12cc:	6573756e 	ldrbvs	r7, [r3, #-1390]!	; 0x56e
    12d0:	61725f64 	cmnvs	r2, r4, ror #30
    12d4:	5f00646e 	svcpl	0x0000646e
    12d8:	00736477 	rsbseq	r6, r3, r7, ror r4
    12dc:	6d745f5f 	ldclvs	15, cr5, [r4, #-380]!	; 0xfffffe84
    12e0:	6164775f 	cmnvs	r4, pc, asr r7
    12e4:	675f0079 			; <UNDEFINED> instruction: 0x675f0079
    12e8:	0065756c 	rsbeq	r7, r5, ip, ror #10
    12ec:	4f495047 	svcmi	0x00495047
    12f0:	4e55465f 	mrcmi	6, 2, r4, cr5, cr15, {2}
    12f4:	554f5f43 	strbpl	r5, [pc, #-3907]	; 3b9 <__code_start__-0x7c47>
    12f8:	54555054 	ldrbpl	r5, [r5], #-84	; 0x54
    12fc:	6d6e5f00 	stclvs	15, cr5, [lr, #-0]
    1300:	6f6c6c61 	svcvs	0x006c6c61
    1304:	6c5f0063 	mrrcvs	0, 6, r0, pc, cr3	; <UNPREDICTABLE>
    1308:	5f613436 	svcpl	0x00613436
    130c:	00667562 	rsbeq	r7, r6, r2, ror #10
    1310:	33746567 	cmncc	r4, #432013312	; 0x19c00000
    1314:	61750032 	cmnvs	r5, r2, lsr r0
    1318:	635f7472 	cmpvs	pc, #1912602624	; 0x72000000
    131c:	675f6e61 	ldrbvs	r6, [pc, -r1, ror #28]
    1320:	00637465 	rsbeq	r7, r3, r5, ror #8
    1324:	6769735f 			; <UNDEFINED> instruction: 0x6769735f
    1328:	6e75665f 	mrcvs	6, 3, r6, cr5, cr15, {2}
    132c:	726f0063 	rsbvc	r0, pc, #99	; 0x63
    1330:	336e695f 	cmncc	lr, #1556480	; 0x17c000
    1334:	61750032 	cmnvs	r5, r2, lsr r0
    1338:	685f7472 	ldmdavs	pc, {r1, r4, r5, r6, sl, ip, sp, lr}^	; <UNPREDICTABLE>
    133c:	645f7361 	ldrbvs	r7, [pc], #-865	; 1344 <__code_start__-0x6cbc>
    1340:	00617461 	rsbeq	r7, r1, r1, ror #8
    1344:	4f495047 	svcmi	0x00495047
    1348:	4e55465f 	mrcmi	6, 2, r4, cr5, cr15, {2}
    134c:	4c415f43 	mcrrmi	15, 4, r5, r1, cr3
    1350:	5f003054 	svcpl	0x00003054
    1354:	6675626e 	ldrbtvs	r6, [r5], -lr, ror #4
    1358:	6e755f00 	cdpvs	15, 7, cr5, cr5, cr0, {0}
    135c:	64657375 	strbtvs	r7, [r5], #-885	; 0x375
    1360:	49504700 	ldmdbmi	r0, {r8, r9, sl, lr}^
    1364:	55465f4f 	strbpl	r5, [r6, #-3919]	; 0xf4f
    1368:	415f434e 	cmpmi	pc, lr, asr #6
    136c:	0033544c 	eorseq	r5, r3, ip, asr #8
    1370:	4f495047 	svcmi	0x00495047
    1374:	4e55465f 	mrcmi	6, 2, r4, cr5, cr15, {2}
    1378:	4c415f43 	mcrrmi	15, 4, r5, r1, cr3
    137c:	47003454 	smlsdmi	r0, r4, r4, r3
    1380:	5f4f4950 	svcpl	0x004f4950
    1384:	434e5546 	movtmi	r5, #58694	; 0xe546
    1388:	544c415f 	strbpl	r4, [ip], #-351	; 0x15f
    138c:	5f5f0035 	svcpl	0x005f0035
    1390:	695f6d74 	ldmdbvs	pc, {r2, r4, r5, r6, r8, sl, fp, sp, lr}^	; <UNPREDICTABLE>
    1394:	74736473 	ldrbtvc	r6, [r3], #-1139	; 0x473
    1398:	6f6c5f00 	svcvs	0x006c5f00
    139c:	746c6163 	strbtvc	r6, [ip], #-355	; 0x163
    13a0:	5f656d69 	svcpl	0x00656d69
    13a4:	00667562 	rsbeq	r7, r6, r2, ror #10
    13a8:	6f6c635f 	svcvs	0x006c635f
    13ac:	5f006573 	svcpl	0x00006573
    13b0:	00383472 	eorseq	r3, r8, r2, ror r4
    13b4:	74626d5f 	strbtvc	r6, [r2], #-3423	; 0xd5f
    13b8:	5f63776f 	svcpl	0x0063776f
    13bc:	74617473 	strbtvc	r7, [r1], #-1139	; 0x473
    13c0:	705f0065 	subsvc	r0, pc, r5, rrx
    13c4:	5f007335 	svcpl	0x00007335
    13c8:	5f6d745f 	svcpl	0x006d745f
    13cc:	7961646d 	stmdbvc	r1!, {r0, r2, r3, r5, r6, sl, sp, lr}^
    13d0:	69706700 	ldmdbvs	r0!, {r8, r9, sl, sp, lr}^
    13d4:	65735f6f 	ldrbvs	r5, [r3, #-3951]!	; 0xf6f
    13d8:	666f5f74 	uqsub16vs	r5, pc, r4	; <UNPREDICTABLE>
    13dc:	61620066 	cmnvs	r2, r6, rrx
    13e0:	67006b6e 	strvs	r6, [r0, -lr, ror #22]
    13e4:	2e6f6970 	mcrcs	9, 3, r6, cr15, cr0, {3}
    13e8:	70670063 	rsbvc	r0, r7, r3, rrx
    13ec:	725f6f69 	subsvc	r6, pc, #420	; 0x1a4
    13f0:	00646165 	rsbeq	r6, r4, r5, ror #2
    13f4:	6f697067 	svcvs	0x00697067
    13f8:	7465735f 	strbtvc	r7, [r5], #-863	; 0x35f
    13fc:	74756f5f 	ldrbtvc	r6, [r5], #-3935	; 0xf5f
    1400:	00747570 	rsbseq	r7, r4, r0, ror r5
    1404:	6f697067 	svcvs	0x00697067
    1408:	6972775f 	ldmdbvs	r2!, {r0, r1, r2, r3, r4, r6, r8, r9, sl, ip, sp, lr}^
    140c:	67006574 	smlsdxvs	r0, r4, r5, r6
    1410:	5f6f6970 	svcpl	0x006f6970
    1414:	30746573 	rsbscc	r6, r4, r3, ror r5
    1418:	69706700 	ldmdbvs	r0!, {r8, r9, sl, sp, lr}^
    141c:	656c5f6f 	strbvs	r5, [ip, #-3951]!	; 0xf6f
    1420:	67003076 	smlsdxvs	r0, r6, r0, r3
    1424:	5f6f6970 	svcpl	0x006f6970
    1428:	5f746573 	svcpl	0x00746573
    142c:	75706e69 	ldrbvc	r6, [r0, #-3689]!	; 0xe69
    1430:	70670074 	rsbvc	r0, r7, r4, ror r0
    1434:	735f6f69 	cmpvc	pc, #420	; 0x1a4
    1438:	6f5f7465 	svcvs	0x005f7465
    143c:	7067006e 	rsbvc	r0, r7, lr, rrx
    1440:	665f6f69 	ldrbvs	r6, [pc], -r9, ror #30
    1444:	5f636e75 	svcpl	0x00636e75
    1448:	70670074 	rsbvc	r0, r7, r4, ror r0
    144c:	635f6f69 	cmpvs	pc, #420	; 0x1a4
    1450:	0030726c 	eorseq	r7, r0, ip, ror #4
    1454:	6c616d6b 	stclvs	13, cr6, [r1], #-428	; 0xfffffe54
    1458:	2e636f6c 	cdpcs	15, 6, cr6, cr3, cr12, {3}
    145c:	6d6b0063 	stclvs	0, cr0, [fp, #-396]!	; 0xfffffe74
    1460:	6f6c6c61 	svcvs	0x006c6c61
    1464:	6e695f63 	cdpvs	15, 6, cr5, cr9, cr3, {3}
    1468:	64007469 	strvs	r7, [r0], #-1129	; 0x469
    146c:	6c62756f 	cfstr64vs	mvdx7, [r2], #-444	; 0xfffffe44
    1470:	666b0065 	strbtvs	r0, [fp], -r5, rrx
    1474:	5f656572 	svcpl	0x00656572
    1478:	006c6c61 	rsbeq	r6, ip, r1, ror #24
    147c:	6c616d6b 	stclvs	13, cr6, [r1], #-428	; 0xfffffe54
    1480:	5f636f6c 	svcpl	0x00636f6c
    1484:	74696e69 	strbtvc	r6, [r9], #-3689	; 0xe69
    1488:	7465735f 	strbtvc	r7, [r5], #-863	; 0x35f
    148c:	6174735f 	cmnvs	r4, pc, asr r3
    1490:	6b007472 	blvs	1e660 <__bss_end__+0x12018>
    1494:	65657266 	strbvs	r7, [r5, #-614]!	; 0x266
    1498:	72666b00 	rsbvc	r6, r6, #0, 22
    149c:	615f6565 	cmpvs	pc, r5, ror #10
    14a0:	72657466 	rsbvc	r7, r5, #1711276032	; 0x66000000
    14a4:	616d6b00 	cmnvs	sp, r0, lsl #22
    14a8:	636f6c6c 	cmnvs	pc, #108, 24	; 0x6c00
    14ac:	6165685f 	cmnvs	r5, pc, asr r8
    14b0:	74705f70 	ldrbtvc	r5, [r0], #-3952	; 0xf70
    14b4:	5f5f0072 	svcpl	0x005f0072
    14b8:	70616568 	rsbvc	r6, r1, r8, ror #10
    14bc:	6174735f 	cmnvs	r4, pc, asr r3
    14c0:	5f5f7472 	svcpl	0x005f7472
    14c4:	616d6b00 	cmnvs	sp, r0, lsl #22
    14c8:	636f6c6c 	cmnvs	pc, #108, 24	; 0x6c00
    14cc:	6165685f 	cmnvs	r5, pc, asr r8
    14d0:	74735f70 	ldrbtvc	r5, [r3], #-3952	; 0xf70
    14d4:	00747261 	rsbseq	r7, r4, r1, ror #4
    14d8:	70616568 	rsbvc	r6, r1, r8, ror #10
    14dc:	616d6b00 	cmnvs	sp, r0, lsl #22
    14e0:	636f6c6c 	cmnvs	pc, #108, 24	; 0x6c00
    14e4:	6165685f 	cmnvs	r5, pc, asr r8
    14e8:	6e655f70 	mcrvs	15, 3, r5, cr5, cr0, {3}
    14ec:	6d6b0064 	stclvs	0, cr0, [fp, #-400]!	; 0xfffffe70
    14f0:	6f6c6c61 	svcvs	0x006c6c61
    14f4:	Address 0x00000000000014f4 is out of bounds.


Disassembly of section .debug_frame:

00000000 <.debug_frame>:
   0:	0000000c 	andeq	r0, r0, ip
   4:	ffffffff 			; <UNDEFINED> instruction: 0xffffffff
   8:	7c020001 	stcvc	0, cr0, [r2], {1}
   c:	000d0c0e 	andeq	r0, sp, lr, lsl #24
  10:	00000014 	andeq	r0, r0, r4, lsl r0
  14:	00000000 	andeq	r0, r0, r0
  18:	00008020 	andeq	r8, r0, r0, lsr #32
  1c:	000000a4 	andeq	r0, r0, r4, lsr #1
  20:	8e040e42 	cdphi	14, 0, cr0, cr4, cr2, {2}
  24:	100e4201 	andne	r4, lr, r1, lsl #4
  28:	0000000c 	andeq	r0, r0, ip
  2c:	ffffffff 			; <UNDEFINED> instruction: 0xffffffff
  30:	7c020001 	stcvc	0, cr0, [r2], {1}
  34:	000d0c0e 	andeq	r0, sp, lr, lsl #24
  38:	00000014 	andeq	r0, r0, r4, lsl r0
  3c:	00000028 	andeq	r0, r0, r8, lsr #32
  40:	00008208 	andeq	r8, r0, r8, lsl #4
  44:	00000010 	andeq	r0, r0, r0, lsl r0
  48:	83080e42 	movwhi	r0, #36418	; 0x8e42
  4c:	00018e02 	andeq	r8, r1, r2, lsl #28
  50:	00000014 	andeq	r0, r0, r4, lsl r0
  54:	00000028 	andeq	r0, r0, r8, lsr #32
  58:	00008218 	andeq	r8, r0, r8, lsl r2
  5c:	00000090 	muleq	r0, r0, r0
  60:	8e040e42 	cdphi	14, 0, cr0, cr4, cr2, {2}
  64:	100e4201 	andne	r4, lr, r1, lsl #4
  68:	00000020 	andeq	r0, r0, r0, lsr #32
  6c:	00000028 	andeq	r0, r0, r8, lsr #32
  70:	000082a8 	andeq	r8, r0, r8, lsr #5
  74:	00000098 	muleq	r0, r8, r0
  78:	84180e42 	ldrhi	r0, [r8], #-3650	; 0xe42
  7c:	86058506 	strhi	r8, [r5], -r6, lsl #10
  80:	88038704 	stmdahi	r3, {r2, r8, r9, sl, pc}
  84:	42018e02 	andmi	r8, r1, #2, 28
  88:	0000200e 	andeq	r2, r0, lr
  8c:	00000014 	andeq	r0, r0, r4, lsl r0
  90:	00000028 	andeq	r0, r0, r8, lsr #32
  94:	00008340 	andeq	r8, r0, r0, asr #6
  98:	00000010 	andeq	r0, r0, r0, lsl r0
  9c:	83080e42 	movwhi	r0, #36418	; 0x8e42
  a0:	00018e02 	andeq	r8, r1, r2, lsl #28
  a4:	00000014 	andeq	r0, r0, r4, lsl r0
  a8:	00000028 	andeq	r0, r0, r8, lsr #32
  ac:	00008350 	andeq	r8, r0, r0, asr r3
  b0:	00000010 	andeq	r0, r0, r0, lsl r0
  b4:	83080e42 	movwhi	r0, #36418	; 0x8e42
  b8:	00018e02 	andeq	r8, r1, r2, lsl #28
  bc:	00000014 	andeq	r0, r0, r4, lsl r0
  c0:	00000028 	andeq	r0, r0, r8, lsr #32
  c4:	00008360 	andeq	r8, r0, r0, ror #6
  c8:	00000010 	andeq	r0, r0, r0, lsl r0
  cc:	83080e42 	movwhi	r0, #36418	; 0x8e42
  d0:	00018e02 	andeq	r8, r1, r2, lsl #28
  d4:	00000014 	andeq	r0, r0, r4, lsl r0
  d8:	00000028 	andeq	r0, r0, r8, lsr #32
  dc:	00008370 	andeq	r8, r0, r0, ror r3
  e0:	00000098 	muleq	r0, r8, r0
  e4:	8e040e42 	cdphi	14, 0, cr0, cr4, cr2, {2}
  e8:	100e4201 	andne	r4, lr, r1, lsl #4
  ec:	00000020 	andeq	r0, r0, r0, lsr #32
  f0:	00000028 	andeq	r0, r0, r8, lsr #32
  f4:	00008408 	andeq	r8, r0, r8, lsl #8
  f8:	00000194 	muleq	r0, r4, r1
  fc:	841c0e42 	ldrhi	r0, [ip], #-3650	; 0xe42
 100:	86068507 	strhi	r8, [r6], -r7, lsl #10
 104:	88048705 	stmdahi	r4, {r0, r2, r8, r9, sl, pc}
 108:	8e028903 	cdphi	9, 0, cr8, cr2, cr3, {0}
 10c:	280e4201 	stmdacs	lr, {r0, r9, lr}
 110:	00000020 	andeq	r0, r0, r0, lsr #32
 114:	00000028 	andeq	r0, r0, r8, lsr #32
 118:	0000859c 	muleq	r0, ip, r5
 11c:	000000f0 	strdeq	r0, [r0], -r0	; <UNPREDICTABLE>
 120:	841c0e42 	ldrhi	r0, [ip], #-3650	; 0xe42
 124:	86068507 	strhi	r8, [r6], -r7, lsl #10
 128:	88048705 	stmdahi	r4, {r0, r2, r8, r9, sl, pc}
 12c:	8e028903 	cdphi	9, 0, cr8, cr2, cr3, {0}
 130:	280e4201 	stmdacs	lr, {r0, r9, lr}
 134:	00000018 	andeq	r0, r0, r8, lsl r0
 138:	00000028 	andeq	r0, r0, r8, lsr #32
 13c:	0000868c 	andeq	r8, r0, ip, lsl #13
 140:	00000094 	muleq	r0, r4, r0
 144:	84080e42 	strhi	r0, [r8], #-3650	; 0xe42
 148:	42018e02 	andmi	r8, r1, #2, 28
 14c:	0000100e 	andeq	r1, r0, lr
 150:	00000014 	andeq	r0, r0, r4, lsl r0
 154:	00000028 	andeq	r0, r0, r8, lsr #32
 158:	00008720 	andeq	r8, r0, r0, lsr #14
 15c:	00000090 	muleq	r0, r0, r0
 160:	8e040e42 	cdphi	14, 0, cr0, cr4, cr2, {2}
 164:	100e4201 	andne	r4, lr, r1, lsl #4
 168:	00000014 	andeq	r0, r0, r4, lsl r0
 16c:	00000028 	andeq	r0, r0, r8, lsr #32
 170:	000087b0 			; <UNDEFINED> instruction: 0x000087b0
 174:	00000090 	muleq	r0, r0, r0
 178:	8e040e42 	cdphi	14, 0, cr0, cr4, cr2, {2}
 17c:	100e4201 	andne	r4, lr, r1, lsl #4
 180:	00000014 	andeq	r0, r0, r4, lsl r0
 184:	00000028 	andeq	r0, r0, r8, lsr #32
 188:	00008840 	andeq	r8, r0, r0, asr #16
 18c:	0000000c 	andeq	r0, r0, ip
 190:	83080e42 	movwhi	r0, #36418	; 0x8e42
 194:	00018e02 	andeq	r8, r1, r2, lsl #28
 198:	00000014 	andeq	r0, r0, r4, lsl r0
 19c:	00000028 	andeq	r0, r0, r8, lsr #32
 1a0:	0000884c 	andeq	r8, r0, ip, asr #16
 1a4:	00000080 	andeq	r0, r0, r0, lsl #1
 1a8:	8e040e42 	cdphi	14, 0, cr0, cr4, cr2, {2}
 1ac:	100e4201 	andne	r4, lr, r1, lsl #4
 1b0:	00000014 	andeq	r0, r0, r4, lsl r0
 1b4:	00000028 	andeq	r0, r0, r8, lsr #32
 1b8:	000088cc 	andeq	r8, r0, ip, asr #17
 1bc:	00000058 	andeq	r0, r0, r8, asr r0
 1c0:	8e040e42 	cdphi	14, 0, cr0, cr4, cr2, {2}
 1c4:	100e4201 	andne	r4, lr, r1, lsl #4
 1c8:	00000014 	andeq	r0, r0, r4, lsl r0
 1cc:	00000028 	andeq	r0, r0, r8, lsr #32
 1d0:	00008924 	andeq	r8, r0, r4, lsr #18
 1d4:	00000050 	andeq	r0, r0, r0, asr r0
 1d8:	8e040e42 	cdphi	14, 0, cr0, cr4, cr2, {2}
 1dc:	100e4201 	andne	r4, lr, r1, lsl #4
 1e0:	00000014 	andeq	r0, r0, r4, lsl r0
 1e4:	00000028 	andeq	r0, r0, r8, lsr #32
 1e8:	00008974 	andeq	r8, r0, r4, ror r9
 1ec:	00000058 	andeq	r0, r0, r8, asr r0
 1f0:	8e040e42 	cdphi	14, 0, cr0, cr4, cr2, {2}
 1f4:	100e4201 	andne	r4, lr, r1, lsl #4
 1f8:	0000000c 	andeq	r0, r0, ip
 1fc:	00000028 	andeq	r0, r0, r8, lsr #32
 200:	000089cc 	andeq	r8, r0, ip, asr #19
 204:	00000008 	andeq	r0, r0, r8
 208:	00000014 	andeq	r0, r0, r4, lsl r0
 20c:	00000028 	andeq	r0, r0, r8, lsr #32
 210:	000089d4 	ldrdeq	r8, [r0], -r4
 214:	0000000c 	andeq	r0, r0, ip
 218:	83080e42 	movwhi	r0, #36418	; 0x8e42
 21c:	00018e02 	andeq	r8, r1, r2, lsl #28
 220:	00000014 	andeq	r0, r0, r4, lsl r0
 224:	00000028 	andeq	r0, r0, r8, lsr #32
 228:	000089e0 	andeq	r8, r0, r0, ror #19
 22c:	000000bc 	strheq	r0, [r0], -ip
 230:	8e040e42 	cdphi	14, 0, cr0, cr4, cr2, {2}
 234:	100e4201 	andne	r4, lr, r1, lsl #4
 238:	00000014 	andeq	r0, r0, r4, lsl r0
 23c:	00000028 	andeq	r0, r0, r8, lsr #32
 240:	00008a9c 	muleq	r0, ip, sl
 244:	00000048 	andeq	r0, r0, r8, asr #32
 248:	8e040e42 	cdphi	14, 0, cr0, cr4, cr2, {2}
 24c:	100e4201 	andne	r4, lr, r1, lsl #4
 250:	0000000c 	andeq	r0, r0, ip
 254:	ffffffff 			; <UNDEFINED> instruction: 0xffffffff
 258:	7c020001 	stcvc	0, cr0, [r2], {1}
 25c:	000d0c0e 	andeq	r0, sp, lr, lsl #24
 260:	00000018 	andeq	r0, r0, r8, lsl r0
 264:	00000250 	andeq	r0, r0, r0, asr r2
 268:	00008ae4 	andeq	r8, r0, r4, ror #21
 26c:	00000034 	andeq	r0, r0, r4, lsr r0
 270:	83100e42 	tsthi	r0, #1056	; 0x420
 274:	85038404 	strhi	r8, [r3, #-1028]	; 0x404
 278:	00018e02 	andeq	r8, r1, r2, lsl #28
 27c:	00000014 	andeq	r0, r0, r4, lsl r0
 280:	00000250 	andeq	r0, r0, r0, asr r2
 284:	00008b18 	andeq	r8, r0, r8, lsl fp
 288:	00000028 	andeq	r0, r0, r8, lsr #32
 28c:	83080e42 	movwhi	r0, #36418	; 0x8e42
 290:	00018e02 	andeq	r8, r1, r2, lsl #28
 294:	00000014 	andeq	r0, r0, r4, lsl r0
 298:	00000250 	andeq	r0, r0, r0, asr r2
 29c:	00008b40 	andeq	r8, r0, r0, asr #22
 2a0:	00000008 	andeq	r0, r0, r8
 2a4:	8e040e42 	cdphi	14, 0, cr0, cr4, cr2, {2}
 2a8:	00000001 	andeq	r0, r0, r1
 2ac:	00000014 	andeq	r0, r0, r4, lsl r0
 2b0:	00000250 	andeq	r0, r0, r0, asr r2
 2b4:	00008b48 	andeq	r8, r0, r8, asr #22
 2b8:	000001f8 	strdeq	r0, [r0], -r8
 2bc:	8e040e42 	cdphi	14, 0, cr0, cr4, cr2, {2}
 2c0:	100e4201 	andne	r4, lr, r1, lsl #4
 2c4:	00000014 	andeq	r0, r0, r4, lsl r0
 2c8:	00000250 	andeq	r0, r0, r0, asr r2
 2cc:	00008d40 	andeq	r8, r0, r0, asr #26
 2d0:	00000204 	andeq	r0, r0, r4, lsl #4
 2d4:	84080e42 	strhi	r0, [r8], #-3650	; 0xe42
 2d8:	00018e02 	andeq	r8, r1, r2, lsl #28
 2dc:	00000014 	andeq	r0, r0, r4, lsl r0
 2e0:	00000250 	andeq	r0, r0, r0, asr r2
 2e4:	00008f44 	andeq	r8, r0, r4, asr #30
 2e8:	00000008 	andeq	r0, r0, r8
 2ec:	8e040e42 	cdphi	14, 0, cr0, cr4, cr2, {2}
 2f0:	00000001 	andeq	r0, r0, r1
 2f4:	00000014 	andeq	r0, r0, r4, lsl r0
 2f8:	00000250 	andeq	r0, r0, r0, asr r2
 2fc:	00008f4c 	andeq	r8, r0, ip, asr #30
 300:	0000004c 	andeq	r0, r0, ip, asr #32
 304:	84080e42 	strhi	r0, [r8], #-3650	; 0xe42
 308:	00018e02 	andeq	r8, r1, r2, lsl #28
 30c:	00000014 	andeq	r0, r0, r4, lsl r0
 310:	00000250 	andeq	r0, r0, r0, asr r2
 314:	00008f98 	muleq	r0, r8, pc	; <UNPREDICTABLE>
 318:	000001c0 	andeq	r0, r0, r0, asr #3
 31c:	8e040e42 	cdphi	14, 0, cr0, cr4, cr2, {2}
 320:	100e4201 	andne	r4, lr, r1, lsl #4
 324:	0000000c 	andeq	r0, r0, ip
 328:	00000250 	andeq	r0, r0, r0, asr r2
 32c:	00009158 	andeq	r9, r0, r8, asr r1
 330:	00000008 	andeq	r0, r0, r8
 334:	00000018 	andeq	r0, r0, r8, lsl r0
 338:	00000250 	andeq	r0, r0, r0, asr r2
 33c:	00009160 	andeq	r9, r0, r0, ror #2
 340:	000000b4 	strheq	r0, [r0], -r4
 344:	84080e42 	strhi	r0, [r8], #-3650	; 0xe42
 348:	42018e02 	andmi	r8, r1, #2, 28
 34c:	0000280e 	andeq	r2, r0, lr, lsl #16
 350:	00000014 	andeq	r0, r0, r4, lsl r0
 354:	00000250 	andeq	r0, r0, r0, asr r2
 358:	00009214 	andeq	r9, r0, r4, lsl r2
 35c:	000001d0 	ldrdeq	r0, [r0], -r0	; <UNPREDICTABLE>
 360:	84080e42 	strhi	r0, [r8], #-3650	; 0xe42
 364:	00018e02 	andeq	r8, r1, r2, lsl #28
 368:	00000014 	andeq	r0, r0, r4, lsl r0
 36c:	00000250 	andeq	r0, r0, r0, asr r2
 370:	000093e4 	andeq	r9, r0, r4, ror #7
 374:	00000014 	andeq	r0, r0, r4, lsl r0
 378:	83080e42 	movwhi	r0, #36418	; 0x8e42
 37c:	00018e02 	andeq	r8, r1, r2, lsl #28
 380:	0000000c 	andeq	r0, r0, ip
 384:	ffffffff 			; <UNDEFINED> instruction: 0xffffffff
 388:	7c020001 	stcvc	0, cr0, [r2], {1}
 38c:	000d0c0e 	andeq	r0, sp, lr, lsl #24
 390:	0000000c 	andeq	r0, r0, ip
 394:	00000380 	andeq	r0, r0, r0, lsl #7
 398:	000093f8 	strdeq	r9, [r0], -r8
 39c:	0000001c 	andeq	r0, r0, ip, lsl r0
 3a0:	0000000c 	andeq	r0, r0, ip
 3a4:	00000380 	andeq	r0, r0, r0, lsl #7
 3a8:	00009414 	andeq	r9, r0, r4, lsl r4
 3ac:	00000018 	andeq	r0, r0, r8, lsl r0
 3b0:	0000001c 	andeq	r0, r0, ip, lsl r0
 3b4:	00000380 	andeq	r0, r0, r0, lsl #7
 3b8:	0000942c 	andeq	r9, r0, ip, lsr #8
 3bc:	000000f0 	strdeq	r0, [r0], -r0	; <UNPREDICTABLE>
 3c0:	84100e42 	ldrhi	r0, [r0], #-3650	; 0xe42
 3c4:	86038504 	strhi	r8, [r3], -r4, lsl #10
 3c8:	42018e02 	andmi	r8, r1, #2, 28
 3cc:	0000280e 	andeq	r2, r0, lr, lsl #16
 3d0:	00000018 	andeq	r0, r0, r8, lsl r0
 3d4:	00000380 	andeq	r0, r0, r0, lsl #7
 3d8:	0000951c 	andeq	r9, r0, ip, lsl r5
 3dc:	000000a4 	andeq	r0, r0, r4, lsr #1
 3e0:	84080e42 	strhi	r0, [r8], #-3650	; 0xe42
 3e4:	42018e02 	andmi	r8, r1, #2, 28
 3e8:	0000100e 	andeq	r1, r0, lr
 3ec:	00000014 	andeq	r0, r0, r4, lsl r0
 3f0:	00000380 	andeq	r0, r0, r0, lsl #7
 3f4:	000095c0 	andeq	r9, r0, r0, asr #11
 3f8:	00000094 	muleq	r0, r4, r0
 3fc:	8e040e42 	cdphi	14, 0, cr0, cr4, cr2, {2}
 400:	100e4201 	andne	r4, lr, r1, lsl #4
 404:	0000000c 	andeq	r0, r0, ip
 408:	00000380 	andeq	r0, r0, r0, lsl #7
 40c:	00009654 	andeq	r9, r0, r4, asr r6
 410:	00000014 	andeq	r0, r0, r4, lsl r0
 414:	00000014 	andeq	r0, r0, r4, lsl r0
 418:	00000380 	andeq	r0, r0, r0, lsl #7
 41c:	00009668 	andeq	r9, r0, r8, ror #12
 420:	0000031c 	andeq	r0, r0, ip, lsl r3
 424:	83080e42 	movwhi	r0, #36418	; 0x8e42
 428:	00018e02 	andeq	r8, r1, r2, lsl #28
 42c:	00000014 	andeq	r0, r0, r4, lsl r0
 430:	00000380 	andeq	r0, r0, r0, lsl #7
 434:	00009984 	andeq	r9, r0, r4, lsl #19
 438:	00000030 	andeq	r0, r0, r0, lsr r0
 43c:	83080e42 	movwhi	r0, #36418	; 0x8e42
 440:	00018e02 	andeq	r8, r1, r2, lsl #28
 444:	00000018 	andeq	r0, r0, r8, lsl r0
 448:	00000380 	andeq	r0, r0, r0, lsl #7
 44c:	000099b4 			; <UNDEFINED> instruction: 0x000099b4
 450:	00000150 	andeq	r0, r0, r0, asr r1
 454:	84080e42 	strhi	r0, [r8], #-3650	; 0xe42
 458:	42018e02 	andmi	r8, r1, #2, 28
 45c:	0000100e 	andeq	r1, r0, lr
 460:	00000014 	andeq	r0, r0, r4, lsl r0
 464:	00000380 	andeq	r0, r0, r0, lsl #7
 468:	00009b04 	andeq	r9, r0, r4, lsl #22
 46c:	00000088 	andeq	r0, r0, r8, lsl #1
 470:	8e040e42 	cdphi	14, 0, cr0, cr4, cr2, {2}
 474:	100e4201 	andne	r4, lr, r1, lsl #4
 478:	00000014 	andeq	r0, r0, r4, lsl r0
 47c:	00000380 	andeq	r0, r0, r0, lsl #7
 480:	00009b8c 	andeq	r9, r0, ip, lsl #23
 484:	00000070 	andeq	r0, r0, r0, ror r0
 488:	8e040e42 	cdphi	14, 0, cr0, cr4, cr2, {2}
 48c:	100e4201 	andne	r4, lr, r1, lsl #4
 490:	00000014 	andeq	r0, r0, r4, lsl r0
 494:	00000380 	andeq	r0, r0, r0, lsl #7
 498:	00009bfc 	strdeq	r9, [r0], -ip
 49c:	00000070 	andeq	r0, r0, r0, ror r0
 4a0:	8e040e42 	cdphi	14, 0, cr0, cr4, cr2, {2}
 4a4:	100e4201 	andne	r4, lr, r1, lsl #4
 4a8:	00000014 	andeq	r0, r0, r4, lsl r0
 4ac:	00000380 	andeq	r0, r0, r0, lsl #7
 4b0:	00009c6c 	andeq	r9, r0, ip, ror #24
 4b4:	00000074 	andeq	r0, r0, r4, ror r0
 4b8:	8e040e42 	cdphi	14, 0, cr0, cr4, cr2, {2}
 4bc:	100e4201 	andne	r4, lr, r1, lsl #4
 4c0:	00000014 	andeq	r0, r0, r4, lsl r0
 4c4:	00000380 	andeq	r0, r0, r0, lsl #7
 4c8:	00009ce0 	andeq	r9, r0, r0, ror #25
 4cc:	00000024 	andeq	r0, r0, r4, lsr #32
 4d0:	83080e42 	movwhi	r0, #36418	; 0x8e42
 4d4:	00018e02 	andeq	r8, r1, r2, lsl #28
 4d8:	00000014 	andeq	r0, r0, r4, lsl r0
 4dc:	00000380 	andeq	r0, r0, r0, lsl #7
 4e0:	00009d04 	andeq	r9, r0, r4, lsl #26
 4e4:	00000018 	andeq	r0, r0, r8, lsl r0
 4e8:	83080e42 	movwhi	r0, #36418	; 0x8e42
 4ec:	00018e02 	andeq	r8, r1, r2, lsl #28
 4f0:	00000014 	andeq	r0, r0, r4, lsl r0
 4f4:	00000380 	andeq	r0, r0, r0, lsl #7
 4f8:	00009d1c 	andeq	r9, r0, ip, lsl sp
 4fc:	00000010 	andeq	r0, r0, r0, lsl r0
 500:	83080e42 	movwhi	r0, #36418	; 0x8e42
 504:	00018e02 	andeq	r8, r1, r2, lsl #28
 508:	00000014 	andeq	r0, r0, r4, lsl r0
 50c:	00000380 	andeq	r0, r0, r0, lsl #7
 510:	00009d2c 	andeq	r9, r0, ip, lsr #26
 514:	00000010 	andeq	r0, r0, r0, lsl r0
 518:	83080e42 	movwhi	r0, #36418	; 0x8e42
 51c:	00018e02 	andeq	r8, r1, r2, lsl #28
 520:	0000000c 	andeq	r0, r0, ip
 524:	ffffffff 			; <UNDEFINED> instruction: 0xffffffff
 528:	7c020001 	stcvc	0, cr0, [r2], {1}
 52c:	000d0c0e 	andeq	r0, sp, lr, lsl #24
 530:	00000014 	andeq	r0, r0, r4, lsl r0
 534:	00000520 	andeq	r0, r0, r0, lsr #10
 538:	0000a0d0 	ldrdeq	sl, [r0], -r0
 53c:	000000f0 	strdeq	r0, [r0], -r0	; <UNPREDICTABLE>
 540:	84040e42 	strhi	r0, [r4], #-3650	; 0xe42
 544:	00000001 	andeq	r0, r0, r1
 548:	0000000c 	andeq	r0, r0, ip
 54c:	ffffffff 			; <UNDEFINED> instruction: 0xffffffff
 550:	7c020001 	stcvc	0, cr0, [r2], {1}
 554:	000d0c0e 	andeq	r0, sp, lr, lsl #24
 558:	0000000c 	andeq	r0, r0, ip
 55c:	00000548 	andeq	r0, r0, r8, asr #10
 560:	0000a1c0 	andeq	sl, r0, r0, asr #3
 564:	00000020 	andeq	r0, r0, r0, lsr #32
 568:	0000000c 	andeq	r0, r0, ip
 56c:	ffffffff 			; <UNDEFINED> instruction: 0xffffffff
 570:	7c020001 	stcvc	0, cr0, [r2], {1}
 574:	000d0c0e 	andeq	r0, sp, lr, lsl #24
 578:	00000024 	andeq	r0, r0, r4, lsr #32
 57c:	00000568 	andeq	r0, r0, r8, ror #10
 580:	0000a1e0 	andeq	sl, r0, r0, ror #3
 584:	00000058 	andeq	r0, r0, r8, asr r0
 588:	80100e42 	andshi	r0, r0, r2, asr #28
 58c:	82038104 	andhi	r8, r3, #4, 2
 590:	42018302 	andmi	r8, r1, #134217728	; 0x8000000
 594:	07841c0e 	streq	r1, [r4, lr, lsl #24]
 598:	058e0685 	streq	r0, [lr, #1669]	; 0x685
 59c:	00280e42 	eoreq	r0, r8, r2, asr #28
 5a0:	0000000c 	andeq	r0, r0, ip
 5a4:	ffffffff 			; <UNDEFINED> instruction: 0xffffffff
 5a8:	7c020001 	stcvc	0, cr0, [r2], {1}
 5ac:	000d0c0e 	andeq	r0, sp, lr, lsl #24
 5b0:	00000014 	andeq	r0, r0, r4, lsl r0
 5b4:	000005a0 	andeq	r0, r0, r0, lsr #11
 5b8:	0000a238 	andeq	sl, r0, r8, lsr r2
 5bc:	00000014 	andeq	r0, r0, r4, lsl r0
 5c0:	84080e42 	strhi	r0, [r8], #-3650	; 0xe42
 5c4:	00018e02 	andeq	r8, r1, r2, lsl #28
 5c8:	0000000c 	andeq	r0, r0, ip
 5cc:	000005a0 	andeq	r0, r0, r0, lsr #11
 5d0:	0000a24c 	andeq	sl, r0, ip, asr #4
 5d4:	00000018 	andeq	r0, r0, r8, lsl r0
 5d8:	0000000c 	andeq	r0, r0, ip
 5dc:	000005a0 	andeq	r0, r0, r0, lsr #11
 5e0:	0000a264 	andeq	sl, r0, r4, ror #4
 5e4:	00000010 	andeq	r0, r0, r0, lsl r0
 5e8:	0000000c 	andeq	r0, r0, ip
 5ec:	ffffffff 			; <UNDEFINED> instruction: 0xffffffff
 5f0:	7c020001 	stcvc	0, cr0, [r2], {1}
 5f4:	000d0c0e 	andeq	r0, sp, lr, lsl #24
 5f8:	00000018 	andeq	r0, r0, r8, lsl r0
 5fc:	000005e8 	andeq	r0, r0, r8, ror #11
 600:	0000a274 	andeq	sl, r0, r4, ror r2
 604:	00000034 	andeq	r0, r0, r4, lsr r0
 608:	83100e42 	tsthi	r0, #1056	; 0x420
 60c:	85038404 	strhi	r8, [r3, #-1028]	; 0x404
 610:	00018e02 	andeq	r8, r1, r2, lsl #28
 614:	0000000c 	andeq	r0, r0, ip
 618:	ffffffff 			; <UNDEFINED> instruction: 0xffffffff
 61c:	7c020001 	stcvc	0, cr0, [r2], {1}
 620:	000d0c0e 	andeq	r0, sp, lr, lsl #24
 624:	0000000c 	andeq	r0, r0, ip
 628:	00000614 	andeq	r0, r0, r4, lsl r6
 62c:	0000a2a8 	andeq	sl, r0, r8, lsr #5
 630:	00000014 	andeq	r0, r0, r4, lsl r0
 634:	0000000c 	andeq	r0, r0, ip
 638:	00000614 	andeq	r0, r0, r4, lsl r6
 63c:	0000a2bc 			; <UNDEFINED> instruction: 0x0000a2bc
 640:	0000002c 	andeq	r0, r0, ip, lsr #32
 644:	0000000c 	andeq	r0, r0, ip
 648:	00000614 	andeq	r0, r0, r4, lsl r6
 64c:	0000a2e8 	andeq	sl, r0, r8, ror #5
 650:	00000040 	andeq	r0, r0, r0, asr #32
 654:	00000020 	andeq	r0, r0, r0, lsr #32
 658:	00000614 	andeq	r0, r0, r4, lsl r6
 65c:	0000a328 	andeq	sl, r0, r8, lsr #6
 660:	000001bc 			; <UNDEFINED> instruction: 0x000001bc
 664:	84180e42 	ldrhi	r0, [r8], #-3650	; 0xe42
 668:	86058506 	strhi	r8, [r5], -r6, lsl #10
 66c:	88038704 	stmdahi	r3, {r2, r8, r9, sl, pc}
 670:	42018e02 	andmi	r8, r1, #2, 28
 674:	0000600e 	andeq	r6, r0, lr
 678:	00000014 	andeq	r0, r0, r4, lsl r0
 67c:	00000614 	andeq	r0, r0, r4, lsl r6
 680:	0000a4e4 	andeq	sl, r0, r4, ror #9
 684:	00000068 	andeq	r0, r0, r8, rrx
 688:	8e040e42 	cdphi	14, 0, cr0, cr4, cr2, {2}
 68c:	100e4201 	andne	r4, lr, r1, lsl #4
 690:	00000028 	andeq	r0, r0, r8, lsr #32
 694:	00000614 	andeq	r0, r0, r4, lsl r6
 698:	0000a54c 	andeq	sl, r0, ip, asr #10
 69c:	000002d4 	ldrdeq	r0, [r0], -r4
 6a0:	84240e42 	strthi	r0, [r4], #-3650	; 0xe42
 6a4:	86088509 	strhi	r8, [r8], -r9, lsl #10
 6a8:	88068707 	stmdahi	r6, {r0, r1, r2, r8, r9, sl, pc}
 6ac:	8a048905 	bhi	122ac8 <__bss_end__+0x116480>
 6b0:	8e028b03 	vmlahi.f64	d8, d2, d3
 6b4:	b80e4201 	stmdalt	lr, {r0, r9, lr}
 6b8:	00000001 	andeq	r0, r0, r1
 6bc:	0000000c 	andeq	r0, r0, ip
 6c0:	ffffffff 			; <UNDEFINED> instruction: 0xffffffff
 6c4:	7c020001 	stcvc	0, cr0, [r2], {1}
 6c8:	000d0c0e 	andeq	r0, sp, lr, lsl #24
 6cc:	00000014 	andeq	r0, r0, r4, lsl r0
 6d0:	000006bc 			; <UNDEFINED> instruction: 0x000006bc
 6d4:	0000a820 	andeq	sl, r0, r0, lsr #16
 6d8:	0000002c 	andeq	r0, r0, ip, lsr #32
 6dc:	83080e42 	movwhi	r0, #36418	; 0x8e42
 6e0:	00018e02 	andeq	r8, r1, r2, lsl #28
 6e4:	0000000c 	andeq	r0, r0, ip
 6e8:	ffffffff 			; <UNDEFINED> instruction: 0xffffffff
 6ec:	7c020001 	stcvc	0, cr0, [r2], {1}
 6f0:	000d0c0e 	andeq	r0, sp, lr, lsl #24
 6f4:	00000014 	andeq	r0, r0, r4, lsl r0
 6f8:	000006e4 	andeq	r0, r0, r4, ror #13
 6fc:	0000a84c 	andeq	sl, r0, ip, asr #16
 700:	00000038 	andeq	r0, r0, r8, lsr r0
 704:	83080e42 	movwhi	r0, #36418	; 0x8e42
 708:	00018e02 	andeq	r8, r1, r2, lsl #28
 70c:	0000000c 	andeq	r0, r0, ip
 710:	ffffffff 			; <UNDEFINED> instruction: 0xffffffff
 714:	7c020001 	stcvc	0, cr0, [r2], {1}
 718:	000d0c0e 	andeq	r0, sp, lr, lsl #24
 71c:	00000014 	andeq	r0, r0, r4, lsl r0
 720:	0000070c 	andeq	r0, r0, ip, lsl #14
 724:	0000a884 	andeq	sl, r0, r4, lsl #17
 728:	00000044 	andeq	r0, r0, r4, asr #32
 72c:	8e040e42 	cdphi	14, 0, cr0, cr4, cr2, {2}
 730:	100e4201 	andne	r4, lr, r1, lsl #4
 734:	0000000c 	andeq	r0, r0, ip
 738:	ffffffff 			; <UNDEFINED> instruction: 0xffffffff
 73c:	7c020001 	stcvc	0, cr0, [r2], {1}
 740:	000d0c0e 	andeq	r0, sp, lr, lsl #24
 744:	00000014 	andeq	r0, r0, r4, lsl r0
 748:	00000734 	andeq	r0, r0, r4, lsr r7
 74c:	0000a8c8 	andeq	sl, r0, r8, asr #17
 750:	00000044 	andeq	r0, r0, r4, asr #32
 754:	8e040e42 	cdphi	14, 0, cr0, cr4, cr2, {2}
 758:	100e4201 	andne	r4, lr, r1, lsl #4
 75c:	0000000c 	andeq	r0, r0, ip
 760:	ffffffff 			; <UNDEFINED> instruction: 0xffffffff
 764:	7c020001 	stcvc	0, cr0, [r2], {1}
 768:	000d0c0e 	andeq	r0, sp, lr, lsl #24
 76c:	00000014 	andeq	r0, r0, r4, lsl r0
 770:	0000075c 	andeq	r0, r0, ip, asr r7
 774:	0000a90c 	andeq	sl, r0, ip, lsl #18
 778:	00000044 	andeq	r0, r0, r4, asr #32
 77c:	8e040e42 	cdphi	14, 0, cr0, cr4, cr2, {2}
 780:	100e4201 	andne	r4, lr, r1, lsl #4
 784:	0000000c 	andeq	r0, r0, ip
 788:	ffffffff 			; <UNDEFINED> instruction: 0xffffffff
 78c:	7c020001 	stcvc	0, cr0, [r2], {1}
 790:	000d0c0e 	andeq	r0, sp, lr, lsl #24
 794:	00000014 	andeq	r0, r0, r4, lsl r0
 798:	00000784 	andeq	r0, r0, r4, lsl #15
 79c:	0000a950 	andeq	sl, r0, r0, asr r9
 7a0:	00000044 	andeq	r0, r0, r4, asr #32
 7a4:	8e040e42 	cdphi	14, 0, cr0, cr4, cr2, {2}
 7a8:	100e4201 	andne	r4, lr, r1, lsl #4
 7ac:	0000000c 	andeq	r0, r0, ip
 7b0:	ffffffff 			; <UNDEFINED> instruction: 0xffffffff
 7b4:	7c020001 	stcvc	0, cr0, [r2], {1}
 7b8:	000d0c0e 	andeq	r0, sp, lr, lsl #24
 7bc:	0000000c 	andeq	r0, r0, ip
 7c0:	000007ac 	andeq	r0, r0, ip, lsr #15
 7c4:	0000a994 	muleq	r0, r4, r9
 7c8:	00000004 	andeq	r0, r0, r4
 7cc:	0000000c 	andeq	r0, r0, ip
 7d0:	000007ac 	andeq	r0, r0, ip, lsr #15
 7d4:	0000a998 	muleq	r0, r8, r9
 7d8:	00000004 	andeq	r0, r0, r4
 7dc:	0000000c 	andeq	r0, r0, ip
 7e0:	ffffffff 			; <UNDEFINED> instruction: 0xffffffff
 7e4:	7c020001 	stcvc	0, cr0, [r2], {1}
 7e8:	000d0c0e 	andeq	r0, sp, lr, lsl #24
 7ec:	00000014 	andeq	r0, r0, r4, lsl r0
 7f0:	000007dc 	ldrdeq	r0, [r0], -ip
 7f4:	0000a99c 	muleq	r0, ip, r9
 7f8:	0000006c 	andeq	r0, r0, ip, rrx
 7fc:	83080e42 	movwhi	r0, #36418	; 0x8e42
 800:	00018e02 	andeq	r8, r1, r2, lsl #28
 804:	0000000c 	andeq	r0, r0, ip
 808:	ffffffff 			; <UNDEFINED> instruction: 0xffffffff
 80c:	7c020001 	stcvc	0, cr0, [r2], {1}
 810:	000d0c0e 	andeq	r0, sp, lr, lsl #24
 814:	0000000c 	andeq	r0, r0, ip
 818:	00000804 	andeq	r0, r0, r4, lsl #16
 81c:	0000aa08 	andeq	sl, r0, r8, lsl #20
 820:	00000018 	andeq	r0, r0, r8, lsl r0
 824:	0000000c 	andeq	r0, r0, ip
 828:	00000804 	andeq	r0, r0, r4, lsl #16
 82c:	0000aa20 	andeq	sl, r0, r0, lsr #20
 830:	00000014 	andeq	r0, r0, r4, lsl r0
 834:	00000014 	andeq	r0, r0, r4, lsl r0
 838:	00000804 	andeq	r0, r0, r4, lsl #16
 83c:	0000aa34 	andeq	sl, r0, r4, lsr sl
 840:	00000048 	andeq	r0, r0, r8, asr #32
 844:	83080e42 	movwhi	r0, #36418	; 0x8e42
 848:	00018e02 	andeq	r8, r1, r2, lsl #28
 84c:	0000000c 	andeq	r0, r0, ip
 850:	ffffffff 			; <UNDEFINED> instruction: 0xffffffff
 854:	7c020001 	stcvc	0, cr0, [r2], {1}
 858:	000d0c0e 	andeq	r0, sp, lr, lsl #24
 85c:	0000000c 	andeq	r0, r0, ip
 860:	0000084c 	andeq	r0, r0, ip, asr #16
 864:	0000aa7c 	andeq	sl, r0, ip, ror sl
 868:	0000001c 	andeq	r0, r0, ip, lsl r0
 86c:	00000014 	andeq	r0, r0, r4, lsl r0
 870:	0000084c 	andeq	r0, r0, ip, asr #16
 874:	0000aa98 	muleq	r0, r8, sl
 878:	00000014 	andeq	r0, r0, r4, lsl r0
 87c:	83080e42 	movwhi	r0, #36418	; 0x8e42
 880:	00018e02 	andeq	r8, r1, r2, lsl #28
 884:	00000014 	andeq	r0, r0, r4, lsl r0
 888:	0000084c 	andeq	r0, r0, ip, asr #16
 88c:	0000aaac 	andeq	sl, r0, ip, lsr #21
 890:	0000001c 	andeq	r0, r0, ip, lsl r0
 894:	84080e42 	strhi	r0, [r8], #-3650	; 0xe42
 898:	00018e02 	andeq	r8, r1, r2, lsl #28
 89c:	00000018 	andeq	r0, r0, r8, lsl r0
 8a0:	0000084c 	andeq	r0, r0, ip, asr #16
 8a4:	0000aac8 	andeq	sl, r0, r8, asr #21
 8a8:	00000024 	andeq	r0, r0, r4, lsr #32
 8ac:	83100e42 	tsthi	r0, #1056	; 0x420
 8b0:	85038404 	strhi	r8, [r3, #-1028]	; 0x404
 8b4:	00018e02 	andeq	r8, r1, r2, lsl #28
 8b8:	00000014 	andeq	r0, r0, r4, lsl r0
 8bc:	0000084c 	andeq	r0, r0, ip, asr #16
 8c0:	0000aaec 	andeq	sl, r0, ip, ror #21
 8c4:	00000014 	andeq	r0, r0, r4, lsl r0
 8c8:	83080e42 	movwhi	r0, #36418	; 0x8e42
 8cc:	00018e02 	andeq	r8, r1, r2, lsl #28
 8d0:	00000014 	andeq	r0, r0, r4, lsl r0
 8d4:	0000084c 	andeq	r0, r0, ip, asr #16
 8d8:	0000ab00 	andeq	sl, r0, r0, lsl #22
 8dc:	00000014 	andeq	r0, r0, r4, lsl r0
 8e0:	83080e42 	movwhi	r0, #36418	; 0x8e42
 8e4:	00018e02 	andeq	r8, r1, r2, lsl #28
 8e8:	0000000c 	andeq	r0, r0, ip
 8ec:	ffffffff 			; <UNDEFINED> instruction: 0xffffffff
 8f0:	7c020001 	stcvc	0, cr0, [r2], {1}
 8f4:	000d0c0e 	andeq	r0, sp, lr, lsl #24
 8f8:	00000018 	andeq	r0, r0, r8, lsl r0
 8fc:	000008e8 	andeq	r0, r0, r8, ror #17
 900:	0000ab78 	andeq	sl, r0, r8, ror fp
 904:	00000020 	andeq	r0, r0, r0, lsr #32
 908:	84100e42 	ldrhi	r0, [r0], #-3650	; 0xe42
 90c:	86038504 	strhi	r8, [r3], -r4, lsl #10
 910:	00018e02 	andeq	r8, r1, r2, lsl #28
 914:	00000014 	andeq	r0, r0, r4, lsl r0
 918:	000008e8 	andeq	r0, r0, r8, ror #17
 91c:	0000ab98 	muleq	r0, r8, fp
 920:	000000b0 	strheq	r0, [r0], -r0	; <UNPREDICTABLE>
 924:	84080e42 	strhi	r0, [r8], #-3650	; 0xe42
 928:	00018e02 	andeq	r8, r1, r2, lsl #28
 92c:	00000014 	andeq	r0, r0, r4, lsl r0
 930:	000008e8 	andeq	r0, r0, r8, ror #17
 934:	0000ac48 	andeq	sl, r0, r8, asr #24
 938:	00000018 	andeq	r0, r0, r8, lsl r0
 93c:	84080e42 	strhi	r0, [r8], #-3650	; 0xe42
 940:	00018e02 	andeq	r8, r1, r2, lsl #28
 944:	00000014 	andeq	r0, r0, r4, lsl r0
 948:	000008e8 	andeq	r0, r0, r8, ror #17
 94c:	0000ac60 	andeq	sl, r0, r0, ror #24
 950:	00000020 	andeq	r0, r0, r0, lsr #32
 954:	84080e42 	strhi	r0, [r8], #-3650	; 0xe42
 958:	00018e02 	andeq	r8, r1, r2, lsl #28
 95c:	00000014 	andeq	r0, r0, r4, lsl r0
 960:	000008e8 	andeq	r0, r0, r8, ror #17
 964:	0000ac80 	andeq	sl, r0, r0, lsl #25
 968:	00000030 	andeq	r0, r0, r0, lsr r0
 96c:	84080e42 	strhi	r0, [r8], #-3650	; 0xe42
 970:	00018e02 	andeq	r8, r1, r2, lsl #28
 974:	00000014 	andeq	r0, r0, r4, lsl r0
 978:	000008e8 	andeq	r0, r0, r8, ror #17
 97c:	0000acb0 			; <UNDEFINED> instruction: 0x0000acb0
 980:	00000030 	andeq	r0, r0, r0, lsr r0
 984:	84080e42 	strhi	r0, [r8], #-3650	; 0xe42
 988:	00018e02 	andeq	r8, r1, r2, lsl #28
 98c:	00000014 	andeq	r0, r0, r4, lsl r0
 990:	000008e8 	andeq	r0, r0, r8, ror #17
 994:	0000ace0 	andeq	sl, r0, r0, ror #25
 998:	00000010 	andeq	r0, r0, r0, lsl r0
 99c:	84080e42 	strhi	r0, [r8], #-3650	; 0xe42
 9a0:	00018e02 	andeq	r8, r1, r2, lsl #28
 9a4:	0000000c 	andeq	r0, r0, ip
 9a8:	ffffffff 			; <UNDEFINED> instruction: 0xffffffff
 9ac:	7c020001 	stcvc	0, cr0, [r2], {1}
 9b0:	000d0c0e 	andeq	r0, sp, lr, lsl #24
 9b4:	00000018 	andeq	r0, r0, r8, lsl r0
 9b8:	000009a4 	andeq	r0, r0, r4, lsr #19
 9bc:	0000acf0 	strdeq	sl, [r0], -r0
 9c0:	00000068 	andeq	r0, r0, r8, rrx
 9c4:	84100e4a 	ldrhi	r0, [r0], #-3658	; 0xe4a
 9c8:	86038504 	strhi	r8, [r3], -r4, lsl #10
 9cc:	00018e02 	andeq	r8, r1, r2, lsl #28
 9d0:	00000014 	andeq	r0, r0, r4, lsl r0
 9d4:	000009a4 	andeq	r0, r0, r4, lsr #19
 9d8:	0000ad58 	andeq	sl, r0, r8, asr sp
 9dc:	00000010 	andeq	r0, r0, r0, lsl r0
 9e0:	84080e42 	strhi	r0, [r8], #-3650	; 0xe42
 9e4:	00018e02 	andeq	r8, r1, r2, lsl #28
 9e8:	00000014 	andeq	r0, r0, r4, lsl r0
 9ec:	000009a4 	andeq	r0, r0, r4, lsr #19
 9f0:	0000ad68 	andeq	sl, r0, r8, ror #26
 9f4:	00000024 	andeq	r0, r0, r4, lsr #32
 9f8:	84080e46 	strhi	r0, [r8], #-3654	; 0xe46
 9fc:	00018e02 	andeq	r8, r1, r2, lsl #28
 a00:	00000014 	andeq	r0, r0, r4, lsl r0
 a04:	000009a4 	andeq	r0, r0, r4, lsr #19
 a08:	0000ad8c 	andeq	sl, r0, ip, lsl #27
 a0c:	00000024 	andeq	r0, r0, r4, lsr #32
 a10:	84080e46 	strhi	r0, [r8], #-3654	; 0xe46
 a14:	00018e02 	andeq	r8, r1, r2, lsl #28
 a18:	00000014 	andeq	r0, r0, r4, lsl r0
 a1c:	000009a4 	andeq	r0, r0, r4, lsr #19
 a20:	0000adb0 			; <UNDEFINED> instruction: 0x0000adb0
 a24:	00000010 	andeq	r0, r0, r0, lsl r0
 a28:	84080e42 	strhi	r0, [r8], #-3650	; 0xe42
 a2c:	00018e02 	andeq	r8, r1, r2, lsl #28
 a30:	00000014 	andeq	r0, r0, r4, lsl r0
 a34:	000009a4 	andeq	r0, r0, r4, lsr #19
 a38:	0000adc0 	andeq	sl, r0, r0, asr #27
 a3c:	0000001c 	andeq	r0, r0, ip, lsl r0
 a40:	84080e42 	strhi	r0, [r8], #-3650	; 0xe42
 a44:	00018e02 	andeq	r8, r1, r2, lsl #28
 a48:	00000018 	andeq	r0, r0, r8, lsl r0
 a4c:	000009a4 	andeq	r0, r0, r4, lsr #19
 a50:	0000addc 	ldrdeq	sl, [r0], -ip
 a54:	00000034 	andeq	r0, r0, r4, lsr r0
 a58:	84080e46 	strhi	r0, [r8], #-3654	; 0xe46
 a5c:	4e018e02 	cdpmi	14, 0, cr8, cr1, cr2, {0}
 a60:	cec4000e 	cdpgt	0, 12, cr0, cr4, cr14, {0}
 a64:	0000000c 	andeq	r0, r0, ip
 a68:	ffffffff 			; <UNDEFINED> instruction: 0xffffffff
 a6c:	7c020001 	stcvc	0, cr0, [r2], {1}
 a70:	000d0c0e 	andeq	r0, sp, lr, lsl #24
 a74:	0000000c 	andeq	r0, r0, ip
 a78:	00000a64 	andeq	r0, r0, r4, ror #20
 a7c:	0000ae10 	andeq	sl, r0, r0, lsl lr
 a80:	00000010 	andeq	r0, r0, r0, lsl r0
 a84:	0000000c 	andeq	r0, r0, ip
 a88:	00000a64 	andeq	r0, r0, r4, ror #20
 a8c:	0000ae20 	andeq	sl, r0, r0, lsr #28
 a90:	0000000c 	andeq	r0, r0, ip
 a94:	00000014 	andeq	r0, r0, r4, lsl r0
 a98:	00000a64 	andeq	r0, r0, r4, ror #20
 a9c:	0000ae2c 	andeq	sl, r0, ip, lsr #28
 aa0:	00000050 	andeq	r0, r0, r0, asr r0
 aa4:	84080e52 	strhi	r0, [r8], #-3666	; 0xe52
 aa8:	00018e02 	andeq	r8, r1, r2, lsl #28
 aac:	00000014 	andeq	r0, r0, r4, lsl r0
 ab0:	00000a64 	andeq	r0, r0, r4, ror #20
 ab4:	0000ae7c 	andeq	sl, r0, ip, ror lr
 ab8:	00000064 	andeq	r0, r0, r4, rrx
 abc:	84080e42 	strhi	r0, [r8], #-3650	; 0xe42
 ac0:	00018e02 	andeq	r8, r1, r2, lsl #28
 ac4:	0000000c 	andeq	r0, r0, ip
 ac8:	00000a64 	andeq	r0, r0, r4, ror #20
 acc:	0000aee0 	andeq	sl, r0, r0, ror #29
 ad0:	00000004 	andeq	r0, r0, r4
 ad4:	00000014 	andeq	r0, r0, r4, lsl r0
 ad8:	00000a64 	andeq	r0, r0, r4, ror #20
 adc:	0000aee4 	andeq	sl, r0, r4, ror #29
 ae0:	0000000c 	andeq	r0, r0, ip
 ae4:	84080e42 	strhi	r0, [r8], #-3650	; 0xe42
 ae8:	00018e02 	andeq	r8, r1, r2, lsl #28
 aec:	00000014 	andeq	r0, r0, r4, lsl r0
 af0:	00000a64 	andeq	r0, r0, r4, ror #20
 af4:	0000aef0 	strdeq	sl, [r0], -r0
 af8:	0000008c 	andeq	r0, r0, ip, lsl #1
 afc:	84080e42 	strhi	r0, [r8], #-3650	; 0xe42
 b00:	00018e02 	andeq	r8, r1, r2, lsl #28
 b04:	0000000c 	andeq	r0, r0, ip
 b08:	00000a64 	andeq	r0, r0, r4, ror #20
 b0c:	0000af7c 	andeq	sl, r0, ip, ror pc
 b10:	00000004 	andeq	r0, r0, r4
 b14:	0000000c 	andeq	r0, r0, ip
 b18:	00000a64 	andeq	r0, r0, r4, ror #20
 b1c:	0000af80 	andeq	sl, r0, r0, lsl #31
 b20:	00000014 	andeq	r0, r0, r4, lsl r0
 b24:	0000000c 	andeq	r0, r0, ip
 b28:	00000a64 	andeq	r0, r0, r4, ror #20
 b2c:	0000af94 	muleq	r0, r4, pc	; <UNPREDICTABLE>
 b30:	00000010 	andeq	r0, r0, r0, lsl r0

Disassembly of section .debug_loc:

00000000 <.debug_loc>:
       0:	00000010 	andeq	r0, r0, r0, lsl r0
       4:	00000023 	andeq	r0, r0, r3, lsr #32
       8:	23500001 	cmpcs	r0, #1
       c:	44000000 	strmi	r0, [r0], #-0
      10:	04000000 	streq	r0, [r0], #-0
      14:	5001f300 	andpl	pc, r1, r0, lsl #6
      18:	0000449f 	muleq	r0, pc, r4	; <UNPREDICTABLE>
      1c:	00005b00 	andeq	r5, r0, r0, lsl #22
      20:	50000100 	andpl	r0, r0, r0, lsl #2
      24:	0000005b 	andeq	r0, r0, fp, asr r0
      28:	0000007c 	andeq	r0, r0, ip, ror r0
      2c:	01f30004 	mvnseq	r0, r4
      30:	007c9f50 	rsbseq	r9, ip, r0, asr pc
      34:	00800000 	addeq	r0, r0, r0
      38:	00010000 	andeq	r0, r1, r0
      3c:	00008050 	andeq	r8, r0, r0, asr r0
      40:	0000a000 	andeq	sl, r0, r0
      44:	f3000400 	vshl.u8	d0, d0, d0
      48:	009f5001 	addseq	r5, pc, r1
      4c:	00000000 	andeq	r0, r0, r0
      50:	10000000 	andne	r0, r0, r0
      54:	23000000 	movwcs	r0, #0
      58:	01000000 	mrseq	r0, (UNDEF: 0)
      5c:	00235100 	eoreq	r5, r3, r0, lsl #2
      60:	00440000 	subeq	r0, r4, r0
      64:	00040000 	andeq	r0, r4, r0
      68:	9f5101f3 	svcls	0x005101f3
      6c:	00000044 	andeq	r0, r0, r4, asr #32
      70:	00000048 	andeq	r0, r0, r8, asr #32
      74:	48510001 	ldmdami	r1, {r0}^
      78:	a0000000 	andge	r0, r0, r0
      7c:	04000000 	streq	r0, [r0], #-0
      80:	5101f300 	mrspl	pc, SP_irq	; <UNPREDICTABLE>
      84:	0000009f 	muleq	r0, pc, r0	; <UNPREDICTABLE>
      88:	00000000 	andeq	r0, r0, r0
      8c:	00004800 	andeq	r4, r0, r0, lsl #16
      90:	00005b00 	andeq	r5, r0, r0, lsl #22
      94:	51000100 	mrspl	r0, (UNDEF: 16)
      98:	0000005b 	andeq	r0, r0, fp, asr r0
      9c:	0000007c 	andeq	r0, r0, ip, ror r0
      a0:	01f30006 	mvnseq	r0, r6
      a4:	9f254451 	svcls	0x00254451
      a8:	0000007c 	andeq	r0, r0, ip, ror r0
      ac:	000000a0 	andeq	r0, r0, r0, lsr #1
      b0:	00510001 	subseq	r0, r1, r1
      b4:	00000000 	andeq	r0, r0, r0
      b8:	4c000000 	stcmi	0, cr0, [r0], {-0}
      bc:	5b000000 	blpl	c4 <__code_start__-0x7f3c>
      c0:	01000000 	mrseq	r0, (UNDEF: 0)
      c4:	005b5300 	subseq	r5, fp, r0, lsl #6
      c8:	007c0000 	rsbseq	r0, ip, r0
      cc:	000c0000 	andeq	r0, ip, r0
      d0:	445101f3 	ldrbmi	r0, [r1], #-499	; 0x1f3
      d4:	f3243225 	vhsub.u32	d3, d4, d21
      d8:	9f225001 	svcls	0x00225001
      dc:	0000007c 	andeq	r0, r0, ip, ror r0
      e0:	000000a0 	andeq	r0, r0, r0, lsr #1
      e4:	00530001 	subseq	r0, r3, r1
      e8:	00000000 	andeq	r0, r0, r0
      ec:	a0000000 	andge	r0, r0, r0
      f0:	c3000000 	movwgt	r0, #0
      f4:	01000000 	mrseq	r0, (UNDEF: 0)
      f8:	00c35000 	sbceq	r5, r3, r0
      fc:	01080000 	mrseq	r0, (UNDEF: 8)
     100:	00010000 	andeq	r0, r1, r0
     104:	00010858 	andeq	r0, r1, r8, asr r8
     108:	00011400 	andeq	r1, r1, r0, lsl #8
     10c:	50000100 	andpl	r0, r0, r0, lsl #2
     110:	00000114 	andeq	r0, r0, r4, lsl r1
     114:	00000128 	andeq	r0, r0, r8, lsr #2
     118:	28580001 	ldmdacs	r8, {r0}^
     11c:	38000001 	stmdacc	r0, {r0}
     120:	04000001 	streq	r0, [r0], #-1
     124:	5001f300 	andpl	pc, r1, r0, lsl #6
     128:	0000009f 	muleq	r0, pc, r0	; <UNPREDICTABLE>
     12c:	00000000 	andeq	r0, r0, r0
     130:	0000a000 	andeq	sl, r0, r0
     134:	0000b400 	andeq	fp, r0, r0, lsl #8
     138:	51000100 	mrspl	r0, (UNDEF: 16)
     13c:	000000b4 	strheq	r0, [r0], -r4
     140:	000000b8 	strheq	r0, [r0], -r8
     144:	01f30004 	mvnseq	r0, r4
     148:	00009f51 	andeq	r9, r0, r1, asr pc
     14c:	00000000 	andeq	r0, r0, r0
     150:	00a00000 	adceq	r0, r0, r0
     154:	00c30000 	sbceq	r0, r3, r0
     158:	00010000 	andeq	r0, r1, r0
     15c:	0000c352 	andeq	ip, r0, r2, asr r3
     160:	00010800 	andeq	r0, r1, r0, lsl #16
     164:	55000100 	strpl	r0, [r0, #-256]	; 0x100
     168:	00000108 	andeq	r0, r0, r8, lsl #2
     16c:	00000114 	andeq	r0, r0, r4, lsl r1
     170:	14520001 	ldrbne	r0, [r2], #-1
     174:	28000001 	stmdacs	r0, {r0}
     178:	01000001 	tsteq	r0, r1
     17c:	01285500 	teqeq	r8, r0, lsl #10
     180:	01380000 	teqeq	r8, r0
     184:	00040000 	andeq	r0, r4, r0
     188:	9f5201f3 	svcls	0x005201f3
	...
     194:	000000a0 	andeq	r0, r0, r0, lsr #1
     198:	000000c3 	andeq	r0, r0, r3, asr #1
     19c:	c3530001 	cmpgt	r3, #1
     1a0:	08000000 	stmdaeq	r0, {}	; <UNPREDICTABLE>
     1a4:	04000001 	streq	r0, [r0], #-1
     1a8:	5301f300 	movwpl	pc, #4864	; 0x1300	; <UNPREDICTABLE>
     1ac:	0001089f 	muleq	r1, pc, r8	; <UNPREDICTABLE>
     1b0:	00011400 	andeq	r1, r1, r0, lsl #8
     1b4:	53000100 	movwpl	r0, #256	; 0x100
     1b8:	00000114 	andeq	r0, r0, r4, lsl r1
     1bc:	00000138 	andeq	r0, r0, r8, lsr r1
     1c0:	01f30004 	mvnseq	r0, r4
     1c4:	00009f53 	andeq	r9, r0, r3, asr pc
     1c8:	00000000 	andeq	r0, r0, r0
     1cc:	00b00000 	adcseq	r0, r0, r0
     1d0:	00b40000 	adcseq	r0, r4, r0
     1d4:	00010000 	andeq	r0, r1, r0
     1d8:	0000b451 	andeq	fp, r0, r1, asr r4
     1dc:	00013800 	andeq	r3, r1, r0, lsl #16
     1e0:	f3000400 	vshl.u8	d0, d0, d0
     1e4:	009f5101 	addseq	r5, pc, r1, lsl #2
     1e8:	00000000 	andeq	r0, r0, r0
     1ec:	e4000000 	str	r0, [r0], #-0
     1f0:	08000000 	stmdaeq	r0, {}	; <UNPREDICTABLE>
     1f4:	01000001 	tsteq	r0, r1
     1f8:	01145400 	tsteq	r4, r0, lsl #8
     1fc:	01280000 	teqeq	r8, r0
     200:	00010000 	andeq	r0, r1, r0
     204:	00000054 	andeq	r0, r0, r4, asr r0
     208:	00000000 	andeq	r0, r0, r0
     20c:	0000f000 	andeq	pc, r0, r0
     210:	00010800 	andeq	r0, r1, r0, lsl #16
     214:	50000100 	andpl	r0, r0, r0, lsl #2
	...
     220:	00000138 	andeq	r0, r0, r8, lsr r1
     224:	00000143 	andeq	r0, r0, r3, asr #2
     228:	43500001 	cmpmi	r0, #1
     22c:	48000001 	stmdami	r0, {r0}
     230:	04000001 	streq	r0, [r0], #-1
     234:	5001f300 	andpl	pc, r1, r0, lsl #6
     238:	0000009f 	muleq	r0, pc, r0	; <UNPREDICTABLE>
     23c:	00000000 	andeq	r0, r0, r0
     240:	00013800 	andeq	r3, r1, r0, lsl #16
     244:	00014300 	andeq	r4, r1, r0, lsl #6
     248:	51000100 	mrspl	r0, (UNDEF: 16)
     24c:	00000143 	andeq	r0, r0, r3, asr #2
     250:	00000148 	andeq	r0, r0, r8, asr #2
     254:	01f30004 	mvnseq	r0, r4
     258:	00009f51 	andeq	r9, r0, r1, asr pc
     25c:	00000000 	andeq	r0, r0, r0
     260:	01380000 	teqeq	r8, r0
     264:	01430000 	mrseq	r0, (UNDEF: 67)
     268:	00010000 	andeq	r0, r1, r0
     26c:	00014352 	andeq	r4, r1, r2, asr r3
     270:	00014800 	andeq	r4, r1, r0, lsl #16
     274:	f3000400 	vshl.u8	d0, d0, d0
     278:	009f5201 	addseq	r5, pc, r1, lsl #4
     27c:	00000000 	andeq	r0, r0, r0
     280:	48000000 	stmdami	r0, {}	; <UNPREDICTABLE>
     284:	53000001 	movwpl	r0, #1
     288:	01000001 	tsteq	r0, r1
     28c:	01535000 	cmpeq	r3, r0
     290:	01580000 	cmpeq	r8, r0
     294:	00040000 	andeq	r0, r4, r0
     298:	9f5001f3 	svcls	0x005001f3
	...
     2a4:	00000148 	andeq	r0, r0, r8, asr #2
     2a8:	00000153 	andeq	r0, r0, r3, asr r1
     2ac:	53510001 	cmppl	r1, #1
     2b0:	58000001 	stmdapl	r0, {r0}
     2b4:	04000001 	streq	r0, [r0], #-1
     2b8:	5101f300 	mrspl	pc, SP_irq	; <UNPREDICTABLE>
     2bc:	0000009f 	muleq	r0, pc, r0	; <UNPREDICTABLE>
     2c0:	00000000 	andeq	r0, r0, r0
     2c4:	00014800 	andeq	r4, r1, r0, lsl #16
     2c8:	00015300 	andeq	r5, r1, r0, lsl #6
     2cc:	52000100 	andpl	r0, r0, #0, 2
     2d0:	00000153 	andeq	r0, r0, r3, asr r1
     2d4:	00000158 	andeq	r0, r0, r8, asr r1
     2d8:	01f30004 	mvnseq	r0, r4
     2dc:	00009f52 	andeq	r9, r0, r2, asr pc
     2e0:	00000000 	andeq	r0, r0, r0
     2e4:	01580000 	cmpeq	r8, r0
     2e8:	01630000 	cmneq	r3, r0
     2ec:	00010000 	andeq	r0, r1, r0
     2f0:	00016350 	andeq	r6, r1, r0, asr r3
     2f4:	00016800 	andeq	r6, r1, r0, lsl #16
     2f8:	f3000400 	vshl.u8	d0, d0, d0
     2fc:	009f5001 	addseq	r5, pc, r1
     300:	00000000 	andeq	r0, r0, r0
     304:	58000000 	stmdapl	r0, {}	; <UNPREDICTABLE>
     308:	63000001 	movwvs	r0, #1
     30c:	01000001 	tsteq	r0, r1
     310:	01635100 	cmneq	r3, r0, lsl #2
     314:	01680000 	cmneq	r8, r0
     318:	00040000 	andeq	r0, r4, r0
     31c:	9f5101f3 	svcls	0x005101f3
	...
     328:	00000158 	andeq	r0, r0, r8, asr r1
     32c:	00000163 	andeq	r0, r0, r3, ror #2
     330:	63520001 	cmpvs	r2, #1
     334:	68000001 	stmdavs	r0, {r0}
     338:	04000001 	streq	r0, [r0], #-1
     33c:	5201f300 	andpl	pc, r1, #0, 6
     340:	0000009f 	muleq	r0, pc, r0	; <UNPREDICTABLE>
     344:	00000000 	andeq	r0, r0, r0
     348:	00016800 	andeq	r6, r1, r0, lsl #16
     34c:	00017b00 	andeq	r7, r1, r0, lsl #22
     350:	50000100 	andpl	r0, r0, r0, lsl #2
     354:	0000017b 	andeq	r0, r0, fp, ror r1
     358:	0000019c 	muleq	r0, ip, r1
     35c:	01f30004 	mvnseq	r0, r4
     360:	019c9f50 	orrseq	r9, ip, r0, asr pc
     364:	01bf0000 			; <UNDEFINED> instruction: 0x01bf0000
     368:	00010000 	andeq	r0, r1, r0
     36c:	0001bf50 	andeq	fp, r1, r0, asr pc
     370:	0001e000 	andeq	lr, r1, r0
     374:	f3000400 	vshl.u8	d0, d0, d0
     378:	e09f5001 	adds	r5, pc, r1
     37c:	00000001 	andeq	r0, r0, r1
     380:	01000002 	tsteq	r0, r2
     384:	00005000 	andeq	r5, r0, r0
     388:	00000000 	andeq	r0, r0, r0
     38c:	01680000 	cmneq	r8, r0
     390:	017b0000 	cmneq	fp, r0
     394:	00010000 	andeq	r0, r1, r0
     398:	00017b51 	andeq	r7, r1, r1, asr fp
     39c:	00019c00 	andeq	r9, r1, r0, lsl #24
     3a0:	f3000400 	vshl.u8	d0, d0, d0
     3a4:	9c9f5101 	ldflss	f5, [pc], {1}
     3a8:	bf000001 	svclt	0x00000001
     3ac:	01000001 	tsteq	r0, r1
     3b0:	01bf5100 			; <UNDEFINED> instruction: 0x01bf5100
     3b4:	01e00000 	mvneq	r0, r0
     3b8:	00040000 	andeq	r0, r4, r0
     3bc:	9f5101f3 	svcls	0x005101f3
     3c0:	000001e0 	andeq	r0, r0, r0, ror #3
     3c4:	00000200 	andeq	r0, r0, r0, lsl #4
     3c8:	00510001 	subseq	r0, r1, r1
	...
     3d4:	1f000002 	svcne	0x00000002
     3d8:	01000002 	tsteq	r0, r2
     3dc:	021f5000 	andseq	r5, pc, #0
     3e0:	02400000 	subeq	r0, r0, #0
     3e4:	00010000 	andeq	r0, r1, r0
     3e8:	00024054 	andeq	r4, r2, r4, asr r0
     3ec:	00024b00 	andeq	r4, r2, r0, lsl #22
     3f0:	50000100 	andpl	r0, r0, r0, lsl #2
     3f4:	0000024b 	andeq	r0, r0, fp, asr #4
     3f8:	0000026c 	andeq	r0, r0, ip, ror #4
     3fc:	6c540001 	mrrcvs	0, 0, r0, r4, cr1
     400:	77000002 	strvc	r0, [r0, -r2]
     404:	01000002 	tsteq	r0, r2
     408:	02775000 	rsbseq	r5, r7, #0
     40c:	02980000 	addseq	r0, r8, #0
     410:	00010000 	andeq	r0, r1, r0
     414:	00029854 	andeq	r9, r2, r4, asr r8
     418:	0002b300 	andeq	fp, r2, r0, lsl #6
     41c:	50000100 	andpl	r0, r0, r0, lsl #2
     420:	000002b3 			; <UNDEFINED> instruction: 0x000002b3
     424:	000002d4 	ldrdeq	r0, [r0], -r4
     428:	d4540001 	ldrble	r0, [r4], #-1
     42c:	d7000002 	strle	r0, [r0, -r2]
     430:	01000002 	tsteq	r0, r2
     434:	02d75000 	sbcseq	r5, r7, #0
     438:	03680000 	cmneq	r8, #0
     43c:	00010000 	andeq	r0, r1, r0
     440:	00036854 	andeq	r6, r3, r4, asr r8
     444:	00039400 	andeq	r9, r3, r0, lsl #8
     448:	f3000400 	vshl.u8	d0, d0, d0
     44c:	009f5001 	addseq	r5, pc, r1
	...
     458:	1f000002 	svcne	0x00000002
     45c:	01000002 	tsteq	r0, r2
     460:	021f5100 	andseq	r5, pc, #0, 2
     464:	02400000 	subeq	r0, r0, #0
     468:	00040000 	andeq	r0, r4, r0
     46c:	9f5101f3 	svcls	0x005101f3
     470:	00000240 	andeq	r0, r0, r0, asr #4
     474:	0000024b 	andeq	r0, r0, fp, asr #4
     478:	4b510001 	blmi	1440484 <__bss_end__+0x1433e3c>
     47c:	6c000002 	stcvs	0, cr0, [r0], {2}
     480:	04000002 	streq	r0, [r0], #-2
     484:	5101f300 	mrspl	pc, SP_irq	; <UNPREDICTABLE>
     488:	00026c9f 	muleq	r2, pc, ip	; <UNPREDICTABLE>
     48c:	00027700 	andeq	r7, r2, r0, lsl #14
     490:	51000100 	mrspl	r0, (UNDEF: 16)
     494:	00000277 	andeq	r0, r0, r7, ror r2
     498:	00000298 	muleq	r0, r8, r2
     49c:	01f30004 	mvnseq	r0, r4
     4a0:	02989f51 	addseq	r9, r8, #324	; 0x144
     4a4:	02b30000 	adcseq	r0, r3, #0
     4a8:	00010000 	andeq	r0, r1, r0
     4ac:	0002b351 	andeq	fp, r2, r1, asr r3
     4b0:	0002d400 	andeq	sp, r2, r0, lsl #8
     4b4:	f3000400 	vshl.u8	d0, d0, d0
     4b8:	d49f5101 	ldrle	r5, [pc], #257	; 4c0 <__code_start__-0x7b40>
     4bc:	d7000002 	strle	r0, [r0, -r2]
     4c0:	01000002 	tsteq	r0, r2
     4c4:	02d75100 	sbcseq	r5, r7, #0, 2
     4c8:	03940000 	orrseq	r0, r4, #0
     4cc:	00040000 	andeq	r0, r4, r0
     4d0:	9f5101f3 	svcls	0x005101f3
	...
     4dc:	00000200 	andeq	r0, r0, r0, lsl #4
     4e0:	0000021f 	andeq	r0, r0, pc, lsl r2
     4e4:	1f520001 	svcne	0x00520001
     4e8:	40000002 	andmi	r0, r0, r2
     4ec:	01000002 	tsteq	r0, r2
     4f0:	02405900 	subeq	r5, r0, #0, 18
     4f4:	024b0000 	subeq	r0, fp, #0
     4f8:	00010000 	andeq	r0, r1, r0
     4fc:	00024b52 	andeq	r4, r2, r2, asr fp
     500:	00026c00 	andeq	r6, r2, r0, lsl #24
     504:	59000100 	stmdbpl	r0, {r8}
     508:	0000026c 	andeq	r0, r0, ip, ror #4
     50c:	00000277 	andeq	r0, r0, r7, ror r2
     510:	77520001 	ldrbvc	r0, [r2, -r1]
     514:	98000002 	stmdals	r0, {r1}
     518:	01000002 	tsteq	r0, r2
     51c:	02985900 	addseq	r5, r8, #0, 18
     520:	02b30000 	adcseq	r0, r3, #0
     524:	00010000 	andeq	r0, r1, r0
     528:	0002b352 	andeq	fp, r2, r2, asr r3
     52c:	0002d400 	andeq	sp, r2, r0, lsl #8
     530:	59000100 	stmdbpl	r0, {r8}
     534:	000002d4 	ldrdeq	r0, [r0], -r4
     538:	000002d7 	ldrdeq	r0, [r0], -r7
     53c:	d7520001 	ldrble	r0, [r2, -r1]
     540:	68000002 	stmdavs	r0, {r1}
     544:	01000003 	tsteq	r0, r3
     548:	03685900 	cmneq	r8, #0, 18
     54c:	03940000 	orrseq	r0, r4, #0
     550:	00040000 	andeq	r0, r4, r0
     554:	9f5201f3 	svcls	0x005201f3
	...
     560:	00000200 	andeq	r0, r0, r0, lsl #4
     564:	0000021f 	andeq	r0, r0, pc, lsl r2
     568:	1f530001 	svcne	0x00530001
     56c:	40000002 	andmi	r0, r0, r2
     570:	01000002 	tsteq	r0, r2
     574:	02405800 	subeq	r5, r0, #0, 16
     578:	024b0000 	subeq	r0, fp, #0
     57c:	00010000 	andeq	r0, r1, r0
     580:	00024b53 	andeq	r4, r2, r3, asr fp
     584:	00026c00 	andeq	r6, r2, r0, lsl #24
     588:	58000100 	stmdapl	r0, {r8}
     58c:	0000026c 	andeq	r0, r0, ip, ror #4
     590:	00000277 	andeq	r0, r0, r7, ror r2
     594:	77530001 	ldrbvc	r0, [r3, -r1]
     598:	98000002 	stmdals	r0, {r1}
     59c:	01000002 	tsteq	r0, r2
     5a0:	02985800 	addseq	r5, r8, #0, 16
     5a4:	02a80000 	adceq	r0, r8, #0
     5a8:	00010000 	andeq	r0, r1, r0
     5ac:	0002a853 	andeq	sl, r2, r3, asr r8
     5b0:	00030000 	andeq	r0, r3, r0
     5b4:	58000100 	stmdapl	r0, {r8}
     5b8:	00000300 	andeq	r0, r0, r0, lsl #6
     5bc:	00000394 	muleq	r0, r4, r3
     5c0:	01f30004 	mvnseq	r0, r4
     5c4:	00009f53 	andeq	r9, r0, r3, asr pc
     5c8:	00000000 	andeq	r0, r0, r0
     5cc:	029c0000 	addseq	r0, ip, #0
     5d0:	03680000 	cmneq	r8, #0
     5d4:	00010000 	andeq	r0, r1, r0
     5d8:	00036856 	andeq	r6, r3, r6, asr r8
     5dc:	00039400 	andeq	r9, r3, r0, lsl #8
     5e0:	f3000600 	vmax.u8	d0, d0, d0
     5e4:	25445101 	strbcs	r5, [r4, #-257]	; 0x101
     5e8:	0000009f 	muleq	r0, pc, r0	; <UNPREDICTABLE>
     5ec:	00000000 	andeq	r0, r0, r0
     5f0:	0002a400 	andeq	sl, r2, r0, lsl #8
     5f4:	00036800 	andeq	r6, r3, r0, lsl #16
     5f8:	55000100 	strpl	r0, [r0, #-256]	; 0x100
     5fc:	00000368 	andeq	r0, r0, r8, ror #6
     600:	00000394 	muleq	r0, r4, r3
     604:	00500001 	subseq	r0, r0, r1
     608:	00000000 	andeq	r0, r0, r0
     60c:	94000000 	strls	r0, [r0], #-0
     610:	bb000003 	bllt	624 <__code_start__-0x79dc>
     614:	01000003 	tsteq	r0, r3
     618:	03bb5000 			; <UNDEFINED> instruction: 0x03bb5000
     61c:	03dc0000 	bicseq	r0, ip, #0
     620:	00010000 	andeq	r0, r1, r0
     624:	0003dc59 	andeq	sp, r3, r9, asr ip
     628:	0003e700 	andeq	lr, r3, r0, lsl #14
     62c:	50000100 	andpl	r0, r0, r0, lsl #2
     630:	000003e7 	andeq	r0, r0, r7, ror #7
     634:	00000408 	andeq	r0, r0, r8, lsl #8
     638:	08590001 	ldmdaeq	r9, {r0}^
     63c:	13000004 	movwne	r0, #4
     640:	01000004 	tsteq	r0, r4
     644:	04135000 	ldreq	r5, [r3], #-0
     648:	04580000 	ldrbeq	r0, [r8], #-0
     64c:	00010000 	andeq	r0, r1, r0
     650:	00045859 	andeq	r5, r4, r9, asr r8
     654:	00045c00 	andeq	r5, r4, r0, lsl #24
     658:	50000100 	andpl	r0, r0, r0, lsl #2
     65c:	0000045c 	andeq	r0, r0, ip, asr r4
     660:	0000046c 	andeq	r0, r0, ip, ror #8
     664:	6c590001 	mrrcvs	0, 0, r0, r9, cr1
     668:	84000004 	strhi	r0, [r0], #-4
     66c:	04000004 	streq	r0, [r0], #-4
     670:	5001f300 	andpl	pc, r1, r0, lsl #6
     674:	0000009f 	muleq	r0, pc, r0	; <UNPREDICTABLE>
     678:	00000000 	andeq	r0, r0, r0
     67c:	00039400 	andeq	r9, r3, r0, lsl #8
     680:	0003bb00 	andeq	fp, r3, r0, lsl #22
     684:	51000100 	mrspl	r0, (UNDEF: 16)
     688:	000003bb 			; <UNDEFINED> instruction: 0x000003bb
     68c:	000003dc 	ldrdeq	r0, [r0], -ip
     690:	dc550001 	mrrcle	0, 0, r0, r5, cr1
     694:	e7000003 	str	r0, [r0, -r3]
     698:	01000003 	tsteq	r0, r3
     69c:	03e75100 	mvneq	r5, #0, 2
     6a0:	04080000 	streq	r0, [r8], #-0
     6a4:	00010000 	andeq	r0, r1, r0
     6a8:	00040855 	andeq	r0, r4, r5, asr r8
     6ac:	00041300 	andeq	r1, r4, r0, lsl #6
     6b0:	51000100 	mrspl	r0, (UNDEF: 16)
     6b4:	00000413 	andeq	r0, r0, r3, lsl r4
     6b8:	00000458 	andeq	r0, r0, r8, asr r4
     6bc:	58550001 	ldmdapl	r5, {r0}^
     6c0:	5c000004 	stcpl	0, cr0, [r0], {4}
     6c4:	01000004 	tsteq	r0, r4
     6c8:	045c5100 	ldrbeq	r5, [ip], #-256	; 0x100
     6cc:	046c0000 	strbteq	r0, [ip], #-0
     6d0:	00010000 	andeq	r0, r1, r0
     6d4:	00000055 	andeq	r0, r0, r5, asr r0
     6d8:	00000000 	andeq	r0, r0, r0
     6dc:	00039400 	andeq	r9, r3, r0, lsl #8
     6e0:	0003bb00 	andeq	fp, r3, r0, lsl #22
     6e4:	52000100 	andpl	r0, r0, #0, 2
     6e8:	000003bb 			; <UNDEFINED> instruction: 0x000003bb
     6ec:	000003dc 	ldrdeq	r0, [r0], -ip
     6f0:	dc560001 	mrrcle	0, 0, r0, r6, cr1
     6f4:	e7000003 	str	r0, [r0, -r3]
     6f8:	01000003 	tsteq	r0, r3
     6fc:	03e75200 	mvneq	r5, #0, 4
     700:	04080000 	streq	r0, [r8], #-0
     704:	00010000 	andeq	r0, r1, r0
     708:	00040856 	andeq	r0, r4, r6, asr r8
     70c:	00041300 	andeq	r1, r4, r0, lsl #6
     710:	52000100 	andpl	r0, r0, #0, 2
     714:	00000413 	andeq	r0, r0, r3, lsl r4
     718:	00000458 	andeq	r0, r0, r8, asr r4
     71c:	58560001 	ldmdapl	r6, {r0}^
     720:	5c000004 	stcpl	0, cr0, [r0], {4}
     724:	01000004 	tsteq	r0, r4
     728:	045c5200 	ldrbeq	r5, [ip], #-512	; 0x200
     72c:	046c0000 	strbteq	r0, [ip], #-0
     730:	00010000 	andeq	r0, r1, r0
     734:	00000056 	andeq	r0, r0, r6, asr r0
     738:	00000000 	andeq	r0, r0, r0
     73c:	00039400 	andeq	r9, r3, r0, lsl #8
     740:	0003bb00 	andeq	fp, r3, r0, lsl #22
     744:	53000100 	movwpl	r0, #256	; 0x100
     748:	000003bb 			; <UNDEFINED> instruction: 0x000003bb
     74c:	000003dc 	ldrdeq	r0, [r0], -ip
     750:	dc570001 	mrrcle	0, 0, r0, r7, cr1
     754:	e7000003 	str	r0, [r0, -r3]
     758:	01000003 	tsteq	r0, r3
     75c:	03e75300 	mvneq	r5, #0, 6
     760:	04080000 	streq	r0, [r8], #-0
     764:	00010000 	andeq	r0, r1, r0
     768:	00040857 	andeq	r0, r4, r7, asr r8
     76c:	00041300 	andeq	r1, r4, r0, lsl #6
     770:	53000100 	movwpl	r0, #256	; 0x100
     774:	00000413 	andeq	r0, r0, r3, lsl r4
     778:	00000458 	andeq	r0, r0, r8, asr r4
     77c:	58570001 	ldmdapl	r7, {r0}^
     780:	5c000004 	stcpl	0, cr0, [r0], {4}
     784:	01000004 	tsteq	r0, r4
     788:	045c5300 	ldrbeq	r5, [ip], #-768	; 0x300
     78c:	046c0000 	strbteq	r0, [ip], #-0
     790:	00010000 	andeq	r0, r1, r0
     794:	00046c57 	andeq	r6, r4, r7, asr ip
     798:	00048400 	andeq	r8, r4, r0, lsl #8
     79c:	f3000400 	vshl.u8	d0, d0, d0
     7a0:	009f5301 	addseq	r5, pc, r1, lsl #6
     7a4:	00000000 	andeq	r0, r0, r0
     7a8:	34000000 	strcc	r0, [r0], #-0
     7ac:	58000004 	stmdapl	r0, {r2}
     7b0:	01000004 	tsteq	r0, r4
     7b4:	045c5400 	ldrbeq	r5, [ip], #-1024	; 0x400
     7b8:	046c0000 	strbteq	r0, [ip], #-0
     7bc:	00010000 	andeq	r0, r1, r0
     7c0:	00000054 	andeq	r0, r0, r4, asr r0
     7c4:	00000000 	andeq	r0, r0, r0
     7c8:	00048400 	andeq	r8, r4, r0, lsl #8
     7cc:	00049b00 	andeq	r9, r4, r0, lsl #22
     7d0:	50000100 	andpl	r0, r0, r0, lsl #2
     7d4:	0000049b 	muleq	r0, fp, r4
     7d8:	000004bc 			; <UNDEFINED> instruction: 0x000004bc
     7dc:	bc540001 	mrrclt	0, 0, r0, r4, cr1
     7e0:	c7000004 	strgt	r0, [r0, -r4]
     7e4:	01000004 	tsteq	r0, r4
     7e8:	04c75000 	strbeq	r5, [r7], #0
     7ec:	04e80000 	strbteq	r0, [r8], #0
     7f0:	00010000 	andeq	r0, r1, r0
     7f4:	0004e854 	andeq	lr, r4, r4, asr r8
     7f8:	0004f300 	andeq	pc, r4, r0, lsl #6
     7fc:	50000100 	andpl	r0, r0, r0, lsl #2
     800:	000004f3 	strdeq	r0, [r0], -r3
     804:	00000500 	andeq	r0, r0, r0, lsl #10
     808:	00540001 	subseq	r0, r4, r1
     80c:	18000005 	stmdane	r0, {r0, r2}
     810:	01000005 	tsteq	r0, r5
     814:	00005000 	andeq	r5, r0, r0
     818:	00000000 	andeq	r0, r0, r0
     81c:	04840000 	streq	r0, [r4], #0
     820:	049b0000 	ldreq	r0, [fp], #0
     824:	00010000 	andeq	r0, r1, r0
     828:	00049b51 	andeq	r9, r4, r1, asr fp
     82c:	0004bc00 	andeq	fp, r4, r0, lsl #24
     830:	f3000400 	vshl.u8	d0, d0, d0
     834:	bc9f5101 	ldflts	f5, [pc], {1}
     838:	c7000004 	strgt	r0, [r0, -r4]
     83c:	01000004 	tsteq	r0, r4
     840:	04c75100 	strbeq	r5, [r7], #256	; 0x100
     844:	04e80000 	strbteq	r0, [r8], #0
     848:	00040000 	andeq	r0, r4, r0
     84c:	9f5101f3 	svcls	0x005101f3
     850:	000004e8 	andeq	r0, r0, r8, ror #9
     854:	000004ec 	andeq	r0, r0, ip, ror #9
     858:	ec510001 	mrrc	0, 0, r0, r1, cr1
     85c:	18000004 	stmdane	r0, {r2}
     860:	04000005 	streq	r0, [r0], #-5
     864:	5101f300 	mrspl	pc, SP_irq	; <UNPREDICTABLE>
     868:	0000009f 	muleq	r0, pc, r0	; <UNPREDICTABLE>
     86c:	00000000 	andeq	r0, r0, r0
     870:	0004bc00 	andeq	fp, r4, r0, lsl #24
     874:	0004c700 	andeq	ip, r4, r0, lsl #14
     878:	50000100 	andpl	r0, r0, r0, lsl #2
     87c:	000004c7 	andeq	r0, r0, r7, asr #9
     880:	000004e8 	andeq	r0, r0, r8, ror #9
     884:	e8540001 	ldmda	r4, {r0}^
     888:	f3000004 	vhadd.u8	d0, d0, d4
     88c:	01000004 	tsteq	r0, r4
     890:	04f35000 	ldrbteq	r5, [r3], #0
     894:	05000000 	streq	r0, [r0, #-0]
     898:	00010000 	andeq	r0, r1, r0
     89c:	00050054 	andeq	r0, r5, r4, asr r0
     8a0:	00051800 	andeq	r1, r5, r0, lsl #16
     8a4:	50000100 	andpl	r0, r0, r0, lsl #2
	...
     8b0:	00000518 	andeq	r0, r0, r8, lsl r5
     8b4:	0000052b 	andeq	r0, r0, fp, lsr #10
     8b8:	2b500001 	blcs	14008c4 <__bss_end__+0x13f427c>
     8bc:	4c000005 	stcmi	0, cr0, [r0], {5}
     8c0:	04000005 	streq	r0, [r0], #-5
     8c4:	5001f300 	andpl	pc, r1, r0, lsl #6
     8c8:	00054c9f 	muleq	r5, pc, ip	; <UNPREDICTABLE>
     8cc:	00055300 	andeq	r5, r5, r0, lsl #6
     8d0:	50000100 	andpl	r0, r0, r0, lsl #2
     8d4:	00000553 	andeq	r0, r0, r3, asr r5
     8d8:	000005a8 	andeq	r0, r0, r8, lsr #11
     8dc:	01f30004 	mvnseq	r0, r4
     8e0:	00009f50 	andeq	r9, r0, r0, asr pc
     8e4:	00000000 	andeq	r0, r0, r0
     8e8:	05540000 	ldrbeq	r0, [r4, #-0]
     8ec:	055f0000 	ldrbeq	r0, [pc, #-0]	; 8f4 <__code_start__-0x770c>
     8f0:	00010000 	andeq	r0, r1, r0
     8f4:	00058050 	andeq	r8, r5, r0, asr r0
     8f8:	00058700 	andeq	r8, r5, r0, lsl #14
     8fc:	50000100 	andpl	r0, r0, r0, lsl #2
	...
     908:	000005c4 	andeq	r0, r0, r4, asr #11
     90c:	000005cf 	andeq	r0, r0, pc, asr #11
     910:	f0500001 			; <UNDEFINED> instruction: 0xf0500001
     914:	fb000005 	blx	932 <__code_start__-0x76ce>
     918:	01000005 	tsteq	r0, r5
     91c:	061c5000 	ldreq	r5, [ip], -r0
     920:	06380000 	ldrteq	r0, [r8], -r0
     924:	00010000 	andeq	r0, r1, r0
     928:	00000050 	andeq	r0, r0, r0, asr r0
     92c:	00000000 	andeq	r0, r0, r0
     930:	00064400 	andeq	r4, r6, r0, lsl #8
     934:	00065700 	andeq	r5, r6, r0, lsl #14
     938:	50000100 	andpl	r0, r0, r0, lsl #2
     93c:	00000678 	andeq	r0, r0, r8, ror r6
     940:	00000683 	andeq	r0, r0, r3, lsl #13
     944:	a4500001 	ldrbge	r0, [r0], #-1
     948:	a7000006 	strge	r0, [r0, -r6]
     94c:	01000006 	tsteq	r0, r6
     950:	00005000 	andeq	r5, r0, r0
     954:	00000000 	andeq	r0, r0, r0
     958:	06d00000 	ldrbeq	r0, [r0], r0
     95c:	06db0000 	ldrbeq	r0, [fp], r0
     960:	00010000 	andeq	r0, r1, r0
     964:	0006fc50 	andeq	pc, r6, r0, asr ip	; <UNPREDICTABLE>
     968:	00070000 	andeq	r0, r7, r0
     96c:	50000100 	andpl	r0, r0, r0, lsl #2
	...
     978:	0000071c 	andeq	r0, r0, ip, lsl r7
     97c:	0000072f 	andeq	r0, r0, pc, lsr #14
     980:	50500001 	subspl	r0, r0, r1
     984:	53000007 	movwpl	r0, #7
     988:	01000007 	tsteq	r0, r7
     98c:	00005000 	andeq	r5, r0, r0
     990:	00000000 	andeq	r0, r0, r0
     994:	07780000 	ldrbeq	r0, [r8, -r0]!
     998:	07830000 	streq	r0, [r3, r0]
     99c:	00010000 	andeq	r0, r1, r0
     9a0:	0007a450 	andeq	sl, r7, r0, asr r4
     9a4:	0007a800 	andeq	sl, r7, r0, lsl #16
     9a8:	50000100 	andpl	r0, r0, r0, lsl #2
	...
     9b4:	000007cc 	andeq	r0, r0, ip, asr #15
     9b8:	000007d3 	ldrdeq	r0, [r0], -r3
     9bc:	d3500001 	cmple	r0, #1
     9c0:	d8000007 	stmdale	r0, {r0, r1, r2}
     9c4:	04000007 	streq	r0, [r0], #-7
     9c8:	5001f300 	andpl	pc, r1, r0, lsl #6
     9cc:	0000009f 	muleq	r0, pc, r0	; <UNPREDICTABLE>
     9d0:	00000000 	andeq	r0, r0, r0
     9d4:	0007d800 	andeq	sp, r7, r0, lsl #16
     9d8:	0007eb00 	andeq	lr, r7, r0, lsl #22
     9dc:	50000100 	andpl	r0, r0, r0, lsl #2
     9e0:	000007eb 	andeq	r0, r0, fp, ror #15
     9e4:	0000080c 	andeq	r0, r0, ip, lsl #16
     9e8:	01f30004 	mvnseq	r0, r4
     9ec:	080c9f50 	stmdaeq	ip, {r4, r6, r8, r9, sl, fp, ip, pc}
     9f0:	08170000 	ldmdaeq	r7, {}	; <UNPREDICTABLE>
     9f4:	00010000 	andeq	r0, r1, r0
     9f8:	00081750 	andeq	r1, r8, r0, asr r7
     9fc:	00083800 	andeq	r3, r8, r0, lsl #16
     a00:	f3000400 	vshl.u8	d0, d0, d0
     a04:	389f5001 	ldmcc	pc, {r0, ip, lr}	; <UNPREDICTABLE>
     a08:	47000008 	strmi	r0, [r0, -r8]
     a0c:	01000008 	tsteq	r0, r8
     a10:	08475000 	stmdaeq	r7, {ip, lr}^
     a14:	08680000 	stmdaeq	r8!, {}^	; <UNPREDICTABLE>
     a18:	00040000 	andeq	r0, r4, r0
     a1c:	9f5001f3 	svcls	0x005001f3
     a20:	00000868 	andeq	r0, r0, r8, ror #16
     a24:	0000086c 	andeq	r0, r0, ip, ror #16
     a28:	6c500001 	mrrcvs	0, 0, r0, r0, cr1	; <UNPREDICTABLE>
     a2c:	94000008 	strls	r0, [r0], #-8
     a30:	04000008 	streq	r0, [r0], #-8
     a34:	5001f300 	andpl	pc, r1, r0, lsl #6
     a38:	0000009f 	muleq	r0, pc, r0	; <UNPREDICTABLE>
     a3c:	00000000 	andeq	r0, r0, r0
     a40:	0007d800 	andeq	sp, r7, r0, lsl #16
     a44:	0007eb00 	andeq	lr, r7, r0, lsl #22
     a48:	51000100 	mrspl	r0, (UNDEF: 16)
     a4c:	000007eb 	andeq	r0, r0, fp, ror #15
     a50:	0000080c 	andeq	r0, r0, ip, lsl #16
     a54:	01f30004 	mvnseq	r0, r4
     a58:	080c9f51 	stmdaeq	ip, {r0, r4, r6, r8, r9, sl, fp, ip, pc}
     a5c:	08170000 	ldmdaeq	r7, {}	; <UNPREDICTABLE>
     a60:	00010000 	andeq	r0, r1, r0
     a64:	00081751 	andeq	r1, r8, r1, asr r7
     a68:	00083800 	andeq	r3, r8, r0, lsl #16
     a6c:	f3000400 	vshl.u8	d0, d0, d0
     a70:	389f5101 	ldmcc	pc, {r0, r8, ip, lr}	; <UNPREDICTABLE>
     a74:	47000008 	strmi	r0, [r0, -r8]
     a78:	01000008 	tsteq	r0, r8
     a7c:	08475100 	stmdaeq	r7, {r8, ip, lr}^
     a80:	08680000 	stmdaeq	r8!, {}^	; <UNPREDICTABLE>
     a84:	00040000 	andeq	r0, r4, r0
     a88:	9f5101f3 	svcls	0x005101f3
     a8c:	00000868 	andeq	r0, r0, r8, ror #16
     a90:	00000870 	andeq	r0, r0, r0, ror r8
     a94:	70510001 	subsvc	r0, r1, r1
     a98:	73000008 	movwvc	r0, #8
     a9c:	03000008 	movweq	r0, #8
     aa0:	9f017300 	svcls	0x00017300
     aa4:	00000873 	andeq	r0, r0, r3, ror r8
     aa8:	00000894 	muleq	r0, r4, r8
     aac:	01f30004 	mvnseq	r0, r4
     ab0:	00009f51 	andeq	r9, r0, r1, asr pc
     ab4:	00000000 	andeq	r0, r0, r0
     ab8:	07d80000 	ldrbeq	r0, [r8, r0]
     abc:	07eb0000 	strbeq	r0, [fp, r0]!
     ac0:	00010000 	andeq	r0, r1, r0
     ac4:	0007eb52 	andeq	lr, r7, r2, asr fp
     ac8:	00080c00 	andeq	r0, r8, r0, lsl #24
     acc:	f3000400 	vshl.u8	d0, d0, d0
     ad0:	0c9f5201 	lfmeq	f5, 4, [pc], {1}
     ad4:	17000008 	strne	r0, [r0, -r8]
     ad8:	01000008 	tsteq	r0, r8
     adc:	08175200 	ldmdaeq	r7, {r9, ip, lr}
     ae0:	08380000 	ldmdaeq	r8!, {}	; <UNPREDICTABLE>
     ae4:	00040000 	andeq	r0, r4, r0
     ae8:	9f5201f3 	svcls	0x005201f3
     aec:	00000838 	andeq	r0, r0, r8, lsr r8
     af0:	00000847 	andeq	r0, r0, r7, asr #16
     af4:	47520001 	ldrbmi	r0, [r2, -r1]
     af8:	68000008 	stmdavs	r0, {r3}
     afc:	04000008 	streq	r0, [r0], #-8
     b00:	5201f300 	andpl	pc, r1, #0, 6
     b04:	0008689f 	muleq	r8, pc, r8	; <UNPREDICTABLE>
     b08:	00087300 	andeq	r7, r8, r0, lsl #6
     b0c:	52000100 	andpl	r0, r0, #0, 2
     b10:	00000873 	andeq	r0, r0, r3, ror r8
     b14:	00000894 	muleq	r0, r4, r8
     b18:	01f30004 	mvnseq	r0, r4
     b1c:	00009f52 	andeq	r9, r0, r2, asr pc
     b20:	00000000 	andeq	r0, r0, r0
     b24:	08940000 	ldmeq	r4, {}	; <UNPREDICTABLE>
     b28:	08a30000 	stmiaeq	r3!, {}	; <UNPREDICTABLE>
     b2c:	00010000 	andeq	r0, r1, r0
     b30:	0008a350 	andeq	sl, r8, r0, asr r3
     b34:	0008dc00 	andeq	sp, r8, r0, lsl #24
     b38:	54000100 	strpl	r0, [r0], #-256	; 0x100
	...
     b48:	00000010 	andeq	r0, r0, r0, lsl r0
     b4c:	10500001 	subsne	r0, r0, r1
     b50:	34000000 	strcc	r0, [r0], #-0
     b54:	01000000 	mrseq	r0, (UNDEF: 0)
     b58:	00005500 	andeq	r5, r0, r0, lsl #10
	...
     b64:	00140000 	andseq	r0, r4, r0
     b68:	00010000 	andeq	r0, r1, r0
     b6c:	00001451 	andeq	r1, r0, r1, asr r4
     b70:	00001700 	andeq	r1, r0, r0, lsl #14
     b74:	50000100 	andpl	r0, r0, r0, lsl #2
     b78:	00000017 	andeq	r0, r0, r7, lsl r0
     b7c:	00000034 	andeq	r0, r0, r4, lsr r0
     b80:	01f30004 	mvnseq	r0, r4
     b84:	00009f51 	andeq	r9, r0, r1, asr pc
	...
     b90:	00170000 	andseq	r0, r7, r0
     b94:	00010000 	andeq	r0, r1, r0
     b98:	00001752 	andeq	r1, r0, r2, asr r7
     b9c:	00003400 	andeq	r3, r0, r0, lsl #8
     ba0:	54000100 	strpl	r0, [r0], #-256	; 0x100
	...
     bac:	00000064 	andeq	r0, r0, r4, rrx
     bb0:	00000083 	andeq	r0, r0, r3, lsl #1
     bb4:	83500001 	cmphi	r0, #1
     bb8:	a4000000 	strge	r0, [r0], #-0
     bbc:	04000000 	streq	r0, [r0], #-0
     bc0:	5001f300 	andpl	pc, r1, r0, lsl #6
     bc4:	0000a49f 	muleq	r0, pc, r4	; <UNPREDICTABLE>
     bc8:	0000b300 	andeq	fp, r0, r0, lsl #6
     bcc:	50000100 	andpl	r0, r0, r0, lsl #2
     bd0:	000000b3 	strheq	r0, [r0], -r3
     bd4:	000000d4 	ldrdeq	r0, [r0], -r4
     bd8:	01f30004 	mvnseq	r0, r4
     bdc:	00d49f50 	sbcseq	r9, r4, r0, asr pc
     be0:	00e30000 	rsceq	r0, r3, r0
     be4:	00010000 	andeq	r0, r1, r0
     be8:	0000e350 	andeq	lr, r0, r0, asr r3
     bec:	00010400 	andeq	r0, r1, r0, lsl #8
     bf0:	f3000400 	vshl.u8	d0, d0, d0
     bf4:	049f5001 	ldreq	r5, [pc], #1	; bfc <__code_start__-0x7404>
     bf8:	13000001 	movwne	r0, #1
     bfc:	01000001 	tsteq	r0, r1
     c00:	01135000 	tsteq	r3, r0
     c04:	01340000 	teqeq	r4, r0
     c08:	00040000 	andeq	r0, r4, r0
     c0c:	9f5001f3 	svcls	0x005001f3
     c10:	00000134 	andeq	r0, r0, r4, lsr r1
     c14:	00000143 	andeq	r0, r0, r3, asr #2
     c18:	43500001 	cmpmi	r0, #1
     c1c:	64000001 	strvs	r0, [r0], #-1
     c20:	04000001 	streq	r0, [r0], #-1
     c24:	5001f300 	andpl	pc, r1, r0, lsl #6
     c28:	0001649f 	muleq	r1, pc, r4	; <UNPREDICTABLE>
     c2c:	00017300 	andeq	r7, r1, r0, lsl #6
     c30:	50000100 	andpl	r0, r0, r0, lsl #2
     c34:	00000173 	andeq	r0, r0, r3, ror r1
     c38:	00000194 	muleq	r0, r4, r1
     c3c:	01f30004 	mvnseq	r0, r4
     c40:	01949f50 	orrseq	r9, r4, r0, asr pc
     c44:	01a30000 			; <UNDEFINED> instruction: 0x01a30000
     c48:	00010000 	andeq	r0, r1, r0
     c4c:	0001a350 	andeq	sl, r1, r0, asr r3
     c50:	0001c400 	andeq	ip, r1, r0, lsl #8
     c54:	f3000400 	vshl.u8	d0, d0, d0
     c58:	c49f5001 	ldrgt	r5, [pc], #1	; c60 <__code_start__-0x73a0>
     c5c:	d3000001 	movwle	r0, #1
     c60:	01000001 	tsteq	r0, r1
     c64:	01d35000 	bicseq	r5, r3, r0
     c68:	01f40000 	mvnseq	r0, r0
     c6c:	00040000 	andeq	r0, r4, r0
     c70:	9f5001f3 	svcls	0x005001f3
     c74:	000001f4 	strdeq	r0, [r0], -r4
     c78:	00000203 	andeq	r0, r0, r3, lsl #4
     c7c:	03500001 	cmpeq	r0, #1
     c80:	24000002 	strcs	r0, [r0], #-2
     c84:	04000002 	streq	r0, [r0], #-2
     c88:	5001f300 	andpl	pc, r1, r0, lsl #6
     c8c:	0002249f 	muleq	r2, pc, r4	; <UNPREDICTABLE>
     c90:	00025c00 	andeq	r5, r2, r0, lsl #24
     c94:	50000100 	andpl	r0, r0, r0, lsl #2
	...
     ca0:	0000025c 	andeq	r0, r0, ip, asr r2
     ca4:	00000267 	andeq	r0, r0, r7, ror #4
     ca8:	67500001 	ldrbvs	r0, [r0, -r1]
     cac:	60000002 	andvs	r0, r0, r2
     cb0:	01000004 	tsteq	r0, r4
     cb4:	00005400 	andeq	r5, r0, r0, lsl #8
     cb8:	00000000 	andeq	r0, r0, r0
     cbc:	04680000 	strbteq	r0, [r8], #-0
     cc0:	04740000 	ldrbteq	r0, [r4], #-0
     cc4:	00010000 	andeq	r0, r1, r0
     cc8:	00047450 	andeq	r7, r4, r0, asr r4
     ccc:	0004b400 	andeq	fp, r4, r0, lsl #8
     cd0:	54000100 	strpl	r0, [r0], #-256	; 0x100
	...
     cdc:	000004b4 			; <UNDEFINED> instruction: 0x000004b4
     ce0:	000004cb 	andeq	r0, r0, fp, asr #9
     ce4:	cb500001 	blgt	1400cf0 <__bss_end__+0x13f46a8>
     ce8:	ec000004 	stc	0, cr0, [r0], {4}
     cec:	04000004 	streq	r0, [r0], #-4
     cf0:	5001f300 	andpl	pc, r1, r0, lsl #6
     cf4:	0004ec9f 	muleq	r4, pc, ip	; <UNPREDICTABLE>
     cf8:	0004ff00 	andeq	pc, r4, r0, lsl #30
     cfc:	50000100 	andpl	r0, r0, r0, lsl #2
     d00:	000004ff 	strdeq	r0, [r0], -pc	; <UNPREDICTABLE>
     d04:	00000520 	andeq	r0, r0, r0, lsr #10
     d08:	01f30004 	mvnseq	r0, r4
     d0c:	05209f50 	streq	r9, [r0, #-3920]!	; 0xf50
     d10:	052f0000 	streq	r0, [pc, #-0]!	; d18 <__code_start__-0x72e8>
     d14:	00010000 	andeq	r0, r1, r0
     d18:	00052f50 	andeq	r2, r5, r0, asr pc
     d1c:	00055000 	andeq	r5, r5, r0
     d20:	f3000400 	vshl.u8	d0, d0, d0
     d24:	509f5001 	addspl	r5, pc, r1
     d28:	5f000005 	svcpl	0x00000005
     d2c:	01000005 	tsteq	r0, r5
     d30:	055f5000 	ldrbeq	r5, [pc, #-0]	; d38 <__code_start__-0x72c8>
     d34:	05800000 	streq	r0, [r0]
     d38:	00040000 	andeq	r0, r4, r0
     d3c:	9f5001f3 	svcls	0x005001f3
     d40:	00000580 	andeq	r0, r0, r0, lsl #11
     d44:	0000058f 	andeq	r0, r0, pc, lsl #11
     d48:	8f500001 	svchi	0x00500001
     d4c:	b0000005 	andlt	r0, r0, r5
     d50:	04000005 	streq	r0, [r0], #-5
     d54:	5001f300 	andpl	pc, r1, r0, lsl #6
     d58:	0005b09f 	muleq	r5, pc, r0	; <UNPREDICTABLE>
     d5c:	0005bf00 	andeq	fp, r5, r0, lsl #30
     d60:	50000100 	andpl	r0, r0, r0, lsl #2
     d64:	000005bf 			; <UNDEFINED> instruction: 0x000005bf
     d68:	000005e0 	andeq	r0, r0, r0, ror #11
     d6c:	01f30004 	mvnseq	r0, r4
     d70:	05e09f50 	strbeq	r9, [r0, #3920]!	; 0xf50
     d74:	05ef0000 	strbeq	r0, [pc, #0]!	; d7c <__code_start__-0x7284>
     d78:	00010000 	andeq	r0, r1, r0
     d7c:	0005ef50 	andeq	lr, r5, r0, asr pc
     d80:	00061000 	andeq	r1, r6, r0
     d84:	f3000400 	vshl.u8	d0, d0, d0
     d88:	109f5001 	addsne	r5, pc, r1
     d8c:	1f000006 	svcne	0x00000006
     d90:	01000006 	tsteq	r0, r6
     d94:	061f5000 	ldreq	r5, [pc], -r0
     d98:	06400000 	strbeq	r0, [r0], -r0
     d9c:	00040000 	andeq	r0, r4, r0
     da0:	9f5001f3 	svcls	0x005001f3
     da4:	00000640 	andeq	r0, r0, r0, asr #12
     da8:	00000674 	andeq	r0, r0, r4, ror r6
     dac:	00500001 	subseq	r0, r0, r1
     db0:	00000000 	andeq	r0, r0, r0
     db4:	30000000 	andcc	r0, r0, r0
     db8:	3c000007 	stccc	0, cr0, [r0], {7}
     dbc:	01000007 	tsteq	r0, r7
     dc0:	073c5000 	ldreq	r5, [ip, -r0]!
     dc4:	09000000 	stmdbeq	r0, {}	; <UNPREDICTABLE>
     dc8:	00010000 	andeq	r0, r1, r0
     dcc:	00000054 	andeq	r0, r0, r4, asr r0
     dd0:	00000000 	andeq	r0, r0, r0
     dd4:	00003400 	andeq	r3, r0, r0, lsl #8
     dd8:	00004c00 	andeq	r4, r0, r0, lsl #24
     ddc:	50000100 	andpl	r0, r0, r0, lsl #2
     de0:	0000004c 	andeq	r0, r0, ip, asr #32
     de4:	00000104 	andeq	r0, r0, r4, lsl #2
     de8:	04560001 	ldrbeq	r0, [r6], #-1
     dec:	24000001 	strcs	r0, [r0], #-1
     df0:	04000001 	streq	r0, [r0], #-1
     df4:	5001f300 	andpl	pc, r1, r0, lsl #6
     df8:	0000009f 	muleq	r0, pc, r0	; <UNPREDICTABLE>
     dfc:	00000000 	andeq	r0, r0, r0
     e00:	00003400 	andeq	r3, r0, r0, lsl #8
     e04:	00004f00 	andeq	r4, r0, r0, lsl #30
     e08:	51000100 	mrspl	r0, (UNDEF: 16)
     e0c:	0000004f 	andeq	r0, r0, pc, asr #32
     e10:	00000104 	andeq	r0, r0, r4, lsl #2
     e14:	04540001 	ldrbeq	r0, [r4], #-1
     e18:	24000001 	strcs	r0, [r0], #-1
     e1c:	04000001 	streq	r0, [r0], #-1
     e20:	5101f300 	mrspl	pc, SP_irq	; <UNPREDICTABLE>
     e24:	0000009f 	muleq	r0, pc, r0	; <UNPREDICTABLE>
     e28:	00000000 	andeq	r0, r0, r0
     e2c:	00003400 	andeq	r3, r0, r0, lsl #8
     e30:	00004f00 	andeq	r4, r0, r0, lsl #30
     e34:	52000100 	andpl	r0, r0, #0, 2
     e38:	0000004f 	andeq	r0, r0, pc, asr #32
     e3c:	00000104 	andeq	r0, r0, r4, lsl #2
     e40:	04550001 	ldrbeq	r0, [r5], #-1
     e44:	24000001 	strcs	r0, [r0], #-1
     e48:	04000001 	streq	r0, [r0], #-1
     e4c:	5201f300 	andpl	pc, r1, #0, 6
     e50:	0000009f 	muleq	r0, pc, r0	; <UNPREDICTABLE>
     e54:	00000000 	andeq	r0, r0, r0
     e58:	00012400 	andeq	r2, r1, r0, lsl #8
     e5c:	00013300 	andeq	r3, r1, r0, lsl #6
     e60:	50000100 	andpl	r0, r0, r0, lsl #2
     e64:	00000133 	andeq	r0, r0, r3, lsr r1
     e68:	000001b4 			; <UNDEFINED> instruction: 0x000001b4
     e6c:	b4540001 	ldrblt	r0, [r4], #-1
     e70:	c8000001 	stmdagt	r0, {r0}
     e74:	04000001 	streq	r0, [r0], #-1
     e78:	5001f300 	andpl	pc, r1, r0, lsl #6
     e7c:	0000009f 	muleq	r0, pc, r0	; <UNPREDICTABLE>
     e80:	00000000 	andeq	r0, r0, r0
     e84:	00013400 	andeq	r3, r1, r0, lsl #8
     e88:	00014b00 	andeq	r4, r1, r0, lsl #22
     e8c:	50000100 	andpl	r0, r0, r0, lsl #2
     e90:	0000016c 	andeq	r0, r0, ip, ror #2
     e94:	00000177 	andeq	r0, r0, r7, ror r1
     e98:	98500001 	ldmdals	r0, {r0}^
     e9c:	ac000001 	stcge	0, cr0, [r0], {1}
     ea0:	01000001 	tsteq	r0, r1
     ea4:	00005000 	andeq	r5, r0, r0
     ea8:	00000000 	andeq	r0, r0, r0
     eac:	01400000 	mrseq	r0, (UNDEF: 64)
     eb0:	014b0000 	mrseq	r0, (UNDEF: 75)
     eb4:	00010000 	andeq	r0, r1, r0
     eb8:	00014b52 	andeq	r4, r1, r2, asr fp
     ebc:	00016c00 	andeq	r6, r1, r0, lsl #24
     ec0:	74000500 	strvc	r0, [r0], #-1280	; 0x500
     ec4:	9f243101 	svcls	0x00243101
     ec8:	0000016c 	andeq	r0, r0, ip, ror #2
     ecc:	00000177 	andeq	r0, r0, r7, ror r1
     ed0:	77520001 	ldrbvc	r0, [r2, -r1]
     ed4:	98000001 	stmdals	r0, {r0}
     ed8:	05000001 	streq	r0, [r0, #-1]
     edc:	31017400 	tstcc	r1, r0, lsl #8
     ee0:	01989f24 	orrseq	r9, r8, r4, lsr #30
     ee4:	019c0000 	orrseq	r0, ip, r0
     ee8:	00010000 	andeq	r0, r1, r0
     eec:	00019c52 	andeq	r9, r1, r2, asr ip
     ef0:	0001b400 	andeq	fp, r1, r0, lsl #8
     ef4:	74000500 	strvc	r0, [r0], #-1280	; 0x500
     ef8:	9f243101 	svcls	0x00243101
     efc:	000001b4 			; <UNDEFINED> instruction: 0x000001b4
     f00:	000001c8 	andeq	r0, r0, r8, asr #3
     f04:	01f30008 	mvnseq	r0, r8
     f08:	31012350 	tstcc	r1, r0, asr r3
     f0c:	00009f24 	andeq	r9, r0, r4, lsr #30
     f10:	00000000 	andeq	r0, r0, r0
     f14:	01400000 	mrseq	r0, (UNDEF: 64)
     f18:	014b0000 	mrseq	r0, (UNDEF: 75)
     f1c:	00010000 	andeq	r0, r1, r0
     f20:	00014b53 	andeq	r4, r1, r3, asr fp
     f24:	00016c00 	andeq	r6, r1, r0, lsl #24
     f28:	74000500 	strvc	r0, [r0], #-1280	; 0x500
     f2c:	9f243100 	svcls	0x00243100
     f30:	0000016c 	andeq	r0, r0, ip, ror #2
     f34:	00000177 	andeq	r0, r0, r7, ror r1
     f38:	77530001 	ldrbvc	r0, [r3, -r1]
     f3c:	98000001 	stmdals	r0, {r0}
     f40:	05000001 	streq	r0, [r0, #-1]
     f44:	31007400 	tstcc	r0, r0, lsl #8
     f48:	01989f24 	orrseq	r9, r8, r4, lsr #30
     f4c:	01c80000 	biceq	r0, r8, r0
     f50:	00010000 	andeq	r0, r1, r0
     f54:	00000053 	andeq	r0, r0, r3, asr r0
     f58:	00000000 	andeq	r0, r0, r0
     f5c:	00014000 	andeq	r4, r1, r0
     f60:	00014b00 	andeq	r4, r1, r0, lsl #22
     f64:	50000100 	andpl	r0, r0, r0, lsl #2
     f68:	0000016c 	andeq	r0, r0, ip, ror #2
     f6c:	00000177 	andeq	r0, r0, r7, ror r1
     f70:	98500001 	ldmdals	r0, {r0}^
     f74:	ac000001 	stcge	0, cr0, [r0], {1}
     f78:	01000001 	tsteq	r0, r1
     f7c:	00005000 	andeq	r5, r0, r0
     f80:	00000000 	andeq	r0, r0, r0
     f84:	01a00000 	moveq	r0, r0
     f88:	01a80000 			; <UNDEFINED> instruction: 0x01a80000
     f8c:	00010000 	andeq	r0, r1, r0
     f90:	0001a852 	andeq	sl, r1, r2, asr r8
     f94:	0001b400 	andeq	fp, r1, r0, lsl #8
     f98:	74000a00 	strvc	r0, [r0], #-2560	; 0xa00
     f9c:	73243101 	teqvc	r4, #1073741824	; 0x40000000
     fa0:	01231c00 	teqeq	r3, r0, lsl #24
     fa4:	0001b49f 	muleq	r1, pc, r4	; <UNPREDICTABLE>
     fa8:	0001c800 	andeq	ip, r1, r0, lsl #16
     fac:	f3000d00 	vpadd.f32	d0, d0, d0
     fb0:	01235001 	teqeq	r3, r1
     fb4:	00732431 	rsbseq	r2, r3, r1, lsr r4
     fb8:	9f01231c 	svcls	0x0001231c
	...
     fc4:	000001c8 	andeq	r0, r0, r8, asr #3
     fc8:	000001db 	ldrdeq	r0, [r0], -fp
     fcc:	db500001 	blle	1400fd8 <__bss_end__+0x13f4990>
     fd0:	fc000001 	stc2	0, cr0, [r0], {1}
     fd4:	04000001 	streq	r0, [r0], #-1
     fd8:	5001f300 	andpl	pc, r1, r0, lsl #6
     fdc:	0001fc9f 	muleq	r1, pc, ip	; <UNPREDICTABLE>
     fe0:	00020700 	andeq	r0, r2, r0, lsl #14
     fe4:	50000100 	andpl	r0, r0, r0, lsl #2
     fe8:	00000207 	andeq	r0, r0, r7, lsl #4
     fec:	00000228 	andeq	r0, r0, r8, lsr #4
     ff0:	01f30004 	mvnseq	r0, r4
     ff4:	02289f50 	eoreq	r9, r8, #80, 30	; 0x140
     ff8:	022b0000 	eoreq	r0, fp, #0
     ffc:	00010000 	andeq	r0, r1, r0
    1000:	00022b50 	andeq	r2, r2, r0, asr fp
    1004:	00025c00 	andeq	r5, r2, r0, lsl #24
    1008:	f3000400 	vshl.u8	d0, d0, d0
    100c:	009f5001 	addseq	r5, pc, r1
    1010:	00000000 	andeq	r0, r0, r0
    1014:	c8000000 	stmdagt	r0, {}	; <UNPREDICTABLE>
    1018:	db000001 	blle	1024 <__code_start__-0x6fdc>
    101c:	01000001 	tsteq	r0, r1
    1020:	01db5100 	bicseq	r5, fp, r0, lsl #2
    1024:	01fc0000 	mvnseq	r0, r0
    1028:	00040000 	andeq	r0, r4, r0
    102c:	9f5101f3 	svcls	0x005101f3
    1030:	000001fc 	strdeq	r0, [r0], -ip
    1034:	00000207 	andeq	r0, r0, r7, lsl #4
    1038:	07510001 	ldrbeq	r0, [r1, -r1]
    103c:	28000002 	stmdacs	r0, {r1}
    1040:	04000002 	streq	r0, [r0], #-2
    1044:	5101f300 	mrspl	pc, SP_irq	; <UNPREDICTABLE>
    1048:	0002289f 	muleq	r2, pc, r8	; <UNPREDICTABLE>
    104c:	00022b00 	andeq	r2, r2, r0, lsl #22
    1050:	51000100 	mrspl	r0, (UNDEF: 16)
    1054:	0000022b 	andeq	r0, r0, fp, lsr #4
    1058:	0000025c 	andeq	r0, r0, ip, asr r2
    105c:	01f30004 	mvnseq	r0, r4
    1060:	00009f51 	andeq	r9, r0, r1, asr pc
    1064:	00000000 	andeq	r0, r0, r0
    1068:	02700000 	rsbseq	r0, r0, #0
    106c:	03070000 	movweq	r0, #28672	; 0x7000
    1070:	00010000 	andeq	r0, r1, r0
    1074:	00030750 	andeq	r0, r3, r0, asr r7
    1078:	00032000 	andeq	r2, r3, r0
    107c:	f3000400 	vshl.u8	d0, d0, d0
    1080:	209f5001 	addscs	r5, pc, r1
    1084:	23000003 	movwcs	r0, #3
    1088:	01000003 	tsteq	r0, r3
    108c:	03235000 	teqeq	r3, #0
    1090:	033c0000 	teqeq	ip, #0
    1094:	00040000 	andeq	r0, r4, r0
    1098:	9f5001f3 	svcls	0x005001f3
    109c:	0000033c 	andeq	r0, r0, ip, lsr r3
    10a0:	0000033f 	andeq	r0, r0, pc, lsr r3
    10a4:	3f500001 	svccc	0x00500001
    10a8:	58000003 	stmdapl	r0, {r0, r1}
    10ac:	04000003 	streq	r0, [r0], #-3
    10b0:	5001f300 	andpl	pc, r1, r0, lsl #6
    10b4:	0003589f 	muleq	r3, pc, r8	; <UNPREDICTABLE>
    10b8:	00035b00 	andeq	r5, r3, r0, lsl #22
    10bc:	50000100 	andpl	r0, r0, r0, lsl #2
    10c0:	0000035b 	andeq	r0, r0, fp, asr r3
    10c4:	00000374 	andeq	r0, r0, r4, ror r3
    10c8:	01f30004 	mvnseq	r0, r4
    10cc:	03749f50 	cmneq	r4, #80, 30	; 0x140
    10d0:	03770000 	cmneq	r7, #0
    10d4:	00010000 	andeq	r0, r1, r0
    10d8:	00037750 	andeq	r7, r3, r0, asr r7
    10dc:	00039000 	andeq	r9, r3, r0
    10e0:	f3000400 	vshl.u8	d0, d0, d0
    10e4:	909f5001 	addsls	r5, pc, r1
    10e8:	93000003 	movwls	r0, #3
    10ec:	01000003 	tsteq	r0, r3
    10f0:	03935000 	orrseq	r5, r3, #0
    10f4:	03ac0000 			; <UNDEFINED> instruction: 0x03ac0000
    10f8:	00040000 	andeq	r0, r4, r0
    10fc:	9f5001f3 	svcls	0x005001f3
    1100:	000003ac 	andeq	r0, r0, ip, lsr #7
    1104:	000003af 	andeq	r0, r0, pc, lsr #7
    1108:	af500001 	svcge	0x00500001
    110c:	c8000003 	stmdagt	r0, {r0, r1}
    1110:	04000003 	streq	r0, [r0], #-3
    1114:	5001f300 	andpl	pc, r1, r0, lsl #6
    1118:	0003c89f 	muleq	r3, pc, r8	; <UNPREDICTABLE>
    111c:	0003cb00 	andeq	ip, r3, r0, lsl #22
    1120:	50000100 	andpl	r0, r0, r0, lsl #2
    1124:	000003cb 	andeq	r0, r0, fp, asr #7
    1128:	000003e4 	andeq	r0, r0, r4, ror #7
    112c:	01f30004 	mvnseq	r0, r4
    1130:	03e49f50 	mvneq	r9, #80, 30	; 0x140
    1134:	03e70000 	mvneq	r0, #0
    1138:	00010000 	andeq	r0, r1, r0
    113c:	0003e750 	andeq	lr, r3, r0, asr r7
    1140:	00040000 	andeq	r0, r4, r0
    1144:	f3000400 	vshl.u8	d0, d0, d0
    1148:	009f5001 	addseq	r5, pc, r1
    114c:	03000004 	movweq	r0, #4
    1150:	01000004 	tsteq	r0, r4
    1154:	04035000 	streq	r5, [r3], #-0
    1158:	041c0000 	ldreq	r0, [ip], #-0
    115c:	00040000 	andeq	r0, r4, r0
    1160:	9f5001f3 	svcls	0x005001f3
    1164:	0000041c 	andeq	r0, r0, ip, lsl r4
    1168:	0000041f 	andeq	r0, r0, pc, lsl r4
    116c:	1f500001 	svcne	0x00500001
    1170:	38000004 	stmdacc	r0, {r2}
    1174:	04000004 	streq	r0, [r0], #-4
    1178:	5001f300 	andpl	pc, r1, r0, lsl #6
    117c:	0004389f 	muleq	r4, pc, r8	; <UNPREDICTABLE>
    1180:	00043b00 	andeq	r3, r4, r0, lsl #22
    1184:	50000100 	andpl	r0, r0, r0, lsl #2
    1188:	0000043b 	andeq	r0, r0, fp, lsr r4
    118c:	00000454 	andeq	r0, r0, r4, asr r4
    1190:	01f30004 	mvnseq	r0, r4
    1194:	04549f50 	ldrbeq	r9, [r4], #-3920	; 0xf50
    1198:	04570000 	ldrbeq	r0, [r7], #-0
    119c:	00010000 	andeq	r0, r1, r0
    11a0:	00045750 	andeq	r5, r4, r0, asr r7
    11a4:	00047000 	andeq	r7, r4, r0
    11a8:	f3000400 	vshl.u8	d0, d0, d0
    11ac:	709f5001 	addsvc	r5, pc, r1
    11b0:	73000004 	movwvc	r0, #4
    11b4:	01000004 	tsteq	r0, r4
    11b8:	04735000 	ldrbteq	r5, [r3], #-0
    11bc:	048c0000 	streq	r0, [ip], #0
    11c0:	00040000 	andeq	r0, r4, r0
    11c4:	9f5001f3 	svcls	0x005001f3
    11c8:	0000048c 	andeq	r0, r0, ip, lsl #9
    11cc:	0000048f 	andeq	r0, r0, pc, lsl #9
    11d0:	8f500001 	svchi	0x00500001
    11d4:	a8000004 	stmdage	r0, {r2}
    11d8:	04000004 	streq	r0, [r0], #-4
    11dc:	5001f300 	andpl	pc, r1, r0, lsl #6
    11e0:	0004a89f 	muleq	r4, pc, r8	; <UNPREDICTABLE>
    11e4:	0004ab00 	andeq	sl, r4, r0, lsl #22
    11e8:	50000100 	andpl	r0, r0, r0, lsl #2
    11ec:	000004ab 	andeq	r0, r0, fp, lsr #9
    11f0:	000004c4 	andeq	r0, r0, r4, asr #9
    11f4:	01f30004 	mvnseq	r0, r4
    11f8:	04c49f50 	strbeq	r9, [r4], #3920	; 0xf50
    11fc:	04c70000 	strbeq	r0, [r7], #0
    1200:	00010000 	andeq	r0, r1, r0
    1204:	0004c750 	andeq	ip, r4, r0, asr r7
    1208:	0004e000 	andeq	lr, r4, r0
    120c:	f3000400 	vshl.u8	d0, d0, d0
    1210:	e09f5001 	adds	r5, pc, r1
    1214:	e3000004 	movw	r0, #4
    1218:	01000004 	tsteq	r0, r4
    121c:	04e35000 	strbteq	r5, [r3], #0
    1220:	04fc0000 	ldrbteq	r0, [ip], #0
    1224:	00040000 	andeq	r0, r4, r0
    1228:	9f5001f3 	svcls	0x005001f3
    122c:	000004fc 	strdeq	r0, [r0], -ip
    1230:	000004ff 	strdeq	r0, [r0], -pc	; <UNPREDICTABLE>
    1234:	ff500001 			; <UNDEFINED> instruction: 0xff500001
    1238:	18000004 	stmdane	r0, {r2}
    123c:	04000005 	streq	r0, [r0], #-5
    1240:	5001f300 	andpl	pc, r1, r0, lsl #6
    1244:	0005189f 	muleq	r5, pc, r8	; <UNPREDICTABLE>
    1248:	00051b00 	andeq	r1, r5, r0, lsl #22
    124c:	50000100 	andpl	r0, r0, r0, lsl #2
    1250:	0000051b 	andeq	r0, r0, fp, lsl r5
    1254:	0000058c 	andeq	r0, r0, ip, lsl #11
    1258:	01f30004 	mvnseq	r0, r4
    125c:	00009f50 	andeq	r9, r0, r0, asr pc
    1260:	00000000 	andeq	r0, r0, r0
    1264:	02780000 	rsbseq	r0, r8, #0
    1268:	02880000 	addeq	r0, r8, #0
    126c:	00010000 	andeq	r0, r1, r0
    1270:	00000052 	andeq	r0, r0, r2, asr r0
    1274:	00000000 	andeq	r0, r0, r0
    1278:	00027400 	andeq	r7, r2, r0, lsl #8
    127c:	00027c00 	andeq	r7, r2, r0, lsl #24
    1280:	30000200 	andcc	r0, r0, r0, lsl #4
    1284:	0000009f 	muleq	r0, pc, r0	; <UNPREDICTABLE>
    1288:	00000000 	andeq	r0, r0, r0
    128c:	00028c00 	andeq	r8, r2, r0, lsl #24
    1290:	00030700 	andeq	r0, r3, r0, lsl #14
    1294:	53000100 	movwpl	r0, #256	; 0x100
    1298:	00000320 	andeq	r0, r0, r0, lsr #6
    129c:	00000323 	andeq	r0, r0, r3, lsr #6
    12a0:	3c530001 	mrrccc	0, 0, r0, r3, cr1
    12a4:	3f000003 	svccc	0x00000003
    12a8:	01000003 	tsteq	r0, r3
    12ac:	03585300 	cmpeq	r8, #0, 6
    12b0:	035b0000 	cmpeq	fp, #0
    12b4:	00010000 	andeq	r0, r1, r0
    12b8:	00037453 	andeq	r7, r3, r3, asr r4
    12bc:	00037700 	andeq	r7, r3, r0, lsl #14
    12c0:	53000100 	movwpl	r0, #256	; 0x100
    12c4:	00000390 	muleq	r0, r0, r3
    12c8:	00000393 	muleq	r0, r3, r3
    12cc:	ac530001 	mrrcge	0, 0, r0, r3, cr1
    12d0:	af000003 	svcge	0x00000003
    12d4:	01000003 	tsteq	r0, r3
    12d8:	03c85300 	biceq	r5, r8, #0, 6
    12dc:	03cb0000 	biceq	r0, fp, #0
    12e0:	00010000 	andeq	r0, r1, r0
    12e4:	0003e453 	andeq	lr, r3, r3, asr r4
    12e8:	0003e700 	andeq	lr, r3, r0, lsl #14
    12ec:	53000100 	movwpl	r0, #256	; 0x100
    12f0:	00000400 	andeq	r0, r0, r0, lsl #8
    12f4:	00000403 	andeq	r0, r0, r3, lsl #8
    12f8:	1c530001 	mrrcne	0, 0, r0, r3, cr1
    12fc:	1f000004 	svcne	0x00000004
    1300:	01000004 	tsteq	r0, r4
    1304:	04385300 	ldrteq	r5, [r8], #-768	; 0x300
    1308:	043b0000 	ldrteq	r0, [fp], #-0
    130c:	00010000 	andeq	r0, r1, r0
    1310:	00045453 	andeq	r5, r4, r3, asr r4
    1314:	00045700 	andeq	r5, r4, r0, lsl #14
    1318:	53000100 	movwpl	r0, #256	; 0x100
    131c:	00000470 	andeq	r0, r0, r0, ror r4
    1320:	00000473 	andeq	r0, r0, r3, ror r4
    1324:	8c530001 	mrrchi	0, 0, r0, r3, cr1
    1328:	8f000004 	svchi	0x00000004
    132c:	01000004 	tsteq	r0, r4
    1330:	04a85300 	strteq	r5, [r8], #768	; 0x300
    1334:	04ab0000 	strteq	r0, [fp], #0
    1338:	00010000 	andeq	r0, r1, r0
    133c:	0004c453 	andeq	ip, r4, r3, asr r4
    1340:	0004c700 	andeq	ip, r4, r0, lsl #14
    1344:	53000100 	movwpl	r0, #256	; 0x100
    1348:	000004e0 	andeq	r0, r0, r0, ror #9
    134c:	000004e3 	andeq	r0, r0, r3, ror #9
    1350:	fc530001 	mrrc2	0, 0, r0, r3, cr1
    1354:	ff000004 			; <UNDEFINED> instruction: 0xff000004
    1358:	01000004 	tsteq	r0, r4
    135c:	05185300 	ldreq	r5, [r8, #-768]	; 0x300
    1360:	051b0000 	ldreq	r0, [fp, #-0]
    1364:	00010000 	andeq	r0, r1, r0
    1368:	00000053 	andeq	r0, r0, r3, asr r0
    136c:	00000000 	andeq	r0, r0, r0
    1370:	00058c00 	andeq	r8, r5, r0, lsl #24
    1374:	00059300 	andeq	r9, r5, r0, lsl #6
    1378:	50000100 	andpl	r0, r0, r0, lsl #2
    137c:	00000593 	muleq	r0, r3, r5
    1380:	000005bc 			; <UNDEFINED> instruction: 0x000005bc
    1384:	01f30004 	mvnseq	r0, r4
    1388:	00009f50 	andeq	r9, r0, r0, asr pc
    138c:	00000000 	andeq	r0, r0, r0
    1390:	08040000 	stmdaeq	r4, {}	; <UNPREDICTABLE>
    1394:	081f0000 	ldmdaeq	pc, {}	; <UNPREDICTABLE>
    1398:	00010000 	andeq	r0, r1, r0
    139c:	00081f50 	andeq	r1, r8, r0, asr pc
    13a0:	00084000 	andeq	r4, r8, r0
    13a4:	f3000400 	vshl.u8	d0, d0, d0
    13a8:	409f5001 	addsmi	r5, pc, r1
    13ac:	48000008 	stmdami	r0, {r3}
    13b0:	01000008 	tsteq	r0, r8
    13b4:	08485000 	stmdaeq	r8, {ip, lr}^
    13b8:	08500000 	ldmdaeq	r0, {}^	; <UNPREDICTABLE>
    13bc:	00010000 	andeq	r0, r1, r0
    13c0:	00085052 	andeq	r5, r8, r2, asr r0
    13c4:	00085700 	andeq	r5, r8, r0, lsl #14
    13c8:	51000100 	mrspl	r0, (UNDEF: 16)
    13cc:	00000857 	andeq	r0, r0, r7, asr r8
    13d0:	00000874 	andeq	r0, r0, r4, ror r8
    13d4:	01f30004 	mvnseq	r0, r4
    13d8:	00009f50 	andeq	r9, r0, r0, asr pc
    13dc:	00000000 	andeq	r0, r0, r0
    13e0:	08740000 	ldmdaeq	r4!, {}^	; <UNPREDICTABLE>
    13e4:	088f0000 	stmeq	pc, {}	; <UNPREDICTABLE>
    13e8:	00010000 	andeq	r0, r1, r0
    13ec:	00088f50 	andeq	r8, r8, r0, asr pc
    13f0:	0008b000 	andeq	fp, r8, r0
    13f4:	f3000400 	vshl.u8	d0, d0, d0
    13f8:	b09f5001 	addslt	r5, pc, r1
    13fc:	b8000008 	stmdalt	r0, {r3}
    1400:	01000008 	tsteq	r0, r8
    1404:	08b85000 	ldmeq	r8!, {ip, lr}
    1408:	08c00000 	stmiaeq	r0, {}^	; <UNPREDICTABLE>
    140c:	00010000 	andeq	r0, r1, r0
    1410:	0008c052 	andeq	ip, r8, r2, asr r0
    1414:	0008c700 	andeq	ip, r8, r0, lsl #14
    1418:	51000100 	mrspl	r0, (UNDEF: 16)
    141c:	000008c7 	andeq	r0, r0, r7, asr #17
    1420:	000008e8 	andeq	r0, r0, r8, ror #17
    1424:	01f30004 	mvnseq	r0, r4
    1428:	00009f50 	andeq	r9, r0, r0, asr pc
    142c:	00000000 	andeq	r0, r0, r0
    1430:	08e80000 	stmiaeq	r8!, {}^	; <UNPREDICTABLE>
    1434:	08f00000 	ldmeq	r0!, {}^	; <UNPREDICTABLE>
    1438:	00010000 	andeq	r0, r1, r0
    143c:	0008f050 	andeq	pc, r8, r0, asr r0	; <UNPREDICTABLE>
    1440:	0008fc00 	andeq	pc, r8, r0, lsl #24
    1444:	71000500 	tstvc	r0, r0, lsl #10
    1448:	9f244400 	svcls	0x00244400
    144c:	000008fc 	strdeq	r0, [r0], -ip
    1450:	00000903 	andeq	r0, r0, r3, lsl #18
    1454:	03510001 	cmpeq	r1, #1
    1458:	0c000009 	stceq	0, cr0, [r0], {9}
    145c:	08000009 	stmdaeq	r0, {r0, r3}
    1460:	5001f300 	andpl	pc, r1, r0, lsl #6
    1464:	24442544 	strbcs	r2, [r4], #-1348	; 0x544
    1468:	0000009f 	muleq	r0, pc, r0	; <UNPREDICTABLE>
	...
    1474:	00002400 	andeq	r2, r0, r0, lsl #8
    1478:	50000100 	andpl	r0, r0, r0, lsl #2
    147c:	00000024 	andeq	r0, r0, r4, lsr #32
    1480:	000000e4 	andeq	r0, r0, r4, ror #1
    1484:	01f30004 	mvnseq	r0, r4
    1488:	00e49f50 	rsceq	r9, r4, r0, asr pc
    148c:	00e80000 	rsceq	r0, r8, r0
    1490:	00010000 	andeq	r0, r1, r0
    1494:	0000e850 	andeq	lr, r0, r0, asr r8
    1498:	0000f000 	andeq	pc, r0, r0
    149c:	f3000400 	vshl.u8	d0, d0, d0
    14a0:	009f5001 	addseq	r5, pc, r1
	...
    14ac:	20000000 	andcs	r0, r0, r0
    14b0:	01000000 	mrseq	r0, (UNDEF: 0)
    14b4:	00205100 	eoreq	r5, r0, r0, lsl #2
    14b8:	00800000 	addeq	r0, r0, r0
    14bc:	00010000 	andeq	r0, r1, r0
    14c0:	00009c51 	andeq	r9, r0, r1, asr ip
    14c4:	0000a000 	andeq	sl, r0, r0
    14c8:	51000100 	mrspl	r0, (UNDEF: 16)
    14cc:	000000b8 	strheq	r0, [r0], -r8
    14d0:	000000c8 	andeq	r0, r0, r8, asr #1
    14d4:	e4510001 	ldrb	r0, [r1], #-1
    14d8:	e8000000 	stmda	r0, {}	; <UNPREDICTABLE>
    14dc:	01000000 	mrseq	r0, (UNDEF: 0)
    14e0:	00005100 	andeq	r5, r0, r0, lsl #2
    14e4:	00000000 	andeq	r0, r0, r0
    14e8:	00040000 	andeq	r0, r4, r0
    14ec:	00240000 	eoreq	r0, r4, r0
    14f0:	00010000 	andeq	r0, r1, r0
    14f4:	00002450 	andeq	r2, r0, r0, asr r4
    14f8:	00009000 	andeq	r9, r0, r0
    14fc:	53000100 	movwpl	r0, #256	; 0x100
    1500:	0000009c 	muleq	r0, ip, r0
    1504:	000000a4 	andeq	r0, r0, r4, lsr #1
    1508:	b8530001 	ldmdalt	r3, {r0}^
    150c:	bc000000 	stclt	0, cr0, [r0], {-0}
    1510:	01000000 	mrseq	r0, (UNDEF: 0)
    1514:	00e45300 	rsceq	r5, r4, r0, lsl #6
    1518:	00e80000 	rsceq	r0, r8, r0
    151c:	00010000 	andeq	r0, r1, r0
    1520:	00000050 	andeq	r0, r0, r0, asr r0
    1524:	00000000 	andeq	r0, r0, r0
    1528:	00000800 	andeq	r0, r0, r0, lsl #16
    152c:	00002000 	andeq	r2, r0, r0
    1530:	51000100 	mrspl	r0, (UNDEF: 16)
    1534:	00000020 	andeq	r0, r0, r0, lsr #32
    1538:	00000034 	andeq	r0, r0, r4, lsr r0
    153c:	34520001 	ldrbcc	r0, [r2], #-1
    1540:	48000000 	stmdami	r0, {}	; <UNPREDICTABLE>
    1544:	01000000 	mrseq	r0, (UNDEF: 0)
    1548:	00485000 	subeq	r5, r8, r0
    154c:	00cc0000 	sbceq	r0, ip, r0
    1550:	00010000 	andeq	r0, r1, r0
    1554:	0000cc52 	andeq	ip, r0, r2, asr ip
    1558:	0000e000 	andeq	lr, r0, r0
    155c:	50000100 	andpl	r0, r0, r0, lsl #2
    1560:	000000e4 	andeq	r0, r0, r4, ror #1
    1564:	000000e8 	andeq	r0, r0, r8, ror #1
    1568:	00510001 	subseq	r0, r1, r1
    156c:	00000000 	andeq	r0, r0, r0
    1570:	44000000 	strmi	r0, [r0], #-0
    1574:	48000000 	stmdami	r0, {}	; <UNPREDICTABLE>
    1578:	01000000 	mrseq	r0, (UNDEF: 0)
    157c:	00485200 	subeq	r5, r8, r0, lsl #4
    1580:	004c0000 	subeq	r0, ip, r0
    1584:	00120000 	andseq	r0, r2, r0
    1588:	2438007c 	ldrtcs	r0, [r8], #-124	; 0x7c
    158c:	01940273 	orrseq	r0, r4, r3, ror r2
    1590:	221aff08 	andscs	pc, sl, #8, 30
    1594:	0070243b 	rsbseq	r2, r0, fp, lsr r4
    1598:	004c9f27 	subeq	r9, ip, r7, lsr #30
    159c:	00540000 	subseq	r0, r4, r0
    15a0:	00120000 	andseq	r0, r2, r0
    15a4:	2438007c 	ldrtcs	r0, [r8], #-124	; 0x7c
    15a8:	01947e73 	orrseq	r7, r4, r3, ror lr
    15ac:	221aff08 	andscs	pc, sl, #8, 30
    15b0:	0070243b 	rsbseq	r2, r0, fp, lsr r4
    15b4:	00009f27 	andeq	r9, r0, r7, lsr #30
    15b8:	00000000 	andeq	r0, r0, r0
    15bc:	001c0000 	andseq	r0, ip, r0
    15c0:	00e40000 	rsceq	r0, r4, r0
    15c4:	00010000 	andeq	r0, r1, r0
    15c8:	00000054 	andeq	r0, r0, r4, asr r0
	...
    15d4:	00000400 	andeq	r0, r0, r0, lsl #8
    15d8:	52000100 	andpl	r0, r0, #0, 2
    15dc:	00000004 	andeq	r0, r0, r4
    15e0:	00000020 	andeq	r0, r0, r0, lsr #32
    15e4:	01f30004 	mvnseq	r0, r4
    15e8:	00009f52 	andeq	r9, r0, r2, asr pc
	...
    15f4:	000c0000 	andeq	r0, ip, r0
    15f8:	00010000 	andeq	r0, r1, r0
    15fc:	00000c50 	andeq	r0, r0, r0, asr ip
    1600:	00001400 	andeq	r1, r0, r0, lsl #8
    1604:	73000300 	movwvc	r0, #768	; 0x300
    1608:	00149f01 	andseq	r9, r4, r1, lsl #30
    160c:	00200000 	eoreq	r0, r0, r0
    1610:	00010000 	andeq	r0, r1, r0
    1614:	00000053 	andeq	r0, r0, r3, asr r0
    1618:	00000000 	andeq	r0, r0, r0
    161c:	00002c00 	andeq	r2, r0, r0, lsl #24
    1620:	00003800 	andeq	r3, r0, r0, lsl #16
    1624:	50000100 	andpl	r0, r0, r0, lsl #2
    1628:	00000038 	andeq	r0, r0, r8, lsr r0
    162c:	00000048 	andeq	r0, r0, r8, asr #32
    1630:	48550001 	ldmdami	r5, {r0}^
    1634:	58000000 	stmdapl	r0, {}	; <UNPREDICTABLE>
    1638:	01000000 	mrseq	r0, (UNDEF: 0)
    163c:	00005000 	andeq	r5, r0, r0
	...
    1648:	000b0000 	andeq	r0, fp, r0
    164c:	00010000 	andeq	r0, r1, r0
    1650:	00000b50 	andeq	r0, r0, r0, asr fp
    1654:	00001400 	andeq	r1, r0, r0, lsl #8
    1658:	54000100 	strpl	r0, [r0], #-256	; 0x100
	...
    1668:	00000010 	andeq	r0, r0, r0, lsl r0
    166c:	10500001 	subsne	r0, r0, r1
    1670:	34000000 	strcc	r0, [r0], #-0
    1674:	01000000 	mrseq	r0, (UNDEF: 0)
    1678:	00005400 	andeq	r5, r0, r0, lsl #8
	...
    1684:	00040000 	andeq	r0, r4, r0
    1688:	00010000 	andeq	r0, r1, r0
    168c:	00000450 	andeq	r0, r0, r0, asr r4
    1690:	00000c00 	andeq	r0, r0, r0, lsl #24
    1694:	70000300 	andvc	r0, r0, r0, lsl #6
    1698:	000c9f30 	andeq	r9, ip, r0, lsr pc
    169c:	00140000 	andseq	r0, r4, r0
    16a0:	00040000 	andeq	r0, r4, r0
    16a4:	9f5001f3 	svcls	0x005001f3
	...
    16b0:	00000014 	andeq	r0, r0, r4, lsl r0
    16b4:	00000020 	andeq	r0, r0, r0, lsr #32
    16b8:	20500001 	subscs	r0, r0, r1
    16bc:	2c000000 	stccs	0, cr0, [r0], {-0}
    16c0:	03000000 	movweq	r0, #0
    16c4:	9f017000 	svcls	0x00017000
    16c8:	0000002c 	andeq	r0, r0, ip, lsr #32
    16cc:	00000040 	andeq	r0, r0, r0, asr #32
    16d0:	00500001 	subseq	r0, r0, r1
    16d4:	00000000 	andeq	r0, r0, r0
    16d8:	14000000 	strne	r0, [r0], #-0
    16dc:	18000000 	stmdane	r0, {}	; <UNPREDICTABLE>
    16e0:	01000000 	mrseq	r0, (UNDEF: 0)
    16e4:	00185100 	andseq	r5, r8, r0, lsl #2
    16e8:	00400000 	subeq	r0, r0, r0
    16ec:	00040000 	andeq	r0, r4, r0
    16f0:	9f5101f3 	svcls	0x005101f3
	...
    16fc:	00000040 	andeq	r0, r0, r0, asr #32
    1700:	00000060 	andeq	r0, r0, r0, rrx
    1704:	60500001 	subsvs	r0, r0, r1
    1708:	6c000000 	stcvs	0, cr0, [r0], {-0}
    170c:	03000000 	movweq	r0, #0
    1710:	9f017100 	svcls	0x00017100
    1714:	0000006c 	andeq	r0, r0, ip, rrx
    1718:	00000074 	andeq	r0, r0, r4, ror r0
    171c:	74510001 	ldrbvc	r0, [r1], #-1
    1720:	80000000 	andhi	r0, r0, r0
    1724:	03000000 	movweq	r0, #0
    1728:	9f017100 	svcls	0x00017100
	...
    1734:	00000040 	andeq	r0, r0, r0, asr #32
    1738:	00000050 	andeq	r0, r0, r0, asr r0
    173c:	50510001 	subspl	r0, r1, r1
    1740:	80000000 	andhi	r0, r0, r0
    1744:	04000000 	streq	r0, [r0], #-0
    1748:	5101f300 	mrspl	pc, SP_irq	; <UNPREDICTABLE>
    174c:	0000009f 	muleq	r0, pc, r0	; <UNPREDICTABLE>
    1750:	00000000 	andeq	r0, r0, r0
    1754:	00004000 	andeq	r4, r0, r0
    1758:	00005800 	andeq	r5, r0, r0, lsl #16
    175c:	52000100 	andpl	r0, r0, #0, 2
    1760:	00000058 	andeq	r0, r0, r8, asr r0
    1764:	00000064 	andeq	r0, r0, r4, rrx
    1768:	64520001 	ldrbvs	r0, [r2], #-1
    176c:	68000000 	stmdavs	r0, {}	; <UNPREDICTABLE>
    1770:	03000000 	movweq	r0, #0
    1774:	9f017200 	svcls	0x00017200
    1778:	00000068 	andeq	r0, r0, r8, rrx
    177c:	00000080 	andeq	r0, r0, r0, lsl #1
    1780:	00520001 	subseq	r0, r2, r1
    1784:	00000000 	andeq	r0, r0, r0
    1788:	40000000 	andmi	r0, r0, r0
    178c:	54000000 	strpl	r0, [r0], #-0
    1790:	01000000 	mrseq	r0, (UNDEF: 0)
    1794:	00545300 	subseq	r5, r4, r0, lsl #6
    1798:	00780000 	rsbseq	r0, r8, r0
    179c:	00010000 	andeq	r0, r1, r0
    17a0:	00000053 	andeq	r0, r0, r3, asr r0
    17a4:	00000000 	andeq	r0, r0, r0
    17a8:	00004800 	andeq	r4, r0, r0, lsl #16
    17ac:	00006000 	andeq	r6, r0, r0
    17b0:	5c000100 	stfpls	f0, [r0], {-0}
    17b4:	00000060 	andeq	r0, r0, r0, rrx
    17b8:	00000080 	andeq	r0, r0, r0, lsl #1
    17bc:	01f3000a 	mvnseq	r0, sl
    17c0:	5301f352 	movwpl	pc, #4946	; 0x1352	; <UNPREDICTABLE>
    17c4:	9f01231c 	svcls	0x0001231c
	...
    17d0:	00000080 	andeq	r0, r0, r0, lsl #1
    17d4:	000000a4 	andeq	r0, r0, r4, lsr #1
    17d8:	a4500001 	ldrbge	r0, [r0], #-1
    17dc:	18000000 	stmdane	r0, {}	; <UNPREDICTABLE>
    17e0:	03000001 	movweq	r0, #1
    17e4:	9f027000 	svcls	0x00027000
    17e8:	00000118 	andeq	r0, r0, r8, lsl r1
    17ec:	0000023c 	andeq	r0, r0, ip, lsr r2
    17f0:	01f30004 	mvnseq	r0, r4
    17f4:	00009f50 	andeq	r9, r0, r0, asr pc
    17f8:	00000000 	andeq	r0, r0, r0
    17fc:	00800000 	addeq	r0, r0, r0
    1800:	00f00000 	rscseq	r0, r0, r0
    1804:	00010000 	andeq	r0, r1, r0
    1808:	0000f051 	andeq	pc, r0, r1, asr r0	; <UNPREDICTABLE>
    180c:	00016000 	andeq	r6, r1, r0
    1810:	55000100 	strpl	r0, [r0, #-256]	; 0x100
    1814:	00000160 	andeq	r0, r0, r0, ror #2
    1818:	0000016c 	andeq	r0, r0, ip, ror #2
    181c:	6c510001 	mrrcvs	0, 0, r0, r1, cr1
    1820:	a0000001 	andge	r0, r0, r1
    1824:	01000001 	tsteq	r0, r1
    1828:	01a05500 	lsleq	r5, r0, #10
    182c:	01b40000 			; <UNDEFINED> instruction: 0x01b40000
    1830:	00010000 	andeq	r0, r1, r0
    1834:	0001b451 	andeq	fp, r1, r1, asr r4
    1838:	0001d400 	andeq	sp, r1, r0, lsl #8
    183c:	55000100 	strpl	r0, [r0, #-256]	; 0x100
    1840:	000001d4 	ldrdeq	r0, [r0], -r4
    1844:	000001d7 	ldrdeq	r0, [r0], -r7
    1848:	d7510001 	ldrble	r0, [r1, -r1]
    184c:	1c000001 	stcne	0, cr0, [r0], {1}
    1850:	01000002 	tsteq	r0, r2
    1854:	021c5500 	andseq	r5, ip, #0, 10
    1858:	023c0000 	eorseq	r0, ip, #0
    185c:	00040000 	andeq	r0, r4, r0
    1860:	9f5101f3 	svcls	0x005101f3
	...
    186c:	00000080 	andeq	r0, r0, r0, lsl #1
    1870:	00000094 	muleq	r0, r4, r0
    1874:	94520001 	ldrbls	r0, [r2], #-1
    1878:	1c000000 	stcne	0, cr0, [r0], {-0}
    187c:	01000002 	tsteq	r0, r2
    1880:	021c5400 	andseq	r5, ip, #0, 8
    1884:	023c0000 	eorseq	r0, ip, #0
    1888:	00040000 	andeq	r0, r4, r0
    188c:	9f5201f3 	svcls	0x005201f3
	...
    1898:	00000080 	andeq	r0, r0, r0, lsl #1
    189c:	00000100 	andeq	r0, r0, r0, lsl #2
    18a0:	04530001 	ldrbeq	r0, [r3], #-1
    18a4:	08000001 	stmdaeq	r0, {r0}
    18a8:	01000001 	tsteq	r0, r1
    18ac:	01605300 	cmneq	r0, r0, lsl #6
    18b0:	01640000 	cmneq	r4, r0
    18b4:	00010000 	andeq	r0, r1, r0
    18b8:	00016453 	andeq	r6, r1, r3, asr r4
    18bc:	00016c00 	andeq	r6, r1, r0, lsl #24
    18c0:	5c000100 	stfpls	f0, [r0], {-0}
    18c4:	0000016c 	andeq	r0, r0, ip, ror #2
    18c8:	000001a0 	andeq	r0, r0, r0, lsr #3
    18cc:	01f30004 	mvnseq	r0, r4
    18d0:	01a09f53 	asreq	r9, r3, pc
    18d4:	01b00000 	movseq	r0, r0
    18d8:	00010000 	andeq	r0, r1, r0
    18dc:	0001b053 	andeq	fp, r1, r3, asr r0
    18e0:	0001b400 	andeq	fp, r1, r0, lsl #8
    18e4:	5c000100 	stfpls	f0, [r0], {-0}
    18e8:	000001b4 			; <UNDEFINED> instruction: 0x000001b4
    18ec:	000001d4 	ldrdeq	r0, [r0], -r4
    18f0:	01f30004 	mvnseq	r0, r4
    18f4:	01d49f53 	bicseq	r9, r4, r3, asr pc
    18f8:	01d70000 	bicseq	r0, r7, r0
    18fc:	00010000 	andeq	r0, r1, r0
    1900:	0001d753 	andeq	sp, r1, r3, asr r7
    1904:	0001f800 	andeq	pc, r1, r0, lsl #16
    1908:	f3000400 	vshl.u8	d0, d0, d0
    190c:	009f5301 	addseq	r5, pc, r1, lsl #6
    1910:	00000000 	andeq	r0, r0, r0
    1914:	80000000 	andhi	r0, r0, r0
    1918:	9c000000 	stcls	0, cr0, [r0], {-0}
    191c:	02000000 	andeq	r0, r0, #0
    1920:	9c009100 	stflsd	f1, [r0], {-0}
    1924:	d7000000 	strle	r0, [r0, -r0]
    1928:	01000001 	tsteq	r0, r1
    192c:	01f85200 	mvnseq	r5, r0, lsl #4
    1930:	01ff0000 	mvnseq	r0, r0
    1934:	00010000 	andeq	r0, r1, r0
    1938:	00000052 	andeq	r0, r0, r2, asr r0
    193c:	00000000 	andeq	r0, r0, r0
    1940:	00009c00 	andeq	r9, r0, r0, lsl #24
    1944:	00010c00 	andeq	r0, r1, r0, lsl #24
    1948:	91000400 	tstls	r0, r0, lsl #8
    194c:	0c9f7fa0 	ldceq	15, cr7, [pc], {160}	; 0xa0
    1950:	18000001 	stmdane	r0, {r0}
    1954:	01000001 	tsteq	r0, r1
    1958:	01185100 	tsteq	r8, r0, lsl #2
    195c:	011c0000 	tsteq	ip, r0
    1960:	00010000 	andeq	r0, r1, r0
    1964:	00011c50 	andeq	r1, r1, r0, asr ip
    1968:	00012000 	andeq	r2, r1, r0
    196c:	51000100 	mrspl	r0, (UNDEF: 16)
    1970:	00000120 	andeq	r0, r0, r0, lsr #2
    1974:	00000160 	andeq	r0, r0, r0, ror #2
    1978:	60500001 	subsvs	r0, r0, r1
    197c:	64000001 	strvs	r0, [r0], #-1
    1980:	04000001 	streq	r0, [r0], #-1
    1984:	7fa09100 	svcvc	0x00a09100
    1988:	0001649f 	muleq	r1, pc, r4	; <UNPREDICTABLE>
    198c:	00016c00 	andeq	r6, r1, r0, lsl #24
    1990:	53000100 	movwpl	r0, #256	; 0x100
    1994:	0000016c 	andeq	r0, r0, ip, ror #2
    1998:	00000170 	andeq	r0, r0, r0, ror r1
    199c:	70500001 	subsvc	r0, r0, r1
    19a0:	74000001 	strvc	r0, [r0], #-1
    19a4:	01000001 	tsteq	r0, r1
    19a8:	01745300 	cmneq	r4, r0, lsl #6
    19ac:	01880000 	orreq	r0, r8, r0
    19b0:	00010000 	andeq	r0, r1, r0
    19b4:	00018850 	andeq	r8, r1, r0, asr r8
    19b8:	00019400 	andeq	r9, r1, r0, lsl #8
    19bc:	70000300 	andvc	r0, r0, r0, lsl #6
    19c0:	01949f01 	orrseq	r9, r4, r1, lsl #30
    19c4:	01a00000 	moveq	r0, r0
    19c8:	00010000 	andeq	r0, r1, r0
    19cc:	0001a050 	andeq	sl, r1, r0, asr r0
    19d0:	0001a800 	andeq	sl, r1, r0, lsl #16
    19d4:	91000400 	tstls	r0, r0, lsl #8
    19d8:	a89f7fa1 	ldmge	pc, {r0, r5, r7, r8, r9, sl, fp, ip, sp, lr}	; <UNPREDICTABLE>
    19dc:	ac000001 	stcge	0, cr0, [r0], {1}
    19e0:	01000001 	tsteq	r0, r1
    19e4:	01ac5000 			; <UNDEFINED> instruction: 0x01ac5000
    19e8:	01b00000 	movseq	r0, r0
    19ec:	00040000 	andeq	r0, r4, r0
    19f0:	9f7fa091 	svcls	0x007fa091
    19f4:	000001b0 			; <UNDEFINED> instruction: 0x000001b0
    19f8:	000001b8 			; <UNDEFINED> instruction: 0x000001b8
    19fc:	b8530001 	ldmdalt	r3, {r0}^
    1a00:	d4000001 	strle	r0, [r0], #-1
    1a04:	01000001 	tsteq	r0, r1
    1a08:	01d45000 	bicseq	r5, r4, r0
    1a0c:	01f80000 	mvnseq	r0, r0
    1a10:	00040000 	andeq	r0, r4, r0
    1a14:	9f7fa091 	svcls	0x007fa091
    1a18:	000001f8 	strdeq	r0, [r0], -r8
    1a1c:	000001ff 	strdeq	r0, [r0], -pc	; <UNPREDICTABLE>
    1a20:	00500001 	subseq	r0, r0, r1
    1a24:	00000000 	andeq	r0, r0, r0
    1a28:	a0000000 	andge	r0, r0, r0
    1a2c:	ec000000 	stc	0, cr0, [r0], {-0}
    1a30:	01000000 	mrseq	r0, (UNDEF: 0)
    1a34:	00ec5c00 	rsceq	r5, ip, r0, lsl #24
    1a38:	01000000 	mrseq	r0, (UNDEF: 0)
    1a3c:	00010000 	andeq	r0, r1, r0
    1a40:	00010053 	andeq	r0, r1, r3, asr r0
    1a44:	00010400 	andeq	r0, r1, r0, lsl #8
    1a48:	5c000100 	stfpls	f0, [r0], {-0}
    1a4c:	00000104 	andeq	r0, r0, r4, lsl #2
    1a50:	00000108 	andeq	r0, r0, r8, lsl #2
    1a54:	08530001 	ldmdaeq	r3, {r0}^
    1a58:	60000001 	andvs	r0, r0, r1
    1a5c:	01000001 	tsteq	r0, r1
    1a60:	01605c00 	cmneq	r0, r0, lsl #24
    1a64:	01640000 	cmneq	r4, r0
    1a68:	00010000 	andeq	r0, r1, r0
    1a6c:	00016453 	andeq	r6, r1, r3, asr r4
    1a70:	00018000 	andeq	r8, r1, r0
    1a74:	5c000100 	stfpls	f0, [r0], {-0}
    1a78:	00000180 	andeq	r0, r0, r0, lsl #3
    1a7c:	00000184 	andeq	r0, r0, r4, lsl #3
    1a80:	007c0005 	rsbseq	r0, ip, r5
    1a84:	849f2534 	ldrhi	r2, [pc], #1332	; 1a8c <__code_start__-0x6574>
    1a88:	a0000001 	andge	r0, r0, r1
    1a8c:	01000001 	tsteq	r0, r1
    1a90:	01a05c00 	lsleq	r5, r0, #24
    1a94:	01b00000 	movseq	r0, r0
    1a98:	00010000 	andeq	r0, r1, r0
    1a9c:	0001b053 	andeq	fp, r1, r3, asr r0
    1aa0:	0001c400 	andeq	ip, r1, r0, lsl #8
    1aa4:	5c000100 	stfpls	f0, [r0], {-0}
    1aa8:	000001c4 	andeq	r0, r0, r4, asr #3
    1aac:	000001cc 	andeq	r0, r0, ip, asr #3
    1ab0:	007c0005 	rsbseq	r0, ip, r5
    1ab4:	cc9f2531 	cfldr32gt	mvfx2, [pc], {49}	; 0x31
    1ab8:	d4000001 	strle	r0, [r0], #-1
    1abc:	01000001 	tsteq	r0, r1
    1ac0:	01d45c00 	bicseq	r5, r4, r0, lsl #24
    1ac4:	01d70000 	bicseq	r0, r7, r0
    1ac8:	00010000 	andeq	r0, r1, r0
    1acc:	0001d753 	andeq	sp, r1, r3, asr r7
    1ad0:	0001f800 	andeq	pc, r1, r0, lsl #16
    1ad4:	f3000400 	vshl.u8	d0, d0, d0
    1ad8:	f89f5301 			; <UNDEFINED> instruction: 0xf89f5301
    1adc:	ff000001 			; <UNDEFINED> instruction: 0xff000001
    1ae0:	01000001 	tsteq	r0, r1
    1ae4:	00005c00 	andeq	r5, r0, r0, lsl #24
    1ae8:	00000000 	andeq	r0, r0, r0
    1aec:	00ec0000 	rsceq	r0, ip, r0
    1af0:	00fc0000 	rscseq	r0, ip, r0
    1af4:	00020000 	andeq	r0, r2, r0
    1af8:	00fc9f30 	rscseq	r9, ip, r0, lsr pc
    1afc:	01040000 	mrseq	r0, (UNDEF: 4)
    1b00:	00020000 	andeq	r0, r2, r0
    1b04:	01049f31 	tsteq	r4, r1, lsr pc
    1b08:	01080000 	mrseq	r0, (UNDEF: 8)
    1b0c:	00020000 	andeq	r0, r2, r0
    1b10:	00009f30 	andeq	r9, r0, r0, lsr pc
    1b14:	00000000 	andeq	r0, r0, r0
    1b18:	023c0000 	eorseq	r0, ip, #0
    1b1c:	024f0000 	subeq	r0, pc, #0
    1b20:	00010000 	andeq	r0, r1, r0
    1b24:	00024f50 	andeq	r4, r2, r0, asr pc
    1b28:	00027000 	andeq	r7, r2, r0
    1b2c:	f3000400 	vshl.u8	d0, d0, d0
    1b30:	709f5001 	addsvc	r5, pc, r1
    1b34:	a4000002 	strge	r0, [r0], #-2
    1b38:	01000002 	tsteq	r0, r2
    1b3c:	00005000 	andeq	r5, r0, r0
    1b40:	00000000 	andeq	r0, r0, r0
    1b44:	023c0000 	eorseq	r0, ip, #0
    1b48:	024f0000 	subeq	r0, pc, #0
    1b4c:	00010000 	andeq	r0, r1, r0
    1b50:	00024f51 	andeq	r4, r2, r1, asr pc
    1b54:	00027000 	andeq	r7, r2, r0
    1b58:	f3000400 	vshl.u8	d0, d0, d0
    1b5c:	709f5101 	addsvc	r5, pc, r1, lsl #2
    1b60:	a4000002 	strge	r0, [r0], #-2
    1b64:	01000002 	tsteq	r0, r2
    1b68:	00005100 	andeq	r5, r0, r0, lsl #2
    1b6c:	00000000 	andeq	r0, r0, r0
    1b70:	02a40000 	adceq	r0, r4, #0
    1b74:	02d40000 	sbcseq	r0, r4, #0
    1b78:	00010000 	andeq	r0, r1, r0
    1b7c:	0002d450 	andeq	sp, r2, r0, asr r4
    1b80:	00055800 	andeq	r5, r5, r0, lsl #16
    1b84:	5b000100 	blpl	1f8c <__code_start__-0x6074>
    1b88:	00000558 	andeq	r0, r0, r8, asr r5
    1b8c:	00000578 	andeq	r0, r0, r8, ror r5
    1b90:	01f30004 	mvnseq	r0, r4
    1b94:	00009f50 	andeq	r9, r0, r0, asr pc
    1b98:	00000000 	andeq	r0, r0, r0
    1b9c:	02a40000 	adceq	r0, r4, #0
    1ba0:	02bc0000 	adcseq	r0, ip, #0
    1ba4:	00010000 	andeq	r0, r1, r0
    1ba8:	0002bc51 	andeq	fp, r2, r1, asr ip
    1bac:	0002d400 	andeq	sp, r2, r0, lsl #8
    1bb0:	71000300 	mrsvc	r0, LR_irq
    1bb4:	02d49f01 	sbcseq	r9, r4, #1, 30
    1bb8:	05780000 	ldrbeq	r0, [r8, #-0]!
    1bbc:	00040000 	andeq	r0, r4, r0
    1bc0:	9f5101f3 	svcls	0x005101f3
	...
    1bcc:	000002a4 	andeq	r0, r0, r4, lsr #5
    1bd0:	000002d4 	ldrdeq	r0, [r0], -r4
    1bd4:	d4520001 	ldrble	r0, [r2], #-1
    1bd8:	58000002 	stmdapl	r0, {r1}
    1bdc:	01000005 	tsteq	r0, r5
    1be0:	00005600 	andeq	r5, r0, r0, lsl #12
    1be4:	00000000 	andeq	r0, r0, r0
    1be8:	02a40000 	adceq	r0, r4, #0
    1bec:	02c40000 	sbceq	r0, r4, #0
    1bf0:	00010000 	andeq	r0, r1, r0
    1bf4:	00000053 	andeq	r0, r0, r3, asr r0
    1bf8:	00000000 	andeq	r0, r0, r0
    1bfc:	0002b800 	andeq	fp, r2, r0, lsl #16
    1c00:	0002d400 	andeq	sp, r2, r0, lsl #8
    1c04:	50000100 	andpl	r0, r0, r0, lsl #2
    1c08:	000002d4 	ldrdeq	r0, [r0], -r4
    1c0c:	000002d8 	ldrdeq	r0, [r0], -r8
    1c10:	d8540001 	ldmdale	r4, {r0}^
    1c14:	e4000002 	str	r0, [r0], #-2
    1c18:	03000002 	movweq	r0, #2
    1c1c:	9f017400 	svcls	0x00017400
    1c20:	000002e4 	andeq	r0, r0, r4, ror #5
    1c24:	000002f0 	strdeq	r0, [r0], -r0	; <UNPREDICTABLE>
    1c28:	f0540001 			; <UNDEFINED> instruction: 0xf0540001
    1c2c:	fc000002 	stc2	0, cr0, [r0], {2}
    1c30:	03000002 	movweq	r0, #2
    1c34:	9f017400 	svcls	0x00017400
    1c38:	000002fc 	strdeq	r0, [r0], -ip
    1c3c:	0000050c 	andeq	r0, r0, ip, lsl #10
    1c40:	0c540001 	mrrceq	0, 0, r0, r4, cr1
    1c44:	18000005 	stmdane	r0, {r0, r2}
    1c48:	03000005 	movweq	r0, #5
    1c4c:	9f017400 	svcls	0x00017400
    1c50:	00000518 	andeq	r0, r0, r8, lsl r5
    1c54:	00000544 	andeq	r0, r0, r4, asr #10
    1c58:	44540001 	ldrbmi	r0, [r4], #-1
    1c5c:	50000005 	andpl	r0, r0, r5
    1c60:	01000005 	tsteq	r0, r5
    1c64:	05505000 	ldrbeq	r5, [r0, #-0]
    1c68:	05580000 	ldrbeq	r0, [r8, #-0]
    1c6c:	00030000 	andeq	r0, r3, r0
    1c70:	009f0174 	addseq	r0, pc, r4, ror r1	; <UNPREDICTABLE>
    1c74:	00000000 	andeq	r0, r0, r0
    1c78:	c0000000 	andgt	r0, r0, r0
    1c7c:	58000002 	stmdapl	r0, {r1}
    1c80:	01000005 	tsteq	r0, r5
    1c84:	05585800 	ldrbeq	r5, [r8, #-2048]	; 0x800
    1c88:	05780000 	ldrbeq	r0, [r8, #-0]!
    1c8c:	000a0000 	andeq	r0, sl, r0
    1c90:	f35101f3 	vbsl	q8, <illegal reg q8.5>, <illegal reg q9.5>
    1c94:	31225001 	teqcc	r2, r1
    1c98:	00009f1c 	andeq	r9, r0, ip, lsl pc
    1c9c:	00000000 	andeq	r0, r0, r0
    1ca0:	02c80000 	sbceq	r0, r8, #0
    1ca4:	02d40000 	sbcseq	r0, r4, #0
    1ca8:	00010000 	andeq	r0, r1, r0
    1cac:	0002d452 	andeq	sp, r2, r2, asr r4
    1cb0:	00057800 	andeq	r7, r5, r0, lsl #16
    1cb4:	91000300 	mrsls	r0, LR_irq
    1cb8:	00007ecc 	andeq	r7, r0, ip, asr #29
    1cbc:	00000000 	andeq	r0, r0, r0
    1cc0:	04100000 	ldreq	r0, [r0], #-0
    1cc4:	04140000 	ldreq	r0, [r4], #-0
    1cc8:	00010000 	andeq	r0, r1, r0
    1ccc:	00043850 	andeq	r3, r4, r0, asr r8
    1cd0:	00043c00 	andeq	r3, r4, r0, lsl #24
    1cd4:	50000100 	andpl	r0, r0, r0, lsl #2
    1cd8:	00000460 	andeq	r0, r0, r0, ror #8
    1cdc:	00000464 	andeq	r0, r0, r4, ror #8
    1ce0:	88500001 	ldmdahi	r0, {r0}^
    1ce4:	8c000004 	stchi	0, cr0, [r0], {4}
    1ce8:	01000004 	tsteq	r0, r4
    1cec:	04945000 	ldreq	r5, [r4], #0
    1cf0:	04980000 	ldreq	r0, [r8], #0
    1cf4:	00010000 	andeq	r0, r1, r0
    1cf8:	0004bc50 	andeq	fp, r4, r0, asr ip
    1cfc:	0004c000 	andeq	ip, r4, r0
    1d00:	50000100 	andpl	r0, r0, r0, lsl #2
    1d04:	00000504 	andeq	r0, r0, r4, lsl #10
    1d08:	0000052c 	andeq	r0, r0, ip, lsr #10
    1d0c:	00500001 	subseq	r0, r0, r1
    1d10:	00000000 	andeq	r0, r0, r0
    1d14:	04000000 	streq	r0, [r0], #-0
    1d18:	0c000003 	stceq	0, cr0, [r0], {3}
    1d1c:	02000003 	andeq	r0, r0, #3
    1d20:	0c9f3000 	ldceq	0, cr3, [pc], {0}
    1d24:	10000003 	andne	r0, r0, r3
    1d28:	01000003 	tsteq	r0, r3
    1d2c:	031c5700 	tsteq	ip, #0, 14
    1d30:	052c0000 	streq	r0, [ip, #-0]!
    1d34:	00010000 	andeq	r0, r1, r0
    1d38:	00000057 	andeq	r0, r0, r7, asr r0
    1d3c:	00000000 	andeq	r0, r0, r0
    1d40:	00001400 	andeq	r1, r0, r0, lsl #8
    1d44:	00001c00 	andeq	r1, r0, r0, lsl #24
    1d48:	73000300 	movwvc	r0, #768	; 0x300
    1d4c:	001c9f04 	andseq	r9, ip, r4, lsl #30
    1d50:	00270000 	eoreq	r0, r7, r0
    1d54:	00010000 	andeq	r0, r1, r0
    1d58:	00000053 	andeq	r0, r0, r3, asr r0
	...
    1d64:	00000f00 	andeq	r0, r0, r0, lsl #30
    1d68:	50000100 	andpl	r0, r0, r0, lsl #2
    1d6c:	0000000f 	andeq	r0, r0, pc
    1d70:	00000044 	andeq	r0, r0, r4, asr #32
    1d74:	00540001 	subseq	r0, r4, r1
	...
    1d80:	0f000000 	svceq	0x00000000
    1d84:	01000000 	mrseq	r0, (UNDEF: 0)
    1d88:	000f5000 	andeq	r5, pc, r0
    1d8c:	00440000 	subeq	r0, r4, r0
    1d90:	00010000 	andeq	r0, r1, r0
    1d94:	00000054 	andeq	r0, r0, r4, asr r0
	...
    1da0:	00000f00 	andeq	r0, r0, r0, lsl #30
    1da4:	50000100 	andpl	r0, r0, r0, lsl #2
    1da8:	0000000f 	andeq	r0, r0, pc
    1dac:	00000044 	andeq	r0, r0, r4, asr #32
    1db0:	00540001 	subseq	r0, r4, r1
	...
    1dbc:	0f000000 	svceq	0x00000000
    1dc0:	01000000 	mrseq	r0, (UNDEF: 0)
    1dc4:	000f5000 	andeq	r5, pc, r0
    1dc8:	00440000 	subeq	r0, r4, r0
    1dcc:	00010000 	andeq	r0, r1, r0
    1dd0:	00000054 	andeq	r0, r0, r4, asr r0
    1dd4:	00000000 	andeq	r0, r0, r0
    1dd8:	00003400 	andeq	r3, r0, r0, lsl #8
    1ddc:	00004000 	andeq	r4, r0, r0
    1de0:	30000200 	andcc	r0, r0, r0, lsl #4
    1de4:	0000409f 	muleq	r0, pc, r0	; <UNPREDICTABLE>
    1de8:	00006c00 	andeq	r6, r0, r0, lsl #24
    1dec:	53000100 	movwpl	r0, #256	; 0x100
	...
    1df8:	0000aa08 	andeq	sl, r0, r8, lsl #20
    1dfc:	0000aa0c 	andeq	sl, r0, ip, lsl #20
    1e00:	9f300002 	svcls	0x00300002
    1e04:	0000aa0c 	andeq	sl, r0, ip, lsl #20
    1e08:	0000aa10 	andeq	sl, r0, r0, lsl sl
    1e0c:	00500001 	subseq	r0, r0, r1
    1e10:	00000000 	andeq	r0, r0, r0
    1e14:	20000000 	andcs	r0, r0, r0
    1e18:	240000aa 	strcs	r0, [r0], #-170	; 0xaa
    1e1c:	020000aa 	andeq	r0, r0, #170	; 0xaa
    1e20:	249f3000 	ldrcs	r3, [pc], #0	; 1e28 <__code_start__-0x61d8>
    1e24:	280000aa 	stmdacs	r0, {r1, r3, r5, r7}
    1e28:	010000aa 	smlatbeq	r0, sl, r0, r0
    1e2c:	aa2c5300 	bge	b16a34 <__bss_end__+0xb0a3ec>
    1e30:	aa340000 	bge	d01e38 <__bss_end__+0xcf57f0>
    1e34:	00010000 	andeq	r0, r1, r0
    1e38:	00000053 	andeq	r0, r0, r3, asr r0
	...
    1e44:	00000400 	andeq	r0, r0, r0, lsl #8
    1e48:	50000100 	andpl	r0, r0, r0, lsl #2
    1e4c:	00000004 	andeq	r0, r0, r4
    1e50:	0000000c 	andeq	r0, r0, ip
    1e54:	0c530001 	mrrceq	0, 0, r0, r3, cr1
    1e58:	10000000 	andne	r0, r0, r0
    1e5c:	01000000 	mrseq	r0, (UNDEF: 0)
    1e60:	00105000 	andseq	r5, r0, r0
    1e64:	001c0000 	andseq	r0, ip, r0
    1e68:	00010000 	andeq	r0, r1, r0
    1e6c:	00000053 	andeq	r0, r0, r3, asr r0
    1e70:	00000000 	andeq	r0, r0, r0
    1e74:	00004000 	andeq	r4, r0, r0
    1e78:	00004300 	andeq	r4, r0, r0, lsl #6
    1e7c:	50000100 	andpl	r0, r0, r0, lsl #2
    1e80:	00000043 	andeq	r0, r0, r3, asr #32
    1e84:	0000004c 	andeq	r0, r0, ip, asr #32
    1e88:	00540001 	subseq	r0, r4, r1
    1e8c:	00000000 	andeq	r0, r0, r0
    1e90:	4c000000 	stcmi	0, cr0, [r0], {-0}
    1e94:	57000000 	strpl	r0, [r0, -r0]
    1e98:	01000000 	mrseq	r0, (UNDEF: 0)
    1e9c:	00575000 	subseq	r5, r7, r0
    1ea0:	00700000 	rsbseq	r0, r0, r0
    1ea4:	00010000 	andeq	r0, r1, r0
    1ea8:	00000055 	andeq	r0, r0, r5, asr r0
    1eac:	00000000 	andeq	r0, r0, r0
    1eb0:	00006000 	andeq	r6, r0, r0
    1eb4:	00006400 	andeq	r6, r0, r0, lsl #8
    1eb8:	50000100 	andpl	r0, r0, r0, lsl #2
	...
    1ec4:	00000070 	andeq	r0, r0, r0, ror r0
    1ec8:	0000007c 	andeq	r0, r0, ip, ror r0
    1ecc:	7c500001 	mrrcvc	0, 0, r0, r0, cr1	; <UNPREDICTABLE>
    1ed0:	84000000 	strhi	r0, [r0], #-0
    1ed4:	04000000 	streq	r0, [r0], #-0
    1ed8:	5001f300 	andpl	pc, r1, r0, lsl #6
    1edc:	0000009f 	muleq	r0, pc, r0	; <UNPREDICTABLE>
    1ee0:	00000000 	andeq	r0, r0, r0
    1ee4:	00008400 	andeq	r8, r0, r0, lsl #8
    1ee8:	00009000 	andeq	r9, r0, r0
    1eec:	50000100 	andpl	r0, r0, r0, lsl #2
    1ef0:	00000090 	muleq	r0, r0, r0
    1ef4:	00000098 	muleq	r0, r8, r0
    1ef8:	01f30004 	mvnseq	r0, r4
    1efc:	00009f50 	andeq	r9, r0, r0, asr pc
    1f00:	00000000 	andeq	r0, r0, r0
    1f04:	01380000 	teqeq	r8, r0
    1f08:	01430000 	mrseq	r0, (UNDEF: 67)
    1f0c:	00010000 	andeq	r0, r1, r0
    1f10:	00014350 	andeq	r4, r1, r0, asr r3
    1f14:	00016800 	andeq	r6, r1, r0, lsl #16
    1f18:	54000100 	strpl	r0, [r0], #-256	; 0x100
	...
    1f28:	0000000f 	andeq	r0, r0, pc
    1f2c:	0f500001 	svceq	0x00500001
    1f30:	20000000 	andcs	r0, r0, r0
    1f34:	01000000 	mrseq	r0, (UNDEF: 0)
    1f38:	00005400 	andeq	r5, r0, r0, lsl #8
	...
    1f44:	000f0000 	andeq	r0, pc, r0
    1f48:	00010000 	andeq	r0, r1, r0
    1f4c:	00000f51 	andeq	r0, r0, r1, asr pc
    1f50:	00002000 	andeq	r2, r0, r0
    1f54:	55000100 	strpl	r0, [r0, #-256]	; 0x100
	...
    1f60:	000000ec 	andeq	r0, r0, ip, ror #1
    1f64:	00000104 	andeq	r0, r0, r4, lsl #2
    1f68:	04500001 	ldrbeq	r0, [r0], #-1
    1f6c:	14000001 	strne	r0, [r0], #-1
    1f70:	04000001 	streq	r0, [r0], #-1
    1f74:	5001f300 	andpl	pc, r1, r0, lsl #6
    1f78:	0001149f 	muleq	r1, pc, r4	; <UNPREDICTABLE>
    1f7c:	00011800 	andeq	r1, r1, r0, lsl #16
    1f80:	50000100 	andpl	r0, r0, r0, lsl #2
    1f84:	00000118 	andeq	r0, r0, r8, lsl r1
    1f88:	00000120 	andeq	r0, r0, r0, lsr #2
    1f8c:	01f30004 	mvnseq	r0, r4
    1f90:	00009f50 	andeq	r9, r0, r0, asr pc
    1f94:	00000000 	andeq	r0, r0, r0
    1f98:	00f80000 	rscseq	r0, r8, r0
    1f9c:	01040000 	mrseq	r0, (UNDEF: 4)
    1fa0:	000b0000 	andeq	r0, fp, r0
    1fa4:	25350070 	ldrcs	r0, [r5, #-112]!	; 0x70
    1fa8:	8080b423 	addhi	fp, r0, r3, lsr #8
    1fac:	049f0281 	ldreq	r0, [pc], #641	; 1fb4 <__code_start__-0x604c>
    1fb0:	07000001 	streq	r0, [r0, -r1]
    1fb4:	01000001 	tsteq	r0, r1
    1fb8:	01075000 	mrseq	r5, (UNDEF: 7)
    1fbc:	01140000 	tsteq	r4, r0
    1fc0:	000c0000 	andeq	r0, ip, r0
    1fc4:	355001f3 	ldrbcc	r0, [r0, #-499]	; 0x1f3
    1fc8:	80b42325 	adcshi	r2, r4, r5, lsr #6
    1fcc:	9f028180 	svcls	0x00028180
	...
    1fd8:	000000fc 	strdeq	r0, [r0], -ip
    1fdc:	00000114 	andeq	r0, r0, r4, lsl r1
    1fe0:	00540001 	subseq	r0, r4, r1
    1fe4:	00000000 	andeq	r0, r0, r0
    1fe8:	d0000000 	andle	r0, r0, r0
    1fec:	df000000 	svcle	0x00000000
    1ff0:	01000000 	mrseq	r0, (UNDEF: 0)
    1ff4:	00df5000 	sbcseq	r5, pc, r0
    1ff8:	00e40000 	rsceq	r0, r4, r0
    1ffc:	00040000 	andeq	r0, r4, r0
    2000:	9f5001f3 	svcls	0x005001f3
    2004:	000000e4 	andeq	r0, r0, r4, ror #1
    2008:	000000e7 	andeq	r0, r0, r7, ror #1
    200c:	e7500001 	ldrb	r0, [r0, -r1]
    2010:	ec000000 	stc	0, cr0, [r0], {-0}
    2014:	04000000 	streq	r0, [r0], #-0
    2018:	5001f300 	andpl	pc, r1, r0, lsl #6
    201c:	0000009f 	muleq	r0, pc, r0	; <UNPREDICTABLE>
    2020:	00000000 	andeq	r0, r0, r0
    2024:	0000d000 	andeq	sp, r0, r0
    2028:	0000df00 	andeq	sp, r0, r0, lsl #30
    202c:	51000100 	mrspl	r0, (UNDEF: 16)
    2030:	000000df 	ldrdeq	r0, [r0], -pc	; <UNPREDICTABLE>
    2034:	000000e4 	andeq	r0, r0, r4, ror #1
    2038:	01f30004 	mvnseq	r0, r4
    203c:	00e49f51 	rsceq	r9, r4, r1, asr pc
    2040:	00e70000 	rsceq	r0, r7, r0
    2044:	00010000 	andeq	r0, r1, r0
    2048:	0000e751 	andeq	lr, r0, r1, asr r7
    204c:	0000ec00 	andeq	lr, r0, r0, lsl #24
    2050:	f3000400 	vshl.u8	d0, d0, d0
    2054:	009f5101 	addseq	r5, pc, r1, lsl #2
    2058:	00000000 	andeq	r0, r0, r0
    205c:	c0000000 	andgt	r0, r0, r0
    2060:	cb000000 	blgt	2068 <__code_start__-0x5f98>
    2064:	01000000 	mrseq	r0, (UNDEF: 0)
    2068:	00cb5000 	sbceq	r5, fp, r0
    206c:	00d00000 	sbcseq	r0, r0, r0
    2070:	00040000 	andeq	r0, r4, r0
    2074:	9f5001f3 	svcls	0x005001f3
	...
    2080:	0000009c 	muleq	r0, ip, r0
    2084:	000000b4 	strheq	r0, [r0], -r4
    2088:	b4500001 	ldrblt	r0, [r0], #-1
    208c:	c0000000 	andgt	r0, r0, r0
    2090:	04000000 	streq	r0, [r0], #-0
    2094:	5001f300 	andpl	pc, r1, r0, lsl #6
    2098:	0000009f 	muleq	r0, pc, r0	; <UNPREDICTABLE>
    209c:	00000000 	andeq	r0, r0, r0
    20a0:	00007800 	andeq	r7, r0, r0, lsl #16
    20a4:	00009000 	andeq	r9, r0, r0
    20a8:	50000100 	andpl	r0, r0, r0, lsl #2
    20ac:	00000090 	muleq	r0, r0, r0
    20b0:	0000009c 	muleq	r0, ip, r0
    20b4:	01f30004 	mvnseq	r0, r4
    20b8:	00009f50 	andeq	r9, r0, r0, asr pc
    20bc:	00000000 	andeq	r0, r0, r0
    20c0:	00680000 	rsbeq	r0, r8, r0
    20c4:	00730000 	rsbseq	r0, r3, r0
    20c8:	00010000 	andeq	r0, r1, r0
    20cc:	00007350 	andeq	r7, r0, r0, asr r3
    20d0:	00007800 	andeq	r7, r0, r0, lsl #16
    20d4:	f3000400 	vshl.u8	d0, d0, d0
    20d8:	009f5001 	addseq	r5, pc, r1
	...
    20e4:	48000000 	stmdami	r0, {}	; <UNPREDICTABLE>
    20e8:	01000000 	mrseq	r0, (UNDEF: 0)
    20ec:	00485000 	subeq	r5, r8, r0
    20f0:	00680000 	rsbeq	r0, r8, r0
    20f4:	00040000 	andeq	r0, r4, r0
    20f8:	9f5001f3 	svcls	0x005001f3
	...
    2108:	0000004b 	andeq	r0, r0, fp, asr #32
    210c:	4b510001 	blmi	1442118 <__bss_end__+0x1435ad0>
    2110:	68000000 	stmdavs	r0, {}	; <UNPREDICTABLE>
    2114:	04000000 	streq	r0, [r0], #-0
    2118:	5101f300 	mrspl	pc, SP_irq	; <UNPREDICTABLE>
    211c:	0000009f 	muleq	r0, pc, r0	; <UNPREDICTABLE>
    2120:	00000000 	andeq	r0, r0, r0
    2124:	00004c00 	andeq	r4, r0, r0, lsl #24
    2128:	00005400 	andeq	r5, r0, r0, lsl #8
    212c:	50000100 	andpl	r0, r0, r0, lsl #2
    2130:	00000054 	andeq	r0, r0, r4, asr r0
    2134:	00000058 	andeq	r0, r0, r8, asr r0
    2138:	00750009 	rsbseq	r0, r5, r9
    213c:	71240074 	teqvc	r4, r4, ror r0
    2140:	589f2100 	ldmpl	pc, {r8, sp}	; <UNPREDICTABLE>
    2144:	5f000000 	svcpl	0x00000000
    2148:	01000000 	mrseq	r0, (UNDEF: 0)
    214c:	00005100 	andeq	r5, r0, r0, lsl #2
    2150:	00000000 	andeq	r0, r0, r0
    2154:	00e00000 	rsceq	r0, r0, r0
    2158:	011b0000 	tsteq	fp, r0
    215c:	00010000 	andeq	r0, r1, r0
    2160:	00011b50 	andeq	r1, r1, r0, asr fp
    2164:	00012000 	andeq	r2, r1, r0
    2168:	f3000400 	vshl.u8	d0, d0, d0
    216c:	209f5001 	addscs	r5, pc, r1
    2170:	23000001 	movwcs	r0, #1
    2174:	01000001 	tsteq	r0, r1
    2178:	01235000 	teqeq	r3, r0
    217c:	013c0000 	teqeq	ip, r0
    2180:	00040000 	andeq	r0, r4, r0
    2184:	9f5001f3 	svcls	0x005001f3
    2188:	0000013c 	andeq	r0, r0, ip, lsr r1
    218c:	0000013f 	andeq	r0, r0, pc, lsr r1
    2190:	3f500001 	svccc	0x00500001
    2194:	6c000001 	stcvs	0, cr0, [r0], {1}
    2198:	04000001 	streq	r0, [r0], #-1
    219c:	5001f300 	andpl	pc, r1, r0, lsl #6
    21a0:	0000009f 	muleq	r0, pc, r0	; <UNPREDICTABLE>
    21a4:	00000000 	andeq	r0, r0, r0
    21a8:	0000e000 	andeq	lr, r0, r0
    21ac:	00010800 	andeq	r0, r1, r0, lsl #16
    21b0:	51000100 	mrspl	r0, (UNDEF: 16)
    21b4:	00000108 	andeq	r0, r0, r8, lsl #2
    21b8:	0000011b 	andeq	r0, r0, fp, lsl r1
    21bc:	01710003 	cmneq	r1, r3
    21c0:	00011b9f 	muleq	r1, pc, fp	; <UNPREDICTABLE>
    21c4:	00012000 	andeq	r2, r1, r0
    21c8:	f3000400 	vshl.u8	d0, d0, d0
    21cc:	209f5101 	addscs	r5, pc, r1, lsl #2
    21d0:	23000001 	movwcs	r0, #1
    21d4:	01000001 	tsteq	r0, r1
    21d8:	01235100 	teqeq	r3, r0, lsl #2
    21dc:	016c0000 	cmneq	ip, r0
    21e0:	00040000 	andeq	r0, r4, r0
    21e4:	9f5101f3 	svcls	0x005101f3
	...
    21f0:	000000f8 	strdeq	r0, [r0], -r8
    21f4:	000000fc 	strdeq	r0, [r0], -ip
    21f8:	fc520001 	mrrc2	0, 0, r0, r2, cr1
    21fc:	04000000 	streq	r0, [r0], #-0
    2200:	05000001 	streq	r0, [r0, #-1]
    2204:	afb00300 	svcge	0x00b00300
    2208:	01040000 	mrseq	r0, (UNDEF: 4)
    220c:	011b0000 	tsteq	fp, r0
    2210:	00010000 	andeq	r0, r1, r0
    2214:	00013c53 	andeq	r3, r1, r3, asr ip
    2218:	00013f00 	andeq	r3, r1, r0, lsl #30
    221c:	53000100 	movwpl	r0, #256	; 0x100
	...
    2228:	0000006c 	andeq	r0, r0, ip, rrx
    222c:	00000080 	andeq	r0, r0, r0, lsl #1
    2230:	80500001 	subshi	r0, r0, r1
    2234:	9b000000 	blls	223c <__code_start__-0x5dc4>
    2238:	01000000 	mrseq	r0, (UNDEF: 0)
    223c:	009b5200 	addseq	r5, fp, r0, lsl #4
    2240:	00a40000 	adceq	r0, r4, r0
    2244:	00090000 	andeq	r0, r9, r0
    2248:	235001f3 	cmpcs	r0, #-1073741764	; 0xc000003c
    224c:	1af80907 	bne	ffe04670 <__bss_end__+0xffdf8028>
    2250:	0000a49f 	muleq	r0, pc, r4	; <UNPREDICTABLE>
    2254:	0000a700 	andeq	sl, r0, r0, lsl #14
    2258:	50000100 	andpl	r0, r0, r0, lsl #2
    225c:	000000a7 	andeq	r0, r0, r7, lsr #1
    2260:	000000d0 	ldrdeq	r0, [r0], -r0	; <UNPREDICTABLE>
    2264:	01f30004 	mvnseq	r0, r4
    2268:	00009f50 	andeq	r9, r0, r0, asr pc
    226c:	00000000 	andeq	r0, r0, r0
    2270:	00880000 	addeq	r0, r8, r0
    2274:	00a40000 	adceq	r0, r4, r0
    2278:	00010000 	andeq	r0, r1, r0
    227c:	00000054 	andeq	r0, r0, r4, asr r0
    2280:	00000000 	andeq	r0, r0, r0
    2284:	00001c00 	andeq	r1, r0, r0, lsl #24
    2288:	00004300 	andeq	r4, r0, r0, lsl #6
    228c:	50000100 	andpl	r0, r0, r0, lsl #2
    2290:	00000043 	andeq	r0, r0, r3, asr #32
    2294:	0000006c 	andeq	r0, r0, ip, rrx
    2298:	01f30004 	mvnseq	r0, r4
    229c:	00009f50 	andeq	r9, r0, r0, asr pc
    22a0:	00000000 	andeq	r0, r0, r0
    22a4:	001c0000 	andseq	r0, ip, r0
    22a8:	00430000 	subeq	r0, r3, r0
    22ac:	00010000 	andeq	r0, r1, r0
    22b0:	00004350 	andeq	r4, r0, r0, asr r3
    22b4:	00006c00 	andeq	r6, r0, r0, lsl #24
    22b8:	f3000400 	vshl.u8	d0, d0, d0
    22bc:	009f5001 	addseq	r5, pc, r1
    22c0:	00000000 	andeq	r0, r0, r0
    22c4:	Address 0x00000000000022c4 is out of bounds.


Disassembly of section .debug_ranges:

00000000 <.debug_ranges>:
   0:	000000e4 	andeq	r0, r0, r4, ror #1
   4:	00000108 	andeq	r0, r0, r8, lsl #2
   8:	0000010c 	andeq	r0, r0, ip, lsl #2
   c:	0000011c 	andeq	r0, r0, ip, lsl r1
	...
  18:	000000e4 	andeq	r0, r0, r4, ror #1
  1c:	00000100 	andeq	r0, r0, r0, lsl #2
  20:	0000010c 	andeq	r0, r0, ip, lsl #2
  24:	00000114 	andeq	r0, r0, r4, lsl r1
	...
  30:	00000434 	andeq	r0, r0, r4, lsr r4
  34:	00000458 	andeq	r0, r0, r8, asr r4
  38:	0000045c 	andeq	r0, r0, ip, asr r4
  3c:	00000464 	andeq	r0, r0, r4, ror #8
	...
  48:	0000aa08 	andeq	sl, r0, r8, lsl #20
  4c:	0000aa7c 	andeq	sl, r0, ip, ror sl
	...
