
tests/part2-test4.elf:     file format elf32-littlearm


Disassembly of section .text:

00008000 <__code_start__>:
    8000:	e3a00013 	mov	r0, #19
    8004:	e129f000 	msr	CPSR_fc, r0
    8008:	e3a01000 	mov	r1, #0
    800c:	ee073f95 	mcr	15, 0, r3, cr7, cr5, {4}
    8010:	e3a0d302 	mov	sp, #134217728	; 0x8000000
    8014:	e3a0b000 	mov	fp, #0
    8018:	eb000ab3 	bl	aaec <_cstart>
    801c:	eb000b2c 	bl	acd4 <rpi_reboot>

00008020 <test_resume>:
    8020:	e92d4070 	push	{r4, r5, r6, lr}
    8024:	e24dd008 	sub	sp, sp, #8
    8028:	e1a04000 	mov	r4, r0
    802c:	e1a05001 	mov	r5, r1
    8030:	eb0007d1 	bl	9f7c <memcheck_trap_enable>
    8034:	e59f614c 	ldr	r6, [pc, #332]	; 8188 <test_resume+0x168>
    8038:	e1a00006 	mov	r0, r6
    803c:	eb00090f 	bl	a480 <printk>
    8040:	e59f0144 	ldr	r0, [pc, #324]	; 818c <test_resume+0x16c>
    8044:	e1a01004 	mov	r1, r4
    8048:	e59f2140 	ldr	r2, [pc, #320]	; 8190 <test_resume+0x170>
    804c:	eb00090b 	bl	a480 <printk>
    8050:	e1a00004 	mov	r0, r4
    8054:	e1a01005 	mov	r1, r5
    8058:	eb000b5d 	bl	add4 <PUT32>
    805c:	e1a00006 	mov	r0, r6
    8060:	eb000906 	bl	a480 <printk>
    8064:	e59f0128 	ldr	r0, [pc, #296]	; 8194 <test_resume+0x174>
    8068:	eb000904 	bl	a480 <printk>
    806c:	eb0007a4 	bl	9f04 <memcheck_trap_enabled>
    8070:	e3500000 	cmp	r0, #0
    8074:	0a000008 	beq	809c <test_resume+0x7c>
    8078:	eb00091b 	bl	a4ec <rpi_reset_putc>
    807c:	e59f3114 	ldr	r3, [pc, #276]	; 8198 <test_resume+0x178>
    8080:	e58d3000 	str	r3, [sp]
    8084:	e59f0110 	ldr	r0, [pc, #272]	; 819c <test_resume+0x17c>
    8088:	e59f1110 	ldr	r1, [pc, #272]	; 81a0 <test_resume+0x180>
    808c:	e59f2110 	ldr	r2, [pc, #272]	; 81a4 <test_resume+0x184>
    8090:	e3a0300d 	mov	r3, #13
    8094:	eb0008f9 	bl	a480 <printk>
    8098:	eb000a88 	bl	aac0 <clean_reboot>
    809c:	e59f60e4 	ldr	r6, [pc, #228]	; 8188 <test_resume+0x168>
    80a0:	e1a00006 	mov	r0, r6
    80a4:	eb0008f5 	bl	a480 <printk>
    80a8:	e59f00f8 	ldr	r0, [pc, #248]	; 81a8 <test_resume+0x188>
    80ac:	eb0008f3 	bl	a480 <printk>
    80b0:	e59f00d8 	ldr	r0, [pc, #216]	; 8190 <test_resume+0x170>
    80b4:	e1a01004 	mov	r1, r4
    80b8:	e3a02009 	mov	r2, #9
    80bc:	eb00053f 	bl	95c0 <fault_expected>
    80c0:	e1a00006 	mov	r0, r6
    80c4:	eb0008ed 	bl	a480 <printk>
    80c8:	e59f00dc 	ldr	r0, [pc, #220]	; 81ac <test_resume+0x18c>
    80cc:	e1a01004 	mov	r1, r4
    80d0:	e1a02005 	mov	r2, r5
    80d4:	eb0008e9 	bl	a480 <printk>
    80d8:	e1a00006 	mov	r0, r6
    80dc:	eb0008e7 	bl	a480 <printk>
    80e0:	e59f00a4 	ldr	r0, [pc, #164]	; 818c <test_resume+0x16c>
    80e4:	e1a01004 	mov	r1, r4
    80e8:	e59f20c0 	ldr	r2, [pc, #192]	; 81b0 <test_resume+0x190>
    80ec:	eb0008e3 	bl	a480 <printk>
    80f0:	eb0007a1 	bl	9f7c <memcheck_trap_enable>
    80f4:	e1a00004 	mov	r0, r4
    80f8:	eb000b41 	bl	ae04 <GET32>
    80fc:	e1500005 	cmp	r0, r5
    8100:	0a000008 	beq	8128 <test_resume+0x108>
    8104:	eb0008f8 	bl	a4ec <rpi_reset_putc>
    8108:	e59f30a4 	ldr	r3, [pc, #164]	; 81b4 <test_resume+0x194>
    810c:	e58d3000 	str	r3, [sp]
    8110:	e59f0084 	ldr	r0, [pc, #132]	; 819c <test_resume+0x17c>
    8114:	e59f1084 	ldr	r1, [pc, #132]	; 81a0 <test_resume+0x180>
    8118:	e59f2084 	ldr	r2, [pc, #132]	; 81a4 <test_resume+0x184>
    811c:	e3a03018 	mov	r3, #24
    8120:	eb0008d6 	bl	a480 <printk>
    8124:	eb000a65 	bl	aac0 <clean_reboot>
    8128:	e59f0058 	ldr	r0, [pc, #88]	; 8188 <test_resume+0x168>
    812c:	eb0008d3 	bl	a480 <printk>
    8130:	e59f0080 	ldr	r0, [pc, #128]	; 81b8 <test_resume+0x198>
    8134:	e1a01004 	mov	r1, r4
    8138:	e1a02005 	mov	r2, r5
    813c:	eb0008cf 	bl	a480 <printk>
    8140:	eb00076f 	bl	9f04 <memcheck_trap_enabled>
    8144:	e3500000 	cmp	r0, #0
    8148:	0a000008 	beq	8170 <test_resume+0x150>
    814c:	eb0008e6 	bl	a4ec <rpi_reset_putc>
    8150:	e59f3040 	ldr	r3, [pc, #64]	; 8198 <test_resume+0x178>
    8154:	e58d3000 	str	r3, [sp]
    8158:	e59f003c 	ldr	r0, [pc, #60]	; 819c <test_resume+0x17c>
    815c:	e59f103c 	ldr	r1, [pc, #60]	; 81a0 <test_resume+0x180>
    8160:	e59f203c 	ldr	r2, [pc, #60]	; 81a4 <test_resume+0x184>
    8164:	e3a0301a 	mov	r3, #26
    8168:	eb0008c4 	bl	a480 <printk>
    816c:	eb000a53 	bl	aac0 <clean_reboot>
    8170:	e59f0038 	ldr	r0, [pc, #56]	; 81b0 <test_resume+0x190>
    8174:	e1a01004 	mov	r1, r4
    8178:	e3a02009 	mov	r2, #9
    817c:	eb00050f 	bl	95c0 <fault_expected>
    8180:	e28dd008 	add	sp, sp, #8
    8184:	e8bd8070 	pop	{r4, r5, r6, pc}
    8188:	0000b258 	andeq	fp, r0, r8, asr r2
    818c:	0000b260 	andeq	fp, r0, r0, ror #4
    8190:	0000add4 	ldrdeq	sl, [r0], -r4
    8194:	0000b298 	muleq	r0, r8, r2
    8198:	0000b2e4 	andeq	fp, r0, r4, ror #5
    819c:	0000b2bc 			; <UNDEFINED> instruction: 0x0000b2bc
    81a0:	0000b2d0 	ldrdeq	fp, [r0], -r0
    81a4:	0000b37c 	andeq	fp, r0, ip, ror r3
    81a8:	0000b300 	andeq	fp, r0, r0, lsl #6
    81ac:	0000b314 	andeq	fp, r0, r4, lsl r3
    81b0:	0000ae04 	andeq	sl, r0, r4, lsl #28
    81b4:	0000b32c 	andeq	fp, r0, ip, lsr #6
    81b8:	0000b340 	andeq	fp, r0, r0, asr #6

000081bc <notmain>:
    81bc:	e92d4030 	push	{r4, r5, lr}
    81c0:	e24dd00c 	sub	sp, sp, #12
    81c4:	eb000679 	bl	9bb0 <memcheck_init>
    81c8:	eb0006cc 	bl	9d00 <memcheck_on>
    81cc:	eb000072 	bl	839c <mmu_is_enabled>
    81d0:	e3500000 	cmp	r0, #0
    81d4:	1a000008 	bne	81fc <notmain+0x40>
    81d8:	eb0008c3 	bl	a4ec <rpi_reset_putc>
    81dc:	e59f305c 	ldr	r3, [pc, #92]	; 8240 <notmain+0x84>
    81e0:	e58d3000 	str	r3, [sp]
    81e4:	e59f0058 	ldr	r0, [pc, #88]	; 8244 <notmain+0x88>
    81e8:	e59f1058 	ldr	r1, [pc, #88]	; 8248 <notmain+0x8c>
    81ec:	e59f2058 	ldr	r2, [pc, #88]	; 824c <notmain+0x90>
    81f0:	e3a03022 	mov	r3, #34	; 0x22
    81f4:	eb0008a1 	bl	a480 <printk>
    81f8:	eb000a30 	bl	aac0 <clean_reboot>
    81fc:	e3a00407 	mov	r0, #117440512	; 0x7000000
    8200:	eb00071a 	bl	9e70 <memcheck_track>
    8204:	eb00057a 	bl	97f4 <memcheck_continue_after_fault>
    8208:	e3a04000 	mov	r4, #0
    820c:	e3a05407 	mov	r5, #117440512	; 0x7000000
    8210:	ea000003 	b	8224 <notmain+0x68>
    8214:	e1a00005 	mov	r0, r5
    8218:	e1a01004 	mov	r1, r4
    821c:	ebffff7f 	bl	8020 <test_resume>
    8220:	e2844001 	add	r4, r4, #1
    8224:	e3540009 	cmp	r4, #9
    8228:	dafffff9 	ble	8214 <notmain+0x58>
    822c:	e59f001c 	ldr	r0, [pc, #28]	; 8250 <notmain+0x94>
    8230:	eb000892 	bl	a480 <printk>
    8234:	e59f0018 	ldr	r0, [pc, #24]	; 8254 <notmain+0x98>
    8238:	eb000890 	bl	a480 <printk>
    823c:	eb000a1f 	bl	aac0 <clean_reboot>
    8240:	0000b354 	andeq	fp, r0, r4, asr r3
    8244:	0000b2bc 			; <UNDEFINED> instruction: 0x0000b2bc
    8248:	0000b2d0 	ldrdeq	fp, [r0], -r0
    824c:	0000b374 	andeq	fp, r0, r4, ror r3
    8250:	0000b258 	andeq	fp, r0, r8, asr r2
    8254:	0000b368 	andeq	fp, r0, r8, ror #6

00008258 <_interrupt_table>:
    8258:	e59ff020 	ldr	pc, [pc, #32]	; 8280 <_reset_asm>
    825c:	e59ff020 	ldr	pc, [pc, #32]	; 8284 <_undefined_instruction_asm>
    8260:	e59ff020 	ldr	pc, [pc, #32]	; 8288 <_software_interrupt_asm>
    8264:	e59ff020 	ldr	pc, [pc, #32]	; 828c <_prefetch_abort_asm>
    8268:	e59ff020 	ldr	pc, [pc, #32]	; 8290 <_data_abort_asm>
    826c:	e59ff00c 	ldr	pc, [pc, #12]	; 8280 <_reset_asm>
    8270:	e59ff01c 	ldr	pc, [pc, #28]	; 8294 <_interrupt_asm>

00008274 <fast_interrupt_asm>:
    8274:	e3a0d409 	mov	sp, #150994944	; 0x9000000
    8278:	e24ee004 	sub	lr, lr, #4
    827c:	eb000a28 	bl	ab24 <fast_interrupt_vector>

00008280 <_reset_asm>:
    8280:	000082b0 			; <UNDEFINED> instruction: 0x000082b0

00008284 <_undefined_instruction_asm>:
    8284:	000082f4 	strdeq	r8, [r0], -r4

00008288 <_software_interrupt_asm>:
    8288:	00008300 	andeq	r8, r0, r0, lsl #6

0000828c <_prefetch_abort_asm>:
    828c:	000082d8 	ldrdeq	r8, [r0], -r8	; <UNPREDICTABLE>

00008290 <_data_abort_asm>:
    8290:	000082bc 			; <UNDEFINED> instruction: 0x000082bc

00008294 <_interrupt_asm>:
    8294:	00008298 	muleq	r0, r8, r2

00008298 <_interrupt_table_end>:
    8298:	e3a0d409 	mov	sp, #150994944	; 0x9000000
    829c:	e24ee004 	sub	lr, lr, #4
    82a0:	e92d5fff 	push	{r0, r1, r2, r3, r4, r5, r6, r7, r8, r9, sl, fp, ip, lr}
    82a4:	e1a0000e 	mov	r0, lr
    82a8:	e8bd5fff 	pop	{r0, r1, r2, r3, r4, r5, r6, r7, r8, r9, sl, fp, ip, lr}
    82ac:	e1b0f00e 	movs	pc, lr

000082b0 <reset_asm>:
    82b0:	e3a0d409 	mov	sp, #150994944	; 0x9000000
    82b4:	e24ee004 	sub	lr, lr, #4
    82b8:	eb000a3b 	bl	abac <reset_vector>

000082bc <data_abort_asm>:
    82bc:	e24ee008 	sub	lr, lr, #8
    82c0:	e3a0d409 	mov	sp, #150994944	; 0x9000000
    82c4:	e92d5fff 	push	{r0, r1, r2, r3, r4, r5, r6, r7, r8, r9, sl, fp, ip, lr}
    82c8:	e1a0000e 	mov	r0, lr
    82cc:	eb00054d 	bl	9808 <data_abort_vector>
    82d0:	e8bd5fff 	pop	{r0, r1, r2, r3, r4, r5, r6, r7, r8, r9, sl, fp, ip, lr}
    82d4:	e1b0f00e 	movs	pc, lr

000082d8 <prefetch_abort_asm>:
    82d8:	e24ee004 	sub	lr, lr, #4
    82dc:	e3a0d409 	mov	sp, #150994944	; 0x9000000
    82e0:	e92d5fff 	push	{r0, r1, r2, r3, r4, r5, r6, r7, r8, r9, sl, fp, ip, lr}
    82e4:	e1a0000e 	mov	r0, lr
    82e8:	eb000a1e 	bl	ab68 <prefetch_abort_vector>
    82ec:	e8bd5fff 	pop	{r0, r1, r2, r3, r4, r5, r6, r7, r8, r9, sl, fp, ip, lr}
    82f0:	e1b0f00e 	movs	pc, lr

000082f4 <undefined_instruction_asm>:
    82f4:	e3a0d409 	mov	sp, #150994944	; 0x9000000
    82f8:	e24ee004 	sub	lr, lr, #4
    82fc:	eb000a3b 	bl	abf0 <undefined_instruction_vector>

00008300 <software_interrupt_asm>:
    8300:	e92d5ff0 	push	{r4, r5, r6, r7, r8, r9, sl, fp, ip, lr}
    8304:	e24ee004 	sub	lr, lr, #4
    8308:	e1a01000 	mov	r1, r0
    830c:	e1a0000e 	mov	r0, lr
    8310:	e8bd5ff0 	pop	{r4, r5, r6, r7, r8, r9, sl, fp, ip, lr}
    8314:	e1b0f00e 	movs	pc, lr

00008318 <user_trampoline_ret>:
    8318:	e92d5ff0 	push	{r4, r5, r6, r7, r8, r9, sl, fp, ip, lr}
    831c:	e10f4000 	mrs	r4, CPSR
    8320:	e129f000 	msr	CPSR_fc, r0
    8324:	ee070f95 	mcr	15, 0, r0, cr7, cr5, {4}
    8328:	e3a0d407 	mov	sp, #117440512	; 0x7000000
    832c:	e1a00002 	mov	r0, r2
    8330:	e12fff31 	blx	r1
    8334:	e1a00004 	mov	r0, r4
    8338:	ef000001 	svc	0x00000001
    833c:	e8bd5ff0 	pop	{r4, r5, r6, r7, r8, r9, sl, fp, ip, lr}
    8340:	e12fff1e 	bx	lr

00008344 <sys_try_lock_asm>:
    8344:	e92d5ff0 	push	{r4, r5, r6, r7, r8, r9, sl, fp, ip, lr}
    8348:	ef000002 	svc	0x00000002
    834c:	e8bd5ff0 	pop	{r4, r5, r6, r7, r8, r9, sl, fp, ip, lr}
    8350:	e12fff1e 	bx	lr

00008354 <sys_foo_asm>:
    8354:	e92d5ff0 	push	{r4, r5, r6, r7, r8, r9, sl, fp, ip, lr}
    8358:	ef000003 	svc	0x00000003
    835c:	e8bd5ff0 	pop	{r4, r5, r6, r7, r8, r9, sl, fp, ip, lr}
    8360:	e12fff1e 	bx	lr

00008364 <run_fn_helper>:
    8364:	e92d5ff0 	push	{r4, r5, r6, r7, r8, r9, sl, fp, ip, lr}
    8368:	e10f4000 	mrs	r4, CPSR
    836c:	e129f000 	msr	CPSR_fc, r0
    8370:	ee070f95 	mcr	15, 0, r0, cr7, cr5, {4}
    8374:	e1a0d002 	mov	sp, r2
    8378:	e1a00002 	mov	r0, r2
    837c:	e5911000 	ldr	r1, [r1]
    8380:	e12fff31 	blx	r1
    8384:	e1a05000 	mov	r5, r0
    8388:	e1a00004 	mov	r0, r4
    838c:	ef000001 	svc	0x00000001
    8390:	e1a00005 	mov	r0, r5
    8394:	e8bd5ff0 	pop	{r4, r5, r6, r7, r8, r9, sl, fp, ip, lr}
    8398:	e12fff1e 	bx	lr

0000839c <mmu_is_enabled>:
    839c:	e92d4008 	push	{r3, lr}
    83a0:	eb000722 	bl	a030 <cp15_ctrl_reg1_rd>
    83a4:	e2000001 	and	r0, r0, #1
    83a8:	e8bd8008 	pop	{r3, pc}

000083ac <mmu_lookup_section>:
    83ac:	e52de004 	push	{lr}		; (str lr, [sp, #-4]!)
    83b0:	e24dd00c 	sub	sp, sp, #12
    83b4:	e3110013 	tst	r1, #19
    83b8:	0a000008 	beq	83e0 <mmu_lookup_section+0x34>
    83bc:	eb00084a 	bl	a4ec <rpi_reset_putc>
    83c0:	e59f305c 	ldr	r3, [pc, #92]	; 8424 <mmu_lookup_section+0x78>
    83c4:	e58d3000 	str	r3, [sp]
    83c8:	e59f0058 	ldr	r0, [pc, #88]	; 8428 <mmu_lookup_section+0x7c>
    83cc:	e59f1058 	ldr	r1, [pc, #88]	; 842c <mmu_lookup_section+0x80>
    83d0:	e59f2058 	ldr	r2, [pc, #88]	; 8430 <mmu_lookup_section+0x84>
    83d4:	e3a03010 	mov	r3, #16
    83d8:	eb000828 	bl	a480 <printk>
    83dc:	eb0009b7 	bl	aac0 <clean_reboot>
    83e0:	e1a01a21 	lsr	r1, r1, #20
    83e4:	e0803101 	add	r3, r0, r1, lsl #2
    83e8:	e7d02101 	ldrb	r2, [r0, r1, lsl #2]
    83ec:	e3120003 	tst	r2, #3
    83f0:	1a000008 	bne	8418 <mmu_lookup_section+0x6c>
    83f4:	eb00083c 	bl	a4ec <rpi_reset_putc>
    83f8:	e59f3034 	ldr	r3, [pc, #52]	; 8434 <mmu_lookup_section+0x88>
    83fc:	e58d3000 	str	r3, [sp]
    8400:	e59f0030 	ldr	r0, [pc, #48]	; 8438 <mmu_lookup_section+0x8c>
    8404:	e59f1020 	ldr	r1, [pc, #32]	; 842c <mmu_lookup_section+0x80>
    8408:	e59f2020 	ldr	r2, [pc, #32]	; 8430 <mmu_lookup_section+0x84>
    840c:	e3a03013 	mov	r3, #19
    8410:	eb00081a 	bl	a480 <printk>
    8414:	eb0009a9 	bl	aac0 <clean_reboot>
    8418:	e1a00003 	mov	r0, r3
    841c:	e28dd00c 	add	sp, sp, #12
    8420:	e49df004 	pop	{pc}		; (ldr pc, [sp], #4)
    8424:	0000b484 	andeq	fp, r0, r4, lsl #9
    8428:	0000b2bc 			; <UNDEFINED> instruction: 0x0000b2bc
    842c:	0000b47c 	andeq	fp, r0, ip, ror r4
    8430:	0000b38c 	andeq	fp, r0, ip, lsl #7
    8434:	0000b4c8 	andeq	fp, r0, r8, asr #9
    8438:	0000b498 	muleq	r0, r8, r4

0000843c <mmu_mark_sec_ap_perm>:
    843c:	e92d41f0 	push	{r4, r5, r6, r7, r8, lr}
    8440:	e24dd008 	sub	sp, sp, #8
    8444:	e1a08000 	mov	r8, r0
    8448:	e1a05002 	mov	r5, r2
    844c:	e1a01aa1 	lsr	r1, r1, #21
    8450:	e1a07a81 	lsl	r7, r1, #21
    8454:	e3530003 	cmp	r3, #3
    8458:	9a000011 	bls	84a4 <mmu_mark_sec_ap_perm+0x68>
    845c:	eb000822 	bl	a4ec <rpi_reset_putc>
    8460:	e59f305c 	ldr	r3, [pc, #92]	; 84c4 <mmu_mark_sec_ap_perm+0x88>
    8464:	e58d3000 	str	r3, [sp]
    8468:	e59f0058 	ldr	r0, [pc, #88]	; 84c8 <mmu_mark_sec_ap_perm+0x8c>
    846c:	e59f1058 	ldr	r1, [pc, #88]	; 84cc <mmu_mark_sec_ap_perm+0x90>
    8470:	e59f2058 	ldr	r2, [pc, #88]	; 84d0 <mmu_mark_sec_ap_perm+0x94>
    8474:	e3a0301a 	mov	r3, #26
    8478:	eb000800 	bl	a480 <printk>
    847c:	eb00098f 	bl	aac0 <clean_reboot>
    8480:	e1a00008 	mov	r0, r8
    8484:	e1a01007 	mov	r1, r7
    8488:	ebffffc7 	bl	83ac <mmu_lookup_section>
    848c:	e5d03001 	ldrb	r3, [r0, #1]
    8490:	e3c3300c 	bic	r3, r3, #12
    8494:	e1863003 	orr	r3, r6, r3
    8498:	e5c03001 	strb	r3, [r0, #1]
    849c:	e2844001 	add	r4, r4, #1
    84a0:	ea000002 	b	84b0 <mmu_mark_sec_ap_perm+0x74>
    84a4:	e3a04000 	mov	r4, #0
    84a8:	e2036003 	and	r6, r3, #3
    84ac:	e1a06106 	lsl	r6, r6, #2
    84b0:	e1540005 	cmp	r4, r5
    84b4:	3afffff1 	bcc	8480 <mmu_mark_sec_ap_perm+0x44>
    84b8:	eb000758 	bl	a220 <our_mmu_sync_pte_mods>
    84bc:	e28dd008 	add	sp, sp, #8
    84c0:	e8bd81f0 	pop	{r4, r5, r6, r7, r8, pc}
    84c4:	0000b508 	andeq	fp, r0, r8, lsl #10
    84c8:	0000b4d4 	ldrdeq	fp, [r0], -r4
    84cc:	0000b47c 	andeq	fp, r0, ip, ror r4
    84d0:	0000b3a0 	andeq	fp, r0, r0, lsr #7

000084d4 <mmu_mark_sec_readonly>:
    84d4:	e92d4008 	push	{r3, lr}
    84d8:	e3a03002 	mov	r3, #2
    84dc:	ebffffd6 	bl	843c <mmu_mark_sec_ap_perm>
    84e0:	e8bd8008 	pop	{r3, pc}

000084e4 <mmu_mark_sec_rw>:
    84e4:	e92d4008 	push	{r3, lr}
    84e8:	e3a03003 	mov	r3, #3
    84ec:	ebffffd2 	bl	843c <mmu_mark_sec_ap_perm>
    84f0:	e8bd8008 	pop	{r3, pc}

000084f4 <mmu_mark_sec_no_access>:
    84f4:	e92d4008 	push	{r3, lr}
    84f8:	e3a03000 	mov	r3, #0
    84fc:	ebffffce 	bl	843c <mmu_mark_sec_ap_perm>
    8500:	e8bd8008 	pop	{r3, pc}

00008504 <fld_set_base_addr>:
    8504:	e52de004 	push	{lr}		; (str lr, [sp, #-4]!)
    8508:	e24dd00c 	sub	sp, sp, #12
    850c:	e3110013 	tst	r1, #19
    8510:	0a000008 	beq	8538 <fld_set_base_addr+0x34>
    8514:	eb0007f4 	bl	a4ec <rpi_reset_putc>
    8518:	e59f3064 	ldr	r3, [pc, #100]	; 8584 <fld_set_base_addr+0x80>
    851c:	e58d3000 	str	r3, [sp]
    8520:	e59f0060 	ldr	r0, [pc, #96]	; 8588 <fld_set_base_addr+0x84>
    8524:	e59f1060 	ldr	r1, [pc, #96]	; 858c <fld_set_base_addr+0x88>
    8528:	e59f2060 	ldr	r2, [pc, #96]	; 8590 <fld_set_base_addr+0x8c>
    852c:	e3a03032 	mov	r3, #50	; 0x32
    8530:	eb0007d2 	bl	a480 <printk>
    8534:	eb000961 	bl	aac0 <clean_reboot>
    8538:	e1a02a21 	lsr	r2, r1, #20
    853c:	e1d030b2 	ldrh	r3, [r0, #2]
    8540:	e3c33cff 	bic	r3, r3, #65280	; 0xff00
    8544:	e3c330f0 	bic	r3, r3, #240	; 0xf0
    8548:	e1833202 	orr	r3, r3, r2, lsl #4
    854c:	e1c030b2 	strh	r3, [r0, #2]
    8550:	e1510a02 	cmp	r1, r2, lsl #20
    8554:	0a000008 	beq	857c <fld_set_base_addr+0x78>
    8558:	eb0007e3 	bl	a4ec <rpi_reset_putc>
    855c:	e59f3030 	ldr	r3, [pc, #48]	; 8594 <fld_set_base_addr+0x90>
    8560:	e58d3000 	str	r3, [sp]
    8564:	e59f002c 	ldr	r0, [pc, #44]	; 8598 <fld_set_base_addr+0x94>
    8568:	e59f101c 	ldr	r1, [pc, #28]	; 858c <fld_set_base_addr+0x88>
    856c:	e59f201c 	ldr	r2, [pc, #28]	; 8590 <fld_set_base_addr+0x8c>
    8570:	e3a03037 	mov	r3, #55	; 0x37
    8574:	eb0007c1 	bl	a480 <printk>
    8578:	eb000950 	bl	aac0 <clean_reboot>
    857c:	e28dd00c 	add	sp, sp, #12
    8580:	e49df004 	pop	{pc}		; (ldr pc, [sp], #4)
    8584:	0000b54c 	andeq	fp, r0, ip, asr #10
    8588:	0000b518 	andeq	fp, r0, r8, lsl r5
    858c:	0000b47c 	andeq	fp, r0, ip, ror r4
    8590:	0000b3c8 	andeq	fp, r0, r8, asr #7
    8594:	0000b578 	andeq	fp, r0, r8, ror r5
    8598:	0000b2bc 			; <UNDEFINED> instruction: 0x0000b2bc

0000859c <mmu_map_section>:
    859c:	e92d43f0 	push	{r4, r5, r6, r7, r8, r9, lr}
    85a0:	e24dd00c 	sub	sp, sp, #12
    85a4:	e1a04000 	mov	r4, r0
    85a8:	e1a09002 	mov	r9, r2
    85ac:	e1a08003 	mov	r8, r3
    85b0:	e353000f 	cmp	r3, #15
    85b4:	9a000008 	bls	85dc <mmu_map_section+0x40>
    85b8:	eb0007cb 	bl	a4ec <rpi_reset_putc>
    85bc:	e59f3140 	ldr	r3, [pc, #320]	; 8704 <mmu_map_section+0x168>
    85c0:	e58d3000 	str	r3, [sp]
    85c4:	e59f013c 	ldr	r0, [pc, #316]	; 8708 <mmu_map_section+0x16c>
    85c8:	e59f113c 	ldr	r1, [pc, #316]	; 870c <mmu_map_section+0x170>
    85cc:	e59f213c 	ldr	r2, [pc, #316]	; 8710 <mmu_map_section+0x174>
    85d0:	e3a03042 	mov	r3, #66	; 0x42
    85d4:	eb0007a9 	bl	a480 <printk>
    85d8:	eb000938 	bl	aac0 <clean_reboot>
    85dc:	e3110013 	tst	r1, #19
    85e0:	0a000008 	beq	8608 <mmu_map_section+0x6c>
    85e4:	eb0007c0 	bl	a4ec <rpi_reset_putc>
    85e8:	e59f3124 	ldr	r3, [pc, #292]	; 8714 <mmu_map_section+0x178>
    85ec:	e58d3000 	str	r3, [sp]
    85f0:	e59f0110 	ldr	r0, [pc, #272]	; 8708 <mmu_map_section+0x16c>
    85f4:	e59f1110 	ldr	r1, [pc, #272]	; 870c <mmu_map_section+0x170>
    85f8:	e59f2110 	ldr	r2, [pc, #272]	; 8710 <mmu_map_section+0x174>
    85fc:	e3a03043 	mov	r3, #67	; 0x43
    8600:	eb00079e 	bl	a480 <printk>
    8604:	eb00092d 	bl	aac0 <clean_reboot>
    8608:	e3120013 	tst	r2, #19
    860c:	0a000008 	beq	8634 <mmu_map_section+0x98>
    8610:	eb0007b5 	bl	a4ec <rpi_reset_putc>
    8614:	e59f30fc 	ldr	r3, [pc, #252]	; 8718 <mmu_map_section+0x17c>
    8618:	e58d3000 	str	r3, [sp]
    861c:	e59f00e4 	ldr	r0, [pc, #228]	; 8708 <mmu_map_section+0x16c>
    8620:	e59f10e4 	ldr	r1, [pc, #228]	; 870c <mmu_map_section+0x170>
    8624:	e59f20e4 	ldr	r2, [pc, #228]	; 8710 <mmu_map_section+0x174>
    8628:	e3a03044 	mov	r3, #68	; 0x44
    862c:	eb000793 	bl	a480 <printk>
    8630:	eb000922 	bl	aac0 <clean_reboot>
    8634:	e1a06a21 	lsr	r6, r1, #20
    8638:	e1a07106 	lsl	r7, r6, #2
    863c:	e0805007 	add	r5, r0, r7
    8640:	e7d03106 	ldrb	r3, [r0, r6, lsl #2]
    8644:	e3130003 	tst	r3, #3
    8648:	0a000008 	beq	8670 <mmu_map_section+0xd4>
    864c:	eb0007a6 	bl	a4ec <rpi_reset_putc>
    8650:	e59f30c4 	ldr	r3, [pc, #196]	; 871c <mmu_map_section+0x180>
    8654:	e58d3000 	str	r3, [sp]
    8658:	e59f00c0 	ldr	r0, [pc, #192]	; 8720 <mmu_map_section+0x184>
    865c:	e59f10a8 	ldr	r1, [pc, #168]	; 870c <mmu_map_section+0x170>
    8660:	e59f20a8 	ldr	r2, [pc, #168]	; 8710 <mmu_map_section+0x174>
    8664:	e3a03048 	mov	r3, #72	; 0x48
    8668:	eb000784 	bl	a480 <printk>
    866c:	eb000913 	bl	aac0 <clean_reboot>
    8670:	eb00031d 	bl	92ec <fld_mk>
    8674:	e7840106 	str	r0, [r4, r6, lsl #2]
    8678:	e5d53002 	ldrb	r3, [r5, #2]
    867c:	e3c33002 	bic	r3, r3, #2
    8680:	e5c53002 	strb	r3, [r5, #2]
    8684:	e5d53001 	ldrb	r3, [r5, #1]
    8688:	e203300f 	and	r3, r3, #15
    868c:	e383300c 	orr	r3, r3, #12
    8690:	e5c53001 	strb	r3, [r5, #1]
    8694:	e19430b7 	ldrh	r3, [r4, r7]
    8698:	e208800f 	and	r8, r8, #15
    869c:	e3c33e1e 	bic	r3, r3, #480	; 0x1e0
    86a0:	e1838288 	orr	r8, r3, r8, lsl #5
    86a4:	e18480b7 	strh	r8, [r4, r7]
    86a8:	e7d43106 	ldrb	r3, [r4, r6, lsl #2]
    86ac:	e3c33010 	bic	r3, r3, #16
    86b0:	e7c43106 	strb	r3, [r4, r6, lsl #2]
    86b4:	e1a00005 	mov	r0, r5
    86b8:	e1a01009 	mov	r1, r9
    86bc:	ebffff90 	bl	8504 <fld_set_base_addr>
    86c0:	e59f305c 	ldr	r3, [pc, #92]	; 8724 <mmu_map_section+0x188>
    86c4:	e5933000 	ldr	r3, [r3]
    86c8:	e3530000 	cmp	r3, #0
    86cc:	0a000009 	beq	86f8 <mmu_map_section+0x15c>
    86d0:	e1a00005 	mov	r0, r5
    86d4:	eb000333 	bl	93a8 <fld_print>
    86d8:	e59f0048 	ldr	r0, [pc, #72]	; 8728 <mmu_map_section+0x18c>
    86dc:	e1a01004 	mov	r1, r4
    86e0:	e7942106 	ldr	r2, [r4, r6, lsl #2]
    86e4:	eb000765 	bl	a480 <printk>
    86e8:	e59f003c 	ldr	r0, [pc, #60]	; 872c <mmu_map_section+0x190>
    86ec:	e1a01005 	mov	r1, r5
    86f0:	e3a02004 	mov	r2, #4
    86f4:	eb00015f 	bl	8c78 <hash_print>
    86f8:	e1a00005 	mov	r0, r5
    86fc:	e28dd00c 	add	sp, sp, #12
    8700:	e8bd83f0 	pop	{r4, r5, r6, r7, r8, r9, pc}
    8704:	0000b59c 	muleq	r0, ip, r5
    8708:	0000b2bc 			; <UNDEFINED> instruction: 0x0000b2bc
    870c:	0000b47c 	andeq	fp, r0, ip, ror r4
    8710:	0000b3b8 			; <UNDEFINED> instruction: 0x0000b3b8
    8714:	0000b484 	andeq	fp, r0, r4, lsl #9
    8718:	0000b5a8 	andeq	fp, r0, r8, lsr #11
    871c:	0000b5e8 	andeq	fp, r0, r8, ror #11
    8720:	0000b5bc 			; <UNDEFINED> instruction: 0x0000b5bc
    8724:	0000c5a8 	andeq	ip, r0, r8, lsr #11
    8728:	0000b5f4 	strdeq	fp, [r0], -r4
    872c:	0000b608 	andeq	fp, r0, r8, lsl #12

00008730 <mmu_map_sections>:
    8730:	e92d43f0 	push	{r4, r5, r6, r7, r8, r9, lr}
    8734:	e24dd00c 	sub	sp, sp, #12
    8738:	e1a09000 	mov	r9, r0
    873c:	e1a05001 	mov	r5, r1
    8740:	e1a06002 	mov	r6, r2
    8744:	e1a07003 	mov	r7, r3
    8748:	e59d8028 	ldr	r8, [sp, #40]	; 0x28
    874c:	e358000f 	cmp	r8, #15
    8750:	9a000008 	bls	8778 <mmu_map_sections+0x48>
    8754:	eb000764 	bl	a4ec <rpi_reset_putc>
    8758:	e59f30a8 	ldr	r3, [pc, #168]	; 8808 <mmu_map_sections+0xd8>
    875c:	e58d3000 	str	r3, [sp]
    8760:	e59f00a4 	ldr	r0, [pc, #164]	; 880c <mmu_map_sections+0xdc>
    8764:	e59f10a4 	ldr	r1, [pc, #164]	; 8810 <mmu_map_sections+0xe0>
    8768:	e59f20a4 	ldr	r2, [pc, #164]	; 8814 <mmu_map_sections+0xe4>
    876c:	e3a03060 	mov	r3, #96	; 0x60
    8770:	eb000742 	bl	a480 <printk>
    8774:	eb0008d1 	bl	aac0 <clean_reboot>
    8778:	e3110013 	tst	r1, #19
    877c:	0a000008 	beq	87a4 <mmu_map_sections+0x74>
    8780:	eb000759 	bl	a4ec <rpi_reset_putc>
    8784:	e59f308c 	ldr	r3, [pc, #140]	; 8818 <mmu_map_sections+0xe8>
    8788:	e58d3000 	str	r3, [sp]
    878c:	e59f0078 	ldr	r0, [pc, #120]	; 880c <mmu_map_sections+0xdc>
    8790:	e59f1078 	ldr	r1, [pc, #120]	; 8810 <mmu_map_sections+0xe0>
    8794:	e59f2078 	ldr	r2, [pc, #120]	; 8814 <mmu_map_sections+0xe4>
    8798:	e3a03061 	mov	r3, #97	; 0x61
    879c:	eb000737 	bl	a480 <printk>
    87a0:	eb0008c6 	bl	aac0 <clean_reboot>
    87a4:	e3120013 	tst	r2, #19
    87a8:	0a000011 	beq	87f4 <mmu_map_sections+0xc4>
    87ac:	eb00074e 	bl	a4ec <rpi_reset_putc>
    87b0:	e59f3064 	ldr	r3, [pc, #100]	; 881c <mmu_map_sections+0xec>
    87b4:	e58d3000 	str	r3, [sp]
    87b8:	e59f004c 	ldr	r0, [pc, #76]	; 880c <mmu_map_sections+0xdc>
    87bc:	e59f104c 	ldr	r1, [pc, #76]	; 8810 <mmu_map_sections+0xe0>
    87c0:	e59f204c 	ldr	r2, [pc, #76]	; 8814 <mmu_map_sections+0xe4>
    87c4:	e3a03062 	mov	r3, #98	; 0x62
    87c8:	eb00072c 	bl	a480 <printk>
    87cc:	eb0008bb 	bl	aac0 <clean_reboot>
    87d0:	e1a00009 	mov	r0, r9
    87d4:	e1a01005 	mov	r1, r5
    87d8:	e1a02006 	mov	r2, r6
    87dc:	e1a03008 	mov	r3, r8
    87e0:	ebffff6d 	bl	859c <mmu_map_section>
    87e4:	e2855601 	add	r5, r5, #1048576	; 0x100000
    87e8:	e2866601 	add	r6, r6, #1048576	; 0x100000
    87ec:	e2844001 	add	r4, r4, #1
    87f0:	ea000000 	b	87f8 <mmu_map_sections+0xc8>
    87f4:	e3a04000 	mov	r4, #0
    87f8:	e1540007 	cmp	r4, r7
    87fc:	3afffff3 	bcc	87d0 <mmu_map_sections+0xa0>
    8800:	e28dd00c 	add	sp, sp, #12
    8804:	e8bd83f0 	pop	{r4, r5, r6, r7, r8, r9, pc}
    8808:	0000b59c 	muleq	r0, ip, r5
    880c:	0000b2bc 			; <UNDEFINED> instruction: 0x0000b2bc
    8810:	0000b47c 	andeq	fp, r0, ip, ror r4
    8814:	0000b3dc 	ldrdeq	fp, [r0], -ip
    8818:	0000b484 	andeq	fp, r0, r4, lsl #9
    881c:	0000b5a8 	andeq	fp, r0, r8, lsr #11

00008820 <mmu_pt_alloc_at>:
    8820:	e92d4010 	push	{r4, lr}
    8824:	e24dd008 	sub	sp, sp, #8
    8828:	e1a04000 	mov	r4, r0
    882c:	e310000d 	tst	r0, #13
    8830:	0a000008 	beq	8858 <mmu_pt_alloc_at+0x38>
    8834:	eb00072c 	bl	a4ec <rpi_reset_putc>
    8838:	e59f305c 	ldr	r3, [pc, #92]	; 889c <mmu_pt_alloc_at+0x7c>
    883c:	e58d3000 	str	r3, [sp]
    8840:	e59f0058 	ldr	r0, [pc, #88]	; 88a0 <mmu_pt_alloc_at+0x80>
    8844:	e59f1058 	ldr	r1, [pc, #88]	; 88a4 <mmu_pt_alloc_at+0x84>
    8848:	e59f2058 	ldr	r2, [pc, #88]	; 88a8 <mmu_pt_alloc_at+0x88>
    884c:	e3a0306b 	mov	r3, #107	; 0x6b
    8850:	eb00070a 	bl	a480 <printk>
    8854:	eb000899 	bl	aac0 <clean_reboot>
    8858:	e3510901 	cmp	r1, #16384	; 0x4000
    885c:	0a000008 	beq	8884 <mmu_pt_alloc_at+0x64>
    8860:	eb000721 	bl	a4ec <rpi_reset_putc>
    8864:	e59f3040 	ldr	r3, [pc, #64]	; 88ac <mmu_pt_alloc_at+0x8c>
    8868:	e58d3000 	str	r3, [sp]
    886c:	e59f003c 	ldr	r0, [pc, #60]	; 88b0 <mmu_pt_alloc_at+0x90>
    8870:	e59f102c 	ldr	r1, [pc, #44]	; 88a4 <mmu_pt_alloc_at+0x84>
    8874:	e59f202c 	ldr	r2, [pc, #44]	; 88a8 <mmu_pt_alloc_at+0x88>
    8878:	e3a0306f 	mov	r3, #111	; 0x6f
    887c:	eb0006ff 	bl	a480 <printk>
    8880:	eb00088e 	bl	aac0 <clean_reboot>
    8884:	e3a01000 	mov	r1, #0
    8888:	e3a02901 	mov	r2, #16384	; 0x4000
    888c:	eb0006f3 	bl	a460 <memset>
    8890:	e1a00004 	mov	r0, r4
    8894:	e28dd008 	add	sp, sp, #8
    8898:	e8bd8010 	pop	{r4, pc}
    889c:	0000b64c 	andeq	fp, r0, ip, asr #12
    88a0:	0000b614 	andeq	fp, r0, r4, lsl r6
    88a4:	0000b47c 	andeq	fp, r0, ip, ror r4
    88a8:	0000b3f0 	strdeq	fp, [r0], -r0
    88ac:	0000b6c8 	andeq	fp, r0, r8, asr #13
    88b0:	0000b68c 	andeq	fp, r0, ip, lsl #13

000088b4 <mmu_pt_alloc>:
    88b4:	e52de004 	push	{lr}		; (str lr, [sp, #-4]!)
    88b8:	e24dd00c 	sub	sp, sp, #12
    88bc:	e3500a01 	cmp	r0, #4096	; 0x1000
    88c0:	0a000008 	beq	88e8 <mmu_pt_alloc+0x34>
    88c4:	eb000708 	bl	a4ec <rpi_reset_putc>
    88c8:	e59f305c 	ldr	r3, [pc, #92]	; 892c <mmu_pt_alloc+0x78>
    88cc:	e58d3000 	str	r3, [sp]
    88d0:	e59f0058 	ldr	r0, [pc, #88]	; 8930 <mmu_pt_alloc+0x7c>
    88d4:	e59f1058 	ldr	r1, [pc, #88]	; 8934 <mmu_pt_alloc+0x80>
    88d8:	e59f2058 	ldr	r2, [pc, #88]	; 8938 <mmu_pt_alloc+0x84>
    88dc:	e3a03076 	mov	r3, #118	; 0x76
    88e0:	eb0006e6 	bl	a480 <printk>
    88e4:	eb000875 	bl	aac0 <clean_reboot>
    88e8:	e3a01901 	mov	r1, #16384	; 0x4000
    88ec:	eb000a27 	bl	b190 <kmalloc_aligned>
    88f0:	e310000d 	tst	r0, #13
    88f4:	0a000008 	beq	891c <mmu_pt_alloc+0x68>
    88f8:	eb0006fb 	bl	a4ec <rpi_reset_putc>
    88fc:	e59f3038 	ldr	r3, [pc, #56]	; 893c <mmu_pt_alloc+0x88>
    8900:	e58d3000 	str	r3, [sp]
    8904:	e59f0034 	ldr	r0, [pc, #52]	; 8940 <mmu_pt_alloc+0x8c>
    8908:	e59f1024 	ldr	r1, [pc, #36]	; 8934 <mmu_pt_alloc+0x80>
    890c:	e59f2024 	ldr	r2, [pc, #36]	; 8938 <mmu_pt_alloc+0x84>
    8910:	e3a0307b 	mov	r3, #123	; 0x7b
    8914:	eb0006d9 	bl	a480 <printk>
    8918:	eb000868 	bl	aac0 <clean_reboot>
    891c:	e3a01901 	mov	r1, #16384	; 0x4000
    8920:	ebffffbe 	bl	8820 <mmu_pt_alloc_at>
    8924:	e28dd00c 	add	sp, sp, #12
    8928:	e49df004 	pop	{pc}		; (ldr pc, [sp], #4)
    892c:	0000b72c 	andeq	fp, r0, ip, lsr #14
    8930:	0000b6d4 	ldrdeq	fp, [r0], -r4
    8934:	0000b47c 	andeq	fp, r0, ip, ror r4
    8938:	0000b400 	andeq	fp, r0, r0, lsl #8
    893c:	0000b738 	andeq	fp, r0, r8, lsr r7
    8940:	0000b614 	andeq	fp, r0, r4, lsl r6

00008944 <mmu_init>:
    8944:	e52de004 	push	{lr}		; (str lr, [sp, #-4]!)
    8948:	e24dd00c 	sub	sp, sp, #12
    894c:	eb000645 	bl	a268 <our_mmu_reset>
    8950:	eb0005b6 	bl	a030 <cp15_ctrl_reg1_rd>
    8954:	e3800502 	orr	r0, r0, #8388608	; 0x800000
    8958:	eb000629 	bl	a204 <cp15_ctrl_reg1_wr>
    895c:	eb0005b3 	bl	a030 <cp15_ctrl_reg1_rd>
    8960:	e3100502 	tst	r0, #8388608	; 0x800000
    8964:	1a000008 	bne	898c <mmu_init+0x48>
    8968:	eb0006df 	bl	a4ec <rpi_reset_putc>
    896c:	e59f304c 	ldr	r3, [pc, #76]	; 89c0 <mmu_init+0x7c>
    8970:	e58d3000 	str	r3, [sp]
    8974:	e59f0048 	ldr	r0, [pc, #72]	; 89c4 <mmu_init+0x80>
    8978:	e59f1048 	ldr	r1, [pc, #72]	; 89c8 <mmu_init+0x84>
    897c:	e59f2048 	ldr	r2, [pc, #72]	; 89cc <mmu_init+0x88>
    8980:	e3a0308e 	mov	r3, #142	; 0x8e
    8984:	eb0006bd 	bl	a480 <printk>
    8988:	eb00084c 	bl	aac0 <clean_reboot>
    898c:	e3100001 	tst	r0, #1
    8990:	0a000008 	beq	89b8 <mmu_init+0x74>
    8994:	eb0006d4 	bl	a4ec <rpi_reset_putc>
    8998:	e59f3030 	ldr	r3, [pc, #48]	; 89d0 <mmu_init+0x8c>
    899c:	e58d3000 	str	r3, [sp]
    89a0:	e59f001c 	ldr	r0, [pc, #28]	; 89c4 <mmu_init+0x80>
    89a4:	e59f101c 	ldr	r1, [pc, #28]	; 89c8 <mmu_init+0x84>
    89a8:	e59f201c 	ldr	r2, [pc, #28]	; 89cc <mmu_init+0x88>
    89ac:	e3a0308f 	mov	r3, #143	; 0x8f
    89b0:	eb0006b2 	bl	a480 <printk>
    89b4:	eb000841 	bl	aac0 <clean_reboot>
    89b8:	e28dd00c 	add	sp, sp, #12
    89bc:	e49df004 	pop	{pc}		; (ldr pc, [sp], #4)
    89c0:	0000b774 	andeq	fp, r0, r4, ror r7
    89c4:	0000b2bc 			; <UNDEFINED> instruction: 0x0000b2bc
    89c8:	0000b47c 	andeq	fp, r0, ip, ror r4
    89cc:	0000b410 	andeq	fp, r0, r0, lsl r4
    89d0:	0000b780 	andeq	fp, r0, r0, lsl #15

000089d4 <mmu_install_handlers>:
    89d4:	e92d4008 	push	{r3, lr}
    89d8:	eb000897 	bl	ac3c <int_init>
    89dc:	e8bd8008 	pop	{r3, pc}

000089e0 <mmu_disable_set>:
    89e0:	e52de004 	push	{lr}		; (str lr, [sp, #-4]!)
    89e4:	e24dd00c 	sub	sp, sp, #12
    89e8:	e3100001 	tst	r0, #1
    89ec:	0a000008 	beq	8a14 <mmu_disable_set+0x34>
    89f0:	eb0006bd 	bl	a4ec <rpi_reset_putc>
    89f4:	e59f3050 	ldr	r3, [pc, #80]	; 8a4c <mmu_disable_set+0x6c>
    89f8:	e58d3000 	str	r3, [sp]
    89fc:	e59f004c 	ldr	r0, [pc, #76]	; 8a50 <mmu_disable_set+0x70>
    8a00:	e59f104c 	ldr	r1, [pc, #76]	; 8a54 <mmu_disable_set+0x74>
    8a04:	e59f204c 	ldr	r2, [pc, #76]	; 8a58 <mmu_disable_set+0x78>
    8a08:	e3a03098 	mov	r3, #152	; 0x98
    8a0c:	eb00069b 	bl	a480 <printk>
    8a10:	eb00082a 	bl	aac0 <clean_reboot>
    8a14:	e3100004 	tst	r0, #4
    8a18:	0a000008 	beq	8a40 <mmu_disable_set+0x60>
    8a1c:	eb0006b2 	bl	a4ec <rpi_reset_putc>
    8a20:	e59f3034 	ldr	r3, [pc, #52]	; 8a5c <mmu_disable_set+0x7c>
    8a24:	e58d3000 	str	r3, [sp]
    8a28:	e59f0020 	ldr	r0, [pc, #32]	; 8a50 <mmu_disable_set+0x70>
    8a2c:	e59f1020 	ldr	r1, [pc, #32]	; 8a54 <mmu_disable_set+0x74>
    8a30:	e59f2020 	ldr	r2, [pc, #32]	; 8a58 <mmu_disable_set+0x78>
    8a34:	e3a03099 	mov	r3, #153	; 0x99
    8a38:	eb000690 	bl	a480 <printk>
    8a3c:	eb00081f 	bl	aac0 <clean_reboot>
    8a40:	eb000629 	bl	a2ec <our_mmu_disable_set_asm>
    8a44:	e28dd00c 	add	sp, sp, #12
    8a48:	e49df004 	pop	{pc}		; (ldr pc, [sp], #4)
    8a4c:	0000b790 	muleq	r0, r0, r7
    8a50:	0000b2bc 			; <UNDEFINED> instruction: 0x0000b2bc
    8a54:	0000b47c 	andeq	fp, r0, ip, ror r4
    8a58:	0000b41c 	andeq	fp, r0, ip, lsl r4
    8a5c:	0000b7a0 	andeq	fp, r0, r0, lsr #15

00008a60 <mmu_disable>:
    8a60:	e52de004 	push	{lr}		; (str lr, [sp, #-4]!)
    8a64:	e24dd00c 	sub	sp, sp, #12
    8a68:	eb000570 	bl	a030 <cp15_ctrl_reg1_rd>
    8a6c:	e3100001 	tst	r0, #1
    8a70:	1a000008 	bne	8a98 <mmu_disable+0x38>
    8a74:	eb00069c 	bl	a4ec <rpi_reset_putc>
    8a78:	e59f3028 	ldr	r3, [pc, #40]	; 8aa8 <mmu_disable+0x48>
    8a7c:	e58d3000 	str	r3, [sp]
    8a80:	e59f0024 	ldr	r0, [pc, #36]	; 8aac <mmu_disable+0x4c>
    8a84:	e59f1024 	ldr	r1, [pc, #36]	; 8ab0 <mmu_disable+0x50>
    8a88:	e59f2024 	ldr	r2, [pc, #36]	; 8ab4 <mmu_disable+0x54>
    8a8c:	e3a0309e 	mov	r3, #158	; 0x9e
    8a90:	eb00067a 	bl	a480 <printk>
    8a94:	eb000809 	bl	aac0 <clean_reboot>
    8a98:	e3c00001 	bic	r0, r0, #1
    8a9c:	ebffffcf 	bl	89e0 <mmu_disable_set>
    8aa0:	e28dd00c 	add	sp, sp, #12
    8aa4:	e49df004 	pop	{pc}		; (ldr pc, [sp], #4)
    8aa8:	0000b7b4 			; <UNDEFINED> instruction: 0x0000b7b4
    8aac:	0000b2bc 			; <UNDEFINED> instruction: 0x0000b2bc
    8ab0:	0000b47c 	andeq	fp, r0, ip, ror r4
    8ab4:	0000b42c 	andeq	fp, r0, ip, lsr #8

00008ab8 <mmu_enable_set>:
    8ab8:	e52de004 	push	{lr}		; (str lr, [sp, #-4]!)
    8abc:	e24dd00c 	sub	sp, sp, #12
    8ac0:	e3100001 	tst	r0, #1
    8ac4:	1a000008 	bne	8aec <mmu_enable_set+0x34>
    8ac8:	eb000687 	bl	a4ec <rpi_reset_putc>
    8acc:	e59f3024 	ldr	r3, [pc, #36]	; 8af8 <mmu_enable_set+0x40>
    8ad0:	e58d3000 	str	r3, [sp]
    8ad4:	e59f0020 	ldr	r0, [pc, #32]	; 8afc <mmu_enable_set+0x44>
    8ad8:	e59f1020 	ldr	r1, [pc, #32]	; 8b00 <mmu_enable_set+0x48>
    8adc:	e59f2020 	ldr	r2, [pc, #32]	; 8b04 <mmu_enable_set+0x4c>
    8ae0:	e3a030a4 	mov	r3, #164	; 0xa4
    8ae4:	eb000665 	bl	a480 <printk>
    8ae8:	eb0007f4 	bl	aac0 <clean_reboot>
    8aec:	eb0005f6 	bl	a2cc <our_mmu_enable_set_asm>
    8af0:	e28dd00c 	add	sp, sp, #12
    8af4:	e49df004 	pop	{pc}		; (ldr pc, [sp], #4)
    8af8:	0000b7b4 			; <UNDEFINED> instruction: 0x0000b7b4
    8afc:	0000b2bc 			; <UNDEFINED> instruction: 0x0000b2bc
    8b00:	0000b47c 	andeq	fp, r0, ip, ror r4
    8b04:	0000b438 	andeq	fp, r0, r8, lsr r4

00008b08 <mmu_enable>:
    8b08:	e52de004 	push	{lr}		; (str lr, [sp, #-4]!)
    8b0c:	e24dd00c 	sub	sp, sp, #12
    8b10:	eb000546 	bl	a030 <cp15_ctrl_reg1_rd>
    8b14:	e3100001 	tst	r0, #1
    8b18:	0a000008 	beq	8b40 <mmu_enable+0x38>
    8b1c:	eb000672 	bl	a4ec <rpi_reset_putc>
    8b20:	e59f3028 	ldr	r3, [pc, #40]	; 8b50 <mmu_enable+0x48>
    8b24:	e58d3000 	str	r3, [sp]
    8b28:	e59f0024 	ldr	r0, [pc, #36]	; 8b54 <mmu_enable+0x4c>
    8b2c:	e59f1024 	ldr	r1, [pc, #36]	; 8b58 <mmu_enable+0x50>
    8b30:	e59f2024 	ldr	r2, [pc, #36]	; 8b5c <mmu_enable+0x54>
    8b34:	e3a030a9 	mov	r3, #169	; 0xa9
    8b38:	eb000650 	bl	a480 <printk>
    8b3c:	eb0007df 	bl	aac0 <clean_reboot>
    8b40:	e3800001 	orr	r0, r0, #1
    8b44:	ebffffdb 	bl	8ab8 <mmu_enable_set>
    8b48:	e28dd00c 	add	sp, sp, #12
    8b4c:	e49df004 	pop	{pc}		; (ldr pc, [sp], #4)
    8b50:	0000b790 	muleq	r0, r0, r7
    8b54:	0000b2bc 			; <UNDEFINED> instruction: 0x0000b2bc
    8b58:	0000b47c 	andeq	fp, r0, ip, ror r4
    8b5c:	0000b448 	andeq	fp, r0, r8, asr #8

00008b60 <read_domain_access_ctrl>:
    8b60:	ee130f10 	mrc	15, 0, r0, cr3, cr0, {0}
    8b64:	e12fff1e 	bx	lr

00008b68 <write_domain_access_ctrl>:
    8b68:	e92d4008 	push	{r3, lr}
    8b6c:	eb00059d 	bl	a1e8 <our_cp15_domain_ctrl_wr>
    8b70:	e8bd8008 	pop	{r3, pc}

00008b74 <set_procid_ttbr0>:
    8b74:	e52de004 	push	{lr}		; (str lr, [sp, #-4]!)
    8b78:	e24dd00c 	sub	sp, sp, #12
    8b7c:	e1b03c20 	lsrs	r3, r0, #24
    8b80:	0a000008 	beq	8ba8 <set_procid_ttbr0+0x34>
    8b84:	eb000658 	bl	a4ec <rpi_reset_putc>
    8b88:	e59f3088 	ldr	r3, [pc, #136]	; 8c18 <set_procid_ttbr0+0xa4>
    8b8c:	e58d3000 	str	r3, [sp]
    8b90:	e59f0084 	ldr	r0, [pc, #132]	; 8c1c <set_procid_ttbr0+0xa8>
    8b94:	e59f1084 	ldr	r1, [pc, #132]	; 8c20 <set_procid_ttbr0+0xac>
    8b98:	e59f2084 	ldr	r2, [pc, #132]	; 8c24 <set_procid_ttbr0+0xb0>
    8b9c:	e3a030bb 	mov	r3, #187	; 0xbb
    8ba0:	eb000636 	bl	a480 <printk>
    8ba4:	eb0007c5 	bl	aac0 <clean_reboot>
    8ba8:	e3500040 	cmp	r0, #64	; 0x40
    8bac:	8a000008 	bhi	8bd4 <set_procid_ttbr0+0x60>
    8bb0:	eb00064d 	bl	a4ec <rpi_reset_putc>
    8bb4:	e59f306c 	ldr	r3, [pc, #108]	; 8c28 <set_procid_ttbr0+0xb4>
    8bb8:	e58d3000 	str	r3, [sp]
    8bbc:	e59f0058 	ldr	r0, [pc, #88]	; 8c1c <set_procid_ttbr0+0xa8>
    8bc0:	e59f1058 	ldr	r1, [pc, #88]	; 8c20 <set_procid_ttbr0+0xac>
    8bc4:	e59f2058 	ldr	r2, [pc, #88]	; 8c24 <set_procid_ttbr0+0xb0>
    8bc8:	e3a030bc 	mov	r3, #188	; 0xbc
    8bcc:	eb00062b 	bl	a480 <printk>
    8bd0:	eb0007ba 	bl	aac0 <clean_reboot>
    8bd4:	e2413001 	sub	r3, r1, #1
    8bd8:	e353003e 	cmp	r3, #62	; 0x3e
    8bdc:	9a000008 	bls	8c04 <set_procid_ttbr0+0x90>
    8be0:	eb000641 	bl	a4ec <rpi_reset_putc>
    8be4:	e59f3040 	ldr	r3, [pc, #64]	; 8c2c <set_procid_ttbr0+0xb8>
    8be8:	e58d3000 	str	r3, [sp]
    8bec:	e59f0028 	ldr	r0, [pc, #40]	; 8c1c <set_procid_ttbr0+0xa8>
    8bf0:	e59f1028 	ldr	r1, [pc, #40]	; 8c20 <set_procid_ttbr0+0xac>
    8bf4:	e59f2028 	ldr	r2, [pc, #40]	; 8c24 <set_procid_ttbr0+0xb0>
    8bf8:	e3a030bd 	mov	r3, #189	; 0xbd
    8bfc:	eb00061f 	bl	a480 <printk>
    8c00:	eb0007ae 	bl	aac0 <clean_reboot>
    8c04:	e1810400 	orr	r0, r1, r0, lsl #8
    8c08:	e1a01002 	mov	r1, r2
    8c0c:	eb00058b 	bl	a240 <our_cp15_set_procid_ttbr0>
    8c10:	e28dd00c 	add	sp, sp, #12
    8c14:	e49df004 	pop	{pc}		; (ldr pc, [sp], #4)
    8c18:	0000b7c4 	andeq	fp, r0, r4, asr #15
    8c1c:	0000b2bc 			; <UNDEFINED> instruction: 0x0000b2bc
    8c20:	0000b47c 	andeq	fp, r0, ip, ror r4
    8c24:	0000b454 	andeq	fp, r0, r4, asr r4
    8c28:	0000b7d8 	ldrdeq	fp, [r0], -r8
    8c2c:	0000b7e4 	andeq	fp, r0, r4, ror #15

00008c30 <asm_not_implemented>:
    8c30:	e52de004 	push	{lr}		; (str lr, [sp, #-4]!)
    8c34:	e24dd00c 	sub	sp, sp, #12
    8c38:	e1a04000 	mov	r4, r0
    8c3c:	ebfffdd6 	bl	839c <mmu_is_enabled>
    8c40:	e3500000 	cmp	r0, #0
    8c44:	0a000000 	beq	8c4c <asm_not_implemented+0x1c>
    8c48:	ebffff84 	bl	8a60 <mmu_disable>
    8c4c:	eb000626 	bl	a4ec <rpi_reset_putc>
    8c50:	e58d4000 	str	r4, [sp]
    8c54:	e59f0010 	ldr	r0, [pc, #16]	; 8c6c <asm_not_implemented+0x3c>
    8c58:	e59f1010 	ldr	r1, [pc, #16]	; 8c70 <asm_not_implemented+0x40>
    8c5c:	e59f2010 	ldr	r2, [pc, #16]	; 8c74 <asm_not_implemented+0x44>
    8c60:	e3a030c5 	mov	r3, #197	; 0xc5
    8c64:	eb000605 	bl	a480 <printk>
    8c68:	eb000794 	bl	aac0 <clean_reboot>
    8c6c:	0000b7f8 	strdeq	fp, [r0], -r8
    8c70:	0000b47c 	andeq	fp, r0, ip, ror r4
    8c74:	0000b468 	andeq	fp, r0, r8, ror #8

00008c78 <hash_print>:
    8c78:	e92d4038 	push	{r3, r4, r5, lr}
    8c7c:	e1a05000 	mov	r5, r0
    8c80:	e1a04002 	mov	r4, r2
    8c84:	e1a00001 	mov	r0, r1
    8c88:	e1a01002 	mov	r1, r2
    8c8c:	eb0005b7 	bl	a370 <fast_hash>
    8c90:	e1a02000 	mov	r2, r0
    8c94:	e59f000c 	ldr	r0, [pc, #12]	; 8ca8 <hash_print+0x30>
    8c98:	e1a01005 	mov	r1, r5
    8c9c:	e1a03004 	mov	r3, r4
    8ca0:	eb0005f6 	bl	a480 <printk>
    8ca4:	e8bd8038 	pop	{r3, r4, r5, pc}
    8ca8:	0000b830 	andeq	fp, r0, r0, lsr r8

00008cac <domain_acl_print>:
    8cac:	e92d4008 	push	{r3, lr}
    8cb0:	e59f0014 	ldr	r0, [pc, #20]	; 8ccc <domain_acl_print+0x20>
    8cb4:	eb0005f1 	bl	a480 <printk>
    8cb8:	ebffffa8 	bl	8b60 <read_domain_access_ctrl>
    8cbc:	e1a01000 	mov	r1, r0
    8cc0:	e59f0008 	ldr	r0, [pc, #8]	; 8cd0 <domain_acl_print+0x24>
    8cc4:	eb0005ed 	bl	a480 <printk>
    8cc8:	e8bd8008 	pop	{r3, pc}
    8ccc:	0000b84c 	andeq	fp, r0, ip, asr #16
    8cd0:	0000b864 	andeq	fp, r0, r4, ror #16

00008cd4 <control_reg1_check_offsets>:
    8cd4:	e52de004 	push	{lr}		; (str lr, [sp, #-4]!)
    8cd8:	e49df004 	pop	{pc}		; (ldr pc, [sp], #4)

00008cdc <control_reg1_sanity_check>:
    8cdc:	e52de004 	push	{lr}		; (str lr, [sp, #-4]!)
    8ce0:	e24dd00c 	sub	sp, sp, #12
    8ce4:	e5d03000 	ldrb	r3, [r0]
    8ce8:	e1a03223 	lsr	r3, r3, #4
    8cec:	e2033007 	and	r3, r3, #7
    8cf0:	e3530007 	cmp	r3, #7
    8cf4:	0a000008 	beq	8d1c <control_reg1_sanity_check+0x40>
    8cf8:	eb0005fb 	bl	a4ec <rpi_reset_putc>
    8cfc:	e59f31a0 	ldr	r3, [pc, #416]	; 8ea4 <control_reg1_sanity_check+0x1c8>
    8d00:	e58d3000 	str	r3, [sp]
    8d04:	e59f019c 	ldr	r0, [pc, #412]	; 8ea8 <control_reg1_sanity_check+0x1cc>
    8d08:	e59f119c 	ldr	r1, [pc, #412]	; 8eac <control_reg1_sanity_check+0x1d0>
    8d0c:	e59f219c 	ldr	r2, [pc, #412]	; 8eb0 <control_reg1_sanity_check+0x1d4>
    8d10:	e3a0303b 	mov	r3, #59	; 0x3b
    8d14:	eb0005d9 	bl	a480 <printk>
    8d18:	eb000768 	bl	aac0 <clean_reboot>
    8d1c:	e5d03002 	ldrb	r3, [r0, #2]
    8d20:	e3130001 	tst	r3, #1
    8d24:	1a000008 	bne	8d4c <control_reg1_sanity_check+0x70>
    8d28:	eb0005ef 	bl	a4ec <rpi_reset_putc>
    8d2c:	e59f3180 	ldr	r3, [pc, #384]	; 8eb4 <control_reg1_sanity_check+0x1d8>
    8d30:	e58d3000 	str	r3, [sp]
    8d34:	e59f016c 	ldr	r0, [pc, #364]	; 8ea8 <control_reg1_sanity_check+0x1cc>
    8d38:	e59f116c 	ldr	r1, [pc, #364]	; 8eac <control_reg1_sanity_check+0x1d0>
    8d3c:	e59f216c 	ldr	r2, [pc, #364]	; 8eb0 <control_reg1_sanity_check+0x1d4>
    8d40:	e3a0303c 	mov	r3, #60	; 0x3c
    8d44:	eb0005cd 	bl	a480 <printk>
    8d48:	eb00075c 	bl	aac0 <clean_reboot>
    8d4c:	e5d03002 	ldrb	r3, [r0, #2]
    8d50:	e3130004 	tst	r3, #4
    8d54:	1a000008 	bne	8d7c <control_reg1_sanity_check+0xa0>
    8d58:	eb0005e3 	bl	a4ec <rpi_reset_putc>
    8d5c:	e59f3154 	ldr	r3, [pc, #340]	; 8eb8 <control_reg1_sanity_check+0x1dc>
    8d60:	e58d3000 	str	r3, [sp]
    8d64:	e59f013c 	ldr	r0, [pc, #316]	; 8ea8 <control_reg1_sanity_check+0x1cc>
    8d68:	e59f113c 	ldr	r1, [pc, #316]	; 8eac <control_reg1_sanity_check+0x1d0>
    8d6c:	e59f213c 	ldr	r2, [pc, #316]	; 8eb0 <control_reg1_sanity_check+0x1d4>
    8d70:	e3a0303d 	mov	r3, #61	; 0x3d
    8d74:	eb0005c1 	bl	a480 <printk>
    8d78:	eb000750 	bl	aac0 <clean_reboot>
    8d7c:	e5d03002 	ldrb	r3, [r0, #2]
    8d80:	e3130002 	tst	r3, #2
    8d84:	0a000008 	beq	8dac <control_reg1_sanity_check+0xd0>
    8d88:	eb0005d7 	bl	a4ec <rpi_reset_putc>
    8d8c:	e59f3128 	ldr	r3, [pc, #296]	; 8ebc <control_reg1_sanity_check+0x1e0>
    8d90:	e58d3000 	str	r3, [sp]
    8d94:	e59f010c 	ldr	r0, [pc, #268]	; 8ea8 <control_reg1_sanity_check+0x1cc>
    8d98:	e59f110c 	ldr	r1, [pc, #268]	; 8eac <control_reg1_sanity_check+0x1d0>
    8d9c:	e59f210c 	ldr	r2, [pc, #268]	; 8eb0 <control_reg1_sanity_check+0x1d4>
    8da0:	e3a03040 	mov	r3, #64	; 0x40
    8da4:	eb0005b5 	bl	a480 <printk>
    8da8:	eb000744 	bl	aac0 <clean_reboot>
    8dac:	e5d03002 	ldrb	r3, [r0, #2]
    8db0:	e3130008 	tst	r3, #8
    8db4:	0a000008 	beq	8ddc <control_reg1_sanity_check+0x100>
    8db8:	eb0005cb 	bl	a4ec <rpi_reset_putc>
    8dbc:	e59f30fc 	ldr	r3, [pc, #252]	; 8ec0 <control_reg1_sanity_check+0x1e4>
    8dc0:	e58d3000 	str	r3, [sp]
    8dc4:	e59f00dc 	ldr	r0, [pc, #220]	; 8ea8 <control_reg1_sanity_check+0x1cc>
    8dc8:	e59f10dc 	ldr	r1, [pc, #220]	; 8eac <control_reg1_sanity_check+0x1d0>
    8dcc:	e59f20dc 	ldr	r2, [pc, #220]	; 8eb0 <control_reg1_sanity_check+0x1d4>
    8dd0:	e3a03041 	mov	r3, #65	; 0x41
    8dd4:	eb0005a9 	bl	a480 <printk>
    8dd8:	eb000738 	bl	aac0 <clean_reboot>
    8ddc:	e5d03002 	ldrb	r3, [r0, #2]
    8de0:	e3130010 	tst	r3, #16
    8de4:	0a000008 	beq	8e0c <control_reg1_sanity_check+0x130>
    8de8:	eb0005bf 	bl	a4ec <rpi_reset_putc>
    8dec:	e59f30d0 	ldr	r3, [pc, #208]	; 8ec4 <control_reg1_sanity_check+0x1e8>
    8df0:	e58d3000 	str	r3, [sp]
    8df4:	e59f00ac 	ldr	r0, [pc, #172]	; 8ea8 <control_reg1_sanity_check+0x1cc>
    8df8:	e59f10ac 	ldr	r1, [pc, #172]	; 8eac <control_reg1_sanity_check+0x1d0>
    8dfc:	e59f20ac 	ldr	r2, [pc, #172]	; 8eb0 <control_reg1_sanity_check+0x1d4>
    8e00:	e3a03042 	mov	r3, #66	; 0x42
    8e04:	eb00059d 	bl	a480 <printk>
    8e08:	eb00072c 	bl	aac0 <clean_reboot>
    8e0c:	e5d03003 	ldrb	r3, [r0, #3]
    8e10:	e3130004 	tst	r3, #4
    8e14:	0a000008 	beq	8e3c <control_reg1_sanity_check+0x160>
    8e18:	eb0005b3 	bl	a4ec <rpi_reset_putc>
    8e1c:	e59f30a4 	ldr	r3, [pc, #164]	; 8ec8 <control_reg1_sanity_check+0x1ec>
    8e20:	e58d3000 	str	r3, [sp]
    8e24:	e59f007c 	ldr	r0, [pc, #124]	; 8ea8 <control_reg1_sanity_check+0x1cc>
    8e28:	e59f107c 	ldr	r1, [pc, #124]	; 8eac <control_reg1_sanity_check+0x1d0>
    8e2c:	e59f207c 	ldr	r2, [pc, #124]	; 8eb0 <control_reg1_sanity_check+0x1d4>
    8e30:	e3a0304b 	mov	r3, #75	; 0x4b
    8e34:	eb000591 	bl	a480 <printk>
    8e38:	eb000720 	bl	aac0 <clean_reboot>
    8e3c:	e5d03001 	ldrb	r3, [r0, #1]
    8e40:	e3130010 	tst	r3, #16
    8e44:	0a000008 	beq	8e6c <control_reg1_sanity_check+0x190>
    8e48:	eb0005a7 	bl	a4ec <rpi_reset_putc>
    8e4c:	e59f3078 	ldr	r3, [pc, #120]	; 8ecc <control_reg1_sanity_check+0x1f0>
    8e50:	e58d3000 	str	r3, [sp]
    8e54:	e59f004c 	ldr	r0, [pc, #76]	; 8ea8 <control_reg1_sanity_check+0x1cc>
    8e58:	e59f104c 	ldr	r1, [pc, #76]	; 8eac <control_reg1_sanity_check+0x1d0>
    8e5c:	e59f204c 	ldr	r2, [pc, #76]	; 8eb0 <control_reg1_sanity_check+0x1d4>
    8e60:	e3a0304c 	mov	r3, #76	; 0x4c
    8e64:	eb000585 	bl	a480 <printk>
    8e68:	eb000714 	bl	aac0 <clean_reboot>
    8e6c:	e5d03000 	ldrb	r3, [r0]
    8e70:	e3130004 	tst	r3, #4
    8e74:	0a000008 	beq	8e9c <control_reg1_sanity_check+0x1c0>
    8e78:	eb00059b 	bl	a4ec <rpi_reset_putc>
    8e7c:	e59f304c 	ldr	r3, [pc, #76]	; 8ed0 <control_reg1_sanity_check+0x1f4>
    8e80:	e58d3000 	str	r3, [sp]
    8e84:	e59f001c 	ldr	r0, [pc, #28]	; 8ea8 <control_reg1_sanity_check+0x1cc>
    8e88:	e59f101c 	ldr	r1, [pc, #28]	; 8eac <control_reg1_sanity_check+0x1d0>
    8e8c:	e59f201c 	ldr	r2, [pc, #28]	; 8eb0 <control_reg1_sanity_check+0x1d4>
    8e90:	e3a0304d 	mov	r3, #77	; 0x4d
    8e94:	eb000579 	bl	a480 <printk>
    8e98:	eb000708 	bl	aac0 <clean_reboot>
    8e9c:	e28dd00c 	add	sp, sp, #12
    8ea0:	e49df004 	pop	{pc}		; (ldr pc, [sp], #4)
    8ea4:	0000b9c8 	andeq	fp, r0, r8, asr #19
    8ea8:	0000b2bc 			; <UNDEFINED> instruction: 0x0000b2bc
    8eac:	0000b8b4 			; <UNDEFINED> instruction: 0x0000b8b4
    8eb0:	0000bc08 	andeq	fp, r0, r8, lsl #24
    8eb4:	0000b9e0 	andeq	fp, r0, r0, ror #19
    8eb8:	0000b9ec 	andeq	fp, r0, ip, ror #19
    8ebc:	0000b9f8 	strdeq	fp, [r0], -r8
    8ec0:	0000ba08 	andeq	fp, r0, r8, lsl #20
    8ec4:	0000ba18 	andeq	fp, r0, r8, lsl sl
    8ec8:	0000ba24 	andeq	fp, r0, r4, lsr #20
    8ecc:	0000ba34 	andeq	fp, r0, r4, lsr sl
    8ed0:	0000ba48 	andeq	fp, r0, r8, asr #20

00008ed4 <control_reg1_print>:
    8ed4:	e92d4010 	push	{r4, lr}
    8ed8:	e1a04000 	mov	r4, r0
    8edc:	ebffff7e 	bl	8cdc <control_reg1_sanity_check>
    8ee0:	e59f01a0 	ldr	r0, [pc, #416]	; 9088 <control_reg1_print+0x1b4>
    8ee4:	eb000565 	bl	a480 <printk>
    8ee8:	e5d41003 	ldrb	r1, [r4, #3]
    8eec:	e1a012a1 	lsr	r1, r1, #5
    8ef0:	e59f0194 	ldr	r0, [pc, #404]	; 908c <control_reg1_print+0x1b8>
    8ef4:	e2011001 	and	r1, r1, #1
    8ef8:	e59f2190 	ldr	r2, [pc, #400]	; 9090 <control_reg1_print+0x1bc>
    8efc:	eb00055f 	bl	a480 <printk>
    8f00:	e5d41003 	ldrb	r1, [r4, #3]
    8f04:	e1a01221 	lsr	r1, r1, #4
    8f08:	e59f017c 	ldr	r0, [pc, #380]	; 908c <control_reg1_print+0x1b8>
    8f0c:	e2011001 	and	r1, r1, #1
    8f10:	e59f217c 	ldr	r2, [pc, #380]	; 9094 <control_reg1_print+0x1c0>
    8f14:	eb000559 	bl	a480 <printk>
    8f18:	e5d41003 	ldrb	r1, [r4, #3]
    8f1c:	e1a01121 	lsr	r1, r1, #2
    8f20:	e59f0164 	ldr	r0, [pc, #356]	; 908c <control_reg1_print+0x1b8>
    8f24:	e2011001 	and	r1, r1, #1
    8f28:	e59f2168 	ldr	r2, [pc, #360]	; 9098 <control_reg1_print+0x1c4>
    8f2c:	eb000553 	bl	a480 <printk>
    8f30:	e5d41003 	ldrb	r1, [r4, #3]
    8f34:	e1a010a1 	lsr	r1, r1, #1
    8f38:	e59f014c 	ldr	r0, [pc, #332]	; 908c <control_reg1_print+0x1b8>
    8f3c:	e2011001 	and	r1, r1, #1
    8f40:	e59f2154 	ldr	r2, [pc, #340]	; 909c <control_reg1_print+0x1c8>
    8f44:	eb00054d 	bl	a480 <printk>
    8f48:	e5d41003 	ldrb	r1, [r4, #3]
    8f4c:	e59f0138 	ldr	r0, [pc, #312]	; 908c <control_reg1_print+0x1b8>
    8f50:	e2011001 	and	r1, r1, #1
    8f54:	e59f2144 	ldr	r2, [pc, #324]	; 90a0 <control_reg1_print+0x1cc>
    8f58:	eb000548 	bl	a480 <printk>
    8f5c:	e5d41002 	ldrb	r1, [r4, #2]
    8f60:	e59f0124 	ldr	r0, [pc, #292]	; 908c <control_reg1_print+0x1b8>
    8f64:	e1a013a1 	lsr	r1, r1, #7
    8f68:	e59f2134 	ldr	r2, [pc, #308]	; 90a4 <control_reg1_print+0x1d0>
    8f6c:	eb000543 	bl	a480 <printk>
    8f70:	e5d41002 	ldrb	r1, [r4, #2]
    8f74:	e1a01321 	lsr	r1, r1, #6
    8f78:	e59f010c 	ldr	r0, [pc, #268]	; 908c <control_reg1_print+0x1b8>
    8f7c:	e2011001 	and	r1, r1, #1
    8f80:	e59f2120 	ldr	r2, [pc, #288]	; 90a8 <control_reg1_print+0x1d4>
    8f84:	eb00053d 	bl	a480 <printk>
    8f88:	e5d41002 	ldrb	r1, [r4, #2]
    8f8c:	e1a012a1 	lsr	r1, r1, #5
    8f90:	e59f00f4 	ldr	r0, [pc, #244]	; 908c <control_reg1_print+0x1b8>
    8f94:	e2011001 	and	r1, r1, #1
    8f98:	e59f210c 	ldr	r2, [pc, #268]	; 90ac <control_reg1_print+0x1d8>
    8f9c:	eb000537 	bl	a480 <printk>
    8fa0:	e5d41001 	ldrb	r1, [r4, #1]
    8fa4:	e1a01321 	lsr	r1, r1, #6
    8fa8:	e59f00dc 	ldr	r0, [pc, #220]	; 908c <control_reg1_print+0x1b8>
    8fac:	e2011001 	and	r1, r1, #1
    8fb0:	e59f20f8 	ldr	r2, [pc, #248]	; 90b0 <control_reg1_print+0x1dc>
    8fb4:	eb000531 	bl	a480 <printk>
    8fb8:	e5d41001 	ldrb	r1, [r4, #1]
    8fbc:	e1a01221 	lsr	r1, r1, #4
    8fc0:	e59f00c4 	ldr	r0, [pc, #196]	; 908c <control_reg1_print+0x1b8>
    8fc4:	e2011001 	and	r1, r1, #1
    8fc8:	e59f20e4 	ldr	r2, [pc, #228]	; 90b4 <control_reg1_print+0x1e0>
    8fcc:	eb00052b 	bl	a480 <printk>
    8fd0:	e5d41001 	ldrb	r1, [r4, #1]
    8fd4:	e1a011a1 	lsr	r1, r1, #3
    8fd8:	e59f00ac 	ldr	r0, [pc, #172]	; 908c <control_reg1_print+0x1b8>
    8fdc:	e2011001 	and	r1, r1, #1
    8fe0:	e59f20d0 	ldr	r2, [pc, #208]	; 90b8 <control_reg1_print+0x1e4>
    8fe4:	eb000525 	bl	a480 <printk>
    8fe8:	e5d41001 	ldrb	r1, [r4, #1]
    8fec:	e1a010a1 	lsr	r1, r1, #1
    8ff0:	e59f0094 	ldr	r0, [pc, #148]	; 908c <control_reg1_print+0x1b8>
    8ff4:	e2011001 	and	r1, r1, #1
    8ff8:	e59f20bc 	ldr	r2, [pc, #188]	; 90bc <control_reg1_print+0x1e8>
    8ffc:	eb00051f 	bl	a480 <printk>
    9000:	e5d41001 	ldrb	r1, [r4, #1]
    9004:	e59f0080 	ldr	r0, [pc, #128]	; 908c <control_reg1_print+0x1b8>
    9008:	e2011001 	and	r1, r1, #1
    900c:	e59f20ac 	ldr	r2, [pc, #172]	; 90c0 <control_reg1_print+0x1ec>
    9010:	eb00051a 	bl	a480 <printk>
    9014:	e5d41000 	ldrb	r1, [r4]
    9018:	e59f006c 	ldr	r0, [pc, #108]	; 908c <control_reg1_print+0x1b8>
    901c:	e1a013a1 	lsr	r1, r1, #7
    9020:	e59f209c 	ldr	r2, [pc, #156]	; 90c4 <control_reg1_print+0x1f0>
    9024:	eb000515 	bl	a480 <printk>
    9028:	e5d41000 	ldrb	r1, [r4]
    902c:	e1a011a1 	lsr	r1, r1, #3
    9030:	e59f0054 	ldr	r0, [pc, #84]	; 908c <control_reg1_print+0x1b8>
    9034:	e2011001 	and	r1, r1, #1
    9038:	e59f2088 	ldr	r2, [pc, #136]	; 90c8 <control_reg1_print+0x1f4>
    903c:	eb00050f 	bl	a480 <printk>
    9040:	e5d41000 	ldrb	r1, [r4]
    9044:	e1a01121 	lsr	r1, r1, #2
    9048:	e59f003c 	ldr	r0, [pc, #60]	; 908c <control_reg1_print+0x1b8>
    904c:	e2011001 	and	r1, r1, #1
    9050:	e59f2074 	ldr	r2, [pc, #116]	; 90cc <control_reg1_print+0x1f8>
    9054:	eb000509 	bl	a480 <printk>
    9058:	e5d41000 	ldrb	r1, [r4]
    905c:	e1a010a1 	lsr	r1, r1, #1
    9060:	e59f0024 	ldr	r0, [pc, #36]	; 908c <control_reg1_print+0x1b8>
    9064:	e2011001 	and	r1, r1, #1
    9068:	e59f2060 	ldr	r2, [pc, #96]	; 90d0 <control_reg1_print+0x1fc>
    906c:	eb000503 	bl	a480 <printk>
    9070:	e5d41000 	ldrb	r1, [r4]
    9074:	e59f0010 	ldr	r0, [pc, #16]	; 908c <control_reg1_print+0x1b8>
    9078:	e2011001 	and	r1, r1, #1
    907c:	e59f2050 	ldr	r2, [pc, #80]	; 90d4 <control_reg1_print+0x200>
    9080:	eb0004fe 	bl	a480 <printk>
    9084:	e8bd8010 	pop	{r4, pc}
    9088:	0000ba60 	andeq	fp, r0, r0, ror #20
    908c:	0000ba78 	andeq	fp, r0, r8, ror sl
    9090:	0000b9bc 			; <UNDEFINED> instruction: 0x0000b9bc
    9094:	0000b9ac 	andeq	fp, r0, ip, lsr #19
    9098:	0000ba28 	andeq	fp, r0, r8, lsr #20
    909c:	0000b9a8 	andeq	fp, r0, r8, lsr #19
    90a0:	0000b99c 	muleq	r0, ip, r9
    90a4:	0000b994 	muleq	r0, r4, r9
    90a8:	0000b988 	andeq	fp, r0, r8, lsl #19
    90ac:	0000b984 	andeq	fp, r0, r4, lsl #19
    90b0:	0000b970 	andeq	fp, r0, r0, ror r9
    90b4:	0000ba38 	andeq	fp, r0, r8, lsr sl
    90b8:	0000b950 	andeq	fp, r0, r0, asr r9
    90bc:	0000b940 	andeq	fp, r0, r0, asr #18
    90c0:	0000b938 	andeq	fp, r0, r8, lsr r9
    90c4:	0000b92c 	andeq	fp, r0, ip, lsr #18
    90c8:	0000b920 	andeq	fp, r0, r0, lsr #18
    90cc:	0000ba4c 	andeq	fp, r0, ip, asr #20
    90d0:	0000b914 	andeq	fp, r0, r4, lsl r9
    90d4:	0000b784 	andeq	fp, r0, r4, lsl #15

000090d8 <tlb_config_check_offsets>:
    90d8:	e52de004 	push	{lr}		; (str lr, [sp, #-4]!)
    90dc:	e49df004 	pop	{pc}		; (ldr pc, [sp], #4)

000090e0 <tlb_config_print>:
    90e0:	e92d4010 	push	{r4, lr}
    90e4:	e1a04000 	mov	r4, r0
    90e8:	e59f002c 	ldr	r0, [pc, #44]	; 911c <tlb_config_print+0x3c>
    90ec:	eb0004e3 	bl	a480 <printk>
    90f0:	e5d41000 	ldrb	r1, [r4]
    90f4:	e59f0024 	ldr	r0, [pc, #36]	; 9120 <tlb_config_print+0x40>
    90f8:	e2011001 	and	r1, r1, #1
    90fc:	eb0004df 	bl	a480 <printk>
    9100:	e59f001c 	ldr	r0, [pc, #28]	; 9124 <tlb_config_print+0x44>
    9104:	e5d41001 	ldrb	r1, [r4, #1]
    9108:	eb0004dc 	bl	a480 <printk>
    910c:	e59f0014 	ldr	r0, [pc, #20]	; 9128 <tlb_config_print+0x48>
    9110:	e5d41002 	ldrb	r1, [r4, #2]
    9114:	eb0004d9 	bl	a480 <printk>
    9118:	e8bd8010 	pop	{r4, pc}
    911c:	0000bab0 			; <UNDEFINED> instruction: 0x0000bab0
    9120:	0000bac0 	andeq	fp, r0, r0, asr #21
    9124:	0000bad0 	ldrdeq	fp, [r0], -r0
    9128:	0000bae8 	andeq	fp, r0, r8, ror #21

0000912c <fld_check_valid>:
    912c:	e52de004 	push	{lr}		; (str lr, [sp, #-4]!)
    9130:	e24dd00c 	sub	sp, sp, #12
    9134:	e5d03002 	ldrb	r3, [r0, #2]
    9138:	e3130008 	tst	r3, #8
    913c:	0a000008 	beq	9164 <fld_check_valid+0x38>
    9140:	eb0004e9 	bl	a4ec <rpi_reset_putc>
    9144:	e59f3174 	ldr	r3, [pc, #372]	; 92c0 <fld_check_valid+0x194>
    9148:	e58d3000 	str	r3, [sp]
    914c:	e59f0170 	ldr	r0, [pc, #368]	; 92c4 <fld_check_valid+0x198>
    9150:	e59f1170 	ldr	r1, [pc, #368]	; 92c8 <fld_check_valid+0x19c>
    9154:	e59f2170 	ldr	r2, [pc, #368]	; 92cc <fld_check_valid+0x1a0>
    9158:	e3a0307d 	mov	r3, #125	; 0x7d
    915c:	eb0004c7 	bl	a480 <printk>
    9160:	eb000656 	bl	aac0 <clean_reboot>
    9164:	e5d03000 	ldrb	r3, [r0]
    9168:	e2033003 	and	r3, r3, #3
    916c:	e3530002 	cmp	r3, #2
    9170:	0a000008 	beq	9198 <fld_check_valid+0x6c>
    9174:	eb0004dc 	bl	a4ec <rpi_reset_putc>
    9178:	e59f3150 	ldr	r3, [pc, #336]	; 92d0 <fld_check_valid+0x1a4>
    917c:	e58d3000 	str	r3, [sp]
    9180:	e59f013c 	ldr	r0, [pc, #316]	; 92c4 <fld_check_valid+0x198>
    9184:	e59f113c 	ldr	r1, [pc, #316]	; 92c8 <fld_check_valid+0x19c>
    9188:	e59f213c 	ldr	r2, [pc, #316]	; 92cc <fld_check_valid+0x1a0>
    918c:	e3a0307e 	mov	r3, #126	; 0x7e
    9190:	eb0004ba 	bl	a480 <printk>
    9194:	eb000649 	bl	aac0 <clean_reboot>
    9198:	e5d03002 	ldrb	r3, [r0, #2]
    919c:	e3130001 	tst	r3, #1
    91a0:	0a000008 	beq	91c8 <fld_check_valid+0x9c>
    91a4:	eb0004d0 	bl	a4ec <rpi_reset_putc>
    91a8:	e59f3124 	ldr	r3, [pc, #292]	; 92d4 <fld_check_valid+0x1a8>
    91ac:	e58d3000 	str	r3, [sp]
    91b0:	e59f010c 	ldr	r0, [pc, #268]	; 92c4 <fld_check_valid+0x198>
    91b4:	e59f110c 	ldr	r1, [pc, #268]	; 92c8 <fld_check_valid+0x19c>
    91b8:	e59f210c 	ldr	r2, [pc, #268]	; 92cc <fld_check_valid+0x1a0>
    91bc:	e3a0307f 	mov	r3, #127	; 0x7f
    91c0:	eb0004ae 	bl	a480 <printk>
    91c4:	eb00063d 	bl	aac0 <clean_reboot>
    91c8:	e5d03001 	ldrb	r3, [r0, #1]
    91cc:	e3130002 	tst	r3, #2
    91d0:	0a000008 	beq	91f8 <fld_check_valid+0xcc>
    91d4:	eb0004c4 	bl	a4ec <rpi_reset_putc>
    91d8:	e59f30f8 	ldr	r3, [pc, #248]	; 92d8 <fld_check_valid+0x1ac>
    91dc:	e58d3000 	str	r3, [sp]
    91e0:	e59f00dc 	ldr	r0, [pc, #220]	; 92c4 <fld_check_valid+0x198>
    91e4:	e59f10dc 	ldr	r1, [pc, #220]	; 92c8 <fld_check_valid+0x19c>
    91e8:	e59f20dc 	ldr	r2, [pc, #220]	; 92cc <fld_check_valid+0x1a0>
    91ec:	e3a03080 	mov	r3, #128	; 0x80
    91f0:	eb0004a2 	bl	a480 <printk>
    91f4:	eb000631 	bl	aac0 <clean_reboot>
    91f8:	e5d03001 	ldrb	r3, [r0, #1]
    91fc:	e3130070 	tst	r3, #112	; 0x70
    9200:	0a000008 	beq	9228 <fld_check_valid+0xfc>
    9204:	eb0004b8 	bl	a4ec <rpi_reset_putc>
    9208:	e59f30cc 	ldr	r3, [pc, #204]	; 92dc <fld_check_valid+0x1b0>
    920c:	e58d3000 	str	r3, [sp]
    9210:	e59f00ac 	ldr	r0, [pc, #172]	; 92c4 <fld_check_valid+0x198>
    9214:	e59f10ac 	ldr	r1, [pc, #172]	; 92c8 <fld_check_valid+0x19c>
    9218:	e59f20ac 	ldr	r2, [pc, #172]	; 92cc <fld_check_valid+0x1a0>
    921c:	e3a03081 	mov	r3, #129	; 0x81
    9220:	eb000496 	bl	a480 <printk>
    9224:	eb000625 	bl	aac0 <clean_reboot>
    9228:	e5d03000 	ldrb	r3, [r0]
    922c:	e3130008 	tst	r3, #8
    9230:	0a000008 	beq	9258 <fld_check_valid+0x12c>
    9234:	eb0004ac 	bl	a4ec <rpi_reset_putc>
    9238:	e59f30a0 	ldr	r3, [pc, #160]	; 92e0 <fld_check_valid+0x1b4>
    923c:	e58d3000 	str	r3, [sp]
    9240:	e59f007c 	ldr	r0, [pc, #124]	; 92c4 <fld_check_valid+0x198>
    9244:	e59f107c 	ldr	r1, [pc, #124]	; 92c8 <fld_check_valid+0x19c>
    9248:	e59f207c 	ldr	r2, [pc, #124]	; 92cc <fld_check_valid+0x1a0>
    924c:	e3a03082 	mov	r3, #130	; 0x82
    9250:	eb00048a 	bl	a480 <printk>
    9254:	eb000619 	bl	aac0 <clean_reboot>
    9258:	e5d03000 	ldrb	r3, [r0]
    925c:	e3130004 	tst	r3, #4
    9260:	0a000008 	beq	9288 <fld_check_valid+0x15c>
    9264:	eb0004a0 	bl	a4ec <rpi_reset_putc>
    9268:	e59f3074 	ldr	r3, [pc, #116]	; 92e4 <fld_check_valid+0x1b8>
    926c:	e58d3000 	str	r3, [sp]
    9270:	e59f004c 	ldr	r0, [pc, #76]	; 92c4 <fld_check_valid+0x198>
    9274:	e59f104c 	ldr	r1, [pc, #76]	; 92c8 <fld_check_valid+0x19c>
    9278:	e59f204c 	ldr	r2, [pc, #76]	; 92cc <fld_check_valid+0x1a0>
    927c:	e3a03083 	mov	r3, #131	; 0x83
    9280:	eb00047e 	bl	a480 <printk>
    9284:	eb00060d 	bl	aac0 <clean_reboot>
    9288:	e5d03002 	ldrb	r3, [r0, #2]
    928c:	e3130004 	tst	r3, #4
    9290:	0a000008 	beq	92b8 <fld_check_valid+0x18c>
    9294:	eb000494 	bl	a4ec <rpi_reset_putc>
    9298:	e59f3048 	ldr	r3, [pc, #72]	; 92e8 <fld_check_valid+0x1bc>
    929c:	e58d3000 	str	r3, [sp]
    92a0:	e59f001c 	ldr	r0, [pc, #28]	; 92c4 <fld_check_valid+0x198>
    92a4:	e59f101c 	ldr	r1, [pc, #28]	; 92c8 <fld_check_valid+0x19c>
    92a8:	e59f201c 	ldr	r2, [pc, #28]	; 92cc <fld_check_valid+0x1a0>
    92ac:	e3a03084 	mov	r3, #132	; 0x84
    92b0:	eb000472 	bl	a480 <printk>
    92b4:	eb000601 	bl	aac0 <clean_reboot>
    92b8:	e28dd00c 	add	sp, sp, #12
    92bc:	e49df004 	pop	{pc}		; (ldr pc, [sp], #4)
    92c0:	0000bb00 	andeq	fp, r0, r0, lsl #22
    92c4:	0000b2bc 			; <UNDEFINED> instruction: 0x0000b2bc
    92c8:	0000b8b4 			; <UNDEFINED> instruction: 0x0000b8b4
    92cc:	0000bc24 	andeq	fp, r0, r4, lsr #24
    92d0:	0000bb10 	andeq	fp, r0, r0, lsl fp
    92d4:	0000bb20 	andeq	fp, r0, r0, lsr #22
    92d8:	0000bb2c 	andeq	fp, r0, ip, lsr #22
    92dc:	0000bb38 	andeq	fp, r0, r8, lsr fp
    92e0:	0000bb44 	andeq	fp, r0, r4, asr #22
    92e4:	0000bb50 	andeq	fp, r0, r0, asr fp
    92e8:	0000bb5c 	andeq	fp, r0, ip, asr fp

000092ec <fld_mk>:
    92ec:	e3a00002 	mov	r0, #2
    92f0:	e12fff1e 	bx	lr

000092f4 <fld_check_offsets>:
    92f4:	e92d4010 	push	{r4, lr}
    92f8:	e24dd020 	sub	sp, sp, #32
    92fc:	ebfffffa 	bl	92ec <fld_mk>
    9300:	e28d3020 	add	r3, sp, #32
    9304:	e5230004 	str	r0, [r3, #-4]!
    9308:	e1a00003 	mov	r0, r3
    930c:	ebffff86 	bl	912c <fld_check_valid>
    9310:	e59f4074 	ldr	r4, [pc, #116]	; 938c <fld_check_offsets+0x98>
    9314:	e1540004 	cmp	r4, r4
    9318:	0a00000e 	beq	9358 <fld_check_offsets+0x64>
    931c:	eb000472 	bl	a4ec <rpi_reset_putc>
    9320:	e58d4000 	str	r4, [sp]
    9324:	e58d4004 	str	r4, [sp, #4]
    9328:	e59f3060 	ldr	r3, [pc, #96]	; 9390 <fld_check_offsets+0x9c>
    932c:	e58d3008 	str	r3, [sp, #8]
    9330:	e3a03014 	mov	r3, #20
    9334:	e58d300c 	str	r3, [sp, #12]
    9338:	e3a0300c 	mov	r3, #12
    933c:	e58d3010 	str	r3, [sp, #16]
    9340:	e59f004c 	ldr	r0, [pc, #76]	; 9394 <fld_check_offsets+0xa0>
    9344:	e59f104c 	ldr	r1, [pc, #76]	; 9398 <fld_check_offsets+0xa4>
    9348:	e59f204c 	ldr	r2, [pc, #76]	; 939c <fld_check_offsets+0xa8>
    934c:	e3a030a0 	mov	r3, #160	; 0xa0
    9350:	eb00044a 	bl	a480 <printk>
    9354:	eb0005d9 	bl	aac0 <clean_reboot>
    9358:	e3740601 	cmn	r4, #1048576	; 0x100000
    935c:	0a000008 	beq	9384 <fld_check_offsets+0x90>
    9360:	eb000461 	bl	a4ec <rpi_reset_putc>
    9364:	e59f3034 	ldr	r3, [pc, #52]	; 93a0 <fld_check_offsets+0xac>
    9368:	e58d3000 	str	r3, [sp]
    936c:	e59f0030 	ldr	r0, [pc, #48]	; 93a4 <fld_check_offsets+0xb0>
    9370:	e59f1020 	ldr	r1, [pc, #32]	; 9398 <fld_check_offsets+0xa4>
    9374:	e59f2020 	ldr	r2, [pc, #32]	; 939c <fld_check_offsets+0xa8>
    9378:	e3a030a0 	mov	r3, #160	; 0xa0
    937c:	eb00043f 	bl	a480 <printk>
    9380:	eb0005ce 	bl	aac0 <clean_reboot>
    9384:	e28dd020 	add	sp, sp, #32
    9388:	e8bd8010 	pop	{r4, pc}
    938c:	fff00000 			; <UNDEFINED> instruction: 0xfff00000	; IMB
    9390:	0000bba4 	andeq	fp, r0, r4, lsr #23
    9394:	0000b8d0 	ldrdeq	fp, [r0], -r0
    9398:	0000b8b4 			; <UNDEFINED> instruction: 0x0000b8b4
    939c:	0000bc6c 	andeq	fp, r0, ip, ror #24
    93a0:	0000b8c4 	andeq	fp, r0, r4, asr #17
    93a4:	0000b2bc 			; <UNDEFINED> instruction: 0x0000b2bc

000093a8 <fld_print>:
    93a8:	e92d4010 	push	{r4, lr}
    93ac:	e1a04000 	mov	r4, r0
    93b0:	e59f0178 	ldr	r0, [pc, #376]	; 9530 <fld_print+0x188>
    93b4:	eb000431 	bl	a480 <printk>
    93b8:	e59f0174 	ldr	r0, [pc, #372]	; 9534 <fld_print+0x18c>
    93bc:	e1a01004 	mov	r1, r4
    93c0:	eb00042e 	bl	a480 <printk>
    93c4:	e1d410b2 	ldrh	r1, [r4, #2]
    93c8:	e59f0168 	ldr	r0, [pc, #360]	; 9538 <fld_print+0x190>
    93cc:	e1a01221 	lsr	r1, r1, #4
    93d0:	e59f2164 	ldr	r2, [pc, #356]	; 953c <fld_print+0x194>
    93d4:	eb000429 	bl	a480 <printk>
    93d8:	e1d410b2 	ldrh	r1, [r4, #2]
    93dc:	e1a01221 	lsr	r1, r1, #4
    93e0:	e3510008 	cmp	r1, #8
    93e4:	da000001 	ble	93f0 <fld_print+0x48>
    93e8:	e59f0150 	ldr	r0, [pc, #336]	; 9540 <fld_print+0x198>
    93ec:	eb000423 	bl	a480 <printk>
    93f0:	e1d410b2 	ldrh	r1, [r4, #2]
    93f4:	e1a01221 	lsr	r1, r1, #4
    93f8:	e59f0144 	ldr	r0, [pc, #324]	; 9544 <fld_print+0x19c>
    93fc:	e1a01a01 	lsl	r1, r1, #20
    9400:	eb00041e 	bl	a480 <printk>
    9404:	e59f013c 	ldr	r0, [pc, #316]	; 9548 <fld_print+0x1a0>
    9408:	eb00041c 	bl	a480 <printk>
    940c:	e5d41002 	ldrb	r1, [r4, #2]
    9410:	e1a010a1 	lsr	r1, r1, #1
    9414:	e59f011c 	ldr	r0, [pc, #284]	; 9538 <fld_print+0x190>
    9418:	e2011001 	and	r1, r1, #1
    941c:	e59f2128 	ldr	r2, [pc, #296]	; 954c <fld_print+0x1a4>
    9420:	eb000416 	bl	a480 <printk>
    9424:	e5d41002 	ldrb	r1, [r4, #2]
    9428:	e59f0108 	ldr	r0, [pc, #264]	; 9538 <fld_print+0x190>
    942c:	e2011001 	and	r1, r1, #1
    9430:	e59f2118 	ldr	r2, [pc, #280]	; 9550 <fld_print+0x1a8>
    9434:	eb000411 	bl	a480 <printk>
    9438:	e5d41001 	ldrb	r1, [r4, #1]
    943c:	e59f00f4 	ldr	r0, [pc, #244]	; 9538 <fld_print+0x190>
    9440:	e1a013a1 	lsr	r1, r1, #7
    9444:	e59f2108 	ldr	r2, [pc, #264]	; 9554 <fld_print+0x1ac>
    9448:	eb00040c 	bl	a480 <printk>
    944c:	e5d41001 	ldrb	r1, [r4, #1]
    9450:	e1a01221 	lsr	r1, r1, #4
    9454:	e59f00dc 	ldr	r0, [pc, #220]	; 9538 <fld_print+0x190>
    9458:	e2011007 	and	r1, r1, #7
    945c:	e59f20f4 	ldr	r2, [pc, #244]	; 9558 <fld_print+0x1b0>
    9460:	eb000406 	bl	a480 <printk>
    9464:	e5d41001 	ldrb	r1, [r4, #1]
    9468:	e1a01121 	lsr	r1, r1, #2
    946c:	e59f00c4 	ldr	r0, [pc, #196]	; 9538 <fld_print+0x190>
    9470:	e2011003 	and	r1, r1, #3
    9474:	e59f20e0 	ldr	r2, [pc, #224]	; 955c <fld_print+0x1b4>
    9478:	eb000400 	bl	a480 <printk>
    947c:	e5d41001 	ldrb	r1, [r4, #1]
    9480:	e1a010a1 	lsr	r1, r1, #1
    9484:	e59f00ac 	ldr	r0, [pc, #172]	; 9538 <fld_print+0x190>
    9488:	e2011001 	and	r1, r1, #1
    948c:	e59f20cc 	ldr	r2, [pc, #204]	; 9560 <fld_print+0x1b8>
    9490:	eb0003fa 	bl	a480 <printk>
    9494:	e1d410b0 	ldrh	r1, [r4]
    9498:	e1a012a1 	lsr	r1, r1, #5
    949c:	e59f0094 	ldr	r0, [pc, #148]	; 9538 <fld_print+0x190>
    94a0:	e201100f 	and	r1, r1, #15
    94a4:	e59f20b8 	ldr	r2, [pc, #184]	; 9564 <fld_print+0x1bc>
    94a8:	eb0003f4 	bl	a480 <printk>
    94ac:	e1d410b0 	ldrh	r1, [r4]
    94b0:	e1a012a1 	lsr	r1, r1, #5
    94b4:	e201100f 	and	r1, r1, #15
    94b8:	e3510008 	cmp	r1, #8
    94bc:	da000001 	ble	94c8 <fld_print+0x120>
    94c0:	e59f0078 	ldr	r0, [pc, #120]	; 9540 <fld_print+0x198>
    94c4:	eb0003ed 	bl	a480 <printk>
    94c8:	e5d41000 	ldrb	r1, [r4]
    94cc:	e1a01221 	lsr	r1, r1, #4
    94d0:	e59f0060 	ldr	r0, [pc, #96]	; 9538 <fld_print+0x190>
    94d4:	e2011001 	and	r1, r1, #1
    94d8:	e59f2088 	ldr	r2, [pc, #136]	; 9568 <fld_print+0x1c0>
    94dc:	eb0003e7 	bl	a480 <printk>
    94e0:	e5d41000 	ldrb	r1, [r4]
    94e4:	e1a011a1 	lsr	r1, r1, #3
    94e8:	e59f0048 	ldr	r0, [pc, #72]	; 9538 <fld_print+0x190>
    94ec:	e2011001 	and	r1, r1, #1
    94f0:	e59f2074 	ldr	r2, [pc, #116]	; 956c <fld_print+0x1c4>
    94f4:	eb0003e1 	bl	a480 <printk>
    94f8:	e5d41000 	ldrb	r1, [r4]
    94fc:	e1a01121 	lsr	r1, r1, #2
    9500:	e59f0030 	ldr	r0, [pc, #48]	; 9538 <fld_print+0x190>
    9504:	e2011001 	and	r1, r1, #1
    9508:	e59f2060 	ldr	r2, [pc, #96]	; 9570 <fld_print+0x1c8>
    950c:	eb0003db 	bl	a480 <printk>
    9510:	e5d41000 	ldrb	r1, [r4]
    9514:	e59f001c 	ldr	r0, [pc, #28]	; 9538 <fld_print+0x190>
    9518:	e2011003 	and	r1, r1, #3
    951c:	e59f2050 	ldr	r2, [pc, #80]	; 9574 <fld_print+0x1cc>
    9520:	eb0003d6 	bl	a480 <printk>
    9524:	e1a00004 	mov	r0, r4
    9528:	ebfffeff 	bl	912c <fld_check_valid>
    952c:	e8bd8010 	pop	{r4, pc}
    9530:	0000bbb4 			; <UNDEFINED> instruction: 0x0000bbb4
    9534:	0000bbd4 	ldrdeq	fp, [r0], -r4
    9538:	0000ba78 	andeq	fp, r0, r8, ror sl
    953c:	0000bba4 	andeq	fp, r0, r4, lsr #23
    9540:	0000ba84 	andeq	fp, r0, r4, lsl #21
    9544:	0000bbdc 	ldrdeq	fp, [r0], -ip
    9548:	0000bbf0 	strdeq	fp, [r0], -r0
    954c:	0000bb98 	muleq	r0, r8, fp
    9550:	0000bb94 	muleq	r0, r4, fp
    9554:	0000bb90 	muleq	r0, r0, fp
    9558:	0000bb8c 	andeq	fp, r0, ip, lsl #23
    955c:	0000bb88 	andeq	fp, r0, r8, lsl #23
    9560:	0000bb84 	andeq	fp, r0, r4, lsl #23
    9564:	0000bb7c 	andeq	fp, r0, ip, ror fp
    9568:	0000bb78 	andeq	fp, r0, r8, ror fp
    956c:	0000bb74 	andeq	fp, r0, r4, ror fp
    9570:	0000bb70 	andeq	fp, r0, r0, ror fp
    9574:	0000bb6c 	andeq	fp, r0, ip, ror #22

00009578 <check_vm_structs>:
    9578:	e92d4008 	push	{r3, lr}
    957c:	ebfffdd4 	bl	8cd4 <control_reg1_check_offsets>
    9580:	ebfffed4 	bl	90d8 <tlb_config_check_offsets>
    9584:	ebffff5a 	bl	92f4 <fld_check_offsets>
    9588:	e8bd8008 	pop	{r3, pc}

0000958c <last_fault_get>:
    958c:	e1a03000 	mov	r3, r0
    9590:	e59f200c 	ldr	r2, [pc, #12]	; 95a4 <last_fault_get+0x18>
    9594:	e8920007 	ldm	r2, {r0, r1, r2}
    9598:	e8830007 	stm	r3, {r0, r1, r2}
    959c:	e1a00003 	mov	r0, r3
    95a0:	e12fff1e 	bx	lr
    95a4:	0000c5b0 			; <UNDEFINED> instruction: 0x0000c5b0

000095a8 <last_fault_set>:
    95a8:	e59f300c 	ldr	r3, [pc, #12]	; 95bc <last_fault_set+0x14>
    95ac:	e5831000 	str	r1, [r3]
    95b0:	e5830004 	str	r0, [r3, #4]
    95b4:	e5832008 	str	r2, [r3, #8]
    95b8:	e12fff1e 	bx	lr
    95bc:	0000c5b0 			; <UNDEFINED> instruction: 0x0000c5b0

000095c0 <fault_expected>:
    95c0:	e92d4070 	push	{r4, r5, r6, lr}
    95c4:	e24dd018 	sub	sp, sp, #24
    95c8:	e1a06000 	mov	r6, r0
    95cc:	e1a04001 	mov	r4, r1
    95d0:	e1a05002 	mov	r5, r2
    95d4:	e28d000c 	add	r0, sp, #12
    95d8:	ebffffeb 	bl	958c <last_fault_get>
    95dc:	e59d300c 	ldr	r3, [sp, #12]
    95e0:	e1530004 	cmp	r3, r4
    95e4:	0a000008 	beq	960c <fault_expected+0x4c>
    95e8:	eb0003bf 	bl	a4ec <rpi_reset_putc>
    95ec:	e59f309c 	ldr	r3, [pc, #156]	; 9690 <fault_expected+0xd0>
    95f0:	e58d3000 	str	r3, [sp]
    95f4:	e59f0098 	ldr	r0, [pc, #152]	; 9694 <fault_expected+0xd4>
    95f8:	e59f1098 	ldr	r1, [pc, #152]	; 9698 <fault_expected+0xd8>
    95fc:	e59f2098 	ldr	r2, [pc, #152]	; 969c <fault_expected+0xdc>
    9600:	e3a0302a 	mov	r3, #42	; 0x2a
    9604:	eb00039d 	bl	a480 <printk>
    9608:	eb00052c 	bl	aac0 <clean_reboot>
    960c:	e59d3010 	ldr	r3, [sp, #16]
    9610:	e1530006 	cmp	r3, r6
    9614:	0a000008 	beq	963c <fault_expected+0x7c>
    9618:	eb0003b3 	bl	a4ec <rpi_reset_putc>
    961c:	e59f307c 	ldr	r3, [pc, #124]	; 96a0 <fault_expected+0xe0>
    9620:	e58d3000 	str	r3, [sp]
    9624:	e59f0068 	ldr	r0, [pc, #104]	; 9694 <fault_expected+0xd4>
    9628:	e59f1068 	ldr	r1, [pc, #104]	; 9698 <fault_expected+0xd8>
    962c:	e59f2068 	ldr	r2, [pc, #104]	; 969c <fault_expected+0xdc>
    9630:	e3a0302b 	mov	r3, #43	; 0x2b
    9634:	eb000391 	bl	a480 <printk>
    9638:	eb000520 	bl	aac0 <clean_reboot>
    963c:	e59d3014 	ldr	r3, [sp, #20]
    9640:	e1530005 	cmp	r3, r5
    9644:	0a000008 	beq	966c <fault_expected+0xac>
    9648:	eb0003a7 	bl	a4ec <rpi_reset_putc>
    964c:	e59f3050 	ldr	r3, [pc, #80]	; 96a4 <fault_expected+0xe4>
    9650:	e58d3000 	str	r3, [sp]
    9654:	e59f0038 	ldr	r0, [pc, #56]	; 9694 <fault_expected+0xd4>
    9658:	e59f1038 	ldr	r1, [pc, #56]	; 9698 <fault_expected+0xd8>
    965c:	e59f2038 	ldr	r2, [pc, #56]	; 969c <fault_expected+0xdc>
    9660:	e3a0302c 	mov	r3, #44	; 0x2c
    9664:	eb000385 	bl	a480 <printk>
    9668:	eb000514 	bl	aac0 <clean_reboot>
    966c:	e59f0034 	ldr	r0, [pc, #52]	; 96a8 <fault_expected+0xe8>
    9670:	eb000382 	bl	a480 <printk>
    9674:	e59f0030 	ldr	r0, [pc, #48]	; 96ac <fault_expected+0xec>
    9678:	e1a01006 	mov	r1, r6
    967c:	e1a02004 	mov	r2, r4
    9680:	e1a03005 	mov	r3, r5
    9684:	eb00037d 	bl	a480 <printk>
    9688:	e28dd018 	add	sp, sp, #24
    968c:	e8bd8070 	pop	{r4, r5, r6, pc}
    9690:	0000bc8c 	andeq	fp, r0, ip, lsl #25
    9694:	0000b2bc 			; <UNDEFINED> instruction: 0x0000b2bc
    9698:	0000bc80 	andeq	fp, r0, r0, lsl #25
    969c:	0000c15c 	andeq	ip, r0, ip, asr r1
    96a0:	0000bca4 	andeq	fp, r0, r4, lsr #25
    96a4:	0000bcb8 			; <UNDEFINED> instruction: 0x0000bcb8
    96a8:	0000b258 	andeq	fp, r0, r8, asr r2
    96ac:	0000bcd4 	ldrdeq	fp, [r0], -r4

000096b0 <dom_perm_get>:
    96b0:	e92d4010 	push	{r4, lr}
    96b4:	e24dd008 	sub	sp, sp, #8
    96b8:	e1a04000 	mov	r4, r0
    96bc:	ebfffd27 	bl	8b60 <read_domain_access_ctrl>
    96c0:	e1a03084 	lsl	r3, r4, #1
    96c4:	e2842001 	add	r2, r4, #1
    96c8:	e1a02082 	lsl	r2, r2, #1
    96cc:	e1530002 	cmp	r3, r2
    96d0:	9a000008 	bls	96f8 <dom_perm_get+0x48>
    96d4:	eb000384 	bl	a4ec <rpi_reset_putc>
    96d8:	e59f3060 	ldr	r3, [pc, #96]	; 9740 <dom_perm_get+0x90>
    96dc:	e58d3000 	str	r3, [sp]
    96e0:	e59f005c 	ldr	r0, [pc, #92]	; 9744 <dom_perm_get+0x94>
    96e4:	e59f105c 	ldr	r1, [pc, #92]	; 9748 <dom_perm_get+0x98>
    96e8:	e59f205c 	ldr	r2, [pc, #92]	; 974c <dom_perm_get+0x9c>
    96ec:	e3a0301d 	mov	r3, #29
    96f0:	eb000362 	bl	a480 <printk>
    96f4:	eb0004f1 	bl	aac0 <clean_reboot>
    96f8:	e352001f 	cmp	r2, #31
    96fc:	9a000008 	bls	9724 <dom_perm_get+0x74>
    9700:	eb000379 	bl	a4ec <rpi_reset_putc>
    9704:	e59f3044 	ldr	r3, [pc, #68]	; 9750 <dom_perm_get+0xa0>
    9708:	e58d3000 	str	r3, [sp]
    970c:	e59f0030 	ldr	r0, [pc, #48]	; 9744 <dom_perm_get+0x94>
    9710:	e59f1030 	ldr	r1, [pc, #48]	; 9748 <dom_perm_get+0x98>
    9714:	e59f2030 	ldr	r2, [pc, #48]	; 974c <dom_perm_get+0x9c>
    9718:	e3a0301e 	mov	r3, #30
    971c:	eb000357 	bl	a480 <printk>
    9720:	eb0004e6 	bl	aac0 <clean_reboot>
    9724:	e0632002 	rsb	r2, r3, r2
    9728:	e2822001 	add	r2, r2, #1
    972c:	e3e01000 	mvn	r1, #0
    9730:	e1e02211 	mvn	r2, r1, lsl r2
    9734:	e0020330 	and	r0, r2, r0, lsr r3
    9738:	e28dd008 	add	sp, sp, #8
    973c:	e8bd8010 	pop	{r4, pc}
    9740:	0000bd18 	andeq	fp, r0, r8, lsl sp
    9744:	0000b2bc 			; <UNDEFINED> instruction: 0x0000b2bc
    9748:	0000bd08 	andeq	fp, r0, r8, lsl #26
    974c:	0000c1e0 	andeq	ip, r0, r0, ror #3
    9750:	0000bd24 	andeq	fp, r0, r4, lsr #26

00009754 <dom_perm_set>:
    9754:	e92d4030 	push	{r4, r5, lr}
    9758:	e24dd00c 	sub	sp, sp, #12
    975c:	e1a04000 	mov	r4, r0
    9760:	e1a05001 	mov	r5, r1
    9764:	e350000f 	cmp	r0, #15
    9768:	9a000008 	bls	9790 <dom_perm_set+0x3c>
    976c:	eb00035e 	bl	a4ec <rpi_reset_putc>
    9770:	e59f3068 	ldr	r3, [pc, #104]	; 97e0 <dom_perm_set+0x8c>
    9774:	e58d3000 	str	r3, [sp]
    9778:	e59f0064 	ldr	r0, [pc, #100]	; 97e4 <dom_perm_set+0x90>
    977c:	e59f1064 	ldr	r1, [pc, #100]	; 97e8 <dom_perm_set+0x94>
    9780:	e59f2064 	ldr	r2, [pc, #100]	; 97ec <dom_perm_set+0x98>
    9784:	e3a03043 	mov	r3, #67	; 0x43
    9788:	eb00033c 	bl	a480 <printk>
    978c:	eb0004cb 	bl	aac0 <clean_reboot>
    9790:	e3510001 	cmp	r1, #1
    9794:	9a000008 	bls	97bc <dom_perm_set+0x68>
    9798:	eb000353 	bl	a4ec <rpi_reset_putc>
    979c:	e59f304c 	ldr	r3, [pc, #76]	; 97f0 <dom_perm_set+0x9c>
    97a0:	e58d3000 	str	r3, [sp]
    97a4:	e59f0038 	ldr	r0, [pc, #56]	; 97e4 <dom_perm_set+0x90>
    97a8:	e59f1038 	ldr	r1, [pc, #56]	; 97e8 <dom_perm_set+0x94>
    97ac:	e59f2038 	ldr	r2, [pc, #56]	; 97ec <dom_perm_set+0x98>
    97b0:	e3a03044 	mov	r3, #68	; 0x44
    97b4:	eb000331 	bl	a480 <printk>
    97b8:	eb0004c0 	bl	aac0 <clean_reboot>
    97bc:	ebfffce7 	bl	8b60 <read_domain_access_ctrl>
    97c0:	ebfffce6 	bl	8b60 <read_domain_access_ctrl>
    97c4:	e1a04084 	lsl	r4, r4, #1
    97c8:	e3a03003 	mov	r3, #3
    97cc:	e1c00413 	bic	r0, r0, r3, lsl r4
    97d0:	e1800415 	orr	r0, r0, r5, lsl r4
    97d4:	ebfffce3 	bl	8b68 <write_domain_access_ctrl>
    97d8:	e28dd00c 	add	sp, sp, #12
    97dc:	e8bd8030 	pop	{r4, r5, pc}
    97e0:	0000b59c 	muleq	r0, ip, r5
    97e4:	0000b2bc 			; <UNDEFINED> instruction: 0x0000b2bc
    97e8:	0000bc80 	andeq	fp, r0, r0, lsl #25
    97ec:	0000c204 	andeq	ip, r0, r4, lsl #4
    97f0:	0000bd2c 	andeq	fp, r0, ip, lsr #26

000097f4 <memcheck_continue_after_fault>:
    97f4:	e3a02001 	mov	r2, #1
    97f8:	e59f3004 	ldr	r3, [pc, #4]	; 9804 <memcheck_continue_after_fault+0x10>
    97fc:	e5832000 	str	r2, [r3]
    9800:	e12fff1e 	bx	lr
    9804:	0000c5bc 			; <UNDEFINED> instruction: 0x0000c5bc

00009808 <data_abort_vector>:
    9808:	e92d4070 	push	{r4, r5, r6, lr}
    980c:	e24dd008 	sub	sp, sp, #8
    9810:	e1a06000 	mov	r6, r0
    9814:	ee154f10 	mrc	15, 0, r4, cr5, cr0, {0}
    9818:	ee165f10 	mrc	15, 0, r5, cr6, cr0, {0}
    981c:	e59f02f0 	ldr	r0, [pc, #752]	; 9b14 <data_abort_vector+0x30c>
    9820:	eb000316 	bl	a480 <printk>
    9824:	e204200f 	and	r2, r4, #15
    9828:	e2044b01 	and	r4, r4, #1024	; 0x400
    982c:	e1824324 	orr	r4, r2, r4, lsr #6
    9830:	e1a00006 	mov	r0, r6
    9834:	e1a01005 	mov	r1, r5
    9838:	e1a02004 	mov	r2, r4
    983c:	ebffff59 	bl	95a8 <last_fault_set>
    9840:	e354001a 	cmp	r4, #26
    9844:	979ff104 	ldrls	pc, [pc, r4, lsl #2]
    9848:	ea0000a8 	b	9af0 <data_abort_vector+0x2e8>
    984c:	000098d4 	ldrdeq	r9, [r0], -r4
    9850:	000098b8 			; <UNDEFINED> instruction: 0x000098b8
    9854:	00009ad4 	ldrdeq	r9, [r0], -r4
    9858:	000098f0 	strdeq	r9, [r0], -r0
    985c:	0000990c 	andeq	r9, r0, ip, lsl #18
    9860:	00009960 	andeq	r9, r0, r0, ror #18
    9864:	00009af0 	strdeq	r9, [r0], -r0
    9868:	00009974 	andeq	r9, r0, r4, ror r9
    986c:	00009a2c 	andeq	r9, r0, ip, lsr #20
    9870:	00009990 	muleq	r0, r0, r9
    9874:	00009a48 	andeq	r9, r0, r8, asr #20
    9878:	000099d4 	ldrdeq	r9, [r0], -r4
    987c:	00009928 	andeq	r9, r0, r8, lsr #18
    9880:	000099f0 	strdeq	r9, [r0], -r0
    9884:	00009944 	andeq	r9, r0, r4, asr #18
    9888:	00009a10 	andeq	r9, r0, r0, lsl sl
    988c:	00009af0 	strdeq	r9, [r0], -r0
    9890:	00009af0 	strdeq	r9, [r0], -r0
    9894:	00009af0 	strdeq	r9, [r0], -r0
    9898:	00009af0 	strdeq	r9, [r0], -r0
    989c:	00009a64 	andeq	r9, r0, r4, ror #20
    98a0:	00009af0 	strdeq	r9, [r0], -r0
    98a4:	00009a9c 	muleq	r0, ip, sl
    98a8:	00009af0 	strdeq	r9, [r0], -r0
    98ac:	00009ab8 			; <UNDEFINED> instruction: 0x00009ab8
    98b0:	00009af0 	strdeq	r9, [r0], -r0
    98b4:	00009a80 	andeq	r9, r0, r0, lsl #21
    98b8:	eb00030b 	bl	a4ec <rpi_reset_putc>
    98bc:	e59f0254 	ldr	r0, [pc, #596]	; 9b18 <data_abort_vector+0x310>
    98c0:	e59f1254 	ldr	r1, [pc, #596]	; 9b1c <data_abort_vector+0x314>
    98c4:	e59f2254 	ldr	r2, [pc, #596]	; 9b20 <data_abort_vector+0x318>
    98c8:	e3a0308c 	mov	r3, #140	; 0x8c
    98cc:	eb0002eb 	bl	a480 <printk>
    98d0:	eb00047a 	bl	aac0 <clean_reboot>
    98d4:	eb000304 	bl	a4ec <rpi_reset_putc>
    98d8:	e59f0244 	ldr	r0, [pc, #580]	; 9b24 <data_abort_vector+0x31c>
    98dc:	e59f1238 	ldr	r1, [pc, #568]	; 9b1c <data_abort_vector+0x314>
    98e0:	e59f2238 	ldr	r2, [pc, #568]	; 9b20 <data_abort_vector+0x318>
    98e4:	e3a0308f 	mov	r3, #143	; 0x8f
    98e8:	eb0002e4 	bl	a480 <printk>
    98ec:	eb000473 	bl	aac0 <clean_reboot>
    98f0:	eb0002fd 	bl	a4ec <rpi_reset_putc>
    98f4:	e59f022c 	ldr	r0, [pc, #556]	; 9b28 <data_abort_vector+0x320>
    98f8:	e59f121c 	ldr	r1, [pc, #540]	; 9b1c <data_abort_vector+0x314>
    98fc:	e59f221c 	ldr	r2, [pc, #540]	; 9b20 <data_abort_vector+0x318>
    9900:	e3a03092 	mov	r3, #146	; 0x92
    9904:	eb0002dd 	bl	a480 <printk>
    9908:	eb00046c 	bl	aac0 <clean_reboot>
    990c:	eb0002f6 	bl	a4ec <rpi_reset_putc>
    9910:	e59f0214 	ldr	r0, [pc, #532]	; 9b2c <data_abort_vector+0x324>
    9914:	e59f1200 	ldr	r1, [pc, #512]	; 9b1c <data_abort_vector+0x314>
    9918:	e59f2200 	ldr	r2, [pc, #512]	; 9b20 <data_abort_vector+0x318>
    991c:	e3a03095 	mov	r3, #149	; 0x95
    9920:	eb0002d6 	bl	a480 <printk>
    9924:	eb000465 	bl	aac0 <clean_reboot>
    9928:	eb0002ef 	bl	a4ec <rpi_reset_putc>
    992c:	e59f01fc 	ldr	r0, [pc, #508]	; 9b30 <data_abort_vector+0x328>
    9930:	e59f11e4 	ldr	r1, [pc, #484]	; 9b1c <data_abort_vector+0x314>
    9934:	e59f21e4 	ldr	r2, [pc, #484]	; 9b20 <data_abort_vector+0x318>
    9938:	e3a03098 	mov	r3, #152	; 0x98
    993c:	eb0002cf 	bl	a480 <printk>
    9940:	eb00045e 	bl	aac0 <clean_reboot>
    9944:	eb0002e8 	bl	a4ec <rpi_reset_putc>
    9948:	e59f01e4 	ldr	r0, [pc, #484]	; 9b34 <data_abort_vector+0x32c>
    994c:	e59f11c8 	ldr	r1, [pc, #456]	; 9b1c <data_abort_vector+0x314>
    9950:	e59f21c8 	ldr	r2, [pc, #456]	; 9b20 <data_abort_vector+0x318>
    9954:	e3a0309b 	mov	r3, #155	; 0x9b
    9958:	eb0002c8 	bl	a480 <printk>
    995c:	eb000457 	bl	aac0 <clean_reboot>
    9960:	e59f01d0 	ldr	r0, [pc, #464]	; 9b38 <data_abort_vector+0x330>
    9964:	eb0002c5 	bl	a480 <printk>
    9968:	e59f01cc 	ldr	r0, [pc, #460]	; 9b3c <data_abort_vector+0x334>
    996c:	eb0002c3 	bl	a480 <printk>
    9970:	eb000452 	bl	aac0 <clean_reboot>
    9974:	eb0002dc 	bl	a4ec <rpi_reset_putc>
    9978:	e59f01c0 	ldr	r0, [pc, #448]	; 9b40 <data_abort_vector+0x338>
    997c:	e59f1198 	ldr	r1, [pc, #408]	; 9b1c <data_abort_vector+0x314>
    9980:	e59f2198 	ldr	r2, [pc, #408]	; 9b20 <data_abort_vector+0x318>
    9984:	e3a030a1 	mov	r3, #161	; 0xa1
    9988:	eb0002bc 	bl	a480 <printk>
    998c:	eb00044b 	bl	aac0 <clean_reboot>
    9990:	e59f01ac 	ldr	r0, [pc, #428]	; 9b44 <data_abort_vector+0x33c>
    9994:	eb0002b9 	bl	a480 <printk>
    9998:	e59f31a8 	ldr	r3, [pc, #424]	; 9b48 <data_abort_vector+0x340>
    999c:	e5933000 	ldr	r3, [r3]
    99a0:	e3530000 	cmp	r3, #0
    99a4:	1a000004 	bne	99bc <data_abort_vector+0x1b4>
    99a8:	e59f0188 	ldr	r0, [pc, #392]	; 9b38 <data_abort_vector+0x330>
    99ac:	eb0002b3 	bl	a480 <printk>
    99b0:	e59f0194 	ldr	r0, [pc, #404]	; 9b4c <data_abort_vector+0x344>
    99b4:	eb0002b1 	bl	a480 <printk>
    99b8:	eb000440 	bl	aac0 <clean_reboot>
    99bc:	e59f0174 	ldr	r0, [pc, #372]	; 9b38 <data_abort_vector+0x330>
    99c0:	eb0002ae 	bl	a480 <printk>
    99c4:	e59f0184 	ldr	r0, [pc, #388]	; 9b50 <data_abort_vector+0x348>
    99c8:	eb0002ac 	bl	a480 <printk>
    99cc:	eb000152 	bl	9f1c <memcheck_trap_disable>
    99d0:	ea00004d 	b	9b0c <data_abort_vector+0x304>
    99d4:	eb0002c4 	bl	a4ec <rpi_reset_putc>
    99d8:	e59f0174 	ldr	r0, [pc, #372]	; 9b54 <data_abort_vector+0x34c>
    99dc:	e59f1138 	ldr	r1, [pc, #312]	; 9b1c <data_abort_vector+0x314>
    99e0:	e59f2138 	ldr	r2, [pc, #312]	; 9b20 <data_abort_vector+0x318>
    99e4:	e3a030ae 	mov	r3, #174	; 0xae
    99e8:	eb0002a4 	bl	a480 <printk>
    99ec:	eb000433 	bl	aac0 <clean_reboot>
    99f0:	eb0002bd 	bl	a4ec <rpi_reset_putc>
    99f4:	e58d5000 	str	r5, [sp]
    99f8:	e59f0158 	ldr	r0, [pc, #344]	; 9b58 <data_abort_vector+0x350>
    99fc:	e59f1118 	ldr	r1, [pc, #280]	; 9b1c <data_abort_vector+0x314>
    9a00:	e59f2118 	ldr	r2, [pc, #280]	; 9b20 <data_abort_vector+0x318>
    9a04:	e3a030b1 	mov	r3, #177	; 0xb1
    9a08:	eb00029c 	bl	a480 <printk>
    9a0c:	eb00042b 	bl	aac0 <clean_reboot>
    9a10:	eb0002b5 	bl	a4ec <rpi_reset_putc>
    9a14:	e59f0140 	ldr	r0, [pc, #320]	; 9b5c <data_abort_vector+0x354>
    9a18:	e59f10fc 	ldr	r1, [pc, #252]	; 9b1c <data_abort_vector+0x314>
    9a1c:	e59f20fc 	ldr	r2, [pc, #252]	; 9b20 <data_abort_vector+0x318>
    9a20:	e3a030b4 	mov	r3, #180	; 0xb4
    9a24:	eb000295 	bl	a480 <printk>
    9a28:	eb000424 	bl	aac0 <clean_reboot>
    9a2c:	eb0002ae 	bl	a4ec <rpi_reset_putc>
    9a30:	e59f0128 	ldr	r0, [pc, #296]	; 9b60 <data_abort_vector+0x358>
    9a34:	e59f10e0 	ldr	r1, [pc, #224]	; 9b1c <data_abort_vector+0x314>
    9a38:	e59f20e0 	ldr	r2, [pc, #224]	; 9b20 <data_abort_vector+0x318>
    9a3c:	e3a030b7 	mov	r3, #183	; 0xb7
    9a40:	eb00028e 	bl	a480 <printk>
    9a44:	eb00041d 	bl	aac0 <clean_reboot>
    9a48:	eb0002a7 	bl	a4ec <rpi_reset_putc>
    9a4c:	e59f0110 	ldr	r0, [pc, #272]	; 9b64 <data_abort_vector+0x35c>
    9a50:	e59f10c4 	ldr	r1, [pc, #196]	; 9b1c <data_abort_vector+0x314>
    9a54:	e59f20c4 	ldr	r2, [pc, #196]	; 9b20 <data_abort_vector+0x318>
    9a58:	e3a030ba 	mov	r3, #186	; 0xba
    9a5c:	eb000287 	bl	a480 <printk>
    9a60:	eb000416 	bl	aac0 <clean_reboot>
    9a64:	eb0002a0 	bl	a4ec <rpi_reset_putc>
    9a68:	e59f00f8 	ldr	r0, [pc, #248]	; 9b68 <data_abort_vector+0x360>
    9a6c:	e59f10a8 	ldr	r1, [pc, #168]	; 9b1c <data_abort_vector+0x314>
    9a70:	e59f20a8 	ldr	r2, [pc, #168]	; 9b20 <data_abort_vector+0x318>
    9a74:	e3a030bd 	mov	r3, #189	; 0xbd
    9a78:	eb000280 	bl	a480 <printk>
    9a7c:	eb00040f 	bl	aac0 <clean_reboot>
    9a80:	eb000299 	bl	a4ec <rpi_reset_putc>
    9a84:	e59f00e0 	ldr	r0, [pc, #224]	; 9b6c <data_abort_vector+0x364>
    9a88:	e59f108c 	ldr	r1, [pc, #140]	; 9b1c <data_abort_vector+0x314>
    9a8c:	e59f208c 	ldr	r2, [pc, #140]	; 9b20 <data_abort_vector+0x318>
    9a90:	e3a030c0 	mov	r3, #192	; 0xc0
    9a94:	eb000279 	bl	a480 <printk>
    9a98:	eb000408 	bl	aac0 <clean_reboot>
    9a9c:	eb000292 	bl	a4ec <rpi_reset_putc>
    9aa0:	e59f00c8 	ldr	r0, [pc, #200]	; 9b70 <data_abort_vector+0x368>
    9aa4:	e59f1070 	ldr	r1, [pc, #112]	; 9b1c <data_abort_vector+0x314>
    9aa8:	e59f2070 	ldr	r2, [pc, #112]	; 9b20 <data_abort_vector+0x318>
    9aac:	e3a030c3 	mov	r3, #195	; 0xc3
    9ab0:	eb000272 	bl	a480 <printk>
    9ab4:	eb000401 	bl	aac0 <clean_reboot>
    9ab8:	eb00028b 	bl	a4ec <rpi_reset_putc>
    9abc:	e59f00b0 	ldr	r0, [pc, #176]	; 9b74 <data_abort_vector+0x36c>
    9ac0:	e59f1054 	ldr	r1, [pc, #84]	; 9b1c <data_abort_vector+0x314>
    9ac4:	e59f2054 	ldr	r2, [pc, #84]	; 9b20 <data_abort_vector+0x318>
    9ac8:	e3a030c6 	mov	r3, #198	; 0xc6
    9acc:	eb00026b 	bl	a480 <printk>
    9ad0:	eb0003fa 	bl	aac0 <clean_reboot>
    9ad4:	eb000284 	bl	a4ec <rpi_reset_putc>
    9ad8:	e59f0098 	ldr	r0, [pc, #152]	; 9b78 <data_abort_vector+0x370>
    9adc:	e59f1038 	ldr	r1, [pc, #56]	; 9b1c <data_abort_vector+0x314>
    9ae0:	e59f2038 	ldr	r2, [pc, #56]	; 9b20 <data_abort_vector+0x318>
    9ae4:	e3a030c9 	mov	r3, #201	; 0xc9
    9ae8:	eb000264 	bl	a480 <printk>
    9aec:	eb0003f3 	bl	aac0 <clean_reboot>
    9af0:	eb00027d 	bl	a4ec <rpi_reset_putc>
    9af4:	e59f0080 	ldr	r0, [pc, #128]	; 9b7c <data_abort_vector+0x374>
    9af8:	e59f101c 	ldr	r1, [pc, #28]	; 9b1c <data_abort_vector+0x314>
    9afc:	e59f201c 	ldr	r2, [pc, #28]	; 9b20 <data_abort_vector+0x318>
    9b00:	e3a030cc 	mov	r3, #204	; 0xcc
    9b04:	eb00025d 	bl	a480 <printk>
    9b08:	eb0003ec 	bl	aac0 <clean_reboot>
    9b0c:	e28dd008 	add	sp, sp, #8
    9b10:	e8bd8070 	pop	{r4, r5, r6, pc}
    9b14:	0000bd58 	andeq	fp, r0, r8, asr sp
    9b18:	0000bd70 	andeq	fp, r0, r0, ror sp
    9b1c:	0000bc80 	andeq	fp, r0, r0, lsl #25
    9b20:	0000c16c 	andeq	ip, r0, ip, ror #2
    9b24:	0000bd94 	muleq	r0, r4, sp
    9b28:	0000bdb0 			; <UNDEFINED> instruction: 0x0000bdb0
    9b2c:	0000bdd8 	ldrdeq	fp, [r0], -r8
    9b30:	0000be04 	andeq	fp, r0, r4, lsl #28
    9b34:	0000be30 	andeq	fp, r0, r0, lsr lr
    9b38:	0000b258 	andeq	fp, r0, r8, asr r2
    9b3c:	0000be5c 	andeq	fp, r0, ip, asr lr
    9b40:	0000be84 	andeq	fp, r0, r4, lsl #29
    9b44:	0000beac 	andeq	fp, r0, ip, lsr #29
    9b48:	0000c5bc 			; <UNDEFINED> instruction: 0x0000c5bc
    9b4c:	0000bec4 	andeq	fp, r0, r4, asr #29
    9b50:	0000bed4 	ldrdeq	fp, [r0], -r4
    9b54:	0000beec 	andeq	fp, r0, ip, ror #29
    9b58:	0000bf10 	andeq	fp, r0, r0, lsl pc
    9b5c:	0000bf40 	andeq	fp, r0, r0, asr #30
    9b60:	0000bf68 	andeq	fp, r0, r8, ror #30
    9b64:	0000bf90 	muleq	r0, r0, pc	; <UNPREDICTABLE>
    9b68:	0000bfb8 			; <UNDEFINED> instruction: 0x0000bfb8
    9b6c:	0000bfd4 	ldrdeq	fp, [r0], -r4
    9b70:	0000bffc 	strdeq	fp, [r0], -ip
    9b74:	0000c028 	andeq	ip, r0, r8, lsr #32
    9b78:	0000c050 	andeq	ip, r0, r0, asr r0
    9b7c:	0000c070 	andeq	ip, r0, r0, ror r0

00009b80 <interrupt_vector>:
    9b80:	e92d4008 	push	{r3, lr}
    9b84:	ebfffbb5 	bl	8a60 <mmu_disable>
    9b88:	eb000257 	bl	a4ec <rpi_reset_putc>
    9b8c:	e59f0010 	ldr	r0, [pc, #16]	; 9ba4 <interrupt_vector+0x24>
    9b90:	e59f1010 	ldr	r1, [pc, #16]	; 9ba8 <interrupt_vector+0x28>
    9b94:	e59f2010 	ldr	r2, [pc, #16]	; 9bac <interrupt_vector+0x2c>
    9b98:	e3a030e5 	mov	r3, #229	; 0xe5
    9b9c:	eb000237 	bl	a480 <printk>
    9ba0:	eb0003c6 	bl	aac0 <clean_reboot>
    9ba4:	0000c098 	muleq	r0, r8, r0
    9ba8:	0000bc80 	andeq	fp, r0, r0, lsl #25
    9bac:	0000c180 	andeq	ip, r0, r0, lsl #3

00009bb0 <memcheck_init>:
    9bb0:	e92d4010 	push	{r4, lr}
    9bb4:	e24dd008 	sub	sp, sp, #8
    9bb8:	ebfffb61 	bl	8944 <mmu_init>
    9bbc:	ebfff9f6 	bl	839c <mmu_is_enabled>
    9bc0:	e3500000 	cmp	r0, #0
    9bc4:	0a000008 	beq	9bec <memcheck_init+0x3c>
    9bc8:	eb000247 	bl	a4ec <rpi_reset_putc>
    9bcc:	e59f3108 	ldr	r3, [pc, #264]	; 9cdc <memcheck_init+0x12c>
    9bd0:	e58d3000 	str	r3, [sp]
    9bd4:	e59f0104 	ldr	r0, [pc, #260]	; 9ce0 <memcheck_init+0x130>
    9bd8:	e59f1104 	ldr	r1, [pc, #260]	; 9ce4 <memcheck_init+0x134>
    9bdc:	e59f2104 	ldr	r2, [pc, #260]	; 9ce8 <memcheck_init+0x138>
    9be0:	e3a030f4 	mov	r3, #244	; 0xf4
    9be4:	eb000225 	bl	a480 <printk>
    9be8:	eb0003b4 	bl	aac0 <clean_reboot>
    9bec:	e3a00601 	mov	r0, #1048576	; 0x100000
    9bf0:	e3a01901 	mov	r1, #16384	; 0x4000
    9bf4:	ebfffb09 	bl	8820 <mmu_pt_alloc_at>
    9bf8:	e59f30ec 	ldr	r3, [pc, #236]	; 9cec <memcheck_init+0x13c>
    9bfc:	e5830000 	str	r0, [r3]
    9c00:	e3500601 	cmp	r0, #1048576	; 0x100000
    9c04:	0a000008 	beq	9c2c <memcheck_init+0x7c>
    9c08:	eb000237 	bl	a4ec <rpi_reset_putc>
    9c0c:	e59f30dc 	ldr	r3, [pc, #220]	; 9cf0 <memcheck_init+0x140>
    9c10:	e58d3000 	str	r3, [sp]
    9c14:	e59f00c4 	ldr	r0, [pc, #196]	; 9ce0 <memcheck_init+0x130>
    9c18:	e59f10c4 	ldr	r1, [pc, #196]	; 9ce4 <memcheck_init+0x134>
    9c1c:	e59f20c4 	ldr	r2, [pc, #196]	; 9ce8 <memcheck_init+0x138>
    9c20:	e3a030f9 	mov	r3, #249	; 0xf9
    9c24:	eb000215 	bl	a480 <printk>
    9c28:	eb0003a4 	bl	aac0 <clean_reboot>
    9c2c:	e3a01000 	mov	r1, #0
    9c30:	e1a02001 	mov	r2, r1
    9c34:	e3a03001 	mov	r3, #1
    9c38:	ebfffa57 	bl	859c <mmu_map_section>
    9c3c:	e59f40a8 	ldr	r4, [pc, #168]	; 9cec <memcheck_init+0x13c>
    9c40:	e5940000 	ldr	r0, [r4]
    9c44:	e3a01601 	mov	r1, #1048576	; 0x100000
    9c48:	e1a02001 	mov	r2, r1
    9c4c:	e3a03001 	mov	r3, #1
    9c50:	ebfffa51 	bl	859c <mmu_map_section>
    9c54:	e5940000 	ldr	r0, [r4]
    9c58:	e3a0167f 	mov	r1, #133169152	; 0x7f00000
    9c5c:	e1a02001 	mov	r2, r1
    9c60:	e3a03001 	mov	r3, #1
    9c64:	ebfffa4c 	bl	859c <mmu_map_section>
    9c68:	e5940000 	ldr	r0, [r4]
    9c6c:	e3a01202 	mov	r1, #536870912	; 0x20000000
    9c70:	e1a02001 	mov	r2, r1
    9c74:	e3a03001 	mov	r3, #1
    9c78:	ebfffa47 	bl	859c <mmu_map_section>
    9c7c:	e59f2070 	ldr	r2, [pc, #112]	; 9cf4 <memcheck_init+0x144>
    9c80:	e5940000 	ldr	r0, [r4]
    9c84:	e1a01002 	mov	r1, r2
    9c88:	e3a03001 	mov	r3, #1
    9c8c:	ebfffa42 	bl	859c <mmu_map_section>
    9c90:	e59f2060 	ldr	r2, [pc, #96]	; 9cf8 <memcheck_init+0x148>
    9c94:	e5940000 	ldr	r0, [r4]
    9c98:	e1a01002 	mov	r1, r2
    9c9c:	e3a03001 	mov	r3, #1
    9ca0:	ebfffa3d 	bl	859c <mmu_map_section>
    9ca4:	e5940000 	ldr	r0, [r4]
    9ca8:	e3a0168f 	mov	r1, #149946368	; 0x8f00000
    9cac:	e1a02001 	mov	r2, r1
    9cb0:	e3a03001 	mov	r3, #1
    9cb4:	ebfffa38 	bl	859c <mmu_map_section>
    9cb8:	ebfffb45 	bl	89d4 <mmu_install_handlers>
    9cbc:	e3a00004 	mov	r0, #4
    9cc0:	ebfffba8 	bl	8b68 <write_domain_access_ctrl>
    9cc4:	e59f0030 	ldr	r0, [pc, #48]	; 9cfc <memcheck_init+0x14c>
    9cc8:	e3a01001 	mov	r1, #1
    9ccc:	e5942000 	ldr	r2, [r4]
    9cd0:	ebfffba7 	bl	8b74 <set_procid_ttbr0>
    9cd4:	e28dd008 	add	sp, sp, #8
    9cd8:	e8bd8010 	pop	{r4, pc}
    9cdc:	0000c0b4 	strheq	ip, [r0], -r4
    9ce0:	0000b2bc 			; <UNDEFINED> instruction: 0x0000b2bc
    9ce4:	0000bc80 	andeq	fp, r0, r0, lsl #25
    9ce8:	0000c194 	muleq	r0, r4, r1
    9cec:	0000c5c0 	andeq	ip, r0, r0, asr #11
    9cf0:	0000c0c8 	andeq	ip, r0, r8, asr #1
    9cf4:	20100000 	andscs	r0, r0, r0
    9cf8:	20200000 	eorcs	r0, r0, r0
    9cfc:	0000140e 	andeq	r1, r0, lr, lsl #8

00009d00 <memcheck_on>:
    9d00:	e52de004 	push	{lr}		; (str lr, [sp, #-4]!)
    9d04:	e24dd00c 	sub	sp, sp, #12
    9d08:	e59f005c 	ldr	r0, [pc, #92]	; 9d6c <memcheck_on+0x6c>
    9d0c:	e59f105c 	ldr	r1, [pc, #92]	; 9d70 <memcheck_on+0x70>
    9d10:	e59f205c 	ldr	r2, [pc, #92]	; 9d74 <memcheck_on+0x74>
    9d14:	e59f305c 	ldr	r3, [pc, #92]	; 9d78 <memcheck_on+0x78>
    9d18:	eb0001d8 	bl	a480 <printk>
    9d1c:	ebfffb79 	bl	8b08 <mmu_enable>
    9d20:	ebfff99d 	bl	839c <mmu_is_enabled>
    9d24:	e3500000 	cmp	r0, #0
    9d28:	1a000008 	bne	9d50 <memcheck_on+0x50>
    9d2c:	eb0001ee 	bl	a4ec <rpi_reset_putc>
    9d30:	e59f3044 	ldr	r3, [pc, #68]	; 9d7c <memcheck_on+0x7c>
    9d34:	e58d3000 	str	r3, [sp]
    9d38:	e59f0040 	ldr	r0, [pc, #64]	; 9d80 <memcheck_on+0x80>
    9d3c:	e59f102c 	ldr	r1, [pc, #44]	; 9d70 <memcheck_on+0x70>
    9d40:	e59f202c 	ldr	r2, [pc, #44]	; 9d74 <memcheck_on+0x74>
    9d44:	e3a03e12 	mov	r3, #288	; 0x120
    9d48:	eb0001cc 	bl	a480 <printk>
    9d4c:	eb00035b 	bl	aac0 <clean_reboot>
    9d50:	e59f002c 	ldr	r0, [pc, #44]	; 9d84 <memcheck_on+0x84>
    9d54:	e59f1014 	ldr	r1, [pc, #20]	; 9d70 <memcheck_on+0x70>
    9d58:	e59f2014 	ldr	r2, [pc, #20]	; 9d74 <memcheck_on+0x74>
    9d5c:	e59f3024 	ldr	r3, [pc, #36]	; 9d88 <memcheck_on+0x88>
    9d60:	eb0001c6 	bl	a480 <printk>
    9d64:	e28dd00c 	add	sp, sp, #12
    9d68:	e49df004 	pop	{pc}		; (ldr pc, [sp], #4)
    9d6c:	0000c0d4 	ldrdeq	ip, [r0], -r4
    9d70:	0000bc80 	andeq	fp, r0, r0, lsl #25
    9d74:	0000c1a4 	andeq	ip, r0, r4, lsr #3
    9d78:	0000011d 	andeq	r0, r0, sp, lsl r1
    9d7c:	0000b354 	andeq	fp, r0, r4, asr r3
    9d80:	0000b2bc 			; <UNDEFINED> instruction: 0x0000b2bc
    9d84:	0000c0fc 	strdeq	ip, [r0], -ip	; <UNPREDICTABLE>
    9d88:	00000121 	andeq	r0, r0, r1, lsr #2

00009d8c <memcheck_off>:
    9d8c:	e52de004 	push	{lr}		; (str lr, [sp, #-4]!)
    9d90:	e24dd00c 	sub	sp, sp, #12
    9d94:	ebfffb31 	bl	8a60 <mmu_disable>
    9d98:	ebfff97f 	bl	839c <mmu_is_enabled>
    9d9c:	e3500000 	cmp	r0, #0
    9da0:	0a000008 	beq	9dc8 <memcheck_off+0x3c>
    9da4:	eb0001d0 	bl	a4ec <rpi_reset_putc>
    9da8:	e59f3034 	ldr	r3, [pc, #52]	; 9de4 <memcheck_off+0x58>
    9dac:	e58d3000 	str	r3, [sp]
    9db0:	e59f0030 	ldr	r0, [pc, #48]	; 9de8 <memcheck_off+0x5c>
    9db4:	e59f1030 	ldr	r1, [pc, #48]	; 9dec <memcheck_off+0x60>
    9db8:	e59f2030 	ldr	r2, [pc, #48]	; 9df0 <memcheck_off+0x64>
    9dbc:	e3a03f4a 	mov	r3, #296	; 0x128
    9dc0:	eb0001ae 	bl	a480 <printk>
    9dc4:	eb00033d 	bl	aac0 <clean_reboot>
    9dc8:	e59f0024 	ldr	r0, [pc, #36]	; 9df4 <memcheck_off+0x68>
    9dcc:	e59f1018 	ldr	r1, [pc, #24]	; 9dec <memcheck_off+0x60>
    9dd0:	e59f2018 	ldr	r2, [pc, #24]	; 9df0 <memcheck_off+0x64>
    9dd4:	e59f301c 	ldr	r3, [pc, #28]	; 9df8 <memcheck_off+0x6c>
    9dd8:	eb0001a8 	bl	a480 <printk>
    9ddc:	e28dd00c 	add	sp, sp, #12
    9de0:	e49df004 	pop	{pc}		; (ldr pc, [sp], #4)
    9de4:	0000c0b4 	strheq	ip, [r0], -r4
    9de8:	0000b2bc 			; <UNDEFINED> instruction: 0x0000b2bc
    9dec:	0000bc80 	andeq	fp, r0, r0, lsl #25
    9df0:	0000c1b0 			; <UNDEFINED> instruction: 0x0000c1b0
    9df4:	0000c114 	andeq	ip, r0, r4, lsl r1
    9df8:	00000129 	andeq	r0, r0, r9, lsr #2

00009dfc <memcheck_map>:
    9dfc:	e52de004 	push	{lr}		; (str lr, [sp, #-4]!)
    9e00:	e24dd00c 	sub	sp, sp, #12
    9e04:	e1a02000 	mov	r2, r0
    9e08:	e3c034ff 	bic	r3, r0, #-16777216	; 0xff000000
    9e0c:	e3d3160f 	bics	r1, r3, #15728640	; 0xf00000
    9e10:	0a000008 	beq	9e38 <memcheck_map+0x3c>
    9e14:	eb0001b4 	bl	a4ec <rpi_reset_putc>
    9e18:	e59f3038 	ldr	r3, [pc, #56]	; 9e58 <memcheck_map+0x5c>
    9e1c:	e58d3000 	str	r3, [sp]
    9e20:	e59f0034 	ldr	r0, [pc, #52]	; 9e5c <memcheck_map+0x60>
    9e24:	e59f1034 	ldr	r1, [pc, #52]	; 9e60 <memcheck_map+0x64>
    9e28:	e59f2034 	ldr	r2, [pc, #52]	; 9e64 <memcheck_map+0x68>
    9e2c:	e59f3034 	ldr	r3, [pc, #52]	; 9e68 <memcheck_map+0x6c>
    9e30:	eb000192 	bl	a480 <printk>
    9e34:	eb000321 	bl	aac0 <clean_reboot>
    9e38:	e59f302c 	ldr	r3, [pc, #44]	; 9e6c <memcheck_map+0x70>
    9e3c:	e5930000 	ldr	r0, [r3]
    9e40:	e1a01002 	mov	r1, r2
    9e44:	e2822601 	add	r2, r2, #1048576	; 0x100000
    9e48:	e3a03001 	mov	r3, #1
    9e4c:	ebfff9d2 	bl	859c <mmu_map_section>
    9e50:	e28dd00c 	add	sp, sp, #12
    9e54:	e49df004 	pop	{pc}		; (ldr pc, [sp], #4)
    9e58:	0000c12c 	andeq	ip, r0, ip, lsr #2
    9e5c:	0000b2bc 			; <UNDEFINED> instruction: 0x0000b2bc
    9e60:	0000bc80 	andeq	fp, r0, r0, lsl #25
    9e64:	0000c1c0 	andeq	ip, r0, r0, asr #3
    9e68:	0000012d 	andeq	r0, r0, sp, lsr #2
    9e6c:	0000c5c0 	andeq	ip, r0, r0, asr #11

00009e70 <memcheck_track>:
    9e70:	e52de004 	push	{lr}		; (str lr, [sp, #-4]!)
    9e74:	e24dd00c 	sub	sp, sp, #12
    9e78:	e1a02000 	mov	r2, r0
    9e7c:	e3c034ff 	bic	r3, r0, #-16777216	; 0xff000000
    9e80:	e3d3160f 	bics	r1, r3, #15728640	; 0xf00000
    9e84:	0a000008 	beq	9eac <memcheck_track+0x3c>
    9e88:	eb000197 	bl	a4ec <rpi_reset_putc>
    9e8c:	e59f3038 	ldr	r3, [pc, #56]	; 9ecc <memcheck_track+0x5c>
    9e90:	e58d3000 	str	r3, [sp]
    9e94:	e59f0034 	ldr	r0, [pc, #52]	; 9ed0 <memcheck_track+0x60>
    9e98:	e59f1034 	ldr	r1, [pc, #52]	; 9ed4 <memcheck_track+0x64>
    9e9c:	e59f2034 	ldr	r2, [pc, #52]	; 9ed8 <memcheck_track+0x68>
    9ea0:	e3a03f4d 	mov	r3, #308	; 0x134
    9ea4:	eb000175 	bl	a480 <printk>
    9ea8:	eb000304 	bl	aac0 <clean_reboot>
    9eac:	e59f3028 	ldr	r3, [pc, #40]	; 9edc <memcheck_track+0x6c>
    9eb0:	e5930000 	ldr	r0, [r3]
    9eb4:	e1a01002 	mov	r1, r2
    9eb8:	e2822601 	add	r2, r2, #1048576	; 0x100000
    9ebc:	e3a03002 	mov	r3, #2
    9ec0:	ebfff9b5 	bl	859c <mmu_map_section>
    9ec4:	e28dd00c 	add	sp, sp, #12
    9ec8:	e49df004 	pop	{pc}		; (ldr pc, [sp], #4)
    9ecc:	0000c12c 	andeq	ip, r0, ip, lsr #2
    9ed0:	0000b2bc 			; <UNDEFINED> instruction: 0x0000b2bc
    9ed4:	0000bc80 	andeq	fp, r0, r0, lsl #25
    9ed8:	0000c1d0 	ldrdeq	ip, [r0], -r0
    9edc:	0000c5c0 	andeq	ip, r0, r0, asr #11

00009ee0 <memcheck_no_access>:
    9ee0:	e92d4008 	push	{r3, lr}
    9ee4:	e1a01a20 	lsr	r1, r0, #20
    9ee8:	e59f3010 	ldr	r3, [pc, #16]	; 9f00 <memcheck_no_access+0x20>
    9eec:	e5930000 	ldr	r0, [r3]
    9ef0:	e1a01a01 	lsl	r1, r1, #20
    9ef4:	e3a02001 	mov	r2, #1
    9ef8:	ebfff97d 	bl	84f4 <mmu_mark_sec_no_access>
    9efc:	e8bd8008 	pop	{r3, pc}
    9f00:	0000c5c0 	andeq	ip, r0, r0, asr #11

00009f04 <memcheck_trap_enabled>:
    9f04:	e92d4008 	push	{r3, lr}
    9f08:	e3a00002 	mov	r0, #2
    9f0c:	ebfffde7 	bl	96b0 <dom_perm_get>
    9f10:	e2700001 	rsbs	r0, r0, #1
    9f14:	33a00000 	movcc	r0, #0
    9f18:	e8bd8008 	pop	{r3, pc}

00009f1c <memcheck_trap_disable>:
    9f1c:	e52de004 	push	{lr}		; (str lr, [sp, #-4]!)
    9f20:	e24dd00c 	sub	sp, sp, #12
    9f24:	e3a00002 	mov	r0, #2
    9f28:	e3a01001 	mov	r1, #1
    9f2c:	ebfffe08 	bl	9754 <dom_perm_set>
    9f30:	ebfffff3 	bl	9f04 <memcheck_trap_enabled>
    9f34:	e3500000 	cmp	r0, #0
    9f38:	0a000008 	beq	9f60 <memcheck_trap_disable+0x44>
    9f3c:	eb00016a 	bl	a4ec <rpi_reset_putc>
    9f40:	e59f3020 	ldr	r3, [pc, #32]	; 9f68 <memcheck_trap_disable+0x4c>
    9f44:	e58d3000 	str	r3, [sp]
    9f48:	e59f001c 	ldr	r0, [pc, #28]	; 9f6c <memcheck_trap_disable+0x50>
    9f4c:	e59f101c 	ldr	r1, [pc, #28]	; 9f70 <memcheck_trap_disable+0x54>
    9f50:	e59f201c 	ldr	r2, [pc, #28]	; 9f74 <memcheck_trap_disable+0x58>
    9f54:	e59f301c 	ldr	r3, [pc, #28]	; 9f78 <memcheck_trap_disable+0x5c>
    9f58:	eb000148 	bl	a480 <printk>
    9f5c:	eb0002d7 	bl	aac0 <clean_reboot>
    9f60:	e28dd00c 	add	sp, sp, #12
    9f64:	e49df004 	pop	{pc}		; (ldr pc, [sp], #4)
    9f68:	0000b2e4 	andeq	fp, r0, r4, ror #5
    9f6c:	0000b2bc 			; <UNDEFINED> instruction: 0x0000b2bc
    9f70:	0000bc80 	andeq	fp, r0, r0, lsl #25
    9f74:	0000c1ec 	andeq	ip, r0, ip, ror #3
    9f78:	00000149 	andeq	r0, r0, r9, asr #2

00009f7c <memcheck_trap_enable>:
    9f7c:	e52de004 	push	{lr}		; (str lr, [sp, #-4]!)
    9f80:	e24dd00c 	sub	sp, sp, #12
    9f84:	e3a00002 	mov	r0, #2
    9f88:	e3a01000 	mov	r1, #0
    9f8c:	ebfffdf0 	bl	9754 <dom_perm_set>
    9f90:	ebffffdb 	bl	9f04 <memcheck_trap_enabled>
    9f94:	e3500000 	cmp	r0, #0
    9f98:	1a000008 	bne	9fc0 <memcheck_trap_enable+0x44>
    9f9c:	eb000152 	bl	a4ec <rpi_reset_putc>
    9fa0:	e59f3020 	ldr	r3, [pc, #32]	; 9fc8 <memcheck_trap_enable+0x4c>
    9fa4:	e58d3000 	str	r3, [sp]
    9fa8:	e59f001c 	ldr	r0, [pc, #28]	; 9fcc <memcheck_trap_enable+0x50>
    9fac:	e59f101c 	ldr	r1, [pc, #28]	; 9fd0 <memcheck_trap_enable+0x54>
    9fb0:	e59f201c 	ldr	r2, [pc, #28]	; 9fd4 <memcheck_trap_enable+0x58>
    9fb4:	e59f301c 	ldr	r3, [pc, #28]	; 9fd8 <memcheck_trap_enable+0x5c>
    9fb8:	eb000130 	bl	a480 <printk>
    9fbc:	eb0002bf 	bl	aac0 <clean_reboot>
    9fc0:	e28dd00c 	add	sp, sp, #12
    9fc4:	e49df004 	pop	{pc}		; (ldr pc, [sp], #4)
    9fc8:	0000c144 	andeq	ip, r0, r4, asr #2
    9fcc:	0000b2bc 			; <UNDEFINED> instruction: 0x0000b2bc
    9fd0:	0000bc80 	andeq	fp, r0, r0, lsl #25
    9fd4:	0000c214 	andeq	ip, r0, r4, lsl r2
    9fd8:	0000014d 	andeq	r0, r0, sp, asr #2

00009fdc <cp15_sync>:
    9fdc:	e3a02000 	mov	r2, #0
    9fe0:	ee072fd5 	mcr	15, 0, r2, cr7, cr5, {6}
    9fe4:	ee072f9a 	mcr	15, 0, r2, cr7, cr10, {4}
    9fe8:	ee072f95 	mcr	15, 0, r2, cr7, cr5, {4}
    9fec:	e12fff1e 	bx	lr

00009ff0 <cp15_barrier>:
    9ff0:	e3a02000 	mov	r2, #0
    9ff4:	ee072f9a 	mcr	15, 0, r2, cr7, cr10, {4}
    9ff8:	ee072f95 	mcr	15, 0, r2, cr7, cr5, {4}
    9ffc:	e12fff1e 	bx	lr

0000a000 <cp15_ttbr0_rd>:
    a000:	ee120f10 	mrc	15, 0, r0, cr2, cr0, {0}
    a004:	e12fff1e 	bx	lr

0000a008 <cp15_ttbr1_rd>:
    a008:	ee120f30 	mrc	15, 0, r0, cr2, cr0, {1}
    a00c:	e12fff1e 	bx	lr

0000a010 <cp15_ttbr_ctrl_rd>:
    a010:	ee120f50 	mrc	15, 0, r0, cr2, cr0, {2}
    a014:	e12fff1e 	bx	lr

0000a018 <cp15_domain_ctrl_rd>:
    a018:	ee130f10 	mrc	15, 0, r0, cr3, cr0, {0}
    a01c:	e12fff1e 	bx	lr

0000a020 <cp15_cache_type_rd>:
    a020:	ee100f30 	mrc	15, 0, r0, cr0, cr0, {1}
    a024:	e12fff1e 	bx	lr

0000a028 <cp15_tlb_config_rd>:
    a028:	ee100f70 	mrc	15, 0, r0, cr0, cr0, {3}
    a02c:	e12fff1e 	bx	lr

0000a030 <cp15_ctrl_reg1_rd>:
    a030:	ee110f10 	mrc	15, 0, r0, cr1, cr0, {0}
    a034:	e12fff1e 	bx	lr

0000a038 <cp15_ctrl_reg1_rd_u32>:
    a038:	ee110f10 	mrc	15, 0, r0, cr1, cr0, {0}
    a03c:	e12fff1e 	bx	lr

0000a040 <cp15_procid_rd>:
    a040:	ee1d0f30 	mrc	15, 0, r0, cr13, cr0, {1}
    a044:	e12fff1e 	bx	lr

0000a048 <cp15_dsb>:
    a048:	e3a02000 	mov	r2, #0
    a04c:	ee072f9a 	mcr	15, 0, r2, cr7, cr10, {4}
    a050:	e12fff1e 	bx	lr

0000a054 <cp15_dmb>:
    a054:	e3a02000 	mov	r2, #0
    a058:	ee072fba 	mcr	15, 0, r2, cr7, cr10, {5}
    a05c:	e12fff1e 	bx	lr

0000a060 <cp15_prefetch_flush>:
    a060:	e3a02000 	mov	r2, #0
    a064:	ee072f95 	mcr	15, 0, r2, cr7, cr5, {4}
    a068:	e12fff1e 	bx	lr

0000a06c <cp15_btb_flush>:
    a06c:	e3a02000 	mov	r2, #0
    a070:	ee072fd5 	mcr	15, 0, r2, cr7, cr5, {6}
    a074:	e12fff1e 	bx	lr

0000a078 <cp15_caches_inv>:
    a078:	e3a00000 	mov	r0, #0
    a07c:	ee070f15 	mcr	15, 0, r0, cr7, cr5, {0}
    a080:	ee070f15 	mcr	15, 0, r0, cr7, cr5, {0}
    a084:	ee070f15 	mcr	15, 0, r0, cr7, cr5, {0}
    a088:	ee070f15 	mcr	15, 0, r0, cr7, cr5, {0}
    a08c:	e320f000 	nop	{0}
    a090:	e320f000 	nop	{0}
    a094:	e320f000 	nop	{0}
    a098:	e320f000 	nop	{0}
    a09c:	e320f000 	nop	{0}
    a0a0:	e320f000 	nop	{0}
    a0a4:	e320f000 	nop	{0}
    a0a8:	e320f000 	nop	{0}
    a0ac:	e320f000 	nop	{0}
    a0b0:	e320f000 	nop	{0}
    a0b4:	e320f000 	nop	{0}
    a0b8:	ee070f16 	mcr	15, 0, r0, cr7, cr6, {0}
    a0bc:	ee070f9a 	mcr	15, 0, r0, cr7, cr10, {4}
    a0c0:	ee070fd5 	mcr	15, 0, r0, cr7, cr5, {6}
    a0c4:	ee070f9a 	mcr	15, 0, r0, cr7, cr10, {4}
    a0c8:	ee070f95 	mcr	15, 0, r0, cr7, cr5, {4}
    a0cc:	e12fff1e 	bx	lr

0000a0d0 <cp15_dcache_clean_inv>:
    a0d0:	e3a00000 	mov	r0, #0
    a0d4:	ee070f1e 	mcr	15, 0, r0, cr7, cr14, {0}
    a0d8:	ee070f9a 	mcr	15, 0, r0, cr7, cr10, {4}
    a0dc:	ee070fd5 	mcr	15, 0, r0, cr7, cr5, {6}
    a0e0:	ee070f9a 	mcr	15, 0, r0, cr7, cr10, {4}
    a0e4:	ee070f95 	mcr	15, 0, r0, cr7, cr5, {4}
    a0e8:	e12fff1e 	bx	lr

0000a0ec <cp15_icache_inv>:
    a0ec:	e3a00000 	mov	r0, #0
    a0f0:	ee070f15 	mcr	15, 0, r0, cr7, cr5, {0}
    a0f4:	ee070f15 	mcr	15, 0, r0, cr7, cr5, {0}
    a0f8:	ee070f15 	mcr	15, 0, r0, cr7, cr5, {0}
    a0fc:	ee070f15 	mcr	15, 0, r0, cr7, cr5, {0}
    a100:	e320f000 	nop	{0}
    a104:	e320f000 	nop	{0}
    a108:	e320f000 	nop	{0}
    a10c:	e320f000 	nop	{0}
    a110:	e320f000 	nop	{0}
    a114:	e320f000 	nop	{0}
    a118:	e320f000 	nop	{0}
    a11c:	e320f000 	nop	{0}
    a120:	e320f000 	nop	{0}
    a124:	e320f000 	nop	{0}
    a128:	e320f000 	nop	{0}
    a12c:	ee070f9a 	mcr	15, 0, r0, cr7, cr10, {4}
    a130:	ee070fd5 	mcr	15, 0, r0, cr7, cr5, {6}
    a134:	ee070f9a 	mcr	15, 0, r0, cr7, cr10, {4}
    a138:	ee070f95 	mcr	15, 0, r0, cr7, cr5, {4}
    a13c:	e12fff1e 	bx	lr

0000a140 <cp15_itlb_inv>:
    a140:	e3a00000 	mov	r0, #0
    a144:	ee080f15 	mcr	15, 0, r0, cr8, cr5, {0}
    a148:	ee070f9a 	mcr	15, 0, r0, cr7, cr10, {4}
    a14c:	ee070fd5 	mcr	15, 0, r0, cr7, cr5, {6}
    a150:	ee070f9a 	mcr	15, 0, r0, cr7, cr10, {4}
    a154:	ee070f95 	mcr	15, 0, r0, cr7, cr5, {4}
    a158:	e12fff1e 	bx	lr

0000a15c <cp15_dtlb_inv>:
    a15c:	e3a00000 	mov	r0, #0
    a160:	ee080f16 	mcr	15, 0, r0, cr8, cr6, {0}
    a164:	ee070f9a 	mcr	15, 0, r0, cr7, cr10, {4}
    a168:	ee070fd5 	mcr	15, 0, r0, cr7, cr5, {6}
    a16c:	ee070f9a 	mcr	15, 0, r0, cr7, cr10, {4}
    a170:	ee070f95 	mcr	15, 0, r0, cr7, cr5, {4}
    a174:	e12fff1e 	bx	lr

0000a178 <cp15_tlbs_inv>:
    a178:	e3a00000 	mov	r0, #0
    a17c:	ee080f17 	mcr	15, 0, r0, cr8, cr7, {0}
    a180:	ee070f9a 	mcr	15, 0, r0, cr7, cr10, {4}
    a184:	ee070fd5 	mcr	15, 0, r0, cr7, cr5, {6}
    a188:	ee070f9a 	mcr	15, 0, r0, cr7, cr10, {4}
    a18c:	ee070f95 	mcr	15, 0, r0, cr7, cr5, {4}
    a190:	e12fff1e 	bx	lr

0000a194 <cp15_ttbr0_wr>:
    a194:	e3a01000 	mov	r1, #0
    a198:	ee020f10 	mcr	15, 0, r0, cr2, cr0, {0}
    a19c:	ee071f9a 	mcr	15, 0, r1, cr7, cr10, {4}
    a1a0:	ee071fd5 	mcr	15, 0, r1, cr7, cr5, {6}
    a1a4:	ee071f9a 	mcr	15, 0, r1, cr7, cr10, {4}
    a1a8:	ee071f95 	mcr	15, 0, r1, cr7, cr5, {4}
    a1ac:	e12fff1e 	bx	lr

0000a1b0 <cp15_ttbr1_wr>:
    a1b0:	e3a01000 	mov	r1, #0
    a1b4:	ee020f10 	mcr	15, 0, r0, cr2, cr0, {0}
    a1b8:	ee071f9a 	mcr	15, 0, r1, cr7, cr10, {4}
    a1bc:	ee071fd5 	mcr	15, 0, r1, cr7, cr5, {6}
    a1c0:	ee071f9a 	mcr	15, 0, r1, cr7, cr10, {4}
    a1c4:	ee071f95 	mcr	15, 0, r1, cr7, cr5, {4}
    a1c8:	e12fff1e 	bx	lr

0000a1cc <cp15_ttbr_ctrl_wr>:
    a1cc:	e3a01000 	mov	r1, #0
    a1d0:	ee020f50 	mcr	15, 0, r0, cr2, cr0, {2}
    a1d4:	ee071f9a 	mcr	15, 0, r1, cr7, cr10, {4}
    a1d8:	ee071fd5 	mcr	15, 0, r1, cr7, cr5, {6}
    a1dc:	ee071f9a 	mcr	15, 0, r1, cr7, cr10, {4}
    a1e0:	ee071f95 	mcr	15, 0, r1, cr7, cr5, {4}
    a1e4:	e12fff1e 	bx	lr

0000a1e8 <our_cp15_domain_ctrl_wr>:
    a1e8:	e3a01000 	mov	r1, #0
    a1ec:	ee030f10 	mcr	15, 0, r0, cr3, cr0, {0}
    a1f0:	ee071f9a 	mcr	15, 0, r1, cr7, cr10, {4}
    a1f4:	ee071fd5 	mcr	15, 0, r1, cr7, cr5, {6}
    a1f8:	ee071f9a 	mcr	15, 0, r1, cr7, cr10, {4}
    a1fc:	ee071f95 	mcr	15, 0, r1, cr7, cr5, {4}
    a200:	e12fff1e 	bx	lr

0000a204 <cp15_ctrl_reg1_wr>:
    a204:	e3a01000 	mov	r1, #0
    a208:	ee010f10 	mcr	15, 0, r0, cr1, cr0, {0}
    a20c:	ee071f9a 	mcr	15, 0, r1, cr7, cr10, {4}
    a210:	ee071fd5 	mcr	15, 0, r1, cr7, cr5, {6}
    a214:	ee071f9a 	mcr	15, 0, r1, cr7, cr10, {4}
    a218:	ee071f95 	mcr	15, 0, r1, cr7, cr5, {4}
    a21c:	e12fff1e 	bx	lr

0000a220 <our_mmu_sync_pte_mods>:
    a220:	e3a02000 	mov	r2, #0
    a224:	ee072f1e 	mcr	15, 0, r2, cr7, cr14, {0}
    a228:	ee072f9a 	mcr	15, 0, r2, cr7, cr10, {4}
    a22c:	ee082f17 	mcr	15, 0, r2, cr8, cr7, {0}
    a230:	ee072fd5 	mcr	15, 0, r2, cr7, cr5, {6}
    a234:	ee072f9a 	mcr	15, 0, r2, cr7, cr10, {4}
    a238:	ee072f95 	mcr	15, 0, r2, cr7, cr5, {4}
    a23c:	e12fff1e 	bx	lr

0000a240 <our_cp15_set_procid_ttbr0>:
    a240:	e3a02000 	mov	r2, #0
    a244:	ee072f9a 	mcr	15, 0, r2, cr7, cr10, {4}
    a248:	ee0d2f30 	mcr	15, 0, r2, cr13, cr0, {1}
    a24c:	ee072f95 	mcr	15, 0, r2, cr7, cr5, {4}
    a250:	ee021f10 	mcr	15, 0, r1, cr2, cr0, {0}
    a254:	ee022f30 	mcr	15, 0, r2, cr2, cr0, {1}
    a258:	ee072f95 	mcr	15, 0, r2, cr7, cr5, {4}
    a25c:	ee0d0f30 	mcr	15, 0, r0, cr13, cr0, {1}
    a260:	ee072f9a 	mcr	15, 0, r2, cr7, cr10, {4}
    a264:	e12fff1e 	bx	lr

0000a268 <our_mmu_reset>:
    a268:	e3a00000 	mov	r0, #0
    a26c:	e3a00000 	mov	r0, #0
    a270:	ee070f16 	mcr	15, 0, r0, cr7, cr6, {0}
    a274:	ee070f15 	mcr	15, 0, r0, cr7, cr5, {0}
    a278:	ee070f15 	mcr	15, 0, r0, cr7, cr5, {0}
    a27c:	ee070f15 	mcr	15, 0, r0, cr7, cr5, {0}
    a280:	ee070f15 	mcr	15, 0, r0, cr7, cr5, {0}
    a284:	e320f000 	nop	{0}
    a288:	e320f000 	nop	{0}
    a28c:	e320f000 	nop	{0}
    a290:	e320f000 	nop	{0}
    a294:	e320f000 	nop	{0}
    a298:	e320f000 	nop	{0}
    a29c:	e320f000 	nop	{0}
    a2a0:	e320f000 	nop	{0}
    a2a4:	e320f000 	nop	{0}
    a2a8:	e320f000 	nop	{0}
    a2ac:	e320f000 	nop	{0}
    a2b0:	ee080f17 	mcr	15, 0, r0, cr8, cr7, {0}
    a2b4:	ee070f9a 	mcr	15, 0, r0, cr7, cr10, {4}
    a2b8:	ee070f9a 	mcr	15, 0, r0, cr7, cr10, {4}
    a2bc:	ee070fd5 	mcr	15, 0, r0, cr7, cr5, {6}
    a2c0:	ee070f9a 	mcr	15, 0, r0, cr7, cr10, {4}
    a2c4:	ee070f95 	mcr	15, 0, r0, cr7, cr5, {4}
    a2c8:	e12fff1e 	bx	lr

0000a2cc <our_mmu_enable_set_asm>:
    a2cc:	e3a01000 	mov	r1, #0
    a2d0:	ee071f9a 	mcr	15, 0, r1, cr7, cr10, {4}
    a2d4:	ee010f10 	mcr	15, 0, r0, cr1, cr0, {0}
    a2d8:	ee071f9a 	mcr	15, 0, r1, cr7, cr10, {4}
    a2dc:	ee071fd5 	mcr	15, 0, r1, cr7, cr5, {6}
    a2e0:	ee071f9a 	mcr	15, 0, r1, cr7, cr10, {4}
    a2e4:	ee071f95 	mcr	15, 0, r1, cr7, cr5, {4}
    a2e8:	e12fff1e 	bx	lr

0000a2ec <our_mmu_disable_set_asm>:
    a2ec:	e3a01000 	mov	r1, #0
    a2f0:	ee071f9a 	mcr	15, 0, r1, cr7, cr10, {4}
    a2f4:	ee071f1e 	mcr	15, 0, r1, cr7, cr14, {0}
    a2f8:	ee071f9a 	mcr	15, 0, r1, cr7, cr10, {4}
    a2fc:	ee071f95 	mcr	15, 0, r1, cr7, cr5, {4}
    a300:	ee112f10 	mrc	15, 0, r2, cr1, cr0, {0}
    a304:	e3c22004 	bic	r2, r2, #4
    a308:	ee012f10 	mcr	15, 0, r2, cr1, cr0, {0}
    a30c:	ee071f9a 	mcr	15, 0, r1, cr7, cr10, {4}
    a310:	ee071f95 	mcr	15, 0, r1, cr7, cr5, {4}
    a314:	ee010f10 	mcr	15, 0, r0, cr1, cr0, {0}
    a318:	ee071f9a 	mcr	15, 0, r1, cr7, cr10, {4}
    a31c:	ee071f95 	mcr	15, 0, r1, cr7, cr5, {4}
    a320:	ee071f15 	mcr	15, 0, r1, cr7, cr5, {0}
    a324:	ee071f15 	mcr	15, 0, r1, cr7, cr5, {0}
    a328:	ee071f15 	mcr	15, 0, r1, cr7, cr5, {0}
    a32c:	ee071f15 	mcr	15, 0, r1, cr7, cr5, {0}
    a330:	e320f000 	nop	{0}
    a334:	e320f000 	nop	{0}
    a338:	e320f000 	nop	{0}
    a33c:	e320f000 	nop	{0}
    a340:	e320f000 	nop	{0}
    a344:	e320f000 	nop	{0}
    a348:	e320f000 	nop	{0}
    a34c:	e320f000 	nop	{0}
    a350:	e320f000 	nop	{0}
    a354:	e320f000 	nop	{0}
    a358:	e320f000 	nop	{0}
    a35c:	ee071f9a 	mcr	15, 0, r1, cr7, cr10, {4}
    a360:	ee071fd5 	mcr	15, 0, r1, cr7, cr5, {6}
    a364:	ee071f9a 	mcr	15, 0, r1, cr7, cr10, {4}
    a368:	ee071f95 	mcr	15, 0, r1, cr7, cr5, {4}
    a36c:	e12fff1e 	bx	lr

0000a370 <fast_hash>:
    a370:	e52d4004 	push	{r4}		; (str r4, [sp, #-4]!)
    a374:	e1a02001 	mov	r2, r1
    a378:	e1a03000 	mov	r3, r0
    a37c:	e3500000 	cmp	r0, #0
    a380:	13510000 	cmpne	r1, #0
    a384:	da000032 	ble	a454 <fast_hash+0xe4>
    a388:	e2014003 	and	r4, r1, #3
    a38c:	e1a01141 	asr	r1, r1, #2
    a390:	ea00000b 	b	a3c4 <fast_hash+0x54>
    a394:	e5d3c001 	ldrb	ip, [r3, #1]
    a398:	e5d30000 	ldrb	r0, [r3]
    a39c:	e080040c 	add	r0, r0, ip, lsl #8
    a3a0:	e0800002 	add	r0, r0, r2
    a3a4:	e5d3c003 	ldrb	ip, [r3, #3]
    a3a8:	e5d32002 	ldrb	r2, [r3, #2]
    a3ac:	e082240c 	add	r2, r2, ip, lsl #8
    a3b0:	e0202582 	eor	r2, r0, r2, lsl #11
    a3b4:	e0222800 	eor	r2, r2, r0, lsl #16
    a3b8:	e2833004 	add	r3, r3, #4
    a3bc:	e08225a2 	add	r2, r2, r2, lsr #11
    a3c0:	e2411001 	sub	r1, r1, #1
    a3c4:	e3510000 	cmp	r1, #0
    a3c8:	cafffff1 	bgt	a394 <fast_hash+0x24>
    a3cc:	e3540002 	cmp	r4, #2
    a3d0:	0a00000d 	beq	a40c <fast_hash+0x9c>
    a3d4:	e3540003 	cmp	r4, #3
    a3d8:	0a000002 	beq	a3e8 <fast_hash+0x78>
    a3dc:	e3540001 	cmp	r4, #1
    a3e0:	1a000014 	bne	a438 <fast_hash+0xc8>
    a3e4:	ea00000f 	b	a428 <fast_hash+0xb8>
    a3e8:	e5d30001 	ldrb	r0, [r3, #1]
    a3ec:	e5d31000 	ldrb	r1, [r3]
    a3f0:	e0811400 	add	r1, r1, r0, lsl #8
    a3f4:	e0812002 	add	r2, r1, r2
    a3f8:	e0222802 	eor	r2, r2, r2, lsl #16
    a3fc:	e1d330d2 	ldrsb	r3, [r3, #2]
    a400:	e0222903 	eor	r2, r2, r3, lsl #18
    a404:	e08225a2 	add	r2, r2, r2, lsr #11
    a408:	ea00000a 	b	a438 <fast_hash+0xc8>
    a40c:	e5d31001 	ldrb	r1, [r3, #1]
    a410:	e5d33000 	ldrb	r3, [r3]
    a414:	e0833401 	add	r3, r3, r1, lsl #8
    a418:	e0832002 	add	r2, r3, r2
    a41c:	e0222582 	eor	r2, r2, r2, lsl #11
    a420:	e08228a2 	add	r2, r2, r2, lsr #17
    a424:	ea000003 	b	a438 <fast_hash+0xc8>
    a428:	e1d330d0 	ldrsb	r3, [r3]
    a42c:	e0832002 	add	r2, r3, r2
    a430:	e0222502 	eor	r2, r2, r2, lsl #10
    a434:	e08220a2 	add	r2, r2, r2, lsr #1
    a438:	e0220182 	eor	r0, r2, r2, lsl #3
    a43c:	e08002a0 	add	r0, r0, r0, lsr #5
    a440:	e0200200 	eor	r0, r0, r0, lsl #4
    a444:	e08008a0 	add	r0, r0, r0, lsr #17
    a448:	e0200c80 	eor	r0, r0, r0, lsl #25
    a44c:	e0800320 	add	r0, r0, r0, lsr #6
    a450:	ea000000 	b	a458 <fast_hash+0xe8>
    a454:	e3a00000 	mov	r0, #0
    a458:	e49d4004 	pop	{r4}		; (ldr r4, [sp], #4)
    a45c:	e12fff1e 	bx	lr

0000a460 <memset>:
    a460:	e0802002 	add	r2, r0, r2
    a464:	e1a03000 	mov	r3, r0
    a468:	ea000001 	b	a474 <memset+0x14>
    a46c:	e5c31000 	strb	r1, [r3]
    a470:	e2833001 	add	r3, r3, #1
    a474:	e1530002 	cmp	r3, r2
    a478:	3afffffb 	bcc	a46c <memset+0xc>
    a47c:	e12fff1e 	bx	lr

0000a480 <printk>:
    a480:	e92d000f 	push	{r0, r1, r2, r3}
    a484:	e92d4030 	push	{r4, r5, lr}
    a488:	e24dd00c 	sub	sp, sp, #12
    a48c:	e28d301c 	add	r3, sp, #28
    a490:	e58d3004 	str	r3, [sp, #4]
    a494:	e59f4034 	ldr	r4, [pc, #52]	; a4d0 <printk+0x50>
    a498:	e1a00004 	mov	r0, r4
    a49c:	e3a01b01 	mov	r1, #1024	; 0x400
    a4a0:	e59d2018 	ldr	r2, [sp, #24]
    a4a4:	eb0000d0 	bl	a7ec <va_printk>
    a4a8:	e1a05000 	mov	r5, r0
    a4ac:	e59f3020 	ldr	r3, [pc, #32]	; a4d4 <printk+0x54>
    a4b0:	e5933000 	ldr	r3, [r3]
    a4b4:	e1a00004 	mov	r0, r4
    a4b8:	e12fff33 	blx	r3
    a4bc:	e1a00005 	mov	r0, r5
    a4c0:	e28dd00c 	add	sp, sp, #12
    a4c4:	e8bd4030 	pop	{r4, r5, lr}
    a4c8:	e28dd010 	add	sp, sp, #16
    a4cc:	e12fff1e 	bx	lr
    a4d0:	0000c5c4 	andeq	ip, r0, r4, asr #11
    a4d4:	0000b24c 	andeq	fp, r0, ip, asr #4

0000a4d8 <internal_putchar>:
    a4d8:	e92d4010 	push	{r4, lr}
    a4dc:	e1a04000 	mov	r4, r0
    a4e0:	eb00029a 	bl	af50 <uart_putc>
    a4e4:	e1a00004 	mov	r0, r4
    a4e8:	e8bd8010 	pop	{r4, pc}

0000a4ec <rpi_reset_putc>:
    a4ec:	e59f2008 	ldr	r2, [pc, #8]	; a4fc <rpi_reset_putc+0x10>
    a4f0:	e59f3008 	ldr	r3, [pc, #8]	; a500 <rpi_reset_putc+0x14>
    a4f4:	e5832000 	str	r2, [r3]
    a4f8:	e12fff1e 	bx	lr
    a4fc:	0000a4d8 	ldrdeq	sl, [r0], -r8
    a500:	0000b248 	andeq	fp, r0, r8, asr #4

0000a504 <rpi_set_putc>:
    a504:	e59f3004 	ldr	r3, [pc, #4]	; a510 <rpi_set_putc+0xc>
    a508:	e5830000 	str	r0, [r3]
    a50c:	e12fff1e 	bx	lr
    a510:	0000b248 	andeq	fp, r0, r8, asr #4

0000a514 <internal_putk>:
    a514:	e92d4038 	push	{r3, r4, r5, lr}
    a518:	e1a04000 	mov	r4, r0
    a51c:	e59f5020 	ldr	r5, [pc, #32]	; a544 <internal_putk+0x30>
    a520:	ea000002 	b	a530 <internal_putk+0x1c>
    a524:	e5953000 	ldr	r3, [r5]
    a528:	e12fff33 	blx	r3
    a52c:	e2844001 	add	r4, r4, #1
    a530:	e5d40000 	ldrb	r0, [r4]
    a534:	e3500000 	cmp	r0, #0
    a538:	1afffff9 	bne	a524 <internal_putk+0x10>
    a53c:	e3a00001 	mov	r0, #1
    a540:	e8bd8038 	pop	{r3, r4, r5, pc}
    a544:	0000b248 	andeq	fp, r0, r8, asr #4

0000a548 <isdigit>:
    a548:	e2400030 	sub	r0, r0, #48	; 0x30
    a54c:	e3500009 	cmp	r0, #9
    a550:	83a00000 	movhi	r0, #0
    a554:	93a00001 	movls	r0, #1
    a558:	e12fff1e 	bx	lr

0000a55c <pad>:
    a55c:	e0611000 	rsb	r1, r1, r0
    a560:	e3a03020 	mov	r3, #32
    a564:	ea000002 	b	a574 <pad+0x18>
    a568:	e5c03000 	strb	r3, [r0]
    a56c:	e2811001 	add	r1, r1, #1
    a570:	e2800001 	add	r0, r0, #1
    a574:	e1510002 	cmp	r1, r2
    a578:	bafffffa 	blt	a568 <pad+0xc>
    a57c:	e3a03000 	mov	r3, #0
    a580:	e5c03000 	strb	r3, [r0]
    a584:	e12fff1e 	bx	lr

0000a588 <reverse>:
    a588:	e063c002 	rsb	ip, r3, r2
    a58c:	e28cc001 	add	ip, ip, #1
    a590:	e15c0001 	cmp	ip, r1
    a594:	c061100c 	rsbgt	r1, r1, ip
    a598:	c0833001 	addgt	r3, r3, r1
    a59c:	e2422001 	sub	r2, r2, #1
    a5a0:	e1a01000 	mov	r1, r0
    a5a4:	ea000002 	b	a5b4 <reverse+0x2c>
    a5a8:	e452c001 	ldrb	ip, [r2], #-1
    a5ac:	e5c1c000 	strb	ip, [r1]
    a5b0:	e2811001 	add	r1, r1, #1
    a5b4:	e1520003 	cmp	r2, r3
    a5b8:	2afffffa 	bcs	a5a8 <reverse+0x20>
    a5bc:	e3a03000 	mov	r3, #0
    a5c0:	e5c13000 	strb	r3, [r1]
    a5c4:	e12fff1e 	bx	lr

0000a5c8 <emit>:
    a5c8:	e92d41f0 	push	{r4, r5, r6, r7, r8, lr}
    a5cc:	e24dd048 	sub	sp, sp, #72	; 0x48
    a5d0:	e1a05001 	mov	r5, r1
    a5d4:	e1a04002 	mov	r4, r2
    a5d8:	e59d2060 	ldr	r2, [sp, #96]	; 0x60
    a5dc:	e1520004 	cmp	r2, r4
    a5e0:	c2442001 	subgt	r2, r4, #1
    a5e4:	e1a0c003 	mov	ip, r3
    a5e8:	e2400002 	sub	r0, r0, #2
    a5ec:	e350000e 	cmp	r0, #14
    a5f0:	979ff100 	ldrls	pc, [pc, r0, lsl #2]
    a5f4:	ea000048 	b	a71c <emit+0x154>
    a5f8:	0000a6f4 	strdeq	sl, [r0], -r4
    a5fc:	0000a71c 	andeq	sl, r0, ip, lsl r7
    a600:	0000a71c 	andeq	sl, r0, ip, lsl r7
    a604:	0000a71c 	andeq	sl, r0, ip, lsl r7
    a608:	0000a71c 	andeq	sl, r0, ip, lsl r7
    a60c:	0000a71c 	andeq	sl, r0, ip, lsl r7
    a610:	0000a6e8 	andeq	sl, r0, r8, ror #13
    a614:	0000a71c 	andeq	sl, r0, ip, lsl r7
    a618:	0000a634 	andeq	sl, r0, r4, lsr r6
    a61c:	0000a71c 	andeq	sl, r0, ip, lsl r7
    a620:	0000a71c 	andeq	sl, r0, ip, lsl r7
    a624:	0000a71c 	andeq	sl, r0, ip, lsl r7
    a628:	0000a71c 	andeq	sl, r0, ip, lsl r7
    a62c:	0000a71c 	andeq	sl, r0, ip, lsl r7
    a630:	0000a6a8 	andeq	sl, r0, r8, lsr #13
    a634:	e59d1064 	ldr	r1, [sp, #100]	; 0x64
    a638:	e2911000 	adds	r1, r1, #0
    a63c:	13a01001 	movne	r1, #1
    a640:	e0111fa3 	ands	r1, r1, r3, lsr #31
    a644:	1263c000 	rsbne	ip, r3, #0
    a648:	13a08001 	movne	r8, #1
    a64c:	03a08000 	moveq	r8, #0
    a650:	e28d1008 	add	r1, sp, #8
    a654:	e59f7108 	ldr	r7, [pc, #264]	; a764 <emit+0x19c>
    a658:	e59f6108 	ldr	r6, [pc, #264]	; a768 <emit+0x1a0>
    a65c:	ea000000 	b	a664 <emit+0x9c>
    a660:	e1a01000 	mov	r1, r0
    a664:	e2810001 	add	r0, r1, #1
    a668:	e083ec97 	umull	lr, r3, r7, ip
    a66c:	e1a031a3 	lsr	r3, r3, #3
    a670:	e1a0e003 	mov	lr, r3
    a674:	e0833103 	add	r3, r3, r3, lsl #2
    a678:	e1a03083 	lsl	r3, r3, #1
    a67c:	e063300c 	rsb	r3, r3, ip
    a680:	e7d63003 	ldrb	r3, [r6, r3]
    a684:	e5c13000 	strb	r3, [r1]
    a688:	e1a0c00e 	mov	ip, lr
    a68c:	e35e0000 	cmp	lr, #0
    a690:	1afffff2 	bne	a660 <emit+0x98>
    a694:	e3580000 	cmp	r8, #0
    a698:	12810002 	addne	r0, r1, #2
    a69c:	13a0302d 	movne	r3, #45	; 0x2d
    a6a0:	15c13001 	strbne	r3, [r1, #1]
    a6a4:	ea000025 	b	a740 <emit+0x178>
    a6a8:	e28d3008 	add	r3, sp, #8
    a6ac:	e59fe0b8 	ldr	lr, [pc, #184]	; a76c <emit+0x1a4>
    a6b0:	ea000000 	b	a6b8 <emit+0xf0>
    a6b4:	e1a03000 	mov	r3, r0
    a6b8:	e2830001 	add	r0, r3, #1
    a6bc:	e20c100f 	and	r1, ip, #15
    a6c0:	e7de1001 	ldrb	r1, [lr, r1]
    a6c4:	e5c31000 	strb	r1, [r3]
    a6c8:	e1b0c22c 	lsrs	ip, ip, #4
    a6cc:	1afffff8 	bne	a6b4 <emit+0xec>
    a6d0:	e3a01078 	mov	r1, #120	; 0x78
    a6d4:	e5c31001 	strb	r1, [r3, #1]
    a6d8:	e2830003 	add	r0, r3, #3
    a6dc:	e3a01030 	mov	r1, #48	; 0x30
    a6e0:	e5c31002 	strb	r1, [r3, #2]
    a6e4:	ea000015 	b	a740 <emit+0x178>
    a6e8:	e5cd3008 	strb	r3, [sp, #8]
    a6ec:	e28d0009 	add	r0, sp, #9
    a6f0:	ea000012 	b	a740 <emit+0x178>
    a6f4:	e28d3008 	add	r3, sp, #8
    a6f8:	e59fe070 	ldr	lr, [pc, #112]	; a770 <emit+0x1a8>
    a6fc:	e2830001 	add	r0, r3, #1
    a700:	e20c1001 	and	r1, ip, #1
    a704:	e7de1001 	ldrb	r1, [lr, r1]
    a708:	e5c31000 	strb	r1, [r3]
    a70c:	e1a03000 	mov	r3, r0
    a710:	e1b0c0ac 	lsrs	ip, ip, #1
    a714:	1afffff8 	bne	a6fc <emit+0x134>
    a718:	ea000008 	b	a740 <emit+0x178>
    a71c:	ebffff72 	bl	a4ec <rpi_reset_putc>
    a720:	e59f304c 	ldr	r3, [pc, #76]	; a774 <emit+0x1ac>
    a724:	e58d3000 	str	r3, [sp]
    a728:	e59f0048 	ldr	r0, [pc, #72]	; a778 <emit+0x1b0>
    a72c:	e59f1048 	ldr	r1, [pc, #72]	; a77c <emit+0x1b4>
    a730:	e59f2048 	ldr	r2, [pc, #72]	; a780 <emit+0x1b8>
    a734:	e3a03077 	mov	r3, #119	; 0x77
    a738:	ebffff50 	bl	a480 <printk>
    a73c:	eb0000df 	bl	aac0 <clean_reboot>
    a740:	e28d1008 	add	r1, sp, #8
    a744:	ebffff84 	bl	a55c <pad>
    a748:	e1a02000 	mov	r2, r0
    a74c:	e1a00005 	mov	r0, r5
    a750:	e1a01004 	mov	r1, r4
    a754:	e28d3008 	add	r3, sp, #8
    a758:	ebffff8a 	bl	a588 <reverse>
    a75c:	e28dd048 	add	sp, sp, #72	; 0x48
    a760:	e8bd81f0 	pop	{r4, r5, r6, r7, r8, pc}
    a764:	cccccccd 	stclgt	12, cr12, [ip], {205}	; 0xcd
    a768:	0000c264 	andeq	ip, r0, r4, ror #4
    a76c:	0000c270 	andeq	ip, r0, r0, ror r2
    a770:	0000c284 	andeq	ip, r0, r4, lsl #5
    a774:	0000ba04 	andeq	fp, r0, r4, lsl #20
    a778:	0000b2bc 			; <UNDEFINED> instruction: 0x0000b2bc
    a77c:	0000c250 	andeq	ip, r0, r0, asr r2
    a780:	0000c22c 	andeq	ip, r0, ip, lsr #4

0000a784 <rpi_set_output>:
    a784:	e52de004 	push	{lr}		; (str lr, [sp, #-4]!)
    a788:	e24dd00c 	sub	sp, sp, #12
    a78c:	e3500000 	cmp	r0, #0
    a790:	1a000008 	bne	a7b8 <rpi_set_output+0x34>
    a794:	ebffff54 	bl	a4ec <rpi_reset_putc>
    a798:	e59f3034 	ldr	r3, [pc, #52]	; a7d4 <rpi_set_output+0x50>
    a79c:	e58d3000 	str	r3, [sp]
    a7a0:	e59f0030 	ldr	r0, [pc, #48]	; a7d8 <rpi_set_output+0x54>
    a7a4:	e59f1030 	ldr	r1, [pc, #48]	; a7dc <rpi_set_output+0x58>
    a7a8:	e59f2030 	ldr	r2, [pc, #48]	; a7e0 <rpi_set_output+0x5c>
    a7ac:	e3a03020 	mov	r3, #32
    a7b0:	ebffff32 	bl	a480 <printk>
    a7b4:	eb0000c1 	bl	aac0 <clean_reboot>
    a7b8:	e59f3024 	ldr	r3, [pc, #36]	; a7e4 <rpi_set_output+0x60>
    a7bc:	e5830000 	str	r0, [r3]
    a7c0:	e3510000 	cmp	r1, #0
    a7c4:	159f301c 	ldrne	r3, [pc, #28]	; a7e8 <rpi_set_output+0x64>
    a7c8:	15831000 	strne	r1, [r3]
    a7cc:	e28dd00c 	add	sp, sp, #12
    a7d0:	e49df004 	pop	{pc}		; (ldr pc, [sp], #4)
    a7d4:	0000c288 	andeq	ip, r0, r8, lsl #5
    a7d8:	0000b2bc 			; <UNDEFINED> instruction: 0x0000b2bc
    a7dc:	0000c250 	andeq	ip, r0, r0, asr r2
    a7e0:	0000c234 	andeq	ip, r0, r4, lsr r2
    a7e4:	0000b248 	andeq	fp, r0, r8, asr #4
    a7e8:	0000b24c 	andeq	fp, r0, ip, asr #4

0000a7ec <va_printk>:
    a7ec:	e92d4ff0 	push	{r4, r5, r6, r7, r8, r9, sl, fp, lr}
    a7f0:	e24dd094 	sub	sp, sp, #148	; 0x94
    a7f4:	e1a0b000 	mov	fp, r0
    a7f8:	e58d200c 	str	r2, [sp, #12]
    a7fc:	e1a0a003 	mov	sl, r3
    a800:	e2411001 	sub	r1, r1, #1
    a804:	e0808001 	add	r8, r0, r1
    a808:	e3a03000 	mov	r3, #0
    a80c:	e5c03000 	strb	r3, [r0]
    a810:	e1a04000 	mov	r4, r0
    a814:	e1a06002 	mov	r6, r2
    a818:	ea000095 	b	aa74 <va_printk+0x288>
    a81c:	e3530025 	cmp	r3, #37	; 0x25
    a820:	12866001 	addne	r6, r6, #1
    a824:	15c43000 	strbne	r3, [r4]
    a828:	12844001 	addne	r4, r4, #1
    a82c:	1a000090 	bne	aa74 <va_printk+0x288>
    a830:	e5d62001 	ldrb	r2, [r6, #1]
    a834:	e3520025 	cmp	r2, #37	; 0x25
    a838:	05c43000 	strbeq	r3, [r4]
    a83c:	02866002 	addeq	r6, r6, #2
    a840:	02844001 	addeq	r4, r4, #1
    a844:	0a00008a 	beq	aa74 <va_printk+0x288>
    a848:	e2866001 	add	r6, r6, #1
    a84c:	e3a07000 	mov	r7, #0
    a850:	ea000004 	b	a868 <va_printk+0x7c>
    a854:	e0877107 	add	r7, r7, r7, lsl #2
    a858:	e1a07087 	lsl	r7, r7, #1
    a85c:	e0877005 	add	r7, r7, r5
    a860:	e2477030 	sub	r7, r7, #48	; 0x30
    a864:	e2866001 	add	r6, r6, #1
    a868:	e5d65000 	ldrb	r5, [r6]
    a86c:	e1a09005 	mov	r9, r5
    a870:	e1a00005 	mov	r0, r5
    a874:	ebffff33 	bl	a548 <isdigit>
    a878:	e3500000 	cmp	r0, #0
    a87c:	1afffff4 	bne	a854 <va_printk+0x68>
    a880:	e357001f 	cmp	r7, #31
    a884:	9a000008 	bls	a8ac <va_printk+0xc0>
    a888:	ebffff17 	bl	a4ec <rpi_reset_putc>
    a88c:	e59f320c 	ldr	r3, [pc, #524]	; aaa0 <va_printk+0x2b4>
    a890:	e58d3000 	str	r3, [sp]
    a894:	e59f0208 	ldr	r0, [pc, #520]	; aaa4 <va_printk+0x2b8>
    a898:	e59f1208 	ldr	r1, [pc, #520]	; aaa8 <va_printk+0x2bc>
    a89c:	e59f2208 	ldr	r2, [pc, #520]	; aaac <va_printk+0x2c0>
    a8a0:	e3a03095 	mov	r3, #149	; 0x95
    a8a4:	ebfffef5 	bl	a480 <printk>
    a8a8:	eb000084 	bl	aac0 <clean_reboot>
    a8ac:	e2455062 	sub	r5, r5, #98	; 0x62
    a8b0:	e3550016 	cmp	r5, #22
    a8b4:	979ff105 	ldrls	pc, [pc, r5, lsl #2]
    a8b8:	ea000052 	b	aa08 <va_printk+0x21c>
    a8bc:	0000a9ac 	andeq	sl, r0, ip, lsr #19
    a8c0:	0000a9e0 	andeq	sl, r0, r0, ror #19
    a8c4:	0000a934 	andeq	sl, r0, r4, lsr r9
    a8c8:	0000aa08 	andeq	sl, r0, r8, lsl #20
    a8cc:	0000a918 	andeq	sl, r0, r8, lsl r9
    a8d0:	0000aa08 	andeq	sl, r0, r8, lsl #20
    a8d4:	0000aa08 	andeq	sl, r0, r8, lsl #20
    a8d8:	0000aa08 	andeq	sl, r0, r8, lsl #20
    a8dc:	0000aa08 	andeq	sl, r0, r8, lsl #20
    a8e0:	0000aa08 	andeq	sl, r0, r8, lsl #20
    a8e4:	0000aa08 	andeq	sl, r0, r8, lsl #20
    a8e8:	0000aa08 	andeq	sl, r0, r8, lsl #20
    a8ec:	0000aa08 	andeq	sl, r0, r8, lsl #20
    a8f0:	0000aa08 	andeq	sl, r0, r8, lsl #20
    a8f4:	0000a984 	andeq	sl, r0, r4, lsl #19
    a8f8:	0000aa08 	andeq	sl, r0, r8, lsl #20
    a8fc:	0000aa08 	andeq	sl, r0, r8, lsl #20
    a900:	0000a9d4 	ldrdeq	sl, [r0], -r4
    a904:	0000aa08 	andeq	sl, r0, r8, lsl #20
    a908:	0000a95c 	andeq	sl, r0, ip, asr r9
    a90c:	0000aa08 	andeq	sl, r0, r8, lsl #20
    a910:	0000aa08 	andeq	sl, r0, r8, lsl #20
    a914:	0000a984 	andeq	sl, r0, r4, lsl #19
    a918:	ebfffef3 	bl	a4ec <rpi_reset_putc>
    a91c:	e59f018c 	ldr	r0, [pc, #396]	; aab0 <va_printk+0x2c4>
    a920:	e59f1180 	ldr	r1, [pc, #384]	; aaa8 <va_printk+0x2bc>
    a924:	e59f2180 	ldr	r2, [pc, #384]	; aaac <va_printk+0x2c0>
    a928:	e3a0309b 	mov	r3, #155	; 0x9b
    a92c:	ebfffed3 	bl	a480 <printk>
    a930:	eb000062 	bl	aac0 <clean_reboot>
    a934:	e59a3000 	ldr	r3, [sl]
    a938:	e28aa004 	add	sl, sl, #4
    a93c:	e58d7000 	str	r7, [sp]
    a940:	e3a02001 	mov	r2, #1
    a944:	e58d2004 	str	r2, [sp, #4]
    a948:	e3a0000a 	mov	r0, #10
    a94c:	e28d1010 	add	r1, sp, #16
    a950:	e3a02080 	mov	r2, #128	; 0x80
    a954:	ebffff1b 	bl	a5c8 <emit>
    a958:	ea00003b 	b	aa4c <va_printk+0x260>
    a95c:	e59a3000 	ldr	r3, [sl]
    a960:	e28aa004 	add	sl, sl, #4
    a964:	e58d7000 	str	r7, [sp]
    a968:	e3a02000 	mov	r2, #0
    a96c:	e58d2004 	str	r2, [sp, #4]
    a970:	e3a0000a 	mov	r0, #10
    a974:	e28d1010 	add	r1, sp, #16
    a978:	e3a02080 	mov	r2, #128	; 0x80
    a97c:	ebffff11 	bl	a5c8 <emit>
    a980:	ea000031 	b	aa4c <va_printk+0x260>
    a984:	e59a3000 	ldr	r3, [sl]
    a988:	e28aa004 	add	sl, sl, #4
    a98c:	e58d7000 	str	r7, [sp]
    a990:	e3a02000 	mov	r2, #0
    a994:	e58d2004 	str	r2, [sp, #4]
    a998:	e3a00010 	mov	r0, #16
    a99c:	e08d1000 	add	r1, sp, r0
    a9a0:	e3a02080 	mov	r2, #128	; 0x80
    a9a4:	ebffff07 	bl	a5c8 <emit>
    a9a8:	ea000027 	b	aa4c <va_printk+0x260>
    a9ac:	e59a3000 	ldr	r3, [sl]
    a9b0:	e28aa004 	add	sl, sl, #4
    a9b4:	e58d7000 	str	r7, [sp]
    a9b8:	e3a02000 	mov	r2, #0
    a9bc:	e58d2004 	str	r2, [sp, #4]
    a9c0:	e3a00002 	mov	r0, #2
    a9c4:	e28d1010 	add	r1, sp, #16
    a9c8:	e3a02080 	mov	r2, #128	; 0x80
    a9cc:	ebfffefd 	bl	a5c8 <emit>
    a9d0:	ea00001d 	b	aa4c <va_printk+0x260>
    a9d4:	e59a0000 	ldr	r0, [sl]
    a9d8:	e28aa004 	add	sl, sl, #4
    a9dc:	ea00001a 	b	aa4c <va_printk+0x260>
    a9e0:	e59a3000 	ldr	r3, [sl]
    a9e4:	e28aa004 	add	sl, sl, #4
    a9e8:	e58d7000 	str	r7, [sp]
    a9ec:	e3a02000 	mov	r2, #0
    a9f0:	e58d2004 	str	r2, [sp, #4]
    a9f4:	e3a00008 	mov	r0, #8
    a9f8:	e28d1010 	add	r1, sp, #16
    a9fc:	e3a02080 	mov	r2, #128	; 0x80
    aa00:	ebfffef0 	bl	a5c8 <emit>
    aa04:	ea000010 	b	aa4c <va_printk+0x260>
    aa08:	e3a03000 	mov	r3, #0
    aa0c:	e5c63001 	strb	r3, [r6, #1]
    aa10:	e59f009c 	ldr	r0, [pc, #156]	; aab4 <va_printk+0x2c8>
    aa14:	e1a01009 	mov	r1, r9
    aa18:	e1a02009 	mov	r2, r9
    aa1c:	ebfffe97 	bl	a480 <printk>
    aa20:	e59f3090 	ldr	r3, [pc, #144]	; aab8 <va_printk+0x2cc>
    aa24:	e5933000 	ldr	r3, [r3]
    aa28:	e59d000c 	ldr	r0, [sp, #12]
    aa2c:	e12fff33 	blx	r3
    aa30:	ebfffead 	bl	a4ec <rpi_reset_putc>
    aa34:	e59f0080 	ldr	r0, [pc, #128]	; aabc <va_printk+0x2d0>
    aa38:	e59f1068 	ldr	r1, [pc, #104]	; aaa8 <va_printk+0x2bc>
    aa3c:	e59f2068 	ldr	r2, [pc, #104]	; aaac <va_printk+0x2c0>
    aa40:	e3a030bf 	mov	r3, #191	; 0xbf
    aa44:	ebfffe8d 	bl	a480 <printk>
    aa48:	eb00001c 	bl	aac0 <clean_reboot>
    aa4c:	e2866001 	add	r6, r6, #1
    aa50:	ea000002 	b	aa60 <va_printk+0x274>
    aa54:	e2800001 	add	r0, r0, #1
    aa58:	e5c43000 	strb	r3, [r4]
    aa5c:	e2844001 	add	r4, r4, #1
    aa60:	e1540008 	cmp	r4, r8
    aa64:	2a000002 	bcs	aa74 <va_printk+0x288>
    aa68:	e5d03000 	ldrb	r3, [r0]
    aa6c:	e3530000 	cmp	r3, #0
    aa70:	1afffff7 	bne	aa54 <va_printk+0x268>
    aa74:	e5d63000 	ldrb	r3, [r6]
    aa78:	e3530000 	cmp	r3, #0
    aa7c:	0a000001 	beq	aa88 <va_printk+0x29c>
    aa80:	e1540008 	cmp	r4, r8
    aa84:	3affff64 	bcc	a81c <va_printk+0x30>
    aa88:	e2840001 	add	r0, r4, #1
    aa8c:	e3a03000 	mov	r3, #0
    aa90:	e5c43000 	strb	r3, [r4]
    aa94:	e06b0000 	rsb	r0, fp, r0
    aa98:	e28dd094 	add	sp, sp, #148	; 0x94
    aa9c:	e8bd8ff0 	pop	{r4, r5, r6, r7, r8, r9, sl, fp, pc}
    aaa0:	0000c290 	muleq	r0, r0, r2
    aaa4:	0000b2bc 			; <UNDEFINED> instruction: 0x0000b2bc
    aaa8:	0000c250 	andeq	ip, r0, r0, asr r2
    aaac:	0000c244 	andeq	ip, r0, r4, asr #4
    aab0:	0000c29c 	muleq	r0, ip, r2
    aab4:	0000c2c4 	andeq	ip, r0, r4, asr #5
    aab8:	0000b24c 	andeq	fp, r0, ip, asr #4
    aabc:	0000c2f4 	strdeq	ip, [r0], -r4

0000aac0 <clean_reboot>:
    aac0:	e92d4008 	push	{r3, lr}
    aac4:	eb00005b 	bl	ac38 <reboot_handler>
    aac8:	e59f3014 	ldr	r3, [pc, #20]	; aae4 <clean_reboot+0x24>
    aacc:	e5933000 	ldr	r3, [r3]
    aad0:	e59f0010 	ldr	r0, [pc, #16]	; aae8 <clean_reboot+0x28>
    aad4:	e12fff33 	blx	r3
    aad8:	e3a00064 	mov	r0, #100	; 0x64
    aadc:	eb0000aa 	bl	ad8c <delay_ms>
    aae0:	eb00007b 	bl	acd4 <rpi_reboot>
    aae4:	0000b24c 	andeq	fp, r0, ip, asr #4
    aae8:	0000c314 	andeq	ip, r0, r4, lsl r3

0000aaec <_cstart>:
    aaec:	e92d4008 	push	{r3, lr}
    aaf0:	e59f3024 	ldr	r3, [pc, #36]	; ab1c <_cstart+0x30>
    aaf4:	e59f2024 	ldr	r2, [pc, #36]	; ab20 <_cstart+0x34>
    aaf8:	e3a01000 	mov	r1, #0
    aafc:	ea000001 	b	ab08 <_cstart+0x1c>
    ab00:	e5831000 	str	r1, [r3]
    ab04:	e2833004 	add	r3, r3, #4
    ab08:	e1530002 	cmp	r3, r2
    ab0c:	3afffffb 	bcc	ab00 <_cstart+0x14>
    ab10:	eb000047 	bl	ac34 <cstart_handler>
    ab14:	ebfff5a8 	bl	81bc <notmain>
    ab18:	ebffffe8 	bl	aac0 <clean_reboot>
    ab1c:	0000c5a8 	andeq	ip, r0, r8, lsr #11
    ab20:	0000c9c8 	andeq	ip, r0, r8, asr #19

0000ab24 <fast_interrupt_vector>:
    ab24:	e52de004 	push	{lr}		; (str lr, [sp, #-4]!)
    ab28:	e24dd00c 	sub	sp, sp, #12
    ab2c:	e1a04000 	mov	r4, r0
    ab30:	ebfffe6d 	bl	a4ec <rpi_reset_putc>
    ab34:	e59f301c 	ldr	r3, [pc, #28]	; ab58 <fast_interrupt_vector+0x34>
    ab38:	e58d3000 	str	r3, [sp]
    ab3c:	e58d4004 	str	r4, [sp, #4]
    ab40:	e59f0014 	ldr	r0, [pc, #20]	; ab5c <fast_interrupt_vector+0x38>
    ab44:	e59f1014 	ldr	r1, [pc, #20]	; ab60 <fast_interrupt_vector+0x3c>
    ab48:	e59f2014 	ldr	r2, [pc, #20]	; ab64 <fast_interrupt_vector+0x40>
    ab4c:	e3a03002 	mov	r3, #2
    ab50:	ebfffe4a 	bl	a480 <printk>
    ab54:	ebffffd9 	bl	aac0 <clean_reboot>
    ab58:	0000c398 	muleq	r0, r8, r3
    ab5c:	0000c338 	andeq	ip, r0, r8, lsr r3
    ab60:	0000c374 	andeq	ip, r0, r4, ror r3
    ab64:	0000c320 	andeq	ip, r0, r0, lsr #6

0000ab68 <prefetch_abort_vector>:
    ab68:	e52de004 	push	{lr}		; (str lr, [sp, #-4]!)
    ab6c:	e24dd00c 	sub	sp, sp, #12
    ab70:	e1a04000 	mov	r4, r0
    ab74:	ebfffe5c 	bl	a4ec <rpi_reset_putc>
    ab78:	e59f301c 	ldr	r3, [pc, #28]	; ab9c <prefetch_abort_vector+0x34>
    ab7c:	e58d3000 	str	r3, [sp]
    ab80:	e58d4004 	str	r4, [sp, #4]
    ab84:	e59f0014 	ldr	r0, [pc, #20]	; aba0 <prefetch_abort_vector+0x38>
    ab88:	e59f1014 	ldr	r1, [pc, #20]	; aba4 <prefetch_abort_vector+0x3c>
    ab8c:	e59f2014 	ldr	r2, [pc, #20]	; aba8 <prefetch_abort_vector+0x40>
    ab90:	e3a03002 	mov	r3, #2
    ab94:	ebfffe39 	bl	a480 <printk>
    ab98:	ebffffc8 	bl	aac0 <clean_reboot>
    ab9c:	0000c3e0 	andeq	ip, r0, r0, ror #7
    aba0:	0000c338 	andeq	ip, r0, r8, lsr r3
    aba4:	0000c3b8 			; <UNDEFINED> instruction: 0x0000c3b8
    aba8:	0000c3a0 	andeq	ip, r0, r0, lsr #7

0000abac <reset_vector>:
    abac:	e52de004 	push	{lr}		; (str lr, [sp, #-4]!)
    abb0:	e24dd00c 	sub	sp, sp, #12
    abb4:	e1a04000 	mov	r4, r0
    abb8:	ebfffe4b 	bl	a4ec <rpi_reset_putc>
    abbc:	e59f301c 	ldr	r3, [pc, #28]	; abe0 <reset_vector+0x34>
    abc0:	e58d3000 	str	r3, [sp]
    abc4:	e58d4004 	str	r4, [sp, #4]
    abc8:	e59f0014 	ldr	r0, [pc, #20]	; abe4 <reset_vector+0x38>
    abcc:	e59f1014 	ldr	r1, [pc, #20]	; abe8 <reset_vector+0x3c>
    abd0:	e59f2014 	ldr	r2, [pc, #20]	; abec <reset_vector+0x40>
    abd4:	e3a03002 	mov	r3, #2
    abd8:	ebfffe28 	bl	a480 <printk>
    abdc:	ebffffb7 	bl	aac0 <clean_reboot>
    abe0:	0000c424 	andeq	ip, r0, r4, lsr #8
    abe4:	0000c338 	andeq	ip, r0, r8, lsr r3
    abe8:	0000c400 	andeq	ip, r0, r0, lsl #8
    abec:	0000c3f0 	strdeq	ip, [r0], -r0

0000abf0 <undefined_instruction_vector>:
    abf0:	e52de004 	push	{lr}		; (str lr, [sp, #-4]!)
    abf4:	e24dd00c 	sub	sp, sp, #12
    abf8:	e1a04000 	mov	r4, r0
    abfc:	ebfffe3a 	bl	a4ec <rpi_reset_putc>
    ac00:	e59f301c 	ldr	r3, [pc, #28]	; ac24 <undefined_instruction_vector+0x34>
    ac04:	e58d3000 	str	r3, [sp]
    ac08:	e58d4004 	str	r4, [sp, #4]
    ac0c:	e59f0014 	ldr	r0, [pc, #20]	; ac28 <undefined_instruction_vector+0x38>
    ac10:	e59f1014 	ldr	r1, [pc, #20]	; ac2c <undefined_instruction_vector+0x3c>
    ac14:	e59f2014 	ldr	r2, [pc, #20]	; ac30 <undefined_instruction_vector+0x40>
    ac18:	e3a03002 	mov	r3, #2
    ac1c:	ebfffe17 	bl	a480 <printk>
    ac20:	ebffffa6 	bl	aac0 <clean_reboot>
    ac24:	0000c478 	andeq	ip, r0, r8, ror r4
    ac28:	0000c338 	andeq	ip, r0, r8, lsr r3
    ac2c:	0000c44c 	andeq	ip, r0, ip, asr #8
    ac30:	0000c42c 	andeq	ip, r0, ip, lsr #8

0000ac34 <cstart_handler>:
    ac34:	e12fff1e 	bx	lr

0000ac38 <reboot_handler>:
    ac38:	e12fff1e 	bx	lr

0000ac3c <int_init>:
    ac3c:	e92d4008 	push	{r3, lr}
    ac40:	eb00005b 	bl	adb4 <dev_barrier>
    ac44:	e59f004c 	ldr	r0, [pc, #76]	; ac98 <int_init+0x5c>
    ac48:	e3e01000 	mvn	r1, #0
    ac4c:	eb000060 	bl	add4 <PUT32>
    ac50:	e59f0044 	ldr	r0, [pc, #68]	; ac9c <int_init+0x60>
    ac54:	e3e01000 	mvn	r1, #0
    ac58:	eb00005d 	bl	add4 <PUT32>
    ac5c:	eb000054 	bl	adb4 <dev_barrier>
    ac60:	e59f3038 	ldr	r3, [pc, #56]	; aca0 <int_init+0x64>
    ac64:	e59f0038 	ldr	r0, [pc, #56]	; aca4 <int_init+0x68>
    ac68:	e0630000 	rsb	r0, r3, r0
    ac6c:	e1a00140 	asr	r0, r0, #2
    ac70:	e3a03000 	mov	r3, #0
    ac74:	e59fc024 	ldr	ip, [pc, #36]	; aca0 <int_init+0x64>
    ac78:	ea000003 	b	ac8c <int_init+0x50>
    ac7c:	e1a02103 	lsl	r2, r3, #2
    ac80:	e79c1103 	ldr	r1, [ip, r3, lsl #2]
    ac84:	e5821000 	str	r1, [r2]
    ac88:	e2833001 	add	r3, r3, #1
    ac8c:	e1530000 	cmp	r3, r0
    ac90:	3afffff9 	bcc	ac7c <int_init+0x40>
    ac94:	e8bd8008 	pop	{r3, pc}
    ac98:	2000b21c 	andcs	fp, r0, ip, lsl r2
    ac9c:	2000b220 	andcs	fp, r0, r0, lsr #4
    aca0:	00008258 	andeq	r8, r0, r8, asr r2
    aca4:	00008298 	muleq	r0, r8, r2

0000aca8 <at_user_level>:
    aca8:	e10f0000 	mrs	r0, CPSR
    acac:	e200001f 	and	r0, r0, #31
    acb0:	e3500010 	cmp	r0, #16
    acb4:	13a00000 	movne	r0, #0
    acb8:	03a00001 	moveq	r0, #1
    acbc:	e12fff1e 	bx	lr

0000acc0 <set_user_level>:
    acc0:	e10f3000 	mrs	r3, CPSR
    acc4:	e3c3301f 	bic	r3, r3, #31
    acc8:	e3833010 	orr	r3, r3, #16
    accc:	e129f003 	msr	CPSR_fc, r3
    acd0:	e12fff1e 	bx	lr

0000acd4 <rpi_reboot>:
    acd4:	e92d4008 	push	{r3, lr}
    acd8:	ebfffff2 	bl	aca8 <at_user_level>
    acdc:	e3500000 	cmp	r0, #0
    ace0:	0a000000 	beq	ace8 <rpi_reboot+0x14>
    ace4:	ebfffff5 	bl	acc0 <set_user_level>
    ace8:	e3a0001e 	mov	r0, #30
    acec:	eb000026 	bl	ad8c <delay_ms>
    acf0:	e59f0014 	ldr	r0, [pc, #20]	; ad0c <rpi_reboot+0x38>
    acf4:	e59f1014 	ldr	r1, [pc, #20]	; ad10 <rpi_reboot+0x3c>
    acf8:	eb000035 	bl	add4 <PUT32>
    acfc:	e59f0010 	ldr	r0, [pc, #16]	; ad14 <rpi_reboot+0x40>
    ad00:	e59f1010 	ldr	r1, [pc, #16]	; ad18 <rpi_reboot+0x44>
    ad04:	eb000032 	bl	add4 <PUT32>
    ad08:	eafffffe 	b	ad08 <rpi_reboot+0x34>
    ad0c:	20100024 	andscs	r0, r0, r4, lsr #32
    ad10:	5a000001 	bpl	ad1c <delay_cycles>
    ad14:	2010001c 	andscs	r0, r0, ip, lsl r0
    ad18:	5a000020 	bpl	ada0 <delay_sec>

0000ad1c <delay_cycles>:
    ad1c:	ea000001 	b	ad28 <delay_cycles+0xc>
    ad20:	e2811000 	add	r1, r1, #0
    ad24:	e1a00003 	mov	r0, r3
    ad28:	e2403001 	sub	r3, r0, #1
    ad2c:	e3500000 	cmp	r0, #0
    ad30:	1afffffa 	bne	ad20 <delay_cycles+0x4>
    ad34:	e12fff1e 	bx	lr

0000ad38 <timer_get_usec_raw>:
    ad38:	e92d4008 	push	{r3, lr}
    ad3c:	e59f0004 	ldr	r0, [pc, #4]	; ad48 <timer_get_usec_raw+0x10>
    ad40:	eb00002f 	bl	ae04 <GET32>
    ad44:	e8bd8008 	pop	{r3, pc}
    ad48:	20003004 	andcs	r3, r0, r4

0000ad4c <timer_get_usec>:
    ad4c:	e92d4010 	push	{r4, lr}
    ad50:	eb000017 	bl	adb4 <dev_barrier>
    ad54:	ebfffff7 	bl	ad38 <timer_get_usec_raw>
    ad58:	e1a04000 	mov	r4, r0
    ad5c:	eb000014 	bl	adb4 <dev_barrier>
    ad60:	e1a00004 	mov	r0, r4
    ad64:	e8bd8010 	pop	{r4, pc}

0000ad68 <delay_us>:
    ad68:	e92d4038 	push	{r3, r4, r5, lr}
    ad6c:	e1a05000 	mov	r5, r0
    ad70:	ebfffff5 	bl	ad4c <timer_get_usec>
    ad74:	e1a04000 	mov	r4, r0
    ad78:	ebfffff3 	bl	ad4c <timer_get_usec>
    ad7c:	e0640000 	rsb	r0, r4, r0
    ad80:	e1500005 	cmp	r0, r5
    ad84:	3afffffb 	bcc	ad78 <delay_us+0x10>
    ad88:	e8bd8038 	pop	{r3, r4, r5, pc}

0000ad8c <delay_ms>:
    ad8c:	e92d4008 	push	{r3, lr}
    ad90:	e3a03ffa 	mov	r3, #1000	; 0x3e8
    ad94:	e0000093 	mul	r0, r3, r0
    ad98:	ebfffff2 	bl	ad68 <delay_us>
    ad9c:	e8bd8008 	pop	{r3, pc}

0000ada0 <delay_sec>:
    ada0:	e92d4008 	push	{r3, lr}
    ada4:	e3a03ffa 	mov	r3, #1000	; 0x3e8
    ada8:	e0000093 	mul	r0, r3, r0
    adac:	ebfffff6 	bl	ad8c <delay_ms>
    adb0:	e8bd8008 	pop	{r3, pc}

0000adb4 <dev_barrier>:
    adb4:	ea000002 	b	adc4 <dsb>

0000adb8 <dmb>:
    adb8:	e3a00000 	mov	r0, #0
    adbc:	ee070fba 	mcr	15, 0, r0, cr7, cr10, {5}
    adc0:	e12fff1e 	bx	lr

0000adc4 <dsb>:
    adc4:	ee070f9a 	mcr	15, 0, r0, cr7, cr10, {4}
    adc8:	e12fff1e 	bx	lr

0000adcc <put32>:
    adcc:	e5801000 	str	r1, [r0]
    add0:	e12fff1e 	bx	lr

0000add4 <PUT32>:
    add4:	e5801000 	str	r1, [r0]
    add8:	e12fff1e 	bx	lr

0000addc <put16>:
    addc:	e1c010b0 	strh	r1, [r0]
    ade0:	e12fff1e 	bx	lr

0000ade4 <PUT16>:
    ade4:	e1c010b0 	strh	r1, [r0]
    ade8:	e12fff1e 	bx	lr

0000adec <put8>:
    adec:	e5c01000 	strb	r1, [r0]
    adf0:	e12fff1e 	bx	lr

0000adf4 <PUT8>:
    adf4:	e5c01000 	strb	r1, [r0]
    adf8:	e12fff1e 	bx	lr

0000adfc <get32>:
    adfc:	e5900000 	ldr	r0, [r0]
    ae00:	e12fff1e 	bx	lr

0000ae04 <GET32>:
    ae04:	e5900000 	ldr	r0, [r0]
    ae08:	e12fff1e 	bx	lr

0000ae0c <GETPC>:
    ae0c:	e1a0000e 	mov	r0, lr
    ae10:	e12fff1e 	bx	lr

0000ae14 <dummy>:
    ae14:	e12fff1e 	bx	lr

0000ae18 <or_in32>:
    ae18:	e92d4070 	push	{r4, r5, r6, lr}
    ae1c:	e1a04000 	mov	r4, r0
    ae20:	e1a05001 	mov	r5, r1
    ae24:	ebfffff4 	bl	adfc <get32>
    ae28:	e1801005 	orr	r1, r0, r5
    ae2c:	e1a00004 	mov	r0, r4
    ae30:	ebffffe5 	bl	adcc <put32>
    ae34:	e8bd8070 	pop	{r4, r5, r6, pc}

0000ae38 <uart_init>:
    ae38:	e92d4010 	push	{r4, lr}
    ae3c:	e3a01002 	mov	r1, #2
    ae40:	e3a0000e 	mov	r0, #14
    ae44:	eb000051 	bl	af90 <gpio_set_function>
    ae48:	e3a01002 	mov	r1, #2
    ae4c:	e3a0000f 	mov	r0, #15
    ae50:	eb00004e 	bl	af90 <gpio_set_function>
    ae54:	ebffffd6 	bl	adb4 <dev_barrier>
    ae58:	e3a01001 	mov	r1, #1
    ae5c:	e59f0064 	ldr	r0, [pc, #100]	; aec8 <uart_init+0x90>
    ae60:	ebffffec 	bl	ae18 <or_in32>
    ae64:	ebffffd2 	bl	adb4 <dev_barrier>
    ae68:	e59f405c 	ldr	r4, [pc, #92]	; aecc <uart_init+0x94>
    ae6c:	e3a01000 	mov	r1, #0
    ae70:	e1a00004 	mov	r0, r4
    ae74:	ebffffd4 	bl	adcc <put32>
    ae78:	e3a01000 	mov	r1, #0
    ae7c:	e59f004c 	ldr	r0, [pc, #76]	; aed0 <uart_init+0x98>
    ae80:	ebffffd1 	bl	adcc <put32>
    ae84:	e3a01003 	mov	r1, #3
    ae88:	e59f0044 	ldr	r0, [pc, #68]	; aed4 <uart_init+0x9c>
    ae8c:	ebffffce 	bl	adcc <put32>
    ae90:	e3a01000 	mov	r1, #0
    ae94:	e59f003c 	ldr	r0, [pc, #60]	; aed8 <uart_init+0xa0>
    ae98:	ebffffcb 	bl	adcc <put32>
    ae9c:	e3a010c7 	mov	r1, #199	; 0xc7
    aea0:	e59f0034 	ldr	r0, [pc, #52]	; aedc <uart_init+0xa4>
    aea4:	ebffffc8 	bl	adcc <put32>
    aea8:	e59f1030 	ldr	r1, [pc, #48]	; aee0 <uart_init+0xa8>
    aeac:	e59f0030 	ldr	r0, [pc, #48]	; aee4 <uart_init+0xac>
    aeb0:	ebffffc5 	bl	adcc <put32>
    aeb4:	e3a01003 	mov	r1, #3
    aeb8:	e1a00004 	mov	r0, r4
    aebc:	ebffffc2 	bl	adcc <put32>
    aec0:	ebffffbb 	bl	adb4 <dev_barrier>
    aec4:	e8bd8010 	pop	{r4, pc}
    aec8:	20215004 	eorcs	r5, r1, r4
    aecc:	20215060 	eorcs	r5, r1, r0, rrx
    aed0:	20215044 	eorcs	r5, r1, r4, asr #32
    aed4:	2021504c 	eorcs	r5, r1, ip, asr #32
    aed8:	20215050 	eorcs	r5, r1, r0, asr r0
    aedc:	20215048 	eorcs	r5, r1, r8, asr #32
    aee0:	0000010e 	andeq	r0, r0, lr, lsl #2
    aee4:	20215068 	eorcs	r5, r1, r8, rrx

0000aee8 <uart_can_getc>:
    aee8:	e92d4010 	push	{r4, lr}
    aeec:	e59f0008 	ldr	r0, [pc, #8]	; aefc <uart_can_getc+0x14>
    aef0:	ebffffc1 	bl	adfc <get32>
    aef4:	e2000001 	and	r0, r0, #1
    aef8:	e8bd8010 	pop	{r4, pc}
    aefc:	20215064 	eorcs	r5, r1, r4, rrx

0000af00 <uart_can_putc>:
    af00:	e92d4010 	push	{r4, lr}
    af04:	e59f0010 	ldr	r0, [pc, #16]	; af1c <uart_can_putc+0x1c>
    af08:	ebffffbb 	bl	adfc <get32>
    af0c:	e3100002 	tst	r0, #2
    af10:	13a00001 	movne	r0, #1
    af14:	03a00000 	moveq	r0, #0
    af18:	e8bd8010 	pop	{r4, pc}
    af1c:	20215064 	eorcs	r5, r1, r4, rrx

0000af20 <uart_getc>:
    af20:	e92d4010 	push	{r4, lr}
    af24:	ebffffa2 	bl	adb4 <dev_barrier>
    af28:	ebffffee 	bl	aee8 <uart_can_getc>
    af2c:	e3500000 	cmp	r0, #0
    af30:	0afffffc 	beq	af28 <uart_getc+0x8>
    af34:	e59f0010 	ldr	r0, [pc, #16]	; af4c <uart_getc+0x2c>
    af38:	ebffffaf 	bl	adfc <get32>
    af3c:	e6ef4070 	uxtb	r4, r0
    af40:	ebffff9b 	bl	adb4 <dev_barrier>
    af44:	e1a00004 	mov	r0, r4
    af48:	e8bd8010 	pop	{r4, pc}
    af4c:	20215040 	eorcs	r5, r1, r0, asr #32

0000af50 <uart_putc>:
    af50:	e92d4010 	push	{r4, lr}
    af54:	e1a04000 	mov	r4, r0
    af58:	ebffff95 	bl	adb4 <dev_barrier>
    af5c:	ebffffe7 	bl	af00 <uart_can_putc>
    af60:	e3500000 	cmp	r0, #0
    af64:	0afffffc 	beq	af5c <uart_putc+0xc>
    af68:	e6ef1074 	uxtb	r1, r4
    af6c:	e59f0008 	ldr	r0, [pc, #8]	; af7c <uart_putc+0x2c>
    af70:	ebffff95 	bl	adcc <put32>
    af74:	ebffff8e 	bl	adb4 <dev_barrier>
    af78:	e8bd8010 	pop	{r4, pc}
    af7c:	20215040 	eorcs	r5, r1, r0, asr #32

0000af80 <uart_has_data>:
    af80:	e92d4010 	push	{r4, lr}
    af84:	ebffff8a 	bl	adb4 <dev_barrier>
    af88:	ebffffd6 	bl	aee8 <uart_can_getc>
    af8c:	e8bd8010 	pop	{r4, pc}

0000af90 <gpio_set_function>:
    af90:	e350001f 	cmp	r0, #31
    af94:	812fff1e 	bxhi	lr
    af98:	e3d13007 	bics	r3, r1, #7
    af9c:	112fff1e 	bxne	lr
    afa0:	e92d4070 	push	{r4, r5, r6, lr}
    afa4:	e1a05001 	mov	r5, r1
    afa8:	e59f3044 	ldr	r3, [pc, #68]	; aff4 <gpio_set_function+0x64>
    afac:	e0832093 	umull	r2, r3, r3, r0
    afb0:	e1a031a3 	lsr	r3, r3, #3
    afb4:	e1a06003 	mov	r6, r3
    afb8:	e0833103 	add	r3, r3, r3, lsl #2
    afbc:	e1a02083 	lsl	r2, r3, #1
    afc0:	e0403002 	sub	r3, r0, r2
    afc4:	e0834083 	add	r4, r3, r3, lsl #1
    afc8:	e2866302 	add	r6, r6, #134217728	; 0x8000000
    afcc:	e2866702 	add	r6, r6, #524288	; 0x80000
    afd0:	e1a06106 	lsl	r6, r6, #2
    afd4:	e1a00006 	mov	r0, r6
    afd8:	ebffff89 	bl	ae04 <GET32>
    afdc:	e3a01007 	mov	r1, #7
    afe0:	e1c01411 	bic	r1, r0, r1, lsl r4
    afe4:	e1811415 	orr	r1, r1, r5, lsl r4
    afe8:	e1a00006 	mov	r0, r6
    afec:	ebffff78 	bl	add4 <PUT32>
    aff0:	e8bd8070 	pop	{r4, r5, r6, pc}
    aff4:	cccccccd 	stclgt	12, cr12, [ip], {205}	; 0xcd

0000aff8 <gpio_set_output>:
    aff8:	e92d4010 	push	{r4, lr}
    affc:	e3a01001 	mov	r1, #1
    b000:	ebffffe2 	bl	af90 <gpio_set_function>
    b004:	e8bd8010 	pop	{r4, pc}

0000b008 <gpio_set_on>:
    b008:	e350001f 	cmp	r0, #31
    b00c:	812fff1e 	bxhi	lr
    b010:	e92d4010 	push	{r4, lr}
    b014:	e3a01001 	mov	r1, #1
    b018:	e1a01011 	lsl	r1, r1, r0
    b01c:	e59f0004 	ldr	r0, [pc, #4]	; b028 <gpio_set_on+0x20>
    b020:	ebffff6b 	bl	add4 <PUT32>
    b024:	e8bd8010 	pop	{r4, pc}
    b028:	2020001c 	eorcs	r0, r0, ip, lsl r0

0000b02c <gpio_set_off>:
    b02c:	e350001f 	cmp	r0, #31
    b030:	812fff1e 	bxhi	lr
    b034:	e92d4010 	push	{r4, lr}
    b038:	e3a01001 	mov	r1, #1
    b03c:	e1a01011 	lsl	r1, r1, r0
    b040:	e59f0004 	ldr	r0, [pc, #4]	; b04c <gpio_set_off+0x20>
    b044:	ebffff62 	bl	add4 <PUT32>
    b048:	e8bd8010 	pop	{r4, pc}
    b04c:	20200028 	eorcs	r0, r0, r8, lsr #32

0000b050 <gpio_set_input>:
    b050:	e92d4010 	push	{r4, lr}
    b054:	e3a01000 	mov	r1, #0
    b058:	ebffffcc 	bl	af90 <gpio_set_function>
    b05c:	e8bd8010 	pop	{r4, pc}

0000b060 <gpio_write>:
    b060:	e92d4010 	push	{r4, lr}
    b064:	e3510000 	cmp	r1, #0
    b068:	1a000001 	bne	b074 <gpio_write+0x14>
    b06c:	ebffffee 	bl	b02c <gpio_set_off>
    b070:	e8bd8010 	pop	{r4, pc}
    b074:	ebffffe3 	bl	b008 <gpio_set_on>
    b078:	e8bd8010 	pop	{r4, pc}

0000b07c <gpio_read>:
    b07c:	e350001f 	cmp	r0, #31
    b080:	8a000007 	bhi	b0a4 <gpio_read+0x28>
    b084:	e92d4010 	push	{r4, lr}
    b088:	e200401f 	and	r4, r0, #31
    b08c:	e59f3018 	ldr	r3, [pc, #24]	; b0ac <gpio_read+0x30>
    b090:	e08302a0 	add	r0, r3, r0, lsr #5
    b094:	ebffff5a 	bl	ae04 <GET32>
    b098:	e1a00430 	lsr	r0, r0, r4
    b09c:	e2000001 	and	r0, r0, #1
    b0a0:	e8bd8010 	pop	{r4, pc}
    b0a4:	e3e00000 	mvn	r0, #0
    b0a8:	e12fff1e 	bx	lr
    b0ac:	20200034 	eorcs	r0, r0, r4, lsr r0

0000b0b0 <kmalloc_heap_end>:
    b0b0:	e59f3004 	ldr	r3, [pc, #4]	; b0bc <kmalloc_heap_end+0xc>
    b0b4:	e5930000 	ldr	r0, [r3]
    b0b8:	e12fff1e 	bx	lr
    b0bc:	0000b250 	andeq	fp, r0, r0, asr r2

0000b0c0 <kmalloc_heap_start>:
    b0c0:	e59f0000 	ldr	r0, [pc]	; b0c8 <kmalloc_heap_start+0x8>
    b0c4:	e12fff1e 	bx	lr
    b0c8:	0000c9c8 	andeq	ip, r0, r8, asr #19

0000b0cc <kmalloc_init_set_start>:
    b0cc:	e59f3038 	ldr	r3, [pc, #56]	; b10c <kmalloc_init_set_start+0x40>
    b0d0:	e5933000 	ldr	r3, [r3]
    b0d4:	e1500003 	cmp	r0, r3
    b0d8:	9a000003 	bls	b0ec <kmalloc_init_set_start+0x20>
    b0dc:	e59f3028 	ldr	r3, [pc, #40]	; b10c <kmalloc_init_set_start+0x40>
    b0e0:	e5830000 	str	r0, [r3]
    b0e4:	e5830004 	str	r0, [r3, #4]
    b0e8:	e12fff1e 	bx	lr
    b0ec:	e92d4010 	push	{r4, lr}
    b0f0:	ebfffcfd 	bl	a4ec <rpi_reset_putc>
    b0f4:	e3a03016 	mov	r3, #22
    b0f8:	e59f2010 	ldr	r2, [pc, #16]	; b110 <kmalloc_init_set_start+0x44>
    b0fc:	e59f1010 	ldr	r1, [pc, #16]	; b114 <kmalloc_init_set_start+0x48>
    b100:	e59f0010 	ldr	r0, [pc, #16]	; b118 <kmalloc_init_set_start+0x4c>
    b104:	ebfffcdd 	bl	a480 <printk>
    b108:	ebfffe6c 	bl	aac0 <clean_reboot>
    b10c:	0000b250 	andeq	fp, r0, r0, asr r2
    b110:	0000c488 	andeq	ip, r0, r8, lsl #9
    b114:	0000c4b8 			; <UNDEFINED> instruction: 0x0000c4b8
    b118:	0000c4c4 	andeq	ip, r0, r4, asr #9

0000b11c <kmalloc>:
    b11c:	e92d4010 	push	{r4, lr}
    b120:	e3500000 	cmp	r0, #0
    b124:	0a00000a 	beq	b154 <kmalloc+0x38>
    b128:	e2802007 	add	r2, r0, #7
    b12c:	e3c22007 	bic	r2, r2, #7
    b130:	e59f3038 	ldr	r3, [pc, #56]	; b170 <kmalloc+0x54>
    b134:	e5934000 	ldr	r4, [r3]
    b138:	e0841002 	add	r1, r4, r2
    b13c:	e5831000 	str	r1, [r3]
    b140:	e3a01000 	mov	r1, #0
    b144:	e1a00004 	mov	r0, r4
    b148:	ebfffcc4 	bl	a460 <memset>
    b14c:	e1a00004 	mov	r0, r4
    b150:	e8bd8010 	pop	{r4, pc}
    b154:	ebfffce4 	bl	a4ec <rpi_reset_putc>
    b158:	e3a0301b 	mov	r3, #27
    b15c:	e59f2010 	ldr	r2, [pc, #16]	; b174 <kmalloc+0x58>
    b160:	e59f1010 	ldr	r1, [pc, #16]	; b178 <kmalloc+0x5c>
    b164:	e59f0010 	ldr	r0, [pc, #16]	; b17c <kmalloc+0x60>
    b168:	ebfffcc4 	bl	a480 <printk>
    b16c:	ebfffe53 	bl	aac0 <clean_reboot>
    b170:	0000b250 	andeq	fp, r0, r0, asr r2
    b174:	0000c4a0 	andeq	ip, r0, r0, lsr #9
    b178:	0000c4b8 			; <UNDEFINED> instruction: 0x0000c4b8
    b17c:	0000c4e0 	andeq	ip, r0, r0, ror #9

0000b180 <kmalloc_init>:
    b180:	e12fff1e 	bx	lr

0000b184 <kmalloc_heap_ptr>:
    b184:	e92d4010 	push	{r4, lr}
    b188:	ebffffcc 	bl	b0c0 <kmalloc_heap_start>
    b18c:	e8bd8010 	pop	{r4, pc}

0000b190 <kmalloc_aligned>:
    b190:	e92d4010 	push	{r4, lr}
    b194:	e2613000 	rsb	r3, r1, #0
    b198:	e1d12003 	bics	r2, r1, r3
    b19c:	1a00000b 	bne	b1d0 <kmalloc_aligned+0x40>
    b1a0:	e59f2060 	ldr	r2, [pc, #96]	; b208 <kmalloc_aligned+0x78>
    b1a4:	e5922000 	ldr	r2, [r2]
    b1a8:	e0812002 	add	r2, r1, r2
    b1ac:	e2422001 	sub	r2, r2, #1
    b1b0:	e0033002 	and	r3, r3, r2
    b1b4:	e2411001 	sub	r1, r1, #1
    b1b8:	e1130001 	tst	r3, r1
    b1bc:	1a00000a 	bne	b1ec <kmalloc_aligned+0x5c>
    b1c0:	e59f2040 	ldr	r2, [pc, #64]	; b208 <kmalloc_aligned+0x78>
    b1c4:	e5823000 	str	r3, [r2]
    b1c8:	ebffffd3 	bl	b11c <kmalloc>
    b1cc:	e8bd8010 	pop	{r4, pc}
    b1d0:	ebfffcc5 	bl	a4ec <rpi_reset_putc>
    b1d4:	e3a0302a 	mov	r3, #42	; 0x2a
    b1d8:	e59f202c 	ldr	r2, [pc, #44]	; b20c <kmalloc_aligned+0x7c>
    b1dc:	e59f102c 	ldr	r1, [pc, #44]	; b210 <kmalloc_aligned+0x80>
    b1e0:	e59f002c 	ldr	r0, [pc, #44]	; b214 <kmalloc_aligned+0x84>
    b1e4:	ebfffca5 	bl	a480 <printk>
    b1e8:	ebfffe34 	bl	aac0 <clean_reboot>
    b1ec:	ebfffcbe 	bl	a4ec <rpi_reset_putc>
    b1f0:	e3a03030 	mov	r3, #48	; 0x30
    b1f4:	e59f2010 	ldr	r2, [pc, #16]	; b20c <kmalloc_aligned+0x7c>
    b1f8:	e59f1010 	ldr	r1, [pc, #16]	; b210 <kmalloc_aligned+0x80>
    b1fc:	e59f0014 	ldr	r0, [pc, #20]	; b218 <kmalloc_aligned+0x88>
    b200:	ebfffc9e 	bl	a480 <printk>
    b204:	ebfffe2d 	bl	aac0 <clean_reboot>
    b208:	0000b250 	andeq	fp, r0, r0, asr r2
    b20c:	0000c4a8 	andeq	ip, r0, r8, lsr #9
    b210:	0000c4b8 			; <UNDEFINED> instruction: 0x0000c4b8
    b214:	0000c4f4 	strdeq	ip, [r0], -r4
    b218:	0000c554 	andeq	ip, r0, r4, asr r5

0000b21c <kfree>:
    b21c:	e12fff1e 	bx	lr

0000b220 <kfree_all>:
    b220:	e59f3008 	ldr	r3, [pc, #8]	; b230 <kfree_all+0x10>
    b224:	e5932004 	ldr	r2, [r3, #4]
    b228:	e5832000 	str	r2, [r3]
    b22c:	e12fff1e 	bx	lr
    b230:	0000b250 	andeq	fp, r0, r0, asr r2

0000b234 <kfree_after>:
    b234:	e59f3004 	ldr	r3, [pc, #4]	; b240 <kfree_after+0xc>
    b238:	e5830000 	str	r0, [r3]
    b23c:	e12fff1e 	bx	lr
    b240:	0000b250 	andeq	fp, r0, r0, asr r2

0000b244 <__code_end__>:
    b244:	00000000 	andeq	r0, r0, r0

Disassembly of section .data:

0000b248 <__data_start__>:
    b248:	0000a4d8 	ldrdeq	sl, [r0], -r8

0000b24c <putk>:
    b24c:	0000a514 	andeq	sl, r0, r4, lsl r5

0000b250 <heap>:
    b250:	0000c9c8 	andeq	ip, r0, r8, asr #19

0000b254 <heap_start>:
    b254:	0000c9c8 	andeq	ip, r0, r8, asr #19

Disassembly of section .rodata:

0000b258 <__FUNCTION__.4442-0x11c>:
    b258:	43415254 	movtmi	r5, #4692	; 0x1254
    b25c:	00003a45 	andeq	r3, r0, r5, asr #20
    b260:	65707865 	ldrbvs	r7, [r0, #-2149]!	; 0x865
    b264:	27207463 	strcs	r7, [r0, -r3, ror #8]!
    b268:	616d6f64 	cmnvs	sp, r4, ror #30
    b26c:	73206e69 	teqvc	r0, #1680	; 0x690
    b270:	69746365 	ldmdbvs	r4!, {r0, r2, r5, r6, r8, r9, sp, lr}^
    b274:	66206e6f 	strtvs	r6, [r0], -pc, ror #28
    b278:	746c7561 	strbtvc	r7, [ip], #-1377	; 0x561
    b27c:	6f662027 	svcvs	0x00662027
    b280:	64612072 	strbtvs	r2, [r1], #-114	; 0x72
    b284:	25207264 	strcs	r7, [r0, #-612]!	; 0x264
    b288:	61202c70 	teqvs	r0, r0, ror ip
    b28c:	63702074 	cmnvs	r0, #116	; 0x74
    b290:	0a702520 	beq	1c14718 <__bss_end__+0x1c07d50>
    b294:	00000000 	andeq	r0, r0, r0
    b298:	63656863 	cmnvs	r5, #6488064	; 0x630000
    b29c:	676e696b 	strbvs	r6, [lr, -fp, ror #18]!
    b2a0:	61687420 	cmnvs	r8, r0, lsr #8
    b2a4:	72742074 	rsbsvc	r2, r4, #116	; 0x74
    b2a8:	69707061 	ldmdbvs	r0!, {r0, r5, r6, ip, sp, lr}^
    b2ac:	6920676e 	stmdbvs	r0!, {r1, r2, r3, r5, r6, r8, r9, sl, sp, lr}
    b2b0:	69642073 	stmdbvs	r4!, {r0, r1, r4, r5, r6, sp}^
    b2b4:	6c626173 	stfvse	f6, [r2], #-460	; 0xfffffe34
    b2b8:	000a6465 	andeq	r6, sl, r5, ror #8
    b2bc:	494e4150 	stmdbmi	lr, {r4, r6, r8, lr}^
    b2c0:	73253a43 	teqvc	r5, #274432	; 0x43000
    b2c4:	3a73253a 	bcc	1cd47b4 <__bss_end__+0x1cc7dec>
    b2c8:	253a6425 	ldrcs	r6, [sl, #-1061]!	; 0x425
    b2cc:	00000a73 	andeq	r0, r0, r3, ror sl
    b2d0:	74736574 	ldrbtvc	r6, [r3], #-1396	; 0x574
    b2d4:	61702f73 	cmnvs	r0, r3, ror pc
    b2d8:	2d327472 	cfldrscs	mvf7, [r2, #-456]!	; 0xfffffe38
    b2dc:	74736574 	ldrbtvc	r6, [r3], #-1396	; 0x574
    b2e0:	00632e34 	rsbeq	r2, r3, r4, lsr lr
    b2e4:	6d656d21 	stclvs	13, cr6, [r5, #-132]!	; 0xffffff7c
    b2e8:	63656863 	cmnvs	r5, #6488064	; 0x630000
    b2ec:	72745f6b 	rsbsvc	r5, r4, #428	; 0x1ac
    b2f0:	655f7061 	ldrbvs	r7, [pc, #-97]	; b297 <__data_end__+0x3f>
    b2f4:	6c62616e 	stfvse	f6, [r2], #-440	; 0xfffffe48
    b2f8:	29286465 	stmdbcs	r8!, {r0, r2, r5, r6, sl, sp, lr}
    b2fc:	00000000 	andeq	r0, r0, r0
    b300:	72726f63 	rsbsvc	r6, r2, #396	; 0x18c
    b304:	3a746365 	bcc	1d240a0 <__bss_end__+0x1d176d8>
    b308:	73696420 	cmnvc	r9, #32, 8	; 0x20000000
    b30c:	656c6261 	strbvs	r6, [ip, #-609]!	; 0x261
    b310:	00000a64 	andeq	r0, r0, r4, ror #20
    b314:	63656863 	cmnvs	r5, #6488064	; 0x630000
    b318:	676e696b 	strbvs	r6, [lr, -fp, ror #18]!
    b31c:	61687420 	cmnvs	r8, r0, lsr #8
    b320:	70252074 	eorvc	r2, r5, r4, ror r0
    b324:	203d3d20 	eorscs	r3, sp, r0, lsr #26
    b328:	000a6425 	andeq	r6, sl, r5, lsr #8
    b32c:	33544547 	cmpcc	r4, #297795584	; 0x11c00000
    b330:	64612832 	strbtvs	r2, [r1], #-2098	; 0x832
    b334:	20297264 	eorcs	r7, r9, r4, ror #4
    b338:	76203d3d 			; <UNDEFINED> instruction: 0x76203d3d
    b33c:	00006c61 	andeq	r6, r0, r1, ror #24
    b340:	72726f63 	rsbsvc	r6, r2, #396	; 0x18c
    b344:	3a746365 	bcc	1d240e0 <__bss_end__+0x1d17718>
    b348:	20702520 	rsbscs	r2, r0, r0, lsr #10
    b34c:	25203d3d 	strcs	r3, [r0, #-3389]!	; 0xd3d
    b350:	00000a64 	andeq	r0, r0, r4, ror #20
    b354:	5f756d6d 	svcpl	0x00756d6d
    b358:	655f7369 	ldrbvs	r7, [pc, #-873]	; aff7 <gpio_set_function+0x67>
    b35c:	6c62616e 	stfvse	f6, [r2], #-440	; 0xfffffe48
    b360:	29286465 	stmdbcs	r8!, {r0, r2, r5, r6, sl, sp, lr}
    b364:	00000000 	andeq	r0, r0, r0
    b368:	63637573 	cmnvs	r3, #482344960	; 0x1cc00000
    b36c:	21737365 	cmncs	r3, r5, ror #6
    b370:	00000a21 	andeq	r0, r0, r1, lsr #20

0000b374 <__FUNCTION__.4442>:
    b374:	6d746f6e 	ldclvs	15, cr6, [r4, #-440]!	; 0xfffffe48
    b378:	006e6961 	rsbeq	r6, lr, r1, ror #18

0000b37c <__FUNCTION__.4439>:
    b37c:	74736574 	ldrbtvc	r6, [r3], #-1396	; 0x574
    b380:	7365725f 	cmnvc	r5, #-268435451	; 0xf0000005
    b384:	00656d75 	rsbeq	r6, r5, r5, ror sp

0000b388 <OneMB>:
    b388:	00100000 	andseq	r0, r0, r0

0000b38c <__FUNCTION__.4417>:
    b38c:	5f756d6d 	svcpl	0x00756d6d
    b390:	6b6f6f6c 	blvs	1be7148 <__bss_end__+0x1bda780>
    b394:	735f7075 	cmpvc	pc, #117	; 0x75
    b398:	69746365 	ldmdbvs	r4!, {r0, r2, r5, r6, r8, r9, sp, lr}^
    b39c:	00006e6f 	andeq	r6, r0, pc, ror #28

0000b3a0 <__FUNCTION__.4426>:
    b3a0:	5f756d6d 	svcpl	0x00756d6d
    b3a4:	6b72616d 	blvs	1ca3960 <__bss_end__+0x1c96f98>
    b3a8:	6365735f 	cmnvs	r5, #2080374785	; 0x7c000001
    b3ac:	5f70615f 	svcpl	0x0070615f
    b3b0:	6d726570 	cfldr64vs	mvdx6, [r2, #-448]!	; 0xfffffe40
    b3b4:	00000000 	andeq	r0, r0, r0

0000b3b8 <__FUNCTION__.4458>:
    b3b8:	5f756d6d 	svcpl	0x00756d6d
    b3bc:	5f70616d 	svcpl	0x0070616d
    b3c0:	74636573 	strbtvc	r6, [r3], #-1395	; 0x573
    b3c4:	006e6f69 	rsbeq	r6, lr, r9, ror #30

0000b3c8 <__FUNCTION__.4451>:
    b3c8:	5f646c66 	svcpl	0x00646c66
    b3cc:	5f746573 	svcpl	0x00746573
    b3d0:	65736162 	ldrbvs	r6, [r3, #-354]!	; 0x162
    b3d4:	6464615f 	strbtvs	r6, [r4], #-351	; 0x15f
    b3d8:	00000072 	andeq	r0, r0, r2, ror r0

0000b3dc <__FUNCTION__.4468>:
    b3dc:	5f756d6d 	svcpl	0x00756d6d
    b3e0:	5f70616d 	svcpl	0x0070616d
    b3e4:	74636573 	strbtvc	r6, [r3], #-1395	; 0x573
    b3e8:	736e6f69 	cmnvc	lr, #420	; 0x1a4
    b3ec:	00000000 	andeq	r0, r0, r0

0000b3f0 <__FUNCTION__.4477>:
    b3f0:	5f756d6d 	svcpl	0x00756d6d
    b3f4:	615f7470 	cmpvs	pc, r0, ror r4	; <UNPREDICTABLE>
    b3f8:	636f6c6c 	cmnvs	pc, #108, 24	; 0x6c00
    b3fc:	0074615f 	rsbseq	r6, r4, pc, asr r1

0000b400 <__FUNCTION__.4483>:
    b400:	5f756d6d 	svcpl	0x00756d6d
    b404:	615f7470 	cmpvs	pc, r0, ror r4	; <UNPREDICTABLE>
    b408:	636f6c6c 	cmnvs	pc, #108, 24	; 0x6c00
    b40c:	00000000 	andeq	r0, r0, r0

0000b410 <__FUNCTION__.4490>:
    b410:	5f756d6d 	svcpl	0x00756d6d
    b414:	74696e69 	strbtvc	r6, [r9], #-3689	; 0xe69
    b418:	00000000 	andeq	r0, r0, r0

0000b41c <__FUNCTION__.4497>:
    b41c:	5f756d6d 	svcpl	0x00756d6d
    b420:	61736964 	cmnvs	r3, r4, ror #18
    b424:	5f656c62 	svcpl	0x00656c62
    b428:	00746573 	rsbseq	r6, r4, r3, ror r5

0000b42c <__FUNCTION__.4502>:
    b42c:	5f756d6d 	svcpl	0x00756d6d
    b430:	61736964 	cmnvs	r3, r4, ror #18
    b434:	00656c62 	rsbeq	r6, r5, r2, ror #24

0000b438 <__FUNCTION__.4506>:
    b438:	5f756d6d 	svcpl	0x00756d6d
    b43c:	62616e65 	rsbvs	r6, r1, #1616	; 0x650
    b440:	735f656c 	cmpvc	pc, #108, 10	; 0x1b000000
    b444:	00007465 	andeq	r7, r0, r5, ror #8

0000b448 <__FUNCTION__.4511>:
    b448:	5f756d6d 	svcpl	0x00756d6d
    b44c:	62616e65 	rsbvs	r6, r1, #1616	; 0x650
    b450:	0000656c 	andeq	r6, r0, ip, ror #10

0000b454 <__FUNCTION__.4524>:
    b454:	5f746573 	svcpl	0x00746573
    b458:	636f7270 	cmnvs	pc, #112, 4
    b45c:	745f6469 	ldrbvc	r6, [pc], #-1129	; b464 <__FUNCTION__.4524+0x10>
    b460:	30726274 	rsbscc	r6, r2, r4, ror r2
    b464:	00000000 	andeq	r0, r0, r0

0000b468 <__FUNCTION__.4528>:
    b468:	5f6d7361 	svcpl	0x006d7361
    b46c:	5f746f6e 	svcpl	0x00746f6e
    b470:	6c706d69 	ldclvs	13, cr6, [r0], #-420	; 0xfffffe5c
    b474:	6e656d65 	cdpvs	13, 6, cr6, cr5, cr5, {3}
    b478:	00646574 	rsbeq	r6, r4, r4, ror r5
    b47c:	2e756d6d 	cdpcs	13, 7, cr6, cr5, cr13, {3}
    b480:	00000063 	andeq	r0, r0, r3, rrx
    b484:	615f7369 	cmpvs	pc, r9, ror #6
    b488:	6e67696c 	cdpvs	9, 6, cr6, cr7, cr12, {3}
    b48c:	76286465 	strtvc	r6, [r8], -r5, ror #8
    b490:	32202c61 	eorcc	r2, r0, #24832	; 0x6100
    b494:	00002930 	andeq	r2, r0, r0, lsr r9
    b498:	4f525245 	svcmi	0x00525245
    b49c:	73253a52 	teqvc	r5, #335872	; 0x52000
    b4a0:	3a73253a 	bcc	1cd4990 <__bss_end__+0x1cc7fc8>
    b4a4:	203a6425 	eorscs	r6, sl, r5, lsr #8
    b4a8:	534c4146 	movtpl	r4, #49478	; 0xc146
    b4ac:	253c2845 	ldrcs	r2, [ip, #-2117]!	; 0x845
    b4b0:	3a293e73 	bcc	a5ae84 <__bss_end__+0xa4e4bc>
    b4b4:	766e6920 	strbtvc	r6, [lr], -r0, lsr #18
    b4b8:	64696c61 	strbtvs	r6, [r9], #-3169	; 0xc61
    b4bc:	63657320 	cmnvs	r5, #32, 6	; 0x80000000
    b4c0:	6e6f6974 	mcrvs	9, 3, r6, cr15, cr4, {3}
    b4c4:	0000000a 	andeq	r0, r0, sl
    b4c8:	2d657470 	cfstrdcs	mvd7, [r5, #-448]!	; 0xfffffe40
    b4cc:	6761743e 			; <UNDEFINED> instruction: 0x6761743e
    b4d0:	00000000 	andeq	r0, r0, r0
    b4d4:	4f525245 	svcmi	0x00525245
    b4d8:	73253a52 	teqvc	r5, #335872	; 0x52000
    b4dc:	3a73253a 	bcc	1cd49cc <__bss_end__+0x1cc8004>
    b4e0:	203a6425 	eorscs	r6, sl, r5, lsr #8
    b4e4:	534c4146 	movtpl	r4, #49478	; 0xc146
    b4e8:	253c2845 	ldrcs	r2, [ip, #-2117]!	; 0x845
    b4ec:	3a293e73 	bcc	a5aec0 <__bss_end__+0xa4e4f8>
    b4f0:	766e6920 	strbtvc	r6, [lr], -r0, lsr #18
    b4f4:	64696c61 	strbtvs	r6, [r9], #-3169	; 0xc61
    b4f8:	72657020 	rsbvc	r7, r5, #32
    b4fc:	7373696d 	cmnvc	r3, #1785856	; 0x1b4000
    b500:	0a6e6f69 	beq	1ba72ac <__bss_end__+0x1b9a8e4>
    b504:	00000000 	andeq	r0, r0, r0
    b508:	6d726570 	cfldr64vs	mvdx6, [r2, #-448]!	; 0xfffffe40
    b50c:	203d3c20 	eorscs	r3, sp, r0, lsr #24
    b510:	31316230 	teqcc	r1, r0, lsr r2
    b514:	00000000 	andeq	r0, r0, r0
    b518:	4f525245 	svcmi	0x00525245
    b51c:	73253a52 	teqvc	r5, #335872	; 0x52000
    b520:	3a73253a 	bcc	1cd4a10 <__bss_end__+0x1cc8048>
    b524:	203a6425 	eorscs	r6, sl, r5, lsr #8
    b528:	534c4146 	movtpl	r4, #49478	; 0xc146
    b52c:	253c2845 	ldrcs	r2, [ip, #-2117]!	; 0x845
    b530:	3a293e73 	bcc	a5af04 <__bss_end__+0xa4e53c>
    b534:	64646120 	strbtvs	r6, [r4], #-288	; 0x120
    b538:	73692072 	cmnvc	r9, #114	; 0x72
    b53c:	746f6e20 	strbtvc	r6, [pc], #-3616	; b544 <__FUNCTION__.4528+0xdc>
    b540:	696c6120 	stmdbvs	ip!, {r5, r8, sp, lr}^
    b544:	64656e67 	strbtvs	r6, [r5], #-3687	; 0xe67
    b548:	00000a21 	andeq	r0, r0, r1, lsr #20
    b54c:	61282828 	teqvs	r8, r8, lsr #16
    b550:	29726464 	ldmdbcs	r2!, {r2, r5, r6, sl, sp, lr}^
    b554:	28202620 	stmdacs	r0!, {r5, r9, sl, sp}
    b558:	70797428 	rsbsvc	r7, r9, r8, lsr #8
    b55c:	28666f65 	stmdacs	r6!, {r0, r2, r5, r6, r8, r9, sl, fp, sp, lr}^
    b560:	72646461 	rsbvc	r6, r4, #1627389952	; 0x61000000
    b564:	32282929 	eorcc	r2, r8, #671744	; 0xa4000
    b568:	2d202930 	stccs	9, cr2, [r0, #-192]!	; 0xffffff40
    b56c:	29293120 	stmdbcs	r9!, {r5, r8, ip, sp}
    b570:	203d3d20 	eorscs	r3, sp, r0, lsr #26
    b574:	00002930 	andeq	r2, r0, r0, lsr r9
    b578:	3e2d6628 	cfmadda32cc	mvax1, mvax6, mvfx13, mvfx8
    b57c:	5f636573 	svcpl	0x00636573
    b580:	65736162 	ldrbvs	r6, [r3, #-354]!	; 0x162
    b584:	6464615f 	strbtvs	r6, [r4], #-351	; 0x15f
    b588:	3c3c2072 	ldccc	0, cr2, [ip], #-456	; 0xfffffe38
    b58c:	29303220 	ldmdbcs	r0!, {r5, r9, ip, sp}
    b590:	203d3d20 	eorscs	r3, sp, r0, lsr #26
    b594:	72646461 	rsbvc	r6, r4, #1627389952	; 0x61000000
    b598:	00000000 	andeq	r0, r0, r0
    b59c:	206d6f64 	rsbcs	r6, sp, r4, ror #30
    b5a0:	3631203c 			; <UNDEFINED> instruction: 0x3631203c
    b5a4:	00000000 	andeq	r0, r0, r0
    b5a8:	615f7369 	cmpvs	pc, r9, ror #6
    b5ac:	6e67696c 	cdpvs	9, 6, cr6, cr7, cr12, {3}
    b5b0:	70286465 	eorvc	r6, r8, r5, ror #8
    b5b4:	32202c61 	eorcc	r2, r0, #24832	; 0x6100
    b5b8:	00002930 	andeq	r2, r0, r0, lsr r9
    b5bc:	4f525245 	svcmi	0x00525245
    b5c0:	73253a52 	teqvc	r5, #335872	; 0x52000
    b5c4:	3a73253a 	bcc	1cd4ab4 <__bss_end__+0x1cc80ec>
    b5c8:	203a6425 	eorscs	r6, sl, r5, lsr #8
    b5cc:	534c4146 	movtpl	r4, #49478	; 0xc146
    b5d0:	253c2845 	ldrcs	r2, [ip, #-2117]!	; 0x845
    b5d4:	3a293e73 	bcc	a5afa8 <__bss_end__+0xa4e5e0>
    b5d8:	726c6120 	rsbvc	r6, ip, #32, 2
    b5dc:	79646165 	stmdbvc	r4!, {r0, r2, r5, r6, r8, sp, lr}^
    b5e0:	74657320 	strbtvc	r7, [r5], #-800	; 0x320
    b5e4:	0000000a 	andeq	r0, r0, sl
    b5e8:	65747021 	ldrbvs	r7, [r4, #-33]!	; 0x21
    b5ec:	61743e2d 	cmnvs	r4, sp, lsr #28
    b5f0:	00000067 	andeq	r0, r0, r7, rrx
    b5f4:	702e796d 	eorvc	r7, lr, sp, ror #18
    b5f8:	20406574 	subcs	r6, r0, r4, ror r5
    b5fc:	78257830 	stmdavc	r5!, {r4, r5, fp, ip, sp, lr}
    b600:	25203d20 	strcs	r3, [r0, #-3360]!	; 0xd20
    b604:	00000a62 	andeq	r0, r0, r2, ror #20
    b608:	20455450 	subcs	r5, r5, r0, asr r4
    b60c:	3a637263 	bcc	18e7fa0 <__bss_end__+0x18db5d8>
    b610:	00000000 	andeq	r0, r0, r0
    b614:	4f525245 	svcmi	0x00525245
    b618:	73253a52 	teqvc	r5, #335872	; 0x52000
    b61c:	3a73253a 	bcc	1cd4b0c <__bss_end__+0x1cc8144>
    b620:	203a6425 	eorscs	r6, sl, r5, lsr #8
    b624:	534c4146 	movtpl	r4, #49478	; 0xc146
    b628:	253c2845 	ldrcs	r2, [ip, #-2117]!	; 0x845
    b62c:	3a293e73 	bcc	a5b000 <__bss_end__+0xa4e638>
    b630:	73756d20 	cmnvc	r5, #32, 26	; 0x800
    b634:	65622074 	strbvs	r2, [r2, #-116]!	; 0x74
    b638:	2d343120 	ldfcss	f3, [r4, #-128]!	; 0xffffff80
    b63c:	20746962 	rsbscs	r6, r4, r2, ror #18
    b640:	67696c61 	strbvs	r6, [r9, -r1, ror #24]!
    b644:	2164656e 	cmncs	r4, lr, ror #10
    b648:	0000000a 	andeq	r0, r0, sl
    b64c:	28282828 	stmdacs	r8!, {r3, r5, fp, sp}
    b650:	746e6975 	strbtvc	r6, [lr], #-2421	; 0x975
    b654:	745f3233 	ldrbvc	r3, [pc], #-563	; b65c <__FUNCTION__.4528+0x1f4>
    b658:	64646129 	strbtvs	r6, [r4], #-297	; 0x129
    b65c:	26202972 			; <UNDEFINED> instruction: 0x26202972
    b660:	74282820 	strtvc	r2, [r8], #-2080	; 0x820
    b664:	6f657079 	svcvs	0x00657079
    b668:	75282866 	strvc	r2, [r8, #-2150]!	; 0x866
    b66c:	33746e69 	cmncc	r4, #1680	; 0x690
    b670:	29745f32 	ldmdbcs	r4!, {r1, r4, r5, r8, r9, sl, fp, ip, lr}^
    b674:	72646461 	rsbvc	r6, r4, #1627389952	; 0x61000000
    b678:	31282929 	teqcc	r8, r9, lsr #18
    b67c:	2d202934 	stccs	9, cr2, [r0, #-208]!	; 0xffffff30
    b680:	29293120 	stmdbcs	r9!, {r5, r8, ip, sp}
    b684:	203d3d20 	eorscs	r3, sp, r0, lsr #26
    b688:	00002930 	andeq	r2, r0, r0, lsr r9
    b68c:	4f525245 	svcmi	0x00525245
    b690:	73253a52 	teqvc	r5, #335872	; 0x52000
    b694:	3a73253a 	bcc	1cd4b84 <__bss_end__+0x1cc81bc>
    b698:	203a6425 	eorscs	r6, sl, r5, lsr #8
    b69c:	534c4146 	movtpl	r4, #49478	; 0xc146
    b6a0:	253c2845 	ldrcs	r2, [ip, #-2117]!	; 0x845
    b6a4:	3a293e73 	bcc	a5b078 <__bss_end__+0xa4e6b0>
    b6a8:	6c6e6f20 	stclvs	15, cr6, [lr], #-128	; 0xffffff80
    b6ac:	61682079 	smcvs	33289	; 0x8209
    b6b0:	6e69646e 	cdpvs	4, 6, cr6, cr9, cr14, {3}
    b6b4:	75662067 	strbvc	r2, [r6, #-103]!	; 0x67
    b6b8:	61206c6c 	teqvs	r0, ip, ror #24
    b6bc:	636f6c6c 	cmnvs	pc, #108, 24	; 0x6c00
    b6c0:	6f697461 	svcvs	0x00697461
    b6c4:	00000a6e 	andeq	r0, r0, lr, ror #20
    b6c8:	7479626e 	ldrbtvc	r6, [r9], #-622	; 0x26e
    b6cc:	3d207365 	stccc	3, cr7, [r0, #-404]!	; 0xfffffe6c
    b6d0:	006e203d 	rsbeq	r2, lr, sp, lsr r0
    b6d4:	4f525245 	svcmi	0x00525245
    b6d8:	73253a52 	teqvc	r5, #335872	; 0x52000
    b6dc:	3a73253a 	bcc	1cd4bcc <__bss_end__+0x1cc8204>
    b6e0:	203a6425 	eorscs	r6, sl, r5, lsr #8
    b6e4:	534c4146 	movtpl	r4, #49478	; 0xc146
    b6e8:	253c2845 	ldrcs	r2, [ip, #-2117]!	; 0x845
    b6ec:	3a293e73 	bcc	a5b0c0 <__bss_end__+0xa4e6f8>
    b6f0:	20657720 	rsbcs	r7, r5, r0, lsr #14
    b6f4:	796c6e6f 	stmdbvc	ip!, {r0, r1, r2, r3, r5, r6, r9, sl, fp, sp, lr}^
    b6f8:	6e616820 	cdpvs	8, 6, cr6, cr1, cr0, {1}
    b6fc:	6e696c64 	cdpvs	12, 6, cr6, cr9, cr4, {3}
    b700:	20612067 	rsbcs	r2, r1, r7, rrx
    b704:	6c6c7566 	cfstr64vs	mvdx7, [ip], #-408	; 0xfffffe68
    b708:	6f702d79 	svcvs	0x00702d79
    b70c:	616c7570 	smcvs	51024	; 0xc750
    b710:	20646574 	rsbcs	r6, r4, r4, ror r5
    b714:	65676170 	strbvs	r6, [r7, #-368]!	; 0x170
    b718:	62617420 	rsbvs	r7, r1, #32, 8	; 0x20000000
    b71c:	7220656c 	eorvc	r6, r0, #108, 10	; 0x1b000000
    b720:	74686769 	strbtvc	r6, [r8], #-1897	; 0x769
    b724:	776f6e20 	strbvc	r6, [pc, -r0, lsr #28]!
    b728:	0000000a 	andeq	r0, r0, sl
    b72c:	3d3d206e 	ldccc	0, cr2, [sp, #-440]!	; 0xfffffe48
    b730:	39303420 	ldmdbcc	r0!, {r5, sl, ip, sp}
    b734:	00000036 	andeq	r0, r0, r6, lsr r0
    b738:	28282828 	stmdacs	r8!, {r3, r5, fp, sp}
    b73c:	746e6975 	strbtvc	r6, [lr], #-2421	; 0x975
    b740:	745f3233 	ldrbvc	r3, [pc], #-563	; b748 <__FUNCTION__.4528+0x2e0>
    b744:	29747029 	ldmdbcs	r4!, {r0, r3, r5, ip, sp, lr}^
    b748:	28202620 	stmdacs	r0!, {r5, r9, sl, sp}
    b74c:	70797428 	rsbsvc	r7, r9, r8, lsr #8
    b750:	28666f65 	stmdacs	r6!, {r0, r2, r5, r6, r8, r9, sl, fp, sp, lr}^
    b754:	6e697528 	cdpvs	5, 6, cr7, cr9, cr8, {1}
    b758:	5f323374 	svcpl	0x00323374
    b75c:	74702974 	ldrbtvc	r2, [r0], #-2420	; 0x974
    b760:	31282929 	teqcc	r8, r9, lsr #18
    b764:	2d202934 	stccs	9, cr2, [r0, #-208]!	; 0xffffff30
    b768:	29293120 	stmdbcs	r9!, {r5, r8, ip, sp}
    b76c:	203d3d20 	eorscs	r3, sp, r0, lsr #26
    b770:	00002930 	andeq	r2, r0, r0, lsr r9
    b774:	582e3163 	stmdapl	lr!, {r0, r1, r5, r6, r8, ip, sp}
    b778:	74705f50 	ldrbtvc	r5, [r0], #-3920	; 0xf50
    b77c:	00000000 	andeq	r0, r0, r0
    b780:	2e316321 	cdpcs	3, 3, cr6, cr1, cr1, {1}
    b784:	5f554d4d 	svcpl	0x00554d4d
    b788:	62616e65 	rsbvs	r6, r1, #1616	; 0x650
    b78c:	0064656c 	rsbeq	r6, r4, ip, ror #10
    b790:	4d2e6321 	stcmi	3, cr6, [lr, #-132]!	; 0xffffff7c
    b794:	655f554d 	ldrbvs	r5, [pc, #-1357]	; b24f <putk+0x3>
    b798:	6c62616e 	stfvse	f6, [r2], #-440	; 0xfffffe48
    b79c:	00006465 	andeq	r6, r0, r5, ror #8
    b7a0:	432e6321 	teqmi	lr, #-2080374784	; 0x84000000
    b7a4:	696e755f 	stmdbvs	lr!, {r0, r1, r2, r3, r4, r6, r8, sl, ip, sp, lr}^
    b7a8:	64656966 	strbtvs	r6, [r5], #-2406	; 0x966
    b7ac:	616e655f 	cmnvs	lr, pc, asr r5
    b7b0:	00656c62 	rsbeq	r6, r5, r2, ror #24
    b7b4:	4d4d2e63 	stclmi	14, cr2, [sp, #-396]	; 0xfffffe74
    b7b8:	6e655f55 	mcrvs	15, 3, r5, cr5, cr5, {2}
    b7bc:	656c6261 	strbvs	r6, [ip, #-609]!	; 0x261
    b7c0:	00000064 	andeq	r0, r0, r4, rrx
    b7c4:	64697028 	strbtvs	r7, [r9], #-40	; 0x28
    b7c8:	203e3e20 	eorscs	r3, lr, r0, lsr #28
    b7cc:	20293432 	eorcs	r3, r9, r2, lsr r4
    b7d0:	30203d3d 	eorcc	r3, r0, sp, lsr sp
    b7d4:	00000000 	andeq	r0, r0, r0
    b7d8:	20646970 	rsbcs	r6, r4, r0, ror r9
    b7dc:	3436203e 	ldrtcc	r2, [r6], #-62	; 0x3e
    b7e0:	00000000 	andeq	r0, r0, r0
    b7e4:	64697361 	strbtvs	r7, [r9], #-865	; 0x361
    b7e8:	36203c20 	strtcc	r3, [r0], -r0, lsr #24
    b7ec:	26262034 			; <UNDEFINED> instruction: 0x26262034
    b7f0:	69736120 	ldmdbvs	r3!, {r5, r8, sp, lr}^
    b7f4:	00000064 	andeq	r0, r0, r4, rrx
    b7f8:	494e4150 	stmdbmi	lr, {r4, r6, r8, lr}^
    b7fc:	73253a43 	teqvc	r5, #274432	; 0x43000
    b800:	3a73253a 	bcc	1cd4cf0 <__bss_end__+0x1cc8328>
    b804:	633a6425 	teqvs	sl, #620756992	; 0x25000000
    b808:	656c6c61 	strbvs	r6, [ip, #-3169]!	; 0xc61
    b80c:	6e752064 	cdpvs	0, 7, cr2, cr5, cr4, {3}
    b810:	6c706d69 	ldclvs	13, cr6, [r0], #-420	; 0xfffffe5c
    b814:	6e656d65 	cdpvs	13, 6, cr6, cr5, cr5, {3}
    b818:	20646574 	rsbcs	r6, r4, r4, ror r5
    b81c:	206d7361 	rsbcs	r7, sp, r1, ror #6
    b820:	74756f72 	ldrbtvc	r6, [r5], #-3954	; 0xf72
    b824:	20656e69 	rsbcs	r6, r5, r9, ror #28
    b828:	25207461 	strcs	r7, [r0, #-1121]!	; 0x461
    b82c:	000a0a78 	andeq	r0, sl, r8, ror sl
    b830:	48534148 	ldmdami	r3, {r3, r6, r8, lr}^
    b834:	3a73253a 	bcc	1cd4d24 <__bss_end__+0x1cc835c>
    b838:	73616820 	cmnvc	r1, #32, 16	; 0x200000
    b83c:	78253d68 	stmdavc	r5!, {r3, r5, r6, r8, sl, fp, ip, sp}
    b840:	79626e2c 	stmdbvc	r2!, {r2, r3, r5, r9, sl, fp, sp, lr}^
    b844:	3d736574 	cfldr64cc	mvdx6, [r3, #-464]!	; 0xfffffe30
    b848:	000a6425 	andeq	r6, sl, r5, lsr #8
    b84c:	616d6f64 	cmnvs	sp, r4, ror #30
    b850:	61206e69 	teqvs	r0, r9, ror #28
    b854:	73656363 	cmnvc	r5, #-1946157055	; 0x8c000001
    b858:	6f632073 	svcvs	0x00632073
    b85c:	6f72746e 	svcvs	0x0072746e
    b860:	000a3a6c 	andeq	r3, sl, ip, ror #20
    b864:	0a622509 	beq	1894c90 <__bss_end__+0x18882c8>
    b868:	00000000 	andeq	r0, r0, r0
    b86c:	494e4150 	stmdbmi	lr, {r4, r6, r8, lr}^
    b870:	73253a43 	teqvc	r5, #274432	; 0x43000
    b874:	3a73253a 	bcc	1cd4d64 <__bss_end__+0x1cc839c>
    b878:	6f3a6425 	svcvs	0x003a6425
    b87c:	65736666 	ldrbvs	r6, [r3, #-1638]!	; 0x666
    b880:	72772074 	rsbsvc	r2, r7, #116	; 0x74
    b884:	3a676e6f 	bcc	19e7248 <__bss_end__+0x19da880>
    b888:	70786520 	rsbsvc	r6, r8, r0, lsr #10
    b88c:	20746365 	rsbscs	r6, r4, r5, ror #6
    b890:	67207825 	strvs	r7, [r0, -r5, lsr #16]!
    b894:	2520746f 	strcs	r7, [r0, #-1135]!	; 0x46f
    b898:	73252078 	teqvc	r5, #120	; 0x78
    b89c:	666f5b20 	strbtvs	r5, [pc], -r0, lsr #22
    b8a0:	64253d66 	strtvs	r3, [r5], #-3430	; 0xd66
    b8a4:	69626e2c 	stmdbvs	r2!, {r2, r3, r5, r9, sl, fp, sp, lr}^
    b8a8:	253d7374 	ldrcs	r7, [sp, #-884]!	; 0x374
    b8ac:	0a0a5d64 	beq	2a2e44 <__bss_end__+0x29647c>
    b8b0:	00000000 	andeq	r0, r0, r0
    b8b4:	2d756d6d 	ldclcs	13, cr6, [r5, #-436]!	; 0xfffffe4c
    b8b8:	706c6568 	rsbvc	r6, ip, r8, ror #10
    b8bc:	2e737265 	cdpcs	2, 7, cr7, cr3, cr5, {3}
    b8c0:	00000063 	andeq	r0, r0, r3, rrx
    b8c4:	20752e78 	rsbscs	r2, r5, r8, ror lr
    b8c8:	65203d3d 	strvs	r3, [r0, #-3389]!	; 0xd3d
    b8cc:	00007078 	andeq	r7, r0, r8, ror r0
    b8d0:	494e4150 	stmdbmi	lr, {r4, r6, r8, lr}^
    b8d4:	73253a43 	teqvc	r5, #274432	; 0x43000
    b8d8:	3a73253a 	bcc	1cd4dc8 <__bss_end__+0x1cc8400>
    b8dc:	773a6425 	ldrvc	r6, [sl, -r5, lsr #8]!
    b8e0:	68746469 	ldmdavs	r4!, {r0, r3, r5, r6, sl, sp, lr}^
    b8e4:	6f727720 	svcvs	0x00727720
    b8e8:	203a676e 	eorscs	r6, sl, lr, ror #14
    b8ec:	65707865 	ldrbvs	r7, [r0, #-2149]!	; 0x865
    b8f0:	25207463 	strcs	r7, [r0, #-1123]!	; 0x463
    b8f4:	6f672078 	svcvs	0x00672078
    b8f8:	78252074 	stmdavc	r5!, {r2, r4, r5, r6, sp}
    b8fc:	20732520 	rsbscs	r2, r3, r0, lsr #10
    b900:	66666f5b 	uqsaxvs	r6, r6, fp
    b904:	2c64253d 	cfstr64cs	mvdx2, [r4], #-244	; 0xffffff0c
    b908:	7469626e 	strbtvc	r6, [r9], #-622	; 0x26e
    b90c:	64253d73 	strtvs	r3, [r5], #-3443	; 0xd73
    b910:	000a0a5d 	andeq	r0, sl, sp, asr sl
    b914:	6c615f41 	stclvs	15, cr5, [r1], #-260	; 0xfffffefc
    b918:	6d6e6769 	stclvs	7, cr6, [lr, #-420]!	; 0xfffffe5c
    b91c:	00746e65 	rsbseq	r6, r4, r5, ror #28
    b920:	72775f57 	rsbsvc	r5, r7, #348	; 0x15c
    b924:	5f657469 	svcpl	0x00657469
    b928:	00667562 	rsbeq	r7, r6, r2, ror #10
    b92c:	6e655f42 	cdpvs	15, 6, cr5, cr5, cr2, {2}
    b930:	6e616964 	cdpvs	9, 6, cr6, cr1, cr4, {3}
    b934:	00000000 	andeq	r0, r0, r0
    b938:	72705f53 	rsbsvc	r5, r0, #332	; 0x14c
    b93c:	0000746f 	andeq	r7, r0, pc, ror #8
    b940:	6f725f52 	svcvs	0x00725f52
    b944:	72705f6d 	rsbsvc	r5, r0, #436	; 0x1b4
    b948:	0000746f 	andeq	r7, r0, pc, ror #8
    b94c:	00000046 	andeq	r0, r0, r6, asr #32
    b950:	72625f5a 	rsbvc	r5, r2, #360	; 0x168
    b954:	68636e61 	stmdavs	r3!, {r0, r5, r6, r9, sl, fp, sp, lr}^
    b958:	6572705f 	ldrbvs	r7, [r2, #-95]!	; 0x5f
    b95c:	00000064 	andeq	r0, r0, r4, rrx
    b960:	69685f56 	stmdbvs	r8!, {r1, r2, r4, r6, r8, r9, sl, fp, ip, lr}^
    b964:	655f6867 	ldrbvs	r6, [pc, #-2151]	; b105 <kmalloc_init_set_start+0x39>
    b968:	70656378 	rsbvc	r6, r5, r8, ror r3
    b96c:	00765f74 	rsbseq	r5, r6, r4, ror pc
    b970:	635f5252 	cmpvs	pc, #536870917	; 0x20000005
    b974:	65686361 	strbvs	r6, [r8, #-865]!	; 0x361
    b978:	7065725f 	rsbvc	r7, r5, pc, asr r2
    b97c:	00000000 	andeq	r0, r0, r0
    b980:	0000344c 	andeq	r3, r0, ip, asr #8
    b984:	00003146 	andeq	r3, r0, r6, asr #2
    b988:	6e755f55 	mrcvs	15, 3, r5, cr5, cr5, {2}
    b98c:	67696c61 	strbvs	r6, [r9, -r1, ror #24]!
    b990:	0064656e 	rsbeq	r6, r4, lr, ror #10
    b994:	705f5058 	subsvc	r5, pc, r8, asr r0	; <UNPREDICTABLE>
    b998:	00000074 	andeq	r0, r0, r4, ror r0
    b99c:	765f4556 			; <UNDEFINED> instruction: 0x765f4556
    b9a0:	5f746365 	svcpl	0x00746365
    b9a4:	00746e69 	rsbseq	r6, r4, r9, ror #28
    b9a8:	00004545 	andeq	r4, r0, r5, asr #10
    b9ac:	745f5254 	ldrbvc	r5, [pc], #-596	; b9b4 <__FUNCTION__.4528+0x54c>
    b9b0:	725f7865 	subsvc	r7, pc, #6619136	; 0x650000
    b9b4:	70616d65 	rsbvc	r6, r1, r5, ror #26
    b9b8:	00000000 	andeq	r0, r0, r0
    b9bc:	665f4146 	ldrbvs	r4, [pc], -r6, asr #2
    b9c0:	6563726f 	strbvs	r7, [r3, #-623]!	; 0x26f
    b9c4:	0070615f 	rsbseq	r6, r0, pc, asr r1
    b9c8:	5f3e2d72 	svcpl	0x003e2d72
    b9cc:	73756e75 	cmnvc	r5, #1872	; 0x750
    b9d0:	20316465 	eorscs	r6, r1, r5, ror #8
    b9d4:	30203d3d 	eorcc	r3, r0, sp, lsr sp
    b9d8:	31313162 	teqcc	r1, r2, ror #2
    b9dc:	00000000 	andeq	r0, r0, r0
    b9e0:	5f3e2d72 	svcpl	0x003e2d72
    b9e4:	3d207464 	cfstrscc	mvf7, [r0, #-400]!	; 0xfffffe70
    b9e8:	0031203d 	eorseq	r2, r1, sp, lsr r0
    b9ec:	5f3e2d72 	svcpl	0x003e2d72
    b9f0:	3d207469 	cfstrscc	mvf7, [r0, #-420]!	; 0xfffffe5c
    b9f4:	0031203d 	eorseq	r2, r1, sp, lsr r0
    b9f8:	5f3e2d72 	svcpl	0x003e2d72
    b9fc:	307a6273 	rsbscc	r6, sl, r3, ror r2
    ba00:	203d3d20 	eorscs	r3, sp, r0, lsr #26
    ba04:	00000030 	andeq	r0, r0, r0, lsr r0
    ba08:	5f3e2d72 	svcpl	0x003e2d72
    ba0c:	317a6273 	cmncc	sl, r3, ror r2
    ba10:	203d3d20 	eorscs	r3, sp, r0, lsr #26
    ba14:	00000030 	andeq	r0, r0, r0, lsr r0
    ba18:	5f3e2d72 	svcpl	0x003e2d72
    ba1c:	3d207473 	cfstrscc	mvf7, [r0, #-460]!	; 0xfffffe34
    ba20:	0030203d 	eorseq	r2, r0, sp, lsr r0
    ba24:	3e2d7221 	cdpcc	2, 2, cr7, cr13, cr1, {1}
    ba28:	655f324c 	ldrbvs	r3, [pc, #-588]	; b7e4 <__FUNCTION__.4528+0x37c>
    ba2c:	6c62616e 	stfvse	f6, [r2], #-440	; 0xfffffe48
    ba30:	00006465 	andeq	r6, r0, r5, ror #8
    ba34:	3e2d7221 	cdpcc	2, 2, cr7, cr13, cr1, {1}
    ba38:	63695f49 	cmnvs	r9, #292	; 0x124
    ba3c:	65686361 	strbvs	r6, [r8, #-865]!	; 0x361
    ba40:	616e655f 	cmnvs	lr, pc, asr r5
    ba44:	00656c62 	rsbeq	r6, r5, r2, ror #24
    ba48:	3e2d7221 	cdpcc	2, 2, cr7, cr13, cr1, {1}
    ba4c:	6e755f43 	cdpvs	15, 7, cr5, cr5, cr3, {2}
    ba50:	65696669 	strbvs	r6, [r9, #-1641]!	; 0x669
    ba54:	6e655f64 	cdpvs	15, 6, cr5, cr5, cr4, {3}
    ba58:	656c6261 	strbvs	r6, [ip, #-609]!	; 0x261
    ba5c:	00000000 	andeq	r0, r0, r0
    ba60:	74737973 	ldrbtvc	r7, [r3], #-2419	; 0x973
    ba64:	63206d65 	teqvs	r0, #6464	; 0x1940
    ba68:	72746e6f 	rsbsvc	r6, r4, #1776	; 0x6f0
    ba6c:	72206c6f 	eorvc	r6, r0, #28416	; 0x6f00
    ba70:	0a3d6765 	beq	f6580c <__bss_end__+0xf58e44>
    ba74:	00000000 	andeq	r0, r0, r0
    ba78:	25623009 	strbcs	r3, [r2, #-9]!
    ba7c:	203d0962 	eorscs	r0, sp, r2, ror #18
    ba80:	000a7325 	andeq	r7, sl, r5, lsr #6
    ba84:	25783009 	ldrbcs	r3, [r8, #-9]!
    ba88:	00000a78 	andeq	r0, r0, r8, ror sl
    ba8c:	66696e75 			; <UNDEFINED> instruction: 0x66696e75
    ba90:	5f646569 	svcpl	0x00646569
    ba94:	00000070 	andeq	r0, r0, r0, ror r0
    ba98:	5f645f6e 	svcpl	0x00645f6e
    ba9c:	6b636f6c 	blvs	18e7854 <__bss_end__+0x18dae8c>
    baa0:	00000000 	andeq	r0, r0, r0
    baa4:	5f695f6e 	svcpl	0x00695f6e
    baa8:	6b636f6c 	blvs	18e7860 <__bss_end__+0x18dae98>
    baac:	00000000 	andeq	r0, r0, r0
    bab0:	20424c54 	subcs	r4, r2, r4, asr ip
    bab4:	666e6f63 	strbtvs	r6, [lr], -r3, ror #30
    bab8:	0a3a6769 	beq	ea5864 <__bss_end__+0xe98e9c>
    babc:	00000000 	andeq	r0, r0, r0
    bac0:	696e7509 	stmdbvs	lr!, {r0, r3, r8, sl, ip, sp, lr}^
    bac4:	64656966 	strbtvs	r6, [r5], #-2406	; 0x966
    bac8:	0a64253d 	beq	1914fc4 <__bss_end__+0x19085fc>
    bacc:	00000000 	andeq	r0, r0, r0
    bad0:	636f6c09 	cmnvs	pc, #2304	; 0x900
    bad4:	6c62616b 	stfvse	f6, [r2], #-428	; 0xfffffe54
    bad8:	61642065 	cmnvs	r4, r5, rrx
    badc:	65206174 	strvs	r6, [r0, #-372]!	; 0x174
    bae0:	253d746e 	ldrcs	r7, [sp, #-1134]!	; 0x46e
    bae4:	00000a64 	andeq	r0, r0, r4, ror #20
    bae8:	636f6c09 	cmnvs	pc, #2304	; 0x900
    baec:	6c62616b 	stfvse	f6, [r2], #-428	; 0xfffffe54
    baf0:	6e692065 	cdpvs	0, 6, cr2, cr9, cr5, {3}
    baf4:	65207473 	strvs	r7, [r0, #-1139]!	; 0x473
    baf8:	253d746e 	ldrcs	r7, [sp, #-1134]!	; 0x46e
    bafc:	00000a64 	andeq	r0, r0, r4, ror #20
    bb00:	5f3e2d66 	svcpl	0x003e2d66
    bb04:	317a6273 	cmncc	sl, r3, ror r2
    bb08:	203d3d20 	eorscs	r3, sp, r0, lsr #26
    bb0c:	00000030 	andeq	r0, r0, r0, lsr r0
    bb10:	743e2d66 	ldrtvc	r2, [lr], #-3430	; 0xd66
    bb14:	3d206761 	stccc	7, cr6, [r0, #-388]!	; 0xfffffe7c
    bb18:	6230203d 	eorsvs	r2, r0, #61	; 0x3d
    bb1c:	00003031 	andeq	r3, r0, r1, lsr r0
    bb20:	533e2d66 	teqpl	lr, #6528	; 0x1980
    bb24:	203d3d20 	eorscs	r3, sp, r0, lsr #26
    bb28:	00000030 	andeq	r0, r0, r0, lsr r0
    bb2c:	493e2d66 	ldmdbmi	lr!, {r1, r2, r5, r6, r8, sl, fp, sp}
    bb30:	3d20504d 	stccc	0, cr5, [r0, #-308]!	; 0xfffffecc
    bb34:	0030203d 	eorseq	r2, r0, sp, lsr r0
    bb38:	543e2d66 	ldrtpl	r2, [lr], #-3430	; 0xd66
    bb3c:	3d205845 	stccc	8, cr5, [r0, #-276]!	; 0xfffffeec
    bb40:	0030203d 	eorseq	r2, r0, sp, lsr r0
    bb44:	433e2d66 	teqmi	lr, #6528	; 0x1980
    bb48:	203d3d20 	eorscs	r3, sp, r0, lsr #26
    bb4c:	00000030 	andeq	r0, r0, r0, lsr r0
    bb50:	423e2d66 	eorsmi	r2, lr, #6528	; 0x1980
    bb54:	203d3d20 	eorscs	r3, sp, r0, lsr #26
    bb58:	00000030 	andeq	r0, r0, r0, lsr r0
    bb5c:	733e2d66 	teqvc	lr, #6528	; 0x1980
    bb60:	72657075 	rsbvc	r7, r5, #117	; 0x75
    bb64:	203d3d20 	eorscs	r3, sp, r0, lsr #26
    bb68:	00000030 	andeq	r0, r0, r0, lsr r0
    bb6c:	00676174 	rsbeq	r6, r7, r4, ror r1
    bb70:	00000042 	andeq	r0, r0, r2, asr #32
    bb74:	00000043 	andeq	r0, r0, r3, asr #32
    bb78:	00004e58 	andeq	r4, r0, r8, asr lr
    bb7c:	616d6f64 	cmnvs	sp, r4, ror #30
    bb80:	00006e69 	andeq	r6, r0, r9, ror #28
    bb84:	00504d49 	subseq	r4, r0, r9, asr #26
    bb88:	00005041 	andeq	r5, r0, r1, asr #32
    bb8c:	00584554 	subseq	r4, r8, r4, asr r5
    bb90:	00585041 	subseq	r5, r8, r1, asr #32
    bb94:	00000053 	andeq	r0, r0, r3, asr r0
    bb98:	0000476e 	andeq	r4, r0, lr, ror #14
    bb9c:	65707573 	ldrbvs	r7, [r0, #-1395]!	; 0x573
    bba0:	00000072 	andeq	r0, r0, r2, ror r0
    bba4:	5f636573 	svcpl	0x00636573
    bba8:	65736162 	ldrbvs	r6, [r3, #-354]!	; 0x162
    bbac:	6464615f 	strbtvs	r6, [r4], #-351	; 0x15f
    bbb0:	00000072 	andeq	r0, r0, r2, ror r0
    bbb4:	2d2d2d2d 	stccs	13, cr2, [sp, #-180]!	; 0xffffff4c
    bbb8:	2d2d2d2d 	stccs	13, cr2, [sp, #-180]!	; 0xffffff4c
    bbbc:	2d2d2d2d 	stccs	13, cr2, [sp, #-180]!	; 0xffffff4c
    bbc0:	2d2d2d2d 	stccs	13, cr2, [sp, #-180]!	; 0xffffff4c
    bbc4:	2d2d2d2d 	stccs	13, cr2, [sp, #-180]!	; 0xffffff4c
    bbc8:	2d2d2d2d 	stccs	13, cr2, [sp, #-180]!	; 0xffffff4c
    bbcc:	2d2d2d2d 	stccs	13, cr2, [sp, #-180]!	; 0xffffff4c
    bbd0:	000a2d2d 	andeq	r2, sl, sp, lsr #26
    bbd4:	78257830 	stmdavc	r5!, {r4, r5, fp, ip, sp, lr}
    bbd8:	00000a3a 	andeq	r0, r0, sl, lsr sl
    bbdc:	2d202009 	stccs	0, cr2, [r0, #-36]!	; 0xffffffdc
    bbe0:	76203e2d 	strtvc	r3, [r0], -sp, lsr #28
    bbe4:	78303d61 	ldmdavc	r0!, {r0, r5, r6, r8, sl, fp, ip, sp}
    bbe8:	0a783825 	beq	1e19c84 <__bss_end__+0x1e0d2bc>
    bbec:	00000000 	andeq	r0, r0, r0
    bbf0:	20202009 	eorcs	r2, r0, r9
    bbf4:	20202020 	eorcs	r2, r0, r0, lsr #32
    bbf8:	20202020 	eorcs	r2, r0, r0, lsr #32
    bbfc:	34353637 	ldrtcc	r3, [r5], #-1591	; 0x637
    bc00:	30313233 	eorscc	r3, r1, r3, lsr r2
    bc04:	0000000a 	andeq	r0, r0, sl

0000bc08 <__FUNCTION__.4576>:
    bc08:	746e6f63 	strbtvc	r6, [lr], #-3939	; 0xf63
    bc0c:	5f6c6f72 	svcpl	0x006c6f72
    bc10:	31676572 	smccc	30290	; 0x7652
    bc14:	6e61735f 	mcrvs	3, 3, r7, cr1, cr15, {2}
    bc18:	5f797469 	svcpl	0x00797469
    bc1c:	63656863 	cmnvs	r5, #6488064	; 0x630000
    bc20:	0000006b 	andeq	r0, r0, fp, rrx

0000bc24 <__FUNCTION__.4619>:
    bc24:	5f646c66 	svcpl	0x00646c66
    bc28:	63656863 	cmnvs	r5, #6488064	; 0x630000
    bc2c:	61765f6b 	cmnvs	r6, fp, ror #30
    bc30:	0064696c 	rsbeq	r6, r4, ip, ror #18

0000bc34 <__FUNCTION__.4390>:
    bc34:	746e6f63 	strbtvc	r6, [lr], #-3939	; 0xf63
    bc38:	5f6c6f72 	svcpl	0x006c6f72
    bc3c:	31676572 	smccc	30290	; 0x7652
    bc40:	6568635f 	strbvs	r6, [r8, #-863]!	; 0x35f
    bc44:	6f5f6b63 	svcvs	0x005f6b63
    bc48:	65736666 	ldrbvs	r6, [r3, #-1638]!	; 0x666
    bc4c:	00007374 	andeq	r7, r0, r4, ror r3

0000bc50 <__FUNCTION__.4592>:
    bc50:	5f626c74 	svcpl	0x00626c74
    bc54:	666e6f63 	strbtvs	r6, [lr], -r3, ror #30
    bc58:	635f6769 	cmpvs	pc, #27525120	; 0x1a40000
    bc5c:	6b636568 	blvs	18e5204 <__bss_end__+0x18d883c>
    bc60:	66666f5f 	uqsaxvs	r6, r6, pc	; <UNPREDICTABLE>
    bc64:	73746573 	cmnvc	r4, #482344960	; 0x1cc00000
    bc68:	00000000 	andeq	r0, r0, r0

0000bc6c <__FUNCTION__.4628>:
    bc6c:	5f646c66 	svcpl	0x00646c66
    bc70:	63656863 	cmnvs	r5, #6488064	; 0x630000
    bc74:	666f5f6b 	strbtvs	r5, [pc], -fp, ror #30
    bc78:	74657366 	strbtvc	r7, [r5], #-870	; 0x366
    bc7c:	00000073 	andeq	r0, r0, r3, ror r0
    bc80:	636d656d 	cmnvs	sp, #457179136	; 0x1b400000
    bc84:	6b636568 	blvs	18e522c <__bss_end__+0x18d8864>
    bc88:	0000632e 	andeq	r6, r0, lr, lsr #6
    bc8c:	61662e6c 	cmnvs	r6, ip, ror #28
    bc90:	5f746c75 	svcpl	0x00746c75
    bc94:	72646461 	rsbvc	r6, r4, #1627389952	; 0x61000000
    bc98:	203d3d20 	eorscs	r3, sp, r0, lsr #26
    bc9c:	72646461 	rsbvc	r6, r4, #1627389952	; 0x61000000
    bca0:	00000000 	andeq	r0, r0, r0
    bca4:	61662e6c 	cmnvs	r6, ip, ror #28
    bca8:	5f746c75 	svcpl	0x00746c75
    bcac:	3d206370 	stccc	3, cr6, [r0, #-448]!	; 0xfffffe40
    bcb0:	6370203d 	cmnvs	r0, #61	; 0x3d
    bcb4:	00000000 	andeq	r0, r0, r0
    bcb8:	61662e6c 	cmnvs	r6, ip, ror #28
    bcbc:	5f746c75 	svcpl	0x00746c75
    bcc0:	73616572 	cmnvc	r1, #478150656	; 0x1c800000
    bcc4:	3d206e6f 	stccc	14, cr6, [r0, #-444]!	; 0xfffffe44
    bcc8:	6572203d 	ldrbvs	r2, [r2, #-61]!	; 0x3d
    bccc:	6e6f7361 	cdpvs	3, 6, cr7, cr15, cr1, {3}
    bcd0:	00000000 	andeq	r0, r0, r0
    bcd4:	20776173 	rsbscs	r6, r7, r3, ror r1
    bcd8:	65707865 	ldrbvs	r7, [r0, #-2149]!	; 0x865
    bcdc:	64657463 	strbtvs	r7, [r5], #-1123	; 0x463
    bce0:	75616620 	strbvc	r6, [r1, #-1568]!	; 0x620
    bce4:	6120746c 	teqvs	r0, ip, ror #8
    bce8:	63702074 	cmnvs	r0, #116	; 0x74
    bcec:	2c70253d 	cfldr64cs	mvdx2, [r0], #-244	; 0xffffff0c
    bcf0:	64646120 	strbtvs	r6, [r4], #-288	; 0x120
    bcf4:	70253d72 	eorvc	r3, r5, r2, ror sp
    bcf8:	6572202c 	ldrbvs	r2, [r2, #-44]!	; 0x2c
    bcfc:	6e6f7361 	cdpvs	3, 6, cr7, cr15, cr1, {3}
    bd00:	0a64253d 	beq	19151fc <__bss_end__+0x1908834>
    bd04:	00000000 	andeq	r0, r0, r0
    bd08:	2d746962 	ldclcs	9, cr6, [r4, #-392]!	; 0xfffffe78
    bd0c:	70707573 	rsbsvc	r7, r0, r3, ror r5
    bd10:	2e74726f 	cdpcs	2, 7, cr7, cr4, cr15, {3}
    bd14:	00000068 	andeq	r0, r0, r8, rrx
    bd18:	3c20626c 	sfmcc	f6, 4, [r0], #-432	; 0xfffffe50
    bd1c:	6275203d 	rsbsvs	r2, r5, #61	; 0x3d
    bd20:	00000000 	andeq	r0, r0, r0
    bd24:	3c206275 	sfmcc	f6, 4, [r0], #-468	; 0xfffffe2c
    bd28:	00323320 	eorseq	r3, r2, r0, lsr #6
    bd2c:	6d726570 	cfldr64vs	mvdx6, [r2, #-448]!	; 0xfffffe40
    bd30:	203d3d20 	eorscs	r3, sp, r0, lsr #26
    bd34:	5f4d4f44 	svcpl	0x004d4f44
    bd38:	65696c63 	strbvs	r6, [r9, #-3171]!	; 0xc63
    bd3c:	7c20746e 	cfstrsvc	mvf7, [r0], #-440	; 0xfffffe48
    bd40:	6570207c 	ldrbvs	r2, [r0, #-124]!	; 0x7c
    bd44:	3d206d72 	stccc	13, cr6, [r0, #-456]!	; 0xfffffe38
    bd48:	4f44203d 	svcmi	0x0044203d
    bd4c:	6f6e5f4d 	svcvs	0x006e5f4d
    bd50:	6363615f 	cmnvs	r3, #-1073741801	; 0xc0000017
    bd54:	00737365 	rsbseq	r7, r3, r5, ror #6
    bd58:	64206e49 	strtvs	r6, [r0], #-3657	; 0xe49
    bd5c:	20617461 	rsbcs	r7, r1, r1, ror #8
    bd60:	726f6261 	rsbvc	r6, pc, #268435462	; 0x10000006
    bd64:	65762074 	ldrbvs	r2, [r6, #-116]!	; 0x74
    bd68:	726f7463 	rsbvc	r7, pc, #1660944384	; 0x63000000
    bd6c:	0000000a 	andeq	r0, r0, sl
    bd70:	494e4150 	stmdbmi	lr, {r4, r6, r8, lr}^
    bd74:	73253a43 	teqvc	r5, #274432	; 0x43000
    bd78:	3a73253a 	bcc	1cd5268 <__bss_end__+0x1cc88a0>
    bd7c:	413a6425 	teqmi	sl, r5, lsr #8
    bd80:	6e67696c 	cdpvs	9, 6, cr6, cr7, cr12, {3}
    bd84:	746e656d 	strbtvc	r6, [lr], #-1389	; 0x56d
    bd88:	75616620 	strbvc	r6, [r1, #-1568]!	; 0x620
    bd8c:	0a0a746c 	beq	2a8f44 <__bss_end__+0x29c57c>
    bd90:	00000000 	andeq	r0, r0, r0
    bd94:	494e4150 	stmdbmi	lr, {r4, r6, r8, lr}^
    bd98:	73253a43 	teqvc	r5, #274432	; 0x43000
    bd9c:	3a73253a 	bcc	1cd528c <__bss_end__+0x1cc88c4>
    bda0:	543a6425 	ldrtpl	r6, [sl], #-1061	; 0x425
    bda4:	4d20424c 	sfmmi	f4, 4, [r0, #-304]!	; 0xfffffed0
    bda8:	20737369 	rsbscs	r7, r3, r9, ror #6
    bdac:	00000a0a 	andeq	r0, r0, sl, lsl #20
    bdb0:	494e4150 	stmdbmi	lr, {r4, r6, r8, lr}^
    bdb4:	73253a43 	teqvc	r5, #274432	; 0x43000
    bdb8:	3a73253a 	bcc	1cd52a8 <__bss_end__+0x1cc88e0>
    bdbc:	443a6425 	ldrtmi	r6, [sl], #-1061	; 0x425
    bdc0:	41207065 	teqmi	r0, r5, rrx
    bdc4:	6e67696c 	cdpvs	9, 6, cr6, cr7, cr12, {3}
    bdc8:	746e656d 	strbtvc	r6, [lr], #-1389	; 0x56d
    bdcc:	75616620 	strbvc	r6, [r1, #-1568]!	; 0x620
    bdd0:	0a0a746c 	beq	2a8f88 <__bss_end__+0x29c5c0>
    bdd4:	00000000 	andeq	r0, r0, r0
    bdd8:	494e4150 	stmdbmi	lr, {r4, r6, r8, lr}^
    bddc:	73253a43 	teqvc	r5, #274432	; 0x43000
    bde0:	3a73253a 	bcc	1cd52d0 <__bss_end__+0x1cc8908>
    bde4:	493a6425 	ldmdbmi	sl!, {r0, r2, r5, sl, sp, lr}
    bde8:	68636143 	stmdavs	r3!, {r0, r1, r6, r8, sp, lr}^
    bdec:	614d2065 	cmpvs	sp, r5, rrx
    bdf0:	65746e69 	ldrbvs	r6, [r4, #-3689]!	; 0xe69
    bdf4:	636e616e 	cmnvs	lr, #-2147483621	; 0x8000001b
    bdf8:	61662065 	cmnvs	r6, r5, rrx
    bdfc:	0a746c75 	beq	1d26fd8 <__bss_end__+0x1d1a610>
    be00:	0000000a 	andeq	r0, r0, sl
    be04:	494e4150 	stmdbmi	lr, {r4, r6, r8, lr}^
    be08:	73253a43 	teqvc	r5, #274432	; 0x43000
    be0c:	3a73253a 	bcc	1cd52fc <__bss_end__+0x1cc8934>
    be10:	543a6425 	ldrtpl	r6, [sl], #-1061	; 0x425
    be14:	736e6172 	cmnvc	lr, #-2147483620	; 0x8000001c
    be18:	6974616c 	ldmdbvs	r4!, {r2, r3, r5, r6, r8, sp, lr}^
    be1c:	4c206e6f 	stcmi	14, cr6, [r0], #-444	; 0xfffffe44
    be20:	6c657665 	stclvs	6, cr7, [r5], #-404	; 0xfffffe6c
    be24:	66203120 	strtvs	r3, [r0], -r0, lsr #2
    be28:	746c7561 	strbtvc	r7, [ip], #-1377	; 0x561
    be2c:	00000a0a 	andeq	r0, r0, sl, lsl #20
    be30:	494e4150 	stmdbmi	lr, {r4, r6, r8, lr}^
    be34:	73253a43 	teqvc	r5, #274432	; 0x43000
    be38:	3a73253a 	bcc	1cd5328 <__bss_end__+0x1cc8960>
    be3c:	543a6425 	ldrtpl	r6, [sl], #-1061	; 0x425
    be40:	736e6172 	cmnvc	lr, #-2147483620	; 0x8000001c
    be44:	6974616c 	ldmdbvs	r4!, {r2, r3, r5, r6, r8, sp, lr}^
    be48:	6c206e6f 	stcvs	14, cr6, [r0], #-444	; 0xfffffe44
    be4c:	6c657665 	stclvs	6, cr7, [r5], #-404	; 0xfffffe6c
    be50:	66203220 	strtvs	r3, [r0], -r0, lsr #4
    be54:	746c7561 	strbtvc	r7, [ip], #-1377	; 0x561
    be58:	00000a0a 	andeq	r0, r0, sl, lsl #20
    be5c:	74636573 	strbtvc	r6, [r3], #-1395	; 0x573
    be60:	206e6f69 	rsbcs	r6, lr, r9, ror #30
    be64:	74616c78 	strbtvc	r6, [r1], #-3192	; 0xc78
    be68:	61662065 	cmnvs	r6, r5, rrx
    be6c:	3a746c75 	bcc	1d27048 <__bss_end__+0x1d1a680>
    be70:	64646120 	strbtvs	r6, [r4], #-288	; 0x120
    be74:	70253d72 	eorvc	r3, r5, r2, ror sp
    be78:	7461202c 	strbtvc	r2, [r1], #-44	; 0x2c
    be7c:	3d637020 	stclcc	0, cr7, [r3, #-128]!	; 0xffffff80
    be80:	000a7025 	andeq	r7, sl, r5, lsr #32
    be84:	494e4150 	stmdbmi	lr, {r4, r6, r8, lr}^
    be88:	73253a43 	teqvc	r5, #274432	; 0x43000
    be8c:	3a73253a 	bcc	1cd537c <__bss_end__+0x1cc89b4>
    be90:	543a6425 	ldrtpl	r6, [sl], #-1061	; 0x425
    be94:	736e6172 	cmnvc	lr, #-2147483620	; 0x8000001c
    be98:	6974616c 	ldmdbvs	r4!, {r2, r3, r5, r6, r8, sp, lr}^
    be9c:	70206e6f 	eorvc	r6, r0, pc, ror #28
    bea0:	20656761 	rsbcs	r6, r5, r1, ror #14
    bea4:	6c756166 	ldfvse	f6, [r5], #-408	; 0xfffffe68
    bea8:	000a0a74 	andeq	r0, sl, r4, ror sl
    beac:	616d6f44 	cmnvs	sp, r4, asr #30
    beb0:	73206e69 	teqvc	r0, #1680	; 0x690
    beb4:	69746365 	ldmdbvs	r4!, {r0, r2, r5, r6, r8, r9, sp, lr}^
    beb8:	66206e6f 	strtvs	r6, [r0], -pc, ror #28
    bebc:	746c7561 	strbtvc	r7, [ip], #-1377	; 0x561
    bec0:	0000000a 	andeq	r0, r0, sl
    bec4:	6e696f47 	cdpvs	15, 6, cr6, cr9, cr7, {2}
    bec8:	6f742067 	svcvs	0x00742067
    becc:	65696420 	strbvs	r6, [r9, #-1056]!	; 0x420
    bed0:	00000a21 	andeq	r0, r0, r1, lsr #20
    bed4:	6e696f67 	cdpvs	15, 6, cr6, cr9, cr7, {3}
    bed8:	6f742067 	svcvs	0x00742067
    bedc:	79727420 	ldmdbvc	r2!, {r5, sl, ip, sp, lr}^
    bee0:	206f7420 	rsbcs	r7, pc, r0, lsr #8
    bee4:	75736572 	ldrbvc	r6, [r3, #-1394]!	; 0x572
    bee8:	000a656d 	andeq	r6, sl, sp, ror #10
    beec:	494e4150 	stmdbmi	lr, {r4, r6, r8, lr}^
    bef0:	73253a43 	teqvc	r5, #274432	; 0x43000
    bef4:	3a73253a 	bcc	1cd53e4 <__bss_end__+0x1cc8a1c>
    bef8:	443a6425 	ldrtmi	r6, [sl], #-1061	; 0x425
    befc:	69616d6f 	stmdbvs	r1!, {r0, r1, r2, r3, r5, r6, r8, sl, fp, sp, lr}^
    bf00:	6170206e 	cmnvs	r0, lr, rrx
    bf04:	66206567 	strtvs	r6, [r0], -r7, ror #10
    bf08:	746c7561 	strbtvc	r7, [ip], #-1377	; 0x561
    bf0c:	00000a0a 	andeq	r0, r0, sl, lsl #20
    bf10:	494e4150 	stmdbmi	lr, {r4, r6, r8, lr}^
    bf14:	73253a43 	teqvc	r5, #274432	; 0x43000
    bf18:	3a73253a 	bcc	1cd5408 <__bss_end__+0x1cc8a40>
    bf1c:	733a6425 	teqvc	sl, #620756992	; 0x25000000
    bf20:	69746365 	ldmdbvs	r4!, {r0, r2, r5, r6, r8, r9, sp, lr}^
    bf24:	70206e6f 	eorvc	r6, r0, pc, ror #28
    bf28:	696d7265 	stmdbvs	sp!, {r0, r2, r5, r6, r9, ip, sp, lr}^
    bf2c:	6f697373 	svcvs	0x00697373
    bf30:	6166206e 	cmnvs	r6, lr, rrx
    bf34:	3a746c75 	bcc	1d27110 <__bss_end__+0x1d1a748>
    bf38:	0a782520 	beq	1e153c0 <__bss_end__+0x1e089f8>
    bf3c:	00000000 	andeq	r0, r0, r0
    bf40:	494e4150 	stmdbmi	lr, {r4, r6, r8, lr}^
    bf44:	73253a43 	teqvc	r5, #274432	; 0x43000
    bf48:	3a73253a 	bcc	1cd5438 <__bss_end__+0x1cc8a70>
    bf4c:	503a6425 	eorspl	r6, sl, r5, lsr #8
    bf50:	696d7265 	stmdbvs	sp!, {r0, r2, r5, r6, r9, ip, sp, lr}^
    bf54:	6f697373 	svcvs	0x00697373
    bf58:	6170206e 	cmnvs	r0, lr, rrx
    bf5c:	66206567 	strtvs	r6, [r0], -r7, ror #10
    bf60:	746c7561 	strbtvc	r7, [ip], #-1377	; 0x561
    bf64:	00000a0a 	andeq	r0, r0, sl, lsl #20
    bf68:	494e4150 	stmdbmi	lr, {r4, r6, r8, lr}^
    bf6c:	73253a43 	teqvc	r5, #274432	; 0x43000
    bf70:	3a73253a 	bcc	1cd5460 <__bss_end__+0x1cc8a98>
    bf74:	503a6425 	eorspl	r6, sl, r5, lsr #8
    bf78:	69636572 	stmdbvs	r3!, {r1, r4, r5, r6, r8, sl, sp, lr}^
    bf7c:	65206573 	strvs	r6, [r0, #-1395]!	; 0x573
    bf80:	72657478 	rsbvc	r7, r5, #120, 8	; 0x78000000
    bf84:	206c616e 	rsbcs	r6, ip, lr, ror #2
    bf88:	726f6261 	rsbvc	r6, pc, #268435462	; 0x10000006
    bf8c:	000a0a74 	andeq	r0, sl, r4, ror sl
    bf90:	494e4150 	stmdbmi	lr, {r4, r6, r8, lr}^
    bf94:	73253a43 	teqvc	r5, #274432	; 0x43000
    bf98:	3a73253a 	bcc	1cd5488 <__bss_end__+0x1cc8ac0>
    bf9c:	453a6425 	ldrmi	r6, [sl, #-1061]!	; 0x425
    bfa0:	72657478 	rsbvc	r7, r5, #120, 8	; 0x78000000
    bfa4:	206c616e 	rsbcs	r6, ip, lr, ror #2
    bfa8:	726f6261 	rsbvc	r6, pc, #268435462	; 0x10000006
    bfac:	72702074 	rsbsvc	r2, r0, #116	; 0x74
    bfb0:	73696365 	cmnvc	r9, #-1811939327	; 0x94000001
    bfb4:	000a0a65 	andeq	r0, sl, r5, ror #20
    bfb8:	494e4150 	stmdbmi	lr, {r4, r6, r8, lr}^
    bfbc:	73253a43 	teqvc	r5, #274432	; 0x43000
    bfc0:	3a73253a 	bcc	1cd54b0 <__bss_end__+0x1cc8ae8>
    bfc4:	543a6425 	ldrtpl	r6, [sl], #-1061	; 0x425
    bfc8:	4c20424c 	sfmmi	f4, 4, [r0], #-304	; 0xfffffed0
    bfcc:	0a6b636f 	beq	1ae4d90 <__bss_end__+0x1ad83c8>
    bfd0:	0000000a 	andeq	r0, r0, sl
    bfd4:	494e4150 	stmdbmi	lr, {r4, r6, r8, lr}^
    bfd8:	73253a43 	teqvc	r5, #274432	; 0x43000
    bfdc:	3a73253a 	bcc	1cd54cc <__bss_end__+0x1cc8b04>
    bfe0:	433a6425 	teqmi	sl, #620756992	; 0x25000000
    bfe4:	6f72706f 	svcvs	0x0072706f
    bfe8:	73736563 	cmnvc	r3, #415236096	; 0x18c00000
    bfec:	6420726f 	strtvs	r7, [r0], #-623	; 0x26f
    bff0:	20617461 	rsbcs	r7, r1, r1, ror #8
    bff4:	726f6261 	rsbvc	r6, pc, #268435462	; 0x10000006
    bff8:	000a0a74 	andeq	r0, sl, r4, ror sl
    bffc:	494e4150 	stmdbmi	lr, {r4, r6, r8, lr}^
    c000:	73253a43 	teqvc	r5, #274432	; 0x43000
    c004:	3a73253a 	bcc	1cd54f4 <__bss_end__+0x1cc8b2c>
    c008:	493a6425 	ldmdbmi	sl!, {r0, r2, r5, sl, sp, lr}
    c00c:	6572706d 	ldrbvs	r7, [r2, #-109]!	; 0x6d
    c010:	65736963 	ldrbvs	r6, [r3, #-2403]!	; 0x963
    c014:	74786520 	ldrbtvc	r6, [r8], #-1312	; 0x520
    c018:	616e7265 	cmnvs	lr, r5, ror #4
    c01c:	6261206c 	rsbvs	r2, r1, #108	; 0x6c
    c020:	0a74726f 	beq	1d289e4 <__bss_end__+0x1d1c01c>
    c024:	0000000a 	andeq	r0, r0, sl
    c028:	494e4150 	stmdbmi	lr, {r4, r6, r8, lr}^
    c02c:	73253a43 	teqvc	r5, #274432	; 0x43000
    c030:	3a73253a 	bcc	1cd5520 <__bss_end__+0x1cc8b58>
    c034:	503a6425 	eorspl	r6, sl, r5, lsr #8
    c038:	74697261 	strbtvc	r7, [r9], #-609	; 0x261
    c03c:	72652079 	rsbvc	r2, r5, #121	; 0x79
    c040:	20726f72 	rsbscs	r6, r2, r2, ror pc
    c044:	65637865 	strbvs	r7, [r3, #-2149]!	; 0x865
    c048:	6f697470 	svcvs	0x00697470
    c04c:	000a0a6e 	andeq	r0, sl, lr, ror #20
    c050:	494e4150 	stmdbmi	lr, {r4, r6, r8, lr}^
    c054:	73253a43 	teqvc	r5, #274432	; 0x43000
    c058:	3a73253a 	bcc	1cd5548 <__bss_end__+0x1cc8b80>
    c05c:	443a6425 	ldrtmi	r6, [sl], #-1061	; 0x425
    c060:	67756265 	ldrbvs	r6, [r5, -r5, ror #4]!
    c064:	65766520 	ldrbvs	r6, [r6, #-1312]!	; 0x520
    c068:	0a0a746e 	beq	2a9228 <__bss_end__+0x29c860>
    c06c:	00000000 	andeq	r0, r0, r0
    c070:	494e4150 	stmdbmi	lr, {r4, r6, r8, lr}^
    c074:	73253a43 	teqvc	r5, #274432	; 0x43000
    c078:	3a73253a 	bcc	1cd5568 <__bss_end__+0x1cc8ba0>
    c07c:	573a6425 	ldrpl	r6, [sl, -r5, lsr #8]!
    c080:	63204654 	teqvs	r0, #84, 12	; 0x5400000
    c084:	20657361 	rsbcs	r7, r5, r1, ror #6
    c088:	74207369 	strtvc	r7, [r0], #-873	; 0x369
    c08c:	21736968 	cmncs	r3, r8, ror #18
    c090:	3f3f213f 	svccc	0x003f213f
    c094:	0000000a 	andeq	r0, r0, sl
    c098:	494e4150 	stmdbmi	lr, {r4, r6, r8, lr}^
    c09c:	73253a43 	teqvc	r5, #274432	; 0x43000
    c0a0:	3a73253a 	bcc	1cd5590 <__bss_end__+0x1cc8bc8>
    c0a4:	693a6425 	ldmdbvs	sl!, {r0, r2, r5, sl, sp, lr}
    c0a8:	736f706d 	cmnvc	pc, #109	; 0x6d
    c0ac:	6c626973 	stclvs	9, cr6, [r2], #-460	; 0xfffffe34
    c0b0:	000a0a65 	andeq	r0, sl, r5, ror #20
    c0b4:	756d6d21 	strbvc	r6, [sp, #-3361]!	; 0xd21
    c0b8:	5f73695f 	svcpl	0x0073695f
    c0bc:	62616e65 	rsbvs	r6, r1, #1616	; 0x650
    c0c0:	2864656c 	stmdacs	r4!, {r2, r3, r5, r6, r8, sl, sp, lr}^
    c0c4:	00000029 	andeq	r0, r0, r9, lsr #32
    c0c8:	3d207470 	cfstrscc	mvf7, [r0, #-448]!	; 0xfffffe40
    c0cc:	6162203d 	cmnvs	r2, sp, lsr r0
    c0d0:	00006573 	andeq	r6, r0, r3, ror r5
    c0d4:	253a7325 	ldrcs	r7, [sl, #-805]!	; 0x325
    c0d8:	64253a73 	strtvs	r3, [r5], #-2675	; 0xa73
    c0dc:	6d656d3a 	stclvs	13, cr6, [r5, #-232]!	; 0xffffff18
    c0e0:	63656863 	cmnvs	r5, #6488064	; 0x630000
    c0e4:	61203a6b 	teqvs	r0, fp, ror #20
    c0e8:	74756f62 	ldrbtvc	r6, [r5], #-3938	; 0xf62
    c0ec:	206f7420 	rsbcs	r7, pc, r0, lsr #8
    c0f0:	6e727574 	mrcvs	5, 3, r7, cr2, cr4, {3}
    c0f4:	0a4e4f20 	beq	139fd7c <__bss_end__+0x13933b4>
    c0f8:	00000000 	andeq	r0, r0, r0
    c0fc:	253a7325 	ldrcs	r7, [sl, #-805]!	; 0x325
    c100:	64253a73 	strtvs	r3, [r5], #-2675	; 0xa73
    c104:	6d656d3a 	stclvs	13, cr6, [r5, #-232]!	; 0xffffff18
    c108:	63656863 	cmnvs	r5, #6488064	; 0x630000
    c10c:	4f203a6b 	svcmi	0x00203a6b
    c110:	00000a4e 	andeq	r0, r0, lr, asr #20
    c114:	253a7325 	ldrcs	r7, [sl, #-805]!	; 0x325
    c118:	64253a73 	strtvs	r3, [r5], #-2675	; 0xa73
    c11c:	6d656d3a 	stclvs	13, cr6, [r5, #-232]!	; 0xffffff18
    c120:	63656863 	cmnvs	r5, #6488064	; 0x630000
    c124:	4f203a6b 	svcmi	0x00203a6b
    c128:	000a4646 	andeq	r4, sl, r6, asr #12
    c12c:	615f7369 	cmpvs	pc, r9, ror #6
    c130:	6e67696c 	cdpvs	9, 6, cr6, cr7, cr12, {3}
    c134:	62286465 	eorvs	r6, r8, #1694498816	; 0x65000000
    c138:	2c657361 	stclcs	3, cr7, [r5], #-388	; 0xfffffe7c
    c13c:	4d656e4f 	stclmi	14, cr6, [r5, #-316]!	; 0xfffffec4
    c140:	00002942 	andeq	r2, r0, r2, asr #18
    c144:	636d656d 	cmnvs	sp, #457179136	; 0x1b400000
    c148:	6b636568 	blvs	18e56f0 <__bss_end__+0x18d8d28>
    c14c:	6172745f 	cmnvs	r2, pc, asr r4
    c150:	6e655f70 	mcrvs	15, 3, r5, cr5, cr0, {3}
    c154:	656c6261 	strbvs	r6, [ip, #-609]!	; 0x261
    c158:	00292864 	eoreq	r2, r9, r4, ror #16

0000c15c <__FUNCTION__.4603>:
    c15c:	6c756166 	ldfvse	f6, [r5], #-408	; 0xfffffe68
    c160:	78655f74 	stmdavc	r5!, {r2, r4, r5, r6, r8, r9, sl, fp, ip, lr}^
    c164:	74636570 	strbtvc	r6, [r3], #-1392	; 0x570
    c168:	00006465 	andeq	r6, r0, r5, ror #8

0000c16c <__FUNCTION__.4656>:
    c16c:	61746164 	cmnvs	r4, r4, ror #2
    c170:	6f62615f 	svcvs	0x0062615f
    c174:	765f7472 			; <UNDEFINED> instruction: 0x765f7472
    c178:	6f746365 	svcvs	0x00746365
    c17c:	00000072 	andeq	r0, r0, r2, ror r0

0000c180 <__FUNCTION__.4679>:
    c180:	65746e69 	ldrbvs	r6, [r4, #-3689]!	; 0xe69
    c184:	70757272 	rsbsvc	r7, r5, r2, ror r2
    c188:	65765f74 	ldrbvs	r5, [r6, #-3956]!	; 0xf74
    c18c:	726f7463 	rsbvc	r7, pc, #1660944384	; 0x63000000
    c190:	00000000 	andeq	r0, r0, r0

0000c194 <__FUNCTION__.4684>:
    c194:	636d656d 	cmnvs	sp, #457179136	; 0x1b400000
    c198:	6b636568 	blvs	18e5740 <__bss_end__+0x18d8d78>
    c19c:	696e695f 	stmdbvs	lr!, {r0, r1, r2, r3, r4, r6, r8, fp, sp, lr}^
    c1a0:	00000074 	andeq	r0, r0, r4, ror r0

0000c1a4 <__FUNCTION__.4689>:
    c1a4:	636d656d 	cmnvs	sp, #457179136	; 0x1b400000
    c1a8:	6b636568 	blvs	18e5750 <__bss_end__+0x18d8d88>
    c1ac:	006e6f5f 	rsbeq	r6, lr, pc, asr pc

0000c1b0 <__FUNCTION__.4693>:
    c1b0:	636d656d 	cmnvs	sp, #457179136	; 0x1b400000
    c1b4:	6b636568 	blvs	18e575c <__bss_end__+0x18d8d94>
    c1b8:	66666f5f 	uqsaxvs	r6, r6, pc	; <UNPREDICTABLE>
    c1bc:	00000000 	andeq	r0, r0, r0

0000c1c0 <__FUNCTION__.4697>:
    c1c0:	636d656d 	cmnvs	sp, #457179136	; 0x1b400000
    c1c4:	6b636568 	blvs	18e576c <__bss_end__+0x18d8da4>
    c1c8:	70616d5f 	rsbvc	r6, r1, pc, asr sp
    c1cc:	00000000 	andeq	r0, r0, r0

0000c1d0 <__FUNCTION__.4701>:
    c1d0:	636d656d 	cmnvs	sp, #457179136	; 0x1b400000
    c1d4:	6b636568 	blvs	18e577c <__bss_end__+0x18d8db4>
    c1d8:	6172745f 	cmnvs	r2, pc, asr r4
    c1dc:	00006b63 	andeq	r6, r0, r3, ror #22

0000c1e0 <__FUNCTION__.4469>:
    c1e0:	73746962 	cmnvc	r4, #1605632	; 0x188000
    c1e4:	7465675f 	strbtvc	r6, [r5], #-1887	; 0x75f
    c1e8:	00000000 	andeq	r0, r0, r0

0000c1ec <__FUNCTION__.4712>:
    c1ec:	636d656d 	cmnvs	sp, #457179136	; 0x1b400000
    c1f0:	6b636568 	blvs	18e5798 <__bss_end__+0x18d8dd0>
    c1f4:	6172745f 	cmnvs	r2, pc, asr r4
    c1f8:	69645f70 	stmdbvs	r4!, {r4, r5, r6, r8, r9, sl, fp, ip, lr}^
    c1fc:	6c626173 	stfvse	f6, [r2], #-460	; 0xfffffe34
    c200:	00000065 	andeq	r0, r0, r5, rrx

0000c204 <__FUNCTION__.4612>:
    c204:	5f6d6f64 	svcpl	0x006d6f64
    c208:	6d726570 	cfldr64vs	mvdx6, [r2, #-448]!	; 0xfffffe40
    c20c:	7465735f 	strbtvc	r7, [r5], #-863	; 0x35f
    c210:	00000000 	andeq	r0, r0, r0

0000c214 <__FUNCTION__.4716>:
    c214:	636d656d 	cmnvs	sp, #457179136	; 0x1b400000
    c218:	6b636568 	blvs	18e57c0 <__bss_end__+0x18d8df8>
    c21c:	6172745f 	cmnvs	r2, pc, asr r4
    c220:	6e655f70 	mcrvs	15, 3, r5, cr5, cr0, {3}
    c224:	656c6261 	strbvs	r6, [ip, #-609]!	; 0x261
    c228:	00000000 	andeq	r0, r0, r0

0000c22c <__FUNCTION__.4249>:
    c22c:	74696d65 	strbtvc	r6, [r9], #-3429	; 0xd65
    c230:	00000000 	andeq	r0, r0, r0

0000c234 <__FUNCTION__.4197>:
    c234:	5f697072 	svcpl	0x00697072
    c238:	5f746573 	svcpl	0x00746573
    c23c:	7074756f 	rsbsvc	r7, r4, pc, ror #10
    c240:	00007475 	andeq	r7, r0, r5, ror r4

0000c244 <__FUNCTION__.4272>:
    c244:	705f6176 	subsvc	r6, pc, r6, ror r1	; <UNPREDICTABLE>
    c248:	746e6972 	strbtvc	r6, [lr], #-2418	; 0x972
    c24c:	0000006b 	andeq	r0, r0, fp, rrx
    c250:	6362696c 	cmnvs	r2, #108, 18	; 0x1b0000
    c254:	2d61762f 	stclcs	6, cr7, [r1, #-188]!	; 0xffffff44
    c258:	6e697270 	mcrvs	2, 3, r7, cr9, cr0, {3}
    c25c:	632e6b74 	teqvs	lr, #116, 22	; 0x1d000
    c260:	00000000 	andeq	r0, r0, r0
    c264:	33323130 	teqcc	r2, #48, 2
    c268:	37363534 			; <UNDEFINED> instruction: 0x37363534
    c26c:	00003938 	andeq	r3, r0, r8, lsr r9
    c270:	33323130 	teqcc	r2, #48, 2
    c274:	37363534 			; <UNDEFINED> instruction: 0x37363534
    c278:	62613938 	rsbvs	r3, r1, #56, 18	; 0xe0000
    c27c:	66656463 	strbtvs	r6, [r5], -r3, ror #8
    c280:	00000000 	andeq	r0, r0, r0
    c284:	00003130 	andeq	r3, r0, r0, lsr r1
    c288:	63747570 	cmnvs	r4, #112, 10	; 0x1c000000
    c28c:	0070665f 	rsbseq	r6, r0, pc, asr r6
    c290:	74646977 	strbtvc	r6, [r4], #-2423	; 0x977
    c294:	203c2068 	eorscs	r2, ip, r8, rrx
    c298:	00003233 	andeq	r3, r0, r3, lsr r2
    c29c:	494e4150 	stmdbmi	lr, {r4, r6, r8, lr}^
    c2a0:	73253a43 	teqvc	r5, #274432	; 0x43000
    c2a4:	3a73253a 	bcc	1cd5794 <__bss_end__+0x1cc8dcc>
    c2a8:	663a6425 	ldrtvs	r6, [sl], -r5, lsr #8
    c2ac:	74616f6c 	strbtvc	r6, [r1], #-3948	; 0xf6c
    c2b0:	746f6e20 	strbtvc	r6, [pc], #-3616	; c2b8 <__FUNCTION__.4272+0x74>
    c2b4:	616e6520 	cmnvs	lr, r0, lsr #10
    c2b8:	64656c62 	strbtvs	r6, [r5], #-3170	; 0xc62
    c2bc:	0a212121 	beq	854748 <__bss_end__+0x847d80>
    c2c0:	00000000 	andeq	r0, r0, r0
    c2c4:	6e697270 	mcrvs	2, 3, r7, cr9, cr0, {3}
    c2c8:	203a6b74 	eorscs	r6, sl, r4, ror fp
    c2cc:	20746f6e 	rsbscs	r6, r4, lr, ror #30
    c2d0:	646e6168 	strbtvs	r6, [lr], #-360	; 0x168
    c2d4:	676e696c 	strbvs	r6, [lr, -ip, ror #18]!
    c2d8:	65707320 	ldrbvs	r7, [r0, #-800]!	; 0x320
    c2dc:	69666963 	stmdbvs	r6!, {r0, r1, r5, r6, r8, fp, sp, lr}^
    c2e0:	27207265 	strcs	r7, [r0, -r5, ror #4]!
    c2e4:	20276325 	eorcs	r6, r7, r5, lsr #6
    c2e8:	63736128 	cmnvs	r3, #40, 2
    c2ec:	253d6969 	ldrcs	r6, [sp, #-2409]!	; 0x969
    c2f0:	000a2964 	andeq	r2, sl, r4, ror #18
    c2f4:	494e4150 	stmdbmi	lr, {r4, r6, r8, lr}^
    c2f8:	73253a43 	teqvc	r5, #274432	; 0x43000
    c2fc:	3a73253a 	bcc	1cd57ec <__bss_end__+0x1cc8e24>
    c300:	703a6425 	eorsvc	r6, sl, r5, lsr #8
    c304:	746e6972 	strbtvc	r6, [lr], #-2418	; 0x972
    c308:	7265206b 	rsbvc	r2, r5, #107	; 0x6b
    c30c:	0a726f72 	beq	1ca80dc <__bss_end__+0x1c9b714>
    c310:	0000000a 	andeq	r0, r0, sl
    c314:	454e4f44 	strbmi	r4, [lr, #-3908]	; 0xf44
    c318:	0a212121 	beq	8547a4 <__bss_end__+0x847ddc>
    c31c:	00000000 	andeq	r0, r0, r0

0000c320 <__FUNCTION__.4220>:
    c320:	74736166 	ldrbtvc	r6, [r3], #-358	; 0x166
    c324:	746e695f 	strbtvc	r6, [lr], #-2399	; 0x95f
    c328:	75727265 	ldrbvc	r7, [r2, #-613]!	; 0x265
    c32c:	765f7470 			; <UNDEFINED> instruction: 0x765f7470
    c330:	6f746365 	svcvs	0x00746365
    c334:	00000072 	andeq	r0, r0, r2, ror r0
    c338:	494e4150 	stmdbmi	lr, {r4, r6, r8, lr}^
    c33c:	73253a43 	teqvc	r5, #274432	; 0x43000
    c340:	3a73253a 	bcc	1cd5830 <__bss_end__+0x1cc8e68>
    c344:	453a6425 	ldrmi	r6, [sl, #-1061]!	; 0x425
    c348:	524f5252 	subpl	r5, pc, #536870917	; 0x20000005
    c34c:	6e75203a 	mrcvs	0, 3, r2, cr5, cr10, {1}
    c350:	646e6168 	strbtvs	r6, [lr], #-360	; 0x168
    c354:	2064656c 	rsbcs	r6, r4, ip, ror #10
    c358:	65637865 	strbvs	r7, [r3, #-2149]!	; 0x865
    c35c:	6f697470 	svcvs	0x00697470
    c360:	253c206e 	ldrcs	r2, [ip, #-110]!	; 0x6e
    c364:	61203e73 	teqvs	r0, r3, ror lr
    c368:	43502074 	cmpmi	r0, #116	; 0x74
    c36c:	0a78253d 	beq	1e15868 <__bss_end__+0x1e08ea0>
    c370:	0000000a 	andeq	r0, r0, sl
    c374:	66617473 			; <UNDEFINED> instruction: 0x66617473
    c378:	72732d66 	rsbsvc	r2, r3, #6528	; 0x1980
    c37c:	65642f63 	strbvs	r2, [r4, #-3939]!	; 0xf63
    c380:	6c756166 	ldfvse	f6, [r5], #-408	; 0xfffffe68
    c384:	61682d74 	smcvs	33492	; 0x82d4
    c388:	656c646e 	strbvs	r6, [ip, #-1134]!	; 0x46e
    c38c:	61662d72 	smcvs	25298	; 0x62d2
    c390:	632e7473 	teqvs	lr, #1929379840	; 0x73000000
    c394:	00000000 	andeq	r0, r0, r0
    c398:	74736166 	ldrbtvc	r6, [r3], #-358	; 0x166
    c39c:	00000000 	andeq	r0, r0, r0

0000c3a0 <__FUNCTION__.4220>:
    c3a0:	66657270 			; <UNDEFINED> instruction: 0x66657270
    c3a4:	68637465 	stmdavs	r3!, {r0, r2, r5, r6, sl, ip, sp, lr}^
    c3a8:	6f62615f 	svcvs	0x0062615f
    c3ac:	765f7472 			; <UNDEFINED> instruction: 0x765f7472
    c3b0:	6f746365 	svcvs	0x00746365
    c3b4:	00000072 	andeq	r0, r0, r2, ror r0
    c3b8:	66617473 			; <UNDEFINED> instruction: 0x66617473
    c3bc:	72732d66 	rsbsvc	r2, r3, #6528	; 0x1980
    c3c0:	65642f63 	strbvs	r2, [r4, #-3939]!	; 0xf63
    c3c4:	6c756166 	ldfvse	f6, [r5], #-408	; 0xfffffe68
    c3c8:	61682d74 	smcvs	33492	; 0x82d4
    c3cc:	656c646e 	strbvs	r6, [ip, #-1134]!	; 0x46e
    c3d0:	72702d72 	rsbsvc	r2, r0, #7296	; 0x1c80
    c3d4:	74656665 	strbtvc	r6, [r5], #-1637	; 0x665
    c3d8:	632e6863 	teqvs	lr, #6488064	; 0x630000
    c3dc:	00000000 	andeq	r0, r0, r0
    c3e0:	66657270 			; <UNDEFINED> instruction: 0x66657270
    c3e4:	68637465 	stmdavs	r3!, {r0, r2, r5, r6, sl, ip, sp, lr}^
    c3e8:	6f626120 	svcvs	0x00626120
    c3ec:	00007472 	andeq	r7, r0, r2, ror r4

0000c3f0 <__FUNCTION__.4220>:
    c3f0:	65736572 	ldrbvs	r6, [r3, #-1394]!	; 0x572
    c3f4:	65765f74 	ldrbvs	r5, [r6, #-3956]!	; 0xf74
    c3f8:	726f7463 	rsbvc	r7, pc, #1660944384	; 0x63000000
    c3fc:	00000000 	andeq	r0, r0, r0
    c400:	66617473 			; <UNDEFINED> instruction: 0x66617473
    c404:	72732d66 	rsbsvc	r2, r3, #6528	; 0x1980
    c408:	65642f63 	strbvs	r2, [r4, #-3939]!	; 0xf63
    c40c:	6c756166 	ldfvse	f6, [r5], #-408	; 0xfffffe68
    c410:	61682d74 	smcvs	33492	; 0x82d4
    c414:	656c646e 	strbvs	r6, [ip, #-1134]!	; 0x46e
    c418:	65722d72 	ldrbvs	r2, [r2, #-3442]!	; 0xd72
    c41c:	2e746573 	mrccs	5, 3, r6, cr4, cr3, {3}
    c420:	00000063 	andeq	r0, r0, r3, rrx
    c424:	65736572 	ldrbvs	r6, [r3, #-1394]!	; 0x572
    c428:	00000074 	andeq	r0, r0, r4, ror r0

0000c42c <__FUNCTION__.4220>:
    c42c:	65646e75 	strbvs	r6, [r4, #-3701]!	; 0xe75
    c430:	656e6966 	strbvs	r6, [lr, #-2406]!	; 0x966
    c434:	6e695f64 	cdpvs	15, 6, cr5, cr9, cr4, {3}
    c438:	75727473 	ldrbvc	r7, [r2, #-1139]!	; 0x473
    c43c:	6f697463 	svcvs	0x00697463
    c440:	65765f6e 	ldrbvs	r5, [r6, #-3950]!	; 0xf6e
    c444:	726f7463 	rsbvc	r7, pc, #1660944384	; 0x63000000
    c448:	00000000 	andeq	r0, r0, r0
    c44c:	66617473 			; <UNDEFINED> instruction: 0x66617473
    c450:	72732d66 	rsbsvc	r2, r3, #6528	; 0x1980
    c454:	65642f63 	strbvs	r2, [r4, #-3939]!	; 0xf63
    c458:	6c756166 	ldfvse	f6, [r5], #-408	; 0xfffffe68
    c45c:	61682d74 	smcvs	33492	; 0x82d4
    c460:	656c646e 	strbvs	r6, [ip, #-1134]!	; 0x46e
    c464:	6e752d72 	mrcvs	13, 3, r2, cr5, cr2, {3}
    c468:	69666564 	stmdbvs	r6!, {r2, r5, r6, r8, sl, sp, lr}^
    c46c:	2d64656e 	cfstr64cs	mvdx6, [r4, #-440]!	; 0xfffffe48
    c470:	74736e69 	ldrbtvc	r6, [r3], #-3689	; 0xe69
    c474:	0000632e 	andeq	r6, r0, lr, lsr #6
    c478:	65646e75 	strbvs	r6, [r4, #-3701]!	; 0xe75
    c47c:	656e6966 	strbvs	r6, [lr, #-2406]!	; 0x966
    c480:	6e692064 	cdpvs	0, 6, cr2, cr9, cr4, {3}
    c484:	00007473 	andeq	r7, r0, r3, ror r4

0000c488 <__FUNCTION__.4237>:
    c488:	6c616d6b 	stclvs	13, cr6, [r1], #-428	; 0xfffffe54
    c48c:	5f636f6c 	svcpl	0x00636f6c
    c490:	74696e69 	strbtvc	r6, [r9], #-3689	; 0xe69
    c494:	7465735f 	strbtvc	r7, [r5], #-863	; 0x35f
    c498:	6174735f 	cmnvs	r4, pc, asr r3
    c49c:	00007472 	andeq	r7, r0, r2, ror r4

0000c4a0 <__FUNCTION__.4241>:
    c4a0:	6c616d6b 	stclvs	13, cr6, [r1], #-428	; 0xfffffe54
    c4a4:	00636f6c 	rsbeq	r6, r3, ip, ror #30

0000c4a8 <__FUNCTION__.4253>:
    c4a8:	6c616d6b 	stclvs	13, cr6, [r1], #-428	; 0xfffffe54
    c4ac:	5f636f6c 	svcpl	0x00636f6c
    c4b0:	67696c61 	strbvs	r6, [r9, -r1, ror #24]!
    c4b4:	0064656e 	rsbeq	r6, r4, lr, ror #10
    c4b8:	6c616d6b 	stclvs	13, cr6, [r1], #-428	; 0xfffffe54
    c4bc:	2e636f6c 	cdpcs	15, 6, cr6, cr3, cr12, {3}
    c4c0:	00000063 	andeq	r0, r0, r3, rrx
    c4c4:	494e4150 	stmdbmi	lr, {r4, r6, r8, lr}^
    c4c8:	73253a43 	teqvc	r5, #274432	; 0x43000
    c4cc:	3a73253a 	bcc	1cd59bc <__bss_end__+0x1cc8ff4>
    c4d0:	613a6425 	teqvs	sl, r5, lsr #8
    c4d4:	20726464 	rsbscs	r6, r2, r4, ror #8
    c4d8:	6568203e 	strbvs	r2, [r8, #-62]!	; 0x3e
    c4dc:	000a7061 	andeq	r7, sl, r1, rrx
    c4e0:	494e4150 	stmdbmi	lr, {r4, r6, r8, lr}^
    c4e4:	73253a43 	teqvc	r5, #274432	; 0x43000
    c4e8:	3a73253a 	bcc	1cd59d8 <__bss_end__+0x1cc9010>
    c4ec:	733a6425 	teqvc	sl, #620756992	; 0x25000000
    c4f0:	00000a7a 	andeq	r0, r0, sl, ror sl
    c4f4:	4f525245 	svcmi	0x00525245
    c4f8:	73253a52 	teqvc	r5, #335872	; 0x52000
    c4fc:	3a73253a 	bcc	1cd59ec <__bss_end__+0x1cc9024>
    c500:	203a6425 	eorscs	r6, sl, r5, lsr #8
    c504:	534c4146 	movtpl	r4, #49478	; 0xc146
    c508:	283c2845 	ldmdacs	ip!, {r0, r2, r6, fp, sp}
    c50c:	6c612828 	stclvs	8, cr2, [r1], #-160	; 0xffffff60
    c510:	6d6e6769 	stclvs	7, cr6, [lr, #-420]!	; 0xfffffe5c
    c514:	29746e65 	ldmdbcs	r4!, {r0, r2, r5, r6, r9, sl, fp, sp, lr}^
    c518:	61282d26 	teqvs	r8, r6, lsr #26
    c51c:	6e67696c 	cdpvs	9, 6, cr6, cr7, cr12, {3}
    c520:	746e656d 	strbtvc	r6, [lr], #-1389	; 0x56d
    c524:	3d202929 	stccc	9, cr2, [r0, #-164]!	; 0xffffff5c
    c528:	6128203d 	teqvs	r8, sp, lsr r0
    c52c:	6e67696c 	cdpvs	9, 6, cr6, cr7, cr12, {3}
    c530:	746e656d 	strbtvc	r6, [lr], #-1389	; 0x56d
    c534:	293e2929 	ldmdbcs	lr!, {r0, r3, r5, r8, fp, sp}
    c538:	7361203a 	cmnvc	r1, #58	; 0x3a
    c53c:	696d7573 	stmdbvs	sp!, {r0, r1, r4, r5, r6, r8, sl, ip, sp, lr}^
    c540:	7020676e 	eorvc	r6, r0, lr, ror #14
    c544:	7265776f 	rsbvc	r7, r5, #29097984	; 0x1bc0000
    c548:	20666f20 	rsbcs	r6, r6, r0, lsr #30
    c54c:	0a6f7774 	beq	1bea324 <__bss_end__+0x1bdd95c>
    c550:	00000000 	andeq	r0, r0, r0
    c554:	4f525245 	svcmi	0x00525245
    c558:	73253a52 	teqvc	r5, #335872	; 0x52000
    c55c:	3a73253a 	bcc	1cd5a4c <__bss_end__+0x1cc9084>
    c560:	203a6425 	eorscs	r6, sl, r5, lsr #8
    c564:	534c4146 	movtpl	r4, #49478	; 0xc146
    c568:	283c2845 	ldmdacs	ip!, {r0, r2, r6, fp, sp}
    c56c:	29682828 	stmdbcs	r8!, {r3, r5, fp, sp}^
    c570:	28202620 	stmdacs	r0!, {r5, r9, sl, sp}
    c574:	70797428 	rsbsvc	r7, r9, r8, lsr #8
    c578:	28666f65 	stmdacs	r6!, {r0, r2, r5, r6, r8, r9, sl, fp, sp, lr}^
    c57c:	28292968 	stmdacs	r9!, {r3, r5, r6, r8, fp, sp}
    c580:	67696c61 	strbvs	r6, [r9, -r1, ror #24]!
    c584:	6e656d6e 	cdpvs	13, 6, cr6, cr5, cr14, {3}
    c588:	2d202974 	stccs	9, cr2, [r0, #-464]!	; 0xfffffe30
    c58c:	29293120 	stmdbcs	r9!, {r5, r8, ip, sp}
    c590:	203d3d20 	eorscs	r3, sp, r0, lsr #26
    c594:	293e2930 	ldmdbcs	lr!, {r4, r5, r8, fp, sp}
    c598:	6d69203a 	stclvs	0, cr2, [r9, #-232]!	; 0xffffff18
    c59c:	73736f70 	cmnvc	r3, #112, 30	; 0x1c0
    c5a0:	656c6269 	strbvs	r6, [ip, #-617]!	; 0x269
    c5a4:	0000000a 	andeq	r0, r0, sl

Disassembly of section .bss:

0000c5a8 <__bss_start__>:
    c5a8:	00000000 	andeq	r0, r0, r0

0000c5ac <pt_st>:
    c5ac:	00000000 	andeq	r0, r0, r0

0000c5b0 <last_fault>:
	...

0000c5bc <mmu_resume_p>:
    c5bc:	00000000 	andeq	r0, r0, r0

0000c5c0 <pt>:
    c5c0:	00000000 	andeq	r0, r0, r0

0000c5c4 <buf.4189>:
	...

Disassembly of section .ARM.attributes:

00000000 <.ARM.attributes>:
   0:	00002a41 	andeq	r2, r0, r1, asr #20
   4:	61656100 	cmnvs	r5, r0, lsl #2
   8:	01006962 	tsteq	r0, r2, ror #18
   c:	00000020 	andeq	r0, r0, r0, lsr #32
  10:	4b5a3605 	blmi	168d82c <__bss_end__+0x1680e64>
  14:	08070600 	stmdaeq	r7, {r9, sl}
  18:	12010901 	andne	r0, r1, #16384	; 0x4000
  1c:	15011404 	strne	r1, [r1, #-1028]	; 0x404
  20:	18031701 	stmdane	r3, {r0, r8, r9, sl, ip}
  24:	22011a01 	andcs	r1, r1, #4096	; 0x1000
  28:	Address 0x0000000000000028 is out of bounds.


Disassembly of section .comment:

00000000 <.comment>:
   0:	3a434347 	bcc	10d0d24 <__bss_end__+0x10c435c>
   4:	4e472820 	cdpmi	8, 4, cr2, cr7, cr0, {1}
   8:	34202955 	strtcc	r2, [r0], #-2389	; 0x955
   c:	332e382e 	teqcc	lr, #3014656	; 0x2e0000
  10:	43434700 	movtmi	r4, #14080	; 0x3700
  14:	3128203a 	teqcc	r8, sl, lsr r0
  18:	2e363a35 	mrccs	10, 1, r3, cr6, cr5, {1}
  1c:	2b312e33 	blcs	c4b8f0 <__bss_end__+0xc3ef28>
  20:	326e7673 	rsbcc	r7, lr, #120586240	; 0x7300000
  24:	33303335 	teqcc	r0, #-738197504	; 0xd4000000
  28:	62312d39 	eorsvs	r2, r1, #3648	; 0xe40
  2c:	646c6975 	strbtvs	r6, [ip], #-2421	; 0x975
  30:	36202931 			; <UNDEFINED> instruction: 0x36202931
  34:	312e332e 	teqcc	lr, lr, lsr #6
  38:	31303220 	teqcc	r0, r0, lsr #4
  3c:	32363037 	eorscc	r3, r6, #55	; 0x37
  40:	Address 0x0000000000000040 is out of bounds.


Disassembly of section .debug_info:

00000000 <.debug_info>:
       0:	00000564 	andeq	r0, r0, r4, ror #10
       4:	00000004 	andeq	r0, r0, r4
       8:	01040000 	mrseq	r0, (UNDEF: 4)
       c:	0000015a 	andeq	r0, r0, sl, asr r1
      10:	0001ec01 	andeq	lr, r1, r1, lsl #24
      14:	0000ec00 	andeq	lr, r0, r0, lsl #24
      18:	00802000 	addeq	r2, r0, r0
      1c:	00023800 	andeq	r3, r2, r0, lsl #16
      20:	00000000 	andeq	r0, r0, r0
      24:	05040200 	streq	r0, [r4, #-512]	; 0x200
      28:	00746e69 	rsbseq	r6, r4, r9, ror #28
      2c:	df070403 	svcle	0x00070403
      30:	03000001 	movweq	r0, #1
      34:	006f0601 	rsbeq	r0, pc, r1, lsl #12
      38:	02030000 	andeq	r0, r3, #0
      3c:	00023505 	andeq	r3, r2, r5, lsl #10
      40:	05040300 	streq	r0, [r4, #-768]	; 0x300
      44:	0000020e 	andeq	r0, r0, lr, lsl #4
      48:	09050803 	stmdbeq	r5, {r0, r1, fp}
      4c:	03000002 	movweq	r0, #2
      50:	006d0801 	rsbeq	r0, sp, r1, lsl #16
      54:	02030000 	andeq	r0, r3, #0
      58:	00002407 	andeq	r2, r0, r7, lsl #8
      5c:	023f0400 	eorseq	r0, pc, #0, 8
      60:	34050000 	strcc	r0, [r5], #-0
      64:	00000068 	andeq	r0, r0, r8, rrx
      68:	da070403 	ble	1c107c <__bss_end__+0x1b46b4>
      6c:	03000001 	movweq	r0, #1
      70:	01d50708 	bicseq	r0, r5, r8, lsl #14
      74:	04030000 	streq	r0, [r3], #-0
      78:	00020007 	andeq	r0, r2, r7
      7c:	08010300 	stmdaeq	r1, {r8, r9}
      80:	00000076 	andeq	r0, r0, r6, ror r0
      84:	008a0405 	addeq	r0, sl, r5, lsl #8
      88:	7d060000 	stcvc	0, cr0, [r6, #-0]
      8c:	07000000 	streq	r0, [r0, -r0]
      90:	0000007d 	andeq	r0, r0, sp, ror r0
      94:	0000009f 	muleq	r0, pc, r0	; <UNPREDICTABLE>
      98:	00007608 	andeq	r7, r0, r8, lsl #12
      9c:	09000700 	stmdbeq	r0, {r8, r9, sl}
      a0:	ba710401 	blt	1c410ac <__bss_end__+0x1c346e4>
      a4:	0a000000 	beq	ac <__code_start__-0x7f54>
      a8:	0000009e 	muleq	r0, lr, r0
      ac:	005a0a05 	subseq	r0, sl, r5, lsl #20
      b0:	0a0d0000 	beq	3400b8 <__bss_end__+0x3336f0>
      b4:	00000000 	andeq	r0, r0, r0
      b8:	b20b0009 	andlt	r0, fp, #9
      bc:	01000000 	mrseq	r0, (UNDEF: 0)
      c0:	00802004 	addeq	r2, r0, r4
      c4:	00019c00 	andeq	r9, r1, r0, lsl #24
      c8:	819c0100 	orrshi	r0, ip, r0, lsl #2
      cc:	0c000003 	stceq	0, cr0, [r0], {3}
      d0:	00000325 	andeq	r0, r0, r5, lsr #6
      d4:	005d0401 	subseq	r0, sp, r1, lsl #8
      d8:	00000000 	andeq	r0, r0, r0
      dc:	760d0000 	strvc	r0, [sp], -r0
      e0:	01006c61 	tsteq	r0, r1, ror #24
      e4:	00005d04 	andeq	r5, r0, r4, lsl #26
      e8:	00002c00 	andeq	r2, r0, r0, lsl #24
      ec:	00d30e00 	sbcseq	r0, r3, r0, lsl #28
      f0:	03910000 	orrseq	r0, r1, #0
      f4:	03050000 	movweq	r0, #20480	; 0x5000
      f8:	0000b37c 	andeq	fp, r0, ip, ror r3
      fc:	0080340f 	addeq	r3, r0, pc, lsl #8
     100:	0004ba00 	andeq	fp, r4, r0, lsl #20
     104:	80401000 	subhi	r1, r0, r0
     108:	04c10000 	strbeq	r0, [r1], #0
     10c:	01190000 	tsteq	r9, r0
     110:	01110000 	tsteq	r1, r0
     114:	00760250 	rsbseq	r0, r6, r0, asr r2
     118:	80501000 	subshi	r1, r0, r0
     11c:	04c10000 	strbeq	r0, [r1], #0
     120:	01360000 	teqeq	r6, r0
     124:	01110000 	tsteq	r1, r0
     128:	00740251 	rsbseq	r0, r4, r1, asr r2
     12c:	05500111 	ldrbeq	r0, [r0, #-273]	; 0x111
     130:	00b26003 	adcseq	r6, r2, r3
     134:	5c100000 	ldcpl	0, cr0, [r0], {-0}
     138:	d7000080 	strle	r0, [r0, -r0, lsl #1]
     13c:	50000004 	andpl	r0, r0, r4
     140:	11000001 	tstne	r0, r1
     144:	75025101 	strvc	r5, [r2, #-257]	; 0x101
     148:	50011100 	andpl	r1, r1, r0, lsl #2
     14c:	00007402 	andeq	r7, r0, r2, lsl #8
     150:	00806410 	addeq	r6, r0, r0, lsl r4
     154:	0004c100 	andeq	ip, r4, r0, lsl #2
     158:	00016400 	andeq	r6, r1, r0, lsl #8
     15c:	50011100 	andpl	r1, r1, r0, lsl #2
     160:	00007602 	andeq	r7, r0, r2, lsl #12
     164:	00806c10 	addeq	r6, r0, r0, lsl ip
     168:	0004c100 	andeq	ip, r4, r0, lsl #2
     16c:	00017b00 	andeq	r7, r1, r0, lsl #22
     170:	50011100 	andpl	r1, r1, r0, lsl #2
     174:	b2980305 	addslt	r0, r8, #335544320	; 0x14000000
     178:	0f000000 	svceq	0x00000000
     17c:	00008070 	andeq	r8, r0, r0, ror r0
     180:	000004ed 	andeq	r0, r0, sp, ror #9
     184:	00807c0f 	addeq	r7, r0, pc, lsl #24
     188:	0004f800 	andeq	pc, r4, r0, lsl #16
     18c:	80981000 	addshi	r1, r8, r0
     190:	04c10000 	strbeq	r0, [r1], #0
     194:	01c50000 	biceq	r0, r5, r0
     198:	01110000 	tsteq	r1, r0
     19c:	113d0153 	teqne	sp, r3, asr r1
     1a0:	03055201 	movweq	r5, #20993	; 0x5201
     1a4:	0000b37c 	andeq	fp, r0, ip, ror r3
     1a8:	05510111 	ldrbeq	r0, [r1, #-273]	; 0x111
     1ac:	00b2d003 	adcseq	sp, r2, r3
     1b0:	50011100 	andpl	r1, r1, r0, lsl #2
     1b4:	b2bc0305 	adcslt	r0, ip, #335544320	; 0x14000000
     1b8:	02110000 	andseq	r0, r1, #0
     1bc:	0305007d 	movweq	r0, #20605	; 0x507d
     1c0:	0000b2e4 	andeq	fp, r0, r4, ror #5
     1c4:	809c0f00 	addshi	r0, ip, r0, lsl #30
     1c8:	04ff0000 	ldrbteq	r0, [pc], #0	; 1d0 <__code_start__-0x7e30>
     1cc:	a8100000 	ldmdage	r0, {}	; <UNPREDICTABLE>
     1d0:	c1000080 	smlabbgt	r0, r0, r0, r0
     1d4:	e2000004 	and	r0, r0, #4
     1d8:	11000001 	tstne	r0, r1
     1dc:	76025001 	strvc	r5, [r2], -r1
     1e0:	b0100000 	andslt	r0, r0, r0
     1e4:	c1000080 	smlabbgt	r0, r0, r0, r0
     1e8:	f9000004 			; <UNDEFINED> instruction: 0xf9000004
     1ec:	11000001 	tstne	r0, r1
     1f0:	03055001 	movweq	r5, #20481	; 0x5001
     1f4:	0000b300 	andeq	fp, r0, r0, lsl #6
     1f8:	80c01000 	sbchi	r1, r0, r0
     1fc:	05060000 	streq	r0, [r6, #-0]
     200:	02120000 	andseq	r0, r2, #0
     204:	01110000 	tsteq	r1, r0
     208:	11390152 	teqne	r9, r2, asr r1
     20c:	74025101 	strvc	r5, [r2], #-257	; 0x101
     210:	c8100000 	ldmdagt	r0, {}	; <UNPREDICTABLE>
     214:	c1000080 	smlabbgt	r0, r0, r0, r0
     218:	26000004 	strcs	r0, [r0], -r4
     21c:	11000002 	tstne	r0, r2
     220:	76025001 	strvc	r5, [r2], -r1
     224:	d8100000 	ldmdale	r0, {}	; <UNPREDICTABLE>
     228:	c1000080 	smlabbgt	r0, r0, r0, r0
     22c:	49000004 	stmdbmi	r0, {r2}
     230:	11000002 	tstne	r0, r2
     234:	75025201 	strvc	r5, [r2, #-513]	; 0x201
     238:	51011100 	mrspl	r1, (UNDEF: 17)
     23c:	11007402 	tstne	r0, r2, lsl #8
     240:	03055001 	movweq	r5, #20481	; 0x5001
     244:	0000b314 	andeq	fp, r0, r4, lsl r3
     248:	80e01000 	rschi	r1, r0, r0
     24c:	04c10000 	strbeq	r0, [r1], #0
     250:	025d0000 	subseq	r0, sp, #0
     254:	01110000 	tsteq	r1, r0
     258:	00760250 	rsbseq	r0, r6, r0, asr r2
     25c:	80f01000 	rscshi	r1, r0, r0
     260:	04c10000 	strbeq	r0, [r1], #0
     264:	027a0000 	rsbseq	r0, sl, #0
     268:	01110000 	tsteq	r1, r0
     26c:	00740251 	rsbseq	r0, r4, r1, asr r2
     270:	05500111 	ldrbeq	r0, [r0, #-273]	; 0x111
     274:	00b26003 	adcseq	r6, r2, r3
     278:	f40f0000 	vst4.8	{d0-d3}, [pc], r0
     27c:	ba000080 	blt	484 <__code_start__-0x7b7c>
     280:	10000004 	andne	r0, r0, r4
     284:	000080fc 	strdeq	r8, [r0], -ip
     288:	00000521 	andeq	r0, r0, r1, lsr #10
     28c:	00000297 	muleq	r0, r7, r2
     290:	02500111 	subseq	r0, r0, #1073741828	; 0x40000004
     294:	0f000074 	svceq	0x00000074
     298:	00008108 	andeq	r8, r0, r8, lsl #2
     29c:	000004f8 	strdeq	r0, [r0], -r8
     2a0:	00812410 	addeq	r2, r1, r0, lsl r4
     2a4:	0004c100 	andeq	ip, r4, r0, lsl #2
     2a8:	0002d800 	andeq	sp, r2, r0, lsl #16
     2ac:	53011100 	movwpl	r1, #4352	; 0x1100
     2b0:	01114801 	tsteq	r1, r1, lsl #16
     2b4:	7c030552 	cfstr32vc	mvfx0, [r3], {82}	; 0x52
     2b8:	110000b3 	strhne	r0, [r0, -r3]
     2bc:	03055101 	movweq	r5, #20737	; 0x5101
     2c0:	0000b2d0 	ldrdeq	fp, [r0], -r0
     2c4:	05500111 	ldrbeq	r0, [r0, #-273]	; 0x111
     2c8:	00b2bc03 	adcseq	fp, r2, r3, lsl #24
     2cc:	7d021100 	stfvcs	f1, [r2, #-0]
     2d0:	2c030500 	cfstr32cs	mvfx0, [r3], {-0}
     2d4:	000000b3 	strheq	r0, [r0], -r3
     2d8:	0081280f 	addeq	r2, r1, pc, lsl #16
     2dc:	0004ff00 	andeq	pc, r4, r0, lsl #30
     2e0:	81301000 	teqhi	r0, r0
     2e4:	04c10000 	strbeq	r0, [r1], #0
     2e8:	02f50000 	rscseq	r0, r5, #0
     2ec:	01110000 	tsteq	r1, r0
     2f0:	00760250 	rsbseq	r0, r6, r0, asr r2
     2f4:	81401000 	mrshi	r1, (UNDEF: 64)
     2f8:	04c10000 	strbeq	r0, [r1], #0
     2fc:	03180000 	tsteq	r8, #0
     300:	01110000 	tsteq	r1, r0
     304:	00750252 	rsbseq	r0, r5, r2, asr r2
     308:	02510111 	subseq	r0, r1, #1073741828	; 0x40000004
     30c:	01110074 	tsteq	r1, r4, ror r0
     310:	40030550 	andmi	r0, r3, r0, asr r5
     314:	000000b3 	strheq	r0, [r0], -r3
     318:	0081440f 	addeq	r4, r1, pc, lsl #8
     31c:	0004ed00 	andeq	lr, r4, r0, lsl #26
     320:	81500f00 	cmphi	r0, r0, lsl #30
     324:	04f80000 	ldrbteq	r0, [r8], #0
     328:	6c100000 	ldcvs	0, cr0, [r0], {-0}
     32c:	c1000081 	smlabbgt	r0, r1, r0, r0
     330:	62000004 	andvs	r0, r0, #4
     334:	11000003 	tstne	r0, r3
     338:	4a015301 	bmi	54f44 <__bss_end__+0x4857c>
     33c:	05520111 	ldrbeq	r0, [r2, #-273]	; 0x111
     340:	00b37c03 	adcseq	r7, r3, r3, lsl #24
     344:	51011100 	mrspl	r1, (UNDEF: 17)
     348:	b2d00305 	sbcslt	r0, r0, #335544320	; 0x14000000
     34c:	01110000 	tsteq	r1, r0
     350:	bc030550 	cfstr32lt	mvfx0, [r3], {80}	; 0x50
     354:	110000b2 	strhne	r0, [r0, -r2]
     358:	05007d02 	streq	r7, [r0, #-3330]	; 0xd02
     35c:	00b2e403 	adcseq	lr, r2, r3, lsl #8
     360:	700f0000 	andvc	r0, pc, r0
     364:	ff000081 			; <UNDEFINED> instruction: 0xff000081
     368:	12000004 	andne	r0, r0, #4
     36c:	00008180 	andeq	r8, r0, r0, lsl #3
     370:	00000506 	andeq	r0, r0, r6, lsl #10
     374:	01520111 	cmpeq	r2, r1, lsl r1
     378:	51011139 	tstpl	r1, r9, lsr r1
     37c:	00007402 	andeq	r7, r0, r2, lsl #8
     380:	007d0700 	rsbseq	r0, sp, r0, lsl #14
     384:	03910000 	orrseq	r0, r1, #0
     388:	76080000 	strvc	r0, [r8], -r0
     38c:	0b000000 	bleq	394 <__code_start__-0x7c6c>
     390:	03810600 	orreq	r0, r1, #0, 12
     394:	3d130000 	ldccc	0, cr0, [r3, #-0]
     398:	01000000 	mrseq	r0, (UNDEF: 0)
     39c:	0081bc1f 	addeq	fp, r1, pc, lsl ip
     3a0:	00009c00 	andeq	r9, r0, r0, lsl #24
     3a4:	b59c0100 	ldrlt	r0, [ip, #256]	; 0x100
     3a8:	0e000004 	cdpeq	0, 0, cr0, cr0, cr4, {0}
     3ac:	000000d3 	ldrdeq	r0, [r0], -r3
     3b0:	000004b5 			; <UNDEFINED> instruction: 0x000004b5
     3b4:	b3740305 	cmnlt	r4, #335544320	; 0x14000000
     3b8:	73140000 	tstvc	r4, #0
     3bc:	24010070 	strcs	r0, [r1], #-112	; 0x70
     3c0:	0000005d 	andeq	r0, r0, sp, asr r0
     3c4:	07000000 	streq	r0, [r0, -r0]
     3c8:	00820815 	addeq	r0, r2, r5, lsl r8
     3cc:	00002400 	andeq	r2, r0, r0, lsl #8
     3d0:	0003f900 	andeq	pc, r3, r0, lsl #18
     3d4:	00691600 	rsbeq	r1, r9, r0, lsl #12
     3d8:	00252c01 	eoreq	r2, r5, r1, lsl #24
     3dc:	00580000 	subseq	r0, r8, r0
     3e0:	20120000 	andscs	r0, r2, r0
     3e4:	ba000082 	blt	5f4 <__code_start__-0x7a0c>
     3e8:	11000000 	mrsne	r0, (UNDEF: 0)
     3ec:	74025101 	strvc	r5, [r2], #-257	; 0x101
     3f0:	50011100 	andpl	r1, r1, r0, lsl #2
     3f4:	00007502 	andeq	r7, r0, r2, lsl #10
     3f8:	81c80f00 	bichi	r0, r8, r0, lsl #30
     3fc:	05360000 	ldreq	r0, [r6, #-0]!
     400:	cc0f0000 	stcgt	0, cr0, [pc], {-0}
     404:	3d000081 	stccc	0, cr0, [r0, #-516]	; 0xfffffdfc
     408:	0f000005 	svceq	0x00000005
     40c:	000081d0 	ldrdeq	r8, [r0], -r0
     410:	00000544 	andeq	r0, r0, r4, asr #10
     414:	0081dc0f 	addeq	sp, r1, pc, lsl #24
     418:	0004f800 	andeq	pc, r4, r0, lsl #16
     41c:	81f81000 	mvnshi	r1, r0
     420:	04c10000 	strbeq	r0, [r1], #0
     424:	04560000 	ldrbeq	r0, [r6], #-0
     428:	01110000 	tsteq	r1, r0
     42c:	22080253 	andcs	r0, r8, #805306373	; 0x30000005
     430:	05520111 	ldrbeq	r0, [r2, #-273]	; 0x111
     434:	00b37403 	adcseq	r7, r3, r3, lsl #8
     438:	51011100 	mrspl	r1, (UNDEF: 17)
     43c:	b2d00305 	sbcslt	r0, r0, #335544320	; 0x14000000
     440:	01110000 	tsteq	r1, r0
     444:	bc030550 	cfstr32lt	mvfx0, [r3], {80}	; 0x50
     448:	110000b2 	strhne	r0, [r0, -r2]
     44c:	05007d02 	streq	r7, [r0, #-3330]	; 0xd02
     450:	00b35403 	adcseq	r5, r3, r3, lsl #8
     454:	fc0f0000 	stc2	0, cr0, [pc], {-0}
     458:	ff000081 			; <UNDEFINED> instruction: 0xff000081
     45c:	10000004 	andne	r0, r0, r4
     460:	00008204 	andeq	r8, r0, r4, lsl #4
     464:	0000054f 	andeq	r0, r0, pc, asr #10
     468:	00000474 	andeq	r0, r0, r4, ror r4
     46c:	03500111 	cmpeq	r0, #1073741828	; 0x40000004
     470:	0024464c 	eoreq	r4, r4, ip, asr #12
     474:	0082080f 	addeq	r0, r2, pc, lsl #16
     478:	00056000 	andeq	r6, r5, r0
     47c:	82341000 	eorshi	r1, r4, #0
     480:	04c10000 	strbeq	r0, [r1], #0
     484:	04940000 	ldreq	r0, [r4], #0
     488:	01110000 	tsteq	r1, r0
     48c:	58030550 	stmdapl	r3, {r4, r6, r8, sl}
     490:	000000b2 	strheq	r0, [r0], -r2
     494:	00823c10 	addeq	r3, r2, r0, lsl ip
     498:	0004c100 	andeq	ip, r4, r0, lsl #2
     49c:	0004ab00 	andeq	sl, r4, r0, lsl #22
     4a0:	50011100 	andpl	r1, r1, r0, lsl #2
     4a4:	b3680305 	cmnlt	r8, #335544320	; 0x14000000
     4a8:	0f000000 	svceq	0x00000000
     4ac:	00008240 	andeq	r8, r0, r0, asr #4
     4b0:	000004ff 	strdeq	r0, [r0], -pc	; <UNPREDICTABLE>
     4b4:	008f0600 	addeq	r0, pc, r0, lsl #12
     4b8:	be170000 	cdplt	0, 1, cr0, cr7, cr0, {0}
     4bc:	02000000 	andeq	r0, r0, #0
     4c0:	0a9e1815 	beq	fe78651c <__bss_end__+0xfe779b54>
     4c4:	29030000 	stmdbcs	r3, {}	; <UNPREDICTABLE>
     4c8:	00000025 	andeq	r0, r0, r5, lsr #32
     4cc:	000004d7 	ldrdeq	r0, [r0], -r7
     4d0:	00008419 	andeq	r8, r0, r9, lsl r4
     4d4:	1b001a00 	blne	6cdc <__code_start__-0x1324>
     4d8:	00000037 	andeq	r0, r0, r7, lsr r0
     4dc:	04ed9b03 	strbteq	r9, [sp], #2819	; 0xb03
     4e0:	2c190000 	ldccs	0, cr0, [r9], {-0}
     4e4:	19000000 	stmdbne	r0, {}	; <UNPREDICTABLE>
     4e8:	0000002c 	andeq	r0, r0, ip, lsr #32
     4ec:	00881c00 	addeq	r1, r8, r0, lsl #24
     4f0:	1b020000 	blne	804f8 <__bss_end__+0x73b30>
     4f4:	0000002c 	andeq	r0, r0, ip, lsr #32
     4f8:	00024817 	andeq	r4, r2, r7, lsl r8
     4fc:	171e0300 	ldrne	r0, [lr, -r0, lsl #6]
     500:	0000007b 	andeq	r0, r0, fp, ror r0
     504:	451b6503 	ldrmi	r6, [fp, #-1283]	; 0x503
     508:	02000000 	andeq	r0, r0, #0
     50c:	0005212f 	andeq	r2, r5, pc, lsr #2
     510:	005d1900 	subseq	r1, sp, r0, lsl #18
     514:	5d190000 	ldcpl	0, cr0, [r9, #-0]
     518:	19000000 	stmdbne	r0, {}	; <UNPREDICTABLE>
     51c:	0000005d 	andeq	r0, r0, sp, asr r0
     520:	00541800 	subseq	r1, r4, r0, lsl #16
     524:	a7030000 	strge	r0, [r3, -r0]
     528:	0000002c 	andeq	r0, r0, ip, lsr #32
     52c:	00000536 	andeq	r0, r0, r6, lsr r5
     530:	00002c19 	andeq	r2, r0, r9, lsl ip
     534:	c7170000 	ldrgt	r0, [r7, -r0]
     538:	02000001 	andeq	r0, r0, #1
     53c:	00e01709 	rsceq	r1, r0, r9, lsl #14
     540:	0c020000 	stceq	0, cr0, [r2], {-0}
     544:	00014b1c 	andeq	r4, r1, ip, lsl fp
     548:	256c0400 	strbcs	r0, [ip, #-1024]!	; 0x400
     54c:	1b000000 	blne	554 <__code_start__-0x7aac>
     550:	00000015 	andeq	r0, r0, r5, lsl r0
     554:	05601102 	strbeq	r1, [r0, #-258]!	; 0x102
     558:	5d190000 	ldcpl	0, cr0, [r9, #-0]
     55c:	00000000 	andeq	r0, r0, r0
     560:	00021717 	andeq	r1, r2, r7, lsl r7
     564:	001f0200 	andseq	r0, pc, r0, lsl #4
     568:	0000154e 	andeq	r1, r0, lr, asr #10
     56c:	017c0004 	cmneq	ip, r4
     570:	01040000 	mrseq	r0, (UNDEF: 4)
     574:	0000015a 	andeq	r0, r0, sl, asr r1
     578:	0002c001 	andeq	ip, r2, r1
     57c:	0000ec00 	andeq	lr, r0, r0, lsl #24
     580:	00839c00 	addeq	r9, r3, r0, lsl #24
     584:	0008dc00 	andeq	sp, r8, r0, lsl #24
     588:	00015d00 	andeq	r5, r1, r0, lsl #26
     58c:	05040200 	streq	r0, [r4, #-512]	; 0x200
     590:	00746e69 	rsbseq	r6, r4, r9, ror #28
     594:	00028e03 	andeq	r8, r2, r3, lsl #28
     598:	37d40300 	ldrbcc	r0, [r4, r0, lsl #6]
     59c:	04000000 	streq	r0, [r0], #-0
     5a0:	01df0704 	bicseq	r0, pc, r4, lsl #14
     5a4:	01040000 	mrseq	r0, (UNDEF: 4)
     5a8:	00006f06 	andeq	r6, r0, r6, lsl #30
     5ac:	05020400 	streq	r0, [r2, #-1024]	; 0x400
     5b0:	00000235 	andeq	r0, r0, r5, lsr r2
     5b4:	0e050404 	cdpeq	4, 0, cr0, cr5, cr4, {0}
     5b8:	04000002 	streq	r0, [r0], #-2
     5bc:	02090508 	andeq	r0, r9, #8, 10	; 0x2000000
     5c0:	01040000 	mrseq	r0, (UNDEF: 4)
     5c4:	00006d08 	andeq	r6, r0, r8, lsl #26
     5c8:	07020400 	streq	r0, [r2, -r0, lsl #8]
     5cc:	00000024 	andeq	r0, r0, r4, lsr #32
     5d0:	00023f03 	andeq	r3, r2, r3, lsl #30
     5d4:	73340400 	teqvc	r4, #0, 8
     5d8:	04000000 	streq	r0, [r0], #-0
     5dc:	01da0704 	bicseq	r0, sl, r4, lsl #14
     5e0:	08040000 	stmdaeq	r4, {}	; <UNPREDICTABLE>
     5e4:	0001d507 	andeq	sp, r1, r7, lsl #10
     5e8:	07040400 	streq	r0, [r4, -r0, lsl #8]
     5ec:	00000200 	andeq	r0, r0, r0, lsl #4
     5f0:	01040405 	tsteq	r4, r5, lsl #8
     5f4:	00007608 	andeq	r7, r0, r8, lsl #12
     5f8:	97040600 	strls	r0, [r4, -r0, lsl #12]
     5fc:	07000000 	streq	r0, [r0, -r0]
     600:	0000008a 	andeq	r0, r0, sl, lsl #1
     604:	0004ff08 	andeq	pc, r4, r8, lsl #30
     608:	2a050400 	bcs	141610 <__bss_end__+0x134c48>
     60c:	00000257 	andeq	r0, r0, r7, asr r2
     610:	0004ce09 	andeq	ip, r4, r9, lsl #28
     614:	372c0500 	strcc	r0, [ip, -r0, lsl #10]!
     618:	04000000 	streq	r0, [r0], #-0
     61c:	09001f01 	stmdbeq	r0, {r0, r8, r9, sl, fp, ip}
     620:	000002db 	ldrdeq	r0, [r0], -fp
     624:	00372d05 	eorseq	r2, r7, r5, lsl #26
     628:	01040000 	mrseq	r0, (UNDEF: 4)
     62c:	d109001e 	tstle	r9, lr, lsl r0
     630:	05000005 	streq	r0, [r0, #-5]
     634:	0000372e 	andeq	r3, r0, lr, lsr #14
     638:	1d010400 	cfstrsne	mvf0, [r1, #-0]
     63c:	048d0900 	streq	r0, [sp], #2304	; 0x900
     640:	31050000 	mrscc	r0, (UNDEF: 5)
     644:	00000037 	andeq	r0, r0, r7, lsr r0
     648:	001c0104 	andseq	r0, ip, r4, lsl #2
     64c:	00053c09 	andeq	r3, r5, r9, lsl #24
     650:	37320500 	ldrcc	r0, [r2, -r0, lsl #10]!
     654:	04000000 	streq	r0, [r0], #-0
     658:	09001903 	stmdbeq	r0, {r0, r1, r8, fp, ip}
     65c:	000002b7 			; <UNDEFINED> instruction: 0x000002b7
     660:	00373305 	eorseq	r3, r7, r5, lsl #6
     664:	01040000 	mrseq	r0, (UNDEF: 4)
     668:	99090018 	stmdbls	r9, {r3, r4}
     66c:	05000004 	streq	r0, [r0, #-4]
     670:	00003734 	andeq	r3, r0, r4, lsr r7
     674:	17010400 	strne	r0, [r1, -r0, lsl #8]
     678:	04590900 	ldrbeq	r0, [r9], #-2304	; 0x900
     67c:	35050000 	strcc	r0, [r5, #-0]
     680:	00000037 	andeq	r0, r0, r7, lsr r0
     684:	00160104 	andseq	r0, r6, r4, lsl #2
     688:	0500460a 	streq	r4, [r0, #-1546]	; 0x60a
     68c:	00003736 	andeq	r3, r0, r6, lsr r7
     690:	15010400 	strne	r0, [r1, #-1024]	; 0x400
     694:	02570900 	subseq	r0, r7, #0, 18
     698:	37050000 	strcc	r0, [r5, -r0]
     69c:	00000037 	andeq	r0, r0, r7, lsr r0
     6a0:	00140104 	andseq	r0, r4, r4, lsl #2
     6a4:	0002cb09 	andeq	ip, r2, r9, lsl #22
     6a8:	37380500 	ldrcc	r0, [r8, -r0, lsl #10]!
     6ac:	04000000 	streq	r0, [r0], #-0
     6b0:	09001301 	stmdbeq	r0, {r0, r8, r9, ip}
     6b4:	000002a7 	andeq	r0, r0, r7, lsr #5
     6b8:	00373905 	eorseq	r3, r7, r5, lsl #18
     6bc:	01040000 	mrseq	r0, (UNDEF: 4)
     6c0:	a3090012 	movwge	r0, #36882	; 0x9012
     6c4:	05000003 	streq	r0, [r0, #-3]
     6c8:	0000373a 	andeq	r3, r0, sl, lsr r7
     6cc:	11010400 	tstne	r1, r0, lsl #8
     6d0:	344c0a00 	strbcc	r0, [ip], #-2560	; 0xa00
     6d4:	373b0500 	ldrcc	r0, [fp, -r0, lsl #10]!
     6d8:	04000000 	streq	r0, [r0], #-0
     6dc:	0a001001 	beq	46e8 <__code_start__-0x3918>
     6e0:	0074645f 	rsbseq	r6, r4, pc, asr r4
     6e4:	00373c05 	eorseq	r3, r7, r5, lsl #24
     6e8:	01040000 	mrseq	r0, (UNDEF: 4)
     6ec:	a909000f 	stmdbge	r9, {r0, r1, r2, r3}
     6f0:	05000005 	streq	r0, [r0, #-5]
     6f4:	0000373d 	andeq	r3, r0, sp, lsr r7
     6f8:	0e010400 	cfcpyseq	mvf0, mvf1
     6fc:	695f0a00 	ldmdbvs	pc, {r9, fp}^	; <UNPREDICTABLE>
     700:	3e050074 	mcrcc	0, 0, r0, cr5, cr4, {3}
     704:	00000037 	andeq	r0, r0, r7, lsr r0
     708:	000d0104 	andeq	r0, sp, r4, lsl #2
     70c:	0005af09 	andeq	sl, r5, r9, lsl #30
     710:	373f0500 	ldrcc	r0, [pc, -r0, lsl #10]!
     714:	04000000 	streq	r0, [r0], #-0
     718:	0a000c01 	beq	3724 <__code_start__-0x48dc>
     71c:	0074735f 	rsbseq	r7, r4, pc, asr r3
     720:	00374005 	eorseq	r4, r7, r5
     724:	01040000 	mrseq	r0, (UNDEF: 4)
     728:	460a000b 	strmi	r0, [sl], -fp
     72c:	41050031 	tstmi	r5, r1, lsr r0
     730:	00000037 	andeq	r0, r0, r7, lsr r0
     734:	000a0104 	andeq	r0, sl, r4, lsl #2
     738:	0004da09 	andeq	sp, r4, r9, lsl #20
     73c:	37420500 	strbcc	r0, [r2, -r0, lsl #10]
     740:	04000000 	streq	r0, [r0], #-0
     744:	09000901 	stmdbeq	r0, {r0, r8, fp}
     748:	000004e6 	andeq	r0, r0, r6, ror #9
     74c:	00374305 	eorseq	r4, r7, r5, lsl #6
     750:	01040000 	mrseq	r0, (UNDEF: 4)
     754:	4d090008 	stcmi	0, cr0, [r9, #-32]	; 0xffffffe0
     758:	05000004 	streq	r0, [r0, #-4]
     75c:	00003745 	andeq	r3, r0, r5, asr #14
     760:	07010400 	streq	r0, [r1, -r0, lsl #8]
     764:	45450a00 	strbmi	r0, [r5, #-2560]	; 0xa00
     768:	37460500 	strbcc	r0, [r6, -r0, lsl #10]
     76c:	04000000 	streq	r0, [r0], #-0
     770:	09000601 	stmdbeq	r0, {r0, r9, sl}
     774:	000005c6 	andeq	r0, r0, r6, asr #11
     778:	00374705 	eorseq	r4, r7, r5, lsl #14
     77c:	01040000 	mrseq	r0, (UNDEF: 4)
     780:	ec090005 	stc	0, cr0, [r9], {5}
     784:	05000003 	streq	r0, [r0, #-3]
     788:	00003748 	andeq	r3, r0, r8, asr #14
     78c:	04010400 	streq	r0, [r1], #-1024	; 0x400
     790:	04ec0900 	strbteq	r0, [ip], #2304	; 0x900
     794:	49050000 	stmdbmi	r5, {}	; <UNPREDICTABLE>
     798:	00000037 	andeq	r0, r0, r7, lsr r0
     79c:	00030104 	andeq	r0, r3, r4, lsl #2
     7a0:	00046b09 	andeq	r6, r4, r9, lsl #22
     7a4:	374a0500 	strbcc	r0, [sl, -r0, lsl #10]
     7a8:	04000000 	streq	r0, [r0], #-0
     7ac:	09000201 	stmdbeq	r0, {r0, r9}
     7b0:	000003f7 	strdeq	r0, [r0], -r7
     7b4:	00374b05 	eorseq	r4, r7, r5, lsl #22
     7b8:	02040000 	andeq	r0, r4, #0
     7bc:	03000000 	movweq	r0, #0
     7c0:	0000052b 	andeq	r0, r0, fp, lsr #10
     7c4:	009c4c05 	addseq	r4, ip, r5, lsl #24
     7c8:	08080000 	stmdaeq	r8, {}	; <UNPREDICTABLE>
     7cc:	04000004 	streq	r0, [r0], #-4
     7d0:	03384606 	teqeq	r8, #6291456	; 0x600000
     7d4:	740a0000 	strvc	r0, [sl], #-0
     7d8:	06006761 	streq	r6, [r0], -r1, ror #14
     7dc:	00003748 	andeq	r3, r0, r8, asr #14
     7e0:	1e020400 	cfcpysne	mvf0, mvf2
     7e4:	00420a00 	subeq	r0, r2, r0, lsl #20
     7e8:	00374906 	eorseq	r4, r7, r6, lsl #18
     7ec:	01040000 	mrseq	r0, (UNDEF: 4)
     7f0:	430a001d 	movwmi	r0, #40989	; 0xa01d
     7f4:	374a0600 	strbcc	r0, [sl, -r0, lsl #12]
     7f8:	04000000 	streq	r0, [r0], #-0
     7fc:	0a001c01 	beq	7808 <__code_start__-0x7f8>
     800:	06004e58 			; <UNDEFINED> instruction: 0x06004e58
     804:	0000374b 	andeq	r3, r0, fp, asr #14
     808:	1b010400 	blne	41810 <__bss_end__+0x34e48>
     80c:	05a20900 	streq	r0, [r2, #2304]!	; 0x900
     810:	4e060000 	cdpmi	0, 0, cr0, cr6, cr0, {0}
     814:	00000037 	andeq	r0, r0, r7, lsr r0
     818:	00170404 	andseq	r0, r7, r4, lsl #8
     81c:	504d490a 	subpl	r4, sp, sl, lsl #18
     820:	374f0600 	strbcc	r0, [pc, -r0, lsl #12]
     824:	04000000 	streq	r0, [r0], #-0
     828:	0a001601 	beq	6034 <__code_start__-0x1fcc>
     82c:	06005041 	streq	r5, [r0], -r1, asr #32
     830:	00003752 	andeq	r3, r0, r2, asr r7
     834:	14020400 	strne	r0, [r2], #-1024	; 0x400
     838:	45540a00 	ldrbmi	r0, [r4, #-2560]	; 0xa00
     83c:	53060058 	movwpl	r0, #24664	; 0x6058
     840:	00000037 	andeq	r0, r0, r7, lsr r0
     844:	00110304 	andseq	r0, r1, r4, lsl #6
     848:	5850410a 	ldmdapl	r0, {r1, r3, r8, lr}^
     84c:	37540600 	ldrbcc	r0, [r4, -r0, lsl #12]
     850:	04000000 	streq	r0, [r0], #-0
     854:	0a001001 	beq	4860 <__code_start__-0x37a0>
     858:	55060053 	strpl	r0, [r6, #-83]	; 0x53
     85c:	00000037 	andeq	r0, r0, r7, lsr r0
     860:	000f0104 	andeq	r0, pc, r4, lsl #2
     864:	00476e0a 	subeq	r6, r7, sl, lsl #28
     868:	00375606 	eorseq	r5, r7, r6, lsl #12
     86c:	01040000 	mrseq	r0, (UNDEF: 4)
     870:	b009000e 	andlt	r0, r9, lr
     874:	06000003 	streq	r0, [r0], -r3
     878:	00003757 	andeq	r3, r0, r7, asr r7
     87c:	0d010400 	cfstrseq	mvf0, [r1, #-0]
     880:	05af0900 	streq	r0, [pc, #2304]!	; 1188 <__code_start__-0x6e78>
     884:	58060000 	stmdapl	r6, {}	; <UNPREDICTABLE>
     888:	00000037 	andeq	r0, r0, r7, lsr r0
     88c:	000c0104 	andeq	r0, ip, r4, lsl #2
     890:	00031c09 	andeq	r1, r3, r9, lsl #24
     894:	37590600 	ldrbcc	r0, [r9, -r0, lsl #12]
     898:	04000000 	streq	r0, [r0], #-0
     89c:	0000000c 	andeq	r0, r0, ip
     8a0:	00037a03 	andeq	r7, r3, r3, lsl #20
     8a4:	625a0600 	subsvs	r0, sl, #0, 12
     8a8:	0b000002 	bleq	8b8 <__code_start__-0x7748>
     8ac:	5e5e0601 	cdppl	6, 5, cr0, cr14, cr1, {0}
     8b0:	0c000003 	stceq	0, cr0, [r0], {3}
     8b4:	00000402 	andeq	r0, r0, r2, lsl #8
     8b8:	05950c03 	ldreq	r0, [r5, #3075]	; 0xc03
     8bc:	0c000000 	stceq	0, cr0, [r0], {-0}
     8c0:	00000301 	andeq	r0, r0, r1, lsl #6
     8c4:	950d0002 	strls	r0, [sp, #-2]
     8c8:	02000002 	andeq	r0, r0, #2
     8cc:	00003778 	andeq	r3, r0, r8, ror r7
     8d0:	03780300 	cmneq	r8, #0, 6
     8d4:	750e0000 	strvc	r0, [lr, #-0]
     8d8:	37780200 	ldrbcc	r0, [r8, -r0, lsl #4]!
     8dc:	00000000 	andeq	r0, r0, r0
     8e0:	00014b0f 	andeq	r4, r1, pc, lsl #22
     8e4:	250b0100 	strcs	r0, [fp, #-256]	; 0x100
     8e8:	9c000000 	stcls	0, cr0, [r0], {-0}
     8ec:	10000083 	andne	r0, r0, r3, lsl #1
     8f0:	01000000 	mrseq	r0, (UNDEF: 0)
     8f4:	00039b9c 	muleq	r3, ip, fp
     8f8:	83a41000 			; <UNDEFINED> instruction: 0x83a41000
     8fc:	14400000 	strbne	r0, [r0], #-0
     900:	0f000000 	svceq	0x00000000
     904:	000005f9 	strdeq	r0, [r0], -r9
     908:	04920f01 	ldreq	r0, [r2], #3841	; 0xf01
     90c:	83ac0000 			; <UNDEFINED> instruction: 0x83ac0000
     910:	00900000 	addseq	r0, r0, r0
     914:	9c010000 	stcls	0, cr0, [r1], {-0}
     918:	00000492 	muleq	r0, r2, r4
     91c:	00747011 	rsbseq	r7, r4, r1, lsl r0
     920:	04920f01 	ldreq	r0, [r2], #3841	; 0xf01
     924:	00770000 	rsbseq	r0, r7, r0
     928:	76110000 	ldrvc	r0, [r1], -r0
     92c:	0f010061 	svceq	0x00010061
     930:	00000037 	andeq	r0, r0, r7, lsr r0
     934:	000000ca 	andeq	r0, r0, sl, asr #1
     938:	0000d312 	andeq	sp, r0, r2, lsl r3
     93c:	0004a800 	andeq	sl, r4, r0, lsl #16
     940:	8c030500 	cfstr32hi	mvfx0, [r3], {-0}
     944:	130000b3 	movwne	r0, #179	; 0xb3
     948:	000004f9 	strdeq	r0, [r0], -r9
     94c:	00371101 	eorseq	r1, r7, r1, lsl #2
     950:	01040000 	mrseq	r0, (UNDEF: 4)
     954:	70140000 	andsvc	r0, r4, r0
     958:	01006574 	tsteq	r0, r4, ror r5
     95c:	00049212 	andeq	r9, r4, r2, lsl r2
     960:	00013200 	andeq	r3, r1, r0, lsl #4
     964:	83c01000 	bichi	r1, r0, #0
     968:	144b0000 	strbne	r0, [fp], #-0
     96c:	dc150000 	ldcle	0, cr0, [r5], {-0}
     970:	52000083 	andpl	r0, r0, #131	; 0x83
     974:	3e000014 	mcrcc	0, 0, r0, cr0, cr4, {0}
     978:	16000004 	strne	r0, [r0], -r4
     97c:	40015301 	andmi	r5, r1, r1, lsl #6
     980:	05520116 	ldrbeq	r0, [r2, #-278]	; 0x116
     984:	00b38c03 	adcseq	r8, r3, r3, lsl #24
     988:	51011600 	tstpl	r1, r0, lsl #12
     98c:	b47c0305 	ldrbtlt	r0, [ip], #-773	; 0x305
     990:	01160000 	tsteq	r6, r0
     994:	bc030550 	cfstr32lt	mvfx0, [r3], {80}	; 0x50
     998:	160000b2 			; <UNDEFINED> instruction: 0x160000b2
     99c:	05007d02 	streq	r7, [r0, #-3330]	; 0xd02
     9a0:	00b48403 	adcseq	r8, r4, r3, lsl #8
     9a4:	e0100000 	ands	r0, r0, r0
     9a8:	68000083 	stmdavs	r0, {r0, r1, r7}
     9ac:	10000014 	andne	r0, r0, r4, lsl r0
     9b0:	000083f8 	strdeq	r8, [r0], -r8	; <UNPREDICTABLE>
     9b4:	0000144b 	andeq	r1, r0, fp, asr #8
     9b8:	00841415 	addeq	r1, r4, r5, lsl r4
     9bc:	00145200 	andseq	r5, r4, r0, lsl #4
     9c0:	00048800 	andeq	r8, r4, r0, lsl #16
     9c4:	53011600 	movwpl	r1, #5632	; 0x1600
     9c8:	01164301 	tsteq	r6, r1, lsl #6
     9cc:	8c030552 	cfstr32hi	mvfx0, [r3], {82}	; 0x52
     9d0:	160000b3 			; <UNDEFINED> instruction: 0x160000b3
     9d4:	03055101 	movweq	r5, #20737	; 0x5101
     9d8:	0000b47c 	andeq	fp, r0, ip, ror r4
     9dc:	05500116 	ldrbeq	r0, [r0, #-278]	; 0x116
     9e0:	00b49803 	adcseq	r9, r4, r3, lsl #16
     9e4:	7d021600 	stcvc	6, cr1, [r2, #-0]
     9e8:	c8030500 	stmdagt	r3, {r8, sl}
     9ec:	000000b4 	strheq	r0, [r0], -r4
     9f0:	00841810 	addeq	r1, r4, r0, lsl r8
     9f4:	00146800 	andseq	r6, r4, r0, lsl #16
     9f8:	04060000 	streq	r0, [r6], #-0
     9fc:	00000338 	andeq	r0, r0, r8, lsr r3
     a00:	00008a17 	andeq	r8, r0, r7, lsl sl
     a04:	0004a800 	andeq	sl, r4, r0, lsl #16
     a08:	00811800 	addeq	r1, r1, r0, lsl #16
     a0c:	00120000 	andseq	r0, r2, r0
     a10:	00049807 	andeq	r9, r4, r7, lsl #16
     a14:	04a01900 	strteq	r1, [r0], #2304	; 0x900
     a18:	18010000 	stmdane	r1, {}	; <UNPREDICTABLE>
     a1c:	0000843c 	andeq	r8, r0, ip, lsr r4
     a20:	00000098 	muleq	r0, r8, r0
     a24:	05be9c01 	ldreq	r9, [lr, #3073]!	; 0xc01
     a28:	70110000 	andsvc	r0, r1, r0
     a2c:	18010074 	stmdane	r1, {r2, r4, r5, r6}
     a30:	00000492 	muleq	r0, r2, r4
     a34:	00000166 	andeq	r0, r0, r6, ror #2
     a38:	00617611 	rsbeq	r7, r1, r1, lsl r6
     a3c:	00371801 	eorseq	r1, r7, r1, lsl #16
     a40:	01a80000 			; <UNDEFINED> instruction: 0x01a80000
     a44:	c61a0000 	ldrgt	r0, [sl], -r0
     a48:	01000002 	tsteq	r0, r2
     a4c:	00003718 	andeq	r3, r0, r8, lsl r7
     a50:	0001c900 	andeq	ip, r1, r0, lsl #18
     a54:	04b01a00 	ldrteq	r1, [r0], #2560	; 0xa00
     a58:	18010000 	stmdane	r1, {}	; <UNPREDICTABLE>
     a5c:	00000037 	andeq	r0, r0, r7, lsr r0
     a60:	0000020b 	andeq	r0, r0, fp, lsl #4
     a64:	0000d312 	andeq	sp, r0, r2, lsl r3
     a68:	0005ce00 	andeq	ip, r5, r0, lsl #28
     a6c:	a0030500 	andge	r0, r3, r0, lsl #10
     a70:	1b0000b3 	blne	d44 <__code_start__-0x72bc>
     a74:	0000035e 	andeq	r0, r0, lr, asr r3
     a78:	0000844c 	andeq	r8, r0, ip, asr #8
     a7c:	00000008 	andeq	r0, r0, r8
     a80:	05281901 	streq	r1, [r8, #-2305]!	; 0x901
     a84:	6e1c0000 	cdpvs	0, 1, cr0, cr12, cr0, {0}
     a88:	45000003 	strmi	r0, [r0, #-3]
     a8c:	00000002 	andeq	r0, r0, r2
     a90:	0000001d 	andeq	r0, r0, sp, lsl r0
     a94:	00056a00 	andeq	r6, r5, r0, lsl #20
     a98:	00691400 	rsbeq	r1, r9, r0, lsl #8
     a9c:	00251b01 	eoreq	r1, r5, r1, lsl #22
     aa0:	02660000 	rsbeq	r0, r6, #0
     aa4:	181e0000 	ldmdane	lr, {}	; <UNPREDICTABLE>
     aa8:	14000000 	strne	r0, [r0], #-0
     aac:	00657470 	rsbeq	r7, r5, r0, ror r4
     ab0:	04921f01 	ldreq	r1, [r2], #3841	; 0xf01
     ab4:	02840000 	addeq	r0, r4, #0
     ab8:	8c1f0000 	ldchi	0, cr0, [pc], {-0}
     abc:	9b000084 	blls	cd4 <__code_start__-0x732c>
     ac0:	16000003 	strne	r0, [r0], -r3
     ac4:	77025101 	strvc	r5, [r2, -r1, lsl #2]
     ac8:	50011600 	andpl	r1, r1, r0, lsl #12
     acc:	00007802 	andeq	r7, r0, r2, lsl #16
     ad0:	60100000 	andsvs	r0, r0, r0
     ad4:	4b000084 	blmi	cec <__code_start__-0x7314>
     ad8:	15000014 	strne	r0, [r0, #-20]
     adc:	0000847c 	andeq	r8, r0, ip, ror r4
     ae0:	00001452 	andeq	r1, r0, r2, asr r4
     ae4:	000005ab 	andeq	r0, r0, fp, lsr #11
     ae8:	01530116 	cmpeq	r3, r6, lsl r1
     aec:	5201164a 	andpl	r1, r1, #77594624	; 0x4a00000
     af0:	b3a00305 	movlt	r0, #335544320	; 0x14000000
     af4:	01160000 	tsteq	r6, r0
     af8:	7c030551 	cfstr32vc	mvfx0, [r3], {81}	; 0x51
     afc:	160000b4 			; <UNDEFINED> instruction: 0x160000b4
     b00:	03055001 	movweq	r5, #20481	; 0x5001
     b04:	0000b4d4 	ldrdeq	fp, [r0], -r4
     b08:	007d0216 	rsbseq	r0, sp, r6, lsl r2
     b0c:	b5080305 	strlt	r0, [r8, #-773]	; 0x305
     b10:	10000000 	andne	r0, r0, r0
     b14:	00008480 	andeq	r8, r0, r0, lsl #9
     b18:	00001468 	andeq	r1, r0, r8, ror #8
     b1c:	0084bc10 	addeq	fp, r4, r0, lsl ip
     b20:	00146f00 	andseq	r6, r4, r0, lsl #30
     b24:	8a170000 	bhi	5c0b2c <__bss_end__+0x5b4164>
     b28:	ce000000 	cdpgt	0, 0, cr0, cr0, cr0, {0}
     b2c:	18000005 	stmdane	r0, {r0, r2}
     b30:	00000081 	andeq	r0, r0, r1, lsl #1
     b34:	be070014 	mcrlt	0, 0, r0, cr7, cr4, {0}
     b38:	20000005 	andcs	r0, r0, r5
     b3c:	00000278 	andeq	r0, r0, r8, ror r2
     b40:	84d42601 	ldrbhi	r2, [r4], #1537	; 0x601
     b44:	00100000 	andseq	r0, r0, r0
     b48:	9c010000 	stcls	0, cr0, [r1], {-0}
     b4c:	00000638 	andeq	r0, r0, r8, lsr r6
     b50:	00747011 	rsbseq	r7, r4, r1, lsl r0
     b54:	04922601 	ldreq	r2, [r2], #1537	; 0x601
     b58:	02970000 	addseq	r0, r7, #0
     b5c:	76110000 	ldrvc	r0, [r1], -r0
     b60:	26010061 	strcs	r0, [r1], -r1, rrx
     b64:	00000037 	andeq	r0, r0, r7, lsr r0
     b68:	000002b8 			; <UNDEFINED> instruction: 0x000002b8
     b6c:	0002c61a 	andeq	ip, r2, sl, lsl r6
     b70:	37260100 	strcc	r0, [r6, -r0, lsl #2]!
     b74:	d9000000 	stmdble	r0, {}	; <UNPREDICTABLE>
     b78:	1f000002 	svcne	0x00000002
     b7c:	000084e0 	andeq	r8, r0, r0, ror #9
     b80:	000004ad 	andeq	r0, r0, sp, lsr #9
     b84:	01530116 	cmpeq	r3, r6, lsl r1
     b88:	52011632 	andpl	r1, r1, #52428800	; 0x3200000
     b8c:	5201f303 	andpl	pc, r1, #201326592	; 0xc000000
     b90:	03510116 	cmpeq	r1, #-2147483643	; 0x80000005
     b94:	165101f3 			; <UNDEFINED> instruction: 0x165101f3
     b98:	f3035001 	vhadd.u8	d5, d3, d1
     b9c:	00005001 	andeq	r5, r0, r1
     ba0:	0003c820 	andeq	ip, r3, r0, lsr #16
     ba4:	e4290100 	strt	r0, [r9], #-256	; 0x100
     ba8:	10000084 	andne	r0, r0, r4, lsl #1
     bac:	01000000 	mrseq	r0, (UNDEF: 0)
     bb0:	00069d9c 	muleq	r6, ip, sp
     bb4:	74701100 	ldrbtvc	r1, [r0], #-256	; 0x100
     bb8:	92290100 	eorls	r0, r9, #0, 2
     bbc:	fa000004 	blx	bd4 <__code_start__-0x742c>
     bc0:	11000002 	tstne	r0, r2
     bc4:	01006176 	tsteq	r0, r6, ror r1
     bc8:	00003729 	andeq	r3, r0, r9, lsr #14
     bcc:	00031b00 	andeq	r1, r3, r0, lsl #22
     bd0:	02c61a00 	sbceq	r1, r6, #0, 20
     bd4:	29010000 	stmdbcs	r1, {}	; <UNPREDICTABLE>
     bd8:	00000037 	andeq	r0, r0, r7, lsr r0
     bdc:	0000033c 	andeq	r0, r0, ip, lsr r3
     be0:	0084f01f 	addeq	pc, r4, pc, lsl r0	; <UNPREDICTABLE>
     be4:	0004ad00 	andeq	sl, r4, r0, lsl #26
     be8:	53011600 	movwpl	r1, #5632	; 0x1600
     bec:	01163301 	tsteq	r6, r1, lsl #6
     bf0:	01f30352 	mvnseq	r0, r2, asr r3
     bf4:	51011652 	tstpl	r1, r2, asr r6
     bf8:	5101f303 	tstpl	r1, r3, lsl #6
     bfc:	03500116 	cmpeq	r0, #-2147483643	; 0x80000005
     c00:	005001f3 	ldrsheq	r0, [r0], #-19	; 0xffffffed
     c04:	06122000 	ldreq	r2, [r2], -r0
     c08:	2c010000 	stccs	0, cr0, [r1], {-0}
     c0c:	000084f4 	strdeq	r8, [r0], -r4
     c10:	00000010 	andeq	r0, r0, r0, lsl r0
     c14:	07029c01 	streq	r9, [r2, -r1, lsl #24]
     c18:	70110000 	andsvc	r0, r1, r0
     c1c:	2c010074 	stccs	0, cr0, [r1], {116}	; 0x74
     c20:	00000492 	muleq	r0, r2, r4
     c24:	0000035d 	andeq	r0, r0, sp, asr r3
     c28:	00617611 	rsbeq	r7, r1, r1, lsl r6
     c2c:	00372c01 	eorseq	r2, r7, r1, lsl #24
     c30:	037e0000 	cmneq	lr, #0
     c34:	c61a0000 	ldrgt	r0, [sl], -r0
     c38:	01000002 	tsteq	r0, r2
     c3c:	0000372c 	andeq	r3, r0, ip, lsr #14
     c40:	00039f00 	andeq	r9, r3, r0, lsl #30
     c44:	85001f00 	strhi	r1, [r0, #-3840]	; 0xf00
     c48:	04ad0000 	strteq	r0, [sp], #0
     c4c:	01160000 	tsteq	r6, r0
     c50:	16300153 			; <UNDEFINED> instruction: 0x16300153
     c54:	f3035201 	vhsub.u8	d5, d3, d1
     c58:	01165201 	tsteq	r6, r1, lsl #4
     c5c:	01f30351 	mvnseq	r0, r1, asr r3
     c60:	50011651 	andpl	r1, r1, r1, asr r6
     c64:	5001f303 	andpl	pc, r1, r3, lsl #6
     c68:	6e190000 	cdpvs	0, 1, cr0, cr9, cr0, {0}
     c6c:	01000005 	tsteq	r0, r5
     c70:	00850431 	addeq	r0, r5, r1, lsr r4
     c74:	00009800 	andeq	r9, r0, r0, lsl #16
     c78:	d99c0100 	ldmible	ip, {r8}
     c7c:	11000007 	tstne	r0, r7
     c80:	31010066 	tstcc	r1, r6, rrx
     c84:	00000492 	muleq	r0, r2, r4
     c88:	000003c0 	andeq	r0, r0, r0, asr #7
     c8c:	0003251a 	andeq	r2, r3, sl, lsl r5
     c90:	37310100 	ldrcc	r0, [r1, -r0, lsl #2]!
     c94:	05000000 	streq	r0, [r0, #-0]
     c98:	12000004 	andne	r0, r0, #4
     c9c:	000000d3 	ldrdeq	r0, [r0], -r3
     ca0:	000007e9 	andeq	r0, r0, r9, ror #15
     ca4:	b3c80305 	biclt	r0, r8, #335544320	; 0x14000000
     ca8:	18100000 	ldmdane	r0, {}	; <UNPREDICTABLE>
     cac:	4b000085 	blmi	ec8 <__code_start__-0x7138>
     cb0:	15000014 	strne	r0, [r0, #-20]
     cb4:	00008534 	andeq	r8, r0, r4, lsr r5
     cb8:	00001452 	andeq	r1, r0, r2, asr r4
     cbc:	00000784 	andeq	r0, r0, r4, lsl #15
     cc0:	02530116 	subseq	r0, r3, #-2147483643	; 0x80000005
     cc4:	01163208 	tsteq	r6, r8, lsl #4
     cc8:	c8030552 	stmdagt	r3, {r1, r4, r6, r8, sl}
     ccc:	160000b3 			; <UNDEFINED> instruction: 0x160000b3
     cd0:	03055101 	movweq	r5, #20737	; 0x5101
     cd4:	0000b47c 	andeq	fp, r0, ip, ror r4
     cd8:	05500116 	ldrbeq	r0, [r0, #-278]	; 0x116
     cdc:	00b51803 	adcseq	r1, r5, r3, lsl #16
     ce0:	7d021600 	stcvc	6, cr1, [r2, #-0]
     ce4:	4c030500 	cfstr32mi	mvfx0, [r3], {-0}
     ce8:	000000b5 	strheq	r0, [r0], -r5
     cec:	00853810 	addeq	r3, r5, r0, lsl r8
     cf0:	00146800 	andseq	r6, r4, r0, lsl #16
     cf4:	855c1000 	ldrbhi	r1, [ip, #-0]
     cf8:	144b0000 	strbne	r0, [fp], #-0
     cfc:	78150000 	ldmdavc	r5, {}	; <UNPREDICTABLE>
     d00:	52000085 	andpl	r0, r0, #133	; 0x85
     d04:	cf000014 	svcgt	0x00000014
     d08:	16000007 	strne	r0, [r0], -r7
     d0c:	08025301 	stmdaeq	r2, {r0, r8, r9, ip, lr}
     d10:	52011637 	andpl	r1, r1, #57671680	; 0x3700000
     d14:	b3c80305 	biclt	r0, r8, #335544320	; 0x14000000
     d18:	01160000 	tsteq	r6, r0
     d1c:	7c030551 	cfstr32vc	mvfx0, [r3], {81}	; 0x51
     d20:	160000b4 			; <UNDEFINED> instruction: 0x160000b4
     d24:	03055001 	movweq	r5, #20481	; 0x5001
     d28:	0000b2bc 			; <UNDEFINED> instruction: 0x0000b2bc
     d2c:	007d0216 	rsbseq	r0, sp, r6, lsl r2
     d30:	b5780305 	ldrblt	r0, [r8, #-773]!	; 0x305
     d34:	10000000 	andne	r0, r0, r0
     d38:	0000857c 	andeq	r8, r0, ip, ror r5
     d3c:	00001468 	andeq	r1, r0, r8, ror #8
     d40:	008a1700 	addeq	r1, sl, r0, lsl #14
     d44:	07e90000 	strbeq	r0, [r9, r0]!
     d48:	81180000 	tsthi	r8, r0
     d4c:	11000000 	mrsne	r0, (UNDEF: 0)
     d50:	07d90700 	ldrbeq	r0, [r9, r0, lsl #14]
     d54:	1f0f0000 	svcne	0x000f0000
     d58:	01000004 	tsteq	r0, r4
     d5c:	00049241 	andeq	r9, r4, r1, asr #4
     d60:	00859c00 	addeq	r9, r5, r0, lsl #24
     d64:	00019400 	andeq	r9, r1, r0, lsl #8
     d68:	0c9c0100 	ldfeqs	f0, [ip], {0}
     d6c:	1100000a 	tstne	r0, sl
     d70:	01007470 	tsteq	r0, r0, ror r4
     d74:	00049241 	andeq	r9, r4, r1, asr #4
     d78:	00044a00 	andeq	r4, r4, r0, lsl #20
     d7c:	61761100 	cmnvs	r6, r0, lsl #2
     d80:	68410100 	stmdavs	r1, {r8}^
     d84:	ce000000 	cdpgt	0, 0, cr0, cr0, cr0, {0}
     d88:	11000004 	tstne	r0, r4
     d8c:	01006170 	tsteq	r0, r0, ror r1
     d90:	00006841 	andeq	r6, r0, r1, asr #16
     d94:	00055300 	andeq	r5, r5, r0, lsl #6
     d98:	6f641100 	svcvs	0x00641100
     d9c:	4101006d 	tstmi	r1, sp, rrx
     da0:	00000068 	andeq	r0, r0, r8, rrx
     da4:	000005d7 	ldrdeq	r0, [r0], -r7
     da8:	0000d312 	andeq	sp, r0, r2, lsl r3
     dac:	000a1c00 	andeq	r1, sl, r0, lsl #24
     db0:	b8030500 	stmdalt	r3, {r8, sl}
     db4:	130000b3 	movwne	r0, #179	; 0xb3
     db8:	000004f9 	strdeq	r0, [r0], -r9
     dbc:	00374601 	eorseq	r4, r7, r1, lsl #12
     dc0:	06450000 	strbeq	r0, [r5], -r0
     dc4:	70140000 	andsvc	r0, r4, r0
     dc8:	01006574 	tsteq	r0, r4, ror r5
     dcc:	00049247 	andeq	r9, r4, r7, asr #4
     dd0:	00066800 	andeq	r6, r6, r0, lsl #16
     dd4:	85bc1000 	ldrhi	r1, [ip, #0]!
     dd8:	144b0000 	strbne	r0, [fp], #-0
     ddc:	d8150000 	ldmdale	r5, {}	; <UNPREDICTABLE>
     de0:	52000085 	andpl	r0, r0, #133	; 0x85
     de4:	af000014 	svcge	0x00000014
     de8:	16000008 	strne	r0, [r0], -r8
     dec:	08025301 	stmdaeq	r2, {r0, r8, r9, ip, lr}
     df0:	52011642 	andpl	r1, r1, #69206016	; 0x4200000
     df4:	b3b80305 			; <UNDEFINED> instruction: 0xb3b80305
     df8:	01160000 	tsteq	r6, r0
     dfc:	7c030551 	cfstr32vc	mvfx0, [r3], {81}	; 0x51
     e00:	160000b4 			; <UNDEFINED> instruction: 0x160000b4
     e04:	03055001 	movweq	r5, #20481	; 0x5001
     e08:	0000b2bc 			; <UNDEFINED> instruction: 0x0000b2bc
     e0c:	007d0216 	rsbseq	r0, sp, r6, lsl r2
     e10:	b59c0305 	ldrlt	r0, [ip, #773]	; 0x305
     e14:	10000000 	andne	r0, r0, r0
     e18:	000085dc 	ldrdeq	r8, [r0], -ip
     e1c:	00001468 	andeq	r1, r0, r8, ror #8
     e20:	0085e810 	addeq	lr, r5, r0, lsl r8
     e24:	00144b00 	andseq	r4, r4, r0, lsl #22
     e28:	86041500 	strhi	r1, [r4], -r0, lsl #10
     e2c:	14520000 	ldrbne	r0, [r2], #-0
     e30:	08fa0000 	ldmeq	sl!, {}^	; <UNPREDICTABLE>
     e34:	01160000 	tsteq	r6, r0
     e38:	43080253 	movwmi	r0, #33363	; 0x8253
     e3c:	05520116 	ldrbeq	r0, [r2, #-278]	; 0x116
     e40:	00b3b803 	adcseq	fp, r3, r3, lsl #16
     e44:	51011600 	tstpl	r1, r0, lsl #12
     e48:	b47c0305 	ldrbtlt	r0, [ip], #-773	; 0x305
     e4c:	01160000 	tsteq	r6, r0
     e50:	bc030550 	cfstr32lt	mvfx0, [r3], {80}	; 0x50
     e54:	160000b2 			; <UNDEFINED> instruction: 0x160000b2
     e58:	05007d02 	streq	r7, [r0, #-3330]	; 0xd02
     e5c:	00b48403 	adcseq	r8, r4, r3, lsl #8
     e60:	08100000 	ldmdaeq	r0, {}	; <UNPREDICTABLE>
     e64:	68000086 	stmdavs	r0, {r1, r2, r7}
     e68:	10000014 	andne	r0, r0, r4, lsl r0
     e6c:	00008614 	andeq	r8, r0, r4, lsl r6
     e70:	0000144b 	andeq	r1, r0, fp, asr #8
     e74:	00863015 	addeq	r3, r6, r5, lsl r0
     e78:	00145200 	andseq	r5, r4, r0, lsl #4
     e7c:	00094500 	andeq	r4, r9, r0, lsl #10
     e80:	53011600 	movwpl	r1, #5632	; 0x1600
     e84:	16440802 	strbne	r0, [r4], -r2, lsl #16
     e88:	03055201 	movweq	r5, #20993	; 0x5201
     e8c:	0000b3b8 			; <UNDEFINED> instruction: 0x0000b3b8
     e90:	05510116 	ldrbeq	r0, [r1, #-278]	; 0x116
     e94:	00b47c03 	adcseq	r7, r4, r3, lsl #24
     e98:	50011600 	andpl	r1, r1, r0, lsl #12
     e9c:	b2bc0305 	adcslt	r0, ip, #335544320	; 0x14000000
     ea0:	02160000 	andseq	r0, r6, #0
     ea4:	0305007d 	movweq	r0, #20605	; 0x507d
     ea8:	0000b5a8 	andeq	fp, r0, r8, lsr #11
     eac:	86341000 	ldrthi	r1, [r4], -r0
     eb0:	14680000 	strbtne	r0, [r8], #-0
     eb4:	50100000 	andspl	r0, r0, r0
     eb8:	4b000086 	blmi	10d8 <__code_start__-0x6f28>
     ebc:	15000014 	strne	r0, [r0, #-20]
     ec0:	0000866c 	andeq	r8, r0, ip, ror #12
     ec4:	00001452 	andeq	r1, r0, r2, asr r4
     ec8:	00000990 	muleq	r0, r0, r9
     ecc:	02530116 	subseq	r0, r3, #-2147483643	; 0x80000005
     ed0:	01164808 	tsteq	r6, r8, lsl #16
     ed4:	b8030552 	stmdalt	r3, {r1, r4, r6, r8, sl}
     ed8:	160000b3 			; <UNDEFINED> instruction: 0x160000b3
     edc:	03055101 	movweq	r5, #20737	; 0x5101
     ee0:	0000b47c 	andeq	fp, r0, ip, ror r4
     ee4:	05500116 	ldrbeq	r0, [r0, #-278]	; 0x116
     ee8:	00b5bc03 	adcseq	fp, r5, r3, lsl #24
     eec:	7d021600 	stcvc	6, cr1, [r2, #-0]
     ef0:	e8030500 	stmda	r3, {r8, sl}
     ef4:	000000b5 	strheq	r0, [r0], -r5
     ef8:	00867010 	addeq	r7, r6, r0, lsl r0
     efc:	00146800 	andseq	r6, r4, r0, lsl #16
     f00:	86741000 	ldrbthi	r1, [r4], -r0
     f04:	14760000 	ldrbtne	r0, [r6], #-0
     f08:	c0150000 	andsgt	r0, r5, r0
     f0c:	02000086 	andeq	r0, r0, #134	; 0x86
     f10:	bc000007 	stclt	0, cr0, [r0], {7}
     f14:	16000009 	strne	r0, [r0], -r9
     f18:	79025101 	stmdbvc	r2, {r0, r8, ip, lr}
     f1c:	50011600 	andpl	r1, r1, r0, lsl #12
     f20:	00007502 	andeq	r7, r0, r2, lsl #10
     f24:	0086d815 	addeq	sp, r6, r5, lsl r8
     f28:	00148100 	andseq	r8, r4, r0, lsl #2
     f2c:	0009d000 	andeq	sp, r9, r0
     f30:	50011600 	andpl	r1, r1, r0, lsl #12
     f34:	00007502 	andeq	r7, r0, r2, lsl #10
     f38:	0086e815 	addeq	lr, r6, r5, lsl r8
     f3c:	00145200 	andseq	r5, r4, r0, lsl #4
     f40:	0009ed00 	andeq	lr, r9, r0, lsl #26
     f44:	51011600 	tstpl	r1, r0, lsl #12
     f48:	16007402 	strne	r7, [r0], -r2, lsl #8
     f4c:	03055001 	movweq	r5, #20481	; 0x5001
     f50:	0000b5f4 	strdeq	fp, [r0], -r4
     f54:	86f81f00 	ldrbthi	r1, [r8], r0, lsl #30
     f58:	14920000 	ldrne	r0, [r2], #0
     f5c:	01160000 	tsteq	r6, r0
     f60:	16340152 			; <UNDEFINED> instruction: 0x16340152
     f64:	75025101 	strvc	r5, [r2, #-257]	; 0x101
     f68:	50011600 	andpl	r1, r1, r0, lsl #12
     f6c:	b6080305 	strlt	r0, [r8], -r5, lsl #6
     f70:	00000000 	andeq	r0, r0, r0
     f74:	00008a17 	andeq	r8, r0, r7, lsl sl
     f78:	000a1c00 	andeq	r1, sl, r0, lsl #24
     f7c:	00811800 	addeq	r1, r1, r0, lsl #16
     f80:	000f0000 	andeq	r0, pc, r0
     f84:	000a0c07 	andeq	r0, sl, r7, lsl #24
     f88:	05b52000 	ldreq	r2, [r5, #0]!
     f8c:	5f010000 	svcpl	0x00010000
     f90:	00008730 	andeq	r8, r0, r0, lsr r7
     f94:	000000f0 	strdeq	r0, [r0], -r0	; <UNPREDICTABLE>
     f98:	0ba79c01 	bleq	fe9e7fa4 <__bss_end__+0xfe9db5dc>
     f9c:	70110000 	andsvc	r0, r1, r0
     fa0:	5f010074 	svcpl	0x00010074
     fa4:	00000492 	muleq	r0, r2, r4
     fa8:	00000686 	andeq	r0, r0, r6, lsl #13
     fac:	00617611 	rsbeq	r7, r1, r1, lsl r6
     fb0:	00375f01 	eorseq	r5, r7, r1, lsl #30
     fb4:	06f40000 	ldrbteq	r0, [r4], r0
     fb8:	70110000 	andsvc	r0, r1, r0
     fbc:	5f010061 	svcpl	0x00010061
     fc0:	00000037 	andeq	r0, r0, r7, lsr r0
     fc4:	00000754 	andeq	r0, r0, r4, asr r7
     fc8:	0002c61a 	andeq	ip, r2, sl, lsl r6
     fcc:	375f0100 	ldrbcc	r0, [pc, -r0, lsl #2]
     fd0:	b4000000 	strlt	r0, [r0], #-0
     fd4:	21000007 	tstcs	r0, r7
     fd8:	006d6f64 	rsbeq	r6, sp, r4, ror #30
     fdc:	00685f01 	rsbeq	r5, r8, r1, lsl #30
     fe0:	91020000 	mrsls	r0, (UNDEF: 2)
     fe4:	00d31200 	sbcseq	r1, r3, r0, lsl #4
     fe8:	0bb70000 	bleq	fedc0ff0 <__bss_end__+0xfedb4628>
     fec:	03050000 	movweq	r0, #20480	; 0x5000
     ff0:	0000b3dc 	ldrdeq	fp, [r0], -ip
     ff4:	0000301d 	andeq	r3, r0, sp, lsl r0
     ff8:	000ac500 	andeq	ip, sl, r0, lsl #10
     ffc:	00691400 	rsbeq	r1, r9, r0, lsl #8
    1000:	00376301 	eorseq	r6, r7, r1, lsl #6
    1004:	08220000 	stmdaeq	r2!, {}	; <UNPREDICTABLE>
    1008:	e41f0000 	ldr	r0, [pc], #-0	; 1010 <__code_start__-0x6ff0>
    100c:	ee000087 	cdp	0, 0, cr0, cr0, cr7, {4}
    1010:	16000007 	strne	r0, [r0], -r7
    1014:	78025301 	stmdavc	r2, {r0, r8, r9, ip, lr}
    1018:	52011600 	andpl	r1, r1, #0, 12
    101c:	16007602 	strne	r7, [r0], -r2, lsl #12
    1020:	75025101 	strvc	r5, [r2, #-257]	; 0x101
    1024:	50011600 	andpl	r1, r1, r0, lsl #12
    1028:	00007902 	andeq	r7, r0, r2, lsl #18
    102c:	87581000 	ldrbhi	r1, [r8, -r0]
    1030:	144b0000 	strbne	r0, [fp], #-0
    1034:	74150000 	ldrvc	r0, [r5], #-0
    1038:	52000087 	andpl	r0, r0, #135	; 0x87
    103c:	07000014 	smladeq	r0, r4, r0, r0
    1040:	1600000b 	strne	r0, [r0], -fp
    1044:	08025301 	stmdaeq	r2, {r0, r8, r9, ip, lr}
    1048:	52011660 	andpl	r1, r1, #96, 12	; 0x6000000
    104c:	b3dc0305 	bicslt	r0, ip, #335544320	; 0x14000000
    1050:	01160000 	tsteq	r6, r0
    1054:	7c030551 	cfstr32vc	mvfx0, [r3], {81}	; 0x51
    1058:	160000b4 			; <UNDEFINED> instruction: 0x160000b4
    105c:	03055001 	movweq	r5, #20481	; 0x5001
    1060:	0000b2bc 			; <UNDEFINED> instruction: 0x0000b2bc
    1064:	007d0216 	rsbseq	r0, sp, r6, lsl r2
    1068:	b59c0305 	ldrlt	r0, [ip, #773]	; 0x305
    106c:	10000000 	andne	r0, r0, r0
    1070:	00008778 	andeq	r8, r0, r8, ror r7
    1074:	00001468 	andeq	r1, r0, r8, ror #8
    1078:	00878410 	addeq	r8, r7, r0, lsl r4
    107c:	00144b00 	andseq	r4, r4, r0, lsl #22
    1080:	87a01500 	strhi	r1, [r0, r0, lsl #10]!
    1084:	14520000 	ldrbne	r0, [r2], #-0
    1088:	0b520000 	bleq	1481090 <__bss_end__+0x14746c8>
    108c:	01160000 	tsteq	r6, r0
    1090:	61080253 	tstvs	r8, r3, asr r2
    1094:	05520116 	ldrbeq	r0, [r2, #-278]	; 0x116
    1098:	00b3dc03 	adcseq	sp, r3, r3, lsl #24
    109c:	51011600 	tstpl	r1, r0, lsl #12
    10a0:	b47c0305 	ldrbtlt	r0, [ip], #-773	; 0x305
    10a4:	01160000 	tsteq	r6, r0
    10a8:	bc030550 	cfstr32lt	mvfx0, [r3], {80}	; 0x50
    10ac:	160000b2 			; <UNDEFINED> instruction: 0x160000b2
    10b0:	05007d02 	streq	r7, [r0, #-3330]	; 0xd02
    10b4:	00b48403 	adcseq	r8, r4, r3, lsl #8
    10b8:	a4100000 	ldrge	r0, [r0], #-0
    10bc:	68000087 	stmdavs	r0, {r0, r1, r2, r7}
    10c0:	10000014 	andne	r0, r0, r4, lsl r0
    10c4:	000087b0 			; <UNDEFINED> instruction: 0x000087b0
    10c8:	0000144b 	andeq	r1, r0, fp, asr #8
    10cc:	0087cc15 	addeq	ip, r7, r5, lsl ip
    10d0:	00145200 	andseq	r5, r4, r0, lsl #4
    10d4:	000b9d00 	andeq	r9, fp, r0, lsl #26
    10d8:	53011600 	movwpl	r1, #5632	; 0x1600
    10dc:	16620802 	strbtne	r0, [r2], -r2, lsl #16
    10e0:	03055201 	movweq	r5, #20993	; 0x5201
    10e4:	0000b3dc 	ldrdeq	fp, [r0], -ip
    10e8:	05510116 	ldrbeq	r0, [r1, #-278]	; 0x116
    10ec:	00b47c03 	adcseq	r7, r4, r3, lsl #24
    10f0:	50011600 	andpl	r1, r1, r0, lsl #12
    10f4:	b2bc0305 	adcslt	r0, ip, #335544320	; 0x14000000
    10f8:	02160000 	andseq	r0, r6, #0
    10fc:	0305007d 	movweq	r0, #20605	; 0x507d
    1100:	0000b5a8 	andeq	fp, r0, r8, lsr #11
    1104:	87d01000 	ldrbhi	r1, [r0, r0]
    1108:	14680000 	strbtne	r0, [r8], #-0
    110c:	17000000 	strne	r0, [r0, -r0]
    1110:	0000008a 	andeq	r0, r0, sl, lsl #1
    1114:	00000bb7 			; <UNDEFINED> instruction: 0x00000bb7
    1118:	00008118 	andeq	r8, r0, r8, lsl r1
    111c:	07001000 	streq	r1, [r0, -r0]
    1120:	00000ba7 	andeq	r0, r0, r7, lsr #23
    1124:	0004be0f 	andeq	fp, r4, pc, lsl #28
    1128:	926a0100 	rsbls	r0, sl, #0, 2
    112c:	20000004 	andcs	r0, r0, r4
    1130:	94000088 	strls	r0, [r0], #-136	; 0x88
    1134:	01000000 	mrseq	r0, (UNDEF: 0)
    1138:	000cc89c 	muleq	ip, ip, r8
    113c:	03251a00 	teqeq	r5, #0, 20
    1140:	6a010000 	bvs	41148 <__bss_end__+0x34780>
    1144:	00000088 	andeq	r0, r0, r8, lsl #1
    1148:	00000840 	andeq	r0, r0, r0, asr #16
    114c:	0004641a 	andeq	r6, r4, sl, lsl r4
    1150:	376a0100 	strbcc	r0, [sl, -r0, lsl #2]!
    1154:	95000000 	strls	r0, [r0, #-0]
    1158:	12000008 	andne	r0, r0, #8
    115c:	000000d3 	ldrdeq	r0, [r0], -r3
    1160:	00000cc8 	andeq	r0, r0, r8, asr #25
    1164:	b3f00305 	mvnslt	r0, #335544320	; 0x14000000
    1168:	70140000 	andsvc	r0, r4, r0
    116c:	6c010074 	stcvs	0, cr0, [r1], {116}	; 0x74
    1170:	00000492 	muleq	r0, r2, r4
    1174:	000008e8 	andeq	r0, r0, r8, ror #17
    1178:	01006e22 	tsteq	r0, r2, lsr #28
    117c:	0000376e 	andeq	r3, r0, lr, ror #14
    1180:	10400000 	subne	r0, r0, r0
    1184:	00008838 	andeq	r8, r0, r8, lsr r8
    1188:	0000144b 	andeq	r1, r0, fp, asr #8
    118c:	00885415 	addeq	r5, r8, r5, lsl r4
    1190:	00145200 	andseq	r5, r4, r0, lsl #4
    1194:	000c5d00 	andeq	r5, ip, r0, lsl #26
    1198:	53011600 	movwpl	r1, #5632	; 0x1600
    119c:	166b0802 	strbtne	r0, [fp], -r2, lsl #16
    11a0:	03055201 	movweq	r5, #20993	; 0x5201
    11a4:	0000b3f0 	strdeq	fp, [r0], -r0
    11a8:	05510116 	ldrbeq	r0, [r1, #-278]	; 0x116
    11ac:	00b47c03 	adcseq	r7, r4, r3, lsl #24
    11b0:	50011600 	andpl	r1, r1, r0, lsl #12
    11b4:	b6140305 	ldrlt	r0, [r4], -r5, lsl #6
    11b8:	02160000 	andseq	r0, r6, #0
    11bc:	0305007d 	movweq	r0, #20605	; 0x507d
    11c0:	0000b64c 	andeq	fp, r0, ip, asr #12
    11c4:	88581000 	ldmdahi	r8, {ip}^
    11c8:	14680000 	strbtne	r0, [r8], #-0
    11cc:	64100000 	ldrvs	r0, [r0], #-0
    11d0:	4b000088 	blmi	13f8 <__code_start__-0x6c08>
    11d4:	15000014 	strne	r0, [r0, #-20]
    11d8:	00008880 	andeq	r8, r0, r0, lsl #17
    11dc:	00001452 	andeq	r1, r0, r2, asr r4
    11e0:	00000ca8 	andeq	r0, r0, r8, lsr #25
    11e4:	02530116 	subseq	r0, r3, #-2147483643	; 0x80000005
    11e8:	01166f08 	tsteq	r6, r8, lsl #30
    11ec:	f0030552 			; <UNDEFINED> instruction: 0xf0030552
    11f0:	160000b3 			; <UNDEFINED> instruction: 0x160000b3
    11f4:	03055101 	movweq	r5, #20737	; 0x5101
    11f8:	0000b47c 	andeq	fp, r0, ip, ror r4
    11fc:	05500116 	ldrbeq	r0, [r0, #-278]	; 0x116
    1200:	00b68c03 	adcseq	r8, r6, r3, lsl #24
    1204:	7d021600 	stcvc	6, cr1, [r2, #-0]
    1208:	c8030500 	stmdagt	r3, {r8, sl}
    120c:	000000b6 	strheq	r0, [r0], -r6
    1210:	00888410 	addeq	r8, r8, r0, lsl r4
    1214:	00146800 	andseq	r6, r4, r0, lsl #16
    1218:	88901f00 	ldmhi	r0, {r8, r9, sl, fp, ip}
    121c:	14b40000 	ldrtne	r0, [r4], #0
    1220:	01160000 	tsteq	r6, r0
    1224:	000a0352 	andeq	r0, sl, r2, asr r3
    1228:	51011640 	tstpl	r1, r0, asr #12
    122c:	00003001 	andeq	r3, r0, r1
    1230:	000a0c07 	andeq	r0, sl, r7, lsl #24
    1234:	03df0f00 	bicseq	r0, pc, #0, 30
    1238:	75010000 	strvc	r0, [r1, #-0]
    123c:	00000492 	muleq	r0, r2, r4
    1240:	000088b4 			; <UNDEFINED> instruction: 0x000088b4
    1244:	00000090 	muleq	r0, r0, r0
    1248:	0dda9c01 	ldcleq	12, cr9, [sl, #4]
    124c:	6e110000 	cdpvs	0, 1, cr0, cr1, cr0, {0}
    1250:	37750100 	ldrbcc	r0, [r5, -r0, lsl #2]!
    1254:	27000000 	strcs	r0, [r0, -r0]
    1258:	12000009 	andne	r0, r0, #9
    125c:	000000d3 	ldrdeq	r0, [r0], -r3
    1260:	00000dea 	andeq	r0, r0, sl, ror #27
    1264:	b4000305 	strlt	r0, [r0], #-773	; 0x305
    1268:	64230000 	strtvs	r0, [r3], #-0
    126c:	01000004 	tsteq	r0, r4
    1270:	00003777 	andeq	r3, r0, r7, ror r7
    1274:	14400000 	strbne	r0, [r0], #-0
    1278:	01007470 	tsteq	r0, r0, ror r4
    127c:	0004927a 	andeq	r9, r4, sl, ror r2
    1280:	00096100 	andeq	r6, r9, r0, lsl #2
    1284:	88c81000 	stmiahi	r8, {ip}^
    1288:	144b0000 	strbne	r0, [fp], #-0
    128c:	e4150000 	ldr	r0, [r5], #-0
    1290:	52000088 	andpl	r0, r0, #136	; 0x88
    1294:	5f000014 	svcpl	0x00000014
    1298:	1600000d 	strne	r0, [r0], -sp
    129c:	08025301 	stmdaeq	r2, {r0, r8, r9, ip, lr}
    12a0:	52011676 	andpl	r1, r1, #123731968	; 0x7600000
    12a4:	b4000305 	strlt	r0, [r0], #-773	; 0x305
    12a8:	01160000 	tsteq	r6, r0
    12ac:	7c030551 	cfstr32vc	mvfx0, [r3], {81}	; 0x51
    12b0:	160000b4 			; <UNDEFINED> instruction: 0x160000b4
    12b4:	03055001 	movweq	r5, #20481	; 0x5001
    12b8:	0000b6d4 	ldrdeq	fp, [r0], -r4
    12bc:	007d0216 	rsbseq	r0, sp, r6, lsl r2
    12c0:	b72c0305 	strlt	r0, [ip, -r5, lsl #6]!
    12c4:	10000000 	andne	r0, r0, r0
    12c8:	000088e8 	andeq	r8, r0, r8, ror #17
    12cc:	00001468 	andeq	r1, r0, r8, ror #8
    12d0:	0088f015 	addeq	pc, r8, r5, lsl r0	; <UNPREDICTABLE>
    12d4:	0014d300 	andseq	sp, r4, r0, lsl #6
    12d8:	000d7d00 	andeq	r7, sp, r0, lsl #26
    12dc:	51011600 	tstpl	r1, r0, lsl #12
    12e0:	40000a03 	andmi	r0, r0, r3, lsl #20
    12e4:	88fc1000 	ldmhi	ip!, {ip}^
    12e8:	144b0000 	strbne	r0, [fp], #-0
    12ec:	18150000 	ldmdane	r5, {}	; <UNPREDICTABLE>
    12f0:	52000089 	andpl	r0, r0, #137	; 0x89
    12f4:	bf000014 	svclt	0x00000014
    12f8:	1600000d 	strne	r0, [r0], -sp
    12fc:	08025301 	stmdaeq	r2, {r0, r8, r9, ip, lr}
    1300:	5201167b 	andpl	r1, r1, #128974848	; 0x7b00000
    1304:	b4000305 	strlt	r0, [r0], #-773	; 0x305
    1308:	01160000 	tsteq	r6, r0
    130c:	7c030551 	cfstr32vc	mvfx0, [r3], {81}	; 0x51
    1310:	160000b4 			; <UNDEFINED> instruction: 0x160000b4
    1314:	03055001 	movweq	r5, #20481	; 0x5001
    1318:	0000b614 	andeq	fp, r0, r4, lsl r6
    131c:	007d0216 	rsbseq	r0, sp, r6, lsl r2
    1320:	b7380305 	ldrlt	r0, [r8, -r5, lsl #6]!
    1324:	10000000 	andne	r0, r0, r0
    1328:	0000891c 	andeq	r8, r0, ip, lsl r9
    132c:	00001468 	andeq	r1, r0, r8, ror #8
    1330:	0089241f 	addeq	r2, r9, pc, lsl r4
    1334:	000bbc00 	andeq	fp, fp, r0, lsl #24
    1338:	51011600 	tstpl	r1, r0, lsl #12
    133c:	40000a03 	andmi	r0, r0, r3, lsl #20
    1340:	8a170000 	bhi	5c1348 <__bss_end__+0x5b4980>
    1344:	ea000000 	b	134c <__code_start__-0x6cb4>
    1348:	1800000d 	stmdane	r0, {r0, r2, r3}
    134c:	00000081 	andeq	r0, r0, r1, lsl #1
    1350:	da07000c 	ble	1c1388 <__bss_end__+0x1b49c0>
    1354:	2000000d 	andcs	r0, r0, sp
    1358:	000004b5 			; <UNDEFINED> instruction: 0x000004b5
    135c:	89448601 	stmdbhi	r4, {r0, r9, sl, pc}^
    1360:	00900000 	addseq	r0, r0, r0
    1364:	9c010000 	stcls	0, cr0, [r1], {-0}
    1368:	00000edc 	ldrdeq	r0, [r0], -ip
    136c:	00316314 	eorseq	r6, r1, r4, lsl r3
    1370:	009c8901 	addseq	r8, ip, r1, lsl #18
    1374:	097f0000 	ldmdbeq	pc!, {}^	; <UNPREDICTABLE>
    1378:	d3120000 	tstle	r2, #0
    137c:	ec000000 	stc	0, cr0, [r0], {-0}
    1380:	0500000e 	streq	r0, [r0, #-14]
    1384:	00b41003 	adcseq	r1, r4, r3
    1388:	89501000 	ldmdbhi	r0, {ip}^
    138c:	14ed0000 	strbtne	r0, [sp], #0
    1390:	54100000 	ldrpl	r0, [r0], #-0
    1394:	40000089 	andmi	r0, r0, r9, lsl #1
    1398:	10000014 	andne	r0, r0, r4, lsl r0
    139c:	0000895c 	andeq	r8, r0, ip, asr r9
    13a0:	000014f4 	strdeq	r1, [r0], -r4
    13a4:	00896010 	addeq	r6, r9, r0, lsl r0
    13a8:	00144000 	andseq	r4, r4, r0
    13ac:	896c1000 	stmdbhi	ip!, {ip}^
    13b0:	144b0000 	strbne	r0, [fp], #-0
    13b4:	88150000 	ldmdahi	r5, {}	; <UNPREDICTABLE>
    13b8:	52000089 	andpl	r0, r0, #137	; 0x89
    13bc:	87000014 	smladhi	r0, r4, r0, r0
    13c0:	1600000e 	strne	r0, [r0], -lr
    13c4:	08025301 	stmdaeq	r2, {r0, r8, r9, ip, lr}
    13c8:	5201168e 	andpl	r1, r1, #148897792	; 0x8e00000
    13cc:	b4100305 	ldrlt	r0, [r0], #-773	; 0x305
    13d0:	01160000 	tsteq	r6, r0
    13d4:	7c030551 	cfstr32vc	mvfx0, [r3], {81}	; 0x51
    13d8:	160000b4 			; <UNDEFINED> instruction: 0x160000b4
    13dc:	03055001 	movweq	r5, #20481	; 0x5001
    13e0:	0000b2bc 			; <UNDEFINED> instruction: 0x0000b2bc
    13e4:	007d0216 	rsbseq	r0, sp, r6, lsl r2
    13e8:	b7740305 	ldrblt	r0, [r4, -r5, lsl #6]!
    13ec:	10000000 	andne	r0, r0, r0
    13f0:	0000898c 	andeq	r8, r0, ip, lsl #19
    13f4:	00001468 	andeq	r1, r0, r8, ror #8
    13f8:	00899810 	addeq	r9, r9, r0, lsl r8
    13fc:	00144b00 	andseq	r4, r4, r0, lsl #22
    1400:	89b41500 	ldmibhi	r4!, {r8, sl, ip}
    1404:	14520000 	ldrbne	r0, [r2], #-0
    1408:	0ed20000 	cdpeq	0, 13, cr0, cr2, cr0, {0}
    140c:	01160000 	tsteq	r6, r0
    1410:	8f080253 	svchi	0x00080253
    1414:	05520116 	ldrbeq	r0, [r2, #-278]	; 0x116
    1418:	00b41003 	adcseq	r1, r4, r3
    141c:	51011600 	tstpl	r1, r0, lsl #12
    1420:	b47c0305 	ldrbtlt	r0, [ip], #-773	; 0x305
    1424:	01160000 	tsteq	r6, r0
    1428:	bc030550 	cfstr32lt	mvfx0, [r3], {80}	; 0x50
    142c:	160000b2 			; <UNDEFINED> instruction: 0x160000b2
    1430:	05007d02 	streq	r7, [r0, #-3330]	; 0xd02
    1434:	00b78003 	adcseq	r8, r7, r3
    1438:	b8100000 	ldmdalt	r0, {}	; <UNPREDICTABLE>
    143c:	68000089 	stmdavs	r0, {r0, r3, r7}
    1440:	00000014 	andeq	r0, r0, r4, lsl r0
    1444:	00008a17 	andeq	r8, r0, r7, lsl sl
    1448:	000eec00 	andeq	lr, lr, r0, lsl #24
    144c:	00811800 	addeq	r1, r1, r0, lsl #16
    1450:	00080000 	andeq	r0, r8, r0
    1454:	000edc07 	andeq	sp, lr, r7, lsl #24
    1458:	05802000 	streq	r2, [r0]
    145c:	92010000 	andls	r0, r1, #0
    1460:	000089d4 	ldrdeq	r8, [r0], -r4
    1464:	0000000c 	andeq	r0, r0, ip
    1468:	0f109c01 	svceq	0x00109c01
    146c:	dc100000 	ldcle	0, cr0, [r0], {-0}
    1470:	05000089 	streq	r0, [r0, #-137]	; 0x89
    1474:	00000015 	andeq	r0, r0, r5, lsl r0
    1478:	00035220 	andeq	r5, r3, r0, lsr #4
    147c:	e0970100 	adds	r0, r7, r0, lsl #2
    1480:	80000089 	andhi	r0, r0, r9, lsl #1
    1484:	01000000 	mrseq	r0, (UNDEF: 0)
    1488:	000fe19c 	muleq	pc, ip, r1	; <UNPREDICTABLE>
    148c:	00631100 	rsbeq	r1, r3, r0, lsl #2
    1490:	02579701 	subseq	r9, r7, #262144	; 0x40000
    1494:	09a80000 	stmibeq	r8!, {}	; <UNPREDICTABLE>
    1498:	d3120000 	tstle	r2, #0
    149c:	e1000000 	mrs	r0, (UNDEF: 0)
    14a0:	0500000f 	streq	r0, [r0, #-15]
    14a4:	00b41c03 	adcseq	r1, r4, r3, lsl #24
    14a8:	89f41000 	ldmibhi	r4!, {ip}^
    14ac:	144b0000 	strbne	r0, [fp], #-0
    14b0:	10150000 	andsne	r0, r5, r0
    14b4:	5200008a 	andpl	r0, r0, #138	; 0x8a
    14b8:	83000014 	movwhi	r0, #20
    14bc:	1600000f 	strne	r0, [r0], -pc
    14c0:	08025301 	stmdaeq	r2, {r0, r8, r9, ip, lr}
    14c4:	52011698 	andpl	r1, r1, #152, 12	; 0x9800000
    14c8:	b41c0305 	ldrlt	r0, [ip], #-773	; 0x305
    14cc:	01160000 	tsteq	r6, r0
    14d0:	7c030551 	cfstr32vc	mvfx0, [r3], {81}	; 0x51
    14d4:	160000b4 			; <UNDEFINED> instruction: 0x160000b4
    14d8:	03055001 	movweq	r5, #20481	; 0x5001
    14dc:	0000b2bc 			; <UNDEFINED> instruction: 0x0000b2bc
    14e0:	007d0216 	rsbseq	r0, sp, r6, lsl r2
    14e4:	b7900305 	ldrlt	r0, [r0, r5, lsl #6]
    14e8:	10000000 	andne	r0, r0, r0
    14ec:	00008a14 	andeq	r8, r0, r4, lsl sl
    14f0:	00001468 	andeq	r1, r0, r8, ror #8
    14f4:	008a2010 	addeq	r2, sl, r0, lsl r0
    14f8:	00144b00 	andseq	r4, r4, r0, lsl #22
    14fc:	8a3c1500 	bhi	f06904 <__bss_end__+0xef9f3c>
    1500:	14520000 	ldrbne	r0, [r2], #-0
    1504:	0fce0000 	svceq	0x00ce0000
    1508:	01160000 	tsteq	r6, r0
    150c:	99080253 	stmdbls	r8, {r0, r1, r4, r6, r9}
    1510:	05520116 	ldrbeq	r0, [r2, #-278]	; 0x116
    1514:	00b41c03 	adcseq	r1, r4, r3, lsl #24
    1518:	51011600 	tstpl	r1, r0, lsl #12
    151c:	b47c0305 	ldrbtlt	r0, [ip], #-773	; 0x305
    1520:	01160000 	tsteq	r6, r0
    1524:	bc030550 	cfstr32lt	mvfx0, [r3], {80}	; 0x50
    1528:	160000b2 			; <UNDEFINED> instruction: 0x160000b2
    152c:	05007d02 	streq	r7, [r0, #-3330]	; 0xd02
    1530:	00b7a003 	adcseq	sl, r7, r3
    1534:	40100000 	andsmi	r0, r0, r0
    1538:	6800008a 	stmdavs	r0, {r1, r3, r7}
    153c:	10000014 	andne	r0, r0, r4, lsl r0
    1540:	00008a44 	andeq	r8, r0, r4, asr #20
    1544:	0000150c 	andeq	r1, r0, ip, lsl #10
    1548:	0a0c0700 	beq	303150 <__bss_end__+0x2f6788>
    154c:	2f200000 	svccs	0x00200000
    1550:	01000004 	tsteq	r0, r4
    1554:	008a609c 	umulleq	r6, sl, ip, r0
    1558:	00005800 	andeq	r5, r0, r0, lsl #16
    155c:	759c0100 	ldrvc	r0, [ip, #256]	; 0x100
    1560:	14000010 	strne	r0, [r0], #-16
    1564:	9d010063 	stcls	0, cr0, [r1, #-396]	; 0xfffffe74
    1568:	00000257 	andeq	r0, r0, r7, asr r2
    156c:	000009d1 	ldrdeq	r0, [r0], -r1
    1570:	0000d312 	andeq	sp, r0, r2, lsl r3
    1574:	00108500 	andseq	r8, r0, r0, lsl #10
    1578:	2c030500 	cfstr32cs	mvfx0, [r3], {-0}
    157c:	100000b4 	strhne	r0, [r0], -r4
    1580:	00008a6c 	andeq	r8, r0, ip, ror #20
    1584:	00001440 	andeq	r1, r0, r0, asr #8
    1588:	008a7810 	addeq	r7, sl, r0, lsl r8
    158c:	00144b00 	andseq	r4, r4, r0, lsl #22
    1590:	8a941500 	bhi	fe506998 <__bss_end__+0xfe4f9fd0>
    1594:	14520000 	ldrbne	r0, [r2], #-0
    1598:	10620000 	rsbne	r0, r2, r0
    159c:	01160000 	tsteq	r6, r0
    15a0:	9e080253 	mcrls	2, 0, r0, cr8, cr3, {2}
    15a4:	05520116 	ldrbeq	r0, [r2, #-278]	; 0x116
    15a8:	00b42c03 	adcseq	r2, r4, r3, lsl #24
    15ac:	51011600 	tstpl	r1, r0, lsl #12
    15b0:	b47c0305 	ldrbtlt	r0, [ip], #-773	; 0x305
    15b4:	01160000 	tsteq	r6, r0
    15b8:	bc030550 	cfstr32lt	mvfx0, [r3], {80}	; 0x50
    15bc:	160000b2 			; <UNDEFINED> instruction: 0x160000b2
    15c0:	05007d02 	streq	r7, [r0, #-3330]	; 0xd02
    15c4:	00b7b403 	adcseq	fp, r7, r3, lsl #8
    15c8:	98100000 	ldmdals	r0, {}	; <UNPREDICTABLE>
    15cc:	6800008a 	stmdavs	r0, {r1, r3, r7}
    15d0:	10000014 	andne	r0, r0, r4, lsl r0
    15d4:	00008aa0 	andeq	r8, r0, r0, lsr #21
    15d8:	00000f10 	andeq	r0, r0, r0, lsl pc
    15dc:	008a1700 	addeq	r1, sl, r0, lsl #14
    15e0:	10850000 	addne	r0, r5, r0
    15e4:	81180000 	tsthi	r8, r0
    15e8:	0b000000 	bleq	15f0 <__code_start__-0x6a10>
    15ec:	10750700 	rsbsne	r0, r5, r0, lsl #14
    15f0:	2a200000 	bcs	8015f8 <__bss_end__+0x7f4c30>
    15f4:	01000003 	tsteq	r0, r3
    15f8:	008ab8a3 	addeq	fp, sl, r3, lsr #17
    15fc:	00005000 	andeq	r5, r0, r0
    1600:	109c0100 	addsne	r0, ip, r0, lsl #2
    1604:	11000011 	tstne	r0, r1, lsl r0
    1608:	a3010063 	movwge	r0, #4195	; 0x1063
    160c:	00000257 	andeq	r0, r0, r7, asr r2
    1610:	000009ef 	andeq	r0, r0, pc, ror #19
    1614:	0000d312 	andeq	sp, r0, r2, lsl r3
    1618:	00112000 	andseq	r2, r1, r0
    161c:	38030500 	stmdacc	r3, {r8, sl}
    1620:	100000b4 	strhne	r0, [r0], -r4
    1624:	00008acc 	andeq	r8, r0, ip, asr #21
    1628:	0000144b 	andeq	r1, r0, fp, asr #8
    162c:	008ae815 	addeq	lr, sl, r5, lsl r8
    1630:	00145200 	andseq	r5, r4, r0, lsl #4
    1634:	0010fd00 	andseq	pc, r0, r0, lsl #26
    1638:	53011600 	movwpl	r1, #5632	; 0x1600
    163c:	16a40802 	strtne	r0, [r4], r2, lsl #16
    1640:	03055201 	movweq	r5, #20993	; 0x5201
    1644:	0000b438 	andeq	fp, r0, r8, lsr r4
    1648:	05510116 	ldrbeq	r0, [r1, #-278]	; 0x116
    164c:	00b47c03 	adcseq	r7, r4, r3, lsl #24
    1650:	50011600 	andpl	r1, r1, r0, lsl #12
    1654:	b2bc0305 	adcslt	r0, ip, #335544320	; 0x14000000
    1658:	02160000 	andseq	r0, r6, #0
    165c:	0305007d 	movweq	r0, #20605	; 0x507d
    1660:	0000b7b4 			; <UNDEFINED> instruction: 0x0000b7b4
    1664:	8aec1000 	bhi	ffb0566c <__bss_end__+0xffaf8ca4>
    1668:	14680000 	strbtne	r0, [r8], #-0
    166c:	f0100000 			; <UNDEFINED> instruction: 0xf0100000
    1670:	1d00008a 	stcne	0, cr0, [r0, #-552]	; 0xfffffdd8
    1674:	00000015 	andeq	r0, r0, r5, lsl r0
    1678:	00008a17 	andeq	r8, r0, r7, lsl sl
    167c:	00112000 	andseq	r2, r1, r0
    1680:	00811800 	addeq	r1, r1, r0, lsl #16
    1684:	000e0000 	andeq	r0, lr, r0
    1688:	00111007 	andseq	r1, r1, r7
    168c:	05202000 	streq	r2, [r0, #-0]!
    1690:	a7010000 	strge	r0, [r1, -r0]
    1694:	00008b08 	andeq	r8, r0, r8, lsl #22
    1698:	00000058 	andeq	r0, r0, r8, asr r0
    169c:	11b49c01 			; <UNDEFINED> instruction: 0x11b49c01
    16a0:	63140000 	tstvs	r4, #0
    16a4:	57a80100 	strpl	r0, [r8, r0, lsl #2]!
    16a8:	0d000002 	stceq	0, cr0, [r0, #-8]
    16ac:	1200000a 	andne	r0, r0, #10
    16b0:	000000d3 	ldrdeq	r0, [r0], -r3
    16b4:	000011c4 	andeq	r1, r0, r4, asr #3
    16b8:	b4480305 	strblt	r0, [r8], #-773	; 0x305
    16bc:	14100000 	ldrne	r0, [r0], #-0
    16c0:	4000008b 	andmi	r0, r0, fp, lsl #1
    16c4:	10000014 	andne	r0, r0, r4, lsl r0
    16c8:	00008b20 	andeq	r8, r0, r0, lsr #22
    16cc:	0000144b 	andeq	r1, r0, fp, asr #8
    16d0:	008b3c15 	addeq	r3, fp, r5, lsl ip
    16d4:	00145200 	andseq	r5, r4, r0, lsl #4
    16d8:	0011a100 	andseq	sl, r1, r0, lsl #2
    16dc:	53011600 	movwpl	r1, #5632	; 0x1600
    16e0:	16a90802 	strtne	r0, [r9], r2, lsl #16
    16e4:	03055201 	movweq	r5, #20993	; 0x5201
    16e8:	0000b448 	andeq	fp, r0, r8, asr #8
    16ec:	05510116 	ldrbeq	r0, [r1, #-278]	; 0x116
    16f0:	00b47c03 	adcseq	r7, r4, r3, lsl #24
    16f4:	50011600 	andpl	r1, r1, r0, lsl #12
    16f8:	b2bc0305 	adcslt	r0, ip, #335544320	; 0x14000000
    16fc:	02160000 	andseq	r0, r6, #0
    1700:	0305007d 	movweq	r0, #20605	; 0x507d
    1704:	0000b790 	muleq	r0, r0, r7
    1708:	8b401000 	blhi	1005710 <__bss_end__+0xff8d48>
    170c:	14680000 	strbtne	r0, [r8], #-0
    1710:	48100000 	ldmdami	r0, {}	; <UNPREDICTABLE>
    1714:	8a00008b 	bhi	1948 <__code_start__-0x66b8>
    1718:	00000010 	andeq	r0, r0, r0, lsl r0
    171c:	00008a17 	andeq	r8, r0, r7, lsl sl
    1720:	0011c400 	andseq	ip, r1, r0, lsl #8
    1724:	00811800 	addeq	r1, r1, r0, lsl #16
    1728:	000a0000 	andeq	r0, sl, r0
    172c:	0011b407 	andseq	fp, r1, r7, lsl #8
    1730:	05560f00 	ldrbeq	r0, [r6, #-3840]	; 0xf00
    1734:	af010000 	svcge	0x00010000
    1738:	00000068 	andeq	r0, r0, r8, rrx
    173c:	00008b60 	andeq	r8, r0, r0, ror #22
    1740:	00000008 	andeq	r0, r0, r8
    1744:	11ee9c01 	mvnne	r9, r1, lsl #24
    1748:	72240000 	eorvc	r0, r4, #0
    174c:	68b00100 	ldmvs	r0!, {r8}
    1750:	01000000 	mrseq	r0, (UNDEF: 0)
    1754:	39200050 	stmdbcc	r0!, {r4, r6}
    1758:	01000003 	tsteq	r0, r3
    175c:	008b68b4 			; <UNDEFINED> instruction: 0x008b68b4
    1760:	00000c00 	andeq	r0, r0, r0, lsl #24
    1764:	229c0100 	addscs	r0, ip, #0, 2
    1768:	11000012 	tstne	r0, r2, lsl r0
    176c:	b4010072 	strlt	r0, [r1], #-114	; 0x72
    1770:	00000037 	andeq	r0, r0, r7, lsr r0
    1774:	00000a2b 	andeq	r0, r0, fp, lsr #20
    1778:	008b701f 	addeq	r7, fp, pc, lsl r0
    177c:	00152e00 	andseq	r2, r5, r0, lsl #28
    1780:	50011600 	andpl	r1, r1, r0, lsl #12
    1784:	5001f303 	andpl	pc, r1, r3, lsl #6
    1788:	f0200000 			; <UNDEFINED> instruction: 0xf0200000
    178c:	01000002 	tsteq	r0, r2
    1790:	008b74ba 			; <UNDEFINED> instruction: 0x008b74ba
    1794:	0000bc00 	andeq	fp, r0, r0, lsl #24
    1798:	729c0100 	addsvc	r0, ip, #0, 2
    179c:	11000013 	tstne	r0, r3, lsl r0
    17a0:	00646970 	rsbeq	r6, r4, r0, ror r9
    17a4:	0037ba01 	eorseq	fp, r7, r1, lsl #20
    17a8:	0a4c0000 	beq	13017b0 <__bss_end__+0x12f4de8>
    17ac:	651a0000 	ldrvs	r0, [sl, #-0]
    17b0:	01000002 	tsteq	r0, r2
    17b4:	000037ba 			; <UNDEFINED> instruction: 0x000037ba
    17b8:	000ab800 	andeq	fp, sl, r0, lsl #16
    17bc:	74701100 	ldrbtvc	r1, [r0], #-256	; 0x100
    17c0:	92ba0100 	adcsls	r0, sl, #0, 2
    17c4:	31000004 	tstcc	r0, r4
    17c8:	1200000b 	andne	r0, r0, #11
    17cc:	000000d3 	ldrdeq	r0, [r0], -r3
    17d0:	00001372 	andeq	r1, r0, r2, ror r3
    17d4:	b4540305 	ldrblt	r0, [r4], #-773	; 0x305
    17d8:	88100000 	ldmdahi	r0, {}	; <UNPREDICTABLE>
    17dc:	4b00008b 	blmi	1a10 <__code_start__-0x65f0>
    17e0:	15000014 	strne	r0, [r0, #-20]
    17e4:	00008ba4 	andeq	r8, r0, r4, lsr #23
    17e8:	00001452 	andeq	r1, r0, r2, asr r4
    17ec:	000012b4 			; <UNDEFINED> instruction: 0x000012b4
    17f0:	02530116 	subseq	r0, r3, #-2147483643	; 0x80000005
    17f4:	0116bb08 	tsteq	r6, r8, lsl #22
    17f8:	54030552 	strpl	r0, [r3], #-1362	; 0x552
    17fc:	160000b4 			; <UNDEFINED> instruction: 0x160000b4
    1800:	03055101 	movweq	r5, #20737	; 0x5101
    1804:	0000b47c 	andeq	fp, r0, ip, ror r4
    1808:	05500116 	ldrbeq	r0, [r0, #-278]	; 0x116
    180c:	00b2bc03 	adcseq	fp, r2, r3, lsl #24
    1810:	7d021600 	stcvc	6, cr1, [r2, #-0]
    1814:	c4030500 	strgt	r0, [r3], #-1280	; 0x500
    1818:	000000b7 	strheq	r0, [r0], -r7
    181c:	008ba810 	addeq	sl, fp, r0, lsl r8
    1820:	00146800 	andseq	r6, r4, r0, lsl #16
    1824:	8bb41000 	blhi	fed0582c <__bss_end__+0xfecf8e64>
    1828:	144b0000 	strbne	r0, [fp], #-0
    182c:	d0150000 	andsle	r0, r5, r0
    1830:	5200008b 	andpl	r0, r0, #139	; 0x8b
    1834:	ff000014 			; <UNDEFINED> instruction: 0xff000014
    1838:	16000012 			; <UNDEFINED> instruction: 0x16000012
    183c:	08025301 	stmdaeq	r2, {r0, r8, r9, ip, lr}
    1840:	520116bc 	andpl	r1, r1, #188, 12	; 0xbc00000
    1844:	b4540305 	ldrblt	r0, [r4], #-773	; 0x305
    1848:	01160000 	tsteq	r6, r0
    184c:	7c030551 	cfstr32vc	mvfx0, [r3], {81}	; 0x51
    1850:	160000b4 			; <UNDEFINED> instruction: 0x160000b4
    1854:	03055001 	movweq	r5, #20481	; 0x5001
    1858:	0000b2bc 			; <UNDEFINED> instruction: 0x0000b2bc
    185c:	007d0216 	rsbseq	r0, sp, r6, lsl r2
    1860:	b7d80305 	ldrblt	r0, [r8, r5, lsl #6]
    1864:	10000000 	andne	r0, r0, r0
    1868:	00008bd4 	ldrdeq	r8, [r0], -r4
    186c:	00001468 	andeq	r1, r0, r8, ror #8
    1870:	008be410 	addeq	lr, fp, r0, lsl r4
    1874:	00144b00 	andseq	r4, r4, r0, lsl #22
    1878:	8c001500 	cfstr32hi	mvfx1, [r0], {-0}
    187c:	14520000 	ldrbne	r0, [r2], #-0
    1880:	134a0000 	movtne	r0, #40960	; 0xa000
    1884:	01160000 	tsteq	r6, r0
    1888:	bd080253 	sfmlt	f0, 4, [r8, #-332]	; 0xfffffeb4
    188c:	05520116 	ldrbeq	r0, [r2, #-278]	; 0x116
    1890:	00b45403 	adcseq	r5, r4, r3, lsl #8
    1894:	51011600 	tstpl	r1, r0, lsl #12
    1898:	b47c0305 	ldrbtlt	r0, [ip], #-773	; 0x305
    189c:	01160000 	tsteq	r6, r0
    18a0:	bc030550 	cfstr32lt	mvfx0, [r3], {80}	; 0x50
    18a4:	160000b2 			; <UNDEFINED> instruction: 0x160000b2
    18a8:	05007d02 	streq	r7, [r0, #-3330]	; 0xd02
    18ac:	00b7e403 	adcseq	lr, r7, r3, lsl #8
    18b0:	04100000 	ldreq	r0, [r0], #-0
    18b4:	6800008c 	stmdavs	r0, {r2, r3, r7}
    18b8:	1f000014 	svcne	0x00000014
    18bc:	00008c10 	andeq	r8, r0, r0, lsl ip
    18c0:	0000153f 	andeq	r1, r0, pc, lsr r5
    18c4:	03510116 	cmpeq	r1, #-2147483643	; 0x80000005
    18c8:	165201f3 			; <UNDEFINED> instruction: 0x165201f3
    18cc:	f3095001 	vhadd.u8	d5, d9, d1
    18d0:	24385001 	ldrtcs	r5, [r8], #-1
    18d4:	215101f3 	ldrshcs	r0, [r1, #-19]	; 0xffffffed
    18d8:	a7070000 	strge	r0, [r7, -r0]
    18dc:	2000000b 	andcs	r0, r0, fp
    18e0:	0000050c 	andeq	r0, r0, ip, lsl #10
    18e4:	8c30c201 	lfmhi	f4, 1, [r0], #-4
    18e8:	00480000 	subeq	r0, r8, r0
    18ec:	9c010000 	stcls	0, cr0, [r1], {-0}
    18f0:	00001404 	andeq	r1, r0, r4, lsl #8
    18f4:	00726c11 	rsbseq	r6, r2, r1, lsl ip
    18f8:	0037c201 	eorseq	ip, r7, r1, lsl #4
    18fc:	0b9d0000 	bleq	fe741904 <__bss_end__+0xfe734f3c>
    1900:	d3120000 	tstle	r2, #0
    1904:	14000000 	strne	r0, [r0], #-0
    1908:	05000014 	streq	r0, [r0, #-20]
    190c:	00b46803 	adcseq	r6, r4, r3, lsl #16
    1910:	8c401000 	marhi	acc0, r1, r0
    1914:	03780000 	cmneq	r8, #0
    1918:	4c100000 	ldcmi	0, cr0, [r0], {-0}
    191c:	e600008c 	str	r0, [r0], -ip, lsl #1
    1920:	1000000f 	andne	r0, r0, pc
    1924:	00008c50 	andeq	r8, r0, r0, asr ip
    1928:	0000144b 	andeq	r1, r0, fp, asr #8
    192c:	008c6815 	addeq	r6, ip, r5, lsl r8
    1930:	00145200 	andseq	r5, r4, r0, lsl #4
    1934:	0013fa00 	andseq	pc, r3, r0, lsl #20
    1938:	53011600 	movwpl	r1, #5632	; 0x1600
    193c:	16c50802 	strbne	r0, [r5], r2, lsl #16
    1940:	03055201 	movweq	r5, #20993	; 0x5201
    1944:	0000b468 	andeq	fp, r0, r8, ror #8
    1948:	05510116 	ldrbeq	r0, [r1, #-278]	; 0x116
    194c:	00b47c03 	adcseq	r7, r4, r3, lsl #24
    1950:	50011600 	andpl	r1, r1, r0, lsl #12
    1954:	b7f80305 	ldrblt	r0, [r8, r5, lsl #6]!
    1958:	02160000 	andseq	r0, r6, #0
    195c:	7402007d 	strvc	r0, [r2], #-125	; 0x7d
    1960:	6c100000 	ldcvs	0, cr0, [r0], {-0}
    1964:	6800008c 	stmdavs	r0, {r2, r3, r7}
    1968:	00000014 	andeq	r0, r0, r4, lsl r0
    196c:	00008a17 	andeq	r8, r0, r7, lsl sl
    1970:	00141400 	andseq	r1, r4, r0, lsl #8
    1974:	00811800 	addeq	r1, r1, r0, lsl #16
    1978:	00130000 	andseq	r0, r3, r0
    197c:	00140407 	andseq	r0, r4, r7, lsl #8
    1980:	060c2500 	streq	r2, [ip], -r0, lsl #10
    1984:	07010000 	streq	r0, [r1, -r0]
    1988:	0000142a 	andeq	r1, r0, sl, lsr #8
    198c:	b3880305 	orrlt	r0, r8, #335544320	; 0x14000000
    1990:	37070000 	strcc	r0, [r7, -r0]
    1994:	25000000 	strcs	r0, [r0, #-0]
    1998:	00000908 	andeq	r0, r0, r8, lsl #18
    199c:	00250901 	eoreq	r0, r5, r1, lsl #18
    19a0:	03050000 	movweq	r0, #20480	; 0x5000
    19a4:	0000c5a8 	andeq	ip, r0, r8, lsr #11
    19a8:	00043b26 	andeq	r3, r4, r6, lsr #22
    19ac:	574e0500 	strbpl	r0, [lr, -r0, lsl #10]
    19b0:	27000002 	strcs	r0, [r0, -r2]
    19b4:	00000248 	andeq	r0, r0, r8, asr #4
    19b8:	9e281e07 	cdpls	14, 2, cr1, cr8, cr7, {0}
    19bc:	0700000a 	streq	r0, [r0, -sl]
    19c0:	00002529 	andeq	r2, r0, r9, lsr #10
    19c4:	00146800 	andseq	r6, r4, r0, lsl #16
    19c8:	00912900 	addseq	r2, r1, r0, lsl #18
    19cc:	002a0000 	eoreq	r0, sl, r0
    19d0:	00007b27 	andeq	r7, r0, r7, lsr #22
    19d4:	27650700 	strbcs	r0, [r5, -r0, lsl #14]!
    19d8:	00000477 	andeq	r0, r0, r7, ror r4
    19dc:	d8265202 	stmdale	r6!, {r1, r9, ip, lr}
    19e0:	06000003 	streq	r0, [r0], -r3
    19e4:	00033873 	andeq	r3, r3, r3, ror r8
    19e8:	054c2b00 	strbeq	r2, [ip, #-2816]	; 0xb00
    19ec:	70060000 	andvc	r0, r6, r0
    19f0:	00001492 	muleq	r0, r2, r4
    19f4:	00049229 	andeq	r9, r4, r9, lsr #4
    19f8:	982b0000 	stmdals	fp!, {}	; <UNPREDICTABLE>
    19fc:	06000003 	streq	r0, [r0], -r3
    1a00:	0014ad7a 	andseq	sl, r4, sl, ror sp
    1a04:	00912900 	addseq	r2, r1, r0, lsl #18
    1a08:	ad290000 	stcge	0, cr0, [r9, #-0]
    1a0c:	29000014 	stmdbcs	r0, {r2, r4}
    1a10:	00000037 	andeq	r0, r0, r7, lsr r0
    1a14:	b3040600 	movwlt	r0, #17920	; 0x4600
    1a18:	2c000014 	stccs	0, cr0, [r0], {20}
    1a1c:	00054528 	andeq	r4, r5, r8, lsr #10
    1a20:	881b0800 	ldmdahi	fp, {fp}
    1a24:	d3000000 	movwle	r0, #0
    1a28:	29000014 	stmdbcs	r0, {r2, r4}
    1a2c:	00000088 	andeq	r0, r0, r8, lsl #1
    1a30:	00002529 	andeq	r2, r0, r9, lsr #10
    1a34:	002c2900 	eoreq	r2, ip, r0, lsl #18
    1a38:	28000000 	stmdacs	r0, {}	; <UNPREDICTABLE>
    1a3c:	0000030c 	andeq	r0, r0, ip, lsl #6
    1a40:	00886d07 	addeq	r6, r8, r7, lsl #26
    1a44:	14ed0000 	strbtne	r0, [sp], #0
    1a48:	37290000 	strcc	r0, [r9, -r0]!
    1a4c:	29000000 	stmdbcs	r0, {}	; <UNPREDICTABLE>
    1a50:	00000037 	andeq	r0, r0, r7, lsr r0
    1a54:	026a2700 	rsbeq	r2, sl, #0, 14
    1a58:	5b020000 	blpl	81a60 <__bss_end__+0x75098>
    1a5c:	0003b62b 	andeq	fp, r3, fp, lsr #12
    1a60:	05500500 	ldrbeq	r0, [r0, #-1280]	; 0x500
    1a64:	29000015 	stmdbcs	r0, {r0, r2, r4}
    1a68:	00000257 	andeq	r0, r0, r7, asr r2
    1a6c:	06292700 	strteq	r2, [r9], -r0, lsl #14
    1a70:	36090000 	strcc	r0, [r9], -r0
    1a74:	0003802b 	andeq	r8, r3, fp, lsr #32
    1a78:	1d660200 	sfmne	f0, 2, [r6, #-0]
    1a7c:	29000015 	stmdbcs	r0, {r0, r2, r4}
    1a80:	00000257 	andeq	r0, r0, r7, asr r2
    1a84:	05e22b00 	strbeq	r2, [r2, #2816]!	; 0xb00
    1a88:	67020000 	strvs	r0, [r2, -r0]
    1a8c:	0000152e 	andeq	r1, r0, lr, lsr #10
    1a90:	00025729 	andeq	r5, r2, r9, lsr #14
    1a94:	622b0000 	eorvs	r0, fp, #0
    1a98:	02000003 	andeq	r0, r0, #3
    1a9c:	00153f56 	andseq	r3, r5, r6, asr pc
    1aa0:	00682900 	rsbeq	r2, r8, r0, lsl #18
    1aa4:	2d000000 	stccs	0, cr0, [r0, #-0]
    1aa8:	000002e7 	andeq	r0, r0, r7, ror #5
    1aac:	68296002 	stmdavs	r9!, {r1, sp, lr}
    1ab0:	29000000 	stmdbcs	r0, {}	; <UNPREDICTABLE>
    1ab4:	00000492 	muleq	r0, r2, r4
    1ab8:	119e0000 	orrsne	r0, lr, r0
    1abc:	00040000 	andeq	r0, r4, r0
    1ac0:	000003f4 	strdeq	r0, [r0], -r4
    1ac4:	015a0104 	cmpeq	sl, r4, lsl #2
    1ac8:	32010000 	andcc	r0, r1, #0
    1acc:	ec000006 	stc	0, cr0, [r0], {6}
    1ad0:	78000000 	stmdavc	r0, {}	; <UNPREDICTABLE>
    1ad4:	1400008c 	strne	r0, [r0], #-140	; 0x8c
    1ad8:	56000009 	strpl	r0, [r0], -r9
    1adc:	02000004 	andeq	r0, r0, #4
    1ae0:	6e690504 	cdpvs	5, 6, cr0, cr9, cr4, {0}
    1ae4:	04030074 	streq	r0, [r3], #-116	; 0x74
    1ae8:	0001df07 	andeq	sp, r1, r7, lsl #30
    1aec:	06010300 	streq	r0, [r1], -r0, lsl #6
    1af0:	0000006f 	andeq	r0, r0, pc, rrx
    1af4:	35050203 	strcc	r0, [r5, #-515]	; 0x203
    1af8:	03000002 	movweq	r0, #2
    1afc:	020e0504 	andeq	r0, lr, #4, 10	; 0x1000000
    1b00:	08030000 	stmdaeq	r3, {}	; <UNPREDICTABLE>
    1b04:	00020905 	andeq	r0, r2, r5, lsl #18
    1b08:	08010300 	stmdaeq	r1, {r8, r9}
    1b0c:	0000006d 	andeq	r0, r0, sp, rrx
    1b10:	24070203 	strcs	r0, [r7], #-515	; 0x203
    1b14:	04000000 	streq	r0, [r0], #-0
    1b18:	0000023f 	andeq	r0, r0, pc, lsr r2
    1b1c:	00683404 	rsbeq	r3, r8, r4, lsl #8
    1b20:	04030000 	streq	r0, [r3], #-0
    1b24:	0001da07 	andeq	sp, r1, r7, lsl #20
    1b28:	07080300 	streq	r0, [r8, -r0, lsl #6]
    1b2c:	000001d5 	ldrdeq	r0, [r0], -r5
    1b30:	00070403 	andeq	r0, r7, r3, lsl #8
    1b34:	03000002 	movweq	r0, #2
    1b38:	00760801 	rsbseq	r0, r6, r1, lsl #16
    1b3c:	04050000 	streq	r0, [r5], #-0
    1b40:	0000008a 	andeq	r0, r0, sl, lsl #1
    1b44:	00007d06 	andeq	r7, r0, r6, lsl #26
    1b48:	007d0700 	rsbseq	r0, sp, r0, lsl #14
    1b4c:	009f0000 	addseq	r0, pc, r0
    1b50:	76080000 	strvc	r0, [r8], -r0
    1b54:	19000000 	stmdbne	r0, {}	; <UNPREDICTABLE>
    1b58:	007d0700 	rsbseq	r0, sp, r0, lsl #14
    1b5c:	00af0000 	adceq	r0, pc, r0
    1b60:	76080000 	strvc	r0, [r8], -r0
    1b64:	18000000 	stmdane	r0, {}	; <UNPREDICTABLE>
    1b68:	068c0900 	streq	r0, [ip], r0, lsl #18
    1b6c:	02040000 	andeq	r0, r4, #0
    1b70:	00010708 	andeq	r0, r1, r8, lsl #14
    1b74:	07190a00 	ldreq	r0, [r9, -r0, lsl #20]
    1b78:	0a020000 	beq	81b80 <__bss_end__+0x751b8>
    1b7c:	0000002c 	andeq	r0, r0, ip, lsr #32
    1b80:	001f0104 	andseq	r0, pc, r4, lsl #2
    1b84:	0005a90a 	andeq	sl, r5, sl, lsl #18
    1b88:	2c0b0200 	sfmcs	f0, 4, [fp], {-0}
    1b8c:	04000000 	streq	r0, [r0], #-0
    1b90:	0a001807 	beq	7bb4 <__code_start__-0x44c>
    1b94:	0000072c 	andeq	r0, r0, ip, lsr #14
    1b98:	002c0c02 	eoreq	r0, ip, r2, lsl #24
    1b9c:	08040000 	stmdaeq	r4, {}	; <UNPREDICTABLE>
    1ba0:	230a0010 	movwcs	r0, #40976	; 0xa010
    1ba4:	02000007 	andeq	r0, r0, #7
    1ba8:	00002c0d 	andeq	r2, r0, sp, lsl #24
    1bac:	08080400 	stmdaeq	r8, {sl}
    1bb0:	05af0a00 	streq	r0, [pc, #2560]!	; 25b8 <__code_start__-0x5a48>
    1bb4:	0e020000 	cdpeq	0, 0, cr0, cr2, cr0, {0}
    1bb8:	0000002c 	andeq	r0, r0, ip, lsr #32
    1bbc:	00000804 	andeq	r0, r0, r4, lsl #16
    1bc0:	04ff0900 	ldrbteq	r0, [pc], #2304	; 1bc8 <__code_start__-0x6438>
    1bc4:	02040000 	andeq	r0, r4, #0
    1bc8:	0002c22a 	andeq	ip, r2, sl, lsr #4
    1bcc:	04ce0a00 	strbeq	r0, [lr], #2560	; 0xa00
    1bd0:	2c020000 	stccs	0, cr0, [r2], {-0}
    1bd4:	0000002c 	andeq	r0, r0, ip, lsr #32
    1bd8:	001f0104 	andseq	r0, pc, r4, lsl #2
    1bdc:	0002db0a 	andeq	sp, r2, sl, lsl #22
    1be0:	2c2d0200 	sfmcs	f0, 4, [sp], #-0
    1be4:	04000000 	streq	r0, [r0], #-0
    1be8:	0a001e01 	beq	93f4 <fld_print+0x4c>
    1bec:	000005d1 	ldrdeq	r0, [r0], -r1
    1bf0:	002c2e02 	eoreq	r2, ip, r2, lsl #28
    1bf4:	01040000 	mrseq	r0, (UNDEF: 4)
    1bf8:	8d0a001d 	stchi	0, cr0, [sl, #-116]	; 0xffffff8c
    1bfc:	02000004 	andeq	r0, r0, #4
    1c00:	00002c31 	andeq	r2, r0, r1, lsr ip
    1c04:	1c010400 	cfstrsne	mvf0, [r1], {-0}
    1c08:	053c0a00 	ldreq	r0, [ip, #-2560]!	; 0xa00
    1c0c:	32020000 	andcc	r0, r2, #0
    1c10:	0000002c 	andeq	r0, r0, ip, lsr #32
    1c14:	00190304 	andseq	r0, r9, r4, lsl #6
    1c18:	0002b70a 	andeq	fp, r2, sl, lsl #14
    1c1c:	2c330200 	lfmcs	f0, 4, [r3], #-0
    1c20:	04000000 	streq	r0, [r0], #-0
    1c24:	0a001801 	beq	7c30 <__code_start__-0x3d0>
    1c28:	00000499 	muleq	r0, r9, r4
    1c2c:	002c3402 	eoreq	r3, ip, r2, lsl #8
    1c30:	01040000 	mrseq	r0, (UNDEF: 4)
    1c34:	590a0017 	stmdbpl	sl, {r0, r1, r2, r4}
    1c38:	02000004 	andeq	r0, r0, #4
    1c3c:	00002c35 	andeq	r2, r0, r5, lsr ip
    1c40:	16010400 	strne	r0, [r1], -r0, lsl #8
    1c44:	00460b00 	subeq	r0, r6, r0, lsl #22
    1c48:	002c3602 	eoreq	r3, ip, r2, lsl #12
    1c4c:	01040000 	mrseq	r0, (UNDEF: 4)
    1c50:	570a0015 	smladpl	sl, r5, r0, r0
    1c54:	02000002 	andeq	r0, r0, #2
    1c58:	00002c37 	andeq	r2, r0, r7, lsr ip
    1c5c:	14010400 	strne	r0, [r1], #-1024	; 0x400
    1c60:	02cb0a00 	sbceq	r0, fp, #0, 20
    1c64:	38020000 	stmdacc	r2, {}	; <UNPREDICTABLE>
    1c68:	0000002c 	andeq	r0, r0, ip, lsr #32
    1c6c:	00130104 	andseq	r0, r3, r4, lsl #2
    1c70:	0002a70a 	andeq	sl, r2, sl, lsl #14
    1c74:	2c390200 	lfmcs	f0, 4, [r9], #-0
    1c78:	04000000 	streq	r0, [r0], #-0
    1c7c:	0a001201 	beq	6488 <__code_start__-0x1b78>
    1c80:	000003a3 	andeq	r0, r0, r3, lsr #7
    1c84:	002c3a02 	eoreq	r3, ip, r2, lsl #20
    1c88:	01040000 	mrseq	r0, (UNDEF: 4)
    1c8c:	4c0b0011 	stcmi	0, cr0, [fp], {17}
    1c90:	3b020034 	blcc	81d68 <__bss_end__+0x753a0>
    1c94:	0000002c 	andeq	r0, r0, ip, lsr #32
    1c98:	00100104 	andseq	r0, r0, r4, lsl #2
    1c9c:	74645f0b 	strbtvc	r5, [r4], #-3851	; 0xf0b
    1ca0:	2c3c0200 	lfmcs	f0, 4, [ip], #-0
    1ca4:	04000000 	streq	r0, [r0], #-0
    1ca8:	0a000f01 	beq	58b4 <__code_start__-0x274c>
    1cac:	000005a9 	andeq	r0, r0, r9, lsr #11
    1cb0:	002c3d02 	eoreq	r3, ip, r2, lsl #26
    1cb4:	01040000 	mrseq	r0, (UNDEF: 4)
    1cb8:	5f0b000e 	svcpl	0x000b000e
    1cbc:	02007469 	andeq	r7, r0, #1761607680	; 0x69000000
    1cc0:	00002c3e 	andeq	r2, r0, lr, lsr ip
    1cc4:	0d010400 	cfstrseq	mvf0, [r1, #-0]
    1cc8:	05af0a00 	streq	r0, [pc, #2560]!	; 26d0 <__code_start__-0x5930>
    1ccc:	3f020000 	svccc	0x00020000
    1cd0:	0000002c 	andeq	r0, r0, ip, lsr #32
    1cd4:	000c0104 	andeq	r0, ip, r4, lsl #2
    1cd8:	74735f0b 	ldrbtvc	r5, [r3], #-3851	; 0xf0b
    1cdc:	2c400200 	sfmcs	f0, 2, [r0], {-0}
    1ce0:	04000000 	streq	r0, [r0], #-0
    1ce4:	0b000b01 	bleq	48f0 <__code_start__-0x3710>
    1ce8:	02003146 	andeq	r3, r0, #-2147483631	; 0x80000011
    1cec:	00002c41 	andeq	r2, r0, r1, asr #24
    1cf0:	0a010400 	beq	42cf8 <__bss_end__+0x36330>
    1cf4:	04da0a00 	ldrbeq	r0, [sl], #2560	; 0xa00
    1cf8:	42020000 	andmi	r0, r2, #0
    1cfc:	0000002c 	andeq	r0, r0, ip, lsr #32
    1d00:	00090104 	andeq	r0, r9, r4, lsl #2
    1d04:	0004e60a 	andeq	lr, r4, sl, lsl #12
    1d08:	2c430200 	sfmcs	f0, 2, [r3], {-0}
    1d0c:	04000000 	streq	r0, [r0], #-0
    1d10:	0a000801 	beq	3d1c <__code_start__-0x42e4>
    1d14:	0000044d 	andeq	r0, r0, sp, asr #8
    1d18:	002c4502 	eoreq	r4, ip, r2, lsl #10
    1d1c:	01040000 	mrseq	r0, (UNDEF: 4)
    1d20:	450b0007 	strmi	r0, [fp, #-7]
    1d24:	46020045 	strmi	r0, [r2], -r5, asr #32
    1d28:	0000002c 	andeq	r0, r0, ip, lsr #32
    1d2c:	00060104 	andeq	r0, r6, r4, lsl #2
    1d30:	0005c60a 	andeq	ip, r5, sl, lsl #12
    1d34:	2c470200 	sfmcs	f0, 2, [r7], {-0}
    1d38:	04000000 	streq	r0, [r0], #-0
    1d3c:	0a000501 	beq	3148 <__code_start__-0x4eb8>
    1d40:	000003ec 	andeq	r0, r0, ip, ror #7
    1d44:	002c4802 	eoreq	r4, ip, r2, lsl #16
    1d48:	01040000 	mrseq	r0, (UNDEF: 4)
    1d4c:	ec0a0004 	stc	0, cr0, [sl], {4}
    1d50:	02000004 	andeq	r0, r0, #4
    1d54:	00002c49 	andeq	r2, r0, r9, asr #24
    1d58:	03010400 	movweq	r0, #5120	; 0x1400
    1d5c:	046b0a00 	strbteq	r0, [fp], #-2560	; 0xa00
    1d60:	4a020000 	bmi	81d68 <__bss_end__+0x753a0>
    1d64:	0000002c 	andeq	r0, r0, ip, lsr #32
    1d68:	00020104 	andeq	r0, r2, r4, lsl #2
    1d6c:	0003f70a 	andeq	pc, r3, sl, lsl #14
    1d70:	2c4b0200 	sfmcs	f0, 2, [fp], {-0}
    1d74:	04000000 	streq	r0, [r0], #-0
    1d78:	00000002 	andeq	r0, r0, r2
    1d7c:	00040809 	andeq	r0, r4, r9, lsl #16
    1d80:	46030400 	strmi	r0, [r3], -r0, lsl #8
    1d84:	00000398 	muleq	r0, r8, r3
    1d88:	6761740b 	strbvs	r7, [r1, -fp, lsl #8]!
    1d8c:	2c480300 	mcrrcs	3, 0, r0, r8, cr0
    1d90:	04000000 	streq	r0, [r0], #-0
    1d94:	0b001e02 	bleq	95a4 <last_fault_get+0x18>
    1d98:	49030042 	stmdbmi	r3, {r1, r6}
    1d9c:	0000002c 	andeq	r0, r0, ip, lsr #32
    1da0:	001d0104 	andseq	r0, sp, r4, lsl #2
    1da4:	0300430b 	movweq	r4, #779	; 0x30b
    1da8:	00002c4a 	andeq	r2, r0, sl, asr #24
    1dac:	1c010400 	cfstrsne	mvf0, [r1], {-0}
    1db0:	4e580b00 	vnmlsmi.f64	d16, d8, d0
    1db4:	2c4b0300 	mcrrcs	3, 0, r0, fp, cr0
    1db8:	04000000 	streq	r0, [r0], #-0
    1dbc:	0a001b01 	beq	89c8 <mmu_init+0x84>
    1dc0:	000005a2 	andeq	r0, r0, r2, lsr #11
    1dc4:	002c4e03 	eoreq	r4, ip, r3, lsl #28
    1dc8:	04040000 	streq	r0, [r4], #-0
    1dcc:	490b0017 	stmdbmi	fp, {r0, r1, r2, r4}
    1dd0:	0300504d 	movweq	r5, #77	; 0x4d
    1dd4:	00002c4f 	andeq	r2, r0, pc, asr #24
    1dd8:	16010400 	strne	r0, [r1], -r0, lsl #8
    1ddc:	50410b00 	subpl	r0, r1, r0, lsl #22
    1de0:	2c520300 	mrrccs	3, 0, r0, r2, cr0
    1de4:	04000000 	streq	r0, [r0], #-0
    1de8:	0b001402 	bleq	6df8 <__code_start__-0x1208>
    1dec:	00584554 	subseq	r4, r8, r4, asr r5
    1df0:	002c5303 	eoreq	r5, ip, r3, lsl #6
    1df4:	03040000 	movweq	r0, #16384	; 0x4000
    1df8:	410b0011 	tstmi	fp, r1, lsl r0
    1dfc:	03005850 	movweq	r5, #2128	; 0x850
    1e00:	00002c54 	andeq	r2, r0, r4, asr ip
    1e04:	10010400 	andne	r0, r1, r0, lsl #8
    1e08:	00530b00 	subseq	r0, r3, r0, lsl #22
    1e0c:	002c5503 	eoreq	r5, ip, r3, lsl #10
    1e10:	01040000 	mrseq	r0, (UNDEF: 4)
    1e14:	6e0b000f 	cdpvs	0, 0, cr0, cr11, cr15, {0}
    1e18:	56030047 	strpl	r0, [r3], -r7, asr #32
    1e1c:	0000002c 	andeq	r0, r0, ip, lsr #32
    1e20:	000e0104 	andeq	r0, lr, r4, lsl #2
    1e24:	0003b00a 	andeq	fp, r3, sl
    1e28:	2c570300 	mrrccs	3, 0, r0, r7, cr0
    1e2c:	04000000 	streq	r0, [r0], #-0
    1e30:	0a000d01 	beq	523c <__code_start__-0x2dc4>
    1e34:	000005af 	andeq	r0, r0, pc, lsr #11
    1e38:	002c5803 	eoreq	r5, ip, r3, lsl #16
    1e3c:	01040000 	mrseq	r0, (UNDEF: 4)
    1e40:	1c0a000c 	stcne	0, cr0, [sl], {12}
    1e44:	03000003 	movweq	r0, #3
    1e48:	00002c59 	andeq	r2, r0, r9, asr ip
    1e4c:	000c0400 	andeq	r0, ip, r0, lsl #8
    1e50:	7a040000 	bvc	101e58 <__bss_end__+0xf5490>
    1e54:	03000003 	movweq	r0, #3
    1e58:	0002c25a 	andeq	ip, r2, sl, asr r2
    1e5c:	03980c00 	orrseq	r0, r8, #0, 24
    1e60:	0f010000 	svceq	0x00010000
    1e64:	00008c78 	andeq	r8, r0, r8, ror ip
    1e68:	00000034 	andeq	r0, r0, r4, lsr r0
    1e6c:	041e9c01 	ldreq	r9, [lr], #-3073	; 0xc01
    1e70:	6d0d0000 	stcvs	0, cr0, [sp, #-0]
    1e74:	01006773 	tsteq	r0, r3, ror r7
    1e78:	0000840f 	andeq	r8, r0, pc, lsl #8
    1e7c:	000bbb00 	andeq	fp, fp, r0, lsl #22
    1e80:	13760e00 	cmnne	r6, #0, 28
    1e84:	0f010000 	svceq	0x00010000
    1e88:	0000041e 	andeq	r0, r0, lr, lsl r4
    1e8c:	00000bd9 	ldrdeq	r0, [r0], -r9
    1e90:	01006e0d 	tsteq	r0, sp, lsl #28
    1e94:	00002c0f 	andeq	r2, r0, pc, lsl #24
    1e98:	000c0500 	andeq	r0, ip, r0, lsl #10
    1e9c:	8c900f00 	ldchi	15, cr0, [r0], {0}
    1ea0:	11580000 	cmpne	r8, r0
    1ea4:	03fe0000 	mvnseq	r0, #0
    1ea8:	01100000 	tsteq	r0, r0
    1eac:	00740251 	rsbseq	r0, r4, r1, asr r2
    1eb0:	03500110 	cmpeq	r0, #16, 2
    1eb4:	005101f3 	ldrsheq	r0, [r1], #-19	; 0xffffffed
    1eb8:	008ca411 	addeq	sl, ip, r1, lsl r4
    1ebc:	00117200 	andseq	r7, r1, r0, lsl #4
    1ec0:	53011000 	movwpl	r1, #4096	; 0x1000
    1ec4:	10007402 	andne	r7, r0, r2, lsl #8
    1ec8:	75025101 	strvc	r5, [r2, #-257]	; 0x101
    1ecc:	50011000 	andpl	r1, r1, r0
    1ed0:	b8300305 	ldmdalt	r0!, {r0, r2, r8, r9}
    1ed4:	00000000 	andeq	r0, r0, r0
    1ed8:	04240405 	strteq	r0, [r4], #-1029	; 0x405
    1edc:	0c120000 	ldceq	0, cr0, [r2], {-0}
    1ee0:	000006dc 	ldrdeq	r0, [r0], -ip
    1ee4:	8cac1701 	stchi	7, cr1, [ip], #4
    1ee8:	00280000 	eoreq	r0, r8, r0
    1eec:	9c010000 	stcls	0, cr0, [r1], {-0}
    1ef0:	0000046e 	andeq	r0, r0, lr, ror #8
    1ef4:	008cb80f 	addeq	fp, ip, pc, lsl #16
    1ef8:	00117200 	andseq	r7, r1, r0, lsl #4
    1efc:	00045100 	andeq	r5, r4, r0, lsl #2
    1f00:	50011000 	andpl	r1, r1, r0
    1f04:	b84c0305 	stmdalt	ip, {r0, r2, r8, r9}^
    1f08:	13000000 	movwne	r0, #0
    1f0c:	00008cbc 			; <UNDEFINED> instruction: 0x00008cbc
    1f10:	00001188 	andeq	r1, r0, r8, lsl #3
    1f14:	008cc811 	addeq	ip, ip, r1, lsl r8
    1f18:	00117200 	andseq	r7, r1, r0, lsl #4
    1f1c:	50011000 	andpl	r1, r1, r0
    1f20:	b8640305 	stmdalt	r4!, {r0, r2, r8, r9}^
    1f24:	00000000 	andeq	r0, r0, r0
    1f28:	0006ed14 	andeq	lr, r6, r4, lsl sp
    1f2c:	d4200100 	strtle	r0, [r0], #-256	; 0x100
    1f30:	0800008c 	stmdaeq	r0, {r2, r3, r7}
    1f34:	01000000 	mrseq	r0, (UNDEF: 0)
    1f38:	0004939c 	muleq	r4, ip, r3
    1f3c:	00d31500 	sbcseq	r1, r3, r0, lsl #10
    1f40:	04a30000 	strteq	r0, [r3], #0
    1f44:	03050000 	movweq	r0, #20480	; 0x5000
    1f48:	0000bc34 	andeq	fp, r0, r4, lsr ip
    1f4c:	007d0700 	rsbseq	r0, sp, r0, lsl #14
    1f50:	04a30000 	strteq	r0, [r3], #0
    1f54:	76080000 	strvc	r0, [r8], -r0
    1f58:	1a000000 	bne	1f60 <__code_start__-0x60a0>
    1f5c:	04930600 	ldreq	r0, [r3], #1536	; 0x600
    1f60:	5c140000 	ldcpl	0, cr0, [r4], {-0}
    1f64:	01000006 	tsteq	r0, r6
    1f68:	008cdc39 	addeq	sp, ip, r9, lsr ip
    1f6c:	0001f800 	andeq	pc, r1, r0, lsl #16
    1f70:	7d9c0100 	ldfvcs	f0, [ip]
    1f74:	0d000007 	stceq	0, cr0, [r0, #-28]	; 0xffffffe4
    1f78:	39010072 	stmdbcc	r1, {r1, r4, r5, r6}
    1f7c:	0000077d 	andeq	r0, r0, sp, ror r7
    1f80:	00000c23 	andeq	r0, r0, r3, lsr #24
    1f84:	0000d315 	andeq	sp, r0, r5, lsl r3
    1f88:	00078300 	andeq	r8, r7, r0, lsl #6
    1f8c:	08030500 	stmdaeq	r3, {r8, sl}
    1f90:	130000bc 	movwne	r0, #188	; 0xbc
    1f94:	00008cfc 	strdeq	r8, [r0], -ip
    1f98:	00001193 	muleq	r0, r3, r1
    1f9c:	008d180f 	addeq	r1, sp, pc, lsl #16
    1fa0:	00117200 	andseq	r7, r1, r0, lsl #4
    1fa4:	00051b00 	andeq	r1, r5, r0, lsl #22
    1fa8:	53011000 	movwpl	r1, #4096	; 0x1000
    1fac:	103b0802 	eorsne	r0, fp, r2, lsl #16
    1fb0:	03055201 	movweq	r5, #20993	; 0x5201
    1fb4:	0000bc08 	andeq	fp, r0, r8, lsl #24
    1fb8:	05510110 	ldrbeq	r0, [r1, #-272]	; 0x110
    1fbc:	00b8b403 	adcseq	fp, r8, r3, lsl #8
    1fc0:	50011000 	andpl	r1, r1, r0
    1fc4:	b2bc0305 	adcslt	r0, ip, #335544320	; 0x14000000
    1fc8:	02100000 	andseq	r0, r0, #0
    1fcc:	0305007d 	movweq	r0, #20605	; 0x507d
    1fd0:	0000b9c8 	andeq	fp, r0, r8, asr #19
    1fd4:	8d1c1300 	ldchi	3, cr1, [ip, #-0]
    1fd8:	119a0000 	orrsne	r0, sl, r0
    1fdc:	2c130000 	ldccs	0, cr0, [r3], {-0}
    1fe0:	9300008d 	movwls	r0, #141	; 0x8d
    1fe4:	0f000011 	svceq	0x00000011
    1fe8:	00008d48 	andeq	r8, r0, r8, asr #26
    1fec:	00001172 	andeq	r1, r0, r2, ror r1
    1ff0:	00000566 	andeq	r0, r0, r6, ror #10
    1ff4:	02530110 	subseq	r0, r3, #16, 2
    1ff8:	01103c08 	tsteq	r0, r8, lsl #24
    1ffc:	08030552 	stmdaeq	r3, {r1, r4, r6, r8, sl}
    2000:	100000bc 	strhne	r0, [r0], -ip
    2004:	03055101 	movweq	r5, #20737	; 0x5101
    2008:	0000b8b4 			; <UNDEFINED> instruction: 0x0000b8b4
    200c:	05500110 	ldrbeq	r0, [r0, #-272]	; 0x110
    2010:	00b2bc03 	adcseq	fp, r2, r3, lsl #24
    2014:	7d021000 	stcvc	0, cr1, [r2, #-0]
    2018:	e0030500 	and	r0, r3, r0, lsl #10
    201c:	000000b9 	strheq	r0, [r0], -r9
    2020:	008d4c13 	addeq	r4, sp, r3, lsl ip
    2024:	00119a00 	andseq	r9, r1, r0, lsl #20
    2028:	8d5c1300 	ldclhi	3, cr1, [ip, #-0]
    202c:	11930000 	orrsne	r0, r3, r0
    2030:	780f0000 	stmdavc	pc, {}	; <UNPREDICTABLE>
    2034:	7200008d 	andvc	r0, r0, #141	; 0x8d
    2038:	b1000011 	tstlt	r0, r1, lsl r0
    203c:	10000005 	andne	r0, r0, r5
    2040:	08025301 	stmdaeq	r2, {r0, r8, r9, ip, lr}
    2044:	5201103d 	andpl	r1, r1, #61	; 0x3d
    2048:	bc080305 	stclt	3, cr0, [r8], {5}
    204c:	01100000 	tsteq	r0, r0
    2050:	b4030551 	strlt	r0, [r3], #-1361	; 0x551
    2054:	100000b8 	strhne	r0, [r0], -r8
    2058:	03055001 	movweq	r5, #20481	; 0x5001
    205c:	0000b2bc 			; <UNDEFINED> instruction: 0x0000b2bc
    2060:	007d0210 	rsbseq	r0, sp, r0, lsl r2
    2064:	b9ec0305 	stmiblt	ip!, {r0, r2, r8, r9}^
    2068:	13000000 	movwne	r0, #0
    206c:	00008d7c 	andeq	r8, r0, ip, ror sp
    2070:	0000119a 	muleq	r0, sl, r1
    2074:	008d8c13 	addeq	r8, sp, r3, lsl ip
    2078:	00119300 	andseq	r9, r1, r0, lsl #6
    207c:	8da80f00 	stchi	15, cr0, [r8]
    2080:	11720000 	cmnne	r2, r0
    2084:	05fc0000 	ldrbeq	r0, [ip, #0]!
    2088:	01100000 	tsteq	r0, r0
    208c:	40080253 	andmi	r0, r8, r3, asr r2
    2090:	05520110 	ldrbeq	r0, [r2, #-272]	; 0x110
    2094:	00bc0803 	adcseq	r0, ip, r3, lsl #16
    2098:	51011000 	mrspl	r1, (UNDEF: 1)
    209c:	b8b40305 	ldmlt	r4!, {r0, r2, r8, r9}
    20a0:	01100000 	tsteq	r0, r0
    20a4:	bc030550 	cfstr32lt	mvfx0, [r3], {80}	; 0x50
    20a8:	100000b2 	strhne	r0, [r0], -r2
    20ac:	05007d02 	streq	r7, [r0, #-3330]	; 0xd02
    20b0:	00b9f803 	adcseq	pc, r9, r3, lsl #16
    20b4:	ac130000 	ldcge	0, cr0, [r3], {-0}
    20b8:	9a00008d 	bls	22f4 <__code_start__-0x5d0c>
    20bc:	13000011 	movwne	r0, #17
    20c0:	00008dbc 			; <UNDEFINED> instruction: 0x00008dbc
    20c4:	00001193 	muleq	r0, r3, r1
    20c8:	008dd80f 	addeq	sp, sp, pc, lsl #16
    20cc:	00117200 	andseq	r7, r1, r0, lsl #4
    20d0:	00064700 	andeq	r4, r6, r0, lsl #14
    20d4:	53011000 	movwpl	r1, #4096	; 0x1000
    20d8:	10410802 	subne	r0, r1, r2, lsl #16
    20dc:	03055201 	movweq	r5, #20993	; 0x5201
    20e0:	0000bc08 	andeq	fp, r0, r8, lsl #24
    20e4:	05510110 	ldrbeq	r0, [r1, #-272]	; 0x110
    20e8:	00b8b403 	adcseq	fp, r8, r3, lsl #8
    20ec:	50011000 	andpl	r1, r1, r0
    20f0:	b2bc0305 	adcslt	r0, ip, #335544320	; 0x14000000
    20f4:	02100000 	andseq	r0, r0, #0
    20f8:	0305007d 	movweq	r0, #20605	; 0x507d
    20fc:	0000ba08 	andeq	fp, r0, r8, lsl #20
    2100:	8ddc1300 	ldclhi	3, cr1, [ip]
    2104:	119a0000 	orrsne	r0, sl, r0
    2108:	ec130000 	ldc	0, cr0, [r3], {-0}
    210c:	9300008d 	movwls	r0, #141	; 0x8d
    2110:	0f000011 	svceq	0x00000011
    2114:	00008e08 	andeq	r8, r0, r8, lsl #28
    2118:	00001172 	andeq	r1, r0, r2, ror r1
    211c:	00000692 	muleq	r0, r2, r6
    2120:	02530110 	subseq	r0, r3, #16, 2
    2124:	01104208 	tsteq	r0, r8, lsl #4
    2128:	08030552 	stmdaeq	r3, {r1, r4, r6, r8, sl}
    212c:	100000bc 	strhne	r0, [r0], -ip
    2130:	03055101 	movweq	r5, #20737	; 0x5101
    2134:	0000b8b4 			; <UNDEFINED> instruction: 0x0000b8b4
    2138:	05500110 	ldrbeq	r0, [r0, #-272]	; 0x110
    213c:	00b2bc03 	adcseq	fp, r2, r3, lsl #24
    2140:	7d021000 	stcvc	0, cr1, [r2, #-0]
    2144:	18030500 	stmdane	r3, {r8, sl}
    2148:	000000ba 	strheq	r0, [r0], -sl
    214c:	008e0c13 	addeq	r0, lr, r3, lsl ip
    2150:	00119a00 	andseq	r9, r1, r0, lsl #20
    2154:	8e1c1300 	cdphi	3, 1, cr1, cr12, cr0, {0}
    2158:	11930000 	orrsne	r0, r3, r0
    215c:	380f0000 	stmdacc	pc, {}	; <UNPREDICTABLE>
    2160:	7200008e 	andvc	r0, r0, #142	; 0x8e
    2164:	dd000011 	stcle	0, cr0, [r0, #-68]	; 0xffffffbc
    2168:	10000006 	andne	r0, r0, r6
    216c:	08025301 	stmdaeq	r2, {r0, r8, r9, ip, lr}
    2170:	5201104b 	andpl	r1, r1, #75	; 0x4b
    2174:	bc080305 	stclt	3, cr0, [r8], {5}
    2178:	01100000 	tsteq	r0, r0
    217c:	b4030551 	strlt	r0, [r3], #-1361	; 0x551
    2180:	100000b8 	strhne	r0, [r0], -r8
    2184:	03055001 	movweq	r5, #20481	; 0x5001
    2188:	0000b2bc 			; <UNDEFINED> instruction: 0x0000b2bc
    218c:	007d0210 	rsbseq	r0, sp, r0, lsl r2
    2190:	ba240305 	blt	902dac <__bss_end__+0x8f63e4>
    2194:	13000000 	movwne	r0, #0
    2198:	00008e3c 	andeq	r8, r0, ip, lsr lr
    219c:	0000119a 	muleq	r0, sl, r1
    21a0:	008e4c13 	addeq	r4, lr, r3, lsl ip
    21a4:	00119300 	andseq	r9, r1, r0, lsl #6
    21a8:	8e680f00 	cdphi	15, 6, cr0, cr8, cr0, {0}
    21ac:	11720000 	cmnne	r2, r0
    21b0:	07280000 	streq	r0, [r8, -r0]!
    21b4:	01100000 	tsteq	r0, r0
    21b8:	4c080253 	sfmmi	f0, 4, [r8], {83}	; 0x53
    21bc:	05520110 	ldrbeq	r0, [r2, #-272]	; 0x110
    21c0:	00bc0803 	adcseq	r0, ip, r3, lsl #16
    21c4:	51011000 	mrspl	r1, (UNDEF: 1)
    21c8:	b8b40305 	ldmlt	r4!, {r0, r2, r8, r9}
    21cc:	01100000 	tsteq	r0, r0
    21d0:	bc030550 	cfstr32lt	mvfx0, [r3], {80}	; 0x50
    21d4:	100000b2 	strhne	r0, [r0], -r2
    21d8:	05007d02 	streq	r7, [r0, #-3330]	; 0xd02
    21dc:	00ba3403 	adcseq	r3, sl, r3, lsl #8
    21e0:	6c130000 	ldcvs	0, cr0, [r3], {-0}
    21e4:	9a00008e 	bls	2424 <__code_start__-0x5bdc>
    21e8:	13000011 	movwne	r0, #17
    21ec:	00008e7c 	andeq	r8, r0, ip, ror lr
    21f0:	00001193 	muleq	r0, r3, r1
    21f4:	008e980f 	addeq	r9, lr, pc, lsl #16
    21f8:	00117200 	andseq	r7, r1, r0, lsl #4
    21fc:	00077300 	andeq	r7, r7, r0, lsl #6
    2200:	53011000 	movwpl	r1, #4096	; 0x1000
    2204:	104d0802 	subne	r0, sp, r2, lsl #16
    2208:	03055201 	movweq	r5, #20993	; 0x5201
    220c:	0000bc08 	andeq	fp, r0, r8, lsl #24
    2210:	05510110 	ldrbeq	r0, [r1, #-272]	; 0x110
    2214:	00b8b403 	adcseq	fp, r8, r3, lsl #8
    2218:	50011000 	andpl	r1, r1, r0
    221c:	b2bc0305 	adcslt	r0, ip, #335544320	; 0x14000000
    2220:	02100000 	andseq	r0, r0, #0
    2224:	0305007d 	movweq	r0, #20605	; 0x507d
    2228:	0000ba48 	andeq	fp, r0, r8, asr #20
    222c:	8e9c1300 	cdphi	3, 9, cr1, cr12, cr0, {0}
    2230:	119a0000 	orrsne	r0, sl, r0
    2234:	05000000 	streq	r0, [r0, #-0]
    2238:	00010704 	andeq	r0, r1, r4, lsl #14
    223c:	008f0600 	addeq	r0, pc, r0, lsl #12
    2240:	b00c0000 	andlt	r0, ip, r0
    2244:	01000006 	tsteq	r0, r6
    2248:	008ed450 	addeq	sp, lr, r0, asr r4
    224c:	00020400 	andeq	r0, r2, r0, lsl #8
    2250:	129c0100 	addsne	r0, ip, #0, 2
    2254:	0d00000a 	stceq	0, cr0, [r0, #-40]	; 0xffffffd8
    2258:	50010072 	andpl	r0, r1, r2, ror r0
    225c:	0000077d 	andeq	r0, r0, sp, ror r7
    2260:	00000d17 	andeq	r0, r0, r7, lsl sp
    2264:	008ee00f 	addeq	lr, lr, pc
    2268:	0004a800 	andeq	sl, r4, r0, lsl #16
    226c:	0007be00 	andeq	fp, r7, r0, lsl #28
    2270:	50011000 	andpl	r1, r1, r0
    2274:	00007402 	andeq	r7, r0, r2, lsl #8
    2278:	008ee80f 	addeq	lr, lr, pc, lsl #16
    227c:	00117200 	andseq	r7, r1, r0, lsl #4
    2280:	0007d500 	andeq	sp, r7, r0, lsl #10
    2284:	50011000 	andpl	r1, r1, r0
    2288:	ba600305 	blt	1802ea4 <__bss_end__+0x17f64dc>
    228c:	0f000000 	svceq	0x00000000
    2290:	00008f00 	andeq	r8, r0, r0, lsl #30
    2294:	00001172 	andeq	r1, r0, r2, ror r1
    2298:	000007f5 	strdeq	r0, [r0], -r5
    229c:	05520110 	ldrbeq	r0, [r2, #-272]	; 0x110
    22a0:	00b9bc03 	adcseq	fp, r9, r3, lsl #24
    22a4:	50011000 	andpl	r1, r1, r0
    22a8:	ba780305 	blt	1e02ec4 <__bss_end__+0x1df64fc>
    22ac:	0f000000 	svceq	0x00000000
    22b0:	00008f18 	andeq	r8, r0, r8, lsl pc
    22b4:	00001172 	andeq	r1, r0, r2, ror r1
    22b8:	00000815 	andeq	r0, r0, r5, lsl r8
    22bc:	05520110 	ldrbeq	r0, [r2, #-272]	; 0x110
    22c0:	00b9ac03 	adcseq	sl, r9, r3, lsl #24
    22c4:	50011000 	andpl	r1, r1, r0
    22c8:	ba780305 	blt	1e02ee4 <__bss_end__+0x1df651c>
    22cc:	0f000000 	svceq	0x00000000
    22d0:	00008f30 	andeq	r8, r0, r0, lsr pc
    22d4:	00001172 	andeq	r1, r0, r2, ror r1
    22d8:	00000835 	andeq	r0, r0, r5, lsr r8
    22dc:	05520110 	ldrbeq	r0, [r2, #-272]	; 0x110
    22e0:	00ba2803 	adcseq	r2, sl, r3, lsl #16
    22e4:	50011000 	andpl	r1, r1, r0
    22e8:	ba780305 	blt	1e02f04 <__bss_end__+0x1df653c>
    22ec:	0f000000 	svceq	0x00000000
    22f0:	00008f48 	andeq	r8, r0, r8, asr #30
    22f4:	00001172 	andeq	r1, r0, r2, ror r1
    22f8:	00000855 	andeq	r0, r0, r5, asr r8
    22fc:	05520110 	ldrbeq	r0, [r2, #-272]	; 0x110
    2300:	00b9a803 	adcseq	sl, r9, r3, lsl #16
    2304:	50011000 	andpl	r1, r1, r0
    2308:	ba780305 	blt	1e02f24 <__bss_end__+0x1df655c>
    230c:	0f000000 	svceq	0x00000000
    2310:	00008f5c 	andeq	r8, r0, ip, asr pc
    2314:	00001172 	andeq	r1, r0, r2, ror r1
    2318:	00000875 	andeq	r0, r0, r5, ror r8
    231c:	05520110 	ldrbeq	r0, [r2, #-272]	; 0x110
    2320:	00b99c03 	adcseq	r9, r9, r3, lsl #24
    2324:	50011000 	andpl	r1, r1, r0
    2328:	ba780305 	blt	1e02f44 <__bss_end__+0x1df657c>
    232c:	0f000000 	svceq	0x00000000
    2330:	00008f70 	andeq	r8, r0, r0, ror pc
    2334:	00001172 	andeq	r1, r0, r2, ror r1
    2338:	00000895 	muleq	r0, r5, r8
    233c:	05520110 	ldrbeq	r0, [r2, #-272]	; 0x110
    2340:	00b99403 	adcseq	r9, r9, r3, lsl #8
    2344:	50011000 	andpl	r1, r1, r0
    2348:	ba780305 	blt	1e02f64 <__bss_end__+0x1df659c>
    234c:	0f000000 	svceq	0x00000000
    2350:	00008f88 	andeq	r8, r0, r8, lsl #31
    2354:	00001172 	andeq	r1, r0, r2, ror r1
    2358:	000008b5 			; <UNDEFINED> instruction: 0x000008b5
    235c:	05520110 	ldrbeq	r0, [r2, #-272]	; 0x110
    2360:	00b98803 	adcseq	r8, r9, r3, lsl #16
    2364:	50011000 	andpl	r1, r1, r0
    2368:	ba780305 	blt	1e02f84 <__bss_end__+0x1df65bc>
    236c:	0f000000 	svceq	0x00000000
    2370:	00008fa0 	andeq	r8, r0, r0, lsr #31
    2374:	00001172 	andeq	r1, r0, r2, ror r1
    2378:	000008d5 	ldrdeq	r0, [r0], -r5
    237c:	05520110 	ldrbeq	r0, [r2, #-272]	; 0x110
    2380:	00b98403 	adcseq	r8, r9, r3, lsl #8
    2384:	50011000 	andpl	r1, r1, r0
    2388:	ba780305 	blt	1e02fa4 <__bss_end__+0x1df65dc>
    238c:	0f000000 	svceq	0x00000000
    2390:	00008fb8 			; <UNDEFINED> instruction: 0x00008fb8
    2394:	00001172 	andeq	r1, r0, r2, ror r1
    2398:	000008f5 	strdeq	r0, [r0], -r5
    239c:	05520110 	ldrbeq	r0, [r2, #-272]	; 0x110
    23a0:	00b97003 	adcseq	r7, r9, r3
    23a4:	50011000 	andpl	r1, r1, r0
    23a8:	ba780305 	blt	1e02fc4 <__bss_end__+0x1df65fc>
    23ac:	0f000000 	svceq	0x00000000
    23b0:	00008fd0 	ldrdeq	r8, [r0], -r0
    23b4:	00001172 	andeq	r1, r0, r2, ror r1
    23b8:	00000915 	andeq	r0, r0, r5, lsl r9
    23bc:	05520110 	ldrbeq	r0, [r2, #-272]	; 0x110
    23c0:	00ba3803 	adcseq	r3, sl, r3, lsl #16
    23c4:	50011000 	andpl	r1, r1, r0
    23c8:	ba780305 	blt	1e02fe4 <__bss_end__+0x1df661c>
    23cc:	0f000000 	svceq	0x00000000
    23d0:	00008fe8 	andeq	r8, r0, r8, ror #31
    23d4:	00001172 	andeq	r1, r0, r2, ror r1
    23d8:	00000935 	andeq	r0, r0, r5, lsr r9
    23dc:	05520110 	ldrbeq	r0, [r2, #-272]	; 0x110
    23e0:	00b95003 	adcseq	r5, r9, r3
    23e4:	50011000 	andpl	r1, r1, r0
    23e8:	ba780305 	blt	1e03004 <__bss_end__+0x1df663c>
    23ec:	0f000000 	svceq	0x00000000
    23f0:	00009000 	andeq	r9, r0, r0
    23f4:	00001172 	andeq	r1, r0, r2, ror r1
    23f8:	00000955 	andeq	r0, r0, r5, asr r9
    23fc:	05520110 	ldrbeq	r0, [r2, #-272]	; 0x110
    2400:	00b94003 	adcseq	r4, r9, r3
    2404:	50011000 	andpl	r1, r1, r0
    2408:	ba780305 	blt	1e03024 <__bss_end__+0x1df665c>
    240c:	0f000000 	svceq	0x00000000
    2410:	00009014 	andeq	r9, r0, r4, lsl r0
    2414:	00001172 	andeq	r1, r0, r2, ror r1
    2418:	00000975 	andeq	r0, r0, r5, ror r9
    241c:	05520110 	ldrbeq	r0, [r2, #-272]	; 0x110
    2420:	00b93803 	adcseq	r3, r9, r3, lsl #16
    2424:	50011000 	andpl	r1, r1, r0
    2428:	ba780305 	blt	1e03044 <__bss_end__+0x1df667c>
    242c:	0f000000 	svceq	0x00000000
    2430:	00009028 	andeq	r9, r0, r8, lsr #32
    2434:	00001172 	andeq	r1, r0, r2, ror r1
    2438:	00000995 	muleq	r0, r5, r9
    243c:	05520110 	ldrbeq	r0, [r2, #-272]	; 0x110
    2440:	00b92c03 	adcseq	r2, r9, r3, lsl #24
    2444:	50011000 	andpl	r1, r1, r0
    2448:	ba780305 	blt	1e03064 <__bss_end__+0x1df669c>
    244c:	0f000000 	svceq	0x00000000
    2450:	00009040 	andeq	r9, r0, r0, asr #32
    2454:	00001172 	andeq	r1, r0, r2, ror r1
    2458:	000009b5 			; <UNDEFINED> instruction: 0x000009b5
    245c:	05520110 	ldrbeq	r0, [r2, #-272]	; 0x110
    2460:	00b92003 	adcseq	r2, r9, r3
    2464:	50011000 	andpl	r1, r1, r0
    2468:	ba780305 	blt	1e03084 <__bss_end__+0x1df66bc>
    246c:	0f000000 	svceq	0x00000000
    2470:	00009058 	andeq	r9, r0, r8, asr r0
    2474:	00001172 	andeq	r1, r0, r2, ror r1
    2478:	000009d5 	ldrdeq	r0, [r0], -r5
    247c:	05520110 	ldrbeq	r0, [r2, #-272]	; 0x110
    2480:	00ba4c03 	adcseq	r4, sl, r3, lsl #24
    2484:	50011000 	andpl	r1, r1, r0
    2488:	ba780305 	blt	1e030a4 <__bss_end__+0x1df66dc>
    248c:	0f000000 	svceq	0x00000000
    2490:	00009070 	andeq	r9, r0, r0, ror r0
    2494:	00001172 	andeq	r1, r0, r2, ror r1
    2498:	000009f5 	strdeq	r0, [r0], -r5
    249c:	05520110 	ldrbeq	r0, [r2, #-272]	; 0x110
    24a0:	00b91403 	adcseq	r1, r9, r3, lsl #8
    24a4:	50011000 	andpl	r1, r1, r0
    24a8:	ba780305 	blt	1e030c4 <__bss_end__+0x1df66fc>
    24ac:	11000000 	mrsne	r0, (UNDEF: 0)
    24b0:	00009084 	andeq	r9, r0, r4, lsl #1
    24b4:	00001172 	andeq	r1, r0, r2, ror r1
    24b8:	05520110 	ldrbeq	r0, [r2, #-272]	; 0x110
    24bc:	00b78403 	adcseq	r8, r7, r3, lsl #8
    24c0:	50011000 	andpl	r1, r1, r0
    24c4:	ba780305 	blt	1e030e0 <__bss_end__+0x1df6718>
    24c8:	00000000 	andeq	r0, r0, r0
    24cc:	0006c314 	andeq	ip, r6, r4, lsl r3
    24d0:	d86c0100 	stmdale	ip!, {r8}^
    24d4:	08000090 	stmdaeq	r0, {r4, r7}
    24d8:	01000000 	mrseq	r0, (UNDEF: 0)
    24dc:	000a379c 	muleq	sl, ip, r7
    24e0:	00d31500 	sbcseq	r1, r3, r0, lsl #10
    24e4:	0a370000 	beq	dc24ec <__bss_end__+0xdb5b24>
    24e8:	03050000 	movweq	r0, #20480	; 0x5000
    24ec:	0000bc50 	andeq	fp, r0, r0, asr ip
    24f0:	009f0600 	addseq	r0, pc, r0, lsl #12
    24f4:	080c0000 	stmdaeq	ip, {}	; <UNPREDICTABLE>
    24f8:	01000007 	tsteq	r0, r7
    24fc:	0090e072 	addseq	lr, r0, r2, ror r0
    2500:	00004c00 	andeq	r4, r0, r0, lsl #24
    2504:	b79c0100 	ldrlt	r0, [ip, r0, lsl #2]
    2508:	0d00000a 	stceq	0, cr0, [r0, #-40]	; 0xffffffd8
    250c:	72010063 	andvc	r0, r1, #99	; 0x63
    2510:	00000ab7 			; <UNDEFINED> instruction: 0x00000ab7
    2514:	00000d35 	andeq	r0, r0, r5, lsr sp
    2518:	0090f00f 	addseq	pc, r0, pc
    251c:	00117200 	andseq	r7, r1, r0, lsl #4
    2520:	000a7500 	andeq	r7, sl, r0, lsl #10
    2524:	50011000 	andpl	r1, r1, r0
    2528:	bab00305 	blt	fec03144 <__bss_end__+0xfebf677c>
    252c:	0f000000 	svceq	0x00000000
    2530:	00009100 	andeq	r9, r0, r0, lsl #2
    2534:	00001172 	andeq	r1, r0, r2, ror r1
    2538:	00000a8c 	andeq	r0, r0, ip, lsl #21
    253c:	05500110 	ldrbeq	r0, [r0, #-272]	; 0x110
    2540:	00bac003 	adcseq	ip, sl, r3
    2544:	0c0f0000 	stceq	0, cr0, [pc], {-0}
    2548:	72000091 	andvc	r0, r0, #145	; 0x91
    254c:	a3000011 	movwge	r0, #17
    2550:	1000000a 	andne	r0, r0, sl
    2554:	03055001 	movweq	r5, #20481	; 0x5001
    2558:	0000bad0 	ldrdeq	fp, [r0], -r0
    255c:	91181100 	tstls	r8, r0, lsl #2
    2560:	11720000 	cmnne	r2, r0
    2564:	01100000 	tsteq	r0, r0
    2568:	e8030550 	stmda	r3, {r4, r6, r8, sl}
    256c:	000000ba 	strheq	r0, [r0], -sl
    2570:	af040500 	svcge	0x00040500
    2574:	14000000 	strne	r0, [r0], #-0
    2578:	00000676 	andeq	r0, r0, r6, ror r6
    257c:	912c7c01 	teqls	ip, r1, lsl #24
    2580:	01c00000 	biceq	r0, r0, r0
    2584:	9c010000 	stcls	0, cr0, [r1], {-0}
    2588:	00000d47 	andeq	r0, r0, r7, asr #26
    258c:	0100660d 	tsteq	r0, sp, lsl #12
    2590:	000d477c 	andeq	r4, sp, ip, ror r7
    2594:	000d5300 	andeq	r5, sp, r0, lsl #6
    2598:	00d31500 	sbcseq	r1, r3, r0, lsl #10
    259c:	0d5d0000 	ldcleq	0, cr0, [sp, #-0]
    25a0:	03050000 	movweq	r0, #20480	; 0x5000
    25a4:	0000bc24 	andeq	fp, r0, r4, lsr #24
    25a8:	00914413 	addseq	r4, r1, r3, lsl r4
    25ac:	00119300 	andseq	r9, r1, r0, lsl #6
    25b0:	91600f00 	cmnls	r0, r0, lsl #30
    25b4:	11720000 	cmnne	r2, r0
    25b8:	0b300000 	bleq	c025c0 <__bss_end__+0xbf5bf8>
    25bc:	01100000 	tsteq	r0, r0
    25c0:	7d080253 	sfmvc	f0, 4, [r8, #-332]	; 0xfffffeb4
    25c4:	05520110 	ldrbeq	r0, [r2, #-272]	; 0x110
    25c8:	00bc2403 	adcseq	r2, ip, r3, lsl #8
    25cc:	51011000 	mrspl	r1, (UNDEF: 1)
    25d0:	b8b40305 	ldmlt	r4!, {r0, r2, r8, r9}
    25d4:	01100000 	tsteq	r0, r0
    25d8:	bc030550 	cfstr32lt	mvfx0, [r3], {80}	; 0x50
    25dc:	100000b2 	strhne	r0, [r0], -r2
    25e0:	05007d02 	streq	r7, [r0, #-3330]	; 0xd02
    25e4:	00bb0003 	adcseq	r0, fp, r3
    25e8:	64130000 	ldrvs	r0, [r3], #-0
    25ec:	9a000091 	bls	2838 <__code_start__-0x57c8>
    25f0:	13000011 	movwne	r0, #17
    25f4:	00009178 	andeq	r9, r0, r8, ror r1
    25f8:	00001193 	muleq	r0, r3, r1
    25fc:	0091940f 	addseq	r9, r1, pc, lsl #8
    2600:	00117200 	andseq	r7, r1, r0, lsl #4
    2604:	000b7b00 	andeq	r7, fp, r0, lsl #22
    2608:	53011000 	movwpl	r1, #4096	; 0x1000
    260c:	107e0802 	rsbsne	r0, lr, r2, lsl #16
    2610:	03055201 	movweq	r5, #20993	; 0x5201
    2614:	0000bc24 	andeq	fp, r0, r4, lsr #24
    2618:	05510110 	ldrbeq	r0, [r1, #-272]	; 0x110
    261c:	00b8b403 	adcseq	fp, r8, r3, lsl #8
    2620:	50011000 	andpl	r1, r1, r0
    2624:	b2bc0305 	adcslt	r0, ip, #335544320	; 0x14000000
    2628:	02100000 	andseq	r0, r0, #0
    262c:	0305007d 	movweq	r0, #20605	; 0x507d
    2630:	0000bb10 	andeq	fp, r0, r0, lsl fp
    2634:	91981300 	orrsls	r1, r8, r0, lsl #6
    2638:	119a0000 	orrsne	r0, sl, r0
    263c:	a8130000 	ldmdage	r3, {}	; <UNPREDICTABLE>
    2640:	93000091 	movwls	r0, #145	; 0x91
    2644:	0f000011 	svceq	0x00000011
    2648:	000091c4 	andeq	r9, r0, r4, asr #3
    264c:	00001172 	andeq	r1, r0, r2, ror r1
    2650:	00000bc6 	andeq	r0, r0, r6, asr #23
    2654:	02530110 	subseq	r0, r3, #16, 2
    2658:	01107f08 	tsteq	r0, r8, lsl #30
    265c:	24030552 	strcs	r0, [r3], #-1362	; 0x552
    2660:	100000bc 	strhne	r0, [r0], -ip
    2664:	03055101 	movweq	r5, #20737	; 0x5101
    2668:	0000b8b4 			; <UNDEFINED> instruction: 0x0000b8b4
    266c:	05500110 	ldrbeq	r0, [r0, #-272]	; 0x110
    2670:	00b2bc03 	adcseq	fp, r2, r3, lsl #24
    2674:	7d021000 	stcvc	0, cr1, [r2, #-0]
    2678:	20030500 	andcs	r0, r3, r0, lsl #10
    267c:	000000bb 	strheq	r0, [r0], -fp
    2680:	0091c813 	addseq	ip, r1, r3, lsl r8
    2684:	00119a00 	andseq	r9, r1, r0, lsl #20
    2688:	91d81300 	bicsls	r1, r8, r0, lsl #6
    268c:	11930000 	orrsne	r0, r3, r0
    2690:	f40f0000 	vst4.8	{d0-d3}, [pc], r0
    2694:	72000091 	andvc	r0, r0, #145	; 0x91
    2698:	11000011 	tstne	r0, r1, lsl r0
    269c:	1000000c 	andne	r0, r0, ip
    26a0:	08025301 	stmdaeq	r2, {r0, r8, r9, ip, lr}
    26a4:	52011080 	andpl	r1, r1, #128	; 0x80
    26a8:	bc240305 	stclt	3, cr0, [r4], #-20	; 0xffffffec
    26ac:	01100000 	tsteq	r0, r0
    26b0:	b4030551 	strlt	r0, [r3], #-1361	; 0x551
    26b4:	100000b8 	strhne	r0, [r0], -r8
    26b8:	03055001 	movweq	r5, #20481	; 0x5001
    26bc:	0000b2bc 			; <UNDEFINED> instruction: 0x0000b2bc
    26c0:	007d0210 	rsbseq	r0, sp, r0, lsl r2
    26c4:	bb2c0305 	bllt	b032e0 <__bss_end__+0xaf6918>
    26c8:	13000000 	movwne	r0, #0
    26cc:	000091f8 	strdeq	r9, [r0], -r8
    26d0:	0000119a 	muleq	r0, sl, r1
    26d4:	00920813 	addseq	r0, r2, r3, lsl r8
    26d8:	00119300 	andseq	r9, r1, r0, lsl #6
    26dc:	92240f00 	eorls	r0, r4, #0, 30
    26e0:	11720000 	cmnne	r2, r0
    26e4:	0c5c0000 	mraeq	r0, ip, acc0
    26e8:	01100000 	tsteq	r0, r0
    26ec:	81080253 	tsthi	r8, r3, asr r2
    26f0:	05520110 	ldrbeq	r0, [r2, #-272]	; 0x110
    26f4:	00bc2403 	adcseq	r2, ip, r3, lsl #8
    26f8:	51011000 	mrspl	r1, (UNDEF: 1)
    26fc:	b8b40305 	ldmlt	r4!, {r0, r2, r8, r9}
    2700:	01100000 	tsteq	r0, r0
    2704:	bc030550 	cfstr32lt	mvfx0, [r3], {80}	; 0x50
    2708:	100000b2 	strhne	r0, [r0], -r2
    270c:	05007d02 	streq	r7, [r0, #-3330]	; 0xd02
    2710:	00bb3803 	adcseq	r3, fp, r3, lsl #16
    2714:	28130000 	ldmdacs	r3, {}	; <UNPREDICTABLE>
    2718:	9a000092 	bls	2968 <__code_start__-0x5698>
    271c:	13000011 	movwne	r0, #17
    2720:	00009238 	andeq	r9, r0, r8, lsr r2
    2724:	00001193 	muleq	r0, r3, r1
    2728:	0092540f 	addseq	r5, r2, pc, lsl #8
    272c:	00117200 	andseq	r7, r1, r0, lsl #4
    2730:	000ca700 	andeq	sl, ip, r0, lsl #14
    2734:	53011000 	movwpl	r1, #4096	; 0x1000
    2738:	10820802 	addne	r0, r2, r2, lsl #16
    273c:	03055201 	movweq	r5, #20993	; 0x5201
    2740:	0000bc24 	andeq	fp, r0, r4, lsr #24
    2744:	05510110 	ldrbeq	r0, [r1, #-272]	; 0x110
    2748:	00b8b403 	adcseq	fp, r8, r3, lsl #8
    274c:	50011000 	andpl	r1, r1, r0
    2750:	b2bc0305 	adcslt	r0, ip, #335544320	; 0x14000000
    2754:	02100000 	andseq	r0, r0, #0
    2758:	0305007d 	movweq	r0, #20605	; 0x507d
    275c:	0000bb44 	andeq	fp, r0, r4, asr #22
    2760:	92581300 	subsls	r1, r8, #0, 6
    2764:	119a0000 	orrsne	r0, sl, r0
    2768:	68130000 	ldmdavs	r3, {}	; <UNPREDICTABLE>
    276c:	93000092 	movwls	r0, #146	; 0x92
    2770:	0f000011 	svceq	0x00000011
    2774:	00009284 	andeq	r9, r0, r4, lsl #5
    2778:	00001172 	andeq	r1, r0, r2, ror r1
    277c:	00000cf2 	strdeq	r0, [r0], -r2
    2780:	02530110 	subseq	r0, r3, #16, 2
    2784:	01108308 	tsteq	r0, r8, lsl #6
    2788:	24030552 	strcs	r0, [r3], #-1362	; 0x552
    278c:	100000bc 	strhne	r0, [r0], -ip
    2790:	03055101 	movweq	r5, #20737	; 0x5101
    2794:	0000b8b4 			; <UNDEFINED> instruction: 0x0000b8b4
    2798:	05500110 	ldrbeq	r0, [r0, #-272]	; 0x110
    279c:	00b2bc03 	adcseq	fp, r2, r3, lsl #24
    27a0:	7d021000 	stcvc	0, cr1, [r2, #-0]
    27a4:	50030500 	andpl	r0, r3, r0, lsl #10
    27a8:	000000bb 	strheq	r0, [r0], -fp
    27ac:	00928813 	addseq	r8, r2, r3, lsl r8
    27b0:	00119a00 	andseq	r9, r1, r0, lsl #20
    27b4:	92981300 	addsls	r1, r8, #0, 6
    27b8:	11930000 	orrsne	r0, r3, r0
    27bc:	b40f0000 	strlt	r0, [pc], #-0	; 27c4 <__code_start__-0x583c>
    27c0:	72000092 	andvc	r0, r0, #146	; 0x92
    27c4:	3d000011 	stccc	0, cr0, [r0, #-68]	; 0xffffffbc
    27c8:	1000000d 	andne	r0, r0, sp
    27cc:	08025301 	stmdaeq	r2, {r0, r8, r9, ip, lr}
    27d0:	52011084 	andpl	r1, r1, #132	; 0x84
    27d4:	bc240305 	stclt	3, cr0, [r4], #-20	; 0xffffffec
    27d8:	01100000 	tsteq	r0, r0
    27dc:	b4030551 	strlt	r0, [r3], #-1361	; 0x551
    27e0:	100000b8 	strhne	r0, [r0], -r8
    27e4:	03055001 	movweq	r5, #20481	; 0x5001
    27e8:	0000b2bc 			; <UNDEFINED> instruction: 0x0000b2bc
    27ec:	007d0210 	rsbseq	r0, sp, r0, lsl r2
    27f0:	bb5c0305 	bllt	170340c <__bss_end__+0x16f6a44>
    27f4:	13000000 	movwne	r0, #0
    27f8:	000092b8 			; <UNDEFINED> instruction: 0x000092b8
    27fc:	0000119a 	muleq	r0, sl, r1
    2800:	98040500 	stmdals	r4, {r8, sl}
    2804:	07000003 	streq	r0, [r0, -r3]
    2808:	0000007d 	andeq	r0, r0, sp, ror r0
    280c:	00000d5d 	andeq	r0, r0, sp, asr sp
    2810:	00007608 	andeq	r7, r0, r8, lsl #12
    2814:	06000f00 	streq	r0, [r0], -r0, lsl #30
    2818:	00000d4d 	andeq	r0, r0, sp, asr #26
    281c:	0003d816 	andeq	sp, r3, r6, lsl r8
    2820:	98880100 	stmls	r8, {r8}
    2824:	ec000003 	stc	0, cr0, [r0], {3}
    2828:	08000092 	stmdaeq	r0, {r1, r4, r7}
    282c:	01000000 	mrseq	r0, (UNDEF: 0)
    2830:	0640149c 			; <UNDEFINED> instruction: 0x0640149c
    2834:	8d010000 	stchi	0, cr0, [r1, #-0]
    2838:	000092f4 	strdeq	r9, [r0], -r4
    283c:	000000b4 	strheq	r0, [r0], -r4
    2840:	0ecf9c01 	cdpeq	12, 12, cr9, cr15, cr1, {0}
    2844:	66170000 	ldrvs	r0, [r7], -r0
    2848:	988e0100 	stmls	lr, {r8}
    284c:	02000003 	andeq	r0, r0, #3
    2850:	d3157491 	tstle	r5, #-1862270976	; 0x91000000
    2854:	df000000 	svcle	0x00000000
    2858:	0500000e 	streq	r0, [r0, #-14]
    285c:	00bc6c03 	adcseq	r6, ip, r3, lsl #24
    2860:	93101800 	tstls	r0, #0, 16
    2864:	00740000 	rsbseq	r0, r4, r0
    2868:	0eb50000 	cdpeq	0, 11, cr0, cr5, cr0, {0}
    286c:	5f190000 	svcpl	0x00190000
    2870:	01040075 	tsteq	r4, r5, ror r0
    2874:	000dd2a0 	andeq	sp, sp, r0, lsr #5
    2878:	00731a00 	rsbseq	r1, r3, r0, lsl #20
    287c:	0398a001 	orrseq	sl, r8, #1
    2880:	751a0000 	ldrvc	r0, [sl, #-0]
    2884:	2ca00100 	stfcss	f0, [r0]
    2888:	00000000 	andeq	r0, r0, r0
    288c:	01007817 	tsteq	r0, r7, lsl r8
    2890:	000db4a0 	andeq	fp, sp, r0, lsr #9
    2894:	1b530100 	blne	14c2c9c <__bss_end__+0x14b62d4>
    2898:	00707865 	rsbseq	r7, r0, r5, ror #16
    289c:	002ca001 	eoreq	sl, ip, r1
    28a0:	80800000 	addhi	r0, r0, r0
    28a4:	06861c40 	streq	r1, [r6], r0, asr #24
    28a8:	a0010000 	andge	r0, r1, r0
    28ac:	0000002c 	andeq	r0, r0, ip, lsr #32
    28b0:	06971d14 			; <UNDEFINED> instruction: 0x06971d14
    28b4:	a0010000 	andge	r0, r1, r0
    28b8:	0000002c 	andeq	r0, r0, ip, lsr #32
    28bc:	20130fff 			; <UNDEFINED> instruction: 0x20130fff
    28c0:	93000093 	movwls	r0, #147	; 0x93
    28c4:	0f000011 	svceq	0x00000011
    28c8:	00009354 	andeq	r9, r0, r4, asr r3
    28cc:	00001172 	andeq	r1, r0, r2, ror r1
    28d0:	00000e60 	andeq	r0, r0, r0, ror #28
    28d4:	02530110 	subseq	r0, r3, #16, 2
    28d8:	0110a008 	tsteq	r0, r8
    28dc:	6c030552 	cfstr32vs	mvfx0, [r3], {82}	; 0x52
    28e0:	100000bc 	strhne	r0, [r0], -ip
    28e4:	03055101 	movweq	r5, #20737	; 0x5101
    28e8:	0000b8b4 			; <UNDEFINED> instruction: 0x0000b8b4
    28ec:	05500110 	ldrbeq	r0, [r0, #-272]	; 0x110
    28f0:	00b8d003 	adcseq	sp, r8, r3
    28f4:	7d021000 	stcvc	0, cr1, [r2, #-0]
    28f8:	103c0110 	eorsne	r0, ip, r0, lsl r1
    28fc:	010c7d02 	tsteq	ip, r2, lsl #26
    2900:	7d021044 	stcvc	0, cr1, [r2, #-272]	; 0xfffffef0
    2904:	a4030508 	strge	r0, [r3], #-1288	; 0x508
    2908:	100000bb 	strhne	r0, [r0], -fp
    290c:	02047d02 	andeq	r7, r4, #2, 26	; 0x80
    2910:	02100074 	andseq	r0, r0, #116	; 0x74
    2914:	7402007d 	strvc	r0, [r2], #-125	; 0x7d
    2918:	58130000 	ldmdapl	r3, {}	; <UNPREDICTABLE>
    291c:	9a000093 	bls	2b70 <__code_start__-0x5490>
    2920:	13000011 	movwne	r0, #17
    2924:	00009364 	andeq	r9, r0, r4, ror #6
    2928:	00001193 	muleq	r0, r3, r1
    292c:	0093800f 	addseq	r8, r3, pc
    2930:	00117200 	andseq	r7, r1, r0, lsl #4
    2934:	000eab00 	andeq	sl, lr, r0, lsl #22
    2938:	53011000 	movwpl	r1, #4096	; 0x1000
    293c:	10a00802 	adcne	r0, r0, r2, lsl #16
    2940:	03055201 	movweq	r5, #20993	; 0x5201
    2944:	0000bc6c 	andeq	fp, r0, ip, ror #24
    2948:	05510110 	ldrbeq	r0, [r1, #-272]	; 0x110
    294c:	00b8b403 	adcseq	fp, r8, r3, lsl #8
    2950:	50011000 	andpl	r1, r1, r0
    2954:	b2bc0305 	adcslt	r0, ip, #335544320	; 0x14000000
    2958:	02100000 	andseq	r0, r0, #0
    295c:	0305007d 	movweq	r0, #20605	; 0x507d
    2960:	0000b8c4 	andeq	fp, r0, r4, asr #17
    2964:	93841300 	orrls	r1, r4, #0, 6
    2968:	119a0000 	orrsne	r0, sl, r0
    296c:	13000000 	movwne	r0, #0
    2970:	00009300 	andeq	r9, r0, r0, lsl #6
    2974:	00000d62 	andeq	r0, r0, r2, ror #26
    2978:	00931011 	addseq	r1, r3, r1, lsl r0
    297c:	000abd00 	andeq	fp, sl, r0, lsl #26
    2980:	50011000 	andpl	r1, r1, r0
    2984:	006c9102 	rsbeq	r9, ip, r2, lsl #2
    2988:	007d0700 	rsbseq	r0, sp, r0, lsl #14
    298c:	0edf0000 	cdpeq	0, 13, cr0, cr15, cr0, {0}
    2990:	76080000 	strvc	r0, [r8], -r0
    2994:	11000000 	mrsne	r0, (UNDEF: 0)
    2998:	0ecf0600 	cdpeq	6, 12, cr0, cr15, cr0, {0}
    299c:	4c0c0000 	stcmi	0, cr0, [ip], {-0}
    29a0:	01000005 	tsteq	r0, r5
    29a4:	0093a8a3 	addseq	sl, r3, r3, lsr #17
    29a8:	0001d000 	andeq	sp, r1, r0
    29ac:	279c0100 	ldrcs	r0, [ip, r0, lsl #2]
    29b0:	0d000011 	stceq	0, cr0, [r0, #-68]	; 0xffffffbc
    29b4:	a3010066 	movwge	r0, #4198	; 0x1066
    29b8:	00000d47 	andeq	r0, r0, r7, asr #26
    29bc:	00000e2e 	andeq	r0, r0, lr, lsr #28
    29c0:	0093b80f 	addseq	fp, r3, pc, lsl #16
    29c4:	00117200 	andseq	r7, r1, r0, lsl #4
    29c8:	000f1d00 	andeq	r1, pc, r0, lsl #26
    29cc:	50011000 	andpl	r1, r1, r0
    29d0:	bbb40305 	bllt	fed035ec <__bss_end__+0xfecf6c24>
    29d4:	0f000000 	svceq	0x00000000
    29d8:	000093c4 	andeq	r9, r0, r4, asr #7
    29dc:	00001172 	andeq	r1, r0, r2, ror r1
    29e0:	00000f3a 	andeq	r0, r0, sl, lsr pc
    29e4:	02510110 	subseq	r0, r1, #16, 2
    29e8:	01100074 	tsteq	r0, r4, ror r0
    29ec:	d4030550 	strle	r0, [r3], #-1360	; 0x550
    29f0:	000000bb 	strheq	r0, [r0], -fp
    29f4:	0093d80f 	addseq	sp, r3, pc, lsl #16
    29f8:	00117200 	andseq	r7, r1, r0, lsl #4
    29fc:	000f5a00 	andeq	r5, pc, r0, lsl #20
    2a00:	52011000 	andpl	r1, r1, #0
    2a04:	bba40305 	bllt	fe903620 <__bss_end__+0xfe8f6c58>
    2a08:	01100000 	tsteq	r0, r0
    2a0c:	78030550 	stmdavc	r3, {r4, r6, r8, sl}
    2a10:	000000ba 	strheq	r0, [r0], -sl
    2a14:	0093f00f 	addseq	pc, r3, pc
    2a18:	00117200 	andseq	r7, r1, r0, lsl #4
    2a1c:	000f7100 	andeq	r7, pc, r0, lsl #2
    2a20:	50011000 	andpl	r1, r1, r0
    2a24:	ba840305 	blt	fe103640 <__bss_end__+0xfe0f6c78>
    2a28:	0f000000 	svceq	0x00000000
    2a2c:	00009404 	andeq	r9, r0, r4, lsl #8
    2a30:	00001172 	andeq	r1, r0, r2, ror r1
    2a34:	00000f88 	andeq	r0, r0, r8, lsl #31
    2a38:	05500110 	ldrbeq	r0, [r0, #-272]	; 0x110
    2a3c:	00bbdc03 	adcseq	sp, fp, r3, lsl #24
    2a40:	0c0f0000 	stceq	0, cr0, [pc], {-0}
    2a44:	72000094 	andvc	r0, r0, #148	; 0x94
    2a48:	9f000011 	svcls	0x00000011
    2a4c:	1000000f 	andne	r0, r0, pc
    2a50:	03055001 	movweq	r5, #20481	; 0x5001
    2a54:	0000bbf0 	strdeq	fp, [r0], -r0
    2a58:	94240f00 	strtls	r0, [r4], #-3840	; 0xf00
    2a5c:	11720000 	cmnne	r2, r0
    2a60:	0fbf0000 	svceq	0x00bf0000
    2a64:	01100000 	tsteq	r0, r0
    2a68:	98030552 	stmdals	r3, {r1, r4, r6, r8, sl}
    2a6c:	100000bb 	strhne	r0, [r0], -fp
    2a70:	03055001 	movweq	r5, #20481	; 0x5001
    2a74:	0000ba78 	andeq	fp, r0, r8, ror sl
    2a78:	94380f00 	ldrtls	r0, [r8], #-3840	; 0xf00
    2a7c:	11720000 	cmnne	r2, r0
    2a80:	0fdf0000 	svceq	0x00df0000
    2a84:	01100000 	tsteq	r0, r0
    2a88:	94030552 	strls	r0, [r3], #-1362	; 0x552
    2a8c:	100000bb 	strhne	r0, [r0], -fp
    2a90:	03055001 	movweq	r5, #20481	; 0x5001
    2a94:	0000ba78 	andeq	fp, r0, r8, ror sl
    2a98:	944c0f00 	strbls	r0, [ip], #-3840	; 0xf00
    2a9c:	11720000 	cmnne	r2, r0
    2aa0:	0fff0000 	svceq	0x00ff0000
    2aa4:	01100000 	tsteq	r0, r0
    2aa8:	90030552 	andls	r0, r3, r2, asr r5
    2aac:	100000bb 	strhne	r0, [r0], -fp
    2ab0:	03055001 	movweq	r5, #20481	; 0x5001
    2ab4:	0000ba78 	andeq	fp, r0, r8, ror sl
    2ab8:	94640f00 	strbtls	r0, [r4], #-3840	; 0xf00
    2abc:	11720000 	cmnne	r2, r0
    2ac0:	101f0000 	andsne	r0, pc, r0
    2ac4:	01100000 	tsteq	r0, r0
    2ac8:	8c030552 	cfstr32hi	mvfx0, [r3], {82}	; 0x52
    2acc:	100000bb 	strhne	r0, [r0], -fp
    2ad0:	03055001 	movweq	r5, #20481	; 0x5001
    2ad4:	0000ba78 	andeq	fp, r0, r8, ror sl
    2ad8:	947c0f00 	ldrbtls	r0, [ip], #-3840	; 0xf00
    2adc:	11720000 	cmnne	r2, r0
    2ae0:	103f0000 	eorsne	r0, pc, r0
    2ae4:	01100000 	tsteq	r0, r0
    2ae8:	88030552 	stmdahi	r3, {r1, r4, r6, r8, sl}
    2aec:	100000bb 	strhne	r0, [r0], -fp
    2af0:	03055001 	movweq	r5, #20481	; 0x5001
    2af4:	0000ba78 	andeq	fp, r0, r8, ror sl
    2af8:	94940f00 	ldrls	r0, [r4], #3840	; 0xf00
    2afc:	11720000 	cmnne	r2, r0
    2b00:	105f0000 	subsne	r0, pc, r0
    2b04:	01100000 	tsteq	r0, r0
    2b08:	84030552 	strhi	r0, [r3], #-1362	; 0x552
    2b0c:	100000bb 	strhne	r0, [r0], -fp
    2b10:	03055001 	movweq	r5, #20481	; 0x5001
    2b14:	0000ba78 	andeq	fp, r0, r8, ror sl
    2b18:	94ac0f00 	strtls	r0, [ip], #3840	; 0xf00
    2b1c:	11720000 	cmnne	r2, r0
    2b20:	107f0000 	rsbsne	r0, pc, r0
    2b24:	01100000 	tsteq	r0, r0
    2b28:	7c030552 	cfstr32vc	mvfx0, [r3], {82}	; 0x52
    2b2c:	100000bb 	strhne	r0, [r0], -fp
    2b30:	03055001 	movweq	r5, #20481	; 0x5001
    2b34:	0000ba78 	andeq	fp, r0, r8, ror sl
    2b38:	94c80f00 	strbls	r0, [r8], #3840	; 0xf00
    2b3c:	11720000 	cmnne	r2, r0
    2b40:	10960000 	addsne	r0, r6, r0
    2b44:	01100000 	tsteq	r0, r0
    2b48:	84030550 	strhi	r0, [r3], #-1360	; 0x550
    2b4c:	000000ba 	strheq	r0, [r0], -sl
    2b50:	0094e00f 	addseq	lr, r4, pc
    2b54:	00117200 	andseq	r7, r1, r0, lsl #4
    2b58:	0010b600 	andseq	fp, r0, r0, lsl #12
    2b5c:	52011000 	andpl	r1, r1, #0
    2b60:	bb780305 	bllt	1e0377c <__bss_end__+0x1df6db4>
    2b64:	01100000 	tsteq	r0, r0
    2b68:	78030550 	stmdavc	r3, {r4, r6, r8, sl}
    2b6c:	000000ba 	strheq	r0, [r0], -sl
    2b70:	0094f80f 	addseq	pc, r4, pc, lsl #16
    2b74:	00117200 	andseq	r7, r1, r0, lsl #4
    2b78:	0010d600 	andseq	sp, r0, r0, lsl #12
    2b7c:	52011000 	andpl	r1, r1, #0
    2b80:	bb740305 	bllt	1d0379c <__bss_end__+0x1cf6dd4>
    2b84:	01100000 	tsteq	r0, r0
    2b88:	78030550 	stmdavc	r3, {r4, r6, r8, sl}
    2b8c:	000000ba 	strheq	r0, [r0], -sl
    2b90:	0095100f 	addseq	r1, r5, pc
    2b94:	00117200 	andseq	r7, r1, r0, lsl #4
    2b98:	0010f600 	andseq	pc, r0, r0, lsl #12
    2b9c:	52011000 	andpl	r1, r1, #0
    2ba0:	bb700305 	bllt	1c037bc <__bss_end__+0x1bf6df4>
    2ba4:	01100000 	tsteq	r0, r0
    2ba8:	78030550 	stmdavc	r3, {r4, r6, r8, sl}
    2bac:	000000ba 	strheq	r0, [r0], -sl
    2bb0:	0095240f 	addseq	r2, r5, pc, lsl #8
    2bb4:	00117200 	andseq	r7, r1, r0, lsl #4
    2bb8:	00111600 	andseq	r1, r1, r0, lsl #12
    2bbc:	52011000 	andpl	r1, r1, #0
    2bc0:	bb6c0305 	bllt	1b037dc <__bss_end__+0x1af6e14>
    2bc4:	01100000 	tsteq	r0, r0
    2bc8:	78030550 	stmdavc	r3, {r4, r6, r8, sl}
    2bcc:	000000ba 	strheq	r0, [r0], -sl
    2bd0:	00952c11 	addseq	r2, r5, r1, lsl ip
    2bd4:	000abd00 	andeq	fp, sl, r0, lsl #26
    2bd8:	50011000 	andpl	r1, r1, r0
    2bdc:	00007402 	andeq	r7, r0, r2, lsl #8
    2be0:	069f0c00 	ldreq	r0, [pc], r0, lsl #24
    2be4:	bd010000 	stclt	0, cr0, [r1, #-0]
    2be8:	00009578 	andeq	r9, r0, r8, ror r5
    2bec:	00000014 	andeq	r0, r0, r4, lsl r0
    2bf0:	11589c01 	cmpne	r8, r1, lsl #24
    2bf4:	80130000 	andshi	r0, r3, r0
    2bf8:	6e000095 	mcrvs	0, 0, r0, cr0, cr5, {4}
    2bfc:	13000004 	movwne	r0, #4
    2c00:	00009584 	andeq	r9, r0, r4, lsl #11
    2c04:	00000a12 	andeq	r0, r0, r2, lsl sl
    2c08:	00958813 	addseq	r8, r5, r3, lsl r8
    2c0c:	000d7700 	andeq	r7, sp, r0, lsl #14
    2c10:	521e0000 	andspl	r0, lr, #0
    2c14:	05000006 	streq	r0, [r0, #-6]
    2c18:	00005d05 	andeq	r5, r0, r5, lsl #26
    2c1c:	00117200 	andseq	r7, r1, r0, lsl #4
    2c20:	041e1f00 	ldreq	r1, [lr], #-3840	; 0xf00
    2c24:	251f0000 	ldrcs	r0, [pc, #-0]	; 2c2c <__code_start__-0x53d4>
    2c28:	00000000 	andeq	r0, r0, r0
    2c2c:	000a9e1e 	andeq	r9, sl, lr, lsl lr
    2c30:	25290600 	strcs	r0, [r9, #-1536]!	; 0x600
    2c34:	88000000 	stmdahi	r0, {}	; <UNPREDICTABLE>
    2c38:	1f000011 	svcne	0x00000011
    2c3c:	00000084 	andeq	r0, r0, r4, lsl #1
    2c40:	56210020 	strtpl	r0, [r1], -r0, lsr #32
    2c44:	07000005 	streq	r0, [r0, -r5]
    2c48:	00005d6e 	andeq	r5, r0, lr, ror #26
    2c4c:	02482200 	subeq	r2, r8, #0, 4
    2c50:	1e060000 	cdpne	0, 0, cr0, cr6, cr0, {0}
    2c54:	00007b22 	andeq	r7, r0, r2, lsr #22
    2c58:	00650600 	rsbeq	r0, r5, r0, lsl #12
    2c5c:	00001638 	andeq	r1, r0, r8, lsr r6
    2c60:	05d90004 	ldrbeq	r0, [r9, #4]
    2c64:	01040000 	mrseq	r0, (UNDEF: 4)
    2c68:	0000015a 	andeq	r0, r0, sl, asr r1
    2c6c:	00078e01 	andeq	r8, r7, r1, lsl #28
    2c70:	0000ec00 	andeq	lr, r0, r0, lsl #24
    2c74:	00958c00 	addseq	r8, r5, r0, lsl #24
    2c78:	000a5000 	andeq	r5, sl, r0
    2c7c:	0006da00 	andeq	sp, r6, r0, lsl #20
    2c80:	05040200 	streq	r0, [r4, #-512]	; 0x200
    2c84:	00746e69 	rsbseq	r6, r4, r9, ror #28
    2c88:	df070403 	svcle	0x00070403
    2c8c:	03000001 	movweq	r0, #1
    2c90:	006f0601 	rsbeq	r0, pc, r1, lsl #12
    2c94:	02030000 	andeq	r0, r3, #0
    2c98:	00023505 	andeq	r3, r2, r5, lsl #10
    2c9c:	05040300 	streq	r0, [r4, #-768]	; 0x300
    2ca0:	0000020e 	andeq	r0, r0, lr, lsl #4
    2ca4:	09050803 	stmdbeq	r5, {r0, r1, fp}
    2ca8:	03000002 	movweq	r0, #2
    2cac:	006d0801 	rsbeq	r0, sp, r1, lsl #16
    2cb0:	02030000 	andeq	r0, r3, #0
    2cb4:	00002407 	andeq	r2, r0, r7, lsl #8
    2cb8:	023f0400 	eorseq	r0, pc, #0, 8
    2cbc:	34050000 	strcc	r0, [r5], #-0
    2cc0:	00000068 	andeq	r0, r0, r8, rrx
    2cc4:	da070403 	ble	1c3cd8 <__bss_end__+0x1b7310>
    2cc8:	03000001 	movweq	r0, #1
    2ccc:	01d50708 	bicseq	r0, r5, r8, lsl #14
    2cd0:	04030000 	streq	r0, [r3], #-0
    2cd4:	00020007 	andeq	r0, r2, r7
    2cd8:	03040500 	movweq	r0, #17664	; 0x4500
    2cdc:	00760801 	rsbseq	r0, r6, r1, lsl #16
    2ce0:	04060000 	streq	r0, [r6], #-0
    2ce4:	0000008c 	andeq	r0, r0, ip, lsl #1
    2ce8:	00007f07 	andeq	r7, r0, r7, lsl #30
    2cec:	04080800 	streq	r0, [r8], #-2048	; 0x800
    2cf0:	04040000 	streq	r0, [r4], #-0
    2cf4:	00016746 	andeq	r6, r1, r6, asr #14
    2cf8:	61740900 	cmnvs	r4, r0, lsl #18
    2cfc:	48040067 	stmdami	r4, {r0, r1, r2, r5, r6}
    2d00:	0000002c 	andeq	r0, r0, ip, lsr #32
    2d04:	001e0204 	andseq	r0, lr, r4, lsl #4
    2d08:	04004209 	streq	r4, [r0], #-521	; 0x209
    2d0c:	00002c49 	andeq	r2, r0, r9, asr #24
    2d10:	1d010400 	cfstrsne	mvf0, [r1, #-0]
    2d14:	00430900 	subeq	r0, r3, r0, lsl #18
    2d18:	002c4a04 	eoreq	r4, ip, r4, lsl #20
    2d1c:	01040000 	mrseq	r0, (UNDEF: 4)
    2d20:	5809001c 	stmdapl	r9, {r2, r3, r4}
    2d24:	4b04004e 	blmi	102e64 <__bss_end__+0xf649c>
    2d28:	0000002c 	andeq	r0, r0, ip, lsr #32
    2d2c:	001b0104 	andseq	r0, fp, r4, lsl #2
    2d30:	0005a20a 	andeq	sl, r5, sl, lsl #4
    2d34:	2c4e0400 	cfstrdcs	mvd0, [lr], {-0}
    2d38:	04000000 	streq	r0, [r0], #-0
    2d3c:	09001704 	stmdbeq	r0, {r2, r8, r9, sl, ip}
    2d40:	00504d49 	subseq	r4, r0, r9, asr #26
    2d44:	002c4f04 	eoreq	r4, ip, r4, lsl #30
    2d48:	01040000 	mrseq	r0, (UNDEF: 4)
    2d4c:	41090016 	tstmi	r9, r6, lsl r0
    2d50:	52040050 	andpl	r0, r4, #80	; 0x50
    2d54:	0000002c 	andeq	r0, r0, ip, lsr #32
    2d58:	00140204 	andseq	r0, r4, r4, lsl #4
    2d5c:	58455409 	stmdapl	r5, {r0, r3, sl, ip, lr}^
    2d60:	2c530400 	cfldrdcs	mvd0, [r3], {-0}
    2d64:	04000000 	streq	r0, [r0], #-0
    2d68:	09001103 	stmdbeq	r0, {r0, r1, r8, ip}
    2d6c:	00585041 	subseq	r5, r8, r1, asr #32
    2d70:	002c5404 	eoreq	r5, ip, r4, lsl #8
    2d74:	01040000 	mrseq	r0, (UNDEF: 4)
    2d78:	53090010 	movwpl	r0, #36880	; 0x9010
    2d7c:	2c550400 	cfldrdcs	mvd0, [r5], {-0}
    2d80:	04000000 	streq	r0, [r0], #-0
    2d84:	09000f01 	stmdbeq	r0, {r0, r8, r9, sl, fp}
    2d88:	0400476e 	streq	r4, [r0], #-1902	; 0x76e
    2d8c:	00002c56 	andeq	r2, r0, r6, asr ip
    2d90:	0e010400 	cfcpyseq	mvf0, mvf1
    2d94:	03b00a00 	movseq	r0, #0, 20
    2d98:	57040000 	strpl	r0, [r4, -r0]
    2d9c:	0000002c 	andeq	r0, r0, ip, lsr #32
    2da0:	000d0104 	andeq	r0, sp, r4, lsl #2
    2da4:	0005af0a 	andeq	sl, r5, sl, lsl #30
    2da8:	2c580400 	cfldrdcs	mvd0, [r8], {-0}
    2dac:	04000000 	streq	r0, [r0], #-0
    2db0:	0a000c01 	beq	5dbc <__code_start__-0x2244>
    2db4:	0000031c 	andeq	r0, r0, ip, lsl r3
    2db8:	002c5904 	eoreq	r5, ip, r4, lsl #18
    2dbc:	0c040000 	stceq	0, cr0, [r4], {-0}
    2dc0:	04000000 	streq	r0, [r0], #-0
    2dc4:	0000037a 	andeq	r0, r0, sl, ror r3
    2dc8:	00915a04 	addseq	r5, r1, r4, lsl #20
    2dcc:	010b0000 	mrseq	r0, (UNDEF: 11)
    2dd0:	01936804 	orrseq	r6, r3, r4, lsl #16
    2dd4:	9a0c0000 	bls	302ddc <__bss_end__+0x2f6414>
    2dd8:	00000008 	andeq	r0, r0, r8
    2ddc:	0008130c 	andeq	r1, r8, ip, lsl #6
    2de0:	390c0100 	stmdbcc	ip, {r8}
    2de4:	02000008 	andeq	r0, r0, #8
    2de8:	0007990c 	andeq	r9, r7, ip, lsl #18
    2dec:	0d000300 	stceq	3, cr0, [r0, #-0]
    2df0:	c026060c 	eorgt	r0, r6, ip, lsl #12
    2df4:	0e000001 	cdpeq	0, 0, cr0, cr0, cr1, {0}
    2df8:	000008b8 			; <UNDEFINED> instruction: 0x000008b8
    2dfc:	005d2706 	subseq	r2, sp, r6, lsl #14
    2e00:	0e000000 	cdpeq	0, 0, cr0, cr0, cr0, {0}
    2e04:	000008fb 	strdeq	r0, [r0], -fp
    2e08:	005d2806 	subseq	r2, sp, r6, lsl #16
    2e0c:	0e040000 	cdpeq	0, 0, cr0, cr4, cr0, {0}
    2e10:	00000860 	andeq	r0, r0, r0, ror #16
    2e14:	005d2906 	subseq	r2, sp, r6, lsl #18
    2e18:	00080000 	andeq	r0, r8, r0
    2e1c:	00097104 	andeq	r7, r9, r4, lsl #2
    2e20:	932a0600 	teqls	sl, #0, 12
    2e24:	0b000001 	bleq	2e30 <__code_start__-0x51d0>
    2e28:	dd130104 	ldfles	f0, [r3, #-16]
    2e2c:	0c000001 	stceq	0, cr0, [r0], {1}
    2e30:	0000060c 	andeq	r0, r0, ip, lsl #12
    2e34:	00c08080 	sbceq	r8, r0, r0, lsl #1
    2e38:	01010b00 	tsteq	r1, r0, lsl #22
    2e3c:	0001f216 	andeq	pc, r1, r6, lsl r2	; <UNPREDICTABLE>
    2e40:	07d30c00 	ldrbeq	r0, [r3, r0, lsl #24]
    2e44:	0c010000 	stceq	0, cr0, [r1], {-0}
    2e48:	000007b4 			; <UNDEFINED> instruction: 0x000007b4
    2e4c:	010b0002 	tsteq	fp, r2
    2e50:	026d6101 	rsbeq	r6, sp, #1073741824	; 0x40000000
    2e54:	bd0c0000 	stclt	0, cr0, [ip, #-0]
    2e58:	01000007 	tsteq	r0, r7
    2e5c:	00097e0c 	andeq	r7, r9, ip, lsl #28
    2e60:	c30c0000 	movwgt	r0, #49152	; 0xc000
    2e64:	03000008 	movweq	r0, #8
    2e68:	0007410c 	andeq	r4, r7, ip, lsl #2
    2e6c:	d20c0400 	andle	r0, ip, #0, 8
    2e70:	0c000008 	stceq	0, cr0, [r0], {8}
    2e74:	0008460c 	andeq	r4, r8, ip, lsl #12
    2e78:	ff0c0e00 			; <UNDEFINED> instruction: 0xff0c0e00
    2e7c:	05000007 	streq	r0, [r0, #-7]
    2e80:	0009470c 	andeq	r4, r9, ip, lsl #14
    2e84:	a50c0700 	strge	r0, [ip, #-1792]	; 0x700
    2e88:	09000007 	stmdbeq	r0, {r0, r1, r2}
    2e8c:	0007350c 	andeq	r3, r7, ip, lsl #10
    2e90:	8c0c0b00 	stchi	11, cr0, [ip], {-0}
    2e94:	0d000009 	stceq	0, cr0, [r0, #-36]	; 0xffffffdc
    2e98:	0008a80c 	andeq	sl, r8, ip, lsl #16
    2e9c:	610c0f00 	tstvs	ip, r0, lsl #30
    2ea0:	08000009 	stmdaeq	r0, {r0, r3}
    2ea4:	0008880c 	andeq	r8, r8, ip, lsl #16
    2ea8:	850c0a00 	strhi	r0, [ip, #-2560]	; 0xa00
    2eac:	14000007 	strne	r0, [r0], #-7
    2eb0:	00091b0c 	andeq	r1, r9, ip, lsl #22
    2eb4:	760c1a00 	strvc	r1, [ip], -r0, lsl #20
    2eb8:	16000007 	strne	r0, [r0], -r7
    2ebc:	0007540c 	andeq	r5, r7, ip, lsl #8
    2ec0:	c70c1800 	strgt	r1, [ip, -r0, lsl #16]
    2ec4:	02000007 	andeq	r0, r0, #7
    2ec8:	09580f00 	ldmdbeq	r8, {r8, r9, sl, fp}^
    2ecc:	5f030000 	svcpl	0x00030000
    2ed0:	0000005d 	andeq	r0, r0, sp, asr r0
    2ed4:	00028903 	andeq	r8, r2, r3, lsl #18
    2ed8:	65721000 	ldrbvs	r1, [r2, #-0]!
    2edc:	5f030074 	svcpl	0x00030074
    2ee0:	0000005d 	andeq	r0, r0, sp, asr r0
    2ee4:	08800f00 	stmeq	r0, {r8, r9, sl, fp}
    2ee8:	63030000 	movwvs	r0, #12288	; 0x3000
    2eec:	0000005d 	andeq	r0, r0, sp, asr r0
    2ef0:	0002a503 	andeq	sl, r2, r3, lsl #10
    2ef4:	65721000 	ldrbvs	r1, [r2, #-0]!
    2ef8:	63030074 	movwvs	r0, #12404	; 0x3074
    2efc:	0000005d 	andeq	r0, r0, sp, asr r0
    2f00:	09381100 	ldmdbeq	r8!, {r8, ip}
    2f04:	1e010000 	cdpne	0, 0, cr0, cr1, cr0, {0}
    2f08:	000001c0 	andeq	r0, r0, r0, asr #3
    2f0c:	0000958c 	andeq	r9, r0, ip, lsl #11
    2f10:	0000001c 	andeq	r0, r0, ip, lsl r0
    2f14:	ec129c01 	ldc	12, cr9, [r2], {1}
    2f18:	01000008 	tsteq	r0, r8
    2f1c:	0095a821 	addseq	sl, r5, r1, lsr #16
    2f20:	00001800 	andeq	r1, r0, r0, lsl #16
    2f24:	f79c0100 			; <UNDEFINED> instruction: 0xf79c0100
    2f28:	13000002 	movwne	r0, #2
    2f2c:	000008fb 	strdeq	r0, [r0], -fp
    2f30:	005d2101 	subseq	r2, sp, r1, lsl #2
    2f34:	50010000 	andpl	r0, r1, r0
    2f38:	0008b813 	andeq	fp, r8, r3, lsl r8
    2f3c:	5d210100 	stfpls	f0, [r1, #-0]
    2f40:	01000000 	mrseq	r0, (UNDEF: 0)
    2f44:	08661351 	stmdaeq	r6!, {r0, r4, r6, r8, r9, ip}^
    2f48:	21010000 	mrscs	r0, (UNDEF: 1)
    2f4c:	0000005d 	andeq	r0, r0, sp, asr r0
    2f50:	12005201 	andne	r5, r0, #268435456	; 0x10000000
    2f54:	00000045 	andeq	r0, r0, r5, asr #32
    2f58:	95c02801 	strbls	r2, [r0, #2049]	; 0x801
    2f5c:	00f00000 	rscseq	r0, r0, r0
    2f60:	9c010000 	stcls	0, cr0, [r1], {-0}
    2f64:	00000485 	andeq	r0, r0, r5, lsl #9
    2f68:	00637014 	rsbeq	r7, r3, r4, lsl r0
    2f6c:	005d2801 	subseq	r2, sp, r1, lsl #16
    2f70:	0e4c0000 	cdpeq	0, 4, cr0, cr12, cr0, {0}
    2f74:	25150000 	ldrcs	r0, [r5, #-0]
    2f78:	01000003 	tsteq	r0, r3
    2f7c:	00005d28 	andeq	r5, r0, r8, lsr #26
    2f80:	000e7800 	andeq	r7, lr, r0, lsl #16
    2f84:	08661500 	stmdaeq	r6!, {r8, sl, ip}^
    2f88:	28010000 	stmdacs	r1, {}	; <UNPREDICTABLE>
    2f8c:	0000005d 	andeq	r0, r0, sp, asr r0
    2f90:	00000ea4 	andeq	r0, r0, r4, lsr #29
    2f94:	01006c16 	tsteq	r0, r6, lsl ip
    2f98:	0001c029 	andeq	ip, r1, r9, lsr #32
    2f9c:	64910200 	ldrvs	r0, [r1], #512	; 0x200
    2fa0:	0000d317 	andeq	sp, r0, r7, lsl r3
    2fa4:	00049500 	andeq	r9, r4, r0, lsl #10
    2fa8:	5c030500 	cfstr32pl	mvfx0, [r3], {-0}
    2fac:	180000c1 	stmdane	r0, {r0, r6, r7}
    2fb0:	000095dc 	ldrdeq	r9, [r0], -ip
    2fb4:	000002a5 	andeq	r0, r0, r5, lsr #5
    2fb8:	00000367 	andeq	r0, r0, r7, ror #6
    2fbc:	02500119 	subseq	r0, r0, #1073741830	; 0x40000006
    2fc0:	1a005c91 	bne	1a20c <__bss_end__+0xd844>
    2fc4:	000095ec 	andeq	r9, r0, ip, ror #11
    2fc8:	00001564 	andeq	r1, r0, r4, ror #10
    2fcc:	00960818 	addseq	r0, r6, r8, lsl r8
    2fd0:	00156b00 	andseq	r6, r5, r0, lsl #22
    2fd4:	0003a900 	andeq	sl, r3, r0, lsl #18
    2fd8:	53011900 	movwpl	r1, #6400	; 0x1900
    2fdc:	192a0802 	stmdbne	sl!, {r1, fp}
    2fe0:	03055201 	movweq	r5, #20993	; 0x5201
    2fe4:	0000c15c 	andeq	ip, r0, ip, asr r1
    2fe8:	05510119 	ldrbeq	r0, [r1, #-281]	; 0x119
    2fec:	00bc8003 	adcseq	r8, ip, r3
    2ff0:	50011900 	andpl	r1, r1, r0, lsl #18
    2ff4:	b2bc0305 	adcslt	r0, ip, #335544320	; 0x14000000
    2ff8:	02190000 	andseq	r0, r9, #0
    2ffc:	0305007d 	movweq	r0, #20605	; 0x507d
    3000:	0000bc8c 	andeq	fp, r0, ip, lsl #25
    3004:	960c1a00 	strls	r1, [ip], -r0, lsl #20
    3008:	15810000 	strne	r0, [r1]
    300c:	1c1a0000 	ldcne	0, cr0, [sl], {-0}
    3010:	64000096 	strvs	r0, [r0], #-150	; 0x96
    3014:	18000015 	stmdane	r0, {r0, r2, r4}
    3018:	00009638 	andeq	r9, r0, r8, lsr r6
    301c:	0000156b 	andeq	r1, r0, fp, ror #10
    3020:	000003f4 	strdeq	r0, [r0], -r4
    3024:	02530119 	subseq	r0, r3, #1073741830	; 0x40000006
    3028:	01192b08 	tsteq	r9, r8, lsl #22
    302c:	5c030552 	cfstr32pl	mvfx0, [r3], {82}	; 0x52
    3030:	190000c1 	stmdbne	r0, {r0, r6, r7}
    3034:	03055101 	movweq	r5, #20737	; 0x5101
    3038:	0000bc80 	andeq	fp, r0, r0, lsl #25
    303c:	05500119 	ldrbeq	r0, [r0, #-281]	; 0x119
    3040:	00b2bc03 	adcseq	fp, r2, r3, lsl #24
    3044:	7d021900 	stcvc	9, cr1, [r2, #-0]
    3048:	a4030500 	strge	r0, [r3], #-1280	; 0x500
    304c:	000000bc 	strheq	r0, [r0], -ip
    3050:	00963c1a 	addseq	r3, r6, sl, lsl ip
    3054:	00158100 	andseq	r8, r5, r0, lsl #2
    3058:	964c1a00 	strbls	r1, [ip], -r0, lsl #20
    305c:	15640000 	strbne	r0, [r4, #-0]!
    3060:	68180000 	ldmdavs	r8, {}	; <UNPREDICTABLE>
    3064:	6b000096 	blvs	32c4 <__code_start__-0x4d3c>
    3068:	3f000015 	svccc	0x00000015
    306c:	19000004 	stmdbne	r0, {r2}
    3070:	08025301 	stmdaeq	r2, {r0, r8, r9, ip, lr}
    3074:	5201192c 	andpl	r1, r1, #44, 18	; 0xb0000
    3078:	c15c0305 	cmpgt	ip, r5, lsl #6
    307c:	01190000 	tsteq	r9, r0
    3080:	80030551 	andhi	r0, r3, r1, asr r5
    3084:	190000bc 	stmdbne	r0, {r2, r3, r4, r5, r7}
    3088:	03055001 	movweq	r5, #20481	; 0x5001
    308c:	0000b2bc 			; <UNDEFINED> instruction: 0x0000b2bc
    3090:	007d0219 	rsbseq	r0, sp, r9, lsl r2
    3094:	bcb80305 	ldclt	3, cr0, [r8], #20
    3098:	1a000000 	bne	30a0 <__code_start__-0x4f60>
    309c:	0000966c 	andeq	r9, r0, ip, ror #12
    30a0:	00001581 	andeq	r1, r0, r1, lsl #11
    30a4:	00967418 	addseq	r7, r6, r8, lsl r4
    30a8:	00156b00 	andseq	r6, r5, r0, lsl #22
    30ac:	00045f00 	andeq	r5, r4, r0, lsl #30
    30b0:	50011900 	andpl	r1, r1, r0, lsl #18
    30b4:	b2580305 	subslt	r0, r8, #335544320	; 0x14000000
    30b8:	1b000000 	blne	30c0 <__code_start__-0x4f40>
    30bc:	00009688 	andeq	r9, r0, r8, lsl #13
    30c0:	0000156b 	andeq	r1, r0, fp, ror #10
    30c4:	02530119 	subseq	r0, r3, #1073741830	; 0x40000006
    30c8:	01190075 	tsteq	r9, r5, ror r0
    30cc:	00740252 	rsbseq	r0, r4, r2, asr r2
    30d0:	02510119 	subseq	r0, r1, #1073741830	; 0x40000006
    30d4:	01190076 	tsteq	r9, r6, ror r0
    30d8:	d4030550 	strle	r0, [r3], #-1360	; 0x550
    30dc:	000000bc 	strheq	r0, [r0], -ip
    30e0:	007f1c00 	rsbseq	r1, pc, r0, lsl #24
    30e4:	04950000 	ldreq	r0, [r5], #0
    30e8:	761d0000 	ldrvc	r0, [sp], -r0
    30ec:	0e000000 	cdpeq	0, 0, cr0, cr0, cr0, {0}
    30f0:	04850700 	streq	r0, [r5], #1792	; 0x700
    30f4:	120f0000 	andne	r0, pc, #0
    30f8:	02000009 	andeq	r0, r0, #9
    30fc:	00005d1c 	andeq	r5, r0, ip, lsl sp
    3100:	04de0300 	ldrbeq	r0, [lr], #768	; 0x300
    3104:	781e0000 	ldmdavc	lr, {}	; <UNPREDICTABLE>
    3108:	5d1c0200 	lfmpl	f0, 4, [ip, #-0]
    310c:	1e000000 	cdpne	0, 0, cr0, cr0, cr0, {0}
    3110:	0200626c 	andeq	r6, r0, #108, 4	; 0xc0000006
    3114:	00002c1c 	andeq	r2, r0, ip, lsl ip
    3118:	62751e00 	rsbsvs	r1, r5, #0, 28
    311c:	2c1c0200 	lfmcs	f0, 4, [ip], {-0}
    3120:	1f000000 	svcne	0x00000000
    3124:	000000d3 	ldrdeq	r0, [r0], -r3
    3128:	000004ee 	andeq	r0, r0, lr, ror #9
    312c:	00000912 	andeq	r0, r0, r2, lsl r9
    3130:	02006e10 	andeq	r6, r0, #16, 28	; 0x100
    3134:	00002c1f 	andeq	r2, r0, pc, lsl ip
    3138:	7f1c0000 	svcvc	0x001c0000
    313c:	ee000000 	cdp	0, 0, cr0, cr0, cr0, {0}
    3140:	1d000004 	stcne	0, cr0, [r0, #-16]
    3144:	00000076 	andeq	r0, r0, r6, ror r0
    3148:	de070008 	cdple	0, 0, cr0, cr7, cr8, {0}
    314c:	20000004 	andcs	r0, r0, r4
    3150:	0000099f 	muleq	r0, pc, r9	; <UNPREDICTABLE>
    3154:	002c3b01 	eoreq	r3, ip, r1, lsl #22
    3158:	96b00000 	ldrtls	r0, [r0], r0
    315c:	00a40000 	adceq	r0, r4, r0
    3160:	9c010000 	stcls	0, cr0, [r1], {-0}
    3164:	00000613 	andeq	r0, r0, r3, lsl r6
    3168:	6d6f6414 	cfstrdvs	mvd6, [pc, #-80]!	; 3120 <__code_start__-0x4ee0>
    316c:	2c3b0100 	ldfcss	f0, [fp], #-0
    3170:	d0000000 	andle	r0, r0, r0
    3174:	2100000e 	tstcs	r0, lr
    3178:	3c010078 	stccc	0, cr0, [r1], {120}	; 0x78
    317c:	0000002c 	andeq	r0, r0, ip, lsr #32
    3180:	00000efc 	strdeq	r0, [r0], -ip
    3184:	00049a22 	andeq	r9, r4, r2, lsr #20
    3188:	0096cc00 	addseq	ip, r6, r0, lsl #24
    318c:	00006800 	andeq	r6, r0, r0, lsl #16
    3190:	093d0100 	ldmdbeq	sp!, {r8}
    3194:	23000006 	movwcs	r0, #6
    3198:	000004bd 			; <UNDEFINED> instruction: 0x000004bd
    319c:	00000f25 	andeq	r0, r0, r5, lsr #30
    31a0:	0004b323 	andeq	fp, r4, r3, lsr #6
    31a4:	000f8d00 	andeq	r8, pc, r0, lsl #26
    31a8:	04aa2300 	strteq	r2, [sl], #768	; 0x300
    31ac:	0fd40000 	svceq	0x00d40000
    31b0:	cc240000 	stcgt	0, cr0, [r4], #-0
    31b4:	68000096 	stmdavs	r0, {r1, r2, r4, r7}
    31b8:	25000000 	strcs	r0, [r0, #-0]
    31bc:	000004d4 	ldrdeq	r0, [r0], -r4
    31c0:	00000ffd 	strdeq	r0, [r0], -sp
    31c4:	0004c726 	andeq	ip, r4, r6, lsr #14
    31c8:	e0030500 	and	r0, r3, r0, lsl #10
    31cc:	1a0000c1 	bne	34d8 <__code_start__-0x4b28>
    31d0:	000096d8 	ldrdeq	r9, [r0], -r8
    31d4:	00001564 	andeq	r1, r0, r4, ror #10
    31d8:	0096f418 	addseq	pc, r6, r8, lsl r4	; <UNPREDICTABLE>
    31dc:	00156b00 	andseq	r6, r5, r0, lsl #22
    31e0:	0005b400 	andeq	fp, r5, r0, lsl #8
    31e4:	53011900 	movwpl	r1, #6400	; 0x1900
    31e8:	01194d01 	tsteq	r9, r1, lsl #26
    31ec:	e0030552 	and	r0, r3, r2, asr r5
    31f0:	190000c1 	stmdbne	r0, {r0, r6, r7}
    31f4:	03055101 	movweq	r5, #20737	; 0x5101
    31f8:	0000bd08 	andeq	fp, r0, r8, lsl #26
    31fc:	05500119 	ldrbeq	r0, [r0, #-281]	; 0x119
    3200:	00b2bc03 	adcseq	fp, r2, r3, lsl #24
    3204:	7d021900 	stcvc	9, cr1, [r2, #-0]
    3208:	18030500 	stmdane	r3, {r8, sl}
    320c:	000000bd 	strheq	r0, [r0], -sp
    3210:	0096f81a 	addseq	pc, r6, sl, lsl r8	; <UNPREDICTABLE>
    3214:	00158100 	andseq	r8, r5, r0, lsl #2
    3218:	97041a00 	strls	r1, [r4, -r0, lsl #20]
    321c:	15640000 	strbne	r0, [r4, #-0]!
    3220:	20180000 	andscs	r0, r8, r0
    3224:	6b000097 	blvs	3488 <__code_start__-0x4b78>
    3228:	fe000015 	mcr2	0, 0, r0, cr0, cr5, {0}
    322c:	19000005 	stmdbne	r0, {r0, r2}
    3230:	4e015301 	cdpmi	3, 0, cr5, cr1, cr1, {0}
    3234:	05520119 	ldrbeq	r0, [r2, #-281]	; 0x119
    3238:	00c1e003 	sbceq	lr, r1, r3
    323c:	51011900 	tstpl	r1, r0, lsl #18
    3240:	bd080305 	stclt	3, cr0, [r8, #-20]	; 0xffffffec
    3244:	01190000 	tsteq	r9, r0
    3248:	bc030550 	cfstr32lt	mvfx0, [r3], {80}	; 0x50
    324c:	190000b2 	stmdbne	r0, {r1, r4, r5, r7}
    3250:	05007d02 	streq	r7, [r0, #-3330]	; 0xd02
    3254:	00bd2403 	adcseq	r2, sp, r3, lsl #8
    3258:	241a0000 	ldrcs	r0, [sl], #-0
    325c:	81000097 	swphi	r0, r7, [r0]	; <UNPREDICTABLE>
    3260:	00000015 	andeq	r0, r0, r5, lsl r0
    3264:	96c01a00 	strbls	r1, [r0], r0, lsl #20
    3268:	15880000 	strne	r0, [r8]
    326c:	27000000 	strcs	r0, [r0, -r0]
    3270:	0000092b 	andeq	r0, r0, fp, lsr #18
    3274:	97544201 	ldrbls	r4, [r4, -r1, lsl #4]
    3278:	00a00000 	adceq	r0, r0, r0
    327c:	9c010000 	stcls	0, cr0, [r1], {-0}
    3280:	00000712 	andeq	r0, r0, r2, lsl r7
    3284:	6d6f6414 	cfstrdvs	mvd6, [pc, #-80]!	; 323c <__code_start__-0x4dc4>
    3288:	2c420100 	stfcse	f0, [r2], {-0}
    328c:	3b000000 	blcc	3294 <__code_start__-0x4d6c>
    3290:	15000010 	strne	r0, [r0, #-16]
    3294:	000004b0 			; <UNDEFINED> instruction: 0x000004b0
    3298:	002c4201 	eoreq	r4, ip, r1, lsl #4
    329c:	10930000 	addsne	r0, r3, r0
    32a0:	d3170000 	tstle	r7, #0
    32a4:	22000000 	andcs	r0, r0, #0
    32a8:	05000007 	streq	r0, [r0, #-7]
    32ac:	00c20403 	sbceq	r0, r2, r3, lsl #8
    32b0:	61641000 	cmnvs	r4, r0
    32b4:	46010063 	strmi	r0, [r1], -r3, rrx
    32b8:	0000002c 	andeq	r0, r0, ip, lsr #32
    32bc:	0097701a 	addseq	r7, r7, sl, lsl r0
    32c0:	00156400 	andseq	r6, r5, r0, lsl #8
    32c4:	978c1800 	strls	r1, [ip, r0, lsl #16]
    32c8:	156b0000 	strbne	r0, [fp, #-0]!
    32cc:	06a20000 	strteq	r0, [r2], r0
    32d0:	01190000 	tsteq	r9, r0
    32d4:	43080253 	movwmi	r0, #33363	; 0x8253
    32d8:	05520119 	ldrbeq	r0, [r2, #-281]	; 0x119
    32dc:	00c20403 	sbceq	r0, r2, r3, lsl #8
    32e0:	51011900 	tstpl	r1, r0, lsl #18
    32e4:	bc800305 	stclt	3, cr0, [r0], {5}
    32e8:	01190000 	tsteq	r9, r0
    32ec:	bc030550 	cfstr32lt	mvfx0, [r3], {80}	; 0x50
    32f0:	190000b2 	stmdbne	r0, {r1, r4, r5, r7}
    32f4:	05007d02 	streq	r7, [r0, #-3330]	; 0xd02
    32f8:	00b59c03 	adcseq	r9, r5, r3, lsl #24
    32fc:	901a0000 	andsls	r0, sl, r0
    3300:	81000097 	swphi	r0, r7, [r0]	; <UNPREDICTABLE>
    3304:	1a000015 	bne	3360 <__code_start__-0x4ca0>
    3308:	0000979c 	muleq	r0, ip, r7
    330c:	00001564 	andeq	r1, r0, r4, ror #10
    3310:	0097b818 	addseq	fp, r7, r8, lsl r8
    3314:	00156b00 	andseq	r6, r5, r0, lsl #22
    3318:	0006ed00 	andeq	lr, r6, r0, lsl #26
    331c:	53011900 	movwpl	r1, #6400	; 0x1900
    3320:	19440802 	stmdbne	r4, {r1, fp}^
    3324:	03055201 	movweq	r5, #20993	; 0x5201
    3328:	0000c204 	andeq	ip, r0, r4, lsl #4
    332c:	05510119 	ldrbeq	r0, [r1, #-281]	; 0x119
    3330:	00bc8003 	adcseq	r8, ip, r3
    3334:	50011900 	andpl	r1, r1, r0, lsl #18
    3338:	b2bc0305 	adcslt	r0, ip, #335544320	; 0x14000000
    333c:	02190000 	andseq	r0, r9, #0
    3340:	0305007d 	movweq	r0, #20605	; 0x507d
    3344:	0000bd2c 	andeq	fp, r0, ip, lsr #26
    3348:	97bc1a00 	ldrls	r1, [ip, r0, lsl #20]!
    334c:	15810000 	strne	r0, [r1]
    3350:	c01a0000 	andsgt	r0, sl, r0
    3354:	88000097 	stmdahi	r0, {r0, r1, r2, r4, r7}
    3358:	1a000015 	bne	33b4 <__code_start__-0x4c4c>
    335c:	000097c4 	andeq	r9, r0, r4, asr #15
    3360:	00001588 	andeq	r1, r0, r8, lsl #11
    3364:	0097d81a 	addseq	sp, r7, sl, lsl r8
    3368:	00159300 	andseq	r9, r5, r0, lsl #6
    336c:	7f1c0000 	svcvc	0x001c0000
    3370:	22000000 	andcs	r0, r0, #0
    3374:	1d000007 	stcne	0, cr0, [r0, #-28]	; 0xffffffe4
    3378:	00000076 	andeq	r0, r0, r6, ror r0
    337c:	1207000c 	andne	r0, r7, #12
    3380:	28000007 	stmdacs	r0, {r0, r1, r2}
    3384:	00000217 	andeq	r0, r0, r7, lsl r2
    3388:	97f45301 	ldrbls	r5, [r4, r1, lsl #6]!
    338c:	00140000 	andseq	r0, r4, r0
    3390:	9c010000 	stcls	0, cr0, [r1], {-0}
    3394:	00076412 	andeq	r6, r7, r2, lsl r4
    3398:	08780100 	ldmdaeq	r8!, {r8}^
    339c:	78000098 	stmdavc	r0, {r3, r4, r7}
    33a0:	01000003 	tsteq	r0, r3
    33a4:	000d689c 	muleq	sp, ip, r8
    33a8:	726c1400 	rsbvc	r1, ip, #0, 8
    33ac:	2c780100 	ldfcse	f0, [r8], #-0
    33b0:	eb000000 	bl	33b8 <__code_start__-0x4c48>
    33b4:	29000010 	stmdbcs	r0, {r4}
    33b8:	00000834 	andeq	r0, r0, r4, lsr r8
    33bc:	002c7e01 	eoreq	r7, ip, r1, lsl #28
    33c0:	b82a0000 	stmdalt	sl!, {}	; <UNPREDICTABLE>
    33c4:	01000008 	tsteq	r0, r8
    33c8:	00002c7f 	andeq	r2, r0, pc, ror ip
    33cc:	2b550100 	blcs	15437d4 <__bss_end__+0x1536e0c>
    33d0:	00000866 	andeq	r0, r0, r6, ror #16
    33d4:	002c8701 	eoreq	r8, ip, r1, lsl #14
    33d8:	11170000 	tstne	r7, r0
    33dc:	d3170000 	tstle	r7, #0
    33e0:	78000000 	stmdavc	r0, {}	; <UNPREDICTABLE>
    33e4:	0500000d 	streq	r0, [r0, #-13]
    33e8:	00c16c03 	sbceq	r6, r1, r3, lsl #24
    33ec:	026d2200 	rsbeq	r2, sp, #0, 4
    33f0:	98140000 	ldmdals	r4, {}	; <UNPREDICTABLE>
    33f4:	00040000 	andeq	r0, r4, r0
    33f8:	7e010000 	cdpvc	0, 0, cr0, cr1, cr0, {0}
    33fc:	000007b4 			; <UNDEFINED> instruction: 0x000007b4
    3400:	00981424 	addseq	r1, r8, r4, lsr #8
    3404:	00000400 	andeq	r0, r0, r0, lsl #8
    3408:	027d2c00 	rsbseq	r2, sp, #0, 24
    340c:	00000000 	andeq	r0, r0, r0
    3410:	00028922 	andeq	r8, r2, r2, lsr #18
    3414:	00981800 	addseq	r1, r8, r0, lsl #16
    3418:	00000400 	andeq	r0, r0, r0, lsl #8
    341c:	db7f0100 	blle	1fc3824 <__bss_end__+0x1fb6e5c>
    3420:	24000007 	strcs	r0, [r0], #-7
    3424:	00009818 	andeq	r9, r0, r8, lsl r8
    3428:	00000004 	andeq	r0, r0, r4
    342c:	00029925 	andeq	r9, r2, r5, lsr #18
    3430:	00112a00 	andseq	r2, r1, r0, lsl #20
    3434:	18000000 	stmdane	r0, {}	; <UNPREDICTABLE>
    3438:	00009824 	andeq	r9, r0, r4, lsr #16
    343c:	0000156b 	andeq	r1, r0, fp, ror #10
    3440:	000007f2 	strdeq	r0, [r0], -r2
    3444:	05500119 	ldrbeq	r0, [r0, #-281]	; 0x119
    3448:	00bd5803 	adcseq	r5, sp, r3, lsl #16
    344c:	40180000 	andsmi	r0, r8, r0
    3450:	ba000098 	blt	36b8 <__code_start__-0x4948>
    3454:	12000002 	andne	r0, r0, #2
    3458:	19000008 	stmdbne	r0, {r3}
    345c:	74025201 	strvc	r5, [r2], #-513	; 0x201
    3460:	51011900 	tstpl	r1, r0, lsl #18
    3464:	19007502 	stmdbne	r0, {r1, r8, sl, ip, sp, lr}
    3468:	76025001 	strvc	r5, [r2], -r1
    346c:	bc1a0000 	ldclt	0, cr0, [sl], {-0}
    3470:	64000098 	strvs	r0, [r0], #-152	; 0x98
    3474:	18000015 	stmdane	r0, {r0, r2, r4}
    3478:	000098d0 	ldrdeq	r9, [r0], -r0
    347c:	0000156b 	andeq	r1, r0, fp, ror #10
    3480:	0000084a 	andeq	r0, r0, sl, asr #16
    3484:	02530119 	subseq	r0, r3, #1073741830	; 0x40000006
    3488:	01198c08 	tsteq	r9, r8, lsl #24
    348c:	6c030552 	cfstr32vs	mvfx0, [r3], {82}	; 0x52
    3490:	190000c1 	stmdbne	r0, {r0, r6, r7}
    3494:	03055101 	movweq	r5, #20737	; 0x5101
    3498:	0000bc80 	andeq	fp, r0, r0, lsl #25
    349c:	05500119 	ldrbeq	r0, [r0, #-281]	; 0x119
    34a0:	00bd7003 	adcseq	r7, sp, r3
    34a4:	d41a0000 	ldrle	r0, [sl], #-0
    34a8:	81000098 	swphi	r0, r8, [r0]	; <UNPREDICTABLE>
    34ac:	1a000015 	bne	3508 <__code_start__-0x4af8>
    34b0:	000098d8 	ldrdeq	r9, [r0], -r8
    34b4:	00001564 	andeq	r1, r0, r4, ror #10
    34b8:	0098ec18 	addseq	lr, r8, r8, lsl ip
    34bc:	00156b00 	andseq	r6, r5, r0, lsl #22
    34c0:	00088b00 	andeq	r8, r8, r0, lsl #22
    34c4:	53011900 	movwpl	r1, #6400	; 0x1900
    34c8:	198f0802 	stmibne	pc, {r1, fp}	; <UNPREDICTABLE>
    34cc:	03055201 	movweq	r5, #20993	; 0x5201
    34d0:	0000c16c 	andeq	ip, r0, ip, ror #2
    34d4:	05510119 	ldrbeq	r0, [r1, #-281]	; 0x119
    34d8:	00bc8003 	adcseq	r8, ip, r3
    34dc:	50011900 	andpl	r1, r1, r0, lsl #18
    34e0:	bd940305 	ldclt	3, cr0, [r4, #20]
    34e4:	1a000000 	bne	34ec <__code_start__-0x4b14>
    34e8:	000098f0 	strdeq	r9, [r0], -r0
    34ec:	00001581 	andeq	r1, r0, r1, lsl #11
    34f0:	0098f41a 	addseq	pc, r8, sl, lsl r4	; <UNPREDICTABLE>
    34f4:	00156400 	andseq	r6, r5, r0, lsl #8
    34f8:	99081800 	stmdbls	r8, {fp, ip}
    34fc:	156b0000 	strbne	r0, [fp, #-0]!
    3500:	08cc0000 	stmiaeq	ip, {}^	; <UNPREDICTABLE>
    3504:	01190000 	tsteq	r9, r0
    3508:	92080253 	andls	r0, r8, #805306373	; 0x30000005
    350c:	05520119 	ldrbeq	r0, [r2, #-281]	; 0x119
    3510:	00c16c03 	sbceq	r6, r1, r3, lsl #24
    3514:	51011900 	tstpl	r1, r0, lsl #18
    3518:	bc800305 	stclt	3, cr0, [r0], {5}
    351c:	01190000 	tsteq	r9, r0
    3520:	b0030550 	andlt	r0, r3, r0, asr r5
    3524:	000000bd 	strheq	r0, [r0], -sp
    3528:	00990c1a 	addseq	r0, r9, sl, lsl ip
    352c:	00158100 	andseq	r8, r5, r0, lsl #2
    3530:	99101a00 	ldmdbls	r0, {r9, fp, ip}
    3534:	15640000 	strbne	r0, [r4, #-0]!
    3538:	24180000 	ldrcs	r0, [r8], #-0
    353c:	6b000099 	blvs	37a8 <__code_start__-0x4858>
    3540:	0d000015 	stceq	0, cr0, [r0, #-84]	; 0xffffffac
    3544:	19000009 	stmdbne	r0, {r0, r3}
    3548:	08025301 	stmdaeq	r2, {r0, r8, r9, ip, lr}
    354c:	52011995 	andpl	r1, r1, #2441216	; 0x254000
    3550:	c16c0305 	cmngt	ip, r5, lsl #6
    3554:	01190000 	tsteq	r9, r0
    3558:	80030551 	andhi	r0, r3, r1, asr r5
    355c:	190000bc 	stmdbne	r0, {r2, r3, r4, r5, r7}
    3560:	03055001 	movweq	r5, #20481	; 0x5001
    3564:	0000bdd8 	ldrdeq	fp, [r0], -r8
    3568:	99281a00 	stmdbls	r8!, {r9, fp, ip}
    356c:	15810000 	strne	r0, [r1]
    3570:	2c1a0000 	ldccs	0, cr0, [sl], {-0}
    3574:	64000099 	strvs	r0, [r0], #-153	; 0x99
    3578:	18000015 	stmdane	r0, {r0, r2, r4}
    357c:	00009940 	andeq	r9, r0, r0, asr #18
    3580:	0000156b 	andeq	r1, r0, fp, ror #10
    3584:	0000094e 	andeq	r0, r0, lr, asr #18
    3588:	02530119 	subseq	r0, r3, #1073741830	; 0x40000006
    358c:	01199808 	tsteq	r9, r8, lsl #16
    3590:	6c030552 	cfstr32vs	mvfx0, [r3], {82}	; 0x52
    3594:	190000c1 	stmdbne	r0, {r0, r6, r7}
    3598:	03055101 	movweq	r5, #20737	; 0x5101
    359c:	0000bc80 	andeq	fp, r0, r0, lsl #25
    35a0:	05500119 	ldrbeq	r0, [r0, #-281]	; 0x119
    35a4:	00be0403 	adcseq	r0, lr, r3, lsl #8
    35a8:	441a0000 	ldrmi	r0, [sl], #-0
    35ac:	81000099 	swphi	r0, r9, [r0]	; <UNPREDICTABLE>
    35b0:	1a000015 	bne	360c <__code_start__-0x49f4>
    35b4:	00009948 	andeq	r9, r0, r8, asr #18
    35b8:	00001564 	andeq	r1, r0, r4, ror #10
    35bc:	00995c18 	addseq	r5, r9, r8, lsl ip
    35c0:	00156b00 	andseq	r6, r5, r0, lsl #22
    35c4:	00098f00 	andeq	r8, r9, r0, lsl #30
    35c8:	53011900 	movwpl	r1, #6400	; 0x1900
    35cc:	199b0802 	ldmibne	fp, {r1, fp}
    35d0:	03055201 	movweq	r5, #20993	; 0x5201
    35d4:	0000c16c 	andeq	ip, r0, ip, ror #2
    35d8:	05510119 	ldrbeq	r0, [r1, #-281]	; 0x119
    35dc:	00bc8003 	adcseq	r8, ip, r3
    35e0:	50011900 	andpl	r1, r1, r0, lsl #18
    35e4:	be300305 	cdplt	3, 3, cr0, cr0, cr5, {0}
    35e8:	1a000000 	bne	35f0 <__code_start__-0x4a10>
    35ec:	00009960 	andeq	r9, r0, r0, ror #18
    35f0:	00001581 	andeq	r1, r0, r1, lsl #11
    35f4:	00996818 	addseq	r6, r9, r8, lsl r8
    35f8:	00156b00 	andseq	r6, r5, r0, lsl #22
    35fc:	0009af00 	andeq	sl, r9, r0, lsl #30
    3600:	50011900 	andpl	r1, r1, r0, lsl #18
    3604:	b2580305 	subslt	r0, r8, #335544320	; 0x14000000
    3608:	18000000 	stmdane	r0, {}	; <UNPREDICTABLE>
    360c:	00009970 	andeq	r9, r0, r0, ror r9
    3610:	0000156b 	andeq	r1, r0, fp, ror #10
    3614:	000009c6 	andeq	r0, r0, r6, asr #19
    3618:	05500119 	ldrbeq	r0, [r0, #-281]	; 0x119
    361c:	00be5c03 	adcseq	r5, lr, r3, lsl #24
    3620:	741a0000 	ldrvc	r0, [sl], #-0
    3624:	81000099 	swphi	r0, r9, [r0]	; <UNPREDICTABLE>
    3628:	1a000015 	bne	3684 <__code_start__-0x497c>
    362c:	00009978 	andeq	r9, r0, r8, ror r9
    3630:	00001564 	andeq	r1, r0, r4, ror #10
    3634:	00998c18 	addseq	r8, r9, r8, lsl ip
    3638:	00156b00 	andseq	r6, r5, r0, lsl #22
    363c:	000a0700 	andeq	r0, sl, r0, lsl #14
    3640:	53011900 	movwpl	r1, #6400	; 0x1900
    3644:	19a10802 	stmibne	r1!, {r1, fp}
    3648:	03055201 	movweq	r5, #20993	; 0x5201
    364c:	0000c16c 	andeq	ip, r0, ip, ror #2
    3650:	05510119 	ldrbeq	r0, [r1, #-281]	; 0x119
    3654:	00bc8003 	adcseq	r8, ip, r3
    3658:	50011900 	andpl	r1, r1, r0, lsl #18
    365c:	be840305 	cdplt	3, 8, cr0, cr4, cr5, {0}
    3660:	1a000000 	bne	3668 <__code_start__-0x4998>
    3664:	00009990 	muleq	r0, r0, r9
    3668:	00001581 	andeq	r1, r0, r1, lsl #11
    366c:	00999818 	addseq	r9, r9, r8, lsl r8
    3670:	00156b00 	andseq	r6, r5, r0, lsl #22
    3674:	000a2700 	andeq	r2, sl, r0, lsl #14
    3678:	50011900 	andpl	r1, r1, r0, lsl #18
    367c:	beac0305 	cdplt	3, 10, cr0, cr12, cr5, {0}
    3680:	18000000 	stmdane	r0, {}	; <UNPREDICTABLE>
    3684:	000099b0 			; <UNDEFINED> instruction: 0x000099b0
    3688:	0000156b 	andeq	r1, r0, fp, ror #10
    368c:	00000a3e 	andeq	r0, r0, lr, lsr sl
    3690:	05500119 	ldrbeq	r0, [r0, #-281]	; 0x119
    3694:	00b25803 	adcseq	r5, r2, r3, lsl #16
    3698:	b8180000 	ldmdalt	r8, {}	; <UNPREDICTABLE>
    369c:	6b000099 	blvs	3908 <__code_start__-0x46f8>
    36a0:	55000015 	strpl	r0, [r0, #-21]
    36a4:	1900000a 	stmdbne	r0, {r1, r3}
    36a8:	03055001 	movweq	r5, #20481	; 0x5001
    36ac:	0000bec4 	andeq	fp, r0, r4, asr #29
    36b0:	99bc1a00 	ldmibls	ip!, {r9, fp, ip}
    36b4:	15810000 	strne	r0, [r1]
    36b8:	c4180000 	ldrgt	r0, [r8], #-0
    36bc:	6b000099 	blvs	3928 <__code_start__-0x46d8>
    36c0:	75000015 	strvc	r0, [r0, #-21]
    36c4:	1900000a 	stmdbne	r0, {r1, r3}
    36c8:	03055001 	movweq	r5, #20481	; 0x5001
    36cc:	0000b258 	andeq	fp, r0, r8, asr r2
    36d0:	99cc1800 	stmibls	ip, {fp, ip}^
    36d4:	156b0000 	strbne	r0, [fp, #-0]!
    36d8:	0a8c0000 	beq	fe3036e0 <__bss_end__+0xfe2f6d18>
    36dc:	01190000 	tsteq	r9, r0
    36e0:	d4030550 	strle	r0, [r3], #-1360	; 0x550
    36e4:	000000be 	strheq	r0, [r0], -lr
    36e8:	0099d01a 	addseq	sp, r9, sl, lsl r0
    36ec:	0013c000 	andseq	ip, r3, r0
    36f0:	99d81a00 	ldmibls	r8, {r9, fp, ip}^
    36f4:	15640000 	strbne	r0, [r4, #-0]!
    36f8:	ec180000 	ldc	0, cr0, [r8], {-0}
    36fc:	6b000099 	blvs	3968 <__code_start__-0x4698>
    3700:	cd000015 	stcgt	0, cr0, [r0, #-84]	; 0xffffffac
    3704:	1900000a 	stmdbne	r0, {r1, r3}
    3708:	08025301 	stmdaeq	r2, {r0, r8, r9, ip, lr}
    370c:	520119ae 	andpl	r1, r1, #2850816	; 0x2b8000
    3710:	c16c0305 	cmngt	ip, r5, lsl #6
    3714:	01190000 	tsteq	r9, r0
    3718:	80030551 	andhi	r0, r3, r1, asr r5
    371c:	190000bc 	stmdbne	r0, {r2, r3, r4, r5, r7}
    3720:	03055001 	movweq	r5, #20481	; 0x5001
    3724:	0000beec 	andeq	fp, r0, ip, ror #29
    3728:	99f01a00 	ldmibls	r0!, {r9, fp, ip}^
    372c:	15810000 	strne	r0, [r1]
    3730:	f41a0000 			; <UNDEFINED> instruction: 0xf41a0000
    3734:	64000099 	strvs	r0, [r0], #-153	; 0x99
    3738:	18000015 	stmdane	r0, {r0, r2, r4}
    373c:	00009a0c 	andeq	r9, r0, ip, lsl #20
    3740:	0000156b 	andeq	r1, r0, fp, ror #10
    3744:	00000b15 	andeq	r0, r0, r5, lsl fp
    3748:	02530119 	subseq	r0, r3, #1073741830	; 0x40000006
    374c:	0119b108 	tsteq	r9, r8, lsl #2
    3750:	6c030552 	cfstr32vs	mvfx0, [r3], {82}	; 0x52
    3754:	190000c1 	stmdbne	r0, {r0, r6, r7}
    3758:	03055101 	movweq	r5, #20737	; 0x5101
    375c:	0000bc80 	andeq	fp, r0, r0, lsl #25
    3760:	05500119 	ldrbeq	r0, [r0, #-281]	; 0x119
    3764:	00bf1003 	adcseq	r1, pc, r3
    3768:	7d021900 	stcvc	9, cr1, [r2, #-0]
    376c:	00750200 	rsbseq	r0, r5, r0, lsl #4
    3770:	9a101a00 	bls	409f78 <__bss_end__+0x3fd5b0>
    3774:	15810000 	strne	r0, [r1]
    3778:	141a0000 	ldrne	r0, [sl], #-0
    377c:	6400009a 	strvs	r0, [r0], #-154	; 0x9a
    3780:	18000015 	stmdane	r0, {r0, r2, r4}
    3784:	00009a28 	andeq	r9, r0, r8, lsr #20
    3788:	0000156b 	andeq	r1, r0, fp, ror #10
    378c:	00000b56 	andeq	r0, r0, r6, asr fp
    3790:	02530119 	subseq	r0, r3, #1073741830	; 0x40000006
    3794:	0119b408 	tsteq	r9, r8, lsl #8
    3798:	6c030552 	cfstr32vs	mvfx0, [r3], {82}	; 0x52
    379c:	190000c1 	stmdbne	r0, {r0, r6, r7}
    37a0:	03055101 	movweq	r5, #20737	; 0x5101
    37a4:	0000bc80 	andeq	fp, r0, r0, lsl #25
    37a8:	05500119 	ldrbeq	r0, [r0, #-281]	; 0x119
    37ac:	00bf4003 	adcseq	r4, pc, r3
    37b0:	2c1a0000 	ldccs	0, cr0, [sl], {-0}
    37b4:	8100009a 	swphi	r0, sl, [r0]	; <UNPREDICTABLE>
    37b8:	1a000015 	bne	3814 <__code_start__-0x47ec>
    37bc:	00009a30 	andeq	r9, r0, r0, lsr sl
    37c0:	00001564 	andeq	r1, r0, r4, ror #10
    37c4:	009a4418 	addseq	r4, sl, r8, lsl r4
    37c8:	00156b00 	andseq	r6, r5, r0, lsl #22
    37cc:	000b9700 	andeq	r9, fp, r0, lsl #14
    37d0:	53011900 	movwpl	r1, #6400	; 0x1900
    37d4:	19b70802 	ldmibne	r7!, {r1, fp}
    37d8:	03055201 	movweq	r5, #20993	; 0x5201
    37dc:	0000c16c 	andeq	ip, r0, ip, ror #2
    37e0:	05510119 	ldrbeq	r0, [r1, #-281]	; 0x119
    37e4:	00bc8003 	adcseq	r8, ip, r3
    37e8:	50011900 	andpl	r1, r1, r0, lsl #18
    37ec:	bf680305 	svclt	0x00680305
    37f0:	1a000000 	bne	37f8 <__code_start__-0x4808>
    37f4:	00009a48 	andeq	r9, r0, r8, asr #20
    37f8:	00001581 	andeq	r1, r0, r1, lsl #11
    37fc:	009a4c1a 	addseq	r4, sl, sl, lsl ip
    3800:	00156400 	andseq	r6, r5, r0, lsl #8
    3804:	9a601800 	bls	180980c <__bss_end__+0x17fce44>
    3808:	156b0000 	strbne	r0, [fp, #-0]!
    380c:	0bd80000 	bleq	ff603814 <__bss_end__+0xff5f6e4c>
    3810:	01190000 	tsteq	r9, r0
    3814:	ba080253 	blt	204168 <__bss_end__+0x1f77a0>
    3818:	05520119 	ldrbeq	r0, [r2, #-281]	; 0x119
    381c:	00c16c03 	sbceq	r6, r1, r3, lsl #24
    3820:	51011900 	tstpl	r1, r0, lsl #18
    3824:	bc800305 	stclt	3, cr0, [r0], {5}
    3828:	01190000 	tsteq	r9, r0
    382c:	90030550 	andls	r0, r3, r0, asr r5
    3830:	000000bf 	strheq	r0, [r0], -pc	; <UNPREDICTABLE>
    3834:	009a641a 	addseq	r6, sl, sl, lsl r4
    3838:	00158100 	andseq	r8, r5, r0, lsl #2
    383c:	9a681a00 	bls	1a0a044 <__bss_end__+0x19fd67c>
    3840:	15640000 	strbne	r0, [r4, #-0]!
    3844:	7c180000 	ldcvc	0, cr0, [r8], {-0}
    3848:	6b00009a 	blvs	3ab8 <__code_start__-0x4548>
    384c:	19000015 	stmdbne	r0, {r0, r2, r4}
    3850:	1900000c 	stmdbne	r0, {r2, r3}
    3854:	08025301 	stmdaeq	r2, {r0, r8, r9, ip, lr}
    3858:	520119bd 	andpl	r1, r1, #3096576	; 0x2f4000
    385c:	c16c0305 	cmngt	ip, r5, lsl #6
    3860:	01190000 	tsteq	r9, r0
    3864:	80030551 	andhi	r0, r3, r1, asr r5
    3868:	190000bc 	stmdbne	r0, {r2, r3, r4, r5, r7}
    386c:	03055001 	movweq	r5, #20481	; 0x5001
    3870:	0000bfb8 			; <UNDEFINED> instruction: 0x0000bfb8
    3874:	9a801a00 	bls	fe00a07c <__bss_end__+0xfdffd6b4>
    3878:	15810000 	strne	r0, [r1]
    387c:	841a0000 	ldrhi	r0, [sl], #-0
    3880:	6400009a 	strvs	r0, [r0], #-154	; 0x9a
    3884:	18000015 	stmdane	r0, {r0, r2, r4}
    3888:	00009a98 	muleq	r0, r8, sl
    388c:	0000156b 	andeq	r1, r0, fp, ror #10
    3890:	00000c5a 	andeq	r0, r0, sl, asr ip
    3894:	02530119 	subseq	r0, r3, #1073741830	; 0x40000006
    3898:	0119c008 	tsteq	r9, r8
    389c:	6c030552 	cfstr32vs	mvfx0, [r3], {82}	; 0x52
    38a0:	190000c1 	stmdbne	r0, {r0, r6, r7}
    38a4:	03055101 	movweq	r5, #20737	; 0x5101
    38a8:	0000bc80 	andeq	fp, r0, r0, lsl #25
    38ac:	05500119 	ldrbeq	r0, [r0, #-281]	; 0x119
    38b0:	00bfd403 	adcseq	sp, pc, r3, lsl #8
    38b4:	9c1a0000 	ldcls	0, cr0, [sl], {-0}
    38b8:	8100009a 	swphi	r0, sl, [r0]	; <UNPREDICTABLE>
    38bc:	1a000015 	bne	3918 <__code_start__-0x46e8>
    38c0:	00009aa0 	andeq	r9, r0, r0, lsr #21
    38c4:	00001564 	andeq	r1, r0, r4, ror #10
    38c8:	009ab418 	addseq	fp, sl, r8, lsl r4
    38cc:	00156b00 	andseq	r6, r5, r0, lsl #22
    38d0:	000c9b00 	andeq	r9, ip, r0, lsl #22
    38d4:	53011900 	movwpl	r1, #6400	; 0x1900
    38d8:	19c30802 	stmibne	r3, {r1, fp}^
    38dc:	03055201 	movweq	r5, #20993	; 0x5201
    38e0:	0000c16c 	andeq	ip, r0, ip, ror #2
    38e4:	05510119 	ldrbeq	r0, [r1, #-281]	; 0x119
    38e8:	00bc8003 	adcseq	r8, ip, r3
    38ec:	50011900 	andpl	r1, r1, r0, lsl #18
    38f0:	bffc0305 	svclt	0x00fc0305
    38f4:	1a000000 	bne	38fc <__code_start__-0x4704>
    38f8:	00009ab8 			; <UNDEFINED> instruction: 0x00009ab8
    38fc:	00001581 	andeq	r1, r0, r1, lsl #11
    3900:	009abc1a 	addseq	fp, sl, sl, lsl ip
    3904:	00156400 	andseq	r6, r5, r0, lsl #8
    3908:	9ad01800 	bls	ff409910 <__bss_end__+0xff3fcf48>
    390c:	156b0000 	strbne	r0, [fp, #-0]!
    3910:	0cdc0000 	ldcleq	0, cr0, [ip], {0}
    3914:	01190000 	tsteq	r9, r0
    3918:	c6080253 			; <UNDEFINED> instruction: 0xc6080253
    391c:	05520119 	ldrbeq	r0, [r2, #-281]	; 0x119
    3920:	00c16c03 	sbceq	r6, r1, r3, lsl #24
    3924:	51011900 	tstpl	r1, r0, lsl #18
    3928:	bc800305 	stclt	3, cr0, [r0], {5}
    392c:	01190000 	tsteq	r9, r0
    3930:	28030550 	stmdacs	r3, {r4, r6, r8, sl}
    3934:	000000c0 	andeq	r0, r0, r0, asr #1
    3938:	009ad41a 	addseq	sp, sl, sl, lsl r4
    393c:	00158100 	andseq	r8, r5, r0, lsl #2
    3940:	9ad81a00 	bls	ff60a148 <__bss_end__+0xff5fd780>
    3944:	15640000 	strbne	r0, [r4, #-0]!
    3948:	ec180000 	ldc	0, cr0, [r8], {-0}
    394c:	6b00009a 	blvs	3bbc <__code_start__-0x4444>
    3950:	1d000015 	stcne	0, cr0, [r0, #-84]	; 0xffffffac
    3954:	1900000d 	stmdbne	r0, {r0, r2, r3}
    3958:	08025301 	stmdaeq	r2, {r0, r8, r9, ip, lr}
    395c:	520119c9 	andpl	r1, r1, #3293184	; 0x324000
    3960:	c16c0305 	cmngt	ip, r5, lsl #6
    3964:	01190000 	tsteq	r9, r0
    3968:	80030551 	andhi	r0, r3, r1, asr r5
    396c:	190000bc 	stmdbne	r0, {r2, r3, r4, r5, r7}
    3970:	03055001 	movweq	r5, #20481	; 0x5001
    3974:	0000c050 	andeq	ip, r0, r0, asr r0
    3978:	9af01a00 	bls	ffc0a180 <__bss_end__+0xffbfd7b8>
    397c:	15810000 	strne	r0, [r1]
    3980:	f41a0000 			; <UNDEFINED> instruction: 0xf41a0000
    3984:	6400009a 	strvs	r0, [r0], #-154	; 0x9a
    3988:	18000015 	stmdane	r0, {r0, r2, r4}
    398c:	00009b08 	andeq	r9, r0, r8, lsl #22
    3990:	0000156b 	andeq	r1, r0, fp, ror #10
    3994:	00000d5e 	andeq	r0, r0, lr, asr sp
    3998:	02530119 	subseq	r0, r3, #1073741830	; 0x40000006
    399c:	0119cc08 	tsteq	r9, r8, lsl #24
    39a0:	6c030552 	cfstr32vs	mvfx0, [r3], {82}	; 0x52
    39a4:	190000c1 	stmdbne	r0, {r0, r6, r7}
    39a8:	03055101 	movweq	r5, #20737	; 0x5101
    39ac:	0000bc80 	andeq	fp, r0, r0, lsl #25
    39b0:	05500119 	ldrbeq	r0, [r0, #-281]	; 0x119
    39b4:	00c07003 	sbceq	r7, r0, r3
    39b8:	0c1a0000 	ldceq	0, cr0, [sl], {-0}
    39bc:	8100009b 	swphi	r0, fp, [r0]	; <UNPREDICTABLE>
    39c0:	00000015 	andeq	r0, r0, r5, lsl r0
    39c4:	00007f1c 	andeq	r7, r0, ip, lsl pc
    39c8:	000d7800 	andeq	r7, sp, r0, lsl #16
    39cc:	00761d00 	rsbseq	r1, r6, r0, lsl #26
    39d0:	00110000 	andseq	r0, r1, r0
    39d4:	000d6807 	andeq	r6, sp, r7, lsl #16
    39d8:	0c231200 	sfmeq	f1, 4, [r3], #-0
    39dc:	e3010000 	movw	r0, #4096	; 0x1000
    39e0:	00009b80 	andeq	r9, r0, r0, lsl #23
    39e4:	00000030 	andeq	r0, r0, r0, lsr r0
    39e8:	0dfa9c01 	ldcleq	12, cr9, [sl, #4]!
    39ec:	6c140000 	ldcvs	0, cr0, [r4], {-0}
    39f0:	e3010072 	movw	r0, #4210	; 0x1072
    39f4:	0000002c 	andeq	r0, r0, ip, lsr #32
    39f8:	0000113d 	andeq	r1, r0, sp, lsr r1
    39fc:	0000d317 	andeq	sp, r0, r7, lsl r3
    3a00:	000e0a00 	andeq	r0, lr, r0, lsl #20
    3a04:	80030500 	andhi	r0, r3, r0, lsl #10
    3a08:	1a0000c1 	bne	3d14 <__code_start__-0x42ec>
    3a0c:	00009b88 	andeq	r9, r0, r8, lsl #23
    3a10:	000015a4 	andeq	r1, r0, r4, lsr #11
    3a14:	009b8c1a 	addseq	r8, fp, sl, lsl ip
    3a18:	00156400 	andseq	r6, r5, r0, lsl #8
    3a1c:	9ba01800 	blls	fe809a24 <__bss_end__+0xfe7fd05c>
    3a20:	156b0000 	strbne	r0, [fp, #-0]!
    3a24:	0df00000 	ldcleq	0, cr0, [r0]
    3a28:	01190000 	tsteq	r9, r0
    3a2c:	e5080253 	str	r0, [r8, #-595]	; 0x253
    3a30:	05520119 	ldrbeq	r0, [r2, #-281]	; 0x119
    3a34:	00c18003 	sbceq	r8, r1, r3
    3a38:	51011900 	tstpl	r1, r0, lsl #18
    3a3c:	bc800305 	stclt	3, cr0, [r0], {5}
    3a40:	01190000 	tsteq	r9, r0
    3a44:	98030550 	stmdals	r3, {r4, r6, r8, sl}
    3a48:	000000c0 	andeq	r0, r0, r0, asr #1
    3a4c:	009ba41a 	addseq	sl, fp, sl, lsl r4
    3a50:	00158100 	andseq	r8, r5, r0, lsl #2
    3a54:	7f1c0000 	svcvc	0x001c0000
    3a58:	0a000000 	beq	3a60 <__code_start__-0x45a0>
    3a5c:	1d00000e 	stcne	0, cr0, [r0, #-56]	; 0xffffffc8
    3a60:	00000076 	andeq	r0, r0, r6, ror r0
    3a64:	fa070010 	blx	1c3aac <__bss_end__+0x1b70e4>
    3a68:	1200000d 	andne	r0, r0, #13
    3a6c:	000001c7 	andeq	r0, r0, r7, asr #3
    3a70:	9bb0f101 	blls	fec3fe7c <__bss_end__+0xfec334b4>
    3a74:	01500000 	cmpeq	r0, r0
    3a78:	9c010000 	stcls	0, cr0, [r1], {-0}
    3a7c:	00001028 	andeq	r1, r0, r8, lsr #32
    3a80:	0000d317 	andeq	sp, r0, r7, lsl r3
    3a84:	00103800 	andseq	r3, r0, r0, lsl #16
    3a88:	94030500 	strls	r0, [r3], #-1280	; 0x500
    3a8c:	2d0000c1 	stccs	0, cr0, [r0, #-772]	; 0xfffffcfc
    3a90:	00000f5d 	andeq	r0, r0, sp, asr pc
    3a94:	007df601 	rsbseq	pc, sp, r1, lsl #12
    3a98:	00000000 	andeq	r0, r0, r0
    3a9c:	bc1a0010 	ldclt	0, cr0, [sl], {16}
    3aa0:	ab00009b 	blge	3d14 <__code_start__-0x42ec>
    3aa4:	1a000015 	bne	3b00 <__code_start__-0x4500>
    3aa8:	00009bc0 	andeq	r9, r0, r0, asr #23
    3aac:	000015b2 			; <UNDEFINED> instruction: 0x000015b2
    3ab0:	009bcc1a 	addseq	ip, fp, sl, lsl ip
    3ab4:	00156400 	andseq	r6, r5, r0, lsl #8
    3ab8:	9be81800 	blls	ffa09ac0 <__bss_end__+0xff9fd0f8>
    3abc:	156b0000 	strbne	r0, [fp, #-0]!
    3ac0:	0e960000 	cdpeq	0, 9, cr0, cr6, cr0, {0}
    3ac4:	01190000 	tsteq	r9, r0
    3ac8:	f4080253 	vst1.16	{d0-d3}, [r8 :64], r3
    3acc:	05520119 	ldrbeq	r0, [r2, #-281]	; 0x119
    3ad0:	00c19403 	sbceq	r9, r1, r3, lsl #8
    3ad4:	51011900 	tstpl	r1, r0, lsl #18
    3ad8:	bc800305 	stclt	3, cr0, [r0], {5}
    3adc:	01190000 	tsteq	r9, r0
    3ae0:	bc030550 	cfstr32lt	mvfx0, [r3], {80}	; 0x50
    3ae4:	190000b2 	stmdbne	r0, {r1, r4, r5, r7}
    3ae8:	05007d02 	streq	r7, [r0, #-3330]	; 0xd02
    3aec:	00c0b403 	sbceq	fp, r0, r3, lsl #8
    3af0:	ec1a0000 	ldc	0, cr0, [sl], {-0}
    3af4:	8100009b 	swphi	r0, fp, [r0]	; <UNPREDICTABLE>
    3af8:	18000015 	stmdane	r0, {r0, r2, r4}
    3afc:	00009bf8 	strdeq	r9, [r0], -r8
    3b00:	000015bd 			; <UNDEFINED> instruction: 0x000015bd
    3b04:	00000ebb 			; <UNDEFINED> instruction: 0x00000ebb
    3b08:	03510119 	cmpeq	r1, #1073741830	; 0x40000006
    3b0c:	1940000a 	stmdbne	r0, {r1, r3}^
    3b10:	40035001 	andmi	r5, r3, r1
    3b14:	1a002440 	bne	cc1c <__bss_end__+0x254>
    3b18:	00009c0c 	andeq	r9, r0, ip, lsl #24
    3b1c:	00001564 	andeq	r1, r0, r4, ror #10
    3b20:	009c2818 	addseq	r2, ip, r8, lsl r8
    3b24:	00156b00 	andseq	r6, r5, r0, lsl #22
    3b28:	000efd00 	andeq	pc, lr, r0, lsl #26
    3b2c:	53011900 	movwpl	r1, #6400	; 0x1900
    3b30:	19f90802 	ldmibne	r9!, {r1, fp}^
    3b34:	03055201 	movweq	r5, #20993	; 0x5201
    3b38:	0000c194 	muleq	r0, r4, r1
    3b3c:	05510119 	ldrbeq	r0, [r1, #-281]	; 0x119
    3b40:	00bc8003 	adcseq	r8, ip, r3
    3b44:	50011900 	andpl	r1, r1, r0, lsl #18
    3b48:	b2bc0305 	adcslt	r0, ip, #335544320	; 0x14000000
    3b4c:	02190000 	andseq	r0, r9, #0
    3b50:	0305007d 	movweq	r0, #20605	; 0x507d
    3b54:	0000c0c8 	andeq	ip, r0, r8, asr #1
    3b58:	9c2c1a00 	stcls	10, cr1, [ip], #-0
    3b5c:	15810000 	strne	r0, [r1]
    3b60:	3c180000 	ldccc	0, cr0, [r8], {-0}
    3b64:	d700009c 			; <UNDEFINED> instruction: 0xd700009c
    3b68:	23000015 	movwcs	r0, #21
    3b6c:	1900000f 	stmdbne	r0, {r0, r1, r2, r3}
    3b70:	31015301 	tstcc	r1, r1, lsl #6
    3b74:	01520119 	cmpeq	r2, r9, lsl r1
    3b78:	51011930 	tstpl	r1, r0, lsr r9
    3b7c:	18003001 	stmdane	r0, {r0, ip, sp}
    3b80:	00009c54 	andeq	r9, r0, r4, asr ip
    3b84:	000015d7 	ldrdeq	r1, [r0], -r7
    3b88:	00000f44 	andeq	r0, r0, r4, asr #30
    3b8c:	01530119 	cmpeq	r3, r9, lsl r1
    3b90:	52011931 	andpl	r1, r1, #802816	; 0xc4000
    3b94:	24404003 	strbcs	r4, [r0], #-3
    3b98:	03510119 	cmpeq	r1, #1073741830	; 0x40000006
    3b9c:	00244040 	eoreq	r4, r4, r0, asr #32
    3ba0:	009c6818 	addseq	r6, ip, r8, lsl r8
    3ba4:	0015d700 	andseq	sp, r5, r0, lsl #14
    3ba8:	000f6700 	andeq	r6, pc, r0, lsl #14
    3bac:	53011900 	movwpl	r1, #6400	; 0x1900
    3bb0:	01193101 	tsteq	r9, r1, lsl #2
    3bb4:	fe080452 	mcr2	4, 0, r0, cr8, cr2, {2}
    3bb8:	01192443 	tsteq	r9, r3, asr #8
    3bbc:	fe080451 	mcr2	4, 0, r0, cr8, cr1, {2}
    3bc0:	18002443 	stmdane	r0, {r0, r1, r6, sl, sp}
    3bc4:	00009c7c 	andeq	r9, r0, ip, ror ip
    3bc8:	000015d7 	ldrdeq	r1, [r0], -r7
    3bcc:	00000f88 	andeq	r0, r0, r8, lsl #31
    3bd0:	01530119 	cmpeq	r3, r9, lsl r1
    3bd4:	52011931 	andpl	r1, r1, #802816	; 0xc4000
    3bd8:	24494003 	strbcs	r4, [r9], #-3
    3bdc:	03510119 	cmpeq	r1, #1073741830	; 0x40000006
    3be0:	00244940 	eoreq	r4, r4, r0, asr #18
    3be4:	009c9018 	addseq	r9, ip, r8, lsl r0
    3be8:	0015d700 	andseq	sp, r5, r0, lsl #14
    3bec:	000fad00 	andeq	sl, pc, r0, lsl #26
    3bf0:	53011900 	movwpl	r1, #6400	; 0x1900
    3bf4:	01193101 	tsteq	r9, r1, lsl #2
    3bf8:	000c0552 	andeq	r0, ip, r2, asr r5
    3bfc:	19201000 	stmdbne	r0!, {ip}
    3c00:	0c055101 	stfeqs	f5, [r5], {1}
    3c04:	20100000 	andscs	r0, r0, r0
    3c08:	9ca41800 	stcls	8, cr1, [r4]
    3c0c:	15d70000 	ldrbne	r0, [r7]
    3c10:	0fd20000 	svceq	0x00d20000
    3c14:	01190000 	tsteq	r9, r0
    3c18:	19310153 	ldmdbne	r1!, {r0, r1, r4, r6, r8}
    3c1c:	0c055201 	sfmeq	f5, 4, [r5], {1}
    3c20:	20200000 	eorcs	r0, r0, r0
    3c24:	05510119 	ldrbeq	r0, [r1, #-281]	; 0x119
    3c28:	2000000c 	andcs	r0, r0, ip
    3c2c:	b8180020 	ldmdalt	r8, {r5}
    3c30:	d700009c 			; <UNDEFINED> instruction: 0xd700009c
    3c34:	f5000015 			; <UNDEFINED> instruction: 0xf5000015
    3c38:	1900000f 	stmdbne	r0, {r0, r1, r2, r3}
    3c3c:	31015301 	tstcc	r1, r1, lsl #6
    3c40:	04520119 	ldrbeq	r0, [r2], #-281	; 0x119
    3c44:	24448f08 	strbcs	r8, [r4], #-3848	; 0xf08
    3c48:	04510119 	ldrbeq	r0, [r1], #-281	; 0x119
    3c4c:	24448f08 	strbcs	r8, [r4], #-3848	; 0xf08
    3c50:	9cbc1a00 	vldmials	ip!, {s2-s1}
    3c54:	15fb0000 	ldrbne	r0, [fp, #0]!
    3c58:	c4180000 	ldrgt	r0, [r8], #-0
    3c5c:	9300009c 	movwls	r0, #156	; 0x9c
    3c60:	11000015 	tstne	r0, r5, lsl r0
    3c64:	19000010 	stmdbne	r0, {r4}
    3c68:	34015001 	strcc	r5, [r1], #-1
    3c6c:	9cd41b00 	vldmials	r4, {d17-d16}
    3c70:	16020000 	strne	r0, [r2], -r0
    3c74:	01190000 	tsteq	r9, r0
    3c78:	19310151 	ldmdbne	r1!, {r0, r4, r6, r8}
    3c7c:	0a035001 	beq	d7c88 <__bss_end__+0xcb2c0>
    3c80:	0000140e 	andeq	r1, r0, lr, lsl #8
    3c84:	00007f1c 	andeq	r7, r0, ip, lsl pc
    3c88:	00103800 	andseq	r3, r0, r0, lsl #16
    3c8c:	00761d00 	rsbseq	r1, r6, r0, lsl #26
    3c90:	000d0000 	andeq	r0, sp, r0
    3c94:	00102807 	andseq	r2, r0, r7, lsl #16
    3c98:	00e02e00 	rsceq	r2, r0, r0, lsl #28
    3c9c:	1c010000 	stcne	0, cr0, [r1], {-0}
    3ca0:	009d0001 	addseq	r0, sp, r1
    3ca4:	00008c00 	andeq	r8, r0, r0, lsl #24
    3ca8:	1d9c0100 	ldfnes	f0, [ip]
    3cac:	17000011 	smladne	r0, r1, r0, r0
    3cb0:	000000d3 	ldrdeq	r0, [r0], -r3
    3cb4:	0000112d 	andeq	r1, r0, sp, lsr #2
    3cb8:	c1a40305 			; <UNDEFINED> instruction: 0xc1a40305
    3cbc:	1c180000 	ldcne	0, cr0, [r8], {-0}
    3cc0:	6b00009d 	blvs	3f3c <__code_start__-0x40c4>
    3cc4:	92000015 	andls	r0, r0, #21
    3cc8:	19000010 	stmdbne	r0, {r4}
    3ccc:	0a035301 	beq	d88d8 <__bss_end__+0xcbf10>
    3cd0:	0119011d 	tsteq	r9, sp, lsl r1
    3cd4:	a4030552 	strge	r0, [r3], #-1362	; 0x552
    3cd8:	190000c1 	stmdbne	r0, {r0, r6, r7}
    3cdc:	03055101 	movweq	r5, #20737	; 0x5101
    3ce0:	0000bc80 	andeq	fp, r0, r0, lsl #25
    3ce4:	05500119 	ldrbeq	r0, [r0, #-281]	; 0x119
    3ce8:	00c0d403 	sbceq	sp, r0, r3, lsl #8
    3cec:	201a0000 	andscs	r0, sl, r0
    3cf0:	1d00009d 	stcne	0, cr0, [r0, #-628]	; 0xfffffd8c
    3cf4:	1a000016 	bne	3d54 <__code_start__-0x42ac>
    3cf8:	00009d24 	andeq	r9, r0, r4, lsr #26
    3cfc:	000015b2 			; <UNDEFINED> instruction: 0x000015b2
    3d00:	009d301a 	addseq	r3, sp, sl, lsl r0
    3d04:	00156400 	andseq	r6, r5, r0, lsl #8
    3d08:	9d4c1800 	stclls	8, cr1, [ip, #-0]
    3d0c:	156b0000 	strbne	r0, [fp, #-0]!
    3d10:	10e70000 	rscne	r0, r7, r0
    3d14:	01190000 	tsteq	r9, r0
    3d18:	200a0353 	andcs	r0, sl, r3, asr r3
    3d1c:	52011901 	andpl	r1, r1, #16384	; 0x4000
    3d20:	c1a40305 			; <UNDEFINED> instruction: 0xc1a40305
    3d24:	01190000 	tsteq	r9, r0
    3d28:	80030551 	andhi	r0, r3, r1, asr r5
    3d2c:	190000bc 	stmdbne	r0, {r2, r3, r4, r5, r7}
    3d30:	03055001 	movweq	r5, #20481	; 0x5001
    3d34:	0000b2bc 			; <UNDEFINED> instruction: 0x0000b2bc
    3d38:	007d0219 	rsbseq	r0, sp, r9, lsl r2
    3d3c:	b3540305 	cmplt	r4, #335544320	; 0x14000000
    3d40:	1a000000 	bne	3d48 <__code_start__-0x42b8>
    3d44:	00009d50 	andeq	r9, r0, r0, asr sp
    3d48:	00001581 	andeq	r1, r0, r1, lsl #11
    3d4c:	009d641b 	addseq	r6, sp, fp, lsl r4
    3d50:	00156b00 	andseq	r6, r5, r0, lsl #22
    3d54:	53011900 	movwpl	r1, #6400	; 0x1900
    3d58:	01210a03 	teqeq	r1, r3, lsl #20
    3d5c:	05520119 	ldrbeq	r0, [r2, #-281]	; 0x119
    3d60:	00c1a403 	sbceq	sl, r1, r3, lsl #8
    3d64:	51011900 	tstpl	r1, r0, lsl #18
    3d68:	bc800305 	stclt	3, cr0, [r0], {5}
    3d6c:	01190000 	tsteq	r9, r0
    3d70:	fc030550 	stc2	5, cr0, [r3], {80}	; 0x50
    3d74:	000000c0 	andeq	r0, r0, r0, asr #1
    3d78:	007f1c00 	rsbseq	r1, pc, r0, lsl #24
    3d7c:	112d0000 	teqne	sp, r0
    3d80:	761d0000 	ldrvc	r0, [sp], -r0
    3d84:	0b000000 	bleq	3d8c <__code_start__-0x4274>
    3d88:	111d0700 	tstne	sp, r0, lsl #14
    3d8c:	da2e0000 	ble	b83d94 <__bss_end__+0xb773cc>
    3d90:	01000007 	tsteq	r0, r7
    3d94:	9d8c0125 	stflss	f0, [ip, #148]	; 0x94
    3d98:	00700000 	rsbseq	r0, r0, r0
    3d9c:	9c010000 	stcls	0, cr0, [r1], {-0}
    3da0:	000011e2 	andeq	r1, r0, r2, ror #3
    3da4:	0000d317 	andeq	sp, r0, r7, lsl r3
    3da8:	0011e200 	andseq	lr, r1, r0, lsl #4
    3dac:	b0030500 	andlt	r0, r3, r0, lsl #10
    3db0:	1a0000c1 	bne	40bc <__code_start__-0x3f44>
    3db4:	00009d98 	muleq	r0, r8, sp
    3db8:	000015a4 	andeq	r1, r0, r4, lsr #11
    3dbc:	009d9c1a 	addseq	r9, sp, sl, lsl ip
    3dc0:	0015b200 	andseq	fp, r5, r0, lsl #4
    3dc4:	9da81a00 	stcls	10, cr1, [r8]
    3dc8:	15640000 	strbne	r0, [r4, #-0]!
    3dcc:	c4180000 	ldrgt	r0, [r8], #-0
    3dd0:	6b00009d 	blvs	404c <__code_start__-0x3fb4>
    3dd4:	ac000015 	stcge	0, cr0, [r0], {21}
    3dd8:	19000011 	stmdbne	r0, {r0, r4}
    3ddc:	0a035301 	beq	d89e8 <__bss_end__+0xcc020>
    3de0:	01190128 	tsteq	r9, r8, lsr #2
    3de4:	b0030552 	andlt	r0, r3, r2, asr r5
    3de8:	190000c1 	stmdbne	r0, {r0, r6, r7}
    3dec:	03055101 	movweq	r5, #20737	; 0x5101
    3df0:	0000bc80 	andeq	fp, r0, r0, lsl #25
    3df4:	05500119 	ldrbeq	r0, [r0, #-281]	; 0x119
    3df8:	00b2bc03 	adcseq	fp, r2, r3, lsl #24
    3dfc:	7d021900 	stcvc	9, cr1, [r2, #-0]
    3e00:	b4030500 	strlt	r0, [r3], #-1280	; 0x500
    3e04:	000000c0 	andeq	r0, r0, r0, asr #1
    3e08:	009dc81a 	addseq	ip, sp, sl, lsl r8
    3e0c:	00158100 	andseq	r8, r5, r0, lsl #2
    3e10:	9ddc1b00 	vldrls	d17, [ip]
    3e14:	156b0000 	strbne	r0, [fp, #-0]!
    3e18:	01190000 	tsteq	r9, r0
    3e1c:	290a0353 	stmdbcs	sl, {r0, r1, r4, r6, r8, r9}
    3e20:	52011901 	andpl	r1, r1, #16384	; 0x4000
    3e24:	c1b00305 	lslsgt	r0, r5, #6
    3e28:	01190000 	tsteq	r9, r0
    3e2c:	80030551 	andhi	r0, r3, r1, asr r5
    3e30:	190000bc 	stmdbne	r0, {r2, r3, r4, r5, r7}
    3e34:	03055001 	movweq	r5, #20481	; 0x5001
    3e38:	0000c114 	andeq	ip, r0, r4, lsl r1
    3e3c:	12070000 	andne	r0, r7, #0
    3e40:	2e000007 	cdpcs	0, 0, cr0, cr0, cr7, {0}
    3e44:	000009b2 			; <UNDEFINED> instruction: 0x000009b2
    3e48:	fc012c01 	stc2	12, cr2, [r1], {1}
    3e4c:	7400009d 	strvc	r0, [r0], #-157	; 0x9d
    3e50:	01000000 	mrseq	r0, (UNDEF: 0)
    3e54:	00128a9c 	mulseq	r2, ip, sl
    3e58:	0f5d2f00 	svceq	0x005d2f00
    3e5c:	2c010000 	stccs	0, cr0, [r1], {-0}
    3e60:	00005d01 	andeq	r5, r0, r1, lsl #26
    3e64:	00115e00 	andseq	r5, r1, r0, lsl #28
    3e68:	00d31700 	sbcseq	r1, r3, r0, lsl #14
    3e6c:	128a0000 	addne	r0, sl, #0
    3e70:	03050000 	movweq	r0, #20480	; 0x5000
    3e74:	0000c1c0 	andeq	ip, r0, r0, asr #3
    3e78:	009e181a 	addseq	r1, lr, sl, lsl r8
    3e7c:	00156400 	andseq	r6, r5, r0, lsl #8
    3e80:	9e341800 	cdpls	8, 3, cr1, cr4, cr0, {0}
    3e84:	156b0000 	strbne	r0, [fp, #-0]!
    3e88:	125f0000 	subsne	r0, pc, #0
    3e8c:	01190000 	tsteq	r9, r0
    3e90:	2d0a0353 	stccs	3, cr0, [sl, #-332]	; 0xfffffeb4
    3e94:	52011901 	andpl	r1, r1, #16384	; 0x4000
    3e98:	c1c00305 	bicgt	r0, r0, r5, lsl #6
    3e9c:	01190000 	tsteq	r9, r0
    3ea0:	80030551 	andhi	r0, r3, r1, asr r5
    3ea4:	190000bc 	stmdbne	r0, {r2, r3, r4, r5, r7}
    3ea8:	03055001 	movweq	r5, #20481	; 0x5001
    3eac:	0000b2bc 			; <UNDEFINED> instruction: 0x0000b2bc
    3eb0:	007d0219 	rsbseq	r0, sp, r9, lsl r2
    3eb4:	c12c0305 	teqgt	ip, r5, lsl #6
    3eb8:	1a000000 	bne	3ec0 <__code_start__-0x4140>
    3ebc:	00009e38 	andeq	r9, r0, r8, lsr lr
    3ec0:	00001581 	andeq	r1, r0, r1, lsl #11
    3ec4:	009e501b 	addseq	r5, lr, fp, lsl r0
    3ec8:	0015d700 	andseq	sp, r5, r0, lsl #14
    3ecc:	53011900 	movwpl	r1, #6400	; 0x1900
    3ed0:	01193101 	tsteq	r9, r1, lsl #2
    3ed4:	01f30752 	mvnseq	r0, r2, asr r7
    3ed8:	80802350 	addhi	r2, r0, r0, asr r3
    3edc:	51011940 	tstpl	r1, r0, asr #18
    3ee0:	5001f303 	andpl	pc, r1, r3, lsl #6
    3ee4:	12070000 	andne	r0, r7, #0
    3ee8:	2e000007 	cdpcs	0, 0, cr0, cr0, cr7, {0}
    3eec:	00000015 	andeq	r0, r0, r5, lsl r0
    3ef0:	70013301 	andvc	r3, r1, r1, lsl #6
    3ef4:	7000009e 	mulvc	r0, lr, r0
    3ef8:	01000000 	mrseq	r0, (UNDEF: 0)
    3efc:	0013329c 	mulseq	r3, ip, r2
    3f00:	0f5d2f00 	svceq	0x005d2f00
    3f04:	33010000 	movwcc	r0, #4096	; 0x1000
    3f08:	00005d01 	andeq	r5, r0, r1, lsl #26
    3f0c:	0011ae00 	andseq	sl, r1, r0, lsl #28
    3f10:	00d31700 	sbcseq	r1, r3, r0, lsl #14
    3f14:	13320000 	teqne	r2, #0
    3f18:	03050000 	movweq	r0, #20480	; 0x5000
    3f1c:	0000c1d0 	ldrdeq	ip, [r0], -r0
    3f20:	009e8c1a 	addseq	r8, lr, sl, lsl ip
    3f24:	00156400 	andseq	r6, r5, r0, lsl #8
    3f28:	9ea81800 	cdpls	8, 10, cr1, cr8, cr0, {0}
    3f2c:	156b0000 	strbne	r0, [fp, #-0]!
    3f30:	13070000 	movwne	r0, #28672	; 0x7000
    3f34:	01190000 	tsteq	r9, r0
    3f38:	340a0353 	strcc	r0, [sl], #-851	; 0x353
    3f3c:	52011901 	andpl	r1, r1, #16384	; 0x4000
    3f40:	c1d00305 	bicsgt	r0, r0, r5, lsl #6
    3f44:	01190000 	tsteq	r9, r0
    3f48:	80030551 	andhi	r0, r3, r1, asr r5
    3f4c:	190000bc 	stmdbne	r0, {r2, r3, r4, r5, r7}
    3f50:	03055001 	movweq	r5, #20481	; 0x5001
    3f54:	0000b2bc 			; <UNDEFINED> instruction: 0x0000b2bc
    3f58:	007d0219 	rsbseq	r0, sp, r9, lsl r2
    3f5c:	c12c0305 	teqgt	ip, r5, lsl #6
    3f60:	1a000000 	bne	3f68 <__code_start__-0x4098>
    3f64:	00009eac 	andeq	r9, r0, ip, lsr #29
    3f68:	00001581 	andeq	r1, r0, r1, lsl #11
    3f6c:	009ec41b 	addseq	ip, lr, fp, lsl r4
    3f70:	0015d700 	andseq	sp, r5, r0, lsl #14
    3f74:	53011900 	movwpl	r1, #6400	; 0x1900
    3f78:	01193201 	tsteq	r9, r1, lsl #4
    3f7c:	01f30752 	mvnseq	r0, r2, asr r7
    3f80:	80802350 	addhi	r2, r0, r0, asr r3
    3f84:	51011940 	tstpl	r1, r0, asr #18
    3f88:	5001f303 	andpl	pc, r1, r3, lsl #6
    3f8c:	85070000 	strhi	r0, [r7, #-0]
    3f90:	2e000004 	cdpcs	0, 0, cr0, cr0, cr4, {0}
    3f94:	0000086d 	andeq	r0, r0, sp, ror #16
    3f98:	e0013a01 	and	r3, r1, r1, lsl #20
    3f9c:	2400009e 	strcs	r0, [r0], #-158	; 0x9e
    3fa0:	01000000 	mrseq	r0, (UNDEF: 0)
    3fa4:	0013819c 	mulseq	r3, ip, r1
    3fa8:	0f5d2f00 	svceq	0x005d2f00
    3fac:	3a010000 	bcc	43fb4 <__bss_end__+0x375ec>
    3fb0:	00005d01 	andeq	r5, r0, r1, lsl #26
    3fb4:	0011fe00 	andseq	pc, r1, r0, lsl #28
    3fb8:	00d33000 	sbcseq	r3, r3, r0
    3fbc:	13910000 	orrsne	r0, r1, #0
    3fc0:	fc1b0000 	ldc2	0, cr0, [fp], {-0}
    3fc4:	2400009e 	strcs	r0, [r0], #-158	; 0x9e
    3fc8:	19000016 	stmdbne	r0, {r1, r2, r4}
    3fcc:	31015201 	tstcc	r1, r1, lsl #4
    3fd0:	07510119 	smmlaeq	r1, r9, r1, r0
    3fd4:	445001f3 	ldrbmi	r0, [r0], #-499	; 0x1f3
    3fd8:	00244425 	eoreq	r4, r4, r5, lsr #8
    3fdc:	007f1c00 	rsbseq	r1, pc, r0, lsl #24
    3fe0:	13910000 	orrsne	r0, r1, #0
    3fe4:	761d0000 	ldrvc	r0, [sp], -r0
    3fe8:	12000000 	andne	r0, r0, #0
    3fec:	13810700 	orrne	r0, r1, #0, 14
    3ff0:	88310000 	ldmdahi	r1!, {}	; <UNPREDICTABLE>
    3ff4:	01000000 	mrseq	r0, (UNDEF: 0)
    3ff8:	002c0141 	eoreq	r0, ip, r1, asr #2
    3ffc:	9f040000 	svcls	0x00040000
    4000:	00180000 	andseq	r0, r8, r0
    4004:	9c010000 	stcls	0, cr0, [r1], {-0}
    4008:	000013c0 	andeq	r1, r0, r0, asr #7
    400c:	009f101b 	addseq	r1, pc, fp, lsl r0	; <UNPREDICTABLE>
    4010:	0004f300 	andeq	pc, r4, r0, lsl #6
    4014:	50011900 	andpl	r1, r1, r0, lsl #18
    4018:	00003201 	andeq	r3, r0, r1, lsl #4
    401c:	00081e2e 	andeq	r1, r8, lr, lsr #28
    4020:	01470100 	mrseq	r0, (UNDEF: 87)
    4024:	00009f1c 	andeq	r9, r0, ip, lsl pc
    4028:	00000060 	andeq	r0, r0, r0, rrx
    402c:	14539c01 	ldrbne	r9, [r3], #-3073	; 0xc01
    4030:	d3170000 	tstle	r7, #0
    4034:	63000000 	movwvs	r0, #0
    4038:	05000014 	streq	r0, [r0, #-20]
    403c:	00c1ec03 	sbceq	lr, r1, r3, lsl #24
    4040:	9f301800 	svcls	0x00301800
    4044:	06130000 	ldreq	r0, [r3], -r0
    4048:	13fd0000 	mvnsne	r0, #0
    404c:	01190000 	tsteq	r9, r0
    4050:	19310151 	ldmdbne	r1!, {r0, r4, r6, r8}
    4054:	32015001 	andcc	r5, r1, #1
    4058:	9f341a00 	svcls	0x00341a00
    405c:	13960000 	orrsne	r0, r6, #0
    4060:	401a0000 	andsmi	r0, sl, r0
    4064:	6400009f 	strvs	r0, [r0], #-159	; 0x9f
    4068:	18000015 	stmdane	r0, {r0, r2, r4}
    406c:	00009f5c 	andeq	r9, r0, ip, asr pc
    4070:	0000156b 	andeq	r1, r0, fp, ror #10
    4074:	00001449 	andeq	r1, r0, r9, asr #8
    4078:	03530119 	cmpeq	r3, #1073741830	; 0x40000006
    407c:	1901490a 	stmdbne	r1, {r1, r3, r8, fp, lr}
    4080:	03055201 	movweq	r5, #20993	; 0x5201
    4084:	0000c1ec 	andeq	ip, r0, ip, ror #3
    4088:	05510119 	ldrbeq	r0, [r1, #-281]	; 0x119
    408c:	00bc8003 	adcseq	r8, ip, r3
    4090:	50011900 	andpl	r1, r1, r0, lsl #18
    4094:	b2bc0305 	adcslt	r0, ip, #335544320	; 0x14000000
    4098:	02190000 	andseq	r0, r9, #0
    409c:	0305007d 	movweq	r0, #20605	; 0x507d
    40a0:	0000b2e4 	andeq	fp, r0, r4, ror #5
    40a4:	9f601a00 	svcls	0x00601a00
    40a8:	15810000 	strne	r0, [r1]
    40ac:	1c000000 	stcne	0, cr0, [r0], {-0}
    40b0:	0000007f 	andeq	r0, r0, pc, ror r0
    40b4:	00001463 	andeq	r1, r0, r3, ror #8
    40b8:	0000761d 	andeq	r7, r0, sp, lsl r6
    40bc:	07001500 	streq	r1, [r0, -r0, lsl #10]
    40c0:	00001453 	andeq	r1, r0, r3, asr r4
    40c4:	0000be2e 	andeq	fp, r0, lr, lsr #28
    40c8:	014b0100 	mrseq	r0, (UNDEF: 91)
    40cc:	00009f7c 	andeq	r9, r0, ip, ror pc
    40d0:	00000060 	andeq	r0, r0, r0, rrx
    40d4:	14fb9c01 	ldrbtne	r9, [fp], #3073	; 0xc01
    40d8:	d3170000 	tstle	r7, #0
    40dc:	0b000000 	bleq	40e4 <__code_start__-0x3f1c>
    40e0:	05000015 	streq	r0, [r0, #-21]
    40e4:	00c21403 	sbceq	r1, r2, r3, lsl #8
    40e8:	9f901800 	svcls	0x00901800
    40ec:	06130000 	ldreq	r0, [r3], -r0
    40f0:	14a50000 	strtne	r0, [r5], #0
    40f4:	01190000 	tsteq	r9, r0
    40f8:	19300151 	ldmdbne	r0!, {r0, r4, r6, r8}
    40fc:	32015001 	andcc	r5, r1, #1
    4100:	9f941a00 	svcls	0x00941a00
    4104:	13960000 	orrsne	r0, r6, #0
    4108:	a01a0000 	andsge	r0, sl, r0
    410c:	6400009f 	strvs	r0, [r0], #-159	; 0x9f
    4110:	18000015 	stmdane	r0, {r0, r2, r4}
    4114:	00009fbc 			; <UNDEFINED> instruction: 0x00009fbc
    4118:	0000156b 	andeq	r1, r0, fp, ror #10
    411c:	000014f1 	strdeq	r1, [r0], -r1	; <UNPREDICTABLE>
    4120:	03530119 	cmpeq	r3, #1073741830	; 0x40000006
    4124:	19014d0a 	stmdbne	r1, {r1, r3, r8, sl, fp, lr}
    4128:	03055201 	movweq	r5, #20993	; 0x5201
    412c:	0000c214 	andeq	ip, r0, r4, lsl r2
    4130:	05510119 	ldrbeq	r0, [r1, #-281]	; 0x119
    4134:	00bc8003 	adcseq	r8, ip, r3
    4138:	50011900 	andpl	r1, r1, r0, lsl #18
    413c:	b2bc0305 	adcslt	r0, ip, #335544320	; 0x14000000
    4140:	02190000 	andseq	r0, r9, #0
    4144:	0305007d 	movweq	r0, #20605	; 0x507d
    4148:	0000c144 	andeq	ip, r0, r4, asr #2
    414c:	9fc01a00 	svcls	0x00c01a00
    4150:	15810000 	strne	r0, [r1]
    4154:	1c000000 	stcne	0, cr0, [r0], {-0}
    4158:	0000007f 	andeq	r0, r0, pc, ror r0
    415c:	0000150b 	andeq	r1, r0, fp, lsl #10
    4160:	0000761d 	andeq	r7, r0, sp, lsl r6
    4164:	07001400 	streq	r1, [r0, -r0, lsl #8]
    4168:	000014fb 	strdeq	r1, [r0], -fp
    416c:	0009ac2a 	andeq	sl, r9, sl, lsr #24
    4170:	21180100 	tstcs	r8, r0, lsl #2
    4174:	05000015 	streq	r0, [r0, #-21]
    4178:	00c5ac03 	sbceq	sl, r5, r3, lsl #24
    417c:	67040600 	strvs	r0, [r4, -r0, lsl #12]
    4180:	2a000001 	bcs	418c <__code_start__-0x3e74>
    4184:	000007f4 	strdeq	r0, [r0], -r4
    4188:	01c01d01 	biceq	r1, r0, r1, lsl #26
    418c:	03050000 	movweq	r0, #20480	; 0x5000
    4190:	0000c5b0 			; <UNDEFINED> instruction: 0x0000c5b0
    4194:	0007e72a 	andeq	lr, r7, sl, lsr #14
    4198:	2c520100 	ldfcse	f0, [r2], {-0}
    419c:	05000000 	streq	r0, [r0, #-0]
    41a0:	00c5bc03 	sbceq	fp, r5, r3, lsl #24
    41a4:	74701600 	ldrbtvc	r1, [r0], #-1536	; 0x600
    41a8:	21ee0100 	mvncs	r0, r0, lsl #2
    41ac:	05000015 	streq	r0, [r0, #-21]
    41b0:	00c5c003 	sbceq	ip, r5, r3
    41b4:	09043200 	stmdbeq	r4, {r9, ip, sp}
    41b8:	c2030000 	andgt	r0, r3, #0
    41bc:	00000025 	andeq	r0, r0, r5, lsr #32
    41c0:	00024833 	andeq	r4, r2, r3, lsr r8
    41c4:	341e0700 	ldrcc	r0, [lr], #-1792	; 0x700
    41c8:	00000a9e 	muleq	r0, lr, sl
    41cc:	00252907 	eoreq	r2, r5, r7, lsl #18
    41d0:	15810000 	strne	r0, [r1]
    41d4:	86350000 	ldrthi	r0, [r5], -r0
    41d8:	36000000 	strcc	r0, [r0], -r0
    41dc:	007b3300 	rsbseq	r3, fp, r0, lsl #6
    41e0:	65070000 	strvs	r0, [r7, #-0]
    41e4:	00055637 	andeq	r5, r5, r7, lsr r6
    41e8:	5d6e0800 	stclpl	8, cr0, [lr, #-0]
    41ec:	38000000 	stmdacc	r0, {}	; <UNPREDICTABLE>
    41f0:	00000339 	andeq	r0, r0, r9, lsr r3
    41f4:	15a44808 	strne	r4, [r4, #2056]!	; 0x808
    41f8:	2c350000 	ldccs	0, cr0, [r5], #-0
    41fc:	00000000 	andeq	r0, r0, r0
    4200:	00042f33 	andeq	r2, r4, r3, lsr pc
    4204:	333b0800 	teqcc	fp, #0, 16
    4208:	000004b5 			; <UNDEFINED> instruction: 0x000004b5
    420c:	4b370d08 	blmi	dc7634 <__bss_end__+0xdbac6c>
    4210:	08000001 	stmdaeq	r0, {r0}
    4214:	0000256c 	andeq	r2, r0, ip, ror #10
    4218:	04be3400 	ldrteq	r3, [lr], #1024	; 0x400
    421c:	21080000 	mrscs	r0, (UNDEF: 8)
    4220:	00001521 	andeq	r1, r0, r1, lsr #10
    4224:	000015d7 	ldrdeq	r1, [r0], -r7
    4228:	00007d35 	andeq	r7, r0, r5, lsr sp
    422c:	002c3500 	eoreq	r3, ip, r0, lsl #10
    4230:	34000000 	strcc	r0, [r0], #-0
    4234:	0000041f 	andeq	r0, r0, pc, lsl r4
    4238:	15212508 	strne	r2, [r1, #-1288]!	; 0x508
    423c:	15fb0000 	ldrbne	r0, [fp, #0]!
    4240:	21350000 	teqcs	r5, r0
    4244:	35000015 	strcc	r0, [r0, #-21]
    4248:	0000005d 	andeq	r0, r0, sp, asr r0
    424c:	00005d35 	andeq	r5, r0, r5, lsr sp
    4250:	005d3500 	subseq	r3, sp, r0, lsl #10
    4254:	33000000 	movwcc	r0, #0
    4258:	00000580 	andeq	r0, r0, r0, lsl #11
    425c:	f0380f08 			; <UNDEFINED> instruction: 0xf0380f08
    4260:	08000002 	stmdaeq	r0, {r1}
    4264:	00161d45 	andseq	r1, r6, r5, asr #26
    4268:	002c3500 	eoreq	r3, ip, r0, lsl #10
    426c:	2c350000 	ldccs	0, cr0, [r5], #-0
    4270:	35000000 	strcc	r0, [r0, #-0]
    4274:	00001521 	andeq	r1, r0, r1, lsr #10
    4278:	05203300 	streq	r3, [r0, #-768]!	; 0x300
    427c:	3a080000 	bcc	204284 <__bss_end__+0x1f78bc>
    4280:	00061239 	andeq	r1, r6, r9, lsr r2
    4284:	35330800 	ldrcc	r0, [r3, #-2048]!	; 0x800
    4288:	00001521 	andeq	r1, r0, r1, lsr #10
    428c:	00002c35 	andeq	r2, r0, r5, lsr ip
    4290:	002c3500 	eoreq	r3, ip, r0, lsl #10
    4294:	00000000 	andeq	r0, r0, r0
    4298:	00000112 	andeq	r0, r0, r2, lsl r1
    429c:	09230004 	stmdbeq	r3!, {r2}
    42a0:	01040000 	mrseq	r0, (UNDEF: 4)
    42a4:	000009cb 	andeq	r0, r0, fp, asr #19
    42a8:	0009bf01 	andeq	fp, r9, r1, lsl #30
    42ac:	000a2a00 	andeq	r2, sl, r0, lsl #20
    42b0:	00a37000 	adceq	r7, r3, r0
    42b4:	0000f000 	andeq	pc, r0, r0
    42b8:	00090f00 	andeq	r0, r9, r0, lsl #30
    42bc:	05040200 	streq	r0, [r4, #-512]	; 0x200
    42c0:	00746e69 	rsbseq	r6, r4, r9, ror #28
    42c4:	df070403 	svcle	0x00070403
    42c8:	03000001 	movweq	r0, #1
    42cc:	006f0601 	rsbeq	r0, pc, r1, lsl #12
    42d0:	02030000 	andeq	r0, r3, #0
    42d4:	00023505 	andeq	r3, r2, r5, lsl #10
    42d8:	05040300 	streq	r0, [r4, #-768]	; 0x300
    42dc:	0000020e 	andeq	r0, r0, lr, lsl #4
    42e0:	09050803 	stmdbeq	r5, {r0, r1, fp}
    42e4:	04000002 	streq	r0, [r0], #-2
    42e8:	00000a22 	andeq	r0, r0, r2, lsr #20
    42ec:	005a2e02 	subseq	r2, sl, r2, lsl #28
    42f0:	01030000 	mrseq	r0, (UNDEF: 3)
    42f4:	00006d08 	andeq	r6, r0, r8, lsl #26
    42f8:	07020300 	streq	r0, [r2, -r0, lsl #6]
    42fc:	00000024 	andeq	r0, r0, r4, lsr #32
    4300:	00023f04 	andeq	r3, r2, r4, lsl #30
    4304:	73340200 	teqvc	r4, #0, 4
    4308:	03000000 	movweq	r0, #0
    430c:	01da0704 	bicseq	r0, sl, r4, lsl #14
    4310:	08030000 	stmdaeq	r3, {}	; <UNPREDICTABLE>
    4314:	0001d507 	andeq	sp, r1, r7, lsl #10
    4318:	07040300 	streq	r0, [r4, -r0, lsl #6]
    431c:	00000200 	andeq	r0, r0, r0, lsl #4
    4320:	76080103 	strvc	r0, [r8], -r3, lsl #2
    4324:	05000000 	streq	r0, [r0, #-0]
    4328:	00009504 	andeq	r9, r0, r4, lsl #10
    432c:	00880600 	addeq	r0, r8, r0, lsl #12
    4330:	52070000 	andpl	r0, r7, #0
    4334:	01000006 	tsteq	r0, r6
    4338:	0000680f 	andeq	r6, r0, pc, lsl #16
    433c:	00a37000 	adceq	r7, r3, r0
    4340:	0000f000 	andeq	pc, r0, r0
    4344:	0e9c0100 	fmleqe	f0, f4, f0
    4348:	08000001 	stmdaeq	r0, {r0}
    434c:	00001375 	andeq	r1, r0, r5, ror r3
    4350:	010e0f01 	tsteq	lr, r1, lsl #30
    4354:	123d0000 	eorsne	r0, sp, #0
    4358:	6c090000 	stcvs	0, cr0, [r9], {-0}
    435c:	01006e65 	tsteq	r0, r5, ror #28
    4360:	0000250f 	andeq	r2, r0, pc, lsl #10
    4364:	00127700 	andseq	r7, r2, r0, lsl #14
    4368:	13760a00 	cmnne	r6, #0, 20
    436c:	10010000 	andne	r0, r1, r0
    4370:	0000008f 	andeq	r0, r0, pc, lsl #1
    4374:	000012b6 			; <UNDEFINED> instruction: 0x000012b6
    4378:	0006570a 	andeq	r5, r6, sl, lsl #14
    437c:	68110100 	ldmdavs	r1, {r8}
    4380:	f5000000 			; <UNDEFINED> instruction: 0xf5000000
    4384:	0b000012 	bleq	43d4 <__code_start__-0x3c2c>
    4388:	00706d74 	rsbseq	r6, r0, r4, ror sp
    438c:	00681101 	rsbeq	r1, r8, r1, lsl #2
    4390:	133f0000 	teqne	pc, #0
    4394:	720b0000 	andvc	r0, fp, #0
    4398:	01006d65 	tsteq	r0, r5, ror #26
    439c:	00002512 	andeq	r2, r0, r2, lsl r5
    43a0:	00138a00 	andseq	r8, r3, r0, lsl #20
    43a4:	04050000 	streq	r0, [r5], #-0
    43a8:	00000114 	andeq	r0, r0, r4, lsl r1
    43ac:	00db000c 	sbcseq	r0, fp, ip
    43b0:	00040000 	andeq	r0, r4, r0
    43b4:	000009c7 	andeq	r0, r0, r7, asr #19
    43b8:	09cb0104 	stmibeq	fp, {r2, r8}^
    43bc:	70010000 	andvc	r0, r1, r0
    43c0:	2a00000a 	bcs	43f0 <__code_start__-0x3c10>
    43c4:	6000000a 	andvs	r0, r0, sl
    43c8:	200000a4 	andcs	r0, r0, r4, lsr #1
    43cc:	f1000000 	cps	#0
    43d0:	02000009 	andeq	r0, r0, #9
    43d4:	006f0601 	rsbeq	r0, pc, r1, lsl #12
    43d8:	01020000 	mrseq	r0, (UNDEF: 2)
    43dc:	00006d08 	andeq	r6, r0, r8, lsl #26
    43e0:	05020200 	streq	r0, [r2, #-512]	; 0x200
    43e4:	00000235 	andeq	r0, r0, r5, lsr r2
    43e8:	24070202 	strcs	r0, [r7], #-514	; 0x202
    43ec:	03000000 	movweq	r0, #0
    43f0:	6e690504 	cdpvs	5, 6, cr0, cr9, cr4, {0}
    43f4:	04020074 	streq	r0, [r2], #-116	; 0x74
    43f8:	0001df07 	andeq	sp, r1, r7, lsl #30
    43fc:	05080200 	streq	r0, [r8, #-512]	; 0x200
    4400:	00000209 	andeq	r0, r0, r9, lsl #4
    4404:	d5070802 	strle	r0, [r7, #-2050]	; 0x802
    4408:	02000001 	andeq	r0, r0, #1
    440c:	020e0504 	andeq	r0, lr, #4, 10	; 0x1000000
    4410:	04020000 	streq	r0, [r2], #-0
    4414:	00020007 	andeq	r0, r2, r7
    4418:	02040400 	andeq	r0, r4, #0, 8
    441c:	01da0704 	bicseq	r0, sl, r4, lsl #14
    4420:	04050000 	streq	r0, [r5], #-0
    4424:	0000007a 	andeq	r0, r0, sl, ror r0
    4428:	76080102 	strvc	r0, [r8], -r2, lsl #2
    442c:	06000000 	streq	r0, [r0], -r0
    4430:	0000028e 	andeq	r0, r0, lr, lsl #5
    4434:	0048d402 	subeq	sp, r8, r2, lsl #8
    4438:	45070000 	strmi	r0, [r7, #-0]
    443c:	03000005 	movweq	r0, #5
    4440:	00006b1b 	andeq	r6, r0, fp, lsl fp
    4444:	00a46000 	adceq	r6, r4, r0
    4448:	00002000 	andeq	r2, r0, r0
    444c:	089c0100 	ldmeq	ip, {r8}
    4450:	0100705f 	qaddeq	r7, pc, r0	; <UNPREDICTABLE>
    4454:	00006b03 	andeq	r6, r0, r3, lsl #22
    4458:	08500100 	ldmdaeq	r0, {r8}^
    445c:	03010063 	movweq	r0, #4195	; 0x1063
    4460:	00000041 	andeq	r0, r0, r1, asr #32
    4464:	6e095101 	adfvse	f5, f1, f1
    4468:	81030100 	mrshi	r0, (UNDEF: 19)
    446c:	9d000000 	stcls	0, cr0, [r0, #-0]
    4470:	0a000013 	beq	44c4 <__code_start__-0x3b3c>
    4474:	04010070 	streq	r0, [r1], #-112	; 0x70
    4478:	00000074 	andeq	r0, r0, r4, ror r0
    447c:	000013be 			; <UNDEFINED> instruction: 0x000013be
    4480:	0100650b 	tsteq	r0, fp, lsl #10
    4484:	00007404 	andeq	r7, r0, r4, lsl #8
    4488:	00520100 	subseq	r0, r2, r0, lsl #2
    448c:	00019100 	andeq	r9, r1, r0, lsl #2
    4490:	64000400 	strvs	r0, [r0], #-1024	; 0x400
    4494:	0400000a 	streq	r0, [r0], #-10
    4498:	0009cb01 	andeq	ip, r9, r1, lsl #22
    449c:	0a8d0100 	beq	fe3448a4 <__bss_end__+0xfe337edc>
    44a0:	0a2a0000 	beq	a844a8 <__bss_end__+0xa77ae0>
    44a4:	a4800000 	strge	r0, [r0], #0
    44a8:	00580000 	subseq	r0, r8, r0
    44ac:	0ae10000 	beq	ff8444b4 <__bss_end__+0xff837aec>
    44b0:	7e020000 	cdpvc	0, 0, cr0, cr2, cr0, {0}
    44b4:	0200000a 	andeq	r0, r0, #10
    44b8:	00003028 	andeq	r3, r0, r8, lsr #32
    44bc:	0aa50300 	beq	fe9450c4 <__bss_end__+0xfe9386fc>
    44c0:	03040000 	movweq	r0, #16384	; 0x4000
    44c4:	00004700 	andeq	r4, r0, r0, lsl #14
    44c8:	0aaf0400 	beq	febc54d0 <__bss_end__+0xfebb8b08>
    44cc:	00470000 	subeq	r0, r7, r0
    44d0:	00000000 	andeq	r0, r0, r0
    44d4:	a7020405 	strge	r0, [r2, -r5, lsl #8]
    44d8:	0200000a 	andeq	r0, r0, #10
    44dc:	00002562 	andeq	r2, r0, r2, ror #10
    44e0:	05040600 	streq	r0, [r4, #-1536]	; 0x600
    44e4:	00746e69 	rsbseq	r6, r4, r9, ror #28
    44e8:	df070407 	svcle	0x00070407
    44ec:	07000001 	streq	r0, [r0, -r1]
    44f0:	006f0601 	rsbeq	r0, pc, r1, lsl #12
    44f4:	02070000 	andeq	r0, r7, #0
    44f8:	00023505 	andeq	r3, r2, r5, lsl #10
    44fc:	05040700 	streq	r0, [r4, #-1792]	; 0x700
    4500:	0000020e 	andeq	r0, r0, lr, lsl #4
    4504:	09050807 	stmdbeq	r5, {r0, r1, r2, fp}
    4508:	07000002 	streq	r0, [r0, -r2]
    450c:	006d0801 	rsbeq	r0, sp, r1, lsl #16
    4510:	02070000 	andeq	r0, r7, #0
    4514:	00002407 	andeq	r2, r0, r7, lsl #8
    4518:	07040700 	streq	r0, [r4, -r0, lsl #14]
    451c:	000001da 	ldrdeq	r0, [r0], -sl
    4520:	d5070807 	strle	r0, [r7, #-2055]	; 0x807
    4524:	07000001 	streq	r0, [r0, -r1]
    4528:	02000704 	andeq	r0, r0, #4, 14	; 0x100000
    452c:	04080000 	streq	r0, [r8], #-0
    4530:	000000a7 	andeq	r0, r0, r7, lsr #1
    4534:	76080107 	strvc	r0, [r8], -r7, lsl #2
    4538:	08000000 	stmdaeq	r0, {}	; <UNPREDICTABLE>
    453c:	0000b404 	andeq	fp, r0, r4, lsl #8
    4540:	00a70900 	adceq	r0, r7, r0, lsl #18
    4544:	9e0a0000 	cdpls	0, 0, cr0, cr10, cr0, {0}
    4548:	0100000a 	tsteq	r0, sl
    454c:	00005406 	andeq	r5, r0, r6, lsl #8
    4550:	00a48000 	adceq	r8, r4, r0
    4554:	00005800 	andeq	r5, r0, r0, lsl #16
    4558:	439c0100 	orrsmi	r0, ip, #0, 2
    455c:	0b000001 	bleq	4568 <__code_start__-0x3a98>
    4560:	00746d66 	rsbseq	r6, r4, r6, ror #26
    4564:	00ae0601 	adceq	r0, lr, r1, lsl #12
    4568:	91020000 	mrsls	r0, (UNDEF: 2)
    456c:	620d0c70 	andvs	r0, sp, #112, 24	; 0x7000
    4570:	01006675 	tsteq	r0, r5, ror r6
    4574:	00014308 	andeq	r4, r1, r8, lsl #6
    4578:	c4030500 	strgt	r0, [r3], #-1280	; 0x500
    457c:	0e0000c5 	cdpeq	0, 0, cr0, cr0, cr5, {6}
    4580:	00000f7f 	andeq	r0, r0, pc, ror pc
    4584:	00490901 	subeq	r0, r9, r1, lsl #18
    4588:	91020000 	mrsls	r0, (UNDEF: 2)
    458c:	7a730f5c 	bvc	1cc8304 <__bss_end__+0x1cbb93c>
    4590:	540c0100 	strpl	r0, [ip], #-256	; 0x100
    4594:	e9000000 	stmdb	r0, {}	; <UNPREDICTABLE>
    4598:	10000013 	andne	r0, r0, r3, lsl r0
    459c:	0000a4a8 	andeq	sl, r0, r8, lsr #9
    45a0:	00000174 	andeq	r0, r0, r4, ror r1
    45a4:	00000136 	andeq	r0, r0, r6, lsr r1
    45a8:	02530111 	subseq	r0, r3, #1073741828	; 0x40000004
    45ac:	01114c91 			; <UNDEFINED> instruction: 0x01114c91
    45b0:	48910352 	ldmmi	r1, {r1, r4, r6, r8, r9}
    45b4:	51011106 	tstpl	r1, r6, lsl #2
    45b8:	04000a03 	streq	r0, [r0], #-2563	; 0xa03
    45bc:	02500111 	subseq	r0, r0, #1073741828	; 0x40000004
    45c0:	12000074 	andne	r0, r0, #116	; 0x74
    45c4:	0000a4bc 			; <UNDEFINED> instruction: 0x0000a4bc
    45c8:	02500111 	subseq	r0, r0, #1073741828	; 0x40000004
    45cc:	00000074 	andeq	r0, r0, r4, ror r0
    45d0:	0000a713 	andeq	sl, r0, r3, lsl r7
    45d4:	00015400 	andeq	r5, r1, r0, lsl #8
    45d8:	009a1400 	addseq	r1, sl, r0, lsl #8
    45dc:	03ff0000 	mvnseq	r0, #0
    45e0:	00541500 	subseq	r1, r4, r0, lsl #10
    45e4:	01630000 	cmneq	r3, r0
    45e8:	ae160000 	cdpge	0, 1, cr0, cr6, cr0, {0}
    45ec:	00000000 	andeq	r0, r0, r0
    45f0:	000b0c17 	andeq	r0, fp, r7, lsl ip
    45f4:	6e220400 	cdpvs	4, 2, cr0, cr2, cr0, {0}
    45f8:	08000001 	stmdaeq	r0, {r0}
    45fc:	00015404 	andeq	r5, r1, r4, lsl #8
    4600:	0a9b1800 	beq	fe6ca608 <__bss_end__+0xfe6bdc40>
    4604:	02050000 	andeq	r0, r5, #0
    4608:	00000054 	andeq	r0, r0, r4, asr r0
    460c:	0000a116 	andeq	sl, r0, r6, lsl r1
    4610:	00541600 	subseq	r1, r4, r0, lsl #12
    4614:	ae160000 	cdpge	0, 1, cr0, cr6, cr0, {0}
    4618:	16000000 	strne	r0, [r0], -r0
    461c:	00000049 	andeq	r0, r0, r9, asr #32
    4620:	01130000 	tsteq	r3, r0
    4624:	00040000 	andeq	r0, r4, r0
    4628:	00000b95 	muleq	r0, r5, fp
    462c:	09cb0104 	stmibeq	fp, {r2, r8}^
    4630:	db010000 	blle	44638 <__bss_end__+0x37c70>
    4634:	2a00000a 	bcs	4664 <__code_start__-0x399c>
    4638:	d800000a 	stmdale	r0, {r1, r3}
    463c:	3c0000a4 	stccc	0, cr0, [r0], {164}	; 0xa4
    4640:	f1000000 	cps	#0
    4644:	0200000b 	andeq	r0, r0, #11
    4648:	6e690504 	cdpvs	5, 6, cr0, cr9, cr4, {0}
    464c:	04030074 	streq	r0, [r3], #-116	; 0x74
    4650:	0001df07 	andeq	sp, r1, r7, lsl #30
    4654:	06010300 	streq	r0, [r1], -r0, lsl #6
    4658:	0000006f 	andeq	r0, r0, pc, rrx
    465c:	35050203 	strcc	r0, [r5, #-515]	; 0x203
    4660:	03000002 	movweq	r0, #2
    4664:	020e0504 	andeq	r0, lr, #4, 10	; 0x1000000
    4668:	08030000 	stmdaeq	r3, {}	; <UNPREDICTABLE>
    466c:	00020905 	andeq	r0, r2, r5, lsl #18
    4670:	08010300 	stmdaeq	r1, {r8, r9}
    4674:	0000006d 	andeq	r0, r0, sp, rrx
    4678:	24070203 	strcs	r0, [r7], #-515	; 0x203
    467c:	03000000 	movweq	r0, #0
    4680:	01da0704 	bicseq	r0, sl, r4, lsl #14
    4684:	08030000 	stmdaeq	r3, {}	; <UNPREDICTABLE>
    4688:	0001d507 	andeq	sp, r1, r7, lsl #10
    468c:	07040300 	streq	r0, [r4, -r0, lsl #6]
    4690:	00000200 	andeq	r0, r0, r0, lsl #4
    4694:	76080103 	strvc	r0, [r8], -r3, lsl #2
    4698:	04000000 	streq	r0, [r0], #-0
    469c:	00000abe 			; <UNDEFINED> instruction: 0x00000abe
    46a0:	00250301 	eoreq	r0, r5, r1, lsl #6
    46a4:	a4d80000 	ldrbge	r0, [r8], #0
    46a8:	00140000 	andseq	r0, r4, r0
    46ac:	9c010000 	stcls	0, cr0, [r1], {-0}
    46b0:	000000b0 	strheq	r0, [r0], -r0	; <UNPREDICTABLE>
    46b4:	01006305 	tsteq	r0, r5, lsl #6
    46b8:	00002503 	andeq	r2, r0, r3, lsl #10
    46bc:	00141200 	andseq	r1, r4, r0, lsl #4
    46c0:	a4e40600 	strbtge	r0, [r4], #1536	; 0x600
    46c4:	01090000 	mrseq	r0, (UNDEF: 9)
    46c8:	01070000 	mrseq	r0, (UNDEF: 7)
    46cc:	00740250 	rsbseq	r0, r4, r0, asr r2
    46d0:	48080000 	stmdami	r8, {}	; <UNPREDICTABLE>
    46d4:	01000002 	tsteq	r0, r2
    46d8:	00a4ec08 	adceq	lr, r4, r8, lsl #24
    46dc:	00001800 	andeq	r1, r0, r0, lsl #16
    46e0:	099c0100 	ldmibeq	ip, {r8}
    46e4:	00000aea 	andeq	r0, r0, sl, ror #21
    46e8:	a5040b01 	strge	r0, [r4, #-2817]	; 0xb01
    46ec:	00100000 	andseq	r0, r0, r0
    46f0:	9c010000 	stcls	0, cr0, [r1], {-0}
    46f4:	000000e3 	andeq	r0, r0, r3, ror #1
    46f8:	0070660a 	rsbseq	r6, r0, sl, lsl #12
    46fc:	00f20b01 	rscseq	r0, r2, r1, lsl #22
    4700:	50010000 	andpl	r0, r1, r0
    4704:	00250b00 	eoreq	r0, r5, r0, lsl #22
    4708:	00f20000 	rscseq	r0, r2, r0
    470c:	250c0000 	strcs	r0, [ip, #-0]
    4710:	00000000 	andeq	r0, r0, r0
    4714:	00e3040d 	rsceq	r0, r3, sp, lsl #8
    4718:	cf0e0000 	svcgt	0x000e0000
    471c:	0100000a 	tsteq	r0, sl
    4720:	0000f206 	andeq	pc, r0, r6, lsl #4
    4724:	48030500 	stmdami	r3, {r8, sl}
    4728:	0f0000b2 	svceq	0x000000b2
    472c:	00000ab4 			; <UNDEFINED> instruction: 0x00000ab4
    4730:	2c0c3c02 	stccs	12, cr3, [ip], {2}
    4734:	00000000 	andeq	r0, r0, r0
    4738:	0000ee00 	andeq	lr, r0, r0, lsl #28
    473c:	7d000400 	cfstrsvc	mvf0, [r0, #-0]
    4740:	0400000c 	streq	r0, [r0], #-12
    4744:	0009cb01 	andeq	ip, r9, r1, lsl #22
    4748:	0af70100 	beq	ffdc4b50 <__bss_end__+0xffdb8188>
    474c:	0a2a0000 	beq	a84754 <__bss_end__+0xa77d8c>
    4750:	a5140000 	ldrge	r0, [r4, #-0]
    4754:	00340000 	eorseq	r0, r4, r0
    4758:	0c890000 	stceq	0, cr0, [r9], {0}
    475c:	04020000 	streq	r0, [r2], #-0
    4760:	746e6905 	strbtvc	r6, [lr], #-2309	; 0x905
    4764:	07040300 	streq	r0, [r4, -r0, lsl #6]
    4768:	000001df 	ldrdeq	r0, [r0], -pc	; <UNPREDICTABLE>
    476c:	6f060103 	svcvs	0x00060103
    4770:	03000000 	movweq	r0, #0
    4774:	02350502 	eorseq	r0, r5, #8388608	; 0x800000
    4778:	04030000 	streq	r0, [r3], #-0
    477c:	00020e05 	andeq	r0, r2, r5, lsl #28
    4780:	05080300 	streq	r0, [r8, #-768]	; 0x300
    4784:	00000209 	andeq	r0, r0, r9, lsl #4
    4788:	6d080103 	stfvss	f0, [r8, #-12]
    478c:	03000000 	movweq	r0, #0
    4790:	00240702 	eoreq	r0, r4, r2, lsl #14
    4794:	04030000 	streq	r0, [r3], #-0
    4798:	0001da07 	andeq	sp, r1, r7, lsl #20
    479c:	07080300 	streq	r0, [r8, -r0, lsl #6]
    47a0:	000001d5 	ldrdeq	r0, [r0], -r5
    47a4:	00070403 	andeq	r0, r7, r3, lsl #8
    47a8:	03000002 	movweq	r0, #2
    47ac:	00760801 	rsbseq	r0, r6, r1, lsl #16
    47b0:	04040000 	streq	r0, [r4], #-0
    47b4:	0000007f 	andeq	r0, r0, pc, ror r0
    47b8:	00007205 	andeq	r7, r0, r5, lsl #4
    47bc:	0b030600 	bleq	c5fc4 <__bss_end__+0xb95fc>
    47c0:	04010000 	streq	r0, [r1], #-0
    47c4:	00000025 	andeq	r0, r0, r5, lsr #32
    47c8:	0000a514 	andeq	sl, r0, r4, lsl r5
    47cc:	00000034 	andeq	r0, r0, r4, lsr r0
    47d0:	00ab9c01 	adceq	r9, fp, r1, lsl #24
    47d4:	70070000 	andvc	r0, r7, r0
    47d8:	79040100 	stmdbvc	r4, {r8}
    47dc:	30000000 	andcc	r0, r0, r0
    47e0:	00000014 	andeq	r0, r0, r4, lsl r0
    47e4:	00002508 	andeq	r2, r0, r8, lsl #10
    47e8:	0000ba00 	andeq	fp, r0, r0, lsl #20
    47ec:	00250900 	eoreq	r0, r5, r0, lsl #18
    47f0:	0a000000 	beq	47f8 <__code_start__-0x3808>
    47f4:	00000acf 	andeq	r0, r0, pc, asr #21
    47f8:	00c51d02 	sbceq	r1, r5, r2, lsl #26
    47fc:	04040000 	streq	r0, [r4], #-0
    4800:	000000ab 	andeq	r0, r0, fp, lsr #1
    4804:	00002508 	andeq	r2, r0, r8, lsl #10
    4808:	0000da00 	andeq	sp, r0, r0, lsl #20
    480c:	00790900 	rsbseq	r0, r9, r0, lsl #18
    4810:	0b000000 	bleq	4818 <__code_start__-0x37e8>
    4814:	00000b0c 	andeq	r0, r0, ip, lsl #22
    4818:	00eb0c01 	rsceq	r0, fp, r1, lsl #24
    481c:	03050000 	movweq	r0, #20480	; 0x5000
    4820:	0000b24c 	andeq	fp, r0, ip, asr #4
    4824:	00cb0404 	sbceq	r0, fp, r4, lsl #8
    4828:	e5000000 	str	r0, [r0, #-0]
    482c:	04000006 	streq	r0, [r0], #-6
    4830:	000d1600 	andeq	r1, sp, r0, lsl #12
    4834:	cb010400 	blgt	4583c <__bss_end__+0x38e74>
    4838:	01000009 	tsteq	r0, r9
    483c:	00000b42 	andeq	r0, r0, r2, asr #22
    4840:	00000a2a 	andeq	r0, r0, sl, lsr #20
    4844:	0000a548 	andeq	sl, r0, r8, asr #10
    4848:	00000578 	andeq	r0, r0, r8, ror r5
    484c:	00000d2d 	andeq	r0, r0, sp, lsr #26
    4850:	69050402 	stmdbvs	r5, {r1, sl}
    4854:	0300746e 	movweq	r7, #1134	; 0x46e
    4858:	01df0704 	bicseq	r0, pc, r4, lsl #14
    485c:	01030000 	mrseq	r0, (UNDEF: 3)
    4860:	00006f06 	andeq	r6, r0, r6, lsl #30
    4864:	05020300 	streq	r0, [r2, #-768]	; 0x300
    4868:	00000235 	andeq	r0, r0, r5, lsr r2
    486c:	0e050403 	cdpeq	4, 0, cr0, cr5, cr3, {0}
    4870:	03000002 	movweq	r0, #2
    4874:	02090508 	andeq	r0, r9, #8, 10	; 0x2000000
    4878:	01030000 	mrseq	r0, (UNDEF: 3)
    487c:	00006d08 	andeq	r6, r0, r8, lsl #26
    4880:	07020300 	streq	r0, [r2, -r0, lsl #6]
    4884:	00000024 	andeq	r0, r0, r4, lsr #32
    4888:	da070403 	ble	1c589c <__bss_end__+0x1b8ed4>
    488c:	03000001 	movweq	r0, #1
    4890:	01d50708 	bicseq	r0, r5, r8, lsl #14
    4894:	04030000 	streq	r0, [r3], #-0
    4898:	00020007 	andeq	r0, r2, r7
    489c:	05040400 	streq	r0, [r4, #-1024]	; 0x400
    48a0:	00007a04 	andeq	r7, r0, r4, lsl #20
    48a4:	08010300 	stmdaeq	r1, {r8, r9}
    48a8:	00000076 	andeq	r0, r0, r6, ror r0
    48ac:	00870405 	addeq	r0, r7, r5, lsl #8
    48b0:	7a060000 	bvc	1848b8 <__bss_end__+0x177ef0>
    48b4:	07000000 	streq	r0, [r0, -r0]
    48b8:	00000a7e 	andeq	r0, r0, lr, ror sl
    48bc:	00972802 	addseq	r2, r7, r2, lsl #16
    48c0:	a5080000 	strge	r0, [r8, #-0]
    48c4:	0400000a 	streq	r0, [r0], #-10
    48c8:	00ae0004 	adceq	r0, lr, r4
    48cc:	af090000 	svcge	0x00090000
    48d0:	7200000a 	andvc	r0, r0, #10
    48d4:	00000000 	andeq	r0, r0, r0
    48d8:	0aa70700 	beq	fe9c64e0 <__bss_end__+0xfe9b9b18>
    48dc:	62020000 	andvs	r0, r2, #0
    48e0:	0000008c 	andeq	r0, r0, ip, lsl #1
    48e4:	000b290a 	andeq	r2, fp, sl, lsl #18
    48e8:	25270100 	strcs	r0, [r7, #-256]!	; 0x100
    48ec:	48000000 	stmdami	r0, {}	; <UNPREDICTABLE>
    48f0:	140000a5 	strne	r0, [r0], #-165	; 0xa5
    48f4:	01000000 	mrseq	r0, (UNDEF: 0)
    48f8:	0000e09c 	muleq	r0, ip, r0
    48fc:	00630b00 	rsbeq	r0, r3, r0, lsl #22
    4900:	00252701 	eoreq	r2, r5, r1, lsl #14
    4904:	144e0000 	strbne	r0, [lr], #-0
    4908:	0c000000 	stceq	0, cr0, [r0], {-0}
    490c:	00646170 	rsbeq	r6, r4, r0, ror r1
    4910:	00742e01 	rsbseq	r2, r4, r1, lsl #28
    4914:	a55c0000 	ldrbge	r0, [ip, #-0]
    4918:	002c0000 	eoreq	r0, ip, r0
    491c:	9c010000 	stcls	0, cr0, [r1], {-0}
    4920:	00000130 	andeq	r0, r0, r0, lsr r1
    4924:	0100700b 	tsteq	r0, fp
    4928:	0000742e 	andeq	r7, r0, lr, lsr #8
    492c:	00147c00 	andseq	r7, r4, r0, lsl #24
    4930:	0f5d0d00 	svceq	0x005d0d00
    4934:	2e010000 	cdpcs	0, 0, cr0, cr1, cr0, {0}
    4938:	00000074 	andeq	r0, r0, r4, ror r0
    493c:	000014a7 	andeq	r1, r0, r7, lsr #9
    4940:	000b620e 	andeq	r6, fp, lr, lsl #4
    4944:	252e0100 	strcs	r0, [lr, #-256]!	; 0x100
    4948:	01000000 	mrseq	r0, (UNDEF: 0)
    494c:	656c0f52 	strbvs	r0, [ip, #-3922]!	; 0xf52
    4950:	2f01006e 	svccs	0x0001006e
    4954:	00000025 	andeq	r0, r0, r5, lsr #32
    4958:	0a005101 	beq	18d64 <__bss_end__+0xc39c>
    495c:	00000b21 	andeq	r0, r0, r1, lsr #22
    4960:	00743701 	rsbseq	r3, r4, r1, lsl #14
    4964:	a5880000 	strge	r0, [r8]
    4968:	00400000 	subeq	r0, r0, r0
    496c:	9c010000 	stcls	0, cr0, [r1], {-0}
    4970:	0000019c 	muleq	r0, ip, r1
    4974:	7473640b 	ldrbtvc	r6, [r3], #-1035	; 0x40b
    4978:	74370100 	ldrtvc	r0, [r7], #-256	; 0x100
    497c:	c8000000 	stmdagt	r0, {}	; <UNPREDICTABLE>
    4980:	0b000014 	bleq	49d8 <__code_start__-0x3628>
    4984:	3701006e 	strcc	r0, [r1, -lr, rrx]
    4988:	00000025 	andeq	r0, r0, r5, lsr #32
    498c:	00001500 	andeq	r1, r0, r0, lsl #10
    4990:	0100700b 	tsteq	r0, fp
    4994:	00007437 	andeq	r7, r0, r7, lsr r4
    4998:	00152100 	andseq	r2, r5, r0, lsl #2
    499c:	15090d00 	strne	r0, [r9, #-3328]	; 0xd00
    49a0:	37010000 	strcc	r0, [r1, -r0]
    49a4:	00000074 	andeq	r0, r0, r4, ror r0
    49a8:	00001557 	andeq	r1, r0, r7, asr r5
    49ac:	6e656c10 	mcrvs	12, 3, r6, cr5, cr0, {0}
    49b0:	25390100 	ldrcs	r0, [r9, #-256]!	; 0x100
    49b4:	75000000 	strvc	r0, [r0, #-0]
    49b8:	0f000015 	svceq	0x00000015
    49bc:	3d010073 	stccc	0, cr0, [r1, #-460]	; 0xfffffe34
    49c0:	00000074 	andeq	r0, r0, r4, ror r0
    49c4:	0a005001 	beq	189d0 <__bss_end__+0xc008>
    49c8:	00000b70 	andeq	r0, r0, r0, ror fp
    49cc:	00744701 	rsbseq	r4, r4, r1, lsl #14
    49d0:	a5c80000 	strbge	r0, [r8]
    49d4:	01bc0000 			; <UNDEFINED> instruction: 0x01bc0000
    49d8:	9c010000 	stcls	0, cr0, [r1], {-0}
    49dc:	000002df 	ldrdeq	r0, [r0], -pc	; <UNPREDICTABLE>
    49e0:	000f5d0d 	andeq	r5, pc, sp, lsl #26
    49e4:	2c470100 	stfcse	f0, [r7], {-0}
    49e8:	9c000000 	stcls	0, cr0, [r0], {-0}
    49ec:	0b000015 	bleq	4a48 <__code_start__-0x35b8>
    49f0:	00747364 	rsbseq	r7, r4, r4, ror #6
    49f4:	00744701 	rsbseq	r4, r4, r1, lsl #14
    49f8:	15ca0000 	strbne	r0, [sl]
    49fc:	6e0b0000 	cdpvs	0, 0, cr0, cr11, cr0, {0}
    4a00:	25470100 	strbcs	r0, [r7, #-256]	; 0x100
    4a04:	38000000 	stmdacc	r0, {}	; <UNPREDICTABLE>
    4a08:	0b000016 	bleq	4a68 <__code_start__-0x3598>
    4a0c:	006c6176 	rsbeq	r6, ip, r6, ror r1
    4a10:	00254701 	eoreq	r4, r5, r1, lsl #14
    4a14:	16640000 	strbtne	r0, [r4], -r0
    4a18:	620d0000 	andvs	r0, sp, #0
    4a1c:	0100000b 	tsteq	r0, fp
    4a20:	00002547 	andeq	r2, r0, r7, asr #10
    4a24:	0016e300 	andseq	lr, r6, r0, lsl #6
    4a28:	0b390e00 	bleq	e48230 <__bss_end__+0xe3b868>
    4a2c:	47010000 	strmi	r0, [r1, -r0]
    4a30:	00000025 	andeq	r0, r0, r5, lsr #32
    4a34:	0f049102 	svceq	0x00049102
    4a38:	00667562 	rsbeq	r7, r6, r2, ror #10
    4a3c:	02df4c01 	sbcseq	r4, pc, #256	; 0x100
    4a40:	91030000 	mrsls	r0, (UNDEF: 3)
    4a44:	70107fa8 	andsvc	r7, r0, r8, lsr #31
    4a48:	744c0100 	strbvc	r0, [ip], #-256	; 0x100
    4a4c:	0d000000 	stceq	0, cr0, [r0, #-0]
    4a50:	10000017 	andne	r0, r0, r7, lsl r0
    4a54:	4d010075 	stcmi	0, cr0, [r1, #-468]	; 0xfffffe2c
    4a58:	0000002c 	andeq	r0, r0, ip, lsr #32
    4a5c:	000017f7 	strdeq	r1, [r0], -r7
    4a60:	0000d311 	andeq	sp, r0, r1, lsl r3
    4a64:	0002ff00 	andeq	pc, r2, r0, lsl #30
    4a68:	2c030500 	cfstr32cs	mvfx0, [r3], {-0}
    4a6c:	120000c2 	andne	r0, r0, #194	; 0xc2
    4a70:	0000a634 	andeq	sl, r0, r4, lsr r6
    4a74:	00000074 	andeq	r0, r0, r4, ror r0
    4a78:	00000261 	andeq	r0, r0, r1, ror #4
    4a7c:	000b1b13 	andeq	r1, fp, r3, lsl fp
    4a80:	2c520100 	ldfcse	f0, [r2], {-0}
    4a84:	ba000000 	blt	4a8c <__code_start__-0x3574>
    4a88:	00000018 	andeq	r0, r0, r8, lsl r0
    4a8c:	00a72014 	adceq	r2, r7, r4, lsl r0
    4a90:	0006c400 	andeq	ip, r6, r0, lsl #8
    4a94:	a73c1500 	ldrge	r1, [ip, -r0, lsl #10]!
    4a98:	06cb0000 	strbeq	r0, [fp], r0
    4a9c:	02a30000 	adceq	r0, r3, #0
    4aa0:	01160000 	tsteq	r6, r0
    4aa4:	77080253 	smlsdvc	r8, r3, r2, r0
    4aa8:	05520116 	ldrbeq	r0, [r2, #-278]	; 0x116
    4aac:	00c22c03 	sbceq	r2, r2, r3, lsl #24
    4ab0:	51011600 	tstpl	r1, r0, lsl #12
    4ab4:	c2500305 	subsgt	r0, r0, #335544320	; 0x14000000
    4ab8:	01160000 	tsteq	r6, r0
    4abc:	bc030550 	cfstr32lt	mvfx0, [r3], {80}	; 0x50
    4ac0:	160000b2 			; <UNDEFINED> instruction: 0x160000b2
    4ac4:	05007d02 	streq	r7, [r0, #-3330]	; 0xd02
    4ac8:	00ba0403 	adcseq	r0, sl, r3, lsl #8
    4acc:	40140000 	andsmi	r0, r4, r0
    4ad0:	e10000a7 	smlatb	r0, r7, r0, r0
    4ad4:	15000006 	strne	r0, [r0, #-6]
    4ad8:	0000a748 	andeq	sl, r0, r8, asr #14
    4adc:	000000e0 	andeq	r0, r0, r0, ror #1
    4ae0:	000002c1 	andeq	r0, r0, r1, asr #5
    4ae4:	03510116 	cmpeq	r1, #-2147483643	; 0x80000005
    4ae8:	007fa091 			; <UNDEFINED> instruction: 0x007fa091
    4aec:	00a75c17 	adceq	r5, r7, r7, lsl ip
    4af0:	00013000 	andeq	r3, r1, r0
    4af4:	53011600 	movwpl	r1, #5632	; 0x1600
    4af8:	7fa09103 	svcvc	0x00a09103
    4afc:	02510116 	subseq	r0, r1, #-2147483643	; 0x80000005
    4b00:	01160074 	tsteq	r6, r4, ror r0
    4b04:	00750250 	rsbseq	r0, r5, r0, asr r2
    4b08:	7a180000 	bvc	604b10 <__bss_end__+0x5f8148>
    4b0c:	ef000000 	svc	0x00000000
    4b10:	19000002 	stmdbne	r0, {r1}
    4b14:	0000006b 	andeq	r0, r0, fp, rrx
    4b18:	7a18003f 	bvc	604c1c <__bss_end__+0x5f8254>
    4b1c:	ff000000 			; <UNDEFINED> instruction: 0xff000000
    4b20:	19000002 	stmdbne	r0, {r1}
    4b24:	0000006b 	andeq	r0, r0, fp, rrx
    4b28:	ef060004 	svc	0x00060004
    4b2c:	1a000002 	bne	4b3c <__code_start__-0x34c4>
    4b30:	00000b53 	andeq	r0, r0, r3, asr fp
    4b34:	a7841f01 	strge	r1, [r4, r1, lsl #30]
    4b38:	00680000 	rsbeq	r0, r8, r0
    4b3c:	9c010000 	stcls	0, cr0, [r1], {-0}
    4b40:	00000392 	muleq	r0, r2, r3
    4b44:	000b680d 	andeq	r6, fp, sp, lsl #16
    4b48:	a11f0100 	tstge	pc, r0, lsl #2
    4b4c:	e6000003 	str	r0, [r0], -r3
    4b50:	0d000018 	stceq	0, cr0, [r0, #-96]	; 0xffffffa0
    4b54:	00000b31 	andeq	r0, r0, r1, lsr fp
    4b58:	03b61f01 			; <UNDEFINED> instruction: 0x03b61f01
    4b5c:	19120000 	ldmdbne	r2, {}	; <UNPREDICTABLE>
    4b60:	d3110000 	tstle	r1, #0
    4b64:	cc000000 	stcgt	0, cr0, [r0], {-0}
    4b68:	05000003 	streq	r0, [r0, #-3]
    4b6c:	00c23403 	sbceq	r3, r2, r3, lsl #8
    4b70:	a7981400 	ldrge	r1, [r8, r0, lsl #8]
    4b74:	06c40000 	strbeq	r0, [r4], r0
    4b78:	b4150000 	ldrlt	r0, [r5], #-0
    4b7c:	cb0000a7 	blgt	4e20 <__code_start__-0x31e0>
    4b80:	88000006 	stmdahi	r0, {r1, r2}
    4b84:	16000003 	strne	r0, [r0], -r3
    4b88:	08025301 	stmdaeq	r2, {r0, r8, r9, ip, lr}
    4b8c:	52011620 	andpl	r1, r1, #32, 12	; 0x2000000
    4b90:	c2340305 	eorsgt	r0, r4, #335544320	; 0x14000000
    4b94:	01160000 	tsteq	r6, r0
    4b98:	50030551 	andpl	r0, r3, r1, asr r5
    4b9c:	160000c2 	strne	r0, [r0], -r2, asr #1
    4ba0:	03055001 	movweq	r5, #20481	; 0x5001
    4ba4:	0000b2bc 			; <UNDEFINED> instruction: 0x0000b2bc
    4ba8:	007d0216 	rsbseq	r0, sp, r6, lsl r2
    4bac:	c2880305 	addgt	r0, r8, #335544320	; 0x14000000
    4bb0:	14000000 	strne	r0, [r0], #-0
    4bb4:	0000a7b8 			; <UNDEFINED> instruction: 0x0000a7b8
    4bb8:	000006e1 	andeq	r0, r0, r1, ror #13
    4bbc:	00251b00 	eoreq	r1, r5, r0, lsl #22
    4bc0:	03a10000 			; <UNDEFINED> instruction: 0x03a10000
    4bc4:	251c0000 	ldrcs	r0, [ip, #-0]
    4bc8:	00000000 	andeq	r0, r0, r0
    4bcc:	03920405 	orrseq	r0, r2, #83886080	; 0x5000000
    4bd0:	251b0000 	ldrcs	r0, [fp, #-0]
    4bd4:	b6000000 	strlt	r0, [r0], -r0
    4bd8:	1c000003 	stcne	0, cr0, [r0], {3}
    4bdc:	00000081 	andeq	r0, r0, r1, lsl #1
    4be0:	a7040500 	strge	r0, [r4, -r0, lsl #10]
    4be4:	18000003 	stmdane	r0, {r0, r1}
    4be8:	0000007a 	andeq	r0, r0, sl, ror r0
    4bec:	000003cc 	andeq	r0, r0, ip, asr #7
    4bf0:	00006b19 	andeq	r6, r0, r9, lsl fp
    4bf4:	06000e00 	streq	r0, [r0], -r0, lsl #28
    4bf8:	000003bc 			; <UNDEFINED> instruction: 0x000003bc
    4bfc:	000a9b1d 	andeq	r9, sl, sp, lsl fp
    4c00:	257f0100 	ldrbcs	r0, [pc, #-256]!	; 4b08 <__code_start__-0x34f8>
    4c04:	ec000000 	stc	0, cr0, [r0], {-0}
    4c08:	d40000a7 	strle	r0, [r0], #-167	; 0xa7
    4c0c:	01000002 	tsteq	r0, r2
    4c10:	0006899c 	muleq	r6, ip, r9
    4c14:	75620b00 	strbvc	r0, [r2, #-2816]!	; 0xb00
    4c18:	7f010066 	svcvc	0x00010066
    4c1c:	00000074 	andeq	r0, r0, r4, ror r0
    4c20:	0000193e 	andeq	r1, r0, lr, lsr r9
    4c24:	01006e0b 	tsteq	r0, fp, lsl #28
    4c28:	0000257f 	andeq	r2, r0, pc, ror r5
    4c2c:	00196a00 	andseq	r6, r9, r0, lsl #20
    4c30:	6d660b00 	vstmdbvs	r6!, {d16-d15}
    4c34:	7f010074 	svcvc	0x00010074
    4c38:	00000081 	andeq	r0, r0, r1, lsl #1
    4c3c:	00001998 	muleq	r0, r8, r9
    4c40:	000f7f0d 	andeq	r7, pc, sp, lsl #30
    4c44:	ae7f0100 	rpwgee	f0, f7, f0
    4c48:	b6000000 	strlt	r0, [r0], -r0
    4c4c:	10000019 	andne	r0, r0, r9, lsl r0
    4c50:	80010070 	andhi	r0, r1, r0, ror r0
    4c54:	00000074 	andeq	r0, r0, r4, ror r0
    4c58:	000019c9 	andeq	r1, r0, r9, asr #19
    4c5c:	01006510 	tsteq	r0, r0, lsl r5
    4c60:	00007480 	andeq	r7, r0, r0, lsl #9
    4c64:	001a4700 	andseq	r4, sl, r0, lsl #14
    4c68:	0b111300 	bleq	449870 <__bss_end__+0x43cea8>
    4c6c:	83010000 	movwhi	r0, #4096	; 0x1000
    4c70:	00000081 	andeq	r0, r0, r1, lsl #1
    4c74:	00001a6e 	andeq	r1, r0, lr, ror #20
    4c78:	0000d311 	andeq	sp, r0, r1, lsl r3
    4c7c:	00069900 	andeq	r9, r6, r0, lsl #18
    4c80:	44030500 	strmi	r0, [r3], #-1280	; 0x500
    4c84:	1e0000c2 	cdpne	0, 0, cr0, cr0, cr2, {6}
    4c88:	0000a848 	andeq	sl, r0, r8, asr #16
    4c8c:	0000022c 	andeq	r0, r0, ip, lsr #4
    4c90:	01007310 	tsteq	r0, r0, lsl r3
    4c94:	0000748e 	andeq	r7, r0, lr, lsl #9
    4c98:	001a8e00 	andseq	r8, sl, r0, lsl #28
    4c9c:	756e0f00 	strbvc	r0, [lr, #-3840]!	; 0xf00
    4ca0:	8e01006d 	cdphi	0, 0, cr0, cr1, cr13, {3}
    4ca4:	0000069e 	muleq	r0, lr, r6
    4ca8:	7ed89103 	atnvce	f1, f3
    4cac:	000b6213 	andeq	r6, fp, r3, lsl r2
    4cb0:	2c8f0100 	stfcss	f0, [pc], {0}
    4cb4:	e3000000 	movw	r0, #0
    4cb8:	1500001a 	strne	r0, [r0, #-26]
    4cbc:	0000a878 	andeq	sl, r0, r8, ror r8
    4cc0:	000000b9 	strheq	r0, [r0], -r9
    4cc4:	000004a4 	andeq	r0, r0, r4, lsr #9
    4cc8:	02500116 	subseq	r0, r0, #-2147483643	; 0x80000005
    4ccc:	14000075 	strne	r0, [r0], #-117	; 0x75
    4cd0:	0000a88c 	andeq	sl, r0, ip, lsl #17
    4cd4:	000006c4 	andeq	r0, r0, r4, asr #13
    4cd8:	00a8a815 	adceq	sl, r8, r5, lsl r8
    4cdc:	0006cb00 	andeq	ip, r6, r0, lsl #22
    4ce0:	0004e600 	andeq	lr, r4, r0, lsl #12
    4ce4:	53011600 	movwpl	r1, #5632	; 0x1600
    4ce8:	16950802 	ldrne	r0, [r5], r2, lsl #16
    4cec:	03055201 	movweq	r5, #20993	; 0x5201
    4cf0:	0000c244 	andeq	ip, r0, r4, asr #4
    4cf4:	05510116 	ldrbeq	r0, [r1, #-278]	; 0x116
    4cf8:	00c25003 	sbceq	r5, r2, r3
    4cfc:	50011600 	andpl	r1, r1, r0, lsl #12
    4d00:	b2bc0305 	adcslt	r0, ip, #335544320	; 0x14000000
    4d04:	02160000 	andseq	r0, r6, #0
    4d08:	0305007d 	movweq	r0, #20605	; 0x507d
    4d0c:	0000c290 	muleq	r0, r0, r2
    4d10:	a8ac1400 	stmiage	ip!, {sl, ip}
    4d14:	06e10000 	strbteq	r0, [r1], r0
    4d18:	1c140000 	ldcne	0, cr0, [r4], {-0}
    4d1c:	c40000a9 	strgt	r0, [r0], #-169	; 0xa9
    4d20:	15000006 	strne	r0, [r0, #-6]
    4d24:	0000a930 	andeq	sl, r0, r0, lsr r9
    4d28:	000006cb 	andeq	r0, r0, fp, asr #13
    4d2c:	00000527 	andeq	r0, r0, r7, lsr #10
    4d30:	02530116 	subseq	r0, r3, #-2147483643	; 0x80000005
    4d34:	01169b08 	tsteq	r6, r8, lsl #22
    4d38:	44030552 	strmi	r0, [r3], #-1362	; 0x552
    4d3c:	160000c2 	strne	r0, [r0], -r2, asr #1
    4d40:	03055101 	movweq	r5, #20737	; 0x5101
    4d44:	0000c250 	andeq	ip, r0, r0, asr r2
    4d48:	05500116 	ldrbeq	r0, [r0, #-278]	; 0x116
    4d4c:	00c29c03 	sbceq	r9, r2, r3, lsl #24
    4d50:	34140000 	ldrcc	r0, [r4], #-0
    4d54:	e10000a9 	smlatb	r0, r9, r0, r0
    4d58:	15000006 	strne	r0, [r0, #-6]
    4d5c:	0000a958 	andeq	sl, r0, r8, asr r9
    4d60:	0000019c 	muleq	r0, ip, r1
    4d64:	0000055d 	andeq	r0, r0, sp, asr r5
    4d68:	02520116 	subseq	r0, r2, #-2147483643	; 0x80000005
    4d6c:	01168008 	tsteq	r6, r8
    4d70:	d0910351 	addsle	r0, r1, r1, asr r3
    4d74:	5001167e 	andpl	r1, r1, lr, ror r6
    4d78:	02163a01 	andseq	r3, r6, #4096	; 0x1000
    4d7c:	3101047d 	tstcc	r1, sp, ror r4
    4d80:	007d0216 	rsbseq	r0, sp, r6, lsl r2
    4d84:	00007702 	andeq	r7, r0, r2, lsl #14
    4d88:	00a98015 	adceq	r8, r9, r5, lsl r0
    4d8c:	00019c00 	andeq	r9, r1, r0, lsl #24
    4d90:	00058a00 	andeq	r8, r5, r0, lsl #20
    4d94:	52011600 	andpl	r1, r1, #0, 12
    4d98:	16800802 	strne	r0, [r0], r2, lsl #16
    4d9c:	91035101 	tstls	r3, r1, lsl #2
    4da0:	01167ed0 			; <UNDEFINED> instruction: 0x01167ed0
    4da4:	163a0150 			; <UNDEFINED> instruction: 0x163a0150
    4da8:	01047d02 	tsteq	r4, r2, lsl #26
    4dac:	7d021630 	stcvc	6, cr1, [r2, #-192]	; 0xffffff40
    4db0:	00770200 	rsbseq	r0, r7, r0, lsl #4
    4db4:	a9a81500 	stmibge	r8!, {r8, sl, ip}
    4db8:	019c0000 	orrseq	r0, ip, r0
    4dbc:	05b70000 	ldreq	r0, [r7, #0]!
    4dc0:	01160000 	tsteq	r6, r0
    4dc4:	80080252 	andhi	r0, r8, r2, asr r2
    4dc8:	03510116 	cmpeq	r1, #-2147483643	; 0x80000005
    4dcc:	167ed091 			; <UNDEFINED> instruction: 0x167ed091
    4dd0:	40015001 	andmi	r5, r1, r1
    4dd4:	047d0216 	ldrbteq	r0, [sp], #-534	; 0x216
    4dd8:	02163001 	andseq	r3, r6, #1
    4ddc:	7702007d 	smlsdxvc	r2, sp, r0, r0
    4de0:	d0150000 	andsle	r0, r5, r0
    4de4:	9c0000a9 	stcls	0, cr0, [r0], {169}	; 0xa9
    4de8:	e4000001 	str	r0, [r0], #-1
    4dec:	16000005 	strne	r0, [r0], -r5
    4df0:	08025201 	stmdaeq	r2, {r0, r9, ip, lr}
    4df4:	51011680 	smlabbpl	r1, r0, r6, r1
    4df8:	7ed09103 	atnvcs	f1, f3
    4dfc:	01500116 	cmpeq	r0, r6, lsl r1
    4e00:	7d021632 	stcvc	6, cr1, [r2, #-200]	; 0xffffff38
    4e04:	16300104 	ldrtne	r0, [r0], -r4, lsl #2
    4e08:	02007d02 	andeq	r7, r0, #2, 26	; 0x80
    4e0c:	15000077 	strne	r0, [r0, #-119]	; 0x77
    4e10:	0000aa04 	andeq	sl, r0, r4, lsl #20
    4e14:	0000019c 	muleq	r0, ip, r1
    4e18:	00000611 	andeq	r0, r0, r1, lsl r6
    4e1c:	02520116 	subseq	r0, r2, #-2147483643	; 0x80000005
    4e20:	01168008 	tsteq	r6, r8
    4e24:	d0910351 	addsle	r0, r1, r1, asr r3
    4e28:	5001167e 	andpl	r1, r1, lr, ror r6
    4e2c:	02163801 	andseq	r3, r6, #65536	; 0x10000
    4e30:	3001047d 	andcc	r0, r1, sp, ror r4
    4e34:	007d0216 	rsbseq	r0, sp, r6, lsl r2
    4e38:	00007702 	andeq	r7, r0, r2, lsl #14
    4e3c:	00aa2015 	adceq	r2, sl, r5, lsl r0
    4e40:	0006cb00 	andeq	ip, r6, r0, lsl #22
    4e44:	00063400 	andeq	r3, r6, r0, lsl #8
    4e48:	52011600 	andpl	r1, r1, #0, 12
    4e4c:	16007902 	strne	r7, [r0], -r2, lsl #18
    4e50:	79025101 	stmdbvc	r2, {r0, r8, ip, lr}
    4e54:	50011600 	andpl	r1, r1, r0, lsl #12
    4e58:	c2c40305 	sbcgt	r0, r4, #335544320	; 0x14000000
    4e5c:	1f000000 	svcne	0x00000000
    4e60:	0000aa30 	andeq	sl, r0, r0, lsr sl
    4e64:	00000646 	andeq	r0, r0, r6, asr #12
    4e68:	04500116 	ldrbeq	r0, [r0], #-278	; 0x116
    4e6c:	067ecc91 			; <UNDEFINED> instruction: 0x067ecc91
    4e70:	aa341400 	bge	d09e78 <__bss_end__+0xcfd4b0>
    4e74:	06c40000 	strbeq	r0, [r4], r0
    4e78:	48150000 	ldmdami	r5, {}	; <UNPREDICTABLE>
    4e7c:	cb0000aa 	blgt	512c <__code_start__-0x2ed4>
    4e80:	7e000006 	cdpvc	0, 0, cr0, cr0, cr6, {0}
    4e84:	16000006 	strne	r0, [r0], -r6
    4e88:	08025301 	stmdaeq	r2, {r0, r8, r9, ip, lr}
    4e8c:	520116bf 	andpl	r1, r1, #200278016	; 0xbf00000
    4e90:	c2440305 	subgt	r0, r4, #335544320	; 0x14000000
    4e94:	01160000 	tsteq	r6, r0
    4e98:	50030551 	andpl	r0, r3, r1, asr r5
    4e9c:	160000c2 	strne	r0, [r0], -r2, asr #1
    4ea0:	03055001 	movweq	r5, #20481	; 0x5001
    4ea4:	0000c2f4 	strdeq	ip, [r0], -r4
    4ea8:	aa4c1400 	bge	1309eb0 <__bss_end__+0x12fd4e8>
    4eac:	06e10000 	strbteq	r0, [r1], r0
    4eb0:	00000000 	andeq	r0, r0, r0
    4eb4:	00007a18 	andeq	r7, r0, r8, lsl sl
    4eb8:	00069900 	andeq	r9, r6, r0, lsl #18
    4ebc:	006b1900 	rsbeq	r1, fp, r0, lsl #18
    4ec0:	00090000 	andeq	r0, r9, r0
    4ec4:	00068906 	andeq	r8, r6, r6, lsl #18
    4ec8:	007a1800 	rsbseq	r1, sl, r0, lsl #16
    4ecc:	06ae0000 	strteq	r0, [lr], r0
    4ed0:	6b190000 	blvs	644ed8 <__bss_end__+0x638510>
    4ed4:	7f000000 	svcvc	0x00000000
    4ed8:	0acf2000 	beq	ff3ccee0 <__bss_end__+0xff3c0518>
    4edc:	1d030000 	stcne	0, cr0, [r3, #-0]
    4ee0:	000003a1 	andeq	r0, r0, r1, lsr #7
    4ee4:	000b0c20 	andeq	r0, fp, r0, lsr #24
    4ee8:	b6220300 	strtlt	r0, [r2], -r0, lsl #6
    4eec:	21000003 	tstcs	r0, r3
    4ef0:	00000248 	andeq	r0, r0, r8, asr #4
    4ef4:	9e221e03 	cdpls	14, 2, cr1, cr2, cr3, {0}
    4ef8:	0300000a 	movweq	r0, #10
    4efc:	00002529 	andeq	r2, r0, r9, lsr #10
    4f00:	0006e100 	andeq	lr, r6, r0, lsl #2
    4f04:	00811c00 	addeq	r1, r1, r0, lsl #24
    4f08:	00230000 	eoreq	r0, r3, r0
    4f0c:	00007b21 	andeq	r7, r0, r1, lsr #22
    4f10:	00650300 	rsbeq	r0, r5, r0, lsl #6
    4f14:	0000010f 	andeq	r0, r0, pc, lsl #2
    4f18:	0eff0004 	cdpeq	0, 15, cr0, cr15, cr4, {0}
    4f1c:	01040000 	mrseq	r0, (UNDEF: 4)
    4f20:	000009cb 	andeq	r0, r0, fp, asr #19
    4f24:	000b8401 	andeq	r8, fp, r1, lsl #8
    4f28:	000a2a00 	andeq	r2, sl, r0, lsl #20
    4f2c:	00aac000 	adceq	ip, sl, r0
    4f30:	00002c00 	andeq	r2, r0, r0, lsl #24
    4f34:	000f2200 	andeq	r2, pc, r0, lsl #4
    4f38:	05040200 	streq	r0, [r4, #-512]	; 0x200
    4f3c:	00746e69 	rsbseq	r6, r4, r9, ror #28
    4f40:	df070403 	svcle	0x00070403
    4f44:	03000001 	movweq	r0, #1
    4f48:	006f0601 	rsbeq	r0, pc, r1, lsl #12
    4f4c:	02030000 	andeq	r0, r3, #0
    4f50:	00023505 	andeq	r3, r2, r5, lsl #10
    4f54:	05040300 	streq	r0, [r4, #-768]	; 0x300
    4f58:	0000020e 	andeq	r0, r0, lr, lsl #4
    4f5c:	09050803 	stmdbeq	r5, {r0, r1, fp}
    4f60:	03000002 	movweq	r0, #2
    4f64:	006d0801 	rsbeq	r0, sp, r1, lsl #16
    4f68:	02030000 	andeq	r0, r3, #0
    4f6c:	00002407 	andeq	r2, r0, r7, lsl #8
    4f70:	07040300 	streq	r0, [r4, -r0, lsl #6]
    4f74:	000001da 	ldrdeq	r0, [r0], -sl
    4f78:	d5070803 	strle	r0, [r7, #-2051]	; 0x803
    4f7c:	03000001 	movweq	r0, #1
    4f80:	02000704 	andeq	r0, r0, #4, 14	; 0x100000
    4f84:	01030000 	mrseq	r0, (UNDEF: 3)
    4f88:	00007608 	andeq	r7, r0, r8, lsl #12
    4f8c:	7f040400 	svcvc	0x00040400
    4f90:	05000000 	streq	r0, [r0, #-0]
    4f94:	00000072 	andeq	r0, r0, r2, ror r0
    4f98:	00007b06 	andeq	r7, r0, r6, lsl #22
    4f9c:	c0040100 	andgt	r0, r4, r0, lsl #2
    4fa0:	2c0000aa 	stccs	0, cr0, [r0], {170}	; 0xaa
    4fa4:	01000000 	mrseq	r0, (UNDEF: 0)
    4fa8:	0000d39c 	muleq	r0, ip, r3
    4fac:	aac80700 	bge	ff206bb4 <__bss_end__+0xff1fa1ec>
    4fb0:	00f30000 	rscseq	r0, r3, r0
    4fb4:	d8080000 	stmdale	r8, {}	; <UNPREDICTABLE>
    4fb8:	b50000aa 	strlt	r0, [r0, #-170]	; 0xaa
    4fbc:	09000000 	stmdbeq	r0, {}	; <UNPREDICTABLE>
    4fc0:	03055001 	movweq	r5, #20481	; 0x5001
    4fc4:	0000c314 	andeq	ip, r0, r4, lsl r3
    4fc8:	aae00a00 	bge	ff8077d0 <__bss_end__+0xff7fae08>
    4fcc:	00fa0000 	rscseq	r0, sl, r0
    4fd0:	00c90000 	sbceq	r0, r9, r0
    4fd4:	01090000 	mrseq	r0, (UNDEF: 9)
    4fd8:	64080250 	strvs	r0, [r8], #-592	; 0x250
    4fdc:	aae40700 	bge	ff906be4 <__bss_end__+0xff8fa21c>
    4fe0:	010b0000 	mrseq	r0, (UNDEF: 11)
    4fe4:	0b000000 	bleq	4fec <__code_start__-0x3014>
    4fe8:	00000025 	andeq	r0, r0, r5, lsr #32
    4fec:	000000e2 	andeq	r0, r0, r2, ror #1
    4ff0:	0000790c 	andeq	r7, r0, ip, lsl #18
    4ff4:	0c0d0000 	stceq	0, cr0, [sp], {-0}
    4ff8:	0200000b 	andeq	r0, r0, #11
    4ffc:	0000ed22 	andeq	lr, r0, r2, lsr #26
    5000:	d3040400 	movwle	r0, #17408	; 0x4400
    5004:	0e000000 	cdpeq	0, 0, cr0, cr0, cr0, {0}
    5008:	00000b75 	andeq	r0, r0, r5, ror fp
    500c:	a80fdc02 	stmdage	pc, {r1, sl, fp, ip, lr, pc}	; <UNPREDICTABLE>
    5010:	0200000b 	andeq	r0, r0, #11
    5014:	00010b4f 	andeq	r0, r1, pc, asr #22
    5018:	002c0c00 	eoreq	r0, ip, r0, lsl #24
    501c:	0e000000 	cdpeq	0, 0, cr0, cr0, cr0, {0}
    5020:	00000b9d 	muleq	r0, sp, fp
    5024:	0f006202 	svceq	0x00006202
    5028:	04000001 	streq	r0, [r0], #-1
    502c:	000fc900 	andeq	ip, pc, r0, lsl #18
    5030:	cb010400 	blgt	46038 <__bss_end__+0x39670>
    5034:	01000009 	tsteq	r0, r9
    5038:	00000bea 	andeq	r0, r0, sl, ror #23
    503c:	00000a2a 	andeq	r0, r0, sl, lsr #20
    5040:	0000aaec 	andeq	sl, r0, ip, ror #21
    5044:	00000038 	andeq	r0, r0, r8, lsr r0
    5048:	00000fc3 	andeq	r0, r0, r3, asr #31
    504c:	69050402 	stmdbvs	r5, {r1, sl}
    5050:	0300746e 	movweq	r7, #1134	; 0x46e
    5054:	01df0704 	bicseq	r0, pc, r4, lsl #14
    5058:	01030000 	mrseq	r0, (UNDEF: 3)
    505c:	00006f06 	andeq	r6, r0, r6, lsl #30
    5060:	05020300 	streq	r0, [r2, #-768]	; 0x300
    5064:	00000235 	andeq	r0, r0, r5, lsr r2
    5068:	0e050403 	cdpeq	4, 0, cr0, cr5, cr3, {0}
    506c:	03000002 	movweq	r0, #2
    5070:	02090508 	andeq	r0, r9, #8, 10	; 0x2000000
    5074:	01030000 	mrseq	r0, (UNDEF: 3)
    5078:	00006d08 	andeq	r6, r0, r8, lsl #26
    507c:	07020300 	streq	r0, [r2, -r0, lsl #6]
    5080:	00000024 	andeq	r0, r0, r4, lsr #32
    5084:	da070403 	ble	1c6098 <__bss_end__+0x1b96d0>
    5088:	03000001 	movweq	r0, #1
    508c:	01d50708 	bicseq	r0, r5, r8, lsl #14
    5090:	04030000 	streq	r0, [r3], #-0
    5094:	00020007 	andeq	r0, r2, r7
    5098:	08010300 	stmdaeq	r1, {r8, r9}
    509c:	00000076 	andeq	r0, r0, r6, ror r0
    50a0:	000be204 	andeq	lr, fp, r4, lsl #4
    50a4:	ec0d0100 	stfs	f0, [sp], {-0}
    50a8:	380000aa 	stmdacc	r0, {r1, r3, r5, r7}
    50ac:	01000000 	mrseq	r0, (UNDEF: 0)
    50b0:	0000e19c 	muleq	r0, ip, r1
    50b4:	0bb10500 	bleq	fec464bc <__bss_end__+0xfec39af4>
    50b8:	0e010000 	cdpeq	0, 0, cr0, cr1, cr0, {0}
    50bc:	00000025 	andeq	r0, r0, r5, lsr #32
    50c0:	000bbf05 	andeq	fp, fp, r5, lsl #30
    50c4:	250e0100 	strcs	r0, [lr, #-256]	; 0x100
    50c8:	06000000 	streq	r0, [r0], -r0
    50cc:	0000003d 	andeq	r0, r0, sp, lsr r0
    50d0:	62070f01 	andvs	r0, r7, #1, 30
    50d4:	01007373 	tsteq	r0, r3, ror r3
    50d8:	0000e111 	andeq	lr, r0, r1, lsl r1
    50dc:	001b0d00 	andseq	r0, fp, r0, lsl #26
    50e0:	0bda0800 	bleq	ff6870e8 <__bss_end__+0xff67a720>
    50e4:	12010000 	andne	r0, r1, #0
    50e8:	000000e1 	andeq	r0, r0, r1, ror #1
    50ec:	00ab1409 	adceq	r1, fp, r9, lsl #8
    50f0:	0000fd00 	andeq	pc, r0, r0, lsl #26
    50f4:	ab180900 	blge	6074fc <__bss_end__+0x5fab34>
    50f8:	01040000 	mrseq	r0, (UNDEF: 4)
    50fc:	1c090000 	stcne	0, cr0, [r9], {-0}
    5100:	0b0000ab 	bleq	53b4 <__code_start__-0x2c4c>
    5104:	00000001 	andeq	r0, r0, r1
    5108:	0025040a 	eoreq	r0, r5, sl, lsl #8
    510c:	b1050000 	mrslt	r0, (UNDEF: 5)
    5110:	0100000b 	tsteq	r0, fp
    5114:	0000250e 	andeq	r2, r0, lr, lsl #10
    5118:	0bbf0500 	bleq	fefc6520 <__bss_end__+0xfefb9b58>
    511c:	0e010000 	cdpeq	0, 0, cr0, cr1, cr0, {0}
    5120:	00000025 	andeq	r0, r0, r5, lsr #32
    5124:	000bcb06 	andeq	ip, fp, r6, lsl #22
    5128:	06da0200 	ldrbeq	r0, [sl], r0, lsl #4
    512c:	0000003d 	andeq	r0, r0, sp, lsr r0
    5130:	7b06d702 	blvc	1bad40 <__bss_end__+0x1ae378>
    5134:	02000000 	andeq	r0, r0, #0
    5138:	013e0065 	teqeq	lr, r5, rrx
    513c:	00040000 	andeq	r0, r4, r0
    5140:	0000105d 	andeq	r1, r0, sp, asr r0
    5144:	09cb0104 	stmibeq	fp, {r2, r8}^
    5148:	fd010000 	stc2	0, cr0, [r1, #-0]
    514c:	2a00000b 	bcs	5180 <__code_start__-0x2e80>
    5150:	2400000a 	strcs	r0, [r0], #-10
    5154:	440000ab 	strmi	r0, [r0], #-171	; 0xab
    5158:	6d000000 	stcvs	0, cr0, [r0, #-0]
    515c:	02000010 	andeq	r0, r0, #16
    5160:	6e690504 	cdpvs	5, 6, cr0, cr9, cr4, {0}
    5164:	04030074 	streq	r0, [r3], #-116	; 0x74
    5168:	0001df07 	andeq	sp, r1, r7, lsl #30
    516c:	06010300 	streq	r0, [r1], -r0, lsl #6
    5170:	0000006f 	andeq	r0, r0, pc, rrx
    5174:	35050203 	strcc	r0, [r5, #-515]	; 0x203
    5178:	03000002 	movweq	r0, #2
    517c:	020e0504 	andeq	r0, lr, #4, 10	; 0x1000000
    5180:	08030000 	stmdaeq	r3, {}	; <UNPREDICTABLE>
    5184:	00020905 	andeq	r0, r2, r5, lsl #18
    5188:	08010300 	stmdaeq	r1, {r8, r9}
    518c:	0000006d 	andeq	r0, r0, sp, rrx
    5190:	24070203 	strcs	r0, [r7], #-515	; 0x203
    5194:	03000000 	movweq	r0, #0
    5198:	01da0704 	bicseq	r0, sl, r4, lsl #14
    519c:	08030000 	stmdaeq	r3, {}	; <UNPREDICTABLE>
    51a0:	0001d507 	andeq	sp, r1, r7, lsl #10
    51a4:	07040300 	streq	r0, [r4, -r0, lsl #6]
    51a8:	00000200 	andeq	r0, r0, r0, lsl #4
    51ac:	76080103 	strvc	r0, [r8], -r3, lsl #2
    51b0:	04000000 	streq	r0, [r0], #-0
    51b4:	00007f04 	andeq	r7, r0, r4, lsl #30
    51b8:	00720500 	rsbseq	r0, r2, r0, lsl #10
    51bc:	1e060000 	cdpne	0, 0, cr0, cr6, cr0, {0}
    51c0:	0100000c 	tsteq	r0, ip
    51c4:	00ab2402 	adceq	r2, fp, r2, lsl #8
    51c8:	00004400 	andeq	r4, r0, r0, lsl #8
    51cc:	089c0100 	ldmeq	ip, {r8}
    51d0:	07000001 	streq	r0, [r0, -r1]
    51d4:	01006370 	tsteq	r0, r0, ror r3
    51d8:	00002c02 	andeq	r2, r0, r2, lsl #24
    51dc:	001b2d00 	andseq	r2, fp, r0, lsl #26
    51e0:	00d30800 	sbcseq	r0, r3, r0, lsl #16
    51e4:	01180000 	tsteq	r8, r0
    51e8:	03050000 	movweq	r0, #20480	; 0x5000
    51ec:	0000c320 	andeq	ip, r0, r0, lsr #6
    51f0:	00ab3409 	adceq	r3, fp, r9, lsl #8
    51f4:	00011d00 	andeq	r1, r1, r0, lsl #26
    51f8:	ab540a00 	blge	1507a00 <__bss_end__+0x14fb038>
    51fc:	01240000 	teqeq	r4, r0
    5200:	00fe0000 	rscseq	r0, lr, r0
    5204:	010b0000 	mrseq	r0, (UNDEF: 11)
    5208:	0b320153 	bleq	c8575c <__bss_end__+0xc78d94>
    520c:	03055201 	movweq	r5, #20993	; 0x5201
    5210:	0000c320 	andeq	ip, r0, r0, lsr #6
    5214:	0551010b 	ldrbeq	r0, [r1, #-267]	; 0x10b
    5218:	00c37403 	sbceq	r7, r3, r3, lsl #8
    521c:	50010b00 	andpl	r0, r1, r0, lsl #22
    5220:	c3380305 	teqgt	r8, #335544320	; 0x14000000
    5224:	020b0000 	andeq	r0, fp, #0
    5228:	7402047d 	strvc	r0, [r2], #-1149	; 0x47d
    522c:	7d020b00 	vstrvc	d0, [r2, #-0]
    5230:	98030500 	stmdals	r3, {r8, sl}
    5234:	000000c3 	andeq	r0, r0, r3, asr #1
    5238:	00ab5809 	adceq	r5, fp, r9, lsl #16
    523c:	00013a00 	andeq	r3, r1, r0, lsl #20
    5240:	720c0000 	andvc	r0, ip, #0
    5244:	18000000 	stmdane	r0, {}	; <UNPREDICTABLE>
    5248:	0d000001 	stceq	0, cr0, [r0, #-4]
    524c:	0000006b 	andeq	r0, r0, fp, rrx
    5250:	08050015 	stmdaeq	r5, {r0, r2, r4}
    5254:	0e000001 	cdpeq	0, 0, cr0, cr0, cr1, {0}
    5258:	00000248 	andeq	r0, r0, r8, asr #4
    525c:	9e0f1e02 	cdpls	14, 0, cr1, cr15, cr2, {0}
    5260:	0200000a 	andeq	r0, r0, #10
    5264:	00002529 	andeq	r2, r0, r9, lsr #10
    5268:	00013a00 	andeq	r3, r1, r0, lsl #20
    526c:	00791000 	rsbseq	r1, r9, r0
    5270:	00110000 	andseq	r0, r1, r0
    5274:	00007b0e 	andeq	r7, r0, lr, lsl #22
    5278:	00650200 	rsbeq	r0, r5, r0, lsl #4
    527c:	0000013e 	andeq	r0, r0, lr, lsr r1
    5280:	11350004 	teqne	r5, r4
    5284:	01040000 	mrseq	r0, (UNDEF: 4)
    5288:	000009cb 	andeq	r0, r0, fp, asr #19
    528c:	000c3401 	andeq	r3, ip, r1, lsl #8
    5290:	000a2a00 	andeq	r2, sl, r0, lsl #20
    5294:	00ab6800 	adceq	r6, fp, r0, lsl #16
    5298:	00004400 	andeq	r4, r0, r0, lsl #8
    529c:	00111300 	andseq	r1, r1, r0, lsl #6
    52a0:	05040200 	streq	r0, [r4, #-512]	; 0x200
    52a4:	00746e69 	rsbseq	r6, r4, r9, ror #28
    52a8:	df070403 	svcle	0x00070403
    52ac:	03000001 	movweq	r0, #1
    52b0:	006f0601 	rsbeq	r0, pc, r1, lsl #12
    52b4:	02030000 	andeq	r0, r3, #0
    52b8:	00023505 	andeq	r3, r2, r5, lsl #10
    52bc:	05040300 	streq	r0, [r4, #-768]	; 0x300
    52c0:	0000020e 	andeq	r0, r0, lr, lsl #4
    52c4:	09050803 	stmdbeq	r5, {r0, r1, fp}
    52c8:	03000002 	movweq	r0, #2
    52cc:	006d0801 	rsbeq	r0, sp, r1, lsl #16
    52d0:	02030000 	andeq	r0, r3, #0
    52d4:	00002407 	andeq	r2, r0, r7, lsl #8
    52d8:	07040300 	streq	r0, [r4, -r0, lsl #6]
    52dc:	000001da 	ldrdeq	r0, [r0], -sl
    52e0:	d5070803 	strle	r0, [r7, #-2051]	; 0x803
    52e4:	03000001 	movweq	r0, #1
    52e8:	02000704 	andeq	r0, r0, #4, 14	; 0x100000
    52ec:	01030000 	mrseq	r0, (UNDEF: 3)
    52f0:	00007608 	andeq	r7, r0, r8, lsl #12
    52f4:	7f040400 	svcvc	0x00040400
    52f8:	05000000 	streq	r0, [r0, #-0]
    52fc:	00000072 	andeq	r0, r0, r2, ror r0
    5300:	000c5906 	andeq	r5, ip, r6, lsl #18
    5304:	68020100 	stmdavs	r2, {r8}
    5308:	440000ab 	strmi	r0, [r0], #-171	; 0xab
    530c:	01000000 	mrseq	r0, (UNDEF: 0)
    5310:	0001089c 	muleq	r1, ip, r8
    5314:	63700700 	cmnvs	r0, #0, 14
    5318:	2c020100 	stfcss	f0, [r2], {-0}
    531c:	4b000000 	blmi	5324 <__code_start__-0x2cdc>
    5320:	0800001b 	stmdaeq	r0, {r0, r1, r3, r4}
    5324:	000000d3 	ldrdeq	r0, [r0], -r3
    5328:	00000118 	andeq	r0, r0, r8, lsl r1
    532c:	c3a00305 	movgt	r0, #335544320	; 0x14000000
    5330:	78090000 	stmdavc	r9, {}	; <UNPREDICTABLE>
    5334:	1d0000ab 	stcne	0, cr0, [r0, #-684]	; 0xfffffd54
    5338:	0a000001 	beq	5344 <__code_start__-0x2cbc>
    533c:	0000ab98 	muleq	r0, r8, fp
    5340:	00000124 	andeq	r0, r0, r4, lsr #2
    5344:	000000fe 	strdeq	r0, [r0], -lr
    5348:	0153010b 	cmpeq	r3, fp, lsl #2
    534c:	52010b32 	andpl	r0, r1, #51200	; 0xc800
    5350:	c3a00305 	movgt	r0, #335544320	; 0x14000000
    5354:	010b0000 	mrseq	r0, (UNDEF: 11)
    5358:	b8030551 	stmdalt	r3, {r0, r4, r6, r8, sl}
    535c:	0b0000c3 	bleq	5670 <__code_start__-0x2990>
    5360:	03055001 	movweq	r5, #20481	; 0x5001
    5364:	0000c338 	andeq	ip, r0, r8, lsr r3
    5368:	047d020b 	ldrbteq	r0, [sp], #-523	; 0x20b
    536c:	0b007402 	bleq	2237c <__bss_end__+0x159b4>
    5370:	05007d02 	streq	r7, [r0, #-3330]	; 0xd02
    5374:	00c3e003 	sbceq	lr, r3, r3
    5378:	9c090000 	stcls	0, cr0, [r9], {-0}
    537c:	3a0000ab 	bcc	5630 <__code_start__-0x29d0>
    5380:	00000001 	andeq	r0, r0, r1
    5384:	0000720c 	andeq	r7, r0, ip, lsl #4
    5388:	00011800 	andeq	r1, r1, r0, lsl #16
    538c:	006b0d00 	rsbeq	r0, fp, r0, lsl #26
    5390:	00150000 	andseq	r0, r5, r0
    5394:	00010805 	andeq	r0, r1, r5, lsl #16
    5398:	02480e00 	subeq	r0, r8, #0, 28
    539c:	1e020000 	cdpne	0, 0, cr0, cr2, cr0, {0}
    53a0:	000a9e0f 	andeq	r9, sl, pc, lsl #28
    53a4:	25290200 	strcs	r0, [r9, #-512]!	; 0x200
    53a8:	3a000000 	bcc	53b0 <__code_start__-0x2c50>
    53ac:	10000001 	andne	r0, r0, r1
    53b0:	00000079 	andeq	r0, r0, r9, ror r0
    53b4:	7b0e0011 	blvc	385400 <__bss_end__+0x378a38>
    53b8:	02000000 	andeq	r0, r0, #0
    53bc:	013e0065 	teqeq	lr, r5, rrx
    53c0:	00040000 	andeq	r0, r4, r0
    53c4:	0000120d 	andeq	r1, r0, sp, lsl #4
    53c8:	09cb0104 	stmibeq	fp, {r2, r8}^
    53cc:	7c010000 	stcvc	0, cr0, [r1], {-0}
    53d0:	2a00000c 	bcs	5408 <__code_start__-0x2bf8>
    53d4:	ac00000a 	stcge	0, cr0, [r0], {10}
    53d8:	440000ab 	strmi	r0, [r0], #-171	; 0xab
    53dc:	bd000000 	stclt	0, cr0, [r0, #-0]
    53e0:	02000011 	andeq	r0, r0, #17
    53e4:	6e690504 	cdpvs	5, 6, cr0, cr9, cr4, {0}
    53e8:	04030074 	streq	r0, [r3], #-116	; 0x74
    53ec:	0001df07 	andeq	sp, r1, r7, lsl #30
    53f0:	06010300 	streq	r0, [r1], -r0, lsl #6
    53f4:	0000006f 	andeq	r0, r0, pc, rrx
    53f8:	35050203 	strcc	r0, [r5, #-515]	; 0x203
    53fc:	03000002 	movweq	r0, #2
    5400:	020e0504 	andeq	r0, lr, #4, 10	; 0x1000000
    5404:	08030000 	stmdaeq	r3, {}	; <UNPREDICTABLE>
    5408:	00020905 	andeq	r0, r2, r5, lsl #18
    540c:	08010300 	stmdaeq	r1, {r8, r9}
    5410:	0000006d 	andeq	r0, r0, sp, rrx
    5414:	24070203 	strcs	r0, [r7], #-515	; 0x203
    5418:	03000000 	movweq	r0, #0
    541c:	01da0704 	bicseq	r0, sl, r4, lsl #14
    5420:	08030000 	stmdaeq	r3, {}	; <UNPREDICTABLE>
    5424:	0001d507 	andeq	sp, r1, r7, lsl #10
    5428:	07040300 	streq	r0, [r4, -r0, lsl #6]
    542c:	00000200 	andeq	r0, r0, r0, lsl #4
    5430:	76080103 	strvc	r0, [r8], -r3, lsl #2
    5434:	04000000 	streq	r0, [r0], #-0
    5438:	00007f04 	andeq	r7, r0, r4, lsl #30
    543c:	00720500 	rsbseq	r0, r2, r0, lsl #10
    5440:	6f060000 	svcvs	0x00060000
    5444:	0100000c 	tsteq	r0, ip
    5448:	00abac02 	adceq	sl, fp, r2, lsl #24
    544c:	00004400 	andeq	r4, r0, r0, lsl #8
    5450:	089c0100 	ldmeq	ip, {r8}
    5454:	07000001 	streq	r0, [r0, -r1]
    5458:	01006370 	tsteq	r0, r0, ror r3
    545c:	00002c02 	andeq	r2, r0, r2, lsl #24
    5460:	001b6900 	andseq	r6, fp, r0, lsl #18
    5464:	00d30800 	sbcseq	r0, r3, r0, lsl #16
    5468:	01180000 	tsteq	r8, r0
    546c:	03050000 	movweq	r0, #20480	; 0x5000
    5470:	0000c3f0 	strdeq	ip, [r0], -r0
    5474:	00abbc09 	adceq	fp, fp, r9, lsl #24
    5478:	00011d00 	andeq	r1, r1, r0, lsl #26
    547c:	abdc0a00 	blge	ff707c84 <__bss_end__+0xff6fb2bc>
    5480:	01240000 	teqeq	r4, r0
    5484:	00fe0000 	rscseq	r0, lr, r0
    5488:	010b0000 	mrseq	r0, (UNDEF: 11)
    548c:	0b320153 	bleq	c859e0 <__bss_end__+0xc79018>
    5490:	03055201 	movweq	r5, #20993	; 0x5201
    5494:	0000c3f0 	strdeq	ip, [r0], -r0
    5498:	0551010b 	ldrbeq	r0, [r1, #-267]	; 0x10b
    549c:	00c40003 	sbceq	r0, r4, r3
    54a0:	50010b00 	andpl	r0, r1, r0, lsl #22
    54a4:	c3380305 	teqgt	r8, #335544320	; 0x14000000
    54a8:	020b0000 	andeq	r0, fp, #0
    54ac:	7402047d 	strvc	r0, [r2], #-1149	; 0x47d
    54b0:	7d020b00 	vstrvc	d0, [r2, #-0]
    54b4:	24030500 	strcs	r0, [r3], #-1280	; 0x500
    54b8:	000000c4 	andeq	r0, r0, r4, asr #1
    54bc:	00abe009 	adceq	lr, fp, r9
    54c0:	00013a00 	andeq	r3, r1, r0, lsl #20
    54c4:	720c0000 	andvc	r0, ip, #0
    54c8:	18000000 	stmdane	r0, {}	; <UNPREDICTABLE>
    54cc:	0d000001 	stceq	0, cr0, [r0, #-4]
    54d0:	0000006b 	andeq	r0, r0, fp, rrx
    54d4:	0805000c 	stmdaeq	r5, {r2, r3}
    54d8:	0e000001 	cdpeq	0, 0, cr0, cr0, cr1, {0}
    54dc:	00000248 	andeq	r0, r0, r8, asr #4
    54e0:	9e0f1e02 	cdpls	14, 0, cr1, cr15, cr2, {0}
    54e4:	0200000a 	andeq	r0, r0, #10
    54e8:	00002529 	andeq	r2, r0, r9, lsr #10
    54ec:	00013a00 	andeq	r3, r1, r0, lsl #20
    54f0:	00791000 	rsbseq	r1, r9, r0
    54f4:	00110000 	andseq	r0, r1, r0
    54f8:	00007b0e 	andeq	r7, r0, lr, lsl #22
    54fc:	00650200 	rsbeq	r0, r5, r0, lsl #4
    5500:	0000013e 	andeq	r0, r0, lr, lsr r1
    5504:	12e50004 	rscne	r0, r5, #4
    5508:	01040000 	mrseq	r0, (UNDEF: 4)
    550c:	000009cb 	andeq	r0, r0, fp, asr #19
    5510:	000c9e01 	andeq	r9, ip, r1, lsl #28
    5514:	000a2a00 	andeq	r2, sl, r0, lsl #20
    5518:	00abf000 	adceq	pc, fp, r0
    551c:	00004400 	andeq	r4, r0, r0, lsl #8
    5520:	00126400 	andseq	r6, r2, r0, lsl #8
    5524:	05040200 	streq	r0, [r4, #-512]	; 0x200
    5528:	00746e69 	rsbseq	r6, r4, r9, ror #28
    552c:	df070403 	svcle	0x00070403
    5530:	03000001 	movweq	r0, #1
    5534:	006f0601 	rsbeq	r0, pc, r1, lsl #12
    5538:	02030000 	andeq	r0, r3, #0
    553c:	00023505 	andeq	r3, r2, r5, lsl #10
    5540:	05040300 	streq	r0, [r4, #-768]	; 0x300
    5544:	0000020e 	andeq	r0, r0, lr, lsl #4
    5548:	09050803 	stmdbeq	r5, {r0, r1, fp}
    554c:	03000002 	movweq	r0, #2
    5550:	006d0801 	rsbeq	r0, sp, r1, lsl #16
    5554:	02030000 	andeq	r0, r3, #0
    5558:	00002407 	andeq	r2, r0, r7, lsl #8
    555c:	07040300 	streq	r0, [r4, -r0, lsl #6]
    5560:	000001da 	ldrdeq	r0, [r0], -sl
    5564:	d5070803 	strle	r0, [r7, #-2051]	; 0x803
    5568:	03000001 	movweq	r0, #1
    556c:	02000704 	andeq	r0, r0, #4, 14	; 0x100000
    5570:	01030000 	mrseq	r0, (UNDEF: 3)
    5574:	00007608 	andeq	r7, r0, r8, lsl #12
    5578:	7f040400 	svcvc	0x00040400
    557c:	05000000 	streq	r0, [r0, #-0]
    5580:	00000072 	andeq	r0, r0, r2, ror r0
    5584:	000cc906 	andeq	ip, ip, r6, lsl #18
    5588:	f0020100 			; <UNDEFINED> instruction: 0xf0020100
    558c:	440000ab 	strmi	r0, [r0], #-171	; 0xab
    5590:	01000000 	mrseq	r0, (UNDEF: 0)
    5594:	0001089c 	muleq	r1, ip, r8
    5598:	63700700 	cmnvs	r0, #0, 14
    559c:	2c020100 	stfcss	f0, [r2], {-0}
    55a0:	87000000 	strhi	r0, [r0, -r0]
    55a4:	0800001b 	stmdaeq	r0, {r0, r1, r3, r4}
    55a8:	000000d3 	ldrdeq	r0, [r0], -r3
    55ac:	00000118 	andeq	r0, r0, r8, lsl r1
    55b0:	c42c0305 	strtgt	r0, [ip], #-773	; 0x305
    55b4:	00090000 	andeq	r0, r9, r0
    55b8:	1d0000ac 	stcne	0, cr0, [r0, #-688]	; 0xfffffd50
    55bc:	0a000001 	beq	55c8 <__code_start__-0x2a38>
    55c0:	0000ac20 	andeq	sl, r0, r0, lsr #24
    55c4:	00000124 	andeq	r0, r0, r4, lsr #2
    55c8:	000000fe 	strdeq	r0, [r0], -lr
    55cc:	0153010b 	cmpeq	r3, fp, lsl #2
    55d0:	52010b32 	andpl	r0, r1, #51200	; 0xc800
    55d4:	c42c0305 	strtgt	r0, [ip], #-773	; 0x305
    55d8:	010b0000 	mrseq	r0, (UNDEF: 11)
    55dc:	4c030551 	cfstr32mi	mvfx0, [r3], {81}	; 0x51
    55e0:	0b0000c4 	bleq	58f8 <__code_start__-0x2708>
    55e4:	03055001 	movweq	r5, #20481	; 0x5001
    55e8:	0000c338 	andeq	ip, r0, r8, lsr r3
    55ec:	047d020b 	ldrbteq	r0, [sp], #-523	; 0x20b
    55f0:	0b007402 	bleq	22600 <__bss_end__+0x15c38>
    55f4:	05007d02 	streq	r7, [r0, #-3330]	; 0xd02
    55f8:	00c47803 	sbceq	r7, r4, r3, lsl #16
    55fc:	24090000 	strcs	r0, [r9], #-0
    5600:	3a0000ac 	bcc	58b8 <__code_start__-0x2748>
    5604:	00000001 	andeq	r0, r0, r1
    5608:	0000720c 	andeq	r7, r0, ip, lsl #4
    560c:	00011800 	andeq	r1, r1, r0, lsl #16
    5610:	006b0d00 	rsbeq	r0, fp, r0, lsl #26
    5614:	001c0000 	andseq	r0, ip, r0
    5618:	00010805 	andeq	r0, r1, r5, lsl #16
    561c:	02480e00 	subeq	r0, r8, #0, 28
    5620:	1e020000 	cdpne	0, 0, cr0, cr2, cr0, {0}
    5624:	000a9e0f 	andeq	r9, sl, pc, lsl #28
    5628:	25290200 	strcs	r0, [r9, #-512]!	; 0x200
    562c:	3a000000 	bcc	5634 <__code_start__-0x29cc>
    5630:	10000001 	andne	r0, r0, r1
    5634:	00000079 	andeq	r0, r0, r9, ror r0
    5638:	7b0e0011 	blvc	385684 <__bss_end__+0x378cbc>
    563c:	02000000 	andeq	r0, r0, #0
    5640:	00980065 	addseq	r0, r8, r5, rrx
    5644:	00040000 	andeq	r0, r4, r0
    5648:	000013bd 			; <UNDEFINED> instruction: 0x000013bd
    564c:	09cb0104 	stmibeq	fp, {r2, r8}^
    5650:	e6010000 	str	r0, [r1], -r0
    5654:	2a00000c 	bcs	568c <__code_start__-0x2974>
    5658:	3400000a 	strcc	r0, [r0], #-10
    565c:	080000ac 	stmdaeq	r0, {r2, r3, r5, r7}
    5660:	14000000 	strne	r0, [r0], #-0
    5664:	02000013 	andeq	r0, r0, #19
    5668:	6e690504 	cdpvs	5, 6, cr0, cr9, cr4, {0}
    566c:	04030074 	streq	r0, [r3], #-116	; 0x74
    5670:	0001df07 	andeq	sp, r1, r7, lsl #30
    5674:	06010300 	streq	r0, [r1], -r0, lsl #6
    5678:	0000006f 	andeq	r0, r0, pc, rrx
    567c:	35050203 	strcc	r0, [r5, #-515]	; 0x203
    5680:	03000002 	movweq	r0, #2
    5684:	020e0504 	andeq	r0, lr, #4, 10	; 0x1000000
    5688:	08030000 	stmdaeq	r3, {}	; <UNPREDICTABLE>
    568c:	00020905 	andeq	r0, r2, r5, lsl #18
    5690:	08010300 	stmdaeq	r1, {r8, r9}
    5694:	0000006d 	andeq	r0, r0, sp, rrx
    5698:	24070203 	strcs	r0, [r7], #-515	; 0x203
    569c:	03000000 	movweq	r0, #0
    56a0:	01da0704 	bicseq	r0, sl, r4, lsl #14
    56a4:	08030000 	stmdaeq	r3, {}	; <UNPREDICTABLE>
    56a8:	0001d507 	andeq	sp, r1, r7, lsl #10
    56ac:	07040300 	streq	r0, [r4, -r0, lsl #6]
    56b0:	00000200 	andeq	r0, r0, r0, lsl #4
    56b4:	76080103 	strvc	r0, [r8], -r3, lsl #2
    56b8:	04000000 	streq	r0, [r0], #-0
    56bc:	00000bcb 	andeq	r0, r0, fp, asr #23
    56c0:	ac340401 	cfldrsge	mvf0, [r4], #-4
    56c4:	00040000 	andeq	r0, r4, r0
    56c8:	9c010000 	stcls	0, cr0, [r1], {-0}
    56cc:	000b7504 	andeq	r7, fp, r4, lsl #10
    56d0:	38050100 	stmdacc	r5, {r8}
    56d4:	040000ac 	streq	r0, [r0], #-172	; 0xac
    56d8:	01000000 	mrseq	r0, (UNDEF: 0)
    56dc:	01d7009c 			; <UNDEFINED> instruction: 0x01d7009c
    56e0:	00040000 	andeq	r0, r4, r0
    56e4:	000013ff 	strdeq	r1, [r0], -pc	; <UNPREDICTABLE>
    56e8:	09cb0104 	stmibeq	fp, {r2, r8}^
    56ec:	a2010000 	andge	r0, r1, #0
    56f0:	2a00000d 	bcs	572c <__code_start__-0x28d4>
    56f4:	3c00000a 	stccc	0, cr0, [r0], {10}
    56f8:	6c0000ac 	stcvs	0, cr0, [r0], {172}	; 0xac
    56fc:	5f000000 	svcpl	0x00000000
    5700:	02000013 	andeq	r0, r0, #19
    5704:	6e690504 	cdpvs	5, 6, cr0, cr9, cr4, {0}
    5708:	04030074 	streq	r0, [r3], #-116	; 0x74
    570c:	0001df07 	andeq	sp, r1, r7, lsl #30
    5710:	06010300 	streq	r0, [r1], -r0, lsl #6
    5714:	0000006f 	andeq	r0, r0, pc, rrx
    5718:	35050203 	strcc	r0, [r5, #-515]	; 0x203
    571c:	03000002 	movweq	r0, #2
    5720:	020e0504 	andeq	r0, lr, #4, 10	; 0x1000000
    5724:	08030000 	stmdaeq	r3, {}	; <UNPREDICTABLE>
    5728:	00020905 	andeq	r0, r2, r5, lsl #18
    572c:	08010300 	stmdaeq	r1, {r8, r9}
    5730:	0000006d 	andeq	r0, r0, sp, rrx
    5734:	24070203 	strcs	r0, [r7], #-515	; 0x203
    5738:	03000000 	movweq	r0, #0
    573c:	01da0704 	bicseq	r0, sl, r4, lsl #14
    5740:	08030000 	stmdaeq	r3, {}	; <UNPREDICTABLE>
    5744:	0001d507 	andeq	sp, r1, r7, lsl #10
    5748:	07040300 	streq	r0, [r4, -r0, lsl #6]
    574c:	00000200 	andeq	r0, r0, r0, lsl #4
    5750:	76080103 	strvc	r0, [r8], -r3, lsl #2
    5754:	04000000 	streq	r0, [r0], #-0
    5758:	f0140204 			; <UNDEFINED> instruction: 0xf0140204
    575c:	05000000 	streq	r0, [r0, #-0]
    5760:	00000dbb 			; <UNDEFINED> instruction: 0x00000dbb
    5764:	8082e480 	addhi	lr, r2, r0, lsl #9
    5768:	0d410502 	cfstr64eq	mvdx0, [r1, #-8]
    576c:	e4800000 	str	r0, [r0], #0
    5770:	05028082 	streq	r8, [r2, #-130]	; 0x82
    5774:	00000de2 	andeq	r0, r0, r2, ror #27
    5778:	8082e484 	addhi	lr, r2, r4, lsl #9
    577c:	0d030502 	cfstr32eq	mvfx0, [r3, #-8]
    5780:	e4880000 	str	r0, [r8], #0
    5784:	05028082 	streq	r8, [r2, #-130]	; 0x82
    5788:	00000d24 	andeq	r0, r0, r4, lsr #26
    578c:	8082e48c 	addhi	lr, r2, ip, lsl #9
    5790:	0d650502 	cfstr64eq	mvdx0, [r5, #-8]!
    5794:	e4900000 	ldr	r0, [r0], #0
    5798:	05028082 	streq	r8, [r2, #-130]	; 0x82
    579c:	00000d73 	andeq	r0, r0, r3, ror sp
    57a0:	8082e494 	umullhi	lr, r2, r4, r4
    57a4:	0d530502 	cfldr64eq	mvdx0, [r3, #-8]
    57a8:	e4980000 	ldr	r0, [r8], #0
    57ac:	05028082 	streq	r8, [r2, #-130]	; 0x82
    57b0:	00000dc4 	andeq	r0, r0, r4, asr #27
    57b4:	8082e49c 	umullhi	lr, r2, ip, r4
    57b8:	0dd30502 	cfldr64eq	mvdx0, [r3, #8]
    57bc:	e4a00000 	strt	r0, [r0], #0
    57c0:	05028082 	streq	r8, [r2, #-130]	; 0x82
    57c4:	00000d11 	andeq	r0, r0, r1, lsl sp
    57c8:	8082e4a4 	addhi	lr, r2, r4, lsr #9
    57cc:	29060002 	stmdbcs	r6, {r1}
    57d0:	01000006 	tsteq	r0, r6
    57d4:	00ac3c1b 	adceq	r3, ip, fp, lsl ip
    57d8:	00006c00 	andeq	r6, r0, r0, lsl #24
    57dc:	a59c0100 	ldrge	r0, [ip, #256]	; 0x100
    57e0:	07000001 	streq	r0, [r0, -r1]
    57e4:	00000d30 	andeq	r0, r0, r0, lsr sp
    57e8:	002c2301 	eoreq	r2, ip, r1, lsl #6
    57ec:	81070000 	mrshi	r0, (UNDEF: 7)
    57f0:	0100000d 	tsteq	r0, sp
    57f4:	00002c24 	andeq	r2, r0, r4, lsr #24
    57f8:	73640800 	cmnvc	r4, #0, 16
    57fc:	27010074 	smlsdxcs	r1, r4, r0, r0
    5800:	000001a5 	andeq	r0, r0, r5, lsr #3
    5804:	72730900 	rsbsvc	r0, r3, #0, 18
    5808:	28010063 	stmdacs	r1, {r0, r1, r5, r6}
    580c:	000001a5 	andeq	r0, r0, r5, lsr #3
    5810:	01006e0a 	tsteq	r0, sl, lsl #28
    5814:	00002c29 	andeq	r2, r0, r9, lsr #24
    5818:	0b500100 	bleq	1405c20 <__bss_end__+0x13f9258>
    581c:	0000ac70 	andeq	sl, r0, r0, ror ip
    5820:	00000024 	andeq	r0, r0, r4, lsr #32
    5824:	00000158 	andeq	r0, r0, r8, asr r1
    5828:	0100690c 	tsteq	r0, ip, lsl #18
    582c:	0000252a 	andeq	r2, r0, sl, lsr #10
    5830:	001ba500 	andseq	sl, fp, r0, lsl #10
    5834:	440d0000 	strmi	r0, [sp], #-0
    5838:	c10000ac 	smlatbgt	r0, ip, r0, r0
    583c:	0e000001 	cdpeq	0, 0, cr0, cr0, cr1, {0}
    5840:	0000ac50 	andeq	sl, r0, r0, asr ip
    5844:	000001c8 	andeq	r0, r0, r8, asr #3
    5848:	0000017e 	andeq	r0, r0, lr, ror r1
    584c:	0251010f 	subseq	r0, r1, #-1073741821	; 0xc0000003
    5850:	010fff09 	tsteq	pc, r9, lsl #30
    5854:	1c0c0550 	cfstr32ne	mvfx0, [ip], {80}	; 0x50
    5858:	002000b2 	strhteq	r0, [r0], -r2
    585c:	00ac5c0e 	adceq	r5, ip, lr, lsl #24
    5860:	0001c800 	andeq	ip, r1, r0, lsl #16
    5864:	00019b00 	andeq	r9, r1, r0, lsl #22
    5868:	51010f00 	tstpl	r1, r0, lsl #30
    586c:	0fff0902 	svceq	0x00ff0902
    5870:	0c055001 	stceq	0, cr5, [r5], {1}
    5874:	2000b220 	andcs	fp, r0, r0, lsr #4
    5878:	ac600d00 	stclge	13, cr0, [r0], #-0
    587c:	01c10000 	biceq	r0, r1, r0
    5880:	10000000 	andne	r0, r0, r0
    5884:	00002c04 	andeq	r2, r0, r4, lsl #24
    5888:	0d300700 	ldceq	7, cr0, [r0, #-0]
    588c:	23010000 	movwcs	r0, #4096	; 0x1000
    5890:	0000002c 	andeq	r0, r0, ip, lsr #32
    5894:	000d8107 	andeq	r8, sp, r7, lsl #2
    5898:	2c240100 	stfcss	f0, [r4], #-0
    589c:	11000000 	mrsne	r0, (UNDEF: 0)
    58a0:	00000d96 	muleq	r0, r6, sp
    58a4:	37128903 	ldrcc	r8, [r2, -r3, lsl #18]
    58a8:	03000000 	movweq	r0, #0
    58ac:	002c139b 	mlaeq	ip, fp, r3, r1
    58b0:	2c130000 	ldccs	0, cr0, [r3], {-0}
    58b4:	00000000 	andeq	r0, r0, r0
    58b8:	0001ad00 	andeq	sl, r1, r0, lsl #26
    58bc:	05000400 	streq	r0, [r0, #-1024]	; 0x400
    58c0:	04000015 	streq	r0, [r0], #-21
    58c4:	0009cb01 	andeq	ip, r9, r1, lsl #22
    58c8:	0dfe0100 	ldfeqe	f0, [lr]
    58cc:	0a2a0000 	beq	a858d4 <__bss_end__+0xa78f0c>
    58d0:	00480000 	subeq	r0, r8, r0
    58d4:	00000000 	andeq	r0, r0, r0
    58d8:	142c0000 	strtne	r0, [ip], #-0
    58dc:	04020000 	streq	r0, [r2], #-0
    58e0:	746e6905 	strbtvc	r6, [lr], #-2309	; 0x905
    58e4:	07040300 	streq	r0, [r4, -r0, lsl #6]
    58e8:	000001df 	ldrdeq	r0, [r0], -pc	; <UNPREDICTABLE>
    58ec:	6f060103 	svcvs	0x00060103
    58f0:	03000000 	movweq	r0, #0
    58f4:	02350502 	eorseq	r0, r5, #8388608	; 0x800000
    58f8:	04030000 	streq	r0, [r3], #-0
    58fc:	00020e05 	andeq	r0, r2, r5, lsl #28
    5900:	05080300 	streq	r0, [r8, #-768]	; 0x300
    5904:	00000209 	andeq	r0, r0, r9, lsl #4
    5908:	6d080103 	stfvss	f0, [r8, #-12]
    590c:	03000000 	movweq	r0, #0
    5910:	00240702 	eoreq	r0, r4, r2, lsl #14
    5914:	04030000 	streq	r0, [r3], #-0
    5918:	0001da07 	andeq	sp, r1, r7, lsl #20
    591c:	07080300 	streq	r0, [r8, -r0, lsl #6]
    5920:	000001d5 	ldrdeq	r0, [r0], -r5
    5924:	00070403 	andeq	r0, r7, r3, lsl #8
    5928:	03000002 	movweq	r0, #2
    592c:	00760801 	rsbseq	r0, r6, r1, lsl #16
    5930:	f0040000 			; <UNDEFINED> instruction: 0xf0040000
    5934:	0100000d 	tsteq	r0, sp
    5938:	0000250e 	andeq	r2, r0, lr, lsl #10
    593c:	00aca800 	adceq	sl, ip, r0, lsl #16
    5940:	00001800 	andeq	r1, r0, r0, lsl #16
    5944:	a29c0100 	addsge	r0, ip, #0, 2
    5948:	05000000 	streq	r0, [r0, #-0]
    594c:	00000e55 	andeq	r0, r0, r5, asr lr
    5950:	002c0f01 	eoreq	r0, ip, r1, lsl #30
    5954:	1bc40000 	blne	ff10595c <__bss_end__+0xff0f8f94>
    5958:	06000000 	streq	r0, [r0], -r0
    595c:	00000e32 	andeq	r0, r0, r2, lsr lr
    5960:	acc01701 	stclge	7, cr1, [r0], {1}
    5964:	00140000 	andseq	r0, r4, r0
    5968:	9c010000 	stcls	0, cr0, [r1], {-0}
    596c:	000000c7 	andeq	r0, r0, r7, asr #1
    5970:	000e5505 	andeq	r5, lr, r5, lsl #10
    5974:	2c180100 	ldfcss	f0, [r8], {-0}
    5978:	e3000000 	movw	r0, #0
    597c:	0000001b 	andeq	r0, r0, fp, lsl r0
    5980:	000b9d06 	andeq	r9, fp, r6, lsl #26
    5984:	d41f0100 	ldrle	r0, [pc], #-256	; 598c <__code_start__-0x2674>
    5988:	480000ac 	stmdami	r0, {r2, r3, r5, r7}
    598c:	01000000 	mrseq	r0, (UNDEF: 0)
    5990:	0001779c 	muleq	r1, ip, r7
    5994:	0e4d0700 	cdpeq	7, 4, cr0, cr13, cr0, {0}
    5998:	2a010000 	bcs	459a0 <__bss_end__+0x38fd8>
    599c:	00000177 	andeq	r0, r0, r7, ror r1
    59a0:	2010001c 	andscs	r0, r0, ip, lsl r0
    59a4:	000e2a07 	andeq	r2, lr, r7, lsl #20
    59a8:	772b0100 	strvc	r0, [fp, -r0, lsl #2]!
    59ac:	24000001 	strcs	r0, [r0], #-1
    59b0:	07201000 	streq	r1, [r0, -r0]!
    59b4:	00000e41 	andeq	r0, r0, r1, asr #28
    59b8:	01772c01 	cmneq	r7, r1, lsl #24
    59bc:	00000000 	andeq	r0, r0, r0
    59c0:	11085a00 	tstne	r8, r0, lsl #20
    59c4:	0100000e 	tsteq	r0, lr
    59c8:	0001772d 	andeq	r7, r1, sp, lsr #14
    59cc:	dc092000 	stcle	0, cr2, [r9], {-0}
    59d0:	790000ac 	stmdbvc	r0, {r2, r3, r5, r7}
    59d4:	09000000 	stmdbeq	r0, {}	; <UNPREDICTABLE>
    59d8:	0000ace8 	andeq	sl, r0, r8, ror #25
    59dc:	000000a2 	andeq	r0, r0, r2, lsr #1
    59e0:	00acf00a 	adceq	pc, ip, sl
    59e4:	00018d00 	andeq	r8, r1, r0, lsl #26
    59e8:	00013a00 	andeq	r3, r1, r0, lsl #20
    59ec:	50010b00 	andpl	r0, r1, r0, lsl #22
    59f0:	0a004e01 	beq	191fc <__bss_end__+0xc834>
    59f4:	0000acfc 	strdeq	sl, [r0], -ip
    59f8:	0000019e 	muleq	r0, lr, r1
    59fc:	0000015a 	andeq	r0, r0, sl, asr r1
    5a00:	0551010b 	ldrbeq	r0, [r1, #-267]	; 0x10b
    5a04:	0000010c 	andeq	r0, r0, ip, lsl #2
    5a08:	50010b5a 	andpl	r0, r1, sl, asr fp
    5a0c:	00240c05 	eoreq	r0, r4, r5, lsl #24
    5a10:	0c002010 	stceq	0, cr2, [r0], {16}
    5a14:	0000ad08 	andeq	sl, r0, r8, lsl #26
    5a18:	0000019e 	muleq	r0, lr, r1
    5a1c:	0551010b 	ldrbeq	r0, [r1, #-267]	; 0x10b
    5a20:	0000200c 	andeq	r2, r0, ip
    5a24:	50010b5a 	andpl	r0, r1, sl, asr fp
    5a28:	001c0c05 	andseq	r0, ip, r5, lsl #24
    5a2c:	00002010 	andeq	r2, r0, r0, lsl r0
    5a30:	0000250d 	andeq	r2, r0, sp, lsl #10
    5a34:	0df30800 	ldcleq	8, cr0, [r3]
    5a38:	0d010000 	stceq	0, cr0, [r1, #-0]
    5a3c:	00000188 	andeq	r0, r0, r8, lsl #3
    5a40:	002c0d10 	eoreq	r0, ip, r0, lsl sp
    5a44:	a80e0000 	stmdage	lr, {}	; <UNPREDICTABLE>
    5a48:	0200000b 	andeq	r0, r0, #11
    5a4c:	00019e4f 	andeq	r9, r1, pc, asr #28
    5a50:	002c0f00 	eoreq	r0, ip, r0, lsl #30
    5a54:	10000000 	andne	r0, r0, r0
    5a58:	00000037 	andeq	r0, r0, r7, lsr r0
    5a5c:	2c0f9b02 	stccs	11, cr9, [pc], {2}
    5a60:	0f000000 	svceq	0x00000000
    5a64:	0000002c 	andeq	r0, r0, ip, lsr #32
    5a68:	01f70000 	mvnseq	r0, r0
    5a6c:	00040000 	andeq	r0, r4, r0
    5a70:	000015f3 	strdeq	r1, [r0], -r3
    5a74:	09cb0104 	stmibeq	fp, {r2, r8}^
    5a78:	77010000 	strvc	r0, [r1, -r0]
    5a7c:	2a00000e 	bcs	5abc <__code_start__-0x2544>
    5a80:	1c00000a 	stcne	0, cr0, [r0], {10}
    5a84:	980000ad 	stmdals	r0, {r0, r2, r3, r5, r7}
    5a88:	d2000000 	andle	r0, r0, #0
    5a8c:	02000014 	andeq	r0, r0, #20
    5a90:	6e690504 	cdpvs	5, 6, cr0, cr9, cr4, {0}
    5a94:	04030074 	streq	r0, [r3], #-116	; 0x74
    5a98:	0001df07 	andeq	sp, r1, r7, lsl #30
    5a9c:	06010300 	streq	r0, [r1], -r0, lsl #6
    5aa0:	0000006f 	andeq	r0, r0, pc, rrx
    5aa4:	35050203 	strcc	r0, [r5, #-515]	; 0x203
    5aa8:	03000002 	movweq	r0, #2
    5aac:	020e0504 	andeq	r0, lr, #4, 10	; 0x1000000
    5ab0:	08030000 	stmdaeq	r3, {}	; <UNPREDICTABLE>
    5ab4:	00020905 	andeq	r0, r2, r5, lsl #18
    5ab8:	08010300 	stmdaeq	r1, {r8, r9}
    5abc:	0000006d 	andeq	r0, r0, sp, rrx
    5ac0:	24070203 	strcs	r0, [r7], #-515	; 0x203
    5ac4:	03000000 	movweq	r0, #0
    5ac8:	01da0704 	bicseq	r0, sl, r4, lsl #14
    5acc:	08030000 	stmdaeq	r3, {}	; <UNPREDICTABLE>
    5ad0:	0001d507 	andeq	sp, r1, r7, lsl #10
    5ad4:	07040300 	streq	r0, [r4, -r0, lsl #6]
    5ad8:	00000200 	andeq	r0, r0, r0, lsl #4
    5adc:	76080103 	strvc	r0, [r8], -r3, lsl #2
    5ae0:	04000000 	streq	r0, [r0], #-0
    5ae4:	00000e8f 	andeq	r0, r0, pc, lsl #29
    5ae8:	ad1c0501 	cfldr32ge	mvfx0, [ip, #-4]
    5aec:	001c0000 	andseq	r0, ip, r0
    5af0:	9c010000 	stcls	0, cr0, [r1], {-0}
    5af4:	0000009e 	muleq	r0, lr, r0
    5af8:	000e8905 	andeq	r8, lr, r5, lsl #18
    5afc:	2c050100 	stfcss	f0, [r5], {-0}
    5b00:	0d000000 	stceq	0, cr0, [r0, #-0]
    5b04:	0000001c 	andeq	r0, r0, ip, lsl r0
    5b08:	000e5a06 	andeq	r5, lr, r6, lsl #20
    5b0c:	2c110100 	ldfcss	f0, [r1], {-0}
    5b10:	38000000 	stmdacc	r0, {}	; <UNPREDICTABLE>
    5b14:	140000ad 	strne	r0, [r0], #-173	; 0xad
    5b18:	01000000 	mrseq	r0, (UNDEF: 0)
    5b1c:	0000cb9c 	muleq	r0, ip, fp
    5b20:	ad440700 	stclge	7, cr0, [r4, #-0]
    5b24:	01de0000 	bicseq	r0, lr, r0
    5b28:	01080000 	mrseq	r0, (UNDEF: 8)
    5b2c:	040c0550 	streq	r0, [ip], #-1360	; 0x550
    5b30:	00200030 	eoreq	r0, r0, r0, lsr r0
    5b34:	0ea50600 	cdpeq	6, 10, cr0, cr5, cr0, {0}
    5b38:	16010000 	strne	r0, [r1], -r0
    5b3c:	0000002c 	andeq	r0, r0, ip, lsr #32
    5b40:	0000ad4c 	andeq	sl, r0, ip, asr #26
    5b44:	0000001c 	andeq	r0, r0, ip, lsl r0
    5b48:	010d9c01 	tsteq	sp, r1, lsl #24
    5b4c:	75090000 	strvc	r0, [r9, #-0]
    5b50:	2c1a0100 	ldfcss	f0, [sl], {-0}
    5b54:	41000000 	mrsmi	r0, (UNDEF: 0)
    5b58:	0a00001c 	beq	5bd0 <__code_start__-0x2430>
    5b5c:	0000ad54 	andeq	sl, r0, r4, asr sp
    5b60:	000001f3 	strdeq	r0, [r0], -r3
    5b64:	00ad580a 	adceq	r5, sp, sl, lsl #16
    5b68:	00009e00 	andeq	r9, r0, r0, lsl #28
    5b6c:	ad600a00 	vstmdbge	r0!, {s1-s0}
    5b70:	01f30000 	mvnseq	r0, r0
    5b74:	04000000 	streq	r0, [r0], #-0
    5b78:	00000e9c 	muleq	r0, ip, lr
    5b7c:	ad681f01 	stclge	15, cr1, [r8, #-4]!
    5b80:	00240000 	eoreq	r0, r4, r0
    5b84:	9c010000 	stcls	0, cr0, [r1], {-0}
    5b88:	0000016b 	andeq	r0, r0, fp, ror #2
    5b8c:	0073750b 	rsbseq	r7, r3, fp, lsl #10
    5b90:	002c1f01 	eoreq	r1, ip, r1, lsl #30
    5b94:	1c5f0000 	mrane	r0, pc, acc0
    5b98:	720c0000 	andvc	r0, ip, #0
    5b9c:	20010062 	andcs	r0, r1, r2, rrx
    5ba0:	0000002c 	andeq	r0, r0, ip, lsr #32
    5ba4:	780d5401 	stmdavc	sp, {r0, sl, ip, lr}
    5ba8:	100000ad 	andne	r0, r0, sp, lsr #1
    5bac:	61000000 	mrsvs	r0, (UNDEF: 0)
    5bb0:	09000001 	stmdbeq	r0, {r0}
    5bb4:	01006172 	tsteq	r0, r2, ror r1
    5bb8:	00002c22 	andeq	r2, r0, r2, lsr #24
    5bbc:	001c7d00 	andseq	r7, ip, r0, lsl #26
    5bc0:	ad7c0a00 	vldmdbge	ip!, {s1-s0}
    5bc4:	00cb0000 	sbceq	r0, fp, r0
    5bc8:	0a000000 	beq	5bd0 <__code_start__-0x2430>
    5bcc:	0000ad74 	andeq	sl, r0, r4, ror sp
    5bd0:	000000cb 	andeq	r0, r0, fp, asr #1
    5bd4:	0ba80400 	bleq	fea06bdc <__bss_end__+0xfe9fa214>
    5bd8:	28010000 	stmdacs	r1, {}	; <UNPREDICTABLE>
    5bdc:	0000ad8c 	andeq	sl, r0, ip, lsl #27
    5be0:	00000014 	andeq	r0, r0, r4, lsl r0
    5be4:	01a49c01 			; <UNDEFINED> instruction: 0x01a49c01
    5be8:	6d0b0000 	stcvs	0, cr0, [fp, #-0]
    5bec:	28010073 	stmdacs	r1, {r0, r1, r4, r5, r6}
    5bf0:	0000002c 	andeq	r0, r0, ip, lsr #32
    5bf4:	00001c90 	muleq	r0, r0, ip
    5bf8:	00ad9c07 	adceq	r9, sp, r7, lsl #24
    5bfc:	00010d00 	andeq	r0, r1, r0, lsl #26
    5c00:	50010800 	andpl	r0, r1, r0, lsl #16
    5c04:	5001f307 	andpl	pc, r1, r7, lsl #6
    5c08:	1e03e80a 	cdpne	8, 0, cr14, cr3, cr10, {0}
    5c0c:	6d040000 	stcvs	0, cr0, [r4, #-0]
    5c10:	0100000e 	tsteq	r0, lr
    5c14:	00ada02b 	adceq	sl, sp, fp, lsr #32
    5c18:	00001400 	andeq	r1, r0, r0, lsl #8
    5c1c:	de9c0100 	fmllee	f0, f4, f0
    5c20:	0b000001 	bleq	5c2c <__code_start__-0x23d4>
    5c24:	00636573 	rsbeq	r6, r3, r3, ror r5
    5c28:	002c2b01 	eoreq	r2, ip, r1, lsl #22
    5c2c:	1cb10000 	ldcne	0, cr0, [r1]
    5c30:	b0070000 	andlt	r0, r7, r0
    5c34:	6b0000ad 	blvs	5ef0 <__code_start__-0x2110>
    5c38:	08000001 	stmdaeq	r0, {r0}
    5c3c:	f3075001 	vhadd.u8	d5, d7, d1
    5c40:	e80a5001 	stmda	sl, {r0, ip, lr}
    5c44:	00001e03 	andeq	r1, r0, r3, lsl #28
    5c48:	0000540e 	andeq	r5, r0, lr, lsl #8
    5c4c:	2ca70200 	sfmcs	f0, 4, [r7]
    5c50:	f3000000 	vhadd.u8	d0, d0, d0
    5c54:	0f000001 	svceq	0x00000001
    5c58:	0000002c 	andeq	r0, r0, ip, lsr #32
    5c5c:	0d961000 	ldceq	0, cr1, [r6]
    5c60:	89020000 	stmdbhi	r2, {}	; <UNPREDICTABLE>
    5c64:	000cc500 	andeq	ip, ip, r0, lsl #10
    5c68:	e9000400 	stmdb	r0, {sl}
    5c6c:	04000016 	streq	r0, [r0], #-22
    5c70:	00124a01 	andseq	r4, r2, r1, lsl #20
    5c74:	0fb30c00 	svceq	0x00b30c00
    5c78:	0fce0000 	svceq	0x00ce0000
    5c7c:	ae180000 	cdpge	0, 1, cr0, cr8, cr0, {0}
    5c80:	01780000 	cmneq	r8, r0
    5c84:	15840000 	strne	r0, [r4]
    5c88:	04020000 	streq	r0, [r2], #-0
    5c8c:	746e6905 	strbtvc	r6, [lr], #-2309	; 0x905
    5c90:	07040300 	streq	r0, [r4, -r0, lsl #6]
    5c94:	000001df 	ldrdeq	r0, [r0], -pc	; <UNPREDICTABLE>
    5c98:	00002c04 	andeq	r2, r0, r4, lsl #24
    5c9c:	06010300 	streq	r0, [r1], -r0, lsl #6
    5ca0:	0000006f 	andeq	r0, r0, pc, rrx
    5ca4:	35050203 	strcc	r0, [r5, #-515]	; 0x203
    5ca8:	03000002 	movweq	r0, #2
    5cac:	020e0504 	andeq	r0, lr, #4, 10	; 0x1000000
    5cb0:	08030000 	stmdaeq	r3, {}	; <UNPREDICTABLE>
    5cb4:	00020905 	andeq	r0, r2, r5, lsl #18
    5cb8:	08010300 	stmdaeq	r1, {r8, r9}
    5cbc:	0000006d 	andeq	r0, r0, sp, rrx
    5cc0:	24070203 	strcs	r0, [r7], #-515	; 0x203
    5cc4:	03000000 	movweq	r0, #0
    5cc8:	01da0704 	bicseq	r0, sl, r4, lsl #14
    5ccc:	08030000 	stmdaeq	r3, {}	; <UNPREDICTABLE>
    5cd0:	0001d507 	andeq	sp, r1, r7, lsl #10
    5cd4:	115f0500 	cmpne	pc, r0, lsl #10
    5cd8:	07020000 	streq	r0, [r2, -r0]
    5cdc:	00000025 	andeq	r0, r0, r5, lsr #32
    5ce0:	00114905 	andseq	r4, r1, r5, lsl #18
    5ce4:	462c0300 	strtmi	r0, [ip], -r0, lsl #6
    5ce8:	05000000 	streq	r0, [r0, #-0]
    5cec:	00001225 	andeq	r1, r0, r5, lsr #4
    5cf0:	00467203 	subeq	r7, r6, r3, lsl #4
    5cf4:	f3060000 	vhadd.u8	d0, d6, d0
    5cf8:	04000010 	streq	r0, [r0], #-16
    5cfc:	002c0165 	eoreq	r0, ip, r5, ror #2
    5d00:	04070000 	streq	r0, [r7], #-0
    5d04:	00bca603 	adcseq	sl, ip, r3, lsl #12
    5d08:	de080000 	cdple	0, 0, cr0, cr8, cr0, {0}
    5d0c:	03000010 	movweq	r0, #16
    5d10:	000091a8 	andeq	r9, r0, r8, lsr #3
    5d14:	10860800 	addne	r0, r6, r0, lsl #16
    5d18:	a9030000 	stmdbge	r3, {}	; <UNPREDICTABLE>
    5d1c:	000000bc 	strheq	r0, [r0], -ip
    5d20:	00540900 	subseq	r0, r4, r0, lsl #18
    5d24:	00cc0000 	sbceq	r0, ip, r0
    5d28:	cc0a0000 	stcgt	0, cr0, [sl], {-0}
    5d2c:	03000000 	movweq	r0, #0
    5d30:	07040300 	streq	r0, [r4, -r0, lsl #6]
    5d34:	00000200 	andeq	r0, r0, r0, lsl #4
    5d38:	a303080b 	movwge	r0, #14347	; 0x380b
    5d3c:	000000f4 	strdeq	r0, [r0], -r4
    5d40:	00120a0c 	andseq	r0, r2, ip, lsl #20
    5d44:	25a50300 	strcs	r0, [r5, #768]!	; 0x300
    5d48:	00000000 	andeq	r0, r0, r0
    5d4c:	0012120c 	andseq	r1, r2, ip, lsl #4
    5d50:	9daa0300 	stcls	3, cr0, [sl]
    5d54:	04000000 	streq	r0, [r0], #-0
    5d58:	119d0500 	orrsne	r0, sp, r0, lsl #10
    5d5c:	ab030000 	blge	c5d64 <__bss_end__+0xb939c>
    5d60:	000000d3 	ldrdeq	r0, [r0], -r3
    5d64:	00104f05 	andseq	r4, r0, r5, lsl #30
    5d68:	70af0300 	adcvc	r0, pc, r0, lsl #6
    5d6c:	0d000000 	stceq	0, cr0, [r0, #-0]
    5d70:	12040e04 	andne	r0, r4, #4, 28	; 0x40
    5d74:	03000001 	movweq	r0, #1
    5d78:	00760801 	rsbseq	r0, r6, r1, lsl #16
    5d7c:	120f0000 	andne	r0, pc, #0
    5d80:	05000001 	streq	r0, [r0, #-1]
    5d84:	000012c7 	andeq	r1, r0, r7, asr #5
    5d88:	00621605 	rsbeq	r1, r2, r5, lsl #12
    5d8c:	60100000 	andsvs	r0, r0, r0
    5d90:	18000010 	stmdane	r0, {r4}
    5d94:	017c2d05 	cmneq	ip, r5, lsl #26
    5d98:	be0c0000 	cdplt	0, 0, cr0, cr12, cr0, {0}
    5d9c:	05000011 	streq	r0, [r0, #-17]
    5da0:	00017c2f 	andeq	r7, r1, pc, lsr #24
    5da4:	5f110000 	svcpl	0x00110000
    5da8:	3005006b 	andcc	r0, r5, fp, rrx
    5dac:	00000025 	andeq	r0, r0, r5, lsr #32
    5db0:	11f50c04 	mvnsne	r0, r4, lsl #24
    5db4:	30050000 	andcc	r0, r5, r0
    5db8:	00000025 	andeq	r0, r0, r5, lsr #32
    5dbc:	103b0c08 	eorsne	r0, fp, r8, lsl #24
    5dc0:	30050000 	andcc	r0, r5, r0
    5dc4:	00000025 	andeq	r0, r0, r5, lsr #32
    5dc8:	130e0c0c 	movwne	r0, #60428	; 0xec0c
    5dcc:	30050000 	andcc	r0, r5, r0
    5dd0:	00000025 	andeq	r0, r0, r5, lsr #32
    5dd4:	785f1110 	ldmdavc	pc, {r4, r8, ip}^	; <UNPREDICTABLE>
    5dd8:	82310500 	eorshi	r0, r1, #0, 10
    5ddc:	14000001 	strne	r0, [r0], #-1
    5de0:	29040e00 	stmdbcs	r4, {r9, sl, fp}
    5de4:	09000001 	stmdbeq	r0, {r0}
    5de8:	0000011e 	andeq	r0, r0, lr, lsl r1
    5dec:	00000192 	muleq	r0, r2, r1
    5df0:	0000cc0a 	andeq	ip, r0, sl, lsl #24
    5df4:	10000000 	andne	r0, r0, r0
    5df8:	00001081 	andeq	r1, r0, r1, lsl #1
    5dfc:	0b350524 	bleq	d47294 <__bss_end__+0xd3a8cc>
    5e00:	0c000002 	stceq	0, cr0, [r0], {2}
    5e04:	00000f39 	andeq	r0, r0, r9, lsr pc
    5e08:	00253705 	eoreq	r3, r5, r5, lsl #14
    5e0c:	0c000000 	stceq	0, cr0, [r0], {-0}
    5e10:	0000122d 	andeq	r1, r0, sp, lsr #4
    5e14:	00253805 	eoreq	r3, r5, r5, lsl #16
    5e18:	0c040000 	stceq	0, cr0, [r4], {-0}
    5e1c:	00000f67 	andeq	r0, r0, r7, ror #30
    5e20:	00253905 	eoreq	r3, r5, r5, lsl #18
    5e24:	0c080000 	stceq	0, cr0, [r8], {-0}
    5e28:	000013fe 	strdeq	r1, [r0], -lr
    5e2c:	00253a05 	eoreq	r3, r5, r5, lsl #20
    5e30:	0c0c0000 	stceq	0, cr0, [ip], {-0}
    5e34:	0000112d 	andeq	r1, r0, sp, lsr #2
    5e38:	00253b05 	eoreq	r3, r5, r5, lsl #22
    5e3c:	0c100000 	ldceq	0, cr0, [r0], {-0}
    5e40:	00001102 	andeq	r1, r0, r2, lsl #2
    5e44:	00253c05 	eoreq	r3, r5, r5, lsl #24
    5e48:	0c140000 	ldceq	0, cr0, [r4], {-0}
    5e4c:	00001313 	andeq	r1, r0, r3, lsl r3
    5e50:	00253d05 	eoreq	r3, r5, r5, lsl #26
    5e54:	0c180000 	ldceq	0, cr0, [r8], {-0}
    5e58:	0000117f 	andeq	r1, r0, pc, ror r1
    5e5c:	00253e05 	eoreq	r3, r5, r5, lsl #28
    5e60:	0c1c0000 	ldceq	0, cr0, [ip], {-0}
    5e64:	000013c5 	andeq	r1, r0, r5, asr #7
    5e68:	00253f05 	eoreq	r3, r5, r5, lsl #30
    5e6c:	00200000 	eoreq	r0, r0, r0
    5e70:	000f7612 	andeq	r7, pc, r2, lsl r6	; <UNPREDICTABLE>
    5e74:	05010800 	streq	r0, [r1, #-2048]	; 0x800
    5e78:	00024b48 	andeq	r4, r2, r8, asr #22
    5e7c:	10220c00 	eorne	r0, r2, r0, lsl #24
    5e80:	49050000 	stmdbmi	r5, {}	; <UNPREDICTABLE>
    5e84:	0000024b 	andeq	r0, r0, fp, asr #4
    5e88:	0eb40c00 	cdpeq	12, 11, cr0, cr4, cr0, {0}
    5e8c:	4a050000 	bmi	145e94 <__bss_end__+0x1394cc>
    5e90:	0000024b 	andeq	r0, r0, fp, asr #4
    5e94:	12b91380 	adcsne	r1, r9, #128, 6
    5e98:	4c050000 	stcmi	0, cr0, [r5], {-0}
    5e9c:	0000011e 	andeq	r0, r0, lr, lsl r1
    5ea0:	9b130100 	blls	4c62a8 <__bss_end__+0x4b98e0>
    5ea4:	0500000f 	streq	r0, [r0, #-15]
    5ea8:	00011e4f 	andeq	r1, r1, pc, asr #28
    5eac:	00010400 	andeq	r0, r1, r0, lsl #8
    5eb0:	00010a09 	andeq	r0, r1, r9, lsl #20
    5eb4:	00025b00 	andeq	r5, r2, r0, lsl #22
    5eb8:	00cc0a00 	sbceq	r0, ip, r0, lsl #20
    5ebc:	001f0000 	andseq	r0, pc, r0
    5ec0:	00113612 	andseq	r3, r1, r2, lsl r6
    5ec4:	05019000 	streq	r9, [r1, #-0]
    5ec8:	0002995b 	andeq	r9, r2, fp, asr r9
    5ecc:	11be0c00 			; <UNDEFINED> instruction: 0x11be0c00
    5ed0:	5c050000 	stcpl	0, cr0, [r5], {-0}
    5ed4:	00000299 	muleq	r0, r9, r2
    5ed8:	11d60c00 	bicsne	r0, r6, r0, lsl #24
    5edc:	5d050000 	stcpl	0, cr0, [r5, #-0]
    5ee0:	00000025 	andeq	r0, r0, r5, lsr #32
    5ee4:	10360c04 	eorsne	r0, r6, r4, lsl #24
    5ee8:	5f050000 	svcpl	0x00050000
    5eec:	0000029f 	muleq	r0, pc, r2	; <UNPREDICTABLE>
    5ef0:	0f760c08 	svceq	0x00760c08
    5ef4:	60050000 	andvs	r0, r5, r0
    5ef8:	0000020b 	andeq	r0, r0, fp, lsl #4
    5efc:	040e0088 	streq	r0, [lr], #-136	; 0x88
    5f00:	0000025b 	andeq	r0, r0, fp, asr r2
    5f04:	0002af09 	andeq	sl, r2, r9, lsl #30
    5f08:	0002af00 	andeq	sl, r2, r0, lsl #30
    5f0c:	00cc0a00 	sbceq	r0, ip, r0, lsl #20
    5f10:	001f0000 	andseq	r0, pc, r0
    5f14:	02b5040e 	adcseq	r0, r5, #234881024	; 0xe000000
    5f18:	10140000 	andsne	r0, r4, r0
    5f1c:	00001189 	andeq	r1, r0, r9, lsl #3
    5f20:	db730508 	blle	1cc7348 <__bss_end__+0x1cba980>
    5f24:	0c000002 	stceq	0, cr0, [r0], {2}
    5f28:	00000f5c 	andeq	r0, r0, ip, asr pc
    5f2c:	02db7405 	sbcseq	r7, fp, #83886080	; 0x5000000
    5f30:	0c000000 	stceq	0, cr0, [r0], {-0}
    5f34:	00000ec0 	andeq	r0, r0, r0, asr #29
    5f38:	00257505 	eoreq	r7, r5, r5, lsl #10
    5f3c:	00040000 	andeq	r0, r4, r0
    5f40:	0054040e 	subseq	r0, r4, lr, lsl #8
    5f44:	a8100000 	ldmdage	r0, {}	; <UNPREDICTABLE>
    5f48:	68000011 	stmdavs	r0, {r0, r4}
    5f4c:	040bb305 	streq	fp, [fp], #-773	; 0x305
    5f50:	5f110000 	svcpl	0x00110000
    5f54:	b4050070 	strlt	r0, [r5], #-112	; 0x70
    5f58:	000002db 	ldrdeq	r0, [r0], -fp
    5f5c:	725f1100 	subsvc	r1, pc, #0, 2
    5f60:	25b50500 	ldrcs	r0, [r5, #1280]!	; 0x500
    5f64:	04000000 	streq	r0, [r0], #-0
    5f68:	00775f11 	rsbseq	r5, r7, r1, lsl pc
    5f6c:	0025b605 	eoreq	fp, r5, r5, lsl #12
    5f70:	0c080000 	stceq	0, cr0, [r8], {-0}
    5f74:	00000f94 	muleq	r0, r4, pc	; <UNPREDICTABLE>
    5f78:	003fb705 	eorseq	fp, pc, r5, lsl #14
    5f7c:	0c0c0000 	stceq	0, cr0, [ip], {-0}
    5f80:	000010a7 	andeq	r1, r0, r7, lsr #1
    5f84:	003fb805 	eorseq	fp, pc, r5, lsl #16
    5f88:	110e0000 	mrsne	r0, (UNDEF: 14)
    5f8c:	0066625f 	rsbeq	r6, r6, pc, asr r2
    5f90:	02b6b905 	adcseq	fp, r6, #81920	; 0x14000
    5f94:	0c100000 	ldceq	0, cr0, [r0], {-0}
    5f98:	00000f03 	andeq	r0, r0, r3, lsl #30
    5f9c:	0025ba05 	eoreq	fp, r5, r5, lsl #20
    5fa0:	0c180000 	ldceq	0, cr0, [r8], {-0}
    5fa4:	00000f84 	andeq	r0, r0, r4, lsl #31
    5fa8:	010ac105 	tsteq	sl, r5, lsl #2
    5fac:	0c1c0000 	ldceq	0, cr0, [ip], {-0}
    5fb0:	00001425 	andeq	r1, r0, r5, lsr #8
    5fb4:	0566c305 	strbeq	ip, [r6, #-773]!	; 0x305
    5fb8:	0c200000 	stceq	0, cr0, [r0], #-0
    5fbc:	0000143f 	andeq	r1, r0, pc, lsr r4
    5fc0:	0590c505 	ldreq	ip, [r0, #1285]	; 0x505
    5fc4:	0c240000 	stceq	0, cr0, [r4], #-0
    5fc8:	0000121a 	andeq	r1, r0, sl, lsl r2
    5fcc:	05b4c805 	ldreq	ip, [r4, #2053]!	; 0x805
    5fd0:	0c280000 	stceq	0, cr0, [r8], #-0
    5fd4:	000013df 	ldrdeq	r1, [r0], -pc	; <UNPREDICTABLE>
    5fd8:	05cec905 	strbeq	ip, [lr, #2309]	; 0x905
    5fdc:	112c0000 	teqne	ip, r0
    5fe0:	0062755f 	rsbeq	r7, r2, pc, asr r5
    5fe4:	02b6cc05 	adcseq	ip, r6, #1280	; 0x500
    5fe8:	11300000 	teqne	r0, r0
    5fec:	0070755f 	rsbseq	r7, r0, pc, asr r5
    5ff0:	02dbcd05 	sbcseq	ip, fp, #320	; 0x140
    5ff4:	11380000 	teqne	r8, r0
    5ff8:	0072755f 	rsbseq	r7, r2, pc, asr r5
    5ffc:	0025ce05 	eoreq	ip, r5, r5, lsl #28
    6000:	0c3c0000 	ldceq	0, cr0, [ip], #-0
    6004:	00000f47 	andeq	r0, r0, r7, asr #30
    6008:	05d4d105 	ldrbeq	sp, [r4, #261]	; 0x105
    600c:	0c400000 	mareq	acc0, r0, r0
    6010:	0000138a 	andeq	r1, r0, sl, lsl #7
    6014:	05e4d205 	strbeq	sp, [r4, #517]!	; 0x205
    6018:	11430000 	mrsne	r0, (UNDEF: 67)
    601c:	00626c5f 	rsbeq	r6, r2, pc, asr ip
    6020:	02b6d505 	adcseq	sp, r6, #20971520	; 0x1400000
    6024:	0c440000 	mareq	acc0, r0, r4
    6028:	00000faa 	andeq	r0, r0, sl, lsr #31
    602c:	0025d805 	eoreq	sp, r5, r5, lsl #16
    6030:	0c4c0000 	mareq	acc0, r0, ip
    6034:	0000110c 	andeq	r1, r0, ip, lsl #2
    6038:	007bd905 	rsbseq	sp, fp, r5, lsl #18
    603c:	0c500000 	mraeq	r0, r0, acc0
    6040:	00001375 	andeq	r1, r0, r5, ror r3
    6044:	0429dc05 	strteq	sp, [r9], #-3077	; 0xc05
    6048:	0c540000 	mraeq	r0, r4, acc0
    604c:	0000072f 	andeq	r0, r0, pc, lsr #14
    6050:	00ffe005 	rscseq	lr, pc, r5
    6054:	0c580000 	mraeq	r0, r8, acc0
    6058:	000011b0 			; <UNDEFINED> instruction: 0x000011b0
    605c:	00f4e205 	rscseq	lr, r4, r5, lsl #4
    6060:	0c5c0000 	mraeq	r0, ip, acc0
    6064:	000010fa 	strdeq	r1, [r0], -sl
    6068:	0025e305 	eoreq	lr, r5, r5, lsl #6
    606c:	00640000 	rsbeq	r0, r4, r0
    6070:	00002515 	andeq	r2, r0, r5, lsl r5
    6074:	00042900 	andeq	r2, r4, r0, lsl #18
    6078:	04291600 	strteq	r1, [r9], #-1536	; 0x600
    607c:	0a160000 	beq	586084 <__bss_end__+0x5796bc>
    6080:	16000001 	strne	r0, [r0], -r1
    6084:	0000010c 	andeq	r0, r0, ip, lsl #2
    6088:	00002516 	andeq	r2, r0, r6, lsl r5
    608c:	040e0000 	streq	r0, [lr], #-0
    6090:	00000434 	andeq	r0, r0, r4, lsr r4
    6094:	0004290f 	andeq	r2, r4, pc, lsl #18
    6098:	11fd1700 	mvnsne	r1, r0, lsl #14
    609c:	04280000 	strteq	r0, [r8], #-0
    60a0:	66023805 	strvs	r3, [r2], -r5, lsl #16
    60a4:	18000005 	stmdane	r0, {r0, r2}
    60a8:	00001178 	andeq	r1, r0, r8, ror r1
    60ac:	25023a05 	strcs	r3, [r2, #-2565]	; 0xa05
    60b0:	00000000 	andeq	r0, r0, r0
    60b4:	000fa318 	andeq	sl, pc, r8, lsl r3	; <UNPREDICTABLE>
    60b8:	023f0500 	eorseq	r0, pc, #0, 10
    60bc:	0000063b 	andeq	r0, r0, fp, lsr r6
    60c0:	10971804 	addsne	r1, r7, r4, lsl #16
    60c4:	3f050000 	svccc	0x00050000
    60c8:	00063b02 	andeq	r3, r6, r2, lsl #22
    60cc:	58180800 	ldmdapl	r8, {fp}
    60d0:	05000010 	streq	r0, [r0, #-16]
    60d4:	063b023f 			; <UNDEFINED> instruction: 0x063b023f
    60d8:	180c0000 	stmdane	ip, {}	; <UNPREDICTABLE>
    60dc:	000011d1 	ldrdeq	r1, [r0], -r1	; <UNPREDICTABLE>
    60e0:	25024105 	strcs	r4, [r2, #-261]	; 0x105
    60e4:	10000000 	andne	r0, r0, r0
    60e8:	000ece18 	andeq	ip, lr, r8, lsl lr
    60ec:	02420500 	subeq	r0, r2, #0, 10
    60f0:	0000081d 	andeq	r0, r0, sp, lsl r8
    60f4:	12ef1814 	rscne	r1, pc, #20, 16	; 0x140000
    60f8:	44050000 	strmi	r0, [r5], #-0
    60fc:	00002502 	andeq	r2, r0, r2, lsl #10
    6100:	db183000 	blle	612108 <__bss_end__+0x605740>
    6104:	05000011 	streq	r0, [r0, #-17]
    6108:	058a0245 	streq	r0, [sl, #581]	; 0x245
    610c:	18340000 	ldmdane	r4!, {}	; <UNPREDICTABLE>
    6110:	0000113e 	andeq	r1, r0, lr, lsr r1
    6114:	25024705 	strcs	r4, [r2, #-1797]	; 0x705
    6118:	38000000 	stmdacc	r0, {}	; <UNPREDICTABLE>
    611c:	0011eb18 	andseq	lr, r1, r8, lsl fp
    6120:	02490500 	subeq	r0, r9, #0, 10
    6124:	00000838 	andeq	r0, r0, r8, lsr r8
    6128:	10d6183c 	sbcsne	r1, r6, ip, lsr r8
    612c:	4c050000 	stcmi	0, cr0, [r5], {-0}
    6130:	00017c02 	andeq	r7, r1, r2, lsl #24
    6134:	77184000 	ldrvc	r4, [r8, -r0]
    6138:	05000010 	streq	r0, [r0, #-16]
    613c:	0025024d 	eoreq	r0, r5, sp, asr #4
    6140:	18440000 	stmdane	r4, {}^	; <UNPREDICTABLE>
    6144:	000013f9 	strdeq	r1, [r0], -r9
    6148:	7c024e05 	stcvc	14, cr4, [r2], {5}
    614c:	48000001 	stmdami	r0, {r0}
    6150:	00115518 	andseq	r5, r1, r8, lsl r5
    6154:	024f0500 	subeq	r0, pc, #0, 10
    6158:	0000083e 	andeq	r0, r0, lr, lsr r8
    615c:	109f184c 	addsne	r1, pc, ip, asr #16
    6160:	52050000 	andpl	r0, r5, #0
    6164:	00002502 	andeq	r2, r0, r2, lsl #10
    6168:	c6185000 	ldrgt	r5, [r8], -r0
    616c:	0500000f 	streq	r0, [r0, #-15]
    6170:	010c0253 	tsteq	ip, r3, asr r2
    6174:	18540000 	ldmdane	r4, {}^	; <UNPREDICTABLE>
    6178:	00001171 	andeq	r1, r0, r1, ror r1
    617c:	fb027605 	blx	a399a <__bss_end__+0x96fd2>
    6180:	58000007 	stmdapl	r0, {r0, r1, r2}
    6184:	00113619 	andseq	r3, r1, r9, lsl r6
    6188:	027a0500 	rsbseq	r0, sl, #0, 10
    618c:	00000299 	muleq	r0, r9, r2
    6190:	b4190148 	ldrlt	r0, [r9], #-328	; 0x148
    6194:	05000010 	streq	r0, [r0, #-16]
    6198:	025b027b 	subseq	r0, fp, #-1342177273	; 0xb0000007
    619c:	014c0000 	mrseq	r0, (UNDEF: 76)
    61a0:	00135b19 	andseq	r5, r3, r9, lsl fp
    61a4:	027f0500 	rsbseq	r0, pc, #0, 10
    61a8:	0000084f 	andeq	r0, r0, pc, asr #16
    61ac:	8c1902dc 	lfmhi	f0, 4, [r9], {220}	; 0xdc
    61b0:	0500000f 	streq	r0, [r0, #-15]
    61b4:	06000284 	streq	r0, [r0], -r4, lsl #5
    61b8:	02e00000 	rsceq	r0, r0, #0
    61bc:	000f7119 	andeq	r7, pc, r9, lsl r1	; <UNPREDICTABLE>
    61c0:	02850500 	addeq	r0, r5, #0, 10
    61c4:	0000085b 	andeq	r0, r0, fp, asr r8
    61c8:	0e0002ec 	cdpeq	2, 0, cr0, cr0, cr12, {7}
    61cc:	00040b04 	andeq	r0, r4, r4, lsl #22
    61d0:	00251500 	eoreq	r1, r5, r0, lsl #10
    61d4:	058a0000 	streq	r0, [sl]
    61d8:	29160000 	ldmdbcs	r6, {}	; <UNPREDICTABLE>
    61dc:	16000004 	strne	r0, [r0], -r4
    61e0:	0000010a 	andeq	r0, r0, sl, lsl #2
    61e4:	00058a16 	andeq	r8, r5, r6, lsl sl
    61e8:	00251600 	eoreq	r1, r5, r0, lsl #12
    61ec:	0e000000 	cdpeq	0, 0, cr0, cr0, cr0, {0}
    61f0:	00011904 	andeq	r1, r1, r4, lsl #18
    61f4:	6c040e00 	stcvs	14, cr0, [r4], {-0}
    61f8:	15000005 	strne	r0, [r0, #-5]
    61fc:	00000086 	andeq	r0, r0, r6, lsl #1
    6200:	000005b4 			; <UNDEFINED> instruction: 0x000005b4
    6204:	00042916 	andeq	r2, r4, r6, lsl r9
    6208:	010a1600 	tsteq	sl, r0, lsl #12
    620c:	86160000 	ldrhi	r0, [r6], -r0
    6210:	16000000 	strne	r0, [r0], -r0
    6214:	00000025 	andeq	r0, r0, r5, lsr #32
    6218:	96040e00 	strls	r0, [r4], -r0, lsl #28
    621c:	15000005 	strne	r0, [r0, #-5]
    6220:	00000025 	andeq	r0, r0, r5, lsr #32
    6224:	000005ce 	andeq	r0, r0, lr, asr #11
    6228:	00042916 	andeq	r2, r4, r6, lsl r9
    622c:	010a1600 	tsteq	sl, r0, lsl #12
    6230:	0e000000 	cdpeq	0, 0, cr0, cr0, cr0, {0}
    6234:	0005ba04 	andeq	fp, r5, r4, lsl #20
    6238:	00540900 	subseq	r0, r4, r0, lsl #18
    623c:	05e40000 	strbeq	r0, [r4, #0]!
    6240:	cc0a0000 	stcgt	0, cr0, [sl], {-0}
    6244:	02000000 	andeq	r0, r0, #0
    6248:	00540900 	subseq	r0, r4, r0, lsl #18
    624c:	05f40000 	ldrbeq	r0, [r4, #0]!
    6250:	cc0a0000 	stcgt	0, cr0, [sl], {-0}
    6254:	00000000 	andeq	r0, r0, r0
    6258:	11960600 	orrsne	r0, r6, r0, lsl #12
    625c:	1d050000 	stcne	0, cr0, [r5, #-0]
    6260:	0002e101 	andeq	lr, r2, r1, lsl #2
    6264:	131d1a00 	tstne	sp, #0, 20
    6268:	050c0000 	streq	r0, [ip, #-0]
    626c:	06350121 	ldrteq	r0, [r5], -r1, lsr #2
    6270:	be180000 	cdplt	0, 1, cr0, cr8, cr0, {0}
    6274:	05000011 	streq	r0, [r0, #-17]
    6278:	06350123 	ldrteq	r0, [r5], -r3, lsr #2
    627c:	18000000 	stmdane	r0, {}	; <UNPREDICTABLE>
    6280:	000010ad 	andeq	r1, r0, sp, lsr #1
    6284:	25012405 	strcs	r2, [r1, #-1029]	; 0x405
    6288:	04000000 	streq	r0, [r0], #-0
    628c:	00119018 	andseq	r9, r1, r8, lsl r0
    6290:	01250500 	teqeq	r5, r0, lsl #10
    6294:	0000063b 	andeq	r0, r0, fp, lsr r6
    6298:	040e0008 	streq	r0, [lr], #-8
    629c:	00000600 	andeq	r0, r0, r0, lsl #12
    62a0:	05f4040e 	ldrbeq	r0, [r4, #1038]!	; 0x40e
    62a4:	c61a0000 	ldrgt	r0, [sl], -r0
    62a8:	0e00000e 	cdpeq	0, 0, cr0, cr0, cr14, {0}
    62ac:	76013d05 	strvc	r3, [r1], -r5, lsl #26
    62b0:	18000006 	stmdane	r0, {r1, r2}
    62b4:	00001204 	andeq	r1, r0, r4, lsl #4
    62b8:	76013e05 	strvc	r3, [r1], -r5, lsl #28
    62bc:	00000006 	andeq	r0, r0, r6
    62c0:	00123e18 	andseq	r3, r2, r8, lsl lr
    62c4:	013f0500 	teqeq	pc, r0, lsl #10
    62c8:	00000676 	andeq	r0, r0, r6, ror r6
    62cc:	12c21806 	sbcne	r1, r2, #393216	; 0x60000
    62d0:	40050000 	andmi	r0, r5, r0
    62d4:	00005b01 	andeq	r5, r0, r1, lsl #22
    62d8:	09000c00 	stmdbeq	r0, {sl, fp}
    62dc:	0000005b 	andeq	r0, r0, fp, asr r0
    62e0:	00000686 	andeq	r0, r0, r6, lsl #13
    62e4:	0000cc0a 	andeq	ip, r0, sl, lsl #24
    62e8:	1b000200 	blne	6af0 <__code_start__-0x1510>
    62ec:	025705d0 	subseq	r0, r7, #208, 10	; 0x34000000
    62f0:	00000787 	andeq	r0, r0, r7, lsl #15
    62f4:	00130118 	andseq	r0, r3, r8, lsl r1
    62f8:	02590500 	subseq	r0, r9, #0, 10
    62fc:	0000002c 	andeq	r0, r0, ip, lsr #32
    6300:	12ac1800 	adcne	r1, ip, #0, 16
    6304:	5a050000 	bpl	14630c <__bss_end__+0x139944>
    6308:	00010c02 	andeq	r0, r1, r2, lsl #24
    630c:	c9180400 	ldmdbgt	r8, {sl}
    6310:	05000010 	streq	r0, [r0, #-16]
    6314:	0787025b 			; <UNDEFINED> instruction: 0x0787025b
    6318:	18080000 	stmdane	r8, {}	; <UNPREDICTABLE>
    631c:	000013d0 	ldrdeq	r1, [r0], -r0
    6320:	92025c05 	andls	r5, r2, #1280	; 0x500
    6324:	24000001 	strcs	r0, [r0], #-1
    6328:	00106818 	andseq	r6, r0, r8, lsl r8
    632c:	025d0500 	subseq	r0, sp, #0, 10
    6330:	00000025 	andeq	r0, r0, r5, lsr #32
    6334:	11b91848 			; <UNDEFINED> instruction: 0x11b91848
    6338:	5e050000 	cdppl	0, 0, cr0, cr5, cr0, {0}
    633c:	00006902 	andeq	r6, r0, r2, lsl #18
    6340:	e6185000 	ldr	r5, [r8], -r0
    6344:	05000013 	streq	r0, [r0, #-19]
    6348:	0641025f 			; <UNDEFINED> instruction: 0x0641025f
    634c:	18580000 	ldmdane	r8, {}^	; <UNPREDICTABLE>
    6350:	000011c4 	andeq	r1, r0, r4, asr #3
    6354:	f4026005 	vst4.8	{d6-d9}, [r2], r5
    6358:	68000000 	stmdavs	r0, {}	; <UNPREDICTABLE>
    635c:	0013eb18 	andseq	lr, r3, r8, lsl fp
    6360:	02610500 	rsbeq	r0, r1, #0, 10
    6364:	000000f4 	strdeq	r0, [r0], -r4
    6368:	0f2b1870 	svceq	0x002b1870
    636c:	62050000 	andvs	r0, r5, #0
    6370:	0000f402 	andeq	pc, r0, r2, lsl #8
    6374:	3d187800 	ldccc	8, cr7, [r8, #-0]
    6378:	05000013 	streq	r0, [r0, #-19]
    637c:	07970263 	ldreq	r0, [r7, r3, ror #4]
    6380:	18800000 	stmne	r0, {}	; <UNPREDICTABLE>
    6384:	000010bd 	strheq	r1, [r0], -sp
    6388:	a7026405 	strge	r6, [r2, -r5, lsl #8]
    638c:	88000007 	stmdahi	r0, {r0, r1, r2}
    6390:	0012cf18 	andseq	ip, r2, r8, lsl pc
    6394:	02650500 	rsbeq	r0, r5, #0, 10
    6398:	00000025 	andeq	r0, r0, r5, lsr #32
    639c:	101418a0 	andsne	r1, r4, r0, lsr #17
    63a0:	66050000 	strvs	r0, [r5], -r0
    63a4:	0000f402 	andeq	pc, r0, r2, lsl #8
    63a8:	1c18a400 	cfldrsne	mvf10, [r8], {-0}
    63ac:	0500000f 	streq	r0, [r0, #-15]
    63b0:	00f40267 	rscseq	r0, r4, r7, ror #4
    63b4:	18ac0000 	stmiane	ip!, {}	; <UNPREDICTABLE>
    63b8:	00001003 	andeq	r1, r0, r3
    63bc:	f4026805 	vst2.8	{d6-d7}, [r2], r5
    63c0:	b4000000 	strlt	r0, [r0], #-0
    63c4:	000ee318 	andeq	lr, lr, r8, lsl r3
    63c8:	02690500 	rsbeq	r0, r9, #0, 10
    63cc:	000000f4 	strdeq	r0, [r0], -r4
    63d0:	0ef218bc 	mrceq	8, 7, r1, cr2, cr12, {5}
    63d4:	6a050000 	bvs	1463dc <__bss_end__+0x139a14>
    63d8:	0000f402 	andeq	pc, r0, r2, lsl #8
    63dc:	7618c400 	ldrvc	ip, [r8], -r0, lsl #8
    63e0:	05000011 	streq	r0, [r0, #-17]
    63e4:	0025026b 	eoreq	r0, r5, fp, ror #4
    63e8:	00cc0000 	sbceq	r0, ip, r0
    63ec:	00011209 	andeq	r1, r1, r9, lsl #4
    63f0:	00079700 	andeq	r9, r7, r0, lsl #14
    63f4:	00cc0a00 	sbceq	r0, ip, r0, lsl #20
    63f8:	00190000 	andseq	r0, r9, r0
    63fc:	00011209 	andeq	r1, r1, r9, lsl #4
    6400:	0007a700 	andeq	sl, r7, r0, lsl #14
    6404:	00cc0a00 	sbceq	r0, ip, r0, lsl #20
    6408:	00070000 	andeq	r0, r7, r0
    640c:	00011209 	andeq	r1, r1, r9, lsl #4
    6410:	0007b700 	andeq	fp, r7, r0, lsl #14
    6414:	00cc0a00 	sbceq	r0, ip, r0, lsl #20
    6418:	00170000 	andseq	r0, r7, r0
    641c:	7005f01b 	andvc	pc, r5, fp, lsl r0	; <UNPREDICTABLE>
    6420:	0007db02 	andeq	sp, r7, r2, lsl #22
    6424:	11261800 	teqne	r6, r0, lsl #16
    6428:	73050000 	movwvc	r0, #20480	; 0x5000
    642c:	0007db02 	andeq	sp, r7, r2, lsl #22
    6430:	34180000 	ldrcc	r0, [r8], #-0
    6434:	05000013 	streq	r0, [r0, #-19]
    6438:	07eb0274 			; <UNDEFINED> instruction: 0x07eb0274
    643c:	00780000 	rsbseq	r0, r8, r0
    6440:	0002db09 	andeq	sp, r2, r9, lsl #22
    6444:	0007eb00 	andeq	lr, r7, r0, lsl #22
    6448:	00cc0a00 	sbceq	r0, ip, r0, lsl #20
    644c:	001d0000 	andseq	r0, sp, r0
    6450:	00002c09 	andeq	r2, r0, r9, lsl #24
    6454:	0007fb00 	andeq	pc, r7, r0, lsl #22
    6458:	00cc0a00 	sbceq	r0, ip, r0, lsl #20
    645c:	001d0000 	andseq	r0, sp, r0
    6460:	5505f01c 	strpl	pc, [r5, #-28]
    6464:	00081d02 	andeq	r1, r8, r2, lsl #26
    6468:	11fd1d00 	mvnsne	r1, r0, lsl #26
    646c:	6c050000 	stcvs	0, cr0, [r5], {-0}
    6470:	00068602 	andeq	r8, r6, r2, lsl #12
    6474:	13901d00 	orrsne	r1, r0, #0, 26
    6478:	75050000 	strvc	r0, [r5, #-0]
    647c:	0007b702 	andeq	fp, r7, r2, lsl #14
    6480:	12090000 	andne	r0, r9, #0
    6484:	2d000001 	stccs	0, cr0, [r0, #-4]
    6488:	0a000008 	beq	64b0 <__code_start__-0x1b50>
    648c:	000000cc 	andeq	r0, r0, ip, asr #1
    6490:	381e0018 	ldmdacc	lr, {r3, r4}
    6494:	16000008 	strne	r0, [r0], -r8
    6498:	00000429 	andeq	r0, r0, r9, lsr #8
    649c:	2d040e00 	stccs	14, cr0, [r4, #-0]
    64a0:	0e000008 	cdpeq	0, 0, cr0, cr0, cr8, {0}
    64a4:	00017c04 	andeq	r7, r1, r4, lsl #24
    64a8:	084f1e00 	stmdaeq	pc, {r9, sl, fp, ip}^	; <UNPREDICTABLE>
    64ac:	25160000 	ldrcs	r0, [r6, #-0]
    64b0:	00000000 	andeq	r0, r0, r0
    64b4:	0855040e 	ldmdaeq	r5, {r1, r2, r3, sl}^
    64b8:	040e0000 	streq	r0, [lr], #-0
    64bc:	00000844 	andeq	r0, r0, r4, asr #16
    64c0:	0005f409 	andeq	pc, r5, r9, lsl #8
    64c4:	00086b00 	andeq	r6, r8, r0, lsl #22
    64c8:	00cc0a00 	sbceq	r0, ip, r0, lsl #20
    64cc:	00020000 	andeq	r0, r2, r0
    64d0:	0012e31f 	andseq	lr, r2, pc, lsl r3
    64d4:	02fd0500 	rscseq	r0, sp, #0, 10
    64d8:	00000429 	andeq	r0, r0, r9, lsr #8
    64dc:	0012dc1f 	andseq	sp, r2, pc, lsl ip
    64e0:	02fe0500 	rscseq	r0, lr, #0, 10
    64e4:	0000042f 	andeq	r0, r0, pc, lsr #8
    64e8:	00002515 	andeq	r2, r0, r5, lsl r5
    64ec:	00089200 	andeq	r9, r8, r0, lsl #4
    64f0:	00251600 	eoreq	r1, r5, r0, lsl #12
    64f4:	20000000 	andcs	r0, r0, r0
    64f8:	00000acf 	andeq	r0, r0, pc, asr #21
    64fc:	089d1d06 	ldmeq	sp, {r1, r2, r8, sl, fp, ip}
    6500:	040e0000 	streq	r0, [lr], #-0
    6504:	00000883 	andeq	r0, r0, r3, lsl #17
    6508:	00002515 	andeq	r2, r0, r5, lsl r5
    650c:	0008b200 	andeq	fp, r8, r0, lsl #4
    6510:	058a1600 	streq	r1, [sl, #1536]	; 0x600
    6514:	20000000 	andcs	r0, r0, r0
    6518:	00000b0c 	andeq	r0, r0, ip, lsl #22
    651c:	08bd2206 	popeq	{r1, r2, r9, sp}
    6520:	040e0000 	streq	r0, [lr], #-0
    6524:	000008a3 	andeq	r0, r0, r3, lsr #17
    6528:	00540121 	subseq	r0, r4, r1, lsr #2
    652c:	0c080000 	stceq	0, cr0, [r8], {-0}
    6530:	00000900 	andeq	r0, r0, r0, lsl #18
    6534:	000f0c22 	andeq	r0, pc, r2, lsr #24
    6538:	23220000 	teqcs	r2, #0
    653c:	01000013 	tsteq	r0, r3, lsl r0
    6540:	00137b22 	andseq	r7, r3, r2, lsr #22
    6544:	4d220400 	cfstrsmi	mvf0, [r2, #-0]
    6548:	0500000f 	streq	r0, [r0, #-15]
    654c:	0010e422 	andseq	lr, r0, r2, lsr #8
    6550:	98220600 	stmdals	r2!, {r9, sl}
    6554:	07000013 	smladeq	r0, r3, r0, r0
    6558:	0013a722 	andseq	sl, r3, r2, lsr #14
    655c:	b6220300 	strtlt	r0, [r2], -r0, lsl #6
    6560:	02000013 	andeq	r0, r0, #19
    6564:	0fba1000 	svceq	0x00ba1000
    6568:	072c0000 	streq	r0, [ip, -r0]!
    656c:	00099006 	andeq	r9, r9, r6
    6570:	6f691100 	svcvs	0x00691100
    6574:	33090700 	movwcc	r0, #38656	; 0x9700
    6578:	00000000 	andeq	r0, r0, r0
    657c:	72656911 	rsbvc	r6, r5, #278528	; 0x44000
    6580:	330a0700 	movwcc	r0, #42752	; 0xa700
    6584:	04000000 	streq	r0, [r0], #-0
    6588:	72696911 	rsbvc	r6, r9, #278528	; 0x44000
    658c:	33110700 	tstcc	r1, #0, 14
    6590:	08000000 	stmdaeq	r0, {}	; <UNPREDICTABLE>
    6594:	72636c11 	rsbvc	r6, r3, #4352	; 0x1100
    6598:	33130700 	tstcc	r3, #0, 14
    659c:	0c000000 	stceq	0, cr0, [r0], {-0}
    65a0:	72636d11 	rsbvc	r6, r3, #1088	; 0x440
    65a4:	33140700 	tstcc	r4, #0, 14
    65a8:	10000000 	andne	r0, r0, r0
    65ac:	72736c11 	rsbsvc	r6, r3, #4352	; 0x1100
    65b0:	33150700 	tstcc	r5, #0, 14
    65b4:	14000000 	strne	r0, [r0], #-0
    65b8:	72736d11 	rsbsvc	r6, r3, #1088	; 0x440
    65bc:	33160700 	tstcc	r6, #0, 14
    65c0:	18000000 	stmdane	r0, {}	; <UNPREDICTABLE>
    65c4:	0012360c 	andseq	r3, r2, ip, lsl #12
    65c8:	33170700 	tstcc	r7, #0, 14
    65cc:	1c000000 	stcne	0, cr0, [r0], {-0}
    65d0:	000f620c 	andeq	r6, pc, ip, lsl #4
    65d4:	331b0700 	tstcc	fp, #0, 14
    65d8:	20000000 	andcs	r0, r0, r0
    65dc:	000f420c 	andeq	r4, pc, ip, lsl #4
    65e0:	331d0700 	tstcc	sp, #0, 14
    65e4:	24000000 	strcs	r0, [r0], #-0
    65e8:	0012200c 	andseq	r2, r2, ip
    65ec:	331e0700 	tstcc	lr, #0, 14
    65f0:	28000000 	stmdacs	r0, {}	; <UNPREDICTABLE>
    65f4:	102a2300 	eorne	r2, sl, r0, lsl #6
    65f8:	07010000 	streq	r0, [r1, -r0]
    65fc:	000009a5 	andeq	r0, r0, r5, lsr #19
    6600:	20215004 	eorcs	r5, r1, r4
    6604:	0033040e 	eorseq	r0, r3, lr, lsl #8
    6608:	9f0f0000 	svcls	0x000f0000
    660c:	23000009 	movwcs	r0, #9
    6610:	00001150 	andeq	r1, r0, r0, asr r1
    6614:	09bf2801 	ldmibeq	pc!, {r0, fp, sp}	; <UNPREDICTABLE>
    6618:	50400000 	subpl	r0, r0, r0
    661c:	040e2021 	streq	r2, [lr], #-33	; 0x21
    6620:	00000900 	andeq	r0, r0, r0, lsl #18
    6624:	0009b90f 	andeq	fp, r9, pc, lsl #18
    6628:	136d2400 	cmnne	sp, #0, 8
    662c:	a7010000 	strge	r0, [r1, -r0]
    6630:	00000025 	andeq	r0, r0, r5, lsr #32
    6634:	0000af80 	andeq	sl, r0, r0, lsl #31
    6638:	00000010 	andeq	r0, r0, r0, lsl r0
    663c:	09f09c01 	ldmibeq	r0!, {r0, sl, fp, ip, pc}^
    6640:	88250000 	stmdahi	r5!, {}	; <UNPREDICTABLE>
    6644:	9c0000af 	stcls	0, cr0, [r0], {175}	; 0xaf
    6648:	2500000c 	strcs	r0, [r0, #-12]
    664c:	0000af8c 	andeq	sl, r0, ip, lsl #31
    6650:	00000ad2 	ldrdeq	r0, [r0], -r2
    6654:	0ab42600 	beq	fed0fe5c <__bss_end__+0xfed03494>
    6658:	9f010000 	svcls	0x00010000
    665c:	0000af50 	andeq	sl, r0, r0, asr pc
    6660:	00000030 	andeq	r0, r0, r0, lsr r0
    6664:	0a4e9c01 	beq	13ad670 <__bss_end__+0x13a0ca8>
    6668:	63270000 	teqvs	r7, #0
    666c:	2c9f0100 	ldfcss	f0, [pc], {0}
    6670:	d2000000 	andle	r0, r0, #0
    6674:	2500001c 	strcs	r0, [r0, #-28]
    6678:	0000af5c 	andeq	sl, r0, ip, asr pc
    667c:	00000c9c 	muleq	r0, ip, ip
    6680:	00af6025 	adceq	r6, pc, r5, lsr #32
    6684:	000aa500 	andeq	sl, sl, r0, lsl #10
    6688:	af742800 	svcge	0x00742800
    668c:	0ca70000 	stceq	0, cr0, [r7]
    6690:	0a440000 	beq	1106698 <__bss_end__+0x10f9cd0>
    6694:	01290000 	teqeq	r9, r0
    6698:	400c0550 	andmi	r0, ip, r0, asr r5
    669c:	29202150 	stmdbcs	r0!, {r4, r6, r8, sp}
    66a0:	74055101 	strvc	r5, [r5], #-257	; 0x101
    66a4:	1aff0800 	bne	fffc86ac <__bss_end__+0xfffbbce4>
    66a8:	af782500 	svcge	0x00782500
    66ac:	0c9c0000 	ldceq	0, cr0, [ip], {0}
    66b0:	24000000 	strcs	r0, [r0], #-0
    66b4:	0000108d 	andeq	r1, r0, sp, lsl #1
    66b8:	00259701 	eoreq	r9, r5, r1, lsl #14
    66bc:	af200000 	svcge	0x00200000
    66c0:	00300000 	eorseq	r0, r0, r0
    66c4:	9c010000 	stcls	0, cr0, [r1], {-0}
    66c8:	00000aa5 	andeq	r0, r0, r5, lsr #21
    66cc:	0100632a 	tsteq	r0, sl, lsr #6
    66d0:	0000259b 	muleq	r0, fp, r5
    66d4:	25540100 	ldrbcs	r0, [r4, #-256]	; 0x100
    66d8:	0000af28 	andeq	sl, r0, r8, lsr #30
    66dc:	00000c9c 	muleq	r0, ip, ip
    66e0:	00af2c25 	adceq	r2, pc, r5, lsr #24
    66e4:	000ad200 	andeq	sp, sl, r0, lsl #4
    66e8:	af3c2800 	svcge	0x003c2800
    66ec:	0cb20000 	ldceq	0, cr0, [r2]
    66f0:	0a9b0000 	beq	fe6c66f8 <__bss_end__+0xfe6b9d30>
    66f4:	01290000 	teqeq	r9, r0
    66f8:	400c0550 	andmi	r0, ip, r0, asr r5
    66fc:	00202150 	eoreq	r2, r0, r0, asr r1
    6700:	00af4425 	adceq	r4, pc, r5, lsr #8
    6704:	000c9c00 	andeq	r9, ip, r0, lsl #24
    6708:	41240000 	teqmi	r4, r0
    670c:	01000010 	tsteq	r0, r0, lsl r0
    6710:	00002588 	andeq	r2, r0, r8, lsl #11
    6714:	00af0000 	adceq	r0, pc, r0
    6718:	00002000 	andeq	r2, r0, r0
    671c:	d29c0100 	addsle	r0, ip, #0, 2
    6720:	2b00000a 	blcs	6750 <__code_start__-0x18b0>
    6724:	0000af0c 	andeq	sl, r0, ip, lsl #30
    6728:	00000cb2 			; <UNDEFINED> instruction: 0x00000cb2
    672c:	05500129 	ldrbeq	r0, [r0, #-297]	; 0x129
    6730:	2150640c 	cmpcs	r0, ip, lsl #8
    6734:	24000020 	strcs	r0, [r0], #-32
    6738:	0000134d 	andeq	r1, r0, sp, asr #6
    673c:	00257f01 	eoreq	r7, r5, r1, lsl #30
    6740:	aee80000 	cdpge	0, 14, cr0, cr8, cr0, {0}
    6744:	00180000 	andseq	r0, r8, r0
    6748:	9c010000 	stcls	0, cr0, [r1], {-0}
    674c:	00000aff 	strdeq	r0, [r0], -pc	; <UNPREDICTABLE>
    6750:	00aef42b 	adceq	pc, lr, fp, lsr #8
    6754:	000cb200 	andeq	fp, ip, r0, lsl #4
    6758:	50012900 	andpl	r2, r1, r0, lsl #18
    675c:	50640c05 	rsbpl	r0, r4, r5, lsl #24
    6760:	00002021 	andeq	r2, r0, r1, lsr #32
    6764:	000ed926 	andeq	sp, lr, r6, lsr #18
    6768:	383a0100 	ldmdacc	sl!, {r8}
    676c:	b00000ae 	andlt	r0, r0, lr, lsr #1
    6770:	01000000 	mrseq	r0, (UNDEF: 0)
    6774:	000c3d9c 	muleq	ip, ip, sp
    6778:	ae482800 	cdpge	8, 4, cr2, cr8, cr0, {0}
    677c:	0cbd0000 	ldceq	0, cr0, [sp]
    6780:	0b2c0000 	bleq	b06788 <__bss_end__+0xaf9dc0>
    6784:	01290000 	teqeq	r9, r0
    6788:	293e0150 	ldmdbcs	lr!, {r4, r6, r8}
    678c:	32015101 	andcc	r5, r1, #1073741824	; 0x40000000
    6790:	ae542800 	cdpge	8, 5, cr2, cr4, cr0, {0}
    6794:	0cbd0000 	ldceq	0, cr0, [sp]
    6798:	0b440000 	bleq	11067a0 <__bss_end__+0x10f9dd8>
    679c:	01290000 	teqeq	r9, r0
    67a0:	293f0150 	ldmdbcs	pc!, {r4, r6, r8}	; <UNPREDICTABLE>
    67a4:	32015101 	andcc	r5, r1, #1073741824	; 0x40000000
    67a8:	ae582500 	cdpge	5, 5, cr2, cr8, cr0, {0}
    67ac:	0c9c0000 	ldceq	0, cr0, [ip], {0}
    67b0:	64280000 	strtvs	r0, [r8], #-0
    67b4:	3d0000ae 	stccc	0, cr0, [r0, #-696]	; 0xfffffd48
    67b8:	6900000c 	stmdbvs	r0, {r2, r3}
    67bc:	2900000b 	stmdbcs	r0, {r0, r1, r3}
    67c0:	0c055001 	stceq	0, cr5, [r5], {1}
    67c4:	20215004 	eorcs	r5, r1, r4
    67c8:	01510129 	cmpeq	r1, r9, lsr #2
    67cc:	68250031 	stmdavs	r5!, {r0, r4, r5}
    67d0:	9c0000ae 	stcls	0, cr0, [r0], {174}	; 0xae
    67d4:	2800000c 	stmdacs	r0, {r2, r3}
    67d8:	0000ae78 	andeq	sl, r0, r8, ror lr
    67dc:	00000ca7 	andeq	r0, r0, r7, lsr #25
    67e0:	00000b8b 	andeq	r0, r0, fp, lsl #23
    67e4:	02500129 	subseq	r0, r0, #1073741834	; 0x4000000a
    67e8:	01290074 	teqeq	r9, r4, ror r0
    67ec:	00300151 	eorseq	r0, r0, r1, asr r1
    67f0:	00ae8428 	adceq	r8, lr, r8, lsr #8
    67f4:	000ca700 	andeq	sl, ip, r0, lsl #14
    67f8:	000ba700 	andeq	sl, fp, r0, lsl #14
    67fc:	50012900 	andpl	r2, r1, r0, lsl #18
    6800:	50440c05 	subpl	r0, r4, r5, lsl #24
    6804:	01292021 	teqeq	r9, r1, lsr #32
    6808:	00300151 	eorseq	r0, r0, r1, asr r1
    680c:	00ae9028 	adceq	r9, lr, r8, lsr #32
    6810:	000ca700 	andeq	sl, ip, r0, lsl #14
    6814:	000bc300 	andeq	ip, fp, r0, lsl #6
    6818:	50012900 	andpl	r2, r1, r0, lsl #18
    681c:	504c0c05 	subpl	r0, ip, r5, lsl #24
    6820:	01292021 	teqeq	r9, r1, lsr #32
    6824:	00330151 	eorseq	r0, r3, r1, asr r1
    6828:	00ae9c28 	adceq	r9, lr, r8, lsr #24
    682c:	000ca700 	andeq	sl, ip, r0, lsl #14
    6830:	000bdf00 	andeq	sp, fp, r0, lsl #30
    6834:	50012900 	andpl	r2, r1, r0, lsl #18
    6838:	50500c05 	subspl	r0, r0, r5, lsl #24
    683c:	01292021 	teqeq	r9, r1, lsr #32
    6840:	00300151 	eorseq	r0, r0, r1, asr r1
    6844:	00aea828 	adceq	sl, lr, r8, lsr #16
    6848:	000ca700 	andeq	sl, ip, r0, lsl #14
    684c:	000bfc00 	andeq	pc, fp, r0, lsl #24
    6850:	50012900 	andpl	r2, r1, r0, lsl #18
    6854:	50480c05 	subpl	r0, r8, r5, lsl #24
    6858:	01292021 	teqeq	r9, r1, lsr #32
    685c:	c7080251 	smlsdgt	r8, r1, r2, r0
    6860:	aeb42800 	cdpge	8, 11, cr2, cr4, cr0, {0}
    6864:	0ca70000 	stceq	0, cr0, [r7]
    6868:	0c1a0000 	ldceq	0, cr0, [sl], {-0}
    686c:	01290000 	teqeq	r9, r0
    6870:	680c0550 	stmdavs	ip, {r4, r6, r8, sl}
    6874:	29202150 	stmdbcs	r0!, {r4, r6, r8, sp}
    6878:	0a035101 	beq	dac84 <__bss_end__+0xce2bc>
    687c:	2800010e 	stmdacs	r0, {r1, r2, r3, r8}
    6880:	0000aec0 	andeq	sl, r0, r0, asr #29
    6884:	00000ca7 	andeq	r0, r0, r7, lsr #25
    6888:	00000c33 	andeq	r0, r0, r3, lsr ip
    688c:	02500129 	subseq	r0, r0, #1073741834	; 0x4000000a
    6890:	01290074 	teqeq	r9, r4, ror r0
    6894:	00330151 	eorseq	r0, r3, r1, asr r1
    6898:	00aec425 	adceq	ip, lr, r5, lsr #8
    689c:	000c9c00 	andeq	r9, ip, r0, lsl #24
    68a0:	652c0000 	strvs	r0, [ip, #-0]!
    68a4:	01000013 	tsteq	r0, r3, lsl r0
    68a8:	00ae182d 	adceq	r1, lr, sp, lsr #16
    68ac:	00002000 	andeq	r2, r0, r0
    68b0:	959c0100 	ldrls	r0, [ip, #256]	; 0x100
    68b4:	2d00000c 	stccs	0, cr0, [r0, #-48]	; 0xffffffd0
    68b8:	00000325 	andeq	r0, r0, r5, lsr #6
    68bc:	0c952d01 	ldceq	13, cr2, [r5], {1}
    68c0:	1cf00000 	ldclne	0, cr0, [r0]
    68c4:	76270000 	strtvc	r0, [r7], -r0
    68c8:	01006c61 	tsteq	r0, r1, ror #24
    68cc:	00002c2d 	andeq	r2, r0, sp, lsr #24
    68d0:	001d0e00 	andseq	r0, sp, r0, lsl #28
    68d4:	ae282800 	cdpge	8, 2, cr2, cr8, cr0, {0}
    68d8:	0cb20000 	ldceq	0, cr0, [r2]
    68dc:	0c840000 	stceq	0, cr0, [r4], {0}
    68e0:	01290000 	teqeq	r9, r0
    68e4:	00740250 	rsbseq	r0, r4, r0, asr r2
    68e8:	ae342b00 	vaddge.f64	d2, d4, d0
    68ec:	0ca70000 	stceq	0, cr0, [r7]
    68f0:	01290000 	teqeq	r9, r0
    68f4:	00740250 	rsbseq	r0, r4, r0, asr r2
    68f8:	040e0000 	streq	r0, [lr], #-0
    68fc:	00000c9b 	muleq	r0, fp, ip
    6900:	0d962f2e 	ldceq	15, cr2, [r6, #184]	; 0xb8
    6904:	0d960000 	ldceq	0, cr0, [r6]
    6908:	89060000 	stmdbhi	r6, {}	; <UNPREDICTABLE>
    690c:	0012442f 	andseq	r4, r2, pc, lsr #8
    6910:	00124400 	andseq	r4, r2, r0, lsl #8
    6914:	2f9c0600 	svccs	0x009c0600
    6918:	00001347 	andeq	r1, r0, r7, asr #6
    691c:	00001347 	andeq	r1, r0, r7, asr #6
    6920:	142fa806 	strtne	sl, [pc], #-2054	; 6928 <__code_start__-0x16d8>
    6924:	14000011 	strne	r0, [r0], #-17
    6928:	08000011 	stmdaeq	r0, {r0, r4}
    692c:	0b700019 	bleq	1c06998 <__bss_end__+0x1bf9fd0>
    6930:	00040000 	andeq	r0, r4, r0
    6934:	0000195d 	andeq	r1, r0, sp, asr r9
    6938:	124a0104 	subne	r0, sl, #4, 2
    693c:	1a0c0000 	bne	306944 <__bss_end__+0x2f9f7c>
    6940:	ce000014 	mcrgt	0, 0, r0, cr0, cr4, {0}
    6944:	9000000f 	andls	r0, r0, pc
    6948:	200000af 	andcs	r0, r0, pc, lsr #1
    694c:	d0000001 	andle	r0, r0, r1
    6950:	02000016 	andeq	r0, r0, #22
    6954:	6e690504 	cdpvs	5, 6, cr0, cr9, cr4, {0}
    6958:	04030074 	streq	r0, [r3], #-116	; 0x74
    695c:	0001df07 	andeq	sp, r1, r7, lsl #30
    6960:	002c0400 	eoreq	r0, ip, r0, lsl #8
    6964:	01030000 	mrseq	r0, (UNDEF: 3)
    6968:	00006f06 	andeq	r6, r0, r6, lsl #30
    696c:	05020300 	streq	r0, [r2, #-768]	; 0x300
    6970:	00000235 	andeq	r0, r0, r5, lsr r2
    6974:	0e050403 	cdpeq	4, 0, cr0, cr5, cr3, {0}
    6978:	03000002 	movweq	r0, #2
    697c:	02090508 	andeq	r0, r9, #8, 10	; 0x2000000
    6980:	01030000 	mrseq	r0, (UNDEF: 3)
    6984:	00006d08 	andeq	r6, r0, r8, lsl #26
    6988:	07020300 	streq	r0, [r2, -r0, lsl #6]
    698c:	00000024 	andeq	r0, r0, r4, lsr #32
    6990:	da070403 	ble	1c79a4 <__bss_end__+0x1bafdc>
    6994:	03000001 	movweq	r0, #1
    6998:	01d50708 	bicseq	r0, r5, r8, lsl #14
    699c:	5f050000 	svcpl	0x00050000
    69a0:	02000011 	andeq	r0, r0, #17
    69a4:	00002507 	andeq	r2, r0, r7, lsl #10
    69a8:	11490500 	cmpne	r9, r0, lsl #10
    69ac:	2c030000 	stccs	0, cr0, [r3], {-0}
    69b0:	00000046 	andeq	r0, r0, r6, asr #32
    69b4:	00122505 	andseq	r2, r2, r5, lsl #10
    69b8:	46720300 	ldrbtmi	r0, [r2], -r0, lsl #6
    69bc:	06000000 	streq	r0, [r0], -r0
    69c0:	000010f3 	strdeq	r1, [r0], -r3
    69c4:	2c016504 	cfstr32cs	mvfx6, [r1], {4}
    69c8:	07000000 	streq	r0, [r0, -r0]
    69cc:	bca60304 	stclt	3, cr0, [r6], #16
    69d0:	08000000 	stmdaeq	r0, {}	; <UNPREDICTABLE>
    69d4:	000010de 	ldrdeq	r1, [r0], -lr
    69d8:	0091a803 	addseq	sl, r1, r3, lsl #16
    69dc:	86080000 	strhi	r0, [r8], -r0
    69e0:	03000010 	movweq	r0, #16
    69e4:	0000bca9 	andeq	fp, r0, r9, lsr #25
    69e8:	54090000 	strpl	r0, [r9], #-0
    69ec:	cc000000 	stcgt	0, cr0, [r0], {-0}
    69f0:	0a000000 	beq	69f8 <__code_start__-0x1608>
    69f4:	000000cc 	andeq	r0, r0, ip, asr #1
    69f8:	04030003 	streq	r0, [r3], #-3
    69fc:	00020007 	andeq	r0, r2, r7
    6a00:	03080b00 	movweq	r0, #35584	; 0x8b00
    6a04:	0000f4a3 	andeq	pc, r0, r3, lsr #9
    6a08:	120a0c00 	andne	r0, sl, #0, 24
    6a0c:	a5030000 	strge	r0, [r3, #-0]
    6a10:	00000025 	andeq	r0, r0, r5, lsr #32
    6a14:	12120c00 	andsne	r0, r2, #0, 24
    6a18:	aa030000 	bge	c6a20 <__bss_end__+0xba058>
    6a1c:	0000009d 	muleq	r0, sp, r0
    6a20:	9d050004 	stcls	0, cr0, [r5, #-16]
    6a24:	03000011 	movweq	r0, #17
    6a28:	0000d3ab 	andeq	sp, r0, fp, lsr #7
    6a2c:	104f0500 	subne	r0, pc, r0, lsl #10
    6a30:	af030000 	svcge	0x00030000
    6a34:	00000070 	andeq	r0, r0, r0, ror r0
    6a38:	040e040d 	streq	r0, [lr], #-1037	; 0x40d
    6a3c:	00000112 	andeq	r0, r0, r2, lsl r1
    6a40:	76080103 	strvc	r0, [r8], -r3, lsl #2
    6a44:	04000000 	streq	r0, [r0], #-0
    6a48:	00000112 	andeq	r0, r0, r2, lsl r1
    6a4c:	0012c705 	andseq	ip, r2, r5, lsl #14
    6a50:	62160500 	andsvs	r0, r6, #0, 10
    6a54:	0f000000 	svceq	0x00000000
    6a58:	00001060 	andeq	r1, r0, r0, rrx
    6a5c:	7c2d0518 	cfstr32vc	mvfx0, [sp], #-96	; 0xffffffa0
    6a60:	0c000001 	stceq	0, cr0, [r0], {1}
    6a64:	000011be 			; <UNDEFINED> instruction: 0x000011be
    6a68:	017c2f05 	cmneq	ip, r5, lsl #30
    6a6c:	10000000 	andne	r0, r0, r0
    6a70:	05006b5f 	streq	r6, [r0, #-2911]	; 0xb5f
    6a74:	00002530 	andeq	r2, r0, r0, lsr r5
    6a78:	f50c0400 			; <UNDEFINED> instruction: 0xf50c0400
    6a7c:	05000011 	streq	r0, [r0, #-17]
    6a80:	00002530 	andeq	r2, r0, r0, lsr r5
    6a84:	3b0c0800 	blcc	308a8c <__bss_end__+0x2fc0c4>
    6a88:	05000010 	streq	r0, [r0, #-16]
    6a8c:	00002530 	andeq	r2, r0, r0, lsr r5
    6a90:	0e0c0c00 	cdpeq	12, 0, cr0, cr12, cr0, {0}
    6a94:	05000013 	streq	r0, [r0, #-19]
    6a98:	00002530 	andeq	r2, r0, r0, lsr r5
    6a9c:	5f101000 	svcpl	0x00101000
    6aa0:	31050078 	tstcc	r5, r8, ror r0
    6aa4:	00000182 	andeq	r0, r0, r2, lsl #3
    6aa8:	040e0014 	streq	r0, [lr], #-20
    6aac:	00000129 	andeq	r0, r0, r9, lsr #2
    6ab0:	00011e09 	andeq	r1, r1, r9, lsl #28
    6ab4:	00019200 	andeq	r9, r1, r0, lsl #4
    6ab8:	00cc0a00 	sbceq	r0, ip, r0, lsl #20
    6abc:	00000000 	andeq	r0, r0, r0
    6ac0:	0010810f 	andseq	r8, r0, pc, lsl #2
    6ac4:	35052400 	strcc	r2, [r5, #-1024]	; 0x400
    6ac8:	0000020b 	andeq	r0, r0, fp, lsl #4
    6acc:	000f390c 	andeq	r3, pc, ip, lsl #18
    6ad0:	25370500 	ldrcs	r0, [r7, #-1280]!	; 0x500
    6ad4:	00000000 	andeq	r0, r0, r0
    6ad8:	00122d0c 	andseq	r2, r2, ip, lsl #26
    6adc:	25380500 	ldrcs	r0, [r8, #-1280]!	; 0x500
    6ae0:	04000000 	streq	r0, [r0], #-0
    6ae4:	000f670c 	andeq	r6, pc, ip, lsl #14
    6ae8:	25390500 	ldrcs	r0, [r9, #-1280]!	; 0x500
    6aec:	08000000 	stmdaeq	r0, {}	; <UNPREDICTABLE>
    6af0:	0013fe0c 	andseq	pc, r3, ip, lsl #28
    6af4:	253a0500 	ldrcs	r0, [sl, #-1280]!	; 0x500
    6af8:	0c000000 	stceq	0, cr0, [r0], {-0}
    6afc:	00112d0c 	andseq	r2, r1, ip, lsl #26
    6b00:	253b0500 	ldrcs	r0, [fp, #-1280]!	; 0x500
    6b04:	10000000 	andne	r0, r0, r0
    6b08:	0011020c 	andseq	r0, r1, ip, lsl #4
    6b0c:	253c0500 	ldrcs	r0, [ip, #-1280]!	; 0x500
    6b10:	14000000 	strne	r0, [r0], #-0
    6b14:	0013130c 	andseq	r1, r3, ip, lsl #6
    6b18:	253d0500 	ldrcs	r0, [sp, #-1280]!	; 0x500
    6b1c:	18000000 	stmdane	r0, {}	; <UNPREDICTABLE>
    6b20:	00117f0c 	andseq	r7, r1, ip, lsl #30
    6b24:	253e0500 	ldrcs	r0, [lr, #-1280]!	; 0x500
    6b28:	1c000000 	stcne	0, cr0, [r0], {-0}
    6b2c:	0013c50c 	andseq	ip, r3, ip, lsl #10
    6b30:	253f0500 	ldrcs	r0, [pc, #-1280]!	; 6638 <__code_start__-0x19c8>
    6b34:	20000000 	andcs	r0, r0, r0
    6b38:	0f761100 	svceq	0x00761100
    6b3c:	01080000 	mrseq	r0, (UNDEF: 8)
    6b40:	024b4805 	subeq	r4, fp, #327680	; 0x50000
    6b44:	220c0000 	andcs	r0, ip, #0
    6b48:	05000010 	streq	r0, [r0, #-16]
    6b4c:	00024b49 	andeq	r4, r2, r9, asr #22
    6b50:	b40c0000 	strlt	r0, [ip], #-0
    6b54:	0500000e 	streq	r0, [r0, #-14]
    6b58:	00024b4a 	andeq	r4, r2, sl, asr #22
    6b5c:	b9128000 	ldmdblt	r2, {pc}
    6b60:	05000012 	streq	r0, [r0, #-18]
    6b64:	00011e4c 	andeq	r1, r1, ip, asr #28
    6b68:	12010000 	andne	r0, r1, #0
    6b6c:	00000f9b 	muleq	r0, fp, pc	; <UNPREDICTABLE>
    6b70:	011e4f05 	tsteq	lr, r5, lsl #30
    6b74:	01040000 	mrseq	r0, (UNDEF: 4)
    6b78:	010a0900 	tsteq	sl, r0, lsl #18
    6b7c:	025b0000 	subseq	r0, fp, #0
    6b80:	cc0a0000 	stcgt	0, cr0, [sl], {-0}
    6b84:	1f000000 	svcne	0x00000000
    6b88:	11361100 	teqne	r6, r0, lsl #2
    6b8c:	01900000 	orrseq	r0, r0, r0
    6b90:	02995b05 	addseq	r5, r9, #5120	; 0x1400
    6b94:	be0c0000 	cdplt	0, 0, cr0, cr12, cr0, {0}
    6b98:	05000011 	streq	r0, [r0, #-17]
    6b9c:	0002995c 	andeq	r9, r2, ip, asr r9
    6ba0:	d60c0000 	strle	r0, [ip], -r0
    6ba4:	05000011 	streq	r0, [r0, #-17]
    6ba8:	0000255d 	andeq	r2, r0, sp, asr r5
    6bac:	360c0400 	strcc	r0, [ip], -r0, lsl #8
    6bb0:	05000010 	streq	r0, [r0, #-16]
    6bb4:	00029f5f 	andeq	r9, r2, pc, asr pc
    6bb8:	760c0800 	strvc	r0, [ip], -r0, lsl #16
    6bbc:	0500000f 	streq	r0, [r0, #-15]
    6bc0:	00020b60 	andeq	r0, r2, r0, ror #22
    6bc4:	0e008800 	cdpeq	8, 0, cr8, cr0, cr0, {0}
    6bc8:	00025b04 	andeq	r5, r2, r4, lsl #22
    6bcc:	02af0900 	adceq	r0, pc, #0, 18
    6bd0:	02af0000 	adceq	r0, pc, #0
    6bd4:	cc0a0000 	stcgt	0, cr0, [sl], {-0}
    6bd8:	1f000000 	svcne	0x00000000
    6bdc:	b5040e00 	strlt	r0, [r4, #-3584]	; 0xe00
    6be0:	13000002 	movwne	r0, #2
    6be4:	0011890f 	andseq	r8, r1, pc, lsl #18
    6be8:	73050800 	movwvc	r0, #22528	; 0x5800
    6bec:	000002db 	ldrdeq	r0, [r0], -fp
    6bf0:	000f5c0c 	andeq	r5, pc, ip, lsl #24
    6bf4:	db740500 	blle	1d07ffc <__bss_end__+0x1cfb634>
    6bf8:	00000002 	andeq	r0, r0, r2
    6bfc:	000ec00c 	andeq	ip, lr, ip
    6c00:	25750500 	ldrbcs	r0, [r5, #-1280]!	; 0x500
    6c04:	04000000 	streq	r0, [r0], #-0
    6c08:	54040e00 	strpl	r0, [r4], #-3584	; 0xe00
    6c0c:	0f000000 	svceq	0x00000000
    6c10:	000011a8 	andeq	r1, r0, r8, lsr #3
    6c14:	0bb30568 	bleq	fecc81bc <__bss_end__+0xfecbb7f4>
    6c18:	10000004 	andne	r0, r0, r4
    6c1c:	0500705f 	streq	r7, [r0, #-95]	; 0x5f
    6c20:	0002dbb4 			; <UNDEFINED> instruction: 0x0002dbb4
    6c24:	5f100000 	svcpl	0x00100000
    6c28:	b5050072 	strlt	r0, [r5, #-114]	; 0x72
    6c2c:	00000025 	andeq	r0, r0, r5, lsr #32
    6c30:	775f1004 	ldrbvc	r1, [pc, -r4]
    6c34:	25b60500 	ldrcs	r0, [r6, #1280]!	; 0x500
    6c38:	08000000 	stmdaeq	r0, {}	; <UNPREDICTABLE>
    6c3c:	000f940c 	andeq	r9, pc, ip, lsl #8
    6c40:	3fb70500 	svccc	0x00b70500
    6c44:	0c000000 	stceq	0, cr0, [r0], {-0}
    6c48:	0010a70c 	andseq	sl, r0, ip, lsl #14
    6c4c:	3fb80500 	svccc	0x00b80500
    6c50:	0e000000 	cdpeq	0, 0, cr0, cr0, cr0, {0}
    6c54:	66625f10 	uqadd16vs	r5, r2, r0
    6c58:	b6b90500 	ldrtlt	r0, [r9], r0, lsl #10
    6c5c:	10000002 	andne	r0, r0, r2
    6c60:	000f030c 	andeq	r0, pc, ip, lsl #6
    6c64:	25ba0500 	ldrcs	r0, [sl, #1280]!	; 0x500
    6c68:	18000000 	stmdane	r0, {}	; <UNPREDICTABLE>
    6c6c:	000f840c 	andeq	r8, pc, ip, lsl #8
    6c70:	0ac10500 	beq	ff048078 <__bss_end__+0xff03b6b0>
    6c74:	1c000001 	stcne	0, cr0, [r0], {1}
    6c78:	0014250c 	andseq	r2, r4, ip, lsl #10
    6c7c:	66c30500 	strbvs	r0, [r3], r0, lsl #10
    6c80:	20000005 	andcs	r0, r0, r5
    6c84:	00143f0c 	andseq	r3, r4, ip, lsl #30
    6c88:	90c50500 	sbcls	r0, r5, r0, lsl #10
    6c8c:	24000005 	strcs	r0, [r0], #-5
    6c90:	00121a0c 	andseq	r1, r2, ip, lsl #20
    6c94:	b4c80500 	strblt	r0, [r8], #1280	; 0x500
    6c98:	28000005 	stmdacs	r0, {r0, r2}
    6c9c:	0013df0c 	andseq	sp, r3, ip, lsl #30
    6ca0:	cec90500 	cdpgt	5, 12, cr0, cr9, cr0, {0}
    6ca4:	2c000005 	stccs	0, cr0, [r0], {5}
    6ca8:	62755f10 	rsbsvs	r5, r5, #16, 30	; 0x40
    6cac:	b6cc0500 	strblt	r0, [ip], r0, lsl #10
    6cb0:	30000002 	andcc	r0, r0, r2
    6cb4:	70755f10 	rsbsvc	r5, r5, r0, lsl pc
    6cb8:	dbcd0500 	blle	ff3480c0 <__bss_end__+0xff33b6f8>
    6cbc:	38000002 	stmdacc	r0, {r1}
    6cc0:	72755f10 	rsbsvc	r5, r5, #16, 30	; 0x40
    6cc4:	25ce0500 	strbcs	r0, [lr, #1280]	; 0x500
    6cc8:	3c000000 	stccc	0, cr0, [r0], {-0}
    6ccc:	000f470c 	andeq	r4, pc, ip, lsl #14
    6cd0:	d4d10500 	ldrble	r0, [r1], #1280	; 0x500
    6cd4:	40000005 	andmi	r0, r0, r5
    6cd8:	00138a0c 	andseq	r8, r3, ip, lsl #20
    6cdc:	e4d20500 	ldrb	r0, [r2], #1280	; 0x500
    6ce0:	43000005 	movwmi	r0, #5
    6ce4:	626c5f10 	rsbvs	r5, ip, #16, 30	; 0x40
    6ce8:	b6d50500 	ldrblt	r0, [r5], r0, lsl #10
    6cec:	44000002 	strmi	r0, [r0], #-2
    6cf0:	000faa0c 	andeq	sl, pc, ip, lsl #20
    6cf4:	25d80500 	ldrbcs	r0, [r8, #1280]	; 0x500
    6cf8:	4c000000 	stcmi	0, cr0, [r0], {-0}
    6cfc:	00110c0c 	andseq	r0, r1, ip, lsl #24
    6d00:	7bd90500 	blvc	ff648108 <__bss_end__+0xff63b740>
    6d04:	50000000 	andpl	r0, r0, r0
    6d08:	0013750c 	andseq	r7, r3, ip, lsl #10
    6d0c:	29dc0500 	ldmibcs	ip, {r8, sl}^
    6d10:	54000004 	strpl	r0, [r0], #-4
    6d14:	00072f0c 	andeq	r2, r7, ip, lsl #30
    6d18:	ffe00500 			; <UNDEFINED> instruction: 0xffe00500
    6d1c:	58000000 	stmdapl	r0, {}	; <UNPREDICTABLE>
    6d20:	0011b00c 	andseq	fp, r1, ip
    6d24:	f4e20500 	vld2.16	{d16[0],d17[0]}, [r2], r0
    6d28:	5c000000 	stcpl	0, cr0, [r0], {-0}
    6d2c:	0010fa0c 	andseq	pc, r0, ip, lsl #20
    6d30:	25e30500 	strbcs	r0, [r3, #1280]!	; 0x500
    6d34:	64000000 	strvs	r0, [r0], #-0
    6d38:	00251400 	eoreq	r1, r5, r0, lsl #8
    6d3c:	04290000 	strteq	r0, [r9], #-0
    6d40:	29150000 	ldmdbcs	r5, {}	; <UNPREDICTABLE>
    6d44:	15000004 	strne	r0, [r0, #-4]
    6d48:	0000010a 	andeq	r0, r0, sl, lsl #2
    6d4c:	00010c15 	andeq	r0, r1, r5, lsl ip
    6d50:	00251500 	eoreq	r1, r5, r0, lsl #10
    6d54:	0e000000 	cdpeq	0, 0, cr0, cr0, cr0, {0}
    6d58:	00043404 	andeq	r3, r4, r4, lsl #8
    6d5c:	04290400 	strteq	r0, [r9], #-1024	; 0x400
    6d60:	fd160000 	ldc2	0, cr0, [r6, #-0]
    6d64:	28000011 	stmdacs	r0, {r0, r4}
    6d68:	02380504 	eorseq	r0, r8, #4, 10	; 0x1000000
    6d6c:	00000566 	andeq	r0, r0, r6, ror #10
    6d70:	00117817 	andseq	r7, r1, r7, lsl r8
    6d74:	023a0500 	eorseq	r0, sl, #0, 10
    6d78:	00000025 	andeq	r0, r0, r5, lsr #32
    6d7c:	0fa31700 	svceq	0x00a31700
    6d80:	3f050000 	svccc	0x00050000
    6d84:	00063b02 	andeq	r3, r6, r2, lsl #22
    6d88:	97170400 	ldrls	r0, [r7, -r0, lsl #8]
    6d8c:	05000010 	streq	r0, [r0, #-16]
    6d90:	063b023f 			; <UNDEFINED> instruction: 0x063b023f
    6d94:	17080000 	strne	r0, [r8, -r0]
    6d98:	00001058 	andeq	r1, r0, r8, asr r0
    6d9c:	3b023f05 	blcc	969b8 <__bss_end__+0x89ff0>
    6da0:	0c000006 	stceq	0, cr0, [r0], {6}
    6da4:	0011d117 	andseq	sp, r1, r7, lsl r1
    6da8:	02410500 	subeq	r0, r1, #0, 10
    6dac:	00000025 	andeq	r0, r0, r5, lsr #32
    6db0:	0ece1710 	mcreq	7, 6, r1, cr14, cr0, {0}
    6db4:	42050000 	andmi	r0, r5, #0
    6db8:	00081d02 	andeq	r1, r8, r2, lsl #26
    6dbc:	ef171400 	svc	0x00171400
    6dc0:	05000012 	streq	r0, [r0, #-18]
    6dc4:	00250244 	eoreq	r0, r5, r4, asr #4
    6dc8:	17300000 	ldrne	r0, [r0, -r0]!
    6dcc:	000011db 	ldrdeq	r1, [r0], -fp
    6dd0:	8a024505 	bhi	981ec <__bss_end__+0x8b824>
    6dd4:	34000005 	strcc	r0, [r0], #-5
    6dd8:	00113e17 	andseq	r3, r1, r7, lsl lr
    6ddc:	02470500 	subeq	r0, r7, #0, 10
    6de0:	00000025 	andeq	r0, r0, r5, lsr #32
    6de4:	11eb1738 	mvnne	r1, r8, lsr r7
    6de8:	49050000 	stmdbmi	r5, {}	; <UNPREDICTABLE>
    6dec:	00083802 	andeq	r3, r8, r2, lsl #16
    6df0:	d6173c00 	ldrle	r3, [r7], -r0, lsl #24
    6df4:	05000010 	streq	r0, [r0, #-16]
    6df8:	017c024c 	cmneq	ip, ip, asr #4
    6dfc:	17400000 	strbne	r0, [r0, -r0]
    6e00:	00001077 	andeq	r1, r0, r7, ror r0
    6e04:	25024d05 	strcs	r4, [r2, #-3333]	; 0xd05
    6e08:	44000000 	strmi	r0, [r0], #-0
    6e0c:	0013f917 	andseq	pc, r3, r7, lsl r9	; <UNPREDICTABLE>
    6e10:	024e0500 	subeq	r0, lr, #0, 10
    6e14:	0000017c 	andeq	r0, r0, ip, ror r1
    6e18:	11551748 	cmpne	r5, r8, asr #14
    6e1c:	4f050000 	svcmi	0x00050000
    6e20:	00083e02 	andeq	r3, r8, r2, lsl #28
    6e24:	9f174c00 	svcls	0x00174c00
    6e28:	05000010 	streq	r0, [r0, #-16]
    6e2c:	00250252 	eoreq	r0, r5, r2, asr r2
    6e30:	17500000 	ldrbne	r0, [r0, -r0]
    6e34:	00000fc6 	andeq	r0, r0, r6, asr #31
    6e38:	0c025305 	stceq	3, cr5, [r2], {5}
    6e3c:	54000001 	strpl	r0, [r0], #-1
    6e40:	00117117 	andseq	r7, r1, r7, lsl r1
    6e44:	02760500 	rsbseq	r0, r6, #0, 10
    6e48:	000007fb 	strdeq	r0, [r0], -fp
    6e4c:	11361858 	teqne	r6, r8, asr r8
    6e50:	7a050000 	bvc	146e58 <__bss_end__+0x13a490>
    6e54:	00029902 	andeq	r9, r2, r2, lsl #18
    6e58:	18014800 	stmdane	r1, {fp, lr}
    6e5c:	000010b4 	strheq	r1, [r0], -r4
    6e60:	5b027b05 	blpl	a5a7c <__bss_end__+0x990b4>
    6e64:	4c000002 	stcmi	0, cr0, [r0], {2}
    6e68:	135b1801 	cmpne	fp, #65536	; 0x10000
    6e6c:	7f050000 	svcvc	0x00050000
    6e70:	00084f02 	andeq	r4, r8, r2, lsl #30
    6e74:	1802dc00 	stmdane	r2, {sl, fp, ip, lr, pc}
    6e78:	00000f8c 	andeq	r0, r0, ip, lsl #31
    6e7c:	00028405 	andeq	r8, r2, r5, lsl #8
    6e80:	e0000006 	and	r0, r0, r6
    6e84:	0f711802 	svceq	0x00711802
    6e88:	85050000 	strhi	r0, [r5, #-0]
    6e8c:	00085b02 	andeq	r5, r8, r2, lsl #22
    6e90:	0002ec00 	andeq	lr, r2, r0, lsl #24
    6e94:	040b040e 	streq	r0, [fp], #-1038	; 0x40e
    6e98:	25140000 	ldrcs	r0, [r4, #-0]
    6e9c:	8a000000 	bhi	6ea4 <__code_start__-0x115c>
    6ea0:	15000005 	strne	r0, [r0, #-5]
    6ea4:	00000429 	andeq	r0, r0, r9, lsr #8
    6ea8:	00010a15 	andeq	r0, r1, r5, lsl sl
    6eac:	058a1500 	streq	r1, [sl, #1280]	; 0x500
    6eb0:	25150000 	ldrcs	r0, [r5, #-0]
    6eb4:	00000000 	andeq	r0, r0, r0
    6eb8:	0119040e 	tsteq	r9, lr, lsl #8
    6ebc:	040e0000 	streq	r0, [lr], #-0
    6ec0:	0000056c 	andeq	r0, r0, ip, ror #10
    6ec4:	00008614 	andeq	r8, r0, r4, lsl r6
    6ec8:	0005b400 	andeq	fp, r5, r0, lsl #8
    6ecc:	04291500 	strteq	r1, [r9], #-1280	; 0x500
    6ed0:	0a150000 	beq	546ed8 <__bss_end__+0x53a510>
    6ed4:	15000001 	strne	r0, [r0, #-1]
    6ed8:	00000086 	andeq	r0, r0, r6, lsl #1
    6edc:	00002515 	andeq	r2, r0, r5, lsl r5
    6ee0:	040e0000 	streq	r0, [lr], #-0
    6ee4:	00000596 	muleq	r0, r6, r5
    6ee8:	00002514 	andeq	r2, r0, r4, lsl r5
    6eec:	0005ce00 	andeq	ip, r5, r0, lsl #28
    6ef0:	04291500 	strteq	r1, [r9], #-1280	; 0x500
    6ef4:	0a150000 	beq	546efc <__bss_end__+0x53a534>
    6ef8:	00000001 	andeq	r0, r0, r1
    6efc:	05ba040e 	ldreq	r0, [sl, #1038]!	; 0x40e
    6f00:	54090000 	strpl	r0, [r9], #-0
    6f04:	e4000000 	str	r0, [r0], #-0
    6f08:	0a000005 	beq	6f24 <__code_start__-0x10dc>
    6f0c:	000000cc 	andeq	r0, r0, ip, asr #1
    6f10:	54090002 	strpl	r0, [r9], #-2
    6f14:	f4000000 	vst4.8	{d0-d3}, [r0], r0
    6f18:	0a000005 	beq	6f34 <__code_start__-0x10cc>
    6f1c:	000000cc 	andeq	r0, r0, ip, asr #1
    6f20:	96060000 	strls	r0, [r6], -r0
    6f24:	05000011 	streq	r0, [r0, #-17]
    6f28:	02e1011d 	rsceq	r0, r1, #1073741831	; 0x40000007
    6f2c:	1d190000 	ldcne	0, cr0, [r9, #-0]
    6f30:	0c000013 	stceq	0, cr0, [r0], {19}
    6f34:	35012105 	strcc	r2, [r1, #-261]	; 0x105
    6f38:	17000006 	strne	r0, [r0, -r6]
    6f3c:	000011be 			; <UNDEFINED> instruction: 0x000011be
    6f40:	35012305 	strcc	r2, [r1, #-773]	; 0x305
    6f44:	00000006 	andeq	r0, r0, r6
    6f48:	0010ad17 	andseq	sl, r0, r7, lsl sp
    6f4c:	01240500 	teqeq	r4, r0, lsl #10
    6f50:	00000025 	andeq	r0, r0, r5, lsr #32
    6f54:	11901704 	orrsne	r1, r0, r4, lsl #14
    6f58:	25050000 	strcs	r0, [r5, #-0]
    6f5c:	00063b01 	andeq	r3, r6, r1, lsl #22
    6f60:	0e000800 	cdpeq	8, 0, cr0, cr0, cr0, {0}
    6f64:	00060004 	andeq	r0, r6, r4
    6f68:	f4040e00 			; <UNDEFINED> instruction: 0xf4040e00
    6f6c:	19000005 	stmdbne	r0, {r0, r2}
    6f70:	00000ec6 	andeq	r0, r0, r6, asr #29
    6f74:	013d050e 	teqeq	sp, lr, lsl #10
    6f78:	00000676 	andeq	r0, r0, r6, ror r6
    6f7c:	00120417 	andseq	r0, r2, r7, lsl r4
    6f80:	013e0500 	teqeq	lr, r0, lsl #10
    6f84:	00000676 	andeq	r0, r0, r6, ror r6
    6f88:	123e1700 	eorsne	r1, lr, #0, 14
    6f8c:	3f050000 	svccc	0x00050000
    6f90:	00067601 	andeq	r7, r6, r1, lsl #12
    6f94:	c2170600 	andsgt	r0, r7, #0, 12
    6f98:	05000012 	streq	r0, [r0, #-18]
    6f9c:	005b0140 	subseq	r0, fp, r0, asr #2
    6fa0:	000c0000 	andeq	r0, ip, r0
    6fa4:	00005b09 	andeq	r5, r0, r9, lsl #22
    6fa8:	00068600 	andeq	r8, r6, r0, lsl #12
    6fac:	00cc0a00 	sbceq	r0, ip, r0, lsl #20
    6fb0:	00020000 	andeq	r0, r2, r0
    6fb4:	5705d01a 	smladpl	r5, sl, r0, sp
    6fb8:	00078702 	andeq	r8, r7, r2, lsl #14
    6fbc:	13011700 	movwne	r1, #5888	; 0x1700
    6fc0:	59050000 	stmdbpl	r5, {}	; <UNPREDICTABLE>
    6fc4:	00002c02 	andeq	r2, r0, r2, lsl #24
    6fc8:	ac170000 	ldcge	0, cr0, [r7], {-0}
    6fcc:	05000012 	streq	r0, [r0, #-18]
    6fd0:	010c025a 	tsteq	ip, sl, asr r2
    6fd4:	17040000 	strne	r0, [r4, -r0]
    6fd8:	000010c9 	andeq	r1, r0, r9, asr #1
    6fdc:	87025b05 	strhi	r5, [r2, -r5, lsl #22]
    6fe0:	08000007 	stmdaeq	r0, {r0, r1, r2}
    6fe4:	0013d017 	andseq	sp, r3, r7, lsl r0
    6fe8:	025c0500 	subseq	r0, ip, #0, 10
    6fec:	00000192 	muleq	r0, r2, r1
    6ff0:	10681724 	rsbne	r1, r8, r4, lsr #14
    6ff4:	5d050000 	stcpl	0, cr0, [r5, #-0]
    6ff8:	00002502 	andeq	r2, r0, r2, lsl #10
    6ffc:	b9174800 	ldmdblt	r7, {fp, lr}
    7000:	05000011 	streq	r0, [r0, #-17]
    7004:	0069025e 	rsbeq	r0, r9, lr, asr r2
    7008:	17500000 	ldrbne	r0, [r0, -r0]
    700c:	000013e6 	andeq	r1, r0, r6, ror #7
    7010:	41025f05 	tstmi	r2, r5, lsl #30
    7014:	58000006 	stmdapl	r0, {r1, r2}
    7018:	0011c417 	andseq	ip, r1, r7, lsl r4
    701c:	02600500 	rsbeq	r0, r0, #0, 10
    7020:	000000f4 	strdeq	r0, [r0], -r4
    7024:	13eb1768 	mvnne	r1, #104, 14	; 0x1a00000
    7028:	61050000 	mrsvs	r0, (UNDEF: 5)
    702c:	0000f402 	andeq	pc, r0, r2, lsl #8
    7030:	2b177000 	blcs	5e3038 <__bss_end__+0x5d6670>
    7034:	0500000f 	streq	r0, [r0, #-15]
    7038:	00f40262 	rscseq	r0, r4, r2, ror #4
    703c:	17780000 	ldrbne	r0, [r8, -r0]!
    7040:	0000133d 	andeq	r1, r0, sp, lsr r3
    7044:	97026305 	strls	r6, [r2, -r5, lsl #6]
    7048:	80000007 	andhi	r0, r0, r7
    704c:	0010bd17 	andseq	fp, r0, r7, lsl sp
    7050:	02640500 	rsbeq	r0, r4, #0, 10
    7054:	000007a7 	andeq	r0, r0, r7, lsr #15
    7058:	12cf1788 	sbcne	r1, pc, #136, 14	; 0x2200000
    705c:	65050000 	strvs	r0, [r5, #-0]
    7060:	00002502 	andeq	r2, r0, r2, lsl #10
    7064:	1417a000 	ldrne	sl, [r7], #-0
    7068:	05000010 	streq	r0, [r0, #-16]
    706c:	00f40266 	rscseq	r0, r4, r6, ror #4
    7070:	17a40000 	strne	r0, [r4, r0]!
    7074:	00000f1c 	andeq	r0, r0, ip, lsl pc
    7078:	f4026705 	vst1.8	{d6}, [r2], r5
    707c:	ac000000 	stcge	0, cr0, [r0], {-0}
    7080:	00100317 	andseq	r0, r0, r7, lsl r3
    7084:	02680500 	rsbeq	r0, r8, #0, 10
    7088:	000000f4 	strdeq	r0, [r0], -r4
    708c:	0ee317b4 	mcreq	7, 7, r1, cr3, cr4, {5}
    7090:	69050000 	stmdbvs	r5, {}	; <UNPREDICTABLE>
    7094:	0000f402 	andeq	pc, r0, r2, lsl #8
    7098:	f217bc00 			; <UNDEFINED> instruction: 0xf217bc00
    709c:	0500000e 	streq	r0, [r0, #-14]
    70a0:	00f4026a 	rscseq	r0, r4, sl, ror #4
    70a4:	17c40000 	strbne	r0, [r4, r0]
    70a8:	00001176 	andeq	r1, r0, r6, ror r1
    70ac:	25026b05 	strcs	r6, [r2, #-2821]	; 0xb05
    70b0:	cc000000 	stcgt	0, cr0, [r0], {-0}
    70b4:	01120900 	tsteq	r2, r0, lsl #18
    70b8:	07970000 	ldreq	r0, [r7, r0]
    70bc:	cc0a0000 	stcgt	0, cr0, [sl], {-0}
    70c0:	19000000 	stmdbne	r0, {}	; <UNPREDICTABLE>
    70c4:	01120900 	tsteq	r2, r0, lsl #18
    70c8:	07a70000 	streq	r0, [r7, r0]!
    70cc:	cc0a0000 	stcgt	0, cr0, [sl], {-0}
    70d0:	07000000 	streq	r0, [r0, -r0]
    70d4:	01120900 	tsteq	r2, r0, lsl #18
    70d8:	07b70000 	ldreq	r0, [r7, r0]!
    70dc:	cc0a0000 	stcgt	0, cr0, [sl], {-0}
    70e0:	17000000 	strne	r0, [r0, -r0]
    70e4:	05f01a00 	ldrbeq	r1, [r0, #2560]!	; 0xa00
    70e8:	07db0270 			; <UNDEFINED> instruction: 0x07db0270
    70ec:	26170000 	ldrcs	r0, [r7], -r0
    70f0:	05000011 	streq	r0, [r0, #-17]
    70f4:	07db0273 			; <UNDEFINED> instruction: 0x07db0273
    70f8:	17000000 	strne	r0, [r0, -r0]
    70fc:	00001334 	andeq	r1, r0, r4, lsr r3
    7100:	eb027405 	bl	a411c <__bss_end__+0x97754>
    7104:	78000007 	stmdavc	r0, {r0, r1, r2}
    7108:	02db0900 	sbcseq	r0, fp, #0, 18
    710c:	07eb0000 	strbeq	r0, [fp, r0]!
    7110:	cc0a0000 	stcgt	0, cr0, [sl], {-0}
    7114:	1d000000 	stcne	0, cr0, [r0, #-0]
    7118:	002c0900 	eoreq	r0, ip, r0, lsl #18
    711c:	07fb0000 	ldrbeq	r0, [fp, r0]!
    7120:	cc0a0000 	stcgt	0, cr0, [sl], {-0}
    7124:	1d000000 	stcne	0, cr0, [r0, #-0]
    7128:	05f01b00 	ldrbeq	r1, [r0, #2816]!	; 0xb00
    712c:	081d0255 	ldmdaeq	sp, {r0, r2, r4, r6, r9}
    7130:	fd1c0000 	ldc2	0, cr0, [ip, #-0]
    7134:	05000011 	streq	r0, [r0, #-17]
    7138:	0686026c 	streq	r0, [r6], ip, ror #4
    713c:	901c0000 	andsls	r0, ip, r0
    7140:	05000013 	streq	r0, [r0, #-19]
    7144:	07b70275 			; <UNDEFINED> instruction: 0x07b70275
    7148:	09000000 	stmdbeq	r0, {}	; <UNPREDICTABLE>
    714c:	00000112 	andeq	r0, r0, r2, lsl r1
    7150:	0000082d 	andeq	r0, r0, sp, lsr #16
    7154:	0000cc0a 	andeq	ip, r0, sl, lsl #24
    7158:	1d001800 	stcne	8, cr1, [r0, #-0]
    715c:	00000838 	andeq	r0, r0, r8, lsr r8
    7160:	00042915 	andeq	r2, r4, r5, lsl r9
    7164:	040e0000 	streq	r0, [lr], #-0
    7168:	0000082d 	andeq	r0, r0, sp, lsr #16
    716c:	017c040e 	cmneq	ip, lr, lsl #8
    7170:	4f1d0000 	svcmi	0x001d0000
    7174:	15000008 	strne	r0, [r0, #-8]
    7178:	00000025 	andeq	r0, r0, r5, lsr #32
    717c:	55040e00 	strpl	r0, [r4, #-3584]	; 0xe00
    7180:	0e000008 	cdpeq	0, 0, cr0, cr0, cr8, {0}
    7184:	00084404 	andeq	r4, r8, r4, lsl #8
    7188:	05f40900 	ldrbeq	r0, [r4, #2304]!	; 0x900
    718c:	086b0000 	stmdaeq	fp!, {}^	; <UNPREDICTABLE>
    7190:	cc0a0000 	stcgt	0, cr0, [sl], {-0}
    7194:	02000000 	andeq	r0, r0, #0
    7198:	12e31e00 	rscne	r1, r3, #0, 28
    719c:	fd050000 	stc2	0, cr0, [r5, #-0]
    71a0:	00042902 	andeq	r2, r4, r2, lsl #18
    71a4:	12dc1e00 	sbcsne	r1, ip, #0, 28
    71a8:	fe050000 	cdp2	0, 0, cr0, cr5, cr0, {0}
    71ac:	00042f02 	andeq	r2, r4, r2, lsl #30
    71b0:	00251400 	eoreq	r1, r5, r0, lsl #8
    71b4:	08920000 	ldmeq	r2, {}	; <UNPREDICTABLE>
    71b8:	25150000 	ldrcs	r0, [r5, #-0]
    71bc:	00000000 	andeq	r0, r0, r0
    71c0:	000acf1f 	andeq	ip, sl, pc, lsl pc
    71c4:	9d1d0600 	ldcls	6, cr0, [sp, #-0]
    71c8:	0e000008 	cdpeq	0, 0, cr0, cr0, cr8, {0}
    71cc:	00088304 	andeq	r8, r8, r4, lsl #6
    71d0:	00251400 	eoreq	r1, r5, r0, lsl #8
    71d4:	08b20000 	ldmeq	r2!, {}	; <UNPREDICTABLE>
    71d8:	8a150000 	bhi	5471e0 <__bss_end__+0x53a818>
    71dc:	00000005 	andeq	r0, r0, r5
    71e0:	000b0c1f 	andeq	r0, fp, pc, lsl ip
    71e4:	bd220600 	stclt	6, cr0, [r2, #-0]
    71e8:	0e000008 	cdpeq	0, 0, cr0, cr0, cr8, {0}
    71ec:	0008a304 	andeq	sl, r8, r4, lsl #6
    71f0:	54012000 	strpl	r2, [r1], #-0
    71f4:	07000000 	streq	r0, [r0, -r0]
    71f8:	0009000c 	andeq	r0, r9, ip
    71fc:	0f0c2100 	svceq	0x000c2100
    7200:	21000000 	mrscs	r0, (UNDEF: 0)
    7204:	00001323 	andeq	r1, r0, r3, lsr #6
    7208:	137b2101 	cmnne	fp, #1073741824	; 0x40000000
    720c:	21040000 	mrscs	r0, (UNDEF: 4)
    7210:	00000f4d 	andeq	r0, r0, sp, asr #30
    7214:	10e42105 	rscne	r2, r4, r5, lsl #2
    7218:	21060000 	mrscs	r0, (UNDEF: 6)
    721c:	00001398 	muleq	r0, r8, r3
    7220:	13a72107 			; <UNDEFINED> instruction: 0x13a72107
    7224:	21030000 	mrscs	r0, (UNDEF: 3)
    7228:	000013b6 			; <UNDEFINED> instruction: 0x000013b6
    722c:	75050002 	strvc	r0, [r5, #-2]
    7230:	07000014 	smladeq	r0, r4, r0, r0
    7234:	0008c315 	andeq	ip, r8, r5, lsl r3
    7238:	14462200 	strbne	r2, [r6], #-512	; 0x200
    723c:	1d010000 	stcne	0, cr0, [r1, #-0]
    7240:	00000033 	andeq	r0, r0, r3, lsr r0
    7244:	2020001c 	eorcs	r0, r0, ip, lsl r0
    7248:	00148122 	andseq	r8, r4, r2, lsr #2
    724c:	331e0100 	tstcc	lr, #0, 2
    7250:	28000000 	stmdacs	r0, {}	; <UNPREDICTABLE>
    7254:	22202000 	eorcs	r2, r0, #0
    7258:	00001450 	andeq	r1, r0, r0, asr r4
    725c:	00331f01 	eorseq	r1, r3, r1, lsl #30
    7260:	00340000 	eorseq	r0, r4, r0
    7264:	21232020 	teqcs	r3, r0, lsr #32
    7268:	01000014 	tsteq	r0, r4, lsl r0
    726c:	00002556 	andeq	r2, r0, r6, asr r5
    7270:	00b07c00 	adcseq	r7, r0, r0, lsl #24
    7274:	00003400 	andeq	r3, r0, r0, lsl #8
    7278:	989c0100 	ldmls	ip, {r8}
    727c:	24000009 	strcs	r0, [r0], #-9
    7280:	006e6970 	rsbeq	r6, lr, r0, ror r9
    7284:	002c5601 	eoreq	r5, ip, r1, lsl #12
    7288:	1d2c0000 	stcne	0, cr0, [ip, #-0]
    728c:	15250000 	strne	r0, [r5, #-0]!
    7290:	01000014 	tsteq	r0, r4, lsl r0
    7294:	00002c59 	andeq	r2, r0, r9, asr ip
    7298:	001d6600 	andseq	r6, sp, r0, lsl #12
    729c:	666f2600 	strbtvs	r2, [pc], -r0, lsl #12
    72a0:	5a010066 	bpl	47440 <__bss_end__+0x3aa78>
    72a4:	0000002c 	andeq	r0, r0, ip, lsr #32
    72a8:	00001da4 	andeq	r1, r0, r4, lsr #27
    72ac:	00b09827 	adcseq	r9, r0, r7, lsr #16
    72b0:	000b5d00 	andeq	r5, fp, r0, lsl #26
    72b4:	50012800 	andpl	r2, r1, r0, lsl #16
    72b8:	5001f30b 	andpl	pc, r1, fp, lsl #6
    72bc:	b4232535 	strtlt	r2, [r3], #-1333	; 0x535
    72c0:	02818080 	addeq	r8, r1, #128	; 0x80
    72c4:	3b290000 	blcc	a472cc <__bss_end__+0xa3a904>
    72c8:	01000014 	tsteq	r0, r4, lsl r0
    72cc:	00b0604f 	adcseq	r6, r0, pc, asr #32
    72d0:	00001c00 	andeq	r1, r0, r0, lsl #24
    72d4:	e89c0100 	ldm	ip, {r8}
    72d8:	24000009 	strcs	r0, [r0], #-9
    72dc:	006e6970 	rsbeq	r6, lr, r0, ror r9
    72e0:	002c4f01 	eoreq	r4, ip, r1, lsl #30
    72e4:	1db70000 	ldcne	0, cr0, [r7]
    72e8:	76240000 	strtvc	r0, [r4], -r0
    72ec:	2c4f0100 	stfcse	f0, [pc], {-0}
    72f0:	f1000000 	cps	#0
    72f4:	2a00001d 	bcs	7370 <__code_start__-0xc90>
    72f8:	0000b070 	andeq	fp, r0, r0, ror r0
    72fc:	00000a23 	andeq	r0, r0, r3, lsr #20
    7300:	000009de 	ldrdeq	r0, [r0], -lr
    7304:	03500128 	cmpeq	r0, #40, 2
    7308:	005001f3 	ldrsheq	r0, [r0], #-19	; 0xffffffed
    730c:	00b0782b 	adcseq	r7, r0, fp, lsr #16
    7310:	000a6400 	andeq	r6, sl, r0, lsl #8
    7314:	5a290000 	bpl	a4731c <__bss_end__+0xa3a954>
    7318:	01000014 	tsteq	r0, r4, lsl r0
    731c:	00b0504a 	adcseq	r5, r0, sl, asr #32
    7320:	00001000 	andeq	r1, r0, r0
    7324:	239c0100 	orrscs	r0, ip, #0, 2
    7328:	2400000a 	strcs	r0, [r0], #-10
    732c:	006e6970 	rsbeq	r6, lr, r0, ror r9
    7330:	002c4a01 	eoreq	r4, ip, r1, lsl #20
    7334:	1e2b0000 	cdpne	0, 2, cr0, cr11, cr0, {0}
    7338:	5c270000 	stcpl	0, cr0, [r7], #-0
    733c:	e00000b0 	strh	r0, [r0], -r0	; <UNPREDICTABLE>
    7340:	2800000a 	stmdacs	r0, {r1, r3}
    7344:	f3035001 	vhadd.u8	d5, d3, d1
    7348:	01285001 	teqeq	r8, r1
    734c:	00300151 	eorseq	r0, r0, r1, asr r1
    7350:	14082900 	strne	r2, [r8], #-2304	; 0x900
    7354:	43010000 	movwmi	r0, #4096	; 0x1000
    7358:	0000b02c 	andeq	fp, r0, ip, lsr #32
    735c:	00000024 	andeq	r0, r0, r4, lsr #32
    7360:	0a649c01 	beq	192e36c <__bss_end__+0x19219a4>
    7364:	70240000 	eorvc	r0, r4, r0
    7368:	01006e69 	tsteq	r0, r9, ror #28
    736c:	00002c43 	andeq	r2, r0, r3, asr #24
    7370:	001e4c00 	andseq	r4, lr, r0, lsl #24
    7374:	b0482700 	sublt	r2, r8, r0, lsl #14
    7378:	0b680000 	bleq	1a07380 <__bss_end__+0x19fa9b8>
    737c:	01280000 	teqeq	r8, r0
    7380:	280c0550 	stmdacs	ip, {r4, r6, r8, sl}
    7384:	28202000 	stmdacs	r0!, {sp}
    7388:	31055101 	tstcc	r5, r1, lsl #2
    738c:	245001f3 	ldrbcs	r0, [r0], #-499	; 0x1f3
    7390:	69290000 	stmdbvs	r9!, {}	; <UNPREDICTABLE>
    7394:	01000014 	tsteq	r0, r4, lsl r0
    7398:	00b0083c 	adcseq	r0, r0, ip, lsr r8
    739c:	00002400 	andeq	r2, r0, r0, lsl #8
    73a0:	a59c0100 	ldrge	r0, [ip, #256]	; 0x100
    73a4:	2400000a 	strcs	r0, [r0], #-10
    73a8:	006e6970 	rsbeq	r6, lr, r0, ror r9
    73ac:	002c3c01 	eoreq	r3, ip, r1, lsl #24
    73b0:	1e6d0000 	cdpne	0, 6, cr0, cr13, cr0, {0}
    73b4:	24270000 	strtcs	r0, [r7], #-0
    73b8:	680000b0 	stmdavs	r0, {r4, r5, r7}
    73bc:	2800000b 	stmdacs	r0, {r0, r1, r3}
    73c0:	0c055001 	stceq	0, cr5, [r5], {1}
    73c4:	2020001c 	eorcs	r0, r0, ip, lsl r0
    73c8:	05510128 	ldrbeq	r0, [r1, #-296]	; 0x128
    73cc:	5001f331 	andpl	pc, r1, r1, lsr r3	; <UNPREDICTABLE>
    73d0:	29000024 	stmdbcs	r0, {r2, r5}
    73d4:	0000142b 	andeq	r1, r0, fp, lsr #8
    73d8:	aff83701 	svcge	0x00f83701
    73dc:	00100000 	andseq	r0, r0, r0
    73e0:	9c010000 	stcls	0, cr0, [r1], {-0}
    73e4:	00000ae0 	andeq	r0, r0, r0, ror #21
    73e8:	6e697024 	cdpvs	0, 6, cr7, cr9, cr4, {1}
    73ec:	2c370100 	ldfcss	f0, [r7], #-0
    73f0:	8e000000 	cdphi	0, 0, cr0, cr0, cr0, {0}
    73f4:	2700001e 	smladcs	r0, lr, r0, r0
    73f8:	0000b004 	andeq	fp, r0, r4
    73fc:	00000ae0 	andeq	r0, r0, r0, ror #21
    7400:	03500128 	cmpeq	r0, #40, 2
    7404:	285001f3 	ldmdacs	r0, {r0, r1, r4, r5, r6, r7, r8}^
    7408:	31015101 	tstcc	r1, r1, lsl #2
    740c:	14290000 	strtne	r0, [r9], #-0
    7410:	01000011 	tsteq	r0, r1, lsl r0
    7414:	00af9028 	adceq	r9, pc, r8, lsr #32
    7418:	00006800 	andeq	r6, r0, r0, lsl #16
    741c:	5d9c0100 	ldfpls	f0, [ip]
    7420:	2400000b 	strcs	r0, [r0], #-11
    7424:	006e6970 	rsbeq	r6, lr, r0, ror r9
    7428:	002c2801 	eoreq	r2, ip, r1, lsl #16
    742c:	1eaf0000 	cdpne	0, 10, cr0, cr15, cr0, {0}
    7430:	602c0000 	eorvs	r0, ip, r0
    7434:	01000013 	tsteq	r0, r3, lsl r0
    7438:	00090028 	andeq	r0, r9, r8, lsr #32
    743c:	001ed000 	andseq	sp, lr, r0
    7440:	666f2d00 	strbtvs	r2, [pc], -r0, lsl #26
    7444:	2d010066 	stccs	0, cr0, [r1, #-408]	; 0xfffffe68
    7448:	0000002c 	andeq	r0, r0, ip, lsr #32
    744c:	672d5401 	strvs	r5, [sp, -r1, lsl #8]!
    7450:	2c2f0100 	stfcss	f0, [pc], #-0	; 7458 <__code_start__-0xba8>
    7454:	01000000 	mrseq	r0, (UNDEF: 0)
    7458:	00762656 	rsbseq	r2, r6, r6, asr r6
    745c:	002c3101 	eoreq	r3, ip, r1, lsl #2
    7460:	1ef10000 	cdpne	0, 15, cr0, cr1, cr0, {0}
    7464:	dc2a0000 	stcle	0, cr0, [sl], #-0
    7468:	5d0000af 	stcpl	0, cr0, [r0, #-700]	; 0xfffffd44
    746c:	4c00000b 	stcmi	0, cr0, [r0], {11}
    7470:	2800000b 	stmdacs	r0, {r0, r1, r3}
    7474:	76025001 	strvc	r5, [r2], -r1
    7478:	f0270000 			; <UNDEFINED> instruction: 0xf0270000
    747c:	680000af 	stmdavs	r0, {r0, r1, r2, r3, r5, r7}
    7480:	2800000b 	stmdacs	r0, {r0, r1, r3}
    7484:	76025001 	strvc	r5, [r2], -r1
    7488:	2e000000 	cdpcs	0, 0, cr0, cr0, cr0, {0}
    748c:	00000054 	andeq	r0, r0, r4, asr r0
    7490:	00000054 	andeq	r0, r0, r4, asr r0
    7494:	372ea706 	strcc	sl, [lr, -r6, lsl #14]!
    7498:	37000000 	strcc	r0, [r0, -r0]
    749c:	06000000 	streq	r0, [r0], -r0
    74a0:	0c24009b 	stceq	0, cr0, [r4], #-620	; 0xfffffd94
    74a4:	00040000 	andeq	r0, r4, r0
    74a8:	00001bcb 	andeq	r1, r0, fp, asr #23
    74ac:	124a0104 	subne	r0, sl, #4, 2
    74b0:	8b0c0000 	blhi	3074b8 <__bss_end__+0x2faaf0>
    74b4:	ce000014 	mcrgt	0, 0, r0, cr0, cr4, {0}
    74b8:	b000000f 	andlt	r0, r0, pc
    74bc:	940000b0 	strls	r0, [r0], #-176	; 0xb0
    74c0:	ff000001 			; <UNDEFINED> instruction: 0xff000001
    74c4:	02000017 	andeq	r0, r0, #23
    74c8:	6e690504 	cdpvs	5, 6, cr0, cr9, cr4, {0}
    74cc:	04030074 	streq	r0, [r3], #-116	; 0x74
    74d0:	0001df07 	andeq	sp, r1, r7, lsl #30
    74d4:	06010300 	streq	r0, [r1], -r0, lsl #6
    74d8:	0000006f 	andeq	r0, r0, pc, rrx
    74dc:	35050203 	strcc	r0, [r5, #-515]	; 0x203
    74e0:	03000002 	movweq	r0, #2
    74e4:	020e0504 	andeq	r0, lr, #4, 10	; 0x1000000
    74e8:	08030000 	stmdaeq	r3, {}	; <UNPREDICTABLE>
    74ec:	00020905 	andeq	r0, r2, r5, lsl #18
    74f0:	08010300 	stmdaeq	r1, {r8, r9}
    74f4:	0000006d 	andeq	r0, r0, sp, rrx
    74f8:	24070203 	strcs	r0, [r7], #-515	; 0x203
    74fc:	03000000 	movweq	r0, #0
    7500:	01da0704 	bicseq	r0, sl, r4, lsl #14
    7504:	08030000 	stmdaeq	r3, {}	; <UNPREDICTABLE>
    7508:	0001d507 	andeq	sp, r1, r7, lsl #10
    750c:	115f0400 	cmpne	pc, r0, lsl #8
    7510:	07020000 	streq	r0, [r2, -r0]
    7514:	00000025 	andeq	r0, r0, r5, lsr #32
    7518:	00114904 	andseq	r4, r1, r4, lsl #18
    751c:	412c0300 	teqmi	ip, r0, lsl #6
    7520:	04000000 	streq	r0, [r0], #-0
    7524:	00001225 	andeq	r1, r0, r5, lsr #4
    7528:	00417203 	subeq	r7, r1, r3, lsl #4
    752c:	f3050000 	vhadd.u8	d0, d5, d0
    7530:	04000010 	streq	r0, [r0], #-16
    7534:	002c0165 	eoreq	r0, ip, r5, ror #2
    7538:	04060000 	streq	r0, [r6], #-0
    753c:	00b7a603 	adcseq	sl, r7, r3, lsl #12
    7540:	de070000 	cdple	0, 0, cr0, cr7, cr0, {0}
    7544:	03000010 	movweq	r0, #16
    7548:	00008ca8 	andeq	r8, r0, r8, lsr #25
    754c:	10860700 	addne	r0, r6, r0, lsl #14
    7550:	a9030000 	stmdbge	r3, {}	; <UNPREDICTABLE>
    7554:	000000b7 	strheq	r0, [r0], -r7
    7558:	004f0800 	subeq	r0, pc, r0, lsl #16
    755c:	00c70000 	sbceq	r0, r7, r0
    7560:	c7090000 	strgt	r0, [r9, -r0]
    7564:	03000000 	movweq	r0, #0
    7568:	07040300 	streq	r0, [r4, -r0, lsl #6]
    756c:	00000200 	andeq	r0, r0, r0, lsl #4
    7570:	a303080a 	movwge	r0, #14346	; 0x380a
    7574:	000000ef 	andeq	r0, r0, pc, ror #1
    7578:	00120a0b 	andseq	r0, r2, fp, lsl #20
    757c:	25a50300 	strcs	r0, [r5, #768]!	; 0x300
    7580:	00000000 	andeq	r0, r0, r0
    7584:	0012120b 	andseq	r1, r2, fp, lsl #4
    7588:	98aa0300 	stmials	sl!, {r8, r9}
    758c:	04000000 	streq	r0, [r0], #-0
    7590:	119d0400 	orrsne	r0, sp, r0, lsl #8
    7594:	ab030000 	blge	c759c <__bss_end__+0xbabd4>
    7598:	000000ce 	andeq	r0, r0, lr, asr #1
    759c:	00104f04 	andseq	r4, r0, r4, lsl #30
    75a0:	6baf0300 	blvs	febc81a8 <__bss_end__+0xfebbb7e0>
    75a4:	0c000000 	stceq	0, cr0, [r0], {-0}
    75a8:	0d040d04 	stceq	13, cr0, [r4, #-16]
    75ac:	03000001 	movweq	r0, #1
    75b0:	00760801 	rsbseq	r0, r6, r1, lsl #16
    75b4:	0d0e0000 	stceq	0, cr0, [lr, #-0]
    75b8:	04000001 	streq	r0, [r0], #-1
    75bc:	000012c7 	andeq	r1, r0, r7, asr #5
    75c0:	005d1605 	subseq	r1, sp, r5, lsl #12
    75c4:	600f0000 	andvs	r0, pc, r0
    75c8:	18000010 	stmdane	r0, {r4}
    75cc:	01772d05 	cmneq	r7, r5, lsl #26
    75d0:	be0b0000 	cdplt	0, 0, cr0, cr11, cr0, {0}
    75d4:	05000011 	streq	r0, [r0, #-17]
    75d8:	0001772f 	andeq	r7, r1, pc, lsr #14
    75dc:	5f100000 	svcpl	0x00100000
    75e0:	3005006b 	andcc	r0, r5, fp, rrx
    75e4:	00000025 	andeq	r0, r0, r5, lsr #32
    75e8:	11f50b04 	mvnsne	r0, r4, lsl #22
    75ec:	30050000 	andcc	r0, r5, r0
    75f0:	00000025 	andeq	r0, r0, r5, lsr #32
    75f4:	103b0b08 	eorsne	r0, fp, r8, lsl #22
    75f8:	30050000 	andcc	r0, r5, r0
    75fc:	00000025 	andeq	r0, r0, r5, lsr #32
    7600:	130e0b0c 	movwne	r0, #60172	; 0xeb0c
    7604:	30050000 	andcc	r0, r5, r0
    7608:	00000025 	andeq	r0, r0, r5, lsr #32
    760c:	785f1010 	ldmdavc	pc, {r4, ip}^	; <UNPREDICTABLE>
    7610:	7d310500 	cfldr32vc	mvfx0, [r1, #-0]
    7614:	14000001 	strne	r0, [r0], #-1
    7618:	24040d00 	strcs	r0, [r4], #-3328	; 0xd00
    761c:	08000001 	stmdaeq	r0, {r0}
    7620:	00000119 	andeq	r0, r0, r9, lsl r1
    7624:	0000018d 	andeq	r0, r0, sp, lsl #3
    7628:	0000c709 	andeq	ip, r0, r9, lsl #14
    762c:	0f000000 	svceq	0x00000000
    7630:	00001081 	andeq	r1, r0, r1, lsl #1
    7634:	06350524 	ldrteq	r0, [r5], -r4, lsr #10
    7638:	0b000002 	bleq	7648 <__code_start__-0x9b8>
    763c:	00000f39 	andeq	r0, r0, r9, lsr pc
    7640:	00253705 	eoreq	r3, r5, r5, lsl #14
    7644:	0b000000 	bleq	764c <__code_start__-0x9b4>
    7648:	0000122d 	andeq	r1, r0, sp, lsr #4
    764c:	00253805 	eoreq	r3, r5, r5, lsl #16
    7650:	0b040000 	bleq	107658 <__bss_end__+0xfac90>
    7654:	00000f67 	andeq	r0, r0, r7, ror #30
    7658:	00253905 	eoreq	r3, r5, r5, lsl #18
    765c:	0b080000 	bleq	207664 <__bss_end__+0x1fac9c>
    7660:	000013fe 	strdeq	r1, [r0], -lr
    7664:	00253a05 	eoreq	r3, r5, r5, lsl #20
    7668:	0b0c0000 	bleq	307670 <__bss_end__+0x2faca8>
    766c:	0000112d 	andeq	r1, r0, sp, lsr #2
    7670:	00253b05 	eoreq	r3, r5, r5, lsl #22
    7674:	0b100000 	bleq	40767c <__bss_end__+0x3facb4>
    7678:	00001102 	andeq	r1, r0, r2, lsl #2
    767c:	00253c05 	eoreq	r3, r5, r5, lsl #24
    7680:	0b140000 	bleq	507688 <__bss_end__+0x4facc0>
    7684:	00001313 	andeq	r1, r0, r3, lsl r3
    7688:	00253d05 	eoreq	r3, r5, r5, lsl #26
    768c:	0b180000 	bleq	607694 <__bss_end__+0x5faccc>
    7690:	0000117f 	andeq	r1, r0, pc, ror r1
    7694:	00253e05 	eoreq	r3, r5, r5, lsl #28
    7698:	0b1c0000 	bleq	7076a0 <__bss_end__+0x6facd8>
    769c:	000013c5 	andeq	r1, r0, r5, asr #7
    76a0:	00253f05 	eoreq	r3, r5, r5, lsl #30
    76a4:	00200000 	eoreq	r0, r0, r0
    76a8:	000f7611 	andeq	r7, pc, r1, lsl r6	; <UNPREDICTABLE>
    76ac:	05010800 	streq	r0, [r1, #-2048]	; 0x800
    76b0:	00024648 	andeq	r4, r2, r8, asr #12
    76b4:	10220b00 	eorne	r0, r2, r0, lsl #22
    76b8:	49050000 	stmdbmi	r5, {}	; <UNPREDICTABLE>
    76bc:	00000246 	andeq	r0, r0, r6, asr #4
    76c0:	0eb40b00 	vmoveq.f64	d0, #64	; 0x40
    76c4:	4a050000 	bmi	1476cc <__bss_end__+0x13ad04>
    76c8:	00000246 	andeq	r0, r0, r6, asr #4
    76cc:	12b91280 	adcsne	r1, r9, #128, 4
    76d0:	4c050000 	stcmi	0, cr0, [r5], {-0}
    76d4:	00000119 	andeq	r0, r0, r9, lsl r1
    76d8:	9b120100 	blls	487ae0 <__bss_end__+0x47b118>
    76dc:	0500000f 	streq	r0, [r0, #-15]
    76e0:	0001194f 	andeq	r1, r1, pc, asr #18
    76e4:	00010400 	andeq	r0, r1, r0, lsl #8
    76e8:	00010508 	andeq	r0, r1, r8, lsl #10
    76ec:	00025600 	andeq	r5, r2, r0, lsl #12
    76f0:	00c70900 	sbceq	r0, r7, r0, lsl #18
    76f4:	001f0000 	andseq	r0, pc, r0
    76f8:	00113611 	andseq	r3, r1, r1, lsl r6
    76fc:	05019000 	streq	r9, [r1, #-0]
    7700:	0002945b 	andeq	r9, r2, fp, asr r4
    7704:	11be0b00 			; <UNDEFINED> instruction: 0x11be0b00
    7708:	5c050000 	stcpl	0, cr0, [r5], {-0}
    770c:	00000294 	muleq	r0, r4, r2
    7710:	11d60b00 	bicsne	r0, r6, r0, lsl #22
    7714:	5d050000 	stcpl	0, cr0, [r5, #-0]
    7718:	00000025 	andeq	r0, r0, r5, lsr #32
    771c:	10360b04 	eorsne	r0, r6, r4, lsl #22
    7720:	5f050000 	svcpl	0x00050000
    7724:	0000029a 	muleq	r0, sl, r2
    7728:	0f760b08 	svceq	0x00760b08
    772c:	60050000 	andvs	r0, r5, r0
    7730:	00000206 	andeq	r0, r0, r6, lsl #4
    7734:	040d0088 	streq	r0, [sp], #-136	; 0x88
    7738:	00000256 	andeq	r0, r0, r6, asr r2
    773c:	0002aa08 	andeq	sl, r2, r8, lsl #20
    7740:	0002aa00 	andeq	sl, r2, r0, lsl #20
    7744:	00c70900 	sbceq	r0, r7, r0, lsl #18
    7748:	001f0000 	andseq	r0, pc, r0
    774c:	02b0040d 	adcseq	r0, r0, #218103808	; 0xd000000
    7750:	0f130000 	svceq	0x00130000
    7754:	00001189 	andeq	r1, r0, r9, lsl #3
    7758:	d6730508 	ldrbtle	r0, [r3], -r8, lsl #10
    775c:	0b000002 	bleq	776c <__code_start__-0x894>
    7760:	00000f5c 	andeq	r0, r0, ip, asr pc
    7764:	02d67405 	sbcseq	r7, r6, #83886080	; 0x5000000
    7768:	0b000000 	bleq	7770 <__code_start__-0x890>
    776c:	00000ec0 	andeq	r0, r0, r0, asr #29
    7770:	00257505 	eoreq	r7, r5, r5, lsl #10
    7774:	00040000 	andeq	r0, r4, r0
    7778:	004f040d 	subeq	r0, pc, sp, lsl #8
    777c:	a80f0000 	stmdage	pc, {}	; <UNPREDICTABLE>
    7780:	68000011 	stmdavs	r0, {r0, r4}
    7784:	0406b305 	streq	fp, [r6], #-773	; 0x305
    7788:	5f100000 	svcpl	0x00100000
    778c:	b4050070 	strlt	r0, [r5], #-112	; 0x70
    7790:	000002d6 	ldrdeq	r0, [r0], -r6
    7794:	725f1000 	subsvc	r1, pc, #0
    7798:	25b50500 	ldrcs	r0, [r5, #1280]!	; 0x500
    779c:	04000000 	streq	r0, [r0], #-0
    77a0:	00775f10 	rsbseq	r5, r7, r0, lsl pc
    77a4:	0025b605 	eoreq	fp, r5, r5, lsl #12
    77a8:	0b080000 	bleq	2077b0 <__bss_end__+0x1fade8>
    77ac:	00000f94 	muleq	r0, r4, pc	; <UNPREDICTABLE>
    77b0:	003ab705 	eorseq	fp, sl, r5, lsl #14
    77b4:	0b0c0000 	bleq	3077bc <__bss_end__+0x2fadf4>
    77b8:	000010a7 	andeq	r1, r0, r7, lsr #1
    77bc:	003ab805 	eorseq	fp, sl, r5, lsl #16
    77c0:	100e0000 	andne	r0, lr, r0
    77c4:	0066625f 	rsbeq	r6, r6, pc, asr r2
    77c8:	02b1b905 	adcseq	fp, r1, #81920	; 0x14000
    77cc:	0b100000 	bleq	4077d4 <__bss_end__+0x3fae0c>
    77d0:	00000f03 	andeq	r0, r0, r3, lsl #30
    77d4:	0025ba05 	eoreq	fp, r5, r5, lsl #20
    77d8:	0b180000 	bleq	6077e0 <__bss_end__+0x5fae18>
    77dc:	00000f84 	andeq	r0, r0, r4, lsl #31
    77e0:	0105c105 	tsteq	r5, r5, lsl #2
    77e4:	0b1c0000 	bleq	7077ec <__bss_end__+0x6fae24>
    77e8:	00001425 	andeq	r1, r0, r5, lsr #8
    77ec:	0561c305 	strbeq	ip, [r1, #-773]!	; 0x305
    77f0:	0b200000 	bleq	8077f8 <__bss_end__+0x7fae30>
    77f4:	0000143f 	andeq	r1, r0, pc, lsr r4
    77f8:	058bc505 	streq	ip, [fp, #1285]	; 0x505
    77fc:	0b240000 	bleq	907804 <__bss_end__+0x8fae3c>
    7800:	0000121a 	andeq	r1, r0, sl, lsl r2
    7804:	05afc805 	streq	ip, [pc, #2053]!	; 8011 <__code_start__+0x11>
    7808:	0b280000 	bleq	a07810 <__bss_end__+0x9fae48>
    780c:	000013df 	ldrdeq	r1, [r0], -pc	; <UNPREDICTABLE>
    7810:	05c9c905 	strbeq	ip, [r9, #2309]	; 0x905
    7814:	102c0000 	eorne	r0, ip, r0
    7818:	0062755f 	rsbeq	r7, r2, pc, asr r5
    781c:	02b1cc05 	adcseq	ip, r1, #1280	; 0x500
    7820:	10300000 	eorsne	r0, r0, r0
    7824:	0070755f 	rsbseq	r7, r0, pc, asr r5
    7828:	02d6cd05 	sbcseq	ip, r6, #320	; 0x140
    782c:	10380000 	eorsne	r0, r8, r0
    7830:	0072755f 	rsbseq	r7, r2, pc, asr r5
    7834:	0025ce05 	eoreq	ip, r5, r5, lsl #28
    7838:	0b3c0000 	bleq	f07840 <__bss_end__+0xefae78>
    783c:	00000f47 	andeq	r0, r0, r7, asr #30
    7840:	05cfd105 	strbeq	sp, [pc, #261]	; 794d <__code_start__-0x6b3>
    7844:	0b400000 	bleq	100784c <__bss_end__+0xffae84>
    7848:	0000138a 	andeq	r1, r0, sl, lsl #7
    784c:	05dfd205 	ldrbeq	sp, [pc, #517]	; 7a59 <__code_start__-0x5a7>
    7850:	10430000 	subne	r0, r3, r0
    7854:	00626c5f 	rsbeq	r6, r2, pc, asr ip
    7858:	02b1d505 	adcseq	sp, r1, #20971520	; 0x1400000
    785c:	0b440000 	bleq	1107864 <__bss_end__+0x10fae9c>
    7860:	00000faa 	andeq	r0, r0, sl, lsr #31
    7864:	0025d805 	eoreq	sp, r5, r5, lsl #16
    7868:	0b4c0000 	bleq	1307870 <__bss_end__+0x12faea8>
    786c:	0000110c 	andeq	r1, r0, ip, lsl #2
    7870:	0076d905 	rsbseq	sp, r6, r5, lsl #18
    7874:	0b500000 	bleq	140787c <__bss_end__+0x13faeb4>
    7878:	00001375 	andeq	r1, r0, r5, ror r3
    787c:	0424dc05 	strteq	sp, [r4], #-3077	; 0xc05
    7880:	0b540000 	bleq	1507888 <__bss_end__+0x14faec0>
    7884:	0000072f 	andeq	r0, r0, pc, lsr #14
    7888:	00fae005 	rscseq	lr, sl, r5
    788c:	0b580000 	bleq	1607894 <__bss_end__+0x15faecc>
    7890:	000011b0 			; <UNDEFINED> instruction: 0x000011b0
    7894:	00efe205 	rsceq	lr, pc, r5, lsl #4
    7898:	0b5c0000 	bleq	17078a0 <__bss_end__+0x16faed8>
    789c:	000010fa 	strdeq	r1, [r0], -sl
    78a0:	0025e305 	eoreq	lr, r5, r5, lsl #6
    78a4:	00640000 	rsbeq	r0, r4, r0
    78a8:	00002514 	andeq	r2, r0, r4, lsl r5
    78ac:	00042400 	andeq	r2, r4, r0, lsl #8
    78b0:	04241500 	strteq	r1, [r4], #-1280	; 0x500
    78b4:	05150000 	ldreq	r0, [r5, #-0]
    78b8:	15000001 	strne	r0, [r0, #-1]
    78bc:	00000107 	andeq	r0, r0, r7, lsl #2
    78c0:	00002515 	andeq	r2, r0, r5, lsl r5
    78c4:	040d0000 	streq	r0, [sp], #-0
    78c8:	0000042f 	andeq	r0, r0, pc, lsr #8
    78cc:	0004240e 	andeq	r2, r4, lr, lsl #8
    78d0:	11fd1600 	mvnsne	r1, r0, lsl #12
    78d4:	04280000 	strteq	r0, [r8], #-0
    78d8:	61023805 	tstvs	r2, r5, lsl #16
    78dc:	17000005 	strne	r0, [r0, -r5]
    78e0:	00001178 	andeq	r1, r0, r8, ror r1
    78e4:	25023a05 	strcs	r3, [r2, #-2565]	; 0xa05
    78e8:	00000000 	andeq	r0, r0, r0
    78ec:	000fa317 	andeq	sl, pc, r7, lsl r3	; <UNPREDICTABLE>
    78f0:	023f0500 	eorseq	r0, pc, #0, 10
    78f4:	00000636 	andeq	r0, r0, r6, lsr r6
    78f8:	10971704 	addsne	r1, r7, r4, lsl #14
    78fc:	3f050000 	svccc	0x00050000
    7900:	00063602 	andeq	r3, r6, r2, lsl #12
    7904:	58170800 	ldmdapl	r7, {fp}
    7908:	05000010 	streq	r0, [r0, #-16]
    790c:	0636023f 			; <UNDEFINED> instruction: 0x0636023f
    7910:	170c0000 	strne	r0, [ip, -r0]
    7914:	000011d1 	ldrdeq	r1, [r0], -r1	; <UNPREDICTABLE>
    7918:	25024105 	strcs	r4, [r2, #-261]	; 0x105
    791c:	10000000 	andne	r0, r0, r0
    7920:	000ece17 	andeq	ip, lr, r7, lsl lr
    7924:	02420500 	subeq	r0, r2, #0, 10
    7928:	00000818 	andeq	r0, r0, r8, lsl r8
    792c:	12ef1714 	rscne	r1, pc, #20, 14	; 0x500000
    7930:	44050000 	strmi	r0, [r5], #-0
    7934:	00002502 	andeq	r2, r0, r2, lsl #10
    7938:	db173000 	blle	5d3940 <__bss_end__+0x5c6f78>
    793c:	05000011 	streq	r0, [r0, #-17]
    7940:	05850245 	streq	r0, [r5, #581]	; 0x245
    7944:	17340000 	ldrne	r0, [r4, -r0]!
    7948:	0000113e 	andeq	r1, r0, lr, lsr r1
    794c:	25024705 	strcs	r4, [r2, #-1797]	; 0x705
    7950:	38000000 	stmdacc	r0, {}	; <UNPREDICTABLE>
    7954:	0011eb17 	andseq	lr, r1, r7, lsl fp
    7958:	02490500 	subeq	r0, r9, #0, 10
    795c:	00000833 	andeq	r0, r0, r3, lsr r8
    7960:	10d6173c 	sbcsne	r1, r6, ip, lsr r7
    7964:	4c050000 	stcmi	0, cr0, [r5], {-0}
    7968:	00017702 	andeq	r7, r1, r2, lsl #14
    796c:	77174000 	ldrvc	r4, [r7, -r0]
    7970:	05000010 	streq	r0, [r0, #-16]
    7974:	0025024d 	eoreq	r0, r5, sp, asr #4
    7978:	17440000 	strbne	r0, [r4, -r0]
    797c:	000013f9 	strdeq	r1, [r0], -r9
    7980:	77024e05 	strvc	r4, [r2, -r5, lsl #28]
    7984:	48000001 	stmdami	r0, {r0}
    7988:	00115517 	andseq	r5, r1, r7, lsl r5
    798c:	024f0500 	subeq	r0, pc, #0, 10
    7990:	00000839 	andeq	r0, r0, r9, lsr r8
    7994:	109f174c 	addsne	r1, pc, ip, asr #14
    7998:	52050000 	andpl	r0, r5, #0
    799c:	00002502 	andeq	r2, r0, r2, lsl #10
    79a0:	c6175000 	ldrgt	r5, [r7], -r0
    79a4:	0500000f 	streq	r0, [r0, #-15]
    79a8:	01070253 	tsteq	r7, r3, asr r2
    79ac:	17540000 	ldrbne	r0, [r4, -r0]
    79b0:	00001171 	andeq	r1, r0, r1, ror r1
    79b4:	f6027605 			; <UNDEFINED> instruction: 0xf6027605
    79b8:	58000007 	stmdapl	r0, {r0, r1, r2}
    79bc:	00113618 	andseq	r3, r1, r8, lsl r6
    79c0:	027a0500 	rsbseq	r0, sl, #0, 10
    79c4:	00000294 	muleq	r0, r4, r2
    79c8:	b4180148 	ldrlt	r0, [r8], #-328	; 0x148
    79cc:	05000010 	streq	r0, [r0, #-16]
    79d0:	0256027b 	subseq	r0, r6, #-1342177273	; 0xb0000007
    79d4:	014c0000 	mrseq	r0, (UNDEF: 76)
    79d8:	00135b18 	andseq	r5, r3, r8, lsl fp
    79dc:	027f0500 	rsbseq	r0, pc, #0, 10
    79e0:	0000084a 	andeq	r0, r0, sl, asr #16
    79e4:	8c1802dc 	lfmhi	f0, 4, [r8], {220}	; 0xdc
    79e8:	0500000f 	streq	r0, [r0, #-15]
    79ec:	05fb0284 	ldrbeq	r0, [fp, #644]!	; 0x284
    79f0:	02e00000 	rsceq	r0, r0, #0
    79f4:	000f7118 	andeq	r7, pc, r8, lsl r1	; <UNPREDICTABLE>
    79f8:	02850500 	addeq	r0, r5, #0, 10
    79fc:	00000856 	andeq	r0, r0, r6, asr r8
    7a00:	0d0002ec 	sfmeq	f0, 4, [r0, #-944]	; 0xfffffc50
    7a04:	00040604 	andeq	r0, r4, r4, lsl #12
    7a08:	00251400 	eoreq	r1, r5, r0, lsl #8
    7a0c:	05850000 	streq	r0, [r5]
    7a10:	24150000 	ldrcs	r0, [r5], #-0
    7a14:	15000004 	strne	r0, [r0, #-4]
    7a18:	00000105 	andeq	r0, r0, r5, lsl #2
    7a1c:	00058515 	andeq	r8, r5, r5, lsl r5
    7a20:	00251500 	eoreq	r1, r5, r0, lsl #10
    7a24:	0d000000 	stceq	0, cr0, [r0, #-0]
    7a28:	00011404 	andeq	r1, r1, r4, lsl #8
    7a2c:	67040d00 	strvs	r0, [r4, -r0, lsl #26]
    7a30:	14000005 	strne	r0, [r0], #-5
    7a34:	00000081 	andeq	r0, r0, r1, lsl #1
    7a38:	000005af 	andeq	r0, r0, pc, lsr #11
    7a3c:	00042415 	andeq	r2, r4, r5, lsl r4
    7a40:	01051500 	tsteq	r5, r0, lsl #10
    7a44:	81150000 	tsthi	r5, r0
    7a48:	15000000 	strne	r0, [r0, #-0]
    7a4c:	00000025 	andeq	r0, r0, r5, lsr #32
    7a50:	91040d00 	tstls	r4, r0, lsl #26
    7a54:	14000005 	strne	r0, [r0], #-5
    7a58:	00000025 	andeq	r0, r0, r5, lsr #32
    7a5c:	000005c9 	andeq	r0, r0, r9, asr #11
    7a60:	00042415 	andeq	r2, r4, r5, lsl r4
    7a64:	01051500 	tsteq	r5, r0, lsl #10
    7a68:	0d000000 	stceq	0, cr0, [r0, #-0]
    7a6c:	0005b504 	andeq	fp, r5, r4, lsl #10
    7a70:	004f0800 	subeq	r0, pc, r0, lsl #16
    7a74:	05df0000 	ldrbeq	r0, [pc]	; 7a7c <__code_start__-0x584>
    7a78:	c7090000 	strgt	r0, [r9, -r0]
    7a7c:	02000000 	andeq	r0, r0, #0
    7a80:	004f0800 	subeq	r0, pc, r0, lsl #16
    7a84:	05ef0000 	strbeq	r0, [pc, #0]!	; 7a8c <__code_start__-0x574>
    7a88:	c7090000 	strgt	r0, [r9, -r0]
    7a8c:	00000000 	andeq	r0, r0, r0
    7a90:	11960500 	orrsne	r0, r6, r0, lsl #10
    7a94:	1d050000 	stcne	0, cr0, [r5, #-0]
    7a98:	0002dc01 	andeq	sp, r2, r1, lsl #24
    7a9c:	131d1900 	tstne	sp, #0, 18
    7aa0:	050c0000 	streq	r0, [ip, #-0]
    7aa4:	06300121 	ldrteq	r0, [r0], -r1, lsr #2
    7aa8:	be170000 	cdplt	0, 1, cr0, cr7, cr0, {0}
    7aac:	05000011 	streq	r0, [r0, #-17]
    7ab0:	06300123 	ldrteq	r0, [r0], -r3, lsr #2
    7ab4:	17000000 	strne	r0, [r0, -r0]
    7ab8:	000010ad 	andeq	r1, r0, sp, lsr #1
    7abc:	25012405 	strcs	r2, [r1, #-1029]	; 0x405
    7ac0:	04000000 	streq	r0, [r0], #-0
    7ac4:	00119017 	andseq	r9, r1, r7, lsl r0
    7ac8:	01250500 	teqeq	r5, r0, lsl #10
    7acc:	00000636 	andeq	r0, r0, r6, lsr r6
    7ad0:	040d0008 	streq	r0, [sp], #-8
    7ad4:	000005fb 	strdeq	r0, [r0], -fp
    7ad8:	05ef040d 	strbeq	r0, [pc, #1037]!	; 7eed <__code_start__-0x113>
    7adc:	c6190000 	ldrgt	r0, [r9], -r0
    7ae0:	0e00000e 	cdpeq	0, 0, cr0, cr0, cr14, {0}
    7ae4:	71013d05 	tstvc	r1, r5, lsl #26
    7ae8:	17000006 	strne	r0, [r0, -r6]
    7aec:	00001204 	andeq	r1, r0, r4, lsl #4
    7af0:	71013e05 	tstvc	r1, r5, lsl #28
    7af4:	00000006 	andeq	r0, r0, r6
    7af8:	00123e17 	andseq	r3, r2, r7, lsl lr
    7afc:	013f0500 	teqeq	pc, r0, lsl #10
    7b00:	00000671 	andeq	r0, r0, r1, ror r6
    7b04:	12c21706 	sbcne	r1, r2, #1572864	; 0x180000
    7b08:	40050000 	andmi	r0, r5, r0
    7b0c:	00005601 	andeq	r5, r0, r1, lsl #12
    7b10:	08000c00 	stmdaeq	r0, {sl, fp}
    7b14:	00000056 	andeq	r0, r0, r6, asr r0
    7b18:	00000681 	andeq	r0, r0, r1, lsl #13
    7b1c:	0000c709 	andeq	ip, r0, r9, lsl #14
    7b20:	1a000200 	bne	8328 <user_trampoline_ret+0x10>
    7b24:	025705d0 	subseq	r0, r7, #208, 10	; 0x34000000
    7b28:	00000782 	andeq	r0, r0, r2, lsl #15
    7b2c:	00130117 	andseq	r0, r3, r7, lsl r1
    7b30:	02590500 	subseq	r0, r9, #0, 10
    7b34:	0000002c 	andeq	r0, r0, ip, lsr #32
    7b38:	12ac1700 	adcne	r1, ip, #0, 14
    7b3c:	5a050000 	bpl	147b44 <__bss_end__+0x13b17c>
    7b40:	00010702 	andeq	r0, r1, r2, lsl #14
    7b44:	c9170400 	ldmdbgt	r7, {sl}
    7b48:	05000010 	streq	r0, [r0, #-16]
    7b4c:	0782025b 			; <UNDEFINED> instruction: 0x0782025b
    7b50:	17080000 	strne	r0, [r8, -r0]
    7b54:	000013d0 	ldrdeq	r1, [r0], -r0
    7b58:	8d025c05 	stchi	12, cr5, [r2, #-20]	; 0xffffffec
    7b5c:	24000001 	strcs	r0, [r0], #-1
    7b60:	00106817 	andseq	r6, r0, r7, lsl r8
    7b64:	025d0500 	subseq	r0, sp, #0, 10
    7b68:	00000025 	andeq	r0, r0, r5, lsr #32
    7b6c:	11b91748 			; <UNDEFINED> instruction: 0x11b91748
    7b70:	5e050000 	cdppl	0, 0, cr0, cr5, cr0, {0}
    7b74:	00006402 	andeq	r6, r0, r2, lsl #8
    7b78:	e6175000 	ldr	r5, [r7], -r0
    7b7c:	05000013 	streq	r0, [r0, #-19]
    7b80:	063c025f 			; <UNDEFINED> instruction: 0x063c025f
    7b84:	17580000 	ldrbne	r0, [r8, -r0]
    7b88:	000011c4 	andeq	r1, r0, r4, asr #3
    7b8c:	ef026005 	svc	0x00026005
    7b90:	68000000 	stmdavs	r0, {}	; <UNPREDICTABLE>
    7b94:	0013eb17 	andseq	lr, r3, r7, lsl fp
    7b98:	02610500 	rsbeq	r0, r1, #0, 10
    7b9c:	000000ef 	andeq	r0, r0, pc, ror #1
    7ba0:	0f2b1770 	svceq	0x002b1770
    7ba4:	62050000 	andvs	r0, r5, #0
    7ba8:	0000ef02 	andeq	lr, r0, r2, lsl #30
    7bac:	3d177800 	ldccc	8, cr7, [r7, #-0]
    7bb0:	05000013 	streq	r0, [r0, #-19]
    7bb4:	07920263 	ldreq	r0, [r2, r3, ror #4]
    7bb8:	17800000 	strne	r0, [r0, r0]
    7bbc:	000010bd 	strheq	r1, [r0], -sp
    7bc0:	a2026405 	andge	r6, r2, #83886080	; 0x5000000
    7bc4:	88000007 	stmdahi	r0, {r0, r1, r2}
    7bc8:	0012cf17 	andseq	ip, r2, r7, lsl pc
    7bcc:	02650500 	rsbeq	r0, r5, #0, 10
    7bd0:	00000025 	andeq	r0, r0, r5, lsr #32
    7bd4:	101417a0 	andsne	r1, r4, r0, lsr #15
    7bd8:	66050000 	strvs	r0, [r5], -r0
    7bdc:	0000ef02 	andeq	lr, r0, r2, lsl #30
    7be0:	1c17a400 	cfldrsne	mvf10, [r7], {-0}
    7be4:	0500000f 	streq	r0, [r0, #-15]
    7be8:	00ef0267 	rsceq	r0, pc, r7, ror #4
    7bec:	17ac0000 	strne	r0, [ip, r0]!
    7bf0:	00001003 	andeq	r1, r0, r3
    7bf4:	ef026805 	svc	0x00026805
    7bf8:	b4000000 	strlt	r0, [r0], #-0
    7bfc:	000ee317 	andeq	lr, lr, r7, lsl r3
    7c00:	02690500 	rsbeq	r0, r9, #0, 10
    7c04:	000000ef 	andeq	r0, r0, pc, ror #1
    7c08:	0ef217bc 	mrceq	7, 7, r1, cr2, cr12, {5}
    7c0c:	6a050000 	bvs	147c14 <__bss_end__+0x13b24c>
    7c10:	0000ef02 	andeq	lr, r0, r2, lsl #30
    7c14:	7617c400 	ldrvc	ip, [r7], -r0, lsl #8
    7c18:	05000011 	streq	r0, [r0, #-17]
    7c1c:	0025026b 	eoreq	r0, r5, fp, ror #4
    7c20:	00cc0000 	sbceq	r0, ip, r0
    7c24:	00010d08 	andeq	r0, r1, r8, lsl #26
    7c28:	00079200 	andeq	r9, r7, r0, lsl #4
    7c2c:	00c70900 	sbceq	r0, r7, r0, lsl #18
    7c30:	00190000 	andseq	r0, r9, r0
    7c34:	00010d08 	andeq	r0, r1, r8, lsl #26
    7c38:	0007a200 	andeq	sl, r7, r0, lsl #4
    7c3c:	00c70900 	sbceq	r0, r7, r0, lsl #18
    7c40:	00070000 	andeq	r0, r7, r0
    7c44:	00010d08 	andeq	r0, r1, r8, lsl #26
    7c48:	0007b200 	andeq	fp, r7, r0, lsl #4
    7c4c:	00c70900 	sbceq	r0, r7, r0, lsl #18
    7c50:	00170000 	andseq	r0, r7, r0
    7c54:	7005f01a 	andvc	pc, r5, sl, lsl r0	; <UNPREDICTABLE>
    7c58:	0007d602 	andeq	sp, r7, r2, lsl #12
    7c5c:	11261700 	teqne	r6, r0, lsl #14
    7c60:	73050000 	movwvc	r0, #20480	; 0x5000
    7c64:	0007d602 	andeq	sp, r7, r2, lsl #12
    7c68:	34170000 	ldrcc	r0, [r7], #-0
    7c6c:	05000013 	streq	r0, [r0, #-19]
    7c70:	07e60274 			; <UNDEFINED> instruction: 0x07e60274
    7c74:	00780000 	rsbseq	r0, r8, r0
    7c78:	0002d608 	andeq	sp, r2, r8, lsl #12
    7c7c:	0007e600 	andeq	lr, r7, r0, lsl #12
    7c80:	00c70900 	sbceq	r0, r7, r0, lsl #18
    7c84:	001d0000 	andseq	r0, sp, r0
    7c88:	00002c08 	andeq	r2, r0, r8, lsl #24
    7c8c:	0007f600 	andeq	pc, r7, r0, lsl #12
    7c90:	00c70900 	sbceq	r0, r7, r0, lsl #18
    7c94:	001d0000 	andseq	r0, sp, r0
    7c98:	5505f01b 	strpl	pc, [r5, #-27]
    7c9c:	00081802 	andeq	r1, r8, r2, lsl #16
    7ca0:	11fd1c00 	mvnsne	r1, r0, lsl #24
    7ca4:	6c050000 	stcvs	0, cr0, [r5], {-0}
    7ca8:	00068102 	andeq	r8, r6, r2, lsl #2
    7cac:	13901c00 	orrsne	r1, r0, #0, 24
    7cb0:	75050000 	strvc	r0, [r5, #-0]
    7cb4:	0007b202 	andeq	fp, r7, r2, lsl #4
    7cb8:	0d080000 	stceq	0, cr0, [r8, #-0]
    7cbc:	28000001 	stmdacs	r0, {r0}
    7cc0:	09000008 	stmdbeq	r0, {r3}
    7cc4:	000000c7 	andeq	r0, r0, r7, asr #1
    7cc8:	331d0018 	tstcc	sp, #24
    7ccc:	15000008 	strne	r0, [r0, #-8]
    7cd0:	00000424 	andeq	r0, r0, r4, lsr #8
    7cd4:	28040d00 	stmdacs	r4, {r8, sl, fp}
    7cd8:	0d000008 	stceq	0, cr0, [r0, #-32]	; 0xffffffe0
    7cdc:	00017704 	andeq	r7, r1, r4, lsl #14
    7ce0:	084a1d00 	stmdaeq	sl, {r8, sl, fp, ip}^
    7ce4:	25150000 	ldrcs	r0, [r5, #-0]
    7ce8:	00000000 	andeq	r0, r0, r0
    7cec:	0850040d 	ldmdaeq	r0, {r0, r2, r3, sl}^
    7cf0:	040d0000 	streq	r0, [sp], #-0
    7cf4:	0000083f 	andeq	r0, r0, pc, lsr r8
    7cf8:	0005ef08 	andeq	lr, r5, r8, lsl #30
    7cfc:	00086600 	andeq	r6, r8, r0, lsl #12
    7d00:	00c70900 	sbceq	r0, r7, r0, lsl #18
    7d04:	00020000 	andeq	r0, r2, r0
    7d08:	0012e31e 	andseq	lr, r2, lr, lsl r3
    7d0c:	02fd0500 	rscseq	r0, sp, #0, 10
    7d10:	00000424 	andeq	r0, r0, r4, lsr #8
    7d14:	0012dc1e 	andseq	sp, r2, lr, lsl ip
    7d18:	02fe0500 	rscseq	r0, lr, #0, 10
    7d1c:	0000042a 	andeq	r0, r0, sl, lsr #8
    7d20:	00002514 	andeq	r2, r0, r4, lsl r5
    7d24:	00088d00 	andeq	r8, r8, r0, lsl #26
    7d28:	00251500 	eoreq	r1, r5, r0, lsl #10
    7d2c:	1f000000 	svcne	0x00000000
    7d30:	00000acf 	andeq	r0, r0, pc, asr #21
    7d34:	08981d06 	ldmeq	r8, {r1, r2, r8, sl, fp, ip}
    7d38:	040d0000 	streq	r0, [sp], #-0
    7d3c:	0000087e 	andeq	r0, r0, lr, ror r8
    7d40:	00002514 	andeq	r2, r0, r4, lsl r5
    7d44:	0008ad00 	andeq	sl, r8, r0, lsl #26
    7d48:	05851500 	streq	r1, [r5, #1280]	; 0x500
    7d4c:	1f000000 	svcne	0x00000000
    7d50:	00000b0c 	andeq	r0, r0, ip, lsl #22
    7d54:	08b82206 	ldmeq	r8!, {r1, r2, r9, sp}
    7d58:	040d0000 	streq	r0, [sp], #-0
    7d5c:	0000089e 	muleq	r0, lr, r8
    7d60:	a2040803 	andge	r0, r4, #196608	; 0x30000
    7d64:	1f000014 	svcne	0x00000014
    7d68:	000014ed 	andeq	r1, r0, sp, ror #9
    7d6c:	010d0d01 	tsteq	sp, r1, lsl #26
    7d70:	0f200000 	svceq	0x00200000
    7d74:	01000015 	tsteq	r0, r5, lsl r0
    7d78:	0001070e 	andeq	r0, r1, lr, lsl #14
    7d7c:	50030500 	andpl	r0, r3, r0, lsl #10
    7d80:	200000b2 	strhcs	r0, [r0], -r2
    7d84:	00001504 	andeq	r1, r0, r4, lsl #10
    7d88:	01070f01 	tsteq	r7, r1, lsl #30
    7d8c:	03050000 	movweq	r0, #20480	; 0x5000
    7d90:	0000b254 	andeq	fp, r0, r4, asr r2
    7d94:	0014d021 	andseq	sp, r4, r1, lsr #32
    7d98:	34380100 	ldrtcc	r0, [r8], #-256	; 0x100
    7d9c:	100000b2 	strhne	r0, [r0], -r2
    7da0:	01000000 	mrseq	r0, (UNDEF: 0)
    7da4:	0009139c 	muleq	r9, ip, r3
    7da8:	00702200 	rsbseq	r2, r0, r0, lsl #4
    7dac:	01053801 	tsteq	r5, r1, lsl #16
    7db0:	50010000 	andpl	r0, r1, r0
    7db4:	14a92300 	strtne	r2, [r9], #768	; 0x300
    7db8:	37010000 	strcc	r0, [r1, -r0]
    7dbc:	0000b220 	andeq	fp, r0, r0, lsr #4
    7dc0:	00000014 	andeq	r0, r0, r4, lsl r0
    7dc4:	ca219c01 	bgt	86edd0 <__bss_end__+0x862408>
    7dc8:	01000014 	tsteq	r0, r4, lsl r0
    7dcc:	00b21c36 	adcseq	r1, r2, r6, lsr ip
    7dd0:	00000400 	andeq	r0, r0, r0, lsl #8
    7dd4:	459c0100 	ldrmi	r0, [ip, #256]	; 0x100
    7dd8:	22000009 	andcs	r0, r0, #9
    7ddc:	36010070 			; <UNDEFINED> instruction: 0x36010070
    7de0:	00000105 	andeq	r0, r0, r5, lsl #2
    7de4:	24005001 	strcs	r5, [r0], #-1
    7de8:	0000030c 	andeq	r0, r0, ip, lsl #6
    7dec:	01052901 	tsteq	r5, r1, lsl #18
    7df0:	b1900000 	orrslt	r0, r0, r0
    7df4:	008c0000 	addeq	r0, ip, r0
    7df8:	9c010000 	stcls	0, cr0, [r1], {-0}
    7dfc:	00000a30 	andeq	r0, r0, r0, lsr sl
    7e00:	00046425 	andeq	r6, r4, r5, lsr #8
    7e04:	2c290100 	stfcss	f0, [r9], #-0
    7e08:	22000000 	andcs	r0, r0, #0
    7e0c:	2500001f 	strcs	r0, [r0, #-31]
    7e10:	000002dd 	ldrdeq	r0, [r0], -sp
    7e14:	002c2901 	eoreq	r2, ip, r1, lsl #18
    7e18:	1f750000 	svcne	0x00750000
    7e1c:	d3260000 	teqle	r6, #0
    7e20:	40000000 	andmi	r0, r0, r0
    7e24:	0500000a 	streq	r0, [r0, #-10]
    7e28:	00c4a803 	sbceq	sl, r4, r3, lsl #16
    7e2c:	00682700 	rsbeq	r2, r8, r0, lsl #14
    7e30:	002c2e01 	eoreq	r2, ip, r1, lsl #28
    7e34:	1fbc0000 	svcne	0x00bc0000
    7e38:	cc280000 	stcgt	0, cr0, [r8], #-0
    7e3c:	790000b1 	stmdbvc	r0, {r0, r4, r5, r7}
    7e40:	ad00000a 	stcge	0, cr0, [r0, #-40]	; 0xffffffd8
    7e44:	29000009 	stmdbcs	r0, {r0, r3}
    7e48:	f3035001 	vhadd.u8	d5, d3, d1
    7e4c:	2a005001 	bcs	1be58 <__bss_end__+0xf490>
    7e50:	0000b1d4 	ldrdeq	fp, [r0], -r4
    7e54:	00000bfb 	strdeq	r0, [r0], -fp
    7e58:	00b1e828 	adcseq	lr, r1, r8, lsr #16
    7e5c:	000c0600 	andeq	r0, ip, r0, lsl #12
    7e60:	0009e500 	andeq	lr, r9, r0, lsl #10
    7e64:	50012900 	andpl	r2, r1, r0, lsl #18
    7e68:	c4f40305 	ldrbtgt	r0, [r4], #773	; 0x305
    7e6c:	01290000 	teqeq	r9, r0
    7e70:	b8030551 	stmdalt	r3, {r0, r4, r6, r8, sl}
    7e74:	290000c4 	stmdbcs	r0, {r2, r6, r7}
    7e78:	03055201 	movweq	r5, #20993	; 0x5201
    7e7c:	0000c4a8 	andeq	ip, r0, r8, lsr #9
    7e80:	02530129 	subseq	r0, r3, #1073741834	; 0x4000000a
    7e84:	2a002a08 	bcs	126ac <__bss_end__+0x5ce4>
    7e88:	0000b1ec 	andeq	fp, r0, ip, ror #3
    7e8c:	00000c11 	andeq	r0, r0, r1, lsl ip
    7e90:	00b1f02a 	adcseq	pc, r1, sl, lsr #32
    7e94:	000bfb00 	andeq	pc, fp, r0, lsl #22
    7e98:	b2042800 	andlt	r2, r4, #0, 16
    7e9c:	0c060000 	stceq	0, cr0, [r6], {-0}
    7ea0:	0a260000 	beq	987ea8 <__bss_end__+0x97b4e0>
    7ea4:	01290000 	teqeq	r9, r0
    7ea8:	54030550 	strpl	r0, [r3], #-1360	; 0x550
    7eac:	290000c5 	stmdbcs	r0, {r0, r2, r6, r7}
    7eb0:	03055101 	movweq	r5, #20737	; 0x5101
    7eb4:	0000c4b8 			; <UNDEFINED> instruction: 0x0000c4b8
    7eb8:	05520129 	ldrbeq	r0, [r2, #-297]	; 0x129
    7ebc:	00c4a803 	sbceq	sl, r4, r3, lsl #16
    7ec0:	53012900 	movwpl	r2, #6400	; 0x1900
    7ec4:	00300802 	eorseq	r0, r0, r2, lsl #16
    7ec8:	00b2082a 	adcseq	r0, r2, sl, lsr #16
    7ecc:	000c1100 	andeq	r1, ip, r0, lsl #2
    7ed0:	14080000 	strne	r0, [r8], #-0
    7ed4:	40000001 	andmi	r0, r0, r1
    7ed8:	0900000a 	stmdbeq	r0, {r1, r3}
    7edc:	000000c7 	andeq	r0, r0, r7, asr #1
    7ee0:	300e000f 	andcc	r0, lr, pc
    7ee4:	2400000a 	strcs	r0, [r0], #-10
    7ee8:	000014dc 	ldrdeq	r1, [r0], -ip
    7eec:	01052501 	tsteq	r5, r1, lsl #10
    7ef0:	b1840000 	orrlt	r0, r4, r0
    7ef4:	000c0000 	andeq	r0, ip, r0
    7ef8:	9c010000 	stcls	0, cr0, [r1], {-0}
    7efc:	00000a68 	andeq	r0, r0, r8, ror #20
    7f00:	00b18c2a 	adcseq	r8, r1, sl, lsr #24
    7f04:	000bd100 	andeq	sp, fp, r0, lsl #2
    7f08:	95230000 	strls	r0, [r3, #-0]!
    7f0c:	01000014 	tsteq	r0, r4, lsl r0
    7f10:	00b18024 	adcseq	r8, r1, r4, lsr #32
    7f14:	00000400 	andeq	r0, r0, r0, lsl #8
    7f18:	249c0100 	ldrcs	r0, [ip], #256	; 0x100
    7f1c:	00001525 	andeq	r1, r0, r5, lsr #10
    7f20:	01051a01 	tsteq	r5, r1, lsl #20
    7f24:	b11c0000 	tstlt	ip, r0
    7f28:	00640000 	rsbeq	r0, r4, r0
    7f2c:	9c010000 	stcls	0, cr0, [r1], {-0}
    7f30:	00000b24 	andeq	r0, r0, r4, lsr #22
    7f34:	007a732b 	rsbseq	r7, sl, fp, lsr #6
    7f38:	002c1a01 	eoreq	r1, ip, r1, lsl #20
    7f3c:	1ff40000 	svcne	0x00f40000
    7f40:	d3260000 	teqle	r6, #0
    7f44:	34000000 	strcc	r0, [r0], #-0
    7f48:	0500000b 	streq	r0, [r0, #-11]
    7f4c:	00c4a003 	sbceq	sl, r4, r3
    7f50:	03252c00 	teqeq	r5, #0, 24
    7f54:	1e010000 	cdpne	0, 0, cr0, cr1, cr0, {0}
    7f58:	00000105 	andeq	r0, r0, r5, lsl #2
    7f5c:	0000203e 	andeq	r2, r0, lr, lsr r0
    7f60:	00b14c28 	adcseq	r4, r1, r8, lsr #24
    7f64:	000c1c00 	andeq	r1, ip, r0, lsl #24
    7f68:	000ae300 	andeq	lr, sl, r0, lsl #6
    7f6c:	50012900 	andpl	r2, r1, r0, lsl #18
    7f70:	29007402 	stmdbcs	r0, {r1, sl, ip, sp, lr}
    7f74:	30015101 	andcc	r5, r1, r1, lsl #2
    7f78:	08520129 	ldmdaeq	r2, {r0, r3, r5, r8}^
    7f7c:	235001f3 	cmpcs	r0, #-1073741764	; 0xc000003c
    7f80:	1af80907 	bne	ffe0a3a4 <__bss_end__+0xffdfd9dc>
    7f84:	b1582a00 	cmplt	r8, r0, lsl #20
    7f88:	0bfb0000 	bleq	ffec7f90 <__bss_end__+0xffebb5c8>
    7f8c:	6c280000 	stcvs	0, cr0, [r8], #-0
    7f90:	060000b1 			; <UNDEFINED> instruction: 0x060000b1
    7f94:	1a00000c 	bne	7fcc <__code_start__-0x34>
    7f98:	2900000b 	stmdbcs	r0, {r0, r1, r3}
    7f9c:	03055001 	movweq	r5, #20481	; 0x5001
    7fa0:	0000c4e0 	andeq	ip, r0, r0, ror #9
    7fa4:	05510129 	ldrbeq	r0, [r1, #-297]	; 0x129
    7fa8:	00c4b803 	sbceq	fp, r4, r3, lsl #16
    7fac:	52012900 	andpl	r2, r1, #0, 18
    7fb0:	c4a00305 	strtgt	r0, [r0], #773	; 0x305
    7fb4:	01290000 	teqeq	r9, r0
    7fb8:	004b0153 	subeq	r0, fp, r3, asr r1
    7fbc:	00b1702a 	adcseq	r7, r1, sl, lsr #32
    7fc0:	000c1100 	andeq	r1, ip, r0, lsl #2
    7fc4:	14080000 	strne	r0, [r8], #-0
    7fc8:	34000001 	strcc	r0, [r0], #-1
    7fcc:	0900000b 	stmdbeq	r0, {r0, r1, r3}
    7fd0:	000000c7 	andeq	r0, r0, r7, asr #1
    7fd4:	240e0007 	strcs	r0, [lr], #-7
    7fd8:	2100000b 	tstcs	r0, fp
    7fdc:	000014b3 			; <UNDEFINED> instruction: 0x000014b3
    7fe0:	b0cc1401 	sbclt	r1, ip, r1, lsl #8
    7fe4:	00500000 	subseq	r0, r0, r0
    7fe8:	9c010000 	stcls	0, cr0, [r1], {-0}
    7fec:	00000bbc 			; <UNDEFINED> instruction: 0x00000bbc
    7ff0:	00032425 	andeq	r2, r3, r5, lsr #8
    7ff4:	2c140100 	ldfcss	f0, [r4], {-0}
    7ff8:	51000000 	mrspl	r0, (UNDEF: 0)
    7ffc:	2c000020 	stccs	0, cr0, [r0], {32}
    8000:	00000325 	andeq	r0, r0, r5, lsr #6
    8004:	01071501 	tsteq	r7, r1, lsl #10
    8008:	20720000 	rsbscs	r0, r2, r0
    800c:	d3260000 	teqle	r6, #0
    8010:	cc000000 	stcgt	0, cr0, [r0], {-0}
    8014:	0500000b 	streq	r0, [r0, #-11]
    8018:	00c48803 	sbceq	r8, r4, r3, lsl #16
    801c:	b0f42a00 	rscslt	r2, r4, r0, lsl #20
    8020:	0bfb0000 	bleq	ffec8028 <__bss_end__+0xffebb660>
    8024:	08280000 	stmdaeq	r8!, {}	; <UNPREDICTABLE>
    8028:	060000b1 			; <UNDEFINED> instruction: 0x060000b1
    802c:	b200000c 	andlt	r0, r0, #12
    8030:	2900000b 	stmdbcs	r0, {r0, r1, r3}
    8034:	03055001 	movweq	r5, #20481	; 0x5001
    8038:	0000c4c4 	andeq	ip, r0, r4, asr #9
    803c:	05510129 	ldrbeq	r0, [r1, #-297]	; 0x129
    8040:	00c4b803 	sbceq	fp, r4, r3, lsl #16
    8044:	52012900 	andpl	r2, r1, #0, 18
    8048:	c4880305 	strgt	r0, [r8], #773	; 0x305
    804c:	01290000 	teqeq	r9, r0
    8050:	00460153 	subeq	r0, r6, r3, asr r1
    8054:	00b10c2a 	adcseq	r0, r1, sl, lsr #24
    8058:	000c1100 	andeq	r1, ip, r0, lsl #2
    805c:	14080000 	strne	r0, [r8], #-0
    8060:	cc000001 	stcgt	0, cr0, [r0], {1}
    8064:	0900000b 	stmdbeq	r0, {r0, r1, r3}
    8068:	000000c7 	andeq	r0, r0, r7, asr #1
    806c:	bc0e0016 	stclt	0, cr0, [lr], {22}
    8070:	2d00000b 	stccs	0, cr0, [r0, #-44]	; 0xffffffd4
    8074:	000014fc 	strdeq	r1, [r0], -ip
    8078:	01051201 	tsteq	r5, r1, lsl #4
    807c:	b0c00000 	sbclt	r0, r0, r0
    8080:	000c0000 	andeq	r0, ip, r0
    8084:	9c010000 	stcls	0, cr0, [r1], {-0}
    8088:	0015142d 	andseq	r1, r5, sp, lsr #8
    808c:	05110100 	ldreq	r0, [r1, #-256]	; 0x100
    8090:	b0000001 	andlt	r0, r0, r1
    8094:	100000b0 	strhne	r0, [r0], -r0	; <UNPREDICTABLE>
    8098:	01000000 	mrseq	r0, (UNDEF: 0)
    809c:	02482e9c 	subeq	r2, r8, #156, 28	; 0x9c0
    80a0:	02480000 	subeq	r0, r8, #0
    80a4:	1e060000 	cdpne	0, 0, cr0, cr6, cr0, {0}
    80a8:	000a9e2e 	andeq	r9, sl, lr, lsr #28
    80ac:	000a9e00 	andeq	r9, sl, r0, lsl #28
    80b0:	2e290600 	cfmadda32cs	mvax0, mvax0, mvfx9, mvfx0
    80b4:	0000007b 	andeq	r0, r0, fp, ror r0
    80b8:	0000007b 	andeq	r0, r0, fp, ror r0
    80bc:	452e6506 	strmi	r6, [lr, #-1286]!	; 0x506
    80c0:	45000005 	strmi	r0, [r0, #-5]
    80c4:	07000005 	streq	r0, [r0, -r5]
    80c8:	Address 0x00000000000080c8 is out of bounds.


Disassembly of section .debug_abbrev:

00000000 <.debug_abbrev>:
       0:	25011101 	strcs	r1, [r1, #-257]	; 0x101
       4:	030b130e 	movweq	r1, #45838	; 0xb30e
       8:	110e1b0e 	tstne	lr, lr, lsl #22
       c:	10061201 	andne	r1, r6, r1, lsl #4
      10:	02000017 	andeq	r0, r0, #23
      14:	0b0b0024 	bleq	2c00ac <__bss_end__+0x2b36e4>
      18:	08030b3e 	stmdaeq	r3, {r1, r2, r3, r4, r5, r8, r9, fp}
      1c:	24030000 	strcs	r0, [r3], #-0
      20:	3e0b0b00 	vmlacc.f64	d0, d11, d0
      24:	000e030b 	andeq	r0, lr, fp, lsl #6
      28:	00160400 	andseq	r0, r6, r0, lsl #8
      2c:	0b3a0e03 	bleq	e83840 <__bss_end__+0xe76e78>
      30:	13490b3b 	movtne	r0, #39739	; 0x9b3b
      34:	0f050000 	svceq	0x00050000
      38:	490b0b00 	stmdbmi	fp, {r8, r9, fp}
      3c:	06000013 			; <UNDEFINED> instruction: 0x06000013
      40:	13490026 	movtne	r0, #36902	; 0x9026
      44:	01070000 	mrseq	r0, (UNDEF: 7)
      48:	01134901 	tsteq	r3, r1, lsl #18
      4c:	08000013 	stmdaeq	r0, {r0, r1, r4}
      50:	13490021 	movtne	r0, #36897	; 0x9021
      54:	00000b2f 	andeq	r0, r0, pc, lsr #22
      58:	0b010409 	bleq	41084 <__bss_end__+0x346bc>
      5c:	3b0b3a0b 	blcc	2ce890 <__bss_end__+0x2c1ec8>
      60:	0013010b 	andseq	r0, r3, fp, lsl #2
      64:	00280a00 	eoreq	r0, r8, r0, lsl #20
      68:	0d1c0e03 	ldceq	14, cr0, [ip, #-12]
      6c:	2e0b0000 	cdpcs	0, 0, cr0, cr11, cr0, {0}
      70:	3a0e0301 	bcc	380c7c <__bss_end__+0x3742b4>
      74:	270b3b0b 	strcs	r3, [fp, -fp, lsl #22]
      78:	12011119 	andne	r1, r1, #1073741830	; 0x40000006
      7c:	97184006 	ldrls	r4, [r8, -r6]
      80:	13011942 	movwne	r1, #6466	; 0x1942
      84:	050c0000 	streq	r0, [ip, #-0]
      88:	3a0e0300 	bcc	380c90 <__bss_end__+0x3742c8>
      8c:	490b3b0b 	stmdbmi	fp, {r0, r1, r3, r8, r9, fp, ip, sp}
      90:	00170213 	andseq	r0, r7, r3, lsl r2
      94:	00050d00 	andeq	r0, r5, r0, lsl #26
      98:	0b3a0803 	bleq	e820ac <__bss_end__+0xe756e4>
      9c:	13490b3b 	movtne	r0, #39739	; 0x9b3b
      a0:	00001702 	andeq	r1, r0, r2, lsl #14
      a4:	0300340e 	movweq	r3, #1038	; 0x40e
      a8:	3413490e 	ldrcc	r4, [r3], #-2318	; 0x90e
      ac:	00180219 	andseq	r0, r8, r9, lsl r2
      b0:	82890f00 	addhi	r0, r9, #0, 30
      b4:	01110001 	tsteq	r1, r1
      b8:	00001331 	andeq	r1, r0, r1, lsr r3
      bc:	01828910 	orreq	r8, r2, r0, lsl r9
      c0:	31011101 	tstcc	r1, r1, lsl #2
      c4:	00130113 	andseq	r0, r3, r3, lsl r1
      c8:	828a1100 	addhi	r1, sl, #0, 2
      cc:	18020001 	stmdane	r2, {r0}
      d0:	00184291 	mulseq	r8, r1, r2
      d4:	82891200 	addhi	r1, r9, #0, 4
      d8:	01110101 	tsteq	r1, r1, lsl #2
      dc:	00001331 	andeq	r1, r0, r1, lsr r3
      e0:	3f012e13 	svccc	0x00012e13
      e4:	3a0e0319 	bcc	380d50 <__bss_end__+0x374388>
      e8:	270b3b0b 	strcs	r3, [fp, -fp, lsl #22]
      ec:	12011119 	andne	r1, r1, #1073741830	; 0x40000006
      f0:	97184006 	ldrls	r4, [r8, -r6]
      f4:	13011942 	movwne	r1, #6466	; 0x1942
      f8:	34140000 	ldrcc	r0, [r4], #-0
      fc:	3a080300 	bcc	200d04 <__bss_end__+0x1f433c>
     100:	490b3b0b 	stmdbmi	fp, {r0, r1, r3, r8, r9, fp, ip, sp}
     104:	00061c13 	andeq	r1, r6, r3, lsl ip
     108:	010b1500 	tsteq	fp, r0, lsl #10
     10c:	06120111 			; <UNDEFINED> instruction: 0x06120111
     110:	00001301 	andeq	r1, r0, r1, lsl #6
     114:	03003416 	movweq	r3, #1046	; 0x416
     118:	3b0b3a08 	blcc	2ce940 <__bss_end__+0x2c1f78>
     11c:	0213490b 	andseq	r4, r3, #180224	; 0x2c000
     120:	17000017 	smladne	r0, r7, r0, r0
     124:	193f002e 	ldmdbne	pc!, {r1, r2, r3, r5}	; <UNPREDICTABLE>
     128:	0b3a0e03 	bleq	e8393c <__bss_end__+0xe76f74>
     12c:	19270b3b 	stmdbne	r7!, {r0, r1, r3, r4, r5, r8, r9, fp}
     130:	0000193c 	andeq	r1, r0, ip, lsr r9
     134:	3f012e18 	svccc	0x00012e18
     138:	3a0e0319 	bcc	380da4 <__bss_end__+0x3743dc>
     13c:	270b3b0b 	strcs	r3, [fp, -fp, lsl #22]
     140:	3c134919 	ldccc	9, cr4, [r3], {25}
     144:	00130119 	andseq	r0, r3, r9, lsl r1
     148:	00051900 	andeq	r1, r5, r0, lsl #18
     14c:	00001349 	andeq	r1, r0, r9, asr #6
     150:	0000181a 	andeq	r1, r0, sl, lsl r8
     154:	012e1b00 	teqeq	lr, r0, lsl #22
     158:	0e03193f 	mcreq	9, 0, r1, cr3, cr15, {1}
     15c:	0b3b0b3a 	bleq	ec2e4c <__bss_end__+0xeb6484>
     160:	193c1927 	ldmdbne	ip!, {r0, r1, r2, r5, r8, fp, ip}
     164:	00001301 	andeq	r1, r0, r1, lsl #6
     168:	3f002e1c 	svccc	0x00002e1c
     16c:	3a0e0319 	bcc	380dd8 <__bss_end__+0x374410>
     170:	270b3b0b 	strcs	r3, [fp, -fp, lsl #22]
     174:	3c134919 	ldccc	9, cr4, [r3], {25}
     178:	00000019 	andeq	r0, r0, r9, lsl r0
     17c:	25011101 	strcs	r1, [r1, #-257]	; 0x101
     180:	030b130e 	movweq	r1, #45838	; 0xb30e
     184:	110e1b0e 	tstne	lr, lr, lsl #22
     188:	10061201 	andne	r1, r6, r1, lsl #4
     18c:	02000017 	andeq	r0, r0, #23
     190:	0b0b0024 	bleq	2c0228 <__bss_end__+0x2b3860>
     194:	08030b3e 	stmdaeq	r3, {r1, r2, r3, r4, r5, r8, r9, fp}
     198:	16030000 	strne	r0, [r3], -r0
     19c:	3a0e0300 	bcc	380da4 <__bss_end__+0x3743dc>
     1a0:	490b3b0b 	stmdbmi	fp, {r0, r1, r3, r8, r9, fp, ip, sp}
     1a4:	04000013 	streq	r0, [r0], #-19
     1a8:	0b0b0024 	bleq	2c0240 <__bss_end__+0x2b3878>
     1ac:	0e030b3e 	vmoveq.16	d3[0], r0
     1b0:	0f050000 	svceq	0x00050000
     1b4:	000b0b00 	andeq	r0, fp, r0, lsl #22
     1b8:	000f0600 	andeq	r0, pc, r0, lsl #12
     1bc:	13490b0b 	movtne	r0, #39691	; 0x9b0b
     1c0:	26070000 	strcs	r0, [r7], -r0
     1c4:	00134900 	andseq	r4, r3, r0, lsl #18
     1c8:	01130800 	tsteq	r3, r0, lsl #16
     1cc:	0b0b0e03 	bleq	2c39e0 <__bss_end__+0x2b7018>
     1d0:	0b3b0b3a 	bleq	ec2ec0 <__bss_end__+0xeb64f8>
     1d4:	00001301 	andeq	r1, r0, r1, lsl #6
     1d8:	03000d09 	movweq	r0, #3337	; 0xd09
     1dc:	3b0b3a0e 	blcc	2cea1c <__bss_end__+0x2c2054>
     1e0:	0b13490b 	bleq	4d2614 <__bss_end__+0x4c5c4c>
     1e4:	0c0b0d0b 	stceq	13, cr0, [fp], {11}
     1e8:	000b380b 	andeq	r3, fp, fp, lsl #16
     1ec:	000d0a00 	andeq	r0, sp, r0, lsl #20
     1f0:	0b3a0803 	bleq	e82204 <__bss_end__+0xe7583c>
     1f4:	13490b3b 	movtne	r0, #39739	; 0x9b3b
     1f8:	0b0d0b0b 	bleq	342e2c <__bss_end__+0x336464>
     1fc:	0b380b0c 	bleq	e02e34 <__bss_end__+0xdf646c>
     200:	040b0000 	streq	r0, [fp], #-0
     204:	3a0b0b01 	bcc	2c2e10 <__bss_end__+0x2b6448>
     208:	010b3b0b 	tsteq	fp, fp, lsl #22
     20c:	0c000013 	stceq	0, cr0, [r0], {19}
     210:	0e030028 	cdpeq	0, 0, cr0, cr3, cr8, {1}
     214:	00000d1c 	andeq	r0, r0, ip, lsl sp
     218:	03012e0d 	movweq	r2, #7693	; 0x1e0d
     21c:	3b0b3a0e 	blcc	2cea5c <__bss_end__+0x2c2094>
     220:	4919270b 	ldmdbmi	r9, {r0, r1, r3, r8, r9, sl, sp}
     224:	010b2013 	tsteq	fp, r3, lsl r0
     228:	0e000013 	mcreq	0, 0, r0, cr0, cr3, {0}
     22c:	08030005 	stmdaeq	r3, {r0, r2}
     230:	0b3b0b3a 	bleq	ec2f20 <__bss_end__+0xeb6558>
     234:	00001349 	andeq	r1, r0, r9, asr #6
     238:	3f012e0f 	svccc	0x00012e0f
     23c:	3a0e0319 	bcc	380ea8 <__bss_end__+0x3744e0>
     240:	270b3b0b 	strcs	r3, [fp, -fp, lsl #22]
     244:	11134919 	tstne	r3, r9, lsl r9
     248:	40061201 	andmi	r1, r6, r1, lsl #4
     24c:	19429718 	stmdbne	r2, {r3, r4, r8, r9, sl, ip, pc}^
     250:	00001301 	andeq	r1, r0, r1, lsl #6
     254:	01828910 	orreq	r8, r2, r0, lsl r9
     258:	31011100 	mrscc	r1, (UNDEF: 17)
     25c:	11000013 	tstne	r0, r3, lsl r0
     260:	08030005 	stmdaeq	r3, {r0, r2}
     264:	0b3b0b3a 	bleq	ec2f54 <__bss_end__+0xeb658c>
     268:	17021349 	strne	r1, [r2, -r9, asr #6]
     26c:	34120000 	ldrcc	r0, [r2], #-0
     270:	490e0300 	stmdbmi	lr, {r8, r9}
     274:	02193413 	andseq	r3, r9, #318767104	; 0x13000000
     278:	13000018 	movwne	r0, #24
     27c:	0e030034 	mcreq	0, 0, r0, cr3, cr4, {1}
     280:	0b3b0b3a 	bleq	ec2f70 <__bss_end__+0xeb65a8>
     284:	17021349 	strne	r1, [r2, -r9, asr #6]
     288:	34140000 	ldrcc	r0, [r4], #-0
     28c:	3a080300 	bcc	200e94 <__bss_end__+0x1f44cc>
     290:	490b3b0b 	stmdbmi	fp, {r0, r1, r3, r8, r9, fp, ip, sp}
     294:	00170213 	andseq	r0, r7, r3, lsl r2
     298:	82891500 	addhi	r1, r9, #0, 10
     29c:	01110101 	tsteq	r1, r1, lsl #2
     2a0:	13011331 	movwne	r1, #4913	; 0x1331
     2a4:	8a160000 	bhi	5802ac <__bss_end__+0x5738e4>
     2a8:	02000182 	andeq	r0, r0, #-2147483616	; 0x80000020
     2ac:	18429118 	stmdane	r2, {r3, r4, r8, ip, pc}^
     2b0:	01170000 	tsteq	r7, r0
     2b4:	01134901 	tsteq	r3, r1, lsl #18
     2b8:	18000013 	stmdane	r0, {r0, r1, r4}
     2bc:	13490021 	movtne	r0, #36897	; 0x9021
     2c0:	00000b2f 	andeq	r0, r0, pc, lsr #22
     2c4:	03012e19 	movweq	r2, #7705	; 0x1e19
     2c8:	3b0b3a0e 	blcc	2ceb08 <__bss_end__+0x2c2140>
     2cc:	1119270b 	tstne	r9, fp, lsl #14
     2d0:	40061201 	andmi	r1, r6, r1, lsl #4
     2d4:	19429718 	stmdbne	r2, {r3, r4, r8, r9, sl, ip, pc}^
     2d8:	00001301 	andeq	r1, r0, r1, lsl #6
     2dc:	0300051a 	movweq	r0, #1306	; 0x51a
     2e0:	3b0b3a0e 	blcc	2ceb20 <__bss_end__+0x2c2158>
     2e4:	0213490b 	andseq	r4, r3, #180224	; 0x2c000
     2e8:	1b000017 	blne	34c <__code_start__-0x7cb4>
     2ec:	1331011d 	teqne	r1, #1073741831	; 0x40000007
     2f0:	06120111 			; <UNDEFINED> instruction: 0x06120111
     2f4:	0b590b58 	bleq	164305c <__bss_end__+0x1636694>
     2f8:	00001301 	andeq	r1, r0, r1, lsl #6
     2fc:	3100051c 	tstcc	r0, ip, lsl r5
     300:	00170213 	andseq	r0, r7, r3, lsl r2
     304:	010b1d00 	tsteq	fp, r0, lsl #26
     308:	13011755 	movwne	r1, #5973	; 0x1755
     30c:	0b1e0000 	bleq	780314 <__bss_end__+0x77394c>
     310:	00175501 	andseq	r5, r7, r1, lsl #10
     314:	82891f00 	addhi	r1, r9, #0, 30
     318:	01110101 	tsteq	r1, r1, lsl #2
     31c:	00001331 	andeq	r1, r0, r1, lsr r3
     320:	3f012e20 	svccc	0x00012e20
     324:	3a0e0319 	bcc	380f90 <__bss_end__+0x3745c8>
     328:	270b3b0b 	strcs	r3, [fp, -fp, lsl #22]
     32c:	12011119 	andne	r1, r1, #1073741830	; 0x40000006
     330:	97184006 	ldrls	r4, [r8, -r6]
     334:	13011942 	movwne	r1, #6466	; 0x1942
     338:	05210000 	streq	r0, [r1, #-0]!
     33c:	3a080300 	bcc	200f44 <__bss_end__+0x1f457c>
     340:	490b3b0b 	stmdbmi	fp, {r0, r1, r3, r8, r9, fp, ip, sp}
     344:	00180213 	andseq	r0, r8, r3, lsl r2
     348:	00342200 	eorseq	r2, r4, r0, lsl #4
     34c:	0b3a0803 	bleq	e82360 <__bss_end__+0xe75998>
     350:	13490b3b 	movtne	r0, #39739	; 0x9b3b
     354:	0000051c 	andeq	r0, r0, ip, lsl r5
     358:	03003423 	movweq	r3, #1059	; 0x423
     35c:	3b0b3a0e 	blcc	2ceb9c <__bss_end__+0x2c21d4>
     360:	1c13490b 	ldcne	9, cr4, [r3], {11}
     364:	24000005 	strcs	r0, [r0], #-5
     368:	08030034 	stmdaeq	r3, {r2, r4, r5}
     36c:	0b3b0b3a 	bleq	ec305c <__bss_end__+0xeb6694>
     370:	18021349 	stmdane	r2, {r0, r3, r6, r8, r9, ip}
     374:	34250000 	strtcc	r0, [r5], #-0
     378:	3a0e0300 	bcc	380f80 <__bss_end__+0x3745b8>
     37c:	490b3b0b 	stmdbmi	fp, {r0, r1, r3, r8, r9, fp, ip, sp}
     380:	00180213 	andseq	r0, r8, r3, lsl r2
     384:	002e2600 	eoreq	r2, lr, r0, lsl #12
     388:	0e03193f 	mcreq	9, 0, r1, cr3, cr15, {1}
     38c:	0b3b0b3a 	bleq	ec307c <__bss_end__+0xeb66b4>
     390:	13491927 	movtne	r1, #39207	; 0x9927
     394:	0000193c 	andeq	r1, r0, ip, lsr r9
     398:	3f002e27 	svccc	0x00002e27
     39c:	3a0e0319 	bcc	381008 <__bss_end__+0x374640>
     3a0:	270b3b0b 	strcs	r3, [fp, -fp, lsl #22]
     3a4:	00193c19 	andseq	r3, r9, r9, lsl ip
     3a8:	012e2800 	teqeq	lr, r0, lsl #16
     3ac:	0e03193f 	mcreq	9, 0, r1, cr3, cr15, {1}
     3b0:	0b3b0b3a 	bleq	ec30a0 <__bss_end__+0xeb66d8>
     3b4:	13491927 	movtne	r1, #39207	; 0x9927
     3b8:	1301193c 	movwne	r1, #6460	; 0x193c
     3bc:	05290000 	streq	r0, [r9, #-0]!
     3c0:	00134900 	andseq	r4, r3, r0, lsl #18
     3c4:	00182a00 	andseq	r2, r8, r0, lsl #20
     3c8:	2e2b0000 	cdpcs	0, 2, cr0, cr11, cr0, {0}
     3cc:	03193f01 	tsteq	r9, #1, 30
     3d0:	3b0b3a0e 	blcc	2cec10 <__bss_end__+0x2c2248>
     3d4:	3c19270b 	ldccc	7, cr2, [r9], {11}
     3d8:	00130119 	andseq	r0, r3, r9, lsl r1
     3dc:	00262c00 	eoreq	r2, r6, r0, lsl #24
     3e0:	2e2d0000 	cdpcs	0, 2, cr0, cr13, cr0, {0}
     3e4:	03193f01 	tsteq	r9, #1, 30
     3e8:	3b0b3a0e 	blcc	2cec28 <__bss_end__+0x2c2260>
     3ec:	3c19270b 	ldccc	7, cr2, [r9], {11}
     3f0:	00000019 	andeq	r0, r0, r9, lsl r0
     3f4:	25011101 	strcs	r1, [r1, #-257]	; 0x101
     3f8:	030b130e 	movweq	r1, #45838	; 0xb30e
     3fc:	110e1b0e 	tstne	lr, lr, lsl #22
     400:	10061201 	andne	r1, r6, r1, lsl #4
     404:	02000017 	andeq	r0, r0, #23
     408:	0b0b0024 	bleq	2c04a0 <__bss_end__+0x2b3ad8>
     40c:	08030b3e 	stmdaeq	r3, {r1, r2, r3, r4, r5, r8, r9, fp}
     410:	24030000 	strcs	r0, [r3], #-0
     414:	3e0b0b00 	vmlacc.f64	d0, d11, d0
     418:	000e030b 	andeq	r0, lr, fp, lsl #6
     41c:	00160400 	andseq	r0, r6, r0, lsl #8
     420:	0b3a0e03 	bleq	e83c34 <__bss_end__+0xe7726c>
     424:	13490b3b 	movtne	r0, #39739	; 0x9b3b
     428:	0f050000 	svceq	0x00050000
     42c:	490b0b00 	stmdbmi	fp, {r8, r9, fp}
     430:	06000013 			; <UNDEFINED> instruction: 0x06000013
     434:	13490026 	movtne	r0, #36902	; 0x9026
     438:	01070000 	mrseq	r0, (UNDEF: 7)
     43c:	01134901 	tsteq	r3, r1, lsl #18
     440:	08000013 	stmdaeq	r0, {r0, r1, r4}
     444:	13490021 	movtne	r0, #36897	; 0x9021
     448:	00000b2f 	andeq	r0, r0, pc, lsr #22
     44c:	03011309 	movweq	r1, #4873	; 0x1309
     450:	3a0b0b0e 	bcc	2c3090 <__bss_end__+0x2b66c8>
     454:	010b3b0b 	tsteq	fp, fp, lsl #22
     458:	0a000013 	beq	4ac <__code_start__-0x7b54>
     45c:	0e03000d 	cdpeq	0, 0, cr0, cr3, cr13, {0}
     460:	0b3b0b3a 	bleq	ec3150 <__bss_end__+0xeb6788>
     464:	0b0b1349 	bleq	2c5190 <__bss_end__+0x2b87c8>
     468:	0b0c0b0d 	bleq	3030a4 <__bss_end__+0x2f66dc>
     46c:	00000b38 	andeq	r0, r0, r8, lsr fp
     470:	03000d0b 	movweq	r0, #3339	; 0xd0b
     474:	3b0b3a08 	blcc	2cec9c <__bss_end__+0x2c22d4>
     478:	0b13490b 	bleq	4d28ac <__bss_end__+0x4c5ee4>
     47c:	0c0b0d0b 	stceq	13, cr0, [fp], {11}
     480:	000b380b 	andeq	r3, fp, fp, lsl #16
     484:	012e0c00 	teqeq	lr, r0, lsl #24
     488:	0e03193f 	mcreq	9, 0, r1, cr3, cr15, {1}
     48c:	0b3b0b3a 	bleq	ec317c <__bss_end__+0xeb67b4>
     490:	01111927 	tsteq	r1, r7, lsr #18
     494:	18400612 	stmdane	r0, {r1, r4, r9, sl}^
     498:	01194297 			; <UNDEFINED> instruction: 0x01194297
     49c:	0d000013 	stceq	0, cr0, [r0, #-76]	; 0xffffffb4
     4a0:	08030005 	stmdaeq	r3, {r0, r2}
     4a4:	0b3b0b3a 	bleq	ec3194 <__bss_end__+0xeb67cc>
     4a8:	17021349 	strne	r1, [r2, -r9, asr #6]
     4ac:	050e0000 	streq	r0, [lr, #-0]
     4b0:	3a0e0300 	bcc	3810b8 <__bss_end__+0x3746f0>
     4b4:	490b3b0b 	stmdbmi	fp, {r0, r1, r3, r8, r9, fp, ip, sp}
     4b8:	00170213 	andseq	r0, r7, r3, lsl r2
     4bc:	82890f00 	addhi	r0, r9, #0, 30
     4c0:	01110101 	tsteq	r1, r1, lsl #2
     4c4:	13011331 	movwne	r1, #4913	; 0x1331
     4c8:	8a100000 	bhi	4004d0 <__bss_end__+0x3f3b08>
     4cc:	02000182 	andeq	r0, r0, #-2147483616	; 0x80000020
     4d0:	18429118 	stmdane	r2, {r3, r4, r8, ip, pc}^
     4d4:	89110000 	ldmdbhi	r1, {}	; <UNPREDICTABLE>
     4d8:	11010182 	smlabbne	r1, r2, r1, r0
     4dc:	00133101 	andseq	r3, r3, r1, lsl #2
     4e0:	00261200 	eoreq	r1, r6, r0, lsl #4
     4e4:	89130000 	ldmdbhi	r3, {}	; <UNPREDICTABLE>
     4e8:	11000182 	smlabbne	r0, r2, r1, r0
     4ec:	00133101 	andseq	r3, r3, r1, lsl #2
     4f0:	012e1400 	teqeq	lr, r0, lsl #8
     4f4:	0b3a0e03 	bleq	e83d08 <__bss_end__+0xe77340>
     4f8:	19270b3b 	stmdbne	r7!, {r0, r1, r3, r4, r5, r8, r9, fp}
     4fc:	06120111 			; <UNDEFINED> instruction: 0x06120111
     500:	42971840 	addsmi	r1, r7, #64, 16	; 0x400000
     504:	00130119 	andseq	r0, r3, r9, lsl r1
     508:	00341500 	eorseq	r1, r4, r0, lsl #10
     50c:	13490e03 	movtne	r0, #40451	; 0x9e03
     510:	18021934 	stmdane	r2, {r2, r4, r5, r8, fp, ip}
     514:	2e160000 	cdpcs	0, 1, cr0, cr6, cr0, {0}
     518:	03193f00 	tsteq	r9, #0, 30
     51c:	3b0b3a0e 	blcc	2ced5c <__bss_end__+0x2c2394>
     520:	4919270b 	ldmdbmi	r9, {r0, r1, r3, r8, r9, sl, sp}
     524:	12011113 	andne	r1, r1, #-1073741820	; 0xc0000004
     528:	97184006 	ldrls	r4, [r8, -r6]
     52c:	00001942 	andeq	r1, r0, r2, asr #18
     530:	03003417 	movweq	r3, #1047	; 0x417
     534:	3b0b3a08 	blcc	2ced5c <__bss_end__+0x2c2394>
     538:	0213490b 	andseq	r4, r3, #180224	; 0x2c000
     53c:	18000018 	stmdane	r0, {r3, r4}
     540:	0111010b 	tsteq	r1, fp, lsl #2
     544:	13010612 	movwne	r0, #5650	; 0x1612
     548:	17190000 	ldrne	r0, [r9, -r0]
     54c:	0b080301 	bleq	201158 <__bss_end__+0x1f4790>
     550:	3b0b3a0b 	blcc	2ced84 <__bss_end__+0x2c23bc>
     554:	0013010b 	andseq	r0, r3, fp, lsl #2
     558:	000d1a00 	andeq	r1, sp, r0, lsl #20
     55c:	0b3a0803 	bleq	e82570 <__bss_end__+0xe75ba8>
     560:	13490b3b 	movtne	r0, #39739	; 0x9b3b
     564:	341b0000 	ldrcc	r0, [fp], #-0
     568:	3a080300 	bcc	201170 <__bss_end__+0x1f47a8>
     56c:	490b3b0b 	stmdbmi	fp, {r0, r1, r3, r8, r9, fp, ip, sp}
     570:	000d1c13 	andeq	r1, sp, r3, lsl ip
     574:	00341c00 	eorseq	r1, r4, r0, lsl #24
     578:	0b3a0e03 	bleq	e83d8c <__bss_end__+0xe773c4>
     57c:	13490b3b 	movtne	r0, #39739	; 0x9b3b
     580:	00000b1c 	andeq	r0, r0, ip, lsl fp
     584:	0300341d 	movweq	r3, #1053	; 0x41d
     588:	3b0b3a0e 	blcc	2cedc8 <__bss_end__+0x2c2400>
     58c:	1c13490b 	ldcne	9, cr4, [r3], {11}
     590:	1e000005 	cdpne	0, 0, cr0, cr0, cr5, {0}
     594:	193f012e 	ldmdbne	pc!, {r1, r2, r3, r5, r8}	; <UNPREDICTABLE>
     598:	0b3a0e03 	bleq	e83dac <__bss_end__+0xe773e4>
     59c:	19270b3b 	stmdbne	r7!, {r0, r1, r3, r4, r5, r8, r9, fp}
     5a0:	193c1349 	ldmdbne	ip!, {r0, r3, r6, r8, r9, ip}
     5a4:	00001301 	andeq	r1, r0, r1, lsl #6
     5a8:	4900051f 	stmdbmi	r0, {r0, r1, r2, r3, r4, r8, sl}
     5ac:	20000013 	andcs	r0, r0, r3, lsl r0
     5b0:	00000018 	andeq	r0, r0, r8, lsl r0
     5b4:	3f002e21 	svccc	0x00002e21
     5b8:	3a0e0319 	bcc	381224 <__bss_end__+0x37485c>
     5bc:	270b3b0b 	strcs	r3, [fp, -fp, lsl #22]
     5c0:	3c134919 	ldccc	9, cr4, [r3], {25}
     5c4:	22000019 	andcs	r0, r0, #25
     5c8:	193f002e 	ldmdbne	pc!, {r1, r2, r3, r5}	; <UNPREDICTABLE>
     5cc:	0b3a0e03 	bleq	e83de0 <__bss_end__+0xe77418>
     5d0:	19270b3b 	stmdbne	r7!, {r0, r1, r3, r4, r5, r8, r9, fp}
     5d4:	0000193c 	andeq	r1, r0, ip, lsr r9
     5d8:	01110100 	tsteq	r1, r0, lsl #2
     5dc:	0b130e25 	bleq	4c3e78 <__bss_end__+0x4b74b0>
     5e0:	0e1b0e03 	cdpeq	14, 1, cr0, cr11, cr3, {0}
     5e4:	06120111 			; <UNDEFINED> instruction: 0x06120111
     5e8:	00001710 	andeq	r1, r0, r0, lsl r7
     5ec:	0b002402 	bleq	95fc <fault_expected+0x3c>
     5f0:	030b3e0b 	movweq	r3, #48651	; 0xbe0b
     5f4:	03000008 	movweq	r0, #8
     5f8:	0b0b0024 	bleq	2c0690 <__bss_end__+0x2b3cc8>
     5fc:	0e030b3e 	vmoveq.16	d3[0], r0
     600:	16040000 	strne	r0, [r4], -r0
     604:	3a0e0300 	bcc	38120c <__bss_end__+0x374844>
     608:	490b3b0b 	stmdbmi	fp, {r0, r1, r3, r8, r9, fp, ip, sp}
     60c:	05000013 	streq	r0, [r0, #-19]
     610:	0b0b000f 	bleq	2c0654 <__bss_end__+0x2b3c8c>
     614:	0f060000 	svceq	0x00060000
     618:	490b0b00 	stmdbmi	fp, {r8, r9, fp}
     61c:	07000013 	smladeq	r0, r3, r0, r0
     620:	13490026 	movtne	r0, #36902	; 0x9026
     624:	13080000 	movwne	r0, #32768	; 0x8000
     628:	0b0e0301 	bleq	381234 <__bss_end__+0x37486c>
     62c:	3b0b3a0b 	blcc	2cee60 <__bss_end__+0x2c2498>
     630:	0013010b 	andseq	r0, r3, fp, lsl #2
     634:	000d0900 	andeq	r0, sp, r0, lsl #18
     638:	0b3a0803 	bleq	e8264c <__bss_end__+0xe75c84>
     63c:	13490b3b 	movtne	r0, #39739	; 0x9b3b
     640:	0b0d0b0b 	bleq	343274 <__bss_end__+0x3368ac>
     644:	0b380b0c 	bleq	e0327c <__bss_end__+0xdf68b4>
     648:	0d0a0000 	stceq	0, cr0, [sl, #-0]
     64c:	3a0e0300 	bcc	381254 <__bss_end__+0x37488c>
     650:	490b3b0b 	stmdbmi	fp, {r0, r1, r3, r8, r9, fp, ip, sp}
     654:	0d0b0b13 	vstreq	d0, [fp, #-76]	; 0xffffffb4
     658:	380b0c0b 	stmdacc	fp, {r0, r1, r3, sl, fp}
     65c:	0b00000b 	bleq	690 <__code_start__-0x7970>
     660:	0b0b0104 	bleq	2c0a78 <__bss_end__+0x2b40b0>
     664:	0b3b0b3a 	bleq	ec3354 <__bss_end__+0xeb698c>
     668:	00001301 	andeq	r1, r0, r1, lsl #6
     66c:	0300280c 	movweq	r2, #2060	; 0x80c
     670:	000d1c0e 	andeq	r1, sp, lr, lsl #24
     674:	01130d00 	tsteq	r3, r0, lsl #26
     678:	0b3a0b0b 	bleq	e832ac <__bss_end__+0xe768e4>
     67c:	13010b3b 	movwne	r0, #6971	; 0x1b3b
     680:	0d0e0000 	stceq	0, cr0, [lr, #-0]
     684:	3a0e0300 	bcc	38128c <__bss_end__+0x3748c4>
     688:	490b3b0b 	stmdbmi	fp, {r0, r1, r3, r8, r9, fp, ip, sp}
     68c:	000b3813 	andeq	r3, fp, r3, lsl r8
     690:	012e0f00 	teqeq	lr, r0, lsl #30
     694:	0b3a0e03 	bleq	e83ea8 <__bss_end__+0xe774e0>
     698:	19270b3b 	stmdbne	r7!, {r0, r1, r3, r4, r5, r8, r9, fp}
     69c:	0b201349 	bleq	8053c8 <__bss_end__+0x7f8a00>
     6a0:	00001301 	andeq	r1, r0, r1, lsl #6
     6a4:	03003410 	movweq	r3, #1040	; 0x410
     6a8:	3b0b3a08 	blcc	2ceed0 <__bss_end__+0x2c2508>
     6ac:	0013490b 	andseq	r4, r3, fp, lsl #18
     6b0:	002e1100 	eoreq	r1, lr, r0, lsl #2
     6b4:	0e03193f 	mcreq	9, 0, r1, cr3, cr15, {1}
     6b8:	0b3b0b3a 	bleq	ec33a8 <__bss_end__+0xeb69e0>
     6bc:	13491927 	movtne	r1, #39207	; 0x9927
     6c0:	06120111 			; <UNDEFINED> instruction: 0x06120111
     6c4:	42971840 	addsmi	r1, r7, #64, 16	; 0x400000
     6c8:	12000019 	andne	r0, r0, #25
     6cc:	193f012e 	ldmdbne	pc!, {r1, r2, r3, r5, r8}	; <UNPREDICTABLE>
     6d0:	0b3a0e03 	bleq	e83ee4 <__bss_end__+0xe7751c>
     6d4:	19270b3b 	stmdbne	r7!, {r0, r1, r3, r4, r5, r8, r9, fp}
     6d8:	06120111 			; <UNDEFINED> instruction: 0x06120111
     6dc:	42971840 	addsmi	r1, r7, #64, 16	; 0x400000
     6e0:	00130119 	andseq	r0, r3, r9, lsl r1
     6e4:	00051300 	andeq	r1, r5, r0, lsl #6
     6e8:	0b3a0e03 	bleq	e83efc <__bss_end__+0xe77534>
     6ec:	13490b3b 	movtne	r0, #39739	; 0x9b3b
     6f0:	00001802 	andeq	r1, r0, r2, lsl #16
     6f4:	03000514 	movweq	r0, #1300	; 0x514
     6f8:	3b0b3a08 	blcc	2cef20 <__bss_end__+0x2c2558>
     6fc:	0213490b 	andseq	r4, r3, #180224	; 0x2c000
     700:	15000017 	strne	r0, [r0, #-23]
     704:	0e030005 	cdpeq	0, 0, cr0, cr3, cr5, {0}
     708:	0b3b0b3a 	bleq	ec33f8 <__bss_end__+0xeb6a30>
     70c:	17021349 	strne	r1, [r2, -r9, asr #6]
     710:	34160000 	ldrcc	r0, [r6], #-0
     714:	3a080300 	bcc	20131c <__bss_end__+0x1f4954>
     718:	490b3b0b 	stmdbmi	fp, {r0, r1, r3, r8, r9, fp, ip, sp}
     71c:	00180213 	andseq	r0, r8, r3, lsl r2
     720:	00341700 	eorseq	r1, r4, r0, lsl #14
     724:	13490e03 	movtne	r0, #40451	; 0x9e03
     728:	18021934 	stmdane	r2, {r2, r4, r5, r8, fp, ip}
     72c:	89180000 	ldmdbhi	r8, {}	; <UNPREDICTABLE>
     730:	11010182 	smlabbne	r1, r2, r1, r0
     734:	01133101 	tsteq	r3, r1, lsl #2
     738:	19000013 	stmdbne	r0, {r0, r1, r4}
     73c:	0001828a 	andeq	r8, r1, sl, lsl #5
     740:	42911802 	addsmi	r1, r1, #131072	; 0x20000
     744:	1a000018 	bne	7ac <__code_start__-0x7854>
     748:	00018289 	andeq	r8, r1, r9, lsl #5
     74c:	13310111 	teqne	r1, #1073741828	; 0x40000004
     750:	891b0000 	ldmdbhi	fp, {}	; <UNPREDICTABLE>
     754:	11010182 	smlabbne	r1, r2, r1, r0
     758:	00133101 	andseq	r3, r3, r1, lsl #2
     75c:	01011c00 	tsteq	r1, r0, lsl #24
     760:	13011349 	movwne	r1, #4937	; 0x1349
     764:	211d0000 	tstcs	sp, r0
     768:	2f134900 	svccs	0x00134900
     76c:	1e00000b 	cdpne	0, 0, cr0, cr0, cr11, {0}
     770:	08030005 	stmdaeq	r3, {r0, r2}
     774:	0b3b0b3a 	bleq	ec3464 <__bss_end__+0xeb6a9c>
     778:	00001349 	andeq	r1, r0, r9, asr #6
     77c:	0300341f 	movweq	r3, #1055	; 0x41f
     780:	3413490e 	ldrcc	r4, [r3], #-2318	; 0x90e
     784:	000e1c19 	andeq	r1, lr, r9, lsl ip
     788:	012e2000 	teqeq	lr, r0
     78c:	0b3a0e03 	bleq	e83fa0 <__bss_end__+0xe775d8>
     790:	19270b3b 	stmdbne	r7!, {r0, r1, r3, r4, r5, r8, r9, fp}
     794:	01111349 	tsteq	r1, r9, asr #6
     798:	18400612 	stmdane	r0, {r1, r4, r9, sl}^
     79c:	01194297 			; <UNDEFINED> instruction: 0x01194297
     7a0:	21000013 	tstcs	r0, r3, lsl r0
     7a4:	08030034 	stmdaeq	r3, {r2, r4, r5}
     7a8:	0b3b0b3a 	bleq	ec3498 <__bss_end__+0xeb6ad0>
     7ac:	17021349 	strne	r1, [r2, -r9, asr #6]
     7b0:	1d220000 	stcne	0, cr0, [r2, #-0]
     7b4:	11133101 	tstne	r3, r1, lsl #2
     7b8:	58061201 	stmdapl	r6, {r0, r9, ip}
     7bc:	010b590b 	tsteq	fp, fp, lsl #18
     7c0:	23000013 	movwcs	r0, #19
     7c4:	13310005 	teqne	r1, #5
     7c8:	00001702 	andeq	r1, r0, r2, lsl #14
     7cc:	11010b24 	tstne	r1, r4, lsr #22
     7d0:	00061201 	andeq	r1, r6, r1, lsl #4
     7d4:	00342500 	eorseq	r2, r4, r0, lsl #10
     7d8:	17021331 	smladxne	r2, r1, r3, r1
     7dc:	34260000 	strtcc	r0, [r6], #-0
     7e0:	02133100 	andseq	r3, r3, #0, 2
     7e4:	27000018 	smladcs	r0, r8, r0, r0
     7e8:	0e03012e 	adfeqsp	f0, f3, #0.5
     7ec:	0b3b0b3a 	bleq	ec34dc <__bss_end__+0xeb6b14>
     7f0:	01111927 	tsteq	r1, r7, lsr #18
     7f4:	18400612 	stmdane	r0, {r1, r4, r9, sl}^
     7f8:	01194297 			; <UNDEFINED> instruction: 0x01194297
     7fc:	28000013 	stmdacs	r0, {r0, r1, r4}
     800:	193f002e 	ldmdbne	pc!, {r1, r2, r3, r5}	; <UNPREDICTABLE>
     804:	0b3a0e03 	bleq	e84018 <__bss_end__+0xe77650>
     808:	19270b3b 	stmdbne	r7!, {r0, r1, r3, r4, r5, r8, r9, fp}
     80c:	06120111 			; <UNDEFINED> instruction: 0x06120111
     810:	42971840 	addsmi	r1, r7, #64, 16	; 0x400000
     814:	29000019 	stmdbcs	r0, {r0, r3, r4}
     818:	0e030034 	mcreq	0, 0, r0, cr3, cr4, {1}
     81c:	0b3b0b3a 	bleq	ec350c <__bss_end__+0xeb6b44>
     820:	00001349 	andeq	r1, r0, r9, asr #6
     824:	0300342a 	movweq	r3, #1066	; 0x42a
     828:	3b0b3a0e 	blcc	2cf068 <__bss_end__+0x2c26a0>
     82c:	0213490b 	andseq	r4, r3, #180224	; 0x2c000
     830:	2b000018 	blcs	898 <__code_start__-0x7768>
     834:	0e030034 	mcreq	0, 0, r0, cr3, cr4, {1}
     838:	0b3b0b3a 	bleq	ec3528 <__bss_end__+0xeb6b60>
     83c:	17021349 	strne	r1, [r2, -r9, asr #6]
     840:	342c0000 	strtcc	r0, [ip], #-0
     844:	00133100 	andseq	r3, r3, r0, lsl #2
     848:	00342d00 	eorseq	r2, r4, r0, lsl #26
     84c:	0b3a0e03 	bleq	e84060 <__bss_end__+0xe77698>
     850:	13490b3b 	movtne	r0, #39739	; 0x9b3b
     854:	0000061c 	andeq	r0, r0, ip, lsl r6
     858:	3f012e2e 	svccc	0x00012e2e
     85c:	3a0e0319 	bcc	3814c8 <__bss_end__+0x374b00>
     860:	27053b0b 	strcs	r3, [r5, -fp, lsl #22]
     864:	12011119 	andne	r1, r1, #1073741830	; 0x40000006
     868:	97184006 	ldrls	r4, [r8, -r6]
     86c:	13011942 	movwne	r1, #6466	; 0x1942
     870:	052f0000 	streq	r0, [pc, #-0]!	; 878 <__code_start__-0x7788>
     874:	3a0e0300 	bcc	38147c <__bss_end__+0x374ab4>
     878:	49053b0b 	stmdbmi	r5, {r0, r1, r3, r8, r9, fp, ip, sp}
     87c:	00170213 	andseq	r0, r7, r3, lsl r2
     880:	00343000 	eorseq	r3, r4, r0
     884:	13490e03 	movtne	r0, #40451	; 0x9e03
     888:	00001934 	andeq	r1, r0, r4, lsr r9
     88c:	3f012e31 	svccc	0x00012e31
     890:	3a0e0319 	bcc	3814fc <__bss_end__+0x374b34>
     894:	27053b0b 	strcs	r3, [r5, -fp, lsl #22]
     898:	11134919 	tstne	r3, r9, lsl r9
     89c:	40061201 	andmi	r1, r6, r1, lsl #4
     8a0:	19429718 	stmdbne	r2, {r3, r4, r8, r9, sl, ip, pc}^
     8a4:	00001301 	andeq	r1, r0, r1, lsl #6
     8a8:	03003432 	movweq	r3, #1074	; 0x432
     8ac:	3b0b3a0e 	blcc	2cf0ec <__bss_end__+0x2c2724>
     8b0:	3f13490b 	svccc	0x0013490b
     8b4:	00193c19 	andseq	r3, r9, r9, lsl ip
     8b8:	002e3300 	eoreq	r3, lr, r0, lsl #6
     8bc:	0e03193f 	mcreq	9, 0, r1, cr3, cr15, {1}
     8c0:	0b3b0b3a 	bleq	ec35b0 <__bss_end__+0xeb6be8>
     8c4:	193c1927 	ldmdbne	ip!, {r0, r1, r2, r5, r8, fp, ip}
     8c8:	2e340000 	cdpcs	0, 3, cr0, cr4, cr0, {0}
     8cc:	03193f01 	tsteq	r9, #1, 30
     8d0:	3b0b3a0e 	blcc	2cf110 <__bss_end__+0x2c2748>
     8d4:	4919270b 	ldmdbmi	r9, {r0, r1, r3, r8, r9, sl, sp}
     8d8:	01193c13 	tsteq	r9, r3, lsl ip
     8dc:	35000013 	strcc	r0, [r0, #-19]
     8e0:	13490005 	movtne	r0, #36869	; 0x9005
     8e4:	18360000 	ldmdane	r6!, {}	; <UNPREDICTABLE>
     8e8:	37000000 	strcc	r0, [r0, -r0]
     8ec:	193f002e 	ldmdbne	pc!, {r1, r2, r3, r5}	; <UNPREDICTABLE>
     8f0:	0b3a0e03 	bleq	e84104 <__bss_end__+0xe7773c>
     8f4:	19270b3b 	stmdbne	r7!, {r0, r1, r3, r4, r5, r8, r9, fp}
     8f8:	193c1349 	ldmdbne	ip!, {r0, r3, r6, r8, r9, ip}
     8fc:	2e380000 	cdpcs	0, 3, cr0, cr8, cr0, {0}
     900:	03193f01 	tsteq	r9, #1, 30
     904:	3b0b3a0e 	blcc	2cf144 <__bss_end__+0x2c277c>
     908:	3c19270b 	ldccc	7, cr2, [r9], {11}
     90c:	00130119 	andseq	r0, r3, r9, lsl r1
     910:	012e3900 	teqeq	lr, r0, lsl #18
     914:	0e03193f 	mcreq	9, 0, r1, cr3, cr15, {1}
     918:	0b3b0b3a 	bleq	ec3608 <__bss_end__+0xeb6c40>
     91c:	193c1927 	ldmdbne	ip!, {r0, r1, r2, r5, r8, fp, ip}
     920:	01000000 	mrseq	r0, (UNDEF: 0)
     924:	0e250111 	mcreq	1, 1, r0, cr5, cr1, {0}
     928:	0e030b13 	vmoveq.32	d3[0], r0
     92c:	01110e1b 	tsteq	r1, fp, lsl lr
     930:	17100612 			; <UNDEFINED> instruction: 0x17100612
     934:	24020000 	strcs	r0, [r2], #-0
     938:	3e0b0b00 	vmlacc.f64	d0, d11, d0
     93c:	0008030b 	andeq	r0, r8, fp, lsl #6
     940:	00240300 	eoreq	r0, r4, r0, lsl #6
     944:	0b3e0b0b 	bleq	f83578 <__bss_end__+0xf76bb0>
     948:	00000e03 	andeq	r0, r0, r3, lsl #28
     94c:	03001604 	movweq	r1, #1540	; 0x604
     950:	3b0b3a0e 	blcc	2cf190 <__bss_end__+0x2c27c8>
     954:	0013490b 	andseq	r4, r3, fp, lsl #18
     958:	000f0500 	andeq	r0, pc, r0, lsl #10
     95c:	13490b0b 	movtne	r0, #39691	; 0x9b0b
     960:	26060000 	strcs	r0, [r6], -r0
     964:	00134900 	andseq	r4, r3, r0, lsl #18
     968:	012e0700 	teqeq	lr, r0, lsl #14
     96c:	0e03193f 	mcreq	9, 0, r1, cr3, cr15, {1}
     970:	0b3b0b3a 	bleq	ec3660 <__bss_end__+0xeb6c98>
     974:	13491927 	movtne	r1, #39207	; 0x9927
     978:	06120111 			; <UNDEFINED> instruction: 0x06120111
     97c:	42971840 	addsmi	r1, r7, #64, 16	; 0x400000
     980:	00130119 	andseq	r0, r3, r9, lsl r1
     984:	00050800 	andeq	r0, r5, r0, lsl #16
     988:	0b3a0e03 	bleq	e8419c <__bss_end__+0xe777d4>
     98c:	13490b3b 	movtne	r0, #39739	; 0x9b3b
     990:	00001702 	andeq	r1, r0, r2, lsl #14
     994:	03000509 	movweq	r0, #1289	; 0x509
     998:	3b0b3a08 	blcc	2cf1c0 <__bss_end__+0x2c27f8>
     99c:	0213490b 	andseq	r4, r3, #180224	; 0x2c000
     9a0:	0a000017 	beq	a04 <__code_start__-0x75fc>
     9a4:	0e030034 	mcreq	0, 0, r0, cr3, cr4, {1}
     9a8:	0b3b0b3a 	bleq	ec3698 <__bss_end__+0xeb6cd0>
     9ac:	17021349 	strne	r1, [r2, -r9, asr #6]
     9b0:	340b0000 	strcc	r0, [fp], #-0
     9b4:	3a080300 	bcc	2015bc <__bss_end__+0x1f4bf4>
     9b8:	490b3b0b 	stmdbmi	fp, {r0, r1, r3, r8, r9, fp, ip, sp}
     9bc:	00170213 	andseq	r0, r7, r3, lsl r2
     9c0:	00260c00 	eoreq	r0, r6, r0, lsl #24
     9c4:	01000000 	mrseq	r0, (UNDEF: 0)
     9c8:	0e250111 	mcreq	1, 1, r0, cr5, cr1, {0}
     9cc:	0e030b13 	vmoveq.32	d3[0], r0
     9d0:	01110e1b 	tsteq	r1, fp, lsl lr
     9d4:	17100612 			; <UNDEFINED> instruction: 0x17100612
     9d8:	24020000 	strcs	r0, [r2], #-0
     9dc:	3e0b0b00 	vmlacc.f64	d0, d11, d0
     9e0:	000e030b 	andeq	r0, lr, fp, lsl #6
     9e4:	00240300 	eoreq	r0, r4, r0, lsl #6
     9e8:	0b3e0b0b 	bleq	f8361c <__bss_end__+0xf76c54>
     9ec:	00000803 	andeq	r0, r0, r3, lsl #16
     9f0:	0b000f04 	bleq	4608 <__code_start__-0x39f8>
     9f4:	0500000b 	streq	r0, [r0, #-11]
     9f8:	0b0b000f 	bleq	2c0a3c <__bss_end__+0x2b4074>
     9fc:	00001349 	andeq	r1, r0, r9, asr #6
     a00:	03001606 	movweq	r1, #1542	; 0x606
     a04:	3b0b3a0e 	blcc	2cf244 <__bss_end__+0x2c287c>
     a08:	0013490b 	andseq	r4, r3, fp, lsl #18
     a0c:	012e0700 	teqeq	lr, r0, lsl #14
     a10:	0e03193f 	mcreq	9, 0, r1, cr3, cr15, {1}
     a14:	0b3b0b3a 	bleq	ec3704 <__bss_end__+0xeb6d3c>
     a18:	13491927 	movtne	r1, #39207	; 0x9927
     a1c:	06120111 			; <UNDEFINED> instruction: 0x06120111
     a20:	42971840 	addsmi	r1, r7, #64, 16	; 0x400000
     a24:	08000019 	stmdaeq	r0, {r0, r3, r4}
     a28:	08030005 	stmdaeq	r3, {r0, r2}
     a2c:	0b3b0b3a 	bleq	ec371c <__bss_end__+0xeb6d54>
     a30:	18021349 	stmdane	r2, {r0, r3, r6, r8, r9, ip}
     a34:	05090000 	streq	r0, [r9, #-0]
     a38:	3a080300 	bcc	201640 <__bss_end__+0x1f4c78>
     a3c:	490b3b0b 	stmdbmi	fp, {r0, r1, r3, r8, r9, fp, ip, sp}
     a40:	00170213 	andseq	r0, r7, r3, lsl r2
     a44:	00340a00 	eorseq	r0, r4, r0, lsl #20
     a48:	0b3a0803 	bleq	e82a5c <__bss_end__+0xe76094>
     a4c:	13490b3b 	movtne	r0, #39739	; 0x9b3b
     a50:	00001702 	andeq	r1, r0, r2, lsl #14
     a54:	0300340b 	movweq	r3, #1035	; 0x40b
     a58:	3b0b3a08 	blcc	2cf280 <__bss_end__+0x2c28b8>
     a5c:	0213490b 	andseq	r4, r3, #180224	; 0x2c000
     a60:	00000018 	andeq	r0, r0, r8, lsl r0
     a64:	25011101 	strcs	r1, [r1, #-257]	; 0x101
     a68:	030b130e 	movweq	r1, #45838	; 0xb30e
     a6c:	110e1b0e 	tstne	lr, lr, lsl #22
     a70:	10061201 	andne	r1, r6, r1, lsl #4
     a74:	02000017 	andeq	r0, r0, #23
     a78:	0e030016 	mcreq	0, 0, r0, cr3, cr6, {0}
     a7c:	0b3b0b3a 	bleq	ec376c <__bss_end__+0xeb6da4>
     a80:	00001349 	andeq	r1, r0, r9, asr #6
     a84:	03011303 	movweq	r1, #4867	; 0x1303
     a88:	3a0b0b0e 	bcc	2c36c8 <__bss_end__+0x2b6d00>
     a8c:	010b3b0b 	tsteq	fp, fp, lsl #22
     a90:	04000013 	streq	r0, [r0], #-19
     a94:	0e03000d 	cdpeq	0, 0, cr0, cr3, cr13, {0}
     a98:	0b381349 	bleq	e057c4 <__bss_end__+0xdf8dfc>
     a9c:	00001934 	andeq	r1, r0, r4, lsr r9
     aa0:	0b000f05 	bleq	46bc <__code_start__-0x3944>
     aa4:	0600000b 	streq	r0, [r0], -fp
     aa8:	0b0b0024 	bleq	2c0b40 <__bss_end__+0x2b4178>
     aac:	08030b3e 	stmdaeq	r3, {r1, r2, r3, r4, r5, r8, r9, fp}
     ab0:	24070000 	strcs	r0, [r7], #-0
     ab4:	3e0b0b00 	vmlacc.f64	d0, d11, d0
     ab8:	000e030b 	andeq	r0, lr, fp, lsl #6
     abc:	000f0800 	andeq	r0, pc, r0, lsl #16
     ac0:	13490b0b 	movtne	r0, #39691	; 0x9b0b
     ac4:	26090000 	strcs	r0, [r9], -r0
     ac8:	00134900 	andseq	r4, r3, r0, lsl #18
     acc:	012e0a00 	teqeq	lr, r0, lsl #20
     ad0:	0e03193f 	mcreq	9, 0, r1, cr3, cr15, {1}
     ad4:	0b3b0b3a 	bleq	ec37c4 <__bss_end__+0xeb6dfc>
     ad8:	13491927 	movtne	r1, #39207	; 0x9927
     adc:	06120111 			; <UNDEFINED> instruction: 0x06120111
     ae0:	42971840 	addsmi	r1, r7, #64, 16	; 0x400000
     ae4:	00130119 	andseq	r0, r3, r9, lsl r1
     ae8:	00050b00 	andeq	r0, r5, r0, lsl #22
     aec:	0b3a0803 	bleq	e82b00 <__bss_end__+0xe76138>
     af0:	13490b3b 	movtne	r0, #39739	; 0x9b3b
     af4:	00001802 	andeq	r1, r0, r2, lsl #16
     af8:	0000180c 	andeq	r1, r0, ip, lsl #16
     afc:	00340d00 	eorseq	r0, r4, r0, lsl #26
     b00:	0b3a0803 	bleq	e82b14 <__bss_end__+0xe7614c>
     b04:	13490b3b 	movtne	r0, #39739	; 0x9b3b
     b08:	00001802 	andeq	r1, r0, r2, lsl #16
     b0c:	0300340e 	movweq	r3, #1038	; 0x40e
     b10:	3b0b3a0e 	blcc	2cf350 <__bss_end__+0x2c2988>
     b14:	0213490b 	andseq	r4, r3, #180224	; 0x2c000
     b18:	0f000018 	svceq	0x00000018
     b1c:	08030034 	stmdaeq	r3, {r2, r4, r5}
     b20:	0b3b0b3a 	bleq	ec3810 <__bss_end__+0xeb6e48>
     b24:	17021349 	strne	r1, [r2, -r9, asr #6]
     b28:	89100000 	ldmdbhi	r0, {}	; <UNPREDICTABLE>
     b2c:	11010182 	smlabbne	r1, r2, r1, r0
     b30:	01133101 	tsteq	r3, r1, lsl #2
     b34:	11000013 	tstne	r0, r3, lsl r0
     b38:	0001828a 	andeq	r8, r1, sl, lsl #5
     b3c:	42911802 	addsmi	r1, r1, #131072	; 0x20000
     b40:	12000018 	andne	r0, r0, #24
     b44:	01018289 	smlabbeq	r1, r9, r2, r8
     b48:	00000111 	andeq	r0, r0, r1, lsl r1
     b4c:	49010113 	stmdbmi	r1, {r0, r1, r4, r8}
     b50:	00130113 	andseq	r0, r3, r3, lsl r1
     b54:	00211400 	eoreq	r1, r1, r0, lsl #8
     b58:	052f1349 	streq	r1, [pc, #-841]!	; 817 <__code_start__-0x77e9>
     b5c:	15150000 	ldrne	r0, [r5, #-0]
     b60:	49192701 	ldmdbmi	r9, {r0, r8, r9, sl, sp}
     b64:	00130113 	andseq	r0, r3, r3, lsl r1
     b68:	00051600 	andeq	r1, r5, r0, lsl #12
     b6c:	00001349 	andeq	r1, r0, r9, asr #6
     b70:	03003417 	movweq	r3, #1047	; 0x417
     b74:	3b0b3a0e 	blcc	2cf3b4 <__bss_end__+0x2c29ec>
     b78:	3f13490b 	svccc	0x0013490b
     b7c:	00193c19 	andseq	r3, r9, r9, lsl ip
     b80:	012e1800 	teqeq	lr, r0, lsl #16
     b84:	0e03193f 	mcreq	9, 0, r1, cr3, cr15, {1}
     b88:	0b3b0b3a 	bleq	ec3878 <__bss_end__+0xeb6eb0>
     b8c:	13491927 	movtne	r1, #39207	; 0x9927
     b90:	0000193c 	andeq	r1, r0, ip, lsr r9
     b94:	01110100 	tsteq	r1, r0, lsl #2
     b98:	0b130e25 	bleq	4c4434 <__bss_end__+0x4b7a6c>
     b9c:	0e1b0e03 	cdpeq	14, 1, cr0, cr11, cr3, {0}
     ba0:	06120111 			; <UNDEFINED> instruction: 0x06120111
     ba4:	00001710 	andeq	r1, r0, r0, lsl r7
     ba8:	0b002402 	bleq	9bb8 <memcheck_init+0x8>
     bac:	030b3e0b 	movweq	r3, #48651	; 0xbe0b
     bb0:	03000008 	movweq	r0, #8
     bb4:	0b0b0024 	bleq	2c0c4c <__bss_end__+0x2b4284>
     bb8:	0e030b3e 	vmoveq.16	d3[0], r0
     bbc:	2e040000 	cdpcs	0, 0, cr0, cr4, cr0, {0}
     bc0:	3a0e0301 	bcc	3817cc <__bss_end__+0x374e04>
     bc4:	270b3b0b 	strcs	r3, [fp, -fp, lsl #22]
     bc8:	11134919 	tstne	r3, r9, lsl r9
     bcc:	40061201 	andmi	r1, r6, r1, lsl #4
     bd0:	19429718 	stmdbne	r2, {r3, r4, r8, r9, sl, ip, pc}^
     bd4:	00001301 	andeq	r1, r0, r1, lsl #6
     bd8:	03000505 	movweq	r0, #1285	; 0x505
     bdc:	3b0b3a08 	blcc	2cf404 <__bss_end__+0x2c2a3c>
     be0:	0213490b 	andseq	r4, r3, #180224	; 0x2c000
     be4:	06000017 			; <UNDEFINED> instruction: 0x06000017
     be8:	01018289 	smlabbeq	r1, r9, r2, r8
     bec:	13310111 	teqne	r1, #1073741828	; 0x40000004
     bf0:	8a070000 	bhi	1c0bf8 <__bss_end__+0x1b4230>
     bf4:	02000182 	andeq	r0, r0, #-2147483616	; 0x80000020
     bf8:	18429118 	stmdane	r2, {r3, r4, r8, ip, pc}^
     bfc:	2e080000 	cdpcs	0, 0, cr0, cr8, cr0, {0}
     c00:	03193f00 	tsteq	r9, #0, 30
     c04:	3b0b3a0e 	blcc	2cf444 <__bss_end__+0x2c2a7c>
     c08:	1119270b 	tstne	r9, fp, lsl #14
     c0c:	40061201 	andmi	r1, r6, r1, lsl #4
     c10:	19429718 	stmdbne	r2, {r3, r4, r8, r9, sl, ip, pc}^
     c14:	2e090000 	cdpcs	0, 0, cr0, cr9, cr0, {0}
     c18:	03193f01 	tsteq	r9, #1, 30
     c1c:	3b0b3a0e 	blcc	2cf45c <__bss_end__+0x2c2a94>
     c20:	1119270b 	tstne	r9, fp, lsl #14
     c24:	40061201 	andmi	r1, r6, r1, lsl #4
     c28:	19429718 	stmdbne	r2, {r3, r4, r8, r9, sl, ip, pc}^
     c2c:	00001301 	andeq	r1, r0, r1, lsl #6
     c30:	0300050a 	movweq	r0, #1290	; 0x50a
     c34:	3b0b3a08 	blcc	2cf45c <__bss_end__+0x2c2a94>
     c38:	0213490b 	andseq	r4, r3, #180224	; 0x2c000
     c3c:	0b000018 	bleq	ca4 <__code_start__-0x735c>
     c40:	19270115 	stmdbne	r7!, {r0, r2, r4, r8}
     c44:	13011349 	movwne	r1, #4937	; 0x1349
     c48:	050c0000 	streq	r0, [ip, #-0]
     c4c:	00134900 	andseq	r4, r3, r0, lsl #18
     c50:	000f0d00 	andeq	r0, pc, r0, lsl #26
     c54:	13490b0b 	movtne	r0, #39691	; 0x9b0b
     c58:	340e0000 	strcc	r0, [lr], #-0
     c5c:	3a0e0300 	bcc	381864 <__bss_end__+0x374e9c>
     c60:	490b3b0b 	stmdbmi	fp, {r0, r1, r3, r8, r9, fp, ip, sp}
     c64:	02193f13 	andseq	r3, r9, #19, 30	; 0x4c
     c68:	0f000018 	svceq	0x00000018
     c6c:	193f012e 	ldmdbne	pc!, {r1, r2, r3, r5, r8}	; <UNPREDICTABLE>
     c70:	0b3a0e03 	bleq	e84484 <__bss_end__+0xe77abc>
     c74:	19270b3b 	stmdbne	r7!, {r0, r1, r3, r4, r5, r8, r9, fp}
     c78:	0000193c 	andeq	r1, r0, ip, lsr r9
     c7c:	01110100 	tsteq	r1, r0, lsl #2
     c80:	0b130e25 	bleq	4c451c <__bss_end__+0x4b7b54>
     c84:	0e1b0e03 	cdpeq	14, 1, cr0, cr11, cr3, {0}
     c88:	06120111 			; <UNDEFINED> instruction: 0x06120111
     c8c:	00001710 	andeq	r1, r0, r0, lsl r7
     c90:	0b002402 	bleq	9ca0 <memcheck_init+0xf0>
     c94:	030b3e0b 	movweq	r3, #48651	; 0xbe0b
     c98:	03000008 	movweq	r0, #8
     c9c:	0b0b0024 	bleq	2c0d34 <__bss_end__+0x2b436c>
     ca0:	0e030b3e 	vmoveq.16	d3[0], r0
     ca4:	0f040000 	svceq	0x00040000
     ca8:	490b0b00 	stmdbmi	fp, {r8, r9, fp}
     cac:	05000013 	streq	r0, [r0, #-19]
     cb0:	13490026 	movtne	r0, #36902	; 0x9026
     cb4:	2e060000 	cdpcs	0, 0, cr0, cr6, cr0, {0}
     cb8:	03193f01 	tsteq	r9, #1, 30
     cbc:	3b0b3a0e 	blcc	2cf4fc <__bss_end__+0x2c2b34>
     cc0:	4919270b 	ldmdbmi	r9, {r0, r1, r3, r8, r9, sl, sp}
     cc4:	12011113 	andne	r1, r1, #-1073741820	; 0xc0000004
     cc8:	96184006 	ldrls	r4, [r8], -r6
     ccc:	13011942 	movwne	r1, #6466	; 0x1942
     cd0:	05070000 	streq	r0, [r7, #-0]
     cd4:	3a080300 	bcc	2018dc <__bss_end__+0x1f4f14>
     cd8:	490b3b0b 	stmdbmi	fp, {r0, r1, r3, r8, r9, fp, ip, sp}
     cdc:	00170213 	andseq	r0, r7, r3, lsl r2
     ce0:	01150800 	tsteq	r5, r0, lsl #16
     ce4:	13491927 	movtne	r1, #39207	; 0x9927
     ce8:	00001301 	andeq	r1, r0, r1, lsl #6
     cec:	49000509 	stmdbmi	r0, {r0, r3, r8, sl}
     cf0:	0a000013 	beq	d44 <__code_start__-0x72bc>
     cf4:	0e030034 	mcreq	0, 0, r0, cr3, cr4, {1}
     cf8:	0b3b0b3a 	bleq	ec39e8 <__bss_end__+0xeb7020>
     cfc:	193f1349 	ldmdbne	pc!, {r0, r3, r6, r8, r9, ip}	; <UNPREDICTABLE>
     d00:	0000193c 	andeq	r1, r0, ip, lsr r9
     d04:	0300340b 	movweq	r3, #1035	; 0x40b
     d08:	3b0b3a0e 	blcc	2cf548 <__bss_end__+0x2c2b80>
     d0c:	3f13490b 	svccc	0x0013490b
     d10:	00180219 	andseq	r0, r8, r9, lsl r2
     d14:	11010000 	mrsne	r0, (UNDEF: 1)
     d18:	130e2501 	movwne	r2, #58625	; 0xe501
     d1c:	1b0e030b 	blne	381950 <__bss_end__+0x374f88>
     d20:	1201110e 	andne	r1, r1, #-2147483645	; 0x80000003
     d24:	00171006 	andseq	r1, r7, r6
     d28:	00240200 	eoreq	r0, r4, r0, lsl #4
     d2c:	0b3e0b0b 	bleq	f83960 <__bss_end__+0xf76f98>
     d30:	00000803 	andeq	r0, r0, r3, lsl #16
     d34:	0b002403 	bleq	9d48 <memcheck_on+0x48>
     d38:	030b3e0b 	movweq	r3, #48651	; 0xbe0b
     d3c:	0400000e 	streq	r0, [r0], #-14
     d40:	0b0b000f 	bleq	2c0d84 <__bss_end__+0x2b43bc>
     d44:	0f050000 	svceq	0x00050000
     d48:	490b0b00 	stmdbmi	fp, {r8, r9, fp}
     d4c:	06000013 			; <UNDEFINED> instruction: 0x06000013
     d50:	13490026 	movtne	r0, #36902	; 0x9026
     d54:	16070000 	strne	r0, [r7], -r0
     d58:	3a0e0300 	bcc	381960 <__bss_end__+0x374f98>
     d5c:	490b3b0b 	stmdbmi	fp, {r0, r1, r3, r8, r9, fp, ip, sp}
     d60:	08000013 	stmdaeq	r0, {r0, r1, r4}
     d64:	0e030113 	mcreq	1, 0, r0, cr3, cr3, {0}
     d68:	0b3a0b0b 	bleq	e8399c <__bss_end__+0xe76fd4>
     d6c:	13010b3b 	movwne	r0, #6971	; 0x1b3b
     d70:	0d090000 	stceq	0, cr0, [r9, #-0]
     d74:	490e0300 	stmdbmi	lr, {r8, r9}
     d78:	340b3813 	strcc	r3, [fp], #-2067	; 0x813
     d7c:	0a000019 	beq	de8 <__code_start__-0x7218>
     d80:	0e03012e 	adfeqsp	f0, f3, #0.5
     d84:	0b3b0b3a 	bleq	ec3a74 <__bss_end__+0xeb70ac>
     d88:	13491927 	movtne	r1, #39207	; 0x9927
     d8c:	06120111 			; <UNDEFINED> instruction: 0x06120111
     d90:	42971840 	addsmi	r1, r7, #64, 16	; 0x400000
     d94:	00130119 	andseq	r0, r3, r9, lsl r1
     d98:	00050b00 	andeq	r0, r5, r0, lsl #22
     d9c:	0b3a0803 	bleq	e82db0 <__bss_end__+0xe763e8>
     da0:	13490b3b 	movtne	r0, #39739	; 0x9b3b
     da4:	00001702 	andeq	r1, r0, r2, lsl #14
     da8:	03012e0c 	movweq	r2, #7692	; 0x1e0c
     dac:	3b0b3a08 	blcc	2cf5d4 <__bss_end__+0x2c2c0c>
     db0:	4919270b 	ldmdbmi	r9, {r0, r1, r3, r8, r9, sl, sp}
     db4:	12011113 	andne	r1, r1, #-1073741820	; 0xc0000004
     db8:	97184006 	ldrls	r4, [r8, -r6]
     dbc:	13011942 	movwne	r1, #6466	; 0x1942
     dc0:	050d0000 	streq	r0, [sp, #-0]
     dc4:	3a0e0300 	bcc	3819cc <__bss_end__+0x375004>
     dc8:	490b3b0b 	stmdbmi	fp, {r0, r1, r3, r8, r9, fp, ip, sp}
     dcc:	00170213 	andseq	r0, r7, r3, lsl r2
     dd0:	00050e00 	andeq	r0, r5, r0, lsl #28
     dd4:	0b3a0e03 	bleq	e845e8 <__bss_end__+0xe77c20>
     dd8:	13490b3b 	movtne	r0, #39739	; 0x9b3b
     ddc:	00001802 	andeq	r1, r0, r2, lsl #16
     de0:	0300340f 	movweq	r3, #1039	; 0x40f
     de4:	3b0b3a08 	blcc	2cf60c <__bss_end__+0x2c2c44>
     de8:	0213490b 	andseq	r4, r3, #180224	; 0x2c000
     dec:	10000018 	andne	r0, r0, r8, lsl r0
     df0:	08030034 	stmdaeq	r3, {r2, r4, r5}
     df4:	0b3b0b3a 	bleq	ec3ae4 <__bss_end__+0xeb711c>
     df8:	17021349 	strne	r1, [r2, -r9, asr #6]
     dfc:	34110000 	ldrcc	r0, [r1], #-0
     e00:	490e0300 	stmdbmi	lr, {r8, r9}
     e04:	02193413 	andseq	r3, r9, #318767104	; 0x13000000
     e08:	12000018 	andne	r0, r0, #24
     e0c:	0111010b 	tsteq	r1, fp, lsl #2
     e10:	13010612 	movwne	r0, #5650	; 0x1612
     e14:	34130000 	ldrcc	r0, [r3], #-0
     e18:	3a0e0300 	bcc	381a20 <__bss_end__+0x375058>
     e1c:	490b3b0b 	stmdbmi	fp, {r0, r1, r3, r8, r9, fp, ip, sp}
     e20:	00170213 	andseq	r0, r7, r3, lsl r2
     e24:	82891400 	addhi	r1, r9, #0, 8
     e28:	01110001 	tsteq	r1, r1
     e2c:	00001331 	andeq	r1, r0, r1, lsr r3
     e30:	01828915 	orreq	r8, r2, r5, lsl r9
     e34:	31011101 	tstcc	r1, r1, lsl #2
     e38:	00130113 	andseq	r0, r3, r3, lsl r1
     e3c:	828a1600 	addhi	r1, sl, #0, 12
     e40:	18020001 	stmdane	r2, {r0}
     e44:	00184291 	mulseq	r8, r1, r2
     e48:	82891700 	addhi	r1, r9, #0, 14
     e4c:	01110101 	tsteq	r1, r1, lsl #2
     e50:	00001331 	andeq	r1, r0, r1, lsr r3
     e54:	49010118 	stmdbmi	r1, {r3, r4, r8}
     e58:	00130113 	andseq	r0, r3, r3, lsl r1
     e5c:	00211900 	eoreq	r1, r1, r0, lsl #18
     e60:	0b2f1349 	bleq	bc5b8c <__bss_end__+0xbb91c4>
     e64:	2e1a0000 	cdpcs	0, 1, cr0, cr10, cr0, {0}
     e68:	03193f01 	tsteq	r9, #1, 30
     e6c:	3b0b3a0e 	blcc	2cf6ac <__bss_end__+0x2c2ce4>
     e70:	1119270b 	tstne	r9, fp, lsl #14
     e74:	40061201 	andmi	r1, r6, r1, lsl #4
     e78:	19429718 	stmdbne	r2, {r3, r4, r8, r9, sl, ip, pc}^
     e7c:	00001301 	andeq	r1, r0, r1, lsl #6
     e80:	2701151b 	smladcs	r1, fp, r5, r1
     e84:	01134919 	tsteq	r3, r9, lsl r9
     e88:	1c000013 	stcne	0, cr0, [r0], {19}
     e8c:	13490005 	movtne	r0, #36869	; 0x9005
     e90:	2e1d0000 	cdpcs	0, 1, cr0, cr13, cr0, {0}
     e94:	03193f01 	tsteq	r9, #1, 30
     e98:	3b0b3a0e 	blcc	2cf6d8 <__bss_end__+0x2c2d10>
     e9c:	4919270b 	ldmdbmi	r9, {r0, r1, r3, r8, r9, sl, sp}
     ea0:	12011113 	andne	r1, r1, #-1073741820	; 0xc0000004
     ea4:	97184006 	ldrls	r4, [r8, -r6]
     ea8:	13011942 	movwne	r1, #6466	; 0x1942
     eac:	0b1e0000 	bleq	780eb4 <__bss_end__+0x7744ec>
     eb0:	12011101 	andne	r1, r1, #1073741824	; 0x40000000
     eb4:	1f000006 	svcne	0x00000006
     eb8:	01018289 	smlabbeq	r1, r9, r2, r8
     ebc:	13010111 	movwne	r0, #4369	; 0x1111
     ec0:	34200000 	strtcc	r0, [r0], #-0
     ec4:	3a0e0300 	bcc	381acc <__bss_end__+0x375104>
     ec8:	490b3b0b 	stmdbmi	fp, {r0, r1, r3, r8, r9, fp, ip, sp}
     ecc:	3c193f13 	ldccc	15, cr3, [r9], {19}
     ed0:	21000019 	tstcs	r0, r9, lsl r0
     ed4:	193f002e 	ldmdbne	pc!, {r1, r2, r3, r5}	; <UNPREDICTABLE>
     ed8:	0b3a0e03 	bleq	e846ec <__bss_end__+0xe77d24>
     edc:	19270b3b 	stmdbne	r7!, {r0, r1, r3, r4, r5, r8, r9, fp}
     ee0:	0000193c 	andeq	r1, r0, ip, lsr r9
     ee4:	3f012e22 	svccc	0x00012e22
     ee8:	3a0e0319 	bcc	381b54 <__bss_end__+0x37518c>
     eec:	270b3b0b 	strcs	r3, [fp, -fp, lsl #22]
     ef0:	3c134919 	ldccc	9, cr4, [r3], {25}
     ef4:	00130119 	andseq	r0, r3, r9, lsl r1
     ef8:	00182300 	andseq	r2, r8, r0, lsl #6
     efc:	01000000 	mrseq	r0, (UNDEF: 0)
     f00:	0e250111 	mcreq	1, 1, r0, cr5, cr1, {0}
     f04:	0e030b13 	vmoveq.32	d3[0], r0
     f08:	01110e1b 	tsteq	r1, fp, lsl lr
     f0c:	17100612 			; <UNDEFINED> instruction: 0x17100612
     f10:	24020000 	strcs	r0, [r2], #-0
     f14:	3e0b0b00 	vmlacc.f64	d0, d11, d0
     f18:	0008030b 	andeq	r0, r8, fp, lsl #6
     f1c:	00240300 	eoreq	r0, r4, r0, lsl #6
     f20:	0b3e0b0b 	bleq	f83b54 <__bss_end__+0xf7718c>
     f24:	00000e03 	andeq	r0, r0, r3, lsl #28
     f28:	0b000f04 	bleq	4b40 <__code_start__-0x34c0>
     f2c:	0013490b 	andseq	r4, r3, fp, lsl #18
     f30:	00260500 	eoreq	r0, r6, r0, lsl #10
     f34:	00001349 	andeq	r1, r0, r9, asr #6
     f38:	3f012e06 	svccc	0x00012e06
     f3c:	3a0e0319 	bcc	381ba8 <__bss_end__+0x3751e0>
     f40:	270b3b0b 	strcs	r3, [fp, -fp, lsl #22]
     f44:	12011119 	andne	r1, r1, #1073741830	; 0x40000006
     f48:	97184006 	ldrls	r4, [r8, -r6]
     f4c:	13011942 	movwne	r1, #6466	; 0x1942
     f50:	89070000 	stmdbhi	r7, {}	; <UNPREDICTABLE>
     f54:	11000182 	smlabbne	r0, r2, r1, r0
     f58:	00133101 	andseq	r3, r3, r1, lsl #2
     f5c:	82890800 	addhi	r0, r9, #0, 16
     f60:	01110101 	tsteq	r1, r1, lsl #2
     f64:	00001301 	andeq	r1, r0, r1, lsl #6
     f68:	01828a09 	orreq	r8, r2, r9, lsl #20
     f6c:	91180200 	tstls	r8, r0, lsl #4
     f70:	00001842 	andeq	r1, r0, r2, asr #16
     f74:	0182890a 	orreq	r8, r2, sl, lsl #18
     f78:	31011101 	tstcc	r1, r1, lsl #2
     f7c:	00130113 	andseq	r0, r3, r3, lsl r1
     f80:	01150b00 	tsteq	r5, r0, lsl #22
     f84:	13491927 	movtne	r1, #39207	; 0x9927
     f88:	00001301 	andeq	r1, r0, r1, lsl #6
     f8c:	4900050c 	stmdbmi	r0, {r2, r3, r8, sl}
     f90:	0d000013 	stceq	0, cr0, [r0, #-76]	; 0xffffffb4
     f94:	0e030034 	mcreq	0, 0, r0, cr3, cr4, {1}
     f98:	0b3b0b3a 	bleq	ec3c88 <__bss_end__+0xeb72c0>
     f9c:	193f1349 	ldmdbne	pc!, {r0, r3, r6, r8, r9, ip}	; <UNPREDICTABLE>
     fa0:	0000193c 	andeq	r1, r0, ip, lsr r9
     fa4:	3f002e0e 	svccc	0x00002e0e
     fa8:	3a0e0319 	bcc	381c14 <__bss_end__+0x37524c>
     fac:	270b3b0b 	strcs	r3, [fp, -fp, lsl #22]
     fb0:	00193c19 	andseq	r3, r9, r9, lsl ip
     fb4:	012e0f00 	teqeq	lr, r0, lsl #30
     fb8:	0e03193f 	mcreq	9, 0, r1, cr3, cr15, {1}
     fbc:	0b3b0b3a 	bleq	ec3cac <__bss_end__+0xeb72e4>
     fc0:	193c1927 	ldmdbne	ip!, {r0, r1, r2, r5, r8, fp, ip}
     fc4:	00001301 	andeq	r1, r0, r1, lsl #6
     fc8:	01110100 	tsteq	r1, r0, lsl #2
     fcc:	0b130e25 	bleq	4c4868 <__bss_end__+0x4b7ea0>
     fd0:	0e1b0e03 	cdpeq	14, 1, cr0, cr11, cr3, {0}
     fd4:	06120111 			; <UNDEFINED> instruction: 0x06120111
     fd8:	00001710 	andeq	r1, r0, r0, lsl r7
     fdc:	0b002402 	bleq	9fec <cp15_sync+0x10>
     fe0:	030b3e0b 	movweq	r3, #48651	; 0xbe0b
     fe4:	03000008 	movweq	r0, #8
     fe8:	0b0b0024 	bleq	2c1080 <__bss_end__+0x2b46b8>
     fec:	0e030b3e 	vmoveq.16	d3[0], r0
     ff0:	2e040000 	cdpcs	0, 0, cr0, cr4, cr0, {0}
     ff4:	03193f01 	tsteq	r9, #1, 30
     ff8:	3b0b3a0e 	blcc	2cf838 <__bss_end__+0x2c2e70>
     ffc:	1201110b 	andne	r1, r1, #-1073741822	; 0xc0000002
    1000:	97184006 	ldrls	r4, [r8, -r6]
    1004:	13011942 	movwne	r1, #6466	; 0x1942
    1008:	34050000 	strcc	r0, [r5], #-0
    100c:	3a0e0300 	bcc	381c14 <__bss_end__+0x37524c>
    1010:	490b3b0b 	stmdbmi	fp, {r0, r1, r3, r8, r9, fp, ip, sp}
    1014:	3c193f13 	ldccc	15, cr3, [r9], {19}
    1018:	06000019 			; <UNDEFINED> instruction: 0x06000019
    101c:	193f002e 	ldmdbne	pc!, {r1, r2, r3, r5}	; <UNPREDICTABLE>
    1020:	0b3a0e03 	bleq	e84834 <__bss_end__+0xe77e6c>
    1024:	19270b3b 	stmdbne	r7!, {r0, r1, r3, r4, r5, r8, r9, fp}
    1028:	0000193c 	andeq	r1, r0, ip, lsr r9
    102c:	03003407 	movweq	r3, #1031	; 0x407
    1030:	3b0b3a08 	blcc	2cf858 <__bss_end__+0x2c2e90>
    1034:	0213490b 	andseq	r4, r3, #180224	; 0x2c000
    1038:	08000017 	stmdaeq	r0, {r0, r1, r2, r4}
    103c:	0e030034 	mcreq	0, 0, r0, cr3, cr4, {1}
    1040:	0b3b0b3a 	bleq	ec3d30 <__bss_end__+0xeb7368>
    1044:	00001349 	andeq	r1, r0, r9, asr #6
    1048:	01828909 	orreq	r8, r2, r9, lsl #18
    104c:	31011100 	mrscc	r1, (UNDEF: 17)
    1050:	0a000013 	beq	10a4 <__code_start__-0x6f5c>
    1054:	0b0b000f 	bleq	2c1098 <__bss_end__+0x2b46d0>
    1058:	00001349 	andeq	r1, r0, r9, asr #6
    105c:	01110100 	tsteq	r1, r0, lsl #2
    1060:	0b130e25 	bleq	4c48fc <__bss_end__+0x4b7f34>
    1064:	0e1b0e03 	cdpeq	14, 1, cr0, cr11, cr3, {0}
    1068:	06120111 			; <UNDEFINED> instruction: 0x06120111
    106c:	00001710 	andeq	r1, r0, r0, lsl r7
    1070:	0b002402 	bleq	a080 <cp15_caches_inv+0x8>
    1074:	030b3e0b 	movweq	r3, #48651	; 0xbe0b
    1078:	03000008 	movweq	r0, #8
    107c:	0b0b0024 	bleq	2c1114 <__bss_end__+0x2b474c>
    1080:	0e030b3e 	vmoveq.16	d3[0], r0
    1084:	0f040000 	svceq	0x00040000
    1088:	490b0b00 	stmdbmi	fp, {r8, r9, fp}
    108c:	05000013 	streq	r0, [r0, #-19]
    1090:	13490026 	movtne	r0, #36902	; 0x9026
    1094:	2e060000 	cdpcs	0, 0, cr0, cr6, cr0, {0}
    1098:	03193f01 	tsteq	r9, #1, 30
    109c:	3b0b3a0e 	blcc	2cf8dc <__bss_end__+0x2c2f14>
    10a0:	1119270b 	tstne	r9, fp, lsl #14
    10a4:	40061201 	andmi	r1, r6, r1, lsl #4
    10a8:	19429718 	stmdbne	r2, {r3, r4, r8, r9, sl, ip, pc}^
    10ac:	00001301 	andeq	r1, r0, r1, lsl #6
    10b0:	03000507 	movweq	r0, #1287	; 0x507
    10b4:	3b0b3a08 	blcc	2cf8dc <__bss_end__+0x2c2f14>
    10b8:	0213490b 	andseq	r4, r3, #180224	; 0x2c000
    10bc:	08000017 	stmdaeq	r0, {r0, r1, r2, r4}
    10c0:	0e030034 	mcreq	0, 0, r0, cr3, cr4, {1}
    10c4:	19341349 	ldmdbne	r4!, {r0, r3, r6, r8, r9, ip}
    10c8:	00001802 	andeq	r1, r0, r2, lsl #16
    10cc:	01828909 	orreq	r8, r2, r9, lsl #18
    10d0:	31011100 	mrscc	r1, (UNDEF: 17)
    10d4:	0a000013 	beq	1128 <__code_start__-0x6ed8>
    10d8:	01018289 	smlabbeq	r1, r9, r2, r8
    10dc:	13310111 	teqne	r1, #1073741828	; 0x40000004
    10e0:	00001301 	andeq	r1, r0, r1, lsl #6
    10e4:	01828a0b 	orreq	r8, r2, fp, lsl #20
    10e8:	91180200 	tstls	r8, r0, lsl #4
    10ec:	00001842 	andeq	r1, r0, r2, asr #16
    10f0:	4901010c 	stmdbmi	r1, {r2, r3, r8}
    10f4:	00130113 	andseq	r0, r3, r3, lsl r1
    10f8:	00210d00 	eoreq	r0, r1, r0, lsl #26
    10fc:	0b2f1349 	bleq	bc5e28 <__bss_end__+0xbb9460>
    1100:	2e0e0000 	cdpcs	0, 0, cr0, cr14, cr0, {0}
    1104:	03193f00 	tsteq	r9, #0, 30
    1108:	3b0b3a0e 	blcc	2cf948 <__bss_end__+0x2c2f80>
    110c:	3c19270b 	ldccc	7, cr2, [r9], {11}
    1110:	0f000019 	svceq	0x00000019
    1114:	193f012e 	ldmdbne	pc!, {r1, r2, r3, r5, r8}	; <UNPREDICTABLE>
    1118:	0b3a0e03 	bleq	e8492c <__bss_end__+0xe77f64>
    111c:	19270b3b 	stmdbne	r7!, {r0, r1, r3, r4, r5, r8, r9, fp}
    1120:	193c1349 	ldmdbne	ip!, {r0, r3, r6, r8, r9, ip}
    1124:	00001301 	andeq	r1, r0, r1, lsl #6
    1128:	49000510 	stmdbmi	r0, {r4, r8, sl}
    112c:	11000013 	tstne	r0, r3, lsl r0
    1130:	00000018 	andeq	r0, r0, r8, lsl r0
    1134:	01110100 	tsteq	r1, r0, lsl #2
    1138:	0b130e25 	bleq	4c49d4 <__bss_end__+0x4b800c>
    113c:	0e1b0e03 	cdpeq	14, 1, cr0, cr11, cr3, {0}
    1140:	06120111 			; <UNDEFINED> instruction: 0x06120111
    1144:	00001710 	andeq	r1, r0, r0, lsl r7
    1148:	0b002402 	bleq	a158 <cp15_itlb_inv+0x18>
    114c:	030b3e0b 	movweq	r3, #48651	; 0xbe0b
    1150:	03000008 	movweq	r0, #8
    1154:	0b0b0024 	bleq	2c11ec <__bss_end__+0x2b4824>
    1158:	0e030b3e 	vmoveq.16	d3[0], r0
    115c:	0f040000 	svceq	0x00040000
    1160:	490b0b00 	stmdbmi	fp, {r8, r9, fp}
    1164:	05000013 	streq	r0, [r0, #-19]
    1168:	13490026 	movtne	r0, #36902	; 0x9026
    116c:	2e060000 	cdpcs	0, 0, cr0, cr6, cr0, {0}
    1170:	03193f01 	tsteq	r9, #1, 30
    1174:	3b0b3a0e 	blcc	2cf9b4 <__bss_end__+0x2c2fec>
    1178:	1119270b 	tstne	r9, fp, lsl #14
    117c:	40061201 	andmi	r1, r6, r1, lsl #4
    1180:	19429718 	stmdbne	r2, {r3, r4, r8, r9, sl, ip, pc}^
    1184:	00001301 	andeq	r1, r0, r1, lsl #6
    1188:	03000507 	movweq	r0, #1287	; 0x507
    118c:	3b0b3a08 	blcc	2cf9b4 <__bss_end__+0x2c2fec>
    1190:	0213490b 	andseq	r4, r3, #180224	; 0x2c000
    1194:	08000017 	stmdaeq	r0, {r0, r1, r2, r4}
    1198:	0e030034 	mcreq	0, 0, r0, cr3, cr4, {1}
    119c:	19341349 	ldmdbne	r4!, {r0, r3, r6, r8, r9, ip}
    11a0:	00001802 	andeq	r1, r0, r2, lsl #16
    11a4:	01828909 	orreq	r8, r2, r9, lsl #18
    11a8:	31011100 	mrscc	r1, (UNDEF: 17)
    11ac:	0a000013 	beq	1200 <__code_start__-0x6e00>
    11b0:	01018289 	smlabbeq	r1, r9, r2, r8
    11b4:	13310111 	teqne	r1, #1073741828	; 0x40000004
    11b8:	00001301 	andeq	r1, r0, r1, lsl #6
    11bc:	01828a0b 	orreq	r8, r2, fp, lsl #20
    11c0:	91180200 	tstls	r8, r0, lsl #4
    11c4:	00001842 	andeq	r1, r0, r2, asr #16
    11c8:	4901010c 	stmdbmi	r1, {r2, r3, r8}
    11cc:	00130113 	andseq	r0, r3, r3, lsl r1
    11d0:	00210d00 	eoreq	r0, r1, r0, lsl #26
    11d4:	0b2f1349 	bleq	bc5f00 <__bss_end__+0xbb9538>
    11d8:	2e0e0000 	cdpcs	0, 0, cr0, cr14, cr0, {0}
    11dc:	03193f00 	tsteq	r9, #0, 30
    11e0:	3b0b3a0e 	blcc	2cfa20 <__bss_end__+0x2c3058>
    11e4:	3c19270b 	ldccc	7, cr2, [r9], {11}
    11e8:	0f000019 	svceq	0x00000019
    11ec:	193f012e 	ldmdbne	pc!, {r1, r2, r3, r5, r8}	; <UNPREDICTABLE>
    11f0:	0b3a0e03 	bleq	e84a04 <__bss_end__+0xe7803c>
    11f4:	19270b3b 	stmdbne	r7!, {r0, r1, r3, r4, r5, r8, r9, fp}
    11f8:	193c1349 	ldmdbne	ip!, {r0, r3, r6, r8, r9, ip}
    11fc:	00001301 	andeq	r1, r0, r1, lsl #6
    1200:	49000510 	stmdbmi	r0, {r4, r8, sl}
    1204:	11000013 	tstne	r0, r3, lsl r0
    1208:	00000018 	andeq	r0, r0, r8, lsl r0
    120c:	01110100 	tsteq	r1, r0, lsl #2
    1210:	0b130e25 	bleq	4c4aac <__bss_end__+0x4b80e4>
    1214:	0e1b0e03 	cdpeq	14, 1, cr0, cr11, cr3, {0}
    1218:	06120111 			; <UNDEFINED> instruction: 0x06120111
    121c:	00001710 	andeq	r1, r0, r0, lsl r7
    1220:	0b002402 	bleq	a230 <our_mmu_sync_pte_mods+0x10>
    1224:	030b3e0b 	movweq	r3, #48651	; 0xbe0b
    1228:	03000008 	movweq	r0, #8
    122c:	0b0b0024 	bleq	2c12c4 <__bss_end__+0x2b48fc>
    1230:	0e030b3e 	vmoveq.16	d3[0], r0
    1234:	0f040000 	svceq	0x00040000
    1238:	490b0b00 	stmdbmi	fp, {r8, r9, fp}
    123c:	05000013 	streq	r0, [r0, #-19]
    1240:	13490026 	movtne	r0, #36902	; 0x9026
    1244:	2e060000 	cdpcs	0, 0, cr0, cr6, cr0, {0}
    1248:	03193f01 	tsteq	r9, #1, 30
    124c:	3b0b3a0e 	blcc	2cfa8c <__bss_end__+0x2c30c4>
    1250:	1119270b 	tstne	r9, fp, lsl #14
    1254:	40061201 	andmi	r1, r6, r1, lsl #4
    1258:	19429718 	stmdbne	r2, {r3, r4, r8, r9, sl, ip, pc}^
    125c:	00001301 	andeq	r1, r0, r1, lsl #6
    1260:	03000507 	movweq	r0, #1287	; 0x507
    1264:	3b0b3a08 	blcc	2cfa8c <__bss_end__+0x2c30c4>
    1268:	0213490b 	andseq	r4, r3, #180224	; 0x2c000
    126c:	08000017 	stmdaeq	r0, {r0, r1, r2, r4}
    1270:	0e030034 	mcreq	0, 0, r0, cr3, cr4, {1}
    1274:	19341349 	ldmdbne	r4!, {r0, r3, r6, r8, r9, ip}
    1278:	00001802 	andeq	r1, r0, r2, lsl #16
    127c:	01828909 	orreq	r8, r2, r9, lsl #18
    1280:	31011100 	mrscc	r1, (UNDEF: 17)
    1284:	0a000013 	beq	12d8 <__code_start__-0x6d28>
    1288:	01018289 	smlabbeq	r1, r9, r2, r8
    128c:	13310111 	teqne	r1, #1073741828	; 0x40000004
    1290:	00001301 	andeq	r1, r0, r1, lsl #6
    1294:	01828a0b 	orreq	r8, r2, fp, lsl #20
    1298:	91180200 	tstls	r8, r0, lsl #4
    129c:	00001842 	andeq	r1, r0, r2, asr #16
    12a0:	4901010c 	stmdbmi	r1, {r2, r3, r8}
    12a4:	00130113 	andseq	r0, r3, r3, lsl r1
    12a8:	00210d00 	eoreq	r0, r1, r0, lsl #26
    12ac:	0b2f1349 	bleq	bc5fd8 <__bss_end__+0xbb9610>
    12b0:	2e0e0000 	cdpcs	0, 0, cr0, cr14, cr0, {0}
    12b4:	03193f00 	tsteq	r9, #0, 30
    12b8:	3b0b3a0e 	blcc	2cfaf8 <__bss_end__+0x2c3130>
    12bc:	3c19270b 	ldccc	7, cr2, [r9], {11}
    12c0:	0f000019 	svceq	0x00000019
    12c4:	193f012e 	ldmdbne	pc!, {r1, r2, r3, r5, r8}	; <UNPREDICTABLE>
    12c8:	0b3a0e03 	bleq	e84adc <__bss_end__+0xe78114>
    12cc:	19270b3b 	stmdbne	r7!, {r0, r1, r3, r4, r5, r8, r9, fp}
    12d0:	193c1349 	ldmdbne	ip!, {r0, r3, r6, r8, r9, ip}
    12d4:	00001301 	andeq	r1, r0, r1, lsl #6
    12d8:	49000510 	stmdbmi	r0, {r4, r8, sl}
    12dc:	11000013 	tstne	r0, r3, lsl r0
    12e0:	00000018 	andeq	r0, r0, r8, lsl r0
    12e4:	01110100 	tsteq	r1, r0, lsl #2
    12e8:	0b130e25 	bleq	4c4b84 <__bss_end__+0x4b81bc>
    12ec:	0e1b0e03 	cdpeq	14, 1, cr0, cr11, cr3, {0}
    12f0:	06120111 			; <UNDEFINED> instruction: 0x06120111
    12f4:	00001710 	andeq	r1, r0, r0, lsl r7
    12f8:	0b002402 	bleq	a308 <our_mmu_disable_set_asm+0x1c>
    12fc:	030b3e0b 	movweq	r3, #48651	; 0xbe0b
    1300:	03000008 	movweq	r0, #8
    1304:	0b0b0024 	bleq	2c139c <__bss_end__+0x2b49d4>
    1308:	0e030b3e 	vmoveq.16	d3[0], r0
    130c:	0f040000 	svceq	0x00040000
    1310:	490b0b00 	stmdbmi	fp, {r8, r9, fp}
    1314:	05000013 	streq	r0, [r0, #-19]
    1318:	13490026 	movtne	r0, #36902	; 0x9026
    131c:	2e060000 	cdpcs	0, 0, cr0, cr6, cr0, {0}
    1320:	03193f01 	tsteq	r9, #1, 30
    1324:	3b0b3a0e 	blcc	2cfb64 <__bss_end__+0x2c319c>
    1328:	1119270b 	tstne	r9, fp, lsl #14
    132c:	40061201 	andmi	r1, r6, r1, lsl #4
    1330:	19429718 	stmdbne	r2, {r3, r4, r8, r9, sl, ip, pc}^
    1334:	00001301 	andeq	r1, r0, r1, lsl #6
    1338:	03000507 	movweq	r0, #1287	; 0x507
    133c:	3b0b3a08 	blcc	2cfb64 <__bss_end__+0x2c319c>
    1340:	0213490b 	andseq	r4, r3, #180224	; 0x2c000
    1344:	08000017 	stmdaeq	r0, {r0, r1, r2, r4}
    1348:	0e030034 	mcreq	0, 0, r0, cr3, cr4, {1}
    134c:	19341349 	ldmdbne	r4!, {r0, r3, r6, r8, r9, ip}
    1350:	00001802 	andeq	r1, r0, r2, lsl #16
    1354:	01828909 	orreq	r8, r2, r9, lsl #18
    1358:	31011100 	mrscc	r1, (UNDEF: 17)
    135c:	0a000013 	beq	13b0 <__code_start__-0x6c50>
    1360:	01018289 	smlabbeq	r1, r9, r2, r8
    1364:	13310111 	teqne	r1, #1073741828	; 0x40000004
    1368:	00001301 	andeq	r1, r0, r1, lsl #6
    136c:	01828a0b 	orreq	r8, r2, fp, lsl #20
    1370:	91180200 	tstls	r8, r0, lsl #4
    1374:	00001842 	andeq	r1, r0, r2, asr #16
    1378:	4901010c 	stmdbmi	r1, {r2, r3, r8}
    137c:	00130113 	andseq	r0, r3, r3, lsl r1
    1380:	00210d00 	eoreq	r0, r1, r0, lsl #26
    1384:	0b2f1349 	bleq	bc60b0 <__bss_end__+0xbb96e8>
    1388:	2e0e0000 	cdpcs	0, 0, cr0, cr14, cr0, {0}
    138c:	03193f00 	tsteq	r9, #0, 30
    1390:	3b0b3a0e 	blcc	2cfbd0 <__bss_end__+0x2c3208>
    1394:	3c19270b 	ldccc	7, cr2, [r9], {11}
    1398:	0f000019 	svceq	0x00000019
    139c:	193f012e 	ldmdbne	pc!, {r1, r2, r3, r5, r8}	; <UNPREDICTABLE>
    13a0:	0b3a0e03 	bleq	e84bb4 <__bss_end__+0xe781ec>
    13a4:	19270b3b 	stmdbne	r7!, {r0, r1, r3, r4, r5, r8, r9, fp}
    13a8:	193c1349 	ldmdbne	ip!, {r0, r3, r6, r8, r9, ip}
    13ac:	00001301 	andeq	r1, r0, r1, lsl #6
    13b0:	49000510 	stmdbmi	r0, {r4, r8, sl}
    13b4:	11000013 	tstne	r0, r3, lsl r0
    13b8:	00000018 	andeq	r0, r0, r8, lsl r0
    13bc:	01110100 	tsteq	r1, r0, lsl #2
    13c0:	0b130e25 	bleq	4c4c5c <__bss_end__+0x4b8294>
    13c4:	0e1b0e03 	cdpeq	14, 1, cr0, cr11, cr3, {0}
    13c8:	06120111 			; <UNDEFINED> instruction: 0x06120111
    13cc:	00001710 	andeq	r1, r0, r0, lsl r7
    13d0:	0b002402 	bleq	a3e0 <fast_hash+0x70>
    13d4:	030b3e0b 	movweq	r3, #48651	; 0xbe0b
    13d8:	03000008 	movweq	r0, #8
    13dc:	0b0b0024 	bleq	2c1474 <__bss_end__+0x2b4aac>
    13e0:	0e030b3e 	vmoveq.16	d3[0], r0
    13e4:	2e040000 	cdpcs	0, 0, cr0, cr4, cr0, {0}
    13e8:	03193f00 	tsteq	r9, #0, 30
    13ec:	3b0b3a0e 	blcc	2cfc2c <__bss_end__+0x2c3264>
    13f0:	1119270b 	tstne	r9, fp, lsl #14
    13f4:	40061201 	andmi	r1, r6, r1, lsl #4
    13f8:	19429718 	stmdbne	r2, {r3, r4, r8, r9, sl, ip, pc}^
    13fc:	01000000 	mrseq	r0, (UNDEF: 0)
    1400:	0e250111 	mcreq	1, 1, r0, cr5, cr1, {0}
    1404:	0e030b13 	vmoveq.32	d3[0], r0
    1408:	01110e1b 	tsteq	r1, fp, lsl lr
    140c:	17100612 			; <UNDEFINED> instruction: 0x17100612
    1410:	24020000 	strcs	r0, [r2], #-0
    1414:	3e0b0b00 	vmlacc.f64	d0, d11, d0
    1418:	0008030b 	andeq	r0, r8, fp, lsl #6
    141c:	00240300 	eoreq	r0, r4, r0, lsl #6
    1420:	0b3e0b0b 	bleq	f84054 <__bss_end__+0xf7768c>
    1424:	00000e03 	andeq	r0, r0, r3, lsl #28
    1428:	0b010404 	bleq	42440 <__bss_end__+0x35a78>
    142c:	3b0b3a0b 	blcc	2cfc60 <__bss_end__+0x2c3298>
    1430:	0013010b 	andseq	r0, r3, fp, lsl #2
    1434:	00280500 	eoreq	r0, r8, r0, lsl #10
    1438:	0d1c0e03 	ldceq	14, cr0, [ip, #-12]
    143c:	2e060000 	cdpcs	0, 0, cr0, cr6, cr0, {0}
    1440:	03193f01 	tsteq	r9, #1, 30
    1444:	3b0b3a0e 	blcc	2cfc84 <__bss_end__+0x2c32bc>
    1448:	1119270b 	tstne	r9, fp, lsl #14
    144c:	40061201 	andmi	r1, r6, r1, lsl #4
    1450:	19429718 	stmdbne	r2, {r3, r4, r8, r9, sl, ip, pc}^
    1454:	00001301 	andeq	r1, r0, r1, lsl #6
    1458:	03003407 	movweq	r3, #1031	; 0x407
    145c:	3b0b3a0e 	blcc	2cfc9c <__bss_end__+0x2c32d4>
    1460:	3f13490b 	svccc	0x0013490b
    1464:	00193c19 	andseq	r3, r9, r9, lsl ip
    1468:	00340800 	eorseq	r0, r4, r0, lsl #16
    146c:	0b3a0803 	bleq	e83480 <__bss_end__+0xe76ab8>
    1470:	13490b3b 	movtne	r0, #39739	; 0x9b3b
    1474:	00000b1c 	andeq	r0, r0, ip, lsl fp
    1478:	03003409 	movweq	r3, #1033	; 0x409
    147c:	3b0b3a08 	blcc	2cfca4 <__bss_end__+0x2c32dc>
    1480:	0013490b 	andseq	r4, r3, fp, lsl #18
    1484:	00340a00 	eorseq	r0, r4, r0, lsl #20
    1488:	0b3a0803 	bleq	e8349c <__bss_end__+0xe76ad4>
    148c:	13490b3b 	movtne	r0, #39739	; 0x9b3b
    1490:	00001802 	andeq	r1, r0, r2, lsl #16
    1494:	11010b0b 	tstne	r1, fp, lsl #22
    1498:	01061201 	tsteq	r6, r1, lsl #4
    149c:	0c000013 	stceq	0, cr0, [r0], {19}
    14a0:	08030034 	stmdaeq	r3, {r2, r4, r5}
    14a4:	0b3b0b3a 	bleq	ec4194 <__bss_end__+0xeb77cc>
    14a8:	17021349 	strne	r1, [r2, -r9, asr #6]
    14ac:	890d0000 	stmdbhi	sp, {}	; <UNPREDICTABLE>
    14b0:	11000182 	smlabbne	r0, r2, r1, r0
    14b4:	00133101 	andseq	r3, r3, r1, lsl #2
    14b8:	82890e00 	addhi	r0, r9, #0, 28
    14bc:	01110101 	tsteq	r1, r1, lsl #2
    14c0:	13011331 	movwne	r1, #4913	; 0x1331
    14c4:	8a0f0000 	bhi	3c14cc <__bss_end__+0x3b4b04>
    14c8:	02000182 	andeq	r0, r0, #-2147483616	; 0x80000020
    14cc:	18429118 	stmdane	r2, {r3, r4, r8, ip, pc}^
    14d0:	0f100000 	svceq	0x00100000
    14d4:	490b0b00 	stmdbmi	fp, {r8, r9, fp}
    14d8:	11000013 	tstne	r0, r3, lsl r0
    14dc:	193f002e 	ldmdbne	pc!, {r1, r2, r3, r5}	; <UNPREDICTABLE>
    14e0:	0b3a0e03 	bleq	e84cf4 <__bss_end__+0xe7832c>
    14e4:	19270b3b 	stmdbne	r7!, {r0, r1, r3, r4, r5, r8, r9, fp}
    14e8:	0000193c 	andeq	r1, r0, ip, lsr r9
    14ec:	3f012e12 	svccc	0x00012e12
    14f0:	3a0e0319 	bcc	38215c <__bss_end__+0x375794>
    14f4:	270b3b0b 	strcs	r3, [fp, -fp, lsl #22]
    14f8:	00193c19 	andseq	r3, r9, r9, lsl ip
    14fc:	00051300 	andeq	r1, r5, r0, lsl #6
    1500:	00001349 	andeq	r1, r0, r9, asr #6
    1504:	01110100 	tsteq	r1, r0, lsl #2
    1508:	0b130e25 	bleq	4c4da4 <__bss_end__+0x4b83dc>
    150c:	0e1b0e03 	cdpeq	14, 1, cr0, cr11, cr3, {0}
    1510:	01111755 	tsteq	r1, r5, asr r7
    1514:	00001710 	andeq	r1, r0, r0, lsl r7
    1518:	0b002402 	bleq	a528 <internal_putk+0x14>
    151c:	030b3e0b 	movweq	r3, #48651	; 0xbe0b
    1520:	03000008 	movweq	r0, #8
    1524:	0b0b0024 	bleq	2c15bc <__bss_end__+0x2b4bf4>
    1528:	0e030b3e 	vmoveq.16	d3[0], r0
    152c:	2e040000 	cdpcs	0, 0, cr0, cr4, cr0, {0}
    1530:	03193f01 	tsteq	r9, #1, 30
    1534:	3b0b3a0e 	blcc	2cfd74 <__bss_end__+0x2c33ac>
    1538:	4919270b 	ldmdbmi	r9, {r0, r1, r3, r8, r9, sl, sp}
    153c:	12011113 	andne	r1, r1, #-1073741820	; 0xc0000004
    1540:	97184006 	ldrls	r4, [r8, -r6]
    1544:	13011942 	movwne	r1, #6466	; 0x1942
    1548:	34050000 	strcc	r0, [r5], #-0
    154c:	3a0e0300 	bcc	382154 <__bss_end__+0x37578c>
    1550:	490b3b0b 	stmdbmi	fp, {r0, r1, r3, r8, r9, fp, ip, sp}
    1554:	00170213 	andseq	r0, r7, r3, lsl r2
    1558:	012e0600 	teqeq	lr, r0, lsl #12
    155c:	0e03193f 	mcreq	9, 0, r1, cr3, cr15, {1}
    1560:	0b3b0b3a 	bleq	ec4250 <__bss_end__+0xeb7888>
    1564:	01111927 	tsteq	r1, r7, lsr #18
    1568:	18400612 	stmdane	r0, {r1, r4, r9, sl}^
    156c:	01194297 			; <UNDEFINED> instruction: 0x01194297
    1570:	07000013 	smladeq	r0, r3, r0, r0
    1574:	0e030034 	mcreq	0, 0, r0, cr3, cr4, {1}
    1578:	0b3b0b3a 	bleq	ec4268 <__bss_end__+0xeb78a0>
    157c:	061c1349 	ldreq	r1, [ip], -r9, asr #6
    1580:	34080000 	strcc	r0, [r8], #-0
    1584:	3a0e0300 	bcc	38218c <__bss_end__+0x3757c4>
    1588:	490b3b0b 	stmdbmi	fp, {r0, r1, r3, r8, r9, fp, ip, sp}
    158c:	000b1c13 	andeq	r1, fp, r3, lsl ip
    1590:	82890900 	addhi	r0, r9, #0, 18
    1594:	01110001 	tsteq	r1, r1
    1598:	00001331 	andeq	r1, r0, r1, lsr r3
    159c:	0182890a 	orreq	r8, r2, sl, lsl #18
    15a0:	31011101 	tstcc	r1, r1, lsl #2
    15a4:	00130113 	andseq	r0, r3, r3, lsl r1
    15a8:	828a0b00 	addhi	r0, sl, #0, 22
    15ac:	18020001 	stmdane	r2, {r0}
    15b0:	00184291 	mulseq	r8, r1, r2
    15b4:	82890c00 	addhi	r0, r9, #0, 24
    15b8:	01110101 	tsteq	r1, r1, lsl #2
    15bc:	00001331 	andeq	r1, r0, r1, lsr r3
    15c0:	4900260d 	stmdbmi	r0, {r0, r2, r3, r9, sl, sp}
    15c4:	0e000013 	mcreq	0, 0, r0, cr0, cr3, {0}
    15c8:	193f012e 	ldmdbne	pc!, {r1, r2, r3, r5, r8}	; <UNPREDICTABLE>
    15cc:	0b3a0e03 	bleq	e84de0 <__bss_end__+0xe78418>
    15d0:	19270b3b 	stmdbne	r7!, {r0, r1, r3, r4, r5, r8, r9, fp}
    15d4:	1301193c 	movwne	r1, #6460	; 0x193c
    15d8:	050f0000 	streq	r0, [pc, #-0]	; 15e0 <__code_start__-0x6a20>
    15dc:	00134900 	andseq	r4, r3, r0, lsl #18
    15e0:	012e1000 	teqeq	lr, r0
    15e4:	0e03193f 	mcreq	9, 0, r1, cr3, cr15, {1}
    15e8:	0b3b0b3a 	bleq	ec42d8 <__bss_end__+0xeb7910>
    15ec:	193c1927 	ldmdbne	ip!, {r0, r1, r2, r5, r8, fp, ip}
    15f0:	01000000 	mrseq	r0, (UNDEF: 0)
    15f4:	0e250111 	mcreq	1, 1, r0, cr5, cr1, {0}
    15f8:	0e030b13 	vmoveq.32	d3[0], r0
    15fc:	01110e1b 	tsteq	r1, fp, lsl lr
    1600:	17100612 			; <UNDEFINED> instruction: 0x17100612
    1604:	24020000 	strcs	r0, [r2], #-0
    1608:	3e0b0b00 	vmlacc.f64	d0, d11, d0
    160c:	0008030b 	andeq	r0, r8, fp, lsl #6
    1610:	00240300 	eoreq	r0, r4, r0, lsl #6
    1614:	0b3e0b0b 	bleq	f84248 <__bss_end__+0xf77880>
    1618:	00000e03 	andeq	r0, r0, r3, lsl #28
    161c:	3f012e04 	svccc	0x00012e04
    1620:	3a0e0319 	bcc	38228c <__bss_end__+0x3758c4>
    1624:	270b3b0b 	strcs	r3, [fp, -fp, lsl #22]
    1628:	12011119 	andne	r1, r1, #1073741830	; 0x40000006
    162c:	97184006 	ldrls	r4, [r8, -r6]
    1630:	13011942 	movwne	r1, #6466	; 0x1942
    1634:	05050000 	streq	r0, [r5, #-0]
    1638:	3a0e0300 	bcc	382240 <__bss_end__+0x375878>
    163c:	490b3b0b 	stmdbmi	fp, {r0, r1, r3, r8, r9, fp, ip, sp}
    1640:	00170213 	andseq	r0, r7, r3, lsl r2
    1644:	012e0600 	teqeq	lr, r0, lsl #12
    1648:	0e03193f 	mcreq	9, 0, r1, cr3, cr15, {1}
    164c:	0b3b0b3a 	bleq	ec433c <__bss_end__+0xeb7974>
    1650:	13491927 	movtne	r1, #39207	; 0x9927
    1654:	06120111 			; <UNDEFINED> instruction: 0x06120111
    1658:	42971840 	addsmi	r1, r7, #64, 16	; 0x400000
    165c:	00130119 	andseq	r0, r3, r9, lsl r1
    1660:	82890700 	addhi	r0, r9, #0, 14
    1664:	01110101 	tsteq	r1, r1, lsl #2
    1668:	00001331 	andeq	r1, r0, r1, lsr r3
    166c:	01828a08 	orreq	r8, r2, r8, lsl #20
    1670:	91180200 	tstls	r8, r0, lsl #4
    1674:	00001842 	andeq	r1, r0, r2, asr #16
    1678:	03003409 	movweq	r3, #1033	; 0x409
    167c:	3b0b3a08 	blcc	2cfea4 <__bss_end__+0x2c34dc>
    1680:	0213490b 	andseq	r4, r3, #180224	; 0x2c000
    1684:	0a000017 	beq	16e8 <__code_start__-0x6918>
    1688:	00018289 	andeq	r8, r1, r9, lsl #5
    168c:	13310111 	teqne	r1, #1073741828	; 0x40000004
    1690:	050b0000 	streq	r0, [fp, #-0]
    1694:	3a080300 	bcc	20229c <__bss_end__+0x1f58d4>
    1698:	490b3b0b 	stmdbmi	fp, {r0, r1, r3, r8, r9, fp, ip, sp}
    169c:	00170213 	andseq	r0, r7, r3, lsl r2
    16a0:	00340c00 	eorseq	r0, r4, r0, lsl #24
    16a4:	0b3a0803 	bleq	e836b8 <__bss_end__+0xe76cf0>
    16a8:	13490b3b 	movtne	r0, #39739	; 0x9b3b
    16ac:	00001802 	andeq	r1, r0, r2, lsl #16
    16b0:	11010b0d 	tstne	r1, sp, lsl #22
    16b4:	01061201 	tsteq	r6, r1, lsl #4
    16b8:	0e000013 	mcreq	0, 0, r0, cr0, cr3, {0}
    16bc:	193f012e 	ldmdbne	pc!, {r1, r2, r3, r5, r8}	; <UNPREDICTABLE>
    16c0:	0b3a0e03 	bleq	e84ed4 <__bss_end__+0xe7850c>
    16c4:	19270b3b 	stmdbne	r7!, {r0, r1, r3, r4, r5, r8, r9, fp}
    16c8:	193c1349 	ldmdbne	ip!, {r0, r3, r6, r8, r9, ip}
    16cc:	00001301 	andeq	r1, r0, r1, lsl #6
    16d0:	4900050f 	stmdbmi	r0, {r0, r1, r2, r3, r8, sl}
    16d4:	10000013 	andne	r0, r0, r3, lsl r0
    16d8:	193f002e 	ldmdbne	pc!, {r1, r2, r3, r5}	; <UNPREDICTABLE>
    16dc:	0b3a0e03 	bleq	e84ef0 <__bss_end__+0xe78528>
    16e0:	19270b3b 	stmdbne	r7!, {r0, r1, r3, r4, r5, r8, r9, fp}
    16e4:	0000193c 	andeq	r1, r0, ip, lsr r9
    16e8:	01110100 	tsteq	r1, r0, lsl #2
    16ec:	0b130e25 	bleq	4c4f88 <__bss_end__+0x4b85c0>
    16f0:	0e1b0e03 	cdpeq	14, 1, cr0, cr11, cr3, {0}
    16f4:	06120111 			; <UNDEFINED> instruction: 0x06120111
    16f8:	00001710 	andeq	r1, r0, r0, lsl r7
    16fc:	0b002402 	bleq	a70c <emit+0x144>
    1700:	030b3e0b 	movweq	r3, #48651	; 0xbe0b
    1704:	03000008 	movweq	r0, #8
    1708:	0b0b0024 	bleq	2c17a0 <__bss_end__+0x2b4dd8>
    170c:	0e030b3e 	vmoveq.16	d3[0], r0
    1710:	35040000 	strcc	r0, [r4, #-0]
    1714:	00134900 	andseq	r4, r3, r0, lsl #18
    1718:	00160500 	andseq	r0, r6, r0, lsl #10
    171c:	0b3a0e03 	bleq	e84f30 <__bss_end__+0xe78568>
    1720:	13490b3b 	movtne	r0, #39739	; 0x9b3b
    1724:	16060000 	strne	r0, [r6], -r0
    1728:	3a0e0300 	bcc	382330 <__bss_end__+0x375968>
    172c:	49053b0b 	stmdbmi	r5, {r0, r1, r3, r8, r9, fp, ip, sp}
    1730:	07000013 	smladeq	r0, r3, r0, r0
    1734:	0b0b0117 	bleq	2c1b98 <__bss_end__+0x2b51d0>
    1738:	0b3b0b3a 	bleq	ec4428 <__bss_end__+0xeb7a60>
    173c:	00001301 	andeq	r1, r0, r1, lsl #6
    1740:	03000d08 	movweq	r0, #3336	; 0xd08
    1744:	3b0b3a0e 	blcc	2cff84 <__bss_end__+0x2c35bc>
    1748:	0013490b 	andseq	r4, r3, fp, lsl #18
    174c:	01010900 	tsteq	r1, r0, lsl #18
    1750:	13011349 	movwne	r1, #4937	; 0x1349
    1754:	210a0000 	mrscs	r0, (UNDEF: 10)
    1758:	2f134900 	svccs	0x00134900
    175c:	0b00000b 	bleq	1790 <__code_start__-0x6870>
    1760:	0b0b0113 	bleq	2c1bb4 <__bss_end__+0x2b51ec>
    1764:	0b3b0b3a 	bleq	ec4454 <__bss_end__+0xeb7a8c>
    1768:	00001301 	andeq	r1, r0, r1, lsl #6
    176c:	03000d0c 	movweq	r0, #3340	; 0xd0c
    1770:	3b0b3a0e 	blcc	2cffb0 <__bss_end__+0x2c35e8>
    1774:	3813490b 	ldmdacc	r3, {r0, r1, r3, r8, fp, lr}
    1778:	0d00000b 	stceq	0, cr0, [r0, #-44]	; 0xffffffd4
    177c:	0b0b000f 	bleq	2c17c0 <__bss_end__+0x2b4df8>
    1780:	0f0e0000 	svceq	0x000e0000
    1784:	490b0b00 	stmdbmi	fp, {r8, r9, fp}
    1788:	0f000013 	svceq	0x00000013
    178c:	13490026 	movtne	r0, #36902	; 0x9026
    1790:	13100000 	tstne	r0, #0
    1794:	0b0e0301 	bleq	3823a0 <__bss_end__+0x3759d8>
    1798:	3b0b3a0b 	blcc	2cffcc <__bss_end__+0x2c3604>
    179c:	0013010b 	andseq	r0, r3, fp, lsl #2
    17a0:	000d1100 	andeq	r1, sp, r0, lsl #2
    17a4:	0b3a0803 	bleq	e837b8 <__bss_end__+0xe76df0>
    17a8:	13490b3b 	movtne	r0, #39739	; 0x9b3b
    17ac:	00000b38 	andeq	r0, r0, r8, lsr fp
    17b0:	03011312 	movweq	r1, #4882	; 0x1312
    17b4:	3a050b0e 	bcc	1443f4 <__bss_end__+0x137a2c>
    17b8:	010b3b0b 	tsteq	fp, fp, lsl #22
    17bc:	13000013 	movwne	r0, #19
    17c0:	0e03000d 	cdpeq	0, 0, cr0, cr3, cr13, {0}
    17c4:	0b3b0b3a 	bleq	ec44b4 <__bss_end__+0xeb7aec>
    17c8:	05381349 	ldreq	r1, [r8, #-841]!	; 0x349
    17cc:	15140000 	ldrne	r0, [r4, #-0]
    17d0:	00192700 	andseq	r2, r9, r0, lsl #14
    17d4:	01151500 	tsteq	r5, r0, lsl #10
    17d8:	13491927 	movtne	r1, #39207	; 0x9927
    17dc:	00001301 	andeq	r1, r0, r1, lsl #6
    17e0:	49000516 	stmdbmi	r0, {r1, r2, r4, r8, sl}
    17e4:	17000013 	smladne	r0, r3, r0, r0
    17e8:	0e030113 	mcreq	1, 0, r0, cr3, cr3, {0}
    17ec:	0b3a050b 	bleq	e82c20 <__bss_end__+0xe76258>
    17f0:	1301053b 	movwne	r0, #5435	; 0x153b
    17f4:	0d180000 	ldceq	0, cr0, [r8, #-0]
    17f8:	3a0e0300 	bcc	382400 <__bss_end__+0x375a38>
    17fc:	49053b0b 	stmdbmi	r5, {r0, r1, r3, r8, r9, fp, ip, sp}
    1800:	000b3813 	andeq	r3, fp, r3, lsl r8
    1804:	000d1900 	andeq	r1, sp, r0, lsl #18
    1808:	0b3a0e03 	bleq	e8501c <__bss_end__+0xe78654>
    180c:	1349053b 	movtne	r0, #38203	; 0x953b
    1810:	00000538 	andeq	r0, r0, r8, lsr r5
    1814:	0301131a 	movweq	r1, #4890	; 0x131a
    1818:	3a0b0b0e 	bcc	2c4458 <__bss_end__+0x2b7a90>
    181c:	01053b0b 	tsteq	r5, fp, lsl #22
    1820:	1b000013 	blne	1874 <__code_start__-0x678c>
    1824:	0b0b0113 	bleq	2c1c78 <__bss_end__+0x2b52b0>
    1828:	053b0b3a 	ldreq	r0, [fp, #-2874]!	; 0xb3a
    182c:	00001301 	andeq	r1, r0, r1, lsl #6
    1830:	0b01171c 	bleq	474a8 <__bss_end__+0x3aae0>
    1834:	3b0b3a0b 	blcc	2d0068 <__bss_end__+0x2c36a0>
    1838:	00130105 	andseq	r0, r3, r5, lsl #2
    183c:	000d1d00 	andeq	r1, sp, r0, lsl #26
    1840:	0b3a0e03 	bleq	e85054 <__bss_end__+0xe7868c>
    1844:	1349053b 	movtne	r0, #38203	; 0x953b
    1848:	151e0000 	ldrne	r0, [lr, #-0]
    184c:	01192701 	tsteq	r9, r1, lsl #14
    1850:	1f000013 	svcne	0x00000013
    1854:	0e030034 	mcreq	0, 0, r0, cr3, cr4, {1}
    1858:	053b0b3a 	ldreq	r0, [fp, #-2874]!	; 0xb3a
    185c:	193f1349 	ldmdbne	pc!, {r0, r3, r6, r8, r9, ip}	; <UNPREDICTABLE>
    1860:	0000193c 	andeq	r1, r0, ip, lsr r9
    1864:	03003420 	movweq	r3, #1056	; 0x420
    1868:	3b0b3a0e 	blcc	2d00a8 <__bss_end__+0x2c36e0>
    186c:	3f13490b 	svccc	0x0013490b
    1870:	00193c19 	andseq	r3, r9, r9, lsl ip
    1874:	01042100 	mrseq	r2, (UNDEF: 20)
    1878:	13490b0b 	movtne	r0, #39691	; 0x9b0b
    187c:	0b3b0b3a 	bleq	ec456c <__bss_end__+0xeb7ba4>
    1880:	00001301 	andeq	r1, r0, r1, lsl #6
    1884:	03002822 	movweq	r2, #2082	; 0x822
    1888:	000b1c0e 	andeq	r1, fp, lr, lsl #24
    188c:	00342300 	eorseq	r2, r4, r0, lsl #6
    1890:	0b3a0e03 	bleq	e850a4 <__bss_end__+0xe786dc>
    1894:	13490b3b 	movtne	r0, #39739	; 0x9b3b
    1898:	0000061c 	andeq	r0, r0, ip, lsl r6
    189c:	3f012e24 	svccc	0x00012e24
    18a0:	3a0e0319 	bcc	38250c <__bss_end__+0x375b44>
    18a4:	270b3b0b 	strcs	r3, [fp, -fp, lsl #22]
    18a8:	11134919 	tstne	r3, r9, lsl r9
    18ac:	40061201 	andmi	r1, r6, r1, lsl #4
    18b0:	19429718 	stmdbne	r2, {r3, r4, r8, r9, sl, ip, pc}^
    18b4:	00001301 	andeq	r1, r0, r1, lsl #6
    18b8:	01828925 	orreq	r8, r2, r5, lsr #18
    18bc:	31011100 	mrscc	r1, (UNDEF: 17)
    18c0:	26000013 			; <UNDEFINED> instruction: 0x26000013
    18c4:	193f012e 	ldmdbne	pc!, {r1, r2, r3, r5, r8}	; <UNPREDICTABLE>
    18c8:	0b3a0e03 	bleq	e850dc <__bss_end__+0xe78714>
    18cc:	19270b3b 	stmdbne	r7!, {r0, r1, r3, r4, r5, r8, r9, fp}
    18d0:	06120111 			; <UNDEFINED> instruction: 0x06120111
    18d4:	42971840 	addsmi	r1, r7, #64, 16	; 0x400000
    18d8:	00130119 	andseq	r0, r3, r9, lsl r1
    18dc:	00052700 	andeq	r2, r5, r0, lsl #14
    18e0:	0b3a0803 	bleq	e838f4 <__bss_end__+0xe76f2c>
    18e4:	13490b3b 	movtne	r0, #39739	; 0x9b3b
    18e8:	00001702 	andeq	r1, r0, r2, lsl #14
    18ec:	01828928 	orreq	r8, r2, r8, lsr #18
    18f0:	31011101 	tstcc	r1, r1, lsl #2
    18f4:	00130113 	andseq	r0, r3, r3, lsl r1
    18f8:	828a2900 	addhi	r2, sl, #0, 18
    18fc:	18020001 	stmdane	r2, {r0}
    1900:	00184291 	mulseq	r8, r1, r2
    1904:	00342a00 	eorseq	r2, r4, r0, lsl #20
    1908:	0b3a0803 	bleq	e8391c <__bss_end__+0xe76f54>
    190c:	13490b3b 	movtne	r0, #39739	; 0x9b3b
    1910:	00001802 	andeq	r1, r0, r2, lsl #16
    1914:	0182892b 	orreq	r8, r2, fp, lsr #18
    1918:	31011101 	tstcc	r1, r1, lsl #2
    191c:	2c000013 	stccs	0, cr0, [r0], {19}
    1920:	0e03012e 	adfeqsp	f0, f3, #0.5
    1924:	0b3b0b3a 	bleq	ec4614 <__bss_end__+0xeb7c4c>
    1928:	01111927 	tsteq	r1, r7, lsr #18
    192c:	18400612 	stmdane	r0, {r1, r4, r9, sl}^
    1930:	01194297 			; <UNDEFINED> instruction: 0x01194297
    1934:	2d000013 	stccs	0, cr0, [r0, #-76]	; 0xffffffb4
    1938:	0e030005 	cdpeq	0, 0, cr0, cr3, cr5, {0}
    193c:	0b3b0b3a 	bleq	ec462c <__bss_end__+0xeb7c64>
    1940:	17021349 	strne	r1, [r2, -r9, asr #6]
    1944:	352e0000 	strcc	r0, [lr, #-0]!
    1948:	2f000000 	svccs	0x00000000
    194c:	193f002e 	ldmdbne	pc!, {r1, r2, r3, r5}	; <UNPREDICTABLE>
    1950:	0e6e193c 	mcreq	9, 3, r1, cr14, cr12, {1}
    1954:	0b3a0e03 	bleq	e85168 <__bss_end__+0xe787a0>
    1958:	00000b3b 	andeq	r0, r0, fp, lsr fp
    195c:	01110100 	tsteq	r1, r0, lsl #2
    1960:	0b130e25 	bleq	4c51fc <__bss_end__+0x4b8834>
    1964:	0e1b0e03 	cdpeq	14, 1, cr0, cr11, cr3, {0}
    1968:	06120111 			; <UNDEFINED> instruction: 0x06120111
    196c:	00001710 	andeq	r1, r0, r0, lsl r7
    1970:	0b002402 	bleq	a980 <va_printk+0x194>
    1974:	030b3e0b 	movweq	r3, #48651	; 0xbe0b
    1978:	03000008 	movweq	r0, #8
    197c:	0b0b0024 	bleq	2c1a14 <__bss_end__+0x2b504c>
    1980:	0e030b3e 	vmoveq.16	d3[0], r0
    1984:	26040000 	strcs	r0, [r4], -r0
    1988:	00134900 	andseq	r4, r3, r0, lsl #18
    198c:	00160500 	andseq	r0, r6, r0, lsl #10
    1990:	0b3a0e03 	bleq	e851a4 <__bss_end__+0xe787dc>
    1994:	13490b3b 	movtne	r0, #39739	; 0x9b3b
    1998:	16060000 	strne	r0, [r6], -r0
    199c:	3a0e0300 	bcc	3825a4 <__bss_end__+0x375bdc>
    19a0:	49053b0b 	stmdbmi	r5, {r0, r1, r3, r8, r9, fp, ip, sp}
    19a4:	07000013 	smladeq	r0, r3, r0, r0
    19a8:	0b0b0117 	bleq	2c1e0c <__bss_end__+0x2b5444>
    19ac:	0b3b0b3a 	bleq	ec469c <__bss_end__+0xeb7cd4>
    19b0:	00001301 	andeq	r1, r0, r1, lsl #6
    19b4:	03000d08 	movweq	r0, #3336	; 0xd08
    19b8:	3b0b3a0e 	blcc	2d01f8 <__bss_end__+0x2c3830>
    19bc:	0013490b 	andseq	r4, r3, fp, lsl #18
    19c0:	01010900 	tsteq	r1, r0, lsl #18
    19c4:	13011349 	movwne	r1, #4937	; 0x1349
    19c8:	210a0000 	mrscs	r0, (UNDEF: 10)
    19cc:	2f134900 	svccs	0x00134900
    19d0:	0b00000b 	bleq	1a04 <__code_start__-0x65fc>
    19d4:	0b0b0113 	bleq	2c1e28 <__bss_end__+0x2b5460>
    19d8:	0b3b0b3a 	bleq	ec46c8 <__bss_end__+0xeb7d00>
    19dc:	00001301 	andeq	r1, r0, r1, lsl #6
    19e0:	03000d0c 	movweq	r0, #3340	; 0xd0c
    19e4:	3b0b3a0e 	blcc	2d0224 <__bss_end__+0x2c385c>
    19e8:	3813490b 	ldmdacc	r3, {r0, r1, r3, r8, fp, lr}
    19ec:	0d00000b 	stceq	0, cr0, [r0, #-44]	; 0xffffffd4
    19f0:	0b0b000f 	bleq	2c1a34 <__bss_end__+0x2b506c>
    19f4:	0f0e0000 	svceq	0x000e0000
    19f8:	490b0b00 	stmdbmi	fp, {r8, r9, fp}
    19fc:	0f000013 	svceq	0x00000013
    1a00:	0e030113 	mcreq	1, 0, r0, cr3, cr3, {0}
    1a04:	0b3a0b0b 	bleq	e84638 <__bss_end__+0xe77c70>
    1a08:	13010b3b 	movwne	r0, #6971	; 0x1b3b
    1a0c:	0d100000 	ldceq	0, cr0, [r0, #-0]
    1a10:	3a080300 	bcc	202618 <__bss_end__+0x1f5c50>
    1a14:	490b3b0b 	stmdbmi	fp, {r0, r1, r3, r8, r9, fp, ip, sp}
    1a18:	000b3813 	andeq	r3, fp, r3, lsl r8
    1a1c:	01131100 	tsteq	r3, r0, lsl #2
    1a20:	050b0e03 	streq	r0, [fp, #-3587]	; 0xe03
    1a24:	0b3b0b3a 	bleq	ec4714 <__bss_end__+0xeb7d4c>
    1a28:	00001301 	andeq	r1, r0, r1, lsl #6
    1a2c:	03000d12 	movweq	r0, #3346	; 0xd12
    1a30:	3b0b3a0e 	blcc	2d0270 <__bss_end__+0x2c38a8>
    1a34:	3813490b 	ldmdacc	r3, {r0, r1, r3, r8, fp, lr}
    1a38:	13000005 	movwne	r0, #5
    1a3c:	19270015 	stmdbne	r7!, {r0, r2, r4}
    1a40:	15140000 	ldrne	r0, [r4, #-0]
    1a44:	49192701 	ldmdbmi	r9, {r0, r8, r9, sl, sp}
    1a48:	00130113 	andseq	r0, r3, r3, lsl r1
    1a4c:	00051500 	andeq	r1, r5, r0, lsl #10
    1a50:	00001349 	andeq	r1, r0, r9, asr #6
    1a54:	03011316 	movweq	r1, #4886	; 0x1316
    1a58:	3a050b0e 	bcc	144698 <__bss_end__+0x137cd0>
    1a5c:	01053b0b 	tsteq	r5, fp, lsl #22
    1a60:	17000013 	smladne	r0, r3, r0, r0
    1a64:	0e03000d 	cdpeq	0, 0, cr0, cr3, cr13, {0}
    1a68:	053b0b3a 	ldreq	r0, [fp, #-2874]!	; 0xb3a
    1a6c:	0b381349 	bleq	e06798 <__bss_end__+0xdf9dd0>
    1a70:	0d180000 	ldceq	0, cr0, [r8, #-0]
    1a74:	3a0e0300 	bcc	38267c <__bss_end__+0x375cb4>
    1a78:	49053b0b 	stmdbmi	r5, {r0, r1, r3, r8, r9, fp, ip, sp}
    1a7c:	00053813 	andeq	r3, r5, r3, lsl r8
    1a80:	01131900 	tsteq	r3, r0, lsl #18
    1a84:	0b0b0e03 	bleq	2c5298 <__bss_end__+0x2b88d0>
    1a88:	053b0b3a 	ldreq	r0, [fp, #-2874]!	; 0xb3a
    1a8c:	00001301 	andeq	r1, r0, r1, lsl #6
    1a90:	0b01131a 	bleq	46700 <__bss_end__+0x39d38>
    1a94:	3b0b3a0b 	blcc	2d02c8 <__bss_end__+0x2c3900>
    1a98:	00130105 	andseq	r0, r3, r5, lsl #2
    1a9c:	01171b00 	tsteq	r7, r0, lsl #22
    1aa0:	0b3a0b0b 	bleq	e846d4 <__bss_end__+0xe77d0c>
    1aa4:	1301053b 	movwne	r0, #5435	; 0x153b
    1aa8:	0d1c0000 	ldceq	0, cr0, [ip, #-0]
    1aac:	3a0e0300 	bcc	3826b4 <__bss_end__+0x375cec>
    1ab0:	49053b0b 	stmdbmi	r5, {r0, r1, r3, r8, r9, fp, ip, sp}
    1ab4:	1d000013 	stcne	0, cr0, [r0, #-76]	; 0xffffffb4
    1ab8:	19270115 	stmdbne	r7!, {r0, r2, r4, r8}
    1abc:	00001301 	andeq	r1, r0, r1, lsl #6
    1ac0:	0300341e 	movweq	r3, #1054	; 0x41e
    1ac4:	3b0b3a0e 	blcc	2d0304 <__bss_end__+0x2c393c>
    1ac8:	3f134905 	svccc	0x00134905
    1acc:	00193c19 	andseq	r3, r9, r9, lsl ip
    1ad0:	00341f00 	eorseq	r1, r4, r0, lsl #30
    1ad4:	0b3a0e03 	bleq	e852e8 <__bss_end__+0xe78920>
    1ad8:	13490b3b 	movtne	r0, #39739	; 0x9b3b
    1adc:	193c193f 	ldmdbne	ip!, {r0, r1, r2, r3, r4, r5, r8, fp, ip}
    1ae0:	04200000 	strteq	r0, [r0], #-0
    1ae4:	490b0b01 	stmdbmi	fp, {r0, r8, r9, fp}
    1ae8:	3b0b3a13 	blcc	2d033c <__bss_end__+0x2c3974>
    1aec:	0013010b 	andseq	r0, r3, fp, lsl #2
    1af0:	00282100 	eoreq	r2, r8, r0, lsl #2
    1af4:	0b1c0e03 	bleq	705308 <__bss_end__+0x6f8940>
    1af8:	34220000 	strtcc	r0, [r2], #-0
    1afc:	3a0e0300 	bcc	382704 <__bss_end__+0x375d3c>
    1b00:	490b3b0b 	stmdbmi	fp, {r0, r1, r3, r8, r9, fp, ip, sp}
    1b04:	00061c13 	andeq	r1, r6, r3, lsl ip
    1b08:	012e2300 	teqeq	lr, r0, lsl #6
    1b0c:	0e03193f 	mcreq	9, 0, r1, cr3, cr15, {1}
    1b10:	0b3b0b3a 	bleq	ec4800 <__bss_end__+0xeb7e38>
    1b14:	13491927 	movtne	r1, #39207	; 0x9927
    1b18:	06120111 			; <UNDEFINED> instruction: 0x06120111
    1b1c:	42971840 	addsmi	r1, r7, #64, 16	; 0x400000
    1b20:	00130119 	andseq	r0, r3, r9, lsl r1
    1b24:	00052400 	andeq	r2, r5, r0, lsl #8
    1b28:	0b3a0803 	bleq	e83b3c <__bss_end__+0xe77174>
    1b2c:	13490b3b 	movtne	r0, #39739	; 0x9b3b
    1b30:	00001702 	andeq	r1, r0, r2, lsl #14
    1b34:	03003425 	movweq	r3, #1061	; 0x425
    1b38:	3b0b3a0e 	blcc	2d0378 <__bss_end__+0x2c39b0>
    1b3c:	0213490b 	andseq	r4, r3, #180224	; 0x2c000
    1b40:	26000017 			; <UNDEFINED> instruction: 0x26000017
    1b44:	08030034 	stmdaeq	r3, {r2, r4, r5}
    1b48:	0b3b0b3a 	bleq	ec4838 <__bss_end__+0xeb7e70>
    1b4c:	17021349 	strne	r1, [r2, -r9, asr #6]
    1b50:	89270000 	stmdbhi	r7!, {}	; <UNPREDICTABLE>
    1b54:	11010182 	smlabbne	r1, r2, r1, r0
    1b58:	00133101 	andseq	r3, r3, r1, lsl #2
    1b5c:	828a2800 	addhi	r2, sl, #0, 16
    1b60:	18020001 	stmdane	r2, {r0}
    1b64:	00184291 	mulseq	r8, r1, r2
    1b68:	012e2900 	teqeq	lr, r0, lsl #18
    1b6c:	0e03193f 	mcreq	9, 0, r1, cr3, cr15, {1}
    1b70:	0b3b0b3a 	bleq	ec4860 <__bss_end__+0xeb7e98>
    1b74:	01111927 	tsteq	r1, r7, lsr #18
    1b78:	18400612 	stmdane	r0, {r1, r4, r9, sl}^
    1b7c:	01194297 			; <UNDEFINED> instruction: 0x01194297
    1b80:	2a000013 	bcs	1bd4 <__code_start__-0x642c>
    1b84:	01018289 	smlabbeq	r1, r9, r2, r8
    1b88:	13310111 	teqne	r1, #1073741828	; 0x40000004
    1b8c:	00001301 	andeq	r1, r0, r1, lsl #6
    1b90:	0182892b 	orreq	r8, r2, fp, lsr #18
    1b94:	31011100 	mrscc	r1, (UNDEF: 17)
    1b98:	2c000013 	stccs	0, cr0, [r0], {19}
    1b9c:	0e030005 	cdpeq	0, 0, cr0, cr3, cr5, {0}
    1ba0:	0b3b0b3a 	bleq	ec4890 <__bss_end__+0xeb7ec8>
    1ba4:	17021349 	strne	r1, [r2, -r9, asr #6]
    1ba8:	342d0000 	strtcc	r0, [sp], #-0
    1bac:	3a080300 	bcc	2027b4 <__bss_end__+0x1f5dec>
    1bb0:	490b3b0b 	stmdbmi	fp, {r0, r1, r3, r8, r9, fp, ip, sp}
    1bb4:	00180213 	andseq	r0, r8, r3, lsl r2
    1bb8:	002e2e00 	eoreq	r2, lr, r0, lsl #28
    1bbc:	193c193f 	ldmdbne	ip!, {r0, r1, r2, r3, r4, r5, r8, fp, ip}
    1bc0:	0e030e6e 	cdpeq	14, 0, cr0, cr3, cr14, {3}
    1bc4:	0b3b0b3a 	bleq	ec48b4 <__bss_end__+0xeb7eec>
    1bc8:	01000000 	mrseq	r0, (UNDEF: 0)
    1bcc:	0e250111 	mcreq	1, 1, r0, cr5, cr1, {0}
    1bd0:	0e030b13 	vmoveq.32	d3[0], r0
    1bd4:	01110e1b 	tsteq	r1, fp, lsl lr
    1bd8:	17100612 			; <UNDEFINED> instruction: 0x17100612
    1bdc:	24020000 	strcs	r0, [r2], #-0
    1be0:	3e0b0b00 	vmlacc.f64	d0, d11, d0
    1be4:	0008030b 	andeq	r0, r8, fp, lsl #6
    1be8:	00240300 	eoreq	r0, r4, r0, lsl #6
    1bec:	0b3e0b0b 	bleq	f84820 <__bss_end__+0xf77e58>
    1bf0:	00000e03 	andeq	r0, r0, r3, lsl #28
    1bf4:	03001604 	movweq	r1, #1540	; 0x604
    1bf8:	3b0b3a0e 	blcc	2d0438 <__bss_end__+0x2c3a70>
    1bfc:	0013490b 	andseq	r4, r3, fp, lsl #18
    1c00:	00160500 	andseq	r0, r6, r0, lsl #10
    1c04:	0b3a0e03 	bleq	e85418 <__bss_end__+0xe78a50>
    1c08:	1349053b 	movtne	r0, #38203	; 0x953b
    1c0c:	17060000 	strne	r0, [r6, -r0]
    1c10:	3a0b0b01 	bcc	2c481c <__bss_end__+0x2b7e54>
    1c14:	010b3b0b 	tsteq	fp, fp, lsl #22
    1c18:	07000013 	smladeq	r0, r3, r0, r0
    1c1c:	0e03000d 	cdpeq	0, 0, cr0, cr3, cr13, {0}
    1c20:	0b3b0b3a 	bleq	ec4910 <__bss_end__+0xeb7f48>
    1c24:	00001349 	andeq	r1, r0, r9, asr #6
    1c28:	49010108 	stmdbmi	r1, {r3, r8}
    1c2c:	00130113 	andseq	r0, r3, r3, lsl r1
    1c30:	00210900 	eoreq	r0, r1, r0, lsl #18
    1c34:	0b2f1349 	bleq	bc6960 <__bss_end__+0xbb9f98>
    1c38:	130a0000 	movwne	r0, #40960	; 0xa000
    1c3c:	3a0b0b01 	bcc	2c4848 <__bss_end__+0x2b7e80>
    1c40:	010b3b0b 	tsteq	fp, fp, lsl #22
    1c44:	0b000013 	bleq	1c98 <__code_start__-0x6368>
    1c48:	0e03000d 	cdpeq	0, 0, cr0, cr3, cr13, {0}
    1c4c:	0b3b0b3a 	bleq	ec493c <__bss_end__+0xeb7f74>
    1c50:	0b381349 	bleq	e0697c <__bss_end__+0xdf9fb4>
    1c54:	0f0c0000 	svceq	0x000c0000
    1c58:	000b0b00 	andeq	r0, fp, r0, lsl #22
    1c5c:	000f0d00 	andeq	r0, pc, r0, lsl #26
    1c60:	13490b0b 	movtne	r0, #39691	; 0x9b0b
    1c64:	260e0000 	strcs	r0, [lr], -r0
    1c68:	00134900 	andseq	r4, r3, r0, lsl #18
    1c6c:	01130f00 	tsteq	r3, r0, lsl #30
    1c70:	0b0b0e03 	bleq	2c5484 <__bss_end__+0x2b8abc>
    1c74:	0b3b0b3a 	bleq	ec4964 <__bss_end__+0xeb7f9c>
    1c78:	00001301 	andeq	r1, r0, r1, lsl #6
    1c7c:	03000d10 	movweq	r0, #3344	; 0xd10
    1c80:	3b0b3a08 	blcc	2d04a8 <__bss_end__+0x2c3ae0>
    1c84:	3813490b 	ldmdacc	r3, {r0, r1, r3, r8, fp, lr}
    1c88:	1100000b 	tstne	r0, fp
    1c8c:	0e030113 	mcreq	1, 0, r0, cr3, cr3, {0}
    1c90:	0b3a050b 	bleq	e830c4 <__bss_end__+0xe766fc>
    1c94:	13010b3b 	movwne	r0, #6971	; 0x1b3b
    1c98:	0d120000 	ldceq	0, cr0, [r2, #-0]
    1c9c:	3a0e0300 	bcc	3828a4 <__bss_end__+0x375edc>
    1ca0:	490b3b0b 	stmdbmi	fp, {r0, r1, r3, r8, r9, fp, ip, sp}
    1ca4:	00053813 	andeq	r3, r5, r3, lsl r8
    1ca8:	00151300 	andseq	r1, r5, r0, lsl #6
    1cac:	00001927 	andeq	r1, r0, r7, lsr #18
    1cb0:	27011514 	smladcs	r1, r4, r5, r1
    1cb4:	01134919 	tsteq	r3, r9, lsl r9
    1cb8:	15000013 	strne	r0, [r0, #-19]
    1cbc:	13490005 	movtne	r0, #36869	; 0x9005
    1cc0:	13160000 	tstne	r6, #0
    1cc4:	0b0e0301 	bleq	3828d0 <__bss_end__+0x375f08>
    1cc8:	3b0b3a05 	blcc	2d04e4 <__bss_end__+0x2c3b1c>
    1ccc:	00130105 	andseq	r0, r3, r5, lsl #2
    1cd0:	000d1700 	andeq	r1, sp, r0, lsl #14
    1cd4:	0b3a0e03 	bleq	e854e8 <__bss_end__+0xe78b20>
    1cd8:	1349053b 	movtne	r0, #38203	; 0x953b
    1cdc:	00000b38 	andeq	r0, r0, r8, lsr fp
    1ce0:	03000d18 	movweq	r0, #3352	; 0xd18
    1ce4:	3b0b3a0e 	blcc	2d0524 <__bss_end__+0x2c3b5c>
    1ce8:	38134905 	ldmdacc	r3, {r0, r2, r8, fp, lr}
    1cec:	19000005 	stmdbne	r0, {r0, r2}
    1cf0:	0e030113 	mcreq	1, 0, r0, cr3, cr3, {0}
    1cf4:	0b3a0b0b 	bleq	e84928 <__bss_end__+0xe77f60>
    1cf8:	1301053b 	movwne	r0, #5435	; 0x153b
    1cfc:	131a0000 	tstne	sl, #0
    1d00:	3a0b0b01 	bcc	2c490c <__bss_end__+0x2b7f44>
    1d04:	01053b0b 	tsteq	r5, fp, lsl #22
    1d08:	1b000013 	blne	1d5c <__code_start__-0x62a4>
    1d0c:	0b0b0117 	bleq	2c2170 <__bss_end__+0x2b57a8>
    1d10:	053b0b3a 	ldreq	r0, [fp, #-2874]!	; 0xb3a
    1d14:	00001301 	andeq	r1, r0, r1, lsl #6
    1d18:	03000d1c 	movweq	r0, #3356	; 0xd1c
    1d1c:	3b0b3a0e 	blcc	2d055c <__bss_end__+0x2c3b94>
    1d20:	00134905 	andseq	r4, r3, r5, lsl #18
    1d24:	01151d00 	tsteq	r5, r0, lsl #26
    1d28:	13011927 	movwne	r1, #6439	; 0x1927
    1d2c:	341e0000 	ldrcc	r0, [lr], #-0
    1d30:	3a0e0300 	bcc	382938 <__bss_end__+0x375f70>
    1d34:	49053b0b 	stmdbmi	r5, {r0, r1, r3, r8, r9, fp, ip, sp}
    1d38:	3c193f13 	ldccc	15, cr3, [r9], {19}
    1d3c:	1f000019 	svcne	0x00000019
    1d40:	0e030034 	mcreq	0, 0, r0, cr3, cr4, {1}
    1d44:	0b3b0b3a 	bleq	ec4a34 <__bss_end__+0xeb806c>
    1d48:	193f1349 	ldmdbne	pc!, {r0, r3, r6, r8, r9, ip}	; <UNPREDICTABLE>
    1d4c:	0000193c 	andeq	r1, r0, ip, lsr r9
    1d50:	03003420 	movweq	r3, #1056	; 0x420
    1d54:	3b0b3a0e 	blcc	2d0594 <__bss_end__+0x2c3bcc>
    1d58:	0213490b 	andseq	r4, r3, #180224	; 0x2c000
    1d5c:	21000018 	tstcs	r0, r8, lsl r0
    1d60:	193f012e 	ldmdbne	pc!, {r1, r2, r3, r5, r8}	; <UNPREDICTABLE>
    1d64:	0b3a0e03 	bleq	e85578 <__bss_end__+0xe78bb0>
    1d68:	19270b3b 	stmdbne	r7!, {r0, r1, r3, r4, r5, r8, r9, fp}
    1d6c:	06120111 			; <UNDEFINED> instruction: 0x06120111
    1d70:	42971840 	addsmi	r1, r7, #64, 16	; 0x400000
    1d74:	00130119 	andseq	r0, r3, r9, lsl r1
    1d78:	00052200 	andeq	r2, r5, r0, lsl #4
    1d7c:	0b3a0803 	bleq	e83d90 <__bss_end__+0xe773c8>
    1d80:	13490b3b 	movtne	r0, #39739	; 0x9b3b
    1d84:	00001802 	andeq	r1, r0, r2, lsl #16
    1d88:	3f002e23 	svccc	0x00002e23
    1d8c:	3a0e0319 	bcc	3829f8 <__bss_end__+0x376030>
    1d90:	270b3b0b 	strcs	r3, [fp, -fp, lsl #22]
    1d94:	12011119 	andne	r1, r1, #1073741830	; 0x40000006
    1d98:	97184006 	ldrls	r4, [r8, -r6]
    1d9c:	00001942 	andeq	r1, r0, r2, asr #18
    1da0:	3f012e24 	svccc	0x00012e24
    1da4:	3a0e0319 	bcc	382a10 <__bss_end__+0x376048>
    1da8:	270b3b0b 	strcs	r3, [fp, -fp, lsl #22]
    1dac:	11134919 	tstne	r3, r9, lsl r9
    1db0:	40061201 	andmi	r1, r6, r1, lsl #4
    1db4:	19429718 	stmdbne	r2, {r3, r4, r8, r9, sl, ip, pc}^
    1db8:	00001301 	andeq	r1, r0, r1, lsl #6
    1dbc:	03000525 	movweq	r0, #1317	; 0x525
    1dc0:	3b0b3a0e 	blcc	2d0600 <__bss_end__+0x2c3c38>
    1dc4:	0213490b 	andseq	r4, r3, #180224	; 0x2c000
    1dc8:	26000017 			; <UNDEFINED> instruction: 0x26000017
    1dcc:	0e030034 	mcreq	0, 0, r0, cr3, cr4, {1}
    1dd0:	19341349 	ldmdbne	r4!, {r0, r3, r6, r8, r9, ip}
    1dd4:	00001802 	andeq	r1, r0, r2, lsl #16
    1dd8:	03003427 	movweq	r3, #1063	; 0x427
    1ddc:	3b0b3a08 	blcc	2d0604 <__bss_end__+0x2c3c3c>
    1de0:	0213490b 	andseq	r4, r3, #180224	; 0x2c000
    1de4:	28000017 	stmdacs	r0, {r0, r1, r2, r4}
    1de8:	01018289 	smlabbeq	r1, r9, r2, r8
    1dec:	13310111 	teqne	r1, #1073741828	; 0x40000004
    1df0:	00001301 	andeq	r1, r0, r1, lsl #6
    1df4:	01828a29 	orreq	r8, r2, r9, lsr #20
    1df8:	91180200 	tstls	r8, r0, lsl #4
    1dfc:	00001842 	andeq	r1, r0, r2, asr #16
    1e00:	0182892a 	orreq	r8, r2, sl, lsr #18
    1e04:	31011100 	mrscc	r1, (UNDEF: 17)
    1e08:	2b000013 	blcs	1e5c <__code_start__-0x61a4>
    1e0c:	08030005 	stmdaeq	r3, {r0, r2}
    1e10:	0b3b0b3a 	bleq	ec4b00 <__bss_end__+0xeb8138>
    1e14:	17021349 	strne	r1, [r2, -r9, asr #6]
    1e18:	342c0000 	strtcc	r0, [ip], #-0
    1e1c:	3a0e0300 	bcc	382a24 <__bss_end__+0x37605c>
    1e20:	490b3b0b 	stmdbmi	fp, {r0, r1, r3, r8, r9, fp, ip, sp}
    1e24:	00170213 	andseq	r0, r7, r3, lsl r2
    1e28:	002e2d00 	eoreq	r2, lr, r0, lsl #26
    1e2c:	0e03193f 	mcreq	9, 0, r1, cr3, cr15, {1}
    1e30:	0b3b0b3a 	bleq	ec4b20 <__bss_end__+0xeb8158>
    1e34:	13491927 	movtne	r1, #39207	; 0x9927
    1e38:	06120111 			; <UNDEFINED> instruction: 0x06120111
    1e3c:	42971840 	addsmi	r1, r7, #64, 16	; 0x400000
    1e40:	2e000019 	mcrcs	0, 0, r0, cr0, cr9, {0}
    1e44:	193f002e 	ldmdbne	pc!, {r1, r2, r3, r5}	; <UNPREDICTABLE>
    1e48:	0e6e193c 	mcreq	9, 3, r1, cr14, cr12, {1}
    1e4c:	0b3a0e03 	bleq	e85660 <__bss_end__+0xe78c98>
    1e50:	00000b3b 	andeq	r0, r0, fp, lsr fp
	...

Disassembly of section .debug_loc:

00000000 <.debug_loc>:
       0:	00000000 	andeq	r0, r0, r0
       4:	00000013 	andeq	r0, r0, r3, lsl r0
       8:	13500001 	cmpne	r0, #1
       c:	68000000 	stmdavs	r0, {}	; <UNPREDICTABLE>
      10:	01000001 	tsteq	r0, r1
      14:	01685400 	cmneq	r8, r0, lsl #8
      18:	019c0000 	orrseq	r0, ip, r0
      1c:	00040000 	andeq	r0, r4, r0
      20:	9f5001f3 	svcls	0x005001f3
	...
      30:	00000013 	andeq	r0, r0, r3, lsl r0
      34:	13510001 	cmpne	r1, #1
      38:	68000000 	stmdavs	r0, {}	; <UNPREDICTABLE>
      3c:	01000001 	tsteq	r0, r1
      40:	01685500 	cmneq	r8, r0, lsl #10
      44:	019c0000 	orrseq	r0, ip, r0
      48:	00040000 	andeq	r0, r4, r0
      4c:	9f5101f3 	svcls	0x005101f3
	...
      58:	000001e8 	andeq	r0, r0, r8, ror #3
      5c:	000001f4 	strdeq	r0, [r0], -r4
      60:	9f300002 	svcls	0x00300002
      64:	000001f4 	strdeq	r0, [r0], -r4
      68:	00000238 	andeq	r0, r0, r8, lsr r2
      6c:	00540001 	subseq	r0, r4, r1
      70:	00000000 	andeq	r0, r0, r0
      74:	10000000 	andne	r0, r0, r0
      78:	23000000 	movwcs	r0, #0
      7c:	01000000 	mrseq	r0, (UNDEF: 0)
      80:	00235000 	eoreq	r5, r3, r0
      84:	00440000 	subeq	r0, r4, r0
      88:	00040000 	andeq	r0, r4, r0
      8c:	9f5001f3 	svcls	0x005001f3
      90:	00000044 	andeq	r0, r0, r4, asr #32
      94:	0000005b 	andeq	r0, r0, fp, asr r0
      98:	5b500001 	blpl	14000a4 <__bss_end__+0x13f36dc>
      9c:	7c000000 	stcvc	0, cr0, [r0], {-0}
      a0:	04000000 	streq	r0, [r0], #-0
      a4:	5001f300 	andpl	pc, r1, r0, lsl #6
      a8:	00007c9f 	muleq	r0, pc, ip	; <UNPREDICTABLE>
      ac:	00008000 	andeq	r8, r0, r0
      b0:	50000100 	andpl	r0, r0, r0, lsl #2
      b4:	00000080 	andeq	r0, r0, r0, lsl #1
      b8:	000000a0 	andeq	r0, r0, r0, lsr #1
      bc:	01f30004 	mvnseq	r0, r4
      c0:	00009f50 	andeq	r9, r0, r0, asr pc
      c4:	00000000 	andeq	r0, r0, r0
      c8:	00100000 	andseq	r0, r0, r0
      cc:	00230000 	eoreq	r0, r3, r0
      d0:	00010000 	andeq	r0, r1, r0
      d4:	00002351 	andeq	r2, r0, r1, asr r3
      d8:	00004400 	andeq	r4, r0, r0, lsl #8
      dc:	f3000400 	vshl.u8	d0, d0, d0
      e0:	449f5101 	ldrmi	r5, [pc], #257	; e8 <__code_start__-0x7f18>
      e4:	48000000 	stmdami	r0, {}	; <UNPREDICTABLE>
      e8:	01000000 	mrseq	r0, (UNDEF: 0)
      ec:	00485100 	subeq	r5, r8, r0, lsl #2
      f0:	00a00000 	adceq	r0, r0, r0
      f4:	00040000 	andeq	r0, r4, r0
      f8:	9f5101f3 	svcls	0x005101f3
	...
     104:	00000048 	andeq	r0, r0, r8, asr #32
     108:	0000005b 	andeq	r0, r0, fp, asr r0
     10c:	5b510001 	blpl	1440118 <__bss_end__+0x1433750>
     110:	7c000000 	stcvc	0, cr0, [r0], {-0}
     114:	06000000 	streq	r0, [r0], -r0
     118:	5101f300 	mrspl	pc, SP_irq	; <UNPREDICTABLE>
     11c:	7c9f2544 	cfldr32vc	mvfx2, [pc], {68}	; 0x44
     120:	a0000000 	andge	r0, r0, r0
     124:	01000000 	mrseq	r0, (UNDEF: 0)
     128:	00005100 	andeq	r5, r0, r0, lsl #2
     12c:	00000000 	andeq	r0, r0, r0
     130:	004c0000 	subeq	r0, ip, r0
     134:	005b0000 	subseq	r0, fp, r0
     138:	00010000 	andeq	r0, r1, r0
     13c:	00005b53 	andeq	r5, r0, r3, asr fp
     140:	00007c00 	andeq	r7, r0, r0, lsl #24
     144:	f3000c00 			; <UNDEFINED> instruction: 0xf3000c00
     148:	25445101 	strbcs	r5, [r4, #-257]	; 0x101
     14c:	01f32432 	mvnseq	r2, r2, lsr r4
     150:	7c9f2250 	lfmvc	f2, 4, [pc], {80}	; 0x50
     154:	a0000000 	andge	r0, r0, r0
     158:	01000000 	mrseq	r0, (UNDEF: 0)
     15c:	00005300 	andeq	r5, r0, r0, lsl #6
     160:	00000000 	andeq	r0, r0, r0
     164:	00a00000 	adceq	r0, r0, r0
     168:	00c30000 	sbceq	r0, r3, r0
     16c:	00010000 	andeq	r0, r1, r0
     170:	0000c350 	andeq	ip, r0, r0, asr r3
     174:	00010800 	andeq	r0, r1, r0, lsl #16
     178:	58000100 	stmdapl	r0, {r8}
     17c:	00000108 	andeq	r0, r0, r8, lsl #2
     180:	00000114 	andeq	r0, r0, r4, lsl r1
     184:	14500001 	ldrbne	r0, [r0], #-1
     188:	28000001 	stmdacs	r0, {r0}
     18c:	01000001 	tsteq	r0, r1
     190:	01285800 	teqeq	r8, r0, lsl #16
     194:	01380000 	teqeq	r8, r0
     198:	00040000 	andeq	r0, r4, r0
     19c:	9f5001f3 	svcls	0x005001f3
	...
     1a8:	000000a0 	andeq	r0, r0, r0, lsr #1
     1ac:	000000b4 	strheq	r0, [r0], -r4
     1b0:	b4510001 	ldrblt	r0, [r1], #-1
     1b4:	b8000000 	stmdalt	r0, {}	; <UNPREDICTABLE>
     1b8:	04000000 	streq	r0, [r0], #-0
     1bc:	5101f300 	mrspl	pc, SP_irq	; <UNPREDICTABLE>
     1c0:	0000009f 	muleq	r0, pc, r0	; <UNPREDICTABLE>
     1c4:	00000000 	andeq	r0, r0, r0
     1c8:	0000a000 	andeq	sl, r0, r0
     1cc:	0000c300 	andeq	ip, r0, r0, lsl #6
     1d0:	52000100 	andpl	r0, r0, #0, 2
     1d4:	000000c3 	andeq	r0, r0, r3, asr #1
     1d8:	00000108 	andeq	r0, r0, r8, lsl #2
     1dc:	08550001 	ldmdaeq	r5, {r0}^
     1e0:	14000001 	strne	r0, [r0], #-1
     1e4:	01000001 	tsteq	r0, r1
     1e8:	01145200 	tsteq	r4, r0, lsl #4
     1ec:	01280000 	teqeq	r8, r0
     1f0:	00010000 	andeq	r0, r1, r0
     1f4:	00012855 	andeq	r2, r1, r5, asr r8
     1f8:	00013800 	andeq	r3, r1, r0, lsl #16
     1fc:	f3000400 	vshl.u8	d0, d0, d0
     200:	009f5201 	addseq	r5, pc, r1, lsl #4
     204:	00000000 	andeq	r0, r0, r0
     208:	a0000000 	andge	r0, r0, r0
     20c:	c3000000 	movwgt	r0, #0
     210:	01000000 	mrseq	r0, (UNDEF: 0)
     214:	00c35300 	sbceq	r5, r3, r0, lsl #6
     218:	01080000 	mrseq	r0, (UNDEF: 8)
     21c:	00040000 	andeq	r0, r4, r0
     220:	9f5301f3 	svcls	0x005301f3
     224:	00000108 	andeq	r0, r0, r8, lsl #2
     228:	00000114 	andeq	r0, r0, r4, lsl r1
     22c:	14530001 	ldrbne	r0, [r3], #-1
     230:	38000001 	stmdacc	r0, {r0}
     234:	04000001 	streq	r0, [r0], #-1
     238:	5301f300 	movwpl	pc, #4864	; 0x1300	; <UNPREDICTABLE>
     23c:	0000009f 	muleq	r0, pc, r0	; <UNPREDICTABLE>
     240:	00000000 	andeq	r0, r0, r0
     244:	0000b000 	andeq	fp, r0, r0
     248:	0000b400 	andeq	fp, r0, r0, lsl #8
     24c:	51000100 	mrspl	r0, (UNDEF: 16)
     250:	000000b4 	strheq	r0, [r0], -r4
     254:	00000138 	andeq	r0, r0, r8, lsr r1
     258:	01f30004 	mvnseq	r0, r4
     25c:	00009f51 	andeq	r9, r0, r1, asr pc
     260:	00000000 	andeq	r0, r0, r0
     264:	00e40000 	rsceq	r0, r4, r0
     268:	01080000 	mrseq	r0, (UNDEF: 8)
     26c:	00010000 	andeq	r0, r1, r0
     270:	00011454 	andeq	r1, r1, r4, asr r4
     274:	00012800 	andeq	r2, r1, r0, lsl #16
     278:	54000100 	strpl	r0, [r0], #-256	; 0x100
	...
     284:	000000f0 	strdeq	r0, [r0], -r0	; <UNPREDICTABLE>
     288:	00000108 	andeq	r0, r0, r8, lsl #2
     28c:	00500001 	subseq	r0, r0, r1
     290:	00000000 	andeq	r0, r0, r0
     294:	38000000 	stmdacc	r0, {}	; <UNPREDICTABLE>
     298:	43000001 	movwmi	r0, #1
     29c:	01000001 	tsteq	r0, r1
     2a0:	01435000 	mrseq	r5, (UNDEF: 67)
     2a4:	01480000 	mrseq	r0, (UNDEF: 72)
     2a8:	00040000 	andeq	r0, r4, r0
     2ac:	9f5001f3 	svcls	0x005001f3
	...
     2b8:	00000138 	andeq	r0, r0, r8, lsr r1
     2bc:	00000143 	andeq	r0, r0, r3, asr #2
     2c0:	43510001 	cmpmi	r1, #1
     2c4:	48000001 	stmdami	r0, {r0}
     2c8:	04000001 	streq	r0, [r0], #-1
     2cc:	5101f300 	mrspl	pc, SP_irq	; <UNPREDICTABLE>
     2d0:	0000009f 	muleq	r0, pc, r0	; <UNPREDICTABLE>
     2d4:	00000000 	andeq	r0, r0, r0
     2d8:	00013800 	andeq	r3, r1, r0, lsl #16
     2dc:	00014300 	andeq	r4, r1, r0, lsl #6
     2e0:	52000100 	andpl	r0, r0, #0, 2
     2e4:	00000143 	andeq	r0, r0, r3, asr #2
     2e8:	00000148 	andeq	r0, r0, r8, asr #2
     2ec:	01f30004 	mvnseq	r0, r4
     2f0:	00009f52 	andeq	r9, r0, r2, asr pc
     2f4:	00000000 	andeq	r0, r0, r0
     2f8:	01480000 	mrseq	r0, (UNDEF: 72)
     2fc:	01530000 	cmpeq	r3, r0
     300:	00010000 	andeq	r0, r1, r0
     304:	00015350 	andeq	r5, r1, r0, asr r3
     308:	00015800 	andeq	r5, r1, r0, lsl #16
     30c:	f3000400 	vshl.u8	d0, d0, d0
     310:	009f5001 	addseq	r5, pc, r1
     314:	00000000 	andeq	r0, r0, r0
     318:	48000000 	stmdami	r0, {}	; <UNPREDICTABLE>
     31c:	53000001 	movwpl	r0, #1
     320:	01000001 	tsteq	r0, r1
     324:	01535100 	cmpeq	r3, r0, lsl #2
     328:	01580000 	cmpeq	r8, r0
     32c:	00040000 	andeq	r0, r4, r0
     330:	9f5101f3 	svcls	0x005101f3
	...
     33c:	00000148 	andeq	r0, r0, r8, asr #2
     340:	00000153 	andeq	r0, r0, r3, asr r1
     344:	53520001 	cmppl	r2, #1
     348:	58000001 	stmdapl	r0, {r0}
     34c:	04000001 	streq	r0, [r0], #-1
     350:	5201f300 	andpl	pc, r1, #0, 6
     354:	0000009f 	muleq	r0, pc, r0	; <UNPREDICTABLE>
     358:	00000000 	andeq	r0, r0, r0
     35c:	00015800 	andeq	r5, r1, r0, lsl #16
     360:	00016300 	andeq	r6, r1, r0, lsl #6
     364:	50000100 	andpl	r0, r0, r0, lsl #2
     368:	00000163 	andeq	r0, r0, r3, ror #2
     36c:	00000168 	andeq	r0, r0, r8, ror #2
     370:	01f30004 	mvnseq	r0, r4
     374:	00009f50 	andeq	r9, r0, r0, asr pc
     378:	00000000 	andeq	r0, r0, r0
     37c:	01580000 	cmpeq	r8, r0
     380:	01630000 	cmneq	r3, r0
     384:	00010000 	andeq	r0, r1, r0
     388:	00016351 	andeq	r6, r1, r1, asr r3
     38c:	00016800 	andeq	r6, r1, r0, lsl #16
     390:	f3000400 	vshl.u8	d0, d0, d0
     394:	009f5101 	addseq	r5, pc, r1, lsl #2
     398:	00000000 	andeq	r0, r0, r0
     39c:	58000000 	stmdapl	r0, {}	; <UNPREDICTABLE>
     3a0:	63000001 	movwvs	r0, #1
     3a4:	01000001 	tsteq	r0, r1
     3a8:	01635200 	cmneq	r3, r0, lsl #4
     3ac:	01680000 	cmneq	r8, r0
     3b0:	00040000 	andeq	r0, r4, r0
     3b4:	9f5201f3 	svcls	0x005201f3
	...
     3c0:	00000168 	andeq	r0, r0, r8, ror #2
     3c4:	0000017b 	andeq	r0, r0, fp, ror r1
     3c8:	7b500001 	blvc	14003d4 <__bss_end__+0x13f3a0c>
     3cc:	9c000001 	stcls	0, cr0, [r0], {1}
     3d0:	04000001 	streq	r0, [r0], #-1
     3d4:	5001f300 	andpl	pc, r1, r0, lsl #6
     3d8:	00019c9f 	muleq	r1, pc, ip	; <UNPREDICTABLE>
     3dc:	0001bf00 	andeq	fp, r1, r0, lsl #30
     3e0:	50000100 	andpl	r0, r0, r0, lsl #2
     3e4:	000001bf 			; <UNDEFINED> instruction: 0x000001bf
     3e8:	000001e0 	andeq	r0, r0, r0, ror #3
     3ec:	01f30004 	mvnseq	r0, r4
     3f0:	01e09f50 	mvneq	r9, r0, asr pc
     3f4:	02000000 	andeq	r0, r0, #0
     3f8:	00010000 	andeq	r0, r1, r0
     3fc:	00000050 	andeq	r0, r0, r0, asr r0
     400:	00000000 	andeq	r0, r0, r0
     404:	00016800 	andeq	r6, r1, r0, lsl #16
     408:	00017b00 	andeq	r7, r1, r0, lsl #22
     40c:	51000100 	mrspl	r0, (UNDEF: 16)
     410:	0000017b 	andeq	r0, r0, fp, ror r1
     414:	0000019c 	muleq	r0, ip, r1
     418:	01f30004 	mvnseq	r0, r4
     41c:	019c9f51 	orrseq	r9, ip, r1, asr pc
     420:	01bf0000 			; <UNDEFINED> instruction: 0x01bf0000
     424:	00010000 	andeq	r0, r1, r0
     428:	0001bf51 	andeq	fp, r1, r1, asr pc
     42c:	0001e000 	andeq	lr, r1, r0
     430:	f3000400 	vshl.u8	d0, d0, d0
     434:	e09f5101 	adds	r5, pc, r1, lsl #2
     438:	00000001 	andeq	r0, r0, r1
     43c:	01000002 	tsteq	r0, r2
     440:	00005100 	andeq	r5, r0, r0, lsl #2
     444:	00000000 	andeq	r0, r0, r0
     448:	02000000 	andeq	r0, r0, #0
     44c:	021f0000 	andseq	r0, pc, #0
     450:	00010000 	andeq	r0, r1, r0
     454:	00021f50 	andeq	r1, r2, r0, asr pc
     458:	00024000 	andeq	r4, r2, r0
     45c:	54000100 	strpl	r0, [r0], #-256	; 0x100
     460:	00000240 	andeq	r0, r0, r0, asr #4
     464:	0000024b 	andeq	r0, r0, fp, asr #4
     468:	4b500001 	blmi	1400474 <__bss_end__+0x13f3aac>
     46c:	6c000002 	stcvs	0, cr0, [r0], {2}
     470:	01000002 	tsteq	r0, r2
     474:	026c5400 	rsbeq	r5, ip, #0, 8
     478:	02770000 	rsbseq	r0, r7, #0
     47c:	00010000 	andeq	r0, r1, r0
     480:	00027750 	andeq	r7, r2, r0, asr r7
     484:	00029800 	andeq	r9, r2, r0, lsl #16
     488:	54000100 	strpl	r0, [r0], #-256	; 0x100
     48c:	00000298 	muleq	r0, r8, r2
     490:	000002b3 			; <UNDEFINED> instruction: 0x000002b3
     494:	b3500001 	cmplt	r0, #1
     498:	d4000002 	strle	r0, [r0], #-2
     49c:	01000002 	tsteq	r0, r2
     4a0:	02d45400 	sbcseq	r5, r4, #0, 8
     4a4:	02d70000 	sbcseq	r0, r7, #0
     4a8:	00010000 	andeq	r0, r1, r0
     4ac:	0002d750 	andeq	sp, r2, r0, asr r7
     4b0:	00036800 	andeq	r6, r3, r0, lsl #16
     4b4:	54000100 	strpl	r0, [r0], #-256	; 0x100
     4b8:	00000368 	andeq	r0, r0, r8, ror #6
     4bc:	00000394 	muleq	r0, r4, r3
     4c0:	01f30004 	mvnseq	r0, r4
     4c4:	00009f50 	andeq	r9, r0, r0, asr pc
     4c8:	00000000 	andeq	r0, r0, r0
     4cc:	02000000 	andeq	r0, r0, #0
     4d0:	021f0000 	andseq	r0, pc, #0
     4d4:	00010000 	andeq	r0, r1, r0
     4d8:	00021f51 	andeq	r1, r2, r1, asr pc
     4dc:	00024000 	andeq	r4, r2, r0
     4e0:	f3000400 	vshl.u8	d0, d0, d0
     4e4:	409f5101 	addsmi	r5, pc, r1, lsl #2
     4e8:	4b000002 	blmi	4f8 <__code_start__-0x7b08>
     4ec:	01000002 	tsteq	r0, r2
     4f0:	024b5100 	subeq	r5, fp, #0, 2
     4f4:	026c0000 	rsbeq	r0, ip, #0
     4f8:	00040000 	andeq	r0, r4, r0
     4fc:	9f5101f3 	svcls	0x005101f3
     500:	0000026c 	andeq	r0, r0, ip, ror #4
     504:	00000277 	andeq	r0, r0, r7, ror r2
     508:	77510001 	ldrbvc	r0, [r1, -r1]
     50c:	98000002 	stmdals	r0, {r1}
     510:	04000002 	streq	r0, [r0], #-2
     514:	5101f300 	mrspl	pc, SP_irq	; <UNPREDICTABLE>
     518:	0002989f 	muleq	r2, pc, r8	; <UNPREDICTABLE>
     51c:	0002b300 	andeq	fp, r2, r0, lsl #6
     520:	51000100 	mrspl	r0, (UNDEF: 16)
     524:	000002b3 			; <UNDEFINED> instruction: 0x000002b3
     528:	000002d4 	ldrdeq	r0, [r0], -r4
     52c:	01f30004 	mvnseq	r0, r4
     530:	02d49f51 	sbcseq	r9, r4, #324	; 0x144
     534:	02d70000 	sbcseq	r0, r7, #0
     538:	00010000 	andeq	r0, r1, r0
     53c:	0002d751 	andeq	sp, r2, r1, asr r7
     540:	00039400 	andeq	r9, r3, r0, lsl #8
     544:	f3000400 	vshl.u8	d0, d0, d0
     548:	009f5101 	addseq	r5, pc, r1, lsl #2
	...
     554:	1f000002 	svcne	0x00000002
     558:	01000002 	tsteq	r0, r2
     55c:	021f5200 	andseq	r5, pc, #0, 4
     560:	02400000 	subeq	r0, r0, #0
     564:	00010000 	andeq	r0, r1, r0
     568:	00024059 	andeq	r4, r2, r9, asr r0
     56c:	00024b00 	andeq	r4, r2, r0, lsl #22
     570:	52000100 	andpl	r0, r0, #0, 2
     574:	0000024b 	andeq	r0, r0, fp, asr #4
     578:	0000026c 	andeq	r0, r0, ip, ror #4
     57c:	6c590001 	mrrcvs	0, 0, r0, r9, cr1
     580:	77000002 	strvc	r0, [r0, -r2]
     584:	01000002 	tsteq	r0, r2
     588:	02775200 	rsbseq	r5, r7, #0, 4
     58c:	02980000 	addseq	r0, r8, #0
     590:	00010000 	andeq	r0, r1, r0
     594:	00029859 	andeq	r9, r2, r9, asr r8
     598:	0002b300 	andeq	fp, r2, r0, lsl #6
     59c:	52000100 	andpl	r0, r0, #0, 2
     5a0:	000002b3 			; <UNDEFINED> instruction: 0x000002b3
     5a4:	000002d4 	ldrdeq	r0, [r0], -r4
     5a8:	d4590001 	ldrble	r0, [r9], #-1
     5ac:	d7000002 	strle	r0, [r0, -r2]
     5b0:	01000002 	tsteq	r0, r2
     5b4:	02d75200 	sbcseq	r5, r7, #0, 4
     5b8:	03680000 	cmneq	r8, #0
     5bc:	00010000 	andeq	r0, r1, r0
     5c0:	00036859 	andeq	r6, r3, r9, asr r8
     5c4:	00039400 	andeq	r9, r3, r0, lsl #8
     5c8:	f3000400 	vshl.u8	d0, d0, d0
     5cc:	009f5201 	addseq	r5, pc, r1, lsl #4
	...
     5d8:	1f000002 	svcne	0x00000002
     5dc:	01000002 	tsteq	r0, r2
     5e0:	021f5300 	andseq	r5, pc, #0, 6
     5e4:	02400000 	subeq	r0, r0, #0
     5e8:	00010000 	andeq	r0, r1, r0
     5ec:	00024058 	andeq	r4, r2, r8, asr r0
     5f0:	00024b00 	andeq	r4, r2, r0, lsl #22
     5f4:	53000100 	movwpl	r0, #256	; 0x100
     5f8:	0000024b 	andeq	r0, r0, fp, asr #4
     5fc:	0000026c 	andeq	r0, r0, ip, ror #4
     600:	6c580001 	mrrcvs	0, 0, r0, r8, cr1
     604:	77000002 	strvc	r0, [r0, -r2]
     608:	01000002 	tsteq	r0, r2
     60c:	02775300 	rsbseq	r5, r7, #0, 6
     610:	02980000 	addseq	r0, r8, #0
     614:	00010000 	andeq	r0, r1, r0
     618:	00029858 	andeq	r9, r2, r8, asr r8
     61c:	0002a800 	andeq	sl, r2, r0, lsl #16
     620:	53000100 	movwpl	r0, #256	; 0x100
     624:	000002a8 	andeq	r0, r0, r8, lsr #5
     628:	00000300 	andeq	r0, r0, r0, lsl #6
     62c:	00580001 	subseq	r0, r8, r1
     630:	94000003 	strls	r0, [r0], #-3
     634:	04000003 	streq	r0, [r0], #-3
     638:	5301f300 	movwpl	pc, #4864	; 0x1300	; <UNPREDICTABLE>
     63c:	0000009f 	muleq	r0, pc, r0	; <UNPREDICTABLE>
     640:	00000000 	andeq	r0, r0, r0
     644:	00029c00 	andeq	r9, r2, r0, lsl #24
     648:	00036800 	andeq	r6, r3, r0, lsl #16
     64c:	56000100 	strpl	r0, [r0], -r0, lsl #2
     650:	00000368 	andeq	r0, r0, r8, ror #6
     654:	00000394 	muleq	r0, r4, r3
     658:	01f30006 	mvnseq	r0, r6
     65c:	9f254451 	svcls	0x00254451
	...
     668:	000002a4 	andeq	r0, r0, r4, lsr #5
     66c:	00000368 	andeq	r0, r0, r8, ror #6
     670:	68550001 	ldmdavs	r5, {r0}^
     674:	94000003 	strls	r0, [r0], #-3
     678:	01000003 	tsteq	r0, r3
     67c:	00005000 	andeq	r5, r0, r0
     680:	00000000 	andeq	r0, r0, r0
     684:	03940000 	orrseq	r0, r4, #0
     688:	03bb0000 			; <UNDEFINED> instruction: 0x03bb0000
     68c:	00010000 	andeq	r0, r1, r0
     690:	0003bb50 	andeq	fp, r3, r0, asr fp
     694:	0003dc00 	andeq	sp, r3, r0, lsl #24
     698:	59000100 	stmdbpl	r0, {r8}
     69c:	000003dc 	ldrdeq	r0, [r0], -ip
     6a0:	000003e7 	andeq	r0, r0, r7, ror #7
     6a4:	e7500001 	ldrb	r0, [r0, -r1]
     6a8:	08000003 	stmdaeq	r0, {r0, r1}
     6ac:	01000004 	tsteq	r0, r4
     6b0:	04085900 	streq	r5, [r8], #-2304	; 0x900
     6b4:	04130000 	ldreq	r0, [r3], #-0
     6b8:	00010000 	andeq	r0, r1, r0
     6bc:	00041350 	andeq	r1, r4, r0, asr r3
     6c0:	00045800 	andeq	r5, r4, r0, lsl #16
     6c4:	59000100 	stmdbpl	r0, {r8}
     6c8:	00000458 	andeq	r0, r0, r8, asr r4
     6cc:	0000045c 	andeq	r0, r0, ip, asr r4
     6d0:	5c500001 	mrrcpl	0, 0, r0, r0, cr1	; <UNPREDICTABLE>
     6d4:	6c000004 	stcvs	0, cr0, [r0], {4}
     6d8:	01000004 	tsteq	r0, r4
     6dc:	046c5900 	strbteq	r5, [ip], #-2304	; 0x900
     6e0:	04840000 	streq	r0, [r4], #0
     6e4:	00040000 	andeq	r0, r4, r0
     6e8:	9f5001f3 	svcls	0x005001f3
	...
     6f4:	00000394 	muleq	r0, r4, r3
     6f8:	000003bb 			; <UNDEFINED> instruction: 0x000003bb
     6fc:	bb510001 	bllt	1440708 <__bss_end__+0x1433d40>
     700:	dc000003 	stcle	0, cr0, [r0], {3}
     704:	01000003 	tsteq	r0, r3
     708:	03dc5500 	bicseq	r5, ip, #0, 10
     70c:	03e70000 	mvneq	r0, #0
     710:	00010000 	andeq	r0, r1, r0
     714:	0003e751 	andeq	lr, r3, r1, asr r7
     718:	00040800 	andeq	r0, r4, r0, lsl #16
     71c:	55000100 	strpl	r0, [r0, #-256]	; 0x100
     720:	00000408 	andeq	r0, r0, r8, lsl #8
     724:	00000413 	andeq	r0, r0, r3, lsl r4
     728:	13510001 	cmpne	r1, #1
     72c:	58000004 	stmdapl	r0, {r2}
     730:	01000004 	tsteq	r0, r4
     734:	04585500 	ldrbeq	r5, [r8], #-1280	; 0x500
     738:	045c0000 	ldrbeq	r0, [ip], #-0
     73c:	00010000 	andeq	r0, r1, r0
     740:	00045c51 	andeq	r5, r4, r1, asr ip
     744:	00046c00 	andeq	r6, r4, r0, lsl #24
     748:	55000100 	strpl	r0, [r0, #-256]	; 0x100
	...
     754:	00000394 	muleq	r0, r4, r3
     758:	000003bb 			; <UNDEFINED> instruction: 0x000003bb
     75c:	bb520001 	bllt	1480768 <__bss_end__+0x1473da0>
     760:	dc000003 	stcle	0, cr0, [r0], {3}
     764:	01000003 	tsteq	r0, r3
     768:	03dc5600 	bicseq	r5, ip, #0, 12
     76c:	03e70000 	mvneq	r0, #0
     770:	00010000 	andeq	r0, r1, r0
     774:	0003e752 	andeq	lr, r3, r2, asr r7
     778:	00040800 	andeq	r0, r4, r0, lsl #16
     77c:	56000100 	strpl	r0, [r0], -r0, lsl #2
     780:	00000408 	andeq	r0, r0, r8, lsl #8
     784:	00000413 	andeq	r0, r0, r3, lsl r4
     788:	13520001 	cmpne	r2, #1
     78c:	58000004 	stmdapl	r0, {r2}
     790:	01000004 	tsteq	r0, r4
     794:	04585600 	ldrbeq	r5, [r8], #-1536	; 0x600
     798:	045c0000 	ldrbeq	r0, [ip], #-0
     79c:	00010000 	andeq	r0, r1, r0
     7a0:	00045c52 	andeq	r5, r4, r2, asr ip
     7a4:	00046c00 	andeq	r6, r4, r0, lsl #24
     7a8:	56000100 	strpl	r0, [r0], -r0, lsl #2
	...
     7b4:	00000394 	muleq	r0, r4, r3
     7b8:	000003bb 			; <UNDEFINED> instruction: 0x000003bb
     7bc:	bb530001 	bllt	14c07c8 <__bss_end__+0x14b3e00>
     7c0:	dc000003 	stcle	0, cr0, [r0], {3}
     7c4:	01000003 	tsteq	r0, r3
     7c8:	03dc5700 	bicseq	r5, ip, #0, 14
     7cc:	03e70000 	mvneq	r0, #0
     7d0:	00010000 	andeq	r0, r1, r0
     7d4:	0003e753 	andeq	lr, r3, r3, asr r7
     7d8:	00040800 	andeq	r0, r4, r0, lsl #16
     7dc:	57000100 	strpl	r0, [r0, -r0, lsl #2]
     7e0:	00000408 	andeq	r0, r0, r8, lsl #8
     7e4:	00000413 	andeq	r0, r0, r3, lsl r4
     7e8:	13530001 	cmpne	r3, #1
     7ec:	58000004 	stmdapl	r0, {r2}
     7f0:	01000004 	tsteq	r0, r4
     7f4:	04585700 	ldrbeq	r5, [r8], #-1792	; 0x700
     7f8:	045c0000 	ldrbeq	r0, [ip], #-0
     7fc:	00010000 	andeq	r0, r1, r0
     800:	00045c53 	andeq	r5, r4, r3, asr ip
     804:	00046c00 	andeq	r6, r4, r0, lsl #24
     808:	57000100 	strpl	r0, [r0, -r0, lsl #2]
     80c:	0000046c 	andeq	r0, r0, ip, ror #8
     810:	00000484 	andeq	r0, r0, r4, lsl #9
     814:	01f30004 	mvnseq	r0, r4
     818:	00009f53 	andeq	r9, r0, r3, asr pc
     81c:	00000000 	andeq	r0, r0, r0
     820:	04340000 	ldrteq	r0, [r4], #-0
     824:	04580000 	ldrbeq	r0, [r8], #-0
     828:	00010000 	andeq	r0, r1, r0
     82c:	00045c54 	andeq	r5, r4, r4, asr ip
     830:	00046c00 	andeq	r6, r4, r0, lsl #24
     834:	54000100 	strpl	r0, [r0], #-256	; 0x100
	...
     840:	00000484 	andeq	r0, r0, r4, lsl #9
     844:	0000049b 	muleq	r0, fp, r4
     848:	9b500001 	blls	1400854 <__bss_end__+0x13f3e8c>
     84c:	bc000004 	stclt	0, cr0, [r0], {4}
     850:	01000004 	tsteq	r0, r4
     854:	04bc5400 	ldrteq	r5, [ip], #1024	; 0x400
     858:	04c70000 	strbeq	r0, [r7], #0
     85c:	00010000 	andeq	r0, r1, r0
     860:	0004c750 	andeq	ip, r4, r0, asr r7
     864:	0004e800 	andeq	lr, r4, r0, lsl #16
     868:	54000100 	strpl	r0, [r0], #-256	; 0x100
     86c:	000004e8 	andeq	r0, r0, r8, ror #9
     870:	000004f3 	strdeq	r0, [r0], -r3
     874:	f3500001 	vhadd.u16	d16, d0, d1
     878:	00000004 	andeq	r0, r0, r4
     87c:	01000005 	tsteq	r0, r5
     880:	05005400 	streq	r5, [r0, #-1024]	; 0x400
     884:	05180000 	ldreq	r0, [r8, #-0]
     888:	00010000 	andeq	r0, r1, r0
     88c:	00000050 	andeq	r0, r0, r0, asr r0
     890:	00000000 	andeq	r0, r0, r0
     894:	00048400 	andeq	r8, r4, r0, lsl #8
     898:	00049b00 	andeq	r9, r4, r0, lsl #22
     89c:	51000100 	mrspl	r0, (UNDEF: 16)
     8a0:	0000049b 	muleq	r0, fp, r4
     8a4:	000004bc 			; <UNDEFINED> instruction: 0x000004bc
     8a8:	01f30004 	mvnseq	r0, r4
     8ac:	04bc9f51 	ldrteq	r9, [ip], #3921	; 0xf51
     8b0:	04c70000 	strbeq	r0, [r7], #0
     8b4:	00010000 	andeq	r0, r1, r0
     8b8:	0004c751 	andeq	ip, r4, r1, asr r7
     8bc:	0004e800 	andeq	lr, r4, r0, lsl #16
     8c0:	f3000400 	vshl.u8	d0, d0, d0
     8c4:	e89f5101 	ldm	pc, {r0, r8, ip, lr}	; <UNPREDICTABLE>
     8c8:	ec000004 	stc	0, cr0, [r0], {4}
     8cc:	01000004 	tsteq	r0, r4
     8d0:	04ec5100 	strbteq	r5, [ip], #256	; 0x100
     8d4:	05180000 	ldreq	r0, [r8, #-0]
     8d8:	00040000 	andeq	r0, r4, r0
     8dc:	9f5101f3 	svcls	0x005101f3
	...
     8e8:	000004bc 			; <UNDEFINED> instruction: 0x000004bc
     8ec:	000004c7 	andeq	r0, r0, r7, asr #9
     8f0:	c7500001 	ldrbgt	r0, [r0, -r1]
     8f4:	e8000004 	stmda	r0, {r2}
     8f8:	01000004 	tsteq	r0, r4
     8fc:	04e85400 	strbteq	r5, [r8], #1024	; 0x400
     900:	04f30000 	ldrbteq	r0, [r3], #0
     904:	00010000 	andeq	r0, r1, r0
     908:	0004f350 	andeq	pc, r4, r0, asr r3	; <UNPREDICTABLE>
     90c:	00050000 	andeq	r0, r5, r0
     910:	54000100 	strpl	r0, [r0], #-256	; 0x100
     914:	00000500 	andeq	r0, r0, r0, lsl #10
     918:	00000518 	andeq	r0, r0, r8, lsl r5
     91c:	00500001 	subseq	r0, r0, r1
     920:	00000000 	andeq	r0, r0, r0
     924:	18000000 	stmdane	r0, {}	; <UNPREDICTABLE>
     928:	2b000005 	blcs	944 <__code_start__-0x76bc>
     92c:	01000005 	tsteq	r0, r5
     930:	052b5000 	streq	r5, [fp, #-0]!
     934:	054c0000 	strbeq	r0, [ip, #-0]
     938:	00040000 	andeq	r0, r4, r0
     93c:	9f5001f3 	svcls	0x005001f3
     940:	0000054c 	andeq	r0, r0, ip, asr #10
     944:	00000553 	andeq	r0, r0, r3, asr r5
     948:	53500001 	cmppl	r0, #1
     94c:	a8000005 	stmdage	r0, {r0, r2}
     950:	04000005 	streq	r0, [r0], #-5
     954:	5001f300 	andpl	pc, r1, r0, lsl #6
     958:	0000009f 	muleq	r0, pc, r0	; <UNPREDICTABLE>
     95c:	00000000 	andeq	r0, r0, r0
     960:	00055400 	andeq	r5, r5, r0, lsl #8
     964:	00055f00 	andeq	r5, r5, r0, lsl #30
     968:	50000100 	andpl	r0, r0, r0, lsl #2
     96c:	00000580 	andeq	r0, r0, r0, lsl #11
     970:	00000587 	andeq	r0, r0, r7, lsl #11
     974:	00500001 	subseq	r0, r0, r1
     978:	00000000 	andeq	r0, r0, r0
     97c:	c4000000 	strgt	r0, [r0], #-0
     980:	cf000005 	svcgt	0x00000005
     984:	01000005 	tsteq	r0, r5
     988:	05f05000 	ldrbeq	r5, [r0, #0]!
     98c:	05fb0000 	ldrbeq	r0, [fp, #0]!
     990:	00010000 	andeq	r0, r1, r0
     994:	00061c50 	andeq	r1, r6, r0, asr ip
     998:	00063800 	andeq	r3, r6, r0, lsl #16
     99c:	50000100 	andpl	r0, r0, r0, lsl #2
	...
     9a8:	00000644 	andeq	r0, r0, r4, asr #12
     9ac:	00000657 	andeq	r0, r0, r7, asr r6
     9b0:	78500001 	ldmdavc	r0, {r0}^
     9b4:	83000006 	movwhi	r0, #6
     9b8:	01000006 	tsteq	r0, r6
     9bc:	06a45000 	strteq	r5, [r4], r0
     9c0:	06a70000 	strteq	r0, [r7], r0
     9c4:	00010000 	andeq	r0, r1, r0
     9c8:	00000050 	andeq	r0, r0, r0, asr r0
     9cc:	00000000 	andeq	r0, r0, r0
     9d0:	0006d000 	andeq	sp, r6, r0
     9d4:	0006db00 	andeq	sp, r6, r0, lsl #22
     9d8:	50000100 	andpl	r0, r0, r0, lsl #2
     9dc:	000006fc 	strdeq	r0, [r0], -ip
     9e0:	00000700 	andeq	r0, r0, r0, lsl #14
     9e4:	00500001 	subseq	r0, r0, r1
     9e8:	00000000 	andeq	r0, r0, r0
     9ec:	1c000000 	stcne	0, cr0, [r0], {-0}
     9f0:	2f000007 	svccs	0x00000007
     9f4:	01000007 	tsteq	r0, r7
     9f8:	07505000 	ldrbeq	r5, [r0, -r0]
     9fc:	07530000 	ldrbeq	r0, [r3, -r0]
     a00:	00010000 	andeq	r0, r1, r0
     a04:	00000050 	andeq	r0, r0, r0, asr r0
     a08:	00000000 	andeq	r0, r0, r0
     a0c:	00077800 	andeq	r7, r7, r0, lsl #16
     a10:	00078300 	andeq	r8, r7, r0, lsl #6
     a14:	50000100 	andpl	r0, r0, r0, lsl #2
     a18:	000007a4 	andeq	r0, r0, r4, lsr #15
     a1c:	000007a8 	andeq	r0, r0, r8, lsr #15
     a20:	00500001 	subseq	r0, r0, r1
     a24:	00000000 	andeq	r0, r0, r0
     a28:	cc000000 	stcgt	0, cr0, [r0], {-0}
     a2c:	d3000007 	movwle	r0, #7
     a30:	01000007 	tsteq	r0, r7
     a34:	07d35000 	ldrbeq	r5, [r3, r0]
     a38:	07d80000 	ldrbeq	r0, [r8, r0]
     a3c:	00040000 	andeq	r0, r4, r0
     a40:	9f5001f3 	svcls	0x005001f3
	...
     a4c:	000007d8 	ldrdeq	r0, [r0], -r8
     a50:	000007eb 	andeq	r0, r0, fp, ror #15
     a54:	eb500001 	bl	1400a60 <__bss_end__+0x13f4098>
     a58:	0c000007 	stceq	0, cr0, [r0], {7}
     a5c:	04000008 	streq	r0, [r0], #-8
     a60:	5001f300 	andpl	pc, r1, r0, lsl #6
     a64:	00080c9f 	muleq	r8, pc, ip	; <UNPREDICTABLE>
     a68:	00081700 	andeq	r1, r8, r0, lsl #14
     a6c:	50000100 	andpl	r0, r0, r0, lsl #2
     a70:	00000817 	andeq	r0, r0, r7, lsl r8
     a74:	00000838 	andeq	r0, r0, r8, lsr r8
     a78:	01f30004 	mvnseq	r0, r4
     a7c:	08389f50 	ldmdaeq	r8!, {r4, r6, r8, r9, sl, fp, ip, pc}
     a80:	08470000 	stmdaeq	r7, {}^	; <UNPREDICTABLE>
     a84:	00010000 	andeq	r0, r1, r0
     a88:	00084750 	andeq	r4, r8, r0, asr r7
     a8c:	00086800 	andeq	r6, r8, r0, lsl #16
     a90:	f3000400 	vshl.u8	d0, d0, d0
     a94:	689f5001 	ldmvs	pc, {r0, ip, lr}	; <UNPREDICTABLE>
     a98:	6c000008 	stcvs	0, cr0, [r0], {8}
     a9c:	01000008 	tsteq	r0, r8
     aa0:	086c5000 	stmdaeq	ip!, {ip, lr}^
     aa4:	08940000 	ldmeq	r4, {}	; <UNPREDICTABLE>
     aa8:	00040000 	andeq	r0, r4, r0
     aac:	9f5001f3 	svcls	0x005001f3
	...
     ab8:	000007d8 	ldrdeq	r0, [r0], -r8
     abc:	000007eb 	andeq	r0, r0, fp, ror #15
     ac0:	eb510001 	bl	1440acc <__bss_end__+0x1434104>
     ac4:	0c000007 	stceq	0, cr0, [r0], {7}
     ac8:	04000008 	streq	r0, [r0], #-8
     acc:	5101f300 	mrspl	pc, SP_irq	; <UNPREDICTABLE>
     ad0:	00080c9f 	muleq	r8, pc, ip	; <UNPREDICTABLE>
     ad4:	00081700 	andeq	r1, r8, r0, lsl #14
     ad8:	51000100 	mrspl	r0, (UNDEF: 16)
     adc:	00000817 	andeq	r0, r0, r7, lsl r8
     ae0:	00000838 	andeq	r0, r0, r8, lsr r8
     ae4:	01f30004 	mvnseq	r0, r4
     ae8:	08389f51 	ldmdaeq	r8!, {r0, r4, r6, r8, r9, sl, fp, ip, pc}
     aec:	08470000 	stmdaeq	r7, {}^	; <UNPREDICTABLE>
     af0:	00010000 	andeq	r0, r1, r0
     af4:	00084751 	andeq	r4, r8, r1, asr r7
     af8:	00086800 	andeq	r6, r8, r0, lsl #16
     afc:	f3000400 	vshl.u8	d0, d0, d0
     b00:	689f5101 	ldmvs	pc, {r0, r8, ip, lr}	; <UNPREDICTABLE>
     b04:	70000008 	andvc	r0, r0, r8
     b08:	01000008 	tsteq	r0, r8
     b0c:	08705100 	ldmdaeq	r0!, {r8, ip, lr}^
     b10:	08730000 	ldmdaeq	r3!, {}^	; <UNPREDICTABLE>
     b14:	00030000 	andeq	r0, r3, r0
     b18:	739f0173 	orrsvc	r0, pc, #-1073741796	; 0xc000001c
     b1c:	94000008 	strls	r0, [r0], #-8
     b20:	04000008 	streq	r0, [r0], #-8
     b24:	5101f300 	mrspl	pc, SP_irq	; <UNPREDICTABLE>
     b28:	0000009f 	muleq	r0, pc, r0	; <UNPREDICTABLE>
     b2c:	00000000 	andeq	r0, r0, r0
     b30:	0007d800 	andeq	sp, r7, r0, lsl #16
     b34:	0007eb00 	andeq	lr, r7, r0, lsl #22
     b38:	52000100 	andpl	r0, r0, #0, 2
     b3c:	000007eb 	andeq	r0, r0, fp, ror #15
     b40:	0000080c 	andeq	r0, r0, ip, lsl #16
     b44:	01f30004 	mvnseq	r0, r4
     b48:	080c9f52 	stmdaeq	ip, {r1, r4, r6, r8, r9, sl, fp, ip, pc}
     b4c:	08170000 	ldmdaeq	r7, {}	; <UNPREDICTABLE>
     b50:	00010000 	andeq	r0, r1, r0
     b54:	00081752 	andeq	r1, r8, r2, asr r7
     b58:	00083800 	andeq	r3, r8, r0, lsl #16
     b5c:	f3000400 	vshl.u8	d0, d0, d0
     b60:	389f5201 	ldmcc	pc, {r0, r9, ip, lr}	; <UNPREDICTABLE>
     b64:	47000008 	strmi	r0, [r0, -r8]
     b68:	01000008 	tsteq	r0, r8
     b6c:	08475200 	stmdaeq	r7, {r9, ip, lr}^
     b70:	08680000 	stmdaeq	r8!, {}^	; <UNPREDICTABLE>
     b74:	00040000 	andeq	r0, r4, r0
     b78:	9f5201f3 	svcls	0x005201f3
     b7c:	00000868 	andeq	r0, r0, r8, ror #16
     b80:	00000873 	andeq	r0, r0, r3, ror r8
     b84:	73520001 	cmpvc	r2, #1
     b88:	94000008 	strls	r0, [r0], #-8
     b8c:	04000008 	streq	r0, [r0], #-8
     b90:	5201f300 	andpl	pc, r1, #0, 6
     b94:	0000009f 	muleq	r0, pc, r0	; <UNPREDICTABLE>
     b98:	00000000 	andeq	r0, r0, r0
     b9c:	00089400 	andeq	r9, r8, r0, lsl #8
     ba0:	0008a300 	andeq	sl, r8, r0, lsl #6
     ba4:	50000100 	andpl	r0, r0, r0, lsl #2
     ba8:	000008a3 	andeq	r0, r0, r3, lsr #17
     bac:	000008dc 	ldrdeq	r0, [r0], -ip
     bb0:	00540001 	subseq	r0, r4, r1
	...
     bbc:	10000000 	andne	r0, r0, r0
     bc0:	01000000 	mrseq	r0, (UNDEF: 0)
     bc4:	00105000 	andseq	r5, r0, r0
     bc8:	00340000 	eorseq	r0, r4, r0
     bcc:	00010000 	andeq	r0, r1, r0
     bd0:	00000055 	andeq	r0, r0, r5, asr r0
	...
     bdc:	00001400 	andeq	r1, r0, r0, lsl #8
     be0:	51000100 	mrspl	r0, (UNDEF: 16)
     be4:	00000014 	andeq	r0, r0, r4, lsl r0
     be8:	00000017 	andeq	r0, r0, r7, lsl r0
     bec:	17500001 	ldrbne	r0, [r0, -r1]
     bf0:	34000000 	strcc	r0, [r0], #-0
     bf4:	04000000 	streq	r0, [r0], #-0
     bf8:	5101f300 	mrspl	pc, SP_irq	; <UNPREDICTABLE>
     bfc:	0000009f 	muleq	r0, pc, r0	; <UNPREDICTABLE>
	...
     c08:	00001700 	andeq	r1, r0, r0, lsl #14
     c0c:	52000100 	andpl	r0, r0, #0, 2
     c10:	00000017 	andeq	r0, r0, r7, lsl r0
     c14:	00000034 	andeq	r0, r0, r4, lsr r0
     c18:	00540001 	subseq	r0, r4, r1
     c1c:	00000000 	andeq	r0, r0, r0
     c20:	64000000 	strvs	r0, [r0], #-0
     c24:	83000000 	movwhi	r0, #0
     c28:	01000000 	mrseq	r0, (UNDEF: 0)
     c2c:	00835000 	addeq	r5, r3, r0
     c30:	00a40000 	adceq	r0, r4, r0
     c34:	00040000 	andeq	r0, r4, r0
     c38:	9f5001f3 	svcls	0x005001f3
     c3c:	000000a4 	andeq	r0, r0, r4, lsr #1
     c40:	000000b3 	strheq	r0, [r0], -r3
     c44:	b3500001 	cmplt	r0, #1
     c48:	d4000000 	strle	r0, [r0], #-0
     c4c:	04000000 	streq	r0, [r0], #-0
     c50:	5001f300 	andpl	pc, r1, r0, lsl #6
     c54:	0000d49f 	muleq	r0, pc, r4	; <UNPREDICTABLE>
     c58:	0000e300 	andeq	lr, r0, r0, lsl #6
     c5c:	50000100 	andpl	r0, r0, r0, lsl #2
     c60:	000000e3 	andeq	r0, r0, r3, ror #1
     c64:	00000104 	andeq	r0, r0, r4, lsl #2
     c68:	01f30004 	mvnseq	r0, r4
     c6c:	01049f50 	tsteq	r4, r0, asr pc
     c70:	01130000 	tsteq	r3, r0
     c74:	00010000 	andeq	r0, r1, r0
     c78:	00011350 	andeq	r1, r1, r0, asr r3
     c7c:	00013400 	andeq	r3, r1, r0, lsl #8
     c80:	f3000400 	vshl.u8	d0, d0, d0
     c84:	349f5001 	ldrcc	r5, [pc], #1	; c8c <__code_start__-0x7374>
     c88:	43000001 	movwmi	r0, #1
     c8c:	01000001 	tsteq	r0, r1
     c90:	01435000 	mrseq	r5, (UNDEF: 67)
     c94:	01640000 	cmneq	r4, r0
     c98:	00040000 	andeq	r0, r4, r0
     c9c:	9f5001f3 	svcls	0x005001f3
     ca0:	00000164 	andeq	r0, r0, r4, ror #2
     ca4:	00000173 	andeq	r0, r0, r3, ror r1
     ca8:	73500001 	cmpvc	r0, #1
     cac:	94000001 	strls	r0, [r0], #-1
     cb0:	04000001 	streq	r0, [r0], #-1
     cb4:	5001f300 	andpl	pc, r1, r0, lsl #6
     cb8:	0001949f 	muleq	r1, pc, r4	; <UNPREDICTABLE>
     cbc:	0001a300 	andeq	sl, r1, r0, lsl #6
     cc0:	50000100 	andpl	r0, r0, r0, lsl #2
     cc4:	000001a3 	andeq	r0, r0, r3, lsr #3
     cc8:	000001c4 	andeq	r0, r0, r4, asr #3
     ccc:	01f30004 	mvnseq	r0, r4
     cd0:	01c49f50 	biceq	r9, r4, r0, asr pc
     cd4:	01d30000 	bicseq	r0, r3, r0
     cd8:	00010000 	andeq	r0, r1, r0
     cdc:	0001d350 	andeq	sp, r1, r0, asr r3
     ce0:	0001f400 	andeq	pc, r1, r0, lsl #8
     ce4:	f3000400 	vshl.u8	d0, d0, d0
     ce8:	f49f5001 			; <UNDEFINED> instruction: 0xf49f5001
     cec:	03000001 	movweq	r0, #1
     cf0:	01000002 	tsteq	r0, r2
     cf4:	02035000 	andeq	r5, r3, #0
     cf8:	02240000 	eoreq	r0, r4, #0
     cfc:	00040000 	andeq	r0, r4, r0
     d00:	9f5001f3 	svcls	0x005001f3
     d04:	00000224 	andeq	r0, r0, r4, lsr #4
     d08:	0000025c 	andeq	r0, r0, ip, asr r2
     d0c:	00500001 	subseq	r0, r0, r1
     d10:	00000000 	andeq	r0, r0, r0
     d14:	5c000000 	stcpl	0, cr0, [r0], {-0}
     d18:	67000002 	strvs	r0, [r0, -r2]
     d1c:	01000002 	tsteq	r0, r2
     d20:	02675000 	rsbeq	r5, r7, #0
     d24:	04600000 	strbteq	r0, [r0], #-0
     d28:	00010000 	andeq	r0, r1, r0
     d2c:	00000054 	andeq	r0, r0, r4, asr r0
     d30:	00000000 	andeq	r0, r0, r0
     d34:	00046800 	andeq	r6, r4, r0, lsl #16
     d38:	00047400 	andeq	r7, r4, r0, lsl #8
     d3c:	50000100 	andpl	r0, r0, r0, lsl #2
     d40:	00000474 	andeq	r0, r0, r4, ror r4
     d44:	000004b4 			; <UNDEFINED> instruction: 0x000004b4
     d48:	00540001 	subseq	r0, r4, r1
     d4c:	00000000 	andeq	r0, r0, r0
     d50:	b4000000 	strlt	r0, [r0], #-0
     d54:	cb000004 	blgt	d6c <__code_start__-0x7294>
     d58:	01000004 	tsteq	r0, r4
     d5c:	04cb5000 	strbeq	r5, [fp], #0
     d60:	04ec0000 	strbteq	r0, [ip], #0
     d64:	00040000 	andeq	r0, r4, r0
     d68:	9f5001f3 	svcls	0x005001f3
     d6c:	000004ec 	andeq	r0, r0, ip, ror #9
     d70:	000004ff 	strdeq	r0, [r0], -pc	; <UNPREDICTABLE>
     d74:	ff500001 			; <UNDEFINED> instruction: 0xff500001
     d78:	20000004 	andcs	r0, r0, r4
     d7c:	04000005 	streq	r0, [r0], #-5
     d80:	5001f300 	andpl	pc, r1, r0, lsl #6
     d84:	0005209f 	muleq	r5, pc, r0	; <UNPREDICTABLE>
     d88:	00052f00 	andeq	r2, r5, r0, lsl #30
     d8c:	50000100 	andpl	r0, r0, r0, lsl #2
     d90:	0000052f 	andeq	r0, r0, pc, lsr #10
     d94:	00000550 	andeq	r0, r0, r0, asr r5
     d98:	01f30004 	mvnseq	r0, r4
     d9c:	05509f50 	ldrbeq	r9, [r0, #-3920]	; 0xf50
     da0:	055f0000 	ldrbeq	r0, [pc, #-0]	; da8 <__code_start__-0x7258>
     da4:	00010000 	andeq	r0, r1, r0
     da8:	00055f50 	andeq	r5, r5, r0, asr pc
     dac:	00058000 	andeq	r8, r5, r0
     db0:	f3000400 	vshl.u8	d0, d0, d0
     db4:	809f5001 	addshi	r5, pc, r1
     db8:	8f000005 	svchi	0x00000005
     dbc:	01000005 	tsteq	r0, r5
     dc0:	058f5000 	streq	r5, [pc]	; dc8 <__code_start__-0x7238>
     dc4:	05b00000 	ldreq	r0, [r0, #0]!
     dc8:	00040000 	andeq	r0, r4, r0
     dcc:	9f5001f3 	svcls	0x005001f3
     dd0:	000005b0 			; <UNDEFINED> instruction: 0x000005b0
     dd4:	000005bf 			; <UNDEFINED> instruction: 0x000005bf
     dd8:	bf500001 	svclt	0x00500001
     ddc:	e0000005 	and	r0, r0, r5
     de0:	04000005 	streq	r0, [r0], #-5
     de4:	5001f300 	andpl	pc, r1, r0, lsl #6
     de8:	0005e09f 	muleq	r5, pc, r0	; <UNPREDICTABLE>
     dec:	0005ef00 	andeq	lr, r5, r0, lsl #30
     df0:	50000100 	andpl	r0, r0, r0, lsl #2
     df4:	000005ef 	andeq	r0, r0, pc, ror #11
     df8:	00000610 	andeq	r0, r0, r0, lsl r6
     dfc:	01f30004 	mvnseq	r0, r4
     e00:	06109f50 	ssaxeq	r9, r0, r0
     e04:	061f0000 	ldreq	r0, [pc], -r0
     e08:	00010000 	andeq	r0, r1, r0
     e0c:	00061f50 	andeq	r1, r6, r0, asr pc
     e10:	00064000 	andeq	r4, r6, r0
     e14:	f3000400 	vshl.u8	d0, d0, d0
     e18:	409f5001 	addsmi	r5, pc, r1
     e1c:	74000006 	strvc	r0, [r0], #-6
     e20:	01000006 	tsteq	r0, r6
     e24:	00005000 	andeq	r5, r0, r0
     e28:	00000000 	andeq	r0, r0, r0
     e2c:	07300000 	ldreq	r0, [r0, -r0]!
     e30:	073c0000 	ldreq	r0, [ip, -r0]!
     e34:	00010000 	andeq	r0, r1, r0
     e38:	00073c50 	andeq	r3, r7, r0, asr ip
     e3c:	00090000 	andeq	r0, r9, r0
     e40:	54000100 	strpl	r0, [r0], #-256	; 0x100
	...
     e4c:	00000034 	andeq	r0, r0, r4, lsr r0
     e50:	0000004c 	andeq	r0, r0, ip, asr #32
     e54:	4c500001 	mrrcmi	0, 0, r0, r0, cr1	; <UNPREDICTABLE>
     e58:	04000000 	streq	r0, [r0], #-0
     e5c:	01000001 	tsteq	r0, r1
     e60:	01045600 	tsteq	r4, r0, lsl #12
     e64:	01240000 	teqeq	r4, r0
     e68:	00040000 	andeq	r0, r4, r0
     e6c:	9f5001f3 	svcls	0x005001f3
	...
     e78:	00000034 	andeq	r0, r0, r4, lsr r0
     e7c:	0000004f 	andeq	r0, r0, pc, asr #32
     e80:	4f510001 	svcmi	0x00510001
     e84:	04000000 	streq	r0, [r0], #-0
     e88:	01000001 	tsteq	r0, r1
     e8c:	01045400 	tsteq	r4, r0, lsl #8
     e90:	01240000 	teqeq	r4, r0
     e94:	00040000 	andeq	r0, r4, r0
     e98:	9f5101f3 	svcls	0x005101f3
	...
     ea4:	00000034 	andeq	r0, r0, r4, lsr r0
     ea8:	0000004f 	andeq	r0, r0, pc, asr #32
     eac:	4f520001 	svcmi	0x00520001
     eb0:	04000000 	streq	r0, [r0], #-0
     eb4:	01000001 	tsteq	r0, r1
     eb8:	01045500 	tsteq	r4, r0, lsl #10
     ebc:	01240000 	teqeq	r4, r0
     ec0:	00040000 	andeq	r0, r4, r0
     ec4:	9f5201f3 	svcls	0x005201f3
	...
     ed0:	00000124 	andeq	r0, r0, r4, lsr #2
     ed4:	00000133 	andeq	r0, r0, r3, lsr r1
     ed8:	33500001 	cmpcc	r0, #1
     edc:	b4000001 	strlt	r0, [r0], #-1
     ee0:	01000001 	tsteq	r0, r1
     ee4:	01b45400 			; <UNDEFINED> instruction: 0x01b45400
     ee8:	01c80000 	biceq	r0, r8, r0
     eec:	00040000 	andeq	r0, r4, r0
     ef0:	9f5001f3 	svcls	0x005001f3
	...
     efc:	00000134 	andeq	r0, r0, r4, lsr r1
     f00:	0000014b 	andeq	r0, r0, fp, asr #2
     f04:	6c500001 	mrrcvs	0, 0, r0, r0, cr1	; <UNPREDICTABLE>
     f08:	77000001 	strvc	r0, [r0, -r1]
     f0c:	01000001 	tsteq	r0, r1
     f10:	01985000 	orrseq	r5, r8, r0
     f14:	01ac0000 			; <UNDEFINED> instruction: 0x01ac0000
     f18:	00010000 	andeq	r0, r1, r0
     f1c:	00000050 	andeq	r0, r0, r0, asr r0
     f20:	00000000 	andeq	r0, r0, r0
     f24:	00014000 	andeq	r4, r1, r0
     f28:	00014b00 	andeq	r4, r1, r0, lsl #22
     f2c:	52000100 	andpl	r0, r0, #0, 2
     f30:	0000014b 	andeq	r0, r0, fp, asr #2
     f34:	0000016c 	andeq	r0, r0, ip, ror #2
     f38:	01740005 	cmneq	r4, r5
     f3c:	6c9f2431 	cfldrsvs	mvf2, [pc], {49}	; 0x31
     f40:	77000001 	strvc	r0, [r0, -r1]
     f44:	01000001 	tsteq	r0, r1
     f48:	01775200 	cmneq	r7, r0, lsl #4
     f4c:	01980000 	orrseq	r0, r8, r0
     f50:	00050000 	andeq	r0, r5, r0
     f54:	24310174 	ldrtcs	r0, [r1], #-372	; 0x174
     f58:	0001989f 	muleq	r1, pc, r8	; <UNPREDICTABLE>
     f5c:	00019c00 	andeq	r9, r1, r0, lsl #24
     f60:	52000100 	andpl	r0, r0, #0, 2
     f64:	0000019c 	muleq	r0, ip, r1
     f68:	000001b4 			; <UNDEFINED> instruction: 0x000001b4
     f6c:	01740005 	cmneq	r4, r5
     f70:	b49f2431 	ldrlt	r2, [pc], #1073	; f78 <__code_start__-0x7088>
     f74:	c8000001 	stmdagt	r0, {r0}
     f78:	08000001 	stmdaeq	r0, {r0}
     f7c:	5001f300 	andpl	pc, r1, r0, lsl #6
     f80:	24310123 	ldrtcs	r0, [r1], #-291	; 0x123
     f84:	0000009f 	muleq	r0, pc, r0	; <UNPREDICTABLE>
     f88:	00000000 	andeq	r0, r0, r0
     f8c:	00014000 	andeq	r4, r1, r0
     f90:	00014b00 	andeq	r4, r1, r0, lsl #22
     f94:	53000100 	movwpl	r0, #256	; 0x100
     f98:	0000014b 	andeq	r0, r0, fp, asr #2
     f9c:	0000016c 	andeq	r0, r0, ip, ror #2
     fa0:	00740005 	rsbseq	r0, r4, r5
     fa4:	6c9f2431 	cfldrsvs	mvf2, [pc], {49}	; 0x31
     fa8:	77000001 	strvc	r0, [r0, -r1]
     fac:	01000001 	tsteq	r0, r1
     fb0:	01775300 	cmneq	r7, r0, lsl #6
     fb4:	01980000 	orrseq	r0, r8, r0
     fb8:	00050000 	andeq	r0, r5, r0
     fbc:	24310074 	ldrtcs	r0, [r1], #-116	; 0x74
     fc0:	0001989f 	muleq	r1, pc, r8	; <UNPREDICTABLE>
     fc4:	0001c800 	andeq	ip, r1, r0, lsl #16
     fc8:	53000100 	movwpl	r0, #256	; 0x100
	...
     fd4:	00000140 	andeq	r0, r0, r0, asr #2
     fd8:	0000014b 	andeq	r0, r0, fp, asr #2
     fdc:	6c500001 	mrrcvs	0, 0, r0, r0, cr1	; <UNPREDICTABLE>
     fe0:	77000001 	strvc	r0, [r0, -r1]
     fe4:	01000001 	tsteq	r0, r1
     fe8:	01985000 	orrseq	r5, r8, r0
     fec:	01ac0000 			; <UNDEFINED> instruction: 0x01ac0000
     ff0:	00010000 	andeq	r0, r1, r0
     ff4:	00000050 	andeq	r0, r0, r0, asr r0
     ff8:	00000000 	andeq	r0, r0, r0
     ffc:	0001a000 	andeq	sl, r1, r0
    1000:	0001a800 	andeq	sl, r1, r0, lsl #16
    1004:	52000100 	andpl	r0, r0, #0, 2
    1008:	000001a8 	andeq	r0, r0, r8, lsr #3
    100c:	000001b4 			; <UNDEFINED> instruction: 0x000001b4
    1010:	0174000a 	cmneq	r4, sl
    1014:	00732431 	rsbseq	r2, r3, r1, lsr r4
    1018:	9f01231c 	svcls	0x0001231c
    101c:	000001b4 			; <UNDEFINED> instruction: 0x000001b4
    1020:	000001c8 	andeq	r0, r0, r8, asr #3
    1024:	01f3000d 	mvnseq	r0, sp
    1028:	31012350 	tstcc	r1, r0, asr r3
    102c:	1c007324 	stcne	3, cr7, [r0], {36}	; 0x24
    1030:	009f0123 	addseq	r0, pc, r3, lsr #2
    1034:	00000000 	andeq	r0, r0, r0
    1038:	c8000000 	stmdagt	r0, {}	; <UNPREDICTABLE>
    103c:	e3000001 	movw	r0, #1
    1040:	01000001 	tsteq	r0, r1
    1044:	01e35000 	mvneq	r5, r0
    1048:	02040000 	andeq	r0, r4, #0
    104c:	00010000 	andeq	r0, r1, r0
    1050:	00020454 	andeq	r0, r2, r4, asr r4
    1054:	00020f00 	andeq	r0, r2, r0, lsl #30
    1058:	50000100 	andpl	r0, r0, r0, lsl #2
    105c:	0000020f 	andeq	r0, r0, pc, lsl #4
    1060:	00000230 	andeq	r0, r0, r0, lsr r2
    1064:	30540001 	subscc	r0, r4, r1
    1068:	33000002 	movwcc	r0, #2
    106c:	01000002 	tsteq	r0, r2
    1070:	02335000 	eorseq	r5, r3, #0
    1074:	023c0000 	eorseq	r0, ip, #0
    1078:	00010000 	andeq	r0, r1, r0
    107c:	00023c54 	andeq	r3, r2, r4, asr ip
    1080:	00026800 	andeq	r6, r2, r0, lsl #16
    1084:	f3000400 	vshl.u8	d0, d0, d0
    1088:	009f5001 	addseq	r5, pc, r1
    108c:	00000000 	andeq	r0, r0, r0
    1090:	c8000000 	stmdagt	r0, {}	; <UNPREDICTABLE>
    1094:	e3000001 	movw	r0, #1
    1098:	01000001 	tsteq	r0, r1
    109c:	01e35100 	mvneq	r5, r0, lsl #2
    10a0:	02040000 	andeq	r0, r4, #0
    10a4:	00010000 	andeq	r0, r1, r0
    10a8:	00020455 	andeq	r0, r2, r5, asr r4
    10ac:	00020f00 	andeq	r0, r2, r0, lsl #30
    10b0:	51000100 	mrspl	r0, (UNDEF: 16)
    10b4:	0000020f 	andeq	r0, r0, pc, lsl #4
    10b8:	00000230 	andeq	r0, r0, r0, lsr r2
    10bc:	30550001 	subscc	r0, r5, r1
    10c0:	33000002 	movwcc	r0, #2
    10c4:	01000002 	tsteq	r0, r2
    10c8:	02335100 	eorseq	r5, r3, #0, 2
    10cc:	02540000 	subseq	r0, r4, #0
    10d0:	00010000 	andeq	r0, r1, r0
    10d4:	00025455 	andeq	r5, r2, r5, asr r4
    10d8:	00026800 	andeq	r6, r2, r0, lsl #16
    10dc:	f3000400 	vshl.u8	d0, d0, d0
    10e0:	009f5101 	addseq	r5, pc, r1, lsl #2
    10e4:	00000000 	andeq	r0, r0, r0
    10e8:	7c000000 	stcvc	0, cr0, [r0], {-0}
    10ec:	94000002 	strls	r0, [r0], #-2
    10f0:	01000002 	tsteq	r0, r2
    10f4:	02945000 	addseq	r5, r4, #0
    10f8:	05880000 	streq	r0, [r8]
    10fc:	00010000 	andeq	r0, r1, r0
    1100:	00058856 	andeq	r8, r5, r6, asr r8
    1104:	0005f400 	andeq	pc, r5, r0, lsl #8
    1108:	f3000400 	vshl.u8	d0, d0, d0
    110c:	009f5001 	addseq	r5, pc, r1
    1110:	00000000 	andeq	r0, r0, r0
    1114:	a4000000 	strge	r0, [r0], #-0
    1118:	88000002 	stmdahi	r0, {r1}
    111c:	01000005 	tsteq	r0, r5
    1120:	00005400 	andeq	r5, r0, r0, lsl #8
    1124:	00000000 	andeq	r0, r0, r0
    1128:	02900000 	addseq	r0, r0, #0
    112c:	05880000 	streq	r0, [r8]
    1130:	00010000 	andeq	r0, r1, r0
    1134:	00000055 	andeq	r0, r0, r5, asr r0
    1138:	00000000 	andeq	r0, r0, r0
    113c:	0005f400 	andeq	pc, r5, r0, lsl #8
    1140:	0005fb00 	andeq	pc, r5, r0, lsl #22
    1144:	50000100 	andpl	r0, r0, r0, lsl #2
    1148:	000005fb 	strdeq	r0, [r0], -fp
    114c:	00000624 	andeq	r0, r0, r4, lsr #12
    1150:	01f30004 	mvnseq	r0, r4
    1154:	00009f50 	andeq	r9, r0, r0, asr pc
    1158:	00000000 	andeq	r0, r0, r0
    115c:	08700000 	ldmdaeq	r0!, {}^	; <UNPREDICTABLE>
    1160:	088b0000 	stmeq	fp, {}	; <UNPREDICTABLE>
    1164:	00010000 	andeq	r0, r1, r0
    1168:	00088b50 	andeq	r8, r8, r0, asr fp
    116c:	0008ac00 	andeq	sl, r8, r0, lsl #24
    1170:	f3000400 	vshl.u8	d0, d0, d0
    1174:	ac9f5001 	ldcge	0, cr5, [pc], {1}
    1178:	b4000008 	strlt	r0, [r0], #-8
    117c:	01000008 	tsteq	r0, r8
    1180:	08b45000 	ldmeq	r4!, {ip, lr}
    1184:	08bc0000 	ldmeq	ip!, {}	; <UNPREDICTABLE>
    1188:	00010000 	andeq	r0, r1, r0
    118c:	0008bc52 	andeq	fp, r8, r2, asr ip
    1190:	0008c300 	andeq	ip, r8, r0, lsl #6
    1194:	51000100 	mrspl	r0, (UNDEF: 16)
    1198:	000008c3 	andeq	r0, r0, r3, asr #17
    119c:	000008e4 	andeq	r0, r0, r4, ror #17
    11a0:	01f30004 	mvnseq	r0, r4
    11a4:	00009f50 	andeq	r9, r0, r0, asr pc
    11a8:	00000000 	andeq	r0, r0, r0
    11ac:	08e40000 	stmiaeq	r4!, {}^	; <UNPREDICTABLE>
    11b0:	08ff0000 	ldmeq	pc!, {}^	; <UNPREDICTABLE>
    11b4:	00010000 	andeq	r0, r1, r0
    11b8:	0008ff50 	andeq	pc, r8, r0, asr pc	; <UNPREDICTABLE>
    11bc:	00092000 	andeq	r2, r9, r0
    11c0:	f3000400 	vshl.u8	d0, d0, d0
    11c4:	209f5001 	addscs	r5, pc, r1
    11c8:	28000009 	stmdacs	r0, {r0, r3}
    11cc:	01000009 	tsteq	r0, r9
    11d0:	09285000 	stmdbeq	r8!, {ip, lr}
    11d4:	09300000 	ldmdbeq	r0!, {}	; <UNPREDICTABLE>
    11d8:	00010000 	andeq	r0, r1, r0
    11dc:	00093052 	andeq	r3, r9, r2, asr r0
    11e0:	00093700 	andeq	r3, r9, r0, lsl #14
    11e4:	51000100 	mrspl	r0, (UNDEF: 16)
    11e8:	00000937 	andeq	r0, r0, r7, lsr r9
    11ec:	00000954 	andeq	r0, r0, r4, asr r9
    11f0:	01f30004 	mvnseq	r0, r4
    11f4:	00009f50 	andeq	r9, r0, r0, asr pc
    11f8:	00000000 	andeq	r0, r0, r0
    11fc:	09540000 	ldmdbeq	r4, {}^	; <UNPREDICTABLE>
    1200:	095c0000 	ldmdbeq	ip, {}^	; <UNPREDICTABLE>
    1204:	00010000 	andeq	r0, r1, r0
    1208:	00095c50 	andeq	r5, r9, r0, asr ip
    120c:	00096800 	andeq	r6, r9, r0, lsl #16
    1210:	71000500 	tstvc	r0, r0, lsl #10
    1214:	9f244400 	svcls	0x00244400
    1218:	00000968 	andeq	r0, r0, r8, ror #18
    121c:	0000096f 	andeq	r0, r0, pc, ror #18
    1220:	6f510001 	svcvs	0x00510001
    1224:	78000009 	stmdavc	r0, {r0, r3}
    1228:	08000009 	stmdaeq	r0, {r0, r3}
    122c:	5001f300 	andpl	pc, r1, r0, lsl #6
    1230:	24442544 	strbcs	r2, [r4], #-1348	; 0x544
    1234:	0000009f 	muleq	r0, pc, r0	; <UNPREDICTABLE>
	...
    1240:	00002400 	andeq	r2, r0, r0, lsl #8
    1244:	50000100 	andpl	r0, r0, r0, lsl #2
    1248:	00000024 	andeq	r0, r0, r4, lsr #32
    124c:	000000e4 	andeq	r0, r0, r4, ror #1
    1250:	01f30004 	mvnseq	r0, r4
    1254:	00e49f50 	rsceq	r9, r4, r0, asr pc
    1258:	00e80000 	rsceq	r0, r8, r0
    125c:	00010000 	andeq	r0, r1, r0
    1260:	0000e850 	andeq	lr, r0, r0, asr r8
    1264:	0000f000 	andeq	pc, r0, r0
    1268:	f3000400 	vshl.u8	d0, d0, d0
    126c:	009f5001 	addseq	r5, pc, r1
	...
    1278:	20000000 	andcs	r0, r0, r0
    127c:	01000000 	mrseq	r0, (UNDEF: 0)
    1280:	00205100 	eoreq	r5, r0, r0, lsl #2
    1284:	00800000 	addeq	r0, r0, r0
    1288:	00010000 	andeq	r0, r1, r0
    128c:	00009c51 	andeq	r9, r0, r1, asr ip
    1290:	0000a000 	andeq	sl, r0, r0
    1294:	51000100 	mrspl	r0, (UNDEF: 16)
    1298:	000000b8 	strheq	r0, [r0], -r8
    129c:	000000c8 	andeq	r0, r0, r8, asr #1
    12a0:	e4510001 	ldrb	r0, [r1], #-1
    12a4:	e8000000 	stmda	r0, {}	; <UNPREDICTABLE>
    12a8:	01000000 	mrseq	r0, (UNDEF: 0)
    12ac:	00005100 	andeq	r5, r0, r0, lsl #2
    12b0:	00000000 	andeq	r0, r0, r0
    12b4:	00040000 	andeq	r0, r4, r0
    12b8:	00240000 	eoreq	r0, r4, r0
    12bc:	00010000 	andeq	r0, r1, r0
    12c0:	00002450 	andeq	r2, r0, r0, asr r4
    12c4:	00009000 	andeq	r9, r0, r0
    12c8:	53000100 	movwpl	r0, #256	; 0x100
    12cc:	0000009c 	muleq	r0, ip, r0
    12d0:	000000a4 	andeq	r0, r0, r4, lsr #1
    12d4:	b8530001 	ldmdalt	r3, {r0}^
    12d8:	bc000000 	stclt	0, cr0, [r0], {-0}
    12dc:	01000000 	mrseq	r0, (UNDEF: 0)
    12e0:	00e45300 	rsceq	r5, r4, r0, lsl #6
    12e4:	00e80000 	rsceq	r0, r8, r0
    12e8:	00010000 	andeq	r0, r1, r0
    12ec:	00000050 	andeq	r0, r0, r0, asr r0
    12f0:	00000000 	andeq	r0, r0, r0
    12f4:	00000800 	andeq	r0, r0, r0, lsl #16
    12f8:	00002000 	andeq	r2, r0, r0
    12fc:	51000100 	mrspl	r0, (UNDEF: 16)
    1300:	00000020 	andeq	r0, r0, r0, lsr #32
    1304:	00000034 	andeq	r0, r0, r4, lsr r0
    1308:	34520001 	ldrbcc	r0, [r2], #-1
    130c:	48000000 	stmdami	r0, {}	; <UNPREDICTABLE>
    1310:	01000000 	mrseq	r0, (UNDEF: 0)
    1314:	00485000 	subeq	r5, r8, r0
    1318:	00cc0000 	sbceq	r0, ip, r0
    131c:	00010000 	andeq	r0, r1, r0
    1320:	0000cc52 	andeq	ip, r0, r2, asr ip
    1324:	0000e000 	andeq	lr, r0, r0
    1328:	50000100 	andpl	r0, r0, r0, lsl #2
    132c:	000000e4 	andeq	r0, r0, r4, ror #1
    1330:	000000e8 	andeq	r0, r0, r8, ror #1
    1334:	00510001 	subseq	r0, r1, r1
    1338:	00000000 	andeq	r0, r0, r0
    133c:	44000000 	strmi	r0, [r0], #-0
    1340:	48000000 	stmdami	r0, {}	; <UNPREDICTABLE>
    1344:	01000000 	mrseq	r0, (UNDEF: 0)
    1348:	00485200 	subeq	r5, r8, r0, lsl #4
    134c:	004c0000 	subeq	r0, ip, r0
    1350:	00120000 	andseq	r0, r2, r0
    1354:	2438007c 	ldrtcs	r0, [r8], #-124	; 0x7c
    1358:	01940273 	orrseq	r0, r4, r3, ror r2
    135c:	221aff08 	andscs	pc, sl, #8, 30
    1360:	0070243b 	rsbseq	r2, r0, fp, lsr r4
    1364:	004c9f27 	subeq	r9, ip, r7, lsr #30
    1368:	00540000 	subseq	r0, r4, r0
    136c:	00120000 	andseq	r0, r2, r0
    1370:	2438007c 	ldrtcs	r0, [r8], #-124	; 0x7c
    1374:	01947e73 	orrseq	r7, r4, r3, ror lr
    1378:	221aff08 	andscs	pc, sl, #8, 30
    137c:	0070243b 	rsbseq	r2, r0, fp, lsr r4
    1380:	00009f27 	andeq	r9, r0, r7, lsr #30
    1384:	00000000 	andeq	r0, r0, r0
    1388:	001c0000 	andseq	r0, ip, r0
    138c:	00e40000 	rsceq	r0, r4, r0
    1390:	00010000 	andeq	r0, r1, r0
    1394:	00000054 	andeq	r0, r0, r4, asr r0
	...
    13a0:	00000400 	andeq	r0, r0, r0, lsl #8
    13a4:	52000100 	andpl	r0, r0, #0, 2
    13a8:	00000004 	andeq	r0, r0, r4
    13ac:	00000020 	andeq	r0, r0, r0, lsr #32
    13b0:	01f30004 	mvnseq	r0, r4
    13b4:	00009f52 	andeq	r9, r0, r2, asr pc
	...
    13c0:	000c0000 	andeq	r0, ip, r0
    13c4:	00010000 	andeq	r0, r1, r0
    13c8:	00000c50 	andeq	r0, r0, r0, asr ip
    13cc:	00001400 	andeq	r1, r0, r0, lsl #8
    13d0:	73000300 	movwvc	r0, #768	; 0x300
    13d4:	00149f01 	andseq	r9, r4, r1, lsl #30
    13d8:	00200000 	eoreq	r0, r0, r0
    13dc:	00010000 	andeq	r0, r1, r0
    13e0:	00000053 	andeq	r0, r0, r3, asr r0
    13e4:	00000000 	andeq	r0, r0, r0
    13e8:	00002c00 	andeq	r2, r0, r0, lsl #24
    13ec:	00003800 	andeq	r3, r0, r0, lsl #16
    13f0:	50000100 	andpl	r0, r0, r0, lsl #2
    13f4:	00000038 	andeq	r0, r0, r8, lsr r0
    13f8:	00000048 	andeq	r0, r0, r8, asr #32
    13fc:	48550001 	ldmdami	r5, {r0}^
    1400:	58000000 	stmdapl	r0, {}	; <UNPREDICTABLE>
    1404:	01000000 	mrseq	r0, (UNDEF: 0)
    1408:	00005000 	andeq	r5, r0, r0
	...
    1414:	000b0000 	andeq	r0, fp, r0
    1418:	00010000 	andeq	r0, r1, r0
    141c:	00000b50 	andeq	r0, r0, r0, asr fp
    1420:	00001400 	andeq	r1, r0, r0, lsl #8
    1424:	54000100 	strpl	r0, [r0], #-256	; 0x100
	...
    1434:	00000010 	andeq	r0, r0, r0, lsl r0
    1438:	10500001 	subsne	r0, r0, r1
    143c:	34000000 	strcc	r0, [r0], #-0
    1440:	01000000 	mrseq	r0, (UNDEF: 0)
    1444:	00005400 	andeq	r5, r0, r0, lsl #8
	...
    1450:	00040000 	andeq	r0, r4, r0
    1454:	00010000 	andeq	r0, r1, r0
    1458:	00000450 	andeq	r0, r0, r0, asr r4
    145c:	00000c00 	andeq	r0, r0, r0, lsl #24
    1460:	70000300 	andvc	r0, r0, r0, lsl #6
    1464:	000c9f30 	andeq	r9, ip, r0, lsr pc
    1468:	00140000 	andseq	r0, r4, r0
    146c:	00040000 	andeq	r0, r4, r0
    1470:	9f5001f3 	svcls	0x005001f3
	...
    147c:	00000014 	andeq	r0, r0, r4, lsl r0
    1480:	00000020 	andeq	r0, r0, r0, lsr #32
    1484:	20500001 	subscs	r0, r0, r1
    1488:	2c000000 	stccs	0, cr0, [r0], {-0}
    148c:	03000000 	movweq	r0, #0
    1490:	9f017000 	svcls	0x00017000
    1494:	0000002c 	andeq	r0, r0, ip, lsr #32
    1498:	00000040 	andeq	r0, r0, r0, asr #32
    149c:	00500001 	subseq	r0, r0, r1
    14a0:	00000000 	andeq	r0, r0, r0
    14a4:	14000000 	strne	r0, [r0], #-0
    14a8:	18000000 	stmdane	r0, {}	; <UNPREDICTABLE>
    14ac:	01000000 	mrseq	r0, (UNDEF: 0)
    14b0:	00185100 	andseq	r5, r8, r0, lsl #2
    14b4:	00400000 	subeq	r0, r0, r0
    14b8:	00040000 	andeq	r0, r4, r0
    14bc:	9f5101f3 	svcls	0x005101f3
	...
    14c8:	00000040 	andeq	r0, r0, r0, asr #32
    14cc:	00000060 	andeq	r0, r0, r0, rrx
    14d0:	60500001 	subsvs	r0, r0, r1
    14d4:	6c000000 	stcvs	0, cr0, [r0], {-0}
    14d8:	03000000 	movweq	r0, #0
    14dc:	9f017100 	svcls	0x00017100
    14e0:	0000006c 	andeq	r0, r0, ip, rrx
    14e4:	00000074 	andeq	r0, r0, r4, ror r0
    14e8:	74510001 	ldrbvc	r0, [r1], #-1
    14ec:	80000000 	andhi	r0, r0, r0
    14f0:	03000000 	movweq	r0, #0
    14f4:	9f017100 	svcls	0x00017100
	...
    1500:	00000040 	andeq	r0, r0, r0, asr #32
    1504:	00000050 	andeq	r0, r0, r0, asr r0
    1508:	50510001 	subspl	r0, r1, r1
    150c:	80000000 	andhi	r0, r0, r0
    1510:	04000000 	streq	r0, [r0], #-0
    1514:	5101f300 	mrspl	pc, SP_irq	; <UNPREDICTABLE>
    1518:	0000009f 	muleq	r0, pc, r0	; <UNPREDICTABLE>
    151c:	00000000 	andeq	r0, r0, r0
    1520:	00004000 	andeq	r4, r0, r0
    1524:	00005800 	andeq	r5, r0, r0, lsl #16
    1528:	52000100 	andpl	r0, r0, #0, 2
    152c:	00000058 	andeq	r0, r0, r8, asr r0
    1530:	00000064 	andeq	r0, r0, r4, rrx
    1534:	64520001 	ldrbvs	r0, [r2], #-1
    1538:	68000000 	stmdavs	r0, {}	; <UNPREDICTABLE>
    153c:	03000000 	movweq	r0, #0
    1540:	9f017200 	svcls	0x00017200
    1544:	00000068 	andeq	r0, r0, r8, rrx
    1548:	00000080 	andeq	r0, r0, r0, lsl #1
    154c:	00520001 	subseq	r0, r2, r1
    1550:	00000000 	andeq	r0, r0, r0
    1554:	40000000 	andmi	r0, r0, r0
    1558:	54000000 	strpl	r0, [r0], #-0
    155c:	01000000 	mrseq	r0, (UNDEF: 0)
    1560:	00545300 	subseq	r5, r4, r0, lsl #6
    1564:	00780000 	rsbseq	r0, r8, r0
    1568:	00010000 	andeq	r0, r1, r0
    156c:	00000053 	andeq	r0, r0, r3, asr r0
    1570:	00000000 	andeq	r0, r0, r0
    1574:	00004800 	andeq	r4, r0, r0, lsl #16
    1578:	00006000 	andeq	r6, r0, r0
    157c:	5c000100 	stfpls	f0, [r0], {-0}
    1580:	00000060 	andeq	r0, r0, r0, rrx
    1584:	00000080 	andeq	r0, r0, r0, lsl #1
    1588:	01f3000a 	mvnseq	r0, sl
    158c:	5301f352 	movwpl	pc, #4946	; 0x1352	; <UNPREDICTABLE>
    1590:	9f01231c 	svcls	0x0001231c
	...
    159c:	00000080 	andeq	r0, r0, r0, lsl #1
    15a0:	000000a4 	andeq	r0, r0, r4, lsr #1
    15a4:	a4500001 	ldrbge	r0, [r0], #-1
    15a8:	18000000 	stmdane	r0, {}	; <UNPREDICTABLE>
    15ac:	03000001 	movweq	r0, #1
    15b0:	9f027000 	svcls	0x00027000
    15b4:	00000118 	andeq	r0, r0, r8, lsl r1
    15b8:	0000023c 	andeq	r0, r0, ip, lsr r2
    15bc:	01f30004 	mvnseq	r0, r4
    15c0:	00009f50 	andeq	r9, r0, r0, asr pc
    15c4:	00000000 	andeq	r0, r0, r0
    15c8:	00800000 	addeq	r0, r0, r0
    15cc:	00f00000 	rscseq	r0, r0, r0
    15d0:	00010000 	andeq	r0, r1, r0
    15d4:	0000f051 	andeq	pc, r0, r1, asr r0	; <UNPREDICTABLE>
    15d8:	00016000 	andeq	r6, r1, r0
    15dc:	55000100 	strpl	r0, [r0, #-256]	; 0x100
    15e0:	00000160 	andeq	r0, r0, r0, ror #2
    15e4:	0000016c 	andeq	r0, r0, ip, ror #2
    15e8:	6c510001 	mrrcvs	0, 0, r0, r1, cr1
    15ec:	a0000001 	andge	r0, r0, r1
    15f0:	01000001 	tsteq	r0, r1
    15f4:	01a05500 	lsleq	r5, r0, #10
    15f8:	01b40000 			; <UNDEFINED> instruction: 0x01b40000
    15fc:	00010000 	andeq	r0, r1, r0
    1600:	0001b451 	andeq	fp, r1, r1, asr r4
    1604:	0001d400 	andeq	sp, r1, r0, lsl #8
    1608:	55000100 	strpl	r0, [r0, #-256]	; 0x100
    160c:	000001d4 	ldrdeq	r0, [r0], -r4
    1610:	000001d7 	ldrdeq	r0, [r0], -r7
    1614:	d7510001 	ldrble	r0, [r1, -r1]
    1618:	1c000001 	stcne	0, cr0, [r0], {1}
    161c:	01000002 	tsteq	r0, r2
    1620:	021c5500 	andseq	r5, ip, #0, 10
    1624:	023c0000 	eorseq	r0, ip, #0
    1628:	00040000 	andeq	r0, r4, r0
    162c:	9f5101f3 	svcls	0x005101f3
	...
    1638:	00000080 	andeq	r0, r0, r0, lsl #1
    163c:	00000094 	muleq	r0, r4, r0
    1640:	94520001 	ldrbls	r0, [r2], #-1
    1644:	1c000000 	stcne	0, cr0, [r0], {-0}
    1648:	01000002 	tsteq	r0, r2
    164c:	021c5400 	andseq	r5, ip, #0, 8
    1650:	023c0000 	eorseq	r0, ip, #0
    1654:	00040000 	andeq	r0, r4, r0
    1658:	9f5201f3 	svcls	0x005201f3
	...
    1664:	00000080 	andeq	r0, r0, r0, lsl #1
    1668:	00000100 	andeq	r0, r0, r0, lsl #2
    166c:	04530001 	ldrbeq	r0, [r3], #-1
    1670:	08000001 	stmdaeq	r0, {r0}
    1674:	01000001 	tsteq	r0, r1
    1678:	01605300 	cmneq	r0, r0, lsl #6
    167c:	01640000 	cmneq	r4, r0
    1680:	00010000 	andeq	r0, r1, r0
    1684:	00016453 	andeq	r6, r1, r3, asr r4
    1688:	00016c00 	andeq	r6, r1, r0, lsl #24
    168c:	5c000100 	stfpls	f0, [r0], {-0}
    1690:	0000016c 	andeq	r0, r0, ip, ror #2
    1694:	000001a0 	andeq	r0, r0, r0, lsr #3
    1698:	01f30004 	mvnseq	r0, r4
    169c:	01a09f53 	asreq	r9, r3, pc
    16a0:	01b00000 	movseq	r0, r0
    16a4:	00010000 	andeq	r0, r1, r0
    16a8:	0001b053 	andeq	fp, r1, r3, asr r0
    16ac:	0001b400 	andeq	fp, r1, r0, lsl #8
    16b0:	5c000100 	stfpls	f0, [r0], {-0}
    16b4:	000001b4 			; <UNDEFINED> instruction: 0x000001b4
    16b8:	000001d4 	ldrdeq	r0, [r0], -r4
    16bc:	01f30004 	mvnseq	r0, r4
    16c0:	01d49f53 	bicseq	r9, r4, r3, asr pc
    16c4:	01d70000 	bicseq	r0, r7, r0
    16c8:	00010000 	andeq	r0, r1, r0
    16cc:	0001d753 	andeq	sp, r1, r3, asr r7
    16d0:	0001f800 	andeq	pc, r1, r0, lsl #16
    16d4:	f3000400 	vshl.u8	d0, d0, d0
    16d8:	009f5301 	addseq	r5, pc, r1, lsl #6
    16dc:	00000000 	andeq	r0, r0, r0
    16e0:	80000000 	andhi	r0, r0, r0
    16e4:	9c000000 	stcls	0, cr0, [r0], {-0}
    16e8:	02000000 	andeq	r0, r0, #0
    16ec:	9c009100 	stflsd	f1, [r0], {-0}
    16f0:	d7000000 	strle	r0, [r0, -r0]
    16f4:	01000001 	tsteq	r0, r1
    16f8:	01f85200 	mvnseq	r5, r0, lsl #4
    16fc:	01ff0000 	mvnseq	r0, r0
    1700:	00010000 	andeq	r0, r1, r0
    1704:	00000052 	andeq	r0, r0, r2, asr r0
    1708:	00000000 	andeq	r0, r0, r0
    170c:	00009c00 	andeq	r9, r0, r0, lsl #24
    1710:	00010c00 	andeq	r0, r1, r0, lsl #24
    1714:	91000400 	tstls	r0, r0, lsl #8
    1718:	0c9f7fa0 	ldceq	15, cr7, [pc], {160}	; 0xa0
    171c:	18000001 	stmdane	r0, {r0}
    1720:	01000001 	tsteq	r0, r1
    1724:	01185100 	tsteq	r8, r0, lsl #2
    1728:	011c0000 	tsteq	ip, r0
    172c:	00010000 	andeq	r0, r1, r0
    1730:	00011c50 	andeq	r1, r1, r0, asr ip
    1734:	00012000 	andeq	r2, r1, r0
    1738:	51000100 	mrspl	r0, (UNDEF: 16)
    173c:	00000120 	andeq	r0, r0, r0, lsr #2
    1740:	00000160 	andeq	r0, r0, r0, ror #2
    1744:	60500001 	subsvs	r0, r0, r1
    1748:	64000001 	strvs	r0, [r0], #-1
    174c:	04000001 	streq	r0, [r0], #-1
    1750:	7fa09100 	svcvc	0x00a09100
    1754:	0001649f 	muleq	r1, pc, r4	; <UNPREDICTABLE>
    1758:	00016c00 	andeq	r6, r1, r0, lsl #24
    175c:	53000100 	movwpl	r0, #256	; 0x100
    1760:	0000016c 	andeq	r0, r0, ip, ror #2
    1764:	00000170 	andeq	r0, r0, r0, ror r1
    1768:	70500001 	subsvc	r0, r0, r1
    176c:	74000001 	strvc	r0, [r0], #-1
    1770:	01000001 	tsteq	r0, r1
    1774:	01745300 	cmneq	r4, r0, lsl #6
    1778:	01880000 	orreq	r0, r8, r0
    177c:	00010000 	andeq	r0, r1, r0
    1780:	00018850 	andeq	r8, r1, r0, asr r8
    1784:	00019400 	andeq	r9, r1, r0, lsl #8
    1788:	70000300 	andvc	r0, r0, r0, lsl #6
    178c:	01949f01 	orrseq	r9, r4, r1, lsl #30
    1790:	01a00000 	moveq	r0, r0
    1794:	00010000 	andeq	r0, r1, r0
    1798:	0001a050 	andeq	sl, r1, r0, asr r0
    179c:	0001a800 	andeq	sl, r1, r0, lsl #16
    17a0:	91000400 	tstls	r0, r0, lsl #8
    17a4:	a89f7fa1 	ldmge	pc, {r0, r5, r7, r8, r9, sl, fp, ip, sp, lr}	; <UNPREDICTABLE>
    17a8:	ac000001 	stcge	0, cr0, [r0], {1}
    17ac:	01000001 	tsteq	r0, r1
    17b0:	01ac5000 			; <UNDEFINED> instruction: 0x01ac5000
    17b4:	01b00000 	movseq	r0, r0
    17b8:	00040000 	andeq	r0, r4, r0
    17bc:	9f7fa091 	svcls	0x007fa091
    17c0:	000001b0 			; <UNDEFINED> instruction: 0x000001b0
    17c4:	000001b8 			; <UNDEFINED> instruction: 0x000001b8
    17c8:	b8530001 	ldmdalt	r3, {r0}^
    17cc:	d4000001 	strle	r0, [r0], #-1
    17d0:	01000001 	tsteq	r0, r1
    17d4:	01d45000 	bicseq	r5, r4, r0
    17d8:	01f80000 	mvnseq	r0, r0
    17dc:	00040000 	andeq	r0, r4, r0
    17e0:	9f7fa091 	svcls	0x007fa091
    17e4:	000001f8 	strdeq	r0, [r0], -r8
    17e8:	000001ff 	strdeq	r0, [r0], -pc	; <UNPREDICTABLE>
    17ec:	00500001 	subseq	r0, r0, r1
    17f0:	00000000 	andeq	r0, r0, r0
    17f4:	a0000000 	andge	r0, r0, r0
    17f8:	ec000000 	stc	0, cr0, [r0], {-0}
    17fc:	01000000 	mrseq	r0, (UNDEF: 0)
    1800:	00ec5c00 	rsceq	r5, ip, r0, lsl #24
    1804:	01000000 	mrseq	r0, (UNDEF: 0)
    1808:	00010000 	andeq	r0, r1, r0
    180c:	00010053 	andeq	r0, r1, r3, asr r0
    1810:	00010400 	andeq	r0, r1, r0, lsl #8
    1814:	5c000100 	stfpls	f0, [r0], {-0}
    1818:	00000104 	andeq	r0, r0, r4, lsl #2
    181c:	00000108 	andeq	r0, r0, r8, lsl #2
    1820:	08530001 	ldmdaeq	r3, {r0}^
    1824:	60000001 	andvs	r0, r0, r1
    1828:	01000001 	tsteq	r0, r1
    182c:	01605c00 	cmneq	r0, r0, lsl #24
    1830:	01640000 	cmneq	r4, r0
    1834:	00010000 	andeq	r0, r1, r0
    1838:	00016453 	andeq	r6, r1, r3, asr r4
    183c:	00018000 	andeq	r8, r1, r0
    1840:	5c000100 	stfpls	f0, [r0], {-0}
    1844:	00000180 	andeq	r0, r0, r0, lsl #3
    1848:	00000184 	andeq	r0, r0, r4, lsl #3
    184c:	007c0005 	rsbseq	r0, ip, r5
    1850:	849f2534 	ldrhi	r2, [pc], #1332	; 1858 <__code_start__-0x67a8>
    1854:	a0000001 	andge	r0, r0, r1
    1858:	01000001 	tsteq	r0, r1
    185c:	01a05c00 	lsleq	r5, r0, #24
    1860:	01b00000 	movseq	r0, r0
    1864:	00010000 	andeq	r0, r1, r0
    1868:	0001b053 	andeq	fp, r1, r3, asr r0
    186c:	0001c400 	andeq	ip, r1, r0, lsl #8
    1870:	5c000100 	stfpls	f0, [r0], {-0}
    1874:	000001c4 	andeq	r0, r0, r4, asr #3
    1878:	000001cc 	andeq	r0, r0, ip, asr #3
    187c:	007c0005 	rsbseq	r0, ip, r5
    1880:	cc9f2531 	cfldr32gt	mvfx2, [pc], {49}	; 0x31
    1884:	d4000001 	strle	r0, [r0], #-1
    1888:	01000001 	tsteq	r0, r1
    188c:	01d45c00 	bicseq	r5, r4, r0, lsl #24
    1890:	01d70000 	bicseq	r0, r7, r0
    1894:	00010000 	andeq	r0, r1, r0
    1898:	0001d753 	andeq	sp, r1, r3, asr r7
    189c:	0001f800 	andeq	pc, r1, r0, lsl #16
    18a0:	f3000400 	vshl.u8	d0, d0, d0
    18a4:	f89f5301 			; <UNDEFINED> instruction: 0xf89f5301
    18a8:	ff000001 			; <UNDEFINED> instruction: 0xff000001
    18ac:	01000001 	tsteq	r0, r1
    18b0:	00005c00 	andeq	r5, r0, r0, lsl #24
    18b4:	00000000 	andeq	r0, r0, r0
    18b8:	00ec0000 	rsceq	r0, ip, r0
    18bc:	00fc0000 	rscseq	r0, ip, r0
    18c0:	00020000 	andeq	r0, r2, r0
    18c4:	00fc9f30 	rscseq	r9, ip, r0, lsr pc
    18c8:	01040000 	mrseq	r0, (UNDEF: 4)
    18cc:	00020000 	andeq	r0, r2, r0
    18d0:	01049f31 	tsteq	r4, r1, lsr pc
    18d4:	01080000 	mrseq	r0, (UNDEF: 8)
    18d8:	00020000 	andeq	r0, r2, r0
    18dc:	00009f30 	andeq	r9, r0, r0, lsr pc
    18e0:	00000000 	andeq	r0, r0, r0
    18e4:	023c0000 	eorseq	r0, ip, #0
    18e8:	024f0000 	subeq	r0, pc, #0
    18ec:	00010000 	andeq	r0, r1, r0
    18f0:	00024f50 	andeq	r4, r2, r0, asr pc
    18f4:	00027000 	andeq	r7, r2, r0
    18f8:	f3000400 	vshl.u8	d0, d0, d0
    18fc:	709f5001 	addsvc	r5, pc, r1
    1900:	a4000002 	strge	r0, [r0], #-2
    1904:	01000002 	tsteq	r0, r2
    1908:	00005000 	andeq	r5, r0, r0
    190c:	00000000 	andeq	r0, r0, r0
    1910:	023c0000 	eorseq	r0, ip, #0
    1914:	024f0000 	subeq	r0, pc, #0
    1918:	00010000 	andeq	r0, r1, r0
    191c:	00024f51 	andeq	r4, r2, r1, asr pc
    1920:	00027000 	andeq	r7, r2, r0
    1924:	f3000400 	vshl.u8	d0, d0, d0
    1928:	709f5101 	addsvc	r5, pc, r1, lsl #2
    192c:	a4000002 	strge	r0, [r0], #-2
    1930:	01000002 	tsteq	r0, r2
    1934:	00005100 	andeq	r5, r0, r0, lsl #2
    1938:	00000000 	andeq	r0, r0, r0
    193c:	02a40000 	adceq	r0, r4, #0
    1940:	02d40000 	sbcseq	r0, r4, #0
    1944:	00010000 	andeq	r0, r1, r0
    1948:	0002d450 	andeq	sp, r2, r0, asr r4
    194c:	00055800 	andeq	r5, r5, r0, lsl #16
    1950:	5b000100 	blpl	1d58 <__code_start__-0x62a8>
    1954:	00000558 	andeq	r0, r0, r8, asr r5
    1958:	00000578 	andeq	r0, r0, r8, ror r5
    195c:	01f30004 	mvnseq	r0, r4
    1960:	00009f50 	andeq	r9, r0, r0, asr pc
    1964:	00000000 	andeq	r0, r0, r0
    1968:	02a40000 	adceq	r0, r4, #0
    196c:	02bc0000 	adcseq	r0, ip, #0
    1970:	00010000 	andeq	r0, r1, r0
    1974:	0002bc51 	andeq	fp, r2, r1, asr ip
    1978:	0002d400 	andeq	sp, r2, r0, lsl #8
    197c:	71000300 	mrsvc	r0, LR_irq
    1980:	02d49f01 	sbcseq	r9, r4, #1, 30
    1984:	05780000 	ldrbeq	r0, [r8, #-0]!
    1988:	00040000 	andeq	r0, r4, r0
    198c:	9f5101f3 	svcls	0x005101f3
	...
    1998:	000002a4 	andeq	r0, r0, r4, lsr #5
    199c:	000002d4 	ldrdeq	r0, [r0], -r4
    19a0:	d4520001 	ldrble	r0, [r2], #-1
    19a4:	58000002 	stmdapl	r0, {r1}
    19a8:	01000005 	tsteq	r0, r5
    19ac:	00005600 	andeq	r5, r0, r0, lsl #12
    19b0:	00000000 	andeq	r0, r0, r0
    19b4:	02a40000 	adceq	r0, r4, #0
    19b8:	02c40000 	sbceq	r0, r4, #0
    19bc:	00010000 	andeq	r0, r1, r0
    19c0:	00000053 	andeq	r0, r0, r3, asr r0
    19c4:	00000000 	andeq	r0, r0, r0
    19c8:	0002b800 	andeq	fp, r2, r0, lsl #16
    19cc:	0002d400 	andeq	sp, r2, r0, lsl #8
    19d0:	50000100 	andpl	r0, r0, r0, lsl #2
    19d4:	000002d4 	ldrdeq	r0, [r0], -r4
    19d8:	000002d8 	ldrdeq	r0, [r0], -r8
    19dc:	d8540001 	ldmdale	r4, {r0}^
    19e0:	e4000002 	str	r0, [r0], #-2
    19e4:	03000002 	movweq	r0, #2
    19e8:	9f017400 	svcls	0x00017400
    19ec:	000002e4 	andeq	r0, r0, r4, ror #5
    19f0:	000002f0 	strdeq	r0, [r0], -r0	; <UNPREDICTABLE>
    19f4:	f0540001 			; <UNDEFINED> instruction: 0xf0540001
    19f8:	fc000002 	stc2	0, cr0, [r0], {2}
    19fc:	03000002 	movweq	r0, #2
    1a00:	9f017400 	svcls	0x00017400
    1a04:	000002fc 	strdeq	r0, [r0], -ip
    1a08:	0000050c 	andeq	r0, r0, ip, lsl #10
    1a0c:	0c540001 	mrrceq	0, 0, r0, r4, cr1
    1a10:	18000005 	stmdane	r0, {r0, r2}
    1a14:	03000005 	movweq	r0, #5
    1a18:	9f017400 	svcls	0x00017400
    1a1c:	00000518 	andeq	r0, r0, r8, lsl r5
    1a20:	00000544 	andeq	r0, r0, r4, asr #10
    1a24:	44540001 	ldrbmi	r0, [r4], #-1
    1a28:	50000005 	andpl	r0, r0, r5
    1a2c:	01000005 	tsteq	r0, r5
    1a30:	05505000 	ldrbeq	r5, [r0, #-0]
    1a34:	05580000 	ldrbeq	r0, [r8, #-0]
    1a38:	00030000 	andeq	r0, r3, r0
    1a3c:	009f0174 	addseq	r0, pc, r4, ror r1	; <UNPREDICTABLE>
    1a40:	00000000 	andeq	r0, r0, r0
    1a44:	c0000000 	andgt	r0, r0, r0
    1a48:	58000002 	stmdapl	r0, {r1}
    1a4c:	01000005 	tsteq	r0, r5
    1a50:	05585800 	ldrbeq	r5, [r8, #-2048]	; 0x800
    1a54:	05780000 	ldrbeq	r0, [r8, #-0]!
    1a58:	000a0000 	andeq	r0, sl, r0
    1a5c:	f35101f3 	vbsl	q8, <illegal reg q8.5>, <illegal reg q9.5>
    1a60:	31225001 	teqcc	r2, r1
    1a64:	00009f1c 	andeq	r9, r0, ip, lsl pc
    1a68:	00000000 	andeq	r0, r0, r0
    1a6c:	02c80000 	sbceq	r0, r8, #0
    1a70:	02d40000 	sbcseq	r0, r4, #0
    1a74:	00010000 	andeq	r0, r1, r0
    1a78:	0002d452 	andeq	sp, r2, r2, asr r4
    1a7c:	00057800 	andeq	r7, r5, r0, lsl #16
    1a80:	91000300 	mrsls	r0, LR_irq
    1a84:	00007ecc 	andeq	r7, r0, ip, asr #29
    1a88:	00000000 	andeq	r0, r0, r0
    1a8c:	04100000 	ldreq	r0, [r0], #-0
    1a90:	04140000 	ldreq	r0, [r4], #-0
    1a94:	00010000 	andeq	r0, r1, r0
    1a98:	00043850 	andeq	r3, r4, r0, asr r8
    1a9c:	00043c00 	andeq	r3, r4, r0, lsl #24
    1aa0:	50000100 	andpl	r0, r0, r0, lsl #2
    1aa4:	00000460 	andeq	r0, r0, r0, ror #8
    1aa8:	00000464 	andeq	r0, r0, r4, ror #8
    1aac:	88500001 	ldmdahi	r0, {r0}^
    1ab0:	8c000004 	stchi	0, cr0, [r0], {4}
    1ab4:	01000004 	tsteq	r0, r4
    1ab8:	04945000 	ldreq	r5, [r4], #0
    1abc:	04980000 	ldreq	r0, [r8], #0
    1ac0:	00010000 	andeq	r0, r1, r0
    1ac4:	0004bc50 	andeq	fp, r4, r0, asr ip
    1ac8:	0004c000 	andeq	ip, r4, r0
    1acc:	50000100 	andpl	r0, r0, r0, lsl #2
    1ad0:	00000504 	andeq	r0, r0, r4, lsl #10
    1ad4:	0000052c 	andeq	r0, r0, ip, lsr #10
    1ad8:	00500001 	subseq	r0, r0, r1
    1adc:	00000000 	andeq	r0, r0, r0
    1ae0:	04000000 	streq	r0, [r0], #-0
    1ae4:	0c000003 	stceq	0, cr0, [r0], {3}
    1ae8:	02000003 	andeq	r0, r0, #3
    1aec:	0c9f3000 	ldceq	0, cr3, [pc], {0}
    1af0:	10000003 	andne	r0, r0, r3
    1af4:	01000003 	tsteq	r0, r3
    1af8:	031c5700 	tsteq	ip, #0, 14
    1afc:	052c0000 	streq	r0, [ip, #-0]!
    1b00:	00010000 	andeq	r0, r1, r0
    1b04:	00000057 	andeq	r0, r0, r7, asr r0
    1b08:	00000000 	andeq	r0, r0, r0
    1b0c:	00001400 	andeq	r1, r0, r0, lsl #8
    1b10:	00001c00 	andeq	r1, r0, r0, lsl #24
    1b14:	73000300 	movwvc	r0, #768	; 0x300
    1b18:	001c9f04 	andseq	r9, ip, r4, lsl #30
    1b1c:	00270000 	eoreq	r0, r7, r0
    1b20:	00010000 	andeq	r0, r1, r0
    1b24:	00000053 	andeq	r0, r0, r3, asr r0
	...
    1b30:	00000f00 	andeq	r0, r0, r0, lsl #30
    1b34:	50000100 	andpl	r0, r0, r0, lsl #2
    1b38:	0000000f 	andeq	r0, r0, pc
    1b3c:	00000044 	andeq	r0, r0, r4, asr #32
    1b40:	00540001 	subseq	r0, r4, r1
	...
    1b4c:	0f000000 	svceq	0x00000000
    1b50:	01000000 	mrseq	r0, (UNDEF: 0)
    1b54:	000f5000 	andeq	r5, pc, r0
    1b58:	00440000 	subeq	r0, r4, r0
    1b5c:	00010000 	andeq	r0, r1, r0
    1b60:	00000054 	andeq	r0, r0, r4, asr r0
	...
    1b6c:	00000f00 	andeq	r0, r0, r0, lsl #30
    1b70:	50000100 	andpl	r0, r0, r0, lsl #2
    1b74:	0000000f 	andeq	r0, r0, pc
    1b78:	00000044 	andeq	r0, r0, r4, asr #32
    1b7c:	00540001 	subseq	r0, r4, r1
	...
    1b88:	0f000000 	svceq	0x00000000
    1b8c:	01000000 	mrseq	r0, (UNDEF: 0)
    1b90:	000f5000 	andeq	r5, pc, r0
    1b94:	00440000 	subeq	r0, r4, r0
    1b98:	00010000 	andeq	r0, r1, r0
    1b9c:	00000054 	andeq	r0, r0, r4, asr r0
    1ba0:	00000000 	andeq	r0, r0, r0
    1ba4:	00003400 	andeq	r3, r0, r0, lsl #8
    1ba8:	00004000 	andeq	r4, r0, r0
    1bac:	30000200 	andcc	r0, r0, r0, lsl #4
    1bb0:	0000409f 	muleq	r0, pc, r0	; <UNPREDICTABLE>
    1bb4:	00006c00 	andeq	r6, r0, r0, lsl #24
    1bb8:	53000100 	movwpl	r0, #256	; 0x100
	...
    1bc4:	0000aca8 	andeq	sl, r0, r8, lsr #25
    1bc8:	0000acac 	andeq	sl, r0, ip, lsr #25
    1bcc:	9f300002 	svcls	0x00300002
    1bd0:	0000acac 	andeq	sl, r0, ip, lsr #25
    1bd4:	0000acb0 			; <UNDEFINED> instruction: 0x0000acb0
    1bd8:	00500001 	subseq	r0, r0, r1
    1bdc:	00000000 	andeq	r0, r0, r0
    1be0:	c0000000 	andgt	r0, r0, r0
    1be4:	c40000ac 	strgt	r0, [r0], #-172	; 0xac
    1be8:	020000ac 	andeq	r0, r0, #172	; 0xac
    1bec:	c49f3000 	ldrgt	r3, [pc], #0	; 1bf4 <__code_start__-0x640c>
    1bf0:	c80000ac 	stmdagt	r0, {r2, r3, r5, r7}
    1bf4:	010000ac 	smlatbeq	r0, ip, r0, r0
    1bf8:	accc5300 	stclge	3, cr5, [ip], {0}
    1bfc:	acd40000 	ldclge	0, cr0, [r4], {0}
    1c00:	00010000 	andeq	r0, r1, r0
    1c04:	00000053 	andeq	r0, r0, r3, asr r0
	...
    1c10:	00000400 	andeq	r0, r0, r0, lsl #8
    1c14:	50000100 	andpl	r0, r0, r0, lsl #2
    1c18:	00000004 	andeq	r0, r0, r4
    1c1c:	0000000c 	andeq	r0, r0, ip
    1c20:	0c530001 	mrrceq	0, 0, r0, r3, cr1
    1c24:	10000000 	andne	r0, r0, r0
    1c28:	01000000 	mrseq	r0, (UNDEF: 0)
    1c2c:	00105000 	andseq	r5, r0, r0
    1c30:	001c0000 	andseq	r0, ip, r0
    1c34:	00010000 	andeq	r0, r1, r0
    1c38:	00000053 	andeq	r0, r0, r3, asr r0
    1c3c:	00000000 	andeq	r0, r0, r0
    1c40:	00004000 	andeq	r4, r0, r0
    1c44:	00004300 	andeq	r4, r0, r0, lsl #6
    1c48:	50000100 	andpl	r0, r0, r0, lsl #2
    1c4c:	00000043 	andeq	r0, r0, r3, asr #32
    1c50:	0000004c 	andeq	r0, r0, ip, asr #32
    1c54:	00540001 	subseq	r0, r4, r1
    1c58:	00000000 	andeq	r0, r0, r0
    1c5c:	4c000000 	stcmi	0, cr0, [r0], {-0}
    1c60:	57000000 	strpl	r0, [r0, -r0]
    1c64:	01000000 	mrseq	r0, (UNDEF: 0)
    1c68:	00575000 	subseq	r5, r7, r0
    1c6c:	00700000 	rsbseq	r0, r0, r0
    1c70:	00010000 	andeq	r0, r1, r0
    1c74:	00000055 	andeq	r0, r0, r5, asr r0
    1c78:	00000000 	andeq	r0, r0, r0
    1c7c:	00006000 	andeq	r6, r0, r0
    1c80:	00006400 	andeq	r6, r0, r0, lsl #8
    1c84:	50000100 	andpl	r0, r0, r0, lsl #2
	...
    1c90:	00000070 	andeq	r0, r0, r0, ror r0
    1c94:	0000007c 	andeq	r0, r0, ip, ror r0
    1c98:	7c500001 	mrrcvc	0, 0, r0, r0, cr1	; <UNPREDICTABLE>
    1c9c:	84000000 	strhi	r0, [r0], #-0
    1ca0:	04000000 	streq	r0, [r0], #-0
    1ca4:	5001f300 	andpl	pc, r1, r0, lsl #6
    1ca8:	0000009f 	muleq	r0, pc, r0	; <UNPREDICTABLE>
    1cac:	00000000 	andeq	r0, r0, r0
    1cb0:	00008400 	andeq	r8, r0, r0, lsl #8
    1cb4:	00009000 	andeq	r9, r0, r0
    1cb8:	50000100 	andpl	r0, r0, r0, lsl #2
    1cbc:	00000090 	muleq	r0, r0, r0
    1cc0:	00000098 	muleq	r0, r8, r0
    1cc4:	01f30004 	mvnseq	r0, r4
    1cc8:	00009f50 	andeq	r9, r0, r0, asr pc
    1ccc:	00000000 	andeq	r0, r0, r0
    1cd0:	01380000 	teqeq	r8, r0
    1cd4:	01430000 	mrseq	r0, (UNDEF: 67)
    1cd8:	00010000 	andeq	r0, r1, r0
    1cdc:	00014350 	andeq	r4, r1, r0, asr r3
    1ce0:	00016800 	andeq	r6, r1, r0, lsl #16
    1ce4:	54000100 	strpl	r0, [r0], #-256	; 0x100
	...
    1cf4:	0000000f 	andeq	r0, r0, pc
    1cf8:	0f500001 	svceq	0x00500001
    1cfc:	20000000 	andcs	r0, r0, r0
    1d00:	01000000 	mrseq	r0, (UNDEF: 0)
    1d04:	00005400 	andeq	r5, r0, r0, lsl #8
	...
    1d10:	000f0000 	andeq	r0, pc, r0
    1d14:	00010000 	andeq	r0, r1, r0
    1d18:	00000f51 	andeq	r0, r0, r1, asr pc
    1d1c:	00002000 	andeq	r2, r0, r0
    1d20:	55000100 	strpl	r0, [r0, #-256]	; 0x100
	...
    1d2c:	000000ec 	andeq	r0, r0, ip, ror #1
    1d30:	00000104 	andeq	r0, r0, r4, lsl #2
    1d34:	04500001 	ldrbeq	r0, [r0], #-1
    1d38:	14000001 	strne	r0, [r0], #-1
    1d3c:	04000001 	streq	r0, [r0], #-1
    1d40:	5001f300 	andpl	pc, r1, r0, lsl #6
    1d44:	0001149f 	muleq	r1, pc, r4	; <UNPREDICTABLE>
    1d48:	00011800 	andeq	r1, r1, r0, lsl #16
    1d4c:	50000100 	andpl	r0, r0, r0, lsl #2
    1d50:	00000118 	andeq	r0, r0, r8, lsl r1
    1d54:	00000120 	andeq	r0, r0, r0, lsr #2
    1d58:	01f30004 	mvnseq	r0, r4
    1d5c:	00009f50 	andeq	r9, r0, r0, asr pc
    1d60:	00000000 	andeq	r0, r0, r0
    1d64:	00f80000 	rscseq	r0, r8, r0
    1d68:	01040000 	mrseq	r0, (UNDEF: 4)
    1d6c:	000b0000 	andeq	r0, fp, r0
    1d70:	25350070 	ldrcs	r0, [r5, #-112]!	; 0x70
    1d74:	8080b423 	addhi	fp, r0, r3, lsr #8
    1d78:	049f0281 	ldreq	r0, [pc], #641	; 1d80 <__code_start__-0x6280>
    1d7c:	07000001 	streq	r0, [r0, -r1]
    1d80:	01000001 	tsteq	r0, r1
    1d84:	01075000 	mrseq	r5, (UNDEF: 7)
    1d88:	01140000 	tsteq	r4, r0
    1d8c:	000c0000 	andeq	r0, ip, r0
    1d90:	355001f3 	ldrbcc	r0, [r0, #-499]	; 0x1f3
    1d94:	80b42325 	adcshi	r2, r4, r5, lsr #6
    1d98:	9f028180 	svcls	0x00028180
	...
    1da4:	000000fc 	strdeq	r0, [r0], -ip
    1da8:	00000114 	andeq	r0, r0, r4, lsl r1
    1dac:	00540001 	subseq	r0, r4, r1
    1db0:	00000000 	andeq	r0, r0, r0
    1db4:	d0000000 	andle	r0, r0, r0
    1db8:	df000000 	svcle	0x00000000
    1dbc:	01000000 	mrseq	r0, (UNDEF: 0)
    1dc0:	00df5000 	sbcseq	r5, pc, r0
    1dc4:	00e40000 	rsceq	r0, r4, r0
    1dc8:	00040000 	andeq	r0, r4, r0
    1dcc:	9f5001f3 	svcls	0x005001f3
    1dd0:	000000e4 	andeq	r0, r0, r4, ror #1
    1dd4:	000000e7 	andeq	r0, r0, r7, ror #1
    1dd8:	e7500001 	ldrb	r0, [r0, -r1]
    1ddc:	ec000000 	stc	0, cr0, [r0], {-0}
    1de0:	04000000 	streq	r0, [r0], #-0
    1de4:	5001f300 	andpl	pc, r1, r0, lsl #6
    1de8:	0000009f 	muleq	r0, pc, r0	; <UNPREDICTABLE>
    1dec:	00000000 	andeq	r0, r0, r0
    1df0:	0000d000 	andeq	sp, r0, r0
    1df4:	0000df00 	andeq	sp, r0, r0, lsl #30
    1df8:	51000100 	mrspl	r0, (UNDEF: 16)
    1dfc:	000000df 	ldrdeq	r0, [r0], -pc	; <UNPREDICTABLE>
    1e00:	000000e4 	andeq	r0, r0, r4, ror #1
    1e04:	01f30004 	mvnseq	r0, r4
    1e08:	00e49f51 	rsceq	r9, r4, r1, asr pc
    1e0c:	00e70000 	rsceq	r0, r7, r0
    1e10:	00010000 	andeq	r0, r1, r0
    1e14:	0000e751 	andeq	lr, r0, r1, asr r7
    1e18:	0000ec00 	andeq	lr, r0, r0, lsl #24
    1e1c:	f3000400 	vshl.u8	d0, d0, d0
    1e20:	009f5101 	addseq	r5, pc, r1, lsl #2
    1e24:	00000000 	andeq	r0, r0, r0
    1e28:	c0000000 	andgt	r0, r0, r0
    1e2c:	cb000000 	blgt	1e34 <__code_start__-0x61cc>
    1e30:	01000000 	mrseq	r0, (UNDEF: 0)
    1e34:	00cb5000 	sbceq	r5, fp, r0
    1e38:	00d00000 	sbcseq	r0, r0, r0
    1e3c:	00040000 	andeq	r0, r4, r0
    1e40:	9f5001f3 	svcls	0x005001f3
	...
    1e4c:	0000009c 	muleq	r0, ip, r0
    1e50:	000000b4 	strheq	r0, [r0], -r4
    1e54:	b4500001 	ldrblt	r0, [r0], #-1
    1e58:	c0000000 	andgt	r0, r0, r0
    1e5c:	04000000 	streq	r0, [r0], #-0
    1e60:	5001f300 	andpl	pc, r1, r0, lsl #6
    1e64:	0000009f 	muleq	r0, pc, r0	; <UNPREDICTABLE>
    1e68:	00000000 	andeq	r0, r0, r0
    1e6c:	00007800 	andeq	r7, r0, r0, lsl #16
    1e70:	00009000 	andeq	r9, r0, r0
    1e74:	50000100 	andpl	r0, r0, r0, lsl #2
    1e78:	00000090 	muleq	r0, r0, r0
    1e7c:	0000009c 	muleq	r0, ip, r0
    1e80:	01f30004 	mvnseq	r0, r4
    1e84:	00009f50 	andeq	r9, r0, r0, asr pc
    1e88:	00000000 	andeq	r0, r0, r0
    1e8c:	00680000 	rsbeq	r0, r8, r0
    1e90:	00730000 	rsbseq	r0, r3, r0
    1e94:	00010000 	andeq	r0, r1, r0
    1e98:	00007350 	andeq	r7, r0, r0, asr r3
    1e9c:	00007800 	andeq	r7, r0, r0, lsl #16
    1ea0:	f3000400 	vshl.u8	d0, d0, d0
    1ea4:	009f5001 	addseq	r5, pc, r1
	...
    1eb0:	48000000 	stmdami	r0, {}	; <UNPREDICTABLE>
    1eb4:	01000000 	mrseq	r0, (UNDEF: 0)
    1eb8:	00485000 	subeq	r5, r8, r0
    1ebc:	00680000 	rsbeq	r0, r8, r0
    1ec0:	00040000 	andeq	r0, r4, r0
    1ec4:	9f5001f3 	svcls	0x005001f3
	...
    1ed4:	0000004b 	andeq	r0, r0, fp, asr #32
    1ed8:	4b510001 	blmi	1441ee4 <__bss_end__+0x143551c>
    1edc:	68000000 	stmdavs	r0, {}	; <UNPREDICTABLE>
    1ee0:	04000000 	streq	r0, [r0], #-0
    1ee4:	5101f300 	mrspl	pc, SP_irq	; <UNPREDICTABLE>
    1ee8:	0000009f 	muleq	r0, pc, r0	; <UNPREDICTABLE>
    1eec:	00000000 	andeq	r0, r0, r0
    1ef0:	00004c00 	andeq	r4, r0, r0, lsl #24
    1ef4:	00005400 	andeq	r5, r0, r0, lsl #8
    1ef8:	50000100 	andpl	r0, r0, r0, lsl #2
    1efc:	00000054 	andeq	r0, r0, r4, asr r0
    1f00:	00000058 	andeq	r0, r0, r8, asr r0
    1f04:	00750009 	rsbseq	r0, r5, r9
    1f08:	71240074 	teqvc	r4, r4, ror r0
    1f0c:	589f2100 	ldmpl	pc, {r8, sp}	; <UNPREDICTABLE>
    1f10:	5f000000 	svcpl	0x00000000
    1f14:	01000000 	mrseq	r0, (UNDEF: 0)
    1f18:	00005100 	andeq	r5, r0, r0, lsl #2
    1f1c:	00000000 	andeq	r0, r0, r0
    1f20:	00e00000 	rsceq	r0, r0, r0
    1f24:	011b0000 	tsteq	fp, r0
    1f28:	00010000 	andeq	r0, r1, r0
    1f2c:	00011b50 	andeq	r1, r1, r0, asr fp
    1f30:	00012000 	andeq	r2, r1, r0
    1f34:	f3000400 	vshl.u8	d0, d0, d0
    1f38:	209f5001 	addscs	r5, pc, r1
    1f3c:	23000001 	movwcs	r0, #1
    1f40:	01000001 	tsteq	r0, r1
    1f44:	01235000 	teqeq	r3, r0
    1f48:	013c0000 	teqeq	ip, r0
    1f4c:	00040000 	andeq	r0, r4, r0
    1f50:	9f5001f3 	svcls	0x005001f3
    1f54:	0000013c 	andeq	r0, r0, ip, lsr r1
    1f58:	0000013f 	andeq	r0, r0, pc, lsr r1
    1f5c:	3f500001 	svccc	0x00500001
    1f60:	6c000001 	stcvs	0, cr0, [r0], {1}
    1f64:	04000001 	streq	r0, [r0], #-1
    1f68:	5001f300 	andpl	pc, r1, r0, lsl #6
    1f6c:	0000009f 	muleq	r0, pc, r0	; <UNPREDICTABLE>
    1f70:	00000000 	andeq	r0, r0, r0
    1f74:	0000e000 	andeq	lr, r0, r0
    1f78:	00010800 	andeq	r0, r1, r0, lsl #16
    1f7c:	51000100 	mrspl	r0, (UNDEF: 16)
    1f80:	00000108 	andeq	r0, r0, r8, lsl #2
    1f84:	0000011b 	andeq	r0, r0, fp, lsl r1
    1f88:	01710003 	cmneq	r1, r3
    1f8c:	00011b9f 	muleq	r1, pc, fp	; <UNPREDICTABLE>
    1f90:	00012000 	andeq	r2, r1, r0
    1f94:	f3000400 	vshl.u8	d0, d0, d0
    1f98:	209f5101 	addscs	r5, pc, r1, lsl #2
    1f9c:	23000001 	movwcs	r0, #1
    1fa0:	01000001 	tsteq	r0, r1
    1fa4:	01235100 	teqeq	r3, r0, lsl #2
    1fa8:	016c0000 	cmneq	ip, r0
    1fac:	00040000 	andeq	r0, r4, r0
    1fb0:	9f5101f3 	svcls	0x005101f3
	...
    1fbc:	000000f8 	strdeq	r0, [r0], -r8
    1fc0:	000000fc 	strdeq	r0, [r0], -ip
    1fc4:	fc520001 	mrrc2	0, 0, r0, r2, cr1
    1fc8:	04000000 	streq	r0, [r0], #-0
    1fcc:	05000001 	streq	r0, [r0, #-1]
    1fd0:	b2500300 	subslt	r0, r0, #0, 6
    1fd4:	01040000 	mrseq	r0, (UNDEF: 4)
    1fd8:	011b0000 	tsteq	fp, r0
    1fdc:	00010000 	andeq	r0, r1, r0
    1fe0:	00013c53 	andeq	r3, r1, r3, asr ip
    1fe4:	00013f00 	andeq	r3, r1, r0, lsl #30
    1fe8:	53000100 	movwpl	r0, #256	; 0x100
	...
    1ff4:	0000006c 	andeq	r0, r0, ip, rrx
    1ff8:	00000080 	andeq	r0, r0, r0, lsl #1
    1ffc:	80500001 	subshi	r0, r0, r1
    2000:	9b000000 	blls	2008 <__code_start__-0x5ff8>
    2004:	01000000 	mrseq	r0, (UNDEF: 0)
    2008:	009b5200 	addseq	r5, fp, r0, lsl #4
    200c:	00a40000 	adceq	r0, r4, r0
    2010:	00090000 	andeq	r0, r9, r0
    2014:	235001f3 	cmpcs	r0, #-1073741764	; 0xc000003c
    2018:	1af80907 	bne	ffe0443c <__bss_end__+0xffdf7a74>
    201c:	0000a49f 	muleq	r0, pc, r4	; <UNPREDICTABLE>
    2020:	0000a700 	andeq	sl, r0, r0, lsl #14
    2024:	50000100 	andpl	r0, r0, r0, lsl #2
    2028:	000000a7 	andeq	r0, r0, r7, lsr #1
    202c:	000000d0 	ldrdeq	r0, [r0], -r0	; <UNPREDICTABLE>
    2030:	01f30004 	mvnseq	r0, r4
    2034:	00009f50 	andeq	r9, r0, r0, asr pc
    2038:	00000000 	andeq	r0, r0, r0
    203c:	00880000 	addeq	r0, r8, r0
    2040:	00a40000 	adceq	r0, r4, r0
    2044:	00010000 	andeq	r0, r1, r0
    2048:	00000054 	andeq	r0, r0, r4, asr r0
    204c:	00000000 	andeq	r0, r0, r0
    2050:	00001c00 	andeq	r1, r0, r0, lsl #24
    2054:	00004300 	andeq	r4, r0, r0, lsl #6
    2058:	50000100 	andpl	r0, r0, r0, lsl #2
    205c:	00000043 	andeq	r0, r0, r3, asr #32
    2060:	0000006c 	andeq	r0, r0, ip, rrx
    2064:	01f30004 	mvnseq	r0, r4
    2068:	00009f50 	andeq	r9, r0, r0, asr pc
    206c:	00000000 	andeq	r0, r0, r0
    2070:	001c0000 	andseq	r0, ip, r0
    2074:	00430000 	subeq	r0, r3, r0
    2078:	00010000 	andeq	r0, r1, r0
    207c:	00004350 	andeq	r4, r0, r0, asr r3
    2080:	00006c00 	andeq	r6, r0, r0, lsl #24
    2084:	f3000400 	vshl.u8	d0, d0, d0
    2088:	009f5001 	addseq	r5, pc, r1
    208c:	00000000 	andeq	r0, r0, r0
    2090:	Address 0x0000000000002090 is out of bounds.


Disassembly of section .debug_aranges:

00000000 <.debug_aranges>:
   0:	0000001c 	andeq	r0, r0, ip, lsl r0
   4:	00000002 	andeq	r0, r0, r2
   8:	00040000 	andeq	r0, r4, r0
   c:	00000000 	andeq	r0, r0, r0
  10:	00008020 	andeq	r8, r0, r0, lsr #32
  14:	00000238 	andeq	r0, r0, r8, lsr r2
	...
  20:	0000001c 	andeq	r0, r0, ip, lsl r0
  24:	05680002 	strbeq	r0, [r8, #-2]!
  28:	00040000 	andeq	r0, r4, r0
  2c:	00000000 	andeq	r0, r0, r0
  30:	0000839c 	muleq	r0, ip, r3
  34:	000008dc 	ldrdeq	r0, [r0], -ip
	...
  40:	0000001c 	andeq	r0, r0, ip, lsl r0
  44:	1aba0002 	bne	fee80054 <__bss_end__+0xfee7368c>
  48:	00040000 	andeq	r0, r4, r0
  4c:	00000000 	andeq	r0, r0, r0
  50:	00008c78 	andeq	r8, r0, r8, ror ip
  54:	00000914 	andeq	r0, r0, r4, lsl r9
	...
  60:	0000001c 	andeq	r0, r0, ip, lsl r0
  64:	2c5c0002 	mrrccs	0, 0, r0, ip, cr2
  68:	00040000 	andeq	r0, r4, r0
  6c:	00000000 	andeq	r0, r0, r0
  70:	0000958c 	andeq	r9, r0, ip, lsl #11
  74:	00000a50 	andeq	r0, r0, r0, asr sl
	...
  80:	0000001c 	andeq	r0, r0, ip, lsl r0
  84:	42980002 	addsmi	r0, r8, #2
  88:	00040000 	andeq	r0, r4, r0
  8c:	00000000 	andeq	r0, r0, r0
  90:	0000a370 	andeq	sl, r0, r0, ror r3
  94:	000000f0 	strdeq	r0, [r0], -r0	; <UNPREDICTABLE>
	...
  a0:	0000001c 	andeq	r0, r0, ip, lsl r0
  a4:	43ae0002 			; <UNDEFINED> instruction: 0x43ae0002
  a8:	00040000 	andeq	r0, r4, r0
  ac:	00000000 	andeq	r0, r0, r0
  b0:	0000a460 	andeq	sl, r0, r0, ror #8
  b4:	00000020 	andeq	r0, r0, r0, lsr #32
	...
  c0:	0000001c 	andeq	r0, r0, ip, lsl r0
  c4:	448d0002 	strmi	r0, [sp], #2
  c8:	00040000 	andeq	r0, r4, r0
  cc:	00000000 	andeq	r0, r0, r0
  d0:	0000a480 	andeq	sl, r0, r0, lsl #9
  d4:	00000058 	andeq	r0, r0, r8, asr r0
	...
  e0:	0000001c 	andeq	r0, r0, ip, lsl r0
  e4:	46220002 	strtmi	r0, [r2], -r2
  e8:	00040000 	andeq	r0, r4, r0
  ec:	00000000 	andeq	r0, r0, r0
  f0:	0000a4d8 	ldrdeq	sl, [r0], -r8
  f4:	0000003c 	andeq	r0, r0, ip, lsr r0
	...
 100:	0000001c 	andeq	r0, r0, ip, lsl r0
 104:	47390002 	ldrmi	r0, [r9, -r2]!
 108:	00040000 	andeq	r0, r4, r0
 10c:	00000000 	andeq	r0, r0, r0
 110:	0000a514 	andeq	sl, r0, r4, lsl r5
 114:	00000034 	andeq	r0, r0, r4, lsr r0
	...
 120:	0000001c 	andeq	r0, r0, ip, lsl r0
 124:	482b0002 	stmdami	fp!, {r1}
 128:	00040000 	andeq	r0, r4, r0
 12c:	00000000 	andeq	r0, r0, r0
 130:	0000a548 	andeq	sl, r0, r8, asr #10
 134:	00000578 	andeq	r0, r0, r8, ror r5
	...
 140:	0000001c 	andeq	r0, r0, ip, lsl r0
 144:	4f140002 	svcmi	0x00140002
 148:	00040000 	andeq	r0, r4, r0
 14c:	00000000 	andeq	r0, r0, r0
 150:	0000aac0 	andeq	sl, r0, r0, asr #21
 154:	0000002c 	andeq	r0, r0, ip, lsr #32
	...
 160:	0000001c 	andeq	r0, r0, ip, lsl r0
 164:	50270002 	eorpl	r0, r7, r2
 168:	00040000 	andeq	r0, r4, r0
 16c:	00000000 	andeq	r0, r0, r0
 170:	0000aaec 	andeq	sl, r0, ip, ror #21
 174:	00000038 	andeq	r0, r0, r8, lsr r0
	...
 180:	0000001c 	andeq	r0, r0, ip, lsl r0
 184:	513a0002 	teqpl	sl, r2
 188:	00040000 	andeq	r0, r4, r0
 18c:	00000000 	andeq	r0, r0, r0
 190:	0000ab24 	andeq	sl, r0, r4, lsr #22
 194:	00000044 	andeq	r0, r0, r4, asr #32
	...
 1a0:	0000001c 	andeq	r0, r0, ip, lsl r0
 1a4:	527c0002 	rsbspl	r0, ip, #2
 1a8:	00040000 	andeq	r0, r4, r0
 1ac:	00000000 	andeq	r0, r0, r0
 1b0:	0000ab68 	andeq	sl, r0, r8, ror #22
 1b4:	00000044 	andeq	r0, r0, r4, asr #32
	...
 1c0:	0000001c 	andeq	r0, r0, ip, lsl r0
 1c4:	53be0002 			; <UNDEFINED> instruction: 0x53be0002
 1c8:	00040000 	andeq	r0, r4, r0
 1cc:	00000000 	andeq	r0, r0, r0
 1d0:	0000abac 	andeq	sl, r0, ip, lsr #23
 1d4:	00000044 	andeq	r0, r0, r4, asr #32
	...
 1e0:	0000001c 	andeq	r0, r0, ip, lsl r0
 1e4:	55000002 	strpl	r0, [r0, #-2]
 1e8:	00040000 	andeq	r0, r4, r0
 1ec:	00000000 	andeq	r0, r0, r0
 1f0:	0000abf0 	strdeq	sl, [r0], -r0
 1f4:	00000044 	andeq	r0, r0, r4, asr #32
	...
 200:	0000001c 	andeq	r0, r0, ip, lsl r0
 204:	56420002 	strbpl	r0, [r2], -r2
 208:	00040000 	andeq	r0, r4, r0
 20c:	00000000 	andeq	r0, r0, r0
 210:	0000ac34 	andeq	sl, r0, r4, lsr ip
 214:	00000008 	andeq	r0, r0, r8
	...
 220:	0000001c 	andeq	r0, r0, ip, lsl r0
 224:	56de0002 	ldrbpl	r0, [lr], r2
 228:	00040000 	andeq	r0, r4, r0
 22c:	00000000 	andeq	r0, r0, r0
 230:	0000ac3c 	andeq	sl, r0, ip, lsr ip
 234:	0000006c 	andeq	r0, r0, ip, rrx
	...
 240:	0000001c 	andeq	r0, r0, ip, lsl r0
 244:	58b90002 	ldmpl	r9!, {r1}
 248:	00040000 	andeq	r0, r4, r0
 24c:	00000000 	andeq	r0, r0, r0
 250:	0000aca8 	andeq	sl, r0, r8, lsr #25
 254:	00000074 	andeq	r0, r0, r4, ror r0
	...
 260:	0000001c 	andeq	r0, r0, ip, lsl r0
 264:	5a6a0002 	bpl	1a80274 <__bss_end__+0x1a738ac>
 268:	00040000 	andeq	r0, r4, r0
 26c:	00000000 	andeq	r0, r0, r0
 270:	0000ad1c 	andeq	sl, r0, ip, lsl sp
 274:	00000098 	muleq	r0, r8, r0
	...
 280:	0000001c 	andeq	r0, r0, ip, lsl r0
 284:	5c650002 	stclpl	0, cr0, [r5], #-8
 288:	00040000 	andeq	r0, r4, r0
 28c:	00000000 	andeq	r0, r0, r0
 290:	0000ae18 	andeq	sl, r0, r8, lsl lr
 294:	00000178 	andeq	r0, r0, r8, ror r1
	...
 2a0:	0000001c 	andeq	r0, r0, ip, lsl r0
 2a4:	692e0002 	stmdbvs	lr!, {r1}
 2a8:	00040000 	andeq	r0, r4, r0
 2ac:	00000000 	andeq	r0, r0, r0
 2b0:	0000af90 	muleq	r0, r0, pc	; <UNPREDICTABLE>
 2b4:	00000120 	andeq	r0, r0, r0, lsr #2
	...
 2c0:	0000001c 	andeq	r0, r0, ip, lsl r0
 2c4:	74a20002 	strtvc	r0, [r2], #2
 2c8:	00040000 	andeq	r0, r4, r0
 2cc:	00000000 	andeq	r0, r0, r0
 2d0:	0000b0b0 	strheq	fp, [r0], -r0
 2d4:	00000194 	muleq	r0, r4, r1
	...

Disassembly of section .debug_line:

00000000 <.debug_line>:
       0:	00000159 	andeq	r0, r0, r9, asr r1
       4:	00fb0002 	rscseq	r0, fp, r2
       8:	01020000 	mrseq	r0, (UNDEF: 2)
       c:	000d0efb 	strdeq	r0, [sp], -fp
      10:	01010101 	tsteq	r1, r1, lsl #2
      14:	01000000 	mrseq	r0, (UNDEF: 0)
      18:	74010000 	strvc	r0, [r1], #-0
      1c:	73747365 	cmnvc	r4, #-1811939327	; 0x94000001
      20:	2f002e00 	svccs	0x00002e00
      24:	72657355 	rsbvc	r7, r5, #1409286145	; 0x54000001
      28:	72622f73 	rsbvc	r2, r2, #460	; 0x1cc
      2c:	6a6e6169 	bvs	1b985d8 <__bss_end__+0x1b8bc10>
      30:	442f6e75 	strtmi	r6, [pc], #-3701	; 38 <__code_start__-0x7fc8>
      34:	746b7365 	strbtvc	r7, [fp], #-869	; 0x365
      38:	732f706f 	teqvc	pc, #111	; 0x6f
      3c:	6f6f6863 	svcvs	0x006f6863
      40:	70532f6c 	subsvc	r2, r3, ip, ror #30
      44:	676e6972 			; <UNDEFINED> instruction: 0x676e6972
      48:	30323931 	eorscc	r3, r2, r1, lsr r9
      4c:	3253432f 	subscc	r4, r3, #-1140850688	; 0xbc000000
      50:	584c3034 	stmdapl	ip, {r2, r4, r5, ip, sp}^
      54:	3273632f 	rsbscc	r6, r3, #-1140850688	; 0xbc000000
      58:	786c3034 	stmdavc	ip!, {r2, r4, r5, ip, sp}^
      5c:	7330322d 	teqvc	r0, #-805306366	; 0xd0000002
      60:	6c2f7270 	sfmvs	f7, 4, [pc], #-448	; fffffea8 <__bss_end__+0xffff34e0>
      64:	69706269 	ldmdbvs	r0!, {r0, r3, r5, r6, r9, sp, lr}^
      68:	636e692f 	cmnvs	lr, #770048	; 0xbc000
      6c:	6564756c 	strbvs	r7, [r4, #-1388]!	; 0x56c
      70:	73752f00 	cmnvc	r5, #0, 30
      74:	6f6c2f72 	svcvs	0x006c2f72
      78:	2f6c6163 	svccs	0x006c6163
      7c:	6c6c6543 	cfstr64vs	mvdx6, [ip], #-268	; 0xfffffef4
      80:	612f7261 	teqvs	pc, r1, ror #4
      84:	6e2d6d72 	mcrvs	13, 1, r6, cr13, cr2, {3}
      88:	2d656e6f 	stclcs	14, cr6, [r5, #-444]!	; 0xfffffe44
      8c:	69626165 	stmdbvs	r2!, {r0, r2, r5, r6, r8, sp, lr}^
      90:	382e342f 	stmdacc	lr!, {r0, r1, r2, r3, r5, sl, ip, sp}
      94:	632d332e 	teqvs	sp, #-1207959552	; 0xb8000000
      98:	30373173 	eorscc	r3, r7, r3, ror r1
      9c:	696c2f65 	stmdbvs	ip!, {r0, r2, r5, r6, r8, r9, sl, fp, sp}^
      a0:	63672f62 	cmnvs	r7, #392	; 0x188
      a4:	72612f63 	rsbvc	r2, r1, #396	; 0x18c
      a8:	6f6e2d6d 	svcvs	0x006e2d6d
      ac:	652d656e 	strvs	r6, [sp, #-1390]!	; 0x56e
      b0:	2f696261 	svccs	0x00696261
      b4:	2e382e34 	mrccs	14, 1, r2, cr8, cr4, {1}
      b8:	6e692f33 	mcrvs	15, 3, r2, cr9, cr3, {1}
      bc:	64756c63 	ldrbtvs	r6, [r5], #-3171	; 0xc63
      c0:	70000065 	andvc	r0, r0, r5, rrx
      c4:	32747261 	rsbscc	r7, r4, #268435462	; 0x10000006
      c8:	7365742d 	cmnvc	r5, #754974720	; 0x2d000000
      cc:	632e3474 	teqvs	lr, #116, 8	; 0x74000000
      d0:	00000100 	andeq	r0, r0, r0, lsl #2
      d4:	636d656d 	cmnvs	sp, #457179136	; 0x1b400000
      d8:	6b636568 	blvs	18d9680 <__bss_end__+0x18cccb8>
      dc:	0200682e 	andeq	r6, r0, #3014656	; 0x2e0000
      e0:	70720000 	rsbsvc	r0, r2, r0
      e4:	00682e69 	rsbeq	r2, r8, r9, ror #28
      e8:	6d000003 	stcvs	0, cr0, [r0, #-12]
      ec:	682e756d 	stmdavs	lr!, {r0, r2, r3, r5, r6, r8, sl, ip, sp, lr}
      f0:	00000200 	andeq	r0, r0, r0, lsl #4
      f4:	69647473 	stmdbvs	r4!, {r0, r1, r4, r5, r6, sl, ip, sp, lr}^
      f8:	672d746e 	strvs	r7, [sp, -lr, ror #8]!
      fc:	682e6363 	stmdavs	lr!, {r0, r1, r5, r6, r8, r9, sp, lr}
     100:	00000400 	andeq	r0, r0, r0, lsl #8
     104:	02050000 	andeq	r0, r5, #0
     108:	00008020 	andeq	r8, r0, r0, lsr #32
     10c:	d8308415 	ldmdale	r0!, {r0, r2, r4, sl, pc}
     110:	02008368 	andeq	r8, r0, #104, 6	; 0xa0000001
     114:	66060104 	strvs	r0, [r6], -r4, lsl #2
     118:	a0210806 	eorge	r0, r1, r6, lsl #16
     11c:	31bbbc84 			; <UNDEFINED> instruction: 0x31bbbc84
     120:	01040200 	mrseq	r0, R12_usr
     124:	08068206 	stmdaeq	r6, {r1, r2, r9, pc}
     128:	0200bb21 	andeq	fp, r0, #33792	; 0x8400
     12c:	66060104 	strvs	r0, [r6], -r4, lsl #2
     130:	83220806 	teqhi	r2, #393216	; 0x60000
     134:	2f4bca08 	svccs	0x004bca08
     138:	0402002f 	streq	r0, [r2], #-47	; 0x2f
     13c:	06660601 	strbteq	r0, [r6], -r1, lsl #12
     140:	304d2508 	subcc	r2, sp, r8, lsl #10
     144:	02002d2f 	andeq	r2, r0, #3008	; 0xbc0
     148:	002f0204 	eoreq	r0, pc, r4, lsl #4
     14c:	65020402 	strvs	r0, [r2, #-1026]	; 0x402
     150:	01040200 	mrseq	r0, R12_usr
     154:	4d062e06 	stcmi	14, cr2, [r6, #-24]	; 0xffffffe8
     158:	01001602 	tsteq	r0, r2, lsl #12
     15c:	0002f501 	andeq	pc, r2, r1, lsl #10
     160:	6a000200 	bvs	968 <__code_start__-0x7698>
     164:	02000001 	andeq	r0, r0, #1
     168:	0d0efb01 	vstreq	d15, [lr, #-4]
     16c:	01010100 	mrseq	r0, (UNDEF: 17)
     170:	00000001 	andeq	r0, r0, r1
     174:	01000001 	tsteq	r0, r1
     178:	7273752f 	rsbsvc	r7, r3, #197132288	; 0xbc00000
     17c:	636f6c2f 	cmnvs	pc, #12032	; 0x2f00
     180:	432f6c61 	teqmi	pc, #24832	; 0x6100
     184:	616c6c65 	cmnvs	ip, r5, ror #24
     188:	72612f72 	rsbvc	r2, r1, #456	; 0x1c8
     18c:	6f6e2d6d 	svcvs	0x006e2d6d
     190:	652d656e 	strvs	r6, [sp, #-1390]!	; 0x56e
     194:	2f696261 	svccs	0x00696261
     198:	2e382e34 	mrccs	14, 1, r2, cr8, cr4, {1}
     19c:	73632d33 	cmnvc	r3, #3264	; 0xcc0
     1a0:	65303731 	ldrvs	r3, [r0, #-1841]!	; 0x731
     1a4:	62696c2f 	rsbvs	r6, r9, #12032	; 0x2f00
     1a8:	6363672f 	cmnvs	r3, #12320768	; 0xbc0000
     1ac:	6d72612f 	ldfvse	f6, [r2, #-188]!	; 0xffffff44
     1b0:	6e6f6e2d 	cdpvs	14, 6, cr6, cr15, cr13, {1}
     1b4:	61652d65 	cmnvs	r5, r5, ror #26
     1b8:	342f6962 	strtcc	r6, [pc], #-2402	; 1c0 <__code_start__-0x7e40>
     1bc:	332e382e 	teqcc	lr, #3014656	; 0x2e0000
     1c0:	636e692f 	cmnvs	lr, #770048	; 0xbc000
     1c4:	6564756c 	strbvs	r7, [r4, #-1388]!	; 0x56c
     1c8:	73552f00 	cmpvc	r5, #0, 30
     1cc:	2f737265 	svccs	0x00737265
     1d0:	61697262 	cmnvs	r9, r2, ror #4
     1d4:	6e756a6e 	vsubvs.f32	s13, s10, s29
     1d8:	7365442f 	cmnvc	r5, #788529152	; 0x2f000000
     1dc:	706f746b 	rsbvc	r7, pc, fp, ror #8
     1e0:	6863732f 	stmdavs	r3!, {r0, r1, r2, r3, r5, r8, r9, ip, sp, lr}^
     1e4:	2f6c6f6f 	svccs	0x006c6f6f
     1e8:	69727053 	ldmdbvs	r2!, {r0, r1, r4, r6, ip, sp, lr}^
     1ec:	3931676e 	ldmdbcc	r1!, {r1, r2, r3, r5, r6, r8, r9, sl, sp, lr}
     1f0:	432f3032 	teqmi	pc, #50	; 0x32
     1f4:	30343253 	eorscc	r3, r4, r3, asr r2
     1f8:	632f584c 	teqvs	pc, #76, 16	; 0x4c0000
     1fc:	30343273 	eorscc	r3, r4, r3, ror r2
     200:	322d786c 	eorcc	r7, sp, #108, 16	; 0x6c0000
     204:	72707330 	rsbsvc	r7, r0, #48, 6	; 0xc0000000
     208:	62696c2f 	rsbvs	r6, r9, #12032	; 0x2f00
     20c:	692f6970 	stmdbvs	pc!, {r4, r5, r6, r8, fp, sp, lr}	; <UNPREDICTABLE>
     210:	756c636e 	strbvc	r6, [ip, #-878]!	; 0x36e
     214:	2f006564 	svccs	0x00006564
     218:	2f727375 	svccs	0x00727375
     21c:	61636f6c 	cmnvs	r3, ip, ror #30
     220:	65432f6c 	strbvs	r2, [r3, #-3948]	; 0xf6c
     224:	72616c6c 	rsbvc	r6, r1, #108, 24	; 0x6c00
     228:	6d72612f 	ldfvse	f6, [r2, #-188]!	; 0xffffff44
     22c:	6e6f6e2d 	cdpvs	14, 6, cr6, cr15, cr13, {1}
     230:	61652d65 	cmnvs	r5, r5, ror #26
     234:	342f6962 	strtcc	r6, [pc], #-2402	; 23c <__code_start__-0x7dc4>
     238:	332e382e 	teqcc	lr, #3014656	; 0x2e0000
     23c:	3173632d 	cmncc	r3, sp, lsr #6
     240:	2f653037 	svccs	0x00653037
     244:	2d6d7261 	sfmcs	f7, 2, [sp, #-388]!	; 0xfffffe7c
     248:	656e6f6e 	strbvs	r6, [lr, #-3950]!	; 0xf6e
     24c:	6261652d 	rsbvs	r6, r1, #188743680	; 0xb400000
     250:	6e692f69 	cdpvs	15, 6, cr2, cr9, cr9, {3}
     254:	64756c63 	ldrbtvs	r6, [r5], #-3171	; 0xc63
     258:	6d000065 	stcvs	0, cr0, [r0, #-404]	; 0xfffffe6c
     25c:	632e756d 	teqvs	lr, #457179136	; 0x1b400000
     260:	00000000 	andeq	r0, r0, r0
     264:	2e756d6d 	cdpcs	13, 7, cr6, cr5, cr13, {3}
     268:	00000068 	andeq	r0, r0, r8, rrx
     26c:	64747300 	ldrbtvs	r7, [r4], #-768	; 0x300
     270:	2e666564 	cdpcs	5, 6, cr6, cr6, cr4, {3}
     274:	00010068 	andeq	r0, r1, r8, rrx
     278:	64747300 	ldrbtvs	r7, [r4], #-768	; 0x300
     27c:	2d746e69 	ldclcs	14, cr6, [r4, #-420]!	; 0xfffffe5c
     280:	2e636367 	cdpcs	3, 6, cr6, cr3, cr7, {3}
     284:	00010068 	andeq	r0, r1, r8, rrx
     288:	6d726100 	ldfvse	f6, [r2, #-0]
     28c:	632d3676 	teqvs	sp, #123731968	; 0x7600000
     290:	2e353170 	mrccs	1, 1, r3, cr5, cr0, {3}
     294:	00000068 	andeq	r0, r0, r8, rrx
     298:	6d726100 	ldfvse	f6, [r2, #-0]
     29c:	762d3676 			; <UNDEFINED> instruction: 0x762d3676
     2a0:	00682e6d 	rsbeq	r2, r8, sp, ror #28
     2a4:	72000000 	andvc	r0, r0, #0
     2a8:	682e6970 	stmdavs	lr!, {r4, r5, r6, r8, fp, sp, lr}
     2ac:	00000200 	andeq	r0, r0, r0, lsl #4
     2b0:	69727473 	ldmdbvs	r2!, {r0, r1, r4, r5, r6, sl, ip, sp, lr}^
     2b4:	682e676e 	stmdavs	lr!, {r1, r2, r3, r5, r6, r8, r9, sl, sp, lr}
     2b8:	00000300 	andeq	r0, r0, r0, lsl #6
     2bc:	2d697072 	stclcs	0, cr7, [r9, #-456]!	; 0xfffffe38
     2c0:	65746e69 	ldrbvs	r6, [r4, #-3689]!	; 0xe69
     2c4:	70757272 	rsbsvc	r7, r5, r2, ror r2
     2c8:	682e7374 	stmdavs	lr!, {r2, r4, r5, r6, r8, r9, ip, sp, lr}
     2cc:	00000200 	andeq	r0, r0, r0, lsl #4
     2d0:	02050000 	andeq	r0, r5, #0
     2d4:	0000839c 	muleq	r0, ip, r3
     2d8:	2f010a03 	svccs	0x00010a03
     2dc:	004b4c2f 	subeq	r4, fp, pc, lsr #24
     2e0:	06010402 	streq	r0, [r1], -r2, lsl #8
     2e4:	2108064a 	tstcs	r8, sl, asr #12
     2e8:	02002f2f 	andeq	r2, r0, #47, 30	; 0xbc
     2ec:	66060104 	strvs	r0, [r6], -r4, lsl #2
     2f0:	08220806 	stmdaeq	r2!, {r1, r2, fp}
     2f4:	03020423 	movweq	r0, #9251	; 0x2423
     2f8:	048200e0 	streq	r0, [r2], #224	; 0xe0
     2fc:	7fa20301 	svcvc	0x00a20301
     300:	0402004a 	streq	r0, [r2], #-74	; 0x4a
     304:	004a0601 	subeq	r0, sl, r1, lsl #12
     308:	06020402 	streq	r0, [r2], -r2, lsl #8
     30c:	02002508 	andeq	r2, r0, #8, 10	; 0x2000000
     310:	00670204 	rsbeq	r0, r7, r4, lsl #4
     314:	7d020402 	cfstrsvc	mvf0, [r2, #-8]
     318:	0402006b 	streq	r0, [r2], #-107	; 0x6b
     31c:	2f524501 	svccs	0x00524501
     320:	2f682fbc 	svccs	0x00682fbc
     324:	4b6a2f68 	blmi	1a8c0cc <__bss_end__+0x1a7f704>
     328:	01040200 	mrseq	r0, R12_usr
     32c:	08064a06 	stmdaeq	r6, {r1, r2, r9, fp, lr}
     330:	0200bd22 	andeq	fp, r0, #2176	; 0x880
     334:	4a060104 	bmi	18074c <__bss_end__+0x173d84>
     338:	03210806 	teqeq	r1, #393216	; 0x60000
     33c:	009ff209 	addseq	pc, pc, r9, lsl #4
     340:	06010402 	streq	r0, [r1], -r2, lsl #8
     344:	2108064a 	tstcs	r8, sl, asr #12
     348:	01040200 	mrseq	r0, R12_usr
     34c:	08064a06 	stmdaeq	r6, {r1, r2, r9, fp, lr}
     350:	04020021 	streq	r0, [r2], #-33	; 0x21
     354:	064a0601 	strbeq	r0, [sl], -r1, lsl #12
     358:	4b2f2208 	blmi	bc8b80 <__bss_end__+0xbbc1b8>
     35c:	01040200 	mrseq	r0, R12_usr
     360:	08066606 	stmdaeq	r6, {r1, r2, r9, sl, sp, lr}
     364:	30674f21 	rsbcc	r4, r7, r1, lsr #30
     368:	6768a067 	strbvs	sl, [r8, -r7, rrx]!
     36c:	85834b83 	strhi	r4, [r3, #2947]	; 0xb83
     370:	00d7ae08 	sbcseq	sl, r7, r8, lsl #28
     374:	06010402 	streq	r0, [r1], -r2, lsl #8
     378:	2108064a 	tstcs	r8, sl, asr #12
     37c:	01040200 	mrseq	r0, R12_usr
     380:	08064a06 	stmdaeq	r6, {r1, r2, r9, fp, lr}
     384:	04020021 	streq	r0, [r2], #-33	; 0x21
     388:	004a0601 	subeq	r0, sl, r1, lsl #12
     38c:	06020402 	streq	r0, [r2], -r2, lsl #8
     390:	02002208 	andeq	r2, r0, #8, 4	; 0x80000000
     394:	009f0204 	addseq	r0, pc, r4, lsl #4
     398:	2f020402 	svccs	0x00020402
     39c:	02040200 	andeq	r0, r4, #0, 4
     3a0:	0402002b 	streq	r0, [r2], #-43	; 0x2b
     3a4:	06660601 	strbteq	r0, [r6], -r1, lsl #12
     3a8:	0067f44f 	rsbeq	pc, r7, pc, asr #8
     3ac:	06010402 	streq	r0, [r1], -r2, lsl #8
     3b0:	2408064a 	strcs	r0, [r8], #-1610	; 0x64a
     3b4:	01040200 	mrseq	r0, R12_usr
     3b8:	08064a06 	stmdaeq	r6, {r1, r2, r9, fp, lr}
     3bc:	22086822 	andcs	r6, r8, #2228224	; 0x220000
     3c0:	0402004b 	streq	r0, [r2], #-75	; 0x4b
     3c4:	064a0601 	strbeq	r0, [sl], -r1, lsl #12
     3c8:	004b2408 	subeq	r2, fp, r8, lsl #8
     3cc:	06010402 	streq	r0, [r1], -r2, lsl #8
     3d0:	2208064a 	andcs	r0, r8, #77594624	; 0x4a00000
     3d4:	304bfa4b 	subcc	pc, fp, fp, asr #20
     3d8:	002f4c30 	eoreq	r4, pc, r0, lsr ip	; <UNPREDICTABLE>
     3dc:	06010402 	streq	r0, [r1], -r2, lsl #8
     3e0:	2108064a 	tstcs	r8, sl, asr #12
     3e4:	01040200 	mrseq	r0, R12_usr
     3e8:	08064a06 	stmdaeq	r6, {r1, r2, r9, fp, lr}
     3ec:	4e2fd821 	cdpmi	8, 2, cr13, cr15, cr1, {1}
     3f0:	0402004b 	streq	r0, [r2], #-75	; 0x4b
     3f4:	064a0601 	strbeq	r0, [sl], -r1, lsl #12
     3f8:	02002108 	andeq	r2, r0, #8, 2
     3fc:	4a060104 	bmi	180814 <__bss_end__+0x173e4c>
     400:	2f210806 	svccs	0x00210806
     404:	002f4bd7 	ldrdeq	r4, [pc], -r7	; <UNPREDICTABLE>
     408:	06010402 	streq	r0, [r1], -r2, lsl #8
     40c:	2208064a 	andcs	r0, r8, #77594624	; 0x4a00000
     410:	004bbc4b 	subeq	fp, fp, fp, asr #24
     414:	06010402 	streq	r0, [r1], -r2, lsl #8
     418:	2108064a 	tstcs	r8, sl, asr #12
     41c:	2f4bbb2f 	svccs	0x004bbb2f
     420:	01040200 	mrseq	r0, R12_usr
     424:	08064a06 	stmdaeq	r6, {r1, r2, r9, fp, lr}
     428:	14bd4b22 	ldrtne	r4, [sp], #2850	; 0xb22
     42c:	4f2f2f30 	svcmi	0x002f2f30
     430:	0402004b 	streq	r0, [r2], #-75	; 0x4b
     434:	064a0601 	strbeq	r0, [sl], -r1, lsl #12
     438:	02002108 	andeq	r2, r0, #8, 2
     43c:	4a060104 	bmi	180854 <__bss_end__+0x173e8c>
     440:	00210806 	eoreq	r0, r1, r6, lsl #16
     444:	06010402 	streq	r0, [r1], -r2, lsl #8
     448:	21080666 	tstcs	r8, r6, ror #12
     44c:	6767f567 	strbvs	pc, [r7, -r7, ror #10]!	; <UNPREDICTABLE>
     450:	0016022f 	andseq	r0, r6, pc, lsr #4
     454:	02800101 	addeq	r0, r0, #1073741824	; 0x40000000
     458:	00020000 	andeq	r0, r2, r0
     45c:	0000015e 	andeq	r0, r0, lr, asr r1
     460:	0efb0102 	cdpeq	1, 15, cr0, cr11, cr2, {0}
     464:	0101000d 	tsteq	r1, sp
     468:	00000101 	andeq	r0, r0, r1, lsl #2
     46c:	00000100 	andeq	r0, r0, r0, lsl #2
     470:	73752f01 	cmnvc	r5, #1, 30
     474:	6f6c2f72 	svcvs	0x006c2f72
     478:	2f6c6163 	svccs	0x006c6163
     47c:	6c6c6543 	cfstr64vs	mvdx6, [ip], #-268	; 0xfffffef4
     480:	612f7261 	teqvs	pc, r1, ror #4
     484:	6e2d6d72 	mcrvs	13, 1, r6, cr13, cr2, {3}
     488:	2d656e6f 	stclcs	14, cr6, [r5, #-444]!	; 0xfffffe44
     48c:	69626165 	stmdbvs	r2!, {r0, r2, r5, r6, r8, sp, lr}^
     490:	382e342f 	stmdacc	lr!, {r0, r1, r2, r3, r5, sl, ip, sp}
     494:	632d332e 	teqvs	sp, #-1207959552	; 0xb8000000
     498:	30373173 	eorscc	r3, r7, r3, ror r1
     49c:	696c2f65 	stmdbvs	ip!, {r0, r2, r5, r6, r8, r9, sl, fp, sp}^
     4a0:	63672f62 	cmnvs	r7, #392	; 0x188
     4a4:	72612f63 	rsbvc	r2, r1, #396	; 0x18c
     4a8:	6f6e2d6d 	svcvs	0x006e2d6d
     4ac:	652d656e 	strvs	r6, [sp, #-1390]!	; 0x56e
     4b0:	2f696261 	svccs	0x00696261
     4b4:	2e382e34 	mrccs	14, 1, r2, cr8, cr4, {1}
     4b8:	6e692f33 	mcrvs	15, 3, r2, cr9, cr3, {1}
     4bc:	64756c63 	ldrbtvs	r6, [r5], #-3171	; 0xc63
     4c0:	552f0065 	strpl	r0, [pc, #-101]!	; 463 <__code_start__-0x7b9d>
     4c4:	73726573 	cmnvc	r2, #482344960	; 0x1cc00000
     4c8:	6972622f 	ldmdbvs	r2!, {r0, r1, r2, r3, r5, r9, sp, lr}^
     4cc:	756a6e61 	strbvc	r6, [sl, #-3681]!	; 0xe61
     4d0:	65442f6e 	strbvs	r2, [r4, #-3950]	; 0xf6e
     4d4:	6f746b73 	svcvs	0x00746b73
     4d8:	63732f70 	cmnvs	r3, #112, 30	; 0x1c0
     4dc:	6c6f6f68 	stclvs	15, cr6, [pc], #-416	; 344 <__code_start__-0x7cbc>
     4e0:	7270532f 	rsbsvc	r5, r0, #-1140850688	; 0xbc000000
     4e4:	31676e69 	cmncc	r7, r9, ror #28
     4e8:	2f303239 	svccs	0x00303239
     4ec:	34325343 	ldrtcc	r5, [r2], #-835	; 0x343
     4f0:	2f584c30 	svccs	0x00584c30
     4f4:	34327363 	ldrtcc	r7, [r2], #-867	; 0x363
     4f8:	2d786c30 	ldclcs	12, cr6, [r8, #-192]!	; 0xffffff40
     4fc:	70733032 	rsbsvc	r3, r3, r2, lsr r0
     500:	696c2f72 	stmdbvs	ip!, {r1, r4, r5, r6, r8, r9, sl, fp, sp}^
     504:	2f697062 	svccs	0x00697062
     508:	6362696c 	cmnvs	r2, #108, 18	; 0x1b0000
     50c:	73552f00 	cmpvc	r5, #0, 30
     510:	2f737265 	svccs	0x00737265
     514:	61697262 	cmnvs	r9, r2, ror #4
     518:	6e756a6e 	vsubvs.f32	s13, s10, s29
     51c:	7365442f 	cmnvc	r5, #788529152	; 0x2f000000
     520:	706f746b 	rsbvc	r7, pc, fp, ror #8
     524:	6863732f 	stmdavs	r3!, {r0, r1, r2, r3, r5, r8, r9, ip, sp, lr}^
     528:	2f6c6f6f 	svccs	0x006c6f6f
     52c:	69727053 	ldmdbvs	r2!, {r0, r1, r4, r6, ip, sp, lr}^
     530:	3931676e 	ldmdbcc	r1!, {r1, r2, r3, r5, r6, r8, r9, sl, sp, lr}
     534:	432f3032 	teqmi	pc, #50	; 0x32
     538:	30343253 	eorscc	r3, r4, r3, asr r2
     53c:	632f584c 	teqvs	pc, #76, 16	; 0x4c0000
     540:	30343273 	eorscc	r3, r4, r3, ror r2
     544:	322d786c 	eorcc	r7, sp, #108, 16	; 0x6c0000
     548:	72707330 	rsbsvc	r7, r0, #48, 6	; 0xc0000000
     54c:	62696c2f 	rsbvs	r6, r9, #12032	; 0x2f00
     550:	692f6970 	stmdbvs	pc!, {r4, r5, r6, r8, fp, sp, lr}	; <UNPREDICTABLE>
     554:	756c636e 	strbvc	r6, [ip, #-878]!	; 0x36e
     558:	00006564 	andeq	r6, r0, r4, ror #10
     55c:	2d756d6d 	ldclcs	13, cr6, [r5, #-436]!	; 0xfffffe4c
     560:	706c6568 	rsbvc	r6, ip, r8, ror #10
     564:	2e737265 	cdpcs	2, 7, cr7, cr3, cr5, {3}
     568:	00000063 	andeq	r0, r0, r3, rrx
     56c:	6d726100 	ldfvse	f6, [r2, #-0]
     570:	632d3676 	teqvs	sp, #123731968	; 0x7600000
     574:	2e353170 	mrccs	1, 1, r3, cr5, cr0, {3}
     578:	00000068 	andeq	r0, r0, r8, rrx
     57c:	6d726100 	ldfvse	f6, [r2, #-0]
     580:	762d3676 			; <UNDEFINED> instruction: 0x762d3676
     584:	00682e6d 	rsbeq	r2, r8, sp, ror #28
     588:	73000000 	movwvc	r0, #0
     58c:	6e696474 	mcrvs	4, 3, r6, cr9, cr4, {3}
     590:	63672d74 	cmnvs	r7, #116, 26	; 0x1d00
     594:	00682e63 	rsbeq	r2, r8, r3, ror #28
     598:	6c000001 	stcvs	0, cr0, [r0], {1}
     59c:	2d636269 	sfmcs	f6, 2, [r3, #-420]!	; 0xfffffe5c
     5a0:	72747865 	rsbsvc	r7, r4, #6619136	; 0x650000
     5a4:	00682e61 	rsbeq	r2, r8, r1, ror #28
     5a8:	72000002 	andvc	r0, r0, #2
     5ac:	682e6970 	stmdavs	lr!, {r4, r5, r6, r8, fp, sp, lr}
     5b0:	00000300 	andeq	r0, r0, r0, lsl #6
     5b4:	2e756d6d 	cdpcs	13, 7, cr6, cr5, cr13, {3}
     5b8:	00000068 	andeq	r0, r0, r8, rrx
     5bc:	05000000 	streq	r0, [r0, #-0]
     5c0:	008c7802 	addeq	r7, ip, r2, lsl #16
     5c4:	010e0300 	mrseq	r0, ELR_hyp
     5c8:	2f430867 	svccs	0x00430867
     5cc:	1903dd4b 	stmdbne	r3, {r0, r1, r3, r6, r8, sl, fp, ip, lr, pc}
     5d0:	004c014a 	subeq	r0, ip, sl, asr #2
     5d4:	06010402 	streq	r0, [r1], -r2, lsl #8
     5d8:	2108069e 			; <UNDEFINED> instruction: 0x2108069e
     5dc:	01040200 	mrseq	r0, R12_usr
     5e0:	08066606 	stmdaeq	r6, {r1, r2, r9, sl, sp, lr}
     5e4:	04020021 	streq	r0, [r2], #-33	; 0x21
     5e8:	06660601 	strbteq	r0, [r6], -r1, lsl #12
     5ec:	02002308 	andeq	r2, r0, #8, 6	; 0x20000000
     5f0:	66060104 	strvs	r0, [r6], -r4, lsl #2
     5f4:	00210806 	eoreq	r0, r1, r6, lsl #16
     5f8:	06010402 	streq	r0, [r1], -r2, lsl #8
     5fc:	21080666 	tstcs	r8, r6, ror #12
     600:	01040200 	mrseq	r0, R12_usr
     604:	03066606 	movweq	r6, #26118	; 0x6606
     608:	00200809 	eoreq	r0, r0, r9, lsl #16
     60c:	06010402 	streq	r0, [r1], -r2, lsl #8
     610:	21080666 	tstcs	r8, r6, ror #12
     614:	01040200 	mrseq	r0, R12_usr
     618:	08066606 	stmdaeq	r6, {r1, r2, r9, sl, sp, lr}
     61c:	04020021 	streq	r0, [r2], #-33	; 0x21
     620:	06660601 	strbteq	r0, [r6], -r1, lsl #12
     624:	ae082108 	adfgee	f2, f0, #0.0
     628:	bb4b304b 	bllt	12cc75c <__bss_end__+0x12bfd94>
     62c:	9fbbbbbb 	svcls	0x00bbbbbb
     630:	bbbbbb9f 	bllt	feeef4b4 <__bss_end__+0xfeee2aec>
     634:	9fbbbbbb 	svcls	0x00bbbbbb
     638:	bbbbbb9f 	bllt	feeef4bc <__bss_end__+0xfeee2af4>
     63c:	50193402 	andspl	r3, r9, r2, lsl #8
     640:	834b4b01 	movthi	r4, #47873	; 0xbb01
     644:	004bf867 	subeq	pc, fp, r7, ror #16
     648:	06010402 	streq	r0, [r1], -r2, lsl #8
     64c:	21080666 	tstcs	r8, r6, ror #12
     650:	01040200 	mrseq	r0, R12_usr
     654:	08068206 	stmdaeq	r6, {r1, r2, r9, pc}
     658:	04020021 	streq	r0, [r2], #-33	; 0x21
     65c:	06660601 	strbteq	r0, [r6], -r1, lsl #12
     660:	02002108 	andeq	r2, r0, #8, 2
     664:	66060104 	strvs	r0, [r6], -r4, lsl #2
     668:	00210806 	eoreq	r0, r1, r6, lsl #16
     66c:	06010402 	streq	r0, [r1], -r2, lsl #8
     670:	21080666 	tstcs	r8, r6, ror #12
     674:	01040200 	mrseq	r0, R12_usr
     678:	08066606 	stmdaeq	r6, {r1, r2, r9, sl, sp, lr}
     67c:	04020021 	streq	r0, [r2], #-33	; 0x21
     680:	06660601 	strbteq	r0, [r6], -r1, lsl #12
     684:	02002108 	andeq	r2, r0, #8, 2
     688:	66060104 	strvs	r0, [r6], -r4, lsl #2
     68c:	08210806 	stmdaeq	r1!, {r1, r2, fp}
     690:	4b4c1593 	blmi	1305ce4 <__bss_end__+0x12f931c>
     694:	4a110367 	bmi	441438 <__bss_end__+0x434a70>
     698:	01040200 	mrseq	r0, R12_usr
     69c:	02006606 	andeq	r6, r0, #6291456	; 0x600000
     6a0:	c8080204 	stmdagt	r8, {r2, r9}
     6a4:	01040200 	mrseq	r0, R12_usr
     6a8:	2108064a 	tstcs	r8, sl, asr #12
     6ac:	4b4b2208 	blmi	12c8ed4 <__bss_end__+0x12bc50c>
     6b0:	04020067 	streq	r0, [r2], #-103	; 0x67
     6b4:	20080601 	andcs	r0, r8, r1, lsl #12
     6b8:	4c9f4b06 	vldmiami	pc, {d4-d6}
     6bc:	bb9f9fbb 	bllt	fe7e85b0 <__bss_end__+0xfe7dbbe8>
     6c0:	0200bbbb 	andeq	fp, r0, #191488	; 0x2ec00
     6c4:	08060104 	stmdaeq	r6, {r2, r8}
     6c8:	bb4b0658 	bllt	12c2030 <__bss_end__+0x12b5668>
     6cc:	02a0bbbb 	adceq	fp, r0, #191488	; 0x2ec00
     6d0:	2f2f192a 	svccs	0x002f192a
     6d4:	0004022f 	andeq	r0, r4, pc, lsr #4
     6d8:	02310101 	eorseq	r0, r1, #1073741824	; 0x40000000
     6dc:	00020000 	andeq	r0, r2, r0
     6e0:	0000011f 	andeq	r0, r0, pc, lsl r1
     6e4:	0efb0102 	cdpeq	1, 15, cr0, cr11, cr2, {0}
     6e8:	0101000d 	tsteq	r1, sp
     6ec:	00000101 	andeq	r0, r0, r1, lsl #2
     6f0:	00000100 	andeq	r0, r0, r0, lsl #2
     6f4:	73752f01 	cmnvc	r5, #1, 30
     6f8:	6f6c2f72 	svcvs	0x006c2f72
     6fc:	2f6c6163 	svccs	0x006c6163
     700:	6c6c6543 	cfstr64vs	mvdx6, [ip], #-268	; 0xfffffef4
     704:	612f7261 	teqvs	pc, r1, ror #4
     708:	6e2d6d72 	mcrvs	13, 1, r6, cr13, cr2, {3}
     70c:	2d656e6f 	stclcs	14, cr6, [r5, #-444]!	; 0xfffffe44
     710:	69626165 	stmdbvs	r2!, {r0, r2, r5, r6, r8, sp, lr}^
     714:	382e342f 	stmdacc	lr!, {r0, r1, r2, r3, r5, sl, ip, sp}
     718:	632d332e 	teqvs	sp, #-1207959552	; 0xb8000000
     71c:	30373173 	eorscc	r3, r7, r3, ror r1
     720:	696c2f65 	stmdbvs	ip!, {r0, r2, r5, r6, r8, r9, sl, fp, sp}^
     724:	63672f62 	cmnvs	r7, #392	; 0x188
     728:	72612f63 	rsbvc	r2, r1, #396	; 0x18c
     72c:	6f6e2d6d 	svcvs	0x006e2d6d
     730:	652d656e 	strvs	r6, [sp, #-1390]!	; 0x56e
     734:	2f696261 	svccs	0x00696261
     738:	2e382e34 	mrccs	14, 1, r2, cr8, cr4, {1}
     73c:	6e692f33 	mcrvs	15, 3, r2, cr9, cr3, {1}
     740:	64756c63 	ldrbtvs	r6, [r5], #-3171	; 0xc63
     744:	552f0065 	strpl	r0, [pc, #-101]!	; 6e7 <__code_start__-0x7919>
     748:	73726573 	cmnvc	r2, #482344960	; 0x1cc00000
     74c:	6972622f 	ldmdbvs	r2!, {r0, r1, r2, r3, r5, r9, sp, lr}^
     750:	756a6e61 	strbvc	r6, [sl, #-3681]!	; 0xe61
     754:	65442f6e 	strbvs	r2, [r4, #-3950]	; 0xf6e
     758:	6f746b73 	svcvs	0x00746b73
     75c:	63732f70 	cmnvs	r3, #112, 30	; 0x1c0
     760:	6c6f6f68 	stclvs	15, cr6, [pc], #-416	; 5c8 <__code_start__-0x7a38>
     764:	7270532f 	rsbsvc	r5, r0, #-1140850688	; 0xbc000000
     768:	31676e69 	cmncc	r7, r9, ror #28
     76c:	2f303239 	svccs	0x00303239
     770:	34325343 	ldrtcc	r5, [r2], #-835	; 0x343
     774:	2f584c30 	svccs	0x00584c30
     778:	34327363 	ldrtcc	r7, [r2], #-867	; 0x363
     77c:	2d786c30 	ldclcs	12, cr6, [r8, #-192]!	; 0xffffff40
     780:	70733032 	rsbsvc	r3, r3, r2, lsr r0
     784:	696c2f72 	stmdbvs	ip!, {r1, r4, r5, r6, r8, r9, sl, fp, sp}^
     788:	2f697062 	svccs	0x00697062
     78c:	6c636e69 	stclvs	14, cr6, [r3], #-420	; 0xfffffe5c
     790:	00656475 	rsbeq	r6, r5, r5, ror r4
     794:	6d656d00 	stclvs	13, cr6, [r5, #-0]
     798:	63656863 	cmnvs	r5, #6488064	; 0x630000
     79c:	00632e6b 	rsbeq	r2, r3, fp, ror #28
     7a0:	62000000 	andvs	r0, r0, #0
     7a4:	732d7469 	teqvc	sp, #1761607680	; 0x69000000
     7a8:	6f707075 	svcvs	0x00707075
     7ac:	682e7472 	stmdavs	lr!, {r1, r4, r5, r6, sl, ip, sp, lr}
     7b0:	00000000 	andeq	r0, r0, r0
     7b4:	34317063 	ldrtcc	r7, [r1], #-99	; 0x63
     7b8:	6265642d 	rsbvs	r6, r5, #754974720	; 0x2d000000
     7bc:	682e6775 	stmdavs	lr!, {r0, r2, r4, r5, r6, r8, r9, sl, sp, lr}
     7c0:	00000000 	andeq	r0, r0, r0
     7c4:	766d7261 	strbtvc	r7, [sp], -r1, ror #4
     7c8:	6d762d36 	ldclvs	13, cr2, [r6, #-216]!	; 0xffffff28
     7cc:	0000682e 	andeq	r6, r0, lr, lsr #16
     7d0:	74730000 	ldrbtvc	r0, [r3], #-0
     7d4:	746e6964 	strbtvc	r6, [lr], #-2404	; 0x964
     7d8:	6363672d 	cmnvs	r3, #11796480	; 0xb40000
     7dc:	0100682e 	tsteq	r0, lr, lsr #16
     7e0:	656d0000 	strbvs	r0, [sp, #-0]!
     7e4:	6568636d 	strbvs	r6, [r8, #-877]!	; 0x36d
     7e8:	682e6b63 	stmdavs	lr!, {r0, r1, r5, r6, r8, r9, fp, sp, lr}
     7ec:	00000000 	andeq	r0, r0, r0
     7f0:	2e697072 	mcrcs	0, 3, r7, cr9, cr2, {3}
     7f4:	00020068 	andeq	r0, r2, r8, rrx
     7f8:	756d6d00 	strbvc	r6, [sp, #-3328]!	; 0xd00
     7fc:	0000682e 	andeq	r6, r0, lr, lsr #16
     800:	00000000 	andeq	r0, r0, r0
     804:	958c0205 	strls	r0, [ip, #517]	; 0x205
     808:	1d030000 	stcne	0, cr0, [r3, #-0]
     80c:	67672f01 	strbvs	r2, [r7, -r1, lsl #30]!
     810:	4b9fc013 	blmi	fe7f0864 <__bss_end__+0xfe7e3e9c>
     814:	01040200 	mrseq	r0, R12_usr
     818:	08066606 	stmdaeq	r6, {r1, r2, r9, sl, sp, lr}
     81c:	04020021 	streq	r0, [r2], #-33	; 0x21
     820:	06660601 	strbteq	r0, [r6], -r1, lsl #12
     824:	02002108 	andeq	r2, r0, #8, 2
     828:	66060104 	strvs	r0, [r6], -r4, lsl #2
     82c:	d7210806 	strle	r0, [r1, -r6, lsl #16]!
     830:	3c080d03 	stccc	13, cr0, [r8], {3}
     834:	02042f67 	andeq	r2, r4, #412	; 0x19c
     838:	08666003 	stmdaeq	r6!, {r0, r1, sp, lr}^
     83c:	4b590859 	blmi	16429a8 <__bss_end__+0x1635fe0>
     840:	1e030104 	adfnes	f0, f3, f4
     844:	0083f64a 	addeq	pc, r3, sl, asr #12
     848:	06010402 	streq	r0, [r1], -r2, lsl #8
     84c:	2108064a 	tstcs	r8, sl, asr #12
     850:	01040200 	mrseq	r0, R12_usr
     854:	08064a06 	stmdaeq	r6, {r1, r2, r9, fp, lr}
     858:	2d2f3022 	stccs	0, cr3, [pc, #-136]!	; 7d8 <__code_start__-0x7828>
     85c:	d6090384 	strle	r0, [r9], -r4, lsl #7
     860:	9e240313 	mcrls	3, 1, r0, cr4, cr3, {0}
     864:	67030304 	strvs	r0, [r3, -r4, lsl #6]
     868:	01043266 	tsteq	r4, r6, ror #4
     86c:	4d2e2103 	stfmis	f2, [lr, #-12]!
     870:	3c028467 	cfstrscc	mvf8, [r2], {103}	; 0x67
     874:	d9d9d914 	ldmible	r9, {r2, r4, r8, fp, ip, lr, pc}^
     878:	a1d9d9d9 	ldrsbge	sp, [r9, #153]	; 0x99
     87c:	a0834bd9 	ldrdge	r4, [r3], r9
     880:	f5d94f83 			; <UNDEFINED> instruction: 0xf5d94f83
     884:	d9d9d9d9 	ldmible	r9, {r0, r3, r4, r6, r7, r8, fp, ip, lr, pc}^
     888:	d9d9d9d9 	ldmible	r9, {r0, r3, r4, r6, r7, r8, fp, ip, lr, pc}^
     88c:	02d61403 	sbcseq	r1, r6, #50331648	; 0x3000000
     890:	2f2f153a 	svccs	0x002f153a
     894:	3c080c03 	stccc	12, cr0, [r8], {3}
     898:	02002f4c 	andeq	r2, r0, #76, 30	; 0x130
     89c:	66060104 	strvs	r0, [r6], -r4, lsl #2
     8a0:	9f240806 	svcls	0x00240806
     8a4:	01040200 	mrseq	r0, R12_usr
     8a8:	08064a06 	stmdaeq	r6, {r1, r2, r9, fp, lr}
     8ac:	a2bc8425 	adcsge	r8, ip, #620756992	; 0x25000000
     8b0:	a1a19f9f 	strexdge	r9, pc, [r1]
     8b4:	08834d34 	stmeq	r3, {r2, r4, r5, r8, sl, fp, lr}
     8b8:	2fa04b5c 	svccs	0x00a04b5c
     8bc:	01040200 	mrseq	r0, R12_usr
     8c0:	08066606 	stmdaeq	r6, {r1, r2, r9, sl, sp, lr}
     8c4:	3f089f21 	svccc	0x00089f21
     8c8:	02002f4c 	andeq	r2, r0, #76, 30	; 0x130
     8cc:	66060104 	strvs	r0, [r6], -r4, lsl #2
     8d0:	9f210806 	svcls	0x00210806
     8d4:	020067f4 	andeq	r6, r0, #244, 14	; 0x3d00000
     8d8:	66060104 	strvs	r0, [r6], -r4, lsl #2
     8dc:	bb230806 	bllt	8c28fc <__bss_end__+0x8b5f34>
     8e0:	020067f4 	andeq	r6, r0, #244, 14	; 0x3d00000
     8e4:	66060104 	strvs	r0, [r6], -r4, lsl #2
     8e8:	bb230806 	bllt	8c2908 <__bss_end__+0x8b5f40>
     8ec:	da302fd8 	ble	c0c854 <__bss_end__+0xbffe8c>
     8f0:	4b6a4b2f 	blmi	1a935b4 <__bss_end__+0x1a86bec>
     8f4:	04020067 	streq	r0, [r2], #-103	; 0x67
     8f8:	06660601 	strbteq	r0, [r6], -r1, lsl #12
     8fc:	4bd72108 	blmi	ff5c8d24 <__bss_end__+0xff5bc35c>
     900:	04020067 	streq	r0, [r2], #-103	; 0x67
     904:	06660601 	strbteq	r0, [r6], -r1, lsl #12
     908:	0e022108 	adfeqs	f2, f2, #0.0
     90c:	de010100 	adfles	f0, f1, f0
     910:	02000000 	andeq	r0, r0, #0
     914:	00008300 	andeq	r8, r0, r0, lsl #6
     918:	fb010200 	blx	41122 <__bss_end__+0x3475a>
     91c:	01000d0e 	tsteq	r0, lr, lsl #26
     920:	00010101 	andeq	r0, r1, r1, lsl #2
     924:	00010000 	andeq	r0, r1, r0
     928:	696c0100 	stmdbvs	ip!, {r8}^
     92c:	2f006362 	svccs	0x00006362
     930:	2f727375 	svccs	0x00727375
     934:	61636f6c 	cmnvs	r3, ip, ror #30
     938:	65432f6c 	strbvs	r2, [r3, #-3948]	; 0xf6c
     93c:	72616c6c 	rsbvc	r6, r1, #108, 24	; 0x6c00
     940:	6d72612f 	ldfvse	f6, [r2, #-188]!	; 0xffffff44
     944:	6e6f6e2d 	cdpvs	14, 6, cr6, cr15, cr13, {1}
     948:	61652d65 	cmnvs	r5, r5, ror #26
     94c:	342f6962 	strtcc	r6, [pc], #-2402	; 954 <__code_start__-0x76ac>
     950:	332e382e 	teqcc	lr, #3014656	; 0x2e0000
     954:	3173632d 	cmncc	r3, sp, lsr #6
     958:	2f653037 	svccs	0x00653037
     95c:	2f62696c 	svccs	0x0062696c
     960:	2f636367 	svccs	0x00636367
     964:	2d6d7261 	sfmcs	f7, 2, [sp, #-388]!	; 0xfffffe7c
     968:	656e6f6e 	strbvs	r6, [lr, #-3950]!	; 0xf6e
     96c:	6261652d 	rsbvs	r6, r1, #188743680	; 0xb400000
     970:	2e342f69 	cdpcs	15, 3, cr2, cr4, cr9, {3}
     974:	2f332e38 	svccs	0x00332e38
     978:	6c636e69 	stclvs	14, cr6, [r3], #-420	; 0xfffffe5c
     97c:	00656475 	rsbeq	r6, r5, r5, ror r4
     980:	73616800 	cmnvc	r1, #0, 16
     984:	00632e68 	rsbeq	r2, r3, r8, ror #28
     988:	73000001 	movwvc	r0, #1
     98c:	6e696474 	mcrvs	4, 3, r6, cr9, cr4, {3}
     990:	63672d74 	cmnvs	r7, #116, 26	; 0x1d00
     994:	00682e63 	rsbeq	r2, r8, r3, ror #28
     998:	00000002 	andeq	r0, r0, r2
     99c:	70020500 	andvc	r0, r2, r0, lsl #10
     9a0:	030000a3 	movweq	r0, #163	; 0xa3
     9a4:	3130010e 	teqcc	r0, lr, lsl #2
     9a8:	00312f84 	eorseq	r2, r1, r4, lsl #31
     9ac:	2f020402 	svccs	0x00020402
     9b0:	02040200 	andeq	r0, r4, #0, 4
     9b4:	04020083 	streq	r0, [r2], #-131	; 0x83
     9b8:	02008302 	andeq	r8, r0, #134217728	; 0x8000000
     9bc:	002f0204 	eoreq	r0, pc, r4, lsl #4
     9c0:	2f020402 	svccs	0x00020402
     9c4:	02040200 	andeq	r0, r4, #0, 4
     9c8:	04020029 	streq	r0, [r2], #-41	; 0x29
     9cc:	062e0601 	strteq	r0, [lr], -r1, lsl #12
     9d0:	d74a0903 	strble	r0, [sl, -r3, lsl #18]
     9d4:	2f4b2f83 	svccs	0x004b2f83
     9d8:	2f2f832f 	svccs	0x002f832f
     9dc:	322f4b2f 	eorcc	r4, pc, #48128	; 0xbc00
     9e0:	2f2f2f2f 	svccs	0x002f2f2f
     9e4:	5a03302f 	bpl	ccaa8 <__bss_end__+0xc00e0>
     9e8:	2e27032e 	cdpcs	3, 2, cr0, cr7, cr14, {1}
     9ec:	01000402 	tsteq	r0, r2, lsl #8
     9f0:	0000ec01 	andeq	lr, r0, r1, lsl #24
     9f4:	d0000200 	andle	r0, r0, r0, lsl #4
     9f8:	02000000 	andeq	r0, r0, #0
     9fc:	0d0efb01 	vstreq	d15, [lr, #-4]
     a00:	01010100 	mrseq	r0, (UNDEF: 17)
     a04:	00000001 	andeq	r0, r0, r1
     a08:	01000001 	tsteq	r0, r1
     a0c:	6362696c 	cmnvs	r2, #108, 18	; 0x1b0000
     a10:	73752f00 	cmnvc	r5, #0, 30
     a14:	6f6c2f72 	svcvs	0x006c2f72
     a18:	2f6c6163 	svccs	0x006c6163
     a1c:	6c6c6543 	cfstr64vs	mvdx6, [ip], #-268	; 0xfffffef4
     a20:	612f7261 	teqvs	pc, r1, ror #4
     a24:	6e2d6d72 	mcrvs	13, 1, r6, cr13, cr2, {3}
     a28:	2d656e6f 	stclcs	14, cr6, [r5, #-444]!	; 0xfffffe44
     a2c:	69626165 	stmdbvs	r2!, {r0, r2, r5, r6, r8, sp, lr}^
     a30:	382e342f 	stmdacc	lr!, {r0, r1, r2, r3, r5, sl, ip, sp}
     a34:	632d332e 	teqvs	sp, #-1207959552	; 0xb8000000
     a38:	30373173 	eorscc	r3, r7, r3, ror r1
     a3c:	696c2f65 	stmdbvs	ip!, {r0, r2, r5, r6, r8, r9, sl, fp, sp}^
     a40:	63672f62 	cmnvs	r7, #392	; 0x188
     a44:	72612f63 	rsbvc	r2, r1, #396	; 0x18c
     a48:	6f6e2d6d 	svcvs	0x006e2d6d
     a4c:	652d656e 	strvs	r6, [sp, #-1390]!	; 0x56e
     a50:	2f696261 	svccs	0x00696261
     a54:	2e382e34 	mrccs	14, 1, r2, cr8, cr4, {1}
     a58:	6e692f33 	mcrvs	15, 3, r2, cr9, cr3, {1}
     a5c:	64756c63 	ldrbtvs	r6, [r5], #-3171	; 0xc63
     a60:	752f0065 	strvc	r0, [pc, #-101]!	; a03 <__code_start__-0x75fd>
     a64:	6c2f7273 	sfmvs	f7, 4, [pc], #-460	; 8a0 <__code_start__-0x7760>
     a68:	6c61636f 	stclvs	3, cr6, [r1], #-444	; 0xfffffe44
     a6c:	6c65432f 	stclvs	3, cr4, [r5], #-188	; 0xffffff44
     a70:	2f72616c 	svccs	0x0072616c
     a74:	2d6d7261 	sfmcs	f7, 2, [sp, #-388]!	; 0xfffffe7c
     a78:	656e6f6e 	strbvs	r6, [lr, #-3950]!	; 0xf6e
     a7c:	6261652d 	rsbvs	r6, r1, #188743680	; 0xb400000
     a80:	2e342f69 	cdpcs	15, 3, cr2, cr4, cr9, {3}
     a84:	2d332e38 	ldccs	14, cr2, [r3, #-224]!	; 0xffffff20
     a88:	37317363 	ldrcc	r7, [r1, -r3, ror #6]!
     a8c:	612f6530 	teqvs	pc, r0, lsr r5	; <UNPREDICTABLE>
     a90:	6e2d6d72 	mcrvs	13, 1, r6, cr13, cr2, {3}
     a94:	2d656e6f 	stclcs	14, cr6, [r5, #-444]!	; 0xfffffe44
     a98:	69626165 	stmdbvs	r2!, {r0, r2, r5, r6, r8, sp, lr}^
     a9c:	636e692f 	cmnvs	lr, #770048	; 0xbc000
     aa0:	6564756c 	strbvs	r7, [r4, #-1388]!	; 0x56c
     aa4:	656d0000 	strbvs	r0, [sp, #-0]!
     aa8:	7465736d 	strbtvc	r7, [r5], #-877	; 0x36d
     aac:	0100632e 	tsteq	r0, lr, lsr #6
     ab0:	74730000 	ldrbtvc	r0, [r3], #-0
     ab4:	66656464 	strbtvs	r6, [r5], -r4, ror #8
     ab8:	0200682e 	andeq	r6, r0, #3014656	; 0x2e0000
     abc:	74730000 	ldrbtvc	r0, [r3], #-0
     ac0:	676e6972 			; <UNDEFINED> instruction: 0x676e6972
     ac4:	0300682e 	movweq	r6, #2094	; 0x82e
     ac8:	00000000 	andeq	r0, r0, r0
     acc:	a4600205 	strbtge	r0, [r0], #-517	; 0x205
     ad0:	13140000 	tstne	r4, #0
     ad4:	02002f4c 	andeq	r2, r0, #76, 30	; 0x130
     ad8:	4d490104 	stfmie	f0, [r9, #-16]
     adc:	01000202 	tsteq	r0, r2, lsl #4
     ae0:	00010c01 	andeq	r0, r1, r1, lsl #24
     ae4:	f5000200 			; <UNDEFINED> instruction: 0xf5000200
     ae8:	02000000 	andeq	r0, r0, #0
     aec:	0d0efb01 	vstreq	d15, [lr, #-4]
     af0:	01010100 	mrseq	r0, (UNDEF: 17)
     af4:	00000001 	andeq	r0, r0, r1
     af8:	01000001 	tsteq	r0, r1
     afc:	6362696c 	cmnvs	r2, #108, 18	; 0x1b0000
     b00:	73752f00 	cmnvc	r5, #0, 30
     b04:	6f6c2f72 	svcvs	0x006c2f72
     b08:	2f6c6163 	svccs	0x006c6163
     b0c:	6c6c6543 	cfstr64vs	mvdx6, [ip], #-268	; 0xfffffef4
     b10:	612f7261 	teqvs	pc, r1, ror #4
     b14:	6e2d6d72 	mcrvs	13, 1, r6, cr13, cr2, {3}
     b18:	2d656e6f 	stclcs	14, cr6, [r5, #-444]!	; 0xfffffe44
     b1c:	69626165 	stmdbvs	r2!, {r0, r2, r5, r6, r8, sp, lr}^
     b20:	382e342f 	stmdacc	lr!, {r0, r1, r2, r3, r5, sl, ip, sp}
     b24:	632d332e 	teqvs	sp, #-1207959552	; 0xb8000000
     b28:	30373173 	eorscc	r3, r7, r3, ror r1
     b2c:	696c2f65 	stmdbvs	ip!, {r0, r2, r5, r6, r8, r9, sl, fp, sp}^
     b30:	63672f62 	cmnvs	r7, #392	; 0x188
     b34:	72612f63 	rsbvc	r2, r1, #396	; 0x18c
     b38:	6f6e2d6d 	svcvs	0x006e2d6d
     b3c:	652d656e 	strvs	r6, [sp, #-1390]!	; 0x56e
     b40:	2f696261 	svccs	0x00696261
     b44:	2e382e34 	mrccs	14, 1, r2, cr8, cr4, {1}
     b48:	6e692f33 	mcrvs	15, 3, r2, cr9, cr3, {1}
     b4c:	64756c63 	ldrbtvs	r6, [r5], #-3171	; 0xc63
     b50:	552f0065 	strpl	r0, [pc, #-101]!	; af3 <__code_start__-0x750d>
     b54:	73726573 	cmnvc	r2, #482344960	; 0x1cc00000
     b58:	6972622f 	ldmdbvs	r2!, {r0, r1, r2, r3, r5, r9, sp, lr}^
     b5c:	756a6e61 	strbvc	r6, [sl, #-3681]!	; 0xe61
     b60:	65442f6e 	strbvs	r2, [r4, #-3950]	; 0xf6e
     b64:	6f746b73 	svcvs	0x00746b73
     b68:	63732f70 	cmnvs	r3, #112, 30	; 0x1c0
     b6c:	6c6f6f68 	stclvs	15, cr6, [pc], #-416	; 9d4 <__code_start__-0x762c>
     b70:	7270532f 	rsbsvc	r5, r0, #-1140850688	; 0xbc000000
     b74:	31676e69 	cmncc	r7, r9, ror #28
     b78:	2f303239 	svccs	0x00303239
     b7c:	34325343 	ldrtcc	r5, [r2], #-835	; 0x343
     b80:	2f584c30 	svccs	0x00584c30
     b84:	34327363 	ldrtcc	r7, [r2], #-867	; 0x363
     b88:	2d786c30 	ldclcs	12, cr6, [r8, #-192]!	; 0xffffff40
     b8c:	70733032 	rsbsvc	r3, r3, r2, lsr r0
     b90:	696c2f72 	stmdbvs	ip!, {r1, r4, r5, r6, r8, r9, sl, fp, sp}^
     b94:	2f697062 	svccs	0x00697062
     b98:	6c636e69 	stclvs	14, cr6, [r3], #-420	; 0xfffffe5c
     b9c:	00656475 	rsbeq	r6, r5, r5, ror r4
     ba0:	69727000 	ldmdbvs	r2!, {ip, sp, lr}^
     ba4:	2e6b746e 	cdpcs	4, 6, cr7, cr11, cr14, {3}
     ba8:	00010063 	andeq	r0, r1, r3, rrx
     bac:	64747300 	ldrbtvs	r7, [r4], #-768	; 0x300
     bb0:	2e677261 	cdpcs	2, 6, cr7, cr7, cr1, {3}
     bb4:	00020068 	andeq	r0, r2, r8, rrx
     bb8:	75623c00 	strbvc	r3, [r2, #-3072]!	; 0xc00
     bbc:	2d746c69 	ldclcs	12, cr6, [r4, #-420]!	; 0xfffffe5c
     bc0:	003e6e69 	eorseq	r6, lr, r9, ror #28
     bc4:	72000000 	andvc	r0, r0, #0
     bc8:	682e6970 	stmdavs	lr!, {r4, r5, r6, r8, fp, sp, lr}
     bcc:	00000300 	andeq	r0, r0, r0, lsl #6
     bd0:	702d6176 	eorvc	r6, sp, r6, ror r1
     bd4:	746e6972 	strbtvc	r6, [lr], #-2418	; 0x972
     bd8:	00682e6b 	rsbeq	r2, r8, fp, ror #28
     bdc:	00000001 	andeq	r0, r0, r1
     be0:	80020500 	andhi	r0, r2, r0, lsl #10
     be4:	170000a4 	strne	r0, [r0, -r4, lsr #1]
     be8:	89bf4b6b 	ldmibhi	pc!, {r0, r1, r3, r5, r6, r8, r9, fp, lr}	; <UNPREDICTABLE>
     bec:	01000e02 	tsteq	r0, r2, lsl #28
     bf0:	00009401 	andeq	r9, r0, r1, lsl #8
     bf4:	7c000200 	sfmvc	f0, 4, [r0], {-0}
     bf8:	02000000 	andeq	r0, r0, #0
     bfc:	0d0efb01 	vstreq	d15, [lr, #-4]
     c00:	01010100 	mrseq	r0, (UNDEF: 17)
     c04:	00000001 	andeq	r0, r0, r1
     c08:	01000001 	tsteq	r0, r1
     c0c:	6362696c 	cmnvs	r2, #108, 18	; 0x1b0000
     c10:	73552f00 	cmpvc	r5, #0, 30
     c14:	2f737265 	svccs	0x00737265
     c18:	61697262 	cmnvs	r9, r2, ror #4
     c1c:	6e756a6e 	vsubvs.f32	s13, s10, s29
     c20:	7365442f 	cmnvc	r5, #788529152	; 0x2f000000
     c24:	706f746b 	rsbvc	r7, pc, fp, ror #8
     c28:	6863732f 	stmdavs	r3!, {r0, r1, r2, r3, r5, r8, r9, ip, sp, lr}^
     c2c:	2f6c6f6f 	svccs	0x006c6f6f
     c30:	69727053 	ldmdbvs	r2!, {r0, r1, r4, r6, ip, sp, lr}^
     c34:	3931676e 	ldmdbcc	r1!, {r1, r2, r3, r5, r6, r8, r9, sl, sp, lr}
     c38:	432f3032 	teqmi	pc, #50	; 0x32
     c3c:	30343253 	eorscc	r3, r4, r3, asr r2
     c40:	632f584c 	teqvs	pc, #76, 16	; 0x4c0000
     c44:	30343273 	eorscc	r3, r4, r3, ror r2
     c48:	322d786c 	eorcc	r7, sp, #108, 16	; 0x6c0000
     c4c:	72707330 	rsbsvc	r7, r0, #48, 6	; 0xc0000000
     c50:	62696c2f 	rsbvs	r6, r9, #12032	; 0x2f00
     c54:	692f6970 	stmdbvs	pc!, {r4, r5, r6, r8, fp, sp, lr}	; <UNPREDICTABLE>
     c58:	756c636e 	strbvc	r6, [ip, #-878]!	; 0x36e
     c5c:	00006564 	andeq	r6, r0, r4, ror #10
     c60:	63747570 	cmnvs	r4, #112, 10	; 0x1c000000
     c64:	2e726168 	rpwcssz	f6, f2, #0.0
     c68:	00010063 	andeq	r0, r1, r3, rrx
     c6c:	69707200 	ldmdbvs	r0!, {r9, ip, sp, lr}^
     c70:	0200682e 	andeq	r6, r0, #3014656	; 0x2e0000
     c74:	00000000 	andeq	r0, r0, r0
     c78:	a4d80205 	ldrbge	r0, [r8], #517	; 0x205
     c7c:	4a140000 	bmi	500c84 <__bss_end__+0x4f42bc>
     c80:	13bc136b 			; <UNDEFINED> instruction: 0x13bc136b
     c84:	01000802 	tsteq	r0, r2, lsl #16
     c88:	0000a001 	andeq	sl, r0, r1
     c8c:	79000200 	stmdbvc	r0, {r9}
     c90:	02000000 	andeq	r0, r0, #0
     c94:	0d0efb01 	vstreq	d15, [lr, #-4]
     c98:	01010100 	mrseq	r0, (UNDEF: 17)
     c9c:	00000001 	andeq	r0, r0, r1
     ca0:	01000001 	tsteq	r0, r1
     ca4:	6362696c 	cmnvs	r2, #108, 18	; 0x1b0000
     ca8:	73552f00 	cmpvc	r5, #0, 30
     cac:	2f737265 	svccs	0x00737265
     cb0:	61697262 	cmnvs	r9, r2, ror #4
     cb4:	6e756a6e 	vsubvs.f32	s13, s10, s29
     cb8:	7365442f 	cmnvc	r5, #788529152	; 0x2f000000
     cbc:	706f746b 	rsbvc	r7, pc, fp, ror #8
     cc0:	6863732f 	stmdavs	r3!, {r0, r1, r2, r3, r5, r8, r9, ip, sp, lr}^
     cc4:	2f6c6f6f 	svccs	0x006c6f6f
     cc8:	69727053 	ldmdbvs	r2!, {r0, r1, r4, r6, ip, sp, lr}^
     ccc:	3931676e 	ldmdbcc	r1!, {r1, r2, r3, r5, r6, r8, r9, sl, sp, lr}
     cd0:	432f3032 	teqmi	pc, #50	; 0x32
     cd4:	30343253 	eorscc	r3, r4, r3, asr r2
     cd8:	632f584c 	teqvs	pc, #76, 16	; 0x4c0000
     cdc:	30343273 	eorscc	r3, r4, r3, ror r2
     ce0:	322d786c 	eorcc	r7, sp, #108, 16	; 0x6c0000
     ce4:	72707330 	rsbsvc	r7, r0, #48, 6	; 0xc0000000
     ce8:	62696c2f 	rsbvs	r6, r9, #12032	; 0x2f00
     cec:	692f6970 	stmdbvs	pc!, {r4, r5, r6, r8, fp, sp, lr}	; <UNPREDICTABLE>
     cf0:	756c636e 	strbvc	r6, [ip, #-878]!	; 0x36e
     cf4:	00006564 	andeq	r6, r0, r4, ror #10
     cf8:	6b747570 	blvs	1d1e2c0 <__bss_end__+0x1d118f8>
     cfc:	0100632e 	tsteq	r0, lr, lsr #6
     d00:	70720000 	rsbsvc	r0, r2, r0
     d04:	00682e69 	rsbeq	r2, r8, r9, ror #28
     d08:	00000002 	andeq	r0, r0, r2
     d0c:	14020500 	strne	r0, [r2], #-1280	; 0x500
     d10:	150000a5 	strne	r0, [r0, #-165]	; 0xa5
     d14:	02002d4c 	andeq	r2, r0, #76, 26	; 0x1300
     d18:	002f0204 	eoreq	r0, pc, r4, lsl #4
     d1c:	49020402 	stmdbmi	r2, {r1, sl}
     d20:	01040200 	mrseq	r0, R12_usr
     d24:	6b062e06 	blvs	18c544 <__bss_end__+0x17fb7c>
     d28:	01000602 	tsteq	r0, r2, lsl #12
     d2c:	0001f101 	andeq	pc, r1, r1, lsl #2
     d30:	e9000200 	stmdb	r0, {r9}
     d34:	02000000 	andeq	r0, r0, #0
     d38:	0d0efb01 	vstreq	d15, [lr, #-4]
     d3c:	01010100 	mrseq	r0, (UNDEF: 17)
     d40:	00000001 	andeq	r0, r0, r1
     d44:	01000001 	tsteq	r0, r1
     d48:	6362696c 	cmnvs	r2, #108, 18	; 0x1b0000
     d4c:	73752f00 	cmnvc	r5, #0, 30
     d50:	6f6c2f72 	svcvs	0x006c2f72
     d54:	2f6c6163 	svccs	0x006c6163
     d58:	6c6c6543 	cfstr64vs	mvdx6, [ip], #-268	; 0xfffffef4
     d5c:	612f7261 	teqvs	pc, r1, ror #4
     d60:	6e2d6d72 	mcrvs	13, 1, r6, cr13, cr2, {3}
     d64:	2d656e6f 	stclcs	14, cr6, [r5, #-444]!	; 0xfffffe44
     d68:	69626165 	stmdbvs	r2!, {r0, r2, r5, r6, r8, sp, lr}^
     d6c:	382e342f 	stmdacc	lr!, {r0, r1, r2, r3, r5, sl, ip, sp}
     d70:	632d332e 	teqvs	sp, #-1207959552	; 0xb8000000
     d74:	30373173 	eorscc	r3, r7, r3, ror r1
     d78:	696c2f65 	stmdbvs	ip!, {r0, r2, r5, r6, r8, r9, sl, fp, sp}^
     d7c:	63672f62 	cmnvs	r7, #392	; 0x188
     d80:	72612f63 	rsbvc	r2, r1, #396	; 0x18c
     d84:	6f6e2d6d 	svcvs	0x006e2d6d
     d88:	652d656e 	strvs	r6, [sp, #-1390]!	; 0x56e
     d8c:	2f696261 	svccs	0x00696261
     d90:	2e382e34 	mrccs	14, 1, r2, cr8, cr4, {1}
     d94:	6e692f33 	mcrvs	15, 3, r2, cr9, cr3, {1}
     d98:	64756c63 	ldrbtvs	r6, [r5], #-3171	; 0xc63
     d9c:	552f0065 	strpl	r0, [pc, #-101]!	; d3f <__code_start__-0x72c1>
     da0:	73726573 	cmnvc	r2, #482344960	; 0x1cc00000
     da4:	6972622f 	ldmdbvs	r2!, {r0, r1, r2, r3, r5, r9, sp, lr}^
     da8:	756a6e61 	strbvc	r6, [sl, #-3681]!	; 0xe61
     dac:	65442f6e 	strbvs	r2, [r4, #-3950]	; 0xf6e
     db0:	6f746b73 	svcvs	0x00746b73
     db4:	63732f70 	cmnvs	r3, #112, 30	; 0x1c0
     db8:	6c6f6f68 	stclvs	15, cr6, [pc], #-416	; c20 <__code_start__-0x73e0>
     dbc:	7270532f 	rsbsvc	r5, r0, #-1140850688	; 0xbc000000
     dc0:	31676e69 	cmncc	r7, r9, ror #28
     dc4:	2f303239 	svccs	0x00303239
     dc8:	34325343 	ldrtcc	r5, [r2], #-835	; 0x343
     dcc:	2f584c30 	svccs	0x00584c30
     dd0:	34327363 	ldrtcc	r7, [r2], #-867	; 0x363
     dd4:	2d786c30 	ldclcs	12, cr6, [r8, #-192]!	; 0xffffff40
     dd8:	70733032 	rsbsvc	r3, r3, r2, lsr r0
     ddc:	696c2f72 	stmdbvs	ip!, {r1, r4, r5, r6, r8, r9, sl, fp, sp}^
     de0:	2f697062 	svccs	0x00697062
     de4:	6c636e69 	stclvs	14, cr6, [r3], #-420	; 0xfffffe5c
     de8:	00656475 	rsbeq	r6, r5, r5, ror r4
     dec:	2d617600 	stclcs	6, cr7, [r1, #-0]
     df0:	6e697270 	mcrvs	2, 3, r7, cr9, cr0, {3}
     df4:	632e6b74 	teqvs	lr, #116, 22	; 0x1d000
     df8:	00000100 	andeq	r0, r0, r0, lsl #2
     dfc:	61647473 	smcvs	18243	; 0x4743
     e00:	682e6772 	stmdavs	lr!, {r1, r4, r5, r6, r8, r9, sl, sp, lr}
     e04:	00000200 	andeq	r0, r0, r0, lsl #4
     e08:	2e697072 	mcrcs	0, 3, r7, cr9, cr2, {3}
     e0c:	00030068 	andeq	r0, r3, r8, rrx
     e10:	75623c00 	strbvc	r3, [r2, #-3072]!	; 0xc00
     e14:	2d746c69 	ldclcs	12, cr6, [r4, #-420]!	; 0xfffffe5c
     e18:	003e6e69 	eorseq	r6, lr, r9, ror #28
     e1c:	00000000 	andeq	r0, r0, r0
     e20:	48020500 	stmdami	r2, {r8, sl}
     e24:	030000a5 	movweq	r0, #165	; 0xa5
     e28:	a5010126 	strge	r0, [r1, #-294]	; 0x126
     e2c:	002d3113 	eoreq	r3, sp, r3, lsl r1
     e30:	2f020402 	svccs	0x00020402
     e34:	02040200 	andeq	r0, r4, #0, 4
     e38:	0402002d 	streq	r0, [r2], #-45	; 0x2d
     e3c:	02002f02 	andeq	r2, r0, #2, 30
     e40:	4c2d0104 	stfmis	f0, [sp], #-16
     e44:	4b14304c 	blmi	50cf7c <__bss_end__+0x5005b4>
     e48:	02004f2f 	andeq	r4, r0, #47, 30	; 0xbc
     e4c:	00670204 	rsbeq	r0, r7, r4, lsl #4
     e50:	65010402 	strvs	r0, [r1, #-1026]	; 0x402
     e54:	a0304d4c 	eorsge	r4, r0, ip, asr #26
     e58:	0230312f 	eorseq	r3, r0, #-1073741813	; 0xc000000b
     e5c:	2d841626 	stccs	6, cr1, [r4, #152]	; 0x98
     e60:	0402002c 	streq	r0, [r2], #-44	; 0x2c
     e64:	02003001 	andeq	r3, r0, #1
     e68:	06330104 	ldrteq	r0, [r3], -r4, lsl #2
     e6c:	04020066 	streq	r0, [r2], #-102	; 0x66
     e70:	02002e01 	andeq	r2, r0, #1, 28
     e74:	08060104 	stmdaeq	r6, {r2, r8}
     e78:	032f6721 	teqeq	pc, #8650752	; 0x840000
     e7c:	13038273 	movwne	r8, #12915	; 0x3273
     e80:	0402002e 	streq	r0, [r2], #-46	; 0x2e
     e84:	00660601 	rsbeq	r0, r6, r1, lsl #12
     e88:	06010402 	streq	r0, [r1], -r2, lsl #8
     e8c:	674b4b83 	strbvs	r4, [fp, -r3, lsl #23]
     e90:	65034b31 	strvs	r4, [r3, #-2865]	; 0xb31
     e94:	2e23032e 	cdpcs	3, 2, cr0, cr3, cr14, {1}
     e98:	01040200 	mrseq	r0, R12_usr
     e9c:	02002e06 	andeq	r2, r0, #6, 28	; 0x60
     ea0:	9f060104 	svcls	0x00060104
     ea4:	01040200 	mrseq	r0, R12_usr
     ea8:	d723086a 	strle	r0, [r3, -sl, ror #16]!
     eac:	087fa403 	ldmdaeq	pc!, {r0, r1, sl, sp, pc}^	; <UNPREDICTABLE>
     eb0:	02004b3c 	andeq	r4, r0, #60, 22	; 0xf000
     eb4:	4a060104 	bmi	1812cc <__bss_end__+0x174904>
     eb8:	4b210806 	blmi	842ed8 <__bss_end__+0x836510>
     ebc:	db034b2f 	blle	d3b80 <__bss_end__+0xc71b8>
     ec0:	4c9ff200 	lfmmi	f7, 1, [pc], {0}
     ec4:	2f4b3248 	svccs	0x004b3248
     ec8:	2d2f4b84 	vstmdbcs	pc!, {d4-d5}
     ecc:	2f30314d 	svccs	0x0030314d
     ed0:	04020083 	streq	r0, [r2], #-131	; 0x83
     ed4:	00be2c01 	adcseq	r2, lr, r1, lsl #24
     ed8:	06010402 	streq	r0, [r1], -r2, lsl #8
     edc:	2208064a 	andcs	r0, r8, #77594624	; 0x4a00000
     ee0:	03163602 	tsteq	r6, #2097152	; 0x200000
     ee4:	2108d60e 	tstcs	r8, lr, lsl #12
     ee8:	31210830 	teqcc	r1, r0, lsr r8
     eec:	08302108 	ldmdaeq	r0!, {r3, r8, sp}
     ef0:	304b3021 	subcc	r3, fp, r1, lsr #32
     ef4:	4b302108 	blmi	c0931c <__bss_end__+0xbfc954>
     ef8:	31d98383 	bicscc	r8, r9, r3, lsl #7
     efc:	0402002f 	streq	r0, [r2], #-47	; 0x2f
     f00:	02006501 	andeq	r6, r0, #4194304	; 0x400000
     f04:	4a060204 	bmi	18171c <__bss_end__+0x174d54>
     f08:	01040200 	mrseq	r0, R12_usr
     f0c:	7fbf0306 	svcvc	0x00bf0306
     f10:	04020066 	streq	r0, [r2], #-102	; 0x66
     f14:	06660602 	strbteq	r0, [r6], -r2, lsl #12
     f18:	4a00c503 	bmi	3232c <__bss_end__+0x25964>
     f1c:	00160268 	andseq	r0, r6, r8, ror #4
     f20:	009d0101 	addseq	r0, sp, r1, lsl #2
     f24:	00020000 	andeq	r0, r2, r0
     f28:	00000086 	andeq	r0, r0, r6, lsl #1
     f2c:	0efb0102 	cdpeq	1, 15, cr0, cr11, cr2, {0}
     f30:	0101000d 	tsteq	r1, sp
     f34:	00000101 	andeq	r0, r0, r1, lsl #2
     f38:	00000100 	andeq	r0, r0, r0, lsl #2
     f3c:	61747301 	cmnvs	r4, r1, lsl #6
     f40:	732d6666 	teqvc	sp, #106954752	; 0x6600000
     f44:	2f006372 	svccs	0x00006372
     f48:	72657355 	rsbvc	r7, r5, #1409286145	; 0x54000001
     f4c:	72622f73 	rsbvc	r2, r2, #460	; 0x1cc
     f50:	6a6e6169 	bvs	1b994fc <__bss_end__+0x1b8cb34>
     f54:	442f6e75 	strtmi	r6, [pc], #-3701	; f5c <__code_start__-0x70a4>
     f58:	746b7365 	strbtvc	r7, [fp], #-869	; 0x365
     f5c:	732f706f 	teqvc	pc, #111	; 0x6f
     f60:	6f6f6863 	svcvs	0x006f6863
     f64:	70532f6c 	subsvc	r2, r3, ip, ror #30
     f68:	676e6972 			; <UNDEFINED> instruction: 0x676e6972
     f6c:	30323931 	eorscc	r3, r2, r1, lsr r9
     f70:	3253432f 	subscc	r4, r3, #-1140850688	; 0xbc000000
     f74:	584c3034 	stmdapl	ip, {r2, r4, r5, ip, sp}^
     f78:	3273632f 	rsbscc	r6, r3, #-1140850688	; 0xbc000000
     f7c:	786c3034 	stmdavc	ip!, {r2, r4, r5, ip, sp}^
     f80:	7330322d 	teqvc	r0, #-805306366	; 0xd0000002
     f84:	6c2f7270 	sfmvs	f7, 4, [pc], #-448	; dcc <__code_start__-0x7234>
     f88:	69706269 	ldmdbvs	r0!, {r0, r3, r5, r6, r9, sp, lr}^
     f8c:	636e692f 	cmnvs	lr, #770048	; 0xbc000
     f90:	6564756c 	strbvs	r7, [r4, #-1388]!	; 0x56c
     f94:	6c630000 	stclvs	0, cr0, [r3], #-0
     f98:	2d6e6165 	stfcse	f6, [lr, #-404]!	; 0xfffffe6c
     f9c:	6f626572 	svcvs	0x00626572
     fa0:	632e746f 	teqvs	lr, #1862270976	; 0x6f000000
     fa4:	00000100 	andeq	r0, r0, r0, lsl #2
     fa8:	2e697072 	mcrcs	0, 3, r7, cr9, cr2, {3}
     fac:	00020068 	andeq	r0, r2, r8, rrx
     fb0:	05000000 	streq	r0, [r0, #-0]
     fb4:	00aac002 	adceq	ip, sl, r2
     fb8:	2f2f1500 	svccs	0x002f1500
     fbc:	06024b83 	streq	r4, [r2], -r3, lsl #23
     fc0:	a6010100 	strge	r0, [r1], -r0, lsl #2
     fc4:	02000000 	andeq	r0, r0, #0
     fc8:	00008000 	andeq	r8, r0, r0
     fcc:	fb010200 	blx	417d6 <__bss_end__+0x34e0e>
     fd0:	01000d0e 	tsteq	r0, lr, lsl #26
     fd4:	00010101 	andeq	r0, r1, r1, lsl #2
     fd8:	00010000 	andeq	r0, r1, r0
     fdc:	74730100 	ldrbtvc	r0, [r3], #-256	; 0x100
     fe0:	2d666661 	stclcs	6, cr6, [r6, #-388]!	; 0xfffffe7c
     fe4:	00637273 	rsbeq	r7, r3, r3, ror r2
     fe8:	6573552f 	ldrbvs	r5, [r3, #-1327]!	; 0x52f
     fec:	622f7372 	eorvs	r7, pc, #-939524095	; 0xc8000001
     ff0:	6e616972 	mcrvs	9, 3, r6, cr1, cr2, {3}
     ff4:	2f6e756a 	svccs	0x006e756a
     ff8:	6b736544 	blvs	1cda510 <__bss_end__+0x1ccdb48>
     ffc:	2f706f74 	svccs	0x00706f74
    1000:	6f686373 	svcvs	0x00686373
    1004:	532f6c6f 	teqpl	pc, #28416	; 0x6f00
    1008:	6e697270 	mcrvs	2, 3, r7, cr9, cr0, {3}
    100c:	32393167 	eorscc	r3, r9, #-1073741799	; 0xc0000019
    1010:	53432f30 	movtpl	r2, #16176	; 0x3f30
    1014:	4c303432 	cfldrsmi	mvf3, [r0], #-200	; 0xffffff38
    1018:	73632f58 	cmnvc	r3, #88, 30	; 0x160
    101c:	6c303432 	cfldrsvs	mvf3, [r0], #-200	; 0xffffff38
    1020:	30322d78 	eorscc	r2, r2, r8, ror sp
    1024:	2f727073 	svccs	0x00727073
    1028:	7062696c 	rsbvc	r6, r2, ip, ror #18
    102c:	6e692f69 	cdpvs	15, 6, cr2, cr9, cr9, {3}
    1030:	64756c63 	ldrbtvs	r6, [r5], #-3171	; 0xc63
    1034:	63000065 	movwvs	r0, #101	; 0x65
    1038:	72617473 	rsbvc	r7, r1, #1929379840	; 0x73000000
    103c:	00632e74 	rsbeq	r2, r3, r4, ror lr
    1040:	72000001 	andvc	r0, r0, #1
    1044:	682e6970 	stmdavs	lr!, {r4, r5, r6, r8, fp, sp, lr}
    1048:	00000200 	andeq	r0, r0, r0, lsl #4
    104c:	02050000 	andeq	r0, r5, #0
    1050:	0000aaec 	andeq	sl, r0, ip, ror #21
    1054:	32010c03 	andcc	r0, r1, #768	; 0x300
    1058:	2f2d2f31 	svccs	0x002d2f31
    105c:	01040200 	mrseq	r0, R12_usr
    1060:	4a090349 	bmi	241d8c <__bss_end__+0x2353c4>
    1064:	2f2e0d03 	svccs	0x002e0d03
    1068:	01000602 	tsteq	r0, r2, lsl #12
    106c:	0000a201 	andeq	sl, r0, r1, lsl #4
    1070:	8e000200 	cdphi	2, 0, cr0, cr0, cr0, {0}
    1074:	02000000 	andeq	r0, r0, #0
    1078:	0d0efb01 	vstreq	d15, [lr, #-4]
    107c:	01010100 	mrseq	r0, (UNDEF: 17)
    1080:	00000001 	andeq	r0, r0, r1
    1084:	01000001 	tsteq	r0, r1
    1088:	66617473 			; <UNDEFINED> instruction: 0x66617473
    108c:	72732d66 	rsbsvc	r2, r3, #6528	; 0x1980
    1090:	552f0063 	strpl	r0, [pc, #-99]!	; 1035 <__code_start__-0x6fcb>
    1094:	73726573 	cmnvc	r2, #482344960	; 0x1cc00000
    1098:	6972622f 	ldmdbvs	r2!, {r0, r1, r2, r3, r5, r9, sp, lr}^
    109c:	756a6e61 	strbvc	r6, [sl, #-3681]!	; 0xe61
    10a0:	65442f6e 	strbvs	r2, [r4, #-3950]	; 0xf6e
    10a4:	6f746b73 	svcvs	0x00746b73
    10a8:	63732f70 	cmnvs	r3, #112, 30	; 0x1c0
    10ac:	6c6f6f68 	stclvs	15, cr6, [pc], #-416	; f14 <__code_start__-0x70ec>
    10b0:	7270532f 	rsbsvc	r5, r0, #-1140850688	; 0xbc000000
    10b4:	31676e69 	cmncc	r7, r9, ror #28
    10b8:	2f303239 	svccs	0x00303239
    10bc:	34325343 	ldrtcc	r5, [r2], #-835	; 0x343
    10c0:	2f584c30 	svccs	0x00584c30
    10c4:	34327363 	ldrtcc	r7, [r2], #-867	; 0x363
    10c8:	2d786c30 	ldclcs	12, cr6, [r8, #-192]!	; 0xffffff40
    10cc:	70733032 	rsbsvc	r3, r3, r2, lsr r0
    10d0:	696c2f72 	stmdbvs	ip!, {r1, r4, r5, r6, r8, r9, sl, fp, sp}^
    10d4:	2f697062 	svccs	0x00697062
    10d8:	6c636e69 	stclvs	14, cr6, [r3], #-420	; 0xfffffe5c
    10dc:	00656475 	rsbeq	r6, r5, r5, ror r4
    10e0:	66656400 	strbtvs	r6, [r5], -r0, lsl #8
    10e4:	746c7561 	strbtvc	r7, [ip], #-1377	; 0x561
    10e8:	6e61682d 	cdpvs	8, 6, cr6, cr1, cr13, {1}
    10ec:	72656c64 	rsbvc	r6, r5, #100, 24	; 0x6400
    10f0:	7361662d 	cmnvc	r1, #47185920	; 0x2d00000
    10f4:	00632e74 	rsbeq	r2, r3, r4, ror lr
    10f8:	72000001 	andvc	r0, r0, #1
    10fc:	682e6970 	stmdavs	lr!, {r4, r5, r6, r8, fp, sp, lr}
    1100:	00000200 	andeq	r0, r0, r0, lsl #4
    1104:	02050000 	andeq	r0, r5, #0
    1108:	0000ab24 	andeq	sl, r0, r4, lsr #22
    110c:	1c026613 	stcne	6, cr6, [r2], {19}
    1110:	a6010100 	strge	r0, [r1], -r0, lsl #2
    1114:	02000000 	andeq	r0, r0, #0
    1118:	00009200 	andeq	r9, r0, r0, lsl #4
    111c:	fb010200 	blx	41926 <__bss_end__+0x34f5e>
    1120:	01000d0e 	tsteq	r0, lr, lsl #26
    1124:	00010101 	andeq	r0, r1, r1, lsl #2
    1128:	00010000 	andeq	r0, r1, r0
    112c:	74730100 	ldrbtvc	r0, [r3], #-256	; 0x100
    1130:	2d666661 	stclcs	6, cr6, [r6, #-388]!	; 0xfffffe7c
    1134:	00637273 	rsbeq	r7, r3, r3, ror r2
    1138:	6573552f 	ldrbvs	r5, [r3, #-1327]!	; 0x52f
    113c:	622f7372 	eorvs	r7, pc, #-939524095	; 0xc8000001
    1140:	6e616972 	mcrvs	9, 3, r6, cr1, cr2, {3}
    1144:	2f6e756a 	svccs	0x006e756a
    1148:	6b736544 	blvs	1cda660 <__bss_end__+0x1ccdc98>
    114c:	2f706f74 	svccs	0x00706f74
    1150:	6f686373 	svcvs	0x00686373
    1154:	532f6c6f 	teqpl	pc, #28416	; 0x6f00
    1158:	6e697270 	mcrvs	2, 3, r7, cr9, cr0, {3}
    115c:	32393167 	eorscc	r3, r9, #-1073741799	; 0xc0000019
    1160:	53432f30 	movtpl	r2, #16176	; 0x3f30
    1164:	4c303432 	cfldrsmi	mvf3, [r0], #-200	; 0xffffff38
    1168:	73632f58 	cmnvc	r3, #88, 30	; 0x160
    116c:	6c303432 	cfldrsvs	mvf3, [r0], #-200	; 0xffffff38
    1170:	30322d78 	eorscc	r2, r2, r8, ror sp
    1174:	2f727073 	svccs	0x00727073
    1178:	7062696c 	rsbvc	r6, r2, ip, ror #18
    117c:	6e692f69 	cdpvs	15, 6, cr2, cr9, cr9, {3}
    1180:	64756c63 	ldrbtvs	r6, [r5], #-3171	; 0xc63
    1184:	64000065 	strvs	r0, [r0], #-101	; 0x65
    1188:	75616665 	strbvc	r6, [r1, #-1637]!	; 0x665
    118c:	682d746c 	stmdavs	sp!, {r2, r3, r5, r6, sl, ip, sp, lr}
    1190:	6c646e61 	stclvs	14, cr6, [r4], #-388	; 0xfffffe7c
    1194:	702d7265 	eorvc	r7, sp, r5, ror #4
    1198:	65666572 	strbvs	r6, [r6, #-1394]!	; 0x572
    119c:	2e686374 	mcrcs	3, 3, r6, cr8, cr4, {3}
    11a0:	00010063 	andeq	r0, r1, r3, rrx
    11a4:	69707200 	ldmdbvs	r0!, {r9, ip, sp, lr}^
    11a8:	0200682e 	andeq	r6, r0, #3014656	; 0x2e0000
    11ac:	00000000 	andeq	r0, r0, r0
    11b0:	ab680205 	blge	1a019cc <__bss_end__+0x19f5004>
    11b4:	66130000 	ldrvs	r0, [r3], -r0
    11b8:	01001c02 	tsteq	r0, r2, lsl #24
    11bc:	0000a301 	andeq	sl, r0, r1, lsl #6
    11c0:	8f000200 	svchi	0x00000200
    11c4:	02000000 	andeq	r0, r0, #0
    11c8:	0d0efb01 	vstreq	d15, [lr, #-4]
    11cc:	01010100 	mrseq	r0, (UNDEF: 17)
    11d0:	00000001 	andeq	r0, r0, r1
    11d4:	01000001 	tsteq	r0, r1
    11d8:	66617473 			; <UNDEFINED> instruction: 0x66617473
    11dc:	72732d66 	rsbsvc	r2, r3, #6528	; 0x1980
    11e0:	552f0063 	strpl	r0, [pc, #-99]!	; 1185 <__code_start__-0x6e7b>
    11e4:	73726573 	cmnvc	r2, #482344960	; 0x1cc00000
    11e8:	6972622f 	ldmdbvs	r2!, {r0, r1, r2, r3, r5, r9, sp, lr}^
    11ec:	756a6e61 	strbvc	r6, [sl, #-3681]!	; 0xe61
    11f0:	65442f6e 	strbvs	r2, [r4, #-3950]	; 0xf6e
    11f4:	6f746b73 	svcvs	0x00746b73
    11f8:	63732f70 	cmnvs	r3, #112, 30	; 0x1c0
    11fc:	6c6f6f68 	stclvs	15, cr6, [pc], #-416	; 1064 <__code_start__-0x6f9c>
    1200:	7270532f 	rsbsvc	r5, r0, #-1140850688	; 0xbc000000
    1204:	31676e69 	cmncc	r7, r9, ror #28
    1208:	2f303239 	svccs	0x00303239
    120c:	34325343 	ldrtcc	r5, [r2], #-835	; 0x343
    1210:	2f584c30 	svccs	0x00584c30
    1214:	34327363 	ldrtcc	r7, [r2], #-867	; 0x363
    1218:	2d786c30 	ldclcs	12, cr6, [r8, #-192]!	; 0xffffff40
    121c:	70733032 	rsbsvc	r3, r3, r2, lsr r0
    1220:	696c2f72 	stmdbvs	ip!, {r1, r4, r5, r6, r8, r9, sl, fp, sp}^
    1224:	2f697062 	svccs	0x00697062
    1228:	6c636e69 	stclvs	14, cr6, [r3], #-420	; 0xfffffe5c
    122c:	00656475 	rsbeq	r6, r5, r5, ror r4
    1230:	66656400 	strbtvs	r6, [r5], -r0, lsl #8
    1234:	746c7561 	strbtvc	r7, [ip], #-1377	; 0x561
    1238:	6e61682d 	cdpvs	8, 6, cr6, cr1, cr13, {1}
    123c:	72656c64 	rsbvc	r6, r5, #100, 24	; 0x6400
    1240:	7365722d 	cmnvc	r5, #-805306366	; 0xd0000002
    1244:	632e7465 	teqvs	lr, #1694498816	; 0x65000000
    1248:	00000100 	andeq	r0, r0, r0, lsl #2
    124c:	2e697072 	mcrcs	0, 3, r7, cr9, cr2, {3}
    1250:	00020068 	andeq	r0, r2, r8, rrx
    1254:	05000000 	streq	r0, [r0, #-0]
    1258:	00abac02 	adceq	sl, fp, r2, lsl #24
    125c:	02661300 	rsbeq	r1, r6, #0, 6
    1260:	0101001c 	tsteq	r1, ip, lsl r0
    1264:	000000ac 	andeq	r0, r0, ip, lsr #1
    1268:	00980002 	addseq	r0, r8, r2
    126c:	01020000 	mrseq	r0, (UNDEF: 2)
    1270:	000d0efb 	strdeq	r0, [sp], -fp
    1274:	01010101 	tsteq	r1, r1, lsl #2
    1278:	01000000 	mrseq	r0, (UNDEF: 0)
    127c:	73010000 	movwvc	r0, #4096	; 0x1000
    1280:	66666174 			; <UNDEFINED> instruction: 0x66666174
    1284:	6372732d 	cmnvs	r2, #-1275068416	; 0xb4000000
    1288:	73552f00 	cmpvc	r5, #0, 30
    128c:	2f737265 	svccs	0x00737265
    1290:	61697262 	cmnvs	r9, r2, ror #4
    1294:	6e756a6e 	vsubvs.f32	s13, s10, s29
    1298:	7365442f 	cmnvc	r5, #788529152	; 0x2f000000
    129c:	706f746b 	rsbvc	r7, pc, fp, ror #8
    12a0:	6863732f 	stmdavs	r3!, {r0, r1, r2, r3, r5, r8, r9, ip, sp, lr}^
    12a4:	2f6c6f6f 	svccs	0x006c6f6f
    12a8:	69727053 	ldmdbvs	r2!, {r0, r1, r4, r6, ip, sp, lr}^
    12ac:	3931676e 	ldmdbcc	r1!, {r1, r2, r3, r5, r6, r8, r9, sl, sp, lr}
    12b0:	432f3032 	teqmi	pc, #50	; 0x32
    12b4:	30343253 	eorscc	r3, r4, r3, asr r2
    12b8:	632f584c 	teqvs	pc, #76, 16	; 0x4c0000
    12bc:	30343273 	eorscc	r3, r4, r3, ror r2
    12c0:	322d786c 	eorcc	r7, sp, #108, 16	; 0x6c0000
    12c4:	72707330 	rsbsvc	r7, r0, #48, 6	; 0xc0000000
    12c8:	62696c2f 	rsbvs	r6, r9, #12032	; 0x2f00
    12cc:	692f6970 	stmdbvs	pc!, {r4, r5, r6, r8, fp, sp, lr}	; <UNPREDICTABLE>
    12d0:	756c636e 	strbvc	r6, [ip, #-878]!	; 0x36e
    12d4:	00006564 	andeq	r6, r0, r4, ror #10
    12d8:	61666564 	cmnvs	r6, r4, ror #10
    12dc:	2d746c75 	ldclcs	12, cr6, [r4, #-468]!	; 0xfffffe2c
    12e0:	646e6168 	strbtvs	r6, [lr], #-360	; 0x168
    12e4:	2d72656c 	cfldr64cs	mvdx6, [r2, #-432]!	; 0xfffffe50
    12e8:	65646e75 	strbvs	r6, [r4, #-3701]!	; 0xe75
    12ec:	656e6966 	strbvs	r6, [lr, #-2406]!	; 0x966
    12f0:	6e692d64 	cdpvs	13, 6, cr2, cr9, cr4, {3}
    12f4:	632e7473 	teqvs	lr, #1929379840	; 0x73000000
    12f8:	00000100 	andeq	r0, r0, r0, lsl #2
    12fc:	2e697072 	mcrcs	0, 3, r7, cr9, cr2, {3}
    1300:	00020068 	andeq	r0, r2, r8, rrx
    1304:	05000000 	streq	r0, [r0, #-0]
    1308:	00abf002 	adceq	pc, fp, r2
    130c:	02661300 	rsbeq	r1, r6, #0, 6
    1310:	0101001c 	tsteq	r1, ip, lsl r0
    1314:	00000047 	andeq	r0, r0, r7, asr #32
    1318:	00330002 	eorseq	r0, r3, r2
    131c:	01020000 	mrseq	r0, (UNDEF: 2)
    1320:	000d0efb 	strdeq	r0, [sp], -fp
    1324:	01010101 	tsteq	r1, r1, lsl #2
    1328:	01000000 	mrseq	r0, (UNDEF: 0)
    132c:	73010000 	movwvc	r0, #4096	; 0x1000
    1330:	66666174 			; <UNDEFINED> instruction: 0x66666174
    1334:	6372732d 	cmnvs	r2, #-1275068416	; 0xb4000000
    1338:	65640000 	strbvs	r0, [r4, #-0]!
    133c:	6c756166 	ldfvse	f6, [r5], #-408	; 0xfffffe68
    1340:	61682d74 	smcvs	33492	; 0x82d4
    1344:	656c646e 	strbvs	r6, [ip, #-1134]!	; 0x46e
    1348:	632e7372 	teqvs	lr, #-939524095	; 0xc8000001
    134c:	00000100 	andeq	r0, r0, r0, lsl #2
    1350:	02050000 	andeq	r0, r5, #0
    1354:	0000ac34 	andeq	sl, r0, r4, lsr ip
    1358:	02022f15 	andeq	r2, r2, #21, 30	; 0x54
    135c:	c9010100 	stmdbgt	r1, {r8}
    1360:	02000000 	andeq	r0, r0, #0
    1364:	00009a00 	andeq	r9, r0, r0, lsl #20
    1368:	fb010200 	blx	41b72 <__bss_end__+0x351aa>
    136c:	01000d0e 	tsteq	r0, lr, lsl #26
    1370:	00010101 	andeq	r0, r1, r1, lsl #2
    1374:	00010000 	andeq	r0, r1, r0
    1378:	74730100 	ldrbtvc	r0, [r3], #-256	; 0x100
    137c:	2d666661 	stclcs	6, cr6, [r6, #-388]!	; 0xfffffe7c
    1380:	00637273 	rsbeq	r7, r3, r3, ror r2
    1384:	6573552f 	ldrbvs	r5, [r3, #-1327]!	; 0x52f
    1388:	622f7372 	eorvs	r7, pc, #-939524095	; 0xc8000001
    138c:	6e616972 	mcrvs	9, 3, r6, cr1, cr2, {3}
    1390:	2f6e756a 	svccs	0x006e756a
    1394:	6b736544 	blvs	1cda8ac <__bss_end__+0x1ccdee4>
    1398:	2f706f74 	svccs	0x00706f74
    139c:	6f686373 	svcvs	0x00686373
    13a0:	532f6c6f 	teqpl	pc, #28416	; 0x6f00
    13a4:	6e697270 	mcrvs	2, 3, r7, cr9, cr0, {3}
    13a8:	32393167 	eorscc	r3, r9, #-1073741799	; 0xc0000019
    13ac:	53432f30 	movtpl	r2, #16176	; 0x3f30
    13b0:	4c303432 	cfldrsmi	mvf3, [r0], #-200	; 0xffffff38
    13b4:	73632f58 	cmnvc	r3, #88, 30	; 0x160
    13b8:	6c303432 	cfldrsvs	mvf3, [r0], #-200	; 0xffffff38
    13bc:	30322d78 	eorscc	r2, r2, r8, ror sp
    13c0:	2f727073 	svccs	0x00727073
    13c4:	7062696c 	rsbvc	r6, r2, ip, ror #18
    13c8:	6e692f69 	cdpvs	15, 6, cr2, cr9, cr9, {3}
    13cc:	64756c63 	ldrbtvs	r6, [r5], #-3171	; 0xc63
    13d0:	69000065 	stmdbvs	r0, {r0, r2, r5, r6}
    13d4:	7265746e 	rsbvc	r7, r5, #1845493760	; 0x6e000000
    13d8:	74707572 	ldrbtvc	r7, [r0], #-1394	; 0x572
    13dc:	2e632d73 	mcrcs	13, 3, r2, cr3, cr3, {3}
    13e0:	00010063 	andeq	r0, r1, r3, rrx
    13e4:	69707200 	ldmdbvs	r0!, {r9, ip, sp, lr}^
    13e8:	746e692d 	strbtvc	r6, [lr], #-2349	; 0x92d
    13ec:	75727265 	ldrbvc	r7, [r2, #-613]!	; 0x265
    13f0:	2e737470 	mrccs	4, 3, r7, cr3, cr0, {3}
    13f4:	00020068 	andeq	r0, r2, r8, rrx
    13f8:	69707200 	ldmdbvs	r0!, {r9, ip, sp, lr}^
    13fc:	0200682e 	andeq	r6, r0, #3014656	; 0x2e0000
    1400:	00000000 	andeq	r0, r0, r0
    1404:	ac3c0205 	lfmge	f0, 4, [ip], #-20	; 0xffffffec
    1408:	1a030000 	bne	c1410 <__bss_end__+0xb4a48>
    140c:	672f3101 	strvs	r3, [pc, -r1, lsl #2]!
    1410:	2f833667 	svccs	0x00833667
    1414:	0402002d 	streq	r0, [r2], #-45	; 0x2d
    1418:	02002f02 	andeq	r2, r0, #2, 30
    141c:	00650204 	rsbeq	r0, r5, r4, lsl #4
    1420:	06010402 	streq	r0, [r1], -r2, lsl #8
    1424:	024c062e 	subeq	r0, ip, #48234496	; 0x2e00000
    1428:	0101000a 	tsteq	r1, sl
    142c:	000000a2 	andeq	r0, r0, r2, lsr #1
    1430:	00800002 	addeq	r0, r0, r2
    1434:	01020000 	mrseq	r0, (UNDEF: 2)
    1438:	000d0efb 	strdeq	r0, [sp], -fp
    143c:	01010101 	tsteq	r1, r1, lsl #2
    1440:	01000000 	mrseq	r0, (UNDEF: 0)
    1444:	73010000 	movwvc	r0, #4096	; 0x1000
    1448:	66666174 			; <UNDEFINED> instruction: 0x66666174
    144c:	6372732d 	cmnvs	r2, #-1275068416	; 0xb4000000
    1450:	73552f00 	cmpvc	r5, #0, 30
    1454:	2f737265 	svccs	0x00737265
    1458:	61697262 	cmnvs	r9, r2, ror #4
    145c:	6e756a6e 	vsubvs.f32	s13, s10, s29
    1460:	7365442f 	cmnvc	r5, #788529152	; 0x2f000000
    1464:	706f746b 	rsbvc	r7, pc, fp, ror #8
    1468:	6863732f 	stmdavs	r3!, {r0, r1, r2, r3, r5, r8, r9, ip, sp, lr}^
    146c:	2f6c6f6f 	svccs	0x006c6f6f
    1470:	69727053 	ldmdbvs	r2!, {r0, r1, r4, r6, ip, sp, lr}^
    1474:	3931676e 	ldmdbcc	r1!, {r1, r2, r3, r5, r6, r8, r9, sl, sp, lr}
    1478:	432f3032 	teqmi	pc, #50	; 0x32
    147c:	30343253 	eorscc	r3, r4, r3, asr r2
    1480:	632f584c 	teqvs	pc, #76, 16	; 0x4c0000
    1484:	30343273 	eorscc	r3, r4, r3, ror r2
    1488:	322d786c 	eorcc	r7, sp, #108, 16	; 0x6c0000
    148c:	72707330 	rsbsvc	r7, r0, #48, 6	; 0xc0000000
    1490:	62696c2f 	rsbvs	r6, r9, #12032	; 0x2f00
    1494:	692f6970 	stmdbvs	pc!, {r4, r5, r6, r8, fp, sp, lr}	; <UNPREDICTABLE>
    1498:	756c636e 	strbvc	r6, [ip, #-878]!	; 0x36e
    149c:	00006564 	andeq	r6, r0, r4, ror #10
    14a0:	6f626572 	svcvs	0x00626572
    14a4:	632e746f 	teqvs	lr, #1862270976	; 0x6f000000
    14a8:	00000100 	andeq	r0, r0, r0, lsl #2
    14ac:	2e697072 	mcrcs	0, 3, r7, cr9, cr2, {3}
    14b0:	00020068 	andeq	r0, r2, r8, rrx
    14b4:	05000000 	streq	r0, [r0, #-0]
    14b8:	00aca802 	adceq	sl, ip, r2, lsl #16
    14bc:	010d0300 	mrseq	r0, SP_mon
    14c0:	852f3114 	strhi	r3, [pc, #-276]!	; 13b4 <__code_start__-0x6c4c>
    14c4:	4d4b2f15 	stclmi	15, cr2, [fp, #-84]	; 0xffffffac
    14c8:	5235672f 	eorspl	r6, r5, #12320768	; 0xbc0000
    14cc:	00100267 	andseq	r0, r0, r7, ror #4
    14d0:	00ae0101 	adceq	r0, lr, r1, lsl #2
    14d4:	00020000 	andeq	r0, r2, r0
    14d8:	0000007f 	andeq	r0, r0, pc, ror r0
    14dc:	0efb0102 	cdpeq	1, 15, cr0, cr11, cr2, {0}
    14e0:	0101000d 	tsteq	r1, sp
    14e4:	00000101 	andeq	r0, r0, r1, lsl #2
    14e8:	00000100 	andeq	r0, r0, r0, lsl #2
    14ec:	61747301 	cmnvs	r4, r1, lsl #6
    14f0:	732d6666 	teqvc	sp, #106954752	; 0x6600000
    14f4:	2f006372 	svccs	0x00006372
    14f8:	72657355 	rsbvc	r7, r5, #1409286145	; 0x54000001
    14fc:	72622f73 	rsbvc	r2, r2, #460	; 0x1cc
    1500:	6a6e6169 	bvs	1b99aac <__bss_end__+0x1b8d0e4>
    1504:	442f6e75 	strtmi	r6, [pc], #-3701	; 150c <__code_start__-0x6af4>
    1508:	746b7365 	strbtvc	r7, [fp], #-869	; 0x365
    150c:	732f706f 	teqvc	pc, #111	; 0x6f
    1510:	6f6f6863 	svcvs	0x006f6863
    1514:	70532f6c 	subsvc	r2, r3, ip, ror #30
    1518:	676e6972 			; <UNDEFINED> instruction: 0x676e6972
    151c:	30323931 	eorscc	r3, r2, r1, lsr r9
    1520:	3253432f 	subscc	r4, r3, #-1140850688	; 0xbc000000
    1524:	584c3034 	stmdapl	ip, {r2, r4, r5, ip, sp}^
    1528:	3273632f 	rsbscc	r6, r3, #-1140850688	; 0xbc000000
    152c:	786c3034 	stmdavc	ip!, {r2, r4, r5, ip, sp}^
    1530:	7330322d 	teqvc	r0, #-805306366	; 0xd0000002
    1534:	6c2f7270 	sfmvs	f7, 4, [pc], #-448	; 137c <__code_start__-0x6c84>
    1538:	69706269 	ldmdbvs	r0!, {r0, r3, r5, r6, r9, sp, lr}^
    153c:	636e692f 	cmnvs	lr, #770048	; 0xbc000
    1540:	6564756c 	strbvs	r7, [r4, #-1388]!	; 0x56c
    1544:	69740000 	ldmdbvs	r4!, {}^	; <UNPREDICTABLE>
    1548:	2e72656d 	cdpcs	5, 7, cr6, cr2, cr13, {3}
    154c:	00010063 	andeq	r0, r1, r3, rrx
    1550:	69707200 	ldmdbvs	r0!, {r9, ip, sp, lr}^
    1554:	0200682e 	andeq	r6, r0, #3014656	; 0x2e0000
    1558:	00000000 	andeq	r0, r0, r0
    155c:	ad1c0205 	lfmge	f0, 4, [ip, #-20]	; 0xffffffec
    1560:	14160000 	ldrne	r0, [r6], #-0
    1564:	02002d2f 	andeq	r2, r0, #3008	; 0xbc0
    1568:	2e060104 	adfcss	f0, f6, f4
    156c:	2f316d06 	svccs	0x00316d06
    1570:	2f314d4b 	svccs	0x00314d4b
    1574:	4b4c304b 	blmi	130d6a8 <__bss_end__+0x1300ce0>
    1578:	2f6a2f4c 	svccs	0x006a2f4c
    157c:	022f842f 	eoreq	r8, pc, #788529152	; 0x2f000000
    1580:	01010008 	tsteq	r1, r8
    1584:	00000148 	andeq	r0, r0, r8, asr #2
    1588:	01020002 	tsteq	r2, r2
    158c:	01020000 	mrseq	r0, (UNDEF: 2)
    1590:	000d0efb 	strdeq	r0, [sp], -fp
    1594:	01010101 	tsteq	r1, r1, lsl #2
    1598:	01000000 	mrseq	r0, (UNDEF: 0)
    159c:	2f010000 	svccs	0x00010000
    15a0:	2f727375 	svccs	0x00727375
    15a4:	6c636e69 	stclvs	14, cr6, [r3], #-420	; 0xfffffe5c
    15a8:	2f656475 	svccs	0x00656475
    15ac:	6c77656e 	cfldr64vs	mvdx6, [r7], #-440	; 0xfffffe48
    15b0:	732f6269 	teqvc	pc, #-1879048186	; 0x90000006
    15b4:	2f007379 	svccs	0x00007379
    15b8:	2f727375 	svccs	0x00727375
    15bc:	2f62696c 	svccs	0x0062696c
    15c0:	2f636367 	svccs	0x00636367
    15c4:	2d6d7261 	sfmcs	f7, 2, [sp, #-388]!	; 0xfffffe7c
    15c8:	656e6f6e 	strbvs	r6, [lr, #-3950]!	; 0xf6e
    15cc:	6261652d 	rsbvs	r6, r1, #188743680	; 0xb400000
    15d0:	2e362f69 	cdpcs	15, 3, cr2, cr6, cr9, {3}
    15d4:	2f312e33 	svccs	0x00312e33
    15d8:	6c636e69 	stclvs	14, cr6, [r3], #-420	; 0xfffffe5c
    15dc:	00656475 	rsbeq	r6, r5, r5, ror r4
    15e0:	6d6f682f 	stclvs	8, cr6, [pc, #-188]!	; 152c <__code_start__-0x6ad4>
    15e4:	6e652f65 	cdpvs	15, 6, cr2, cr5, cr5, {3}
    15e8:	72656c67 	rsbvc	r6, r5, #26368	; 0x6700
    15ec:	616c632f 	cmnvs	ip, pc, lsr #6
    15f0:	632f7373 	teqvs	pc, #-872415231	; 0xcc000001
    15f4:	30343273 	eorscc	r3, r4, r3, ror r2
    15f8:	322d786c 	eorcc	r7, sp, #108, 16	; 0x6c0000
    15fc:	72707330 	rsbsvc	r7, r0, #48, 6	; 0xc0000000
    1600:	696c2f2f 	stmdbvs	ip!, {r0, r1, r2, r3, r5, r8, r9, sl, fp, sp}^
    1604:	00697062 	rsbeq	r7, r9, r2, rrx
    1608:	6d6f682f 	stclvs	8, cr6, [pc, #-188]!	; 1554 <__code_start__-0x6aac>
    160c:	6e652f65 	cdpvs	15, 6, cr2, cr5, cr5, {3}
    1610:	72656c67 	rsbvc	r6, r5, #26368	; 0x6700
    1614:	616c632f 	cmnvs	ip, pc, lsr #6
    1618:	632f7373 	teqvs	pc, #-872415231	; 0xcc000001
    161c:	30343273 	eorscc	r3, r4, r3, ror r2
    1620:	322d786c 	eorcc	r7, sp, #108, 16	; 0x6c0000
    1624:	72707330 	rsbsvc	r7, r0, #48, 6	; 0xc0000000
    1628:	696c2f2f 	stmdbvs	ip!, {r0, r1, r2, r3, r5, r8, r9, sl, fp, sp}^
    162c:	2f697062 	svccs	0x00697062
    1630:	66617473 			; <UNDEFINED> instruction: 0x66617473
    1634:	72732d66 	rsbsvc	r2, r3, #6528	; 0x1980
    1638:	75000063 	strvc	r0, [r0, #-99]	; 0x63
    163c:	2e747261 	cdpcs	2, 7, cr7, cr4, cr1, {3}
    1640:	00000063 	andeq	r0, r0, r3, rrx
    1644:	636f6c00 	cmnvs	pc, #0, 24
    1648:	00682e6b 	rsbeq	r2, r8, fp, ror #28
    164c:	5f000001 	svcpl	0x00000001
    1650:	65707974 	ldrbvs	r7, [r0, #-2420]!	; 0x974
    1654:	00682e73 	rsbeq	r2, r8, r3, ror lr
    1658:	73000001 	movwvc	r0, #1
    165c:	65646474 	strbvs	r6, [r4, #-1140]!	; 0x474
    1660:	00682e66 	rsbeq	r2, r8, r6, ror #28
    1664:	72000002 	andvc	r0, r0, #2
    1668:	746e6565 	strbtvc	r6, [lr], #-1381	; 0x565
    166c:	0100682e 	tsteq	r0, lr, lsr #16
    1670:	70720000 	rsbsvc	r0, r2, r0
    1674:	00682e69 	rsbeq	r2, r8, r9, ror #28
    1678:	75000003 	strvc	r0, [r0, #-3]
    167c:	2e747261 	cdpcs	2, 7, cr7, cr4, cr1, {3}
    1680:	00040068 	andeq	r0, r4, r8, rrx
    1684:	69706700 	ldmdbvs	r0!, {r8, r9, sl, sp, lr}^
    1688:	00682e6f 	rsbeq	r2, r8, pc, ror #28
    168c:	00000004 	andeq	r0, r0, r4
    1690:	18020500 	stmdane	r2, {r8, sl}
    1694:	030000ae 	movweq	r0, #174	; 0xae
    1698:	0367012c 	cmneq	r7, #44, 2
    169c:	67359e0c 	ldrvs	r9, [r5, -ip, lsl #28]!
    16a0:	03683568 	cmneq	r8, #104, 10	; 0x1a000000
    16a4:	6b852e0c 	blvs	fe14cedc <__bss_end__+0xfe140514>
    16a8:	0c036969 	stceq	9, cr6, [r3], {105}	; 0x69
    16ac:	08676b66 	stmdaeq	r7!, {r1, r2, r5, r6, r8, r9, fp, sp, lr}^
    16b0:	4b683442 	blmi	1a0e7c0 <__bss_end__+0x1a01df8>
    16b4:	2f876836 	svccs	0x00876836
    16b8:	01040200 	mrseq	r0, R12_usr
    16bc:	3067682f 	rsbcc	r6, r7, pc, lsr #16
    16c0:	02004b67 	andeq	r4, r0, #105472	; 0x19c00
    16c4:	682f0104 	stmdavs	pc!, {r2, r8}	; <UNPREDICTABLE>
    16c8:	022e6967 	eoreq	r6, lr, #1687552	; 0x19c000
    16cc:	01010006 	tsteq	r1, r6
    16d0:	0000012b 	andeq	r0, r0, fp, lsr #2
    16d4:	00f80002 	rscseq	r0, r8, r2
    16d8:	01020000 	mrseq	r0, (UNDEF: 2)
    16dc:	000d0efb 	strdeq	r0, [sp], -fp
    16e0:	01010101 	tsteq	r1, r1, lsl #2
    16e4:	01000000 	mrseq	r0, (UNDEF: 0)
    16e8:	2f010000 	svccs	0x00010000
    16ec:	2f727375 	svccs	0x00727375
    16f0:	6c636e69 	stclvs	14, cr6, [r3], #-420	; 0xfffffe5c
    16f4:	2f656475 	svccs	0x00656475
    16f8:	6c77656e 	cfldr64vs	mvdx6, [r7], #-440	; 0xfffffe48
    16fc:	732f6269 	teqvc	pc, #-1879048186	; 0x90000006
    1700:	2f007379 	svccs	0x00007379
    1704:	2f727375 	svccs	0x00727375
    1708:	2f62696c 	svccs	0x0062696c
    170c:	2f636367 	svccs	0x00636367
    1710:	2d6d7261 	sfmcs	f7, 2, [sp, #-388]!	; 0xfffffe7c
    1714:	656e6f6e 	strbvs	r6, [lr, #-3950]!	; 0xf6e
    1718:	6261652d 	rsbvs	r6, r1, #188743680	; 0xb400000
    171c:	2e362f69 	cdpcs	15, 3, cr2, cr6, cr9, {3}
    1720:	2f312e33 	svccs	0x00312e33
    1724:	6c636e69 	stclvs	14, cr6, [r3], #-420	; 0xfffffe5c
    1728:	00656475 	rsbeq	r6, r5, r5, ror r4
    172c:	6d6f682f 	stclvs	8, cr6, [pc, #-188]!	; 1678 <__code_start__-0x6988>
    1730:	6e652f65 	cdpvs	15, 6, cr2, cr5, cr5, {3}
    1734:	72656c67 	rsbvc	r6, r5, #26368	; 0x6700
    1738:	616c632f 	cmnvs	ip, pc, lsr #6
    173c:	632f7373 	teqvs	pc, #-872415231	; 0xcc000001
    1740:	30343273 	eorscc	r3, r4, r3, ror r2
    1744:	322d786c 	eorcc	r7, sp, #108, 16	; 0x6c0000
    1748:	72707330 	rsbsvc	r7, r0, #48, 6	; 0xc0000000
    174c:	696c2f2f 	stmdbvs	ip!, {r0, r1, r2, r3, r5, r8, r9, sl, fp, sp}^
    1750:	00697062 	rsbeq	r7, r9, r2, rrx
    1754:	6d6f682f 	stclvs	8, cr6, [pc, #-188]!	; 16a0 <__code_start__-0x6960>
    1758:	6e652f65 	cdpvs	15, 6, cr2, cr5, cr5, {3}
    175c:	72656c67 	rsbvc	r6, r5, #26368	; 0x6700
    1760:	616c632f 	cmnvs	ip, pc, lsr #6
    1764:	632f7373 	teqvs	pc, #-872415231	; 0xcc000001
    1768:	30343273 	eorscc	r3, r4, r3, ror r2
    176c:	322d786c 	eorcc	r7, sp, #108, 16	; 0x6c0000
    1770:	72707330 	rsbsvc	r7, r0, #48, 6	; 0xc0000000
    1774:	696c2f2f 	stmdbvs	ip!, {r0, r1, r2, r3, r5, r8, r9, sl, fp, sp}^
    1778:	2f697062 	svccs	0x00697062
    177c:	66617473 			; <UNDEFINED> instruction: 0x66617473
    1780:	72732d66 	rsbsvc	r2, r3, #6528	; 0x1980
    1784:	67000063 	strvs	r0, [r0, -r3, rrx]
    1788:	2e6f6970 	mcrcs	9, 3, r6, cr15, cr0, {3}
    178c:	00000063 	andeq	r0, r0, r3, rrx
    1790:	636f6c00 	cmnvs	pc, #0, 24
    1794:	00682e6b 	rsbeq	r2, r8, fp, ror #28
    1798:	5f000001 	svcpl	0x00000001
    179c:	65707974 	ldrbvs	r7, [r0, #-2420]!	; 0x974
    17a0:	00682e73 	rsbeq	r2, r8, r3, ror lr
    17a4:	73000001 	movwvc	r0, #1
    17a8:	65646474 	strbvs	r6, [r4, #-1140]!	; 0x474
    17ac:	00682e66 	rsbeq	r2, r8, r6, ror #28
    17b0:	72000002 	andvc	r0, r0, #2
    17b4:	746e6565 	strbtvc	r6, [lr], #-1381	; 0x565
    17b8:	0100682e 	tsteq	r0, lr, lsr #16
    17bc:	70720000 	rsbsvc	r0, r2, r0
    17c0:	00682e69 	rsbeq	r2, r8, r9, ror #28
    17c4:	67000003 	strvs	r0, [r0, -r3]
    17c8:	2e6f6970 	mcrcs	9, 3, r6, cr15, cr0, {3}
    17cc:	00040068 	andeq	r0, r4, r8, rrx
    17d0:	05000000 	streq	r0, [r0, #-0]
    17d4:	00af9002 	adceq	r9, pc, r2
    17d8:	01270300 	teqeq	r7, r0, lsl #6
    17dc:	4f474c13 	svcmi	0x00474c13
    17e0:	4c4b68f4 	mcrrmi	8, 15, r6, fp, cr4
    17e4:	136a2fa1 	cmnne	sl, #644	; 0x284
    17e8:	13be3149 			; <UNDEFINED> instruction: 0x13be3149
    17ec:	2fbe3149 	svccs	0x00be3149
    17f0:	484d2f6a 	stmdami	sp, {r1, r3, r5, r6, r8, r9, sl, fp, sp}^
    17f4:	3249134f 	subcc	r1, r9, #1006632961	; 0x3c000001
    17f8:	0602b72f 	streq	fp, [r2], -pc, lsr #14
    17fc:	34010100 	strcc	r0, [r1], #-256	; 0x100
    1800:	02000001 	andeq	r0, r0, #1
    1804:	0000df00 	andeq	sp, r0, r0, lsl #30
    1808:	fb010200 	blx	42012 <__bss_end__+0x3564a>
    180c:	01000d0e 	tsteq	r0, lr, lsl #26
    1810:	00010101 	andeq	r0, r1, r1, lsl #2
    1814:	00010000 	andeq	r0, r1, r0
    1818:	752f0100 	strvc	r0, [pc, #-256]!	; 1720 <__code_start__-0x68e0>
    181c:	692f7273 	stmdbvs	pc!, {r0, r1, r4, r5, r6, r9, ip, sp, lr}	; <UNPREDICTABLE>
    1820:	756c636e 	strbvc	r6, [ip, #-878]!	; 0x36e
    1824:	6e2f6564 	cfsh64vs	mvdx6, mvdx15, #52
    1828:	696c7765 	stmdbvs	ip!, {r0, r2, r5, r6, r8, r9, sl, ip, sp, lr}^
    182c:	79732f62 	ldmdbvc	r3!, {r1, r5, r6, r8, r9, sl, fp, sp}^
    1830:	752f0073 	strvc	r0, [pc, #-115]!	; 17c5 <__code_start__-0x683b>
    1834:	6c2f7273 	sfmvs	f7, 4, [pc], #-460	; 1670 <__code_start__-0x6990>
    1838:	672f6269 	strvs	r6, [pc, -r9, ror #4]!
    183c:	612f6363 	teqvs	pc, r3, ror #6
    1840:	6e2d6d72 	mcrvs	13, 1, r6, cr13, cr2, {3}
    1844:	2d656e6f 	stclcs	14, cr6, [r5, #-444]!	; 0xfffffe44
    1848:	69626165 	stmdbvs	r2!, {r0, r2, r5, r6, r8, sp, lr}^
    184c:	332e362f 	teqcc	lr, #49283072	; 0x2f00000
    1850:	692f312e 	stmdbvs	pc!, {r1, r2, r3, r5, r8, ip, sp}	; <UNPREDICTABLE>
    1854:	756c636e 	strbvc	r6, [ip, #-878]!	; 0x36e
    1858:	2f006564 	svccs	0x00006564
    185c:	656d6f68 	strbvs	r6, [sp, #-3944]!	; 0xf68
    1860:	676e652f 	strbvs	r6, [lr, -pc, lsr #10]!
    1864:	2f72656c 	svccs	0x0072656c
    1868:	73616c63 	cmnvc	r1, #25344	; 0x6300
    186c:	73632f73 	cmnvc	r3, #460	; 0x1cc
    1870:	6c303432 	cfldrsvs	mvf3, [r0], #-200	; 0xffffff38
    1874:	30322d78 	eorscc	r2, r2, r8, ror sp
    1878:	2f727073 	svccs	0x00727073
    187c:	62696c2f 	rsbvs	r6, r9, #12032	; 0x2f00
    1880:	2f006970 	svccs	0x00006970
    1884:	2f727375 	svccs	0x00727375
    1888:	6c636e69 	stclvs	14, cr6, [r3], #-420	; 0xfffffe5c
    188c:	2f656475 	svccs	0x00656475
    1890:	6c77656e 	cfldr64vs	mvdx6, [r7], #-440	; 0xfffffe48
    1894:	00006269 	andeq	r6, r0, r9, ror #4
    1898:	6c616d6b 	stclvs	13, cr6, [r1], #-428	; 0xfffffe54
    189c:	2e636f6c 	cdpcs	15, 6, cr6, cr3, cr12, {3}
    18a0:	00000063 	andeq	r0, r0, r3, rrx
    18a4:	636f6c00 	cmnvs	pc, #0, 24
    18a8:	00682e6b 	rsbeq	r2, r8, fp, ror #28
    18ac:	5f000001 	svcpl	0x00000001
    18b0:	65707974 	ldrbvs	r7, [r0, #-2420]!	; 0x974
    18b4:	00682e73 	rsbeq	r2, r8, r3, ror lr
    18b8:	73000001 	movwvc	r0, #1
    18bc:	65646474 	strbvs	r6, [r4, #-1140]!	; 0x474
    18c0:	00682e66 	rsbeq	r2, r8, r6, ror #28
    18c4:	72000002 	andvc	r0, r0, #2
    18c8:	746e6565 	strbtvc	r6, [lr], #-1381	; 0x565
    18cc:	0100682e 	tsteq	r0, lr, lsr #16
    18d0:	70720000 	rsbsvc	r0, r2, r0
    18d4:	00682e69 	rsbeq	r2, r8, r9, ror #28
    18d8:	73000003 	movwvc	r0, #3
    18dc:	6e697274 	mcrvs	2, 3, r7, cr9, cr4, {3}
    18e0:	00682e67 	rsbeq	r2, r8, r7, ror #28
    18e4:	00000004 	andeq	r0, r0, r4
    18e8:	b0020500 	andlt	r0, r2, r0, lsl #10
    18ec:	030000b0 	movweq	r0, #176	; 0xb0
    18f0:	83010110 	movwhi	r0, #4368	; 0x1110
    18f4:	83146801 	tsthi	r4, #65536	; 0x10000
    18f8:	01040200 	mrseq	r0, R12_usr
    18fc:	0402007f 	streq	r0, [r2], #-127	; 0x7f
    1900:	5c083001 	stcpl	0, cr3, [r8], {1}
    1904:	4b4c4b2f 	blmi	13145c8 <__bss_end__+0x1307c00>
    1908:	0200684b 	andeq	r6, r0, #4915200	; 0x4b0000
    190c:	79030104 	stmdbvc	r3, {r2, r8}
    1910:	0809034a 	stmdaeq	r9, {r1, r3, r6, r8, r9}
    1914:	2e012f58 	mcrcs	15, 0, r2, cr1, cr8, {2}
    1918:	4b6a2f4e 	blmi	1a8d658 <__bss_end__+0x1a80c90>
    191c:	2f4c6767 	svccs	0x004c6767
    1920:	01040200 	mrseq	r0, R12_usr
    1924:	002e7603 	eoreq	r7, lr, r3, lsl #12
    1928:	dc010402 	cfstrsle	mvf0, [r1], {2}
    192c:	012f7a08 	teqeq	pc, r8, lsl #20
    1930:	0802019f 	stmdaeq	r2, {r0, r1, r2, r3, r4, r7, r8}
    1934:	Address 0x0000000000001934 is out of bounds.


Disassembly of section .debug_str:

00000000 <.debug_str>:
       0:	414d4f44 	cmpmi	sp, r4, asr #30
       4:	535f4e49 	cmppl	pc, #1168	; 0x490
       8:	49544345 	ldmdbmi	r4, {r0, r2, r6, r8, r9, lr}^
       c:	465f4e4f 	ldrbmi	r4, [pc], -pc, asr #28
      10:	544c5541 	strbpl	r5, [ip], #-1345	; 0x541
      14:	6d656d00 	stclvs	13, cr6, [r5, #-0]
      18:	63656863 	cmnvs	r5, #6488064	; 0x630000
      1c:	72745f6b 	rsbsvc	r5, r4, #428	; 0x1ac
      20:	006b6361 	rsbeq	r6, fp, r1, ror #6
      24:	726f6873 	rsbvc	r6, pc, #7536640	; 0x730000
      28:	6e752074 	mrcvs	0, 3, r2, cr5, cr4, {3}
      2c:	6e676973 	mcrvs	9, 3, r6, cr7, cr3, {3}
      30:	69206465 	stmdbvs	r0!, {r0, r2, r5, r6, sl, sp, lr}
      34:	5000746e 	andpl	r7, r0, lr, ror #8
      38:	32335455 	eorscc	r5, r3, #1426063360	; 0x55000000
      3c:	746f6e00 	strbtvc	r6, [pc], #-3584	; 44 <__code_start__-0x7fbc>
      40:	6e69616d 	powvsez	f6, f1, #5.0
      44:	75616600 	strbvc	r6, [r1, #-1536]!	; 0x600
      48:	655f746c 	ldrbvs	r7, [pc, #-1132]	; fffffbe4 <__bss_end__+0xffff321c>
      4c:	63657078 	cmnvs	r5, #120	; 0x78
      50:	00646574 	rsbeq	r6, r4, r4, ror r5
      54:	33544547 	cmpcc	r4, #297795584	; 0x11c00000
      58:	45530032 	ldrbmi	r0, [r3, #-50]	; 0x32
      5c:	4f495443 	svcmi	0x00495443
      60:	45505f4e 	ldrbmi	r5, [r0, #-3918]	; 0xf4e
      64:	465f4d52 			; <UNDEFINED> instruction: 0x465f4d52
      68:	544c5541 	strbpl	r5, [ip], #-1345	; 0x541
      6c:	736e7500 	cmnvc	lr, #0, 10
      70:	656e6769 	strbvs	r6, [lr, #-1897]!	; 0x769
      74:	68632064 	stmdavs	r3!, {r2, r5, r6, sp}^
      78:	63007261 	movwvs	r7, #609	; 0x261
      7c:	6e61656c 	cdpvs	5, 6, cr6, cr1, cr12, {3}
      80:	6265725f 	rsbvs	r7, r5, #-268435451	; 0xf0000005
      84:	00746f6f 	rsbseq	r6, r4, pc, ror #30
      88:	636d656d 	cmnvs	sp, #457179136	; 0x1b400000
      8c:	6b636568 	blvs	18d9634 <__bss_end__+0x18ccc6c>
      90:	6172745f 	cmnvs	r2, pc, asr r4
      94:	6e655f70 	mcrvs	15, 3, r5, cr5, cr0, {3}
      98:	656c6261 	strbvs	r6, [ip, #-609]!	; 0x261
      9c:	45530064 	ldrbmi	r0, [r3, #-100]	; 0x64
      a0:	4f495443 	svcmi	0x00495443
      a4:	4c585f4e 	mrrcmi	15, 4, r5, r8, cr14
      a8:	5f455441 	svcpl	0x00455441
      ac:	4c554146 	ldfmie	f4, [r5], {70}	; 0x46
      b0:	65740054 	ldrbvs	r0, [r4, #-84]!	; 0x54
      b4:	725f7473 	subsvc	r7, pc, #1929379840	; 0x73000000
      b8:	6d757365 	ldclvs	3, cr7, [r5, #-404]!	; 0xfffffe6c
      bc:	656d0065 	strbvs	r0, [sp, #-101]!	; 0x65
      c0:	6568636d 	strbvs	r6, [r8, #-877]!	; 0x36d
      c4:	745f6b63 	ldrbvc	r6, [pc], #-2915	; cc <__code_start__-0x7f34>
      c8:	5f706172 	svcpl	0x00706172
      cc:	62616e65 	rsbvs	r6, r1, #1616	; 0x650
      d0:	5f00656c 	svcpl	0x0000656c
      d4:	4e55465f 	mrcmi	6, 2, r4, cr5, cr15, {2}
      d8:	4f495443 	svcmi	0x00495443
      dc:	005f5f4e 	subseq	r5, pc, lr, asr #30
      e0:	636d656d 	cmnvs	sp, #457179136	; 0x1b400000
      e4:	6b636568 	blvs	18d968c <__bss_end__+0x18cccc4>
      e8:	006e6f5f 	rsbeq	r6, lr, pc, asr pc
      ec:	6573552f 	ldrbvs	r5, [r3, #-1327]!	; 0x52f
      f0:	622f7372 	eorvs	r7, pc, #-939524095	; 0xc8000001
      f4:	6e616972 	mcrvs	9, 3, r6, cr1, cr2, {3}
      f8:	2f6e756a 	svccs	0x006e756a
      fc:	6b736544 	blvs	1cd9614 <__bss_end__+0x1cccc4c>
     100:	2f706f74 	svccs	0x00706f74
     104:	6f686373 	svcvs	0x00686373
     108:	532f6c6f 	teqpl	pc, #28416	; 0x6f00
     10c:	6e697270 	mcrvs	2, 3, r7, cr9, cr0, {3}
     110:	32393167 	eorscc	r3, r9, #-1073741799	; 0xc0000019
     114:	53432f30 	movtpl	r2, #16176	; 0x3f30
     118:	4c303432 	cfldrsmi	mvf3, [r0], #-200	; 0xffffff38
     11c:	73632f58 	cmnvc	r3, #88, 30	; 0x160
     120:	6c303432 	cfldrsvs	mvf3, [r0], #-200	; 0xffffff38
     124:	30322d78 	eorscc	r2, r2, r8, ror sp
     128:	2f727073 	svccs	0x00727073
     12c:	7362616c 	cmnvc	r2, #108, 2
     130:	2d37312f 	ldfcss	f3, [r7, #-188]!	; 0xffffff44
     134:	636d656d 	cmnvs	sp, #457179136	; 0x1b400000
     138:	6b636568 	blvs	18d96e0 <__bss_end__+0x18ccd18>
     13c:	7261702f 	rsbvc	r7, r1, #47	; 0x2f
     140:	762d3274 			; <UNDEFINED> instruction: 0x762d3274
     144:	72742d6d 	rsbsvc	r2, r4, #6976	; 0x1b40
     148:	6d007061 	stcvs	0, cr7, [r0, #-388]	; 0xfffffe7c
     14c:	695f756d 	ldmdbvs	pc, {r0, r2, r3, r5, r6, r8, sl, ip, sp, lr}^	; <UNPREDICTABLE>
     150:	6e655f73 	mcrvs	15, 3, r5, cr5, cr3, {3}
     154:	656c6261 	strbvs	r6, [ip, #-609]!	; 0x261
     158:	4e470064 	cdpmi	0, 4, cr0, cr7, cr4, {3}
     15c:	20432055 	subcs	r2, r3, r5, asr r0
     160:	2e382e34 	mrccs	14, 1, r2, cr8, cr4, {1}
     164:	6d2d2033 	stcvs	0, cr2, [sp, #-204]!	; 0xffffff34
     168:	3d757063 	ldclcc	0, cr7, [r5, #-396]!	; 0xfffffe74
     16c:	316d7261 	cmncc	sp, r1, ror #4
     170:	6a363731 	bvs	d8de3c <__bss_end__+0xd81474>
     174:	732d667a 	teqvc	sp, #127926272	; 0x7a00000
     178:	746d2d20 	strbtvc	r2, [sp], #-3360	; 0xd20
     17c:	3d656e75 	stclcc	14, cr6, [r5, #-468]!	; 0xfffffe2c
     180:	316d7261 	cmncc	sp, r1, ror #4
     184:	6a363731 	bvs	d8de50 <__bss_end__+0xd81488>
     188:	732d667a 	teqvc	sp, #127926272	; 0x7a00000
     18c:	67672d20 	strbvs	r2, [r7, -r0, lsr #26]!
     190:	2d206264 	sfmcs	f6, 4, [r0, #-400]!	; 0xfffffe70
     194:	2d20674f 	stccs	7, cr6, [r0, #-316]!	; 0xfffffec4
     198:	3d647473 	cfstrdcc	mvd7, [r4, #-460]!	; 0xfffffe34
     19c:	39756e67 	ldmdbcc	r5!, {r0, r1, r2, r5, r6, r9, sl, fp, sp, lr}^
     1a0:	662d2039 			; <UNDEFINED> instruction: 0x662d2039
     1a4:	65657266 	strbvs	r7, [r5, #-614]!	; 0x266
     1a8:	6e617473 	mcrvs	4, 3, r7, cr1, cr3, {3}
     1ac:	676e6964 	strbvs	r6, [lr, -r4, ror #18]!
     1b0:	6e662d20 	cdpvs	13, 6, cr2, cr6, cr0, {1}
     1b4:	6f742d6f 	svcvs	0x00742d6f
     1b8:	76656c70 			; <UNDEFINED> instruction: 0x76656c70
     1bc:	722d6c65 	eorvc	r6, sp, #25856	; 0x6500
     1c0:	64726f65 	ldrbtvs	r6, [r2], #-3941	; 0xf65
     1c4:	6d007265 	sfmvs	f7, 4, [r0, #-404]	; 0xfffffe6c
     1c8:	68636d65 	stmdavs	r3!, {r0, r2, r5, r6, r8, sl, fp, sp, lr}^
     1cc:	5f6b6365 	svcpl	0x006b6365
     1d0:	74696e69 	strbtvc	r6, [r9], #-3689	; 0xe69
     1d4:	6e6f6c00 	cdpvs	12, 6, cr6, cr15, cr0, {0}
     1d8:	6f6c2067 	svcvs	0x006c2067
     1dc:	7520676e 	strvc	r6, [r0, #-1902]!	; 0x76e
     1e0:	6769736e 	strbvs	r7, [r9, -lr, ror #6]!
     1e4:	2064656e 	rsbcs	r6, r4, lr, ror #10
     1e8:	00746e69 	rsbseq	r6, r4, r9, ror #28
     1ec:	74736574 	ldrbtvc	r6, [r3], #-1396	; 0x574
     1f0:	61702f73 	cmnvs	r0, r3, ror pc
     1f4:	2d327472 	cfldrscs	mvf7, [r2, #-456]!	; 0xfffffe38
     1f8:	74736574 	ldrbtvc	r6, [r3], #-1396	; 0x574
     1fc:	00632e34 	rsbeq	r2, r3, r4, lsr lr
     200:	657a6973 	ldrbvs	r6, [sl, #-2419]!	; 0x973
     204:	65707974 	ldrbvs	r7, [r0, #-2420]!	; 0x974
     208:	6e6f6c00 	cdpvs	12, 6, cr6, cr15, cr0, {0}
     20c:	6f6c2067 	svcvs	0x006c2067
     210:	6920676e 	stmdbvs	r0!, {r1, r2, r3, r5, r6, r8, r9, sl, sp, lr}
     214:	6d00746e 	cfstrsvs	mvf7, [r0, #-440]	; 0xfffffe48
     218:	68636d65 	stmdavs	r3!, {r0, r2, r5, r6, r8, sl, fp, sp, lr}^
     21c:	5f6b6365 	svcpl	0x006b6365
     220:	746e6f63 	strbtvc	r6, [lr], #-3939	; 0xf63
     224:	65756e69 	ldrbvs	r6, [r5, #-3689]!	; 0xe69
     228:	7466615f 	strbtvc	r6, [r6], #-351	; 0x15f
     22c:	665f7265 	ldrbvs	r7, [pc], -r5, ror #4
     230:	746c7561 	strbtvc	r7, [ip], #-1377	; 0x561
     234:	6f687300 	svcvs	0x00687300
     238:	69207472 	stmdbvs	r0!, {r1, r4, r5, r6, sl, ip, sp, lr}
     23c:	7500746e 	strvc	r7, [r0, #-1134]	; 0x46e
     240:	33746e69 	cmncc	r4, #1680	; 0x690
     244:	00745f32 	rsbseq	r5, r4, r2, lsr pc
     248:	5f697072 	svcpl	0x00697072
     24c:	65736572 	ldrbvs	r6, [r3, #-1394]!	; 0x572
     250:	75705f74 	ldrbvc	r5, [r0, #-3956]!	; 0xf74
     254:	5a006374 	bpl	1902c <__bss_end__+0xc664>
     258:	6172625f 	cmnvs	r2, pc, asr r2
     25c:	5f68636e 	svcpl	0x0068636e
     260:	64657270 	strbtvs	r7, [r5], #-624	; 0x270
     264:	69736100 	ldmdbvs	r3!, {r8, sp, lr}^
     268:	756f0064 	strbvc	r0, [pc, #-100]!	; 20c <__code_start__-0x7df4>
     26c:	6d6d5f72 	stclvs	15, cr5, [sp, #-456]!	; 0xfffffe38
     270:	65725f75 	ldrbvs	r5, [r2, #-3957]!	; 0xf75
     274:	00746573 	rsbseq	r6, r4, r3, ror r5
     278:	5f756d6d 	svcpl	0x00756d6d
     27c:	6b72616d 	blvs	1c98838 <__bss_end__+0x1c8be70>
     280:	6365735f 	cmnvs	r5, #2080374785	; 0x7c000001
     284:	6165725f 	cmnvs	r5, pc, asr r2
     288:	6c6e6f64 	stclvs	15, cr6, [lr], #-400	; 0xfffffe70
     28c:	69730079 	ldmdbvs	r3!, {r0, r3, r4, r5, r6}^
     290:	745f657a 	ldrbvc	r6, [pc], #-1402	; 298 <__code_start__-0x7d68>
     294:	756d6d00 	strbvc	r6, [sp, #-3328]!	; 0xd00
     298:	6365735f 	cmnvs	r5, #2080374785	; 0x7c000001
     29c:	7469625f 	strbtvc	r6, [r9], #-607	; 0x25f
     2a0:	6e6f5f73 	mcrvs	15, 3, r5, cr15, cr3, {3}
     2a4:	5600796c 	strpl	r7, [r0], -ip, ror #18
     2a8:	6769685f 			; <UNDEFINED> instruction: 0x6769685f
     2ac:	78655f68 	stmdavc	r5!, {r3, r5, r6, r8, r9, sl, fp, ip, lr}^
     2b0:	74706563 	ldrbtvc	r6, [r0], #-1379	; 0x563
     2b4:	4200765f 	andmi	r7, r0, #99614720	; 0x5f00000
     2b8:	646e655f 	strbtvs	r6, [lr], #-1375	; 0x55f
     2bc:	006e6169 	rsbeq	r6, lr, r9, ror #2
     2c0:	2e756d6d 	cdpcs	13, 7, cr6, cr5, cr13, {3}
     2c4:	736e0063 	cmnvc	lr, #99	; 0x63
     2c8:	49006365 	stmdbmi	r0, {r0, r2, r5, r6, r8, r9, sp, lr}
     2cc:	6163695f 	cmnvs	r3, pc, asr r9
     2d0:	5f656863 	svcpl	0x00656863
     2d4:	62616e65 	rsbvs	r6, r1, #1616	; 0x650
     2d8:	4100656c 	tstmi	r0, ip, ror #10
     2dc:	696c615f 	stmdbvs	ip!, {r0, r1, r2, r3, r4, r6, r8, sp, lr}^
     2e0:	656d6e67 	strbvs	r6, [sp, #-3687]!	; 0xe67
     2e4:	6f00746e 	svcvs	0x0000746e
     2e8:	635f7275 	cmpvs	pc, #1342177287	; 0x50000007
     2ec:	5f353170 	svcpl	0x00353170
     2f0:	5f746573 	svcpl	0x00746573
     2f4:	636f7270 	cmnvs	pc, #112, 4
     2f8:	745f6469 	ldrbvc	r6, [pc], #-1129	; 300 <__code_start__-0x7d00>
     2fc:	30726274 	rsbscc	r6, r2, r4, ror r2
     300:	5f504100 	svcpl	0x00504100
     304:	6f5f6472 	svcvs	0x005f6472
     308:	00796c6e 	rsbseq	r6, r9, lr, ror #24
     30c:	6c616d6b 	stclvs	13, cr6, [r1], #-428	; 0xfffffe54
     310:	5f636f6c 	svcpl	0x00636f6c
     314:	67696c61 	strbvs	r6, [r9, -r1, ror #24]!
     318:	0064656e 	rsbeq	r6, r4, lr, ror #10
     31c:	5f636573 	svcpl	0x00636573
     320:	65736162 	ldrbvs	r6, [r3, #-354]!	; 0x162
     324:	6464615f 	strbtvs	r6, [r4], #-351	; 0x15f
     328:	6d6d0072 	stclvs	0, cr0, [sp, #-456]!	; 0xfffffe38
     32c:	6e655f75 	mcrvs	15, 3, r5, cr5, cr5, {3}
     330:	656c6261 	strbvs	r6, [ip, #-609]!	; 0x261
     334:	7465735f 	strbtvc	r7, [r5], #-863	; 0x35f
     338:	69727700 	ldmdbvs	r2!, {r8, r9, sl, ip, sp, lr}^
     33c:	645f6574 	ldrbvs	r6, [pc], #-1396	; 344 <__code_start__-0x7cbc>
     340:	69616d6f 	stmdbvs	r1!, {r0, r1, r2, r3, r5, r6, r8, sl, fp, sp, lr}^
     344:	63615f6e 	cmnvs	r1, #440	; 0x1b8
     348:	73736563 	cmnvc	r3, #415236096	; 0x18c00000
     34c:	7274635f 	rsbsvc	r6, r4, #2080374785	; 0x7c000001
     350:	6d6d006c 	stclvs	0, cr0, [sp, #-432]!	; 0xfffffe50
     354:	69645f75 	stmdbvs	r4!, {r0, r2, r4, r5, r6, r8, r9, sl, fp, ip, lr}^
     358:	6c626173 	stfvse	f6, [r2], #-460	; 0xfffffe34
     35c:	65735f65 	ldrbvs	r5, [r3, #-3941]!	; 0xf65
     360:	756f0074 	strbvc	r0, [pc, #-116]!	; 2f4 <__code_start__-0x7d0c>
     364:	70635f72 	rsbvc	r5, r3, r2, ror pc
     368:	645f3531 	ldrbvs	r3, [pc], #-1329	; 370 <__code_start__-0x7c90>
     36c:	69616d6f 	stmdbvs	r1!, {r0, r1, r2, r3, r5, r6, r8, sl, fp, sp, lr}^
     370:	74635f6e 	strbtvc	r5, [r3], #-3950	; 0xf6e
     374:	775f6c72 			; <UNDEFINED> instruction: 0x775f6c72
     378:	6c660072 	stclvs	0, cr0, [r6], #-456	; 0xfffffe38
     37c:	00745f64 	rsbseq	r5, r4, r4, ror #30
     380:	5f72756f 	svcpl	0x0072756f
     384:	5f756d6d 	svcpl	0x00756d6d
     388:	61736964 	cmnvs	r3, r4, ror #18
     38c:	5f656c62 	svcpl	0x00656c62
     390:	5f746573 	svcpl	0x00746573
     394:	006d7361 	rsbeq	r7, sp, r1, ror #6
     398:	68736168 	ldmdavs	r3!, {r3, r5, r6, r8, sp, lr}^
     39c:	6972705f 	ldmdbvs	r2!, {r0, r1, r2, r3, r4, r6, ip, sp, lr}^
     3a0:	5200746e 	andpl	r7, r0, #1845493760	; 0x6e000000
     3a4:	61635f52 	cmnvs	r3, r2, asr pc
     3a8:	5f656863 	svcpl	0x00656863
     3ac:	00706572 	rsbseq	r6, r0, r2, ror r5
     3b0:	65707573 	ldrbvs	r7, [r0, #-1395]!	; 0x573
     3b4:	70630072 	rsbvc	r0, r3, r2, ror r0
     3b8:	635f3531 	cmpvs	pc, #205520896	; 0xc400000
     3bc:	5f6c7274 	svcpl	0x006c7274
     3c0:	31676572 	smccc	30290	; 0x7652
     3c4:	0072775f 	rsbseq	r7, r2, pc, asr r7
     3c8:	5f756d6d 	svcpl	0x00756d6d
     3cc:	6b72616d 	blvs	1c98988 <__bss_end__+0x1c8bfc0>
     3d0:	6365735f 	cmnvs	r5, #2080374785	; 0x7c000001
     3d4:	0077725f 	rsbseq	r7, r7, pc, asr r2
     3d8:	5f646c66 	svcpl	0x00646c66
     3dc:	6d006b6d 	vstrvs	d6, [r0, #-436]	; 0xfffffe4c
     3e0:	705f756d 	subsvc	r7, pc, sp, ror #10
     3e4:	6c615f74 	stclvs	15, cr5, [r1], #-464	; 0xfffffe30
     3e8:	00636f6c 	rsbeq	r6, r3, ip, ror #30
     3ec:	7365725f 	cmnvc	r5, #-268435451	; 0xf0000005
     3f0:	65767265 	ldrbvs	r7, [r6, #-613]!	; 0x265
     3f4:	5f003064 	svcpl	0x00003064
     3f8:	65736572 	ldrbvs	r6, [r3, #-1394]!	; 0x572
     3fc:	64657672 	strbtvs	r7, [r5], #-1650	; 0x672
     400:	50410031 	subpl	r0, r1, r1, lsr r0
     404:	0077725f 	rsbseq	r7, r7, pc, asr r2
     408:	73726966 	cmnvc	r2, #1671168	; 0x198000
     40c:	656c5f74 	strbvs	r5, [ip, #-3956]!	; 0xf74
     410:	5f6c6576 	svcpl	0x006c6576
     414:	63736564 	cmnvs	r3, #100, 10	; 0x19000000
     418:	74706972 	ldrbtvc	r6, [r0], #-2418	; 0x972
     41c:	6d00726f 	sfmvs	f7, 4, [r0, #-444]	; 0xfffffe44
     420:	6d5f756d 	cfldr64vs	mvdx7, [pc, #-436]	; 274 <__code_start__-0x7d8c>
     424:	735f7061 	cmpvc	pc, #97	; 0x61
     428:	69746365 	ldmdbvs	r4!, {r0, r2, r5, r6, r8, r9, sp, lr}^
     42c:	6d006e6f 	stcvs	14, cr6, [r0, #-444]	; 0xfffffe44
     430:	645f756d 	ldrbvs	r7, [pc], #-1389	; 438 <__code_start__-0x7bc8>
     434:	62617369 	rsbvs	r7, r1, #-1543503871	; 0xa4000001
     438:	6300656c 	movwvs	r6, #1388	; 0x56c
     43c:	5f353170 	svcpl	0x00353170
     440:	6c727463 	cfldrdvs	mvd7, [r2], #-396	; 0xfffffe74
     444:	6765725f 			; <UNDEFINED> instruction: 0x6765725f
     448:	64725f31 	ldrbtvs	r5, [r2], #-3889	; 0xf31
     44c:	5f455600 	svcpl	0x00455600
     450:	74636576 	strbtvc	r6, [r3], #-1398	; 0x576
     454:	746e695f 	strbtvc	r6, [lr], #-2399	; 0x95f
     458:	725f5200 	subsvc	r5, pc, #0, 4
     45c:	705f6d6f 	subsvc	r6, pc, pc, ror #26
     460:	00746f72 	rsbseq	r6, r4, r2, ror pc
     464:	7479626e 	ldrbtvc	r6, [r9], #-622	; 0x26e
     468:	46007365 	strmi	r7, [r0], -r5, ror #6
     46c:	6f665f41 	svcvs	0x00665f41
     470:	5f656372 	svcpl	0x00656372
     474:	6f007061 	svcvs	0x00007061
     478:	6d5f7275 	lfmvs	f7, 2, [pc, #-468]	; 2ac <__code_start__-0x7d54>
     47c:	735f756d 	cmpvc	pc, #457179136	; 0x1b400000
     480:	5f636e79 	svcpl	0x00636e79
     484:	5f657470 	svcpl	0x00657470
     488:	73646f6d 	cmnvc	r4, #436	; 0x1b4
     48c:	775f5700 	ldrbvc	r5, [pc, -r0, lsl #14]
     490:	65746972 	ldrbvs	r6, [r4, #-2418]!	; 0x972
     494:	6675625f 			; <UNDEFINED> instruction: 0x6675625f
     498:	705f5300 	subsvc	r5, pc, r0, lsl #6
     49c:	00746f72 	rsbseq	r6, r4, r2, ror pc
     4a0:	5f756d6d 	svcpl	0x00756d6d
     4a4:	6b72616d 	blvs	1c98a60 <__bss_end__+0x1c8c098>
     4a8:	6365735f 	cmnvs	r5, #2080374785	; 0x7c000001
     4ac:	5f70615f 	svcpl	0x0070615f
     4b0:	6d726570 	cfldr64vs	mvdx6, [r2, #-448]!	; 0xfffffe40
     4b4:	756d6d00 	strbvc	r6, [sp, #-3328]!	; 0xd00
     4b8:	696e695f 	stmdbvs	lr!, {r0, r1, r2, r3, r4, r6, r8, fp, sp, lr}^
     4bc:	6d6d0074 	stclvs	0, cr0, [sp, #-464]!	; 0xfffffe30
     4c0:	74705f75 	ldrbtvc	r5, [r0], #-3957	; 0xf75
     4c4:	6c6c615f 	stfvse	f6, [ip], #-380	; 0xfffffe84
     4c8:	615f636f 	cmpvs	pc, pc, ror #6
     4cc:	4d4d0074 	stclmi	0, cr0, [sp, #-464]	; 0xfffffe30
     4d0:	6e655f55 	mcrvs	15, 3, r5, cr5, cr5, {2}
     4d4:	656c6261 	strbvs	r6, [ip, #-609]!	; 0x261
     4d8:	5f550064 	svcpl	0x00550064
     4dc:	6c616e75 	stclvs	14, cr6, [r1], #-468	; 0xfffffe2c
     4e0:	656e6769 	strbvs	r6, [lr, #-1897]!	; 0x769
     4e4:	50580064 	subspl	r0, r8, r4, rrx
     4e8:	0074705f 	rsbseq	r7, r4, pc, asr r0
     4ec:	745f5254 	ldrbvc	r5, [pc], #-596	; 4f4 <__code_start__-0x7b0c>
     4f0:	725f7865 	subsvc	r7, pc, #6619136	; 0x650000
     4f4:	70616d65 	rsbvc	r6, r1, r5, ror #26
     4f8:	646e6900 	strbtvs	r6, [lr], #-2304	; 0x900
     4fc:	63007865 	movwvs	r7, #2149	; 0x865
     500:	72746e6f 	rsbsvc	r6, r4, #1776	; 0x6f0
     504:	725f6c6f 	subsvc	r6, pc, #28416	; 0x6f00
     508:	00316765 	eorseq	r6, r1, r5, ror #14
     50c:	5f6d7361 	svcpl	0x006d7361
     510:	5f746f6e 	svcpl	0x00746f6e
     514:	6c706d69 	ldclvs	13, cr6, [r0], #-420	; 0xfffffe5c
     518:	6e656d65 	cdpvs	13, 6, cr6, cr5, cr5, {3}
     51c:	00646574 	rsbeq	r6, r4, r4, ror r5
     520:	5f756d6d 	svcpl	0x00756d6d
     524:	62616e65 	rsbvs	r6, r1, #1616	; 0x650
     528:	6300656c 	movwvs	r6, #1388	; 0x56c
     52c:	5f353170 	svcpl	0x00353170
     530:	6c727463 	cfldrdvs	mvd7, [r2], #-396	; 0xfffffe74
     534:	6765725f 			; <UNDEFINED> instruction: 0x6765725f
     538:	00745f31 	rsbseq	r5, r4, r1, lsr pc
     53c:	756e755f 	strbvc	r7, [lr, #-1375]!	; 0x55f
     540:	31646573 	smccc	18003	; 0x4653
     544:	6d656d00 	stclvs	13, cr6, [r5, #-0]
     548:	00746573 	rsbseq	r6, r4, r3, ror r5
     54c:	5f646c66 	svcpl	0x00646c66
     550:	6e697270 	mcrvs	2, 3, r7, cr9, cr0, {3}
     554:	65720074 	ldrbvs	r0, [r2, #-116]!	; 0x74
     558:	645f6461 	ldrbvs	r6, [pc], #-1121	; 560 <__code_start__-0x7aa0>
     55c:	69616d6f 	stmdbvs	r1!, {r0, r1, r2, r3, r5, r6, r8, sl, fp, sp, lr}^
     560:	63615f6e 	cmnvs	r1, #440	; 0x1b8
     564:	73736563 	cmnvc	r3, #415236096	; 0x18c00000
     568:	7274635f 	rsbsvc	r6, r4, #2080374785	; 0x7c000001
     56c:	6c66006c 	stclvs	0, cr0, [r6], #-432	; 0xfffffe50
     570:	65735f64 	ldrbvs	r5, [r3, #-3940]!	; 0xf64
     574:	61625f74 	smcvs	9716	; 0x25f4
     578:	615f6573 	cmpvs	pc, r3, ror r5	; <UNPREDICTABLE>
     57c:	00726464 	rsbseq	r6, r2, r4, ror #8
     580:	5f756d6d 	svcpl	0x00756d6d
     584:	74736e69 	ldrbtvc	r6, [r3], #-3689	; 0xe69
     588:	5f6c6c61 	svcpl	0x006c6c61
     58c:	646e6168 	strbtvs	r6, [lr], #-360	; 0x168
     590:	7372656c 	cmnvc	r2, #108, 10	; 0x1b000000
     594:	5f504100 	svcpl	0x00504100
     598:	615f6f6e 	cmpvs	pc, lr, ror #30
     59c:	73656363 	cmnvc	r5, #-1946157055	; 0x8c000001
     5a0:	6f640073 	svcvs	0x00640073
     5a4:	6e69616d 	powvsez	f6, f1, #5.0
     5a8:	62735f00 	rsbsvs	r5, r3, #0, 30
     5ac:	5f00307a 	svcpl	0x0000307a
     5b0:	317a6273 	cmncc	sl, r3, ror r2
     5b4:	756d6d00 	strbvc	r6, [sp, #-3328]!	; 0xd00
     5b8:	70616d5f 	rsbvc	r6, r1, pc, asr sp
     5bc:	6365735f 	cmnvs	r5, #2080374785	; 0x7c000001
     5c0:	6e6f6974 	mcrvs	9, 3, r6, cr15, cr4, {3}
     5c4:	324c0073 	subcc	r0, ip, #115	; 0x73
     5c8:	616e655f 	cmnvs	lr, pc, asr r5
     5cc:	64656c62 	strbtvs	r6, [r5], #-3170	; 0xc62
     5d0:	755f4300 	ldrbvc	r4, [pc, #-768]	; 2d8 <__code_start__-0x7d28>
     5d4:	6966696e 	stmdbvs	r6!, {r1, r2, r3, r5, r6, r8, fp, sp, lr}^
     5d8:	655f6465 	ldrbvs	r6, [pc, #-1125]	; 17b <__code_start__-0x7e85>
     5dc:	6c62616e 	stfvse	f6, [r2], #-440	; 0xfffffe48
     5e0:	756f0065 	strbvc	r0, [pc, #-101]!	; 583 <__code_start__-0x7a7d>
     5e4:	6d6d5f72 	stclvs	15, cr5, [sp, #-456]!	; 0xfffffe38
     5e8:	6e655f75 	mcrvs	15, 3, r5, cr5, cr5, {3}
     5ec:	656c6261 	strbvs	r6, [ip, #-609]!	; 0x261
     5f0:	7465735f 	strbtvc	r7, [r5], #-863	; 0x35f
     5f4:	6d73615f 	ldfvse	f6, [r3, #-380]!	; 0xfffffe84
     5f8:	756d6d00 	strbvc	r6, [sp, #-3328]!	; 0xd00
     5fc:	6f6f6c5f 	svcvs	0x006f6c5f
     600:	5f70756b 	svcpl	0x0070756b
     604:	74636573 	strbtvc	r6, [r3], #-1395	; 0x573
     608:	006e6f69 	rsbeq	r6, lr, r9, ror #30
     60c:	4d656e4f 	stclmi	14, cr6, [r5, #-316]!	; 0xfffffec4
     610:	6d6d0042 	stclvs	0, cr0, [sp, #-264]!	; 0xfffffef8
     614:	616d5f75 	smcvs	54773	; 0xd5f5
     618:	735f6b72 	cmpvc	pc, #116736	; 0x1c800
     61c:	6e5f6365 	cdpvs	3, 5, cr6, cr15, cr5, {3}
     620:	63615f6f 	cmnvs	r1, #444	; 0x1bc
     624:	73736563 	cmnvc	r3, #415236096	; 0x18c00000
     628:	746e6900 	strbtvc	r6, [lr], #-2304	; 0x900
     62c:	696e695f 	stmdbvs	lr!, {r0, r1, r2, r3, r4, r6, r8, fp, sp, lr}^
     630:	6d6d0074 	stclvs	0, cr0, [sp, #-464]!	; 0xfffffe30
     634:	65682d75 	strbvs	r2, [r8, #-3445]!	; 0xd75
     638:	7265706c 	rsbvc	r7, r5, #108	; 0x6c
     63c:	00632e73 	rsbeq	r2, r3, r3, ror lr
     640:	5f646c66 	svcpl	0x00646c66
     644:	63656863 	cmnvs	r5, #6488064	; 0x630000
     648:	666f5f6b 	strbtvs	r5, [pc], -fp, ror #30
     64c:	74657366 	strbtvc	r7, [r5], #-870	; 0x366
     650:	61660073 	smcvs	24579	; 0x6003
     654:	685f7473 	ldmdavs	pc, {r0, r1, r4, r5, r6, sl, ip, sp, lr}^	; <UNPREDICTABLE>
     658:	00687361 	rsbeq	r7, r8, r1, ror #6
     65c:	746e6f63 	strbtvc	r6, [lr], #-3939	; 0xf63
     660:	5f6c6f72 	svcpl	0x006c6f72
     664:	31676572 	smccc	30290	; 0x7652
     668:	6e61735f 	mcrvs	3, 3, r7, cr1, cr15, {2}
     66c:	5f797469 	svcpl	0x00797469
     670:	63656863 	cmnvs	r5, #6488064	; 0x630000
     674:	6c66006b 	stclvs	0, cr0, [r6], #-428	; 0xfffffe54
     678:	68635f64 	stmdavs	r3!, {r2, r5, r6, r8, r9, sl, fp, ip, lr}^
     67c:	5f6b6365 	svcpl	0x006b6365
     680:	696c6176 	stmdbvs	ip!, {r1, r2, r4, r5, r6, r8, sp, lr}^
     684:	68730064 	ldmdavs	r3!, {r2, r5, r6}^
     688:	00746669 	rsbseq	r6, r4, r9, ror #12
     68c:	5f626c74 	svcpl	0x00626c74
     690:	666e6f63 	strbtvs	r6, [lr], -r3, ror #30
     694:	73006769 	movwvc	r6, #1897	; 0x769
     698:	615f7465 	cmpvs	pc, r5, ror #8
     69c:	63006c6c 	movwvs	r6, #3180	; 0xc6c
     6a0:	6b636568 	blvs	18d9c48 <__bss_end__+0x18cd280>
     6a4:	5f6d765f 	svcpl	0x006d765f
     6a8:	75727473 	ldrbvc	r7, [r2, #-1139]!	; 0x473
     6ac:	00737463 	rsbseq	r7, r3, r3, ror #8
     6b0:	746e6f63 	strbtvc	r6, [lr], #-3939	; 0xf63
     6b4:	5f6c6f72 	svcpl	0x006c6f72
     6b8:	31676572 	smccc	30290	; 0x7652
     6bc:	6972705f 	ldmdbvs	r2!, {r0, r1, r2, r3, r4, r6, ip, sp, lr}^
     6c0:	7400746e 	strvc	r7, [r0], #-1134	; 0x46e
     6c4:	635f626c 	cmpvs	pc, #108, 4	; 0xc0000006
     6c8:	69666e6f 	stmdbvs	r6!, {r0, r1, r2, r3, r5, r6, r9, sl, fp, sp, lr}^
     6cc:	68635f67 	stmdavs	r3!, {r0, r1, r2, r5, r6, r8, r9, sl, fp, ip, lr}^
     6d0:	5f6b6365 	svcpl	0x006b6365
     6d4:	7366666f 	cmnvc	r6, #116391936	; 0x6f00000
     6d8:	00737465 	rsbseq	r7, r3, r5, ror #8
     6dc:	616d6f64 	cmnvs	sp, r4, ror #30
     6e0:	615f6e69 	cmpvs	pc, r9, ror #28
     6e4:	705f6c63 	subsvc	r6, pc, r3, ror #24
     6e8:	746e6972 	strbtvc	r6, [lr], #-2418	; 0x972
     6ec:	6e6f6300 	cdpvs	3, 6, cr6, cr15, cr0, {0}
     6f0:	6c6f7274 	sfmvs	f7, 2, [pc], #-464	; 528 <__code_start__-0x7ad8>
     6f4:	6765725f 			; <UNDEFINED> instruction: 0x6765725f
     6f8:	68635f31 	stmdavs	r3!, {r0, r4, r5, r8, r9, sl, fp, ip, lr}^
     6fc:	5f6b6365 	svcpl	0x006b6365
     700:	7366666f 	cmnvc	r6, #116391936	; 0x6f00000
     704:	00737465 	rsbseq	r7, r3, r5, ror #8
     708:	5f626c74 	svcpl	0x00626c74
     70c:	666e6f63 	strbtvs	r6, [lr], -r3, ror #30
     710:	705f6769 	subsvc	r6, pc, r9, ror #14
     714:	746e6972 	strbtvc	r6, [lr], #-2418	; 0x972
     718:	696e7500 	stmdbvs	lr!, {r8, sl, ip, sp, lr}^
     71c:	64656966 	strbtvs	r6, [r5], #-2406	; 0x966
     720:	6e00705f 	mcrvs	0, 0, r7, cr0, cr15, {2}
     724:	6c5f695f 	mrrcvs	9, 5, r6, pc, cr15	; <UNPREDICTABLE>
     728:	006b636f 	rsbeq	r6, fp, pc, ror #6
     72c:	5f645f6e 	svcpl	0x00645f6e
     730:	6b636f6c 	blvs	18dc4e8 <__bss_end__+0x18cfb20>
     734:	4d4f4400 	cfstrdmi	mvd4, [pc, #-0]	; 73c <__code_start__-0x78c4>
     738:	5f4e4941 	svcpl	0x004e4941
     73c:	45474150 	strbmi	r4, [r7, #-336]	; 0x150
     740:	41434900 	cmpmi	r3, r0, lsl #18
     744:	5f454843 	svcpl	0x00454843
     748:	4e49414d 	dvfmiem	f4, f1, #5.0
     74c:	504f5f54 	subpl	r5, pc, r4, asr pc	; <UNPREDICTABLE>
     750:	0054465f 	subseq	r4, r4, pc, asr r6
     754:	49524150 	ldmdbmi	r2, {r4, r6, r8, lr}^
     758:	455f5954 	ldrbmi	r5, [pc, #-2388]	; fffffe0c <__bss_end__+0xffff3444>
     75c:	455f5252 	ldrbmi	r5, [pc, #-594]	; 512 <__code_start__-0x7aee>
     760:	00504358 	subseq	r4, r0, r8, asr r3
     764:	61746164 	cmnvs	r4, r4, ror #2
     768:	6f62615f 	svcvs	0x0062615f
     76c:	765f7472 			; <UNDEFINED> instruction: 0x765f7472
     770:	6f746365 	svcvs	0x00746365
     774:	4d490072 	stclmi	0, cr0, [r9, #-456]	; 0xfffffe38
     778:	43455250 	movtmi	r5, #21072	; 0x5250
     77c:	5458455f 	ldrbpl	r4, [r8], #-1375	; 0x55f
     780:	5442415f 	strbpl	r4, [r2], #-351	; 0x15f
     784:	424c5400 	submi	r5, ip, #0, 8
     788:	434f4c5f 	movtmi	r4, #64607	; 0xfc5f
     78c:	656d004b 	strbvs	r0, [sp, #-75]!	; 0x4b
     790:	6568636d 	strbvs	r6, [r8, #-877]!	; 0x36d
     794:	632e6b63 	teqvs	lr, #101376	; 0x18c00
     798:	4d4f4400 	cfstrdmi	mvd4, [pc, #-0]	; 7a0 <__code_start__-0x7860>
     79c:	6e616d5f 	mcrvs	13, 3, r6, cr1, cr15, {2}
     7a0:	72656761 	rsbvc	r6, r5, #25427968	; 0x1840000
     7a4:	4d4f4400 	cfstrdmi	mvd4, [pc, #-0]	; 7ac <__code_start__-0x7854>
     7a8:	5f4e4941 	svcpl	0x004e4941
     7ac:	54434553 	strbpl	r4, [r3], #-1363	; 0x553
     7b0:	004e4f49 	subeq	r4, lr, r9, asr #30
     7b4:	63617274 	cmnvs	r1, #116, 4	; 0x40000007
     7b8:	64695f6b 	strbtvs	r5, [r9], #-3947	; 0xf6b
     7bc:	494c4100 	stmdbmi	ip, {r8, lr}^
     7c0:	454d4e47 	strbmi	r4, [sp, #-3655]	; 0xe47
     7c4:	4400544e 	strmi	r5, [r0], #-1102	; 0x44e
     7c8:	47554245 	ldrbmi	r4, [r5, -r5, asr #4]
     7cc:	4556455f 	ldrbmi	r4, [r6, #-1375]	; 0x55f
     7d0:	6400544e 	strvs	r5, [r0], #-1102	; 0x44e
     7d4:	695f6d6f 	ldmdbvs	pc, {r0, r1, r2, r3, r5, r6, r8, sl, fp, sp, lr}^	; <UNPREDICTABLE>
     7d8:	656d0064 	strbvs	r0, [sp, #-100]!	; 0x64
     7dc:	6568636d 	strbvs	r6, [r8, #-877]!	; 0x36d
     7e0:	6f5f6b63 	svcvs	0x005f6b63
     7e4:	6d006666 	stcvs	6, cr6, [r0, #-408]	; 0xfffffe68
     7e8:	725f756d 	subsvc	r7, pc, #457179136	; 0x1b400000
     7ec:	6d757365 	ldclvs	3, cr7, [r5, #-404]!	; 0xfffffe6c
     7f0:	00705f65 	rsbseq	r5, r0, r5, ror #30
     7f4:	7473616c 	ldrbtvc	r6, [r3], #-364	; 0x16c
     7f8:	7561665f 	strbvc	r6, [r1, #-1631]!	; 0x65f
     7fc:	5400746c 	strpl	r7, [r0], #-1132	; 0x46c
     800:	534e4152 	movtpl	r4, #57682	; 0xe152
     804:	4954414c 	ldmdbmi	r4, {r2, r3, r6, r8, lr}^
     808:	535f4e4f 	cmppl	pc, #1264	; 0x4f0
     80c:	49544345 	ldmdbmi	r4, {r0, r2, r6, r8, r9, lr}^
     810:	44004e4f 	strmi	r4, [r0], #-3663	; 0xe4f
     814:	635f4d4f 	cmpvs	pc, #5056	; 0x13c0
     818:	6e65696c 	cdpvs	9, 6, cr6, cr5, cr12, {3}
     81c:	656d0074 	strbvs	r0, [sp, #-116]!	; 0x74
     820:	6568636d 	strbvs	r6, [r8, #-877]!	; 0x36d
     824:	745f6b63 	ldrbvc	r6, [pc], #-2915	; 82c <__code_start__-0x77d4>
     828:	5f706172 	svcpl	0x00706172
     82c:	61736964 	cmnvs	r3, r4, ror #18
     830:	00656c62 	rsbeq	r6, r5, r2, ror #24
     834:	72736664 	rsbsvc	r6, r3, #100, 12	; 0x6400000
     838:	4d4f4400 	cfstrdmi	mvd4, [pc, #-0]	; 840 <__code_start__-0x77c0>
     83c:	7365725f 	cmnvc	r5, #-268435451	; 0xf0000005
     840:	65767265 	ldrbvs	r7, [r6, #-613]!	; 0x265
     844:	58450064 	stmdapl	r5, {r2, r5, r6}^
     848:	42415f54 	submi	r5, r1, #84, 30	; 0x150
     84c:	52545f54 	subspl	r5, r4, #84, 30	; 0x150
     850:	4c534e41 	mrrcmi	14, 4, r4, r3, cr1
     854:	4f495441 	svcmi	0x00495441
     858:	564c5f4e 	strbpl	r5, [ip], -lr, asr #30
     85c:	00325f4c 	eorseq	r5, r2, ip, asr #30
     860:	6c756166 	ldfvse	f6, [r5], #-408	; 0xfffffe68
     864:	65725f74 	ldrbvs	r5, [r2, #-3956]!	; 0xf74
     868:	6e6f7361 	cdpvs	3, 6, cr7, cr15, cr1, {3}
     86c:	6d656d00 	stclvs	13, cr6, [r5, #-0]
     870:	63656863 	cmnvs	r5, #6488064	; 0x630000
     874:	6f6e5f6b 	svcvs	0x006e5f6b
     878:	6363615f 	cmnvs	r3, #-1073741801	; 0xc0000017
     87c:	00737365 	rsbseq	r7, r3, r5, ror #6
     880:	5f726166 	svcpl	0x00726166
     884:	00746567 	rsbseq	r6, r4, r7, ror #10
     888:	5f545845 	svcpl	0x00545845
     88c:	5f544241 	svcpl	0x00544241
     890:	43455250 	movtmi	r5, #21072	; 0x5250
     894:	5045445f 	subpl	r4, r5, pc, asr r4
     898:	4f440052 	svcmi	0x00440052
     89c:	6f6e5f4d 	svcvs	0x006e5f4d
     8a0:	6363615f 	cmnvs	r3, #-1073741801	; 0xc0000017
     8a4:	00737365 	rsbseq	r7, r3, r5, ror #6
     8a8:	4d524550 	cfldr64mi	mvdx4, [r2, #-320]	; 0xfffffec0
     8ac:	49535349 	ldmdbmi	r3, {r0, r3, r6, r8, r9, ip, lr}^
     8b0:	505f4e4f 	subspl	r4, pc, pc, asr #28
     8b4:	00454741 	subeq	r4, r5, r1, asr #14
     8b8:	6c756166 	ldfvse	f6, [r5], #-408	; 0xfffffe68
     8bc:	64615f74 	strbtvs	r5, [r1], #-3956	; 0xf74
     8c0:	41007264 	tstmi	r0, r4, ror #4
     8c4:	4e47494c 	cdpmi	9, 4, cr4, cr7, cr12, {2}
     8c8:	544e454d 	strbpl	r4, [lr], #-1357	; 0x54d
     8cc:	5045445f 	subpl	r4, r5, pc, asr r4
     8d0:	58450052 	stmdapl	r5, {r1, r4, r6}^
     8d4:	42415f54 	submi	r5, r1, #84, 30	; 0x150
     8d8:	52545f54 	subspl	r5, r4, #84, 30	; 0x150
     8dc:	4c534e41 	mrrcmi	14, 4, r4, r3, cr1
     8e0:	4f495441 	svcmi	0x00495441
     8e4:	564c5f4e 	strbpl	r5, [ip], -lr, asr #30
     8e8:	00315f4c 	eorseq	r5, r1, ip, asr #30
     8ec:	7473616c 	ldrbtvc	r6, [r3], #-364	; 0x16c
     8f0:	7561665f 	strbvc	r6, [r1, #-1631]!	; 0x65f
     8f4:	735f746c 	cmpvc	pc, #108, 8	; 0x6c000000
     8f8:	66007465 	strvs	r7, [r0], -r5, ror #8
     8fc:	746c7561 	strbtvc	r7, [ip], #-1377	; 0x561
     900:	0063705f 	rsbeq	r7, r3, pc, asr r0
     904:	5f6b7262 	svcpl	0x006b7262
     908:	62726576 	rsbsvs	r6, r2, #494927872	; 0x1d800000
     90c:	5f65736f 	svcpl	0x0065736f
     910:	69620070 	stmdbvs	r2!, {r4, r5, r6}^
     914:	675f7374 			; <UNDEFINED> instruction: 0x675f7374
     918:	43007465 	movwmi	r7, #1125	; 0x465
     91c:	4f52504f 	svcmi	0x0052504f
     920:	41445f43 	cmpmi	r4, r3, asr #30
     924:	415f4154 	cmpmi	pc, r4, asr r1	; <UNPREDICTABLE>
     928:	64005442 	strvs	r5, [r0], #-1090	; 0x442
     92c:	705f6d6f 	subsvc	r6, pc, pc, ror #26
     930:	5f6d7265 	svcpl	0x006d7265
     934:	00746573 	rsbseq	r6, r4, r3, ror r5
     938:	7473616c 	ldrbtvc	r6, [r3], #-364	; 0x16c
     93c:	7561665f 	strbvc	r6, [r1, #-1631]!	; 0x65f
     940:	675f746c 	ldrbvs	r7, [pc, -ip, ror #8]
     944:	54007465 	strpl	r7, [r0], #-1125	; 0x465
     948:	534e4152 	movtpl	r4, #57682	; 0xe152
     94c:	4954414c 	ldmdbmi	r4, {r2, r3, r6, r8, lr}^
     950:	505f4e4f 	subspl	r4, pc, pc, asr #28
     954:	00454741 	subeq	r4, r5, r1, asr #14
     958:	72736664 	rsbsvc	r6, r3, #100, 12	; 0x6400000
     95c:	7465675f 	strbtvc	r6, [r5], #-1887	; 0x75f
     960:	45525000 	ldrbmi	r5, [r2, #-0]
     964:	45534943 	ldrbmi	r4, [r3, #-2371]	; 0x943
     968:	5458455f 	ldrbpl	r4, [r8], #-1375	; 0x55f
     96c:	5442415f 	strbpl	r4, [r2], #-351	; 0x15f
     970:	73616c00 	cmnvc	r1, #0, 24
     974:	61665f74 	smcvs	26100	; 0x65f4
     978:	5f746c75 	svcpl	0x00746c75
     97c:	4d500074 	ldclmi	0, cr0, [r0, #-464]	; 0xfffffe30
     980:	545f4153 	ldrbpl	r4, [pc], #-339	; 988 <__code_start__-0x7678>
     984:	4d5f424c 	lfmmi	f4, 2, [pc, #-304]	; 85c <__code_start__-0x77a4>
     988:	00535349 	subseq	r5, r3, r9, asr #6
     98c:	4d524550 	cfldr64mi	mvdx4, [r2, #-320]	; 0xfffffec0
     990:	49535349 	ldmdbmi	r3, {r0, r3, r6, r8, r9, ip, lr}^
     994:	535f4e4f 	cmppl	pc, #1264	; 0x4f0
     998:	49544345 	ldmdbmi	r4, {r0, r2, r6, r8, r9, lr}^
     99c:	64004e4f 	strvs	r4, [r0], #-3663	; 0xe4f
     9a0:	705f6d6f 	subsvc	r6, pc, pc, ror #26
     9a4:	5f6d7265 	svcpl	0x006d7265
     9a8:	00746567 	rsbseq	r6, r4, r7, ror #10
     9ac:	735f7470 	cmpvc	pc, #112, 8	; 0x70000000
     9b0:	656d0074 	strbvs	r0, [sp, #-116]!	; 0x74
     9b4:	6568636d 	strbvs	r6, [r8, #-877]!	; 0x36d
     9b8:	6d5f6b63 	vldrvs	d22, [pc, #-396]	; 834 <__code_start__-0x77cc>
     9bc:	6c007061 	stcvs	0, cr7, [r0], {97}	; 0x61
     9c0:	2f636269 	svccs	0x00636269
     9c4:	68736168 	ldmdavs	r3!, {r3, r5, r6, r8, sp, lr}^
     9c8:	4700632e 	strmi	r6, [r0, -lr, lsr #6]
     9cc:	4320554e 	teqmi	r0, #327155712	; 0x13800000
     9d0:	382e3420 	stmdacc	lr!, {r5, sl, ip, sp}
     9d4:	2d20332e 	stccs	3, cr3, [r0, #-184]!	; 0xffffff48
     9d8:	7570636d 	ldrbvc	r6, [r0, #-877]!	; 0x36d
     9dc:	6d72613d 	ldfvse	f6, [r2, #-244]!	; 0xffffff0c
     9e0:	36373131 			; <UNDEFINED> instruction: 0x36373131
     9e4:	2d667a6a 	vstmdbcs	r6!, {s15-s120}
     9e8:	6d2d2073 	stcvs	0, cr2, [sp, #-460]!	; 0xfffffe34
     9ec:	656e7574 	strbvs	r7, [lr, #-1396]!	; 0x574
     9f0:	6d72613d 	ldfvse	f6, [r2, #-244]!	; 0xffffff0c
     9f4:	36373131 			; <UNDEFINED> instruction: 0x36373131
     9f8:	2d667a6a 	vstmdbcs	r6!, {s15-s120}
     9fc:	672d2073 			; <UNDEFINED> instruction: 0x672d2073
     a00:	20626467 	rsbcs	r6, r2, r7, ror #8
     a04:	20674f2d 	rsbcs	r4, r7, sp, lsr #30
     a08:	6474732d 	ldrbtvs	r7, [r4], #-813	; 0x32d
     a0c:	756e673d 	strbvc	r6, [lr, #-1853]!	; 0x73d
     a10:	2d203939 	stccs	9, cr3, [r0, #-228]!	; 0xffffff1c
     a14:	65726666 	ldrbvs	r6, [r2, #-1638]!	; 0x666
     a18:	61747365 	cmnvs	r4, r5, ror #6
     a1c:	6e69646e 	cdpvs	4, 6, cr6, cr9, cr14, {3}
     a20:	69750067 	ldmdbvs	r5!, {r0, r1, r2, r5, r6}^
     a24:	5f38746e 	svcpl	0x0038746e
     a28:	552f0074 	strpl	r0, [pc, #-116]!	; 9bc <__code_start__-0x7644>
     a2c:	73726573 	cmnvc	r2, #482344960	; 0x1cc00000
     a30:	6972622f 	ldmdbvs	r2!, {r0, r1, r2, r3, r5, r9, sp, lr}^
     a34:	756a6e61 	strbvc	r6, [sl, #-3681]!	; 0xe61
     a38:	65442f6e 	strbvs	r2, [r4, #-3950]	; 0xf6e
     a3c:	6f746b73 	svcvs	0x00746b73
     a40:	63732f70 	cmnvs	r3, #112, 30	; 0x1c0
     a44:	6c6f6f68 	stclvs	15, cr6, [pc], #-416	; 8ac <__code_start__-0x7754>
     a48:	7270532f 	rsbsvc	r5, r0, #-1140850688	; 0xbc000000
     a4c:	31676e69 	cmncc	r7, r9, ror #28
     a50:	2f303239 	svccs	0x00303239
     a54:	34325343 	ldrtcc	r5, [r2], #-835	; 0x343
     a58:	2f584c30 	svccs	0x00584c30
     a5c:	34327363 	ldrtcc	r7, [r2], #-867	; 0x363
     a60:	2d786c30 	ldclcs	12, cr6, [r8, #-192]!	; 0xffffff40
     a64:	70733032 	rsbsvc	r3, r3, r2, lsr r0
     a68:	696c2f72 	stmdbvs	ip!, {r1, r4, r5, r6, r8, r9, sl, fp, sp}^
     a6c:	00697062 	rsbeq	r7, r9, r2, rrx
     a70:	6362696c 	cmnvs	r2, #108, 18	; 0x1b0000
     a74:	6d656d2f 	stclvs	13, cr6, [r5, #-188]!	; 0xffffff44
     a78:	2e746573 	mrccs	5, 3, r6, cr4, cr3, {3}
     a7c:	5f5f0063 	svcpl	0x005f0063
     a80:	63756e67 	cmnvs	r5, #1648	; 0x670
     a84:	5f61765f 	svcpl	0x0061765f
     a88:	7473696c 	ldrbtvc	r6, [r3], #-2412	; 0x96c
     a8c:	62696c00 	rsbvs	r6, r9, #0, 24
     a90:	72702f63 	rsbsvc	r2, r0, #396	; 0x18c
     a94:	6b746e69 	blvs	1d1c440 <__bss_end__+0x1d0fa78>
     a98:	7600632e 	strvc	r6, [r0], -lr, lsr #6
     a9c:	72705f61 	rsbsvc	r5, r0, #388	; 0x184
     aa0:	6b746e69 	blvs	1d1c44c <__bss_end__+0x1d0fa84>
     aa4:	765f5f00 	ldrbvc	r5, [pc], -r0, lsl #30
     aa8:	696c5f61 	stmdbvs	ip!, {r0, r5, r6, r8, r9, sl, fp, ip, lr}^
     aac:	5f007473 	svcpl	0x00007473
     ab0:	0070615f 	rsbseq	r6, r0, pc, asr r1
     ab4:	74726175 	ldrbtvc	r6, [r2], #-373	; 0x175
     ab8:	7475705f 	ldrbtvc	r7, [r5], #-95	; 0x5f
     abc:	6e690063 	cdpvs	0, 6, cr0, cr9, cr3, {3}
     ac0:	6e726574 	mrcvs	5, 3, r6, cr2, cr4, {3}
     ac4:	705f6c61 	subsvc	r6, pc, r1, ror #24
     ac8:	68637475 	stmdavs	r3!, {r0, r2, r4, r5, r6, sl, ip, sp, lr}^
     acc:	72007261 	andvc	r7, r0, #268435462	; 0x10000006
     ad0:	705f6970 	subsvc	r6, pc, r0, ror r9	; <UNPREDICTABLE>
     ad4:	68637475 	stmdavs	r3!, {r0, r2, r4, r5, r6, sl, ip, sp, lr}^
     ad8:	6c007261 	sfmvs	f7, 4, [r0], {97}	; 0x61
     adc:	2f636269 	svccs	0x00636269
     ae0:	63747570 	cmnvs	r4, #112, 10	; 0x1c000000
     ae4:	2e726168 	rpwcssz	f6, f2, #0.0
     ae8:	70720063 	rsbsvc	r0, r2, r3, rrx
     aec:	65735f69 	ldrbvs	r5, [r3, #-3945]!	; 0xf69
     af0:	75705f74 	ldrbvc	r5, [r0, #-3956]!	; 0xf74
     af4:	6c006374 	stcvs	3, cr6, [r0], {116}	; 0x74
     af8:	2f636269 	svccs	0x00636269
     afc:	6b747570 	blvs	1d1e0c4 <__bss_end__+0x1d116fc>
     b00:	6900632e 	stmdbvs	r0, {r1, r2, r3, r5, r8, r9, sp, lr}
     b04:	7265746e 	rsbvc	r7, r5, #1845493760	; 0x6e000000
     b08:	5f6c616e 	svcpl	0x006c616e
     b0c:	6b747570 	blvs	1d1e0d4 <__bss_end__+0x1d1170c>
     b10:	746d6600 	strbtvc	r6, [sp], #-1536	; 0x600
     b14:	6174735f 	cmnvs	r4, pc, asr r3
     b18:	6e007472 	mcrvs	4, 0, r7, cr0, cr2, {3}
     b1c:	705f6765 	subsvc	r6, pc, r5, ror #14
     b20:	76657200 	strbtvc	r7, [r5], -r0, lsl #4
     b24:	65737265 	ldrbvs	r7, [r3, #-613]!	; 0x265
     b28:	64736900 	ldrbtvs	r6, [r3], #-2304	; 0x900
     b2c:	74696769 	strbtvc	r6, [r9], #-1897	; 0x769
     b30:	74757000 	ldrbtvc	r7, [r5], #-0
     b34:	70665f73 	rsbvc	r5, r6, r3, ror pc
     b38:	67697300 	strbvs	r7, [r9, -r0, lsl #6]!
     b3c:	5f64656e 	svcpl	0x0064656e
     b40:	696c0070 	stmdbvs	ip!, {r4, r5, r6}^
     b44:	762f6362 	strtvc	r6, [pc], -r2, ror #6
     b48:	72702d61 	rsbsvc	r2, r0, #6208	; 0x1840
     b4c:	6b746e69 	blvs	1d1c4f8 <__bss_end__+0x1d0fb30>
     b50:	7200632e 	andvc	r6, r0, #-1207959552	; 0xb8000000
     b54:	735f6970 	cmpvc	pc, #112, 18	; 0x1c0000
     b58:	6f5f7465 	svcvs	0x005f7465
     b5c:	75707475 	ldrbvc	r7, [r0, #-1141]!	; 0x475
     b60:	69770074 	ldmdbvs	r7!, {r2, r4, r5, r6}^
     b64:	00687464 	rsbeq	r7, r8, r4, ror #8
     b68:	63747570 	cmnvs	r4, #112, 10	; 0x1c000000
     b6c:	0070665f 	rsbseq	r6, r0, pc, asr r6
     b70:	74696d65 	strbtvc	r6, [r9], #-3429	; 0xd65
     b74:	62657200 	rsbvs	r7, r5, #0, 4
     b78:	5f746f6f 	svcpl	0x00746f6f
     b7c:	646e6168 	strbtvs	r6, [lr], #-360	; 0x168
     b80:	0072656c 	rsbseq	r6, r2, ip, ror #10
     b84:	66617473 			; <UNDEFINED> instruction: 0x66617473
     b88:	72732d66 	rsbsvc	r2, r3, #6528	; 0x1980
     b8c:	6c632f63 	stclvs	15, cr2, [r3], #-396	; 0xfffffe74
     b90:	2d6e6165 	stfcse	f6, [lr, #-404]!	; 0xfffffe6c
     b94:	6f626572 	svcvs	0x00626572
     b98:	632e746f 	teqvs	lr, #1862270976	; 0x6f000000
     b9c:	69707200 	ldmdbvs	r0!, {r9, ip, sp, lr}^
     ba0:	6265725f 	rsbvs	r7, r5, #-268435451	; 0xf0000005
     ba4:	00746f6f 	rsbseq	r6, r4, pc, ror #30
     ba8:	616c6564 	cmnvs	ip, r4, ror #10
     bac:	736d5f79 	cmnvc	sp, #484	; 0x1e4
     bb0:	625f5f00 	subsvs	r5, pc, #0, 30
     bb4:	735f7373 	cmpvc	pc, #-872415231	; 0xcc000001
     bb8:	74726174 	ldrbtvc	r6, [r2], #-372	; 0x174
     bbc:	5f005f5f 	svcpl	0x00005f5f
     bc0:	7373625f 	cmnvc	r3, #-268435451	; 0xf0000005
     bc4:	646e655f 	strbtvs	r6, [lr], #-1375	; 0x55f
     bc8:	63005f5f 	movwvs	r5, #3935	; 0xf5f
     bcc:	72617473 	rsbvc	r7, r1, #1929379840	; 0x73000000
     bd0:	61685f74 	smcvs	34292	; 0x85f4
     bd4:	656c646e 	strbvs	r6, [ip, #-1134]!	; 0x46e
     bd8:	73620072 	cmnvc	r2, #114	; 0x72
     bdc:	6e655f73 	mcrvs	15, 3, r5, cr5, cr3, {3}
     be0:	635f0064 	cmpvs	pc, #100	; 0x64
     be4:	72617473 	rsbvc	r7, r1, #1929379840	; 0x73000000
     be8:	74730074 	ldrbtvc	r0, [r3], #-116	; 0x74
     bec:	2d666661 	stclcs	6, cr6, [r6, #-388]!	; 0xfffffe7c
     bf0:	2f637273 	svccs	0x00637273
     bf4:	61747363 	cmnvs	r4, r3, ror #6
     bf8:	632e7472 	teqvs	lr, #1912602624	; 0x72000000
     bfc:	61747300 	cmnvs	r4, r0, lsl #6
     c00:	732d6666 	teqvc	sp, #106954752	; 0x6600000
     c04:	642f6372 	strtvs	r6, [pc], #-882	; c0c <__code_start__-0x73f4>
     c08:	75616665 	strbvc	r6, [r1, #-1637]!	; 0x665
     c0c:	682d746c 	stmdavs	sp!, {r2, r3, r5, r6, sl, ip, sp, lr}
     c10:	6c646e61 	stclvs	14, cr6, [r4], #-388	; 0xfffffe7c
     c14:	662d7265 	strtvs	r7, [sp], -r5, ror #4
     c18:	2e747361 	cdpcs	3, 7, cr7, cr4, cr1, {3}
     c1c:	61660063 	cmnvs	r6, r3, rrx
     c20:	695f7473 	ldmdbvs	pc, {r0, r1, r4, r5, r6, sl, ip, sp, lr}^	; <UNPREDICTABLE>
     c24:	7265746e 	rsbvc	r7, r5, #1845493760	; 0x6e000000
     c28:	74707572 	ldrbtvc	r7, [r0], #-1394	; 0x572
     c2c:	6365765f 	cmnvs	r5, #99614720	; 0x5f00000
     c30:	00726f74 	rsbseq	r6, r2, r4, ror pc
     c34:	66617473 			; <UNDEFINED> instruction: 0x66617473
     c38:	72732d66 	rsbsvc	r2, r3, #6528	; 0x1980
     c3c:	65642f63 	strbvs	r2, [r4, #-3939]!	; 0xf63
     c40:	6c756166 	ldfvse	f6, [r5], #-408	; 0xfffffe68
     c44:	61682d74 	smcvs	33492	; 0x82d4
     c48:	656c646e 	strbvs	r6, [ip, #-1134]!	; 0x46e
     c4c:	72702d72 	rsbsvc	r2, r0, #7296	; 0x1c80
     c50:	74656665 	strbtvc	r6, [r5], #-1637	; 0x665
     c54:	632e6863 	teqvs	lr, #6488064	; 0x630000
     c58:	65727000 	ldrbvs	r7, [r2, #-0]!
     c5c:	63746566 	cmnvs	r4, #427819008	; 0x19800000
     c60:	62615f68 	rsbvs	r5, r1, #104, 30	; 0x1a0
     c64:	5f74726f 	svcpl	0x0074726f
     c68:	74636576 	strbtvc	r6, [r3], #-1398	; 0x576
     c6c:	7200726f 	andvc	r7, r0, #-268435450	; 0xf0000006
     c70:	74657365 	strbtvc	r7, [r5], #-869	; 0x365
     c74:	6365765f 	cmnvs	r5, #99614720	; 0x5f00000
     c78:	00726f74 	rsbseq	r6, r2, r4, ror pc
     c7c:	66617473 			; <UNDEFINED> instruction: 0x66617473
     c80:	72732d66 	rsbsvc	r2, r3, #6528	; 0x1980
     c84:	65642f63 	strbvs	r2, [r4, #-3939]!	; 0xf63
     c88:	6c756166 	ldfvse	f6, [r5], #-408	; 0xfffffe68
     c8c:	61682d74 	smcvs	33492	; 0x82d4
     c90:	656c646e 	strbvs	r6, [ip, #-1134]!	; 0x46e
     c94:	65722d72 	ldrbvs	r2, [r2, #-3442]!	; 0xd72
     c98:	2e746573 	mrccs	5, 3, r6, cr4, cr3, {3}
     c9c:	74730063 	ldrbtvc	r0, [r3], #-99	; 0x63
     ca0:	2d666661 	stclcs	6, cr6, [r6, #-388]!	; 0xfffffe7c
     ca4:	2f637273 	svccs	0x00637273
     ca8:	61666564 	cmnvs	r6, r4, ror #10
     cac:	2d746c75 	ldclcs	12, cr6, [r4, #-468]!	; 0xfffffe2c
     cb0:	646e6168 	strbtvs	r6, [lr], #-360	; 0x168
     cb4:	2d72656c 	cfldr64cs	mvdx6, [r2, #-432]!	; 0xfffffe50
     cb8:	65646e75 	strbvs	r6, [r4, #-3701]!	; 0xe75
     cbc:	656e6966 	strbvs	r6, [lr, #-2406]!	; 0x966
     cc0:	6e692d64 	cdpvs	13, 6, cr2, cr9, cr4, {3}
     cc4:	632e7473 	teqvs	lr, #1929379840	; 0x73000000
     cc8:	646e7500 	strbtvs	r7, [lr], #-1280	; 0x500
     ccc:	6e696665 	cdpvs	6, 6, cr6, cr9, cr5, {3}
     cd0:	695f6465 	ldmdbvs	pc, {r0, r2, r5, r6, sl, sp, lr}^	; <UNPREDICTABLE>
     cd4:	7274736e 	rsbsvc	r7, r4, #-1207959551	; 0xb8000001
     cd8:	69746375 	ldmdbvs	r4!, {r0, r2, r4, r5, r6, r8, r9, sp, lr}^
     cdc:	765f6e6f 	ldrbvc	r6, [pc], -pc, ror #28
     ce0:	6f746365 	svcvs	0x00746365
     ce4:	74730072 	ldrbtvc	r0, [r3], #-114	; 0x72
     ce8:	2d666661 	stclcs	6, cr6, [r6, #-388]!	; 0xfffffe7c
     cec:	2f637273 	svccs	0x00637273
     cf0:	61666564 	cmnvs	r6, r4, ror #10
     cf4:	2d746c75 	ldclcs	12, cr6, [r4, #-468]!	; 0xfffffe2c
     cf8:	646e6168 	strbtvs	r6, [lr], #-360	; 0x168
     cfc:	7372656c 	cmnvc	r2, #108, 10	; 0x1b000000
     d00:	4900632e 	stmdbmi	r0, {r1, r2, r3, r5, r8, r9, sp, lr}
     d04:	705f5152 	subsvc	r5, pc, r2, asr r1	; <UNPREDICTABLE>
     d08:	69646e65 	stmdbvs	r4!, {r0, r2, r5, r6, r9, sl, fp, sp, lr}^
     d0c:	325f676e 	subscc	r6, pc, #28835840	; 0x1b80000
     d10:	73694400 	cmnvc	r9, #0, 8
     d14:	656c6261 	strbvs	r6, [ip, #-609]!	; 0x261
     d18:	7361425f 	cmnvc	r1, #-268435451	; 0xf0000005
     d1c:	495f6369 	ldmdbmi	pc, {r0, r3, r5, r6, r8, r9, sp, lr}^	; <UNPREDICTABLE>
     d20:	00735152 	rsbseq	r5, r3, r2, asr r1
     d24:	5f514946 	svcpl	0x00514946
     d28:	746e6f63 	strbtvc	r6, [lr], #-3939	; 0xf63
     d2c:	006c6f72 	rsbeq	r6, ip, r2, ror pc
     d30:	746e695f 	strbtvc	r6, [lr], #-2399	; 0x95f
     d34:	75727265 	ldrbvc	r7, [r2, #-613]!	; 0x265
     d38:	745f7470 	ldrbvc	r7, [pc], #-1136	; d40 <__code_start__-0x72c0>
     d3c:	656c6261 	strbvs	r6, [ip, #-609]!	; 0x261
     d40:	51524900 	cmppl	r2, r0, lsl #18
     d44:	7361625f 	cmnvc	r1, #-268435451	; 0xf0000005
     d48:	705f6369 	subsvc	r6, pc, r9, ror #6
     d4c:	69646e65 	stmdbvs	r4!, {r0, r2, r5, r6, r9, sl, fp, sp, lr}^
     d50:	4500676e 	strmi	r6, [r0, #-1902]	; 0x76e
     d54:	6c62616e 	stfvse	f6, [r2], #-440	; 0xfffffe48
     d58:	61425f65 	cmpvs	r2, r5, ror #30
     d5c:	5f636973 	svcpl	0x00636973
     d60:	73515249 	cmpvc	r1, #-1879048188	; 0x90000004
     d64:	616e4500 	cmnvs	lr, r0, lsl #10
     d68:	5f656c62 	svcpl	0x00656c62
     d6c:	73515249 	cmpvc	r1, #-1879048188	; 0x90000004
     d70:	4500315f 	strmi	r3, [r0, #-351]	; 0x15f
     d74:	6c62616e 	stfvse	f6, [r2], #-440	; 0xfffffe48
     d78:	52495f65 	subpl	r5, r9, #404	; 0x194
     d7c:	325f7351 	subscc	r7, pc, #1140850689	; 0x44000001
     d80:	6e695f00 	cdpvs	15, 6, cr5, cr9, cr0, {0}
     d84:	72726574 	rsbsvc	r6, r2, #116, 10	; 0x1d000000
     d88:	5f747075 	svcpl	0x00747075
     d8c:	6c626174 	stfvse	f6, [r2], #-464	; 0xfffffe30
     d90:	6e655f65 	cdpvs	15, 6, cr5, cr5, cr5, {3}
     d94:	65640064 	strbvs	r0, [r4, #-100]!	; 0x64
     d98:	61625f76 	smcvs	9718	; 0x25f6
     d9c:	65697272 	strbvs	r7, [r9, #-626]!	; 0x272
     da0:	74730072 	ldrbtvc	r0, [r3], #-114	; 0x72
     da4:	2d666661 	stclcs	6, cr6, [r6, #-388]!	; 0xfffffe7c
     da8:	2f637273 	svccs	0x00637273
     dac:	65746e69 	ldrbvs	r6, [r4, #-3689]!	; 0xe69
     db0:	70757272 	rsbsvc	r7, r5, r2, ror r2
     db4:	632d7374 	teqvs	sp, #116, 6	; 0xd0000001
     db8:	4900632e 	stmdbmi	r0, {r1, r2, r3, r5, r8, r9, sp, lr}
     dbc:	425f5152 	subsmi	r5, pc, #-2147483628	; 0x80000014
     dc0:	00657361 	rsbeq	r7, r5, r1, ror #6
     dc4:	61736944 	cmnvs	r3, r4, asr #18
     dc8:	5f656c62 	svcpl	0x00656c62
     dcc:	73515249 	cmpvc	r1, #-1879048188	; 0x90000004
     dd0:	4400315f 	strmi	r3, [r0], #-351	; 0x15f
     dd4:	62617369 	rsbvs	r7, r1, #-1543503871	; 0xa4000001
     dd8:	495f656c 	ldmdbmi	pc, {r2, r3, r5, r6, r8, sl, sp, lr}^	; <UNPREDICTABLE>
     ddc:	5f735152 	svcpl	0x00735152
     de0:	52490032 	subpl	r0, r9, #50	; 0x32
     de4:	65705f51 	ldrbvs	r5, [r0, #-3921]!	; 0xf51
     de8:	6e69646e 	cdpvs	4, 6, cr6, cr9, cr14, {3}
     dec:	00315f67 	eorseq	r5, r1, r7, ror #30
     df0:	755f7461 	ldrbvc	r7, [pc, #-1121]	; 997 <__code_start__-0x7669>
     df4:	5f726573 	svcpl	0x00726573
     df8:	6576656c 	ldrbvs	r6, [r6, #-1388]!	; 0x56c
     dfc:	7473006c 	ldrbtvc	r0, [r3], #-108	; 0x6c
     e00:	2d666661 	stclcs	6, cr6, [r6, #-388]!	; 0xfffffe7c
     e04:	2f637273 	svccs	0x00637273
     e08:	6f626572 	svcvs	0x00626572
     e0c:	632e746f 	teqvs	lr, #1862270976	; 0x6f000000
     e10:	5f4d5000 	svcpl	0x004d5000
     e14:	43545352 	cmpmi	r4, #1207959553	; 0x48000001
     e18:	4352575f 	cmpmi	r2, #24903680	; 0x17c0000
     e1c:	465f4746 	ldrbmi	r4, [pc], -r6, asr #14
     e20:	5f4c4c55 	svcpl	0x004c4c55
     e24:	45534552 	ldrbmi	r4, [r3, #-1362]	; 0x552
     e28:	4d500054 	ldclmi	0, cr0, [r0, #-336]	; 0xfffffeb0
     e2c:	4f44575f 	svcmi	0x0044575f
     e30:	65730047 	ldrbvs	r0, [r3, #-71]!	; 0x47
     e34:	73755f74 	cmnvc	r5, #116, 30	; 0x1d0
     e38:	6c5f7265 	lfmvs	f7, 2, [pc], {101}	; 0x65
     e3c:	6c657665 	stclvs	6, cr7, [r5], #-404	; 0xfffffe6c
     e40:	5f4d5000 	svcpl	0x004d5000
     e44:	53534150 	cmppl	r3, #80, 2
     e48:	44524f57 	ldrbmi	r4, [r2], #-3927	; 0xf57
     e4c:	5f4d5000 	svcpl	0x004d5000
     e50:	43545352 	cmpmi	r4, #1207959553	; 0x48000001
     e54:	73706300 	cmnvc	r0, #0, 6
     e58:	69740072 	ldmdbvs	r4!, {r1, r4, r5, r6}^
     e5c:	5f72656d 	svcpl	0x0072656d
     e60:	5f746567 	svcpl	0x00746567
     e64:	63657375 	cmnvs	r5, #-738197503	; 0xd4000001
     e68:	7761725f 			; <UNDEFINED> instruction: 0x7761725f
     e6c:	6c656400 	cfstrdvs	mvd6, [r5], #-0
     e70:	735f7961 	cmpvc	pc, #1589248	; 0x184000
     e74:	73006365 	movwvc	r6, #869	; 0x365
     e78:	66666174 			; <UNDEFINED> instruction: 0x66666174
     e7c:	6372732d 	cmnvs	r2, #-1275068416	; 0xb4000000
     e80:	6d69742f 	cfstrdvs	mvd7, [r9, #-188]!	; 0xffffff44
     e84:	632e7265 	teqvs	lr, #1342177286	; 0x50000006
     e88:	63697400 	cmnvs	r9, #0, 8
     e8c:	6400736b 	strvs	r7, [r0], #-875	; 0x36b
     e90:	79616c65 	stmdbvc	r1!, {r0, r2, r5, r6, sl, fp, sp, lr}^
     e94:	6379635f 	cmnvs	r9, #2080374785	; 0x7c000001
     e98:	0073656c 	rsbseq	r6, r3, ip, ror #10
     e9c:	616c6564 	cmnvs	ip, r4, ror #10
     ea0:	73755f79 	cmnvc	r5, #484	; 0x1e4
     ea4:	6d697400 	cfstrdvs	mvd7, [r9, #-0]
     ea8:	675f7265 	ldrbvs	r7, [pc, -r5, ror #4]
     eac:	755f7465 	ldrbvc	r7, [pc, #-1125]	; a4f <__code_start__-0x75b1>
     eb0:	00636573 	rsbeq	r6, r3, r3, ror r5
     eb4:	6f73645f 	svcvs	0x0073645f
     eb8:	6e61685f 	mcrvs	8, 3, r6, cr1, cr15, {2}
     ebc:	00656c64 	rsbeq	r6, r5, r4, ror #24
     ec0:	7a69735f 	bvc	1a5dc44 <__bss_end__+0x1a5127c>
     ec4:	725f0065 	subsvc	r0, pc, #101	; 0x65
     ec8:	34646e61 	strbtcc	r6, [r4], #-3681	; 0xe61
     ecc:	655f0038 	ldrbvs	r0, [pc, #-56]	; e9c <__code_start__-0x7164>
     ed0:	6772656d 	ldrbvs	r6, [r2, -sp, ror #10]!
     ed4:	79636e65 	stmdbvc	r3!, {r0, r2, r5, r6, r9, sl, fp, sp, lr}^
     ed8:	72617500 	rsbvc	r7, r1, #0, 10
     edc:	6e695f74 	mcrvs	15, 3, r5, cr9, cr4, {3}
     ee0:	5f007469 	svcpl	0x00007469
     ee4:	74726377 	ldrbtvc	r6, [r2], #-887	; 0x377
     ee8:	5f626d6f 	svcpl	0x00626d6f
     eec:	74617473 	strbtvc	r7, [r1], #-1139	; 0x473
     ef0:	775f0065 	ldrbvc	r0, [pc, -r5, rrx]
     ef4:	74727363 	ldrbtvc	r7, [r2], #-867	; 0x363
     ef8:	73626d6f 	cmnvc	r2, #7104	; 0x1bc0
     efc:	6174735f 	cmnvs	r4, pc, asr r3
     f00:	5f006574 	svcpl	0x00006574
     f04:	7366626c 	cmnvc	r6, #108, 4	; 0xc0000006
     f08:	00657a69 	rsbeq	r7, r5, r9, ror #20
     f0c:	4f495047 	svcmi	0x00495047
     f10:	4e55465f 	mrcmi	6, 2, r4, cr5, cr15, {2}
     f14:	4e495f43 	cdpmi	15, 4, cr5, cr9, cr3, {2}
     f18:	00545550 	subseq	r5, r4, r0, asr r5
     f1c:	72626d5f 	rsbvc	r6, r2, #6080	; 0x17c0
     f20:	63776f74 	cmnvs	r7, #116, 30	; 0x1d0
     f24:	6174735f 	cmnvs	r4, pc, asr r3
     f28:	5f006574 	svcpl	0x00006574
     f2c:	6f746377 	svcvs	0x00746377
     f30:	735f626d 	cmpvc	pc, #-805306362	; 0xd0000006
     f34:	65746174 	ldrbvs	r6, [r4, #-372]!	; 0x174
     f38:	745f5f00 	ldrbvc	r5, [pc], #-3840	; f40 <__code_start__-0x70c0>
     f3c:	65735f6d 	ldrbvs	r5, [r3, #-3949]!	; 0xf6d
     f40:	74730063 	ldrbtvc	r0, [r3], #-99	; 0x63
     f44:	5f007461 	svcpl	0x00007461
     f48:	66756275 			; <UNDEFINED> instruction: 0x66756275
     f4c:	49504700 	ldmdbmi	r0, {r8, r9, sl, lr}^
     f50:	55465f4f 	strbpl	r5, [r6, #-3919]	; 0xf4f
     f54:	415f434e 	cmpmi	pc, lr, asr #6
     f58:	0031544c 	eorseq	r5, r1, ip, asr #8
     f5c:	7361625f 	cmnvc	r1, #-268435451	; 0xf0000005
     f60:	6e630065 	cdpvs	0, 6, cr0, cr3, cr5, {3}
     f64:	5f006c74 	svcpl	0x00006c74
     f68:	5f6d745f 	svcpl	0x006d745f
     f6c:	72756f68 	rsbsvc	r6, r5, #104, 30	; 0x1a0
     f70:	735f5f00 	cmpvc	pc, #0, 30
     f74:	6f5f0066 	svcvs	0x005f0066
     f78:	78655f6e 	stmdavc	r5!, {r1, r2, r3, r5, r6, r8, r9, sl, fp, ip, lr}^
     f7c:	615f7469 	cmpvs	pc, r9, ror #8
     f80:	00736772 	rsbseq	r6, r3, r2, ror r7
     f84:	6f6f635f 	svcvs	0x006f635f
     f88:	0065696b 	rsbeq	r6, r5, fp, ror #18
     f8c:	67735f5f 			; <UNDEFINED> instruction: 0x67735f5f
     f90:	0065756c 	rsbeq	r7, r5, ip, ror #10
     f94:	616c665f 	cmnvs	ip, pc, asr r6
     f98:	5f007367 	svcpl	0x00007367
     f9c:	635f7369 	cmpvs	pc, #-1543503871	; 0xa4000001
     fa0:	5f006178 	svcpl	0x00006178
     fa4:	69647473 	stmdbvs	r4!, {r0, r1, r4, r5, r6, sl, ip, sp, lr}^
     fa8:	625f006e 	subsvs	r0, pc, #110	; 0x6e
     fac:	69736b6c 	ldmdbvs	r3!, {r2, r3, r5, r6, r8, r9, fp, sp, lr}^
     fb0:	7500657a 	strvc	r6, [r0, #-1402]	; 0x57a
     fb4:	2e747261 	cdpcs	2, 7, cr7, cr4, cr1, {3}
     fb8:	75610063 	strbvc	r0, [r1, #-99]!	; 0x63
     fbc:	65705f78 	ldrbvs	r5, [r0, #-3960]!	; 0xf78
     fc0:	68706972 	ldmdavs	r0!, {r1, r4, r5, r6, r8, fp, sp, lr}^
     fc4:	635f0073 	cmpvs	pc, #115	; 0x73
     fc8:	75627476 	strbvc	r7, [r2, #-1142]!	; 0x476
     fcc:	682f0066 	stmdavs	pc!, {r1, r2, r5, r6}	; <UNPREDICTABLE>
     fd0:	2f656d6f 	svccs	0x00656d6f
     fd4:	6c676e65 	stclvs	14, cr6, [r7], #-404	; 0xfffffe6c
     fd8:	632f7265 	teqvs	pc, #1342177286	; 0x50000006
     fdc:	7373616c 	cmnvc	r3, #108, 2
     fe0:	3273632f 	rsbscc	r6, r3, #-1140850688	; 0xbc000000
     fe4:	786c3034 	stmdavc	ip!, {r2, r4, r5, ip, sp}^
     fe8:	7330322d 	teqvc	r0, #-805306366	; 0xd0000002
     fec:	6c2f7270 	sfmvs	f7, 4, [pc], #-448	; e34 <__code_start__-0x71cc>
     ff0:	69706269 	ldmdbvs	r0!, {r0, r3, r5, r6, r9, sp, lr}^
     ff4:	6174732f 	cmnvs	r4, pc, lsr #6
     ff8:	702d6666 	eorvc	r6, sp, r6, ror #12
     ffc:	61766972 	cmnvs	r6, r2, ror r9
    1000:	5f006574 	svcpl	0x00006574
    1004:	7273626d 	rsbsvc	r6, r3, #-805306362	; 0xd0000006
    1008:	63776f74 	cmnvs	r7, #116, 30	; 0x1d0
    100c:	74735f73 	ldrbtvc	r5, [r3], #-3955	; 0xf73
    1010:	00657461 	rsbeq	r7, r5, r1, ror #8
    1014:	72626d5f 	rsbvc	r6, r2, #6080	; 0x17c0
    1018:	5f6e656c 	svcpl	0x006e656c
    101c:	74617473 	strbtvc	r7, [r1], #-1139	; 0x473
    1020:	665f0065 	ldrbvs	r0, [pc], -r5, rrx
    1024:	6772616e 	ldrbvs	r6, [r2, -lr, ror #2]!
    1028:	75610073 	strbvc	r0, [r1, #-115]!	; 0x73
    102c:	6e655f78 	mcrvs	15, 3, r5, cr5, cr8, {3}
    1030:	656c6261 	strbvs	r6, [ip, #-609]!	; 0x261
    1034:	665f0073 			; <UNDEFINED> instruction: 0x665f0073
    1038:	5f00736e 	svcpl	0x0000736e
    103c:	6e676973 	mcrvs	9, 3, r6, cr7, cr3, {3}
    1040:	72617500 	rsbvc	r7, r1, #0, 10
    1044:	61635f74 	smcvs	13812	; 0x35f4
    1048:	75705f6e 	ldrbvc	r5, [r0, #-3950]!	; 0xf6e
    104c:	5f006374 	svcpl	0x00006374
    1050:	636f6c66 	cmnvs	pc, #26112	; 0x6600
    1054:	00745f6b 	rsbseq	r5, r4, fp, ror #30
    1058:	6474735f 	ldrbtvs	r7, [r4], #-863	; 0x35f
    105c:	00727265 	rsbseq	r7, r2, r5, ror #4
    1060:	6769425f 			; <UNDEFINED> instruction: 0x6769425f
    1064:	00746e69 	rsbseq	r6, r4, r9, ror #28
    1068:	6d61675f 	stclvs	7, cr6, [r1, #-380]!	; 0xfffffe84
    106c:	735f616d 	cmpvc	pc, #1073741851	; 0x4000001b
    1070:	676e6769 	strbvs	r6, [lr, -r9, ror #14]!
    1074:	5f006d61 	svcpl	0x00006d61
    1078:	75736572 	ldrbvc	r6, [r3, #-1394]!	; 0x572
    107c:	6b5f746c 	blvs	17de234 <__bss_end__+0x17d186c>
    1080:	745f5f00 	ldrbvc	r5, [pc], #-3840	; 1088 <__code_start__-0x6f78>
    1084:	5f5f006d 	svcpl	0x005f006d
    1088:	62686377 	rsbvs	r6, r8, #-603979775	; 0xdc000001
    108c:	72617500 	rsbvc	r7, r1, #0, 10
    1090:	65675f74 	strbvs	r5, [r7, #-3956]!	; 0xf74
    1094:	5f006374 	svcpl	0x00006374
    1098:	6f647473 	svcvs	0x00647473
    109c:	5f007475 	svcpl	0x00007475
    10a0:	6c747663 	ldclvs	6, cr7, [r4], #-396	; 0xfffffe74
    10a4:	5f006e65 	svcpl	0x00006e65
    10a8:	656c6966 	strbvs	r6, [ip, #-2406]!	; 0x966
    10ac:	696e5f00 	stmdbvs	lr!, {r8, r9, sl, fp, ip, lr}^
    10b0:	0073626f 	rsbseq	r6, r3, pc, ror #4
    10b4:	6574615f 	ldrbvs	r6, [r4, #-351]!	; 0x15f
    10b8:	30746978 	rsbscc	r6, r4, r8, ror r9
    10bc:	69735f00 	ldmdbvs	r3!, {r8, r9, sl, fp, ip, lr}^
    10c0:	6c616e67 	stclvs	14, cr6, [r1], #-412	; 0xfffffe64
    10c4:	6675625f 			; <UNDEFINED> instruction: 0x6675625f
    10c8:	73615f00 	cmnvc	r1, #0, 30
    10cc:	6d697463 	cfstrdvs	mvd7, [r9, #-396]!	; 0xfffffe74
    10d0:	75625f65 	strbvc	r5, [r2, #-3941]!	; 0xf65
    10d4:	725f0066 	subsvc	r0, pc, #102	; 0x66
    10d8:	6c757365 	ldclvs	3, cr7, [r5], #-404	; 0xfffffe6c
    10dc:	5f5f0074 	svcpl	0x005f0074
    10e0:	00686377 	rsbeq	r6, r8, r7, ror r3
    10e4:	4f495047 	svcmi	0x00495047
    10e8:	4e55465f 	mrcmi	6, 2, r4, cr5, cr15, {2}
    10ec:	4c415f43 	mcrrmi	15, 4, r5, r1, cr3
    10f0:	77003254 	smlsdvc	r0, r4, r2, r3
    10f4:	5f746e69 	svcpl	0x00746e69
    10f8:	665f0074 			; <UNDEFINED> instruction: 0x665f0074
    10fc:	7367616c 	cmnvc	r7, #108, 2
    1100:	5f5f0032 	svcpl	0x005f0032
    1104:	795f6d74 	ldmdbvc	pc, {r2, r4, r5, r6, r8, sl, fp, sp, lr}^	; <UNPREDICTABLE>
    1108:	00726165 	rsbseq	r6, r2, r5, ror #2
    110c:	66666f5f 	uqsaxvs	r6, r6, pc	; <UNPREDICTABLE>
    1110:	00746573 	rsbseq	r6, r4, r3, ror r5
    1114:	6f697067 	svcvs	0x00697067
    1118:	7465735f 	strbtvc	r7, [r5], #-863	; 0x35f
    111c:	6e75665f 	mrcvs	6, 3, r6, cr5, cr15, {2}
    1120:	6f697463 	svcvs	0x00697463
    1124:	6e5f006e 	cdpvs	0, 5, cr0, cr15, cr14, {3}
    1128:	66747865 	ldrbtvs	r7, [r4], -r5, ror #16
    112c:	745f5f00 	ldrbvc	r5, [pc], #-3840	; 1134 <__code_start__-0x6ecc>
    1130:	6f6d5f6d 	svcvs	0x006d5f6d
    1134:	615f006e 	cmpvs	pc, lr, rrx
    1138:	69786574 	ldmdbvs	r8!, {r2, r4, r5, r6, r8, sl, sp, lr}^
    113c:	5f5f0074 	svcpl	0x005f0074
    1140:	64696473 	strbtvs	r6, [r9], #-1139	; 0x473
    1144:	74696e69 	strbtvc	r6, [r9], #-3689	; 0xe69
    1148:	666f5f00 	strbtvs	r5, [pc], -r0, lsl #30
    114c:	00745f66 	rsbseq	r5, r4, r6, ror #30
    1150:	74726175 	ldrbtvc	r6, [r2], #-373	; 0x175
    1154:	72665f00 	rsbvc	r5, r6, #0, 30
    1158:	696c6565 	stmdbvs	ip!, {r0, r2, r5, r6, r8, sl, sp, lr}^
    115c:	5f007473 	svcpl	0x00007473
    1160:	4b434f4c 	blmi	10d4e98 <__bss_end__+0x10c84d0>
    1164:	4345525f 	movtmi	r5, #21087	; 0x525f
    1168:	49535255 	ldmdbmi	r3, {r0, r2, r4, r6, r9, ip, lr}^
    116c:	545f4556 	ldrbpl	r4, [pc], #-1366	; 1174 <__code_start__-0x6e8c>
    1170:	656e5f00 	strbvs	r5, [lr, #-3840]!	; 0xf00
    1174:	685f0077 	ldmdavs	pc, {r0, r1, r2, r4, r5, r6}^	; <UNPREDICTABLE>
    1178:	7272655f 	rsbsvc	r6, r2, #398458880	; 0x17c00000
    117c:	5f006f6e 	svcpl	0x00006f6e
    1180:	5f6d745f 	svcpl	0x006d745f
    1184:	79616479 	stmdbvc	r1!, {r0, r3, r4, r5, r6, sl, sp, lr}^
    1188:	735f5f00 	cmpvc	pc, #0, 30
    118c:	00667562 	rsbeq	r7, r6, r2, ror #10
    1190:	626f695f 	rsbvs	r6, pc, #1556480	; 0x17c000
    1194:	5f5f0073 	svcpl	0x005f0073
    1198:	454c4946 	strbmi	r4, [ip, #-2374]	; 0x946
    119c:	626d5f00 	rsbvs	r5, sp, #0, 30
    11a0:	74617473 	strbtvc	r7, [r1], #-1139	; 0x473
    11a4:	00745f65 	rsbseq	r5, r4, r5, ror #30
    11a8:	46735f5f 	uhsaxmi	r5, r3, pc	; <UNPREDICTABLE>
    11ac:	00454c49 	subeq	r4, r5, r9, asr #24
    11b0:	73626d5f 	cmnvc	r2, #6080	; 0x17c0
    11b4:	65746174 	ldrbvs	r6, [r4, #-372]!	; 0x174
    11b8:	61725f00 	cmnvs	r2, r0, lsl #30
    11bc:	6e5f646e 	cdpvs	4, 5, cr6, cr15, cr14, {3}
    11c0:	00747865 	rsbseq	r7, r4, r5, ror #16
    11c4:	6c626d5f 	stclvs	13, cr6, [r2], #-380	; 0xfffffe84
    11c8:	735f6e65 	cmpvc	pc, #1616	; 0x650
    11cc:	65746174 	ldrbvs	r6, [r4, #-372]!	; 0x174
    11d0:	6e695f00 	cdpvs	15, 6, cr5, cr9, cr0, {0}
    11d4:	695f0063 	ldmdbvs	pc, {r0, r1, r5, r6}^	; <UNPREDICTABLE>
    11d8:	5f00646e 	svcpl	0x0000646e
    11dc:	72727563 	rsbsvc	r7, r2, #415236096	; 0x18c00000
    11e0:	5f746e65 	svcpl	0x00746e65
    11e4:	61636f6c 	cmnvs	r3, ip, ror #30
    11e8:	5f00656c 	svcpl	0x0000656c
    11ec:	656c635f 	strbvs	r6, [ip, #-863]!	; 0x35f
    11f0:	70756e61 	rsbsvc	r6, r5, r1, ror #28
    11f4:	616d5f00 	cmnvs	sp, r0, lsl #30
    11f8:	73647778 	cmnvc	r4, #120, 14	; 0x1e00000
    11fc:	65725f00 	ldrbvs	r5, [r2, #-3840]!	; 0xf00
    1200:	00746e65 	rsbseq	r6, r4, r5, ror #28
    1204:	6565735f 	strbvs	r7, [r5, #-863]!	; 0x35f
    1208:	5f5f0064 	svcpl	0x005f0064
    120c:	6e756f63 	cdpvs	15, 7, cr6, cr5, cr3, {3}
    1210:	5f5f0074 	svcpl	0x005f0074
    1214:	756c6176 	strbvc	r6, [ip, #-374]!	; 0x176
    1218:	735f0065 	cmpvc	pc, #101	; 0x65
    121c:	006b6565 	rsbeq	r6, fp, r5, ror #10
    1220:	64756162 	ldrbtvs	r6, [r5], #-354	; 0x162
    1224:	70665f00 	rsbvc	r5, r6, r0, lsl #30
    1228:	745f736f 	ldrbvc	r7, [pc], #-879	; 1230 <__code_start__-0x6dd0>
    122c:	745f5f00 	ldrbvc	r5, [pc], #-3840	; 1234 <__code_start__-0x6dcc>
    1230:	696d5f6d 	stmdbvs	sp!, {r0, r2, r3, r5, r6, r8, r9, sl, fp, ip, lr}^
    1234:	6373006e 	cmnvs	r3, #110	; 0x6e
    1238:	63746172 	cmnvs	r4, #-2147483620	; 0x8000001c
    123c:	6d5f0068 	ldclvs	0, cr0, [pc, #-416]	; 10a4 <__code_start__-0x6f5c>
    1240:	00746c75 	rsbseq	r6, r4, r5, ror ip
    1244:	33747570 	cmncc	r4, #112, 10	; 0x1c000000
    1248:	4e470032 	mcrmi	0, 2, r0, cr7, cr2, {1}
    124c:	39432055 	stmdbcc	r3, {r0, r2, r4, r6, sp}^
    1250:	2e362039 	mrccs	0, 1, r2, cr6, cr9, {1}
    1254:	20312e33 	eorscs	r2, r1, r3, lsr lr
    1258:	37313032 			; <UNDEFINED> instruction: 0x37313032
    125c:	30323630 	eorscc	r3, r2, r0, lsr r6
    1260:	636d2d20 	cmnvs	sp, #32, 26	; 0x800
    1264:	613d7570 	teqvs	sp, r0, ror r5
    1268:	31316d72 	teqcc	r1, r2, ror sp
    126c:	7a6a3637 	bvc	1a8eb50 <__bss_end__+0x1a82188>
    1270:	20732d66 	rsbscs	r2, r3, r6, ror #26
    1274:	75746d2d 	ldrbvc	r6, [r4, #-3373]!	; 0xd2d
    1278:	613d656e 	teqvs	sp, lr, ror #10
    127c:	31316d72 	teqcc	r1, r2, ror sp
    1280:	7a6a3637 	bvc	1a8eb64 <__bss_end__+0x1a8219c>
    1284:	20732d66 	rsbscs	r2, r3, r6, ror #26
    1288:	6467672d 	strbtvs	r6, [r7], #-1837	; 0x72d
    128c:	4f2d2062 	svcmi	0x002d2062
    1290:	732d2067 	teqvc	sp, #103	; 0x67
    1294:	673d6474 			; <UNDEFINED> instruction: 0x673d6474
    1298:	3939756e 	ldmdbcc	r9!, {r1, r2, r3, r5, r6, r8, sl, ip, sp, lr}
    129c:	66662d20 	strbtvs	r2, [r6], -r0, lsr #26
    12a0:	73656572 	cmnvc	r5, #478150656	; 0x1c800000
    12a4:	646e6174 	strbtvs	r6, [lr], #-372	; 0x174
    12a8:	00676e69 	rsbeq	r6, r7, r9, ror #28
    12ac:	7274735f 	rsbsvc	r7, r4, #2080374785	; 0x7c000001
    12b0:	5f6b6f74 	svcpl	0x006b6f74
    12b4:	7473616c 	ldrbtvc	r6, [r3], #-364	; 0x16c
    12b8:	6e665f00 	cdpvs	15, 6, cr5, cr6, cr0, {0}
    12bc:	65707974 	ldrbvs	r7, [r0, #-2420]!	; 0x974
    12c0:	615f0073 	cmpvs	pc, r3, ror r0	; <UNPREDICTABLE>
    12c4:	5f006464 	svcpl	0x00006464
    12c8:	6f4c555f 	svcvs	0x004c555f
    12cc:	5f00676e 	svcpl	0x0000676e
    12d0:	64746567 	ldrbtvs	r6, [r4], #-1383	; 0x567
    12d4:	5f657461 	svcpl	0x00657461
    12d8:	00727265 	rsbseq	r7, r2, r5, ror #4
    12dc:	6f6c675f 	svcvs	0x006c675f
    12e0:	5f6c6162 	svcpl	0x006c6162
    12e4:	75706d69 	ldrbvc	r6, [r0, #-3433]!	; 0xd69
    12e8:	705f6572 	subsvc	r6, pc, r2, ror r5	; <UNPREDICTABLE>
    12ec:	5f007274 	svcpl	0x00007274
    12f0:	72727563 	rsbsvc	r7, r2, #415236096	; 0x18c00000
    12f4:	5f746e65 	svcpl	0x00746e65
    12f8:	65746163 	ldrbvs	r6, [r4, #-355]!	; 0x163
    12fc:	79726f67 	ldmdbvc	r2!, {r0, r1, r2, r5, r6, r8, r9, sl, fp, sp, lr}^
    1300:	6e755f00 	cdpvs	15, 7, cr5, cr5, cr0, {0}
    1304:	64657375 	strbtvs	r7, [r5], #-885	; 0x375
    1308:	6e61725f 	mcrvs	2, 3, r7, cr1, cr15, {2}
    130c:	775f0064 	ldrbvc	r0, [pc, -r4, rrx]
    1310:	5f007364 	svcpl	0x00007364
    1314:	5f6d745f 	svcpl	0x006d745f
    1318:	79616477 	stmdbvc	r1!, {r0, r1, r2, r4, r5, r6, sl, sp, lr}^
    131c:	6c675f00 	stclvs	15, cr5, [r7], #-0
    1320:	47006575 	smlsdxmi	r0, r5, r5, r6
    1324:	5f4f4950 	svcpl	0x004f4950
    1328:	434e5546 	movtmi	r5, #58694	; 0xe546
    132c:	54554f5f 	ldrbpl	r4, [r5], #-3935	; 0xf5f
    1330:	00545550 	subseq	r5, r4, r0, asr r5
    1334:	616d6e5f 	cmnvs	sp, pc, asr lr
    1338:	636f6c6c 	cmnvs	pc, #108, 24	; 0x6c00
    133c:	366c5f00 	strbtcc	r5, [ip], -r0, lsl #30
    1340:	625f6134 	subsvs	r6, pc, #52, 2
    1344:	67006675 	smlsdxvs	r0, r5, r6, r6
    1348:	32337465 	eorscc	r7, r3, #1694498816	; 0x65000000
    134c:	72617500 	rsbvc	r7, r1, #0, 10
    1350:	61635f74 	smcvs	13812	; 0x35f4
    1354:	65675f6e 	strbvs	r5, [r7, #-3950]!	; 0xf6e
    1358:	5f006374 	svcpl	0x00006374
    135c:	5f676973 	svcpl	0x00676973
    1360:	636e7566 	cmnvs	lr, #427819008	; 0x19800000
    1364:	5f726f00 	svcpl	0x00726f00
    1368:	32336e69 	eorscc	r6, r3, #1680	; 0x690
    136c:	72617500 	rsbvc	r7, r1, #0, 10
    1370:	61685f74 	smcvs	34292	; 0x85f4
    1374:	61645f73 	smcvs	17907	; 0x45f3
    1378:	47006174 	smlsdxmi	r0, r4, r1, r6
    137c:	5f4f4950 	svcpl	0x004f4950
    1380:	434e5546 	movtmi	r5, #58694	; 0xe546
    1384:	544c415f 	strbpl	r4, [ip], #-351	; 0x15f
    1388:	6e5f0030 	mrcvs	0, 2, r0, cr15, cr0, {1}
    138c:	00667562 	rsbeq	r7, r6, r2, ror #10
    1390:	756e755f 	strbvc	r7, [lr, #-1375]!	; 0x55f
    1394:	00646573 	rsbeq	r6, r4, r3, ror r5
    1398:	4f495047 	svcmi	0x00495047
    139c:	4e55465f 	mrcmi	6, 2, r4, cr5, cr15, {2}
    13a0:	4c415f43 	mcrrmi	15, 4, r5, r1, cr3
    13a4:	47003354 	smlsdmi	r0, r4, r3, r3
    13a8:	5f4f4950 	svcpl	0x004f4950
    13ac:	434e5546 	movtmi	r5, #58694	; 0xe546
    13b0:	544c415f 	strbpl	r4, [ip], #-351	; 0x15f
    13b4:	50470034 	subpl	r0, r7, r4, lsr r0
    13b8:	465f4f49 	ldrbmi	r4, [pc], -r9, asr #30
    13bc:	5f434e55 	svcpl	0x00434e55
    13c0:	35544c41 	ldrbcc	r4, [r4, #-3137]	; 0xc41
    13c4:	745f5f00 	ldrbvc	r5, [pc], #-3840	; 13cc <__code_start__-0x6c34>
    13c8:	73695f6d 	cmnvc	r9, #436	; 0x1b4
    13cc:	00747364 	rsbseq	r7, r4, r4, ror #6
    13d0:	636f6c5f 	cmnvs	pc, #24320	; 0x5f00
    13d4:	69746c61 	ldmdbvs	r4!, {r0, r5, r6, sl, fp, sp, lr}^
    13d8:	625f656d 	subsvs	r6, pc, #457179136	; 0x1b400000
    13dc:	5f006675 	svcpl	0x00006675
    13e0:	736f6c63 	cmnvc	pc, #25344	; 0x6300
    13e4:	725f0065 	subsvc	r0, pc, #101	; 0x65
    13e8:	5f003834 	svcpl	0x00003834
    13ec:	6f74626d 	svcvs	0x0074626d
    13f0:	735f6377 	cmpvc	pc, #-603979775	; 0xdc000001
    13f4:	65746174 	ldrbvs	r6, [r4, #-372]!	; 0x174
    13f8:	35705f00 	ldrbcc	r5, [r0, #-3840]!	; 0xf00
    13fc:	5f5f0073 	svcpl	0x005f0073
    1400:	6d5f6d74 	ldclvs	13, cr6, [pc, #-464]	; 1238 <__code_start__-0x6dc8>
    1404:	00796164 	rsbseq	r6, r9, r4, ror #2
    1408:	6f697067 	svcvs	0x00697067
    140c:	7465735f 	strbtvc	r7, [r5], #-863	; 0x35f
    1410:	66666f5f 	uqsaxvs	r6, r6, pc	; <UNPREDICTABLE>
    1414:	6e616200 	cdpvs	2, 6, cr6, cr1, cr0, {0}
    1418:	7067006b 	rsbvc	r0, r7, fp, rrx
    141c:	632e6f69 	teqvs	lr, #420	; 0x1a4
    1420:	69706700 	ldmdbvs	r0!, {r8, r9, sl, sp, lr}^
    1424:	65725f6f 	ldrbvs	r5, [r2, #-3951]!	; 0xf6f
    1428:	67006461 	strvs	r6, [r0, -r1, ror #8]
    142c:	5f6f6970 	svcpl	0x006f6970
    1430:	5f746573 	svcpl	0x00746573
    1434:	7074756f 	rsbsvc	r7, r4, pc, ror #10
    1438:	67007475 	smlsdxvs	r0, r5, r4, r7
    143c:	5f6f6970 	svcpl	0x006f6970
    1440:	74697277 	strbtvc	r7, [r9], #-631	; 0x277
    1444:	70670065 	rsbvc	r0, r7, r5, rrx
    1448:	735f6f69 	cmpvc	pc, #420	; 0x1a4
    144c:	00307465 	eorseq	r7, r0, r5, ror #8
    1450:	6f697067 	svcvs	0x00697067
    1454:	76656c5f 			; <UNDEFINED> instruction: 0x76656c5f
    1458:	70670030 	rsbvc	r0, r7, r0, lsr r0
    145c:	735f6f69 	cmpvc	pc, #420	; 0x1a4
    1460:	695f7465 	ldmdbvs	pc, {r0, r2, r5, r6, sl, ip, sp, lr}^	; <UNPREDICTABLE>
    1464:	7475706e 	ldrbtvc	r7, [r5], #-110	; 0x6e
    1468:	69706700 	ldmdbvs	r0!, {r8, r9, sl, sp, lr}^
    146c:	65735f6f 	ldrbvs	r5, [r3, #-3951]!	; 0xf6f
    1470:	6e6f5f74 	mcrvs	15, 3, r5, cr15, cr4, {3}
    1474:	69706700 	ldmdbvs	r0!, {r8, r9, sl, sp, lr}^
    1478:	75665f6f 	strbvc	r5, [r6, #-3951]!	; 0xf6f
    147c:	745f636e 	ldrbvc	r6, [pc], #-878	; 1484 <__code_start__-0x6b7c>
    1480:	69706700 	ldmdbvs	r0!, {r8, r9, sl, sp, lr}^
    1484:	6c635f6f 	stclvs	15, cr5, [r3], #-444	; 0xfffffe44
    1488:	6b003072 	blvs	d658 <__bss_end__+0xc90>
    148c:	6c6c616d 	stfvse	f6, [ip], #-436	; 0xfffffe4c
    1490:	632e636f 	teqvs	lr, #-1140850687	; 0xbc000001
    1494:	616d6b00 	cmnvs	sp, r0, lsl #22
    1498:	636f6c6c 	cmnvs	pc, #108, 24	; 0x6c00
    149c:	696e695f 	stmdbvs	lr!, {r0, r1, r2, r3, r4, r6, r8, fp, sp, lr}^
    14a0:	6f640074 	svcvs	0x00640074
    14a4:	656c6275 	strbvs	r6, [ip, #-629]!	; 0x275
    14a8:	72666b00 	rsbvc	r6, r6, #0, 22
    14ac:	615f6565 	cmpvs	pc, r5, ror #10
    14b0:	6b006c6c 	blvs	1c668 <__bss_end__+0xfca0>
    14b4:	6c6c616d 	stfvse	f6, [ip], #-436	; 0xfffffe4c
    14b8:	695f636f 	ldmdbvs	pc, {r0, r1, r2, r3, r5, r6, r8, r9, sp, lr}^	; <UNPREDICTABLE>
    14bc:	5f74696e 	svcpl	0x0074696e
    14c0:	5f746573 	svcpl	0x00746573
    14c4:	72617473 	rsbvc	r7, r1, #1929379840	; 0x73000000
    14c8:	666b0074 			; <UNDEFINED> instruction: 0x666b0074
    14cc:	00656572 	rsbeq	r6, r5, r2, ror r5
    14d0:	6572666b 	ldrbvs	r6, [r2, #-1643]!	; 0x66b
    14d4:	66615f65 	strbtvs	r5, [r1], -r5, ror #30
    14d8:	00726574 	rsbseq	r6, r2, r4, ror r5
    14dc:	6c616d6b 	stclvs	13, cr6, [r1], #-428	; 0xfffffe54
    14e0:	5f636f6c 	svcpl	0x00636f6c
    14e4:	70616568 	rsbvc	r6, r1, r8, ror #10
    14e8:	7274705f 	rsbsvc	r7, r4, #95	; 0x5f
    14ec:	685f5f00 	ldmdavs	pc, {r8, r9, sl, fp, ip, lr}^	; <UNPREDICTABLE>
    14f0:	5f706165 	svcpl	0x00706165
    14f4:	72617473 	rsbvc	r7, r1, #1929379840	; 0x73000000
    14f8:	005f5f74 	subseq	r5, pc, r4, ror pc	; <UNPREDICTABLE>
    14fc:	6c616d6b 	stclvs	13, cr6, [r1], #-428	; 0xfffffe54
    1500:	5f636f6c 	svcpl	0x00636f6c
    1504:	70616568 	rsbvc	r6, r1, r8, ror #10
    1508:	6174735f 	cmnvs	r4, pc, asr r3
    150c:	68007472 	stmdavs	r0, {r1, r4, r5, r6, sl, ip, sp, lr}
    1510:	00706165 	rsbseq	r6, r0, r5, ror #2
    1514:	6c616d6b 	stclvs	13, cr6, [r1], #-428	; 0xfffffe54
    1518:	5f636f6c 	svcpl	0x00636f6c
    151c:	70616568 	rsbvc	r6, r1, r8, ror #10
    1520:	646e655f 	strbtvs	r6, [lr], #-1375	; 0x55f
    1524:	616d6b00 	cmnvs	sp, r0, lsl #22
    1528:	636f6c6c 	cmnvs	pc, #108, 24	; 0x6c00
	...

Disassembly of section .debug_frame:

00000000 <.debug_frame>:
   0:	0000000c 	andeq	r0, r0, ip
   4:	ffffffff 			; <UNDEFINED> instruction: 0xffffffff
   8:	7c020001 	stcvc	0, cr0, [r2], {1}
   c:	000d0c0e 	andeq	r0, sp, lr, lsl #24
  10:	0000001c 	andeq	r0, r0, ip, lsl r0
  14:	00000000 	andeq	r0, r0, r0
  18:	00008020 	andeq	r8, r0, r0, lsr #32
  1c:	0000019c 	muleq	r0, ip, r1
  20:	84100e42 	ldrhi	r0, [r0], #-3650	; 0xe42
  24:	86038504 	strhi	r8, [r3], -r4, lsl #10
  28:	42018e02 	andmi	r8, r1, #2, 28
  2c:	0000180e 	andeq	r1, r0, lr, lsl #16
  30:	00000018 	andeq	r0, r0, r8, lsl r0
  34:	00000000 	andeq	r0, r0, r0
  38:	000081bc 			; <UNDEFINED> instruction: 0x000081bc
  3c:	0000009c 	muleq	r0, ip, r0
  40:	840c0e42 	strhi	r0, [ip], #-3650	; 0xe42
  44:	8e028503 	cfsh32hi	mvfx8, mvfx2, #3
  48:	180e4201 	stmdane	lr, {r0, r9, lr}
  4c:	0000000c 	andeq	r0, r0, ip
  50:	ffffffff 			; <UNDEFINED> instruction: 0xffffffff
  54:	7c020001 	stcvc	0, cr0, [r2], {1}
  58:	000d0c0e 	andeq	r0, sp, lr, lsl #24
  5c:	00000014 	andeq	r0, r0, r4, lsl r0
  60:	0000004c 	andeq	r0, r0, ip, asr #32
  64:	0000839c 	muleq	r0, ip, r3
  68:	00000010 	andeq	r0, r0, r0, lsl r0
  6c:	83080e42 	movwhi	r0, #36418	; 0x8e42
  70:	00018e02 	andeq	r8, r1, r2, lsl #28
  74:	00000014 	andeq	r0, r0, r4, lsl r0
  78:	0000004c 	andeq	r0, r0, ip, asr #32
  7c:	000083ac 	andeq	r8, r0, ip, lsr #7
  80:	00000090 	muleq	r0, r0, r0
  84:	8e040e42 	cdphi	14, 0, cr0, cr4, cr2, {2}
  88:	100e4201 	andne	r4, lr, r1, lsl #4
  8c:	00000020 	andeq	r0, r0, r0, lsr #32
  90:	0000004c 	andeq	r0, r0, ip, asr #32
  94:	0000843c 	andeq	r8, r0, ip, lsr r4
  98:	00000098 	muleq	r0, r8, r0
  9c:	84180e42 	ldrhi	r0, [r8], #-3650	; 0xe42
  a0:	86058506 	strhi	r8, [r5], -r6, lsl #10
  a4:	88038704 	stmdahi	r3, {r2, r8, r9, sl, pc}
  a8:	42018e02 	andmi	r8, r1, #2, 28
  ac:	0000200e 	andeq	r2, r0, lr
  b0:	00000014 	andeq	r0, r0, r4, lsl r0
  b4:	0000004c 	andeq	r0, r0, ip, asr #32
  b8:	000084d4 	ldrdeq	r8, [r0], -r4
  bc:	00000010 	andeq	r0, r0, r0, lsl r0
  c0:	83080e42 	movwhi	r0, #36418	; 0x8e42
  c4:	00018e02 	andeq	r8, r1, r2, lsl #28
  c8:	00000014 	andeq	r0, r0, r4, lsl r0
  cc:	0000004c 	andeq	r0, r0, ip, asr #32
  d0:	000084e4 	andeq	r8, r0, r4, ror #9
  d4:	00000010 	andeq	r0, r0, r0, lsl r0
  d8:	83080e42 	movwhi	r0, #36418	; 0x8e42
  dc:	00018e02 	andeq	r8, r1, r2, lsl #28
  e0:	00000014 	andeq	r0, r0, r4, lsl r0
  e4:	0000004c 	andeq	r0, r0, ip, asr #32
  e8:	000084f4 	strdeq	r8, [r0], -r4
  ec:	00000010 	andeq	r0, r0, r0, lsl r0
  f0:	83080e42 	movwhi	r0, #36418	; 0x8e42
  f4:	00018e02 	andeq	r8, r1, r2, lsl #28
  f8:	00000014 	andeq	r0, r0, r4, lsl r0
  fc:	0000004c 	andeq	r0, r0, ip, asr #32
 100:	00008504 	andeq	r8, r0, r4, lsl #10
 104:	00000098 	muleq	r0, r8, r0
 108:	8e040e42 	cdphi	14, 0, cr0, cr4, cr2, {2}
 10c:	100e4201 	andne	r4, lr, r1, lsl #4
 110:	00000020 	andeq	r0, r0, r0, lsr #32
 114:	0000004c 	andeq	r0, r0, ip, asr #32
 118:	0000859c 	muleq	r0, ip, r5
 11c:	00000194 	muleq	r0, r4, r1
 120:	841c0e42 	ldrhi	r0, [ip], #-3650	; 0xe42
 124:	86068507 	strhi	r8, [r6], -r7, lsl #10
 128:	88048705 	stmdahi	r4, {r0, r2, r8, r9, sl, pc}
 12c:	8e028903 	cdphi	9, 0, cr8, cr2, cr3, {0}
 130:	280e4201 	stmdacs	lr, {r0, r9, lr}
 134:	00000020 	andeq	r0, r0, r0, lsr #32
 138:	0000004c 	andeq	r0, r0, ip, asr #32
 13c:	00008730 	andeq	r8, r0, r0, lsr r7
 140:	000000f0 	strdeq	r0, [r0], -r0	; <UNPREDICTABLE>
 144:	841c0e42 	ldrhi	r0, [ip], #-3650	; 0xe42
 148:	86068507 	strhi	r8, [r6], -r7, lsl #10
 14c:	88048705 	stmdahi	r4, {r0, r2, r8, r9, sl, pc}
 150:	8e028903 	cdphi	9, 0, cr8, cr2, cr3, {0}
 154:	280e4201 	stmdacs	lr, {r0, r9, lr}
 158:	00000018 	andeq	r0, r0, r8, lsl r0
 15c:	0000004c 	andeq	r0, r0, ip, asr #32
 160:	00008820 	andeq	r8, r0, r0, lsr #16
 164:	00000094 	muleq	r0, r4, r0
 168:	84080e42 	strhi	r0, [r8], #-3650	; 0xe42
 16c:	42018e02 	andmi	r8, r1, #2, 28
 170:	0000100e 	andeq	r1, r0, lr
 174:	00000014 	andeq	r0, r0, r4, lsl r0
 178:	0000004c 	andeq	r0, r0, ip, asr #32
 17c:	000088b4 			; <UNDEFINED> instruction: 0x000088b4
 180:	00000090 	muleq	r0, r0, r0
 184:	8e040e42 	cdphi	14, 0, cr0, cr4, cr2, {2}
 188:	100e4201 	andne	r4, lr, r1, lsl #4
 18c:	00000014 	andeq	r0, r0, r4, lsl r0
 190:	0000004c 	andeq	r0, r0, ip, asr #32
 194:	00008944 	andeq	r8, r0, r4, asr #18
 198:	00000090 	muleq	r0, r0, r0
 19c:	8e040e42 	cdphi	14, 0, cr0, cr4, cr2, {2}
 1a0:	100e4201 	andne	r4, lr, r1, lsl #4
 1a4:	00000014 	andeq	r0, r0, r4, lsl r0
 1a8:	0000004c 	andeq	r0, r0, ip, asr #32
 1ac:	000089d4 	ldrdeq	r8, [r0], -r4
 1b0:	0000000c 	andeq	r0, r0, ip
 1b4:	83080e42 	movwhi	r0, #36418	; 0x8e42
 1b8:	00018e02 	andeq	r8, r1, r2, lsl #28
 1bc:	00000014 	andeq	r0, r0, r4, lsl r0
 1c0:	0000004c 	andeq	r0, r0, ip, asr #32
 1c4:	000089e0 	andeq	r8, r0, r0, ror #19
 1c8:	00000080 	andeq	r0, r0, r0, lsl #1
 1cc:	8e040e42 	cdphi	14, 0, cr0, cr4, cr2, {2}
 1d0:	100e4201 	andne	r4, lr, r1, lsl #4
 1d4:	00000014 	andeq	r0, r0, r4, lsl r0
 1d8:	0000004c 	andeq	r0, r0, ip, asr #32
 1dc:	00008a60 	andeq	r8, r0, r0, ror #20
 1e0:	00000058 	andeq	r0, r0, r8, asr r0
 1e4:	8e040e42 	cdphi	14, 0, cr0, cr4, cr2, {2}
 1e8:	100e4201 	andne	r4, lr, r1, lsl #4
 1ec:	00000014 	andeq	r0, r0, r4, lsl r0
 1f0:	0000004c 	andeq	r0, r0, ip, asr #32
 1f4:	00008ab8 			; <UNDEFINED> instruction: 0x00008ab8
 1f8:	00000050 	andeq	r0, r0, r0, asr r0
 1fc:	8e040e42 	cdphi	14, 0, cr0, cr4, cr2, {2}
 200:	100e4201 	andne	r4, lr, r1, lsl #4
 204:	00000014 	andeq	r0, r0, r4, lsl r0
 208:	0000004c 	andeq	r0, r0, ip, asr #32
 20c:	00008b08 	andeq	r8, r0, r8, lsl #22
 210:	00000058 	andeq	r0, r0, r8, asr r0
 214:	8e040e42 	cdphi	14, 0, cr0, cr4, cr2, {2}
 218:	100e4201 	andne	r4, lr, r1, lsl #4
 21c:	0000000c 	andeq	r0, r0, ip
 220:	0000004c 	andeq	r0, r0, ip, asr #32
 224:	00008b60 	andeq	r8, r0, r0, ror #22
 228:	00000008 	andeq	r0, r0, r8
 22c:	00000014 	andeq	r0, r0, r4, lsl r0
 230:	0000004c 	andeq	r0, r0, ip, asr #32
 234:	00008b68 	andeq	r8, r0, r8, ror #22
 238:	0000000c 	andeq	r0, r0, ip
 23c:	83080e42 	movwhi	r0, #36418	; 0x8e42
 240:	00018e02 	andeq	r8, r1, r2, lsl #28
 244:	00000014 	andeq	r0, r0, r4, lsl r0
 248:	0000004c 	andeq	r0, r0, ip, asr #32
 24c:	00008b74 	andeq	r8, r0, r4, ror fp
 250:	000000bc 	strheq	r0, [r0], -ip
 254:	8e040e42 	cdphi	14, 0, cr0, cr4, cr2, {2}
 258:	100e4201 	andne	r4, lr, r1, lsl #4
 25c:	00000014 	andeq	r0, r0, r4, lsl r0
 260:	0000004c 	andeq	r0, r0, ip, asr #32
 264:	00008c30 	andeq	r8, r0, r0, lsr ip
 268:	00000048 	andeq	r0, r0, r8, asr #32
 26c:	8e040e42 	cdphi	14, 0, cr0, cr4, cr2, {2}
 270:	100e4201 	andne	r4, lr, r1, lsl #4
 274:	0000000c 	andeq	r0, r0, ip
 278:	ffffffff 			; <UNDEFINED> instruction: 0xffffffff
 27c:	7c020001 	stcvc	0, cr0, [r2], {1}
 280:	000d0c0e 	andeq	r0, sp, lr, lsl #24
 284:	00000018 	andeq	r0, r0, r8, lsl r0
 288:	00000274 	andeq	r0, r0, r4, ror r2
 28c:	00008c78 	andeq	r8, r0, r8, ror ip
 290:	00000034 	andeq	r0, r0, r4, lsr r0
 294:	83100e42 	tsthi	r0, #1056	; 0x420
 298:	85038404 	strhi	r8, [r3, #-1028]	; 0x404
 29c:	00018e02 	andeq	r8, r1, r2, lsl #28
 2a0:	00000014 	andeq	r0, r0, r4, lsl r0
 2a4:	00000274 	andeq	r0, r0, r4, ror r2
 2a8:	00008cac 	andeq	r8, r0, ip, lsr #25
 2ac:	00000028 	andeq	r0, r0, r8, lsr #32
 2b0:	83080e42 	movwhi	r0, #36418	; 0x8e42
 2b4:	00018e02 	andeq	r8, r1, r2, lsl #28
 2b8:	00000014 	andeq	r0, r0, r4, lsl r0
 2bc:	00000274 	andeq	r0, r0, r4, ror r2
 2c0:	00008cd4 	ldrdeq	r8, [r0], -r4
 2c4:	00000008 	andeq	r0, r0, r8
 2c8:	8e040e42 	cdphi	14, 0, cr0, cr4, cr2, {2}
 2cc:	00000001 	andeq	r0, r0, r1
 2d0:	00000014 	andeq	r0, r0, r4, lsl r0
 2d4:	00000274 	andeq	r0, r0, r4, ror r2
 2d8:	00008cdc 	ldrdeq	r8, [r0], -ip
 2dc:	000001f8 	strdeq	r0, [r0], -r8
 2e0:	8e040e42 	cdphi	14, 0, cr0, cr4, cr2, {2}
 2e4:	100e4201 	andne	r4, lr, r1, lsl #4
 2e8:	00000014 	andeq	r0, r0, r4, lsl r0
 2ec:	00000274 	andeq	r0, r0, r4, ror r2
 2f0:	00008ed4 	ldrdeq	r8, [r0], -r4
 2f4:	00000204 	andeq	r0, r0, r4, lsl #4
 2f8:	84080e42 	strhi	r0, [r8], #-3650	; 0xe42
 2fc:	00018e02 	andeq	r8, r1, r2, lsl #28
 300:	00000014 	andeq	r0, r0, r4, lsl r0
 304:	00000274 	andeq	r0, r0, r4, ror r2
 308:	000090d8 	ldrdeq	r9, [r0], -r8
 30c:	00000008 	andeq	r0, r0, r8
 310:	8e040e42 	cdphi	14, 0, cr0, cr4, cr2, {2}
 314:	00000001 	andeq	r0, r0, r1
 318:	00000014 	andeq	r0, r0, r4, lsl r0
 31c:	00000274 	andeq	r0, r0, r4, ror r2
 320:	000090e0 	andeq	r9, r0, r0, ror #1
 324:	0000004c 	andeq	r0, r0, ip, asr #32
 328:	84080e42 	strhi	r0, [r8], #-3650	; 0xe42
 32c:	00018e02 	andeq	r8, r1, r2, lsl #28
 330:	00000014 	andeq	r0, r0, r4, lsl r0
 334:	00000274 	andeq	r0, r0, r4, ror r2
 338:	0000912c 	andeq	r9, r0, ip, lsr #2
 33c:	000001c0 	andeq	r0, r0, r0, asr #3
 340:	8e040e42 	cdphi	14, 0, cr0, cr4, cr2, {2}
 344:	100e4201 	andne	r4, lr, r1, lsl #4
 348:	0000000c 	andeq	r0, r0, ip
 34c:	00000274 	andeq	r0, r0, r4, ror r2
 350:	000092ec 	andeq	r9, r0, ip, ror #5
 354:	00000008 	andeq	r0, r0, r8
 358:	00000018 	andeq	r0, r0, r8, lsl r0
 35c:	00000274 	andeq	r0, r0, r4, ror r2
 360:	000092f4 	strdeq	r9, [r0], -r4
 364:	000000b4 	strheq	r0, [r0], -r4
 368:	84080e42 	strhi	r0, [r8], #-3650	; 0xe42
 36c:	42018e02 	andmi	r8, r1, #2, 28
 370:	0000280e 	andeq	r2, r0, lr, lsl #16
 374:	00000014 	andeq	r0, r0, r4, lsl r0
 378:	00000274 	andeq	r0, r0, r4, ror r2
 37c:	000093a8 	andeq	r9, r0, r8, lsr #7
 380:	000001d0 	ldrdeq	r0, [r0], -r0	; <UNPREDICTABLE>
 384:	84080e42 	strhi	r0, [r8], #-3650	; 0xe42
 388:	00018e02 	andeq	r8, r1, r2, lsl #28
 38c:	00000014 	andeq	r0, r0, r4, lsl r0
 390:	00000274 	andeq	r0, r0, r4, ror r2
 394:	00009578 	andeq	r9, r0, r8, ror r5
 398:	00000014 	andeq	r0, r0, r4, lsl r0
 39c:	83080e42 	movwhi	r0, #36418	; 0x8e42
 3a0:	00018e02 	andeq	r8, r1, r2, lsl #28
 3a4:	0000000c 	andeq	r0, r0, ip
 3a8:	ffffffff 			; <UNDEFINED> instruction: 0xffffffff
 3ac:	7c020001 	stcvc	0, cr0, [r2], {1}
 3b0:	000d0c0e 	andeq	r0, sp, lr, lsl #24
 3b4:	0000000c 	andeq	r0, r0, ip
 3b8:	000003a4 	andeq	r0, r0, r4, lsr #7
 3bc:	0000958c 	andeq	r9, r0, ip, lsl #11
 3c0:	0000001c 	andeq	r0, r0, ip, lsl r0
 3c4:	0000000c 	andeq	r0, r0, ip
 3c8:	000003a4 	andeq	r0, r0, r4, lsr #7
 3cc:	000095a8 	andeq	r9, r0, r8, lsr #11
 3d0:	00000018 	andeq	r0, r0, r8, lsl r0
 3d4:	0000001c 	andeq	r0, r0, ip, lsl r0
 3d8:	000003a4 	andeq	r0, r0, r4, lsr #7
 3dc:	000095c0 	andeq	r9, r0, r0, asr #11
 3e0:	000000f0 	strdeq	r0, [r0], -r0	; <UNPREDICTABLE>
 3e4:	84100e42 	ldrhi	r0, [r0], #-3650	; 0xe42
 3e8:	86038504 	strhi	r8, [r3], -r4, lsl #10
 3ec:	42018e02 	andmi	r8, r1, #2, 28
 3f0:	0000280e 	andeq	r2, r0, lr, lsl #16
 3f4:	00000018 	andeq	r0, r0, r8, lsl r0
 3f8:	000003a4 	andeq	r0, r0, r4, lsr #7
 3fc:	000096b0 			; <UNDEFINED> instruction: 0x000096b0
 400:	000000a4 	andeq	r0, r0, r4, lsr #1
 404:	84080e42 	strhi	r0, [r8], #-3650	; 0xe42
 408:	42018e02 	andmi	r8, r1, #2, 28
 40c:	0000100e 	andeq	r1, r0, lr
 410:	00000018 	andeq	r0, r0, r8, lsl r0
 414:	000003a4 	andeq	r0, r0, r4, lsr #7
 418:	00009754 	andeq	r9, r0, r4, asr r7
 41c:	000000a0 	andeq	r0, r0, r0, lsr #1
 420:	840c0e42 	strhi	r0, [ip], #-3650	; 0xe42
 424:	8e028503 	cfsh32hi	mvfx8, mvfx2, #3
 428:	180e4201 	stmdane	lr, {r0, r9, lr}
 42c:	0000000c 	andeq	r0, r0, ip
 430:	000003a4 	andeq	r0, r0, r4, lsr #7
 434:	000097f4 	strdeq	r9, [r0], -r4
 438:	00000014 	andeq	r0, r0, r4, lsl r0
 43c:	0000001c 	andeq	r0, r0, ip, lsl r0
 440:	000003a4 	andeq	r0, r0, r4, lsr #7
 444:	00009808 	andeq	r9, r0, r8, lsl #16
 448:	00000378 	andeq	r0, r0, r8, ror r3
 44c:	84100e42 	ldrhi	r0, [r0], #-3650	; 0xe42
 450:	86038504 	strhi	r8, [r3], -r4, lsl #10
 454:	42018e02 	andmi	r8, r1, #2, 28
 458:	0000180e 	andeq	r1, r0, lr, lsl #16
 45c:	00000014 	andeq	r0, r0, r4, lsl r0
 460:	000003a4 	andeq	r0, r0, r4, lsr #7
 464:	00009b80 	andeq	r9, r0, r0, lsl #23
 468:	00000030 	andeq	r0, r0, r0, lsr r0
 46c:	83080e42 	movwhi	r0, #36418	; 0x8e42
 470:	00018e02 	andeq	r8, r1, r2, lsl #28
 474:	00000018 	andeq	r0, r0, r8, lsl r0
 478:	000003a4 	andeq	r0, r0, r4, lsr #7
 47c:	00009bb0 			; <UNDEFINED> instruction: 0x00009bb0
 480:	00000150 	andeq	r0, r0, r0, asr r1
 484:	84080e42 	strhi	r0, [r8], #-3650	; 0xe42
 488:	42018e02 	andmi	r8, r1, #2, 28
 48c:	0000100e 	andeq	r1, r0, lr
 490:	00000014 	andeq	r0, r0, r4, lsl r0
 494:	000003a4 	andeq	r0, r0, r4, lsr #7
 498:	00009d00 	andeq	r9, r0, r0, lsl #26
 49c:	0000008c 	andeq	r0, r0, ip, lsl #1
 4a0:	8e040e42 	cdphi	14, 0, cr0, cr4, cr2, {2}
 4a4:	100e4201 	andne	r4, lr, r1, lsl #4
 4a8:	00000014 	andeq	r0, r0, r4, lsl r0
 4ac:	000003a4 	andeq	r0, r0, r4, lsr #7
 4b0:	00009d8c 	andeq	r9, r0, ip, lsl #27
 4b4:	00000070 	andeq	r0, r0, r0, ror r0
 4b8:	8e040e42 	cdphi	14, 0, cr0, cr4, cr2, {2}
 4bc:	100e4201 	andne	r4, lr, r1, lsl #4
 4c0:	00000014 	andeq	r0, r0, r4, lsl r0
 4c4:	000003a4 	andeq	r0, r0, r4, lsr #7
 4c8:	00009dfc 	strdeq	r9, [r0], -ip
 4cc:	00000074 	andeq	r0, r0, r4, ror r0
 4d0:	8e040e42 	cdphi	14, 0, cr0, cr4, cr2, {2}
 4d4:	100e4201 	andne	r4, lr, r1, lsl #4
 4d8:	00000014 	andeq	r0, r0, r4, lsl r0
 4dc:	000003a4 	andeq	r0, r0, r4, lsr #7
 4e0:	00009e70 	andeq	r9, r0, r0, ror lr
 4e4:	00000070 	andeq	r0, r0, r0, ror r0
 4e8:	8e040e42 	cdphi	14, 0, cr0, cr4, cr2, {2}
 4ec:	100e4201 	andne	r4, lr, r1, lsl #4
 4f0:	00000014 	andeq	r0, r0, r4, lsl r0
 4f4:	000003a4 	andeq	r0, r0, r4, lsr #7
 4f8:	00009ee0 	andeq	r9, r0, r0, ror #29
 4fc:	00000024 	andeq	r0, r0, r4, lsr #32
 500:	83080e42 	movwhi	r0, #36418	; 0x8e42
 504:	00018e02 	andeq	r8, r1, r2, lsl #28
 508:	00000014 	andeq	r0, r0, r4, lsl r0
 50c:	000003a4 	andeq	r0, r0, r4, lsr #7
 510:	00009f04 	andeq	r9, r0, r4, lsl #30
 514:	00000018 	andeq	r0, r0, r8, lsl r0
 518:	83080e42 	movwhi	r0, #36418	; 0x8e42
 51c:	00018e02 	andeq	r8, r1, r2, lsl #28
 520:	00000014 	andeq	r0, r0, r4, lsl r0
 524:	000003a4 	andeq	r0, r0, r4, lsr #7
 528:	00009f1c 	andeq	r9, r0, ip, lsl pc
 52c:	00000060 	andeq	r0, r0, r0, rrx
 530:	8e040e42 	cdphi	14, 0, cr0, cr4, cr2, {2}
 534:	100e4201 	andne	r4, lr, r1, lsl #4
 538:	00000014 	andeq	r0, r0, r4, lsl r0
 53c:	000003a4 	andeq	r0, r0, r4, lsr #7
 540:	00009f7c 	andeq	r9, r0, ip, ror pc
 544:	00000060 	andeq	r0, r0, r0, rrx
 548:	8e040e42 	cdphi	14, 0, cr0, cr4, cr2, {2}
 54c:	100e4201 	andne	r4, lr, r1, lsl #4
 550:	0000000c 	andeq	r0, r0, ip
 554:	ffffffff 			; <UNDEFINED> instruction: 0xffffffff
 558:	7c020001 	stcvc	0, cr0, [r2], {1}
 55c:	000d0c0e 	andeq	r0, sp, lr, lsl #24
 560:	00000014 	andeq	r0, r0, r4, lsl r0
 564:	00000550 	andeq	r0, r0, r0, asr r5
 568:	0000a370 	andeq	sl, r0, r0, ror r3
 56c:	000000f0 	strdeq	r0, [r0], -r0	; <UNPREDICTABLE>
 570:	84040e42 	strhi	r0, [r4], #-3650	; 0xe42
 574:	00000001 	andeq	r0, r0, r1
 578:	0000000c 	andeq	r0, r0, ip
 57c:	ffffffff 			; <UNDEFINED> instruction: 0xffffffff
 580:	7c020001 	stcvc	0, cr0, [r2], {1}
 584:	000d0c0e 	andeq	r0, sp, lr, lsl #24
 588:	0000000c 	andeq	r0, r0, ip
 58c:	00000578 	andeq	r0, r0, r8, ror r5
 590:	0000a460 	andeq	sl, r0, r0, ror #8
 594:	00000020 	andeq	r0, r0, r0, lsr #32
 598:	0000000c 	andeq	r0, r0, ip
 59c:	ffffffff 			; <UNDEFINED> instruction: 0xffffffff
 5a0:	7c020001 	stcvc	0, cr0, [r2], {1}
 5a4:	000d0c0e 	andeq	r0, sp, lr, lsl #24
 5a8:	00000024 	andeq	r0, r0, r4, lsr #32
 5ac:	00000598 	muleq	r0, r8, r5
 5b0:	0000a480 	andeq	sl, r0, r0, lsl #9
 5b4:	00000058 	andeq	r0, r0, r8, asr r0
 5b8:	80100e42 	andshi	r0, r0, r2, asr #28
 5bc:	82038104 	andhi	r8, r3, #4, 2
 5c0:	42018302 	andmi	r8, r1, #134217728	; 0x8000000
 5c4:	07841c0e 	streq	r1, [r4, lr, lsl #24]
 5c8:	058e0685 	streq	r0, [lr, #1669]	; 0x685
 5cc:	00280e42 	eoreq	r0, r8, r2, asr #28
 5d0:	0000000c 	andeq	r0, r0, ip
 5d4:	ffffffff 			; <UNDEFINED> instruction: 0xffffffff
 5d8:	7c020001 	stcvc	0, cr0, [r2], {1}
 5dc:	000d0c0e 	andeq	r0, sp, lr, lsl #24
 5e0:	00000014 	andeq	r0, r0, r4, lsl r0
 5e4:	000005d0 	ldrdeq	r0, [r0], -r0	; <UNPREDICTABLE>
 5e8:	0000a4d8 	ldrdeq	sl, [r0], -r8
 5ec:	00000014 	andeq	r0, r0, r4, lsl r0
 5f0:	84080e42 	strhi	r0, [r8], #-3650	; 0xe42
 5f4:	00018e02 	andeq	r8, r1, r2, lsl #28
 5f8:	0000000c 	andeq	r0, r0, ip
 5fc:	000005d0 	ldrdeq	r0, [r0], -r0	; <UNPREDICTABLE>
 600:	0000a4ec 	andeq	sl, r0, ip, ror #9
 604:	00000018 	andeq	r0, r0, r8, lsl r0
 608:	0000000c 	andeq	r0, r0, ip
 60c:	000005d0 	ldrdeq	r0, [r0], -r0	; <UNPREDICTABLE>
 610:	0000a504 	andeq	sl, r0, r4, lsl #10
 614:	00000010 	andeq	r0, r0, r0, lsl r0
 618:	0000000c 	andeq	r0, r0, ip
 61c:	ffffffff 			; <UNDEFINED> instruction: 0xffffffff
 620:	7c020001 	stcvc	0, cr0, [r2], {1}
 624:	000d0c0e 	andeq	r0, sp, lr, lsl #24
 628:	00000018 	andeq	r0, r0, r8, lsl r0
 62c:	00000618 	andeq	r0, r0, r8, lsl r6
 630:	0000a514 	andeq	sl, r0, r4, lsl r5
 634:	00000034 	andeq	r0, r0, r4, lsr r0
 638:	83100e42 	tsthi	r0, #1056	; 0x420
 63c:	85038404 	strhi	r8, [r3, #-1028]	; 0x404
 640:	00018e02 	andeq	r8, r1, r2, lsl #28
 644:	0000000c 	andeq	r0, r0, ip
 648:	ffffffff 			; <UNDEFINED> instruction: 0xffffffff
 64c:	7c020001 	stcvc	0, cr0, [r2], {1}
 650:	000d0c0e 	andeq	r0, sp, lr, lsl #24
 654:	0000000c 	andeq	r0, r0, ip
 658:	00000644 	andeq	r0, r0, r4, asr #12
 65c:	0000a548 	andeq	sl, r0, r8, asr #10
 660:	00000014 	andeq	r0, r0, r4, lsl r0
 664:	0000000c 	andeq	r0, r0, ip
 668:	00000644 	andeq	r0, r0, r4, asr #12
 66c:	0000a55c 	andeq	sl, r0, ip, asr r5
 670:	0000002c 	andeq	r0, r0, ip, lsr #32
 674:	0000000c 	andeq	r0, r0, ip
 678:	00000644 	andeq	r0, r0, r4, asr #12
 67c:	0000a588 	andeq	sl, r0, r8, lsl #11
 680:	00000040 	andeq	r0, r0, r0, asr #32
 684:	00000020 	andeq	r0, r0, r0, lsr #32
 688:	00000644 	andeq	r0, r0, r4, asr #12
 68c:	0000a5c8 	andeq	sl, r0, r8, asr #11
 690:	000001bc 			; <UNDEFINED> instruction: 0x000001bc
 694:	84180e42 	ldrhi	r0, [r8], #-3650	; 0xe42
 698:	86058506 	strhi	r8, [r5], -r6, lsl #10
 69c:	88038704 	stmdahi	r3, {r2, r8, r9, sl, pc}
 6a0:	42018e02 	andmi	r8, r1, #2, 28
 6a4:	0000600e 	andeq	r6, r0, lr
 6a8:	00000014 	andeq	r0, r0, r4, lsl r0
 6ac:	00000644 	andeq	r0, r0, r4, asr #12
 6b0:	0000a784 	andeq	sl, r0, r4, lsl #15
 6b4:	00000068 	andeq	r0, r0, r8, rrx
 6b8:	8e040e42 	cdphi	14, 0, cr0, cr4, cr2, {2}
 6bc:	100e4201 	andne	r4, lr, r1, lsl #4
 6c0:	00000028 	andeq	r0, r0, r8, lsr #32
 6c4:	00000644 	andeq	r0, r0, r4, asr #12
 6c8:	0000a7ec 	andeq	sl, r0, ip, ror #15
 6cc:	000002d4 	ldrdeq	r0, [r0], -r4
 6d0:	84240e42 	strthi	r0, [r4], #-3650	; 0xe42
 6d4:	86088509 	strhi	r8, [r8], -r9, lsl #10
 6d8:	88068707 	stmdahi	r6, {r0, r1, r2, r8, r9, sl, pc}
 6dc:	8a048905 	bhi	122af8 <__bss_end__+0x116130>
 6e0:	8e028b03 	vmlahi.f64	d8, d2, d3
 6e4:	b80e4201 	stmdalt	lr, {r0, r9, lr}
 6e8:	00000001 	andeq	r0, r0, r1
 6ec:	0000000c 	andeq	r0, r0, ip
 6f0:	ffffffff 			; <UNDEFINED> instruction: 0xffffffff
 6f4:	7c020001 	stcvc	0, cr0, [r2], {1}
 6f8:	000d0c0e 	andeq	r0, sp, lr, lsl #24
 6fc:	00000014 	andeq	r0, r0, r4, lsl r0
 700:	000006ec 	andeq	r0, r0, ip, ror #13
 704:	0000aac0 	andeq	sl, r0, r0, asr #21
 708:	0000002c 	andeq	r0, r0, ip, lsr #32
 70c:	83080e42 	movwhi	r0, #36418	; 0x8e42
 710:	00018e02 	andeq	r8, r1, r2, lsl #28
 714:	0000000c 	andeq	r0, r0, ip
 718:	ffffffff 			; <UNDEFINED> instruction: 0xffffffff
 71c:	7c020001 	stcvc	0, cr0, [r2], {1}
 720:	000d0c0e 	andeq	r0, sp, lr, lsl #24
 724:	00000014 	andeq	r0, r0, r4, lsl r0
 728:	00000714 	andeq	r0, r0, r4, lsl r7
 72c:	0000aaec 	andeq	sl, r0, ip, ror #21
 730:	00000038 	andeq	r0, r0, r8, lsr r0
 734:	83080e42 	movwhi	r0, #36418	; 0x8e42
 738:	00018e02 	andeq	r8, r1, r2, lsl #28
 73c:	0000000c 	andeq	r0, r0, ip
 740:	ffffffff 			; <UNDEFINED> instruction: 0xffffffff
 744:	7c020001 	stcvc	0, cr0, [r2], {1}
 748:	000d0c0e 	andeq	r0, sp, lr, lsl #24
 74c:	00000014 	andeq	r0, r0, r4, lsl r0
 750:	0000073c 	andeq	r0, r0, ip, lsr r7
 754:	0000ab24 	andeq	sl, r0, r4, lsr #22
 758:	00000044 	andeq	r0, r0, r4, asr #32
 75c:	8e040e42 	cdphi	14, 0, cr0, cr4, cr2, {2}
 760:	100e4201 	andne	r4, lr, r1, lsl #4
 764:	0000000c 	andeq	r0, r0, ip
 768:	ffffffff 			; <UNDEFINED> instruction: 0xffffffff
 76c:	7c020001 	stcvc	0, cr0, [r2], {1}
 770:	000d0c0e 	andeq	r0, sp, lr, lsl #24
 774:	00000014 	andeq	r0, r0, r4, lsl r0
 778:	00000764 	andeq	r0, r0, r4, ror #14
 77c:	0000ab68 	andeq	sl, r0, r8, ror #22
 780:	00000044 	andeq	r0, r0, r4, asr #32
 784:	8e040e42 	cdphi	14, 0, cr0, cr4, cr2, {2}
 788:	100e4201 	andne	r4, lr, r1, lsl #4
 78c:	0000000c 	andeq	r0, r0, ip
 790:	ffffffff 			; <UNDEFINED> instruction: 0xffffffff
 794:	7c020001 	stcvc	0, cr0, [r2], {1}
 798:	000d0c0e 	andeq	r0, sp, lr, lsl #24
 79c:	00000014 	andeq	r0, r0, r4, lsl r0
 7a0:	0000078c 	andeq	r0, r0, ip, lsl #15
 7a4:	0000abac 	andeq	sl, r0, ip, lsr #23
 7a8:	00000044 	andeq	r0, r0, r4, asr #32
 7ac:	8e040e42 	cdphi	14, 0, cr0, cr4, cr2, {2}
 7b0:	100e4201 	andne	r4, lr, r1, lsl #4
 7b4:	0000000c 	andeq	r0, r0, ip
 7b8:	ffffffff 			; <UNDEFINED> instruction: 0xffffffff
 7bc:	7c020001 	stcvc	0, cr0, [r2], {1}
 7c0:	000d0c0e 	andeq	r0, sp, lr, lsl #24
 7c4:	00000014 	andeq	r0, r0, r4, lsl r0
 7c8:	000007b4 			; <UNDEFINED> instruction: 0x000007b4
 7cc:	0000abf0 	strdeq	sl, [r0], -r0
 7d0:	00000044 	andeq	r0, r0, r4, asr #32
 7d4:	8e040e42 	cdphi	14, 0, cr0, cr4, cr2, {2}
 7d8:	100e4201 	andne	r4, lr, r1, lsl #4
 7dc:	0000000c 	andeq	r0, r0, ip
 7e0:	ffffffff 			; <UNDEFINED> instruction: 0xffffffff
 7e4:	7c020001 	stcvc	0, cr0, [r2], {1}
 7e8:	000d0c0e 	andeq	r0, sp, lr, lsl #24
 7ec:	0000000c 	andeq	r0, r0, ip
 7f0:	000007dc 	ldrdeq	r0, [r0], -ip
 7f4:	0000ac34 	andeq	sl, r0, r4, lsr ip
 7f8:	00000004 	andeq	r0, r0, r4
 7fc:	0000000c 	andeq	r0, r0, ip
 800:	000007dc 	ldrdeq	r0, [r0], -ip
 804:	0000ac38 	andeq	sl, r0, r8, lsr ip
 808:	00000004 	andeq	r0, r0, r4
 80c:	0000000c 	andeq	r0, r0, ip
 810:	ffffffff 			; <UNDEFINED> instruction: 0xffffffff
 814:	7c020001 	stcvc	0, cr0, [r2], {1}
 818:	000d0c0e 	andeq	r0, sp, lr, lsl #24
 81c:	00000014 	andeq	r0, r0, r4, lsl r0
 820:	0000080c 	andeq	r0, r0, ip, lsl #16
 824:	0000ac3c 	andeq	sl, r0, ip, lsr ip
 828:	0000006c 	andeq	r0, r0, ip, rrx
 82c:	83080e42 	movwhi	r0, #36418	; 0x8e42
 830:	00018e02 	andeq	r8, r1, r2, lsl #28
 834:	0000000c 	andeq	r0, r0, ip
 838:	ffffffff 			; <UNDEFINED> instruction: 0xffffffff
 83c:	7c020001 	stcvc	0, cr0, [r2], {1}
 840:	000d0c0e 	andeq	r0, sp, lr, lsl #24
 844:	0000000c 	andeq	r0, r0, ip
 848:	00000834 	andeq	r0, r0, r4, lsr r8
 84c:	0000aca8 	andeq	sl, r0, r8, lsr #25
 850:	00000018 	andeq	r0, r0, r8, lsl r0
 854:	0000000c 	andeq	r0, r0, ip
 858:	00000834 	andeq	r0, r0, r4, lsr r8
 85c:	0000acc0 	andeq	sl, r0, r0, asr #25
 860:	00000014 	andeq	r0, r0, r4, lsl r0
 864:	00000014 	andeq	r0, r0, r4, lsl r0
 868:	00000834 	andeq	r0, r0, r4, lsr r8
 86c:	0000acd4 	ldrdeq	sl, [r0], -r4
 870:	00000048 	andeq	r0, r0, r8, asr #32
 874:	83080e42 	movwhi	r0, #36418	; 0x8e42
 878:	00018e02 	andeq	r8, r1, r2, lsl #28
 87c:	0000000c 	andeq	r0, r0, ip
 880:	ffffffff 			; <UNDEFINED> instruction: 0xffffffff
 884:	7c020001 	stcvc	0, cr0, [r2], {1}
 888:	000d0c0e 	andeq	r0, sp, lr, lsl #24
 88c:	0000000c 	andeq	r0, r0, ip
 890:	0000087c 	andeq	r0, r0, ip, ror r8
 894:	0000ad1c 	andeq	sl, r0, ip, lsl sp
 898:	0000001c 	andeq	r0, r0, ip, lsl r0
 89c:	00000014 	andeq	r0, r0, r4, lsl r0
 8a0:	0000087c 	andeq	r0, r0, ip, ror r8
 8a4:	0000ad38 	andeq	sl, r0, r8, lsr sp
 8a8:	00000014 	andeq	r0, r0, r4, lsl r0
 8ac:	83080e42 	movwhi	r0, #36418	; 0x8e42
 8b0:	00018e02 	andeq	r8, r1, r2, lsl #28
 8b4:	00000014 	andeq	r0, r0, r4, lsl r0
 8b8:	0000087c 	andeq	r0, r0, ip, ror r8
 8bc:	0000ad4c 	andeq	sl, r0, ip, asr #26
 8c0:	0000001c 	andeq	r0, r0, ip, lsl r0
 8c4:	84080e42 	strhi	r0, [r8], #-3650	; 0xe42
 8c8:	00018e02 	andeq	r8, r1, r2, lsl #28
 8cc:	00000018 	andeq	r0, r0, r8, lsl r0
 8d0:	0000087c 	andeq	r0, r0, ip, ror r8
 8d4:	0000ad68 	andeq	sl, r0, r8, ror #26
 8d8:	00000024 	andeq	r0, r0, r4, lsr #32
 8dc:	83100e42 	tsthi	r0, #1056	; 0x420
 8e0:	85038404 	strhi	r8, [r3, #-1028]	; 0x404
 8e4:	00018e02 	andeq	r8, r1, r2, lsl #28
 8e8:	00000014 	andeq	r0, r0, r4, lsl r0
 8ec:	0000087c 	andeq	r0, r0, ip, ror r8
 8f0:	0000ad8c 	andeq	sl, r0, ip, lsl #27
 8f4:	00000014 	andeq	r0, r0, r4, lsl r0
 8f8:	83080e42 	movwhi	r0, #36418	; 0x8e42
 8fc:	00018e02 	andeq	r8, r1, r2, lsl #28
 900:	00000014 	andeq	r0, r0, r4, lsl r0
 904:	0000087c 	andeq	r0, r0, ip, ror r8
 908:	0000ada0 	andeq	sl, r0, r0, lsr #27
 90c:	00000014 	andeq	r0, r0, r4, lsl r0
 910:	83080e42 	movwhi	r0, #36418	; 0x8e42
 914:	00018e02 	andeq	r8, r1, r2, lsl #28
 918:	0000000c 	andeq	r0, r0, ip
 91c:	ffffffff 			; <UNDEFINED> instruction: 0xffffffff
 920:	7c020001 	stcvc	0, cr0, [r2], {1}
 924:	000d0c0e 	andeq	r0, sp, lr, lsl #24
 928:	00000018 	andeq	r0, r0, r8, lsl r0
 92c:	00000918 	andeq	r0, r0, r8, lsl r9
 930:	0000ae18 	andeq	sl, r0, r8, lsl lr
 934:	00000020 	andeq	r0, r0, r0, lsr #32
 938:	84100e42 	ldrhi	r0, [r0], #-3650	; 0xe42
 93c:	86038504 	strhi	r8, [r3], -r4, lsl #10
 940:	00018e02 	andeq	r8, r1, r2, lsl #28
 944:	00000014 	andeq	r0, r0, r4, lsl r0
 948:	00000918 	andeq	r0, r0, r8, lsl r9
 94c:	0000ae38 	andeq	sl, r0, r8, lsr lr
 950:	000000b0 	strheq	r0, [r0], -r0	; <UNPREDICTABLE>
 954:	84080e42 	strhi	r0, [r8], #-3650	; 0xe42
 958:	00018e02 	andeq	r8, r1, r2, lsl #28
 95c:	00000014 	andeq	r0, r0, r4, lsl r0
 960:	00000918 	andeq	r0, r0, r8, lsl r9
 964:	0000aee8 	andeq	sl, r0, r8, ror #29
 968:	00000018 	andeq	r0, r0, r8, lsl r0
 96c:	84080e42 	strhi	r0, [r8], #-3650	; 0xe42
 970:	00018e02 	andeq	r8, r1, r2, lsl #28
 974:	00000014 	andeq	r0, r0, r4, lsl r0
 978:	00000918 	andeq	r0, r0, r8, lsl r9
 97c:	0000af00 	andeq	sl, r0, r0, lsl #30
 980:	00000020 	andeq	r0, r0, r0, lsr #32
 984:	84080e42 	strhi	r0, [r8], #-3650	; 0xe42
 988:	00018e02 	andeq	r8, r1, r2, lsl #28
 98c:	00000014 	andeq	r0, r0, r4, lsl r0
 990:	00000918 	andeq	r0, r0, r8, lsl r9
 994:	0000af20 	andeq	sl, r0, r0, lsr #30
 998:	00000030 	andeq	r0, r0, r0, lsr r0
 99c:	84080e42 	strhi	r0, [r8], #-3650	; 0xe42
 9a0:	00018e02 	andeq	r8, r1, r2, lsl #28
 9a4:	00000014 	andeq	r0, r0, r4, lsl r0
 9a8:	00000918 	andeq	r0, r0, r8, lsl r9
 9ac:	0000af50 	andeq	sl, r0, r0, asr pc
 9b0:	00000030 	andeq	r0, r0, r0, lsr r0
 9b4:	84080e42 	strhi	r0, [r8], #-3650	; 0xe42
 9b8:	00018e02 	andeq	r8, r1, r2, lsl #28
 9bc:	00000014 	andeq	r0, r0, r4, lsl r0
 9c0:	00000918 	andeq	r0, r0, r8, lsl r9
 9c4:	0000af80 	andeq	sl, r0, r0, lsl #31
 9c8:	00000010 	andeq	r0, r0, r0, lsl r0
 9cc:	84080e42 	strhi	r0, [r8], #-3650	; 0xe42
 9d0:	00018e02 	andeq	r8, r1, r2, lsl #28
 9d4:	0000000c 	andeq	r0, r0, ip
 9d8:	ffffffff 			; <UNDEFINED> instruction: 0xffffffff
 9dc:	7c020001 	stcvc	0, cr0, [r2], {1}
 9e0:	000d0c0e 	andeq	r0, sp, lr, lsl #24
 9e4:	00000018 	andeq	r0, r0, r8, lsl r0
 9e8:	000009d4 	ldrdeq	r0, [r0], -r4
 9ec:	0000af90 	muleq	r0, r0, pc	; <UNPREDICTABLE>
 9f0:	00000068 	andeq	r0, r0, r8, rrx
 9f4:	84100e4a 	ldrhi	r0, [r0], #-3658	; 0xe4a
 9f8:	86038504 	strhi	r8, [r3], -r4, lsl #10
 9fc:	00018e02 	andeq	r8, r1, r2, lsl #28
 a00:	00000014 	andeq	r0, r0, r4, lsl r0
 a04:	000009d4 	ldrdeq	r0, [r0], -r4
 a08:	0000aff8 	strdeq	sl, [r0], -r8
 a0c:	00000010 	andeq	r0, r0, r0, lsl r0
 a10:	84080e42 	strhi	r0, [r8], #-3650	; 0xe42
 a14:	00018e02 	andeq	r8, r1, r2, lsl #28
 a18:	00000014 	andeq	r0, r0, r4, lsl r0
 a1c:	000009d4 	ldrdeq	r0, [r0], -r4
 a20:	0000b008 	andeq	fp, r0, r8
 a24:	00000024 	andeq	r0, r0, r4, lsr #32
 a28:	84080e46 	strhi	r0, [r8], #-3654	; 0xe46
 a2c:	00018e02 	andeq	r8, r1, r2, lsl #28
 a30:	00000014 	andeq	r0, r0, r4, lsl r0
 a34:	000009d4 	ldrdeq	r0, [r0], -r4
 a38:	0000b02c 	andeq	fp, r0, ip, lsr #32
 a3c:	00000024 	andeq	r0, r0, r4, lsr #32
 a40:	84080e46 	strhi	r0, [r8], #-3654	; 0xe46
 a44:	00018e02 	andeq	r8, r1, r2, lsl #28
 a48:	00000014 	andeq	r0, r0, r4, lsl r0
 a4c:	000009d4 	ldrdeq	r0, [r0], -r4
 a50:	0000b050 	andeq	fp, r0, r0, asr r0
 a54:	00000010 	andeq	r0, r0, r0, lsl r0
 a58:	84080e42 	strhi	r0, [r8], #-3650	; 0xe42
 a5c:	00018e02 	andeq	r8, r1, r2, lsl #28
 a60:	00000014 	andeq	r0, r0, r4, lsl r0
 a64:	000009d4 	ldrdeq	r0, [r0], -r4
 a68:	0000b060 	andeq	fp, r0, r0, rrx
 a6c:	0000001c 	andeq	r0, r0, ip, lsl r0
 a70:	84080e42 	strhi	r0, [r8], #-3650	; 0xe42
 a74:	00018e02 	andeq	r8, r1, r2, lsl #28
 a78:	00000018 	andeq	r0, r0, r8, lsl r0
 a7c:	000009d4 	ldrdeq	r0, [r0], -r4
 a80:	0000b07c 	andeq	fp, r0, ip, ror r0
 a84:	00000034 	andeq	r0, r0, r4, lsr r0
 a88:	84080e46 	strhi	r0, [r8], #-3654	; 0xe46
 a8c:	4e018e02 	cdpmi	14, 0, cr8, cr1, cr2, {0}
 a90:	cec4000e 	cdpgt	0, 12, cr0, cr4, cr14, {0}
 a94:	0000000c 	andeq	r0, r0, ip
 a98:	ffffffff 			; <UNDEFINED> instruction: 0xffffffff
 a9c:	7c020001 	stcvc	0, cr0, [r2], {1}
 aa0:	000d0c0e 	andeq	r0, sp, lr, lsl #24
 aa4:	0000000c 	andeq	r0, r0, ip
 aa8:	00000a94 	muleq	r0, r4, sl
 aac:	0000b0b0 	strheq	fp, [r0], -r0
 ab0:	00000010 	andeq	r0, r0, r0, lsl r0
 ab4:	0000000c 	andeq	r0, r0, ip
 ab8:	00000a94 	muleq	r0, r4, sl
 abc:	0000b0c0 	andeq	fp, r0, r0, asr #1
 ac0:	0000000c 	andeq	r0, r0, ip
 ac4:	00000014 	andeq	r0, r0, r4, lsl r0
 ac8:	00000a94 	muleq	r0, r4, sl
 acc:	0000b0cc 	andeq	fp, r0, ip, asr #1
 ad0:	00000050 	andeq	r0, r0, r0, asr r0
 ad4:	84080e52 	strhi	r0, [r8], #-3666	; 0xe52
 ad8:	00018e02 	andeq	r8, r1, r2, lsl #28
 adc:	00000014 	andeq	r0, r0, r4, lsl r0
 ae0:	00000a94 	muleq	r0, r4, sl
 ae4:	0000b11c 	andeq	fp, r0, ip, lsl r1
 ae8:	00000064 	andeq	r0, r0, r4, rrx
 aec:	84080e42 	strhi	r0, [r8], #-3650	; 0xe42
 af0:	00018e02 	andeq	r8, r1, r2, lsl #28
 af4:	0000000c 	andeq	r0, r0, ip
 af8:	00000a94 	muleq	r0, r4, sl
 afc:	0000b180 	andeq	fp, r0, r0, lsl #3
 b00:	00000004 	andeq	r0, r0, r4
 b04:	00000014 	andeq	r0, r0, r4, lsl r0
 b08:	00000a94 	muleq	r0, r4, sl
 b0c:	0000b184 	andeq	fp, r0, r4, lsl #3
 b10:	0000000c 	andeq	r0, r0, ip
 b14:	84080e42 	strhi	r0, [r8], #-3650	; 0xe42
 b18:	00018e02 	andeq	r8, r1, r2, lsl #28
 b1c:	00000014 	andeq	r0, r0, r4, lsl r0
 b20:	00000a94 	muleq	r0, r4, sl
 b24:	0000b190 	muleq	r0, r0, r1
 b28:	0000008c 	andeq	r0, r0, ip, lsl #1
 b2c:	84080e42 	strhi	r0, [r8], #-3650	; 0xe42
 b30:	00018e02 	andeq	r8, r1, r2, lsl #28
 b34:	0000000c 	andeq	r0, r0, ip
 b38:	00000a94 	muleq	r0, r4, sl
 b3c:	0000b21c 	andeq	fp, r0, ip, lsl r2
 b40:	00000004 	andeq	r0, r0, r4
 b44:	0000000c 	andeq	r0, r0, ip
 b48:	00000a94 	muleq	r0, r4, sl
 b4c:	0000b220 	andeq	fp, r0, r0, lsr #4
 b50:	00000014 	andeq	r0, r0, r4, lsl r0
 b54:	0000000c 	andeq	r0, r0, ip
 b58:	00000a94 	muleq	r0, r4, sl
 b5c:	0000b234 	andeq	fp, r0, r4, lsr r2
 b60:	00000010 	andeq	r0, r0, r0, lsl r0

Disassembly of section .debug_ranges:

00000000 <.debug_ranges>:
   0:	000000e4 	andeq	r0, r0, r4, ror #1
   4:	00000108 	andeq	r0, r0, r8, lsl #2
   8:	0000010c 	andeq	r0, r0, ip, lsl #2
   c:	0000011c 	andeq	r0, r0, ip, lsl r1
	...
  18:	000000e4 	andeq	r0, r0, r4, ror #1
  1c:	00000100 	andeq	r0, r0, r0, lsl #2
  20:	0000010c 	andeq	r0, r0, ip, lsl #2
  24:	00000114 	andeq	r0, r0, r4, lsl r1
	...
  30:	00000434 	andeq	r0, r0, r4, lsr r4
  34:	00000458 	andeq	r0, r0, r8, asr r4
  38:	0000045c 	andeq	r0, r0, ip, asr r4
  3c:	00000464 	andeq	r0, r0, r4, ror #8
	...
  48:	0000aca8 	andeq	sl, r0, r8, lsr #25
  4c:	0000ad1c 	andeq	sl, r0, ip, lsl sp
	...
