
tests/part3-test1.elf:     file format elf32-littlearm


Disassembly of section .text:

00008000 <__code_start__>:
    8000:	e3a0d302 	mov	sp, #134217728	; 0x8000000
    8004:	e3a0b000 	mov	fp, #0
    8008:	eb0007aa 	bl	9eb8 <_cstart>
    800c:	eb000831 	bl	a0d8 <rpi_reboot>

00008010 <test_nullcheck>:
    8010:	e92d4008 	push	{r3, lr}
    8014:	eb000556 	bl	9574 <ck_mem_on>
    8018:	e3a00064 	mov	r0, #100	; 0x64
    801c:	eb00086e 	bl	a1dc <delay_ms>
    8020:	eb000574 	bl	95f8 <ck_mem_off>
    8024:	e3a00001 	mov	r0, #1
    8028:	eb00045c 	bl	91a0 <ck_mem_stats>
    802c:	e8bd8008 	pop	{r3, pc}

00008030 <test_nullcheck_end>:
    8030:	e12fff1e 	bx	lr

00008034 <test_check>:
    8034:	e92d4070 	push	{r4, r5, r6, lr}
    8038:	e59f6088 	ldr	r6, [pc, #136]	; 80c8 <test_check+0x94>
    803c:	e59f5088 	ldr	r5, [pc, #136]	; 80cc <test_check+0x98>
    8040:	e3a00050 	mov	r0, #80	; 0x50
    8044:	e1a01006 	mov	r1, r6
    8048:	e1a02005 	mov	r2, r5
    804c:	e3a0301d 	mov	r3, #29
    8050:	eb000116 	bl	84b0 <ckalloc>
    8054:	e1a04000 	mov	r4, r0
    8058:	eb000545 	bl	9574 <ck_mem_on>
    805c:	e1a00004 	mov	r0, r4
    8060:	e1a01006 	mov	r1, r6
    8064:	e1a02005 	mov	r2, r5
    8068:	e3a03020 	mov	r3, #32
    806c:	eb0000da 	bl	83dc <ckfree>
    8070:	e3a03001 	mov	r3, #1
    8074:	e5c43000 	strb	r3, [r4]
    8078:	e3a04000 	mov	r4, #0
    807c:	e59f504c 	ldr	r5, [pc, #76]	; 80d0 <test_check+0x9c>
    8080:	ea000002 	b	8090 <test_check+0x5c>
    8084:	e1a00004 	mov	r0, r4
    8088:	eb000875 	bl	a264 <dummy>
    808c:	e2844001 	add	r4, r4, #1
    8090:	e1540005 	cmp	r4, r5
    8094:	dafffffa 	ble	8084 <test_check+0x50>
    8098:	eb000556 	bl	95f8 <ck_mem_off>
    809c:	e3a00001 	mov	r0, #1
    80a0:	eb00043e 	bl	91a0 <ck_mem_stats>
    80a4:	e3500000 	cmp	r0, #0
    80a8:	18bd8070 	popne	{r4, r5, r6, pc}
    80ac:	eb00061d 	bl	9928 <rpi_reset_putc>
    80b0:	e59f001c 	ldr	r0, [pc, #28]	; 80d4 <test_check+0xa0>
    80b4:	e59f100c 	ldr	r1, [pc, #12]	; 80c8 <test_check+0x94>
    80b8:	e59f200c 	ldr	r2, [pc, #12]	; 80cc <test_check+0x98>
    80bc:	e3a03027 	mov	r3, #39	; 0x27
    80c0:	eb0005fd 	bl	98bc <printk>
    80c4:	eb000771 	bl	9e90 <clean_reboot>
    80c8:	0000a71c 	andeq	sl, r0, ip, lsl r7
    80cc:	0000a7a8 	andeq	sl, r0, r8, lsr #15
    80d0:	000003e7 	andeq	r0, r0, r7, ror #7
    80d4:	0000a730 	andeq	sl, r0, r0, lsr r7

000080d8 <test_check_end>:
    80d8:	e12fff1e 	bx	lr

000080dc <notmain>:
    80dc:	e92d4008 	push	{r3, lr}
    80e0:	e59f0080 	ldr	r0, [pc, #128]	; 8168 <notmain+0x8c>
    80e4:	eb0005f4 	bl	98bc <printk>
    80e8:	e3a00601 	mov	r0, #1048576	; 0x100000
    80ec:	eb00090a 	bl	a51c <kmalloc_init_set_start>
    80f0:	e3a00601 	mov	r0, #1048576	; 0x100000
    80f4:	eb00091c 	bl	a56c <kmalloc>
    80f8:	e3a01601 	mov	r1, #1048576	; 0x100000
    80fc:	eb000025 	bl	8198 <ck_init>
    8100:	eb0004b0 	bl	93c8 <ck_mem_init>
    8104:	e59f0060 	ldr	r0, [pc, #96]	; 816c <notmain+0x90>
    8108:	e59f1060 	ldr	r1, [pc, #96]	; 8170 <notmain+0x94>
    810c:	eb000504 	bl	9524 <ck_mem_set_range>
    8110:	ebffffbe 	bl	8010 <test_nullcheck>
    8114:	e59f0058 	ldr	r0, [pc, #88]	; 8174 <notmain+0x98>
    8118:	e59f1058 	ldr	r1, [pc, #88]	; 8178 <notmain+0x9c>
    811c:	eb000500 	bl	9524 <ck_mem_set_range>
    8120:	ebffffc3 	bl	8034 <test_check>
    8124:	e59f0050 	ldr	r0, [pc, #80]	; 817c <notmain+0xa0>
    8128:	eb0005e3 	bl	98bc <printk>
    812c:	eb00016f 	bl	86f0 <ck_heap_errors>
    8130:	e3500000 	cmp	r0, #0
    8134:	1a000006 	bne	8154 <notmain+0x78>
    8138:	eb0005fa 	bl	9928 <rpi_reset_putc>
    813c:	e59f003c 	ldr	r0, [pc, #60]	; 8180 <notmain+0xa4>
    8140:	e59f103c 	ldr	r1, [pc, #60]	; 8184 <notmain+0xa8>
    8144:	e59f203c 	ldr	r2, [pc, #60]	; 8188 <notmain+0xac>
    8148:	e3a0303d 	mov	r3, #61	; 0x3d
    814c:	eb0005da 	bl	98bc <printk>
    8150:	eb00074e 	bl	9e90 <clean_reboot>
    8154:	e59f0030 	ldr	r0, [pc, #48]	; 818c <notmain+0xb0>
    8158:	eb0005d7 	bl	98bc <printk>
    815c:	e59f002c 	ldr	r0, [pc, #44]	; 8190 <notmain+0xb4>
    8160:	eb0005d5 	bl	98bc <printk>
    8164:	e8bd8008 	pop	{r3, pc}
    8168:	0000a758 	andeq	sl, r0, r8, asr r7
    816c:	00008010 	andeq	r8, r0, r0, lsl r0
    8170:	00008030 	andeq	r8, r0, r0, lsr r0
    8174:	00008034 	andeq	r8, r0, r4, lsr r0
    8178:	000080d8 	ldrdeq	r8, [r0], -r8	; <UNPREDICTABLE>
    817c:	0000a760 	andeq	sl, r0, r0, ror #14
    8180:	0000a778 	andeq	sl, r0, r8, ror r7
    8184:	0000a71c 	andeq	sl, r0, ip, lsl r7
    8188:	0000a7b4 			; <UNDEFINED> instruction: 0x0000a7b4
    818c:	0000a7a0 	andeq	sl, r0, r0, lsr #15
    8190:	0000adac 	andeq	sl, r0, ip, lsr #27

00008194 <ckalloc_start>:
    8194:	e12fff1e 	bx	lr

00008198 <ck_init>:
    8198:	e92d4038 	push	{r3, r4, r5, lr}
    819c:	e1a04000 	mov	r4, r0
    81a0:	e1a05001 	mov	r5, r1
    81a4:	e59f306c 	ldr	r3, [pc, #108]	; 8218 <ck_init+0x80>
    81a8:	e5933000 	ldr	r3, [r3]
    81ac:	e3130007 	tst	r3, #7
    81b0:	0a000006 	beq	81d0 <ck_init+0x38>
    81b4:	eb0005db 	bl	9928 <rpi_reset_putc>
    81b8:	e59f005c 	ldr	r0, [pc, #92]	; 821c <ck_init+0x84>
    81bc:	e59f105c 	ldr	r1, [pc, #92]	; 8220 <ck_init+0x88>
    81c0:	e59f205c 	ldr	r2, [pc, #92]	; 8224 <ck_init+0x8c>
    81c4:	e3a03012 	mov	r3, #18
    81c8:	eb0005bb 	bl	98bc <printk>
    81cc:	eb00072f 	bl	9e90 <clean_reboot>
    81d0:	e59f0050 	ldr	r0, [pc, #80]	; 8228 <ck_init+0x90>
    81d4:	e3a01038 	mov	r1, #56	; 0x38
    81d8:	e3a02080 	mov	r2, #128	; 0x80
    81dc:	eb0005b6 	bl	98bc <printk>
    81e0:	e59f3030 	ldr	r3, [pc, #48]	; 8218 <ck_init+0x80>
    81e4:	e5834000 	str	r4, [r3]
    81e8:	e59f303c 	ldr	r3, [pc, #60]	; 822c <ck_init+0x94>
    81ec:	e5834000 	str	r4, [r3]
    81f0:	e0845005 	add	r5, r4, r5
    81f4:	e59f3034 	ldr	r3, [pc, #52]	; 8230 <ck_init+0x98>
    81f8:	e5835000 	str	r5, [r3]
    81fc:	e59f3030 	ldr	r3, [pc, #48]	; 8234 <ck_init+0x9c>
    8200:	e5834000 	str	r4, [r3]
    8204:	e5834004 	str	r4, [r3, #4]
    8208:	e3a02000 	mov	r2, #0
    820c:	e5832008 	str	r2, [r3, #8]
    8210:	e583200c 	str	r2, [r3, #12]
    8214:	e8bd8038 	pop	{r3, r4, r5, pc}
    8218:	0000b714 	andeq	fp, r0, r4, lsl r7
    821c:	0000a7bc 			; <UNDEFINED> instruction: 0x0000a7bc
    8220:	0000a7e4 	andeq	sl, r0, r4, ror #15
    8224:	0000ab58 	andeq	sl, r0, r8, asr fp
    8228:	0000a7f0 	strdeq	sl, [r0], -r0
    822c:	0000b70c 	andeq	fp, r0, ip, lsl #14
    8230:	0000b710 	andeq	fp, r0, r0, lsl r7
    8234:	0000b718 	andeq	fp, r0, r8, lsl r7

00008238 <hdr_cksum>:
    8238:	e92d41f0 	push	{r4, r5, r6, r7, r8, lr}
    823c:	e1a04000 	mov	r4, r0
    8240:	e590800c 	ldr	r8, [r0, #12]
    8244:	e5907028 	ldr	r7, [r0, #40]	; 0x28
    8248:	e590602c 	ldr	r6, [r0, #44]	; 0x2c
    824c:	e1d053b4 	ldrh	r5, [r0, #52]	; 0x34
    8250:	e3a03000 	mov	r3, #0
    8254:	e580300c 	str	r3, [r0, #12]
    8258:	e5803028 	str	r3, [r0, #40]	; 0x28
    825c:	e580302c 	str	r3, [r0, #44]	; 0x2c
    8260:	e1c033b4 	strh	r3, [r0, #52]	; 0x34
    8264:	e3a01038 	mov	r1, #56	; 0x38
    8268:	eb00054f 	bl	97ac <fast_hash>
    826c:	e584800c 	str	r8, [r4, #12]
    8270:	e5847028 	str	r7, [r4, #40]	; 0x28
    8274:	e584602c 	str	r6, [r4, #44]	; 0x2c
    8278:	e1c453b4 	strh	r5, [r4, #52]	; 0x34
    827c:	e8bd81f0 	pop	{r4, r5, r6, r7, r8, pc}

00008280 <check_hdr>:
    8280:	e92d4010 	push	{r4, lr}
    8284:	e1a04000 	mov	r4, r0
    8288:	ebffffea 	bl	8238 <hdr_cksum>
    828c:	e594300c 	ldr	r3, [r4, #12]
    8290:	e1530000 	cmp	r3, r0
    8294:	0a000006 	beq	82b4 <check_hdr+0x34>
    8298:	eb0005a2 	bl	9928 <rpi_reset_putc>
    829c:	e59f0044 	ldr	r0, [pc, #68]	; 82e8 <check_hdr+0x68>
    82a0:	e59f1044 	ldr	r1, [pc, #68]	; 82ec <check_hdr+0x6c>
    82a4:	e59f2044 	ldr	r2, [pc, #68]	; 82f0 <check_hdr+0x70>
    82a8:	e3a03034 	mov	r3, #52	; 0x34
    82ac:	eb000582 	bl	98bc <printk>
    82b0:	eb0006f6 	bl	9e90 <clean_reboot>
    82b4:	e5943008 	ldr	r3, [r4, #8]
    82b8:	e243300b 	sub	r3, r3, #11
    82bc:	e3530001 	cmp	r3, #1
    82c0:	9a000006 	bls	82e0 <check_hdr+0x60>
    82c4:	eb000597 	bl	9928 <rpi_reset_putc>
    82c8:	e59f0024 	ldr	r0, [pc, #36]	; 82f4 <check_hdr+0x74>
    82cc:	e59f1018 	ldr	r1, [pc, #24]	; 82ec <check_hdr+0x6c>
    82d0:	e59f2018 	ldr	r2, [pc, #24]	; 82f0 <check_hdr+0x70>
    82d4:	e3a03035 	mov	r3, #53	; 0x35
    82d8:	eb000577 	bl	98bc <printk>
    82dc:	eb0006eb 	bl	9e90 <clean_reboot>
    82e0:	e3a00001 	mov	r0, #1
    82e4:	e8bd8010 	pop	{r4, pc}
    82e8:	0000a80c 	andeq	sl, r0, ip, lsl #16
    82ec:	0000a7e4 	andeq	sl, r0, r4, ror #15
    82f0:	0000ab68 	andeq	sl, r0, r8, ror #22
    82f4:	0000a838 	andeq	sl, r0, r8, lsr r8

000082f8 <check_mem>:
    82f8:	e92d4008 	push	{r3, lr}
    82fc:	e3a03000 	mov	r3, #0
    8300:	ea00000c 	b	8338 <check_mem+0x40>
    8304:	e7d1c003 	ldrb	ip, [r1, r3]
    8308:	e35c00fe 	cmp	ip, #254	; 0xfe
    830c:	0a000008 	beq	8334 <check_mem+0x3c>
    8310:	e59f3038 	ldr	r3, [pc, #56]	; 8350 <check_mem+0x58>
    8314:	e5933000 	ldr	r3, [r3]
    8318:	e3530000 	cmp	r3, #0
    831c:	0a000009 	beq	8348 <check_mem+0x50>
    8320:	e59f002c 	ldr	r0, [pc, #44]	; 8354 <check_mem+0x5c>
    8324:	e1a0100c 	mov	r1, ip
    8328:	eb000563 	bl	98bc <printk>
    832c:	e3a00000 	mov	r0, #0
    8330:	e8bd8008 	pop	{r3, pc}
    8334:	e2833001 	add	r3, r3, #1
    8338:	e1530002 	cmp	r3, r2
    833c:	3afffff0 	bcc	8304 <check_mem+0xc>
    8340:	e3a00001 	mov	r0, #1
    8344:	e8bd8008 	pop	{r3, pc}
    8348:	e3a00000 	mov	r0, #0
    834c:	e8bd8008 	pop	{r3, pc}
    8350:	0000b708 	andeq	fp, r0, r8, lsl #14
    8354:	0000a874 	andeq	sl, r0, r4, ror r8

00008358 <mark_mem>:
    8358:	e92d4008 	push	{r3, lr}
    835c:	e1a02001 	mov	r2, r1
    8360:	e3a010fe 	mov	r1, #254	; 0xfe
    8364:	eb00054c 	bl	989c <memset>
    8368:	e8bd8008 	pop	{r3, pc}

0000836c <check_block>:
    836c:	e92d4010 	push	{r4, lr}
    8370:	e1a04000 	mov	r4, r0
    8374:	ebffffc1 	bl	8280 <check_hdr>
    8378:	e3500000 	cmp	r0, #0
    837c:	0a000010 	beq	83c4 <check_block+0x58>
    8380:	e1a00004 	mov	r0, r4
    8384:	e2841038 	add	r1, r4, #56	; 0x38
    8388:	e3a02080 	mov	r2, #128	; 0x80
    838c:	ebffffd9 	bl	82f8 <check_mem>
    8390:	e3500000 	cmp	r0, #0
    8394:	0a00000c 	beq	83cc <check_block+0x60>
    8398:	e28410b8 	add	r1, r4, #184	; 0xb8
    839c:	e5943000 	ldr	r3, [r4]
    83a0:	e5942004 	ldr	r2, [r4, #4]
    83a4:	e1a00004 	mov	r0, r4
    83a8:	e0811003 	add	r1, r1, r3
    83ac:	e2822080 	add	r2, r2, #128	; 0x80
    83b0:	ebffffd0 	bl	82f8 <check_mem>
    83b4:	e3500000 	cmp	r0, #0
    83b8:	0a000005 	beq	83d4 <check_block+0x68>
    83bc:	e3a00001 	mov	r0, #1
    83c0:	e8bd8010 	pop	{r4, pc}
    83c4:	e3a00000 	mov	r0, #0
    83c8:	e8bd8010 	pop	{r4, pc}
    83cc:	e3a00000 	mov	r0, #0
    83d0:	e8bd8010 	pop	{r4, pc}
    83d4:	e3a00000 	mov	r0, #0
    83d8:	e8bd8010 	pop	{r4, pc}

000083dc <ckfree>:
    83dc:	e92d41f0 	push	{r4, r5, r6, r7, r8, lr}
    83e0:	e1a04000 	mov	r4, r0
    83e4:	e1a08001 	mov	r8, r1
    83e8:	e1a07002 	mov	r7, r2
    83ec:	e1a06003 	mov	r6, r3
    83f0:	e59f009c 	ldr	r0, [pc, #156]	; 8494 <ckfree+0xb8>
    83f4:	e5900000 	ldr	r0, [r0]
    83f8:	e3500000 	cmp	r0, #0
    83fc:	1a000006 	bne	841c <ckfree+0x40>
    8400:	eb000548 	bl	9928 <rpi_reset_putc>
    8404:	e59f008c 	ldr	r0, [pc, #140]	; 8498 <ckfree+0xbc>
    8408:	e59f108c 	ldr	r1, [pc, #140]	; 849c <ckfree+0xc0>
    840c:	e59f208c 	ldr	r2, [pc, #140]	; 84a0 <ckfree+0xc4>
    8410:	e3a03061 	mov	r3, #97	; 0x61
    8414:	eb000528 	bl	98bc <printk>
    8418:	eb00069c 	bl	9e90 <clean_reboot>
    841c:	e59f0080 	ldr	r0, [pc, #128]	; 84a4 <ckfree+0xc8>
    8420:	eb000525 	bl	98bc <printk>
    8424:	e59f007c 	ldr	r0, [pc, #124]	; 84a8 <ckfree+0xcc>
    8428:	e1a01004 	mov	r1, r4
    842c:	eb000522 	bl	98bc <printk>
    8430:	e24450b8 	sub	r5, r4, #184	; 0xb8
    8434:	e1a00005 	mov	r0, r5
    8438:	ebffffcb 	bl	836c <check_block>
    843c:	e3500000 	cmp	r0, #0
    8440:	08bd81f0 	popeq	{r4, r5, r6, r7, r8, pc}
    8444:	e51430b0 	ldr	r3, [r4, #-176]	; 0xb0
    8448:	e353000c 	cmp	r3, #12
    844c:	08bd81f0 	popeq	{r4, r5, r6, r7, r8, pc}
    8450:	e3a0300c 	mov	r3, #12
    8454:	e50430b0 	str	r3, [r4, #-176]	; 0xb0
    8458:	e1a00004 	mov	r0, r4
    845c:	e51410b8 	ldr	r1, [r4, #-184]	; 0xb8
    8460:	ebffffbc 	bl	8358 <mark_mem>
    8464:	e504809c 	str	r8, [r4, #-156]	; 0x9c
    8468:	e5047098 	str	r7, [r4, #-152]	; 0x98
    846c:	e5046094 	str	r6, [r4, #-148]	; 0x94
    8470:	e51420b8 	ldr	r2, [r4, #-184]	; 0xb8
    8474:	e59f3030 	ldr	r3, [pc, #48]	; 84ac <ckfree+0xd0>
    8478:	e5931008 	ldr	r1, [r3, #8]
    847c:	e0812002 	add	r2, r1, r2
    8480:	e5832008 	str	r2, [r3, #8]
    8484:	e1a00005 	mov	r0, r5
    8488:	ebffff6a 	bl	8238 <hdr_cksum>
    848c:	e50400ac 	str	r0, [r4, #-172]	; 0xac
    8490:	e8bd81f0 	pop	{r4, r5, r6, r7, r8, pc}
    8494:	0000b70c 	andeq	fp, r0, ip, lsl #14
    8498:	0000a880 	andeq	sl, r0, r0, lsl #17
    849c:	0000a7e4 	andeq	sl, r0, r4, ror #15
    84a0:	0000ab60 	andeq	sl, r0, r0, ror #22
    84a4:	0000a7a0 	andeq	sl, r0, r0, lsr #15
    84a8:	0000a8b4 			; <UNDEFINED> instruction: 0x0000a8b4
    84ac:	0000b718 	andeq	fp, r0, r8, lsl r7

000084b0 <ckalloc>:
    84b0:	e92d43f0 	push	{r4, r5, r6, r7, r8, r9, lr}
    84b4:	e24dd00c 	sub	sp, sp, #12
    84b8:	e1a05000 	mov	r5, r0
    84bc:	e1a09001 	mov	r9, r1
    84c0:	e1a08002 	mov	r8, r2
    84c4:	e1a07003 	mov	r7, r3
    84c8:	e59f31e0 	ldr	r3, [pc, #480]	; 86b0 <ckalloc+0x200>
    84cc:	e5933000 	ldr	r3, [r3]
    84d0:	e3530000 	cmp	r3, #0
    84d4:	1a000006 	bne	84f4 <ckalloc+0x44>
    84d8:	eb000512 	bl	9928 <rpi_reset_putc>
    84dc:	e59f01d0 	ldr	r0, [pc, #464]	; 86b4 <ckalloc+0x204>
    84e0:	e59f11d0 	ldr	r1, [pc, #464]	; 86b8 <ckalloc+0x208>
    84e4:	e59f21d0 	ldr	r2, [pc, #464]	; 86bc <ckalloc+0x20c>
    84e8:	e3a0307f 	mov	r3, #127	; 0x7f
    84ec:	eb0004f2 	bl	98bc <printk>
    84f0:	eb000666 	bl	9e90 <clean_reboot>
    84f4:	e59f01c4 	ldr	r0, [pc, #452]	; 86c0 <ckalloc+0x210>
    84f8:	eb0004ef 	bl	98bc <printk>
    84fc:	e59f01c0 	ldr	r0, [pc, #448]	; 86c4 <ckalloc+0x214>
    8500:	e1a01005 	mov	r1, r5
    8504:	eb0004ec 	bl	98bc <printk>
    8508:	e2853007 	add	r3, r5, #7
    850c:	e3c33007 	bic	r3, r3, #7
    8510:	e2836f4e 	add	r6, r3, #312	; 0x138
    8514:	e1560005 	cmp	r6, r5
    8518:	2a00000c 	bcs	8550 <ckalloc+0xa0>
    851c:	e59f01a4 	ldr	r0, [pc, #420]	; 86c8 <ckalloc+0x218>
    8520:	eb0004e5 	bl	98bc <printk>
    8524:	e59f01a0 	ldr	r0, [pc, #416]	; 86cc <ckalloc+0x21c>
    8528:	e1a01005 	mov	r1, r5
    852c:	eb0004e2 	bl	98bc <printk>
    8530:	eb0004fc 	bl	9928 <rpi_reset_putc>
    8534:	e58d5000 	str	r5, [sp]
    8538:	e59f0190 	ldr	r0, [pc, #400]	; 86d0 <ckalloc+0x220>
    853c:	e59f1174 	ldr	r1, [pc, #372]	; 86b8 <ckalloc+0x208>
    8540:	e59f2174 	ldr	r2, [pc, #372]	; 86bc <ckalloc+0x20c>
    8544:	e3a03087 	mov	r3, #135	; 0x87
    8548:	eb0004db 	bl	98bc <printk>
    854c:	eb00064f 	bl	9e90 <clean_reboot>
    8550:	e59f2158 	ldr	r2, [pc, #344]	; 86b0 <ckalloc+0x200>
    8554:	e5924000 	ldr	r4, [r2]
    8558:	e0840006 	add	r0, r4, r6
    855c:	e59f2170 	ldr	r2, [pc, #368]	; 86d4 <ckalloc+0x224>
    8560:	e5922000 	ldr	r2, [r2]
    8564:	e1500002 	cmp	r0, r2
    8568:	3a000015 	bcc	85c4 <ckalloc+0x114>
    856c:	e59f0154 	ldr	r0, [pc, #340]	; 86c8 <ckalloc+0x218>
    8570:	eb0004d1 	bl	98bc <printk>
    8574:	e59f5158 	ldr	r5, [pc, #344]	; 86d4 <ckalloc+0x224>
    8578:	e59f4130 	ldr	r4, [pc, #304]	; 86b0 <ckalloc+0x200>
    857c:	e5951000 	ldr	r1, [r5]
    8580:	e5943000 	ldr	r3, [r4]
    8584:	e59f014c 	ldr	r0, [pc, #332]	; 86d8 <ckalloc+0x228>
    8588:	e0631001 	rsb	r1, r3, r1
    858c:	e1a02006 	mov	r2, r6
    8590:	eb0004c9 	bl	98bc <printk>
    8594:	eb0004e3 	bl	9928 <rpi_reset_putc>
    8598:	e5952000 	ldr	r2, [r5]
    859c:	e5943000 	ldr	r3, [r4]
    85a0:	e0633002 	rsb	r3, r3, r2
    85a4:	e58d3000 	str	r3, [sp]
    85a8:	e58d6004 	str	r6, [sp, #4]
    85ac:	e59f0128 	ldr	r0, [pc, #296]	; 86dc <ckalloc+0x22c>
    85b0:	e59f1100 	ldr	r1, [pc, #256]	; 86b8 <ckalloc+0x208>
    85b4:	e59f2100 	ldr	r2, [pc, #256]	; 86bc <ckalloc+0x20c>
    85b8:	e3a0308b 	mov	r3, #139	; 0x8b
    85bc:	eb0004be 	bl	98bc <printk>
    85c0:	eb000632 	bl	9e90 <clean_reboot>
    85c4:	e59f20e4 	ldr	r2, [pc, #228]	; 86b0 <ckalloc+0x200>
    85c8:	e5820000 	str	r0, [r2]
    85cc:	e5845000 	str	r5, [r4]
    85d0:	e0653003 	rsb	r3, r5, r3
    85d4:	e5843004 	str	r3, [r4, #4]
    85d8:	e3a0300b 	mov	r3, #11
    85dc:	e5843008 	str	r3, [r4, #8]
    85e0:	e59fc0f8 	ldr	ip, [pc, #248]	; 86e0 <ckalloc+0x230>
    85e4:	e59c300c 	ldr	r3, [ip, #12]
    85e8:	e0833005 	add	r3, r3, r5
    85ec:	e58c300c 	str	r3, [ip, #12]
    85f0:	e58c0004 	str	r0, [ip, #4]
    85f4:	e5849010 	str	r9, [r4, #16]
    85f8:	e5848014 	str	r8, [r4, #20]
    85fc:	e5847018 	str	r7, [r4, #24]
    8600:	e1a00004 	mov	r0, r4
    8604:	ebffff0b 	bl	8238 <hdr_cksum>
    8608:	e584000c 	str	r0, [r4, #12]
    860c:	e2840038 	add	r0, r4, #56	; 0x38
    8610:	e3a01080 	mov	r1, #128	; 0x80
    8614:	ebffff4f 	bl	8358 <mark_mem>
    8618:	e28470b8 	add	r7, r4, #184	; 0xb8
    861c:	e5940000 	ldr	r0, [r4]
    8620:	e5941004 	ldr	r1, [r4, #4]
    8624:	e0870000 	add	r0, r7, r0
    8628:	e2811080 	add	r1, r1, #128	; 0x80
    862c:	ebffff49 	bl	8358 <mark_mem>
    8630:	e1a00004 	mov	r0, r4
    8634:	ebffff11 	bl	8280 <check_hdr>
    8638:	e3500000 	cmp	r0, #0
    863c:	1a000006 	bne	865c <ckalloc+0x1ac>
    8640:	eb0004b8 	bl	9928 <rpi_reset_putc>
    8644:	e59f0098 	ldr	r0, [pc, #152]	; 86e4 <ckalloc+0x234>
    8648:	e59f1068 	ldr	r1, [pc, #104]	; 86b8 <ckalloc+0x208>
    864c:	e59f2068 	ldr	r2, [pc, #104]	; 86bc <ckalloc+0x20c>
    8650:	e3a030a2 	mov	r3, #162	; 0xa2
    8654:	eb000498 	bl	98bc <printk>
    8658:	eb00060c 	bl	9e90 <clean_reboot>
    865c:	e1a00004 	mov	r0, r4
    8660:	ebffff41 	bl	836c <check_block>
    8664:	e3500000 	cmp	r0, #0
    8668:	1a000006 	bne	8688 <ckalloc+0x1d8>
    866c:	eb0004ad 	bl	9928 <rpi_reset_putc>
    8670:	e59f0070 	ldr	r0, [pc, #112]	; 86e8 <ckalloc+0x238>
    8674:	e59f103c 	ldr	r1, [pc, #60]	; 86b8 <ckalloc+0x208>
    8678:	e59f203c 	ldr	r2, [pc, #60]	; 86bc <ckalloc+0x20c>
    867c:	e3a030a3 	mov	r3, #163	; 0xa3
    8680:	eb00048d 	bl	98bc <printk>
    8684:	eb000601 	bl	9e90 <clean_reboot>
    8688:	e59f0030 	ldr	r0, [pc, #48]	; 86c0 <ckalloc+0x210>
    868c:	eb00048a 	bl	98bc <printk>
    8690:	e59f0054 	ldr	r0, [pc, #84]	; 86ec <ckalloc+0x23c>
    8694:	e1a01005 	mov	r1, r5
    8698:	e1a02006 	mov	r2, r6
    869c:	e1a03007 	mov	r3, r7
    86a0:	eb000485 	bl	98bc <printk>
    86a4:	e1a00007 	mov	r0, r7
    86a8:	e28dd00c 	add	sp, sp, #12
    86ac:	e8bd83f0 	pop	{r4, r5, r6, r7, r8, r9, pc}
    86b0:	0000b70c 	andeq	fp, r0, ip, lsl #14
    86b4:	0000a880 	andeq	sl, r0, r0, lsl #17
    86b8:	0000a7e4 	andeq	sl, r0, r4, ror #15
    86bc:	0000ab74 	andeq	sl, r0, r4, ror fp
    86c0:	0000a7a0 	andeq	sl, r0, r0, lsr #15
    86c4:	0000a8c0 	andeq	sl, r0, r0, asr #17
    86c8:	0000a8d8 	ldrdeq	sl, [r0], -r8
    86cc:	0000a8e4 	andeq	sl, r0, r4, ror #17
    86d0:	0000a90c 	andeq	sl, r0, ip, lsl #18
    86d4:	0000b710 	andeq	fp, r0, r0, lsl r7
    86d8:	0000a944 	andeq	sl, r0, r4, asr #18
    86dc:	0000a970 	andeq	sl, r0, r0, ror r9
    86e0:	0000b718 	andeq	fp, r0, r8, lsl r7
    86e4:	0000a9ac 	andeq	sl, r0, ip, lsr #19
    86e8:	0000a9cc 	andeq	sl, r0, ip, asr #19
    86ec:	0000a9ec 	andeq	sl, r0, ip, ror #19

000086f0 <ck_heap_errors>:
    86f0:	e92d40f8 	push	{r3, r4, r5, r6, r7, lr}
    86f4:	e59f3164 	ldr	r3, [pc, #356]	; 8860 <ck_heap_errors+0x170>
    86f8:	e5933000 	ldr	r3, [r3]
    86fc:	e59f2160 	ldr	r2, [pc, #352]	; 8864 <ck_heap_errors+0x174>
    8700:	e5921000 	ldr	r1, [r2]
    8704:	e0615003 	rsb	r5, r1, r3
    8708:	e59f2158 	ldr	r2, [pc, #344]	; 8868 <ck_heap_errors+0x178>
    870c:	e5922000 	ldr	r2, [r2]
    8710:	e0634002 	rsb	r4, r3, r2
    8714:	e59f0150 	ldr	r0, [pc, #336]	; 886c <ck_heap_errors+0x17c>
    8718:	e5900000 	ldr	r0, [r0]
    871c:	e3500000 	cmp	r0, #0
    8720:	0a000005 	beq	873c <ck_heap_errors+0x4c>
    8724:	e59f0144 	ldr	r0, [pc, #324]	; 8870 <ck_heap_errors+0x180>
    8728:	eb000463 	bl	98bc <printk>
    872c:	e59f0140 	ldr	r0, [pc, #320]	; 8874 <ck_heap_errors+0x184>
    8730:	e1a01005 	mov	r1, r5
    8734:	e1a02004 	mov	r2, r4
    8738:	eb00045f 	bl	98bc <printk>
    873c:	e59f3120 	ldr	r3, [pc, #288]	; 8864 <ck_heap_errors+0x174>
    8740:	e5934000 	ldr	r4, [r3]
    8744:	e3a05000 	mov	r5, #0
    8748:	e1a06005 	mov	r6, r5
    874c:	e59f710c 	ldr	r7, [pc, #268]	; 8860 <ck_heap_errors+0x170>
    8750:	ea000027 	b	87f4 <ck_heap_errors+0x104>
    8754:	e1540003 	cmp	r4, r3
    8758:	3a000006 	bcc	8778 <ck_heap_errors+0x88>
    875c:	eb000471 	bl	9928 <rpi_reset_putc>
    8760:	e59f0110 	ldr	r0, [pc, #272]	; 8878 <ck_heap_errors+0x188>
    8764:	e59f1110 	ldr	r1, [pc, #272]	; 887c <ck_heap_errors+0x18c>
    8768:	e59f2110 	ldr	r2, [pc, #272]	; 8880 <ck_heap_errors+0x190>
    876c:	e3a030b8 	mov	r3, #184	; 0xb8
    8770:	eb000451 	bl	98bc <printk>
    8774:	eb0005c5 	bl	9e90 <clean_reboot>
    8778:	e1a00004 	mov	r0, r4
    877c:	ebfffebf 	bl	8280 <check_hdr>
    8780:	e3500000 	cmp	r0, #0
    8784:	1a000005 	bne	87a0 <ck_heap_errors+0xb0>
    8788:	e59f00e0 	ldr	r0, [pc, #224]	; 8870 <ck_heap_errors+0x180>
    878c:	eb00044a 	bl	98bc <printk>
    8790:	e59f00ec 	ldr	r0, [pc, #236]	; 8884 <ck_heap_errors+0x194>
    8794:	eb000448 	bl	98bc <printk>
    8798:	e2866001 	add	r6, r6, #1
    879c:	ea000017 	b	8800 <ck_heap_errors+0x110>
    87a0:	e1a00004 	mov	r0, r4
    87a4:	ebfffef0 	bl	836c <check_block>
    87a8:	e3500000 	cmp	r0, #0
    87ac:	02866001 	addeq	r6, r6, #1
    87b0:	e5943008 	ldr	r3, [r4, #8]
    87b4:	e353000c 	cmp	r3, #12
    87b8:	1a000007 	bne	87dc <ck_heap_errors+0xec>
    87bc:	e1a00004 	mov	r0, r4
    87c0:	e28410b8 	add	r1, r4, #184	; 0xb8
    87c4:	e5942000 	ldr	r2, [r4]
    87c8:	ebfffeca 	bl	82f8 <check_mem>
    87cc:	e3500000 	cmp	r0, #0
    87d0:	1a000001 	bne	87dc <ck_heap_errors+0xec>
    87d4:	eb00068a 	bl	a204 <dev_barrier>
    87d8:	e2866001 	add	r6, r6, #1
    87dc:	e5942000 	ldr	r2, [r4]
    87e0:	e5943004 	ldr	r3, [r4, #4]
    87e4:	e0823003 	add	r3, r2, r3
    87e8:	e2833f4e 	add	r3, r3, #312	; 0x138
    87ec:	e0844003 	add	r4, r4, r3
    87f0:	e2855001 	add	r5, r5, #1
    87f4:	e5973000 	ldr	r3, [r7]
    87f8:	e1530004 	cmp	r3, r4
    87fc:	1affffd4 	bne	8754 <ck_heap_errors+0x64>
    8800:	e3560000 	cmp	r6, #0
    8804:	0a00000a 	beq	8834 <ck_heap_errors+0x144>
    8808:	e59f305c 	ldr	r3, [pc, #92]	; 886c <ck_heap_errors+0x17c>
    880c:	e5933000 	ldr	r3, [r3]
    8810:	e3530000 	cmp	r3, #0
    8814:	0a00000f 	beq	8858 <ck_heap_errors+0x168>
    8818:	e59f0050 	ldr	r0, [pc, #80]	; 8870 <ck_heap_errors+0x180>
    881c:	eb000426 	bl	98bc <printk>
    8820:	e59f0060 	ldr	r0, [pc, #96]	; 8888 <ck_heap_errors+0x198>
    8824:	e1a01005 	mov	r1, r5
    8828:	e1a02006 	mov	r2, r6
    882c:	eb000422 	bl	98bc <printk>
    8830:	ea000008 	b	8858 <ck_heap_errors+0x168>
    8834:	e59f3030 	ldr	r3, [pc, #48]	; 886c <ck_heap_errors+0x17c>
    8838:	e5933000 	ldr	r3, [r3]
    883c:	e3530000 	cmp	r3, #0
    8840:	0a000004 	beq	8858 <ck_heap_errors+0x168>
    8844:	e59f0024 	ldr	r0, [pc, #36]	; 8870 <ck_heap_errors+0x180>
    8848:	eb00041b 	bl	98bc <printk>
    884c:	e59f0038 	ldr	r0, [pc, #56]	; 888c <ck_heap_errors+0x19c>
    8850:	e1a01005 	mov	r1, r5
    8854:	eb000418 	bl	98bc <printk>
    8858:	e1a00006 	mov	r0, r6
    885c:	e8bd80f8 	pop	{r3, r4, r5, r6, r7, pc}
    8860:	0000b70c 	andeq	fp, r0, ip, lsl #14
    8864:	0000b714 	andeq	fp, r0, r4, lsl r7
    8868:	0000b710 	andeq	fp, r0, r0, lsl r7
    886c:	0000b708 	andeq	fp, r0, r8, lsl #14
    8870:	0000a7a0 	andeq	sl, r0, r0, lsr #15
    8874:	0000aa1c 	andeq	sl, r0, ip, lsl sl
    8878:	0000aa54 	andeq	sl, r0, r4, asr sl
    887c:	0000a7e4 	andeq	sl, r0, r4, ror #15
    8880:	0000ab7c 	andeq	sl, r0, ip, ror fp
    8884:	0000aa78 	andeq	sl, r0, r8, ror sl
    8888:	0000aa8c 	andeq	sl, r0, ip, lsl #21
    888c:	0000aab4 			; <UNDEFINED> instruction: 0x0000aab4

00008890 <ck_first_hdr>:
    8890:	e92d4010 	push	{r4, lr}
    8894:	e59f3034 	ldr	r3, [pc, #52]	; 88d0 <ck_first_hdr+0x40>
    8898:	e5934000 	ldr	r4, [r3]
    889c:	e1a00004 	mov	r0, r4
    88a0:	ebfffe76 	bl	8280 <check_hdr>
    88a4:	e3500000 	cmp	r0, #0
    88a8:	1a000006 	bne	88c8 <ck_first_hdr+0x38>
    88ac:	eb00041d 	bl	9928 <rpi_reset_putc>
    88b0:	e59f001c 	ldr	r0, [pc, #28]	; 88d4 <ck_first_hdr+0x44>
    88b4:	e59f101c 	ldr	r1, [pc, #28]	; 88d8 <ck_first_hdr+0x48>
    88b8:	e59f201c 	ldr	r2, [pc, #28]	; 88dc <ck_first_hdr+0x4c>
    88bc:	e3a030e2 	mov	r3, #226	; 0xe2
    88c0:	eb0003fd 	bl	98bc <printk>
    88c4:	eb000571 	bl	9e90 <clean_reboot>
    88c8:	e1a00004 	mov	r0, r4
    88cc:	e8bd8010 	pop	{r4, pc}
    88d0:	0000b714 	andeq	fp, r0, r4, lsl r7
    88d4:	0000aae4 	andeq	sl, r0, r4, ror #21
    88d8:	0000a7e4 	andeq	sl, r0, r4, ror #15
    88dc:	0000ab8c 	andeq	sl, r0, ip, lsl #23

000088e0 <ck_next_hdr>:
    88e0:	e92d4010 	push	{r4, lr}
    88e4:	e5904000 	ldr	r4, [r0]
    88e8:	e5903004 	ldr	r3, [r0, #4]
    88ec:	e0844003 	add	r4, r4, r3
    88f0:	e2844f4e 	add	r4, r4, #312	; 0x138
    88f4:	e0804004 	add	r4, r0, r4
    88f8:	e59f3064 	ldr	r3, [pc, #100]	; 8964 <ck_next_hdr+0x84>
    88fc:	e5933000 	ldr	r3, [r3]
    8900:	e1540003 	cmp	r4, r3
    8904:	0a000012 	beq	8954 <ck_next_hdr+0x74>
    8908:	3a000006 	bcc	8928 <ck_next_hdr+0x48>
    890c:	eb000405 	bl	9928 <rpi_reset_putc>
    8910:	e59f0050 	ldr	r0, [pc, #80]	; 8968 <ck_next_hdr+0x88>
    8914:	e59f1050 	ldr	r1, [pc, #80]	; 896c <ck_next_hdr+0x8c>
    8918:	e59f2050 	ldr	r2, [pc, #80]	; 8970 <ck_next_hdr+0x90>
    891c:	e3a030f1 	mov	r3, #241	; 0xf1
    8920:	eb0003e5 	bl	98bc <printk>
    8924:	eb000559 	bl	9e90 <clean_reboot>
    8928:	e1a00004 	mov	r0, r4
    892c:	ebfffe53 	bl	8280 <check_hdr>
    8930:	e3500000 	cmp	r0, #0
    8934:	1a000008 	bne	895c <ck_next_hdr+0x7c>
    8938:	eb0003fa 	bl	9928 <rpi_reset_putc>
    893c:	e59f0030 	ldr	r0, [pc, #48]	; 8974 <ck_next_hdr+0x94>
    8940:	e59f1024 	ldr	r1, [pc, #36]	; 896c <ck_next_hdr+0x8c>
    8944:	e59f2024 	ldr	r2, [pc, #36]	; 8970 <ck_next_hdr+0x90>
    8948:	e3a030f2 	mov	r3, #242	; 0xf2
    894c:	eb0003da 	bl	98bc <printk>
    8950:	eb00054e 	bl	9e90 <clean_reboot>
    8954:	e3a00000 	mov	r0, #0
    8958:	e8bd8010 	pop	{r4, pc}
    895c:	e1a00004 	mov	r0, r4
    8960:	e8bd8010 	pop	{r4, pc}
    8964:	0000b70c 	andeq	fp, r0, ip, lsl #14
    8968:	0000ab08 	andeq	sl, r0, r8, lsl #22
    896c:	0000a7e4 	andeq	sl, r0, r4, ror #15
    8970:	0000ab9c 	muleq	r0, ip, fp
    8974:	0000ab34 	andeq	sl, r0, r4, lsr fp

00008978 <heap_info>:
    8978:	e1a0c000 	mov	ip, r0
    897c:	e59f300c 	ldr	r3, [pc, #12]	; 8990 <heap_info+0x18>
    8980:	e893000f 	ldm	r3, {r0, r1, r2, r3}
    8984:	e88c000f 	stm	ip, {r0, r1, r2, r3}
    8988:	e1a0000c 	mov	r0, ip
    898c:	e12fff1e 	bx	lr
    8990:	0000b718 	andeq	fp, r0, r8, lsl r7

00008994 <ckalloc_end>:
    8994:	e12fff1e 	bx	lr

00008998 <in_heap>:
    8998:	e59f3030 	ldr	r3, [pc, #48]	; 89d0 <in_heap+0x38>
    899c:	e5933000 	ldr	r3, [r3]
    89a0:	e1530000 	cmp	r3, r0
    89a4:	8a000005 	bhi	89c0 <in_heap+0x28>
    89a8:	e59f3020 	ldr	r3, [pc, #32]	; 89d0 <in_heap+0x38>
    89ac:	e5933004 	ldr	r3, [r3, #4]
    89b0:	e1530000 	cmp	r3, r0
    89b4:	2a000003 	bcs	89c8 <in_heap+0x30>
    89b8:	e3a00000 	mov	r0, #0
    89bc:	e12fff1e 	bx	lr
    89c0:	e3a00000 	mov	r0, #0
    89c4:	e12fff1e 	bx	lr
    89c8:	e3a00001 	mov	r0, #1
    89cc:	e12fff1e 	bx	lr
    89d0:	0000b728 	andeq	fp, r0, r8, lsr #14

000089d4 <is_ptr>:
    89d4:	e92d4010 	push	{r4, lr}
    89d8:	e1a04000 	mov	r4, r0
    89dc:	ebffffed 	bl	8998 <in_heap>
    89e0:	e3500000 	cmp	r0, #0
    89e4:	0a000016 	beq	8a44 <is_ptr+0x70>
    89e8:	ebffffa8 	bl	8890 <ck_first_hdr>
    89ec:	ea000011 	b	8a38 <is_ptr+0x64>
    89f0:	e28030b8 	add	r3, r0, #184	; 0xb8
    89f4:	e1530004 	cmp	r3, r4
    89f8:	1a000003 	bne	8a0c <is_ptr+0x38>
    89fc:	e5903028 	ldr	r3, [r0, #40]	; 0x28
    8a00:	e2833001 	add	r3, r3, #1
    8a04:	e5803028 	str	r3, [r0, #40]	; 0x28
    8a08:	e8bd8010 	pop	{r4, pc}
    8a0c:	e1540003 	cmp	r4, r3
    8a10:	9a000007 	bls	8a34 <is_ptr+0x60>
    8a14:	e5902000 	ldr	r2, [r0]
    8a18:	e0833002 	add	r3, r3, r2
    8a1c:	e1530004 	cmp	r3, r4
    8a20:	3a000003 	bcc	8a34 <is_ptr+0x60>
    8a24:	e590302c 	ldr	r3, [r0, #44]	; 0x2c
    8a28:	e2833001 	add	r3, r3, #1
    8a2c:	e580302c 	str	r3, [r0, #44]	; 0x2c
    8a30:	e8bd8010 	pop	{r4, pc}
    8a34:	ebffffa9 	bl	88e0 <ck_next_hdr>
    8a38:	e3500000 	cmp	r0, #0
    8a3c:	1affffeb 	bne	89f0 <is_ptr+0x1c>
    8a40:	e8bd8010 	pop	{r4, pc}
    8a44:	e3a00000 	mov	r0, #0
    8a48:	e8bd8010 	pop	{r4, pc}

00008a4c <mark>:
    8a4c:	e92d4070 	push	{r4, r5, r6, lr}
    8a50:	e1a04000 	mov	r4, r0
    8a54:	e1a05001 	mov	r5, r1
    8a58:	e1500001 	cmp	r0, r1
    8a5c:	3a000006 	bcc	8a7c <mark+0x30>
    8a60:	eb0003b0 	bl	9928 <rpi_reset_putc>
    8a64:	e59f00c4 	ldr	r0, [pc, #196]	; 8b30 <mark+0xe4>
    8a68:	e59f10c4 	ldr	r1, [pc, #196]	; 8b34 <mark+0xe8>
    8a6c:	e59f20c4 	ldr	r2, [pc, #196]	; 8b38 <mark+0xec>
    8a70:	e3a0305b 	mov	r3, #91	; 0x5b
    8a74:	eb000390 	bl	98bc <printk>
    8a78:	eb000504 	bl	9e90 <clean_reboot>
    8a7c:	e3100003 	tst	r0, #3
    8a80:	0a000006 	beq	8aa0 <mark+0x54>
    8a84:	eb0003a7 	bl	9928 <rpi_reset_putc>
    8a88:	e59f00ac 	ldr	r0, [pc, #172]	; 8b3c <mark+0xf0>
    8a8c:	e59f10a0 	ldr	r1, [pc, #160]	; 8b34 <mark+0xe8>
    8a90:	e59f20a0 	ldr	r2, [pc, #160]	; 8b38 <mark+0xec>
    8a94:	e3a0305d 	mov	r3, #93	; 0x5d
    8a98:	eb000387 	bl	98bc <printk>
    8a9c:	eb0004fb 	bl	9e90 <clean_reboot>
    8aa0:	e3110003 	tst	r1, #3
    8aa4:	0a00001d 	beq	8b20 <mark+0xd4>
    8aa8:	eb00039e 	bl	9928 <rpi_reset_putc>
    8aac:	e59f008c 	ldr	r0, [pc, #140]	; 8b40 <mark+0xf4>
    8ab0:	e59f107c 	ldr	r1, [pc, #124]	; 8b34 <mark+0xe8>
    8ab4:	e59f207c 	ldr	r2, [pc, #124]	; 8b38 <mark+0xec>
    8ab8:	e3a0305e 	mov	r3, #94	; 0x5e
    8abc:	eb00037e 	bl	98bc <printk>
    8ac0:	eb0004f2 	bl	9e90 <clean_reboot>
    8ac4:	e5940000 	ldr	r0, [r4]
    8ac8:	ebffffc1 	bl	89d4 <is_ptr>
    8acc:	e2503000 	subs	r3, r0, #0
    8ad0:	0a000010 	beq	8b18 <mark+0xcc>
    8ad4:	e5940000 	ldr	r0, [r4]
    8ad8:	e28320b8 	add	r2, r3, #184	; 0xb8
    8adc:	e1500002 	cmp	r0, r2
    8ae0:	05931028 	ldreq	r1, [r3, #40]	; 0x28
    8ae4:	02811001 	addeq	r1, r1, #1
    8ae8:	05831028 	streq	r1, [r3, #40]	; 0x28
    8aec:	1593102c 	ldrne	r1, [r3, #44]	; 0x2c
    8af0:	12811001 	addne	r1, r1, #1
    8af4:	1583102c 	strne	r1, [r3, #44]	; 0x2c
    8af8:	e1d303b4 	ldrh	r0, [r3, #52]	; 0x34
    8afc:	e3500000 	cmp	r0, #0
    8b00:	1a000004 	bne	8b18 <mark+0xcc>
    8b04:	e1c363b4 	strh	r6, [r3, #52]	; 0x34
    8b08:	e5931000 	ldr	r1, [r3]
    8b0c:	e1a00002 	mov	r0, r2
    8b10:	e0821001 	add	r1, r2, r1
    8b14:	ebffffcc 	bl	8a4c <mark>
    8b18:	e2844004 	add	r4, r4, #4
    8b1c:	ea000000 	b	8b24 <mark+0xd8>
    8b20:	e3a06001 	mov	r6, #1
    8b24:	e1540005 	cmp	r4, r5
    8b28:	1affffe5 	bne	8ac4 <mark+0x78>
    8b2c:	e8bd8070 	pop	{r4, r5, r6, pc}
    8b30:	0000aba8 	andeq	sl, r0, r8, lsr #23
    8b34:	0000abbc 			; <UNDEFINED> instruction: 0x0000abbc
    8b38:	0000af14 	andeq	sl, r0, r4, lsl pc
    8b3c:	0000abc4 	andeq	sl, r0, r4, asr #23
    8b40:	0000abe4 	andeq	sl, r0, r4, ror #23

00008b44 <sweep_leak>:
    8b44:	e92d4ff8 	push	{r3, r4, r5, r6, r7, r8, r9, sl, fp, lr}
    8b48:	e1a09000 	mov	r9, r0
    8b4c:	e59f0100 	ldr	r0, [pc, #256]	; 8c54 <sweep_leak+0x110>
    8b50:	eb000359 	bl	98bc <printk>
    8b54:	e59f00fc 	ldr	r0, [pc, #252]	; 8c58 <sweep_leak+0x114>
    8b58:	eb000357 	bl	98bc <printk>
    8b5c:	ebffff4b 	bl	8890 <ck_first_hdr>
    8b60:	e1a04000 	mov	r4, r0
    8b64:	e3a06000 	mov	r6, #0
    8b68:	e1a07006 	mov	r7, r6
    8b6c:	e1a05006 	mov	r5, r6
    8b70:	e1a08006 	mov	r8, r6
    8b74:	e59fa0e0 	ldr	sl, [pc, #224]	; 8c5c <sweep_leak+0x118>
    8b78:	e59fb0e0 	ldr	fp, [pc, #224]	; 8c60 <sweep_leak+0x11c>
    8b7c:	ea00001c 	b	8bf4 <sweep_leak+0xb0>
    8b80:	e5943008 	ldr	r3, [r4, #8]
    8b84:	e353000b 	cmp	r3, #11
    8b88:	1a000015 	bne	8be4 <sweep_leak+0xa0>
    8b8c:	e1d433b4 	ldrh	r3, [r4, #52]	; 0x34
    8b90:	e3530000 	cmp	r3, #0
    8b94:	1a000006 	bne	8bb4 <sweep_leak+0x70>
    8b98:	e1a0000a 	mov	r0, sl
    8b9c:	eb000346 	bl	98bc <printk>
    8ba0:	e1a0000b 	mov	r0, fp
    8ba4:	e28410b8 	add	r1, r4, #184	; 0xb8
    8ba8:	eb000343 	bl	98bc <printk>
    8bac:	e2877001 	add	r7, r7, #1
    8bb0:	ea00000b 	b	8be4 <sweep_leak+0xa0>
    8bb4:	e1c483b4 	strh	r8, [r4, #52]	; 0x34
    8bb8:	e3590000 	cmp	r9, #0
    8bbc:	0a000008 	beq	8be4 <sweep_leak+0xa0>
    8bc0:	e5943028 	ldr	r3, [r4, #40]	; 0x28
    8bc4:	e3530000 	cmp	r3, #0
    8bc8:	1a000005 	bne	8be4 <sweep_leak+0xa0>
    8bcc:	e1a0000a 	mov	r0, sl
    8bd0:	eb000339 	bl	98bc <printk>
    8bd4:	e59f0088 	ldr	r0, [pc, #136]	; 8c64 <sweep_leak+0x120>
    8bd8:	e28410b8 	add	r1, r4, #184	; 0xb8
    8bdc:	eb000336 	bl	98bc <printk>
    8be0:	e2866001 	add	r6, r6, #1
    8be4:	e2855001 	add	r5, r5, #1
    8be8:	e1a00004 	mov	r0, r4
    8bec:	ebffff3b 	bl	88e0 <ck_next_hdr>
    8bf0:	e1a04000 	mov	r4, r0
    8bf4:	e3540000 	cmp	r4, #0
    8bf8:	1affffe0 	bne	8b80 <sweep_leak+0x3c>
    8bfc:	e59f0058 	ldr	r0, [pc, #88]	; 8c5c <sweep_leak+0x118>
    8c00:	eb00032d 	bl	98bc <printk>
    8c04:	e59f005c 	ldr	r0, [pc, #92]	; 8c68 <sweep_leak+0x124>
    8c08:	e1a01005 	mov	r1, r5
    8c0c:	eb00032a 	bl	98bc <printk>
    8c10:	e1973006 	orrs	r3, r7, r6
    8c14:	1a000004 	bne	8c2c <sweep_leak+0xe8>
    8c18:	e59f003c 	ldr	r0, [pc, #60]	; 8c5c <sweep_leak+0x118>
    8c1c:	eb000326 	bl	98bc <printk>
    8c20:	e59f0044 	ldr	r0, [pc, #68]	; 8c6c <sweep_leak+0x128>
    8c24:	eb000324 	bl	98bc <printk>
    8c28:	ea000005 	b	8c44 <sweep_leak+0x100>
    8c2c:	e59f0028 	ldr	r0, [pc, #40]	; 8c5c <sweep_leak+0x118>
    8c30:	eb000321 	bl	98bc <printk>
    8c34:	e59f0034 	ldr	r0, [pc, #52]	; 8c70 <sweep_leak+0x12c>
    8c38:	e1a01007 	mov	r1, r7
    8c3c:	e1a02006 	mov	r2, r6
    8c40:	eb00031d 	bl	98bc <printk>
    8c44:	e59f0028 	ldr	r0, [pc, #40]	; 8c74 <sweep_leak+0x130>
    8c48:	eb00031b 	bl	98bc <printk>
    8c4c:	e0870006 	add	r0, r7, r6
    8c50:	e8bd8ff8 	pop	{r3, r4, r5, r6, r7, r8, r9, sl, fp, pc}
    8c54:	0000ac04 	andeq	sl, r0, r4, lsl #24
    8c58:	0000ac40 	andeq	sl, r0, r0, asr #24
    8c5c:	0000a7a0 	andeq	sl, r0, r0, lsr #15
    8c60:	0000ac58 	andeq	sl, r0, r8, asr ip
    8c64:	0000ac78 	andeq	sl, r0, r8, ror ip
    8c68:	0000acb0 			; <UNDEFINED> instruction: 0x0000acb0
    8c6c:	0000acc8 	andeq	sl, r0, r8, asr #25
    8c70:	0000ace8 	andeq	sl, r0, r8, ror #25
    8c74:	0000ad14 	andeq	sl, r0, r4, lsl sp

00008c78 <mark_all>:
    8c78:	e92d4010 	push	{r4, lr}
    8c7c:	e24dd050 	sub	sp, sp, #80	; 0x50
    8c80:	ebffff02 	bl	8890 <ck_first_hdr>
    8c84:	e3a04000 	mov	r4, #0
    8c88:	ea000003 	b	8c9c <mark_all+0x24>
    8c8c:	e580402c 	str	r4, [r0, #44]	; 0x2c
    8c90:	e5804028 	str	r4, [r0, #40]	; 0x28
    8c94:	e1c043b4 	strh	r4, [r0, #52]	; 0x34
    8c98:	ebffff10 	bl	88e0 <ck_next_hdr>
    8c9c:	e3500000 	cmp	r0, #0
    8ca0:	1afffff9 	bne	8c8c <mark_all+0x14>
    8ca4:	e28d4040 	add	r4, sp, #64	; 0x40
    8ca8:	e1a00004 	mov	r0, r4
    8cac:	ebffff31 	bl	8978 <heap_info>
    8cb0:	e59fc094 	ldr	ip, [pc, #148]	; 8d4c <mark_all+0xd4>
    8cb4:	e894000f 	ldm	r4, {r0, r1, r2, r3}
    8cb8:	e88c000f 	stm	ip, {r0, r1, r2, r3}
    8cbc:	e1a0400d 	mov	r4, sp
    8cc0:	e1a0000d 	mov	r0, sp
    8cc4:	eb0000d6 	bl	9024 <dump_regs>
    8cc8:	e59d3000 	ldr	r3, [sp]
    8ccc:	e1530004 	cmp	r3, r4
    8cd0:	0a00000b 	beq	8d04 <mark_all+0x8c>
    8cd4:	eb000313 	bl	9928 <rpi_reset_putc>
    8cd8:	e59f0070 	ldr	r0, [pc, #112]	; 8d50 <mark_all+0xd8>
    8cdc:	e59f1070 	ldr	r1, [pc, #112]	; 8d54 <mark_all+0xdc>
    8ce0:	e59f2070 	ldr	r2, [pc, #112]	; 8d58 <mark_all+0xe0>
    8ce4:	e3a030df 	mov	r3, #223	; 0xdf
    8ce8:	eb0002f3 	bl	98bc <printk>
    8cec:	eb000467 	bl	9e90 <clean_reboot>
    8cf0:	e28d0050 	add	r0, sp, #80	; 0x50
    8cf4:	e0802103 	add	r2, r0, r3, lsl #2
    8cf8:	e5021050 	str	r1, [r2, #-80]	; 0x50
    8cfc:	e2833001 	add	r3, r3, #1
    8d00:	ea000001 	b	8d0c <mark_all+0x94>
    8d04:	e3a03000 	mov	r3, #0
    8d08:	e1a01003 	mov	r1, r3
    8d0c:	e3530003 	cmp	r3, #3
    8d10:	dafffff6 	ble	8cf0 <mark_all+0x78>
    8d14:	e28d0010 	add	r0, sp, #16
    8d18:	e28d1038 	add	r1, sp, #56	; 0x38
    8d1c:	ebffff4a 	bl	8a4c <mark>
    8d20:	e59d0034 	ldr	r0, [sp, #52]	; 0x34
    8d24:	e3a01302 	mov	r1, #134217728	; 0x8000000
    8d28:	ebffff47 	bl	8a4c <mark>
    8d2c:	e59f0028 	ldr	r0, [pc, #40]	; 8d5c <mark_all+0xe4>
    8d30:	e59f1028 	ldr	r1, [pc, #40]	; 8d60 <mark_all+0xe8>
    8d34:	ebffff44 	bl	8a4c <mark>
    8d38:	e59f0024 	ldr	r0, [pc, #36]	; 8d64 <mark_all+0xec>
    8d3c:	e59f1024 	ldr	r1, [pc, #36]	; 8d68 <mark_all+0xf0>
    8d40:	ebffff41 	bl	8a4c <mark>
    8d44:	e28dd050 	add	sp, sp, #80	; 0x50
    8d48:	e8bd8010 	pop	{r4, pc}
    8d4c:	0000b728 	andeq	fp, r0, r8, lsr #14
    8d50:	0000ad50 	andeq	sl, r0, r0, asr sp
    8d54:	0000abbc 			; <UNDEFINED> instruction: 0x0000abbc
    8d58:	0000af08 	andeq	sl, r0, r8, lsl #30
    8d5c:	0000b708 	andeq	fp, r0, r8, lsl #14
    8d60:	0000bbb0 			; <UNDEFINED> instruction: 0x0000bbb0
    8d64:	0000a6f8 	strdeq	sl, [r0], -r8
    8d68:	0000a71c 	andeq	sl, r0, ip, lsl r7

00008d6c <ck_find_leaks>:
    8d6c:	e92d4010 	push	{r4, lr}
    8d70:	e1a04000 	mov	r4, r0
    8d74:	ebffffbf 	bl	8c78 <mark_all>
    8d78:	e1a00004 	mov	r0, r4
    8d7c:	ebffff70 	bl	8b44 <sweep_leak>
    8d80:	e8bd8010 	pop	{r4, pc}

00008d84 <check_no_leak>:
    8d84:	e92d4008 	push	{r3, lr}
    8d88:	ebfffe58 	bl	86f0 <ck_heap_errors>
    8d8c:	e3500000 	cmp	r0, #0
    8d90:	0a000006 	beq	8db0 <check_no_leak+0x2c>
    8d94:	eb0002e3 	bl	9928 <rpi_reset_putc>
    8d98:	e59f0060 	ldr	r0, [pc, #96]	; 8e00 <check_no_leak+0x7c>
    8d9c:	e59f1060 	ldr	r1, [pc, #96]	; 8e04 <check_no_leak+0x80>
    8da0:	e59f2060 	ldr	r2, [pc, #96]	; 8e08 <check_no_leak+0x84>
    8da4:	e59f3060 	ldr	r3, [pc, #96]	; 8e0c <check_no_leak+0x88>
    8da8:	eb0002c3 	bl	98bc <printk>
    8dac:	eb000437 	bl	9e90 <clean_reboot>
    8db0:	e59f0058 	ldr	r0, [pc, #88]	; 8e10 <check_no_leak+0x8c>
    8db4:	eb0002c0 	bl	98bc <printk>
    8db8:	e59f0054 	ldr	r0, [pc, #84]	; 8e14 <check_no_leak+0x90>
    8dbc:	eb0002be 	bl	98bc <printk>
    8dc0:	e3a00001 	mov	r0, #1
    8dc4:	ebffffe8 	bl	8d6c <ck_find_leaks>
    8dc8:	e3500000 	cmp	r0, #0
    8dcc:	0a000006 	beq	8dec <check_no_leak+0x68>
    8dd0:	eb0002d4 	bl	9928 <rpi_reset_putc>
    8dd4:	e59f003c 	ldr	r0, [pc, #60]	; 8e18 <check_no_leak+0x94>
    8dd8:	e59f1024 	ldr	r1, [pc, #36]	; 8e04 <check_no_leak+0x80>
    8ddc:	e59f2024 	ldr	r2, [pc, #36]	; 8e08 <check_no_leak+0x84>
    8de0:	e59f3034 	ldr	r3, [pc, #52]	; 8e1c <check_no_leak+0x98>
    8de4:	eb0002b4 	bl	98bc <printk>
    8de8:	eb000428 	bl	9e90 <clean_reboot>
    8dec:	e59f001c 	ldr	r0, [pc, #28]	; 8e10 <check_no_leak+0x8c>
    8df0:	eb0002b1 	bl	98bc <printk>
    8df4:	e59f0024 	ldr	r0, [pc, #36]	; 8e20 <check_no_leak+0x9c>
    8df8:	eb0002af 	bl	98bc <printk>
    8dfc:	e8bd8008 	pop	{r3, pc}
    8e00:	0000ad80 	andeq	sl, r0, r0, lsl #27
    8e04:	0000abbc 			; <UNDEFINED> instruction: 0x0000abbc
    8e08:	0000af1c 	andeq	sl, r0, ip, lsl pc
    8e0c:	00000109 	andeq	r0, r0, r9, lsl #2
    8e10:	0000a7a0 	andeq	sl, r0, r0, lsr #15
    8e14:	0000ada8 	andeq	sl, r0, r8, lsr #27
    8e18:	0000adc8 	andeq	sl, r0, r8, asr #27
    8e1c:	0000010d 	andeq	r0, r0, sp, lsl #2
    8e20:	0000adf4 	strdeq	sl, [r0], -r4

00008e24 <check_should_leak>:
    8e24:	e92d4010 	push	{r4, lr}
    8e28:	ebfffe30 	bl	86f0 <ck_heap_errors>
    8e2c:	e3500000 	cmp	r0, #0
    8e30:	0a000006 	beq	8e50 <check_should_leak+0x2c>
    8e34:	eb0002bb 	bl	9928 <rpi_reset_putc>
    8e38:	e59f0068 	ldr	r0, [pc, #104]	; 8ea8 <check_should_leak+0x84>
    8e3c:	e59f1068 	ldr	r1, [pc, #104]	; 8eac <check_should_leak+0x88>
    8e40:	e59f2068 	ldr	r2, [pc, #104]	; 8eb0 <check_should_leak+0x8c>
    8e44:	e59f3068 	ldr	r3, [pc, #104]	; 8eb4 <check_should_leak+0x90>
    8e48:	eb00029b 	bl	98bc <printk>
    8e4c:	eb00040f 	bl	9e90 <clean_reboot>
    8e50:	e59f0060 	ldr	r0, [pc, #96]	; 8eb8 <check_should_leak+0x94>
    8e54:	eb000298 	bl	98bc <printk>
    8e58:	e59f005c 	ldr	r0, [pc, #92]	; 8ebc <check_should_leak+0x98>
    8e5c:	eb000296 	bl	98bc <printk>
    8e60:	e3a00001 	mov	r0, #1
    8e64:	ebffffc0 	bl	8d6c <ck_find_leaks>
    8e68:	e2504000 	subs	r4, r0, #0
    8e6c:	1a000006 	bne	8e8c <check_should_leak+0x68>
    8e70:	eb0002ac 	bl	9928 <rpi_reset_putc>
    8e74:	e59f0044 	ldr	r0, [pc, #68]	; 8ec0 <check_should_leak+0x9c>
    8e78:	e59f102c 	ldr	r1, [pc, #44]	; 8eac <check_should_leak+0x88>
    8e7c:	e59f202c 	ldr	r2, [pc, #44]	; 8eb0 <check_should_leak+0x8c>
    8e80:	e3a03e12 	mov	r3, #288	; 0x120
    8e84:	eb00028c 	bl	98bc <printk>
    8e88:	eb000400 	bl	9e90 <clean_reboot>
    8e8c:	e59f0024 	ldr	r0, [pc, #36]	; 8eb8 <check_should_leak+0x94>
    8e90:	eb000289 	bl	98bc <printk>
    8e94:	e59f0028 	ldr	r0, [pc, #40]	; 8ec4 <check_should_leak+0xa0>
    8e98:	e1a01004 	mov	r1, r4
    8e9c:	eb000286 	bl	98bc <printk>
    8ea0:	e1a00004 	mov	r0, r4
    8ea4:	e8bd8010 	pop	{r4, pc}
    8ea8:	0000ad80 	andeq	sl, r0, r0, lsl #27
    8eac:	0000abbc 			; <UNDEFINED> instruction: 0x0000abbc
    8eb0:	0000af2c 	andeq	sl, r0, ip, lsr #30
    8eb4:	0000011a 	andeq	r0, r0, sl, lsl r1
    8eb8:	0000a7a0 	andeq	sl, r0, r0, lsr #15
    8ebc:	0000ada8 	andeq	sl, r0, r8, lsr #27
    8ec0:	0000ae0c 	andeq	sl, r0, ip, lsl #28
    8ec4:	0000ae34 	andeq	sl, r0, r4, lsr lr

00008ec8 <implement_this>:
    8ec8:	e92d4008 	push	{r3, lr}
    8ecc:	eb000295 	bl	9928 <rpi_reset_putc>
    8ed0:	e59f0010 	ldr	r0, [pc, #16]	; 8ee8 <implement_this+0x20>
    8ed4:	e59f1010 	ldr	r1, [pc, #16]	; 8eec <implement_this+0x24>
    8ed8:	e59f2010 	ldr	r2, [pc, #16]	; 8ef0 <implement_this+0x28>
    8edc:	e3a03f4a 	mov	r3, #296	; 0x128
    8ee0:	eb000275 	bl	98bc <printk>
    8ee4:	eb0003e9 	bl	9e90 <clean_reboot>
    8ee8:	0000ae54 	andeq	sl, r0, r4, asr lr
    8eec:	0000abbc 			; <UNDEFINED> instruction: 0x0000abbc
    8ef0:	0000af40 	andeq	sl, r0, r0, asr #30

00008ef4 <sweep_free>:
    8ef4:	e92d4ff0 	push	{r4, r5, r6, r7, r8, r9, sl, fp, lr}
    8ef8:	e24dd014 	sub	sp, sp, #20
    8efc:	e59f00e8 	ldr	r0, [pc, #232]	; 8fec <sweep_free+0xf8>
    8f00:	eb00026d 	bl	98bc <printk>
    8f04:	e59f00e4 	ldr	r0, [pc, #228]	; 8ff0 <sweep_free+0xfc>
    8f08:	eb00026b 	bl	98bc <printk>
    8f0c:	ebfffe5f 	bl	8890 <ck_first_hdr>
    8f10:	e1a04000 	mov	r4, r0
    8f14:	e3a06000 	mov	r6, #0
    8f18:	e1a08006 	mov	r8, r6
    8f1c:	e1a05006 	mov	r5, r6
    8f20:	e59fb0cc 	ldr	fp, [pc, #204]	; 8ff4 <sweep_free+0x100>
    8f24:	e59fa0cc 	ldr	sl, [pc, #204]	; 8ff8 <sweep_free+0x104>
    8f28:	e59f90cc 	ldr	r9, [pc, #204]	; 8ffc <sweep_free+0x108>
    8f2c:	ea000017 	b	8f90 <sweep_free+0x9c>
    8f30:	e5943008 	ldr	r3, [r4, #8]
    8f34:	e353000b 	cmp	r3, #11
    8f38:	1a000010 	bne	8f80 <sweep_free+0x8c>
    8f3c:	e1d433b4 	ldrh	r3, [r4, #52]	; 0x34
    8f40:	e3530000 	cmp	r3, #0
    8f44:	1a00000d 	bne	8f80 <sweep_free+0x8c>
    8f48:	e1a07004 	mov	r7, r4
    8f4c:	e49730b8 	ldr	r3, [r7], #184	; 0xb8
    8f50:	e0866003 	add	r6, r6, r3
    8f54:	e2888001 	add	r8, r8, #1
    8f58:	e1a0000b 	mov	r0, fp
    8f5c:	eb000256 	bl	98bc <printk>
    8f60:	e1a0000a 	mov	r0, sl
    8f64:	e1a01007 	mov	r1, r7
    8f68:	eb000253 	bl	98bc <printk>
    8f6c:	e1a00007 	mov	r0, r7
    8f70:	e1a01009 	mov	r1, r9
    8f74:	e59f2084 	ldr	r2, [pc, #132]	; 9000 <sweep_free+0x10c>
    8f78:	e59f3084 	ldr	r3, [pc, #132]	; 9004 <sweep_free+0x110>
    8f7c:	ebfffd16 	bl	83dc <ckfree>
    8f80:	e2855001 	add	r5, r5, #1
    8f84:	e1a00004 	mov	r0, r4
    8f88:	ebfffe54 	bl	88e0 <ck_next_hdr>
    8f8c:	e1a04000 	mov	r4, r0
    8f90:	e3540000 	cmp	r4, #0
    8f94:	1affffe5 	bne	8f30 <sweep_free+0x3c>
    8f98:	e59f4054 	ldr	r4, [pc, #84]	; 8ff4 <sweep_free+0x100>
    8f9c:	e1a00004 	mov	r0, r4
    8fa0:	eb000245 	bl	98bc <printk>
    8fa4:	e59f005c 	ldr	r0, [pc, #92]	; 9008 <sweep_free+0x114>
    8fa8:	e1a01005 	mov	r1, r5
    8fac:	e1a02008 	mov	r2, r8
    8fb0:	e1a03006 	mov	r3, r6
    8fb4:	eb000240 	bl	98bc <printk>
    8fb8:	e1a0000d 	mov	r0, sp
    8fbc:	ebfffe6d 	bl	8978 <heap_info>
    8fc0:	e1a00004 	mov	r0, r4
    8fc4:	eb00023c 	bl	98bc <printk>
    8fc8:	e59f003c 	ldr	r0, [pc, #60]	; 900c <sweep_free+0x118>
    8fcc:	e59d100c 	ldr	r1, [sp, #12]
    8fd0:	e59d2008 	ldr	r2, [sp, #8]
    8fd4:	eb000238 	bl	98bc <printk>
    8fd8:	e59f0030 	ldr	r0, [pc, #48]	; 9010 <sweep_free+0x11c>
    8fdc:	eb000236 	bl	98bc <printk>
    8fe0:	e1a00006 	mov	r0, r6
    8fe4:	e28dd014 	add	sp, sp, #20
    8fe8:	e8bd8ff0 	pop	{r4, r5, r6, r7, r8, r9, sl, fp, pc}
    8fec:	0000ac04 	andeq	sl, r0, r4, lsl #24
    8ff0:	0000ae84 	andeq	sl, r0, r4, lsl #29
    8ff4:	0000a7a0 	andeq	sl, r0, r0, lsr #15
    8ff8:	0000ae94 	muleq	r0, r4, lr
    8ffc:	0000abbc 			; <UNDEFINED> instruction: 0x0000abbc
    9000:	0000af50 	andeq	sl, r0, r0, asr pc
    9004:	0000013a 	andeq	r0, r0, sl, lsr r1
    9008:	0000aea8 	andeq	sl, r0, r8, lsr #29
    900c:	0000aed4 	ldrdeq	sl, [r0], -r4
    9010:	0000ad14 	andeq	sl, r0, r4, lsl sp

00009014 <ck_gc>:
    9014:	e92d4008 	push	{r3, lr}
    9018:	ebffff16 	bl	8c78 <mark_all>
    901c:	ebffffb4 	bl	8ef4 <sweep_free>
    9020:	e8bd8008 	pop	{r3, pc}

00009024 <dump_regs>:
    9024:	e8807fff 	stm	r0, {r0, r1, r2, r3, r4, r5, r6, r7, r8, r9, sl, fp, ip, sp, lr}
    9028:	e12fff1e 	bx	lr

0000902c <generate_trampoline_code>:
    902c:	e92d4038 	push	{r3, r4, r5, lr}
    9030:	e1a05000 	mov	r5, r0
    9034:	e59f404c 	ldr	r4, [pc, #76]	; 9088 <generate_trampoline_code+0x5c>
    9038:	e59f304c 	ldr	r3, [pc, #76]	; 908c <generate_trampoline_code+0x60>
    903c:	e5843000 	str	r3, [r4]
    9040:	ebfffdaa 	bl	86f0 <ck_heap_errors>
    9044:	e3e03345 	mvn	r3, #335544321	; 0x14000001
    9048:	e5843004 	str	r3, [r4, #4]
    904c:	e59f303c 	ldr	r3, [pc, #60]	; 9090 <generate_trampoline_code+0x64>
    9050:	e5843008 	str	r3, [r4, #8]
    9054:	e1a00005 	mov	r0, r5
    9058:	e4903004 	ldr	r3, [r0], #4
    905c:	e584300c 	str	r3, [r4, #12]
    9060:	e2843018 	add	r3, r4, #24
    9064:	e0630000 	rsb	r0, r3, r0
    9068:	e1a00300 	lsl	r0, r0, #6
    906c:	e59f3020 	ldr	r3, [pc, #32]	; 9094 <generate_trampoline_code+0x68>
    9070:	e5933000 	ldr	r3, [r3]
    9074:	e1a03e03 	lsl	r3, r3, #28
    9078:	e383340b 	orr	r3, r3, #184549376	; 0xb000000
    907c:	e1830420 	orr	r0, r3, r0, lsr #8
    9080:	e5840010 	str	r0, [r4, #16]
    9084:	e8bd8038 	pop	{r3, r4, r5, pc}
    9088:	0000b770 	andeq	fp, r0, r0, ror r7
    908c:	e92d5fff 	push	{r0, r1, r2, r3, r4, r5, r6, r7, r8, r9, sl, fp, ip, lr}
    9090:	e8bd5fff 	pop	{r0, r1, r2, r3, r4, r5, r6, r7, r8, r9, sl, fp, ip, lr}
    9094:	0000a6f8 	strdeq	sl, [r0], -r8

00009098 <encode_target_instructions>:
    9098:	e59f3038 	ldr	r3, [pc, #56]	; 90d8 <encode_target_instructions+0x40>
    909c:	e59f2038 	ldr	r2, [pc, #56]	; 90dc <encode_target_instructions+0x44>
    90a0:	e5832000 	str	r2, [r3]
    90a4:	e2422a01 	sub	r2, r2, #4096	; 0x1000
    90a8:	e5832004 	str	r2, [r3, #4]
    90ac:	e59f202c 	ldr	r2, [pc, #44]	; 90e0 <encode_target_instructions+0x48>
    90b0:	e5832008 	str	r2, [r3, #8]
    90b4:	e59f2028 	ldr	r2, [pc, #40]	; 90e4 <encode_target_instructions+0x4c>
    90b8:	e583200c 	str	r2, [r3, #12]
    90bc:	e59f2024 	ldr	r2, [pc, #36]	; 90e8 <encode_target_instructions+0x50>
    90c0:	e5832010 	str	r2, [r3, #16]
    90c4:	e2822eff 	add	r2, r2, #4080	; 0xff0
    90c8:	e5832014 	str	r2, [r3, #20]
    90cc:	e2822a01 	add	r2, r2, #4096	; 0x1000
    90d0:	e5832018 	str	r2, [r3, #24]
    90d4:	e12fff1e 	bx	lr
    90d8:	0000b754 	andeq	fp, r0, r4, asr r7
    90dc:	e59f6088 	ldr	r6, [pc, #136]	; 916c <ck_mem_checked_pc+0x30>
    90e0:	e5c43000 	strb	r3, [r4]
    90e4:	e59f504c 	ldr	r5, [pc, #76]	; 9138 <in_range+0x4c>
    90e8:	e59f001c 	ldr	r0, [pc, #28]	; 910c <in_range+0x20>

000090ec <in_range>:
    90ec:	e92d4008 	push	{r3, lr}
    90f0:	e1510002 	cmp	r1, r2
    90f4:	3a000006 	bcc	9114 <in_range+0x28>
    90f8:	eb00020a 	bl	9928 <rpi_reset_putc>
    90fc:	e59f002c 	ldr	r0, [pc, #44]	; 9130 <in_range+0x44>
    9100:	e59f102c 	ldr	r1, [pc, #44]	; 9134 <in_range+0x48>
    9104:	e59f202c 	ldr	r2, [pc, #44]	; 9138 <in_range+0x4c>
    9108:	e3a03052 	mov	r3, #82	; 0x52
    910c:	eb0001ea 	bl	98bc <printk>
    9110:	eb00035e 	bl	9e90 <clean_reboot>
    9114:	e1500001 	cmp	r0, r1
    9118:	33a03000 	movcc	r3, #0
    911c:	23a03001 	movcs	r3, #1
    9120:	e1500002 	cmp	r0, r2
    9124:	23a03000 	movcs	r3, #0
    9128:	e1a00003 	mov	r0, r3
    912c:	e8bd8008 	pop	{r3, pc}
    9130:	0000af5c 	andeq	sl, r0, ip, asr pc
    9134:	0000af70 	andeq	sl, r0, r0, ror pc
    9138:	0000b130 	andeq	fp, r0, r0, lsr r1

0000913c <ck_mem_checked_pc>:
    913c:	e92d4010 	push	{r4, lr}
    9140:	e1a04000 	mov	r4, r0
    9144:	e59f3044 	ldr	r3, [pc, #68]	; 9190 <ck_mem_checked_pc+0x54>
    9148:	e5931000 	ldr	r1, [r3]
    914c:	e59f3040 	ldr	r3, [pc, #64]	; 9194 <ck_mem_checked_pc+0x58>
    9150:	e5932000 	ldr	r2, [r3]
    9154:	ebffffe4 	bl	90ec <in_range>
    9158:	e3500000 	cmp	r0, #0
    915c:	1a000009 	bne	9188 <ck_mem_checked_pc+0x4c>
    9160:	e1a00004 	mov	r0, r4
    9164:	e59f302c 	ldr	r3, [pc, #44]	; 9198 <ck_mem_checked_pc+0x5c>
    9168:	e5931000 	ldr	r1, [r3]
    916c:	e59f3028 	ldr	r3, [pc, #40]	; 919c <ck_mem_checked_pc+0x60>
    9170:	e5932000 	ldr	r2, [r3]
    9174:	ebffffdc 	bl	90ec <in_range>
    9178:	e3500000 	cmp	r0, #0
    917c:	08bd8010 	popeq	{r4, pc}
    9180:	e3a00001 	mov	r0, #1
    9184:	e8bd8010 	pop	{r4, pc}
    9188:	e3a00000 	mov	r0, #0
    918c:	e8bd8010 	pop	{r4, pc}
    9190:	0000a704 	andeq	sl, r0, r4, lsl #14
    9194:	0000a708 	andeq	sl, r0, r8, lsl #14
    9198:	0000a6fc 	strdeq	sl, [r0], -ip
    919c:	0000a700 	andeq	sl, r0, r0, lsl #14

000091a0 <ck_mem_stats>:
    91a0:	e92d4038 	push	{r3, r4, r5, lr}
    91a4:	e1a05000 	mov	r5, r0
    91a8:	e59f303c 	ldr	r3, [pc, #60]	; 91ec <ck_mem_stats+0x4c>
    91ac:	e5933000 	ldr	r3, [r3]
    91b0:	e59f2038 	ldr	r2, [pc, #56]	; 91f0 <ck_mem_stats+0x50>
    91b4:	e5924000 	ldr	r4, [r2]
    91b8:	e59f0034 	ldr	r0, [pc, #52]	; 91f4 <ck_mem_stats+0x54>
    91bc:	e0831004 	add	r1, r3, r4
    91c0:	e1a02004 	mov	r2, r4
    91c4:	eb0001bc 	bl	98bc <printk>
    91c8:	e3550000 	cmp	r5, #0
    91cc:	0a000004 	beq	91e4 <ck_mem_stats+0x44>
    91d0:	e3a03000 	mov	r3, #0
    91d4:	e59f2014 	ldr	r2, [pc, #20]	; 91f0 <ck_mem_stats+0x50>
    91d8:	e5823000 	str	r3, [r2]
    91dc:	e59f2008 	ldr	r2, [pc, #8]	; 91ec <ck_mem_stats+0x4c>
    91e0:	e5823000 	str	r3, [r2]
    91e4:	e1a00004 	mov	r0, r4
    91e8:	e8bd8038 	pop	{r3, r4, r5, pc}
    91ec:	0000b7a4 	andeq	fp, r0, r4, lsr #15
    91f0:	0000b7a0 	andeq	fp, r0, r0, lsr #15
    91f4:	0000af80 	andeq	sl, r0, r0, lsl #31

000091f8 <ck_mem_interrupt>:
    91f8:	e92d4010 	push	{r4, lr}
    91fc:	e1a04000 	mov	r4, r0
    9200:	eb0003ff 	bl	a204 <dev_barrier>
    9204:	e1a00004 	mov	r0, r4
    9208:	ebffffcb 	bl	913c <ck_mem_checked_pc>
    920c:	e3500000 	cmp	r0, #0
    9210:	0a000012 	beq	9260 <ck_mem_interrupt+0x68>
    9214:	e59f305c 	ldr	r3, [pc, #92]	; 9278 <ck_mem_interrupt+0x80>
    9218:	e5933000 	ldr	r3, [r3]
    921c:	e3530000 	cmp	r3, #0
    9220:	0a00000e 	beq	9260 <ck_mem_interrupt+0x68>
    9224:	ebfffd31 	bl	86f0 <ck_heap_errors>
    9228:	e3500000 	cmp	r0, #0
    922c:	0a000006 	beq	924c <ck_mem_interrupt+0x54>
    9230:	eb0001bc 	bl	9928 <rpi_reset_putc>
    9234:	e59f0040 	ldr	r0, [pc, #64]	; 927c <ck_mem_interrupt+0x84>
    9238:	e59f1040 	ldr	r1, [pc, #64]	; 9280 <ck_mem_interrupt+0x88>
    923c:	e59f2040 	ldr	r2, [pc, #64]	; 9284 <ck_mem_interrupt+0x8c>
    9240:	e3a03078 	mov	r3, #120	; 0x78
    9244:	eb00019c 	bl	98bc <printk>
    9248:	eb000310 	bl	9e90 <clean_reboot>
    924c:	e59f3034 	ldr	r3, [pc, #52]	; 9288 <ck_mem_interrupt+0x90>
    9250:	e5932000 	ldr	r2, [r3]
    9254:	e2822001 	add	r2, r2, #1
    9258:	e5832000 	str	r2, [r3]
    925c:	ea000003 	b	9270 <ck_mem_interrupt+0x78>
    9260:	e59f3024 	ldr	r3, [pc, #36]	; 928c <ck_mem_interrupt+0x94>
    9264:	e5932000 	ldr	r2, [r3]
    9268:	e2822001 	add	r2, r2, #1
    926c:	e5832000 	str	r2, [r3]
    9270:	eb0003e3 	bl	a204 <dev_barrier>
    9274:	e8bd8010 	pop	{r4, pc}
    9278:	0000b790 	muleq	r0, r0, r7
    927c:	0000afc0 	andeq	sl, r0, r0, asr #31
    9280:	0000af70 	andeq	sl, r0, r0, ror pc
    9284:	0000b13c 	andeq	fp, r0, ip, lsr r1
    9288:	0000b7a0 	andeq	fp, r0, r0, lsr #15
    928c:	0000b7a4 	andeq	fp, r0, r4, lsr #15

00009290 <check_if_rewritten>:
    9290:	e3a03000 	mov	r3, #0
    9294:	e59f1044 	ldr	r1, [pc, #68]	; 92e0 <check_if_rewritten+0x50>
    9298:	ea000003 	b	92ac <check_if_rewritten+0x1c>
    929c:	e7912103 	ldr	r2, [r1, r3, lsl #2]
    92a0:	e1520000 	cmp	r2, r0
    92a4:	0a00000b 	beq	92d8 <check_if_rewritten+0x48>
    92a8:	e2833001 	add	r3, r3, #1
    92ac:	e3530006 	cmp	r3, #6
    92b0:	dafffff9 	ble	929c <check_if_rewritten+0xc>
    92b4:	e59f3028 	ldr	r3, [pc, #40]	; 92e4 <check_if_rewritten+0x54>
    92b8:	e5931000 	ldr	r1, [r3]
    92bc:	e59f201c 	ldr	r2, [pc, #28]	; 92e0 <check_if_rewritten+0x50>
    92c0:	e7820101 	str	r0, [r2, r1, lsl #2]
    92c4:	e5932000 	ldr	r2, [r3]
    92c8:	e2822001 	add	r2, r2, #1
    92cc:	e5832000 	str	r2, [r3]
    92d0:	e3a00000 	mov	r0, #0
    92d4:	e12fff1e 	bx	lr
    92d8:	e3a00001 	mov	r0, #1
    92dc:	e12fff1e 	bx	lr
    92e0:	0000b738 	andeq	fp, r0, r8, lsr r7
    92e4:	0000b788 	andeq	fp, r0, r8, lsl #15

000092e8 <trampoline_mem_interrupt>:
    92e8:	e92d40f8 	push	{r3, r4, r5, r6, r7, lr}
    92ec:	e1a05000 	mov	r5, r0
    92f0:	eb0003c3 	bl	a204 <dev_barrier>
    92f4:	e3a04000 	mov	r4, #0
    92f8:	e59f60ac 	ldr	r6, [pc, #172]	; 93ac <trampoline_mem_interrupt+0xc4>
    92fc:	e3e07345 	mvn	r7, #335544321	; 0x14000001
    9300:	ea00000a 	b	9330 <trampoline_mem_interrupt+0x48>
    9304:	e5950000 	ldr	r0, [r5]
    9308:	e7962104 	ldr	r2, [r6, r4, lsl #2]
    930c:	e1500002 	cmp	r0, r2
    9310:	1a000005 	bne	932c <trampoline_mem_interrupt+0x44>
    9314:	ebffffdd 	bl	9290 <check_if_rewritten>
    9318:	e3500000 	cmp	r0, #0
    931c:	1a000005 	bne	9338 <trampoline_mem_interrupt+0x50>
    9320:	e1a00005 	mov	r0, r5
    9324:	ebffff40 	bl	902c <generate_trampoline_code>
    9328:	e5857000 	str	r7, [r5]
    932c:	e2844001 	add	r4, r4, #1
    9330:	e3540006 	cmp	r4, #6
    9334:	dafffff2 	ble	9304 <trampoline_mem_interrupt+0x1c>
    9338:	e1a00005 	mov	r0, r5
    933c:	ebffff7e 	bl	913c <ck_mem_checked_pc>
    9340:	e3500000 	cmp	r0, #0
    9344:	0a000012 	beq	9394 <trampoline_mem_interrupt+0xac>
    9348:	e59f3060 	ldr	r3, [pc, #96]	; 93b0 <trampoline_mem_interrupt+0xc8>
    934c:	e5933000 	ldr	r3, [r3]
    9350:	e3530000 	cmp	r3, #0
    9354:	0a00000e 	beq	9394 <trampoline_mem_interrupt+0xac>
    9358:	ebfffce4 	bl	86f0 <ck_heap_errors>
    935c:	e3500000 	cmp	r0, #0
    9360:	0a000006 	beq	9380 <trampoline_mem_interrupt+0x98>
    9364:	eb00016f 	bl	9928 <rpi_reset_putc>
    9368:	e59f0044 	ldr	r0, [pc, #68]	; 93b4 <trampoline_mem_interrupt+0xcc>
    936c:	e59f1044 	ldr	r1, [pc, #68]	; 93b8 <trampoline_mem_interrupt+0xd0>
    9370:	e59f2044 	ldr	r2, [pc, #68]	; 93bc <trampoline_mem_interrupt+0xd4>
    9374:	e3a030a8 	mov	r3, #168	; 0xa8
    9378:	eb00014f 	bl	98bc <printk>
    937c:	eb0002c3 	bl	9e90 <clean_reboot>
    9380:	e59f3038 	ldr	r3, [pc, #56]	; 93c0 <trampoline_mem_interrupt+0xd8>
    9384:	e5932000 	ldr	r2, [r3]
    9388:	e2822001 	add	r2, r2, #1
    938c:	e5832000 	str	r2, [r3]
    9390:	ea000003 	b	93a4 <trampoline_mem_interrupt+0xbc>
    9394:	e59f3028 	ldr	r3, [pc, #40]	; 93c4 <trampoline_mem_interrupt+0xdc>
    9398:	e5932000 	ldr	r2, [r3]
    939c:	e2822001 	add	r2, r2, #1
    93a0:	e5832000 	str	r2, [r3]
    93a4:	eb000396 	bl	a204 <dev_barrier>
    93a8:	e8bd80f8 	pop	{r3, r4, r5, r6, r7, pc}
    93ac:	0000b754 	andeq	fp, r0, r4, asr r7
    93b0:	0000b790 	muleq	r0, r0, r7
    93b4:	0000afc0 	andeq	sl, r0, r0, asr #31
    93b8:	0000af70 	andeq	sl, r0, r0, ror pc
    93bc:	0000b150 	andeq	fp, r0, r0, asr r1
    93c0:	0000b7a0 	andeq	fp, r0, r0, lsr #15
    93c4:	0000b7a4 	andeq	fp, r0, r4, lsr #15

000093c8 <ck_mem_init>:
    93c8:	e92d4008 	push	{r3, lr}
    93cc:	e59f3114 	ldr	r3, [pc, #276]	; 94e8 <ck_mem_init+0x120>
    93d0:	e5933000 	ldr	r3, [r3]
    93d4:	e3530000 	cmp	r3, #0
    93d8:	0a000006 	beq	93f8 <ck_mem_init+0x30>
    93dc:	eb000151 	bl	9928 <rpi_reset_putc>
    93e0:	e59f0104 	ldr	r0, [pc, #260]	; 94ec <ck_mem_init+0x124>
    93e4:	e59f1104 	ldr	r1, [pc, #260]	; 94f0 <ck_mem_init+0x128>
    93e8:	e59f2104 	ldr	r2, [pc, #260]	; 94f4 <ck_mem_init+0x12c>
    93ec:	e3a030b7 	mov	r3, #183	; 0xb7
    93f0:	eb000131 	bl	98bc <printk>
    93f4:	eb0002a5 	bl	9e90 <clean_reboot>
    93f8:	e3a02001 	mov	r2, #1
    93fc:	e59f30e4 	ldr	r3, [pc, #228]	; 94e8 <ck_mem_init+0x120>
    9400:	e5832000 	str	r2, [r3]
    9404:	e59f00ec 	ldr	r0, [pc, #236]	; 94f8 <ck_mem_init+0x130>
    9408:	e59f30ec 	ldr	r3, [pc, #236]	; 94fc <ck_mem_init+0x134>
    940c:	e5931000 	ldr	r1, [r3]
    9410:	e59f30e8 	ldr	r3, [pc, #232]	; 9500 <ck_mem_init+0x138>
    9414:	e5932000 	ldr	r2, [r3]
    9418:	ebffff33 	bl	90ec <in_range>
    941c:	e3500000 	cmp	r0, #0
    9420:	1a000006 	bne	9440 <ck_mem_init+0x78>
    9424:	eb00013f 	bl	9928 <rpi_reset_putc>
    9428:	e59f00d4 	ldr	r0, [pc, #212]	; 9504 <ck_mem_init+0x13c>
    942c:	e59f10bc 	ldr	r1, [pc, #188]	; 94f0 <ck_mem_init+0x128>
    9430:	e59f20bc 	ldr	r2, [pc, #188]	; 94f4 <ck_mem_init+0x12c>
    9434:	e3a030ba 	mov	r3, #186	; 0xba
    9438:	eb00011f 	bl	98bc <printk>
    943c:	eb000293 	bl	9e90 <clean_reboot>
    9440:	e59f00c0 	ldr	r0, [pc, #192]	; 9508 <ck_mem_init+0x140>
    9444:	e59f30b0 	ldr	r3, [pc, #176]	; 94fc <ck_mem_init+0x134>
    9448:	e5931000 	ldr	r1, [r3]
    944c:	e59f30ac 	ldr	r3, [pc, #172]	; 9500 <ck_mem_init+0x138>
    9450:	e5932000 	ldr	r2, [r3]
    9454:	ebffff24 	bl	90ec <in_range>
    9458:	e3500000 	cmp	r0, #0
    945c:	1a000006 	bne	947c <ck_mem_init+0xb4>
    9460:	eb000130 	bl	9928 <rpi_reset_putc>
    9464:	e59f00a0 	ldr	r0, [pc, #160]	; 950c <ck_mem_init+0x144>
    9468:	e59f1080 	ldr	r1, [pc, #128]	; 94f0 <ck_mem_init+0x128>
    946c:	e59f2080 	ldr	r2, [pc, #128]	; 94f4 <ck_mem_init+0x12c>
    9470:	e3a030bb 	mov	r3, #187	; 0xbb
    9474:	eb000110 	bl	98bc <printk>
    9478:	eb000284 	bl	9e90 <clean_reboot>
    947c:	e59f008c 	ldr	r0, [pc, #140]	; 9510 <ck_mem_init+0x148>
    9480:	e59f3074 	ldr	r3, [pc, #116]	; 94fc <ck_mem_init+0x134>
    9484:	e5931000 	ldr	r1, [r3]
    9488:	e59f3070 	ldr	r3, [pc, #112]	; 9500 <ck_mem_init+0x138>
    948c:	e5932000 	ldr	r2, [r3]
    9490:	ebffff15 	bl	90ec <in_range>
    9494:	e3500000 	cmp	r0, #0
    9498:	0a000006 	beq	94b8 <ck_mem_init+0xf0>
    949c:	eb000121 	bl	9928 <rpi_reset_putc>
    94a0:	e59f006c 	ldr	r0, [pc, #108]	; 9514 <ck_mem_init+0x14c>
    94a4:	e59f1044 	ldr	r1, [pc, #68]	; 94f0 <ck_mem_init+0x128>
    94a8:	e59f2044 	ldr	r2, [pc, #68]	; 94f4 <ck_mem_init+0x12c>
    94ac:	e3a030bc 	mov	r3, #188	; 0xbc
    94b0:	eb000101 	bl	98bc <printk>
    94b4:	eb000275 	bl	9e90 <clean_reboot>
    94b8:	ebfffef6 	bl	9098 <encode_target_instructions>
    94bc:	e59f3054 	ldr	r3, [pc, #84]	; 9518 <ck_mem_init+0x150>
    94c0:	e59f0054 	ldr	r0, [pc, #84]	; 951c <ck_mem_init+0x154>
    94c4:	e0630000 	rsb	r0, r3, r0
    94c8:	eb000427 	bl	a56c <kmalloc>
    94cc:	e59f304c 	ldr	r3, [pc, #76]	; 9520 <ck_mem_init+0x158>
    94d0:	e5830000 	str	r0, [r3]
    94d4:	eb0002d9 	bl	a040 <int_init>
    94d8:	e3a00002 	mov	r0, #2
    94dc:	eb000316 	bl	a13c <timer_interrupt_init>
    94e0:	eb00047c 	bl	a6d8 <system_enable_interrupts>
    94e4:	e8bd8008 	pop	{r3, pc}
    94e8:	0000b78c 	andeq	fp, r0, ip, lsl #15
    94ec:	0000afdc 	ldrdeq	sl, [r0], -ip
    94f0:	0000af70 	andeq	sl, r0, r0, ror pc
    94f4:	0000b16c 	andeq	fp, r0, ip, ror #2
    94f8:	000084b0 			; <UNDEFINED> instruction: 0x000084b0
    94fc:	0000a704 	andeq	sl, r0, r4, lsl #14
    9500:	0000a708 	andeq	sl, r0, r8, lsl #14
    9504:	0000aff4 	strdeq	sl, [r0], -r4
    9508:	000083dc 	ldrdeq	r8, [r0], -ip
    950c:	0000b03c 	andeq	fp, r0, ip, lsr r0
    9510:	000098bc 			; <UNDEFINED> instruction: 0x000098bc
    9514:	0000b084 	andeq	fp, r0, r4, lsl #1
    9518:	00008000 	andeq	r8, r0, r0
    951c:	0000a6f8 	strdeq	sl, [r0], -r8
    9520:	0000b784 	andeq	fp, r0, r4, lsl #15

00009524 <ck_mem_set_range>:
    9524:	e92d4008 	push	{r3, lr}
    9528:	e1500001 	cmp	r0, r1
    952c:	3a000006 	bcc	954c <ck_mem_set_range+0x28>
    9530:	eb0000fc 	bl	9928 <rpi_reset_putc>
    9534:	e59f0024 	ldr	r0, [pc, #36]	; 9560 <ck_mem_set_range+0x3c>
    9538:	e59f1024 	ldr	r1, [pc, #36]	; 9564 <ck_mem_set_range+0x40>
    953c:	e59f2024 	ldr	r2, [pc, #36]	; 9568 <ck_mem_set_range+0x44>
    9540:	e3a030ca 	mov	r3, #202	; 0xca
    9544:	eb0000dc 	bl	98bc <printk>
    9548:	eb000250 	bl	9e90 <clean_reboot>
    954c:	e59f3018 	ldr	r3, [pc, #24]	; 956c <ck_mem_set_range+0x48>
    9550:	e5830000 	str	r0, [r3]
    9554:	e59f3014 	ldr	r3, [pc, #20]	; 9570 <ck_mem_set_range+0x4c>
    9558:	e5831000 	str	r1, [r3]
    955c:	e8bd8008 	pop	{r3, pc}
    9560:	0000b0cc 	andeq	fp, r0, ip, asr #1
    9564:	0000af70 	andeq	sl, r0, r0, ror pc
    9568:	0000b178 	andeq	fp, r0, r8, ror r1
    956c:	0000a6fc 	strdeq	sl, [r0], -ip
    9570:	0000a700 	andeq	sl, r0, r0, lsl #14

00009574 <ck_mem_on>:
    9574:	e92d4008 	push	{r3, lr}
    9578:	e59f3064 	ldr	r3, [pc, #100]	; 95e4 <ck_mem_on+0x70>
    957c:	e5933000 	ldr	r3, [r3]
    9580:	e3530000 	cmp	r3, #0
    9584:	0a000005 	beq	95a0 <ck_mem_on+0x2c>
    9588:	e59f3058 	ldr	r3, [pc, #88]	; 95e8 <ck_mem_on+0x74>
    958c:	e5933000 	ldr	r3, [r3]
    9590:	e3530000 	cmp	r3, #0
    9594:	0a000003 	beq	95a8 <ck_mem_on+0x34>
    9598:	e3a03000 	mov	r3, #0
    959c:	ea000002 	b	95ac <ck_mem_on+0x38>
    95a0:	e3a03000 	mov	r3, #0
    95a4:	ea000000 	b	95ac <ck_mem_on+0x38>
    95a8:	e3a03001 	mov	r3, #1
    95ac:	e3530000 	cmp	r3, #0
    95b0:	1a000006 	bne	95d0 <ck_mem_on+0x5c>
    95b4:	eb0000db 	bl	9928 <rpi_reset_putc>
    95b8:	e59f002c 	ldr	r0, [pc, #44]	; 95ec <ck_mem_on+0x78>
    95bc:	e59f102c 	ldr	r1, [pc, #44]	; 95f0 <ck_mem_on+0x7c>
    95c0:	e59f202c 	ldr	r2, [pc, #44]	; 95f4 <ck_mem_on+0x80>
    95c4:	e3a030d1 	mov	r3, #209	; 0xd1
    95c8:	eb0000bb 	bl	98bc <printk>
    95cc:	eb00022f 	bl	9e90 <clean_reboot>
    95d0:	e3a02001 	mov	r2, #1
    95d4:	e59f300c 	ldr	r3, [pc, #12]	; 95e8 <ck_mem_on+0x74>
    95d8:	e5832000 	str	r2, [r3]
    95dc:	eb00043d 	bl	a6d8 <system_enable_interrupts>
    95e0:	e8bd8008 	pop	{r3, pc}
    95e4:	0000b78c 	andeq	fp, r0, ip, lsl #15
    95e8:	0000b790 	muleq	r0, r0, r7
    95ec:	0000b0e8 	andeq	fp, r0, r8, ror #1
    95f0:	0000af70 	andeq	sl, r0, r0, ror pc
    95f4:	0000b18c 	andeq	fp, r0, ip, lsl #3

000095f8 <ck_mem_off>:
    95f8:	e92d4008 	push	{r3, lr}
    95fc:	e59f3060 	ldr	r3, [pc, #96]	; 9664 <ck_mem_off+0x6c>
    9600:	e5933000 	ldr	r3, [r3]
    9604:	e3530000 	cmp	r3, #0
    9608:	0a000004 	beq	9620 <ck_mem_off+0x28>
    960c:	e59f3054 	ldr	r3, [pc, #84]	; 9668 <ck_mem_off+0x70>
    9610:	e5933000 	ldr	r3, [r3]
    9614:	e3530000 	cmp	r3, #0
    9618:	1a000002 	bne	9628 <ck_mem_off+0x30>
    961c:	ea000002 	b	962c <ck_mem_off+0x34>
    9620:	e3a03000 	mov	r3, #0
    9624:	ea000000 	b	962c <ck_mem_off+0x34>
    9628:	e3a03001 	mov	r3, #1
    962c:	e3530000 	cmp	r3, #0
    9630:	1a000006 	bne	9650 <ck_mem_off+0x58>
    9634:	eb0000bb 	bl	9928 <rpi_reset_putc>
    9638:	e59f002c 	ldr	r0, [pc, #44]	; 966c <ck_mem_off+0x74>
    963c:	e59f102c 	ldr	r1, [pc, #44]	; 9670 <ck_mem_off+0x78>
    9640:	e59f202c 	ldr	r2, [pc, #44]	; 9674 <ck_mem_off+0x7c>
    9644:	e3a030d9 	mov	r3, #217	; 0xd9
    9648:	eb00009b 	bl	98bc <printk>
    964c:	eb00020f 	bl	9e90 <clean_reboot>
    9650:	eb000424 	bl	a6e8 <system_disable_interrupts>
    9654:	e3a02000 	mov	r2, #0
    9658:	e59f3008 	ldr	r3, [pc, #8]	; 9668 <ck_mem_off+0x70>
    965c:	e5832000 	str	r2, [r3]
    9660:	e8bd8008 	pop	{r3, pc}
    9664:	0000b78c 	andeq	fp, r0, ip, lsl #15
    9668:	0000b790 	muleq	r0, r0, r7
    966c:	0000b10c 	andeq	fp, r0, ip, lsl #2
    9670:	0000af70 	andeq	sl, r0, r0, ror pc
    9674:	0000b198 	muleq	r0, r8, r1

00009678 <interrupt_vector>:
    9678:	e92d4010 	push	{r4, lr}
    967c:	e1a04000 	mov	r4, r0
    9680:	eb0002df 	bl	a204 <dev_barrier>
    9684:	e59f0070 	ldr	r0, [pc, #112]	; 96fc <interrupt_vector+0x84>
    9688:	eb0002f1 	bl	a254 <GET32>
    968c:	e3100001 	tst	r0, #1
    9690:	08bd8010 	popeq	{r4, pc}
    9694:	e59f0064 	ldr	r0, [pc, #100]	; 9700 <interrupt_vector+0x88>
    9698:	e3a01001 	mov	r1, #1
    969c:	eb0002e0 	bl	a224 <PUT32>
    96a0:	eb0002d7 	bl	a204 <dev_barrier>
    96a4:	e59f3058 	ldr	r3, [pc, #88]	; 9704 <interrupt_vector+0x8c>
    96a8:	e5932000 	ldr	r2, [r3]
    96ac:	e2822001 	add	r2, r2, #1
    96b0:	e5832000 	str	r2, [r3]
    96b4:	e1a00004 	mov	r0, r4
    96b8:	ebffff0a 	bl	92e8 <trampoline_mem_interrupt>
    96bc:	eb0002ba 	bl	a1ac <timer_get_usec>
    96c0:	e59f3040 	ldr	r3, [pc, #64]	; 9708 <interrupt_vector+0x90>
    96c4:	e5933000 	ldr	r3, [r3]
    96c8:	e3530000 	cmp	r3, #0
    96cc:	10633000 	rsbne	r3, r3, r0
    96d0:	03a03000 	moveq	r3, #0
    96d4:	e59f2030 	ldr	r2, [pc, #48]	; 970c <interrupt_vector+0x94>
    96d8:	e5823000 	str	r3, [r2]
    96dc:	e59f302c 	ldr	r3, [pc, #44]	; 9710 <interrupt_vector+0x98>
    96e0:	e5931000 	ldr	r1, [r3]
    96e4:	e5922000 	ldr	r2, [r2]
    96e8:	e0812002 	add	r2, r1, r2
    96ec:	e5832000 	str	r2, [r3]
    96f0:	e59f3010 	ldr	r3, [pc, #16]	; 9708 <interrupt_vector+0x90>
    96f4:	e5830000 	str	r0, [r3]
    96f8:	e8bd8010 	pop	{r4, pc}
    96fc:	2000b200 	andcs	fp, r0, r0, lsl #4
    9700:	2000b40c 	andcs	fp, r0, ip, lsl #8
    9704:	0000b794 	muleq	r0, r4, r7
    9708:	0000b7a8 	andeq	fp, r0, r8, lsr #15
    970c:	0000b798 	muleq	r0, r8, r7
    9710:	0000b79c 	muleq	r0, ip, r7

00009714 <_interrupt_table>:
    9714:	e59ff020 	ldr	pc, [pc, #32]	; 973c <_reset_asm>
    9718:	e59ff020 	ldr	pc, [pc, #32]	; 9740 <_undefined_instruction_asm>
    971c:	e59ff020 	ldr	pc, [pc, #32]	; 9744 <_software_interrupt_asm>
    9720:	e59ff020 	ldr	pc, [pc, #32]	; 9748 <_prefetch_abort_asm>
    9724:	e59ff020 	ldr	pc, [pc, #32]	; 974c <_data_abort_asm>
    9728:	e59ff00c 	ldr	pc, [pc, #12]	; 973c <_reset_asm>
    972c:	e59ff01c 	ldr	pc, [pc, #28]	; 9750 <_interrupt_asm>

00009730 <fast_interrupt_asm>:
    9730:	e3a0d409 	mov	sp, #150994944	; 0x9000000
    9734:	e24ee004 	sub	lr, lr, #4
    9738:	eb0001fc 	bl	9f30 <fast_interrupt_vector>

0000973c <_reset_asm>:
    973c:	00009770 	andeq	r9, r0, r0, ror r7

00009740 <_undefined_instruction_asm>:
    9740:	0000977c 	andeq	r9, r0, ip, ror r7

00009744 <_software_interrupt_asm>:
    9744:	00009788 	andeq	r9, r0, r8, lsl #15

00009748 <_prefetch_abort_asm>:
    9748:	00009794 	muleq	r0, r4, r7

0000974c <_data_abort_asm>:
    974c:	000097a0 	andeq	r9, r0, r0, lsr #15

00009750 <_interrupt_asm>:
    9750:	00009754 	andeq	r9, r0, r4, asr r7

00009754 <_interrupt_table_end>:
    9754:	e3a0d409 	mov	sp, #150994944	; 0x9000000
    9758:	e24ee004 	sub	lr, lr, #4
    975c:	e92d5fff 	push	{r0, r1, r2, r3, r4, r5, r6, r7, r8, r9, sl, fp, ip, lr}
    9760:	e1a0000e 	mov	r0, lr
    9764:	ebffffc3 	bl	9678 <interrupt_vector>
    9768:	e8bd5fff 	pop	{r0, r1, r2, r3, r4, r5, r6, r7, r8, r9, sl, fp, ip, lr}
    976c:	e1b0f00e 	movs	pc, lr

00009770 <reset_asm>:
    9770:	e3a0d409 	mov	sp, #150994944	; 0x9000000
    9774:	e24ee004 	sub	lr, lr, #4
    9778:	eb00020e 	bl	9fb8 <reset_vector>

0000977c <undefined_instruction_asm>:
    977c:	e3a0d409 	mov	sp, #150994944	; 0x9000000
    9780:	e24ee004 	sub	lr, lr, #4
    9784:	eb0003c2 	bl	a694 <undefined_instruction_vector>

00009788 <software_interrupt_asm>:
    9788:	e3a0d409 	mov	sp, #150994944	; 0x9000000
    978c:	e24ee004 	sub	lr, lr, #4
    9790:	eb000219 	bl	9ffc <software_interrupt_vector>

00009794 <prefetch_abort_asm>:
    9794:	e3a0d409 	mov	sp, #150994944	; 0x9000000
    9798:	e24ee004 	sub	lr, lr, #4
    979c:	eb0001f4 	bl	9f74 <prefetch_abort_vector>

000097a0 <data_abort_asm>:
    97a0:	e3a0d409 	mov	sp, #150994944	; 0x9000000
    97a4:	e24ee004 	sub	lr, lr, #4
    97a8:	eb0001cf 	bl	9eec <data_abort_vector>

000097ac <fast_hash>:
    97ac:	e52d4004 	push	{r4}		; (str r4, [sp, #-4]!)
    97b0:	e1a02001 	mov	r2, r1
    97b4:	e1a03000 	mov	r3, r0
    97b8:	e3500000 	cmp	r0, #0
    97bc:	13510000 	cmpne	r1, #0
    97c0:	da000032 	ble	9890 <fast_hash+0xe4>
    97c4:	e2014003 	and	r4, r1, #3
    97c8:	e1a01141 	asr	r1, r1, #2
    97cc:	ea00000b 	b	9800 <fast_hash+0x54>
    97d0:	e5d3c001 	ldrb	ip, [r3, #1]
    97d4:	e5d30000 	ldrb	r0, [r3]
    97d8:	e080040c 	add	r0, r0, ip, lsl #8
    97dc:	e0800002 	add	r0, r0, r2
    97e0:	e5d3c003 	ldrb	ip, [r3, #3]
    97e4:	e5d32002 	ldrb	r2, [r3, #2]
    97e8:	e082240c 	add	r2, r2, ip, lsl #8
    97ec:	e0202582 	eor	r2, r0, r2, lsl #11
    97f0:	e0222800 	eor	r2, r2, r0, lsl #16
    97f4:	e2833004 	add	r3, r3, #4
    97f8:	e08225a2 	add	r2, r2, r2, lsr #11
    97fc:	e2411001 	sub	r1, r1, #1
    9800:	e3510000 	cmp	r1, #0
    9804:	cafffff1 	bgt	97d0 <fast_hash+0x24>
    9808:	e3540002 	cmp	r4, #2
    980c:	0a00000d 	beq	9848 <fast_hash+0x9c>
    9810:	e3540003 	cmp	r4, #3
    9814:	0a000002 	beq	9824 <fast_hash+0x78>
    9818:	e3540001 	cmp	r4, #1
    981c:	1a000014 	bne	9874 <fast_hash+0xc8>
    9820:	ea00000f 	b	9864 <fast_hash+0xb8>
    9824:	e5d30001 	ldrb	r0, [r3, #1]
    9828:	e5d31000 	ldrb	r1, [r3]
    982c:	e0811400 	add	r1, r1, r0, lsl #8
    9830:	e0812002 	add	r2, r1, r2
    9834:	e0222802 	eor	r2, r2, r2, lsl #16
    9838:	e1d330d2 	ldrsb	r3, [r3, #2]
    983c:	e0222903 	eor	r2, r2, r3, lsl #18
    9840:	e08225a2 	add	r2, r2, r2, lsr #11
    9844:	ea00000a 	b	9874 <fast_hash+0xc8>
    9848:	e5d31001 	ldrb	r1, [r3, #1]
    984c:	e5d33000 	ldrb	r3, [r3]
    9850:	e0833401 	add	r3, r3, r1, lsl #8
    9854:	e0832002 	add	r2, r3, r2
    9858:	e0222582 	eor	r2, r2, r2, lsl #11
    985c:	e08228a2 	add	r2, r2, r2, lsr #17
    9860:	ea000003 	b	9874 <fast_hash+0xc8>
    9864:	e1d330d0 	ldrsb	r3, [r3]
    9868:	e0832002 	add	r2, r3, r2
    986c:	e0222502 	eor	r2, r2, r2, lsl #10
    9870:	e08220a2 	add	r2, r2, r2, lsr #1
    9874:	e0220182 	eor	r0, r2, r2, lsl #3
    9878:	e08002a0 	add	r0, r0, r0, lsr #5
    987c:	e0200200 	eor	r0, r0, r0, lsl #4
    9880:	e08008a0 	add	r0, r0, r0, lsr #17
    9884:	e0200c80 	eor	r0, r0, r0, lsl #25
    9888:	e0800320 	add	r0, r0, r0, lsr #6
    988c:	ea000000 	b	9894 <fast_hash+0xe8>
    9890:	e3a00000 	mov	r0, #0
    9894:	e49d4004 	pop	{r4}		; (ldr r4, [sp], #4)
    9898:	e12fff1e 	bx	lr

0000989c <memset>:
    989c:	e0802002 	add	r2, r0, r2
    98a0:	e1a03000 	mov	r3, r0
    98a4:	ea000001 	b	98b0 <memset+0x14>
    98a8:	e5c31000 	strb	r1, [r3]
    98ac:	e2833001 	add	r3, r3, #1
    98b0:	e1530002 	cmp	r3, r2
    98b4:	3afffffb 	bcc	98a8 <memset+0xc>
    98b8:	e12fff1e 	bx	lr

000098bc <printk>:
    98bc:	e92d000f 	push	{r0, r1, r2, r3}
    98c0:	e92d4030 	push	{r4, r5, lr}
    98c4:	e24dd00c 	sub	sp, sp, #12
    98c8:	e28d301c 	add	r3, sp, #28
    98cc:	e58d3004 	str	r3, [sp, #4]
    98d0:	e59f4034 	ldr	r4, [pc, #52]	; 990c <printk+0x50>
    98d4:	e1a00004 	mov	r0, r4
    98d8:	e3a01b01 	mov	r1, #1024	; 0x400
    98dc:	e59d2018 	ldr	r2, [sp, #24]
    98e0:	eb0000c8 	bl	9c08 <va_printk>
    98e4:	e1a05000 	mov	r5, r0
    98e8:	e59f3020 	ldr	r3, [pc, #32]	; 9910 <printk+0x54>
    98ec:	e5933000 	ldr	r3, [r3]
    98f0:	e1a00004 	mov	r0, r4
    98f4:	e12fff33 	blx	r3
    98f8:	e1a00005 	mov	r0, r5
    98fc:	e28dd00c 	add	sp, sp, #12
    9900:	e8bd4030 	pop	{r4, r5, lr}
    9904:	e28dd010 	add	sp, sp, #16
    9908:	e12fff1e 	bx	lr
    990c:	0000b7ac 	andeq	fp, r0, ip, lsr #15
    9910:	0000a710 	andeq	sl, r0, r0, lsl r7

00009914 <internal_putchar>:
    9914:	e92d4010 	push	{r4, lr}
    9918:	e1a04000 	mov	r4, r0
    991c:	eb00029f 	bl	a3a0 <uart_putc>
    9920:	e1a00004 	mov	r0, r4
    9924:	e8bd8010 	pop	{r4, pc}

00009928 <rpi_reset_putc>:
    9928:	e59f2008 	ldr	r2, [pc, #8]	; 9938 <rpi_reset_putc+0x10>
    992c:	e59f3008 	ldr	r3, [pc, #8]	; 993c <rpi_reset_putc+0x14>
    9930:	e5832000 	str	r2, [r3]
    9934:	e12fff1e 	bx	lr
    9938:	00009914 	andeq	r9, r0, r4, lsl r9
    993c:	0000a70c 	andeq	sl, r0, ip, lsl #14

00009940 <rpi_set_putc>:
    9940:	e59f3004 	ldr	r3, [pc, #4]	; 994c <rpi_set_putc+0xc>
    9944:	e5830000 	str	r0, [r3]
    9948:	e12fff1e 	bx	lr
    994c:	0000a70c 	andeq	sl, r0, ip, lsl #14

00009950 <internal_putk>:
    9950:	e92d4038 	push	{r3, r4, r5, lr}
    9954:	e1a04000 	mov	r4, r0
    9958:	e59f5020 	ldr	r5, [pc, #32]	; 9980 <internal_putk+0x30>
    995c:	ea000002 	b	996c <internal_putk+0x1c>
    9960:	e5953000 	ldr	r3, [r5]
    9964:	e12fff33 	blx	r3
    9968:	e2844001 	add	r4, r4, #1
    996c:	e5d40000 	ldrb	r0, [r4]
    9970:	e3500000 	cmp	r0, #0
    9974:	1afffff9 	bne	9960 <internal_putk+0x10>
    9978:	e3a00001 	mov	r0, #1
    997c:	e8bd8038 	pop	{r3, r4, r5, pc}
    9980:	0000a70c 	andeq	sl, r0, ip, lsl #14

00009984 <isdigit>:
    9984:	e2400030 	sub	r0, r0, #48	; 0x30
    9988:	e3500009 	cmp	r0, #9
    998c:	83a00000 	movhi	r0, #0
    9990:	93a00001 	movls	r0, #1
    9994:	e12fff1e 	bx	lr

00009998 <pad>:
    9998:	e0611000 	rsb	r1, r1, r0
    999c:	e3a03020 	mov	r3, #32
    99a0:	ea000002 	b	99b0 <pad+0x18>
    99a4:	e5c03000 	strb	r3, [r0]
    99a8:	e2811001 	add	r1, r1, #1
    99ac:	e2800001 	add	r0, r0, #1
    99b0:	e1510002 	cmp	r1, r2
    99b4:	bafffffa 	blt	99a4 <pad+0xc>
    99b8:	e3a03000 	mov	r3, #0
    99bc:	e5c03000 	strb	r3, [r0]
    99c0:	e12fff1e 	bx	lr

000099c4 <reverse>:
    99c4:	e063c002 	rsb	ip, r3, r2
    99c8:	e28cc001 	add	ip, ip, #1
    99cc:	e15c0001 	cmp	ip, r1
    99d0:	c061100c 	rsbgt	r1, r1, ip
    99d4:	c0833001 	addgt	r3, r3, r1
    99d8:	e2422001 	sub	r2, r2, #1
    99dc:	e1a01000 	mov	r1, r0
    99e0:	ea000002 	b	99f0 <reverse+0x2c>
    99e4:	e452c001 	ldrb	ip, [r2], #-1
    99e8:	e5c1c000 	strb	ip, [r1]
    99ec:	e2811001 	add	r1, r1, #1
    99f0:	e1520003 	cmp	r2, r3
    99f4:	2afffffa 	bcs	99e4 <reverse+0x20>
    99f8:	e3a03000 	mov	r3, #0
    99fc:	e5c13000 	strb	r3, [r1]
    9a00:	e12fff1e 	bx	lr

00009a04 <emit>:
    9a04:	e92d41f0 	push	{r4, r5, r6, r7, r8, lr}
    9a08:	e24dd040 	sub	sp, sp, #64	; 0x40
    9a0c:	e1a05001 	mov	r5, r1
    9a10:	e1a04002 	mov	r4, r2
    9a14:	e59d2058 	ldr	r2, [sp, #88]	; 0x58
    9a18:	e1520004 	cmp	r2, r4
    9a1c:	c2442001 	subgt	r2, r4, #1
    9a20:	e1a0c003 	mov	ip, r3
    9a24:	e2400002 	sub	r0, r0, #2
    9a28:	e350000e 	cmp	r0, #14
    9a2c:	979ff100 	ldrls	pc, [pc, r0, lsl #2]
    9a30:	ea000048 	b	9b58 <emit+0x154>
    9a34:	00009b30 	andeq	r9, r0, r0, lsr fp
    9a38:	00009b58 	andeq	r9, r0, r8, asr fp
    9a3c:	00009b58 	andeq	r9, r0, r8, asr fp
    9a40:	00009b58 	andeq	r9, r0, r8, asr fp
    9a44:	00009b58 	andeq	r9, r0, r8, asr fp
    9a48:	00009b58 	andeq	r9, r0, r8, asr fp
    9a4c:	00009b24 	andeq	r9, r0, r4, lsr #22
    9a50:	00009b58 	andeq	r9, r0, r8, asr fp
    9a54:	00009a70 	andeq	r9, r0, r0, ror sl
    9a58:	00009b58 	andeq	r9, r0, r8, asr fp
    9a5c:	00009b58 	andeq	r9, r0, r8, asr fp
    9a60:	00009b58 	andeq	r9, r0, r8, asr fp
    9a64:	00009b58 	andeq	r9, r0, r8, asr fp
    9a68:	00009b58 	andeq	r9, r0, r8, asr fp
    9a6c:	00009ae4 	andeq	r9, r0, r4, ror #21
    9a70:	e59d105c 	ldr	r1, [sp, #92]	; 0x5c
    9a74:	e2911000 	adds	r1, r1, #0
    9a78:	13a01001 	movne	r1, #1
    9a7c:	e0111fa3 	ands	r1, r1, r3, lsr #31
    9a80:	1263c000 	rsbne	ip, r3, #0
    9a84:	13a08001 	movne	r8, #1
    9a88:	03a08000 	moveq	r8, #0
    9a8c:	e1a0100d 	mov	r1, sp
    9a90:	e59f7100 	ldr	r7, [pc, #256]	; 9b98 <emit+0x194>
    9a94:	e59f6100 	ldr	r6, [pc, #256]	; 9b9c <emit+0x198>
    9a98:	ea000000 	b	9aa0 <emit+0x9c>
    9a9c:	e1a01000 	mov	r1, r0
    9aa0:	e2810001 	add	r0, r1, #1
    9aa4:	e083ec97 	umull	lr, r3, r7, ip
    9aa8:	e1a031a3 	lsr	r3, r3, #3
    9aac:	e1a0e003 	mov	lr, r3
    9ab0:	e0833103 	add	r3, r3, r3, lsl #2
    9ab4:	e1a03083 	lsl	r3, r3, #1
    9ab8:	e063300c 	rsb	r3, r3, ip
    9abc:	e7d63003 	ldrb	r3, [r6, r3]
    9ac0:	e5c13000 	strb	r3, [r1]
    9ac4:	e1a0c00e 	mov	ip, lr
    9ac8:	e35e0000 	cmp	lr, #0
    9acc:	1afffff2 	bne	9a9c <emit+0x98>
    9ad0:	e3580000 	cmp	r8, #0
    9ad4:	12810002 	addne	r0, r1, #2
    9ad8:	13a0302d 	movne	r3, #45	; 0x2d
    9adc:	15c13001 	strbne	r3, [r1, #1]
    9ae0:	ea000023 	b	9b74 <emit+0x170>
    9ae4:	e1a0300d 	mov	r3, sp
    9ae8:	e59fe0b0 	ldr	lr, [pc, #176]	; 9ba0 <emit+0x19c>
    9aec:	ea000000 	b	9af4 <emit+0xf0>
    9af0:	e1a03000 	mov	r3, r0
    9af4:	e2830001 	add	r0, r3, #1
    9af8:	e20c100f 	and	r1, ip, #15
    9afc:	e7de1001 	ldrb	r1, [lr, r1]
    9b00:	e5c31000 	strb	r1, [r3]
    9b04:	e1b0c22c 	lsrs	ip, ip, #4
    9b08:	1afffff8 	bne	9af0 <emit+0xec>
    9b0c:	e3a01078 	mov	r1, #120	; 0x78
    9b10:	e5c31001 	strb	r1, [r3, #1]
    9b14:	e2830003 	add	r0, r3, #3
    9b18:	e3a01030 	mov	r1, #48	; 0x30
    9b1c:	e5c31002 	strb	r1, [r3, #2]
    9b20:	ea000013 	b	9b74 <emit+0x170>
    9b24:	e5cd3000 	strb	r3, [sp]
    9b28:	e28d0001 	add	r0, sp, #1
    9b2c:	ea000010 	b	9b74 <emit+0x170>
    9b30:	e1a0300d 	mov	r3, sp
    9b34:	e59fe068 	ldr	lr, [pc, #104]	; 9ba4 <emit+0x1a0>
    9b38:	e2830001 	add	r0, r3, #1
    9b3c:	e20c1001 	and	r1, ip, #1
    9b40:	e7de1001 	ldrb	r1, [lr, r1]
    9b44:	e5c31000 	strb	r1, [r3]
    9b48:	e1a03000 	mov	r3, r0
    9b4c:	e1b0c0ac 	lsrs	ip, ip, #1
    9b50:	1afffff8 	bne	9b38 <emit+0x134>
    9b54:	ea000006 	b	9b74 <emit+0x170>
    9b58:	ebffff72 	bl	9928 <rpi_reset_putc>
    9b5c:	e59f0044 	ldr	r0, [pc, #68]	; 9ba8 <emit+0x1a4>
    9b60:	e59f1044 	ldr	r1, [pc, #68]	; 9bac <emit+0x1a8>
    9b64:	e59f2044 	ldr	r2, [pc, #68]	; 9bb0 <emit+0x1ac>
    9b68:	e3a03077 	mov	r3, #119	; 0x77
    9b6c:	ebffff52 	bl	98bc <printk>
    9b70:	eb0000c6 	bl	9e90 <clean_reboot>
    9b74:	e1a0100d 	mov	r1, sp
    9b78:	ebffff86 	bl	9998 <pad>
    9b7c:	e1a02000 	mov	r2, r0
    9b80:	e1a00005 	mov	r0, r5
    9b84:	e1a01004 	mov	r1, r4
    9b88:	e1a0300d 	mov	r3, sp
    9b8c:	ebffff8c 	bl	99c4 <reverse>
    9b90:	e28dd040 	add	sp, sp, #64	; 0x40
    9b94:	e8bd81f0 	pop	{r4, r5, r6, r7, r8, pc}
    9b98:	cccccccd 	stclgt	12, cr12, [ip], {205}	; 0xcd
    9b9c:	0000b1f0 	strdeq	fp, [r0], -r0
    9ba0:	0000b1fc 	strdeq	fp, [r0], -ip
    9ba4:	0000b210 	andeq	fp, r0, r0, lsl r2
    9ba8:	0000b1c8 	andeq	fp, r0, r8, asr #3
    9bac:	0000b1dc 	ldrdeq	fp, [r0], -ip
    9bb0:	0000b1a4 	andeq	fp, r0, r4, lsr #3

00009bb4 <rpi_set_output>:
    9bb4:	e92d4008 	push	{r3, lr}
    9bb8:	e3500000 	cmp	r0, #0
    9bbc:	1a000006 	bne	9bdc <rpi_set_output+0x28>
    9bc0:	ebffff58 	bl	9928 <rpi_reset_putc>
    9bc4:	e59f0028 	ldr	r0, [pc, #40]	; 9bf4 <rpi_set_output+0x40>
    9bc8:	e59f1028 	ldr	r1, [pc, #40]	; 9bf8 <rpi_set_output+0x44>
    9bcc:	e59f2028 	ldr	r2, [pc, #40]	; 9bfc <rpi_set_output+0x48>
    9bd0:	e3a03020 	mov	r3, #32
    9bd4:	ebffff38 	bl	98bc <printk>
    9bd8:	eb0000ac 	bl	9e90 <clean_reboot>
    9bdc:	e59f301c 	ldr	r3, [pc, #28]	; 9c00 <rpi_set_output+0x4c>
    9be0:	e5830000 	str	r0, [r3]
    9be4:	e3510000 	cmp	r1, #0
    9be8:	159f3014 	ldrne	r3, [pc, #20]	; 9c04 <rpi_set_output+0x50>
    9bec:	15831000 	strne	r1, [r3]
    9bf0:	e8bd8008 	pop	{r3, pc}
    9bf4:	0000b214 	andeq	fp, r0, r4, lsl r2
    9bf8:	0000b1dc 	ldrdeq	fp, [r0], -ip
    9bfc:	0000b1ac 	andeq	fp, r0, ip, lsr #3
    9c00:	0000a70c 	andeq	sl, r0, ip, lsl #14
    9c04:	0000a710 	andeq	sl, r0, r0, lsl r7

00009c08 <va_printk>:
    9c08:	e92d4ff0 	push	{r4, r5, r6, r7, r8, r9, sl, fp, lr}
    9c0c:	e24dd08c 	sub	sp, sp, #140	; 0x8c
    9c10:	e1a0a000 	mov	sl, r0
    9c14:	e1a09003 	mov	r9, r3
    9c18:	e2411001 	sub	r1, r1, #1
    9c1c:	e0808001 	add	r8, r0, r1
    9c20:	e3a03000 	mov	r3, #0
    9c24:	e5c03000 	strb	r3, [r0]
    9c28:	e1a04000 	mov	r4, r0
    9c2c:	e1a0b003 	mov	fp, r3
    9c30:	ea000086 	b	9e50 <va_printk+0x248>
    9c34:	e3530025 	cmp	r3, #37	; 0x25
    9c38:	12822001 	addne	r2, r2, #1
    9c3c:	15c43000 	strbne	r3, [r4]
    9c40:	12844001 	addne	r4, r4, #1
    9c44:	1a000081 	bne	9e50 <va_printk+0x248>
    9c48:	e5d21001 	ldrb	r1, [r2, #1]
    9c4c:	e3510025 	cmp	r1, #37	; 0x25
    9c50:	05c43000 	strbeq	r3, [r4]
    9c54:	02822002 	addeq	r2, r2, #2
    9c58:	02844001 	addeq	r4, r4, #1
    9c5c:	0a00007b 	beq	9e50 <va_printk+0x248>
    9c60:	e2826001 	add	r6, r2, #1
    9c64:	e1a0700b 	mov	r7, fp
    9c68:	ea000004 	b	9c80 <va_printk+0x78>
    9c6c:	e0877107 	add	r7, r7, r7, lsl #2
    9c70:	e1a07087 	lsl	r7, r7, #1
    9c74:	e0877005 	add	r7, r7, r5
    9c78:	e2477030 	sub	r7, r7, #48	; 0x30
    9c7c:	e2866001 	add	r6, r6, #1
    9c80:	e5d65000 	ldrb	r5, [r6]
    9c84:	e1a00005 	mov	r0, r5
    9c88:	ebffff3d 	bl	9984 <isdigit>
    9c8c:	e3500000 	cmp	r0, #0
    9c90:	1afffff5 	bne	9c6c <va_printk+0x64>
    9c94:	e357001f 	cmp	r7, #31
    9c98:	9a000006 	bls	9cb8 <va_printk+0xb0>
    9c9c:	ebffff21 	bl	9928 <rpi_reset_putc>
    9ca0:	e59f01d4 	ldr	r0, [pc, #468]	; 9e7c <va_printk+0x274>
    9ca4:	e59f11d4 	ldr	r1, [pc, #468]	; 9e80 <va_printk+0x278>
    9ca8:	e59f21d4 	ldr	r2, [pc, #468]	; 9e84 <va_printk+0x27c>
    9cac:	e3a03094 	mov	r3, #148	; 0x94
    9cb0:	ebffff01 	bl	98bc <printk>
    9cb4:	eb000075 	bl	9e90 <clean_reboot>
    9cb8:	e2455062 	sub	r5, r5, #98	; 0x62
    9cbc:	e3550016 	cmp	r5, #22
    9cc0:	979ff105 	ldrls	pc, [pc, r5, lsl #2]
    9cc4:	ea00004e 	b	9e04 <va_printk+0x1fc>
    9cc8:	00009db0 			; <UNDEFINED> instruction: 0x00009db0
    9ccc:	00009de0 	andeq	r9, r0, r0, ror #27
    9cd0:	00009d40 	andeq	r9, r0, r0, asr #26
    9cd4:	00009e04 	andeq	r9, r0, r4, lsl #28
    9cd8:	00009d24 	andeq	r9, r0, r4, lsr #26
    9cdc:	00009e04 	andeq	r9, r0, r4, lsl #28
    9ce0:	00009e04 	andeq	r9, r0, r4, lsl #28
    9ce4:	00009e04 	andeq	r9, r0, r4, lsl #28
    9ce8:	00009e04 	andeq	r9, r0, r4, lsl #28
    9cec:	00009e04 	andeq	r9, r0, r4, lsl #28
    9cf0:	00009e04 	andeq	r9, r0, r4, lsl #28
    9cf4:	00009e04 	andeq	r9, r0, r4, lsl #28
    9cf8:	00009e04 	andeq	r9, r0, r4, lsl #28
    9cfc:	00009e04 	andeq	r9, r0, r4, lsl #28
    9d00:	00009d8c 	andeq	r9, r0, ip, lsl #27
    9d04:	00009e04 	andeq	r9, r0, r4, lsl #28
    9d08:	00009e04 	andeq	r9, r0, r4, lsl #28
    9d0c:	00009dd4 	ldrdeq	r9, [r0], -r4
    9d10:	00009e04 	andeq	r9, r0, r4, lsl #28
    9d14:	00009d68 	andeq	r9, r0, r8, ror #26
    9d18:	00009e04 	andeq	r9, r0, r4, lsl #28
    9d1c:	00009e04 	andeq	r9, r0, r4, lsl #28
    9d20:	00009d8c 	andeq	r9, r0, ip, lsl #27
    9d24:	ebfffeff 	bl	9928 <rpi_reset_putc>
    9d28:	e59f0158 	ldr	r0, [pc, #344]	; 9e88 <va_printk+0x280>
    9d2c:	e59f114c 	ldr	r1, [pc, #332]	; 9e80 <va_printk+0x278>
    9d30:	e59f214c 	ldr	r2, [pc, #332]	; 9e84 <va_printk+0x27c>
    9d34:	e3a0309a 	mov	r3, #154	; 0x9a
    9d38:	ebfffedf 	bl	98bc <printk>
    9d3c:	eb000053 	bl	9e90 <clean_reboot>
    9d40:	e5993000 	ldr	r3, [r9]
    9d44:	e2899004 	add	r9, r9, #4
    9d48:	e58d7000 	str	r7, [sp]
    9d4c:	e3a02001 	mov	r2, #1
    9d50:	e58d2004 	str	r2, [sp, #4]
    9d54:	e3a0000a 	mov	r0, #10
    9d58:	e28d1008 	add	r1, sp, #8
    9d5c:	e3a02080 	mov	r2, #128	; 0x80
    9d60:	ebffff27 	bl	9a04 <emit>
    9d64:	ea00002f 	b	9e28 <va_printk+0x220>
    9d68:	e5993000 	ldr	r3, [r9]
    9d6c:	e2899004 	add	r9, r9, #4
    9d70:	e58d7000 	str	r7, [sp]
    9d74:	e58db004 	str	fp, [sp, #4]
    9d78:	e3a0000a 	mov	r0, #10
    9d7c:	e28d1008 	add	r1, sp, #8
    9d80:	e3a02080 	mov	r2, #128	; 0x80
    9d84:	ebffff1e 	bl	9a04 <emit>
    9d88:	ea000026 	b	9e28 <va_printk+0x220>
    9d8c:	e5993000 	ldr	r3, [r9]
    9d90:	e2899004 	add	r9, r9, #4
    9d94:	e58d7000 	str	r7, [sp]
    9d98:	e58db004 	str	fp, [sp, #4]
    9d9c:	e3a00010 	mov	r0, #16
    9da0:	e28d1008 	add	r1, sp, #8
    9da4:	e3a02080 	mov	r2, #128	; 0x80
    9da8:	ebffff15 	bl	9a04 <emit>
    9dac:	ea00001d 	b	9e28 <va_printk+0x220>
    9db0:	e5993000 	ldr	r3, [r9]
    9db4:	e2899004 	add	r9, r9, #4
    9db8:	e58d7000 	str	r7, [sp]
    9dbc:	e58db004 	str	fp, [sp, #4]
    9dc0:	e3a00002 	mov	r0, #2
    9dc4:	e28d1008 	add	r1, sp, #8
    9dc8:	e3a02080 	mov	r2, #128	; 0x80
    9dcc:	ebffff0c 	bl	9a04 <emit>
    9dd0:	ea000014 	b	9e28 <va_printk+0x220>
    9dd4:	e5990000 	ldr	r0, [r9]
    9dd8:	e2899004 	add	r9, r9, #4
    9ddc:	ea000011 	b	9e28 <va_printk+0x220>
    9de0:	e5993000 	ldr	r3, [r9]
    9de4:	e2899004 	add	r9, r9, #4
    9de8:	e58d7000 	str	r7, [sp]
    9dec:	e58db004 	str	fp, [sp, #4]
    9df0:	e3a00008 	mov	r0, #8
    9df4:	e08d1000 	add	r1, sp, r0
    9df8:	e3a02080 	mov	r2, #128	; 0x80
    9dfc:	ebffff00 	bl	9a04 <emit>
    9e00:	ea000008 	b	9e28 <va_printk+0x220>
    9e04:	ebfffec7 	bl	9928 <rpi_reset_putc>
    9e08:	e5d63000 	ldrb	r3, [r6]
    9e0c:	e58d3000 	str	r3, [sp]
    9e10:	e59f0074 	ldr	r0, [pc, #116]	; 9e8c <va_printk+0x284>
    9e14:	e59f1064 	ldr	r1, [pc, #100]	; 9e80 <va_printk+0x278>
    9e18:	e59f2064 	ldr	r2, [pc, #100]	; 9e84 <va_printk+0x27c>
    9e1c:	e3a030bb 	mov	r3, #187	; 0xbb
    9e20:	ebfffea5 	bl	98bc <printk>
    9e24:	eb000019 	bl	9e90 <clean_reboot>
    9e28:	e2862001 	add	r2, r6, #1
    9e2c:	ea000002 	b	9e3c <va_printk+0x234>
    9e30:	e2800001 	add	r0, r0, #1
    9e34:	e5c43000 	strb	r3, [r4]
    9e38:	e2844001 	add	r4, r4, #1
    9e3c:	e1540008 	cmp	r4, r8
    9e40:	2a000002 	bcs	9e50 <va_printk+0x248>
    9e44:	e5d03000 	ldrb	r3, [r0]
    9e48:	e3530000 	cmp	r3, #0
    9e4c:	1afffff7 	bne	9e30 <va_printk+0x228>
    9e50:	e5d23000 	ldrb	r3, [r2]
    9e54:	e3530000 	cmp	r3, #0
    9e58:	0a000001 	beq	9e64 <va_printk+0x25c>
    9e5c:	e1540008 	cmp	r4, r8
    9e60:	3affff73 	bcc	9c34 <va_printk+0x2c>
    9e64:	e2840001 	add	r0, r4, #1
    9e68:	e3a03000 	mov	r3, #0
    9e6c:	e5c43000 	strb	r3, [r4]
    9e70:	e06a0000 	rsb	r0, sl, r0
    9e74:	e28dd08c 	add	sp, sp, #140	; 0x8c
    9e78:	e8bd8ff0 	pop	{r4, r5, r6, r7, r8, r9, sl, fp, pc}
    9e7c:	0000b22c 	andeq	fp, r0, ip, lsr #4
    9e80:	0000b1dc 	ldrdeq	fp, [r0], -ip
    9e84:	0000b1bc 			; <UNDEFINED> instruction: 0x0000b1bc
    9e88:	0000b248 	andeq	fp, r0, r8, asr #4
    9e8c:	0000b270 	andeq	fp, r0, r0, ror r2

00009e90 <clean_reboot>:
    9e90:	e92d4008 	push	{r3, lr}
    9e94:	e59f3014 	ldr	r3, [pc, #20]	; 9eb0 <clean_reboot+0x20>
    9e98:	e5933000 	ldr	r3, [r3]
    9e9c:	e59f0010 	ldr	r0, [pc, #16]	; 9eb4 <clean_reboot+0x24>
    9ea0:	e12fff33 	blx	r3
    9ea4:	e3a00064 	mov	r0, #100	; 0x64
    9ea8:	eb0000cb 	bl	a1dc <delay_ms>
    9eac:	eb000089 	bl	a0d8 <rpi_reboot>
    9eb0:	0000a710 	andeq	sl, r0, r0, lsl r7
    9eb4:	0000b2a8 	andeq	fp, r0, r8, lsr #5

00009eb8 <_cstart>:
    9eb8:	e92d4008 	push	{r3, lr}
    9ebc:	e59f3020 	ldr	r3, [pc, #32]	; 9ee4 <_cstart+0x2c>
    9ec0:	e59f2020 	ldr	r2, [pc, #32]	; 9ee8 <_cstart+0x30>
    9ec4:	e3a01000 	mov	r1, #0
    9ec8:	ea000001 	b	9ed4 <_cstart+0x1c>
    9ecc:	e5831000 	str	r1, [r3]
    9ed0:	e2833004 	add	r3, r3, #4
    9ed4:	e1530002 	cmp	r3, r2
    9ed8:	3afffffb 	bcc	9ecc <_cstart+0x14>
    9edc:	ebfff87e 	bl	80dc <notmain>
    9ee0:	ebffffea 	bl	9e90 <clean_reboot>
    9ee4:	0000b708 	andeq	fp, r0, r8, lsl #14
    9ee8:	0000bbb0 			; <UNDEFINED> instruction: 0x0000bbb0

00009eec <data_abort_vector>:
    9eec:	e52de004 	push	{lr}		; (str lr, [sp, #-4]!)
    9ef0:	e24dd00c 	sub	sp, sp, #12
    9ef4:	e1a04000 	mov	r4, r0
    9ef8:	ebfffe8a 	bl	9928 <rpi_reset_putc>
    9efc:	e59f301c 	ldr	r3, [pc, #28]	; 9f20 <data_abort_vector+0x34>
    9f00:	e58d3000 	str	r3, [sp]
    9f04:	e58d4004 	str	r4, [sp, #4]
    9f08:	e59f0014 	ldr	r0, [pc, #20]	; 9f24 <data_abort_vector+0x38>
    9f0c:	e59f1014 	ldr	r1, [pc, #20]	; 9f28 <data_abort_vector+0x3c>
    9f10:	e59f2014 	ldr	r2, [pc, #20]	; 9f2c <data_abort_vector+0x40>
    9f14:	e3a03002 	mov	r3, #2
    9f18:	ebfffe67 	bl	98bc <printk>
    9f1c:	ebffffdb 	bl	9e90 <clean_reboot>
    9f20:	0000b32c 	andeq	fp, r0, ip, lsr #6
    9f24:	0000b2c8 	andeq	fp, r0, r8, asr #5
    9f28:	0000b304 	andeq	fp, r0, r4, lsl #6
    9f2c:	0000b2b4 			; <UNDEFINED> instruction: 0x0000b2b4

00009f30 <fast_interrupt_vector>:
    9f30:	e52de004 	push	{lr}		; (str lr, [sp, #-4]!)
    9f34:	e24dd00c 	sub	sp, sp, #12
    9f38:	e1a04000 	mov	r4, r0
    9f3c:	ebfffe79 	bl	9928 <rpi_reset_putc>
    9f40:	e59f301c 	ldr	r3, [pc, #28]	; 9f64 <fast_interrupt_vector+0x34>
    9f44:	e58d3000 	str	r3, [sp]
    9f48:	e58d4004 	str	r4, [sp, #4]
    9f4c:	e59f0014 	ldr	r0, [pc, #20]	; 9f68 <fast_interrupt_vector+0x38>
    9f50:	e59f1014 	ldr	r1, [pc, #20]	; 9f6c <fast_interrupt_vector+0x3c>
    9f54:	e59f2014 	ldr	r2, [pc, #20]	; 9f70 <fast_interrupt_vector+0x40>
    9f58:	e3a03002 	mov	r3, #2
    9f5c:	ebfffe56 	bl	98bc <printk>
    9f60:	ebffffca 	bl	9e90 <clean_reboot>
    9f64:	0000b374 	andeq	fp, r0, r4, ror r3
    9f68:	0000b2c8 	andeq	fp, r0, r8, asr #5
    9f6c:	0000b350 	andeq	fp, r0, r0, asr r3
    9f70:	0000b338 	andeq	fp, r0, r8, lsr r3

00009f74 <prefetch_abort_vector>:
    9f74:	e52de004 	push	{lr}		; (str lr, [sp, #-4]!)
    9f78:	e24dd00c 	sub	sp, sp, #12
    9f7c:	e1a04000 	mov	r4, r0
    9f80:	ebfffe68 	bl	9928 <rpi_reset_putc>
    9f84:	e59f301c 	ldr	r3, [pc, #28]	; 9fa8 <prefetch_abort_vector+0x34>
    9f88:	e58d3000 	str	r3, [sp]
    9f8c:	e58d4004 	str	r4, [sp, #4]
    9f90:	e59f0014 	ldr	r0, [pc, #20]	; 9fac <prefetch_abort_vector+0x38>
    9f94:	e59f1014 	ldr	r1, [pc, #20]	; 9fb0 <prefetch_abort_vector+0x3c>
    9f98:	e59f2014 	ldr	r2, [pc, #20]	; 9fb4 <prefetch_abort_vector+0x40>
    9f9c:	e3a03002 	mov	r3, #2
    9fa0:	ebfffe45 	bl	98bc <printk>
    9fa4:	ebffffb9 	bl	9e90 <clean_reboot>
    9fa8:	0000b3bc 			; <UNDEFINED> instruction: 0x0000b3bc
    9fac:	0000b2c8 	andeq	fp, r0, r8, asr #5
    9fb0:	0000b394 	muleq	r0, r4, r3
    9fb4:	0000b37c 	andeq	fp, r0, ip, ror r3

00009fb8 <reset_vector>:
    9fb8:	e52de004 	push	{lr}		; (str lr, [sp, #-4]!)
    9fbc:	e24dd00c 	sub	sp, sp, #12
    9fc0:	e1a04000 	mov	r4, r0
    9fc4:	ebfffe57 	bl	9928 <rpi_reset_putc>
    9fc8:	e59f301c 	ldr	r3, [pc, #28]	; 9fec <reset_vector+0x34>
    9fcc:	e58d3000 	str	r3, [sp]
    9fd0:	e58d4004 	str	r4, [sp, #4]
    9fd4:	e59f0014 	ldr	r0, [pc, #20]	; 9ff0 <reset_vector+0x38>
    9fd8:	e59f1014 	ldr	r1, [pc, #20]	; 9ff4 <reset_vector+0x3c>
    9fdc:	e59f2014 	ldr	r2, [pc, #20]	; 9ff8 <reset_vector+0x40>
    9fe0:	e3a03002 	mov	r3, #2
    9fe4:	ebfffe34 	bl	98bc <printk>
    9fe8:	ebffffa8 	bl	9e90 <clean_reboot>
    9fec:	0000b400 	andeq	fp, r0, r0, lsl #8
    9ff0:	0000b2c8 	andeq	fp, r0, r8, asr #5
    9ff4:	0000b3dc 	ldrdeq	fp, [r0], -ip
    9ff8:	0000b3cc 	andeq	fp, r0, ip, asr #7

00009ffc <software_interrupt_vector>:
    9ffc:	e52de004 	push	{lr}		; (str lr, [sp, #-4]!)
    a000:	e24dd00c 	sub	sp, sp, #12
    a004:	e1a04000 	mov	r4, r0
    a008:	ebfffe46 	bl	9928 <rpi_reset_putc>
    a00c:	e59f301c 	ldr	r3, [pc, #28]	; a030 <software_interrupt_vector+0x34>
    a010:	e58d3000 	str	r3, [sp]
    a014:	e58d4004 	str	r4, [sp, #4]
    a018:	e59f0014 	ldr	r0, [pc, #20]	; a034 <software_interrupt_vector+0x38>
    a01c:	e59f1014 	ldr	r1, [pc, #20]	; a038 <software_interrupt_vector+0x3c>
    a020:	e59f2014 	ldr	r2, [pc, #20]	; a03c <software_interrupt_vector+0x40>
    a024:	e3a03002 	mov	r3, #2
    a028:	ebfffe23 	bl	98bc <printk>
    a02c:	ebffff97 	bl	9e90 <clean_reboot>
    a030:	0000b444 	andeq	fp, r0, r4, asr #8
    a034:	0000b2c8 	andeq	fp, r0, r8, asr #5
    a038:	0000b424 	andeq	fp, r0, r4, lsr #8
    a03c:	0000b408 	andeq	fp, r0, r8, lsl #8

0000a040 <int_init>:
    a040:	e92d4008 	push	{r3, lr}
    a044:	eb00006e 	bl	a204 <dev_barrier>
    a048:	e59f004c 	ldr	r0, [pc, #76]	; a09c <int_init+0x5c>
    a04c:	e3e01000 	mvn	r1, #0
    a050:	eb000073 	bl	a224 <PUT32>
    a054:	e59f0044 	ldr	r0, [pc, #68]	; a0a0 <int_init+0x60>
    a058:	e3e01000 	mvn	r1, #0
    a05c:	eb000070 	bl	a224 <PUT32>
    a060:	eb000067 	bl	a204 <dev_barrier>
    a064:	e59f3038 	ldr	r3, [pc, #56]	; a0a4 <int_init+0x64>
    a068:	e59f0038 	ldr	r0, [pc, #56]	; a0a8 <int_init+0x68>
    a06c:	e0630000 	rsb	r0, r3, r0
    a070:	e1a00140 	asr	r0, r0, #2
    a074:	e3a03000 	mov	r3, #0
    a078:	e59fc024 	ldr	ip, [pc, #36]	; a0a4 <int_init+0x64>
    a07c:	ea000003 	b	a090 <int_init+0x50>
    a080:	e1a02103 	lsl	r2, r3, #2
    a084:	e79c1103 	ldr	r1, [ip, r3, lsl #2]
    a088:	e5821000 	str	r1, [r2]
    a08c:	e2833001 	add	r3, r3, #1
    a090:	e1530000 	cmp	r3, r0
    a094:	3afffff9 	bcc	a080 <int_init+0x40>
    a098:	e8bd8008 	pop	{r3, pc}
    a09c:	2000b21c 	andcs	fp, r0, ip, lsl r2
    a0a0:	2000b220 	andcs	fp, r0, r0, lsr #4
    a0a4:	00009714 	andeq	r9, r0, r4, lsl r7
    a0a8:	00009754 	andeq	r9, r0, r4, asr r7

0000a0ac <at_user_level>:
    a0ac:	e10f0000 	mrs	r0, CPSR
    a0b0:	e200001f 	and	r0, r0, #31
    a0b4:	e3500010 	cmp	r0, #16
    a0b8:	13a00000 	movne	r0, #0
    a0bc:	03a00001 	moveq	r0, #1
    a0c0:	e12fff1e 	bx	lr

0000a0c4 <set_user_level>:
    a0c4:	e10f3000 	mrs	r3, CPSR
    a0c8:	e3c3301f 	bic	r3, r3, #31
    a0cc:	e3833010 	orr	r3, r3, #16
    a0d0:	e129f003 	msr	CPSR_fc, r3
    a0d4:	e12fff1e 	bx	lr

0000a0d8 <rpi_reboot>:
    a0d8:	e92d4008 	push	{r3, lr}
    a0dc:	ebfffff2 	bl	a0ac <at_user_level>
    a0e0:	e3500000 	cmp	r0, #0
    a0e4:	0a000000 	beq	a0ec <rpi_reboot+0x14>
    a0e8:	ebfffff5 	bl	a0c4 <set_user_level>
    a0ec:	e3a0001e 	mov	r0, #30
    a0f0:	eb000039 	bl	a1dc <delay_ms>
    a0f4:	e59f0014 	ldr	r0, [pc, #20]	; a110 <rpi_reboot+0x38>
    a0f8:	e59f1014 	ldr	r1, [pc, #20]	; a114 <rpi_reboot+0x3c>
    a0fc:	eb000048 	bl	a224 <PUT32>
    a100:	e59f0010 	ldr	r0, [pc, #16]	; a118 <rpi_reboot+0x40>
    a104:	e59f1010 	ldr	r1, [pc, #16]	; a11c <rpi_reboot+0x44>
    a108:	eb000045 	bl	a224 <PUT32>
    a10c:	eafffffe 	b	a10c <rpi_reboot+0x34>
    a110:	20100024 	andscs	r0, r0, r4, lsr #32
    a114:	5a000001 	bpl	a120 <timer_check_offsets>
    a118:	2010001c 	andscs	r0, r0, ip, lsl r0
    a11c:	5a000020 	bpl	a1a4 <timer_get_usec_raw+0xc>

0000a120 <timer_check_offsets>:
    a120:	e52de004 	push	{lr}		; (str lr, [sp, #-4]!)
    a124:	e24dd01c 	sub	sp, sp, #28
    a128:	e59f0008 	ldr	r0, [pc, #8]	; a138 <timer_check_offsets+0x18>
    a12c:	ebfffde2 	bl	98bc <printk>
    a130:	e28dd01c 	add	sp, sp, #28
    a134:	e49df004 	pop	{pc}		; (ldr pc, [sp], #4)
    a138:	0000b574 	andeq	fp, r0, r4, ror r5

0000a13c <timer_interrupt_init>:
    a13c:	e92d4010 	push	{r4, lr}
    a140:	e1a04000 	mov	r4, r0
    a144:	ebfffff5 	bl	a120 <timer_check_offsets>
    a148:	e59f0020 	ldr	r0, [pc, #32]	; a170 <timer_interrupt_init+0x34>
    a14c:	e3a01001 	mov	r1, #1
    a150:	eb000033 	bl	a224 <PUT32>
    a154:	e59f0018 	ldr	r0, [pc, #24]	; a174 <timer_interrupt_init+0x38>
    a158:	e1a01004 	mov	r1, r4
    a15c:	eb000030 	bl	a224 <PUT32>
    a160:	e59f0010 	ldr	r0, [pc, #16]	; a178 <timer_interrupt_init+0x3c>
    a164:	e3a010a6 	mov	r1, #166	; 0xa6
    a168:	eb00002d 	bl	a224 <PUT32>
    a16c:	e8bd8010 	pop	{r4, pc}
    a170:	2000b218 	andcs	fp, r0, r8, lsl r2
    a174:	2000b400 	andcs	fp, r0, r0, lsl #8
    a178:	2000b408 	andcs	fp, r0, r8, lsl #8

0000a17c <delay_cycles>:
    a17c:	ea000001 	b	a188 <delay_cycles+0xc>
    a180:	e2811000 	add	r1, r1, #0
    a184:	e1a00003 	mov	r0, r3
    a188:	e2403001 	sub	r3, r0, #1
    a18c:	e3500000 	cmp	r0, #0
    a190:	1afffffa 	bne	a180 <delay_cycles+0x4>
    a194:	e12fff1e 	bx	lr

0000a198 <timer_get_usec_raw>:
    a198:	e92d4008 	push	{r3, lr}
    a19c:	e59f0004 	ldr	r0, [pc, #4]	; a1a8 <timer_get_usec_raw+0x10>
    a1a0:	eb00002b 	bl	a254 <GET32>
    a1a4:	e8bd8008 	pop	{r3, pc}
    a1a8:	20003004 	andcs	r3, r0, r4

0000a1ac <timer_get_usec>:
    a1ac:	e92d4008 	push	{r3, lr}
    a1b0:	ebfffff8 	bl	a198 <timer_get_usec_raw>
    a1b4:	e8bd8008 	pop	{r3, pc}

0000a1b8 <delay_us>:
    a1b8:	e92d4038 	push	{r3, r4, r5, lr}
    a1bc:	e1a05000 	mov	r5, r0
    a1c0:	ebfffff9 	bl	a1ac <timer_get_usec>
    a1c4:	e1a04000 	mov	r4, r0
    a1c8:	ebfffff7 	bl	a1ac <timer_get_usec>
    a1cc:	e0640000 	rsb	r0, r4, r0
    a1d0:	e1500005 	cmp	r0, r5
    a1d4:	3afffffb 	bcc	a1c8 <delay_us+0x10>
    a1d8:	e8bd8038 	pop	{r3, r4, r5, pc}

0000a1dc <delay_ms>:
    a1dc:	e92d4008 	push	{r3, lr}
    a1e0:	e3a03ffa 	mov	r3, #1000	; 0x3e8
    a1e4:	e0000093 	mul	r0, r3, r0
    a1e8:	ebfffff2 	bl	a1b8 <delay_us>
    a1ec:	e8bd8008 	pop	{r3, pc}

0000a1f0 <delay_sec>:
    a1f0:	e92d4008 	push	{r3, lr}
    a1f4:	e3a03ffa 	mov	r3, #1000	; 0x3e8
    a1f8:	e0000093 	mul	r0, r3, r0
    a1fc:	ebfffff6 	bl	a1dc <delay_ms>
    a200:	e8bd8008 	pop	{r3, pc}

0000a204 <dev_barrier>:
    a204:	ea000002 	b	a214 <dsb>

0000a208 <dmb>:
    a208:	e3a00000 	mov	r0, #0
    a20c:	ee070fba 	mcr	15, 0, r0, cr7, cr10, {5}
    a210:	e12fff1e 	bx	lr

0000a214 <dsb>:
    a214:	ee070f9a 	mcr	15, 0, r0, cr7, cr10, {4}
    a218:	e12fff1e 	bx	lr

0000a21c <put32>:
    a21c:	e5801000 	str	r1, [r0]
    a220:	e12fff1e 	bx	lr

0000a224 <PUT32>:
    a224:	e5801000 	str	r1, [r0]
    a228:	e12fff1e 	bx	lr

0000a22c <put16>:
    a22c:	e1c010b0 	strh	r1, [r0]
    a230:	e12fff1e 	bx	lr

0000a234 <PUT16>:
    a234:	e1c010b0 	strh	r1, [r0]
    a238:	e12fff1e 	bx	lr

0000a23c <put8>:
    a23c:	e5c01000 	strb	r1, [r0]
    a240:	e12fff1e 	bx	lr

0000a244 <PUT8>:
    a244:	e5c01000 	strb	r1, [r0]
    a248:	e12fff1e 	bx	lr

0000a24c <get32>:
    a24c:	e5900000 	ldr	r0, [r0]
    a250:	e12fff1e 	bx	lr

0000a254 <GET32>:
    a254:	e5900000 	ldr	r0, [r0]
    a258:	e12fff1e 	bx	lr

0000a25c <GETPC>:
    a25c:	e1a0000e 	mov	r0, lr
    a260:	e12fff1e 	bx	lr

0000a264 <dummy>:
    a264:	e12fff1e 	bx	lr

0000a268 <or_in32>:
    a268:	e92d4070 	push	{r4, r5, r6, lr}
    a26c:	e1a04000 	mov	r4, r0
    a270:	e1a05001 	mov	r5, r1
    a274:	ebfffff4 	bl	a24c <get32>
    a278:	e1801005 	orr	r1, r0, r5
    a27c:	e1a00004 	mov	r0, r4
    a280:	ebffffe5 	bl	a21c <put32>
    a284:	e8bd8070 	pop	{r4, r5, r6, pc}

0000a288 <uart_init>:
    a288:	e92d4010 	push	{r4, lr}
    a28c:	e3a01002 	mov	r1, #2
    a290:	e3a0000e 	mov	r0, #14
    a294:	eb000051 	bl	a3e0 <gpio_set_function>
    a298:	e3a01002 	mov	r1, #2
    a29c:	e3a0000f 	mov	r0, #15
    a2a0:	eb00004e 	bl	a3e0 <gpio_set_function>
    a2a4:	ebffffd6 	bl	a204 <dev_barrier>
    a2a8:	e3a01001 	mov	r1, #1
    a2ac:	e59f0064 	ldr	r0, [pc, #100]	; a318 <uart_init+0x90>
    a2b0:	ebffffec 	bl	a268 <or_in32>
    a2b4:	ebffffd2 	bl	a204 <dev_barrier>
    a2b8:	e59f405c 	ldr	r4, [pc, #92]	; a31c <uart_init+0x94>
    a2bc:	e3a01000 	mov	r1, #0
    a2c0:	e1a00004 	mov	r0, r4
    a2c4:	ebffffd4 	bl	a21c <put32>
    a2c8:	e3a01000 	mov	r1, #0
    a2cc:	e59f004c 	ldr	r0, [pc, #76]	; a320 <uart_init+0x98>
    a2d0:	ebffffd1 	bl	a21c <put32>
    a2d4:	e3a01003 	mov	r1, #3
    a2d8:	e59f0044 	ldr	r0, [pc, #68]	; a324 <uart_init+0x9c>
    a2dc:	ebffffce 	bl	a21c <put32>
    a2e0:	e3a01000 	mov	r1, #0
    a2e4:	e59f003c 	ldr	r0, [pc, #60]	; a328 <uart_init+0xa0>
    a2e8:	ebffffcb 	bl	a21c <put32>
    a2ec:	e3a010c7 	mov	r1, #199	; 0xc7
    a2f0:	e59f0034 	ldr	r0, [pc, #52]	; a32c <uart_init+0xa4>
    a2f4:	ebffffc8 	bl	a21c <put32>
    a2f8:	e59f1030 	ldr	r1, [pc, #48]	; a330 <uart_init+0xa8>
    a2fc:	e59f0030 	ldr	r0, [pc, #48]	; a334 <uart_init+0xac>
    a300:	ebffffc5 	bl	a21c <put32>
    a304:	e3a01003 	mov	r1, #3
    a308:	e1a00004 	mov	r0, r4
    a30c:	ebffffc2 	bl	a21c <put32>
    a310:	ebffffbb 	bl	a204 <dev_barrier>
    a314:	e8bd8010 	pop	{r4, pc}
    a318:	20215004 	eorcs	r5, r1, r4
    a31c:	20215060 	eorcs	r5, r1, r0, rrx
    a320:	20215044 	eorcs	r5, r1, r4, asr #32
    a324:	2021504c 	eorcs	r5, r1, ip, asr #32
    a328:	20215050 	eorcs	r5, r1, r0, asr r0
    a32c:	20215048 	eorcs	r5, r1, r8, asr #32
    a330:	0000010e 	andeq	r0, r0, lr, lsl #2
    a334:	20215068 	eorcs	r5, r1, r8, rrx

0000a338 <uart_can_getc>:
    a338:	e92d4010 	push	{r4, lr}
    a33c:	e59f0008 	ldr	r0, [pc, #8]	; a34c <uart_can_getc+0x14>
    a340:	ebffffc1 	bl	a24c <get32>
    a344:	e2000001 	and	r0, r0, #1
    a348:	e8bd8010 	pop	{r4, pc}
    a34c:	20215064 	eorcs	r5, r1, r4, rrx

0000a350 <uart_can_putc>:
    a350:	e92d4010 	push	{r4, lr}
    a354:	e59f0010 	ldr	r0, [pc, #16]	; a36c <uart_can_putc+0x1c>
    a358:	ebffffbb 	bl	a24c <get32>
    a35c:	e3100002 	tst	r0, #2
    a360:	13a00001 	movne	r0, #1
    a364:	03a00000 	moveq	r0, #0
    a368:	e8bd8010 	pop	{r4, pc}
    a36c:	20215064 	eorcs	r5, r1, r4, rrx

0000a370 <uart_getc>:
    a370:	e92d4010 	push	{r4, lr}
    a374:	ebffffa2 	bl	a204 <dev_barrier>
    a378:	ebffffee 	bl	a338 <uart_can_getc>
    a37c:	e3500000 	cmp	r0, #0
    a380:	0afffffc 	beq	a378 <uart_getc+0x8>
    a384:	e59f0010 	ldr	r0, [pc, #16]	; a39c <uart_getc+0x2c>
    a388:	ebffffaf 	bl	a24c <get32>
    a38c:	e6ef4070 	uxtb	r4, r0
    a390:	ebffff9b 	bl	a204 <dev_barrier>
    a394:	e1a00004 	mov	r0, r4
    a398:	e8bd8010 	pop	{r4, pc}
    a39c:	20215040 	eorcs	r5, r1, r0, asr #32

0000a3a0 <uart_putc>:
    a3a0:	e92d4010 	push	{r4, lr}
    a3a4:	e1a04000 	mov	r4, r0
    a3a8:	ebffff95 	bl	a204 <dev_barrier>
    a3ac:	ebffffe7 	bl	a350 <uart_can_putc>
    a3b0:	e3500000 	cmp	r0, #0
    a3b4:	0afffffc 	beq	a3ac <uart_putc+0xc>
    a3b8:	e6ef1074 	uxtb	r1, r4
    a3bc:	e59f0008 	ldr	r0, [pc, #8]	; a3cc <uart_putc+0x2c>
    a3c0:	ebffff95 	bl	a21c <put32>
    a3c4:	ebffff8e 	bl	a204 <dev_barrier>
    a3c8:	e8bd8010 	pop	{r4, pc}
    a3cc:	20215040 	eorcs	r5, r1, r0, asr #32

0000a3d0 <uart_has_data>:
    a3d0:	e92d4010 	push	{r4, lr}
    a3d4:	ebffff8a 	bl	a204 <dev_barrier>
    a3d8:	ebffffd6 	bl	a338 <uart_can_getc>
    a3dc:	e8bd8010 	pop	{r4, pc}

0000a3e0 <gpio_set_function>:
    a3e0:	e350001f 	cmp	r0, #31
    a3e4:	812fff1e 	bxhi	lr
    a3e8:	e3d13007 	bics	r3, r1, #7
    a3ec:	112fff1e 	bxne	lr
    a3f0:	e92d4070 	push	{r4, r5, r6, lr}
    a3f4:	e1a05001 	mov	r5, r1
    a3f8:	e59f3044 	ldr	r3, [pc, #68]	; a444 <gpio_set_function+0x64>
    a3fc:	e0832093 	umull	r2, r3, r3, r0
    a400:	e1a031a3 	lsr	r3, r3, #3
    a404:	e1a06003 	mov	r6, r3
    a408:	e0833103 	add	r3, r3, r3, lsl #2
    a40c:	e1a02083 	lsl	r2, r3, #1
    a410:	e0403002 	sub	r3, r0, r2
    a414:	e0834083 	add	r4, r3, r3, lsl #1
    a418:	e2866302 	add	r6, r6, #134217728	; 0x8000000
    a41c:	e2866702 	add	r6, r6, #524288	; 0x80000
    a420:	e1a06106 	lsl	r6, r6, #2
    a424:	e1a00006 	mov	r0, r6
    a428:	ebffff89 	bl	a254 <GET32>
    a42c:	e3a01007 	mov	r1, #7
    a430:	e1c01411 	bic	r1, r0, r1, lsl r4
    a434:	e1811415 	orr	r1, r1, r5, lsl r4
    a438:	e1a00006 	mov	r0, r6
    a43c:	ebffff78 	bl	a224 <PUT32>
    a440:	e8bd8070 	pop	{r4, r5, r6, pc}
    a444:	cccccccd 	stclgt	12, cr12, [ip], {205}	; 0xcd

0000a448 <gpio_set_output>:
    a448:	e92d4010 	push	{r4, lr}
    a44c:	e3a01001 	mov	r1, #1
    a450:	ebffffe2 	bl	a3e0 <gpio_set_function>
    a454:	e8bd8010 	pop	{r4, pc}

0000a458 <gpio_set_on>:
    a458:	e350001f 	cmp	r0, #31
    a45c:	812fff1e 	bxhi	lr
    a460:	e92d4010 	push	{r4, lr}
    a464:	e3a01001 	mov	r1, #1
    a468:	e1a01011 	lsl	r1, r1, r0
    a46c:	e59f0004 	ldr	r0, [pc, #4]	; a478 <gpio_set_on+0x20>
    a470:	ebffff6b 	bl	a224 <PUT32>
    a474:	e8bd8010 	pop	{r4, pc}
    a478:	2020001c 	eorcs	r0, r0, ip, lsl r0

0000a47c <gpio_set_off>:
    a47c:	e350001f 	cmp	r0, #31
    a480:	812fff1e 	bxhi	lr
    a484:	e92d4010 	push	{r4, lr}
    a488:	e3a01001 	mov	r1, #1
    a48c:	e1a01011 	lsl	r1, r1, r0
    a490:	e59f0004 	ldr	r0, [pc, #4]	; a49c <gpio_set_off+0x20>
    a494:	ebffff62 	bl	a224 <PUT32>
    a498:	e8bd8010 	pop	{r4, pc}
    a49c:	20200028 	eorcs	r0, r0, r8, lsr #32

0000a4a0 <gpio_set_input>:
    a4a0:	e92d4010 	push	{r4, lr}
    a4a4:	e3a01000 	mov	r1, #0
    a4a8:	ebffffcc 	bl	a3e0 <gpio_set_function>
    a4ac:	e8bd8010 	pop	{r4, pc}

0000a4b0 <gpio_write>:
    a4b0:	e92d4010 	push	{r4, lr}
    a4b4:	e3510000 	cmp	r1, #0
    a4b8:	1a000001 	bne	a4c4 <gpio_write+0x14>
    a4bc:	ebffffee 	bl	a47c <gpio_set_off>
    a4c0:	e8bd8010 	pop	{r4, pc}
    a4c4:	ebffffe3 	bl	a458 <gpio_set_on>
    a4c8:	e8bd8010 	pop	{r4, pc}

0000a4cc <gpio_read>:
    a4cc:	e350001f 	cmp	r0, #31
    a4d0:	8a000007 	bhi	a4f4 <gpio_read+0x28>
    a4d4:	e92d4010 	push	{r4, lr}
    a4d8:	e200401f 	and	r4, r0, #31
    a4dc:	e59f3018 	ldr	r3, [pc, #24]	; a4fc <gpio_read+0x30>
    a4e0:	e08302a0 	add	r0, r3, r0, lsr #5
    a4e4:	ebffff5a 	bl	a254 <GET32>
    a4e8:	e1a00430 	lsr	r0, r0, r4
    a4ec:	e2000001 	and	r0, r0, #1
    a4f0:	e8bd8010 	pop	{r4, pc}
    a4f4:	e3e00000 	mvn	r0, #0
    a4f8:	e12fff1e 	bx	lr
    a4fc:	20200034 	eorcs	r0, r0, r4, lsr r0

0000a500 <kmalloc_heap_end>:
    a500:	e59f3004 	ldr	r3, [pc, #4]	; a50c <kmalloc_heap_end+0xc>
    a504:	e5930000 	ldr	r0, [r3]
    a508:	e12fff1e 	bx	lr
    a50c:	0000a714 	andeq	sl, r0, r4, lsl r7

0000a510 <kmalloc_heap_start>:
    a510:	e59f0000 	ldr	r0, [pc]	; a518 <kmalloc_heap_start+0x8>
    a514:	e12fff1e 	bx	lr
    a518:	0000bbb0 			; <UNDEFINED> instruction: 0x0000bbb0

0000a51c <kmalloc_init_set_start>:
    a51c:	e59f3038 	ldr	r3, [pc, #56]	; a55c <kmalloc_init_set_start+0x40>
    a520:	e5933000 	ldr	r3, [r3]
    a524:	e1500003 	cmp	r0, r3
    a528:	9a000003 	bls	a53c <kmalloc_init_set_start+0x20>
    a52c:	e59f3028 	ldr	r3, [pc, #40]	; a55c <kmalloc_init_set_start+0x40>
    a530:	e5830000 	str	r0, [r3]
    a534:	e5830004 	str	r0, [r3, #4]
    a538:	e12fff1e 	bx	lr
    a53c:	e92d4010 	push	{r4, lr}
    a540:	ebfffcf8 	bl	9928 <rpi_reset_putc>
    a544:	e3a03016 	mov	r3, #22
    a548:	e59f2010 	ldr	r2, [pc, #16]	; a560 <kmalloc_init_set_start+0x44>
    a54c:	e59f1010 	ldr	r1, [pc, #16]	; a564 <kmalloc_init_set_start+0x48>
    a550:	e59f0010 	ldr	r0, [pc, #16]	; a568 <kmalloc_init_set_start+0x4c>
    a554:	ebfffcd8 	bl	98bc <printk>
    a558:	ebfffe4c 	bl	9e90 <clean_reboot>
    a55c:	0000a714 	andeq	sl, r0, r4, lsl r7
    a560:	0000b58c 	andeq	fp, r0, ip, lsl #11
    a564:	0000b5bc 			; <UNDEFINED> instruction: 0x0000b5bc
    a568:	0000b5c8 	andeq	fp, r0, r8, asr #11

0000a56c <kmalloc>:
    a56c:	e92d4010 	push	{r4, lr}
    a570:	e3500000 	cmp	r0, #0
    a574:	0a00000a 	beq	a5a4 <kmalloc+0x38>
    a578:	e2802007 	add	r2, r0, #7
    a57c:	e3c22007 	bic	r2, r2, #7
    a580:	e59f3038 	ldr	r3, [pc, #56]	; a5c0 <kmalloc+0x54>
    a584:	e5934000 	ldr	r4, [r3]
    a588:	e0841002 	add	r1, r4, r2
    a58c:	e5831000 	str	r1, [r3]
    a590:	e3a01000 	mov	r1, #0
    a594:	e1a00004 	mov	r0, r4
    a598:	ebfffcbf 	bl	989c <memset>
    a59c:	e1a00004 	mov	r0, r4
    a5a0:	e8bd8010 	pop	{r4, pc}
    a5a4:	ebfffcdf 	bl	9928 <rpi_reset_putc>
    a5a8:	e3a0301b 	mov	r3, #27
    a5ac:	e59f2010 	ldr	r2, [pc, #16]	; a5c4 <kmalloc+0x58>
    a5b0:	e59f1010 	ldr	r1, [pc, #16]	; a5c8 <kmalloc+0x5c>
    a5b4:	e59f0010 	ldr	r0, [pc, #16]	; a5cc <kmalloc+0x60>
    a5b8:	ebfffcbf 	bl	98bc <printk>
    a5bc:	ebfffe33 	bl	9e90 <clean_reboot>
    a5c0:	0000a714 	andeq	sl, r0, r4, lsl r7
    a5c4:	0000b5a4 	andeq	fp, r0, r4, lsr #11
    a5c8:	0000b5bc 			; <UNDEFINED> instruction: 0x0000b5bc
    a5cc:	0000b5e4 	andeq	fp, r0, r4, ror #11

0000a5d0 <kmalloc_init>:
    a5d0:	e12fff1e 	bx	lr

0000a5d4 <kmalloc_heap_ptr>:
    a5d4:	e92d4010 	push	{r4, lr}
    a5d8:	ebffffcc 	bl	a510 <kmalloc_heap_start>
    a5dc:	e8bd8010 	pop	{r4, pc}

0000a5e0 <kmalloc_aligned>:
    a5e0:	e92d4010 	push	{r4, lr}
    a5e4:	e2613000 	rsb	r3, r1, #0
    a5e8:	e1d12003 	bics	r2, r1, r3
    a5ec:	1a00000b 	bne	a620 <kmalloc_aligned+0x40>
    a5f0:	e59f2060 	ldr	r2, [pc, #96]	; a658 <kmalloc_aligned+0x78>
    a5f4:	e5922000 	ldr	r2, [r2]
    a5f8:	e0812002 	add	r2, r1, r2
    a5fc:	e2422001 	sub	r2, r2, #1
    a600:	e0033002 	and	r3, r3, r2
    a604:	e2411001 	sub	r1, r1, #1
    a608:	e1130001 	tst	r3, r1
    a60c:	1a00000a 	bne	a63c <kmalloc_aligned+0x5c>
    a610:	e59f2040 	ldr	r2, [pc, #64]	; a658 <kmalloc_aligned+0x78>
    a614:	e5823000 	str	r3, [r2]
    a618:	ebffffd3 	bl	a56c <kmalloc>
    a61c:	e8bd8010 	pop	{r4, pc}
    a620:	ebfffcc0 	bl	9928 <rpi_reset_putc>
    a624:	e3a0302a 	mov	r3, #42	; 0x2a
    a628:	e59f202c 	ldr	r2, [pc, #44]	; a65c <kmalloc_aligned+0x7c>
    a62c:	e59f102c 	ldr	r1, [pc, #44]	; a660 <kmalloc_aligned+0x80>
    a630:	e59f002c 	ldr	r0, [pc, #44]	; a664 <kmalloc_aligned+0x84>
    a634:	ebfffca0 	bl	98bc <printk>
    a638:	ebfffe14 	bl	9e90 <clean_reboot>
    a63c:	ebfffcb9 	bl	9928 <rpi_reset_putc>
    a640:	e3a03030 	mov	r3, #48	; 0x30
    a644:	e59f2010 	ldr	r2, [pc, #16]	; a65c <kmalloc_aligned+0x7c>
    a648:	e59f1010 	ldr	r1, [pc, #16]	; a660 <kmalloc_aligned+0x80>
    a64c:	e59f0014 	ldr	r0, [pc, #20]	; a668 <kmalloc_aligned+0x88>
    a650:	ebfffc99 	bl	98bc <printk>
    a654:	ebfffe0d 	bl	9e90 <clean_reboot>
    a658:	0000a714 	andeq	sl, r0, r4, lsl r7
    a65c:	0000b5ac 	andeq	fp, r0, ip, lsr #11
    a660:	0000b5bc 			; <UNDEFINED> instruction: 0x0000b5bc
    a664:	0000b5f8 	strdeq	fp, [r0], -r8
    a668:	0000b658 	andeq	fp, r0, r8, asr r6

0000a66c <kfree>:
    a66c:	e12fff1e 	bx	lr

0000a670 <kfree_all>:
    a670:	e59f3008 	ldr	r3, [pc, #8]	; a680 <kfree_all+0x10>
    a674:	e5932004 	ldr	r2, [r3, #4]
    a678:	e5832000 	str	r2, [r3]
    a67c:	e12fff1e 	bx	lr
    a680:	0000a714 	andeq	sl, r0, r4, lsl r7

0000a684 <kfree_after>:
    a684:	e59f3004 	ldr	r3, [pc, #4]	; a690 <kfree_after+0xc>
    a688:	e5830000 	str	r0, [r3]
    a68c:	e12fff1e 	bx	lr
    a690:	0000a714 	andeq	sl, r0, r4, lsl r7

0000a694 <undefined_instruction_vector>:
    a694:	e52de004 	push	{lr}		; (str lr, [sp, #-4]!)
    a698:	e24dd00c 	sub	sp, sp, #12
    a69c:	e1a04000 	mov	r4, r0
    a6a0:	ebfffca0 	bl	9928 <rpi_reset_putc>
    a6a4:	e59f301c 	ldr	r3, [pc, #28]	; a6c8 <undefined_instruction_vector+0x34>
    a6a8:	e58d3000 	str	r3, [sp]
    a6ac:	e58d4004 	str	r4, [sp, #4]
    a6b0:	e59f0014 	ldr	r0, [pc, #20]	; a6cc <undefined_instruction_vector+0x38>
    a6b4:	e59f1014 	ldr	r1, [pc, #20]	; a6d0 <undefined_instruction_vector+0x3c>
    a6b8:	e59f2014 	ldr	r2, [pc, #20]	; a6d4 <undefined_instruction_vector+0x40>
    a6bc:	e3a03002 	mov	r3, #2
    a6c0:	ebfffc7d 	bl	98bc <printk>
    a6c4:	ebfffdf1 	bl	9e90 <clean_reboot>
    a6c8:	0000b6f8 	strdeq	fp, [r0], -r8
    a6cc:	0000b2c8 	andeq	fp, r0, r8, asr #5
    a6d0:	0000b6cc 	andeq	fp, r0, ip, asr #13
    a6d4:	0000b6ac 	andeq	fp, r0, ip, lsr #13

0000a6d8 <system_enable_interrupts>:
    a6d8:	e10f0000 	mrs	r0, CPSR
    a6dc:	e3c00080 	bic	r0, r0, #128	; 0x80
    a6e0:	e121f000 	msr	CPSR_c, r0
    a6e4:	e12fff1e 	bx	lr

0000a6e8 <system_disable_interrupts>:
    a6e8:	e10f0000 	mrs	r0, CPSR
    a6ec:	e3800080 	orr	r0, r0, #128	; 0x80
    a6f0:	e121f000 	msr	CPSR_c, r0
    a6f4:	e12fff1e 	bx	lr

Disassembly of section .data:

0000a6f8 <__data_start__>:
    a6f8:	0000000e 	andeq	r0, r0, lr

0000a6fc <start_check>:
    a6fc:	00008000 	andeq	r8, r0, r0

0000a700 <end_check>:
    a700:	0000a6f8 	strdeq	sl, [r0], -r8

0000a704 <start_nocheck>:
    a704:	00008194 	muleq	r0, r4, r1

0000a708 <end_nocheck>:
    a708:	00008994 	muleq	r0, r4, r9

0000a70c <rpi_putchar>:
    a70c:	00009914 	andeq	r9, r0, r4, lsl r9

0000a710 <putk>:
    a710:	00009950 	andeq	r9, r0, r0, asr r9

0000a714 <heap>:
    a714:	0000bbb0 			; <UNDEFINED> instruction: 0x0000bbb0

0000a718 <heap_start>:
    a718:	0000bbb0 			; <UNDEFINED> instruction: 0x0000bbb0

Disassembly of section .rodata:

0000a71c <__FUNCTION__.4221-0x8c>:
    a71c:	74736574 	ldrbtvc	r6, [r3], #-1396	; 0x574
    a720:	61702f73 	cmnvs	r0, r3, ror pc
    a724:	2d337472 	cfldrscs	mvf7, [r3, #-456]!	; 0xfffffe38
    a728:	74736574 	ldrbtvc	r6, [r3], #-1396	; 0x574
    a72c:	00632e31 	rsbeq	r2, r3, r1, lsr lr
    a730:	494e4150 	stmdbmi	lr, {r4, r6, r8, lr}^
    a734:	73253a43 	teqvc	r5, #274432	; 0x43000
    a738:	3a73253a 	bcc	1cd3c28 <__bss_end__+0x1cc8078>
    a73c:	6e3a6425 	cdpvs	4, 3, cr6, cr10, cr5, {1}
    a740:	6863206f 	stmdavs	r3!, {r0, r1, r2, r3, r5, r6, sp}^
    a744:	736b6365 	cmnvc	fp, #-1811939327	; 0x94000001
    a748:	70616820 	rsbvc	r6, r1, r0, lsr #16
    a74c:	656e6570 	strbvs	r6, [lr, #-1392]!	; 0x570
    a750:	0a3f3f64 	beq	fda4e8 <__bss_end__+0xfce938>
    a754:	0000000a 	andeq	r0, r0, sl
    a758:	74736574 	ldrbtvc	r6, [r3], #-1396	; 0x574
    a75c:	00000a31 	andeq	r0, r0, r1, lsr sl
    a760:	756f6261 	strbvc	r6, [pc, #-609]!	; a507 <kmalloc_heap_end+0x7>
    a764:	6f742074 	svcvs	0x00742074
    a768:	6c616320 	stclvs	3, cr6, [r1], #-128	; 0xffffff80
    a76c:	6761206c 	strbvs	r2, [r1, -ip, rrx]!
    a770:	0a6e6961 	beq	1ba4cfc <__bss_end__+0x1b9914c>
    a774:	00000000 	andeq	r0, r0, r0
    a778:	494e4150 	stmdbmi	lr, {r4, r6, r8, lr}^
    a77c:	73253a43 	teqvc	r5, #274432	; 0x43000
    a780:	3a73253a 	bcc	1cd3c70 <__bss_end__+0x1cc80c0>
    a784:	463a6425 	ldrtmi	r6, [sl], -r5, lsr #8
    a788:	3a4c4941 	bcc	131cc94 <__bss_end__+0x13110e4>
    a78c:	206f6e20 	rsbcs	r6, pc, r0, lsr #28
    a790:	70616568 	rsbvc	r6, r1, r8, ror #10
    a794:	72726520 	rsbsvc	r6, r2, #32, 10	; 0x8000000
    a798:	3f73726f 	svccc	0x0073726f
    a79c:	000a0a3f 	andeq	r0, sl, pc, lsr sl
    a7a0:	43415254 	movtmi	r5, #4692	; 0x1254
    a7a4:	00003a45 	andeq	r3, r0, r5, asr #20

0000a7a8 <__FUNCTION__.4221>:
    a7a8:	74736574 	ldrbtvc	r6, [r3], #-1396	; 0x574
    a7ac:	6568635f 	strbvs	r6, [r8, #-863]!	; 0x35f
    a7b0:	00006b63 	andeq	r6, r0, r3, ror #22

0000a7b4 <__FUNCTION__.4232>:
    a7b4:	6d746f6e 	ldclvs	15, cr6, [r4, #-440]!	; 0xfffffe48
    a7b8:	006e6961 	rsbeq	r6, lr, r1, ror #18
    a7bc:	494e4150 	stmdbmi	lr, {r4, r6, r8, lr}^
    a7c0:	73253a43 	teqvc	r5, #274432	; 0x43000
    a7c4:	3a73253a 	bcc	1cd3cb4 <__bss_end__+0x1cc8104>
    a7c8:	613a6425 	teqvs	sl, r5, lsr #8
    a7cc:	6e67696c 	cdpvs	9, 6, cr6, cr7, cr12, {3}
    a7d0:	68286465 	stmdavs	r8!, {r0, r2, r5, r6, sl, sp, lr}
    a7d4:	5f706165 	svcpl	0x00706165
    a7d8:	72617473 	rsbvc	r7, r1, #1929379840	; 0x73000000
    a7dc:	38202c74 	stmdacc	r0!, {r2, r4, r5, r6, sl, fp, sp}
    a7e0:	00000a29 	andeq	r0, r0, r9, lsr #20
    a7e4:	6c616b63 	stclvs	11, cr6, [r1], #-396	; 0xfffffe74
    a7e8:	2e636f6c 	cdpcs	15, 6, cr6, cr3, cr12, {3}
    a7ec:	00000063 	andeq	r0, r0, r3, rrx
    a7f0:	657a6973 	ldrbvs	r6, [sl, #-2419]!	; 0x973
    a7f4:	6820666f 	stmdavs	r0!, {r0, r1, r2, r3, r5, r6, r9, sl, sp, lr}
    a7f8:	253d7264 	ldrcs	r7, [sp, #-612]!	; 0x264
    a7fc:	72202c64 	eorvc	r2, r0, #100, 24	; 0x6400
    a800:	6f7a6465 	svcvs	0x007a6465
    a804:	253d656e 	ldrcs	r6, [sp, #-1390]!	; 0x56e
    a808:	00000a64 	andeq	r0, r0, r4, ror #20
    a80c:	494e4150 	stmdbmi	lr, {r4, r6, r8, lr}^
    a810:	73253a43 	teqvc	r5, #274432	; 0x43000
    a814:	3a73253a 	bcc	1cd3d04 <__bss_end__+0x1cc8154>
    a818:	683a6425 	ldmdavs	sl!, {r0, r2, r5, sl, sp, lr}
    a81c:	635f7264 	cmpvs	pc, #100, 4	; 0x40000006
    a820:	6d75736b 	ldclvs	3, cr7, [r5, #-428]!	; 0xfffffe54
    a824:	6c61765f 	stclvs	6, cr7, [r1], #-380	; 0xfffffe84
    a828:	203d3d20 	eorscs	r3, sp, r0, lsr #26
    a82c:	633e2d68 	teqvs	lr, #104, 26	; 0x1a00
    a830:	6d75736b 	ldclvs	3, cr7, [r5, #-428]!	; 0xfffffe54
    a834:	0000000a 	andeq	r0, r0, sl
    a838:	494e4150 	stmdbmi	lr, {r4, r6, r8, lr}^
    a83c:	73253a43 	teqvc	r5, #274432	; 0x43000
    a840:	3a73253a 	bcc	1cd3d30 <__bss_end__+0x1cc8180>
    a844:	683a6425 	ldmdavs	sl!, {r0, r2, r5, sl, sp, lr}
    a848:	74733e2d 	ldrbtvc	r3, [r3], #-3629	; 0xe2d
    a84c:	20657461 	rsbcs	r7, r5, r1, ror #8
    a850:	41203d3d 	teqmi	r0, sp, lsr sp
    a854:	434f4c4c 	movtmi	r4, #64588	; 0xfc4c
    a858:	7c204445 	cfstrsvc	mvf4, [r0], #-276	; 0xfffffeec
    a85c:	2d68207c 	stclcs	0, cr2, [r8, #-496]!	; 0xfffffe10
    a860:	6174733e 	cmnvs	r4, lr, lsr r3
    a864:	3d206574 	cfstr32cc	mvfx6, [r0, #-464]!	; 0xfffffe30
    a868:	5246203d 	subpl	r2, r6, #61	; 0x3d
    a86c:	0a444545 	beq	111bd88 <__bss_end__+0x11101d8>
    a870:	00000000 	andeq	r0, r0, r0
    a874:	5d695b70 	vstmdbpl	r9!, {d21-<overflow reg d76>}
    a878:	7825203a 	stmdavc	r5!, {r1, r3, r4, r5, sp}
    a87c:	0000000a 	andeq	r0, r0, sl
    a880:	4f525245 	svcmi	0x00525245
    a884:	73253a52 	teqvc	r5, #335872	; 0x52000
    a888:	3a73253a 	bcc	1cd3d78 <__bss_end__+0x1cc81c8>
    a88c:	203a6425 	eorscs	r6, sl, r5, lsr #8
    a890:	534c4146 	movtpl	r4, #49478	; 0xc146
    a894:	683c2845 	ldmdavs	ip!, {r0, r2, r6, fp, sp}
    a898:	3e706165 	rpwccsz	f6, f0, f5
    a89c:	6e203a29 	vmulvs.f32	s6, s0, s19
    a8a0:	6920746f 	stmdbvs	r0!, {r0, r1, r2, r3, r5, r6, sl, ip, sp, lr}
    a8a4:	6974696e 	ldmdbvs	r4!, {r1, r2, r3, r5, r6, r8, fp, sp, lr}^
    a8a8:	7a696c61 	bvc	1a65a34 <__bss_end__+0x1a59e84>
    a8ac:	0a3f6465 	beq	fe3a48 <__bss_end__+0xfd7e98>
    a8b0:	00000000 	andeq	r0, r0, r0
    a8b4:	65657266 	strbvs	r7, [r5, #-614]!	; 0x266
    a8b8:	20676e69 	rsbcs	r6, r7, r9, ror #28
    a8bc:	000a7025 	andeq	r7, sl, r5, lsr #32
    a8c0:	6f6c6c61 	svcvs	0x006c6c61
    a8c4:	69746163 	ldmdbvs	r4!, {r0, r1, r5, r6, r8, sp, lr}^
    a8c8:	2520676e 	strcs	r6, [r0, #-1902]!	; 0x76e
    a8cc:	79622064 	stmdbvc	r2!, {r2, r5, r6, sp}^
    a8d0:	0a736574 	beq	1ce3ea8 <__bss_end__+0x1cd82f8>
    a8d4:	00000000 	andeq	r0, r0, r0
    a8d8:	43415254 	movtmi	r5, #4692	; 0x1254
    a8dc:	52453a45 	subpl	r3, r5, #282624	; 0x45000
    a8e0:	00524f52 	subseq	r4, r2, r2, asr pc
    a8e4:	657a6973 	ldrbvs	r6, [sl, #-2419]!	; 0x973
    a8e8:	65766f20 	ldrbvs	r6, [r6, #-3872]!	; 0xf20
    a8ec:	6f6c6672 	svcvs	0x006c6672
    a8f0:	3a646577 	bcc	1923ed4 <__bss_end__+0x1918324>
    a8f4:	20642520 	rsbcs	r2, r4, r0, lsr #10
    a8f8:	65747962 	ldrbvs	r7, [r4, #-2402]!	; 0x962
    a8fc:	73692073 	cmnvc	r9, #115	; 0x73
    a900:	6f6f7420 	svcvs	0x006f7420
    a904:	72616c20 	rsbvc	r6, r1, #32, 24	; 0x2000
    a908:	000a6567 	andeq	r6, sl, r7, ror #10
    a90c:	494e4150 	stmdbmi	lr, {r4, r6, r8, lr}^
    a910:	73253a43 	teqvc	r5, #274432	; 0x43000
    a914:	3a73253a 	bcc	1cd3e04 <__bss_end__+0x1cc8254>
    a918:	733a6425 	teqvc	sl, #620756992	; 0x25000000
    a91c:	20657a69 	rsbcs	r7, r5, r9, ror #20
    a920:	7265766f 	rsbvc	r7, r5, #116391936	; 0x6f00000
    a924:	776f6c66 	strbvc	r6, [pc, -r6, ror #24]!
    a928:	203a6465 	eorscs	r6, sl, r5, ror #8
    a92c:	62206425 	eorvs	r6, r0, #620756992	; 0x25000000
    a930:	73657479 	cmnvc	r5, #2030043136	; 0x79000000
    a934:	20736920 	rsbscs	r6, r3, r0, lsr #18
    a938:	206f6f74 	rsbcs	r6, pc, r4, ror pc	; <UNPREDICTABLE>
    a93c:	6772616c 	ldrbvs	r6, [r2, -ip, ror #2]!
    a940:	000a0a65 	andeq	r0, sl, r5, ror #20
    a944:	2074756f 	rsbscs	r7, r4, pc, ror #10
    a948:	6d20666f 	stcvs	6, cr6, [r0, #-444]!	; 0xfffffe44
    a94c:	726f6d65 	rsbvc	r6, pc, #6464	; 0x1940
    a950:	20202179 	eorcs	r2, r0, r9, ror r1
    a954:	65766168 	ldrbvs	r6, [r6, #-360]!	; 0x168
    a958:	6c6e6f20 	stclvs	15, cr6, [lr], #-128	; 0xffffff80
    a95c:	64252079 	strtvs	r2, [r5], #-121	; 0x79
    a960:	66656c20 	strbtvs	r6, [r5], -r0, lsr #24
    a964:	6e202c74 	mcrvs	12, 1, r2, cr0, cr4, {3}
    a968:	20646565 	rsbcs	r6, r4, r5, ror #10
    a96c:	000a6425 	andeq	r6, sl, r5, lsr #8
    a970:	494e4150 	stmdbmi	lr, {r4, r6, r8, lr}^
    a974:	73253a43 	teqvc	r5, #274432	; 0x43000
    a978:	3a73253a 	bcc	1cd3e68 <__bss_end__+0x1cc82b8>
    a97c:	6f3a6425 	svcvs	0x003a6425
    a980:	6f207475 	svcvs	0x00207475
    a984:	656d2066 	strbvs	r2, [sp, #-102]!	; 0x66
    a988:	79726f6d 	ldmdbvc	r2!, {r0, r2, r3, r5, r6, r8, r9, sl, fp, sp, lr}^
    a98c:	68202021 	stmdavs	r0!, {r0, r5, sp}
    a990:	20657661 	rsbcs	r7, r5, r1, ror #12
    a994:	796c6e6f 	stmdbvc	ip!, {r0, r1, r2, r3, r5, r6, r9, sl, fp, sp, lr}^
    a998:	20642520 	rsbcs	r2, r4, r0, lsr #10
    a99c:	7466656c 	strbtvc	r6, [r6], #-1388	; 0x56c
    a9a0:	656e202c 	strbvs	r2, [lr, #-44]!	; 0x2c
    a9a4:	25206465 	strcs	r6, [r0, #-1125]!	; 0x465
    a9a8:	000a0a64 	andeq	r0, sl, r4, ror #20
    a9ac:	494e4150 	stmdbmi	lr, {r4, r6, r8, lr}^
    a9b0:	73253a43 	teqvc	r5, #274432	; 0x43000
    a9b4:	3a73253a 	bcc	1cd3ea4 <__bss_end__+0x1cc82f4>
    a9b8:	633a6425 	teqvs	sl, #620756992	; 0x25000000
    a9bc:	6b636568 	blvs	18e3f64 <__bss_end__+0x18d83b4>
    a9c0:	7264685f 	rsbvc	r6, r4, #6225920	; 0x5f0000
    a9c4:	0a296828 	beq	a64a6c <__bss_end__+0xa58ebc>
    a9c8:	00000000 	andeq	r0, r0, r0
    a9cc:	494e4150 	stmdbmi	lr, {r4, r6, r8, lr}^
    a9d0:	73253a43 	teqvc	r5, #274432	; 0x43000
    a9d4:	3a73253a 	bcc	1cd3ec4 <__bss_end__+0x1cc8314>
    a9d8:	633a6425 	teqvs	sl, #620756992	; 0x25000000
    a9dc:	6b636568 	blvs	18e3f84 <__bss_end__+0x18d83d4>
    a9e0:	6f6c625f 	svcvs	0x006c625f
    a9e4:	68286b63 	stmdavs	r8!, {r0, r1, r5, r6, r8, r9, fp, sp, lr}
    a9e8:	00000a29 	andeq	r0, r0, r9, lsr #20
    a9ec:	6c616b63 	stclvs	11, cr6, [r1], #-396	; 0xfffffe74
    a9f0:	3a636f6c 	bcc	18e67a8 <__bss_end__+0x18dabf8>
    a9f4:	6f6c6c61 	svcvs	0x006c6c61
    a9f8:	65746163 	ldrbvs	r6, [r4, #-355]!	; 0x163
    a9fc:	64252064 	strtvs	r2, [r5], #-100	; 0x64
    aa00:	74796220 	ldrbtvc	r6, [r9], #-544	; 0x220
    aa04:	202c7365 	eorcs	r7, ip, r5, ror #6
    aa08:	746f7428 	strbtvc	r7, [pc], #-1064	; aa10 <__FUNCTION__.4232+0x25c>
    aa0c:	253d6c61 	ldrcs	r6, [sp, #-3169]!	; 0xc61
    aa10:	202c2964 	eorcs	r2, ip, r4, ror #18
    aa14:	3d727470 	cfldrdcc	mvd7, [r2, #-448]!	; 0xfffffe40
    aa18:	000a7025 	andeq	r7, sl, r5, lsr #32
    aa1c:	6e696f67 	cdpvs	15, 6, cr6, cr9, cr7, {3}
    aa20:	6f742067 	svcvs	0x00742067
    aa24:	65686320 	strbvs	r6, [r8, #-800]!	; 0x320
    aa28:	68206b63 	stmdavs	r0!, {r0, r1, r5, r6, r8, r9, fp, sp, lr}
    aa2c:	3a706165 	bcc	1c22fc8 <__bss_end__+0x1c17418>
    aa30:	20642520 	rsbcs	r2, r4, r0, lsr #10
    aa34:	65747962 	ldrbvs	r7, [r4, #-2402]!	; 0x962
    aa38:	6c612073 	stclvs	0, cr2, [r1], #-460	; 0xfffffe34
    aa3c:	61636f6c 	cmnvs	r3, ip, ror #30
    aa40:	2c646574 	cfstr64cs	mvdx6, [r4], #-464	; 0xfffffe30
    aa44:	20642520 	rsbcs	r2, r4, r0, lsr #10
    aa48:	65747962 	ldrbvs	r7, [r4, #-2402]!	; 0x962
    aa4c:	656c2073 	strbvs	r2, [ip, #-115]!	; 0x73
    aa50:	000a7466 	andeq	r7, sl, r6, ror #8
    aa54:	494e4150 	stmdbmi	lr, {r4, r6, r8, lr}^
    aa58:	73253a43 	teqvc	r5, #274432	; 0x43000
    aa5c:	3a73253a 	bcc	1cd3f4c <__bss_end__+0x1cc839c>
    aa60:	633a6425 	teqvs	sl, #620756992	; 0x25000000
    aa64:	6b636568 	blvs	18e400c <__bss_end__+0x18d845c>
    aa68:	7274705f 	rsbsvc	r7, r4, #95	; 0x5f
    aa6c:	68203c20 	stmdavs	r0!, {r5, sl, fp, ip, sp}
    aa70:	0a706165 	beq	1c2300c <__bss_end__+0x1c1745c>
    aa74:	00000000 	andeq	r0, r0, r0
    aa78:	64616568 	strbtvs	r6, [r1], #-1384	; 0x568
    aa7c:	69207265 	stmdbvs	r0!, {r0, r2, r5, r6, r9, ip, sp, lr}
    aa80:	6f632073 	svcvs	0x00632073
    aa84:	70757272 	rsbsvc	r7, r5, r2, ror r2
    aa88:	00646574 	rsbeq	r6, r4, r4, ror r5
    aa8c:	63656863 	cmnvs	r5, #6488064	; 0x630000
    aa90:	2064656b 	rsbcs	r6, r4, fp, ror #10
    aa94:	62206425 	eorvs	r6, r0, #620756992	; 0x25000000
    aa98:	6b636f6c 	blvs	18e6850 <__bss_end__+0x18daca0>
    aa9c:	64202c73 	strtvs	r2, [r0], #-3187	; 0xc73
    aaa0:	63657465 	cmnvs	r5, #1694498816	; 0x65000000
    aaa4:	20646574 	rsbcs	r6, r4, r4, ror r5
    aaa8:	65206425 	strvs	r6, [r0, #-1061]!	; 0x425
    aaac:	726f7272 	rsbvc	r7, pc, #536870919	; 0x20000007
    aab0:	00000a73 	andeq	r0, r0, r3, ror sl
    aab4:	43435553 	movtmi	r5, #13651	; 0x3553
    aab8:	3a535345 	bcc	14df7d4 <__bss_end__+0x14d3c24>
    aabc:	65686320 	strbvs	r6, [r8, #-800]!	; 0x320
    aac0:	64656b63 	strbtvs	r6, [r5], #-2915	; 0xb63
    aac4:	20642520 	rsbcs	r2, r4, r0, lsr #10
    aac8:	636f6c62 	cmnvs	pc, #25088	; 0x6200
    aacc:	202c736b 	eorcs	r7, ip, fp, ror #6
    aad0:	65746564 	ldrbvs	r6, [r4, #-1380]!	; 0x564
    aad4:	64657463 	strbtvs	r7, [r5], #-1123	; 0x463
    aad8:	206f6e20 	rsbcs	r6, pc, r0, lsr #28
    aadc:	6f727265 	svcvs	0x00727265
    aae0:	000a7372 	andeq	r7, sl, r2, ror r3
    aae4:	494e4150 	stmdbmi	lr, {r4, r6, r8, lr}^
    aae8:	73253a43 	teqvc	r5, #274432	; 0x43000
    aaec:	3a73253a 	bcc	1cd3fdc <__bss_end__+0x1cc842c>
    aaf0:	633a6425 	teqvs	sl, #620756992	; 0x25000000
    aaf4:	6b636568 	blvs	18e409c <__bss_end__+0x18d84ec>
    aaf8:	7264685f 	rsbvc	r6, r4, #6225920	; 0x5f0000
    aafc:	72756328 	rsbsvc	r6, r5, #40, 6	; 0xa0000000
    ab00:	64685f72 	strbtvs	r5, [r8], #-3954	; 0xf72
    ab04:	000a2972 	andeq	r2, sl, r2, ror r9
    ab08:	494e4150 	stmdbmi	lr, {r4, r6, r8, lr}^
    ab0c:	73253a43 	teqvc	r5, #274432	; 0x43000
    ab10:	3a73253a 	bcc	1cd4000 <__bss_end__+0x1cc8450>
    ab14:	283a6425 	ldmdacs	sl!, {r0, r2, r5, sl, sp, lr}
    ab18:	746e6975 	strbtvc	r6, [lr], #-2421	; 0x975
    ab1c:	2a745f38 	bcs	1d22804 <__bss_end__+0x1d16c54>
    ab20:	78656e29 	stmdavc	r5!, {r0, r3, r5, r9, sl, fp, sp, lr}^
    ab24:	64685f74 	strbtvs	r5, [r8], #-3956	; 0xf74
    ab28:	203c2072 	eorscs	r2, ip, r2, ror r0
    ab2c:	70616568 	rsbvc	r6, r1, r8, ror #10
    ab30:	0000000a 	andeq	r0, r0, sl
    ab34:	494e4150 	stmdbmi	lr, {r4, r6, r8, lr}^
    ab38:	73253a43 	teqvc	r5, #274432	; 0x43000
    ab3c:	3a73253a 	bcc	1cd402c <__bss_end__+0x1cc847c>
    ab40:	633a6425 	teqvs	sl, #620756992	; 0x25000000
    ab44:	6b636568 	blvs	18e40ec <__bss_end__+0x18d853c>
    ab48:	7264685f 	rsbvc	r6, r4, #6225920	; 0x5f0000
    ab4c:	78656e28 	stmdavc	r5!, {r3, r5, r9, sl, fp, sp, lr}^
    ab50:	64685f74 	strbtvs	r5, [r8], #-3956	; 0xf74
    ab54:	000a2972 	andeq	r2, sl, r2, ror r9

0000ab58 <__FUNCTION__.4288>:
    ab58:	695f6b63 	ldmdbvs	pc, {r0, r1, r5, r6, r8, r9, fp, sp, lr}^	; <UNPREDICTABLE>
    ab5c:	0074696e 	rsbseq	r6, r4, lr, ror #18

0000ab60 <__FUNCTION__.4327>:
    ab60:	72666b63 	rsbvc	r6, r6, #101376	; 0x18c00
    ab64:	00006565 	andeq	r6, r0, r5, ror #10

0000ab68 <__FUNCTION__.4301>:
    ab68:	63656863 	cmnvs	r5, #6488064	; 0x630000
    ab6c:	64685f6b 	strbtvs	r5, [r8], #-3947	; 0xf6b
    ab70:	00000072 	andeq	r0, r0, r2, ror r0

0000ab74 <__FUNCTION__.4336>:
    ab74:	6c616b63 	stclvs	11, cr6, [r1], #-396	; 0xfffffe74
    ab78:	00636f6c 	rsbeq	r6, r3, ip, ror #30

0000ab7c <__FUNCTION__.4347>:
    ab7c:	685f6b63 	ldmdavs	pc, {r0, r1, r5, r6, r8, r9, fp, sp, lr}^	; <UNPREDICTABLE>
    ab80:	5f706165 	svcpl	0x00706165
    ab84:	6f727265 	svcvs	0x00727265
    ab88:	00007372 	andeq	r7, r0, r2, ror r3

0000ab8c <__FUNCTION__.4356>:
    ab8c:	665f6b63 	ldrbvs	r6, [pc], -r3, ror #22
    ab90:	74737269 	ldrbtvc	r7, [r3], #-617	; 0x269
    ab94:	7264685f 	rsbvc	r6, r4, #6225920	; 0x5f0000
    ab98:	00000000 	andeq	r0, r0, r0

0000ab9c <__FUNCTION__.4361>:
    ab9c:	6e5f6b63 	vnmlavs.f64	d22, d15, d19
    aba0:	5f747865 	svcpl	0x00747865
    aba4:	00726468 	rsbseq	r6, r2, r8, ror #8
    aba8:	494e4150 	stmdbmi	lr, {r4, r6, r8, lr}^
    abac:	73253a43 	teqvc	r5, #274432	; 0x43000
    abb0:	3a73253a 	bcc	1cd40a0 <__bss_end__+0x1cc84f0>
    abb4:	703a6425 	eorsvc	r6, sl, r5, lsr #8
    abb8:	000a653c 	andeq	r6, sl, ip, lsr r5
    abbc:	672d6b63 	strvs	r6, [sp, -r3, ror #22]!
    abc0:	00632e63 	rsbeq	r2, r3, r3, ror #28
    abc4:	494e4150 	stmdbmi	lr, {r4, r6, r8, lr}^
    abc8:	73253a43 	teqvc	r5, #274432	; 0x43000
    abcc:	3a73253a 	bcc	1cd40bc <__bss_end__+0x1cc850c>
    abd0:	613a6425 	teqvs	sl, r5, lsr #8
    abd4:	6e67696c 	cdpvs	9, 6, cr6, cr7, cr12, {3}
    abd8:	70286465 	eorvc	r6, r8, r5, ror #8
    abdc:	0a29342c 	beq	a57c94 <__bss_end__+0xa4c0e4>
    abe0:	00000000 	andeq	r0, r0, r0
    abe4:	494e4150 	stmdbmi	lr, {r4, r6, r8, lr}^
    abe8:	73253a43 	teqvc	r5, #274432	; 0x43000
    abec:	3a73253a 	bcc	1cd40dc <__bss_end__+0x1cc852c>
    abf0:	613a6425 	teqvs	sl, r5, lsr #8
    abf4:	6e67696c 	cdpvs	9, 6, cr6, cr7, cr12, {3}
    abf8:	65286465 	strvs	r6, [r8, #-1125]!	; 0x465
    abfc:	0a29342c 	beq	a57cb4 <__bss_end__+0xa4c104>
    ac00:	00000000 	andeq	r0, r0, r0
    ac04:	2d2d2d2d 	stccs	13, cr2, [sp, #-180]!	; 0xffffff4c
    ac08:	2d2d2d2d 	stccs	13, cr2, [sp, #-180]!	; 0xffffff4c
    ac0c:	2d2d2d2d 	stccs	13, cr2, [sp, #-180]!	; 0xffffff4c
    ac10:	2d2d2d2d 	stccs	13, cr2, [sp, #-180]!	; 0xffffff4c
    ac14:	2d2d2d2d 	stccs	13, cr2, [sp, #-180]!	; 0xffffff4c
    ac18:	2d2d2d2d 	stccs	13, cr2, [sp, #-180]!	; 0xffffff4c
    ac1c:	2d2d2d2d 	stccs	13, cr2, [sp, #-180]!	; 0xffffff4c
    ac20:	2d2d2d2d 	stccs	13, cr2, [sp, #-180]!	; 0xffffff4c
    ac24:	2d2d2d2d 	stccs	13, cr2, [sp, #-180]!	; 0xffffff4c
    ac28:	2d2d2d2d 	stccs	13, cr2, [sp, #-180]!	; 0xffffff4c
    ac2c:	2d2d2d2d 	stccs	13, cr2, [sp, #-180]!	; 0xffffff4c
    ac30:	2d2d2d2d 	stccs	13, cr2, [sp, #-180]!	; 0xffffff4c
    ac34:	2d2d2d2d 	stccs	13, cr2, [sp, #-180]!	; 0xffffff4c
    ac38:	2d2d2d2d 	stccs	13, cr2, [sp, #-180]!	; 0xffffff4c
    ac3c:	00000a2d 	andeq	r0, r0, sp, lsr #20
    ac40:	63656863 	cmnvs	r5, #6488064	; 0x630000
    ac44:	676e696b 	strbvs	r6, [lr, -fp, ror #18]!
    ac48:	726f6620 	rsbvc	r6, pc, #32, 12	; 0x2000000
    ac4c:	61656c20 	cmnvs	r5, r0, lsr #24
    ac50:	0a3a736b 	beq	ea7a04 <__bss_end__+0xe9be54>
    ac54:	00000000 	andeq	r0, r0, r0
    ac58:	4f525245 	svcmi	0x00525245
    ac5c:	43473a52 	movtmi	r3, #31314	; 0x7a52
    ac60:	4645443a 			; <UNDEFINED> instruction: 0x4645443a
    ac64:	54494e49 	strbpl	r4, [r9], #-3657	; 0xe49
    ac68:	454c2045 	strbmi	r2, [ip, #-69]	; 0x45
    ac6c:	6f204b41 	svcvs	0x00204b41
    ac70:	78252066 	stmdavc	r5!, {r1, r2, r5, r6, sp}
    ac74:	0000000a 	andeq	r0, r0, sl
    ac78:	4f525245 	svcmi	0x00525245
    ac7c:	43473a52 	movtmi	r3, #31314	; 0x7a52
    ac80:	59414d3a 	stmdbpl	r1, {r1, r3, r4, r5, r8, sl, fp, lr}^
    ac84:	4c204542 	cfstr32mi	mvfx4, [r0], #-264	; 0xfffffef8
    ac88:	204b4145 	subcs	r4, fp, r5, asr #2
    ac8c:	2520666f 	strcs	r6, [r0, #-1647]!	; 0x66f
    ac90:	6e282078 	mcrvs	0, 1, r2, cr8, cr8, {3}
    ac94:	6f70206f 	svcvs	0x0070206f
    ac98:	65746e69 	ldrbvs	r6, [r4, #-3689]!	; 0xe69
    ac9c:	6f742072 	svcvs	0x00742072
    aca0:	65687420 	strbvs	r7, [r8, #-1056]!	; 0x420
    aca4:	61747320 	cmnvs	r4, r0, lsr #6
    aca8:	0a297472 	beq	a67e78 <__bss_end__+0xa5c2c8>
    acac:	00000000 	andeq	r0, r0, r0
    acb0:	3a434709 	bcc	10dc8dc <__bss_end__+0x10d0d2c>
    acb4:	63656843 	cmnvs	r5, #4390912	; 0x430000
    acb8:	2064656b 	rsbcs	r6, r4, fp, ror #10
    acbc:	62206425 	eorvs	r6, r0, #620756992	; 0x25000000
    acc0:	6b636f6c 	blvs	18e6a78 <__bss_end__+0x18daec8>
    acc4:	000a2e73 	andeq	r2, sl, r3, ror lr
    acc8:	43470909 	movtmi	r0, #30985	; 0x7909
    accc:	4355533a 	cmpmi	r5, #-402653184	; 0xe8000000
    acd0:	53534543 	cmppl	r3, #281018368	; 0x10c00000
    acd4:	6f4e203a 	svcvs	0x004e203a
    acd8:	61656c20 	cmnvs	r5, r0, lsr #24
    acdc:	6620736b 	strtvs	r7, [r0], -fp, ror #6
    ace0:	646e756f 	strbtvs	r7, [lr], #-1391	; 0x56f
    ace4:	00000a21 	andeq	r0, r0, r1, lsr #20
    ace8:	43470909 	movtmi	r0, #30985	; 0x7909
    acec:	5252453a 	subspl	r4, r2, #243269632	; 0xe800000
    acf0:	3a53524f 	bcc	14df634 <__bss_end__+0x14d3a84>
    acf4:	20642520 	rsbcs	r2, r4, r0, lsr #10
    acf8:	6f727265 	svcvs	0x00727265
    acfc:	202c7372 	eorcs	r7, ip, r2, ror r3
    ad00:	6d206425 	cfstrsvs	mvf6, [r0, #-148]!	; 0xffffff6c
    ad04:	65627961 	strbvs	r7, [r2, #-2401]!	; 0x961
    ad08:	7272655f 	rsbsvc	r6, r2, #398458880	; 0x17c00000
    ad0c:	0a73726f 	beq	1ce76d0 <__bss_end__+0x1cdbb20>
    ad10:	00000000 	andeq	r0, r0, r0
    ad14:	2d2d2d2d 	stccs	13, cr2, [sp, #-180]!	; 0xffffff4c
    ad18:	2d2d2d2d 	stccs	13, cr2, [sp, #-180]!	; 0xffffff4c
    ad1c:	2d2d2d2d 	stccs	13, cr2, [sp, #-180]!	; 0xffffff4c
    ad20:	2d2d2d2d 	stccs	13, cr2, [sp, #-180]!	; 0xffffff4c
    ad24:	2d2d2d2d 	stccs	13, cr2, [sp, #-180]!	; 0xffffff4c
    ad28:	2d2d2d2d 	stccs	13, cr2, [sp, #-180]!	; 0xffffff4c
    ad2c:	2d2d2d2d 	stccs	13, cr2, [sp, #-180]!	; 0xffffff4c
    ad30:	2d2d2d2d 	stccs	13, cr2, [sp, #-180]!	; 0xffffff4c
    ad34:	2d2d2d2d 	stccs	13, cr2, [sp, #-180]!	; 0xffffff4c
    ad38:	2d2d2d2d 	stccs	13, cr2, [sp, #-180]!	; 0xffffff4c
    ad3c:	2d2d2d2d 	stccs	13, cr2, [sp, #-180]!	; 0xffffff4c
    ad40:	2d2d2d2d 	stccs	13, cr2, [sp, #-180]!	; 0xffffff4c
    ad44:	2d2d2d2d 	stccs	13, cr2, [sp, #-180]!	; 0xffffff4c
    ad48:	2d2d2d2d 	stccs	13, cr2, [sp, #-180]!	; 0xffffff4c
    ad4c:	000a2d2d 	andeq	r2, sl, sp, lsr #26
    ad50:	494e4150 	stmdbmi	lr, {r4, r6, r8, lr}^
    ad54:	73253a43 	teqvc	r5, #274432	; 0x43000
    ad58:	3a73253a 	bcc	1cd4248 <__bss_end__+0x1cc8698>
    ad5c:	723a6425 	eorsvc	r6, sl, #620756992	; 0x25000000
    ad60:	5b736765 	blpl	1ce4afc <__bss_end__+0x1cd8f4c>
    ad64:	3d205d30 	stccc	13, cr5, [r0, #-192]!	; 0xffffff40
    ad68:	7528203d 	strvc	r2, [r8, #-61]!	; 0x3d
    ad6c:	33746e69 	cmncc	r4, #1680	; 0x690
    ad70:	29745f32 	ldmdbcs	r4!, {r1, r4, r5, r8, r9, sl, fp, ip, lr}^
    ad74:	67657226 	strbvs	r7, [r5, -r6, lsr #4]!
    ad78:	5d305b73 	fldmdbxpl	r0!, {d5-d61}	;@ Deprecated
    ad7c:	0000000a 	andeq	r0, r0, sl
    ad80:	494e4150 	stmdbmi	lr, {r4, r6, r8, lr}^
    ad84:	73253a43 	teqvc	r5, #274432	; 0x43000
    ad88:	3a73253a 	bcc	1cd4278 <__bss_end__+0x1cc86c8>
    ad8c:	473a6425 	ldrmi	r6, [sl, -r5, lsr #8]!
    ad90:	69203a43 	stmdbvs	r0!, {r0, r1, r6, r9, fp, ip, sp}
    ad94:	6c61766e 	stclvs	6, cr7, [r1], #-440	; 0xfffffe48
    ad98:	65206469 	strvs	r6, [r0, #-1129]!	; 0x469
    ad9c:	726f7272 	rsbvc	r7, pc, #536870919	; 0x20000007
    ada0:	0a0a2121 	beq	29322c <__bss_end__+0x28767c>
    ada4:	00000000 	andeq	r0, r0, r0
    ada8:	203a4347 	eorscs	r4, sl, r7, asr #6
    adac:	43435553 	movtmi	r5, #13651	; 0x3553
    adb0:	20535345 	subscs	r5, r3, r5, asr #6
    adb4:	70616568 	rsbvc	r6, r1, r8, ror #10
    adb8:	65686320 	strbvs	r6, [r8, #-800]!	; 0x320
    adbc:	64656b63 	strbtvs	r6, [r5], #-2915	; 0xb63
    adc0:	74756f20 	ldrbtvc	r6, [r5], #-3872	; 0xf20
    adc4:	0000000a 	andeq	r0, r0, sl
    adc8:	494e4150 	stmdbmi	lr, {r4, r6, r8, lr}^
    adcc:	73253a43 	teqvc	r5, #274432	; 0x43000
    add0:	3a73253a 	bcc	1cd42c0 <__bss_end__+0x1cc8710>
    add4:	473a6425 	ldrmi	r6, [sl, -r5, lsr #8]!
    add8:	73203a43 	teqvc	r0, #274432	; 0x43000
    addc:	6c756f68 	ldclvs	15, cr6, [r5], #-416	; 0xfffffe60
    ade0:	61682064 	cmnvs	r8, r4, rrx
    ade4:	6e206576 	mcrvs	5, 1, r6, cr0, cr6, {3}
    ade8:	656c206f 	strbvs	r2, [ip, #-111]!	; 0x6f
    adec:	21736b61 	cmncs	r3, r1, ror #22
    adf0:	00000a0a 	andeq	r0, r0, sl, lsl #20
    adf4:	203a4347 	eorscs	r4, sl, r7, asr #6
    adf8:	43435553 	movtmi	r5, #13651	; 0x3553
    adfc:	3a535345 	bcc	14dfb18 <__bss_end__+0x14d3f68>
    ae00:	206f6e20 	rsbcs	r6, pc, r0, lsr #28
    ae04:	6b61656c 	blvs	18643bc <__bss_end__+0x185880c>
    ae08:	000a2173 	andeq	r2, sl, r3, ror r1
    ae0c:	494e4150 	stmdbmi	lr, {r4, r6, r8, lr}^
    ae10:	73253a43 	teqvc	r5, #274432	; 0x43000
    ae14:	3a73253a 	bcc	1cd4304 <__bss_end__+0x1cc8754>
    ae18:	473a6425 	ldrmi	r6, [sl, -r5, lsr #8]!
    ae1c:	73203a43 	teqvc	r0, #274432	; 0x43000
    ae20:	6c756f68 	ldclvs	15, cr6, [r5], #-416	; 0xfffffe60
    ae24:	61682064 	cmnvs	r8, r4, rrx
    ae28:	6c206576 	cfstr32vs	mvfx6, [r0], #-472	; 0xfffffe28
    ae2c:	736b6165 	cmnvc	fp, #1073741849	; 0x40000019
    ae30:	000a0a21 	andeq	r0, sl, r1, lsr #20
    ae34:	203a4347 	eorscs	r4, sl, r7, asr #6
    ae38:	43435553 	movtmi	r5, #13651	; 0x3553
    ae3c:	3a535345 	bcc	14dfb58 <__bss_end__+0x14d3fa8>
    ae40:	756f6620 	strbvc	r6, [pc, #-1568]!	; a828 <__FUNCTION__.4232+0x74>
    ae44:	2520646e 	strcs	r6, [r0, #-1134]!	; 0x46e
    ae48:	656c2064 	strbvs	r2, [ip, #-100]!	; 0x64
    ae4c:	21736b61 	cmncs	r3, r1, ror #22
    ae50:	0000000a 	andeq	r0, r0, sl
    ae54:	494e4150 	stmdbmi	lr, {r4, r6, r8, lr}^
    ae58:	73253a43 	teqvc	r5, #274432	; 0x43000
    ae5c:	3a73253a 	bcc	1cd434c <__bss_end__+0x1cc879c>
    ae60:	643a6425 	ldrtvs	r6, [sl], #-1061	; 0x425
    ae64:	6e206469 	cdpvs	4, 2, cr6, cr0, cr9, {3}
    ae68:	6920746f 	stmdbvs	r0!, {r0, r1, r2, r3, r5, r6, sl, ip, sp, lr}
    ae6c:	656c706d 	strbvs	r7, [ip, #-109]!	; 0x6d
    ae70:	746e656d 	strbtvc	r6, [lr], #-1389	; 0x56d
    ae74:	6d756420 	cfldrdvs	mvd6, [r5, #-128]!	; 0xffffff80
    ae78:	65725f70 	ldrbvs	r5, [r2, #-3952]!	; 0xf70
    ae7c:	0a217367 	beq	867c20 <__bss_end__+0x85c070>
    ae80:	0000000a 	andeq	r0, r0, sl
    ae84:	706d6f63 	rsbvc	r6, sp, r3, ror #30
    ae88:	69746361 	ldmdbvs	r4!, {r0, r5, r6, r8, r9, sp, lr}^
    ae8c:	0a3a676e 	beq	ea4c4c <__bss_end__+0xe9909c>
    ae90:	00000000 	andeq	r0, r0, r0
    ae94:	463a4347 	ldrtmi	r4, [sl], -r7, asr #6
    ae98:	69454552 	stmdbvs	r5, {r1, r4, r6, r8, sl, lr}^
    ae9c:	7020676e 	eorvc	r6, r0, lr, ror #14
    aea0:	253d7274 	ldrcs	r7, [sp, #-628]!	; 0x274
    aea4:	00000a78 	andeq	r0, r0, r8, ror sl
    aea8:	3a434709 	bcc	10dcad4 <__bss_end__+0x10d0f24>
    aeac:	63656843 	cmnvs	r5, #4390912	; 0x430000
    aeb0:	2064656b 	rsbcs	r6, r4, fp, ror #10
    aeb4:	62206425 	eorvs	r6, r0, #620756992	; 0x25000000
    aeb8:	6b636f6c 	blvs	18e6c70 <__bss_end__+0x18db0c0>
    aebc:	66202c73 			; <UNDEFINED> instruction: 0x66202c73
    aec0:	64656572 	strbtvs	r6, [r5], #-1394	; 0x572
    aec4:	2c642520 	cfstr64cs	mvdx2, [r4], #-128	; 0xffffff80
    aec8:	20642520 	rsbcs	r2, r4, r0, lsr #10
    aecc:	65747962 	ldrbvs	r7, [r4, #-2402]!	; 0x962
    aed0:	00000a73 	andeq	r0, r0, r3, ror sl
    aed4:	3a434709 	bcc	10dcb00 <__bss_end__+0x10d0f50>
    aed8:	61746f74 	cmnvs	r4, r4, ror pc
    aedc:	6c61206c 	stclvs	0, cr2, [r1], #-432	; 0xfffffe50
    aee0:	61636f6c 	cmnvs	r3, ip, ror #30
    aee4:	20646574 	rsbcs	r6, r4, r4, ror r5
    aee8:	6425203d 	strtvs	r2, [r5], #-61	; 0x3d
    aeec:	6f74202c 	svcvs	0x0074202c
    aef0:	206c6174 	rsbcs	r6, ip, r4, ror r1
    aef4:	6c616564 	cfstr64vs	mvdx6, [r1], #-400	; 0xfffffe70
    aef8:	61636f6c 	cmnvs	r3, ip, ror #30
    aefc:	20646574 	rsbcs	r6, r4, r4, ror r5
    af00:	6425203d 	strtvs	r2, [r5], #-61	; 0x3d
    af04:	0000000a 	andeq	r0, r0, sl

0000af08 <__FUNCTION__.4326>:
    af08:	6b72616d 	blvs	1ca34c4 <__bss_end__+0x1c97914>
    af0c:	6c6c615f 	stfvse	f6, [ip], #-380	; 0xfffffe84
    af10:	00000000 	andeq	r0, r0, r0

0000af14 <__FUNCTION__.4298>:
    af14:	6b72616d 	blvs	1ca34d0 <__bss_end__+0x1c97920>
    af18:	00000000 	andeq	r0, r0, r0

0000af1c <__FUNCTION__.4346>:
    af1c:	63656863 	cmnvs	r5, #6488064	; 0x630000
    af20:	6f6e5f6b 	svcvs	0x006e5f6b
    af24:	61656c5f 	cmnvs	r5, pc, asr ip
    af28:	0000006b 	andeq	r0, r0, fp, rrx

0000af2c <__FUNCTION__.4350>:
    af2c:	63656863 	cmnvs	r5, #6488064	; 0x630000
    af30:	68735f6b 	ldmdavs	r3!, {r0, r1, r3, r5, r6, r8, r9, sl, fp, ip, lr}^
    af34:	646c756f 	strbtvs	r7, [ip], #-1391	; 0x56f
    af38:	61656c5f 	cmnvs	r5, pc, asr ip
    af3c:	0000006b 	andeq	r0, r0, fp, rrx

0000af40 <__FUNCTION__.4355>:
    af40:	6c706d69 	ldclvs	13, cr6, [r0], #-420	; 0xfffffe5c
    af44:	6e656d65 	cdpvs	13, 6, cr6, cr5, cr5, {3}
    af48:	68745f74 	ldmdavs	r4!, {r2, r4, r5, r6, r8, r9, sl, fp, ip, lr}^
    af4c:	00007369 	andeq	r7, r0, r9, ror #6

0000af50 <__FUNCTION__.4364>:
    af50:	65657773 	strbvs	r7, [r5, #-1907]!	; 0x773
    af54:	72665f70 	rsbvc	r5, r6, #112, 30	; 0x1c0
    af58:	00006565 	andeq	r6, r0, r5, ror #10
    af5c:	494e4150 	stmdbmi	lr, {r4, r6, r8, lr}^
    af60:	73253a43 	teqvc	r5, #274432	; 0x43000
    af64:	3a73253a 	bcc	1cd4454 <__bss_end__+0x1cc88a4>
    af68:	623a6425 	eorsvs	r6, sl, #620756992	; 0x25000000
    af6c:	000a653c 	andeq	r6, sl, ip, lsr r5
    af70:	6d2d6b63 	fstmdbxvs	sp!, {d6-d54}	;@ Deprecated
    af74:	68636d65 	stmdavs	r3!, {r0, r2, r5, r6, r8, sl, fp, sp, lr}^
    af78:	2e6b6365 	cdpcs	3, 6, cr6, cr11, cr5, {3}
    af7c:	00000063 	andeq	r0, r0, r3, rrx
    af80:	61746f74 	cmnvs	r4, r4, ror pc
    af84:	6e69206c 	cdpvs	0, 6, cr2, cr9, cr12, {3}
    af88:	72726574 	rsbsvc	r6, r2, #116, 10	; 0x1d000000
    af8c:	73747075 	cmnvc	r4, #117	; 0x75
    af90:	25203d20 	strcs	r3, [r0, #-3360]!	; 0xd20
    af94:	63202c64 	teqvs	r0, #100, 24	; 0x6400
    af98:	6b636568 	blvs	18e4540 <__bss_end__+0x18d8990>
    af9c:	69206465 	stmdbvs	r0!, {r0, r2, r5, r6, sl, sp, lr}
    afa0:	7274736e 	rsbsvc	r7, r4, #-1207959551	; 0xb8000001
    afa4:	69746375 	ldmdbvs	r4!, {r0, r2, r4, r5, r6, r8, r9, sp, lr}^
    afa8:	20736e6f 	rsbscs	r6, r3, pc, ror #28
    afac:	6425203d 	strtvs	r2, [r5], #-61	; 0x3d
    afb0:	6b73202c 	blvs	1cd3068 <__bss_end__+0x1cc74b8>
    afb4:	65707069 	ldrbvs	r7, [r0, #-105]!	; 0x69
    afb8:	203d2064 	eorscs	r2, sp, r4, rrx
    afbc:	000a6425 	andeq	r6, sl, r5, lsr #8
    afc0:	494e4150 	stmdbmi	lr, {r4, r6, r8, lr}^
    afc4:	73253a43 	teqvc	r5, #274432	; 0x43000
    afc8:	3a73253a 	bcc	1cd44b8 <__bss_end__+0x1cc8908>
    afcc:	483a6425 	ldmdami	sl!, {r0, r2, r5, sl, sp, lr}
    afd0:	20504145 	subscs	r4, r0, r5, asr #2
    afd4:	4f525245 	svcmi	0x00525245
    afd8:	000a0a52 	andeq	r0, sl, r2, asr sl
    afdc:	494e4150 	stmdbmi	lr, {r4, r6, r8, lr}^
    afe0:	73253a43 	teqvc	r5, #274432	; 0x43000
    afe4:	3a73253a 	bcc	1cd44d4 <__bss_end__+0x1cc8924>
    afe8:	213a6425 	teqcs	sl, r5, lsr #8
    afec:	74696e69 	strbtvc	r6, [r9], #-3689	; 0xe69
    aff0:	000a705f 	andeq	r7, sl, pc, asr r0
    aff4:	494e4150 	stmdbmi	lr, {r4, r6, r8, lr}^
    aff8:	73253a43 	teqvc	r5, #274432	; 0x43000
    affc:	3a73253a 	bcc	1cd44ec <__bss_end__+0x1cc893c>
    b000:	693a6425 	ldmdbvs	sl!, {r0, r2, r5, sl, sp, lr}
    b004:	61725f6e 	cmnvs	r2, lr, ror #30
    b008:	2865676e 	stmdacs	r5!, {r1, r2, r3, r5, r6, r8, r9, sl, sp, lr}^
    b00c:	6e697528 	cdpvs	5, 6, cr7, cr9, cr8, {1}
    b010:	5f323374 	svcpl	0x00323374
    b014:	6b632974 	blvs	18d55ec <__bss_end__+0x18c9a3c>
    b018:	6f6c6c61 	svcvs	0x006c6c61
    b01c:	73202c63 	teqvc	r0, #25344	; 0x6300
    b020:	74726174 	ldrbtvc	r6, [r2], #-372	; 0x174
    b024:	636f6e5f 	cmnvs	pc, #1520	; 0x5f0
    b028:	6b636568 	blvs	18e45d0 <__bss_end__+0x18d8a20>
    b02c:	6e65202c 	cdpvs	0, 6, cr2, cr5, cr12, {1}
    b030:	6f6e5f64 	svcvs	0x006e5f64
    b034:	63656863 	cmnvs	r5, #6488064	; 0x630000
    b038:	000a296b 	andeq	r2, sl, fp, ror #18
    b03c:	494e4150 	stmdbmi	lr, {r4, r6, r8, lr}^
    b040:	73253a43 	teqvc	r5, #274432	; 0x43000
    b044:	3a73253a 	bcc	1cd4534 <__bss_end__+0x1cc8984>
    b048:	693a6425 	ldmdbvs	sl!, {r0, r2, r5, sl, sp, lr}
    b04c:	61725f6e 	cmnvs	r2, lr, ror #30
    b050:	2865676e 	stmdacs	r5!, {r1, r2, r3, r5, r6, r8, r9, sl, sp, lr}^
    b054:	6e697528 	cdpvs	5, 6, cr7, cr9, cr8, {1}
    b058:	5f323374 	svcpl	0x00323374
    b05c:	6b632974 	blvs	18d5634 <__bss_end__+0x18c9a84>
    b060:	65657266 	strbvs	r7, [r5, #-614]!	; 0x266
    b064:	7473202c 	ldrbtvc	r2, [r3], #-44	; 0x2c
    b068:	5f747261 	svcpl	0x00747261
    b06c:	68636f6e 	stmdavs	r3!, {r1, r2, r3, r5, r6, r8, r9, sl, fp, sp, lr}^
    b070:	2c6b6365 	stclcs	3, cr6, [fp], #-404	; 0xfffffe6c
    b074:	646e6520 	strbtvs	r6, [lr], #-1312	; 0x520
    b078:	636f6e5f 	cmnvs	pc, #1520	; 0x5f0
    b07c:	6b636568 	blvs	18e4624 <__bss_end__+0x18d8a74>
    b080:	00000a29 	andeq	r0, r0, r9, lsr #20
    b084:	494e4150 	stmdbmi	lr, {r4, r6, r8, lr}^
    b088:	73253a43 	teqvc	r5, #274432	; 0x43000
    b08c:	3a73253a 	bcc	1cd457c <__bss_end__+0x1cc89cc>
    b090:	213a6425 	teqcs	sl, r5, lsr #8
    b094:	725f6e69 	subsvc	r6, pc, #1680	; 0x690
    b098:	65676e61 	strbvs	r6, [r7, #-3681]!	; 0xe61
    b09c:	69752828 	ldmdbvs	r5!, {r3, r5, fp, sp}^
    b0a0:	3233746e 	eorscc	r7, r3, #1845493760	; 0x6e000000
    b0a4:	7029745f 	eorvc	r7, r9, pc, asr r4
    b0a8:	746e6972 	strbtvc	r6, [lr], #-2418	; 0x972
    b0ac:	73202c6b 	teqvc	r0, #27392	; 0x6b00
    b0b0:	74726174 	ldrbtvc	r6, [r2], #-372	; 0x174
    b0b4:	636f6e5f 	cmnvs	pc, #1520	; 0x5f0
    b0b8:	6b636568 	blvs	18e4660 <__bss_end__+0x18d8ab0>
    b0bc:	6e65202c 	cdpvs	0, 6, cr2, cr5, cr12, {1}
    b0c0:	6f6e5f64 	svcvs	0x006e5f64
    b0c4:	63656863 	cmnvs	r5, #6488064	; 0x630000
    b0c8:	000a296b 	andeq	r2, sl, fp, ror #18
    b0cc:	494e4150 	stmdbmi	lr, {r4, r6, r8, lr}^
    b0d0:	73253a43 	teqvc	r5, #274432	; 0x43000
    b0d4:	3a73253a 	bcc	1cd45c4 <__bss_end__+0x1cc8a14>
    b0d8:	733a6425 	teqvc	sl, #620756992	; 0x25000000
    b0dc:	74726174 	ldrbtvc	r6, [r2], #-372	; 0x174
    b0e0:	65203c20 	strvs	r3, [r0, #-3104]!	; 0xc20
    b0e4:	000a646e 	andeq	r6, sl, lr, ror #8
    b0e8:	494e4150 	stmdbmi	lr, {r4, r6, r8, lr}^
    b0ec:	73253a43 	teqvc	r5, #274432	; 0x43000
    b0f0:	3a73253a 	bcc	1cd45e0 <__bss_end__+0x1cc8a30>
    b0f4:	693a6425 	ldmdbvs	sl!, {r0, r2, r5, sl, sp, lr}
    b0f8:	5f74696e 	svcpl	0x0074696e
    b0fc:	26262070 			; <UNDEFINED> instruction: 0x26262070
    b100:	68632120 	stmdavs	r3!, {r5, r8, sp}^
    b104:	5f6b6365 	svcpl	0x006b6365
    b108:	000a6e6f 	andeq	r6, sl, pc, ror #28
    b10c:	494e4150 	stmdbmi	lr, {r4, r6, r8, lr}^
    b110:	73253a43 	teqvc	r5, #274432	; 0x43000
    b114:	3a73253a 	bcc	1cd4604 <__bss_end__+0x1cc8a54>
    b118:	693a6425 	ldmdbvs	sl!, {r0, r2, r5, sl, sp, lr}
    b11c:	5f74696e 	svcpl	0x0074696e
    b120:	26262070 			; <UNDEFINED> instruction: 0x26262070
    b124:	65686320 	strbvs	r6, [r8, #-800]!	; 0x320
    b128:	6f5f6b63 	svcvs	0x005f6b63
    b12c:	00000a6e 	andeq	r0, r0, lr, ror #20

0000b130 <__FUNCTION__.4395>:
    b130:	725f6e69 	subsvc	r6, pc, #1680	; 0x690
    b134:	65676e61 	strbvs	r6, [r7, #-3681]!	; 0xe61
    b138:	00000000 	andeq	r0, r0, r0

0000b13c <__FUNCTION__.4410>:
    b13c:	6d5f6b63 	vldrvs	d22, [pc, #-396]	; afb8 <__FUNCTION__.4364+0x68>
    b140:	695f6d65 	ldmdbvs	pc, {r0, r2, r5, r6, r8, sl, fp, sp, lr}^	; <UNPREDICTABLE>
    b144:	7265746e 	rsbvc	r7, r5, #1845493760	; 0x6e000000
    b148:	74707572 	ldrbtvc	r7, [r0], #-1394	; 0x572
    b14c:	00000000 	andeq	r0, r0, r0

0000b150 <__FUNCTION__.4425>:
    b150:	6d617274 	sfmvs	f7, 2, [r1, #-464]!	; 0xfffffe30
    b154:	696c6f70 	stmdbvs	ip!, {r4, r5, r6, r8, r9, sl, fp, sp, lr}^
    b158:	6d5f656e 	cfldr64vs	mvdx6, [pc, #-440]	; afa8 <__FUNCTION__.4364+0x58>
    b15c:	695f6d65 	ldmdbvs	pc, {r0, r2, r5, r6, r8, sl, fp, sp, lr}^	; <UNPREDICTABLE>
    b160:	7265746e 	rsbvc	r7, r5, #1845493760	; 0x6e000000
    b164:	74707572 	ldrbtvc	r7, [r0], #-1394	; 0x572
    b168:	00000000 	andeq	r0, r0, r0

0000b16c <__FUNCTION__.4429>:
    b16c:	6d5f6b63 	vldrvs	d22, [pc, #-396]	; afe8 <__FUNCTION__.4364+0x98>
    b170:	695f6d65 	ldmdbvs	pc, {r0, r2, r5, r6, r8, sl, fp, sp, lr}^	; <UNPREDICTABLE>
    b174:	0074696e 	rsbseq	r6, r4, lr, ror #18

0000b178 <__FUNCTION__.4434>:
    b178:	6d5f6b63 	vldrvs	d22, [pc, #-396]	; aff4 <__FUNCTION__.4364+0xa4>
    b17c:	735f6d65 	cmpvc	pc, #6464	; 0x1940
    b180:	725f7465 	subsvc	r7, pc, #1694498816	; 0x65000000
    b184:	65676e61 	strbvs	r6, [r7, #-3681]!	; 0xe61
    b188:	00000000 	andeq	r0, r0, r0

0000b18c <__FUNCTION__.4438>:
    b18c:	6d5f6b63 	vldrvs	d22, [pc, #-396]	; b008 <__FUNCTION__.4364+0xb8>
    b190:	6f5f6d65 	svcvs	0x005f6d65
    b194:	0000006e 	andeq	r0, r0, lr, rrx

0000b198 <__FUNCTION__.4442>:
    b198:	6d5f6b63 	vldrvs	d22, [pc, #-396]	; b014 <__FUNCTION__.4364+0xc4>
    b19c:	6f5f6d65 	svcvs	0x005f6d65
    b1a0:	00006666 	andeq	r6, r0, r6, ror #12

0000b1a4 <__FUNCTION__.4245>:
    b1a4:	74696d65 	strbtvc	r6, [r9], #-3429	; 0xd65
    b1a8:	00000000 	andeq	r0, r0, r0

0000b1ac <__FUNCTION__.4193>:
    b1ac:	5f697072 	svcpl	0x00697072
    b1b0:	5f746573 	svcpl	0x00746573
    b1b4:	7074756f 	rsbsvc	r7, r4, pc, ror #10
    b1b8:	00007475 	andeq	r7, r0, r5, ror r4

0000b1bc <__FUNCTION__.4267>:
    b1bc:	705f6176 	subsvc	r6, pc, r6, ror r1	; <UNPREDICTABLE>
    b1c0:	746e6972 	strbtvc	r6, [lr], #-2418	; 0x972
    b1c4:	0000006b 	andeq	r0, r0, fp, rrx
    b1c8:	494e4150 	stmdbmi	lr, {r4, r6, r8, lr}^
    b1cc:	73253a43 	teqvc	r5, #274432	; 0x43000
    b1d0:	3a73253a 	bcc	1cd46c0 <__bss_end__+0x1cc8b10>
    b1d4:	303a6425 	eorscc	r6, sl, r5, lsr #8
    b1d8:	0000000a 	andeq	r0, r0, sl
    b1dc:	6362696c 	cmnvs	r2, #108, 18	; 0x1b0000
    b1e0:	2d61762f 	stclcs	6, cr7, [r1, #-188]!	; 0xffffff44
    b1e4:	6e697270 	mcrvs	2, 3, r7, cr9, cr0, {3}
    b1e8:	632e6b74 	teqvs	lr, #116, 22	; 0x1d000
    b1ec:	00000000 	andeq	r0, r0, r0
    b1f0:	33323130 	teqcc	r2, #48, 2
    b1f4:	37363534 			; <UNDEFINED> instruction: 0x37363534
    b1f8:	00003938 	andeq	r3, r0, r8, lsr r9
    b1fc:	33323130 	teqcc	r2, #48, 2
    b200:	37363534 			; <UNDEFINED> instruction: 0x37363534
    b204:	62613938 	rsbvs	r3, r1, #56, 18	; 0xe0000
    b208:	66656463 	strbtvs	r6, [r5], -r3, ror #8
    b20c:	00000000 	andeq	r0, r0, r0
    b210:	00003130 	andeq	r3, r0, r0, lsr r1
    b214:	494e4150 	stmdbmi	lr, {r4, r6, r8, lr}^
    b218:	73253a43 	teqvc	r5, #274432	; 0x43000
    b21c:	3a73253a 	bcc	1cd470c <__bss_end__+0x1cc8b5c>
    b220:	703a6425 	eorsvc	r6, sl, r5, lsr #8
    b224:	5f637475 	svcpl	0x00637475
    b228:	000a7066 	andeq	r7, sl, r6, rrx
    b22c:	494e4150 	stmdbmi	lr, {r4, r6, r8, lr}^
    b230:	73253a43 	teqvc	r5, #274432	; 0x43000
    b234:	3a73253a 	bcc	1cd4724 <__bss_end__+0x1cc8b74>
    b238:	773a6425 	ldrvc	r6, [sl, -r5, lsr #8]!
    b23c:	68746469 	ldmdavs	r4!, {r0, r3, r5, r6, sl, sp, lr}^
    b240:	33203c20 	teqcc	r0, #32, 24	; 0x2000
    b244:	00000a32 	andeq	r0, r0, r2, lsr sl
    b248:	494e4150 	stmdbmi	lr, {r4, r6, r8, lr}^
    b24c:	73253a43 	teqvc	r5, #274432	; 0x43000
    b250:	3a73253a 	bcc	1cd4740 <__bss_end__+0x1cc8b90>
    b254:	663a6425 	ldrtvs	r6, [sl], -r5, lsr #8
    b258:	74616f6c 	strbtvc	r6, [r1], #-3948	; 0xf6c
    b25c:	746f6e20 	strbtvc	r6, [pc], #-3616	; b264 <__FUNCTION__.4267+0xa8>
    b260:	616e6520 	cmnvs	lr, r0, lsr #10
    b264:	64656c62 	strbtvs	r6, [r5], #-3170	; 0xc62
    b268:	0a212121 	beq	8536f4 <__bss_end__+0x847b44>
    b26c:	00000000 	andeq	r0, r0, r0
    b270:	494e4150 	stmdbmi	lr, {r4, r6, r8, lr}^
    b274:	73253a43 	teqvc	r5, #274432	; 0x43000
    b278:	3a73253a 	bcc	1cd4768 <__bss_end__+0x1cc8bb8>
    b27c:	703a6425 	eorsvc	r6, sl, r5, lsr #8
    b280:	746e6972 	strbtvc	r6, [lr], #-2418	; 0x972
    b284:	6e203a6b 	vnmulvs.f32	s6, s0, s23
    b288:	6820746f 	stmdavs	r0!, {r0, r1, r2, r3, r5, r6, sl, ip, sp, lr}
    b28c:	6c646e61 	stclvs	14, cr6, [r4], #-388	; 0xfffffe7c
    b290:	20676e69 	rsbcs	r6, r7, r9, ror #28
    b294:	63657073 	cmnvs	r5, #115	; 0x73
    b298:	65696669 	strbvs	r6, [r9, #-1641]!	; 0x669
    b29c:	25272072 	strcs	r2, [r7, #-114]!	; 0x72
    b2a0:	0a0a2763 	beq	295034 <__bss_end__+0x289484>
    b2a4:	00000000 	andeq	r0, r0, r0
    b2a8:	454e4f44 	strbmi	r4, [lr, #-3908]	; 0xf44
    b2ac:	0a212121 	beq	853738 <__bss_end__+0x847b88>
    b2b0:	00000000 	andeq	r0, r0, r0

0000b2b4 <__FUNCTION__.4213>:
    b2b4:	61746164 	cmnvs	r4, r4, ror #2
    b2b8:	6f62615f 	svcvs	0x0062615f
    b2bc:	765f7472 			; <UNDEFINED> instruction: 0x765f7472
    b2c0:	6f746365 	svcvs	0x00746365
    b2c4:	00000072 	andeq	r0, r0, r2, ror r0
    b2c8:	494e4150 	stmdbmi	lr, {r4, r6, r8, lr}^
    b2cc:	73253a43 	teqvc	r5, #274432	; 0x43000
    b2d0:	3a73253a 	bcc	1cd47c0 <__bss_end__+0x1cc8c10>
    b2d4:	453a6425 	ldrmi	r6, [sl, #-1061]!	; 0x425
    b2d8:	524f5252 	subpl	r5, pc, #536870917	; 0x20000005
    b2dc:	6e75203a 	mrcvs	0, 3, r2, cr5, cr10, {1}
    b2e0:	646e6168 	strbtvs	r6, [lr], #-360	; 0x168
    b2e4:	2064656c 	rsbcs	r6, r4, ip, ror #10
    b2e8:	65637865 	strbvs	r7, [r3, #-2149]!	; 0x865
    b2ec:	6f697470 	svcvs	0x00697470
    b2f0:	253c206e 	ldrcs	r2, [ip, #-110]!	; 0x6e
    b2f4:	61203e73 	teqvs	r0, r3, ror lr
    b2f8:	43502074 	cmpmi	r0, #116	; 0x74
    b2fc:	0a78253d 	beq	1e147f8 <__bss_end__+0x1e08c48>
    b300:	0000000a 	andeq	r0, r0, sl
    b304:	66617473 			; <UNDEFINED> instruction: 0x66617473
    b308:	72732d66 	rsbsvc	r2, r3, #6528	; 0x1980
    b30c:	65642f63 	strbvs	r2, [r4, #-3939]!	; 0xf63
    b310:	6c756166 	ldfvse	f6, [r5], #-408	; 0xfffffe68
    b314:	61682d74 	smcvs	33492	; 0x82d4
    b318:	656c646e 	strbvs	r6, [ip, #-1134]!	; 0x46e
    b31c:	61642d72 	smcvs	17106	; 0x42d2
    b320:	612d6174 	teqvs	sp, r4, ror r1
    b324:	74726f62 	ldrbtvc	r6, [r2], #-3938	; 0xf62
    b328:	0000632e 	andeq	r6, r0, lr, lsr #6
    b32c:	61746164 	cmnvs	r4, r4, ror #2
    b330:	6f626120 	svcvs	0x00626120
    b334:	00007472 	andeq	r7, r0, r2, ror r4

0000b338 <__FUNCTION__.4213>:
    b338:	74736166 	ldrbtvc	r6, [r3], #-358	; 0x166
    b33c:	746e695f 	strbtvc	r6, [lr], #-2399	; 0x95f
    b340:	75727265 	ldrbvc	r7, [r2, #-613]!	; 0x265
    b344:	765f7470 			; <UNDEFINED> instruction: 0x765f7470
    b348:	6f746365 	svcvs	0x00746365
    b34c:	00000072 	andeq	r0, r0, r2, ror r0
    b350:	66617473 			; <UNDEFINED> instruction: 0x66617473
    b354:	72732d66 	rsbsvc	r2, r3, #6528	; 0x1980
    b358:	65642f63 	strbvs	r2, [r4, #-3939]!	; 0xf63
    b35c:	6c756166 	ldfvse	f6, [r5], #-408	; 0xfffffe68
    b360:	61682d74 	smcvs	33492	; 0x82d4
    b364:	656c646e 	strbvs	r6, [ip, #-1134]!	; 0x46e
    b368:	61662d72 	smcvs	25298	; 0x62d2
    b36c:	632e7473 	teqvs	lr, #1929379840	; 0x73000000
    b370:	00000000 	andeq	r0, r0, r0
    b374:	74736166 	ldrbtvc	r6, [r3], #-358	; 0x166
    b378:	00000000 	andeq	r0, r0, r0

0000b37c <__FUNCTION__.4213>:
    b37c:	66657270 			; <UNDEFINED> instruction: 0x66657270
    b380:	68637465 	stmdavs	r3!, {r0, r2, r5, r6, sl, ip, sp, lr}^
    b384:	6f62615f 	svcvs	0x0062615f
    b388:	765f7472 			; <UNDEFINED> instruction: 0x765f7472
    b38c:	6f746365 	svcvs	0x00746365
    b390:	00000072 	andeq	r0, r0, r2, ror r0
    b394:	66617473 			; <UNDEFINED> instruction: 0x66617473
    b398:	72732d66 	rsbsvc	r2, r3, #6528	; 0x1980
    b39c:	65642f63 	strbvs	r2, [r4, #-3939]!	; 0xf63
    b3a0:	6c756166 	ldfvse	f6, [r5], #-408	; 0xfffffe68
    b3a4:	61682d74 	smcvs	33492	; 0x82d4
    b3a8:	656c646e 	strbvs	r6, [ip, #-1134]!	; 0x46e
    b3ac:	72702d72 	rsbsvc	r2, r0, #7296	; 0x1c80
    b3b0:	74656665 	strbtvc	r6, [r5], #-1637	; 0x665
    b3b4:	632e6863 	teqvs	lr, #6488064	; 0x630000
    b3b8:	00000000 	andeq	r0, r0, r0
    b3bc:	66657270 			; <UNDEFINED> instruction: 0x66657270
    b3c0:	68637465 	stmdavs	r3!, {r0, r2, r5, r6, sl, ip, sp, lr}^
    b3c4:	6f626120 	svcvs	0x00626120
    b3c8:	00007472 	andeq	r7, r0, r2, ror r4

0000b3cc <__FUNCTION__.4213>:
    b3cc:	65736572 	ldrbvs	r6, [r3, #-1394]!	; 0x572
    b3d0:	65765f74 	ldrbvs	r5, [r6, #-3956]!	; 0xf74
    b3d4:	726f7463 	rsbvc	r7, pc, #1660944384	; 0x63000000
    b3d8:	00000000 	andeq	r0, r0, r0
    b3dc:	66617473 			; <UNDEFINED> instruction: 0x66617473
    b3e0:	72732d66 	rsbsvc	r2, r3, #6528	; 0x1980
    b3e4:	65642f63 	strbvs	r2, [r4, #-3939]!	; 0xf63
    b3e8:	6c756166 	ldfvse	f6, [r5], #-408	; 0xfffffe68
    b3ec:	61682d74 	smcvs	33492	; 0x82d4
    b3f0:	656c646e 	strbvs	r6, [ip, #-1134]!	; 0x46e
    b3f4:	65722d72 	ldrbvs	r2, [r2, #-3442]!	; 0xd72
    b3f8:	2e746573 	mrccs	5, 3, r6, cr4, cr3, {3}
    b3fc:	00000063 	andeq	r0, r0, r3, rrx
    b400:	65736572 	ldrbvs	r6, [r3, #-1394]!	; 0x572
    b404:	00000074 	andeq	r0, r0, r4, ror r0

0000b408 <__FUNCTION__.4213>:
    b408:	74666f73 	strbtvc	r6, [r6], #-3955	; 0xf73
    b40c:	65726177 	ldrbvs	r6, [r2, #-375]!	; 0x177
    b410:	746e695f 	strbtvc	r6, [lr], #-2399	; 0x95f
    b414:	75727265 	ldrbvc	r7, [r2, #-613]!	; 0x265
    b418:	765f7470 			; <UNDEFINED> instruction: 0x765f7470
    b41c:	6f746365 	svcvs	0x00746365
    b420:	00000072 	andeq	r0, r0, r2, ror r0
    b424:	66617473 			; <UNDEFINED> instruction: 0x66617473
    b428:	72732d66 	rsbsvc	r2, r3, #6528	; 0x1980
    b42c:	65642f63 	strbvs	r2, [r4, #-3939]!	; 0xf63
    b430:	6c756166 	ldfvse	f6, [r5], #-408	; 0xfffffe68
    b434:	61682d74 	smcvs	33492	; 0x82d4
    b438:	656c646e 	strbvs	r6, [ip, #-1134]!	; 0x46e
    b43c:	77732d72 			; <UNDEFINED> instruction: 0x77732d72
    b440:	00632e69 	rsbeq	r2, r3, r9, ror #28
    b444:	00697773 	rsbeq	r7, r9, r3, ror r7

0000b448 <__FUNCTION__.4255>:
    b448:	656d6974 	strbvs	r6, [sp, #-2420]!	; 0x974
    b44c:	68635f72 	stmdavs	r3!, {r1, r4, r5, r6, r8, r9, sl, fp, ip, lr}^
    b450:	5f6b6365 	svcpl	0x006b6365
    b454:	7366666f 	cmnvc	r6, #116391936	; 0x6f00000
    b458:	00737465 	rsbseq	r7, r3, r5, ror #8
    b45c:	494e4150 	stmdbmi	lr, {r4, r6, r8, lr}^
    b460:	73253a43 	teqvc	r5, #274432	; 0x43000
    b464:	3a73253a 	bcc	1cd4954 <__bss_end__+0x1cc8da4>
    b468:	6f3a6425 	svcvs	0x003a6425
    b46c:	65736666 	ldrbvs	r6, [r3, #-1638]!	; 0x666
    b470:	72772074 	rsbsvc	r2, r7, #116	; 0x74
    b474:	3a676e6f 	bcc	19e6e38 <__bss_end__+0x19db288>
    b478:	70786520 	rsbsvc	r6, r8, r0, lsr #10
    b47c:	20746365 	rsbscs	r6, r4, r5, ror #6
    b480:	67207825 	strvs	r7, [r0, -r5, lsr #16]!
    b484:	2520746f 	strcs	r7, [r0, #-1135]!	; 0x46f
    b488:	73252078 	teqvc	r5, #120	; 0x78
    b48c:	666f5b20 	strbtvs	r5, [pc], -r0, lsr #22
    b490:	64253d66 	strtvs	r3, [r5], #-3430	; 0xd66
    b494:	69626e2c 	stmdbvs	r2!, {r2, r3, r5, r9, sl, fp, sp, lr}^
    b498:	253d7374 	ldrcs	r7, [sp, #-884]!	; 0x374
    b49c:	0a0a5d64 	beq	2a2a34 <__bss_end__+0x296e84>
    b4a0:	00000000 	andeq	r0, r0, r0
    b4a4:	66617473 			; <UNDEFINED> instruction: 0x66617473
    b4a8:	72732d66 	rsbsvc	r2, r3, #6528	; 0x1980
    b4ac:	69742f63 	ldmdbvs	r4!, {r0, r1, r5, r6, r8, r9, sl, fp, sp}^
    b4b0:	2d72656d 	cfldr64cs	mvdx6, [r2, #-436]!	; 0xfffffe4c
    b4b4:	65746e69 	ldrbvs	r6, [r4, #-3689]!	; 0xe69
    b4b8:	70757272 	rsbsvc	r7, r5, r2, ror r2
    b4bc:	00632e74 	rsbeq	r2, r3, r4, ror lr
    b4c0:	5f657375 	svcpl	0x00657375
    b4c4:	69623233 	stmdbvs	r2!, {r0, r1, r4, r5, r9, ip, sp}^
    b4c8:	6f635f74 	svcvs	0x00635f74
    b4cc:	65746e75 	ldrbvs	r6, [r4, #-3701]!	; 0xe75
    b4d0:	00000072 	andeq	r0, r0, r2, ror r0
    b4d4:	494e4150 	stmdbmi	lr, {r4, r6, r8, lr}^
    b4d8:	73253a43 	teqvc	r5, #274432	; 0x43000
    b4dc:	3a73253a 	bcc	1cd49cc <__bss_end__+0x1cc8e1c>
    b4e0:	783a6425 	ldmdavc	sl!, {r0, r2, r5, sl, sp, lr}
    b4e4:	3d20752e 	cfstr32cc	mvfx7, [r0, #-184]!	; 0xffffff48
    b4e8:	7865203d 	stmdavc	r5!, {r0, r2, r3, r4, r5, sp}^
    b4ec:	00000a70 	andeq	r0, r0, r0, ror sl
    b4f0:	494e4150 	stmdbmi	lr, {r4, r6, r8, lr}^
    b4f4:	73253a43 	teqvc	r5, #274432	; 0x43000
    b4f8:	3a73253a 	bcc	1cd49e8 <__bss_end__+0x1cc8e38>
    b4fc:	773a6425 	ldrvc	r6, [sl, -r5, lsr #8]!
    b500:	68746469 	ldmdavs	r4!, {r0, r3, r5, r6, sl, sp, lr}^
    b504:	6f727720 	svcvs	0x00727720
    b508:	203a676e 	eorscs	r6, sl, lr, ror #14
    b50c:	65707865 	ldrbvs	r7, [r0, #-2149]!	; 0x865
    b510:	25207463 	strcs	r7, [r0, #-1123]!	; 0x463
    b514:	6f672078 	svcvs	0x00672078
    b518:	78252074 	stmdavc	r5!, {r2, r4, r5, r6, sp}
    b51c:	20732520 	rsbscs	r2, r3, r0, lsr #10
    b520:	66666f5b 	uqsaxvs	r6, r6, fp
    b524:	2c64253d 	cfstr64cs	mvdx2, [r4], #-244	; 0xffffff0c
    b528:	7469626e 	strbtvc	r6, [r9], #-622	; 0x26e
    b52c:	64253d73 	strtvs	r3, [r5], #-3443	; 0xd73
    b530:	000a0a5d 	andeq	r0, sl, sp, asr sl
    b534:	5f746e69 	svcpl	0x00746e69
    b538:	62616e65 	rsbvs	r6, r1, #1616	; 0x650
    b53c:	0064656c 	rsbeq	r6, r4, ip, ror #10
    b540:	656d6974 	strbvs	r6, [sp, #-2420]!	; 0x974
    b544:	6e655f72 	mcrvs	15, 3, r5, cr5, cr2, {3}
    b548:	656c6261 	strbvs	r6, [ip, #-609]!	; 0x261
    b54c:	00000064 	andeq	r0, r0, r4, rrx
    b550:	6e756f63 	cdpvs	15, 7, cr6, cr5, cr3, {3}
    b554:	5f726574 	svcpl	0x00726574
    b558:	62616e65 	rsbvs	r6, r1, #1616	; 0x650
    b55c:	0064656c 	rsbeq	r6, r4, ip, ror #10
    b560:	6e756f63 	cdpvs	15, 7, cr6, cr5, cr3, {3}
    b564:	5f726574 	svcpl	0x00726574
    b568:	73657270 	cmnvc	r5, #112, 4
    b56c:	656c6163 	strbvs	r6, [ip, #-355]!	; 0x163
    b570:	00000072 	andeq	r0, r0, r2, ror r0
    b574:	7366666f 	cmnvc	r6, #116391936	; 0x6f00000
    b578:	20737465 	rsbscs	r7, r3, r5, ror #8
    b57c:	63656863 	cmnvs	r5, #6488064	; 0x630000
    b580:	2064656b 	rsbcs	r6, r4, fp, ror #10
    b584:	2174756f 	cmncs	r4, pc, ror #10
    b588:	0000000a 	andeq	r0, r0, sl

0000b58c <__FUNCTION__.4237>:
    b58c:	6c616d6b 	stclvs	13, cr6, [r1], #-428	; 0xfffffe54
    b590:	5f636f6c 	svcpl	0x00636f6c
    b594:	74696e69 	strbtvc	r6, [r9], #-3689	; 0xe69
    b598:	7465735f 	strbtvc	r7, [r5], #-863	; 0x35f
    b59c:	6174735f 	cmnvs	r4, pc, asr r3
    b5a0:	00007472 	andeq	r7, r0, r2, ror r4

0000b5a4 <__FUNCTION__.4241>:
    b5a4:	6c616d6b 	stclvs	13, cr6, [r1], #-428	; 0xfffffe54
    b5a8:	00636f6c 	rsbeq	r6, r3, ip, ror #30

0000b5ac <__FUNCTION__.4253>:
    b5ac:	6c616d6b 	stclvs	13, cr6, [r1], #-428	; 0xfffffe54
    b5b0:	5f636f6c 	svcpl	0x00636f6c
    b5b4:	67696c61 	strbvs	r6, [r9, -r1, ror #24]!
    b5b8:	0064656e 	rsbeq	r6, r4, lr, ror #10
    b5bc:	6c616d6b 	stclvs	13, cr6, [r1], #-428	; 0xfffffe54
    b5c0:	2e636f6c 	cdpcs	15, 6, cr6, cr3, cr12, {3}
    b5c4:	00000063 	andeq	r0, r0, r3, rrx
    b5c8:	494e4150 	stmdbmi	lr, {r4, r6, r8, lr}^
    b5cc:	73253a43 	teqvc	r5, #274432	; 0x43000
    b5d0:	3a73253a 	bcc	1cd4ac0 <__bss_end__+0x1cc8f10>
    b5d4:	613a6425 	teqvs	sl, r5, lsr #8
    b5d8:	20726464 	rsbscs	r6, r2, r4, ror #8
    b5dc:	6568203e 	strbvs	r2, [r8, #-62]!	; 0x3e
    b5e0:	000a7061 	andeq	r7, sl, r1, rrx
    b5e4:	494e4150 	stmdbmi	lr, {r4, r6, r8, lr}^
    b5e8:	73253a43 	teqvc	r5, #274432	; 0x43000
    b5ec:	3a73253a 	bcc	1cd4adc <__bss_end__+0x1cc8f2c>
    b5f0:	733a6425 	teqvc	sl, #620756992	; 0x25000000
    b5f4:	00000a7a 	andeq	r0, r0, sl, ror sl
    b5f8:	4f525245 	svcmi	0x00525245
    b5fc:	73253a52 	teqvc	r5, #335872	; 0x52000
    b600:	3a73253a 	bcc	1cd4af0 <__bss_end__+0x1cc8f40>
    b604:	203a6425 	eorscs	r6, sl, r5, lsr #8
    b608:	534c4146 	movtpl	r4, #49478	; 0xc146
    b60c:	283c2845 	ldmdacs	ip!, {r0, r2, r6, fp, sp}
    b610:	6c612828 	stclvs	8, cr2, [r1], #-160	; 0xffffff60
    b614:	6d6e6769 	stclvs	7, cr6, [lr, #-420]!	; 0xfffffe5c
    b618:	29746e65 	ldmdbcs	r4!, {r0, r2, r5, r6, r9, sl, fp, sp, lr}^
    b61c:	61282d26 	teqvs	r8, r6, lsr #26
    b620:	6e67696c 	cdpvs	9, 6, cr6, cr7, cr12, {3}
    b624:	746e656d 	strbtvc	r6, [lr], #-1389	; 0x56d
    b628:	3d202929 	stccc	9, cr2, [r0, #-164]!	; 0xffffff5c
    b62c:	6128203d 	teqvs	r8, sp, lsr r0
    b630:	6e67696c 	cdpvs	9, 6, cr6, cr7, cr12, {3}
    b634:	746e656d 	strbtvc	r6, [lr], #-1389	; 0x56d
    b638:	293e2929 	ldmdbcs	lr!, {r0, r3, r5, r8, fp, sp}
    b63c:	7361203a 	cmnvc	r1, #58	; 0x3a
    b640:	696d7573 	stmdbvs	sp!, {r0, r1, r4, r5, r6, r8, sl, ip, sp, lr}^
    b644:	7020676e 	eorvc	r6, r0, lr, ror #14
    b648:	7265776f 	rsbvc	r7, r5, #29097984	; 0x1bc0000
    b64c:	20666f20 	rsbcs	r6, r6, r0, lsr #30
    b650:	0a6f7774 	beq	1be9428 <__bss_end__+0x1bdd878>
    b654:	00000000 	andeq	r0, r0, r0
    b658:	4f525245 	svcmi	0x00525245
    b65c:	73253a52 	teqvc	r5, #335872	; 0x52000
    b660:	3a73253a 	bcc	1cd4b50 <__bss_end__+0x1cc8fa0>
    b664:	203a6425 	eorscs	r6, sl, r5, lsr #8
    b668:	534c4146 	movtpl	r4, #49478	; 0xc146
    b66c:	283c2845 	ldmdacs	ip!, {r0, r2, r6, fp, sp}
    b670:	29682828 	stmdbcs	r8!, {r3, r5, fp, sp}^
    b674:	28202620 	stmdacs	r0!, {r5, r9, sl, sp}
    b678:	70797428 	rsbsvc	r7, r9, r8, lsr #8
    b67c:	28666f65 	stmdacs	r6!, {r0, r2, r5, r6, r8, r9, sl, fp, sp, lr}^
    b680:	28292968 	stmdacs	r9!, {r3, r5, r6, r8, fp, sp}
    b684:	67696c61 	strbvs	r6, [r9, -r1, ror #24]!
    b688:	6e656d6e 	cdpvs	13, 6, cr6, cr5, cr14, {3}
    b68c:	2d202974 	stccs	9, cr2, [r0, #-464]!	; 0xfffffe30
    b690:	29293120 	stmdbcs	r9!, {r5, r8, ip, sp}
    b694:	203d3d20 	eorscs	r3, sp, r0, lsr #26
    b698:	293e2930 	ldmdbcs	lr!, {r4, r5, r8, fp, sp}
    b69c:	6d69203a 	stclvs	0, cr2, [r9, #-232]!	; 0xffffff18
    b6a0:	73736f70 	cmnvc	r3, #112, 30	; 0x1c0
    b6a4:	656c6269 	strbvs	r6, [ip, #-617]!	; 0x269
    b6a8:	0000000a 	andeq	r0, r0, sl

0000b6ac <__FUNCTION__.4213>:
    b6ac:	65646e75 	strbvs	r6, [r4, #-3701]!	; 0xe75
    b6b0:	656e6966 	strbvs	r6, [lr, #-2406]!	; 0x966
    b6b4:	6e695f64 	cdpvs	15, 6, cr5, cr9, cr4, {3}
    b6b8:	75727473 	ldrbvc	r7, [r2, #-1139]!	; 0x473
    b6bc:	6f697463 	svcvs	0x00697463
    b6c0:	65765f6e 	ldrbvs	r5, [r6, #-3950]!	; 0xf6e
    b6c4:	726f7463 	rsbvc	r7, pc, #1660944384	; 0x63000000
    b6c8:	00000000 	andeq	r0, r0, r0
    b6cc:	66617473 			; <UNDEFINED> instruction: 0x66617473
    b6d0:	72732d66 	rsbsvc	r2, r3, #6528	; 0x1980
    b6d4:	65642f63 	strbvs	r2, [r4, #-3939]!	; 0xf63
    b6d8:	6c756166 	ldfvse	f6, [r5], #-408	; 0xfffffe68
    b6dc:	61682d74 	smcvs	33492	; 0x82d4
    b6e0:	656c646e 	strbvs	r6, [ip, #-1134]!	; 0x46e
    b6e4:	6e752d72 	mrcvs	13, 3, r2, cr5, cr2, {3}
    b6e8:	69666564 	stmdbvs	r6!, {r2, r5, r6, r8, sl, sp, lr}^
    b6ec:	2d64656e 	cfstr64cs	mvdx6, [r4, #-440]!	; 0xfffffe48
    b6f0:	74736e69 	ldrbtvc	r6, [r3], #-3689	; 0xe69
    b6f4:	0000632e 	andeq	r6, r0, lr, lsr #6
    b6f8:	65646e75 	strbvs	r6, [r4, #-3701]!	; 0xe75
    b6fc:	656e6966 	strbvs	r6, [lr, #-2406]!	; 0x966
    b700:	6e692064 	cdpvs	0, 6, cr2, cr9, cr4, {3}
    b704:	00007473 	andeq	r7, r0, r3, ror r4

Disassembly of section .bss:

0000b708 <__bss_start__>:
    b708:	00000000 	andeq	r0, r0, r0

0000b70c <heap>:
    b70c:	00000000 	andeq	r0, r0, r0

0000b710 <heap_end>:
    b710:	00000000 	andeq	r0, r0, r0

0000b714 <heap_start>:
    b714:	00000000 	andeq	r0, r0, r0

0000b718 <my_info>:
	...

0000b728 <info>:
	...

0000b738 <rewritten_addresses>:
	...

0000b754 <target_encodings>:
	...

0000b770 <trampoline_code>:
	...

0000b784 <code_array>:
    b784:	00000000 	andeq	r0, r0, r0

0000b788 <address_index>:
    b788:	00000000 	andeq	r0, r0, r0

0000b78c <init_p>:
    b78c:	00000000 	andeq	r0, r0, r0

0000b790 <check_on>:
    b790:	00000000 	andeq	r0, r0, r0

0000b794 <cnt>:
    b794:	00000000 	andeq	r0, r0, r0

0000b798 <period>:
    b798:	00000000 	andeq	r0, r0, r0

0000b79c <period_sum>:
    b79c:	00000000 	andeq	r0, r0, r0

0000b7a0 <checked>:
    b7a0:	00000000 	andeq	r0, r0, r0

0000b7a4 <skipped>:
    b7a4:	00000000 	andeq	r0, r0, r0

0000b7a8 <last_clk.4458>:
    b7a8:	00000000 	andeq	r0, r0, r0

0000b7ac <buf.4185>:
	...

Disassembly of section .ARM.attributes:

00000000 <.ARM.attributes>:
   0:	00002a41 	andeq	r2, r0, r1, asr #20
   4:	61656100 	cmnvs	r5, r0, lsl #2
   8:	01006962 	tsteq	r0, r2, ror #18
   c:	00000020 	andeq	r0, r0, r0, lsr #32
  10:	4b5a3605 	blmi	168d82c <__bss_end__+0x1681c7c>
  14:	08070600 	stmdaeq	r7, {r9, sl}
  18:	12010901 	andne	r0, r1, #16384	; 0x4000
  1c:	15011404 	strne	r1, [r1, #-1028]	; 0x404
  20:	18031701 	stmdane	r3, {r0, r8, r9, sl, ip}
  24:	22011a01 	andcs	r1, r1, #4096	; 0x1000
  28:	Address 0x0000000000000028 is out of bounds.


Disassembly of section .comment:

00000000 <.comment>:
   0:	3a434347 	bcc	10d0d24 <__bss_end__+0x10c5174>
   4:	4e472820 	cdpmi	8, 4, cr2, cr7, cr0, {1}
   8:	34202955 	strtcc	r2, [r0], #-2389	; 0x955
   c:	332e382e 	teqcc	lr, #3014656	; 0x2e0000
  10:	43434700 	movtmi	r4, #14080	; 0x3700
  14:	3128203a 	teqcc	r8, sl, lsr r0
  18:	2e363a35 	mrccs	10, 1, r3, cr6, cr5, {1}
  1c:	2b312e33 	blcs	c4b8f0 <__bss_end__+0xc3fd40>
  20:	326e7673 	rsbcc	r7, lr, #120586240	; 0x7300000
  24:	33303335 	teqcc	r0, #-738197504	; 0xd4000000
  28:	62312d39 	eorsvs	r2, r1, #3648	; 0xe40
  2c:	646c6975 	strbtvs	r6, [ip], #-2421	; 0x975
  30:	36202931 			; <UNDEFINED> instruction: 0x36202931
  34:	312e332e 	teqcc	lr, lr, lsr #6
  38:	31303220 	teqcc	r0, r0, lsr #4
  3c:	32363037 	eorscc	r3, r6, #55	; 0x37
  40:	Address 0x0000000000000040 is out of bounds.


Disassembly of section .debug_info:

00000000 <.debug_info>:
       0:	000004ba 			; <UNDEFINED> instruction: 0x000004ba
       4:	00000004 	andeq	r0, r0, r4
       8:	01040000 	mrseq	r0, (UNDEF: 4)
       c:	000000d1 	ldrdeq	r0, [r0], -r1
      10:	00023301 	andeq	r3, r2, r1, lsl #6
      14:	00019f00 	andeq	r9, r1, r0, lsl #30
      18:	00801000 	addeq	r1, r0, r0
      1c:	00018400 	andeq	r8, r1, r0, lsl #8
      20:	00000000 	andeq	r0, r0, r0
      24:	05040200 	streq	r0, [r4, #-512]	; 0x200
      28:	00746e69 	rsbseq	r6, r4, r9, ror #28
      2c:	48070403 	stmdami	r7, {r0, r1, sl}
      30:	03000001 	movweq	r0, #1
      34:	005b0601 	subseq	r0, fp, r1, lsl #12
      38:	02030000 	andeq	r0, r3, #0
      3c:	00019505 	andeq	r9, r1, r5, lsl #10
      40:	05040300 	streq	r0, [r4, #-768]	; 0x300
      44:	00000176 	andeq	r0, r0, r6, ror r1
      48:	71050803 	tstvc	r5, r3, lsl #16
      4c:	03000001 	movweq	r0, #1
      50:	00590801 	subseq	r0, r9, r1, lsl #16
      54:	02030000 	andeq	r0, r3, #0
      58:	00002007 	andeq	r2, r0, r7
      5c:	00990400 	addseq	r0, r9, r0, lsl #8
      60:	34040000 	strcc	r0, [r4], #-0
      64:	00000068 	andeq	r0, r0, r8, rrx
      68:	43070403 	movwmi	r0, #29699	; 0x7403
      6c:	03000001 	movweq	r0, #1
      70:	013e0708 	teqeq	lr, r8, lsl #14
      74:	04030000 	streq	r0, [r3], #-0
      78:	00015507 	andeq	r5, r1, r7, lsl #10
      7c:	03040500 	movweq	r0, #17664	; 0x4500
      80:	00620801 	rsbeq	r0, r2, r1, lsl #16
      84:	04060000 	streq	r0, [r6], #-0
      88:	0000008c 	andeq	r0, r0, ip, lsl #1
      8c:	00007f07 	andeq	r7, r0, r7, lsl #30
      90:	007f0800 	rsbseq	r0, pc, r0, lsl #16
      94:	00a10000 	adceq	r0, r1, r0
      98:	76090000 	strvc	r0, [r9], -r0
      9c:	07000000 	streq	r0, [r0, -r0]
      a0:	00330a00 	eorseq	r0, r3, r0, lsl #20
      a4:	0c010000 	stceq	0, cr0, [r1], {-0}
      a8:	00008010 	andeq	r8, r0, r0, lsl r0
      ac:	00000020 	andeq	r0, r0, r0, lsr #32
      b0:	00ec9c01 	rsceq	r9, ip, r1, lsl #24
      b4:	180b0000 	stmdane	fp, {}	; <UNPREDICTABLE>
      b8:	ac000080 	stcge	0, cr0, [r0], {128}	; 0x80
      bc:	0c000003 	stceq	0, cr0, [r0], {3}
      c0:	00008020 	andeq	r8, r0, r0, lsr #32
      c4:	000003b3 			; <UNDEFINED> instruction: 0x000003b3
      c8:	000000d3 	ldrdeq	r0, [r0], -r3
      cc:	0250010d 	subseq	r0, r0, #1073741827	; 0x40000003
      d0:	0b006408 	bleq	190f8 <__bss_end__+0xd548>
      d4:	00008024 	andeq	r8, r0, r4, lsr #32
      d8:	000003c4 	andeq	r0, r0, r4, asr #7
      dc:	00802c0e 	addeq	r2, r0, lr, lsl #24
      e0:	0003cb00 	andeq	ip, r3, r0, lsl #22
      e4:	50010d00 	andpl	r0, r1, r0, lsl #26
      e8:	00003101 	andeq	r3, r0, r1, lsl #2
      ec:	00015e0f 	andeq	r5, r1, pc, lsl #28
      f0:	30180100 	andscc	r0, r8, r0, lsl #2
      f4:	04000080 	streq	r0, [r0], #-128	; 0x80
      f8:	01000000 	mrseq	r0, (UNDEF: 0)
      fc:	00670a9c 	mlseq	r7, ip, sl, r0
     100:	1a010000 	bne	40108 <__bss_end__+0x34558>
     104:	00008034 	andeq	r8, r0, r4, lsr r0
     108:	000000a4 	andeq	r0, r0, r4, lsr #1
     10c:	02089c01 	andeq	r9, r8, #256	; 0x100
     110:	70100000 	andsvc	r0, r0, r0
     114:	081d0100 	ldmdaeq	sp, {r8}
     118:	00000002 	andeq	r0, r0, r2
     11c:	11000000 	mrsne	r0, (UNDEF: 0)
     120:	000000bc 	strheq	r0, [r0], -ip
     124:	00000223 	andeq	r0, r0, r3, lsr #4
     128:	a7a80305 	strge	r0, [r8, r5, lsl #6]!
     12c:	78120000 	ldmdavc	r2, {}	; <UNPREDICTABLE>
     130:	20000080 	andcs	r0, r0, r0, lsl #1
     134:	59000000 	stmdbpl	r0, {}	; <UNPREDICTABLE>
     138:	10000001 	andne	r0, r0, r1
     13c:	2201006a 	andcs	r0, r1, #106	; 0x6a
     140:	00000025 	andeq	r0, r0, r5, lsr #32
     144:	0000001e 	andeq	r0, r0, lr, lsl r0
     148:	00808c0e 	addeq	r8, r0, lr, lsl #24
     14c:	0003e000 	andeq	lr, r3, r0
     150:	50010d00 	andpl	r0, r1, r0, lsl #26
     154:	00007402 	andeq	r7, r0, r2, lsl #8
     158:	80540c00 	subshi	r0, r4, r0, lsl #24
     15c:	03f10000 	mvnseq	r0, #0
     160:	017e0000 	cmneq	lr, r0
     164:	010d0000 	mrseq	r0, (UNDEF: 13)
     168:	0d4d0153 	stfeqe	f0, [sp, #-332]	; 0xfffffeb4
     16c:	75025201 	strvc	r5, [r2, #-513]	; 0x201
     170:	51010d00 	tstpl	r1, r0, lsl #26
     174:	0d007602 	stceq	6, cr7, [r0, #-8]
     178:	08025001 	stmdaeq	r2, {r0, ip, lr}
     17c:	5c0b0050 	stcpl	0, cr0, [fp], {80}	; 0x50
     180:	ac000080 	stcge	0, cr0, [r0], {128}	; 0x80
     184:	0c000003 	stceq	0, cr0, [r0], {3}
     188:	00008070 	andeq	r8, r0, r0, ror r0
     18c:	00000415 	andeq	r0, r0, r5, lsl r4
     190:	000001ad 	andeq	r0, r0, sp, lsr #3
     194:	0253010d 	subseq	r0, r3, #1073741827	; 0x40000003
     198:	010d2008 	tsteq	sp, r8
     19c:	00750252 	rsbseq	r0, r5, r2, asr r2
     1a0:	0251010d 	subseq	r0, r1, #1073741827	; 0x40000003
     1a4:	010d0076 	tsteq	sp, r6, ror r0
     1a8:	00740250 	rsbseq	r0, r4, r0, asr r2
     1ac:	809c0b00 	addshi	r0, ip, r0, lsl #22
     1b0:	03c40000 	biceq	r0, r4, #0
     1b4:	a40c0000 	strge	r0, [ip], #-0
     1b8:	cb000080 	blgt	3c0 <__code_start__-0x7c40>
     1bc:	c9000003 	stmdbgt	r0, {r0, r1}
     1c0:	0d000001 	stceq	0, cr0, [r0, #-4]
     1c4:	31015001 	tstcc	r1, r1
     1c8:	80b00b00 	adcshi	r0, r0, r0, lsl #22
     1cc:	04350000 	ldrteq	r0, [r5], #-0
     1d0:	c40c0000 	strgt	r0, [ip], #-0
     1d4:	3c000080 	stccc	0, cr0, [r0], {128}	; 0x80
     1d8:	fe000004 	cdp2	0, 0, cr0, cr0, cr4, {0}
     1dc:	0d000001 	stceq	0, cr0, [r0, #-4]
     1e0:	08025301 	stmdaeq	r2, {r0, r8, r9, ip, lr}
     1e4:	52010d27 	andpl	r0, r1, #2496	; 0x9c0
     1e8:	a7a80305 	strge	r0, [r8, r5, lsl #6]!
     1ec:	010d0000 	mrseq	r0, (UNDEF: 13)
     1f0:	00760251 	rsbseq	r0, r6, r1, asr r2
     1f4:	0550010d 	ldrbeq	r0, [r0, #-269]	; 0x10d
     1f8:	00a73003 	adceq	r3, r7, r3
     1fc:	c80b0000 	stmdagt	fp, {}	; <UNPREDICTABLE>
     200:	52000080 	andpl	r0, r0, #128	; 0x80
     204:	00000004 	andeq	r0, r0, r4
     208:	020e0406 	andeq	r0, lr, #100663296	; 0x6000000
     20c:	7f130000 	svcvc	0x00130000
     210:	08000000 	stmdaeq	r0, {}	; <UNPREDICTABLE>
     214:	0000007f 	andeq	r0, r0, pc, ror r0
     218:	00000223 	andeq	r0, r0, r3, lsr #4
     21c:	00007609 	andeq	r7, r0, r9, lsl #12
     220:	07000a00 	streq	r0, [r0, -r0, lsl #20]
     224:	00000213 	andeq	r0, r0, r3, lsl r2
     228:	00017f14 	andeq	r7, r1, r4, lsl pc
     22c:	d8290100 	stmdale	r9!, {r8}
     230:	04000080 	streq	r0, [r0], #-128	; 0x80
     234:	01000000 	mrseq	r0, (UNDEF: 0)
     238:	00420a9c 	umaaleq	r0, r2, ip, sl
     23c:	2b010000 	blcs	40244 <__bss_end__+0x34694>
     240:	000080dc 	ldrdeq	r8, [r0], -ip
     244:	000000b8 	strheq	r0, [r0], -r8
     248:	03a79c01 			; <UNDEFINED> instruction: 0x03a79c01
     24c:	6e150000 	cdpvs	0, 1, cr0, cr5, cr0, {0}
     250:	2c300100 	ldfcss	f0, [r0], #-0
     254:	00000000 	andeq	r0, r0, r0
     258:	11001000 	mrsne	r1, (UNDEF: 0)
     25c:	000000bc 	strheq	r0, [r0], -ip
     260:	000003a7 	andeq	r0, r0, r7, lsr #7
     264:	a7b40305 	ldrge	r0, [r4, r5, lsl #6]!
     268:	e80c0000 	stmda	ip, {}	; <UNPREDICTABLE>
     26c:	3c000080 	stccc	0, cr0, [r0], {128}	; 0x80
     270:	81000004 	tsthi	r0, r4
     274:	0d000002 	stceq	0, cr0, [r0, #-8]
     278:	03055001 	movweq	r5, #20481	; 0x5001
     27c:	0000a758 	andeq	sl, r0, r8, asr r7
     280:	80f00c00 	rscshi	r0, r0, r0, lsl #24
     284:	04590000 	ldrbeq	r0, [r9], #-0
     288:	02960000 	addseq	r0, r6, #0
     28c:	010d0000 	mrseq	r0, (UNDEF: 13)
     290:	40400350 	submi	r0, r0, r0, asr r3
     294:	f80c0024 			; <UNDEFINED> instruction: 0xf80c0024
     298:	6a000080 	bvs	4a0 <__code_start__-0x7b60>
     29c:	ab000004 	blge	2b4 <__code_start__-0x7d4c>
     2a0:	0d000002 	stceq	0, cr0, [r0, #-8]
     2a4:	40035001 	andmi	r5, r3, r1
     2a8:	0c002440 	cfstrseq	mvf2, [r0], {64}	; 0x40
     2ac:	00008100 	andeq	r8, r0, r0, lsl #2
     2b0:	0000047f 	andeq	r0, r0, pc, ror r4
     2b4:	000002c0 	andeq	r0, r0, r0, asr #5
     2b8:	0351010d 	cmpeq	r1, #1073741827	; 0x40000003
     2bc:	00244040 	eoreq	r4, r4, r0, asr #32
     2c0:	0081040b 	addeq	r0, r1, fp, lsl #8
     2c4:	00049500 	andeq	r9, r4, r0, lsl #10
     2c8:	81100c00 	tsthi	r0, r0, lsl #24
     2cc:	049c0000 	ldreq	r0, [ip], #0
     2d0:	02e90000 	rsceq	r0, r9, #0
     2d4:	010d0000 	mrseq	r0, (UNDEF: 13)
     2d8:	30030551 	andcc	r0, r3, r1, asr r5
     2dc:	0d000080 	stceq	0, cr0, [r0, #-512]	; 0xfffffe00
     2e0:	03055001 	movweq	r5, #20481	; 0x5001
     2e4:	00008010 	andeq	r8, r0, r0, lsl r0
     2e8:	81140b00 	tsthi	r4, r0, lsl #22
     2ec:	00a10000 	adceq	r0, r1, r0
     2f0:	200c0000 	andcs	r0, ip, r0
     2f4:	9c000081 	stcls	0, cr0, [r0], {129}	; 0x81
     2f8:	12000004 	andne	r0, r0, #4
     2fc:	0d000003 	stceq	0, cr0, [r0, #-12]
     300:	03055101 	movweq	r5, #20737	; 0x5101
     304:	000080d8 	ldrdeq	r8, [r0], -r8	; <UNPREDICTABLE>
     308:	0550010d 	ldrbeq	r0, [r0, #-269]	; 0x10d
     30c:	00803403 	addeq	r3, r0, r3, lsl #8
     310:	240b0000 	strcs	r0, [fp], #-0
     314:	fd000081 	stc2	0, cr0, [r0, #-516]	; 0xfffffdfc
     318:	0c000000 	stceq	0, cr0, [r0], {-0}
     31c:	0000812c 	andeq	r8, r0, ip, lsr #2
     320:	0000043c 	andeq	r0, r0, ip, lsr r4
     324:	00000332 	andeq	r0, r0, r2, lsr r3
     328:	0550010d 	ldrbeq	r0, [r0, #-269]	; 0x10d
     32c:	00a76003 	adceq	r6, r7, r3
     330:	300b0000 	andcc	r0, fp, r0
     334:	b2000081 	andlt	r0, r0, #129	; 0x81
     338:	0b000004 	bleq	350 <__code_start__-0x7cb0>
     33c:	0000813c 	andeq	r8, r0, ip, lsr r1
     340:	00000435 	andeq	r0, r0, r5, lsr r4
     344:	0081500c 	addeq	r5, r1, ip
     348:	00043c00 	andeq	r3, r4, r0, lsl #24
     34c:	00037300 	andeq	r7, r3, r0, lsl #6
     350:	53010d00 	movwpl	r0, #7424	; 0x1d00
     354:	0d3d0802 	ldceq	8, cr0, [sp, #-8]!
     358:	03055201 	movweq	r5, #20993	; 0x5201
     35c:	0000a7b4 			; <UNDEFINED> instruction: 0x0000a7b4
     360:	0551010d 	ldrbeq	r0, [r1, #-269]	; 0x10d
     364:	00a71c03 	adceq	r1, r7, r3, lsl #24
     368:	50010d00 	andpl	r0, r1, r0, lsl #26
     36c:	a7780305 	ldrbge	r0, [r8, -r5, lsl #6]!
     370:	0b000000 	bleq	378 <__code_start__-0x7c88>
     374:	00008154 	andeq	r8, r0, r4, asr r1
     378:	00000452 	andeq	r0, r0, r2, asr r4
     37c:	00815c0c 	addeq	r5, r1, ip, lsl #24
     380:	00043c00 	andeq	r3, r4, r0, lsl #24
     384:	00039300 	andeq	r9, r3, r0, lsl #6
     388:	50010d00 	andpl	r0, r1, r0, lsl #26
     38c:	a7a00305 	strge	r0, [r0, r5, lsl #6]!
     390:	0e000000 	cdpeq	0, 0, cr0, cr0, cr0, {0}
     394:	00008164 	andeq	r8, r0, r4, ror #2
     398:	0000043c 	andeq	r0, r0, ip, lsr r4
     39c:	0550010d 	ldrbeq	r0, [r0, #-269]	; 0x10d
     3a0:	00adac03 	adceq	sl, sp, r3, lsl #24
     3a4:	07000000 	streq	r0, [r0, -r0]
     3a8:	00000091 	muleq	r0, r1, r0
     3ac:	00021a16 	andeq	r1, r2, r6, lsl sl
     3b0:	17460200 	strbne	r0, [r6, -r0, lsl #4]
     3b4:	000000a2 	andeq	r0, r0, r2, lsr #1
     3b8:	03c44f03 	biceq	r4, r4, #3, 30
     3bc:	2c180000 	ldccs	0, cr0, [r8], {-0}
     3c0:	00000000 	andeq	r0, r0, r0
     3c4:	00001516 	andeq	r1, r0, r6, lsl r5
     3c8:	19480200 	stmdbne	r8, {r9}^
     3cc:	00000000 	andeq	r0, r0, r0
     3d0:	002c5602 	eoreq	r5, ip, r2, lsl #12
     3d4:	03e00000 	mvneq	r0, #0
     3d8:	25180000 	ldrcs	r0, [r8, #-0]
     3dc:	00000000 	andeq	r0, r0, r0
     3e0:	00007f17 	andeq	r7, r0, r7, lsl pc
     3e4:	f1bd0300 			; <UNDEFINED> instruction: 0xf1bd0300
     3e8:	18000003 	stmdane	r0, {r0, r1}
     3ec:	0000002c 	andeq	r0, r0, ip, lsr #32
     3f0:	000d1900 	andeq	r1, sp, r0, lsl #18
     3f4:	11020000 	mrsne	r0, (UNDEF: 2)
     3f8:	0000007d 	andeq	r0, r0, sp, ror r0
     3fc:	00000415 	andeq	r0, r0, r5, lsl r4
     400:	00005d18 	andeq	r5, r0, r8, lsl sp
     404:	00861800 	addeq	r1, r6, r0, lsl #16
     408:	86180000 	ldrhi	r0, [r8], -r0
     40c:	18000000 	stmdane	r0, {}	; <UNPREDICTABLE>
     410:	0000002c 	andeq	r0, r0, ip, lsr #32
     414:	018e1700 	orreq	r1, lr, r0, lsl #14
     418:	12020000 	andne	r0, r2, #0
     41c:	00000435 	andeq	r0, r0, r5, lsr r4
     420:	00007d18 	andeq	r7, r0, r8, lsl sp
     424:	00861800 	addeq	r1, r6, r0, lsl #16
     428:	86180000 	ldrhi	r0, [r8], -r0
     42c:	18000000 	stmdane	r0, {}	; <UNPREDICTABLE>
     430:	0000002c 	andeq	r0, r0, ip, lsr #32
     434:	02241600 	eoreq	r1, r4, #0, 12
     438:	1e030000 	cdpne	0, 0, cr0, cr3, cr0, {0}
     43c:	0009a119 	andeq	sl, r9, r9, lsl r1
     440:	25290300 	strcs	r0, [r9, #-768]!	; 0x300
     444:	52000000 	andpl	r0, r0, #0
     448:	18000004 	stmdane	r0, {r2}
     44c:	00000086 	andeq	r0, r0, r6, lsl #1
     450:	7216001a 	andsvc	r0, r6, #26
     454:	03000000 	movweq	r0, #0
     458:	02031765 	andeq	r1, r3, #26476544	; 0x1940000
     45c:	72030000 	andvc	r0, r3, #0
     460:	0000046a 	andeq	r0, r0, sl, ror #8
     464:	00002c18 	andeq	r2, r0, r8, lsl ip
     468:	91190000 	tstls	r9, r0
     46c:	03000000 	movweq	r0, #0
     470:	00007d6c 	andeq	r7, r0, ip, ror #26
     474:	00047f00 	andeq	r7, r4, r0, lsl #30
     478:	002c1800 	eoreq	r1, ip, r0, lsl #16
     47c:	17000000 	strne	r0, [r0, -r0]
     480:	000000c9 	andeq	r0, r0, r9, asr #1
     484:	04950b02 	ldreq	r0, [r5], #2818	; 0xb02
     488:	7d180000 	ldcvc	0, cr0, [r8, #-0]
     48c:	18000000 	stmdane	r0, {}	; <UNPREDICTABLE>
     490:	0000002c 	andeq	r0, r0, ip, lsr #32
     494:	00851600 	addeq	r1, r5, r0, lsl #12
     498:	43020000 	movwmi	r0, #8192	; 0x2000
     49c:	0000ab17 	andeq	sl, r0, r7, lsl fp
     4a0:	b24b0200 	sublt	r0, fp, #0, 4
     4a4:	18000004 	stmdane	r0, {r2}
     4a8:	0000007d 	andeq	r0, r0, sp, ror r0
     4ac:	00007d18 	andeq	r7, r0, r8, lsl sp
     4b0:	4a1b0000 	bmi	6c04b8 <__bss_end__+0x6b4908>
     4b4:	02000000 	andeq	r0, r0, #0
     4b8:	0000251e 	andeq	r2, r0, lr, lsl r5
     4bc:	0f7a0000 	svceq	0x007a0000
     4c0:	00040000 	andeq	r0, r4, r0
     4c4:	0000016c 	andeq	r0, r0, ip, ror #2
     4c8:	00d10104 	sbcseq	r0, r1, r4, lsl #2
     4cc:	14010000 	strne	r0, [r1], #-0
     4d0:	9f000003 	svcls	0x00000003
     4d4:	94000001 	strls	r0, [r0], #-1
     4d8:	04000081 	streq	r0, [r0], #-129	; 0x81
     4dc:	3a000008 	bcc	504 <__code_start__-0x7afc>
     4e0:	02000001 	andeq	r0, r0, #1
     4e4:	6e690504 	cdpvs	5, 6, cr0, cr9, cr4, {0}
     4e8:	47030074 	smlsdxmi	r3, r4, r0, r0
     4ec:	03000002 	movweq	r0, #2
     4f0:	000037d4 	ldrdeq	r3, [r0], -r4
     4f4:	07040400 	streq	r0, [r4, -r0, lsl #8]
     4f8:	00000148 	andeq	r0, r0, r8, asr #2
     4fc:	5b060104 	blpl	180914 <__bss_end__+0x174d64>
     500:	04000000 	streq	r0, [r0], #-0
     504:	01950502 	orrseq	r0, r5, r2, lsl #10
     508:	04040000 	streq	r0, [r4], #-0
     50c:	00017605 	andeq	r7, r1, r5, lsl #12
     510:	05080400 	streq	r0, [r8, #-1024]	; 0x400
     514:	00000171 	andeq	r0, r0, r1, ror r1
     518:	00042903 	andeq	r2, r4, r3, lsl #18
     51c:	652e0400 	strvs	r0, [lr, #-1024]!	; 0x400
     520:	04000000 	streq	r0, [r0], #-0
     524:	00590801 	subseq	r0, r9, r1, lsl #16
     528:	c1030000 	mrsgt	r0, (UNDEF: 3)
     52c:	04000002 	streq	r0, [r0], #-2
     530:	00007731 	andeq	r7, r0, r1, lsr r7
     534:	07020400 	streq	r0, [r2, -r0, lsl #8]
     538:	00000020 	andeq	r0, r0, r0, lsr #32
     53c:	00009903 	andeq	r9, r0, r3, lsl #18
     540:	89340400 	ldmdbhi	r4!, {sl}
     544:	04000000 	streq	r0, [r0], #-0
     548:	01430704 	cmpeq	r3, r4, lsl #14
     54c:	08040000 	stmdaeq	r4, {}	; <UNPREDICTABLE>
     550:	00013e07 	andeq	r3, r1, r7, lsl #28
     554:	07040400 	streq	r0, [r4, -r0, lsl #8]
     558:	00000155 	andeq	r0, r0, r5, asr r1
     55c:	04060405 	streq	r0, [r6], #-1029	; 0x405
     560:	000000a6 	andeq	r0, r0, r6, lsr #1
     564:	62080104 	andvs	r0, r8, #4, 2
     568:	06000000 	streq	r0, [r0], -r0
     56c:	0000b304 	andeq	fp, r0, r4, lsl #6
     570:	00a60700 	adceq	r0, r6, r0, lsl #14
     574:	a6080000 	strge	r0, [r8], -r0
     578:	c8000000 	stmdagt	r0, {}	; <UNPREDICTABLE>
     57c:	09000000 	stmdbeq	r0, {}	; <UNPREDICTABLE>
     580:	00000097 	muleq	r0, r7, r0
     584:	010a0007 	tsteq	sl, r7
     588:	00dd2702 	sbcseq	r2, sp, r2, lsl #14
     58c:	a30b0000 	movwge	r0, #45056	; 0xb000
     590:	0b000002 	bleq	5a0 <__code_start__-0x7a60>
     594:	00029d0b 	andeq	r9, r2, fp, lsl #26
     598:	0c000c00 	stceq	12, cr0, [r0], {-0}
     59c:	0a29020c 	beq	a40dd4 <__bss_end__+0xa35224>
     5a0:	0d000001 	stceq	0, cr0, [r0, #-4]
     5a4:	00000f4c 	andeq	r0, r0, ip, asr #30
     5a8:	00ad2a02 	adceq	r2, sp, r2, lsl #20
     5ac:	0d000000 	stceq	0, cr0, [r0, #-0]
     5b0:	0000120a 	andeq	r1, r0, sl, lsl #4
     5b4:	00ad2b02 	adceq	r2, sp, r2, lsl #22
     5b8:	0d040000 	stceq	0, cr0, [r4, #-0]
     5bc:	00000400 	andeq	r0, r0, r0, lsl #8
     5c0:	00372c02 	eorseq	r2, r7, r2, lsl #24
     5c4:	00080000 	andeq	r0, r8, r0
     5c8:	00038903 	andeq	r8, r3, r3, lsl #18
     5cc:	dd2d0200 	sfmle	f0, 4, [sp, #-0]
     5d0:	0e000000 	cdpeq	0, 0, cr0, cr0, cr0, {0}
     5d4:	00000460 	andeq	r0, r0, r0, ror #8
     5d8:	9a300238 	bls	c00ec0 <__bss_end__+0xbf5310>
     5dc:	0d000001 	stceq	0, cr0, [r0, #-4]
     5e0:	00000350 	andeq	r0, r0, r0, asr r3
     5e4:	007e3102 	rsbseq	r3, lr, r2, lsl #2
     5e8:	0d000000 	stceq	0, cr0, [r0, #-0]
     5ec:	00000446 	andeq	r0, r0, r6, asr #8
     5f0:	007e3202 	rsbseq	r3, lr, r2, lsl #4
     5f4:	0d040000 	stceq	0, cr0, [r4, #-0]
     5f8:	00000dd7 	ldrdeq	r0, [r0], -r7
     5fc:	007e3302 	rsbseq	r3, lr, r2, lsl #6
     600:	0d080000 	stceq	0, cr0, [r8, #-0]
     604:	0000034a 	andeq	r0, r0, sl, asr #6
     608:	007e3702 	rsbseq	r3, lr, r2, lsl #14
     60c:	0d0c0000 	stceq	0, cr0, [ip, #-0]
     610:	0000032a 	andeq	r0, r0, sl, lsr #6
     614:	010a3902 	tsteq	sl, r2, lsl #18
     618:	0d100000 	ldceq	0, cr0, [r0, #-0]
     61c:	0000035d 	andeq	r0, r0, sp, asr r3
     620:	010a3a02 	tsteq	sl, r2, lsl #20
     624:	0d1c0000 	ldceq	0, cr0, [ip, #-0]
     628:	0000043b 	andeq	r0, r0, fp, lsr r4
     62c:	007e3e02 	rsbseq	r3, lr, r2, lsl #28
     630:	0d280000 	stceq	0, cr0, [r8, #-0]
     634:	000003d9 	ldrdeq	r0, [r0], -r9
     638:	007e3f02 	rsbseq	r3, lr, r2, lsl #30
     63c:	0d2c0000 	stceq	0, cr0, [ip, #-0]
     640:	00000268 	andeq	r0, r0, r8, ror #4
     644:	019a4202 	orrseq	r4, sl, r2, lsl #4
     648:	0d300000 	ldceq	0, cr0, [r0, #-0]
     64c:	00000271 	andeq	r0, r0, r1, ror r2
     650:	006c4502 	rsbeq	r4, ip, r2, lsl #10
     654:	00340000 	eorseq	r0, r4, r0
     658:	01150406 	tsteq	r5, r6, lsl #8
     65c:	31030000 	mrscc	r0, (UNDEF: 3)
     660:	02000004 	andeq	r0, r0, #4
     664:	00011546 	andeq	r1, r1, r6, asr #10
     668:	02020a00 	andeq	r0, r2, #0, 20
     66c:	0001d049 	andeq	sp, r1, r9, asr #32
     670:	03c30b00 	biceq	r0, r3, #0, 22
     674:	01fe0000 	mvnseq	r0, r0
     678:	00033e0b 	andeq	r3, r3, fp, lsl #28
     67c:	0b018000 	bleq	60684 <__bss_end__+0x54ad4>
     680:	000002da 	ldrdeq	r0, [r0], -sl
     684:	ca0b01b8 	bgt	2c0d6c <__bss_end__+0x2b51bc>
     688:	b8000002 	stmdalt	r0, {r1}
     68c:	7f0e0002 	svcvc	0x000e0002
     690:	10000003 	andne	r0, r0, r3
     694:	020d9c02 	andeq	r9, sp, #512	; 0x200
     698:	ab0d0000 	blge	3406a0 <__bss_end__+0x334af0>
     69c:	02000013 	andeq	r0, r0, #19
     6a0:	00009e9e 	muleq	r0, lr, lr
     6a4:	be0d0000 	cdplt	0, 0, cr0, cr13, cr0, {0}
     6a8:	02000013 	andeq	r0, r0, #19
     6ac:	00009ea0 	andeq	r9, r0, r0, lsr #29
     6b0:	4e0d0400 	cfcpysmi	mvf0, mvf13
     6b4:	02000002 	andeq	r0, r0, #2
     6b8:	000037a3 	andeq	r3, r0, r3, lsr #15
     6bc:	e50d0800 	str	r0, [sp, #-2048]	; 0x800
     6c0:	02000003 	andeq	r0, r0, #3
     6c4:	000037a5 	andeq	r3, r0, r5, lsr #15
     6c8:	0f000c00 	svceq	0x00000c00
     6cc:	00000293 	muleq	r0, r3, r2
     6d0:	009e5702 	addseq	r5, lr, r2, lsl #14
     6d4:	27030000 	strcs	r0, [r3, -r0]
     6d8:	10000002 	andne	r0, r0, r2
     6dc:	57020068 	strpl	r0, [r2, -r8, rrx]
     6e0:	00000227 	andeq	r0, r0, r7, lsr #4
     6e4:	a0040600 	andge	r0, r4, r0, lsl #12
     6e8:	0f000001 	svceq	0x00000001
     6ec:	00000366 	andeq	r0, r0, r6, ror #6
     6f0:	009e5902 	addseq	r5, lr, r2, lsl #18
     6f4:	47030000 	strmi	r0, [r3, -r0]
     6f8:	10000002 	andne	r0, r0, r2
     6fc:	59020068 	stmdbpl	r2, {r3, r5, r6}
     700:	00000227 	andeq	r0, r0, r7, lsr #4
     704:	03ab0f00 			; <UNDEFINED> instruction: 0x03ab0f00
     708:	5b020000 	blpl	80710 <__bss_end__+0x74b60>
     70c:	0000009e 	muleq	r0, lr, r0
     710:	00026103 	andeq	r6, r2, r3, lsl #2
     714:	00681000 	rsbeq	r1, r8, r0
     718:	02275b02 	eoreq	r5, r7, #2048	; 0x800
     71c:	0f000000 	svceq	0x00000000
     720:	0000040e 	andeq	r0, r0, lr, lsl #8
     724:	00375d02 	eorseq	r5, r7, r2, lsl #26
     728:	7b030000 	blvc	c0730 <__bss_end__+0xb4b80>
     72c:	10000002 	andne	r0, r0, r2
     730:	5d020068 	stcpl	0, cr0, [r2, #-416]	; 0xfffffe60
     734:	00000227 	andeq	r0, r0, r7, lsr #4
     738:	02ab0f00 	adceq	r0, fp, #0, 30
     73c:	5f020000 	svcpl	0x00020000
     740:	00000227 	andeq	r0, r0, r7, lsr #4
     744:	00029703 	andeq	r9, r2, r3, lsl #14
     748:	02781100 	rsbseq	r1, r8, #0, 2
     74c:	5f020000 	svcpl	0x00020000
     750:	0000009e 	muleq	r0, lr, r0
     754:	02fc0f00 	rscseq	r0, ip, #0, 30
     758:	63020000 	movwvs	r0, #8192	; 0x2000
     75c:	00000037 	andeq	r0, r0, r7, lsr r0
     760:	0002b103 	andeq	fp, r2, r3, lsl #2
     764:	00681000 	rsbeq	r1, r8, r0
     768:	02276302 	eoreq	r6, r7, #134217728	; 0x8000000
     76c:	12000000 	andne	r0, r0, #0
     770:	00000393 	muleq	r0, r3, r3
     774:	81940601 	orrshi	r0, r4, r1, lsl #12
     778:	00040000 	andeq	r0, r4, r0
     77c:	9c010000 	stcls	0, cr0, [r1], {-0}
     780:	0000c913 	andeq	ip, r0, r3, lsl r9
     784:	98110100 	ldmdals	r1, {r8}
     788:	a0000081 	andge	r0, r0, r1, lsl #1
     78c:	01000000 	mrseq	r0, (UNDEF: 0)
     790:	0003629c 	muleq	r3, ip, r2
     794:	039b1400 	orrseq	r1, fp, #0, 8
     798:	11010000 	mrsne	r0, (UNDEF: 1)
     79c:	0000009e 	muleq	r0, lr, r0
     7a0:	0000003d 	andeq	r0, r0, sp, lsr r0
     7a4:	01006e15 	tsteq	r0, r5, lsl lr
     7a8:	00003711 	andeq	r3, r0, r1, lsl r7
     7ac:	00007100 	andeq	r7, r0, r0, lsl #2
     7b0:	00bc1600 	adcseq	r1, ip, r0, lsl #12
     7b4:	03620000 	cmneq	r2, #0
     7b8:	03050000 	movweq	r0, #20480	; 0x5000
     7bc:	0000ab58 	andeq	sl, r0, r8, asr fp
     7c0:	0081b817 	addeq	fp, r1, r7, lsl r8
     7c4:	000f1200 	andeq	r1, pc, r0, lsl #4
     7c8:	81cc1800 	bichi	r1, ip, r0, lsl #16
     7cc:	0f190000 	svceq	0x00190000
     7d0:	03390000 	teqeq	r9, #0
     7d4:	01190000 	tsteq	r9, r0
     7d8:	19420153 	stmdbne	r2, {r0, r1, r4, r6, r8}^
     7dc:	03055201 	movweq	r5, #20993	; 0x5201
     7e0:	0000ab58 	andeq	sl, r0, r8, asr fp
     7e4:	05510119 	ldrbeq	r0, [r1, #-281]	; 0x119
     7e8:	00a7e403 	adceq	lr, r7, r3, lsl #8
     7ec:	50011900 	andpl	r1, r1, r0, lsl #18
     7f0:	a7bc0305 	ldrge	r0, [ip, r5, lsl #6]!
     7f4:	17000000 	strne	r0, [r0, -r0]
     7f8:	000081d0 	ldrdeq	r8, [r0], -r0
     7fc:	00000f2f 	andeq	r0, r0, pc, lsr #30
     800:	0081e01a 	addeq	lr, r1, sl, lsl r0
     804:	000f1900 	andeq	r1, pc, r0, lsl #18
     808:	52011900 	andpl	r1, r1, #0, 18
     80c:	19800802 	stmibne	r0, {r1, fp}
     810:	08025101 	stmdaeq	r2, {r0, r8, ip, lr}
     814:	50011938 	andpl	r1, r1, r8, lsr r9
     818:	a7f00305 	ldrbge	r0, [r0, r5, lsl #6]!
     81c:	00000000 	andeq	r0, r0, r0
     820:	0000b807 	andeq	fp, r0, r7, lsl #16
     824:	03341b00 	teqeq	r4, #0, 22
     828:	1e010000 	cdpne	0, 0, cr0, cr1, cr0, {0}
     82c:	0000007e 	andeq	r0, r0, lr, ror r0
     830:	00008238 	andeq	r8, r0, r8, lsr r2
     834:	00000048 	andeq	r0, r0, r8, asr #32
     838:	03eb9c01 	mvneq	r9, #256	; 0x100
     83c:	68150000 	ldmdavs	r5, {}	; <UNPREDICTABLE>
     840:	271e0100 	ldrcs	r0, [lr, -r0, lsl #2]
     844:	b3000002 	movwlt	r0, #2
     848:	1c000000 	stcne	0, cr0, [r0], {-0}
     84c:	00000346 	andeq	r0, r0, r6, asr #6
     850:	00371f01 	eorseq	r1, r7, r1, lsl #30
     854:	58010000 	stmdapl	r1, {}	; <UNPREDICTABLE>
     858:	0004371c 	andeq	r3, r4, ip, lsl r7
     85c:	37200100 	strcc	r0, [r0, -r0, lsl #2]!
     860:	01000000 	mrseq	r0, (UNDEF: 0)
     864:	03d51c57 	bicseq	r1, r5, #22272	; 0x5700
     868:	21010000 	mrscs	r0, (UNDEF: 1)
     86c:	00000037 	andeq	r0, r0, r7, lsr r0
     870:	6d1c5601 	ldcvs	6, cr5, [ip, #-4]
     874:	01000002 	tsteq	r0, r2
     878:	00003722 	andeq	r3, r0, r2, lsr #14
     87c:	00750700 	rsbseq	r0, r5, r0, lsl #14
     880:	1affff0a 	bne	4b0 <__code_start__-0x7b50>
     884:	034a1c9f 	movteq	r1, #44191	; 0xac9f
     888:	27010000 	strcs	r0, [r1, -r0]
     88c:	0000007e 	andeq	r0, r0, lr, ror r0
     890:	6c1a5001 	ldcvs	0, cr5, [sl], {1}
     894:	36000082 	strcc	r0, [r0], -r2, lsl #1
     898:	1900000f 	stmdbne	r0, {r0, r1, r2, r3}
     89c:	08025101 	stmdaeq	r2, {r0, r8, ip, lr}
     8a0:	50011938 	andpl	r1, r1, r8, lsr r9
     8a4:	00007402 	andeq	r7, r0, r2, lsl #8
     8a8:	03a11b00 			; <UNDEFINED> instruction: 0x03a11b00
     8ac:	30010000 	andcc	r0, r1, r0
     8b0:	00000025 	andeq	r0, r0, r5, lsr #32
     8b4:	00008280 	andeq	r8, r0, r0, lsl #5
     8b8:	00000078 	andeq	r0, r0, r8, ror r0
     8bc:	04c69c01 	strbeq	r9, [r6], #3073	; 0xc01
     8c0:	68150000 	ldmdavs	r5, {}	; <UNPREDICTABLE>
     8c4:	27300100 	ldrcs	r0, [r0, -r0, lsl #2]!
     8c8:	d1000002 	tstle	r0, r2
     8cc:	1d000000 	stcne	0, cr0, [r0, #-0]
     8d0:	0000041b 	andeq	r0, r0, fp, lsl r4
     8d4:	007e3101 	rsbseq	r3, lr, r1, lsl #2
     8d8:	00ef0000 	rsceq	r0, pc, r0
     8dc:	bc160000 	ldclt	0, cr0, [r6], {-0}
     8e0:	d6000000 	strle	r0, [r0], -r0
     8e4:	05000004 	streq	r0, [r0, #-4]
     8e8:	00ab6803 	adceq	r6, fp, r3, lsl #16
     8ec:	828c1800 	addhi	r1, ip, #0, 16
     8f0:	03670000 	cmneq	r7, #0
     8f4:	04430000 	strbeq	r0, [r3], #-0
     8f8:	01190000 	tsteq	r9, r0
     8fc:	00740250 	rsbseq	r0, r4, r0, asr r2
     900:	829c1700 	addshi	r1, ip, #0, 14
     904:	0f120000 	svceq	0x00120000
     908:	b0180000 	andslt	r0, r8, r0
     90c:	19000082 	stmdbne	r0, {r1, r7}
     910:	7b00000f 	blvc	954 <__code_start__-0x76ac>
     914:	19000004 	stmdbne	r0, {r2}
     918:	08025301 	stmdaeq	r2, {r0, r8, r9, ip, lr}
     91c:	52011934 	andpl	r1, r1, #52, 18	; 0xd0000
     920:	ab680305 	blge	1a0153c <__bss_end__+0x19f598c>
     924:	01190000 	tsteq	r9, r0
     928:	e4030551 	str	r0, [r3], #-1361	; 0x551
     92c:	190000a7 	stmdbne	r0, {r0, r1, r2, r5, r7}
     930:	03055001 	movweq	r5, #20481	; 0x5001
     934:	0000a80c 	andeq	sl, r0, ip, lsl #16
     938:	82b41700 	adcshi	r1, r4, #0, 14
     93c:	0f2f0000 	svceq	0x002f0000
     940:	c8170000 	ldmdagt	r7, {}	; <UNPREDICTABLE>
     944:	12000082 	andne	r0, r0, #130	; 0x82
     948:	1800000f 	stmdane	r0, {r0, r1, r2, r3}
     94c:	000082dc 	ldrdeq	r8, [r0], -ip
     950:	00000f19 	andeq	r0, r0, r9, lsl pc
     954:	000004bc 			; <UNDEFINED> instruction: 0x000004bc
     958:	02530119 	subseq	r0, r3, #1073741830	; 0x40000006
     95c:	01193508 	tsteq	r9, r8, lsl #10
     960:	68030552 	stmdavs	r3, {r1, r4, r6, r8, sl}
     964:	190000ab 	stmdbne	r0, {r0, r1, r3, r5, r7}
     968:	03055101 	movweq	r5, #20737	; 0x5101
     96c:	0000a7e4 	andeq	sl, r0, r4, ror #15
     970:	05500119 	ldrbeq	r0, [r0, #-281]	; 0x119
     974:	00a83803 	adceq	r3, r8, r3, lsl #16
     978:	e0170000 	ands	r0, r7, r0
     97c:	2f000082 	svccs	0x00000082
     980:	0000000f 	andeq	r0, r0, pc
     984:	0000a608 	andeq	sl, r0, r8, lsl #12
     988:	0004d600 	andeq	sp, r4, r0, lsl #12
     98c:	00970900 	addseq	r0, r7, r0, lsl #18
     990:	00090000 	andeq	r0, r9, r0
     994:	0004c607 	andeq	ip, r4, r7, lsl #12
     998:	04561b00 	ldrbeq	r1, [r6], #-2816	; 0xb00
     99c:	39010000 	stmdbcc	r1, {}	; <UNPREDICTABLE>
     9a0:	00000025 	andeq	r0, r0, r5, lsr #32
     9a4:	000082f8 	strdeq	r8, [r0], -r8	; <UNPREDICTABLE>
     9a8:	00000060 	andeq	r0, r0, r0, rrx
     9ac:	055a9c01 	ldrbeq	r9, [sl, #-3073]	; 0xc01
     9b0:	68150000 	ldmdavs	r5, {}	; <UNPREDICTABLE>
     9b4:	27390100 	ldrcs	r0, [r9, -r0, lsl #2]!
     9b8:	18000002 	stmdane	r0, {r1}
     9bc:	15000001 	strne	r0, [r0, #-1]
     9c0:	39010070 	stmdbcc	r1, {r4, r5, r6}
     9c4:	000000a0 	andeq	r0, r0, r0, lsr #1
     9c8:	0000016b 	andeq	r0, r0, fp, ror #2
     9cc:	00041414 	andeq	r1, r4, r4, lsl r4
     9d0:	37390100 	ldrcc	r0, [r9, -r0, lsl #2]!
     9d4:	97000000 	strls	r0, [r0, -r0]
     9d8:	1e000001 	cdpne	0, 0, cr0, cr0, cr1, {0}
     9dc:	3a010069 	bcc	40b88 <__bss_end__+0x34fd8>
     9e0:	00000025 	andeq	r0, r0, r5, lsr #32
     9e4:	000001c3 	andeq	r0, r0, r3, asr #3
     9e8:	0000001f 	andeq	r0, r0, pc, lsl r0
     9ec:	02762000 	rsbseq	r2, r6, #0
     9f0:	3d010000 	stccc	0, cr0, [r1, #-0]
     9f4:	000000a0 	andeq	r0, r0, r0, lsr #1
     9f8:	000fb720 	andeq	fp, pc, r0, lsr #14
     9fc:	253e0100 	ldrcs	r0, [lr, #-256]!	; 0x100
     a00:	1a000000 	bne	a08 <__code_start__-0x75f8>
     a04:	0000832c 	andeq	r8, r0, ip, lsr #6
     a08:	00000f19 	andeq	r0, r0, r9, lsl pc
     a0c:	05500119 	ldrbeq	r0, [r0, #-281]	; 0x119
     a10:	00a87403 	adceq	r7, r8, r3, lsl #8
     a14:	00000000 	andeq	r0, r0, r0
     a18:	0003cc21 	andeq	ip, r3, r1, lsr #24
     a1c:	58490100 	stmdapl	r9, {r8}^
     a20:	14000083 	strne	r0, [r0], #-131	; 0x83
     a24:	01000000 	mrseq	r0, (UNDEF: 0)
     a28:	0005aa9c 	muleq	r5, ip, sl
     a2c:	00701500 	rsbseq	r1, r0, r0, lsl #10
     a30:	009e4901 	addseq	r4, lr, r1, lsl #18
     a34:	01e40000 	mvneq	r0, r0
     a38:	14140000 	ldrne	r0, [r4], #-0
     a3c:	01000004 	tsteq	r0, r4
     a40:	00003749 	andeq	r3, r0, r9, asr #14
     a44:	00020500 	andeq	r0, r2, r0, lsl #10
     a48:	83681a00 	cmnhi	r8, #0, 20
     a4c:	0f570000 	svceq	0x00570000
     a50:	01190000 	tsteq	r9, r0
     a54:	01f30352 	mvnseq	r0, r2, asr r3
     a58:	51011951 	tstpl	r1, r1, asr r9
     a5c:	19fe0802 	ldmibne	lr!, {r1, fp}^
     a60:	f3035001 	vhadd.u8	d5, d3, d1
     a64:	00005001 	andeq	r5, r0, r1
     a68:	0003f41b 	andeq	pc, r3, fp, lsl r4	; <UNPREDICTABLE>
     a6c:	25530100 	ldrbcs	r0, [r3, #-256]	; 0x100
     a70:	6c000000 	stcvs	0, cr0, [r0], {-0}
     a74:	70000083 	andvc	r0, r0, r3, lsl #1
     a78:	01000000 	mrseq	r0, (UNDEF: 0)
     a7c:	00064f9c 	muleq	r6, ip, pc	; <UNPREDICTABLE>
     a80:	00681500 	rsbeq	r1, r8, r0, lsl #10
     a84:	02275301 	eoreq	r5, r7, #67108864	; 0x4000000
     a88:	02310000 	eorseq	r0, r1, #0
     a8c:	47220000 	strmi	r0, [r2, -r0]!
     a90:	98000002 	stmdals	r0, {r1}
     a94:	08000083 	stmdaeq	r0, {r0, r1, r7}
     a98:	01000000 	mrseq	r0, (UNDEF: 0)
     a9c:	0005ed57 	andeq	lr, r5, r7, asr sp
     aa0:	02572300 	subseq	r2, r7, #0, 6
     aa4:	024f0000 	subeq	r0, pc, #0
     aa8:	22000000 	andcs	r0, r0, #0
     aac:	00000261 	andeq	r0, r0, r1, ror #4
     ab0:	000083a0 	andeq	r8, r0, r0, lsr #7
     ab4:	00000004 	andeq	r0, r0, r4
     ab8:	060a5701 	streq	r5, [sl], -r1, lsl #14
     abc:	71230000 	teqvc	r3, r0
     ac0:	6d000002 	stcvs	0, cr0, [r0, #-8]
     ac4:	00000002 	andeq	r0, r0, r2
     ac8:	00837818 	addeq	r7, r3, r8, lsl r8
     acc:	0003eb00 	andeq	lr, r3, r0, lsl #22
     ad0:	00061e00 	andeq	r1, r6, r0, lsl #28
     ad4:	50011900 	andpl	r1, r1, r0, lsl #18
     ad8:	00007402 	andeq	r7, r0, r2, lsl #8
     adc:	00839018 	addeq	r9, r3, r8, lsl r0
     ae0:	0004db00 	andeq	sp, r4, r0, lsl #22
     ae4:	00063e00 	andeq	r3, r6, r0, lsl #28
     ae8:	52011900 	andpl	r1, r1, #0, 18
     aec:	19800802 	stmibne	r0, {r1, fp}
     af0:	74025101 	strvc	r5, [r2], #-257	; 0x101
     af4:	50011938 	andpl	r1, r1, r8, lsr r9
     af8:	00007402 	andeq	r7, r0, r2, lsl #8
     afc:	0083b41a 	addeq	fp, r3, sl, lsl r4
     b00:	0004db00 	andeq	sp, r4, r0, lsl #22
     b04:	50011900 	andpl	r1, r1, r0, lsl #18
     b08:	00007402 	andeq	r7, r0, r2, lsl #8
     b0c:	018e1300 	orreq	r1, lr, r0, lsl #6
     b10:	5f010000 	svcpl	0x00010000
     b14:	000083dc 	ldrdeq	r8, [r0], -ip
     b18:	000000d4 	ldrdeq	r0, [r0], -r4
     b1c:	076a9c01 	strbeq	r9, [sl, -r1, lsl #24]!
     b20:	78140000 	ldmdavc	r4, {}	; <UNPREDICTABLE>
     b24:	01000002 	tsteq	r0, r2
     b28:	00009e5f 	andeq	r9, r0, pc, asr lr
     b2c:	00028b00 	andeq	r8, r2, r0, lsl #22
     b30:	0f4c1400 	svceq	0x004c1400
     b34:	5f010000 	svcpl	0x00010000
     b38:	000000ad 	andeq	r0, r0, sp, lsr #1
     b3c:	000002a9 	andeq	r0, r0, r9, lsr #5
     b40:	00120a14 	andseq	r0, r2, r4, lsl sl
     b44:	ad5f0100 	ldfgee	f0, [pc, #-0]	; b4c <__code_start__-0x74b4>
     b48:	dd000000 	stcle	0, cr0, [r0, #-0]
     b4c:	14000002 	strne	r0, [r0], #-2
     b50:	00000400 	andeq	r0, r0, r0, lsl #8
     b54:	00375f01 	eorseq	r5, r7, r1, lsl #30
     b58:	03110000 	tsteq	r1, #0
     b5c:	681e0000 	ldmdavs	lr, {}	; <UNPREDICTABLE>
     b60:	27600100 	strbcs	r0, [r0, -r0, lsl #2]!
     b64:	45000002 	strmi	r0, [r0, #-2]
     b68:	16000003 	strne	r0, [r0], -r3
     b6c:	000000bc 	strheq	r0, [r0], -ip
     b70:	0000077a 	andeq	r0, r0, sl, ror r7
     b74:	ab600305 	blge	1801790 <__bss_end__+0x17f5be0>
     b78:	04170000 	ldreq	r0, [r7], #-0
     b7c:	12000084 	andne	r0, r0, #132	; 0x84
     b80:	1800000f 	stmdane	r0, {r0, r1, r2, r3}
     b84:	00008418 	andeq	r8, r0, r8, lsl r4
     b88:	00000f19 	andeq	r0, r0, r9, lsl pc
     b8c:	000006f4 	strdeq	r0, [r0], -r4
     b90:	02530119 	subseq	r0, r3, #1073741830	; 0x40000006
     b94:	01196108 	tsteq	r9, r8, lsl #2
     b98:	60030552 	andvs	r0, r3, r2, asr r5
     b9c:	190000ab 	stmdbne	r0, {r0, r1, r3, r5, r7}
     ba0:	03055101 	movweq	r5, #20737	; 0x5101
     ba4:	0000a7e4 	andeq	sl, r0, r4, ror #15
     ba8:	05500119 	ldrbeq	r0, [r0, #-281]	; 0x119
     bac:	00a88003 	adceq	r8, r8, r3
     bb0:	1c170000 	ldcne	0, cr0, [r7], {-0}
     bb4:	2f000084 	svccs	0x00000084
     bb8:	1800000f 	stmdane	r0, {r0, r1, r2, r3}
     bbc:	00008424 	andeq	r8, r0, r4, lsr #8
     bc0:	00000f19 	andeq	r0, r0, r9, lsl pc
     bc4:	00000714 	andeq	r0, r0, r4, lsl r7
     bc8:	05500119 	ldrbeq	r0, [r0, #-281]	; 0x119
     bcc:	00a7a003 	adceq	sl, r7, r3
     bd0:	30180000 	andscc	r0, r8, r0
     bd4:	19000084 	stmdbne	r0, {r2, r7}
     bd8:	3100000f 	tstcc	r0, pc
     bdc:	19000007 	stmdbne	r0, {r0, r1, r2}
     be0:	74025101 	strvc	r5, [r2], #-257	; 0x101
     be4:	50011900 	andpl	r1, r1, r0, lsl #18
     be8:	a8b40305 	ldmge	r4!, {r0, r2, r8, r9}
     bec:	18000000 	stmdane	r0, {}	; <UNPREDICTABLE>
     bf0:	0000843c 	andeq	r8, r0, ip, lsr r4
     bf4:	000005aa 	andeq	r0, r0, sl, lsr #11
     bf8:	00000745 	andeq	r0, r0, r5, asr #14
     bfc:	02500119 	subseq	r0, r0, #1073741830	; 0x40000006
     c00:	18000075 	stmdane	r0, {r0, r2, r4, r5, r6}
     c04:	00008464 	andeq	r8, r0, r4, ror #8
     c08:	0000055a 	andeq	r0, r0, sl, asr r5
     c0c:	00000759 	andeq	r0, r0, r9, asr r7
     c10:	02500119 	subseq	r0, r0, #1073741830	; 0x40000006
     c14:	1a000074 	bne	dec <__code_start__-0x7214>
     c18:	0000848c 	andeq	r8, r0, ip, lsl #9
     c1c:	00000367 	andeq	r0, r0, r7, ror #6
     c20:	02500119 	subseq	r0, r0, #1073741830	; 0x40000006
     c24:	00000075 	andeq	r0, r0, r5, ror r0
     c28:	0000a608 	andeq	sl, r0, r8, lsl #12
     c2c:	00077a00 	andeq	r7, r7, r0, lsl #20
     c30:	00970900 	addseq	r0, r7, r0, lsl #18
     c34:	00060000 	andeq	r0, r6, r0
     c38:	00076a07 	andeq	r6, r7, r7, lsl #20
     c3c:	000d2400 	andeq	r2, sp, r0, lsl #8
     c40:	7b010000 	blvc	40c48 <__bss_end__+0x35098>
     c44:	0000009e 	muleq	r0, lr, r0
     c48:	000084b0 			; <UNDEFINED> instruction: 0x000084b0
     c4c:	00000240 	andeq	r0, r0, r0, asr #4
     c50:	0ae09c01 	beq	ff827c5c <__bss_end__+0xff81c0ac>
     c54:	14140000 	ldrne	r0, [r4], #-0
     c58:	01000004 	tsteq	r0, r4
     c5c:	00007e7b 	andeq	r7, r0, fp, ror lr
     c60:	00035900 	andeq	r5, r3, r0, lsl #18
     c64:	0f4c1400 	svceq	0x004c1400
     c68:	7b010000 	blvc	40c70 <__bss_end__+0x350c0>
     c6c:	000000ad 	andeq	r0, r0, sp, lsr #1
     c70:	000003b4 			; <UNDEFINED> instruction: 0x000003b4
     c74:	00120a14 	andseq	r0, r2, r4, lsl sl
     c78:	ad7b0100 	ldfgee	f0, [fp, #-0]
     c7c:	f6000000 			; <UNDEFINED> instruction: 0xf6000000
     c80:	14000003 	strne	r0, [r0], #-3
     c84:	00000400 	andeq	r0, r0, r0, lsl #8
     c88:	00377b01 	eorseq	r7, r7, r1, lsl #22
     c8c:	04380000 	ldrteq	r0, [r8], #-0
     c90:	681e0000 	ldmdavs	lr, {}	; <UNPREDICTABLE>
     c94:	277c0100 	ldrbcs	r0, [ip, -r0, lsl #2]!
     c98:	64000002 	strvs	r0, [r0], #-2
     c9c:	1e000004 	cdpne	0, 0, cr0, cr0, cr4, {0}
     ca0:	00727470 	rsbseq	r7, r2, r0, ror r4
     ca4:	009e7d01 	addseq	r7, lr, r1, lsl #26
     ca8:	04910000 	ldreq	r0, [r1], #0
     cac:	bc160000 	ldclt	0, cr0, [r6], {-0}
     cb0:	e0000000 	and	r0, r0, r0
     cb4:	0500000a 	streq	r0, [r0, #-10]
     cb8:	00ab7403 	adceq	r7, fp, r3, lsl #8
     cbc:	6f741e00 	svcvs	0x00741e00
     cc0:	82010074 	andhi	r0, r1, #116	; 0x74
     cc4:	00000037 	andeq	r0, r0, r7, lsr r0
     cc8:	000004a5 	andeq	r0, r0, r5, lsr #9
     ccc:	01006e1e 	tsteq	r0, lr, lsl lr
     cd0:	00003783 	andeq	r3, r0, r3, lsl #15
     cd4:	00050b00 	andeq	r0, r5, r0, lsl #22
     cd8:	02472200 	subeq	r2, r7, #0, 4
     cdc:	86180000 	ldrhi	r0, [r8], -r0
     ce0:	00080000 	andeq	r0, r8, r0
     ce4:	9e010000 	cdpls	0, 0, cr0, cr1, cr0, {0}
     ce8:	00000838 	andeq	r0, r0, r8, lsr r8
     cec:	00025723 	andeq	r5, r2, r3, lsr #14
     cf0:	00053400 	andeq	r3, r5, r0, lsl #8
     cf4:	61220000 	teqvs	r2, r0
     cf8:	20000002 	andcs	r0, r0, r2
     cfc:	04000086 	streq	r0, [r0], #-134	; 0x86
     d00:	01000000 	mrseq	r0, (UNDEF: 0)
     d04:	0008559e 	muleq	r8, lr, r5
     d08:	02712300 	rsbseq	r2, r1, #0, 6
     d0c:	05550000 	ldrbeq	r0, [r5, #-0]
     d10:	17000000 	strne	r0, [r0, -r0]
     d14:	000084dc 	ldrdeq	r8, [r0], -ip
     d18:	00000f12 	andeq	r0, r0, r2, lsl pc
     d1c:	0084f018 	addeq	pc, r4, r8, lsl r0	; <UNPREDICTABLE>
     d20:	000f1900 	andeq	r1, pc, r0, lsl #18
     d24:	00088d00 	andeq	r8, r8, r0, lsl #26
     d28:	53011900 	movwpl	r1, #6400	; 0x1900
     d2c:	197f0802 	ldmdbne	pc!, {r1, fp}^	; <UNPREDICTABLE>
     d30:	03055201 	movweq	r5, #20993	; 0x5201
     d34:	0000ab74 	andeq	sl, r0, r4, ror fp
     d38:	05510119 	ldrbeq	r0, [r1, #-281]	; 0x119
     d3c:	00a7e403 	adceq	lr, r7, r3, lsl #8
     d40:	50011900 	andpl	r1, r1, r0, lsl #18
     d44:	a8800305 	stmge	r0, {r0, r2, r8, r9}
     d48:	17000000 	strne	r0, [r0, -r0]
     d4c:	000084f4 	strdeq	r8, [r0], -r4
     d50:	00000f2f 	andeq	r0, r0, pc, lsr #30
     d54:	0084fc18 	addeq	pc, r4, r8, lsl ip	; <UNPREDICTABLE>
     d58:	000f1900 	andeq	r1, pc, r0, lsl #18
     d5c:	0008ad00 	andeq	sl, r8, r0, lsl #26
     d60:	50011900 	andpl	r1, r1, r0, lsl #18
     d64:	a7a00305 	strge	r0, [r0, r5, lsl #6]!
     d68:	18000000 	stmdane	r0, {}	; <UNPREDICTABLE>
     d6c:	00008508 	andeq	r8, r0, r8, lsl #10
     d70:	00000f19 	andeq	r0, r0, r9, lsl pc
     d74:	000008ca 	andeq	r0, r0, sl, asr #17
     d78:	02510119 	subseq	r0, r1, #1073741830	; 0x40000006
     d7c:	01190075 	tsteq	r9, r5, ror r0
     d80:	c0030550 	andgt	r0, r3, r0, asr r5
     d84:	000000a8 	andeq	r0, r0, r8, lsr #1
     d88:	00852418 	addeq	r2, r5, r8, lsl r4
     d8c:	000f1900 	andeq	r1, pc, r0, lsl #18
     d90:	0008e100 	andeq	lr, r8, r0, lsl #2
     d94:	50011900 	andpl	r1, r1, r0, lsl #18
     d98:	a8d80305 	ldmge	r8, {r0, r2, r8, r9}^
     d9c:	18000000 	stmdane	r0, {}	; <UNPREDICTABLE>
     da0:	00008530 	andeq	r8, r0, r0, lsr r5
     da4:	00000f19 	andeq	r0, r0, r9, lsl pc
     da8:	000008fe 	strdeq	r0, [r0], -lr
     dac:	02510119 	subseq	r0, r1, #1073741830	; 0x40000006
     db0:	01190075 	tsteq	r9, r5, ror r0
     db4:	e4030550 	str	r0, [r3], #-1360	; 0x550
     db8:	000000a8 	andeq	r0, r0, r8, lsr #1
     dbc:	00853417 	addeq	r3, r5, r7, lsl r4
     dc0:	000f1200 	andeq	r1, pc, r0, lsl #4
     dc4:	854c1800 	strbhi	r1, [ip, #-2048]	; 0x800
     dc8:	0f190000 	svceq	0x00190000
     dcc:	093d0000 	ldmdbeq	sp!, {}	; <UNPREDICTABLE>
     dd0:	01190000 	tsteq	r9, r0
     dd4:	87080253 	smlsdhi	r8, r3, r2, r0
     dd8:	05520119 	ldrbeq	r0, [r2, #-281]	; 0x119
     ddc:	00ab7403 	adceq	r7, fp, r3, lsl #8
     de0:	51011900 	tstpl	r1, r0, lsl #18
     de4:	a7e40305 	strbge	r0, [r4, r5, lsl #6]!
     de8:	01190000 	tsteq	r9, r0
     dec:	0c030550 	cfstr32eq	mvfx0, [r3], {80}	; 0x50
     df0:	190000a9 	stmdbne	r0, {r0, r3, r5, r7}
     df4:	02007d02 	andeq	r7, r0, #2, 26	; 0x80
     df8:	17000075 	smlsdxne	r0, r5, r0, r0
     dfc:	00008550 	andeq	r8, r0, r0, asr r5
     e00:	00000f2f 	andeq	r0, r0, pc, lsr #30
     e04:	00857418 	addeq	r7, r5, r8, lsl r4
     e08:	000f1900 	andeq	r1, pc, r0, lsl #18
     e0c:	00095d00 	andeq	r5, r9, r0, lsl #26
     e10:	50011900 	andpl	r1, r1, r0, lsl #18
     e14:	a8d80305 	ldmge	r8, {r0, r2, r8, r9}^
     e18:	18000000 	stmdane	r0, {}	; <UNPREDICTABLE>
     e1c:	00008594 	muleq	r0, r4, r5
     e20:	00000f19 	andeq	r0, r0, r9, lsl pc
     e24:	0000097a 	andeq	r0, r0, sl, ror r9
     e28:	02520119 	subseq	r0, r2, #1073741830	; 0x40000006
     e2c:	01190076 	tsteq	r9, r6, ror r0
     e30:	44030550 	strmi	r0, [r3], #-1360	; 0x550
     e34:	000000a9 	andeq	r0, r0, r9, lsr #1
     e38:	00859817 	addeq	r9, r5, r7, lsl r8
     e3c:	000f1200 	andeq	r1, pc, r0, lsl #4
     e40:	85c01800 	strbhi	r1, [r0, #2048]	; 0x800
     e44:	0f190000 	svceq	0x00190000
     e48:	09b90000 	ldmibeq	r9!, {}	; <UNPREDICTABLE>
     e4c:	01190000 	tsteq	r9, r0
     e50:	8b080253 	blhi	2017a4 <__bss_end__+0x1f5bf4>
     e54:	05520119 	ldrbeq	r0, [r2, #-281]	; 0x119
     e58:	00ab7403 	adceq	r7, fp, r3, lsl #8
     e5c:	51011900 	tstpl	r1, r0, lsl #18
     e60:	a7e40305 	strbge	r0, [r4, r5, lsl #6]!
     e64:	01190000 	tsteq	r9, r0
     e68:	70030550 	andvc	r0, r3, r0, asr r5
     e6c:	190000a9 	stmdbne	r0, {r0, r3, r5, r7}
     e70:	02047d02 	andeq	r7, r4, #2, 26	; 0x80
     e74:	17000076 	smlsdxne	r0, r6, r0, r0
     e78:	000085c4 	andeq	r8, r0, r4, asr #11
     e7c:	00000f2f 	andeq	r0, r0, pc, lsr #30
     e80:	00860818 	addeq	r0, r6, r8, lsl r8
     e84:	00036700 	andeq	r6, r3, r0, lsl #14
     e88:	0009d600 	andeq	sp, r9, r0, lsl #12
     e8c:	50011900 	andpl	r1, r1, r0, lsl #18
     e90:	00007402 	andeq	r7, r0, r2, lsl #8
     e94:	00861818 	addeq	r1, r6, r8, lsl r8
     e98:	00055a00 	andeq	r5, r5, r0, lsl #20
     e9c:	0009f000 	andeq	pc, r9, r0
     ea0:	51011900 	tstpl	r1, r0, lsl #18
     ea4:	19800802 	stmibne	r0, {r1, fp}
     ea8:	74025001 	strvc	r5, [r2], #-1
     eac:	30170038 	andscc	r0, r7, r8, lsr r0
     eb0:	5a000086 	bpl	10d0 <__code_start__-0x6f30>
     eb4:	18000005 	stmdane	r0, {r0, r2}
     eb8:	00008638 	andeq	r8, r0, r8, lsr r6
     ebc:	000003eb 	andeq	r0, r0, fp, ror #7
     ec0:	00000a0d 	andeq	r0, r0, sp, lsl #20
     ec4:	02500119 	subseq	r0, r0, #1073741830	; 0x40000006
     ec8:	17000074 	smlsdxne	r0, r4, r0, r0
     ecc:	00008644 	andeq	r8, r0, r4, asr #12
     ed0:	00000f12 	andeq	r0, r0, r2, lsl pc
     ed4:	00865818 	addeq	r5, r6, r8, lsl r8
     ed8:	000f1900 	andeq	r1, pc, r0, lsl #18
     edc:	000a4500 	andeq	r4, sl, r0, lsl #10
     ee0:	53011900 	movwpl	r1, #6400	; 0x1900
     ee4:	19a20802 	stmibne	r2!, {r1, fp}
     ee8:	03055201 	movweq	r5, #20993	; 0x5201
     eec:	0000ab74 	andeq	sl, r0, r4, ror fp
     ef0:	05510119 	ldrbeq	r0, [r1, #-281]	; 0x119
     ef4:	00a7e403 	adceq	lr, r7, r3, lsl #8
     ef8:	50011900 	andpl	r1, r1, r0, lsl #18
     efc:	a9ac0305 	stmibge	ip!, {r0, r2, r8, r9}
     f00:	17000000 	strne	r0, [r0, -r0]
     f04:	0000865c 	andeq	r8, r0, ip, asr r6
     f08:	00000f2f 	andeq	r0, r0, pc, lsr #30
     f0c:	00866418 	addeq	r6, r6, r8, lsl r4
     f10:	0005aa00 	andeq	sl, r5, r0, lsl #20
     f14:	000a6200 	andeq	r6, sl, r0, lsl #4
     f18:	50011900 	andpl	r1, r1, r0, lsl #18
     f1c:	00007402 	andeq	r7, r0, r2, lsl #8
     f20:	00867017 	addeq	r7, r6, r7, lsl r0
     f24:	000f1200 	andeq	r1, pc, r0, lsl #4
     f28:	86841800 	strhi	r1, [r4], r0, lsl #16
     f2c:	0f190000 	svceq	0x00190000
     f30:	0a9a0000 	beq	fe680f38 <__bss_end__+0xfe675388>
     f34:	01190000 	tsteq	r9, r0
     f38:	a3080253 	movwge	r0, #33363	; 0x8253
     f3c:	05520119 	ldrbeq	r0, [r2, #-281]	; 0x119
     f40:	00ab7403 	adceq	r7, fp, r3, lsl #8
     f44:	51011900 	tstpl	r1, r0, lsl #18
     f48:	a7e40305 	strbge	r0, [r4, r5, lsl #6]!
     f4c:	01190000 	tsteq	r9, r0
     f50:	cc030550 	cfstr32gt	mvfx0, [r3], {80}	; 0x50
     f54:	000000a9 	andeq	r0, r0, r9, lsr #1
     f58:	00868817 	addeq	r8, r6, r7, lsl r8
     f5c:	000f2f00 	andeq	r2, pc, r0, lsl #30
     f60:	86901800 	ldrhi	r1, [r0], r0, lsl #16
     f64:	0f190000 	svceq	0x00190000
     f68:	0aba0000 	beq	fee80f70 <__bss_end__+0xfee753c0>
     f6c:	01190000 	tsteq	r9, r0
     f70:	a0030550 	andge	r0, r3, r0, asr r5
     f74:	000000a7 	andeq	r0, r0, r7, lsr #1
     f78:	0086a41a 	addeq	sl, r6, sl, lsl r4
     f7c:	000f1900 	andeq	r1, pc, r0, lsl #18
     f80:	53011900 	movwpl	r1, #6400	; 0x1900
     f84:	19007702 	stmdbne	r0, {r1, r8, r9, sl, ip, sp, lr}
     f88:	76025201 	strvc	r5, [r2], -r1, lsl #4
     f8c:	51011900 	tstpl	r1, r0, lsl #18
     f90:	19007502 	stmdbne	r0, {r1, r8, sl, ip, sp, lr}
     f94:	03055001 	movweq	r5, #20481	; 0x5001
     f98:	0000a9ec 	andeq	sl, r0, ip, ror #19
     f9c:	b8070000 	stmdalt	r7, {}	; <UNPREDICTABLE>
     fa0:	24000000 	strcs	r0, [r0], #-0
     fa4:	0000004a 	andeq	r0, r0, sl, asr #32
     fa8:	0025ab01 	eoreq	sl, r5, r1, lsl #22
     fac:	86f00000 	ldrbthi	r0, [r0], r0
     fb0:	01a00000 	moveq	r0, r0
     fb4:	9c010000 	stcls	0, cr0, [r1], {-0}
     fb8:	00000cd1 	ldrdeq	r0, [r0], -r1
     fbc:	0003ec1d 	andeq	lr, r3, sp, lsl ip
     fc0:	37ac0100 	strcc	r0, [ip, r0, lsl #2]!
     fc4:	76000000 	strvc	r0, [r0], -r0
     fc8:	1d000005 	stcne	0, cr0, [r0, #-20]	; 0xffffffec
     fcc:	00000451 	andeq	r0, r0, r1, asr r4
     fd0:	0037ad01 	eorseq	sl, r7, r1, lsl #26
     fd4:	05890000 	streq	r0, [r9]
     fd8:	b51d0000 	ldrlt	r0, [sp, #-0]
     fdc:	01000003 	tsteq	r0, r3
     fe0:	000037b3 			; <UNDEFINED> instruction: 0x000037b3
     fe4:	00059c00 	andeq	r9, r5, r0, lsl #24
     fe8:	03bd1d00 			; <UNDEFINED> instruction: 0x03bd1d00
     fec:	b4010000 	strlt	r0, [r1], #-0
     ff0:	00000037 	andeq	r0, r0, r7, lsr r0
     ff4:	000005bb 			; <UNDEFINED> instruction: 0x000005bb
     ff8:	00030a1c 	andeq	r0, r3, ip, lsl sl
     ffc:	d1b60100 			; <UNDEFINED> instruction: 0xd1b60100
    1000:	0100000c 	tsteq	r0, ip
    1004:	00bc1654 	adcseq	r1, ip, r4, asr r6
    1008:	0ce70000 	stcleq	0, cr0, [r7]
    100c:	03050000 	movweq	r0, #20480	; 0x5000
    1010:	0000ab7c 	andeq	sl, r0, ip, ror fp
    1014:	00875425 	addeq	r5, r7, r5, lsr #8
    1018:	0000a000 	andeq	sl, r0, r0
    101c:	000c2c00 	andeq	r2, ip, r0, lsl #24
    1020:	00681e00 	rsbeq	r1, r8, r0, lsl #28
    1024:	0227b901 	eoreq	fp, r7, #16384	; 0x4000
    1028:	05da0000 	ldrbeq	r0, [sl]
    102c:	60170000 	andsvs	r0, r7, r0
    1030:	12000087 	andne	r0, r0, #135	; 0x87
    1034:	1800000f 	stmdane	r0, {r0, r1, r2, r3}
    1038:	00008774 	andeq	r8, r0, r4, ror r7
    103c:	00000f19 	andeq	r0, r0, r9, lsl pc
    1040:	00000ba8 	andeq	r0, r0, r8, lsr #23
    1044:	02530119 	subseq	r0, r3, #1073741830	; 0x40000006
    1048:	0119b808 	tsteq	r9, r8, lsl #16
    104c:	7c030552 	cfstr32vc	mvfx0, [r3], {82}	; 0x52
    1050:	190000ab 	stmdbne	r0, {r0, r1, r3, r5, r7}
    1054:	03055101 	movweq	r5, #20737	; 0x5101
    1058:	0000a7e4 	andeq	sl, r0, r4, ror #15
    105c:	05500119 	ldrbeq	r0, [r0, #-281]	; 0x119
    1060:	00aa5403 	adceq	r5, sl, r3, lsl #8
    1064:	78170000 	ldmdavc	r7, {}	; <UNPREDICTABLE>
    1068:	2f000087 	svccs	0x00000087
    106c:	1800000f 	stmdane	r0, {r0, r1, r2, r3}
    1070:	00008780 	andeq	r8, r0, r0, lsl #15
    1074:	000003eb 	andeq	r0, r0, fp, ror #7
    1078:	00000bc5 	andeq	r0, r0, r5, asr #23
    107c:	02500119 	subseq	r0, r0, #1073741830	; 0x40000006
    1080:	18000074 	stmdane	r0, {r2, r4, r5, r6}
    1084:	00008790 	muleq	r0, r0, r7
    1088:	00000f19 	andeq	r0, r0, r9, lsl pc
    108c:	00000bdc 	ldrdeq	r0, [r0], -ip
    1090:	05500119 	ldrbeq	r0, [r0, #-281]	; 0x119
    1094:	00a7a003 	adceq	sl, r7, r3
    1098:	98180000 	ldmdals	r8, {}	; <UNPREDICTABLE>
    109c:	19000087 	stmdbne	r0, {r0, r1, r2, r7}
    10a0:	f300000f 	vhadd.u8	d0, d0, d15
    10a4:	1900000b 	stmdbne	r0, {r0, r1, r3}
    10a8:	03055001 	movweq	r5, #20481	; 0x5001
    10ac:	0000aa78 	andeq	sl, r0, r8, ror sl
    10b0:	87a81800 	strhi	r1, [r8, r0, lsl #16]!
    10b4:	05aa0000 	streq	r0, [sl, #0]!
    10b8:	0c070000 	stceq	0, cr0, [r7], {-0}
    10bc:	01190000 	tsteq	r9, r0
    10c0:	00740250 	rsbseq	r0, r4, r0, asr r2
    10c4:	87cc1800 	strbhi	r1, [ip, r0, lsl #16]
    10c8:	04db0000 	ldrbeq	r0, [fp], #0
    10cc:	0c220000 	stceq	0, cr0, [r2], #-0
    10d0:	01190000 	tsteq	r9, r0
    10d4:	b8740351 	ldmdalt	r4!, {r0, r4, r6, r8, r9}^
    10d8:	50011901 	andpl	r1, r1, r1, lsl #18
    10dc:	00007402 	andeq	r7, r0, r2, lsl #8
    10e0:	0087d817 	addeq	sp, r7, r7, lsl r8
    10e4:	000f7600 	andeq	r7, pc, r0, lsl #12
    10e8:	2c180000 	ldccs	0, cr0, [r8], {-0}
    10ec:	19000087 	stmdbne	r0, {r0, r1, r2, r7}
    10f0:	4300000f 	movwmi	r0, #15
    10f4:	1900000c 	stmdbne	r0, {r2, r3}
    10f8:	03055001 	movweq	r5, #20481	; 0x5001
    10fc:	0000a7a0 	andeq	sl, r0, r0, lsr #15
    1100:	873c1800 	ldrhi	r1, [ip, -r0, lsl #16]!
    1104:	0f190000 	svceq	0x00190000
    1108:	0c660000 	stcleq	0, cr0, [r6], #-0
    110c:	01190000 	tsteq	r9, r0
    1110:	00740252 	rsbseq	r0, r4, r2, asr r2
    1114:	02510119 	subseq	r0, r1, #1073741830	; 0x40000006
    1118:	01190075 	tsteq	r9, r5, ror r0
    111c:	1c030550 	cfstr32ne	mvfx0, [r3], {80}	; 0x50
    1120:	000000aa 	andeq	r0, r0, sl, lsr #1
    1124:	00882018 	addeq	r2, r8, r8, lsl r0
    1128:	000f1900 	andeq	r1, pc, r0, lsl #18
    112c:	000c7d00 	andeq	r7, ip, r0, lsl #26
    1130:	50011900 	andpl	r1, r1, r0, lsl #18
    1134:	a7a00305 	strge	r0, [r0, r5, lsl #6]!
    1138:	18000000 	stmdane	r0, {}	; <UNPREDICTABLE>
    113c:	00008830 	andeq	r8, r0, r0, lsr r8
    1140:	00000f19 	andeq	r0, r0, r9, lsl pc
    1144:	00000ca0 	andeq	r0, r0, r0, lsr #25
    1148:	02520119 	subseq	r0, r2, #1073741830	; 0x40000006
    114c:	01190076 	tsteq	r9, r6, ror r0
    1150:	00750251 	rsbseq	r0, r5, r1, asr r2
    1154:	05500119 	ldrbeq	r0, [r0, #-281]	; 0x119
    1158:	00aa8c03 	adceq	r8, sl, r3, lsl #24
    115c:	4c180000 	ldcmi	0, cr0, [r8], {-0}
    1160:	19000088 	stmdbne	r0, {r3, r7}
    1164:	b700000f 	strlt	r0, [r0, -pc]
    1168:	1900000c 	stmdbne	r0, {r2, r3}
    116c:	03055001 	movweq	r5, #20481	; 0x5001
    1170:	0000a7a0 	andeq	sl, r0, r0, lsr #15
    1174:	88581a00 	ldmdahi	r8, {r9, fp, ip}^
    1178:	0f190000 	svceq	0x00190000
    117c:	01190000 	tsteq	r9, r0
    1180:	00750251 	rsbseq	r0, r5, r1, asr r2
    1184:	05500119 	ldrbeq	r0, [r0, #-281]	; 0x119
    1188:	00aab403 	adceq	fp, sl, r3, lsl #8
    118c:	06000000 	streq	r0, [r0], -r0
    1190:	00005a04 	andeq	r5, r0, r4, lsl #20
    1194:	00a60800 	adceq	r0, r6, r0, lsl #16
    1198:	0ce70000 	stcleq	0, cr0, [r7]
    119c:	97090000 	strls	r0, [r9, -r0]
    11a0:	0e000000 	cdpeq	0, 0, cr0, cr0, cr0, {0}
    11a4:	0cd70700 	ldcleq	7, cr0, [r7], {0}
    11a8:	5b240000 	blpl	9011b0 <__bss_end__+0x8f5600>
    11ac:	01000002 	tsteq	r0, r2
    11b0:	000227de 	ldrdeq	r2, [r2], -lr
    11b4:	00889000 	addeq	r9, r8, r0
    11b8:	00005000 	andeq	r5, r0, r0
    11bc:	779c0100 	ldrvc	r0, [ip, r0, lsl #2]
    11c0:	1c00000d 	stcne	0, cr0, [r0], {13}
    11c4:	000002e7 	andeq	r0, r0, r7, ror #5
    11c8:	0227df01 	eoreq	sp, r7, #1, 30
    11cc:	54010000 	strpl	r0, [r1], #-0
    11d0:	0000bc16 	andeq	fp, r0, r6, lsl ip
    11d4:	000d8700 	andeq	r8, sp, r0, lsl #14
    11d8:	8c030500 	cfstr32hi	mvfx0, [r3], {-0}
    11dc:	180000ab 	stmdane	r0, {r0, r1, r3, r5, r7}
    11e0:	000088a4 	andeq	r8, r0, r4, lsr #17
    11e4:	000003eb 	andeq	r0, r0, fp, ror #7
    11e8:	00000d35 	andeq	r0, r0, r5, lsr sp
    11ec:	02500119 	subseq	r0, r0, #1073741830	; 0x40000006
    11f0:	17000074 	smlsdxne	r0, r4, r0, r0
    11f4:	000088b0 			; <UNDEFINED> instruction: 0x000088b0
    11f8:	00000f12 	andeq	r0, r0, r2, lsl pc
    11fc:	0088c418 	addeq	ip, r8, r8, lsl r4
    1200:	000f1900 	andeq	r1, pc, r0, lsl #18
    1204:	000d6d00 	andeq	r6, sp, r0, lsl #26
    1208:	53011900 	movwpl	r1, #6400	; 0x1900
    120c:	19e20802 	stmibne	r2!, {r1, fp}^
    1210:	03055201 	movweq	r5, #20993	; 0x5201
    1214:	0000ab8c 	andeq	sl, r0, ip, lsl #23
    1218:	05510119 	ldrbeq	r0, [r1, #-281]	; 0x119
    121c:	00a7e403 	adceq	lr, r7, r3, lsl #8
    1220:	50011900 	andpl	r1, r1, r0, lsl #18
    1224:	aae40305 	bge	ff901e40 <__bss_end__+0xff8f6290>
    1228:	17000000 	strne	r0, [r0, -r0]
    122c:	000088c8 	andeq	r8, r0, r8, asr #17
    1230:	00000f2f 	andeq	r0, r0, pc, lsr #30
    1234:	00a60800 	adceq	r0, r6, r0, lsl #16
    1238:	0d870000 	stceq	0, cr0, [r7]
    123c:	97090000 	strls	r0, [r9, -r0]
    1240:	0c000000 	stceq	0, cr0, [r0], {-0}
    1244:	0d770700 	ldcleq	7, cr0, [r7, #-0]
    1248:	1e240000 	cdpne	0, 2, cr0, cr4, cr0, {0}
    124c:	01000003 	tsteq	r0, r3
    1250:	000227e7 	andeq	r2, r2, r7, ror #15
    1254:	0088e000 	addeq	lr, r8, r0
    1258:	00009800 	andeq	r9, r0, r0, lsl #16
    125c:	829c0100 	addshi	r0, ip, #0, 2
    1260:	1500000e 	strne	r0, [r0, #-14]
    1264:	e7010070 	smlsdx	r1, r0, r0, r0
    1268:	00000227 	andeq	r0, r0, r7, lsr #4
    126c:	000005ed 	andeq	r0, r0, sp, ror #11
    1270:	0003211c 	andeq	r2, r3, ip, lsl r1
    1274:	27e80100 	strbcs	r0, [r8, r0, lsl #2]!
    1278:	01000002 	tsteq	r0, r2
    127c:	00bc1654 	adcseq	r1, ip, r4, asr r6
    1280:	0e920000 	cdpeq	0, 9, cr0, cr2, cr0, {0}
    1284:	03050000 	movweq	r0, #20480	; 0x5000
    1288:	0000ab9c 	muleq	r0, ip, fp
    128c:	00029722 	andeq	r9, r2, r2, lsr #14
    1290:	0088e400 	addeq	lr, r8, r0, lsl #8
    1294:	00001000 	andeq	r1, r0, r0
    1298:	ebe80100 	bl	ffa016a0 <__bss_end__+0xff9f5af0>
    129c:	2300000d 	movwcs	r0, #13
    12a0:	000002a7 	andeq	r0, r0, r7, lsr #5
    12a4:	00000640 	andeq	r0, r0, r0, asr #12
    12a8:	89101700 	ldmdbhi	r0, {r8, r9, sl, ip}
    12ac:	0f120000 	svceq	0x00120000
    12b0:	24180000 	ldrcs	r0, [r8], #-0
    12b4:	19000089 	stmdbne	r0, {r0, r3, r7}
    12b8:	2300000f 	movwcs	r0, #15
    12bc:	1900000e 	stmdbne	r0, {r1, r2, r3}
    12c0:	08025301 	stmdaeq	r2, {r0, r8, r9, ip, lr}
    12c4:	520119f1 	andpl	r1, r1, #3948544	; 0x3c4000
    12c8:	ab9c0305 	blge	fe701ee4 <__bss_end__+0xfe6f6334>
    12cc:	01190000 	tsteq	r9, r0
    12d0:	e4030551 	str	r0, [r3], #-1361	; 0x551
    12d4:	190000a7 	stmdbne	r0, {r0, r1, r2, r5, r7}
    12d8:	03055001 	movweq	r5, #20481	; 0x5001
    12dc:	0000ab08 	andeq	sl, r0, r8, lsl #22
    12e0:	89281700 	stmdbhi	r8!, {r8, r9, sl, ip}
    12e4:	0f2f0000 	svceq	0x002f0000
    12e8:	30180000 	andscc	r0, r8, r0
    12ec:	eb000089 	bl	1518 <__code_start__-0x6ae8>
    12f0:	40000003 	andmi	r0, r0, r3
    12f4:	1900000e 	stmdbne	r0, {r1, r2, r3}
    12f8:	74025001 	strvc	r5, [r2], #-1
    12fc:	3c170000 	ldccc	0, cr0, [r7], {-0}
    1300:	12000089 	andne	r0, r0, #137	; 0x89
    1304:	1800000f 	stmdane	r0, {r0, r1, r2, r3}
    1308:	00008950 	andeq	r8, r0, r0, asr r9
    130c:	00000f19 	andeq	r0, r0, r9, lsl pc
    1310:	00000e78 	andeq	r0, r0, r8, ror lr
    1314:	02530119 	subseq	r0, r3, #1073741830	; 0x40000006
    1318:	0119f208 	tsteq	r9, r8, lsl #4
    131c:	9c030552 	cfstr32ls	mvfx0, [r3], {82}	; 0x52
    1320:	190000ab 	stmdbne	r0, {r0, r1, r3, r5, r7}
    1324:	03055101 	movweq	r5, #20737	; 0x5101
    1328:	0000a7e4 	andeq	sl, r0, r4, ror #15
    132c:	05500119 	ldrbeq	r0, [r0, #-281]	; 0x119
    1330:	00ab3403 	adceq	r3, fp, r3, lsl #8
    1334:	54170000 	ldrpl	r0, [r7], #-0
    1338:	2f000089 	svccs	0x00000089
    133c:	0000000f 	andeq	r0, r0, pc
    1340:	0000a608 	andeq	sl, r0, r8, lsl #12
    1344:	000e9200 	andeq	r9, lr, r0, lsl #4
    1348:	00970900 	addseq	r0, r7, r0, lsl #18
    134c:	000b0000 	andeq	r0, fp, r0
    1350:	000e8207 	andeq	r8, lr, r7, lsl #4
    1354:	037f2600 	cmneq	pc, #0, 12
    1358:	f6010000 			; <UNDEFINED> instruction: 0xf6010000
    135c:	000001d0 	ldrdeq	r0, [r0], -r0	; <UNPREDICTABLE>
    1360:	00008978 	andeq	r8, r0, r8, ror r9
    1364:	0000001c 	andeq	r0, r0, ip, lsl r0
    1368:	87129c01 	ldrhi	r9, [r2, -r1, lsl #24]
    136c:	01000002 	tsteq	r0, r2
    1370:	008994fa 	strdeq	r9, [r9], sl
    1374:	00000400 	andeq	r0, r0, r0, lsl #8
    1378:	1c9c0100 	ldfnes	f0, [ip], {0}
    137c:	00000372 	andeq	r0, r0, r2, ror r3
    1380:	00250b01 	eoreq	r0, r5, r1, lsl #22
    1384:	03050000 	movweq	r0, #20480	; 0x5000
    1388:	0000b708 	andeq	fp, r0, r8, lsl #14
    138c:	00050a1c 	andeq	r0, r5, ip, lsl sl
    1390:	d10d0100 	mrsle	r0, (UNDEF: 29)
    1394:	0500000c 	streq	r0, [r0, #-12]
    1398:	00b70c03 	adcseq	r0, r7, r3, lsl #24
    139c:	13be1c00 			; <UNDEFINED> instruction: 0x13be1c00
    13a0:	0d010000 	stceq	0, cr0, [r1, #-0]
    13a4:	00000cd1 	ldrdeq	r0, [r0], -r1
    13a8:	b7100305 	ldrlt	r0, [r0, -r5, lsl #6]
    13ac:	ab1c0000 	blge	7013b4 <__bss_end__+0x6f5804>
    13b0:	01000013 	tsteq	r0, r3, lsl r0
    13b4:	000cd10d 	andeq	sp, ip, sp, lsl #2
    13b8:	14030500 	strne	r0, [r3], #-1280	; 0x500
    13bc:	1c0000b7 	stcne	0, cr0, [r0], {183}	; 0xb7
    13c0:	000002b9 			; <UNDEFINED> instruction: 0x000002b9
    13c4:	01d00f01 	bicseq	r0, r0, r1, lsl #30
    13c8:	03050000 	movweq	r0, #20480	; 0x5000
    13cc:	0000b718 	andeq	fp, r0, r8, lsl r7
    13d0:	00022427 	andeq	r2, r2, r7, lsr #8
    13d4:	281e0500 	ldmdacs	lr, {r8, sl}
    13d8:	000009a1 	andeq	r0, r0, r1, lsr #19
    13dc:	00252905 	eoreq	r2, r5, r5, lsl #18
    13e0:	0f2f0000 	svceq	0x002f0000
    13e4:	ad290000 	stcge	0, cr0, [r9, #-0]
    13e8:	2a000000 	bcs	13f0 <__code_start__-0x6c10>
    13ec:	00722700 	rsbseq	r2, r2, r0, lsl #14
    13f0:	65050000 	strvs	r0, [r5, #-0]
    13f4:	00027d28 	andeq	r7, r2, r8, lsr #26
    13f8:	7e050600 	cfmadd32vc	mvax0, mvfx0, mvfx5, mvfx0
    13fc:	50000000 	andpl	r0, r0, r0
    1400:	2900000f 	stmdbcs	r0, {r0, r1, r2, r3}
    1404:	00000f50 	andeq	r0, r0, r0, asr pc
    1408:	00002529 	andeq	r2, r0, r9, lsr #10
    140c:	04060000 	streq	r0, [r6], #-0
    1410:	00000f56 	andeq	r0, r0, r6, asr pc
    1414:	0407282b 	streq	r2, [r7], #-2091	; 0x82b
    1418:	1b070000 	blne	1c1420 <__bss_end__+0x1b5870>
    141c:	0000009e 	muleq	r0, lr, r0
    1420:	00000f76 	andeq	r0, r0, r6, ror pc
    1424:	00009e29 	andeq	r9, r0, r9, lsr #28
    1428:	00252900 	eoreq	r2, r5, r0, lsl #18
    142c:	2c290000 	stccs	0, cr0, [r9], #-0
    1430:	00000000 	andeq	r0, r0, r0
    1434:	0002f027 	andeq	pc, r2, r7, lsr #32
    1438:	00890500 	addeq	r0, r9, r0, lsl #10
    143c:	00000d69 	andeq	r0, r0, r9, ror #26
    1440:	03cb0004 	biceq	r0, fp, #4
    1444:	01040000 	mrseq	r0, (UNDEF: 4)
    1448:	000000d1 	ldrdeq	r0, [r0], -r1
    144c:	00054601 	andeq	r4, r5, r1, lsl #12
    1450:	00019f00 	andeq	r9, r1, r0, lsl #30
    1454:	00899800 	addeq	r9, r9, r0, lsl #16
    1458:	00068c00 	andeq	r8, r6, r0, lsl #24
    145c:	00040a00 	andeq	r0, r4, r0, lsl #20
    1460:	05040200 	streq	r0, [r4, #-512]	; 0x200
    1464:	00746e69 	rsbseq	r6, r4, r9, ror #28
    1468:	48070403 	stmdami	r7, {r0, r1, sl}
    146c:	03000001 	movweq	r0, #1
    1470:	005b0601 	subseq	r0, fp, r1, lsl #12
    1474:	02030000 	andeq	r0, r3, #0
    1478:	00019505 	andeq	r9, r1, r5, lsl #10
    147c:	05040300 	streq	r0, [r4, #-768]	; 0x300
    1480:	00000176 	andeq	r0, r0, r6, ror r1
    1484:	71050803 	tstvc	r5, r3, lsl #16
    1488:	03000001 	movweq	r0, #1
    148c:	00590801 	subseq	r0, r9, r1, lsl #16
    1490:	c1040000 	mrsgt	r0, (UNDEF: 4)
    1494:	02000002 	andeq	r0, r0, #2
    1498:	00006131 	andeq	r6, r0, r1, lsr r1
    149c:	07020300 	streq	r0, [r2, -r0, lsl #6]
    14a0:	00000020 	andeq	r0, r0, r0, lsr #32
    14a4:	00009904 	andeq	r9, r0, r4, lsl #18
    14a8:	73340200 	teqvc	r4, #0, 4
    14ac:	03000000 	movweq	r0, #0
    14b0:	01430704 	cmpeq	r3, r4, lsl #14
    14b4:	08030000 	stmdaeq	r3, {}	; <UNPREDICTABLE>
    14b8:	00013e07 	andeq	r3, r1, r7, lsl #28
    14bc:	07040300 	streq	r0, [r4, -r0, lsl #6]
    14c0:	00000155 	andeq	r0, r0, r5, asr r1
    14c4:	01030405 	tsteq	r3, r5, lsl #8
    14c8:	00006208 	andeq	r6, r0, r8, lsl #4
    14cc:	97040600 	strls	r0, [r4, -r0, lsl #12]
    14d0:	07000000 	streq	r0, [r0, -r0]
    14d4:	0000008a 	andeq	r0, r0, sl, lsl #1
    14d8:	27030108 	strcs	r0, [r3, -r8, lsl #2]
    14dc:	000000b1 	strheq	r0, [r0], -r1
    14e0:	0002a309 	andeq	sl, r2, r9, lsl #6
    14e4:	9d090b00 	vstrls	d0, [r9, #-0]
    14e8:	0c000002 	stceq	0, cr0, [r0], {2}
    14ec:	030c0a00 	movweq	r0, #51712	; 0xca00
    14f0:	0000de29 	andeq	sp, r0, r9, lsr #28
    14f4:	0f4c0b00 	svceq	0x004c0b00
    14f8:	2a030000 	bcs	c1500 <__bss_end__+0xb5950>
    14fc:	00000091 	muleq	r0, r1, r0
    1500:	120a0b00 	andne	r0, sl, #0, 22
    1504:	2b030000 	blcs	c150c <__bss_end__+0xb595c>
    1508:	00000091 	muleq	r0, r1, r0
    150c:	04000b04 	streq	r0, [r0], #-2820	; 0xb04
    1510:	2c030000 	stccs	0, cr0, [r3], {-0}
    1514:	0000002c 	andeq	r0, r0, ip, lsr #32
    1518:	89040008 	stmdbhi	r4, {r3}
    151c:	03000003 	movweq	r0, #3
    1520:	0000b12d 	andeq	fp, r0, sp, lsr #2
    1524:	04600c00 	strbteq	r0, [r0], #-3072	; 0xc00
    1528:	03380000 	teqeq	r8, #0
    152c:	00016e30 	andeq	r6, r1, r0, lsr lr
    1530:	03500b00 	cmpeq	r0, #0, 22
    1534:	31030000 	mrscc	r0, (UNDEF: 3)
    1538:	00000068 	andeq	r0, r0, r8, rrx
    153c:	04460b00 	strbeq	r0, [r6], #-2816	; 0xb00
    1540:	32030000 	andcc	r0, r3, #0
    1544:	00000068 	andeq	r0, r0, r8, rrx
    1548:	0dd70b04 	vldreq	d16, [r7, #16]
    154c:	33030000 	movwcc	r0, #12288	; 0x3000
    1550:	00000068 	andeq	r0, r0, r8, rrx
    1554:	034a0b08 	movteq	r0, #43784	; 0xab08
    1558:	37030000 	strcc	r0, [r3, -r0]
    155c:	00000068 	andeq	r0, r0, r8, rrx
    1560:	032a0b0c 	teqeq	sl, #12, 22	; 0x3000
    1564:	39030000 	stmdbcc	r3, {}	; <UNPREDICTABLE>
    1568:	000000de 	ldrdeq	r0, [r0], -lr
    156c:	035d0b10 	cmpeq	sp, #16, 22	; 0x4000
    1570:	3a030000 	bcc	c1578 <__bss_end__+0xb59c8>
    1574:	000000de 	ldrdeq	r0, [r0], -lr
    1578:	043b0b1c 	ldrteq	r0, [fp], #-2844	; 0xb1c
    157c:	3e030000 	cdpcc	0, 0, cr0, cr3, cr0, {0}
    1580:	00000068 	andeq	r0, r0, r8, rrx
    1584:	03d90b28 	bicseq	r0, r9, #40, 22	; 0xa000
    1588:	3f030000 	svccc	0x00030000
    158c:	00000068 	andeq	r0, r0, r8, rrx
    1590:	02680b2c 	rsbeq	r0, r8, #44, 22	; 0xb000
    1594:	42030000 	andmi	r0, r3, #0
    1598:	0000016e 	andeq	r0, r0, lr, ror #2
    159c:	02710b30 	rsbseq	r0, r1, #48, 22	; 0xc000
    15a0:	45030000 	strmi	r0, [r3, #-0]
    15a4:	00000056 	andeq	r0, r0, r6, asr r0
    15a8:	04060034 	streq	r0, [r6], #-52	; 0x34
    15ac:	000000e9 	andeq	r0, r0, r9, ror #1
    15b0:	00043104 	andeq	r3, r4, r4, lsl #2
    15b4:	e9460300 	stmdb	r6, {r8, r9}^
    15b8:	08000000 	stmdaeq	r0, {}	; <UNPREDICTABLE>
    15bc:	a4490302 	strbge	r0, [r9], #-770	; 0x302
    15c0:	09000001 	stmdbeq	r0, {r0}
    15c4:	000003c3 	andeq	r0, r0, r3, asr #7
    15c8:	3e0901fe 	mcrcc	1, 0, r0, cr9, cr14, {7}
    15cc:	80000003 	andhi	r0, r0, r3
    15d0:	02da0901 	sbcseq	r0, sl, #16384	; 0x4000
    15d4:	01b80000 			; <UNDEFINED> instruction: 0x01b80000
    15d8:	0002ca09 	andeq	ip, r2, r9, lsl #20
    15dc:	0002b800 	andeq	fp, r2, r0, lsl #16
    15e0:	00037f0c 	andeq	r7, r3, ip, lsl #30
    15e4:	9c031000 	stcls	0, cr1, [r3], {-0}
    15e8:	000001e1 	andeq	r0, r0, r1, ror #3
    15ec:	0013ab0b 	andseq	sl, r3, fp, lsl #22
    15f0:	889e0300 	ldmhi	lr, {r8, r9}
    15f4:	00000000 	andeq	r0, r0, r0
    15f8:	0013be0b 	andseq	fp, r3, fp, lsl #28
    15fc:	88a00300 	stmiahi	r0!, {r8, r9}
    1600:	04000000 	streq	r0, [r0], #-0
    1604:	00024e0b 	andeq	r4, r2, fp, lsl #28
    1608:	2ca30300 	stccs	3, cr0, [r3]
    160c:	08000000 	stmdaeq	r0, {}	; <UNPREDICTABLE>
    1610:	0003e50b 	andeq	lr, r3, fp, lsl #10
    1614:	2ca50300 	stccs	3, cr0, [r5]
    1618:	0c000000 	stceq	0, cr0, [r0], {-0}
    161c:	02930d00 	addseq	r0, r3, #0, 26
    1620:	57030000 	strpl	r0, [r3, -r0]
    1624:	00000088 	andeq	r0, r0, r8, lsl #1
    1628:	0001fb03 	andeq	pc, r1, r3, lsl #22
    162c:	00680e00 	rsbeq	r0, r8, r0, lsl #28
    1630:	01fb5703 	mvnseq	r5, r3, lsl #14
    1634:	06000000 	streq	r0, [r0], -r0
    1638:	00017404 	andeq	r7, r1, r4, lsl #8
    163c:	03660d00 	cmneq	r6, #0, 26
    1640:	59030000 	stmdbpl	r3, {}	; <UNPREDICTABLE>
    1644:	00000088 	andeq	r0, r0, r8, lsl #1
    1648:	00021b03 	andeq	r1, r2, r3, lsl #22
    164c:	00680e00 	rsbeq	r0, r8, r0, lsl #28
    1650:	01fb5903 	mvnseq	r5, r3, lsl #18
    1654:	0f000000 	svceq	0x00000000
    1658:	00000507 	andeq	r0, r0, r7, lsl #10
    165c:	00251c01 	eoreq	r1, r5, r1, lsl #24
    1660:	89980000 	ldmibhi	r8, {}	; <UNPREDICTABLE>
    1664:	003c0000 	eorseq	r0, ip, r0
    1668:	9c010000 	stcls	0, cr0, [r1], {-0}
    166c:	00000242 	andeq	r0, r0, r2, asr #4
    1670:	01007010 	tsteq	r0, r0, lsl r0
    1674:	0000881c 	andeq	r8, r0, ip, lsl r8
    1678:	00069300 	andeq	r9, r6, r0, lsl #6
    167c:	570f0000 	strpl	r0, [pc, -r0]
    1680:	01000005 	tsteq	r0, r5
    1684:	0001fb33 	andeq	pc, r1, r3, lsr fp	; <UNPREDICTABLE>
    1688:	0089d400 	addeq	sp, r9, r0, lsl #8
    168c:	00007800 	andeq	r7, r0, r0, lsl #16
    1690:	ad9c0100 	ldfges	f0, [ip]
    1694:	11000002 	tstne	r0, r2
    1698:	00000278 	andeq	r0, r0, r8, ror r2
    169c:	00683301 	rsbeq	r3, r8, r1, lsl #6
    16a0:	06e60000 	strbteq	r0, [r6], r0
    16a4:	70120000 	andsvc	r0, r2, r0
    16a8:	88340100 	ldmdahi	r4!, {r8}
    16ac:	04000000 	streq	r0, [r0], #-0
    16b0:	13000007 	movwne	r0, #7
    16b4:	000002e7 	andeq	r0, r0, r7, ror #5
    16b8:	01fb3901 	mvnseq	r3, r1, lsl #18
    16bc:	07220000 	streq	r0, [r2, -r0]!
    16c0:	e0140000 	ands	r0, r4, r0
    16c4:	1b000089 	blne	18f0 <__code_start__-0x6710>
    16c8:	9a000002 	bls	16d8 <__code_start__-0x6928>
    16cc:	15000002 	strne	r0, [r0, #-2]
    16d0:	74025001 	strvc	r5, [r2], #-1
    16d4:	ec160000 	ldc	0, cr0, [r6], {-0}
    16d8:	e4000089 	str	r0, [r0], #-137	; 0x89
    16dc:	1600000c 	strne	r0, [r0], -ip
    16e0:	00008a38 	andeq	r8, r0, r8, lsr sl
    16e4:	00000cef 	andeq	r0, r0, pc, ror #25
    16e8:	02711700 	rsbseq	r1, r1, #0, 14
    16ec:	5a010000 	bpl	416f4 <__bss_end__+0x35b44>
    16f0:	00008a4c 	andeq	r8, r0, ip, asr #20
    16f4:	000000f8 	strdeq	r0, [r0], -r8
    16f8:	03ea9c01 	mvneq	r9, #256	; 0x100
    16fc:	70100000 	andsvc	r0, r0, r0
    1700:	ea5a0100 	b	1681b08 <__bss_end__+0x1675f58>
    1704:	40000003 	andmi	r0, r0, r3
    1708:	10000007 	andne	r0, r0, r7
    170c:	5a010065 	bpl	418a8 <__bss_end__+0x35cf8>
    1710:	000003ea 	andeq	r0, r0, sl, ror #7
    1714:	000007b1 			; <UNDEFINED> instruction: 0x000007b1
    1718:	0000bc18 	andeq	fp, r0, r8, lsl ip
    171c:	00040000 	andeq	r0, r4, r0
    1720:	14030500 	strne	r0, [r3], #-1280	; 0x500
    1724:	190000af 	stmdbne	r0, {r0, r1, r2, r3, r5, r7}
    1728:	00646e65 	rsbeq	r6, r4, r5, ror #28
    172c:	00686001 	rsbeq	r6, r8, r1
    1730:	0f130000 	svceq	0x00130000
    1734:	01000005 	tsteq	r0, r5
    1738:	0003ea61 	andeq	lr, r3, r1, ror #20
    173c:	00081100 	andeq	r1, r8, r0, lsl #2
    1740:	02e71300 	rsceq	r1, r7, #0, 6
    1744:	62010000 	andvs	r0, r1, #0
    1748:	000001fb 	strdeq	r0, [r0], -fp
    174c:	0000082f 	andeq	r0, r0, pc, lsr #16
    1750:	008a6416 	addeq	r6, sl, r6, lsl r4
    1754:	000d0400 	andeq	r0, sp, r0, lsl #8
    1758:	8a781400 	bhi	1e06760 <__bss_end__+0x1dfabb0>
    175c:	0d0b0000 	stceq	0, cr0, [fp, #-0]
    1760:	034c0000 	movteq	r0, #49152	; 0xc000
    1764:	01150000 	tsteq	r5, r0
    1768:	5b080253 	blpl	2020bc <__bss_end__+0x1f650c>
    176c:	05520115 	ldrbeq	r0, [r2, #-277]	; 0x115
    1770:	00af1403 	adceq	r1, pc, r3, lsl #8
    1774:	51011500 	tstpl	r1, r0, lsl #10
    1778:	abbc0305 	blge	fef02394 <__bss_end__+0xfeef67e4>
    177c:	01150000 	tsteq	r5, r0
    1780:	a8030550 	stmdage	r3, {r4, r6, r8, sl}
    1784:	000000ab 	andeq	r0, r0, fp, lsr #1
    1788:	008a7c16 	addeq	r7, sl, r6, lsl ip
    178c:	000d2100 	andeq	r2, sp, r0, lsl #2
    1790:	8a881600 	bhi	fe206f98 <__bss_end__+0xfe1fb3e8>
    1794:	0d040000 	stceq	0, cr0, [r4, #-0]
    1798:	9c140000 	ldcls	0, cr0, [r4], {-0}
    179c:	0b00008a 	bleq	19cc <__code_start__-0x6634>
    17a0:	8d00000d 	stchi	0, cr0, [r0, #-52]	; 0xffffffcc
    17a4:	15000003 	strne	r0, [r0, #-3]
    17a8:	08025301 	stmdaeq	r2, {r0, r8, r9, ip, lr}
    17ac:	5201155d 	andpl	r1, r1, #390070272	; 0x17400000
    17b0:	af140305 	svcge	0x00140305
    17b4:	01150000 	tsteq	r5, r0
    17b8:	bc030551 	cfstr32lt	mvfx0, [r3], {81}	; 0x51
    17bc:	150000ab 	strne	r0, [r0, #-171]	; 0xab
    17c0:	03055001 	movweq	r5, #20481	; 0x5001
    17c4:	0000abc4 	andeq	sl, r0, r4, asr #23
    17c8:	8aa01600 	bhi	fe806fd0 <__bss_end__+0xfe7fb420>
    17cc:	0d210000 	stceq	0, cr0, [r1, #-0]
    17d0:	ac160000 	ldcge	0, cr0, [r6], {-0}
    17d4:	0400008a 	streq	r0, [r0], #-138	; 0x8a
    17d8:	1400000d 	strne	r0, [r0], #-13
    17dc:	00008ac0 	andeq	r8, r0, r0, asr #21
    17e0:	00000d0b 	andeq	r0, r0, fp, lsl #26
    17e4:	000003ce 	andeq	r0, r0, lr, asr #7
    17e8:	02530115 	subseq	r0, r3, #1073741829	; 0x40000005
    17ec:	01155e08 	tsteq	r5, r8, lsl #28
    17f0:	14030552 	strne	r0, [r3], #-1362	; 0x552
    17f4:	150000af 	strne	r0, [r0, #-175]	; 0xaf
    17f8:	03055101 	movweq	r5, #20737	; 0x5101
    17fc:	0000abbc 			; <UNDEFINED> instruction: 0x0000abbc
    1800:	05500115 	ldrbeq	r0, [r0, #-277]	; 0x115
    1804:	00abe403 	adceq	lr, fp, r3, lsl #8
    1808:	c4160000 	ldrgt	r0, [r6], #-0
    180c:	2100008a 	smlabbcs	r0, sl, r0, r0
    1810:	1600000d 	strne	r0, [r0], -sp
    1814:	00008acc 	andeq	r8, r0, ip, asr #21
    1818:	00000242 	andeq	r0, r0, r2, asr #4
    181c:	008b1816 	addeq	r1, fp, r6, lsl r8
    1820:	0002ad00 	andeq	sl, r2, r0, lsl #26
    1824:	04060000 	streq	r0, [r6], #-0
    1828:	00000068 	andeq	r0, r0, r8, rrx
    182c:	00008a1a 	andeq	r8, r0, sl, lsl sl
    1830:	00040000 	andeq	r0, r4, r0
    1834:	00811b00 	addeq	r1, r1, r0, lsl #22
    1838:	00040000 	andeq	r0, r4, r0
    183c:	0003f007 	andeq	pc, r3, r7
    1840:	04fc0f00 	ldrbteq	r0, [ip], #3840	; 0xf00
    1844:	7e010000 	cdpvc	0, 0, cr0, cr1, cr0, {0}
    1848:	0000002c 	andeq	r0, r0, ip, lsr #32
    184c:	00008b44 	andeq	r8, r0, r4, asr #22
    1850:	00000134 	andeq	r0, r0, r4, lsr r1
    1854:	05bc9c01 	ldreq	r9, [ip, #3073]!	; 0xc01
    1858:	71110000 	tstvc	r1, r0
    185c:	01000004 	tsteq	r0, r4
    1860:	0000257e 	andeq	r2, r0, lr, ror r5
    1864:	00084d00 	andeq	r4, r8, r0, lsl #26
    1868:	055e1300 	ldrbeq	r1, [lr, #-768]	; 0x300
    186c:	7f010000 	svcvc	0x00010000
    1870:	0000002c 	andeq	r0, r0, ip, lsr #32
    1874:	0000086b 	andeq	r0, r0, fp, ror #16
    1878:	0004ba13 	andeq	fp, r4, r3, lsl sl
    187c:	2c7f0100 	ldfcse	f0, [pc], #-0	; 1884 <__code_start__-0x677c>
    1880:	8a000000 	bhi	1888 <__code_start__-0x6778>
    1884:	13000008 	movwne	r0, #8
    1888:	000004b4 			; <UNDEFINED> instruction: 0x000004b4
    188c:	002c7f01 	eoreq	r7, ip, r1, lsl #30
    1890:	08a90000 	stmiaeq	r9!, {}	; <UNPREDICTABLE>
    1894:	e7130000 	ldr	r0, [r3, -r0]
    1898:	01000002 	tsteq	r0, r2
    189c:	0001fb83 	andeq	pc, r1, r3, lsl #23
    18a0:	0008c800 	andeq	ip, r8, r0, lsl #16
    18a4:	8b541400 	blhi	15068ac <__bss_end__+0x14facfc>
    18a8:	0d0b0000 	stceq	0, cr0, [fp, #-0]
    18ac:	04800000 	streq	r0, [r0], #0
    18b0:	01150000 	tsteq	r5, r0
    18b4:	04030550 	streq	r0, [r3], #-1360	; 0x550
    18b8:	000000ac 	andeq	r0, r0, ip, lsr #1
    18bc:	008b5c14 	addeq	r5, fp, r4, lsl ip
    18c0:	000d0b00 	andeq	r0, sp, r0, lsl #22
    18c4:	00049700 	andeq	r9, r4, r0, lsl #14
    18c8:	50011500 	andpl	r1, r1, r0, lsl #10
    18cc:	ac400305 	mcrrge	3, 0, r0, r0, cr5
    18d0:	16000000 	strne	r0, [r0], -r0
    18d4:	00008b60 	andeq	r8, r0, r0, ror #22
    18d8:	00000ce4 	andeq	r0, r0, r4, ror #25
    18dc:	008ba014 	addeq	sl, fp, r4, lsl r0
    18e0:	000d0b00 	andeq	r0, sp, r0, lsl #22
    18e4:	0004b400 	andeq	fp, r4, r0, lsl #8
    18e8:	50011500 	andpl	r1, r1, r0, lsl #10
    18ec:	00007a02 	andeq	r7, r0, r2, lsl #20
    18f0:	008bac14 	addeq	sl, fp, r4, lsl ip
    18f4:	000d0b00 	andeq	r0, sp, r0, lsl #22
    18f8:	0004cf00 	andeq	ip, r4, r0, lsl #30
    18fc:	51011500 	tstpl	r1, r0, lsl #10
    1900:	01b87403 			; <UNDEFINED> instruction: 0x01b87403
    1904:	02500115 	subseq	r0, r0, #1073741829	; 0x40000005
    1908:	1400007b 	strne	r0, [r0], #-123	; 0x7b
    190c:	00008bd4 	ldrdeq	r8, [r0], -r4
    1910:	00000d0b 	andeq	r0, r0, fp, lsl #26
    1914:	000004e3 	andeq	r0, r0, r3, ror #9
    1918:	02500115 	subseq	r0, r0, #1073741829	; 0x40000005
    191c:	1400007a 	strne	r0, [r0], #-122	; 0x7a
    1920:	00008be0 	andeq	r8, r0, r0, ror #23
    1924:	00000d0b 	andeq	r0, r0, fp, lsl #26
    1928:	00000501 	andeq	r0, r0, r1, lsl #10
    192c:	03510115 	cmpeq	r1, #1073741829	; 0x40000005
    1930:	1501b874 	strne	fp, [r1, #-2164]	; 0x874
    1934:	03055001 	movweq	r5, #20481	; 0x5001
    1938:	0000ac78 	andeq	sl, r0, r8, ror ip
    193c:	8bf01400 	blhi	ffc06944 <__bss_end__+0xffbfad94>
    1940:	0cef0000 	stcleq	0, cr0, [pc]	; 1948 <__code_start__-0x66b8>
    1944:	05150000 	ldreq	r0, [r5, #-0]
    1948:	01150000 	tsteq	r5, r0
    194c:	00740250 	rsbseq	r0, r4, r0, asr r2
    1950:	8c041400 	cfstrshi	mvf1, [r4], {-0}
    1954:	0d0b0000 	stceq	0, cr0, [fp, #-0]
    1958:	05290000 	streq	r0, [r9, #-0]!
    195c:	01150000 	tsteq	r5, r0
    1960:	007a0250 	rsbseq	r0, sl, r0, asr r2
    1964:	8c101400 	cfldrshi	mvf1, [r0], {-0}
    1968:	0d0b0000 	stceq	0, cr0, [fp, #-0]
    196c:	05460000 	strbeq	r0, [r6, #-0]
    1970:	01150000 	tsteq	r5, r0
    1974:	00750251 	rsbseq	r0, r5, r1, asr r2
    1978:	05500115 	ldrbeq	r0, [r0, #-277]	; 0x115
    197c:	00acb003 	adceq	fp, ip, r3
    1980:	20140000 	andscs	r0, r4, r0
    1984:	0b00008c 	bleq	1bbc <__code_start__-0x6444>
    1988:	5a00000d 	bpl	19c4 <__code_start__-0x663c>
    198c:	15000005 	strne	r0, [r0, #-5]
    1990:	7a025001 	bvc	9599c <__bss_end__+0x89dec>
    1994:	28140000 	ldmdacs	r4, {}	; <UNPREDICTABLE>
    1998:	0b00008c 	bleq	1bd0 <__code_start__-0x6430>
    199c:	7100000d 	tstvc	r0, sp
    19a0:	15000005 	strne	r0, [r0, #-5]
    19a4:	03055001 	movweq	r5, #20481	; 0x5001
    19a8:	0000acc8 	andeq	sl, r0, r8, asr #25
    19ac:	8c341400 	cfldrshi	mvf1, [r4], #-0
    19b0:	0d0b0000 	stceq	0, cr0, [fp, #-0]
    19b4:	05850000 	streq	r0, [r5]
    19b8:	01150000 	tsteq	r5, r0
    19bc:	007a0250 	rsbseq	r0, sl, r0, asr r2
    19c0:	8c441400 	cfstrdhi	mvd1, [r4], {-0}
    19c4:	0d0b0000 	stceq	0, cr0, [fp, #-0]
    19c8:	05a80000 	streq	r0, [r8, #0]!
    19cc:	01150000 	tsteq	r5, r0
    19d0:	00760252 	rsbseq	r0, r6, r2, asr r2
    19d4:	02510115 	subseq	r0, r1, #1073741829	; 0x40000005
    19d8:	01150077 	tsteq	r5, r7, ror r0
    19dc:	e8030550 	stmda	r3, {r4, r6, r8, sl}
    19e0:	000000ac 	andeq	r0, r0, ip, lsr #1
    19e4:	008c4c1c 	addeq	r4, ip, ip, lsl ip
    19e8:	000d0b00 	andeq	r0, sp, r0, lsl #22
    19ec:	50011500 	andpl	r1, r1, r0, lsl #10
    19f0:	ad140305 	ldcge	3, cr0, [r4, #-20]	; 0xffffffec
    19f4:	00000000 	andeq	r0, r0, r0
    19f8:	00054e17 	andeq	r4, r5, r7, lsl lr
    19fc:	78ca0100 	stmiavc	sl, {r8}^
    1a00:	f400008c 	vst4.32	{d0-d3}, [r0], ip
    1a04:	01000000 	mrseq	r0, (UNDEF: 0)
    1a08:	0007269c 	muleq	r7, ip, r6
    1a0c:	00691d00 	rsbeq	r1, r9, r0, lsl #26
    1a10:	01a4d301 			; <UNDEFINED> instruction: 0x01a4d301
    1a14:	91020000 	mrsls	r0, (UNDEF: 2)
    1a18:	053a1e68 	ldreq	r1, [sl, #-3688]!	; 0xe68
    1a1c:	dc010000 	stcle	0, cr0, [r1], {-0}
    1a20:	00000726 	andeq	r0, r0, r6, lsr #14
    1a24:	7fa89103 	svcvc	0x00a89103
    1a28:	0000bc18 	andeq	fp, r0, r8, lsl ip
    1a2c:	00074600 	andeq	r4, r7, r0, lsl #12
    1a30:	08030500 	stmdaeq	r3, {r8, sl}
    1a34:	1f0000af 	svcne	0x000000af
    1a38:	00000467 	andeq	r0, r0, r7, ror #8
    1a3c:	03eaec01 	mvneq	lr, #256	; 0x100
    1a40:	00000000 	andeq	r0, r0, r0
    1a44:	e2200800 	eor	r0, r0, #0, 16
    1a48:	01000004 	tsteq	r0, r4
    1a4c:	000068f0 	strdeq	r6, [r0], -r0
    1a50:	04f02000 	ldrbteq	r2, [r0], #0
    1a54:	f0010000 			; <UNDEFINED> instruction: 0xf0010000
    1a58:	00000068 	andeq	r0, r0, r8, rrx
    1a5c:	00052620 	andeq	r2, r5, r0, lsr #12
    1a60:	68f30100 	ldmvs	r3!, {r8}^
    1a64:	20000000 	andcs	r0, r0, r0
    1a68:	000004c7 	andeq	r0, r0, r7, asr #9
    1a6c:	0068f301 	rsbeq	pc, r8, r1, lsl #6
    1a70:	80210000 	eorhi	r0, r1, r0
    1a74:	2400008c 	strcs	r0, [r0], #-140	; 0x8c
    1a78:	63000000 	movwvs	r0, #0
    1a7c:	12000006 	andne	r0, r0, #6
    1a80:	cd010068 	stcgt	0, cr0, [r1, #-416]	; 0xfffffe60
    1a84:	000001fb 	strdeq	r0, [r0], -fp
    1a88:	00000912 	andeq	r0, r0, r2, lsl r9
    1a8c:	008c8416 	addeq	r8, ip, r6, lsl r4
    1a90:	000ce400 	andeq	lr, ip, r0, lsl #8
    1a94:	8c9c1600 	ldchi	6, cr1, [ip], {0}
    1a98:	0cef0000 	stcleq	0, cr0, [pc]	; 1aa0 <__code_start__-0x6560>
    1a9c:	22000000 	andcs	r0, r0, #0
    1aa0:	00000018 	andeq	r0, r0, r8, lsl r0
    1aa4:	0000067a 	andeq	r0, r0, sl, ror r6
    1aa8:	01006912 	tsteq	r0, r2, lsl r9
    1aac:	000025e1 	andeq	r2, r0, r1, ror #11
    1ab0:	00093000 	andeq	r3, r9, r0
    1ab4:	b0140000 	andslt	r0, r4, r0
    1ab8:	2800008c 	stmdacs	r0, {r2, r3, r7}
    1abc:	8e00000d 	cdphi	0, 0, cr0, cr0, cr13, {0}
    1ac0:	15000006 	strne	r0, [r0, #-6]
    1ac4:	74025001 	strvc	r5, [r2], #-1
    1ac8:	c8140000 	ldmdagt	r4, {}	; <UNPREDICTABLE>
    1acc:	3300008c 	movwcc	r0, #140	; 0x8c
    1ad0:	a200000d 	andge	r0, r0, #13
    1ad4:	15000006 	strne	r0, [r0, #-6]
    1ad8:	74025001 	strvc	r5, [r2], #-1
    1adc:	d8160000 	ldmdale	r6, {}	; <UNPREDICTABLE>
    1ae0:	0400008c 	streq	r0, [r0], #-140	; 0x8c
    1ae4:	1400000d 	strne	r0, [r0], #-13
    1ae8:	00008cec 	andeq	r8, r0, ip, ror #25
    1aec:	00000d0b 	andeq	r0, r0, fp, lsl #26
    1af0:	000006da 	ldrdeq	r0, [r0], -sl
    1af4:	02530115 	subseq	r0, r3, #1073741829	; 0x40000005
    1af8:	0115df08 	tsteq	r5, r8, lsl #30
    1afc:	08030552 	stmdaeq	r3, {r1, r4, r6, r8, sl}
    1b00:	150000af 	strne	r0, [r0, #-175]	; 0xaf
    1b04:	03055101 	movweq	r5, #20737	; 0x5101
    1b08:	0000abbc 			; <UNDEFINED> instruction: 0x0000abbc
    1b0c:	05500115 	ldrbeq	r0, [r0, #-277]	; 0x115
    1b10:	00ad5003 	adceq	r5, sp, r3
    1b14:	f0160000 			; <UNDEFINED> instruction: 0xf0160000
    1b18:	2100008c 	smlabbcs	r0, ip, r0, r0
    1b1c:	1400000d 	strne	r0, [r0], #-13
    1b20:	00008d20 	andeq	r8, r0, r0, lsr #26
    1b24:	000002ad 	andeq	r0, r0, sp, lsr #5
    1b28:	000006fe 	strdeq	r0, [r0], -lr
    1b2c:	02510115 	subseq	r0, r1, #1073741829	; 0x40000005
    1b30:	01155891 			; <UNDEFINED> instruction: 0x01155891
    1b34:	b0910350 	addslt	r0, r1, r0, asr r3
    1b38:	2c14007f 	ldccs	0, cr0, [r4], {127}	; 0x7f
    1b3c:	ad00008d 	stcge	0, cr0, [r0, #-564]	; 0xfffffdcc
    1b40:	13000002 	movwne	r0, #2
    1b44:	15000007 	strne	r0, [r0, #-7]
    1b48:	40035101 	andmi	r5, r3, r1, lsl #2
    1b4c:	16002447 	strne	r2, [r0], -r7, asr #8
    1b50:	00008d38 	andeq	r8, r0, r8, lsr sp
    1b54:	000002ad 	andeq	r0, r0, sp, lsr #5
    1b58:	008d4416 	addeq	r4, sp, r6, lsl r4
    1b5c:	0002ad00 	andeq	sl, r2, r0, lsl #26
    1b60:	681a0000 	ldmdavs	sl, {}	; <UNPREDICTABLE>
    1b64:	36000000 	strcc	r0, [r0], -r0
    1b68:	1b000007 	blne	1b8c <__code_start__-0x6474>
    1b6c:	00000081 	andeq	r0, r0, r1, lsl #1
    1b70:	8a1a000f 	bhi	681bb4 <__bss_end__+0x676004>
    1b74:	46000000 	strmi	r0, [r0], -r0
    1b78:	1b000007 	blne	1b9c <__code_start__-0x6464>
    1b7c:	00000081 	andeq	r0, r0, r1, lsl #1
    1b80:	36070008 	strcc	r0, [r7], -r8
    1b84:	23000007 	movwcs	r0, #7
    1b88:	000004d4 	ldrdeq	r0, [r0], -r4
    1b8c:	002cfd01 	eoreq	pc, ip, r1, lsl #26
    1b90:	8d6c0000 	stclhi	0, cr0, [ip, #-0]
    1b94:	00180000 	andseq	r0, r8, r0
    1b98:	9c010000 	stcls	0, cr0, [r1], {-0}
    1b9c:	0000078d 	andeq	r0, r0, sp, lsl #15
    1ba0:	00047111 	andeq	r7, r4, r1, lsl r1
    1ba4:	25fd0100 	ldrbcs	r0, [sp, #256]!	; 0x100
    1ba8:	4e000000 	cdpmi	0, 0, cr0, cr0, cr0, {0}
    1bac:	16000009 	strne	r0, [r0], -r9
    1bb0:	00008d78 	andeq	r8, r0, r8, ror sp
    1bb4:	000005bc 			; <UNDEFINED> instruction: 0x000005bc
    1bb8:	008d801c 	addeq	r8, sp, ip, lsl r0
    1bbc:	00040500 	andeq	r0, r4, r0, lsl #10
    1bc0:	50011500 	andpl	r1, r1, r0, lsl #10
    1bc4:	00007402 	andeq	r7, r0, r2, lsl #8
    1bc8:	04942400 	ldreq	r2, [r4], #1024	; 0x400
    1bcc:	03010000 	movweq	r0, #4096	; 0x1000
    1bd0:	008d8401 	addeq	r8, sp, r1, lsl #8
    1bd4:	0000a000 	andeq	sl, r0, r0
    1bd8:	ab9c0100 	blge	fe701fe0 <__bss_end__+0xfe6f6430>
    1bdc:	18000008 	stmdane	r0, {r3}
    1be0:	000000bc 	strheq	r0, [r0], -ip
    1be4:	000008bb 			; <UNDEFINED> instruction: 0x000008bb
    1be8:	af1c0305 	svcge	0x001c0305
    1bec:	8c160000 	ldchi	0, cr0, [r6], {-0}
    1bf0:	4500008d 	strmi	r0, [r0, #-141]	; 0x8d
    1bf4:	1600000d 	strne	r0, [r0], -sp
    1bf8:	00008d98 	muleq	r0, r8, sp
    1bfc:	00000d04 	andeq	r0, r0, r4, lsl #26
    1c00:	008dac14 	addeq	sl, sp, r4, lsl ip
    1c04:	000d0b00 	andeq	r0, sp, r0, lsl #22
    1c08:	0007f400 	andeq	pc, r7, r0, lsl #8
    1c0c:	53011500 	movwpl	r1, #5376	; 0x1500
    1c10:	01090a03 	tsteq	r9, r3, lsl #20
    1c14:	05520115 	ldrbeq	r0, [r2, #-277]	; 0x115
    1c18:	00af1c03 	adceq	r1, pc, r3, lsl #24
    1c1c:	51011500 	tstpl	r1, r0, lsl #10
    1c20:	abbc0305 	blge	fef0283c <__bss_end__+0xfeef6c8c>
    1c24:	01150000 	tsteq	r5, r0
    1c28:	80030550 	andhi	r0, r3, r0, asr r5
    1c2c:	000000ad 	andeq	r0, r0, sp, lsr #1
    1c30:	008db016 	addeq	fp, sp, r6, lsl r0
    1c34:	000d2100 	andeq	r2, sp, r0, lsl #2
    1c38:	8db81400 	cfldrshi	mvf1, [r8]
    1c3c:	0d0b0000 	stceq	0, cr0, [fp, #-0]
    1c40:	08140000 	ldmdaeq	r4, {}	; <UNPREDICTABLE>
    1c44:	01150000 	tsteq	r5, r0
    1c48:	a0030550 	andge	r0, r3, r0, asr r5
    1c4c:	000000a7 	andeq	r0, r0, r7, lsr #1
    1c50:	008dc014 	addeq	ip, sp, r4, lsl r0
    1c54:	000d0b00 	andeq	r0, sp, r0, lsl #22
    1c58:	00082b00 	andeq	r2, r8, r0, lsl #22
    1c5c:	50011500 	andpl	r1, r1, r0, lsl #10
    1c60:	ada80305 	stcge	3, cr0, [r8, #20]!
    1c64:	14000000 	strne	r0, [r0], #-0
    1c68:	00008dc8 	andeq	r8, r0, r8, asr #27
    1c6c:	0000074b 	andeq	r0, r0, fp, asr #14
    1c70:	0000083e 	andeq	r0, r0, lr, lsr r8
    1c74:	01500115 	cmpeq	r0, r5, lsl r1
    1c78:	d4160031 	ldrle	r0, [r6], #-49	; 0x31
    1c7c:	0400008d 	streq	r0, [r0], #-141	; 0x8d
    1c80:	1400000d 	strne	r0, [r0], #-13
    1c84:	00008de8 	andeq	r8, r0, r8, ror #27
    1c88:	00000d0b 	andeq	r0, r0, fp, lsl #26
    1c8c:	00000877 	andeq	r0, r0, r7, ror r8
    1c90:	03530115 	cmpeq	r3, #1073741829	; 0x40000005
    1c94:	15010d0a 	strne	r0, [r1, #-3338]	; 0xd0a
    1c98:	03055201 	movweq	r5, #20993	; 0x5201
    1c9c:	0000af1c 	andeq	sl, r0, ip, lsl pc
    1ca0:	05510115 	ldrbeq	r0, [r1, #-277]	; 0x115
    1ca4:	00abbc03 	adceq	fp, fp, r3, lsl #24
    1ca8:	50011500 	andpl	r1, r1, r0, lsl #10
    1cac:	adc80305 	stclge	3, cr0, [r8, #20]
    1cb0:	16000000 	strne	r0, [r0], -r0
    1cb4:	00008dec 	andeq	r8, r0, ip, ror #27
    1cb8:	00000d21 	andeq	r0, r0, r1, lsr #26
    1cbc:	008df414 	addeq	pc, sp, r4, lsl r4	; <UNPREDICTABLE>
    1cc0:	000d0b00 	andeq	r0, sp, r0, lsl #22
    1cc4:	00089700 	andeq	r9, r8, r0, lsl #14
    1cc8:	50011500 	andpl	r1, r1, r0, lsl #10
    1ccc:	a7a00305 	strge	r0, [r0, r5, lsl #6]!
    1cd0:	1c000000 	stcne	0, cr0, [r0], {-0}
    1cd4:	00008dfc 	strdeq	r8, [r0], -ip
    1cd8:	00000d0b 	andeq	r0, r0, fp, lsl #26
    1cdc:	05500115 	ldrbeq	r0, [r0, #-277]	; 0x115
    1ce0:	00adf403 	adceq	pc, sp, r3, lsl #8
    1ce4:	1a000000 	bne	1cec <__code_start__-0x6314>
    1ce8:	0000008a 	andeq	r0, r0, sl, lsl #1
    1cec:	000008bb 			; <UNDEFINED> instruction: 0x000008bb
    1cf0:	0000811b 	andeq	r8, r0, fp, lsl r1
    1cf4:	07000d00 	streq	r0, [r0, -r0, lsl #26]
    1cf8:	000008ab 	andeq	r0, r0, fp, lsr #17
    1cfc:	00051425 	andeq	r1, r5, r5, lsr #8
    1d00:	01140100 	tsteq	r4, r0, lsl #2
    1d04:	0000002c 	andeq	r0, r0, ip, lsr #32
    1d08:	00008e24 	andeq	r8, r0, r4, lsr #28
    1d0c:	000000a4 	andeq	r0, r0, r4, lsr #1
    1d10:	09f89c01 	ldmibeq	r8!, {r0, sl, fp, ip, pc}^
    1d14:	bc180000 	ldclt	0, cr0, [r8], {-0}
    1d18:	08000000 	stmdaeq	r0, {}	; <UNPREDICTABLE>
    1d1c:	0500000a 	streq	r0, [r0, #-10]
    1d20:	00af2c03 	adceq	r2, pc, r3, lsl #24
    1d24:	04a22600 	strteq	r2, [r2], #1536	; 0x600
    1d28:	1e010000 	cdpne	0, 0, cr0, cr1, cr0, {0}
    1d2c:	00002c01 	andeq	r2, r0, r1, lsl #24
    1d30:	00096c00 	andeq	r6, r9, r0, lsl #24
    1d34:	8e2c1600 	cfmadda32hi	mvax0, mvax1, mvfx12, mvfx0
    1d38:	0d450000 	stcleq	0, cr0, [r5, #-0]
    1d3c:	38160000 	ldmdacc	r6, {}	; <UNPREDICTABLE>
    1d40:	0400008e 	streq	r0, [r0], #-142	; 0x8e
    1d44:	1400000d 	strne	r0, [r0], #-13
    1d48:	00008e4c 	andeq	r8, r0, ip, asr #28
    1d4c:	00000d0b 	andeq	r0, r0, fp, lsl #26
    1d50:	0000093b 	andeq	r0, r0, fp, lsr r9
    1d54:	03530115 	cmpeq	r3, #1073741829	; 0x40000005
    1d58:	15011a0a 	strne	r1, [r1, #-2570]	; 0xa0a
    1d5c:	03055201 	movweq	r5, #20993	; 0x5201
    1d60:	0000af2c 	andeq	sl, r0, ip, lsr #30
    1d64:	05510115 	ldrbeq	r0, [r1, #-277]	; 0x115
    1d68:	00abbc03 	adceq	fp, fp, r3, lsl #24
    1d6c:	50011500 	andpl	r1, r1, r0, lsl #10
    1d70:	ad800305 	stcge	3, cr0, [r0, #20]
    1d74:	16000000 	strne	r0, [r0], -r0
    1d78:	00008e50 	andeq	r8, r0, r0, asr lr
    1d7c:	00000d21 	andeq	r0, r0, r1, lsr #26
    1d80:	008e5814 	addeq	r5, lr, r4, lsl r8
    1d84:	000d0b00 	andeq	r0, sp, r0, lsl #22
    1d88:	00095b00 	andeq	r5, r9, r0, lsl #22
    1d8c:	50011500 	andpl	r1, r1, r0, lsl #10
    1d90:	a7a00305 	strge	r0, [r0, r5, lsl #6]!
    1d94:	14000000 	strne	r0, [r0], #-0
    1d98:	00008e60 	andeq	r8, r0, r0, ror #28
    1d9c:	00000d0b 	andeq	r0, r0, fp, lsl #26
    1da0:	00000972 	andeq	r0, r0, r2, ror r9
    1da4:	05500115 	ldrbeq	r0, [r0, #-277]	; 0x115
    1da8:	00ada803 	adceq	sl, sp, r3, lsl #16
    1dac:	68140000 	ldmdavs	r4, {}	; <UNPREDICTABLE>
    1db0:	4b00008e 	blmi	1ff0 <__code_start__-0x6010>
    1db4:	85000007 	strhi	r0, [r0, #-7]
    1db8:	15000009 	strne	r0, [r0, #-9]
    1dbc:	31015001 	tstcc	r1, r1
    1dc0:	8e741600 	cdphi	6, 7, cr1, cr4, cr0, {0}
    1dc4:	0d040000 	stceq	0, cr0, [r4, #-0]
    1dc8:	88140000 	ldmdahi	r4, {}	; <UNPREDICTABLE>
    1dcc:	0b00008e 	bleq	200c <__code_start__-0x5ff4>
    1dd0:	be00000d 	cdplt	0, 0, cr0, cr0, cr13, {0}
    1dd4:	15000009 	strne	r0, [r0, #-9]
    1dd8:	0a035301 	beq	d69e4 <__bss_end__+0xcae34>
    1ddc:	01150120 	tsteq	r5, r0, lsr #2
    1de0:	2c030552 	cfstr32cs	mvfx0, [r3], {82}	; 0x52
    1de4:	150000af 	strne	r0, [r0, #-175]	; 0xaf
    1de8:	03055101 	movweq	r5, #20737	; 0x5101
    1dec:	0000abbc 			; <UNDEFINED> instruction: 0x0000abbc
    1df0:	05500115 	ldrbeq	r0, [r0, #-277]	; 0x115
    1df4:	00ae0c03 	adceq	r0, lr, r3, lsl #24
    1df8:	8c160000 	ldchi	0, cr0, [r6], {-0}
    1dfc:	2100008e 	smlabbcs	r0, lr, r0, r0
    1e00:	1400000d 	strne	r0, [r0], #-13
    1e04:	00008e94 	muleq	r0, r4, lr
    1e08:	00000d0b 	andeq	r0, r0, fp, lsl #26
    1e0c:	000009de 	ldrdeq	r0, [r0], -lr
    1e10:	05500115 	ldrbeq	r0, [r0, #-277]	; 0x115
    1e14:	00a7a003 	adceq	sl, r7, r3
    1e18:	a01c0000 	andsge	r0, ip, r0
    1e1c:	0b00008e 	bleq	205c <__code_start__-0x5fa4>
    1e20:	1500000d 	strne	r0, [r0, #-13]
    1e24:	74025101 	strvc	r5, [r2], #-257	; 0x101
    1e28:	50011500 	andpl	r1, r1, r0, lsl #10
    1e2c:	ae340305 	cdpge	3, 3, cr0, cr4, cr5, {0}
    1e30:	00000000 	andeq	r0, r0, r0
    1e34:	00008a1a 	andeq	r8, r0, sl, lsl sl
    1e38:	000a0800 	andeq	r0, sl, r0, lsl #16
    1e3c:	00811b00 	addeq	r1, r1, r0, lsl #22
    1e40:	00110000 	andseq	r0, r1, r0
    1e44:	0009f807 	andeq	pc, r9, r7, lsl #16
    1e48:	04852400 	streq	r2, [r5], #1024	; 0x400
    1e4c:	27010000 	strcs	r0, [r1, -r0]
    1e50:	008ec801 	addeq	ip, lr, r1, lsl #16
    1e54:	00002c00 	andeq	r2, r0, r0, lsl #24
    1e58:	759c0100 	ldrvc	r0, [ip, #256]	; 0x100
    1e5c:	1800000a 	stmdane	r0, {r1, r3}
    1e60:	000000bc 	strheq	r0, [r0], -ip
    1e64:	00000a85 	andeq	r0, r0, r5, lsl #21
    1e68:	af400305 	svcge	0x00400305
    1e6c:	d0160000 	andsle	r0, r6, r0
    1e70:	0400008e 	streq	r0, [r0], #-142	; 0x8e
    1e74:	1400000d 	strne	r0, [r0], #-13
    1e78:	00008ee4 	andeq	r8, r0, r4, ror #29
    1e7c:	00000d0b 	andeq	r0, r0, fp, lsl #26
    1e80:	00000a6b 	andeq	r0, r0, fp, ror #20
    1e84:	03530115 	cmpeq	r3, #1073741829	; 0x40000005
    1e88:	1501280a 	strne	r2, [r1, #-2058]	; 0x80a
    1e8c:	03055201 	movweq	r5, #20993	; 0x5201
    1e90:	0000af40 	andeq	sl, r0, r0, asr #30
    1e94:	05510115 	ldrbeq	r0, [r1, #-277]	; 0x115
    1e98:	00abbc03 	adceq	fp, fp, r3, lsl #24
    1e9c:	50011500 	andpl	r1, r1, r0, lsl #10
    1ea0:	ae540305 	cdpge	3, 5, cr0, cr4, cr5, {0}
    1ea4:	16000000 	strne	r0, [r0], -r0
    1ea8:	00008ee8 	andeq	r8, r0, r8, ror #29
    1eac:	00000d21 	andeq	r0, r0, r1, lsr #26
    1eb0:	008a1a00 	addeq	r1, sl, r0, lsl #20
    1eb4:	0a850000 	beq	fe141ebc <__bss_end__+0xfe13630c>
    1eb8:	811b0000 	tsthi	fp, r0
    1ebc:	0e000000 	cdpeq	0, 0, cr0, cr0, cr0, {0}
    1ec0:	0a750700 	beq	1d43ac8 <__bss_end__+0x1d37f18>
    1ec4:	a9270000 	stmdbge	r7!, {}	; <UNPREDICTABLE>
    1ec8:	01000004 	tsteq	r0, r4
    1ecc:	002c012d 	eoreq	r0, ip, sp, lsr #2
    1ed0:	8ef40000 	cdphi	0, 15, cr0, cr4, cr0, {0}
    1ed4:	01200000 	teqeq	r0, r0
    1ed8:	9c010000 	stcls	0, cr0, [r1], {-0}
    1edc:	00000c57 	andeq	r0, r0, r7, asr ip
    1ee0:	00055e26 	andeq	r5, r5, r6, lsr #28
    1ee4:	012e0100 	teqeq	lr, r0, lsl #2
    1ee8:	0000002c 	andeq	r0, r0, ip, lsr #32
    1eec:	000009a0 	andeq	r0, r0, r0, lsr #19
    1ef0:	00053f26 	andeq	r3, r5, r6, lsr #30
    1ef4:	012e0100 	teqeq	lr, r0, lsl #2
    1ef8:	0000002c 	andeq	r0, r0, ip, lsr #32
    1efc:	000009bf 			; <UNDEFINED> instruction: 0x000009bf
    1f00:	00024e26 	andeq	r4, r2, r6, lsr #28
    1f04:	012e0100 	teqeq	lr, r0, lsl #2
    1f08:	0000002c 	andeq	r0, r0, ip, lsr #32
    1f0c:	000009de 	ldrdeq	r0, [r0], -lr
    1f10:	0002e726 	andeq	lr, r2, r6, lsr #14
    1f14:	01320100 	teqeq	r2, r0, lsl #2
    1f18:	000001fb 	strdeq	r0, [r0], -fp
    1f1c:	00000a08 	andeq	r0, r0, r8, lsl #20
    1f20:	0000bc18 	andeq	fp, r0, r8, lsl ip
    1f24:	000c6700 	andeq	r6, ip, r0, lsl #14
    1f28:	50030500 	andpl	r0, r3, r0, lsl #10
    1f2c:	280000af 	stmdacs	r0, {r0, r1, r2, r3, r5, r7}
    1f30:	00000384 	andeq	r0, r0, r4, lsl #7
    1f34:	a4014801 	strge	r4, [r1], #-2049	; 0x801
    1f38:	02000001 	andeq	r0, r0, #1
    1f3c:	30224891 	mlacc	r2, r1, r8, r4
    1f40:	6e000000 	cdpvs	0, 0, cr0, cr0, cr0, {0}
    1f44:	2900000b 	stmdbcs	r0, {r0, r1, r3}
    1f48:	00727470 	rsbseq	r7, r2, r0, ror r4
    1f4c:	88013801 	stmdahi	r1, {r0, fp, ip, sp}
    1f50:	01000000 	mrseq	r0, (UNDEF: 0)
    1f54:	8f601457 	svchi	0x00601457
    1f58:	0d0b0000 	stceq	0, cr0, [fp, #-0]
    1f5c:	0b2d0000 	bleq	b41f64 <__bss_end__+0xb363b4>
    1f60:	01150000 	tsteq	r5, r0
    1f64:	007b0250 	rsbseq	r0, fp, r0, asr r2
    1f68:	8f6c1400 	svchi	0x006c1400
    1f6c:	0d0b0000 	stceq	0, cr0, [fp, #-0]
    1f70:	0b470000 	bleq	11c1f78 <__bss_end__+0x11b63c8>
    1f74:	01150000 	tsteq	r5, r0
    1f78:	00770251 	rsbseq	r0, r7, r1, asr r2
    1f7c:	02500115 	subseq	r0, r0, #1073741829	; 0x40000005
    1f80:	1c00007a 	stcne	0, cr0, [r0], {122}	; 0x7a
    1f84:	00008f80 	andeq	r8, r0, r0, lsl #31
    1f88:	00000d50 	andeq	r0, r0, r0, asr sp
    1f8c:	03530115 	cmpeq	r3, #1073741829	; 0x40000005
    1f90:	15013a0a 	strne	r3, [r1, #-2570]	; 0xa0a
    1f94:	03055201 	movweq	r5, #20993	; 0x5201
    1f98:	0000af50 	andeq	sl, r0, r0, asr pc
    1f9c:	02510115 	subseq	r0, r1, #1073741829	; 0x40000005
    1fa0:	01150079 	tsteq	r5, r9, ror r0
    1fa4:	00770250 	rsbseq	r0, r7, r0, asr r2
    1fa8:	04140000 	ldreq	r0, [r4], #-0
    1fac:	0b00008f 	bleq	21f0 <__code_start__-0x5e10>
    1fb0:	8500000d 	strhi	r0, [r0, #-13]
    1fb4:	1500000b 	strne	r0, [r0, #-11]
    1fb8:	03055001 	movweq	r5, #20481	; 0x5001
    1fbc:	0000ac04 	andeq	sl, r0, r4, lsl #24
    1fc0:	8f0c1400 	svchi	0x000c1400
    1fc4:	0d0b0000 	stceq	0, cr0, [fp, #-0]
    1fc8:	0b9c0000 	bleq	fe701fd0 <__bss_end__+0xfe6f6420>
    1fcc:	01150000 	tsteq	r5, r0
    1fd0:	84030550 	strhi	r0, [r3], #-1360	; 0x550
    1fd4:	000000ae 	andeq	r0, r0, lr, lsr #1
    1fd8:	008f1016 	addeq	r1, pc, r6, lsl r0	; <UNPREDICTABLE>
    1fdc:	000ce400 	andeq	lr, ip, r0, lsl #8
    1fe0:	8f8c1400 	svchi	0x008c1400
    1fe4:	0cef0000 	stcleq	0, cr0, [pc]	; 1fec <__code_start__-0x6014>
    1fe8:	0bb90000 	bleq	fee41ff0 <__bss_end__+0xfee36440>
    1fec:	01150000 	tsteq	r5, r0
    1ff0:	00740250 	rsbseq	r0, r4, r0, asr r2
    1ff4:	8fa41400 	svchi	0x00a41400
    1ff8:	0d0b0000 	stceq	0, cr0, [fp, #-0]
    1ffc:	0bcd0000 	bleq	ff342004 <__bss_end__+0xff336454>
    2000:	01150000 	tsteq	r5, r0
    2004:	00740250 	rsbseq	r0, r4, r0, asr r2
    2008:	8fb81400 	svchi	0x00b81400
    200c:	0d0b0000 	stceq	0, cr0, [fp, #-0]
    2010:	0bf60000 	bleq	ffd82018 <__bss_end__+0xffd76468>
    2014:	01150000 	tsteq	r5, r0
    2018:	00760253 	rsbseq	r0, r6, r3, asr r2
    201c:	02520115 	subseq	r0, r2, #1073741829	; 0x40000005
    2020:	01150078 	tsteq	r5, r8, ror r0
    2024:	00750251 	rsbseq	r0, r5, r1, asr r2
    2028:	05500115 	ldrbeq	r0, [r0, #-277]	; 0x115
    202c:	00aea803 	adceq	sl, lr, r3, lsl #16
    2030:	c0140000 	andsgt	r0, r4, r0
    2034:	2800008f 	stmdacs	r0, {r0, r1, r2, r3, r7}
    2038:	0a00000d 	beq	2074 <__code_start__-0x5f8c>
    203c:	1500000c 	strne	r0, [r0, #-12]
    2040:	7d025001 	stcvc	0, cr5, [r2, #-4]
    2044:	c8140000 	ldmdagt	r4, {}	; <UNPREDICTABLE>
    2048:	0b00008f 	bleq	228c <__code_start__-0x5d74>
    204c:	1e00000d 	cdpne	0, 0, cr0, cr0, cr13, {0}
    2050:	1500000c 	strne	r0, [r0, #-12]
    2054:	74025001 	strvc	r5, [r2], #-1
    2058:	d8140000 	ldmdale	r4, {}	; <UNPREDICTABLE>
    205c:	0b00008f 	bleq	22a0 <__code_start__-0x5d60>
    2060:	4300000d 	movwmi	r0, #13
    2064:	1500000c 	strne	r0, [r0, #-12]
    2068:	91035201 	tstls	r3, r1, lsl #4
    206c:	01150648 	tsteq	r5, r8, asr #12
    2070:	4c910351 	ldcmi	3, cr0, [r1], {81}	; 0x51
    2074:	50011506 	andpl	r1, r1, r6, lsl #10
    2078:	aed40305 	cdpge	3, 13, cr0, cr4, cr5, {0}
    207c:	1c000000 	stcne	0, cr0, [r0], {-0}
    2080:	00008fe0 	andeq	r8, r0, r0, ror #31
    2084:	00000d0b 	andeq	r0, r0, fp, lsl #26
    2088:	05500115 	ldrbeq	r0, [r0, #-277]	; 0x115
    208c:	00ad1403 	adceq	r1, sp, r3, lsl #8
    2090:	1a000000 	bne	2098 <__code_start__-0x5f68>
    2094:	0000008a 	andeq	r0, r0, sl, lsl #1
    2098:	00000c67 	andeq	r0, r0, r7, ror #24
    209c:	0000811b 	andeq	r8, r0, fp, lsl r1
    20a0:	07000a00 	streq	r0, [r0, -r0, lsl #20]
    20a4:	00000c57 	andeq	r0, r0, r7, asr ip
    20a8:	0004c125 	andeq	ip, r4, r5, lsr #2
    20ac:	014f0100 	mrseq	r0, (UNDEF: 95)
    20b0:	0000002c 	andeq	r0, r0, ip, lsr #32
    20b4:	00009014 	andeq	r9, r0, r4, lsl r0
    20b8:	00000010 	andeq	r0, r0, r0, lsl r0
    20bc:	0ca79c01 	stceq	12, cr9, [r7], #4
    20c0:	14280000 	strtne	r0, [r8], #-0
    20c4:	01000004 	tsteq	r0, r4
    20c8:	002c0151 	eoreq	r0, ip, r1, asr r1
    20cc:	50010000 	andpl	r0, r1, r0
    20d0:	00901c16 	addseq	r1, r0, r6, lsl ip
    20d4:	0005bc00 	andeq	fp, r5, r0, lsl #24
    20d8:	90201600 	eorls	r1, r0, r0, lsl #12
    20dc:	0a8a0000 	beq	fe2820e4 <__bss_end__+0xfe276534>
    20e0:	1e000000 	cdpne	0, 0, cr0, cr0, cr0, {0}
    20e4:	00000384 	andeq	r0, r0, r4, lsl #7
    20e8:	01a41401 			; <UNDEFINED> instruction: 0x01a41401
    20ec:	03050000 	movweq	r0, #20480	; 0x5000
    20f0:	0000b728 	andeq	fp, r0, r8, lsr #14
    20f4:	0004e220 	andeq	lr, r4, r0, lsr #4
    20f8:	68f00100 	ldmvs	r0!, {r8}^
    20fc:	20000000 	andcs	r0, r0, r0
    2100:	000004f0 	strdeq	r0, [r0], -r0	; <UNPREDICTABLE>
    2104:	0068f001 	rsbeq	pc, r8, r1
    2108:	26200000 	strtcs	r0, [r0], -r0
    210c:	01000005 	tsteq	r0, r5
    2110:	000068f3 	strdeq	r6, [r0], -r3
    2114:	04c72000 	strbeq	r2, [r7], #0
    2118:	f3010000 	vhadd.u8	d0, d1, d0
    211c:	00000068 	andeq	r0, r0, r8, rrx
    2120:	00025b2a 	andeq	r5, r2, sl, lsr #22
    2124:	fb960300 	blx	fe582d2e <__bss_end__+0xfe57717e>
    2128:	2b000001 	blcs	2134 <__code_start__-0x5ecc>
    212c:	0000031e 	andeq	r0, r0, lr, lsl r3
    2130:	01fb9803 	mvnseq	r9, r3, lsl #16
    2134:	0d040000 	stceq	0, cr0, [r4, #-0]
    2138:	fb2c0000 	blx	b02142 <__bss_end__+0xaf6592>
    213c:	00000001 	andeq	r0, r0, r1
    2140:	0002242d 	andeq	r2, r2, sp, lsr #8
    2144:	2b1e0400 	blcs	78314c <__bss_end__+0x77759c>
    2148:	000009a1 	andeq	r0, r0, r1, lsr #19
    214c:	00252904 	eoreq	r2, r5, r4, lsl #18
    2150:	0d210000 	stceq	0, cr0, [r1, #-0]
    2154:	912c0000 	teqls	ip, r0
    2158:	2e000000 	cdpcs	0, 0, cr0, cr0, cr0, {0}
    215c:	00722d00 	rsbseq	r2, r2, r0, lsl #26
    2160:	65040000 	strvs	r0, [r4, #-0]
    2164:	00037f2a 	andeq	r7, r3, sl, lsr #30
    2168:	a4a80300 	strtge	r0, [r8], #768	; 0x300
    216c:	2f000001 	svccs	0x00000001
    2170:	00000535 	andeq	r0, r0, r5, lsr r5
    2174:	0d45c701 	stcleq	7, cr12, [r5, #-4]
    2178:	ea2c0000 	b	b02180 <__bss_end__+0xaf65d0>
    217c:	2e000003 	cdpcs	0, 0, cr0, cr0, cr3, {0}
    2180:	004a2a00 	subeq	r2, sl, r0, lsl #20
    2184:	1e050000 	cdpne	0, 0, cr0, cr5, cr0, {0}
    2188:	00000025 	andeq	r0, r0, r5, lsr #32
    218c:	00018e30 	andeq	r8, r1, r0, lsr lr
    2190:	2c120500 	cfldr32cs	mvfx0, [r2], {-0}
    2194:	00000088 	andeq	r0, r0, r8, lsl #1
    2198:	0000912c 	andeq	r9, r0, ip, lsr #2
    219c:	00912c00 	addseq	r2, r1, r0, lsl #24
    21a0:	2c2c0000 	stccs	0, cr0, [ip], #-0
    21a4:	00000000 	andeq	r0, r0, r0
    21a8:	000c0c00 	andeq	r0, ip, r0, lsl #24
    21ac:	97000400 	strls	r0, [r0, -r0, lsl #8]
    21b0:	04000006 	streq	r0, [r0], #-6
    21b4:	0000d101 	andeq	sp, r0, r1, lsl #2
    21b8:	06de0100 	ldrbeq	r0, [lr], r0, lsl #2
    21bc:	019f0000 	orrseq	r0, pc, r0
    21c0:	902c0000 	eorls	r0, ip, r0
    21c4:	06e80000 	strbteq	r0, [r8], r0
    21c8:	061e0000 	ldreq	r0, [lr], -r0
    21cc:	04020000 	streq	r0, [r2], #-0
    21d0:	746e6905 	strbtvc	r6, [lr], #-2309	; 0x905
    21d4:	07040300 	streq	r0, [r4, -r0, lsl #6]
    21d8:	00000148 	andeq	r0, r0, r8, asr #2
    21dc:	5b060103 	blpl	1825f0 <__bss_end__+0x176a40>
    21e0:	03000000 	movweq	r0, #0
    21e4:	01950502 	orrseq	r0, r5, r2, lsl #10
    21e8:	9a040000 	bls	1021f0 <__bss_end__+0xf6640>
    21ec:	02000000 	andeq	r0, r0, #0
    21f0:	00004c28 	andeq	r4, r0, r8, lsr #24
    21f4:	05040300 	streq	r0, [r4, #-768]	; 0x300
    21f8:	00000176 	andeq	r0, r0, r6, ror r1
    21fc:	71050803 	tstvc	r5, r3, lsl #16
    2200:	03000001 	movweq	r0, #1
    2204:	00590801 	subseq	r0, r9, r1, lsl #16
    2208:	02030000 	andeq	r0, r3, #0
    220c:	00002007 	andeq	r2, r0, r7
    2210:	00990400 	addseq	r0, r9, r0, lsl #8
    2214:	34020000 	strcc	r0, [r2], #-0
    2218:	00000073 	andeq	r0, r0, r3, ror r0
    221c:	43070403 	movwmi	r0, #29699	; 0x7403
    2220:	03000001 	movweq	r0, #1
    2224:	013e0708 	teqeq	lr, r8, lsl #14
    2228:	04030000 	streq	r0, [r3], #-0
    222c:	00015507 	andeq	r5, r1, r7, lsl #10
    2230:	03040500 	movweq	r0, #17664	; 0x4500
    2234:	00620801 	rsbeq	r0, r2, r1, lsl #16
    2238:	04060000 	streq	r0, [r6], #-0
    223c:	00000097 	muleq	r0, r7, r0
    2240:	00008a07 	andeq	r8, r0, r7, lsl #20
    2244:	008a0800 	addeq	r0, sl, r0, lsl #16
    2248:	00ac0000 	adceq	r0, ip, r0
    224c:	81090000 	mrshi	r0, (UNDEF: 9)
    2250:	18000000 	stmdane	r0, {}	; <UNPREDICTABLE>
    2254:	03020a00 	movweq	r0, #10752	; 0x2a00
    2258:	0000d149 	andeq	sp, r0, r9, asr #2
    225c:	03c30b00 	biceq	r0, r3, #0, 22
    2260:	01fe0000 	mvnseq	r0, r0
    2264:	00033e0b 	andeq	r3, r3, fp, lsl #28
    2268:	0b018000 	bleq	62270 <__bss_end__+0x566c0>
    226c:	000002da 	ldrdeq	r0, [r0], -sl
    2270:	ca0b01b8 	bgt	2c2958 <__bss_end__+0x2b6da8>
    2274:	b8000002 	stmdalt	r0, {r1}
    2278:	040a0002 	streq	r0, [sl], #-2
    227c:	013e3404 	teqeq	lr, r4, lsl #8
    2280:	4d0b0000 	stcmi	0, cr0, [fp, #-0]
    2284:	80000006 	andhi	r0, r0, r6
    2288:	028082e8 	addeq	r8, r0, #232, 4	; 0x8000000e
    228c:	00063e0b 	andeq	r3, r6, fp, lsl #28
    2290:	82e88000 	rschi	r8, r8, #0
    2294:	f40b0280 	vst1.32	{d0-d3}, [fp], r0
    2298:	84000007 	strhi	r0, [r0], #-7
    229c:	028082e8 	addeq	r8, r0, #232, 4	; 0x8000000e
    22a0:	0006270b 	andeq	r2, r6, fp, lsl #14
    22a4:	82e88800 	rschi	r8, r8, #0, 16
    22a8:	040b0280 	streq	r0, [fp], #-640	; 0x280
    22ac:	8c000008 	stchi	0, cr0, [r0], {8}
    22b0:	028082e8 	addeq	r8, r0, #232, 4	; 0x8000000e
    22b4:	00058d0b 	andeq	r8, r5, fp, lsl #26
    22b8:	82e89000 	rschi	r9, r8, #0
    22bc:	710b0280 	smlabbvc	fp, r0, r2, r0
    22c0:	94000006 	strls	r0, [r0], #-6
    22c4:	028082e8 	addeq	r8, r0, #232, 4	; 0x8000000e
    22c8:	0007190b 	andeq	r1, r7, fp, lsl #18
    22cc:	82e89800 	rschi	r9, r8, #0, 16
    22d0:	a20b0280 	andge	r0, fp, #128, 4
    22d4:	9c000007 	stcls	0, cr0, [r0], {7}
    22d8:	028082e8 	addeq	r8, r0, #232, 4	; 0x8000000e
    22dc:	0008ad0b 	andeq	sl, r8, fp, lsl #26
    22e0:	82e8a000 	rschi	sl, r8, #0
    22e4:	0a000280 	beq	2cec <__code_start__-0x5314>
    22e8:	b5140504 	ldrlt	r0, [r4, #-1284]	; 0x504
    22ec:	0b000001 	bleq	22f8 <__code_start__-0x5d08>
    22f0:	0000065c 	andeq	r0, r0, ip, asr r6
    22f4:	8082e480 	addhi	lr, r2, r0, lsl #9
    22f8:	07b70b02 	ldreq	r0, [r7, r2, lsl #22]!
    22fc:	e4800000 	str	r0, [r0], #0
    2300:	0b028082 	bleq	a2510 <__bss_end__+0x96960>
    2304:	0000068d 	andeq	r0, r0, sp, lsl #13
    2308:	8082e484 	addhi	lr, r2, r4, lsl #9
    230c:	069b0b02 	ldreq	r0, [fp], r2, lsl #22
    2310:	e4880000 	str	r0, [r8], #0
    2314:	0b028082 	bleq	a2524 <__bss_end__+0x96974>
    2318:	00000665 	andeq	r0, r0, r5, ror #12
    231c:	8082e48c 	addhi	lr, r2, ip, lsl #9
    2320:	06c20b02 	strbeq	r0, [r2], r2, lsl #22
    2324:	e4900000 	ldr	r0, [r0], #0
    2328:	0b028082 	bleq	a2538 <__bss_end__+0x96988>
    232c:	000006d0 	ldrdeq	r0, [r0], -r0	; <UNPREDICTABLE>
    2330:	8082e494 	umullhi	lr, r2, r4, r4
    2334:	07c90b02 	strbeq	r0, [r9, r2, lsl #22]
    2338:	e4980000 	ldr	r0, [r8], #0
    233c:	0b028082 	bleq	a254c <__bss_end__+0x9699c>
    2340:	000005b9 			; <UNDEFINED> instruction: 0x000005b9
    2344:	8082e49c 	umullhi	lr, r2, ip, r4
    2348:	05c80b02 	strbeq	r0, [r8, #2818]	; 0xb02
    234c:	e4a00000 	strt	r0, [r0], #0
    2350:	0b028082 	bleq	a2560 <__bss_end__+0x969b0>
    2354:	000006a9 	andeq	r0, r0, r9, lsr #13
    2358:	8082e4a4 	addhi	lr, r2, r4, lsr #9
    235c:	3e0c0002 	cdpcc	0, 0, cr0, cr12, cr2, {0}
    2360:	01000007 	tsteq	r0, r7
    2364:	00006821 	andeq	r6, r0, r1, lsr #16
    2368:	01f10300 	mvnseq	r0, r0, lsl #6
    236c:	700d0000 	andvc	r0, sp, r0
    2370:	21010063 	tstcs	r1, r3, rrx
    2374:	00000068 	andeq	r0, r0, r8, rrx
    2378:	0006bc0e 	andeq	fp, r6, lr, lsl #24
    237c:	68210100 	stmdavs	r1!, {r8}
    2380:	0f000000 	svceq	0x00000000
    2384:	00000639 	andeq	r0, r0, r9, lsr r6
    2388:	00682201 	rsbeq	r2, r8, r1, lsl #4
    238c:	be0f0000 	cdplt	0, 0, cr0, cr15, cr0, {0}
    2390:	01000010 	tsteq	r0, r0, lsl r0
    2394:	00006823 	andeq	r6, r0, r3, lsr #16
    2398:	ec0c0000 	stc	0, cr0, [ip], {-0}
    239c:	01000006 	tsteq	r0, r6
    23a0:	00006816 	andeq	r6, r0, r6, lsl r8
    23a4:	02550300 	subseq	r0, r5, #0, 6
    23a8:	4c0d0000 	stcmi	0, cr0, [sp], {-0}
    23ac:	68160100 	ldmdavs	r6, {r8}
    23b0:	0d000000 	stceq	0, cr0, [r0, #-0]
    23b4:	00637273 	rsbeq	r7, r3, r3, ror r2
    23b8:	00411601 	subeq	r1, r1, r1, lsl #12
    23bc:	390e0000 	stmdbcc	lr, {}	; <UNPREDICTABLE>
    23c0:	01000007 	tsteq	r0, r7
    23c4:	00004116 	andeq	r4, r0, r6, lsl r1
    23c8:	06390f00 	ldrteq	r0, [r9], -r0, lsl #30
    23cc:	17010000 	strne	r0, [r1, -r0]
    23d0:	00000068 	andeq	r0, r0, r8, rrx
    23d4:	00637010 	rsbeq	r7, r3, r0, lsl r0
    23d8:	00251801 	eoreq	r1, r5, r1, lsl #16
    23dc:	b70f0000 	strlt	r0, [pc, -r0]
    23e0:	0100000f 	tsteq	r0, pc
    23e4:	00002519 	andeq	r2, r0, r9, lsl r5
    23e8:	06bc0f00 	ldrteq	r0, [ip], r0, lsl #30
    23ec:	1a010000 	bne	423f4 <__bss_end__+0x36844>
    23f0:	0000002c 	andeq	r0, r0, ip, lsr #32
    23f4:	01007510 	tsteq	r0, r0, lsl r5
    23f8:	0000681d 	andeq	r6, r0, sp, lsl r8
    23fc:	66110000 	ldrvs	r0, [r1], -r0
    2400:	01000005 	tsteq	r0, r5
    2404:	00902c2d 	addseq	r2, r0, sp, lsr #24
    2408:	00006c00 	andeq	r6, r0, r0, lsl #24
    240c:	e09c0100 	adds	r0, ip, r0, lsl #2
    2410:	12000002 	andne	r0, r0, #2
    2414:	01006370 	tsteq	r0, r0, ror r3
    2418:	0000682d 	andeq	r6, r0, sp, lsr #16
    241c:	000a3100 	andeq	r3, sl, r0, lsl #2
    2420:	01f11300 	mvnseq	r1, r0, lsl #6
    2424:	90600000 	rsbls	r0, r0, r0
    2428:	00200000 	eoreq	r0, r0, r0
    242c:	32010000 	andcc	r0, r1, #0
    2430:	000002d6 	ldrdeq	r0, [r0], -r6
    2434:	00021514 	andeq	r1, r2, r4, lsl r5
    2438:	000a4f00 	andeq	r4, sl, r0, lsl #30
    243c:	020a1500 	andeq	r1, sl, #0, 10
    2440:	74030000 	strvc	r0, [r3], #-0
    2444:	01169f10 	tsteq	r6, r0, lsl pc
    2448:	01000002 	tsteq	r0, r2
    244c:	00906017 	addseq	r6, r0, r7, lsl r0
    2450:	00002000 	andeq	r2, r0, r0
    2454:	02201800 	eoreq	r1, r0, #0, 16
    2458:	19000000 	stmdbne	r0, {}	; <UNPREDICTABLE>
    245c:	0000022b 	andeq	r0, r0, fp, lsr #4
    2460:	00000a6f 	andeq	r0, r0, pc, ror #20
    2464:	00023519 	andeq	r3, r2, r9, lsl r5
    2468:	000a8f00 	andeq	r8, sl, r0, lsl #30
    246c:	02401900 	subeq	r1, r0, #0, 18
    2470:	0ac60000 	beq	ff182478 <__bss_end__+0xff1768c8>
    2474:	4b1a0000 	blmi	68247c <__bss_end__+0x6768cc>
    2478:	01000002 	tsteq	r0, r2
    247c:	1b000053 	blne	25d0 <__code_start__-0x5a30>
    2480:	00009044 	andeq	r9, r0, r4, asr #32
    2484:	00000b68 	andeq	r0, r0, r8, ror #22
    2488:	08581c00 	ldmdaeq	r8, {sl, fp, ip}^
    248c:	35010000 	strcc	r0, [r1, #-0]
    2490:	00009098 	muleq	r0, r8, r0
    2494:	00000054 	andeq	r0, r0, r4, asr r0
    2498:	d71d9c01 	ldrle	r9, [sp, -r1, lsl #24]
    249c:	01000005 	tsteq	r0, r5
    24a0:	00002551 	andeq	r2, r0, r1, asr r5
    24a4:	0090ec00 	addseq	lr, r0, r0, lsl #24
    24a8:	00005000 	andeq	r5, r0, r0
    24ac:	849c0100 	ldrhi	r0, [ip], #256	; 0x100
    24b0:	1e000003 	cdpne	0, 0, cr0, cr0, cr3, {0}
    24b4:	00000278 	andeq	r0, r0, r8, ror r2
    24b8:	00685101 	rsbeq	r5, r8, r1, lsl #2
    24bc:	0b0d0000 	bleq	3424c4 <__bss_end__+0x336914>
    24c0:	62120000 	andsvs	r0, r2, #0
    24c4:	68510100 	ldmdavs	r1, {r8}^
    24c8:	47000000 	strmi	r0, [r0, -r0]
    24cc:	1200000b 	andne	r0, r0, #11
    24d0:	51010065 	tstpl	r1, r5, rrx
    24d4:	00000068 	andeq	r0, r0, r8, rrx
    24d8:	00000b73 	andeq	r0, r0, r3, ror fp
    24dc:	0000bc1f 	andeq	fp, r0, pc, lsl ip
    24e0:	00039400 	andeq	r9, r3, r0, lsl #8
    24e4:	30030500 	andcc	r0, r3, r0, lsl #10
    24e8:	1b0000b1 	blne	27b4 <__code_start__-0x584c>
    24ec:	000090fc 	strdeq	r9, [r0], -ip
    24f0:	00000b73 	andeq	r0, r0, r3, ror fp
    24f4:	00911020 	addseq	r1, r1, r0, lsr #32
    24f8:	000b7a00 	andeq	r7, fp, r0, lsl #20
    24fc:	00037a00 	andeq	r7, r3, r0, lsl #20
    2500:	53012100 	movwpl	r2, #4352	; 0x1100
    2504:	21520802 	cmpcs	r2, r2, lsl #16
    2508:	03055201 	movweq	r5, #20993	; 0x5201
    250c:	0000b130 	andeq	fp, r0, r0, lsr r1
    2510:	05510121 	ldrbeq	r0, [r1, #-289]	; 0x121
    2514:	00af7003 	adceq	r7, pc, r3
    2518:	50012100 	andpl	r2, r1, r0, lsl #2
    251c:	af5c0305 	svcge	0x005c0305
    2520:	1b000000 	blne	2528 <__code_start__-0x5ad8>
    2524:	00009114 	andeq	r9, r0, r4, lsl r1
    2528:	00000b90 	muleq	r0, r0, fp
    252c:	008a0800 	addeq	r0, sl, r0, lsl #16
    2530:	03940000 	orrseq	r0, r4, #0
    2534:	81090000 	mrshi	r0, (UNDEF: 9)
    2538:	08000000 	stmdaeq	r0, {}	; <UNPREDICTABLE>
    253c:	03840700 	orreq	r0, r4, #0, 14
    2540:	35220000 	strcc	r0, [r2, #-0]!
    2544:	01000008 	tsteq	r0, r8
    2548:	00002558 	andeq	r2, r0, r8, asr r5
    254c:	00913c00 	addseq	r3, r1, r0, lsl #24
    2550:	00006400 	andeq	r6, r0, r0, lsl #8
    2554:	e59c0100 	ldr	r0, [ip, #256]	; 0x100
    2558:	12000003 	andne	r0, r0, #3
    255c:	01006370 	tsteq	r0, r0, ror r3
    2560:	00006858 	andeq	r6, r0, r8, asr r8
    2564:	000b9f00 	andeq	r9, fp, r0, lsl #30
    2568:	91582000 	cmpls	r8, r0
    256c:	02f10000 	rscseq	r0, r1, #0
    2570:	03d40000 	bicseq	r0, r4, #0
    2574:	01210000 	teqeq	r1, r0
    2578:	00740250 	rsbseq	r0, r4, r0, asr r2
    257c:	91782300 	cmnls	r8, r0, lsl #6
    2580:	02f10000 	rscseq	r0, r1, #0
    2584:	01210000 	teqeq	r1, r0
    2588:	00740250 	rsbseq	r0, r4, r0, asr r2
    258c:	00220000 	eoreq	r0, r2, r0
    2590:	01000000 	mrseq	r0, (UNDEF: 0)
    2594:	00002c65 	andeq	r2, r0, r5, ror #24
    2598:	0091a000 	addseq	sl, r1, r0
    259c:	00005800 	andeq	r5, r0, r0, lsl #16
    25a0:	4c9c0100 	ldfmis	f0, [ip], {0}
    25a4:	1e000004 	cdpne	0, 0, cr0, cr0, cr4, {0}
    25a8:	00000773 	andeq	r0, r0, r3, ror r7
    25ac:	00256501 	eoreq	r6, r5, r1, lsl #10
    25b0:	0bbd0000 	bleq	fef425b8 <__bss_end__+0xfef36a08>
    25b4:	73240000 	teqvc	r4, #0
    25b8:	2c660100 	stfcse	f0, [r6], #-0
    25bc:	db000000 	blle	25c4 <__code_start__-0x5a3c>
    25c0:	2500000b 	strcs	r0, [r0, #-11]
    25c4:	66010063 	strvs	r0, [r1], -r3, rrx
    25c8:	0000002c 	andeq	r0, r0, ip, lsr #32
    25cc:	6e245401 	cdpvs	4, 2, cr5, cr4, cr1, {0}
    25d0:	2c660100 	stfcse	f0, [r6], #-0
    25d4:	ee000000 	cdp	0, 0, cr0, cr0, cr0, {0}
    25d8:	2300000b 	movwcs	r0, #11
    25dc:	000091c8 	andeq	r9, r0, r8, asr #3
    25e0:	00000b7a 	andeq	r0, r0, sl, ror fp
    25e4:	02520121 	subseq	r0, r2, #1073741832	; 0x40000008
    25e8:	01210074 	teqeq	r1, r4, ror r0
    25ec:	80030550 	andhi	r0, r3, r0, asr r5
    25f0:	000000af 	andeq	r0, r0, pc, lsr #1
    25f4:	08731100 	ldmdaeq	r3!, {r8, ip}^
    25f8:	71010000 	mrsvc	r0, (UNDEF: 1)
    25fc:	000091f8 	strdeq	r9, [r0], -r8
    2600:	00000098 	muleq	r0, r8, r0
    2604:	04ef9c01 	strbteq	r9, [pc], #3073	; 260c <__code_start__-0x59f4>
    2608:	70120000 	andsvc	r0, r2, r0
    260c:	71010063 	tstvc	r1, r3, rrx
    2610:	00000068 	andeq	r0, r0, r8, rrx
    2614:	00000c11 	andeq	r0, r0, r1, lsl ip
    2618:	0000bc1f 	andeq	fp, r0, pc, lsl ip
    261c:	0004ff00 	andeq	pc, r4, r0, lsl #30
    2620:	3c030500 	cfstr32cc	mvfx0, [r3], {-0}
    2624:	1b0000b1 	blne	28f0 <__code_start__-0x5710>
    2628:	00009204 	andeq	r9, r0, r4, lsl #4
    262c:	00000b97 	muleq	r0, r7, fp
    2630:	00920c20 	addseq	r0, r2, r0, lsr #24
    2634:	00039900 	andeq	r9, r3, r0, lsl #18
    2638:	00049b00 	andeq	r9, r4, r0, lsl #22
    263c:	50012100 	andpl	r2, r1, r0, lsl #2
    2640:	00007402 	andeq	r7, r0, r2, lsl #8
    2644:	0092281b 	addseq	r2, r2, fp, lsl r8
    2648:	000b6800 	andeq	r6, fp, r0, lsl #16
    264c:	92341b00 	eorsls	r1, r4, #0, 22
    2650:	0b730000 	bleq	1cc2658 <__bss_end__+0x1cb6aa8>
    2654:	48200000 	stmdami	r0!, {}	; <UNPREDICTABLE>
    2658:	7a000092 	bvc	28a8 <__code_start__-0x5758>
    265c:	dc00000b 	stcle	0, cr0, [r0], {11}
    2660:	21000004 	tstcs	r0, r4
    2664:	08025301 	stmdaeq	r2, {r0, r8, r9, ip, lr}
    2668:	52012178 	andpl	r2, r1, #120, 2
    266c:	b13c0305 	teqlt	ip, r5, lsl #6
    2670:	01210000 	teqeq	r1, r0
    2674:	70030551 	andvc	r0, r3, r1, asr r5
    2678:	210000af 	smlatbcs	r0, pc, r0, r0	; <UNPREDICTABLE>
    267c:	03055001 	movweq	r5, #20481	; 0x5001
    2680:	0000afc0 	andeq	sl, r0, r0, asr #31
    2684:	924c1b00 	subls	r1, ip, #0, 22
    2688:	0b900000 	bleq	fe402690 <__bss_end__+0xfe3f6ae0>
    268c:	741b0000 	ldrvc	r0, [fp], #-0
    2690:	97000092 			; <UNDEFINED> instruction: 0x97000092
    2694:	0000000b 	andeq	r0, r0, fp
    2698:	00008a08 	andeq	r8, r0, r8, lsl #20
    269c:	0004ff00 	andeq	pc, r4, r0, lsl #30
    26a0:	00810900 	addeq	r0, r1, r0, lsl #18
    26a4:	00100000 	andseq	r0, r0, r0
    26a8:	0004ef07 	andeq	lr, r4, r7, lsl #30
    26ac:	078f2200 	streq	r2, [pc, r0, lsl #4]
    26b0:	85010000 	strhi	r0, [r1, #-0]
    26b4:	00000025 	andeq	r0, r0, r5, lsr #32
    26b8:	00009290 	muleq	r0, r0, r2
    26bc:	00000058 	andeq	r0, r0, r8, asr r0
    26c0:	05409c01 	strbeq	r9, [r0, #-3073]	; 0xc01
    26c4:	f31e0000 	vhadd.u16	d0, d14, d0
    26c8:	01000006 	tsteq	r0, r6
    26cc:	00002c85 	andeq	r2, r0, r5, lsl #25
    26d0:	000c2f00 	andeq	r2, ip, r0, lsl #30
    26d4:	00482600 	subeq	r2, r8, r0, lsl #12
    26d8:	6a240000 	bvs	9026e0 <__bss_end__+0x8f6b30>
    26dc:	25860100 	strcs	r0, [r6, #256]	; 0x100
    26e0:	69000000 	stmdbvs	r0, {}	; <UNPREDICTABLE>
    26e4:	0000000c 	andeq	r0, r0, ip
    26e8:	07db1100 	ldrbeq	r1, [fp, r0, lsl #2]
    26ec:	95010000 	strls	r0, [r1, #-0]
    26f0:	000092e8 	andeq	r9, r0, r8, ror #5
    26f4:	000000e0 	andeq	r0, r0, r0, ror #1
    26f8:	06179c01 	ldreq	r9, [r7], -r1, lsl #24
    26fc:	70120000 	andsvc	r0, r2, r0
    2700:	95010063 	strls	r0, [r1, #-99]	; 0x63
    2704:	00000068 	andeq	r0, r0, r8, rrx
    2708:	00000c93 	muleq	r0, r3, ip
    270c:	0000bc1f 	andeq	fp, r0, pc, lsl ip
    2710:	00061700 	andeq	r1, r6, r0, lsl #14
    2714:	50030500 	andpl	r0, r3, r0, lsl #10
    2718:	270000b1 			; <UNDEFINED> instruction: 0x270000b1
    271c:	000092f4 	strdeq	r9, [r0], -r4
    2720:	00000044 	andeq	r0, r0, r4, asr #32
    2724:	000005a6 	andeq	r0, r0, r6, lsr #11
    2728:	01006924 	tsteq	r0, r4, lsr #18
    272c:	0000259a 	muleq	r0, sl, r5
    2730:	000cb100 	andeq	fp, ip, r0, lsl #2
    2734:	93181b00 	tstls	r8, #0, 22
    2738:	05040000 	streq	r0, [r4, #-0]
    273c:	28230000 	stmdacs	r3!, {}	; <UNPREDICTABLE>
    2740:	55000093 	strpl	r0, [r0, #-147]	; 0x93
    2744:	21000002 	tstcs	r0, r2
    2748:	75025001 	strvc	r5, [r2, #-1]
    274c:	1b000000 	blne	2754 <__code_start__-0x58ac>
    2750:	000092f4 	strdeq	r9, [r0], -r4
    2754:	00000b97 	muleq	r0, r7, fp
    2758:	00934020 	addseq	r4, r3, r0, lsr #32
    275c:	00039900 	andeq	r9, r3, r0, lsl #18
    2760:	0005c300 	andeq	ip, r5, r0, lsl #6
    2764:	50012100 	andpl	r2, r1, r0, lsl #2
    2768:	00007502 	andeq	r7, r0, r2, lsl #10
    276c:	00935c1b 	addseq	r5, r3, fp, lsl ip
    2770:	000b6800 	andeq	r6, fp, r0, lsl #16
    2774:	93681b00 	cmnls	r8, #0, 22
    2778:	0b730000 	bleq	1cc2780 <__bss_end__+0x1cb6bd0>
    277c:	7c200000 	stcvc	0, cr0, [r0], #-0
    2780:	7a000093 	bvc	29d4 <__code_start__-0x562c>
    2784:	0400000b 	streq	r0, [r0], #-11
    2788:	21000006 	tstcs	r0, r6
    278c:	08025301 	stmdaeq	r2, {r0, r8, r9, ip, lr}
    2790:	520121a8 	andpl	r2, r1, #168, 2	; 0x2a
    2794:	b1500305 	cmplt	r0, r5, lsl #6
    2798:	01210000 	teqeq	r1, r0
    279c:	70030551 	andvc	r0, r3, r1, asr r5
    27a0:	210000af 	smlatbcs	r0, pc, r0, r0	; <UNPREDICTABLE>
    27a4:	03055001 	movweq	r5, #20481	; 0x5001
    27a8:	0000afc0 	andeq	sl, r0, r0, asr #31
    27ac:	93801b00 	orrls	r1, r0, #0, 22
    27b0:	0b900000 	bleq	fe4027b8 <__bss_end__+0xfe3f6c08>
    27b4:	a81b0000 	ldmdage	fp, {}	; <UNPREDICTABLE>
    27b8:	97000093 			; <UNDEFINED> instruction: 0x97000093
    27bc:	0000000b 	andeq	r0, r0, fp
    27c0:	00009c07 	andeq	r9, r0, r7, lsl #24
    27c4:	00851100 	addeq	r1, r5, r0, lsl #2
    27c8:	b6010000 	strlt	r0, [r1], -r0
    27cc:	000093c8 	andeq	r9, r0, r8, asr #7
    27d0:	0000015c 	andeq	r0, r0, ip, asr r1
    27d4:	07979c01 	ldreq	r9, [r7, r1, lsl #24]
    27d8:	bc1f0000 	ldclt	0, cr0, [pc], {-0}
    27dc:	a7000000 	strge	r0, [r0, -r0]
    27e0:	05000007 	streq	r0, [r0, #-7]
    27e4:	00b16c03 	adcseq	r6, r1, r3, lsl #24
    27e8:	93e01b00 	mvnls	r1, #0, 22
    27ec:	0b730000 	bleq	1cc27f4 <__bss_end__+0x1cb6c44>
    27f0:	f4200000 	vld4.8	{d0-d3}, [r0], r0
    27f4:	7a000093 	bvc	2a48 <__code_start__-0x55b8>
    27f8:	7800000b 	stmdavc	r0, {r0, r1, r3}
    27fc:	21000006 	tstcs	r0, r6
    2800:	08025301 	stmdaeq	r2, {r0, r8, r9, ip, lr}
    2804:	520121b7 	andpl	r2, r1, #-1073741779	; 0xc000002d
    2808:	b16c0305 	cmnlt	ip, r5, lsl #6
    280c:	01210000 	teqeq	r1, r0
    2810:	70030551 	andvc	r0, r3, r1, asr r5
    2814:	210000af 	smlatbcs	r0, pc, r0, r0	; <UNPREDICTABLE>
    2818:	03055001 	movweq	r5, #20481	; 0x5001
    281c:	0000afdc 	ldrdeq	sl, [r0], -ip
    2820:	93f81b00 	mvnsls	r1, #0, 22
    2824:	0b900000 	bleq	fe40282c <__bss_end__+0xfe3f6c7c>
    2828:	1c1b0000 	ldcne	0, cr0, [fp], {-0}
    282c:	f1000094 	cps	#20
    2830:	1b000002 	blne	2840 <__code_start__-0x57c0>
    2834:	00009428 	andeq	r9, r0, r8, lsr #8
    2838:	00000b73 	andeq	r0, r0, r3, ror fp
    283c:	00943c20 	addseq	r3, r4, r0, lsr #24
    2840:	000b7a00 	andeq	r7, fp, r0, lsl #20
    2844:	0006c200 	andeq	ip, r6, r0, lsl #4
    2848:	53012100 	movwpl	r2, #4352	; 0x1100
    284c:	21ba0802 			; <UNDEFINED> instruction: 0x21ba0802
    2850:	03055201 	movweq	r5, #20993	; 0x5201
    2854:	0000b16c 	andeq	fp, r0, ip, ror #2
    2858:	05510121 	ldrbeq	r0, [r1, #-289]	; 0x121
    285c:	00af7003 	adceq	r7, pc, r3
    2860:	50012100 	andpl	r2, r1, r0, lsl #2
    2864:	aff40305 	svcge	0x00f40305
    2868:	1b000000 	blne	2870 <__code_start__-0x5790>
    286c:	00009440 	andeq	r9, r0, r0, asr #8
    2870:	00000b90 	muleq	r0, r0, fp
    2874:	0094581b 	addseq	r5, r4, fp, lsl r8
    2878:	0002f100 	andeq	pc, r2, r0, lsl #2
    287c:	94641b00 	strbtls	r1, [r4], #-2816	; 0xb00
    2880:	0b730000 	bleq	1cc2888 <__bss_end__+0x1cb6cd8>
    2884:	78200000 	stmdavc	r0!, {}	; <UNPREDICTABLE>
    2888:	7a000094 	bvc	2ae0 <__code_start__-0x5520>
    288c:	0c00000b 	stceq	0, cr0, [r0], {11}
    2890:	21000007 	tstcs	r0, r7
    2894:	08025301 	stmdaeq	r2, {r0, r8, r9, ip, lr}
    2898:	520121bb 	andpl	r2, r1, #-1073741778	; 0xc000002e
    289c:	b16c0305 	cmnlt	ip, r5, lsl #6
    28a0:	01210000 	teqeq	r1, r0
    28a4:	70030551 	andvc	r0, r3, r1, asr r5
    28a8:	210000af 	smlatbcs	r0, pc, r0, r0	; <UNPREDICTABLE>
    28ac:	03055001 	movweq	r5, #20481	; 0x5001
    28b0:	0000b03c 	andeq	fp, r0, ip, lsr r0
    28b4:	947c1b00 	ldrbtls	r1, [ip], #-2816	; 0xb00
    28b8:	0b900000 	bleq	fe4028c0 <__bss_end__+0xfe3f6d10>
    28bc:	941b0000 	ldrls	r0, [fp], #-0
    28c0:	f1000094 	cps	#20
    28c4:	1b000002 	blne	28d4 <__code_start__-0x572c>
    28c8:	000094a0 	andeq	r9, r0, r0, lsr #9
    28cc:	00000b73 	andeq	r0, r0, r3, ror fp
    28d0:	0094b420 	addseq	fp, r4, r0, lsr #8
    28d4:	000b7a00 	andeq	r7, fp, r0, lsl #20
    28d8:	00075600 	andeq	r5, r7, r0, lsl #12
    28dc:	53012100 	movwpl	r2, #4352	; 0x1100
    28e0:	21bc0802 			; <UNDEFINED> instruction: 0x21bc0802
    28e4:	03055201 	movweq	r5, #20993	; 0x5201
    28e8:	0000b16c 	andeq	fp, r0, ip, ror #2
    28ec:	05510121 	ldrbeq	r0, [r1, #-289]	; 0x121
    28f0:	00af7003 	adceq	r7, pc, r3
    28f4:	50012100 	andpl	r2, r1, r0, lsl #2
    28f8:	b0840305 	addlt	r0, r4, r5, lsl #6
    28fc:	1b000000 	blne	2904 <__code_start__-0x56fc>
    2900:	000094b8 			; <UNDEFINED> instruction: 0x000094b8
    2904:	00000b90 	muleq	r0, r0, fp
    2908:	0094bc1b 	addseq	fp, r4, fp, lsl ip
    290c:	0002e000 	andeq	lr, r2, r0
    2910:	94cc1b00 	strbls	r1, [ip], #2816	; 0xb00
    2914:	0b9e0000 	bleq	fe78291c <__bss_end__+0xfe776d6c>
    2918:	d81b0000 	ldmdale	fp, {}	; <UNPREDICTABLE>
    291c:	b3000094 	movwlt	r0, #148	; 0x94
    2920:	2000000b 	andcs	r0, r0, fp
    2924:	000094e0 	andeq	r9, r0, r0, ror #9
    2928:	00000bba 			; <UNDEFINED> instruction: 0x00000bba
    292c:	0000078d 	andeq	r0, r0, sp, lsl #15
    2930:	01500121 	cmpeq	r0, r1, lsr #2
    2934:	e41b0032 	ldr	r0, [fp], #-50	; 0x32
    2938:	cb000094 	blgt	2b90 <__code_start__-0x5470>
    293c:	0000000b 	andeq	r0, r0, fp
    2940:	00008a08 	andeq	r8, r0, r8, lsl #20
    2944:	0007a700 	andeq	sl, r7, r0, lsl #14
    2948:	00810900 	addeq	r0, r1, r0, lsl #18
    294c:	000b0000 	andeq	r0, fp, r0
    2950:	00079707 	andeq	r9, r7, r7, lsl #14
    2954:	00ab1100 	adceq	r1, fp, r0, lsl #2
    2958:	c9010000 	stmdbgt	r1, {}	; <UNPREDICTABLE>
    295c:	00009524 	andeq	r9, r0, r4, lsr #10
    2960:	00000050 	andeq	r0, r0, r0, asr r0
    2964:	08309c01 	ldmdaeq	r0!, {r0, sl, fp, ip, pc}
    2968:	9b1e0000 	blls	782970 <__bss_end__+0x776dc0>
    296c:	01000003 	tsteq	r0, r3
    2970:	000088c9 	andeq	r8, r0, r9, asr #17
    2974:	000cd000 	andeq	sp, ip, r0
    2978:	6e651200 	cdpvs	2, 6, cr1, cr5, cr0, {0}
    297c:	c9010064 	stmdbgt	r1, {r2, r5, r6}
    2980:	00000088 	andeq	r0, r0, r8, lsl #1
    2984:	00000cfc 	strdeq	r0, [r0], -ip
    2988:	0000bc1f 	andeq	fp, r0, pc, lsl ip
    298c:	00083000 	andeq	r3, r8, r0
    2990:	78030500 	stmdavc	r3, {r8, sl}
    2994:	1b0000b1 	blne	2c60 <__code_start__-0x53a0>
    2998:	00009534 	andeq	r9, r0, r4, lsr r5
    299c:	00000b73 	andeq	r0, r0, r3, ror fp
    29a0:	00954820 	addseq	r4, r5, r0, lsr #16
    29a4:	000b7a00 	andeq	r7, fp, r0, lsl #20
    29a8:	00082600 	andeq	r2, r8, r0, lsl #12
    29ac:	53012100 	movwpl	r2, #4352	; 0x1100
    29b0:	21ca0802 	biccs	r0, sl, r2, lsl #16
    29b4:	03055201 	movweq	r5, #20993	; 0x5201
    29b8:	0000b178 	andeq	fp, r0, r8, ror r1
    29bc:	05510121 	ldrbeq	r0, [r1, #-289]	; 0x121
    29c0:	00af7003 	adceq	r7, pc, r3
    29c4:	50012100 	andpl	r2, r1, r0, lsl #2
    29c8:	b0cc0305 	sbclt	r0, ip, r5, lsl #6
    29cc:	1b000000 	blne	29d4 <__code_start__-0x562c>
    29d0:	0000954c 	andeq	r9, r0, ip, asr #10
    29d4:	00000b90 	muleq	r0, r0, fp
    29d8:	04ef0700 	strbteq	r0, [pc], #1792	; 29e0 <__code_start__-0x5620>
    29dc:	1a110000 	bne	4429e4 <__bss_end__+0x436e34>
    29e0:	01000002 	tsteq	r0, r2
    29e4:	009574d0 			; <UNDEFINED> instruction: 0x009574d0
    29e8:	00008400 	andeq	r8, r0, r0, lsl #8
    29ec:	a49c0100 	ldrge	r0, [ip], #256	; 0x100
    29f0:	1f000008 	svcne	0x00000008
    29f4:	000000bc 	strheq	r0, [r0], -ip
    29f8:	000008b4 			; <UNDEFINED> instruction: 0x000008b4
    29fc:	b18c0305 	orrlt	r0, ip, r5, lsl #6
    2a00:	b81b0000 	ldmdalt	fp, {}	; <UNPREDICTABLE>
    2a04:	73000095 	movwvc	r0, #149	; 0x95
    2a08:	2000000b 	andcs	r0, r0, fp
    2a0c:	000095cc 	andeq	r9, r0, ip, asr #11
    2a10:	00000b7a 	andeq	r0, r0, sl, ror fp
    2a14:	00000891 	muleq	r0, r1, r8
    2a18:	02530121 	subseq	r0, r3, #1073741832	; 0x40000008
    2a1c:	0121d108 	teqeq	r1, r8, lsl #2
    2a20:	8c030552 	cfstr32hi	mvfx0, [r3], {82}	; 0x52
    2a24:	210000b1 	strhcs	r0, [r0, -r1]
    2a28:	03055101 	movweq	r5, #20737	; 0x5101
    2a2c:	0000af70 	andeq	sl, r0, r0, ror pc
    2a30:	05500121 	ldrbeq	r0, [r0, #-289]	; 0x121
    2a34:	00b0e803 	adcseq	lr, r0, r3, lsl #16
    2a38:	d01b0000 	andsle	r0, fp, r0
    2a3c:	90000095 	mulls	r0, r5, r0
    2a40:	1b00000b 	blne	2a74 <__code_start__-0x558c>
    2a44:	000095e0 	andeq	r9, r0, r0, ror #11
    2a48:	00000bcb 	andeq	r0, r0, fp, asr #23
    2a4c:	008a0800 	addeq	r0, sl, r0, lsl #16
    2a50:	08b40000 	ldmeq	r4!, {}	; <UNPREDICTABLE>
    2a54:	81090000 	mrshi	r0, (UNDEF: 9)
    2a58:	09000000 	stmdbeq	r0, {}	; <UNPREDICTABLE>
    2a5c:	08a40700 	stmiaeq	r4!, {r8, r9, sl}
    2a60:	15110000 	ldrne	r0, [r1, #-0]
    2a64:	01000000 	mrseq	r0, (UNDEF: 0)
    2a68:	0095f8d8 			; <UNDEFINED> instruction: 0x0095f8d8
    2a6c:	00008000 	andeq	r8, r0, r0
    2a70:	289c0100 	ldmcs	ip, {r8}
    2a74:	1f000009 	svcne	0x00000009
    2a78:	000000bc 	strheq	r0, [r0], -ip
    2a7c:	00000938 	andeq	r0, r0, r8, lsr r9
    2a80:	b1980305 	orrslt	r0, r8, r5, lsl #6
    2a84:	381b0000 	ldmdacc	fp, {}	; <UNPREDICTABLE>
    2a88:	73000096 	movwvc	r0, #150	; 0x96
    2a8c:	2000000b 	andcs	r0, r0, fp
    2a90:	0000964c 	andeq	r9, r0, ip, asr #12
    2a94:	00000b7a 	andeq	r0, r0, sl, ror fp
    2a98:	00000915 	andeq	r0, r0, r5, lsl r9
    2a9c:	02530121 	subseq	r0, r3, #1073741832	; 0x40000008
    2aa0:	0121d908 	teqeq	r1, r8, lsl #18
    2aa4:	98030552 	stmdals	r3, {r1, r4, r6, r8, sl}
    2aa8:	210000b1 	strhcs	r0, [r0, -r1]
    2aac:	03055101 	movweq	r5, #20737	; 0x5101
    2ab0:	0000af70 	andeq	sl, r0, r0, ror pc
    2ab4:	05500121 	ldrbeq	r0, [r0, #-289]	; 0x121
    2ab8:	00b10c03 	adcseq	r0, r1, r3, lsl #24
    2abc:	501b0000 	andspl	r0, fp, r0
    2ac0:	90000096 	mulls	r0, r6, r0
    2ac4:	1b00000b 	blne	2af8 <__code_start__-0x5508>
    2ac8:	00009654 	andeq	r9, r0, r4, asr r6
    2acc:	00000bd2 	ldrdeq	r0, [r0], -r2
    2ad0:	008a0800 	addeq	r0, sl, r0, lsl #16
    2ad4:	09380000 	ldmdbeq	r8!, {}	; <UNPREDICTABLE>
    2ad8:	81090000 	mrshi	r0, (UNDEF: 9)
    2adc:	0a000000 	beq	2ae4 <__code_start__-0x551c>
    2ae0:	09280700 	stmdbeq	r8!, {r8, r9, sl}
    2ae4:	b8110000 	ldmdalt	r1, {}	; <UNPREDICTABLE>
    2ae8:	0100000b 	tsteq	r0, fp
    2aec:	009678fb 			; <UNDEFINED> instruction: 0x009678fb
    2af0:	00009c00 	andeq	r9, r0, r0, lsl #24
    2af4:	f29c0100 	vaddw.s16	q0, q6, d0
    2af8:	12000009 	andne	r0, r0, #9
    2afc:	01006370 	tsteq	r0, r0, ror r3
    2b00:	00002cfb 	strdeq	r2, [r0], -fp
    2b04:	000d2800 	andeq	r2, sp, r0, lsl #16
    2b08:	07c12800 	strbeq	r2, [r1, r0, lsl #16]
    2b0c:	fd010000 	stc2	0, cr0, [r1, #-0]
    2b10:	0000002c 	andeq	r0, r0, ip, lsr #32
    2b14:	00000d46 	andeq	r0, r0, r6, asr #26
    2b18:	00084729 	andeq	r4, r8, r9, lsr #14
    2b1c:	01200100 	teqeq	r0, r0, lsl #2
    2b20:	0000002c 	andeq	r0, r0, ip, lsr #32
    2b24:	b7a80305 	strlt	r0, [r8, r5, lsl #6]!
    2b28:	632a0000 	teqvs	sl, #0
    2b2c:	01006b6c 	tsteq	r0, ip, ror #22
    2b30:	002c0121 	eoreq	r0, ip, r1, lsr #2
    2b34:	50010000 	andpl	r0, r1, r0
    2b38:	0096841b 	addseq	r8, r6, fp, lsl r4
    2b3c:	000b9700 	andeq	r9, fp, r0, lsl #14
    2b40:	968c2000 	strls	r2, [ip], r0
    2b44:	0bd90000 	bleq	ff642b4c <__bss_end__+0xff636f9c>
    2b48:	09af0000 	stmibeq	pc!, {}	; <UNPREDICTABLE>
    2b4c:	01210000 	teqeq	r1, r0
    2b50:	000c0550 	andeq	r0, ip, r0, asr r5
    2b54:	002000b2 	strhteq	r0, [r0], -r2
    2b58:	0096a020 	addseq	sl, r6, r0, lsr #32
    2b5c:	000bee00 	andeq	lr, fp, r0, lsl #28
    2b60:	0009cb00 	andeq	ip, r9, r0, lsl #22
    2b64:	51012100 	mrspl	r2, (UNDEF: 17)
    2b68:	01213101 	teqeq	r1, r1, lsl #2
    2b6c:	0c0c0550 	cfstr32eq	mvfx0, [ip], {80}	; 0x50
    2b70:	002000b4 	strhteq	r0, [r0], -r4
    2b74:	0096a41b 	addseq	sl, r6, fp, lsl r4
    2b78:	000b9700 	andeq	r9, fp, r0, lsl #14
    2b7c:	96bc2000 	ldrtls	r2, [ip], r0
    2b80:	05400000 	strbeq	r0, [r0, #-0]
    2b84:	09e80000 	stmibeq	r8!, {}^	; <UNPREDICTABLE>
    2b88:	01210000 	teqeq	r1, r0
    2b8c:	00740250 	rsbseq	r0, r4, r0, asr r2
    2b90:	96c01b00 	strbls	r1, [r0], r0, lsl #22
    2b94:	0c040000 	stceq	0, cr0, [r4], {-0}
    2b98:	08000000 	stmdaeq	r0, {}	; <UNPREDICTABLE>
    2b9c:	0000002c 	andeq	r0, r0, ip, lsr #32
    2ba0:	00000a02 	andeq	r0, r0, r2, lsl #20
    2ba4:	00008109 	andeq	r8, r0, r9, lsl #2
    2ba8:	2b000600 	blcs	43b0 <__code_start__-0x3c50>
    2bac:	000005a5 	andeq	r0, r0, r5, lsr #11
    2bb0:	0a130701 	beq	4c47bc <__bss_end__+0x4b8c0c>
    2bb4:	03050000 	movweq	r0, #20480	; 0x5000
    2bb8:	0000b738 	andeq	fp, r0, r8, lsr r7
    2bbc:	0009f22c 	andeq	pc, r9, ip, lsr #4
    2bc0:	07082b00 	streq	r2, [r8, -r0, lsl #22]
    2bc4:	08010000 	stmdaeq	r1, {}	; <UNPREDICTABLE>
    2bc8:	00000a29 	andeq	r0, r0, r9, lsr #20
    2bcc:	b7540305 	ldrblt	r0, [r4, -r5, lsl #6]
    2bd0:	f22c0000 	vhadd.s32	d0, d12, d0
    2bd4:	08000009 	stmdaeq	r0, {r0, r3}
    2bd8:	0000002c 	andeq	r0, r0, ip, lsr #32
    2bdc:	00000a3e 	andeq	r0, r0, lr, lsr sl
    2be0:	00008109 	andeq	r8, r0, r9, lsl #2
    2be4:	2b000400 	blcs	3bec <__code_start__-0x4414>
    2be8:	0000056f 	andeq	r0, r0, pc, ror #10
    2bec:	0a4f0901 	beq	13c4ff8 <__bss_end__+0x13b9448>
    2bf0:	03050000 	movweq	r0, #20480	; 0x5000
    2bf4:	0000b770 	andeq	fp, r0, r0, ror r7
    2bf8:	000a2e2c 	andeq	r2, sl, ip, lsr #28
    2bfc:	075c2b00 	ldrbeq	r2, [ip, -r0, lsl #22]
    2c00:	0a010000 	beq	42c08 <__bss_end__+0x37058>
    2c04:	00000a65 	andeq	r0, r0, r5, ror #20
    2c08:	b7840305 	strlt	r0, [r4, r5, lsl #6]
    2c0c:	04060000 	streq	r0, [r6], #-0
    2c10:	00000a6b 	andeq	r0, r0, fp, ror #20
    2c14:	00002c2c 	andeq	r2, r0, ip, lsr #24
    2c18:	057f2b00 	ldrbeq	r2, [pc, #-2816]!	; 2120 <__code_start__-0x5ee0>
    2c1c:	0b010000 	bleq	42c24 <__bss_end__+0x37074>
    2c20:	00000a81 	andeq	r0, r0, r1, lsl #21
    2c24:	b7880305 	strlt	r0, [r8, r5, lsl #6]
    2c28:	252c0000 	strcs	r0, [ip, #-0]!
    2c2c:	2b000000 	blcs	2c34 <__code_start__-0x53cc>
    2c30:	00000615 	andeq	r0, r0, r5, lsl r6
    2c34:	0a811101 	beq	fe047040 <__bss_end__+0xfe03b490>
    2c38:	03050000 	movweq	r0, #20480	; 0x5000
    2c3c:	0000b78c 	andeq	fp, r0, ip, lsl #15
    2c40:	0008a42b 	andeq	sl, r8, fp, lsr #8
    2c44:	81110100 	tsthi	r1, r0, lsl #2
    2c48:	0500000a 	streq	r0, [r0, #-10]
    2c4c:	00b79003 	adcseq	r9, r7, r3
    2c50:	6e632500 	cdpvs	5, 6, cr2, cr3, cr0, {0}
    2c54:	12010074 	andne	r0, r1, #116	; 0x74
    2c58:	00000a6b 	andeq	r0, r0, fp, ror #20
    2c5c:	b7940305 	ldrlt	r0, [r4, r5, lsl #6]
    2c60:	9e2b0000 	cdpls	0, 2, cr0, cr11, cr0, {0}
    2c64:	01000005 	tsteq	r0, r5
    2c68:	000a6b12 	andeq	r6, sl, r2, lsl fp
    2c6c:	98030500 	stmdals	r3, {r8, sl}
    2c70:	2b0000b7 	blcs	2f54 <__code_start__-0x50ac>
    2c74:	0000061c 	andeq	r0, r0, ip, lsl r6
    2c78:	0a6b1201 	beq	1ac7484 <__bss_end__+0x1abb8d4>
    2c7c:	03050000 	movweq	r0, #20480	; 0x5000
    2c80:	0000b79c 	muleq	r0, ip, r7
    2c84:	0006fc2b 	andeq	pc, r6, fp, lsr #24
    2c88:	684b0100 	stmdavs	fp, {r8}^
    2c8c:	05000000 	streq	r0, [r0, #-0]
    2c90:	00a6fc03 	adceq	pc, r6, r3, lsl #24
    2c94:	07522b00 	ldrbeq	r2, [r2, -r0, lsl #22]
    2c98:	4c010000 	stcmi	0, cr0, [r1], {-0}
    2c9c:	00000068 	andeq	r0, r0, r8, rrx
    2ca0:	a7000305 	strge	r0, [r0, -r5, lsl #6]
    2ca4:	812b0000 	teqhi	fp, r0
    2ca8:	01000007 	tsteq	r0, r7
    2cac:	0000684e 	andeq	r6, r0, lr, asr #16
    2cb0:	04030500 	streq	r0, [r3], #-1280	; 0x500
    2cb4:	2b0000a7 	blcs	2f58 <__code_start__-0x50a8>
    2cb8:	00000767 	andeq	r0, r0, r7, ror #14
    2cbc:	00684f01 	rsbeq	r4, r8, r1, lsl #30
    2cc0:	03050000 	movweq	r0, #20480	; 0x5000
    2cc4:	0000a708 	andeq	sl, r0, r8, lsl #14
    2cc8:	0008502b 	andeq	r5, r8, fp, lsr #32
    2ccc:	6b630100 	blvs	18c30d4 <__bss_end__+0x18b7524>
    2cd0:	0500000a 	streq	r0, [r0, #-10]
    2cd4:	00b7a003 	adcseq	sl, r7, r3
    2cd8:	06852b00 	streq	r2, [r5], r0, lsl #22
    2cdc:	63010000 	movwvs	r0, #4096	; 0x1000
    2ce0:	00000a6b 	andeq	r0, r0, fp, ror #20
    2ce4:	b7a40305 	strlt	r0, [r4, r5, lsl #6]!
    2ce8:	172d0000 	strne	r0, [sp, -r0]!
    2cec:	06000008 	streq	r0, [r0], -r8
    2cf0:	00008a0b 	andeq	r8, r0, fp, lsl #20
    2cf4:	07452d00 	strbeq	r2, [r5, -r0, lsl #26]
    2cf8:	0c060000 	stceq	0, cr0, [r6], {-0}
    2cfc:	0000008a 	andeq	r0, r0, sl, lsl #1
    2d00:	0005e02e 	andeq	lr, r5, lr, lsr #32
    2d04:	2c140100 	ldfcss	f0, [r4], {-0}
    2d08:	05000000 	streq	r0, [r0, #-0]
    2d0c:	00a6f803 	adceq	pc, r6, r3, lsl #16
    2d10:	004a2f00 	subeq	r2, sl, r0, lsl #30
    2d14:	1e090000 	cdpne	0, 0, cr0, cr9, cr0, {0}
    2d18:	00000025 	andeq	r0, r0, r5, lsr #32
    2d1c:	00022430 	andeq	r2, r2, r0, lsr r4
    2d20:	311e0700 	tstcc	lr, r0, lsl #14
    2d24:	000009a1 	andeq	r0, r0, r1, lsr #19
    2d28:	00252907 	eoreq	r2, r5, r7, lsl #18
    2d2c:	0b900000 	bleq	fe402d34 <__bss_end__+0xfe3f7184>
    2d30:	91320000 	teqls	r2, r0
    2d34:	33000000 	movwcc	r0, #0
    2d38:	00723000 	rsbseq	r3, r2, r0
    2d3c:	65070000 	strvs	r0, [r7, #-0]
    2d40:	0002f030 	andeq	pc, r2, r0, lsr r0	; <UNPREDICTABLE>
    2d44:	31890700 	orrcc	r0, r9, r0, lsl #14
    2d48:	00000091 	muleq	r0, r1, r0
    2d4c:	00886c07 	addeq	r6, r8, r7, lsl #24
    2d50:	0bb30000 	bleq	fecc2d58 <__bss_end__+0xfecb71a8>
    2d54:	2c320000 	ldccs	0, cr0, [r2], #-0
    2d58:	00000000 	andeq	r0, r0, r0
    2d5c:	00073030 	andeq	r3, r7, r0, lsr r0
    2d60:	34330500 	ldrtcc	r0, [r3], #-1280	; 0x500
    2d64:	00000600 	andeq	r0, r0, r0, lsl #12
    2d68:	0bcb0808 	bleq	ff2c4d90 <__bss_end__+0xff2b91e0>
    2d6c:	2c320000 	ldccs	0, cr0, [r2], #-0
    2d70:	00000000 	andeq	r0, r0, r0
    2d74:	0005e730 	andeq	lr, r5, r0, lsr r7
    2d78:	30310500 	eorscc	r0, r1, r0, lsl #10
    2d7c:	00000884 	andeq	r0, r0, r4, lsl #17
    2d80:	2a313205 	bcs	c4f59c <__bss_end__+0xc439ec>
    2d84:	07000007 	streq	r0, [r0, -r7]
    2d88:	00002ca7 	andeq	r2, r0, r7, lsr #25
    2d8c:	000bee00 	andeq	lr, fp, r0, lsl #28
    2d90:	002c3200 	eoreq	r3, ip, r0, lsl #4
    2d94:	34000000 	strcc	r0, [r0], #-0
    2d98:	0000089e 	muleq	r0, lr, r8
    2d9c:	0c049b07 	stceq	11, cr9, [r4], {7}
    2da0:	2c320000 	ldccs	0, cr0, [r2], #-0
    2da4:	32000000 	andcc	r0, r0, #0
    2da8:	0000002c 	andeq	r0, r0, ip, lsr #32
    2dac:	08262f00 	stmdaeq	r6!, {r8, r9, sl, fp, sp}
    2db0:	54070000 	strpl	r0, [r7], #-0
    2db4:	0000002c 	andeq	r0, r0, ip, lsr #32
    2db8:	00011200 	andeq	r1, r1, r0, lsl #4
    2dbc:	53000400 	movwpl	r0, #1024	; 0x400
    2dc0:	04000009 	streq	r0, [r0], #-9
    2dc4:	0008d601 	andeq	sp, r8, r1, lsl #12
    2dc8:	08ca0100 	stmiaeq	sl, {r8}^
    2dcc:	092d0000 	pusheq	{}	; <UNPREDICTABLE>
    2dd0:	97ac0000 	strls	r0, [ip, r0]!
    2dd4:	00f00000 	rscseq	r0, r0, r0
    2dd8:	088e0000 	stmeq	lr, {}	; <UNPREDICTABLE>
    2ddc:	04020000 	streq	r0, [r2], #-0
    2de0:	746e6905 	strbtvc	r6, [lr], #-2309	; 0x905
    2de4:	07040300 	streq	r0, [r4, -r0, lsl #6]
    2de8:	00000148 	andeq	r0, r0, r8, asr #2
    2dec:	5b060103 	blpl	183200 <__bss_end__+0x177650>
    2df0:	03000000 	movweq	r0, #0
    2df4:	01950502 	orrseq	r0, r5, r2, lsl #10
    2df8:	04030000 	streq	r0, [r3], #-0
    2dfc:	00017605 	andeq	r7, r1, r5, lsl #12
    2e00:	05080300 	streq	r0, [r8, #-768]	; 0x300
    2e04:	00000171 	andeq	r0, r0, r1, ror r1
    2e08:	00042904 	andeq	r2, r4, r4, lsl #18
    2e0c:	5a2e0200 	bpl	b83614 <__bss_end__+0xb77a64>
    2e10:	03000000 	movweq	r0, #0
    2e14:	00590801 	subseq	r0, r9, r1, lsl #16
    2e18:	02030000 	andeq	r0, r3, #0
    2e1c:	00002007 	andeq	r2, r0, r7
    2e20:	00990400 	addseq	r0, r9, r0, lsl #8
    2e24:	34020000 	strcc	r0, [r2], #-0
    2e28:	00000073 	andeq	r0, r0, r3, ror r0
    2e2c:	43070403 	movwmi	r0, #29699	; 0x7403
    2e30:	03000001 	movweq	r0, #1
    2e34:	013e0708 	teqeq	lr, r8, lsl #14
    2e38:	04030000 	streq	r0, [r3], #-0
    2e3c:	00015507 	andeq	r5, r1, r7, lsl #10
    2e40:	08010300 	stmdaeq	r1, {r8, r9}
    2e44:	00000062 	andeq	r0, r0, r2, rrx
    2e48:	00950405 	addseq	r0, r5, r5, lsl #8
    2e4c:	88060000 	stmdahi	r6, {}	; <UNPREDICTABLE>
    2e50:	07000000 	streq	r0, [r0, -r0]
    2e54:	0000027d 	andeq	r0, r0, sp, ror r2
    2e58:	00680f01 	rsbeq	r0, r8, r1, lsl #30
    2e5c:	97ac0000 	strls	r0, [ip, r0]!
    2e60:	00f00000 	rscseq	r0, r0, r0
    2e64:	9c010000 	stcls	0, cr0, [r1], {-0}
    2e68:	0000010e 	andeq	r0, r0, lr, lsl #2
    2e6c:	00121f08 	andseq	r1, r2, r8, lsl #30
    2e70:	0e0f0100 	adfeqe	f0, f7, f0
    2e74:	59000001 	stmdbpl	r0, {r0}
    2e78:	0900000d 	stmdbeq	r0, {r0, r2, r3}
    2e7c:	006e656c 	rsbeq	r6, lr, ip, ror #10
    2e80:	00250f01 	eoreq	r0, r5, r1, lsl #30
    2e84:	0d930000 	ldceq	0, cr0, [r3]
    2e88:	200a0000 	andcs	r0, sl, r0
    2e8c:	01000012 	tsteq	r0, r2, lsl r0
    2e90:	00008f10 	andeq	r8, r0, r0, lsl pc
    2e94:	000dd200 	andeq	sp, sp, r0, lsl #4
    2e98:	02820a00 	addeq	r0, r2, #0, 20
    2e9c:	11010000 	mrsne	r0, (UNDEF: 1)
    2ea0:	00000068 	andeq	r0, r0, r8, rrx
    2ea4:	00000e11 	andeq	r0, r0, r1, lsl lr
    2ea8:	706d740b 	rsbvc	r7, sp, fp, lsl #8
    2eac:	68110100 	ldmdavs	r1, {r8}
    2eb0:	5b000000 	blpl	2eb8 <__code_start__-0x5148>
    2eb4:	0b00000e 	bleq	2ef4 <__code_start__-0x510c>
    2eb8:	006d6572 	rsbeq	r6, sp, r2, ror r5
    2ebc:	00251201 	eoreq	r1, r5, r1, lsl #4
    2ec0:	0ea60000 	cdpeq	0, 10, cr0, cr6, cr0, {0}
    2ec4:	05000000 	streq	r0, [r0, #-0]
    2ec8:	00011404 	andeq	r1, r1, r4, lsl #8
    2ecc:	db000c00 	blle	5ed4 <__code_start__-0x212c>
    2ed0:	04000000 	streq	r0, [r0], #-0
    2ed4:	0009f700 	andeq	pc, r9, r0, lsl #14
    2ed8:	d6010400 	strle	r0, [r1], -r0, lsl #8
    2edc:	01000008 	tsteq	r0, r8
    2ee0:	00000973 	andeq	r0, r0, r3, ror r9
    2ee4:	0000092d 	andeq	r0, r0, sp, lsr #18
    2ee8:	0000989c 	muleq	r0, ip, r8
    2eec:	00000020 	andeq	r0, r0, r0, lsr #32
    2ef0:	00000970 	andeq	r0, r0, r0, ror r9
    2ef4:	5b060102 	blpl	183304 <__bss_end__+0x177754>
    2ef8:	02000000 	andeq	r0, r0, #0
    2efc:	00590801 	subseq	r0, r9, r1, lsl #16
    2f00:	02020000 	andeq	r0, r2, #0
    2f04:	00019505 	andeq	r9, r1, r5, lsl #10
    2f08:	07020200 	streq	r0, [r2, -r0, lsl #4]
    2f0c:	00000020 	andeq	r0, r0, r0, lsr #32
    2f10:	69050403 	stmdbvs	r5, {r0, r1, sl}
    2f14:	0200746e 	andeq	r7, r0, #1845493760	; 0x6e000000
    2f18:	01480704 	cmpeq	r8, r4, lsl #14
    2f1c:	08020000 	stmdaeq	r2, {}	; <UNPREDICTABLE>
    2f20:	00017105 	andeq	r7, r1, r5, lsl #2
    2f24:	07080200 	streq	r0, [r8, -r0, lsl #4]
    2f28:	0000013e 	andeq	r0, r0, lr, lsr r1
    2f2c:	76050402 	strvc	r0, [r5], -r2, lsl #8
    2f30:	02000001 	andeq	r0, r0, #1
    2f34:	01550704 	cmpeq	r5, r4, lsl #14
    2f38:	04040000 	streq	r0, [r4], #-0
    2f3c:	43070402 	movwmi	r0, #29698	; 0x7402
    2f40:	05000001 	streq	r0, [r0, #-1]
    2f44:	00007a04 	andeq	r7, r0, r4, lsl #20
    2f48:	08010200 	stmdaeq	r1, {r9}
    2f4c:	00000062 	andeq	r0, r0, r2, rrx
    2f50:	00024706 	andeq	r4, r2, r6, lsl #14
    2f54:	48d40200 	ldmmi	r4, {r9}^
    2f58:	07000000 	streq	r0, [r0, -r0]
    2f5c:	00000407 	andeq	r0, r0, r7, lsl #8
    2f60:	006b1b03 	rsbeq	r1, fp, r3, lsl #22
    2f64:	989c0000 	ldmls	ip, {}	; <UNPREDICTABLE>
    2f68:	00200000 	eoreq	r0, r0, r0
    2f6c:	9c010000 	stcls	0, cr0, [r1], {-0}
    2f70:	00705f08 	rsbseq	r5, r0, r8, lsl #30
    2f74:	006b0301 	rsbeq	r0, fp, r1, lsl #6
    2f78:	50010000 	andpl	r0, r1, r0
    2f7c:	01006308 	tsteq	r0, r8, lsl #6
    2f80:	00004103 	andeq	r4, r0, r3, lsl #2
    2f84:	09510100 	ldmdbeq	r1, {r8}^
    2f88:	0301006e 	movweq	r0, #4206	; 0x106e
    2f8c:	00000081 	andeq	r0, r0, r1, lsl #1
    2f90:	00000eb9 			; <UNDEFINED> instruction: 0x00000eb9
    2f94:	0100700a 	tsteq	r0, sl
    2f98:	00007404 	andeq	r7, r0, r4, lsl #8
    2f9c:	000eda00 	andeq	sp, lr, r0, lsl #20
    2fa0:	00650b00 	rsbeq	r0, r5, r0, lsl #22
    2fa4:	00740401 	rsbseq	r0, r4, r1, lsl #8
    2fa8:	52010000 	andpl	r0, r1, #0
    2fac:	01910000 	orrseq	r0, r1, r0
    2fb0:	00040000 	andeq	r0, r4, r0
    2fb4:	00000a94 	muleq	r0, r4, sl
    2fb8:	08d60104 	ldmeq	r6, {r2, r8}^
    2fbc:	90010000 	andls	r0, r1, r0
    2fc0:	2d000009 	stccs	0, cr0, [r0, #-36]	; 0xffffffdc
    2fc4:	bc000009 	stclt	0, cr0, [r0], {9}
    2fc8:	58000098 	stmdapl	r0, {r3, r4, r7}
    2fcc:	60000000 	andvs	r0, r0, r0
    2fd0:	0200000a 	andeq	r0, r0, #10
    2fd4:	00000981 	andeq	r0, r0, r1, lsl #19
    2fd8:	00302802 	eorseq	r2, r0, r2, lsl #16
    2fdc:	a8030000 	stmdage	r3, {}	; <UNPREDICTABLE>
    2fe0:	04000009 	streq	r0, [r0], #-9
    2fe4:	00470003 	subeq	r0, r7, r3
    2fe8:	b2040000 	andlt	r0, r4, #0
    2fec:	47000009 	strmi	r0, [r0, -r9]
    2ff0:	00000000 	andeq	r0, r0, r0
    2ff4:	02040500 	andeq	r0, r4, #0, 10
    2ff8:	000009aa 	andeq	r0, r0, sl, lsr #19
    2ffc:	00256202 	eoreq	r6, r5, r2, lsl #4
    3000:	04060000 	streq	r0, [r6], #-0
    3004:	746e6905 	strbtvc	r6, [lr], #-2309	; 0x905
    3008:	07040700 	streq	r0, [r4, -r0, lsl #14]
    300c:	00000148 	andeq	r0, r0, r8, asr #2
    3010:	5b060107 	blpl	183434 <__bss_end__+0x177884>
    3014:	07000000 	streq	r0, [r0, -r0]
    3018:	01950502 	orrseq	r0, r5, r2, lsl #10
    301c:	04070000 	streq	r0, [r7], #-0
    3020:	00017605 	andeq	r7, r1, r5, lsl #12
    3024:	05080700 	streq	r0, [r8, #-1792]	; 0x700
    3028:	00000171 	andeq	r0, r0, r1, ror r1
    302c:	59080107 	stmdbpl	r8, {r0, r1, r2, r8}
    3030:	07000000 	streq	r0, [r0, -r0]
    3034:	00200702 	eoreq	r0, r0, r2, lsl #14
    3038:	04070000 	streq	r0, [r7], #-0
    303c:	00014307 	andeq	r4, r1, r7, lsl #6
    3040:	07080700 	streq	r0, [r8, -r0, lsl #14]
    3044:	0000013e 	andeq	r0, r0, lr, lsr r1
    3048:	55070407 	strpl	r0, [r7, #-1031]	; 0x407
    304c:	08000001 	stmdaeq	r0, {r0}
    3050:	0000a704 	andeq	sl, r0, r4, lsl #14
    3054:	08010700 	stmdaeq	r1, {r8, r9, sl}
    3058:	00000062 	andeq	r0, r0, r2, rrx
    305c:	00b40408 	adcseq	r0, r4, r8, lsl #8
    3060:	a7090000 	strge	r0, [r9, -r0]
    3064:	0a000000 	beq	306c <__code_start__-0x4f94>
    3068:	000009a1 	andeq	r0, r0, r1, lsr #19
    306c:	00540601 	subseq	r0, r4, r1, lsl #12
    3070:	98bc0000 	ldmls	ip!, {}	; <UNPREDICTABLE>
    3074:	00580000 	subseq	r0, r8, r0
    3078:	9c010000 	stcls	0, cr0, [r1], {-0}
    307c:	00000143 	andeq	r0, r0, r3, asr #2
    3080:	746d660b 	strbtvc	r6, [sp], #-1547	; 0x60b
    3084:	ae060100 	adfges	f0, f6, f0
    3088:	02000000 	andeq	r0, r0, #0
    308c:	0d0c7091 	stceq	0, cr7, [ip, #-580]	; 0xfffffdbc
    3090:	00667562 	rsbeq	r7, r6, r2, ror #10
    3094:	01430801 	cmpeq	r3, r1, lsl #16
    3098:	03050000 	movweq	r0, #20480	; 0x5000
    309c:	0000b7ac 	andeq	fp, r0, ip, lsr #15
    30a0:	000e230e 	andeq	r2, lr, lr, lsl #6
    30a4:	49090100 	stmdbmi	r9, {r8}
    30a8:	02000000 	andeq	r0, r0, #0
    30ac:	730f5c91 	movwvc	r5, #64657	; 0xfc91
    30b0:	0c01007a 	stceq	0, cr0, [r1], {122}	; 0x7a
    30b4:	00000054 	andeq	r0, r0, r4, asr r0
    30b8:	00000f05 	andeq	r0, r0, r5, lsl #30
    30bc:	0098e410 	addseq	lr, r8, r0, lsl r4
    30c0:	00017400 	andeq	r7, r1, r0, lsl #8
    30c4:	00013600 	andeq	r3, r1, r0, lsl #12
    30c8:	53011100 	movwpl	r1, #4352	; 0x1100
    30cc:	114c9102 	cmpne	ip, r2, lsl #2
    30d0:	91035201 	tstls	r3, r1, lsl #4
    30d4:	01110648 	tsteq	r1, r8, asr #12
    30d8:	000a0351 	andeq	r0, sl, r1, asr r3
    30dc:	50011104 	andpl	r1, r1, r4, lsl #2
    30e0:	00007402 	andeq	r7, r0, r2, lsl #8
    30e4:	0098f812 	addseq	pc, r8, r2, lsl r8	; <UNPREDICTABLE>
    30e8:	50011100 	andpl	r1, r1, r0, lsl #2
    30ec:	00007402 	andeq	r7, r0, r2, lsl #8
    30f0:	00a71300 	adceq	r1, r7, r0, lsl #6
    30f4:	01540000 	cmpeq	r4, r0
    30f8:	9a140000 	bls	503100 <__bss_end__+0x4f7550>
    30fc:	ff000000 			; <UNDEFINED> instruction: 0xff000000
    3100:	54150003 	ldrpl	r0, [r5], #-3
    3104:	63000000 	movwvs	r0, #0
    3108:	16000001 	strne	r0, [r0], -r1
    310c:	000000ae 	andeq	r0, r0, lr, lsr #1
    3110:	0a0f1700 	beq	3c8d18 <__bss_end__+0x3bd168>
    3114:	22040000 	andcs	r0, r4, #0
    3118:	0000016e 	andeq	r0, r0, lr, ror #2
    311c:	01540408 	cmpeq	r4, r8, lsl #8
    3120:	9e180000 	cdpls	0, 1, cr0, cr8, cr0, {0}
    3124:	05000009 	streq	r0, [r0, #-9]
    3128:	00005402 	andeq	r5, r0, r2, lsl #8
    312c:	00a11600 	adceq	r1, r1, r0, lsl #12
    3130:	54160000 	ldrpl	r0, [r6], #-0
    3134:	16000000 	strne	r0, [r0], -r0
    3138:	000000ae 	andeq	r0, r0, lr, lsr #1
    313c:	00004916 	andeq	r4, r0, r6, lsl r9
    3140:	13000000 	movwne	r0, #0
    3144:	04000001 	streq	r0, [r0], #-1
    3148:	000bc500 	andeq	ip, fp, r0, lsl #10
    314c:	d6010400 	strle	r0, [r1], -r0, lsl #8
    3150:	01000008 	tsteq	r0, r8
    3154:	000009de 	ldrdeq	r0, [r0], -lr
    3158:	0000092d 	andeq	r0, r0, sp, lsr #18
    315c:	00009914 	andeq	r9, r0, r4, lsl r9
    3160:	0000003c 	andeq	r0, r0, ip, lsr r0
    3164:	00000b70 	andeq	r0, r0, r0, ror fp
    3168:	69050402 	stmdbvs	r5, {r1, sl}
    316c:	0300746e 	movweq	r7, #1134	; 0x46e
    3170:	01480704 	cmpeq	r8, r4, lsl #14
    3174:	01030000 	mrseq	r0, (UNDEF: 3)
    3178:	00005b06 	andeq	r5, r0, r6, lsl #22
    317c:	05020300 	streq	r0, [r2, #-768]	; 0x300
    3180:	00000195 	muleq	r0, r5, r1
    3184:	76050403 	strvc	r0, [r5], -r3, lsl #8
    3188:	03000001 	movweq	r0, #1
    318c:	01710508 	cmneq	r1, r8, lsl #10
    3190:	01030000 	mrseq	r0, (UNDEF: 3)
    3194:	00005908 	andeq	r5, r0, r8, lsl #18
    3198:	07020300 	streq	r0, [r2, -r0, lsl #6]
    319c:	00000020 	andeq	r0, r0, r0, lsr #32
    31a0:	43070403 	movwmi	r0, #29699	; 0x7403
    31a4:	03000001 	movweq	r0, #1
    31a8:	013e0708 	teqeq	lr, r8, lsl #14
    31ac:	04030000 	streq	r0, [r3], #-0
    31b0:	00015507 	andeq	r5, r1, r7, lsl #10
    31b4:	08010300 	stmdaeq	r1, {r8, r9}
    31b8:	00000062 	andeq	r0, r0, r2, rrx
    31bc:	0009c104 	andeq	ip, r9, r4, lsl #2
    31c0:	25030100 	strcs	r0, [r3, #-256]	; 0x100
    31c4:	14000000 	strne	r0, [r0], #-0
    31c8:	14000099 	strne	r0, [r0], #-153	; 0x99
    31cc:	01000000 	mrseq	r0, (UNDEF: 0)
    31d0:	0000b09c 	muleq	r0, ip, r0
    31d4:	00630500 	rsbeq	r0, r3, r0, lsl #10
    31d8:	00250301 	eoreq	r0, r5, r1, lsl #6
    31dc:	0f2e0000 	svceq	0x002e0000
    31e0:	20060000 	andcs	r0, r6, r0
    31e4:	09000099 	stmdbeq	r0, {r0, r3, r4, r7}
    31e8:	07000001 	streq	r0, [r0, -r1]
    31ec:	74025001 	strvc	r5, [r2], #-1
    31f0:	08000000 	stmdaeq	r0, {}	; <UNPREDICTABLE>
    31f4:	00000224 	andeq	r0, r0, r4, lsr #4
    31f8:	99280801 	stmdbls	r8!, {r0, fp}
    31fc:	00180000 	andseq	r0, r8, r0
    3200:	9c010000 	stcls	0, cr0, [r1], {-0}
    3204:	0009ed09 	andeq	lr, r9, r9, lsl #26
    3208:	400b0100 	andmi	r0, fp, r0, lsl #2
    320c:	10000099 	mulne	r0, r9, r0
    3210:	01000000 	mrseq	r0, (UNDEF: 0)
    3214:	0000e39c 	muleq	r0, ip, r3
    3218:	70660a00 	rsbvc	r0, r6, r0, lsl #20
    321c:	f20b0100 	vrhadd.s8	d0, d11, d0
    3220:	01000000 	mrseq	r0, (UNDEF: 0)
    3224:	250b0050 	strcs	r0, [fp, #-80]	; 0x50
    3228:	f2000000 	vhadd.s8	d0, d0, d0
    322c:	0c000000 	stceq	0, cr0, [r0], {-0}
    3230:	00000025 	andeq	r0, r0, r5, lsr #32
    3234:	e3040d00 	movw	r0, #19712	; 0x4d00
    3238:	0e000000 	cdpeq	0, 0, cr0, cr0, cr0, {0}
    323c:	000009d2 	ldrdeq	r0, [r0], -r2
    3240:	00f20601 	rscseq	r0, r2, r1, lsl #12
    3244:	03050000 	movweq	r0, #20480	; 0x5000
    3248:	0000a70c 	andeq	sl, r0, ip, lsl #14
    324c:	0009b70f 	andeq	fp, r9, pc, lsl #14
    3250:	0c3c0200 	lfmeq	f0, 4, [ip], #-0
    3254:	0000002c 	andeq	r0, r0, ip, lsr #32
    3258:	00ee0000 	rsceq	r0, lr, r0
    325c:	00040000 	andeq	r0, r4, r0
    3260:	00000cad 	andeq	r0, r0, sp, lsr #25
    3264:	08d60104 	ldmeq	r6, {r2, r8}^
    3268:	fa010000 	blx	43270 <__bss_end__+0x376c0>
    326c:	2d000009 	stccs	0, cr0, [r0, #-36]	; 0xffffffdc
    3270:	50000009 	andpl	r0, r0, r9
    3274:	34000099 	strcc	r0, [r0], #-153	; 0x99
    3278:	08000000 	stmdaeq	r0, {}	; <UNPREDICTABLE>
    327c:	0200000c 	andeq	r0, r0, #12
    3280:	6e690504 	cdpvs	5, 6, cr0, cr9, cr4, {0}
    3284:	04030074 	streq	r0, [r3], #-116	; 0x74
    3288:	00014807 	andeq	r4, r1, r7, lsl #16
    328c:	06010300 	streq	r0, [r1], -r0, lsl #6
    3290:	0000005b 	andeq	r0, r0, fp, asr r0
    3294:	95050203 	strls	r0, [r5, #-515]	; 0x203
    3298:	03000001 	movweq	r0, #1
    329c:	01760504 	cmneq	r6, r4, lsl #10
    32a0:	08030000 	stmdaeq	r3, {}	; <UNPREDICTABLE>
    32a4:	00017105 	andeq	r7, r1, r5, lsl #2
    32a8:	08010300 	stmdaeq	r1, {r8, r9}
    32ac:	00000059 	andeq	r0, r0, r9, asr r0
    32b0:	20070203 	andcs	r0, r7, r3, lsl #4
    32b4:	03000000 	movweq	r0, #0
    32b8:	01430704 	cmpeq	r3, r4, lsl #14
    32bc:	08030000 	stmdaeq	r3, {}	; <UNPREDICTABLE>
    32c0:	00013e07 	andeq	r3, r1, r7, lsl #28
    32c4:	07040300 	streq	r0, [r4, -r0, lsl #6]
    32c8:	00000155 	andeq	r0, r0, r5, asr r1
    32cc:	62080103 	andvs	r0, r8, #-1073741824	; 0xc0000000
    32d0:	04000000 	streq	r0, [r0], #-0
    32d4:	00007f04 	andeq	r7, r0, r4, lsl #30
    32d8:	00720500 	rsbseq	r0, r2, r0, lsl #10
    32dc:	06060000 	streq	r0, [r6], -r0
    32e0:	0100000a 	tsteq	r0, sl
    32e4:	00002504 	andeq	r2, r0, r4, lsl #10
    32e8:	00995000 	addseq	r5, r9, r0
    32ec:	00003400 	andeq	r3, r0, r0, lsl #8
    32f0:	ab9c0100 	blge	fe7036f8 <__bss_end__+0xfe6f7b48>
    32f4:	07000000 	streq	r0, [r0, -r0]
    32f8:	04010070 	streq	r0, [r1], #-112	; 0x70
    32fc:	00000079 	andeq	r0, r0, r9, ror r0
    3300:	00000f4c 	andeq	r0, r0, ip, asr #30
    3304:	00250800 	eoreq	r0, r5, r0, lsl #16
    3308:	00ba0000 	adcseq	r0, sl, r0
    330c:	25090000 	strcs	r0, [r9, #-0]
    3310:	00000000 	andeq	r0, r0, r0
    3314:	0009d20a 	andeq	sp, r9, sl, lsl #4
    3318:	c51d0200 	ldrgt	r0, [sp, #-512]	; 0x200
    331c:	04000000 	streq	r0, [r0], #-0
    3320:	0000ab04 	andeq	sl, r0, r4, lsl #22
    3324:	00250800 	eoreq	r0, r5, r0, lsl #16
    3328:	00da0000 	sbcseq	r0, sl, r0
    332c:	79090000 	stmdbvc	r9, {}	; <UNPREDICTABLE>
    3330:	00000000 	andeq	r0, r0, r0
    3334:	000a0f0b 	andeq	r0, sl, fp, lsl #30
    3338:	eb0c0100 	bl	303740 <__bss_end__+0x2f7b90>
    333c:	05000000 	streq	r0, [r0, #-0]
    3340:	00a71003 	adceq	r1, r7, r3
    3344:	cb040400 	blgt	10434c <__bss_end__+0xf879c>
    3348:	00000000 	andeq	r0, r0, r0
    334c:	00000681 	andeq	r0, r0, r1, lsl #13
    3350:	0d460004 	stcleq	0, cr0, [r6, #-16]
    3354:	01040000 	mrseq	r0, (UNDEF: 4)
    3358:	000008d6 	ldrdeq	r0, [r0], -r6
    335c:	000a3b01 	andeq	r3, sl, r1, lsl #22
    3360:	00092d00 	andeq	r2, r9, r0, lsl #26
    3364:	00998400 	addseq	r8, r9, r0, lsl #8
    3368:	00050c00 	andeq	r0, r5, r0, lsl #24
    336c:	000cac00 	andeq	sl, ip, r0, lsl #24
    3370:	05040200 	streq	r0, [r4, #-512]	; 0x200
    3374:	00746e69 	rsbseq	r6, r4, r9, ror #28
    3378:	48070403 	stmdami	r7, {r0, r1, sl}
    337c:	03000001 	movweq	r0, #1
    3380:	005b0601 	subseq	r0, fp, r1, lsl #12
    3384:	02030000 	andeq	r0, r3, #0
    3388:	00019505 	andeq	r9, r1, r5, lsl #10
    338c:	05040300 	streq	r0, [r4, #-768]	; 0x300
    3390:	00000176 	andeq	r0, r0, r6, ror r1
    3394:	71050803 	tstvc	r5, r3, lsl #16
    3398:	03000001 	movweq	r0, #1
    339c:	00590801 	subseq	r0, r9, r1, lsl #16
    33a0:	02030000 	andeq	r0, r3, #0
    33a4:	00002007 	andeq	r2, r0, r7
    33a8:	07040300 	streq	r0, [r4, -r0, lsl #6]
    33ac:	00000143 	andeq	r0, r0, r3, asr #2
    33b0:	3e070803 	cdpcc	8, 0, cr0, cr7, cr3, {0}
    33b4:	03000001 	movweq	r0, #1
    33b8:	01550704 	cmpeq	r5, r4, lsl #14
    33bc:	04040000 	streq	r0, [r4], #-0
    33c0:	007a0405 	rsbseq	r0, sl, r5, lsl #8
    33c4:	01030000 	mrseq	r0, (UNDEF: 3)
    33c8:	00006208 	andeq	r6, r0, r8, lsl #4
    33cc:	87040500 	strhi	r0, [r4, -r0, lsl #10]
    33d0:	06000000 	streq	r0, [r0], -r0
    33d4:	0000007a 	andeq	r0, r0, sl, ror r0
    33d8:	00098107 	andeq	r8, r9, r7, lsl #2
    33dc:	97280200 	strls	r0, [r8, -r0, lsl #4]!
    33e0:	08000000 	stmdaeq	r0, {}	; <UNPREDICTABLE>
    33e4:	000009a8 	andeq	r0, r0, r8, lsr #19
    33e8:	ae000404 	cdpge	4, 0, cr0, cr0, cr4, {0}
    33ec:	09000000 	stmdbeq	r0, {}	; <UNPREDICTABLE>
    33f0:	000009b2 			; <UNDEFINED> instruction: 0x000009b2
    33f4:	00000072 	andeq	r0, r0, r2, ror r0
    33f8:	aa070000 	bge	1c3400 <__bss_end__+0x1b7850>
    33fc:	02000009 	andeq	r0, r0, #9
    3400:	00008c62 	andeq	r8, r0, r2, ror #24
    3404:	0a220a00 	beq	885c0c <__bss_end__+0x87a05c>
    3408:	27010000 	strcs	r0, [r1, -r0]
    340c:	00000025 	andeq	r0, r0, r5, lsr #32
    3410:	00009984 	andeq	r9, r0, r4, lsl #19
    3414:	00000014 	andeq	r0, r0, r4, lsl r0
    3418:	00e09c01 	rsceq	r9, r0, r1, lsl #24
    341c:	630b0000 	movwvs	r0, #45056	; 0xb000
    3420:	25270100 	strcs	r0, [r7, #-256]!	; 0x100
    3424:	6a000000 	bvs	342c <__code_start__-0x4bd4>
    3428:	0000000f 	andeq	r0, r0, pc
    342c:	6461700c 	strbtvs	r7, [r1], #-12
    3430:	742e0100 	strtvc	r0, [lr], #-256	; 0x100
    3434:	98000000 	stmdals	r0, {}	; <UNPREDICTABLE>
    3438:	2c000099 	stccs	0, cr0, [r0], {153}	; 0x99
    343c:	01000000 	mrseq	r0, (UNDEF: 0)
    3440:	0001309c 	muleq	r1, ip, r0
    3444:	00700b00 	rsbseq	r0, r0, r0, lsl #22
    3448:	00742e01 	rsbseq	r2, r4, r1, lsl #28
    344c:	0f980000 	svceq	0x00980000
    3450:	010d0000 	mrseq	r0, (UNDEF: 13)
    3454:	0100000e 	tsteq	r0, lr
    3458:	0000742e 	andeq	r7, r0, lr, lsr #8
    345c:	000fc300 	andeq	ip, pc, r0, lsl #6
    3460:	0a5b0e00 	beq	16c6c68 <__bss_end__+0x16bb0b8>
    3464:	2e010000 	cdpcs	0, 0, cr0, cr1, cr0, {0}
    3468:	00000025 	andeq	r0, r0, r5, lsr #32
    346c:	6c0f5201 	sfmvs	f5, 4, [pc], {1}
    3470:	01006e65 	tsteq	r0, r5, ror #28
    3474:	0000252f 	andeq	r2, r0, pc, lsr #10
    3478:	00510100 	subseq	r0, r1, r0, lsl #2
    347c:	000a1a0a 	andeq	r1, sl, sl, lsl #20
    3480:	74370100 	ldrtvc	r0, [r7], #-256	; 0x100
    3484:	c4000000 	strgt	r0, [r0], #-0
    3488:	40000099 	mulmi	r0, r9, r0
    348c:	01000000 	mrseq	r0, (UNDEF: 0)
    3490:	00019c9c 	muleq	r1, ip, ip
    3494:	73640b00 	cmnvc	r4, #0, 22
    3498:	37010074 	smlsdxcc	r1, r4, r0, r0
    349c:	00000074 	andeq	r0, r0, r4, ror r0
    34a0:	00000fe4 	andeq	r0, r0, r4, ror #31
    34a4:	01006e0b 	tsteq	r0, fp, lsl #28
    34a8:	00002537 	andeq	r2, r0, r7, lsr r5
    34ac:	00101c00 	andseq	r1, r0, r0, lsl #24
    34b0:	00700b00 	rsbseq	r0, r0, r0, lsl #22
    34b4:	00743701 	rsbseq	r3, r4, r1, lsl #14
    34b8:	103d0000 	eorsne	r0, sp, r0
    34bc:	9b0d0000 	blls	3434c4 <__bss_end__+0x337914>
    34c0:	01000003 	tsteq	r0, r3
    34c4:	00007437 	andeq	r7, r0, r7, lsr r4
    34c8:	00107300 	andseq	r7, r0, r0, lsl #6
    34cc:	656c1000 	strbvs	r1, [ip, #-0]!
    34d0:	3901006e 	stmdbcc	r1, {r1, r2, r3, r5, r6}
    34d4:	00000025 	andeq	r0, r0, r5, lsr #32
    34d8:	00001091 	muleq	r0, r1, r0
    34dc:	0100730f 	tsteq	r0, pc, lsl #6
    34e0:	0000743d 	andeq	r7, r0, sp, lsr r4
    34e4:	00500100 	subseq	r0, r0, r0, lsl #2
    34e8:	000a690a 	andeq	r6, sl, sl, lsl #18
    34ec:	74470100 	strbvc	r0, [r7], #-256	; 0x100
    34f0:	04000000 	streq	r0, [r0], #-0
    34f4:	b000009a 	mullt	r0, sl, r0
    34f8:	01000001 	tsteq	r0, r1
    34fc:	0002d39c 	muleq	r2, ip, r3
    3500:	0e010d00 	cdpeq	13, 0, cr0, cr1, cr0, {0}
    3504:	47010000 	strmi	r0, [r1, -r0]
    3508:	0000002c 	andeq	r0, r0, ip, lsr #32
    350c:	000010b8 	strheq	r1, [r0], -r8
    3510:	7473640b 	ldrbtvc	r6, [r3], #-1035	; 0x40b
    3514:	74470100 	strbvc	r0, [r7], #-256	; 0x100
    3518:	e6000000 	str	r0, [r0], -r0
    351c:	0b000010 	bleq	3564 <__code_start__-0x4a9c>
    3520:	4701006e 	strmi	r0, [r1, -lr, rrx]
    3524:	00000025 	andeq	r0, r0, r5, lsr #32
    3528:	00001154 	andeq	r1, r0, r4, asr r1
    352c:	6c61760b 	stclvs	6, cr7, [r1], #-44	; 0xffffffd4
    3530:	25470100 	strbcs	r0, [r7, #-256]	; 0x100
    3534:	80000000 	andhi	r0, r0, r0
    3538:	0d000011 	stceq	0, cr0, [r0, #-68]	; 0xffffffbc
    353c:	00000a5b 	andeq	r0, r0, fp, asr sl
    3540:	00254701 	eoreq	r4, r5, r1, lsl #14
    3544:	11ff0000 	mvnsne	r0, r0
    3548:	320e0000 	andcc	r0, lr, #0
    354c:	0100000a 	tsteq	r0, sl
    3550:	00002547 	andeq	r2, r0, r7, asr #10
    3554:	04910200 	ldreq	r0, [r1], #512	; 0x200
    3558:	6675620f 	ldrbtvs	r6, [r5], -pc, lsl #4
    355c:	d34c0100 	movtle	r0, #49408	; 0xc100
    3560:	03000002 	movweq	r0, #2
    3564:	107fa891 			; <UNDEFINED> instruction: 0x107fa891
    3568:	4c010070 	stcmi	0, cr0, [r1], {112}	; 0x70
    356c:	00000074 	andeq	r0, r0, r4, ror r0
    3570:	00001229 	andeq	r1, r0, r9, lsr #4
    3574:	01007510 	tsteq	r0, r0, lsl r5
    3578:	00002c4d 	andeq	r2, r0, sp, asr #24
    357c:	0012f100 	andseq	pc, r2, r0, lsl #2
    3580:	00bc1100 	adcseq	r1, ip, r0, lsl #2
    3584:	02f30000 	rscseq	r0, r3, #0
    3588:	03050000 	movweq	r0, #20480	; 0x5000
    358c:	0000b1a4 	andeq	fp, r0, r4, lsr #3
    3590:	009a7012 	addseq	r7, sl, r2, lsl r0
    3594:	00007400 	andeq	r7, r0, r0, lsl #8
    3598:	00026100 	andeq	r6, r2, r0, lsl #2
    359c:	0a141300 	beq	5081a4 <__bss_end__+0x4fc5f4>
    35a0:	52010000 	andpl	r0, r1, #0
    35a4:	0000002c 	andeq	r0, r0, ip, lsr #32
    35a8:	000013b4 			; <UNDEFINED> instruction: 0x000013b4
    35ac:	9b5c1400 	blls	17085b4 <__bss_end__+0x16fca04>
    35b0:	06600000 	strbteq	r0, [r0], -r0
    35b4:	70150000 	andsvc	r0, r5, r0
    35b8:	6700009b 			; <UNDEFINED> instruction: 0x6700009b
    35bc:	99000006 	stmdbls	r0, {r1, r2}
    35c0:	16000002 	strne	r0, [r0], -r2
    35c4:	08025301 	stmdaeq	r2, {r0, r8, r9, ip, lr}
    35c8:	52011677 	andpl	r1, r1, #124780544	; 0x7700000
    35cc:	b1a40305 			; <UNDEFINED> instruction: 0xb1a40305
    35d0:	01160000 	tsteq	r6, r0
    35d4:	dc030551 	cfstr32le	mvfx0, [r3], {81}	; 0x51
    35d8:	160000b1 			; <UNDEFINED> instruction: 0x160000b1
    35dc:	03055001 	movweq	r5, #20481	; 0x5001
    35e0:	0000b1c8 	andeq	fp, r0, r8, asr #3
    35e4:	9b741400 	blls	1d085ec <__bss_end__+0x1cfca3c>
    35e8:	067d0000 	ldrbteq	r0, [sp], -r0
    35ec:	7c150000 	ldcvc	0, cr0, [r5], {-0}
    35f0:	e000009b 	mul	r0, fp, r0
    35f4:	b6000000 	strlt	r0, [r0], -r0
    35f8:	16000002 	strne	r0, [r0], -r2
    35fc:	7d025101 	stfvcs	f5, [r2, #-4]
    3600:	90170000 	andsls	r0, r7, r0
    3604:	3000009b 	mulcc	r0, fp, r0
    3608:	16000001 	strne	r0, [r0], -r1
    360c:	7d025301 	stcvc	3, cr5, [r2, #-4]
    3610:	51011600 	tstpl	r1, r0, lsl #12
    3614:	16007402 	strne	r7, [r0], -r2, lsl #8
    3618:	75025001 	strvc	r5, [r2, #-1]
    361c:	18000000 	stmdane	r0, {}	; <UNPREDICTABLE>
    3620:	0000007a 	andeq	r0, r0, sl, ror r0
    3624:	000002e3 	andeq	r0, r0, r3, ror #5
    3628:	00006b19 	andeq	r6, r0, r9, lsl fp
    362c:	18003f00 	stmdane	r0, {r8, r9, sl, fp, ip, sp}
    3630:	0000007a 	andeq	r0, r0, sl, ror r0
    3634:	000002f3 	strdeq	r0, [r0], -r3
    3638:	00006b19 	andeq	r6, r0, r9, lsl fp
    363c:	06000400 	streq	r0, [r0], -r0, lsl #8
    3640:	000002e3 	andeq	r0, r0, r3, ror #5
    3644:	000a4c1a 	andeq	r4, sl, sl, lsl ip
    3648:	b41f0100 	ldrlt	r0, [pc], #-256	; 3650 <__code_start__-0x49b0>
    364c:	5400009b 	strpl	r0, [r0], #-155	; 0x9b
    3650:	01000000 	mrseq	r0, (UNDEF: 0)
    3654:	00037c9c 	muleq	r3, ip, ip
    3658:	0a610d00 	beq	1846a60 <__bss_end__+0x183aeb0>
    365c:	1f010000 	svcne	0x00010000
    3660:	0000038b 	andeq	r0, r0, fp, lsl #7
    3664:	000013e0 	andeq	r1, r0, r0, ror #7
    3668:	000a2a0d 	andeq	r2, sl, sp, lsl #20
    366c:	a01f0100 	andsge	r0, pc, r0, lsl #2
    3670:	0c000003 	stceq	0, cr0, [r0], {3}
    3674:	11000014 	tstne	r0, r4, lsl r0
    3678:	000000bc 	strheq	r0, [r0], -ip
    367c:	000003b6 			; <UNDEFINED> instruction: 0x000003b6
    3680:	b1ac0305 			; <UNDEFINED> instruction: 0xb1ac0305
    3684:	c4140000 	ldrgt	r0, [r4], #-0
    3688:	6000009b 	mulvs	r0, fp, r0
    368c:	15000006 	strne	r0, [r0, #-6]
    3690:	00009bd8 	ldrdeq	r9, [r0], -r8
    3694:	00000667 	andeq	r0, r0, r7, ror #12
    3698:	00000372 	andeq	r0, r0, r2, ror r3
    369c:	02530116 	subseq	r0, r3, #-2147483643	; 0x80000005
    36a0:	01162008 	tsteq	r6, r8
    36a4:	ac030552 	cfstr32ge	mvfx0, [r3], {82}	; 0x52
    36a8:	160000b1 			; <UNDEFINED> instruction: 0x160000b1
    36ac:	03055101 	movweq	r5, #20737	; 0x5101
    36b0:	0000b1dc 	ldrdeq	fp, [r0], -ip
    36b4:	05500116 	ldrbeq	r0, [r0, #-278]	; 0x116
    36b8:	00b21403 	adcseq	r1, r2, r3, lsl #8
    36bc:	dc140000 	ldcle	0, cr0, [r4], {-0}
    36c0:	7d00009b 	stcvc	0, cr0, [r0, #-620]	; 0xfffffd94
    36c4:	00000006 	andeq	r0, r0, r6
    36c8:	0000251b 	andeq	r2, r0, fp, lsl r5
    36cc:	00038b00 	andeq	r8, r3, r0, lsl #22
    36d0:	00251c00 	eoreq	r1, r5, r0, lsl #24
    36d4:	05000000 	streq	r0, [r0, #-0]
    36d8:	00037c04 	andeq	r7, r3, r4, lsl #24
    36dc:	00251b00 	eoreq	r1, r5, r0, lsl #22
    36e0:	03a00000 	moveq	r0, #0
    36e4:	811c0000 	tsthi	ip, r0
    36e8:	00000000 	andeq	r0, r0, r0
    36ec:	03910405 	orrseq	r0, r1, #83886080	; 0x5000000
    36f0:	7a180000 	bvc	6036f8 <__bss_end__+0x5f7b48>
    36f4:	b6000000 	strlt	r0, [r0], -r0
    36f8:	19000003 	stmdbne	r0, {r0, r1}
    36fc:	0000006b 	andeq	r0, r0, fp, rrx
    3700:	a606000e 	strge	r0, [r6], -lr
    3704:	1d000003 	stcne	0, cr0, [r0, #-12]
    3708:	0000099e 	muleq	r0, lr, r9
    370c:	00257f01 	eoreq	r7, r5, r1, lsl #30
    3710:	9c080000 	stcls	0, cr0, [r8], {-0}
    3714:	02880000 	addeq	r0, r8, #0
    3718:	9c010000 	stcls	0, cr0, [r1], {-0}
    371c:	00000625 	andeq	r0, r0, r5, lsr #12
    3720:	6675620b 	ldrbtvs	r6, [r5], -fp, lsl #4
    3724:	747f0100 	ldrbtvc	r0, [pc], #-256	; 372c <__code_start__-0x48d4>
    3728:	38000000 	stmdacc	r0, {}	; <UNPREDICTABLE>
    372c:	0b000014 	bleq	3784 <__code_start__-0x487c>
    3730:	7f01006e 	svcvc	0x0001006e
    3734:	00000025 	andeq	r0, r0, r5, lsr #32
    3738:	00001464 	andeq	r1, r0, r4, ror #8
    373c:	746d660b 	strbtvc	r6, [sp], #-1547	; 0x60b
    3740:	817f0100 	cmnhi	pc, r0, lsl #2
    3744:	92000000 	andls	r0, r0, #0
    3748:	0d000014 	stceq	0, cr0, [r0, #-80]	; 0xffffffb0
    374c:	00000e23 	andeq	r0, r0, r3, lsr #28
    3750:	00ae7f01 	adceq	r7, lr, r1, lsl #30
    3754:	14c60000 	strbne	r0, [r6], #0
    3758:	70100000 	andsvc	r0, r0, r0
    375c:	74800100 	strvc	r0, [r0], #256	; 0x100
    3760:	d9000000 	stmdble	r0, {}	; <UNPREDICTABLE>
    3764:	10000014 	andne	r0, r0, r4, lsl r0
    3768:	80010065 	andhi	r0, r1, r5, rrx
    376c:	00000074 	andeq	r0, r0, r4, ror r0
    3770:	00001557 	andeq	r1, r0, r7, asr r5
    3774:	0000bc11 	andeq	fp, r0, r1, lsl ip
    3778:	00063500 	andeq	r3, r6, r0, lsl #10
    377c:	bc030500 	cfstr32lt	mvfx0, [r3], {-0}
    3780:	1e0000b1 	mcrne	0, 0, r0, cr0, cr1, {5}
    3784:	00000060 	andeq	r0, r0, r0, rrx
    3788:	01007310 	tsteq	r0, r0, lsl r3
    378c:	0000748d 	andeq	r7, r0, sp, lsl #9
    3790:	00157e00 	andseq	r7, r5, r0, lsl #28
    3794:	756e0f00 	strbvc	r0, [lr, #-3840]!	; 0xf00
    3798:	8d01006d 	stchi	0, cr0, [r1, #-436]	; 0xfffffe4c
    379c:	0000063a 	andeq	r0, r0, sl, lsr r6
    37a0:	7ed89103 	atnvce	f1, f3
    37a4:	000a5b13 	andeq	r5, sl, r3, lsl fp
    37a8:	2c8e0100 	stfcss	f0, [lr], {0}
    37ac:	d3000000 	movwle	r0, #0
    37b0:	15000015 	strne	r0, [r0, #-21]
    37b4:	00009c8c 	andeq	r9, r0, ip, lsl #25
    37b8:	000000b9 	strheq	r0, [r0], -r9
    37bc:	0000047b 	andeq	r0, r0, fp, ror r4
    37c0:	02500116 	subseq	r0, r0, #-2147483643	; 0x80000005
    37c4:	14000075 	strne	r0, [r0], #-117	; 0x75
    37c8:	00009ca0 	andeq	r9, r0, r0, lsr #25
    37cc:	00000660 	andeq	r0, r0, r0, ror #12
    37d0:	009cb415 	addseq	fp, ip, r5, lsl r4
    37d4:	00066700 	andeq	r6, r6, r0, lsl #14
    37d8:	0004b300 	andeq	fp, r4, r0, lsl #6
    37dc:	53011600 	movwpl	r1, #5632	; 0x1600
    37e0:	16940802 	ldrne	r0, [r4], r2, lsl #16
    37e4:	03055201 	movweq	r5, #20993	; 0x5201
    37e8:	0000b1bc 			; <UNDEFINED> instruction: 0x0000b1bc
    37ec:	05510116 	ldrbeq	r0, [r1, #-278]	; 0x116
    37f0:	00b1dc03 	adcseq	sp, r1, r3, lsl #24
    37f4:	50011600 	andpl	r1, r1, r0, lsl #12
    37f8:	b22c0305 	eorlt	r0, ip, #335544320	; 0x14000000
    37fc:	14000000 	strne	r0, [r0], #-0
    3800:	00009cb8 			; <UNDEFINED> instruction: 0x00009cb8
    3804:	0000067d 	andeq	r0, r0, sp, ror r6
    3808:	009d2814 	addseq	r2, sp, r4, lsl r8
    380c:	00066000 	andeq	r6, r6, r0
    3810:	9d3c1500 	cfldr32ls	mvfx1, [ip, #-0]
    3814:	06670000 	strbteq	r0, [r7], -r0
    3818:	04f40000 	ldrbteq	r0, [r4], #0
    381c:	01160000 	tsteq	r6, r0
    3820:	9a080253 	bls	204174 <__bss_end__+0x1f85c4>
    3824:	05520116 	ldrbeq	r0, [r2, #-278]	; 0x116
    3828:	00b1bc03 	adcseq	fp, r1, r3, lsl #24
    382c:	51011600 	tstpl	r1, r0, lsl #12
    3830:	b1dc0305 	bicslt	r0, ip, r5, lsl #6
    3834:	01160000 	tsteq	r6, r0
    3838:	48030550 	stmdami	r3, {r4, r6, r8, sl}
    383c:	000000b2 	strheq	r0, [r0], -r2
    3840:	009d4014 	addseq	r4, sp, r4, lsl r0
    3844:	00067d00 	andeq	r7, r6, r0, lsl #26
    3848:	9d641500 	cfstr64ls	mvdx1, [r4, #-0]
    384c:	019c0000 	orrseq	r0, ip, r0
    3850:	052a0000 	streq	r0, [sl, #-0]!
    3854:	01160000 	tsteq	r6, r0
    3858:	80080252 	andhi	r0, r8, r2, asr r2
    385c:	03510116 	cmpeq	r1, #-2147483643	; 0x80000005
    3860:	167ed091 			; <UNDEFINED> instruction: 0x167ed091
    3864:	3a015001 	bcc	57870 <__bss_end__+0x4bcc0>
    3868:	047d0216 	ldrbteq	r0, [sp], #-534	; 0x216
    386c:	02163101 	andseq	r3, r6, #1073741824	; 0x40000000
    3870:	7702007d 	smlsdxvc	r2, sp, r0, r0
    3874:	88150000 	ldmdahi	r5, {}	; <UNPREDICTABLE>
    3878:	9c00009d 	stcls	0, cr0, [r0], {157}	; 0x9d
    387c:	58000001 	stmdapl	r0, {r0}
    3880:	16000005 	strne	r0, [r0], -r5
    3884:	08025201 	stmdaeq	r2, {r0, r9, ip, lr}
    3888:	51011680 	smlabbpl	r1, r0, r6, r1
    388c:	7ed09103 	atnvcs	f1, f3
    3890:	01500116 	cmpeq	r0, r6, lsl r1
    3894:	7d02163a 	stcvc	6, cr1, [r2, #-232]	; 0xffffff18
    3898:	007b0204 	rsbseq	r0, fp, r4, lsl #4
    389c:	007d0216 	rsbseq	r0, sp, r6, lsl r2
    38a0:	00007702 	andeq	r7, r0, r2, lsl #14
    38a4:	009dac15 	addseq	sl, sp, r5, lsl ip
    38a8:	00019c00 	andeq	r9, r1, r0, lsl #24
    38ac:	00058600 	andeq	r8, r5, r0, lsl #12
    38b0:	52011600 	andpl	r1, r1, #0, 12
    38b4:	16800802 	strne	r0, [r0], r2, lsl #16
    38b8:	91035101 	tstls	r3, r1, lsl #2
    38bc:	01167ed0 			; <UNDEFINED> instruction: 0x01167ed0
    38c0:	16400150 			; <UNDEFINED> instruction: 0x16400150
    38c4:	02047d02 	andeq	r7, r4, #2, 26	; 0x80
    38c8:	0216007b 	andseq	r0, r6, #123	; 0x7b
    38cc:	7702007d 	smlsdxvc	r2, sp, r0, r0
    38d0:	d0150000 	andsle	r0, r5, r0
    38d4:	9c00009d 	stcls	0, cr0, [r0], {157}	; 0x9d
    38d8:	b4000001 	strlt	r0, [r0], #-1
    38dc:	16000005 	strne	r0, [r0], -r5
    38e0:	08025201 	stmdaeq	r2, {r0, r9, ip, lr}
    38e4:	51011680 	smlabbpl	r1, r0, r6, r1
    38e8:	7ed09103 	atnvcs	f1, f3
    38ec:	01500116 	cmpeq	r0, r6, lsl r1
    38f0:	7d021632 	stcvc	6, cr1, [r2, #-200]	; 0xffffff38
    38f4:	007b0204 	rsbseq	r0, fp, r4, lsl #4
    38f8:	007d0216 	rsbseq	r0, sp, r6, lsl r2
    38fc:	00007702 	andeq	r7, r0, r2, lsl #14
    3900:	009e0015 	addseq	r0, lr, r5, lsl r0
    3904:	00019c00 	andeq	r9, r1, r0, lsl #24
    3908:	0005e200 	andeq	lr, r5, r0, lsl #4
    390c:	52011600 	andpl	r1, r1, #0, 12
    3910:	16800802 	strne	r0, [r0], r2, lsl #16
    3914:	91035101 	tstls	r3, r1, lsl #2
    3918:	01167ed0 			; <UNDEFINED> instruction: 0x01167ed0
    391c:	16380150 			; <UNDEFINED> instruction: 0x16380150
    3920:	02047d02 	andeq	r7, r4, #2, 26	; 0x80
    3924:	0216007b 	andseq	r0, r6, #123	; 0x7b
    3928:	7702007d 	smlsdxvc	r2, sp, r0, r0
    392c:	08140000 	ldmdaeq	r4, {}	; <UNPREDICTABLE>
    3930:	6000009e 	mulvs	r0, lr, r0
    3934:	15000006 	strne	r0, [r0, #-6]
    3938:	00009e24 	andeq	r9, r0, r4, lsr #28
    393c:	00000667 	andeq	r0, r0, r7, ror #12
    3940:	0000061a 	andeq	r0, r0, sl, lsl r6
    3944:	02530116 	subseq	r0, r3, #-2147483643	; 0x80000005
    3948:	0116bb08 	tsteq	r6, r8, lsl #22
    394c:	bc030552 	cfstr32lt	mvfx0, [r3], {82}	; 0x52
    3950:	160000b1 			; <UNDEFINED> instruction: 0x160000b1
    3954:	03055101 	movweq	r5, #20737	; 0x5101
    3958:	0000b1dc 	ldrdeq	fp, [r0], -ip
    395c:	05500116 	ldrbeq	r0, [r0, #-278]	; 0x116
    3960:	00b27003 	adcseq	r7, r2, r3
    3964:	28140000 	ldmdacs	r4, {}	; <UNPREDICTABLE>
    3968:	7d00009e 	stcvc	0, cr0, [r0, #-632]	; 0xfffffd88
    396c:	00000006 	andeq	r0, r0, r6
    3970:	007a1800 	rsbseq	r1, sl, r0, lsl #16
    3974:	06350000 	ldrteq	r0, [r5], -r0
    3978:	6b190000 	blvs	643980 <__bss_end__+0x637dd0>
    397c:	09000000 	stmdbeq	r0, {}	; <UNPREDICTABLE>
    3980:	06250600 	strteq	r0, [r5], -r0, lsl #12
    3984:	7a180000 	bvc	60398c <__bss_end__+0x5f7ddc>
    3988:	4a000000 	bmi	3990 <__code_start__-0x4670>
    398c:	19000006 	stmdbne	r0, {r1, r2}
    3990:	0000006b 	andeq	r0, r0, fp, rrx
    3994:	d21f007f 	andsle	r0, pc, #127	; 0x7f
    3998:	03000009 	movweq	r0, #9
    399c:	00038b1d 	andeq	r8, r3, sp, lsl fp
    39a0:	0a0f1f00 	beq	3cb5a8 <__bss_end__+0x3bf9f8>
    39a4:	22030000 	andcs	r0, r3, #0
    39a8:	000003a0 	andeq	r0, r0, r0, lsr #7
    39ac:	00022420 	andeq	r2, r2, r0, lsr #8
    39b0:	211e0300 	tstcs	lr, r0, lsl #6
    39b4:	000009a1 	andeq	r0, r0, r1, lsr #19
    39b8:	00252903 	eoreq	r2, r5, r3, lsl #18
    39bc:	067d0000 	ldrbteq	r0, [sp], -r0
    39c0:	811c0000 	tsthi	ip, r0
    39c4:	22000000 	andcs	r0, r0, #0
    39c8:	00722000 	rsbseq	r2, r2, r0
    39cc:	65030000 	strvs	r0, [r3, #-0]
    39d0:	0000ff00 	andeq	pc, r0, r0, lsl #30
    39d4:	22000400 	andcs	r0, r0, #0, 8
    39d8:	0400000f 	streq	r0, [r0], #-15
    39dc:	0008d601 	andeq	sp, r8, r1, lsl #12
    39e0:	0a6e0100 	beq	1b83de8 <__bss_end__+0x1b78238>
    39e4:	092d0000 	pusheq	{}	; <UNPREDICTABLE>
    39e8:	9e900000 	cdpls	0, 9, cr0, cr0, cr0, {0}
    39ec:	00280000 	eoreq	r0, r8, r0
    39f0:	0e9b0000 	cdpeq	0, 9, cr0, cr11, cr0, {0}
    39f4:	04020000 	streq	r0, [r2], #-0
    39f8:	746e6905 	strbtvc	r6, [lr], #-2309	; 0x905
    39fc:	07040300 	streq	r0, [r4, -r0, lsl #6]
    3a00:	00000148 	andeq	r0, r0, r8, asr #2
    3a04:	5b060103 	blpl	183e18 <__bss_end__+0x178268>
    3a08:	03000000 	movweq	r0, #0
    3a0c:	01950502 	orrseq	r0, r5, r2, lsl #10
    3a10:	04030000 	streq	r0, [r3], #-0
    3a14:	00017605 	andeq	r7, r1, r5, lsl #12
    3a18:	05080300 	streq	r0, [r8, #-768]	; 0x300
    3a1c:	00000171 	andeq	r0, r0, r1, ror r1
    3a20:	59080103 	stmdbpl	r8, {r0, r1, r8}
    3a24:	03000000 	movweq	r0, #0
    3a28:	00200702 	eoreq	r0, r0, r2, lsl #14
    3a2c:	04030000 	streq	r0, [r3], #-0
    3a30:	00014307 	andeq	r4, r1, r7, lsl #6
    3a34:	07080300 	streq	r0, [r8, -r0, lsl #6]
    3a38:	0000013e 	andeq	r0, r0, lr, lsr r1
    3a3c:	55070403 	strpl	r0, [r7, #-1027]	; 0x403
    3a40:	03000001 	movweq	r0, #1
    3a44:	00620801 	rsbeq	r0, r2, r1, lsl #16
    3a48:	04040000 	streq	r0, [r4], #-0
    3a4c:	0000007f 	andeq	r0, r0, pc, ror r0
    3a50:	00007205 	andeq	r7, r0, r5, lsl #4
    3a54:	00720600 	rsbseq	r0, r2, r0, lsl #12
    3a58:	04010000 	streq	r0, [r1], #-0
    3a5c:	00009e90 	muleq	r0, r0, lr
    3a60:	00000028 	andeq	r0, r0, r8, lsr #32
    3a64:	00ca9c01 	sbceq	r9, sl, r1, lsl #24
    3a68:	a4070000 	strge	r0, [r7], #-0
    3a6c:	ac00009e 	stcge	0, cr0, [r0], {158}	; 0x9e
    3a70:	08000000 	stmdaeq	r0, {}	; <UNPREDICTABLE>
    3a74:	03055001 	movweq	r5, #20481	; 0x5001
    3a78:	0000b2a8 	andeq	fp, r0, r8, lsr #5
    3a7c:	9eac0900 	cdpls	9, 10, cr0, cr12, cr0, {0}
    3a80:	00ea0000 	rsceq	r0, sl, r0
    3a84:	00c00000 	sbceq	r0, r0, r0
    3a88:	01080000 	mrseq	r0, (UNDEF: 8)
    3a8c:	64080250 	strvs	r0, [r8], #-592	; 0x250
    3a90:	9eb00a00 	vmovls.f32	s0, #0
    3a94:	00fb0000 	rscseq	r0, fp, r0
    3a98:	0b000000 	bleq	3aa0 <__code_start__-0x4560>
    3a9c:	00000025 	andeq	r0, r0, r5, lsr #32
    3aa0:	000000d9 	ldrdeq	r0, [r0], -r9
    3aa4:	0000790c 	andeq	r7, r0, ip, lsl #18
    3aa8:	0f0d0000 	svceq	0x000d0000
    3aac:	0200000a 	andeq	r0, r0, #10
    3ab0:	0000e422 	andeq	lr, r0, r2, lsr #8
    3ab4:	ca040400 	bgt	104abc <__bss_end__+0xf8f0c>
    3ab8:	0e000000 	cdpeq	0, 0, cr0, cr0, cr0, {0}
    3abc:	000000a2 	andeq	r0, r0, r2, lsr #1
    3ac0:	00fb4f02 	rscseq	r4, fp, r2, lsl #30
    3ac4:	2c0c0000 	stccs	0, cr0, [ip], {-0}
    3ac8:	00000000 	andeq	r0, r0, r0
    3acc:	000a870f 	andeq	r8, sl, pc, lsl #14
    3ad0:	00620200 	rsbeq	r0, r2, r0, lsl #4
    3ad4:	000000ff 	strdeq	r0, [r0], -pc	; <UNPREDICTABLE>
    3ad8:	0fec0004 	svceq	0x00ec0004
    3adc:	01040000 	mrseq	r0, (UNDEF: 4)
    3ae0:	000008d6 	ldrdeq	r0, [r0], -r6
    3ae4:	000aa201 	andeq	sl, sl, r1, lsl #4
    3ae8:	00092d00 	andeq	r2, r9, r0, lsl #26
    3aec:	009eb800 	addseq	fp, lr, r0, lsl #16
    3af0:	00003400 	andeq	r3, r0, r0, lsl #8
    3af4:	000f3b00 	andeq	r3, pc, r0, lsl #22
    3af8:	05040200 	streq	r0, [r4, #-512]	; 0x200
    3afc:	00746e69 	rsbseq	r6, r4, r9, ror #28
    3b00:	48070403 	stmdami	r7, {r0, r1, sl}
    3b04:	03000001 	movweq	r0, #1
    3b08:	005b0601 	subseq	r0, fp, r1, lsl #12
    3b0c:	02030000 	andeq	r0, r3, #0
    3b10:	00019505 	andeq	r9, r1, r5, lsl #10
    3b14:	05040300 	streq	r0, [r4, #-768]	; 0x300
    3b18:	00000176 	andeq	r0, r0, r6, ror r1
    3b1c:	71050803 	tstvc	r5, r3, lsl #16
    3b20:	03000001 	movweq	r0, #1
    3b24:	00590801 	subseq	r0, r9, r1, lsl #16
    3b28:	02030000 	andeq	r0, r3, #0
    3b2c:	00002007 	andeq	r2, r0, r7
    3b30:	07040300 	streq	r0, [r4, -r0, lsl #6]
    3b34:	00000143 	andeq	r0, r0, r3, asr #2
    3b38:	3e070803 	cdpcc	8, 0, cr0, cr7, cr3, {0}
    3b3c:	03000001 	movweq	r0, #1
    3b40:	01550704 	cmpeq	r5, r4, lsl #14
    3b44:	01030000 	mrseq	r0, (UNDEF: 3)
    3b48:	00006208 	andeq	r6, r0, r8, lsl #4
    3b4c:	0a9a0400 	beq	fe684b54 <__bss_end__+0xfe678fa4>
    3b50:	0d010000 	stceq	0, cr0, [r1, #-0]
    3b54:	00009eb8 			; <UNDEFINED> instruction: 0x00009eb8
    3b58:	00000034 	andeq	r0, r0, r4, lsr r0
    3b5c:	00d89c01 	sbcseq	r9, r8, r1, lsl #24
    3b60:	e2050000 	and	r0, r5, #0
    3b64:	01000004 	tsteq	r0, r4
    3b68:	0000250e 	andeq	r2, r0, lr, lsl #10
    3b6c:	04f00500 	ldrbteq	r0, [r0], #1280	; 0x500
    3b70:	0e010000 	cdpeq	0, 0, cr0, cr1, cr0, {0}
    3b74:	00000025 	andeq	r0, r0, r5, lsr #32
    3b78:	00004206 	andeq	r4, r0, r6, lsl #4
    3b7c:	070f0100 	streq	r0, [pc, -r0, lsl #2]
    3b80:	00737362 	rsbseq	r7, r3, r2, ror #6
    3b84:	00d81101 	sbcseq	r1, r8, r1, lsl #2
    3b88:	15fd0000 	ldrbne	r0, [sp, #0]!
    3b8c:	92080000 	andls	r0, r8, #0
    3b90:	0100000a 	tsteq	r0, sl
    3b94:	0000d812 	andeq	sp, r0, r2, lsl r8
    3b98:	9ee00900 	cdpls	9, 14, cr0, cr0, cr0, {0}
    3b9c:	00f40000 	rscseq	r0, r4, r0
    3ba0:	e4090000 	str	r0, [r9], #-0
    3ba4:	fb00009e 	blx	3e26 <__code_start__-0x41da>
    3ba8:	00000000 	andeq	r0, r0, r0
    3bac:	0025040a 	eoreq	r0, r5, sl, lsl #8
    3bb0:	e2050000 	and	r0, r5, #0
    3bb4:	01000004 	tsteq	r0, r4
    3bb8:	0000250e 	andeq	r2, r0, lr, lsl #10
    3bbc:	04f00500 	ldrbteq	r0, [r0], #1280	; 0x500
    3bc0:	0e010000 	cdpeq	0, 0, cr0, cr1, cr0, {0}
    3bc4:	00000025 	andeq	r0, r0, r5, lsr #32
    3bc8:	00004206 	andeq	r4, r0, r6, lsl #4
    3bcc:	06d70200 	ldrbeq	r0, [r7], r0, lsl #4
    3bd0:	00000072 	andeq	r0, r0, r2, ror r0
    3bd4:	3e006502 	cfsh32cc	mvfx6, mvfx0, #2
    3bd8:	04000001 	streq	r0, [r0], #-1
    3bdc:	00108000 	andseq	r8, r0, r0
    3be0:	d6010400 	strle	r0, [r1], -r0, lsl #8
    3be4:	01000008 	tsteq	r0, r8
    3be8:	00000ab5 			; <UNDEFINED> instruction: 0x00000ab5
    3bec:	0000092d 	andeq	r0, r0, sp, lsr #18
    3bf0:	00009eec 	andeq	r9, r0, ip, ror #29
    3bf4:	00000044 	andeq	r0, r0, r4, asr #32
    3bf8:	00000fe2 	andeq	r0, r0, r2, ror #31
    3bfc:	69050402 	stmdbvs	r5, {r1, sl}
    3c00:	0300746e 	movweq	r7, #1134	; 0x46e
    3c04:	01480704 	cmpeq	r8, r4, lsl #14
    3c08:	01030000 	mrseq	r0, (UNDEF: 3)
    3c0c:	00005b06 	andeq	r5, r0, r6, lsl #22
    3c10:	05020300 	streq	r0, [r2, #-768]	; 0x300
    3c14:	00000195 	muleq	r0, r5, r1
    3c18:	76050403 	strvc	r0, [r5], -r3, lsl #8
    3c1c:	03000001 	movweq	r0, #1
    3c20:	01710508 	cmneq	r1, r8, lsl #10
    3c24:	01030000 	mrseq	r0, (UNDEF: 3)
    3c28:	00005908 	andeq	r5, r0, r8, lsl #18
    3c2c:	07020300 	streq	r0, [r2, -r0, lsl #6]
    3c30:	00000020 	andeq	r0, r0, r0, lsr #32
    3c34:	43070403 	movwmi	r0, #29699	; 0x7403
    3c38:	03000001 	movweq	r0, #1
    3c3c:	013e0708 	teqeq	lr, r8, lsl #14
    3c40:	04030000 	streq	r0, [r3], #-0
    3c44:	00015507 	andeq	r5, r1, r7, lsl #10
    3c48:	08010300 	stmdaeq	r1, {r8, r9}
    3c4c:	00000062 	andeq	r0, r0, r2, rrx
    3c50:	007f0404 	rsbseq	r0, pc, r4, lsl #8
    3c54:	72050000 	andvc	r0, r5, #0
    3c58:	06000000 	streq	r0, [r0], -r0
    3c5c:	00000adc 	ldrdeq	r0, [r0], -ip
    3c60:	9eec0201 	cdpls	2, 14, cr0, cr12, cr1, {0}
    3c64:	00440000 	subeq	r0, r4, r0
    3c68:	9c010000 	stcls	0, cr0, [r1], {-0}
    3c6c:	00000108 	andeq	r0, r0, r8, lsl #2
    3c70:	00637007 	rsbeq	r7, r3, r7
    3c74:	002c0201 	eoreq	r0, ip, r1, lsl #4
    3c78:	161d0000 	ldrne	r0, [sp], -r0
    3c7c:	bc080000 	stclt	0, cr0, [r8], {-0}
    3c80:	18000000 	stmdane	r0, {}	; <UNPREDICTABLE>
    3c84:	05000001 	streq	r0, [r0, #-1]
    3c88:	00b2b403 	adcseq	fp, r2, r3, lsl #8
    3c8c:	9efc0900 	cdpls	9, 15, cr0, cr12, cr0, {0}
    3c90:	011d0000 	tsteq	sp, r0
    3c94:	1c0a0000 	stcne	0, cr0, [sl], {-0}
    3c98:	2400009f 	strcs	r0, [r0], #-159	; 0x9f
    3c9c:	fe000001 	cdp2	0, 0, cr0, cr0, cr1, {0}
    3ca0:	0b000000 	bleq	3ca8 <__code_start__-0x4358>
    3ca4:	32015301 	andcc	r5, r1, #67108864	; 0x4000000
    3ca8:	0552010b 	ldrbeq	r0, [r2, #-267]	; 0x10b
    3cac:	00b2b403 	adcseq	fp, r2, r3, lsl #8
    3cb0:	51010b00 	tstpl	r1, r0, lsl #22
    3cb4:	b3040305 	movwlt	r0, #17157	; 0x4305
    3cb8:	010b0000 	mrseq	r0, (UNDEF: 11)
    3cbc:	c8030550 	stmdagt	r3, {r4, r6, r8, sl}
    3cc0:	0b0000b2 	bleq	3f90 <__code_start__-0x4070>
    3cc4:	02047d02 	andeq	r7, r4, #2, 26	; 0x80
    3cc8:	020b0074 	andeq	r0, fp, #116	; 0x74
    3ccc:	0305007d 	movweq	r0, #20605	; 0x507d
    3cd0:	0000b32c 	andeq	fp, r0, ip, lsr #6
    3cd4:	9f200900 	svcls	0x00200900
    3cd8:	013a0000 	teqeq	sl, r0
    3cdc:	0c000000 	stceq	0, cr0, [r0], {-0}
    3ce0:	00000072 	andeq	r0, r0, r2, ror r0
    3ce4:	00000118 	andeq	r0, r0, r8, lsl r1
    3ce8:	00006b0d 	andeq	r6, r0, sp, lsl #22
    3cec:	05001100 	streq	r1, [r0, #-256]	; 0x100
    3cf0:	00000108 	andeq	r0, r0, r8, lsl #2
    3cf4:	0002240e 	andeq	r2, r2, lr, lsl #8
    3cf8:	0f1e0200 	svceq	0x001e0200
    3cfc:	000009a1 	andeq	r0, r0, r1, lsr #19
    3d00:	00252902 	eoreq	r2, r5, r2, lsl #18
    3d04:	013a0000 	teqeq	sl, r0
    3d08:	79100000 	ldmdbvc	r0, {}	; <UNPREDICTABLE>
    3d0c:	11000000 	mrsne	r0, (UNDEF: 0)
    3d10:	00720e00 	rsbseq	r0, r2, r0, lsl #28
    3d14:	65020000 	strvs	r0, [r2, #-0]
    3d18:	00013e00 	andeq	r3, r1, r0, lsl #28
    3d1c:	58000400 	stmdapl	r0, {sl}
    3d20:	04000011 	streq	r0, [r0], #-17
    3d24:	0008d601 	andeq	sp, r8, r1, lsl #12
    3d28:	0aee0100 	beq	ffb84130 <__bss_end__+0xffb78580>
    3d2c:	092d0000 	pusheq	{}	; <UNPREDICTABLE>
    3d30:	9f300000 	svcls	0x00300000
    3d34:	00440000 	subeq	r0, r4, r0
    3d38:	108e0000 	addne	r0, lr, r0
    3d3c:	04020000 	streq	r0, [r2], #-0
    3d40:	746e6905 	strbtvc	r6, [lr], #-2309	; 0x905
    3d44:	07040300 	streq	r0, [r4, -r0, lsl #6]
    3d48:	00000148 	andeq	r0, r0, r8, asr #2
    3d4c:	5b060103 	blpl	184160 <__bss_end__+0x1785b0>
    3d50:	03000000 	movweq	r0, #0
    3d54:	01950502 	orrseq	r0, r5, r2, lsl #10
    3d58:	04030000 	streq	r0, [r3], #-0
    3d5c:	00017605 	andeq	r7, r1, r5, lsl #12
    3d60:	05080300 	streq	r0, [r8, #-768]	; 0x300
    3d64:	00000171 	andeq	r0, r0, r1, ror r1
    3d68:	59080103 	stmdbpl	r8, {r0, r1, r8}
    3d6c:	03000000 	movweq	r0, #0
    3d70:	00200702 	eoreq	r0, r0, r2, lsl #14
    3d74:	04030000 	streq	r0, [r3], #-0
    3d78:	00014307 	andeq	r4, r1, r7, lsl #6
    3d7c:	07080300 	streq	r0, [r8, -r0, lsl #6]
    3d80:	0000013e 	andeq	r0, r0, lr, lsr r1
    3d84:	55070403 	strpl	r0, [r7, #-1027]	; 0x403
    3d88:	03000001 	movweq	r0, #1
    3d8c:	00620801 	rsbeq	r0, r2, r1, lsl #16
    3d90:	04040000 	streq	r0, [r4], #-0
    3d94:	0000007f 	andeq	r0, r0, pc, ror r0
    3d98:	00007205 	andeq	r7, r0, r5, lsl #4
    3d9c:	0b0f0600 	bleq	3c55a4 <__bss_end__+0x3b99f4>
    3da0:	02010000 	andeq	r0, r1, #0
    3da4:	00009f30 	andeq	r9, r0, r0, lsr pc
    3da8:	00000044 	andeq	r0, r0, r4, asr #32
    3dac:	01089c01 	tsteq	r8, r1, lsl #24
    3db0:	70070000 	andvc	r0, r7, r0
    3db4:	02010063 	andeq	r0, r1, #99	; 0x63
    3db8:	0000002c 	andeq	r0, r0, ip, lsr #32
    3dbc:	0000163b 	andeq	r1, r0, fp, lsr r6
    3dc0:	0000bc08 	andeq	fp, r0, r8, lsl #24
    3dc4:	00011800 	andeq	r1, r1, r0, lsl #16
    3dc8:	38030500 	stmdacc	r3, {r8, sl}
    3dcc:	090000b3 	stmdbeq	r0, {r0, r1, r4, r5, r7}
    3dd0:	00009f40 	andeq	r9, r0, r0, asr #30
    3dd4:	0000011d 	andeq	r0, r0, sp, lsl r1
    3dd8:	009f600a 	addseq	r6, pc, sl
    3ddc:	00012400 	andeq	r2, r1, r0, lsl #8
    3de0:	0000fe00 	andeq	pc, r0, r0, lsl #28
    3de4:	53010b00 	movwpl	r0, #6912	; 0x1b00
    3de8:	010b3201 	tsteq	fp, r1, lsl #4
    3dec:	38030552 	stmdacc	r3, {r1, r4, r6, r8, sl}
    3df0:	0b0000b3 	bleq	40c4 <__code_start__-0x3f3c>
    3df4:	03055101 	movweq	r5, #20737	; 0x5101
    3df8:	0000b350 	andeq	fp, r0, r0, asr r3
    3dfc:	0550010b 	ldrbeq	r0, [r0, #-267]	; 0x10b
    3e00:	00b2c803 	adcseq	ip, r2, r3, lsl #16
    3e04:	7d020b00 	vstrvc	d0, [r2, #-0]
    3e08:	00740204 	rsbseq	r0, r4, r4, lsl #4
    3e0c:	007d020b 	rsbseq	r0, sp, fp, lsl #4
    3e10:	b3740305 	cmnlt	r4, #335544320	; 0x14000000
    3e14:	09000000 	stmdbeq	r0, {}	; <UNPREDICTABLE>
    3e18:	00009f64 	andeq	r9, r0, r4, ror #30
    3e1c:	0000013a 	andeq	r0, r0, sl, lsr r1
    3e20:	00720c00 	rsbseq	r0, r2, r0, lsl #24
    3e24:	01180000 	tsteq	r8, r0
    3e28:	6b0d0000 	blvs	343e30 <__bss_end__+0x338280>
    3e2c:	15000000 	strne	r0, [r0, #-0]
    3e30:	01080500 	tsteq	r8, r0, lsl #10
    3e34:	240e0000 	strcs	r0, [lr], #-0
    3e38:	02000002 	andeq	r0, r0, #2
    3e3c:	09a10f1e 	stmibeq	r1!, {r1, r2, r3, r4, r8, r9, sl, fp}
    3e40:	29020000 	stmdbcs	r2, {}	; <UNPREDICTABLE>
    3e44:	00000025 	andeq	r0, r0, r5, lsr #32
    3e48:	0000013a 	andeq	r0, r0, sl, lsr r1
    3e4c:	00007910 	andeq	r7, r0, r0, lsl r9
    3e50:	0e001100 	adfeqs	f1, f0, f0
    3e54:	00000072 	andeq	r0, r0, r2, ror r0
    3e58:	3e006502 	cfsh32cc	mvfx6, mvfx0, #2
    3e5c:	04000001 	streq	r0, [r0], #-1
    3e60:	00123000 	andseq	r3, r2, r0
    3e64:	d6010400 	strle	r0, [r1], -r0, lsl #8
    3e68:	01000008 	tsteq	r0, r8
    3e6c:	00000b25 	andeq	r0, r0, r5, lsr #22
    3e70:	0000092d 	andeq	r0, r0, sp, lsr #18
    3e74:	00009f74 	andeq	r9, r0, r4, ror pc
    3e78:	00000044 	andeq	r0, r0, r4, asr #32
    3e7c:	00001134 	andeq	r1, r0, r4, lsr r1
    3e80:	69050402 	stmdbvs	r5, {r1, sl}
    3e84:	0300746e 	movweq	r7, #1134	; 0x46e
    3e88:	01480704 	cmpeq	r8, r4, lsl #14
    3e8c:	01030000 	mrseq	r0, (UNDEF: 3)
    3e90:	00005b06 	andeq	r5, r0, r6, lsl #22
    3e94:	05020300 	streq	r0, [r2, #-768]	; 0x300
    3e98:	00000195 	muleq	r0, r5, r1
    3e9c:	76050403 	strvc	r0, [r5], -r3, lsl #8
    3ea0:	03000001 	movweq	r0, #1
    3ea4:	01710508 	cmneq	r1, r8, lsl #10
    3ea8:	01030000 	mrseq	r0, (UNDEF: 3)
    3eac:	00005908 	andeq	r5, r0, r8, lsl #18
    3eb0:	07020300 	streq	r0, [r2, -r0, lsl #6]
    3eb4:	00000020 	andeq	r0, r0, r0, lsr #32
    3eb8:	43070403 	movwmi	r0, #29699	; 0x7403
    3ebc:	03000001 	movweq	r0, #1
    3ec0:	013e0708 	teqeq	lr, r8, lsl #14
    3ec4:	04030000 	streq	r0, [r3], #-0
    3ec8:	00015507 	andeq	r5, r1, r7, lsl #10
    3ecc:	08010300 	stmdaeq	r1, {r8, r9}
    3ed0:	00000062 	andeq	r0, r0, r2, rrx
    3ed4:	007f0404 	rsbseq	r0, pc, r4, lsl #8
    3ed8:	72050000 	andvc	r0, r5, #0
    3edc:	06000000 	streq	r0, [r0], -r0
    3ee0:	00000b4a 	andeq	r0, r0, sl, asr #22
    3ee4:	9f740201 	svcls	0x00740201
    3ee8:	00440000 	subeq	r0, r4, r0
    3eec:	9c010000 	stcls	0, cr0, [r1], {-0}
    3ef0:	00000108 	andeq	r0, r0, r8, lsl #2
    3ef4:	00637007 	rsbeq	r7, r3, r7
    3ef8:	002c0201 	eoreq	r0, ip, r1, lsl #4
    3efc:	16590000 	ldrbne	r0, [r9], -r0
    3f00:	bc080000 	stclt	0, cr0, [r8], {-0}
    3f04:	18000000 	stmdane	r0, {}	; <UNPREDICTABLE>
    3f08:	05000001 	streq	r0, [r0, #-1]
    3f0c:	00b37c03 	adcseq	r7, r3, r3, lsl #24
    3f10:	9f840900 	svcls	0x00840900
    3f14:	011d0000 	tsteq	sp, r0
    3f18:	a40a0000 	strge	r0, [sl], #-0
    3f1c:	2400009f 	strcs	r0, [r0], #-159	; 0x9f
    3f20:	fe000001 	cdp2	0, 0, cr0, cr0, cr1, {0}
    3f24:	0b000000 	bleq	3f2c <__code_start__-0x40d4>
    3f28:	32015301 	andcc	r5, r1, #67108864	; 0x4000000
    3f2c:	0552010b 	ldrbeq	r0, [r2, #-267]	; 0x10b
    3f30:	00b37c03 	adcseq	r7, r3, r3, lsl #24
    3f34:	51010b00 	tstpl	r1, r0, lsl #22
    3f38:	b3940305 	orrslt	r0, r4, #335544320	; 0x14000000
    3f3c:	010b0000 	mrseq	r0, (UNDEF: 11)
    3f40:	c8030550 	stmdagt	r3, {r4, r6, r8, sl}
    3f44:	0b0000b2 	bleq	4214 <__code_start__-0x3dec>
    3f48:	02047d02 	andeq	r7, r4, #2, 26	; 0x80
    3f4c:	020b0074 	andeq	r0, fp, #116	; 0x74
    3f50:	0305007d 	movweq	r0, #20605	; 0x507d
    3f54:	0000b3bc 			; <UNDEFINED> instruction: 0x0000b3bc
    3f58:	9fa80900 	svcls	0x00a80900
    3f5c:	013a0000 	teqeq	sl, r0
    3f60:	0c000000 	stceq	0, cr0, [r0], {-0}
    3f64:	00000072 	andeq	r0, r0, r2, ror r0
    3f68:	00000118 	andeq	r0, r0, r8, lsl r1
    3f6c:	00006b0d 	andeq	r6, r0, sp, lsl #22
    3f70:	05001500 	streq	r1, [r0, #-1280]	; 0x500
    3f74:	00000108 	andeq	r0, r0, r8, lsl #2
    3f78:	0002240e 	andeq	r2, r2, lr, lsl #8
    3f7c:	0f1e0200 	svceq	0x001e0200
    3f80:	000009a1 	andeq	r0, r0, r1, lsr #19
    3f84:	00252902 	eoreq	r2, r5, r2, lsl #18
    3f88:	013a0000 	teqeq	sl, r0
    3f8c:	79100000 	ldmdbvc	r0, {}	; <UNPREDICTABLE>
    3f90:	11000000 	mrsne	r0, (UNDEF: 0)
    3f94:	00720e00 	rsbseq	r0, r2, r0, lsl #28
    3f98:	65020000 	strvs	r0, [r2, #-0]
    3f9c:	00013e00 	andeq	r3, r1, r0, lsl #28
    3fa0:	08000400 	stmdaeq	r0, {sl}
    3fa4:	04000013 	streq	r0, [r0], #-19
    3fa8:	0008d601 	andeq	sp, r8, r1, lsl #12
    3fac:	0b6d0100 	bleq	1b443b4 <__bss_end__+0x1b38804>
    3fb0:	092d0000 	pusheq	{}	; <UNPREDICTABLE>
    3fb4:	9fb80000 	svcls	0x00b80000
    3fb8:	00440000 	subeq	r0, r4, r0
    3fbc:	11de0000 	bicsne	r0, lr, r0
    3fc0:	04020000 	streq	r0, [r2], #-0
    3fc4:	746e6905 	strbtvc	r6, [lr], #-2309	; 0x905
    3fc8:	07040300 	streq	r0, [r4, -r0, lsl #6]
    3fcc:	00000148 	andeq	r0, r0, r8, asr #2
    3fd0:	5b060103 	blpl	1843e4 <__bss_end__+0x178834>
    3fd4:	03000000 	movweq	r0, #0
    3fd8:	01950502 	orrseq	r0, r5, r2, lsl #10
    3fdc:	04030000 	streq	r0, [r3], #-0
    3fe0:	00017605 	andeq	r7, r1, r5, lsl #12
    3fe4:	05080300 	streq	r0, [r8, #-768]	; 0x300
    3fe8:	00000171 	andeq	r0, r0, r1, ror r1
    3fec:	59080103 	stmdbpl	r8, {r0, r1, r8}
    3ff0:	03000000 	movweq	r0, #0
    3ff4:	00200702 	eoreq	r0, r0, r2, lsl #14
    3ff8:	04030000 	streq	r0, [r3], #-0
    3ffc:	00014307 	andeq	r4, r1, r7, lsl #6
    4000:	07080300 	streq	r0, [r8, -r0, lsl #6]
    4004:	0000013e 	andeq	r0, r0, lr, lsr r1
    4008:	55070403 	strpl	r0, [r7, #-1027]	; 0x403
    400c:	03000001 	movweq	r0, #1
    4010:	00620801 	rsbeq	r0, r2, r1, lsl #16
    4014:	04040000 	streq	r0, [r4], #-0
    4018:	0000007f 	andeq	r0, r0, pc, ror r0
    401c:	00007205 	andeq	r7, r0, r5, lsl #4
    4020:	0b600600 	bleq	1805828 <__bss_end__+0x17f9c78>
    4024:	02010000 	andeq	r0, r1, #0
    4028:	00009fb8 			; <UNDEFINED> instruction: 0x00009fb8
    402c:	00000044 	andeq	r0, r0, r4, asr #32
    4030:	01089c01 	tsteq	r8, r1, lsl #24
    4034:	70070000 	andvc	r0, r7, r0
    4038:	02010063 	andeq	r0, r1, #99	; 0x63
    403c:	0000002c 	andeq	r0, r0, ip, lsr #32
    4040:	00001677 	andeq	r1, r0, r7, ror r6
    4044:	0000bc08 	andeq	fp, r0, r8, lsl #24
    4048:	00011800 	andeq	r1, r1, r0, lsl #16
    404c:	cc030500 	cfstr32gt	mvfx0, [r3], {-0}
    4050:	090000b3 	stmdbeq	r0, {r0, r1, r4, r5, r7}
    4054:	00009fc8 	andeq	r9, r0, r8, asr #31
    4058:	0000011d 	andeq	r0, r0, sp, lsl r1
    405c:	009fe80a 	addseq	lr, pc, sl, lsl #16
    4060:	00012400 	andeq	r2, r1, r0, lsl #8
    4064:	0000fe00 	andeq	pc, r0, r0, lsl #28
    4068:	53010b00 	movwpl	r0, #6912	; 0x1b00
    406c:	010b3201 	tsteq	fp, r1, lsl #4
    4070:	cc030552 	cfstr32gt	mvfx0, [r3], {82}	; 0x52
    4074:	0b0000b3 	bleq	4348 <__code_start__-0x3cb8>
    4078:	03055101 	movweq	r5, #20737	; 0x5101
    407c:	0000b3dc 	ldrdeq	fp, [r0], -ip
    4080:	0550010b 	ldrbeq	r0, [r0, #-267]	; 0x10b
    4084:	00b2c803 	adcseq	ip, r2, r3, lsl #16
    4088:	7d020b00 	vstrvc	d0, [r2, #-0]
    408c:	00740204 	rsbseq	r0, r4, r4, lsl #4
    4090:	007d020b 	rsbseq	r0, sp, fp, lsl #4
    4094:	b4000305 	strlt	r0, [r0], #-773	; 0x305
    4098:	09000000 	stmdbeq	r0, {}	; <UNPREDICTABLE>
    409c:	00009fec 	andeq	r9, r0, ip, ror #31
    40a0:	0000013a 	andeq	r0, r0, sl, lsr r1
    40a4:	00720c00 	rsbseq	r0, r2, r0, lsl #24
    40a8:	01180000 	tsteq	r8, r0
    40ac:	6b0d0000 	blvs	3440b4 <__bss_end__+0x338504>
    40b0:	0c000000 	stceq	0, cr0, [r0], {-0}
    40b4:	01080500 	tsteq	r8, r0, lsl #10
    40b8:	240e0000 	strcs	r0, [lr], #-0
    40bc:	02000002 	andeq	r0, r0, #2
    40c0:	09a10f1e 	stmibeq	r1!, {r1, r2, r3, r4, r8, r9, sl, fp}
    40c4:	29020000 	stmdbcs	r2, {}	; <UNPREDICTABLE>
    40c8:	00000025 	andeq	r0, r0, r5, lsr #32
    40cc:	0000013a 	andeq	r0, r0, sl, lsr r1
    40d0:	00007910 	andeq	r7, r0, r0, lsl r9
    40d4:	0e001100 	adfeqs	f1, f0, f0
    40d8:	00000072 	andeq	r0, r0, r2, ror r0
    40dc:	3e006502 	cfsh32cc	mvfx6, mvfx0, #2
    40e0:	04000001 	streq	r0, [r0], #-1
    40e4:	0013e000 	andseq	lr, r3, r0
    40e8:	d6010400 	strle	r0, [r1], -r0, lsl #8
    40ec:	01000008 	tsteq	r0, r8
    40f0:	00000b8f 	andeq	r0, r0, pc, lsl #23
    40f4:	0000092d 	andeq	r0, r0, sp, lsr #18
    40f8:	00009ffc 	strdeq	r9, [r0], -ip
    40fc:	00000044 	andeq	r0, r0, r4, asr #32
    4100:	00001285 	andeq	r1, r0, r5, lsl #5
    4104:	69050402 	stmdbvs	r5, {r1, sl}
    4108:	0300746e 	movweq	r7, #1134	; 0x46e
    410c:	01480704 	cmpeq	r8, r4, lsl #14
    4110:	01030000 	mrseq	r0, (UNDEF: 3)
    4114:	00005b06 	andeq	r5, r0, r6, lsl #22
    4118:	05020300 	streq	r0, [r2, #-768]	; 0x300
    411c:	00000195 	muleq	r0, r5, r1
    4120:	76050403 	strvc	r0, [r5], -r3, lsl #8
    4124:	03000001 	movweq	r0, #1
    4128:	01710508 	cmneq	r1, r8, lsl #10
    412c:	01030000 	mrseq	r0, (UNDEF: 3)
    4130:	00005908 	andeq	r5, r0, r8, lsl #18
    4134:	07020300 	streq	r0, [r2, -r0, lsl #6]
    4138:	00000020 	andeq	r0, r0, r0, lsr #32
    413c:	43070403 	movwmi	r0, #29699	; 0x7403
    4140:	03000001 	movweq	r0, #1
    4144:	013e0708 	teqeq	lr, r8, lsl #14
    4148:	04030000 	streq	r0, [r3], #-0
    414c:	00015507 	andeq	r5, r1, r7, lsl #10
    4150:	08010300 	stmdaeq	r1, {r8, r9}
    4154:	00000062 	andeq	r0, r0, r2, rrx
    4158:	007f0404 	rsbseq	r0, pc, r4, lsl #8
    415c:	72050000 	andvc	r0, r5, #0
    4160:	06000000 	streq	r0, [r0], -r0
    4164:	00000072 	andeq	r0, r0, r2, ror r0
    4168:	00000094 	muleq	r0, r4, r0
    416c:	00006b07 	andeq	r6, r0, r7, lsl #22
    4170:	08001900 	stmdaeq	r0, {r8, fp, ip}
    4174:	00000baf 	andeq	r0, r0, pc, lsr #23
    4178:	9ffc0201 	svcls	0x00fc0201
    417c:	00440000 	subeq	r0, r4, r0
    4180:	9c010000 	stcls	0, cr0, [r1], {-0}
    4184:	00000118 	andeq	r0, r0, r8, lsl r1
    4188:	00637009 	rsbeq	r7, r3, r9
    418c:	002c0201 	eoreq	r0, ip, r1, lsl #4
    4190:	16950000 	ldrne	r0, [r5], r0
    4194:	bc0a0000 	stclt	0, cr0, [sl], {-0}
    4198:	18000000 	stmdane	r0, {}	; <UNPREDICTABLE>
    419c:	05000001 	streq	r0, [r0, #-1]
    41a0:	00b40803 	adcseq	r0, r4, r3, lsl #16
    41a4:	a00c0b00 	andge	r0, ip, r0, lsl #22
    41a8:	011d0000 	tsteq	sp, r0
    41ac:	2c0c0000 	stccs	0, cr0, [ip], {-0}
    41b0:	240000a0 	strcs	r0, [r0], #-160	; 0xa0
    41b4:	0e000001 	cdpeq	0, 0, cr0, cr0, cr1, {0}
    41b8:	0d000001 	stceq	0, cr0, [r0, #-4]
    41bc:	32015301 	andcc	r5, r1, #67108864	; 0x4000000
    41c0:	0552010d 	ldrbeq	r0, [r2, #-269]	; 0x10d
    41c4:	00b40803 	adcseq	r0, r4, r3, lsl #16
    41c8:	51010d00 	tstpl	r1, r0, lsl #26
    41cc:	b4240305 	strtlt	r0, [r4], #-773	; 0x305
    41d0:	010d0000 	mrseq	r0, (UNDEF: 13)
    41d4:	c8030550 	stmdagt	r3, {r4, r6, r8, sl}
    41d8:	0d0000b2 	stceq	0, cr0, [r0, #-712]	; 0xfffffd38
    41dc:	02047d02 	andeq	r7, r4, #2, 26	; 0x80
    41e0:	020d0074 	andeq	r0, sp, #116	; 0x74
    41e4:	0305007d 	movweq	r0, #20605	; 0x507d
    41e8:	0000b444 	andeq	fp, r0, r4, asr #8
    41ec:	a0300b00 	eorsge	r0, r0, r0, lsl #22
    41f0:	013a0000 	teqeq	sl, r0
    41f4:	05000000 	streq	r0, [r0, #-0]
    41f8:	00000084 	andeq	r0, r0, r4, lsl #1
    41fc:	0002240e 	andeq	r2, r2, lr, lsl #8
    4200:	0f1e0200 	svceq	0x001e0200
    4204:	000009a1 	andeq	r0, r0, r1, lsr #19
    4208:	00252902 	eoreq	r2, r5, r2, lsl #18
    420c:	013a0000 	teqeq	sl, r0
    4210:	79100000 	ldmdbvc	r0, {}	; <UNPREDICTABLE>
    4214:	11000000 	mrsne	r0, (UNDEF: 0)
    4218:	00720e00 	rsbseq	r0, r2, r0, lsl #28
    421c:	65020000 	strvs	r0, [r2, #-0]
    4220:	0001d700 	andeq	sp, r1, r0, lsl #14
    4224:	b8000400 	stmdalt	r0, {sl}
    4228:	04000014 	streq	r0, [r0], #-20
    422c:	0008d601 	andeq	sp, r8, r1, lsl #12
    4230:	0bef0100 	bleq	ffbc4638 <__bss_end__+0xffbb8a88>
    4234:	092d0000 	pusheq	{}	; <UNPREDICTABLE>
    4238:	a0400000 	subge	r0, r0, r0
    423c:	006c0000 	rsbeq	r0, ip, r0
    4240:	132a0000 	teqne	sl, #0
    4244:	04020000 	streq	r0, [r2], #-0
    4248:	746e6905 	strbtvc	r6, [lr], #-2309	; 0x905
    424c:	07040300 	streq	r0, [r4, -r0, lsl #6]
    4250:	00000148 	andeq	r0, r0, r8, asr #2
    4254:	5b060103 	blpl	184668 <__bss_end__+0x178ab8>
    4258:	03000000 	movweq	r0, #0
    425c:	01950502 	orrseq	r0, r5, r2, lsl #10
    4260:	04030000 	streq	r0, [r3], #-0
    4264:	00017605 	andeq	r7, r1, r5, lsl #12
    4268:	05080300 	streq	r0, [r8, #-768]	; 0x300
    426c:	00000171 	andeq	r0, r0, r1, ror r1
    4270:	59080103 	stmdbpl	r8, {r0, r1, r8}
    4274:	03000000 	movweq	r0, #0
    4278:	00200702 	eoreq	r0, r0, r2, lsl #14
    427c:	04030000 	streq	r0, [r3], #-0
    4280:	00014307 	andeq	r4, r1, r7, lsl #6
    4284:	07080300 	streq	r0, [r8, -r0, lsl #6]
    4288:	0000013e 	andeq	r0, r0, lr, lsr r1
    428c:	55070403 	strpl	r0, [r7, #-1027]	; 0x403
    4290:	03000001 	movweq	r0, #1
    4294:	00620801 	rsbeq	r0, r2, r1, lsl #16
    4298:	04040000 	streq	r0, [r4], #-0
    429c:	00f01402 	rscseq	r1, r0, r2, lsl #8
    42a0:	5c050000 	stcpl	0, cr0, [r5], {-0}
    42a4:	80000006 	andhi	r0, r0, r6
    42a8:	028082e4 	addeq	r8, r0, #228, 4	; 0x4000000e
    42ac:	0007b705 	andeq	fp, r7, r5, lsl #14
    42b0:	82e48000 	rschi	r8, r4, #0
    42b4:	8d050280 	sfmhi	f0, 4, [r5, #-512]	; 0xfffffe00
    42b8:	84000006 	strhi	r0, [r0], #-6
    42bc:	028082e4 	addeq	r8, r0, #228, 4	; 0x4000000e
    42c0:	00069b05 	andeq	r9, r6, r5, lsl #22
    42c4:	82e48800 	rschi	r8, r4, #0, 16
    42c8:	65050280 	strvs	r0, [r5, #-640]	; 0x280
    42cc:	8c000006 	stchi	0, cr0, [r0], {6}
    42d0:	028082e4 	addeq	r8, r0, #228, 4	; 0x4000000e
    42d4:	0006c205 	andeq	ip, r6, r5, lsl #4
    42d8:	82e49000 	rschi	r9, r4, #0
    42dc:	d0050280 	andle	r0, r5, r0, lsl #5
    42e0:	94000006 	strls	r0, [r0], #-6
    42e4:	028082e4 	addeq	r8, r0, #228, 4	; 0x4000000e
    42e8:	0007c905 	andeq	ip, r7, r5, lsl #18
    42ec:	82e49800 	rschi	r9, r4, #0, 16
    42f0:	b9050280 	stmdblt	r5, {r7, r9}
    42f4:	9c000005 	stcls	0, cr0, [r0], {5}
    42f8:	028082e4 	addeq	r8, r0, #228, 4	; 0x4000000e
    42fc:	0005c805 	andeq	ip, r5, r5, lsl #16
    4300:	82e4a000 	rschi	sl, r4, #0
    4304:	a9050280 	stmdbge	r5, {r7, r9}
    4308:	a4000006 	strge	r0, [r0], #-6
    430c:	028082e4 	addeq	r8, r0, #228, 4	; 0x4000000e
    4310:	07300600 	ldreq	r0, [r0, -r0, lsl #12]!
    4314:	1b010000 	blne	4431c <__bss_end__+0x3876c>
    4318:	0000a040 	andeq	sl, r0, r0, asr #32
    431c:	0000006c 	andeq	r0, r0, ip, rrx
    4320:	01a59c01 			; <UNDEFINED> instruction: 0x01a59c01
    4324:	c9070000 	stmdbgt	r7, {}	; <UNPREDICTABLE>
    4328:	0100000b 	tsteq	r0, fp
    432c:	00002c23 	andeq	r2, r0, r3, lsr #24
    4330:	0bda0700 	bleq	ff685f38 <__bss_end__+0xff67a388>
    4334:	24010000 	strcs	r0, [r1], #-0
    4338:	0000002c 	andeq	r0, r0, ip, lsr #32
    433c:	74736408 	ldrbtvc	r6, [r3], #-1032	; 0x408
    4340:	a5270100 	strge	r0, [r7, #-256]!	; 0x100
    4344:	00000001 	andeq	r0, r0, r1
    4348:	63727309 	cmnvs	r2, #603979776	; 0x24000000
    434c:	a5280100 	strge	r0, [r8, #-256]!	; 0x100
    4350:	0a000001 	beq	435c <__code_start__-0x3ca4>
    4354:	2901006e 	stmdbcs	r1, {r1, r2, r3, r5, r6}
    4358:	0000002c 	andeq	r0, r0, ip, lsr #32
    435c:	740b5001 	strvc	r5, [fp], #-1
    4360:	240000a0 	strcs	r0, [r0], #-160	; 0xa0
    4364:	58000000 	stmdapl	r0, {}	; <UNPREDICTABLE>
    4368:	0c000001 	stceq	0, cr0, [r0], {1}
    436c:	2a010069 	bcs	44518 <__bss_end__+0x38968>
    4370:	00000025 	andeq	r0, r0, r5, lsr #32
    4374:	000016b3 			; <UNDEFINED> instruction: 0x000016b3
    4378:	a0480d00 	subge	r0, r8, r0, lsl #26
    437c:	01c10000 	biceq	r0, r1, r0
    4380:	540e0000 	strpl	r0, [lr], #-0
    4384:	c80000a0 	stmdagt	r0, {r5, r7}
    4388:	7e000001 	cdpvc	0, 0, cr0, cr0, cr1, {0}
    438c:	0f000001 	svceq	0x00000001
    4390:	09025101 	stmdbeq	r2, {r0, r8, ip, lr}
    4394:	50010fff 	strdpl	r0, [r1], -pc	; <UNPREDICTABLE>
    4398:	b21c0c05 	andslt	r0, ip, #1280	; 0x500
    439c:	0e002000 	cdpeq	0, 0, cr2, cr0, cr0, {0}
    43a0:	0000a060 	andeq	sl, r0, r0, rrx
    43a4:	000001c8 	andeq	r0, r0, r8, asr #3
    43a8:	0000019b 	muleq	r0, fp, r1
    43ac:	0251010f 	subseq	r0, r1, #-1073741821	; 0xc0000003
    43b0:	010fff09 	tsteq	pc, r9, lsl #30
    43b4:	200c0550 	andcs	r0, ip, r0, asr r5
    43b8:	002000b2 	strhteq	r0, [r0], -r2
    43bc:	00a0640d 	adceq	r6, r0, sp, lsl #8
    43c0:	0001c100 	andeq	ip, r1, r0, lsl #2
    43c4:	04100000 	ldreq	r0, [r0], #-0
    43c8:	0000002c 	andeq	r0, r0, ip, lsr #32
    43cc:	000bc907 	andeq	ip, fp, r7, lsl #18
    43d0:	2c230100 	stfcss	f0, [r3], #-0
    43d4:	07000000 	streq	r0, [r0, -r0]
    43d8:	00000bda 	ldrdeq	r0, [r0], -sl
    43dc:	002c2401 	eoreq	r2, ip, r1, lsl #8
    43e0:	f0110000 			; <UNDEFINED> instruction: 0xf0110000
    43e4:	03000002 	movweq	r0, #2
    43e8:	089e1289 	ldmeq	lr, {r0, r3, r7, r9, ip}
    43ec:	9b030000 	blls	c43f4 <__bss_end__+0xb8844>
    43f0:	00002c13 	andeq	r2, r0, r3, lsl ip
    43f4:	002c1300 	eoreq	r1, ip, r0, lsl #6
    43f8:	00000000 	andeq	r0, r0, r0
    43fc:	000001ad 	andeq	r0, r0, sp, lsr #3
    4400:	15be0004 	ldrne	r0, [lr, #4]!
    4404:	01040000 	mrseq	r0, (UNDEF: 4)
    4408:	000008d6 	ldrdeq	r0, [r0], -r6
    440c:	000c1601 	andeq	r1, ip, r1, lsl #12
    4410:	00092d00 	andeq	r2, r9, r0, lsl #26
    4414:	00007800 	andeq	r7, r0, r0, lsl #16
    4418:	00000000 	andeq	r0, r0, r0
    441c:	0013f700 	andseq	pc, r3, r0, lsl #14
    4420:	05040200 	streq	r0, [r4, #-512]	; 0x200
    4424:	00746e69 	rsbseq	r6, r4, r9, ror #28
    4428:	48070403 	stmdami	r7, {r0, r1, sl}
    442c:	03000001 	movweq	r0, #1
    4430:	005b0601 	subseq	r0, fp, r1, lsl #12
    4434:	02030000 	andeq	r0, r3, #0
    4438:	00019505 	andeq	r9, r1, r5, lsl #10
    443c:	05040300 	streq	r0, [r4, #-768]	; 0x300
    4440:	00000176 	andeq	r0, r0, r6, ror r1
    4444:	71050803 	tstvc	r5, r3, lsl #16
    4448:	03000001 	movweq	r0, #1
    444c:	00590801 	subseq	r0, r9, r1, lsl #16
    4450:	02030000 	andeq	r0, r3, #0
    4454:	00002007 	andeq	r2, r0, r7
    4458:	07040300 	streq	r0, [r4, -r0, lsl #6]
    445c:	00000143 	andeq	r0, r0, r3, asr #2
    4460:	3e070803 	cdpcc	8, 0, cr0, cr7, cr3, {0}
    4464:	03000001 	movweq	r0, #1
    4468:	01550704 	cmpeq	r5, r4, lsl #14
    446c:	01030000 	mrseq	r0, (UNDEF: 3)
    4470:	00006208 	andeq	r6, r0, r8, lsl #4
    4474:	0c080400 	cfstrseq	mvf0, [r8], {-0}
    4478:	0e010000 	cdpeq	0, 0, cr0, cr1, cr0, {0}
    447c:	00000025 	andeq	r0, r0, r5, lsr #32
    4480:	0000a0ac 	andeq	sl, r0, ip, lsr #1
    4484:	00000018 	andeq	r0, r0, r8, lsl r0
    4488:	00a29c01 	adceq	r9, r2, r1, lsl #24
    448c:	6d050000 	stcvs	0, cr0, [r5, #-0]
    4490:	0100000c 	tsteq	r0, ip
    4494:	00002c0f 	andeq	r2, r0, pc, lsl #24
    4498:	0016d200 	andseq	sp, r6, r0, lsl #4
    449c:	4a060000 	bmi	1844a4 <__bss_end__+0x1788f4>
    44a0:	0100000c 	tsteq	r0, ip
    44a4:	00a0c417 	adceq	ip, r0, r7, lsl r4
    44a8:	00001400 	andeq	r1, r0, r0, lsl #8
    44ac:	c79c0100 	ldrgt	r0, [ip, r0, lsl #2]
    44b0:	05000000 	streq	r0, [r0, #-0]
    44b4:	00000c6d 	andeq	r0, r0, sp, ror #24
    44b8:	002c1801 	eoreq	r1, ip, r1, lsl #16
    44bc:	16f10000 	ldrbtne	r0, [r1], r0
    44c0:	06000000 	streq	r0, [r0], -r0
    44c4:	00000a87 	andeq	r0, r0, r7, lsl #21
    44c8:	a0d81f01 	sbcsge	r1, r8, r1, lsl #30
    44cc:	00480000 	subeq	r0, r8, r0
    44d0:	9c010000 	stcls	0, cr0, [r1], {-0}
    44d4:	00000177 	andeq	r0, r0, r7, ror r1
    44d8:	000c6507 	andeq	r6, ip, r7, lsl #10
    44dc:	772a0100 	strvc	r0, [sl, -r0, lsl #2]!
    44e0:	1c000001 	stcne	0, cr0, [r0], {1}
    44e4:	07201000 	streq	r1, [r0, -r0]!
    44e8:	00000c42 	andeq	r0, r0, r2, asr #24
    44ec:	01772b01 	cmneq	r7, r1, lsl #22
    44f0:	00240000 	eoreq	r0, r4, r0
    44f4:	59072010 	stmdbpl	r7, {r4, sp}
    44f8:	0100000c 	tsteq	r0, ip
    44fc:	0001772c 	andeq	r7, r1, ip, lsr #14
    4500:	00000000 	andeq	r0, r0, r0
    4504:	0c29085a 	stceq	8, cr0, [r9], #-360	; 0xfffffe98
    4508:	2d010000 	stccs	0, cr0, [r1, #-0]
    450c:	00000177 	andeq	r0, r0, r7, ror r1
    4510:	a0e00920 	rscge	r0, r0, r0, lsr #18
    4514:	00790000 	rsbseq	r0, r9, r0
    4518:	ec090000 	stc	0, cr0, [r9], {-0}
    451c:	a20000a0 	andge	r0, r0, #160	; 0xa0
    4520:	0a000000 	beq	4528 <__code_start__-0x3ad8>
    4524:	0000a0f4 	strdeq	sl, [r0], -r4
    4528:	0000018d 	andeq	r0, r0, sp, lsl #3
    452c:	0000013a 	andeq	r0, r0, sl, lsr r1
    4530:	0150010b 	cmpeq	r0, fp, lsl #2
    4534:	000a004e 	andeq	r0, sl, lr, asr #32
    4538:	9e0000a1 	cdpls	0, 0, cr0, cr0, cr1, {5}
    453c:	5a000001 	bpl	4548 <__code_start__-0x3ab8>
    4540:	0b000001 	bleq	454c <__code_start__-0x3ab4>
    4544:	0c055101 	stfeqs	f5, [r5], {1}
    4548:	5a000001 	bpl	4554 <__code_start__-0x3aac>
    454c:	0550010b 	ldrbeq	r0, [r0, #-267]	; 0x10b
    4550:	1000240c 	andne	r2, r0, ip, lsl #8
    4554:	0c0c0020 	stceq	0, cr0, [ip], {32}
    4558:	9e0000a1 	cdpls	0, 0, cr0, cr0, cr1, {5}
    455c:	0b000001 	bleq	4568 <__code_start__-0x3a98>
    4560:	0c055101 	stfeqs	f5, [r5], {1}
    4564:	5a000020 	bpl	45ec <__code_start__-0x3a14>
    4568:	0550010b 	ldrbeq	r0, [r0, #-267]	; 0x10b
    456c:	10001c0c 	andne	r1, r0, ip, lsl #24
    4570:	0d000020 	stceq	0, cr0, [r0, #-128]	; 0xffffff80
    4574:	00000025 	andeq	r0, r0, r5, lsr #32
    4578:	000c0b08 	andeq	r0, ip, r8, lsl #22
    457c:	880d0100 	stmdahi	sp, {r8}
    4580:	10000001 	andne	r0, r0, r1
    4584:	00002c0d 	andeq	r2, r0, sp, lsl #24
    4588:	00a20e00 	adceq	r0, r2, r0, lsl #28
    458c:	4f020000 	svcmi	0x00020000
    4590:	0000019e 	muleq	r0, lr, r1
    4594:	00002c0f 	andeq	r2, r0, pc, lsl #24
    4598:	9e100000 	cdpls	0, 1, cr0, cr0, cr0, {0}
    459c:	02000008 	andeq	r0, r0, #8
    45a0:	002c0f9b 	mlaeq	ip, fp, pc, r0	; <UNPREDICTABLE>
    45a4:	2c0f0000 	stccs	0, cr0, [pc], {-0}
    45a8:	00000000 	andeq	r0, r0, r0
    45ac:	0002d300 	andeq	sp, r2, r0, lsl #6
    45b0:	ac000400 	cfstrsge	mvf0, [r0], {-0}
    45b4:	04000016 	streq	r0, [r0], #-22
    45b8:	0008d601 	andeq	sp, r8, r1, lsl #12
    45bc:	0cdf0100 	ldfeqe	f0, [pc], {0}
    45c0:	092d0000 	pusheq	{}	; <UNPREDICTABLE>
    45c4:	a1200000 	teqge	r0, r0
    45c8:	005c0000 	subseq	r0, ip, r0
    45cc:	149d0000 	ldrne	r0, [sp], #0
    45d0:	04020000 	streq	r0, [r2], #-0
    45d4:	746e6905 	strbtvc	r6, [lr], #-2309	; 0x905
    45d8:	07040300 	streq	r0, [r4, -r0, lsl #6]
    45dc:	00000148 	andeq	r0, r0, r8, asr #2
    45e0:	5b060103 	blpl	1849f4 <__bss_end__+0x178e44>
    45e4:	03000000 	movweq	r0, #0
    45e8:	01950502 	orrseq	r0, r5, r2, lsl #10
    45ec:	04030000 	streq	r0, [r3], #-0
    45f0:	00017605 	andeq	r7, r1, r5, lsl #12
    45f4:	05080300 	streq	r0, [r8, #-768]	; 0x300
    45f8:	00000171 	andeq	r0, r0, r1, ror r1
    45fc:	59080103 	stmdbpl	r8, {r0, r1, r8}
    4600:	03000000 	movweq	r0, #0
    4604:	00200702 	eoreq	r0, r0, r2, lsl #14
    4608:	99040000 	stmdbls	r4, {}	; <UNPREDICTABLE>
    460c:	03000000 	movweq	r0, #0
    4610:	00006834 	andeq	r6, r0, r4, lsr r8
    4614:	07040300 	streq	r0, [r4, -r0, lsl #6]
    4618:	00000143 	andeq	r0, r0, r3, asr #2
    461c:	3e070803 	cdpcc	8, 0, cr0, cr7, cr3, {0}
    4620:	03000001 	movweq	r0, #1
    4624:	01550704 	cmpeq	r5, r4, lsl #14
    4628:	01030000 	mrseq	r0, (UNDEF: 3)
    462c:	00006208 	andeq	r6, r0, r8, lsl #4
    4630:	8a040500 	bhi	105a38 <__bss_end__+0xf9e88>
    4634:	06000000 	streq	r0, [r0], -r0
    4638:	0000007d 	andeq	r0, r0, sp, ror r0
    463c:	1e020407 	cdpne	4, 0, cr0, cr2, cr7, {0}
    4640:	000000f2 	strdeq	r0, [r0], -r2
    4644:	000cb108 	andeq	fp, ip, r8, lsl #2
    4648:	5d210200 	sfmpl	f0, 4, [r1, #-0]
    464c:	04000000 	streq	r0, [r0], #-0
    4650:	08001e01 	stmdaeq	r0, {r0, r9, sl, fp, ip}
    4654:	00000d03 	andeq	r0, r0, r3, lsl #26
    4658:	005d2202 	subseq	r2, sp, r2, lsl #4
    465c:	02040000 	andeq	r0, r4, #0
    4660:	c308001c 	movwgt	r0, #32796	; 0x801c
    4664:	0200000c 	andeq	r0, r0, #12
    4668:	00005d27 	andeq	r5, r0, r7, lsr #26
    466c:	1a010400 	bne	45674 <__bss_end__+0x39ac4>
    4670:	0c9b0800 	ldceq	8, cr0, [fp], {0}
    4674:	29020000 	stmdbcs	r2, {}	; <UNPREDICTABLE>
    4678:	0000005d 	andeq	r0, r0, sp, asr r0
    467c:	00180104 	andseq	r0, r8, r4, lsl #2
    4680:	000ccf08 	andeq	ip, ip, r8, lsl #30
    4684:	5d2b0200 	sfmpl	f0, 4, [fp, #-0]
    4688:	04000000 	streq	r0, [r0], #-0
    468c:	08001601 	stmdaeq	r0, {r0, r9, sl, ip}
    4690:	00000cfb 	strdeq	r0, [r0], -fp
    4694:	005d2d02 	subseq	r2, sp, r2, lsl #26
    4698:	07040000 	streq	r0, [r4, -r0]
    469c:	04000009 	streq	r0, [r0], #-9
    46a0:	00000c86 	andeq	r0, r0, r6, lsl #25
    46a4:	008f2f02 	addeq	r2, pc, r2, lsl #30
    46a8:	04090000 	streq	r0, [r9], #-0
    46ac:	016a3402 	cmneq	sl, r2, lsl #8
    46b0:	4d0a0000 	stcmi	0, cr0, [sl, #-0]
    46b4:	80000006 	andhi	r0, r0, r6
    46b8:	028082e8 	addeq	r8, r0, #232, 4	; 0x8000000e
    46bc:	00063e0a 	andeq	r3, r6, sl, lsl #28
    46c0:	82e88000 	rschi	r8, r8, #0
    46c4:	f40a0280 	vst1.32	{d0-d3}, [sl], r0
    46c8:	84000007 	strhi	r0, [r0], #-7
    46cc:	028082e8 	addeq	r8, r0, #232, 4	; 0x8000000e
    46d0:	0006270a 	andeq	r2, r6, sl, lsl #14
    46d4:	82e88800 	rschi	r8, r8, #0, 16
    46d8:	040a0280 	streq	r0, [sl], #-640	; 0x280
    46dc:	8c000008 	stchi	0, cr0, [r0], {8}
    46e0:	028082e8 	addeq	r8, r0, #232, 4	; 0x8000000e
    46e4:	00058d0a 	andeq	r8, r5, sl, lsl #26
    46e8:	82e89000 	rschi	r9, r8, #0
    46ec:	710a0280 	smlabbvc	sl, r0, r2, r0
    46f0:	94000006 	strls	r0, [r0], #-6
    46f4:	028082e8 	addeq	r8, r0, #232, 4	; 0x8000000e
    46f8:	0007190a 	andeq	r1, r7, sl, lsl #18
    46fc:	82e89800 	rschi	r9, r8, #0, 16
    4700:	a20a0280 	andge	r0, sl, #128, 4
    4704:	9c000007 	stcls	0, cr0, [r0], {7}
    4708:	028082e8 	addeq	r8, r0, #232, 4	; 0x8000000e
    470c:	0008ad0a 	andeq	sl, r8, sl, lsl #26
    4710:	82e8a000 	rschi	sl, r8, #0
    4714:	09000280 	stmdbeq	r0, {r7, r9}
    4718:	e1140404 	tst	r4, r4, lsl #8
    471c:	0a000001 	beq	4728 <__code_start__-0x38d8>
    4720:	0000065c 	andeq	r0, r0, ip, asr r6
    4724:	8082e480 	addhi	lr, r2, r0, lsl #9
    4728:	07b70a02 	ldreq	r0, [r7, r2, lsl #20]!
    472c:	e4800000 	str	r0, [r0], #0
    4730:	0a028082 	beq	a4940 <__bss_end__+0x98d90>
    4734:	0000068d 	andeq	r0, r0, sp, lsl #13
    4738:	8082e484 	addhi	lr, r2, r4, lsl #9
    473c:	069b0a02 	ldreq	r0, [fp], r2, lsl #20
    4740:	e4880000 	str	r0, [r8], #0
    4744:	0a028082 	beq	a4954 <__bss_end__+0x98da4>
    4748:	00000665 	andeq	r0, r0, r5, ror #12
    474c:	8082e48c 	addhi	lr, r2, ip, lsl #9
    4750:	06c20a02 	strbeq	r0, [r2], r2, lsl #20
    4754:	e4900000 	ldr	r0, [r0], #0
    4758:	0a028082 	beq	a4968 <__bss_end__+0x98db8>
    475c:	000006d0 	ldrdeq	r0, [r0], -r0	; <UNPREDICTABLE>
    4760:	8082e494 	umullhi	lr, r2, r4, r4
    4764:	07c90a02 	strbeq	r0, [r9, r2, lsl #20]
    4768:	e4980000 	ldr	r0, [r8], #0
    476c:	0a028082 	beq	a497c <__bss_end__+0x98dcc>
    4770:	000005b9 			; <UNDEFINED> instruction: 0x000005b9
    4774:	8082e49c 	umullhi	lr, r2, ip, r4
    4778:	05c80a02 	strbeq	r0, [r8, #2562]	; 0xa02
    477c:	e4a00000 	strt	r0, [r0], #0
    4780:	0a028082 	beq	a4990 <__bss_end__+0x98de0>
    4784:	000006a9 	andeq	r0, r0, r9, lsr #13
    4788:	8082e4a4 	addhi	lr, r2, r4, lsr #9
    478c:	720b0002 	andvc	r0, fp, #2
    4790:	0100000c 	tsteq	r0, ip
    4794:	00a1203f 	adceq	r2, r1, pc, lsr r0
    4798:	00001c00 	andeq	r1, r0, r0, lsl #24
    479c:	199c0100 	ldmibne	ip, {r8}
    47a0:	0c000002 	stceq	0, cr0, [r0], {2}
    47a4:	000000bc 	strheq	r0, [r0], -ip
    47a8:	00000229 	andeq	r0, r0, r9, lsr #4
    47ac:	b4480305 	strblt	r0, [r8], #-773	; 0x305
    47b0:	300d0000 	andcc	r0, sp, r0
    47b4:	ae0000a1 	cdpge	0, 0, cr0, cr0, cr1, {5}
    47b8:	0e000002 	cdpeq	0, 0, cr0, cr0, cr2, {0}
    47bc:	03055001 	movweq	r5, #20481	; 0x5001
    47c0:	0000b574 	andeq	fp, r0, r4, ror r5
    47c4:	7d0f0000 	stcvc	0, cr0, [pc, #-0]	; 47cc <__code_start__-0x3834>
    47c8:	29000000 	stmdbcs	r0, {}	; <UNPREDICTABLE>
    47cc:	10000002 	andne	r0, r0, r2
    47d0:	00000076 	andeq	r0, r0, r6, ror r0
    47d4:	19060013 	stmdbne	r6, {r0, r1, r4}
    47d8:	11000002 	tstne	r0, r2
    47dc:	00000600 	andeq	r0, r0, r0, lsl #12
    47e0:	a13c1101 	teqge	ip, r1, lsl #2
    47e4:	00400000 	subeq	r0, r0, r0
    47e8:	9c010000 	stcls	0, cr0, [r1], {-0}
    47ec:	000002ae 	andeq	r0, r0, lr, lsr #5
    47f0:	000ca912 	andeq	sl, ip, r2, lsl r9
    47f4:	2c110100 	ldfcss	f0, [r1], {-0}
    47f8:	1b000000 	blne	4800 <__code_start__-0x3800>
    47fc:	13000017 	movwne	r0, #23
    4800:	0000a148 	andeq	sl, r0, r8, asr #2
    4804:	000001e1 	andeq	r0, r0, r1, ror #3
    4808:	00a15414 	adceq	r5, r1, r4, lsl r4
    480c:	0002c400 	andeq	ip, r2, r0, lsl #8
    4810:	00027700 	andeq	r7, r2, r0, lsl #14
    4814:	51010e00 	tstpl	r1, r0, lsl #28
    4818:	010e3101 	tsteq	lr, r1, lsl #2
    481c:	180c0550 	stmdane	ip, {r4, r6, r8, sl}
    4820:	002000b2 	strhteq	r0, [r0], -r2
    4824:	00a16014 	adceq	r6, r1, r4, lsl r0
    4828:	0002c400 	andeq	ip, r2, r0, lsl #8
    482c:	00029400 	andeq	r9, r2, r0, lsl #8
    4830:	51010e00 	tstpl	r1, r0, lsl #28
    4834:	0e007402 	cdpeq	4, 0, cr7, cr0, cr2, {0}
    4838:	0c055001 	stceq	0, cr5, [r5], {1}
    483c:	2000b400 	andcs	fp, r0, r0, lsl #8
    4840:	a16c0d00 	cmnge	ip, r0, lsl #26
    4844:	02c40000 	sbceq	r0, r4, #0
    4848:	010e0000 	mrseq	r0, (UNDEF: 14)
    484c:	a6080251 			; <UNDEFINED> instruction: 0xa6080251
    4850:	0550010e 	ldrbeq	r0, [r0, #-270]	; 0x10e
    4854:	00b4080c 	adcseq	r0, r4, ip, lsl #16
    4858:	15000020 	strne	r0, [r0, #-32]
    485c:	000009a1 	andeq	r0, r0, r1, lsr #19
    4860:	00252905 	eoreq	r2, r5, r5, lsl #18
    4864:	02c40000 	sbceq	r0, r4, #0
    4868:	84160000 	ldrhi	r0, [r6], #-0
    486c:	17000000 	strne	r0, [r0, -r0]
    4870:	089e1800 	ldmeq	lr, {fp, ip}
    4874:	9b050000 	blls	14487c <__bss_end__+0x138ccc>
    4878:	00002c16 	andeq	r2, r0, r6, lsl ip
    487c:	002c1600 	eoreq	r1, ip, r0, lsl #12
    4880:	00000000 	andeq	r0, r0, r0
    4884:	000001d8 	ldrdeq	r0, [r0], -r8
    4888:	17ec0004 	strbne	r0, [ip, r4]!
    488c:	01040000 	mrseq	r0, (UNDEF: 4)
    4890:	000008d6 	ldrdeq	r0, [r0], -r6
    4894:	000d2a01 	andeq	r2, sp, r1, lsl #20
    4898:	00092d00 	andeq	r2, r9, r0, lsl #26
    489c:	00a17c00 	adceq	r7, r1, r0, lsl #24
    48a0:	00008800 	andeq	r8, r0, r0, lsl #16
    48a4:	0015d100 	andseq	sp, r5, r0, lsl #2
    48a8:	05040200 	streq	r0, [r4, #-512]	; 0x200
    48ac:	00746e69 	rsbseq	r6, r4, r9, ror #28
    48b0:	48070403 	stmdami	r7, {r0, r1, sl}
    48b4:	03000001 	movweq	r0, #1
    48b8:	005b0601 	subseq	r0, fp, r1, lsl #12
    48bc:	02030000 	andeq	r0, r3, #0
    48c0:	00019505 	andeq	r9, r1, r5, lsl #10
    48c4:	05040300 	streq	r0, [r4, #-768]	; 0x300
    48c8:	00000176 	andeq	r0, r0, r6, ror r1
    48cc:	71050803 	tstvc	r5, r3, lsl #16
    48d0:	03000001 	movweq	r0, #1
    48d4:	00590801 	subseq	r0, r9, r1, lsl #16
    48d8:	02030000 	andeq	r0, r3, #0
    48dc:	00002007 	andeq	r2, r0, r7
    48e0:	07040300 	streq	r0, [r4, -r0, lsl #6]
    48e4:	00000143 	andeq	r0, r0, r3, asr #2
    48e8:	3e070803 	cdpcc	8, 0, cr0, cr7, cr3, {0}
    48ec:	03000001 	movweq	r0, #1
    48f0:	01550704 	cmpeq	r5, r4, lsl #14
    48f4:	01030000 	mrseq	r0, (UNDEF: 3)
    48f8:	00006208 	andeq	r6, r0, r8, lsl #4
    48fc:	0d420400 	cfstrdeq	mvd0, [r2, #-0]
    4900:	05010000 	streq	r0, [r1, #-0]
    4904:	0000a17c 	andeq	sl, r0, ip, ror r1
    4908:	0000001c 	andeq	r0, r0, ip, lsl r0
    490c:	009e9c01 	addseq	r9, lr, r1, lsl #24
    4910:	3c050000 	stccc	0, cr0, [r5], {-0}
    4914:	0100000d 	tsteq	r0, sp
    4918:	00002c05 	andeq	r2, r0, r5, lsl #24
    491c:	00173900 	andseq	r3, r7, r0, lsl #18
    4920:	0d060000 	stceq	0, cr0, [r6, #-0]
    4924:	0100000d 	tsteq	r0, sp
    4928:	00002c11 	andeq	r2, r0, r1, lsl ip
    492c:	00a19800 	adceq	r9, r1, r0, lsl #16
    4930:	00001400 	andeq	r1, r0, r0, lsl #8
    4934:	cb9c0100 	blgt	fe704d3c <__bss_end__+0xfe6f918c>
    4938:	07000000 	streq	r0, [r0, -r0]
    493c:	0000a1a4 	andeq	sl, r0, r4, lsr #3
    4940:	000001ca 	andeq	r0, r0, sl, asr #3
    4944:	05500108 	ldrbeq	r0, [r0, #-264]	; 0x108
    4948:	0030040c 	eorseq	r0, r0, ip, lsl #8
    494c:	06000020 	streq	r0, [r0], -r0, lsr #32
    4950:	00000826 	andeq	r0, r0, r6, lsr #16
    4954:	002c1601 	eoreq	r1, ip, r1, lsl #12
    4958:	a1ac0000 			; <UNDEFINED> instruction: 0xa1ac0000
    495c:	000c0000 	andeq	r0, ip, r0
    4960:	9c010000 	stcls	0, cr0, [r1], {-0}
    4964:	000000f9 	strdeq	r0, [r0], -r9
    4968:	01007509 	tsteq	r0, r9, lsl #10
    496c:	00002c1a 	andeq	r2, r0, sl, lsl ip
    4970:	0a500100 	beq	1404d78 <__bss_end__+0x13f91c8>
    4974:	0000a1b4 			; <UNDEFINED> instruction: 0x0000a1b4
    4978:	0000009e 	muleq	r0, lr, r0
    497c:	0d4f0400 	cfstrdeq	mvd0, [pc, #-0]	; 4984 <__code_start__-0x367c>
    4980:	1f010000 	svcne	0x00010000
    4984:	0000a1b8 			; <UNDEFINED> instruction: 0x0000a1b8
    4988:	00000024 	andeq	r0, r0, r4, lsr #32
    498c:	01579c01 	cmpeq	r7, r1, lsl #24
    4990:	750b0000 	strvc	r0, [fp, #-0]
    4994:	1f010073 	svcne	0x00010073
    4998:	0000002c 	andeq	r0, r0, ip, lsr #32
    499c:	0000176d 	andeq	r1, r0, sp, ror #14
    49a0:	00627209 	rsbeq	r7, r2, r9, lsl #4
    49a4:	002c2001 	eoreq	r2, ip, r1
    49a8:	54010000 	strpl	r0, [r1], #-0
    49ac:	00a1c80c 	adceq	ip, r1, ip, lsl #16
    49b0:	00001000 	andeq	r1, r0, r0
    49b4:	00014d00 	andeq	r4, r1, r0, lsl #26
    49b8:	61720d00 	cmnvs	r2, r0, lsl #26
    49bc:	2c220100 	stfcss	f0, [r2], #-0
    49c0:	8b000000 	blhi	49c8 <__code_start__-0x3638>
    49c4:	0a000017 	beq	4a28 <__code_start__-0x35d8>
    49c8:	0000a1cc 	andeq	sl, r0, ip, asr #3
    49cc:	000000cb 	andeq	r0, r0, fp, asr #1
    49d0:	a1c40a00 	bicge	r0, r4, r0, lsl #20
    49d4:	00cb0000 	sbceq	r0, fp, r0
    49d8:	04000000 	streq	r0, [r0], #-0
    49dc:	000000a2 	andeq	r0, r0, r2, lsr #1
    49e0:	a1dc2801 	bicsge	r2, ip, r1, lsl #16
    49e4:	00140000 	andseq	r0, r4, r0
    49e8:	9c010000 	stcls	0, cr0, [r1], {-0}
    49ec:	00000190 	muleq	r0, r0, r1
    49f0:	00736d0b 	rsbseq	r6, r3, fp, lsl #26
    49f4:	002c2801 	eoreq	r2, ip, r1, lsl #16
    49f8:	179e0000 	ldrne	r0, [lr, r0]
    49fc:	ec070000 	stc	0, cr0, [r7], {-0}
    4a00:	f90000a1 			; <UNDEFINED> instruction: 0xf90000a1
    4a04:	08000000 	stmdaeq	r0, {}	; <UNPREDICTABLE>
    4a08:	f3075001 	vhadd.u8	d5, d7, d1
    4a0c:	e80a5001 	stmda	sl, {r0, ip, lr}
    4a10:	00001e03 	andeq	r1, r0, r3, lsl #28
    4a14:	000d2004 	andeq	r2, sp, r4
    4a18:	f02b0100 			; <UNDEFINED> instruction: 0xf02b0100
    4a1c:	140000a1 	strne	r0, [r0], #-161	; 0xa1
    4a20:	01000000 	mrseq	r0, (UNDEF: 0)
    4a24:	0001ca9c 	muleq	r1, ip, sl
    4a28:	65730b00 	ldrbvs	r0, [r3, #-2816]!	; 0xb00
    4a2c:	2b010063 	blcs	44bc0 <__bss_end__+0x39010>
    4a30:	0000002c 	andeq	r0, r0, ip, lsr #32
    4a34:	000017bf 			; <UNDEFINED> instruction: 0x000017bf
    4a38:	00a20007 	adceq	r0, r2, r7
    4a3c:	00015700 	andeq	r5, r1, r0, lsl #14
    4a40:	50010800 	andpl	r0, r1, r0, lsl #16
    4a44:	5001f307 	andpl	pc, r1, r7, lsl #6
    4a48:	1e03e80a 	cdpne	8, 0, cr14, cr3, cr10, {0}
    4a4c:	2a0e0000 	bcs	384a54 <__bss_end__+0x378ea4>
    4a50:	02000007 	andeq	r0, r0, #7
    4a54:	00002ca7 	andeq	r2, r0, r7, lsr #25
    4a58:	002c0f00 	eoreq	r0, ip, r0, lsl #30
    4a5c:	00000000 	andeq	r0, r0, r0
    4a60:	00000cc5 	andeq	r0, r0, r5, asr #25
    4a64:	18cf0004 	stmiane	pc, {r2}^	; <UNPREDICTABLE>
    4a68:	01040000 	mrseq	r0, (UNDEF: 4)
    4a6c:	000010f4 	strdeq	r1, [r0], -r4
    4a70:	000e570c 	andeq	r5, lr, ip, lsl #14
    4a74:	000e7200 	andeq	r7, lr, r0, lsl #4
    4a78:	00a26800 	adceq	r6, r2, r0, lsl #16
    4a7c:	00017800 	andeq	r7, r1, r0, lsl #16
    4a80:	00168100 	andseq	r8, r6, r0, lsl #2
    4a84:	05040200 	streq	r0, [r4, #-512]	; 0x200
    4a88:	00746e69 	rsbseq	r6, r4, r9, ror #28
    4a8c:	48070403 	stmdami	r7, {r0, r1, sl}
    4a90:	04000001 	streq	r0, [r0], #-1
    4a94:	0000002c 	andeq	r0, r0, ip, lsr #32
    4a98:	5b060103 	blpl	184eac <__bss_end__+0x1792fc>
    4a9c:	03000000 	movweq	r0, #0
    4aa0:	01950502 	orrseq	r0, r5, r2, lsl #10
    4aa4:	04030000 	streq	r0, [r3], #-0
    4aa8:	00017605 	andeq	r7, r1, r5, lsl #12
    4aac:	05080300 	streq	r0, [r8, #-768]	; 0x300
    4ab0:	00000171 	andeq	r0, r0, r1, ror r1
    4ab4:	59080103 	stmdbpl	r8, {r0, r1, r8}
    4ab8:	03000000 	movweq	r0, #0
    4abc:	00200702 	eoreq	r0, r0, r2, lsl #14
    4ac0:	04030000 	streq	r0, [r3], #-0
    4ac4:	00014307 	andeq	r4, r1, r7, lsl #6
    4ac8:	07080300 	streq	r0, [r8, -r0, lsl #6]
    4acc:	0000013e 	andeq	r0, r0, lr, lsr r1
    4ad0:	00100905 	andseq	r0, r0, r5, lsl #18
    4ad4:	25070200 	strcs	r0, [r7, #-512]	; 0x200
    4ad8:	05000000 	streq	r0, [r0, #-0]
    4adc:	00000ff3 	strdeq	r0, [r0], -r3
    4ae0:	00462c03 	subeq	r2, r6, r3, lsl #24
    4ae4:	cf050000 	svcgt	0x00050000
    4ae8:	03000010 	movweq	r0, #16
    4aec:	00004672 	andeq	r4, r0, r2, ror r6
    4af0:	0f970600 	svceq	0x00970600
    4af4:	65040000 	strvs	r0, [r4, #-0]
    4af8:	00002c01 	andeq	r2, r0, r1, lsl #24
    4afc:	03040700 	movweq	r0, #18176	; 0x4700
    4b00:	0000bca6 	andeq	fp, r0, r6, lsr #25
    4b04:	0f820800 	svceq	0x00820800
    4b08:	a8030000 	stmdage	r3, {}	; <UNPREDICTABLE>
    4b0c:	00000091 	muleq	r0, r1, r0
    4b10:	000f2a08 	andeq	r2, pc, r8, lsl #20
    4b14:	bca90300 	stclt	3, cr0, [r9]
    4b18:	00000000 	andeq	r0, r0, r0
    4b1c:	00005409 	andeq	r5, r0, r9, lsl #8
    4b20:	0000cc00 	andeq	ip, r0, r0, lsl #24
    4b24:	00cc0a00 	sbceq	r0, ip, r0, lsl #20
    4b28:	00030000 	andeq	r0, r3, r0
    4b2c:	55070403 	strpl	r0, [r7, #-1027]	; 0x403
    4b30:	0b000001 	bleq	4b3c <__code_start__-0x34c4>
    4b34:	f4a30308 	vld4.8	{d0[0],d1[0],d2[0],d3[0]}, [r3], r8
    4b38:	0c000000 	stceq	0, cr0, [r0], {-0}
    4b3c:	000010b4 	strheq	r1, [r0], -r4
    4b40:	0025a503 	eoreq	sl, r5, r3, lsl #10
    4b44:	0c000000 	stceq	0, cr0, [r0], {-0}
    4b48:	000010bc 	strheq	r1, [r0], -ip
    4b4c:	009daa03 	addseq	sl, sp, r3, lsl #20
    4b50:	00040000 	andeq	r0, r4, r0
    4b54:	00104705 	andseq	r4, r0, r5, lsl #14
    4b58:	d3ab0300 			; <UNDEFINED> instruction: 0xd3ab0300
    4b5c:	05000000 	streq	r0, [r0, #-0]
    4b60:	00000ef3 	strdeq	r0, [r0], -r3
    4b64:	0070af03 	rsbseq	sl, r0, r3, lsl #30
    4b68:	040d0000 	streq	r0, [sp], #-0
    4b6c:	0112040e 	tsteq	r2, lr, lsl #8
    4b70:	01030000 	mrseq	r0, (UNDEF: 3)
    4b74:	00006208 	andeq	r6, r0, r8, lsl #4
    4b78:	01120f00 	tsteq	r2, r0, lsl #30
    4b7c:	71050000 	mrsvc	r0, (UNDEF: 5)
    4b80:	05000011 	streq	r0, [r0, #-17]
    4b84:	00006216 	andeq	r6, r0, r6, lsl r2
    4b88:	0f041000 	svceq	0x00041000
    4b8c:	05180000 	ldreq	r0, [r8, #-0]
    4b90:	00017c2d 	andeq	r7, r1, sp, lsr #24
    4b94:	10680c00 	rsbne	r0, r8, r0, lsl #24
    4b98:	2f050000 	svccs	0x00050000
    4b9c:	0000017c 	andeq	r0, r0, ip, ror r1
    4ba0:	6b5f1100 	blvs	17c8fa8 <__bss_end__+0x17bd3f8>
    4ba4:	25300500 	ldrcs	r0, [r0, #-1280]!	; 0x500
    4ba8:	04000000 	streq	r0, [r0], #-0
    4bac:	00109f0c 	andseq	r9, r0, ip, lsl #30
    4bb0:	25300500 	ldrcs	r0, [r0, #-1280]!	; 0x500
    4bb4:	08000000 	stmdaeq	r0, {}	; <UNPREDICTABLE>
    4bb8:	000edf0c 	andeq	sp, lr, ip, lsl #30
    4bbc:	25300500 	ldrcs	r0, [r0, #-1280]!	; 0x500
    4bc0:	0c000000 	stceq	0, cr0, [r0], {-0}
    4bc4:	0011b80c 	andseq	fp, r1, ip, lsl #16
    4bc8:	25300500 	ldrcs	r0, [r0, #-1280]!	; 0x500
    4bcc:	10000000 	andne	r0, r0, r0
    4bd0:	00785f11 	rsbseq	r5, r8, r1, lsl pc
    4bd4:	01823105 	orreq	r3, r2, r5, lsl #2
    4bd8:	00140000 	andseq	r0, r4, r0
    4bdc:	0129040e 	teqeq	r9, lr, lsl #8
    4be0:	1e090000 	cdpne	0, 0, cr0, cr9, cr0, {0}
    4be4:	92000001 	andls	r0, r0, #1
    4be8:	0a000001 	beq	4bf4 <__code_start__-0x340c>
    4bec:	000000cc 	andeq	r0, r0, ip, asr #1
    4bf0:	25100000 	ldrcs	r0, [r0, #-0]
    4bf4:	2400000f 	strcs	r0, [r0], #-15
    4bf8:	020b3505 	andeq	r3, fp, #20971520	; 0x1400000
    4bfc:	dd0c0000 	stcle	0, cr0, [ip, #-0]
    4c00:	0500000d 	streq	r0, [r0, #-13]
    4c04:	00002537 	andeq	r2, r0, r7, lsr r5
    4c08:	d70c0000 	strle	r0, [ip, -r0]
    4c0c:	05000010 	streq	r0, [r0, #-16]
    4c10:	00002538 	andeq	r2, r0, r8, lsr r5
    4c14:	0b0c0400 	bleq	305c1c <__bss_end__+0x2fa06c>
    4c18:	0500000e 	streq	r0, [r0, #-14]
    4c1c:	00002539 	andeq	r2, r0, r9, lsr r5
    4c20:	a80c0800 	stmdage	ip, {fp}
    4c24:	05000012 	streq	r0, [r0, #-18]
    4c28:	0000253a 	andeq	r2, r0, sl, lsr r5
    4c2c:	d70c0c00 	strle	r0, [ip, -r0, lsl #24]
    4c30:	0500000f 	streq	r0, [r0, #-15]
    4c34:	0000253b 	andeq	r2, r0, fp, lsr r5
    4c38:	ac0c1000 	stcge	0, cr1, [ip], {-0}
    4c3c:	0500000f 	streq	r0, [r0, #-15]
    4c40:	0000253c 	andeq	r2, r0, ip, lsr r5
    4c44:	bd0c1400 	cfstrslt	mvf1, [ip, #-0]
    4c48:	05000011 	streq	r0, [r0, #-17]
    4c4c:	0000253d 	andeq	r2, r0, sp, lsr r5
    4c50:	290c1800 	stmdbcs	ip, {fp, ip}
    4c54:	05000010 	streq	r0, [r0, #-16]
    4c58:	0000253e 	andeq	r2, r0, lr, lsr r5
    4c5c:	6f0c1c00 	svcvs	0x000c1c00
    4c60:	05000012 	streq	r0, [r0, #-18]
    4c64:	0000253f 	andeq	r2, r0, pc, lsr r5
    4c68:	12002000 	andne	r2, r0, #0
    4c6c:	00000e1a 	andeq	r0, r0, sl, lsl lr
    4c70:	48050108 	stmdami	r5, {r3, r8}
    4c74:	0000024b 	andeq	r0, r0, fp, asr #4
    4c78:	000ec60c 	andeq	ip, lr, ip, lsl #12
    4c7c:	4b490500 	blmi	1246084 <__bss_end__+0x123a4d4>
    4c80:	00000002 	andeq	r0, r0, r2
    4c84:	000d580c 	andeq	r5, sp, ip, lsl #16
    4c88:	4b4a0500 	blmi	1286090 <__bss_end__+0x127a4e0>
    4c8c:	80000002 	andhi	r0, r0, r2
    4c90:	00116313 	andseq	r6, r1, r3, lsl r3
    4c94:	1e4c0500 	cdpne	5, 4, cr0, cr12, cr0, {0}
    4c98:	00000001 	andeq	r0, r0, r1
    4c9c:	0e3f1301 	cdpeq	3, 3, cr1, cr15, cr1, {0}
    4ca0:	4f050000 	svcmi	0x00050000
    4ca4:	0000011e 	andeq	r0, r0, lr, lsl r1
    4ca8:	09000104 	stmdbeq	r0, {r2, r8}
    4cac:	0000010a 	andeq	r0, r0, sl, lsl #2
    4cb0:	0000025b 	andeq	r0, r0, fp, asr r2
    4cb4:	0000cc0a 	andeq	ip, r0, sl, lsl #24
    4cb8:	12001f00 	andne	r1, r0, #0, 30
    4cbc:	00000fe0 	andeq	r0, r0, r0, ror #31
    4cc0:	5b050190 	blpl	145308 <__bss_end__+0x139758>
    4cc4:	00000299 	muleq	r0, r9, r2
    4cc8:	0010680c 	andseq	r6, r0, ip, lsl #16
    4ccc:	995c0500 	ldmdbls	ip, {r8, sl}^
    4cd0:	00000002 	andeq	r0, r0, r2
    4cd4:	0010800c 	andseq	r8, r0, ip
    4cd8:	255d0500 	ldrbcs	r0, [sp, #-1280]	; 0x500
    4cdc:	04000000 	streq	r0, [r0], #-0
    4ce0:	000eda0c 	andeq	sp, lr, ip, lsl #20
    4ce4:	9f5f0500 	svcls	0x005f0500
    4ce8:	08000002 	stmdaeq	r0, {r1}
    4cec:	000e1a0c 	andeq	r1, lr, ip, lsl #20
    4cf0:	0b600500 	bleq	18060f8 <__bss_end__+0x17fa548>
    4cf4:	88000002 	stmdahi	r0, {r1}
    4cf8:	5b040e00 	blpl	108500 <__bss_end__+0xfc950>
    4cfc:	09000002 	stmdbeq	r0, {r1}
    4d00:	000002af 	andeq	r0, r0, pc, lsr #5
    4d04:	000002af 	andeq	r0, r0, pc, lsr #5
    4d08:	0000cc0a 	andeq	ip, r0, sl, lsl #24
    4d0c:	0e001f00 	cdpeq	15, 0, cr1, cr0, cr0, {0}
    4d10:	0002b504 	andeq	fp, r2, r4, lsl #10
    4d14:	33101400 	tstcc	r0, #0, 8
    4d18:	08000010 	stmdaeq	r0, {r4}
    4d1c:	02db7305 	sbcseq	r7, fp, #335544320	; 0x14000000
    4d20:	000c0000 	andeq	r0, ip, r0
    4d24:	0500000e 	streq	r0, [r0, #-14]
    4d28:	0002db74 	andeq	sp, r2, r4, ror fp
    4d2c:	640c0000 	strvs	r0, [ip], #-0
    4d30:	0500000d 	streq	r0, [r0, #-13]
    4d34:	00002575 	andeq	r2, r0, r5, ror r5
    4d38:	0e000400 	cfcpyseq	mvf0, mvf0
    4d3c:	00005404 	andeq	r5, r0, r4, lsl #8
    4d40:	10521000 	subsne	r1, r2, r0
    4d44:	05680000 	strbeq	r0, [r8, #-0]!
    4d48:	00040bb3 			; <UNDEFINED> instruction: 0x00040bb3
    4d4c:	705f1100 	subsvc	r1, pc, r0, lsl #2
    4d50:	dbb40500 	blle	fed06158 <__bss_end__+0xfecfa5a8>
    4d54:	00000002 	andeq	r0, r0, r2
    4d58:	00725f11 	rsbseq	r5, r2, r1, lsl pc
    4d5c:	0025b505 	eoreq	fp, r5, r5, lsl #10
    4d60:	11040000 	mrsne	r0, (UNDEF: 4)
    4d64:	0500775f 	streq	r7, [r0, #-1887]	; 0x75f
    4d68:	000025b6 			; <UNDEFINED> instruction: 0x000025b6
    4d6c:	380c0800 	stmdacc	ip, {fp}
    4d70:	0500000e 	streq	r0, [r0, #-14]
    4d74:	00003fb7 			; <UNDEFINED> instruction: 0x00003fb7
    4d78:	4b0c0c00 	blmi	307d80 <__bss_end__+0x2fc1d0>
    4d7c:	0500000f 	streq	r0, [r0, #-15]
    4d80:	00003fb8 			; <UNDEFINED> instruction: 0x00003fb8
    4d84:	5f110e00 	svcpl	0x00110e00
    4d88:	05006662 	streq	r6, [r0, #-1634]	; 0x662
    4d8c:	0002b6b9 			; <UNDEFINED> instruction: 0x0002b6b9
    4d90:	a70c1000 	strge	r1, [ip, -r0]
    4d94:	0500000d 	streq	r0, [r0, #-13]
    4d98:	000025ba 			; <UNDEFINED> instruction: 0x000025ba
    4d9c:	280c1800 	stmdacs	ip, {fp, ip}
    4da0:	0500000e 	streq	r0, [r0, #-14]
    4da4:	00010ac1 	andeq	r0, r1, r1, asr #21
    4da8:	cf0c1c00 	svcgt	0x000c1c00
    4dac:	05000012 	streq	r0, [r0, #-18]
    4db0:	000566c3 	andeq	r6, r5, r3, asr #13
    4db4:	e90c2000 	stmdb	ip, {sp}
    4db8:	05000012 	streq	r0, [r0, #-18]
    4dbc:	000590c5 	andeq	r9, r5, r5, asr #1
    4dc0:	c40c2400 	strgt	r2, [ip], #-1024	; 0x400
    4dc4:	05000010 	streq	r0, [r0, #-16]
    4dc8:	0005b4c8 	andeq	fp, r5, r8, asr #9
    4dcc:	890c2800 	stmdbhi	ip, {fp, sp}
    4dd0:	05000012 	streq	r0, [r0, #-18]
    4dd4:	0005cec9 	andeq	ip, r5, r9, asr #29
    4dd8:	5f112c00 	svcpl	0x00112c00
    4ddc:	05006275 	streq	r6, [r0, #-629]	; 0x275
    4de0:	0002b6cc 	andeq	fp, r2, ip, asr #13
    4de4:	5f113000 	svcpl	0x00113000
    4de8:	05007075 	streq	r7, [r0, #-117]	; 0x75
    4dec:	0002dbcd 	andeq	sp, r2, sp, asr #23
    4df0:	5f113800 	svcpl	0x00113800
    4df4:	05007275 	streq	r7, [r0, #-629]	; 0x275
    4df8:	000025ce 	andeq	r2, r0, lr, asr #11
    4dfc:	eb0c3c00 	bl	313e04 <__bss_end__+0x308254>
    4e00:	0500000d 	streq	r0, [r0, #-13]
    4e04:	0005d4d1 	ldrdeq	sp, [r5], -r1
    4e08:	340c4000 	strcc	r4, [ip], #-0
    4e0c:	05000012 	streq	r0, [r0, #-18]
    4e10:	0005e4d2 	ldrdeq	lr, [r5], -r2
    4e14:	5f114300 	svcpl	0x00114300
    4e18:	0500626c 	streq	r6, [r0, #-620]	; 0x26c
    4e1c:	0002b6d5 	ldrdeq	fp, [r2], -r5
    4e20:	4e0c4400 	cfcpysmi	mvf4, mvf12
    4e24:	0500000e 	streq	r0, [r0, #-14]
    4e28:	000025d8 	ldrdeq	r2, [r0], -r8
    4e2c:	b60c4c00 	strlt	r4, [ip], -r0, lsl #24
    4e30:	0500000f 	streq	r0, [r0, #-15]
    4e34:	00007bd9 	ldrdeq	r7, [r0], -r9
    4e38:	1f0c5000 	svcne	0x000c5000
    4e3c:	05000012 	streq	r0, [r0, #-18]
    4e40:	000429dc 	ldrdeq	r2, [r4], -ip
    4e44:	9e0c5400 	cfcpysls	mvf5, mvf12
    4e48:	0500000f 	streq	r0, [r0, #-15]
    4e4c:	0000ffe0 	andeq	pc, r0, r0, ror #31
    4e50:	5a0c5800 	bpl	31ae58 <__bss_end__+0x30f2a8>
    4e54:	05000010 	streq	r0, [r0, #-16]
    4e58:	0000f4e2 	andeq	pc, r0, r2, ror #9
    4e5c:	a40c5c00 	strge	r5, [ip], #-3072	; 0xc00
    4e60:	0500000f 	streq	r0, [r0, #-15]
    4e64:	000025e3 	andeq	r2, r0, r3, ror #11
    4e68:	15006400 	strne	r6, [r0, #-1024]	; 0x400
    4e6c:	00000025 	andeq	r0, r0, r5, lsr #32
    4e70:	00000429 	andeq	r0, r0, r9, lsr #8
    4e74:	00042916 	andeq	r2, r4, r6, lsl r9
    4e78:	010a1600 	tsteq	sl, r0, lsl #12
    4e7c:	0c160000 	ldceq	0, cr0, [r6], {-0}
    4e80:	16000001 	strne	r0, [r0], -r1
    4e84:	00000025 	andeq	r0, r0, r5, lsr #32
    4e88:	34040e00 	strcc	r0, [r4], #-3584	; 0xe00
    4e8c:	0f000004 	svceq	0x00000004
    4e90:	00000429 	andeq	r0, r0, r9, lsr #8
    4e94:	0010a717 	andseq	sl, r0, r7, lsl r7
    4e98:	05042800 	streq	r2, [r4, #-2048]	; 0x800
    4e9c:	05660238 	strbeq	r0, [r6, #-568]!	; 0x238
    4ea0:	22180000 	andscs	r0, r8, #0
    4ea4:	05000010 	streq	r0, [r0, #-16]
    4ea8:	0025023a 	eoreq	r0, r5, sl, lsr r2
    4eac:	18000000 	stmdane	r0, {}	; <UNPREDICTABLE>
    4eb0:	00000e47 	andeq	r0, r0, r7, asr #28
    4eb4:	3b023f05 	blcc	94ad0 <__bss_end__+0x88f20>
    4eb8:	04000006 	streq	r0, [r0], #-6
    4ebc:	000f3b18 	andeq	r3, pc, r8, lsl fp	; <UNPREDICTABLE>
    4ec0:	023f0500 	eorseq	r0, pc, #0, 10
    4ec4:	0000063b 	andeq	r0, r0, fp, lsr r6
    4ec8:	0efc1808 	cdpeq	8, 15, cr1, cr12, cr8, {0}
    4ecc:	3f050000 	svccc	0x00050000
    4ed0:	00063b02 	andeq	r3, r6, r2, lsl #22
    4ed4:	7b180c00 	blvc	607edc <__bss_end__+0x5fc32c>
    4ed8:	05000010 	streq	r0, [r0, #-16]
    4edc:	00250241 	eoreq	r0, r5, r1, asr #4
    4ee0:	18100000 	ldmdane	r0, {}	; <UNPREDICTABLE>
    4ee4:	00000d72 	andeq	r0, r0, r2, ror sp
    4ee8:	1d024205 	sfmne	f4, 4, [r2, #-20]	; 0xffffffec
    4eec:	14000008 	strne	r0, [r0], #-8
    4ef0:	00119918 	andseq	r9, r1, r8, lsl r9
    4ef4:	02440500 	subeq	r0, r4, #0, 10
    4ef8:	00000025 	andeq	r0, r0, r5, lsr #32
    4efc:	10851830 	addne	r1, r5, r0, lsr r8
    4f00:	45050000 	strmi	r0, [r5, #-0]
    4f04:	00058a02 	andeq	r8, r5, r2, lsl #20
    4f08:	e8183400 	ldmda	r8, {sl, ip, sp}
    4f0c:	0500000f 	streq	r0, [r0, #-15]
    4f10:	00250247 	eoreq	r0, r5, r7, asr #4
    4f14:	18380000 	ldmdane	r8!, {}	; <UNPREDICTABLE>
    4f18:	00001095 	muleq	r0, r5, r0
    4f1c:	38024905 	stmdacc	r2, {r0, r2, r8, fp, lr}
    4f20:	3c000008 	stccc	0, cr0, [r0], {8}
    4f24:	000f7a18 	andeq	r7, pc, r8, lsl sl	; <UNPREDICTABLE>
    4f28:	024c0500 	subeq	r0, ip, #0, 10
    4f2c:	0000017c 	andeq	r0, r0, ip, ror r1
    4f30:	0f1b1840 	svceq	0x001b1840
    4f34:	4d050000 	stcmi	0, cr0, [r5, #-0]
    4f38:	00002502 	andeq	r2, r0, r2, lsl #10
    4f3c:	a3184400 	tstge	r8, #0, 8
    4f40:	05000012 	streq	r0, [r0, #-18]
    4f44:	017c024e 	cmneq	ip, lr, asr #4
    4f48:	18480000 	stmdane	r8, {}^	; <UNPREDICTABLE>
    4f4c:	00000fff 	strdeq	r0, [r0], -pc	; <UNPREDICTABLE>
    4f50:	3e024f05 	cdpcc	15, 0, cr4, cr2, cr5, {0}
    4f54:	4c000008 	stcmi	0, cr0, [r0], {8}
    4f58:	000f4318 	andeq	r4, pc, r8, lsl r3	; <UNPREDICTABLE>
    4f5c:	02520500 	subseq	r0, r2, #0, 10
    4f60:	00000025 	andeq	r0, r0, r5, lsr #32
    4f64:	0e6a1850 	mcreq	8, 3, r1, cr10, cr0, {2}
    4f68:	53050000 	movwpl	r0, #20480	; 0x5000
    4f6c:	00010c02 	andeq	r0, r1, r2, lsl #24
    4f70:	1b185400 	blne	619f78 <__bss_end__+0x60e3c8>
    4f74:	05000010 	streq	r0, [r0, #-16]
    4f78:	07fb0276 			; <UNDEFINED> instruction: 0x07fb0276
    4f7c:	19580000 	ldmdbne	r8, {}^	; <UNPREDICTABLE>
    4f80:	00000fe0 	andeq	r0, r0, r0, ror #31
    4f84:	99027a05 	stmdbls	r2, {r0, r2, r9, fp, ip, sp, lr}
    4f88:	48000002 	stmdami	r0, {r1}
    4f8c:	0f581901 	svceq	0x00581901
    4f90:	7b050000 	blvc	144f98 <__bss_end__+0x1393e8>
    4f94:	00025b02 	andeq	r5, r2, r2, lsl #22
    4f98:	19014c00 	stmdbne	r1, {sl, fp, lr}
    4f9c:	00001205 	andeq	r1, r0, r5, lsl #4
    4fa0:	4f027f05 	svcmi	0x00027f05
    4fa4:	dc000008 	stcle	0, cr0, [r0], {8}
    4fa8:	0e301902 	cdpeq	9, 3, cr1, cr0, cr2, {0}
    4fac:	84050000 	strhi	r0, [r5], #-0
    4fb0:	00060002 	andeq	r0, r6, r2
    4fb4:	1902e000 	stmdbne	r2, {sp, lr, pc}
    4fb8:	00000e15 	andeq	r0, r0, r5, lsl lr
    4fbc:	5b028505 	blpl	a63d8 <__bss_end__+0x9a828>
    4fc0:	ec000008 	stc	0, cr0, [r0], {8}
    4fc4:	040e0002 	streq	r0, [lr], #-2
    4fc8:	0000040b 	andeq	r0, r0, fp, lsl #8
    4fcc:	00002515 	andeq	r2, r0, r5, lsl r5
    4fd0:	00058a00 	andeq	r8, r5, r0, lsl #20
    4fd4:	04291600 	strteq	r1, [r9], #-1536	; 0x600
    4fd8:	0a160000 	beq	584fe0 <__bss_end__+0x579430>
    4fdc:	16000001 	strne	r0, [r0], -r1
    4fe0:	0000058a 	andeq	r0, r0, sl, lsl #11
    4fe4:	00002516 	andeq	r2, r0, r6, lsl r5
    4fe8:	040e0000 	streq	r0, [lr], #-0
    4fec:	00000119 	andeq	r0, r0, r9, lsl r1
    4ff0:	056c040e 	strbeq	r0, [ip, #-1038]!	; 0x40e
    4ff4:	86150000 	ldrhi	r0, [r5], -r0
    4ff8:	b4000000 	strlt	r0, [r0], #-0
    4ffc:	16000005 	strne	r0, [r0], -r5
    5000:	00000429 	andeq	r0, r0, r9, lsr #8
    5004:	00010a16 	andeq	r0, r1, r6, lsl sl
    5008:	00861600 	addeq	r1, r6, r0, lsl #12
    500c:	25160000 	ldrcs	r0, [r6, #-0]
    5010:	00000000 	andeq	r0, r0, r0
    5014:	0596040e 	ldreq	r0, [r6, #1038]	; 0x40e
    5018:	25150000 	ldrcs	r0, [r5, #-0]
    501c:	ce000000 	cdpgt	0, 0, cr0, cr0, cr0, {0}
    5020:	16000005 	strne	r0, [r0], -r5
    5024:	00000429 	andeq	r0, r0, r9, lsr #8
    5028:	00010a16 	andeq	r0, r1, r6, lsl sl
    502c:	040e0000 	streq	r0, [lr], #-0
    5030:	000005ba 			; <UNDEFINED> instruction: 0x000005ba
    5034:	00005409 	andeq	r5, r0, r9, lsl #8
    5038:	0005e400 	andeq	lr, r5, r0, lsl #8
    503c:	00cc0a00 	sbceq	r0, ip, r0, lsl #20
    5040:	00020000 	andeq	r0, r2, r0
    5044:	00005409 	andeq	r5, r0, r9, lsl #8
    5048:	0005f400 	andeq	pc, r5, r0, lsl #8
    504c:	00cc0a00 	sbceq	r0, ip, r0, lsl #20
    5050:	00000000 	andeq	r0, r0, r0
    5054:	00104006 	andseq	r4, r0, r6
    5058:	011d0500 	tsteq	sp, r0, lsl #10
    505c:	000002e1 	andeq	r0, r0, r1, ror #5
    5060:	0011c71a 	andseq	ip, r1, sl, lsl r7
    5064:	21050c00 	tstcs	r5, r0, lsl #24
    5068:	00063501 	andeq	r3, r6, r1, lsl #10
    506c:	10681800 	rsbne	r1, r8, r0, lsl #16
    5070:	23050000 	movwcs	r0, #20480	; 0x5000
    5074:	00063501 	andeq	r3, r6, r1, lsl #10
    5078:	51180000 	tstpl	r8, r0
    507c:	0500000f 	streq	r0, [r0, #-15]
    5080:	00250124 	eoreq	r0, r5, r4, lsr #2
    5084:	18040000 	stmdane	r4, {}	; <UNPREDICTABLE>
    5088:	0000103a 	andeq	r1, r0, sl, lsr r0
    508c:	3b012505 	blcc	4e4a8 <__bss_end__+0x428f8>
    5090:	08000006 	stmdaeq	r0, {r1, r2}
    5094:	00040e00 	andeq	r0, r4, r0, lsl #28
    5098:	0e000006 	cdpeq	0, 0, cr0, cr0, cr6, {0}
    509c:	0005f404 	andeq	pc, r5, r4, lsl #8
    50a0:	0d6a1a00 	vstmdbeq	sl!, {s3-s2}
    50a4:	050e0000 	streq	r0, [lr, #-0]
    50a8:	0676013d 			; <UNDEFINED> instruction: 0x0676013d
    50ac:	ae180000 	cdpge	0, 1, cr0, cr8, cr0, {0}
    50b0:	05000010 	streq	r0, [r0, #-16]
    50b4:	0676013e 			; <UNDEFINED> instruction: 0x0676013e
    50b8:	18000000 	stmdane	r0, {}	; <UNPREDICTABLE>
    50bc:	000010e8 	andeq	r1, r0, r8, ror #1
    50c0:	76013f05 	strvc	r3, [r1], -r5, lsl #30
    50c4:	06000006 	streq	r0, [r0], -r6
    50c8:	00116c18 	andseq	r6, r1, r8, lsl ip
    50cc:	01400500 	cmpeq	r0, r0, lsl #10
    50d0:	0000005b 	andeq	r0, r0, fp, asr r0
    50d4:	5b09000c 	blpl	24510c <__bss_end__+0x23955c>
    50d8:	86000000 	strhi	r0, [r0], -r0
    50dc:	0a000006 	beq	50fc <__code_start__-0x2f04>
    50e0:	000000cc 	andeq	r0, r0, ip, asr #1
    50e4:	d01b0002 	andsle	r0, fp, r2
    50e8:	87025705 	strhi	r5, [r2, -r5, lsl #14]
    50ec:	18000007 	stmdane	r0, {r0, r1, r2}
    50f0:	000011ab 	andeq	r1, r0, fp, lsr #3
    50f4:	2c025905 	stccs	9, cr5, [r2], {5}
    50f8:	00000000 	andeq	r0, r0, r0
    50fc:	00115618 	andseq	r5, r1, r8, lsl r6
    5100:	025a0500 	subseq	r0, sl, #0, 10
    5104:	0000010c 	andeq	r0, r0, ip, lsl #2
    5108:	0f6d1804 	svceq	0x006d1804
    510c:	5b050000 	blpl	145114 <__bss_end__+0x139564>
    5110:	00078702 	andeq	r8, r7, r2, lsl #14
    5114:	7a180800 	bvc	60711c <__bss_end__+0x5fb56c>
    5118:	05000012 	streq	r0, [r0, #-18]
    511c:	0192025c 	orrseq	r0, r2, ip, asr r2
    5120:	18240000 	stmdane	r4!, {}	; <UNPREDICTABLE>
    5124:	00000f0c 	andeq	r0, r0, ip, lsl #30
    5128:	25025d05 	strcs	r5, [r2, #-3333]	; 0xd05
    512c:	48000000 	stmdami	r0, {}	; <UNPREDICTABLE>
    5130:	00106318 	andseq	r6, r0, r8, lsl r3
    5134:	025e0500 	subseq	r0, lr, #0, 10
    5138:	00000069 	andeq	r0, r0, r9, rrx
    513c:	12901850 	addsne	r1, r0, #80, 16	; 0x500000
    5140:	5f050000 	svcpl	0x00050000
    5144:	00064102 	andeq	r4, r6, r2, lsl #2
    5148:	6e185800 	cdpvs	8, 1, cr5, cr8, cr0, {0}
    514c:	05000010 	streq	r0, [r0, #-16]
    5150:	00f40260 	rscseq	r0, r4, r0, ror #4
    5154:	18680000 	stmdane	r8!, {}^	; <UNPREDICTABLE>
    5158:	00001295 	muleq	r0, r5, r2
    515c:	f4026105 	vst4.8	{d6,d8,d10,d12}, [r2], r5
    5160:	70000000 	andvc	r0, r0, r0
    5164:	000dcf18 	andeq	ip, sp, r8, lsl pc
    5168:	02620500 	rsbeq	r0, r2, #0, 10
    516c:	000000f4 	strdeq	r0, [r0], -r4
    5170:	11e71878 	mvnne	r1, r8, ror r8
    5174:	63050000 	movwvs	r0, #20480	; 0x5000
    5178:	00079702 	andeq	r9, r7, r2, lsl #14
    517c:	61188000 	tstvs	r8, r0
    5180:	0500000f 	streq	r0, [r0, #-15]
    5184:	07a70264 	streq	r0, [r7, r4, ror #4]!
    5188:	18880000 	stmne	r8, {}	; <UNPREDICTABLE>
    518c:	00001179 	andeq	r1, r0, r9, ror r1
    5190:	25026505 	strcs	r6, [r2, #-1285]	; 0x505
    5194:	a0000000 	andge	r0, r0, r0
    5198:	000eb818 	andeq	fp, lr, r8, lsl r8
    519c:	02660500 	rsbeq	r0, r6, #0, 10
    51a0:	000000f4 	strdeq	r0, [r0], -r4
    51a4:	0dc018a4 	stcleq	8, cr1, [r0, #656]	; 0x290
    51a8:	67050000 	strvs	r0, [r5, -r0]
    51ac:	0000f402 	andeq	pc, r0, r2, lsl #8
    51b0:	a718ac00 	ldrge	sl, [r8, -r0, lsl #24]
    51b4:	0500000e 	streq	r0, [r0, #-14]
    51b8:	00f40268 	rscseq	r0, r4, r8, ror #4
    51bc:	18b40000 	ldmne	r4!, {}	; <UNPREDICTABLE>
    51c0:	00000d87 	andeq	r0, r0, r7, lsl #27
    51c4:	f4026905 	vst2.8	{d6,d8}, [r2], r5
    51c8:	bc000000 	stclt	0, cr0, [r0], {-0}
    51cc:	000d9618 	andeq	r9, sp, r8, lsl r6
    51d0:	026a0500 	rsbeq	r0, sl, #0, 10
    51d4:	000000f4 	strdeq	r0, [r0], -r4
    51d8:	102018c4 	eorne	r1, r0, r4, asr #17
    51dc:	6b050000 	blvs	1451e4 <__bss_end__+0x139634>
    51e0:	00002502 	andeq	r2, r0, r2, lsl #10
    51e4:	0900cc00 	stmdbeq	r0, {sl, fp, lr, pc}
    51e8:	00000112 	andeq	r0, r0, r2, lsl r1
    51ec:	00000797 	muleq	r0, r7, r7
    51f0:	0000cc0a 	andeq	ip, r0, sl, lsl #24
    51f4:	09001900 	stmdbeq	r0, {r8, fp, ip}
    51f8:	00000112 	andeq	r0, r0, r2, lsl r1
    51fc:	000007a7 	andeq	r0, r0, r7, lsr #15
    5200:	0000cc0a 	andeq	ip, r0, sl, lsl #24
    5204:	09000700 	stmdbeq	r0, {r8, r9, sl}
    5208:	00000112 	andeq	r0, r0, r2, lsl r1
    520c:	000007b7 			; <UNDEFINED> instruction: 0x000007b7
    5210:	0000cc0a 	andeq	ip, r0, sl, lsl #24
    5214:	1b001700 	blne	ae1c <__FUNCTION__.4361+0x280>
    5218:	027005f0 	rsbseq	r0, r0, #240, 10	; 0x3c000000
    521c:	000007db 	ldrdeq	r0, [r0], -fp
    5220:	000fd018 	andeq	sp, pc, r8, lsl r0	; <UNPREDICTABLE>
    5224:	02730500 	rsbseq	r0, r3, #0, 10
    5228:	000007db 	ldrdeq	r0, [r0], -fp
    522c:	11de1800 	bicsne	r1, lr, r0, lsl #16
    5230:	74050000 	strvc	r0, [r5], #-0
    5234:	0007eb02 	andeq	lr, r7, r2, lsl #22
    5238:	09007800 	stmdbeq	r0, {fp, ip, sp, lr}
    523c:	000002db 	ldrdeq	r0, [r0], -fp
    5240:	000007eb 	andeq	r0, r0, fp, ror #15
    5244:	0000cc0a 	andeq	ip, r0, sl, lsl #24
    5248:	09001d00 	stmdbeq	r0, {r8, sl, fp, ip}
    524c:	0000002c 	andeq	r0, r0, ip, lsr #32
    5250:	000007fb 	strdeq	r0, [r0], -fp
    5254:	0000cc0a 	andeq	ip, r0, sl, lsl #24
    5258:	1c001d00 	stcne	13, cr1, [r0], {-0}
    525c:	025505f0 	subseq	r0, r5, #240, 10	; 0x3c000000
    5260:	0000081d 	andeq	r0, r0, sp, lsl r8
    5264:	0010a71d 	andseq	sl, r0, sp, lsl r7
    5268:	026c0500 	rsbeq	r0, ip, #0, 10
    526c:	00000686 	andeq	r0, r0, r6, lsl #13
    5270:	00123a1d 	andseq	r3, r2, sp, lsl sl
    5274:	02750500 	rsbseq	r0, r5, #0, 10
    5278:	000007b7 			; <UNDEFINED> instruction: 0x000007b7
    527c:	01120900 	tsteq	r2, r0, lsl #18
    5280:	082d0000 	stmdaeq	sp!, {}	; <UNPREDICTABLE>
    5284:	cc0a0000 	stcgt	0, cr0, [sl], {-0}
    5288:	18000000 	stmdane	r0, {}	; <UNPREDICTABLE>
    528c:	08381e00 	ldmdaeq	r8!, {r9, sl, fp, ip}
    5290:	29160000 	ldmdbcs	r6, {}	; <UNPREDICTABLE>
    5294:	00000004 	andeq	r0, r0, r4
    5298:	082d040e 	stmdaeq	sp!, {r1, r2, r3, sl}
    529c:	040e0000 	streq	r0, [lr], #-0
    52a0:	0000017c 	andeq	r0, r0, ip, ror r1
    52a4:	00084f1e 	andeq	r4, r8, lr, lsl pc
    52a8:	00251600 	eoreq	r1, r5, r0, lsl #12
    52ac:	0e000000 	cdpeq	0, 0, cr0, cr0, cr0, {0}
    52b0:	00085504 	andeq	r5, r8, r4, lsl #10
    52b4:	44040e00 	strmi	r0, [r4], #-3584	; 0xe00
    52b8:	09000008 	stmdbeq	r0, {r3}
    52bc:	000005f4 	strdeq	r0, [r0], -r4
    52c0:	0000086b 	andeq	r0, r0, fp, ror #16
    52c4:	0000cc0a 	andeq	ip, r0, sl, lsl #24
    52c8:	1f000200 	svcne	0x00000200
    52cc:	0000118d 	andeq	r1, r0, sp, lsl #3
    52d0:	2902fd05 	stmdbcs	r2, {r0, r2, r8, sl, fp, ip, sp, lr, pc}
    52d4:	1f000004 	svcne	0x00000004
    52d8:	00001186 	andeq	r1, r0, r6, lsl #3
    52dc:	2f02fe05 	svccs	0x0002fe05
    52e0:	15000004 	strne	r0, [r0, #-4]
    52e4:	00000025 	andeq	r0, r0, r5, lsr #32
    52e8:	00000892 	muleq	r0, r2, r8
    52ec:	00002516 	andeq	r2, r0, r6, lsl r5
    52f0:	d2200000 	eorle	r0, r0, #0
    52f4:	06000009 	streq	r0, [r0], -r9
    52f8:	00089d1d 	andeq	r9, r8, sp, lsl sp
    52fc:	83040e00 	movwhi	r0, #19968	; 0x4e00
    5300:	15000008 	strne	r0, [r0, #-8]
    5304:	00000025 	andeq	r0, r0, r5, lsr #32
    5308:	000008b2 			; <UNDEFINED> instruction: 0x000008b2
    530c:	00058a16 	andeq	r8, r5, r6, lsl sl
    5310:	0f200000 	svceq	0x00200000
    5314:	0600000a 	streq	r0, [r0], -sl
    5318:	0008bd22 	andeq	fp, r8, r2, lsr #26
    531c:	a3040e00 	movwge	r0, #19968	; 0x4e00
    5320:	21000008 	tstcs	r0, r8
    5324:	00005401 	andeq	r5, r0, r1, lsl #8
    5328:	000c0800 	andeq	r0, ip, r0, lsl #16
    532c:	22000009 	andcs	r0, r0, #9
    5330:	00000db0 			; <UNDEFINED> instruction: 0x00000db0
    5334:	11cd2200 	bicne	r2, sp, r0, lsl #4
    5338:	22010000 	andcs	r0, r1, #0
    533c:	00001225 	andeq	r1, r0, r5, lsr #4
    5340:	0df12204 	lfmeq	f2, 2, [r1, #16]!
    5344:	22050000 	andcs	r0, r5, #0
    5348:	00000f88 	andeq	r0, r0, r8, lsl #31
    534c:	12422206 	subne	r2, r2, #1610612736	; 0x60000000
    5350:	22070000 	andcs	r0, r7, #0
    5354:	00001251 	andeq	r1, r0, r1, asr r2
    5358:	12602203 	rsbne	r2, r0, #805306368	; 0x30000000
    535c:	00020000 	andeq	r0, r2, r0
    5360:	000e5e10 	andeq	r5, lr, r0, lsl lr
    5364:	06072c00 	streq	r2, [r7], -r0, lsl #24
    5368:	00000990 	muleq	r0, r0, r9
    536c:	006f6911 	rsbeq	r6, pc, r1, lsl r9	; <UNPREDICTABLE>
    5370:	00330907 	eorseq	r0, r3, r7, lsl #18
    5374:	11000000 	mrsne	r0, (UNDEF: 0)
    5378:	00726569 	rsbseq	r6, r2, r9, ror #10
    537c:	00330a07 	eorseq	r0, r3, r7, lsl #20
    5380:	11040000 	mrsne	r0, (UNDEF: 4)
    5384:	00726969 	rsbseq	r6, r2, r9, ror #18
    5388:	00331107 	eorseq	r1, r3, r7, lsl #2
    538c:	11080000 	mrsne	r0, (UNDEF: 8)
    5390:	0072636c 	rsbseq	r6, r2, ip, ror #6
    5394:	00331307 	eorseq	r1, r3, r7, lsl #6
    5398:	110c0000 	mrsne	r0, (UNDEF: 12)
    539c:	0072636d 	rsbseq	r6, r2, sp, ror #6
    53a0:	00331407 	eorseq	r1, r3, r7, lsl #8
    53a4:	11100000 	tstne	r0, r0
    53a8:	0072736c 	rsbseq	r7, r2, ip, ror #6
    53ac:	00331507 	eorseq	r1, r3, r7, lsl #10
    53b0:	11140000 	tstne	r4, r0
    53b4:	0072736d 	rsbseq	r7, r2, sp, ror #6
    53b8:	00331607 	eorseq	r1, r3, r7, lsl #12
    53bc:	0c180000 	ldceq	0, cr0, [r8], {-0}
    53c0:	000010e0 	andeq	r1, r0, r0, ror #1
    53c4:	00331707 	eorseq	r1, r3, r7, lsl #14
    53c8:	0c1c0000 	ldceq	0, cr0, [ip], {-0}
    53cc:	00000e06 	andeq	r0, r0, r6, lsl #28
    53d0:	00331b07 	eorseq	r1, r3, r7, lsl #22
    53d4:	0c200000 	stceq	0, cr0, [r0], #-0
    53d8:	00000de6 	andeq	r0, r0, r6, ror #27
    53dc:	00331d07 	eorseq	r1, r3, r7, lsl #26
    53e0:	0c240000 	stceq	0, cr0, [r4], #-0
    53e4:	000010ca 	andeq	r1, r0, sl, asr #1
    53e8:	00331e07 	eorseq	r1, r3, r7, lsl #28
    53ec:	00280000 	eoreq	r0, r8, r0
    53f0:	000ece23 	andeq	ip, lr, r3, lsr #28
    53f4:	a5070100 	strge	r0, [r7, #-256]	; 0x100
    53f8:	04000009 	streq	r0, [r0], #-9
    53fc:	0e202150 	mcreq	1, 1, r2, cr0, cr0, {2}
    5400:	00003304 	andeq	r3, r0, r4, lsl #6
    5404:	099f0f00 	ldmibeq	pc, {r8, r9, sl, fp}	; <UNPREDICTABLE>
    5408:	fa230000 	blx	8c5410 <__bss_end__+0x8b9860>
    540c:	0100000f 	tsteq	r0, pc
    5410:	0009bf28 	andeq	fp, r9, r8, lsr #30
    5414:	21504000 	cmpcs	r0, r0
    5418:	00040e20 	andeq	r0, r4, r0, lsr #28
    541c:	0f000009 	svceq	0x00000009
    5420:	000009b9 			; <UNDEFINED> instruction: 0x000009b9
    5424:	00121724 	andseq	r1, r2, r4, lsr #14
    5428:	25a70100 	strcs	r0, [r7, #256]!	; 0x100
    542c:	d0000000 	andle	r0, r0, r0
    5430:	100000a3 	andne	r0, r0, r3, lsr #1
    5434:	01000000 	mrseq	r0, (UNDEF: 0)
    5438:	0009f09c 	muleq	r9, ip, r0
    543c:	a3d82500 	bicsge	r2, r8, #0, 10
    5440:	0c9c0000 	ldceq	0, cr0, [ip], {0}
    5444:	dc250000 	stcle	0, cr0, [r5], #-0
    5448:	d20000a3 	andle	r0, r0, #163	; 0xa3
    544c:	0000000a 	andeq	r0, r0, sl
    5450:	0009b726 	andeq	fp, r9, r6, lsr #14
    5454:	a09f0100 	addsge	r0, pc, r0, lsl #2
    5458:	300000a3 	andcc	r0, r0, r3, lsr #1
    545c:	01000000 	mrseq	r0, (UNDEF: 0)
    5460:	000a4e9c 	muleq	sl, ip, lr
    5464:	00632700 	rsbeq	r2, r3, r0, lsl #14
    5468:	002c9f01 	eoreq	r9, ip, r1, lsl #30
    546c:	17e00000 	strbne	r0, [r0, r0]!
    5470:	ac250000 	stcge	0, cr0, [r5], #-0
    5474:	9c0000a3 	stcls	0, cr0, [r0], {163}	; 0xa3
    5478:	2500000c 	strcs	r0, [r0, #-12]
    547c:	0000a3b0 			; <UNDEFINED> instruction: 0x0000a3b0
    5480:	00000aa5 	andeq	r0, r0, r5, lsr #21
    5484:	00a3c428 	adceq	ip, r3, r8, lsr #8
    5488:	000ca700 	andeq	sl, ip, r0, lsl #14
    548c:	000a4400 	andeq	r4, sl, r0, lsl #8
    5490:	50012900 	andpl	r2, r1, r0, lsl #18
    5494:	50400c05 	subpl	r0, r0, r5, lsl #24
    5498:	01292021 	teqeq	r9, r1, lsr #32
    549c:	00740551 	rsbseq	r0, r4, r1, asr r5
    54a0:	001aff08 	andseq	pc, sl, r8, lsl #30
    54a4:	00a3c825 	adceq	ip, r3, r5, lsr #16
    54a8:	000c9c00 	andeq	r9, ip, r0, lsl #24
    54ac:	31240000 	teqcc	r4, r0
    54b0:	0100000f 	tsteq	r0, pc
    54b4:	00002597 	muleq	r0, r7, r5
    54b8:	00a37000 	adceq	r7, r3, r0
    54bc:	00003000 	andeq	r3, r0, r0
    54c0:	a59c0100 	ldrge	r0, [ip, #256]	; 0x100
    54c4:	2a00000a 	bcs	54f4 <__code_start__-0x2b0c>
    54c8:	9b010063 	blls	4565c <__bss_end__+0x39aac>
    54cc:	00000025 	andeq	r0, r0, r5, lsr #32
    54d0:	78255401 	stmdavc	r5!, {r0, sl, ip, lr}
    54d4:	9c0000a3 	stcls	0, cr0, [r0], {163}	; 0xa3
    54d8:	2500000c 	strcs	r0, [r0, #-12]
    54dc:	0000a37c 	andeq	sl, r0, ip, ror r3
    54e0:	00000ad2 	ldrdeq	r0, [r0], -r2
    54e4:	00a38c28 	adceq	r8, r3, r8, lsr #24
    54e8:	000cb200 	andeq	fp, ip, r0, lsl #4
    54ec:	000a9b00 	andeq	r9, sl, r0, lsl #22
    54f0:	50012900 	andpl	r2, r1, r0, lsl #18
    54f4:	50400c05 	subpl	r0, r0, r5, lsl #24
    54f8:	25002021 	strcs	r2, [r0, #-33]	; 0x21
    54fc:	0000a394 	muleq	r0, r4, r3
    5500:	00000c9c 	muleq	r0, ip, ip
    5504:	0ee52400 	cdpeq	4, 14, cr2, cr5, cr0, {0}
    5508:	88010000 	stmdahi	r1, {}	; <UNPREDICTABLE>
    550c:	00000025 	andeq	r0, r0, r5, lsr #32
    5510:	0000a350 	andeq	sl, r0, r0, asr r3
    5514:	00000020 	andeq	r0, r0, r0, lsr #32
    5518:	0ad29c01 	beq	ff4ac524 <__bss_end__+0xff4a0974>
    551c:	5c2b0000 	stcpl	0, cr0, [fp], #-0
    5520:	b20000a3 	andlt	r0, r0, #163	; 0xa3
    5524:	2900000c 	stmdbcs	r0, {r2, r3}
    5528:	0c055001 	stceq	0, cr5, [r5], {1}
    552c:	20215064 	eorcs	r5, r1, r4, rrx
    5530:	f7240000 			; <UNDEFINED> instruction: 0xf7240000
    5534:	01000011 	tsteq	r0, r1, lsl r0
    5538:	0000257f 	andeq	r2, r0, pc, ror r5
    553c:	00a33800 	adceq	r3, r3, r0, lsl #16
    5540:	00001800 	andeq	r1, r0, r0, lsl #16
    5544:	ff9c0100 			; <UNDEFINED> instruction: 0xff9c0100
    5548:	2b00000a 	blcs	5578 <__code_start__-0x2a88>
    554c:	0000a344 	andeq	sl, r0, r4, asr #6
    5550:	00000cb2 			; <UNDEFINED> instruction: 0x00000cb2
    5554:	05500129 	ldrbeq	r0, [r0, #-297]	; 0x129
    5558:	2150640c 	cmpcs	r0, ip, lsl #8
    555c:	26000020 	strcs	r0, [r0], -r0, lsr #32
    5560:	00000d7d 	andeq	r0, r0, sp, ror sp
    5564:	a2883a01 	addge	r3, r8, #4096	; 0x1000
    5568:	00b00000 	adcseq	r0, r0, r0
    556c:	9c010000 	stcls	0, cr0, [r1], {-0}
    5570:	00000c3d 	andeq	r0, r0, sp, lsr ip
    5574:	00a29828 	adceq	r9, r2, r8, lsr #16
    5578:	000cbd00 	andeq	fp, ip, r0, lsl #26
    557c:	000b2c00 	andeq	r2, fp, r0, lsl #24
    5580:	50012900 	andpl	r2, r1, r0, lsl #18
    5584:	01293e01 	teqeq	r9, r1, lsl #28
    5588:	00320151 	eorseq	r0, r2, r1, asr r1
    558c:	00a2a428 	adceq	sl, r2, r8, lsr #8
    5590:	000cbd00 	andeq	fp, ip, r0, lsl #26
    5594:	000b4400 	andeq	r4, fp, r0, lsl #8
    5598:	50012900 	andpl	r2, r1, r0, lsl #18
    559c:	01293f01 	teqeq	r9, r1, lsl #30
    55a0:	00320151 	eorseq	r0, r2, r1, asr r1
    55a4:	00a2a825 	adceq	sl, r2, r5, lsr #16
    55a8:	000c9c00 	andeq	r9, ip, r0, lsl #24
    55ac:	a2b42800 	adcsge	r2, r4, #0, 16
    55b0:	0c3d0000 	ldceq	0, cr0, [sp], #-0
    55b4:	0b690000 	bleq	1a455bc <__bss_end__+0x1a39a0c>
    55b8:	01290000 	teqeq	r9, r0
    55bc:	040c0550 	streq	r0, [ip], #-1360	; 0x550
    55c0:	29202150 	stmdbcs	r0!, {r4, r6, r8, sp}
    55c4:	31015101 	tstcc	r1, r1, lsl #2
    55c8:	a2b82500 	adcsge	r2, r8, #0, 10
    55cc:	0c9c0000 	ldceq	0, cr0, [ip], {0}
    55d0:	c8280000 	stmdagt	r8!, {}	; <UNPREDICTABLE>
    55d4:	a70000a2 	strge	r0, [r0, -r2, lsr #1]
    55d8:	8b00000c 	blhi	5610 <__code_start__-0x29f0>
    55dc:	2900000b 	stmdbcs	r0, {r0, r1, r3}
    55e0:	74025001 	strvc	r5, [r2], #-1
    55e4:	51012900 	tstpl	r1, r0, lsl #18
    55e8:	28003001 	stmdacs	r0, {r0, ip, sp}
    55ec:	0000a2d4 	ldrdeq	sl, [r0], -r4
    55f0:	00000ca7 	andeq	r0, r0, r7, lsr #25
    55f4:	00000ba7 	andeq	r0, r0, r7, lsr #23
    55f8:	05500129 	ldrbeq	r0, [r0, #-297]	; 0x129
    55fc:	2150440c 	cmpcs	r0, ip, lsl #8
    5600:	51012920 	tstpl	r1, r0, lsr #18
    5604:	28003001 	stmdacs	r0, {r0, ip, sp}
    5608:	0000a2e0 	andeq	sl, r0, r0, ror #5
    560c:	00000ca7 	andeq	r0, r0, r7, lsr #25
    5610:	00000bc3 	andeq	r0, r0, r3, asr #23
    5614:	05500129 	ldrbeq	r0, [r0, #-297]	; 0x129
    5618:	21504c0c 	cmpcs	r0, ip, lsl #24
    561c:	51012920 	tstpl	r1, r0, lsr #18
    5620:	28003301 	stmdacs	r0, {r0, r8, r9, ip, sp}
    5624:	0000a2ec 	andeq	sl, r0, ip, ror #5
    5628:	00000ca7 	andeq	r0, r0, r7, lsr #25
    562c:	00000bdf 	ldrdeq	r0, [r0], -pc	; <UNPREDICTABLE>
    5630:	05500129 	ldrbeq	r0, [r0, #-297]	; 0x129
    5634:	2150500c 	cmpcs	r0, ip
    5638:	51012920 	tstpl	r1, r0, lsr #18
    563c:	28003001 	stmdacs	r0, {r0, ip, sp}
    5640:	0000a2f8 	strdeq	sl, [r0], -r8
    5644:	00000ca7 	andeq	r0, r0, r7, lsr #25
    5648:	00000bfc 	strdeq	r0, [r0], -ip
    564c:	05500129 	ldrbeq	r0, [r0, #-297]	; 0x129
    5650:	2150480c 	cmpcs	r0, ip, lsl #16
    5654:	51012920 	tstpl	r1, r0, lsr #18
    5658:	00c70802 	sbceq	r0, r7, r2, lsl #16
    565c:	00a30428 	adceq	r0, r3, r8, lsr #8
    5660:	000ca700 	andeq	sl, ip, r0, lsl #14
    5664:	000c1a00 	andeq	r1, ip, r0, lsl #20
    5668:	50012900 	andpl	r2, r1, r0, lsl #18
    566c:	50680c05 	rsbpl	r0, r8, r5, lsl #24
    5670:	01292021 	teqeq	r9, r1, lsr #32
    5674:	0e0a0351 	mcreq	3, 0, r0, cr10, cr1, {2}
    5678:	10280001 	eorne	r0, r8, r1
    567c:	a70000a3 	strge	r0, [r0, -r3, lsr #1]
    5680:	3300000c 	movwcc	r0, #12
    5684:	2900000c 	stmdbcs	r0, {r2, r3}
    5688:	74025001 	strvc	r5, [r2], #-1
    568c:	51012900 	tstpl	r1, r0, lsl #18
    5690:	25003301 	strcs	r3, [r0, #-769]	; 0x301
    5694:	0000a314 	andeq	sl, r0, r4, lsl r3
    5698:	00000c9c 	muleq	r0, ip, ip
    569c:	120f2c00 	andne	r2, pc, #0, 24
    56a0:	2d010000 	stccs	0, cr0, [r1, #-0]
    56a4:	0000a268 	andeq	sl, r0, r8, ror #4
    56a8:	00000020 	andeq	r0, r0, r0, lsr #32
    56ac:	0c959c01 	ldceq	12, cr9, [r5], {1}
    56b0:	782d0000 	stmdavc	sp!, {}	; <UNPREDICTABLE>
    56b4:	01000002 	tsteq	r0, r2
    56b8:	000c952d 	andeq	r9, ip, sp, lsr #10
    56bc:	0017fe00 	andseq	pc, r7, r0, lsl #28
    56c0:	61762700 	cmnvs	r6, r0, lsl #14
    56c4:	2d01006c 	stccs	0, cr0, [r1, #-432]	; 0xfffffe50
    56c8:	0000002c 	andeq	r0, r0, ip, lsr #32
    56cc:	0000181c 	andeq	r1, r0, ip, lsl r8
    56d0:	00a27828 	adceq	r7, r2, r8, lsr #16
    56d4:	000cb200 	andeq	fp, ip, r0, lsl #4
    56d8:	000c8400 	andeq	r8, ip, r0, lsl #8
    56dc:	50012900 	andpl	r2, r1, r0, lsl #18
    56e0:	00007402 	andeq	r7, r0, r2, lsl #8
    56e4:	00a2842b 	adceq	r8, r2, fp, lsr #8
    56e8:	000ca700 	andeq	sl, ip, r0, lsl #14
    56ec:	50012900 	andpl	r2, r1, r0, lsl #18
    56f0:	00007402 	andeq	r7, r0, r2, lsl #8
    56f4:	9b040e00 	blls	108efc <__bss_end__+0xfd34c>
    56f8:	2e00000c 	cdpcs	0, 0, cr0, cr0, cr12, {0}
    56fc:	0002f02f 	andeq	pc, r2, pc, lsr #32
    5700:	0002f000 	andeq	pc, r2, r0
    5704:	2f890600 	svccs	0x00890600
    5708:	000010ee 	andeq	r1, r0, lr, ror #1
    570c:	000010ee 	andeq	r1, r0, lr, ror #1
    5710:	f12f9c06 			; <UNDEFINED> instruction: 0xf12f9c06
    5714:	f1000011 	cps	#17
    5718:	06000011 			; <UNDEFINED> instruction: 0x06000011
    571c:	0fbe2fa8 	svceq	0x00be2fa8
    5720:	0fbe0000 	svceq	0x00be0000
    5724:	19080000 	stmdbne	r8, {}	; <UNPREDICTABLE>
    5728:	000b7000 	andeq	r7, fp, r0
    572c:	43000400 	movwmi	r0, #1024	; 0x400
    5730:	0400001b 	streq	r0, [r0], #-27
    5734:	0010f401 	andseq	pc, r0, r1, lsl #8
    5738:	12c40c00 	sbcne	r0, r4, #0, 24
    573c:	0e720000 	cdpeq	0, 7, cr0, cr2, cr0, {0}
    5740:	a3e00000 	mvnge	r0, #0
    5744:	01200000 	teqeq	r0, r0
    5748:	17cd0000 	strbne	r0, [sp, r0]
    574c:	04020000 	streq	r0, [r2], #-0
    5750:	746e6905 	strbtvc	r6, [lr], #-2309	; 0x905
    5754:	07040300 	streq	r0, [r4, -r0, lsl #6]
    5758:	00000148 	andeq	r0, r0, r8, asr #2
    575c:	00002c04 	andeq	r2, r0, r4, lsl #24
    5760:	06010300 	streq	r0, [r1], -r0, lsl #6
    5764:	0000005b 	andeq	r0, r0, fp, asr r0
    5768:	95050203 	strls	r0, [r5, #-515]	; 0x203
    576c:	03000001 	movweq	r0, #1
    5770:	01760504 	cmneq	r6, r4, lsl #10
    5774:	08030000 	stmdaeq	r3, {}	; <UNPREDICTABLE>
    5778:	00017105 	andeq	r7, r1, r5, lsl #2
    577c:	08010300 	stmdaeq	r1, {r8, r9}
    5780:	00000059 	andeq	r0, r0, r9, asr r0
    5784:	20070203 	andcs	r0, r7, r3, lsl #4
    5788:	03000000 	movweq	r0, #0
    578c:	01430704 	cmpeq	r3, r4, lsl #14
    5790:	08030000 	stmdaeq	r3, {}	; <UNPREDICTABLE>
    5794:	00013e07 	andeq	r3, r1, r7, lsl #28
    5798:	10090500 	andne	r0, r9, r0, lsl #10
    579c:	07020000 	streq	r0, [r2, -r0]
    57a0:	00000025 	andeq	r0, r0, r5, lsr #32
    57a4:	000ff305 	andeq	pc, pc, r5, lsl #6
    57a8:	462c0300 	strtmi	r0, [ip], -r0, lsl #6
    57ac:	05000000 	streq	r0, [r0, #-0]
    57b0:	000010cf 	andeq	r1, r0, pc, asr #1
    57b4:	00467203 	subeq	r7, r6, r3, lsl #4
    57b8:	97060000 	strls	r0, [r6, -r0]
    57bc:	0400000f 	streq	r0, [r0], #-15
    57c0:	002c0165 	eoreq	r0, ip, r5, ror #2
    57c4:	04070000 	streq	r0, [r7], #-0
    57c8:	00bca603 	adcseq	sl, ip, r3, lsl #12
    57cc:	82080000 	andhi	r0, r8, #0
    57d0:	0300000f 	movweq	r0, #15
    57d4:	000091a8 	andeq	r9, r0, r8, lsr #3
    57d8:	0f2a0800 	svceq	0x002a0800
    57dc:	a9030000 	stmdbge	r3, {}	; <UNPREDICTABLE>
    57e0:	000000bc 	strheq	r0, [r0], -ip
    57e4:	00540900 	subseq	r0, r4, r0, lsl #18
    57e8:	00cc0000 	sbceq	r0, ip, r0
    57ec:	cc0a0000 	stcgt	0, cr0, [sl], {-0}
    57f0:	03000000 	movweq	r0, #0
    57f4:	07040300 	streq	r0, [r4, -r0, lsl #6]
    57f8:	00000155 	andeq	r0, r0, r5, asr r1
    57fc:	a303080b 	movwge	r0, #14347	; 0x380b
    5800:	000000f4 	strdeq	r0, [r0], -r4
    5804:	0010b40c 	andseq	fp, r0, ip, lsl #8
    5808:	25a50300 	strcs	r0, [r5, #768]!	; 0x300
    580c:	00000000 	andeq	r0, r0, r0
    5810:	0010bc0c 	andseq	fp, r0, ip, lsl #24
    5814:	9daa0300 	stcls	3, cr0, [sl]
    5818:	04000000 	streq	r0, [r0], #-0
    581c:	10470500 	subne	r0, r7, r0, lsl #10
    5820:	ab030000 	blge	c5828 <__bss_end__+0xb9c78>
    5824:	000000d3 	ldrdeq	r0, [r0], -r3
    5828:	000ef305 	andeq	pc, lr, r5, lsl #6
    582c:	70af0300 	adcvc	r0, pc, r0, lsl #6
    5830:	0d000000 	stceq	0, cr0, [r0, #-0]
    5834:	12040e04 	andne	r0, r4, #4, 28	; 0x40
    5838:	03000001 	movweq	r0, #1
    583c:	00620801 	rsbeq	r0, r2, r1, lsl #16
    5840:	12040000 	andne	r0, r4, #0
    5844:	05000001 	streq	r0, [r0, #-1]
    5848:	00001171 	andeq	r1, r0, r1, ror r1
    584c:	00621605 	rsbeq	r1, r2, r5, lsl #12
    5850:	040f0000 	streq	r0, [pc], #-0	; 5858 <__code_start__-0x27a8>
    5854:	1800000f 	stmdane	r0, {r0, r1, r2, r3}
    5858:	017c2d05 	cmneq	ip, r5, lsl #26
    585c:	680c0000 	stmdavs	ip, {}	; <UNPREDICTABLE>
    5860:	05000010 	streq	r0, [r0, #-16]
    5864:	00017c2f 	andeq	r7, r1, pc, lsr #24
    5868:	5f100000 	svcpl	0x00100000
    586c:	3005006b 	andcc	r0, r5, fp, rrx
    5870:	00000025 	andeq	r0, r0, r5, lsr #32
    5874:	109f0c04 	addsne	r0, pc, r4, lsl #24
    5878:	30050000 	andcc	r0, r5, r0
    587c:	00000025 	andeq	r0, r0, r5, lsr #32
    5880:	0edf0c08 	cdpeq	12, 13, cr0, cr15, cr8, {0}
    5884:	30050000 	andcc	r0, r5, r0
    5888:	00000025 	andeq	r0, r0, r5, lsr #32
    588c:	11b80c0c 			; <UNDEFINED> instruction: 0x11b80c0c
    5890:	30050000 	andcc	r0, r5, r0
    5894:	00000025 	andeq	r0, r0, r5, lsr #32
    5898:	785f1010 	ldmdavc	pc, {r4, ip}^	; <UNPREDICTABLE>
    589c:	82310500 	eorshi	r0, r1, #0, 10
    58a0:	14000001 	strne	r0, [r0], #-1
    58a4:	29040e00 	stmdbcs	r4, {r9, sl, fp}
    58a8:	09000001 	stmdbeq	r0, {r0}
    58ac:	0000011e 	andeq	r0, r0, lr, lsl r1
    58b0:	00000192 	muleq	r0, r2, r1
    58b4:	0000cc0a 	andeq	ip, r0, sl, lsl #24
    58b8:	0f000000 	svceq	0x00000000
    58bc:	00000f25 	andeq	r0, r0, r5, lsr #30
    58c0:	0b350524 	bleq	d46d58 <__bss_end__+0xd3b1a8>
    58c4:	0c000002 	stceq	0, cr0, [r0], {2}
    58c8:	00000ddd 	ldrdeq	r0, [r0], -sp
    58cc:	00253705 	eoreq	r3, r5, r5, lsl #14
    58d0:	0c000000 	stceq	0, cr0, [r0], {-0}
    58d4:	000010d7 	ldrdeq	r1, [r0], -r7
    58d8:	00253805 	eoreq	r3, r5, r5, lsl #16
    58dc:	0c040000 	stceq	0, cr0, [r4], {-0}
    58e0:	00000e0b 	andeq	r0, r0, fp, lsl #28
    58e4:	00253905 	eoreq	r3, r5, r5, lsl #18
    58e8:	0c080000 	stceq	0, cr0, [r8], {-0}
    58ec:	000012a8 	andeq	r1, r0, r8, lsr #5
    58f0:	00253a05 	eoreq	r3, r5, r5, lsl #20
    58f4:	0c0c0000 	stceq	0, cr0, [ip], {-0}
    58f8:	00000fd7 	ldrdeq	r0, [r0], -r7
    58fc:	00253b05 	eoreq	r3, r5, r5, lsl #22
    5900:	0c100000 	ldceq	0, cr0, [r0], {-0}
    5904:	00000fac 	andeq	r0, r0, ip, lsr #31
    5908:	00253c05 	eoreq	r3, r5, r5, lsl #24
    590c:	0c140000 	ldceq	0, cr0, [r4], {-0}
    5910:	000011bd 			; <UNDEFINED> instruction: 0x000011bd
    5914:	00253d05 	eoreq	r3, r5, r5, lsl #26
    5918:	0c180000 	ldceq	0, cr0, [r8], {-0}
    591c:	00001029 	andeq	r1, r0, r9, lsr #32
    5920:	00253e05 	eoreq	r3, r5, r5, lsl #28
    5924:	0c1c0000 	ldceq	0, cr0, [ip], {-0}
    5928:	0000126f 	andeq	r1, r0, pc, ror #4
    592c:	00253f05 	eoreq	r3, r5, r5, lsl #30
    5930:	00200000 	eoreq	r0, r0, r0
    5934:	000e1a11 	andeq	r1, lr, r1, lsl sl
    5938:	05010800 	streq	r0, [r1, #-2048]	; 0x800
    593c:	00024b48 	andeq	r4, r2, r8, asr #22
    5940:	0ec60c00 	cdpeq	12, 12, cr0, cr6, cr0, {0}
    5944:	49050000 	stmdbmi	r5, {}	; <UNPREDICTABLE>
    5948:	0000024b 	andeq	r0, r0, fp, asr #4
    594c:	0d580c00 	ldcleq	12, cr0, [r8, #-0]
    5950:	4a050000 	bmi	145958 <__bss_end__+0x139da8>
    5954:	0000024b 	andeq	r0, r0, fp, asr #4
    5958:	11631280 	cmnne	r3, r0, lsl #5
    595c:	4c050000 	stcmi	0, cr0, [r5], {-0}
    5960:	0000011e 	andeq	r0, r0, lr, lsl r1
    5964:	3f120100 	svccc	0x00120100
    5968:	0500000e 	streq	r0, [r0, #-14]
    596c:	00011e4f 	andeq	r1, r1, pc, asr #28
    5970:	00010400 	andeq	r0, r1, r0, lsl #8
    5974:	00010a09 	andeq	r0, r1, r9, lsl #20
    5978:	00025b00 	andeq	r5, r2, r0, lsl #22
    597c:	00cc0a00 	sbceq	r0, ip, r0, lsl #20
    5980:	001f0000 	andseq	r0, pc, r0
    5984:	000fe011 	andeq	lr, pc, r1, lsl r0	; <UNPREDICTABLE>
    5988:	05019000 	streq	r9, [r1, #-0]
    598c:	0002995b 	andeq	r9, r2, fp, asr r9
    5990:	10680c00 	rsbne	r0, r8, r0, lsl #24
    5994:	5c050000 	stcpl	0, cr0, [r5], {-0}
    5998:	00000299 	muleq	r0, r9, r2
    599c:	10800c00 	addne	r0, r0, r0, lsl #24
    59a0:	5d050000 	stcpl	0, cr0, [r5, #-0]
    59a4:	00000025 	andeq	r0, r0, r5, lsr #32
    59a8:	0eda0c04 	cdpeq	12, 13, cr0, cr10, cr4, {0}
    59ac:	5f050000 	svcpl	0x00050000
    59b0:	0000029f 	muleq	r0, pc, r2	; <UNPREDICTABLE>
    59b4:	0e1a0c08 	cdpeq	12, 1, cr0, cr10, cr8, {0}
    59b8:	60050000 	andvs	r0, r5, r0
    59bc:	0000020b 	andeq	r0, r0, fp, lsl #4
    59c0:	040e0088 	streq	r0, [lr], #-136	; 0x88
    59c4:	0000025b 	andeq	r0, r0, fp, asr r2
    59c8:	0002af09 	andeq	sl, r2, r9, lsl #30
    59cc:	0002af00 	andeq	sl, r2, r0, lsl #30
    59d0:	00cc0a00 	sbceq	r0, ip, r0, lsl #20
    59d4:	001f0000 	andseq	r0, pc, r0
    59d8:	02b5040e 	adcseq	r0, r5, #234881024	; 0xe000000
    59dc:	0f130000 	svceq	0x00130000
    59e0:	00001033 	andeq	r1, r0, r3, lsr r0
    59e4:	db730508 	blle	1cc6e0c <__bss_end__+0x1cbb25c>
    59e8:	0c000002 	stceq	0, cr0, [r0], {2}
    59ec:	00000e00 	andeq	r0, r0, r0, lsl #28
    59f0:	02db7405 	sbcseq	r7, fp, #83886080	; 0x5000000
    59f4:	0c000000 	stceq	0, cr0, [r0], {-0}
    59f8:	00000d64 	andeq	r0, r0, r4, ror #26
    59fc:	00257505 	eoreq	r7, r5, r5, lsl #10
    5a00:	00040000 	andeq	r0, r4, r0
    5a04:	0054040e 	subseq	r0, r4, lr, lsl #8
    5a08:	520f0000 	andpl	r0, pc, #0
    5a0c:	68000010 	stmdavs	r0, {r4}
    5a10:	040bb305 	streq	fp, [fp], #-773	; 0x305
    5a14:	5f100000 	svcpl	0x00100000
    5a18:	b4050070 	strlt	r0, [r5], #-112	; 0x70
    5a1c:	000002db 	ldrdeq	r0, [r0], -fp
    5a20:	725f1000 	subsvc	r1, pc, #0
    5a24:	25b50500 	ldrcs	r0, [r5, #1280]!	; 0x500
    5a28:	04000000 	streq	r0, [r0], #-0
    5a2c:	00775f10 	rsbseq	r5, r7, r0, lsl pc
    5a30:	0025b605 	eoreq	fp, r5, r5, lsl #12
    5a34:	0c080000 	stceq	0, cr0, [r8], {-0}
    5a38:	00000e38 	andeq	r0, r0, r8, lsr lr
    5a3c:	003fb705 	eorseq	fp, pc, r5, lsl #14
    5a40:	0c0c0000 	stceq	0, cr0, [ip], {-0}
    5a44:	00000f4b 	andeq	r0, r0, fp, asr #30
    5a48:	003fb805 	eorseq	fp, pc, r5, lsl #16
    5a4c:	100e0000 	andne	r0, lr, r0
    5a50:	0066625f 	rsbeq	r6, r6, pc, asr r2
    5a54:	02b6b905 	adcseq	fp, r6, #81920	; 0x14000
    5a58:	0c100000 	ldceq	0, cr0, [r0], {-0}
    5a5c:	00000da7 	andeq	r0, r0, r7, lsr #27
    5a60:	0025ba05 	eoreq	fp, r5, r5, lsl #20
    5a64:	0c180000 	ldceq	0, cr0, [r8], {-0}
    5a68:	00000e28 	andeq	r0, r0, r8, lsr #28
    5a6c:	010ac105 	tsteq	sl, r5, lsl #2
    5a70:	0c1c0000 	ldceq	0, cr0, [ip], {-0}
    5a74:	000012cf 	andeq	r1, r0, pc, asr #5
    5a78:	0566c305 	strbeq	ip, [r6, #-773]!	; 0x305
    5a7c:	0c200000 	stceq	0, cr0, [r0], #-0
    5a80:	000012e9 	andeq	r1, r0, r9, ror #5
    5a84:	0590c505 	ldreq	ip, [r0, #1285]	; 0x505
    5a88:	0c240000 	stceq	0, cr0, [r4], #-0
    5a8c:	000010c4 	andeq	r1, r0, r4, asr #1
    5a90:	05b4c805 	ldreq	ip, [r4, #2053]!	; 0x805
    5a94:	0c280000 	stceq	0, cr0, [r8], #-0
    5a98:	00001289 	andeq	r1, r0, r9, lsl #5
    5a9c:	05cec905 	strbeq	ip, [lr, #2309]	; 0x905
    5aa0:	102c0000 	eorne	r0, ip, r0
    5aa4:	0062755f 	rsbeq	r7, r2, pc, asr r5
    5aa8:	02b6cc05 	adcseq	ip, r6, #1280	; 0x500
    5aac:	10300000 	eorsne	r0, r0, r0
    5ab0:	0070755f 	rsbseq	r7, r0, pc, asr r5
    5ab4:	02dbcd05 	sbcseq	ip, fp, #320	; 0x140
    5ab8:	10380000 	eorsne	r0, r8, r0
    5abc:	0072755f 	rsbseq	r7, r2, pc, asr r5
    5ac0:	0025ce05 	eoreq	ip, r5, r5, lsl #28
    5ac4:	0c3c0000 	ldceq	0, cr0, [ip], #-0
    5ac8:	00000deb 	andeq	r0, r0, fp, ror #27
    5acc:	05d4d105 	ldrbeq	sp, [r4, #261]	; 0x105
    5ad0:	0c400000 	mareq	acc0, r0, r0
    5ad4:	00001234 	andeq	r1, r0, r4, lsr r2
    5ad8:	05e4d205 	strbeq	sp, [r4, #517]!	; 0x205
    5adc:	10430000 	subne	r0, r3, r0
    5ae0:	00626c5f 	rsbeq	r6, r2, pc, asr ip
    5ae4:	02b6d505 	adcseq	sp, r6, #20971520	; 0x1400000
    5ae8:	0c440000 	mareq	acc0, r0, r4
    5aec:	00000e4e 	andeq	r0, r0, lr, asr #28
    5af0:	0025d805 	eoreq	sp, r5, r5, lsl #16
    5af4:	0c4c0000 	mareq	acc0, r0, ip
    5af8:	00000fb6 			; <UNDEFINED> instruction: 0x00000fb6
    5afc:	007bd905 	rsbseq	sp, fp, r5, lsl #18
    5b00:	0c500000 	mraeq	r0, r0, acc0
    5b04:	0000121f 	andeq	r1, r0, pc, lsl r2
    5b08:	0429dc05 	strteq	sp, [r9], #-3077	; 0xc05
    5b0c:	0c540000 	mraeq	r0, r4, acc0
    5b10:	00000f9e 	muleq	r0, lr, pc	; <UNPREDICTABLE>
    5b14:	00ffe005 	rscseq	lr, pc, r5
    5b18:	0c580000 	mraeq	r0, r8, acc0
    5b1c:	0000105a 	andeq	r1, r0, sl, asr r0
    5b20:	00f4e205 	rscseq	lr, r4, r5, lsl #4
    5b24:	0c5c0000 	mraeq	r0, ip, acc0
    5b28:	00000fa4 	andeq	r0, r0, r4, lsr #31
    5b2c:	0025e305 	eoreq	lr, r5, r5, lsl #6
    5b30:	00640000 	rsbeq	r0, r4, r0
    5b34:	00002514 	andeq	r2, r0, r4, lsl r5
    5b38:	00042900 	andeq	r2, r4, r0, lsl #18
    5b3c:	04291500 	strteq	r1, [r9], #-1280	; 0x500
    5b40:	0a150000 	beq	545b48 <__bss_end__+0x539f98>
    5b44:	15000001 	strne	r0, [r0, #-1]
    5b48:	0000010c 	andeq	r0, r0, ip, lsl #2
    5b4c:	00002515 	andeq	r2, r0, r5, lsl r5
    5b50:	040e0000 	streq	r0, [lr], #-0
    5b54:	00000434 	andeq	r0, r0, r4, lsr r4
    5b58:	00042904 	andeq	r2, r4, r4, lsl #18
    5b5c:	10a71600 	adcne	r1, r7, r0, lsl #12
    5b60:	04280000 	strteq	r0, [r8], #-0
    5b64:	66023805 	strvs	r3, [r2], -r5, lsl #16
    5b68:	17000005 	strne	r0, [r0, -r5]
    5b6c:	00001022 	andeq	r1, r0, r2, lsr #32
    5b70:	25023a05 	strcs	r3, [r2, #-2565]	; 0xa05
    5b74:	00000000 	andeq	r0, r0, r0
    5b78:	000e4717 	andeq	r4, lr, r7, lsl r7
    5b7c:	023f0500 	eorseq	r0, pc, #0, 10
    5b80:	0000063b 	andeq	r0, r0, fp, lsr r6
    5b84:	0f3b1704 	svceq	0x003b1704
    5b88:	3f050000 	svccc	0x00050000
    5b8c:	00063b02 	andeq	r3, r6, r2, lsl #22
    5b90:	fc170800 	ldc2	8, cr0, [r7], {-0}
    5b94:	0500000e 	streq	r0, [r0, #-14]
    5b98:	063b023f 			; <UNDEFINED> instruction: 0x063b023f
    5b9c:	170c0000 	strne	r0, [ip, -r0]
    5ba0:	0000107b 	andeq	r1, r0, fp, ror r0
    5ba4:	25024105 	strcs	r4, [r2, #-261]	; 0x105
    5ba8:	10000000 	andne	r0, r0, r0
    5bac:	000d7217 	andeq	r7, sp, r7, lsl r2
    5bb0:	02420500 	subeq	r0, r2, #0, 10
    5bb4:	0000081d 	andeq	r0, r0, sp, lsl r8
    5bb8:	11991714 	orrsne	r1, r9, r4, lsl r7
    5bbc:	44050000 	strmi	r0, [r5], #-0
    5bc0:	00002502 	andeq	r2, r0, r2, lsl #10
    5bc4:	85173000 	ldrhi	r3, [r7, #-0]
    5bc8:	05000010 	streq	r0, [r0, #-16]
    5bcc:	058a0245 	streq	r0, [sl, #581]	; 0x245
    5bd0:	17340000 	ldrne	r0, [r4, -r0]!
    5bd4:	00000fe8 	andeq	r0, r0, r8, ror #31
    5bd8:	25024705 	strcs	r4, [r2, #-1797]	; 0x705
    5bdc:	38000000 	stmdacc	r0, {}	; <UNPREDICTABLE>
    5be0:	00109517 	andseq	r9, r0, r7, lsl r5
    5be4:	02490500 	subeq	r0, r9, #0, 10
    5be8:	00000838 	andeq	r0, r0, r8, lsr r8
    5bec:	0f7a173c 	svceq	0x007a173c
    5bf0:	4c050000 	stcmi	0, cr0, [r5], {-0}
    5bf4:	00017c02 	andeq	r7, r1, r2, lsl #24
    5bf8:	1b174000 	blne	5d5c00 <__bss_end__+0x5ca050>
    5bfc:	0500000f 	streq	r0, [r0, #-15]
    5c00:	0025024d 	eoreq	r0, r5, sp, asr #4
    5c04:	17440000 	strbne	r0, [r4, -r0]
    5c08:	000012a3 	andeq	r1, r0, r3, lsr #5
    5c0c:	7c024e05 	stcvc	14, cr4, [r2], {5}
    5c10:	48000001 	stmdami	r0, {r0}
    5c14:	000fff17 	andeq	pc, pc, r7, lsl pc	; <UNPREDICTABLE>
    5c18:	024f0500 	subeq	r0, pc, #0, 10
    5c1c:	0000083e 	andeq	r0, r0, lr, lsr r8
    5c20:	0f43174c 	svceq	0x0043174c
    5c24:	52050000 	andpl	r0, r5, #0
    5c28:	00002502 	andeq	r2, r0, r2, lsl #10
    5c2c:	6a175000 	bvs	5d9c34 <__bss_end__+0x5ce084>
    5c30:	0500000e 	streq	r0, [r0, #-14]
    5c34:	010c0253 	tsteq	ip, r3, asr r2
    5c38:	17540000 	ldrbne	r0, [r4, -r0]
    5c3c:	0000101b 	andeq	r1, r0, fp, lsl r0
    5c40:	fb027605 	blx	a345e <__bss_end__+0x978ae>
    5c44:	58000007 	stmdapl	r0, {r0, r1, r2}
    5c48:	000fe018 	andeq	lr, pc, r8, lsl r0	; <UNPREDICTABLE>
    5c4c:	027a0500 	rsbseq	r0, sl, #0, 10
    5c50:	00000299 	muleq	r0, r9, r2
    5c54:	58180148 	ldmdapl	r8, {r3, r6, r8}
    5c58:	0500000f 	streq	r0, [r0, #-15]
    5c5c:	025b027b 	subseq	r0, fp, #-1342177273	; 0xb0000007
    5c60:	014c0000 	mrseq	r0, (UNDEF: 76)
    5c64:	00120518 	andseq	r0, r2, r8, lsl r5
    5c68:	027f0500 	rsbseq	r0, pc, #0, 10
    5c6c:	0000084f 	andeq	r0, r0, pc, asr #16
    5c70:	301802dc 			; <UNDEFINED> instruction: 0x301802dc
    5c74:	0500000e 	streq	r0, [r0, #-14]
    5c78:	06000284 	streq	r0, [r0], -r4, lsl #5
    5c7c:	02e00000 	rsceq	r0, r0, #0
    5c80:	000e1518 	andeq	r1, lr, r8, lsl r5
    5c84:	02850500 	addeq	r0, r5, #0, 10
    5c88:	0000085b 	andeq	r0, r0, fp, asr r8
    5c8c:	0e0002ec 	cdpeq	2, 0, cr0, cr0, cr12, {7}
    5c90:	00040b04 	andeq	r0, r4, r4, lsl #22
    5c94:	00251400 	eoreq	r1, r5, r0, lsl #8
    5c98:	058a0000 	streq	r0, [sl]
    5c9c:	29150000 	ldmdbcs	r5, {}	; <UNPREDICTABLE>
    5ca0:	15000004 	strne	r0, [r0, #-4]
    5ca4:	0000010a 	andeq	r0, r0, sl, lsl #2
    5ca8:	00058a15 	andeq	r8, r5, r5, lsl sl
    5cac:	00251500 	eoreq	r1, r5, r0, lsl #10
    5cb0:	0e000000 	cdpeq	0, 0, cr0, cr0, cr0, {0}
    5cb4:	00011904 	andeq	r1, r1, r4, lsl #18
    5cb8:	6c040e00 	stcvs	14, cr0, [r4], {-0}
    5cbc:	14000005 	strne	r0, [r0], #-5
    5cc0:	00000086 	andeq	r0, r0, r6, lsl #1
    5cc4:	000005b4 			; <UNDEFINED> instruction: 0x000005b4
    5cc8:	00042915 	andeq	r2, r4, r5, lsl r9
    5ccc:	010a1500 	tsteq	sl, r0, lsl #10
    5cd0:	86150000 	ldrhi	r0, [r5], -r0
    5cd4:	15000000 	strne	r0, [r0, #-0]
    5cd8:	00000025 	andeq	r0, r0, r5, lsr #32
    5cdc:	96040e00 	strls	r0, [r4], -r0, lsl #28
    5ce0:	14000005 	strne	r0, [r0], #-5
    5ce4:	00000025 	andeq	r0, r0, r5, lsr #32
    5ce8:	000005ce 	andeq	r0, r0, lr, asr #11
    5cec:	00042915 	andeq	r2, r4, r5, lsl r9
    5cf0:	010a1500 	tsteq	sl, r0, lsl #10
    5cf4:	0e000000 	cdpeq	0, 0, cr0, cr0, cr0, {0}
    5cf8:	0005ba04 	andeq	fp, r5, r4, lsl #20
    5cfc:	00540900 	subseq	r0, r4, r0, lsl #18
    5d00:	05e40000 	strbeq	r0, [r4, #0]!
    5d04:	cc0a0000 	stcgt	0, cr0, [sl], {-0}
    5d08:	02000000 	andeq	r0, r0, #0
    5d0c:	00540900 	subseq	r0, r4, r0, lsl #18
    5d10:	05f40000 	ldrbeq	r0, [r4, #0]!
    5d14:	cc0a0000 	stcgt	0, cr0, [sl], {-0}
    5d18:	00000000 	andeq	r0, r0, r0
    5d1c:	10400600 	subne	r0, r0, r0, lsl #12
    5d20:	1d050000 	stcne	0, cr0, [r5, #-0]
    5d24:	0002e101 	andeq	lr, r2, r1, lsl #2
    5d28:	11c71900 	bicne	r1, r7, r0, lsl #18
    5d2c:	050c0000 	streq	r0, [ip, #-0]
    5d30:	06350121 	ldrteq	r0, [r5], -r1, lsr #2
    5d34:	68170000 	ldmdavs	r7, {}	; <UNPREDICTABLE>
    5d38:	05000010 	streq	r0, [r0, #-16]
    5d3c:	06350123 	ldrteq	r0, [r5], -r3, lsr #2
    5d40:	17000000 	strne	r0, [r0, -r0]
    5d44:	00000f51 	andeq	r0, r0, r1, asr pc
    5d48:	25012405 	strcs	r2, [r1, #-1029]	; 0x405
    5d4c:	04000000 	streq	r0, [r0], #-0
    5d50:	00103a17 	andseq	r3, r0, r7, lsl sl
    5d54:	01250500 	teqeq	r5, r0, lsl #10
    5d58:	0000063b 	andeq	r0, r0, fp, lsr r6
    5d5c:	040e0008 	streq	r0, [lr], #-8
    5d60:	00000600 	andeq	r0, r0, r0, lsl #12
    5d64:	05f4040e 	ldrbeq	r0, [r4, #1038]!	; 0x40e
    5d68:	6a190000 	bvs	645d70 <__bss_end__+0x63a1c0>
    5d6c:	0e00000d 	cdpeq	0, 0, cr0, cr0, cr13, {0}
    5d70:	76013d05 	strvc	r3, [r1], -r5, lsl #26
    5d74:	17000006 	strne	r0, [r0, -r6]
    5d78:	000010ae 	andeq	r1, r0, lr, lsr #1
    5d7c:	76013e05 	strvc	r3, [r1], -r5, lsl #28
    5d80:	00000006 	andeq	r0, r0, r6
    5d84:	0010e817 	andseq	lr, r0, r7, lsl r8
    5d88:	013f0500 	teqeq	pc, r0, lsl #10
    5d8c:	00000676 	andeq	r0, r0, r6, ror r6
    5d90:	116c1706 	cmnne	ip, r6, lsl #14
    5d94:	40050000 	andmi	r0, r5, r0
    5d98:	00005b01 	andeq	r5, r0, r1, lsl #22
    5d9c:	09000c00 	stmdbeq	r0, {sl, fp}
    5da0:	0000005b 	andeq	r0, r0, fp, asr r0
    5da4:	00000686 	andeq	r0, r0, r6, lsl #13
    5da8:	0000cc0a 	andeq	ip, r0, sl, lsl #24
    5dac:	1a000200 	bne	65b4 <__code_start__-0x1a4c>
    5db0:	025705d0 	subseq	r0, r7, #208, 10	; 0x34000000
    5db4:	00000787 	andeq	r0, r0, r7, lsl #15
    5db8:	0011ab17 	andseq	sl, r1, r7, lsl fp
    5dbc:	02590500 	subseq	r0, r9, #0, 10
    5dc0:	0000002c 	andeq	r0, r0, ip, lsr #32
    5dc4:	11561700 	cmpne	r6, r0, lsl #14
    5dc8:	5a050000 	bpl	145dd0 <__bss_end__+0x13a220>
    5dcc:	00010c02 	andeq	r0, r1, r2, lsl #24
    5dd0:	6d170400 	cfldrsvs	mvf0, [r7, #-0]
    5dd4:	0500000f 	streq	r0, [r0, #-15]
    5dd8:	0787025b 			; <UNDEFINED> instruction: 0x0787025b
    5ddc:	17080000 	strne	r0, [r8, -r0]
    5de0:	0000127a 	andeq	r1, r0, sl, ror r2
    5de4:	92025c05 	andls	r5, r2, #1280	; 0x500
    5de8:	24000001 	strcs	r0, [r0], #-1
    5dec:	000f0c17 	andeq	r0, pc, r7, lsl ip	; <UNPREDICTABLE>
    5df0:	025d0500 	subseq	r0, sp, #0, 10
    5df4:	00000025 	andeq	r0, r0, r5, lsr #32
    5df8:	10631748 	rsbne	r1, r3, r8, asr #14
    5dfc:	5e050000 	cdppl	0, 0, cr0, cr5, cr0, {0}
    5e00:	00006902 	andeq	r6, r0, r2, lsl #18
    5e04:	90175000 	andsls	r5, r7, r0
    5e08:	05000012 	streq	r0, [r0, #-18]
    5e0c:	0641025f 			; <UNDEFINED> instruction: 0x0641025f
    5e10:	17580000 	ldrbne	r0, [r8, -r0]
    5e14:	0000106e 	andeq	r1, r0, lr, rrx
    5e18:	f4026005 	vst4.8	{d6-d9}, [r2], r5
    5e1c:	68000000 	stmdavs	r0, {}	; <UNPREDICTABLE>
    5e20:	00129517 	andseq	r9, r2, r7, lsl r5
    5e24:	02610500 	rsbeq	r0, r1, #0, 10
    5e28:	000000f4 	strdeq	r0, [r0], -r4
    5e2c:	0dcf1770 	stcleq	7, cr1, [pc, #448]	; 5ff4 <__code_start__-0x200c>
    5e30:	62050000 	andvs	r0, r5, #0
    5e34:	0000f402 	andeq	pc, r0, r2, lsl #8
    5e38:	e7177800 	ldr	r7, [r7, -r0, lsl #16]
    5e3c:	05000011 	streq	r0, [r0, #-17]
    5e40:	07970263 	ldreq	r0, [r7, r3, ror #4]
    5e44:	17800000 	strne	r0, [r0, r0]
    5e48:	00000f61 	andeq	r0, r0, r1, ror #30
    5e4c:	a7026405 	strge	r6, [r2, -r5, lsl #8]
    5e50:	88000007 	stmdahi	r0, {r0, r1, r2}
    5e54:	00117917 	andseq	r7, r1, r7, lsl r9
    5e58:	02650500 	rsbeq	r0, r5, #0, 10
    5e5c:	00000025 	andeq	r0, r0, r5, lsr #32
    5e60:	0eb817a0 	cdpeq	7, 11, cr1, cr8, cr0, {5}
    5e64:	66050000 	strvs	r0, [r5], -r0
    5e68:	0000f402 	andeq	pc, r0, r2, lsl #8
    5e6c:	c017a400 	andsgt	sl, r7, r0, lsl #8
    5e70:	0500000d 	streq	r0, [r0, #-13]
    5e74:	00f40267 	rscseq	r0, r4, r7, ror #4
    5e78:	17ac0000 	strne	r0, [ip, r0]!
    5e7c:	00000ea7 	andeq	r0, r0, r7, lsr #29
    5e80:	f4026805 	vst2.8	{d6-d7}, [r2], r5
    5e84:	b4000000 	strlt	r0, [r0], #-0
    5e88:	000d8717 	andeq	r8, sp, r7, lsl r7
    5e8c:	02690500 	rsbeq	r0, r9, #0, 10
    5e90:	000000f4 	strdeq	r0, [r0], -r4
    5e94:	0d9617bc 	ldceq	7, cr1, [r6, #752]	; 0x2f0
    5e98:	6a050000 	bvs	145ea0 <__bss_end__+0x13a2f0>
    5e9c:	0000f402 	andeq	pc, r0, r2, lsl #8
    5ea0:	2017c400 	andscs	ip, r7, r0, lsl #8
    5ea4:	05000010 	streq	r0, [r0, #-16]
    5ea8:	0025026b 	eoreq	r0, r5, fp, ror #4
    5eac:	00cc0000 	sbceq	r0, ip, r0
    5eb0:	00011209 	andeq	r1, r1, r9, lsl #4
    5eb4:	00079700 	andeq	r9, r7, r0, lsl #14
    5eb8:	00cc0a00 	sbceq	r0, ip, r0, lsl #20
    5ebc:	00190000 	andseq	r0, r9, r0
    5ec0:	00011209 	andeq	r1, r1, r9, lsl #4
    5ec4:	0007a700 	andeq	sl, r7, r0, lsl #14
    5ec8:	00cc0a00 	sbceq	r0, ip, r0, lsl #20
    5ecc:	00070000 	andeq	r0, r7, r0
    5ed0:	00011209 	andeq	r1, r1, r9, lsl #4
    5ed4:	0007b700 	andeq	fp, r7, r0, lsl #14
    5ed8:	00cc0a00 	sbceq	r0, ip, r0, lsl #20
    5edc:	00170000 	andseq	r0, r7, r0
    5ee0:	7005f01a 	andvc	pc, r5, sl, lsl r0	; <UNPREDICTABLE>
    5ee4:	0007db02 	andeq	sp, r7, r2, lsl #22
    5ee8:	0fd01700 	svceq	0x00d01700
    5eec:	73050000 	movwvc	r0, #20480	; 0x5000
    5ef0:	0007db02 	andeq	sp, r7, r2, lsl #22
    5ef4:	de170000 	cdple	0, 1, cr0, cr7, cr0, {0}
    5ef8:	05000011 	streq	r0, [r0, #-17]
    5efc:	07eb0274 			; <UNDEFINED> instruction: 0x07eb0274
    5f00:	00780000 	rsbseq	r0, r8, r0
    5f04:	0002db09 	andeq	sp, r2, r9, lsl #22
    5f08:	0007eb00 	andeq	lr, r7, r0, lsl #22
    5f0c:	00cc0a00 	sbceq	r0, ip, r0, lsl #20
    5f10:	001d0000 	andseq	r0, sp, r0
    5f14:	00002c09 	andeq	r2, r0, r9, lsl #24
    5f18:	0007fb00 	andeq	pc, r7, r0, lsl #22
    5f1c:	00cc0a00 	sbceq	r0, ip, r0, lsl #20
    5f20:	001d0000 	andseq	r0, sp, r0
    5f24:	5505f01b 	strpl	pc, [r5, #-27]
    5f28:	00081d02 	andeq	r1, r8, r2, lsl #26
    5f2c:	10a71c00 	adcne	r1, r7, r0, lsl #24
    5f30:	6c050000 	stcvs	0, cr0, [r5], {-0}
    5f34:	00068602 	andeq	r8, r6, r2, lsl #12
    5f38:	123a1c00 	eorsne	r1, sl, #0, 24
    5f3c:	75050000 	strvc	r0, [r5, #-0]
    5f40:	0007b702 	andeq	fp, r7, r2, lsl #14
    5f44:	12090000 	andne	r0, r9, #0
    5f48:	2d000001 	stccs	0, cr0, [r0, #-4]
    5f4c:	0a000008 	beq	5f74 <__code_start__-0x208c>
    5f50:	000000cc 	andeq	r0, r0, ip, asr #1
    5f54:	381d0018 	ldmdacc	sp, {r3, r4}
    5f58:	15000008 	strne	r0, [r0, #-8]
    5f5c:	00000429 	andeq	r0, r0, r9, lsr #8
    5f60:	2d040e00 	stccs	14, cr0, [r4, #-0]
    5f64:	0e000008 	cdpeq	0, 0, cr0, cr0, cr8, {0}
    5f68:	00017c04 	andeq	r7, r1, r4, lsl #24
    5f6c:	084f1d00 	stmdaeq	pc, {r8, sl, fp, ip}^	; <UNPREDICTABLE>
    5f70:	25150000 	ldrcs	r0, [r5, #-0]
    5f74:	00000000 	andeq	r0, r0, r0
    5f78:	0855040e 	ldmdaeq	r5, {r1, r2, r3, sl}^
    5f7c:	040e0000 	streq	r0, [lr], #-0
    5f80:	00000844 	andeq	r0, r0, r4, asr #16
    5f84:	0005f409 	andeq	pc, r5, r9, lsl #8
    5f88:	00086b00 	andeq	r6, r8, r0, lsl #22
    5f8c:	00cc0a00 	sbceq	r0, ip, r0, lsl #20
    5f90:	00020000 	andeq	r0, r2, r0
    5f94:	00118d1e 	andseq	r8, r1, lr, lsl sp
    5f98:	02fd0500 	rscseq	r0, sp, #0, 10
    5f9c:	00000429 	andeq	r0, r0, r9, lsr #8
    5fa0:	0011861e 	andseq	r8, r1, lr, lsl r6
    5fa4:	02fe0500 	rscseq	r0, lr, #0, 10
    5fa8:	0000042f 	andeq	r0, r0, pc, lsr #8
    5fac:	00002514 	andeq	r2, r0, r4, lsl r5
    5fb0:	00089200 	andeq	r9, r8, r0, lsl #4
    5fb4:	00251500 	eoreq	r1, r5, r0, lsl #10
    5fb8:	1f000000 	svcne	0x00000000
    5fbc:	000009d2 	ldrdeq	r0, [r0], -r2
    5fc0:	089d1d06 	ldmeq	sp, {r1, r2, r8, sl, fp, ip}
    5fc4:	040e0000 	streq	r0, [lr], #-0
    5fc8:	00000883 	andeq	r0, r0, r3, lsl #17
    5fcc:	00002514 	andeq	r2, r0, r4, lsl r5
    5fd0:	0008b200 	andeq	fp, r8, r0, lsl #4
    5fd4:	058a1500 	streq	r1, [sl, #1280]	; 0x500
    5fd8:	1f000000 	svcne	0x00000000
    5fdc:	00000a0f 	andeq	r0, r0, pc, lsl #20
    5fe0:	08bd2206 	popeq	{r1, r2, r9, sp}
    5fe4:	040e0000 	streq	r0, [lr], #-0
    5fe8:	000008a3 	andeq	r0, r0, r3, lsr #17
    5fec:	00540120 	subseq	r0, r4, r0, lsr #2
    5ff0:	0c070000 	stceq	0, cr0, [r7], {-0}
    5ff4:	00000900 	andeq	r0, r0, r0, lsl #18
    5ff8:	000db021 	andeq	fp, sp, r1, lsr #32
    5ffc:	cd210000 	stcgt	0, cr0, [r1, #-0]
    6000:	01000011 	tsteq	r0, r1, lsl r0
    6004:	00122521 	andseq	r2, r2, r1, lsr #10
    6008:	f1210400 			; <UNDEFINED> instruction: 0xf1210400
    600c:	0500000d 	streq	r0, [r0, #-13]
    6010:	000f8821 	andeq	r8, pc, r1, lsr #16
    6014:	42210600 	eormi	r0, r1, #0, 12
    6018:	07000012 	smladeq	r0, r2, r0, r0
    601c:	00125121 	andseq	r5, r2, r1, lsr #2
    6020:	60210300 	eorvs	r0, r1, r0, lsl #6
    6024:	02000012 	andeq	r0, r0, #18
    6028:	131f0500 	tstne	pc, #0, 10
    602c:	15070000 	strne	r0, [r7, #-0]
    6030:	000008c3 	andeq	r0, r0, r3, asr #17
    6034:	0012f022 	andseq	pc, r2, r2, lsr #32
    6038:	331d0100 	tstcc	sp, #0, 2
    603c:	1c000000 	stcne	0, cr0, [r0], {-0}
    6040:	22202000 	eorcs	r2, r0, #0
    6044:	0000132b 	andeq	r1, r0, fp, lsr #6
    6048:	00331e01 	eorseq	r1, r3, r1, lsl #28
    604c:	00280000 	eoreq	r0, r8, r0
    6050:	fa222020 	blx	88e0d8 <__bss_end__+0x882528>
    6054:	01000012 	tsteq	r0, r2, lsl r0
    6058:	0000331f 	andeq	r3, r0, pc, lsl r3
    605c:	20003400 	andcs	r3, r0, r0, lsl #8
    6060:	12cb2320 	sbcne	r2, fp, #32, 6	; 0x80000000
    6064:	56010000 	strpl	r0, [r1], -r0
    6068:	00000025 	andeq	r0, r0, r5, lsr #32
    606c:	0000a4cc 	andeq	sl, r0, ip, asr #9
    6070:	00000034 	andeq	r0, r0, r4, lsr r0
    6074:	09989c01 	ldmibeq	r8, {r0, sl, fp, ip, pc}
    6078:	70240000 	eorvc	r0, r4, r0
    607c:	01006e69 	tsteq	r0, r9, ror #28
    6080:	00002c56 	andeq	r2, r0, r6, asr ip
    6084:	00183a00 	andseq	r3, r8, r0, lsl #20
    6088:	12bf2500 	adcsne	r2, pc, #0, 10
    608c:	59010000 	stmdbpl	r1, {}	; <UNPREDICTABLE>
    6090:	0000002c 	andeq	r0, r0, ip, lsr #32
    6094:	00001874 	andeq	r1, r0, r4, ror r8
    6098:	66666f26 	strbtvs	r6, [r6], -r6, lsr #30
    609c:	2c5a0100 	ldfcse	f0, [sl], {-0}
    60a0:	b2000000 	andlt	r0, r0, #0
    60a4:	27000018 	smladcs	r0, r8, r0, r0
    60a8:	0000a4e8 	andeq	sl, r0, r8, ror #9
    60ac:	00000b5d 	andeq	r0, r0, sp, asr fp
    60b0:	0b500128 	bleq	1406558 <__bss_end__+0x13fa9a8>
    60b4:	355001f3 	ldrbcc	r0, [r0, #-499]	; 0x1f3
    60b8:	80b42325 	adcshi	r2, r4, r5, lsr #6
    60bc:	00028180 	andeq	r8, r2, r0, lsl #3
    60c0:	12e52900 	rscne	r2, r5, #0, 18
    60c4:	4f010000 	svcmi	0x00010000
    60c8:	0000a4b0 			; <UNDEFINED> instruction: 0x0000a4b0
    60cc:	0000001c 	andeq	r0, r0, ip, lsl r0
    60d0:	09e89c01 	stmibeq	r8!, {r0, sl, fp, ip, pc}^
    60d4:	70240000 	eorvc	r0, r4, r0
    60d8:	01006e69 	tsteq	r0, r9, ror #28
    60dc:	00002c4f 	andeq	r2, r0, pc, asr #24
    60e0:	0018c500 	andseq	ip, r8, r0, lsl #10
    60e4:	00762400 	rsbseq	r2, r6, r0, lsl #8
    60e8:	002c4f01 	eoreq	r4, ip, r1, lsl #30
    60ec:	18ff0000 	ldmne	pc!, {}^	; <UNPREDICTABLE>
    60f0:	c02a0000 	eorgt	r0, sl, r0
    60f4:	230000a4 	movwcs	r0, #164	; 0xa4
    60f8:	de00000a 	cdple	0, 0, cr0, cr0, cr10, {0}
    60fc:	28000009 	stmdacs	r0, {r0, r3}
    6100:	f3035001 	vhadd.u8	d5, d3, d1
    6104:	2b005001 	blcs	1a110 <__bss_end__+0xe560>
    6108:	0000a4c8 	andeq	sl, r0, r8, asr #9
    610c:	00000a64 	andeq	r0, r0, r4, ror #20
    6110:	13042900 	movwne	r2, #18688	; 0x4900
    6114:	4a010000 	bmi	4611c <__bss_end__+0x3a56c>
    6118:	0000a4a0 	andeq	sl, r0, r0, lsr #9
    611c:	00000010 	andeq	r0, r0, r0, lsl r0
    6120:	0a239c01 	beq	8ed12c <__bss_end__+0x8e157c>
    6124:	70240000 	eorvc	r0, r4, r0
    6128:	01006e69 	tsteq	r0, r9, ror #28
    612c:	00002c4a 	andeq	r2, r0, sl, asr #24
    6130:	00193900 	andseq	r3, r9, r0, lsl #18
    6134:	a4ac2700 	strtge	r2, [ip], #1792	; 0x700
    6138:	0ae00000 	beq	ff806140 <__bss_end__+0xff7fa590>
    613c:	01280000 	teqeq	r8, r0
    6140:	01f30350 	mvnseq	r0, r0, asr r3
    6144:	51012850 	tstpl	r1, r0, asr r8
    6148:	00003001 	andeq	r3, r0, r1
    614c:	0012b229 	andseq	fp, r2, r9, lsr #4
    6150:	7c430100 	stfvce	f0, [r3], {-0}
    6154:	240000a4 	strcs	r0, [r0], #-164	; 0xa4
    6158:	01000000 	mrseq	r0, (UNDEF: 0)
    615c:	000a649c 	muleq	sl, ip, r4
    6160:	69702400 	ldmdbvs	r0!, {sl, sp}^
    6164:	4301006e 	movwmi	r0, #4206	; 0x106e
    6168:	0000002c 	andeq	r0, r0, ip, lsr #32
    616c:	0000195a 	andeq	r1, r0, sl, asr r9
    6170:	00a49827 	adceq	r9, r4, r7, lsr #16
    6174:	000b6800 	andeq	r6, fp, r0, lsl #16
    6178:	50012800 	andpl	r2, r1, r0, lsl #16
    617c:	00280c05 	eoreq	r0, r8, r5, lsl #24
    6180:	01282020 	teqeq	r8, r0, lsr #32
    6184:	f3310551 	vqrshl.u64	q0, <illegal reg q0.5>, <illegal reg q0.5>
    6188:	00245001 	eoreq	r5, r4, r1
    618c:	13132900 	tstne	r3, #0, 18
    6190:	3c010000 	stccc	0, cr0, [r1], {-0}
    6194:	0000a458 	andeq	sl, r0, r8, asr r4
    6198:	00000024 	andeq	r0, r0, r4, lsr #32
    619c:	0aa59c01 	beq	fe96d1a8 <__bss_end__+0xfe9615f8>
    61a0:	70240000 	eorvc	r0, r4, r0
    61a4:	01006e69 	tsteq	r0, r9, ror #28
    61a8:	00002c3c 	andeq	r2, r0, ip, lsr ip
    61ac:	00197b00 	andseq	r7, r9, r0, lsl #22
    61b0:	a4742700 	ldrbtge	r2, [r4], #-1792	; 0x700
    61b4:	0b680000 	bleq	1a061bc <__bss_end__+0x19fa60c>
    61b8:	01280000 	teqeq	r8, r0
    61bc:	1c0c0550 	cfstr32ne	mvfx0, [ip], {80}	; 0x50
    61c0:	28202000 	stmdacs	r0!, {sp}
    61c4:	31055101 	tstcc	r5, r1, lsl #2
    61c8:	245001f3 	ldrbcs	r0, [r0], #-499	; 0x1f3
    61cc:	d5290000 	strle	r0, [r9, #-0]!
    61d0:	01000012 	tsteq	r0, r2, lsl r0
    61d4:	00a44837 	adceq	r4, r4, r7, lsr r8
    61d8:	00001000 	andeq	r1, r0, r0
    61dc:	e09c0100 	adds	r0, ip, r0, lsl #2
    61e0:	2400000a 	strcs	r0, [r0], #-10
    61e4:	006e6970 	rsbeq	r6, lr, r0, ror r9
    61e8:	002c3701 	eoreq	r3, ip, r1, lsl #14
    61ec:	199c0000 	ldmibne	ip, {}	; <UNPREDICTABLE>
    61f0:	54270000 	strtpl	r0, [r7], #-0
    61f4:	e00000a4 	and	r0, r0, r4, lsr #1
    61f8:	2800000a 	stmdacs	r0, {r1, r3}
    61fc:	f3035001 	vhadd.u8	d5, d3, d1
    6200:	01285001 	teqeq	r8, r1
    6204:	00310151 	eorseq	r0, r1, r1, asr r1
    6208:	0fbe2900 	svceq	0x00be2900
    620c:	28010000 	stmdacs	r1, {}	; <UNPREDICTABLE>
    6210:	0000a3e0 	andeq	sl, r0, r0, ror #7
    6214:	00000068 	andeq	r0, r0, r8, rrx
    6218:	0b5d9c01 	bleq	176d224 <__bss_end__+0x1761674>
    621c:	70240000 	eorvc	r0, r4, r0
    6220:	01006e69 	tsteq	r0, r9, ror #28
    6224:	00002c28 	andeq	r2, r0, r8, lsr #24
    6228:	0019bd00 	andseq	fp, r9, r0, lsl #26
    622c:	120a2c00 	andne	r2, sl, #0, 24
    6230:	28010000 	stmdacs	r1, {}	; <UNPREDICTABLE>
    6234:	00000900 	andeq	r0, r0, r0, lsl #18
    6238:	000019de 	ldrdeq	r1, [r0], -lr
    623c:	66666f2d 	strbtvs	r6, [r6], -sp, lsr #30
    6240:	2c2d0100 	stfcss	f0, [sp], #-0
    6244:	01000000 	mrseq	r0, (UNDEF: 0)
    6248:	00672d54 	rsbeq	r2, r7, r4, asr sp
    624c:	002c2f01 	eoreq	r2, ip, r1, lsl #30
    6250:	56010000 	strpl	r0, [r1], -r0
    6254:	01007626 	tsteq	r0, r6, lsr #12
    6258:	00002c31 	andeq	r2, r0, r1, lsr ip
    625c:	0019ff00 	andseq	pc, r9, r0, lsl #30
    6260:	a42c2a00 	strtge	r2, [ip], #-2560	; 0xa00
    6264:	0b5d0000 	bleq	174626c <__bss_end__+0x173a6bc>
    6268:	0b4c0000 	bleq	1306270 <__bss_end__+0x12fa6c0>
    626c:	01280000 	teqeq	r8, r0
    6270:	00760250 	rsbseq	r0, r6, r0, asr r2
    6274:	a4402700 	strbge	r2, [r0], #-1792	; 0x700
    6278:	0b680000 	bleq	1a06280 <__bss_end__+0x19fa6d0>
    627c:	01280000 	teqeq	r8, r0
    6280:	00760250 	rsbseq	r0, r6, r0, asr r2
    6284:	2a2e0000 	bcs	b8628c <__bss_end__+0xb7a6dc>
    6288:	2a000007 	bcs	62ac <__code_start__-0x1d54>
    628c:	06000007 	streq	r0, [r0], -r7
    6290:	089e2ea7 	ldmeq	lr, {r0, r1, r2, r5, r7, r9, sl, fp, sp}
    6294:	089e0000 	ldmeq	lr, {}	; <UNPREDICTABLE>
    6298:	9b060000 	blls	1862a0 <__bss_end__+0x17a6f0>
    629c:	000c2400 	andeq	r2, ip, r0, lsl #8
    62a0:	b1000400 	tstlt	r0, r0, lsl #8
    62a4:	0400001d 	streq	r0, [r0], #-29
    62a8:	0010f401 	andseq	pc, r0, r1, lsl #8
    62ac:	13350c00 	teqne	r5, #0, 24
    62b0:	0e720000 	cdpeq	0, 7, cr0, cr2, cr0, {0}
    62b4:	a5000000 	strge	r0, [r0, #-0]
    62b8:	01940000 	orrseq	r0, r4, r0
    62bc:	18fc0000 	ldmne	ip!, {}^	; <UNPREDICTABLE>
    62c0:	04020000 	streq	r0, [r2], #-0
    62c4:	746e6905 	strbtvc	r6, [lr], #-2309	; 0x905
    62c8:	07040300 	streq	r0, [r4, -r0, lsl #6]
    62cc:	00000148 	andeq	r0, r0, r8, asr #2
    62d0:	5b060103 	blpl	1866e4 <__bss_end__+0x17ab34>
    62d4:	03000000 	movweq	r0, #0
    62d8:	01950502 	orrseq	r0, r5, r2, lsl #10
    62dc:	04030000 	streq	r0, [r3], #-0
    62e0:	00017605 	andeq	r7, r1, r5, lsl #12
    62e4:	05080300 	streq	r0, [r8, #-768]	; 0x300
    62e8:	00000171 	andeq	r0, r0, r1, ror r1
    62ec:	59080103 	stmdbpl	r8, {r0, r1, r8}
    62f0:	03000000 	movweq	r0, #0
    62f4:	00200702 	eoreq	r0, r0, r2, lsl #14
    62f8:	04030000 	streq	r0, [r3], #-0
    62fc:	00014307 	andeq	r4, r1, r7, lsl #6
    6300:	07080300 	streq	r0, [r8, -r0, lsl #6]
    6304:	0000013e 	andeq	r0, r0, lr, lsr r1
    6308:	00100904 	andseq	r0, r0, r4, lsl #18
    630c:	25070200 	strcs	r0, [r7, #-512]	; 0x200
    6310:	04000000 	streq	r0, [r0], #-0
    6314:	00000ff3 	strdeq	r0, [r0], -r3
    6318:	00412c03 	subeq	r2, r1, r3, lsl #24
    631c:	cf040000 	svcgt	0x00040000
    6320:	03000010 	movweq	r0, #16
    6324:	00004172 	andeq	r4, r0, r2, ror r1
    6328:	0f970500 	svceq	0x00970500
    632c:	65040000 	strvs	r0, [r4, #-0]
    6330:	00002c01 	andeq	r2, r0, r1, lsl #24
    6334:	03040600 	movweq	r0, #17920	; 0x4600
    6338:	0000b7a6 	andeq	fp, r0, r6, lsr #15
    633c:	0f820700 	svceq	0x00820700
    6340:	a8030000 	stmdage	r3, {}	; <UNPREDICTABLE>
    6344:	0000008c 	andeq	r0, r0, ip, lsl #1
    6348:	000f2a07 	andeq	r2, pc, r7, lsl #20
    634c:	b7a90300 	strlt	r0, [r9, r0, lsl #6]!
    6350:	00000000 	andeq	r0, r0, r0
    6354:	00004f08 	andeq	r4, r0, r8, lsl #30
    6358:	0000c700 	andeq	ip, r0, r0, lsl #14
    635c:	00c70900 	sbceq	r0, r7, r0, lsl #18
    6360:	00030000 	andeq	r0, r3, r0
    6364:	55070403 	strpl	r0, [r7, #-1027]	; 0x403
    6368:	0a000001 	beq	6374 <__code_start__-0x1c8c>
    636c:	efa30308 	svc	0x00a30308
    6370:	0b000000 	bleq	6378 <__code_start__-0x1c88>
    6374:	000010b4 	strheq	r1, [r0], -r4
    6378:	0025a503 	eoreq	sl, r5, r3, lsl #10
    637c:	0b000000 	bleq	6384 <__code_start__-0x1c7c>
    6380:	000010bc 	strheq	r1, [r0], -ip
    6384:	0098aa03 	addseq	sl, r8, r3, lsl #20
    6388:	00040000 	andeq	r0, r4, r0
    638c:	00104704 	andseq	r4, r0, r4, lsl #14
    6390:	ceab0300 	cdpgt	3, 10, cr0, cr11, cr0, {0}
    6394:	04000000 	streq	r0, [r0], #-0
    6398:	00000ef3 	strdeq	r0, [r0], -r3
    639c:	006baf03 	rsbeq	sl, fp, r3, lsl #30
    63a0:	040c0000 	streq	r0, [ip], #-0
    63a4:	010d040d 	tsteq	sp, sp, lsl #8
    63a8:	01030000 	mrseq	r0, (UNDEF: 3)
    63ac:	00006208 	andeq	r6, r0, r8, lsl #4
    63b0:	010d0e00 	tsteq	sp, r0, lsl #28
    63b4:	71040000 	mrsvc	r0, (UNDEF: 4)
    63b8:	05000011 	streq	r0, [r0, #-17]
    63bc:	00005d16 	andeq	r5, r0, r6, lsl sp
    63c0:	0f040f00 	svceq	0x00040f00
    63c4:	05180000 	ldreq	r0, [r8, #-0]
    63c8:	0001772d 	andeq	r7, r1, sp, lsr #14
    63cc:	10680b00 	rsbne	r0, r8, r0, lsl #22
    63d0:	2f050000 	svccs	0x00050000
    63d4:	00000177 	andeq	r0, r0, r7, ror r1
    63d8:	6b5f1000 	blvs	17ca3e0 <__bss_end__+0x17be830>
    63dc:	25300500 	ldrcs	r0, [r0, #-1280]!	; 0x500
    63e0:	04000000 	streq	r0, [r0], #-0
    63e4:	00109f0b 	andseq	r9, r0, fp, lsl #30
    63e8:	25300500 	ldrcs	r0, [r0, #-1280]!	; 0x500
    63ec:	08000000 	stmdaeq	r0, {}	; <UNPREDICTABLE>
    63f0:	000edf0b 	andeq	sp, lr, fp, lsl #30
    63f4:	25300500 	ldrcs	r0, [r0, #-1280]!	; 0x500
    63f8:	0c000000 	stceq	0, cr0, [r0], {-0}
    63fc:	0011b80b 	andseq	fp, r1, fp, lsl #16
    6400:	25300500 	ldrcs	r0, [r0, #-1280]!	; 0x500
    6404:	10000000 	andne	r0, r0, r0
    6408:	00785f10 	rsbseq	r5, r8, r0, lsl pc
    640c:	017d3105 	cmneq	sp, r5, lsl #2
    6410:	00140000 	andseq	r0, r4, r0
    6414:	0124040d 	teqeq	r4, sp, lsl #8
    6418:	19080000 	stmdbne	r8, {}	; <UNPREDICTABLE>
    641c:	8d000001 	stchi	0, cr0, [r0, #-4]
    6420:	09000001 	stmdbeq	r0, {r0}
    6424:	000000c7 	andeq	r0, r0, r7, asr #1
    6428:	250f0000 	strcs	r0, [pc, #-0]	; 6430 <__code_start__-0x1bd0>
    642c:	2400000f 	strcs	r0, [r0], #-15
    6430:	02063505 	andeq	r3, r6, #20971520	; 0x1400000
    6434:	dd0b0000 	stcle	0, cr0, [fp, #-0]
    6438:	0500000d 	streq	r0, [r0, #-13]
    643c:	00002537 	andeq	r2, r0, r7, lsr r5
    6440:	d70b0000 	strle	r0, [fp, -r0]
    6444:	05000010 	streq	r0, [r0, #-16]
    6448:	00002538 	andeq	r2, r0, r8, lsr r5
    644c:	0b0b0400 	bleq	2c7454 <__bss_end__+0x2bb8a4>
    6450:	0500000e 	streq	r0, [r0, #-14]
    6454:	00002539 	andeq	r2, r0, r9, lsr r5
    6458:	a80b0800 	stmdage	fp, {fp}
    645c:	05000012 	streq	r0, [r0, #-18]
    6460:	0000253a 	andeq	r2, r0, sl, lsr r5
    6464:	d70b0c00 	strle	r0, [fp, -r0, lsl #24]
    6468:	0500000f 	streq	r0, [r0, #-15]
    646c:	0000253b 	andeq	r2, r0, fp, lsr r5
    6470:	ac0b1000 	stcge	0, cr1, [fp], {-0}
    6474:	0500000f 	streq	r0, [r0, #-15]
    6478:	0000253c 	andeq	r2, r0, ip, lsr r5
    647c:	bd0b1400 	cfstrslt	mvf1, [fp, #-0]
    6480:	05000011 	streq	r0, [r0, #-17]
    6484:	0000253d 	andeq	r2, r0, sp, lsr r5
    6488:	290b1800 	stmdbcs	fp, {fp, ip}
    648c:	05000010 	streq	r0, [r0, #-16]
    6490:	0000253e 	andeq	r2, r0, lr, lsr r5
    6494:	6f0b1c00 	svcvs	0x000b1c00
    6498:	05000012 	streq	r0, [r0, #-18]
    649c:	0000253f 	andeq	r2, r0, pc, lsr r5
    64a0:	11002000 	mrsne	r2, (UNDEF: 0)
    64a4:	00000e1a 	andeq	r0, r0, sl, lsl lr
    64a8:	48050108 	stmdami	r5, {r3, r8}
    64ac:	00000246 	andeq	r0, r0, r6, asr #4
    64b0:	000ec60b 	andeq	ip, lr, fp, lsl #12
    64b4:	46490500 	strbmi	r0, [r9], -r0, lsl #10
    64b8:	00000002 	andeq	r0, r0, r2
    64bc:	000d580b 	andeq	r5, sp, fp, lsl #16
    64c0:	464a0500 	strbmi	r0, [sl], -r0, lsl #10
    64c4:	80000002 	andhi	r0, r0, r2
    64c8:	00116312 	andseq	r6, r1, r2, lsl r3
    64cc:	194c0500 	stmdbne	ip, {r8, sl}^
    64d0:	00000001 	andeq	r0, r0, r1
    64d4:	0e3f1201 	cdpeq	2, 3, cr1, cr15, cr1, {0}
    64d8:	4f050000 	svcmi	0x00050000
    64dc:	00000119 	andeq	r0, r0, r9, lsl r1
    64e0:	08000104 	stmdaeq	r0, {r2, r8}
    64e4:	00000105 	andeq	r0, r0, r5, lsl #2
    64e8:	00000256 	andeq	r0, r0, r6, asr r2
    64ec:	0000c709 	andeq	ip, r0, r9, lsl #14
    64f0:	11001f00 	tstne	r0, r0, lsl #30
    64f4:	00000fe0 	andeq	r0, r0, r0, ror #31
    64f8:	5b050190 	blpl	146b40 <__bss_end__+0x13af90>
    64fc:	00000294 	muleq	r0, r4, r2
    6500:	0010680b 	andseq	r6, r0, fp, lsl #16
    6504:	945c0500 	ldrbls	r0, [ip], #-1280	; 0x500
    6508:	00000002 	andeq	r0, r0, r2
    650c:	0010800b 	andseq	r8, r0, fp
    6510:	255d0500 	ldrbcs	r0, [sp, #-1280]	; 0x500
    6514:	04000000 	streq	r0, [r0], #-0
    6518:	000eda0b 	andeq	sp, lr, fp, lsl #20
    651c:	9a5f0500 	bls	17c7924 <__bss_end__+0x17bbd74>
    6520:	08000002 	stmdaeq	r0, {r1}
    6524:	000e1a0b 	andeq	r1, lr, fp, lsl #20
    6528:	06600500 	strbteq	r0, [r0], -r0, lsl #10
    652c:	88000002 	stmdahi	r0, {r1}
    6530:	56040d00 	strpl	r0, [r4], -r0, lsl #26
    6534:	08000002 	stmdaeq	r0, {r1}
    6538:	000002aa 	andeq	r0, r0, sl, lsr #5
    653c:	000002aa 	andeq	r0, r0, sl, lsr #5
    6540:	0000c709 	andeq	ip, r0, r9, lsl #14
    6544:	0d001f00 	stceq	15, cr1, [r0, #-0]
    6548:	0002b004 	andeq	fp, r2, r4
    654c:	330f1300 	movwcc	r1, #62208	; 0xf300
    6550:	08000010 	stmdaeq	r0, {r4}
    6554:	02d67305 	sbcseq	r7, r6, #335544320	; 0x14000000
    6558:	000b0000 	andeq	r0, fp, r0
    655c:	0500000e 	streq	r0, [r0, #-14]
    6560:	0002d674 	andeq	sp, r2, r4, ror r6
    6564:	640b0000 	strvs	r0, [fp], #-0
    6568:	0500000d 	streq	r0, [r0, #-13]
    656c:	00002575 	andeq	r2, r0, r5, ror r5
    6570:	0d000400 	cfstrseq	mvf0, [r0, #-0]
    6574:	00004f04 	andeq	r4, r0, r4, lsl #30
    6578:	10520f00 	subsne	r0, r2, r0, lsl #30
    657c:	05680000 	strbeq	r0, [r8, #-0]!
    6580:	000406b3 			; <UNDEFINED> instruction: 0x000406b3
    6584:	705f1000 	subsvc	r1, pc, r0
    6588:	d6b40500 	ldrtle	r0, [r4], r0, lsl #10
    658c:	00000002 	andeq	r0, r0, r2
    6590:	00725f10 	rsbseq	r5, r2, r0, lsl pc
    6594:	0025b505 	eoreq	fp, r5, r5, lsl #10
    6598:	10040000 	andne	r0, r4, r0
    659c:	0500775f 	streq	r7, [r0, #-1887]	; 0x75f
    65a0:	000025b6 			; <UNDEFINED> instruction: 0x000025b6
    65a4:	380b0800 	stmdacc	fp, {fp}
    65a8:	0500000e 	streq	r0, [r0, #-14]
    65ac:	00003ab7 			; <UNDEFINED> instruction: 0x00003ab7
    65b0:	4b0b0c00 	blmi	2c95b8 <__bss_end__+0x2bda08>
    65b4:	0500000f 	streq	r0, [r0, #-15]
    65b8:	00003ab8 			; <UNDEFINED> instruction: 0x00003ab8
    65bc:	5f100e00 	svcpl	0x00100e00
    65c0:	05006662 	streq	r6, [r0, #-1634]	; 0x662
    65c4:	0002b1b9 			; <UNDEFINED> instruction: 0x0002b1b9
    65c8:	a70b1000 	strge	r1, [fp, -r0]
    65cc:	0500000d 	streq	r0, [r0, #-13]
    65d0:	000025ba 			; <UNDEFINED> instruction: 0x000025ba
    65d4:	280b1800 	stmdacs	fp, {fp, ip}
    65d8:	0500000e 	streq	r0, [r0, #-14]
    65dc:	000105c1 	andeq	r0, r1, r1, asr #11
    65e0:	cf0b1c00 	svcgt	0x000b1c00
    65e4:	05000012 	streq	r0, [r0, #-18]
    65e8:	000561c3 	andeq	r6, r5, r3, asr #3
    65ec:	e90b2000 	stmdb	fp, {sp}
    65f0:	05000012 	streq	r0, [r0, #-18]
    65f4:	00058bc5 	andeq	r8, r5, r5, asr #23
    65f8:	c40b2400 	strgt	r2, [fp], #-1024	; 0x400
    65fc:	05000010 	streq	r0, [r0, #-16]
    6600:	0005afc8 	andeq	sl, r5, r8, asr #31
    6604:	890b2800 	stmdbhi	fp, {fp, sp}
    6608:	05000012 	streq	r0, [r0, #-18]
    660c:	0005c9c9 	andeq	ip, r5, r9, asr #19
    6610:	5f102c00 	svcpl	0x00102c00
    6614:	05006275 	streq	r6, [r0, #-629]	; 0x275
    6618:	0002b1cc 	andeq	fp, r2, ip, asr #3
    661c:	5f103000 	svcpl	0x00103000
    6620:	05007075 	streq	r7, [r0, #-117]	; 0x75
    6624:	0002d6cd 	andeq	sp, r2, sp, asr #13
    6628:	5f103800 	svcpl	0x00103800
    662c:	05007275 	streq	r7, [r0, #-629]	; 0x275
    6630:	000025ce 	andeq	r2, r0, lr, asr #11
    6634:	eb0b3c00 	bl	2d563c <__bss_end__+0x2c9a8c>
    6638:	0500000d 	streq	r0, [r0, #-13]
    663c:	0005cfd1 	ldrdeq	ip, [r5], -r1
    6640:	340b4000 	strcc	r4, [fp], #-0
    6644:	05000012 	streq	r0, [r0, #-18]
    6648:	0005dfd2 	ldrdeq	sp, [r5], -r2
    664c:	5f104300 	svcpl	0x00104300
    6650:	0500626c 	streq	r6, [r0, #-620]	; 0x26c
    6654:	0002b1d5 	ldrdeq	fp, [r2], -r5
    6658:	4e0b4400 	cfcpysmi	mvf4, mvf11
    665c:	0500000e 	streq	r0, [r0, #-14]
    6660:	000025d8 	ldrdeq	r2, [r0], -r8
    6664:	b60b4c00 	strlt	r4, [fp], -r0, lsl #24
    6668:	0500000f 	streq	r0, [r0, #-15]
    666c:	000076d9 	ldrdeq	r7, [r0], -r9
    6670:	1f0b5000 	svcne	0x000b5000
    6674:	05000012 	streq	r0, [r0, #-18]
    6678:	000424dc 	ldrdeq	r2, [r4], -ip
    667c:	9e0b5400 	cfcpysls	mvf5, mvf11
    6680:	0500000f 	streq	r0, [r0, #-15]
    6684:	0000fae0 	andeq	pc, r0, r0, ror #21
    6688:	5a0b5800 	bpl	2dc690 <__bss_end__+0x2d0ae0>
    668c:	05000010 	streq	r0, [r0, #-16]
    6690:	0000efe2 	andeq	lr, r0, r2, ror #31
    6694:	a40b5c00 	strge	r5, [fp], #-3072	; 0xc00
    6698:	0500000f 	streq	r0, [r0, #-15]
    669c:	000025e3 	andeq	r2, r0, r3, ror #11
    66a0:	14006400 	strne	r6, [r0], #-1024	; 0x400
    66a4:	00000025 	andeq	r0, r0, r5, lsr #32
    66a8:	00000424 	andeq	r0, r0, r4, lsr #8
    66ac:	00042415 	andeq	r2, r4, r5, lsl r4
    66b0:	01051500 	tsteq	r5, r0, lsl #10
    66b4:	07150000 	ldreq	r0, [r5, -r0]
    66b8:	15000001 	strne	r0, [r0, #-1]
    66bc:	00000025 	andeq	r0, r0, r5, lsr #32
    66c0:	2f040d00 	svccs	0x00040d00
    66c4:	0e000004 	cdpeq	0, 0, cr0, cr0, cr4, {0}
    66c8:	00000424 	andeq	r0, r0, r4, lsr #8
    66cc:	0010a716 	andseq	sl, r0, r6, lsl r7
    66d0:	05042800 	streq	r2, [r4, #-2048]	; 0x800
    66d4:	05610238 	strbeq	r0, [r1, #-568]!	; 0x238
    66d8:	22170000 	andscs	r0, r7, #0
    66dc:	05000010 	streq	r0, [r0, #-16]
    66e0:	0025023a 	eoreq	r0, r5, sl, lsr r2
    66e4:	17000000 	strne	r0, [r0, -r0]
    66e8:	00000e47 	andeq	r0, r0, r7, asr #28
    66ec:	36023f05 	strcc	r3, [r2], -r5, lsl #30
    66f0:	04000006 	streq	r0, [r0], #-6
    66f4:	000f3b17 	andeq	r3, pc, r7, lsl fp	; <UNPREDICTABLE>
    66f8:	023f0500 	eorseq	r0, pc, #0, 10
    66fc:	00000636 	andeq	r0, r0, r6, lsr r6
    6700:	0efc1708 	cdpeq	7, 15, cr1, cr12, cr8, {0}
    6704:	3f050000 	svccc	0x00050000
    6708:	00063602 	andeq	r3, r6, r2, lsl #12
    670c:	7b170c00 	blvc	5c9714 <__bss_end__+0x5bdb64>
    6710:	05000010 	streq	r0, [r0, #-16]
    6714:	00250241 	eoreq	r0, r5, r1, asr #4
    6718:	17100000 	ldrne	r0, [r0, -r0]
    671c:	00000d72 	andeq	r0, r0, r2, ror sp
    6720:	18024205 	stmdane	r2, {r0, r2, r9, lr}
    6724:	14000008 	strne	r0, [r0], #-8
    6728:	00119917 	andseq	r9, r1, r7, lsl r9
    672c:	02440500 	subeq	r0, r4, #0, 10
    6730:	00000025 	andeq	r0, r0, r5, lsr #32
    6734:	10851730 	addne	r1, r5, r0, lsr r7
    6738:	45050000 	strmi	r0, [r5, #-0]
    673c:	00058502 	andeq	r8, r5, r2, lsl #10
    6740:	e8173400 	ldmda	r7, {sl, ip, sp}
    6744:	0500000f 	streq	r0, [r0, #-15]
    6748:	00250247 	eoreq	r0, r5, r7, asr #4
    674c:	17380000 	ldrne	r0, [r8, -r0]!
    6750:	00001095 	muleq	r0, r5, r0
    6754:	33024905 	movwcc	r4, #10501	; 0x2905
    6758:	3c000008 	stccc	0, cr0, [r0], {8}
    675c:	000f7a17 	andeq	r7, pc, r7, lsl sl	; <UNPREDICTABLE>
    6760:	024c0500 	subeq	r0, ip, #0, 10
    6764:	00000177 	andeq	r0, r0, r7, ror r1
    6768:	0f1b1740 	svceq	0x001b1740
    676c:	4d050000 	stcmi	0, cr0, [r5, #-0]
    6770:	00002502 	andeq	r2, r0, r2, lsl #10
    6774:	a3174400 	tstge	r7, #0, 8
    6778:	05000012 	streq	r0, [r0, #-18]
    677c:	0177024e 	cmneq	r7, lr, asr #4
    6780:	17480000 	strbne	r0, [r8, -r0]
    6784:	00000fff 	strdeq	r0, [r0], -pc	; <UNPREDICTABLE>
    6788:	39024f05 	stmdbcc	r2, {r0, r2, r8, r9, sl, fp, lr}
    678c:	4c000008 	stcmi	0, cr0, [r0], {8}
    6790:	000f4317 	andeq	r4, pc, r7, lsl r3	; <UNPREDICTABLE>
    6794:	02520500 	subseq	r0, r2, #0, 10
    6798:	00000025 	andeq	r0, r0, r5, lsr #32
    679c:	0e6a1750 	mcreq	7, 3, r1, cr10, cr0, {2}
    67a0:	53050000 	movwpl	r0, #20480	; 0x5000
    67a4:	00010702 	andeq	r0, r1, r2, lsl #14
    67a8:	1b175400 	blne	5db7b0 <__bss_end__+0x5cfc00>
    67ac:	05000010 	streq	r0, [r0, #-16]
    67b0:	07f60276 			; <UNDEFINED> instruction: 0x07f60276
    67b4:	18580000 	ldmdane	r8, {}^	; <UNPREDICTABLE>
    67b8:	00000fe0 	andeq	r0, r0, r0, ror #31
    67bc:	94027a05 	strls	r7, [r2], #-2565	; 0xa05
    67c0:	48000002 	stmdami	r0, {r1}
    67c4:	0f581801 	svceq	0x00581801
    67c8:	7b050000 	blvc	1467d0 <__bss_end__+0x13ac20>
    67cc:	00025602 	andeq	r5, r2, r2, lsl #12
    67d0:	18014c00 	stmdane	r1, {sl, fp, lr}
    67d4:	00001205 	andeq	r1, r0, r5, lsl #4
    67d8:	4a027f05 	bmi	a63f4 <__bss_end__+0x9a844>
    67dc:	dc000008 	stcle	0, cr0, [r0], {8}
    67e0:	0e301802 	cdpeq	8, 3, cr1, cr0, cr2, {0}
    67e4:	84050000 	strhi	r0, [r5], #-0
    67e8:	0005fb02 	andeq	pc, r5, r2, lsl #22
    67ec:	1802e000 	stmdane	r2, {sp, lr, pc}
    67f0:	00000e15 	andeq	r0, r0, r5, lsl lr
    67f4:	56028505 	strpl	r8, [r2], -r5, lsl #10
    67f8:	ec000008 	stc	0, cr0, [r0], {8}
    67fc:	040d0002 	streq	r0, [sp], #-2
    6800:	00000406 	andeq	r0, r0, r6, lsl #8
    6804:	00002514 	andeq	r2, r0, r4, lsl r5
    6808:	00058500 	andeq	r8, r5, r0, lsl #10
    680c:	04241500 	strteq	r1, [r4], #-1280	; 0x500
    6810:	05150000 	ldreq	r0, [r5, #-0]
    6814:	15000001 	strne	r0, [r0, #-1]
    6818:	00000585 	andeq	r0, r0, r5, lsl #11
    681c:	00002515 	andeq	r2, r0, r5, lsl r5
    6820:	040d0000 	streq	r0, [sp], #-0
    6824:	00000114 	andeq	r0, r0, r4, lsl r1
    6828:	0567040d 	strbeq	r0, [r7, #-1037]!	; 0x40d
    682c:	81140000 	tsthi	r4, r0
    6830:	af000000 	svcge	0x00000000
    6834:	15000005 	strne	r0, [r0, #-5]
    6838:	00000424 	andeq	r0, r0, r4, lsr #8
    683c:	00010515 	andeq	r0, r1, r5, lsl r5
    6840:	00811500 	addeq	r1, r1, r0, lsl #10
    6844:	25150000 	ldrcs	r0, [r5, #-0]
    6848:	00000000 	andeq	r0, r0, r0
    684c:	0591040d 	ldreq	r0, [r1, #1037]	; 0x40d
    6850:	25140000 	ldrcs	r0, [r4, #-0]
    6854:	c9000000 	stmdbgt	r0, {}	; <UNPREDICTABLE>
    6858:	15000005 	strne	r0, [r0, #-5]
    685c:	00000424 	andeq	r0, r0, r4, lsr #8
    6860:	00010515 	andeq	r0, r1, r5, lsl r5
    6864:	040d0000 	streq	r0, [sp], #-0
    6868:	000005b5 			; <UNDEFINED> instruction: 0x000005b5
    686c:	00004f08 	andeq	r4, r0, r8, lsl #30
    6870:	0005df00 	andeq	sp, r5, r0, lsl #30
    6874:	00c70900 	sbceq	r0, r7, r0, lsl #18
    6878:	00020000 	andeq	r0, r2, r0
    687c:	00004f08 	andeq	r4, r0, r8, lsl #30
    6880:	0005ef00 	andeq	lr, r5, r0, lsl #30
    6884:	00c70900 	sbceq	r0, r7, r0, lsl #18
    6888:	00000000 	andeq	r0, r0, r0
    688c:	00104005 	andseq	r4, r0, r5
    6890:	011d0500 	tsteq	sp, r0, lsl #10
    6894:	000002dc 	ldrdeq	r0, [r0], -ip
    6898:	0011c719 	andseq	ip, r1, r9, lsl r7
    689c:	21050c00 	tstcs	r5, r0, lsl #24
    68a0:	00063001 	andeq	r3, r6, r1
    68a4:	10681700 	rsbne	r1, r8, r0, lsl #14
    68a8:	23050000 	movwcs	r0, #20480	; 0x5000
    68ac:	00063001 	andeq	r3, r6, r1
    68b0:	51170000 	tstpl	r7, r0
    68b4:	0500000f 	streq	r0, [r0, #-15]
    68b8:	00250124 	eoreq	r0, r5, r4, lsr #2
    68bc:	17040000 	strne	r0, [r4, -r0]
    68c0:	0000103a 	andeq	r1, r0, sl, lsr r0
    68c4:	36012505 	strcc	r2, [r1], -r5, lsl #10
    68c8:	08000006 	stmdaeq	r0, {r1, r2}
    68cc:	fb040d00 	blx	109cd6 <__bss_end__+0xfe126>
    68d0:	0d000005 	stceq	0, cr0, [r0, #-20]	; 0xffffffec
    68d4:	0005ef04 	andeq	lr, r5, r4, lsl #30
    68d8:	0d6a1900 	stcleq	9, cr1, [sl, #-0]
    68dc:	050e0000 	streq	r0, [lr, #-0]
    68e0:	0671013d 			; <UNDEFINED> instruction: 0x0671013d
    68e4:	ae170000 	cdpge	0, 1, cr0, cr7, cr0, {0}
    68e8:	05000010 	streq	r0, [r0, #-16]
    68ec:	0671013e 			; <UNDEFINED> instruction: 0x0671013e
    68f0:	17000000 	strne	r0, [r0, -r0]
    68f4:	000010e8 	andeq	r1, r0, r8, ror #1
    68f8:	71013f05 	tstvc	r1, r5, lsl #30
    68fc:	06000006 	streq	r0, [r0], -r6
    6900:	00116c17 	andseq	r6, r1, r7, lsl ip
    6904:	01400500 	cmpeq	r0, r0, lsl #10
    6908:	00000056 	andeq	r0, r0, r6, asr r0
    690c:	5608000c 	strpl	r0, [r8], -ip
    6910:	81000000 	mrshi	r0, (UNDEF: 0)
    6914:	09000006 	stmdbeq	r0, {r1, r2}
    6918:	000000c7 	andeq	r0, r0, r7, asr #1
    691c:	d01a0002 	andsle	r0, sl, r2
    6920:	82025705 	andhi	r5, r2, #1310720	; 0x140000
    6924:	17000007 	strne	r0, [r0, -r7]
    6928:	000011ab 	andeq	r1, r0, fp, lsr #3
    692c:	2c025905 	stccs	9, cr5, [r2], {5}
    6930:	00000000 	andeq	r0, r0, r0
    6934:	00115617 	andseq	r5, r1, r7, lsl r6
    6938:	025a0500 	subseq	r0, sl, #0, 10
    693c:	00000107 	andeq	r0, r0, r7, lsl #2
    6940:	0f6d1704 	svceq	0x006d1704
    6944:	5b050000 	blpl	14694c <__bss_end__+0x13ad9c>
    6948:	00078202 	andeq	r8, r7, r2, lsl #4
    694c:	7a170800 	bvc	5c8954 <__bss_end__+0x5bcda4>
    6950:	05000012 	streq	r0, [r0, #-18]
    6954:	018d025c 	orreq	r0, sp, ip, asr r2
    6958:	17240000 	strne	r0, [r4, -r0]!
    695c:	00000f0c 	andeq	r0, r0, ip, lsl #30
    6960:	25025d05 	strcs	r5, [r2, #-3333]	; 0xd05
    6964:	48000000 	stmdami	r0, {}	; <UNPREDICTABLE>
    6968:	00106317 	andseq	r6, r0, r7, lsl r3
    696c:	025e0500 	subseq	r0, lr, #0, 10
    6970:	00000064 	andeq	r0, r0, r4, rrx
    6974:	12901750 	addsne	r1, r0, #80, 14	; 0x1400000
    6978:	5f050000 	svcpl	0x00050000
    697c:	00063c02 	andeq	r3, r6, r2, lsl #24
    6980:	6e175800 	cdpvs	8, 1, cr5, cr7, cr0, {0}
    6984:	05000010 	streq	r0, [r0, #-16]
    6988:	00ef0260 	rsceq	r0, pc, r0, ror #4
    698c:	17680000 	strbne	r0, [r8, -r0]!
    6990:	00001295 	muleq	r0, r5, r2
    6994:	ef026105 	svc	0x00026105
    6998:	70000000 	andvc	r0, r0, r0
    699c:	000dcf17 	andeq	ip, sp, r7, lsl pc
    69a0:	02620500 	rsbeq	r0, r2, #0, 10
    69a4:	000000ef 	andeq	r0, r0, pc, ror #1
    69a8:	11e71778 	mvnne	r1, r8, ror r7
    69ac:	63050000 	movwvs	r0, #20480	; 0x5000
    69b0:	00079202 	andeq	r9, r7, r2, lsl #4
    69b4:	61178000 	tstvs	r7, r0
    69b8:	0500000f 	streq	r0, [r0, #-15]
    69bc:	07a20264 	streq	r0, [r2, r4, ror #4]!
    69c0:	17880000 	strne	r0, [r8, r0]
    69c4:	00001179 	andeq	r1, r0, r9, ror r1
    69c8:	25026505 	strcs	r6, [r2, #-1285]	; 0x505
    69cc:	a0000000 	andge	r0, r0, r0
    69d0:	000eb817 	andeq	fp, lr, r7, lsl r8
    69d4:	02660500 	rsbeq	r0, r6, #0, 10
    69d8:	000000ef 	andeq	r0, r0, pc, ror #1
    69dc:	0dc017a4 	stcleq	7, cr1, [r0, #656]	; 0x290
    69e0:	67050000 	strvs	r0, [r5, -r0]
    69e4:	0000ef02 	andeq	lr, r0, r2, lsl #30
    69e8:	a717ac00 	ldrge	sl, [r7, -r0, lsl #24]
    69ec:	0500000e 	streq	r0, [r0, #-14]
    69f0:	00ef0268 	rsceq	r0, pc, r8, ror #4
    69f4:	17b40000 	ldrne	r0, [r4, r0]!
    69f8:	00000d87 	andeq	r0, r0, r7, lsl #27
    69fc:	ef026905 	svc	0x00026905
    6a00:	bc000000 	stclt	0, cr0, [r0], {-0}
    6a04:	000d9617 	andeq	r9, sp, r7, lsl r6
    6a08:	026a0500 	rsbeq	r0, sl, #0, 10
    6a0c:	000000ef 	andeq	r0, r0, pc, ror #1
    6a10:	102017c4 	eorne	r1, r0, r4, asr #15
    6a14:	6b050000 	blvs	146a1c <__bss_end__+0x13ae6c>
    6a18:	00002502 	andeq	r2, r0, r2, lsl #10
    6a1c:	0800cc00 	stmdaeq	r0, {sl, fp, lr, pc}
    6a20:	0000010d 	andeq	r0, r0, sp, lsl #2
    6a24:	00000792 	muleq	r0, r2, r7
    6a28:	0000c709 	andeq	ip, r0, r9, lsl #14
    6a2c:	08001900 	stmdaeq	r0, {r8, fp, ip}
    6a30:	0000010d 	andeq	r0, r0, sp, lsl #2
    6a34:	000007a2 	andeq	r0, r0, r2, lsr #15
    6a38:	0000c709 	andeq	ip, r0, r9, lsl #14
    6a3c:	08000700 	stmdaeq	r0, {r8, r9, sl}
    6a40:	0000010d 	andeq	r0, r0, sp, lsl #2
    6a44:	000007b2 			; <UNDEFINED> instruction: 0x000007b2
    6a48:	0000c709 	andeq	ip, r0, r9, lsl #14
    6a4c:	1a001700 	bne	c654 <__bss_end__+0xaa4>
    6a50:	027005f0 	rsbseq	r0, r0, #240, 10	; 0x3c000000
    6a54:	000007d6 	ldrdeq	r0, [r0], -r6
    6a58:	000fd017 	andeq	sp, pc, r7, lsl r0	; <UNPREDICTABLE>
    6a5c:	02730500 	rsbseq	r0, r3, #0, 10
    6a60:	000007d6 	ldrdeq	r0, [r0], -r6
    6a64:	11de1700 	bicsne	r1, lr, r0, lsl #14
    6a68:	74050000 	strvc	r0, [r5], #-0
    6a6c:	0007e602 	andeq	lr, r7, r2, lsl #12
    6a70:	08007800 	stmdaeq	r0, {fp, ip, sp, lr}
    6a74:	000002d6 	ldrdeq	r0, [r0], -r6
    6a78:	000007e6 	andeq	r0, r0, r6, ror #15
    6a7c:	0000c709 	andeq	ip, r0, r9, lsl #14
    6a80:	08001d00 	stmdaeq	r0, {r8, sl, fp, ip}
    6a84:	0000002c 	andeq	r0, r0, ip, lsr #32
    6a88:	000007f6 	strdeq	r0, [r0], -r6
    6a8c:	0000c709 	andeq	ip, r0, r9, lsl #14
    6a90:	1b001d00 	blne	de98 <__bss_end__+0x22e8>
    6a94:	025505f0 	subseq	r0, r5, #240, 10	; 0x3c000000
    6a98:	00000818 	andeq	r0, r0, r8, lsl r8
    6a9c:	0010a71c 	andseq	sl, r0, ip, lsl r7
    6aa0:	026c0500 	rsbeq	r0, ip, #0, 10
    6aa4:	00000681 	andeq	r0, r0, r1, lsl #13
    6aa8:	00123a1c 	andseq	r3, r2, ip, lsl sl
    6aac:	02750500 	rsbseq	r0, r5, #0, 10
    6ab0:	000007b2 			; <UNDEFINED> instruction: 0x000007b2
    6ab4:	010d0800 	tsteq	sp, r0, lsl #16
    6ab8:	08280000 	stmdaeq	r8!, {}	; <UNPREDICTABLE>
    6abc:	c7090000 	strgt	r0, [r9, -r0]
    6ac0:	18000000 	stmdane	r0, {}	; <UNPREDICTABLE>
    6ac4:	08331d00 	ldmdaeq	r3!, {r8, sl, fp, ip}
    6ac8:	24150000 	ldrcs	r0, [r5], #-0
    6acc:	00000004 	andeq	r0, r0, r4
    6ad0:	0828040d 	stmdaeq	r8!, {r0, r2, r3, sl}
    6ad4:	040d0000 	streq	r0, [sp], #-0
    6ad8:	00000177 	andeq	r0, r0, r7, ror r1
    6adc:	00084a1d 	andeq	r4, r8, sp, lsl sl
    6ae0:	00251500 	eoreq	r1, r5, r0, lsl #10
    6ae4:	0d000000 	stceq	0, cr0, [r0, #-0]
    6ae8:	00085004 	andeq	r5, r8, r4
    6aec:	3f040d00 	svccc	0x00040d00
    6af0:	08000008 	stmdaeq	r0, {r3}
    6af4:	000005ef 	andeq	r0, r0, pc, ror #11
    6af8:	00000866 	andeq	r0, r0, r6, ror #16
    6afc:	0000c709 	andeq	ip, r0, r9, lsl #14
    6b00:	1e000200 	cdpne	2, 0, cr0, cr0, cr0, {0}
    6b04:	0000118d 	andeq	r1, r0, sp, lsl #3
    6b08:	2402fd05 	strcs	pc, [r2], #-3333	; 0xd05
    6b0c:	1e000004 	cdpne	0, 0, cr0, cr0, cr4, {0}
    6b10:	00001186 	andeq	r1, r0, r6, lsl #3
    6b14:	2a02fe05 	bcs	c6330 <__bss_end__+0xba780>
    6b18:	14000004 	strne	r0, [r0], #-4
    6b1c:	00000025 	andeq	r0, r0, r5, lsr #32
    6b20:	0000088d 	andeq	r0, r0, sp, lsl #17
    6b24:	00002515 	andeq	r2, r0, r5, lsl r5
    6b28:	d21f0000 	andsle	r0, pc, #0
    6b2c:	06000009 	streq	r0, [r0], -r9
    6b30:	0008981d 	andeq	r9, r8, sp, lsl r8
    6b34:	7e040d00 	cdpvc	13, 0, cr0, cr4, cr0, {0}
    6b38:	14000008 	strne	r0, [r0], #-8
    6b3c:	00000025 	andeq	r0, r0, r5, lsr #32
    6b40:	000008ad 	andeq	r0, r0, sp, lsr #17
    6b44:	00058515 	andeq	r8, r5, r5, lsl r5
    6b48:	0f1f0000 	svceq	0x001f0000
    6b4c:	0600000a 	streq	r0, [r0], -sl
    6b50:	0008b822 	andeq	fp, r8, r2, lsr #16
    6b54:	9e040d00 	cdpls	13, 0, cr0, cr4, cr0, {0}
    6b58:	03000008 	movweq	r0, #8
    6b5c:	135c0408 	cmpne	ip, #8, 8	; 0x8000000
    6b60:	941f0000 	ldrls	r0, [pc], #-0	; 6b68 <__code_start__-0x1498>
    6b64:	01000013 	tsteq	r0, r3, lsl r0
    6b68:	00010d0d 	andeq	r0, r1, sp, lsl #26
    6b6c:	050a2000 	streq	r2, [sl, #-0]
    6b70:	0e010000 	cdpeq	0, 0, cr0, cr1, cr0, {0}
    6b74:	00000107 	andeq	r0, r0, r7, lsl #2
    6b78:	a7140305 	ldrge	r0, [r4, -r5, lsl #6]
    6b7c:	ab200000 	blge	806b84 <__bss_end__+0x7fafd4>
    6b80:	01000013 	tsteq	r0, r3, lsl r0
    6b84:	0001070f 	andeq	r0, r1, pc, lsl #14
    6b88:	18030500 	stmdane	r3, {r8, sl}
    6b8c:	210000a7 	smlatbcs	r0, r7, r0, r0
    6b90:	0000136d 	andeq	r1, r0, sp, ror #6
    6b94:	a6843801 	strge	r3, [r4], r1, lsl #16
    6b98:	00100000 	andseq	r0, r0, r0
    6b9c:	9c010000 	stcls	0, cr0, [r1], {-0}
    6ba0:	00000913 	andeq	r0, r0, r3, lsl r9
    6ba4:	01007022 	tsteq	r0, r2, lsr #32
    6ba8:	00010538 	andeq	r0, r1, r8, lsr r5
    6bac:	00500100 	subseq	r0, r0, r0, lsl #2
    6bb0:	00136323 	andseq	r6, r3, r3, lsr #6
    6bb4:	70370100 	eorsvc	r0, r7, r0, lsl #2
    6bb8:	140000a6 	strne	r0, [r0], #-166	; 0xa6
    6bbc:	01000000 	mrseq	r0, (UNDEF: 0)
    6bc0:	018f219c 			; <UNDEFINED> instruction: 0x018f219c
    6bc4:	36010000 	strcc	r0, [r1], -r0
    6bc8:	0000a66c 	andeq	sl, r0, ip, ror #12
    6bcc:	00000004 	andeq	r0, r0, r4
    6bd0:	09459c01 	stmdbeq	r5, {r0, sl, fp, ip, pc}^
    6bd4:	70220000 	eorvc	r0, r2, r0
    6bd8:	05360100 	ldreq	r0, [r6, #-256]!	; 0x100
    6bdc:	01000001 	tsteq	r0, r1
    6be0:	4c240050 	stcmi	0, cr0, [r4], #-320	; 0xfffffec0
    6be4:	01000013 	tsteq	r0, r3, lsl r0
    6be8:	00010529 	andeq	r0, r1, r9, lsr #10
    6bec:	00a5e000 	adceq	lr, r5, r0
    6bf0:	00008c00 	andeq	r8, r0, r0, lsl #24
    6bf4:	309c0100 	addscc	r0, ip, r0, lsl #2
    6bf8:	2500000a 	strcs	r0, [r0, #-10]
    6bfc:	00000414 	andeq	r0, r0, r4, lsl r4
    6c00:	002c2901 	eoreq	r2, ip, r1, lsl #18
    6c04:	1a300000 	bne	c06c0c <__bss_end__+0xbfb05c>
    6c08:	8a250000 	bhi	946c10 <__bss_end__+0x93b060>
    6c0c:	01000013 	tsteq	r0, r3, lsl r0
    6c10:	00002c29 	andeq	r2, r0, r9, lsr #24
    6c14:	001a8300 	andseq	r8, sl, r0, lsl #6
    6c18:	00bc2600 	adcseq	r2, ip, r0, lsl #12
    6c1c:	0a400000 	beq	1006c24 <__bss_end__+0xffb074>
    6c20:	03050000 	movweq	r0, #20480	; 0x5000
    6c24:	0000b5ac 	andeq	fp, r0, ip, lsr #11
    6c28:	01006827 	tsteq	r0, r7, lsr #16
    6c2c:	00002c2e 	andeq	r2, r0, lr, lsr #24
    6c30:	001aca00 	andseq	ip, sl, r0, lsl #20
    6c34:	a61c2800 	ldrge	r2, [ip], -r0, lsl #16
    6c38:	0a790000 	beq	1e46c40 <__bss_end__+0x1e3b090>
    6c3c:	09ad0000 	stmibeq	sp!, {}	; <UNPREDICTABLE>
    6c40:	01290000 	teqeq	r9, r0
    6c44:	01f30350 	mvnseq	r0, r0, asr r3
    6c48:	242a0050 	strtcs	r0, [sl], #-80	; 0x50
    6c4c:	fb0000a6 	blx	6eee <__code_start__-0x1112>
    6c50:	2800000b 	stmdacs	r0, {r0, r1, r3}
    6c54:	0000a638 	andeq	sl, r0, r8, lsr r6
    6c58:	00000c06 	andeq	r0, r0, r6, lsl #24
    6c5c:	000009e5 	andeq	r0, r0, r5, ror #19
    6c60:	05500129 	ldrbeq	r0, [r0, #-297]	; 0x129
    6c64:	00b5f803 	adcseq	pc, r5, r3, lsl #16
    6c68:	51012900 	tstpl	r1, r0, lsl #18
    6c6c:	b5bc0305 	ldrlt	r0, [ip, #773]!	; 0x305
    6c70:	01290000 	teqeq	r9, r0
    6c74:	ac030552 	cfstr32ge	mvfx0, [r3], {82}	; 0x52
    6c78:	290000b5 	stmdbcs	r0, {r0, r2, r4, r5, r7}
    6c7c:	08025301 	stmdaeq	r2, {r0, r8, r9, ip, lr}
    6c80:	3c2a002a 	stccc	0, cr0, [sl], #-168	; 0xffffff58
    6c84:	110000a6 	smlatbne	r0, r6, r0, r0
    6c88:	2a00000c 	bcs	6cc0 <__code_start__-0x1340>
    6c8c:	0000a640 	andeq	sl, r0, r0, asr #12
    6c90:	00000bfb 	strdeq	r0, [r0], -fp
    6c94:	00a65428 	adceq	r5, r6, r8, lsr #8
    6c98:	000c0600 	andeq	r0, ip, r0, lsl #12
    6c9c:	000a2600 	andeq	r2, sl, r0, lsl #12
    6ca0:	50012900 	andpl	r2, r1, r0, lsl #18
    6ca4:	b6580305 	ldrblt	r0, [r8], -r5, lsl #6
    6ca8:	01290000 	teqeq	r9, r0
    6cac:	bc030551 	cfstr32lt	mvfx0, [r3], {81}	; 0x51
    6cb0:	290000b5 	stmdbcs	r0, {r0, r2, r4, r5, r7}
    6cb4:	03055201 	movweq	r5, #20993	; 0x5201
    6cb8:	0000b5ac 	andeq	fp, r0, ip, lsr #11
    6cbc:	02530129 	subseq	r0, r3, #1073741834	; 0x4000000a
    6cc0:	2a003008 	bcs	12ce8 <__bss_end__+0x7138>
    6cc4:	0000a658 	andeq	sl, r0, r8, asr r6
    6cc8:	00000c11 	andeq	r0, r0, r1, lsl ip
    6ccc:	01140800 	tsteq	r4, r0, lsl #16
    6cd0:	0a400000 	beq	1006cd8 <__bss_end__+0xffb128>
    6cd4:	c7090000 	strgt	r0, [r9, -r0]
    6cd8:	0f000000 	svceq	0x00000000
    6cdc:	0a300e00 	beq	c0a4e4 <__bss_end__+0xbfe934>
    6ce0:	79240000 	stmdbvc	r4!, {}	; <UNPREDICTABLE>
    6ce4:	01000013 	tsteq	r0, r3, lsl r0
    6ce8:	00010525 	andeq	r0, r1, r5, lsr #10
    6cec:	00a5d400 	adceq	sp, r5, r0, lsl #8
    6cf0:	00000c00 	andeq	r0, r0, r0, lsl #24
    6cf4:	689c0100 	ldmvs	ip, {r8}
    6cf8:	2a00000a 	bcs	6d28 <__code_start__-0x12d8>
    6cfc:	0000a5dc 	ldrdeq	sl, [r0], -ip
    6d00:	00000bd1 	ldrdeq	r0, [r0], -r1
    6d04:	133f2300 	teqne	pc, #0, 6
    6d08:	24010000 	strcs	r0, [r1], #-0
    6d0c:	0000a5d0 	ldrdeq	sl, [r0], -r0
    6d10:	00000004 	andeq	r0, r0, r4
    6d14:	91249c01 	teqls	r4, r1, lsl #24
    6d18:	01000000 	mrseq	r0, (UNDEF: 0)
    6d1c:	0001051a 	andeq	r0, r1, sl, lsl r5
    6d20:	00a56c00 	adceq	r6, r5, r0, lsl #24
    6d24:	00006400 	andeq	r6, r0, r0, lsl #8
    6d28:	249c0100 	ldrcs	r0, [ip], #256	; 0x100
    6d2c:	2b00000b 	blcs	6d60 <__code_start__-0x12a0>
    6d30:	01007a73 	tsteq	r0, r3, ror sl
    6d34:	00002c1a 	andeq	r2, r0, sl, lsl ip
    6d38:	001b0200 	andseq	r0, fp, r0, lsl #4
    6d3c:	00bc2600 	adcseq	r2, ip, r0, lsl #12
    6d40:	0b340000 	bleq	d06d48 <__bss_end__+0xcfb198>
    6d44:	03050000 	movweq	r0, #20480	; 0x5000
    6d48:	0000b5a4 	andeq	fp, r0, r4, lsr #11
    6d4c:	0002782c 	andeq	r7, r2, ip, lsr #16
    6d50:	051e0100 	ldreq	r0, [lr, #-256]	; 0x100
    6d54:	4c000001 	stcmi	0, cr0, [r0], {1}
    6d58:	2800001b 	stmdacs	r0, {r0, r1, r3, r4}
    6d5c:	0000a59c 	muleq	r0, ip, r5
    6d60:	00000c1c 	andeq	r0, r0, ip, lsl ip
    6d64:	00000ae3 	andeq	r0, r0, r3, ror #21
    6d68:	02500129 	subseq	r0, r0, #1073741834	; 0x4000000a
    6d6c:	01290074 	teqeq	r9, r4, ror r0
    6d70:	29300151 	ldmdbcs	r0!, {r0, r4, r6, r8}
    6d74:	f3085201 	vhsub.u8	d5, d8, d1
    6d78:	07235001 	streq	r5, [r3, -r1]!
    6d7c:	001af809 	andseq	pc, sl, r9, lsl #16
    6d80:	00a5a82a 	adceq	sl, r5, sl, lsr #16
    6d84:	000bfb00 	andeq	pc, fp, r0, lsl #22
    6d88:	a5bc2800 	ldrge	r2, [ip, #2048]!	; 0x800
    6d8c:	0c060000 	stceq	0, cr0, [r6], {-0}
    6d90:	0b1a0000 	bleq	686d98 <__bss_end__+0x67b1e8>
    6d94:	01290000 	teqeq	r9, r0
    6d98:	e4030550 	str	r0, [r3], #-1360	; 0x550
    6d9c:	290000b5 	stmdbcs	r0, {r0, r2, r4, r5, r7}
    6da0:	03055101 	movweq	r5, #20737	; 0x5101
    6da4:	0000b5bc 			; <UNDEFINED> instruction: 0x0000b5bc
    6da8:	05520129 	ldrbeq	r0, [r2, #-297]	; 0x129
    6dac:	00b5a403 	adcseq	sl, r5, r3, lsl #8
    6db0:	53012900 	movwpl	r2, #6400	; 0x1900
    6db4:	2a004b01 	bcs	199c0 <__bss_end__+0xde10>
    6db8:	0000a5c0 	andeq	sl, r0, r0, asr #11
    6dbc:	00000c11 	andeq	r0, r0, r1, lsl ip
    6dc0:	01140800 	tsteq	r4, r0, lsl #16
    6dc4:	0b340000 	bleq	d06dcc <__bss_end__+0xcfb21c>
    6dc8:	c7090000 	strgt	r0, [r9, -r0]
    6dcc:	07000000 	streq	r0, [r0, -r0]
    6dd0:	0b240e00 	bleq	90a5d8 <__bss_end__+0x8fea28>
    6dd4:	03210000 	teqeq	r1, #0
    6dd8:	01000002 	tsteq	r0, r2
    6ddc:	00a51c14 	adceq	r1, r5, r4, lsl ip
    6de0:	00005000 	andeq	r5, r0, r0
    6de4:	bc9c0100 	ldflts	f0, [ip], {0}
    6de8:	2500000b 	strcs	r0, [r0, #-11]
    6dec:	00000277 	andeq	r0, r0, r7, ror r2
    6df0:	002c1401 	eoreq	r1, ip, r1, lsl #8
    6df4:	1b5f0000 	blne	17c6dfc <__bss_end__+0x17bb24c>
    6df8:	782c0000 	stmdavc	ip!, {}	; <UNPREDICTABLE>
    6dfc:	01000002 	tsteq	r0, r2
    6e00:	00010715 	andeq	r0, r1, r5, lsl r7
    6e04:	001b8000 	andseq	r8, fp, r0
    6e08:	00bc2600 	adcseq	r2, ip, r0, lsl #12
    6e0c:	0bcc0000 	bleq	ff306e14 <__bss_end__+0xff2fb264>
    6e10:	03050000 	movweq	r0, #20480	; 0x5000
    6e14:	0000b58c 	andeq	fp, r0, ip, lsl #11
    6e18:	00a5442a 	adceq	r4, r5, sl, lsr #8
    6e1c:	000bfb00 	andeq	pc, fp, r0, lsl #22
    6e20:	a5582800 	ldrbge	r2, [r8, #-2048]	; 0x800
    6e24:	0c060000 	stceq	0, cr0, [r6], {-0}
    6e28:	0bb20000 	bleq	fec86e30 <__bss_end__+0xfec7b280>
    6e2c:	01290000 	teqeq	r9, r0
    6e30:	c8030550 	stmdagt	r3, {r4, r6, r8, sl}
    6e34:	290000b5 	stmdbcs	r0, {r0, r2, r4, r5, r7}
    6e38:	03055101 	movweq	r5, #20737	; 0x5101
    6e3c:	0000b5bc 			; <UNDEFINED> instruction: 0x0000b5bc
    6e40:	05520129 	ldrbeq	r0, [r2, #-297]	; 0x129
    6e44:	00b58c03 	adcseq	r8, r5, r3, lsl #24
    6e48:	53012900 	movwpl	r2, #6400	; 0x1900
    6e4c:	2a004601 	bcs	18658 <__bss_end__+0xcaa8>
    6e50:	0000a55c 	andeq	sl, r0, ip, asr r5
    6e54:	00000c11 	andeq	r0, r0, r1, lsl ip
    6e58:	01140800 	tsteq	r4, r0, lsl #16
    6e5c:	0bcc0000 	bleq	ff306e64 <__bss_end__+0xff2fb2b4>
    6e60:	c7090000 	strgt	r0, [r9, -r0]
    6e64:	16000000 	strne	r0, [r0], -r0
    6e68:	0bbc0e00 	bleq	fef0a670 <__bss_end__+0xfeefeac0>
    6e6c:	a32d0000 	teqge	sp, #0
    6e70:	01000013 	tsteq	r0, r3, lsl r0
    6e74:	00010512 	andeq	r0, r1, r2, lsl r5
    6e78:	00a51000 	adceq	r1, r5, r0
    6e7c:	00000c00 	andeq	r0, r0, r0, lsl #24
    6e80:	2d9c0100 	ldfcss	f0, [ip]
    6e84:	000013b6 			; <UNDEFINED> instruction: 0x000013b6
    6e88:	01051101 	tsteq	r5, r1, lsl #2
    6e8c:	a5000000 	strge	r0, [r0, #-0]
    6e90:	00100000 	andseq	r0, r0, r0
    6e94:	9c010000 	stcls	0, cr0, [r1], {-0}
    6e98:	0002242e 	andeq	r2, r2, lr, lsr #8
    6e9c:	00022400 	andeq	r2, r2, r0, lsl #8
    6ea0:	2e1e0600 	cfmsub32cs	mvax0, mvfx0, mvfx14, mvfx0
    6ea4:	000009a1 	andeq	r0, r0, r1, lsr #19
    6ea8:	000009a1 	andeq	r0, r0, r1, lsr #19
    6eac:	722e2906 	eorvc	r2, lr, #98304	; 0x18000
    6eb0:	72000000 	andvc	r0, r0, #0
    6eb4:	06000000 	streq	r0, [r0], -r0
    6eb8:	04072e65 	streq	r2, [r7], #-3685	; 0xe65
    6ebc:	04070000 	streq	r0, [r7], #-0
    6ec0:	19070000 	stmdbne	r7, {}	; <UNPREDICTABLE>
    6ec4:	00013e00 	andeq	r3, r1, r0, lsl #28
    6ec8:	3b000400 	blcc	7ed0 <__code_start__-0x130>
    6ecc:	04000020 	streq	r0, [r0], #-32
    6ed0:	0008d601 	andeq	sp, r8, r1, lsl #12
    6ed4:	13c70100 	bicne	r0, r7, #0, 2
    6ed8:	092d0000 	pusheq	{}	; <UNPREDICTABLE>
    6edc:	a6940000 	ldrge	r0, [r4], r0
    6ee0:	00440000 	subeq	r0, r4, r0
    6ee4:	1a340000 	bne	d06eec <__bss_end__+0xcfb33c>
    6ee8:	04020000 	streq	r0, [r2], #-0
    6eec:	746e6905 	strbtvc	r6, [lr], #-2309	; 0x905
    6ef0:	07040300 	streq	r0, [r4, -r0, lsl #6]
    6ef4:	00000148 	andeq	r0, r0, r8, asr #2
    6ef8:	5b060103 	blpl	18730c <__bss_end__+0x17b75c>
    6efc:	03000000 	movweq	r0, #0
    6f00:	01950502 	orrseq	r0, r5, r2, lsl #10
    6f04:	04030000 	streq	r0, [r3], #-0
    6f08:	00017605 	andeq	r7, r1, r5, lsl #12
    6f0c:	05080300 	streq	r0, [r8, #-768]	; 0x300
    6f10:	00000171 	andeq	r0, r0, r1, ror r1
    6f14:	59080103 	stmdbpl	r8, {r0, r1, r8}
    6f18:	03000000 	movweq	r0, #0
    6f1c:	00200702 	eoreq	r0, r0, r2, lsl #14
    6f20:	04030000 	streq	r0, [r3], #-0
    6f24:	00014307 	andeq	r4, r1, r7, lsl #6
    6f28:	07080300 	streq	r0, [r8, -r0, lsl #6]
    6f2c:	0000013e 	andeq	r0, r0, lr, lsr r1
    6f30:	55070403 	strpl	r0, [r7, #-1027]	; 0x403
    6f34:	03000001 	movweq	r0, #1
    6f38:	00620801 	rsbeq	r0, r2, r1, lsl #16
    6f3c:	04040000 	streq	r0, [r4], #-0
    6f40:	0000007f 	andeq	r0, r0, pc, ror r0
    6f44:	00007205 	andeq	r7, r0, r5, lsl #4
    6f48:	13f20600 	mvnsne	r0, #0, 12
    6f4c:	02010000 	andeq	r0, r1, #0
    6f50:	0000a694 	muleq	r0, r4, r6
    6f54:	00000044 	andeq	r0, r0, r4, asr #32
    6f58:	01089c01 	tsteq	r8, r1, lsl #24
    6f5c:	70070000 	andvc	r0, r7, r0
    6f60:	02010063 	andeq	r0, r1, #99	; 0x63
    6f64:	0000002c 	andeq	r0, r0, ip, lsr #32
    6f68:	00001ba1 	andeq	r1, r0, r1, lsr #23
    6f6c:	0000bc08 	andeq	fp, r0, r8, lsl #24
    6f70:	00011800 	andeq	r1, r1, r0, lsl #16
    6f74:	ac030500 	cfstr32ge	mvfx0, [r3], {-0}
    6f78:	090000b6 	stmdbeq	r0, {r1, r2, r4, r5, r7}
    6f7c:	0000a6a4 	andeq	sl, r0, r4, lsr #13
    6f80:	0000011d 	andeq	r0, r0, sp, lsl r1
    6f84:	00a6c40a 	adceq	ip, r6, sl, lsl #8
    6f88:	00012400 	andeq	r2, r1, r0, lsl #8
    6f8c:	0000fe00 	andeq	pc, r0, r0, lsl #28
    6f90:	53010b00 	movwpl	r0, #6912	; 0x1b00
    6f94:	010b3201 	tsteq	fp, r1, lsl #4
    6f98:	ac030552 	cfstr32ge	mvfx0, [r3], {82}	; 0x52
    6f9c:	0b0000b6 	bleq	727c <__code_start__-0xd84>
    6fa0:	03055101 	movweq	r5, #20737	; 0x5101
    6fa4:	0000b6cc 	andeq	fp, r0, ip, asr #13
    6fa8:	0550010b 	ldrbeq	r0, [r0, #-267]	; 0x10b
    6fac:	00b2c803 	adcseq	ip, r2, r3, lsl #16
    6fb0:	7d020b00 	vstrvc	d0, [r2, #-0]
    6fb4:	00740204 	rsbseq	r0, r4, r4, lsl #4
    6fb8:	007d020b 	rsbseq	r0, sp, fp, lsl #4
    6fbc:	b6f80305 	ldrbtlt	r0, [r8], r5, lsl #6
    6fc0:	09000000 	stmdbeq	r0, {}	; <UNPREDICTABLE>
    6fc4:	0000a6c8 	andeq	sl, r0, r8, asr #13
    6fc8:	0000013a 	andeq	r0, r0, sl, lsr r1
    6fcc:	00720c00 	rsbseq	r0, r2, r0, lsl #24
    6fd0:	01180000 	tsteq	r8, r0
    6fd4:	6b0d0000 	blvs	346fdc <__bss_end__+0x33b42c>
    6fd8:	1c000000 	stcne	0, cr0, [r0], {-0}
    6fdc:	01080500 	tsteq	r8, r0, lsl #10
    6fe0:	240e0000 	strcs	r0, [lr], #-0
    6fe4:	02000002 	andeq	r0, r0, #2
    6fe8:	09a10f1e 	stmibeq	r1!, {r1, r2, r3, r4, r8, r9, sl, fp}
    6fec:	29020000 	stmdbcs	r2, {}	; <UNPREDICTABLE>
    6ff0:	00000025 	andeq	r0, r0, r5, lsr #32
    6ff4:	0000013a 	andeq	r0, r0, sl, lsr r1
    6ff8:	00007910 	andeq	r7, r0, r0, lsl r9
    6ffc:	0e001100 	adfeqs	f1, f0, f0
    7000:	00000072 	andeq	r0, r0, r2, ror r0
    7004:	Address 0x0000000000007004 is out of bounds.


Disassembly of section .debug_abbrev:

00000000 <.debug_abbrev>:
       0:	25011101 	strcs	r1, [r1, #-257]	; 0x101
       4:	030b130e 	movweq	r1, #45838	; 0xb30e
       8:	110e1b0e 	tstne	lr, lr, lsl #22
       c:	10061201 	andne	r1, r6, r1, lsl #4
      10:	02000017 	andeq	r0, r0, #23
      14:	0b0b0024 	bleq	2c00ac <__bss_end__+0x2b44fc>
      18:	08030b3e 	stmdaeq	r3, {r1, r2, r3, r4, r5, r8, r9, fp}
      1c:	24030000 	strcs	r0, [r3], #-0
      20:	3e0b0b00 	vmlacc.f64	d0, d11, d0
      24:	000e030b 	andeq	r0, lr, fp, lsl #6
      28:	00160400 	andseq	r0, r6, r0, lsl #8
      2c:	0b3a0e03 	bleq	e83840 <__bss_end__+0xe77c90>
      30:	13490b3b 	movtne	r0, #39739	; 0x9b3b
      34:	0f050000 	svceq	0x00050000
      38:	000b0b00 	andeq	r0, fp, r0, lsl #22
      3c:	000f0600 	andeq	r0, pc, r0, lsl #12
      40:	13490b0b 	movtne	r0, #39691	; 0x9b0b
      44:	26070000 	strcs	r0, [r7], -r0
      48:	00134900 	andseq	r4, r3, r0, lsl #18
      4c:	01010800 	tsteq	r1, r0, lsl #16
      50:	13011349 	movwne	r1, #4937	; 0x1349
      54:	21090000 	mrscs	r0, (UNDEF: 9)
      58:	2f134900 	svccs	0x00134900
      5c:	0a00000b 	beq	90 <__code_start__-0x7f70>
      60:	193f012e 	ldmdbne	pc!, {r1, r2, r3, r5, r8}	; <UNPREDICTABLE>
      64:	0b3a0e03 	bleq	e83878 <__bss_end__+0xe77cc8>
      68:	19270b3b 	stmdbne	r7!, {r0, r1, r3, r4, r5, r8, r9, fp}
      6c:	06120111 			; <UNDEFINED> instruction: 0x06120111
      70:	42971840 	addsmi	r1, r7, #64, 16	; 0x400000
      74:	00130119 	andseq	r0, r3, r9, lsl r1
      78:	82890b00 	addhi	r0, r9, #0, 22
      7c:	01110001 	tsteq	r1, r1
      80:	00001331 	andeq	r1, r0, r1, lsr r3
      84:	0182890c 	orreq	r8, r2, ip, lsl #18
      88:	31011101 	tstcc	r1, r1, lsl #2
      8c:	00130113 	andseq	r0, r3, r3, lsl r1
      90:	828a0d00 	addhi	r0, sl, #0, 26
      94:	18020001 	stmdane	r2, {r0}
      98:	00184291 	mulseq	r8, r1, r2
      9c:	82890e00 	addhi	r0, r9, #0, 28
      a0:	01110101 	tsteq	r1, r1, lsl #2
      a4:	00001331 	andeq	r1, r0, r1, lsr r3
      a8:	3f002e0f 	svccc	0x00002e0f
      ac:	3a0e0319 	bcc	380d18 <__bss_end__+0x375168>
      b0:	270b3b0b 	strcs	r3, [fp, -fp, lsl #22]
      b4:	12011119 	andne	r1, r1, #1073741830	; 0x40000006
      b8:	97184006 	ldrls	r4, [r8, -r6]
      bc:	00001942 	andeq	r1, r0, r2, asr #18
      c0:	03003410 	movweq	r3, #1040	; 0x410
      c4:	3b0b3a08 	blcc	2ce8ec <__bss_end__+0x2c2d3c>
      c8:	0213490b 	andseq	r4, r3, #180224	; 0x2c000
      cc:	11000017 	tstne	r0, r7, lsl r0
      d0:	0e030034 	mcreq	0, 0, r0, cr3, cr4, {1}
      d4:	19341349 	ldmdbne	r4!, {r0, r3, r6, r8, r9, ip}
      d8:	00001802 	andeq	r1, r0, r2, lsl #16
      dc:	11010b12 	tstne	r1, r2, lsl fp
      e0:	01061201 	tsteq	r6, r1, lsl #4
      e4:	13000013 	movwne	r0, #19
      e8:	13490035 	movtne	r0, #36917	; 0x9035
      ec:	2e140000 	cdpcs	0, 1, cr0, cr4, cr0, {0}
      f0:	03193f00 	tsteq	r9, #0, 30
      f4:	3b0b3a0e 	blcc	2ce934 <__bss_end__+0x2c2d84>
      f8:	1201110b 	andne	r1, r1, #-1073741822	; 0xc0000002
      fc:	97184006 	ldrls	r4, [r8, -r6]
     100:	00001942 	andeq	r1, r0, r2, asr #18
     104:	03003415 	movweq	r3, #1045	; 0x415
     108:	3b0b3a08 	blcc	2ce930 <__bss_end__+0x2c2d80>
     10c:	1c13490b 	ldcne	9, cr4, [r3], {11}
     110:	16000006 	strne	r0, [r0], -r6
     114:	193f002e 	ldmdbne	pc!, {r1, r2, r3, r5}	; <UNPREDICTABLE>
     118:	0b3a0e03 	bleq	e8392c <__bss_end__+0xe77d7c>
     11c:	19270b3b 	stmdbne	r7!, {r0, r1, r3, r4, r5, r8, r9, fp}
     120:	0000193c 	andeq	r1, r0, ip, lsr r9
     124:	3f012e17 	svccc	0x00012e17
     128:	3a0e0319 	bcc	380d94 <__bss_end__+0x3751e4>
     12c:	270b3b0b 	strcs	r3, [fp, -fp, lsl #22]
     130:	01193c19 	tsteq	r9, r9, lsl ip
     134:	18000013 	stmdane	r0, {r0, r1, r4}
     138:	13490005 	movtne	r0, #36869	; 0x9005
     13c:	2e190000 	cdpcs	0, 1, cr0, cr9, cr0, {0}
     140:	03193f01 	tsteq	r9, #1, 30
     144:	3b0b3a0e 	blcc	2ce984 <__bss_end__+0x2c2dd4>
     148:	4919270b 	ldmdbmi	r9, {r0, r1, r3, r8, r9, sl, sp}
     14c:	01193c13 	tsteq	r9, r3, lsl ip
     150:	1a000013 	bne	1a4 <__code_start__-0x7e5c>
     154:	00000018 	andeq	r0, r0, r8, lsl r0
     158:	3f002e1b 	svccc	0x00002e1b
     15c:	3a0e0319 	bcc	380dc8 <__bss_end__+0x375218>
     160:	270b3b0b 	strcs	r3, [fp, -fp, lsl #22]
     164:	3c134919 	ldccc	9, cr4, [r3], {25}
     168:	00000019 	andeq	r0, r0, r9, lsl r0
     16c:	25011101 	strcs	r1, [r1, #-257]	; 0x101
     170:	030b130e 	movweq	r1, #45838	; 0xb30e
     174:	110e1b0e 	tstne	lr, lr, lsl #22
     178:	10061201 	andne	r1, r6, r1, lsl #4
     17c:	02000017 	andeq	r0, r0, #23
     180:	0b0b0024 	bleq	2c0218 <__bss_end__+0x2b4668>
     184:	08030b3e 	stmdaeq	r3, {r1, r2, r3, r4, r5, r8, r9, fp}
     188:	16030000 	strne	r0, [r3], -r0
     18c:	3a0e0300 	bcc	380d94 <__bss_end__+0x3751e4>
     190:	490b3b0b 	stmdbmi	fp, {r0, r1, r3, r8, r9, fp, ip, sp}
     194:	04000013 	streq	r0, [r0], #-19
     198:	0b0b0024 	bleq	2c0230 <__bss_end__+0x2b4680>
     19c:	0e030b3e 	vmoveq.16	d3[0], r0
     1a0:	0f050000 	svceq	0x00050000
     1a4:	000b0b00 	andeq	r0, fp, r0, lsl #22
     1a8:	000f0600 	andeq	r0, pc, r0, lsl #12
     1ac:	13490b0b 	movtne	r0, #39691	; 0x9b0b
     1b0:	26070000 	strcs	r0, [r7], -r0
     1b4:	00134900 	andseq	r4, r3, r0, lsl #18
     1b8:	01010800 	tsteq	r1, r0, lsl #16
     1bc:	13011349 	movwne	r1, #4937	; 0x1349
     1c0:	21090000 	mrscs	r0, (UNDEF: 9)
     1c4:	2f134900 	svccs	0x00134900
     1c8:	0a00000b 	beq	1fc <__code_start__-0x7e04>
     1cc:	0b0b0104 	bleq	2c05e4 <__bss_end__+0x2b4a34>
     1d0:	0b3b0b3a 	bleq	ec2ec0 <__bss_end__+0xeb7310>
     1d4:	00001301 	andeq	r1, r0, r1, lsl #6
     1d8:	0300280b 	movweq	r2, #2059	; 0x80b
     1dc:	000d1c0e 	andeq	r1, sp, lr, lsl #24
     1e0:	01130c00 	tsteq	r3, r0, lsl #24
     1e4:	0b3a0b0b 	bleq	e82e18 <__bss_end__+0xe77268>
     1e8:	13010b3b 	movwne	r0, #6971	; 0x1b3b
     1ec:	0d0d0000 	stceq	0, cr0, [sp, #-0]
     1f0:	3a0e0300 	bcc	380df8 <__bss_end__+0x375248>
     1f4:	490b3b0b 	stmdbmi	fp, {r0, r1, r3, r8, r9, fp, ip, sp}
     1f8:	000b3813 	andeq	r3, fp, r3, lsl r8
     1fc:	01130e00 	tsteq	r3, r0, lsl #28
     200:	0b0b0e03 	bleq	2c3a14 <__bss_end__+0x2b7e64>
     204:	0b3b0b3a 	bleq	ec2ef4 <__bss_end__+0xeb7344>
     208:	00001301 	andeq	r1, r0, r1, lsl #6
     20c:	03012e0f 	movweq	r2, #7695	; 0x1e0f
     210:	3b0b3a0e 	blcc	2cea50 <__bss_end__+0x2c2ea0>
     214:	4919270b 	ldmdbmi	r9, {r0, r1, r3, r8, r9, sl, sp}
     218:	010b2013 	tsteq	fp, r3, lsl r0
     21c:	10000013 	andne	r0, r0, r3, lsl r0
     220:	08030005 	stmdaeq	r3, {r0, r2}
     224:	0b3b0b3a 	bleq	ec2f14 <__bss_end__+0xeb7364>
     228:	00001349 	andeq	r1, r0, r9, asr #6
     22c:	03000511 	movweq	r0, #1297	; 0x511
     230:	3b0b3a0e 	blcc	2cea70 <__bss_end__+0x2c2ec0>
     234:	0013490b 	andseq	r4, r3, fp, lsl #18
     238:	002e1200 	eoreq	r1, lr, r0, lsl #4
     23c:	0e03193f 	mcreq	9, 0, r1, cr3, cr15, {1}
     240:	0b3b0b3a 	bleq	ec2f30 <__bss_end__+0xeb7380>
     244:	01111927 	tsteq	r1, r7, lsr #18
     248:	18400612 	stmdane	r0, {r1, r4, r9, sl}^
     24c:	00194297 	mulseq	r9, r7, r2
     250:	012e1300 	teqeq	lr, r0, lsl #6
     254:	0e03193f 	mcreq	9, 0, r1, cr3, cr15, {1}
     258:	0b3b0b3a 	bleq	ec2f48 <__bss_end__+0xeb7398>
     25c:	01111927 	tsteq	r1, r7, lsr #18
     260:	18400612 	stmdane	r0, {r1, r4, r9, sl}^
     264:	01194297 			; <UNDEFINED> instruction: 0x01194297
     268:	14000013 	strne	r0, [r0], #-19
     26c:	0e030005 	cdpeq	0, 0, cr0, cr3, cr5, {0}
     270:	0b3b0b3a 	bleq	ec2f60 <__bss_end__+0xeb73b0>
     274:	17021349 	strne	r1, [r2, -r9, asr #6]
     278:	05150000 	ldreq	r0, [r5, #-0]
     27c:	3a080300 	bcc	200e84 <__bss_end__+0x1f52d4>
     280:	490b3b0b 	stmdbmi	fp, {r0, r1, r3, r8, r9, fp, ip, sp}
     284:	00170213 	andseq	r0, r7, r3, lsl r2
     288:	00341600 	eorseq	r1, r4, r0, lsl #12
     28c:	13490e03 	movtne	r0, #40451	; 0x9e03
     290:	18021934 	stmdane	r2, {r2, r4, r5, r8, fp, ip}
     294:	89170000 	ldmdbhi	r7, {}	; <UNPREDICTABLE>
     298:	11000182 	smlabbne	r0, r2, r1, r0
     29c:	00133101 	andseq	r3, r3, r1, lsl #2
     2a0:	82891800 	addhi	r1, r9, #0, 16
     2a4:	01110101 	tsteq	r1, r1, lsl #2
     2a8:	13011331 	movwne	r1, #4913	; 0x1331
     2ac:	8a190000 	bhi	6402b4 <__bss_end__+0x634704>
     2b0:	02000182 	andeq	r0, r0, #-2147483616	; 0x80000020
     2b4:	18429118 	stmdane	r2, {r3, r4, r8, ip, pc}^
     2b8:	891a0000 	ldmdbhi	sl, {}	; <UNPREDICTABLE>
     2bc:	11010182 	smlabbne	r1, r2, r1, r0
     2c0:	00133101 	andseq	r3, r3, r1, lsl #2
     2c4:	012e1b00 	teqeq	lr, r0, lsl #22
     2c8:	0b3a0e03 	bleq	e83adc <__bss_end__+0xe77f2c>
     2cc:	19270b3b 	stmdbne	r7!, {r0, r1, r3, r4, r5, r8, r9, fp}
     2d0:	01111349 	tsteq	r1, r9, asr #6
     2d4:	18400612 	stmdane	r0, {r1, r4, r9, sl}^
     2d8:	01194297 			; <UNDEFINED> instruction: 0x01194297
     2dc:	1c000013 	stcne	0, cr0, [r0], {19}
     2e0:	0e030034 	mcreq	0, 0, r0, cr3, cr4, {1}
     2e4:	0b3b0b3a 	bleq	ec2fd4 <__bss_end__+0xeb7424>
     2e8:	18021349 	stmdane	r2, {r0, r3, r6, r8, r9, ip}
     2ec:	341d0000 	ldrcc	r0, [sp], #-0
     2f0:	3a0e0300 	bcc	380ef8 <__bss_end__+0x375348>
     2f4:	490b3b0b 	stmdbmi	fp, {r0, r1, r3, r8, r9, fp, ip, sp}
     2f8:	00170213 	andseq	r0, r7, r3, lsl r2
     2fc:	00341e00 	eorseq	r1, r4, r0, lsl #28
     300:	0b3a0803 	bleq	e82314 <__bss_end__+0xe76764>
     304:	13490b3b 	movtne	r0, #39739	; 0x9b3b
     308:	00001702 	andeq	r1, r0, r2, lsl #14
     30c:	55010b1f 	strpl	r0, [r1, #-2847]	; 0xb1f
     310:	20000017 	andcs	r0, r0, r7, lsl r0
     314:	0e030034 	mcreq	0, 0, r0, cr3, cr4, {1}
     318:	0b3b0b3a 	bleq	ec3008 <__bss_end__+0xeb7458>
     31c:	00001349 	andeq	r1, r0, r9, asr #6
     320:	03012e21 	movweq	r2, #7713	; 0x1e21
     324:	3b0b3a0e 	blcc	2ceb64 <__bss_end__+0x2c2fb4>
     328:	1119270b 	tstne	r9, fp, lsl #14
     32c:	40061201 	andmi	r1, r6, r1, lsl #4
     330:	19429718 	stmdbne	r2, {r3, r4, r8, r9, sl, ip, pc}^
     334:	00001301 	andeq	r1, r0, r1, lsl #6
     338:	31011d22 	tstcc	r1, r2, lsr #26
     33c:	12011113 	andne	r1, r1, #-1073741820	; 0xc0000004
     340:	590b5806 	stmdbpl	fp, {r1, r2, fp, ip, lr}
     344:	0013010b 	andseq	r0, r3, fp, lsl #2
     348:	00052300 	andeq	r2, r5, r0, lsl #6
     34c:	17021331 	smladxne	r2, r1, r3, r1
     350:	2e240000 	cdpcs	0, 2, cr0, cr4, cr0, {0}
     354:	03193f01 	tsteq	r9, #1, 30
     358:	3b0b3a0e 	blcc	2ceb98 <__bss_end__+0x2c2fe8>
     35c:	4919270b 	ldmdbmi	r9, {r0, r1, r3, r8, r9, sl, sp}
     360:	12011113 	andne	r1, r1, #-1073741820	; 0xc0000004
     364:	97184006 	ldrls	r4, [r8, -r6]
     368:	13011942 	movwne	r1, #6466	; 0x1942
     36c:	0b250000 	bleq	940374 <__bss_end__+0x9347c4>
     370:	12011101 	andne	r1, r1, #1073741824	; 0x40000000
     374:	00130106 	andseq	r0, r3, r6, lsl #2
     378:	002e2600 	eoreq	r2, lr, r0, lsl #12
     37c:	0e03193f 	mcreq	9, 0, r1, cr3, cr15, {1}
     380:	0b3b0b3a 	bleq	ec3070 <__bss_end__+0xeb74c0>
     384:	13491927 	movtne	r1, #39207	; 0x9927
     388:	06120111 			; <UNDEFINED> instruction: 0x06120111
     38c:	42971840 	addsmi	r1, r7, #64, 16	; 0x400000
     390:	27000019 	smladcs	r0, r9, r0, r0
     394:	193f002e 	ldmdbne	pc!, {r1, r2, r3, r5}	; <UNPREDICTABLE>
     398:	0b3a0e03 	bleq	e83bac <__bss_end__+0xe77ffc>
     39c:	19270b3b 	stmdbne	r7!, {r0, r1, r3, r4, r5, r8, r9, fp}
     3a0:	0000193c 	andeq	r1, r0, ip, lsr r9
     3a4:	3f012e28 	svccc	0x00012e28
     3a8:	3a0e0319 	bcc	381014 <__bss_end__+0x375464>
     3ac:	270b3b0b 	strcs	r3, [fp, -fp, lsl #22]
     3b0:	3c134919 	ldccc	9, cr4, [r3], {25}
     3b4:	00130119 	andseq	r0, r3, r9, lsl r1
     3b8:	00052900 	andeq	r2, r5, r0, lsl #18
     3bc:	00001349 	andeq	r1, r0, r9, asr #6
     3c0:	0000182a 	andeq	r1, r0, sl, lsr #16
     3c4:	00262b00 	eoreq	r2, r6, r0, lsl #22
     3c8:	01000000 	mrseq	r0, (UNDEF: 0)
     3cc:	0e250111 	mcreq	1, 1, r0, cr5, cr1, {0}
     3d0:	0e030b13 	vmoveq.32	d3[0], r0
     3d4:	01110e1b 	tsteq	r1, fp, lsl lr
     3d8:	17100612 			; <UNDEFINED> instruction: 0x17100612
     3dc:	24020000 	strcs	r0, [r2], #-0
     3e0:	3e0b0b00 	vmlacc.f64	d0, d11, d0
     3e4:	0008030b 	andeq	r0, r8, fp, lsl #6
     3e8:	00240300 	eoreq	r0, r4, r0, lsl #6
     3ec:	0b3e0b0b 	bleq	f83020 <__bss_end__+0xf77470>
     3f0:	00000e03 	andeq	r0, r0, r3, lsl #28
     3f4:	03001604 	movweq	r1, #1540	; 0x604
     3f8:	3b0b3a0e 	blcc	2cec38 <__bss_end__+0x2c3088>
     3fc:	0013490b 	andseq	r4, r3, fp, lsl #18
     400:	000f0500 	andeq	r0, pc, r0, lsl #10
     404:	00000b0b 	andeq	r0, r0, fp, lsl #22
     408:	0b000f06 	bleq	4028 <__code_start__-0x3fd8>
     40c:	0013490b 	andseq	r4, r3, fp, lsl #18
     410:	00260700 	eoreq	r0, r6, r0, lsl #14
     414:	00001349 	andeq	r1, r0, r9, asr #6
     418:	0b010408 	bleq	41440 <__bss_end__+0x35890>
     41c:	3b0b3a0b 	blcc	2cec50 <__bss_end__+0x2c30a0>
     420:	0013010b 	andseq	r0, r3, fp, lsl #2
     424:	00280900 	eoreq	r0, r8, r0, lsl #18
     428:	0d1c0e03 	ldceq	14, cr0, [ip, #-12]
     42c:	130a0000 	movwne	r0, #40960	; 0xa000
     430:	3a0b0b01 	bcc	2c303c <__bss_end__+0x2b748c>
     434:	010b3b0b 	tsteq	fp, fp, lsl #22
     438:	0b000013 	bleq	48c <__code_start__-0x7b74>
     43c:	0e03000d 	cdpeq	0, 0, cr0, cr3, cr13, {0}
     440:	0b3b0b3a 	bleq	ec3130 <__bss_end__+0xeb7580>
     444:	0b381349 	bleq	e05170 <__bss_end__+0xdf95c0>
     448:	130c0000 	movwne	r0, #49152	; 0xc000
     44c:	0b0e0301 	bleq	381058 <__bss_end__+0x3754a8>
     450:	3b0b3a0b 	blcc	2cec84 <__bss_end__+0x2c30d4>
     454:	0013010b 	andseq	r0, r3, fp, lsl #2
     458:	012e0d00 	teqeq	lr, r0, lsl #26
     45c:	0b3a0e03 	bleq	e83c70 <__bss_end__+0xe780c0>
     460:	19270b3b 	stmdbne	r7!, {r0, r1, r3, r4, r5, r8, r9, fp}
     464:	0b201349 	bleq	805190 <__bss_end__+0x7f95e0>
     468:	00001301 	andeq	r1, r0, r1, lsl #6
     46c:	0300050e 	movweq	r0, #1294	; 0x50e
     470:	3b0b3a08 	blcc	2cec98 <__bss_end__+0x2c30e8>
     474:	0013490b 	andseq	r4, r3, fp, lsl #18
     478:	012e0f00 	teqeq	lr, r0, lsl #30
     47c:	0b3a0e03 	bleq	e83c90 <__bss_end__+0xe780e0>
     480:	19270b3b 	stmdbne	r7!, {r0, r1, r3, r4, r5, r8, r9, fp}
     484:	01111349 	tsteq	r1, r9, asr #6
     488:	18400612 	stmdane	r0, {r1, r4, r9, sl}^
     48c:	01194297 			; <UNDEFINED> instruction: 0x01194297
     490:	10000013 	andne	r0, r0, r3, lsl r0
     494:	08030005 	stmdaeq	r3, {r0, r2}
     498:	0b3b0b3a 	bleq	ec3188 <__bss_end__+0xeb75d8>
     49c:	17021349 	strne	r1, [r2, -r9, asr #6]
     4a0:	05110000 	ldreq	r0, [r1, #-0]
     4a4:	3a0e0300 	bcc	3810ac <__bss_end__+0x3754fc>
     4a8:	490b3b0b 	stmdbmi	fp, {r0, r1, r3, r8, r9, fp, ip, sp}
     4ac:	00170213 	andseq	r0, r7, r3, lsl r2
     4b0:	00341200 	eorseq	r1, r4, r0, lsl #4
     4b4:	0b3a0803 	bleq	e824c8 <__bss_end__+0xe76918>
     4b8:	13490b3b 	movtne	r0, #39739	; 0x9b3b
     4bc:	00001702 	andeq	r1, r0, r2, lsl #14
     4c0:	03003413 	movweq	r3, #1043	; 0x413
     4c4:	3b0b3a0e 	blcc	2ced04 <__bss_end__+0x2c3154>
     4c8:	0213490b 	andseq	r4, r3, #180224	; 0x2c000
     4cc:	14000017 	strne	r0, [r0], #-23
     4d0:	01018289 	smlabbeq	r1, r9, r2, r8
     4d4:	13310111 	teqne	r1, #1073741828	; 0x40000004
     4d8:	00001301 	andeq	r1, r0, r1, lsl #6
     4dc:	01828a15 	orreq	r8, r2, r5, lsl sl
     4e0:	91180200 	tstls	r8, r0, lsl #4
     4e4:	00001842 	andeq	r1, r0, r2, asr #16
     4e8:	01828916 	orreq	r8, r2, r6, lsl r9
     4ec:	31011100 	mrscc	r1, (UNDEF: 17)
     4f0:	17000013 	smladne	r0, r3, r0, r0
     4f4:	0e03012e 	adfeqsp	f0, f3, #0.5
     4f8:	0b3b0b3a 	bleq	ec31e8 <__bss_end__+0xeb7638>
     4fc:	01111927 	tsteq	r1, r7, lsr #18
     500:	18400612 	stmdane	r0, {r1, r4, r9, sl}^
     504:	01194297 			; <UNDEFINED> instruction: 0x01194297
     508:	18000013 	stmdane	r0, {r0, r1, r4}
     50c:	0e030034 	mcreq	0, 0, r0, cr3, cr4, {1}
     510:	19341349 	ldmdbne	r4!, {r0, r3, r6, r8, r9, ip}
     514:	00001802 	andeq	r1, r0, r2, lsl #16
     518:	03003419 	movweq	r3, #1049	; 0x419
     51c:	3b0b3a08 	blcc	2ced44 <__bss_end__+0x2c3194>
     520:	0013490b 	andseq	r4, r3, fp, lsl #18
     524:	01011a00 	tsteq	r1, r0, lsl #20
     528:	13011349 	movwne	r1, #4937	; 0x1349
     52c:	211b0000 	tstcs	fp, r0
     530:	2f134900 	svccs	0x00134900
     534:	1c00000b 	stcne	0, cr0, [r0], {11}
     538:	01018289 	smlabbeq	r1, r9, r2, r8
     53c:	13310111 	teqne	r1, #1073741828	; 0x40000004
     540:	341d0000 	ldrcc	r0, [sp], #-0
     544:	3a080300 	bcc	20114c <__bss_end__+0x1f559c>
     548:	490b3b0b 	stmdbmi	fp, {r0, r1, r3, r8, r9, fp, ip, sp}
     54c:	00180213 	andseq	r0, r8, r3, lsl r2
     550:	00341e00 	eorseq	r1, r4, r0, lsl #28
     554:	0b3a0e03 	bleq	e83d68 <__bss_end__+0xe781b8>
     558:	13490b3b 	movtne	r0, #39739	; 0x9b3b
     55c:	00001802 	andeq	r1, r0, r2, lsl #16
     560:	0300341f 	movweq	r3, #1055	; 0x41f
     564:	3b0b3a0e 	blcc	2ceda4 <__bss_end__+0x2c31f4>
     568:	1c13490b 	ldcne	9, cr4, [r3], {11}
     56c:	20000006 	andcs	r0, r0, r6
     570:	0e030034 	mcreq	0, 0, r0, cr3, cr4, {1}
     574:	0b3b0b3a 	bleq	ec3264 <__bss_end__+0xeb76b4>
     578:	193f1349 	ldmdbne	pc!, {r0, r3, r6, r8, r9, ip}	; <UNPREDICTABLE>
     57c:	0000193c 	andeq	r1, r0, ip, lsr r9
     580:	11010b21 	tstne	r1, r1, lsr #22
     584:	01061201 	tsteq	r6, r1, lsl #4
     588:	22000013 	andcs	r0, r0, #19
     58c:	1755010b 	ldrbne	r0, [r5, -fp, lsl #2]
     590:	00001301 	andeq	r1, r0, r1, lsl #6
     594:	3f012e23 	svccc	0x00012e23
     598:	3a0e0319 	bcc	381204 <__bss_end__+0x375654>
     59c:	270b3b0b 	strcs	r3, [fp, -fp, lsl #22]
     5a0:	11134919 	tstne	r3, r9, lsl r9
     5a4:	40061201 	andmi	r1, r6, r1, lsl #4
     5a8:	19429718 	stmdbne	r2, {r3, r4, r8, r9, sl, ip, pc}^
     5ac:	00001301 	andeq	r1, r0, r1, lsl #6
     5b0:	3f012e24 	svccc	0x00012e24
     5b4:	3a0e0319 	bcc	381220 <__bss_end__+0x375670>
     5b8:	27053b0b 	strcs	r3, [r5, -fp, lsl #22]
     5bc:	12011119 	andne	r1, r1, #1073741830	; 0x40000006
     5c0:	97184006 	ldrls	r4, [r8, -r6]
     5c4:	13011942 	movwne	r1, #6466	; 0x1942
     5c8:	2e250000 	cdpcs	0, 2, cr0, cr5, cr0, {0}
     5cc:	03193f01 	tsteq	r9, #1, 30
     5d0:	3b0b3a0e 	blcc	2cee10 <__bss_end__+0x2c3260>
     5d4:	49192705 	ldmdbmi	r9, {r0, r2, r8, r9, sl, sp}
     5d8:	12011113 	andne	r1, r1, #-1073741820	; 0xc0000004
     5dc:	97184006 	ldrls	r4, [r8, -r6]
     5e0:	13011942 	movwne	r1, #6466	; 0x1942
     5e4:	34260000 	strtcc	r0, [r6], #-0
     5e8:	3a0e0300 	bcc	3811f0 <__bss_end__+0x375640>
     5ec:	49053b0b 	stmdbmi	r5, {r0, r1, r3, r8, r9, fp, ip, sp}
     5f0:	00170213 	andseq	r0, r7, r3, lsl r2
     5f4:	012e2700 	teqeq	lr, r0, lsl #14
     5f8:	0b3a0e03 	bleq	e83e0c <__bss_end__+0xe7825c>
     5fc:	1927053b 	stmdbne	r7!, {r0, r1, r3, r4, r5, r8, sl}
     600:	01111349 	tsteq	r1, r9, asr #6
     604:	18400612 	stmdane	r0, {r1, r4, r9, sl}^
     608:	01194297 			; <UNDEFINED> instruction: 0x01194297
     60c:	28000013 	stmdacs	r0, {r0, r1, r4}
     610:	0e030034 	mcreq	0, 0, r0, cr3, cr4, {1}
     614:	053b0b3a 	ldreq	r0, [fp, #-2874]!	; 0xb3a
     618:	18021349 	stmdane	r2, {r0, r3, r6, r8, r9, ip}
     61c:	34290000 	strtcc	r0, [r9], #-0
     620:	3a080300 	bcc	201228 <__bss_end__+0x1f5678>
     624:	49053b0b 	stmdbmi	r5, {r0, r1, r3, r8, r9, fp, ip, sp}
     628:	00180213 	andseq	r0, r8, r3, lsl r2
     62c:	002e2a00 	eoreq	r2, lr, r0, lsl #20
     630:	0e03193f 	mcreq	9, 0, r1, cr3, cr15, {1}
     634:	0b3b0b3a 	bleq	ec3324 <__bss_end__+0xeb7774>
     638:	13491927 	movtne	r1, #39207	; 0x9927
     63c:	0000193c 	andeq	r1, r0, ip, lsr r9
     640:	3f012e2b 	svccc	0x00012e2b
     644:	3a0e0319 	bcc	3812b0 <__bss_end__+0x375700>
     648:	270b3b0b 	strcs	r3, [fp, -fp, lsl #22]
     64c:	3c134919 	ldccc	9, cr4, [r3], {25}
     650:	00130119 	andseq	r0, r3, r9, lsl r1
     654:	00052c00 	andeq	r2, r5, r0, lsl #24
     658:	00001349 	andeq	r1, r0, r9, asr #6
     65c:	3f002e2d 	svccc	0x00002e2d
     660:	3a0e0319 	bcc	3812cc <__bss_end__+0x37571c>
     664:	270b3b0b 	strcs	r3, [fp, -fp, lsl #22]
     668:	00193c19 	andseq	r3, r9, r9, lsl ip
     66c:	00182e00 	andseq	r2, r8, r0, lsl #28
     670:	2e2f0000 	cdpcs	0, 2, cr0, cr15, cr0, {0}
     674:	03193f01 	tsteq	r9, #1, 30
     678:	3b0b3a0e 	blcc	2ceeb8 <__bss_end__+0x2c3308>
     67c:	3c19270b 	ldccc	7, cr2, [r9], {11}
     680:	00130119 	andseq	r0, r3, r9, lsl r1
     684:	012e3000 	teqeq	lr, r0
     688:	0e03193f 	mcreq	9, 0, r1, cr3, cr15, {1}
     68c:	0b3b0b3a 	bleq	ec337c <__bss_end__+0xeb77cc>
     690:	193c1927 	ldmdbne	ip!, {r0, r1, r2, r5, r8, fp, ip}
     694:	01000000 	mrseq	r0, (UNDEF: 0)
     698:	0e250111 	mcreq	1, 1, r0, cr5, cr1, {0}
     69c:	0e030b13 	vmoveq.32	d3[0], r0
     6a0:	01110e1b 	tsteq	r1, fp, lsl lr
     6a4:	17100612 			; <UNDEFINED> instruction: 0x17100612
     6a8:	24020000 	strcs	r0, [r2], #-0
     6ac:	3e0b0b00 	vmlacc.f64	d0, d11, d0
     6b0:	0008030b 	andeq	r0, r8, fp, lsl #6
     6b4:	00240300 	eoreq	r0, r4, r0, lsl #6
     6b8:	0b3e0b0b 	bleq	f832ec <__bss_end__+0xf7773c>
     6bc:	00000e03 	andeq	r0, r0, r3, lsl #28
     6c0:	03001604 	movweq	r1, #1540	; 0x604
     6c4:	3b0b3a0e 	blcc	2cef04 <__bss_end__+0x2c3354>
     6c8:	0013490b 	andseq	r4, r3, fp, lsl #18
     6cc:	000f0500 	andeq	r0, pc, r0, lsl #10
     6d0:	00000b0b 	andeq	r0, r0, fp, lsl #22
     6d4:	0b000f06 	bleq	42f4 <__code_start__-0x3d0c>
     6d8:	0013490b 	andseq	r4, r3, fp, lsl #18
     6dc:	00260700 	eoreq	r0, r6, r0, lsl #14
     6e0:	00001349 	andeq	r1, r0, r9, asr #6
     6e4:	49010108 	stmdbmi	r1, {r3, r8}
     6e8:	00130113 	andseq	r0, r3, r3, lsl r1
     6ec:	00210900 	eoreq	r0, r1, r0, lsl #18
     6f0:	0b2f1349 	bleq	bc541c <__bss_end__+0xbb986c>
     6f4:	040a0000 	streq	r0, [sl], #-0
     6f8:	3a0b0b01 	bcc	2c3304 <__bss_end__+0x2b7754>
     6fc:	010b3b0b 	tsteq	fp, fp, lsl #22
     700:	0b000013 	bleq	754 <__code_start__-0x78ac>
     704:	0e030028 	cdpeq	0, 0, cr0, cr3, cr8, {1}
     708:	00000d1c 	andeq	r0, r0, ip, lsl sp
     70c:	03012e0c 	movweq	r2, #7692	; 0x1e0c
     710:	3b0b3a0e 	blcc	2cef50 <__bss_end__+0x2c33a0>
     714:	4919270b 	ldmdbmi	r9, {r0, r1, r3, r8, r9, sl, sp}
     718:	010b2013 	tsteq	fp, r3, lsl r0
     71c:	0d000013 	stceq	0, cr0, [r0, #-76]	; 0xffffffb4
     720:	08030005 	stmdaeq	r3, {r0, r2}
     724:	0b3b0b3a 	bleq	ec3414 <__bss_end__+0xeb7864>
     728:	00001349 	andeq	r1, r0, r9, asr #6
     72c:	0300050e 	movweq	r0, #1294	; 0x50e
     730:	3b0b3a0e 	blcc	2cef70 <__bss_end__+0x2c33c0>
     734:	0013490b 	andseq	r4, r3, fp, lsl #18
     738:	00340f00 	eorseq	r0, r4, r0, lsl #30
     73c:	0b3a0e03 	bleq	e83f50 <__bss_end__+0xe783a0>
     740:	13490b3b 	movtne	r0, #39739	; 0x9b3b
     744:	34100000 	ldrcc	r0, [r0], #-0
     748:	3a080300 	bcc	201350 <__bss_end__+0x1f57a0>
     74c:	490b3b0b 	stmdbmi	fp, {r0, r1, r3, r8, r9, fp, ip, sp}
     750:	11000013 	tstne	r0, r3, lsl r0
     754:	193f012e 	ldmdbne	pc!, {r1, r2, r3, r5, r8}	; <UNPREDICTABLE>
     758:	0b3a0e03 	bleq	e83f6c <__bss_end__+0xe783bc>
     75c:	19270b3b 	stmdbne	r7!, {r0, r1, r3, r4, r5, r8, r9, fp}
     760:	06120111 			; <UNDEFINED> instruction: 0x06120111
     764:	42971840 	addsmi	r1, r7, #64, 16	; 0x400000
     768:	00130119 	andseq	r0, r3, r9, lsl r1
     76c:	00051200 	andeq	r1, r5, r0, lsl #4
     770:	0b3a0803 	bleq	e82784 <__bss_end__+0xe76bd4>
     774:	13490b3b 	movtne	r0, #39739	; 0x9b3b
     778:	00001702 	andeq	r1, r0, r2, lsl #14
     77c:	31011d13 	tstcc	r1, r3, lsl sp
     780:	12011113 	andne	r1, r1, #-1073741820	; 0xc0000004
     784:	590b5806 	stmdbpl	fp, {r1, r2, fp, ip, lr}
     788:	0013010b 	andseq	r0, r3, fp, lsl #2
     78c:	00051400 	andeq	r1, r5, r0, lsl #8
     790:	17021331 	smladxne	r2, r1, r3, r1
     794:	05150000 	ldreq	r0, [r5, #-0]
     798:	02133100 	andseq	r3, r3, #0, 2
     79c:	16000018 			; <UNDEFINED> instruction: 0x16000018
     7a0:	13310005 	teqne	r1, #5
     7a4:	00000b1c 	andeq	r0, r0, ip, lsl fp
     7a8:	11010b17 	tstne	r1, r7, lsl fp
     7ac:	00061201 	andeq	r1, r6, r1, lsl #4
     7b0:	00341800 	eorseq	r1, r4, r0, lsl #16
     7b4:	0b1c1331 	bleq	705480 <__bss_end__+0x6f98d0>
     7b8:	34190000 	ldrcc	r0, [r9], #-0
     7bc:	02133100 	andseq	r3, r3, #0, 2
     7c0:	1a000017 	bne	824 <__code_start__-0x77dc>
     7c4:	13310034 	teqne	r1, #52	; 0x34
     7c8:	00001802 	andeq	r1, r0, r2, lsl #16
     7cc:	0182891b 	orreq	r8, r2, fp, lsl r9
     7d0:	31011100 	mrscc	r1, (UNDEF: 17)
     7d4:	1c000013 	stcne	0, cr0, [r0], {19}
     7d8:	193f002e 	ldmdbne	pc!, {r1, r2, r3, r5}	; <UNPREDICTABLE>
     7dc:	0b3a0e03 	bleq	e83ff0 <__bss_end__+0xe78440>
     7e0:	19270b3b 	stmdbne	r7!, {r0, r1, r3, r4, r5, r8, r9, fp}
     7e4:	06120111 			; <UNDEFINED> instruction: 0x06120111
     7e8:	42971840 	addsmi	r1, r7, #64, 16	; 0x400000
     7ec:	1d000019 	stcne	0, cr0, [r0, #-100]	; 0xffffff9c
     7f0:	0e03012e 	adfeqsp	f0, f3, #0.5
     7f4:	0b3b0b3a 	bleq	ec34e4 <__bss_end__+0xeb7934>
     7f8:	13491927 	movtne	r1, #39207	; 0x9927
     7fc:	06120111 			; <UNDEFINED> instruction: 0x06120111
     800:	42971840 	addsmi	r1, r7, #64, 16	; 0x400000
     804:	00130119 	andseq	r0, r3, r9, lsl r1
     808:	00051e00 	andeq	r1, r5, r0, lsl #28
     80c:	0b3a0e03 	bleq	e84020 <__bss_end__+0xe78470>
     810:	13490b3b 	movtne	r0, #39739	; 0x9b3b
     814:	00001702 	andeq	r1, r0, r2, lsl #14
     818:	0300341f 	movweq	r3, #1055	; 0x41f
     81c:	3413490e 	ldrcc	r4, [r3], #-2318	; 0x90e
     820:	00180219 	andseq	r0, r8, r9, lsl r2
     824:	82892000 	addhi	r2, r9, #0
     828:	01110101 	tsteq	r1, r1, lsl #2
     82c:	13011331 	movwne	r1, #4913	; 0x1331
     830:	8a210000 	bhi	840838 <__bss_end__+0x834c88>
     834:	02000182 	andeq	r0, r0, #-2147483616	; 0x80000020
     838:	18429118 	stmdane	r2, {r3, r4, r8, ip, pc}^
     83c:	2e220000 	cdpcs	0, 2, cr0, cr2, cr0, {0}
     840:	03193f01 	tsteq	r9, #1, 30
     844:	3b0b3a0e 	blcc	2cf084 <__bss_end__+0x2c34d4>
     848:	4919270b 	ldmdbmi	r9, {r0, r1, r3, r8, r9, sl, sp}
     84c:	12011113 	andne	r1, r1, #-1073741820	; 0xc0000004
     850:	97184006 	ldrls	r4, [r8, -r6]
     854:	13011942 	movwne	r1, #6466	; 0x1942
     858:	89230000 	stmdbhi	r3!, {}	; <UNPREDICTABLE>
     85c:	11010182 	smlabbne	r1, r2, r1, r0
     860:	00133101 	andseq	r3, r3, r1, lsl #2
     864:	00342400 	eorseq	r2, r4, r0, lsl #8
     868:	0b3a0803 	bleq	e8287c <__bss_end__+0xe76ccc>
     86c:	13490b3b 	movtne	r0, #39739	; 0x9b3b
     870:	00001702 	andeq	r1, r0, r2, lsl #14
     874:	03003425 	movweq	r3, #1061	; 0x425
     878:	3b0b3a08 	blcc	2cf0a0 <__bss_end__+0x2c34f0>
     87c:	0213490b 	andseq	r4, r3, #180224	; 0x2c000
     880:	26000018 			; <UNDEFINED> instruction: 0x26000018
     884:	1755010b 	ldrbne	r0, [r5, -fp, lsl #2]
     888:	0b270000 	bleq	9c0890 <__bss_end__+0x9b4ce0>
     88c:	12011101 	andne	r1, r1, #1073741824	; 0x40000000
     890:	00130106 	andseq	r0, r3, r6, lsl #2
     894:	00342800 	eorseq	r2, r4, r0, lsl #16
     898:	0b3a0e03 	bleq	e840ac <__bss_end__+0xe784fc>
     89c:	13490b3b 	movtne	r0, #39739	; 0x9b3b
     8a0:	00001702 	andeq	r1, r0, r2, lsl #14
     8a4:	03003429 	movweq	r3, #1065	; 0x429
     8a8:	3b0b3a0e 	blcc	2cf0e8 <__bss_end__+0x2c3538>
     8ac:	02134905 	andseq	r4, r3, #81920	; 0x14000
     8b0:	2a000018 	bcs	918 <__code_start__-0x76e8>
     8b4:	08030034 	stmdaeq	r3, {r2, r4, r5}
     8b8:	053b0b3a 	ldreq	r0, [fp, #-2874]!	; 0xb3a
     8bc:	18021349 	stmdane	r2, {r0, r3, r6, r8, r9, ip}
     8c0:	342b0000 	strtcc	r0, [fp], #-0
     8c4:	3a0e0300 	bcc	3814cc <__bss_end__+0x37591c>
     8c8:	490b3b0b 	stmdbmi	fp, {r0, r1, r3, r8, r9, fp, ip, sp}
     8cc:	00180213 	andseq	r0, r8, r3, lsl r2
     8d0:	00352c00 	eorseq	r2, r5, r0, lsl #24
     8d4:	00001349 	andeq	r1, r0, r9, asr #6
     8d8:	0300342d 	movweq	r3, #1069	; 0x42d
     8dc:	3b0b3a0e 	blcc	2cf11c <__bss_end__+0x2c356c>
     8e0:	3f13490b 	svccc	0x0013490b
     8e4:	00193c19 	andseq	r3, r9, r9, lsl ip
     8e8:	00342e00 	eorseq	r2, r4, r0, lsl #28
     8ec:	0b3a0e03 	bleq	e84100 <__bss_end__+0xe78550>
     8f0:	13490b3b 	movtne	r0, #39739	; 0x9b3b
     8f4:	1802193f 	stmdane	r2, {r0, r1, r2, r3, r4, r5, r8, fp, ip}
     8f8:	2e2f0000 	cdpcs	0, 2, cr0, cr15, cr0, {0}
     8fc:	03193f00 	tsteq	r9, #0, 30
     900:	3b0b3a0e 	blcc	2cf140 <__bss_end__+0x2c3590>
     904:	4919270b 	ldmdbmi	r9, {r0, r1, r3, r8, r9, sl, sp}
     908:	00193c13 	andseq	r3, r9, r3, lsl ip
     90c:	002e3000 	eoreq	r3, lr, r0
     910:	0e03193f 	mcreq	9, 0, r1, cr3, cr15, {1}
     914:	0b3b0b3a 	bleq	ec3604 <__bss_end__+0xeb7a54>
     918:	193c1927 	ldmdbne	ip!, {r0, r1, r2, r5, r8, fp, ip}
     91c:	2e310000 	cdpcs	0, 3, cr0, cr1, cr0, {0}
     920:	03193f01 	tsteq	r9, #1, 30
     924:	3b0b3a0e 	blcc	2cf164 <__bss_end__+0x2c35b4>
     928:	4919270b 	ldmdbmi	r9, {r0, r1, r3, r8, r9, sl, sp}
     92c:	01193c13 	tsteq	r9, r3, lsl ip
     930:	32000013 	andcc	r0, r0, #19
     934:	13490005 	movtne	r0, #36869	; 0x9005
     938:	18330000 	ldmdane	r3!, {}	; <UNPREDICTABLE>
     93c:	34000000 	strcc	r0, [r0], #-0
     940:	193f012e 	ldmdbne	pc!, {r1, r2, r3, r5, r8}	; <UNPREDICTABLE>
     944:	0b3a0e03 	bleq	e84158 <__bss_end__+0xe785a8>
     948:	19270b3b 	stmdbne	r7!, {r0, r1, r3, r4, r5, r8, r9, fp}
     94c:	1301193c 	movwne	r1, #6460	; 0x193c
     950:	01000000 	mrseq	r0, (UNDEF: 0)
     954:	0e250111 	mcreq	1, 1, r0, cr5, cr1, {0}
     958:	0e030b13 	vmoveq.32	d3[0], r0
     95c:	01110e1b 	tsteq	r1, fp, lsl lr
     960:	17100612 			; <UNDEFINED> instruction: 0x17100612
     964:	24020000 	strcs	r0, [r2], #-0
     968:	3e0b0b00 	vmlacc.f64	d0, d11, d0
     96c:	0008030b 	andeq	r0, r8, fp, lsl #6
     970:	00240300 	eoreq	r0, r4, r0, lsl #6
     974:	0b3e0b0b 	bleq	f835a8 <__bss_end__+0xf779f8>
     978:	00000e03 	andeq	r0, r0, r3, lsl #28
     97c:	03001604 	movweq	r1, #1540	; 0x604
     980:	3b0b3a0e 	blcc	2cf1c0 <__bss_end__+0x2c3610>
     984:	0013490b 	andseq	r4, r3, fp, lsl #18
     988:	000f0500 	andeq	r0, pc, r0, lsl #10
     98c:	13490b0b 	movtne	r0, #39691	; 0x9b0b
     990:	26060000 	strcs	r0, [r6], -r0
     994:	00134900 	andseq	r4, r3, r0, lsl #18
     998:	012e0700 	teqeq	lr, r0, lsl #14
     99c:	0e03193f 	mcreq	9, 0, r1, cr3, cr15, {1}
     9a0:	0b3b0b3a 	bleq	ec3690 <__bss_end__+0xeb7ae0>
     9a4:	13491927 	movtne	r1, #39207	; 0x9927
     9a8:	06120111 			; <UNDEFINED> instruction: 0x06120111
     9ac:	42971840 	addsmi	r1, r7, #64, 16	; 0x400000
     9b0:	00130119 	andseq	r0, r3, r9, lsl r1
     9b4:	00050800 	andeq	r0, r5, r0, lsl #16
     9b8:	0b3a0e03 	bleq	e841cc <__bss_end__+0xe7861c>
     9bc:	13490b3b 	movtne	r0, #39739	; 0x9b3b
     9c0:	00001702 	andeq	r1, r0, r2, lsl #14
     9c4:	03000509 	movweq	r0, #1289	; 0x509
     9c8:	3b0b3a08 	blcc	2cf1f0 <__bss_end__+0x2c3640>
     9cc:	0213490b 	andseq	r4, r3, #180224	; 0x2c000
     9d0:	0a000017 	beq	a34 <__code_start__-0x75cc>
     9d4:	0e030034 	mcreq	0, 0, r0, cr3, cr4, {1}
     9d8:	0b3b0b3a 	bleq	ec36c8 <__bss_end__+0xeb7b18>
     9dc:	17021349 	strne	r1, [r2, -r9, asr #6]
     9e0:	340b0000 	strcc	r0, [fp], #-0
     9e4:	3a080300 	bcc	2015ec <__bss_end__+0x1f5a3c>
     9e8:	490b3b0b 	stmdbmi	fp, {r0, r1, r3, r8, r9, fp, ip, sp}
     9ec:	00170213 	andseq	r0, r7, r3, lsl r2
     9f0:	00260c00 	eoreq	r0, r6, r0, lsl #24
     9f4:	01000000 	mrseq	r0, (UNDEF: 0)
     9f8:	0e250111 	mcreq	1, 1, r0, cr5, cr1, {0}
     9fc:	0e030b13 	vmoveq.32	d3[0], r0
     a00:	01110e1b 	tsteq	r1, fp, lsl lr
     a04:	17100612 			; <UNDEFINED> instruction: 0x17100612
     a08:	24020000 	strcs	r0, [r2], #-0
     a0c:	3e0b0b00 	vmlacc.f64	d0, d11, d0
     a10:	000e030b 	andeq	r0, lr, fp, lsl #6
     a14:	00240300 	eoreq	r0, r4, r0, lsl #6
     a18:	0b3e0b0b 	bleq	f8364c <__bss_end__+0xf77a9c>
     a1c:	00000803 	andeq	r0, r0, r3, lsl #16
     a20:	0b000f04 	bleq	4638 <__code_start__-0x39c8>
     a24:	0500000b 	streq	r0, [r0, #-11]
     a28:	0b0b000f 	bleq	2c0a6c <__bss_end__+0x2b4ebc>
     a2c:	00001349 	andeq	r1, r0, r9, asr #6
     a30:	03001606 	movweq	r1, #1542	; 0x606
     a34:	3b0b3a0e 	blcc	2cf274 <__bss_end__+0x2c36c4>
     a38:	0013490b 	andseq	r4, r3, fp, lsl #18
     a3c:	012e0700 	teqeq	lr, r0, lsl #14
     a40:	0e03193f 	mcreq	9, 0, r1, cr3, cr15, {1}
     a44:	0b3b0b3a 	bleq	ec3734 <__bss_end__+0xeb7b84>
     a48:	13491927 	movtne	r1, #39207	; 0x9927
     a4c:	06120111 			; <UNDEFINED> instruction: 0x06120111
     a50:	42971840 	addsmi	r1, r7, #64, 16	; 0x400000
     a54:	08000019 	stmdaeq	r0, {r0, r3, r4}
     a58:	08030005 	stmdaeq	r3, {r0, r2}
     a5c:	0b3b0b3a 	bleq	ec374c <__bss_end__+0xeb7b9c>
     a60:	18021349 	stmdane	r2, {r0, r3, r6, r8, r9, ip}
     a64:	05090000 	streq	r0, [r9, #-0]
     a68:	3a080300 	bcc	201670 <__bss_end__+0x1f5ac0>
     a6c:	490b3b0b 	stmdbmi	fp, {r0, r1, r3, r8, r9, fp, ip, sp}
     a70:	00170213 	andseq	r0, r7, r3, lsl r2
     a74:	00340a00 	eorseq	r0, r4, r0, lsl #20
     a78:	0b3a0803 	bleq	e82a8c <__bss_end__+0xe76edc>
     a7c:	13490b3b 	movtne	r0, #39739	; 0x9b3b
     a80:	00001702 	andeq	r1, r0, r2, lsl #14
     a84:	0300340b 	movweq	r3, #1035	; 0x40b
     a88:	3b0b3a08 	blcc	2cf2b0 <__bss_end__+0x2c3700>
     a8c:	0213490b 	andseq	r4, r3, #180224	; 0x2c000
     a90:	00000018 	andeq	r0, r0, r8, lsl r0
     a94:	25011101 	strcs	r1, [r1, #-257]	; 0x101
     a98:	030b130e 	movweq	r1, #45838	; 0xb30e
     a9c:	110e1b0e 	tstne	lr, lr, lsl #22
     aa0:	10061201 	andne	r1, r6, r1, lsl #4
     aa4:	02000017 	andeq	r0, r0, #23
     aa8:	0e030016 	mcreq	0, 0, r0, cr3, cr6, {0}
     aac:	0b3b0b3a 	bleq	ec379c <__bss_end__+0xeb7bec>
     ab0:	00001349 	andeq	r1, r0, r9, asr #6
     ab4:	03011303 	movweq	r1, #4867	; 0x1303
     ab8:	3a0b0b0e 	bcc	2c36f8 <__bss_end__+0x2b7b48>
     abc:	010b3b0b 	tsteq	fp, fp, lsl #22
     ac0:	04000013 	streq	r0, [r0], #-19
     ac4:	0e03000d 	cdpeq	0, 0, cr0, cr3, cr13, {0}
     ac8:	0b381349 	bleq	e057f4 <__bss_end__+0xdf9c44>
     acc:	00001934 	andeq	r1, r0, r4, lsr r9
     ad0:	0b000f05 	bleq	46ec <__code_start__-0x3914>
     ad4:	0600000b 	streq	r0, [r0], -fp
     ad8:	0b0b0024 	bleq	2c0b70 <__bss_end__+0x2b4fc0>
     adc:	08030b3e 	stmdaeq	r3, {r1, r2, r3, r4, r5, r8, r9, fp}
     ae0:	24070000 	strcs	r0, [r7], #-0
     ae4:	3e0b0b00 	vmlacc.f64	d0, d11, d0
     ae8:	000e030b 	andeq	r0, lr, fp, lsl #6
     aec:	000f0800 	andeq	r0, pc, r0, lsl #16
     af0:	13490b0b 	movtne	r0, #39691	; 0x9b0b
     af4:	26090000 	strcs	r0, [r9], -r0
     af8:	00134900 	andseq	r4, r3, r0, lsl #18
     afc:	012e0a00 	teqeq	lr, r0, lsl #20
     b00:	0e03193f 	mcreq	9, 0, r1, cr3, cr15, {1}
     b04:	0b3b0b3a 	bleq	ec37f4 <__bss_end__+0xeb7c44>
     b08:	13491927 	movtne	r1, #39207	; 0x9927
     b0c:	06120111 			; <UNDEFINED> instruction: 0x06120111
     b10:	42971840 	addsmi	r1, r7, #64, 16	; 0x400000
     b14:	00130119 	andseq	r0, r3, r9, lsl r1
     b18:	00050b00 	andeq	r0, r5, r0, lsl #22
     b1c:	0b3a0803 	bleq	e82b30 <__bss_end__+0xe76f80>
     b20:	13490b3b 	movtne	r0, #39739	; 0x9b3b
     b24:	00001802 	andeq	r1, r0, r2, lsl #16
     b28:	0000180c 	andeq	r1, r0, ip, lsl #16
     b2c:	00340d00 	eorseq	r0, r4, r0, lsl #26
     b30:	0b3a0803 	bleq	e82b44 <__bss_end__+0xe76f94>
     b34:	13490b3b 	movtne	r0, #39739	; 0x9b3b
     b38:	00001802 	andeq	r1, r0, r2, lsl #16
     b3c:	0300340e 	movweq	r3, #1038	; 0x40e
     b40:	3b0b3a0e 	blcc	2cf380 <__bss_end__+0x2c37d0>
     b44:	0213490b 	andseq	r4, r3, #180224	; 0x2c000
     b48:	0f000018 	svceq	0x00000018
     b4c:	08030034 	stmdaeq	r3, {r2, r4, r5}
     b50:	0b3b0b3a 	bleq	ec3840 <__bss_end__+0xeb7c90>
     b54:	17021349 	strne	r1, [r2, -r9, asr #6]
     b58:	89100000 	ldmdbhi	r0, {}	; <UNPREDICTABLE>
     b5c:	11010182 	smlabbne	r1, r2, r1, r0
     b60:	01133101 	tsteq	r3, r1, lsl #2
     b64:	11000013 	tstne	r0, r3, lsl r0
     b68:	0001828a 	andeq	r8, r1, sl, lsl #5
     b6c:	42911802 	addsmi	r1, r1, #131072	; 0x20000
     b70:	12000018 	andne	r0, r0, #24
     b74:	01018289 	smlabbeq	r1, r9, r2, r8
     b78:	00000111 	andeq	r0, r0, r1, lsl r1
     b7c:	49010113 	stmdbmi	r1, {r0, r1, r4, r8}
     b80:	00130113 	andseq	r0, r3, r3, lsl r1
     b84:	00211400 	eoreq	r1, r1, r0, lsl #8
     b88:	052f1349 	streq	r1, [pc, #-841]!	; 847 <__code_start__-0x77b9>
     b8c:	15150000 	ldrne	r0, [r5, #-0]
     b90:	49192701 	ldmdbmi	r9, {r0, r8, r9, sl, sp}
     b94:	00130113 	andseq	r0, r3, r3, lsl r1
     b98:	00051600 	andeq	r1, r5, r0, lsl #12
     b9c:	00001349 	andeq	r1, r0, r9, asr #6
     ba0:	03003417 	movweq	r3, #1047	; 0x417
     ba4:	3b0b3a0e 	blcc	2cf3e4 <__bss_end__+0x2c3834>
     ba8:	3f13490b 	svccc	0x0013490b
     bac:	00193c19 	andseq	r3, r9, r9, lsl ip
     bb0:	012e1800 	teqeq	lr, r0, lsl #16
     bb4:	0e03193f 	mcreq	9, 0, r1, cr3, cr15, {1}
     bb8:	0b3b0b3a 	bleq	ec38a8 <__bss_end__+0xeb7cf8>
     bbc:	13491927 	movtne	r1, #39207	; 0x9927
     bc0:	0000193c 	andeq	r1, r0, ip, lsr r9
     bc4:	01110100 	tsteq	r1, r0, lsl #2
     bc8:	0b130e25 	bleq	4c4464 <__bss_end__+0x4b88b4>
     bcc:	0e1b0e03 	cdpeq	14, 1, cr0, cr11, cr3, {0}
     bd0:	06120111 			; <UNDEFINED> instruction: 0x06120111
     bd4:	00001710 	andeq	r1, r0, r0, lsl r7
     bd8:	0b002402 	bleq	9be8 <rpi_set_output+0x34>
     bdc:	030b3e0b 	movweq	r3, #48651	; 0xbe0b
     be0:	03000008 	movweq	r0, #8
     be4:	0b0b0024 	bleq	2c0c7c <__bss_end__+0x2b50cc>
     be8:	0e030b3e 	vmoveq.16	d3[0], r0
     bec:	2e040000 	cdpcs	0, 0, cr0, cr4, cr0, {0}
     bf0:	3a0e0301 	bcc	3817fc <__bss_end__+0x375c4c>
     bf4:	270b3b0b 	strcs	r3, [fp, -fp, lsl #22]
     bf8:	11134919 	tstne	r3, r9, lsl r9
     bfc:	40061201 	andmi	r1, r6, r1, lsl #4
     c00:	19429718 	stmdbne	r2, {r3, r4, r8, r9, sl, ip, pc}^
     c04:	00001301 	andeq	r1, r0, r1, lsl #6
     c08:	03000505 	movweq	r0, #1285	; 0x505
     c0c:	3b0b3a08 	blcc	2cf434 <__bss_end__+0x2c3884>
     c10:	0213490b 	andseq	r4, r3, #180224	; 0x2c000
     c14:	06000017 			; <UNDEFINED> instruction: 0x06000017
     c18:	01018289 	smlabbeq	r1, r9, r2, r8
     c1c:	13310111 	teqne	r1, #1073741828	; 0x40000004
     c20:	8a070000 	bhi	1c0c28 <__bss_end__+0x1b5078>
     c24:	02000182 	andeq	r0, r0, #-2147483616	; 0x80000020
     c28:	18429118 	stmdane	r2, {r3, r4, r8, ip, pc}^
     c2c:	2e080000 	cdpcs	0, 0, cr0, cr8, cr0, {0}
     c30:	03193f00 	tsteq	r9, #0, 30
     c34:	3b0b3a0e 	blcc	2cf474 <__bss_end__+0x2c38c4>
     c38:	1119270b 	tstne	r9, fp, lsl #14
     c3c:	40061201 	andmi	r1, r6, r1, lsl #4
     c40:	19429718 	stmdbne	r2, {r3, r4, r8, r9, sl, ip, pc}^
     c44:	2e090000 	cdpcs	0, 0, cr0, cr9, cr0, {0}
     c48:	03193f01 	tsteq	r9, #1, 30
     c4c:	3b0b3a0e 	blcc	2cf48c <__bss_end__+0x2c38dc>
     c50:	1119270b 	tstne	r9, fp, lsl #14
     c54:	40061201 	andmi	r1, r6, r1, lsl #4
     c58:	19429718 	stmdbne	r2, {r3, r4, r8, r9, sl, ip, pc}^
     c5c:	00001301 	andeq	r1, r0, r1, lsl #6
     c60:	0300050a 	movweq	r0, #1290	; 0x50a
     c64:	3b0b3a08 	blcc	2cf48c <__bss_end__+0x2c38dc>
     c68:	0213490b 	andseq	r4, r3, #180224	; 0x2c000
     c6c:	0b000018 	bleq	cd4 <__code_start__-0x732c>
     c70:	19270115 	stmdbne	r7!, {r0, r2, r4, r8}
     c74:	13011349 	movwne	r1, #4937	; 0x1349
     c78:	050c0000 	streq	r0, [ip, #-0]
     c7c:	00134900 	andseq	r4, r3, r0, lsl #18
     c80:	000f0d00 	andeq	r0, pc, r0, lsl #26
     c84:	13490b0b 	movtne	r0, #39691	; 0x9b0b
     c88:	340e0000 	strcc	r0, [lr], #-0
     c8c:	3a0e0300 	bcc	381894 <__bss_end__+0x375ce4>
     c90:	490b3b0b 	stmdbmi	fp, {r0, r1, r3, r8, r9, fp, ip, sp}
     c94:	02193f13 	andseq	r3, r9, #19, 30	; 0x4c
     c98:	0f000018 	svceq	0x00000018
     c9c:	193f012e 	ldmdbne	pc!, {r1, r2, r3, r5, r8}	; <UNPREDICTABLE>
     ca0:	0b3a0e03 	bleq	e844b4 <__bss_end__+0xe78904>
     ca4:	19270b3b 	stmdbne	r7!, {r0, r1, r3, r4, r5, r8, r9, fp}
     ca8:	0000193c 	andeq	r1, r0, ip, lsr r9
     cac:	01110100 	tsteq	r1, r0, lsl #2
     cb0:	0b130e25 	bleq	4c454c <__bss_end__+0x4b899c>
     cb4:	0e1b0e03 	cdpeq	14, 1, cr0, cr11, cr3, {0}
     cb8:	06120111 			; <UNDEFINED> instruction: 0x06120111
     cbc:	00001710 	andeq	r1, r0, r0, lsl r7
     cc0:	0b002402 	bleq	9cd0 <va_printk+0xc8>
     cc4:	030b3e0b 	movweq	r3, #48651	; 0xbe0b
     cc8:	03000008 	movweq	r0, #8
     ccc:	0b0b0024 	bleq	2c0d64 <__bss_end__+0x2b51b4>
     cd0:	0e030b3e 	vmoveq.16	d3[0], r0
     cd4:	0f040000 	svceq	0x00040000
     cd8:	490b0b00 	stmdbmi	fp, {r8, r9, fp}
     cdc:	05000013 	streq	r0, [r0, #-19]
     ce0:	13490026 	movtne	r0, #36902	; 0x9026
     ce4:	2e060000 	cdpcs	0, 0, cr0, cr6, cr0, {0}
     ce8:	03193f01 	tsteq	r9, #1, 30
     cec:	3b0b3a0e 	blcc	2cf52c <__bss_end__+0x2c397c>
     cf0:	4919270b 	ldmdbmi	r9, {r0, r1, r3, r8, r9, sl, sp}
     cf4:	12011113 	andne	r1, r1, #-1073741820	; 0xc0000004
     cf8:	96184006 	ldrls	r4, [r8], -r6
     cfc:	13011942 	movwne	r1, #6466	; 0x1942
     d00:	05070000 	streq	r0, [r7, #-0]
     d04:	3a080300 	bcc	20190c <__bss_end__+0x1f5d5c>
     d08:	490b3b0b 	stmdbmi	fp, {r0, r1, r3, r8, r9, fp, ip, sp}
     d0c:	00170213 	andseq	r0, r7, r3, lsl r2
     d10:	01150800 	tsteq	r5, r0, lsl #16
     d14:	13491927 	movtne	r1, #39207	; 0x9927
     d18:	00001301 	andeq	r1, r0, r1, lsl #6
     d1c:	49000509 	stmdbmi	r0, {r0, r3, r8, sl}
     d20:	0a000013 	beq	d74 <__code_start__-0x728c>
     d24:	0e030034 	mcreq	0, 0, r0, cr3, cr4, {1}
     d28:	0b3b0b3a 	bleq	ec3a18 <__bss_end__+0xeb7e68>
     d2c:	193f1349 	ldmdbne	pc!, {r0, r3, r6, r8, r9, ip}	; <UNPREDICTABLE>
     d30:	0000193c 	andeq	r1, r0, ip, lsr r9
     d34:	0300340b 	movweq	r3, #1035	; 0x40b
     d38:	3b0b3a0e 	blcc	2cf578 <__bss_end__+0x2c39c8>
     d3c:	3f13490b 	svccc	0x0013490b
     d40:	00180219 	andseq	r0, r8, r9, lsl r2
     d44:	11010000 	mrsne	r0, (UNDEF: 1)
     d48:	130e2501 	movwne	r2, #58625	; 0xe501
     d4c:	1b0e030b 	blne	381980 <__bss_end__+0x375dd0>
     d50:	1201110e 	andne	r1, r1, #-2147483645	; 0x80000003
     d54:	00171006 	andseq	r1, r7, r6
     d58:	00240200 	eoreq	r0, r4, r0, lsl #4
     d5c:	0b3e0b0b 	bleq	f83990 <__bss_end__+0xf77de0>
     d60:	00000803 	andeq	r0, r0, r3, lsl #16
     d64:	0b002403 	bleq	9d78 <va_printk+0x170>
     d68:	030b3e0b 	movweq	r3, #48651	; 0xbe0b
     d6c:	0400000e 	streq	r0, [r0], #-14
     d70:	0b0b000f 	bleq	2c0db4 <__bss_end__+0x2b5204>
     d74:	0f050000 	svceq	0x00050000
     d78:	490b0b00 	stmdbmi	fp, {r8, r9, fp}
     d7c:	06000013 			; <UNDEFINED> instruction: 0x06000013
     d80:	13490026 	movtne	r0, #36902	; 0x9026
     d84:	16070000 	strne	r0, [r7], -r0
     d88:	3a0e0300 	bcc	381990 <__bss_end__+0x375de0>
     d8c:	490b3b0b 	stmdbmi	fp, {r0, r1, r3, r8, r9, fp, ip, sp}
     d90:	08000013 	stmdaeq	r0, {r0, r1, r4}
     d94:	0e030113 	mcreq	1, 0, r0, cr3, cr3, {0}
     d98:	0b3a0b0b 	bleq	e839cc <__bss_end__+0xe77e1c>
     d9c:	13010b3b 	movwne	r0, #6971	; 0x1b3b
     da0:	0d090000 	stceq	0, cr0, [r9, #-0]
     da4:	490e0300 	stmdbmi	lr, {r8, r9}
     da8:	340b3813 	strcc	r3, [fp], #-2067	; 0x813
     dac:	0a000019 	beq	e18 <__code_start__-0x71e8>
     db0:	0e03012e 	adfeqsp	f0, f3, #0.5
     db4:	0b3b0b3a 	bleq	ec3aa4 <__bss_end__+0xeb7ef4>
     db8:	13491927 	movtne	r1, #39207	; 0x9927
     dbc:	06120111 			; <UNDEFINED> instruction: 0x06120111
     dc0:	42971840 	addsmi	r1, r7, #64, 16	; 0x400000
     dc4:	00130119 	andseq	r0, r3, r9, lsl r1
     dc8:	00050b00 	andeq	r0, r5, r0, lsl #22
     dcc:	0b3a0803 	bleq	e82de0 <__bss_end__+0xe77230>
     dd0:	13490b3b 	movtne	r0, #39739	; 0x9b3b
     dd4:	00001702 	andeq	r1, r0, r2, lsl #14
     dd8:	03012e0c 	movweq	r2, #7692	; 0x1e0c
     ddc:	3b0b3a08 	blcc	2cf604 <__bss_end__+0x2c3a54>
     de0:	4919270b 	ldmdbmi	r9, {r0, r1, r3, r8, r9, sl, sp}
     de4:	12011113 	andne	r1, r1, #-1073741820	; 0xc0000004
     de8:	97184006 	ldrls	r4, [r8, -r6]
     dec:	13011942 	movwne	r1, #6466	; 0x1942
     df0:	050d0000 	streq	r0, [sp, #-0]
     df4:	3a0e0300 	bcc	3819fc <__bss_end__+0x375e4c>
     df8:	490b3b0b 	stmdbmi	fp, {r0, r1, r3, r8, r9, fp, ip, sp}
     dfc:	00170213 	andseq	r0, r7, r3, lsl r2
     e00:	00050e00 	andeq	r0, r5, r0, lsl #28
     e04:	0b3a0e03 	bleq	e84618 <__bss_end__+0xe78a68>
     e08:	13490b3b 	movtne	r0, #39739	; 0x9b3b
     e0c:	00001802 	andeq	r1, r0, r2, lsl #16
     e10:	0300340f 	movweq	r3, #1039	; 0x40f
     e14:	3b0b3a08 	blcc	2cf63c <__bss_end__+0x2c3a8c>
     e18:	0213490b 	andseq	r4, r3, #180224	; 0x2c000
     e1c:	10000018 	andne	r0, r0, r8, lsl r0
     e20:	08030034 	stmdaeq	r3, {r2, r4, r5}
     e24:	0b3b0b3a 	bleq	ec3b14 <__bss_end__+0xeb7f64>
     e28:	17021349 	strne	r1, [r2, -r9, asr #6]
     e2c:	34110000 	ldrcc	r0, [r1], #-0
     e30:	490e0300 	stmdbmi	lr, {r8, r9}
     e34:	02193413 	andseq	r3, r9, #318767104	; 0x13000000
     e38:	12000018 	andne	r0, r0, #24
     e3c:	0111010b 	tsteq	r1, fp, lsl #2
     e40:	13010612 	movwne	r0, #5650	; 0x1612
     e44:	34130000 	ldrcc	r0, [r3], #-0
     e48:	3a0e0300 	bcc	381a50 <__bss_end__+0x375ea0>
     e4c:	490b3b0b 	stmdbmi	fp, {r0, r1, r3, r8, r9, fp, ip, sp}
     e50:	00170213 	andseq	r0, r7, r3, lsl r2
     e54:	82891400 	addhi	r1, r9, #0, 8
     e58:	01110001 	tsteq	r1, r1
     e5c:	00001331 	andeq	r1, r0, r1, lsr r3
     e60:	01828915 	orreq	r8, r2, r5, lsl r9
     e64:	31011101 	tstcc	r1, r1, lsl #2
     e68:	00130113 	andseq	r0, r3, r3, lsl r1
     e6c:	828a1600 	addhi	r1, sl, #0, 12
     e70:	18020001 	stmdane	r2, {r0}
     e74:	00184291 	mulseq	r8, r1, r2
     e78:	82891700 	addhi	r1, r9, #0, 14
     e7c:	01110101 	tsteq	r1, r1, lsl #2
     e80:	00001331 	andeq	r1, r0, r1, lsr r3
     e84:	49010118 	stmdbmi	r1, {r3, r4, r8}
     e88:	00130113 	andseq	r0, r3, r3, lsl r1
     e8c:	00211900 	eoreq	r1, r1, r0, lsl #18
     e90:	0b2f1349 	bleq	bc5bbc <__bss_end__+0xbba00c>
     e94:	2e1a0000 	cdpcs	0, 1, cr0, cr10, cr0, {0}
     e98:	03193f01 	tsteq	r9, #1, 30
     e9c:	3b0b3a0e 	blcc	2cf6dc <__bss_end__+0x2c3b2c>
     ea0:	1119270b 	tstne	r9, fp, lsl #14
     ea4:	40061201 	andmi	r1, r6, r1, lsl #4
     ea8:	19429718 	stmdbne	r2, {r3, r4, r8, r9, sl, ip, pc}^
     eac:	00001301 	andeq	r1, r0, r1, lsl #6
     eb0:	2701151b 	smladcs	r1, fp, r5, r1
     eb4:	01134919 	tsteq	r3, r9, lsl r9
     eb8:	1c000013 	stcne	0, cr0, [r0], {19}
     ebc:	13490005 	movtne	r0, #36869	; 0x9005
     ec0:	2e1d0000 	cdpcs	0, 1, cr0, cr13, cr0, {0}
     ec4:	03193f01 	tsteq	r9, #1, 30
     ec8:	3b0b3a0e 	blcc	2cf708 <__bss_end__+0x2c3b58>
     ecc:	4919270b 	ldmdbmi	r9, {r0, r1, r3, r8, r9, sl, sp}
     ed0:	12011113 	andne	r1, r1, #-1073741820	; 0xc0000004
     ed4:	97184006 	ldrls	r4, [r8, -r6]
     ed8:	13011942 	movwne	r1, #6466	; 0x1942
     edc:	0b1e0000 	bleq	780ee4 <__bss_end__+0x775334>
     ee0:	00175501 	andseq	r5, r7, r1, lsl #10
     ee4:	00341f00 	eorseq	r1, r4, r0, lsl #30
     ee8:	0b3a0e03 	bleq	e846fc <__bss_end__+0xe78b4c>
     eec:	13490b3b 	movtne	r0, #39739	; 0x9b3b
     ef0:	193c193f 	ldmdbne	ip!, {r0, r1, r2, r3, r4, r5, r8, fp, ip}
     ef4:	2e200000 	cdpcs	0, 2, cr0, cr0, cr0, {0}
     ef8:	03193f00 	tsteq	r9, #0, 30
     efc:	3b0b3a0e 	blcc	2cf73c <__bss_end__+0x2c3b8c>
     f00:	3c19270b 	ldccc	7, cr2, [r9], {11}
     f04:	21000019 	tstcs	r0, r9, lsl r0
     f08:	193f012e 	ldmdbne	pc!, {r1, r2, r3, r5, r8}	; <UNPREDICTABLE>
     f0c:	0b3a0e03 	bleq	e84720 <__bss_end__+0xe78b70>
     f10:	19270b3b 	stmdbne	r7!, {r0, r1, r3, r4, r5, r8, r9, fp}
     f14:	193c1349 	ldmdbne	ip!, {r0, r3, r6, r8, r9, ip}
     f18:	00001301 	andeq	r1, r0, r1, lsl #6
     f1c:	00001822 	andeq	r1, r0, r2, lsr #16
     f20:	11010000 	mrsne	r0, (UNDEF: 1)
     f24:	130e2501 	movwne	r2, #58625	; 0xe501
     f28:	1b0e030b 	blne	381b5c <__bss_end__+0x375fac>
     f2c:	1201110e 	andne	r1, r1, #-2147483645	; 0x80000003
     f30:	00171006 	andseq	r1, r7, r6
     f34:	00240200 	eoreq	r0, r4, r0, lsl #4
     f38:	0b3e0b0b 	bleq	f83b6c <__bss_end__+0xf77fbc>
     f3c:	00000803 	andeq	r0, r0, r3, lsl #16
     f40:	0b002403 	bleq	9f54 <fast_interrupt_vector+0x24>
     f44:	030b3e0b 	movweq	r3, #48651	; 0xbe0b
     f48:	0400000e 	streq	r0, [r0], #-14
     f4c:	0b0b000f 	bleq	2c0f90 <__bss_end__+0x2b53e0>
     f50:	00001349 	andeq	r1, r0, r9, asr #6
     f54:	49002605 	stmdbmi	r0, {r0, r2, r9, sl, sp}
     f58:	06000013 			; <UNDEFINED> instruction: 0x06000013
     f5c:	193f012e 	ldmdbne	pc!, {r1, r2, r3, r5, r8}	; <UNPREDICTABLE>
     f60:	0b3a0e03 	bleq	e84774 <__bss_end__+0xe78bc4>
     f64:	19270b3b 	stmdbne	r7!, {r0, r1, r3, r4, r5, r8, r9, fp}
     f68:	06120111 			; <UNDEFINED> instruction: 0x06120111
     f6c:	42971840 	addsmi	r1, r7, #64, 16	; 0x400000
     f70:	00130119 	andseq	r0, r3, r9, lsl r1
     f74:	82890700 	addhi	r0, r9, #0, 14
     f78:	01110101 	tsteq	r1, r1, lsl #2
     f7c:	00001301 	andeq	r1, r0, r1, lsl #6
     f80:	01828a08 	orreq	r8, r2, r8, lsl #20
     f84:	91180200 	tstls	r8, r0, lsl #4
     f88:	00001842 	andeq	r1, r0, r2, asr #16
     f8c:	01828909 	orreq	r8, r2, r9, lsl #18
     f90:	31011101 	tstcc	r1, r1, lsl #2
     f94:	00130113 	andseq	r0, r3, r3, lsl r1
     f98:	82890a00 	addhi	r0, r9, #0, 20
     f9c:	01110001 	tsteq	r1, r1
     fa0:	00001331 	andeq	r1, r0, r1, lsr r3
     fa4:	2701150b 	strcs	r1, [r1, -fp, lsl #10]
     fa8:	01134919 	tsteq	r3, r9, lsl r9
     fac:	0c000013 	stceq	0, cr0, [r0], {19}
     fb0:	13490005 	movtne	r0, #36869	; 0x9005
     fb4:	340d0000 	strcc	r0, [sp], #-0
     fb8:	3a0e0300 	bcc	381bc0 <__bss_end__+0x376010>
     fbc:	490b3b0b 	stmdbmi	fp, {r0, r1, r3, r8, r9, fp, ip, sp}
     fc0:	3c193f13 	ldccc	15, cr3, [r9], {19}
     fc4:	0e000019 	mcreq	0, 0, r0, cr0, cr9, {0}
     fc8:	193f012e 	ldmdbne	pc!, {r1, r2, r3, r5, r8}	; <UNPREDICTABLE>
     fcc:	0b3a0e03 	bleq	e847e0 <__bss_end__+0xe78c30>
     fd0:	19270b3b 	stmdbne	r7!, {r0, r1, r3, r4, r5, r8, r9, fp}
     fd4:	1301193c 	movwne	r1, #6460	; 0x193c
     fd8:	2e0f0000 	cdpcs	0, 0, cr0, cr15, cr0, {0}
     fdc:	03193f00 	tsteq	r9, #0, 30
     fe0:	3b0b3a0e 	blcc	2cf820 <__bss_end__+0x2c3c70>
     fe4:	3c19270b 	ldccc	7, cr2, [r9], {11}
     fe8:	00000019 	andeq	r0, r0, r9, lsl r0
     fec:	25011101 	strcs	r1, [r1, #-257]	; 0x101
     ff0:	030b130e 	movweq	r1, #45838	; 0xb30e
     ff4:	110e1b0e 	tstne	lr, lr, lsl #22
     ff8:	10061201 	andne	r1, r6, r1, lsl #4
     ffc:	02000017 	andeq	r0, r0, #23
    1000:	0b0b0024 	bleq	2c1098 <__bss_end__+0x2b54e8>
    1004:	08030b3e 	stmdaeq	r3, {r1, r2, r3, r4, r5, r8, r9, fp}
    1008:	24030000 	strcs	r0, [r3], #-0
    100c:	3e0b0b00 	vmlacc.f64	d0, d11, d0
    1010:	000e030b 	andeq	r0, lr, fp, lsl #6
    1014:	012e0400 	teqeq	lr, r0, lsl #8
    1018:	0e03193f 	mcreq	9, 0, r1, cr3, cr15, {1}
    101c:	0b3b0b3a 	bleq	ec3d0c <__bss_end__+0xeb815c>
    1020:	06120111 			; <UNDEFINED> instruction: 0x06120111
    1024:	42971840 	addsmi	r1, r7, #64, 16	; 0x400000
    1028:	00130119 	andseq	r0, r3, r9, lsl r1
    102c:	00340500 	eorseq	r0, r4, r0, lsl #10
    1030:	0b3a0e03 	bleq	e84844 <__bss_end__+0xe78c94>
    1034:	13490b3b 	movtne	r0, #39739	; 0x9b3b
    1038:	193c193f 	ldmdbne	ip!, {r0, r1, r2, r3, r4, r5, r8, fp, ip}
    103c:	2e060000 	cdpcs	0, 0, cr0, cr6, cr0, {0}
    1040:	03193f00 	tsteq	r9, #0, 30
    1044:	3b0b3a0e 	blcc	2cf884 <__bss_end__+0x2c3cd4>
    1048:	3c19270b 	ldccc	7, cr2, [r9], {11}
    104c:	07000019 	smladeq	r0, r9, r0, r0
    1050:	08030034 	stmdaeq	r3, {r2, r4, r5}
    1054:	0b3b0b3a 	bleq	ec3d44 <__bss_end__+0xeb8194>
    1058:	17021349 	strne	r1, [r2, -r9, asr #6]
    105c:	34080000 	strcc	r0, [r8], #-0
    1060:	3a0e0300 	bcc	381c68 <__bss_end__+0x3760b8>
    1064:	490b3b0b 	stmdbmi	fp, {r0, r1, r3, r8, r9, fp, ip, sp}
    1068:	09000013 	stmdbeq	r0, {r0, r1, r4}
    106c:	00018289 	andeq	r8, r1, r9, lsl #5
    1070:	13310111 	teqne	r1, #1073741828	; 0x40000004
    1074:	0f0a0000 	svceq	0x000a0000
    1078:	490b0b00 	stmdbmi	fp, {r8, r9, fp}
    107c:	00000013 	andeq	r0, r0, r3, lsl r0
    1080:	25011101 	strcs	r1, [r1, #-257]	; 0x101
    1084:	030b130e 	movweq	r1, #45838	; 0xb30e
    1088:	110e1b0e 	tstne	lr, lr, lsl #22
    108c:	10061201 	andne	r1, r6, r1, lsl #4
    1090:	02000017 	andeq	r0, r0, #23
    1094:	0b0b0024 	bleq	2c112c <__bss_end__+0x2b557c>
    1098:	08030b3e 	stmdaeq	r3, {r1, r2, r3, r4, r5, r8, r9, fp}
    109c:	24030000 	strcs	r0, [r3], #-0
    10a0:	3e0b0b00 	vmlacc.f64	d0, d11, d0
    10a4:	000e030b 	andeq	r0, lr, fp, lsl #6
    10a8:	000f0400 	andeq	r0, pc, r0, lsl #8
    10ac:	13490b0b 	movtne	r0, #39691	; 0x9b0b
    10b0:	26050000 	strcs	r0, [r5], -r0
    10b4:	00134900 	andseq	r4, r3, r0, lsl #18
    10b8:	012e0600 	teqeq	lr, r0, lsl #12
    10bc:	0e03193f 	mcreq	9, 0, r1, cr3, cr15, {1}
    10c0:	0b3b0b3a 	bleq	ec3db0 <__bss_end__+0xeb8200>
    10c4:	01111927 	tsteq	r1, r7, lsr #18
    10c8:	18400612 	stmdane	r0, {r1, r4, r9, sl}^
    10cc:	01194297 			; <UNDEFINED> instruction: 0x01194297
    10d0:	07000013 	smladeq	r0, r3, r0, r0
    10d4:	08030005 	stmdaeq	r3, {r0, r2}
    10d8:	0b3b0b3a 	bleq	ec3dc8 <__bss_end__+0xeb8218>
    10dc:	17021349 	strne	r1, [r2, -r9, asr #6]
    10e0:	34080000 	strcc	r0, [r8], #-0
    10e4:	490e0300 	stmdbmi	lr, {r8, r9}
    10e8:	02193413 	andseq	r3, r9, #318767104	; 0x13000000
    10ec:	09000018 	stmdbeq	r0, {r3, r4}
    10f0:	00018289 	andeq	r8, r1, r9, lsl #5
    10f4:	13310111 	teqne	r1, #1073741828	; 0x40000004
    10f8:	890a0000 	stmdbhi	sl, {}	; <UNPREDICTABLE>
    10fc:	11010182 	smlabbne	r1, r2, r1, r0
    1100:	01133101 	tsteq	r3, r1, lsl #2
    1104:	0b000013 	bleq	1158 <__code_start__-0x6ea8>
    1108:	0001828a 	andeq	r8, r1, sl, lsl #5
    110c:	42911802 	addsmi	r1, r1, #131072	; 0x20000
    1110:	0c000018 	stceq	0, cr0, [r0], {24}
    1114:	13490101 	movtne	r0, #37121	; 0x9101
    1118:	00001301 	andeq	r1, r0, r1, lsl #6
    111c:	4900210d 	stmdbmi	r0, {r0, r2, r3, r8, sp}
    1120:	000b2f13 	andeq	r2, fp, r3, lsl pc
    1124:	002e0e00 	eoreq	r0, lr, r0, lsl #28
    1128:	0e03193f 	mcreq	9, 0, r1, cr3, cr15, {1}
    112c:	0b3b0b3a 	bleq	ec3e1c <__bss_end__+0xeb826c>
    1130:	193c1927 	ldmdbne	ip!, {r0, r1, r2, r5, r8, fp, ip}
    1134:	2e0f0000 	cdpcs	0, 0, cr0, cr15, cr0, {0}
    1138:	03193f01 	tsteq	r9, #1, 30
    113c:	3b0b3a0e 	blcc	2cf97c <__bss_end__+0x2c3dcc>
    1140:	4919270b 	ldmdbmi	r9, {r0, r1, r3, r8, r9, sl, sp}
    1144:	01193c13 	tsteq	r9, r3, lsl ip
    1148:	10000013 	andne	r0, r0, r3, lsl r0
    114c:	13490005 	movtne	r0, #36869	; 0x9005
    1150:	18110000 	ldmdane	r1, {}	; <UNPREDICTABLE>
    1154:	00000000 	andeq	r0, r0, r0
    1158:	25011101 	strcs	r1, [r1, #-257]	; 0x101
    115c:	030b130e 	movweq	r1, #45838	; 0xb30e
    1160:	110e1b0e 	tstne	lr, lr, lsl #22
    1164:	10061201 	andne	r1, r6, r1, lsl #4
    1168:	02000017 	andeq	r0, r0, #23
    116c:	0b0b0024 	bleq	2c1204 <__bss_end__+0x2b5654>
    1170:	08030b3e 	stmdaeq	r3, {r1, r2, r3, r4, r5, r8, r9, fp}
    1174:	24030000 	strcs	r0, [r3], #-0
    1178:	3e0b0b00 	vmlacc.f64	d0, d11, d0
    117c:	000e030b 	andeq	r0, lr, fp, lsl #6
    1180:	000f0400 	andeq	r0, pc, r0, lsl #8
    1184:	13490b0b 	movtne	r0, #39691	; 0x9b0b
    1188:	26050000 	strcs	r0, [r5], -r0
    118c:	00134900 	andseq	r4, r3, r0, lsl #18
    1190:	012e0600 	teqeq	lr, r0, lsl #12
    1194:	0e03193f 	mcreq	9, 0, r1, cr3, cr15, {1}
    1198:	0b3b0b3a 	bleq	ec3e88 <__bss_end__+0xeb82d8>
    119c:	01111927 	tsteq	r1, r7, lsr #18
    11a0:	18400612 	stmdane	r0, {r1, r4, r9, sl}^
    11a4:	01194297 			; <UNDEFINED> instruction: 0x01194297
    11a8:	07000013 	smladeq	r0, r3, r0, r0
    11ac:	08030005 	stmdaeq	r3, {r0, r2}
    11b0:	0b3b0b3a 	bleq	ec3ea0 <__bss_end__+0xeb82f0>
    11b4:	17021349 	strne	r1, [r2, -r9, asr #6]
    11b8:	34080000 	strcc	r0, [r8], #-0
    11bc:	490e0300 	stmdbmi	lr, {r8, r9}
    11c0:	02193413 	andseq	r3, r9, #318767104	; 0x13000000
    11c4:	09000018 	stmdbeq	r0, {r3, r4}
    11c8:	00018289 	andeq	r8, r1, r9, lsl #5
    11cc:	13310111 	teqne	r1, #1073741828	; 0x40000004
    11d0:	890a0000 	stmdbhi	sl, {}	; <UNPREDICTABLE>
    11d4:	11010182 	smlabbne	r1, r2, r1, r0
    11d8:	01133101 	tsteq	r3, r1, lsl #2
    11dc:	0b000013 	bleq	1230 <__code_start__-0x6dd0>
    11e0:	0001828a 	andeq	r8, r1, sl, lsl #5
    11e4:	42911802 	addsmi	r1, r1, #131072	; 0x20000
    11e8:	0c000018 	stceq	0, cr0, [r0], {24}
    11ec:	13490101 	movtne	r0, #37121	; 0x9101
    11f0:	00001301 	andeq	r1, r0, r1, lsl #6
    11f4:	4900210d 	stmdbmi	r0, {r0, r2, r3, r8, sp}
    11f8:	000b2f13 	andeq	r2, fp, r3, lsl pc
    11fc:	002e0e00 	eoreq	r0, lr, r0, lsl #28
    1200:	0e03193f 	mcreq	9, 0, r1, cr3, cr15, {1}
    1204:	0b3b0b3a 	bleq	ec3ef4 <__bss_end__+0xeb8344>
    1208:	193c1927 	ldmdbne	ip!, {r0, r1, r2, r5, r8, fp, ip}
    120c:	2e0f0000 	cdpcs	0, 0, cr0, cr15, cr0, {0}
    1210:	03193f01 	tsteq	r9, #1, 30
    1214:	3b0b3a0e 	blcc	2cfa54 <__bss_end__+0x2c3ea4>
    1218:	4919270b 	ldmdbmi	r9, {r0, r1, r3, r8, r9, sl, sp}
    121c:	01193c13 	tsteq	r9, r3, lsl ip
    1220:	10000013 	andne	r0, r0, r3, lsl r0
    1224:	13490005 	movtne	r0, #36869	; 0x9005
    1228:	18110000 	ldmdane	r1, {}	; <UNPREDICTABLE>
    122c:	00000000 	andeq	r0, r0, r0
    1230:	25011101 	strcs	r1, [r1, #-257]	; 0x101
    1234:	030b130e 	movweq	r1, #45838	; 0xb30e
    1238:	110e1b0e 	tstne	lr, lr, lsl #22
    123c:	10061201 	andne	r1, r6, r1, lsl #4
    1240:	02000017 	andeq	r0, r0, #23
    1244:	0b0b0024 	bleq	2c12dc <__bss_end__+0x2b572c>
    1248:	08030b3e 	stmdaeq	r3, {r1, r2, r3, r4, r5, r8, r9, fp}
    124c:	24030000 	strcs	r0, [r3], #-0
    1250:	3e0b0b00 	vmlacc.f64	d0, d11, d0
    1254:	000e030b 	andeq	r0, lr, fp, lsl #6
    1258:	000f0400 	andeq	r0, pc, r0, lsl #8
    125c:	13490b0b 	movtne	r0, #39691	; 0x9b0b
    1260:	26050000 	strcs	r0, [r5], -r0
    1264:	00134900 	andseq	r4, r3, r0, lsl #18
    1268:	012e0600 	teqeq	lr, r0, lsl #12
    126c:	0e03193f 	mcreq	9, 0, r1, cr3, cr15, {1}
    1270:	0b3b0b3a 	bleq	ec3f60 <__bss_end__+0xeb83b0>
    1274:	01111927 	tsteq	r1, r7, lsr #18
    1278:	18400612 	stmdane	r0, {r1, r4, r9, sl}^
    127c:	01194297 			; <UNDEFINED> instruction: 0x01194297
    1280:	07000013 	smladeq	r0, r3, r0, r0
    1284:	08030005 	stmdaeq	r3, {r0, r2}
    1288:	0b3b0b3a 	bleq	ec3f78 <__bss_end__+0xeb83c8>
    128c:	17021349 	strne	r1, [r2, -r9, asr #6]
    1290:	34080000 	strcc	r0, [r8], #-0
    1294:	490e0300 	stmdbmi	lr, {r8, r9}
    1298:	02193413 	andseq	r3, r9, #318767104	; 0x13000000
    129c:	09000018 	stmdbeq	r0, {r3, r4}
    12a0:	00018289 	andeq	r8, r1, r9, lsl #5
    12a4:	13310111 	teqne	r1, #1073741828	; 0x40000004
    12a8:	890a0000 	stmdbhi	sl, {}	; <UNPREDICTABLE>
    12ac:	11010182 	smlabbne	r1, r2, r1, r0
    12b0:	01133101 	tsteq	r3, r1, lsl #2
    12b4:	0b000013 	bleq	1308 <__code_start__-0x6cf8>
    12b8:	0001828a 	andeq	r8, r1, sl, lsl #5
    12bc:	42911802 	addsmi	r1, r1, #131072	; 0x20000
    12c0:	0c000018 	stceq	0, cr0, [r0], {24}
    12c4:	13490101 	movtne	r0, #37121	; 0x9101
    12c8:	00001301 	andeq	r1, r0, r1, lsl #6
    12cc:	4900210d 	stmdbmi	r0, {r0, r2, r3, r8, sp}
    12d0:	000b2f13 	andeq	r2, fp, r3, lsl pc
    12d4:	002e0e00 	eoreq	r0, lr, r0, lsl #28
    12d8:	0e03193f 	mcreq	9, 0, r1, cr3, cr15, {1}
    12dc:	0b3b0b3a 	bleq	ec3fcc <__bss_end__+0xeb841c>
    12e0:	193c1927 	ldmdbne	ip!, {r0, r1, r2, r5, r8, fp, ip}
    12e4:	2e0f0000 	cdpcs	0, 0, cr0, cr15, cr0, {0}
    12e8:	03193f01 	tsteq	r9, #1, 30
    12ec:	3b0b3a0e 	blcc	2cfb2c <__bss_end__+0x2c3f7c>
    12f0:	4919270b 	ldmdbmi	r9, {r0, r1, r3, r8, r9, sl, sp}
    12f4:	01193c13 	tsteq	r9, r3, lsl ip
    12f8:	10000013 	andne	r0, r0, r3, lsl r0
    12fc:	13490005 	movtne	r0, #36869	; 0x9005
    1300:	18110000 	ldmdane	r1, {}	; <UNPREDICTABLE>
    1304:	00000000 	andeq	r0, r0, r0
    1308:	25011101 	strcs	r1, [r1, #-257]	; 0x101
    130c:	030b130e 	movweq	r1, #45838	; 0xb30e
    1310:	110e1b0e 	tstne	lr, lr, lsl #22
    1314:	10061201 	andne	r1, r6, r1, lsl #4
    1318:	02000017 	andeq	r0, r0, #23
    131c:	0b0b0024 	bleq	2c13b4 <__bss_end__+0x2b5804>
    1320:	08030b3e 	stmdaeq	r3, {r1, r2, r3, r4, r5, r8, r9, fp}
    1324:	24030000 	strcs	r0, [r3], #-0
    1328:	3e0b0b00 	vmlacc.f64	d0, d11, d0
    132c:	000e030b 	andeq	r0, lr, fp, lsl #6
    1330:	000f0400 	andeq	r0, pc, r0, lsl #8
    1334:	13490b0b 	movtne	r0, #39691	; 0x9b0b
    1338:	26050000 	strcs	r0, [r5], -r0
    133c:	00134900 	andseq	r4, r3, r0, lsl #18
    1340:	012e0600 	teqeq	lr, r0, lsl #12
    1344:	0e03193f 	mcreq	9, 0, r1, cr3, cr15, {1}
    1348:	0b3b0b3a 	bleq	ec4038 <__bss_end__+0xeb8488>
    134c:	01111927 	tsteq	r1, r7, lsr #18
    1350:	18400612 	stmdane	r0, {r1, r4, r9, sl}^
    1354:	01194297 			; <UNDEFINED> instruction: 0x01194297
    1358:	07000013 	smladeq	r0, r3, r0, r0
    135c:	08030005 	stmdaeq	r3, {r0, r2}
    1360:	0b3b0b3a 	bleq	ec4050 <__bss_end__+0xeb84a0>
    1364:	17021349 	strne	r1, [r2, -r9, asr #6]
    1368:	34080000 	strcc	r0, [r8], #-0
    136c:	490e0300 	stmdbmi	lr, {r8, r9}
    1370:	02193413 	andseq	r3, r9, #318767104	; 0x13000000
    1374:	09000018 	stmdbeq	r0, {r3, r4}
    1378:	00018289 	andeq	r8, r1, r9, lsl #5
    137c:	13310111 	teqne	r1, #1073741828	; 0x40000004
    1380:	890a0000 	stmdbhi	sl, {}	; <UNPREDICTABLE>
    1384:	11010182 	smlabbne	r1, r2, r1, r0
    1388:	01133101 	tsteq	r3, r1, lsl #2
    138c:	0b000013 	bleq	13e0 <__code_start__-0x6c20>
    1390:	0001828a 	andeq	r8, r1, sl, lsl #5
    1394:	42911802 	addsmi	r1, r1, #131072	; 0x20000
    1398:	0c000018 	stceq	0, cr0, [r0], {24}
    139c:	13490101 	movtne	r0, #37121	; 0x9101
    13a0:	00001301 	andeq	r1, r0, r1, lsl #6
    13a4:	4900210d 	stmdbmi	r0, {r0, r2, r3, r8, sp}
    13a8:	000b2f13 	andeq	r2, fp, r3, lsl pc
    13ac:	002e0e00 	eoreq	r0, lr, r0, lsl #28
    13b0:	0e03193f 	mcreq	9, 0, r1, cr3, cr15, {1}
    13b4:	0b3b0b3a 	bleq	ec40a4 <__bss_end__+0xeb84f4>
    13b8:	193c1927 	ldmdbne	ip!, {r0, r1, r2, r5, r8, fp, ip}
    13bc:	2e0f0000 	cdpcs	0, 0, cr0, cr15, cr0, {0}
    13c0:	03193f01 	tsteq	r9, #1, 30
    13c4:	3b0b3a0e 	blcc	2cfc04 <__bss_end__+0x2c4054>
    13c8:	4919270b 	ldmdbmi	r9, {r0, r1, r3, r8, r9, sl, sp}
    13cc:	01193c13 	tsteq	r9, r3, lsl ip
    13d0:	10000013 	andne	r0, r0, r3, lsl r0
    13d4:	13490005 	movtne	r0, #36869	; 0x9005
    13d8:	18110000 	ldmdane	r1, {}	; <UNPREDICTABLE>
    13dc:	00000000 	andeq	r0, r0, r0
    13e0:	25011101 	strcs	r1, [r1, #-257]	; 0x101
    13e4:	030b130e 	movweq	r1, #45838	; 0xb30e
    13e8:	110e1b0e 	tstne	lr, lr, lsl #22
    13ec:	10061201 	andne	r1, r6, r1, lsl #4
    13f0:	02000017 	andeq	r0, r0, #23
    13f4:	0b0b0024 	bleq	2c148c <__bss_end__+0x2b58dc>
    13f8:	08030b3e 	stmdaeq	r3, {r1, r2, r3, r4, r5, r8, r9, fp}
    13fc:	24030000 	strcs	r0, [r3], #-0
    1400:	3e0b0b00 	vmlacc.f64	d0, d11, d0
    1404:	000e030b 	andeq	r0, lr, fp, lsl #6
    1408:	000f0400 	andeq	r0, pc, r0, lsl #8
    140c:	13490b0b 	movtne	r0, #39691	; 0x9b0b
    1410:	26050000 	strcs	r0, [r5], -r0
    1414:	00134900 	andseq	r4, r3, r0, lsl #18
    1418:	01010600 	tsteq	r1, r0, lsl #12
    141c:	13011349 	movwne	r1, #4937	; 0x1349
    1420:	21070000 	mrscs	r0, (UNDEF: 7)
    1424:	2f134900 	svccs	0x00134900
    1428:	0800000b 	stmdaeq	r0, {r0, r1, r3}
    142c:	193f012e 	ldmdbne	pc!, {r1, r2, r3, r5, r8}	; <UNPREDICTABLE>
    1430:	0b3a0e03 	bleq	e84c44 <__bss_end__+0xe79094>
    1434:	19270b3b 	stmdbne	r7!, {r0, r1, r3, r4, r5, r8, r9, fp}
    1438:	06120111 			; <UNDEFINED> instruction: 0x06120111
    143c:	42971840 	addsmi	r1, r7, #64, 16	; 0x400000
    1440:	00130119 	andseq	r0, r3, r9, lsl r1
    1444:	00050900 	andeq	r0, r5, r0, lsl #18
    1448:	0b3a0803 	bleq	e8345c <__bss_end__+0xe778ac>
    144c:	13490b3b 	movtne	r0, #39739	; 0x9b3b
    1450:	00001702 	andeq	r1, r0, r2, lsl #14
    1454:	0300340a 	movweq	r3, #1034	; 0x40a
    1458:	3413490e 	ldrcc	r4, [r3], #-2318	; 0x90e
    145c:	00180219 	andseq	r0, r8, r9, lsl r2
    1460:	82890b00 	addhi	r0, r9, #0, 22
    1464:	01110001 	tsteq	r1, r1
    1468:	00001331 	andeq	r1, r0, r1, lsr r3
    146c:	0182890c 	orreq	r8, r2, ip, lsl #18
    1470:	31011101 	tstcc	r1, r1, lsl #2
    1474:	00130113 	andseq	r0, r3, r3, lsl r1
    1478:	828a0d00 	addhi	r0, sl, #0, 26
    147c:	18020001 	stmdane	r2, {r0}
    1480:	00184291 	mulseq	r8, r1, r2
    1484:	002e0e00 	eoreq	r0, lr, r0, lsl #28
    1488:	0e03193f 	mcreq	9, 0, r1, cr3, cr15, {1}
    148c:	0b3b0b3a 	bleq	ec417c <__bss_end__+0xeb85cc>
    1490:	193c1927 	ldmdbne	ip!, {r0, r1, r2, r5, r8, fp, ip}
    1494:	2e0f0000 	cdpcs	0, 0, cr0, cr15, cr0, {0}
    1498:	03193f01 	tsteq	r9, #1, 30
    149c:	3b0b3a0e 	blcc	2cfcdc <__bss_end__+0x2c412c>
    14a0:	4919270b 	ldmdbmi	r9, {r0, r1, r3, r8, r9, sl, sp}
    14a4:	01193c13 	tsteq	r9, r3, lsl ip
    14a8:	10000013 	andne	r0, r0, r3, lsl r0
    14ac:	13490005 	movtne	r0, #36869	; 0x9005
    14b0:	18110000 	ldmdane	r1, {}	; <UNPREDICTABLE>
    14b4:	00000000 	andeq	r0, r0, r0
    14b8:	25011101 	strcs	r1, [r1, #-257]	; 0x101
    14bc:	030b130e 	movweq	r1, #45838	; 0xb30e
    14c0:	110e1b0e 	tstne	lr, lr, lsl #22
    14c4:	10061201 	andne	r1, r6, r1, lsl #4
    14c8:	02000017 	andeq	r0, r0, #23
    14cc:	0b0b0024 	bleq	2c1564 <__bss_end__+0x2b59b4>
    14d0:	08030b3e 	stmdaeq	r3, {r1, r2, r3, r4, r5, r8, r9, fp}
    14d4:	24030000 	strcs	r0, [r3], #-0
    14d8:	3e0b0b00 	vmlacc.f64	d0, d11, d0
    14dc:	000e030b 	andeq	r0, lr, fp, lsl #6
    14e0:	01040400 	tsteq	r4, r0, lsl #8
    14e4:	0b3a0b0b 	bleq	e84118 <__bss_end__+0xe78568>
    14e8:	13010b3b 	movwne	r0, #6971	; 0x1b3b
    14ec:	28050000 	stmdacs	r5, {}	; <UNPREDICTABLE>
    14f0:	1c0e0300 	stcne	3, cr0, [lr], {-0}
    14f4:	0600000d 	streq	r0, [r0], -sp
    14f8:	193f012e 	ldmdbne	pc!, {r1, r2, r3, r5, r8}	; <UNPREDICTABLE>
    14fc:	0b3a0e03 	bleq	e84d10 <__bss_end__+0xe79160>
    1500:	19270b3b 	stmdbne	r7!, {r0, r1, r3, r4, r5, r8, r9, fp}
    1504:	06120111 			; <UNDEFINED> instruction: 0x06120111
    1508:	42971840 	addsmi	r1, r7, #64, 16	; 0x400000
    150c:	00130119 	andseq	r0, r3, r9, lsl r1
    1510:	00340700 	eorseq	r0, r4, r0, lsl #14
    1514:	0b3a0e03 	bleq	e84d28 <__bss_end__+0xe79178>
    1518:	13490b3b 	movtne	r0, #39739	; 0x9b3b
    151c:	193c193f 	ldmdbne	ip!, {r0, r1, r2, r3, r4, r5, r8, fp, ip}
    1520:	34080000 	strcc	r0, [r8], #-0
    1524:	3a080300 	bcc	20212c <__bss_end__+0x1f657c>
    1528:	490b3b0b 	stmdbmi	fp, {r0, r1, r3, r8, r9, fp, ip, sp}
    152c:	000b1c13 	andeq	r1, fp, r3, lsl ip
    1530:	00340900 	eorseq	r0, r4, r0, lsl #18
    1534:	0b3a0803 	bleq	e83548 <__bss_end__+0xe77998>
    1538:	13490b3b 	movtne	r0, #39739	; 0x9b3b
    153c:	340a0000 	strcc	r0, [sl], #-0
    1540:	3a080300 	bcc	202148 <__bss_end__+0x1f6598>
    1544:	490b3b0b 	stmdbmi	fp, {r0, r1, r3, r8, r9, fp, ip, sp}
    1548:	00180213 	andseq	r0, r8, r3, lsl r2
    154c:	010b0b00 	tsteq	fp, r0, lsl #22
    1550:	06120111 			; <UNDEFINED> instruction: 0x06120111
    1554:	00001301 	andeq	r1, r0, r1, lsl #6
    1558:	0300340c 	movweq	r3, #1036	; 0x40c
    155c:	3b0b3a08 	blcc	2cfd84 <__bss_end__+0x2c41d4>
    1560:	0213490b 	andseq	r4, r3, #180224	; 0x2c000
    1564:	0d000017 	stceq	0, cr0, [r0, #-92]	; 0xffffffa4
    1568:	00018289 	andeq	r8, r1, r9, lsl #5
    156c:	13310111 	teqne	r1, #1073741828	; 0x40000004
    1570:	890e0000 	stmdbhi	lr, {}	; <UNPREDICTABLE>
    1574:	11010182 	smlabbne	r1, r2, r1, r0
    1578:	01133101 	tsteq	r3, r1, lsl #2
    157c:	0f000013 	svceq	0x00000013
    1580:	0001828a 	andeq	r8, r1, sl, lsl #5
    1584:	42911802 	addsmi	r1, r1, #131072	; 0x20000
    1588:	10000018 	andne	r0, r0, r8, lsl r0
    158c:	0b0b000f 	bleq	2c15d0 <__bss_end__+0x2b5a20>
    1590:	00001349 	andeq	r1, r0, r9, asr #6
    1594:	3f002e11 	svccc	0x00002e11
    1598:	3a0e0319 	bcc	382204 <__bss_end__+0x376654>
    159c:	270b3b0b 	strcs	r3, [fp, -fp, lsl #22]
    15a0:	00193c19 	andseq	r3, r9, r9, lsl ip
    15a4:	012e1200 	teqeq	lr, r0, lsl #4
    15a8:	0e03193f 	mcreq	9, 0, r1, cr3, cr15, {1}
    15ac:	0b3b0b3a 	bleq	ec429c <__bss_end__+0xeb86ec>
    15b0:	193c1927 	ldmdbne	ip!, {r0, r1, r2, r5, r8, fp, ip}
    15b4:	05130000 	ldreq	r0, [r3, #-0]
    15b8:	00134900 	andseq	r4, r3, r0, lsl #18
    15bc:	11010000 	mrsne	r0, (UNDEF: 1)
    15c0:	130e2501 	movwne	r2, #58625	; 0xe501
    15c4:	1b0e030b 	blne	3821f8 <__bss_end__+0x376648>
    15c8:	1117550e 	tstne	r7, lr, lsl #10
    15cc:	00171001 	andseq	r1, r7, r1
    15d0:	00240200 	eoreq	r0, r4, r0, lsl #4
    15d4:	0b3e0b0b 	bleq	f84208 <__bss_end__+0xf78658>
    15d8:	00000803 	andeq	r0, r0, r3, lsl #16
    15dc:	0b002403 	bleq	a5f0 <kmalloc_aligned+0x10>
    15e0:	030b3e0b 	movweq	r3, #48651	; 0xbe0b
    15e4:	0400000e 	streq	r0, [r0], #-14
    15e8:	193f012e 	ldmdbne	pc!, {r1, r2, r3, r5, r8}	; <UNPREDICTABLE>
    15ec:	0b3a0e03 	bleq	e84e00 <__bss_end__+0xe79250>
    15f0:	19270b3b 	stmdbne	r7!, {r0, r1, r3, r4, r5, r8, r9, fp}
    15f4:	01111349 	tsteq	r1, r9, asr #6
    15f8:	18400612 	stmdane	r0, {r1, r4, r9, sl}^
    15fc:	01194297 			; <UNDEFINED> instruction: 0x01194297
    1600:	05000013 	streq	r0, [r0, #-19]
    1604:	0e030034 	mcreq	0, 0, r0, cr3, cr4, {1}
    1608:	0b3b0b3a 	bleq	ec42f8 <__bss_end__+0xeb8748>
    160c:	17021349 	strne	r1, [r2, -r9, asr #6]
    1610:	2e060000 	cdpcs	0, 0, cr0, cr6, cr0, {0}
    1614:	03193f01 	tsteq	r9, #1, 30
    1618:	3b0b3a0e 	blcc	2cfe58 <__bss_end__+0x2c42a8>
    161c:	1119270b 	tstne	r9, fp, lsl #14
    1620:	40061201 	andmi	r1, r6, r1, lsl #4
    1624:	19429718 	stmdbne	r2, {r3, r4, r8, r9, sl, ip, pc}^
    1628:	00001301 	andeq	r1, r0, r1, lsl #6
    162c:	03003407 	movweq	r3, #1031	; 0x407
    1630:	3b0b3a0e 	blcc	2cfe70 <__bss_end__+0x2c42c0>
    1634:	1c13490b 	ldcne	9, cr4, [r3], {11}
    1638:	08000006 	stmdaeq	r0, {r1, r2}
    163c:	0e030034 	mcreq	0, 0, r0, cr3, cr4, {1}
    1640:	0b3b0b3a 	bleq	ec4330 <__bss_end__+0xeb8780>
    1644:	0b1c1349 	bleq	706370 <__bss_end__+0x6fa7c0>
    1648:	89090000 	stmdbhi	r9, {}	; <UNPREDICTABLE>
    164c:	11000182 	smlabbne	r0, r2, r1, r0
    1650:	00133101 	andseq	r3, r3, r1, lsl #2
    1654:	82890a00 	addhi	r0, r9, #0, 20
    1658:	01110101 	tsteq	r1, r1, lsl #2
    165c:	13011331 	movwne	r1, #4913	; 0x1331
    1660:	8a0b0000 	bhi	2c1668 <__bss_end__+0x2b5ab8>
    1664:	02000182 	andeq	r0, r0, #-2147483616	; 0x80000020
    1668:	18429118 	stmdane	r2, {r3, r4, r8, ip, pc}^
    166c:	890c0000 	stmdbhi	ip, {}	; <UNPREDICTABLE>
    1670:	11010182 	smlabbne	r1, r2, r1, r0
    1674:	00133101 	andseq	r3, r3, r1, lsl #2
    1678:	00260d00 	eoreq	r0, r6, r0, lsl #26
    167c:	00001349 	andeq	r1, r0, r9, asr #6
    1680:	3f012e0e 	svccc	0x00012e0e
    1684:	3a0e0319 	bcc	3822f0 <__bss_end__+0x376740>
    1688:	270b3b0b 	strcs	r3, [fp, -fp, lsl #22]
    168c:	01193c19 	tsteq	r9, r9, lsl ip
    1690:	0f000013 	svceq	0x00000013
    1694:	13490005 	movtne	r0, #36869	; 0x9005
    1698:	2e100000 	cdpcs	0, 1, cr0, cr0, cr0, {0}
    169c:	03193f01 	tsteq	r9, #1, 30
    16a0:	3b0b3a0e 	blcc	2cfee0 <__bss_end__+0x2c4330>
    16a4:	3c19270b 	ldccc	7, cr2, [r9], {11}
    16a8:	00000019 	andeq	r0, r0, r9, lsl r0
    16ac:	25011101 	strcs	r1, [r1, #-257]	; 0x101
    16b0:	030b130e 	movweq	r1, #45838	; 0xb30e
    16b4:	110e1b0e 	tstne	lr, lr, lsl #22
    16b8:	10061201 	andne	r1, r6, r1, lsl #4
    16bc:	02000017 	andeq	r0, r0, #23
    16c0:	0b0b0024 	bleq	2c1758 <__bss_end__+0x2b5ba8>
    16c4:	08030b3e 	stmdaeq	r3, {r1, r2, r3, r4, r5, r8, r9, fp}
    16c8:	24030000 	strcs	r0, [r3], #-0
    16cc:	3e0b0b00 	vmlacc.f64	d0, d11, d0
    16d0:	000e030b 	andeq	r0, lr, fp, lsl #6
    16d4:	00160400 	andseq	r0, r6, r0, lsl #8
    16d8:	0b3a0e03 	bleq	e84eec <__bss_end__+0xe7933c>
    16dc:	13490b3b 	movtne	r0, #39739	; 0x9b3b
    16e0:	0f050000 	svceq	0x00050000
    16e4:	490b0b00 	stmdbmi	fp, {r8, r9, fp}
    16e8:	06000013 			; <UNDEFINED> instruction: 0x06000013
    16ec:	13490026 	movtne	r0, #36902	; 0x9026
    16f0:	13070000 	movwne	r0, #28672	; 0x7000
    16f4:	3a0b0b01 	bcc	2c4300 <__bss_end__+0x2b8750>
    16f8:	010b3b0b 	tsteq	fp, fp, lsl #22
    16fc:	08000013 	stmdaeq	r0, {r0, r1, r4}
    1700:	0e03000d 	cdpeq	0, 0, cr0, cr3, cr13, {0}
    1704:	0b3b0b3a 	bleq	ec43f4 <__bss_end__+0xeb8844>
    1708:	0b0b1349 	bleq	2c6434 <__bss_end__+0x2ba884>
    170c:	0b0c0b0d 	bleq	304348 <__bss_end__+0x2f8798>
    1710:	00000b38 	andeq	r0, r0, r8, lsr fp
    1714:	0b010409 	bleq	42740 <__bss_end__+0x36b90>
    1718:	3b0b3a0b 	blcc	2cff4c <__bss_end__+0x2c439c>
    171c:	0013010b 	andseq	r0, r3, fp, lsl #2
    1720:	00280a00 	eoreq	r0, r8, r0, lsl #20
    1724:	0d1c0e03 	ldceq	14, cr0, [ip, #-12]
    1728:	2e0b0000 	cdpcs	0, 0, cr0, cr11, cr0, {0}
    172c:	3a0e0301 	bcc	382338 <__bss_end__+0x376788>
    1730:	270b3b0b 	strcs	r3, [fp, -fp, lsl #22]
    1734:	12011119 	andne	r1, r1, #1073741830	; 0x40000006
    1738:	97184006 	ldrls	r4, [r8, -r6]
    173c:	13011942 	movwne	r1, #6466	; 0x1942
    1740:	340c0000 	strcc	r0, [ip], #-0
    1744:	490e0300 	stmdbmi	lr, {r8, r9}
    1748:	02193413 	andseq	r3, r9, #318767104	; 0x13000000
    174c:	0d000018 	stceq	0, cr0, [r0, #-96]	; 0xffffffa0
    1750:	01018289 	smlabbeq	r1, r9, r2, r8
    1754:	13310111 	teqne	r1, #1073741828	; 0x40000004
    1758:	8a0e0000 	bhi	381760 <__bss_end__+0x375bb0>
    175c:	02000182 	andeq	r0, r0, #-2147483616	; 0x80000020
    1760:	18429118 	stmdane	r2, {r3, r4, r8, ip, pc}^
    1764:	010f0000 	mrseq	r0, CPSR
    1768:	01134901 	tsteq	r3, r1, lsl #18
    176c:	10000013 	andne	r0, r0, r3, lsl r0
    1770:	13490021 	movtne	r0, #36897	; 0x9021
    1774:	00000b2f 	andeq	r0, r0, pc, lsr #22
    1778:	3f012e11 	svccc	0x00012e11
    177c:	3a0e0319 	bcc	3823e8 <__bss_end__+0x376838>
    1780:	270b3b0b 	strcs	r3, [fp, -fp, lsl #22]
    1784:	12011119 	andne	r1, r1, #1073741830	; 0x40000006
    1788:	97184006 	ldrls	r4, [r8, -r6]
    178c:	13011942 	movwne	r1, #6466	; 0x1942
    1790:	05120000 	ldreq	r0, [r2, #-0]
    1794:	3a0e0300 	bcc	38239c <__bss_end__+0x3767ec>
    1798:	490b3b0b 	stmdbmi	fp, {r0, r1, r3, r8, r9, fp, ip, sp}
    179c:	00170213 	andseq	r0, r7, r3, lsl r2
    17a0:	82891300 	addhi	r1, r9, #0, 6
    17a4:	01110001 	tsteq	r1, r1
    17a8:	00001331 	andeq	r1, r0, r1, lsr r3
    17ac:	01828914 	orreq	r8, r2, r4, lsl r9
    17b0:	31011101 	tstcc	r1, r1, lsl #2
    17b4:	00130113 	andseq	r0, r3, r3, lsl r1
    17b8:	012e1500 	teqeq	lr, r0, lsl #10
    17bc:	0e03193f 	mcreq	9, 0, r1, cr3, cr15, {1}
    17c0:	0b3b0b3a 	bleq	ec44b0 <__bss_end__+0xeb8900>
    17c4:	13491927 	movtne	r1, #39207	; 0x9927
    17c8:	1301193c 	movwne	r1, #6460	; 0x193c
    17cc:	05160000 	ldreq	r0, [r6, #-0]
    17d0:	00134900 	andseq	r4, r3, r0, lsl #18
    17d4:	00181700 	andseq	r1, r8, r0, lsl #14
    17d8:	2e180000 	cdpcs	0, 1, cr0, cr8, cr0, {0}
    17dc:	03193f01 	tsteq	r9, #1, 30
    17e0:	3b0b3a0e 	blcc	2d0020 <__bss_end__+0x2c4470>
    17e4:	3c19270b 	ldccc	7, cr2, [r9], {11}
    17e8:	00000019 	andeq	r0, r0, r9, lsl r0
    17ec:	25011101 	strcs	r1, [r1, #-257]	; 0x101
    17f0:	030b130e 	movweq	r1, #45838	; 0xb30e
    17f4:	110e1b0e 	tstne	lr, lr, lsl #22
    17f8:	10061201 	andne	r1, r6, r1, lsl #4
    17fc:	02000017 	andeq	r0, r0, #23
    1800:	0b0b0024 	bleq	2c1898 <__bss_end__+0x2b5ce8>
    1804:	08030b3e 	stmdaeq	r3, {r1, r2, r3, r4, r5, r8, r9, fp}
    1808:	24030000 	strcs	r0, [r3], #-0
    180c:	3e0b0b00 	vmlacc.f64	d0, d11, d0
    1810:	000e030b 	andeq	r0, lr, fp, lsl #6
    1814:	012e0400 	teqeq	lr, r0, lsl #8
    1818:	0e03193f 	mcreq	9, 0, r1, cr3, cr15, {1}
    181c:	0b3b0b3a 	bleq	ec450c <__bss_end__+0xeb895c>
    1820:	01111927 	tsteq	r1, r7, lsr #18
    1824:	18400612 	stmdane	r0, {r1, r4, r9, sl}^
    1828:	01194297 			; <UNDEFINED> instruction: 0x01194297
    182c:	05000013 	streq	r0, [r0, #-19]
    1830:	0e030005 	cdpeq	0, 0, cr0, cr3, cr5, {0}
    1834:	0b3b0b3a 	bleq	ec4524 <__bss_end__+0xeb8974>
    1838:	17021349 	strne	r1, [r2, -r9, asr #6]
    183c:	2e060000 	cdpcs	0, 0, cr0, cr6, cr0, {0}
    1840:	03193f01 	tsteq	r9, #1, 30
    1844:	3b0b3a0e 	blcc	2d0084 <__bss_end__+0x2c44d4>
    1848:	4919270b 	ldmdbmi	r9, {r0, r1, r3, r8, r9, sl, sp}
    184c:	12011113 	andne	r1, r1, #-1073741820	; 0xc0000004
    1850:	97184006 	ldrls	r4, [r8, -r6]
    1854:	13011942 	movwne	r1, #6466	; 0x1942
    1858:	89070000 	stmdbhi	r7, {}	; <UNPREDICTABLE>
    185c:	11010182 	smlabbne	r1, r2, r1, r0
    1860:	00133101 	andseq	r3, r3, r1, lsl #2
    1864:	828a0800 	addhi	r0, sl, #0, 16
    1868:	18020001 	stmdane	r2, {r0}
    186c:	00184291 	mulseq	r8, r1, r2
    1870:	00340900 	eorseq	r0, r4, r0, lsl #18
    1874:	0b3a0803 	bleq	e83888 <__bss_end__+0xe77cd8>
    1878:	13490b3b 	movtne	r0, #39739	; 0x9b3b
    187c:	00001802 	andeq	r1, r0, r2, lsl #16
    1880:	0182890a 	orreq	r8, r2, sl, lsl #18
    1884:	31011100 	mrscc	r1, (UNDEF: 17)
    1888:	0b000013 	bleq	18dc <__code_start__-0x6724>
    188c:	08030005 	stmdaeq	r3, {r0, r2}
    1890:	0b3b0b3a 	bleq	ec4580 <__bss_end__+0xeb89d0>
    1894:	17021349 	strne	r1, [r2, -r9, asr #6]
    1898:	0b0c0000 	bleq	3018a0 <__bss_end__+0x2f5cf0>
    189c:	12011101 	andne	r1, r1, #1073741824	; 0x40000000
    18a0:	00130106 	andseq	r0, r3, r6, lsl #2
    18a4:	00340d00 	eorseq	r0, r4, r0, lsl #26
    18a8:	0b3a0803 	bleq	e838bc <__bss_end__+0xe77d0c>
    18ac:	13490b3b 	movtne	r0, #39739	; 0x9b3b
    18b0:	00001702 	andeq	r1, r0, r2, lsl #14
    18b4:	3f012e0e 	svccc	0x00012e0e
    18b8:	3a0e0319 	bcc	382524 <__bss_end__+0x376974>
    18bc:	270b3b0b 	strcs	r3, [fp, -fp, lsl #22]
    18c0:	3c134919 	ldccc	9, cr4, [r3], {25}
    18c4:	0f000019 	svceq	0x00000019
    18c8:	13490005 	movtne	r0, #36869	; 0x9005
    18cc:	01000000 	mrseq	r0, (UNDEF: 0)
    18d0:	0e250111 	mcreq	1, 1, r0, cr5, cr1, {0}
    18d4:	0e030b13 	vmoveq.32	d3[0], r0
    18d8:	01110e1b 	tsteq	r1, fp, lsl lr
    18dc:	17100612 			; <UNDEFINED> instruction: 0x17100612
    18e0:	24020000 	strcs	r0, [r2], #-0
    18e4:	3e0b0b00 	vmlacc.f64	d0, d11, d0
    18e8:	0008030b 	andeq	r0, r8, fp, lsl #6
    18ec:	00240300 	eoreq	r0, r4, r0, lsl #6
    18f0:	0b3e0b0b 	bleq	f84524 <__bss_end__+0xf78974>
    18f4:	00000e03 	andeq	r0, r0, r3, lsl #28
    18f8:	49003504 	stmdbmi	r0, {r2, r8, sl, ip, sp}
    18fc:	05000013 	streq	r0, [r0, #-19]
    1900:	0e030016 	mcreq	0, 0, r0, cr3, cr6, {0}
    1904:	0b3b0b3a 	bleq	ec45f4 <__bss_end__+0xeb8a44>
    1908:	00001349 	andeq	r1, r0, r9, asr #6
    190c:	03001606 	movweq	r1, #1542	; 0x606
    1910:	3b0b3a0e 	blcc	2d0150 <__bss_end__+0x2c45a0>
    1914:	00134905 	andseq	r4, r3, r5, lsl #18
    1918:	01170700 	tsteq	r7, r0, lsl #14
    191c:	0b3a0b0b 	bleq	e84550 <__bss_end__+0xe789a0>
    1920:	13010b3b 	movwne	r0, #6971	; 0x1b3b
    1924:	0d080000 	stceq	0, cr0, [r8, #-0]
    1928:	3a0e0300 	bcc	382530 <__bss_end__+0x376980>
    192c:	490b3b0b 	stmdbmi	fp, {r0, r1, r3, r8, r9, fp, ip, sp}
    1930:	09000013 	stmdbeq	r0, {r0, r1, r4}
    1934:	13490101 	movtne	r0, #37121	; 0x9101
    1938:	00001301 	andeq	r1, r0, r1, lsl #6
    193c:	4900210a 	stmdbmi	r0, {r1, r3, r8, sp}
    1940:	000b2f13 	andeq	r2, fp, r3, lsl pc
    1944:	01130b00 	tsteq	r3, r0, lsl #22
    1948:	0b3a0b0b 	bleq	e8457c <__bss_end__+0xe789cc>
    194c:	13010b3b 	movwne	r0, #6971	; 0x1b3b
    1950:	0d0c0000 	stceq	0, cr0, [ip, #-0]
    1954:	3a0e0300 	bcc	38255c <__bss_end__+0x3769ac>
    1958:	490b3b0b 	stmdbmi	fp, {r0, r1, r3, r8, r9, fp, ip, sp}
    195c:	000b3813 	andeq	r3, fp, r3, lsl r8
    1960:	000f0d00 	andeq	r0, pc, r0, lsl #26
    1964:	00000b0b 	andeq	r0, r0, fp, lsl #22
    1968:	0b000f0e 	bleq	55a8 <__code_start__-0x2a58>
    196c:	0013490b 	andseq	r4, r3, fp, lsl #18
    1970:	00260f00 	eoreq	r0, r6, r0, lsl #30
    1974:	00001349 	andeq	r1, r0, r9, asr #6
    1978:	03011310 	movweq	r1, #4880	; 0x1310
    197c:	3a0b0b0e 	bcc	2c45bc <__bss_end__+0x2b8a0c>
    1980:	010b3b0b 	tsteq	fp, fp, lsl #22
    1984:	11000013 	tstne	r0, r3, lsl r0
    1988:	0803000d 	stmdaeq	r3, {r0, r2, r3}
    198c:	0b3b0b3a 	bleq	ec467c <__bss_end__+0xeb8acc>
    1990:	0b381349 	bleq	e066bc <__bss_end__+0xdfab0c>
    1994:	13120000 	tstne	r2, #0
    1998:	0b0e0301 	bleq	3825a4 <__bss_end__+0x3769f4>
    199c:	3b0b3a05 	blcc	2d01b8 <__bss_end__+0x2c4608>
    19a0:	0013010b 	andseq	r0, r3, fp, lsl #2
    19a4:	000d1300 	andeq	r1, sp, r0, lsl #6
    19a8:	0b3a0e03 	bleq	e851bc <__bss_end__+0xe7960c>
    19ac:	13490b3b 	movtne	r0, #39739	; 0x9b3b
    19b0:	00000538 	andeq	r0, r0, r8, lsr r5
    19b4:	27001514 	smladcs	r0, r4, r5, r1
    19b8:	15000019 	strne	r0, [r0, #-25]
    19bc:	19270115 	stmdbne	r7!, {r0, r2, r4, r8}
    19c0:	13011349 	movwne	r1, #4937	; 0x1349
    19c4:	05160000 	ldreq	r0, [r6, #-0]
    19c8:	00134900 	andseq	r4, r3, r0, lsl #18
    19cc:	01131700 	tsteq	r3, r0, lsl #14
    19d0:	050b0e03 	streq	r0, [fp, #-3587]	; 0xe03
    19d4:	053b0b3a 	ldreq	r0, [fp, #-2874]!	; 0xb3a
    19d8:	00001301 	andeq	r1, r0, r1, lsl #6
    19dc:	03000d18 	movweq	r0, #3352	; 0xd18
    19e0:	3b0b3a0e 	blcc	2d0220 <__bss_end__+0x2c4670>
    19e4:	38134905 	ldmdacc	r3, {r0, r2, r8, fp, lr}
    19e8:	1900000b 	stmdbne	r0, {r0, r1, r3}
    19ec:	0e03000d 	cdpeq	0, 0, cr0, cr3, cr13, {0}
    19f0:	053b0b3a 	ldreq	r0, [fp, #-2874]!	; 0xb3a
    19f4:	05381349 	ldreq	r1, [r8, #-841]!	; 0x349
    19f8:	131a0000 	tstne	sl, #0
    19fc:	0b0e0301 	bleq	382608 <__bss_end__+0x376a58>
    1a00:	3b0b3a0b 	blcc	2d0234 <__bss_end__+0x2c4684>
    1a04:	00130105 	andseq	r0, r3, r5, lsl #2
    1a08:	01131b00 	tsteq	r3, r0, lsl #22
    1a0c:	0b3a0b0b 	bleq	e84640 <__bss_end__+0xe78a90>
    1a10:	1301053b 	movwne	r0, #5435	; 0x153b
    1a14:	171c0000 	ldrne	r0, [ip, -r0]
    1a18:	3a0b0b01 	bcc	2c4624 <__bss_end__+0x2b8a74>
    1a1c:	01053b0b 	tsteq	r5, fp, lsl #22
    1a20:	1d000013 	stcne	0, cr0, [r0, #-76]	; 0xffffffb4
    1a24:	0e03000d 	cdpeq	0, 0, cr0, cr3, cr13, {0}
    1a28:	053b0b3a 	ldreq	r0, [fp, #-2874]!	; 0xb3a
    1a2c:	00001349 	andeq	r1, r0, r9, asr #6
    1a30:	2701151e 	smladcs	r1, lr, r5, r1
    1a34:	00130119 	andseq	r0, r3, r9, lsl r1
    1a38:	00341f00 	eorseq	r1, r4, r0, lsl #30
    1a3c:	0b3a0e03 	bleq	e85250 <__bss_end__+0xe796a0>
    1a40:	1349053b 	movtne	r0, #38203	; 0x953b
    1a44:	193c193f 	ldmdbne	ip!, {r0, r1, r2, r3, r4, r5, r8, fp, ip}
    1a48:	34200000 	strtcc	r0, [r0], #-0
    1a4c:	3a0e0300 	bcc	382654 <__bss_end__+0x376aa4>
    1a50:	490b3b0b 	stmdbmi	fp, {r0, r1, r3, r8, r9, fp, ip, sp}
    1a54:	3c193f13 	ldccc	15, cr3, [r9], {19}
    1a58:	21000019 	tstcs	r0, r9, lsl r0
    1a5c:	0b0b0104 	bleq	2c1e74 <__bss_end__+0x2b62c4>
    1a60:	0b3a1349 	bleq	e8678c <__bss_end__+0xe7abdc>
    1a64:	13010b3b 	movwne	r0, #6971	; 0x1b3b
    1a68:	28220000 	stmdacs	r2!, {}	; <UNPREDICTABLE>
    1a6c:	1c0e0300 	stcne	3, cr0, [lr], {-0}
    1a70:	2300000b 	movwcs	r0, #11
    1a74:	0e030034 	mcreq	0, 0, r0, cr3, cr4, {1}
    1a78:	0b3b0b3a 	bleq	ec4768 <__bss_end__+0xeb8bb8>
    1a7c:	061c1349 	ldreq	r1, [ip], -r9, asr #6
    1a80:	2e240000 	cdpcs	0, 2, cr0, cr4, cr0, {0}
    1a84:	03193f01 	tsteq	r9, #1, 30
    1a88:	3b0b3a0e 	blcc	2d02c8 <__bss_end__+0x2c4718>
    1a8c:	4919270b 	ldmdbmi	r9, {r0, r1, r3, r8, r9, sl, sp}
    1a90:	12011113 	andne	r1, r1, #-1073741820	; 0xc0000004
    1a94:	97184006 	ldrls	r4, [r8, -r6]
    1a98:	13011942 	movwne	r1, #6466	; 0x1942
    1a9c:	89250000 	stmdbhi	r5!, {}	; <UNPREDICTABLE>
    1aa0:	11000182 	smlabbne	r0, r2, r1, r0
    1aa4:	00133101 	andseq	r3, r3, r1, lsl #2
    1aa8:	012e2600 	teqeq	lr, r0, lsl #12
    1aac:	0e03193f 	mcreq	9, 0, r1, cr3, cr15, {1}
    1ab0:	0b3b0b3a 	bleq	ec47a0 <__bss_end__+0xeb8bf0>
    1ab4:	01111927 	tsteq	r1, r7, lsr #18
    1ab8:	18400612 	stmdane	r0, {r1, r4, r9, sl}^
    1abc:	01194297 			; <UNDEFINED> instruction: 0x01194297
    1ac0:	27000013 	smladcs	r0, r3, r0, r0
    1ac4:	08030005 	stmdaeq	r3, {r0, r2}
    1ac8:	0b3b0b3a 	bleq	ec47b8 <__bss_end__+0xeb8c08>
    1acc:	17021349 	strne	r1, [r2, -r9, asr #6]
    1ad0:	89280000 	stmdbhi	r8!, {}	; <UNPREDICTABLE>
    1ad4:	11010182 	smlabbne	r1, r2, r1, r0
    1ad8:	01133101 	tsteq	r3, r1, lsl #2
    1adc:	29000013 	stmdbcs	r0, {r0, r1, r4}
    1ae0:	0001828a 	andeq	r8, r1, sl, lsl #5
    1ae4:	42911802 	addsmi	r1, r1, #131072	; 0x20000
    1ae8:	2a000018 	bcs	1b50 <__code_start__-0x64b0>
    1aec:	08030034 	stmdaeq	r3, {r2, r4, r5}
    1af0:	0b3b0b3a 	bleq	ec47e0 <__bss_end__+0xeb8c30>
    1af4:	18021349 	stmdane	r2, {r0, r3, r6, r8, r9, ip}
    1af8:	892b0000 	stmdbhi	fp!, {}	; <UNPREDICTABLE>
    1afc:	11010182 	smlabbne	r1, r2, r1, r0
    1b00:	00133101 	andseq	r3, r3, r1, lsl #2
    1b04:	012e2c00 	teqeq	lr, r0, lsl #24
    1b08:	0b3a0e03 	bleq	e8531c <__bss_end__+0xe7976c>
    1b0c:	19270b3b 	stmdbne	r7!, {r0, r1, r3, r4, r5, r8, r9, fp}
    1b10:	06120111 			; <UNDEFINED> instruction: 0x06120111
    1b14:	42971840 	addsmi	r1, r7, #64, 16	; 0x400000
    1b18:	00130119 	andseq	r0, r3, r9, lsl r1
    1b1c:	00052d00 	andeq	r2, r5, r0, lsl #26
    1b20:	0b3a0e03 	bleq	e85334 <__bss_end__+0xe79784>
    1b24:	13490b3b 	movtne	r0, #39739	; 0x9b3b
    1b28:	00001702 	andeq	r1, r0, r2, lsl #14
    1b2c:	0000352e 	andeq	r3, r0, lr, lsr #10
    1b30:	002e2f00 	eoreq	r2, lr, r0, lsl #30
    1b34:	193c193f 	ldmdbne	ip!, {r0, r1, r2, r3, r4, r5, r8, fp, ip}
    1b38:	0e030e6e 	cdpeq	14, 0, cr0, cr3, cr14, {3}
    1b3c:	0b3b0b3a 	bleq	ec482c <__bss_end__+0xeb8c7c>
    1b40:	01000000 	mrseq	r0, (UNDEF: 0)
    1b44:	0e250111 	mcreq	1, 1, r0, cr5, cr1, {0}
    1b48:	0e030b13 	vmoveq.32	d3[0], r0
    1b4c:	01110e1b 	tsteq	r1, fp, lsl lr
    1b50:	17100612 			; <UNDEFINED> instruction: 0x17100612
    1b54:	24020000 	strcs	r0, [r2], #-0
    1b58:	3e0b0b00 	vmlacc.f64	d0, d11, d0
    1b5c:	0008030b 	andeq	r0, r8, fp, lsl #6
    1b60:	00240300 	eoreq	r0, r4, r0, lsl #6
    1b64:	0b3e0b0b 	bleq	f84798 <__bss_end__+0xf78be8>
    1b68:	00000e03 	andeq	r0, r0, r3, lsl #28
    1b6c:	49002604 	stmdbmi	r0, {r2, r9, sl, sp}
    1b70:	05000013 	streq	r0, [r0, #-19]
    1b74:	0e030016 	mcreq	0, 0, r0, cr3, cr6, {0}
    1b78:	0b3b0b3a 	bleq	ec4868 <__bss_end__+0xeb8cb8>
    1b7c:	00001349 	andeq	r1, r0, r9, asr #6
    1b80:	03001606 	movweq	r1, #1542	; 0x606
    1b84:	3b0b3a0e 	blcc	2d03c4 <__bss_end__+0x2c4814>
    1b88:	00134905 	andseq	r4, r3, r5, lsl #18
    1b8c:	01170700 	tsteq	r7, r0, lsl #14
    1b90:	0b3a0b0b 	bleq	e847c4 <__bss_end__+0xe78c14>
    1b94:	13010b3b 	movwne	r0, #6971	; 0x1b3b
    1b98:	0d080000 	stceq	0, cr0, [r8, #-0]
    1b9c:	3a0e0300 	bcc	3827a4 <__bss_end__+0x376bf4>
    1ba0:	490b3b0b 	stmdbmi	fp, {r0, r1, r3, r8, r9, fp, ip, sp}
    1ba4:	09000013 	stmdbeq	r0, {r0, r1, r4}
    1ba8:	13490101 	movtne	r0, #37121	; 0x9101
    1bac:	00001301 	andeq	r1, r0, r1, lsl #6
    1bb0:	4900210a 	stmdbmi	r0, {r1, r3, r8, sp}
    1bb4:	000b2f13 	andeq	r2, fp, r3, lsl pc
    1bb8:	01130b00 	tsteq	r3, r0, lsl #22
    1bbc:	0b3a0b0b 	bleq	e847f0 <__bss_end__+0xe78c40>
    1bc0:	13010b3b 	movwne	r0, #6971	; 0x1b3b
    1bc4:	0d0c0000 	stceq	0, cr0, [ip, #-0]
    1bc8:	3a0e0300 	bcc	3827d0 <__bss_end__+0x376c20>
    1bcc:	490b3b0b 	stmdbmi	fp, {r0, r1, r3, r8, r9, fp, ip, sp}
    1bd0:	000b3813 	andeq	r3, fp, r3, lsl r8
    1bd4:	000f0d00 	andeq	r0, pc, r0, lsl #26
    1bd8:	00000b0b 	andeq	r0, r0, fp, lsl #22
    1bdc:	0b000f0e 	bleq	581c <__code_start__-0x27e4>
    1be0:	0013490b 	andseq	r4, r3, fp, lsl #18
    1be4:	01130f00 	tsteq	r3, r0, lsl #30
    1be8:	0b0b0e03 	bleq	2c53fc <__bss_end__+0x2b984c>
    1bec:	0b3b0b3a 	bleq	ec48dc <__bss_end__+0xeb8d2c>
    1bf0:	00001301 	andeq	r1, r0, r1, lsl #6
    1bf4:	03000d10 	movweq	r0, #3344	; 0xd10
    1bf8:	3b0b3a08 	blcc	2d0420 <__bss_end__+0x2c4870>
    1bfc:	3813490b 	ldmdacc	r3, {r0, r1, r3, r8, fp, lr}
    1c00:	1100000b 	tstne	r0, fp
    1c04:	0e030113 	mcreq	1, 0, r0, cr3, cr3, {0}
    1c08:	0b3a050b 	bleq	e8303c <__bss_end__+0xe7748c>
    1c0c:	13010b3b 	movwne	r0, #6971	; 0x1b3b
    1c10:	0d120000 	ldceq	0, cr0, [r2, #-0]
    1c14:	3a0e0300 	bcc	38281c <__bss_end__+0x376c6c>
    1c18:	490b3b0b 	stmdbmi	fp, {r0, r1, r3, r8, r9, fp, ip, sp}
    1c1c:	00053813 	andeq	r3, r5, r3, lsl r8
    1c20:	00151300 	andseq	r1, r5, r0, lsl #6
    1c24:	00001927 	andeq	r1, r0, r7, lsr #18
    1c28:	27011514 	smladcs	r1, r4, r5, r1
    1c2c:	01134919 	tsteq	r3, r9, lsl r9
    1c30:	15000013 	strne	r0, [r0, #-19]
    1c34:	13490005 	movtne	r0, #36869	; 0x9005
    1c38:	13160000 	tstne	r6, #0
    1c3c:	0b0e0301 	bleq	382848 <__bss_end__+0x376c98>
    1c40:	3b0b3a05 	blcc	2d045c <__bss_end__+0x2c48ac>
    1c44:	00130105 	andseq	r0, r3, r5, lsl #2
    1c48:	000d1700 	andeq	r1, sp, r0, lsl #14
    1c4c:	0b3a0e03 	bleq	e85460 <__bss_end__+0xe798b0>
    1c50:	1349053b 	movtne	r0, #38203	; 0x953b
    1c54:	00000b38 	andeq	r0, r0, r8, lsr fp
    1c58:	03000d18 	movweq	r0, #3352	; 0xd18
    1c5c:	3b0b3a0e 	blcc	2d049c <__bss_end__+0x2c48ec>
    1c60:	38134905 	ldmdacc	r3, {r0, r2, r8, fp, lr}
    1c64:	19000005 	stmdbne	r0, {r0, r2}
    1c68:	0e030113 	mcreq	1, 0, r0, cr3, cr3, {0}
    1c6c:	0b3a0b0b 	bleq	e848a0 <__bss_end__+0xe78cf0>
    1c70:	1301053b 	movwne	r0, #5435	; 0x153b
    1c74:	131a0000 	tstne	sl, #0
    1c78:	3a0b0b01 	bcc	2c4884 <__bss_end__+0x2b8cd4>
    1c7c:	01053b0b 	tsteq	r5, fp, lsl #22
    1c80:	1b000013 	blne	1cd4 <__code_start__-0x632c>
    1c84:	0b0b0117 	bleq	2c20e8 <__bss_end__+0x2b6538>
    1c88:	053b0b3a 	ldreq	r0, [fp, #-2874]!	; 0xb3a
    1c8c:	00001301 	andeq	r1, r0, r1, lsl #6
    1c90:	03000d1c 	movweq	r0, #3356	; 0xd1c
    1c94:	3b0b3a0e 	blcc	2d04d4 <__bss_end__+0x2c4924>
    1c98:	00134905 	andseq	r4, r3, r5, lsl #18
    1c9c:	01151d00 	tsteq	r5, r0, lsl #26
    1ca0:	13011927 	movwne	r1, #6439	; 0x1927
    1ca4:	341e0000 	ldrcc	r0, [lr], #-0
    1ca8:	3a0e0300 	bcc	3828b0 <__bss_end__+0x376d00>
    1cac:	49053b0b 	stmdbmi	r5, {r0, r1, r3, r8, r9, fp, ip, sp}
    1cb0:	3c193f13 	ldccc	15, cr3, [r9], {19}
    1cb4:	1f000019 	svcne	0x00000019
    1cb8:	0e030034 	mcreq	0, 0, r0, cr3, cr4, {1}
    1cbc:	0b3b0b3a 	bleq	ec49ac <__bss_end__+0xeb8dfc>
    1cc0:	193f1349 	ldmdbne	pc!, {r0, r3, r6, r8, r9, ip}	; <UNPREDICTABLE>
    1cc4:	0000193c 	andeq	r1, r0, ip, lsr r9
    1cc8:	0b010420 	bleq	42d50 <__bss_end__+0x371a0>
    1ccc:	3a13490b 	bcc	4d4100 <__bss_end__+0x4c8550>
    1cd0:	010b3b0b 	tsteq	fp, fp, lsl #22
    1cd4:	21000013 	tstcs	r0, r3, lsl r0
    1cd8:	0e030028 	cdpeq	0, 0, cr0, cr3, cr8, {1}
    1cdc:	00000b1c 	andeq	r0, r0, ip, lsl fp
    1ce0:	03003422 	movweq	r3, #1058	; 0x422
    1ce4:	3b0b3a0e 	blcc	2d0524 <__bss_end__+0x2c4974>
    1ce8:	1c13490b 	ldcne	9, cr4, [r3], {11}
    1cec:	23000006 	movwcs	r0, #6
    1cf0:	193f012e 	ldmdbne	pc!, {r1, r2, r3, r5, r8}	; <UNPREDICTABLE>
    1cf4:	0b3a0e03 	bleq	e85508 <__bss_end__+0xe79958>
    1cf8:	19270b3b 	stmdbne	r7!, {r0, r1, r3, r4, r5, r8, r9, fp}
    1cfc:	01111349 	tsteq	r1, r9, asr #6
    1d00:	18400612 	stmdane	r0, {r1, r4, r9, sl}^
    1d04:	01194297 			; <UNDEFINED> instruction: 0x01194297
    1d08:	24000013 	strcs	r0, [r0], #-19
    1d0c:	08030005 	stmdaeq	r3, {r0, r2}
    1d10:	0b3b0b3a 	bleq	ec4a00 <__bss_end__+0xeb8e50>
    1d14:	17021349 	strne	r1, [r2, -r9, asr #6]
    1d18:	34250000 	strtcc	r0, [r5], #-0
    1d1c:	3a0e0300 	bcc	382924 <__bss_end__+0x376d74>
    1d20:	490b3b0b 	stmdbmi	fp, {r0, r1, r3, r8, r9, fp, ip, sp}
    1d24:	00170213 	andseq	r0, r7, r3, lsl r2
    1d28:	00342600 	eorseq	r2, r4, r0, lsl #12
    1d2c:	0b3a0803 	bleq	e83d40 <__bss_end__+0xe78190>
    1d30:	13490b3b 	movtne	r0, #39739	; 0x9b3b
    1d34:	00001702 	andeq	r1, r0, r2, lsl #14
    1d38:	01828927 	orreq	r8, r2, r7, lsr #18
    1d3c:	31011101 	tstcc	r1, r1, lsl #2
    1d40:	28000013 	stmdacs	r0, {r0, r1, r4}
    1d44:	0001828a 	andeq	r8, r1, sl, lsl #5
    1d48:	42911802 	addsmi	r1, r1, #131072	; 0x20000
    1d4c:	29000018 	stmdbcs	r0, {r3, r4}
    1d50:	193f012e 	ldmdbne	pc!, {r1, r2, r3, r5, r8}	; <UNPREDICTABLE>
    1d54:	0b3a0e03 	bleq	e85568 <__bss_end__+0xe799b8>
    1d58:	19270b3b 	stmdbne	r7!, {r0, r1, r3, r4, r5, r8, r9, fp}
    1d5c:	06120111 			; <UNDEFINED> instruction: 0x06120111
    1d60:	42971840 	addsmi	r1, r7, #64, 16	; 0x400000
    1d64:	00130119 	andseq	r0, r3, r9, lsl r1
    1d68:	82892a00 	addhi	r2, r9, #0, 20
    1d6c:	01110101 	tsteq	r1, r1, lsl #2
    1d70:	13011331 	movwne	r1, #4913	; 0x1331
    1d74:	892b0000 	stmdbhi	fp!, {}	; <UNPREDICTABLE>
    1d78:	11000182 	smlabbne	r0, r2, r1, r0
    1d7c:	00133101 	andseq	r3, r3, r1, lsl #2
    1d80:	00052c00 	andeq	r2, r5, r0, lsl #24
    1d84:	0b3a0e03 	bleq	e85598 <__bss_end__+0xe799e8>
    1d88:	13490b3b 	movtne	r0, #39739	; 0x9b3b
    1d8c:	00001702 	andeq	r1, r0, r2, lsl #14
    1d90:	0300342d 	movweq	r3, #1069	; 0x42d
    1d94:	3b0b3a08 	blcc	2d05bc <__bss_end__+0x2c4a0c>
    1d98:	0213490b 	andseq	r4, r3, #180224	; 0x2c000
    1d9c:	2e000018 	mcrcs	0, 0, r0, cr0, cr8, {0}
    1da0:	193f002e 	ldmdbne	pc!, {r1, r2, r3, r5}	; <UNPREDICTABLE>
    1da4:	0e6e193c 	mcreq	9, 3, r1, cr14, cr12, {1}
    1da8:	0b3a0e03 	bleq	e855bc <__bss_end__+0xe79a0c>
    1dac:	00000b3b 	andeq	r0, r0, fp, lsr fp
    1db0:	01110100 	tsteq	r1, r0, lsl #2
    1db4:	0b130e25 	bleq	4c5650 <__bss_end__+0x4b9aa0>
    1db8:	0e1b0e03 	cdpeq	14, 1, cr0, cr11, cr3, {0}
    1dbc:	06120111 			; <UNDEFINED> instruction: 0x06120111
    1dc0:	00001710 	andeq	r1, r0, r0, lsl r7
    1dc4:	0b002402 	bleq	add4 <__FUNCTION__.4361+0x238>
    1dc8:	030b3e0b 	movweq	r3, #48651	; 0xbe0b
    1dcc:	03000008 	movweq	r0, #8
    1dd0:	0b0b0024 	bleq	2c1e68 <__bss_end__+0x2b62b8>
    1dd4:	0e030b3e 	vmoveq.16	d3[0], r0
    1dd8:	16040000 	strne	r0, [r4], -r0
    1ddc:	3a0e0300 	bcc	3829e4 <__bss_end__+0x376e34>
    1de0:	490b3b0b 	stmdbmi	fp, {r0, r1, r3, r8, r9, fp, ip, sp}
    1de4:	05000013 	streq	r0, [r0, #-19]
    1de8:	0e030016 	mcreq	0, 0, r0, cr3, cr6, {0}
    1dec:	053b0b3a 	ldreq	r0, [fp, #-2874]!	; 0xb3a
    1df0:	00001349 	andeq	r1, r0, r9, asr #6
    1df4:	0b011706 	bleq	47a14 <__bss_end__+0x3be64>
    1df8:	3b0b3a0b 	blcc	2d062c <__bss_end__+0x2c4a7c>
    1dfc:	0013010b 	andseq	r0, r3, fp, lsl #2
    1e00:	000d0700 	andeq	r0, sp, r0, lsl #14
    1e04:	0b3a0e03 	bleq	e85618 <__bss_end__+0xe79a68>
    1e08:	13490b3b 	movtne	r0, #39739	; 0x9b3b
    1e0c:	01080000 	mrseq	r0, (UNDEF: 8)
    1e10:	01134901 	tsteq	r3, r1, lsl #18
    1e14:	09000013 	stmdbeq	r0, {r0, r1, r4}
    1e18:	13490021 	movtne	r0, #36897	; 0x9021
    1e1c:	00000b2f 	andeq	r0, r0, pc, lsr #22
    1e20:	0b01130a 	bleq	46a50 <__bss_end__+0x3aea0>
    1e24:	3b0b3a0b 	blcc	2d0658 <__bss_end__+0x2c4aa8>
    1e28:	0013010b 	andseq	r0, r3, fp, lsl #2
    1e2c:	000d0b00 	andeq	r0, sp, r0, lsl #22
    1e30:	0b3a0e03 	bleq	e85644 <__bss_end__+0xe79a94>
    1e34:	13490b3b 	movtne	r0, #39739	; 0x9b3b
    1e38:	00000b38 	andeq	r0, r0, r8, lsr fp
    1e3c:	0b000f0c 	bleq	5a74 <__code_start__-0x258c>
    1e40:	0d00000b 	stceq	0, cr0, [r0, #-44]	; 0xffffffd4
    1e44:	0b0b000f 	bleq	2c1e88 <__bss_end__+0x2b62d8>
    1e48:	00001349 	andeq	r1, r0, r9, asr #6
    1e4c:	4900260e 	stmdbmi	r0, {r1, r2, r3, r9, sl, sp}
    1e50:	0f000013 	svceq	0x00000013
    1e54:	0e030113 	mcreq	1, 0, r0, cr3, cr3, {0}
    1e58:	0b3a0b0b 	bleq	e84a8c <__bss_end__+0xe78edc>
    1e5c:	13010b3b 	movwne	r0, #6971	; 0x1b3b
    1e60:	0d100000 	ldceq	0, cr0, [r0, #-0]
    1e64:	3a080300 	bcc	202a6c <__bss_end__+0x1f6ebc>
    1e68:	490b3b0b 	stmdbmi	fp, {r0, r1, r3, r8, r9, fp, ip, sp}
    1e6c:	000b3813 	andeq	r3, fp, r3, lsl r8
    1e70:	01131100 	tsteq	r3, r0, lsl #2
    1e74:	050b0e03 	streq	r0, [fp, #-3587]	; 0xe03
    1e78:	0b3b0b3a 	bleq	ec4b68 <__bss_end__+0xeb8fb8>
    1e7c:	00001301 	andeq	r1, r0, r1, lsl #6
    1e80:	03000d12 	movweq	r0, #3346	; 0xd12
    1e84:	3b0b3a0e 	blcc	2d06c4 <__bss_end__+0x2c4b14>
    1e88:	3813490b 	ldmdacc	r3, {r0, r1, r3, r8, fp, lr}
    1e8c:	13000005 	movwne	r0, #5
    1e90:	19270015 	stmdbne	r7!, {r0, r2, r4}
    1e94:	15140000 	ldrne	r0, [r4, #-0]
    1e98:	49192701 	ldmdbmi	r9, {r0, r8, r9, sl, sp}
    1e9c:	00130113 	andseq	r0, r3, r3, lsl r1
    1ea0:	00051500 	andeq	r1, r5, r0, lsl #10
    1ea4:	00001349 	andeq	r1, r0, r9, asr #6
    1ea8:	03011316 	movweq	r1, #4886	; 0x1316
    1eac:	3a050b0e 	bcc	144aec <__bss_end__+0x138f3c>
    1eb0:	01053b0b 	tsteq	r5, fp, lsl #22
    1eb4:	17000013 	smladne	r0, r3, r0, r0
    1eb8:	0e03000d 	cdpeq	0, 0, cr0, cr3, cr13, {0}
    1ebc:	053b0b3a 	ldreq	r0, [fp, #-2874]!	; 0xb3a
    1ec0:	0b381349 	bleq	e06bec <__bss_end__+0xdfb03c>
    1ec4:	0d180000 	ldceq	0, cr0, [r8, #-0]
    1ec8:	3a0e0300 	bcc	382ad0 <__bss_end__+0x376f20>
    1ecc:	49053b0b 	stmdbmi	r5, {r0, r1, r3, r8, r9, fp, ip, sp}
    1ed0:	00053813 	andeq	r3, r5, r3, lsl r8
    1ed4:	01131900 	tsteq	r3, r0, lsl #18
    1ed8:	0b0b0e03 	bleq	2c56ec <__bss_end__+0x2b9b3c>
    1edc:	053b0b3a 	ldreq	r0, [fp, #-2874]!	; 0xb3a
    1ee0:	00001301 	andeq	r1, r0, r1, lsl #6
    1ee4:	0b01131a 	bleq	46b54 <__bss_end__+0x3afa4>
    1ee8:	3b0b3a0b 	blcc	2d071c <__bss_end__+0x2c4b6c>
    1eec:	00130105 	andseq	r0, r3, r5, lsl #2
    1ef0:	01171b00 	tsteq	r7, r0, lsl #22
    1ef4:	0b3a0b0b 	bleq	e84b28 <__bss_end__+0xe78f78>
    1ef8:	1301053b 	movwne	r0, #5435	; 0x153b
    1efc:	0d1c0000 	ldceq	0, cr0, [ip, #-0]
    1f00:	3a0e0300 	bcc	382b08 <__bss_end__+0x376f58>
    1f04:	49053b0b 	stmdbmi	r5, {r0, r1, r3, r8, r9, fp, ip, sp}
    1f08:	1d000013 	stcne	0, cr0, [r0, #-76]	; 0xffffffb4
    1f0c:	19270115 	stmdbne	r7!, {r0, r2, r4, r8}
    1f10:	00001301 	andeq	r1, r0, r1, lsl #6
    1f14:	0300341e 	movweq	r3, #1054	; 0x41e
    1f18:	3b0b3a0e 	blcc	2d0758 <__bss_end__+0x2c4ba8>
    1f1c:	3f134905 	svccc	0x00134905
    1f20:	00193c19 	andseq	r3, r9, r9, lsl ip
    1f24:	00341f00 	eorseq	r1, r4, r0, lsl #30
    1f28:	0b3a0e03 	bleq	e8573c <__bss_end__+0xe79b8c>
    1f2c:	13490b3b 	movtne	r0, #39739	; 0x9b3b
    1f30:	193c193f 	ldmdbne	ip!, {r0, r1, r2, r3, r4, r5, r8, fp, ip}
    1f34:	34200000 	strtcc	r0, [r0], #-0
    1f38:	3a0e0300 	bcc	382b40 <__bss_end__+0x376f90>
    1f3c:	490b3b0b 	stmdbmi	fp, {r0, r1, r3, r8, r9, fp, ip, sp}
    1f40:	00180213 	andseq	r0, r8, r3, lsl r2
    1f44:	012e2100 	teqeq	lr, r0, lsl #2
    1f48:	0e03193f 	mcreq	9, 0, r1, cr3, cr15, {1}
    1f4c:	0b3b0b3a 	bleq	ec4c3c <__bss_end__+0xeb908c>
    1f50:	01111927 	tsteq	r1, r7, lsr #18
    1f54:	18400612 	stmdane	r0, {r1, r4, r9, sl}^
    1f58:	01194297 			; <UNDEFINED> instruction: 0x01194297
    1f5c:	22000013 	andcs	r0, r0, #19
    1f60:	08030005 	stmdaeq	r3, {r0, r2}
    1f64:	0b3b0b3a 	bleq	ec4c54 <__bss_end__+0xeb90a4>
    1f68:	18021349 	stmdane	r2, {r0, r3, r6, r8, r9, ip}
    1f6c:	2e230000 	cdpcs	0, 2, cr0, cr3, cr0, {0}
    1f70:	03193f00 	tsteq	r9, #0, 30
    1f74:	3b0b3a0e 	blcc	2d07b4 <__bss_end__+0x2c4c04>
    1f78:	1119270b 	tstne	r9, fp, lsl #14
    1f7c:	40061201 	andmi	r1, r6, r1, lsl #4
    1f80:	19429718 	stmdbne	r2, {r3, r4, r8, r9, sl, ip, pc}^
    1f84:	2e240000 	cdpcs	0, 2, cr0, cr4, cr0, {0}
    1f88:	03193f01 	tsteq	r9, #1, 30
    1f8c:	3b0b3a0e 	blcc	2d07cc <__bss_end__+0x2c4c1c>
    1f90:	4919270b 	ldmdbmi	r9, {r0, r1, r3, r8, r9, sl, sp}
    1f94:	12011113 	andne	r1, r1, #-1073741820	; 0xc0000004
    1f98:	97184006 	ldrls	r4, [r8, -r6]
    1f9c:	13011942 	movwne	r1, #6466	; 0x1942
    1fa0:	05250000 	streq	r0, [r5, #-0]!
    1fa4:	3a0e0300 	bcc	382bac <__bss_end__+0x376ffc>
    1fa8:	490b3b0b 	stmdbmi	fp, {r0, r1, r3, r8, r9, fp, ip, sp}
    1fac:	00170213 	andseq	r0, r7, r3, lsl r2
    1fb0:	00342600 	eorseq	r2, r4, r0, lsl #12
    1fb4:	13490e03 	movtne	r0, #40451	; 0x9e03
    1fb8:	18021934 	stmdane	r2, {r2, r4, r5, r8, fp, ip}
    1fbc:	34270000 	strtcc	r0, [r7], #-0
    1fc0:	3a080300 	bcc	202bc8 <__bss_end__+0x1f7018>
    1fc4:	490b3b0b 	stmdbmi	fp, {r0, r1, r3, r8, r9, fp, ip, sp}
    1fc8:	00170213 	andseq	r0, r7, r3, lsl r2
    1fcc:	82892800 	addhi	r2, r9, #0, 16
    1fd0:	01110101 	tsteq	r1, r1, lsl #2
    1fd4:	13011331 	movwne	r1, #4913	; 0x1331
    1fd8:	8a290000 	bhi	a41fe0 <__bss_end__+0xa36430>
    1fdc:	02000182 	andeq	r0, r0, #-2147483616	; 0x80000020
    1fe0:	18429118 	stmdane	r2, {r3, r4, r8, ip, pc}^
    1fe4:	892a0000 	stmdbhi	sl!, {}	; <UNPREDICTABLE>
    1fe8:	11000182 	smlabbne	r0, r2, r1, r0
    1fec:	00133101 	andseq	r3, r3, r1, lsl #2
    1ff0:	00052b00 	andeq	r2, r5, r0, lsl #22
    1ff4:	0b3a0803 	bleq	e84008 <__bss_end__+0xe78458>
    1ff8:	13490b3b 	movtne	r0, #39739	; 0x9b3b
    1ffc:	00001702 	andeq	r1, r0, r2, lsl #14
    2000:	0300342c 	movweq	r3, #1068	; 0x42c
    2004:	3b0b3a0e 	blcc	2d0844 <__bss_end__+0x2c4c94>
    2008:	0213490b 	andseq	r4, r3, #180224	; 0x2c000
    200c:	2d000017 	stccs	0, cr0, [r0, #-92]	; 0xffffffa4
    2010:	193f002e 	ldmdbne	pc!, {r1, r2, r3, r5}	; <UNPREDICTABLE>
    2014:	0b3a0e03 	bleq	e85828 <__bss_end__+0xe79c78>
    2018:	19270b3b 	stmdbne	r7!, {r0, r1, r3, r4, r5, r8, r9, fp}
    201c:	01111349 	tsteq	r1, r9, asr #6
    2020:	18400612 	stmdane	r0, {r1, r4, r9, sl}^
    2024:	00194297 	mulseq	r9, r7, r2
    2028:	002e2e00 	eoreq	r2, lr, r0, lsl #28
    202c:	193c193f 	ldmdbne	ip!, {r0, r1, r2, r3, r4, r5, r8, fp, ip}
    2030:	0e030e6e 	cdpeq	14, 0, cr0, cr3, cr14, {3}
    2034:	0b3b0b3a 	bleq	ec4d24 <__bss_end__+0xeb9174>
    2038:	01000000 	mrseq	r0, (UNDEF: 0)
    203c:	0e250111 	mcreq	1, 1, r0, cr5, cr1, {0}
    2040:	0e030b13 	vmoveq.32	d3[0], r0
    2044:	01110e1b 	tsteq	r1, fp, lsl lr
    2048:	17100612 			; <UNDEFINED> instruction: 0x17100612
    204c:	24020000 	strcs	r0, [r2], #-0
    2050:	3e0b0b00 	vmlacc.f64	d0, d11, d0
    2054:	0008030b 	andeq	r0, r8, fp, lsl #6
    2058:	00240300 	eoreq	r0, r4, r0, lsl #6
    205c:	0b3e0b0b 	bleq	f84c90 <__bss_end__+0xf790e0>
    2060:	00000e03 	andeq	r0, r0, r3, lsl #28
    2064:	0b000f04 	bleq	5c7c <__code_start__-0x2384>
    2068:	0013490b 	andseq	r4, r3, fp, lsl #18
    206c:	00260500 	eoreq	r0, r6, r0, lsl #10
    2070:	00001349 	andeq	r1, r0, r9, asr #6
    2074:	3f012e06 	svccc	0x00012e06
    2078:	3a0e0319 	bcc	382ce4 <__bss_end__+0x377134>
    207c:	270b3b0b 	strcs	r3, [fp, -fp, lsl #22]
    2080:	12011119 	andne	r1, r1, #1073741830	; 0x40000006
    2084:	97184006 	ldrls	r4, [r8, -r6]
    2088:	13011942 	movwne	r1, #6466	; 0x1942
    208c:	05070000 	streq	r0, [r7, #-0]
    2090:	3a080300 	bcc	202c98 <__bss_end__+0x1f70e8>
    2094:	490b3b0b 	stmdbmi	fp, {r0, r1, r3, r8, r9, fp, ip, sp}
    2098:	00170213 	andseq	r0, r7, r3, lsl r2
    209c:	00340800 	eorseq	r0, r4, r0, lsl #16
    20a0:	13490e03 	movtne	r0, #40451	; 0x9e03
    20a4:	18021934 	stmdane	r2, {r2, r4, r5, r8, fp, ip}
    20a8:	89090000 	stmdbhi	r9, {}	; <UNPREDICTABLE>
    20ac:	11000182 	smlabbne	r0, r2, r1, r0
    20b0:	00133101 	andseq	r3, r3, r1, lsl #2
    20b4:	82890a00 	addhi	r0, r9, #0, 20
    20b8:	01110101 	tsteq	r1, r1, lsl #2
    20bc:	13011331 	movwne	r1, #4913	; 0x1331
    20c0:	8a0b0000 	bhi	2c20c8 <__bss_end__+0x2b6518>
    20c4:	02000182 	andeq	r0, r0, #-2147483616	; 0x80000020
    20c8:	18429118 	stmdane	r2, {r3, r4, r8, ip, pc}^
    20cc:	010c0000 	mrseq	r0, (UNDEF: 12)
    20d0:	01134901 	tsteq	r3, r1, lsl #18
    20d4:	0d000013 	stceq	0, cr0, [r0, #-76]	; 0xffffffb4
    20d8:	13490021 	movtne	r0, #36897	; 0x9021
    20dc:	00000b2f 	andeq	r0, r0, pc, lsr #22
    20e0:	3f002e0e 	svccc	0x00002e0e
    20e4:	3a0e0319 	bcc	382d50 <__bss_end__+0x3771a0>
    20e8:	270b3b0b 	strcs	r3, [fp, -fp, lsl #22]
    20ec:	00193c19 	andseq	r3, r9, r9, lsl ip
    20f0:	012e0f00 	teqeq	lr, r0, lsl #30
    20f4:	0e03193f 	mcreq	9, 0, r1, cr3, cr15, {1}
    20f8:	0b3b0b3a 	bleq	ec4de8 <__bss_end__+0xeb9238>
    20fc:	13491927 	movtne	r1, #39207	; 0x9927
    2100:	1301193c 	movwne	r1, #6460	; 0x193c
    2104:	05100000 	ldreq	r0, [r0, #-0]
    2108:	00134900 	andseq	r4, r3, r0, lsl #18
    210c:	00181100 	andseq	r1, r8, r0, lsl #2
    2110:	Address 0x0000000000002110 is out of bounds.


Disassembly of section .debug_loc:

00000000 <.debug_loc>:
       0:	00000048 	andeq	r0, r0, r8, asr #32
       4:	0000004b 	andeq	r0, r0, fp, asr #32
       8:	4b500001 	blmi	1400014 <__bss_end__+0x13f4464>
       c:	6c000000 	stcvs	0, cr0, [r0], {-0}
      10:	01000000 	mrseq	r0, (UNDEF: 0)
      14:	00005400 	andeq	r5, r0, r0, lsl #8
      18:	00000000 	andeq	r0, r0, r0
      1c:	00680000 	rsbeq	r0, r8, r0
      20:	00740000 	rsbseq	r0, r4, r0
      24:	00020000 	andeq	r0, r2, r0
      28:	00749f30 	rsbseq	r9, r4, r0, lsr pc
      2c:	00c80000 	sbceq	r0, r8, r0
      30:	00010000 	andeq	r0, r1, r0
      34:	00000054 	andeq	r0, r0, r4, asr r0
      38:	00000000 	andeq	r0, r0, r0
      3c:	00000400 	andeq	r0, r0, r0, lsl #8
      40:	00002300 	andeq	r2, r0, r0, lsl #6
      44:	50000100 	andpl	r0, r0, r0, lsl #2
      48:	00000023 	andeq	r0, r0, r3, lsr #32
      4c:	0000003c 	andeq	r0, r0, ip, lsr r0
      50:	3c540001 	mrrccc	0, 0, r0, r4, cr1
      54:	40000000 	andmi	r0, r0, r0
      58:	01000000 	mrseq	r0, (UNDEF: 0)
      5c:	00405000 	subeq	r5, r0, r0
      60:	00a40000 	adceq	r0, r4, r0
      64:	00010000 	andeq	r0, r1, r0
      68:	00000054 	andeq	r0, r0, r4, asr r0
      6c:	00000000 	andeq	r0, r0, r0
      70:	00000400 	andeq	r0, r0, r0, lsl #8
      74:	00002300 	andeq	r2, r0, r0, lsl #6
      78:	51000100 	mrspl	r0, (UNDEF: 16)
      7c:	00000023 	andeq	r0, r0, r3, lsr #32
      80:	0000003c 	andeq	r0, r0, ip, lsr r0
      84:	3c550001 	mrrccc	0, 0, r0, r5, cr1
      88:	44000000 	strmi	r0, [r0], #-0
      8c:	01000000 	mrseq	r0, (UNDEF: 0)
      90:	00445100 	subeq	r5, r4, r0, lsl #2
      94:	00600000 	rsbeq	r0, r0, r0
      98:	00010000 	andeq	r0, r1, r0
      9c:	00006055 	andeq	r6, r0, r5, asr r0
      a0:	0000a400 	andeq	sl, r0, r0, lsl #8
      a4:	f3000400 	vshl.u8	d0, d0, d0
      a8:	009f5101 	addseq	r5, pc, r1, lsl #2
      ac:	00000000 	andeq	r0, r0, r0
      b0:	a4000000 	strge	r0, [r0], #-0
      b4:	d7000000 	strle	r0, [r0, -r0]
      b8:	01000000 	mrseq	r0, (UNDEF: 0)
      bc:	00d75000 	sbcseq	r5, r7, r0
      c0:	00ec0000 	rsceq	r0, ip, r0
      c4:	00010000 	andeq	r0, r1, r0
      c8:	00000054 	andeq	r0, r0, r4, asr r0
      cc:	00000000 	andeq	r0, r0, r0
      d0:	0000ec00 	andeq	lr, r0, r0, lsl #24
      d4:	0000f700 	andeq	pc, r0, r0, lsl #14
      d8:	50000100 	andpl	r0, r0, r0, lsl #2
      dc:	000000f7 	strdeq	r0, [r0], -r7
      e0:	00000164 	andeq	r0, r0, r4, ror #2
      e4:	00540001 	subseq	r0, r4, r1
      e8:	00000000 	andeq	r0, r0, r0
      ec:	f8000000 			; <UNDEFINED> instruction: 0xf8000000
      f0:	07000000 	streq	r0, [r0, -r0]
      f4:	01000001 	tsteq	r0, r1
      f8:	01205000 	teqeq	r0, r0
      fc:	01330000 	teqeq	r3, r0
     100:	00010000 	andeq	r0, r1, r0
     104:	00014c50 	andeq	r4, r1, r0, asr ip
     108:	00015000 	andeq	r5, r1, r0
     10c:	50000100 	andpl	r0, r0, r0, lsl #2
	...
     118:	00000164 	andeq	r0, r0, r4, ror #2
     11c:	00000190 	muleq	r0, r0, r1
     120:	90500001 	subsls	r0, r0, r1
     124:	a0000001 	andge	r0, r0, r1
     128:	04000001 	streq	r0, [r0], #-1
     12c:	5001f300 	andpl	pc, r1, r0, lsl #6
     130:	0001a09f 	muleq	r1, pc, r0	; <UNPREDICTABLE>
     134:	0001b000 	andeq	fp, r1, r0
     138:	50000100 	andpl	r0, r0, r0, lsl #2
     13c:	000001b0 			; <UNDEFINED> instruction: 0x000001b0
     140:	000001b4 			; <UNDEFINED> instruction: 0x000001b4
     144:	01f30004 	mvnseq	r0, r4
     148:	01b49f50 			; <UNDEFINED> instruction: 0x01b49f50
     14c:	01b80000 			; <UNDEFINED> instruction: 0x01b80000
     150:	00010000 	andeq	r0, r1, r0
     154:	0001b850 	andeq	fp, r1, r0, asr r8
     158:	0001c400 	andeq	ip, r1, r0, lsl #8
     15c:	f3000400 	vshl.u8	d0, d0, d0
     160:	009f5001 	addseq	r5, pc, r1
     164:	00000000 	andeq	r0, r0, r0
     168:	64000000 	strvs	r0, [r0], #-0
     16c:	94000001 	strls	r0, [r0], #-1
     170:	01000001 	tsteq	r0, r1
     174:	01945100 	orrseq	r5, r4, r0, lsl #2
     178:	01a00000 	moveq	r0, r0
     17c:	00040000 	andeq	r0, r4, r0
     180:	9f5101f3 	svcls	0x005101f3
     184:	000001a0 	andeq	r0, r0, r0, lsr #3
     188:	000001c4 	andeq	r0, r0, r4, asr #3
     18c:	00510001 	subseq	r0, r1, r1
     190:	00000000 	andeq	r0, r0, r0
     194:	64000000 	strvs	r0, [r0], #-0
     198:	97000001 	strls	r0, [r0, -r1]
     19c:	01000001 	tsteq	r0, r1
     1a0:	01975200 	orrseq	r5, r7, r0, lsl #4
     1a4:	01a00000 	moveq	r0, r0
     1a8:	00040000 	andeq	r0, r4, r0
     1ac:	9f5201f3 	svcls	0x005201f3
     1b0:	000001a0 	andeq	r0, r0, r0, lsr #3
     1b4:	000001c4 	andeq	r0, r0, r4, asr #3
     1b8:	00520001 	subseq	r0, r2, r1
     1bc:	00000000 	andeq	r0, r0, r0
     1c0:	68000000 	stmdavs	r0, {}	; <UNPREDICTABLE>
     1c4:	70000001 	andvc	r0, r0, r1
     1c8:	02000001 	andeq	r0, r0, #1
     1cc:	a09f3000 	addsge	r3, pc, r0
     1d0:	a4000001 	strge	r0, [r0], #-1
     1d4:	03000001 	movweq	r0, #1
     1d8:	9f017300 	svcls	0x00017300
	...
     1e4:	000001c4 	andeq	r0, r0, r4, asr #3
     1e8:	000001d3 	ldrdeq	r0, [r0], -r3
     1ec:	d3500001 	cmple	r0, #1
     1f0:	d8000001 	stmdale	r0, {r0}
     1f4:	04000001 	streq	r0, [r0], #-1
     1f8:	5001f300 	andpl	pc, r1, r0, lsl #6
     1fc:	0000009f 	muleq	r0, pc, r0	; <UNPREDICTABLE>
     200:	00000000 	andeq	r0, r0, r0
     204:	0001c400 	andeq	ip, r1, r0, lsl #8
     208:	0001d000 	andeq	sp, r1, r0
     20c:	51000100 	mrspl	r0, (UNDEF: 16)
     210:	000001d0 	ldrdeq	r0, [r0], -r0	; <UNPREDICTABLE>
     214:	000001d3 	ldrdeq	r0, [r0], -r3
     218:	d3520001 	cmple	r2, #1
     21c:	d8000001 	stmdale	r0, {r0}
     220:	04000001 	streq	r0, [r0], #-1
     224:	5101f300 	mrspl	pc, SP_irq	; <UNPREDICTABLE>
     228:	0000009f 	muleq	r0, pc, r0	; <UNPREDICTABLE>
     22c:	00000000 	andeq	r0, r0, r0
     230:	0001d800 	andeq	sp, r1, r0, lsl #16
     234:	0001e300 	andeq	lr, r1, r0, lsl #6
     238:	50000100 	andpl	r0, r0, r0, lsl #2
     23c:	000001e3 	andeq	r0, r0, r3, ror #3
     240:	00000248 	andeq	r0, r0, r8, asr #4
     244:	00540001 	subseq	r0, r4, r1
     248:	00000000 	andeq	r0, r0, r0
     24c:	04000000 	streq	r0, [r0], #-0
     250:	30000002 	andcc	r0, r0, r2
     254:	01000002 	tsteq	r0, r2
     258:	02405400 	subeq	r5, r0, #0, 8
     25c:	02480000 	subeq	r0, r8, #0
     260:	00010000 	andeq	r0, r1, r0
     264:	00000054 	andeq	r0, r0, r4, asr r0
     268:	00000000 	andeq	r0, r0, r0
     26c:	00020c00 	andeq	r0, r2, r0, lsl #24
     270:	00023000 	andeq	r3, r2, r0
     274:	54000100 	strpl	r0, [r0], #-256	; 0x100
     278:	00000240 	andeq	r0, r0, r0, asr #4
     27c:	00000248 	andeq	r0, r0, r8, asr #4
     280:	00540001 	subseq	r0, r4, r1
     284:	00000000 	andeq	r0, r0, r0
     288:	48000000 	stmdami	r0, {}	; <UNPREDICTABLE>
     28c:	60000002 	andvs	r0, r0, r2
     290:	01000002 	tsteq	r0, r2
     294:	02605000 	rsbeq	r5, r0, #0
     298:	031c0000 	tsteq	ip, #0
     29c:	00010000 	andeq	r0, r1, r0
     2a0:	00000054 	andeq	r0, r0, r4, asr r0
     2a4:	00000000 	andeq	r0, r0, r0
     2a8:	00024800 	andeq	r4, r2, r0, lsl #16
     2ac:	00026f00 	andeq	r6, r2, r0, lsl #30
     2b0:	51000100 	mrspl	r0, (UNDEF: 16)
     2b4:	0000026f 	andeq	r0, r0, pc, ror #4
     2b8:	00000288 	andeq	r0, r0, r8, lsl #5
     2bc:	88580001 	ldmdahi	r8, {r0}^
     2c0:	8f000002 	svchi	0x00000002
     2c4:	01000002 	tsteq	r0, r2
     2c8:	028f5100 	addeq	r5, pc, #0, 2
     2cc:	031c0000 	tsteq	ip, #0
     2d0:	00010000 	andeq	r0, r1, r0
     2d4:	00000058 	andeq	r0, r0, r8, asr r0
     2d8:	00000000 	andeq	r0, r0, r0
     2dc:	00024800 	andeq	r4, r2, r0, lsl #16
     2e0:	00026f00 	andeq	r6, r2, r0, lsl #30
     2e4:	52000100 	andpl	r0, r0, #0, 2
     2e8:	0000026f 	andeq	r0, r0, pc, ror #4
     2ec:	00000288 	andeq	r0, r0, r8, lsl #5
     2f0:	88570001 	ldmdahi	r7, {r0}^
     2f4:	8f000002 	svchi	0x00000002
     2f8:	01000002 	tsteq	r0, r2
     2fc:	028f5200 	addeq	r5, pc, #0, 4
     300:	031c0000 	tsteq	ip, #0
     304:	00010000 	andeq	r0, r1, r0
     308:	00000057 	andeq	r0, r0, r7, asr r0
     30c:	00000000 	andeq	r0, r0, r0
     310:	00024800 	andeq	r4, r2, r0, lsl #16
     314:	00026f00 	andeq	r6, r2, r0, lsl #30
     318:	53000100 	movwpl	r0, #256	; 0x100
     31c:	0000026f 	andeq	r0, r0, pc, ror #4
     320:	00000288 	andeq	r0, r0, r8, lsl #5
     324:	88560001 	ldmdahi	r6, {r0}^
     328:	8f000002 	svchi	0x00000002
     32c:	01000002 	tsteq	r0, r2
     330:	028f5300 	addeq	r5, pc, #0, 6
     334:	031c0000 	tsteq	ip, #0
     338:	00010000 	andeq	r0, r1, r0
     33c:	00000056 	andeq	r0, r0, r6, asr r0
     340:	00000000 	andeq	r0, r0, r0
     344:	00025c00 	andeq	r5, r2, r0, lsl #24
     348:	0002a000 	andeq	sl, r2, r0
     34c:	30000200 	andcc	r0, r0, r0, lsl #4
     350:	0000009f 	muleq	r0, pc, r0	; <UNPREDICTABLE>
     354:	00000000 	andeq	r0, r0, r0
     358:	00031c00 	andeq	r1, r3, r0, lsl #24
     35c:	00034700 	andeq	r4, r3, r0, lsl #14
     360:	50000100 	andpl	r0, r0, r0, lsl #2
     364:	00000347 	andeq	r0, r0, r7, asr #6
     368:	00000360 	andeq	r0, r0, r0, ror #6
     36c:	60550001 	subsvs	r0, r5, r1
     370:	64000003 	strvs	r0, [r0], #-3
     374:	01000003 	tsteq	r0, r3
     378:	03645000 	cmneq	r4, #0
     37c:	03e40000 	mvneq	r0, #0
     380:	00010000 	andeq	r0, r1, r0
     384:	0003e455 	andeq	lr, r3, r5, asr r4
     388:	00043000 	andeq	r3, r4, r0
     38c:	f3000400 	vshl.u8	d0, d0, d0
     390:	309f5001 	addscc	r5, pc, r1
     394:	1c000004 	stcne	0, cr0, [r0], {4}
     398:	01000005 	tsteq	r0, r5
     39c:	051c5500 	ldreq	r5, [ip, #-1280]	; 0x500
     3a0:	055c0000 	ldrbeq	r0, [ip, #-0]
     3a4:	00040000 	andeq	r0, r4, r0
     3a8:	9f5001f3 	svcls	0x005001f3
	...
     3b4:	0000031c 	andeq	r0, r0, ip, lsl r3
     3b8:	00000347 	andeq	r0, r0, r7, asr #6
     3bc:	47510001 	ldrbmi	r0, [r1, -r1]
     3c0:	60000003 	andvs	r0, r0, r3
     3c4:	01000003 	tsteq	r0, r3
     3c8:	03605900 	cmneq	r0, #0, 18
     3cc:	03670000 	cmneq	r7, #0
     3d0:	00010000 	andeq	r0, r1, r0
     3d4:	00036751 	andeq	r6, r3, r1, asr r7
     3d8:	00051c00 	andeq	r1, r5, r0, lsl #24
     3dc:	59000100 	stmdbpl	r0, {r8}
     3e0:	0000051c 	andeq	r0, r0, ip, lsl r5
     3e4:	0000055c 	andeq	r0, r0, ip, asr r5
     3e8:	01f30004 	mvnseq	r0, r4
     3ec:	00009f51 	andeq	r9, r0, r1, asr pc
     3f0:	00000000 	andeq	r0, r0, r0
     3f4:	031c0000 	tsteq	ip, #0
     3f8:	03470000 	movteq	r0, #28672	; 0x7000
     3fc:	00010000 	andeq	r0, r1, r0
     400:	00034752 	andeq	r4, r3, r2, asr r7
     404:	00036000 	andeq	r6, r3, r0
     408:	58000100 	stmdapl	r0, {r8}
     40c:	00000360 	andeq	r0, r0, r0, ror #6
     410:	00000367 	andeq	r0, r0, r7, ror #6
     414:	67520001 	ldrbvs	r0, [r2, -r1]
     418:	1c000003 	stcne	0, cr0, [r0], {3}
     41c:	01000005 	tsteq	r0, r5
     420:	051c5800 	ldreq	r5, [ip, #-2048]	; 0x800
     424:	055c0000 	ldrbeq	r0, [ip, #-0]
     428:	00040000 	andeq	r0, r4, r0
     42c:	9f5201f3 	svcls	0x005201f3
	...
     438:	0000031c 	andeq	r0, r0, ip, lsl r3
     43c:	00000338 	andeq	r0, r0, r8, lsr r3
     440:	38530001 	ldmdacc	r3, {r0}^
     444:	88000003 	stmdahi	r0, {r0, r1}
     448:	01000004 	tsteq	r0, r4
     44c:	04885700 	streq	r5, [r8], #1792	; 0x700
     450:	055c0000 	ldrbeq	r0, [ip, #-0]
     454:	00040000 	andeq	r0, r4, r0
     458:	9f5301f3 	svcls	0x005301f3
	...
     464:	00000334 	andeq	r0, r0, r4, lsr r3
     468:	00000430 	andeq	r0, r0, r0, lsr r4
     46c:	9f300002 	svcls	0x00300002
     470:	00000430 	andeq	r0, r0, r0, lsr r4
     474:	0000051c 	andeq	r0, r0, ip, lsl r5
     478:	1c540001 	mrrcne	0, 0, r0, r4, cr1
     47c:	5c000005 	stcpl	0, cr0, [r0], {5}
     480:	04000005 	streq	r0, [r0], #-5
     484:	7ec87000 	cdpvc	0, 12, cr7, cr8, cr0, {0}
     488:	0000009f 	muleq	r0, pc, r0	; <UNPREDICTABLE>
     48c:	00000000 	andeq	r0, r0, r0
     490:	00033400 	andeq	r3, r3, r0, lsl #8
     494:	00049c00 	andeq	r9, r4, r0, lsl #24
     498:	30000200 	andcc	r0, r0, r0, lsl #4
     49c:	0000009f 	muleq	r0, pc, r0	; <UNPREDICTABLE>
     4a0:	00000000 	andeq	r0, r0, r0
     4a4:	00037c00 	andeq	r7, r3, r0, lsl #24
     4a8:	00038f00 	andeq	r8, r3, r0, lsl #30
     4ac:	53000100 	movwpl	r0, #256	; 0x100
     4b0:	0000038f 	andeq	r0, r0, pc, lsl #7
     4b4:	000003bc 			; <UNDEFINED> instruction: 0x000003bc
     4b8:	c8760004 	ldmdagt	r6!, {r2}^
     4bc:	03bc9f7d 			; <UNDEFINED> instruction: 0x03bc9f7d
     4c0:	03df0000 	bicseq	r0, pc, #0
     4c4:	00010000 	andeq	r0, r1, r0
     4c8:	0003df53 	andeq	sp, r3, r3, asr pc
     4cc:	00043000 	andeq	r3, r4, r0
     4d0:	76000400 	strvc	r0, [r0], -r0, lsl #8
     4d4:	309f7dc8 	addscc	r7, pc, r8, asr #27
     4d8:	40000004 	andmi	r0, r0, r4
     4dc:	01000004 	tsteq	r0, r4
     4e0:	04405300 	strbeq	r5, [r0], #-768	; 0x300
     4e4:	051c0000 	ldreq	r0, [ip, #-0]
     4e8:	00040000 	andeq	r0, r4, r0
     4ec:	9f7dc876 	svcls	0x007dc876
     4f0:	0000051c 	andeq	r0, r0, ip, lsl r5
     4f4:	0000055c 	andeq	r0, r0, ip, asr r5
     4f8:	01f30009 	mvnseq	r0, r9
     4fc:	09072350 	stmdbeq	r7, {r4, r6, r8, r9, sp}
     500:	009f1af8 			; <UNDEFINED> instruction: 0x009f1af8
     504:	00000000 	andeq	r0, r0, r0
     508:	80000000 	andhi	r0, r0, r0
     50c:	1c000003 	stcne	0, cr0, [r0], {3}
     510:	01000005 	tsteq	r0, r5
     514:	051c5600 	ldreq	r5, [ip, #-1536]	; 0x600
     518:	055c0000 	ldrbeq	r0, [ip, #-0]
     51c:	000c0000 	andeq	r0, ip, r0
     520:	235001f3 	cmpcs	r0, #-1073741764	; 0xc000003c
     524:	1af80907 	bne	ffe02948 <__bss_end__+0xffdf6d98>
     528:	9f02b823 	svcls	0x0002b823
	...
     534:	00000484 	andeq	r0, r0, r4, lsl #9
     538:	0000051c 	andeq	r0, r0, ip, lsl r5
     53c:	1c540001 	mrrcne	0, 0, r0, r4, cr1
     540:	5c000005 	stcpl	0, cr0, [r0], {5}
     544:	04000005 	streq	r0, [r0], #-5
     548:	7ec87000 	cdpvc	0, 12, cr7, cr8, cr0, {0}
     54c:	0000009f 	muleq	r0, pc, r0	; <UNPREDICTABLE>
     550:	00000000 	andeq	r0, r0, r0
     554:	00048c00 	andeq	r8, r4, r0, lsl #24
     558:	00051c00 	andeq	r1, r5, r0, lsl #24
     55c:	54000100 	strpl	r0, [r0], #-256	; 0x100
     560:	0000051c 	andeq	r0, r0, ip, lsl r5
     564:	0000055c 	andeq	r0, r0, ip, asr r5
     568:	c8700004 	ldmdagt	r0!, {r2}^
     56c:	00009f7e 	andeq	r9, r0, lr, ror pc
     570:	00000000 	andeq	r0, r0, r0
     574:	05740000 	ldrbeq	r0, [r4, #-0]!
     578:	05b40000 	ldreq	r0, [r4, #0]!
     57c:	00010000 	andeq	r0, r1, r0
     580:	00000055 	andeq	r0, r0, r5, asr r0
     584:	00000000 	andeq	r0, r0, r0
     588:	00058000 	andeq	r8, r5, r0
     58c:	0005b000 	andeq	fp, r5, r0
     590:	54000100 	strpl	r0, [r0], #-256	; 0x100
	...
     59c:	000005a8 	andeq	r0, r0, r8, lsr #11
     5a0:	000005c0 	andeq	r0, r0, r0, asr #11
     5a4:	9f300002 	svcls	0x00300002
     5a8:	000005c0 	andeq	r0, r0, r0, asr #11
     5ac:	000006fc 	strdeq	r0, [r0], -ip
     5b0:	00560001 	subseq	r0, r6, r1
     5b4:	00000000 	andeq	r0, r0, r0
     5b8:	a8000000 	stmdage	r0, {}	; <UNPREDICTABLE>
     5bc:	c0000005 	andgt	r0, r0, r5
     5c0:	02000005 	andeq	r0, r0, #5
     5c4:	c09f3000 	addsgt	r3, pc, r0
     5c8:	fc000005 	stc2	0, cr0, [r0], {5}
     5cc:	01000006 	tsteq	r0, r6
     5d0:	00005500 	andeq	r5, r0, r0, lsl #10
     5d4:	00000000 	andeq	r0, r0, r0
     5d8:	05e40000 	strbeq	r0, [r4, #0]!
     5dc:	065c0000 	ldrbeq	r0, [ip], -r0
     5e0:	00010000 	andeq	r0, r1, r0
     5e4:	00000054 	andeq	r0, r0, r4, asr r0
     5e8:	00000000 	andeq	r0, r0, r0
     5ec:	00074c00 	andeq	r4, r7, r0, lsl #24
     5f0:	00077b00 	andeq	r7, r7, r0, lsl #22
     5f4:	50000100 	andpl	r0, r0, r0, lsl #2
     5f8:	0000077b 	andeq	r0, r0, fp, ror r7
     5fc:	00000794 	muleq	r0, r4, r7
     600:	01f30004 	mvnseq	r0, r4
     604:	07949f50 			; <UNDEFINED> instruction: 0x07949f50
     608:	07980000 	ldreq	r0, [r8, r0]
     60c:	00010000 	andeq	r0, r1, r0
     610:	00079850 	andeq	r9, r7, r0, asr r8
     614:	0007c000 	andeq	ip, r7, r0
     618:	f3000400 	vshl.u8	d0, d0, d0
     61c:	c09f5001 	addsgt	r5, pc, r1
     620:	c4000007 	strgt	r0, [r0], #-7
     624:	01000007 	tsteq	r0, r7
     628:	07c45000 	strbeq	r5, [r4, r0]
     62c:	07e40000 	strbeq	r0, [r4, r0]!
     630:	00040000 	andeq	r0, r4, r0
     634:	9f5001f3 	svcls	0x005001f3
	...
     640:	00000750 	andeq	r0, r0, r0, asr r7
     644:	0000077b 	andeq	r0, r0, fp, ror r7
     648:	7b500001 	blvc	1400654 <__bss_end__+0x13f4aa4>
     64c:	94000007 	strls	r0, [r0], #-7
     650:	04000007 	streq	r0, [r0], #-7
     654:	5001f300 	andpl	pc, r1, r0, lsl #6
     658:	0007949f 	muleq	r7, pc, r4	; <UNPREDICTABLE>
     65c:	00079800 	andeq	r9, r7, r0, lsl #16
     660:	50000100 	andpl	r0, r0, r0, lsl #2
     664:	00000798 	muleq	r0, r8, r7
     668:	000007c0 	andeq	r0, r0, r0, asr #15
     66c:	01f30004 	mvnseq	r0, r4
     670:	07c09f50 			; <UNDEFINED> instruction: 0x07c09f50
     674:	07c40000 	strbeq	r0, [r4, r0]
     678:	00010000 	andeq	r0, r1, r0
     67c:	0007c450 	andeq	ip, r7, r0, asr r4
     680:	0007e400 	andeq	lr, r7, r0, lsl #8
     684:	f3000400 	vshl.u8	d0, d0, d0
     688:	009f5001 	addseq	r5, pc, r1
	...
     694:	24000000 	strcs	r0, [r0], #-0
     698:	01000000 	mrseq	r0, (UNDEF: 0)
     69c:	00245000 	eoreq	r5, r4, r0
     6a0:	00280000 	eoreq	r0, r8, r0
     6a4:	00040000 	andeq	r0, r4, r0
     6a8:	9f5001f3 	svcls	0x005001f3
     6ac:	00000028 	andeq	r0, r0, r8, lsr #32
     6b0:	0000002c 	andeq	r0, r0, ip, lsr #32
     6b4:	2c500001 	mrrccs	0, 0, r0, r0, cr1	; <UNPREDICTABLE>
     6b8:	30000000 	andcc	r0, r0, r0
     6bc:	04000000 	streq	r0, [r0], #-0
     6c0:	5001f300 	andpl	pc, r1, r0, lsl #6
     6c4:	0000309f 	muleq	r0, pc, r0	; <UNPREDICTABLE>
     6c8:	00003400 	andeq	r3, r0, r0, lsl #8
     6cc:	50000100 	andpl	r0, r0, r0, lsl #2
     6d0:	00000034 	andeq	r0, r0, r4, lsr r0
     6d4:	0000003c 	andeq	r0, r0, ip, lsr r0
     6d8:	01f30004 	mvnseq	r0, r4
     6dc:	00009f50 	andeq	r9, r0, r0, asr pc
     6e0:	00000000 	andeq	r0, r0, r0
     6e4:	003c0000 	eorseq	r0, ip, r0
     6e8:	00470000 	subeq	r0, r7, r0
     6ec:	00010000 	andeq	r0, r1, r0
     6f0:	00004750 	andeq	r4, r0, r0, asr r7
     6f4:	0000b400 	andeq	fp, r0, r0, lsl #8
     6f8:	54000100 	strpl	r0, [r0], #-256	; 0x100
	...
     704:	00000044 	andeq	r0, r0, r4, asr #32
     708:	00000047 	andeq	r0, r0, r7, asr #32
     70c:	47500001 	ldrbmi	r0, [r0, -r1]
     710:	b4000000 	strlt	r0, [r0], #-0
     714:	01000000 	mrseq	r0, (UNDEF: 0)
     718:	00005400 	andeq	r5, r0, r0, lsl #8
     71c:	00000000 	andeq	r0, r0, r0
     720:	00540000 	subseq	r0, r4, r0
     724:	009f0000 	addseq	r0, pc, r0
     728:	00010000 	andeq	r0, r1, r0
     72c:	0000a050 	andeq	sl, r0, r0, asr r0
     730:	0000ac00 	andeq	sl, r0, r0, lsl #24
     734:	50000100 	andpl	r0, r0, r0, lsl #2
	...
     740:	000000b4 	strheq	r0, [r0], -r4
     744:	000000cb 	andeq	r0, r0, fp, asr #1
     748:	cb500001 	blgt	1400754 <__bss_end__+0x13f4ba4>
     74c:	e4000000 	str	r0, [r0], #-0
     750:	01000000 	mrseq	r0, (UNDEF: 0)
     754:	00e45400 	rsceq	r5, r4, r0, lsl #8
     758:	00ef0000 	rsceq	r0, pc, r0
     75c:	00010000 	andeq	r0, r1, r0
     760:	0000ef50 	andeq	lr, r0, r0, asr pc
     764:	00010800 	andeq	r0, r1, r0, lsl #16
     768:	54000100 	strpl	r0, [r0], #-256	; 0x100
     76c:	00000108 	andeq	r0, r0, r8, lsl #2
     770:	00000113 	andeq	r0, r0, r3, lsl r1
     774:	13500001 	cmpne	r0, #1
     778:	2c000001 	stccs	0, cr0, [r0], {1}
     77c:	01000001 	tsteq	r0, r1
     780:	012c5400 	teqeq	ip, r0, lsl #8
     784:	01880000 	orreq	r0, r8, r0
     788:	00040000 	andeq	r0, r4, r0
     78c:	9f5001f3 	svcls	0x005001f3
     790:	00000188 	andeq	r0, r0, r8, lsl #3
     794:	0000018c 	andeq	r0, r0, ip, lsl #3
     798:	8c500001 	mrrchi	0, 0, r0, r0, cr1	; <UNPREDICTABLE>
     79c:	ac000001 	stcge	0, cr0, [r0], {1}
     7a0:	04000001 	streq	r0, [r0], #-1
     7a4:	5001f300 	andpl	pc, r1, r0, lsl #6
     7a8:	0000009f 	muleq	r0, pc, r0	; <UNPREDICTABLE>
     7ac:	00000000 	andeq	r0, r0, r0
     7b0:	0000b400 	andeq	fp, r0, r0, lsl #8
     7b4:	0000cb00 	andeq	ip, r0, r0, lsl #22
     7b8:	51000100 	mrspl	r0, (UNDEF: 16)
     7bc:	000000cb 	andeq	r0, r0, fp, asr #1
     7c0:	000000e4 	andeq	r0, r0, r4, ror #1
     7c4:	e4550001 	ldrb	r0, [r5], #-1
     7c8:	ef000000 	svc	0x00000000
     7cc:	01000000 	mrseq	r0, (UNDEF: 0)
     7d0:	00ef5100 	rsceq	r5, pc, r0, lsl #2
     7d4:	01080000 	mrseq	r0, (UNDEF: 8)
     7d8:	00010000 	andeq	r0, r1, r0
     7dc:	00010855 	andeq	r0, r1, r5, asr r8
     7e0:	00011300 	andeq	r1, r1, r0, lsl #6
     7e4:	51000100 	mrspl	r0, (UNDEF: 16)
     7e8:	00000113 	andeq	r0, r0, r3, lsl r1
     7ec:	00000188 	andeq	r0, r0, r8, lsl #3
     7f0:	88550001 	ldmdahi	r5, {r0}^
     7f4:	8c000001 	stchi	0, cr0, [r0], {1}
     7f8:	01000001 	tsteq	r0, r1
     7fc:	018c5100 	orreq	r5, ip, r0, lsl #2
     800:	01ac0000 			; <UNDEFINED> instruction: 0x01ac0000
     804:	00010000 	andeq	r0, r1, r0
     808:	00000055 	andeq	r0, r0, r5, asr r0
     80c:	00000000 	andeq	r0, r0, r0
     810:	00012c00 	andeq	r2, r1, r0, lsl #24
     814:	00018800 	andeq	r8, r1, r0, lsl #16
     818:	54000100 	strpl	r0, [r0], #-256	; 0x100
     81c:	0000018c 	andeq	r0, r0, ip, lsl #3
     820:	000001ac 	andeq	r0, r0, ip, lsr #3
     824:	00540001 	subseq	r0, r4, r1
     828:	00000000 	andeq	r0, r0, r0
     82c:	34000000 	strcc	r0, [r0], #-0
     830:	40000001 	andmi	r0, r0, r1
     834:	01000001 	tsteq	r0, r1
     838:	01405000 	mrseq	r5, (UNDEF: 64)
     83c:	017f0000 	cmneq	pc, r0
     840:	00010000 	andeq	r0, r1, r0
     844:	00000053 	andeq	r0, r0, r3, asr r0
     848:	00000000 	andeq	r0, r0, r0
     84c:	0001ac00 	andeq	sl, r1, r0, lsl #24
     850:	0001b800 	andeq	fp, r1, r0, lsl #16
     854:	50000100 	andpl	r0, r0, r0, lsl #2
     858:	000001b8 			; <UNDEFINED> instruction: 0x000001b8
     85c:	000002e0 	andeq	r0, r0, r0, ror #5
     860:	00590001 	subseq	r0, r9, r1
     864:	00000000 	andeq	r0, r0, r0
     868:	b4000000 	strlt	r0, [r0], #-0
     86c:	e8000001 	stmda	r0, {r0}
     870:	02000001 	andeq	r0, r0, #1
     874:	e89f3000 	ldm	pc, {ip, sp}	; <UNPREDICTABLE>
     878:	e0000001 	and	r0, r0, r1
     87c:	01000002 	tsteq	r0, r2
     880:	00005500 	andeq	r5, r0, r0, lsl #10
     884:	00000000 	andeq	r0, r0, r0
     888:	01b40000 			; <UNDEFINED> instruction: 0x01b40000
     88c:	01e80000 	mvneq	r0, r0
     890:	00020000 	andeq	r0, r2, r0
     894:	01e89f30 	mvneq	r9, r0, lsr pc
     898:	02e00000 	rsceq	r0, r0, #0
     89c:	00010000 	andeq	r0, r1, r0
     8a0:	00000057 	andeq	r0, r0, r7, asr r0
     8a4:	00000000 	andeq	r0, r0, r0
     8a8:	0001b400 	andeq	fp, r1, r0, lsl #8
     8ac:	0001e800 	andeq	lr, r1, r0, lsl #16
     8b0:	30000200 	andcc	r0, r0, r0, lsl #4
     8b4:	0001e89f 	muleq	r1, pc, r8	; <UNPREDICTABLE>
     8b8:	0002e000 	andeq	lr, r2, r0
     8bc:	56000100 	strpl	r0, [r0], -r0, lsl #2
	...
     8c8:	000001cc 	andeq	r0, r0, ip, asr #3
     8cc:	00000204 	andeq	r0, r0, r4, lsl #4
     8d0:	04500001 	ldrbeq	r0, [r0], #-1
     8d4:	1c000002 	stcne	0, cr0, [r0], {2}
     8d8:	01000002 	tsteq	r0, r2
     8dc:	021c5400 	andseq	r5, ip, #0, 8
     8e0:	02380000 	eorseq	r0, r8, #0
     8e4:	00010000 	andeq	r0, r1, r0
     8e8:	00023850 	andeq	r3, r2, r0, asr r8
     8ec:	00025c00 	andeq	r5, r2, r0, lsl #24
     8f0:	54000100 	strpl	r0, [r0], #-256	; 0x100
     8f4:	0000025c 	andeq	r0, r0, ip, asr r2
     8f8:	00000268 	andeq	r0, r0, r8, ror #4
     8fc:	68500001 	ldmdavs	r0, {r0}^
     900:	e0000002 	and	r0, r0, r2
     904:	01000002 	tsteq	r0, r2
     908:	00005400 	andeq	r5, r0, r0, lsl #8
     90c:	00000000 	andeq	r0, r0, r0
     910:	02ec0000 	rsceq	r0, ip, #0
     914:	03030000 	movweq	r0, #12288	; 0x3000
     918:	00010000 	andeq	r0, r1, r0
     91c:	00030450 	andeq	r0, r3, r0, asr r4
     920:	00031400 	andeq	r1, r3, r0, lsl #8
     924:	50000100 	andpl	r0, r0, r0, lsl #2
	...
     930:	00000358 	andeq	r0, r0, r8, asr r3
     934:	0000036c 	andeq	r0, r0, ip, ror #6
     938:	74530001 	ldrbvc	r0, [r3], #-1
     93c:	87000003 	strhi	r0, [r0, -r3]
     940:	01000003 	tsteq	r0, r3
     944:	00005300 	andeq	r5, r0, r0, lsl #6
     948:	00000000 	andeq	r0, r0, r0
     94c:	03d40000 	bicseq	r0, r4, #0
     950:	03df0000 	bicseq	r0, pc, #0
     954:	00010000 	andeq	r0, r1, r0
     958:	0003df50 	andeq	sp, r3, r0, asr pc
     95c:	0003ec00 	andeq	lr, r3, r0, lsl #24
     960:	54000100 	strpl	r0, [r0], #-256	; 0x100
	...
     96c:	000004d0 	ldrdeq	r0, [r0], -r0	; <UNPREDICTABLE>
     970:	000004db 	ldrdeq	r0, [r0], -fp
     974:	db500001 	blle	1400980 <__bss_end__+0x13f4dd0>
     978:	f4000004 	vst4.8	{d0-d3}, [r0], r4
     97c:	01000004 	tsteq	r0, r4
     980:	04f45400 	ldrbteq	r5, [r4], #1024	; 0x400
     984:	04f80000 	ldrbteq	r0, [r8], #0
     988:	00010000 	andeq	r0, r1, r0
     98c:	0004f850 	andeq	pc, r4, r0, asr r8	; <UNPREDICTABLE>
     990:	00053000 	andeq	r3, r5, r0
     994:	54000100 	strpl	r0, [r0], #-256	; 0x100
	...
     9a0:	00000564 	andeq	r0, r0, r4, ror #10
     9a4:	00000598 	muleq	r0, r8, r5
     9a8:	9f300002 	svcls	0x00300002
     9ac:	00000598 	muleq	r0, r8, r5
     9b0:	00000654 	andeq	r0, r0, r4, asr r6
     9b4:	00550001 	subseq	r0, r5, r1
     9b8:	00000000 	andeq	r0, r0, r0
     9bc:	64000000 	strvs	r0, [r0], #-0
     9c0:	98000005 	stmdals	r0, {r0, r2}
     9c4:	02000005 	andeq	r0, r0, #5
     9c8:	989f3000 	ldmls	pc, {ip, sp}	; <UNPREDICTABLE>
     9cc:	54000005 	strpl	r0, [r0], #-5
     9d0:	01000006 	tsteq	r0, r6
     9d4:	00005800 	andeq	r5, r0, r0, lsl #16
     9d8:	00000000 	andeq	r0, r0, r0
     9dc:	05640000 	strbeq	r0, [r4, #-0]!
     9e0:	05980000 	ldreq	r0, [r8]
     9e4:	00020000 	andeq	r0, r2, r0
     9e8:	05989f30 	ldreq	r9, [r8, #3888]	; 0xf30
     9ec:	06540000 	ldrbeq	r0, [r4], -r0
     9f0:	00010000 	andeq	r0, r1, r0
     9f4:	00065456 	andeq	r5, r6, r6, asr r4
     9f8:	00067c00 	andeq	r7, r6, r0, lsl #24
     9fc:	50000100 	andpl	r0, r0, r0, lsl #2
	...
     a08:	0000057c 	andeq	r0, r0, ip, ror r5
     a0c:	000005c4 	andeq	r0, r0, r4, asr #11
     a10:	c4500001 	ldrbgt	r0, [r0], #-1
     a14:	f8000005 			; <UNDEFINED> instruction: 0xf8000005
     a18:	01000005 	tsteq	r0, r5
     a1c:	05f85400 	ldrbeq	r5, [r8, #1024]!	; 0x400
     a20:	06080000 	streq	r0, [r8], -r0
     a24:	00010000 	andeq	r0, r1, r0
     a28:	00000050 	andeq	r0, r0, r0, asr r0
	...
     a34:	00001700 	andeq	r1, r0, r0, lsl #14
     a38:	50000100 	andpl	r0, r0, r0, lsl #2
     a3c:	00000017 	andeq	r0, r0, r7, lsl r0
     a40:	0000006c 	andeq	r0, r0, ip, rrx
     a44:	00550001 	subseq	r0, r5, r1
     a48:	00000000 	andeq	r0, r0, r0
     a4c:	34000000 	strcc	r0, [r0], #-0
     a50:	3c000000 	stccc	0, cr0, [r0], {-0}
     a54:	01000000 	mrseq	r0, (UNDEF: 0)
     a58:	003c5000 	eorseq	r5, ip, r0
     a5c:	006c0000 	rsbeq	r0, ip, r0
     a60:	00030000 	andeq	r0, r3, r0
     a64:	009f0475 	addseq	r0, pc, r5, ror r4	; <UNPREDICTABLE>
     a68:	00000000 	andeq	r0, r0, r0
     a6c:	38000000 	stmdacc	r0, {}	; <UNPREDICTABLE>
     a70:	44000000 	strmi	r0, [r0], #-0
     a74:	01000000 	mrseq	r0, (UNDEF: 0)
     a78:	00445300 	subeq	r5, r4, r0, lsl #6
     a7c:	006c0000 	rsbeq	r0, ip, r0
     a80:	00030000 	andeq	r0, r3, r0
     a84:	009f1874 	addseq	r1, pc, r4, ror r8	; <UNPREDICTABLE>
     a88:	00000000 	andeq	r0, r0, r0
     a8c:	3c000000 	stccc	0, cr0, [r0], {-0}
     a90:	40000000 	andmi	r0, r0, r0
     a94:	01000000 	mrseq	r0, (UNDEF: 0)
     a98:	00405000 	subeq	r5, r0, r0
     a9c:	00440000 	subeq	r0, r4, r0
     aa0:	00080000 	andeq	r0, r8, r0
     aa4:	00730075 	rsbseq	r0, r3, r5, ror r0
     aa8:	9f04231c 	svcls	0x0004231c
     aac:	00000044 	andeq	r0, r0, r4, asr #32
     ab0:	0000006c 	andeq	r0, r0, ip, rrx
     ab4:	00750008 	rsbseq	r0, r5, r8
     ab8:	441c0074 	ldrmi	r0, [ip], #-116	; 0x74
     abc:	00009f1c 	andeq	r9, r0, ip, lsl pc
     ac0:	00000000 	andeq	r0, r0, r0
     ac4:	003c0000 	eorseq	r0, ip, r0
     ac8:	00400000 	subeq	r0, r0, r0
     acc:	00050000 	andeq	r0, r5, r0
     ad0:	25320070 	ldrcs	r0, [r2, #-112]!	; 0x70
     ad4:	0000409f 	muleq	r0, pc, r0	; <UNPREDICTABLE>
     ad8:	00004400 	andeq	r4, r0, r0, lsl #8
     adc:	75000e00 	strvc	r0, [r0, #-3584]	; 0xe00
     ae0:	1c007300 	stcne	3, cr7, [r0], {-0}
     ae4:	ea090423 	b	241b78 <__bss_end__+0x235fc8>
     ae8:	25ec0924 	strbcs	r0, [ip, #2340]!	; 0x924
     aec:	0000449f 	muleq	r0, pc, r4	; <UNPREDICTABLE>
     af0:	00006c00 	andeq	r6, r0, r0, lsl #24
     af4:	75000e00 	strvc	r0, [r0, #-3584]	; 0xe00
     af8:	1c007400 	cfstrsne	mvf7, [r0], {-0}
     afc:	ea091c44 	b	247c14 <__bss_end__+0x23c064>
     b00:	25ec0924 	strbcs	r0, [ip, #2340]!	; 0x924
     b04:	0000009f 	muleq	r0, pc, r0	; <UNPREDICTABLE>
     b08:	00000000 	andeq	r0, r0, r0
     b0c:	0000c000 	andeq	ip, r0, r0
     b10:	0000cf00 	andeq	ip, r0, r0, lsl #30
     b14:	50000100 	andpl	r0, r0, r0, lsl #2
     b18:	000000cf 	andeq	r0, r0, pc, asr #1
     b1c:	000000e8 	andeq	r0, r0, r8, ror #1
     b20:	01f30004 	mvnseq	r0, r4
     b24:	00e89f50 	rsceq	r9, r8, r0, asr pc
     b28:	01000000 	mrseq	r0, (UNDEF: 0)
     b2c:	00010000 	andeq	r0, r1, r0
     b30:	00010050 	andeq	r0, r1, r0, asr r0
     b34:	00011000 	andeq	r1, r1, r0
     b38:	f3000400 	vshl.u8	d0, d0, d0
     b3c:	009f5001 	addseq	r5, pc, r1
     b40:	00000000 	andeq	r0, r0, r0
     b44:	c0000000 	andgt	r0, r0, r0
     b48:	cf000000 	svcgt	0x00000000
     b4c:	01000000 	mrseq	r0, (UNDEF: 0)
     b50:	00cf5100 	sbceq	r5, pc, r0, lsl #2
     b54:	00e80000 	rsceq	r0, r8, r0
     b58:	00040000 	andeq	r0, r4, r0
     b5c:	9f5101f3 	svcls	0x005101f3
     b60:	000000e8 	andeq	r0, r0, r8, ror #1
     b64:	00000110 	andeq	r0, r0, r0, lsl r1
     b68:	00510001 	subseq	r0, r1, r1
     b6c:	00000000 	andeq	r0, r0, r0
     b70:	c0000000 	andgt	r0, r0, r0
     b74:	cf000000 	svcgt	0x00000000
     b78:	01000000 	mrseq	r0, (UNDEF: 0)
     b7c:	00cf5200 	sbceq	r5, pc, r0, lsl #4
     b80:	00e80000 	rsceq	r0, r8, r0
     b84:	00040000 	andeq	r0, r4, r0
     b88:	9f5201f3 	svcls	0x005201f3
     b8c:	000000e8 	andeq	r0, r0, r8, ror #1
     b90:	00000110 	andeq	r0, r0, r0, lsl r1
     b94:	00520001 	subseq	r0, r2, r1
     b98:	00000000 	andeq	r0, r0, r0
     b9c:	10000000 	andne	r0, r0, r0
     ba0:	2b000001 	blcs	bac <__code_start__-0x7454>
     ba4:	01000001 	tsteq	r0, r1
     ba8:	012b5000 	teqeq	fp, r0
     bac:	01740000 	cmneq	r4, r0
     bb0:	00010000 	andeq	r0, r1, r0
     bb4:	00000054 	andeq	r0, r0, r4, asr r0
     bb8:	00000000 	andeq	r0, r0, r0
     bbc:	00017400 	andeq	r7, r1, r0, lsl #8
     bc0:	00019000 	andeq	r9, r1, r0
     bc4:	50000100 	andpl	r0, r0, r0, lsl #2
     bc8:	00000190 	muleq	r0, r0, r1
     bcc:	000001cc 	andeq	r0, r0, ip, asr #3
     bd0:	00550001 	subseq	r0, r5, r1
     bd4:	00000000 	andeq	r0, r0, r0
     bd8:	84000000 	strhi	r0, [r0], #-0
     bdc:	9b000001 	blls	be8 <__code_start__-0x7418>
     be0:	01000001 	tsteq	r0, r1
     be4:	00005300 	andeq	r5, r0, r0, lsl #6
     be8:	00000000 	andeq	r0, r0, r0
     bec:	018c0000 	orreq	r0, ip, r0
     bf0:	01940000 	orrseq	r0, r4, r0
     bf4:	00060000 	andeq	r0, r6, r0
     bf8:	00740073 	rsbseq	r0, r4, r3, ror r0
     bfc:	01949f22 	orrseq	r9, r4, r2, lsr #30
     c00:	019b0000 	orrseq	r0, fp, r0
     c04:	00010000 	andeq	r0, r1, r0
     c08:	00000051 	andeq	r0, r0, r1, asr r0
     c0c:	00000000 	andeq	r0, r0, r0
     c10:	0001cc00 	andeq	ip, r1, r0, lsl #24
     c14:	0001d700 	andeq	sp, r1, r0, lsl #14
     c18:	50000100 	andpl	r0, r0, r0, lsl #2
     c1c:	000001d7 	ldrdeq	r0, [r0], -r7
     c20:	00000264 	andeq	r0, r0, r4, ror #4
     c24:	00540001 	subseq	r0, r4, r1
     c28:	00000000 	andeq	r0, r0, r0
     c2c:	64000000 	strvs	r0, [r0], #-0
     c30:	a8000002 	stmdage	r0, {r1}
     c34:	01000002 	tsteq	r0, r2
     c38:	02a85000 	adceq	r5, r8, #0
     c3c:	02ac0000 	adceq	r0, ip, #0
     c40:	00040000 	andeq	r0, r4, r0
     c44:	9f5001f3 	svcls	0x005001f3
     c48:	000002ac 	andeq	r0, r0, ip, lsr #5
     c4c:	000002b0 			; <UNDEFINED> instruction: 0x000002b0
     c50:	b0500001 	subslt	r0, r0, r1
     c54:	bc000002 	stclt	0, cr0, [r0], {2}
     c58:	04000002 	streq	r0, [r0], #-2
     c5c:	5001f300 	andpl	pc, r1, r0, lsl #6
     c60:	0000009f 	muleq	r0, pc, r0	; <UNPREDICTABLE>
     c64:	00000000 	andeq	r0, r0, r0
     c68:	00026400 	andeq	r6, r2, r0, lsl #8
     c6c:	00027000 	andeq	r7, r2, r0
     c70:	30000200 	andcc	r0, r0, r0, lsl #4
     c74:	0002709f 	muleq	r2, pc, r0	; <UNPREDICTABLE>
     c78:	00028c00 	andeq	r8, r2, r0, lsl #24
     c7c:	53000100 	movwpl	r0, #256	; 0x100
     c80:	000002ac 	andeq	r0, r0, ip, lsr #5
     c84:	000002bc 			; <UNDEFINED> instruction: 0x000002bc
     c88:	00530001 	subseq	r0, r3, r1
     c8c:	00000000 	andeq	r0, r0, r0
     c90:	bc000000 	stclt	0, cr0, [r0], {-0}
     c94:	c7000002 	strgt	r0, [r0, -r2]
     c98:	01000002 	tsteq	r0, r2
     c9c:	02c75000 	sbceq	r5, r7, #0
     ca0:	039c0000 	orrseq	r0, ip, #0
     ca4:	00010000 	andeq	r0, r1, r0
     ca8:	00000055 	andeq	r0, r0, r5, asr r0
     cac:	00000000 	andeq	r0, r0, r0
     cb0:	0002c800 	andeq	ip, r2, r0, lsl #16
     cb4:	0002d800 	andeq	sp, r2, r0, lsl #16
     cb8:	30000200 	andcc	r0, r0, r0, lsl #4
     cbc:	0002d89f 	muleq	r2, pc, r8	; <UNPREDICTABLE>
     cc0:	00039c00 	andeq	r9, r3, r0, lsl #24
     cc4:	54000100 	strpl	r0, [r0], #-256	; 0x100
	...
     cd0:	000004f8 	strdeq	r0, [r0], -r8
     cd4:	00000507 	andeq	r0, r0, r7, lsl #10
     cd8:	07500001 	ldrbeq	r0, [r0, -r1]
     cdc:	20000005 	andcs	r0, r0, r5
     ce0:	04000005 	streq	r0, [r0], #-5
     ce4:	5001f300 	andpl	pc, r1, r0, lsl #6
     ce8:	0005209f 	muleq	r5, pc, r0	; <UNPREDICTABLE>
     cec:	00054800 	andeq	r4, r5, r0, lsl #16
     cf0:	50000100 	andpl	r0, r0, r0, lsl #2
	...
     cfc:	000004f8 	strdeq	r0, [r0], -r8
     d00:	00000507 	andeq	r0, r0, r7, lsl #10
     d04:	07510001 	ldrbeq	r0, [r1, -r1]
     d08:	20000005 	andcs	r0, r0, r5
     d0c:	04000005 	streq	r0, [r0], #-5
     d10:	5101f300 	mrspl	pc, SP_irq	; <UNPREDICTABLE>
     d14:	0005209f 	muleq	r5, pc, r0	; <UNPREDICTABLE>
     d18:	00054800 	andeq	r4, r5, r0, lsl #16
     d1c:	51000100 	mrspl	r0, (UNDEF: 16)
	...
     d28:	0000064c 	andeq	r0, r0, ip, asr #12
     d2c:	00000657 	andeq	r0, r0, r7, asr r6
     d30:	57500001 	ldrbpl	r0, [r0, -r1]
     d34:	e8000006 	stmda	r0, {r1, r2}
     d38:	01000006 	tsteq	r0, r6
     d3c:	00005400 	andeq	r5, r0, r0, lsl #8
     d40:	00000000 	andeq	r0, r0, r0
     d44:	06600000 	strbteq	r0, [r0], -r0
     d48:	066c0000 	strbteq	r0, [ip], -r0
     d4c:	00010000 	andeq	r0, r1, r0
     d50:	00000050 	andeq	r0, r0, r0, asr r0
	...
     d5c:	00002400 	andeq	r2, r0, r0, lsl #8
     d60:	50000100 	andpl	r0, r0, r0, lsl #2
     d64:	00000024 	andeq	r0, r0, r4, lsr #32
     d68:	000000e4 	andeq	r0, r0, r4, ror #1
     d6c:	01f30004 	mvnseq	r0, r4
     d70:	00e49f50 	rsceq	r9, r4, r0, asr pc
     d74:	00e80000 	rsceq	r0, r8, r0
     d78:	00010000 	andeq	r0, r1, r0
     d7c:	0000e850 	andeq	lr, r0, r0, asr r8
     d80:	0000f000 	andeq	pc, r0, r0
     d84:	f3000400 	vshl.u8	d0, d0, d0
     d88:	009f5001 	addseq	r5, pc, r1
	...
     d94:	20000000 	andcs	r0, r0, r0
     d98:	01000000 	mrseq	r0, (UNDEF: 0)
     d9c:	00205100 	eoreq	r5, r0, r0, lsl #2
     da0:	00800000 	addeq	r0, r0, r0
     da4:	00010000 	andeq	r0, r1, r0
     da8:	00009c51 	andeq	r9, r0, r1, asr ip
     dac:	0000a000 	andeq	sl, r0, r0
     db0:	51000100 	mrspl	r0, (UNDEF: 16)
     db4:	000000b8 	strheq	r0, [r0], -r8
     db8:	000000c8 	andeq	r0, r0, r8, asr #1
     dbc:	e4510001 	ldrb	r0, [r1], #-1
     dc0:	e8000000 	stmda	r0, {}	; <UNPREDICTABLE>
     dc4:	01000000 	mrseq	r0, (UNDEF: 0)
     dc8:	00005100 	andeq	r5, r0, r0, lsl #2
     dcc:	00000000 	andeq	r0, r0, r0
     dd0:	00040000 	andeq	r0, r4, r0
     dd4:	00240000 	eoreq	r0, r4, r0
     dd8:	00010000 	andeq	r0, r1, r0
     ddc:	00002450 	andeq	r2, r0, r0, asr r4
     de0:	00009000 	andeq	r9, r0, r0
     de4:	53000100 	movwpl	r0, #256	; 0x100
     de8:	0000009c 	muleq	r0, ip, r0
     dec:	000000a4 	andeq	r0, r0, r4, lsr #1
     df0:	b8530001 	ldmdalt	r3, {r0}^
     df4:	bc000000 	stclt	0, cr0, [r0], {-0}
     df8:	01000000 	mrseq	r0, (UNDEF: 0)
     dfc:	00e45300 	rsceq	r5, r4, r0, lsl #6
     e00:	00e80000 	rsceq	r0, r8, r0
     e04:	00010000 	andeq	r0, r1, r0
     e08:	00000050 	andeq	r0, r0, r0, asr r0
     e0c:	00000000 	andeq	r0, r0, r0
     e10:	00000800 	andeq	r0, r0, r0, lsl #16
     e14:	00002000 	andeq	r2, r0, r0
     e18:	51000100 	mrspl	r0, (UNDEF: 16)
     e1c:	00000020 	andeq	r0, r0, r0, lsr #32
     e20:	00000034 	andeq	r0, r0, r4, lsr r0
     e24:	34520001 	ldrbcc	r0, [r2], #-1
     e28:	48000000 	stmdami	r0, {}	; <UNPREDICTABLE>
     e2c:	01000000 	mrseq	r0, (UNDEF: 0)
     e30:	00485000 	subeq	r5, r8, r0
     e34:	00cc0000 	sbceq	r0, ip, r0
     e38:	00010000 	andeq	r0, r1, r0
     e3c:	0000cc52 	andeq	ip, r0, r2, asr ip
     e40:	0000e000 	andeq	lr, r0, r0
     e44:	50000100 	andpl	r0, r0, r0, lsl #2
     e48:	000000e4 	andeq	r0, r0, r4, ror #1
     e4c:	000000e8 	andeq	r0, r0, r8, ror #1
     e50:	00510001 	subseq	r0, r1, r1
     e54:	00000000 	andeq	r0, r0, r0
     e58:	44000000 	strmi	r0, [r0], #-0
     e5c:	48000000 	stmdami	r0, {}	; <UNPREDICTABLE>
     e60:	01000000 	mrseq	r0, (UNDEF: 0)
     e64:	00485200 	subeq	r5, r8, r0, lsl #4
     e68:	004c0000 	subeq	r0, ip, r0
     e6c:	00120000 	andseq	r0, r2, r0
     e70:	2438007c 	ldrtcs	r0, [r8], #-124	; 0x7c
     e74:	01940273 	orrseq	r0, r4, r3, ror r2
     e78:	221aff08 	andscs	pc, sl, #8, 30
     e7c:	0070243b 	rsbseq	r2, r0, fp, lsr r4
     e80:	004c9f27 	subeq	r9, ip, r7, lsr #30
     e84:	00540000 	subseq	r0, r4, r0
     e88:	00120000 	andseq	r0, r2, r0
     e8c:	2438007c 	ldrtcs	r0, [r8], #-124	; 0x7c
     e90:	01947e73 	orrseq	r7, r4, r3, ror lr
     e94:	221aff08 	andscs	pc, sl, #8, 30
     e98:	0070243b 	rsbseq	r2, r0, fp, lsr r4
     e9c:	00009f27 	andeq	r9, r0, r7, lsr #30
     ea0:	00000000 	andeq	r0, r0, r0
     ea4:	001c0000 	andseq	r0, ip, r0
     ea8:	00e40000 	rsceq	r0, r4, r0
     eac:	00010000 	andeq	r0, r1, r0
     eb0:	00000054 	andeq	r0, r0, r4, asr r0
	...
     ebc:	00000400 	andeq	r0, r0, r0, lsl #8
     ec0:	52000100 	andpl	r0, r0, #0, 2
     ec4:	00000004 	andeq	r0, r0, r4
     ec8:	00000020 	andeq	r0, r0, r0, lsr #32
     ecc:	01f30004 	mvnseq	r0, r4
     ed0:	00009f52 	andeq	r9, r0, r2, asr pc
	...
     edc:	000c0000 	andeq	r0, ip, r0
     ee0:	00010000 	andeq	r0, r1, r0
     ee4:	00000c50 	andeq	r0, r0, r0, asr ip
     ee8:	00001400 	andeq	r1, r0, r0, lsl #8
     eec:	73000300 	movwvc	r0, #768	; 0x300
     ef0:	00149f01 	andseq	r9, r4, r1, lsl #30
     ef4:	00200000 	eoreq	r0, r0, r0
     ef8:	00010000 	andeq	r0, r1, r0
     efc:	00000053 	andeq	r0, r0, r3, asr r0
     f00:	00000000 	andeq	r0, r0, r0
     f04:	00002c00 	andeq	r2, r0, r0, lsl #24
     f08:	00003800 	andeq	r3, r0, r0, lsl #16
     f0c:	50000100 	andpl	r0, r0, r0, lsl #2
     f10:	00000038 	andeq	r0, r0, r8, lsr r0
     f14:	00000048 	andeq	r0, r0, r8, asr #32
     f18:	48550001 	ldmdami	r5, {r0}^
     f1c:	58000000 	stmdapl	r0, {}	; <UNPREDICTABLE>
     f20:	01000000 	mrseq	r0, (UNDEF: 0)
     f24:	00005000 	andeq	r5, r0, r0
	...
     f30:	000b0000 	andeq	r0, fp, r0
     f34:	00010000 	andeq	r0, r1, r0
     f38:	00000b50 	andeq	r0, r0, r0, asr fp
     f3c:	00001400 	andeq	r1, r0, r0, lsl #8
     f40:	54000100 	strpl	r0, [r0], #-256	; 0x100
	...
     f50:	00000010 	andeq	r0, r0, r0, lsl r0
     f54:	10500001 	subsne	r0, r0, r1
     f58:	34000000 	strcc	r0, [r0], #-0
     f5c:	01000000 	mrseq	r0, (UNDEF: 0)
     f60:	00005400 	andeq	r5, r0, r0, lsl #8
	...
     f6c:	00040000 	andeq	r0, r4, r0
     f70:	00010000 	andeq	r0, r1, r0
     f74:	00000450 	andeq	r0, r0, r0, asr r4
     f78:	00000c00 	andeq	r0, r0, r0, lsl #24
     f7c:	70000300 	andvc	r0, r0, r0, lsl #6
     f80:	000c9f30 	andeq	r9, ip, r0, lsr pc
     f84:	00140000 	andseq	r0, r4, r0
     f88:	00040000 	andeq	r0, r4, r0
     f8c:	9f5001f3 	svcls	0x005001f3
	...
     f98:	00000014 	andeq	r0, r0, r4, lsl r0
     f9c:	00000020 	andeq	r0, r0, r0, lsr #32
     fa0:	20500001 	subscs	r0, r0, r1
     fa4:	2c000000 	stccs	0, cr0, [r0], {-0}
     fa8:	03000000 	movweq	r0, #0
     fac:	9f017000 	svcls	0x00017000
     fb0:	0000002c 	andeq	r0, r0, ip, lsr #32
     fb4:	00000040 	andeq	r0, r0, r0, asr #32
     fb8:	00500001 	subseq	r0, r0, r1
     fbc:	00000000 	andeq	r0, r0, r0
     fc0:	14000000 	strne	r0, [r0], #-0
     fc4:	18000000 	stmdane	r0, {}	; <UNPREDICTABLE>
     fc8:	01000000 	mrseq	r0, (UNDEF: 0)
     fcc:	00185100 	andseq	r5, r8, r0, lsl #2
     fd0:	00400000 	subeq	r0, r0, r0
     fd4:	00040000 	andeq	r0, r4, r0
     fd8:	9f5101f3 	svcls	0x005101f3
	...
     fe4:	00000040 	andeq	r0, r0, r0, asr #32
     fe8:	00000060 	andeq	r0, r0, r0, rrx
     fec:	60500001 	subsvs	r0, r0, r1
     ff0:	6c000000 	stcvs	0, cr0, [r0], {-0}
     ff4:	03000000 	movweq	r0, #0
     ff8:	9f017100 	svcls	0x00017100
     ffc:	0000006c 	andeq	r0, r0, ip, rrx
    1000:	00000074 	andeq	r0, r0, r4, ror r0
    1004:	74510001 	ldrbvc	r0, [r1], #-1
    1008:	80000000 	andhi	r0, r0, r0
    100c:	03000000 	movweq	r0, #0
    1010:	9f017100 	svcls	0x00017100
	...
    101c:	00000040 	andeq	r0, r0, r0, asr #32
    1020:	00000050 	andeq	r0, r0, r0, asr r0
    1024:	50510001 	subspl	r0, r1, r1
    1028:	80000000 	andhi	r0, r0, r0
    102c:	04000000 	streq	r0, [r0], #-0
    1030:	5101f300 	mrspl	pc, SP_irq	; <UNPREDICTABLE>
    1034:	0000009f 	muleq	r0, pc, r0	; <UNPREDICTABLE>
    1038:	00000000 	andeq	r0, r0, r0
    103c:	00004000 	andeq	r4, r0, r0
    1040:	00005800 	andeq	r5, r0, r0, lsl #16
    1044:	52000100 	andpl	r0, r0, #0, 2
    1048:	00000058 	andeq	r0, r0, r8, asr r0
    104c:	00000064 	andeq	r0, r0, r4, rrx
    1050:	64520001 	ldrbvs	r0, [r2], #-1
    1054:	68000000 	stmdavs	r0, {}	; <UNPREDICTABLE>
    1058:	03000000 	movweq	r0, #0
    105c:	9f017200 	svcls	0x00017200
    1060:	00000068 	andeq	r0, r0, r8, rrx
    1064:	00000080 	andeq	r0, r0, r0, lsl #1
    1068:	00520001 	subseq	r0, r2, r1
    106c:	00000000 	andeq	r0, r0, r0
    1070:	40000000 	andmi	r0, r0, r0
    1074:	54000000 	strpl	r0, [r0], #-0
    1078:	01000000 	mrseq	r0, (UNDEF: 0)
    107c:	00545300 	subseq	r5, r4, r0, lsl #6
    1080:	00780000 	rsbseq	r0, r8, r0
    1084:	00010000 	andeq	r0, r1, r0
    1088:	00000053 	andeq	r0, r0, r3, asr r0
    108c:	00000000 	andeq	r0, r0, r0
    1090:	00004800 	andeq	r4, r0, r0, lsl #16
    1094:	00006000 	andeq	r6, r0, r0
    1098:	5c000100 	stfpls	f0, [r0], {-0}
    109c:	00000060 	andeq	r0, r0, r0, rrx
    10a0:	00000080 	andeq	r0, r0, r0, lsl #1
    10a4:	01f3000a 	mvnseq	r0, sl
    10a8:	5301f352 	movwpl	pc, #4946	; 0x1352	; <UNPREDICTABLE>
    10ac:	9f01231c 	svcls	0x0001231c
	...
    10b8:	00000080 	andeq	r0, r0, r0, lsl #1
    10bc:	000000a4 	andeq	r0, r0, r4, lsr #1
    10c0:	a4500001 	ldrbge	r0, [r0], #-1
    10c4:	18000000 	stmdane	r0, {}	; <UNPREDICTABLE>
    10c8:	03000001 	movweq	r0, #1
    10cc:	9f027000 	svcls	0x00027000
    10d0:	00000118 	andeq	r0, r0, r8, lsl r1
    10d4:	00000230 	andeq	r0, r0, r0, lsr r2
    10d8:	01f30004 	mvnseq	r0, r4
    10dc:	00009f50 	andeq	r9, r0, r0, asr pc
    10e0:	00000000 	andeq	r0, r0, r0
    10e4:	00800000 	addeq	r0, r0, r0
    10e8:	00f00000 	rscseq	r0, r0, r0
    10ec:	00010000 	andeq	r0, r1, r0
    10f0:	0000f051 	andeq	pc, r0, r1, asr r0	; <UNPREDICTABLE>
    10f4:	00016000 	andeq	r6, r1, r0
    10f8:	55000100 	strpl	r0, [r0, #-256]	; 0x100
    10fc:	00000160 	andeq	r0, r0, r0, ror #2
    1100:	0000016c 	andeq	r0, r0, ip, ror #2
    1104:	6c510001 	mrrcvs	0, 0, r0, r1, cr1
    1108:	a0000001 	andge	r0, r0, r1
    110c:	01000001 	tsteq	r0, r1
    1110:	01a05500 	lsleq	r5, r0, #10
    1114:	01b40000 			; <UNDEFINED> instruction: 0x01b40000
    1118:	00010000 	andeq	r0, r1, r0
    111c:	0001b451 	andeq	fp, r1, r1, asr r4
    1120:	0001d400 	andeq	sp, r1, r0, lsl #8
    1124:	55000100 	strpl	r0, [r0, #-256]	; 0x100
    1128:	000001d4 	ldrdeq	r0, [r0], -r4
    112c:	000001d7 	ldrdeq	r0, [r0], -r7
    1130:	d7510001 	ldrble	r0, [r1, -r1]
    1134:	14000001 	strne	r0, [r0], #-1
    1138:	01000002 	tsteq	r0, r2
    113c:	02145500 	andseq	r5, r4, #0, 10
    1140:	02300000 	eorseq	r0, r0, #0
    1144:	00040000 	andeq	r0, r4, r0
    1148:	9f5101f3 	svcls	0x005101f3
	...
    1154:	00000080 	andeq	r0, r0, r0, lsl #1
    1158:	00000094 	muleq	r0, r4, r0
    115c:	94520001 	ldrbls	r0, [r2], #-1
    1160:	14000000 	strne	r0, [r0], #-0
    1164:	01000002 	tsteq	r0, r2
    1168:	02145400 	andseq	r5, r4, #0, 8
    116c:	02300000 	eorseq	r0, r0, #0
    1170:	00040000 	andeq	r0, r4, r0
    1174:	9f5201f3 	svcls	0x005201f3
	...
    1180:	00000080 	andeq	r0, r0, r0, lsl #1
    1184:	00000100 	andeq	r0, r0, r0, lsl #2
    1188:	04530001 	ldrbeq	r0, [r3], #-1
    118c:	08000001 	stmdaeq	r0, {r0}
    1190:	01000001 	tsteq	r0, r1
    1194:	01605300 	cmneq	r0, r0, lsl #6
    1198:	01640000 	cmneq	r4, r0
    119c:	00010000 	andeq	r0, r1, r0
    11a0:	00016453 	andeq	r6, r1, r3, asr r4
    11a4:	00016c00 	andeq	r6, r1, r0, lsl #24
    11a8:	5c000100 	stfpls	f0, [r0], {-0}
    11ac:	0000016c 	andeq	r0, r0, ip, ror #2
    11b0:	000001a0 	andeq	r0, r0, r0, lsr #3
    11b4:	01f30004 	mvnseq	r0, r4
    11b8:	01a09f53 	asreq	r9, r3, pc
    11bc:	01b00000 	movseq	r0, r0
    11c0:	00010000 	andeq	r0, r1, r0
    11c4:	0001b053 	andeq	fp, r1, r3, asr r0
    11c8:	0001b400 	andeq	fp, r1, r0, lsl #8
    11cc:	5c000100 	stfpls	f0, [r0], {-0}
    11d0:	000001b4 			; <UNDEFINED> instruction: 0x000001b4
    11d4:	000001d4 	ldrdeq	r0, [r0], -r4
    11d8:	01f30004 	mvnseq	r0, r4
    11dc:	01d49f53 	bicseq	r9, r4, r3, asr pc
    11e0:	01d70000 	bicseq	r0, r7, r0
    11e4:	00010000 	andeq	r0, r1, r0
    11e8:	0001d753 	andeq	sp, r1, r3, asr r7
    11ec:	0001f000 	andeq	pc, r1, r0
    11f0:	f3000400 	vshl.u8	d0, d0, d0
    11f4:	009f5301 	addseq	r5, pc, r1, lsl #6
    11f8:	00000000 	andeq	r0, r0, r0
    11fc:	80000000 	andhi	r0, r0, r0
    1200:	9c000000 	stcls	0, cr0, [r0], {-0}
    1204:	02000000 	andeq	r0, r0, #0
    1208:	9c009100 	stflsd	f1, [r0], {-0}
    120c:	d7000000 	strle	r0, [r0, -r0]
    1210:	01000001 	tsteq	r0, r1
    1214:	01f05200 	mvnseq	r5, r0, lsl #4
    1218:	01f70000 	mvnseq	r0, r0
    121c:	00010000 	andeq	r0, r1, r0
    1220:	00000052 	andeq	r0, r0, r2, asr r0
    1224:	00000000 	andeq	r0, r0, r0
    1228:	00009c00 	andeq	r9, r0, r0, lsl #24
    122c:	00011800 	andeq	r1, r1, r0, lsl #16
    1230:	5d000100 	stfpls	f0, [r0, #-0]
    1234:	00000118 	andeq	r0, r0, r8, lsl r1
    1238:	0000011c 	andeq	r0, r0, ip, lsl r1
    123c:	1c500001 	mrrcne	0, 0, r0, r0, cr1	; <UNPREDICTABLE>
    1240:	20000001 	andcs	r0, r0, r1
    1244:	01000001 	tsteq	r0, r1
    1248:	01205100 	teqeq	r0, r0, lsl #2
    124c:	01600000 	cmneq	r0, r0
    1250:	00010000 	andeq	r0, r1, r0
    1254:	00016050 	andeq	r6, r1, r0, asr r0
    1258:	00016c00 	andeq	r6, r1, r0, lsl #24
    125c:	5d000100 	stfpls	f0, [r0, #-0]
    1260:	0000016c 	andeq	r0, r0, ip, ror #2
    1264:	00000170 	andeq	r0, r0, r0, ror r1
    1268:	70500001 	subsvc	r0, r0, r1
    126c:	74000001 	strvc	r0, [r0], #-1
    1270:	01000001 	tsteq	r0, r1
    1274:	01745300 	cmneq	r4, r0, lsl #6
    1278:	01880000 	orreq	r0, r8, r0
    127c:	00010000 	andeq	r0, r1, r0
    1280:	00018850 	andeq	r8, r1, r0, asr r8
    1284:	00019400 	andeq	r9, r1, r0, lsl #8
    1288:	70000300 	andvc	r0, r0, r0, lsl #6
    128c:	01949f01 	orrseq	r9, r4, r1, lsl #30
    1290:	01a00000 	moveq	r0, r0
    1294:	00010000 	andeq	r0, r1, r0
    1298:	0001a050 	andeq	sl, r1, r0, asr r0
    129c:	0001a800 	andeq	sl, r1, r0, lsl #16
    12a0:	91000400 	tstls	r0, r0, lsl #8
    12a4:	a89f7fa1 	ldmge	pc, {r0, r5, r7, r8, r9, sl, fp, ip, sp, lr}	; <UNPREDICTABLE>
    12a8:	ac000001 	stcge	0, cr0, [r0], {1}
    12ac:	01000001 	tsteq	r0, r1
    12b0:	01ac5000 			; <UNDEFINED> instruction: 0x01ac5000
    12b4:	01b40000 			; <UNDEFINED> instruction: 0x01b40000
    12b8:	00010000 	andeq	r0, r1, r0
    12bc:	0001b45d 	andeq	fp, r1, sp, asr r4
    12c0:	0001b800 	andeq	fp, r1, r0, lsl #16
    12c4:	53000100 	movwpl	r0, #256	; 0x100
    12c8:	000001b8 			; <UNDEFINED> instruction: 0x000001b8
    12cc:	000001d4 	ldrdeq	r0, [r0], -r4
    12d0:	d4500001 	ldrble	r0, [r0], #-1
    12d4:	f0000001 			; <UNDEFINED> instruction: 0xf0000001
    12d8:	01000001 	tsteq	r0, r1
    12dc:	01f05d00 	mvnseq	r5, r0, lsl #26
    12e0:	01f70000 	mvnseq	r0, r0
    12e4:	00010000 	andeq	r0, r1, r0
    12e8:	00000050 	andeq	r0, r0, r0, asr r0
    12ec:	00000000 	andeq	r0, r0, r0
    12f0:	0000a000 	andeq	sl, r0, r0
    12f4:	0000ec00 	andeq	lr, r0, r0, lsl #24
    12f8:	5c000100 	stfpls	f0, [r0], {-0}
    12fc:	000000ec 	andeq	r0, r0, ip, ror #1
    1300:	00000100 	andeq	r0, r0, r0, lsl #2
    1304:	00530001 	subseq	r0, r3, r1
    1308:	04000001 	streq	r0, [r0], #-1
    130c:	01000001 	tsteq	r0, r1
    1310:	01045c00 	tsteq	r4, r0, lsl #24
    1314:	01080000 	mrseq	r0, (UNDEF: 8)
    1318:	00010000 	andeq	r0, r1, r0
    131c:	00010853 	andeq	r0, r1, r3, asr r8
    1320:	00016000 	andeq	r6, r1, r0
    1324:	5c000100 	stfpls	f0, [r0], {-0}
    1328:	00000160 	andeq	r0, r0, r0, ror #2
    132c:	00000164 	andeq	r0, r0, r4, ror #2
    1330:	64530001 	ldrbvs	r0, [r3], #-1
    1334:	80000001 	andhi	r0, r0, r1
    1338:	01000001 	tsteq	r0, r1
    133c:	01805c00 	orreq	r5, r0, r0, lsl #24
    1340:	01840000 	orreq	r0, r4, r0
    1344:	00050000 	andeq	r0, r5, r0
    1348:	2534007c 	ldrcs	r0, [r4, #-124]!	; 0x7c
    134c:	0001849f 	muleq	r1, pc, r4	; <UNPREDICTABLE>
    1350:	0001a000 	andeq	sl, r1, r0
    1354:	5c000100 	stfpls	f0, [r0], {-0}
    1358:	000001a0 	andeq	r0, r0, r0, lsr #3
    135c:	000001b0 			; <UNDEFINED> instruction: 0x000001b0
    1360:	b0530001 	subslt	r0, r3, r1
    1364:	c4000001 	strgt	r0, [r0], #-1
    1368:	01000001 	tsteq	r0, r1
    136c:	01c45c00 	biceq	r5, r4, r0, lsl #24
    1370:	01cc0000 	biceq	r0, ip, r0
    1374:	00050000 	andeq	r0, r5, r0
    1378:	2531007c 	ldrcs	r0, [r1, #-124]!	; 0x7c
    137c:	0001cc9f 	muleq	r1, pc, ip	; <UNPREDICTABLE>
    1380:	0001d400 	andeq	sp, r1, r0, lsl #8
    1384:	5c000100 	stfpls	f0, [r0], {-0}
    1388:	000001d4 	ldrdeq	r0, [r0], -r4
    138c:	000001d7 	ldrdeq	r0, [r0], -r7
    1390:	d7530001 	ldrble	r0, [r3, -r1]
    1394:	f0000001 			; <UNDEFINED> instruction: 0xf0000001
    1398:	04000001 	streq	r0, [r0], #-1
    139c:	5301f300 	movwpl	pc, #4864	; 0x1300	; <UNPREDICTABLE>
    13a0:	0001f09f 	muleq	r1, pc, r0	; <UNPREDICTABLE>
    13a4:	0001f700 	andeq	pc, r1, r0, lsl #14
    13a8:	5c000100 	stfpls	f0, [r0], {-0}
	...
    13b4:	000000ec 	andeq	r0, r0, ip, ror #1
    13b8:	000000fc 	strdeq	r0, [r0], -ip
    13bc:	9f300002 	svcls	0x00300002
    13c0:	000000fc 	strdeq	r0, [r0], -ip
    13c4:	00000104 	andeq	r0, r0, r4, lsl #2
    13c8:	9f310002 	svcls	0x00310002
    13cc:	00000104 	andeq	r0, r0, r4, lsl #2
    13d0:	00000108 	andeq	r0, r0, r8, lsl #2
    13d4:	9f300002 	svcls	0x00300002
	...
    13e0:	00000230 	andeq	r0, r0, r0, lsr r2
    13e4:	0000023f 	andeq	r0, r0, pc, lsr r2
    13e8:	3f500001 	svccc	0x00500001
    13ec:	58000002 	stmdapl	r0, {r1}
    13f0:	04000002 	streq	r0, [r0], #-2
    13f4:	5001f300 	andpl	pc, r1, r0, lsl #6
    13f8:	0002589f 	muleq	r2, pc, r8	; <UNPREDICTABLE>
    13fc:	00028400 	andeq	r8, r2, r0, lsl #8
    1400:	50000100 	andpl	r0, r0, r0, lsl #2
	...
    140c:	00000230 	andeq	r0, r0, r0, lsr r2
    1410:	0000023f 	andeq	r0, r0, pc, lsr r2
    1414:	3f510001 	svccc	0x00510001
    1418:	58000002 	stmdapl	r0, {r1}
    141c:	04000002 	streq	r0, [r0], #-2
    1420:	5101f300 	mrspl	pc, SP_irq	; <UNPREDICTABLE>
    1424:	0002589f 	muleq	r2, pc, r8	; <UNPREDICTABLE>
    1428:	00028400 	andeq	r8, r2, r0, lsl #8
    142c:	51000100 	mrspl	r0, (UNDEF: 16)
	...
    1438:	00000284 	andeq	r0, r0, r4, lsl #5
    143c:	000002b0 			; <UNDEFINED> instruction: 0x000002b0
    1440:	b0500001 	subslt	r0, r0, r1
    1444:	f8000002 			; <UNDEFINED> instruction: 0xf8000002
    1448:	01000004 	tsteq	r0, r4
    144c:	04f85a00 	ldrbteq	r5, [r8], #2560	; 0xa00
    1450:	050c0000 	streq	r0, [ip, #-0]
    1454:	00040000 	andeq	r0, r4, r0
    1458:	9f5001f3 	svcls	0x005001f3
	...
    1464:	00000284 	andeq	r0, r0, r4, lsl #5
    1468:	00000298 	muleq	r0, r8, r2
    146c:	98510001 	ldmdals	r1, {r0}^
    1470:	b0000002 	andlt	r0, r0, r2
    1474:	03000002 	movweq	r0, #2
    1478:	9f017100 	svcls	0x00017100
    147c:	000002b0 			; <UNDEFINED> instruction: 0x000002b0
    1480:	0000050c 	andeq	r0, r0, ip, lsl #10
    1484:	01f30004 	mvnseq	r0, r4
    1488:	00009f51 	andeq	r9, r0, r1, asr pc
    148c:	00000000 	andeq	r0, r0, r0
    1490:	02840000 	addeq	r0, r4, #0
    1494:	02b80000 	adcseq	r0, r8, #0
    1498:	00010000 	andeq	r0, r1, r0
    149c:	0002b852 	andeq	fp, r2, r2, asr r8
    14a0:	0002e000 	andeq	lr, r2, r0
    14a4:	52000100 	andpl	r0, r0, #0, 2
    14a8:	000002e0 	andeq	r0, r0, r0, ror #5
    14ac:	000004a8 	andeq	r0, r0, r8, lsr #9
    14b0:	a8560001 	ldmdage	r6, {r0}^
    14b4:	0c000004 	stceq	0, cr0, [r0], {4}
    14b8:	01000005 	tsteq	r0, r5
    14bc:	00005200 	andeq	r5, r0, r0, lsl #4
    14c0:	00000000 	andeq	r0, r0, r0
    14c4:	02840000 	addeq	r0, r4, #0
    14c8:	02a00000 	adceq	r0, r0, #0
    14cc:	00010000 	andeq	r0, r1, r0
    14d0:	00000053 	andeq	r0, r0, r3, asr r0
    14d4:	00000000 	andeq	r0, r0, r0
    14d8:	00029400 	andeq	r9, r2, r0, lsl #8
    14dc:	0002b000 	andeq	fp, r2, r0
    14e0:	50000100 	andpl	r0, r0, r0, lsl #2
    14e4:	000002b0 			; <UNDEFINED> instruction: 0x000002b0
    14e8:	000002b4 			; <UNDEFINED> instruction: 0x000002b4
    14ec:	b4540001 	ldrblt	r0, [r4], #-1
    14f0:	c0000002 	andgt	r0, r0, r2
    14f4:	03000002 	movweq	r0, #2
    14f8:	9f017400 	svcls	0x00017400
    14fc:	000002c0 	andeq	r0, r0, r0, asr #5
    1500:	000002cc 	andeq	r0, r0, ip, asr #5
    1504:	cc540001 	mrrcgt	0, 0, r0, r4, cr1
    1508:	d8000002 	stmdale	r0, {r1}
    150c:	03000002 	movweq	r0, #2
    1510:	9f017400 	svcls	0x00017400
    1514:	000002d8 	ldrdeq	r0, [r0], -r8
    1518:	000004ac 	andeq	r0, r0, ip, lsr #9
    151c:	ac540001 	mrrcge	0, 0, r0, r4, cr1
    1520:	b8000004 	stmdalt	r0, {r2}
    1524:	03000004 	movweq	r0, #4
    1528:	9f017400 	svcls	0x00017400
    152c:	000004b8 			; <UNDEFINED> instruction: 0x000004b8
    1530:	000004e4 	andeq	r0, r0, r4, ror #9
    1534:	e4540001 	ldrb	r0, [r4], #-1
    1538:	f0000004 			; <UNDEFINED> instruction: 0xf0000004
    153c:	01000004 	tsteq	r0, r4
    1540:	04f05000 	ldrbteq	r5, [r0], #0
    1544:	04f80000 	ldrbteq	r0, [r8], #0
    1548:	00030000 	andeq	r0, r3, r0
    154c:	009f0174 	addseq	r0, pc, r4, ror r1	; <UNPREDICTABLE>
    1550:	00000000 	andeq	r0, r0, r0
    1554:	9c000000 	stcls	0, cr0, [r0], {-0}
    1558:	f8000002 			; <UNDEFINED> instruction: 0xf8000002
    155c:	01000004 	tsteq	r0, r4
    1560:	04f85800 	ldrbteq	r5, [r8], #2048	; 0x800
    1564:	050c0000 	streq	r0, [ip, #-0]
    1568:	000a0000 	andeq	r0, sl, r0
    156c:	f35101f3 	vbsl	q8, <illegal reg q8.5>, <illegal reg q9.5>
    1570:	31225001 	teqcc	r2, r1
    1574:	00009f1c 	andeq	r9, r0, ip, lsl pc
    1578:	00000000 	andeq	r0, r0, r0
    157c:	03e00000 	mvneq	r0, #0
    1580:	03e40000 	mvneq	r0, #0
    1584:	00010000 	andeq	r0, r1, r0
    1588:	00040450 	andeq	r0, r4, r0, asr r4
    158c:	00040800 	andeq	r0, r4, r0, lsl #16
    1590:	50000100 	andpl	r0, r0, r0, lsl #2
    1594:	00000428 	andeq	r0, r0, r8, lsr #8
    1598:	0000042c 	andeq	r0, r0, ip, lsr #8
    159c:	4c500001 	mrrcmi	0, 0, r0, r0, cr1	; <UNPREDICTABLE>
    15a0:	50000004 	andpl	r0, r0, r4
    15a4:	01000004 	tsteq	r0, r4
    15a8:	04585000 	ldrbeq	r5, [r8], #-0
    15ac:	045c0000 	ldrbeq	r0, [ip], #-0
    15b0:	00010000 	andeq	r0, r1, r0
    15b4:	00047c50 	andeq	r7, r4, r0, asr ip
    15b8:	00048000 	andeq	r8, r4, r0
    15bc:	50000100 	andpl	r0, r0, r0, lsl #2
    15c0:	000004a4 	andeq	r0, r0, r4, lsr #9
    15c4:	000004cc 	andeq	r0, r0, ip, asr #9
    15c8:	00500001 	subseq	r0, r0, r1
    15cc:	00000000 	andeq	r0, r0, r0
    15d0:	e0000000 	and	r0, r0, r0
    15d4:	e8000002 	stmda	r0, {r1}
    15d8:	02000002 	andeq	r0, r0, #2
    15dc:	e89f3000 	ldm	pc, {ip, sp}	; <UNPREDICTABLE>
    15e0:	ec000002 	stc	0, cr0, [r0], {2}
    15e4:	01000002 	tsteq	r0, r2
    15e8:	02f85700 	rscseq	r5, r8, #0, 14
    15ec:	04cc0000 	strbeq	r0, [ip], #0
    15f0:	00010000 	andeq	r0, r1, r0
    15f4:	00000057 	andeq	r0, r0, r7, asr r0
    15f8:	00000000 	andeq	r0, r0, r0
    15fc:	00001400 	andeq	r1, r0, r0, lsl #8
    1600:	00001c00 	andeq	r1, r0, r0, lsl #24
    1604:	73000300 	movwvc	r0, #768	; 0x300
    1608:	001c9f04 	andseq	r9, ip, r4, lsl #30
    160c:	00270000 	eoreq	r0, r7, r0
    1610:	00010000 	andeq	r0, r1, r0
    1614:	00000053 	andeq	r0, r0, r3, asr r0
	...
    1620:	00000f00 	andeq	r0, r0, r0, lsl #30
    1624:	50000100 	andpl	r0, r0, r0, lsl #2
    1628:	0000000f 	andeq	r0, r0, pc
    162c:	00000044 	andeq	r0, r0, r4, asr #32
    1630:	00540001 	subseq	r0, r4, r1
	...
    163c:	0f000000 	svceq	0x00000000
    1640:	01000000 	mrseq	r0, (UNDEF: 0)
    1644:	000f5000 	andeq	r5, pc, r0
    1648:	00440000 	subeq	r0, r4, r0
    164c:	00010000 	andeq	r0, r1, r0
    1650:	00000054 	andeq	r0, r0, r4, asr r0
	...
    165c:	00000f00 	andeq	r0, r0, r0, lsl #30
    1660:	50000100 	andpl	r0, r0, r0, lsl #2
    1664:	0000000f 	andeq	r0, r0, pc
    1668:	00000044 	andeq	r0, r0, r4, asr #32
    166c:	00540001 	subseq	r0, r4, r1
	...
    1678:	0f000000 	svceq	0x00000000
    167c:	01000000 	mrseq	r0, (UNDEF: 0)
    1680:	000f5000 	andeq	r5, pc, r0
    1684:	00440000 	subeq	r0, r4, r0
    1688:	00010000 	andeq	r0, r1, r0
    168c:	00000054 	andeq	r0, r0, r4, asr r0
	...
    1698:	00000f00 	andeq	r0, r0, r0, lsl #30
    169c:	50000100 	andpl	r0, r0, r0, lsl #2
    16a0:	0000000f 	andeq	r0, r0, pc
    16a4:	00000044 	andeq	r0, r0, r4, asr #32
    16a8:	00540001 	subseq	r0, r4, r1
    16ac:	00000000 	andeq	r0, r0, r0
    16b0:	34000000 	strcc	r0, [r0], #-0
    16b4:	40000000 	andmi	r0, r0, r0
    16b8:	02000000 	andeq	r0, r0, #0
    16bc:	409f3000 	addsmi	r3, pc, r0
    16c0:	6c000000 	stcvs	0, cr0, [r0], {-0}
    16c4:	01000000 	mrseq	r0, (UNDEF: 0)
    16c8:	00005300 	andeq	r5, r0, r0, lsl #6
    16cc:	00000000 	andeq	r0, r0, r0
    16d0:	a0ac0000 	adcge	r0, ip, r0
    16d4:	a0b00000 	adcsge	r0, r0, r0
    16d8:	00020000 	andeq	r0, r2, r0
    16dc:	a0b09f30 	adcsge	r9, r0, r0, lsr pc
    16e0:	a0b40000 	adcsge	r0, r4, r0
    16e4:	00010000 	andeq	r0, r1, r0
    16e8:	00000050 	andeq	r0, r0, r0, asr r0
    16ec:	00000000 	andeq	r0, r0, r0
    16f0:	00a0c400 	adceq	ip, r0, r0, lsl #8
    16f4:	00a0c800 	adceq	ip, r0, r0, lsl #16
    16f8:	30000200 	andcc	r0, r0, r0, lsl #4
    16fc:	00a0c89f 	umlaleq	ip, r0, pc, r8	; <UNPREDICTABLE>
    1700:	00a0cc00 	adceq	ip, r0, r0, lsl #24
    1704:	53000100 	movwpl	r0, #256	; 0x100
    1708:	0000a0d0 	ldrdeq	sl, [r0], -r0
    170c:	0000a0d8 	ldrdeq	sl, [r0], -r8
    1710:	00530001 	subseq	r0, r3, r1
    1714:	00000000 	andeq	r0, r0, r0
    1718:	1c000000 	stcne	0, cr0, [r0], {-0}
    171c:	27000000 	strcs	r0, [r0, -r0]
    1720:	01000000 	mrseq	r0, (UNDEF: 0)
    1724:	00275000 	eoreq	r5, r7, r0
    1728:	005c0000 	subseq	r0, ip, r0
    172c:	00010000 	andeq	r0, r1, r0
    1730:	00000054 	andeq	r0, r0, r4, asr r0
	...
    173c:	00000400 	andeq	r0, r0, r0, lsl #8
    1740:	50000100 	andpl	r0, r0, r0, lsl #2
    1744:	00000004 	andeq	r0, r0, r4
    1748:	0000000c 	andeq	r0, r0, ip
    174c:	0c530001 	mrrceq	0, 0, r0, r3, cr1
    1750:	10000000 	andne	r0, r0, r0
    1754:	01000000 	mrseq	r0, (UNDEF: 0)
    1758:	00105000 	andseq	r5, r0, r0
    175c:	001c0000 	andseq	r0, ip, r0
    1760:	00010000 	andeq	r0, r1, r0
    1764:	00000053 	andeq	r0, r0, r3, asr r0
    1768:	00000000 	andeq	r0, r0, r0
    176c:	00003c00 	andeq	r3, r0, r0, lsl #24
    1770:	00004700 	andeq	r4, r0, r0, lsl #14
    1774:	50000100 	andpl	r0, r0, r0, lsl #2
    1778:	00000047 	andeq	r0, r0, r7, asr #32
    177c:	00000060 	andeq	r0, r0, r0, rrx
    1780:	00550001 	subseq	r0, r5, r1
    1784:	00000000 	andeq	r0, r0, r0
    1788:	50000000 	andpl	r0, r0, r0
    178c:	54000000 	strpl	r0, [r0], #-0
    1790:	01000000 	mrseq	r0, (UNDEF: 0)
    1794:	00005000 	andeq	r5, r0, r0
    1798:	00000000 	andeq	r0, r0, r0
    179c:	00600000 	rsbeq	r0, r0, r0
    17a0:	006c0000 	rsbeq	r0, ip, r0
    17a4:	00010000 	andeq	r0, r1, r0
    17a8:	00006c50 	andeq	r6, r0, r0, asr ip
    17ac:	00007400 	andeq	r7, r0, r0, lsl #8
    17b0:	f3000400 	vshl.u8	d0, d0, d0
    17b4:	009f5001 	addseq	r5, pc, r1
    17b8:	00000000 	andeq	r0, r0, r0
    17bc:	74000000 	strvc	r0, [r0], #-0
    17c0:	80000000 	andhi	r0, r0, r0
    17c4:	01000000 	mrseq	r0, (UNDEF: 0)
    17c8:	00805000 	addeq	r5, r0, r0
    17cc:	00880000 	addeq	r0, r8, r0
    17d0:	00040000 	andeq	r0, r4, r0
    17d4:	9f5001f3 	svcls	0x005001f3
	...
    17e0:	00000138 	andeq	r0, r0, r8, lsr r1
    17e4:	00000143 	andeq	r0, r0, r3, asr #2
    17e8:	43500001 	cmpmi	r0, #1
    17ec:	68000001 	stmdavs	r0, {r0}
    17f0:	01000001 	tsteq	r0, r1
    17f4:	00005400 	andeq	r5, r0, r0, lsl #8
	...
    1800:	000f0000 	andeq	r0, pc, r0
    1804:	00010000 	andeq	r0, r1, r0
    1808:	00000f50 	andeq	r0, r0, r0, asr pc
    180c:	00002000 	andeq	r2, r0, r0
    1810:	54000100 	strpl	r0, [r0], #-256	; 0x100
	...
    1820:	0000000f 	andeq	r0, r0, pc
    1824:	0f510001 	svceq	0x00510001
    1828:	20000000 	andcs	r0, r0, r0
    182c:	01000000 	mrseq	r0, (UNDEF: 0)
    1830:	00005500 	andeq	r5, r0, r0, lsl #10
    1834:	00000000 	andeq	r0, r0, r0
    1838:	00ec0000 	rsceq	r0, ip, r0
    183c:	01040000 	mrseq	r0, (UNDEF: 4)
    1840:	00010000 	andeq	r0, r1, r0
    1844:	00010450 	andeq	r0, r1, r0, asr r4
    1848:	00011400 	andeq	r1, r1, r0, lsl #8
    184c:	f3000400 	vshl.u8	d0, d0, d0
    1850:	149f5001 	ldrne	r5, [pc], #1	; 1858 <__code_start__-0x67a8>
    1854:	18000001 	stmdane	r0, {r0}
    1858:	01000001 	tsteq	r0, r1
    185c:	01185000 	tsteq	r8, r0
    1860:	01200000 	teqeq	r0, r0
    1864:	00040000 	andeq	r0, r4, r0
    1868:	9f5001f3 	svcls	0x005001f3
	...
    1874:	000000f8 	strdeq	r0, [r0], -r8
    1878:	00000104 	andeq	r0, r0, r4, lsl #2
    187c:	0070000b 	rsbseq	r0, r0, fp
    1880:	b4232535 	strtlt	r2, [r3], #-1333	; 0x535
    1884:	02818080 	addeq	r8, r1, #128	; 0x80
    1888:	0001049f 	muleq	r1, pc, r4	; <UNPREDICTABLE>
    188c:	00010700 	andeq	r0, r1, r0, lsl #14
    1890:	50000100 	andpl	r0, r0, r0, lsl #2
    1894:	00000107 	andeq	r0, r0, r7, lsl #2
    1898:	00000114 	andeq	r0, r0, r4, lsl r1
    189c:	01f3000c 	mvnseq	r0, ip
    18a0:	23253550 	teqcs	r5, #80, 10	; 0x14000000
    18a4:	818080b4 	strhhi	r8, [r0, r4]
    18a8:	00009f02 	andeq	r9, r0, r2, lsl #30
    18ac:	00000000 	andeq	r0, r0, r0
    18b0:	00fc0000 	rscseq	r0, ip, r0
    18b4:	01140000 	tsteq	r4, r0
    18b8:	00010000 	andeq	r0, r1, r0
    18bc:	00000054 	andeq	r0, r0, r4, asr r0
    18c0:	00000000 	andeq	r0, r0, r0
    18c4:	0000d000 	andeq	sp, r0, r0
    18c8:	0000df00 	andeq	sp, r0, r0, lsl #30
    18cc:	50000100 	andpl	r0, r0, r0, lsl #2
    18d0:	000000df 	ldrdeq	r0, [r0], -pc	; <UNPREDICTABLE>
    18d4:	000000e4 	andeq	r0, r0, r4, ror #1
    18d8:	01f30004 	mvnseq	r0, r4
    18dc:	00e49f50 	rsceq	r9, r4, r0, asr pc
    18e0:	00e70000 	rsceq	r0, r7, r0
    18e4:	00010000 	andeq	r0, r1, r0
    18e8:	0000e750 	andeq	lr, r0, r0, asr r7
    18ec:	0000ec00 	andeq	lr, r0, r0, lsl #24
    18f0:	f3000400 	vshl.u8	d0, d0, d0
    18f4:	009f5001 	addseq	r5, pc, r1
    18f8:	00000000 	andeq	r0, r0, r0
    18fc:	d0000000 	andle	r0, r0, r0
    1900:	df000000 	svcle	0x00000000
    1904:	01000000 	mrseq	r0, (UNDEF: 0)
    1908:	00df5100 	sbcseq	r5, pc, r0, lsl #2
    190c:	00e40000 	rsceq	r0, r4, r0
    1910:	00040000 	andeq	r0, r4, r0
    1914:	9f5101f3 	svcls	0x005101f3
    1918:	000000e4 	andeq	r0, r0, r4, ror #1
    191c:	000000e7 	andeq	r0, r0, r7, ror #1
    1920:	e7510001 	ldrb	r0, [r1, -r1]
    1924:	ec000000 	stc	0, cr0, [r0], {-0}
    1928:	04000000 	streq	r0, [r0], #-0
    192c:	5101f300 	mrspl	pc, SP_irq	; <UNPREDICTABLE>
    1930:	0000009f 	muleq	r0, pc, r0	; <UNPREDICTABLE>
    1934:	00000000 	andeq	r0, r0, r0
    1938:	0000c000 	andeq	ip, r0, r0
    193c:	0000cb00 	andeq	ip, r0, r0, lsl #22
    1940:	50000100 	andpl	r0, r0, r0, lsl #2
    1944:	000000cb 	andeq	r0, r0, fp, asr #1
    1948:	000000d0 	ldrdeq	r0, [r0], -r0	; <UNPREDICTABLE>
    194c:	01f30004 	mvnseq	r0, r4
    1950:	00009f50 	andeq	r9, r0, r0, asr pc
    1954:	00000000 	andeq	r0, r0, r0
    1958:	009c0000 	addseq	r0, ip, r0
    195c:	00b40000 	adcseq	r0, r4, r0
    1960:	00010000 	andeq	r0, r1, r0
    1964:	0000b450 	andeq	fp, r0, r0, asr r4
    1968:	0000c000 	andeq	ip, r0, r0
    196c:	f3000400 	vshl.u8	d0, d0, d0
    1970:	009f5001 	addseq	r5, pc, r1
    1974:	00000000 	andeq	r0, r0, r0
    1978:	78000000 	stmdavc	r0, {}	; <UNPREDICTABLE>
    197c:	90000000 	andls	r0, r0, r0
    1980:	01000000 	mrseq	r0, (UNDEF: 0)
    1984:	00905000 	addseq	r5, r0, r0
    1988:	009c0000 	addseq	r0, ip, r0
    198c:	00040000 	andeq	r0, r4, r0
    1990:	9f5001f3 	svcls	0x005001f3
	...
    199c:	00000068 	andeq	r0, r0, r8, rrx
    19a0:	00000073 	andeq	r0, r0, r3, ror r0
    19a4:	73500001 	cmpvc	r0, #1
    19a8:	78000000 	stmdavc	r0, {}	; <UNPREDICTABLE>
    19ac:	04000000 	streq	r0, [r0], #-0
    19b0:	5001f300 	andpl	pc, r1, r0, lsl #6
    19b4:	0000009f 	muleq	r0, pc, r0	; <UNPREDICTABLE>
	...
    19c0:	00004800 	andeq	r4, r0, r0, lsl #16
    19c4:	50000100 	andpl	r0, r0, r0, lsl #2
    19c8:	00000048 	andeq	r0, r0, r8, asr #32
    19cc:	00000068 	andeq	r0, r0, r8, rrx
    19d0:	01f30004 	mvnseq	r0, r4
    19d4:	00009f50 	andeq	r9, r0, r0, asr pc
	...
    19e0:	004b0000 	subeq	r0, fp, r0
    19e4:	00010000 	andeq	r0, r1, r0
    19e8:	00004b51 	andeq	r4, r0, r1, asr fp
    19ec:	00006800 	andeq	r6, r0, r0, lsl #16
    19f0:	f3000400 	vshl.u8	d0, d0, d0
    19f4:	009f5101 	addseq	r5, pc, r1, lsl #2
    19f8:	00000000 	andeq	r0, r0, r0
    19fc:	4c000000 	stcmi	0, cr0, [r0], {-0}
    1a00:	54000000 	strpl	r0, [r0], #-0
    1a04:	01000000 	mrseq	r0, (UNDEF: 0)
    1a08:	00545000 	subseq	r5, r4, r0
    1a0c:	00580000 	subseq	r0, r8, r0
    1a10:	00090000 	andeq	r0, r9, r0
    1a14:	00740075 	rsbseq	r0, r4, r5, ror r0
    1a18:	21007124 	tstcs	r0, r4, lsr #2
    1a1c:	0000589f 	muleq	r0, pc, r8	; <UNPREDICTABLE>
    1a20:	00005f00 	andeq	r5, r0, r0, lsl #30
    1a24:	51000100 	mrspl	r0, (UNDEF: 16)
	...
    1a30:	000000e0 	andeq	r0, r0, r0, ror #1
    1a34:	0000011b 	andeq	r0, r0, fp, lsl r1
    1a38:	1b500001 	blne	1401a44 <__bss_end__+0x13f5e94>
    1a3c:	20000001 	andcs	r0, r0, r1
    1a40:	04000001 	streq	r0, [r0], #-1
    1a44:	5001f300 	andpl	pc, r1, r0, lsl #6
    1a48:	0001209f 	muleq	r1, pc, r0	; <UNPREDICTABLE>
    1a4c:	00012300 	andeq	r2, r1, r0, lsl #6
    1a50:	50000100 	andpl	r0, r0, r0, lsl #2
    1a54:	00000123 	andeq	r0, r0, r3, lsr #2
    1a58:	0000013c 	andeq	r0, r0, ip, lsr r1
    1a5c:	01f30004 	mvnseq	r0, r4
    1a60:	013c9f50 	teqeq	ip, r0, asr pc
    1a64:	013f0000 	teqeq	pc, r0
    1a68:	00010000 	andeq	r0, r1, r0
    1a6c:	00013f50 	andeq	r3, r1, r0, asr pc
    1a70:	00016c00 	andeq	r6, r1, r0, lsl #24
    1a74:	f3000400 	vshl.u8	d0, d0, d0
    1a78:	009f5001 	addseq	r5, pc, r1
    1a7c:	00000000 	andeq	r0, r0, r0
    1a80:	e0000000 	and	r0, r0, r0
    1a84:	08000000 	stmdaeq	r0, {}	; <UNPREDICTABLE>
    1a88:	01000001 	tsteq	r0, r1
    1a8c:	01085100 	mrseq	r5, (UNDEF: 24)
    1a90:	011b0000 	tsteq	fp, r0
    1a94:	00030000 	andeq	r0, r3, r0
    1a98:	1b9f0171 	blne	fe7c2064 <__bss_end__+0xfe7b64b4>
    1a9c:	20000001 	andcs	r0, r0, r1
    1aa0:	04000001 	streq	r0, [r0], #-1
    1aa4:	5101f300 	mrspl	pc, SP_irq	; <UNPREDICTABLE>
    1aa8:	0001209f 	muleq	r1, pc, r0	; <UNPREDICTABLE>
    1aac:	00012300 	andeq	r2, r1, r0, lsl #6
    1ab0:	51000100 	mrspl	r0, (UNDEF: 16)
    1ab4:	00000123 	andeq	r0, r0, r3, lsr #2
    1ab8:	0000016c 	andeq	r0, r0, ip, ror #2
    1abc:	01f30004 	mvnseq	r0, r4
    1ac0:	00009f51 	andeq	r9, r0, r1, asr pc
    1ac4:	00000000 	andeq	r0, r0, r0
    1ac8:	00f80000 	rscseq	r0, r8, r0
    1acc:	00fc0000 	rscseq	r0, ip, r0
    1ad0:	00010000 	andeq	r0, r1, r0
    1ad4:	0000fc52 	andeq	pc, r0, r2, asr ip	; <UNPREDICTABLE>
    1ad8:	00010400 	andeq	r0, r1, r0, lsl #8
    1adc:	03000500 	movweq	r0, #1280	; 0x500
    1ae0:	0000a714 	andeq	sl, r0, r4, lsl r7
    1ae4:	00000104 	andeq	r0, r0, r4, lsl #2
    1ae8:	0000011b 	andeq	r0, r0, fp, lsl r1
    1aec:	3c530001 	mrrccc	0, 0, r0, r3, cr1
    1af0:	3f000001 	svccc	0x00000001
    1af4:	01000001 	tsteq	r0, r1
    1af8:	00005300 	andeq	r5, r0, r0, lsl #6
    1afc:	00000000 	andeq	r0, r0, r0
    1b00:	006c0000 	rsbeq	r0, ip, r0
    1b04:	00800000 	addeq	r0, r0, r0
    1b08:	00010000 	andeq	r0, r1, r0
    1b0c:	00008050 	andeq	r8, r0, r0, asr r0
    1b10:	00009b00 	andeq	r9, r0, r0, lsl #22
    1b14:	52000100 	andpl	r0, r0, #0, 2
    1b18:	0000009b 	muleq	r0, fp, r0
    1b1c:	000000a4 	andeq	r0, r0, r4, lsr #1
    1b20:	01f30009 	mvnseq	r0, r9
    1b24:	09072350 	stmdbeq	r7, {r4, r6, r8, r9, sp}
    1b28:	a49f1af8 	ldrge	r1, [pc], #2808	; 1b30 <__code_start__-0x64d0>
    1b2c:	a7000000 	strge	r0, [r0, -r0]
    1b30:	01000000 	mrseq	r0, (UNDEF: 0)
    1b34:	00a75000 	adceq	r5, r7, r0
    1b38:	00d00000 	sbcseq	r0, r0, r0
    1b3c:	00040000 	andeq	r0, r4, r0
    1b40:	9f5001f3 	svcls	0x005001f3
	...
    1b4c:	00000088 	andeq	r0, r0, r8, lsl #1
    1b50:	000000a4 	andeq	r0, r0, r4, lsr #1
    1b54:	00540001 	subseq	r0, r4, r1
    1b58:	00000000 	andeq	r0, r0, r0
    1b5c:	1c000000 	stcne	0, cr0, [r0], {-0}
    1b60:	43000000 	movwmi	r0, #0
    1b64:	01000000 	mrseq	r0, (UNDEF: 0)
    1b68:	00435000 	subeq	r5, r3, r0
    1b6c:	006c0000 	rsbeq	r0, ip, r0
    1b70:	00040000 	andeq	r0, r4, r0
    1b74:	9f5001f3 	svcls	0x005001f3
	...
    1b80:	0000001c 	andeq	r0, r0, ip, lsl r0
    1b84:	00000043 	andeq	r0, r0, r3, asr #32
    1b88:	43500001 	cmpmi	r0, #1
    1b8c:	6c000000 	stcvs	0, cr0, [r0], {-0}
    1b90:	04000000 	streq	r0, [r0], #-0
    1b94:	5001f300 	andpl	pc, r1, r0, lsl #6
    1b98:	0000009f 	muleq	r0, pc, r0	; <UNPREDICTABLE>
	...
    1ba4:	00000f00 	andeq	r0, r0, r0, lsl #30
    1ba8:	50000100 	andpl	r0, r0, r0, lsl #2
    1bac:	0000000f 	andeq	r0, r0, pc
    1bb0:	00000044 	andeq	r0, r0, r4, asr #32
    1bb4:	00540001 	subseq	r0, r4, r1
    1bb8:	00000000 	andeq	r0, r0, r0
    1bbc:	Address 0x0000000000001bbc is out of bounds.


Disassembly of section .debug_aranges:

00000000 <.debug_aranges>:
   0:	0000001c 	andeq	r0, r0, ip, lsl r0
   4:	00000002 	andeq	r0, r0, r2
   8:	00040000 	andeq	r0, r4, r0
   c:	00000000 	andeq	r0, r0, r0
  10:	00008010 	andeq	r8, r0, r0, lsl r0
  14:	00000184 	andeq	r0, r0, r4, lsl #3
	...
  20:	0000001c 	andeq	r0, r0, ip, lsl r0
  24:	04be0002 	ldrteq	r0, [lr], #2
  28:	00040000 	andeq	r0, r4, r0
  2c:	00000000 	andeq	r0, r0, r0
  30:	00008194 	muleq	r0, r4, r1
  34:	00000804 	andeq	r0, r0, r4, lsl #16
	...
  40:	0000001c 	andeq	r0, r0, ip, lsl r0
  44:	143c0002 	ldrtne	r0, [ip], #-2
  48:	00040000 	andeq	r0, r4, r0
  4c:	00000000 	andeq	r0, r0, r0
  50:	00008998 	muleq	r0, r8, r9
  54:	0000068c 	andeq	r0, r0, ip, lsl #13
	...
  60:	0000001c 	andeq	r0, r0, ip, lsl r0
  64:	21a90002 			; <UNDEFINED> instruction: 0x21a90002
  68:	00040000 	andeq	r0, r4, r0
  6c:	00000000 	andeq	r0, r0, r0
  70:	0000902c 	andeq	r9, r0, ip, lsr #32
  74:	000006e8 	andeq	r0, r0, r8, ror #13
	...
  80:	0000001c 	andeq	r0, r0, ip, lsl r0
  84:	2db90002 	ldccs	0, cr0, [r9, #8]!
  88:	00040000 	andeq	r0, r4, r0
  8c:	00000000 	andeq	r0, r0, r0
  90:	000097ac 	andeq	r9, r0, ip, lsr #15
  94:	000000f0 	strdeq	r0, [r0], -r0	; <UNPREDICTABLE>
	...
  a0:	0000001c 	andeq	r0, r0, ip, lsl r0
  a4:	2ecf0002 	cdpcs	0, 12, cr0, cr15, cr2, {0}
  a8:	00040000 	andeq	r0, r4, r0
  ac:	00000000 	andeq	r0, r0, r0
  b0:	0000989c 	muleq	r0, ip, r8
  b4:	00000020 	andeq	r0, r0, r0, lsr #32
	...
  c0:	0000001c 	andeq	r0, r0, ip, lsl r0
  c4:	2fae0002 	svccs	0x00ae0002
  c8:	00040000 	andeq	r0, r4, r0
  cc:	00000000 	andeq	r0, r0, r0
  d0:	000098bc 			; <UNDEFINED> instruction: 0x000098bc
  d4:	00000058 	andeq	r0, r0, r8, asr r0
	...
  e0:	0000001c 	andeq	r0, r0, ip, lsl r0
  e4:	31430002 	cmpcc	r3, r2
  e8:	00040000 	andeq	r0, r4, r0
  ec:	00000000 	andeq	r0, r0, r0
  f0:	00009914 	andeq	r9, r0, r4, lsl r9
  f4:	0000003c 	andeq	r0, r0, ip, lsr r0
	...
 100:	0000001c 	andeq	r0, r0, ip, lsl r0
 104:	325a0002 	subscc	r0, sl, #2
 108:	00040000 	andeq	r0, r4, r0
 10c:	00000000 	andeq	r0, r0, r0
 110:	00009950 	andeq	r9, r0, r0, asr r9
 114:	00000034 	andeq	r0, r0, r4, lsr r0
	...
 120:	0000001c 	andeq	r0, r0, ip, lsl r0
 124:	334c0002 	movtcc	r0, #49154	; 0xc002
 128:	00040000 	andeq	r0, r4, r0
 12c:	00000000 	andeq	r0, r0, r0
 130:	00009984 	andeq	r9, r0, r4, lsl #19
 134:	0000050c 	andeq	r0, r0, ip, lsl #10
	...
 140:	0000001c 	andeq	r0, r0, ip, lsl r0
 144:	39d10002 	ldmibcc	r1, {r1}^
 148:	00040000 	andeq	r0, r4, r0
 14c:	00000000 	andeq	r0, r0, r0
 150:	00009e90 	muleq	r0, r0, lr
 154:	00000028 	andeq	r0, r0, r8, lsr #32
	...
 160:	0000001c 	andeq	r0, r0, ip, lsl r0
 164:	3ad40002 	bcc	ff500174 <__bss_end__+0xff4f45c4>
 168:	00040000 	andeq	r0, r4, r0
 16c:	00000000 	andeq	r0, r0, r0
 170:	00009eb8 			; <UNDEFINED> instruction: 0x00009eb8
 174:	00000034 	andeq	r0, r0, r4, lsr r0
	...
 180:	0000001c 	andeq	r0, r0, ip, lsl r0
 184:	3bd70002 	blcc	ff5c0194 <__bss_end__+0xff5b45e4>
 188:	00040000 	andeq	r0, r4, r0
 18c:	00000000 	andeq	r0, r0, r0
 190:	00009eec 	andeq	r9, r0, ip, ror #29
 194:	00000044 	andeq	r0, r0, r4, asr #32
	...
 1a0:	0000001c 	andeq	r0, r0, ip, lsl r0
 1a4:	3d190002 	ldccc	0, cr0, [r9, #-8]
 1a8:	00040000 	andeq	r0, r4, r0
 1ac:	00000000 	andeq	r0, r0, r0
 1b0:	00009f30 	andeq	r9, r0, r0, lsr pc
 1b4:	00000044 	andeq	r0, r0, r4, asr #32
	...
 1c0:	0000001c 	andeq	r0, r0, ip, lsl r0
 1c4:	3e5b0002 	cdpcc	0, 5, cr0, cr11, cr2, {0}
 1c8:	00040000 	andeq	r0, r4, r0
 1cc:	00000000 	andeq	r0, r0, r0
 1d0:	00009f74 	andeq	r9, r0, r4, ror pc
 1d4:	00000044 	andeq	r0, r0, r4, asr #32
	...
 1e0:	0000001c 	andeq	r0, r0, ip, lsl r0
 1e4:	3f9d0002 	svccc	0x009d0002
 1e8:	00040000 	andeq	r0, r4, r0
 1ec:	00000000 	andeq	r0, r0, r0
 1f0:	00009fb8 			; <UNDEFINED> instruction: 0x00009fb8
 1f4:	00000044 	andeq	r0, r0, r4, asr #32
	...
 200:	0000001c 	andeq	r0, r0, ip, lsl r0
 204:	40df0002 	sbcsmi	r0, pc, r2
 208:	00040000 	andeq	r0, r4, r0
 20c:	00000000 	andeq	r0, r0, r0
 210:	00009ffc 	strdeq	r9, [r0], -ip
 214:	00000044 	andeq	r0, r0, r4, asr #32
	...
 220:	0000001c 	andeq	r0, r0, ip, lsl r0
 224:	42210002 	eormi	r0, r1, #2
 228:	00040000 	andeq	r0, r4, r0
 22c:	00000000 	andeq	r0, r0, r0
 230:	0000a040 	andeq	sl, r0, r0, asr #32
 234:	0000006c 	andeq	r0, r0, ip, rrx
	...
 240:	0000001c 	andeq	r0, r0, ip, lsl r0
 244:	43fc0002 	mvnsmi	r0, #2
 248:	00040000 	andeq	r0, r4, r0
 24c:	00000000 	andeq	r0, r0, r0
 250:	0000a0ac 	andeq	sl, r0, ip, lsr #1
 254:	00000074 	andeq	r0, r0, r4, ror r0
	...
 260:	0000001c 	andeq	r0, r0, ip, lsl r0
 264:	45ad0002 	strmi	r0, [sp, #2]!
 268:	00040000 	andeq	r0, r4, r0
 26c:	00000000 	andeq	r0, r0, r0
 270:	0000a120 	andeq	sl, r0, r0, lsr #2
 274:	0000005c 	andeq	r0, r0, ip, asr r0
	...
 280:	0000001c 	andeq	r0, r0, ip, lsl r0
 284:	48840002 	stmmi	r4, {r1}
 288:	00040000 	andeq	r0, r4, r0
 28c:	00000000 	andeq	r0, r0, r0
 290:	0000a17c 	andeq	sl, r0, ip, ror r1
 294:	00000088 	andeq	r0, r0, r8, lsl #1
	...
 2a0:	0000001c 	andeq	r0, r0, ip, lsl r0
 2a4:	4a600002 	bmi	18002b4 <__bss_end__+0x17f4704>
 2a8:	00040000 	andeq	r0, r4, r0
 2ac:	00000000 	andeq	r0, r0, r0
 2b0:	0000a268 	andeq	sl, r0, r8, ror #4
 2b4:	00000178 	andeq	r0, r0, r8, ror r1
	...
 2c0:	0000001c 	andeq	r0, r0, ip, lsl r0
 2c4:	57290002 	strpl	r0, [r9, -r2]!
 2c8:	00040000 	andeq	r0, r4, r0
 2cc:	00000000 	andeq	r0, r0, r0
 2d0:	0000a3e0 	andeq	sl, r0, r0, ror #7
 2d4:	00000120 	andeq	r0, r0, r0, lsr #2
	...
 2e0:	0000001c 	andeq	r0, r0, ip, lsl r0
 2e4:	629d0002 	addsvs	r0, sp, #2
 2e8:	00040000 	andeq	r0, r4, r0
 2ec:	00000000 	andeq	r0, r0, r0
 2f0:	0000a500 	andeq	sl, r0, r0, lsl #10
 2f4:	00000194 	muleq	r0, r4, r1
	...
 300:	0000001c 	andeq	r0, r0, ip, lsl r0
 304:	6ec50002 	cdpvs	0, 12, cr0, cr5, cr2, {0}
 308:	00040000 	andeq	r0, r4, r0
 30c:	00000000 	andeq	r0, r0, r0
 310:	0000a694 	muleq	r0, r4, r6
 314:	00000044 	andeq	r0, r0, r4, asr #32
	...

Disassembly of section .debug_line:

00000000 <.debug_line>:
       0:	00000136 	andeq	r0, r0, r6, lsr r1
       4:	00f10002 	rscseq	r0, r1, r2
       8:	01020000 	mrseq	r0, (UNDEF: 2)
       c:	000d0efb 	strdeq	r0, [sp], -fp
      10:	01010101 	tsteq	r1, r1, lsl #2
      14:	01000000 	mrseq	r0, (UNDEF: 0)
      18:	74010000 	strvc	r0, [r1], #-0
      1c:	73747365 	cmnvc	r4, #-1811939327	; 0x94000001
      20:	2f002e00 	svccs	0x00002e00
      24:	72657355 	rsbvc	r7, r5, #1409286145	; 0x54000001
      28:	72622f73 	rsbvc	r2, r2, #460	; 0x1cc
      2c:	6a6e6169 	bvs	1b985d8 <__bss_end__+0x1b8ca28>
      30:	442f6e75 	strtmi	r6, [pc], #-3701	; 38 <__code_start__-0x7fc8>
      34:	746b7365 	strbtvc	r7, [fp], #-869	; 0x365
      38:	732f706f 	teqvc	pc, #111	; 0x6f
      3c:	6f6f6863 	svcvs	0x006f6863
      40:	70532f6c 	subsvc	r2, r3, ip, ror #30
      44:	676e6972 			; <UNDEFINED> instruction: 0x676e6972
      48:	30323931 	eorscc	r3, r2, r1, lsr r9
      4c:	3253432f 	subscc	r4, r3, #-1140850688	; 0xbc000000
      50:	584c3034 	stmdapl	ip, {r2, r4, r5, ip, sp}^
      54:	3273632f 	rsbscc	r6, r3, #-1140850688	; 0xbc000000
      58:	786c3034 	stmdavc	ip!, {r2, r4, r5, ip, sp}^
      5c:	7330322d 	teqvc	r0, #-805306366	; 0xd0000002
      60:	6c2f7270 	sfmvs	f7, 4, [pc], #-448	; fffffea8 <__bss_end__+0xffff42f8>
      64:	69706269 	ldmdbvs	r0!, {r0, r3, r5, r6, r9, sp, lr}^
      68:	636e692f 	cmnvs	lr, #770048	; 0xbc000
      6c:	6564756c 	strbvs	r7, [r4, #-1388]!	; 0x56c
      70:	73752f00 	cmnvc	r5, #0, 30
      74:	6f6c2f72 	svcvs	0x006c2f72
      78:	2f6c6163 	svccs	0x006c6163
      7c:	6c6c6543 	cfstr64vs	mvdx6, [ip], #-268	; 0xfffffef4
      80:	612f7261 	teqvs	pc, r1, ror #4
      84:	6e2d6d72 	mcrvs	13, 1, r6, cr13, cr2, {3}
      88:	2d656e6f 	stclcs	14, cr6, [r5, #-444]!	; 0xfffffe44
      8c:	69626165 	stmdbvs	r2!, {r0, r2, r5, r6, r8, sp, lr}^
      90:	382e342f 	stmdacc	lr!, {r0, r1, r2, r3, r5, sl, ip, sp}
      94:	632d332e 	teqvs	sp, #-1207959552	; 0xb8000000
      98:	30373173 	eorscc	r3, r7, r3, ror r1
      9c:	696c2f65 	stmdbvs	ip!, {r0, r2, r5, r6, r8, r9, sl, fp, sp}^
      a0:	63672f62 	cmnvs	r7, #392	; 0x188
      a4:	72612f63 	rsbvc	r2, r1, #396	; 0x18c
      a8:	6f6e2d6d 	svcvs	0x006e2d6d
      ac:	652d656e 	strvs	r6, [sp, #-1390]!	; 0x56e
      b0:	2f696261 	svccs	0x00696261
      b4:	2e382e34 	mrccs	14, 1, r2, cr8, cr4, {1}
      b8:	6e692f33 	mcrvs	15, 3, r2, cr9, cr3, {1}
      bc:	64756c63 	ldrbtvs	r6, [r5], #-3171	; 0xc63
      c0:	70000065 	andvc	r0, r0, r5, rrx
      c4:	33747261 	cmncc	r4, #268435462	; 0x10000006
      c8:	7365742d 	cmnvc	r5, #754974720	; 0x2d000000
      cc:	632e3174 	teqvs	lr, #116, 2
      d0:	00000100 	andeq	r0, r0, r0, lsl #2
      d4:	6c616b63 	stclvs	11, cr6, [r1], #-396	; 0xfffffe74
      d8:	2e636f6c 	cdpcs	15, 6, cr6, cr3, cr12, {3}
      dc:	00020068 	andeq	r0, r2, r8, rrx
      e0:	69707200 	ldmdbvs	r0!, {r9, ip, sp, lr}^
      e4:	0300682e 	movweq	r6, #2094	; 0x82e
      e8:	74730000 	ldrbtvc	r0, [r3], #-0
      ec:	746e6964 	strbtvc	r6, [lr], #-2404	; 0x964
      f0:	6363672d 	cmnvs	r3, #11796480	; 0xb40000
      f4:	0400682e 	streq	r6, [r0], #-2094	; 0x82e
      f8:	00000000 	andeq	r0, r0, r0
      fc:	80100205 	andshi	r0, r0, r5, lsl #4
     100:	0b030000 	bleq	c0108 <__bss_end__+0xb4558>
     104:	4d322f01 	ldcmi	15, cr2, [r2, #-4]!
     108:	01306830 	teqeq	r0, r0, lsr r8
     10c:	9f2ff431 	svcls	0x002ff431
     110:	0402004b 	streq	r0, [r2], #-75	; 0x4b
     114:	02006702 	andeq	r6, r0, #524288	; 0x80000
     118:	00490204 	subeq	r0, r9, r4, lsl #4
     11c:	06010402 	streq	r0, [r1], -r2, lsl #8
     120:	2f4d062e 	svccs	0x004d062e
     124:	305a0883 	subscc	r0, sl, r3, lsl #17
     128:	4c4d2f01 	mcrrmi	15, 0, r2, sp, cr1
     12c:	30673183 	rsbcc	r3, r7, r3, lsl #3
     130:	674b3067 	strbvs	r3, [fp, -r7, rrx]
     134:	002002d8 	ldrdeq	r0, [r0], -r8	; <UNPREDICTABLE>
     138:	02cc0101 	sbceq	r0, ip, #1073741824	; 0x40000000
     13c:	00020000 	andeq	r0, r2, r0
     140:	000001a4 	andeq	r0, r0, r4, lsr #3
     144:	0efb0102 	cdpeq	1, 15, cr0, cr11, cr2, {0}
     148:	0101000d 	tsteq	r1, sp
     14c:	00000101 	andeq	r0, r0, r1, lsl #2
     150:	00000100 	andeq	r0, r0, r0, lsl #2
     154:	73752f01 	cmnvc	r5, #1, 30
     158:	6f6c2f72 	svcvs	0x006c2f72
     15c:	2f6c6163 	svccs	0x006c6163
     160:	6c6c6543 	cfstr64vs	mvdx6, [ip], #-268	; 0xfffffef4
     164:	612f7261 	teqvs	pc, r1, ror #4
     168:	6e2d6d72 	mcrvs	13, 1, r6, cr13, cr2, {3}
     16c:	2d656e6f 	stclcs	14, cr6, [r5, #-444]!	; 0xfffffe44
     170:	69626165 	stmdbvs	r2!, {r0, r2, r5, r6, r8, sp, lr}^
     174:	382e342f 	stmdacc	lr!, {r0, r1, r2, r3, r5, sl, ip, sp}
     178:	632d332e 	teqvs	sp, #-1207959552	; 0xb8000000
     17c:	30373173 	eorscc	r3, r7, r3, ror r1
     180:	696c2f65 	stmdbvs	ip!, {r0, r2, r5, r6, r8, r9, sl, fp, sp}^
     184:	63672f62 	cmnvs	r7, #392	; 0x188
     188:	72612f63 	rsbvc	r2, r1, #396	; 0x18c
     18c:	6f6e2d6d 	svcvs	0x006e2d6d
     190:	652d656e 	strvs	r6, [sp, #-1390]!	; 0x56e
     194:	2f696261 	svccs	0x00696261
     198:	2e382e34 	mrccs	14, 1, r2, cr8, cr4, {1}
     19c:	6e692f33 	mcrvs	15, 3, r2, cr9, cr3, {1}
     1a0:	64756c63 	ldrbtvs	r6, [r5], #-3171	; 0xc63
     1a4:	552f0065 	strpl	r0, [pc, #-101]!	; 147 <__code_start__-0x7eb9>
     1a8:	73726573 	cmnvc	r2, #482344960	; 0x1cc00000
     1ac:	6972622f 	ldmdbvs	r2!, {r0, r1, r2, r3, r5, r9, sp, lr}^
     1b0:	756a6e61 	strbvc	r6, [sl, #-3681]!	; 0xe61
     1b4:	65442f6e 	strbvs	r2, [r4, #-3950]	; 0xf6e
     1b8:	6f746b73 	svcvs	0x00746b73
     1bc:	63732f70 	cmnvs	r3, #112, 30	; 0x1c0
     1c0:	6c6f6f68 	stclvs	15, cr6, [pc], #-416	; 28 <__code_start__-0x7fd8>
     1c4:	7270532f 	rsbsvc	r5, r0, #-1140850688	; 0xbc000000
     1c8:	31676e69 	cmncc	r7, r9, ror #28
     1cc:	2f303239 	svccs	0x00303239
     1d0:	34325343 	ldrtcc	r5, [r2], #-835	; 0x343
     1d4:	2f584c30 	svccs	0x00584c30
     1d8:	34327363 	ldrtcc	r7, [r2], #-867	; 0x363
     1dc:	2d786c30 	ldclcs	12, cr6, [r8, #-192]!	; 0xffffff40
     1e0:	70733032 	rsbsvc	r3, r3, r2, lsr r0
     1e4:	696c2f72 	stmdbvs	ip!, {r1, r4, r5, r6, r8, r9, sl, fp, sp}^
     1e8:	2f697062 	svccs	0x00697062
     1ec:	6c636e69 	stclvs	14, cr6, [r3], #-420	; 0xfffffe5c
     1f0:	00656475 	rsbeq	r6, r5, r5, ror r4
     1f4:	6573552f 	ldrbvs	r5, [r3, #-1327]!	; 0x52f
     1f8:	622f7372 	eorvs	r7, pc, #-939524095	; 0xc8000001
     1fc:	6e616972 	mcrvs	9, 3, r6, cr1, cr2, {3}
     200:	2f6e756a 	svccs	0x006e756a
     204:	6b736544 	blvs	1cd971c <__bss_end__+0x1ccdb6c>
     208:	2f706f74 	svccs	0x00706f74
     20c:	6f686373 	svcvs	0x00686373
     210:	532f6c6f 	teqpl	pc, #28416	; 0x6f00
     214:	6e697270 	mcrvs	2, 3, r7, cr9, cr0, {3}
     218:	32393167 	eorscc	r3, r9, #-1073741799	; 0xc0000019
     21c:	53432f30 	movtpl	r2, #16176	; 0x3f30
     220:	4c303432 	cfldrsmi	mvf3, [r0], #-200	; 0xffffff38
     224:	73632f58 	cmnvc	r3, #88, 30	; 0x160
     228:	6c303432 	cfldrsvs	mvf3, [r0], #-200	; 0xffffff38
     22c:	30322d78 	eorscc	r2, r2, r8, ror sp
     230:	2f727073 	svccs	0x00727073
     234:	7062696c 	rsbvc	r6, r2, ip, ror #18
     238:	696c2f69 	stmdbvs	ip!, {r0, r3, r5, r6, r8, r9, sl, fp, sp}^
     23c:	2f006362 	svccs	0x00006362
     240:	2f727375 	svccs	0x00727375
     244:	61636f6c 	cmnvs	r3, ip, ror #30
     248:	65432f6c 	strbvs	r2, [r3, #-3948]	; 0xf6c
     24c:	72616c6c 	rsbvc	r6, r1, #108, 24	; 0x6c00
     250:	6d72612f 	ldfvse	f6, [r2, #-188]!	; 0xffffff44
     254:	6e6f6e2d 	cdpvs	14, 6, cr6, cr15, cr13, {1}
     258:	61652d65 	cmnvs	r5, r5, ror #26
     25c:	342f6962 	strtcc	r6, [pc], #-2402	; 264 <__code_start__-0x7d9c>
     260:	332e382e 	teqcc	lr, #3014656	; 0x2e0000
     264:	3173632d 	cmncc	r3, sp, lsr #6
     268:	2f653037 	svccs	0x00653037
     26c:	2d6d7261 	sfmcs	f7, 2, [sp, #-388]!	; 0xfffffe7c
     270:	656e6f6e 	strbvs	r6, [lr, #-3950]!	; 0xf6e
     274:	6261652d 	rsbvs	r6, r1, #188743680	; 0xb400000
     278:	6e692f69 	cdpvs	15, 6, cr2, cr9, cr9, {3}
     27c:	64756c63 	ldrbtvs	r6, [r5], #-3171	; 0xc63
     280:	63000065 	movwvs	r0, #101	; 0x65
     284:	6c6c616b 	stfvse	f6, [ip], #-428	; 0xfffffe54
     288:	632e636f 	teqvs	lr, #-1140850687	; 0xbc000001
     28c:	00000000 	andeq	r0, r0, r0
     290:	6c616b63 	stclvs	11, cr6, [r1], #-396	; 0xfffffe74
     294:	2d636f6c 	stclcs	15, cr6, [r3, #-432]!	; 0xfffffe50
     298:	65746e69 	ldrbvs	r6, [r4, #-3689]!	; 0xe69
     29c:	6c616e72 	stclvs	14, cr6, [r1], #-456	; 0xfffffe38
     2a0:	0000682e 	andeq	r6, r0, lr, lsr #16
     2a4:	74730000 	ldrbtvc	r0, [r3], #-0
     2a8:	66656464 	strbtvs	r6, [r5], -r4, ror #8
     2ac:	0100682e 	tsteq	r0, lr, lsr #16
     2b0:	74730000 	ldrbtvc	r0, [r3], #-0
     2b4:	746e6964 	strbtvc	r6, [lr], #-2404	; 0x964
     2b8:	6363672d 	cmnvs	r3, #11796480	; 0xb40000
     2bc:	0100682e 	tsteq	r0, lr, lsr #16
     2c0:	70720000 	rsbsvc	r0, r2, r0
     2c4:	00682e69 	rsbeq	r2, r8, r9, ror #28
     2c8:	6c000002 	stcvs	0, cr0, [r0], {2}
     2cc:	2d636269 	sfmcs	f6, 2, [r3, #-420]!	; 0xfffffe5c
     2d0:	72747865 	rsbsvc	r7, r4, #6619136	; 0x650000
     2d4:	00682e61 	rsbeq	r2, r8, r1, ror #28
     2d8:	73000003 	movwvc	r0, #3
     2dc:	6e697274 	mcrvs	2, 3, r7, cr9, cr4, {3}
     2e0:	00682e67 	rsbeq	r2, r8, r7, ror #28
     2e4:	00000004 	andeq	r0, r0, r4
     2e8:	94020500 	strls	r0, [r2], #-1280	; 0x500
     2ec:	17000081 	strne	r0, [r0, -r1, lsl #1]
     2f0:	012e0b03 	teqeq	lr, r3, lsl #22
     2f4:	04020067 	streq	r0, [r2], #-103	; 0x67
     2f8:	06820601 	streq	r0, [r2], r1, lsl #12
     2fc:	678383d7 			; <UNDEFINED> instruction: 0x678383d7
     300:	084b2f4b 	stmdaeq	fp, {r0, r1, r3, r6, r8, r9, sl, fp, sp}^
     304:	2f2f4b41 	svccs	0x002f4b41
     308:	2f4b2f2f 	svccs	0x004b2f2f
     30c:	2f4b2f2f 	svccs	0x004b2f2f
     310:	31302f2f 	teqcc	r0, pc, lsr #30
     314:	0200314b 	andeq	r3, r0, #-1073741806	; 0xc0000012
     318:	66060104 	strvs	r0, [r6], -r4, lsl #2
     31c:	0200d706 	andeq	sp, r0, #1572864	; 0x180000
     320:	82060104 	andhi	r0, r6, #4, 2
     324:	30bcd806 	adcscc	sp, ip, r6, lsl #16
     328:	68836a4b 	stmvs	r3, {r0, r1, r3, r6, r9, fp, sp, lr}
     32c:	004a7803 	subeq	r7, sl, r3, lsl #16
     330:	06010402 	streq	r0, [r1], -r2, lsl #8
     334:	0b03062e 	bleq	c1bf4 <__bss_end__+0xb6044>
     338:	6832474a 	ldmdavs	r2!, {r1, r3, r6, r8, r9, sl, lr}
     33c:	6609034b 	strvs	r0, [r9], -fp, asr #6
     340:	0449304c 	strbeq	r3, [r9], #-76	; 0x4c
     344:	044cbf02 	strbeq	fp, [ip], #-3842	; 0xf02
     348:	2e7a0301 	cdpcs	3, 7, cr0, cr10, cr1, {0}
     34c:	a0359108 	eorsge	r9, r5, r8, lsl #2
     350:	01040200 	mrseq	r0, R12_usr
     354:	d7068206 	strle	r8, [r6, -r6, lsl #4]
     358:	6a8530a0 	bvs	fe14c5e0 <__bss_end__+0xfe140a30>
     35c:	2f2f684c 	svccs	0x002f684c
     360:	5c08a030 	stcpl	0, cr10, [r8], {48}	; 0x30
     364:	040200be 	streq	r0, [r2], #-190	; 0xbe
     368:	06820601 	streq	r0, [r2], r1, lsl #12
     36c:	314ba0d7 	ldrdcc	sl, [fp, #-7]
     370:	d792084b 	ldrle	r0, [r2, fp, asr #16]
     374:	4c162c02 	ldcmi	12, cr2, [r6], {2}
     378:	834c4b2f 	movthi	r4, #52015	; 0xcb2f
     37c:	302f2f30 	eorcc	r2, pc, r0, lsr pc	; <UNPREDICTABLE>
     380:	03020468 	movweq	r0, #9320	; 0x2468
     384:	4c667fbe 	stclmi	15, cr7, [r6], #-760	; 0xfffffd08
     388:	c1030104 	tstgt	r3, r4, lsl #2
     38c:	006a2e00 	rsbeq	r2, sl, r0, lsl #28
     390:	06010402 	streq	r0, [r1], -r2, lsl #8
     394:	00d70682 	sbcseq	r0, r7, r2, lsl #13
     398:	06010402 	streq	r0, [r1], -r2, lsl #8
     39c:	d8d70682 	ldmle	r7, {r1, r7, r9, sl}^
     3a0:	2f172602 	svccs	0x00172602
     3a4:	c083689f 	umullgt	r6, r3, pc, r8	; <UNPREDICTABLE>
     3a8:	4b322d48 	blmi	c8b8d0 <__bss_end__+0xc7fd20>
     3ac:	01040200 	mrseq	r0, R12_usr
     3b0:	d8064a06 	stmdale	r6, {r1, r2, r9, fp, lr}
     3b4:	302f8383 	eorcc	r8, pc, r3, lsl #7
     3b8:	01040200 	mrseq	r0, R12_usr
     3bc:	30066606 	andcc	r6, r6, r6, lsl #12
     3c0:	322fbc67 	eorcc	fp, pc, #26368	; 0x6700
     3c4:	0402009f 	streq	r0, [r2], #-159	; 0x9f
     3c8:	2e6d0301 	cdpcs	3, 6, cr0, cr13, cr1, {0}
     3cc:	4b661703 	blmi	1985fe0 <__bss_end__+0x197a430>
     3d0:	a283da83 	addge	sp, r3, #536576	; 0x83000
     3d4:	4d2fb108 	stfmid	f3, [pc, #-32]!	; 3bc <__code_start__-0x7c44>
     3d8:	01040200 	mrseq	r0, R12_usr
     3dc:	d8068206 	stmdale	r6, {r1, r2, r9, pc}
     3e0:	030204bd 	movweq	r0, #9405	; 0x24bd
     3e4:	042e7efd 	strteq	r7, [lr], #-3837	; 0xefd
     3e8:	01840301 	orreq	r0, r4, r1, lsl #6
     3ec:	00853482 	addeq	r3, r5, r2, lsl #9
     3f0:	06010402 	streq	r0, [r1], -r2, lsl #8
     3f4:	00d7062e 	sbcseq	r0, r7, lr, lsr #12
     3f8:	06010402 	streq	r0, [r1], -r2, lsl #8
     3fc:	4ed30682 	cdpmi	6, 13, cr0, cr3, cr2, {4}
     400:	672fbc2f 	strvs	fp, [pc, -pc, lsr #24]!
     404:	00020268 	andeq	r0, r2, r8, ror #4
     408:	02100101 	andseq	r0, r0, #1073741824	; 0x40000000
     40c:	00020000 	andeq	r0, r2, r0
     410:	000000f9 	strdeq	r0, [r0], -r9
     414:	0efb0102 	cdpeq	1, 15, cr0, cr11, cr2, {0}
     418:	0101000d 	tsteq	r1, sp
     41c:	00000101 	andeq	r0, r0, r1, lsl #2
     420:	00000100 	andeq	r0, r0, r0, lsl #2
     424:	73752f01 	cmnvc	r5, #1, 30
     428:	6f6c2f72 	svcvs	0x006c2f72
     42c:	2f6c6163 	svccs	0x006c6163
     430:	6c6c6543 	cfstr64vs	mvdx6, [ip], #-268	; 0xfffffef4
     434:	612f7261 	teqvs	pc, r1, ror #4
     438:	6e2d6d72 	mcrvs	13, 1, r6, cr13, cr2, {3}
     43c:	2d656e6f 	stclcs	14, cr6, [r5, #-444]!	; 0xfffffe44
     440:	69626165 	stmdbvs	r2!, {r0, r2, r5, r6, r8, sp, lr}^
     444:	382e342f 	stmdacc	lr!, {r0, r1, r2, r3, r5, sl, ip, sp}
     448:	632d332e 	teqvs	sp, #-1207959552	; 0xb8000000
     44c:	30373173 	eorscc	r3, r7, r3, ror r1
     450:	696c2f65 	stmdbvs	ip!, {r0, r2, r5, r6, r8, r9, sl, fp, sp}^
     454:	63672f62 	cmnvs	r7, #392	; 0x188
     458:	72612f63 	rsbvc	r2, r1, #396	; 0x18c
     45c:	6f6e2d6d 	svcvs	0x006e2d6d
     460:	652d656e 	strvs	r6, [sp, #-1390]!	; 0x56e
     464:	2f696261 	svccs	0x00696261
     468:	2e382e34 	mrccs	14, 1, r2, cr8, cr4, {1}
     46c:	6e692f33 	mcrvs	15, 3, r2, cr9, cr3, {1}
     470:	64756c63 	ldrbtvs	r6, [r5], #-3171	; 0xc63
     474:	552f0065 	strpl	r0, [pc, #-101]!	; 417 <__code_start__-0x7be9>
     478:	73726573 	cmnvc	r2, #482344960	; 0x1cc00000
     47c:	6972622f 	ldmdbvs	r2!, {r0, r1, r2, r3, r5, r9, sp, lr}^
     480:	756a6e61 	strbvc	r6, [sl, #-3681]!	; 0xe61
     484:	65442f6e 	strbvs	r2, [r4, #-3950]	; 0xf6e
     488:	6f746b73 	svcvs	0x00746b73
     48c:	63732f70 	cmnvs	r3, #112, 30	; 0x1c0
     490:	6c6f6f68 	stclvs	15, cr6, [pc], #-416	; 2f8 <__code_start__-0x7d08>
     494:	7270532f 	rsbsvc	r5, r0, #-1140850688	; 0xbc000000
     498:	31676e69 	cmncc	r7, r9, ror #28
     49c:	2f303239 	svccs	0x00303239
     4a0:	34325343 	ldrtcc	r5, [r2], #-835	; 0x343
     4a4:	2f584c30 	svccs	0x00584c30
     4a8:	34327363 	ldrtcc	r7, [r2], #-867	; 0x363
     4ac:	2d786c30 	ldclcs	12, cr6, [r8, #-192]!	; 0xffffff40
     4b0:	70733032 	rsbsvc	r3, r3, r2, lsr r0
     4b4:	696c2f72 	stmdbvs	ip!, {r1, r4, r5, r6, r8, r9, sl, fp, sp}^
     4b8:	2f697062 	svccs	0x00697062
     4bc:	6c636e69 	stclvs	14, cr6, [r3], #-420	; 0xfffffe5c
     4c0:	00656475 	rsbeq	r6, r5, r5, ror r4
     4c4:	2d6b6300 	stclcs	3, cr6, [fp, #-0]
     4c8:	632e6367 	teqvs	lr, #-1677721599	; 0x9c000001
     4cc:	00000000 	andeq	r0, r0, r0
     4d0:	69647473 	stmdbvs	r4!, {r0, r1, r4, r5, r6, sl, ip, sp, lr}^
     4d4:	672d746e 	strvs	r7, [sp, -lr, ror #8]!
     4d8:	682e6363 	stmdavs	lr!, {r0, r1, r5, r6, r8, r9, sp, lr}
     4dc:	00000100 	andeq	r0, r0, r0, lsl #2
     4e0:	6c616b63 	stclvs	11, cr6, [r1], #-396	; 0xfffffe74
     4e4:	2d636f6c 	stclcs	15, cr6, [r3, #-432]!	; 0xfffffe50
     4e8:	65746e69 	ldrbvs	r6, [r4, #-3689]!	; 0xe69
     4ec:	6c616e72 	stclvs	14, cr6, [r1], #-456	; 0xfffffe38
     4f0:	0000682e 	andeq	r6, r0, lr, lsr #16
     4f4:	70720000 	rsbsvc	r0, r2, r0
     4f8:	00682e69 	rsbeq	r2, r8, r9, ror #28
     4fc:	63000002 	movwvs	r0, #2
     500:	6c6c616b 	stfvse	f6, [ip], #-428	; 0xfffffe54
     504:	682e636f 	stmdavs	lr!, {r0, r1, r2, r3, r5, r6, r8, r9, sp, lr}
     508:	00000000 	andeq	r0, r0, r0
     50c:	02050000 	andeq	r0, r5, #0
     510:	00008998 	muleq	r0, r8, r9
     514:	13011b03 	movwne	r1, #6915	; 0x1b03
     518:	01040200 	mrseq	r0, R12_usr
     51c:	06828206 	streq	r8, [r2], r6, lsl #4
     520:	4a15039f 	bmi	5413a4 <__bss_end__+0x5357f4>
     524:	302f694d 	eorcc	r6, pc, sp, asr #18
     528:	4b316867 	blmi	c5a6cc <__bss_end__+0xc4eb1c>
     52c:	30684c49 	rsbcc	r4, r8, r9, asr #24
     530:	01040200 	mrseq	r0, R12_usr
     534:	632e7203 	teqvs	lr, #805306368	; 0x30000000
     538:	032e1603 	teqeq	lr, #3145728	; 0x300000
     53c:	00672e0d 	rsbeq	r2, r7, sp, lsl #28
     540:	06010402 	streq	r0, [r1], -r2, lsl #8
     544:	00d8064a 	sbcseq	r0, r8, sl, asr #12
     548:	06010402 	streq	r0, [r1], -r2, lsl #8
     54c:	00d7064a 	sbcseq	r0, r7, sl, asr #12
     550:	06010402 	streq	r0, [r1], -r2, lsl #8
     554:	84dc064a 	ldrbhi	r0, [ip], #1610	; 0x64a
     558:	69686968 	stmdbvs	r8!, {r3, r5, r6, r8, fp, sp, lr}^
     55c:	02008531 	andeq	r8, r0, #205520896	; 0xc400000
     560:	7a030104 	bvc	c0978 <__bss_end__+0xb4dc8>
     564:	0402004a 	streq	r0, [r2], #-74	; 0x4a
     568:	2e730301 	cdpcs	3, 7, cr0, cr3, cr1, {0}
     56c:	c04a1503 	subgt	r1, sl, r3, lsl #10
     570:	464c4b4c 	strbmi	r4, [ip], -ip, asr #22
     574:	30660b03 	rsbcc	r0, r6, r3, lsl #22
     578:	672f2b29 	strvs	r2, [pc, -r9, lsr #22]!
     57c:	2f4c9f67 	svccs	0x004c9f67
     580:	01040200 	mrseq	r0, R12_usr
     584:	67064a06 	strvs	r4, [r6, -r6, lsl #20]
     588:	002f32a0 	eoreq	r3, pc, r0, lsr #5
     58c:	03010402 	movweq	r0, #5122	; 0x1402
     590:	12036671 	andne	r6, r3, #118489088	; 0x7100000
     594:	a04b9f4a 	subge	r9, fp, sl, asr #30
     598:	2c034cbc 	stccs	12, cr4, [r3], {188}	; 0xbc
     59c:	2f4d5808 	svccs	0x004d5808
     5a0:	0402002d 	streq	r0, [r2], #-45	; 0x2d
     5a4:	02002f02 	andeq	r2, r0, #2, 30
     5a8:	00650204 	rsbeq	r0, r5, r4, lsl #4
     5ac:	06010402 	streq	r0, [r1], -r2, lsl #8
     5b0:	6750062e 	ldrbvs	r0, [r0, -lr, lsr #12]
     5b4:	67660a03 	strbvs	r0, [r6, -r3, lsl #20]!
     5b8:	01040200 	mrseq	r0, R12_usr
     5bc:	02006606 	andeq	r6, r0, #6291456	; 0x600000
     5c0:	d9060204 	stmdble	r6, {r2, r9}
     5c4:	02040200 	andeq	r0, r4, #0, 4
     5c8:	02006765 	andeq	r6, r0, #26476544	; 0x1940000
     5cc:	502d0104 	eorpl	r0, sp, r4, lsl #2
     5d0:	67696a6c 	strbvs	r6, [r9, -ip, ror #20]!
     5d4:	2f4b4408 	svccs	0x004b4408
     5d8:	1332314b 	teqne	r2, #-1073741806	; 0xc0000012
     5dc:	8383d867 	orrhi	sp, r3, #6750208	; 0x670000
     5e0:	400883d8 	ldrdmi	r8, [r8], -r8	; <UNPREDICTABLE>
     5e4:	d8671332 	stmdale	r7!, {r1, r4, r5, r8, r9, ip}^
     5e8:	d84b4b84 	stmdale	fp, {r2, r7, r8, r9, fp, lr}^
     5ec:	3e08149f 	mcrcc	4, 0, r1, cr8, cr15, {4}
     5f0:	4c41082f 	mcrrmi	8, 2, r0, r1, cr15
     5f4:	03464c4b 	movteq	r4, #27723	; 0x6c4b
     5f8:	034b660b 	movteq	r6, #46603	; 0xb60b
     5fc:	672f2e79 			; <UNDEFINED> instruction: 0x672f2e79
     600:	9f306767 	svcls	0x00306767
     604:	02002fa1 	andeq	r2, r0, #644	; 0x284
     608:	75030104 	strvc	r0, [r3, #-260]	; 0x104
     60c:	4a130366 	bmi	4c13ac <__bss_end__+0x4b57fc>
     610:	4cbc4bf4 	vldmiami	ip!, {d4-<overflow reg d61>}
     614:	2f2f9208 	svccs	0x002f9208
     618:	00020233 	andeq	r0, r2, r3, lsr r2
     61c:	026c0101 	rsbeq	r0, ip, #1073741824	; 0x40000000
     620:	00020000 	andeq	r0, r2, r0
     624:	0000014c 	andeq	r0, r0, ip, asr #2
     628:	0efb0102 	cdpeq	1, 15, cr0, cr11, cr2, {0}
     62c:	0101000d 	tsteq	r1, sp
     630:	00000101 	andeq	r0, r0, r1, lsl #2
     634:	00000100 	andeq	r0, r0, r0, lsl #2
     638:	73752f01 	cmnvc	r5, #1, 30
     63c:	6f6c2f72 	svcvs	0x006c2f72
     640:	2f6c6163 	svccs	0x006c6163
     644:	6c6c6543 	cfstr64vs	mvdx6, [ip], #-268	; 0xfffffef4
     648:	612f7261 	teqvs	pc, r1, ror #4
     64c:	6e2d6d72 	mcrvs	13, 1, r6, cr13, cr2, {3}
     650:	2d656e6f 	stclcs	14, cr6, [r5, #-444]!	; 0xfffffe44
     654:	69626165 	stmdbvs	r2!, {r0, r2, r5, r6, r8, sp, lr}^
     658:	382e342f 	stmdacc	lr!, {r0, r1, r2, r3, r5, sl, ip, sp}
     65c:	632d332e 	teqvs	sp, #-1207959552	; 0xb8000000
     660:	30373173 	eorscc	r3, r7, r3, ror r1
     664:	696c2f65 	stmdbvs	ip!, {r0, r2, r5, r6, r8, r9, sl, fp, sp}^
     668:	63672f62 	cmnvs	r7, #392	; 0x188
     66c:	72612f63 	rsbvc	r2, r1, #396	; 0x18c
     670:	6f6e2d6d 	svcvs	0x006e2d6d
     674:	652d656e 	strvs	r6, [sp, #-1390]!	; 0x56e
     678:	2f696261 	svccs	0x00696261
     67c:	2e382e34 	mrccs	14, 1, r2, cr8, cr4, {1}
     680:	6e692f33 	mcrvs	15, 3, r2, cr9, cr3, {1}
     684:	64756c63 	ldrbtvs	r6, [r5], #-3171	; 0xc63
     688:	552f0065 	strpl	r0, [pc, #-101]!	; 62b <__code_start__-0x79d5>
     68c:	73726573 	cmnvc	r2, #482344960	; 0x1cc00000
     690:	6972622f 	ldmdbvs	r2!, {r0, r1, r2, r3, r5, r9, sp, lr}^
     694:	756a6e61 	strbvc	r6, [sl, #-3681]!	; 0xe61
     698:	65442f6e 	strbvs	r2, [r4, #-3950]	; 0xf6e
     69c:	6f746b73 	svcvs	0x00746b73
     6a0:	63732f70 	cmnvs	r3, #112, 30	; 0x1c0
     6a4:	6c6f6f68 	stclvs	15, cr6, [pc], #-416	; 50c <__code_start__-0x7af4>
     6a8:	7270532f 	rsbsvc	r5, r0, #-1140850688	; 0xbc000000
     6ac:	31676e69 	cmncc	r7, r9, ror #28
     6b0:	2f303239 	svccs	0x00303239
     6b4:	34325343 	ldrtcc	r5, [r2], #-835	; 0x343
     6b8:	2f584c30 	svccs	0x00584c30
     6bc:	34327363 	ldrtcc	r7, [r2], #-867	; 0x363
     6c0:	2d786c30 	ldclcs	12, cr6, [r8, #-192]!	; 0xffffff40
     6c4:	70733032 	rsbsvc	r3, r3, r2, lsr r0
     6c8:	696c2f72 	stmdbvs	ip!, {r1, r4, r5, r6, r8, r9, sl, fp, sp}^
     6cc:	2f697062 	svccs	0x00697062
     6d0:	6c636e69 	stclvs	14, cr6, [r3], #-420	; 0xfffffe5c
     6d4:	00656475 	rsbeq	r6, r5, r5, ror r4
     6d8:	2d6b6300 	stclcs	3, cr6, [fp, #-0]
     6dc:	636d656d 	cmnvs	sp, #457179136	; 0x1b400000
     6e0:	6b636568 	blvs	18d9c88 <__bss_end__+0x18ce0d8>
     6e4:	0000632e 	andeq	r6, r0, lr, lsr #6
     6e8:	74730000 	ldrbtvc	r0, [r3], #-0
     6ec:	746e6964 	strbtvc	r6, [lr], #-2404	; 0x964
     6f0:	6363672d 	cmnvs	r3, #11796480	; 0xb40000
     6f4:	0100682e 	tsteq	r0, lr, lsr #16
     6f8:	6b630000 	blvs	18c0700 <__bss_end__+0x18b4b50>
     6fc:	6f6c6c61 	svcvs	0x006c6c61
     700:	6e692d63 	cdpvs	13, 6, cr2, cr9, cr3, {3}
     704:	6e726574 	mrcvs	5, 3, r6, cr2, cr4, {3}
     708:	682e6c61 	stmdavs	lr!, {r0, r5, r6, sl, fp, sp, lr}
     70c:	00000000 	andeq	r0, r0, r0
     710:	2d697072 	stclcs	0, cr7, [r9, #-456]!	; 0xfffffe38
     714:	746d7261 	strbtvc	r7, [sp], #-609	; 0x261
     718:	72656d69 	rsbvc	r6, r5, #6720	; 0x1a40
     71c:	0200682e 	andeq	r6, r0, #3014656	; 0x2e0000
     720:	70720000 	rsbsvc	r0, r2, r0
     724:	6e692d69 	cdpvs	13, 6, cr2, cr9, cr9, {3}
     728:	72726574 	rsbsvc	r6, r2, #116, 10	; 0x1d000000
     72c:	73747075 	cmnvc	r4, #117	; 0x75
     730:	0200682e 	andeq	r6, r0, #3014656	; 0x2e0000
     734:	70720000 	rsbsvc	r0, r2, r0
     738:	6e692d69 	cdpvs	13, 6, cr2, cr9, cr9, {3}
     73c:	6e726574 	mrcvs	5, 3, r6, cr2, cr4, {3}
     740:	682e6c61 	stmdavs	lr!, {r0, r5, r6, sl, fp, sp, lr}
     744:	00000200 	andeq	r0, r0, r0, lsl #4
     748:	2e697072 	mcrcs	0, 3, r7, cr9, cr2, {3}
     74c:	00020068 	andeq	r0, r2, r8, rrx
     750:	6d697400 	cfstrdvs	mvd7, [r9, #-0]
     754:	692d7265 	pushvs	{r0, r2, r5, r6, r9, ip, sp, lr}
     758:	7265746e 	rsbvc	r7, r5, #1845493760	; 0x6e000000
     75c:	74707572 	ldrbtvc	r7, [r0], #-1394	; 0x572
     760:	0200682e 	andeq	r6, r0, #3014656	; 0x2e0000
     764:	6b630000 	blvs	18c076c <__bss_end__+0x18b4bbc>
     768:	6f6c6c61 	svcvs	0x006c6c61
     76c:	00682e63 	rsbeq	r2, r8, r3, ror #28
     770:	00000000 	andeq	r0, r0, r0
     774:	2c020500 	cfstr32cs	mvfx0, [r2], {-0}
     778:	03000090 	movweq	r0, #144	; 0x90
     77c:	674b012c 	strbvs	r0, [fp, -ip, lsr #2]
     780:	67034b67 	strvs	r4, [r3, -r7, ror #22]
     784:	2f312f66 	svccs	0x00312f66
     788:	2e140383 	cdpcs	3, 1, cr0, cr4, cr3, {4}
     78c:	010903bd 			; <UNDEFINED> instruction: 0x010903bd
     790:	4b4b4b67 	blmi	12d3534 <__bss_end__+0x12c7984>
     794:	0d034b4b 	vstreq	d4, [r3, #-300]	; 0xfffffed4
     798:	02002ff2 	andeq	r2, r0, #968	; 0x3c8
     79c:	4a060104 	bmi	180bb4 <__bss_end__+0x175004>
     7a0:	4008d806 	andmi	sp, r8, r6, lsl #16
     7a4:	0402004b 	streq	r0, [r2], #-75	; 0x4b
     7a8:	0200d701 	andeq	sp, r0, #262144	; 0x40000
     7ac:	4cb90104 	ldfmis	f0, [r9], #16
     7b0:	4ba52f4c 	blmi	fe94c4e8 <__bss_end__+0xfe940938>
     7b4:	a04b8483 	subge	r8, fp, r3, lsl #9
     7b8:	00304da3 	eorseq	r4, r0, r3, lsr #27
     7bc:	06010402 	streq	r0, [r1], -r2, lsl #8
     7c0:	67830682 	strvs	r0, [r3, r2, lsl #13]
     7c4:	f586a2d8 			; <UNDEFINED> instruction: 0xf586a2d8
     7c8:	2f2d2f13 	svccs	0x002d2f13
     7cc:	04020065 	streq	r0, [r2], #-101	; 0x65
     7d0:	062e0601 	strteq	r0, [lr], -r1, lsl #12
     7d4:	03678350 	cmneq	r7, #80, 6	; 0x40000001
     7d8:	6c354a7a 	ldcvs	10, cr4, [r5], #-488	; 0xfffffe18
     7dc:	342f304d 	strtcc	r3, [pc], #-77	; 7e4 <__code_start__-0x781c>
     7e0:	2f2e7903 	svccs	0x002e7903
     7e4:	034b6a83 	movteq	r6, #47747	; 0xba83
     7e8:	02002e79 	andeq	r2, r0, #1936	; 0x790
     7ec:	2e060104 	adfcss	f0, f6, f4
     7f0:	4a0c0306 	bmi	301410 <__bss_end__+0x2f5860>
     7f4:	01040200 	mrseq	r0, R12_usr
     7f8:	83068206 	movwhi	r8, #25094	; 0x6206
     7fc:	86a2d867 	strthi	sp, [r2], r7, ror #16
     800:	002f2408 	eoreq	r2, pc, r8, lsl #8
     804:	06010402 	streq	r0, [r1], -r2, lsl #8
     808:	68d70682 	ldmvs	r7, {r1, r7, r9, sl}^
     80c:	01040200 	mrseq	r0, R12_usr
     810:	d706f206 	strle	pc, [r6, -r6, lsl #4]
     814:	01040200 	mrseq	r0, R12_usr
     818:	d706f206 	strle	pc, [r6, -r6, lsl #4]
     81c:	01040200 	mrseq	r0, R12_usr
     820:	d806f206 	stmdale	r6, {r1, r2, r9, ip, sp, lr, pc}
     824:	4c30bc2f 	ldcmi	12, cr11, [r0], #-188	; 0xffffff44
     828:	2f162202 	svccs	0x00162202
     82c:	01040200 	mrseq	r0, R12_usr
     830:	d7064a06 	strle	r4, [r6, -r6, lsl #20]
     834:	002ff64b 	eoreq	pc, pc, fp, asr #12
     838:	06010402 	streq	r0, [r1], -r2, lsl #8
     83c:	02008282 	andeq	r8, r0, #536870920	; 0x20000008
     840:	009e0404 	addseq	r0, lr, r4, lsl #8
     844:	4a010402 	bmi	41854 <__bss_end__+0x35ca4>
     848:	da68d706 	ble	1a36468 <__bss_end__+0x1a2a8b8>
     84c:	0402002f 	streq	r0, [r2], #-47	; 0x2f
     850:	9e820601 	cdpls	6, 8, cr0, cr2, cr1, {0}
     854:	04040200 	streq	r0, [r4], #-512	; 0x200
     858:	04020066 	streq	r0, [r2], #-102	; 0x66
     85c:	d8064a01 	stmdale	r6, {r0, r9, fp, lr}
     860:	081f032f 	ldmdaeq	pc, {r0, r1, r2, r3, r5, r8, r9}	; <UNPREDICTABLE>
     864:	4e2f4b20 	vmulmi.f64	d4, d15, d16
     868:	034a0d03 	movteq	r0, #44291	; 0xad03
     86c:	842f660b 	strthi	r6, [pc], #-1547	; 874 <__code_start__-0x778c>
     870:	02002f4f 	andeq	r2, r0, #316	; 0x13c
     874:	66060104 	strvs	r0, [r6], -r4, lsl #2
     878:	0402002e 	streq	r0, [r2], #-46	; 0x2e
     87c:	02002e03 	andeq	r2, r0, #3, 28	; 0x30
     880:	4b060304 	blmi	181498 <__bss_end__+0x1758e8>
     884:	03040200 	movweq	r0, #16896	; 0x4200
     888:	0012029f 	mulseq	r2, pc, r2	; <UNPREDICTABLE>
     88c:	00de0101 	sbcseq	r0, lr, r1, lsl #2
     890:	00020000 	andeq	r0, r2, r0
     894:	00000083 	andeq	r0, r0, r3, lsl #1
     898:	0efb0102 	cdpeq	1, 15, cr0, cr11, cr2, {0}
     89c:	0101000d 	tsteq	r1, sp
     8a0:	00000101 	andeq	r0, r0, r1, lsl #2
     8a4:	00000100 	andeq	r0, r0, r0, lsl #2
     8a8:	62696c01 	rsbvs	r6, r9, #256	; 0x100
     8ac:	752f0063 	strvc	r0, [pc, #-99]!	; 851 <__code_start__-0x77af>
     8b0:	6c2f7273 	sfmvs	f7, 4, [pc], #-460	; 6ec <__code_start__-0x7914>
     8b4:	6c61636f 	stclvs	3, cr6, [r1], #-444	; 0xfffffe44
     8b8:	6c65432f 	stclvs	3, cr4, [r5], #-188	; 0xffffff44
     8bc:	2f72616c 	svccs	0x0072616c
     8c0:	2d6d7261 	sfmcs	f7, 2, [sp, #-388]!	; 0xfffffe7c
     8c4:	656e6f6e 	strbvs	r6, [lr, #-3950]!	; 0xf6e
     8c8:	6261652d 	rsbvs	r6, r1, #188743680	; 0xb400000
     8cc:	2e342f69 	cdpcs	15, 3, cr2, cr4, cr9, {3}
     8d0:	2d332e38 	ldccs	14, cr2, [r3, #-224]!	; 0xffffff20
     8d4:	37317363 	ldrcc	r7, [r1, -r3, ror #6]!
     8d8:	6c2f6530 	cfstr32vs	mvfx6, [pc], #-192	; 820 <__code_start__-0x77e0>
     8dc:	672f6269 	strvs	r6, [pc, -r9, ror #4]!
     8e0:	612f6363 	teqvs	pc, r3, ror #6
     8e4:	6e2d6d72 	mcrvs	13, 1, r6, cr13, cr2, {3}
     8e8:	2d656e6f 	stclcs	14, cr6, [r5, #-444]!	; 0xfffffe44
     8ec:	69626165 	stmdbvs	r2!, {r0, r2, r5, r6, r8, sp, lr}^
     8f0:	382e342f 	stmdacc	lr!, {r0, r1, r2, r3, r5, sl, ip, sp}
     8f4:	692f332e 	stmdbvs	pc!, {r1, r2, r3, r5, r8, r9, ip, sp}	; <UNPREDICTABLE>
     8f8:	756c636e 	strbvc	r6, [ip, #-878]!	; 0x36e
     8fc:	00006564 	andeq	r6, r0, r4, ror #10
     900:	68736168 	ldmdavs	r3!, {r3, r5, r6, r8, sp, lr}^
     904:	0100632e 	tsteq	r0, lr, lsr #6
     908:	74730000 	ldrbtvc	r0, [r3], #-0
     90c:	746e6964 	strbtvc	r6, [lr], #-2404	; 0x964
     910:	6363672d 	cmnvs	r3, #11796480	; 0xb40000
     914:	0200682e 	andeq	r6, r0, #3014656	; 0x2e0000
     918:	00000000 	andeq	r0, r0, r0
     91c:	97ac0205 	strls	r0, [ip, r5, lsl #4]!
     920:	0e030000 	cdpeq	0, 0, cr0, cr3, cr0, {0}
     924:	84313001 	ldrthi	r3, [r1], #-1
     928:	0200312f 	andeq	r3, r0, #-1073741813	; 0xc000000b
     92c:	002f0204 	eoreq	r0, pc, r4, lsl #4
     930:	83020402 	movwhi	r0, #9218	; 0x2402
     934:	02040200 	andeq	r0, r4, #0, 4
     938:	04020083 	streq	r0, [r2], #-131	; 0x83
     93c:	02002f02 	andeq	r2, r0, #2, 30
     940:	002f0204 	eoreq	r0, pc, r4, lsl #4
     944:	29020402 	stmdbcs	r2, {r1, sl}
     948:	01040200 	mrseq	r0, R12_usr
     94c:	03062e06 	movweq	r2, #28166	; 0x6e06
     950:	83d74a09 	bicshi	r4, r7, #36864	; 0x9000
     954:	2f2f4b2f 	svccs	0x002f4b2f
     958:	2f2f2f83 	svccs	0x002f2f83
     95c:	2f322f4b 	svccs	0x00322f4b
     960:	2f2f2f2f 	svccs	0x002f2f2f
     964:	2e5a0330 	mrccs	3, 2, r0, cr10, cr0, {1}
     968:	022e2703 	eoreq	r2, lr, #786432	; 0xc0000
     96c:	01010004 	tsteq	r1, r4
     970:	000000ec 	andeq	r0, r0, ip, ror #1
     974:	00d00002 	sbcseq	r0, r0, r2
     978:	01020000 	mrseq	r0, (UNDEF: 2)
     97c:	000d0efb 	strdeq	r0, [sp], -fp
     980:	01010101 	tsteq	r1, r1, lsl #2
     984:	01000000 	mrseq	r0, (UNDEF: 0)
     988:	6c010000 	stcvs	0, cr0, [r1], {-0}
     98c:	00636269 	rsbeq	r6, r3, r9, ror #4
     990:	7273752f 	rsbsvc	r7, r3, #197132288	; 0xbc00000
     994:	636f6c2f 	cmnvs	pc, #12032	; 0x2f00
     998:	432f6c61 	teqmi	pc, #24832	; 0x6100
     99c:	616c6c65 	cmnvs	ip, r5, ror #24
     9a0:	72612f72 	rsbvc	r2, r1, #456	; 0x1c8
     9a4:	6f6e2d6d 	svcvs	0x006e2d6d
     9a8:	652d656e 	strvs	r6, [sp, #-1390]!	; 0x56e
     9ac:	2f696261 	svccs	0x00696261
     9b0:	2e382e34 	mrccs	14, 1, r2, cr8, cr4, {1}
     9b4:	73632d33 	cmnvc	r3, #3264	; 0xcc0
     9b8:	65303731 	ldrvs	r3, [r0, #-1841]!	; 0x731
     9bc:	62696c2f 	rsbvs	r6, r9, #12032	; 0x2f00
     9c0:	6363672f 	cmnvs	r3, #12320768	; 0xbc0000
     9c4:	6d72612f 	ldfvse	f6, [r2, #-188]!	; 0xffffff44
     9c8:	6e6f6e2d 	cdpvs	14, 6, cr6, cr15, cr13, {1}
     9cc:	61652d65 	cmnvs	r5, r5, ror #26
     9d0:	342f6962 	strtcc	r6, [pc], #-2402	; 9d8 <__code_start__-0x7628>
     9d4:	332e382e 	teqcc	lr, #3014656	; 0x2e0000
     9d8:	636e692f 	cmnvs	lr, #770048	; 0xbc000
     9dc:	6564756c 	strbvs	r7, [r4, #-1388]!	; 0x56c
     9e0:	73752f00 	cmnvc	r5, #0, 30
     9e4:	6f6c2f72 	svcvs	0x006c2f72
     9e8:	2f6c6163 	svccs	0x006c6163
     9ec:	6c6c6543 	cfstr64vs	mvdx6, [ip], #-268	; 0xfffffef4
     9f0:	612f7261 	teqvs	pc, r1, ror #4
     9f4:	6e2d6d72 	mcrvs	13, 1, r6, cr13, cr2, {3}
     9f8:	2d656e6f 	stclcs	14, cr6, [r5, #-444]!	; 0xfffffe44
     9fc:	69626165 	stmdbvs	r2!, {r0, r2, r5, r6, r8, sp, lr}^
     a00:	382e342f 	stmdacc	lr!, {r0, r1, r2, r3, r5, sl, ip, sp}
     a04:	632d332e 	teqvs	sp, #-1207959552	; 0xb8000000
     a08:	30373173 	eorscc	r3, r7, r3, ror r1
     a0c:	72612f65 	rsbvc	r2, r1, #404	; 0x194
     a10:	6f6e2d6d 	svcvs	0x006e2d6d
     a14:	652d656e 	strvs	r6, [sp, #-1390]!	; 0x56e
     a18:	2f696261 	svccs	0x00696261
     a1c:	6c636e69 	stclvs	14, cr6, [r3], #-420	; 0xfffffe5c
     a20:	00656475 	rsbeq	r6, r5, r5, ror r4
     a24:	6d656d00 	stclvs	13, cr6, [r5, #-0]
     a28:	2e746573 	mrccs	5, 3, r6, cr4, cr3, {3}
     a2c:	00010063 	andeq	r0, r1, r3, rrx
     a30:	64747300 	ldrbtvs	r7, [r4], #-768	; 0x300
     a34:	2e666564 	cdpcs	5, 6, cr6, cr6, cr4, {3}
     a38:	00020068 	andeq	r0, r2, r8, rrx
     a3c:	72747300 	rsbsvc	r7, r4, #0, 6
     a40:	2e676e69 	cdpcs	14, 6, cr6, cr7, cr9, {3}
     a44:	00030068 	andeq	r0, r3, r8, rrx
     a48:	05000000 	streq	r0, [r0, #-0]
     a4c:	00989c02 	addseq	r9, r8, r2, lsl #24
     a50:	4c131400 	cfldrsmi	mvf1, [r3], {-0}
     a54:	0402002f 	streq	r0, [r2], #-47	; 0x2f
     a58:	024d4901 	subeq	r4, sp, #16384	; 0x4000
     a5c:	01010002 	tsteq	r1, r2
     a60:	0000010c 	andeq	r0, r0, ip, lsl #2
     a64:	00f50002 	rscseq	r0, r5, r2
     a68:	01020000 	mrseq	r0, (UNDEF: 2)
     a6c:	000d0efb 	strdeq	r0, [sp], -fp
     a70:	01010101 	tsteq	r1, r1, lsl #2
     a74:	01000000 	mrseq	r0, (UNDEF: 0)
     a78:	6c010000 	stcvs	0, cr0, [r1], {-0}
     a7c:	00636269 	rsbeq	r6, r3, r9, ror #4
     a80:	7273752f 	rsbsvc	r7, r3, #197132288	; 0xbc00000
     a84:	636f6c2f 	cmnvs	pc, #12032	; 0x2f00
     a88:	432f6c61 	teqmi	pc, #24832	; 0x6100
     a8c:	616c6c65 	cmnvs	ip, r5, ror #24
     a90:	72612f72 	rsbvc	r2, r1, #456	; 0x1c8
     a94:	6f6e2d6d 	svcvs	0x006e2d6d
     a98:	652d656e 	strvs	r6, [sp, #-1390]!	; 0x56e
     a9c:	2f696261 	svccs	0x00696261
     aa0:	2e382e34 	mrccs	14, 1, r2, cr8, cr4, {1}
     aa4:	73632d33 	cmnvc	r3, #3264	; 0xcc0
     aa8:	65303731 	ldrvs	r3, [r0, #-1841]!	; 0x731
     aac:	62696c2f 	rsbvs	r6, r9, #12032	; 0x2f00
     ab0:	6363672f 	cmnvs	r3, #12320768	; 0xbc0000
     ab4:	6d72612f 	ldfvse	f6, [r2, #-188]!	; 0xffffff44
     ab8:	6e6f6e2d 	cdpvs	14, 6, cr6, cr15, cr13, {1}
     abc:	61652d65 	cmnvs	r5, r5, ror #26
     ac0:	342f6962 	strtcc	r6, [pc], #-2402	; ac8 <__code_start__-0x7538>
     ac4:	332e382e 	teqcc	lr, #3014656	; 0x2e0000
     ac8:	636e692f 	cmnvs	lr, #770048	; 0xbc000
     acc:	6564756c 	strbvs	r7, [r4, #-1388]!	; 0x56c
     ad0:	73552f00 	cmpvc	r5, #0, 30
     ad4:	2f737265 	svccs	0x00737265
     ad8:	61697262 	cmnvs	r9, r2, ror #4
     adc:	6e756a6e 	vsubvs.f32	s13, s10, s29
     ae0:	7365442f 	cmnvc	r5, #788529152	; 0x2f000000
     ae4:	706f746b 	rsbvc	r7, pc, fp, ror #8
     ae8:	6863732f 	stmdavs	r3!, {r0, r1, r2, r3, r5, r8, r9, ip, sp, lr}^
     aec:	2f6c6f6f 	svccs	0x006c6f6f
     af0:	69727053 	ldmdbvs	r2!, {r0, r1, r4, r6, ip, sp, lr}^
     af4:	3931676e 	ldmdbcc	r1!, {r1, r2, r3, r5, r6, r8, r9, sl, sp, lr}
     af8:	432f3032 	teqmi	pc, #50	; 0x32
     afc:	30343253 	eorscc	r3, r4, r3, asr r2
     b00:	632f584c 	teqvs	pc, #76, 16	; 0x4c0000
     b04:	30343273 	eorscc	r3, r4, r3, ror r2
     b08:	322d786c 	eorcc	r7, sp, #108, 16	; 0x6c0000
     b0c:	72707330 	rsbsvc	r7, r0, #48, 6	; 0xc0000000
     b10:	62696c2f 	rsbvs	r6, r9, #12032	; 0x2f00
     b14:	692f6970 	stmdbvs	pc!, {r4, r5, r6, r8, fp, sp, lr}	; <UNPREDICTABLE>
     b18:	756c636e 	strbvc	r6, [ip, #-878]!	; 0x36e
     b1c:	00006564 	andeq	r6, r0, r4, ror #10
     b20:	6e697270 	mcrvs	2, 3, r7, cr9, cr0, {3}
     b24:	632e6b74 	teqvs	lr, #116, 22	; 0x1d000
     b28:	00000100 	andeq	r0, r0, r0, lsl #2
     b2c:	61647473 	smcvs	18243	; 0x4743
     b30:	682e6772 	stmdavs	lr!, {r1, r4, r5, r6, r8, r9, sl, sp, lr}
     b34:	00000200 	andeq	r0, r0, r0, lsl #4
     b38:	6975623c 	ldmdbvs	r5!, {r2, r3, r4, r5, r9, sp, lr}^
     b3c:	692d746c 	pushvs	{r2, r3, r5, r6, sl, ip, sp, lr}
     b40:	00003e6e 	andeq	r3, r0, lr, ror #28
     b44:	70720000 	rsbsvc	r0, r2, r0
     b48:	00682e69 	rsbeq	r2, r8, r9, ror #28
     b4c:	76000003 	strvc	r0, [r0], -r3
     b50:	72702d61 	rsbsvc	r2, r0, #6208	; 0x1840
     b54:	6b746e69 	blvs	1d1c500 <__bss_end__+0x1d10950>
     b58:	0100682e 	tsteq	r0, lr, lsr #16
     b5c:	00000000 	andeq	r0, r0, r0
     b60:	98bc0205 	ldmls	ip!, {r0, r2, r9}
     b64:	6b170000 	blvs	5c0b6c <__bss_end__+0x5b4fbc>
     b68:	0289bf4b 	addeq	fp, r9, #300	; 0x12c
     b6c:	0101000e 	tsteq	r1, lr
     b70:	00000094 	muleq	r0, r4, r0
     b74:	007c0002 	rsbseq	r0, ip, r2
     b78:	01020000 	mrseq	r0, (UNDEF: 2)
     b7c:	000d0efb 	strdeq	r0, [sp], -fp
     b80:	01010101 	tsteq	r1, r1, lsl #2
     b84:	01000000 	mrseq	r0, (UNDEF: 0)
     b88:	6c010000 	stcvs	0, cr0, [r1], {-0}
     b8c:	00636269 	rsbeq	r6, r3, r9, ror #4
     b90:	6573552f 	ldrbvs	r5, [r3, #-1327]!	; 0x52f
     b94:	622f7372 	eorvs	r7, pc, #-939524095	; 0xc8000001
     b98:	6e616972 	mcrvs	9, 3, r6, cr1, cr2, {3}
     b9c:	2f6e756a 	svccs	0x006e756a
     ba0:	6b736544 	blvs	1cda0b8 <__bss_end__+0x1cce508>
     ba4:	2f706f74 	svccs	0x00706f74
     ba8:	6f686373 	svcvs	0x00686373
     bac:	532f6c6f 	teqpl	pc, #28416	; 0x6f00
     bb0:	6e697270 	mcrvs	2, 3, r7, cr9, cr0, {3}
     bb4:	32393167 	eorscc	r3, r9, #-1073741799	; 0xc0000019
     bb8:	53432f30 	movtpl	r2, #16176	; 0x3f30
     bbc:	4c303432 	cfldrsmi	mvf3, [r0], #-200	; 0xffffff38
     bc0:	73632f58 	cmnvc	r3, #88, 30	; 0x160
     bc4:	6c303432 	cfldrsvs	mvf3, [r0], #-200	; 0xffffff38
     bc8:	30322d78 	eorscc	r2, r2, r8, ror sp
     bcc:	2f727073 	svccs	0x00727073
     bd0:	7062696c 	rsbvc	r6, r2, ip, ror #18
     bd4:	6e692f69 	cdpvs	15, 6, cr2, cr9, cr9, {3}
     bd8:	64756c63 	ldrbtvs	r6, [r5], #-3171	; 0xc63
     bdc:	70000065 	andvc	r0, r0, r5, rrx
     be0:	68637475 	stmdavs	r3!, {r0, r2, r4, r5, r6, sl, ip, sp, lr}^
     be4:	632e7261 	teqvs	lr, #268435462	; 0x10000006
     be8:	00000100 	andeq	r0, r0, r0, lsl #2
     bec:	2e697072 	mcrcs	0, 3, r7, cr9, cr2, {3}
     bf0:	00020068 	andeq	r0, r2, r8, rrx
     bf4:	05000000 	streq	r0, [r0, #-0]
     bf8:	00991402 	addseq	r1, r9, r2, lsl #8
     bfc:	6b4a1400 	blvs	1285c04 <__bss_end__+0x127a054>
     c00:	0213bc13 	andseq	fp, r3, #4864	; 0x1300
     c04:	01010008 	tsteq	r1, r8
     c08:	000000a0 	andeq	r0, r0, r0, lsr #1
     c0c:	00790002 	rsbseq	r0, r9, r2
     c10:	01020000 	mrseq	r0, (UNDEF: 2)
     c14:	000d0efb 	strdeq	r0, [sp], -fp
     c18:	01010101 	tsteq	r1, r1, lsl #2
     c1c:	01000000 	mrseq	r0, (UNDEF: 0)
     c20:	6c010000 	stcvs	0, cr0, [r1], {-0}
     c24:	00636269 	rsbeq	r6, r3, r9, ror #4
     c28:	6573552f 	ldrbvs	r5, [r3, #-1327]!	; 0x52f
     c2c:	622f7372 	eorvs	r7, pc, #-939524095	; 0xc8000001
     c30:	6e616972 	mcrvs	9, 3, r6, cr1, cr2, {3}
     c34:	2f6e756a 	svccs	0x006e756a
     c38:	6b736544 	blvs	1cda150 <__bss_end__+0x1cce5a0>
     c3c:	2f706f74 	svccs	0x00706f74
     c40:	6f686373 	svcvs	0x00686373
     c44:	532f6c6f 	teqpl	pc, #28416	; 0x6f00
     c48:	6e697270 	mcrvs	2, 3, r7, cr9, cr0, {3}
     c4c:	32393167 	eorscc	r3, r9, #-1073741799	; 0xc0000019
     c50:	53432f30 	movtpl	r2, #16176	; 0x3f30
     c54:	4c303432 	cfldrsmi	mvf3, [r0], #-200	; 0xffffff38
     c58:	73632f58 	cmnvc	r3, #88, 30	; 0x160
     c5c:	6c303432 	cfldrsvs	mvf3, [r0], #-200	; 0xffffff38
     c60:	30322d78 	eorscc	r2, r2, r8, ror sp
     c64:	2f727073 	svccs	0x00727073
     c68:	7062696c 	rsbvc	r6, r2, ip, ror #18
     c6c:	6e692f69 	cdpvs	15, 6, cr2, cr9, cr9, {3}
     c70:	64756c63 	ldrbtvs	r6, [r5], #-3171	; 0xc63
     c74:	70000065 	andvc	r0, r0, r5, rrx
     c78:	2e6b7475 	mcrcs	4, 3, r7, cr11, cr5, {3}
     c7c:	00010063 	andeq	r0, r1, r3, rrx
     c80:	69707200 	ldmdbvs	r0!, {r9, ip, sp, lr}^
     c84:	0200682e 	andeq	r6, r0, #3014656	; 0x2e0000
     c88:	00000000 	andeq	r0, r0, r0
     c8c:	99500205 	ldmdbls	r0, {r0, r2, r9}^
     c90:	4c150000 	ldcmi	0, cr0, [r5], {-0}
     c94:	0402002d 	streq	r0, [r2], #-45	; 0x2d
     c98:	02002f02 	andeq	r2, r0, #2, 30
     c9c:	00490204 	subeq	r0, r9, r4, lsl #4
     ca0:	06010402 	streq	r0, [r1], -r2, lsl #8
     ca4:	026b062e 	rsbeq	r0, fp, #48234496	; 0x2e00000
     ca8:	01010006 	tsteq	r1, r6
     cac:	000001eb 	andeq	r0, r0, fp, ror #3
     cb0:	00e90002 	rsceq	r0, r9, r2
     cb4:	01020000 	mrseq	r0, (UNDEF: 2)
     cb8:	000d0efb 	strdeq	r0, [sp], -fp
     cbc:	01010101 	tsteq	r1, r1, lsl #2
     cc0:	01000000 	mrseq	r0, (UNDEF: 0)
     cc4:	6c010000 	stcvs	0, cr0, [r1], {-0}
     cc8:	00636269 	rsbeq	r6, r3, r9, ror #4
     ccc:	7273752f 	rsbsvc	r7, r3, #197132288	; 0xbc00000
     cd0:	636f6c2f 	cmnvs	pc, #12032	; 0x2f00
     cd4:	432f6c61 	teqmi	pc, #24832	; 0x6100
     cd8:	616c6c65 	cmnvs	ip, r5, ror #24
     cdc:	72612f72 	rsbvc	r2, r1, #456	; 0x1c8
     ce0:	6f6e2d6d 	svcvs	0x006e2d6d
     ce4:	652d656e 	strvs	r6, [sp, #-1390]!	; 0x56e
     ce8:	2f696261 	svccs	0x00696261
     cec:	2e382e34 	mrccs	14, 1, r2, cr8, cr4, {1}
     cf0:	73632d33 	cmnvc	r3, #3264	; 0xcc0
     cf4:	65303731 	ldrvs	r3, [r0, #-1841]!	; 0x731
     cf8:	62696c2f 	rsbvs	r6, r9, #12032	; 0x2f00
     cfc:	6363672f 	cmnvs	r3, #12320768	; 0xbc0000
     d00:	6d72612f 	ldfvse	f6, [r2, #-188]!	; 0xffffff44
     d04:	6e6f6e2d 	cdpvs	14, 6, cr6, cr15, cr13, {1}
     d08:	61652d65 	cmnvs	r5, r5, ror #26
     d0c:	342f6962 	strtcc	r6, [pc], #-2402	; d14 <__code_start__-0x72ec>
     d10:	332e382e 	teqcc	lr, #3014656	; 0x2e0000
     d14:	636e692f 	cmnvs	lr, #770048	; 0xbc000
     d18:	6564756c 	strbvs	r7, [r4, #-1388]!	; 0x56c
     d1c:	73552f00 	cmpvc	r5, #0, 30
     d20:	2f737265 	svccs	0x00737265
     d24:	61697262 	cmnvs	r9, r2, ror #4
     d28:	6e756a6e 	vsubvs.f32	s13, s10, s29
     d2c:	7365442f 	cmnvc	r5, #788529152	; 0x2f000000
     d30:	706f746b 	rsbvc	r7, pc, fp, ror #8
     d34:	6863732f 	stmdavs	r3!, {r0, r1, r2, r3, r5, r8, r9, ip, sp, lr}^
     d38:	2f6c6f6f 	svccs	0x006c6f6f
     d3c:	69727053 	ldmdbvs	r2!, {r0, r1, r4, r6, ip, sp, lr}^
     d40:	3931676e 	ldmdbcc	r1!, {r1, r2, r3, r5, r6, r8, r9, sl, sp, lr}
     d44:	432f3032 	teqmi	pc, #50	; 0x32
     d48:	30343253 	eorscc	r3, r4, r3, asr r2
     d4c:	632f584c 	teqvs	pc, #76, 16	; 0x4c0000
     d50:	30343273 	eorscc	r3, r4, r3, ror r2
     d54:	322d786c 	eorcc	r7, sp, #108, 16	; 0x6c0000
     d58:	72707330 	rsbsvc	r7, r0, #48, 6	; 0xc0000000
     d5c:	62696c2f 	rsbvs	r6, r9, #12032	; 0x2f00
     d60:	692f6970 	stmdbvs	pc!, {r4, r5, r6, r8, fp, sp, lr}	; <UNPREDICTABLE>
     d64:	756c636e 	strbvc	r6, [ip, #-878]!	; 0x36e
     d68:	00006564 	andeq	r6, r0, r4, ror #10
     d6c:	702d6176 	eorvc	r6, sp, r6, ror r1
     d70:	746e6972 	strbtvc	r6, [lr], #-2418	; 0x972
     d74:	00632e6b 	rsbeq	r2, r3, fp, ror #28
     d78:	73000001 	movwvc	r0, #1
     d7c:	72616474 	rsbvc	r6, r1, #116, 8	; 0x74000000
     d80:	00682e67 	rsbeq	r2, r8, r7, ror #28
     d84:	72000002 	andvc	r0, r0, #2
     d88:	682e6970 	stmdavs	lr!, {r4, r5, r6, r8, fp, sp, lr}
     d8c:	00000300 	andeq	r0, r0, r0, lsl #6
     d90:	6975623c 	ldmdbvs	r5!, {r2, r3, r4, r5, r9, sp, lr}^
     d94:	692d746c 	pushvs	{r2, r3, r5, r6, sl, ip, sp, lr}
     d98:	00003e6e 	andeq	r3, r0, lr, ror #28
     d9c:	00000000 	andeq	r0, r0, r0
     da0:	99840205 	stmibls	r4, {r0, r2, r9}
     da4:	26030000 	strcs	r0, [r3], -r0
     da8:	13a50101 			; <UNDEFINED> instruction: 0x13a50101
     dac:	02002d31 	andeq	r2, r0, #3136	; 0xc40
     db0:	002f0204 	eoreq	r0, pc, r4, lsl #4
     db4:	2d020402 	cfstrscs	mvf0, [r2, #-8]
     db8:	02040200 	andeq	r0, r4, #0, 4
     dbc:	0402002f 	streq	r0, [r2], #-47	; 0x2f
     dc0:	4c4c2d01 	mcrrmi	13, 0, r2, ip, cr1
     dc4:	2f4b1430 	svccs	0x004b1430
     dc8:	0402004f 	streq	r0, [r2], #-79	; 0x4f
     dcc:	02006702 	andeq	r6, r0, #524288	; 0x80000
     dd0:	4c650104 	stfmie	f0, [r5], #-16
     dd4:	2fa0304d 	svccs	0x00a0304d
     dd8:	26023031 			; <UNDEFINED> instruction: 0x26023031
     ddc:	2c2d8416 	cfstrscs	mvf8, [sp], #-88	; 0xffffffa8
     de0:	01040200 	mrseq	r0, R12_usr
     de4:	04020030 	streq	r0, [r2], #-48	; 0x30
     de8:	66063301 	strvs	r3, [r6], -r1, lsl #6
     dec:	01040200 	mrseq	r0, R12_usr
     df0:	0402002e 	streq	r0, [r2], #-46	; 0x2e
     df4:	21080601 	tstcs	r8, r1, lsl #12
     df8:	73032f67 	movwvc	r2, #16231	; 0x3f67
     dfc:	2e130382 	cdpcs	3, 1, cr0, cr3, cr2, {4}
     e00:	01040200 	mrseq	r0, R12_usr
     e04:	02006606 	andeq	r6, r0, #6291456	; 0x600000
     e08:	83060104 	movwhi	r0, #24836	; 0x6104
     e0c:	31674b4b 	cmncc	r7, fp, asr #22
     e10:	2e65034b 	cdpcs	3, 6, cr0, cr5, cr11, {2}
     e14:	002e2303 	eoreq	r2, lr, r3, lsl #6
     e18:	06010402 	streq	r0, [r1], -r2, lsl #8
     e1c:	0402002e 	streq	r0, [r2], #-46	; 0x2e
     e20:	009f0601 	addseq	r0, pc, r1, lsl #12
     e24:	6a010402 	bvs	41e34 <__bss_end__+0x36284>
     e28:	a403d7d9 	strge	sp, [r3], #-2009	; 0x7d9
     e2c:	2f20087f 	svccs	0x0020087f
     e30:	01040200 	mrseq	r0, R12_usr
     e34:	d7064a06 	strle	r4, [r6, -r6, lsl #20]
     e38:	dc032f4b 	stcle	15, cr2, [r3], {75}	; 0x4b
     e3c:	4c83f200 	sfmmi	f7, 1, [r3], {0}
     e40:	2e0e0348 	cdpcs	3, 0, cr0, cr14, cr8, {2}
     e44:	2f2e7503 	svccs	0x002e7503
     e48:	2f4b842f 	svccs	0x004b842f
     e4c:	30314d2d 	eorscc	r4, r1, sp, lsr #26
     e50:	0200832f 	andeq	r8, r0, #-1140850688	; 0xbc000000
     e54:	a22c0104 	eorge	r0, ip, #4, 2
     e58:	01040200 	mrseq	r0, R12_usr
     e5c:	d8064a06 	stmdale	r6, {r1, r2, r9, fp, lr}
     e60:	03163602 	tsteq	r6, #2097152	; 0x200000
     e64:	2108d60e 	tstcs	r8, lr, lsl #12
     e68:	f331f330 	vcge.u<illegal width 64>	d15, d1, d16
     e6c:	4b30f330 	blmi	c3db34 <__bss_end__+0xc31f84>
     e70:	0830f330 	ldmdaeq	r0!, {r4, r5, r8, r9, ip, sp, lr, pc}
     e74:	002f3123 	eoreq	r3, pc, r3, lsr #2
     e78:	65010402 	strvs	r0, [r1, #-1026]	; 0x402
     e7c:	02040200 	andeq	r0, r4, #0, 4
     e80:	02004a06 	andeq	r4, r0, #24576	; 0x6000
     e84:	03060104 	movweq	r0, #24836	; 0x6104
     e88:	02006642 	andeq	r6, r0, #69206016	; 0x4200000
     e8c:	66060204 	strvs	r0, [r6], -r4, lsl #4
     e90:	00c20306 	sbceq	r0, r2, r6, lsl #6
     e94:	1002684a 	andne	r6, r2, sl, asr #16
     e98:	9c010100 	stflss	f0, [r1], {-0}
     e9c:	02000000 	andeq	r0, r0, #0
     ea0:	00008600 	andeq	r8, r0, r0, lsl #12
     ea4:	fb010200 	blx	416ae <__bss_end__+0x35afe>
     ea8:	01000d0e 	tsteq	r0, lr, lsl #26
     eac:	00010101 	andeq	r0, r1, r1, lsl #2
     eb0:	00010000 	andeq	r0, r1, r0
     eb4:	74730100 	ldrbtvc	r0, [r3], #-256	; 0x100
     eb8:	2d666661 	stclcs	6, cr6, [r6, #-388]!	; 0xfffffe7c
     ebc:	00637273 	rsbeq	r7, r3, r3, ror r2
     ec0:	6573552f 	ldrbvs	r5, [r3, #-1327]!	; 0x52f
     ec4:	622f7372 	eorvs	r7, pc, #-939524095	; 0xc8000001
     ec8:	6e616972 	mcrvs	9, 3, r6, cr1, cr2, {3}
     ecc:	2f6e756a 	svccs	0x006e756a
     ed0:	6b736544 	blvs	1cda3e8 <__bss_end__+0x1cce838>
     ed4:	2f706f74 	svccs	0x00706f74
     ed8:	6f686373 	svcvs	0x00686373
     edc:	532f6c6f 	teqpl	pc, #28416	; 0x6f00
     ee0:	6e697270 	mcrvs	2, 3, r7, cr9, cr0, {3}
     ee4:	32393167 	eorscc	r3, r9, #-1073741799	; 0xc0000019
     ee8:	53432f30 	movtpl	r2, #16176	; 0x3f30
     eec:	4c303432 	cfldrsmi	mvf3, [r0], #-200	; 0xffffff38
     ef0:	73632f58 	cmnvc	r3, #88, 30	; 0x160
     ef4:	6c303432 	cfldrsvs	mvf3, [r0], #-200	; 0xffffff38
     ef8:	30322d78 	eorscc	r2, r2, r8, ror sp
     efc:	2f727073 	svccs	0x00727073
     f00:	7062696c 	rsbvc	r6, r2, ip, ror #18
     f04:	6e692f69 	cdpvs	15, 6, cr2, cr9, cr9, {3}
     f08:	64756c63 	ldrbtvs	r6, [r5], #-3171	; 0xc63
     f0c:	63000065 	movwvs	r0, #101	; 0x65
     f10:	6e61656c 	cdpvs	5, 6, cr6, cr1, cr12, {3}
     f14:	6265722d 	rsbvs	r7, r5, #-805306366	; 0xd0000002
     f18:	2e746f6f 	cdpcs	15, 7, cr6, cr4, cr15, {3}
     f1c:	00010063 	andeq	r0, r1, r3, rrx
     f20:	69707200 	ldmdbvs	r0!, {r9, ip, sp, lr}^
     f24:	0200682e 	andeq	r6, r0, #3014656	; 0x2e0000
     f28:	00000000 	andeq	r0, r0, r0
     f2c:	9e900205 	cdpls	2, 9, cr0, cr0, cr5, {0}
     f30:	2f150000 	svccs	0x00150000
     f34:	06024b83 	streq	r4, [r2], -r3, lsl #23
     f38:	a3010100 	movwge	r0, #4352	; 0x1100
     f3c:	02000000 	andeq	r0, r0, #0
     f40:	00008000 	andeq	r8, r0, r0
     f44:	fb010200 	blx	4174e <__bss_end__+0x35b9e>
     f48:	01000d0e 	tsteq	r0, lr, lsl #26
     f4c:	00010101 	andeq	r0, r1, r1, lsl #2
     f50:	00010000 	andeq	r0, r1, r0
     f54:	74730100 	ldrbtvc	r0, [r3], #-256	; 0x100
     f58:	2d666661 	stclcs	6, cr6, [r6, #-388]!	; 0xfffffe7c
     f5c:	00637273 	rsbeq	r7, r3, r3, ror r2
     f60:	6573552f 	ldrbvs	r5, [r3, #-1327]!	; 0x52f
     f64:	622f7372 	eorvs	r7, pc, #-939524095	; 0xc8000001
     f68:	6e616972 	mcrvs	9, 3, r6, cr1, cr2, {3}
     f6c:	2f6e756a 	svccs	0x006e756a
     f70:	6b736544 	blvs	1cda488 <__bss_end__+0x1cce8d8>
     f74:	2f706f74 	svccs	0x00706f74
     f78:	6f686373 	svcvs	0x00686373
     f7c:	532f6c6f 	teqpl	pc, #28416	; 0x6f00
     f80:	6e697270 	mcrvs	2, 3, r7, cr9, cr0, {3}
     f84:	32393167 	eorscc	r3, r9, #-1073741799	; 0xc0000019
     f88:	53432f30 	movtpl	r2, #16176	; 0x3f30
     f8c:	4c303432 	cfldrsmi	mvf3, [r0], #-200	; 0xffffff38
     f90:	73632f58 	cmnvc	r3, #88, 30	; 0x160
     f94:	6c303432 	cfldrsvs	mvf3, [r0], #-200	; 0xffffff38
     f98:	30322d78 	eorscc	r2, r2, r8, ror sp
     f9c:	2f727073 	svccs	0x00727073
     fa0:	7062696c 	rsbvc	r6, r2, ip, ror #18
     fa4:	6e692f69 	cdpvs	15, 6, cr2, cr9, cr9, {3}
     fa8:	64756c63 	ldrbtvs	r6, [r5], #-3171	; 0xc63
     fac:	63000065 	movwvs	r0, #101	; 0x65
     fb0:	72617473 	rsbvc	r7, r1, #1929379840	; 0x73000000
     fb4:	00632e74 	rsbeq	r2, r3, r4, ror lr
     fb8:	72000001 	andvc	r0, r0, #1
     fbc:	682e6970 	stmdavs	lr!, {r4, r5, r6, r8, fp, sp, lr}
     fc0:	00000200 	andeq	r0, r0, r0, lsl #4
     fc4:	02050000 	andeq	r0, r5, #0
     fc8:	00009eb8 			; <UNDEFINED> instruction: 0x00009eb8
     fcc:	32010c03 	andcc	r0, r1, #768	; 0x300
     fd0:	2f2d2f31 	svccs	0x002d2f31
     fd4:	01040200 	mrseq	r0, R12_usr
     fd8:	4a150349 	bmi	541d04 <__bss_end__+0x536154>
     fdc:	0006022f 	andeq	r0, r6, pc, lsr #4
     fe0:	00a80101 	adceq	r0, r8, r1, lsl #2
     fe4:	00020000 	andeq	r0, r2, r0
     fe8:	00000094 	muleq	r0, r4, r0
     fec:	0efb0102 	cdpeq	1, 15, cr0, cr11, cr2, {0}
     ff0:	0101000d 	tsteq	r1, sp
     ff4:	00000101 	andeq	r0, r0, r1, lsl #2
     ff8:	00000100 	andeq	r0, r0, r0, lsl #2
     ffc:	61747301 	cmnvs	r4, r1, lsl #6
    1000:	732d6666 	teqvc	sp, #106954752	; 0x6600000
    1004:	2f006372 	svccs	0x00006372
    1008:	72657355 	rsbvc	r7, r5, #1409286145	; 0x54000001
    100c:	72622f73 	rsbvc	r2, r2, #460	; 0x1cc
    1010:	6a6e6169 	bvs	1b995bc <__bss_end__+0x1b8da0c>
    1014:	442f6e75 	strtmi	r6, [pc], #-3701	; 101c <__code_start__-0x6fe4>
    1018:	746b7365 	strbtvc	r7, [fp], #-869	; 0x365
    101c:	732f706f 	teqvc	pc, #111	; 0x6f
    1020:	6f6f6863 	svcvs	0x006f6863
    1024:	70532f6c 	subsvc	r2, r3, ip, ror #30
    1028:	676e6972 			; <UNDEFINED> instruction: 0x676e6972
    102c:	30323931 	eorscc	r3, r2, r1, lsr r9
    1030:	3253432f 	subscc	r4, r3, #-1140850688	; 0xbc000000
    1034:	584c3034 	stmdapl	ip, {r2, r4, r5, ip, sp}^
    1038:	3273632f 	rsbscc	r6, r3, #-1140850688	; 0xbc000000
    103c:	786c3034 	stmdavc	ip!, {r2, r4, r5, ip, sp}^
    1040:	7330322d 	teqvc	r0, #-805306366	; 0xd0000002
    1044:	6c2f7270 	sfmvs	f7, 4, [pc], #-448	; e8c <__code_start__-0x7174>
    1048:	69706269 	ldmdbvs	r0!, {r0, r3, r5, r6, r9, sp, lr}^
    104c:	636e692f 	cmnvs	lr, #770048	; 0xbc000
    1050:	6564756c 	strbvs	r7, [r4, #-1388]!	; 0x56c
    1054:	65640000 	strbvs	r0, [r4, #-0]!
    1058:	6c756166 	ldfvse	f6, [r5], #-408	; 0xfffffe68
    105c:	61682d74 	smcvs	33492	; 0x82d4
    1060:	656c646e 	strbvs	r6, [ip, #-1134]!	; 0x46e
    1064:	61642d72 	smcvs	17106	; 0x42d2
    1068:	612d6174 	teqvs	sp, r4, ror r1
    106c:	74726f62 	ldrbtvc	r6, [r2], #-3938	; 0xf62
    1070:	0100632e 	tsteq	r0, lr, lsr #6
    1074:	70720000 	rsbsvc	r0, r2, r0
    1078:	00682e69 	rsbeq	r2, r8, r9, ror #28
    107c:	00000002 	andeq	r0, r0, r2
    1080:	ec020500 	cfstr32	mvfx0, [r2], {-0}
    1084:	1300009e 	movwne	r0, #158	; 0x9e
    1088:	001c0266 	andseq	r0, ip, r6, ror #4
    108c:	00a20101 	adceq	r0, r2, r1, lsl #2
    1090:	00020000 	andeq	r0, r2, r0
    1094:	0000008e 	andeq	r0, r0, lr, lsl #1
    1098:	0efb0102 	cdpeq	1, 15, cr0, cr11, cr2, {0}
    109c:	0101000d 	tsteq	r1, sp
    10a0:	00000101 	andeq	r0, r0, r1, lsl #2
    10a4:	00000100 	andeq	r0, r0, r0, lsl #2
    10a8:	61747301 	cmnvs	r4, r1, lsl #6
    10ac:	732d6666 	teqvc	sp, #106954752	; 0x6600000
    10b0:	2f006372 	svccs	0x00006372
    10b4:	72657355 	rsbvc	r7, r5, #1409286145	; 0x54000001
    10b8:	72622f73 	rsbvc	r2, r2, #460	; 0x1cc
    10bc:	6a6e6169 	bvs	1b99668 <__bss_end__+0x1b8dab8>
    10c0:	442f6e75 	strtmi	r6, [pc], #-3701	; 10c8 <__code_start__-0x6f38>
    10c4:	746b7365 	strbtvc	r7, [fp], #-869	; 0x365
    10c8:	732f706f 	teqvc	pc, #111	; 0x6f
    10cc:	6f6f6863 	svcvs	0x006f6863
    10d0:	70532f6c 	subsvc	r2, r3, ip, ror #30
    10d4:	676e6972 			; <UNDEFINED> instruction: 0x676e6972
    10d8:	30323931 	eorscc	r3, r2, r1, lsr r9
    10dc:	3253432f 	subscc	r4, r3, #-1140850688	; 0xbc000000
    10e0:	584c3034 	stmdapl	ip, {r2, r4, r5, ip, sp}^
    10e4:	3273632f 	rsbscc	r6, r3, #-1140850688	; 0xbc000000
    10e8:	786c3034 	stmdavc	ip!, {r2, r4, r5, ip, sp}^
    10ec:	7330322d 	teqvc	r0, #-805306366	; 0xd0000002
    10f0:	6c2f7270 	sfmvs	f7, 4, [pc], #-448	; f38 <__code_start__-0x70c8>
    10f4:	69706269 	ldmdbvs	r0!, {r0, r3, r5, r6, r9, sp, lr}^
    10f8:	636e692f 	cmnvs	lr, #770048	; 0xbc000
    10fc:	6564756c 	strbvs	r7, [r4, #-1388]!	; 0x56c
    1100:	65640000 	strbvs	r0, [r4, #-0]!
    1104:	6c756166 	ldfvse	f6, [r5], #-408	; 0xfffffe68
    1108:	61682d74 	smcvs	33492	; 0x82d4
    110c:	656c646e 	strbvs	r6, [ip, #-1134]!	; 0x46e
    1110:	61662d72 	smcvs	25298	; 0x62d2
    1114:	632e7473 	teqvs	lr, #1929379840	; 0x73000000
    1118:	00000100 	andeq	r0, r0, r0, lsl #2
    111c:	2e697072 	mcrcs	0, 3, r7, cr9, cr2, {3}
    1120:	00020068 	andeq	r0, r2, r8, rrx
    1124:	05000000 	streq	r0, [r0, #-0]
    1128:	009f3002 	addseq	r3, pc, r2
    112c:	02661300 	rsbeq	r1, r6, #0, 6
    1130:	0101001c 	tsteq	r1, ip, lsl r0
    1134:	000000a6 	andeq	r0, r0, r6, lsr #1
    1138:	00920002 	addseq	r0, r2, r2
    113c:	01020000 	mrseq	r0, (UNDEF: 2)
    1140:	000d0efb 	strdeq	r0, [sp], -fp
    1144:	01010101 	tsteq	r1, r1, lsl #2
    1148:	01000000 	mrseq	r0, (UNDEF: 0)
    114c:	73010000 	movwvc	r0, #4096	; 0x1000
    1150:	66666174 			; <UNDEFINED> instruction: 0x66666174
    1154:	6372732d 	cmnvs	r2, #-1275068416	; 0xb4000000
    1158:	73552f00 	cmpvc	r5, #0, 30
    115c:	2f737265 	svccs	0x00737265
    1160:	61697262 	cmnvs	r9, r2, ror #4
    1164:	6e756a6e 	vsubvs.f32	s13, s10, s29
    1168:	7365442f 	cmnvc	r5, #788529152	; 0x2f000000
    116c:	706f746b 	rsbvc	r7, pc, fp, ror #8
    1170:	6863732f 	stmdavs	r3!, {r0, r1, r2, r3, r5, r8, r9, ip, sp, lr}^
    1174:	2f6c6f6f 	svccs	0x006c6f6f
    1178:	69727053 	ldmdbvs	r2!, {r0, r1, r4, r6, ip, sp, lr}^
    117c:	3931676e 	ldmdbcc	r1!, {r1, r2, r3, r5, r6, r8, r9, sl, sp, lr}
    1180:	432f3032 	teqmi	pc, #50	; 0x32
    1184:	30343253 	eorscc	r3, r4, r3, asr r2
    1188:	632f584c 	teqvs	pc, #76, 16	; 0x4c0000
    118c:	30343273 	eorscc	r3, r4, r3, ror r2
    1190:	322d786c 	eorcc	r7, sp, #108, 16	; 0x6c0000
    1194:	72707330 	rsbsvc	r7, r0, #48, 6	; 0xc0000000
    1198:	62696c2f 	rsbvs	r6, r9, #12032	; 0x2f00
    119c:	692f6970 	stmdbvs	pc!, {r4, r5, r6, r8, fp, sp, lr}	; <UNPREDICTABLE>
    11a0:	756c636e 	strbvc	r6, [ip, #-878]!	; 0x36e
    11a4:	00006564 	andeq	r6, r0, r4, ror #10
    11a8:	61666564 	cmnvs	r6, r4, ror #10
    11ac:	2d746c75 	ldclcs	12, cr6, [r4, #-468]!	; 0xfffffe2c
    11b0:	646e6168 	strbtvs	r6, [lr], #-360	; 0x168
    11b4:	2d72656c 	cfldr64cs	mvdx6, [r2, #-432]!	; 0xfffffe50
    11b8:	66657270 			; <UNDEFINED> instruction: 0x66657270
    11bc:	68637465 	stmdavs	r3!, {r0, r2, r5, r6, sl, ip, sp, lr}^
    11c0:	0100632e 	tsteq	r0, lr, lsr #6
    11c4:	70720000 	rsbsvc	r0, r2, r0
    11c8:	00682e69 	rsbeq	r2, r8, r9, ror #28
    11cc:	00000002 	andeq	r0, r0, r2
    11d0:	74020500 	strvc	r0, [r2], #-1280	; 0x500
    11d4:	1300009f 	movwne	r0, #159	; 0x9f
    11d8:	001c0266 	andseq	r0, ip, r6, ror #4
    11dc:	00a30101 	adceq	r0, r3, r1, lsl #2
    11e0:	00020000 	andeq	r0, r2, r0
    11e4:	0000008f 	andeq	r0, r0, pc, lsl #1
    11e8:	0efb0102 	cdpeq	1, 15, cr0, cr11, cr2, {0}
    11ec:	0101000d 	tsteq	r1, sp
    11f0:	00000101 	andeq	r0, r0, r1, lsl #2
    11f4:	00000100 	andeq	r0, r0, r0, lsl #2
    11f8:	61747301 	cmnvs	r4, r1, lsl #6
    11fc:	732d6666 	teqvc	sp, #106954752	; 0x6600000
    1200:	2f006372 	svccs	0x00006372
    1204:	72657355 	rsbvc	r7, r5, #1409286145	; 0x54000001
    1208:	72622f73 	rsbvc	r2, r2, #460	; 0x1cc
    120c:	6a6e6169 	bvs	1b997b8 <__bss_end__+0x1b8dc08>
    1210:	442f6e75 	strtmi	r6, [pc], #-3701	; 1218 <__code_start__-0x6de8>
    1214:	746b7365 	strbtvc	r7, [fp], #-869	; 0x365
    1218:	732f706f 	teqvc	pc, #111	; 0x6f
    121c:	6f6f6863 	svcvs	0x006f6863
    1220:	70532f6c 	subsvc	r2, r3, ip, ror #30
    1224:	676e6972 			; <UNDEFINED> instruction: 0x676e6972
    1228:	30323931 	eorscc	r3, r2, r1, lsr r9
    122c:	3253432f 	subscc	r4, r3, #-1140850688	; 0xbc000000
    1230:	584c3034 	stmdapl	ip, {r2, r4, r5, ip, sp}^
    1234:	3273632f 	rsbscc	r6, r3, #-1140850688	; 0xbc000000
    1238:	786c3034 	stmdavc	ip!, {r2, r4, r5, ip, sp}^
    123c:	7330322d 	teqvc	r0, #-805306366	; 0xd0000002
    1240:	6c2f7270 	sfmvs	f7, 4, [pc], #-448	; 1088 <__code_start__-0x6f78>
    1244:	69706269 	ldmdbvs	r0!, {r0, r3, r5, r6, r9, sp, lr}^
    1248:	636e692f 	cmnvs	lr, #770048	; 0xbc000
    124c:	6564756c 	strbvs	r7, [r4, #-1388]!	; 0x56c
    1250:	65640000 	strbvs	r0, [r4, #-0]!
    1254:	6c756166 	ldfvse	f6, [r5], #-408	; 0xfffffe68
    1258:	61682d74 	smcvs	33492	; 0x82d4
    125c:	656c646e 	strbvs	r6, [ip, #-1134]!	; 0x46e
    1260:	65722d72 	ldrbvs	r2, [r2, #-3442]!	; 0xd72
    1264:	2e746573 	mrccs	5, 3, r6, cr4, cr3, {3}
    1268:	00010063 	andeq	r0, r1, r3, rrx
    126c:	69707200 	ldmdbvs	r0!, {r9, ip, sp, lr}^
    1270:	0200682e 	andeq	r6, r0, #3014656	; 0x2e0000
    1274:	00000000 	andeq	r0, r0, r0
    1278:	9fb80205 	svcls	0x00b80205
    127c:	66130000 	ldrvs	r0, [r3], -r0
    1280:	01001c02 	tsteq	r0, r2, lsl #24
    1284:	0000a101 	andeq	sl, r0, r1, lsl #2
    1288:	8d000200 	sfmhi	f0, 4, [r0, #-0]
    128c:	02000000 	andeq	r0, r0, #0
    1290:	0d0efb01 	vstreq	d15, [lr, #-4]
    1294:	01010100 	mrseq	r0, (UNDEF: 17)
    1298:	00000001 	andeq	r0, r0, r1
    129c:	01000001 	tsteq	r0, r1
    12a0:	66617473 			; <UNDEFINED> instruction: 0x66617473
    12a4:	72732d66 	rsbsvc	r2, r3, #6528	; 0x1980
    12a8:	552f0063 	strpl	r0, [pc, #-99]!	; 124d <__code_start__-0x6db3>
    12ac:	73726573 	cmnvc	r2, #482344960	; 0x1cc00000
    12b0:	6972622f 	ldmdbvs	r2!, {r0, r1, r2, r3, r5, r9, sp, lr}^
    12b4:	756a6e61 	strbvc	r6, [sl, #-3681]!	; 0xe61
    12b8:	65442f6e 	strbvs	r2, [r4, #-3950]	; 0xf6e
    12bc:	6f746b73 	svcvs	0x00746b73
    12c0:	63732f70 	cmnvs	r3, #112, 30	; 0x1c0
    12c4:	6c6f6f68 	stclvs	15, cr6, [pc], #-416	; 112c <__code_start__-0x6ed4>
    12c8:	7270532f 	rsbsvc	r5, r0, #-1140850688	; 0xbc000000
    12cc:	31676e69 	cmncc	r7, r9, ror #28
    12d0:	2f303239 	svccs	0x00303239
    12d4:	34325343 	ldrtcc	r5, [r2], #-835	; 0x343
    12d8:	2f584c30 	svccs	0x00584c30
    12dc:	34327363 	ldrtcc	r7, [r2], #-867	; 0x363
    12e0:	2d786c30 	ldclcs	12, cr6, [r8, #-192]!	; 0xffffff40
    12e4:	70733032 	rsbsvc	r3, r3, r2, lsr r0
    12e8:	696c2f72 	stmdbvs	ip!, {r1, r4, r5, r6, r8, r9, sl, fp, sp}^
    12ec:	2f697062 	svccs	0x00697062
    12f0:	6c636e69 	stclvs	14, cr6, [r3], #-420	; 0xfffffe5c
    12f4:	00656475 	rsbeq	r6, r5, r5, ror r4
    12f8:	66656400 	strbtvs	r6, [r5], -r0, lsl #8
    12fc:	746c7561 	strbtvc	r7, [ip], #-1377	; 0x561
    1300:	6e61682d 	cdpvs	8, 6, cr6, cr1, cr13, {1}
    1304:	72656c64 	rsbvc	r6, r5, #100, 24	; 0x6400
    1308:	6977732d 	ldmdbvs	r7!, {r0, r2, r3, r5, r8, r9, ip, sp, lr}^
    130c:	0100632e 	tsteq	r0, lr, lsr #6
    1310:	70720000 	rsbsvc	r0, r2, r0
    1314:	00682e69 	rsbeq	r2, r8, r9, ror #28
    1318:	00000002 	andeq	r0, r0, r2
    131c:	fc020500 	stc2	5, cr0, [r2], {-0}
    1320:	1300009f 	movwne	r0, #159	; 0x9f
    1324:	001c0266 	andseq	r0, ip, r6, ror #4
    1328:	00c90101 	sbceq	r0, r9, r1, lsl #2
    132c:	00020000 	andeq	r0, r2, r0
    1330:	0000009a 	muleq	r0, sl, r0
    1334:	0efb0102 	cdpeq	1, 15, cr0, cr11, cr2, {0}
    1338:	0101000d 	tsteq	r1, sp
    133c:	00000101 	andeq	r0, r0, r1, lsl #2
    1340:	00000100 	andeq	r0, r0, r0, lsl #2
    1344:	61747301 	cmnvs	r4, r1, lsl #6
    1348:	732d6666 	teqvc	sp, #106954752	; 0x6600000
    134c:	2f006372 	svccs	0x00006372
    1350:	72657355 	rsbvc	r7, r5, #1409286145	; 0x54000001
    1354:	72622f73 	rsbvc	r2, r2, #460	; 0x1cc
    1358:	6a6e6169 	bvs	1b99904 <__bss_end__+0x1b8dd54>
    135c:	442f6e75 	strtmi	r6, [pc], #-3701	; 1364 <__code_start__-0x6c9c>
    1360:	746b7365 	strbtvc	r7, [fp], #-869	; 0x365
    1364:	732f706f 	teqvc	pc, #111	; 0x6f
    1368:	6f6f6863 	svcvs	0x006f6863
    136c:	70532f6c 	subsvc	r2, r3, ip, ror #30
    1370:	676e6972 			; <UNDEFINED> instruction: 0x676e6972
    1374:	30323931 	eorscc	r3, r2, r1, lsr r9
    1378:	3253432f 	subscc	r4, r3, #-1140850688	; 0xbc000000
    137c:	584c3034 	stmdapl	ip, {r2, r4, r5, ip, sp}^
    1380:	3273632f 	rsbscc	r6, r3, #-1140850688	; 0xbc000000
    1384:	786c3034 	stmdavc	ip!, {r2, r4, r5, ip, sp}^
    1388:	7330322d 	teqvc	r0, #-805306366	; 0xd0000002
    138c:	6c2f7270 	sfmvs	f7, 4, [pc], #-448	; 11d4 <__code_start__-0x6e2c>
    1390:	69706269 	ldmdbvs	r0!, {r0, r3, r5, r6, r9, sp, lr}^
    1394:	636e692f 	cmnvs	lr, #770048	; 0xbc000
    1398:	6564756c 	strbvs	r7, [r4, #-1388]!	; 0x56c
    139c:	6e690000 	cdpvs	0, 6, cr0, cr9, cr0, {0}
    13a0:	72726574 	rsbsvc	r6, r2, #116, 10	; 0x1d000000
    13a4:	73747075 	cmnvc	r4, #117	; 0x75
    13a8:	632e632d 	teqvs	lr, #-1275068416	; 0xb4000000
    13ac:	00000100 	andeq	r0, r0, r0, lsl #2
    13b0:	2d697072 	stclcs	0, cr7, [r9, #-456]!	; 0xfffffe38
    13b4:	65746e69 	ldrbvs	r6, [r4, #-3689]!	; 0xe69
    13b8:	70757272 	rsbsvc	r7, r5, r2, ror r2
    13bc:	682e7374 	stmdavs	lr!, {r2, r4, r5, r6, r8, r9, ip, sp, lr}
    13c0:	00000200 	andeq	r0, r0, r0, lsl #4
    13c4:	2e697072 	mcrcs	0, 3, r7, cr9, cr2, {3}
    13c8:	00020068 	andeq	r0, r2, r8, rrx
    13cc:	05000000 	streq	r0, [r0, #-0]
    13d0:	00a04002 	adceq	r4, r0, r2
    13d4:	011a0300 	tsteq	sl, r0, lsl #6
    13d8:	67672f31 			; <UNDEFINED> instruction: 0x67672f31
    13dc:	2d2f8336 	stccs	3, cr8, [pc, #-216]!	; 130c <__code_start__-0x6cf4>
    13e0:	02040200 	andeq	r0, r4, #0, 4
    13e4:	0402002f 	streq	r0, [r2], #-47	; 0x2f
    13e8:	02006502 	andeq	r6, r0, #8388608	; 0x800000
    13ec:	2e060104 	adfcss	f0, f6, f4
    13f0:	0a024c06 	beq	94410 <__bss_end__+0x88860>
    13f4:	a2010100 	andge	r0, r1, #0, 2
    13f8:	02000000 	andeq	r0, r0, #0
    13fc:	00008000 	andeq	r8, r0, r0
    1400:	fb010200 	blx	41c0a <__bss_end__+0x3605a>
    1404:	01000d0e 	tsteq	r0, lr, lsl #26
    1408:	00010101 	andeq	r0, r1, r1, lsl #2
    140c:	00010000 	andeq	r0, r1, r0
    1410:	74730100 	ldrbtvc	r0, [r3], #-256	; 0x100
    1414:	2d666661 	stclcs	6, cr6, [r6, #-388]!	; 0xfffffe7c
    1418:	00637273 	rsbeq	r7, r3, r3, ror r2
    141c:	6573552f 	ldrbvs	r5, [r3, #-1327]!	; 0x52f
    1420:	622f7372 	eorvs	r7, pc, #-939524095	; 0xc8000001
    1424:	6e616972 	mcrvs	9, 3, r6, cr1, cr2, {3}
    1428:	2f6e756a 	svccs	0x006e756a
    142c:	6b736544 	blvs	1cda944 <__bss_end__+0x1cced94>
    1430:	2f706f74 	svccs	0x00706f74
    1434:	6f686373 	svcvs	0x00686373
    1438:	532f6c6f 	teqpl	pc, #28416	; 0x6f00
    143c:	6e697270 	mcrvs	2, 3, r7, cr9, cr0, {3}
    1440:	32393167 	eorscc	r3, r9, #-1073741799	; 0xc0000019
    1444:	53432f30 	movtpl	r2, #16176	; 0x3f30
    1448:	4c303432 	cfldrsmi	mvf3, [r0], #-200	; 0xffffff38
    144c:	73632f58 	cmnvc	r3, #88, 30	; 0x160
    1450:	6c303432 	cfldrsvs	mvf3, [r0], #-200	; 0xffffff38
    1454:	30322d78 	eorscc	r2, r2, r8, ror sp
    1458:	2f727073 	svccs	0x00727073
    145c:	7062696c 	rsbvc	r6, r2, ip, ror #18
    1460:	6e692f69 	cdpvs	15, 6, cr2, cr9, cr9, {3}
    1464:	64756c63 	ldrbtvs	r6, [r5], #-3171	; 0xc63
    1468:	72000065 	andvc	r0, r0, #101	; 0x65
    146c:	6f6f6265 	svcvs	0x006f6265
    1470:	00632e74 	rsbeq	r2, r3, r4, ror lr
    1474:	72000001 	andvc	r0, r0, #1
    1478:	682e6970 	stmdavs	lr!, {r4, r5, r6, r8, fp, sp, lr}
    147c:	00000200 	andeq	r0, r0, r0, lsl #4
    1480:	02050000 	andeq	r0, r5, #0
    1484:	0000a0ac 	andeq	sl, r0, ip, lsr #1
    1488:	14010d03 	strne	r0, [r1], #-3331	; 0xd03
    148c:	15852f31 	strne	r2, [r5, #3889]	; 0xf31
    1490:	2f4d4b2f 	svccs	0x004d4b2f
    1494:	67523567 	ldrbvs	r3, [r2, -r7, ror #10]
    1498:	01001002 	tsteq	r0, r2
    149c:	00013001 	andeq	r3, r1, r1
    14a0:	10000200 	andne	r0, r0, r0, lsl #4
    14a4:	02000001 	andeq	r0, r0, #1
    14a8:	0d0efb01 	vstreq	d15, [lr, #-4]
    14ac:	01010100 	mrseq	r0, (UNDEF: 17)
    14b0:	00000001 	andeq	r0, r0, r1
    14b4:	01000001 	tsteq	r0, r1
    14b8:	66617473 			; <UNDEFINED> instruction: 0x66617473
    14bc:	72732d66 	rsbsvc	r2, r3, #6528	; 0x1980
    14c0:	552f0063 	strpl	r0, [pc, #-99]!	; 1465 <__code_start__-0x6b9b>
    14c4:	73726573 	cmnvc	r2, #482344960	; 0x1cc00000
    14c8:	6972622f 	ldmdbvs	r2!, {r0, r1, r2, r3, r5, r9, sp, lr}^
    14cc:	756a6e61 	strbvc	r6, [sl, #-3681]!	; 0xe61
    14d0:	65442f6e 	strbvs	r2, [r4, #-3950]	; 0xf6e
    14d4:	6f746b73 	svcvs	0x00746b73
    14d8:	63732f70 	cmnvs	r3, #112, 30	; 0x1c0
    14dc:	6c6f6f68 	stclvs	15, cr6, [pc], #-416	; 1344 <__code_start__-0x6cbc>
    14e0:	7270532f 	rsbsvc	r5, r0, #-1140850688	; 0xbc000000
    14e4:	31676e69 	cmncc	r7, r9, ror #28
    14e8:	2f303239 	svccs	0x00303239
    14ec:	34325343 	ldrtcc	r5, [r2], #-835	; 0x343
    14f0:	2f584c30 	svccs	0x00584c30
    14f4:	34327363 	ldrtcc	r7, [r2], #-867	; 0x363
    14f8:	2d786c30 	ldclcs	12, cr6, [r8, #-192]!	; 0xffffff40
    14fc:	70733032 	rsbsvc	r3, r3, r2, lsr r0
    1500:	696c2f72 	stmdbvs	ip!, {r1, r4, r5, r6, r8, r9, sl, fp, sp}^
    1504:	2f697062 	svccs	0x00697062
    1508:	6c636e69 	stclvs	14, cr6, [r3], #-420	; 0xfffffe5c
    150c:	00656475 	rsbeq	r6, r5, r5, ror r4
    1510:	7273752f 	rsbsvc	r7, r3, #197132288	; 0xbc00000
    1514:	636f6c2f 	cmnvs	pc, #12032	; 0x2f00
    1518:	432f6c61 	teqmi	pc, #24832	; 0x6100
    151c:	616c6c65 	cmnvs	ip, r5, ror #24
    1520:	72612f72 	rsbvc	r2, r1, #456	; 0x1c8
    1524:	6f6e2d6d 	svcvs	0x006e2d6d
    1528:	652d656e 	strvs	r6, [sp, #-1390]!	; 0x56e
    152c:	2f696261 	svccs	0x00696261
    1530:	2e382e34 	mrccs	14, 1, r2, cr8, cr4, {1}
    1534:	73632d33 	cmnvc	r3, #3264	; 0xcc0
    1538:	65303731 	ldrvs	r3, [r0, #-1841]!	; 0x731
    153c:	62696c2f 	rsbvs	r6, r9, #12032	; 0x2f00
    1540:	6363672f 	cmnvs	r3, #12320768	; 0xbc0000
    1544:	6d72612f 	ldfvse	f6, [r2, #-188]!	; 0xffffff44
    1548:	6e6f6e2d 	cdpvs	14, 6, cr6, cr15, cr13, {1}
    154c:	61652d65 	cmnvs	r5, r5, ror #26
    1550:	342f6962 	strtcc	r6, [pc], #-2402	; 1558 <__code_start__-0x6aa8>
    1554:	332e382e 	teqcc	lr, #3014656	; 0x2e0000
    1558:	636e692f 	cmnvs	lr, #770048	; 0xbc000
    155c:	6564756c 	strbvs	r7, [r4, #-1388]!	; 0x56c
    1560:	69740000 	ldmdbvs	r4!, {}^	; <UNPREDICTABLE>
    1564:	2d72656d 	cfldr64cs	mvdx6, [r2, #-436]!	; 0xfffffe4c
    1568:	65746e69 	ldrbvs	r6, [r4, #-3689]!	; 0xe69
    156c:	70757272 	rsbsvc	r7, r5, r2, ror r2
    1570:	00632e74 	rsbeq	r2, r3, r4, ror lr
    1574:	72000001 	andvc	r0, r0, #1
    1578:	612d6970 	teqvs	sp, r0, ror r9
    157c:	69746d72 	ldmdbvs	r4!, {r1, r4, r5, r6, r8, sl, fp, sp, lr}^
    1580:	2e72656d 	cdpcs	5, 7, cr6, cr2, cr13, {3}
    1584:	00020068 	andeq	r0, r2, r8, rrx
    1588:	64747300 	ldrbtvs	r7, [r4], #-768	; 0x300
    158c:	2d746e69 	ldclcs	14, cr6, [r4, #-420]!	; 0xfffffe5c
    1590:	2e636367 	cdpcs	3, 6, cr6, cr3, cr7, {3}
    1594:	00030068 	andeq	r0, r3, r8, rrx
    1598:	69707200 	ldmdbvs	r0!, {r9, ip, sp, lr}^
    159c:	746e692d 	strbtvc	r6, [lr], #-2349	; 0x92d
    15a0:	75727265 	ldrbvc	r7, [r2, #-613]!	; 0x265
    15a4:	2e737470 	mrccs	4, 3, r7, cr3, cr0, {3}
    15a8:	00020068 	andeq	r0, r2, r8, rrx
    15ac:	69707200 	ldmdbvs	r0!, {r9, ip, sp, lr}^
    15b0:	0200682e 	andeq	r6, r0, #3014656	; 0x2e0000
    15b4:	00000000 	andeq	r0, r0, r0
    15b8:	a1200205 	teqge	r0, r5, lsl #4
    15bc:	3e030000 	cdpcc	0, 0, cr0, cr3, cr0, {0}
    15c0:	4a0b0301 	bmi	2c21cc <__bss_end__+0x2b661c>
    15c4:	6646034b 	strbvs	r0, [r6], -fp, asr #6
    15c8:	6a6a324b 	bvs	1a8defc <__bss_end__+0x1a8234c>
    15cc:	01000e02 	tsteq	r0, r2, lsl #28
    15d0:	0000ac01 	andeq	sl, r0, r1, lsl #24
    15d4:	7f000200 	svcvc	0x00000200
    15d8:	02000000 	andeq	r0, r0, #0
    15dc:	0d0efb01 	vstreq	d15, [lr, #-4]
    15e0:	01010100 	mrseq	r0, (UNDEF: 17)
    15e4:	00000001 	andeq	r0, r0, r1
    15e8:	01000001 	tsteq	r0, r1
    15ec:	66617473 			; <UNDEFINED> instruction: 0x66617473
    15f0:	72732d66 	rsbsvc	r2, r3, #6528	; 0x1980
    15f4:	552f0063 	strpl	r0, [pc, #-99]!	; 1599 <__code_start__-0x6a67>
    15f8:	73726573 	cmnvc	r2, #482344960	; 0x1cc00000
    15fc:	6972622f 	ldmdbvs	r2!, {r0, r1, r2, r3, r5, r9, sp, lr}^
    1600:	756a6e61 	strbvc	r6, [sl, #-3681]!	; 0xe61
    1604:	65442f6e 	strbvs	r2, [r4, #-3950]	; 0xf6e
    1608:	6f746b73 	svcvs	0x00746b73
    160c:	63732f70 	cmnvs	r3, #112, 30	; 0x1c0
    1610:	6c6f6f68 	stclvs	15, cr6, [pc], #-416	; 1478 <__code_start__-0x6b88>
    1614:	7270532f 	rsbsvc	r5, r0, #-1140850688	; 0xbc000000
    1618:	31676e69 	cmncc	r7, r9, ror #28
    161c:	2f303239 	svccs	0x00303239
    1620:	34325343 	ldrtcc	r5, [r2], #-835	; 0x343
    1624:	2f584c30 	svccs	0x00584c30
    1628:	34327363 	ldrtcc	r7, [r2], #-867	; 0x363
    162c:	2d786c30 	ldclcs	12, cr6, [r8, #-192]!	; 0xffffff40
    1630:	70733032 	rsbsvc	r3, r3, r2, lsr r0
    1634:	696c2f72 	stmdbvs	ip!, {r1, r4, r5, r6, r8, r9, sl, fp, sp}^
    1638:	2f697062 	svccs	0x00697062
    163c:	6c636e69 	stclvs	14, cr6, [r3], #-420	; 0xfffffe5c
    1640:	00656475 	rsbeq	r6, r5, r5, ror r4
    1644:	6d697400 	cfstrdvs	mvd7, [r9, #-0]
    1648:	632e7265 	teqvs	lr, #1342177286	; 0x50000006
    164c:	00000100 	andeq	r0, r0, r0, lsl #2
    1650:	2e697072 	mcrcs	0, 3, r7, cr9, cr2, {3}
    1654:	00020068 	andeq	r0, r2, r8, rrx
    1658:	05000000 	streq	r0, [r0, #-0]
    165c:	00a17c02 	adceq	r7, r1, r2, lsl #24
    1660:	2f141600 	svccs	0x00141600
    1664:	0402002d 	streq	r0, [r2], #-45	; 0x2d
    1668:	062e0601 	strteq	r0, [lr], -r1, lsl #12
    166c:	4b2f316d 	blmi	bcdc28 <__bss_end__+0xbc2078>
    1670:	3031324d 	eorscc	r3, r1, sp, asr #4
    1674:	6a2f4c4b 	bvs	bd47a8 <__bss_end__+0xbc8bf8>
    1678:	2f842f2f 	svccs	0x00842f2f
    167c:	01000802 	tsteq	r0, r2, lsl #16
    1680:	00014801 	andeq	r4, r1, r1, lsl #16
    1684:	02000200 	andeq	r0, r0, #0, 4
    1688:	02000001 	andeq	r0, r0, #1
    168c:	0d0efb01 	vstreq	d15, [lr, #-4]
    1690:	01010100 	mrseq	r0, (UNDEF: 17)
    1694:	00000001 	andeq	r0, r0, r1
    1698:	01000001 	tsteq	r0, r1
    169c:	7273752f 	rsbsvc	r7, r3, #197132288	; 0xbc00000
    16a0:	636e692f 	cmnvs	lr, #770048	; 0xbc000
    16a4:	6564756c 	strbvs	r7, [r4, #-1388]!	; 0x56c
    16a8:	77656e2f 	strbvc	r6, [r5, -pc, lsr #28]!
    16ac:	2f62696c 	svccs	0x0062696c
    16b0:	00737973 	rsbseq	r7, r3, r3, ror r9
    16b4:	7273752f 	rsbsvc	r7, r3, #197132288	; 0xbc00000
    16b8:	62696c2f 	rsbvs	r6, r9, #12032	; 0x2f00
    16bc:	6363672f 	cmnvs	r3, #12320768	; 0xbc0000
    16c0:	6d72612f 	ldfvse	f6, [r2, #-188]!	; 0xffffff44
    16c4:	6e6f6e2d 	cdpvs	14, 6, cr6, cr15, cr13, {1}
    16c8:	61652d65 	cmnvs	r5, r5, ror #26
    16cc:	362f6962 	strtcc	r6, [pc], -r2, ror #18
    16d0:	312e332e 	teqcc	lr, lr, lsr #6
    16d4:	636e692f 	cmnvs	lr, #770048	; 0xbc000
    16d8:	6564756c 	strbvs	r7, [r4, #-1388]!	; 0x56c
    16dc:	6f682f00 	svcvs	0x00682f00
    16e0:	652f656d 	strvs	r6, [pc, #-1389]!	; 117b <__code_start__-0x6e85>
    16e4:	656c676e 	strbvs	r6, [ip, #-1902]!	; 0x76e
    16e8:	6c632f72 	stclvs	15, cr2, [r3], #-456	; 0xfffffe38
    16ec:	2f737361 	svccs	0x00737361
    16f0:	34327363 	ldrtcc	r7, [r2], #-867	; 0x363
    16f4:	2d786c30 	ldclcs	12, cr6, [r8, #-192]!	; 0xffffff40
    16f8:	70733032 	rsbsvc	r3, r3, r2, lsr r0
    16fc:	6c2f2f72 	stcvs	15, cr2, [pc], #-456	; 153c <__code_start__-0x6ac4>
    1700:	69706269 	ldmdbvs	r0!, {r0, r3, r5, r6, r9, sp, lr}^
    1704:	6f682f00 	svcvs	0x00682f00
    1708:	652f656d 	strvs	r6, [pc, #-1389]!	; 11a3 <__code_start__-0x6e5d>
    170c:	656c676e 	strbvs	r6, [ip, #-1902]!	; 0x76e
    1710:	6c632f72 	stclvs	15, cr2, [r3], #-456	; 0xfffffe38
    1714:	2f737361 	svccs	0x00737361
    1718:	34327363 	ldrtcc	r7, [r2], #-867	; 0x363
    171c:	2d786c30 	ldclcs	12, cr6, [r8, #-192]!	; 0xffffff40
    1720:	70733032 	rsbsvc	r3, r3, r2, lsr r0
    1724:	6c2f2f72 	stcvs	15, cr2, [pc], #-456	; 1564 <__code_start__-0x6a9c>
    1728:	69706269 	ldmdbvs	r0!, {r0, r3, r5, r6, r9, sp, lr}^
    172c:	6174732f 	cmnvs	r4, pc, lsr #6
    1730:	732d6666 	teqvc	sp, #106954752	; 0x6600000
    1734:	00006372 	andeq	r6, r0, r2, ror r3
    1738:	74726175 	ldrbtvc	r6, [r2], #-373	; 0x175
    173c:	0000632e 	andeq	r6, r0, lr, lsr #6
    1740:	6f6c0000 	svcvs	0x006c0000
    1744:	682e6b63 	stmdavs	lr!, {r0, r1, r5, r6, r8, r9, fp, sp, lr}
    1748:	00000100 	andeq	r0, r0, r0, lsl #2
    174c:	7079745f 	rsbsvc	r7, r9, pc, asr r4
    1750:	682e7365 	stmdavs	lr!, {r0, r2, r5, r6, r8, r9, ip, sp, lr}
    1754:	00000100 	andeq	r0, r0, r0, lsl #2
    1758:	64647473 	strbtvs	r7, [r4], #-1139	; 0x473
    175c:	682e6665 	stmdavs	lr!, {r0, r2, r5, r6, r9, sl, sp, lr}
    1760:	00000200 	andeq	r0, r0, r0, lsl #4
    1764:	6e656572 	mcrvs	5, 3, r6, cr5, cr2, {3}
    1768:	00682e74 	rsbeq	r2, r8, r4, ror lr
    176c:	72000001 	andvc	r0, r0, #1
    1770:	682e6970 	stmdavs	lr!, {r4, r5, r6, r8, fp, sp, lr}
    1774:	00000300 	andeq	r0, r0, r0, lsl #6
    1778:	74726175 	ldrbtvc	r6, [r2], #-373	; 0x175
    177c:	0400682e 	streq	r6, [r0], #-2094	; 0x82e
    1780:	70670000 	rsbvc	r0, r7, r0
    1784:	682e6f69 	stmdavs	lr!, {r0, r3, r5, r6, r8, r9, sl, fp, sp, lr}
    1788:	00000400 	andeq	r0, r0, r0, lsl #8
    178c:	02050000 	andeq	r0, r5, #0
    1790:	0000a268 	andeq	sl, r0, r8, ror #4
    1794:	67012c03 	strvs	r2, [r1, -r3, lsl #24]
    1798:	359e0c03 	ldrcc	r0, [lr, #3075]	; 0xc03
    179c:	68356867 	ldmdavs	r5!, {r0, r1, r2, r5, r6, fp, sp, lr}
    17a0:	852e0c03 	strhi	r0, [lr, #-3075]!	; 0xc03
    17a4:	0369696b 	cmneq	r9, #1753088	; 0x1ac000
    17a8:	676b660c 	strbvs	r6, [fp, -ip, lsl #12]!
    17ac:	68344208 	ldmdavs	r4!, {r3, r9, lr}
    17b0:	8768364b 	strbhi	r3, [r8, -fp, asr #12]!
    17b4:	0402002f 	streq	r0, [r2], #-47	; 0x2f
    17b8:	67682f01 	strbvs	r2, [r8, -r1, lsl #30]!
    17bc:	004b6730 	subeq	r6, fp, r0, lsr r7
    17c0:	2f010402 	svccs	0x00010402
    17c4:	2e696768 	cdpcs	7, 6, cr6, cr9, cr8, {3}
    17c8:	01000602 	tsteq	r0, r2, lsl #12
    17cc:	00012b01 	andeq	r2, r1, r1, lsl #22
    17d0:	f8000200 			; <UNDEFINED> instruction: 0xf8000200
    17d4:	02000000 	andeq	r0, r0, #0
    17d8:	0d0efb01 	vstreq	d15, [lr, #-4]
    17dc:	01010100 	mrseq	r0, (UNDEF: 17)
    17e0:	00000001 	andeq	r0, r0, r1
    17e4:	01000001 	tsteq	r0, r1
    17e8:	7273752f 	rsbsvc	r7, r3, #197132288	; 0xbc00000
    17ec:	636e692f 	cmnvs	lr, #770048	; 0xbc000
    17f0:	6564756c 	strbvs	r7, [r4, #-1388]!	; 0x56c
    17f4:	77656e2f 	strbvc	r6, [r5, -pc, lsr #28]!
    17f8:	2f62696c 	svccs	0x0062696c
    17fc:	00737973 	rsbseq	r7, r3, r3, ror r9
    1800:	7273752f 	rsbsvc	r7, r3, #197132288	; 0xbc00000
    1804:	62696c2f 	rsbvs	r6, r9, #12032	; 0x2f00
    1808:	6363672f 	cmnvs	r3, #12320768	; 0xbc0000
    180c:	6d72612f 	ldfvse	f6, [r2, #-188]!	; 0xffffff44
    1810:	6e6f6e2d 	cdpvs	14, 6, cr6, cr15, cr13, {1}
    1814:	61652d65 	cmnvs	r5, r5, ror #26
    1818:	362f6962 	strtcc	r6, [pc], -r2, ror #18
    181c:	312e332e 	teqcc	lr, lr, lsr #6
    1820:	636e692f 	cmnvs	lr, #770048	; 0xbc000
    1824:	6564756c 	strbvs	r7, [r4, #-1388]!	; 0x56c
    1828:	6f682f00 	svcvs	0x00682f00
    182c:	652f656d 	strvs	r6, [pc, #-1389]!	; 12c7 <__code_start__-0x6d39>
    1830:	656c676e 	strbvs	r6, [ip, #-1902]!	; 0x76e
    1834:	6c632f72 	stclvs	15, cr2, [r3], #-456	; 0xfffffe38
    1838:	2f737361 	svccs	0x00737361
    183c:	34327363 	ldrtcc	r7, [r2], #-867	; 0x363
    1840:	2d786c30 	ldclcs	12, cr6, [r8, #-192]!	; 0xffffff40
    1844:	70733032 	rsbsvc	r3, r3, r2, lsr r0
    1848:	6c2f2f72 	stcvs	15, cr2, [pc], #-456	; 1688 <__code_start__-0x6978>
    184c:	69706269 	ldmdbvs	r0!, {r0, r3, r5, r6, r9, sp, lr}^
    1850:	6f682f00 	svcvs	0x00682f00
    1854:	652f656d 	strvs	r6, [pc, #-1389]!	; 12ef <__code_start__-0x6d11>
    1858:	656c676e 	strbvs	r6, [ip, #-1902]!	; 0x76e
    185c:	6c632f72 	stclvs	15, cr2, [r3], #-456	; 0xfffffe38
    1860:	2f737361 	svccs	0x00737361
    1864:	34327363 	ldrtcc	r7, [r2], #-867	; 0x363
    1868:	2d786c30 	ldclcs	12, cr6, [r8, #-192]!	; 0xffffff40
    186c:	70733032 	rsbsvc	r3, r3, r2, lsr r0
    1870:	6c2f2f72 	stcvs	15, cr2, [pc], #-456	; 16b0 <__code_start__-0x6950>
    1874:	69706269 	ldmdbvs	r0!, {r0, r3, r5, r6, r9, sp, lr}^
    1878:	6174732f 	cmnvs	r4, pc, lsr #6
    187c:	732d6666 	teqvc	sp, #106954752	; 0x6600000
    1880:	00006372 	andeq	r6, r0, r2, ror r3
    1884:	6f697067 	svcvs	0x00697067
    1888:	0000632e 	andeq	r6, r0, lr, lsr #6
    188c:	6f6c0000 	svcvs	0x006c0000
    1890:	682e6b63 	stmdavs	lr!, {r0, r1, r5, r6, r8, r9, fp, sp, lr}
    1894:	00000100 	andeq	r0, r0, r0, lsl #2
    1898:	7079745f 	rsbsvc	r7, r9, pc, asr r4
    189c:	682e7365 	stmdavs	lr!, {r0, r2, r5, r6, r8, r9, ip, sp, lr}
    18a0:	00000100 	andeq	r0, r0, r0, lsl #2
    18a4:	64647473 	strbtvs	r7, [r4], #-1139	; 0x473
    18a8:	682e6665 	stmdavs	lr!, {r0, r2, r5, r6, r9, sl, sp, lr}
    18ac:	00000200 	andeq	r0, r0, r0, lsl #4
    18b0:	6e656572 	mcrvs	5, 3, r6, cr5, cr2, {3}
    18b4:	00682e74 	rsbeq	r2, r8, r4, ror lr
    18b8:	72000001 	andvc	r0, r0, #1
    18bc:	682e6970 	stmdavs	lr!, {r4, r5, r6, r8, fp, sp, lr}
    18c0:	00000300 	andeq	r0, r0, r0, lsl #6
    18c4:	6f697067 	svcvs	0x00697067
    18c8:	0400682e 	streq	r6, [r0], #-2094	; 0x82e
    18cc:	00000000 	andeq	r0, r0, r0
    18d0:	a3e00205 	mvnge	r0, #1342177280	; 0x50000000
    18d4:	27030000 	strcs	r0, [r3, -r0]
    18d8:	474c1301 	strbmi	r1, [ip, -r1, lsl #6]
    18dc:	4b68f44f 	blmi	1a3ea20 <__bss_end__+0x1a32e70>
    18e0:	6a2fa14c 	bvs	be9e18 <__bss_end__+0xbde268>
    18e4:	be314913 	mrclt	9, 1, r4, cr1, cr3, {0}
    18e8:	be314913 	mrclt	9, 1, r4, cr1, cr3, {0}
    18ec:	4d2f6a2f 	vstmdbmi	pc!, {s12-s58}
    18f0:	49134f48 	ldmdbmi	r3, {r3, r6, r8, r9, sl, fp, lr}
    18f4:	02b72f32 	adcseq	r2, r7, #50, 30	; 0xc8
    18f8:	01010006 	tsteq	r1, r6
    18fc:	00000134 	andeq	r0, r0, r4, lsr r1
    1900:	00df0002 	sbcseq	r0, pc, r2
    1904:	01020000 	mrseq	r0, (UNDEF: 2)
    1908:	000d0efb 	strdeq	r0, [sp], -fp
    190c:	01010101 	tsteq	r1, r1, lsl #2
    1910:	01000000 	mrseq	r0, (UNDEF: 0)
    1914:	2f010000 	svccs	0x00010000
    1918:	2f727375 	svccs	0x00727375
    191c:	6c636e69 	stclvs	14, cr6, [r3], #-420	; 0xfffffe5c
    1920:	2f656475 	svccs	0x00656475
    1924:	6c77656e 	cfldr64vs	mvdx6, [r7], #-440	; 0xfffffe48
    1928:	732f6269 	teqvc	pc, #-1879048186	; 0x90000006
    192c:	2f007379 	svccs	0x00007379
    1930:	2f727375 	svccs	0x00727375
    1934:	2f62696c 	svccs	0x0062696c
    1938:	2f636367 	svccs	0x00636367
    193c:	2d6d7261 	sfmcs	f7, 2, [sp, #-388]!	; 0xfffffe7c
    1940:	656e6f6e 	strbvs	r6, [lr, #-3950]!	; 0xf6e
    1944:	6261652d 	rsbvs	r6, r1, #188743680	; 0xb400000
    1948:	2e362f69 	cdpcs	15, 3, cr2, cr6, cr9, {3}
    194c:	2f312e33 	svccs	0x00312e33
    1950:	6c636e69 	stclvs	14, cr6, [r3], #-420	; 0xfffffe5c
    1954:	00656475 	rsbeq	r6, r5, r5, ror r4
    1958:	6d6f682f 	stclvs	8, cr6, [pc, #-188]!	; 18a4 <__code_start__-0x675c>
    195c:	6e652f65 	cdpvs	15, 6, cr2, cr5, cr5, {3}
    1960:	72656c67 	rsbvc	r6, r5, #26368	; 0x6700
    1964:	616c632f 	cmnvs	ip, pc, lsr #6
    1968:	632f7373 	teqvs	pc, #-872415231	; 0xcc000001
    196c:	30343273 	eorscc	r3, r4, r3, ror r2
    1970:	322d786c 	eorcc	r7, sp, #108, 16	; 0x6c0000
    1974:	72707330 	rsbsvc	r7, r0, #48, 6	; 0xc0000000
    1978:	696c2f2f 	stmdbvs	ip!, {r0, r1, r2, r3, r5, r8, r9, sl, fp, sp}^
    197c:	00697062 	rsbeq	r7, r9, r2, rrx
    1980:	7273752f 	rsbsvc	r7, r3, #197132288	; 0xbc00000
    1984:	636e692f 	cmnvs	lr, #770048	; 0xbc000
    1988:	6564756c 	strbvs	r7, [r4, #-1388]!	; 0x56c
    198c:	77656e2f 	strbvc	r6, [r5, -pc, lsr #28]!
    1990:	0062696c 	rsbeq	r6, r2, ip, ror #18
    1994:	616d6b00 	cmnvs	sp, r0, lsl #22
    1998:	636f6c6c 	cmnvs	pc, #108, 24	; 0x6c00
    199c:	0000632e 	andeq	r6, r0, lr, lsr #6
    19a0:	6f6c0000 	svcvs	0x006c0000
    19a4:	682e6b63 	stmdavs	lr!, {r0, r1, r5, r6, r8, r9, fp, sp, lr}
    19a8:	00000100 	andeq	r0, r0, r0, lsl #2
    19ac:	7079745f 	rsbsvc	r7, r9, pc, asr r4
    19b0:	682e7365 	stmdavs	lr!, {r0, r2, r5, r6, r8, r9, ip, sp, lr}
    19b4:	00000100 	andeq	r0, r0, r0, lsl #2
    19b8:	64647473 	strbtvs	r7, [r4], #-1139	; 0x473
    19bc:	682e6665 	stmdavs	lr!, {r0, r2, r5, r6, r9, sl, sp, lr}
    19c0:	00000200 	andeq	r0, r0, r0, lsl #4
    19c4:	6e656572 	mcrvs	5, 3, r6, cr5, cr2, {3}
    19c8:	00682e74 	rsbeq	r2, r8, r4, ror lr
    19cc:	72000001 	andvc	r0, r0, #1
    19d0:	682e6970 	stmdavs	lr!, {r4, r5, r6, r8, fp, sp, lr}
    19d4:	00000300 	andeq	r0, r0, r0, lsl #6
    19d8:	69727473 	ldmdbvs	r2!, {r0, r1, r4, r5, r6, sl, ip, sp, lr}^
    19dc:	682e676e 	stmdavs	lr!, {r1, r2, r3, r5, r6, r8, r9, sl, sp, lr}
    19e0:	00000400 	andeq	r0, r0, r0, lsl #8
    19e4:	02050000 	andeq	r0, r5, #0
    19e8:	0000a500 	andeq	sl, r0, r0, lsl #10
    19ec:	01011003 	tsteq	r1, r3
    19f0:	14680183 	strbtne	r0, [r8], #-387	; 0x183
    19f4:	04020083 	streq	r0, [r2], #-131	; 0x83
    19f8:	02007f01 	andeq	r7, r0, #1, 30
    19fc:	08300104 	ldmdaeq	r0!, {r2, r8}
    1a00:	4c4b2f5c 	mcrrmi	15, 5, r2, fp, cr12
    1a04:	00684b4b 	rsbeq	r4, r8, fp, asr #22
    1a08:	03010402 	movweq	r0, #5122	; 0x1402
    1a0c:	09034a79 	stmdbeq	r3, {r0, r3, r4, r5, r6, r9, fp, lr}
    1a10:	012f5808 	teqeq	pc, r8, lsl #16
    1a14:	6a2f4e2e 	bvs	bd52d4 <__bss_end__+0xbc9724>
    1a18:	4c67674b 	stclmi	7, cr6, [r7], #-300	; 0xfffffed4
    1a1c:	0402002f 	streq	r0, [r2], #-47	; 0x2f
    1a20:	2e760301 	cdpcs	3, 7, cr0, cr6, cr1, {0}
    1a24:	01040200 	mrseq	r0, R12_usr
    1a28:	2f7a08dc 	svccs	0x007a08dc
    1a2c:	02019f01 	andeq	r9, r1, #1, 30
    1a30:	01010008 	tsteq	r1, r8
    1a34:	000000ac 	andeq	r0, r0, ip, lsr #1
    1a38:	00980002 	addseq	r0, r8, r2
    1a3c:	01020000 	mrseq	r0, (UNDEF: 2)
    1a40:	000d0efb 	strdeq	r0, [sp], -fp
    1a44:	01010101 	tsteq	r1, r1, lsl #2
    1a48:	01000000 	mrseq	r0, (UNDEF: 0)
    1a4c:	73010000 	movwvc	r0, #4096	; 0x1000
    1a50:	66666174 			; <UNDEFINED> instruction: 0x66666174
    1a54:	6372732d 	cmnvs	r2, #-1275068416	; 0xb4000000
    1a58:	73552f00 	cmpvc	r5, #0, 30
    1a5c:	2f737265 	svccs	0x00737265
    1a60:	61697262 	cmnvs	r9, r2, ror #4
    1a64:	6e756a6e 	vsubvs.f32	s13, s10, s29
    1a68:	7365442f 	cmnvc	r5, #788529152	; 0x2f000000
    1a6c:	706f746b 	rsbvc	r7, pc, fp, ror #8
    1a70:	6863732f 	stmdavs	r3!, {r0, r1, r2, r3, r5, r8, r9, ip, sp, lr}^
    1a74:	2f6c6f6f 	svccs	0x006c6f6f
    1a78:	69727053 	ldmdbvs	r2!, {r0, r1, r4, r6, ip, sp, lr}^
    1a7c:	3931676e 	ldmdbcc	r1!, {r1, r2, r3, r5, r6, r8, r9, sl, sp, lr}
    1a80:	432f3032 	teqmi	pc, #50	; 0x32
    1a84:	30343253 	eorscc	r3, r4, r3, asr r2
    1a88:	632f584c 	teqvs	pc, #76, 16	; 0x4c0000
    1a8c:	30343273 	eorscc	r3, r4, r3, ror r2
    1a90:	322d786c 	eorcc	r7, sp, #108, 16	; 0x6c0000
    1a94:	72707330 	rsbsvc	r7, r0, #48, 6	; 0xc0000000
    1a98:	62696c2f 	rsbvs	r6, r9, #12032	; 0x2f00
    1a9c:	692f6970 	stmdbvs	pc!, {r4, r5, r6, r8, fp, sp, lr}	; <UNPREDICTABLE>
    1aa0:	756c636e 	strbvc	r6, [ip, #-878]!	; 0x36e
    1aa4:	00006564 	andeq	r6, r0, r4, ror #10
    1aa8:	61666564 	cmnvs	r6, r4, ror #10
    1aac:	2d746c75 	ldclcs	12, cr6, [r4, #-468]!	; 0xfffffe2c
    1ab0:	646e6168 	strbtvs	r6, [lr], #-360	; 0x168
    1ab4:	2d72656c 	cfldr64cs	mvdx6, [r2, #-432]!	; 0xfffffe50
    1ab8:	65646e75 	strbvs	r6, [r4, #-3701]!	; 0xe75
    1abc:	656e6966 	strbvs	r6, [lr, #-2406]!	; 0x966
    1ac0:	6e692d64 	cdpvs	13, 6, cr2, cr9, cr4, {3}
    1ac4:	632e7473 	teqvs	lr, #1929379840	; 0x73000000
    1ac8:	00000100 	andeq	r0, r0, r0, lsl #2
    1acc:	2e697072 	mcrcs	0, 3, r7, cr9, cr2, {3}
    1ad0:	00020068 	andeq	r0, r2, r8, rrx
    1ad4:	05000000 	streq	r0, [r0, #-0]
    1ad8:	00a69402 	adceq	r9, r6, r2, lsl #8
    1adc:	02661300 	rsbeq	r1, r6, #0, 6
    1ae0:	0101001c 	tsteq	r1, ip, lsl r0

Disassembly of section .debug_str:

00000000 <.debug_str>:
       0:	6d5f6b63 	vldrvs	d22, [pc, #-396]	; fffffe7c <__bss_end__+0xffff42cc>
       4:	735f6d65 	cmpvc	pc, #6464	; 0x1940
       8:	73746174 	cmnvc	r4, #116, 2
       c:	616b6300 	cmnvs	fp, r0, lsl #6
      10:	636f6c6c 	cmnvs	pc, #108, 24	; 0x6c00
      14:	5f6b6300 	svcpl	0x006b6300
      18:	5f6d656d 	svcpl	0x006d656d
      1c:	0066666f 	rsbeq	r6, r6, pc, ror #12
      20:	726f6873 	rsbvc	r6, pc, #7536640	; 0x730000
      24:	6e752074 	mrcvs	0, 3, r2, cr5, cr4, {3}
      28:	6e676973 	mcrvs	9, 3, r6, cr7, cr3, {3}
      2c:	69206465 	stmdbvs	r0!, {r0, r2, r5, r6, sl, sp, lr}
      30:	7400746e 	strvc	r7, [r0], #-1134	; 0x46e
      34:	5f747365 	svcpl	0x00747365
      38:	6c6c756e 	cfstr64vs	mvdx7, [ip], #-440	; 0xfffffe48
      3c:	63656863 	cmnvs	r5, #6488064	; 0x630000
      40:	6f6e006b 	svcvs	0x006e006b
      44:	69616d74 	stmdbvs	r1!, {r2, r4, r5, r6, r8, sl, fp, sp, lr}^
      48:	6b63006e 	blvs	18c0208 <__bss_end__+0x18b4658>
      4c:	6165685f 	cmnvs	r5, pc, asr r8
      50:	72655f70 	rsbvc	r5, r5, #112, 30	; 0x1c0
      54:	73726f72 	cmnvc	r2, #456	; 0x1c8
      58:	736e7500 	cmnvc	lr, #0, 10
      5c:	656e6769 	strbvs	r6, [lr, #-1897]!	; 0x769
      60:	68632064 	stmdavs	r3!, {r2, r5, r6, sp}^
      64:	74007261 	strvc	r7, [r0], #-609	; 0x261
      68:	5f747365 	svcpl	0x00747365
      6c:	63656863 	cmnvs	r5, #6488064	; 0x630000
      70:	6c63006b 	stclvs	0, cr0, [r3], #-428	; 0xfffffe54
      74:	5f6e6165 	svcpl	0x006e6165
      78:	6f626572 	svcvs	0x00626572
      7c:	6400746f 	strvs	r7, [r0], #-1135	; 0x46f
      80:	796d6d75 	stmdbvc	sp!, {r0, r2, r4, r5, r6, r8, sl, fp, sp, lr}^
      84:	5f6b6300 	svcpl	0x006b6300
      88:	5f6d656d 	svcpl	0x006d656d
      8c:	74696e69 	strbtvc	r6, [r9], #-3689	; 0xe69
      90:	616d6b00 	cmnvs	sp, r0, lsl #22
      94:	636f6c6c 	cmnvs	pc, #108, 24	; 0x6c00
      98:	6e697500 	cdpvs	5, 6, cr7, cr9, cr0, {0}
      9c:	5f323374 	svcpl	0x00323374
      a0:	65640074 	strbvs	r0, [r4, #-116]!	; 0x74
      a4:	5f79616c 	svcpl	0x0079616c
      a8:	6300736d 	movwvs	r7, #877	; 0x36d
      ac:	656d5f6b 	strbvs	r5, [sp, #-3947]!	; 0xf6b
      b0:	65735f6d 	ldrbvs	r5, [r3, #-3949]!	; 0xf6d
      b4:	61725f74 	cmnvs	r2, r4, ror pc
      b8:	0065676e 	rsbeq	r6, r5, lr, ror #14
      bc:	55465f5f 	strbpl	r5, [r6, #-3935]	; 0xf5f
      c0:	4954434e 	ldmdbmi	r4, {r1, r2, r3, r6, r8, r9, lr}^
      c4:	5f5f4e4f 	svcpl	0x005f4e4f
      c8:	5f6b6300 	svcpl	0x006b6300
      cc:	74696e69 	strbtvc	r6, [r9], #-3689	; 0xe69
      d0:	554e4700 	strbpl	r4, [lr, #-1792]	; 0x700
      d4:	34204320 	strtcc	r4, [r0], #-800	; 0x320
      d8:	332e382e 	teqcc	lr, #3014656	; 0x2e0000
      dc:	636d2d20 	cmnvs	sp, #32, 26	; 0x800
      e0:	613d7570 	teqvs	sp, r0, ror r5
      e4:	31316d72 	teqcc	r1, r2, ror sp
      e8:	7a6a3637 	bvc	1a8d9cc <__bss_end__+0x1a81e1c>
      ec:	20732d66 	rsbscs	r2, r3, r6, ror #26
      f0:	75746d2d 	ldrbvc	r6, [r4, #-3373]!	; 0xd2d
      f4:	613d656e 	teqvs	sp, lr, ror #10
      f8:	31316d72 	teqcc	r1, r2, ror sp
      fc:	7a6a3637 	bvc	1a8d9e0 <__bss_end__+0x1a81e30>
     100:	20732d66 	rsbscs	r2, r3, r6, ror #26
     104:	6467672d 	strbtvs	r6, [r7], #-1837	; 0x72d
     108:	4f2d2062 	svcmi	0x002d2062
     10c:	732d2067 	teqvc	sp, #103	; 0x67
     110:	673d6474 			; <UNDEFINED> instruction: 0x673d6474
     114:	3939756e 	ldmdbcc	r9!, {r1, r2, r3, r5, r6, r8, sl, ip, sp, lr}
     118:	66662d20 	strbtvs	r2, [r6], -r0, lsr #26
     11c:	73656572 	cmnvc	r5, #478150656	; 0x1c800000
     120:	646e6174 	strbtvs	r6, [lr], #-372	; 0x174
     124:	20676e69 	rsbcs	r6, r7, r9, ror #28
     128:	6f6e662d 	svcvs	0x006e662d
     12c:	706f742d 	rsbvc	r7, pc, sp, lsr #8
     130:	6576656c 	ldrbvs	r6, [r6, #-1388]!	; 0x56c
     134:	65722d6c 	ldrbvs	r2, [r2, #-3436]!	; 0xd6c
     138:	6564726f 	strbvs	r7, [r4, #-623]!	; 0x26f
     13c:	6f6c0072 	svcvs	0x006c0072
     140:	6c20676e 	stcvs	7, cr6, [r0], #-440	; 0xfffffe48
     144:	20676e6f 	rsbcs	r6, r7, pc, ror #28
     148:	69736e75 	ldmdbvs	r3!, {r0, r2, r4, r5, r6, r9, sl, fp, sp, lr}^
     14c:	64656e67 	strbtvs	r6, [r5], #-3687	; 0xe67
     150:	746e6920 	strbtvc	r6, [lr], #-2336	; 0x920
     154:	7a697300 	bvc	1a5cd5c <__bss_end__+0x1a511ac>
     158:	70797465 	rsbsvc	r7, r9, r5, ror #8
     15c:	65740065 	ldrbvs	r0, [r4, #-101]!	; 0x65
     160:	6e5f7473 	mrcvs	4, 2, r7, cr15, cr3, {3}
     164:	636c6c75 	cmnvs	ip, #29952	; 0x7500
     168:	6b636568 	blvs	18d9710 <__bss_end__+0x18cdb60>
     16c:	646e655f 	strbtvs	r6, [lr], #-1375	; 0x55f
     170:	6e6f6c00 	cdpvs	12, 6, cr6, cr15, cr0, {0}
     174:	6f6c2067 	svcvs	0x006c2067
     178:	6920676e 	stmdbvs	r0!, {r1, r2, r3, r5, r6, r8, r9, sl, sp, lr}
     17c:	7400746e 	strvc	r7, [r0], #-1134	; 0x46e
     180:	5f747365 	svcpl	0x00747365
     184:	63656863 	cmnvs	r5, #6488064	; 0x630000
     188:	6e655f6b 	cdpvs	15, 6, cr5, cr5, cr11, {3}
     18c:	6b630064 	blvs	18c0324 <__bss_end__+0x18b4774>
     190:	65657266 	strbvs	r7, [r5, #-614]!	; 0x266
     194:	6f687300 	svcvs	0x00687300
     198:	69207472 	stmdbvs	r0!, {r1, r4, r5, r6, sl, ip, sp, lr}
     19c:	2f00746e 	svccs	0x0000746e
     1a0:	72657355 	rsbvc	r7, r5, #1409286145	; 0x54000001
     1a4:	72622f73 	rsbvc	r2, r2, #460	; 0x1cc
     1a8:	6a6e6169 	bvs	1b98754 <__bss_end__+0x1b8cba4>
     1ac:	442f6e75 	strtmi	r6, [pc], #-3701	; 1b4 <__code_start__-0x7e4c>
     1b0:	746b7365 	strbtvc	r7, [fp], #-869	; 0x365
     1b4:	732f706f 	teqvc	pc, #111	; 0x6f
     1b8:	6f6f6863 	svcvs	0x006f6863
     1bc:	70532f6c 	subsvc	r2, r3, ip, ror #30
     1c0:	676e6972 			; <UNDEFINED> instruction: 0x676e6972
     1c4:	30323931 	eorscc	r3, r2, r1, lsr r9
     1c8:	3253432f 	subscc	r4, r3, #-1140850688	; 0xbc000000
     1cc:	584c3034 	stmdapl	ip, {r2, r4, r5, ip, sp}^
     1d0:	3273632f 	rsbscc	r6, r3, #-1140850688	; 0xbc000000
     1d4:	786c3034 	stmdavc	ip!, {r2, r4, r5, ip, sp}^
     1d8:	7330322d 	teqvc	r0, #-805306366	; 0xd0000002
     1dc:	6c2f7270 	sfmvs	f7, 4, [pc], #-448	; 24 <__code_start__-0x7fdc>
     1e0:	2f736261 	svccs	0x00736261
     1e4:	692d3231 	pushvs	{r0, r4, r5, r9, ip, sp}
     1e8:	7265746e 	rsbvc	r7, r5, #1845493760	; 0x6e000000
     1ec:	74707572 	ldrbtvc	r7, [r0], #-1394	; 0x572
     1f0:	7361622d 	cmnvc	r1, #-805306366	; 0xd0000002
     1f4:	632d6465 	teqvs	sp, #1694498816	; 0x65000000
     1f8:	6b636568 	blvs	18d97a0 <__bss_end__+0x18cdbf0>
     1fc:	6f632f73 	svcvs	0x00632f73
     200:	6b006564 	blvs	19798 <__bss_end__+0xdbe8>
     204:	6c6c616d 	stfvse	f6, [ip], #-436	; 0xfffffe4c
     208:	695f636f 	ldmdbvs	pc, {r0, r1, r2, r3, r5, r6, r8, r9, sp, lr}^	; <UNPREDICTABLE>
     20c:	5f74696e 	svcpl	0x0074696e
     210:	5f746573 	svcpl	0x00746573
     214:	72617473 	rsbvc	r7, r1, #1929379840	; 0x73000000
     218:	6b630074 	blvs	18c03f0 <__bss_end__+0x18b4840>
     21c:	6d656d5f 	stclvs	13, cr6, [r5, #-380]!	; 0xfffffe84
     220:	006e6f5f 	rsbeq	r6, lr, pc, asr pc
     224:	5f697072 	svcpl	0x00697072
     228:	65736572 	ldrbvs	r6, [r3, #-1394]!	; 0x572
     22c:	75705f74 	ldrbvc	r5, [r0, #-3956]!	; 0xf74
     230:	74006374 	strvc	r6, [r0], #-884	; 0x374
     234:	73747365 	cmnvc	r4, #-1811939327	; 0x94000001
     238:	7261702f 	rsbvc	r7, r1, #47	; 0x2f
     23c:	742d3374 	strtvc	r3, [sp], #-884	; 0x374
     240:	31747365 	cmncc	r4, r5, ror #6
     244:	7300632e 	movwvc	r6, #814	; 0x32e
     248:	5f657a69 	svcpl	0x00657a69
     24c:	626e0074 	rsbvs	r0, lr, #116	; 0x74
     250:	73657479 	cmnvc	r5, #2030043136	; 0x79000000
     254:	6572665f 	ldrbvs	r6, [r2, #-1631]!	; 0x65f
     258:	63006465 	movwvs	r6, #1125	; 0x465
     25c:	69665f6b 	stmdbvs	r6!, {r0, r1, r3, r5, r6, r8, r9, sl, fp, ip, lr}^
     260:	5f747372 	svcpl	0x00747372
     264:	00726468 	rsbseq	r6, r2, r8, ror #8
     268:	76657270 			; <UNDEFINED> instruction: 0x76657270
     26c:	646c6f00 	strbtvs	r6, [ip], #-3840	; 0xf00
     270:	72616d5f 	rsbvc	r6, r1, #6080	; 0x17c0
     274:	5f68006b 	svcpl	0x0068006b
     278:	72646461 	rsbvc	r6, r4, #1627389952	; 0x61000000
     27c:	73616600 	cmnvc	r1, #0, 12
     280:	61685f74 	smcvs	34292	; 0x85f4
     284:	63006873 	movwvs	r6, #2163	; 0x873
     288:	6c6c616b 	stfvse	f6, [ip], #-428	; 0xfffffe54
     28c:	655f636f 	ldrbvs	r6, [pc, #-879]	; ffffff25 <__bss_end__+0xffff4375>
     290:	6200646e 	andvs	r6, r0, #1845493760	; 0x6e000000
     294:	317a725f 	cmncc	sl, pc, asr r2
     298:	7274705f 	rsbsvc	r7, r4, #95	; 0x5f
     29c:	45524600 	ldrbmi	r4, [r2, #-1536]	; 0x600
     2a0:	41004445 	tstmi	r0, r5, asr #8
     2a4:	434f4c4c 	movtmi	r4, #64588	; 0xfc4c
     2a8:	62004445 	andvs	r4, r0, #1157627904	; 0x45000000
     2ac:	6464615f 	strbtvs	r6, [r4], #-351	; 0x15f
     2b0:	6f745f72 	svcvs	0x00745f72
     2b4:	7264685f 	rsbvc	r6, r4, #6225920	; 0x5f0000
     2b8:	5f796d00 	svcpl	0x00796d00
     2bc:	6f666e69 	svcvs	0x00666e69
     2c0:	6e697500 	cdpvs	5, 6, cr7, cr9, cr0, {0}
     2c4:	5f363174 	svcpl	0x00363174
     2c8:	564f0074 			; <UNDEFINED> instruction: 0x564f0074
     2cc:	45485245 	strbmi	r5, [r8, #-581]	; 0x245
     2d0:	4e5f4441 	cdpmi	4, 5, cr4, cr15, cr1, {2}
     2d4:	45545942 	ldrbmi	r5, [r4, #-2370]	; 0x942
     2d8:	4c410053 	mcrrmi	0, 5, r0, r1, cr3
     2dc:	5f434f4c 	svcpl	0x00434f4c
     2e0:	5346464f 	movtpl	r4, #26191	; 0x664f
     2e4:	63005445 	movwvs	r5, #1093	; 0x445
     2e8:	5f727275 	svcpl	0x00727275
     2ec:	00726468 	rsbseq	r6, r2, r8, ror #8
     2f0:	5f766564 	svcpl	0x00766564
     2f4:	72726162 	rsbsvc	r6, r2, #-2147483624	; 0x80000018
     2f8:	00726569 	rsbseq	r6, r2, r9, ror #10
     2fc:	6f745f62 	svcvs	0x00745f62
     300:	5f6c6174 	svcpl	0x006c6174
     304:	65747962 	ldrbvs	r7, [r4, #-2402]!	; 0x962
     308:	68630073 	stmdavs	r3!, {r0, r1, r4, r5, r6}^
     30c:	5f6b6365 	svcpl	0x006b6365
     310:	00727470 	rsbseq	r7, r2, r0, ror r4
     314:	6c616b63 	stclvs	11, cr6, [r1], #-396	; 0xfffffe74
     318:	2e636f6c 	cdpcs	15, 6, cr6, cr3, cr12, {3}
     31c:	6b630063 	blvs	18c04b0 <__bss_end__+0x18b4900>
     320:	78656e5f 	stmdavc	r5!, {r0, r1, r2, r3, r4, r6, r9, sl, fp, sp, lr}^
     324:	64685f74 	strbtvs	r5, [r8], #-3956	; 0xf74
     328:	6c610072 	stclvs	0, cr0, [r1], #-456	; 0xfffffe38
     32c:	5f636f6c 	svcpl	0x00636f6c
     330:	00636f6c 	rsbeq	r6, r3, ip, ror #30
     334:	5f726468 	svcpl	0x00726468
     338:	75736b63 	ldrbvc	r6, [r3, #-2915]!	; 0xb63
     33c:	4552006d 	ldrbmi	r0, [r2, #-109]	; 0x6d
     340:	4e4f5a44 	vmlsmi.f32	s11, s30, s8
     344:	6c6f0045 	stclvs	0, cr0, [pc], #-276	; 238 <__code_start__-0x7dc8>
     348:	6b635f64 	blvs	18d80e0 <__bss_end__+0x18cc530>
     34c:	006d7573 	rsbeq	r7, sp, r3, ror r5
     350:	7479626e 	ldrbtvc	r6, [r9], #-622	; 0x26e
     354:	615f7365 	cmpvs	pc, r5, ror #6
     358:	636f6c6c 	cmnvs	pc, #108, 24	; 0x6c00
     35c:	65726600 	ldrbvs	r6, [r2, #-1536]!	; 0x600
     360:	6f6c5f65 	svcvs	0x006c5f65
     364:	5f620063 	svcpl	0x00620063
     368:	6f6c6c61 	svcvs	0x006c6c61
     36c:	74705f63 	ldrbtvc	r5, [r0], #-3939	; 0xf63
     370:	65760072 	ldrbvs	r0, [r6, #-114]!	; 0x72
     374:	736f6272 	cmnvc	pc, #536870919	; 0x20000007
     378:	6c665f65 	stclvs	15, cr5, [r6], #-404	; 0xfffffe6c
     37c:	68006761 	stmdavs	r0, {r0, r5, r6, r8, r9, sl, sp, lr}
     380:	5f706165 	svcpl	0x00706165
     384:	6f666e69 	svcvs	0x00666e69
     388:	63727300 	cmnvs	r2, #0, 6
     38c:	636f6c5f 	cmnvs	pc, #24320	; 0x5f00
     390:	6300745f 	movwvs	r7, #1119	; 0x45f
     394:	6c6c616b 	stfvse	f6, [ip], #-428	; 0xfffffe54
     398:	735f636f 	cmpvc	pc, #-1140850687	; 0xbc000001
     39c:	74726174 	ldrbtvc	r6, [r2], #-372	; 0x174
     3a0:	65686300 	strbvs	r6, [r8, #-768]!	; 0x300
     3a4:	685f6b63 	ldmdavs	pc, {r0, r1, r5, r6, r8, r9, fp, sp, lr}^	; <UNPREDICTABLE>
     3a8:	62007264 	andvs	r7, r0, #100, 4	; 0x40000006
     3ac:	327a725f 	rsbscc	r7, sl, #-268435451	; 0xf0000005
     3b0:	7274705f 	rsbsvc	r7, r4, #95	; 0x5f
     3b4:	72656e00 	rsbvc	r6, r5, #0, 28
     3b8:	73726f72 	cmnvc	r2, #456	; 0x1c8
     3bc:	6c626e00 	stclvs	14, cr6, [r2], #-0
     3c0:	5300736b 	movwpl	r7, #875	; 0x36b
     3c4:	49544e45 	ldmdbmi	r4, {r0, r2, r6, r9, sl, fp, lr}^
     3c8:	004c414e 	subeq	r4, ip, lr, asr #2
     3cc:	6b72616d 	blvs	1c98988 <__bss_end__+0x1c8cdd8>
     3d0:	6d656d5f 	stclvs	13, cr6, [r5, #-380]!	; 0xfffffe84
     3d4:	646c6f00 	strbtvs	r6, [ip], #-3840	; 0xf00
     3d8:	6665725f 			; <UNDEFINED> instruction: 0x6665725f
     3dc:	696d5f73 	stmdbvs	sp!, {r0, r1, r4, r5, r6, r8, r9, sl, fp, ip, lr}^
     3e0:	656c6464 	strbvs	r6, [ip, #-1124]!	; 0x464
     3e4:	79626e00 	stmdbvc	r2!, {r9, sl, fp, sp, lr}^
     3e8:	5f736574 	svcpl	0x00736574
     3ec:	6f6c6c61 	svcvs	0x006c6c61
     3f0:	00646563 	rsbeq	r6, r4, r3, ror #10
     3f4:	63656863 	cmnvs	r5, #6488064	; 0x630000
     3f8:	6c625f6b 	stclvs	15, cr5, [r2], #-428	; 0xfffffe54
     3fc:	006b636f 	rsbeq	r6, fp, pc, ror #6
     400:	656e696c 	strbvs	r6, [lr, #-2412]!	; 0x96c
     404:	6d006f6e 	stcvs	15, cr6, [r0, #-440]	; 0xfffffe48
     408:	65736d65 	ldrbvs	r6, [r3, #-3429]!	; 0xd65
     40c:	5f620074 	svcpl	0x00620074
     410:	5f327a72 	svcpl	0x00327a72
     414:	7479626e 	ldrbtvc	r6, [r9], #-622	; 0x26e
     418:	68007365 	stmdavs	r0, {r0, r2, r5, r6, r8, r9, ip, sp, lr}
     41c:	635f7264 	cmpvs	pc, #100, 4	; 0x40000006
     420:	6d75736b 	ldclvs	3, cr7, [r5, #-428]!	; 0xfffffe54
     424:	6c61765f 	stclvs	6, cr7, [r1], #-380	; 0xfffffe84
     428:	6e697500 	cdpvs	5, 6, cr7, cr9, cr0, {0}
     42c:	745f3874 	ldrbvc	r3, [pc], #-2164	; 434 <__code_start__-0x7bcc>
     430:	72646800 	rsbvc	r6, r4, #0, 16
     434:	6f00745f 	svcvs	0x0000745f
     438:	725f646c 	subsvc	r6, pc, #108, 8	; 0x6c000000
     43c:	5f736665 	svcpl	0x00736665
     440:	72617473 	rsbvc	r7, r1, #1929379840	; 0x73000000
     444:	626e0074 	rsbvs	r0, lr, #116	; 0x74
     448:	73657479 	cmnvc	r5, #2030043136	; 0x79000000
     44c:	6d65725f 	sfmvs	f7, 2, [r5, #-380]!	; 0xfffffe84
     450:	66656c00 	strbtvs	r6, [r5], -r0, lsl #24
     454:	68630074 	stmdavs	r3!, {r2, r4, r5, r6}^
     458:	5f6b6365 	svcpl	0x006b6365
     45c:	006d656d 	rsbeq	r6, sp, sp, ror #10
     460:	64616568 	strbtvs	r6, [r1], #-1384	; 0x568
     464:	73007265 	movwvc	r7, #613	; 0x265
     468:	6b636174 	blvs	18d8a40 <__bss_end__+0x18cce90>
     46c:	706f745f 	rsbvc	r7, pc, pc, asr r4	; <UNPREDICTABLE>
     470:	72617700 	rsbvc	r7, r1, #0, 14
     474:	6f6e5f6e 	svcvs	0x006e5f6e
     478:	6174735f 	cmnvs	r4, pc, asr r3
     47c:	725f7472 	subsvc	r7, pc, #1912602624	; 0x72000000
     480:	705f6665 	subsvc	r6, pc, r5, ror #12
     484:	706d6900 	rsbvc	r6, sp, r0, lsl #18
     488:	656d656c 	strbvs	r6, [sp, #-1388]!	; 0x56c
     48c:	745f746e 	ldrbvc	r7, [pc], #-1134	; 494 <__code_start__-0x7b6c>
     490:	00736968 	rsbseq	r6, r3, r8, ror #18
     494:	63656863 	cmnvs	r5, #6488064	; 0x630000
     498:	6f6e5f6b 	svcvs	0x006e5f6b
     49c:	61656c5f 	cmnvs	r5, pc, asr ip
     4a0:	6c6e006b 	stclvs	0, cr0, [lr], #-428	; 0xfffffe54
     4a4:	736b6165 	cmnvc	fp, #1073741849	; 0x40000019
     4a8:	65777300 	ldrbvs	r7, [r7, #-768]!	; 0x300
     4ac:	665f7065 	ldrbvs	r7, [pc], -r5, rrx
     4b0:	00656572 	rsbeq	r6, r5, r2, ror r5
     4b4:	6279616d 	rsbsvs	r6, r9, #1073741851	; 0x4000001b
     4b8:	72655f65 	rsbvc	r5, r5, #404	; 0x194
     4bc:	73726f72 	cmnvc	r2, #456	; 0x1c8
     4c0:	5f6b6300 	svcpl	0x006b6300
     4c4:	5f006367 	svcpl	0x00006367
     4c8:	7461645f 	strbtvc	r6, [r1], #-1119	; 0x45f
     4cc:	6e655f61 	cdpvs	15, 6, cr5, cr5, cr1, {3}
     4d0:	005f5f64 	subseq	r5, pc, r4, ror #30
     4d4:	665f6b63 	ldrbvs	r6, [pc], -r3, ror #22
     4d8:	5f646e69 	svcpl	0x00646e69
     4dc:	6b61656c 	blvs	1859a94 <__bss_end__+0x184dee4>
     4e0:	5f5f0073 	svcpl	0x005f0073
     4e4:	5f737362 	svcpl	0x00737362
     4e8:	72617473 	rsbvc	r7, r1, #1929379840	; 0x73000000
     4ec:	005f5f74 	subseq	r5, pc, r4, ror pc	; <UNPREDICTABLE>
     4f0:	73625f5f 	cmnvc	r2, #380	; 0x17c
     4f4:	6e655f73 	mcrvs	15, 3, r5, cr5, cr3, {3}
     4f8:	005f5f64 	subseq	r5, pc, r4, ror #30
     4fc:	65657773 	strbvs	r7, [r5, #-1907]!	; 0x773
     500:	656c5f70 	strbvs	r5, [ip, #-3952]!	; 0xf70
     504:	69006b61 	stmdbvs	r0, {r0, r5, r6, r8, r9, fp, sp, lr}
     508:	65685f6e 	strbvs	r5, [r8, #-3950]!	; 0xf6e
     50c:	63007061 	movwvs	r7, #97	; 0x61
     510:	00727275 	rsbseq	r7, r2, r5, ror r2
     514:	63656863 	cmnvs	r5, #6488064	; 0x630000
     518:	68735f6b 	ldmdavs	r3!, {r0, r1, r3, r5, r6, r8, r9, sl, fp, ip, lr}^
     51c:	646c756f 	strbtvs	r7, [ip], #-1391	; 0x56f
     520:	61656c5f 	cmnvs	r5, pc, asr ip
     524:	5f5f006b 	svcpl	0x005f006b
     528:	61746164 	cmnvs	r4, r4, ror #2
     52c:	6174735f 	cmnvs	r4, pc, asr r3
     530:	5f5f7472 	svcpl	0x005f7472
     534:	6d756400 	cfldrdvs	mvd6, [r5, #-0]
     538:	65725f70 	ldrbvs	r5, [r2, #-3952]!	; 0xf70
     53c:	6e007367 	cdpvs	3, 0, cr7, cr0, cr7, {3}
     540:	65657266 	strbvs	r7, [r5, #-614]!	; 0x266
     544:	6b630064 	blvs	18c06dc <__bss_end__+0x18b4b2c>
     548:	2e63672d 	cdpcs	7, 6, cr6, cr3, cr13, {1}
     54c:	616d0063 	cmnvs	sp, r3, rrx
     550:	615f6b72 	cmpvs	pc, r2, ror fp	; <UNPREDICTABLE>
     554:	69006c6c 	stmdbvs	r0, {r2, r3, r5, r6, sl, fp, sp, lr}
     558:	74705f73 	ldrbtvc	r5, [r0], #-3955	; 0xf73
     55c:	626e0072 	rsbvs	r0, lr, #114	; 0x72
     560:	6b636f6c 	blvs	18dc318 <__bss_end__+0x18d0768>
     564:	65670073 	strbvs	r0, [r7, #-115]!	; 0x73
     568:	6172656e 	cmnvs	r2, lr, ror #10
     56c:	745f6574 	ldrbvc	r6, [pc], #-1396	; 574 <__code_start__-0x7a8c>
     570:	706d6172 	rsbvc	r6, sp, r2, ror r1
     574:	6e696c6f 	cdpvs	12, 6, cr6, cr9, cr15, {3}
     578:	6f635f65 	svcvs	0x00635f65
     57c:	61006564 	tstvs	r0, r4, ror #10
     580:	65726464 	ldrbvs	r6, [r2, #-1124]!	; 0x464
     584:	695f7373 	ldmdbvs	pc, {r0, r1, r4, r5, r6, r8, r9, ip, sp, lr}^	; <UNPREDICTABLE>
     588:	7865646e 	stmdavc	r5!, {r1, r2, r3, r5, r6, sl, sp, lr}^
     58c:	6d726100 	ldfvse	f6, [r2, #-0]
     590:	6d69745f 	cfstrdvs	mvd7, [r9, #-380]!	; 0xfffffe84
     594:	525f7265 	subspl	r7, pc, #1342177286	; 0x50000006
     598:	52495741 	subpl	r5, r9, #17039360	; 0x1040000
     59c:	65700051 	ldrbvs	r0, [r0, #-81]!	; 0x51
     5a0:	646f6972 	strbtvs	r6, [pc], #-2418	; 5a8 <__code_start__-0x7a58>
     5a4:	77657200 	strbvc	r7, [r5, -r0, lsl #4]!
     5a8:	74746972 	ldrbtvc	r6, [r4], #-2418	; 0x972
     5ac:	615f6e65 	cmpvs	pc, r5, ror #28
     5b0:	65726464 	ldrbvs	r6, [r2, #-1124]!	; 0x464
     5b4:	73657373 	cmnvc	r5, #-872415231	; 0xcc000001
     5b8:	73694400 	cmnvc	r9, #0, 8
     5bc:	656c6261 	strbvs	r6, [ip, #-609]!	; 0x261
     5c0:	5152495f 	cmppl	r2, pc, asr r9
     5c4:	00315f73 	eorseq	r5, r1, r3, ror pc
     5c8:	61736944 	cmnvs	r3, r4, asr #18
     5cc:	5f656c62 	svcpl	0x00656c62
     5d0:	73515249 	cmpvc	r1, #-1879048188	; 0x90000004
     5d4:	6900325f 	stmdbvs	r0, {r0, r1, r2, r3, r4, r6, r9, ip, sp}
     5d8:	61725f6e 	cmnvs	r2, lr, ror #30
     5dc:	0065676e 	rsbeq	r6, r5, lr, ror #14
     5e0:	5f6d7261 	svcpl	0x006d7261
     5e4:	73004c41 	movwvc	r4, #3137	; 0xc41
     5e8:	65747379 	ldrbvs	r7, [r4, #-889]!	; 0x379
     5ec:	6e655f6d 	cdpvs	15, 6, cr5, cr5, cr13, {3}
     5f0:	656c6261 	strbvs	r6, [ip, #-609]!	; 0x261
     5f4:	746e695f 	strbtvc	r6, [lr], #-2399	; 0x95f
     5f8:	75727265 	ldrbvc	r7, [r2, #-613]!	; 0x265
     5fc:	00737470 	rsbseq	r7, r3, r0, ror r4
     600:	656d6974 	strbvs	r6, [sp, #-2420]!	; 0x974
     604:	6e695f72 	mcrvs	15, 3, r5, cr9, cr2, {3}
     608:	72726574 	rsbsvc	r6, r2, #116, 10	; 0x1d000000
     60c:	5f747075 	svcpl	0x00747075
     610:	74696e69 	strbtvc	r6, [r9], #-3689	; 0xe69
     614:	696e6900 	stmdbvs	lr!, {r8, fp, sp, lr}^
     618:	00705f74 	rsbseq	r5, r0, r4, ror pc
     61c:	69726570 	ldmdbvs	r2!, {r4, r5, r6, r8, sl, sp, lr}^
     620:	735f646f 	cmpvc	pc, #1862270976	; 0x6f000000
     624:	61006d75 	tstvs	r0, r5, ror sp
     628:	745f6d72 	ldrbvc	r6, [pc], #-3442	; 630 <__code_start__-0x79d0>
     62c:	72656d69 	rsbvc	r6, r5, #6720	; 0x1a40
     630:	6e6f435f 	mcrvs	3, 3, r4, cr15, cr15, {2}
     634:	6c6f7274 	sfmvs	f7, 2, [pc], #-464	; 46c <__code_start__-0x7b94>
     638:	736e6900 	cmnvc	lr, #0, 18
     63c:	72610074 	rsbvc	r0, r1, #116	; 0x74
     640:	69745f6d 	ldmdbvs	r4!, {r0, r2, r3, r5, r6, r8, r9, sl, fp, ip, lr}^
     644:	5f72656d 	svcpl	0x0072656d
     648:	64616f4c 	strbtvs	r6, [r1], #-3916	; 0xf4c
     64c:	6d726100 	ldfvse	f6, [r2, #-0]
     650:	6d69745f 	cfstrdvs	mvd7, [r9, #-380]!	; 0xfffffe84
     654:	425f7265 	subsmi	r7, pc, #1342177286	; 0x50000006
     658:	00657361 	rsbeq	r7, r5, r1, ror #6
     65c:	5f515249 	svcpl	0x00515249
     660:	65736142 	ldrbvs	r6, [r3, #-322]!	; 0x142
     664:	51494600 	cmppl	r9, r0, lsl #12
     668:	6e6f635f 	mcrvs	3, 3, r6, cr15, cr15, {2}
     66c:	6c6f7274 	sfmvs	f7, 2, [pc], #-464	; 4a4 <__code_start__-0x7b5c>
     670:	6d726100 	ldfvse	f6, [r2, #-0]
     674:	6d69745f 	cfstrdvs	mvd7, [r9, #-380]!	; 0xfffffe84
     678:	4d5f7265 	lfmmi	f7, 2, [pc, #-404]	; 4ec <__code_start__-0x7b14>
     67c:	656b7361 	strbvs	r7, [fp, #-865]!	; 0x361
     680:	51524964 	cmppl	r2, r4, ror #18
     684:	696b7300 	stmdbvs	fp!, {r8, r9, ip, sp, lr}^
     688:	64657070 	strbtvs	r7, [r5], #-112	; 0x70
     68c:	51524900 	cmppl	r2, r0, lsl #18
     690:	6e65705f 	mcrvs	0, 3, r7, cr5, cr15, {2}
     694:	676e6964 	strbvs	r6, [lr, -r4, ror #18]!
     698:	4900315f 	stmdbmi	r0, {r0, r1, r2, r3, r4, r6, r8, ip, sp}
     69c:	705f5152 	subsvc	r5, pc, r2, asr r1	; <UNPREDICTABLE>
     6a0:	69646e65 	stmdbvs	r4!, {r0, r2, r5, r6, r9, sl, fp, sp, lr}^
     6a4:	325f676e 	subscc	r6, pc, #28835840	; 0x1b80000
     6a8:	73694400 	cmnvc	r9, #0, 8
     6ac:	656c6261 	strbvs	r6, [ip, #-609]!	; 0x261
     6b0:	7361425f 	cmnvc	r1, #-268435451	; 0xf0000005
     6b4:	495f6369 	ldmdbmi	pc, {r0, r3, r5, r6, r8, r9, sp, lr}^	; <UNPREDICTABLE>
     6b8:	00735152 	rsbseq	r5, r3, r2, asr r1
     6bc:	326d6d69 	rsbcc	r6, sp, #6720	; 0x1a40
     6c0:	6e450034 	mcrvs	0, 2, r0, cr5, cr4, {1}
     6c4:	656c6261 	strbvs	r6, [ip, #-609]!	; 0x261
     6c8:	5152495f 	cmppl	r2, pc, asr r9
     6cc:	00315f73 	eorseq	r5, r1, r3, ror pc
     6d0:	62616e45 	rsbvs	r6, r1, #1104	; 0x450
     6d4:	495f656c 	ldmdbmi	pc, {r2, r3, r5, r6, r8, sl, sp, lr}^	; <UNPREDICTABLE>
     6d8:	5f735152 	svcpl	0x00735152
     6dc:	6b630032 	blvs	18c07ac <__bss_end__+0x18b4bfc>
     6e0:	6d656d2d 	stclvs	13, cr6, [r5, #-180]!	; 0xffffff4c
     6e4:	63656863 	cmnvs	r5, #6488064	; 0x630000
     6e8:	00632e6b 	rsbeq	r2, r3, fp, ror #28
     6ec:	5f6d7261 	svcpl	0x006d7261
     6f0:	65003362 	strvs	r3, [r0, #-866]	; 0x362
     6f4:	646f636e 	strbtvs	r6, [pc], #-878	; 6fc <__code_start__-0x7904>
     6f8:	00676e69 	rsbeq	r6, r7, r9, ror #28
     6fc:	72617473 	rsbvc	r7, r1, #1929379840	; 0x73000000
     700:	68635f74 	stmdavs	r3!, {r2, r4, r5, r6, r8, r9, sl, fp, ip, lr}^
     704:	006b6365 	rsbeq	r6, fp, r5, ror #6
     708:	67726174 			; <UNDEFINED> instruction: 0x67726174
     70c:	655f7465 	ldrbvs	r7, [pc, #-1125]	; 2af <__code_start__-0x7d51>
     710:	646f636e 	strbtvs	r6, [pc], #-878	; 718 <__code_start__-0x78e8>
     714:	73676e69 	cmnvc	r7, #1680	; 0x690
     718:	6d726100 	ldfvse	f6, [r2, #-0]
     71c:	6d69745f 	cfstrdvs	mvd7, [r9, #-380]!	; 0xfffffe84
     720:	525f7265 	subspl	r7, pc, #1342177286	; 0x50000006
     724:	616f6c65 	cmnvs	pc, r5, ror #24
     728:	45470064 	strbmi	r0, [r7, #-100]	; 0x64
     72c:	00323354 	eorseq	r3, r2, r4, asr r3
     730:	5f746e69 	svcpl	0x00746e69
     734:	74696e69 	strbtvc	r6, [r9], #-3689	; 0xe69
     738:	73656400 	cmnvc	r5, #0, 8
     73c:	72610074 	rsbvc	r0, r1, #116	; 0x74
     740:	6c625f6d 	stclvs	15, cr5, [r2], #-436	; 0xfffffe4c
     744:	635f5f00 	cmpvs	pc, #0, 30
     748:	5f65646f 	svcpl	0x0065646f
     74c:	5f646e65 	svcpl	0x00646e65
     750:	6e65005f 	mcrvs	0, 3, r0, cr5, cr15, {2}
     754:	68635f64 	stmdavs	r3!, {r2, r5, r6, r8, r9, sl, fp, ip, lr}^
     758:	006b6365 	rsbeq	r6, fp, r5, ror #6
     75c:	65646f63 	strbvs	r6, [r4, #-3939]!	; 0xf63
     760:	7272615f 	rsbsvc	r6, r2, #-1073741801	; 0xc0000017
     764:	65007961 	strvs	r7, [r0, #-2401]	; 0x961
     768:	6e5f646e 	cdpvs	4, 5, cr6, cr15, cr14, {3}
     76c:	6568636f 	strbvs	r6, [r8, #-879]!	; 0x36f
     770:	63006b63 	movwvs	r6, #2915	; 0xb63
     774:	7261656c 	rsbvc	r6, r1, #108, 10	; 0x1b000000
     778:	6174735f 	cmnvs	r4, pc, asr r3
     77c:	705f7374 	subsvc	r7, pc, r4, ror r3	; <UNPREDICTABLE>
     780:	61747300 	cmnvs	r4, r0, lsl #6
     784:	6e5f7472 	mrcvs	4, 2, r7, cr15, cr2, {3}
     788:	6568636f 	strbvs	r6, [r8, #-879]!	; 0x36f
     78c:	63006b63 	movwvs	r6, #2915	; 0xb63
     790:	6b636568 	blvs	18d9d38 <__bss_end__+0x18ce188>
     794:	5f66695f 	svcpl	0x0066695f
     798:	72776572 	rsbsvc	r6, r7, #478150656	; 0x1c800000
     79c:	65747469 	ldrbvs	r7, [r4, #-1129]!	; 0x469
     7a0:	7261006e 	rsbvc	r0, r1, #110	; 0x6e
     7a4:	69745f6d 	ldmdbvs	r4!, {r0, r2, r3, r5, r6, r8, r9, sl, fp, ip, lr}^
     7a8:	5f72656d 	svcpl	0x0072656d
     7ac:	44657250 	strbtmi	r7, [r5], #-592	; 0x250
     7b0:	64697669 	strbtvs	r7, [r9], #-1641	; 0x669
     7b4:	49007265 	stmdbmi	r0, {r0, r2, r5, r6, r9, ip, sp, lr}
     7b8:	625f5152 	subsvs	r5, pc, #-2147483628	; 0x80000014
     7bc:	63697361 	cmnvs	r9, #-2080374783	; 0x84000001
     7c0:	6e65705f 	mcrvs	0, 3, r7, cr5, cr15, {2}
     7c4:	676e6964 	strbvs	r6, [lr, -r4, ror #18]!
     7c8:	616e4500 	cmnvs	lr, r0, lsl #10
     7cc:	5f656c62 	svcpl	0x00656c62
     7d0:	69736142 	ldmdbvs	r3!, {r1, r6, r8, sp, lr}^
     7d4:	52495f63 	subpl	r5, r9, #396	; 0x18c
     7d8:	74007351 	strvc	r7, [r0], #-849	; 0x351
     7dc:	706d6172 	rsbvc	r6, sp, r2, ror r1
     7e0:	6e696c6f 	cdpvs	12, 6, cr6, cr9, cr15, {3}
     7e4:	656d5f65 	strbvs	r5, [sp, #-3941]!	; 0xf65
     7e8:	6e695f6d 	cdpvs	15, 6, cr5, cr9, cr13, {3}
     7ec:	72726574 	rsbsvc	r6, r2, #116, 10	; 0x1d000000
     7f0:	00747075 	rsbseq	r7, r4, r5, ror r0
     7f4:	5f6d7261 	svcpl	0x006d7261
     7f8:	656d6974 	strbvs	r6, [sp, #-2420]!	; 0x974
     7fc:	61565f72 	cmpvs	r6, r2, ror pc
     800:	0065756c 	rsbeq	r7, r5, ip, ror #10
     804:	5f6d7261 	svcpl	0x006d7261
     808:	656d6974 	strbvs	r6, [sp, #-2420]!	; 0x974
     80c:	52495f72 	subpl	r5, r9, #456	; 0x1c8
     810:	656c4351 	strbvs	r4, [ip, #-849]!	; 0x351
     814:	5f007261 	svcpl	0x00007261
     818:	646f635f 	strbtvs	r6, [pc], #-863	; 820 <__code_start__-0x77e0>
     81c:	74735f65 	ldrbtvc	r5, [r3], #-3941	; 0xf65
     820:	5f747261 	svcpl	0x00747261
     824:	6974005f 	ldmdbvs	r4!, {r0, r1, r2, r3, r4, r6}^
     828:	5f72656d 	svcpl	0x0072656d
     82c:	5f746567 	svcpl	0x00746567
     830:	63657375 	cmnvs	r5, #-738197503	; 0xd4000001
     834:	5f6b6300 	svcpl	0x006b6300
     838:	5f6d656d 	svcpl	0x006d656d
     83c:	63656863 	cmnvs	r5, #6488064	; 0x630000
     840:	5f64656b 	svcpl	0x0064656b
     844:	6c006370 	stcvs	3, cr6, [r0], {112}	; 0x70
     848:	5f747361 	svcpl	0x00747361
     84c:	006b6c63 	rsbeq	r6, fp, r3, ror #24
     850:	63656863 	cmnvs	r5, #6488064	; 0x630000
     854:	0064656b 	rsbeq	r6, r4, fp, ror #10
     858:	6f636e65 	svcvs	0x00636e65
     85c:	745f6564 	ldrbvc	r6, [pc], #-1380	; 864 <__code_start__-0x779c>
     860:	65677261 	strbvs	r7, [r7, #-609]!	; 0x261
     864:	6e695f74 	mcrvs	15, 3, r5, cr9, cr4, {3}
     868:	75727473 	ldrbvc	r7, [r2, #-1139]!	; 0x473
     86c:	6f697463 	svcvs	0x00697463
     870:	6300736e 	movwvs	r7, #878	; 0x36e
     874:	656d5f6b 	strbvs	r5, [sp, #-3947]!	; 0xf6b
     878:	6e695f6d 	cdpvs	15, 6, cr5, cr9, cr13, {3}
     87c:	72726574 	rsbsvc	r6, r2, #116, 10	; 0x1d000000
     880:	00747075 	rsbseq	r7, r4, r5, ror r0
     884:	74737973 	ldrbtvc	r7, [r3], #-2419	; 0x973
     888:	645f6d65 	ldrbvs	r6, [pc], #-3429	; 890 <__code_start__-0x7770>
     88c:	62617369 	rsbvs	r7, r1, #-1543503871	; 0xa4000001
     890:	695f656c 	ldmdbvs	pc, {r2, r3, r5, r6, r8, sl, sp, lr}^	; <UNPREDICTABLE>
     894:	7265746e 	rsbvc	r7, r5, #1845493760	; 0x6e000000
     898:	74707572 	ldrbtvc	r7, [r0], #-1394	; 0x572
     89c:	55500073 	ldrbpl	r0, [r0, #-115]	; 0x73
     8a0:	00323354 	eorseq	r3, r2, r4, asr r3
     8a4:	63656863 	cmnvs	r5, #6488064	; 0x630000
     8a8:	6e6f5f6b 	cdpvs	15, 6, cr5, cr15, cr11, {3}
     8ac:	6d726100 	ldfvse	f6, [r2, #-0]
     8b0:	6d69745f 	cfstrdvs	mvd7, [r9, #-380]!	; 0xfffffe84
     8b4:	465f7265 	ldrbmi	r7, [pc], -r5, ror #4
     8b8:	52656572 	rsbpl	r6, r5, #478150656	; 0x1c800000
     8bc:	696e6e75 	stmdbvs	lr!, {r0, r2, r4, r5, r6, r9, sl, fp, sp, lr}^
     8c0:	6f43676e 	svcvs	0x0043676e
     8c4:	65746e75 	ldrbvs	r6, [r4, #-3701]!	; 0xe75
     8c8:	696c0072 	stmdbvs	ip!, {r1, r4, r5, r6}^
     8cc:	682f6362 	stmdavs	pc!, {r1, r5, r6, r8, r9, sp, lr}	; <UNPREDICTABLE>
     8d0:	2e687361 	cdpcs	3, 6, cr7, cr8, cr1, {3}
     8d4:	4e470063 	cdpmi	0, 4, cr0, cr7, cr3, {3}
     8d8:	20432055 	subcs	r2, r3, r5, asr r0
     8dc:	2e382e34 	mrccs	14, 1, r2, cr8, cr4, {1}
     8e0:	6d2d2033 	stcvs	0, cr2, [sp, #-204]!	; 0xffffff34
     8e4:	3d757063 	ldclcc	0, cr7, [r5, #-396]!	; 0xfffffe74
     8e8:	316d7261 	cmncc	sp, r1, ror #4
     8ec:	6a363731 	bvs	d8e5b8 <__bss_end__+0xd82a08>
     8f0:	732d667a 	teqvc	sp, #127926272	; 0x7a00000
     8f4:	746d2d20 	strbtvc	r2, [sp], #-3360	; 0xd20
     8f8:	3d656e75 	stclcc	14, cr6, [r5, #-468]!	; 0xfffffe2c
     8fc:	316d7261 	cmncc	sp, r1, ror #4
     900:	6a363731 	bvs	d8e5cc <__bss_end__+0xd82a1c>
     904:	732d667a 	teqvc	sp, #127926272	; 0x7a00000
     908:	67672d20 	strbvs	r2, [r7, -r0, lsr #26]!
     90c:	2d206264 	sfmcs	f6, 4, [r0, #-400]!	; 0xfffffe70
     910:	2d20674f 	stccs	7, cr6, [r0, #-316]!	; 0xfffffec4
     914:	3d647473 	cfstrdcc	mvd7, [r4, #-460]!	; 0xfffffe34
     918:	39756e67 	ldmdbcc	r5!, {r0, r1, r2, r5, r6, r9, sl, fp, sp, lr}^
     91c:	662d2039 			; <UNDEFINED> instruction: 0x662d2039
     920:	65657266 	strbvs	r7, [r5, #-614]!	; 0x266
     924:	6e617473 	mcrvs	4, 3, r7, cr1, cr3, {3}
     928:	676e6964 	strbvs	r6, [lr, -r4, ror #18]!
     92c:	73552f00 	cmpvc	r5, #0, 30
     930:	2f737265 	svccs	0x00737265
     934:	61697262 	cmnvs	r9, r2, ror #4
     938:	6e756a6e 	vsubvs.f32	s13, s10, s29
     93c:	7365442f 	cmnvc	r5, #788529152	; 0x2f000000
     940:	706f746b 	rsbvc	r7, pc, fp, ror #8
     944:	6863732f 	stmdavs	r3!, {r0, r1, r2, r3, r5, r8, r9, ip, sp, lr}^
     948:	2f6c6f6f 	svccs	0x006c6f6f
     94c:	69727053 	ldmdbvs	r2!, {r0, r1, r4, r6, ip, sp, lr}^
     950:	3931676e 	ldmdbcc	r1!, {r1, r2, r3, r5, r6, r8, r9, sl, sp, lr}
     954:	432f3032 	teqmi	pc, #50	; 0x32
     958:	30343253 	eorscc	r3, r4, r3, asr r2
     95c:	632f584c 	teqvs	pc, #76, 16	; 0x4c0000
     960:	30343273 	eorscc	r3, r4, r3, ror r2
     964:	322d786c 	eorcc	r7, sp, #108, 16	; 0x6c0000
     968:	72707330 	rsbsvc	r7, r0, #48, 6	; 0xc0000000
     96c:	62696c2f 	rsbvs	r6, r9, #12032	; 0x2f00
     970:	6c006970 	stcvs	9, cr6, [r0], {112}	; 0x70
     974:	2f636269 	svccs	0x00636269
     978:	736d656d 	cmnvc	sp, #457179136	; 0x1b400000
     97c:	632e7465 	teqvs	lr, #1694498816	; 0x65000000
     980:	675f5f00 	ldrbvs	r5, [pc, -r0, lsl #30]
     984:	5f63756e 	svcpl	0x0063756e
     988:	6c5f6176 	ldfvse	f6, [pc], {118}	; 0x76
     98c:	00747369 	rsbseq	r7, r4, r9, ror #6
     990:	6362696c 	cmnvs	r2, #108, 18	; 0x1b0000
     994:	6972702f 	ldmdbvs	r2!, {r0, r1, r2, r3, r5, ip, sp, lr}^
     998:	2e6b746e 	cdpcs	4, 6, cr7, cr11, cr14, {3}
     99c:	61760063 	cmnvs	r6, r3, rrx
     9a0:	6972705f 	ldmdbvs	r2!, {r0, r1, r2, r3, r4, r6, ip, sp, lr}^
     9a4:	006b746e 	rsbeq	r7, fp, lr, ror #8
     9a8:	61765f5f 	cmnvs	r6, pc, asr pc
     9ac:	73696c5f 	cmnvc	r9, #24320	; 0x5f00
     9b0:	5f5f0074 	svcpl	0x005f0074
     9b4:	75007061 	strvc	r7, [r0, #-97]	; 0x61
     9b8:	5f747261 	svcpl	0x00747261
     9bc:	63747570 	cmnvs	r4, #112, 10	; 0x1c000000
     9c0:	746e6900 	strbtvc	r6, [lr], #-2304	; 0x900
     9c4:	616e7265 	cmnvs	lr, r5, ror #4
     9c8:	75705f6c 	ldrbvc	r5, [r0, #-3948]!	; 0xf6c
     9cc:	61686374 	smcvs	34356	; 0x8634
     9d0:	70720072 	rsbsvc	r0, r2, r2, ror r0
     9d4:	75705f69 	ldrbvc	r5, [r0, #-3945]!	; 0xf69
     9d8:	61686374 	smcvs	34356	; 0x8634
     9dc:	696c0072 	stmdbvs	ip!, {r1, r4, r5, r6}^
     9e0:	702f6362 	eorvc	r6, pc, r2, ror #6
     9e4:	68637475 	stmdavs	r3!, {r0, r2, r4, r5, r6, sl, ip, sp, lr}^
     9e8:	632e7261 	teqvs	lr, #268435462	; 0x10000006
     9ec:	69707200 	ldmdbvs	r0!, {r9, ip, sp, lr}^
     9f0:	7465735f 	strbtvc	r7, [r5], #-863	; 0x35f
     9f4:	7475705f 	ldrbtvc	r7, [r5], #-95	; 0x5f
     9f8:	696c0063 	stmdbvs	ip!, {r0, r1, r5, r6}^
     9fc:	702f6362 	eorvc	r6, pc, r2, ror #6
     a00:	2e6b7475 	mcrcs	4, 3, r7, cr11, cr5, {3}
     a04:	6e690063 	cdpvs	0, 6, cr0, cr9, cr3, {3}
     a08:	6e726574 	mrcvs	5, 3, r6, cr2, cr4, {3}
     a0c:	705f6c61 	subsvc	r6, pc, r1, ror #24
     a10:	006b7475 	rsbeq	r7, fp, r5, ror r4
     a14:	5f67656e 	svcpl	0x0067656e
     a18:	65720070 	ldrbvs	r0, [r2, #-112]!	; 0x70
     a1c:	73726576 	cmnvc	r2, #494927872	; 0x1d800000
     a20:	73690065 	cmnvc	r9, #101	; 0x65
     a24:	69676964 	stmdbvs	r7!, {r2, r5, r6, r8, fp, sp, lr}^
     a28:	75700074 	ldrbvc	r0, [r0, #-116]!	; 0x74
     a2c:	665f7374 			; <UNDEFINED> instruction: 0x665f7374
     a30:	69730070 	ldmdbvs	r3!, {r4, r5, r6}^
     a34:	64656e67 	strbtvs	r6, [r5], #-3687	; 0xe67
     a38:	6c00705f 	stcvs	0, cr7, [r0], {95}	; 0x5f
     a3c:	2f636269 	svccs	0x00636269
     a40:	702d6176 	eorvc	r6, sp, r6, ror r1
     a44:	746e6972 	strbtvc	r6, [lr], #-2418	; 0x972
     a48:	00632e6b 	rsbeq	r2, r3, fp, ror #28
     a4c:	5f697072 	svcpl	0x00697072
     a50:	5f746573 	svcpl	0x00746573
     a54:	7074756f 	rsbsvc	r7, r4, pc, ror #10
     a58:	77007475 	smlsdxvc	r0, r5, r4, r7
     a5c:	68746469 	ldmdavs	r4!, {r0, r3, r5, r6, sl, sp, lr}^
     a60:	74757000 	ldrbtvc	r7, [r5], #-0
     a64:	70665f63 	rsbvc	r5, r6, r3, ror #30
     a68:	696d6500 	stmdbvs	sp!, {r8, sl, sp, lr}^
     a6c:	74730074 	ldrbtvc	r0, [r3], #-116	; 0x74
     a70:	2d666661 	stclcs	6, cr6, [r6, #-388]!	; 0xfffffe7c
     a74:	2f637273 	svccs	0x00637273
     a78:	61656c63 	cmnvs	r5, r3, ror #24
     a7c:	65722d6e 	ldrbvs	r2, [r2, #-3438]!	; 0xd6e
     a80:	746f6f62 	strbtvc	r6, [pc], #-3938	; a88 <__code_start__-0x7578>
     a84:	7200632e 	andvc	r6, r0, #-1207959552	; 0xb8000000
     a88:	725f6970 	subsvc	r6, pc, #112, 18	; 0x1c0000
     a8c:	6f6f6265 	svcvs	0x006f6265
     a90:	73620074 	cmnvc	r2, #116	; 0x74
     a94:	6e655f73 	mcrvs	15, 3, r5, cr5, cr3, {3}
     a98:	635f0064 	cmpvs	pc, #100	; 0x64
     a9c:	72617473 	rsbvc	r7, r1, #1929379840	; 0x73000000
     aa0:	74730074 	ldrbtvc	r0, [r3], #-116	; 0x74
     aa4:	2d666661 	stclcs	6, cr6, [r6, #-388]!	; 0xfffffe7c
     aa8:	2f637273 	svccs	0x00637273
     aac:	61747363 	cmnvs	r4, r3, ror #6
     ab0:	632e7472 	teqvs	lr, #1912602624	; 0x72000000
     ab4:	61747300 	cmnvs	r4, r0, lsl #6
     ab8:	732d6666 	teqvc	sp, #106954752	; 0x6600000
     abc:	642f6372 	strtvs	r6, [pc], #-882	; ac4 <__code_start__-0x753c>
     ac0:	75616665 	strbvc	r6, [r1, #-1637]!	; 0x665
     ac4:	682d746c 	stmdavs	sp!, {r2, r3, r5, r6, sl, ip, sp, lr}
     ac8:	6c646e61 	stclvs	14, cr6, [r4], #-388	; 0xfffffe7c
     acc:	642d7265 	strtvs	r7, [sp], #-613	; 0x265
     ad0:	2d617461 	cfstrdcs	mvd7, [r1, #-388]!	; 0xfffffe7c
     ad4:	726f6261 	rsbvc	r6, pc, #268435462	; 0x10000006
     ad8:	00632e74 	rsbeq	r2, r3, r4, ror lr
     adc:	61746164 	cmnvs	r4, r4, ror #2
     ae0:	6f62615f 	svcvs	0x0062615f
     ae4:	765f7472 			; <UNDEFINED> instruction: 0x765f7472
     ae8:	6f746365 	svcvs	0x00746365
     aec:	74730072 	ldrbtvc	r0, [r3], #-114	; 0x72
     af0:	2d666661 	stclcs	6, cr6, [r6, #-388]!	; 0xfffffe7c
     af4:	2f637273 	svccs	0x00637273
     af8:	61666564 	cmnvs	r6, r4, ror #10
     afc:	2d746c75 	ldclcs	12, cr6, [r4, #-468]!	; 0xfffffe2c
     b00:	646e6168 	strbtvs	r6, [lr], #-360	; 0x168
     b04:	2d72656c 	cfldr64cs	mvdx6, [r2, #-432]!	; 0xfffffe50
     b08:	74736166 	ldrbtvc	r6, [r3], #-358	; 0x166
     b0c:	6600632e 	strvs	r6, [r0], -lr, lsr #6
     b10:	5f747361 	svcpl	0x00747361
     b14:	65746e69 	ldrbvs	r6, [r4, #-3689]!	; 0xe69
     b18:	70757272 	rsbsvc	r7, r5, r2, ror r2
     b1c:	65765f74 	ldrbvs	r5, [r6, #-3956]!	; 0xf74
     b20:	726f7463 	rsbvc	r7, pc, #1660944384	; 0x63000000
     b24:	61747300 	cmnvs	r4, r0, lsl #6
     b28:	732d6666 	teqvc	sp, #106954752	; 0x6600000
     b2c:	642f6372 	strtvs	r6, [pc], #-882	; b34 <__code_start__-0x74cc>
     b30:	75616665 	strbvc	r6, [r1, #-1637]!	; 0x665
     b34:	682d746c 	stmdavs	sp!, {r2, r3, r5, r6, sl, ip, sp, lr}
     b38:	6c646e61 	stclvs	14, cr6, [r4], #-388	; 0xfffffe7c
     b3c:	702d7265 	eorvc	r7, sp, r5, ror #4
     b40:	65666572 	strbvs	r6, [r6, #-1394]!	; 0x572
     b44:	2e686374 	mcrcs	3, 3, r6, cr8, cr4, {3}
     b48:	72700063 	rsbsvc	r0, r0, #99	; 0x63
     b4c:	74656665 	strbtvc	r6, [r5], #-1637	; 0x665
     b50:	615f6863 	cmpvs	pc, r3, ror #16
     b54:	74726f62 	ldrbtvc	r6, [r2], #-3938	; 0xf62
     b58:	6365765f 	cmnvs	r5, #99614720	; 0x5f00000
     b5c:	00726f74 	rsbseq	r6, r2, r4, ror pc
     b60:	65736572 	ldrbvs	r6, [r3, #-1394]!	; 0x572
     b64:	65765f74 	ldrbvs	r5, [r6, #-3956]!	; 0xf74
     b68:	726f7463 	rsbvc	r7, pc, #1660944384	; 0x63000000
     b6c:	61747300 	cmnvs	r4, r0, lsl #6
     b70:	732d6666 	teqvc	sp, #106954752	; 0x6600000
     b74:	642f6372 	strtvs	r6, [pc], #-882	; b7c <__code_start__-0x7484>
     b78:	75616665 	strbvc	r6, [r1, #-1637]!	; 0x665
     b7c:	682d746c 	stmdavs	sp!, {r2, r3, r5, r6, sl, ip, sp, lr}
     b80:	6c646e61 	stclvs	14, cr6, [r4], #-388	; 0xfffffe7c
     b84:	722d7265 	eorvc	r7, sp, #1342177286	; 0x50000006
     b88:	74657365 	strbtvc	r7, [r5], #-869	; 0x365
     b8c:	7300632e 	movwvc	r6, #814	; 0x32e
     b90:	66666174 			; <UNDEFINED> instruction: 0x66666174
     b94:	6372732d 	cmnvs	r2, #-1275068416	; 0xb4000000
     b98:	6665642f 	strbtvs	r6, [r5], -pc, lsr #8
     b9c:	746c7561 	strbtvc	r7, [ip], #-1377	; 0x561
     ba0:	6e61682d 	cdpvs	8, 6, cr6, cr1, cr13, {1}
     ba4:	72656c64 	rsbvc	r6, r5, #100, 24	; 0x6400
     ba8:	6977732d 	ldmdbvs	r7!, {r0, r2, r3, r5, r8, r9, ip, sp, lr}^
     bac:	7300632e 	movwvc	r6, #814	; 0x32e
     bb0:	7774666f 	ldrbvc	r6, [r4, -pc, ror #12]!
     bb4:	5f657261 	svcpl	0x00657261
     bb8:	65746e69 	ldrbvs	r6, [r4, #-3689]!	; 0xe69
     bbc:	70757272 	rsbsvc	r7, r5, r2, ror r2
     bc0:	65765f74 	ldrbvs	r5, [r6, #-3956]!	; 0xf74
     bc4:	726f7463 	rsbvc	r7, pc, #1660944384	; 0x63000000
     bc8:	6e695f00 	cdpvs	15, 6, cr5, cr9, cr0, {0}
     bcc:	72726574 	rsbsvc	r6, r2, #116, 10	; 0x1d000000
     bd0:	5f747075 	svcpl	0x00747075
     bd4:	6c626174 	stfvse	f6, [r2], #-464	; 0xfffffe30
     bd8:	695f0065 	ldmdbvs	pc, {r0, r2, r5, r6}^	; <UNPREDICTABLE>
     bdc:	7265746e 	rsbvc	r7, r5, #1845493760	; 0x6e000000
     be0:	74707572 	ldrbtvc	r7, [r0], #-1394	; 0x572
     be4:	6261745f 	rsbvs	r7, r1, #1593835520	; 0x5f000000
     be8:	655f656c 	ldrbvs	r6, [pc, #-1388]	; 684 <__code_start__-0x797c>
     bec:	7300646e 	movwvc	r6, #1134	; 0x46e
     bf0:	66666174 			; <UNDEFINED> instruction: 0x66666174
     bf4:	6372732d 	cmnvs	r2, #-1275068416	; 0xb4000000
     bf8:	746e692f 	strbtvc	r6, [lr], #-2351	; 0x92f
     bfc:	75727265 	ldrbvc	r7, [r2, #-613]!	; 0x265
     c00:	2d737470 	cfldrdcs	mvd7, [r3, #-448]!	; 0xfffffe40
     c04:	00632e63 	rsbeq	r2, r3, r3, ror #28
     c08:	755f7461 	ldrbvc	r7, [pc, #-1121]	; 7af <__code_start__-0x7851>
     c0c:	5f726573 	svcpl	0x00726573
     c10:	6576656c 	ldrbvs	r6, [r6, #-1388]!	; 0x56c
     c14:	7473006c 	ldrbtvc	r0, [r3], #-108	; 0x6c
     c18:	2d666661 	stclcs	6, cr6, [r6, #-388]!	; 0xfffffe7c
     c1c:	2f637273 	svccs	0x00637273
     c20:	6f626572 	svcvs	0x00626572
     c24:	632e746f 	teqvs	lr, #1862270976	; 0x6f000000
     c28:	5f4d5000 	svcpl	0x004d5000
     c2c:	43545352 	cmpmi	r4, #1207959553	; 0x48000001
     c30:	4352575f 	cmpmi	r2, #24903680	; 0x17c0000
     c34:	465f4746 	ldrbmi	r4, [pc], -r6, asr #14
     c38:	5f4c4c55 	svcpl	0x004c4c55
     c3c:	45534552 	ldrbmi	r4, [r3, #-1362]	; 0x552
     c40:	4d500054 	ldclmi	0, cr0, [r0, #-336]	; 0xfffffeb0
     c44:	4f44575f 	svcmi	0x0044575f
     c48:	65730047 	ldrbvs	r0, [r3, #-71]!	; 0x47
     c4c:	73755f74 	cmnvc	r5, #116, 30	; 0x1d0
     c50:	6c5f7265 	lfmvs	f7, 2, [pc], {101}	; 0x65
     c54:	6c657665 	stclvs	6, cr7, [r5], #-404	; 0xfffffe6c
     c58:	5f4d5000 	svcpl	0x004d5000
     c5c:	53534150 	cmppl	r3, #80, 2
     c60:	44524f57 	ldrbmi	r4, [r2], #-3927	; 0xf57
     c64:	5f4d5000 	svcpl	0x004d5000
     c68:	43545352 	cmpmi	r4, #1207959553	; 0x48000001
     c6c:	73706300 	cmnvc	r0, #0, 6
     c70:	69740072 	ldmdbvs	r4!, {r1, r4, r5, r6}^
     c74:	5f72656d 	svcpl	0x0072656d
     c78:	63656863 	cmnvs	r5, #6488064	; 0x630000
     c7c:	666f5f6b 	strbtvs	r5, [pc], -fp, ror #30
     c80:	74657366 	strbtvc	r7, [r5], #-870	; 0x366
     c84:	70720073 	rsbsvc	r0, r2, r3, ror r0
     c88:	72615f69 	rsbvc	r5, r1, #420	; 0x1a4
     c8c:	69745f6d 	ldmdbvs	r4!, {r0, r2, r3, r5, r6, r8, r9, sl, fp, ip, lr}^
     c90:	5f72656d 	svcpl	0x0072656d
     c94:	6c727463 	cfldrdvs	mvd7, [r2], #-396	; 0xfffffe74
     c98:	7400745f 	strvc	r7, [r0], #-1119	; 0x45f
     c9c:	72656d69 	rsbvc	r6, r5, #6720	; 0x1a40
     ca0:	616e655f 	cmnvs	lr, pc, asr r5
     ca4:	64656c62 	strbtvs	r6, [r5], #-3170	; 0xc62
     ca8:	79636e00 	stmdbvc	r3!, {r9, sl, fp, sp, lr}^
     cac:	73656c63 	cmnvc	r5, #25344	; 0x6300
     cb0:	65737500 	ldrbvs	r7, [r3, #-1280]!	; 0x500
     cb4:	6232335f 	eorsvs	r3, r2, #2080374785	; 0x7c000001
     cb8:	635f7469 	cmpvs	pc, #1761607680	; 0x69000000
     cbc:	746e756f 	strbtvc	r7, [lr], #-1391	; 0x56f
     cc0:	69007265 	stmdbvs	r0, {r0, r2, r5, r6, r9, ip, sp, lr}
     cc4:	655f746e 	ldrbvs	r7, [pc, #-1134]	; 85e <__code_start__-0x77a2>
     cc8:	6c62616e 	stfvse	f6, [r2], #-440	; 0xfffffe48
     ccc:	63006465 	movwvs	r6, #1125	; 0x465
     cd0:	746e756f 	strbtvc	r7, [lr], #-1391	; 0x56f
     cd4:	655f7265 	ldrbvs	r7, [pc, #-613]	; a77 <__code_start__-0x7589>
     cd8:	6c62616e 	stfvse	f6, [r2], #-440	; 0xfffffe48
     cdc:	73006465 	movwvc	r6, #1125	; 0x465
     ce0:	66666174 			; <UNDEFINED> instruction: 0x66666174
     ce4:	6372732d 	cmnvs	r2, #-1275068416	; 0xb4000000
     ce8:	6d69742f 	cfstrdvs	mvd7, [r9, #-188]!	; 0xffffff44
     cec:	692d7265 	pushvs	{r0, r2, r5, r6, r9, ip, sp, lr}
     cf0:	7265746e 	rsbvc	r7, r5, #1845493760	; 0x6e000000
     cf4:	74707572 	ldrbtvc	r7, [r0], #-1394	; 0x572
     cf8:	6300632e 	movwvs	r6, #814	; 0x32e
     cfc:	746e756f 	strbtvc	r7, [lr], #-1391	; 0x56f
     d00:	705f7265 	subsvc	r7, pc, r5, ror #4
     d04:	63736572 	cmnvs	r3, #478150656	; 0x1c800000
     d08:	72656c61 	rsbvc	r6, r5, #24832	; 0x6100
     d0c:	6d697400 	cfstrdvs	mvd7, [r9, #-0]
     d10:	675f7265 	ldrbvs	r7, [pc, -r5, ror #4]
     d14:	755f7465 	ldrbvc	r7, [pc, #-1125]	; 8b7 <__code_start__-0x7749>
     d18:	5f636573 	svcpl	0x00636573
     d1c:	00776172 	rsbseq	r6, r7, r2, ror r1
     d20:	616c6564 	cmnvs	ip, r4, ror #10
     d24:	65735f79 	ldrbvs	r5, [r3, #-3961]!	; 0xf79
     d28:	74730063 	ldrbtvc	r0, [r3], #-99	; 0x63
     d2c:	2d666661 	stclcs	6, cr6, [r6, #-388]!	; 0xfffffe7c
     d30:	2f637273 	svccs	0x00637273
     d34:	656d6974 	strbvs	r6, [sp, #-2420]!	; 0x974
     d38:	00632e72 	rsbeq	r2, r3, r2, ror lr
     d3c:	6b636974 	blvs	18db314 <__bss_end__+0x18cf764>
     d40:	65640073 	strbvs	r0, [r4, #-115]!	; 0x73
     d44:	5f79616c 	svcpl	0x0079616c
     d48:	6c637963 	stclvs	9, cr7, [r3], #-396	; 0xfffffe74
     d4c:	64007365 	strvs	r7, [r0], #-869	; 0x365
     d50:	79616c65 	stmdbvc	r1!, {r0, r2, r5, r6, sl, fp, sp, lr}^
     d54:	0073755f 	rsbseq	r7, r3, pc, asr r5
     d58:	6f73645f 	svcvs	0x0073645f
     d5c:	6e61685f 	mcrvs	8, 3, r6, cr1, cr15, {2}
     d60:	00656c64 	rsbeq	r6, r5, r4, ror #24
     d64:	7a69735f 	bvc	1a5dae8 <__bss_end__+0x1a51f38>
     d68:	725f0065 	subsvc	r0, pc, #101	; 0x65
     d6c:	34646e61 	strbtcc	r6, [r4], #-3681	; 0xe61
     d70:	655f0038 	ldrbvs	r0, [pc, #-56]	; d40 <__code_start__-0x72c0>
     d74:	6772656d 	ldrbvs	r6, [r2, -sp, ror #10]!
     d78:	79636e65 	stmdbvc	r3!, {r0, r2, r5, r6, r9, sl, fp, sp, lr}^
     d7c:	72617500 	rsbvc	r7, r1, #0, 10
     d80:	6e695f74 	mcrvs	15, 3, r5, cr9, cr4, {3}
     d84:	5f007469 	svcpl	0x00007469
     d88:	74726377 	ldrbtvc	r6, [r2], #-887	; 0x377
     d8c:	5f626d6f 	svcpl	0x00626d6f
     d90:	74617473 	strbtvc	r7, [r1], #-1139	; 0x473
     d94:	775f0065 	ldrbvc	r0, [pc, -r5, rrx]
     d98:	74727363 	ldrbtvc	r7, [r2], #-867	; 0x363
     d9c:	73626d6f 	cmnvc	r2, #7104	; 0x1bc0
     da0:	6174735f 	cmnvs	r4, pc, asr r3
     da4:	5f006574 	svcpl	0x00006574
     da8:	7366626c 	cmnvc	r6, #108, 4	; 0xc0000006
     dac:	00657a69 	rsbeq	r7, r5, r9, ror #20
     db0:	4f495047 	svcmi	0x00495047
     db4:	4e55465f 	mrcmi	6, 2, r4, cr5, cr15, {2}
     db8:	4e495f43 	cdpmi	15, 4, cr5, cr9, cr3, {2}
     dbc:	00545550 	subseq	r5, r4, r0, asr r5
     dc0:	72626d5f 	rsbvc	r6, r2, #6080	; 0x17c0
     dc4:	63776f74 	cmnvs	r7, #116, 30	; 0x1d0
     dc8:	6174735f 	cmnvs	r4, pc, asr r3
     dcc:	5f006574 	svcpl	0x00006574
     dd0:	6f746377 	svcvs	0x00746377
     dd4:	735f626d 	cmpvc	pc, #-805306362	; 0xd0000006
     dd8:	65746174 	ldrbvs	r6, [r4, #-372]!	; 0x174
     ddc:	745f5f00 	ldrbvc	r5, [pc], #-3840	; de4 <__code_start__-0x721c>
     de0:	65735f6d 	ldrbvs	r5, [r3, #-3949]!	; 0xf6d
     de4:	74730063 	ldrbtvc	r0, [r3], #-99	; 0x63
     de8:	5f007461 	svcpl	0x00007461
     dec:	66756275 			; <UNDEFINED> instruction: 0x66756275
     df0:	49504700 	ldmdbmi	r0, {r8, r9, sl, lr}^
     df4:	55465f4f 	strbpl	r5, [r6, #-3919]	; 0xf4f
     df8:	415f434e 	cmpmi	pc, lr, asr #6
     dfc:	0031544c 	eorseq	r5, r1, ip, asr #8
     e00:	7361625f 	cmnvc	r1, #-268435451	; 0xf0000005
     e04:	6e630065 	cdpvs	0, 6, cr0, cr3, cr5, {3}
     e08:	5f006c74 	svcpl	0x00006c74
     e0c:	5f6d745f 	svcpl	0x006d745f
     e10:	72756f68 	rsbsvc	r6, r5, #104, 30	; 0x1a0
     e14:	735f5f00 	cmpvc	pc, #0, 30
     e18:	6f5f0066 	svcvs	0x005f0066
     e1c:	78655f6e 	stmdavc	r5!, {r1, r2, r3, r5, r6, r8, r9, sl, fp, ip, lr}^
     e20:	615f7469 	cmpvs	pc, r9, ror #8
     e24:	00736772 	rsbseq	r6, r3, r2, ror r7
     e28:	6f6f635f 	svcvs	0x006f635f
     e2c:	0065696b 	rsbeq	r6, r5, fp, ror #18
     e30:	67735f5f 			; <UNDEFINED> instruction: 0x67735f5f
     e34:	0065756c 	rsbeq	r7, r5, ip, ror #10
     e38:	616c665f 	cmnvs	ip, pc, asr r6
     e3c:	5f007367 	svcpl	0x00007367
     e40:	635f7369 	cmpvs	pc, #-1543503871	; 0xa4000001
     e44:	5f006178 	svcpl	0x00006178
     e48:	69647473 	stmdbvs	r4!, {r0, r1, r4, r5, r6, sl, ip, sp, lr}^
     e4c:	625f006e 	subsvs	r0, pc, #110	; 0x6e
     e50:	69736b6c 	ldmdbvs	r3!, {r2, r3, r5, r6, r8, r9, fp, sp, lr}^
     e54:	7500657a 	strvc	r6, [r0, #-1402]	; 0x57a
     e58:	2e747261 	cdpcs	2, 7, cr7, cr4, cr1, {3}
     e5c:	75610063 	strbvc	r0, [r1, #-99]!	; 0x63
     e60:	65705f78 	ldrbvs	r5, [r0, #-3960]!	; 0xf78
     e64:	68706972 	ldmdavs	r0!, {r1, r4, r5, r6, r8, fp, sp, lr}^
     e68:	635f0073 	cmpvs	pc, #115	; 0x73
     e6c:	75627476 	strbvc	r7, [r2, #-1142]!	; 0x476
     e70:	682f0066 	stmdavs	pc!, {r1, r2, r5, r6}	; <UNPREDICTABLE>
     e74:	2f656d6f 	svccs	0x00656d6f
     e78:	6c676e65 	stclvs	14, cr6, [r7], #-404	; 0xfffffe6c
     e7c:	632f7265 	teqvs	pc, #1342177286	; 0x50000006
     e80:	7373616c 	cmnvc	r3, #108, 2
     e84:	3273632f 	rsbscc	r6, r3, #-1140850688	; 0xbc000000
     e88:	786c3034 	stmdavc	ip!, {r2, r4, r5, ip, sp}^
     e8c:	7330322d 	teqvc	r0, #-805306366	; 0xd0000002
     e90:	6c2f7270 	sfmvs	f7, 4, [pc], #-448	; cd8 <__code_start__-0x7328>
     e94:	69706269 	ldmdbvs	r0!, {r0, r3, r5, r6, r9, sp, lr}^
     e98:	6174732f 	cmnvs	r4, pc, lsr #6
     e9c:	702d6666 	eorvc	r6, sp, r6, ror #12
     ea0:	61766972 	cmnvs	r6, r2, ror r9
     ea4:	5f006574 	svcpl	0x00006574
     ea8:	7273626d 	rsbsvc	r6, r3, #-805306362	; 0xd0000006
     eac:	63776f74 	cmnvs	r7, #116, 30	; 0x1d0
     eb0:	74735f73 	ldrbtvc	r5, [r3], #-3955	; 0xf73
     eb4:	00657461 	rsbeq	r7, r5, r1, ror #8
     eb8:	72626d5f 	rsbvc	r6, r2, #6080	; 0x17c0
     ebc:	5f6e656c 	svcpl	0x006e656c
     ec0:	74617473 	strbtvc	r7, [r1], #-1139	; 0x473
     ec4:	665f0065 	ldrbvs	r0, [pc], -r5, rrx
     ec8:	6772616e 	ldrbvs	r6, [r2, -lr, ror #2]!
     ecc:	75610073 	strbvc	r0, [r1, #-115]!	; 0x73
     ed0:	6e655f78 	mcrvs	15, 3, r5, cr5, cr8, {3}
     ed4:	656c6261 	strbvs	r6, [ip, #-609]!	; 0x261
     ed8:	665f0073 			; <UNDEFINED> instruction: 0x665f0073
     edc:	5f00736e 	svcpl	0x0000736e
     ee0:	6e676973 	mcrvs	9, 3, r6, cr7, cr3, {3}
     ee4:	72617500 	rsbvc	r7, r1, #0, 10
     ee8:	61635f74 	smcvs	13812	; 0x35f4
     eec:	75705f6e 	ldrbvc	r5, [r0, #-3950]!	; 0xf6e
     ef0:	5f006374 	svcpl	0x00006374
     ef4:	636f6c66 	cmnvs	pc, #26112	; 0x6600
     ef8:	00745f6b 	rsbseq	r5, r4, fp, ror #30
     efc:	6474735f 	ldrbtvs	r7, [r4], #-863	; 0x35f
     f00:	00727265 	rsbseq	r7, r2, r5, ror #4
     f04:	6769425f 			; <UNDEFINED> instruction: 0x6769425f
     f08:	00746e69 	rsbseq	r6, r4, r9, ror #28
     f0c:	6d61675f 	stclvs	7, cr6, [r1, #-380]!	; 0xfffffe84
     f10:	735f616d 	cmpvc	pc, #1073741851	; 0x4000001b
     f14:	676e6769 	strbvs	r6, [lr, -r9, ror #14]!
     f18:	5f006d61 	svcpl	0x00006d61
     f1c:	75736572 	ldrbvc	r6, [r3, #-1394]!	; 0x572
     f20:	6b5f746c 	blvs	17de0d8 <__bss_end__+0x17d2528>
     f24:	745f5f00 	ldrbvc	r5, [pc], #-3840	; f2c <__code_start__-0x70d4>
     f28:	5f5f006d 	svcpl	0x005f006d
     f2c:	62686377 	rsbvs	r6, r8, #-603979775	; 0xdc000001
     f30:	72617500 	rsbvc	r7, r1, #0, 10
     f34:	65675f74 	strbvs	r5, [r7, #-3956]!	; 0xf74
     f38:	5f006374 	svcpl	0x00006374
     f3c:	6f647473 	svcvs	0x00647473
     f40:	5f007475 	svcpl	0x00007475
     f44:	6c747663 	ldclvs	6, cr7, [r4], #-396	; 0xfffffe74
     f48:	5f006e65 	svcpl	0x00006e65
     f4c:	656c6966 	strbvs	r6, [ip, #-2406]!	; 0x966
     f50:	696e5f00 	stmdbvs	lr!, {r8, r9, sl, fp, ip, lr}^
     f54:	0073626f 	rsbseq	r6, r3, pc, ror #4
     f58:	6574615f 	ldrbvs	r6, [r4, #-351]!	; 0x15f
     f5c:	30746978 	rsbscc	r6, r4, r8, ror r9
     f60:	69735f00 	ldmdbvs	r3!, {r8, r9, sl, fp, ip, lr}^
     f64:	6c616e67 	stclvs	14, cr6, [r1], #-412	; 0xfffffe64
     f68:	6675625f 			; <UNDEFINED> instruction: 0x6675625f
     f6c:	73615f00 	cmnvc	r1, #0, 30
     f70:	6d697463 	cfstrdvs	mvd7, [r9, #-396]!	; 0xfffffe74
     f74:	75625f65 	strbvc	r5, [r2, #-3941]!	; 0xf65
     f78:	725f0066 	subsvc	r0, pc, #102	; 0x66
     f7c:	6c757365 	ldclvs	3, cr7, [r5], #-404	; 0xfffffe6c
     f80:	5f5f0074 	svcpl	0x005f0074
     f84:	00686377 	rsbeq	r6, r8, r7, ror r3
     f88:	4f495047 	svcmi	0x00495047
     f8c:	4e55465f 	mrcmi	6, 2, r4, cr5, cr15, {2}
     f90:	4c415f43 	mcrrmi	15, 4, r5, r1, cr3
     f94:	77003254 	smlsdvc	r0, r4, r2, r3
     f98:	5f746e69 	svcpl	0x00746e69
     f9c:	6c5f0074 	mrrcvs	0, 7, r0, pc, cr4	; <UNPREDICTABLE>
     fa0:	006b636f 	rsbeq	r6, fp, pc, ror #6
     fa4:	616c665f 	cmnvs	ip, pc, asr r6
     fa8:	00327367 	eorseq	r7, r2, r7, ror #6
     fac:	6d745f5f 	ldclvs	15, cr5, [r4, #-380]!	; 0xfffffe84
     fb0:	6165795f 	cmnvs	r5, pc, asr r9
     fb4:	6f5f0072 	svcvs	0x005f0072
     fb8:	65736666 	ldrbvs	r6, [r3, #-1638]!	; 0x666
     fbc:	70670074 	rsbvc	r0, r7, r4, ror r0
     fc0:	735f6f69 	cmpvc	pc, #420	; 0x1a4
     fc4:	665f7465 	ldrbvs	r7, [pc], -r5, ror #8
     fc8:	74636e75 	strbtvc	r6, [r3], #-3701	; 0xe75
     fcc:	006e6f69 	rsbeq	r6, lr, r9, ror #30
     fd0:	78656e5f 	stmdavc	r5!, {r0, r1, r2, r3, r4, r6, r9, sl, fp, sp, lr}^
     fd4:	5f006674 	svcpl	0x00006674
     fd8:	5f6d745f 	svcpl	0x006d745f
     fdc:	006e6f6d 	rsbeq	r6, lr, sp, ror #30
     fe0:	6574615f 	ldrbvs	r6, [r4, #-351]!	; 0x15f
     fe4:	00746978 	rsbseq	r6, r4, r8, ror r9
     fe8:	64735f5f 	ldrbtvs	r5, [r3], #-3935	; 0xf5f
     fec:	6e696469 	cdpvs	4, 6, cr6, cr9, cr9, {3}
     ff0:	5f007469 	svcpl	0x00007469
     ff4:	5f66666f 	svcpl	0x0066666f
     ff8:	61750074 	cmnvs	r5, r4, ror r0
     ffc:	5f007472 	svcpl	0x00007472
    1000:	65657266 	strbvs	r7, [r5, #-614]!	; 0x266
    1004:	7473696c 	ldrbtvc	r6, [r3], #-2412	; 0x96c
    1008:	4f4c5f00 	svcmi	0x004c5f00
    100c:	525f4b43 	subspl	r4, pc, #68608	; 0x10c00
    1010:	52554345 	subspl	r4, r5, #335544321	; 0x14000001
    1014:	45564953 	ldrbmi	r4, [r6, #-2387]	; 0x953
    1018:	5f00545f 	svcpl	0x0000545f
    101c:	0077656e 	rsbseq	r6, r7, lr, ror #10
    1020:	655f685f 	ldrbvs	r6, [pc, #-2143]	; 7c9 <__code_start__-0x7837>
    1024:	6f6e7272 	svcvs	0x006e7272
    1028:	745f5f00 	ldrbvc	r5, [pc], #-3840	; 1030 <__code_start__-0x6fd0>
    102c:	64795f6d 	ldrbtvs	r5, [r9], #-3949	; 0xf6d
    1030:	5f007961 	svcpl	0x00007961
    1034:	7562735f 	strbvc	r7, [r2, #-863]!	; 0x35f
    1038:	695f0066 	ldmdbvs	pc, {r1, r2, r5, r6}^	; <UNPREDICTABLE>
    103c:	0073626f 	rsbseq	r6, r3, pc, ror #4
    1040:	49465f5f 	stmdbmi	r6, {r0, r1, r2, r3, r4, r6, r8, r9, sl, fp, ip, lr}^
    1044:	5f00454c 	svcpl	0x0000454c
    1048:	7473626d 	ldrbtvc	r6, [r3], #-621	; 0x26d
    104c:	5f657461 	svcpl	0x00657461
    1050:	5f5f0074 	svcpl	0x005f0074
    1054:	4c494673 	mcrrmi	6, 7, r4, r9, cr3
    1058:	6d5f0045 	ldclvs	0, cr0, [pc, #-276]	; f4c <__code_start__-0x70b4>
    105c:	61747362 	cmnvs	r4, r2, ror #6
    1060:	5f006574 	svcpl	0x00006574
    1064:	646e6172 	strbtvs	r6, [lr], #-370	; 0x172
    1068:	78656e5f 	stmdavc	r5!, {r0, r1, r2, r3, r4, r6, r9, sl, fp, sp, lr}^
    106c:	6d5f0074 	ldclvs	0, cr0, [pc, #-464]	; ea4 <__code_start__-0x715c>
    1070:	6e656c62 	cdpvs	12, 6, cr6, cr5, cr2, {3}
    1074:	6174735f 	cmnvs	r4, pc, asr r3
    1078:	5f006574 	svcpl	0x00006574
    107c:	00636e69 	rsbeq	r6, r3, r9, ror #28
    1080:	646e695f 	strbtvs	r6, [lr], #-2399	; 0x95f
    1084:	75635f00 	strbvc	r5, [r3, #-3840]!	; 0xf00
    1088:	6e657272 	mcrvs	2, 3, r7, cr5, cr2, {3}
    108c:	6f6c5f74 	svcvs	0x006c5f74
    1090:	656c6163 	strbvs	r6, [ip, #-355]!	; 0x163
    1094:	635f5f00 	cmpvs	pc, #0, 30
    1098:	6e61656c 	cdpvs	5, 6, cr6, cr1, cr12, {3}
    109c:	5f007075 	svcpl	0x00007075
    10a0:	7778616d 	ldrbvc	r6, [r8, -sp, ror #2]!
    10a4:	5f007364 	svcpl	0x00007364
    10a8:	6e656572 	mcrvs	5, 3, r6, cr5, cr2, {3}
    10ac:	735f0074 	cmpvc	pc, #116	; 0x74
    10b0:	00646565 	rsbeq	r6, r4, r5, ror #10
    10b4:	6f635f5f 	svcvs	0x00635f5f
    10b8:	00746e75 	rsbseq	r6, r4, r5, ror lr
    10bc:	61765f5f 	cmnvs	r6, pc, asr pc
    10c0:	0065756c 	rsbeq	r7, r5, ip, ror #10
    10c4:	6565735f 	strbvs	r7, [r5, #-863]!	; 0x35f
    10c8:	6162006b 	cmnvs	r2, fp, rrx
    10cc:	5f006475 	svcpl	0x00006475
    10d0:	736f7066 	cmnvc	pc, #102	; 0x66
    10d4:	5f00745f 	svcpl	0x0000745f
    10d8:	5f6d745f 	svcpl	0x006d745f
    10dc:	006e696d 	rsbeq	r6, lr, sp, ror #18
    10e0:	61726373 	cmnvs	r2, r3, ror r3
    10e4:	00686374 	rsbeq	r6, r8, r4, ror r3
    10e8:	6c756d5f 	ldclvs	13, cr6, [r5], #-380	; 0xfffffe84
    10ec:	75700074 	ldrbvc	r0, [r0, #-116]!	; 0x74
    10f0:	00323374 	eorseq	r3, r2, r4, ror r3
    10f4:	20554e47 	subscs	r4, r5, r7, asr #28
    10f8:	20393943 	eorscs	r3, r9, r3, asr #18
    10fc:	2e332e36 	mrccs	14, 1, r2, cr3, cr6, {1}
    1100:	30322031 	eorscc	r2, r2, r1, lsr r0
    1104:	36303731 			; <UNDEFINED> instruction: 0x36303731
    1108:	2d203032 	stccs	0, cr3, [r0, #-200]!	; 0xffffff38
    110c:	7570636d 	ldrbvc	r6, [r0, #-877]!	; 0x36d
    1110:	6d72613d 	ldfvse	f6, [r2, #-244]!	; 0xffffff0c
    1114:	36373131 			; <UNDEFINED> instruction: 0x36373131
    1118:	2d667a6a 	vstmdbcs	r6!, {s15-s120}
    111c:	6d2d2073 	stcvs	0, cr2, [sp, #-460]!	; 0xfffffe34
    1120:	656e7574 	strbvs	r7, [lr, #-1396]!	; 0x574
    1124:	6d72613d 	ldfvse	f6, [r2, #-244]!	; 0xffffff0c
    1128:	36373131 			; <UNDEFINED> instruction: 0x36373131
    112c:	2d667a6a 	vstmdbcs	r6!, {s15-s120}
    1130:	672d2073 			; <UNDEFINED> instruction: 0x672d2073
    1134:	20626467 	rsbcs	r6, r2, r7, ror #8
    1138:	20674f2d 	rsbcs	r4, r7, sp, lsr #30
    113c:	6474732d 	ldrbtvs	r7, [r4], #-813	; 0x32d
    1140:	756e673d 	strbvc	r6, [lr, #-1853]!	; 0x73d
    1144:	2d203939 	stccs	9, cr3, [r0, #-228]!	; 0xffffff1c
    1148:	65726666 	ldrbvs	r6, [r2, #-1638]!	; 0x666
    114c:	61747365 	cmnvs	r4, r5, ror #6
    1150:	6e69646e 	cdpvs	4, 6, cr6, cr9, cr14, {3}
    1154:	735f0067 	cmpvc	pc, #103	; 0x67
    1158:	6f747274 	svcvs	0x00747274
    115c:	616c5f6b 	cmnvs	ip, fp, ror #30
    1160:	5f007473 	svcpl	0x00007473
    1164:	79746e66 	ldmdbvc	r4!, {r1, r2, r5, r6, r9, sl, fp, sp, lr}^
    1168:	00736570 	rsbseq	r6, r3, r0, ror r5
    116c:	6464615f 	strbtvs	r6, [r4], #-351	; 0x15f
    1170:	555f5f00 	ldrbpl	r5, [pc, #-3840]	; 278 <__code_start__-0x7d88>
    1174:	676e6f4c 	strbvs	r6, [lr, -ip, asr #30]!
    1178:	65675f00 	strbvs	r5, [r7, #-3840]!	; 0xf00
    117c:	74616474 	strbtvc	r6, [r1], #-1140	; 0x474
    1180:	72655f65 	rsbvc	r5, r5, #404	; 0x194
    1184:	675f0072 			; <UNDEFINED> instruction: 0x675f0072
    1188:	61626f6c 	cmnvs	r2, ip, ror #30
    118c:	6d695f6c 	stclvs	15, cr5, [r9, #-432]!	; 0xfffffe50
    1190:	65727570 	ldrbvs	r7, [r2, #-1392]!	; 0x570
    1194:	7274705f 	rsbsvc	r7, r4, #95	; 0x5f
    1198:	75635f00 	strbvc	r5, [r3, #-3840]!	; 0xf00
    119c:	6e657272 	mcrvs	2, 3, r7, cr5, cr2, {3}
    11a0:	61635f74 	smcvs	13812	; 0x35f4
    11a4:	6f676574 	svcvs	0x00676574
    11a8:	5f007972 	svcpl	0x00007972
    11ac:	73756e75 	cmnvc	r5, #1872	; 0x750
    11b0:	725f6465 	subsvc	r6, pc, #1694498816	; 0x65000000
    11b4:	00646e61 	rsbeq	r6, r4, r1, ror #28
    11b8:	7364775f 	cmnvc	r4, #24903680	; 0x17c0000
    11bc:	745f5f00 	ldrbvc	r5, [pc], #-3840	; 11c4 <__code_start__-0x6e3c>
    11c0:	64775f6d 	ldrbtvs	r5, [r7], #-3949	; 0xf6d
    11c4:	5f007961 	svcpl	0x00007961
    11c8:	65756c67 	ldrbvs	r6, [r5, #-3175]!	; 0xc67
    11cc:	49504700 	ldmdbmi	r0, {r8, r9, sl, lr}^
    11d0:	55465f4f 	strbpl	r5, [r6, #-3919]	; 0xf4f
    11d4:	4f5f434e 	svcmi	0x005f434e
    11d8:	55505455 	ldrbpl	r5, [r0, #-1109]	; 0x455
    11dc:	6e5f0054 	mrcvs	0, 2, r0, cr15, cr4, {2}
    11e0:	6c6c616d 	stfvse	f6, [ip], #-436	; 0xfffffe4c
    11e4:	5f00636f 	svcpl	0x0000636f
    11e8:	6134366c 	teqvs	r4, ip, ror #12
    11ec:	6675625f 			; <UNDEFINED> instruction: 0x6675625f
    11f0:	74656700 	strbtvc	r6, [r5], #-1792	; 0x700
    11f4:	75003233 	strvc	r3, [r0, #-563]	; 0x233
    11f8:	5f747261 	svcpl	0x00747261
    11fc:	5f6e6163 	svcpl	0x006e6163
    1200:	63746567 	cmnvs	r4, #432013312	; 0x19c00000
    1204:	69735f00 	ldmdbvs	r3!, {r8, r9, sl, fp, ip, lr}^
    1208:	75665f67 	strbvc	r5, [r6, #-3943]!	; 0xf67
    120c:	6f00636e 	svcvs	0x0000636e
    1210:	6e695f72 	mcrvs	15, 3, r5, cr9, cr2, {3}
    1214:	75003233 	strvc	r3, [r0, #-563]	; 0x233
    1218:	5f747261 	svcpl	0x00747261
    121c:	5f736168 	svcpl	0x00736168
    1220:	61746164 	cmnvs	r4, r4, ror #2
    1224:	49504700 	ldmdbmi	r0, {r8, r9, sl, lr}^
    1228:	55465f4f 	strbpl	r5, [r6, #-3919]	; 0xf4f
    122c:	415f434e 	cmpmi	pc, lr, asr #6
    1230:	0030544c 	eorseq	r5, r0, ip, asr #8
    1234:	75626e5f 	strbvc	r6, [r2, #-3679]!	; 0xe5f
    1238:	755f0066 	ldrbvc	r0, [pc, #-102]	; 11da <__code_start__-0x6e26>
    123c:	6573756e 	ldrbvs	r7, [r3, #-1390]!	; 0x56e
    1240:	50470064 	subpl	r0, r7, r4, rrx
    1244:	465f4f49 	ldrbmi	r4, [pc], -r9, asr #30
    1248:	5f434e55 	svcpl	0x00434e55
    124c:	33544c41 	cmpcc	r4, #16640	; 0x4100
    1250:	49504700 	ldmdbmi	r0, {r8, r9, sl, lr}^
    1254:	55465f4f 	strbpl	r5, [r6, #-3919]	; 0xf4f
    1258:	415f434e 	cmpmi	pc, lr, asr #6
    125c:	0034544c 	eorseq	r5, r4, ip, asr #8
    1260:	4f495047 	svcmi	0x00495047
    1264:	4e55465f 	mrcmi	6, 2, r4, cr5, cr15, {2}
    1268:	4c415f43 	mcrrmi	15, 4, r5, r1, cr3
    126c:	5f003554 	svcpl	0x00003554
    1270:	5f6d745f 	svcpl	0x006d745f
    1274:	73647369 	cmnvc	r4, #-1543503871	; 0xa4000001
    1278:	6c5f0074 	mrrcvs	0, 7, r0, pc, cr4	; <UNPREDICTABLE>
    127c:	6c61636f 	stclvs	3, cr6, [r1], #-444	; 0xfffffe44
    1280:	656d6974 	strbvs	r6, [sp, #-2420]!	; 0x974
    1284:	6675625f 			; <UNDEFINED> instruction: 0x6675625f
    1288:	6c635f00 	stclvs	15, cr5, [r3], #-0
    128c:	0065736f 	rsbeq	r7, r5, pc, ror #6
    1290:	3834725f 	ldmdacc	r4!, {r0, r1, r2, r3, r4, r6, r9, ip, sp, lr}
    1294:	626d5f00 	rsbvs	r5, sp, #0, 30
    1298:	63776f74 	cmnvs	r7, #116, 30	; 0x1d0
    129c:	6174735f 	cmnvs	r4, pc, asr r3
    12a0:	5f006574 	svcpl	0x00006574
    12a4:	00733570 	rsbseq	r3, r3, r0, ror r5
    12a8:	6d745f5f 	ldclvs	15, cr5, [r4, #-380]!	; 0xfffffe84
    12ac:	61646d5f 	cmnvs	r4, pc, asr sp
    12b0:	70670079 	rsbvc	r0, r7, r9, ror r0
    12b4:	735f6f69 	cmpvc	pc, #420	; 0x1a4
    12b8:	6f5f7465 	svcvs	0x005f7465
    12bc:	62006666 	andvs	r6, r0, #106954752	; 0x6600000
    12c0:	006b6e61 	rsbeq	r6, fp, r1, ror #28
    12c4:	6f697067 	svcvs	0x00697067
    12c8:	6700632e 	strvs	r6, [r0, -lr, lsr #6]
    12cc:	5f6f6970 	svcpl	0x006f6970
    12d0:	64616572 	strbtvs	r6, [r1], #-1394	; 0x572
    12d4:	69706700 	ldmdbvs	r0!, {r8, r9, sl, sp, lr}^
    12d8:	65735f6f 	ldrbvs	r5, [r3, #-3951]!	; 0xf6f
    12dc:	756f5f74 	strbvc	r5, [pc, #-3956]!	; 370 <__code_start__-0x7c90>
    12e0:	74757074 	ldrbtvc	r7, [r5], #-116	; 0x74
    12e4:	69706700 	ldmdbvs	r0!, {r8, r9, sl, sp, lr}^
    12e8:	72775f6f 	rsbsvc	r5, r7, #444	; 0x1bc
    12ec:	00657469 	rsbeq	r7, r5, r9, ror #8
    12f0:	6f697067 	svcvs	0x00697067
    12f4:	7465735f 	strbtvc	r7, [r5], #-863	; 0x35f
    12f8:	70670030 	rsbvc	r0, r7, r0, lsr r0
    12fc:	6c5f6f69 	mrrcvs	15, 6, r6, pc, cr9	; <UNPREDICTABLE>
    1300:	00307665 	eorseq	r7, r0, r5, ror #12
    1304:	6f697067 	svcvs	0x00697067
    1308:	7465735f 	strbtvc	r7, [r5], #-863	; 0x35f
    130c:	706e695f 	rsbvc	r6, lr, pc, asr r9
    1310:	67007475 	smlsdxvs	r0, r5, r4, r7
    1314:	5f6f6970 	svcpl	0x006f6970
    1318:	5f746573 	svcpl	0x00746573
    131c:	67006e6f 	strvs	r6, [r0, -pc, ror #28]
    1320:	5f6f6970 	svcpl	0x006f6970
    1324:	636e7566 	cmnvs	lr, #427819008	; 0x19800000
    1328:	6700745f 	smlsdvs	r0, pc, r4, r7	; <UNPREDICTABLE>
    132c:	5f6f6970 	svcpl	0x006f6970
    1330:	30726c63 	rsbscc	r6, r2, r3, ror #24
    1334:	616d6b00 	cmnvs	sp, r0, lsl #22
    1338:	636f6c6c 	cmnvs	pc, #108, 24	; 0x6c00
    133c:	6b00632e 	blvs	19ffc <__bss_end__+0xe44c>
    1340:	6c6c616d 	stfvse	f6, [ip], #-436	; 0xfffffe4c
    1344:	695f636f 	ldmdbvs	pc, {r0, r1, r2, r3, r5, r6, r8, r9, sp, lr}^	; <UNPREDICTABLE>
    1348:	0074696e 	rsbseq	r6, r4, lr, ror #18
    134c:	6c616d6b 	stclvs	13, cr6, [r1], #-428	; 0xfffffe54
    1350:	5f636f6c 	svcpl	0x00636f6c
    1354:	67696c61 	strbvs	r6, [r9, -r1, ror #24]!
    1358:	0064656e 	rsbeq	r6, r4, lr, ror #10
    135c:	62756f64 	rsbsvs	r6, r5, #100, 30	; 0x190
    1360:	6b00656c 	blvs	1a918 <__bss_end__+0xed68>
    1364:	65657266 	strbvs	r7, [r5, #-614]!	; 0x266
    1368:	6c6c615f 	stfvse	f6, [ip], #-380	; 0xfffffe84
    136c:	72666b00 	rsbvc	r6, r6, #0, 22
    1370:	615f6565 	cmpvs	pc, r5, ror #10
    1374:	72657466 	rsbvc	r7, r5, #1711276032	; 0x66000000
    1378:	616d6b00 	cmnvs	sp, r0, lsl #22
    137c:	636f6c6c 	cmnvs	pc, #108, 24	; 0x6c00
    1380:	6165685f 	cmnvs	r5, pc, asr r8
    1384:	74705f70 	ldrbtvc	r5, [r0], #-3952	; 0xf70
    1388:	6c610072 	stclvs	0, cr0, [r1], #-456	; 0xfffffe38
    138c:	6d6e6769 	stclvs	7, cr6, [lr, #-420]!	; 0xfffffe5c
    1390:	00746e65 	rsbseq	r6, r4, r5, ror #28
    1394:	65685f5f 	strbvs	r5, [r8, #-3935]!	; 0xf5f
    1398:	735f7061 	cmpvc	pc, #97	; 0x61
    139c:	74726174 	ldrbtvc	r6, [r2], #-372	; 0x174
    13a0:	6b005f5f 	blvs	19124 <__bss_end__+0xd574>
    13a4:	6c6c616d 	stfvse	f6, [ip], #-436	; 0xfffffe4c
    13a8:	685f636f 	ldmdavs	pc, {r0, r1, r2, r3, r5, r6, r8, r9, sp, lr}^	; <UNPREDICTABLE>
    13ac:	5f706165 	svcpl	0x00706165
    13b0:	72617473 	rsbvc	r7, r1, #1929379840	; 0x73000000
    13b4:	6d6b0074 	stclvs	0, cr0, [fp, #-464]!	; 0xfffffe30
    13b8:	6f6c6c61 	svcvs	0x006c6c61
    13bc:	65685f63 	strbvs	r5, [r8, #-3939]!	; 0xf63
    13c0:	655f7061 	ldrbvs	r7, [pc, #-97]	; 1367 <__code_start__-0x6c99>
    13c4:	7300646e 	movwvc	r6, #1134	; 0x46e
    13c8:	66666174 			; <UNDEFINED> instruction: 0x66666174
    13cc:	6372732d 	cmnvs	r2, #-1275068416	; 0xb4000000
    13d0:	6665642f 	strbtvs	r6, [r5], -pc, lsr #8
    13d4:	746c7561 	strbtvc	r7, [ip], #-1377	; 0x561
    13d8:	6e61682d 	cdpvs	8, 6, cr6, cr1, cr13, {1}
    13dc:	72656c64 	rsbvc	r6, r5, #100, 24	; 0x6400
    13e0:	646e752d 	strbtvs	r7, [lr], #-1325	; 0x52d
    13e4:	6e696665 	cdpvs	6, 6, cr6, cr9, cr5, {3}
    13e8:	692d6465 	pushvs	{r0, r2, r5, r6, sl, sp, lr}
    13ec:	2e74736e 	cdpcs	3, 7, cr7, cr4, cr14, {3}
    13f0:	6e750063 	cdpvs	0, 7, cr0, cr5, cr3, {3}
    13f4:	69666564 	stmdbvs	r6!, {r2, r5, r6, r8, sl, sp, lr}^
    13f8:	5f64656e 	svcpl	0x0064656e
    13fc:	74736e69 	ldrbtvc	r6, [r3], #-3689	; 0xe69
    1400:	74637572 	strbtvc	r7, [r3], #-1394	; 0x572
    1404:	5f6e6f69 	svcpl	0x006e6f69
    1408:	74636576 	strbtvc	r6, [r3], #-1398	; 0x576
    140c:	Address 0x000000000000140c is out of bounds.


Disassembly of section .debug_frame:

00000000 <.debug_frame>:
   0:	0000000c 	andeq	r0, r0, ip
   4:	ffffffff 			; <UNDEFINED> instruction: 0xffffffff
   8:	7c020001 	stcvc	0, cr0, [r2], {1}
   c:	000d0c0e 	andeq	r0, sp, lr, lsl #24
  10:	00000014 	andeq	r0, r0, r4, lsl r0
  14:	00000000 	andeq	r0, r0, r0
  18:	00008010 	andeq	r8, r0, r0, lsl r0
  1c:	00000020 	andeq	r0, r0, r0, lsr #32
  20:	83080e42 	movwhi	r0, #36418	; 0x8e42
  24:	00018e02 	andeq	r8, r1, r2, lsl #28
  28:	0000000c 	andeq	r0, r0, ip
  2c:	00000000 	andeq	r0, r0, r0
  30:	00008030 	andeq	r8, r0, r0, lsr r0
  34:	00000004 	andeq	r0, r0, r4
  38:	00000018 	andeq	r0, r0, r8, lsl r0
  3c:	00000000 	andeq	r0, r0, r0
  40:	00008034 	andeq	r8, r0, r4, lsr r0
  44:	000000a4 	andeq	r0, r0, r4, lsr #1
  48:	84100e42 	ldrhi	r0, [r0], #-3650	; 0xe42
  4c:	86038504 	strhi	r8, [r3], -r4, lsl #10
  50:	00018e02 	andeq	r8, r1, r2, lsl #28
  54:	0000000c 	andeq	r0, r0, ip
  58:	00000000 	andeq	r0, r0, r0
  5c:	000080d8 	ldrdeq	r8, [r0], -r8	; <UNPREDICTABLE>
  60:	00000004 	andeq	r0, r0, r4
  64:	00000014 	andeq	r0, r0, r4, lsl r0
  68:	00000000 	andeq	r0, r0, r0
  6c:	000080dc 	ldrdeq	r8, [r0], -ip
  70:	000000b8 	strheq	r0, [r0], -r8
  74:	83080e42 	movwhi	r0, #36418	; 0x8e42
  78:	00018e02 	andeq	r8, r1, r2, lsl #28
  7c:	0000000c 	andeq	r0, r0, ip
  80:	ffffffff 			; <UNDEFINED> instruction: 0xffffffff
  84:	7c020001 	stcvc	0, cr0, [r2], {1}
  88:	000d0c0e 	andeq	r0, sp, lr, lsl #24
  8c:	0000000c 	andeq	r0, r0, ip
  90:	0000007c 	andeq	r0, r0, ip, ror r0
  94:	00008194 	muleq	r0, r4, r1
  98:	00000004 	andeq	r0, r0, r4
  9c:	00000018 	andeq	r0, r0, r8, lsl r0
  a0:	0000007c 	andeq	r0, r0, ip, ror r0
  a4:	00008198 	muleq	r0, r8, r1
  a8:	000000a0 	andeq	r0, r0, r0, lsr #1
  ac:	83100e42 	tsthi	r0, #1056	; 0x420
  b0:	85038404 	strhi	r8, [r3, #-1028]	; 0x404
  b4:	00018e02 	andeq	r8, r1, r2, lsl #28
  b8:	0000001c 	andeq	r0, r0, ip, lsl r0
  bc:	0000007c 	andeq	r0, r0, ip, ror r0
  c0:	00008238 	andeq	r8, r0, r8, lsr r2
  c4:	00000048 	andeq	r0, r0, r8, asr #32
  c8:	84180e42 	ldrhi	r0, [r8], #-3650	; 0xe42
  cc:	86058506 	strhi	r8, [r5], -r6, lsl #10
  d0:	88038704 	stmdahi	r3, {r2, r8, r9, sl, pc}
  d4:	00018e02 	andeq	r8, r1, r2, lsl #28
  d8:	00000014 	andeq	r0, r0, r4, lsl r0
  dc:	0000007c 	andeq	r0, r0, ip, ror r0
  e0:	00008280 	andeq	r8, r0, r0, lsl #5
  e4:	00000078 	andeq	r0, r0, r8, ror r0
  e8:	84080e42 	strhi	r0, [r8], #-3650	; 0xe42
  ec:	00018e02 	andeq	r8, r1, r2, lsl #28
  f0:	00000014 	andeq	r0, r0, r4, lsl r0
  f4:	0000007c 	andeq	r0, r0, ip, ror r0
  f8:	000082f8 	strdeq	r8, [r0], -r8	; <UNPREDICTABLE>
  fc:	00000060 	andeq	r0, r0, r0, rrx
 100:	83080e42 	movwhi	r0, #36418	; 0x8e42
 104:	00018e02 	andeq	r8, r1, r2, lsl #28
 108:	00000014 	andeq	r0, r0, r4, lsl r0
 10c:	0000007c 	andeq	r0, r0, ip, ror r0
 110:	00008358 	andeq	r8, r0, r8, asr r3
 114:	00000014 	andeq	r0, r0, r4, lsl r0
 118:	83080e42 	movwhi	r0, #36418	; 0x8e42
 11c:	00018e02 	andeq	r8, r1, r2, lsl #28
 120:	00000014 	andeq	r0, r0, r4, lsl r0
 124:	0000007c 	andeq	r0, r0, ip, ror r0
 128:	0000836c 	andeq	r8, r0, ip, ror #6
 12c:	00000070 	andeq	r0, r0, r0, ror r0
 130:	84080e42 	strhi	r0, [r8], #-3650	; 0xe42
 134:	00018e02 	andeq	r8, r1, r2, lsl #28
 138:	0000001c 	andeq	r0, r0, ip, lsl r0
 13c:	0000007c 	andeq	r0, r0, ip, ror r0
 140:	000083dc 	ldrdeq	r8, [r0], -ip
 144:	000000d4 	ldrdeq	r0, [r0], -r4
 148:	84180e42 	ldrhi	r0, [r8], #-3650	; 0xe42
 14c:	86058506 	strhi	r8, [r5], -r6, lsl #10
 150:	88038704 	stmdahi	r3, {r2, r8, r9, sl, pc}
 154:	00018e02 	andeq	r8, r1, r2, lsl #28
 158:	00000020 	andeq	r0, r0, r0, lsr #32
 15c:	0000007c 	andeq	r0, r0, ip, ror r0
 160:	000084b0 			; <UNDEFINED> instruction: 0x000084b0
 164:	00000240 	andeq	r0, r0, r0, asr #4
 168:	841c0e42 	ldrhi	r0, [ip], #-3650	; 0xe42
 16c:	86068507 	strhi	r8, [r6], -r7, lsl #10
 170:	88048705 	stmdahi	r4, {r0, r2, r8, r9, sl, pc}
 174:	8e028903 	cdphi	9, 0, cr8, cr2, cr3, {0}
 178:	280e4201 	stmdacs	lr, {r0, r9, lr}
 17c:	0000001c 	andeq	r0, r0, ip, lsl r0
 180:	0000007c 	andeq	r0, r0, ip, ror r0
 184:	000086f0 	strdeq	r8, [r0], -r0
 188:	000001a0 	andeq	r0, r0, r0, lsr #3
 18c:	83180e42 	tsthi	r8, #1056	; 0x420
 190:	85058406 	strhi	r8, [r5, #-1030]	; 0x406
 194:	87038604 	strhi	r8, [r3, -r4, lsl #12]
 198:	00018e02 	andeq	r8, r1, r2, lsl #28
 19c:	00000014 	andeq	r0, r0, r4, lsl r0
 1a0:	0000007c 	andeq	r0, r0, ip, ror r0
 1a4:	00008890 	muleq	r0, r0, r8
 1a8:	00000050 	andeq	r0, r0, r0, asr r0
 1ac:	84080e42 	strhi	r0, [r8], #-3650	; 0xe42
 1b0:	00018e02 	andeq	r8, r1, r2, lsl #28
 1b4:	00000014 	andeq	r0, r0, r4, lsl r0
 1b8:	0000007c 	andeq	r0, r0, ip, ror r0
 1bc:	000088e0 	andeq	r8, r0, r0, ror #17
 1c0:	00000098 	muleq	r0, r8, r0
 1c4:	84080e42 	strhi	r0, [r8], #-3650	; 0xe42
 1c8:	00018e02 	andeq	r8, r1, r2, lsl #28
 1cc:	0000000c 	andeq	r0, r0, ip
 1d0:	0000007c 	andeq	r0, r0, ip, ror r0
 1d4:	00008978 	andeq	r8, r0, r8, ror r9
 1d8:	0000001c 	andeq	r0, r0, ip, lsl r0
 1dc:	0000000c 	andeq	r0, r0, ip
 1e0:	0000007c 	andeq	r0, r0, ip, ror r0
 1e4:	00008994 	muleq	r0, r4, r9
 1e8:	00000004 	andeq	r0, r0, r4
 1ec:	0000000c 	andeq	r0, r0, ip
 1f0:	ffffffff 			; <UNDEFINED> instruction: 0xffffffff
 1f4:	7c020001 	stcvc	0, cr0, [r2], {1}
 1f8:	000d0c0e 	andeq	r0, sp, lr, lsl #24
 1fc:	0000000c 	andeq	r0, r0, ip
 200:	000001ec 	andeq	r0, r0, ip, ror #3
 204:	00008998 	muleq	r0, r8, r9
 208:	0000003c 	andeq	r0, r0, ip, lsr r0
 20c:	00000014 	andeq	r0, r0, r4, lsl r0
 210:	000001ec 	andeq	r0, r0, ip, ror #3
 214:	000089d4 	ldrdeq	r8, [r0], -r4
 218:	00000078 	andeq	r0, r0, r8, ror r0
 21c:	84080e42 	strhi	r0, [r8], #-3650	; 0xe42
 220:	00018e02 	andeq	r8, r1, r2, lsl #28
 224:	00000018 	andeq	r0, r0, r8, lsl r0
 228:	000001ec 	andeq	r0, r0, ip, ror #3
 22c:	00008a4c 	andeq	r8, r0, ip, asr #20
 230:	000000f8 	strdeq	r0, [r0], -r8
 234:	84100e42 	ldrhi	r0, [r0], #-3650	; 0xe42
 238:	86038504 	strhi	r8, [r3], -r4, lsl #10
 23c:	00018e02 	andeq	r8, r1, r2, lsl #28
 240:	00000024 	andeq	r0, r0, r4, lsr #32
 244:	000001ec 	andeq	r0, r0, ip, ror #3
 248:	00008b44 	andeq	r8, r0, r4, asr #22
 24c:	00000134 	andeq	r0, r0, r4, lsr r1
 250:	83280e42 	teqhi	r8, #1056	; 0x420
 254:	8509840a 	strhi	r8, [r9, #-1034]	; 0x40a
 258:	87078608 	strhi	r8, [r7, -r8, lsl #12]
 25c:	89058806 	stmdbhi	r5, {r1, r2, fp, pc}
 260:	8b038a04 	blhi	e2a78 <__bss_end__+0xd6ec8>
 264:	00018e02 	andeq	r8, r1, r2, lsl #28
 268:	00000018 	andeq	r0, r0, r8, lsl r0
 26c:	000001ec 	andeq	r0, r0, ip, ror #3
 270:	00008c78 	andeq	r8, r0, r8, ror ip
 274:	000000f4 	strdeq	r0, [r0], -r4
 278:	84080e42 	strhi	r0, [r8], #-3650	; 0xe42
 27c:	42018e02 	andmi	r8, r1, #2, 28
 280:	0000580e 	andeq	r5, r0, lr, lsl #16
 284:	00000014 	andeq	r0, r0, r4, lsl r0
 288:	000001ec 	andeq	r0, r0, ip, ror #3
 28c:	00008d6c 	andeq	r8, r0, ip, ror #26
 290:	00000018 	andeq	r0, r0, r8, lsl r0
 294:	84080e42 	strhi	r0, [r8], #-3650	; 0xe42
 298:	00018e02 	andeq	r8, r1, r2, lsl #28
 29c:	00000014 	andeq	r0, r0, r4, lsl r0
 2a0:	000001ec 	andeq	r0, r0, ip, ror #3
 2a4:	00008d84 	andeq	r8, r0, r4, lsl #27
 2a8:	000000a0 	andeq	r0, r0, r0, lsr #1
 2ac:	83080e42 	movwhi	r0, #36418	; 0x8e42
 2b0:	00018e02 	andeq	r8, r1, r2, lsl #28
 2b4:	00000014 	andeq	r0, r0, r4, lsl r0
 2b8:	000001ec 	andeq	r0, r0, ip, ror #3
 2bc:	00008e24 	andeq	r8, r0, r4, lsr #28
 2c0:	000000a4 	andeq	r0, r0, r4, lsr #1
 2c4:	84080e42 	strhi	r0, [r8], #-3650	; 0xe42
 2c8:	00018e02 	andeq	r8, r1, r2, lsl #28
 2cc:	00000014 	andeq	r0, r0, r4, lsl r0
 2d0:	000001ec 	andeq	r0, r0, ip, ror #3
 2d4:	00008ec8 	andeq	r8, r0, r8, asr #29
 2d8:	0000002c 	andeq	r0, r0, ip, lsr #32
 2dc:	83080e42 	movwhi	r0, #36418	; 0x8e42
 2e0:	00018e02 	andeq	r8, r1, r2, lsl #28
 2e4:	00000024 	andeq	r0, r0, r4, lsr #32
 2e8:	000001ec 	andeq	r0, r0, ip, ror #3
 2ec:	00008ef4 	strdeq	r8, [r0], -r4
 2f0:	00000120 	andeq	r0, r0, r0, lsr #2
 2f4:	84240e42 	strthi	r0, [r4], #-3650	; 0xe42
 2f8:	86088509 	strhi	r8, [r8], -r9, lsl #10
 2fc:	88068707 	stmdahi	r6, {r0, r1, r2, r8, r9, sl, pc}
 300:	8a048905 	bhi	12271c <__bss_end__+0x116b6c>
 304:	8e028b03 	vmlahi.f64	d8, d2, d3
 308:	380e4201 	stmdacc	lr, {r0, r9, lr}
 30c:	00000014 	andeq	r0, r0, r4, lsl r0
 310:	000001ec 	andeq	r0, r0, ip, ror #3
 314:	00009014 	andeq	r9, r0, r4, lsl r0
 318:	00000010 	andeq	r0, r0, r0, lsl r0
 31c:	83080e42 	movwhi	r0, #36418	; 0x8e42
 320:	00018e02 	andeq	r8, r1, r2, lsl #28
 324:	0000000c 	andeq	r0, r0, ip
 328:	ffffffff 			; <UNDEFINED> instruction: 0xffffffff
 32c:	7c020001 	stcvc	0, cr0, [r2], {1}
 330:	000d0c0e 	andeq	r0, sp, lr, lsl #24
 334:	00000018 	andeq	r0, r0, r8, lsl r0
 338:	00000324 	andeq	r0, r0, r4, lsr #6
 33c:	0000902c 	andeq	r9, r0, ip, lsr #32
 340:	0000006c 	andeq	r0, r0, ip, rrx
 344:	83100e42 	tsthi	r0, #1056	; 0x420
 348:	85038404 	strhi	r8, [r3, #-1028]	; 0x404
 34c:	00018e02 	andeq	r8, r1, r2, lsl #28
 350:	0000000c 	andeq	r0, r0, ip
 354:	00000324 	andeq	r0, r0, r4, lsr #6
 358:	00009098 	muleq	r0, r8, r0
 35c:	00000054 	andeq	r0, r0, r4, asr r0
 360:	00000014 	andeq	r0, r0, r4, lsl r0
 364:	00000324 	andeq	r0, r0, r4, lsr #6
 368:	000090ec 	andeq	r9, r0, ip, ror #1
 36c:	00000050 	andeq	r0, r0, r0, asr r0
 370:	83080e42 	movwhi	r0, #36418	; 0x8e42
 374:	00018e02 	andeq	r8, r1, r2, lsl #28
 378:	00000014 	andeq	r0, r0, r4, lsl r0
 37c:	00000324 	andeq	r0, r0, r4, lsr #6
 380:	0000913c 	andeq	r9, r0, ip, lsr r1
 384:	00000064 	andeq	r0, r0, r4, rrx
 388:	84080e42 	strhi	r0, [r8], #-3650	; 0xe42
 38c:	00018e02 	andeq	r8, r1, r2, lsl #28
 390:	00000018 	andeq	r0, r0, r8, lsl r0
 394:	00000324 	andeq	r0, r0, r4, lsr #6
 398:	000091a0 	andeq	r9, r0, r0, lsr #3
 39c:	00000058 	andeq	r0, r0, r8, asr r0
 3a0:	83100e42 	tsthi	r0, #1056	; 0x420
 3a4:	85038404 	strhi	r8, [r3, #-1028]	; 0x404
 3a8:	00018e02 	andeq	r8, r1, r2, lsl #28
 3ac:	00000014 	andeq	r0, r0, r4, lsl r0
 3b0:	00000324 	andeq	r0, r0, r4, lsr #6
 3b4:	000091f8 	strdeq	r9, [r0], -r8
 3b8:	00000098 	muleq	r0, r8, r0
 3bc:	84080e42 	strhi	r0, [r8], #-3650	; 0xe42
 3c0:	00018e02 	andeq	r8, r1, r2, lsl #28
 3c4:	0000000c 	andeq	r0, r0, ip
 3c8:	00000324 	andeq	r0, r0, r4, lsr #6
 3cc:	00009290 	muleq	r0, r0, r2
 3d0:	00000058 	andeq	r0, r0, r8, asr r0
 3d4:	0000001c 	andeq	r0, r0, ip, lsl r0
 3d8:	00000324 	andeq	r0, r0, r4, lsr #6
 3dc:	000092e8 	andeq	r9, r0, r8, ror #5
 3e0:	000000e0 	andeq	r0, r0, r0, ror #1
 3e4:	83180e42 	tsthi	r8, #1056	; 0x420
 3e8:	85058406 	strhi	r8, [r5, #-1030]	; 0x406
 3ec:	87038604 	strhi	r8, [r3, -r4, lsl #12]
 3f0:	00018e02 	andeq	r8, r1, r2, lsl #28
 3f4:	00000014 	andeq	r0, r0, r4, lsl r0
 3f8:	00000324 	andeq	r0, r0, r4, lsr #6
 3fc:	000093c8 	andeq	r9, r0, r8, asr #7
 400:	0000015c 	andeq	r0, r0, ip, asr r1
 404:	83080e42 	movwhi	r0, #36418	; 0x8e42
 408:	00018e02 	andeq	r8, r1, r2, lsl #28
 40c:	00000014 	andeq	r0, r0, r4, lsl r0
 410:	00000324 	andeq	r0, r0, r4, lsr #6
 414:	00009524 	andeq	r9, r0, r4, lsr #10
 418:	00000050 	andeq	r0, r0, r0, asr r0
 41c:	83080e42 	movwhi	r0, #36418	; 0x8e42
 420:	00018e02 	andeq	r8, r1, r2, lsl #28
 424:	00000014 	andeq	r0, r0, r4, lsl r0
 428:	00000324 	andeq	r0, r0, r4, lsr #6
 42c:	00009574 	andeq	r9, r0, r4, ror r5
 430:	00000084 	andeq	r0, r0, r4, lsl #1
 434:	83080e42 	movwhi	r0, #36418	; 0x8e42
 438:	00018e02 	andeq	r8, r1, r2, lsl #28
 43c:	00000014 	andeq	r0, r0, r4, lsl r0
 440:	00000324 	andeq	r0, r0, r4, lsr #6
 444:	000095f8 	strdeq	r9, [r0], -r8
 448:	00000080 	andeq	r0, r0, r0, lsl #1
 44c:	83080e42 	movwhi	r0, #36418	; 0x8e42
 450:	00018e02 	andeq	r8, r1, r2, lsl #28
 454:	00000014 	andeq	r0, r0, r4, lsl r0
 458:	00000324 	andeq	r0, r0, r4, lsr #6
 45c:	00009678 	andeq	r9, r0, r8, ror r6
 460:	0000009c 	muleq	r0, ip, r0
 464:	84080e42 	strhi	r0, [r8], #-3650	; 0xe42
 468:	00018e02 	andeq	r8, r1, r2, lsl #28
 46c:	0000000c 	andeq	r0, r0, ip
 470:	ffffffff 			; <UNDEFINED> instruction: 0xffffffff
 474:	7c020001 	stcvc	0, cr0, [r2], {1}
 478:	000d0c0e 	andeq	r0, sp, lr, lsl #24
 47c:	00000014 	andeq	r0, r0, r4, lsl r0
 480:	0000046c 	andeq	r0, r0, ip, ror #8
 484:	000097ac 	andeq	r9, r0, ip, lsr #15
 488:	000000f0 	strdeq	r0, [r0], -r0	; <UNPREDICTABLE>
 48c:	84040e42 	strhi	r0, [r4], #-3650	; 0xe42
 490:	00000001 	andeq	r0, r0, r1
 494:	0000000c 	andeq	r0, r0, ip
 498:	ffffffff 			; <UNDEFINED> instruction: 0xffffffff
 49c:	7c020001 	stcvc	0, cr0, [r2], {1}
 4a0:	000d0c0e 	andeq	r0, sp, lr, lsl #24
 4a4:	0000000c 	andeq	r0, r0, ip
 4a8:	00000494 	muleq	r0, r4, r4
 4ac:	0000989c 	muleq	r0, ip, r8
 4b0:	00000020 	andeq	r0, r0, r0, lsr #32
 4b4:	0000000c 	andeq	r0, r0, ip
 4b8:	ffffffff 			; <UNDEFINED> instruction: 0xffffffff
 4bc:	7c020001 	stcvc	0, cr0, [r2], {1}
 4c0:	000d0c0e 	andeq	r0, sp, lr, lsl #24
 4c4:	00000024 	andeq	r0, r0, r4, lsr #32
 4c8:	000004b4 			; <UNDEFINED> instruction: 0x000004b4
 4cc:	000098bc 			; <UNDEFINED> instruction: 0x000098bc
 4d0:	00000058 	andeq	r0, r0, r8, asr r0
 4d4:	80100e42 	andshi	r0, r0, r2, asr #28
 4d8:	82038104 	andhi	r8, r3, #4, 2
 4dc:	42018302 	andmi	r8, r1, #134217728	; 0x8000000
 4e0:	07841c0e 	streq	r1, [r4, lr, lsl #24]
 4e4:	058e0685 	streq	r0, [lr, #1669]	; 0x685
 4e8:	00280e42 	eoreq	r0, r8, r2, asr #28
 4ec:	0000000c 	andeq	r0, r0, ip
 4f0:	ffffffff 			; <UNDEFINED> instruction: 0xffffffff
 4f4:	7c020001 	stcvc	0, cr0, [r2], {1}
 4f8:	000d0c0e 	andeq	r0, sp, lr, lsl #24
 4fc:	00000014 	andeq	r0, r0, r4, lsl r0
 500:	000004ec 	andeq	r0, r0, ip, ror #9
 504:	00009914 	andeq	r9, r0, r4, lsl r9
 508:	00000014 	andeq	r0, r0, r4, lsl r0
 50c:	84080e42 	strhi	r0, [r8], #-3650	; 0xe42
 510:	00018e02 	andeq	r8, r1, r2, lsl #28
 514:	0000000c 	andeq	r0, r0, ip
 518:	000004ec 	andeq	r0, r0, ip, ror #9
 51c:	00009928 	andeq	r9, r0, r8, lsr #18
 520:	00000018 	andeq	r0, r0, r8, lsl r0
 524:	0000000c 	andeq	r0, r0, ip
 528:	000004ec 	andeq	r0, r0, ip, ror #9
 52c:	00009940 	andeq	r9, r0, r0, asr #18
 530:	00000010 	andeq	r0, r0, r0, lsl r0
 534:	0000000c 	andeq	r0, r0, ip
 538:	ffffffff 			; <UNDEFINED> instruction: 0xffffffff
 53c:	7c020001 	stcvc	0, cr0, [r2], {1}
 540:	000d0c0e 	andeq	r0, sp, lr, lsl #24
 544:	00000018 	andeq	r0, r0, r8, lsl r0
 548:	00000534 	andeq	r0, r0, r4, lsr r5
 54c:	00009950 	andeq	r9, r0, r0, asr r9
 550:	00000034 	andeq	r0, r0, r4, lsr r0
 554:	83100e42 	tsthi	r0, #1056	; 0x420
 558:	85038404 	strhi	r8, [r3, #-1028]	; 0x404
 55c:	00018e02 	andeq	r8, r1, r2, lsl #28
 560:	0000000c 	andeq	r0, r0, ip
 564:	ffffffff 			; <UNDEFINED> instruction: 0xffffffff
 568:	7c020001 	stcvc	0, cr0, [r2], {1}
 56c:	000d0c0e 	andeq	r0, sp, lr, lsl #24
 570:	0000000c 	andeq	r0, r0, ip
 574:	00000560 	andeq	r0, r0, r0, ror #10
 578:	00009984 	andeq	r9, r0, r4, lsl #19
 57c:	00000014 	andeq	r0, r0, r4, lsl r0
 580:	0000000c 	andeq	r0, r0, ip
 584:	00000560 	andeq	r0, r0, r0, ror #10
 588:	00009998 	muleq	r0, r8, r9
 58c:	0000002c 	andeq	r0, r0, ip, lsr #32
 590:	0000000c 	andeq	r0, r0, ip
 594:	00000560 	andeq	r0, r0, r0, ror #10
 598:	000099c4 	andeq	r9, r0, r4, asr #19
 59c:	00000040 	andeq	r0, r0, r0, asr #32
 5a0:	00000020 	andeq	r0, r0, r0, lsr #32
 5a4:	00000560 	andeq	r0, r0, r0, ror #10
 5a8:	00009a04 	andeq	r9, r0, r4, lsl #20
 5ac:	000001b0 			; <UNDEFINED> instruction: 0x000001b0
 5b0:	84180e42 	ldrhi	r0, [r8], #-3650	; 0xe42
 5b4:	86058506 	strhi	r8, [r5], -r6, lsl #10
 5b8:	88038704 	stmdahi	r3, {r2, r8, r9, sl, pc}
 5bc:	42018e02 	andmi	r8, r1, #2, 28
 5c0:	0000580e 	andeq	r5, r0, lr, lsl #16
 5c4:	00000014 	andeq	r0, r0, r4, lsl r0
 5c8:	00000560 	andeq	r0, r0, r0, ror #10
 5cc:	00009bb4 			; <UNDEFINED> instruction: 0x00009bb4
 5d0:	00000054 	andeq	r0, r0, r4, asr r0
 5d4:	83080e42 	movwhi	r0, #36418	; 0x8e42
 5d8:	00018e02 	andeq	r8, r1, r2, lsl #28
 5dc:	00000028 	andeq	r0, r0, r8, lsr #32
 5e0:	00000560 	andeq	r0, r0, r0, ror #10
 5e4:	00009c08 	andeq	r9, r0, r8, lsl #24
 5e8:	00000288 	andeq	r0, r0, r8, lsl #5
 5ec:	84240e42 	strthi	r0, [r4], #-3650	; 0xe42
 5f0:	86088509 	strhi	r8, [r8], -r9, lsl #10
 5f4:	88068707 	stmdahi	r6, {r0, r1, r2, r8, r9, sl, pc}
 5f8:	8a048905 	bhi	122a14 <__bss_end__+0x116e64>
 5fc:	8e028b03 	vmlahi.f64	d8, d2, d3
 600:	b00e4201 	andlt	r4, lr, r1, lsl #4
 604:	00000001 	andeq	r0, r0, r1
 608:	0000000c 	andeq	r0, r0, ip
 60c:	ffffffff 			; <UNDEFINED> instruction: 0xffffffff
 610:	7c020001 	stcvc	0, cr0, [r2], {1}
 614:	000d0c0e 	andeq	r0, sp, lr, lsl #24
 618:	00000014 	andeq	r0, r0, r4, lsl r0
 61c:	00000608 	andeq	r0, r0, r8, lsl #12
 620:	00009e90 	muleq	r0, r0, lr
 624:	00000028 	andeq	r0, r0, r8, lsr #32
 628:	83080e42 	movwhi	r0, #36418	; 0x8e42
 62c:	00018e02 	andeq	r8, r1, r2, lsl #28
 630:	0000000c 	andeq	r0, r0, ip
 634:	ffffffff 			; <UNDEFINED> instruction: 0xffffffff
 638:	7c020001 	stcvc	0, cr0, [r2], {1}
 63c:	000d0c0e 	andeq	r0, sp, lr, lsl #24
 640:	00000014 	andeq	r0, r0, r4, lsl r0
 644:	00000630 	andeq	r0, r0, r0, lsr r6
 648:	00009eb8 			; <UNDEFINED> instruction: 0x00009eb8
 64c:	00000034 	andeq	r0, r0, r4, lsr r0
 650:	83080e42 	movwhi	r0, #36418	; 0x8e42
 654:	00018e02 	andeq	r8, r1, r2, lsl #28
 658:	0000000c 	andeq	r0, r0, ip
 65c:	ffffffff 			; <UNDEFINED> instruction: 0xffffffff
 660:	7c020001 	stcvc	0, cr0, [r2], {1}
 664:	000d0c0e 	andeq	r0, sp, lr, lsl #24
 668:	00000014 	andeq	r0, r0, r4, lsl r0
 66c:	00000658 	andeq	r0, r0, r8, asr r6
 670:	00009eec 	andeq	r9, r0, ip, ror #29
 674:	00000044 	andeq	r0, r0, r4, asr #32
 678:	8e040e42 	cdphi	14, 0, cr0, cr4, cr2, {2}
 67c:	100e4201 	andne	r4, lr, r1, lsl #4
 680:	0000000c 	andeq	r0, r0, ip
 684:	ffffffff 			; <UNDEFINED> instruction: 0xffffffff
 688:	7c020001 	stcvc	0, cr0, [r2], {1}
 68c:	000d0c0e 	andeq	r0, sp, lr, lsl #24
 690:	00000014 	andeq	r0, r0, r4, lsl r0
 694:	00000680 	andeq	r0, r0, r0, lsl #13
 698:	00009f30 	andeq	r9, r0, r0, lsr pc
 69c:	00000044 	andeq	r0, r0, r4, asr #32
 6a0:	8e040e42 	cdphi	14, 0, cr0, cr4, cr2, {2}
 6a4:	100e4201 	andne	r4, lr, r1, lsl #4
 6a8:	0000000c 	andeq	r0, r0, ip
 6ac:	ffffffff 			; <UNDEFINED> instruction: 0xffffffff
 6b0:	7c020001 	stcvc	0, cr0, [r2], {1}
 6b4:	000d0c0e 	andeq	r0, sp, lr, lsl #24
 6b8:	00000014 	andeq	r0, r0, r4, lsl r0
 6bc:	000006a8 	andeq	r0, r0, r8, lsr #13
 6c0:	00009f74 	andeq	r9, r0, r4, ror pc
 6c4:	00000044 	andeq	r0, r0, r4, asr #32
 6c8:	8e040e42 	cdphi	14, 0, cr0, cr4, cr2, {2}
 6cc:	100e4201 	andne	r4, lr, r1, lsl #4
 6d0:	0000000c 	andeq	r0, r0, ip
 6d4:	ffffffff 			; <UNDEFINED> instruction: 0xffffffff
 6d8:	7c020001 	stcvc	0, cr0, [r2], {1}
 6dc:	000d0c0e 	andeq	r0, sp, lr, lsl #24
 6e0:	00000014 	andeq	r0, r0, r4, lsl r0
 6e4:	000006d0 	ldrdeq	r0, [r0], -r0	; <UNPREDICTABLE>
 6e8:	00009fb8 			; <UNDEFINED> instruction: 0x00009fb8
 6ec:	00000044 	andeq	r0, r0, r4, asr #32
 6f0:	8e040e42 	cdphi	14, 0, cr0, cr4, cr2, {2}
 6f4:	100e4201 	andne	r4, lr, r1, lsl #4
 6f8:	0000000c 	andeq	r0, r0, ip
 6fc:	ffffffff 			; <UNDEFINED> instruction: 0xffffffff
 700:	7c020001 	stcvc	0, cr0, [r2], {1}
 704:	000d0c0e 	andeq	r0, sp, lr, lsl #24
 708:	00000014 	andeq	r0, r0, r4, lsl r0
 70c:	000006f8 	strdeq	r0, [r0], -r8
 710:	00009ffc 	strdeq	r9, [r0], -ip
 714:	00000044 	andeq	r0, r0, r4, asr #32
 718:	8e040e42 	cdphi	14, 0, cr0, cr4, cr2, {2}
 71c:	100e4201 	andne	r4, lr, r1, lsl #4
 720:	0000000c 	andeq	r0, r0, ip
 724:	ffffffff 			; <UNDEFINED> instruction: 0xffffffff
 728:	7c020001 	stcvc	0, cr0, [r2], {1}
 72c:	000d0c0e 	andeq	r0, sp, lr, lsl #24
 730:	00000014 	andeq	r0, r0, r4, lsl r0
 734:	00000720 	andeq	r0, r0, r0, lsr #14
 738:	0000a040 	andeq	sl, r0, r0, asr #32
 73c:	0000006c 	andeq	r0, r0, ip, rrx
 740:	83080e42 	movwhi	r0, #36418	; 0x8e42
 744:	00018e02 	andeq	r8, r1, r2, lsl #28
 748:	0000000c 	andeq	r0, r0, ip
 74c:	ffffffff 			; <UNDEFINED> instruction: 0xffffffff
 750:	7c020001 	stcvc	0, cr0, [r2], {1}
 754:	000d0c0e 	andeq	r0, sp, lr, lsl #24
 758:	0000000c 	andeq	r0, r0, ip
 75c:	00000748 	andeq	r0, r0, r8, asr #14
 760:	0000a0ac 	andeq	sl, r0, ip, lsr #1
 764:	00000018 	andeq	r0, r0, r8, lsl r0
 768:	0000000c 	andeq	r0, r0, ip
 76c:	00000748 	andeq	r0, r0, r8, asr #14
 770:	0000a0c4 	andeq	sl, r0, r4, asr #1
 774:	00000014 	andeq	r0, r0, r4, lsl r0
 778:	00000014 	andeq	r0, r0, r4, lsl r0
 77c:	00000748 	andeq	r0, r0, r8, asr #14
 780:	0000a0d8 	ldrdeq	sl, [r0], -r8
 784:	00000048 	andeq	r0, r0, r8, asr #32
 788:	83080e42 	movwhi	r0, #36418	; 0x8e42
 78c:	00018e02 	andeq	r8, r1, r2, lsl #28
 790:	0000000c 	andeq	r0, r0, ip
 794:	ffffffff 			; <UNDEFINED> instruction: 0xffffffff
 798:	7c020001 	stcvc	0, cr0, [r2], {1}
 79c:	000d0c0e 	andeq	r0, sp, lr, lsl #24
 7a0:	00000014 	andeq	r0, r0, r4, lsl r0
 7a4:	00000790 	muleq	r0, r0, r7
 7a8:	0000a120 	andeq	sl, r0, r0, lsr #2
 7ac:	0000001c 	andeq	r0, r0, ip, lsl r0
 7b0:	8e040e42 	cdphi	14, 0, cr0, cr4, cr2, {2}
 7b4:	200e4201 	andcs	r4, lr, r1, lsl #4
 7b8:	00000014 	andeq	r0, r0, r4, lsl r0
 7bc:	00000790 	muleq	r0, r0, r7
 7c0:	0000a13c 	andeq	sl, r0, ip, lsr r1
 7c4:	00000040 	andeq	r0, r0, r0, asr #32
 7c8:	84080e42 	strhi	r0, [r8], #-3650	; 0xe42
 7cc:	00018e02 	andeq	r8, r1, r2, lsl #28
 7d0:	0000000c 	andeq	r0, r0, ip
 7d4:	ffffffff 			; <UNDEFINED> instruction: 0xffffffff
 7d8:	7c020001 	stcvc	0, cr0, [r2], {1}
 7dc:	000d0c0e 	andeq	r0, sp, lr, lsl #24
 7e0:	0000000c 	andeq	r0, r0, ip
 7e4:	000007d0 	ldrdeq	r0, [r0], -r0	; <UNPREDICTABLE>
 7e8:	0000a17c 	andeq	sl, r0, ip, ror r1
 7ec:	0000001c 	andeq	r0, r0, ip, lsl r0
 7f0:	00000014 	andeq	r0, r0, r4, lsl r0
 7f4:	000007d0 	ldrdeq	r0, [r0], -r0	; <UNPREDICTABLE>
 7f8:	0000a198 	muleq	r0, r8, r1
 7fc:	00000014 	andeq	r0, r0, r4, lsl r0
 800:	83080e42 	movwhi	r0, #36418	; 0x8e42
 804:	00018e02 	andeq	r8, r1, r2, lsl #28
 808:	00000014 	andeq	r0, r0, r4, lsl r0
 80c:	000007d0 	ldrdeq	r0, [r0], -r0	; <UNPREDICTABLE>
 810:	0000a1ac 	andeq	sl, r0, ip, lsr #3
 814:	0000000c 	andeq	r0, r0, ip
 818:	83080e42 	movwhi	r0, #36418	; 0x8e42
 81c:	00018e02 	andeq	r8, r1, r2, lsl #28
 820:	00000018 	andeq	r0, r0, r8, lsl r0
 824:	000007d0 	ldrdeq	r0, [r0], -r0	; <UNPREDICTABLE>
 828:	0000a1b8 			; <UNDEFINED> instruction: 0x0000a1b8
 82c:	00000024 	andeq	r0, r0, r4, lsr #32
 830:	83100e42 	tsthi	r0, #1056	; 0x420
 834:	85038404 	strhi	r8, [r3, #-1028]	; 0x404
 838:	00018e02 	andeq	r8, r1, r2, lsl #28
 83c:	00000014 	andeq	r0, r0, r4, lsl r0
 840:	000007d0 	ldrdeq	r0, [r0], -r0	; <UNPREDICTABLE>
 844:	0000a1dc 	ldrdeq	sl, [r0], -ip
 848:	00000014 	andeq	r0, r0, r4, lsl r0
 84c:	83080e42 	movwhi	r0, #36418	; 0x8e42
 850:	00018e02 	andeq	r8, r1, r2, lsl #28
 854:	00000014 	andeq	r0, r0, r4, lsl r0
 858:	000007d0 	ldrdeq	r0, [r0], -r0	; <UNPREDICTABLE>
 85c:	0000a1f0 	strdeq	sl, [r0], -r0
 860:	00000014 	andeq	r0, r0, r4, lsl r0
 864:	83080e42 	movwhi	r0, #36418	; 0x8e42
 868:	00018e02 	andeq	r8, r1, r2, lsl #28
 86c:	0000000c 	andeq	r0, r0, ip
 870:	ffffffff 			; <UNDEFINED> instruction: 0xffffffff
 874:	7c020001 	stcvc	0, cr0, [r2], {1}
 878:	000d0c0e 	andeq	r0, sp, lr, lsl #24
 87c:	00000018 	andeq	r0, r0, r8, lsl r0
 880:	0000086c 	andeq	r0, r0, ip, ror #16
 884:	0000a268 	andeq	sl, r0, r8, ror #4
 888:	00000020 	andeq	r0, r0, r0, lsr #32
 88c:	84100e42 	ldrhi	r0, [r0], #-3650	; 0xe42
 890:	86038504 	strhi	r8, [r3], -r4, lsl #10
 894:	00018e02 	andeq	r8, r1, r2, lsl #28
 898:	00000014 	andeq	r0, r0, r4, lsl r0
 89c:	0000086c 	andeq	r0, r0, ip, ror #16
 8a0:	0000a288 	andeq	sl, r0, r8, lsl #5
 8a4:	000000b0 	strheq	r0, [r0], -r0	; <UNPREDICTABLE>
 8a8:	84080e42 	strhi	r0, [r8], #-3650	; 0xe42
 8ac:	00018e02 	andeq	r8, r1, r2, lsl #28
 8b0:	00000014 	andeq	r0, r0, r4, lsl r0
 8b4:	0000086c 	andeq	r0, r0, ip, ror #16
 8b8:	0000a338 	andeq	sl, r0, r8, lsr r3
 8bc:	00000018 	andeq	r0, r0, r8, lsl r0
 8c0:	84080e42 	strhi	r0, [r8], #-3650	; 0xe42
 8c4:	00018e02 	andeq	r8, r1, r2, lsl #28
 8c8:	00000014 	andeq	r0, r0, r4, lsl r0
 8cc:	0000086c 	andeq	r0, r0, ip, ror #16
 8d0:	0000a350 	andeq	sl, r0, r0, asr r3
 8d4:	00000020 	andeq	r0, r0, r0, lsr #32
 8d8:	84080e42 	strhi	r0, [r8], #-3650	; 0xe42
 8dc:	00018e02 	andeq	r8, r1, r2, lsl #28
 8e0:	00000014 	andeq	r0, r0, r4, lsl r0
 8e4:	0000086c 	andeq	r0, r0, ip, ror #16
 8e8:	0000a370 	andeq	sl, r0, r0, ror r3
 8ec:	00000030 	andeq	r0, r0, r0, lsr r0
 8f0:	84080e42 	strhi	r0, [r8], #-3650	; 0xe42
 8f4:	00018e02 	andeq	r8, r1, r2, lsl #28
 8f8:	00000014 	andeq	r0, r0, r4, lsl r0
 8fc:	0000086c 	andeq	r0, r0, ip, ror #16
 900:	0000a3a0 	andeq	sl, r0, r0, lsr #7
 904:	00000030 	andeq	r0, r0, r0, lsr r0
 908:	84080e42 	strhi	r0, [r8], #-3650	; 0xe42
 90c:	00018e02 	andeq	r8, r1, r2, lsl #28
 910:	00000014 	andeq	r0, r0, r4, lsl r0
 914:	0000086c 	andeq	r0, r0, ip, ror #16
 918:	0000a3d0 	ldrdeq	sl, [r0], -r0
 91c:	00000010 	andeq	r0, r0, r0, lsl r0
 920:	84080e42 	strhi	r0, [r8], #-3650	; 0xe42
 924:	00018e02 	andeq	r8, r1, r2, lsl #28
 928:	0000000c 	andeq	r0, r0, ip
 92c:	ffffffff 			; <UNDEFINED> instruction: 0xffffffff
 930:	7c020001 	stcvc	0, cr0, [r2], {1}
 934:	000d0c0e 	andeq	r0, sp, lr, lsl #24
 938:	00000018 	andeq	r0, r0, r8, lsl r0
 93c:	00000928 	andeq	r0, r0, r8, lsr #18
 940:	0000a3e0 	andeq	sl, r0, r0, ror #7
 944:	00000068 	andeq	r0, r0, r8, rrx
 948:	84100e4a 	ldrhi	r0, [r0], #-3658	; 0xe4a
 94c:	86038504 	strhi	r8, [r3], -r4, lsl #10
 950:	00018e02 	andeq	r8, r1, r2, lsl #28
 954:	00000014 	andeq	r0, r0, r4, lsl r0
 958:	00000928 	andeq	r0, r0, r8, lsr #18
 95c:	0000a448 	andeq	sl, r0, r8, asr #8
 960:	00000010 	andeq	r0, r0, r0, lsl r0
 964:	84080e42 	strhi	r0, [r8], #-3650	; 0xe42
 968:	00018e02 	andeq	r8, r1, r2, lsl #28
 96c:	00000014 	andeq	r0, r0, r4, lsl r0
 970:	00000928 	andeq	r0, r0, r8, lsr #18
 974:	0000a458 	andeq	sl, r0, r8, asr r4
 978:	00000024 	andeq	r0, r0, r4, lsr #32
 97c:	84080e46 	strhi	r0, [r8], #-3654	; 0xe46
 980:	00018e02 	andeq	r8, r1, r2, lsl #28
 984:	00000014 	andeq	r0, r0, r4, lsl r0
 988:	00000928 	andeq	r0, r0, r8, lsr #18
 98c:	0000a47c 	andeq	sl, r0, ip, ror r4
 990:	00000024 	andeq	r0, r0, r4, lsr #32
 994:	84080e46 	strhi	r0, [r8], #-3654	; 0xe46
 998:	00018e02 	andeq	r8, r1, r2, lsl #28
 99c:	00000014 	andeq	r0, r0, r4, lsl r0
 9a0:	00000928 	andeq	r0, r0, r8, lsr #18
 9a4:	0000a4a0 	andeq	sl, r0, r0, lsr #9
 9a8:	00000010 	andeq	r0, r0, r0, lsl r0
 9ac:	84080e42 	strhi	r0, [r8], #-3650	; 0xe42
 9b0:	00018e02 	andeq	r8, r1, r2, lsl #28
 9b4:	00000014 	andeq	r0, r0, r4, lsl r0
 9b8:	00000928 	andeq	r0, r0, r8, lsr #18
 9bc:	0000a4b0 			; <UNDEFINED> instruction: 0x0000a4b0
 9c0:	0000001c 	andeq	r0, r0, ip, lsl r0
 9c4:	84080e42 	strhi	r0, [r8], #-3650	; 0xe42
 9c8:	00018e02 	andeq	r8, r1, r2, lsl #28
 9cc:	00000018 	andeq	r0, r0, r8, lsl r0
 9d0:	00000928 	andeq	r0, r0, r8, lsr #18
 9d4:	0000a4cc 	andeq	sl, r0, ip, asr #9
 9d8:	00000034 	andeq	r0, r0, r4, lsr r0
 9dc:	84080e46 	strhi	r0, [r8], #-3654	; 0xe46
 9e0:	4e018e02 	cdpmi	14, 0, cr8, cr1, cr2, {0}
 9e4:	cec4000e 	cdpgt	0, 12, cr0, cr4, cr14, {0}
 9e8:	0000000c 	andeq	r0, r0, ip
 9ec:	ffffffff 			; <UNDEFINED> instruction: 0xffffffff
 9f0:	7c020001 	stcvc	0, cr0, [r2], {1}
 9f4:	000d0c0e 	andeq	r0, sp, lr, lsl #24
 9f8:	0000000c 	andeq	r0, r0, ip
 9fc:	000009e8 	andeq	r0, r0, r8, ror #19
 a00:	0000a500 	andeq	sl, r0, r0, lsl #10
 a04:	00000010 	andeq	r0, r0, r0, lsl r0
 a08:	0000000c 	andeq	r0, r0, ip
 a0c:	000009e8 	andeq	r0, r0, r8, ror #19
 a10:	0000a510 	andeq	sl, r0, r0, lsl r5
 a14:	0000000c 	andeq	r0, r0, ip
 a18:	00000014 	andeq	r0, r0, r4, lsl r0
 a1c:	000009e8 	andeq	r0, r0, r8, ror #19
 a20:	0000a51c 	andeq	sl, r0, ip, lsl r5
 a24:	00000050 	andeq	r0, r0, r0, asr r0
 a28:	84080e52 	strhi	r0, [r8], #-3666	; 0xe52
 a2c:	00018e02 	andeq	r8, r1, r2, lsl #28
 a30:	00000014 	andeq	r0, r0, r4, lsl r0
 a34:	000009e8 	andeq	r0, r0, r8, ror #19
 a38:	0000a56c 	andeq	sl, r0, ip, ror #10
 a3c:	00000064 	andeq	r0, r0, r4, rrx
 a40:	84080e42 	strhi	r0, [r8], #-3650	; 0xe42
 a44:	00018e02 	andeq	r8, r1, r2, lsl #28
 a48:	0000000c 	andeq	r0, r0, ip
 a4c:	000009e8 	andeq	r0, r0, r8, ror #19
 a50:	0000a5d0 	ldrdeq	sl, [r0], -r0
 a54:	00000004 	andeq	r0, r0, r4
 a58:	00000014 	andeq	r0, r0, r4, lsl r0
 a5c:	000009e8 	andeq	r0, r0, r8, ror #19
 a60:	0000a5d4 	ldrdeq	sl, [r0], -r4
 a64:	0000000c 	andeq	r0, r0, ip
 a68:	84080e42 	strhi	r0, [r8], #-3650	; 0xe42
 a6c:	00018e02 	andeq	r8, r1, r2, lsl #28
 a70:	00000014 	andeq	r0, r0, r4, lsl r0
 a74:	000009e8 	andeq	r0, r0, r8, ror #19
 a78:	0000a5e0 	andeq	sl, r0, r0, ror #11
 a7c:	0000008c 	andeq	r0, r0, ip, lsl #1
 a80:	84080e42 	strhi	r0, [r8], #-3650	; 0xe42
 a84:	00018e02 	andeq	r8, r1, r2, lsl #28
 a88:	0000000c 	andeq	r0, r0, ip
 a8c:	000009e8 	andeq	r0, r0, r8, ror #19
 a90:	0000a66c 	andeq	sl, r0, ip, ror #12
 a94:	00000004 	andeq	r0, r0, r4
 a98:	0000000c 	andeq	r0, r0, ip
 a9c:	000009e8 	andeq	r0, r0, r8, ror #19
 aa0:	0000a670 	andeq	sl, r0, r0, ror r6
 aa4:	00000014 	andeq	r0, r0, r4, lsl r0
 aa8:	0000000c 	andeq	r0, r0, ip
 aac:	000009e8 	andeq	r0, r0, r8, ror #19
 ab0:	0000a684 	andeq	sl, r0, r4, lsl #13
 ab4:	00000010 	andeq	r0, r0, r0, lsl r0
 ab8:	0000000c 	andeq	r0, r0, ip
 abc:	ffffffff 			; <UNDEFINED> instruction: 0xffffffff
 ac0:	7c020001 	stcvc	0, cr0, [r2], {1}
 ac4:	000d0c0e 	andeq	r0, sp, lr, lsl #24
 ac8:	00000014 	andeq	r0, r0, r4, lsl r0
 acc:	00000ab8 			; <UNDEFINED> instruction: 0x00000ab8
 ad0:	0000a694 	muleq	r0, r4, r6
 ad4:	00000044 	andeq	r0, r0, r4, asr #32
 ad8:	8e040e42 	cdphi	14, 0, cr0, cr4, cr2, {2}
 adc:	100e4201 	andne	r4, lr, r1, lsl #4

Disassembly of section .debug_ranges:

00000000 <.debug_ranges>:
   0:	0000017c 	andeq	r0, r0, ip, ror r1
   4:	000001a0 	andeq	r0, r0, r0, lsr #3
   8:	000001b4 			; <UNDEFINED> instruction: 0x000001b4
   c:	000001b8 			; <UNDEFINED> instruction: 0x000001b8
	...
  18:	00000358 	andeq	r0, r0, r8, asr r3
  1c:	0000036c 	andeq	r0, r0, ip, ror #6
  20:	00000370 	andeq	r0, r0, r0, ror r3
  24:	0000037c 	andeq	r0, r0, ip, ror r3
	...
  30:	00000588 	andeq	r0, r0, r8, lsl #11
  34:	00000594 	muleq	r0, r4, r5
  38:	000005b0 			; <UNDEFINED> instruction: 0x000005b0
  3c:	000005e8 	andeq	r0, r0, r8, ror #11
	...
  48:	00000264 	andeq	r0, r0, r4, ror #4
  4c:	00000288 	andeq	r0, r0, r8, lsl #5
  50:	000002ac 	andeq	r0, r0, ip, lsr #5
  54:	000002b0 			; <UNDEFINED> instruction: 0x000002b0
	...
  60:	000002a8 	andeq	r0, r0, r8, lsr #5
  64:	000002ac 	andeq	r0, r0, ip, lsr #5
  68:	000002dc 	ldrdeq	r0, [r0], -ip
  6c:	000004cc 	andeq	r0, r0, ip, asr #9
	...
  78:	0000a0ac 	andeq	sl, r0, ip, lsr #1
  7c:	0000a120 	andeq	sl, r0, r0, lsr #2
	...
