
accel.elf:     file format elf32-littlearm


Disassembly of section .text:

00008000 <_start>:
    8000:	e3a0d302 	mov	sp, #134217728	; 0x8000000
    8004:	e3a0b000 	mov	fp, #0
    8008:	eb00043d 	bl	9104 <_cstart>
    800c:	eb000454 	bl	9164 <rpi_reboot>

00008010 <mg_raw>:
    8010:	e1810400 	orr	r0, r1, r0, lsl #8
    8014:	e6bf0070 	sxth	r0, r0
    8018:	e12fff1e 	bx	lr

0000801c <mg_scaled>:
    801c:	e0010190 	mul	r1, r0, r1
    8020:	e3a03ffa 	mov	r3, #1000	; 0x3e8
    8024:	e0010193 	mul	r1, r3, r1
    8028:	e59f0010 	ldr	r0, [pc, #16]	; 8040 <mg_scaled+0x24>
    802c:	e0c03190 	smull	r3, r0, r0, r1
    8030:	e0800001 	add	r0, r0, r1
    8034:	e1a01fc1 	asr	r1, r1, #31
    8038:	e0610740 	rsb	r0, r1, r0, asr #14
    803c:	e12fff1e 	bx	lr
    8040:	80010003 	andhi	r0, r1, r3

00008044 <xyz_mk>:
    8044:	e5801000 	str	r1, [r0]
    8048:	e5802004 	str	r2, [r0, #4]
    804c:	e5803008 	str	r3, [r0, #8]
    8050:	e12fff1e 	bx	lr

00008054 <test_mg>:
    8054:	e92d4038 	push	{r3, r4, r5, lr}
    8058:	e1a04000 	mov	r4, r0
    805c:	e1a05003 	mov	r5, r3
    8060:	e1a00001 	mov	r0, r1
    8064:	e1a01002 	mov	r1, r2
    8068:	ebffffe8 	bl	8010 <mg_raw>
    806c:	e1a01005 	mov	r1, r5
    8070:	ebffffe9 	bl	801c <mg_scaled>
    8074:	e1a05000 	mov	r5, r0
    8078:	e59f002c 	ldr	r0, [pc, #44]	; 80ac <test_mg+0x58>
    807c:	e1a01004 	mov	r1, r4
    8080:	e1a02005 	mov	r2, r5
    8084:	eb0002a4 	bl	8b1c <printk>
    8088:	e1550004 	cmp	r5, r4
    808c:	08bd8038 	popeq	{r3, r4, r5, pc}
    8090:	eb0002bc 	bl	8b88 <rpi_reset_putc>
    8094:	e59f0014 	ldr	r0, [pc, #20]	; 80b0 <test_mg+0x5c>
    8098:	e59f1014 	ldr	r1, [pc, #20]	; 80b4 <test_mg+0x60>
    809c:	e59f2014 	ldr	r2, [pc, #20]	; 80b8 <test_mg+0x64>
    80a0:	e3a03047 	mov	r3, #71	; 0x47
    80a4:	eb00029c 	bl	8b1c <printk>
    80a8:	eb00040b 	bl	90dc <clean_reboot>
    80ac:	00009a44 	andeq	r9, r0, r4, asr #20
    80b0:	00009a5c 	andeq	r9, r0, ip, asr sl
    80b4:	00009a7c 	andeq	r9, r0, ip, ror sl
    80b8:	00009a28 	andeq	r9, r0, r8, lsr #20

000080bc <imu_rd>:
    80bc:	e92d4010 	push	{r4, lr}
    80c0:	e24dd010 	sub	sp, sp, #16
    80c4:	e1a04000 	mov	r4, r0
    80c8:	e28d3010 	add	r3, sp, #16
    80cc:	e5631009 	strb	r1, [r3, #-9]!
    80d0:	e1a01003 	mov	r1, r3
    80d4:	e3a02001 	mov	r2, #1
    80d8:	eb0001ff 	bl	88dc <i2c_write>
    80dc:	e1a00004 	mov	r0, r4
    80e0:	e28d100f 	add	r1, sp, #15
    80e4:	e3a02001 	mov	r2, #1
    80e8:	eb00022c 	bl	89a0 <i2c_read>
    80ec:	e5dd000f 	ldrb	r0, [sp, #15]
    80f0:	e28dd010 	add	sp, sp, #16
    80f4:	e8bd8010 	pop	{r4, pc}

000080f8 <imu_wr>:
    80f8:	e52de004 	push	{lr}		; (str lr, [sp, #-4]!)
    80fc:	e24dd00c 	sub	sp, sp, #12
    8100:	e5cd1004 	strb	r1, [sp, #4]
    8104:	e5cd2005 	strb	r2, [sp, #5]
    8108:	e28d1004 	add	r1, sp, #4
    810c:	e3a02002 	mov	r2, #2
    8110:	eb0001f1 	bl	88dc <i2c_write>
    8114:	e28dd00c 	add	sp, sp, #12
    8118:	e49df004 	pop	{pc}		; (ldr pc, [sp], #4)

0000811c <imu_rd_n>:
    811c:	e92d4070 	push	{r4, r5, r6, lr}
    8120:	e24dd008 	sub	sp, sp, #8
    8124:	e1a06000 	mov	r6, r0
    8128:	e1a05002 	mov	r5, r2
    812c:	e1a04003 	mov	r4, r3
    8130:	e28dc008 	add	ip, sp, #8
    8134:	e56c1001 	strb	r1, [ip, #-1]!
    8138:	e1a0100c 	mov	r1, ip
    813c:	e3a02001 	mov	r2, #1
    8140:	eb0001e5 	bl	88dc <i2c_write>
    8144:	e1a00006 	mov	r0, r6
    8148:	e1a01005 	mov	r1, r5
    814c:	e1a02004 	mov	r2, r4
    8150:	eb000212 	bl	89a0 <i2c_read>
    8154:	e28dd008 	add	sp, sp, #8
    8158:	e8bd8070 	pop	{r4, r5, r6, pc}

0000815c <accel_scale>:
    815c:	e24dd008 	sub	sp, sp, #8
    8160:	e92d40f8 	push	{r3, r4, r5, r6, r7, lr}
    8164:	e1a05000 	mov	r5, r0
    8168:	e28d0014 	add	r0, sp, #20
    816c:	e980000c 	stmib	r0, {r2, r3}
    8170:	e5914008 	ldr	r4, [r1, #8]
    8174:	e1a00004 	mov	r0, r4
    8178:	e59d1018 	ldr	r1, [sp, #24]
    817c:	ebffffa6 	bl	801c <mg_scaled>
    8180:	e1a07000 	mov	r7, r0
    8184:	e1a00004 	mov	r0, r4
    8188:	e59d101c 	ldr	r1, [sp, #28]
    818c:	ebffffa2 	bl	801c <mg_scaled>
    8190:	e1a06000 	mov	r6, r0
    8194:	e1a00004 	mov	r0, r4
    8198:	e59d1020 	ldr	r1, [sp, #32]
    819c:	ebffff9e 	bl	801c <mg_scaled>
    81a0:	e1a03000 	mov	r3, r0
    81a4:	e1a00005 	mov	r0, r5
    81a8:	e1a01007 	mov	r1, r7
    81ac:	e1a02006 	mov	r2, r6
    81b0:	ebffffa3 	bl	8044 <xyz_mk>
    81b4:	e1a00005 	mov	r0, r5
    81b8:	e8bd40f8 	pop	{r3, r4, r5, r6, r7, lr}
    81bc:	e28dd008 	add	sp, sp, #8
    81c0:	e12fff1e 	bx	lr

000081c4 <accel_has_data>:
    81c4:	e92d4008 	push	{r3, lr}
    81c8:	e5d00000 	ldrb	r0, [r0]
    81cc:	e3a0101e 	mov	r1, #30
    81d0:	ebffffb9 	bl	80bc <imu_rd>
    81d4:	e3100001 	tst	r0, #1
    81d8:	0a000001 	beq	81e4 <accel_has_data+0x20>
    81dc:	e3a00001 	mov	r0, #1
    81e0:	e8bd8008 	pop	{r3, pc}
    81e4:	e3a00000 	mov	r0, #0
    81e8:	e8bd8008 	pop	{r3, pc}

000081ec <accel_rd>:
    81ec:	e92d40f0 	push	{r4, r5, r6, r7, lr}
    81f0:	e24dd00c 	sub	sp, sp, #12
    81f4:	e1a05000 	mov	r5, r0
    81f8:	e1a04001 	mov	r4, r1
    81fc:	e1a00004 	mov	r0, r4
    8200:	ebffffef 	bl	81c4 <accel_has_data>
    8204:	e3500000 	cmp	r0, #0
    8208:	0afffffb 	beq	81fc <accel_rd+0x10>
    820c:	e5d40000 	ldrb	r0, [r4]
    8210:	e3a01028 	mov	r1, #40	; 0x28
    8214:	e1a0200d 	mov	r2, sp
    8218:	e3a03006 	mov	r3, #6
    821c:	ebffffbe 	bl	811c <imu_rd_n>
    8220:	e5dd0001 	ldrb	r0, [sp, #1]
    8224:	e5dd1000 	ldrb	r1, [sp]
    8228:	ebffff78 	bl	8010 <mg_raw>
    822c:	e1a07000 	mov	r7, r0
    8230:	e5dd0003 	ldrb	r0, [sp, #3]
    8234:	e5dd1002 	ldrb	r1, [sp, #2]
    8238:	ebffff74 	bl	8010 <mg_raw>
    823c:	e1a06000 	mov	r6, r0
    8240:	e5dd0005 	ldrb	r0, [sp, #5]
    8244:	e5dd1004 	ldrb	r1, [sp, #4]
    8248:	ebffff70 	bl	8010 <mg_raw>
    824c:	e1a04000 	mov	r4, r0
    8250:	e59f0034 	ldr	r0, [pc, #52]	; 828c <accel_rd+0xa0>
    8254:	e1a01007 	mov	r1, r7
    8258:	eb00022f 	bl	8b1c <printk>
    825c:	e59f002c 	ldr	r0, [pc, #44]	; 8290 <accel_rd+0xa4>
    8260:	e1a01006 	mov	r1, r6
    8264:	eb00022c 	bl	8b1c <printk>
    8268:	e59f0024 	ldr	r0, [pc, #36]	; 8294 <accel_rd+0xa8>
    826c:	e1a01004 	mov	r1, r4
    8270:	eb000229 	bl	8b1c <printk>
    8274:	e5857000 	str	r7, [r5]
    8278:	e5856004 	str	r6, [r5, #4]
    827c:	e5854008 	str	r4, [r5, #8]
    8280:	e1a00005 	mov	r0, r5
    8284:	e28dd00c 	add	sp, sp, #12
    8288:	e8bd80f0 	pop	{r4, r5, r6, r7, pc}
    828c:	00009a84 	andeq	r9, r0, r4, lsl #21
    8290:	00009a8c 	andeq	r9, r0, ip, lsl #21
    8294:	00009a94 	muleq	r0, r4, sl

00008298 <accel_init>:
    8298:	e92d41f0 	push	{r4, r5, r6, r7, r8, lr}
    829c:	e24dd008 	sub	sp, sp, #8
    82a0:	e1a06000 	mov	r6, r0
    82a4:	e1a07001 	mov	r7, r1
    82a8:	e1a04002 	mov	r4, r2
    82ac:	e1a05003 	mov	r5, r3
    82b0:	eb00059c 	bl	9928 <dev_barrier>
    82b4:	e2453008 	sub	r3, r5, #8
    82b8:	e3530002 	cmp	r3, #2
    82bc:	8a000007 	bhi	82e0 <accel_init+0x48>
    82c0:	eb000230 	bl	8b88 <rpi_reset_putc>
    82c4:	e58d5000 	str	r5, [sp]
    82c8:	e59f0120 	ldr	r0, [pc, #288]	; 83f0 <accel_init+0x158>
    82cc:	e59f1120 	ldr	r1, [pc, #288]	; 83f4 <accel_init+0x15c>
    82d0:	e59f2120 	ldr	r2, [pc, #288]	; 83f8 <accel_init+0x160>
    82d4:	e3a03091 	mov	r3, #145	; 0x91
    82d8:	eb00020f 	bl	8b1c <printk>
    82dc:	eb00037e 	bl	90dc <clean_reboot>
    82e0:	e59f3114 	ldr	r3, [pc, #276]	; 83fc <accel_init+0x164>
    82e4:	e1540003 	cmp	r4, r3
    82e8:	13540802 	cmpne	r4, #131072	; 0x20000
    82ec:	0a000006 	beq	830c <accel_init+0x74>
    82f0:	e59f3108 	ldr	r3, [pc, #264]	; 8400 <accel_init+0x168>
    82f4:	e59f2108 	ldr	r2, [pc, #264]	; 8404 <accel_init+0x16c>
    82f8:	e1540003 	cmp	r4, r3
    82fc:	11540002 	cmpne	r4, r2
    8300:	1a000003 	bne	8314 <accel_init+0x7c>
    8304:	e3a03001 	mov	r3, #1
    8308:	ea000002 	b	8318 <accel_init+0x80>
    830c:	e3a03001 	mov	r3, #1
    8310:	ea000000 	b	8318 <accel_init+0x80>
    8314:	e3a03000 	mov	r3, #0
    8318:	e3530000 	cmp	r3, #0
    831c:	1a000007 	bne	8340 <accel_init+0xa8>
    8320:	eb000218 	bl	8b88 <rpi_reset_putc>
    8324:	e58d4000 	str	r4, [sp]
    8328:	e59f00d8 	ldr	r0, [pc, #216]	; 8408 <accel_init+0x170>
    832c:	e59f10c0 	ldr	r1, [pc, #192]	; 83f4 <accel_init+0x15c>
    8330:	e59f20c0 	ldr	r2, [pc, #192]	; 83f8 <accel_init+0x160>
    8334:	e3a03096 	mov	r3, #150	; 0x96
    8338:	eb0001f7 	bl	8b1c <printk>
    833c:	eb000366 	bl	90dc <clean_reboot>
    8340:	e355000a 	cmp	r5, #10
    8344:	9a000007 	bls	8368 <accel_init+0xd0>
    8348:	eb00020e 	bl	8b88 <rpi_reset_putc>
    834c:	e58d5000 	str	r5, [sp]
    8350:	e59f00b4 	ldr	r0, [pc, #180]	; 840c <accel_init+0x174>
    8354:	e59f1098 	ldr	r1, [pc, #152]	; 83f4 <accel_init+0x15c>
    8358:	e59f2098 	ldr	r2, [pc, #152]	; 83f8 <accel_init+0x160>
    835c:	e3a03098 	mov	r3, #152	; 0x98
    8360:	eb0001ed 	bl	8b1c <printk>
    8364:	eb00035c 	bl	90dc <clean_reboot>
    8368:	e1a08824 	lsr	r8, r4, #16
    836c:	e6ef4074 	uxtb	r4, r4
    8370:	e3540003 	cmp	r4, #3
    8374:	9a000006 	bls	8394 <accel_init+0xfc>
    8378:	eb000202 	bl	8b88 <rpi_reset_putc>
    837c:	e59f008c 	ldr	r0, [pc, #140]	; 8410 <accel_init+0x178>
    8380:	e59f106c 	ldr	r1, [pc, #108]	; 83f4 <accel_init+0x15c>
    8384:	e59f206c 	ldr	r2, [pc, #108]	; 83f8 <accel_init+0x160>
    8388:	e3a0309d 	mov	r3, #157	; 0x9d
    838c:	eb0001e2 	bl	8b1c <printk>
    8390:	eb000351 	bl	90dc <clean_reboot>
    8394:	e1a00007 	mov	r0, r7
    8398:	e3a01018 	mov	r1, #24
    839c:	e3a02038 	mov	r2, #56	; 0x38
    83a0:	ebffff54 	bl	80f8 <imu_wr>
    83a4:	e1a00007 	mov	r0, r7
    83a8:	e3a01012 	mov	r1, #18
    83ac:	e3a02044 	mov	r2, #68	; 0x44
    83b0:	ebffff50 	bl	80f8 <imu_wr>
    83b4:	e1a03205 	lsl	r3, r5, #4
    83b8:	e1832104 	orr	r2, r3, r4, lsl #2
    83bc:	e1a00007 	mov	r0, r7
    83c0:	e3a01010 	mov	r1, #16
    83c4:	e20220fc 	and	r2, r2, #252	; 0xfc
    83c8:	ebffff4a 	bl	80f8 <imu_wr>
    83cc:	e5c67000 	strb	r7, [r6]
    83d0:	e5865004 	str	r5, [r6, #4]
    83d4:	e5868008 	str	r8, [r6, #8]
    83d8:	e3a00014 	mov	r0, #20
    83dc:	eb00038a 	bl	920c <delay_ms>
    83e0:	eb000550 	bl	9928 <dev_barrier>
    83e4:	e1a00006 	mov	r0, r6
    83e8:	e28dd008 	add	sp, sp, #8
    83ec:	e8bd81f0 	pop	{r4, r5, r6, r7, r8, pc}
    83f0:	00009a9c 	muleq	r0, ip, sl
    83f4:	00009a7c 	andeq	r9, r0, ip, ror sl
    83f8:	00009a30 	andeq	r9, r0, r0, lsr sl
    83fc:	00040002 	andeq	r0, r4, r2
    8400:	00100001 	andseq	r0, r0, r1
    8404:	00080003 	andeq	r0, r8, r3
    8408:	00009ae0 	andeq	r9, r0, r0, ror #21
    840c:	00009b08 	andeq	r9, r0, r8, lsl #22
    8410:	00009b28 	andeq	r9, r0, r8, lsr #22

00008414 <do_accel_test>:
    8414:	e92d43f0 	push	{r4, r5, r6, r7, r8, r9, lr}
    8418:	e24dd034 	sub	sp, sp, #52	; 0x34
    841c:	e28d0024 	add	r0, sp, #36	; 0x24
    8420:	e3a0106b 	mov	r1, #107	; 0x6b
    8424:	e3a02802 	mov	r2, #131072	; 0x20000
    8428:	e3a03006 	mov	r3, #6
    842c:	ebffff99 	bl	8298 <accel_init>
    8430:	e3a00000 	mov	r0, #0
    8434:	e1a01000 	mov	r1, r0
    8438:	e1a02000 	mov	r2, r0
    843c:	e3a03002 	mov	r3, #2
    8440:	ebffff03 	bl	8054 <test_mg>
    8444:	e59f00d4 	ldr	r0, [pc, #212]	; 8520 <do_accel_test+0x10c>
    8448:	e3a01016 	mov	r1, #22
    844c:	e3a02069 	mov	r2, #105	; 0x69
    8450:	e3a03002 	mov	r3, #2
    8454:	ebfffefe 	bl	8054 <test_mg>
    8458:	e3a00ffa 	mov	r0, #1000	; 0x3e8
    845c:	e3a01040 	mov	r1, #64	; 0x40
    8460:	e3a02009 	mov	r2, #9
    8464:	e3a03002 	mov	r3, #2
    8468:	ebfffef9 	bl	8054 <test_mg>
    846c:	e59f00b0 	ldr	r0, [pc, #176]	; 8524 <do_accel_test+0x110>
    8470:	e3a010e9 	mov	r1, #233	; 0xe9
    8474:	e3a02097 	mov	r2, #151	; 0x97
    8478:	e3a03002 	mov	r3, #2
    847c:	ebfffef4 	bl	8054 <test_mg>
    8480:	e59f00a0 	ldr	r0, [pc, #160]	; 8528 <do_accel_test+0x114>
    8484:	e3a010bf 	mov	r1, #191	; 0xbf
    8488:	e3a020f7 	mov	r2, #247	; 0xf7
    848c:	e3a03002 	mov	r3, #2
    8490:	ebfffeef 	bl	8054 <test_mg>
    8494:	e3a06000 	mov	r6, #0
    8498:	e28d4018 	add	r4, sp, #24
    849c:	e59f9088 	ldr	r9, [pc, #136]	; 852c <do_accel_test+0x118>
    84a0:	e28d5008 	add	r5, sp, #8
    84a4:	e59f8084 	ldr	r8, [pc, #132]	; 8530 <do_accel_test+0x11c>
    84a8:	e3a07f7d 	mov	r7, #500	; 0x1f4
    84ac:	ea000017 	b	8510 <do_accel_test+0xfc>
    84b0:	e1a00004 	mov	r0, r4
    84b4:	e28d1024 	add	r1, sp, #36	; 0x24
    84b8:	ebffff4b 	bl	81ec <accel_rd>
    84bc:	e1a00009 	mov	r0, r9
    84c0:	e59d1018 	ldr	r1, [sp, #24]
    84c4:	e59d201c 	ldr	r2, [sp, #28]
    84c8:	e59d3020 	ldr	r3, [sp, #32]
    84cc:	eb000192 	bl	8b1c <printk>
    84d0:	e59d3020 	ldr	r3, [sp, #32]
    84d4:	e58d3000 	str	r3, [sp]
    84d8:	e894000c 	ldm	r4, {r2, r3}
    84dc:	e1a00005 	mov	r0, r5
    84e0:	e28d1024 	add	r1, sp, #36	; 0x24
    84e4:	ebffff1c 	bl	815c <accel_scale>
    84e8:	e8950007 	ldm	r5, {r0, r1, r2}
    84ec:	e8840007 	stm	r4, {r0, r1, r2}
    84f0:	e1a00008 	mov	r0, r8
    84f4:	e59d1018 	ldr	r1, [sp, #24]
    84f8:	e59d201c 	ldr	r2, [sp, #28]
    84fc:	e59d3020 	ldr	r3, [sp, #32]
    8500:	eb000185 	bl	8b1c <printk>
    8504:	e1a00007 	mov	r0, r7
    8508:	eb00033f 	bl	920c <delay_ms>
    850c:	e2866001 	add	r6, r6, #1
    8510:	e3560009 	cmp	r6, #9
    8514:	daffffe5 	ble	84b0 <do_accel_test+0x9c>
    8518:	e28dd034 	add	sp, sp, #52	; 0x34
    851c:	e8bd83f0 	pop	{r4, r5, r6, r7, r8, r9, pc}
    8520:	0000015e 	andeq	r0, r0, lr, asr r1
    8524:	fffffea2 			; <UNDEFINED> instruction: 0xfffffea2
    8528:	fffffc18 			; <UNDEFINED> instruction: 0xfffffc18
    852c:	00009b50 	andeq	r9, r0, r0, asr fp
    8530:	00009b74 	andeq	r9, r0, r4, ror fp

00008534 <notmain>:
    8534:	e92d4010 	push	{r4, lr}
    8538:	e24dd008 	sub	sp, sp, #8
    853c:	eb0004a4 	bl	97d4 <uart_init>
    8540:	e3a00064 	mov	r0, #100	; 0x64
    8544:	eb000330 	bl	920c <delay_ms>
    8548:	eb000148 	bl	8a70 <i2c_init>
    854c:	e3a00064 	mov	r0, #100	; 0x64
    8550:	eb00032d 	bl	920c <delay_ms>
    8554:	e3a0006b 	mov	r0, #107	; 0x6b
    8558:	e3a0100f 	mov	r1, #15
    855c:	ebfffed6 	bl	80bc <imu_rd>
    8560:	e1a04000 	mov	r4, r0
    8564:	e3500069 	cmp	r0, #105	; 0x69
    8568:	0a000009 	beq	8594 <notmain+0x60>
    856c:	eb000185 	bl	8b88 <rpi_reset_putc>
    8570:	e3a03069 	mov	r3, #105	; 0x69
    8574:	e58d3000 	str	r3, [sp]
    8578:	e58d4004 	str	r4, [sp, #4]
    857c:	e59f0020 	ldr	r0, [pc, #32]	; 85a4 <notmain+0x70>
    8580:	e59f1020 	ldr	r1, [pc, #32]	; 85a8 <notmain+0x74>
    8584:	e59f2020 	ldr	r2, [pc, #32]	; 85ac <notmain+0x78>
    8588:	e3a030dd 	mov	r3, #221	; 0xdd
    858c:	eb000162 	bl	8b1c <printk>
    8590:	eb0002d1 	bl	90dc <clean_reboot>
    8594:	e59f0014 	ldr	r0, [pc, #20]	; 85b0 <notmain+0x7c>
    8598:	eb00015f 	bl	8b1c <printk>
    859c:	ebffff9c 	bl	8414 <do_accel_test>
    85a0:	eb0002cd 	bl	90dc <clean_reboot>
    85a4:	00009ba0 	andeq	r9, r0, r0, lsr #23
    85a8:	00009a7c 	andeq	r9, r0, ip, ror sl
    85ac:	00009a3c 	andeq	r9, r0, ip, lsr sl
    85b0:	00009bdc 	ldrdeq	r9, [r0], -ip

000085b4 <clear_c>:
    85b4:	e3c0000e 	bic	r0, r0, #14
    85b8:	e3c00040 	bic	r0, r0, #64	; 0x40
    85bc:	e3c00b1e 	bic	r0, r0, #30720	; 0x7800
    85c0:	e6ff0070 	uxth	r0, r0
    85c4:	e12fff1e 	bx	lr

000085c8 <clear_s>:
    85c8:	e1a00b00 	lsl	r0, r0, #22
    85cc:	e1a00b20 	lsr	r0, r0, #22
    85d0:	e12fff1e 	bx	lr

000085d4 <check_layout>:
    85d4:	e52de004 	push	{lr}		; (str lr, [sp, #-4]!)
    85d8:	e49df004 	pop	{pc}		; (ldr pc, [sp], #4)

000085dc <xfer_end>:
    85dc:	e92d4010 	push	{r4, lr}
    85e0:	e59f30c0 	ldr	r3, [pc, #192]	; 86a8 <xfer_end+0xcc>
    85e4:	e5933004 	ldr	r3, [r3, #4]
    85e8:	e3130002 	tst	r3, #2
    85ec:	1a000015 	bne	8648 <xfer_end+0x6c>
    85f0:	e59f30b0 	ldr	r3, [pc, #176]	; 86a8 <xfer_end+0xcc>
    85f4:	e5933004 	ldr	r3, [r3, #4]
    85f8:	e3130c01 	tst	r3, #256	; 0x100
    85fc:	1a00000a 	bne	862c <xfer_end+0x50>
    8600:	e59f30a0 	ldr	r3, [pc, #160]	; 86a8 <xfer_end+0xcc>
    8604:	e5933004 	ldr	r3, [r3, #4]
    8608:	e3130c02 	tst	r3, #512	; 0x200
    860c:	0afffff3 	beq	85e0 <xfer_end+0x4>
    8610:	eb00015c 	bl	8b88 <rpi_reset_putc>
    8614:	e59f3090 	ldr	r3, [pc, #144]	; 86ac <xfer_end+0xd0>
    8618:	e59f2090 	ldr	r2, [pc, #144]	; 86b0 <xfer_end+0xd4>
    861c:	e59f1090 	ldr	r1, [pc, #144]	; 86b4 <xfer_end+0xd8>
    8620:	e59f0090 	ldr	r0, [pc, #144]	; 86b8 <xfer_end+0xdc>
    8624:	eb00013c 	bl	8b1c <printk>
    8628:	eb0002ab 	bl	90dc <clean_reboot>
    862c:	eb000155 	bl	8b88 <rpi_reset_putc>
    8630:	e59f3074 	ldr	r3, [pc, #116]	; 86ac <xfer_end+0xd0>
    8634:	e59f2074 	ldr	r2, [pc, #116]	; 86b0 <xfer_end+0xd4>
    8638:	e59f1074 	ldr	r1, [pc, #116]	; 86b4 <xfer_end+0xd8>
    863c:	e59f0078 	ldr	r0, [pc, #120]	; 86bc <xfer_end+0xe0>
    8640:	eb000135 	bl	8b1c <printk>
    8644:	eb0002a4 	bl	90dc <clean_reboot>
    8648:	e59f3058 	ldr	r3, [pc, #88]	; 86a8 <xfer_end+0xcc>
    864c:	e5933004 	ldr	r3, [r3, #4]
    8650:	e3130001 	tst	r3, #1
    8654:	1a000005 	bne	8670 <xfer_end+0x94>
    8658:	e59f3048 	ldr	r3, [pc, #72]	; 86a8 <xfer_end+0xcc>
    865c:	e5933004 	ldr	r3, [r3, #4]
    8660:	e3130c01 	tst	r3, #256	; 0x100
    8664:	1a000008 	bne	868c <xfer_end+0xb0>
    8668:	eb0004ae 	bl	9928 <dev_barrier>
    866c:	e8bd8010 	pop	{r4, pc}
    8670:	eb000144 	bl	8b88 <rpi_reset_putc>
    8674:	e59f3044 	ldr	r3, [pc, #68]	; 86c0 <xfer_end+0xe4>
    8678:	e59f2030 	ldr	r2, [pc, #48]	; 86b0 <xfer_end+0xd4>
    867c:	e59f1030 	ldr	r1, [pc, #48]	; 86b4 <xfer_end+0xd8>
    8680:	e59f003c 	ldr	r0, [pc, #60]	; 86c4 <xfer_end+0xe8>
    8684:	eb000124 	bl	8b1c <printk>
    8688:	eb000293 	bl	90dc <clean_reboot>
    868c:	eb00013d 	bl	8b88 <rpi_reset_putc>
    8690:	e3a03f46 	mov	r3, #280	; 0x118
    8694:	e59f2014 	ldr	r2, [pc, #20]	; 86b0 <xfer_end+0xd4>
    8698:	e59f1014 	ldr	r1, [pc, #20]	; 86b4 <xfer_end+0xd8>
    869c:	e59f0024 	ldr	r0, [pc, #36]	; 86c8 <xfer_end+0xec>
    86a0:	eb00011d 	bl	8b1c <printk>
    86a4:	eb00028c 	bl	90dc <clean_reboot>
    86a8:	20804000 	addcs	r4, r0, r0
    86ac:	00000113 	andeq	r0, r0, r3, lsl r1
    86b0:	00009c14 	andeq	r9, r0, r4, lsl ip
    86b4:	00009c50 	andeq	r9, r0, r0, asr ip
    86b8:	00009d6c 	andeq	r9, r0, ip, ror #26
    86bc:	00009d48 	andeq	r9, r0, r8, asr #26
    86c0:	00000116 	andeq	r0, r0, r6, lsl r1
    86c4:	00009d9c 	muleq	r0, ip, sp
    86c8:	00009dc0 	andeq	r9, r0, r0, asr #27

000086cc <read_s>:
    86cc:	e92d4010 	push	{r4, lr}
    86d0:	eb0004a6 	bl	9970 <get32>
    86d4:	ebffffbb 	bl	85c8 <clear_s>
    86d8:	e8bd8010 	pop	{r4, pc}

000086dc <reset_status>:
    86dc:	e92d4010 	push	{r4, lr}
    86e0:	e59f4018 	ldr	r4, [pc, #24]	; 8700 <reset_status+0x24>
    86e4:	e1a00004 	mov	r0, r4
    86e8:	ebfffff7 	bl	86cc <read_s>
    86ec:	e3801002 	orr	r1, r0, #2
    86f0:	e3811c03 	orr	r1, r1, #768	; 0x300
    86f4:	e1a00004 	mov	r0, r4
    86f8:	eb000490 	bl	9940 <put32>
    86fc:	e8bd8010 	pop	{r4, pc}
    8700:	20804004 	addcs	r4, r0, r4

00008704 <read_c>:
    8704:	e92d4010 	push	{r4, lr}
    8708:	eb000498 	bl	9970 <get32>
    870c:	ebffffa8 	bl	85b4 <clear_c>
    8710:	e8bd8010 	pop	{r4, pc}

00008714 <xfer_start>:
    8714:	e92d4070 	push	{r4, r5, r6, lr}
    8718:	e1a06000 	mov	r6, r0
    871c:	e1a05001 	mov	r5, r1
    8720:	e1a04002 	mov	r4, r2
    8724:	eb00047f 	bl	9928 <dev_barrier>
    8728:	e59f3180 	ldr	r3, [pc, #384]	; 88b0 <xfer_start+0x19c>
    872c:	e5933004 	ldr	r3, [r3, #4]
    8730:	e3130001 	tst	r3, #1
    8734:	0a000015 	beq	8790 <xfer_start+0x7c>
    8738:	e59f3170 	ldr	r3, [pc, #368]	; 88b0 <xfer_start+0x19c>
    873c:	e5933004 	ldr	r3, [r3, #4]
    8740:	e3130c01 	tst	r3, #256	; 0x100
    8744:	1a00000a 	bne	8774 <xfer_start+0x60>
    8748:	e59f3160 	ldr	r3, [pc, #352]	; 88b0 <xfer_start+0x19c>
    874c:	e5933004 	ldr	r3, [r3, #4]
    8750:	e3130c02 	tst	r3, #512	; 0x200
    8754:	0afffff3 	beq	8728 <xfer_start+0x14>
    8758:	eb00010a 	bl	8b88 <rpi_reset_putc>
    875c:	e3a030f3 	mov	r3, #243	; 0xf3
    8760:	e59f214c 	ldr	r2, [pc, #332]	; 88b4 <xfer_start+0x1a0>
    8764:	e59f114c 	ldr	r1, [pc, #332]	; 88b8 <xfer_start+0x1a4>
    8768:	e59f014c 	ldr	r0, [pc, #332]	; 88bc <xfer_start+0x1a8>
    876c:	eb0000ea 	bl	8b1c <printk>
    8770:	eb000259 	bl	90dc <clean_reboot>
    8774:	eb000103 	bl	8b88 <rpi_reset_putc>
    8778:	e3a030f3 	mov	r3, #243	; 0xf3
    877c:	e59f2130 	ldr	r2, [pc, #304]	; 88b4 <xfer_start+0x1a0>
    8780:	e59f1130 	ldr	r1, [pc, #304]	; 88b8 <xfer_start+0x1a4>
    8784:	e59f0134 	ldr	r0, [pc, #308]	; 88c0 <xfer_start+0x1ac>
    8788:	eb0000e3 	bl	8b1c <printk>
    878c:	eb000252 	bl	90dc <clean_reboot>
    8790:	e59f3118 	ldr	r3, [pc, #280]	; 88b0 <xfer_start+0x19c>
    8794:	e5933004 	ldr	r3, [r3, #4]
    8798:	e3130040 	tst	r3, #64	; 0x40
    879c:	0a000026 	beq	883c <xfer_start+0x128>
    87a0:	ebffffcd 	bl	86dc <reset_status>
    87a4:	e1b033a6 	lsrs	r3, r6, #7
    87a8:	1a00002a 	bne	8858 <xfer_start+0x144>
    87ac:	e1a01006 	mov	r1, r6
    87b0:	e59f010c 	ldr	r0, [pc, #268]	; 88c4 <xfer_start+0x1b0>
    87b4:	eb000461 	bl	9940 <put32>
    87b8:	e1b03825 	lsrs	r3, r5, #16
    87bc:	1a00002c 	bne	8874 <xfer_start+0x160>
    87c0:	e1a01005 	mov	r1, r5
    87c4:	e59f00fc 	ldr	r0, [pc, #252]	; 88c8 <xfer_start+0x1b4>
    87c8:	eb00045c 	bl	9940 <put32>
    87cc:	e59f50dc 	ldr	r5, [pc, #220]	; 88b0 <xfer_start+0x19c>
    87d0:	e1a00005 	mov	r0, r5
    87d4:	ebffffca 	bl	8704 <read_c>
    87d8:	e38000b0 	orr	r0, r0, #176	; 0xb0
    87dc:	e2041001 	and	r1, r4, #1
    87e0:	e3c00001 	bic	r0, r0, #1
    87e4:	e1811000 	orr	r1, r1, r0
    87e8:	e1a00005 	mov	r0, r5
    87ec:	eb000453 	bl	9940 <put32>
    87f0:	e59f30b8 	ldr	r3, [pc, #184]	; 88b0 <xfer_start+0x19c>
    87f4:	e5933004 	ldr	r3, [r3, #4]
    87f8:	e3130001 	tst	r3, #1
    87fc:	1a00002a 	bne	88ac <xfer_start+0x198>
    8800:	e59f30a8 	ldr	r3, [pc, #168]	; 88b0 <xfer_start+0x19c>
    8804:	e5933004 	ldr	r3, [r3, #4]
    8808:	e3130c01 	tst	r3, #256	; 0x100
    880c:	1a00001f 	bne	8890 <xfer_start+0x17c>
    8810:	e59f3098 	ldr	r3, [pc, #152]	; 88b0 <xfer_start+0x19c>
    8814:	e5933004 	ldr	r3, [r3, #4]
    8818:	e3130c02 	tst	r3, #512	; 0x200
    881c:	0afffff3 	beq	87f0 <xfer_start+0xdc>
    8820:	eb0000d8 	bl	8b88 <rpi_reset_putc>
    8824:	e59f30a0 	ldr	r3, [pc, #160]	; 88cc <xfer_start+0x1b8>
    8828:	e59f2084 	ldr	r2, [pc, #132]	; 88b4 <xfer_start+0x1a0>
    882c:	e59f1084 	ldr	r1, [pc, #132]	; 88b8 <xfer_start+0x1a4>
    8830:	e59f0084 	ldr	r0, [pc, #132]	; 88bc <xfer_start+0x1a8>
    8834:	eb0000b8 	bl	8b1c <printk>
    8838:	eb000227 	bl	90dc <clean_reboot>
    883c:	eb0000d1 	bl	8b88 <rpi_reset_putc>
    8840:	e3a030f6 	mov	r3, #246	; 0xf6
    8844:	e59f2068 	ldr	r2, [pc, #104]	; 88b4 <xfer_start+0x1a0>
    8848:	e59f1068 	ldr	r1, [pc, #104]	; 88b8 <xfer_start+0x1a4>
    884c:	e59f007c 	ldr	r0, [pc, #124]	; 88d0 <xfer_start+0x1bc>
    8850:	eb0000b1 	bl	8b1c <printk>
    8854:	eb000220 	bl	90dc <clean_reboot>
    8858:	eb0000ca 	bl	8b88 <rpi_reset_putc>
    885c:	e3a030fb 	mov	r3, #251	; 0xfb
    8860:	e59f204c 	ldr	r2, [pc, #76]	; 88b4 <xfer_start+0x1a0>
    8864:	e59f104c 	ldr	r1, [pc, #76]	; 88b8 <xfer_start+0x1a4>
    8868:	e59f0064 	ldr	r0, [pc, #100]	; 88d4 <xfer_start+0x1c0>
    886c:	eb0000aa 	bl	8b1c <printk>
    8870:	eb000219 	bl	90dc <clean_reboot>
    8874:	eb0000c3 	bl	8b88 <rpi_reset_putc>
    8878:	e3a030ff 	mov	r3, #255	; 0xff
    887c:	e59f2030 	ldr	r2, [pc, #48]	; 88b4 <xfer_start+0x1a0>
    8880:	e59f1030 	ldr	r1, [pc, #48]	; 88b8 <xfer_start+0x1a4>
    8884:	e59f004c 	ldr	r0, [pc, #76]	; 88d8 <xfer_start+0x1c4>
    8888:	eb0000a3 	bl	8b1c <printk>
    888c:	eb000212 	bl	90dc <clean_reboot>
    8890:	eb0000bc 	bl	8b88 <rpi_reset_putc>
    8894:	e59f3030 	ldr	r3, [pc, #48]	; 88cc <xfer_start+0x1b8>
    8898:	e59f2014 	ldr	r2, [pc, #20]	; 88b4 <xfer_start+0x1a0>
    889c:	e59f1014 	ldr	r1, [pc, #20]	; 88b8 <xfer_start+0x1a4>
    88a0:	e59f0018 	ldr	r0, [pc, #24]	; 88c0 <xfer_start+0x1ac>
    88a4:	eb00009c 	bl	8b1c <printk>
    88a8:	eb00020b 	bl	90dc <clean_reboot>
    88ac:	e8bd8070 	pop	{r4, r5, r6, pc}
    88b0:	20804000 	addcs	r4, r0, r0
    88b4:	00009c20 	andeq	r9, r0, r0, lsr #24
    88b8:	00009c50 	andeq	r9, r0, r0, asr ip
    88bc:	00009d6c 	andeq	r9, r0, ip, ror #26
    88c0:	00009d48 	andeq	r9, r0, r8, asr #26
    88c4:	2080400c 	addcs	r4, r0, ip
    88c8:	20804008 	addcs	r4, r0, r8
    88cc:	0000010e 	andeq	r0, r0, lr, lsl #2
    88d0:	00009de4 	andeq	r9, r0, r4, ror #27
    88d4:	00009e0c 	andeq	r9, r0, ip, lsl #28
    88d8:	00009e30 	andeq	r9, r0, r0, lsr lr

000088dc <i2c_write>:
    88dc:	e92d4070 	push	{r4, r5, r6, lr}
    88e0:	e1a05001 	mov	r5, r1
    88e4:	e1a04002 	mov	r4, r2
    88e8:	e3a02000 	mov	r2, #0
    88ec:	e1a01004 	mov	r1, r4
    88f0:	ebffff87 	bl	8714 <xfer_start>
    88f4:	e3a02000 	mov	r2, #0
    88f8:	ea00000a 	b	8928 <i2c_write+0x4c>
    88fc:	eb0000a1 	bl	8b88 <rpi_reset_putc>
    8900:	e59f3080 	ldr	r3, [pc, #128]	; 8988 <i2c_write+0xac>
    8904:	e59f2080 	ldr	r2, [pc, #128]	; 898c <i2c_write+0xb0>
    8908:	e59f1080 	ldr	r1, [pc, #128]	; 8990 <i2c_write+0xb4>
    890c:	e59f0080 	ldr	r0, [pc, #128]	; 8994 <i2c_write+0xb8>
    8910:	eb000081 	bl	8b1c <printk>
    8914:	eb0001f0 	bl	90dc <clean_reboot>
    8918:	e7d51002 	ldrb	r1, [r5, r2]
    891c:	e59f3074 	ldr	r3, [pc, #116]	; 8998 <i2c_write+0xbc>
    8920:	e5831010 	str	r1, [r3, #16]
    8924:	e2822001 	add	r2, r2, #1
    8928:	e1520004 	cmp	r2, r4
    892c:	2a000012 	bcs	897c <i2c_write+0xa0>
    8930:	e59f3060 	ldr	r3, [pc, #96]	; 8998 <i2c_write+0xbc>
    8934:	e5933004 	ldr	r3, [r3, #4]
    8938:	e3130010 	tst	r3, #16
    893c:	1afffff5 	bne	8918 <i2c_write+0x3c>
    8940:	e59f3050 	ldr	r3, [pc, #80]	; 8998 <i2c_write+0xbc>
    8944:	e5933004 	ldr	r3, [r3, #4]
    8948:	e3130c01 	tst	r3, #256	; 0x100
    894c:	1affffea 	bne	88fc <i2c_write+0x20>
    8950:	e59f3040 	ldr	r3, [pc, #64]	; 8998 <i2c_write+0xbc>
    8954:	e5933004 	ldr	r3, [r3, #4]
    8958:	e3130c02 	tst	r3, #512	; 0x200
    895c:	0afffff3 	beq	8930 <i2c_write+0x54>
    8960:	eb000088 	bl	8b88 <rpi_reset_putc>
    8964:	e59f301c 	ldr	r3, [pc, #28]	; 8988 <i2c_write+0xac>
    8968:	e59f201c 	ldr	r2, [pc, #28]	; 898c <i2c_write+0xb0>
    896c:	e59f101c 	ldr	r1, [pc, #28]	; 8990 <i2c_write+0xb4>
    8970:	e59f0024 	ldr	r0, [pc, #36]	; 899c <i2c_write+0xc0>
    8974:	eb000068 	bl	8b1c <printk>
    8978:	eb0001d7 	bl	90dc <clean_reboot>
    897c:	ebffff16 	bl	85dc <xfer_end>
    8980:	e3a00001 	mov	r0, #1
    8984:	e8bd8070 	pop	{r4, r5, r6, pc}
    8988:	00000123 	andeq	r0, r0, r3, lsr #2
    898c:	00009c2c 	andeq	r9, r0, ip, lsr #24
    8990:	00009c50 	andeq	r9, r0, r0, asr ip
    8994:	00009d48 	andeq	r9, r0, r8, asr #26
    8998:	20804000 	addcs	r4, r0, r0
    899c:	00009d6c 	andeq	r9, r0, ip, ror #26

000089a0 <i2c_read>:
    89a0:	e92d4070 	push	{r4, r5, r6, lr}
    89a4:	e1a05001 	mov	r5, r1
    89a8:	e1a04002 	mov	r4, r2
    89ac:	e3a02001 	mov	r2, #1
    89b0:	e1a01004 	mov	r1, r4
    89b4:	ebffff56 	bl	8714 <xfer_start>
    89b8:	e3a02000 	mov	r2, #0
    89bc:	ea00000a 	b	89ec <i2c_read+0x4c>
    89c0:	eb000070 	bl	8b88 <rpi_reset_putc>
    89c4:	e3a03f4d 	mov	r3, #308	; 0x134
    89c8:	e59f207c 	ldr	r2, [pc, #124]	; 8a4c <i2c_read+0xac>
    89cc:	e59f107c 	ldr	r1, [pc, #124]	; 8a50 <i2c_read+0xb0>
    89d0:	e59f007c 	ldr	r0, [pc, #124]	; 8a54 <i2c_read+0xb4>
    89d4:	eb000050 	bl	8b1c <printk>
    89d8:	eb0001bf 	bl	90dc <clean_reboot>
    89dc:	e59f3074 	ldr	r3, [pc, #116]	; 8a58 <i2c_read+0xb8>
    89e0:	e5933010 	ldr	r3, [r3, #16]
    89e4:	e7c53002 	strb	r3, [r5, r2]
    89e8:	e2822001 	add	r2, r2, #1
    89ec:	e1520004 	cmp	r2, r4
    89f0:	2a000012 	bcs	8a40 <i2c_read+0xa0>
    89f4:	e59f305c 	ldr	r3, [pc, #92]	; 8a58 <i2c_read+0xb8>
    89f8:	e5933004 	ldr	r3, [r3, #4]
    89fc:	e3130020 	tst	r3, #32
    8a00:	1afffff5 	bne	89dc <i2c_read+0x3c>
    8a04:	e59f304c 	ldr	r3, [pc, #76]	; 8a58 <i2c_read+0xb8>
    8a08:	e5933004 	ldr	r3, [r3, #4]
    8a0c:	e3130c01 	tst	r3, #256	; 0x100
    8a10:	1affffea 	bne	89c0 <i2c_read+0x20>
    8a14:	e59f303c 	ldr	r3, [pc, #60]	; 8a58 <i2c_read+0xb8>
    8a18:	e5933004 	ldr	r3, [r3, #4]
    8a1c:	e3130c02 	tst	r3, #512	; 0x200
    8a20:	0afffff3 	beq	89f4 <i2c_read+0x54>
    8a24:	eb000057 	bl	8b88 <rpi_reset_putc>
    8a28:	e3a03f4d 	mov	r3, #308	; 0x134
    8a2c:	e59f2018 	ldr	r2, [pc, #24]	; 8a4c <i2c_read+0xac>
    8a30:	e59f1018 	ldr	r1, [pc, #24]	; 8a50 <i2c_read+0xb0>
    8a34:	e59f0020 	ldr	r0, [pc, #32]	; 8a5c <i2c_read+0xbc>
    8a38:	eb000037 	bl	8b1c <printk>
    8a3c:	eb0001a6 	bl	90dc <clean_reboot>
    8a40:	ebfffee5 	bl	85dc <xfer_end>
    8a44:	e3a00001 	mov	r0, #1
    8a48:	e8bd8070 	pop	{r4, r5, r6, pc}
    8a4c:	00009c38 	andeq	r9, r0, r8, lsr ip
    8a50:	00009c50 	andeq	r9, r0, r0, asr ip
    8a54:	00009d48 	andeq	r9, r0, r8, asr #26
    8a58:	20804000 	addcs	r4, r0, r0
    8a5c:	00009d6c 	andeq	r9, r0, ip, ror #26

00008a60 <i2c_is_initialized>:
    8a60:	e59f3004 	ldr	r3, [pc, #4]	; 8a6c <i2c_is_initialized+0xc>
    8a64:	e5930000 	ldr	r0, [r3]
    8a68:	e12fff1e 	bx	lr
    8a6c:	00009f68 	andeq	r9, r0, r8, ror #30

00008a70 <i2c_init>:
    8a70:	e92d4010 	push	{r4, lr}
    8a74:	ebfffed6 	bl	85d4 <check_layout>
    8a78:	eb0003aa 	bl	9928 <dev_barrier>
    8a7c:	e3a01004 	mov	r1, #4
    8a80:	e3a00002 	mov	r0, #2
    8a84:	eb00028a 	bl	94b4 <gpio_set_function>
    8a88:	e3a01004 	mov	r1, #4
    8a8c:	e3a00003 	mov	r0, #3
    8a90:	eb000287 	bl	94b4 <gpio_set_function>
    8a94:	eb0003a3 	bl	9928 <dev_barrier>
    8a98:	e59f404c 	ldr	r4, [pc, #76]	; 8aec <i2c_init+0x7c>
    8a9c:	e3a01902 	mov	r1, #32768	; 0x8000
    8aa0:	e1a00004 	mov	r0, r4
    8aa4:	eb0003a5 	bl	9940 <put32>
    8aa8:	eb00039e 	bl	9928 <dev_barrier>
    8aac:	ebffff0a 	bl	86dc <reset_status>
    8ab0:	eb00039c 	bl	9928 <dev_barrier>
    8ab4:	e5943004 	ldr	r3, [r4, #4]
    8ab8:	e3130001 	tst	r3, #1
    8abc:	1a000003 	bne	8ad0 <i2c_init+0x60>
    8ac0:	e3a02001 	mov	r2, #1
    8ac4:	e59f3024 	ldr	r3, [pc, #36]	; 8af0 <i2c_init+0x80>
    8ac8:	e5832000 	str	r2, [r3]
    8acc:	e8bd8010 	pop	{r4, pc}
    8ad0:	eb00002c 	bl	8b88 <rpi_reset_putc>
    8ad4:	e59f3018 	ldr	r3, [pc, #24]	; 8af4 <i2c_init+0x84>
    8ad8:	e59f2018 	ldr	r2, [pc, #24]	; 8af8 <i2c_init+0x88>
    8adc:	e59f1018 	ldr	r1, [pc, #24]	; 8afc <i2c_init+0x8c>
    8ae0:	e59f0018 	ldr	r0, [pc, #24]	; 8b00 <i2c_init+0x90>
    8ae4:	eb00000c 	bl	8b1c <printk>
    8ae8:	eb00017b 	bl	90dc <clean_reboot>
    8aec:	20804000 	addcs	r4, r0, r0
    8af0:	00009f68 	andeq	r9, r0, r8, ror #30
    8af4:	00000162 	andeq	r0, r0, r2, ror #2
    8af8:	00009c44 	andeq	r9, r0, r4, asr #24
    8afc:	00009c50 	andeq	r9, r0, r0, asr ip
    8b00:	00009d9c 	muleq	r0, ip, sp

00008b04 <i2c_init_once>:
    8b04:	e92d4010 	push	{r4, lr}
    8b08:	ebffffd4 	bl	8a60 <i2c_is_initialized>
    8b0c:	e3500000 	cmp	r0, #0
    8b10:	18bd8010 	popne	{r4, pc}
    8b14:	ebffffd5 	bl	8a70 <i2c_init>
    8b18:	e8bd8010 	pop	{r4, pc}

00008b1c <printk>:
    8b1c:	e92d000f 	push	{r0, r1, r2, r3}
    8b20:	e92d4030 	push	{r4, r5, lr}
    8b24:	e24dd00c 	sub	sp, sp, #12
    8b28:	e28d301c 	add	r3, sp, #28
    8b2c:	e58d3004 	str	r3, [sp, #4]
    8b30:	e59f4034 	ldr	r4, [pc, #52]	; 8b6c <printk+0x50>
    8b34:	e1a00004 	mov	r0, r4
    8b38:	e3a01b01 	mov	r1, #1024	; 0x400
    8b3c:	e59d2018 	ldr	r2, [sp, #24]
    8b40:	eb0000c3 	bl	8e54 <va_printk>
    8b44:	e1a05000 	mov	r5, r0
    8b48:	e59f3020 	ldr	r3, [pc, #32]	; 8b70 <printk+0x54>
    8b4c:	e5933000 	ldr	r3, [r3]
    8b50:	e1a00004 	mov	r0, r4
    8b54:	e12fff33 	blx	r3
    8b58:	e1a00005 	mov	r0, r5
    8b5c:	e28dd00c 	add	sp, sp, #12
    8b60:	e8bd4030 	pop	{r4, r5, lr}
    8b64:	e28dd010 	add	sp, sp, #16
    8b68:	e12fff1e 	bx	lr
    8b6c:	00009f6c 	andeq	r9, r0, ip, ror #30
    8b70:	00009990 	muleq	r0, r0, r9

00008b74 <internal_putchar>:
    8b74:	e92d4010 	push	{r4, lr}
    8b78:	e1a04000 	mov	r4, r0
    8b7c:	eb000353 	bl	98d0 <uart_putc>
    8b80:	e1a00004 	mov	r0, r4
    8b84:	e8bd8010 	pop	{r4, pc}

00008b88 <rpi_reset_putc>:
    8b88:	e59f2008 	ldr	r2, [pc, #8]	; 8b98 <rpi_reset_putc+0x10>
    8b8c:	e59f3008 	ldr	r3, [pc, #8]	; 8b9c <rpi_reset_putc+0x14>
    8b90:	e5832000 	str	r2, [r3]
    8b94:	e12fff1e 	bx	lr
    8b98:	00008b74 	andeq	r8, r0, r4, ror fp
    8b9c:	0000998c 	andeq	r9, r0, ip, lsl #19

00008ba0 <rpi_set_putc>:
    8ba0:	e59f3004 	ldr	r3, [pc, #4]	; 8bac <rpi_set_putc+0xc>
    8ba4:	e5830000 	str	r0, [r3]
    8ba8:	e12fff1e 	bx	lr
    8bac:	0000998c 	andeq	r9, r0, ip, lsl #19

00008bb0 <internal_putk>:
    8bb0:	e92d4038 	push	{r3, r4, r5, lr}
    8bb4:	e1a04000 	mov	r4, r0
    8bb8:	e59f5020 	ldr	r5, [pc, #32]	; 8be0 <internal_putk+0x30>
    8bbc:	ea000002 	b	8bcc <internal_putk+0x1c>
    8bc0:	e5953000 	ldr	r3, [r5]
    8bc4:	e12fff33 	blx	r3
    8bc8:	e2844001 	add	r4, r4, #1
    8bcc:	e5d40000 	ldrb	r0, [r4]
    8bd0:	e3500000 	cmp	r0, #0
    8bd4:	1afffff9 	bne	8bc0 <internal_putk+0x10>
    8bd8:	e3a00001 	mov	r0, #1
    8bdc:	e8bd8038 	pop	{r3, r4, r5, pc}
    8be0:	0000998c 	andeq	r9, r0, ip, lsl #19

00008be4 <isdigit>:
    8be4:	e2400030 	sub	r0, r0, #48	; 0x30
    8be8:	e3500009 	cmp	r0, #9
    8bec:	83a00000 	movhi	r0, #0
    8bf0:	93a00001 	movls	r0, #1
    8bf4:	e12fff1e 	bx	lr

00008bf8 <pad>:
    8bf8:	e0611000 	rsb	r1, r1, r0
    8bfc:	e3a03020 	mov	r3, #32
    8c00:	ea000002 	b	8c10 <pad+0x18>
    8c04:	e5c03000 	strb	r3, [r0]
    8c08:	e2811001 	add	r1, r1, #1
    8c0c:	e2800001 	add	r0, r0, #1
    8c10:	e1510002 	cmp	r1, r2
    8c14:	bafffffa 	blt	8c04 <pad+0xc>
    8c18:	e3a03000 	mov	r3, #0
    8c1c:	e5c03000 	strb	r3, [r0]
    8c20:	e12fff1e 	bx	lr

00008c24 <reverse>:
    8c24:	e063c002 	rsb	ip, r3, r2
    8c28:	e28cc001 	add	ip, ip, #1
    8c2c:	e15c0001 	cmp	ip, r1
    8c30:	c061100c 	rsbgt	r1, r1, ip
    8c34:	c0833001 	addgt	r3, r3, r1
    8c38:	e2422001 	sub	r2, r2, #1
    8c3c:	e1a01000 	mov	r1, r0
    8c40:	ea000002 	b	8c50 <reverse+0x2c>
    8c44:	e452c001 	ldrb	ip, [r2], #-1
    8c48:	e5c1c000 	strb	ip, [r1]
    8c4c:	e2811001 	add	r1, r1, #1
    8c50:	e1520003 	cmp	r2, r3
    8c54:	2afffffa 	bcs	8c44 <reverse+0x20>
    8c58:	e3a03000 	mov	r3, #0
    8c5c:	e5c13000 	strb	r3, [r1]
    8c60:	e12fff1e 	bx	lr

00008c64 <emit>:
    8c64:	e92d41f0 	push	{r4, r5, r6, r7, r8, lr}
    8c68:	e24dd040 	sub	sp, sp, #64	; 0x40
    8c6c:	e1a05001 	mov	r5, r1
    8c70:	e1a04002 	mov	r4, r2
    8c74:	e59d2058 	ldr	r2, [sp, #88]	; 0x58
    8c78:	e1520004 	cmp	r2, r4
    8c7c:	c2442001 	subgt	r2, r4, #1
    8c80:	e1a0c003 	mov	ip, r3
    8c84:	e2400002 	sub	r0, r0, #2
    8c88:	e350000e 	cmp	r0, #14
    8c8c:	979ff100 	ldrls	pc, [pc, r0, lsl #2]
    8c90:	ea000042 	b	8da0 <emit+0x13c>
    8c94:	00008d78 	andeq	r8, r0, r8, ror sp
    8c98:	00008da0 	andeq	r8, r0, r0, lsr #27
    8c9c:	00008da0 	andeq	r8, r0, r0, lsr #27
    8ca0:	00008da0 	andeq	r8, r0, r0, lsr #27
    8ca4:	00008da0 	andeq	r8, r0, r0, lsr #27
    8ca8:	00008da0 	andeq	r8, r0, r0, lsr #27
    8cac:	00008d6c 	andeq	r8, r0, ip, ror #26
    8cb0:	00008da0 	andeq	r8, r0, r0, lsr #27
    8cb4:	00008cd0 	ldrdeq	r8, [r0], -r0
    8cb8:	00008da0 	andeq	r8, r0, r0, lsr #27
    8cbc:	00008da0 	andeq	r8, r0, r0, lsr #27
    8cc0:	00008da0 	andeq	r8, r0, r0, lsr #27
    8cc4:	00008da0 	andeq	r8, r0, r0, lsr #27
    8cc8:	00008da0 	andeq	r8, r0, r0, lsr #27
    8ccc:	00008d44 	andeq	r8, r0, r4, asr #26
    8cd0:	e59d105c 	ldr	r1, [sp, #92]	; 0x5c
    8cd4:	e2911000 	adds	r1, r1, #0
    8cd8:	13a01001 	movne	r1, #1
    8cdc:	e0111fa3 	ands	r1, r1, r3, lsr #31
    8ce0:	1263c000 	rsbne	ip, r3, #0
    8ce4:	13a08001 	movne	r8, #1
    8ce8:	03a08000 	moveq	r8, #0
    8cec:	e1a0100d 	mov	r1, sp
    8cf0:	e59f70ec 	ldr	r7, [pc, #236]	; 8de4 <emit+0x180>
    8cf4:	e59f60ec 	ldr	r6, [pc, #236]	; 8de8 <emit+0x184>
    8cf8:	ea000000 	b	8d00 <emit+0x9c>
    8cfc:	e1a01003 	mov	r1, r3
    8d00:	e2813001 	add	r3, r1, #1
    8d04:	e08e0c97 	umull	r0, lr, r7, ip
    8d08:	e1a0e1ae 	lsr	lr, lr, #3
    8d0c:	e1a0000e 	mov	r0, lr
    8d10:	e08ee10e 	add	lr, lr, lr, lsl #2
    8d14:	e1a0e08e 	lsl	lr, lr, #1
    8d18:	e06ee00c 	rsb	lr, lr, ip
    8d1c:	e7d6c00e 	ldrb	ip, [r6, lr]
    8d20:	e5c1c000 	strb	ip, [r1]
    8d24:	e1a0c000 	mov	ip, r0
    8d28:	e3500000 	cmp	r0, #0
    8d2c:	1afffff2 	bne	8cfc <emit+0x98>
    8d30:	e3580000 	cmp	r8, #0
    8d34:	12813002 	addne	r3, r1, #2
    8d38:	13a0002d 	movne	r0, #45	; 0x2d
    8d3c:	15c10001 	strbne	r0, [r1, #1]
    8d40:	ea00001d 	b	8dbc <emit+0x158>
    8d44:	e1a0e00d 	mov	lr, sp
    8d48:	e59f009c 	ldr	r0, [pc, #156]	; 8dec <emit+0x188>
    8d4c:	e28e3001 	add	r3, lr, #1
    8d50:	e20c100f 	and	r1, ip, #15
    8d54:	e7d01001 	ldrb	r1, [r0, r1]
    8d58:	e5ce1000 	strb	r1, [lr]
    8d5c:	e1a0e003 	mov	lr, r3
    8d60:	e1b0c22c 	lsrs	ip, ip, #4
    8d64:	1afffff8 	bne	8d4c <emit+0xe8>
    8d68:	ea000013 	b	8dbc <emit+0x158>
    8d6c:	e5cd3000 	strb	r3, [sp]
    8d70:	e28d3001 	add	r3, sp, #1
    8d74:	ea000010 	b	8dbc <emit+0x158>
    8d78:	e1a0e00d 	mov	lr, sp
    8d7c:	e59f006c 	ldr	r0, [pc, #108]	; 8df0 <emit+0x18c>
    8d80:	e28e3001 	add	r3, lr, #1
    8d84:	e20c1001 	and	r1, ip, #1
    8d88:	e7d01001 	ldrb	r1, [r0, r1]
    8d8c:	e5ce1000 	strb	r1, [lr]
    8d90:	e1a0e003 	mov	lr, r3
    8d94:	e1b0c0ac 	lsrs	ip, ip, #1
    8d98:	1afffff8 	bne	8d80 <emit+0x11c>
    8d9c:	ea000006 	b	8dbc <emit+0x158>
    8da0:	ebffff78 	bl	8b88 <rpi_reset_putc>
    8da4:	e59f0048 	ldr	r0, [pc, #72]	; 8df4 <emit+0x190>
    8da8:	e59f1048 	ldr	r1, [pc, #72]	; 8df8 <emit+0x194>
    8dac:	e59f2048 	ldr	r2, [pc, #72]	; 8dfc <emit+0x198>
    8db0:	e3a03075 	mov	r3, #117	; 0x75
    8db4:	ebffff58 	bl	8b1c <printk>
    8db8:	eb0000c7 	bl	90dc <clean_reboot>
    8dbc:	e1a00003 	mov	r0, r3
    8dc0:	e1a0100d 	mov	r1, sp
    8dc4:	ebffff8b 	bl	8bf8 <pad>
    8dc8:	e1a02000 	mov	r2, r0
    8dcc:	e1a00005 	mov	r0, r5
    8dd0:	e1a01004 	mov	r1, r4
    8dd4:	e1a0300d 	mov	r3, sp
    8dd8:	ebffff91 	bl	8c24 <reverse>
    8ddc:	e28dd040 	add	sp, sp, #64	; 0x40
    8de0:	e8bd81f0 	pop	{r4, r5, r6, r7, r8, pc}
    8de4:	cccccccd 	stclgt	12, cr12, [ip], {205}	; 0xcd
    8de8:	00009ea4 	andeq	r9, r0, r4, lsr #29
    8dec:	00009eb0 			; <UNDEFINED> instruction: 0x00009eb0
    8df0:	00009ec4 	andeq	r9, r0, r4, asr #29
    8df4:	00009e7c 	andeq	r9, r0, ip, ror lr
    8df8:	00009e90 	muleq	r0, r0, lr
    8dfc:	00009e58 	andeq	r9, r0, r8, asr lr

00008e00 <rpi_set_output>:
    8e00:	e92d4008 	push	{r3, lr}
    8e04:	e3500000 	cmp	r0, #0
    8e08:	1a000006 	bne	8e28 <rpi_set_output+0x28>
    8e0c:	ebffff5d 	bl	8b88 <rpi_reset_putc>
    8e10:	e59f0028 	ldr	r0, [pc, #40]	; 8e40 <rpi_set_output+0x40>
    8e14:	e59f1028 	ldr	r1, [pc, #40]	; 8e44 <rpi_set_output+0x44>
    8e18:	e59f2028 	ldr	r2, [pc, #40]	; 8e48 <rpi_set_output+0x48>
    8e1c:	e3a03020 	mov	r3, #32
    8e20:	ebffff3d 	bl	8b1c <printk>
    8e24:	eb0000ac 	bl	90dc <clean_reboot>
    8e28:	e59f301c 	ldr	r3, [pc, #28]	; 8e4c <rpi_set_output+0x4c>
    8e2c:	e5830000 	str	r0, [r3]
    8e30:	e3510000 	cmp	r1, #0
    8e34:	159f3014 	ldrne	r3, [pc, #20]	; 8e50 <rpi_set_output+0x50>
    8e38:	15831000 	strne	r1, [r3]
    8e3c:	e8bd8008 	pop	{r3, pc}
    8e40:	00009ec8 	andeq	r9, r0, r8, asr #29
    8e44:	00009e90 	muleq	r0, r0, lr
    8e48:	00009e60 	andeq	r9, r0, r0, ror #28
    8e4c:	0000998c 	andeq	r9, r0, ip, lsl #19
    8e50:	00009990 	muleq	r0, r0, r9

00008e54 <va_printk>:
    8e54:	e92d4ff0 	push	{r4, r5, r6, r7, r8, r9, sl, fp, lr}
    8e58:	e24dd08c 	sub	sp, sp, #140	; 0x8c
    8e5c:	e1a0a000 	mov	sl, r0
    8e60:	e1a09003 	mov	r9, r3
    8e64:	e2411001 	sub	r1, r1, #1
    8e68:	e0808001 	add	r8, r0, r1
    8e6c:	e3a03000 	mov	r3, #0
    8e70:	e5c03000 	strb	r3, [r0]
    8e74:	e1a04000 	mov	r4, r0
    8e78:	e1a0b003 	mov	fp, r3
    8e7c:	ea000086 	b	909c <va_printk+0x248>
    8e80:	e3530025 	cmp	r3, #37	; 0x25
    8e84:	12822001 	addne	r2, r2, #1
    8e88:	15c43000 	strbne	r3, [r4]
    8e8c:	12844001 	addne	r4, r4, #1
    8e90:	1a000081 	bne	909c <va_printk+0x248>
    8e94:	e5d21001 	ldrb	r1, [r2, #1]
    8e98:	e3510025 	cmp	r1, #37	; 0x25
    8e9c:	05c43000 	strbeq	r3, [r4]
    8ea0:	02822002 	addeq	r2, r2, #2
    8ea4:	02844001 	addeq	r4, r4, #1
    8ea8:	0a00007b 	beq	909c <va_printk+0x248>
    8eac:	e2826001 	add	r6, r2, #1
    8eb0:	e1a0700b 	mov	r7, fp
    8eb4:	ea000004 	b	8ecc <va_printk+0x78>
    8eb8:	e0877107 	add	r7, r7, r7, lsl #2
    8ebc:	e1a07087 	lsl	r7, r7, #1
    8ec0:	e0877005 	add	r7, r7, r5
    8ec4:	e2477030 	sub	r7, r7, #48	; 0x30
    8ec8:	e2866001 	add	r6, r6, #1
    8ecc:	e5d65000 	ldrb	r5, [r6]
    8ed0:	e1a00005 	mov	r0, r5
    8ed4:	ebffff42 	bl	8be4 <isdigit>
    8ed8:	e3500000 	cmp	r0, #0
    8edc:	1afffff5 	bne	8eb8 <va_printk+0x64>
    8ee0:	e357001f 	cmp	r7, #31
    8ee4:	9a000006 	bls	8f04 <va_printk+0xb0>
    8ee8:	ebffff26 	bl	8b88 <rpi_reset_putc>
    8eec:	e59f01d4 	ldr	r0, [pc, #468]	; 90c8 <va_printk+0x274>
    8ef0:	e59f11d4 	ldr	r1, [pc, #468]	; 90cc <va_printk+0x278>
    8ef4:	e59f21d4 	ldr	r2, [pc, #468]	; 90d0 <va_printk+0x27c>
    8ef8:	e3a03092 	mov	r3, #146	; 0x92
    8efc:	ebffff06 	bl	8b1c <printk>
    8f00:	eb000075 	bl	90dc <clean_reboot>
    8f04:	e2455062 	sub	r5, r5, #98	; 0x62
    8f08:	e3550016 	cmp	r5, #22
    8f0c:	979ff105 	ldrls	pc, [pc, r5, lsl #2]
    8f10:	ea00004e 	b	9050 <va_printk+0x1fc>
    8f14:	00008ffc 	strdeq	r8, [r0], -ip
    8f18:	0000902c 	andeq	r9, r0, ip, lsr #32
    8f1c:	00008f8c 	andeq	r8, r0, ip, lsl #31
    8f20:	00009050 	andeq	r9, r0, r0, asr r0
    8f24:	00008f70 	andeq	r8, r0, r0, ror pc
    8f28:	00009050 	andeq	r9, r0, r0, asr r0
    8f2c:	00009050 	andeq	r9, r0, r0, asr r0
    8f30:	00009050 	andeq	r9, r0, r0, asr r0
    8f34:	00009050 	andeq	r9, r0, r0, asr r0
    8f38:	00009050 	andeq	r9, r0, r0, asr r0
    8f3c:	00009050 	andeq	r9, r0, r0, asr r0
    8f40:	00009050 	andeq	r9, r0, r0, asr r0
    8f44:	00009050 	andeq	r9, r0, r0, asr r0
    8f48:	00009050 	andeq	r9, r0, r0, asr r0
    8f4c:	00008fd8 	ldrdeq	r8, [r0], -r8	; <UNPREDICTABLE>
    8f50:	00009050 	andeq	r9, r0, r0, asr r0
    8f54:	00009050 	andeq	r9, r0, r0, asr r0
    8f58:	00009020 	andeq	r9, r0, r0, lsr #32
    8f5c:	00009050 	andeq	r9, r0, r0, asr r0
    8f60:	00008fb4 			; <UNDEFINED> instruction: 0x00008fb4
    8f64:	00009050 	andeq	r9, r0, r0, asr r0
    8f68:	00009050 	andeq	r9, r0, r0, asr r0
    8f6c:	00008fd8 	ldrdeq	r8, [r0], -r8	; <UNPREDICTABLE>
    8f70:	ebffff04 	bl	8b88 <rpi_reset_putc>
    8f74:	e59f0158 	ldr	r0, [pc, #344]	; 90d4 <va_printk+0x280>
    8f78:	e59f114c 	ldr	r1, [pc, #332]	; 90cc <va_printk+0x278>
    8f7c:	e59f214c 	ldr	r2, [pc, #332]	; 90d0 <va_printk+0x27c>
    8f80:	e3a03098 	mov	r3, #152	; 0x98
    8f84:	ebfffee4 	bl	8b1c <printk>
    8f88:	eb000053 	bl	90dc <clean_reboot>
    8f8c:	e5993000 	ldr	r3, [r9]
    8f90:	e2899004 	add	r9, r9, #4
    8f94:	e58d7000 	str	r7, [sp]
    8f98:	e3a02001 	mov	r2, #1
    8f9c:	e58d2004 	str	r2, [sp, #4]
    8fa0:	e3a0000a 	mov	r0, #10
    8fa4:	e28d1008 	add	r1, sp, #8
    8fa8:	e3a02080 	mov	r2, #128	; 0x80
    8fac:	ebffff2c 	bl	8c64 <emit>
    8fb0:	ea00002f 	b	9074 <va_printk+0x220>
    8fb4:	e5993000 	ldr	r3, [r9]
    8fb8:	e2899004 	add	r9, r9, #4
    8fbc:	e58d7000 	str	r7, [sp]
    8fc0:	e58db004 	str	fp, [sp, #4]
    8fc4:	e3a0000a 	mov	r0, #10
    8fc8:	e28d1008 	add	r1, sp, #8
    8fcc:	e3a02080 	mov	r2, #128	; 0x80
    8fd0:	ebffff23 	bl	8c64 <emit>
    8fd4:	ea000026 	b	9074 <va_printk+0x220>
    8fd8:	e5993000 	ldr	r3, [r9]
    8fdc:	e2899004 	add	r9, r9, #4
    8fe0:	e58d7000 	str	r7, [sp]
    8fe4:	e58db004 	str	fp, [sp, #4]
    8fe8:	e3a00010 	mov	r0, #16
    8fec:	e28d1008 	add	r1, sp, #8
    8ff0:	e3a02080 	mov	r2, #128	; 0x80
    8ff4:	ebffff1a 	bl	8c64 <emit>
    8ff8:	ea00001d 	b	9074 <va_printk+0x220>
    8ffc:	e5993000 	ldr	r3, [r9]
    9000:	e2899004 	add	r9, r9, #4
    9004:	e58d7000 	str	r7, [sp]
    9008:	e58db004 	str	fp, [sp, #4]
    900c:	e3a00002 	mov	r0, #2
    9010:	e28d1008 	add	r1, sp, #8
    9014:	e3a02080 	mov	r2, #128	; 0x80
    9018:	ebffff11 	bl	8c64 <emit>
    901c:	ea000014 	b	9074 <va_printk+0x220>
    9020:	e5990000 	ldr	r0, [r9]
    9024:	e2899004 	add	r9, r9, #4
    9028:	ea000011 	b	9074 <va_printk+0x220>
    902c:	e5993000 	ldr	r3, [r9]
    9030:	e2899004 	add	r9, r9, #4
    9034:	e58d7000 	str	r7, [sp]
    9038:	e58db004 	str	fp, [sp, #4]
    903c:	e3a00008 	mov	r0, #8
    9040:	e08d1000 	add	r1, sp, r0
    9044:	e3a02080 	mov	r2, #128	; 0x80
    9048:	ebffff05 	bl	8c64 <emit>
    904c:	ea000008 	b	9074 <va_printk+0x220>
    9050:	ebfffecc 	bl	8b88 <rpi_reset_putc>
    9054:	e5d63000 	ldrb	r3, [r6]
    9058:	e58d3000 	str	r3, [sp]
    905c:	e59f0074 	ldr	r0, [pc, #116]	; 90d8 <va_printk+0x284>
    9060:	e59f1064 	ldr	r1, [pc, #100]	; 90cc <va_printk+0x278>
    9064:	e59f2064 	ldr	r2, [pc, #100]	; 90d0 <va_printk+0x27c>
    9068:	e3a030b9 	mov	r3, #185	; 0xb9
    906c:	ebfffeaa 	bl	8b1c <printk>
    9070:	eb000019 	bl	90dc <clean_reboot>
    9074:	e2862001 	add	r2, r6, #1
    9078:	ea000002 	b	9088 <va_printk+0x234>
    907c:	e2800001 	add	r0, r0, #1
    9080:	e5c43000 	strb	r3, [r4]
    9084:	e2844001 	add	r4, r4, #1
    9088:	e1540008 	cmp	r4, r8
    908c:	2a000002 	bcs	909c <va_printk+0x248>
    9090:	e5d03000 	ldrb	r3, [r0]
    9094:	e3530000 	cmp	r3, #0
    9098:	1afffff7 	bne	907c <va_printk+0x228>
    909c:	e5d23000 	ldrb	r3, [r2]
    90a0:	e3530000 	cmp	r3, #0
    90a4:	0a000001 	beq	90b0 <va_printk+0x25c>
    90a8:	e1540008 	cmp	r4, r8
    90ac:	3affff73 	bcc	8e80 <va_printk+0x2c>
    90b0:	e2840001 	add	r0, r4, #1
    90b4:	e3a03000 	mov	r3, #0
    90b8:	e5c43000 	strb	r3, [r4]
    90bc:	e06a0000 	rsb	r0, sl, r0
    90c0:	e28dd08c 	add	sp, sp, #140	; 0x8c
    90c4:	e8bd8ff0 	pop	{r4, r5, r6, r7, r8, r9, sl, fp, pc}
    90c8:	00009ee0 	andeq	r9, r0, r0, ror #29
    90cc:	00009e90 	muleq	r0, r0, lr
    90d0:	00009e70 	andeq	r9, r0, r0, ror lr
    90d4:	00009efc 	strdeq	r9, [r0], -ip
    90d8:	00009f24 	andeq	r9, r0, r4, lsr #30

000090dc <clean_reboot>:
    90dc:	e92d4008 	push	{r3, lr}
    90e0:	e59f3014 	ldr	r3, [pc, #20]	; 90fc <clean_reboot+0x20>
    90e4:	e5933000 	ldr	r3, [r3]
    90e8:	e59f0010 	ldr	r0, [pc, #16]	; 9100 <clean_reboot+0x24>
    90ec:	e12fff33 	blx	r3
    90f0:	e3a00064 	mov	r0, #100	; 0x64
    90f4:	eb000044 	bl	920c <delay_ms>
    90f8:	eb000019 	bl	9164 <rpi_reboot>
    90fc:	00009990 	muleq	r0, r0, r9
    9100:	00009f5c 	andeq	r9, r0, ip, asr pc

00009104 <_cstart>:
    9104:	e92d4008 	push	{r3, lr}
    9108:	e59f3020 	ldr	r3, [pc, #32]	; 9130 <_cstart+0x2c>
    910c:	e59f2020 	ldr	r2, [pc, #32]	; 9134 <_cstart+0x30>
    9110:	e3a01000 	mov	r1, #0
    9114:	ea000001 	b	9120 <_cstart+0x1c>
    9118:	e5831000 	str	r1, [r3]
    911c:	e2833004 	add	r3, r3, #4
    9120:	e1530002 	cmp	r3, r2
    9124:	3afffffb 	bcc	9118 <_cstart+0x14>
    9128:	ebfffd01 	bl	8534 <notmain>
    912c:	eb00000c 	bl	9164 <rpi_reboot>
    9130:	00009f68 	andeq	r9, r0, r8, ror #30
    9134:	0000a370 	andeq	sl, r0, r0, ror r3

00009138 <at_user_level>:
    9138:	e10f0000 	mrs	r0, CPSR
    913c:	e200001f 	and	r0, r0, #31
    9140:	e3500010 	cmp	r0, #16
    9144:	13a00000 	movne	r0, #0
    9148:	03a00001 	moveq	r0, #1
    914c:	e12fff1e 	bx	lr

00009150 <set_user_level>:
    9150:	e10f3000 	mrs	r3, CPSR
    9154:	e3c3301f 	bic	r3, r3, #31
    9158:	e3833010 	orr	r3, r3, #16
    915c:	e129f003 	msr	CPSR_fc, r3
    9160:	e12fff1e 	bx	lr

00009164 <rpi_reboot>:
    9164:	e92d4008 	push	{r3, lr}
    9168:	ebfffff2 	bl	9138 <at_user_level>
    916c:	e3500000 	cmp	r0, #0
    9170:	0a000000 	beq	9178 <rpi_reboot+0x14>
    9174:	ebfffff5 	bl	9150 <set_user_level>
    9178:	e3a0001e 	mov	r0, #30
    917c:	eb000022 	bl	920c <delay_ms>
    9180:	e59f0014 	ldr	r0, [pc, #20]	; 919c <rpi_reboot+0x38>
    9184:	e59f1014 	ldr	r1, [pc, #20]	; 91a0 <rpi_reboot+0x3c>
    9188:	eb0001ee 	bl	9948 <PUT32>
    918c:	e59f0010 	ldr	r0, [pc, #16]	; 91a4 <rpi_reboot+0x40>
    9190:	e59f1010 	ldr	r1, [pc, #16]	; 91a8 <rpi_reboot+0x44>
    9194:	eb0001eb 	bl	9948 <PUT32>
    9198:	eafffffe 	b	9198 <rpi_reboot+0x34>
    919c:	20100024 	andscs	r0, r0, r4, lsr #32
    91a0:	5a000001 	bpl	91ac <delay_cycles>
    91a4:	2010001c 	andscs	r0, r0, ip, lsl r0
    91a8:	5a000020 	bpl	9230 <delay_sec+0x10>

000091ac <delay_cycles>:
    91ac:	ea000001 	b	91b8 <delay_cycles+0xc>
    91b0:	e2811000 	add	r1, r1, #0
    91b4:	e1a00003 	mov	r0, r3
    91b8:	e2403001 	sub	r3, r0, #1
    91bc:	e3500000 	cmp	r0, #0
    91c0:	1afffffa 	bne	91b0 <delay_cycles+0x4>
    91c4:	e12fff1e 	bx	lr

000091c8 <timer_get_usec_raw>:
    91c8:	e92d4008 	push	{r3, lr}
    91cc:	e59f0004 	ldr	r0, [pc, #4]	; 91d8 <timer_get_usec_raw+0x10>
    91d0:	eb0001e8 	bl	9978 <GET32>
    91d4:	e8bd8008 	pop	{r3, pc}
    91d8:	20003004 	andcs	r3, r0, r4

000091dc <timer_get_usec>:
    91dc:	e92d4008 	push	{r3, lr}
    91e0:	ebfffff8 	bl	91c8 <timer_get_usec_raw>
    91e4:	e8bd8008 	pop	{r3, pc}

000091e8 <delay_us>:
    91e8:	e92d4038 	push	{r3, r4, r5, lr}
    91ec:	e1a05000 	mov	r5, r0
    91f0:	ebfffff9 	bl	91dc <timer_get_usec>
    91f4:	e1a04000 	mov	r4, r0
    91f8:	ebfffff7 	bl	91dc <timer_get_usec>
    91fc:	e0640000 	rsb	r0, r4, r0
    9200:	e1500005 	cmp	r0, r5
    9204:	3afffffb 	bcc	91f8 <delay_us+0x10>
    9208:	e8bd8038 	pop	{r3, r4, r5, pc}

0000920c <delay_ms>:
    920c:	e92d4008 	push	{r3, lr}
    9210:	e3a03ffa 	mov	r3, #1000	; 0x3e8
    9214:	e0000093 	mul	r0, r3, r0
    9218:	ebfffff2 	bl	91e8 <delay_us>
    921c:	e8bd8008 	pop	{r3, pc}

00009220 <delay_sec>:
    9220:	e92d4008 	push	{r3, lr}
    9224:	e3a03ffa 	mov	r3, #1000	; 0x3e8
    9228:	e0000093 	mul	r0, r3, r0
    922c:	ebfffff6 	bl	920c <delay_ms>
    9230:	e8bd8008 	pop	{r3, pc}

00009234 <gpio_set_output>:
    9234:	e92d4038 	push	{r3, r4, r5, lr}
    9238:	e1a04000 	mov	r4, r0
    923c:	e350001f 	cmp	r0, #31
    9240:	88bd8038 	pophi	{r3, r4, r5, pc}
    9244:	e59f30b4 	ldr	r3, [pc, #180]	; 9300 <gpio_set_output+0xcc>
    9248:	e0832093 	umull	r2, r3, r3, r0
    924c:	e1a031a3 	lsr	r3, r3, #3
    9250:	e3530005 	cmp	r3, #5
    9254:	979ff103 	ldrls	pc, [pc, r3, lsl #2]
    9258:	ea000017 	b	92bc <gpio_set_output+0x88>
    925c:	00009274 	andeq	r9, r0, r4, ror r2
    9260:	00009280 	andeq	r9, r0, r0, lsl #5
    9264:	0000928c 	andeq	r9, r0, ip, lsl #5
    9268:	00009298 	muleq	r0, r8, r2
    926c:	000092a4 	andeq	r9, r0, r4, lsr #5
    9270:	000092b0 			; <UNDEFINED> instruction: 0x000092b0
    9274:	e59f3088 	ldr	r3, [pc, #136]	; 9304 <gpio_set_output+0xd0>
    9278:	e5935000 	ldr	r5, [r3]
    927c:	ea00000f 	b	92c0 <gpio_set_output+0x8c>
    9280:	e59f307c 	ldr	r3, [pc, #124]	; 9304 <gpio_set_output+0xd0>
    9284:	e5935004 	ldr	r5, [r3, #4]
    9288:	ea00000c 	b	92c0 <gpio_set_output+0x8c>
    928c:	e59f3070 	ldr	r3, [pc, #112]	; 9304 <gpio_set_output+0xd0>
    9290:	e5935008 	ldr	r5, [r3, #8]
    9294:	ea000009 	b	92c0 <gpio_set_output+0x8c>
    9298:	e59f3064 	ldr	r3, [pc, #100]	; 9304 <gpio_set_output+0xd0>
    929c:	e593500c 	ldr	r5, [r3, #12]
    92a0:	ea000006 	b	92c0 <gpio_set_output+0x8c>
    92a4:	e59f3058 	ldr	r3, [pc, #88]	; 9304 <gpio_set_output+0xd0>
    92a8:	e5935010 	ldr	r5, [r3, #16]
    92ac:	ea000003 	b	92c0 <gpio_set_output+0x8c>
    92b0:	e59f304c 	ldr	r3, [pc, #76]	; 9304 <gpio_set_output+0xd0>
    92b4:	e5935014 	ldr	r5, [r3, #20]
    92b8:	ea000000 	b	92c0 <gpio_set_output+0x8c>
    92bc:	e3a05000 	mov	r5, #0
    92c0:	e1a00005 	mov	r0, r5
    92c4:	eb0001a9 	bl	9970 <get32>
    92c8:	e59f1030 	ldr	r1, [pc, #48]	; 9300 <gpio_set_output+0xcc>
    92cc:	e0813491 	umull	r3, r1, r1, r4
    92d0:	e1a011a1 	lsr	r1, r1, #3
    92d4:	e0811101 	add	r1, r1, r1, lsl #2
    92d8:	e1a01081 	lsl	r1, r1, #1
    92dc:	e0611004 	rsb	r1, r1, r4
    92e0:	e0811081 	add	r1, r1, r1, lsl #1
    92e4:	e3a03007 	mov	r3, #7
    92e8:	e1c03113 	bic	r3, r0, r3, lsl r1
    92ec:	e1a00005 	mov	r0, r5
    92f0:	e3a02001 	mov	r2, #1
    92f4:	e1831112 	orr	r1, r3, r2, lsl r1
    92f8:	eb000190 	bl	9940 <put32>
    92fc:	e8bd8038 	pop	{r3, r4, r5, pc}
    9300:	cccccccd 	stclgt	12, cr12, [ip], {205}	; 0xcd
    9304:	00009994 	muleq	r0, r4, r9

00009308 <gpio_set_on>:
    9308:	e92d4008 	push	{r3, lr}
    930c:	e350001f 	cmp	r0, #31
    9310:	88bd8008 	pophi	{r3, pc}
    9314:	959f3020 	ldrls	r3, [pc, #32]	; 933c <gpio_set_on+0x34>
    9318:	95932018 	ldrls	r2, [r3, #24]
    931c:	859f3018 	ldrhi	r3, [pc, #24]	; 933c <gpio_set_on+0x34>
    9320:	8593201c 	ldrhi	r2, [r3, #28]
    9324:	e200301f 	and	r3, r0, #31
    9328:	e1a00002 	mov	r0, r2
    932c:	e3a01001 	mov	r1, #1
    9330:	e1a01311 	lsl	r1, r1, r3
    9334:	eb000181 	bl	9940 <put32>
    9338:	e8bd8008 	pop	{r3, pc}
    933c:	00009994 	muleq	r0, r4, r9

00009340 <gpio_set_off>:
    9340:	e92d4008 	push	{r3, lr}
    9344:	e350001f 	cmp	r0, #31
    9348:	88bd8008 	pophi	{r3, pc}
    934c:	959f3020 	ldrls	r3, [pc, #32]	; 9374 <gpio_set_off+0x34>
    9350:	95932020 	ldrls	r2, [r3, #32]
    9354:	859f3018 	ldrhi	r3, [pc, #24]	; 9374 <gpio_set_off+0x34>
    9358:	85932024 	ldrhi	r2, [r3, #36]	; 0x24
    935c:	e200301f 	and	r3, r0, #31
    9360:	e1a00002 	mov	r0, r2
    9364:	e3a01001 	mov	r1, #1
    9368:	e1a01311 	lsl	r1, r1, r3
    936c:	eb000173 	bl	9940 <put32>
    9370:	e8bd8008 	pop	{r3, pc}
    9374:	00009994 	muleq	r0, r4, r9

00009378 <gpio_set_input>:
    9378:	e92d4038 	push	{r3, r4, r5, lr}
    937c:	e1a04000 	mov	r4, r0
    9380:	e350001f 	cmp	r0, #31
    9384:	88bd8038 	pophi	{r3, r4, r5, pc}
    9388:	e59f30ac 	ldr	r3, [pc, #172]	; 943c <gpio_set_input+0xc4>
    938c:	e0832093 	umull	r2, r3, r3, r0
    9390:	e1a031a3 	lsr	r3, r3, #3
    9394:	e3530005 	cmp	r3, #5
    9398:	979ff103 	ldrls	pc, [pc, r3, lsl #2]
    939c:	ea000017 	b	9400 <gpio_set_input+0x88>
    93a0:	000093b8 			; <UNDEFINED> instruction: 0x000093b8
    93a4:	000093c4 	andeq	r9, r0, r4, asr #7
    93a8:	000093d0 	ldrdeq	r9, [r0], -r0
    93ac:	000093dc 	ldrdeq	r9, [r0], -ip
    93b0:	000093e8 	andeq	r9, r0, r8, ror #7
    93b4:	000093f4 	strdeq	r9, [r0], -r4
    93b8:	e59f3080 	ldr	r3, [pc, #128]	; 9440 <gpio_set_input+0xc8>
    93bc:	e5935000 	ldr	r5, [r3]
    93c0:	ea00000f 	b	9404 <gpio_set_input+0x8c>
    93c4:	e59f3074 	ldr	r3, [pc, #116]	; 9440 <gpio_set_input+0xc8>
    93c8:	e5935004 	ldr	r5, [r3, #4]
    93cc:	ea00000c 	b	9404 <gpio_set_input+0x8c>
    93d0:	e59f3068 	ldr	r3, [pc, #104]	; 9440 <gpio_set_input+0xc8>
    93d4:	e5935008 	ldr	r5, [r3, #8]
    93d8:	ea000009 	b	9404 <gpio_set_input+0x8c>
    93dc:	e59f305c 	ldr	r3, [pc, #92]	; 9440 <gpio_set_input+0xc8>
    93e0:	e593500c 	ldr	r5, [r3, #12]
    93e4:	ea000006 	b	9404 <gpio_set_input+0x8c>
    93e8:	e59f3050 	ldr	r3, [pc, #80]	; 9440 <gpio_set_input+0xc8>
    93ec:	e5935010 	ldr	r5, [r3, #16]
    93f0:	ea000003 	b	9404 <gpio_set_input+0x8c>
    93f4:	e59f3044 	ldr	r3, [pc, #68]	; 9440 <gpio_set_input+0xc8>
    93f8:	e5935014 	ldr	r5, [r3, #20]
    93fc:	ea000000 	b	9404 <gpio_set_input+0x8c>
    9400:	e3a05000 	mov	r5, #0
    9404:	e1a00005 	mov	r0, r5
    9408:	eb000158 	bl	9970 <get32>
    940c:	e59f1028 	ldr	r1, [pc, #40]	; 943c <gpio_set_input+0xc4>
    9410:	e0813491 	umull	r3, r1, r1, r4
    9414:	e1a011a1 	lsr	r1, r1, #3
    9418:	e0811101 	add	r1, r1, r1, lsl #2
    941c:	e1a01081 	lsl	r1, r1, #1
    9420:	e0611004 	rsb	r1, r1, r4
    9424:	e0811081 	add	r1, r1, r1, lsl #1
    9428:	e3a03007 	mov	r3, #7
    942c:	e1c01113 	bic	r1, r0, r3, lsl r1
    9430:	e1a00005 	mov	r0, r5
    9434:	eb000141 	bl	9940 <put32>
    9438:	e8bd8038 	pop	{r3, r4, r5, pc}
    943c:	cccccccd 	stclgt	12, cr12, [ip], {205}	; 0xcd
    9440:	00009994 	muleq	r0, r4, r9

00009444 <gpio_read>:
    9444:	e92d4010 	push	{r4, lr}
    9448:	e1a04000 	mov	r4, r0
    944c:	e350001f 	cmp	r0, #31
    9450:	8a00000b 	bhi	9484 <gpio_read+0x40>
    9454:	8a000003 	bhi	9468 <gpio_read+0x24>
    9458:	e59f302c 	ldr	r3, [pc, #44]	; 948c <gpio_read+0x48>
    945c:	e5930028 	ldr	r0, [r3, #40]	; 0x28
    9460:	eb000142 	bl	9970 <get32>
    9464:	ea000002 	b	9474 <gpio_read+0x30>
    9468:	e59f301c 	ldr	r3, [pc, #28]	; 948c <gpio_read+0x48>
    946c:	e593002c 	ldr	r0, [r3, #44]	; 0x2c
    9470:	eb00013e 	bl	9970 <get32>
    9474:	e204401f 	and	r4, r4, #31
    9478:	e3a03001 	mov	r3, #1
    947c:	e0000413 	and	r0, r0, r3, lsl r4
    9480:	e8bd8010 	pop	{r4, pc}
    9484:	e3e00000 	mvn	r0, #0
    9488:	e8bd8010 	pop	{r4, pc}
    948c:	00009994 	muleq	r0, r4, r9

00009490 <gpio_write>:
    9490:	e92d4008 	push	{r3, lr}
    9494:	e350001f 	cmp	r0, #31
    9498:	88bd8008 	pophi	{r3, pc}
    949c:	e3510000 	cmp	r1, #0
    94a0:	0a000001 	beq	94ac <gpio_write+0x1c>
    94a4:	ebffff97 	bl	9308 <gpio_set_on>
    94a8:	e8bd8008 	pop	{r3, pc}
    94ac:	ebffffa3 	bl	9340 <gpio_set_off>
    94b0:	e8bd8008 	pop	{r3, pc}

000094b4 <gpio_set_function>:
    94b4:	e92d4070 	push	{r4, r5, r6, lr}
    94b8:	e1a04000 	mov	r4, r0
    94bc:	e1a05001 	mov	r5, r1
    94c0:	e3510007 	cmp	r1, #7
    94c4:	9350001f 	cmpls	r0, #31
    94c8:	88bd8070 	pophi	{r4, r5, r6, pc}
    94cc:	e59f30b0 	ldr	r3, [pc, #176]	; 9584 <gpio_set_function+0xd0>
    94d0:	e0832093 	umull	r2, r3, r3, r0
    94d4:	e1a031a3 	lsr	r3, r3, #3
    94d8:	e3530005 	cmp	r3, #5
    94dc:	979ff103 	ldrls	pc, [pc, r3, lsl #2]
    94e0:	ea000017 	b	9544 <gpio_set_function+0x90>
    94e4:	000094fc 	strdeq	r9, [r0], -ip
    94e8:	00009508 	andeq	r9, r0, r8, lsl #10
    94ec:	00009514 	andeq	r9, r0, r4, lsl r5
    94f0:	00009520 	andeq	r9, r0, r0, lsr #10
    94f4:	0000952c 	andeq	r9, r0, ip, lsr #10
    94f8:	00009538 	andeq	r9, r0, r8, lsr r5
    94fc:	e59f3084 	ldr	r3, [pc, #132]	; 9588 <gpio_set_function+0xd4>
    9500:	e5936000 	ldr	r6, [r3]
    9504:	ea00000f 	b	9548 <gpio_set_function+0x94>
    9508:	e59f3078 	ldr	r3, [pc, #120]	; 9588 <gpio_set_function+0xd4>
    950c:	e5936004 	ldr	r6, [r3, #4]
    9510:	ea00000c 	b	9548 <gpio_set_function+0x94>
    9514:	e59f306c 	ldr	r3, [pc, #108]	; 9588 <gpio_set_function+0xd4>
    9518:	e5936008 	ldr	r6, [r3, #8]
    951c:	ea000009 	b	9548 <gpio_set_function+0x94>
    9520:	e59f3060 	ldr	r3, [pc, #96]	; 9588 <gpio_set_function+0xd4>
    9524:	e593600c 	ldr	r6, [r3, #12]
    9528:	ea000006 	b	9548 <gpio_set_function+0x94>
    952c:	e59f3054 	ldr	r3, [pc, #84]	; 9588 <gpio_set_function+0xd4>
    9530:	e5936010 	ldr	r6, [r3, #16]
    9534:	ea000003 	b	9548 <gpio_set_function+0x94>
    9538:	e59f3048 	ldr	r3, [pc, #72]	; 9588 <gpio_set_function+0xd4>
    953c:	e5936014 	ldr	r6, [r3, #20]
    9540:	ea000000 	b	9548 <gpio_set_function+0x94>
    9544:	e3a06000 	mov	r6, #0
    9548:	e1a00006 	mov	r0, r6
    954c:	eb000107 	bl	9970 <get32>
    9550:	e59f302c 	ldr	r3, [pc, #44]	; 9584 <gpio_set_function+0xd0>
    9554:	e0832493 	umull	r2, r3, r3, r4
    9558:	e1a031a3 	lsr	r3, r3, #3
    955c:	e0833103 	add	r3, r3, r3, lsl #2
    9560:	e1a03083 	lsl	r3, r3, #1
    9564:	e0633004 	rsb	r3, r3, r4
    9568:	e0833083 	add	r3, r3, r3, lsl #1
    956c:	e3a01007 	mov	r1, #7
    9570:	e1c01311 	bic	r1, r0, r1, lsl r3
    9574:	e1a00006 	mov	r0, r6
    9578:	e1811315 	orr	r1, r1, r5, lsl r3
    957c:	eb0000ef 	bl	9940 <put32>
    9580:	e8bd8070 	pop	{r4, r5, r6, pc}
    9584:	cccccccd 	stclgt	12, cr12, [ip], {205}	; 0xcd
    9588:	00009994 	muleq	r0, r4, r9

0000958c <gpio_toggle>:
    958c:	e92d4008 	push	{r3, lr}
    9590:	e350001f 	cmp	r0, #31
    9594:	88bd8008 	pophi	{r3, pc}
    9598:	959f3020 	ldrls	r3, [pc, #32]	; 95c0 <gpio_toggle+0x34>
    959c:	95932018 	ldrls	r2, [r3, #24]
    95a0:	859f3018 	ldrhi	r3, [pc, #24]	; 95c0 <gpio_toggle+0x34>
    95a4:	8593201c 	ldrhi	r2, [r3, #28]
    95a8:	e200301f 	and	r3, r0, #31
    95ac:	e1a00002 	mov	r0, r2
    95b0:	e3a01001 	mov	r1, #1
    95b4:	e1a01311 	lsl	r1, r1, r3
    95b8:	eb0000e0 	bl	9940 <put32>
    95bc:	e8bd8008 	pop	{r3, pc}
    95c0:	00009994 	muleq	r0, r4, r9

000095c4 <is_gpio_int>:
    95c4:	e92d4008 	push	{r3, lr}
    95c8:	e59f301c 	ldr	r3, [pc, #28]	; 95ec <is_gpio_int+0x28>
    95cc:	e5930030 	ldr	r0, [r3, #48]	; 0x30
    95d0:	eb0000e6 	bl	9970 <get32>
    95d4:	e3500000 	cmp	r0, #0
    95d8:	0a000001 	beq	95e4 <is_gpio_int+0x20>
    95dc:	e3a00001 	mov	r0, #1
    95e0:	e8bd8008 	pop	{r3, pc}
    95e4:	e3a00000 	mov	r0, #0
    95e8:	e8bd8008 	pop	{r3, pc}
    95ec:	00009994 	muleq	r0, r4, r9

000095f0 <gpio_int_rising_edge>:
    95f0:	e92d4038 	push	{r3, r4, r5, lr}
    95f4:	e1a04000 	mov	r4, r0
    95f8:	e350001f 	cmp	r0, #31
    95fc:	88bd8038 	pophi	{r3, r4, r5, pc}
    9600:	eb0000c8 	bl	9928 <dev_barrier>
    9604:	e354001f 	cmp	r4, #31
    9608:	8a000007 	bhi	962c <gpio_int_rising_edge+0x3c>
    960c:	e59f505c 	ldr	r5, [pc, #92]	; 9670 <gpio_int_rising_edge+0x80>
    9610:	e5950034 	ldr	r0, [r5, #52]	; 0x34
    9614:	eb0000d5 	bl	9970 <get32>
    9618:	e3a01001 	mov	r1, #1
    961c:	e1801411 	orr	r1, r0, r1, lsl r4
    9620:	e5950034 	ldr	r0, [r5, #52]	; 0x34
    9624:	eb0000c5 	bl	9940 <put32>
    9628:	ea000007 	b	964c <gpio_int_rising_edge+0x5c>
    962c:	e59f503c 	ldr	r5, [pc, #60]	; 9670 <gpio_int_rising_edge+0x80>
    9630:	e5950038 	ldr	r0, [r5, #56]	; 0x38
    9634:	eb0000cd 	bl	9970 <get32>
    9638:	e204401f 	and	r4, r4, #31
    963c:	e3a01001 	mov	r1, #1
    9640:	e1801411 	orr	r1, r0, r1, lsl r4
    9644:	e5950038 	ldr	r0, [r5, #56]	; 0x38
    9648:	eb0000bc 	bl	9940 <put32>
    964c:	eb0000b5 	bl	9928 <dev_barrier>
    9650:	e59f4018 	ldr	r4, [pc, #24]	; 9670 <gpio_int_rising_edge+0x80>
    9654:	e594003c 	ldr	r0, [r4, #60]	; 0x3c
    9658:	eb0000c4 	bl	9970 <get32>
    965c:	e3801802 	orr	r1, r0, #131072	; 0x20000
    9660:	e594003c 	ldr	r0, [r4, #60]	; 0x3c
    9664:	eb0000b5 	bl	9940 <put32>
    9668:	eb0000ae 	bl	9928 <dev_barrier>
    966c:	e8bd8038 	pop	{r3, r4, r5, pc}
    9670:	00009994 	muleq	r0, r4, r9

00009674 <gpio_int_falling_edge>:
    9674:	e92d4038 	push	{r3, r4, r5, lr}
    9678:	e1a04000 	mov	r4, r0
    967c:	e350001f 	cmp	r0, #31
    9680:	88bd8038 	pophi	{r3, r4, r5, pc}
    9684:	eb0000a7 	bl	9928 <dev_barrier>
    9688:	e354001f 	cmp	r4, #31
    968c:	8a000007 	bhi	96b0 <gpio_int_falling_edge+0x3c>
    9690:	e59f505c 	ldr	r5, [pc, #92]	; 96f4 <gpio_int_falling_edge+0x80>
    9694:	e5950040 	ldr	r0, [r5, #64]	; 0x40
    9698:	eb0000b4 	bl	9970 <get32>
    969c:	e3a01001 	mov	r1, #1
    96a0:	e1801411 	orr	r1, r0, r1, lsl r4
    96a4:	e5950040 	ldr	r0, [r5, #64]	; 0x40
    96a8:	eb0000a4 	bl	9940 <put32>
    96ac:	ea000007 	b	96d0 <gpio_int_falling_edge+0x5c>
    96b0:	e59f503c 	ldr	r5, [pc, #60]	; 96f4 <gpio_int_falling_edge+0x80>
    96b4:	e5950044 	ldr	r0, [r5, #68]	; 0x44
    96b8:	eb0000ac 	bl	9970 <get32>
    96bc:	e204401f 	and	r4, r4, #31
    96c0:	e3a01001 	mov	r1, #1
    96c4:	e1801411 	orr	r1, r0, r1, lsl r4
    96c8:	e5950044 	ldr	r0, [r5, #68]	; 0x44
    96cc:	eb00009b 	bl	9940 <put32>
    96d0:	eb000094 	bl	9928 <dev_barrier>
    96d4:	e59f4018 	ldr	r4, [pc, #24]	; 96f4 <gpio_int_falling_edge+0x80>
    96d8:	e594003c 	ldr	r0, [r4, #60]	; 0x3c
    96dc:	eb0000a3 	bl	9970 <get32>
    96e0:	e3801601 	orr	r1, r0, #1048576	; 0x100000
    96e4:	e594003c 	ldr	r0, [r4, #60]	; 0x3c
    96e8:	eb000094 	bl	9940 <put32>
    96ec:	eb00008d 	bl	9928 <dev_barrier>
    96f0:	e8bd8038 	pop	{r3, r4, r5, pc}
    96f4:	00009994 	muleq	r0, r4, r9

000096f8 <gpio_event_detected>:
    96f8:	e92d4010 	push	{r4, lr}
    96fc:	e1a04000 	mov	r4, r0
    9700:	e350001f 	cmp	r0, #31
    9704:	8a000019 	bhi	9770 <gpio_event_detected+0x78>
    9708:	eb000086 	bl	9928 <dev_barrier>
    970c:	e354001f 	cmp	r4, #31
    9710:	8a000008 	bhi	9738 <gpio_event_detected+0x40>
    9714:	e59f305c 	ldr	r3, [pc, #92]	; 9778 <gpio_event_detected+0x80>
    9718:	e5930048 	ldr	r0, [r3, #72]	; 0x48
    971c:	eb000093 	bl	9970 <get32>
    9720:	e3a03001 	mov	r3, #1
    9724:	e0103413 	ands	r3, r0, r3, lsl r4
    9728:	0a00000d 	beq	9764 <gpio_event_detected+0x6c>
    972c:	eb00007d 	bl	9928 <dev_barrier>
    9730:	e3a00001 	mov	r0, #1
    9734:	e8bd8010 	pop	{r4, pc}
    9738:	e59f3038 	ldr	r3, [pc, #56]	; 9778 <gpio_event_detected+0x80>
    973c:	e593004c 	ldr	r0, [r3, #76]	; 0x4c
    9740:	eb00008a 	bl	9970 <get32>
    9744:	e3a03001 	mov	r3, #1
    9748:	e0004413 	and	r4, r0, r3, lsl r4
    974c:	eb000075 	bl	9928 <dev_barrier>
    9750:	e3540000 	cmp	r4, #0
    9754:	0a000002 	beq	9764 <gpio_event_detected+0x6c>
    9758:	eb000072 	bl	9928 <dev_barrier>
    975c:	e3a00001 	mov	r0, #1
    9760:	e8bd8010 	pop	{r4, pc}
    9764:	eb00006f 	bl	9928 <dev_barrier>
    9768:	e3a00000 	mov	r0, #0
    976c:	e8bd8010 	pop	{r4, pc}
    9770:	e3e00000 	mvn	r0, #0
    9774:	e8bd8010 	pop	{r4, pc}
    9778:	00009994 	muleq	r0, r4, r9

0000977c <gpio_event_clear>:
    977c:	e92d4010 	push	{r4, lr}
    9780:	e1a04000 	mov	r4, r0
    9784:	e350001f 	cmp	r0, #31
    9788:	88bd8010 	pophi	{r4, pc}
    978c:	eb000065 	bl	9928 <dev_barrier>
    9790:	e354001f 	cmp	r4, #31
    9794:	8a000005 	bhi	97b0 <gpio_event_clear+0x34>
    9798:	e59f3030 	ldr	r3, [pc, #48]	; 97d0 <gpio_event_clear+0x54>
    979c:	e5930048 	ldr	r0, [r3, #72]	; 0x48
    97a0:	e3a01001 	mov	r1, #1
    97a4:	e1a01411 	lsl	r1, r1, r4
    97a8:	eb000064 	bl	9940 <put32>
    97ac:	ea000005 	b	97c8 <gpio_event_clear+0x4c>
    97b0:	e204401f 	and	r4, r4, #31
    97b4:	e59f3014 	ldr	r3, [pc, #20]	; 97d0 <gpio_event_clear+0x54>
    97b8:	e593004c 	ldr	r0, [r3, #76]	; 0x4c
    97bc:	e3a01001 	mov	r1, #1
    97c0:	e1a01411 	lsl	r1, r1, r4
    97c4:	eb00005d 	bl	9940 <put32>
    97c8:	eb000056 	bl	9928 <dev_barrier>
    97cc:	e8bd8010 	pop	{r4, pc}
    97d0:	00009994 	muleq	r0, r4, r9

000097d4 <uart_init>:
    97d4:	e92d4038 	push	{r3, r4, r5, lr}
    97d8:	eb000052 	bl	9928 <dev_barrier>
    97dc:	e3a0000e 	mov	r0, #14
    97e0:	e3a01002 	mov	r1, #2
    97e4:	ebffff32 	bl	94b4 <gpio_set_function>
    97e8:	e3a0000f 	mov	r0, #15
    97ec:	e3a01002 	mov	r1, #2
    97f0:	ebffff2f 	bl	94b4 <gpio_set_function>
    97f4:	eb00004b 	bl	9928 <dev_barrier>
    97f8:	e59f4068 	ldr	r4, [pc, #104]	; 9868 <uart_init+0x94>
    97fc:	e5945000 	ldr	r5, [r4]
    9800:	e1a00005 	mov	r0, r5
    9804:	eb000059 	bl	9970 <get32>
    9808:	e3801001 	orr	r1, r0, #1
    980c:	e1a00005 	mov	r0, r5
    9810:	eb00004a 	bl	9940 <put32>
    9814:	eb000043 	bl	9928 <dev_barrier>
    9818:	e5940004 	ldr	r0, [r4, #4]
    981c:	e3a01000 	mov	r1, #0
    9820:	eb000046 	bl	9940 <put32>
    9824:	e5940008 	ldr	r0, [r4, #8]
    9828:	e3a01000 	mov	r1, #0
    982c:	eb000043 	bl	9940 <put32>
    9830:	e594000c 	ldr	r0, [r4, #12]
    9834:	e3a01006 	mov	r1, #6
    9838:	eb000040 	bl	9940 <put32>
    983c:	e5940010 	ldr	r0, [r4, #16]
    9840:	e3a01003 	mov	r1, #3
    9844:	eb00003d 	bl	9940 <put32>
    9848:	e5940014 	ldr	r0, [r4, #20]
    984c:	e59f1018 	ldr	r1, [pc, #24]	; 986c <uart_init+0x98>
    9850:	eb00003a 	bl	9940 <put32>
    9854:	e5940004 	ldr	r0, [r4, #4]
    9858:	e3a01003 	mov	r1, #3
    985c:	eb000037 	bl	9940 <put32>
    9860:	eb000030 	bl	9928 <dev_barrier>
    9864:	e8bd8038 	pop	{r3, r4, r5, pc}
    9868:	000099f4 	strdeq	r9, [r0], -r4
    986c:	0000010e 	andeq	r0, r0, lr, lsl #2

00009870 <uart_can_getc>:
    9870:	e92d4008 	push	{r3, lr}
    9874:	e59f300c 	ldr	r3, [pc, #12]	; 9888 <uart_can_getc+0x18>
    9878:	e5930018 	ldr	r0, [r3, #24]
    987c:	eb00003b 	bl	9970 <get32>
    9880:	e2000001 	and	r0, r0, #1
    9884:	e8bd8008 	pop	{r3, pc}
    9888:	000099f4 	strdeq	r9, [r0], -r4

0000988c <uart_getc>:
    988c:	e92d4008 	push	{r3, lr}
    9890:	ebfffff6 	bl	9870 <uart_can_getc>
    9894:	e3500000 	cmp	r0, #0
    9898:	0afffffc 	beq	9890 <uart_getc+0x4>
    989c:	e59f300c 	ldr	r3, [pc, #12]	; 98b0 <uart_getc+0x24>
    98a0:	e593001c 	ldr	r0, [r3, #28]
    98a4:	eb000031 	bl	9970 <get32>
    98a8:	e6ef0070 	uxtb	r0, r0
    98ac:	e8bd8008 	pop	{r3, pc}
    98b0:	000099f4 	strdeq	r9, [r0], -r4

000098b4 <uart_can_putc>:
    98b4:	e92d4008 	push	{r3, lr}
    98b8:	e59f300c 	ldr	r3, [pc, #12]	; 98cc <uart_can_putc+0x18>
    98bc:	e5930018 	ldr	r0, [r3, #24]
    98c0:	eb00002a 	bl	9970 <get32>
    98c4:	e2000020 	and	r0, r0, #32
    98c8:	e8bd8008 	pop	{r3, pc}
    98cc:	000099f4 	strdeq	r9, [r0], -r4

000098d0 <uart_putc>:
    98d0:	e92d4010 	push	{r4, lr}
    98d4:	e1a04000 	mov	r4, r0
    98d8:	ebfffff5 	bl	98b4 <uart_can_putc>
    98dc:	e3500000 	cmp	r0, #0
    98e0:	0afffffc 	beq	98d8 <uart_putc+0x8>
    98e4:	e59f300c 	ldr	r3, [pc, #12]	; 98f8 <uart_putc+0x28>
    98e8:	e593001c 	ldr	r0, [r3, #28]
    98ec:	e1a01004 	mov	r1, r4
    98f0:	eb000012 	bl	9940 <put32>
    98f4:	e8bd8010 	pop	{r4, pc}
    98f8:	000099f4 	strdeq	r9, [r0], -r4

000098fc <uart_has_data>:
    98fc:	e92d4008 	push	{r3, lr}
    9900:	ebffffda 	bl	9870 <uart_can_getc>
    9904:	e8bd8008 	pop	{r3, pc}

00009908 <uart_getc_async>:
    9908:	e92d4008 	push	{r3, lr}
    990c:	ebfffffa 	bl	98fc <uart_has_data>
    9910:	e3500000 	cmp	r0, #0
    9914:	0a000001 	beq	9920 <uart_getc_async+0x18>
    9918:	ebffffdb 	bl	988c <uart_getc>
    991c:	e8bd8008 	pop	{r3, pc}
    9920:	e3e00000 	mvn	r0, #0
    9924:	e8bd8008 	pop	{r3, pc}

00009928 <dev_barrier>:
    9928:	ea000002 	b	9938 <dsb>

0000992c <dmb>:
    992c:	e3a00000 	mov	r0, #0
    9930:	ee070fba 	mcr	15, 0, r0, cr7, cr10, {5}
    9934:	e12fff1e 	bx	lr

00009938 <dsb>:
    9938:	ee070f9a 	mcr	15, 0, r0, cr7, cr10, {4}
    993c:	e12fff1e 	bx	lr

00009940 <put32>:
    9940:	e5801000 	str	r1, [r0]
    9944:	e12fff1e 	bx	lr

00009948 <PUT32>:
    9948:	e5801000 	str	r1, [r0]
    994c:	e12fff1e 	bx	lr

00009950 <put16>:
    9950:	e1c010b0 	strh	r1, [r0]
    9954:	e12fff1e 	bx	lr

00009958 <PUT16>:
    9958:	e1c010b0 	strh	r1, [r0]
    995c:	e12fff1e 	bx	lr

00009960 <put8>:
    9960:	e5c01000 	strb	r1, [r0]
    9964:	e12fff1e 	bx	lr

00009968 <PUT8>:
    9968:	e5c01000 	strb	r1, [r0]
    996c:	e12fff1e 	bx	lr

00009970 <get32>:
    9970:	e5900000 	ldr	r0, [r0]
    9974:	e12fff1e 	bx	lr

00009978 <GET32>:
    9978:	e5900000 	ldr	r0, [r0]
    997c:	e12fff1e 	bx	lr

00009980 <GETPC>:
    9980:	e1a0000e 	mov	r0, lr
    9984:	e12fff1e 	bx	lr

00009988 <dummy>:
    9988:	e12fff1e 	bx	lr

Disassembly of section .data:

0000998c <rpi_putchar>:
    998c:	00008b74 	andeq	r8, r0, r4, ror fp

00009990 <putk>:
    9990:	00008bb0 			; <UNDEFINED> instruction: 0x00008bb0

00009994 <GPFSEL0>:
    9994:	20200000 	eorcs	r0, r0, r0

00009998 <GPFSEL1>:
    9998:	20200004 	eorcs	r0, r0, r4

0000999c <GPFSEL2>:
    999c:	20200008 	eorcs	r0, r0, r8

000099a0 <GPFSEL3>:
    99a0:	2020000c 	eorcs	r0, r0, ip

000099a4 <GPFSEL4>:
    99a4:	20200010 	eorcs	r0, r0, r0, lsl r0

000099a8 <GPFSEL5>:
    99a8:	20200014 	eorcs	r0, r0, r4, lsl r0

000099ac <GPSET0>:
    99ac:	2020001c 	eorcs	r0, r0, ip, lsl r0

000099b0 <GPSET1>:
    99b0:	20200020 	eorcs	r0, r0, r0, lsr #32

000099b4 <GPCLR0>:
    99b4:	20200028 	eorcs	r0, r0, r8, lsr #32

000099b8 <GPCLR1>:
    99b8:	2020002c 	eorcs	r0, r0, ip, lsr #32

000099bc <GPLEV0>:
    99bc:	20200034 	eorcs	r0, r0, r4, lsr r0

000099c0 <GPLEV1>:
    99c0:	20200038 	eorcs	r0, r0, r8, lsr r0

000099c4 <IRQ_PENDING_2>:
    99c4:	2000b208 	andcs	fp, r0, r8, lsl #4

000099c8 <GPREN0>:
    99c8:	2020004c 	eorcs	r0, r0, ip, asr #32

000099cc <GPREN1>:
    99cc:	20200050 	eorcs	r0, r0, r0, asr r0

000099d0 <ENABLE_IRQS_2>:
    99d0:	2000b214 	andcs	fp, r0, r4, lsl r2

000099d4 <GPFEN0>:
    99d4:	20200058 	eorcs	r0, r0, r8, asr r0

000099d8 <GPFEN1>:
    99d8:	2020005c 	eorcs	r0, r0, ip, asr r0

000099dc <GPEDS0>:
    99dc:	20200040 	eorcs	r0, r0, r0, asr #32

000099e0 <GPEDS1>:
    99e0:	20200044 	eorcs	r0, r0, r4, asr #32

000099e4 <IRQ_PENDING_1>:
    99e4:	2000b204 	andcs	fp, r0, r4, lsl #4

000099e8 <gpio_clr0>:
    99e8:	20200028 	eorcs	r0, r0, r8, lsr #32

000099ec <gpio_set0>:
    99ec:	2020001c 	eorcs	r0, r0, ip, lsl r0

000099f0 <gpio_fsel0>:
    99f0:	20200000 	eorcs	r0, r0, r0

000099f4 <AUX_ENABLES>:
    99f4:	20215004 	eorcs	r5, r1, r4

000099f8 <AUX_MU_CNTL_REG>:
    99f8:	20215060 	eorcs	r5, r1, r0, rrx

000099fc <AUX_MU_IER_REG>:
    99fc:	20215044 	eorcs	r5, r1, r4, asr #32

00009a00 <AUX_MU_IIR_REG>:
    9a00:	20215048 	eorcs	r5, r1, r8, asr #32

00009a04 <AUX_MU_LCR_REG>:
    9a04:	2021504c 	eorcs	r5, r1, ip, asr #32

00009a08 <AUX_MU_BAUD_REG>:
    9a08:	20215068 	eorcs	r5, r1, r8, rrx

00009a0c <AUX_MU_LSR_REG>:
    9a0c:	20215054 	eorcs	r5, r1, r4, asr r0

00009a10 <AUX_MU_IO_REG>:
    9a10:	20215040 	eorcs	r5, r1, r0, asr #32

00009a14 <AUX_MU_STAT_REG>:
    9a14:	20215064 	eorcs	r5, r1, r4, rrx

00009a18 <AUX_MU_SCRATCH>:
    9a18:	2021505c 	eorcs	r5, r1, ip, asr r0

00009a1c <AUX_MU_MSR_REG>:
    9a1c:	20215058 	eorcs	r5, r1, r8, asr r0

00009a20 <AUX_MU_MCR_REG>:
    9a20:	20215050 	eorcs	r5, r1, r0, asr r0

00009a24 <AUX_IRQ>:
    9a24:	20215000 	eorcs	r5, r1, r0

Disassembly of section .rodata:

00009a28 <__FUNCTION__.4377>:
    9a28:	74736574 	ldrbtvc	r6, [r3], #-1396	; 0x574
    9a2c:	00676d5f 	rsbeq	r6, r7, pc, asr sp

00009a30 <__FUNCTION__.4417>:
    9a30:	65636361 	strbvs	r6, [r3, #-865]!	; 0x361
    9a34:	6e695f6c 	cdpvs	15, 6, cr5, cr9, cr12, {3}
    9a38:	00007469 	andeq	r7, r0, r9, ror #8

00009a3c <__FUNCTION__.4440>:
    9a3c:	6d746f6e 	ldclvs	15, cr6, [r4, #-440]!	; 0xfffffe48
    9a40:	006e6961 	rsbeq	r6, lr, r1, ror #18
    9a44:	65707865 	ldrbvs	r7, [r0, #-2149]!	; 0x865
    9a48:	3d207463 	cfstrscc	mvf7, [r0, #-396]!	; 0xfffffe74
    9a4c:	2c642520 	cfstr64cs	mvdx2, [r4], #-128	; 0xffffff80
    9a50:	746f6720 	strbtvc	r6, [pc], #-1824	; 9a58 <__FUNCTION__.4440+0x1c>
    9a54:	0a642520 	beq	1912edc <__bss_end__+0x1908b6c>
    9a58:	00000000 	andeq	r0, r0, r0
    9a5c:	494e4150 	stmdbmi	lr, {r4, r6, r8, lr}^
    9a60:	73253a43 	teqvc	r5, #274432	; 0x43000
    9a64:	3a73253a 	bcc	1cd2f54 <__bss_end__+0x1cc8be4>
    9a68:	733a6425 	teqvc	sl, #620756992	; 0x25000000
    9a6c:	3d20695f 	stccc	9, cr6, [r0, #-380]!	; 0xfffffe84
    9a70:	7865203d 	stmdavc	r5!, {r0, r2, r3, r4, r5, sp}^
    9a74:	74636570 	strbtvc	r6, [r3], #-1392	; 0x570
    9a78:	000a6465 	andeq	r6, sl, r5, ror #8
    9a7c:	65636361 	strbvs	r6, [r3, #-865]!	; 0x361
    9a80:	00632e6c 	rsbeq	r2, r3, ip, ror #28
    9a84:	25203a78 	strcs	r3, [r0, #-2680]!	; 0xa78
    9a88:	00000a64 	andeq	r0, r0, r4, ror #20
    9a8c:	25203a79 	strcs	r3, [r0, #-2681]!	; 0xa79
    9a90:	00000a64 	andeq	r0, r0, r4, ror #20
    9a94:	25203a7a 	strcs	r3, [r0, #-2682]!	; 0xa7a
    9a98:	00000a64 	andeq	r0, r0, r4, ror #20
    9a9c:	494e4150 	stmdbmi	lr, {r4, r6, r8, lr}^
    9aa0:	73253a43 	teqvc	r5, #274432	; 0x43000
    9aa4:	3a73253a 	bcc	1cd2f94 <__bss_end__+0x1cc8c24>
    9aa8:	613a6425 	teqvs	sl, r5, lsr #8
    9aac:	6c656363 	stclvs	3, cr6, [r5], #-396	; 0xfffffe74
    9ab0:	7a68203a 	bvc	1a11ba0 <__bss_end__+0x1a07830>
    9ab4:	74657320 	strbtvc	r7, [r5], #-800	; 0x320
    9ab8:	676e6974 			; <UNDEFINED> instruction: 0x676e6974
    9abc:	20666f20 	rsbcs	r6, r6, r0, lsr #30
    9ac0:	64207825 	strtvs	r7, [r0], #-2085	; 0x825
    9ac4:	2073656f 	rsbscs	r6, r3, pc, ror #10
    9ac8:	20746f6e 	rsbscs	r6, r4, lr, ror #30
    9acc:	65707061 	ldrbvs	r7, [r0, #-97]!	; 0x61
    9ad0:	74207261 	strtvc	r7, [r0], #-609	; 0x261
    9ad4:	6f77206f 	svcvs	0x0077206f
    9ad8:	0a0a6b72 	beq	2a48a8 <__bss_end__+0x29a538>
    9adc:	00000000 	andeq	r0, r0, r0
    9ae0:	494e4150 	stmdbmi	lr, {r4, r6, r8, lr}^
    9ae4:	73253a43 	teqvc	r5, #274432	; 0x43000
    9ae8:	3a73253a 	bcc	1cd2fd8 <__bss_end__+0x1cc8c68>
    9aec:	693a6425 	ldmdbvs	sl!, {r0, r2, r5, sl, sp, lr}
    9af0:	6c61766e 	stclvs	6, cr7, [r1], #-440	; 0xfffffe48
    9af4:	47206469 	strmi	r6, [r0, -r9, ror #8]!
    9af8:	6c617620 	stclvs	6, cr7, [r1], #-128	; 0xffffff80
    9afc:	203a6575 	eorscs	r6, sl, r5, ror r5
    9b00:	0a0a7825 	beq	2a7b9c <__bss_end__+0x29d82c>
    9b04:	00000000 	andeq	r0, r0, r0
    9b08:	494e4150 	stmdbmi	lr, {r4, r6, r8, lr}^
    9b0c:	73253a43 	teqvc	r5, #274432	; 0x43000
    9b10:	3a73253a 	bcc	1cd3000 <__bss_end__+0x1cc8c90>
    9b14:	693a6425 	ldmdbvs	sl!, {r0, r2, r5, sl, sp, lr}
    9b18:	6c61766e 	stclvs	6, cr7, [r1], #-440	; 0xfffffe48
    9b1c:	68206469 	stmdavs	r0!, {r0, r3, r5, r6, sl, sp, lr}
    9b20:	25203a7a 	strcs	r3, [r0, #-2682]!	; 0xa7a
    9b24:	000a0a78 	andeq	r0, sl, r8, ror sl
    9b28:	494e4150 	stmdbmi	lr, {r4, r6, r8, lr}^
    9b2c:	73253a43 	teqvc	r5, #274432	; 0x43000
    9b30:	3a73253a 	bcc	1cd3020 <__bss_end__+0x1cc8cb0>
    9b34:	6c3a6425 	cfldrsvs	mvf6, [sl], #-148	; 0xffffff6c
    9b38:	6c616765 	stclvs	7, cr6, [r1], #-404	; 0xfffffe6c
    9b3c:	625f675f 	subsvs	r6, pc, #24903680	; 0x17c0000
    9b40:	28737469 	ldmdacs	r3!, {r0, r3, r5, r6, sl, ip, sp, lr}^
    9b44:	69625f67 	stmdbvs	r2!, {r0, r1, r2, r5, r6, r8, r9, sl, fp, ip, lr}^
    9b48:	0a297374 	beq	a66920 <__bss_end__+0xa5c5b0>
    9b4c:	00000000 	andeq	r0, r0, r0
    9b50:	65636361 	strbvs	r6, [r3, #-865]!	; 0x361
    9b54:	6172206c 	cmnvs	r2, ip, rrx
    9b58:	61762077 	cmnvs	r6, r7, ror r0
    9b5c:	7365756c 	cmnvc	r5, #108, 10	; 0x1b000000
    9b60:	3d78203a 	ldclcc	0, cr2, [r8, #-232]!	; 0xffffff18
    9b64:	792c6425 	stmdbvc	ip!, {r0, r2, r5, sl, sp, lr}
    9b68:	2c64253d 	cfstr64cs	mvdx2, [r4], #-244	; 0xffffff0c
    9b6c:	64253d7a 	strtvs	r3, [r5], #-3450	; 0xd7a
    9b70:	0000000a 	andeq	r0, r0, sl
    9b74:	65636361 	strbvs	r6, [r3, #-865]!	; 0x361
    9b78:	6373206c 	cmnvs	r3, #108	; 0x6c
    9b7c:	64656c61 	strbtvs	r6, [r5], #-3169	; 0xc61
    9b80:	6c617620 	stclvs	6, cr7, [r1], #-128	; 0xffffff80
    9b84:	20736575 	rsbscs	r6, r3, r5, ror r5
    9b88:	6d206e69 	stcvs	14, cr6, [r0, #-420]!	; 0xfffffe5c
    9b8c:	78203a67 	stmdavc	r0!, {r0, r1, r2, r5, r6, r9, fp, ip, sp}
    9b90:	2c64253d 	cfstr64cs	mvdx2, [r4], #-244	; 0xffffff0c
    9b94:	64253d79 	strtvs	r3, [r5], #-3449	; 0xd79
    9b98:	253d7a2c 	ldrcs	r7, [sp, #-2604]!	; 0xa2c
    9b9c:	00000a64 	andeq	r0, r0, r4, ror #20
    9ba0:	494e4150 	stmdbmi	lr, {r4, r6, r8, lr}^
    9ba4:	73253a43 	teqvc	r5, #274432	; 0x43000
    9ba8:	3a73253a 	bcc	1cd3098 <__bss_end__+0x1cc8d28>
    9bac:	493a6425 	ldmdbmi	sl!, {r0, r2, r5, sl, sp, lr}
    9bb0:	6974696e 	ldmdbvs	r4!, {r1, r2, r3, r5, r6, r8, fp, sp, lr}^
    9bb4:	70206c61 	eorvc	r6, r0, r1, ror #24
    9bb8:	65626f72 	strbvs	r6, [r2, #-3954]!	; 0xf72
    9bbc:	69616620 	stmdbvs	r1!, {r5, r9, sl, sp, lr}^
    9bc0:	3a64656c 	bcc	1923178 <__bss_end__+0x1918e08>
    9bc4:	70786520 	rsbsvc	r6, r8, r0, lsr #10
    9bc8:	65746365 	ldrbvs	r6, [r4, #-869]!	; 0x365
    9bcc:	78252064 	stmdavc	r5!, {r2, r5, r6, sp}
    9bd0:	6f67202c 	svcvs	0x0067202c
    9bd4:	78252074 	stmdavc	r5!, {r2, r4, r5, r6, sp}
    9bd8:	00000a0a 	andeq	r0, r0, sl, lsl #20
    9bdc:	43435553 	movtmi	r5, #13651	; 0x3553
    9be0:	3a535345 	bcc	14de8fc <__bss_end__+0x14d458c>
    9be4:	6d736c20 	ldclvs	12, cr6, [r3, #-128]!	; 0xffffff80
    9be8:	6b636120 	blvs	18e2070 <__bss_end__+0x18d7d00>
    9bec:	6c776f6e 	ldclvs	15, cr6, [r7], #-440	; 0xfffffe48
    9bf0:	65676465 	strbvs	r6, [r7, #-1125]!	; 0x465
    9bf4:	756f2064 	strbvc	r2, [pc, #-100]!	; 9b98 <__FUNCTION__.4440+0x15c>
    9bf8:	69702072 	ldmdbvs	r0!, {r1, r4, r5, r6, sp}^
    9bfc:	2121676e 	teqcs	r1, lr, ror #14
    9c00:	0000000a 	andeq	r0, r0, sl

00009c04 <__FUNCTION__.4436>:
    9c04:	63656863 	cmnvs	r5, #6488064	; 0x630000
    9c08:	616c5f6b 	cmnvs	ip, fp, ror #30
    9c0c:	74756f79 	ldrbtvc	r6, [r5], #-3961	; 0xf79
    9c10:	00000000 	andeq	r0, r0, r0

00009c14 <__FUNCTION__.4342>:
    9c14:	72656678 	rsbvc	r6, r5, #120, 12	; 0x7800000
    9c18:	646e655f 	strbtvs	r6, [lr], #-1375	; 0x55f
    9c1c:	00000000 	andeq	r0, r0, r0

00009c20 <__FUNCTION__.4321>:
    9c20:	72656678 	rsbvc	r6, r5, #120, 12	; 0x7800000
    9c24:	6174735f 	cmnvs	r4, pc, asr r3
    9c28:	00007472 	andeq	r7, r0, r2, ror r4

00009c2c <__FUNCTION__.4352>:
    9c2c:	5f633269 	svcpl	0x00633269
    9c30:	74697277 	strbtvc	r7, [r9], #-631	; 0x277
    9c34:	00000065 	andeq	r0, r0, r5, rrx

00009c38 <__FUNCTION__.4365>:
    9c38:	5f633269 	svcpl	0x00633269
    9c3c:	64616572 	strbtvs	r6, [r1], #-1394	; 0x572
    9c40:	00000000 	andeq	r0, r0, r0

00009c44 <__FUNCTION__.4407>:
    9c44:	5f633269 	svcpl	0x00633269
    9c48:	74696e69 	strbtvc	r6, [r9], #-3689	; 0xe69
    9c4c:	00000000 	andeq	r0, r0, r0
    9c50:	2e633269 	cdpcs	2, 6, cr3, cr3, cr9, {3}
    9c54:	00000063 	andeq	r0, r0, r3, rrx
    9c58:	494e4150 	stmdbmi	lr, {r4, r6, r8, lr}^
    9c5c:	73253a43 	teqvc	r5, #274432	; 0x43000
    9c60:	3a73253a 	bcc	1cd3150 <__bss_end__+0x1cc8de0>
    9c64:	6f3a6425 	svcvs	0x003a6425
    9c68:	65736666 	ldrbvs	r6, [r3, #-1638]!	; 0x666
    9c6c:	72772074 	rsbsvc	r2, r7, #116	; 0x74
    9c70:	3a676e6f 	bcc	19e5634 <__bss_end__+0x19db2c4>
    9c74:	70786520 	rsbsvc	r6, r8, r0, lsr #10
    9c78:	20746365 	rsbscs	r6, r4, r5, ror #6
    9c7c:	67207825 	strvs	r7, [r0, -r5, lsr #16]!
    9c80:	2520746f 	strcs	r7, [r0, #-1135]!	; 0x46f
    9c84:	73252078 	teqvc	r5, #120	; 0x78
    9c88:	666f5b20 	strbtvs	r5, [pc], -r0, lsr #22
    9c8c:	64253d66 	strtvs	r3, [r5], #-3430	; 0xd66
    9c90:	69626e2c 	stmdbvs	r2!, {r2, r3, r5, r9, sl, fp, sp, lr}^
    9c94:	253d7374 	ldrcs	r7, [sp, #-884]!	; 0x374
    9c98:	0a0a5d64 	beq	2a1230 <__bss_end__+0x296ec0>
    9c9c:	00000000 	andeq	r0, r0, r0
    9ca0:	64616572 	strbtvs	r6, [r1], #-1394	; 0x572
    9ca4:	00000000 	andeq	r0, r0, r0
    9ca8:	61656c63 	cmnvs	r5, r3, ror #24
    9cac:	00000072 	andeq	r0, r0, r2, ror r0
    9cb0:	494e4150 	stmdbmi	lr, {r4, r6, r8, lr}^
    9cb4:	73253a43 	teqvc	r5, #274432	; 0x43000
    9cb8:	3a73253a 	bcc	1cd31a8 <__bss_end__+0x1cc8e38>
    9cbc:	773a6425 	ldrvc	r6, [sl, -r5, lsr #8]!
    9cc0:	68746469 	ldmdavs	r4!, {r0, r3, r5, r6, sl, sp, lr}^
    9cc4:	6f727720 	svcvs	0x00727720
    9cc8:	203a676e 	eorscs	r6, sl, lr, ror #14
    9ccc:	65707865 	ldrbvs	r7, [r0, #-2149]!	; 0x865
    9cd0:	25207463 	strcs	r7, [r0, #-1123]!	; 0x463
    9cd4:	6f672078 	svcvs	0x00672078
    9cd8:	78252074 	stmdavc	r5!, {r2, r4, r5, r6, sp}
    9cdc:	20732520 	rsbscs	r2, r3, r0, lsr #10
    9ce0:	66666f5b 	uqsaxvs	r6, r6, fp
    9ce4:	2c64253d 	cfstr64cs	mvdx2, [r4], #-244	; 0xffffff0c
    9ce8:	7469626e 	strbtvc	r6, [r9], #-622	; 0x26e
    9cec:	64253d73 	strtvs	r3, [r5], #-3443	; 0xd73
    9cf0:	000a0a5d 	andeq	r0, sl, sp, asr sl
    9cf4:	00007473 	andeq	r7, r0, r3, ror r4
    9cf8:	64746e69 	ldrbtvs	r6, [r4], #-3689	; 0xe69
    9cfc:	00000000 	andeq	r0, r0, r0
    9d00:	74746e69 	ldrbtvc	r6, [r4], #-3689	; 0xe69
    9d04:	00000000 	andeq	r0, r0, r0
    9d08:	72746e69 	rsbsvc	r6, r4, #1680	; 0x690
    9d0c:	00000000 	andeq	r0, r0, r0
    9d10:	65633269 	strbvs	r3, [r3, #-617]!	; 0x269
    9d14:	0000006e 	andeq	r0, r0, lr, rrx
    9d18:	00006174 	andeq	r6, r0, r4, ror r1
    9d1c:	656e6f64 	strbvs	r6, [lr, #-3940]!	; 0xf64
    9d20:	00000000 	andeq	r0, r0, r0
    9d24:	00777874 	rsbseq	r7, r7, r4, ror r8
    9d28:	00727872 	rsbseq	r7, r2, r2, ror r8
    9d2c:	00647874 	rsbeq	r7, r4, r4, ror r8
    9d30:	00647872 	rsbeq	r7, r4, r2, ror r8
    9d34:	00657874 	rsbeq	r7, r5, r4, ror r8
    9d38:	00667872 	rsbeq	r7, r6, r2, ror r8
    9d3c:	00727265 	rsbseq	r7, r2, r5, ror #4
    9d40:	746b6c63 	strbtvc	r6, [fp], #-3171	; 0xc63
    9d44:	0000006b 	andeq	r0, r0, fp, rrx
    9d48:	494e4150 	stmdbmi	lr, {r4, r6, r8, lr}^
    9d4c:	73253a43 	teqvc	r5, #274432	; 0x43000
    9d50:	3a73253a 	bcc	1cd3240 <__bss_end__+0x1cc8ed0>
    9d54:	693a6425 	ldmdbvs	sl!, {r0, r2, r5, sl, sp, lr}
    9d58:	73206332 	teqvc	r0, #-939524096	; 0xc8000000
    9d5c:	6576616c 	ldrbvs	r6, [r6, #-364]!	; 0x16c
    9d60:	6b636120 	blvs	18e21e8 <__bss_end__+0x18d7e78>
    9d64:	72726520 	rsbsvc	r6, r2, #32, 10	; 0x8000000
    9d68:	000a726f 	andeq	r7, sl, pc, ror #4
    9d6c:	494e4150 	stmdbmi	lr, {r4, r6, r8, lr}^
    9d70:	73253a43 	teqvc	r5, #274432	; 0x43000
    9d74:	3a73253a 	bcc	1cd3264 <__bss_end__+0x1cc8ef4>
    9d78:	693a6425 	ldmdbvs	sl!, {r0, r2, r5, sl, sp, lr}
    9d7c:	73206332 	teqvc	r0, #-939524096	; 0xc8000000
    9d80:	6576616c 	ldrbvs	r6, [r6, #-364]!	; 0x16c
    9d84:	6c656820 	stclvs	8, cr6, [r5], #-128	; 0xffffff80
    9d88:	696c2064 	stmdbvs	ip!, {r2, r5, r6, sp}^
    9d8c:	7420656e 	strtvc	r6, [r0], #-1390	; 0x56e
    9d90:	6c206f6f 	stcvs	15, cr6, [r0], #-444	; 0xfffffe44
    9d94:	0a676e6f 	beq	19e5758 <__bss_end__+0x19db3e8>
    9d98:	00000000 	andeq	r0, r0, r0
    9d9c:	494e4150 	stmdbmi	lr, {r4, r6, r8, lr}^
    9da0:	73253a43 	teqvc	r5, #274432	; 0x43000
    9da4:	3a73253a 	bcc	1cd3294 <__bss_end__+0x1cc8f24>
    9da8:	693a6425 	ldmdbvs	sl!, {r0, r2, r5, sl, sp, lr}
    9dac:	3e2d6332 	mcrcc	3, 1, r6, cr13, cr2, {1}
    9db0:	74617473 	strbtvc	r7, [r1], #-1139	; 0x473
    9db4:	742e7375 	strtvc	r7, [lr], #-885	; 0x375
    9db8:	3d3d2061 	ldccc	0, cr2, [sp, #-388]!	; 0xfffffe7c
    9dbc:	000a3020 	andeq	r3, sl, r0, lsr #32
    9dc0:	494e4150 	stmdbmi	lr, {r4, r6, r8, lr}^
    9dc4:	73253a43 	teqvc	r5, #274432	; 0x43000
    9dc8:	3a73253a 	bcc	1cd32b8 <__bss_end__+0x1cc8f48>
    9dcc:	213a6425 	teqcs	sl, r5, lsr #8
    9dd0:	2d633269 	sfmcs	f3, 2, [r3, #-420]!	; 0xfffffe5c
    9dd4:	6174733e 	cmnvs	r4, lr, lsr r3
    9dd8:	2e737574 	mrccs	5, 3, r7, cr3, cr4, {3}
    9ddc:	0a727265 	beq	1ca6778 <__bss_end__+0x1c9c408>
    9de0:	00000000 	andeq	r0, r0, r0
    9de4:	494e4150 	stmdbmi	lr, {r4, r6, r8, lr}^
    9de8:	73253a43 	teqvc	r5, #274432	; 0x43000
    9dec:	3a73253a 	bcc	1cd32dc <__bss_end__+0x1cc8f6c>
    9df0:	693a6425 	ldmdbvs	sl!, {r0, r2, r5, sl, sp, lr}
    9df4:	3e2d6332 	mcrcc	3, 1, r6, cr13, cr2, {1}
    9df8:	74617473 	strbtvc	r7, [r1], #-1139	; 0x473
    9dfc:	742e7375 	strtvc	r7, [lr], #-885	; 0x375
    9e00:	3d206578 	cfstr32cc	mvfx6, [r0, #-480]!	; 0xfffffe20
    9e04:	0a31203d 	beq	c51f00 <__bss_end__+0xc47b90>
    9e08:	00000000 	andeq	r0, r0, r0
    9e0c:	494e4150 	stmdbmi	lr, {r4, r6, r8, lr}^
    9e10:	73253a43 	teqvc	r5, #274432	; 0x43000
    9e14:	3a73253a 	bcc	1cd3304 <__bss_end__+0x1cc8f94>
    9e18:	283a6425 	ldmdacs	sl!, {r0, r2, r5, sl, sp, lr}
    9e1c:	64646128 	strbtvs	r6, [r4], #-296	; 0x128
    9e20:	3e202972 	mcrcc	9, 1, r2, cr0, cr2, {3}
    9e24:	2937203e 	ldmdbcs	r7!, {r1, r2, r3, r4, r5, sp}
    9e28:	203d3d20 	eorscs	r3, sp, r0, lsr #26
    9e2c:	00000a30 	andeq	r0, r0, r0, lsr sl
    9e30:	494e4150 	stmdbmi	lr, {r4, r6, r8, lr}^
    9e34:	73253a43 	teqvc	r5, #274432	; 0x43000
    9e38:	3a73253a 	bcc	1cd3328 <__bss_end__+0x1cc8fb8>
    9e3c:	283a6425 	ldmdacs	sl!, {r0, r2, r5, sl, sp, lr}
    9e40:	79626e28 	stmdbvc	r2!, {r3, r5, r9, sl, fp, sp, lr}^
    9e44:	29736574 	ldmdbcs	r3!, {r2, r4, r5, r6, r8, sl, sp, lr}^
    9e48:	203e3e20 	eorscs	r3, lr, r0, lsr #28
    9e4c:	20293631 	eorcs	r3, r9, r1, lsr r6
    9e50:	30203d3d 	eorcc	r3, r0, sp, lsr sp
    9e54:	0000000a 	andeq	r0, r0, sl

00009e58 <__FUNCTION__.4271>:
    9e58:	74696d65 	strbtvc	r6, [r9], #-3429	; 0xd65
    9e5c:	00000000 	andeq	r0, r0, r0

00009e60 <__FUNCTION__.4219>:
    9e60:	5f697072 	svcpl	0x00697072
    9e64:	5f746573 	svcpl	0x00746573
    9e68:	7074756f 	rsbsvc	r7, r4, pc, ror #10
    9e6c:	00007475 	andeq	r7, r0, r5, ror r4

00009e70 <__FUNCTION__.4293>:
    9e70:	705f6176 	subsvc	r6, pc, r6, ror r1	; <UNPREDICTABLE>
    9e74:	746e6972 	strbtvc	r6, [lr], #-2418	; 0x972
    9e78:	0000006b 	andeq	r0, r0, fp, rrx
    9e7c:	494e4150 	stmdbmi	lr, {r4, r6, r8, lr}^
    9e80:	73253a43 	teqvc	r5, #274432	; 0x43000
    9e84:	3a73253a 	bcc	1cd3374 <__bss_end__+0x1cc9004>
    9e88:	303a6425 	eorscc	r6, sl, r5, lsr #8
    9e8c:	0000000a 	andeq	r0, r0, sl
    9e90:	6362696c 	cmnvs	r2, #108, 18	; 0x1b0000
    9e94:	2d61762f 	stclcs	6, cr7, [r1, #-188]!	; 0xffffff44
    9e98:	6e697270 	mcrvs	2, 3, r7, cr9, cr0, {3}
    9e9c:	632e6b74 	teqvs	lr, #116, 22	; 0x1d000
    9ea0:	00000000 	andeq	r0, r0, r0
    9ea4:	33323130 	teqcc	r2, #48, 2
    9ea8:	37363534 			; <UNDEFINED> instruction: 0x37363534
    9eac:	00003938 	andeq	r3, r0, r8, lsr r9
    9eb0:	33323130 	teqcc	r2, #48, 2
    9eb4:	37363534 			; <UNDEFINED> instruction: 0x37363534
    9eb8:	62613938 	rsbvs	r3, r1, #56, 18	; 0xe0000
    9ebc:	66656463 	strbtvs	r6, [r5], -r3, ror #8
    9ec0:	00000000 	andeq	r0, r0, r0
    9ec4:	00003130 	andeq	r3, r0, r0, lsr r1
    9ec8:	494e4150 	stmdbmi	lr, {r4, r6, r8, lr}^
    9ecc:	73253a43 	teqvc	r5, #274432	; 0x43000
    9ed0:	3a73253a 	bcc	1cd33c0 <__bss_end__+0x1cc9050>
    9ed4:	703a6425 	eorsvc	r6, sl, r5, lsr #8
    9ed8:	5f637475 	svcpl	0x00637475
    9edc:	000a7066 	andeq	r7, sl, r6, rrx
    9ee0:	494e4150 	stmdbmi	lr, {r4, r6, r8, lr}^
    9ee4:	73253a43 	teqvc	r5, #274432	; 0x43000
    9ee8:	3a73253a 	bcc	1cd33d8 <__bss_end__+0x1cc9068>
    9eec:	773a6425 	ldrvc	r6, [sl, -r5, lsr #8]!
    9ef0:	68746469 	ldmdavs	r4!, {r0, r3, r5, r6, sl, sp, lr}^
    9ef4:	33203c20 	teqcc	r0, #32, 24	; 0x2000
    9ef8:	00000a32 	andeq	r0, r0, r2, lsr sl
    9efc:	494e4150 	stmdbmi	lr, {r4, r6, r8, lr}^
    9f00:	73253a43 	teqvc	r5, #274432	; 0x43000
    9f04:	3a73253a 	bcc	1cd33f4 <__bss_end__+0x1cc9084>
    9f08:	663a6425 	ldrtvs	r6, [sl], -r5, lsr #8
    9f0c:	74616f6c 	strbtvc	r6, [r1], #-3948	; 0xf6c
    9f10:	746f6e20 	strbtvc	r6, [pc], #-3616	; 9f18 <__FUNCTION__.4293+0xa8>
    9f14:	616e6520 	cmnvs	lr, r0, lsr #10
    9f18:	64656c62 	strbtvs	r6, [r5], #-3170	; 0xc62
    9f1c:	0a212121 	beq	8523a8 <__bss_end__+0x848038>
    9f20:	00000000 	andeq	r0, r0, r0
    9f24:	494e4150 	stmdbmi	lr, {r4, r6, r8, lr}^
    9f28:	73253a43 	teqvc	r5, #274432	; 0x43000
    9f2c:	3a73253a 	bcc	1cd341c <__bss_end__+0x1cc90ac>
    9f30:	703a6425 	eorsvc	r6, sl, r5, lsr #8
    9f34:	746e6972 	strbtvc	r6, [lr], #-2418	; 0x972
    9f38:	6e203a6b 	vnmulvs.f32	s6, s0, s23
    9f3c:	6820746f 	stmdavs	r0!, {r0, r1, r2, r3, r5, r6, sl, ip, sp, lr}
    9f40:	6c646e61 	stclvs	14, cr6, [r4], #-388	; 0xfffffe7c
    9f44:	20676e69 	rsbcs	r6, r7, r9, ror #28
    9f48:	63657073 	cmnvs	r5, #115	; 0x73
    9f4c:	65696669 	strbvs	r6, [r9, #-1641]!	; 0x669
    9f50:	25272072 	strcs	r2, [r7, #-114]!	; 0x72
    9f54:	0a0a2763 	beq	293ce8 <__bss_end__+0x289978>
    9f58:	00000000 	andeq	r0, r0, r0
    9f5c:	454e4f44 	strbmi	r4, [lr, #-3908]	; 0xf44
    9f60:	0a212121 	beq	8523ec <__bss_end__+0x84807c>
    9f64:	00000000 	andeq	r0, r0, r0

Disassembly of section .bss:

00009f68 <__bss_start__>:
    9f68:	00000000 	andeq	r0, r0, r0

00009f6c <buf.4219>:
	...

Disassembly of section .ARM.attributes:

00000000 <.ARM.attributes>:
   0:	00002a41 	andeq	r2, r0, r1, asr #20
   4:	61656100 	cmnvs	r5, r0, lsl #2
   8:	01006962 	tsteq	r0, r2, ror #18
   c:	00000020 	andeq	r0, r0, r0, lsr #32
  10:	4b5a3605 	blmi	168d82c <__bss_end__+0x16834bc>
  14:	08070600 	stmdaeq	r7, {r9, sl}
  18:	12010901 	andne	r0, r1, #16384	; 0x4000
  1c:	15011404 	strne	r1, [r1, #-1028]	; 0x404
  20:	18031701 	stmdane	r3, {r0, r8, r9, sl, ip}
  24:	22011a01 	andcs	r1, r1, #4096	; 0x1000
  28:	Address 0x0000000000000028 is out of bounds.


Disassembly of section .comment:

00000000 <.comment>:
   0:	3a434347 	bcc	10d0d24 <__bss_end__+0x10c69b4>
   4:	4e472820 	cdpmi	8, 4, cr2, cr7, cr0, {1}
   8:	34202955 	strtcc	r2, [r0], #-2389	; 0x955
   c:	332e382e 	teqcc	lr, #3014656	; 0x2e0000
  10:	43434700 	movtmi	r4, #14080	; 0x3700
  14:	3128203a 	teqcc	r8, sl, lsr r0
  18:	2e363a35 	mrccs	10, 1, r3, cr6, cr5, {1}
  1c:	2b312e33 	blcs	c4b8f0 <__bss_end__+0xc41580>
  20:	326e7673 	rsbcc	r7, lr, #120586240	; 0x7300000
  24:	33303335 	teqcc	r0, #-738197504	; 0xd4000000
  28:	62312d39 	eorsvs	r2, r1, #3648	; 0xe40
  2c:	646c6975 	strbtvs	r6, [ip], #-2421	; 0x975
  30:	36202931 			; <UNDEFINED> instruction: 0x36202931
  34:	312e332e 	teqcc	lr, lr, lsr #6
  38:	31303220 	teqcc	r0, r0, lsr #4
  3c:	32363037 	eorscc	r3, r6, #55	; 0x37
  40:	Address 0x0000000000000040 is out of bounds.


Disassembly of section .debug_info:

00000000 <.debug_info>:
       0:	00000eb5 			; <UNDEFINED> instruction: 0x00000eb5
       4:	00000004 	andeq	r0, r0, r4
       8:	01040000 	mrseq	r0, (UNDEF: 4)
       c:	00000448 	andeq	r0, r0, r8, asr #8
      10:	00054301 	andeq	r4, r5, r1, lsl #6
      14:	00039a00 	andeq	r9, r3, r0, lsl #20
      18:	00801000 	addeq	r1, r0, r0
      1c:	0005a400 	andeq	sl, r5, r0, lsl #8
      20:	00000000 	andeq	r0, r0, r0
      24:	05040200 	streq	r0, [r4, #-512]	; 0x200
      28:	00746e69 	rsbseq	r6, r4, r9, ror #28
      2c:	8d070403 	cfstrshi	mvf0, [r7, #-12]
      30:	03000000 	movweq	r0, #0
      34:	03770601 	cmneq	r7, #1048576	; 0x100000
      38:	02030000 	andeq	r0, r3, #0
      3c:	00040005 	andeq	r0, r4, r5
      40:	05040300 	streq	r0, [r4, #-768]	; 0x300
      44:	000000ce 	andeq	r0, r0, lr, asr #1
      48:	c9050803 	stmdbgt	r5, {r0, r1, fp}
      4c:	04000000 	streq	r0, [r0], #-0
      50:	0000059f 	muleq	r0, pc, r5	; <UNPREDICTABLE>
      54:	005a2e03 	subseq	r2, sl, r3, lsl #28
      58:	01030000 	mrseq	r0, (UNDEF: 3)
      5c:	00037508 	andeq	r7, r3, r8, lsl #10
      60:	07020300 	streq	r0, [r2, -r0, lsl #6]
      64:	00000259 	andeq	r0, r0, r9, asr r2
      68:	0004c504 	andeq	ip, r4, r4, lsl #10
      6c:	73340300 	teqvc	r4, #0, 6
      70:	03000000 	movweq	r0, #0
      74:	00880704 	addeq	r0, r8, r4, lsl #14
      78:	08030000 	stmdaeq	r3, {}	; <UNPREDICTABLE>
      7c:	00008307 	andeq	r8, r0, r7, lsl #6
      80:	07040300 	streq	r0, [r4, -r0, lsl #6]
      84:	000002e4 	andeq	r0, r0, r4, ror #5
      88:	7e080103 	adfvce	f0, f0, f3
      8c:	05000003 	streq	r0, [r0, #-3]
      90:	00009504 	andeq	r9, r0, r4, lsl #10
      94:	00880600 	addeq	r0, r8, r0, lsl #12
      98:	88070000 	stmdahi	r7, {}	; <UNPREDICTABLE>
      9c:	aa000000 	bge	a4 <_start-0x7f5c>
      a0:	08000000 	stmdaeq	r0, {}	; <UNPREDICTABLE>
      a4:	00000081 	andeq	r0, r0, r1, lsl #1
      a8:	01090007 	tsteq	r9, r7
      ac:	00ba0402 	adcseq	r0, sl, r2, lsl #8
      b0:	660a0000 	strvs	r0, [sl], -r0
      b4:	eb000005 	bl	d0 <_start-0x7f30>
      b8:	04090000 	streq	r0, [r9], #-0
      bc:	00e40702 	rsceq	r0, r4, r2, lsl #14
      c0:	c60a0000 	strgt	r0, [sl], -r0
      c4:	80000001 	andhi	r0, r0, r1
      c8:	280a0880 	stmdacs	sl, {r7, fp}
      cc:	82000003 	andhi	r0, r0, #3
      d0:	af0a1080 	svcge	0x000a1080
      d4:	83000000 	movwhi	r0, #0
      d8:	4c0a2080 	stcmi	0, cr2, [sl], {128}	; 0x80
      dc:	81000002 	tsthi	r0, r2
      e0:	0000c080 	andeq	ip, r0, r0, lsl #1
      e4:	00005a04 	andeq	r5, r0, r4, lsl #20
      e8:	ba0f0200 	blt	3c08f0 <__bss_end__+0x3b6580>
      ec:	09000000 	stmdbeq	r0, {}	; <UNPREDICTABLE>
      f0:	3a2c0201 	bcc	b008fc <__bss_end__+0xaf658c>
      f4:	0a000001 	beq	100 <_start-0x7f00>
      f8:	000002d7 	ldrdeq	r0, [r0], -r7
      fc:	03120a00 	tsteq	r2, #0, 20
     100:	0a010000 	beq	40108 <__bss_end__+0x35d98>
     104:	000005b0 			; <UNDEFINED> instruction: 0x000005b0
     108:	01950a02 	orrseq	r0, r5, r2, lsl #20
     10c:	0a030000 	beq	c0114 <__bss_end__+0xb5da4>
     110:	0000021e 	andeq	r0, r0, lr, lsl r2
     114:	015c0a04 	cmpeq	ip, r4, lsl #20
     118:	0a050000 	beq	140120 <__bss_end__+0x135db0>
     11c:	00000504 	andeq	r0, r0, r4, lsl #10
     120:	034e0a06 	movteq	r0, #59910	; 0xea06
     124:	0a070000 	beq	1c012c <__bss_end__+0x1b5dbc>
     128:	00000438 	andeq	r0, r0, r8, lsr r4
     12c:	05200a08 	streq	r0, [r0, #-2568]!	; 0xa08
     130:	0a090000 	beq	240138 <__bss_end__+0x235dc8>
     134:	0000033e 	andeq	r0, r0, lr, lsr r3
     138:	c904000a 	stmdbgt	r4, {r1, r3}
     13c:	02000002 	andeq	r0, r0, #2
     140:	0000ef3a 	andeq	lr, r0, sl, lsr pc
     144:	02c10b00 	sbceq	r0, r1, #0, 22
     148:	02010000 	andeq	r0, r1, #0
     14c:	0002ca57 	andeq	ip, r2, r7, asr sl
     150:	03f00a00 	mvnseq	r0, #0, 20
     154:	0a010000 	beq	4015c <__bss_end__+0x35dec>
     158:	0000001a 	andeq	r0, r0, sl, lsl r0
     15c:	00250a06 	eoreq	r0, r5, r6, lsl #20
     160:	0a070000 	beq	1c0168 <__bss_end__+0x1b5df8>
     164:	00000030 	andeq	r0, r0, r0, lsr r0
     168:	003b0a08 	eorseq	r0, fp, r8, lsl #20
     16c:	0a090000 	beq	240174 <__bss_end__+0x235e04>
     170:	00000046 	andeq	r0, r0, r6, asr #32
     174:	04e50a0a 	strbteq	r0, [r5], #2570	; 0xa0a
     178:	0a0b0000 	beq	2c0180 <__bss_end__+0x2b5e10>
     17c:	000002fc 	strdeq	r0, [r0], -ip
     180:	06200a0d 	strteq	r0, [r0], -sp, lsl #20
     184:	0a0e0000 	beq	38018c <__bss_end__+0x375e1c>
     188:	000004d2 	ldrdeq	r0, [r0], -r2
     18c:	028b0a0f 	addeq	r0, fp, #61440	; 0xf000
     190:	0a100000 	beq	400198 <__bss_end__+0x3f5e28>
     194:	0000023a 	andeq	r0, r0, sl, lsr r2
     198:	00f50a11 	rscseq	r0, r5, r1, lsl sl
     19c:	0a120000 	beq	4801a4 <__bss_end__+0x475e34>
     1a0:	00000009 	andeq	r0, r0, r9
     1a4:	054b0a13 	strbeq	r0, [fp, #-2579]	; 0xa13
     1a8:	0a140000 	beq	5001b0 <__bss_end__+0x4f5e40>
     1ac:	00000392 	muleq	r0, r2, r3
     1b0:	02b90a15 	adcseq	r0, r9, #86016	; 0x15000
     1b4:	0a160000 	beq	5801bc <__bss_end__+0x575e4c>
     1b8:	0000040a 	andeq	r0, r0, sl, lsl #8
     1bc:	00510a17 	subseq	r0, r1, r7, lsl sl
     1c0:	0a180000 	beq	6001c8 <__bss_end__+0x5f5e58>
     1c4:	0000055d 	andeq	r0, r0, sp, asr r5
     1c8:	03060a19 	movweq	r0, #27161	; 0x6a19
     1cc:	0a1b0000 	beq	6c01d4 <__bss_end__+0x6b5e64>
     1d0:	00000154 	andeq	r0, r0, r4, asr r1
     1d4:	05d90a1c 	ldrbeq	r0, [r9, #2588]	; 0xa1c
     1d8:	0a1d0000 	beq	7401e0 <__bss_end__+0x735e70>
     1dc:	000001f0 	strdeq	r0, [r0], -r0	; <UNPREDICTABLE>
     1e0:	00e20a1e 	rsceq	r0, r2, lr, lsl sl
     1e4:	0a200000 	beq	8001ec <__bss_end__+0x7f5e7c>
     1e8:	000000d7 	ldrdeq	r0, [r0], -r7
     1ec:	00000a21 	andeq	r0, r0, r1, lsr #20
     1f0:	0a220000 	beq	8801f8 <__bss_end__+0x875e88>
     1f4:	000004b3 			; <UNDEFINED> instruction: 0x000004b3
     1f8:	035d0a23 	cmpeq	sp, #143360	; 0x23000
     1fc:	0a240000 	beq	900204 <__bss_end__+0x8f5e94>
     200:	000005e1 	andeq	r0, r0, r1, ror #11
     204:	01440a25 	cmpeq	r4, r5, lsr #20
     208:	0a260000 	beq	980210 <__bss_end__+0x975ea0>
     20c:	00000617 	andeq	r0, r0, r7, lsl r6
     210:	05530a27 	ldrbeq	r0, [r3, #-2599]	; 0xa27
     214:	0a280000 	beq	a0021c <__bss_end__+0x9f5eac>
     218:	0000016b 	andeq	r0, r0, fp, ror #2
     21c:	013a0a29 	teqeq	sl, r9, lsr #20
     220:	0a2a0000 	beq	a80228 <__bss_end__+0xa75eb8>
     224:	00000422 	andeq	r0, r0, r2, lsr #8
     228:	02420a2b 	subeq	r0, r2, #176128	; 0x2b000
     22c:	0a2c0000 	beq	b00234 <__bss_end__+0xaf5ec4>
     230:	00000539 	andeq	r0, r0, r9, lsr r5
     234:	02040a2d 	andeq	r0, r4, #184320	; 0x2d000
     238:	0a3a0000 	beq	e80240 <__bss_end__+0xe75ed0>
     23c:	00000211 	andeq	r0, r0, r1, lsl r2
     240:	05130a3b 	ldreq	r0, [r3, #-2619]	; 0xa3b
     244:	0a3c0000 	beq	f0024c <__bss_end__+0xef5edc>
     248:	0000022d 	andeq	r0, r0, sp, lsr #4
     24c:	06070a3d 			; <UNDEFINED> instruction: 0x06070a3d
     250:	0a3e0000 	beq	f80258 <__bss_end__+0xf75ee8>
     254:	000005f7 	strdeq	r0, [r0], -r7
     258:	01e10a3f 	mvneq	r0, pc, lsr sl
     25c:	00c00000 	sbceq	r0, r0, r0
     260:	00017e0a 	andeq	r7, r1, sl, lsl #28
     264:	0a00c100 	beq	3066c <__bss_end__+0x262fc>
     268:	000005be 			; <UNDEFINED> instruction: 0x000005be
     26c:	080a00c2 	stmdaeq	sl, {r1, r6, r7}
     270:	c9000001 	stmdbgt	r0, {r0}
     274:	01b50a00 			; <UNDEFINED> instruction: 0x01b50a00
     278:	00ca0000 	sbceq	r0, sl, r0
     27c:	0003830a 	andeq	r8, r3, sl, lsl #6
     280:	0a00cb00 	beq	32e88 <__bss_end__+0x28b18>
     284:	00000366 	andeq	r0, r0, r6, ror #6
     288:	960a00cc 	strls	r0, [sl], -ip, asr #1
     28c:	d3000005 	movwle	r0, #5
     290:	03200a00 	teqeq	r0, #0, 20
     294:	00d80000 	sbcseq	r0, r8, r0
     298:	0000fd0a 	andeq	pc, r0, sl, lsl #26
     29c:	0a00d900 	beq	366a4 <__bss_end__+0x2c334>
     2a0:	000005a7 	andeq	r0, r0, r7, lsr #11
     2a4:	a30a00da 	movwge	r0, #41178	; 0xa0da
     2a8:	db000000 	blle	2b0 <_start-0x7d50>
     2ac:	042c0a00 	strteq	r0, [ip], #-2560	; 0xa00
     2b0:	00dc0000 	sbcseq	r0, ip, r0
     2b4:	0004db0a 	andeq	sp, r4, sl, lsl #22
     2b8:	0a00dd00 	beq	376c0 <__bss_end__+0x2d350>
     2bc:	000000ed 	andeq	r0, r0, sp, ror #1
     2c0:	7c0a00de 	stcvc	0, cr0, [sl], {222}	; 0xde
     2c4:	df000005 	svcle	0x00000005
     2c8:	0c0c0000 	stceq	0, cr0, [ip], {-0}
     2cc:	02f1a102 	rscseq	sl, r1, #-2147483648	; 0x80000000
     2d0:	780d0000 	stmdavc	sp, {}	; <UNPREDICTABLE>
     2d4:	25a10200 	strcs	r0, [r1, #512]!	; 0x200
     2d8:	00000000 	andeq	r0, r0, r0
     2dc:	0200790d 	andeq	r7, r0, #212992	; 0x34000
     2e0:	000025a1 	andeq	r2, r0, r1, lsr #11
     2e4:	7a0d0400 	bvc	3412ec <__bss_end__+0x336f7c>
     2e8:	25a10200 	strcs	r0, [r1, #512]!	; 0x200
     2ec:	08000000 	stmdaeq	r0, {}	; <UNPREDICTABLE>
     2f0:	03340400 	teqeq	r4, #0, 8
     2f4:	a1020000 	mrsge	r0, (UNDEF: 2)
     2f8:	000002ca 	andeq	r0, r0, sl, asr #5
     2fc:	a6020c0c 	strge	r0, [r2], -ip, lsl #24
     300:	00000326 	andeq	r0, r0, r6, lsr #6
     304:	0005770e 	andeq	r7, r5, lr, lsl #14
     308:	4fa70200 	svcmi	0x00a70200
     30c:	00000000 	andeq	r0, r0, r0
     310:	007a680d 	rsbseq	r6, sl, sp, lsl #16
     314:	002ca802 	eoreq	sl, ip, r2, lsl #16
     318:	0d040000 	stceq	0, cr0, [r4, #-0]
     31c:	a9020067 	stmdbge	r2, {r0, r1, r2, r5, r6}
     320:	0000002c 	andeq	r0, r0, ip, lsr #32
     324:	8d040008 	stchi	0, cr0, [r4, #-32]	; 0xffffffe0
     328:	02000001 	andeq	r0, r0, #1
     32c:	0002fcaa 	andeq	pc, r2, sl, lsr #25
     330:	01010900 	tsteq	r1, r0, lsl #18
     334:	0003411a 	andeq	r4, r3, sl, lsl r1
     338:	04ce0a00 	strbeq	r0, [lr], #2560	; 0xa00
     33c:	00e90000 	rsceq	r0, r9, r0
     340:	02760f00 	rsbseq	r0, r6, #0, 30
     344:	12020000 	andne	r0, r2, #0
     348:	00000025 	andeq	r0, r0, r5, lsr #32
     34c:	00035b03 	andeq	r5, r3, r3, lsl #22
     350:	00731000 	rsbseq	r1, r3, r0
     354:	00e41202 	rsceq	r1, r4, r2, lsl #4
     358:	0f000000 	svceq	0x00000000
     35c:	000002ac 	andeq	r0, r0, ip, lsr #5
     360:	00251a02 	eoreq	r1, r5, r2, lsl #20
     364:	75030000 	strvc	r0, [r3, #-0]
     368:	10000003 	andne	r0, r0, r3
     36c:	1a020062 	bne	804fc <__bss_end__+0x7618c>
     370:	0000002c 	andeq	r0, r0, ip, lsr #32
     374:	014d1100 	mrseq	r1, (UNDEF: 93)
     378:	3a010000 	bcc	40380 <__bss_end__+0x36010>
     37c:	0000003a 	andeq	r0, r0, sl, lsr r0
     380:	00008010 	andeq	r8, r0, r0, lsl r0
     384:	0000000c 	andeq	r0, r0, ip
     388:	03b89c01 			; <UNDEFINED> instruction: 0x03b89c01
     38c:	68120000 	ldmdavs	r2, {}	; <UNPREDICTABLE>
     390:	3a010069 	bcc	4053c <__bss_end__+0x361cc>
     394:	0000004f 	andeq	r0, r0, pc, asr #32
     398:	00000000 	andeq	r0, r0, r0
     39c:	006f6c13 	rsbeq	r6, pc, r3, lsl ip	; <UNPREDICTABLE>
     3a0:	004f3a01 	subeq	r3, pc, r1, lsl #20
     3a4:	51010000 	mrspl	r0, (UNDEF: 1)
     3a8:	00001114 	andeq	r1, r0, r4, lsl r1
     3ac:	3a3b0100 	bcc	ec07b4 <__bss_end__+0xeb6444>
     3b0:	21000000 	mrscs	r0, (UNDEF: 0)
     3b4:	00000000 	andeq	r0, r0, r0
     3b8:	00006711 	andeq	r6, r0, r1, lsl r7
     3bc:	253f0100 	ldrcs	r0, [pc, #-256]!	; 2c4 <_start-0x7d3c>
     3c0:	1c000000 	stcne	0, cr0, [r0], {-0}
     3c4:	28000080 	stmdacs	r0, {r7}
     3c8:	01000000 	mrseq	r0, (UNDEF: 0)
     3cc:	0003ee9c 	muleq	r3, ip, lr
     3d0:	012c1500 	teqeq	ip, r0, lsl #10
     3d4:	3f010000 	svccc	0x00010000
     3d8:	00000025 	andeq	r0, r0, r5, lsr #32
     3dc:	00000034 	andeq	r0, r0, r4, lsr r0
     3e0:	01007612 	tsteq	r0, r2, lsl r6
     3e4:	0000253f 	andeq	r2, r0, pc, lsr r5
     3e8:	00005500 	andeq	r5, r0, r0, lsl #10
     3ec:	19110000 	ldmdbne	r1, {}	; <UNPREDICTABLE>
     3f0:	01000001 	tsteq	r0, r1
     3f4:	0002f14a 	andeq	pc, r2, sl, asr #2
     3f8:	00804400 	addeq	r4, r0, r0, lsl #8
     3fc:	00001000 	andeq	r1, r0, r0
     400:	299c0100 	ldmibcs	ip, {r8}
     404:	13000004 	movwne	r0, #4
     408:	4a010078 	bmi	405f0 <__bss_end__+0x36280>
     40c:	00000025 	andeq	r0, r0, r5, lsr #32
     410:	79135101 	ldmdbvc	r3, {r0, r8, ip, lr}
     414:	254a0100 	strbcs	r0, [sl, #-256]	; 0x100
     418:	01000000 	mrseq	r0, (UNDEF: 0)
     41c:	007a1352 	rsbseq	r1, sl, r2, asr r3
     420:	00254a01 	eoreq	r4, r5, r1, lsl #20
     424:	53010000 	movwpl	r0, #4096	; 0x1000
     428:	02ed1600 	rsceq	r1, sp, #0, 12
     42c:	44010000 	strmi	r0, [r1], #-0
     430:	00008054 	andeq	r8, r0, r4, asr r0
     434:	00000068 	andeq	r0, r0, r8, rrx
     438:	05149c01 	ldreq	r9, [r4, #-3073]	; 0xc01
     43c:	fb150000 	blx	540446 <__bss_end__+0x5360d6>
     440:	01000001 	tsteq	r0, r1
     444:	00002544 	andeq	r2, r0, r4, asr #10
     448:	00007600 	andeq	r7, r0, r0, lsl #12
     44c:	00681200 	rsbeq	r1, r8, r0, lsl #4
     450:	004f4401 	subeq	r4, pc, r1, lsl #8
     454:	00940000 	addseq	r0, r4, r0
     458:	6c120000 	ldcvs	0, cr0, [r2], {-0}
     45c:	4f440100 	svcmi	0x00440100
     460:	b5000000 	strlt	r0, [r0, #-0]
     464:	12000000 	andne	r0, r0, #0
     468:	44010067 	strmi	r0, [r1], #-103	; 0x67
     46c:	0000002c 	andeq	r0, r0, ip, lsr #32
     470:	000000d6 	ldrdeq	r0, [r0], -r6
     474:	695f7317 	ldmdbvs	pc, {r0, r1, r2, r4, r8, r9, ip, sp, lr}^	; <UNPREDICTABLE>
     478:	25450100 	strbcs	r0, [r5, #-256]	; 0x100
     47c:	02000000 	andeq	r0, r0, #0
     480:	18000001 	stmdane	r0, {r0}
     484:	0000027e 	andeq	r0, r0, lr, ror r2
     488:	00000514 	andeq	r0, r0, r4, lsl r5
     48c:	9a280305 	bls	a010a8 <__bss_end__+0x9f6d38>
     490:	6c190000 	ldcvs	0, cr0, [r9], {-0}
     494:	75000080 	strvc	r0, [r0, #-128]	; 0x80
     498:	1a000003 	bne	4ac <_start-0x7b54>
     49c:	00008074 	andeq	r8, r0, r4, ror r0
     4a0:	000003b8 			; <UNDEFINED> instruction: 0x000003b8
     4a4:	000004af 	andeq	r0, r0, pc, lsr #9
     4a8:	0251011b 	subseq	r0, r1, #-1073741818	; 0xc0000006
     4ac:	1a000075 	bne	688 <_start-0x7978>
     4b0:	00008088 	andeq	r8, r0, r8, lsl #1
     4b4:	00000e30 	andeq	r0, r0, r0, lsr lr
     4b8:	000004d2 	ldrdeq	r0, [r0], -r2
     4bc:	0252011b 	subseq	r0, r2, #-1073741818	; 0xc0000006
     4c0:	011b0075 	tsteq	fp, r5, ror r0
     4c4:	00740251 	rsbseq	r0, r4, r1, asr r2
     4c8:	0550011b 	ldrbeq	r0, [r0, #-283]	; 0x11b
     4cc:	009a4403 	addseq	r4, sl, r3, lsl #8
     4d0:	94190000 	ldrls	r0, [r9], #-0
     4d4:	46000080 	strmi	r0, [r0], -r0, lsl #1
     4d8:	1a00000e 	bne	518 <_start-0x7ae8>
     4dc:	000080a8 	andeq	r8, r0, r8, lsr #1
     4e0:	00000e30 	andeq	r0, r0, r0, lsr lr
     4e4:	0000050a 	andeq	r0, r0, sl, lsl #10
     4e8:	0253011b 	subseq	r0, r3, #-1073741818	; 0xc0000006
     4ec:	011b4708 	tsteq	fp, r8, lsl #14
     4f0:	28030552 	stmdacs	r3, {r1, r4, r6, r8, sl}
     4f4:	1b00009a 	blne	764 <_start-0x789c>
     4f8:	03055101 	movweq	r5, #20737	; 0x5101
     4fc:	00009a7c 	andeq	r9, r0, ip, ror sl
     500:	0550011b 	ldrbeq	r0, [r0, #-283]	; 0x11b
     504:	009a5c03 	addseq	r5, sl, r3, lsl #24
     508:	ac190000 	ldcge	0, cr0, [r9], {-0}
     50c:	4d000080 	stcmi	0, cr0, [r0, #-512]	; 0xfffffe00
     510:	0000000e 	andeq	r0, r0, lr
     514:	00009a06 	andeq	r9, r0, r6, lsl #20
     518:	02f51c00 	rscseq	r1, r5, #0, 24
     51c:	1d010000 	stcne	0, cr0, [r1, #-0]
     520:	0000004f 	andeq	r0, r0, pc, asr #32
     524:	000080bc 	strheq	r8, [r0], -ip
     528:	0000003c 	andeq	r0, r0, ip, lsr r0
     52c:	05979c01 	ldreq	r9, [r7, #3073]	; 0xc01
     530:	77150000 	ldrvc	r0, [r5, -r0]
     534:	01000005 	tsteq	r0, r5
     538:	00004f1d 	andeq	r4, r0, sp, lsl pc
     53c:	00012000 	andeq	r2, r1, r0
     540:	65721200 	ldrbvs	r1, [r2, #-512]!	; 0x200
     544:	1d010067 	stcne	0, cr0, [r1, #-412]	; 0xfffffe64
     548:	0000004f 	andeq	r0, r0, pc, asr #32
     54c:	00000141 	andeq	r0, r0, r1, asr #2
     550:	0100761d 	tsteq	r0, sp, lsl r6
     554:	00004f20 	andeq	r4, r0, r0, lsr #30
     558:	77910200 	ldrvc	r0, [r1, r0, lsl #4]
     55c:	0080dc1a 	addeq	sp, r0, sl, lsl ip
     560:	000e5400 	andeq	r5, lr, r0, lsl #8
     564:	00057b00 	andeq	r7, r5, r0, lsl #22
     568:	52011b00 	andpl	r1, r1, #0, 22
     56c:	011b3101 	tsteq	fp, r1, lsl #2
     570:	67910251 			; <UNDEFINED> instruction: 0x67910251
     574:	0250011b 	subseq	r0, r0, #-1073741818	; 0xc0000006
     578:	1e000074 	mcrne	0, 0, r0, cr0, cr4, {3}
     57c:	000080ec 	andeq	r8, r0, ip, ror #1
     580:	00000e73 	andeq	r0, r0, r3, ror lr
     584:	0152011b 	cmpeq	r2, fp, lsl r1
     588:	51011b31 	tstpl	r1, r1, lsr fp
     58c:	1b6f9102 	blne	1be499c <__bss_end__+0x1bda62c>
     590:	74025001 	strvc	r5, [r2], #-1
     594:	1f000000 	svcne	0x00000000
     598:	000004f2 	strdeq	r0, [r0], -r2
     59c:	80f82601 	rscshi	r2, r8, r1, lsl #12
     5a0:	00240000 	eoreq	r0, r4, r0
     5a4:	9c010000 	stcls	0, cr0, [r1], {-0}
     5a8:	000005fb 	strdeq	r0, [r0], -fp
     5ac:	00057715 	andeq	r7, r5, r5, lsl r7
     5b0:	4f260100 	svcmi	0x00260100
     5b4:	78000000 	stmdavc	r0, {}	; <UNPREDICTABLE>
     5b8:	12000001 	andne	r0, r0, #1
     5bc:	00676572 	rsbeq	r6, r7, r2, ror r5
     5c0:	004f2601 	subeq	r2, pc, r1, lsl #12
     5c4:	01990000 	orrseq	r0, r9, r0
     5c8:	76120000 	ldrvc	r0, [r2], -r0
     5cc:	4f260100 	svcmi	0x00260100
     5d0:	c6000000 	strgt	r0, [r0], -r0
     5d4:	20000001 	andcs	r0, r0, r1
     5d8:	000004ff 	strdeq	r0, [r0], -pc	; <UNPREDICTABLE>
     5dc:	05fb2701 	ldrbeq	r2, [fp, #1793]!	; 0x701
     5e0:	91020000 	mrsls	r0, (UNDEF: 2)
     5e4:	81141e74 	tsthi	r4, r4, ror lr
     5e8:	0e540000 	cdpeq	0, 5, cr0, cr4, cr0, {0}
     5ec:	011b0000 	tsteq	fp, r0
     5f0:	1b320152 	blne	c80b40 <__bss_end__+0xc767d0>
     5f4:	91025101 	tstls	r2, r1, lsl #2
     5f8:	0700006c 	streq	r0, [r0, -ip, rrx]
     5fc:	0000004f 	andeq	r0, r0, pc, asr #32
     600:	0000060b 	andeq	r0, r0, fp, lsl #12
     604:	00008108 	andeq	r8, r0, r8, lsl #2
     608:	1c000100 	stfnes	f0, [r0], {-0}
     60c:	0000009a 	muleq	r0, sl, r0
     610:	00253001 	eoreq	r3, r5, r1
     614:	811c0000 	tsthi	ip, r0
     618:	00400000 	subeq	r0, r0, r0
     61c:	9c010000 	stcls	0, cr0, [r1], {-0}
     620:	00000698 	muleq	r0, r8, r6
     624:	00057715 	andeq	r7, r5, r5, lsl r7
     628:	4f300100 	svcmi	0x00300100
     62c:	f3000000 	vhadd.u8	d0, d0, d0
     630:	15000001 	strne	r0, [r0, #-1]
     634:	00000175 	andeq	r0, r0, r5, ror r1
     638:	004f3001 	subeq	r3, pc, r1
     63c:	02140000 	andseq	r0, r4, #0
     640:	76120000 	ldrvc	r0, [r2], -r0
     644:	98300100 	ldmdals	r0!, {r8}
     648:	4b000006 	blmi	668 <_start-0x7998>
     64c:	12000002 	andne	r0, r0, #2
     650:	3001006e 	andcc	r0, r1, lr, rrx
     654:	00000068 	andeq	r0, r0, r8, rrx
     658:	00000269 	andeq	r0, r0, r9, ror #4
     65c:	0081441a 	addeq	r4, r1, sl, lsl r4
     660:	000e5400 	andeq	r5, lr, r0, lsl #8
     664:	00067b00 	andeq	r7, r6, r0, lsl #22
     668:	52011b00 	andpl	r1, r1, #0, 22
     66c:	011b3101 	tsteq	fp, r1, lsl #2
     670:	67910251 			; <UNDEFINED> instruction: 0x67910251
     674:	0250011b 	subseq	r0, r0, #-1073741818	; 0xc0000006
     678:	1e000076 	mcrne	0, 0, r0, cr0, cr6, {3}
     67c:	00008154 	andeq	r8, r0, r4, asr r1
     680:	00000e73 	andeq	r0, r0, r3, ror lr
     684:	0252011b 	subseq	r0, r2, #-1073741818	; 0xc0000006
     688:	011b0074 	tsteq	fp, r4, ror r0
     68c:	00750251 	rsbseq	r0, r5, r1, asr r2
     690:	0250011b 	subseq	r0, r0, #-1073741818	; 0xc0000006
     694:	00000076 	andeq	r0, r0, r6, ror r0
     698:	004f0405 	subeq	r0, pc, r5, lsl #8
     69c:	cd1c0000 	ldcgt	0, cr0, [ip, #-0]
     6a0:	01000005 	tsteq	r0, r5
     6a4:	0002f14f 	andeq	pc, r2, pc, asr #2
     6a8:	00815c00 	addeq	r5, r1, r0, lsl #24
     6ac:	00006800 	andeq	r6, r0, r0, lsl #16
     6b0:	749c0100 	ldrvc	r0, [ip], #256	; 0x100
     6b4:	12000007 	andne	r0, r0, #7
     6b8:	4f010068 	svcmi	0x00010068
     6bc:	00000774 	andeq	r0, r0, r4, ror r7
     6c0:	00000287 	andeq	r0, r0, r7, lsl #5
     6c4:	7a797813 	bvc	1e5e718 <__bss_end__+0x1e543a8>
     6c8:	f14f0100 			; <UNDEFINED> instruction: 0xf14f0100
     6cc:	02000002 	andeq	r0, r0, #2
     6d0:	67177891 			; <UNDEFINED> instruction: 0x67177891
     6d4:	25500100 	ldrbcs	r0, [r0, #-256]	; 0x100
     6d8:	a8000000 	stmdage	r0, {}	; <UNPREDICTABLE>
     6dc:	17000002 	strne	r0, [r0, -r2]
     6e0:	51010078 	tstpl	r1, r8, ror r0
     6e4:	00000025 	andeq	r0, r0, r5, lsr #32
     6e8:	000002d2 	ldrdeq	r0, [r0], -r2
     6ec:	01007917 	tsteq	r0, r7, lsl r9
     6f0:	00002552 	andeq	r2, r0, r2, asr r5
     6f4:	0002f000 	andeq	pc, r2, r0
     6f8:	007a1700 	rsbseq	r1, sl, r0, lsl #14
     6fc:	00255301 	eoreq	r5, r5, r1, lsl #6
     700:	030e0000 	movweq	r0, #57344	; 0xe000
     704:	801a0000 	andshi	r0, sl, r0
     708:	b8000081 	stmdalt	r0, {r0, r7}
     70c:	21000003 	tstcs	r0, r3
     710:	1b000007 	blne	734 <_start-0x78cc>
     714:	7d035101 	stfvcs	f5, [r3, #-4]
     718:	011b0618 	tsteq	fp, r8, lsl r6
     71c:	00740250 	rsbseq	r0, r4, r0, asr r2
     720:	81901a00 	orrshi	r1, r0, r0, lsl #20
     724:	03b80000 			; <UNDEFINED> instruction: 0x03b80000
     728:	073c0000 	ldreq	r0, [ip, -r0]!
     72c:	011b0000 	tsteq	fp, r0
     730:	64910351 	ldrvs	r0, [r1], #849	; 0x351
     734:	50011b06 	andpl	r1, r1, r6, lsl #22
     738:	00007402 	andeq	r7, r0, r2, lsl #8
     73c:	0081a01a 	addeq	sl, r1, sl, lsl r0
     740:	0003b800 	andeq	fp, r3, r0, lsl #16
     744:	00075700 	andeq	r5, r7, r0, lsl #14
     748:	51011b00 	tstpl	r1, r0, lsl #22
     74c:	06689103 	strbteq	r9, [r8], -r3, lsl #2
     750:	0250011b 	subseq	r0, r0, #-1073741818	; 0xc0000006
     754:	1e000074 	mcrne	0, 0, r0, cr0, cr4, {3}
     758:	000081b4 			; <UNDEFINED> instruction: 0x000081b4
     75c:	000003ee 	andeq	r0, r0, lr, ror #7
     760:	0252011b 	subseq	r0, r2, #-1073741818	; 0xc0000006
     764:	011b0076 	tsteq	fp, r6, ror r0
     768:	00770251 	rsbseq	r0, r7, r1, asr r2
     76c:	0250011b 	subseq	r0, r0, #-1073741818	; 0xc0000006
     770:	00000075 	andeq	r0, r0, r5, ror r0
     774:	03260405 	teqeq	r6, #83886080	; 0x5000000
     778:	131c0000 	tstne	ip, #0
     77c:	01000004 	tsteq	r0, r4
     780:	00002557 	andeq	r2, r0, r7, asr r5
     784:	0081c400 	addeq	ip, r1, r0, lsl #8
     788:	00002800 	andeq	r2, r0, r0, lsl #16
     78c:	bf9c0100 	svclt	0x009c0100
     790:	12000007 	andne	r0, r0, #7
     794:	57010068 	strpl	r0, [r1, -r8, rrx]
     798:	00000774 	andeq	r0, r0, r4, ror r7
     79c:	0000032c 	andeq	r0, r0, ip, lsr #6
     7a0:	0001ac14 	andeq	sl, r1, r4, lsl ip
     7a4:	2c5a0100 	ldfcse	f0, [sl], {-0}
     7a8:	4d000000 	stcmi	0, cr0, [r0, #-0]
     7ac:	1e000003 	cdpne	0, 0, cr0, cr0, cr3, {0}
     7b0:	000081d4 	ldrdeq	r8, [r0], -r4
     7b4:	00000519 	andeq	r0, r0, r9, lsl r5
     7b8:	0151011b 	cmpeq	r1, fp, lsl r1
     7bc:	1c00004e 	stcne	0, cr0, [r0], {78}	; 0x4e
     7c0:	0000058d 	andeq	r0, r0, sp, lsl #11
     7c4:	02f16b01 	rscseq	r6, r1, #1024	; 0x400
     7c8:	81ec0000 	mvnhi	r0, r0
     7cc:	00ac0000 	adceq	r0, ip, r0
     7d0:	9c010000 	stcls	0, cr0, [r1], {-0}
     7d4:	000008e1 	andeq	r0, r0, r1, ror #17
     7d8:	01006812 	tsteq	r0, r2, lsl r8
     7dc:	0007746b 	andeq	r7, r7, fp, ror #8
     7e0:	00037900 	andeq	r7, r3, r0, lsl #18
     7e4:	012c2100 	teqeq	ip, r0, lsl #2
     7e8:	6e010000 	cdpvs	0, 0, cr0, cr1, cr0, {0}
     7ec:	0000002c 	andeq	r0, r0, ip, lsr #32
     7f0:	00057721 	andeq	r7, r5, r1, lsr #14
     7f4:	4f6f0100 	svcmi	0x006f0100
     7f8:	20000000 	andcs	r0, r0, r0
     7fc:	00000135 	andeq	r0, r0, r5, lsr r1
     800:	08e17201 	stmiaeq	r1!, {r0, r9, ip, sp, lr}^
     804:	91020000 	mrsls	r0, (UNDEF: 2)
     808:	00781760 	rsbseq	r1, r8, r0, ror #14
     80c:	00257601 	eoreq	r7, r5, r1, lsl #12
     810:	03a50000 			; <UNDEFINED> instruction: 0x03a50000
     814:	79170000 	ldmdbvc	r7, {}	; <UNPREDICTABLE>
     818:	25770100 	ldrbcs	r0, [r7, #-256]!	; 0x100
     81c:	cf000000 	svcgt	0x00000000
     820:	17000003 	strne	r0, [r0, -r3]
     824:	7801007a 	stmdavc	r1, {r1, r3, r4, r5, r6}
     828:	00000025 	andeq	r0, r0, r5, lsr #32
     82c:	000003f9 	strdeq	r0, [r0], -r9
     830:	0004f914 	andeq	pc, r4, r4, lsl r9	; <UNPREDICTABLE>
     834:	f17e0100 			; <UNDEFINED> instruction: 0xf17e0100
     838:	23000002 	movwcs	r0, #2
     83c:	1a000004 	bne	854 <_start-0x77ac>
     840:	00008204 	andeq	r8, r0, r4, lsl #4
     844:	0000077a 	andeq	r0, r0, sl, ror r7
     848:	00000853 	andeq	r0, r0, r3, asr r8
     84c:	0250011b 	subseq	r0, r0, #-1073741818	; 0xc0000006
     850:	1a000074 	bne	a28 <_start-0x75d8>
     854:	00008220 	andeq	r8, r0, r0, lsr #4
     858:	0000060b 	andeq	r0, r0, fp, lsl #12
     85c:	00000872 	andeq	r0, r0, r2, ror r8
     860:	0153011b 	cmpeq	r3, fp, lsl r1
     864:	52011b36 	andpl	r1, r1, #55296	; 0xd800
     868:	1b007d02 	blne	1fc78 <__bss_end__+0x15908>
     86c:	08025101 	stmdaeq	r2, {r0, r8, ip, lr}
     870:	2c190028 	ldccs	0, cr0, [r9], {40}	; 0x28
     874:	75000082 	strvc	r0, [r0, #-130]	; 0x82
     878:	19000003 	stmdbne	r0, {r0, r1}
     87c:	0000823c 	andeq	r8, r0, ip, lsr r2
     880:	00000375 	andeq	r0, r0, r5, ror r3
     884:	00824c19 	addeq	r4, r2, r9, lsl ip
     888:	00037500 	andeq	r7, r3, r0, lsl #10
     88c:	825c1a00 	subshi	r1, ip, #0, 20
     890:	0e300000 	cdpeq	0, 3, cr0, cr0, cr0, {0}
     894:	08aa0000 	stmiaeq	sl!, {}	; <UNPREDICTABLE>
     898:	011b0000 	tsteq	fp, r0
     89c:	00770251 	rsbseq	r0, r7, r1, asr r2
     8a0:	0550011b 	ldrbeq	r0, [r0, #-283]	; 0x11b
     8a4:	009a8403 	addseq	r8, sl, r3, lsl #8
     8a8:	681a0000 	ldmdavs	sl, {}	; <UNPREDICTABLE>
     8ac:	30000082 	andcc	r0, r0, r2, lsl #1
     8b0:	c700000e 	strgt	r0, [r0, -lr]
     8b4:	1b000008 	blne	8dc <_start-0x7724>
     8b8:	76025101 	strvc	r5, [r2], -r1, lsl #2
     8bc:	50011b00 	andpl	r1, r1, r0, lsl #22
     8c0:	9a8c0305 	bls	fe3014dc <__bss_end__+0xfe2f716c>
     8c4:	1e000000 	cdpne	0, 0, cr0, cr0, cr0, {0}
     8c8:	00008274 	andeq	r8, r0, r4, ror r2
     8cc:	00000e30 	andeq	r0, r0, r0, lsr lr
     8d0:	0251011b 	subseq	r0, r1, #-1073741818	; 0xc0000006
     8d4:	011b0074 	tsteq	fp, r4, ror r0
     8d8:	94030550 	strls	r0, [r3], #-1360	; 0x550
     8dc:	0000009a 	muleq	r0, sl, r0
     8e0:	004f0700 	subeq	r0, pc, r0, lsl #14
     8e4:	08f10000 	ldmeq	r1!, {}^	; <UNPREDICTABLE>
     8e8:	81080000 	mrshi	r0, (UNDEF: 8)
     8ec:	05000000 	streq	r0, [r0, #-0]
     8f0:	02a11c00 	adceq	r1, r1, #0, 24
     8f4:	88010000 	stmdahi	r1, {}	; <UNPREDICTABLE>
     8f8:	00000326 	andeq	r0, r0, r6, lsr #6
     8fc:	00008298 	muleq	r0, r8, r2
     900:	0000017c 	andeq	r0, r0, ip, ror r1
     904:	0b339c01 	bleq	ce7910 <__bss_end__+0xcdd5a0>
     908:	77150000 	ldrvc	r0, [r5, -r0]
     90c:	01000005 	tsteq	r0, r5
     910:	00004f88 	andeq	r4, r0, r8, lsl #31
     914:	00044f00 	andeq	r4, r4, r0, lsl #30
     918:	00671200 	rsbeq	r1, r7, r0, lsl #4
     91c:	00e48801 	rsceq	r8, r4, r1, lsl #16
     920:	04700000 	ldrbteq	r0, [r0], #-0
     924:	68120000 	ldmdavs	r2, {}	; <UNPREDICTABLE>
     928:	8801007a 	stmdahi	r1, {r1, r3, r4, r5, r6}
     92c:	0000013a 	andeq	r0, r0, sl, lsr r1
     930:	0000049c 	muleq	r0, ip, r4
     934:	00027e18 	andeq	r7, r2, r8, lsl lr
     938:	000b4300 	andeq	r4, fp, r0, lsl #6
     93c:	30030500 	andcc	r0, r3, r0, lsl #10
     940:	1400009a 	strne	r0, [r0], #-154	; 0x9a
     944:	0000012d 	andeq	r0, r0, sp, lsr #2
     948:	002c9b01 	eoreq	r9, ip, r1, lsl #22
     94c:	04bd0000 	ldrteq	r0, [sp], #0
     950:	b2140000 	andslt	r0, r4, #0
     954:	01000002 	tsteq	r0, r2
     958:	00002c9c 	muleq	r0, ip, ip
     95c:	0004dc00 	andeq	sp, r4, r0, lsl #24
     960:	02941400 	addseq	r1, r4, #0, 8
     964:	ac010000 	stcge	0, cr0, [r1], {-0}
     968:	00000326 	andeq	r0, r0, r6, lsr #6
     96c:	000004ef 	andeq	r0, r0, pc, ror #9
     970:	00034122 	andeq	r4, r3, r2, lsr #2
     974:	0082e000 	addeq	lr, r2, r0
     978:	00003800 	andeq	r3, r0, r0, lsl #16
     97c:	8d950100 	ldfhis	f0, [r5]
     980:	23000009 	movwcs	r0, #9
     984:	00000351 	andeq	r0, r0, r1, asr r3
     988:	0000051b 	andeq	r0, r0, fp, lsl r5
     98c:	82b41900 	adcshi	r1, r4, #0, 18
     990:	0e920000 	cdpeq	0, 9, cr0, cr2, cr0, {0}
     994:	c4190000 	ldrgt	r0, [r9], #-0
     998:	46000082 	strmi	r0, [r0], -r2, lsl #1
     99c:	1a00000e 	bne	9dc <_start-0x7624>
     9a0:	000082dc 	ldrdeq	r8, [r0], -ip
     9a4:	00000e30 	andeq	r0, r0, r0, lsr lr
     9a8:	000009d5 	ldrdeq	r0, [r0], -r5
     9ac:	0253011b 	subseq	r0, r3, #-1073741818	; 0xc0000006
     9b0:	011b9108 	tsteq	fp, r8, lsl #2
     9b4:	30030552 	andcc	r0, r3, r2, asr r5
     9b8:	1b00009a 	blne	c28 <_start-0x73d8>
     9bc:	03055101 	movweq	r5, #20737	; 0x5101
     9c0:	00009a7c 	andeq	r9, r0, ip, ror sl
     9c4:	0550011b 	ldrbeq	r0, [r0, #-283]	; 0x11b
     9c8:	009a9c03 	addseq	r9, sl, r3, lsl #24
     9cc:	7d021b00 	vstrvc	d1, [r2, #-0]
     9d0:	00750200 	rsbseq	r0, r5, r0, lsl #4
     9d4:	82e01900 	rschi	r1, r0, #0, 18
     9d8:	0e4d0000 	cdpeq	0, 4, cr0, cr13, cr0, {0}
     9dc:	24190000 	ldrcs	r0, [r9], #-0
     9e0:	46000083 	strmi	r0, [r0], -r3, lsl #1
     9e4:	1a00000e 	bne	a24 <_start-0x75dc>
     9e8:	0000833c 	andeq	r8, r0, ip, lsr r3
     9ec:	00000e30 	andeq	r0, r0, r0, lsr lr
     9f0:	00000a1d 	andeq	r0, r0, sp, lsl sl
     9f4:	0253011b 	subseq	r0, r3, #-1073741818	; 0xc0000006
     9f8:	011b9608 	tsteq	fp, r8, lsl #12
     9fc:	30030552 	andcc	r0, r3, r2, asr r5
     a00:	1b00009a 	blne	c70 <_start-0x7390>
     a04:	03055101 	movweq	r5, #20737	; 0x5101
     a08:	00009a7c 	andeq	r9, r0, ip, ror sl
     a0c:	0550011b 	ldrbeq	r0, [r0, #-283]	; 0x11b
     a10:	009ae003 	addseq	lr, sl, r3
     a14:	7d021b00 	vstrvc	d1, [r2, #-0]
     a18:	00740200 	rsbseq	r0, r4, r0, lsl #4
     a1c:	83401900 	movthi	r1, #2304	; 0x900
     a20:	0e4d0000 	cdpeq	0, 4, cr0, cr13, cr0, {0}
     a24:	4c190000 	ldcmi	0, cr0, [r9], {-0}
     a28:	46000083 	strmi	r0, [r0], -r3, lsl #1
     a2c:	1a00000e 	bne	a6c <_start-0x7594>
     a30:	00008364 	andeq	r8, r0, r4, ror #6
     a34:	00000e30 	andeq	r0, r0, r0, lsr lr
     a38:	00000a65 	andeq	r0, r0, r5, ror #20
     a3c:	0253011b 	subseq	r0, r3, #-1073741818	; 0xc0000006
     a40:	011b9808 	tsteq	fp, r8, lsl #16
     a44:	30030552 	andcc	r0, r3, r2, asr r5
     a48:	1b00009a 	blne	cb8 <_start-0x7348>
     a4c:	03055101 	movweq	r5, #20737	; 0x5101
     a50:	00009a7c 	andeq	r9, r0, ip, ror sl
     a54:	0550011b 	ldrbeq	r0, [r0, #-283]	; 0x11b
     a58:	009b0803 	addseq	r0, fp, r3, lsl #16
     a5c:	7d021b00 	vstrvc	d1, [r2, #-0]
     a60:	00750200 	rsbseq	r0, r5, r0, lsl #4
     a64:	83681900 	cmnhi	r8, #0, 18
     a68:	0e4d0000 	cdpeq	0, 4, cr0, cr13, cr0, {0}
     a6c:	7c190000 	ldcvc	0, cr0, [r9], {-0}
     a70:	46000083 	strmi	r0, [r0], -r3, lsl #1
     a74:	1a00000e 	bne	ab4 <_start-0x754c>
     a78:	00008390 	muleq	r0, r0, r3
     a7c:	00000e30 	andeq	r0, r0, r0, lsr lr
     a80:	00000aa6 	andeq	r0, r0, r6, lsr #21
     a84:	0253011b 	subseq	r0, r3, #-1073741818	; 0xc0000006
     a88:	011b9d08 	tsteq	fp, r8, lsl #26
     a8c:	30030552 	andcc	r0, r3, r2, asr r5
     a90:	1b00009a 	blne	d00 <_start-0x7300>
     a94:	03055101 	movweq	r5, #20737	; 0x5101
     a98:	00009a7c 	andeq	r9, r0, ip, ror sl
     a9c:	0550011b 	ldrbeq	r0, [r0, #-283]	; 0x11b
     aa0:	009b2803 	addseq	r2, fp, r3, lsl #16
     aa4:	94190000 	ldrls	r0, [r9], #-0
     aa8:	4d000083 	stcmi	0, cr0, [r0, #-524]	; 0xfffffdf4
     aac:	1a00000e 	bne	aec <_start-0x7514>
     ab0:	000083a4 	andeq	r8, r0, r4, lsr #7
     ab4:	00000597 	muleq	r0, r7, r5
     ab8:	00000ace 	andeq	r0, r0, lr, asr #21
     abc:	0252011b 	subseq	r0, r2, #-1073741818	; 0xc0000006
     ac0:	011b3808 	tsteq	fp, r8, lsl #16
     ac4:	1b480151 	blne	1201010 <__bss_end__+0x11f6ca0>
     ac8:	77025001 	strvc	r5, [r2, -r1]
     acc:	b41a0000 	ldrlt	r0, [sl], #-0
     ad0:	97000083 	strls	r0, [r0, -r3, lsl #1]
     ad4:	ed000005 	stc	0, cr0, [r0, #-20]	; 0xffffffec
     ad8:	1b00000a 	blne	b08 <_start-0x74f8>
     adc:	08025201 	stmdaeq	r2, {r0, r9, ip, lr}
     ae0:	51011b44 	tstpl	r1, r4, asr #22
     ae4:	011b4201 	tsteq	fp, r1, lsl #4
     ae8:	00770250 	rsbseq	r0, r7, r0, asr r2
     aec:	83cc1a00 	bichi	r1, ip, #0, 20
     af0:	05970000 	ldreq	r0, [r7]
     af4:	0b160000 	bleq	580afc <__bss_end__+0x57678c>
     af8:	011b0000 	tsteq	fp, r0
     afc:	00740c52 	rsbseq	r0, r4, r2, asr ip
     b00:	00752432 	rsbseq	r2, r5, r2, lsr r4
     b04:	08212434 	stmdaeq	r1!, {r2, r4, r5, sl, sp}
     b08:	011b1afc 			; <UNDEFINED> instruction: 0x011b1afc
     b0c:	1b400151 	blne	1001058 <__bss_end__+0xff6ce8>
     b10:	77025001 	strvc	r5, [r2, -r1]
     b14:	e01a0000 	ands	r0, sl, r0
     b18:	99000083 	stmdbls	r0, {r0, r1, r7}
     b1c:	2900000e 	stmdbcs	r0, {r1, r2, r3}
     b20:	1b00000b 	blne	b54 <_start-0x74ac>
     b24:	44015001 	strmi	r5, [r1], #-1
     b28:	83e41900 	mvnhi	r1, #0, 18
     b2c:	0e920000 	cdpeq	0, 9, cr0, cr2, cr0, {0}
     b30:	07000000 	streq	r0, [r0, -r0]
     b34:	00000088 	andeq	r0, r0, r8, lsl #1
     b38:	00000b43 	andeq	r0, r0, r3, asr #22
     b3c:	00008108 	andeq	r8, r0, r8, lsl #2
     b40:	06000a00 	streq	r0, [r0], -r0, lsl #20
     b44:	00000b33 	andeq	r0, r0, r3, lsr fp
     b48:	0000bb1f 	andeq	fp, r0, pc, lsl fp
     b4c:	14b70100 	ldrtne	r0, [r7], #256	; 0x100
     b50:	20000084 	andcs	r0, r0, r4, lsl #1
     b54:	01000001 	tsteq	r0, r1
     b58:	000d229c 	muleq	sp, ip, r2
     b5c:	00681d00 	rsbeq	r1, r8, r0, lsl #26
     b60:	0326b901 	teqeq	r6, #16384	; 0x4000
     b64:	91020000 	mrsls	r0, (UNDEF: 2)
     b68:	00782454 	rsbseq	r2, r8, r4, asr r4
     b6c:	0025bb01 	eoreq	fp, r5, r1, lsl #22
     b70:	79240000 	stmdbvc	r4!, {}	; <UNPREDICTABLE>
     b74:	25bb0100 	ldrcs	r0, [fp, #256]!	; 0x100
     b78:	24000000 	strcs	r0, [r0], #-0
     b7c:	bb01007a 	bllt	40d6c <__bss_end__+0x369fc>
     b80:	00000025 	andeq	r0, r0, r5, lsr #32
     b84:	00849425 	addeq	r9, r4, r5, lsr #8
     b88:	00008400 	andeq	r8, r0, r0, lsl #8
     b8c:	000c4700 	andeq	r4, ip, r0, lsl #14
     b90:	00691700 	rsbeq	r1, r9, r0, lsl #14
     b94:	0025c401 	eoreq	ip, r5, r1, lsl #8
     b98:	053c0000 	ldreq	r0, [ip, #-0]!
     b9c:	00260000 	eoreq	r0, r6, r0
     ba0:	1d000000 	stcne	0, cr0, [r0, #-0]
     ba4:	c5010076 	strgt	r0, [r1, #-118]	; 0x76
     ba8:	000002f1 	strdeq	r0, [r0], -r1
     bac:	1a489102 	bne	1224fbc <__bss_end__+0x121ac4c>
     bb0:	000084bc 			; <UNDEFINED> instruction: 0x000084bc
     bb4:	000007bf 			; <UNDEFINED> instruction: 0x000007bf
     bb8:	00000bc9 	andeq	r0, r0, r9, asr #23
     bbc:	0251011b 	subseq	r0, r1, #-1073741818	; 0xc0000006
     bc0:	011b4c91 			; <UNDEFINED> instruction: 0x011b4c91
     bc4:	00740250 	rsbseq	r0, r4, r0, asr r2
     bc8:	84d01a00 	ldrbhi	r1, [r0], #2560	; 0xa00
     bcc:	0e300000 	cdpeq	0, 3, cr0, cr0, cr0, {0}
     bd0:	0bf20000 	bleq	ffc80bd8 <__bss_end__+0xffc76868>
     bd4:	011b0000 	tsteq	fp, r0
     bd8:	48910353 	ldmmi	r1, {r0, r1, r4, r6, r8, r9}
     bdc:	52011b06 	andpl	r1, r1, #6144	; 0x1800
     be0:	06449103 	strbeq	r9, [r4], -r3, lsl #2
     be4:	0351011b 	cmpeq	r1, #-1073741818	; 0xc0000006
     be8:	1b060074 	blne	180dc0 <__bss_end__+0x176a50>
     bec:	79025001 	stmdbvc	r2, {r0, ip, lr}
     bf0:	e81a0000 	ldmda	sl, {}	; <UNPREDICTABLE>
     bf4:	9e000084 	cdpls	0, 0, cr0, cr0, cr4, {4}
     bf8:	0c000006 	stceq	0, cr0, [r0], {6}
     bfc:	1b00000c 	blne	c34 <_start-0x73cc>
     c00:	91025101 	tstls	r2, r1, lsl #2
     c04:	50011b4c 	andpl	r1, r1, ip, asr #22
     c08:	00007502 	andeq	r7, r0, r2, lsl #10
     c0c:	0085041a 	addeq	r0, r5, sl, lsl r4
     c10:	000e3000 	andeq	r3, lr, r0
     c14:	000c3500 	andeq	r3, ip, r0, lsl #10
     c18:	53011b00 	movwpl	r1, #6912	; 0x1b00
     c1c:	06489103 	strbeq	r9, [r8], -r3, lsl #2
     c20:	0352011b 	cmpeq	r2, #-1073741818	; 0xc0000006
     c24:	1b064491 	blne	191e70 <__bss_end__+0x187b00>
     c28:	74035101 	strvc	r5, [r3], #-257	; 0x101
     c2c:	011b0600 	tsteq	fp, r0, lsl #12
     c30:	00780250 	rsbseq	r0, r8, r0, asr r2
     c34:	850c1e00 	strhi	r1, [ip, #-3584]	; 0xe00
     c38:	0e990000 	cdpeq	0, 9, cr0, cr9, cr0, {0}
     c3c:	011b0000 	tsteq	fp, r0
     c40:	00770250 	rsbseq	r0, r7, r0, asr r2
     c44:	1a000000 	bne	c4c <_start-0x73b4>
     c48:	00008430 	andeq	r8, r0, r0, lsr r4
     c4c:	000008f1 	strdeq	r0, [r0], -r1
     c50:	00000c6d 	andeq	r0, r0, sp, ror #24
     c54:	0153011b 	cmpeq	r3, fp, lsl r1
     c58:	52011b36 	andpl	r1, r1, #55296	; 0xd800
     c5c:	243d4003 	ldrtcs	r4, [sp], #-3
     c60:	0251011b 	subseq	r0, r1, #-1073741818	; 0xc0000006
     c64:	011b6b08 	tsteq	fp, r8, lsl #22
     c68:	4c910250 	lfmmi	f0, 4, [r1], {80}	; 0x50
     c6c:	84441a00 	strbhi	r1, [r4], #-2560	; 0xa00
     c70:	04290000 	strteq	r0, [r9], #-0
     c74:	0c8f0000 	stceq	0, cr0, [pc], {0}
     c78:	011b0000 	tsteq	fp, r0
     c7c:	1b320153 	blne	c811d0 <__bss_end__+0xc76e60>
     c80:	30015201 	andcc	r5, r1, r1, lsl #4
     c84:	0151011b 	cmpeq	r1, fp, lsl r1
     c88:	50011b30 	andpl	r1, r1, r0, lsr fp
     c8c:	1a003001 	bne	cc98 <__bss_end__+0x2928>
     c90:	00008458 	andeq	r8, r0, r8, asr r4
     c94:	00000429 	andeq	r0, r0, r9, lsr #8
     c98:	00000cb4 			; <UNDEFINED> instruction: 0x00000cb4
     c9c:	0153011b 	cmpeq	r3, fp, lsl r1
     ca0:	52011b32 	andpl	r1, r1, #51200	; 0xc800
     ca4:	1b690802 	blne	1a42cb4 <__bss_end__+0x1a38944>
     ca8:	46015101 	strmi	r5, [r1], -r1, lsl #2
     cac:	0350011b 	cmpeq	r0, #-1073741818	; 0xc0000006
     cb0:	00015e0a 	andeq	r5, r1, sl, lsl #28
     cb4:	00846c1a 	addeq	r6, r4, sl, lsl ip
     cb8:	00042900 	andeq	r2, r4, r0, lsl #18
     cbc:	000cd900 	andeq	sp, ip, r0, lsl #18
     cc0:	53011b00 	movwpl	r1, #6912	; 0x1b00
     cc4:	011b3201 	tsteq	fp, r1, lsl #4
     cc8:	1b390152 	blne	e41218 <__bss_end__+0xe36ea8>
     ccc:	08025101 	stmdaeq	r2, {r0, r8, ip, lr}
     cd0:	50011b40 	andpl	r1, r1, r0, asr #22
     cd4:	03e80a03 	mvneq	r0, #12288	; 0x3000
     cd8:	84801a00 	strhi	r1, [r0], #2560	; 0xa00
     cdc:	04290000 	strteq	r0, [r9], #-0
     ce0:	0cff0000 	ldcleq	0, cr0, [pc]	; ce8 <_start-0x7318>
     ce4:	011b0000 	tsteq	fp, r0
     ce8:	1b320153 	blne	c8123c <__bss_end__+0xc76ecc>
     cec:	09025201 	stmdbeq	r2, {r0, r9, ip, lr}
     cf0:	51011b97 			; <UNDEFINED> instruction: 0x51011b97
     cf4:	1be90902 	blne	ffa43104 <__bss_end__+0xffa38d94>
     cf8:	0b035001 	bleq	d4d04 <__bss_end__+0xca994>
     cfc:	1e00fea2 	cdpne	14, 0, cr15, cr0, cr2, {5}
     d00:	00008494 	muleq	r0, r4, r4
     d04:	00000429 	andeq	r0, r0, r9, lsr #8
     d08:	0153011b 	cmpeq	r3, fp, lsl r1
     d0c:	52011b32 	andpl	r1, r1, #51200	; 0xc800
     d10:	1bf70902 	blne	ffdc3120 <__bss_end__+0xffdb8db0>
     d14:	09025101 	stmdbeq	r2, {r0, r8, ip, lr}
     d18:	50011bbf 			; <UNDEFINED> instruction: 0x50011bbf
     d1c:	fc180b03 	ldc2	11, cr0, [r8], {3}
     d20:	711f0000 	tstvc	pc, r0
     d24:	01000000 	mrseq	r0, (UNDEF: 0)
     d28:	008534d2 	ldrdeq	r3, [r5], r2
     d2c:	00008000 	andeq	r8, r0, r0
     d30:	2b9c0100 	blcs	fe701138 <__bss_end__+0xfe6f6dc8>
     d34:	2700000e 	strcs	r0, [r0, -lr]
     d38:	00000530 	andeq	r0, r0, r0, lsr r5
     d3c:	004fda01 	subeq	sp, pc, r1, lsl #20
     d40:	176b0000 	strbne	r0, [fp, -r0]!
     d44:	db010076 	blle	40f24 <__bss_end__+0x36bb4>
     d48:	0000004f 	andeq	r0, r0, pc, asr #32
     d4c:	0000055b 	andeq	r0, r0, fp, asr r5
     d50:	00027e18 	andeq	r7, r2, r8, lsl lr
     d54:	000e2b00 	andeq	r2, lr, r0, lsl #22
     d58:	3c030500 	cfstr32cc	mvfx0, [r3], {-0}
     d5c:	1900009a 	stmdbne	r0, {r1, r3, r4, r7}
     d60:	00008540 	andeq	r8, r0, r0, asr #10
     d64:	00000eaa 	andeq	r0, r0, sl, lsr #29
     d68:	0085481a 	addeq	r4, r5, sl, lsl r8
     d6c:	000e9900 	andeq	r9, lr, r0, lsl #18
     d70:	000d7c00 	andeq	r7, sp, r0, lsl #24
     d74:	50011b00 	andpl	r1, r1, r0, lsl #22
     d78:	00640802 	rsbeq	r0, r4, r2, lsl #16
     d7c:	00854c19 	addeq	r4, r5, r9, lsl ip
     d80:	000eb100 	andeq	fp, lr, r0, lsl #2
     d84:	85541a00 	ldrbhi	r1, [r4, #-2560]	; 0xa00
     d88:	0e990000 	cdpeq	0, 9, cr0, cr9, cr0, {0}
     d8c:	0d990000 	ldceq	0, cr0, [r9]
     d90:	011b0000 	tsteq	fp, r0
     d94:	64080250 	strvs	r0, [r8], #-592	; 0x250
     d98:	85601a00 	strbhi	r1, [r0, #-2560]!	; 0xa00
     d9c:	05190000 	ldreq	r0, [r9, #-0]
     da0:	0db20000 	ldceq	0, cr0, [r2]
     da4:	011b0000 	tsteq	fp, r0
     da8:	1b3f0151 	blne	fc12f4 <__bss_end__+0xfb6f84>
     dac:	08025001 	stmdaeq	r2, {r0, ip, lr}
     db0:	7019006b 	andsvc	r0, r9, fp, rrx
     db4:	46000085 	strmi	r0, [r0], -r5, lsl #1
     db8:	1a00000e 	bne	df8 <_start-0x7208>
     dbc:	00008590 	muleq	r0, r0, r5
     dc0:	00000e30 	andeq	r0, r0, r0, lsr lr
     dc4:	00000df8 	strdeq	r0, [r0], -r8
     dc8:	0253011b 	subseq	r0, r3, #-1073741818	; 0xc0000006
     dcc:	011bdd08 	tsteq	fp, r8, lsl #26
     dd0:	3c030552 	cfstr32cc	mvfx0, [r3], {82}	; 0x52
     dd4:	1b00009a 	blne	1044 <_start-0x6fbc>
     dd8:	03055101 	movweq	r5, #20737	; 0x5101
     ddc:	00009a7c 	andeq	r9, r0, ip, ror sl
     de0:	0550011b 	ldrbeq	r0, [r0, #-283]	; 0x11b
     de4:	009ba003 	addseq	sl, fp, r3
     de8:	7d021b00 	vstrvc	d1, [r2, #-0]
     dec:	00740204 	rsbseq	r0, r4, r4, lsl #4
     df0:	007d021b 	rsbseq	r0, sp, fp, lsl r2
     df4:	00690802 	rsbeq	r0, r9, r2, lsl #16
     df8:	00859419 	addeq	r9, r5, r9, lsl r4
     dfc:	000e4d00 	andeq	r4, lr, r0, lsl #26
     e00:	859c1a00 	ldrhi	r1, [ip, #2560]	; 0xa00
     e04:	0e300000 	cdpeq	0, 3, cr0, cr0, cr0, {0}
     e08:	0e180000 	cdpeq	0, 1, cr0, cr8, cr0, {0}
     e0c:	011b0000 	tsteq	fp, r0
     e10:	dc030550 	cfstr32le	mvfx0, [r3], {80}	; 0x50
     e14:	0000009b 	muleq	r0, fp, r0
     e18:	0085a019 	addeq	sl, r5, r9, lsl r0
     e1c:	000b4800 	andeq	r4, fp, r0, lsl #16
     e20:	85a41900 	strhi	r1, [r4, #2304]!	; 0x900
     e24:	0e4d0000 	cdpeq	0, 4, cr0, cr13, cr0, {0}
     e28:	06000000 	streq	r0, [r0], -r0
     e2c:	0000009a 	muleq	r0, sl, r0
     e30:	000cdd28 	andeq	sp, ip, r8, lsr #26
     e34:	25290400 	strcs	r0, [r9, #-1024]!	; 0x400
     e38:	46000000 	strmi	r0, [r0], -r0
     e3c:	2900000e 	stmdbcs	r0, {r1, r2, r3}
     e40:	0000008f 	andeq	r0, r0, pc, lsl #1
     e44:	d22b002a 	eorle	r0, fp, #42	; 0x2a
     e48:	04000001 	streq	r0, [r0], #-1
     e4c:	05ea2b1e 	strbeq	r2, [sl, #2846]!	; 0xb1e
     e50:	66040000 	strvs	r0, [r4], -r0
     e54:	00026c28 	andeq	r6, r2, r8, lsr #24
     e58:	250c0500 	strcs	r0, [ip, #-1280]	; 0x500
     e5c:	73000000 	movwvc	r0, #0
     e60:	2900000e 	stmdbcs	r0, {r1, r2, r3}
     e64:	0000002c 	andeq	r0, r0, ip, lsr #32
     e68:	00069829 	andeq	r9, r6, r9, lsr #16
     e6c:	002c2900 	eoreq	r2, ip, r0, lsl #18
     e70:	28000000 	stmdacs	r0, {}	; <UNPREDICTABLE>
     e74:	00000584 	andeq	r0, r0, r4, lsl #11
     e78:	00250e05 	eoreq	r0, r5, r5, lsl #28
     e7c:	0e920000 	cdpeq	0, 9, cr0, cr2, cr0, {0}
     e80:	2c290000 	stccs	0, cr0, [r9], #-0
     e84:	29000000 	stmdbcs	r0, {}	; <UNPREDICTABLE>
     e88:	00000698 	muleq	r0, r8, r6
     e8c:	00002c29 	andeq	r2, r0, r9, lsr #24
     e90:	202b0000 	eorcs	r0, fp, r0
     e94:	04000001 	streq	r0, [r0], #-1
     e98:	04bc2c8a 	ldrteq	r2, [ip], #3210	; 0xc8a
     e9c:	50040000 	andpl	r0, r4, r0
     ea0:	00000eaa 	andeq	r0, r0, sl, lsr #29
     ea4:	00002c29 	andeq	r2, r0, r9, lsr #24
     ea8:	792b0000 	stmdbvc	fp!, {}	; <UNPREDICTABLE>
     eac:	04000000 	streq	r0, [r0], #-0
     eb0:	01a32b3a 			; <UNDEFINED> instruction: 0x01a32b3a
     eb4:	06050000 	streq	r0, [r5], -r0
     eb8:	001b5e00 	andseq	r5, fp, r0, lsl #28
     ebc:	70000400 	andvc	r0, r0, r0, lsl #8
     ec0:	04000002 	streq	r0, [r0], #-2
     ec4:	00063601 	andeq	r3, r6, r1, lsl #12
     ec8:	084d0c00 	stmdaeq	sp, {sl, fp}^
     ecc:	0ac30000 	beq	ff0c0ed4 <__bss_end__+0xff0b6b64>
     ed0:	85b40000 	ldrhi	r0, [r4, #0]!
     ed4:	05680000 	strbeq	r0, [r8, #-0]!
     ed8:	01ae0000 			; <UNDEFINED> instruction: 0x01ae0000
     edc:	04020000 	streq	r0, [r2], #-0
     ee0:	746e6905 	strbtvc	r6, [lr], #-2309	; 0x905
     ee4:	07040300 	streq	r0, [r4, -r0, lsl #6]
     ee8:	0000008d 	andeq	r0, r0, sp, lsl #1
     eec:	00002c04 	andeq	r2, r0, r4, lsl #24
     ef0:	06010300 	streq	r0, [r1], -r0, lsl #6
     ef4:	00000377 	andeq	r0, r0, r7, ror r3
     ef8:	00050203 	andeq	r0, r5, r3, lsl #4
     efc:	03000004 	movweq	r0, #4
     f00:	00ce0504 	sbceq	r0, lr, r4, lsl #10
     f04:	08030000 	stmdaeq	r3, {}	; <UNPREDICTABLE>
     f08:	0000c905 	andeq	ip, r0, r5, lsl #18
     f0c:	059f0500 	ldreq	r0, [pc, #1280]	; 1414 <_start-0x6bec>
     f10:	2e020000 	cdpcs	0, 0, cr0, cr2, cr0, {0}
     f14:	0000005f 	andeq	r0, r0, pc, asr r0
     f18:	75080103 	strvc	r0, [r8, #-259]	; 0x103
     f1c:	03000003 	movweq	r0, #3
     f20:	02590702 	subseq	r0, r9, #524288	; 0x80000
     f24:	c5050000 	strgt	r0, [r5, #-0]
     f28:	02000004 	andeq	r0, r0, #4
     f2c:	00007834 	andeq	r7, r0, r4, lsr r8
     f30:	07040300 	streq	r0, [r4, -r0, lsl #6]
     f34:	00000088 	andeq	r0, r0, r8, lsl #1
     f38:	83070803 	movwhi	r0, #30723	; 0x7803
     f3c:	05000000 	streq	r0, [r0, #-0]
     f40:	000009d9 	ldrdeq	r0, [r0], -r9
     f44:	00250703 	eoreq	r0, r5, r3, lsl #14
     f48:	bc050000 	stclt	0, cr0, [r5], {-0}
     f4c:	04000009 	streq	r0, [r0], #-9
     f50:	0000462c 	andeq	r4, r0, ip, lsr #12
     f54:	0aa60500 	beq	fe98235c <__bss_end__+0xfe977fec>
     f58:	72040000 	andvc	r0, r4, #0
     f5c:	00000046 	andeq	r0, r0, r6, asr #32
     f60:	00094f06 	andeq	r4, r9, r6, lsl #30
     f64:	01650500 	cmneq	r5, r0, lsl #10
     f68:	0000002c 	andeq	r0, r0, ip, lsr #32
     f6c:	a6040407 	strge	r0, [r4], -r7, lsl #8
     f70:	000000d2 	ldrdeq	r0, [r0], -r2
     f74:	00093a08 	andeq	r3, r9, r8, lsl #20
     f78:	a7a80400 	strge	r0, [r8, r0, lsl #8]!
     f7c:	08000000 	stmdaeq	r0, {}	; <UNPREDICTABLE>
     f80:	000008aa 	andeq	r0, r0, sl, lsr #17
     f84:	00d2a904 	sbcseq	sl, r2, r4, lsl #18
     f88:	09000000 	stmdbeq	r0, {}	; <UNPREDICTABLE>
     f8c:	0000005f 	andeq	r0, r0, pc, asr r0
     f90:	000000e2 	andeq	r0, r0, r2, ror #1
     f94:	0000e20a 	andeq	lr, r0, sl, lsl #4
     f98:	03000300 	movweq	r0, #768	; 0x300
     f9c:	02e40704 	rsceq	r0, r4, #4, 14	; 0x100000
     fa0:	080b0000 	stmdaeq	fp, {}	; <UNPREDICTABLE>
     fa4:	010aa304 	tsteq	sl, r4, lsl #6
     fa8:	900c0000 	andls	r0, ip, r0
     fac:	0400000a 	streq	r0, [r0], #-10
     fb0:	000025a5 	andeq	r2, r0, r5, lsr #11
     fb4:	070c0000 	streq	r0, [ip, -r0]
     fb8:	0400000b 	streq	r0, [r0], #-11
     fbc:	0000b3aa 	andeq	fp, r0, sl, lsr #7
     fc0:	05000400 	streq	r0, [r0, #-1024]	; 0x400
     fc4:	00000a17 	andeq	r0, r0, r7, lsl sl
     fc8:	00e9ab04 	rsceq	sl, r9, r4, lsl #22
     fcc:	60050000 	andvs	r0, r5, r0
     fd0:	04000008 	streq	r0, [r0], #-8
     fd4:	000086af 	andeq	r8, r0, pc, lsr #13
     fd8:	0e040d00 	cdpeq	13, 0, cr0, cr4, cr0, {0}
     fdc:	00012804 	andeq	r2, r1, r4, lsl #16
     fe0:	08010300 	stmdaeq	r1, {r8, r9}
     fe4:	0000037e 	andeq	r0, r0, lr, ror r3
     fe8:	00012804 	andeq	r2, r1, r4, lsl #16
     fec:	0b1d0500 	bleq	7423f4 <__bss_end__+0x738084>
     ff0:	16060000 	strne	r0, [r6], -r0
     ff4:	00000078 	andeq	r0, r0, r8, ror r0
     ff8:	0008710f 	andeq	r7, r8, pc, lsl #2
     ffc:	2d061800 	stccs	8, cr1, [r6, #-0]
    1000:	00000192 	muleq	r0, r2, r1
    1004:	000a380c 	andeq	r3, sl, ip, lsl #16
    1008:	922f0600 	eorls	r0, pc, #0, 12
    100c:	00000001 	andeq	r0, r0, r1
    1010:	006b5f10 	rsbeq	r5, fp, r0, lsl pc
    1014:	00253006 	eoreq	r3, r5, r6
    1018:	0c040000 	stceq	0, cr0, [r4], {-0}
    101c:	00000a7b 	andeq	r0, r0, fp, ror sl
    1020:	00253006 	eoreq	r3, r5, r6
    1024:	0c080000 	stceq	0, cr0, [r8], {-0}
    1028:	00000853 	andeq	r0, r0, r3, asr r8
    102c:	00253006 	eoreq	r3, r5, r6
    1030:	0c0c0000 	stceq	0, cr0, [ip], {-0}
    1034:	00000b6f 	andeq	r0, r0, pc, ror #22
    1038:	00253006 	eoreq	r3, r5, r6
    103c:	10100000 	andsne	r0, r0, r0
    1040:	0600785f 			; <UNDEFINED> instruction: 0x0600785f
    1044:	00019831 	andeq	r9, r1, r1, lsr r8
    1048:	0e001400 	cfcpyseq	mvf1, mvf0
    104c:	00013f04 	andeq	r3, r1, r4, lsl #30
    1050:	01340900 	teqeq	r4, r0, lsl #18
    1054:	01a80000 			; <UNDEFINED> instruction: 0x01a80000
    1058:	e20a0000 	and	r0, sl, #0
    105c:	00000000 	andeq	r0, r0, r0
    1060:	089e0f00 	ldmeq	lr, {r8, r9, sl, fp}
    1064:	06240000 	strteq	r0, [r4], -r0
    1068:	00022135 	andeq	r2, r2, r5, lsr r1
    106c:	074b0c00 	strbeq	r0, [fp, -r0, lsl #24]
    1070:	37060000 	strcc	r0, [r6, -r0]
    1074:	00000025 	andeq	r0, r0, r5, lsr #32
    1078:	0aae0c00 	beq	feb84080 <__bss_end__+0xfeb79d10>
    107c:	38060000 	stmdacc	r6, {}	; <UNPREDICTABLE>
    1080:	00000025 	andeq	r0, r0, r5, lsr #32
    1084:	076f0c04 	strbeq	r0, [pc, -r4, lsl #24]!
    1088:	39060000 	stmdbcc	r6, {}	; <UNPREDICTABLE>
    108c:	00000025 	andeq	r0, r0, r5, lsr #32
    1090:	0c5c0c08 	mrrceq	12, 0, r0, ip, cr8
    1094:	3a060000 	bcc	18109c <__bss_end__+0x176d2c>
    1098:	00000025 	andeq	r0, r0, r5, lsr #32
    109c:	09a00c0c 	stmibeq	r0!, {r2, r3, sl, fp}
    10a0:	3b060000 	blcc	1810a8 <__bss_end__+0x176d38>
    10a4:	00000025 	andeq	r0, r0, r5, lsr #32
    10a8:	09640c10 	stmdbeq	r4!, {r4, sl, fp}^
    10ac:	3c060000 	stccc	0, cr0, [r6], {-0}
    10b0:	00000025 	andeq	r0, r0, r5, lsr #32
    10b4:	0b740c14 	bleq	1d0410c <__bss_end__+0x1cf9d9c>
    10b8:	3d060000 	stccc	0, cr0, [r6, #-0]
    10bc:	00000025 	andeq	r0, r0, r5, lsr #32
    10c0:	09f90c18 	ldmibeq	r9!, {r3, r4, sl, fp}^
    10c4:	3e060000 	cdpcc	0, 0, cr0, cr6, cr0, {0}
    10c8:	00000025 	andeq	r0, r0, r5, lsr #32
    10cc:	0c100c1c 	ldceq	12, cr0, [r0], {28}
    10d0:	3f060000 	svccc	0x00060000
    10d4:	00000025 	andeq	r0, r0, r5, lsr #32
    10d8:	88110020 	ldmdahi	r1, {r5}
    10dc:	08000007 	stmdaeq	r0, {r0, r1, r2}
    10e0:	61480601 	cmpvs	r8, r1, lsl #12
    10e4:	0c000002 	stceq	0, cr0, [r0], {2}
    10e8:	00000840 	andeq	r0, r0, r0, asr #16
    10ec:	02614906 	rsbeq	r4, r1, #98304	; 0x18000
    10f0:	0c000000 	stceq	0, cr0, [r0], {-0}
    10f4:	0000062a 	andeq	r0, r0, sl, lsr #12
    10f8:	02614a06 	rsbeq	r4, r1, #24576	; 0x6000
    10fc:	12800000 	addne	r0, r0, #0
    1100:	00000b0f 	andeq	r0, r0, pc, lsl #22
    1104:	01344c06 	teqeq	r4, r6, lsl #24
    1108:	01000000 	mrseq	r0, (UNDEF: 0)
    110c:	0007d512 	andeq	sp, r7, r2, lsl r5
    1110:	344f0600 	strbcc	r0, [pc], #-1536	; 1118 <_start-0x6ee8>
    1114:	04000001 	streq	r0, [r0], #-1
    1118:	20090001 	andcs	r0, r9, r1
    111c:	71000001 	tstvc	r0, r1
    1120:	0a000002 	beq	1130 <_start-0x6ed0>
    1124:	000000e2 	andeq	r0, r0, r2, ror #1
    1128:	a911001f 	ldmdbge	r1, {r0, r1, r2, r3, r4}
    112c:	90000009 	andls	r0, r0, r9
    1130:	af5b0601 	svcge	0x005b0601
    1134:	0c000002 	stceq	0, cr0, [r0], {2}
    1138:	00000a38 	andeq	r0, r0, r8, lsr sl
    113c:	02af5c06 	adceq	r5, pc, #1536	; 0x600
    1140:	0c000000 	stceq	0, cr0, [r0], {-0}
    1144:	00000a5c 	andeq	r0, r0, ip, asr sl
    1148:	00255d06 	eoreq	r5, r5, r6, lsl #26
    114c:	0c040000 	stceq	0, cr0, [r4], {-0}
    1150:	00000848 	andeq	r0, r0, r8, asr #16
    1154:	02b55f06 	adcseq	r5, r5, #6, 30
    1158:	0c080000 	stceq	0, cr0, [r8], {-0}
    115c:	00000788 	andeq	r0, r0, r8, lsl #15
    1160:	02216006 	eoreq	r6, r1, #6
    1164:	00880000 	addeq	r0, r8, r0
    1168:	0271040e 	rsbseq	r0, r1, #234881024	; 0xe000000
    116c:	c5090000 	strgt	r0, [r9, #-0]
    1170:	c5000002 	strgt	r0, [r0, #-2]
    1174:	0a000002 	beq	1184 <_start-0x6e7c>
    1178:	000000e2 	andeq	r0, r0, r2, ror #1
    117c:	040e001f 	streq	r0, [lr], #-31
    1180:	000002cb 	andeq	r0, r0, fp, asr #5
    1184:	0a030f13 	beq	c4dd8 <__bss_end__+0xbaa68>
    1188:	06080000 	streq	r0, [r8], -r0
    118c:	0002f173 	andeq	pc, r2, r3, ror r1	; <UNPREDICTABLE>
    1190:	07690c00 	strbeq	r0, [r9, -r0, lsl #24]!
    1194:	74060000 	strvc	r0, [r6], #-0
    1198:	000002f1 	strdeq	r0, [r0], -r1
    119c:	06ac0c00 	strteq	r0, [ip], r0, lsl #24
    11a0:	75060000 	strvc	r0, [r6, #-0]
    11a4:	00000025 	andeq	r0, r0, r5, lsr #32
    11a8:	040e0004 	streq	r0, [lr], #-4
    11ac:	0000005f 	andeq	r0, r0, pc, asr r0
    11b0:	000a220f 	andeq	r2, sl, pc, lsl #4
    11b4:	b3066800 	movwlt	r6, #26624	; 0x6800
    11b8:	00000421 	andeq	r0, r0, r1, lsr #8
    11bc:	00705f10 	rsbseq	r5, r0, r0, lsl pc
    11c0:	02f1b406 	rscseq	fp, r1, #100663296	; 0x6000000
    11c4:	10000000 	andne	r0, r0, r0
    11c8:	0600725f 			; <UNDEFINED> instruction: 0x0600725f
    11cc:	000025b5 			; <UNDEFINED> instruction: 0x000025b5
    11d0:	5f100400 	svcpl	0x00100400
    11d4:	b6060077 			; <UNDEFINED> instruction: 0xb6060077
    11d8:	00000025 	andeq	r0, r0, r5, lsr #32
    11dc:	07ce0c08 	strbeq	r0, [lr, r8, lsl #24]
    11e0:	b7060000 	strlt	r0, [r6, -r0]
    11e4:	0000003f 	andeq	r0, r0, pc, lsr r0
    11e8:	08c80c0c 	stmiaeq	r8, {r2, r3, sl, fp}^
    11ec:	b8060000 	stmdalt	r6, {}	; <UNPREDICTABLE>
    11f0:	0000003f 	andeq	r0, r0, pc, lsr r0
    11f4:	625f100e 	subsvs	r1, pc, #14
    11f8:	b9060066 	stmdblt	r6, {r1, r2, r5, r6}
    11fc:	000002cc 	andeq	r0, r0, ip, asr #5
    1200:	07020c10 	smladeq	r2, r0, ip, r0
    1204:	ba060000 	blt	18120c <__bss_end__+0x176e9c>
    1208:	00000025 	andeq	r0, r0, r5, lsr #32
    120c:	07ac0c18 			; <UNDEFINED> instruction: 0x07ac0c18
    1210:	c1060000 	mrsgt	r0, (UNDEF: 6)
    1214:	00000120 	andeq	r0, r0, r0, lsr #2
    1218:	05870c1c 	streq	r0, [r7, #3100]	; 0xc1c
    121c:	c3060000 	movwgt	r0, #24576	; 0x6000
    1220:	0000057c 	andeq	r0, r0, ip, ror r5
    1224:	026f0c20 	rsbeq	r0, pc, #32, 24	; 0x2000
    1228:	c5060000 	strgt	r0, [r6, #-0]
    122c:	000005a6 	andeq	r0, r0, r6, lsr #11
    1230:	0aa00c24 	beq	fe8042c8 <__bss_end__+0xfe7f9f58>
    1234:	c8060000 	stmdagt	r6, {}	; <UNPREDICTABLE>
    1238:	000005ca 	andeq	r0, r0, sl, asr #11
    123c:	0c2a0c28 	stceq	12, cr0, [sl], #-160	; 0xffffff60
    1240:	c9060000 	stmdbgt	r6, {}	; <UNPREDICTABLE>
    1244:	000005e4 	andeq	r0, r0, r4, ror #11
    1248:	755f102c 	ldrbvc	r1, [pc, #-44]	; 1224 <_start-0x6ddc>
    124c:	cc060062 	stcgt	0, cr0, [r6], {98}	; 0x62
    1250:	000002cc 	andeq	r0, r0, ip, asr #5
    1254:	755f1030 	ldrbvc	r1, [pc, #-48]	; 122c <_start-0x6dd4>
    1258:	cd060070 	stcgt	0, cr0, [r6, #-448]	; 0xfffffe40
    125c:	000002f1 	strdeq	r0, [r0], -r1
    1260:	755f1038 	ldrbvc	r1, [pc, #-56]	; 1230 <_start-0x6dd0>
    1264:	ce060072 	mcrgt	0, 0, r0, cr6, cr2, {3}
    1268:	00000025 	andeq	r0, r0, r5, lsr #32
    126c:	07540c3c 	smmlareq	r4, ip, ip, r0
    1270:	d1060000 	mrsle	r0, (UNDEF: 6)
    1274:	000005ea 	andeq	r0, r0, sl, ror #11
    1278:	0bd50c40 	bleq	ff544380 <__bss_end__+0xff53a010>
    127c:	d2060000 	andle	r0, r6, #0
    1280:	000005fa 	strdeq	r0, [r0], -sl
    1284:	6c5f1043 	mrrcvs	0, 4, r1, pc, cr3	; <UNPREDICTABLE>
    1288:	d5060062 	strle	r0, [r6, #-98]	; 0x62
    128c:	000002cc 	andeq	r0, r0, ip, asr #5
    1290:	07ee0c44 	strbeq	r0, [lr, r4, asr #24]!
    1294:	d8060000 	stmdale	r6, {}	; <UNPREDICTABLE>
    1298:	00000025 	andeq	r0, r0, r5, lsr #32
    129c:	08130c4c 	ldmdaeq	r3, {r2, r3, r6, sl, fp}
    12a0:	d9060000 	stmdble	r6, {}	; <UNPREDICTABLE>
    12a4:	00000091 	muleq	r0, r1, r0
    12a8:	04fe0c50 	ldrbteq	r0, [lr], #3152	; 0xc50
    12ac:	dc060000 	stcle	0, cr0, [r6], {-0}
    12b0:	0000043f 	andeq	r0, r0, pc, lsr r4
    12b4:	09560c54 	ldmdbeq	r6, {r2, r4, r6, sl, fp}^
    12b8:	e0060000 	and	r0, r6, r0
    12bc:	00000115 	andeq	r0, r0, r5, lsl r1
    12c0:	0a2a0c58 	beq	a84428 <__bss_end__+0xa7a0b8>
    12c4:	e2060000 	and	r0, r6, #0
    12c8:	0000010a 	andeq	r0, r0, sl, lsl #2
    12cc:	095c0c5c 	ldmdbeq	ip, {r2, r3, r4, r6, sl, fp}^
    12d0:	e3060000 	movw	r0, #24576	; 0x6000
    12d4:	00000025 	andeq	r0, r0, r5, lsr #32
    12d8:	25140064 	ldrcs	r0, [r4, #-100]	; 0x64
    12dc:	3f000000 	svccc	0x00000000
    12e0:	15000004 	strne	r0, [r0, #-4]
    12e4:	0000043f 	andeq	r0, r0, pc, lsr r4
    12e8:	00012015 	andeq	r2, r1, r5, lsl r0
    12ec:	01221500 	teqeq	r2, r0, lsl #10
    12f0:	25150000 	ldrcs	r0, [r5, #-0]
    12f4:	00000000 	andeq	r0, r0, r0
    12f8:	044a040e 	strbeq	r0, [sl], #-1038	; 0x40e
    12fc:	3f040000 	svccc	0x00040000
    1300:	16000004 	strne	r0, [r0], -r4
    1304:	00000a83 	andeq	r0, r0, r3, lsl #21
    1308:	38060428 	stmdacc	r6, {r3, r5, sl}
    130c:	00057c02 	andeq	r7, r5, r2, lsl #24
    1310:	09f21700 	ldmibeq	r2!, {r8, r9, sl, ip}^
    1314:	3a060000 	bcc	18131c <__bss_end__+0x176fac>
    1318:	00002502 	andeq	r2, r0, r2, lsl #10
    131c:	dd170000 	ldcle	0, cr0, [r7, #-0]
    1320:	06000007 	streq	r0, [r0], -r7
    1324:	0651023f 			; <UNDEFINED> instruction: 0x0651023f
    1328:	17040000 	strne	r0, [r4, -r0]
    132c:	000008b1 			; <UNDEFINED> instruction: 0x000008b1
    1330:	51023f06 	tstpl	r2, r6, lsl #30
    1334:	08000006 	stmdaeq	r0, {r1, r2}
    1338:	00086917 	andeq	r6, r8, r7, lsl r9
    133c:	023f0600 	eorseq	r0, pc, #0, 12
    1340:	00000651 	andeq	r0, r0, r1, asr r6
    1344:	0a57170c 	beq	15c6f7c <__bss_end__+0x15bcc0c>
    1348:	41060000 	mrsmi	r0, (UNDEF: 6)
    134c:	00002502 	andeq	r2, r0, r2, lsl #10
    1350:	ba171000 	blt	5c5358 <__bss_end__+0x5bafe8>
    1354:	06000006 	streq	r0, [r0], -r6
    1358:	08330242 	ldmdaeq	r3!, {r1, r6, r9}
    135c:	17140000 	ldrne	r0, [r4, -r0]
    1360:	00000b45 	andeq	r0, r0, r5, asr #22
    1364:	25024406 	strcs	r4, [r2, #-1030]	; 0x406
    1368:	30000000 	andcc	r0, r0, r0
    136c:	000a6117 	andeq	r6, sl, r7, lsl r1
    1370:	02450600 	subeq	r0, r5, #0, 12
    1374:	000005a0 	andeq	r0, r0, r0, lsr #11
    1378:	09b11734 	ldmibeq	r1!, {r2, r4, r5, r8, r9, sl, ip}
    137c:	47060000 	strmi	r0, [r6, -r0]
    1380:	00002502 	andeq	r2, r0, r2, lsl #10
    1384:	71173800 	tstvc	r7, r0, lsl #16
    1388:	0600000a 	streq	r0, [r0], -sl
    138c:	084e0249 	stmdaeq	lr, {r0, r3, r6, r9}^
    1390:	173c0000 	ldrne	r0, [ip, -r0]!
    1394:	00000932 	andeq	r0, r0, r2, lsr r9
    1398:	92024c06 	andls	r4, r2, #1536	; 0x600
    139c:	40000001 	andmi	r0, r0, r1
    13a0:	00088817 	andeq	r8, r8, r7, lsl r8
    13a4:	024d0600 	subeq	r0, sp, #0, 12
    13a8:	00000025 	andeq	r0, r0, r5, lsr #32
    13ac:	0c571744 	mrrceq	7, 4, r1, r7, cr4
    13b0:	4e060000 	cdpmi	0, 0, cr0, cr6, cr0, {0}
    13b4:	00019202 	andeq	r9, r1, r2, lsl #4
    13b8:	c3174800 	tstgt	r7, #0, 16
    13bc:	06000009 	streq	r0, [r0], -r9
    13c0:	0854024f 	ldmdaeq	r4, {r0, r1, r2, r3, r6, r9}^
    13c4:	174c0000 	strbne	r0, [ip, -r0]
    13c8:	000008c0 	andeq	r0, r0, r0, asr #17
    13cc:	25025206 	strcs	r5, [r2, #-518]	; 0x206
    13d0:	50000000 	andpl	r0, r0, r0
    13d4:	00080b17 	andeq	r0, r8, r7, lsl fp
    13d8:	02530600 	subseq	r0, r3, #0, 12
    13dc:	00000122 	andeq	r0, r0, r2, lsr #2
    13e0:	09eb1754 	stmibeq	fp!, {r2, r4, r6, r8, r9, sl, ip}^
    13e4:	76060000 	strvc	r0, [r6], -r0
    13e8:	00081102 	andeq	r1, r8, r2, lsl #2
    13ec:	a9185800 	ldmdbge	r8, {fp, ip, lr}
    13f0:	06000009 	streq	r0, [r0], -r9
    13f4:	02af027a 	adceq	r0, pc, #-1610612729	; 0xa0000007
    13f8:	01480000 	mrseq	r0, (UNDEF: 72)
    13fc:	0008f518 	andeq	pc, r8, r8, lsl r5	; <UNPREDICTABLE>
    1400:	027b0600 	rsbseq	r0, fp, #0, 12
    1404:	00000271 	andeq	r0, r0, r1, ror r2
    1408:	ae18014c 	mufgeem	f0, f0, #4.0
    140c:	0600000b 	streq	r0, [r0], -fp
    1410:	0865027f 	stmdaeq	r5!, {r0, r1, r2, r3, r4, r5, r6, r9}^
    1414:	02dc0000 	sbcseq	r0, ip, #0
    1418:	0007c618 	andeq	ip, r7, r8, lsl r6
    141c:	02840600 	addeq	r0, r4, #0, 12
    1420:	00000616 	andeq	r0, r0, r6, lsl r6
    1424:	831802e0 	tsthi	r8, #224, 4
    1428:	06000007 	streq	r0, [r0], -r7
    142c:	08710285 	ldmdaeq	r1!, {r0, r2, r7, r9}^
    1430:	02ec0000 	rsceq	r0, ip, #0
    1434:	21040e00 	tstcs	r4, r0, lsl #28
    1438:	14000004 	strne	r0, [r0], #-4
    143c:	00000025 	andeq	r0, r0, r5, lsr #32
    1440:	000005a0 	andeq	r0, r0, r0, lsr #11
    1444:	00043f15 	andeq	r3, r4, r5, lsl pc
    1448:	01201500 	teqeq	r0, r0, lsl #10
    144c:	a0150000 	andsge	r0, r5, r0
    1450:	15000005 	strne	r0, [r0, #-5]
    1454:	00000025 	andeq	r0, r0, r5, lsr #32
    1458:	2f040e00 	svccs	0x00040e00
    145c:	0e000001 	cdpeq	0, 0, cr0, cr0, cr1, {0}
    1460:	00058204 	andeq	r8, r5, r4, lsl #4
    1464:	009c1400 	addseq	r1, ip, r0, lsl #8
    1468:	05ca0000 	strbeq	r0, [sl]
    146c:	3f150000 	svccc	0x00150000
    1470:	15000004 	strne	r0, [r0, #-4]
    1474:	00000120 	andeq	r0, r0, r0, lsr #2
    1478:	00009c15 	andeq	r9, r0, r5, lsl ip
    147c:	00251500 	eoreq	r1, r5, r0, lsl #10
    1480:	0e000000 	cdpeq	0, 0, cr0, cr0, cr0, {0}
    1484:	0005ac04 	andeq	sl, r5, r4, lsl #24
    1488:	00251400 	eoreq	r1, r5, r0, lsl #8
    148c:	05e40000 	strbeq	r0, [r4, #0]!
    1490:	3f150000 	svccc	0x00150000
    1494:	15000004 	strne	r0, [r0, #-4]
    1498:	00000120 	andeq	r0, r0, r0, lsr #2
    149c:	d0040e00 	andle	r0, r4, r0, lsl #28
    14a0:	09000005 	stmdbeq	r0, {r0, r2}
    14a4:	0000005f 	andeq	r0, r0, pc, asr r0
    14a8:	000005fa 	strdeq	r0, [r0], -sl
    14ac:	0000e20a 	andeq	lr, r0, sl, lsl #4
    14b0:	09000200 	stmdbeq	r0, {r9}
    14b4:	0000005f 	andeq	r0, r0, pc, asr r0
    14b8:	0000060a 	andeq	r0, r0, sl, lsl #12
    14bc:	0000e20a 	andeq	lr, r0, sl, lsl #4
    14c0:	06000000 	streq	r0, [r0], -r0
    14c4:	00000a10 	andeq	r0, r0, r0, lsl sl
    14c8:	f7011d06 			; <UNDEFINED> instruction: 0xf7011d06
    14cc:	19000002 	stmdbne	r0, {r1}
    14d0:	00000b7e 	andeq	r0, r0, lr, ror fp
    14d4:	0121060c 	teqeq	r1, ip, lsl #12
    14d8:	0000064b 	andeq	r0, r0, fp, asr #12
    14dc:	000a3817 	andeq	r3, sl, r7, lsl r8
    14e0:	01230600 	teqeq	r3, r0, lsl #12
    14e4:	0000064b 	andeq	r0, r0, fp, asr #12
    14e8:	08ce1700 	stmiaeq	lr, {r8, r9, sl, ip}^
    14ec:	24060000 	strcs	r0, [r6], #-0
    14f0:	00002501 	andeq	r2, r0, r1, lsl #10
    14f4:	0a170400 	beq	5c24fc <__bss_end__+0x5b818c>
    14f8:	0600000a 	streq	r0, [r0], -sl
    14fc:	06510125 	ldrbeq	r0, [r1], -r5, lsr #2
    1500:	00080000 	andeq	r0, r8, r0
    1504:	0616040e 	ldreq	r0, [r6], -lr, lsl #8
    1508:	040e0000 	streq	r0, [lr], #-0
    150c:	0000060a 	andeq	r0, r0, sl, lsl #12
    1510:	0006b219 	andeq	fp, r6, r9, lsl r2
    1514:	3d060e00 	stccc	14, cr0, [r6, #-0]
    1518:	00068c01 	andeq	r8, r6, r1, lsl #24
    151c:	0a8a1700 	beq	fe287124 <__bss_end__+0xfe27cdb4>
    1520:	3e060000 	cdpcc	0, 0, cr0, cr6, cr0, {0}
    1524:	00068c01 	andeq	r8, r6, r1, lsl #24
    1528:	b7170000 	ldrlt	r0, [r7, -r0]
    152c:	0600000a 	streq	r0, [r0], -sl
    1530:	068c013f 			; <UNDEFINED> instruction: 0x068c013f
    1534:	17060000 	strne	r0, [r6, -r0]
    1538:	00000b18 	andeq	r0, r0, r8, lsl fp
    153c:	66014006 	strvs	r4, [r1], -r6
    1540:	0c000000 	stceq	0, cr0, [r0], {-0}
    1544:	00660900 	rsbeq	r0, r6, r0, lsl #18
    1548:	069c0000 	ldreq	r0, [ip], r0
    154c:	e20a0000 	and	r0, sl, #0
    1550:	02000000 	andeq	r0, r0, #0
    1554:	06d01a00 	ldrbeq	r1, [r0], r0, lsl #20
    1558:	079d0257 			; <UNDEFINED> instruction: 0x079d0257
    155c:	57170000 	ldrpl	r0, [r7, -r0]
    1560:	0600000b 	streq	r0, [r0], -fp
    1564:	002c0259 	eoreq	r0, ip, r9, asr r2
    1568:	17000000 	strne	r0, [r0, -r0]
    156c:	00000afa 	strdeq	r0, [r0], -sl
    1570:	22025a06 	andcs	r5, r2, #24576	; 0x6000
    1574:	04000001 	streq	r0, [r0], #-1
    1578:	00091717 	andeq	r1, r9, r7, lsl r7
    157c:	025b0600 	subseq	r0, fp, #0, 12
    1580:	0000079d 	muleq	r0, sp, r7
    1584:	0c1b1708 	ldceq	7, cr1, [fp], {8}
    1588:	5c060000 	stcpl	0, cr0, [r6], {-0}
    158c:	0001a802 	andeq	sl, r1, r2, lsl #16
    1590:	79172400 	ldmdbvc	r7, {sl, sp}
    1594:	06000008 	streq	r0, [r0], -r8
    1598:	0025025d 	eoreq	r0, r5, sp, asr r2
    159c:	17480000 	strbne	r0, [r8, -r0]
    15a0:	00000a33 	andeq	r0, r0, r3, lsr sl
    15a4:	7f025e06 	svcvc	0x00025e06
    15a8:	50000000 	andpl	r0, r0, r0
    15ac:	000c3917 	andeq	r3, ip, r7, lsl r9
    15b0:	025f0600 	subseq	r0, pc, #0, 12
    15b4:	00000657 	andeq	r0, r0, r7, asr r6
    15b8:	0a4a1758 	beq	1287320 <__bss_end__+0x127cfb0>
    15bc:	60060000 	andvs	r0, r6, r0
    15c0:	00010a02 	andeq	r0, r1, r2, lsl #20
    15c4:	49176800 	ldmdbmi	r7, {fp, sp, lr}
    15c8:	0600000c 	streq	r0, [r0], -ip
    15cc:	010a0261 	tsteq	sl, r1, ror #4
    15d0:	17700000 	ldrbne	r0, [r0, -r0]!
    15d4:	0000073d 	andeq	r0, r0, sp, lsr r7
    15d8:	0a026206 	beq	99df8 <__bss_end__+0x8fa88>
    15dc:	78000001 	stmdavc	r0, {r0}
    15e0:	000b9517 	andeq	r9, fp, r7, lsl r5
    15e4:	02630600 	rsbeq	r0, r3, #0, 12
    15e8:	000007ad 	andeq	r0, r0, sp, lsr #15
    15ec:	090b1780 	stmdbeq	fp, {r7, r8, r9, sl, ip}
    15f0:	64060000 	strvs	r0, [r6], #-0
    15f4:	0007bd02 	andeq	fp, r7, r2, lsl #26
    15f8:	25178800 	ldrcs	r8, [r7, #-2048]	; 0x800
    15fc:	0600000b 	streq	r0, [r0], -fp
    1600:	00250265 	eoreq	r0, r5, r5, ror #4
    1604:	17a00000 	strne	r0, [r0, r0]!
    1608:	00000832 	andeq	r0, r0, r2, lsr r8
    160c:	0a026606 	beq	9ae2c <__bss_end__+0x90abc>
    1610:	a4000001 	strge	r0, [r0], #-1
    1614:	00071b17 	andeq	r1, r7, r7, lsl fp
    1618:	02670600 	rsbeq	r0, r7, #0, 12
    161c:	0000010a 	andeq	r0, r0, sl, lsl #2
    1620:	082117ac 	stmdaeq	r1!, {r2, r3, r5, r7, r8, r9, sl, ip}
    1624:	68060000 	stmdavs	r6, {}	; <UNPREDICTABLE>
    1628:	00010a02 	andeq	r0, r1, r2, lsl #20
    162c:	e217b400 	ands	fp, r7, #0, 8
    1630:	06000006 	streq	r0, [r0], -r6
    1634:	010a0269 	tsteq	sl, r9, ror #4
    1638:	17bc0000 	ldrne	r0, [ip, r0]!
    163c:	000006f1 	strdeq	r0, [r0], -r1
    1640:	0a026a06 	beq	9be60 <__bss_end__+0x91af0>
    1644:	c4000001 	strgt	r0, [r0], #-1
    1648:	0009f017 	andeq	pc, r9, r7, lsl r0	; <UNPREDICTABLE>
    164c:	026b0600 	rsbeq	r0, fp, #0, 12
    1650:	00000025 	andeq	r0, r0, r5, lsr #32
    1654:	280900cc 	stmdacs	r9, {r2, r3, r6, r7}
    1658:	ad000001 	stcge	0, cr0, [r0, #-4]
    165c:	0a000007 	beq	1680 <_start-0x6980>
    1660:	000000e2 	andeq	r0, r0, r2, ror #1
    1664:	28090019 	stmdacs	r9, {r0, r3, r4}
    1668:	bd000001 	stclt	0, cr0, [r0, #-4]
    166c:	0a000007 	beq	1690 <_start-0x6970>
    1670:	000000e2 	andeq	r0, r0, r2, ror #1
    1674:	28090007 	stmdacs	r9, {r0, r1, r2}
    1678:	cd000001 	stcgt	0, cr0, [r0, #-4]
    167c:	0a000007 	beq	16a0 <_start-0x6960>
    1680:	000000e2 	andeq	r0, r0, r2, ror #1
    1684:	f01a0017 			; <UNDEFINED> instruction: 0xf01a0017
    1688:	f1027006 			; <UNDEFINED> instruction: 0xf1027006
    168c:	17000007 	strne	r0, [r0, -r7]
    1690:	00000993 	muleq	r0, r3, r9
    1694:	f1027306 			; <UNDEFINED> instruction: 0xf1027306
    1698:	00000007 	andeq	r0, r0, r7
    169c:	00097317 	andeq	r7, r9, r7, lsl r3
    16a0:	02740600 	rsbseq	r0, r4, #0, 12
    16a4:	00000801 	andeq	r0, r0, r1, lsl #16
    16a8:	f1090078 			; <UNDEFINED> instruction: 0xf1090078
    16ac:	01000002 	tsteq	r0, r2
    16b0:	0a000008 	beq	16d8 <_start-0x6928>
    16b4:	000000e2 	andeq	r0, r0, r2, ror #1
    16b8:	2c09001d 	stccs	0, cr0, [r9], {29}
    16bc:	11000000 	mrsne	r0, (UNDEF: 0)
    16c0:	0a000008 	beq	16e8 <_start-0x6918>
    16c4:	000000e2 	andeq	r0, r0, r2, ror #1
    16c8:	f01b001d 			; <UNDEFINED> instruction: 0xf01b001d
    16cc:	33025506 	movwcc	r5, #9478	; 0x2506
    16d0:	1c000008 	stcne	0, cr0, [r0], {8}
    16d4:	00000a83 	andeq	r0, r0, r3, lsl #21
    16d8:	9c026c06 	stcls	12, cr6, [r2], {6}
    16dc:	1c000006 	stcne	0, cr0, [r0], {6}
    16e0:	00000bdb 	ldrdeq	r0, [r0], -fp
    16e4:	cd027506 	cfstr32gt	mvfx7, [r2, #-24]	; 0xffffffe8
    16e8:	00000007 	andeq	r0, r0, r7
    16ec:	00012809 	andeq	r2, r1, r9, lsl #16
    16f0:	00084300 	andeq	r4, r8, r0, lsl #6
    16f4:	00e20a00 	rsceq	r0, r2, r0, lsl #20
    16f8:	00180000 	andseq	r0, r8, r0
    16fc:	00084e1d 	andeq	r4, r8, sp, lsl lr
    1700:	043f1500 	ldrteq	r1, [pc], #-1280	; 1708 <_start-0x68f8>
    1704:	0e000000 	cdpeq	0, 0, cr0, cr0, cr0, {0}
    1708:	00084304 	andeq	r4, r8, r4, lsl #6
    170c:	92040e00 	andls	r0, r4, #0, 28
    1710:	1d000001 	stcne	0, cr0, [r0, #-4]
    1714:	00000865 	andeq	r0, r0, r5, ror #16
    1718:	00002515 	andeq	r2, r0, r5, lsl r5
    171c:	040e0000 	streq	r0, [lr], #-0
    1720:	0000086b 	andeq	r0, r0, fp, ror #16
    1724:	085a040e 	ldmdaeq	sl, {r1, r2, r3, sl}^
    1728:	0a090000 	beq	241730 <__bss_end__+0x2373c0>
    172c:	81000006 	tsthi	r0, r6
    1730:	0a000008 	beq	1758 <_start-0x68a8>
    1734:	000000e2 	andeq	r0, r0, r2, ror #1
    1738:	391e0002 	ldmdbcc	lr, {r1}
    173c:	0600000b 	streq	r0, [r0], -fp
    1740:	043f02fd 	ldrteq	r0, [pc], #-765	; 1748 <_start-0x68b8>
    1744:	321e0000 	andscc	r0, lr, #0
    1748:	0600000b 	streq	r0, [r0], -fp
    174c:	044502fe 	strbeq	r0, [r5], #-766	; 0x2fe
    1750:	25140000 	ldrcs	r0, [r4, #-0]
    1754:	a8000000 	stmdage	r0, {}	; <UNPREDICTABLE>
    1758:	15000008 	strne	r0, [r0, #-8]
    175c:	00000025 	andeq	r0, r0, r5, lsr #32
    1760:	08921f00 	ldmeq	r2, {r8, r9, sl, fp, ip}
    1764:	1d070000 	stcne	0, cr0, [r7, #-0]
    1768:	000008b3 			; <UNDEFINED> instruction: 0x000008b3
    176c:	0899040e 	ldmeq	r9, {r1, r2, r3, sl}
    1770:	25140000 	ldrcs	r0, [r4, #-0]
    1774:	c8000000 	stmdagt	r0, {}	; <UNPREDICTABLE>
    1778:	15000008 	strne	r0, [r0, #-8]
    177c:	000005a0 	andeq	r0, r0, r0, lsr #11
    1780:	0d831f00 	stceq	15, cr1, [r3]
    1784:	22070000 	andcs	r0, r7, #0
    1788:	000008d3 	ldrdeq	r0, [r0], -r3
    178c:	08b9040e 	ldmeq	r9!, {r1, r2, r3, sl}
    1790:	01200000 	teqeq	r0, r0
    1794:	0000005f 	andeq	r0, r0, pc, asr r0
    1798:	09160c08 	ldmdbeq	r6, {r3, sl, fp}
    179c:	0b210000 	bleq	8417a4 <__bss_end__+0x837434>
    17a0:	00000007 	andeq	r0, r0, r7
    17a4:	000b8421 	andeq	r8, fp, r1, lsr #8
    17a8:	c6210100 	strtgt	r0, [r1], -r0, lsl #2
    17ac:	0400000b 	streq	r0, [r0], #-11
    17b0:	00075a21 	andeq	r5, r7, r1, lsr #20
    17b4:	40210500 	eormi	r0, r1, r0, lsl #10
    17b8:	06000009 	streq	r0, [r0], -r9
    17bc:	000be321 	andeq	lr, fp, r1, lsr #6
    17c0:	f2210700 	vabd.s32	d0, d1, d0
    17c4:	0300000b 	movweq	r0, #11
    17c8:	000c0121 	andeq	r0, ip, r1, lsr #2
    17cc:	0b000200 	bleq	1fd4 <_start-0x602c>
    17d0:	c3560104 	cmpgt	r6, #4, 2
    17d4:	22000009 	andcs	r0, r0, #9
    17d8:	00000588 	andeq	r0, r0, r8, lsl #11
    17dc:	006d5701 	rsbeq	r5, sp, r1, lsl #14
    17e0:	01040000 	mrseq	r0, (UNDEF: 4)
    17e4:	e422001f 	strt	r0, [r2], #-31
    17e8:	01000007 	tsteq	r0, r7
    17ec:	00006d59 	andeq	r6, r0, r9, asr sp
    17f0:	1c030400 	cfstrsne	mvf0, [r3], {-0}
    17f4:	101c2200 	andsne	r2, ip, r0, lsl #4
    17f8:	5a010000 	bpl	41800 <__bss_end__+0x37490>
    17fc:	0000006d 	andeq	r0, r0, sp, rrx
    1800:	001a0204 	andseq	r0, sl, r4, lsl #4
    1804:	00077922 	andeq	r7, r7, r2, lsr #18
    1808:	6d600100 	stfvse	f0, [r0, #-0]
    180c:	04000000 	streq	r0, [r0], #-0
    1810:	23001901 	movwcs	r1, #2305	; 0x901
    1814:	01007473 	tsteq	r0, r3, ror r4
    1818:	00006d61 	andeq	r6, r0, r1, ror #26
    181c:	18010400 	stmdane	r1, {sl}
    1820:	096e2200 	stmdbeq	lr!, {r9, sp}^
    1824:	65010000 	strvs	r0, [r1, #-0]
    1828:	0000006d 	andeq	r0, r0, sp, rrx
    182c:	00170104 	andseq	r0, r7, r4, lsl #2
    1830:	00098122 	andeq	r8, r9, r2, lsr #2
    1834:	6d680100 	stfvse	f0, [r8, #-0]
    1838:	04000000 	streq	r0, [r0], #-0
    183c:	22001601 	andcs	r1, r0, #1048576	; 0x100000
    1840:	0000097c 	andeq	r0, r0, ip, ror r9
    1844:	006d6b01 	rsbeq	r6, sp, r1, lsl #22
    1848:	01040000 	mrseq	r0, (UNDEF: 4)
    184c:	f7220015 			; <UNDEFINED> instruction: 0xf7220015
    1850:	01000007 	tsteq	r0, r7
    1854:	00006d6e 	andeq	r6, r0, lr, ror #26
    1858:	11040400 	tstne	r4, r0, lsl #8
    185c:	099a2200 	ldmibeq	sl, {r9, sp}
    1860:	6f010000 	svcvs	0x00010000
    1864:	0000006d 	andeq	r0, r0, sp, rrx
    1868:	00100104 	andseq	r0, r0, r4, lsl #2
    186c:	00080122 	andeq	r0, r8, r2, lsr #2
    1870:	6d720100 	ldfvse	f0, [r2, #-0]
    1874:	04000000 	streq	r0, [r0], #-0
    1878:	00000010 	andeq	r0, r0, r0, lsl r0
    187c:	000c3e05 	andeq	r3, ip, r5, lsl #28
    1880:	16730100 	ldrbtne	r0, [r3], -r0, lsl #2
    1884:	24000009 	strcs	r0, [r0], #-9
    1888:	000009c3 	andeq	r0, r0, r3, asr #19
    188c:	8101040b 	tsthi	r1, fp, lsl #8
    1890:	00000a80 	andeq	r0, r0, r0, lsl #21
    1894:	00617423 	rsbeq	r7, r1, r3, lsr #8
    1898:	002c8201 	eoreq	r8, ip, r1, lsl #4
    189c:	01040000 	mrseq	r0, (UNDEF: 4)
    18a0:	d822001f 	stmdale	r2!, {r0, r1, r2, r3, r4}
    18a4:	01000006 	tsteq	r0, r6
    18a8:	00002c85 	andeq	r2, r0, r5, lsl #25
    18ac:	1e010400 	cfcpysne	mvf0, mvf1
    18b0:	78742300 	ldmdavc	r4!, {r8, r9, sp}^
    18b4:	89010077 	stmdbhi	r1, {r0, r1, r2, r4, r5, r6}
    18b8:	0000002c 	andeq	r0, r0, ip, lsr #32
    18bc:	001d0104 	andseq	r0, sp, r4, lsl #2
    18c0:	72787223 	rsbsvc	r7, r8, #805306370	; 0x30000002
    18c4:	2c8f0100 	stfcss	f0, [pc], {0}
    18c8:	04000000 	streq	r0, [r0], #-0
    18cc:	23001c01 	movwcs	r1, #3073	; 0xc01
    18d0:	00647874 	rsbeq	r7, r4, r4, ror r8
    18d4:	002c9501 	eoreq	r9, ip, r1, lsl #10
    18d8:	01040000 	mrseq	r0, (UNDEF: 4)
    18dc:	7223001b 	eorvc	r0, r3, #27
    18e0:	01006478 	tsteq	r0, r8, ror r4
    18e4:	00002c98 	muleq	r0, r8, ip
    18e8:	1a010400 	bne	428f0 <__bss_end__+0x38580>
    18ec:	78742300 	ldmdavc	r4!, {r8, r9, sp}^
    18f0:	9c010065 	stcls	0, cr0, [r1], {101}	; 0x65
    18f4:	0000002c 	andeq	r0, r0, ip, lsr #32
    18f8:	00190104 	andseq	r0, r9, r4, lsl #2
    18fc:	66787223 	ldrbtvs	r7, [r8], -r3, lsr #4
    1900:	2ca10100 	stfcss	f0, [r1]
    1904:	04000000 	streq	r0, [r0], #-0
    1908:	23001801 	movwcs	r1, #2049	; 0x801
    190c:	00727265 	rsbseq	r7, r2, r5, ror #4
    1910:	002ca401 	eoreq	sl, ip, r1, lsl #8
    1914:	01040000 	mrseq	r0, (UNDEF: 4)
    1918:	b8220017 	stmdalt	r2!, {r0, r1, r2, r4}
    191c:	0100000b 	tsteq	r0, fp
    1920:	00002ca8 	andeq	r2, r0, r8, lsr #25
    1924:	16010400 	strne	r0, [r1], -r0, lsl #8
    1928:	07e42200 	strbeq	r2, [r4, r0, lsl #4]!
    192c:	ad010000 	stcge	0, cr0, [r1, #-0]
    1930:	0000002c 	andeq	r0, r0, ip, lsr #32
    1934:	00001604 	andeq	r1, r0, r4, lsl #12
    1938:	06c50500 	strbeq	r0, [r5], r0, lsl #10
    193c:	ae010000 	cdpge	0, 0, cr0, cr1, cr0, {0}
    1940:	000009d3 	ldrdeq	r0, [r0], -r3
    1944:	000a8024 	andeq	r8, sl, r4, lsr #32
    1948:	06d00f00 	ldrbeq	r0, [r0], r0, lsl #30
    194c:	01200000 	teqeq	r0, r0
    1950:	000afdb9 			; <UNDEFINED> instruction: 0x000afdb9
    1954:	0a980c00 	beq	fe60495c <__bss_end__+0xfe5fa5ec>
    1958:	ba010000 	blt	41960 <__bss_end__+0x375f0>
    195c:	000009c3 	andeq	r0, r0, r3, asr #19
    1960:	09040c00 	stmdbeq	r4, {sl, fp}
    1964:	bb010000 	bllt	4196c <__bss_end__+0x375fc>
    1968:	00000a80 	andeq	r0, r0, r0, lsl #21
    196c:	09d40c04 	ldmibeq	r4, {r2, sl, fp}^
    1970:	be010000 	cdplt	0, 0, cr0, cr1, cr0, {0}
    1974:	0000006d 	andeq	r0, r0, sp, rrx
    1978:	05300c08 	ldreq	r0, [r0, #-3080]!	; 0xc08
    197c:	c7010000 	strgt	r0, [r1, -r0]
    1980:	0000006d 	andeq	r0, r0, sp, rrx
    1984:	06dd0c0c 	ldrbeq	r0, [sp], ip, lsl #24
    1988:	c9010000 	stmdbgt	r1, {}	; <UNPREDICTABLE>
    198c:	0000006d 	andeq	r0, r0, sp, rrx
    1990:	08eb0c10 	stmiaeq	fp!, {r4, sl, fp}^
    1994:	cb010000 	blgt	4199c <__bss_end__+0x3762c>
    1998:	0000006d 	andeq	r0, r0, sp, rrx
    199c:	0a3e0c14 	beq	f849f4 <__bss_end__+0xf7a684>
    19a0:	cd010000 	stcgt	0, cr0, [r1, #-0]
    19a4:	0000006d 	andeq	r0, r0, sp, rrx
    19a8:	07960c18 			; <UNDEFINED> instruction: 0x07960c18
    19ac:	cf010000 	svcgt	0x00010000
    19b0:	0000006d 	andeq	r0, r0, sp, rrx
    19b4:	d005001c 	andle	r0, r5, ip, lsl r0
    19b8:	01000006 	tsteq	r0, r6
    19bc:	000a90d0 	ldrdeq	r9, [sl], -r0
    19c0:	0afd2400 	beq	fff4a9c8 <__bss_end__+0xfff40658>
    19c4:	69250000 	stmdbvs	r5!, {}	; <UNPREDICTABLE>
    19c8:	01006332 	tsteq	r0, r2, lsr r3
    19cc:	000b18d4 	ldrdeq	r1, [fp], -r4
    19d0:	08040e00 	stmdaeq	r4, {r9, sl, fp}
    19d4:	2600000b 	strcs	r0, [r0], -fp
    19d8:	000008d5 	ldrdeq	r0, [r0], -r5
    19dc:	25013f01 	strcs	r3, [r1, #-3841]	; 0xf01
    19e0:	05000000 	streq	r0, [r0, #-0]
    19e4:	009f6803 	addseq	r6, pc, r3, lsl #16
    19e8:	09862700 	stmibeq	r6, {r8, r9, sl, sp}
    19ec:	69010000 	stmdbvs	r1, {}	; <UNPREDICTABLE>
    19f0:	0085d401 	addeq	sp, r5, r1, lsl #8
    19f4:	00000800 	andeq	r0, r0, r0, lsl #16
    19f8:	019c0100 	orrseq	r0, ip, r0, lsl #2
    19fc:	28000011 	stmdacs	r0, {r0, r4}
    1a00:	0000027e 	andeq	r0, r0, lr, ror r2
    1a04:	00001111 	andeq	r1, r0, r1, lsl r1
    1a08:	9c040305 	stcls	3, cr0, [r4], {5}
    1a0c:	aa290000 	bge	a41a14 <__bss_end__+0xa376a4>
    1a10:	2a00000b 	bcs	1a44 <_start-0x65bc>
    1a14:	0400755f 	streq	r7, [r0], #-1375	; 0x55f
    1a18:	7b017401 	blvc	5ea24 <__bss_end__+0x546b4>
    1a1c:	2b00000b 	blcs	1a50 <_start-0x65b0>
    1a20:	74010073 	strvc	r0, [r1], #-115	; 0x73
    1a24:	0009c301 	andeq	ip, r9, r1, lsl #6
    1a28:	00752b00 	rsbseq	r2, r5, r0, lsl #22
    1a2c:	2c017401 	cfstrscs	mvf7, [r1], {1}
    1a30:	00000000 	andeq	r0, r0, r0
    1a34:	0100782c 	tsteq	r0, ip, lsr #16
    1a38:	0b5a0174 	bleq	1682010 <__bss_end__+0x1677ca0>
    1a3c:	652c0000 	strvs	r0, [ip, #-0]!
    1a40:	01007078 	tsteq	r0, r8, ror r0
    1a44:	002c0174 	eoreq	r0, ip, r4, ror r1
    1a48:	1b2d0000 	blne	b41a50 <__bss_end__+0xb376e0>
    1a4c:	01000008 	tsteq	r0, r8
    1a50:	002c0174 	eoreq	r0, ip, r4, ror r1
    1a54:	e32d0000 	teq	sp, #0
    1a58:	01000008 	tsteq	r0, r8
    1a5c:	002c0174 	eoreq	r0, ip, r4, ror r1
    1a60:	29000000 	stmdbcs	r0, {}	; <UNPREDICTABLE>
    1a64:	00000bff 	strdeq	r0, [r0], -pc	; <UNPREDICTABLE>
    1a68:	00755f2a 	rsbseq	r5, r5, sl, lsr #30
    1a6c:	01750104 	cmneq	r5, r4, lsl #2
    1a70:	00000bd0 	ldrdeq	r0, [r0], -r0	; <UNPREDICTABLE>
    1a74:	0100732b 	tsteq	r0, fp, lsr #6
    1a78:	09c30175 	stmibeq	r3, {r0, r2, r4, r5, r6, r8}^
    1a7c:	752b0000 	strvc	r0, [fp, #-0]!
    1a80:	01750100 	cmneq	r5, r0, lsl #2
    1a84:	0000002c 	andeq	r0, r0, ip, lsr #32
    1a88:	00782c00 	rsbseq	r2, r8, r0, lsl #24
    1a8c:	af017501 	svcge	0x00017501
    1a90:	2c00000b 	stccs	0, cr0, [r0], {11}
    1a94:	00707865 	rsbseq	r7, r0, r5, ror #16
    1a98:	2c017501 	cfstr32cs	mvfx7, [r1], {1}
    1a9c:	2d000000 	stccs	0, cr0, [r0, #-0]
    1aa0:	0000081b 	andeq	r0, r0, fp, lsl r8
    1aa4:	2c017501 	cfstr32cs	mvfx7, [r1], {1}
    1aa8:	2d000000 	stccs	0, cr0, [r0, #-0]
    1aac:	000008e3 	andeq	r0, r0, r3, ror #17
    1ab0:	2c017501 	cfstr32cs	mvfx7, [r1], {1}
    1ab4:	00000000 	andeq	r0, r0, r0
    1ab8:	000c5429 	andeq	r5, ip, r9, lsr #8
    1abc:	755f2a00 	ldrbvc	r2, [pc, #-2560]	; 10c4 <_start-0x6f3c>
    1ac0:	76010400 	strvc	r0, [r1], -r0, lsl #8
    1ac4:	000c2501 	andeq	r2, ip, r1, lsl #10
    1ac8:	00732b00 	rsbseq	r2, r3, r0, lsl #22
    1acc:	c3017601 	movwgt	r7, #5633	; 0x1601
    1ad0:	2b000009 	blcs	1afc <_start-0x6504>
    1ad4:	76010075 			; <UNDEFINED> instruction: 0x76010075
    1ad8:	00002c01 	andeq	r2, r0, r1, lsl #24
    1adc:	782c0000 	stmdavc	ip!, {}	; <UNPREDICTABLE>
    1ae0:	01760100 	cmneq	r6, r0, lsl #2
    1ae4:	00000c04 	andeq	r0, r0, r4, lsl #24
    1ae8:	7078652c 	rsbsvc	r6, r8, ip, lsr #10
    1aec:	01760100 	cmneq	r6, r0, lsl #2
    1af0:	0000002c 	andeq	r0, r0, ip, lsr #32
    1af4:	00081b2d 	andeq	r1, r8, sp, lsr #22
    1af8:	01760100 	cmneq	r6, r0, lsl #2
    1afc:	0000002c 	andeq	r0, r0, ip, lsr #32
    1b00:	0008e32d 	andeq	lr, r8, sp, lsr #6
    1b04:	01760100 	cmneq	r6, r0, lsl #2
    1b08:	0000002c 	andeq	r0, r0, ip, lsr #32
    1b0c:	0ca92900 	stceq	9, cr2, [r9]
    1b10:	5f2a0000 	svcpl	0x002a0000
    1b14:	01040075 	tsteq	r4, r5, ror r0
    1b18:	0c7a0177 	ldfeqe	f0, [sl], #-476	; 0xfffffe24
    1b1c:	732b0000 	teqvc	fp, #0
    1b20:	01770100 	cmneq	r7, r0, lsl #2
    1b24:	000009c3 	andeq	r0, r0, r3, asr #19
    1b28:	0100752b 	tsteq	r0, fp, lsr #10
    1b2c:	002c0177 	eoreq	r0, ip, r7, ror r1
    1b30:	2c000000 	stccs	0, cr0, [r0], {-0}
    1b34:	77010078 	smlsdxvc	r1, r8, r0, r0
    1b38:	000c5901 	andeq	r5, ip, r1, lsl #18
    1b3c:	78652c00 	stmdavc	r5!, {sl, fp, sp}^
    1b40:	77010070 	smlsdxvc	r1, r0, r0, r0
    1b44:	00002c01 	andeq	r2, r0, r1, lsl #24
    1b48:	081b2d00 	ldmdaeq	fp, {r8, sl, fp, sp}
    1b4c:	77010000 	strvc	r0, [r1, -r0]
    1b50:	00002c01 	andeq	r2, r0, r1, lsl #24
    1b54:	08e32d00 	stmiaeq	r3!, {r8, sl, fp, sp}^
    1b58:	77010000 	strvc	r0, [r1, -r0]
    1b5c:	00002c01 	andeq	r2, r0, r1, lsl #24
    1b60:	fe290000 	cdp2	0, 2, cr0, cr9, cr0, {0}
    1b64:	2a00000c 	bcs	1b9c <_start-0x6464>
    1b68:	0400755f 	streq	r7, [r0], #-1375	; 0x55f
    1b6c:	cf017801 	svcgt	0x00017801
    1b70:	2b00000c 	blcs	1ba8 <_start-0x6458>
    1b74:	78010073 	stmdavc	r1, {r0, r1, r4, r5, r6}
    1b78:	0009c301 	andeq	ip, r9, r1, lsl #6
    1b7c:	00752b00 	rsbseq	r2, r5, r0, lsl #22
    1b80:	2c017801 	stccs	8, cr7, [r1], {1}
    1b84:	00000000 	andeq	r0, r0, r0
    1b88:	0100782c 	tsteq	r0, ip, lsr #16
    1b8c:	0cae0178 	stfeqs	f0, [lr], #480	; 0x1e0
    1b90:	652c0000 	strvs	r0, [ip, #-0]!
    1b94:	01007078 	tsteq	r0, r8, ror r0
    1b98:	002c0178 	eoreq	r0, ip, r8, ror r1
    1b9c:	1b2d0000 	blne	b41ba4 <__bss_end__+0xb37834>
    1ba0:	01000008 	tsteq	r0, r8
    1ba4:	002c0178 	eoreq	r0, ip, r8, ror r1
    1ba8:	e32d0000 	teq	sp, #0
    1bac:	01000008 	tsteq	r0, r8
    1bb0:	002c0178 	eoreq	r0, ip, r8, ror r1
    1bb4:	29000000 	stmdbcs	r0, {}	; <UNPREDICTABLE>
    1bb8:	00000d53 	andeq	r0, r0, r3, asr sp
    1bbc:	00755f2a 	rsbseq	r5, r5, sl, lsr #30
    1bc0:	01790104 	cmneq	r9, r4, lsl #2
    1bc4:	00000d24 	andeq	r0, r0, r4, lsr #26
    1bc8:	0100732b 	tsteq	r0, fp, lsr #6
    1bcc:	09c30179 	stmibeq	r3, {r0, r3, r4, r5, r6, r8}^
    1bd0:	752b0000 	strvc	r0, [fp, #-0]!
    1bd4:	01790100 	cmneq	r9, r0, lsl #2
    1bd8:	0000002c 	andeq	r0, r0, ip, lsr #32
    1bdc:	00782c00 	rsbseq	r2, r8, r0, lsl #24
    1be0:	03017901 	movweq	r7, #6401	; 0x1901
    1be4:	2c00000d 	stccs	0, cr0, [r0], {13}
    1be8:	00707865 	rsbseq	r7, r0, r5, ror #16
    1bec:	2c017901 	stccs	9, cr7, [r1], {1}
    1bf0:	2d000000 	stccs	0, cr0, [r0, #-0]
    1bf4:	0000081b 	andeq	r0, r0, fp, lsl r8
    1bf8:	2c017901 	stccs	9, cr7, [r1], {1}
    1bfc:	2d000000 	stccs	0, cr0, [r0, #-0]
    1c00:	000008e3 	andeq	r0, r0, r3, ror #17
    1c04:	2c017901 	stccs	9, cr7, [r1], {1}
    1c08:	00000000 	andeq	r0, r0, r0
    1c0c:	000da829 	andeq	sl, sp, r9, lsr #16
    1c10:	755f2a00 	ldrbvc	r2, [pc, #-2560]	; 1218 <_start-0x6de8>
    1c14:	7a010400 	bvc	42c1c <__bss_end__+0x388ac>
    1c18:	000d7901 	andeq	r7, sp, r1, lsl #18
    1c1c:	00732b00 	rsbseq	r2, r3, r0, lsl #22
    1c20:	c3017a01 	movwgt	r7, #6657	; 0x1a01
    1c24:	2b000009 	blcs	1c50 <_start-0x63b0>
    1c28:	7a010075 	bvc	41e04 <__bss_end__+0x37a94>
    1c2c:	00002c01 	andeq	r2, r0, r1, lsl #24
    1c30:	782c0000 	stmdavc	ip!, {}	; <UNPREDICTABLE>
    1c34:	017a0100 	cmneq	sl, r0, lsl #2
    1c38:	00000d58 	andeq	r0, r0, r8, asr sp
    1c3c:	7078652c 	rsbsvc	r6, r8, ip, lsr #10
    1c40:	017a0100 	cmneq	sl, r0, lsl #2
    1c44:	0000002c 	andeq	r0, r0, ip, lsr #32
    1c48:	00081b2d 	andeq	r1, r8, sp, lsr #22
    1c4c:	017a0100 	cmneq	sl, r0, lsl #2
    1c50:	0000002c 	andeq	r0, r0, ip, lsr #32
    1c54:	0008e32d 	andeq	lr, r8, sp, lsr #6
    1c58:	017a0100 	cmneq	sl, r0, lsl #2
    1c5c:	0000002c 	andeq	r0, r0, ip, lsr #32
    1c60:	0dfd2900 	ldcleq	9, cr2, [sp]
    1c64:	5f2a0000 	svcpl	0x002a0000
    1c68:	01040075 	tsteq	r4, r5, ror r0
    1c6c:	0dce017d 	stfeqe	f0, [lr, #500]	; 0x1f4
    1c70:	732b0000 	teqvc	fp, #0
    1c74:	017d0100 	cmneq	sp, r0, lsl #2
    1c78:	00000a80 	andeq	r0, r0, r0, lsl #21
    1c7c:	0100752b 	tsteq	r0, fp, lsr #10
    1c80:	002c017d 	eoreq	r0, ip, sp, ror r1
    1c84:	2c000000 	stccs	0, cr0, [r0], {-0}
    1c88:	7d010078 	stcvc	0, cr0, [r1, #-480]	; 0xfffffe20
    1c8c:	000dad01 	andeq	sl, sp, r1, lsl #26
    1c90:	78652c00 	stmdavc	r5!, {sl, fp, sp}^
    1c94:	7d010070 	stcvc	0, cr0, [r1, #-448]	; 0xfffffe40
    1c98:	00002c01 	andeq	r2, r0, r1, lsl #24
    1c9c:	081b2d00 	ldmdaeq	fp, {r8, sl, fp, sp}
    1ca0:	7d010000 	stcvc	0, cr0, [r1, #-0]
    1ca4:	00002c01 	andeq	r2, r0, r1, lsl #24
    1ca8:	08e32d00 	stmiaeq	r3!, {r8, sl, fp, sp}^
    1cac:	7d010000 	stcvc	0, cr0, [r1, #-0]
    1cb0:	00002c01 	andeq	r2, r0, r1, lsl #24
    1cb4:	52290000 	eorpl	r0, r9, #0
    1cb8:	2a00000e 	bcs	1cf8 <_start-0x6308>
    1cbc:	0400755f 	streq	r7, [r0], #-1375	; 0x55f
    1cc0:	23017e01 	movwcs	r7, #7681	; 0x1e01
    1cc4:	2b00000e 	blcs	1d04 <_start-0x62fc>
    1cc8:	7e010073 	mcrvc	0, 0, r0, cr1, cr3, {3}
    1ccc:	000a8001 	andeq	r8, sl, r1
    1cd0:	00752b00 	rsbseq	r2, r5, r0, lsl #22
    1cd4:	2c017e01 	stccs	14, cr7, [r1], {1}
    1cd8:	00000000 	andeq	r0, r0, r0
    1cdc:	0100782c 	tsteq	r0, ip, lsr #16
    1ce0:	0e02017e 	mcreq	1, 0, r0, cr2, cr14, {3}
    1ce4:	652c0000 	strvs	r0, [ip, #-0]!
    1ce8:	01007078 	tsteq	r0, r8, ror r0
    1cec:	002c017e 	eoreq	r0, ip, lr, ror r1
    1cf0:	1b2d0000 	blne	b41cf8 <__bss_end__+0xb37988>
    1cf4:	01000008 	tsteq	r0, r8
    1cf8:	002c017e 	eoreq	r0, ip, lr, ror r1
    1cfc:	e32d0000 	teq	sp, #0
    1d00:	01000008 	tsteq	r0, r8
    1d04:	002c017e 	eoreq	r0, ip, lr, ror r1
    1d08:	29000000 	stmdbcs	r0, {}	; <UNPREDICTABLE>
    1d0c:	00000ea7 	andeq	r0, r0, r7, lsr #29
    1d10:	00755f2a 	rsbseq	r5, r5, sl, lsr #30
    1d14:	017f0104 	cmneq	pc, r4, lsl #2
    1d18:	00000e78 	andeq	r0, r0, r8, ror lr
    1d1c:	0100732b 	tsteq	r0, fp, lsr #6
    1d20:	0a80017f 	beq	fe002324 <__bss_end__+0xfdff7fb4>
    1d24:	752b0000 	strvc	r0, [fp, #-0]!
    1d28:	017f0100 	cmneq	pc, r0, lsl #2
    1d2c:	0000002c 	andeq	r0, r0, ip, lsr #32
    1d30:	00782c00 	rsbseq	r2, r8, r0, lsl #24
    1d34:	57017f01 	strpl	r7, [r1, -r1, lsl #30]
    1d38:	2c00000e 	stccs	0, cr0, [r0], {14}
    1d3c:	00707865 	rsbseq	r7, r0, r5, ror #16
    1d40:	2c017f01 	stccs	15, cr7, [r1], {1}
    1d44:	2d000000 	stccs	0, cr0, [r0, #-0]
    1d48:	0000081b 	andeq	r0, r0, fp, lsl r8
    1d4c:	2c017f01 	stccs	15, cr7, [r1], {1}
    1d50:	2d000000 	stccs	0, cr0, [r0, #-0]
    1d54:	000008e3 	andeq	r0, r0, r3, ror #17
    1d58:	2c017f01 	stccs	15, cr7, [r1], {1}
    1d5c:	00000000 	andeq	r0, r0, r0
    1d60:	000efc29 	andeq	pc, lr, r9, lsr #24
    1d64:	755f2a00 	ldrbvc	r2, [pc, #-2560]	; 136c <_start-0x6c94>
    1d68:	80010400 	andhi	r0, r1, r0, lsl #8
    1d6c:	000ecd01 	andeq	ip, lr, r1, lsl #26
    1d70:	00732b00 	rsbseq	r2, r3, r0, lsl #22
    1d74:	80018001 	andhi	r8, r1, r1
    1d78:	2b00000a 	blcs	1da8 <_start-0x6258>
    1d7c:	80010075 	andhi	r0, r1, r5, ror r0
    1d80:	00002c01 	andeq	r2, r0, r1, lsl #24
    1d84:	782c0000 	stmdavc	ip!, {}	; <UNPREDICTABLE>
    1d88:	01800100 	orreq	r0, r0, r0, lsl #2
    1d8c:	00000eac 	andeq	r0, r0, ip, lsr #29
    1d90:	7078652c 	rsbsvc	r6, r8, ip, lsr #10
    1d94:	01800100 	orreq	r0, r0, r0, lsl #2
    1d98:	0000002c 	andeq	r0, r0, ip, lsr #32
    1d9c:	00081b2d 	andeq	r1, r8, sp, lsr #22
    1da0:	01800100 	orreq	r0, r0, r0, lsl #2
    1da4:	0000002c 	andeq	r0, r0, ip, lsr #32
    1da8:	0008e32d 	andeq	lr, r8, sp, lsr #6
    1dac:	01800100 	orreq	r0, r0, r0, lsl #2
    1db0:	0000002c 	andeq	r0, r0, ip, lsr #32
    1db4:	0f512900 	svceq	0x00512900
    1db8:	5f2a0000 	svcpl	0x002a0000
    1dbc:	01040075 	tsteq	r4, r5, ror r0
    1dc0:	0f220181 	svceq	0x00220181
    1dc4:	732b0000 	teqvc	fp, #0
    1dc8:	01810100 	orreq	r0, r1, r0, lsl #2
    1dcc:	00000a80 	andeq	r0, r0, r0, lsl #21
    1dd0:	0100752b 	tsteq	r0, fp, lsr #10
    1dd4:	002c0181 	eoreq	r0, ip, r1, lsl #3
    1dd8:	2c000000 	stccs	0, cr0, [r0], {-0}
    1ddc:	81010078 	tsthi	r1, r8, ror r0
    1de0:	000f0101 	andeq	r0, pc, r1, lsl #2
    1de4:	78652c00 	stmdavc	r5!, {sl, fp, sp}^
    1de8:	81010070 	tsthi	r1, r0, ror r0
    1dec:	00002c01 	andeq	r2, r0, r1, lsl #24
    1df0:	081b2d00 	ldmdaeq	fp, {r8, sl, fp, sp}
    1df4:	81010000 	mrshi	r0, (UNDEF: 1)
    1df8:	00002c01 	andeq	r2, r0, r1, lsl #24
    1dfc:	08e32d00 	stmiaeq	r3!, {r8, sl, fp, sp}^
    1e00:	81010000 	mrshi	r0, (UNDEF: 1)
    1e04:	00002c01 	andeq	r2, r0, r1, lsl #24
    1e08:	a6290000 	strtge	r0, [r9], -r0
    1e0c:	2a00000f 	bcs	1e50 <_start-0x61b0>
    1e10:	0400755f 	streq	r7, [r0], #-1375	; 0x55f
    1e14:	77018201 	strvc	r8, [r1, -r1, lsl #4]
    1e18:	2b00000f 	blcs	1e5c <_start-0x61a4>
    1e1c:	82010073 	andhi	r0, r1, #115	; 0x73
    1e20:	000a8001 	andeq	r8, sl, r1
    1e24:	00752b00 	rsbseq	r2, r5, r0, lsl #22
    1e28:	2c018201 	sfmcs	f0, 1, [r1], {1}
    1e2c:	00000000 	andeq	r0, r0, r0
    1e30:	0100782c 	tsteq	r0, ip, lsr #16
    1e34:	0f560182 	svceq	0x00560182
    1e38:	652c0000 	strvs	r0, [ip, #-0]!
    1e3c:	01007078 	tsteq	r0, r8, ror r0
    1e40:	002c0182 	eoreq	r0, ip, r2, lsl #3
    1e44:	1b2d0000 	blne	b41e4c <__bss_end__+0xb37adc>
    1e48:	01000008 	tsteq	r0, r8
    1e4c:	002c0182 	eoreq	r0, ip, r2, lsl #3
    1e50:	e32d0000 	teq	sp, #0
    1e54:	01000008 	tsteq	r0, r8
    1e58:	002c0182 	eoreq	r0, ip, r2, lsl #3
    1e5c:	29000000 	stmdbcs	r0, {}	; <UNPREDICTABLE>
    1e60:	00000ffb 	strdeq	r0, [r0], -fp
    1e64:	00755f2a 	rsbseq	r5, r5, sl, lsr #30
    1e68:	01830104 	orreq	r0, r3, r4, lsl #2
    1e6c:	00000fcc 	andeq	r0, r0, ip, asr #31
    1e70:	0100732b 	tsteq	r0, fp, lsr #6
    1e74:	0a800183 	beq	fe002488 <__bss_end__+0xfdff8118>
    1e78:	752b0000 	strvc	r0, [fp, #-0]!
    1e7c:	01830100 	orreq	r0, r3, r0, lsl #2
    1e80:	0000002c 	andeq	r0, r0, ip, lsr #32
    1e84:	00782c00 	rsbseq	r2, r8, r0, lsl #24
    1e88:	ab018301 	blge	62a94 <__bss_end__+0x58724>
    1e8c:	2c00000f 	stccs	0, cr0, [r0], {15}
    1e90:	00707865 	rsbseq	r7, r0, r5, ror #16
    1e94:	2c018301 	stccs	3, cr8, [r1], {1}
    1e98:	2d000000 	stccs	0, cr0, [r0, #-0]
    1e9c:	0000081b 	andeq	r0, r0, fp, lsl r8
    1ea0:	2c018301 	stccs	3, cr8, [r1], {1}
    1ea4:	2d000000 	stccs	0, cr0, [r0, #-0]
    1ea8:	000008e3 	andeq	r0, r0, r3, ror #17
    1eac:	2c018301 	stccs	3, cr8, [r1], {1}
    1eb0:	00000000 	andeq	r0, r0, r0
    1eb4:	00105029 	andseq	r5, r0, r9, lsr #32
    1eb8:	755f2a00 	ldrbvc	r2, [pc, #-2560]	; 14c0 <_start-0x6b40>
    1ebc:	84010400 	strhi	r0, [r1], #-1024	; 0x400
    1ec0:	00102101 	andseq	r2, r0, r1, lsl #2
    1ec4:	00732b00 	rsbseq	r2, r3, r0, lsl #22
    1ec8:	80018401 	andhi	r8, r1, r1, lsl #8
    1ecc:	2b00000a 	blcs	1efc <_start-0x6104>
    1ed0:	84010075 	strhi	r0, [r1], #-117	; 0x75
    1ed4:	00002c01 	andeq	r2, r0, r1, lsl #24
    1ed8:	782c0000 	stmdavc	ip!, {}	; <UNPREDICTABLE>
    1edc:	01840100 	orreq	r0, r4, r0, lsl #2
    1ee0:	00001000 	andeq	r1, r0, r0
    1ee4:	7078652c 	rsbsvc	r6, r8, ip, lsr #10
    1ee8:	01840100 	orreq	r0, r4, r0, lsl #2
    1eec:	0000002c 	andeq	r0, r0, ip, lsr #32
    1ef0:	00081b2d 	andeq	r1, r8, sp, lsr #22
    1ef4:	01840100 	orreq	r0, r4, r0, lsl #2
    1ef8:	0000002c 	andeq	r0, r0, ip, lsr #32
    1efc:	0008e32d 	andeq	lr, r8, sp, lsr #6
    1f00:	01840100 	orreq	r0, r4, r0, lsl #2
    1f04:	0000002c 	andeq	r0, r0, ip, lsr #32
    1f08:	10a52900 	adcne	r2, r5, r0, lsl #18
    1f0c:	5f2a0000 	svcpl	0x002a0000
    1f10:	01040075 	tsteq	r4, r5, ror r0
    1f14:	10760185 	rsbsne	r0, r6, r5, lsl #3
    1f18:	732b0000 	teqvc	fp, #0
    1f1c:	01850100 	orreq	r0, r5, r0, lsl #2
    1f20:	00000a80 	andeq	r0, r0, r0, lsl #21
    1f24:	0100752b 	tsteq	r0, fp, lsr #10
    1f28:	002c0185 	eoreq	r0, ip, r5, lsl #3
    1f2c:	2c000000 	stccs	0, cr0, [r0], {-0}
    1f30:	85010078 	strhi	r0, [r1, #-120]	; 0x78
    1f34:	00105501 	andseq	r5, r0, r1, lsl #10
    1f38:	78652c00 	stmdavc	r5!, {sl, fp, sp}^
    1f3c:	85010070 	strhi	r0, [r1, #-112]	; 0x70
    1f40:	00002c01 	andeq	r2, r0, r1, lsl #24
    1f44:	081b2d00 	ldmdaeq	fp, {r8, sl, fp, sp}
    1f48:	85010000 	strhi	r0, [r1, #-0]
    1f4c:	00002c01 	andeq	r2, r0, r1, lsl #24
    1f50:	08e32d00 	stmiaeq	r3!, {r8, sl, fp, sp}^
    1f54:	85010000 	strhi	r0, [r1, #-0]
    1f58:	00002c01 	andeq	r2, r0, r1, lsl #24
    1f5c:	d82e0000 	stmdale	lr!, {}	; <UNPREDICTABLE>
    1f60:	04000085 	streq	r0, [r0], #-133	; 0x85
    1f64:	2a000000 	bcs	1f6c <_start-0x6094>
    1f68:	0400755f 	streq	r7, [r0], #-1375	; 0x55f
    1f6c:	cf018601 	svcgt	0x00018601
    1f70:	2b000010 	blcs	1fb8 <_start-0x6048>
    1f74:	86010073 			; <UNDEFINED> instruction: 0x86010073
    1f78:	000a8001 	andeq	r8, sl, r1
    1f7c:	00752b00 	rsbseq	r2, r5, r0, lsl #22
    1f80:	2c018601 	stccs	6, cr8, [r1], {1}
    1f84:	00000000 	andeq	r0, r0, r0
    1f88:	0100782c 	tsteq	r0, ip, lsr #16
    1f8c:	10ae0186 	adcne	r0, lr, r6, lsl #3
    1f90:	652f0000 	strvs	r0, [pc, #-0]!	; 1f98 <_start-0x6068>
    1f94:	01007078 	tsteq	r0, r8, ror r0
    1f98:	002c0186 	eoreq	r0, ip, r6, lsl #3
    1f9c:	02000000 	andeq	r0, r0, #0
    1fa0:	00081b2d 	andeq	r1, r8, sp, lsr #22
    1fa4:	01860100 	orreq	r0, r6, r0, lsl #2
    1fa8:	0000002c 	andeq	r0, r0, ip, lsr #32
    1fac:	0008e32d 	andeq	lr, r8, sp, lsr #6
    1fb0:	01860100 	orreq	r0, r6, r0, lsl #2
    1fb4:	0000002c 	andeq	r0, r0, ip, lsr #32
    1fb8:	2f090000 	svccs	0x00090000
    1fbc:	11000001 	tstne	r0, r1
    1fc0:	0a000011 	beq	200c <_start-0x5ff4>
    1fc4:	000000e2 	andeq	r0, r0, r2, ror #1
    1fc8:	0104000c 	tsteq	r4, ip
    1fcc:	30000011 	andcc	r0, r0, r1, lsl r0
    1fd0:	000001a3 	andeq	r0, r0, r3, lsr #3
    1fd4:	70014b01 	andvc	r4, r1, r1, lsl #22
    1fd8:	9400008a 	strls	r0, [r0], #-138	; 0x8a
    1fdc:	01000000 	mrseq	r0, (UNDEF: 0)
    1fe0:	0012879c 	mulseq	r2, ip, r7
    1fe4:	44533100 	ldrbmi	r3, [r3], #-256	; 0x100
    1fe8:	50010041 	andpl	r0, r1, r1, asr #32
    1fec:	00003301 	andeq	r3, r0, r1, lsl #6
    1ff0:	53310200 	teqpl	r1, #0, 4
    1ff4:	01004c43 	tsteq	r0, r3, asr #24
    1ff8:	00330151 	eorseq	r0, r3, r1, asr r1
    1ffc:	2c030000 	stccs	0, cr0, [r3], {-0}
    2000:	59010063 	stmdbpl	r1, {r0, r1, r5, r6}
    2004:	0009c301 	andeq	ip, r9, r1, lsl #6
    2008:	027e2800 	rsbseq	r2, lr, #0, 16
    200c:	12970000 	addsne	r0, r7, #0
    2010:	03050000 	movweq	r0, #20480	; 0x5000
    2014:	00009c44 	andeq	r9, r0, r4, asr #24
    2018:	00119029 	andseq	r9, r1, r9, lsr #32
    201c:	755f2a00 	ldrbvc	r2, [pc, #-2560]	; 1624 <_start-0x69dc>
    2020:	59010400 	stmdbpl	r1, {sl}
    2024:	00118501 	andseq	r8, r1, r1, lsl #10
    2028:	00762b00 	rsbseq	r2, r6, r0, lsl #22
    202c:	c3015901 	movwgt	r5, #6401	; 0x1901
    2030:	2b000009 	blcs	205c <_start-0x5fa4>
    2034:	59010075 	stmdbpl	r1, {r0, r2, r4, r5, r6}
    2038:	00002c01 	andeq	r2, r0, r1, lsl #24
    203c:	752c0000 	strvc	r0, [ip, #-0]!
    2040:	01590100 	cmpeq	r9, r0, lsl #2
    2044:	00001164 	andeq	r1, r0, r4, ror #2
    2048:	11c32900 	bicne	r2, r3, r0, lsl #18
    204c:	5f2a0000 	svcpl	0x002a0000
    2050:	01040075 	tsteq	r4, r5, ror r0
    2054:	11b8015b 			; <UNDEFINED> instruction: 0x11b8015b
    2058:	762b0000 	strtvc	r0, [fp], -r0
    205c:	5b010076 	blpl	4223c <__bss_end__+0x37ecc>
    2060:	0009c301 	andeq	ip, r9, r1, lsl #6
    2064:	75752b00 	ldrbvc	r2, [r5, #-2816]!	; 0xb00
    2068:	015b0100 	cmpeq	fp, r0, lsl #2
    206c:	0000006d 	andeq	r0, r0, sp, rrx
    2070:	00752c00 	rsbseq	r2, r5, r0, lsl #24
    2074:	95015b01 	strls	r5, [r1, #-2817]	; 0xb01
    2078:	00000011 	andeq	r0, r0, r1, lsl r0
    207c:	008a7832 	addeq	r7, sl, r2, lsr r8
    2080:	000b3000 	andeq	r3, fp, r0
    2084:	8a7c3200 	bhi	1f0e88c <__bss_end__+0x1f0451c>
    2088:	1b140000 	blne	502090 <__bss_end__+0x4f7d20>
    208c:	88330000 	ldmdahi	r3!, {}	; <UNPREDICTABLE>
    2090:	1f00008a 	svcne	0x0000008a
    2094:	ed00001b 	stc	0, cr0, [r0, #-108]	; 0xffffff94
    2098:	34000011 	strcc	r0, [r0], #-17
    209c:	32015001 	andcc	r5, r1, #1
    20a0:	01510134 	cmpeq	r1, r4, lsr r1
    20a4:	94330034 	ldrtls	r0, [r3], #-52	; 0x34
    20a8:	1f00008a 	svcne	0x0000008a
    20ac:	0500001b 	streq	r0, [r0, #-27]
    20b0:	34000012 	strcc	r0, [r0], #-18
    20b4:	33015001 	movwcc	r5, #4097	; 0x1001
    20b8:	01510134 	cmpeq	r1, r4, lsr r1
    20bc:	98320034 	ldmdals	r2!, {r2, r4, r5}
    20c0:	1400008a 	strne	r0, [r0], #-138	; 0x8a
    20c4:	3300001b 	movwcc	r0, #27
    20c8:	00008aa8 	andeq	r8, r0, r8, lsr #21
    20cc:	00001b2a 	andeq	r1, r0, sl, lsr #22
    20d0:	00001229 	andeq	r1, r0, r9, lsr #4
    20d4:	02500134 	subseq	r0, r0, #52, 2
    20d8:	01340074 	teqeq	r4, r4, ror r0
    20dc:	000a0351 	andeq	r0, sl, r1, asr r3
    20e0:	ac320080 	ldcge	0, cr0, [r2], #-512	; 0xfffffe00
    20e4:	1400008a 	strne	r0, [r0], #-138	; 0x8a
    20e8:	3200001b 	andcc	r0, r0, #27
    20ec:	00008ab0 			; <UNDEFINED> instruction: 0x00008ab0
    20f0:	00001958 	andeq	r1, r0, r8, asr r9
    20f4:	008ab432 	addeq	fp, sl, r2, lsr r4
    20f8:	001b1400 	andseq	r1, fp, r0, lsl #8
    20fc:	8ad43200 	bhi	ff50e904 <__bss_end__+0xff504594>
    2100:	1b350000 	blne	d42108 <__bss_end__+0xd37d98>
    2104:	e8330000 	ldmda	r3!, {}	; <UNPREDICTABLE>
    2108:	4000008a 	andmi	r0, r0, sl, lsl #1
    210c:	7d00001b 	stcvc	0, cr0, [r0, #-108]	; 0xffffff94
    2110:	34000012 	strcc	r0, [r0], #-18
    2114:	03055001 	movweq	r5, #20481	; 0x5001
    2118:	00009d9c 	muleq	r0, ip, sp
    211c:	05510134 	ldrbeq	r0, [r1, #-308]	; 0x134
    2120:	009c5003 	addseq	r5, ip, r3
    2124:	52013400 	andpl	r3, r1, #0, 8
    2128:	9c440305 	mcrrls	3, 0, r0, r4, cr5
    212c:	01340000 	teqeq	r4, r0
    2130:	620a0353 	andvs	r0, sl, #1275068417	; 0x4c000001
    2134:	ec320001 	ldc	0, cr0, [r2], #-4
    2138:	4b00008a 	blmi	2368 <_start-0x5c98>
    213c:	0000001b 	andeq	r0, r0, fp, lsl r0
    2140:	00012f09 	andeq	r2, r1, r9, lsl #30
    2144:	00129700 	andseq	r9, r2, r0, lsl #14
    2148:	00e20a00 	rsceq	r0, r2, r0, lsl #20
    214c:	00080000 	andeq	r0, r8, r0
    2150:	00128704 	andseq	r8, r2, r4, lsl #14
    2154:	09243000 	stmdbeq	r4!, {ip, sp}
    2158:	44010000 	strmi	r0, [r1], #-0
    215c:	008b0401 	addeq	r0, fp, r1, lsl #8
    2160:	00001800 	andeq	r1, r0, r0, lsl #16
    2164:	c59c0100 	ldrgt	r0, [ip, #256]	; 0x100
    2168:	32000012 	andcc	r0, r0, #18
    216c:	00008b0c 	andeq	r8, r0, ip, lsl #22
    2170:	000012c5 	andeq	r1, r0, r5, asr #5
    2174:	008b1832 	addeq	r1, fp, r2, lsr r8
    2178:	00111600 	andseq	r1, r1, r0, lsl #12
    217c:	2a350000 	bcs	d42184 <__bss_end__+0xd37e14>
    2180:	01000007 	tsteq	r0, r7
    2184:	00250141 	eoreq	r0, r5, r1, asr #2
    2188:	8a600000 	bhi	1802190 <__bss_end__+0x17f7e20>
    218c:	00100000 	andseq	r0, r0, r0
    2190:	9c010000 	stcls	0, cr0, [r1], {-0}
    2194:	00058436 	andeq	r8, r5, r6, lsr r4
    2198:	012e0100 	teqeq	lr, r0, lsl #2
    219c:	00000025 	andeq	r0, r0, r5, lsr #32
    21a0:	000089a0 	andeq	r8, r0, r0, lsr #19
    21a4:	000000c0 	andeq	r0, r0, r0, asr #1
    21a8:	13fe9c01 	mvnsne	r9, #256	; 0x100
    21ac:	77370000 	ldrvc	r0, [r7, -r0]!
    21b0:	01000005 	tsteq	r0, r5
    21b4:	002c012e 	eoreq	r0, ip, lr, lsr #2
    21b8:	058f0000 	streq	r0, [pc]	; 21c0 <_start-0x5e40>
    21bc:	ff370000 			; <UNDEFINED> instruction: 0xff370000
    21c0:	01000004 	tsteq	r0, r4
    21c4:	13fe012e 	mvnsne	r0, #-2147483637	; 0x8000000b
    21c8:	05b00000 	ldreq	r0, [r0, #0]!
    21cc:	cd370000 	ldcgt	0, cr0, [r7, #-0]
    21d0:	01000009 	tsteq	r0, r9
    21d4:	002c012e 	eoreq	r0, ip, lr, lsr #2
    21d8:	05ce0000 	strbeq	r0, [lr]
    21dc:	7e280000 	cdpvc	0, 2, cr0, cr8, cr0, {0}
    21e0:	97000002 	strls	r0, [r0, -r2]
    21e4:	05000012 	streq	r0, [r0, #-18]
    21e8:	009c3803 	addseq	r3, ip, r3, lsl #16
    21ec:	89b83800 	ldmibhi	r8!, {fp, ip, sp}
    21f0:	00880000 	addeq	r0, r8, r0
    21f4:	13d40000 	bicsne	r0, r4, #0
    21f8:	69390000 	ldmdbvs	r9!, {}	; <UNPREDICTABLE>
    21fc:	01320100 	teqeq	r2, r0, lsl #2
    2200:	0000002c 	andeq	r0, r0, ip, lsr #32
    2204:	000005ec 	andeq	r0, r0, ip, ror #11
    2208:	0089c432 	addeq	ip, r9, r2, lsr r4
    220c:	001b3500 	andseq	r3, fp, r0, lsl #10
    2210:	89d83300 	ldmibhi	r8, {r8, r9, ip, sp}^
    2214:	1b400000 	blne	100221c <__bss_end__+0xff7eac>
    2218:	13880000 	orrne	r0, r8, #0
    221c:	01340000 	teqeq	r4, r0
    2220:	48030550 	stmdami	r3, {r4, r6, r8, sl}
    2224:	3400009d 	strcc	r0, [r0], #-157	; 0x9d
    2228:	03055101 	movweq	r5, #20737	; 0x5101
    222c:	00009c50 	andeq	r9, r0, r0, asr ip
    2230:	05520134 	ldrbeq	r0, [r2, #-308]	; 0x134
    2234:	009c3803 	addseq	r3, ip, r3, lsl #16
    2238:	53013400 	movwpl	r3, #5120	; 0x1400
    223c:	01340a03 	teqeq	r4, r3, lsl #20
    2240:	89dc3200 	ldmibhi	ip, {r9, ip, sp}^
    2244:	1b4b0000 	blne	12c224c <__bss_end__+0x12b7edc>
    2248:	28320000 	ldmdacs	r2!, {}	; <UNPREDICTABLE>
    224c:	3500008a 	strcc	r0, [r0, #-138]	; 0x8a
    2250:	3300001b 	movwcc	r0, #27
    2254:	00008a3c 	andeq	r8, r0, ip, lsr sl
    2258:	00001b40 	andeq	r1, r0, r0, asr #22
    225c:	000013ca 	andeq	r1, r0, sl, asr #7
    2260:	05500134 	ldrbeq	r0, [r0, #-308]	; 0x134
    2264:	009d6c03 	addseq	r6, sp, r3, lsl #24
    2268:	51013400 	tstpl	r1, r0, lsl #8
    226c:	9c500305 	mrrcls	3, 0, r0, r0, cr5	; <UNPREDICTABLE>
    2270:	01340000 	teqeq	r4, r0
    2274:	38030552 	stmdacc	r3, {r1, r4, r6, r8, sl}
    2278:	3400009c 	strcc	r0, [r0], #-156	; 0x9c
    227c:	0a035301 	beq	d6e88 <__bss_end__+0xccb18>
    2280:	32000134 	andcc	r0, r0, #52, 2
    2284:	00008a40 	andeq	r8, r0, r0, asr #20
    2288:	00001b4b 	andeq	r1, r0, fp, asr #22
    228c:	89b83300 	ldmibhi	r8!, {r8, r9, ip, sp}
    2290:	16730000 	ldrbtne	r0, [r3], -r0
    2294:	13f40000 	mvnsne	r0, #0
    2298:	01340000 	teqeq	r4, r0
    229c:	01f30350 	mvnseq	r0, r0, asr r3
    22a0:	51013450 	tstpl	r1, r0, asr r4
    22a4:	34007402 	strcc	r7, [r0], #-1026	; 0x402
    22a8:	31015201 	tstcc	r1, r1, lsl #4
    22ac:	8a443200 	bhi	110eab4 <__bss_end__+0x1104744>
    22b0:	153c0000 	ldrne	r0, [ip, #-0]!
    22b4:	0e000000 	cdpeq	0, 0, cr0, cr0, cr0, {0}
    22b8:	00005404 	andeq	r5, r0, r4, lsl #8
    22bc:	026c3600 	rsbeq	r3, ip, #0, 12
    22c0:	1e010000 	cdpne	0, 0, cr0, cr1, cr0, {0}
    22c4:	00002501 	andeq	r2, r0, r1, lsl #10
    22c8:	0088dc00 	addeq	sp, r8, r0, lsl #24
    22cc:	0000c400 	andeq	ip, r0, r0, lsl #8
    22d0:	279c0100 	ldrcs	r0, [ip, r0, lsl #2]
    22d4:	37000015 	smladcc	r0, r5, r0, r0
    22d8:	00000577 	andeq	r0, r0, r7, ror r5
    22dc:	2c011e01 	stccs	14, cr1, [r1], {1}
    22e0:	21000000 	mrscs	r0, (UNDEF: 0)
    22e4:	37000006 	strcc	r0, [r0, -r6]
    22e8:	000004ff 	strdeq	r0, [r0], -pc	; <UNPREDICTABLE>
    22ec:	fe011e01 	cdp2	14, 0, cr1, cr1, cr1, {0}
    22f0:	42000013 	andmi	r0, r0, #19
    22f4:	37000006 	strcc	r0, [r0, -r6]
    22f8:	000009cd 	andeq	r0, r0, sp, asr #19
    22fc:	2c011e01 	stccs	14, cr1, [r1], {1}
    2300:	60000000 	andvs	r0, r0, r0
    2304:	28000006 	stmdacs	r0, {r1, r2}
    2308:	0000027e 	andeq	r0, r0, lr, ror r2
    230c:	00001537 	andeq	r1, r0, r7, lsr r5
    2310:	9c2c0305 	stcls	3, cr0, [ip], #-20	; 0xffffffec
    2314:	f4380000 			; <UNDEFINED> instruction: 0xf4380000
    2318:	88000088 	stmdahi	r0, {r3, r7}
    231c:	fd000000 	stc2	0, cr0, [r0, #-0]
    2320:	39000014 	stmdbcc	r0, {r2, r4}
    2324:	21010069 	tstcs	r1, r9, rrx
    2328:	00002c01 	andeq	r2, r0, r1, lsl #24
    232c:	00067e00 	andeq	r7, r6, r0, lsl #28
    2330:	89003200 	stmdbhi	r0, {r9, ip, sp}
    2334:	1b350000 	blne	d4233c <__bss_end__+0xd37fcc>
    2338:	14330000 	ldrtne	r0, [r3], #-0
    233c:	40000089 	andmi	r0, r0, r9, lsl #1
    2340:	b100001b 	tstlt	r0, fp, lsl r0
    2344:	34000014 	strcc	r0, [r0], #-20
    2348:	03055001 	movweq	r5, #20481	; 0x5001
    234c:	00009d48 	andeq	r9, r0, r8, asr #26
    2350:	05510134 	ldrbeq	r0, [r1, #-308]	; 0x134
    2354:	009c5003 	addseq	r5, ip, r3
    2358:	52013400 	andpl	r3, r1, #0, 8
    235c:	9c2c0305 	stcls	3, cr0, [ip], #-20	; 0xffffffec
    2360:	01340000 	teqeq	r4, r0
    2364:	230a0353 	movwcs	r0, #41811	; 0xa353
    2368:	18320001 	ldmdane	r2!, {r0}
    236c:	4b000089 	blmi	2598 <_start-0x5a68>
    2370:	3200001b 	andcc	r0, r0, #27
    2374:	00008964 	andeq	r8, r0, r4, ror #18
    2378:	00001b35 	andeq	r1, r0, r5, lsr fp
    237c:	00897833 	addeq	r7, r9, r3, lsr r8
    2380:	001b4000 	andseq	r4, fp, r0
    2384:	0014f300 	andseq	pc, r4, r0, lsl #6
    2388:	50013400 	andpl	r3, r1, r0, lsl #8
    238c:	9d6c0305 	stclls	3, cr0, [ip, #-20]!	; 0xffffffec
    2390:	01340000 	teqeq	r4, r0
    2394:	50030551 	andpl	r0, r3, r1, asr r5
    2398:	3400009c 	strcc	r0, [r0], #-156	; 0x9c
    239c:	03055201 	movweq	r5, #20993	; 0x5201
    23a0:	00009c2c 	andeq	r9, r0, ip, lsr #24
    23a4:	03530134 	cmpeq	r3, #52, 2
    23a8:	0001230a 	andeq	r2, r1, sl, lsl #6
    23ac:	00897c32 	addeq	r7, r9, r2, lsr ip
    23b0:	001b4b00 	andseq	r4, fp, r0, lsl #22
    23b4:	f4330000 			; <UNDEFINED> instruction: 0xf4330000
    23b8:	73000088 	movwvc	r0, #136	; 0x88
    23bc:	1d000016 	stcne	0, cr0, [r0, #-88]	; 0xffffffa8
    23c0:	34000015 	strcc	r0, [r0], #-21
    23c4:	f3035001 	vhadd.u8	d5, d3, d1
    23c8:	01345001 	teqeq	r4, r1
    23cc:	00740251 	rsbseq	r0, r4, r1, asr r2
    23d0:	01520134 	cmpeq	r2, r4, lsr r1
    23d4:	80320030 	eorshi	r0, r2, r0, lsr r0
    23d8:	3c000089 	stccc	0, cr0, [r0], {137}	; 0x89
    23dc:	00000015 	andeq	r0, r0, r5, lsl r0
    23e0:	00012f09 	andeq	r2, r1, r9, lsl #30
    23e4:	00153700 	andseq	r3, r5, r0, lsl #14
    23e8:	00e20a00 	rsceq	r0, r2, r0, lsl #20
    23ec:	00090000 	andeq	r0, r9, r0
    23f0:	00152704 	andseq	r2, r5, r4, lsl #14
    23f4:	0ba52700 	bleq	fe94bffc <__bss_end__+0xfe941c8c>
    23f8:	11010000 	mrsne	r0, (UNDEF: 1)
    23fc:	0085dc01 	addeq	sp, r5, r1, lsl #24
    2400:	0000f000 	andeq	pc, r0, r0
    2404:	739c0100 	orrsvc	r0, ip, #0, 2
    2408:	28000016 	stmdacs	r0, {r1, r2, r4}
    240c:	0000027e 	andeq	r0, r0, lr, ror r2
    2410:	00001297 	muleq	r0, r7, r2
    2414:	9c140305 	ldcls	3, cr0, [r4], {5}
    2418:	14320000 	ldrtne	r0, [r2], #-0
    241c:	35000086 	strcc	r0, [r0, #-134]	; 0x86
    2420:	3300001b 	movwcc	r0, #27
    2424:	00008628 	andeq	r8, r0, r8, lsr #12
    2428:	00001b40 	andeq	r1, r0, r0, asr #22
    242c:	0000159a 	muleq	r0, sl, r5
    2430:	05500134 	ldrbeq	r0, [r0, #-308]	; 0x134
    2434:	009d6c03 	addseq	r6, sp, r3, lsl #24
    2438:	51013400 	tstpl	r1, r0, lsl #8
    243c:	9c500305 	mrrcls	3, 0, r0, r0, cr5	; <UNPREDICTABLE>
    2440:	01340000 	teqeq	r4, r0
    2444:	14030552 	strne	r0, [r3], #-1362	; 0x552
    2448:	3400009c 	strcc	r0, [r0], #-156	; 0x9c
    244c:	0a035301 	beq	d7058 <__bss_end__+0xccce8>
    2450:	32000113 	andcc	r0, r0, #-1073741820	; 0xc0000004
    2454:	0000862c 	andeq	r8, r0, ip, lsr #12
    2458:	00001b4b 	andeq	r1, r0, fp, asr #22
    245c:	00863032 	addeq	r3, r6, r2, lsr r0
    2460:	001b3500 	andseq	r3, fp, r0, lsl #10
    2464:	86443300 	strbhi	r3, [r4], -r0, lsl #6
    2468:	1b400000 	blne	1002470 <__bss_end__+0xff8100>
    246c:	15dc0000 	ldrbne	r0, [ip]
    2470:	01340000 	teqeq	r4, r0
    2474:	48030550 	stmdami	r3, {r4, r6, r8, sl}
    2478:	3400009d 	strcc	r0, [r0], #-157	; 0x9d
    247c:	03055101 	movweq	r5, #20737	; 0x5101
    2480:	00009c50 	andeq	r9, r0, r0, asr ip
    2484:	05520134 	ldrbeq	r0, [r2, #-308]	; 0x134
    2488:	009c1403 	addseq	r1, ip, r3, lsl #8
    248c:	53013400 	movwpl	r3, #5120	; 0x1400
    2490:	01130a03 	tsteq	r3, r3, lsl #20
    2494:	86483200 	strbhi	r3, [r8], -r0, lsl #4
    2498:	1b4b0000 	blne	12c24a0 <__bss_end__+0x12b8130>
    249c:	6c320000 	ldcvs	0, cr0, [r2], #-0
    24a0:	14000086 	strne	r0, [r0], #-134	; 0x86
    24a4:	3200001b 	andcc	r0, r0, #27
    24a8:	00008674 	andeq	r8, r0, r4, ror r6
    24ac:	00001b35 	andeq	r1, r0, r5, lsr fp
    24b0:	00868833 	addeq	r8, r6, r3, lsr r8
    24b4:	001b4000 	andseq	r4, fp, r0
    24b8:	00162700 	andseq	r2, r6, r0, lsl #14
    24bc:	50013400 	andpl	r3, r1, r0, lsl #8
    24c0:	9d9c0305 	ldcls	3, cr0, [ip, #20]
    24c4:	01340000 	teqeq	r4, r0
    24c8:	50030551 	andpl	r0, r3, r1, asr r5
    24cc:	3400009c 	strcc	r0, [r0], #-156	; 0x9c
    24d0:	03055201 	movweq	r5, #20993	; 0x5201
    24d4:	00009c14 	andeq	r9, r0, r4, lsl ip
    24d8:	03530134 	cmpeq	r3, #52, 2
    24dc:	0001160a 	andeq	r1, r1, sl, lsl #12
    24e0:	00868c32 	addeq	r8, r6, r2, lsr ip
    24e4:	001b4b00 	andseq	r4, fp, r0, lsl #22
    24e8:	86903200 	ldrhi	r3, [r0], r0, lsl #4
    24ec:	1b350000 	blne	d424f4 <__bss_end__+0xd38184>
    24f0:	a4330000 	ldrtge	r0, [r3], #-0
    24f4:	40000086 	andmi	r0, r0, r6, lsl #1
    24f8:	6900001b 	stmdbvs	r0, {r0, r1, r3, r4}
    24fc:	34000016 	strcc	r0, [r0], #-22
    2500:	03055001 	movweq	r5, #20481	; 0x5001
    2504:	00009dc0 	andeq	r9, r0, r0, asr #27
    2508:	05510134 	ldrbeq	r0, [r1, #-308]	; 0x134
    250c:	009c5003 	addseq	r5, ip, r3
    2510:	52013400 	andpl	r3, r1, #0, 8
    2514:	9c140305 	ldcls	3, cr0, [r4], {5}
    2518:	01340000 	teqeq	r4, r0
    251c:	180a0353 	stmdane	sl, {r0, r1, r4, r6, r8, r9}
    2520:	a8320001 	ldmdage	r2!, {r0}
    2524:	4b000086 	blmi	2744 <_start-0x58bc>
    2528:	0000001b 	andeq	r0, r0, fp, lsl r0
    252c:	000b643a 	andeq	r6, fp, sl, lsr r4
    2530:	14ef0100 	strbtne	r0, [pc], #256	; 2538 <_start-0x5ac8>
    2534:	c8000087 	stmdagt	r0, {r0, r1, r2, r7}
    2538:	01000001 	tsteq	r0, r1
    253c:	0019439c 	mulseq	r9, ip, r3
    2540:	05773b00 	ldrbeq	r3, [r7, #-2816]!	; 0xb00
    2544:	ef010000 	svc	0x00010000
    2548:	0000002c 	andeq	r0, r0, ip, lsr #32
    254c:	000006b3 			; <UNDEFINED> instruction: 0x000006b3
    2550:	0009cd3b 	andeq	ip, r9, fp, lsr sp
    2554:	2cef0100 	stfcse	f0, [pc]	; 255c <_start-0x5aa4>
    2558:	d1000000 	mrsle	r0, (UNDEF: 0)
    255c:	3b000006 	blcc	257c <_start-0x5a84>
    2560:	000008b9 			; <UNDEFINED> instruction: 0x000008b9
    2564:	0025ef01 	eoreq	lr, r5, r1, lsl #30
    2568:	07160000 	ldreq	r0, [r6, -r0]
    256c:	7e280000 	cdpvc	0, 2, cr0, cr8, cr0, {0}
    2570:	53000002 	movwpl	r0, #2
    2574:	05000019 	streq	r0, [r0, #-25]
    2578:	009c2003 	addseq	r2, ip, r3
    257c:	00633900 	rsbeq	r3, r3, r0, lsl #18
    2580:	c3010201 	movwgt	r0, #4609	; 0x1201
    2584:	34000009 	strcc	r0, [r0], #-9
    2588:	29000007 	stmdbcs	r0, {r0, r1, r2}
    258c:	00001705 	andeq	r1, r0, r5, lsl #14
    2590:	00755f2a 	rsbseq	r5, r5, sl, lsr #30
    2594:	01060104 	tsteq	r6, r4, lsl #2
    2598:	000016fa 	strdeq	r1, [r0], -sl
    259c:	0076762b 	rsbseq	r7, r6, fp, lsr #12
    25a0:	c3010601 	movwgt	r0, #5633	; 0x1601
    25a4:	2b000009 	blcs	25d0 <_start-0x5a30>
    25a8:	01007575 	tsteq	r0, r5, ror r5
    25ac:	006d0106 	rsbeq	r0, sp, r6, lsl #2
    25b0:	2c000000 	stccs	0, cr0, [r0], {-0}
    25b4:	06010075 			; <UNDEFINED> instruction: 0x06010075
    25b8:	0016d701 	andseq	sp, r6, r1, lsl #14
    25bc:	28320000 	ldmdacs	r2!, {}	; <UNPREDICTABLE>
    25c0:	14000087 	strne	r0, [r0], #-135	; 0x87
    25c4:	3200001b 	andcc	r0, r0, #27
    25c8:	0000875c 	andeq	r8, r0, ip, asr r7
    25cc:	00001b35 	andeq	r1, r0, r5, lsr fp
    25d0:	00877033 	addeq	r7, r7, r3, lsr r0
    25d4:	001b4000 	andseq	r4, fp, r0
    25d8:	00174600 	andseq	r4, r7, r0, lsl #12
    25dc:	50013400 	andpl	r3, r1, r0, lsl #8
    25e0:	9d6c0305 	stclls	3, cr0, [ip, #-20]!	; 0xffffffec
    25e4:	01340000 	teqeq	r4, r0
    25e8:	50030551 	andpl	r0, r3, r1, asr r5
    25ec:	3400009c 	strcc	r0, [r0], #-156	; 0x9c
    25f0:	03055201 	movweq	r5, #20993	; 0x5201
    25f4:	00009c20 	andeq	r9, r0, r0, lsr #24
    25f8:	02530134 	subseq	r0, r3, #52, 2
    25fc:	3200f308 	andcc	pc, r0, #8, 6	; 0x20000000
    2600:	00008774 	andeq	r8, r0, r4, ror r7
    2604:	00001b4b 	andeq	r1, r0, fp, asr #22
    2608:	00877832 	addeq	r7, r7, r2, lsr r8
    260c:	001b3500 	andseq	r3, fp, r0, lsl #10
    2610:	878c3300 	strhi	r3, [ip, r0, lsl #6]
    2614:	1b400000 	blne	100261c <__bss_end__+0xff82ac>
    2618:	17870000 	strne	r0, [r7, r0]
    261c:	01340000 	teqeq	r4, r0
    2620:	48030550 	stmdami	r3, {r4, r6, r8, sl}
    2624:	3400009d 	strcc	r0, [r0], #-157	; 0x9d
    2628:	03055101 	movweq	r5, #20737	; 0x5101
    262c:	00009c50 	andeq	r9, r0, r0, asr ip
    2630:	05520134 	ldrbeq	r0, [r2, #-308]	; 0x134
    2634:	009c2003 	addseq	r2, ip, r3
    2638:	53013400 	movwpl	r3, #5120	; 0x1400
    263c:	00f30802 	rscseq	r0, r3, r2, lsl #16
    2640:	00879032 	addeq	r9, r7, r2, lsr r0
    2644:	001b4b00 	andseq	r4, fp, r0, lsl #22
    2648:	87a43200 	strhi	r3, [r4, r0, lsl #4]!
    264c:	19580000 	ldmdbne	r8, {}^	; <UNPREDICTABLE>
    2650:	b8330000 	ldmdalt	r3!, {}	; <UNPREDICTABLE>
    2654:	2a000087 	bcs	2878 <_start-0x5788>
    2658:	b600001b 			; <UNDEFINED> instruction: 0xb600001b
    265c:	34000017 	strcc	r0, [r0], #-23
    2660:	0c055001 	stceq	0, cr5, [r5], {1}
    2664:	2080400c 	addcs	r4, r0, ip
    2668:	02510134 	subseq	r0, r1, #52, 2
    266c:	33000076 	movwcc	r0, #118	; 0x76
    2670:	000087cc 	andeq	r8, r0, ip, asr #15
    2674:	00001b2a 	andeq	r1, r0, sl, lsr #22
    2678:	000017d3 	ldrdeq	r1, [r0], -r3
    267c:	05500134 	ldrbeq	r0, [r0, #-308]	; 0x134
    2680:	8040080c 	subhi	r0, r0, ip, lsl #16
    2684:	51013420 	tstpl	r1, r0, lsr #8
    2688:	00007502 	andeq	r7, r0, r2, lsl #10
    268c:	0087d833 	addeq	sp, r7, r3, lsr r8
    2690:	001a7100 	andseq	r7, sl, r0, lsl #2
    2694:	0017e700 	andseq	lr, r7, r0, lsl #14
    2698:	50013400 	andpl	r3, r1, r0, lsl #8
    269c:	00007502 	andeq	r7, r0, r2, lsl #10
    26a0:	0087f033 	addeq	pc, r7, r3, lsr r0	; <UNPREDICTABLE>
    26a4:	001b2a00 	andseq	r2, fp, r0, lsl #20
    26a8:	0017fb00 	andseq	pc, r7, r0, lsl #22
    26ac:	50013400 	andpl	r3, r1, r0, lsl #8
    26b0:	00007502 	andeq	r7, r0, r2, lsl #10
    26b4:	00882432 	addeq	r2, r8, r2, lsr r4
    26b8:	001b3500 	andseq	r3, fp, r0, lsl #10
    26bc:	88383300 	ldmdahi	r8!, {r8, r9, ip, sp}
    26c0:	1b400000 	blne	10026c8 <__bss_end__+0xff8358>
    26c4:	18340000 	ldmdane	r4!, {}	; <UNPREDICTABLE>
    26c8:	01340000 	teqeq	r4, r0
    26cc:	6c030550 	cfstr32vs	mvfx0, [r3], {80}	; 0x50
    26d0:	3400009d 	strcc	r0, [r0], #-157	; 0x9d
    26d4:	03055101 	movweq	r5, #20737	; 0x5101
    26d8:	00009c50 	andeq	r9, r0, r0, asr ip
    26dc:	05520134 	ldrbeq	r0, [r2, #-308]	; 0x134
    26e0:	009c2003 	addseq	r2, ip, r3
    26e4:	53013400 	movwpl	r3, #5120	; 0x1400
    26e8:	010e0a03 	tsteq	lr, r3, lsl #20
    26ec:	883c3200 	ldmdahi	ip!, {r9, ip, sp}
    26f0:	1b4b0000 	blne	12c26f8 <__bss_end__+0x12b8388>
    26f4:	40320000 	eorsmi	r0, r2, r0
    26f8:	35000088 	strcc	r0, [r0, #-136]	; 0x88
    26fc:	3300001b 	movwcc	r0, #27
    2700:	00008854 	andeq	r8, r0, r4, asr r8
    2704:	00001b40 	andeq	r1, r0, r0, asr #22
    2708:	00001875 	andeq	r1, r0, r5, ror r8
    270c:	05500134 	ldrbeq	r0, [r0, #-308]	; 0x134
    2710:	009de403 	addseq	lr, sp, r3, lsl #8
    2714:	51013400 	tstpl	r1, r0, lsl #8
    2718:	9c500305 	mrrcls	3, 0, r0, r0, cr5	; <UNPREDICTABLE>
    271c:	01340000 	teqeq	r4, r0
    2720:	20030552 	andcs	r0, r3, r2, asr r5
    2724:	3400009c 	strcc	r0, [r0], #-156	; 0x9c
    2728:	08025301 	stmdaeq	r2, {r0, r8, r9, ip, lr}
    272c:	583200f6 	ldmdapl	r2!, {r1, r2, r4, r5, r6, r7}
    2730:	4b000088 	blmi	2958 <_start-0x56a8>
    2734:	3200001b 	andcc	r0, r0, #27
    2738:	0000885c 	andeq	r8, r0, ip, asr r8
    273c:	00001b35 	andeq	r1, r0, r5, lsr fp
    2740:	00887033 	addeq	r7, r8, r3, lsr r0
    2744:	001b4000 	andseq	r4, fp, r0
    2748:	0018b600 	andseq	fp, r8, r0, lsl #12
    274c:	50013400 	andpl	r3, r1, r0, lsl #8
    2750:	9e0c0305 	cdpls	3, 0, cr0, cr12, cr5, {0}
    2754:	01340000 	teqeq	r4, r0
    2758:	50030551 	andpl	r0, r3, r1, asr r5
    275c:	3400009c 	strcc	r0, [r0], #-156	; 0x9c
    2760:	03055201 	movweq	r5, #20993	; 0x5201
    2764:	00009c20 	andeq	r9, r0, r0, lsr #24
    2768:	02530134 	subseq	r0, r3, #52, 2
    276c:	3200fb08 	andcc	pc, r0, #8, 22	; 0x2000
    2770:	00008874 	andeq	r8, r0, r4, ror r8
    2774:	00001b4b 	andeq	r1, r0, fp, asr #22
    2778:	00887832 	addeq	r7, r8, r2, lsr r8
    277c:	001b3500 	andseq	r3, fp, r0, lsl #10
    2780:	888c3300 	stmhi	ip, {r8, r9, ip, sp}
    2784:	1b400000 	blne	100278c <__bss_end__+0xff841c>
    2788:	18f70000 	ldmne	r7!, {}^	; <UNPREDICTABLE>
    278c:	01340000 	teqeq	r4, r0
    2790:	30030550 	andcc	r0, r3, r0, asr r5
    2794:	3400009e 	strcc	r0, [r0], #-158	; 0x9e
    2798:	03055101 	movweq	r5, #20737	; 0x5101
    279c:	00009c50 	andeq	r9, r0, r0, asr ip
    27a0:	05520134 	ldrbeq	r0, [r2, #-308]	; 0x134
    27a4:	009c2003 	addseq	r2, ip, r3
    27a8:	53013400 	movwpl	r3, #5120	; 0x1400
    27ac:	00ff0802 	rscseq	r0, pc, r2, lsl #16
    27b0:	00889032 	addeq	r9, r8, r2, lsr r0
    27b4:	001b4b00 	andseq	r4, fp, r0, lsl #22
    27b8:	88943200 	ldmhi	r4, {r9, ip, sp}
    27bc:	1b350000 	blne	d427c4 <__bss_end__+0xd38454>
    27c0:	a8330000 	ldmdage	r3!, {}	; <UNPREDICTABLE>
    27c4:	40000088 	andmi	r0, r0, r8, lsl #1
    27c8:	3900001b 	stmdbcc	r0, {r0, r1, r3, r4}
    27cc:	34000019 	strcc	r0, [r0], #-25
    27d0:	03055001 	movweq	r5, #20481	; 0x5001
    27d4:	00009d48 	andeq	r9, r0, r8, asr #26
    27d8:	05510134 	ldrbeq	r0, [r1, #-308]	; 0x134
    27dc:	009c5003 	addseq	r5, ip, r3
    27e0:	52013400 	andpl	r3, r1, #0, 8
    27e4:	9c200305 	stcls	3, cr0, [r0], #-20	; 0xffffffec
    27e8:	01340000 	teqeq	r4, r0
    27ec:	0e0a0353 	mcreq	3, 0, r0, cr10, cr3, {2}
    27f0:	ac320001 	ldcge	0, cr0, [r2], #-4
    27f4:	4b000088 	blmi	2a1c <_start-0x55e4>
    27f8:	0000001b 	andeq	r0, r0, fp, lsl r0
    27fc:	00012f09 	andeq	r2, r1, r9, lsl #30
    2800:	00195300 	andseq	r5, r9, r0, lsl #6
    2804:	00e20a00 	rsceq	r0, r2, r0, lsl #20
    2808:	000a0000 	andeq	r0, sl, r0
    280c:	00194304 	andseq	r4, r9, r4, lsl #6
    2810:	08fe3a00 	ldmeq	lr!, {r9, fp, ip, sp}^
    2814:	e4010000 	str	r0, [r1], #-0
    2818:	000086dc 	ldrdeq	r8, [r0], -ip
    281c:	00000028 	andeq	r0, r0, r8, lsr #32
    2820:	19ce9c01 	stmibne	lr, {r0, sl, fp, ip, pc}^
    2824:	733c0000 	teqvc	ip, #0
    2828:	80e50100 	rschi	r0, r5, r0, lsl #2
    282c:	4700000a 	strmi	r0, [r0, -sl]
    2830:	29000007 	stmdbcs	r0, {r0, r1, r2}
    2834:	000019a9 	andeq	r1, r0, r9, lsr #19
    2838:	00755f3d 	rsbseq	r5, r5, sp, lsr pc
    283c:	9fec0104 	svcls	0x00ec0104
    2840:	3e000019 	mcrcc	0, 0, r0, cr0, cr9, {0}
    2844:	01007676 	tsteq	r0, r6, ror r6
    2848:	000a80ec 	andeq	r8, sl, ip, ror #1
    284c:	75753e00 	ldrbvc	r3, [r5, #-3584]!	; 0xe00
    2850:	6dec0100 	stfvse	f0, [ip]
    2854:	00000000 	andeq	r0, r0, r0
    2858:	01007525 	tsteq	r0, r5, lsr #10
    285c:	00197fec 	andseq	r7, r9, ip, ror #31
    2860:	ec330000 	ldc	0, cr0, [r3], #-0
    2864:	ce000086 	cdpgt	0, 0, cr0, cr0, cr6, {4}
    2868:	bd000019 	stclt	0, cr0, [r0, #-100]	; 0xffffff9c
    286c:	34000019 	strcc	r0, [r0], #-25
    2870:	74025001 	strvc	r5, [r2], #-1
    2874:	fc3f0000 	ldc2	0, cr0, [pc], #-0	; 287c <_start-0x5784>
    2878:	2a000086 	bcs	2a98 <_start-0x5568>
    287c:	3400001b 	strcc	r0, [r0], #-27
    2880:	74025001 	strvc	r5, [r2], #-1
    2884:	40000000 	andmi	r0, r0, r0
    2888:	000008a3 	andeq	r0, r0, r3, lsr #17
    288c:	0a80b501 	beq	fe02fc98 <__bss_end__+0xfe025928>
    2890:	86cc0000 	strbhi	r0, [ip], r0
    2894:	00100000 	andseq	r0, r0, r0
    2898:	9c010000 	stcls	0, cr0, [r1], {-0}
    289c:	00001a44 	andeq	r1, r0, r4, asr #20
    28a0:	01007341 	tsteq	r0, r1, asr #6
    28a4:	001a44b5 			; <UNDEFINED> instruction: 0x001a44b5
    28a8:	00075a00 	andeq	r5, r7, r0, lsl #20
    28ac:	86d03800 	ldrbhi	r3, [r0], r0, lsl #16
    28b0:	00040000 	andeq	r0, r4, r0
    28b4:	1a3a0000 	bne	e828bc <__bss_end__+0xe7854c>
    28b8:	5f3d0000 	svcpl	0x003d0000
    28bc:	01040075 	tsteq	r4, r5, ror r0
    28c0:	001a1fb6 			; <UNDEFINED> instruction: 0x001a1fb6
    28c4:	00763e00 	rsbseq	r3, r6, r0, lsl #28
    28c8:	0a8bb601 	beq	fe2f00d4 <__bss_end__+0xfe2e5d64>
    28cc:	753e0000 	ldrvc	r0, [lr, #-0]!
    28d0:	2cb60100 	ldfcss	f0, [r6]
    28d4:	00000000 	andeq	r0, r0, r0
    28d8:	01007525 	tsteq	r0, r5, lsr #10
    28dc:	001a01b6 			; <UNDEFINED> instruction: 0x001a01b6
    28e0:	86d43f00 	ldrbhi	r3, [r4], r0, lsl #30
    28e4:	1b560000 	blne	15828ec <__bss_end__+0x157857c>
    28e8:	01340000 	teqeq	r4, r0
    28ec:	01f30350 	mvnseq	r0, r0, asr r3
    28f0:	32000050 	andcc	r0, r0, #80	; 0x50
    28f4:	000086d8 	ldrdeq	r8, [r0], -r8	; <UNPREDICTABLE>
    28f8:	00001a4a 	andeq	r1, r0, sl, asr #20
    28fc:	8b040e00 	blhi	106104 <__bss_end__+0xfbd94>
    2900:	4000000a 	andmi	r0, r0, sl
    2904:	00000c31 	andeq	r0, r0, r1, lsr ip
    2908:	0a80b101 	beq	fe02ed14 <__bss_end__+0xfe0249a4>
    290c:	85c80000 	strbhi	r0, [r8]
    2910:	000c0000 	andeq	r0, ip, r0
    2914:	9c010000 	stcls	0, cr0, [r1], {-0}
    2918:	00001a71 	andeq	r1, r0, r1, ror sl
    291c:	01007341 	tsteq	r0, r1, asr #6
    2920:	000a80b1 	strheq	r8, [sl], -r1
    2924:	00077b00 	andeq	r7, r7, r0, lsl #22
    2928:	59400000 	stmdbpl	r0, {}^	; <UNPREDICTABLE>
    292c:	01000008 	tsteq	r0, r8
    2930:	0009c37b 	andeq	ip, r9, fp, ror r3
    2934:	00870400 	addeq	r0, r7, r0, lsl #8
    2938:	00001000 	andeq	r1, r0, r0
    293c:	e79c0100 	ldr	r0, [ip, r0, lsl #2]
    2940:	4100001a 	tstmi	r0, sl, lsl r0
    2944:	7b010063 	blvc	42ad8 <__bss_end__+0x38768>
    2948:	00001ae7 	andeq	r1, r0, r7, ror #21
    294c:	0000078e 	andeq	r0, r0, lr, lsl #15
    2950:	00870838 	addeq	r0, r7, r8, lsr r8
    2954:	00000400 	andeq	r0, r0, r0, lsl #8
    2958:	001add00 	andseq	sp, sl, r0, lsl #26
    295c:	755f3d00 	ldrbvc	r3, [pc, #-3328]	; 1c64 <_start-0x639c>
    2960:	7c010400 	cfstrsvc	mvf0, [r1], {-0}
    2964:	00001ac2 	andeq	r1, r0, r2, asr #21
    2968:	0100763e 	tsteq	r0, lr, lsr r6
    296c:	0009ce7c 	andeq	ip, r9, ip, ror lr
    2970:	00753e00 	rsbseq	r3, r5, r0, lsl #28
    2974:	002c7c01 	eoreq	r7, ip, r1, lsl #24
    2978:	25000000 	strcs	r0, [r0, #-0]
    297c:	7c010075 	stcvc	0, cr0, [r1], {117}	; 0x75
    2980:	00001aa4 	andeq	r1, r0, r4, lsr #21
    2984:	00870c3f 	addeq	r0, r7, pc, lsr ip
    2988:	001b5600 	andseq	r5, fp, r0, lsl #12
    298c:	50013400 	andpl	r3, r1, r0, lsl #8
    2990:	5001f303 	andpl	pc, r1, r3, lsl #6
    2994:	10320000 	eorsne	r0, r2, r0
    2998:	ed000087 	stc	0, cr0, [r0, #-540]	; 0xfffffde4
    299c:	0000001a 	andeq	r0, r0, sl, lsl r0
    29a0:	09ce040e 	stmibeq	lr, {r1, r2, r3, sl}^
    29a4:	be400000 	cdplt	0, 4, cr0, cr0, cr0, {0}
    29a8:	0100000b 	tsteq	r0, fp
    29ac:	0009c374 	andeq	ip, r9, r4, ror r3
    29b0:	0085b400 	addeq	fp, r5, r0, lsl #8
    29b4:	00001400 	andeq	r1, r0, r0, lsl #8
    29b8:	149c0100 	ldrne	r0, [ip], #256	; 0x100
    29bc:	4100001b 	tstmi	r0, fp, lsl r0
    29c0:	74010063 	strvc	r0, [r1], #-99	; 0x63
    29c4:	000009c3 	andeq	r0, r0, r3, asr #19
    29c8:	000007af 	andeq	r0, r0, pc, lsr #15
    29cc:	01204200 	teqeq	r0, r0, lsl #4
    29d0:	01200000 	teqeq	r0, r0
    29d4:	89070000 	stmdbhi	r7, {}	; <UNPREDICTABLE>
    29d8:	0007b442 	andeq	fp, r7, r2, asr #8
    29dc:	0007b400 	andeq	fp, r7, r0, lsl #8
    29e0:	42190800 	andsmi	r0, r9, #0, 16
    29e4:	00000abd 			; <UNDEFINED> instruction: 0x00000abd
    29e8:	00000abd 			; <UNDEFINED> instruction: 0x00000abd
    29ec:	d2429c07 	suble	r9, r2, #1792	; 0x700
    29f0:	d2000001 	andle	r0, r0, #1
    29f4:	07000001 	streq	r0, [r0, -r1]
    29f8:	0cdd421e 	lfmeq	f4, 2, [sp], {30}
    29fc:	0cdd0000 	ldcleq	0, cr0, [sp], {0}
    2a00:	29070000 	stmdbcs	r7, {}	; <UNPREDICTABLE>
    2a04:	0005ea42 	andeq	lr, r5, r2, asr #20
    2a08:	0005ea00 	andeq	lr, r5, r0, lsl #20
    2a0c:	42650700 	rsbmi	r0, r5, #0, 14
    2a10:	00000b9f 	muleq	r0, pc, fp	; <UNPREDICTABLE>
    2a14:	00000b9f 	muleq	r0, pc, fp	; <UNPREDICTABLE>
    2a18:	9100a807 	tstls	r0, r7, lsl #16
    2a1c:	04000001 	streq	r0, [r0], #-1
    2a20:	00061800 	andeq	r1, r6, r0, lsl #16
    2a24:	83010400 	movwhi	r0, #5120	; 0x1400
    2a28:	0100000c 	tsteq	r0, ip
    2a2c:	00000c75 	andeq	r0, r0, r5, ror ip
    2a30:	00000cee 	andeq	r0, r0, lr, ror #25
    2a34:	00008b1c 	andeq	r8, r0, ip, lsl fp
    2a38:	00000058 	andeq	r0, r0, r8, asr r0
    2a3c:	000003f3 	strdeq	r0, [r0], -r3
    2a40:	000c6602 	andeq	r6, ip, r2, lsl #12
    2a44:	30280200 	eorcc	r0, r8, r0, lsl #4
    2a48:	03000000 	movweq	r0, #0
    2a4c:	00000ce4 	andeq	r0, r0, r4, ror #25
    2a50:	47000304 	strmi	r0, [r0, -r4, lsl #6]
    2a54:	04000000 	streq	r0, [r0], #-0
    2a58:	00000d32 	andeq	r0, r0, r2, lsr sp
    2a5c:	00000047 	andeq	r0, r0, r7, asr #32
    2a60:	04050000 	streq	r0, [r5], #-0
    2a64:	000ce602 	andeq	lr, ip, r2, lsl #12
    2a68:	25620200 	strbcs	r0, [r2, #-512]!	; 0x200
    2a6c:	06000000 	streq	r0, [r0], -r0
    2a70:	6e690504 	cdpvs	5, 6, cr0, cr9, cr4, {0}
    2a74:	04070074 	streq	r0, [r7], #-116	; 0x74
    2a78:	00008d07 	andeq	r8, r0, r7, lsl #26
    2a7c:	06010700 	streq	r0, [r1], -r0, lsl #14
    2a80:	00000377 	andeq	r0, r0, r7, ror r3
    2a84:	00050207 	andeq	r0, r5, r7, lsl #4
    2a88:	07000004 	streq	r0, [r0, -r4]
    2a8c:	00ce0504 	sbceq	r0, lr, r4, lsl #10
    2a90:	08070000 	stmdaeq	r7, {}	; <UNPREDICTABLE>
    2a94:	0000c905 	andeq	ip, r0, r5, lsl #18
    2a98:	08010700 	stmdaeq	r1, {r8, r9, sl}
    2a9c:	00000375 	andeq	r0, r0, r5, ror r3
    2aa0:	59070207 	stmdbpl	r7, {r0, r1, r2, r9}
    2aa4:	07000002 	streq	r0, [r0, -r2]
    2aa8:	00880704 	addeq	r0, r8, r4, lsl #14
    2aac:	08070000 	stmdaeq	r7, {}	; <UNPREDICTABLE>
    2ab0:	00008307 	andeq	r8, r0, r7, lsl #6
    2ab4:	07040700 	streq	r0, [r4, -r0, lsl #14]
    2ab8:	000002e4 	andeq	r0, r0, r4, ror #5
    2abc:	00a70408 	adceq	r0, r7, r8, lsl #8
    2ac0:	01070000 	mrseq	r0, (UNDEF: 7)
    2ac4:	00037e08 	andeq	r7, r3, r8, lsl #28
    2ac8:	b4040800 	strlt	r0, [r4], #-2048	; 0x800
    2acc:	09000000 	stmdbeq	r0, {}	; <UNPREDICTABLE>
    2ad0:	000000a7 	andeq	r0, r0, r7, lsr #1
    2ad4:	000cdd0a 	andeq	sp, ip, sl, lsl #26
    2ad8:	54060100 	strpl	r0, [r6], #-256	; 0x100
    2adc:	1c000000 	stcne	0, cr0, [r0], {-0}
    2ae0:	5800008b 	stmdapl	r0, {r0, r1, r3, r7}
    2ae4:	01000000 	mrseq	r0, (UNDEF: 0)
    2ae8:	0001439c 	muleq	r1, ip, r3
    2aec:	6d660b00 	vstmdbvs	r6!, {d16-d15}
    2af0:	06010074 			; <UNDEFINED> instruction: 0x06010074
    2af4:	000000ae 	andeq	r0, r0, lr, lsr #1
    2af8:	0c709102 	ldfeqp	f1, [r0], #-8
    2afc:	6675620d 	ldrbtvs	r6, [r5], -sp, lsl #4
    2b00:	43080100 	movwmi	r0, #33024	; 0x8100
    2b04:	05000001 	streq	r0, [r0, #-1]
    2b08:	009f6c03 	addseq	r6, pc, r3, lsl #24
    2b0c:	07910e00 	ldreq	r0, [r1, r0, lsl #28]
    2b10:	09010000 	stmdbeq	r1, {}	; <UNPREDICTABLE>
    2b14:	00000049 	andeq	r0, r0, r9, asr #32
    2b18:	0f5c9102 	svceq	0x005c9102
    2b1c:	01007a73 	tsteq	r0, r3, ror sl
    2b20:	0000540c 	andeq	r5, r0, ip, lsl #8
    2b24:	0007cd00 	andeq	ip, r7, r0, lsl #26
    2b28:	8b441000 	blhi	1106b30 <__bss_end__+0x10fc7c0>
    2b2c:	01740000 	cmneq	r4, r0
    2b30:	01360000 	teqeq	r6, r0
    2b34:	01110000 	tsteq	r1, r0
    2b38:	4c910253 	lfmmi	f0, 4, [r1], {83}	; 0x53
    2b3c:	03520111 	cmpeq	r2, #1073741828	; 0x40000004
    2b40:	11064891 			; <UNDEFINED> instruction: 0x11064891
    2b44:	0a035101 	beq	d6f50 <__bss_end__+0xccbe0>
    2b48:	01110400 	tsteq	r1, r0, lsl #8
    2b4c:	00740250 	rsbseq	r0, r4, r0, asr r2
    2b50:	8b581200 	blhi	1607358 <__bss_end__+0x15fcfe8>
    2b54:	01110000 	tsteq	r1, r0
    2b58:	00740250 	rsbseq	r0, r4, r0, asr r2
    2b5c:	a7130000 	ldrge	r0, [r3, -r0]
    2b60:	54000000 	strpl	r0, [r0], #-0
    2b64:	14000001 	strne	r0, [r0], #-1
    2b68:	0000009a 	muleq	r0, sl, r0
    2b6c:	150003ff 	strne	r0, [r0, #-1023]	; 0x3ff
    2b70:	00000054 	andeq	r0, r0, r4, asr r0
    2b74:	00000163 	andeq	r0, r0, r3, ror #2
    2b78:	0000ae16 	andeq	sl, r0, r6, lsl lr
    2b7c:	83170000 	tsthi	r7, #0
    2b80:	0400000d 	streq	r0, [r0], #-13
    2b84:	00016e22 	andeq	r6, r1, r2, lsr #28
    2b88:	54040800 	strpl	r0, [r4], #-2048	; 0x800
    2b8c:	18000001 	stmdane	r0, {r0}
    2b90:	00000cda 	ldrdeq	r0, [r0], -sl
    2b94:	00540205 	subseq	r0, r4, r5, lsl #4
    2b98:	a1160000 	tstge	r6, r0
    2b9c:	16000000 	strne	r0, [r0], -r0
    2ba0:	00000054 	andeq	r0, r0, r4, asr r0
    2ba4:	0000ae16 	andeq	sl, r0, r6, lsl lr
    2ba8:	00491600 	subeq	r1, r9, r0, lsl #12
    2bac:	00000000 	andeq	r0, r0, r0
    2bb0:	00000113 	andeq	r0, r0, r3, lsl r1
    2bb4:	07490004 	strbeq	r0, [r9, -r4]
    2bb8:	01040000 	mrseq	r0, (UNDEF: 4)
    2bbc:	00000c83 	andeq	r0, r0, r3, lsl #25
    2bc0:	000d5201 	andeq	r5, sp, r1, lsl #4
    2bc4:	000cee00 	andeq	lr, ip, r0, lsl #28
    2bc8:	008b7400 	addeq	r7, fp, r0, lsl #8
    2bcc:	00003c00 	andeq	r3, r0, r0, lsl #24
    2bd0:	0004f900 	andeq	pc, r4, r0, lsl #18
    2bd4:	05040200 	streq	r0, [r4, #-512]	; 0x200
    2bd8:	00746e69 	rsbseq	r6, r4, r9, ror #28
    2bdc:	8d070403 	cfstrshi	mvf0, [r7, #-12]
    2be0:	03000000 	movweq	r0, #0
    2be4:	03770601 	cmneq	r7, #1048576	; 0x100000
    2be8:	02030000 	andeq	r0, r3, #0
    2bec:	00040005 	andeq	r0, r4, r5
    2bf0:	05040300 	streq	r0, [r4, #-768]	; 0x300
    2bf4:	000000ce 	andeq	r0, r0, lr, asr #1
    2bf8:	c9050803 	stmdbgt	r5, {r0, r1, fp}
    2bfc:	03000000 	movweq	r0, #0
    2c00:	03750801 	cmneq	r5, #65536	; 0x10000
    2c04:	02030000 	andeq	r0, r3, #0
    2c08:	00025907 	andeq	r5, r2, r7, lsl #18
    2c0c:	07040300 	streq	r0, [r4, -r0, lsl #6]
    2c10:	00000088 	andeq	r0, r0, r8, lsl #1
    2c14:	83070803 	movwhi	r0, #30723	; 0x7803
    2c18:	03000000 	movweq	r0, #0
    2c1c:	02e40704 	rsceq	r0, r4, #4, 14	; 0x100000
    2c20:	01030000 	mrseq	r0, (UNDEF: 3)
    2c24:	00037e08 	andeq	r7, r3, r8, lsl #28
    2c28:	0d410400 	cfstrdeq	mvd0, [r1, #-0]
    2c2c:	03010000 	movweq	r0, #4096	; 0x1000
    2c30:	00000025 	andeq	r0, r0, r5, lsr #32
    2c34:	00008b74 	andeq	r8, r0, r4, ror fp
    2c38:	00000014 	andeq	r0, r0, r4, lsl r0
    2c3c:	00b09c01 	adcseq	r9, r0, r1, lsl #24
    2c40:	63050000 	movwvs	r0, #20480	; 0x5000
    2c44:	25030100 	strcs	r0, [r3, #-256]	; 0x100
    2c48:	f6000000 			; <UNDEFINED> instruction: 0xf6000000
    2c4c:	06000007 	streq	r0, [r0], -r7
    2c50:	00008b80 	andeq	r8, r0, r0, lsl #23
    2c54:	00000109 	andeq	r0, r0, r9, lsl #2
    2c58:	02500107 	subseq	r0, r0, #-1073741823	; 0xc0000001
    2c5c:	00000074 	andeq	r0, r0, r4, ror r0
    2c60:	0001d208 	andeq	sp, r1, r8, lsl #4
    2c64:	88080100 	stmdahi	r8, {r8}
    2c68:	1800008b 	stmdane	r0, {r0, r1, r3, r7}
    2c6c:	01000000 	mrseq	r0, (UNDEF: 0)
    2c70:	0d61099c 	stcleq	9, cr0, [r1, #-624]!	; 0xfffffd90
    2c74:	0b010000 	bleq	42c7c <__bss_end__+0x3890c>
    2c78:	00008ba0 	andeq	r8, r0, r0, lsr #23
    2c7c:	00000010 	andeq	r0, r0, r0, lsl r0
    2c80:	00e39c01 	rsceq	r9, r3, r1, lsl #24
    2c84:	660a0000 	strvs	r0, [sl], -r0
    2c88:	0b010070 	bleq	42e50 <__bss_end__+0x38ae0>
    2c8c:	000000f2 	strdeq	r0, [r0], -r2
    2c90:	0b005001 	bleq	16c9c <__bss_end__+0xc92c>
    2c94:	00000025 	andeq	r0, r0, r5, lsr #32
    2c98:	000000f2 	strdeq	r0, [r0], -r2
    2c9c:	0000250c 	andeq	r2, r0, ip, lsl #10
    2ca0:	040d0000 	streq	r0, [sp], #-0
    2ca4:	000000e3 	andeq	r0, r0, r3, ror #1
    2ca8:	0008920e 	andeq	r9, r8, lr, lsl #4
    2cac:	f2060100 	vrhadd.s8	d0, d6, d0
    2cb0:	05000000 	streq	r0, [r0, #-0]
    2cb4:	00998c03 	addseq	r8, r9, r3, lsl #24
    2cb8:	0d370f00 	ldceq	15, cr0, [r7, #-0]
    2cbc:	3c020000 	stccc	0, cr0, [r2], {-0}
    2cc0:	00002c0c 	andeq	r2, r0, ip, lsl #24
    2cc4:	ee000000 	cdp	0, 0, cr0, cr0, cr0, {0}
    2cc8:	04000000 	streq	r0, [r0], #-0
    2ccc:	00083100 	andeq	r3, r8, r0, lsl #2
    2cd0:	83010400 	movwhi	r0, #5120	; 0x1400
    2cd4:	0100000c 	tsteq	r0, ip
    2cd8:	00000d6e 	andeq	r0, r0, lr, ror #26
    2cdc:	00000cee 	andeq	r0, r0, lr, ror #25
    2ce0:	00008bb0 			; <UNDEFINED> instruction: 0x00008bb0
    2ce4:	00000034 	andeq	r0, r0, r4, lsr r0
    2ce8:	00000587 	andeq	r0, r0, r7, lsl #11
    2cec:	69050402 	stmdbvs	r5, {r1, sl}
    2cf0:	0300746e 	movweq	r7, #1134	; 0x46e
    2cf4:	008d0704 	addeq	r0, sp, r4, lsl #14
    2cf8:	01030000 	mrseq	r0, (UNDEF: 3)
    2cfc:	00037706 	andeq	r7, r3, r6, lsl #14
    2d00:	05020300 	streq	r0, [r2, #-768]	; 0x300
    2d04:	00000400 	andeq	r0, r0, r0, lsl #8
    2d08:	ce050403 	cdpgt	4, 0, cr0, cr5, cr3, {0}
    2d0c:	03000000 	movweq	r0, #0
    2d10:	00c90508 	sbceq	r0, r9, r8, lsl #10
    2d14:	01030000 	mrseq	r0, (UNDEF: 3)
    2d18:	00037508 	andeq	r7, r3, r8, lsl #10
    2d1c:	07020300 	streq	r0, [r2, -r0, lsl #6]
    2d20:	00000259 	andeq	r0, r0, r9, asr r2
    2d24:	88070403 	stmdahi	r7, {r0, r1, sl}
    2d28:	03000000 	movweq	r0, #0
    2d2c:	00830708 	addeq	r0, r3, r8, lsl #14
    2d30:	04030000 	streq	r0, [r3], #-0
    2d34:	0002e407 	andeq	lr, r2, r7, lsl #8
    2d38:	08010300 	stmdaeq	r1, {r8, r9}
    2d3c:	0000037e 	andeq	r0, r0, lr, ror r3
    2d40:	007f0404 	rsbseq	r0, pc, r4, lsl #8
    2d44:	72050000 	andvc	r0, r5, #0
    2d48:	06000000 	streq	r0, [r0], -r0
    2d4c:	00000d7a 	andeq	r0, r0, sl, ror sp
    2d50:	00250401 	eoreq	r0, r5, r1, lsl #8
    2d54:	8bb00000 	blhi	fec02d5c <__bss_end__+0xfebf89ec>
    2d58:	00340000 	eorseq	r0, r4, r0
    2d5c:	9c010000 	stcls	0, cr0, [r1], {-0}
    2d60:	000000ab 	andeq	r0, r0, fp, lsr #1
    2d64:	01007007 	tsteq	r0, r7
    2d68:	00007904 	andeq	r7, r0, r4, lsl #18
    2d6c:	00081400 	andeq	r1, r8, r0, lsl #8
    2d70:	25080000 	strcs	r0, [r8, #-0]
    2d74:	ba000000 	blt	2d7c <_start-0x5284>
    2d78:	09000000 	stmdbeq	r0, {}	; <UNPREDICTABLE>
    2d7c:	00000025 	andeq	r0, r0, r5, lsr #32
    2d80:	08920a00 	ldmeq	r2, {r9, fp}
    2d84:	1d020000 	stcne	0, cr0, [r2, #-0]
    2d88:	000000c5 	andeq	r0, r0, r5, asr #1
    2d8c:	00ab0404 	adceq	r0, fp, r4, lsl #8
    2d90:	25080000 	strcs	r0, [r8, #-0]
    2d94:	da000000 	ble	2d9c <_start-0x5264>
    2d98:	09000000 	stmdbeq	r0, {}	; <UNPREDICTABLE>
    2d9c:	00000079 	andeq	r0, r0, r9, ror r0
    2da0:	0d830b00 	vstreq	d0, [r3]
    2da4:	0c010000 	stceq	0, cr0, [r1], {-0}
    2da8:	000000eb 	andeq	r0, r0, fp, ror #1
    2dac:	99900305 	ldmibls	r0, {r0, r2, r8, r9}
    2db0:	04040000 	streq	r0, [r4], #-0
    2db4:	000000cb 	andeq	r0, r0, fp, asr #1
    2db8:	00068100 	andeq	r8, r6, r0, lsl #2
    2dbc:	ca000400 	bgt	3dc4 <_start-0x423c>
    2dc0:	04000008 	streq	r0, [r0], #-8
    2dc4:	000c8301 	andeq	r8, ip, r1, lsl #6
    2dc8:	0daf0100 	stfeqs	f0, [pc]	; 2dd0 <_start-0x5230>
    2dcc:	0cee0000 	stcleq	0, cr0, [lr]
    2dd0:	8be40000 	blhi	ff902dd8 <__bss_end__+0xff8f8a68>
    2dd4:	04f80000 	ldrbteq	r0, [r8], #0
    2dd8:	06210000 	strteq	r0, [r1], -r0
    2ddc:	04020000 	streq	r0, [r2], #-0
    2de0:	746e6905 	strbtvc	r6, [lr], #-2309	; 0x905
    2de4:	07040300 	streq	r0, [r4, -r0, lsl #6]
    2de8:	0000008d 	andeq	r0, r0, sp, lsl #1
    2dec:	77060103 	strvc	r0, [r6, -r3, lsl #2]
    2df0:	03000003 	movweq	r0, #3
    2df4:	04000502 	streq	r0, [r0], #-1282	; 0x502
    2df8:	04030000 	streq	r0, [r3], #-0
    2dfc:	0000ce05 	andeq	ip, r0, r5, lsl #28
    2e00:	05080300 	streq	r0, [r8, #-768]	; 0x300
    2e04:	000000c9 	andeq	r0, r0, r9, asr #1
    2e08:	75080103 	strvc	r0, [r8, #-259]	; 0x103
    2e0c:	03000003 	movweq	r0, #3
    2e10:	02590702 	subseq	r0, r9, #524288	; 0x80000
    2e14:	04030000 	streq	r0, [r3], #-0
    2e18:	00008807 	andeq	r8, r0, r7, lsl #16
    2e1c:	07080300 	streq	r0, [r8, -r0, lsl #6]
    2e20:	00000083 	andeq	r0, r0, r3, lsl #1
    2e24:	e4070403 	str	r0, [r7], #-1027	; 0x403
    2e28:	04000002 	streq	r0, [r0], #-2
    2e2c:	7a040504 	bvc	104244 <__bss_end__+0xf9ed4>
    2e30:	03000000 	movweq	r0, #0
    2e34:	037e0801 	cmneq	lr, #65536	; 0x10000
    2e38:	04050000 	streq	r0, [r5], #-0
    2e3c:	00000087 	andeq	r0, r0, r7, lsl #1
    2e40:	00007a06 	andeq	r7, r0, r6, lsl #20
    2e44:	0c660700 	stcleq	7, cr0, [r6], #-0
    2e48:	28020000 	stmdacs	r2, {}	; <UNPREDICTABLE>
    2e4c:	00000097 	muleq	r0, r7, r0
    2e50:	000ce408 	andeq	lr, ip, r8, lsl #8
    2e54:	00040400 	andeq	r0, r4, r0, lsl #8
    2e58:	000000ae 	andeq	r0, r0, lr, lsr #1
    2e5c:	000d3209 	andeq	r3, sp, r9, lsl #4
    2e60:	00007200 	andeq	r7, r0, r0, lsl #4
    2e64:	07000000 	streq	r0, [r0, -r0]
    2e68:	00000ce6 	andeq	r0, r0, r6, ror #25
    2e6c:	008c6202 	addeq	r6, ip, r2, lsl #4
    2e70:	960a0000 	strls	r0, [sl], -r0
    2e74:	0100000d 	tsteq	r0, sp
    2e78:	00002527 	andeq	r2, r0, r7, lsr #10
    2e7c:	008be400 	addeq	lr, fp, r0, lsl #8
    2e80:	00001400 	andeq	r1, r0, r0, lsl #8
    2e84:	e09c0100 	adds	r0, ip, r0, lsl #2
    2e88:	0b000000 	bleq	2e90 <_start-0x5170>
    2e8c:	27010063 	strcs	r0, [r1, -r3, rrx]
    2e90:	00000025 	andeq	r0, r0, r5, lsr #32
    2e94:	00000832 	andeq	r0, r0, r2, lsr r8
    2e98:	61700c00 	cmnvs	r0, r0, lsl #24
    2e9c:	2e010064 	cdpcs	0, 0, cr0, cr1, cr4, {3}
    2ea0:	00000074 	andeq	r0, r0, r4, ror r0
    2ea4:	00008bf8 	strdeq	r8, [r0], -r8	; <UNPREDICTABLE>
    2ea8:	0000002c 	andeq	r0, r0, ip, lsr #32
    2eac:	01309c01 	teqeq	r0, r1, lsl #24
    2eb0:	700b0000 	andvc	r0, fp, r0
    2eb4:	742e0100 	strtvc	r0, [lr], #-256	; 0x100
    2eb8:	60000000 	andvs	r0, r0, r0
    2ebc:	0d000008 	stceq	0, cr0, [r0, #-32]	; 0xffffffe0
    2ec0:	0000076a 	andeq	r0, r0, sl, ror #14
    2ec4:	00742e01 	rsbseq	r2, r4, r1, lsl #28
    2ec8:	088b0000 	stmeq	fp, {}	; <UNPREDICTABLE>
    2ecc:	cf0e0000 	svcgt	0x000e0000
    2ed0:	0100000d 	tsteq	r0, sp
    2ed4:	0000252e 	andeq	r2, r0, lr, lsr #10
    2ed8:	0f520100 	svceq	0x00520100
    2edc:	006e656c 	rsbeq	r6, lr, ip, ror #10
    2ee0:	00252f01 	eoreq	r2, r5, r1, lsl #30
    2ee4:	51010000 	mrspl	r0, (UNDEF: 1)
    2ee8:	0d8e0a00 	vstreq	s0, [lr]
    2eec:	37010000 	strcc	r0, [r1, -r0]
    2ef0:	00000074 	andeq	r0, r0, r4, ror r0
    2ef4:	00008c24 	andeq	r8, r0, r4, lsr #24
    2ef8:	00000040 	andeq	r0, r0, r0, asr #32
    2efc:	019c9c01 	orrseq	r9, ip, r1, lsl #24
    2f00:	640b0000 	strvs	r0, [fp], #-0
    2f04:	01007473 	tsteq	r0, r3, ror r4
    2f08:	00007437 	andeq	r7, r0, r7, lsr r4
    2f0c:	0008ac00 	andeq	sl, r8, r0, lsl #24
    2f10:	006e0b00 	rsbeq	r0, lr, r0, lsl #22
    2f14:	00253701 	eoreq	r3, r5, r1, lsl #14
    2f18:	08e40000 	stmiaeq	r4!, {}^	; <UNPREDICTABLE>
    2f1c:	700b0000 	andvc	r0, fp, r0
    2f20:	74370100 	ldrtvc	r0, [r7], #-256	; 0x100
    2f24:	05000000 	streq	r0, [r0, #-0]
    2f28:	0d000009 	stceq	0, cr0, [r0, #-36]	; 0xffffffdc
    2f2c:	00000b69 	andeq	r0, r0, r9, ror #22
    2f30:	00743701 	rsbseq	r3, r4, r1, lsl #14
    2f34:	093b0000 	ldmdbeq	fp!, {}	; <UNPREDICTABLE>
    2f38:	6c100000 	ldcvs	0, cr0, [r0], {-0}
    2f3c:	01006e65 	tsteq	r0, r5, ror #28
    2f40:	00002539 	andeq	r2, r0, r9, lsr r5
    2f44:	00095900 	andeq	r5, r9, r0, lsl #18
    2f48:	00730f00 	rsbseq	r0, r3, r0, lsl #30
    2f4c:	00743d01 	rsbseq	r3, r4, r1, lsl #26
    2f50:	50010000 	andpl	r0, r1, r0
    2f54:	0ddd0a00 	vldreq	s1, [sp]
    2f58:	47010000 	strmi	r0, [r1, -r0]
    2f5c:	00000074 	andeq	r0, r0, r4, ror r0
    2f60:	00008c64 	andeq	r8, r0, r4, ror #24
    2f64:	0000019c 	muleq	r0, ip, r1
    2f68:	02d39c01 	sbcseq	r9, r3, #256	; 0x100
    2f6c:	6a0d0000 	bvs	342f74 <__bss_end__+0x338c04>
    2f70:	01000007 	tsteq	r0, r7
    2f74:	00002c47 	andeq	r2, r0, r7, asr #24
    2f78:	00098000 	andeq	r8, r9, r0
    2f7c:	73640b00 	cmnvc	r4, #0, 22
    2f80:	47010074 	smlsdxmi	r1, r4, r0, r0
    2f84:	00000074 	andeq	r0, r0, r4, ror r0
    2f88:	000009ae 	andeq	r0, r0, lr, lsr #19
    2f8c:	01006e0b 	tsteq	r0, fp, lsl #28
    2f90:	00002547 	andeq	r2, r0, r7, asr #10
    2f94:	000a1c00 	andeq	r1, sl, r0, lsl #24
    2f98:	61760b00 	cmnvs	r6, r0, lsl #22
    2f9c:	4701006c 	strmi	r0, [r1, -ip, rrx]
    2fa0:	00000025 	andeq	r0, r0, r5, lsr #32
    2fa4:	00000a48 	andeq	r0, r0, r8, asr #20
    2fa8:	000dcf0d 	andeq	ip, sp, sp, lsl #30
    2fac:	25470100 	strbcs	r0, [r7, #-256]	; 0x100
    2fb0:	c7000000 	strgt	r0, [r0, -r0]
    2fb4:	0e00000a 	cdpeq	0, 0, cr0, cr0, cr10, {0}
    2fb8:	00000da6 	andeq	r0, r0, r6, lsr #27
    2fbc:	00254701 	eoreq	r4, r5, r1, lsl #14
    2fc0:	91020000 	mrsls	r0, (UNDEF: 2)
    2fc4:	75620f04 	strbvc	r0, [r2, #-3844]!	; 0xf04
    2fc8:	4c010066 	stcmi	0, cr0, [r1], {102}	; 0x66
    2fcc:	000002d3 	ldrdeq	r0, [r0], -r3
    2fd0:	7fa89103 	svcvc	0x00a89103
    2fd4:	01007010 	tsteq	r0, r0, lsl r0
    2fd8:	0000744c 	andeq	r7, r0, ip, asr #8
    2fdc:	000af100 	andeq	pc, sl, r0, lsl #2
    2fe0:	00751000 	rsbseq	r1, r5, r0
    2fe4:	002c4d01 	eoreq	r4, ip, r1, lsl #26
    2fe8:	0b960000 	bleq	fe582ff0 <__bss_end__+0xfe578c80>
    2fec:	7e110000 	cdpvc	0, 1, cr0, cr1, cr0, {0}
    2ff0:	f3000002 	vhadd.u8	d0, d0, d2
    2ff4:	05000002 	streq	r0, [r0, #-2]
    2ff8:	009e5803 	addseq	r5, lr, r3, lsl #16
    2ffc:	8cd01200 	lfmhi	f1, 2, [r0], {0}
    3000:	00740000 	rsbseq	r0, r4, r0
    3004:	02610000 	rsbeq	r0, r1, #0
    3008:	88130000 	ldmdahi	r3, {}	; <UNPREDICTABLE>
    300c:	0100000d 	tsteq	r0, sp
    3010:	00002c52 	andeq	r2, r0, r2, asr ip
    3014:	000c9b00 	andeq	r9, ip, r0, lsl #22
    3018:	a4140000 	ldrge	r0, [r4], #-0
    301c:	6000008d 	andvs	r0, r0, sp, lsl #1
    3020:	15000006 	strne	r0, [r0, #-6]
    3024:	00008db8 			; <UNDEFINED> instruction: 0x00008db8
    3028:	00000667 	andeq	r0, r0, r7, ror #12
    302c:	00000299 	muleq	r0, r9, r2
    3030:	02530116 	subseq	r0, r3, #-2147483643	; 0x80000005
    3034:	01167508 	tsteq	r6, r8, lsl #10
    3038:	58030552 	stmdapl	r3, {r1, r4, r6, r8, sl}
    303c:	1600009e 			; <UNDEFINED> instruction: 0x1600009e
    3040:	03055101 	movweq	r5, #20737	; 0x5101
    3044:	00009e90 	muleq	r0, r0, lr
    3048:	05500116 	ldrbeq	r0, [r0, #-278]	; 0x116
    304c:	009e7c03 	addseq	r7, lr, r3, lsl #24
    3050:	bc140000 	ldclt	0, cr0, [r4], {-0}
    3054:	7d00008d 	stcvc	0, cr0, [r0, #-564]	; 0xfffffdcc
    3058:	15000006 	strne	r0, [r0, #-6]
    305c:	00008dc8 	andeq	r8, r0, r8, asr #27
    3060:	000000e0 	andeq	r0, r0, r0, ror #1
    3064:	000002b6 			; <UNDEFINED> instruction: 0x000002b6
    3068:	02510116 	subseq	r0, r1, #-2147483643	; 0x80000005
    306c:	1700007d 	smlsdxne	r0, sp, r0, r0
    3070:	00008ddc 	ldrdeq	r8, [r0], -ip
    3074:	00000130 	andeq	r0, r0, r0, lsr r1
    3078:	02530116 	subseq	r0, r3, #-2147483643	; 0x80000005
    307c:	0116007d 	tsteq	r6, sp, ror r0
    3080:	00740251 	rsbseq	r0, r4, r1, asr r2
    3084:	02500116 	subseq	r0, r0, #-2147483643	; 0x80000005
    3088:	00000075 	andeq	r0, r0, r5, ror r0
    308c:	00007a18 	andeq	r7, r0, r8, lsl sl
    3090:	0002e300 	andeq	lr, r2, r0, lsl #6
    3094:	006b1900 	rsbeq	r1, fp, r0, lsl #18
    3098:	003f0000 	eorseq	r0, pc, r0
    309c:	00007a18 	andeq	r7, r0, r8, lsl sl
    30a0:	0002f300 	andeq	pc, r2, r0, lsl #6
    30a4:	006b1900 	rsbeq	r1, fp, r0, lsl #18
    30a8:	00040000 	andeq	r0, r4, r0
    30ac:	0002e306 	andeq	lr, r2, r6, lsl #6
    30b0:	0dc01a00 	vstreq	s3, [r0]
    30b4:	1f010000 	svcne	0x00010000
    30b8:	00008e00 	andeq	r8, r0, r0, lsl #28
    30bc:	00000054 	andeq	r0, r0, r4, asr r0
    30c0:	037c9c01 	cmneq	ip, #256	; 0x100
    30c4:	d50d0000 	strle	r0, [sp, #-0]
    30c8:	0100000d 	tsteq	r0, sp
    30cc:	00038b1f 	andeq	r8, r3, pc, lsl fp
    30d0:	000cc700 	andeq	ip, ip, r0, lsl #14
    30d4:	0d9e0d00 	ldceq	13, cr0, [lr]
    30d8:	1f010000 	svcne	0x00010000
    30dc:	000003a0 	andeq	r0, r0, r0, lsr #7
    30e0:	00000cf3 	strdeq	r0, [r0], -r3
    30e4:	00027e11 	andeq	r7, r2, r1, lsl lr
    30e8:	0003b600 	andeq	fp, r3, r0, lsl #12
    30ec:	60030500 	andvs	r0, r3, r0, lsl #10
    30f0:	1400009e 	strne	r0, [r0], #-158	; 0x9e
    30f4:	00008e10 	andeq	r8, r0, r0, lsl lr
    30f8:	00000660 	andeq	r0, r0, r0, ror #12
    30fc:	008e2415 	addeq	r2, lr, r5, lsl r4
    3100:	00066700 	andeq	r6, r6, r0, lsl #14
    3104:	00037200 	andeq	r7, r3, r0, lsl #4
    3108:	53011600 	movwpl	r1, #5632	; 0x1600
    310c:	16200802 	strtne	r0, [r0], -r2, lsl #16
    3110:	03055201 	movweq	r5, #20993	; 0x5201
    3114:	00009e60 	andeq	r9, r0, r0, ror #28
    3118:	05510116 	ldrbeq	r0, [r1, #-278]	; 0x116
    311c:	009e9003 	addseq	r9, lr, r3
    3120:	50011600 	andpl	r1, r1, r0, lsl #12
    3124:	9ec80305 	cdpls	3, 12, cr0, cr8, cr5, {0}
    3128:	14000000 	strne	r0, [r0], #-0
    312c:	00008e28 	andeq	r8, r0, r8, lsr #28
    3130:	0000067d 	andeq	r0, r0, sp, ror r6
    3134:	00251b00 	eoreq	r1, r5, r0, lsl #22
    3138:	038b0000 	orreq	r0, fp, #0
    313c:	251c0000 	ldrcs	r0, [ip, #-0]
    3140:	00000000 	andeq	r0, r0, r0
    3144:	037c0405 	cmneq	ip, #83886080	; 0x5000000
    3148:	251b0000 	ldrcs	r0, [fp, #-0]
    314c:	a0000000 	andge	r0, r0, r0
    3150:	1c000003 	stcne	0, cr0, [r0], {3}
    3154:	00000081 	andeq	r0, r0, r1, lsl #1
    3158:	91040500 	tstls	r4, r0, lsl #10
    315c:	18000003 	stmdane	r0, {r0, r1}
    3160:	0000007a 	andeq	r0, r0, sl, ror r0
    3164:	000003b6 			; <UNDEFINED> instruction: 0x000003b6
    3168:	00006b19 	andeq	r6, r0, r9, lsl fp
    316c:	06000e00 	streq	r0, [r0], -r0, lsl #28
    3170:	000003a6 	andeq	r0, r0, r6, lsr #7
    3174:	000cda1d 	andeq	sp, ip, sp, lsl sl
    3178:	257d0100 	ldrbcs	r0, [sp, #-256]!	; 0x100
    317c:	54000000 	strpl	r0, [r0], #-0
    3180:	8800008e 	stmdahi	r0, {r1, r2, r3, r7}
    3184:	01000002 	tsteq	r0, r2
    3188:	0006259c 	muleq	r6, ip, r5
    318c:	75620b00 	strbvc	r0, [r2, #-2816]!	; 0xb00
    3190:	7d010066 	stcvc	0, cr0, [r1, #-408]	; 0xfffffe68
    3194:	00000074 	andeq	r0, r0, r4, ror r0
    3198:	00000d1f 	andeq	r0, r0, pc, lsl sp
    319c:	01006e0b 	tsteq	r0, fp, lsl #28
    31a0:	0000257d 	andeq	r2, r0, sp, ror r5
    31a4:	000d4b00 	andeq	r4, sp, r0, lsl #22
    31a8:	6d660b00 	vstmdbvs	r6!, {d16-d15}
    31ac:	7d010074 	stcvc	0, cr0, [r1, #-464]	; 0xfffffe30
    31b0:	00000081 	andeq	r0, r0, r1, lsl #1
    31b4:	00000d79 	andeq	r0, r0, r9, ror sp
    31b8:	0007910d 	andeq	r9, r7, sp, lsl #2
    31bc:	ae7d0100 	rpwgee	f0, f5, f0
    31c0:	ad000000 	stcge	0, cr0, [r0, #-0]
    31c4:	1000000d 	andne	r0, r0, sp
    31c8:	7e010070 	mcrvc	0, 0, r0, cr1, cr0, {3}
    31cc:	00000074 	andeq	r0, r0, r4, ror r0
    31d0:	00000dc0 	andeq	r0, r0, r0, asr #27
    31d4:	01006510 	tsteq	r0, r0, lsl r5
    31d8:	0000747e 	andeq	r7, r0, lr, ror r4
    31dc:	000e3e00 	andeq	r3, lr, r0, lsl #28
    31e0:	027e1100 	rsbseq	r1, lr, #0, 2
    31e4:	06350000 	ldrteq	r0, [r5], -r0
    31e8:	03050000 	movweq	r0, #20480	; 0x5000
    31ec:	00009e70 	andeq	r9, r0, r0, ror lr
    31f0:	0000181e 	andeq	r1, r0, lr, lsl r8
    31f4:	00731000 	rsbseq	r1, r3, r0
    31f8:	00748b01 	rsbseq	r8, r4, r1, lsl #22
    31fc:	0e650000 	cdpeq	0, 6, cr0, cr5, cr0, {0}
    3200:	6e0f0000 	cdpvs	0, 0, cr0, cr15, cr0, {0}
    3204:	01006d75 	tsteq	r0, r5, ror sp
    3208:	00063a8b 	andeq	r3, r6, fp, lsl #21
    320c:	d8910300 	ldmle	r1, {r8, r9}
    3210:	0dcf137e 	stcleq	3, cr1, [pc, #504]	; 3410 <_start-0x4bf0>
    3214:	8c010000 	stchi	0, cr0, [r1], {-0}
    3218:	0000002c 	andeq	r0, r0, ip, lsr #32
    321c:	00000eba 			; <UNDEFINED> instruction: 0x00000eba
    3220:	008ed815 	addeq	sp, lr, r5, lsl r8
    3224:	0000b900 	andeq	fp, r0, r0, lsl #18
    3228:	00047b00 	andeq	r7, r4, r0, lsl #22
    322c:	50011600 	andpl	r1, r1, r0, lsl #12
    3230:	00007502 	andeq	r7, r0, r2, lsl #10
    3234:	008eec14 	addeq	lr, lr, r4, lsl ip
    3238:	00066000 	andeq	r6, r6, r0
    323c:	8f001500 	svchi	0x00001500
    3240:	06670000 	strbteq	r0, [r7], -r0
    3244:	04b30000 	ldrteq	r0, [r3], #0
    3248:	01160000 	tsteq	r6, r0
    324c:	92080253 	andls	r0, r8, #805306373	; 0x30000005
    3250:	05520116 	ldrbeq	r0, [r2, #-278]	; 0x116
    3254:	009e7003 	addseq	r7, lr, r3
    3258:	51011600 	tstpl	r1, r0, lsl #12
    325c:	9e900305 	cdpls	3, 9, cr0, cr0, cr5, {0}
    3260:	01160000 	tsteq	r6, r0
    3264:	e0030550 	and	r0, r3, r0, asr r5
    3268:	0000009e 	muleq	r0, lr, r0
    326c:	008f0414 	addeq	r0, pc, r4, lsl r4	; <UNPREDICTABLE>
    3270:	00067d00 	andeq	r7, r6, r0, lsl #26
    3274:	8f741400 	svchi	0x00741400
    3278:	06600000 	strbteq	r0, [r0], -r0
    327c:	88150000 	ldmdahi	r5, {}	; <UNPREDICTABLE>
    3280:	6700008f 	strvs	r0, [r0, -pc, lsl #1]
    3284:	f4000006 	vst4.8	{d0-d3}, [r0], r6
    3288:	16000004 	strne	r0, [r0], -r4
    328c:	08025301 	stmdaeq	r2, {r0, r8, r9, ip, lr}
    3290:	52011698 	andpl	r1, r1, #152, 12	; 0x9800000
    3294:	9e700305 	cdpls	3, 7, cr0, cr0, cr5, {0}
    3298:	01160000 	tsteq	r6, r0
    329c:	90030551 	andls	r0, r3, r1, asr r5
    32a0:	1600009e 			; <UNDEFINED> instruction: 0x1600009e
    32a4:	03055001 	movweq	r5, #20481	; 0x5001
    32a8:	00009efc 	strdeq	r9, [r0], -ip
    32ac:	8f8c1400 	svchi	0x008c1400
    32b0:	067d0000 	ldrbteq	r0, [sp], -r0
    32b4:	b0150000 	andslt	r0, r5, r0
    32b8:	9c00008f 	stcls	0, cr0, [r0], {143}	; 0x8f
    32bc:	2a000001 	bcs	32c8 <_start-0x4d38>
    32c0:	16000005 	strne	r0, [r0], -r5
    32c4:	08025201 	stmdaeq	r2, {r0, r9, ip, lr}
    32c8:	51011680 	smlabbpl	r1, r0, r6, r1
    32cc:	7ed09103 	atnvcs	f1, f3
    32d0:	01500116 	cmpeq	r0, r6, lsl r1
    32d4:	7d02163a 	stcvc	6, cr1, [r2, #-232]	; 0xffffff18
    32d8:	16310104 	ldrtne	r0, [r1], -r4, lsl #2
    32dc:	02007d02 	andeq	r7, r0, #2, 26	; 0x80
    32e0:	15000077 	strne	r0, [r0, #-119]	; 0x77
    32e4:	00008fd4 	ldrdeq	r8, [r0], -r4
    32e8:	0000019c 	muleq	r0, ip, r1
    32ec:	00000558 	andeq	r0, r0, r8, asr r5
    32f0:	02520116 	subseq	r0, r2, #-2147483643	; 0x80000005
    32f4:	01168008 	tsteq	r6, r8
    32f8:	d0910351 	addsle	r0, r1, r1, asr r3
    32fc:	5001167e 	andpl	r1, r1, lr, ror r6
    3300:	02163a01 	andseq	r3, r6, #4096	; 0x1000
    3304:	7b02047d 	blvc	84500 <__bss_end__+0x7a190>
    3308:	7d021600 	stcvc	6, cr1, [r2, #-0]
    330c:	00770200 	rsbseq	r0, r7, r0, lsl #4
    3310:	8ff81500 	svchi	0x00f81500
    3314:	019c0000 	orrseq	r0, ip, r0
    3318:	05860000 	streq	r0, [r6]
    331c:	01160000 	tsteq	r6, r0
    3320:	80080252 	andhi	r0, r8, r2, asr r2
    3324:	03510116 	cmpeq	r1, #-2147483643	; 0x80000005
    3328:	167ed091 			; <UNDEFINED> instruction: 0x167ed091
    332c:	40015001 	andmi	r5, r1, r1
    3330:	047d0216 	ldrbteq	r0, [sp], #-534	; 0x216
    3334:	16007b02 	strne	r7, [r0], -r2, lsl #22
    3338:	02007d02 	andeq	r7, r0, #2, 26	; 0x80
    333c:	15000077 	strne	r0, [r0, #-119]	; 0x77
    3340:	0000901c 	andeq	r9, r0, ip, lsl r0
    3344:	0000019c 	muleq	r0, ip, r1
    3348:	000005b4 			; <UNDEFINED> instruction: 0x000005b4
    334c:	02520116 	subseq	r0, r2, #-2147483643	; 0x80000005
    3350:	01168008 	tsteq	r6, r8
    3354:	d0910351 	addsle	r0, r1, r1, asr r3
    3358:	5001167e 	andpl	r1, r1, lr, ror r6
    335c:	02163201 	andseq	r3, r6, #268435456	; 0x10000000
    3360:	7b02047d 	blvc	8455c <__bss_end__+0x7a1ec>
    3364:	7d021600 	stcvc	6, cr1, [r2, #-0]
    3368:	00770200 	rsbseq	r0, r7, r0, lsl #4
    336c:	904c1500 	subls	r1, ip, r0, lsl #10
    3370:	019c0000 	orrseq	r0, ip, r0
    3374:	05e20000 	strbeq	r0, [r2, #0]!
    3378:	01160000 	tsteq	r6, r0
    337c:	80080252 	andhi	r0, r8, r2, asr r2
    3380:	03510116 	cmpeq	r1, #-2147483643	; 0x80000005
    3384:	167ed091 			; <UNDEFINED> instruction: 0x167ed091
    3388:	38015001 	stmdacc	r1, {r0, ip, lr}
    338c:	047d0216 	ldrbteq	r0, [sp], #-534	; 0x216
    3390:	16007b02 	strne	r7, [r0], -r2, lsl #22
    3394:	02007d02 	andeq	r7, r0, #2, 26	; 0x80
    3398:	14000077 	strne	r0, [r0], #-119	; 0x77
    339c:	00009054 	andeq	r9, r0, r4, asr r0
    33a0:	00000660 	andeq	r0, r0, r0, ror #12
    33a4:	00907015 	addseq	r7, r0, r5, lsl r0
    33a8:	00066700 	andeq	r6, r6, r0, lsl #14
    33ac:	00061a00 	andeq	r1, r6, r0, lsl #20
    33b0:	53011600 	movwpl	r1, #5632	; 0x1600
    33b4:	16b90802 	ldrtne	r0, [r9], r2, lsl #16
    33b8:	03055201 	movweq	r5, #20993	; 0x5201
    33bc:	00009e70 	andeq	r9, r0, r0, ror lr
    33c0:	05510116 	ldrbeq	r0, [r1, #-278]	; 0x116
    33c4:	009e9003 	addseq	r9, lr, r3
    33c8:	50011600 	andpl	r1, r1, r0, lsl #12
    33cc:	9f240305 	svcls	0x00240305
    33d0:	14000000 	strne	r0, [r0], #-0
    33d4:	00009074 	andeq	r9, r0, r4, ror r0
    33d8:	0000067d 	andeq	r0, r0, sp, ror r6
    33dc:	7a180000 	bvc	6033e4 <__bss_end__+0x5f9074>
    33e0:	35000000 	strcc	r0, [r0, #-0]
    33e4:	19000006 	stmdbne	r0, {r1, r2}
    33e8:	0000006b 	andeq	r0, r0, fp, rrx
    33ec:	25060009 	strcs	r0, [r6, #-9]
    33f0:	18000006 	stmdane	r0, {r1, r2}
    33f4:	0000007a 	andeq	r0, r0, sl, ror r0
    33f8:	0000064a 	andeq	r0, r0, sl, asr #12
    33fc:	00006b19 	andeq	r6, r0, r9, lsl fp
    3400:	1f007f00 	svcne	0x00007f00
    3404:	00000892 	muleq	r0, r2, r8
    3408:	038b1d03 	orreq	r1, fp, #3, 26	; 0xc0
    340c:	831f0000 	tsthi	pc, #0
    3410:	0300000d 	movweq	r0, #13
    3414:	0003a022 	andeq	sl, r3, r2, lsr #32
    3418:	01d22000 	bicseq	r2, r2, r0
    341c:	1e030000 	cdpne	0, 0, cr0, cr3, cr0, {0}
    3420:	000cdd21 	andeq	sp, ip, r1, lsr #26
    3424:	25290300 	strcs	r0, [r9, #-768]!	; 0x300
    3428:	7d000000 	stcvc	0, cr0, [r0, #-0]
    342c:	1c000006 	stcne	0, cr0, [r0], {6}
    3430:	00000081 	andeq	r0, r0, r1, lsl #1
    3434:	ea200022 	b	8034c4 <__bss_end__+0x7f9154>
    3438:	03000005 	movweq	r0, #5
    343c:	00ff0066 	rscseq	r0, pc, r6, rrx
    3440:	00040000 	andeq	r0, r4, r0
    3444:	00000aa6 	andeq	r0, r0, r6, lsr #21
    3448:	0c830104 	stfeqs	f0, [r3], {4}
    344c:	ed010000 	stc	0, cr0, [r1, #-0]
    3450:	ee00000d 	cdp	0, 0, cr0, cr0, cr13, {0}
    3454:	dc00000c 	stcle	0, cr0, [r0], {12}
    3458:	28000090 	stmdacs	r0, {r4, r7}
    345c:	03000000 	movweq	r0, #0
    3460:	02000008 	andeq	r0, r0, #8
    3464:	6e690504 	cdpvs	5, 6, cr0, cr9, cr4, {0}
    3468:	04030074 	streq	r0, [r3], #-116	; 0x74
    346c:	00008d07 	andeq	r8, r0, r7, lsl #26
    3470:	06010300 	streq	r0, [r1], -r0, lsl #6
    3474:	00000377 	andeq	r0, r0, r7, ror r3
    3478:	00050203 	andeq	r0, r5, r3, lsl #4
    347c:	03000004 	movweq	r0, #4
    3480:	00ce0504 	sbceq	r0, lr, r4, lsl #10
    3484:	08030000 	stmdaeq	r3, {}	; <UNPREDICTABLE>
    3488:	0000c905 	andeq	ip, r0, r5, lsl #18
    348c:	08010300 	stmdaeq	r1, {r8, r9}
    3490:	00000375 	andeq	r0, r0, r5, ror r3
    3494:	59070203 	stmdbpl	r7, {r0, r1, r9}
    3498:	03000002 	movweq	r0, #2
    349c:	00880704 	addeq	r0, r8, r4, lsl #14
    34a0:	08030000 	stmdaeq	r3, {}	; <UNPREDICTABLE>
    34a4:	00008307 	andeq	r8, r0, r7, lsl #6
    34a8:	07040300 	streq	r0, [r4, -r0, lsl #6]
    34ac:	000002e4 	andeq	r0, r0, r4, ror #5
    34b0:	7e080103 	adfvce	f0, f0, f3
    34b4:	04000003 	streq	r0, [r0], #-3
    34b8:	00007f04 	andeq	r7, r0, r4, lsl #30
    34bc:	00720500 	rsbseq	r0, r2, r0, lsl #10
    34c0:	ea060000 	b	1834c8 <__bss_end__+0x179158>
    34c4:	01000005 	tsteq	r0, r5
    34c8:	0090dc04 	addseq	sp, r0, r4, lsl #24
    34cc:	00002800 	andeq	r2, r0, r0, lsl #16
    34d0:	ca9c0100 	bgt	fe7038d8 <__bss_end__+0xfe6f9568>
    34d4:	07000000 	streq	r0, [r0, -r0]
    34d8:	000090f0 	strdeq	r9, [r0], -r0
    34dc:	000000ac 	andeq	r0, r0, ip, lsr #1
    34e0:	05500108 	ldrbeq	r0, [r0, #-264]	; 0x108
    34e4:	009f5c03 	addseq	r5, pc, r3, lsl #24
    34e8:	f8090000 			; <UNDEFINED> instruction: 0xf8090000
    34ec:	ea000090 	b	3734 <_start-0x48cc>
    34f0:	c0000000 	andgt	r0, r0, r0
    34f4:	08000000 	stmdaeq	r0, {}	; <UNPREDICTABLE>
    34f8:	08025001 	stmdaeq	r2, {r0, ip, lr}
    34fc:	fc0a0064 	stc2	0, cr0, [sl], {100}	; 0x64
    3500:	fb000090 	blx	374a <_start-0x48b6>
    3504:	00000000 	andeq	r0, r0, r0
    3508:	0000250b 	andeq	r2, r0, fp, lsl #10
    350c:	0000d900 	andeq	sp, r0, r0, lsl #18
    3510:	00790c00 	rsbseq	r0, r9, r0, lsl #24
    3514:	0d000000 	stceq	0, cr0, [r0, #-0]
    3518:	00000d83 	andeq	r0, r0, r3, lsl #27
    351c:	00e42202 	rsceq	r2, r4, r2, lsl #4
    3520:	04040000 	streq	r0, [r4], #-0
    3524:	000000ca 	andeq	r0, r0, sl, asr #1
    3528:	0004bc0e 	andeq	fp, r4, lr, lsl #24
    352c:	fb500200 	blx	1403d36 <__bss_end__+0x13f99c6>
    3530:	0c000000 	stceq	0, cr0, [r0], {-0}
    3534:	0000002c 	andeq	r0, r0, ip, lsr #32
    3538:	0de20f00 	stcleq	15, cr0, [r2]
    353c:	63020000 	movwvs	r0, #8192	; 0x2000
    3540:	0000ff00 	andeq	pc, r0, r0, lsl #30
    3544:	70000400 	andvc	r0, r0, r0, lsl #8
    3548:	0400000b 	streq	r0, [r0], #-11
    354c:	000c8301 	andeq	r8, ip, r1, lsl #6
    3550:	0e070100 	adfeqs	f0, f7, f0
    3554:	0cee0000 	stcleq	0, cr0, [lr]
    3558:	91040000 	mrsls	r0, (UNDEF: 4)
    355c:	00340000 	eorseq	r0, r4, r0
    3560:	089a0000 	ldmeq	sl, {}	; <UNPREDICTABLE>
    3564:	04020000 	streq	r0, [r2], #-0
    3568:	746e6905 	strbtvc	r6, [lr], #-2309	; 0x905
    356c:	07040300 	streq	r0, [r4, -r0, lsl #6]
    3570:	0000008d 	andeq	r0, r0, sp, lsl #1
    3574:	77060103 	strvc	r0, [r6, -r3, lsl #2]
    3578:	03000003 	movweq	r0, #3
    357c:	04000502 	streq	r0, [r0], #-1282	; 0x502
    3580:	04030000 	streq	r0, [r3], #-0
    3584:	0000ce05 	andeq	ip, r0, r5, lsl #28
    3588:	05080300 	streq	r0, [r8, #-768]	; 0x300
    358c:	000000c9 	andeq	r0, r0, r9, asr #1
    3590:	75080103 	strvc	r0, [r8, #-259]	; 0x103
    3594:	03000003 	movweq	r0, #3
    3598:	02590702 	subseq	r0, r9, #524288	; 0x80000
    359c:	04030000 	streq	r0, [r3], #-0
    35a0:	00008807 	andeq	r8, r0, r7, lsl #16
    35a4:	07080300 	streq	r0, [r8, -r0, lsl #6]
    35a8:	00000083 	andeq	r0, r0, r3, lsl #1
    35ac:	e4070403 	str	r0, [r7], #-1027	; 0x403
    35b0:	03000002 	movweq	r0, #2
    35b4:	037e0801 	cmneq	lr, #65536	; 0x10000
    35b8:	3d040000 	stccc	0, cr0, [r4, #-0]
    35bc:	0100000e 	tsteq	r0, lr
    35c0:	0091040d 	addseq	r0, r1, sp, lsl #8
    35c4:	00003400 	andeq	r3, r0, r0, lsl #8
    35c8:	d89c0100 	ldmle	ip, {r8}
    35cc:	05000000 	streq	r0, [r0, #-0]
    35d0:	00000e1b 	andeq	r0, r0, fp, lsl lr
    35d4:	00250e01 	eoreq	r0, r5, r1, lsl #28
    35d8:	29050000 	stmdbcs	r5, {}	; <UNPREDICTABLE>
    35dc:	0100000e 	tsteq	r0, lr
    35e0:	0000250e 	andeq	r2, r0, lr, lsl #10
    35e4:	00710600 	rsbseq	r0, r1, r0, lsl #12
    35e8:	0f010000 	svceq	0x00010000
    35ec:	73736207 	cmnvc	r3, #1879048192	; 0x70000000
    35f0:	d8110100 	ldmdale	r1, {r8}
    35f4:	e4000000 	str	r0, [r0], #-0
    35f8:	0800000e 	stmdaeq	r0, {r1, r2, r3}
    35fc:	00000e35 	andeq	r0, r0, r5, lsr lr
    3600:	00d81201 	sbcseq	r1, r8, r1, lsl #4
    3604:	2c090000 	stccs	0, cr0, [r9], {-0}
    3608:	f4000091 	vst4.32	{d0-d3}, [r0 :64], r1
    360c:	09000000 	stmdbeq	r0, {}	; <UNPREDICTABLE>
    3610:	00009130 	andeq	r9, r0, r0, lsr r1
    3614:	000000fb 	strdeq	r0, [r0], -fp
    3618:	25040a00 	strcs	r0, [r4, #-2560]	; 0xa00
    361c:	05000000 	streq	r0, [r0, #-0]
    3620:	00000e1b 	andeq	r0, r0, fp, lsl lr
    3624:	00250e01 	eoreq	r0, r5, r1, lsl #28
    3628:	29050000 	stmdbcs	r5, {}	; <UNPREDICTABLE>
    362c:	0100000e 	tsteq	r0, lr
    3630:	0000250e 	andeq	r2, r0, lr, lsl #10
    3634:	00710600 	rsbseq	r0, r1, r0, lsl #12
    3638:	d8020000 	stmdale	r2, {}	; <UNPREDICTABLE>
    363c:	000de206 	andeq	lr, sp, r6, lsl #4
    3640:	00630200 	rsbeq	r0, r3, r0, lsl #4
    3644:	000001ad 	andeq	r0, r0, sp, lsr #3
    3648:	0c040004 	stceq	0, cr0, [r4], {4}
    364c:	01040000 	mrseq	r0, (UNDEF: 4)
    3650:	00000c83 	andeq	r0, r0, r3, lsl #25
    3654:	000e5f01 	andeq	r5, lr, r1, lsl #30
    3658:	000cee00 	andeq	lr, ip, r0, lsl #28
    365c:	00003000 	andeq	r3, r0, r0
    3660:	00000000 	andeq	r0, r0, r0
    3664:	00093800 	andeq	r3, r9, r0, lsl #16
    3668:	05040200 	streq	r0, [r4, #-512]	; 0x200
    366c:	00746e69 	rsbseq	r6, r4, r9, ror #28
    3670:	8d070403 	cfstrshi	mvf0, [r7, #-12]
    3674:	03000000 	movweq	r0, #0
    3678:	03770601 	cmneq	r7, #1048576	; 0x100000
    367c:	02030000 	andeq	r0, r3, #0
    3680:	00040005 	andeq	r0, r4, r5
    3684:	05040300 	streq	r0, [r4, #-768]	; 0x300
    3688:	000000ce 	andeq	r0, r0, lr, asr #1
    368c:	c9050803 	stmdbgt	r5, {r0, r1, fp}
    3690:	03000000 	movweq	r0, #0
    3694:	03750801 	cmneq	r5, #65536	; 0x10000
    3698:	02030000 	andeq	r0, r3, #0
    369c:	00025907 	andeq	r5, r2, r7, lsl #18
    36a0:	07040300 	streq	r0, [r4, -r0, lsl #6]
    36a4:	00000088 	andeq	r0, r0, r8, lsl #1
    36a8:	83070803 	movwhi	r0, #30723	; 0x7803
    36ac:	03000000 	movweq	r0, #0
    36b0:	02e40704 	rsceq	r0, r4, #4, 14	; 0x100000
    36b4:	01030000 	mrseq	r0, (UNDEF: 3)
    36b8:	00037e08 	andeq	r7, r3, r8, lsl #28
    36bc:	0e450400 	cdpeq	4, 4, cr0, cr5, cr0, {0}
    36c0:	0e010000 	cdpeq	0, 0, cr0, cr1, cr0, {0}
    36c4:	00000025 	andeq	r0, r0, r5, lsr #32
    36c8:	00009138 	andeq	r9, r0, r8, lsr r1
    36cc:	00000018 	andeq	r0, r0, r8, lsl r0
    36d0:	00a29c01 	adceq	r9, r2, r1, lsl #24
    36d4:	b1050000 	mrslt	r0, (UNDEF: 5)
    36d8:	0100000e 	tsteq	r0, lr
    36dc:	00002c0f 	andeq	r2, r0, pc, lsl #24
    36e0:	000f0400 	andeq	r0, pc, r0, lsl #8
    36e4:	94060000 	strls	r0, [r6], #-0
    36e8:	0100000e 	tsteq	r0, lr
    36ec:	00915017 	addseq	r5, r1, r7, lsl r0
    36f0:	00001400 	andeq	r1, r0, r0, lsl #8
    36f4:	c79c0100 	ldrgt	r0, [ip, r0, lsl #2]
    36f8:	05000000 	streq	r0, [r0, #-0]
    36fc:	00000eb1 			; <UNDEFINED> instruction: 0x00000eb1
    3700:	002c1801 	eoreq	r1, ip, r1, lsl #16
    3704:	0f230000 	svceq	0x00230000
    3708:	06000000 	streq	r0, [r0], -r0
    370c:	00000de2 	andeq	r0, r0, r2, ror #27
    3710:	91641f01 	cmnls	r4, r1, lsl #30
    3714:	00480000 	subeq	r0, r8, r0
    3718:	9c010000 	stcls	0, cr0, [r1], {-0}
    371c:	00000177 	andeq	r0, r0, r7, ror r1
    3720:	000ea907 	andeq	sl, lr, r7, lsl #18
    3724:	772a0100 	strvc	r0, [sl, -r0, lsl #2]!
    3728:	1c000001 	stcne	0, cr0, [r0], {1}
    372c:	07201000 	streq	r1, [r0, -r0]!
    3730:	00000e8c 	andeq	r0, r0, ip, lsl #29
    3734:	01772b01 	cmneq	r7, r1, lsl #22
    3738:	00240000 	eoreq	r0, r4, r0
    373c:	53072010 	movwpl	r2, #28688	; 0x7010
    3740:	0100000e 	tsteq	r0, lr
    3744:	0001772c 	andeq	r7, r1, ip, lsr #14
    3748:	00000000 	andeq	r0, r0, r0
    374c:	0e73085a 	mrceq	8, 3, r0, cr3, cr10, {2}
    3750:	2d010000 	stccs	0, cr0, [r1, #-0]
    3754:	00000177 	andeq	r0, r0, r7, ror r1
    3758:	916c0920 	cmnls	ip, r0, lsr #18
    375c:	00790000 	rsbseq	r0, r9, r0
    3760:	78090000 	stmdavc	r9, {}	; <UNPREDICTABLE>
    3764:	a2000091 	andge	r0, r0, #145	; 0x91
    3768:	0a000000 	beq	3770 <_start-0x4890>
    376c:	00009180 	andeq	r9, r0, r0, lsl #3
    3770:	0000018d 	andeq	r0, r0, sp, lsl #3
    3774:	0000013a 	andeq	r0, r0, sl, lsr r1
    3778:	0150010b 	cmpeq	r0, fp, lsl #2
    377c:	8c0a004e 	stchi	0, cr0, [sl], {78}	; 0x4e
    3780:	9e000091 	mcrls	0, 0, r0, cr0, cr1, {4}
    3784:	5a000001 	bpl	3790 <_start-0x4870>
    3788:	0b000001 	bleq	3794 <_start-0x486c>
    378c:	0c055101 	stfeqs	f5, [r5], {1}
    3790:	5a000001 	bpl	379c <_start-0x4864>
    3794:	0550010b 	ldrbeq	r0, [r0, #-267]	; 0x10b
    3798:	1000240c 	andne	r2, r0, ip, lsl #8
    379c:	980c0020 	stmdals	ip, {r5}
    37a0:	9e000091 	mcrls	0, 0, r0, cr0, cr1, {4}
    37a4:	0b000001 	bleq	37b0 <_start-0x4850>
    37a8:	0c055101 	stfeqs	f5, [r5], {1}
    37ac:	5a000020 	bpl	3834 <_start-0x47cc>
    37b0:	0550010b 	ldrbeq	r0, [r0, #-267]	; 0x10b
    37b4:	10001c0c 	andne	r1, r0, ip, lsl #24
    37b8:	0d000020 	stceq	0, cr0, [r0, #-128]	; 0xffffff80
    37bc:	00000025 	andeq	r0, r0, r5, lsr #32
    37c0:	000e4808 	andeq	r4, lr, r8, lsl #16
    37c4:	880d0100 	stmdahi	sp, {r8}
    37c8:	10000001 	andne	r0, r0, r1
    37cc:	00002c0d 	andeq	r2, r0, sp, lsl #24
    37d0:	04bc0e00 	ldrteq	r0, [ip], #3584	; 0xe00
    37d4:	50020000 	andpl	r0, r2, r0
    37d8:	0000019e 	muleq	r0, lr, r1
    37dc:	00002c0f 	andeq	r2, r0, pc, lsl #24
    37e0:	a3100000 	tstge	r0, #0
    37e4:	0200000e 	andeq	r0, r0, #14
    37e8:	002c0f9c 	mlaeq	ip, ip, pc, r0	; <UNPREDICTABLE>
    37ec:	2c0f0000 	stccs	0, cr0, [pc], {-0}
    37f0:	00000000 	andeq	r0, r0, r0
    37f4:	0001d800 	andeq	sp, r1, r0, lsl #16
    37f8:	f2000400 	vshl.s8	d0, d0, d0
    37fc:	0400000c 	streq	r0, [r0], #-12
    3800:	000c8301 	andeq	r8, ip, r1, lsl #6
    3804:	0ed30100 	cdpeq	1, 13, cr0, cr3, cr0, {0}
    3808:	0cee0000 	stcleq	0, cr0, [lr]
    380c:	91ac0000 			; <UNDEFINED> instruction: 0x91ac0000
    3810:	00880000 	addeq	r0, r8, r0
    3814:	09d50000 	ldmibeq	r5, {}^	; <UNPREDICTABLE>
    3818:	04020000 	streq	r0, [r2], #-0
    381c:	746e6905 	strbtvc	r6, [lr], #-2309	; 0x905
    3820:	07040300 	streq	r0, [r4, -r0, lsl #6]
    3824:	0000008d 	andeq	r0, r0, sp, lsl #1
    3828:	77060103 	strvc	r0, [r6, -r3, lsl #2]
    382c:	03000003 	movweq	r0, #3
    3830:	04000502 	streq	r0, [r0], #-1282	; 0x502
    3834:	04030000 	streq	r0, [r3], #-0
    3838:	0000ce05 	andeq	ip, r0, r5, lsl #28
    383c:	05080300 	streq	r0, [r8, #-768]	; 0x300
    3840:	000000c9 	andeq	r0, r0, r9, asr #1
    3844:	75080103 	strvc	r0, [r8, #-259]	; 0x103
    3848:	03000003 	movweq	r0, #3
    384c:	02590702 	subseq	r0, r9, #524288	; 0x80000
    3850:	04030000 	streq	r0, [r3], #-0
    3854:	00008807 	andeq	r8, r0, r7, lsl #16
    3858:	07080300 	streq	r0, [r8, -r0, lsl #6]
    385c:	00000083 	andeq	r0, r0, r3, lsl #1
    3860:	e4070403 	str	r0, [r7], #-1027	; 0x403
    3864:	03000002 	movweq	r0, #2
    3868:	037e0801 	cmneq	lr, #65536	; 0x10000
    386c:	f2040000 	vhadd.s8	d0, d4, d0
    3870:	0100000e 	tsteq	r0, lr
    3874:	0091ac05 	addseq	sl, r1, r5, lsl #24
    3878:	00001c00 	andeq	r1, r0, r0, lsl #24
    387c:	9e9c0100 	fmllse	f0, f4, f0
    3880:	05000000 	streq	r0, [r0, #-0]
    3884:	00000eec 	andeq	r0, r0, ip, ror #29
    3888:	002c0501 	eoreq	r0, ip, r1, lsl #10
    388c:	0f4d0000 	svceq	0x004d0000
    3890:	06000000 	streq	r0, [r0], -r0
    3894:	00000eb6 			; <UNDEFINED> instruction: 0x00000eb6
    3898:	002c1101 	eoreq	r1, ip, r1, lsl #2
    389c:	91c80000 	bicls	r0, r8, r0
    38a0:	00140000 	andseq	r0, r4, r0
    38a4:	9c010000 	stcls	0, cr0, [r1], {-0}
    38a8:	000000cb 	andeq	r0, r0, fp, asr #1
    38ac:	0091d407 	addseq	sp, r1, r7, lsl #8
    38b0:	0001ca00 	andeq	ip, r1, r0, lsl #20
    38b4:	50010800 	andpl	r0, r1, r0, lsl #16
    38b8:	30040c05 	andcc	r0, r4, r5, lsl #24
    38bc:	00002000 	andeq	r2, r0, r0
    38c0:	000f0806 	andeq	r0, pc, r6, lsl #16
    38c4:	2c160100 	ldfcss	f0, [r6], {-0}
    38c8:	dc000000 	stcle	0, cr0, [r0], {-0}
    38cc:	0c000091 	stceq	0, cr0, [r0], {145}	; 0x91
    38d0:	01000000 	mrseq	r0, (UNDEF: 0)
    38d4:	0000f99c 	muleq	r0, ip, r9
    38d8:	00750900 	rsbseq	r0, r5, r0, lsl #18
    38dc:	002c1a01 	eoreq	r1, ip, r1, lsl #20
    38e0:	50010000 	andpl	r0, r1, r0
    38e4:	0091e40a 	addseq	lr, r1, sl, lsl #8
    38e8:	00009e00 	andeq	r9, r0, r0, lsl #28
    38ec:	ff040000 			; <UNDEFINED> instruction: 0xff040000
    38f0:	0100000e 	tsteq	r0, lr
    38f4:	0091e81f 	addseq	lr, r1, pc, lsl r8
    38f8:	00002400 	andeq	r2, r0, r0, lsl #8
    38fc:	579c0100 	ldrpl	r0, [ip, r0, lsl #2]
    3900:	0b000001 	bleq	390c <_start-0x46f4>
    3904:	01007375 	tsteq	r0, r5, ror r3
    3908:	00002c1f 	andeq	r2, r0, pc, lsl ip
    390c:	000f8100 	andeq	r8, pc, r0, lsl #2
    3910:	62720900 	rsbsvs	r0, r2, #0, 18
    3914:	2c200100 	stfcss	f0, [r0], #-0
    3918:	01000000 	mrseq	r0, (UNDEF: 0)
    391c:	91f80c54 	mvnsls	r0, r4, asr ip
    3920:	00100000 	andseq	r0, r0, r0
    3924:	014d0000 	mrseq	r0, (UNDEF: 77)
    3928:	720d0000 	andvc	r0, sp, #0
    392c:	22010061 	andcs	r0, r1, #97	; 0x61
    3930:	0000002c 	andeq	r0, r0, ip, lsr #32
    3934:	00000f9f 	muleq	r0, pc, pc	; <UNPREDICTABLE>
    3938:	0091fc0a 	addseq	pc, r1, sl, lsl #24
    393c:	0000cb00 	andeq	ip, r0, r0, lsl #22
    3940:	f40a0000 	vst4.8	{d0-d3}, [sl], r0
    3944:	cb000091 	blgt	3b90 <_start-0x4470>
    3948:	00000000 	andeq	r0, r0, r0
    394c:	0004bc04 	andeq	fp, r4, r4, lsl #24
    3950:	0c280100 	stfeqs	f0, [r8], #-0
    3954:	14000092 	strne	r0, [r0], #-146	; 0x92
    3958:	01000000 	mrseq	r0, (UNDEF: 0)
    395c:	0001909c 	muleq	r1, ip, r0
    3960:	736d0b00 	cmnvc	sp, #0, 22
    3964:	2c280100 	stfcss	f0, [r8], #-0
    3968:	b2000000 	andlt	r0, r0, #0
    396c:	0700000f 	streq	r0, [r0, -pc]
    3970:	0000921c 	andeq	r9, r0, ip, lsl r2
    3974:	000000f9 	strdeq	r0, [r0], -r9
    3978:	07500108 	ldrbeq	r0, [r0, -r8, lsl #2]
    397c:	0a5001f3 	beq	1404150 <__bss_end__+0x13f9de0>
    3980:	001e03e8 	andseq	r0, lr, r8, ror #7
    3984:	0ec90400 	cdpeq	4, 12, cr0, cr9, cr0, {0}
    3988:	2b010000 	blcs	43990 <__bss_end__+0x39620>
    398c:	00009220 	andeq	r9, r0, r0, lsr #4
    3990:	00000014 	andeq	r0, r0, r4, lsl r0
    3994:	01ca9c01 	biceq	r9, sl, r1, lsl #24
    3998:	730b0000 	movwvc	r0, #45056	; 0xb000
    399c:	01006365 	tsteq	r0, r5, ror #6
    39a0:	00002c2b 	andeq	r2, r0, fp, lsr #24
    39a4:	000fd300 	andeq	sp, pc, r0, lsl #6
    39a8:	92300700 	eorsls	r0, r0, #0, 14
    39ac:	01570000 	cmpeq	r7, r0
    39b0:	01080000 	mrseq	r0, (UNDEF: 8)
    39b4:	01f30750 	mvnseq	r0, r0, asr r7
    39b8:	03e80a50 	mvneq	r0, #80, 20	; 0x50000
    39bc:	0e00001e 	mcreq	0, 0, r0, cr0, cr14, {0}
    39c0:	00000ee6 	andeq	r0, r0, r6, ror #29
    39c4:	002ca802 	eoreq	sl, ip, r2, lsl #16
    39c8:	2c0f0000 	stccs	0, cr0, [pc], {-0}
    39cc:	00000000 	andeq	r0, r0, r0
    39d0:	00088200 	andeq	r8, r8, r0, lsl #4
    39d4:	d5000400 	strle	r0, [r0, #-1024]	; 0x400
    39d8:	0400000d 	streq	r0, [r0], #-13
    39dc:	000c8301 	andeq	r8, ip, r1, lsl #6
    39e0:	0f540100 	svceq	0x00540100
    39e4:	0cee0000 	stcleq	0, cr0, [lr]
    39e8:	92340000 	eorsls	r0, r4, #0
    39ec:	05a00000 	streq	r0, [r0, #0]!
    39f0:	0a7c0000 	beq	1f039f8 <__bss_end__+0x1ef9688>
    39f4:	08020000 	stmdaeq	r2, {}	; <UNPREDICTABLE>
    39f8:	00008307 	andeq	r8, r0, r7, lsl #6
    39fc:	07040200 	streq	r0, [r4, -r0, lsl #4]
    3a00:	0000008d 	andeq	r0, r0, sp, lsl #1
    3a04:	77060102 	strvc	r0, [r6, -r2, lsl #2]
    3a08:	02000003 	andeq	r0, r0, #3
    3a0c:	04000502 	streq	r0, [r0], #-1282	; 0x502
    3a10:	04020000 	streq	r0, [r2], #-0
    3a14:	0000ce05 	andeq	ip, r0, r5, lsl #28
    3a18:	05080200 	streq	r0, [r8, #-512]	; 0x200
    3a1c:	000000c9 	andeq	r0, r0, r9, asr #1
    3a20:	75080102 	strvc	r0, [r8, #-258]	; 0x102
    3a24:	02000003 	andeq	r0, r0, #3
    3a28:	02590702 	subseq	r0, r9, #524288	; 0x80000
    3a2c:	04020000 	streq	r0, [r2], #-0
    3a30:	00008807 	andeq	r8, r0, r7, lsl #16
    3a34:	05040300 	streq	r0, [r4, #-768]	; 0x300
    3a38:	00746e69 	rsbseq	r6, r4, r9, ror #28
    3a3c:	e4070402 	str	r0, [r7], #-1026	; 0x402
    3a40:	02000002 	andeq	r0, r0, #2
    3a44:	037e0801 	cmneq	lr, #65536	; 0x10000
    3a48:	01040000 	mrseq	r0, (UNDEF: 4)
    3a4c:	00b20c02 	adcseq	r0, r2, r2, lsl #24
    3a50:	0b050000 	bleq	143a58 <__bss_end__+0x1396e8>
    3a54:	00000007 	andeq	r0, r0, r7
    3a58:	000b8405 	andeq	r8, fp, r5, lsl #8
    3a5c:	c6050100 	strgt	r0, [r5], -r0, lsl #2
    3a60:	0400000b 	streq	r0, [r0], #-11
    3a64:	00075a05 	andeq	r5, r7, r5, lsl #20
    3a68:	40050500 	andmi	r0, r5, r0, lsl #10
    3a6c:	06000009 	streq	r0, [r0], -r9
    3a70:	000be305 	andeq	lr, fp, r5, lsl #6
    3a74:	f2050700 	vabd.s8	d0, d5, d0
    3a78:	0300000b 	movweq	r0, #11
    3a7c:	000c0105 	andeq	r0, ip, r5, lsl #2
    3a80:	06000200 	streq	r0, [r0], -r0, lsl #4
    3a84:	000010c4 	andeq	r1, r0, r4, asr #1
    3a88:	00791502 	rsbseq	r1, r9, r2, lsl #10
    3a8c:	9e070000 	cdpls	0, 0, cr0, cr7, cr0, {0}
    3a90:	01000010 	tsteq	r0, r0, lsl r0
    3a94:	0092343f 	addseq	r3, r2, pc, lsr r4
    3a98:	0000d400 	andeq	sp, r0, r0, lsl #8
    3a9c:	339c0100 	orrscc	r0, ip, #0, 2
    3aa0:	08000001 	stmdaeq	r0, {r0}
    3aa4:	006e6970 	rsbeq	r6, lr, r0, ror r9
    3aa8:	002c3f01 	eoreq	r3, ip, r1, lsl #30
    3aac:	0ff40000 	svceq	0x00f40000
    3ab0:	a1090000 	mrsge	r0, (UNDEF: 9)
    3ab4:	0100000f 	tsteq	r0, pc
    3ab8:	00013347 	andeq	r3, r1, r7, asr #6
    3abc:	00101200 	andseq	r1, r0, r0, lsl #4
    3ac0:	10d00900 	sbcsne	r0, r0, r0, lsl #18
    3ac4:	49010000 	stmdbmi	r1, {}	; <UNPREDICTABLE>
    3ac8:	0000002c 	andeq	r0, r0, ip, lsr #32
    3acc:	00001067 	andeq	r1, r0, r7, rrx
    3ad0:	00103e09 	andseq	r3, r0, r9, lsl #28
    3ad4:	2c570100 	ldfcse	f0, [r7], {-0}
    3ad8:	33000000 	movwcc	r0, #0
    3adc:	0a000012 	beq	3b2c <_start-0x44d4>
    3ae0:	000092c8 	andeq	r9, r0, r8, asr #5
    3ae4:	00000841 	andeq	r0, r0, r1, asr #16
    3ae8:	00000122 	andeq	r0, r0, r2, lsr #2
    3aec:	0250010b 	subseq	r0, r0, #-1073741822	; 0xc0000002
    3af0:	0c000075 	stceq	0, cr0, [r0], {117}	; 0x75
    3af4:	000092fc 	strdeq	r9, [r0], -ip
    3af8:	00000862 	andeq	r0, r0, r2, ror #16
    3afc:	0250010b 	subseq	r0, r0, #-1073741822	; 0xc0000002
    3b00:	00000075 	andeq	r0, r0, r5, ror r0
    3b04:	0139040d 	teqeq	r9, sp, lsl #8
    3b08:	2c0e0000 	stccs	0, cr0, [lr], {-0}
    3b0c:	07000000 	streq	r0, [r0, -r0]
    3b10:	00001084 	andeq	r1, r0, r4, lsl #1
    3b14:	93086001 	movwls	r6, #32769	; 0x8001
    3b18:	00380000 	eorseq	r0, r8, r0
    3b1c:	9c010000 	stcls	0, cr0, [r1], {-0}
    3b20:	00000196 	muleq	r0, r6, r1
    3b24:	6e697008 	cdpvs	0, 6, cr7, cr9, cr8, {0}
    3b28:	2c600100 	stfcse	f0, [r0], #-0
    3b2c:	63000000 	movwvs	r0, #0
    3b30:	09000012 	stmdbeq	r0, {r1, r4}
    3b34:	00000fa1 	andeq	r0, r0, r1, lsr #31
    3b38:	01336701 	teqeq	r3, r1, lsl #14
    3b3c:	12840000 	addne	r0, r4, #0
    3b40:	3e090000 	cdpcc	0, 0, cr0, cr9, cr0, {0}
    3b44:	01000010 	tsteq	r0, r0, lsl r0
    3b48:	00002c68 	andeq	r2, r0, r8, ror #24
    3b4c:	0012ba00 	andseq	fp, r2, r0, lsl #20
    3b50:	93380c00 	teqls	r8, #0, 24
    3b54:	08620000 	stmdaeq	r2!, {}^	; <UNPREDICTABLE>
    3b58:	010b0000 	mrseq	r0, (UNDEF: 11)
    3b5c:	f3310751 	vaba.u<illegal width 64>	q0, <illegal reg q0.5>, <illegal reg q0.5>
    3b60:	1a4f5001 	bne	13d7b6c <__bss_end__+0x13cd7fc>
    3b64:	07000024 	streq	r0, [r0, -r4, lsr #32]
    3b68:	00000f66 	andeq	r0, r0, r6, ror #30
    3b6c:	93407b01 	movtls	r7, #2817	; 0xb01
    3b70:	00380000 	eorseq	r0, r8, r0
    3b74:	9c010000 	stcls	0, cr0, [r1], {-0}
    3b78:	000001ee 	andeq	r0, r0, lr, ror #3
    3b7c:	6e697008 	cdpvs	0, 6, cr7, cr9, cr8, {0}
    3b80:	2c7b0100 	ldfcse	f0, [fp], #-0
    3b84:	fa000000 	blx	3b8c <_start-0x4474>
    3b88:	09000012 	stmdbeq	r0, {r1, r4}
    3b8c:	00000fa1 	andeq	r0, r0, r1, lsr #31
    3b90:	01338101 	teqeq	r3, r1, lsl #2
    3b94:	131b0000 	tstne	fp, #0
    3b98:	3e090000 	cdpcc	0, 0, cr0, cr9, cr0, {0}
    3b9c:	01000010 	tsteq	r0, r0, lsl r0
    3ba0:	00002c82 	andeq	r2, r0, r2, lsl #25
    3ba4:	00135100 	andseq	r5, r3, r0, lsl #2
    3ba8:	93700c00 	cmnls	r0, #0, 24
    3bac:	08620000 	stmdaeq	r2!, {}^	; <UNPREDICTABLE>
    3bb0:	010b0000 	mrseq	r0, (UNDEF: 11)
    3bb4:	f3310751 	vaba.u<illegal width 64>	q0, <illegal reg q0.5>, <illegal reg q0.5>
    3bb8:	1a4f5001 	bne	13d7bc4 <__bss_end__+0x13cd854>
    3bbc:	07000024 	streq	r0, [r0, -r4, lsr #32]
    3bc0:	0000105b 	andeq	r1, r0, fp, asr r0
    3bc4:	93789501 	cmnls	r8, #4194304	; 0x400000
    3bc8:	00cc0000 	sbceq	r0, ip, r0
    3bcc:	9c010000 	stcls	0, cr0, [r1], {-0}
    3bd0:	00000264 	andeq	r0, r0, r4, ror #4
    3bd4:	6e697008 	cdpvs	0, 6, cr7, cr9, cr8, {0}
    3bd8:	2c950100 	ldfcss	f0, [r5], {0}
    3bdc:	91000000 	mrsls	r0, (UNDEF: 0)
    3be0:	09000013 	stmdbeq	r0, {r0, r1, r4}
    3be4:	00000fa1 	andeq	r0, r0, r1, lsr #31
    3be8:	01339b01 	teqeq	r3, r1, lsl #22
    3bec:	13af0000 			; <UNDEFINED> instruction: 0x13af0000
    3bf0:	d0090000 	andle	r0, r9, r0
    3bf4:	01000010 	tsteq	r0, r0, lsl r0
    3bf8:	00002c9d 	muleq	r0, sp, ip
    3bfc:	00140400 	andseq	r0, r4, r0, lsl #8
    3c00:	103e0900 	eorsne	r0, lr, r0, lsl #18
    3c04:	ab010000 	blge	43c0c <__bss_end__+0x3989c>
    3c08:	0000002c 	andeq	r0, r0, ip, lsr #32
    3c0c:	000015d0 	ldrdeq	r1, [r0], -r0
    3c10:	00940c0a 	addseq	r0, r4, sl, lsl #24
    3c14:	00084100 	andeq	r4, r8, r0, lsl #2
    3c18:	00025300 	andeq	r5, r2, r0, lsl #6
    3c1c:	50010b00 	andpl	r0, r1, r0, lsl #22
    3c20:	00007502 	andeq	r7, r0, r2, lsl #10
    3c24:	0094380c 	addseq	r3, r4, ip, lsl #16
    3c28:	00086200 	andeq	r6, r8, r0, lsl #4
    3c2c:	50010b00 	andpl	r0, r1, r0, lsl #22
    3c30:	00007502 	andeq	r7, r0, r2, lsl #10
    3c34:	0fe40f00 	svceq	0x00e40f00
    3c38:	b2010000 	andlt	r0, r1, #0
    3c3c:	00000064 	andeq	r0, r0, r4, rrx
    3c40:	00009444 	andeq	r9, r0, r4, asr #8
    3c44:	0000004c 	andeq	r0, r0, ip, asr #32
    3c48:	02ac9c01 	adceq	r9, ip, #256	; 0x100
    3c4c:	70080000 	andvc	r0, r8, r0
    3c50:	01006e69 	tsteq	r0, r9, ror #28
    3c54:	00002cb2 			; <UNDEFINED> instruction: 0x00002cb2
    3c58:	0015ee00 	andseq	lr, r5, r0, lsl #28
    3c5c:	00761000 	rsbseq	r1, r6, r0
    3c60:	002cb801 	eoreq	fp, ip, r1, lsl #16
    3c64:	16460000 	strbne	r0, [r6], -r0
    3c68:	64110000 	ldrvs	r0, [r1], #-0
    3c6c:	41000094 	swpmi	r0, r4, [r0]	; <UNPREDICTABLE>
    3c70:	11000008 	tstne	r0, r8
    3c74:	00009474 	andeq	r9, r0, r4, ror r4
    3c78:	00000841 	andeq	r0, r0, r1, asr #16
    3c7c:	10460700 	subne	r0, r6, r0, lsl #14
    3c80:	c4010000 	strgt	r0, [r1], #-0
    3c84:	00009490 	muleq	r0, r0, r4
    3c88:	00000024 	andeq	r0, r0, r4, lsr #32
    3c8c:	02fc9c01 	rscseq	r9, ip, #256	; 0x100
    3c90:	70080000 	andvc	r0, r8, r0
    3c94:	01006e69 	tsteq	r0, r9, ror #28
    3c98:	00002cc4 	andeq	r2, r0, r4, asr #25
    3c9c:	00167c00 	andseq	r7, r6, r0, lsl #24
    3ca0:	00760800 	rsbseq	r0, r6, r0, lsl #16
    3ca4:	002cc401 	eoreq	ip, ip, r1, lsl #8
    3ca8:	16b60000 	ldrtne	r0, [r6], r0
    3cac:	a80a0000 	stmdage	sl, {}	; <UNPREDICTABLE>
    3cb0:	3e000094 	mcrcc	0, 0, r0, cr0, cr4, {4}
    3cb4:	f2000001 	vhadd.s8	d0, d0, d1
    3cb8:	0b000002 	bleq	3cc8 <_start-0x4338>
    3cbc:	f3035001 	vhadd.u8	d5, d3, d1
    3cc0:	11005001 	tstne	r0, r1
    3cc4:	000094b0 			; <UNDEFINED> instruction: 0x000094b0
    3cc8:	00000196 	muleq	r0, r6, r1
    3ccc:	07b40700 	ldreq	r0, [r4, r0, lsl #14]!
    3cd0:	d0010000 	andle	r0, r1, r0
    3cd4:	000094b4 			; <UNDEFINED> instruction: 0x000094b4
    3cd8:	000000d8 	ldrdeq	r0, [r0], -r8
    3cdc:	03819c01 	orreq	r9, r1, #256	; 0x100
    3ce0:	70080000 	andvc	r0, r8, r0
    3ce4:	01006e69 	tsteq	r0, r9, ror #28
    3ce8:	00002cd0 	ldrdeq	r2, [r0], -r0
    3cec:	0016f000 	andseq	pc, r6, r0
    3cf0:	0bb31200 	bleq	fecc84f8 <__bss_end__+0xfecbe188>
    3cf4:	d0010000 	andle	r0, r1, r0
    3cf8:	000000b2 	strheq	r0, [r0], -r2
    3cfc:	0000170e 	andeq	r1, r0, lr, lsl #14
    3d00:	000fa109 	andeq	sl, pc, r9, lsl #2
    3d04:	33d80100 	bicscc	r0, r8, #0, 2
    3d08:	2f000001 	svccs	0x00000001
    3d0c:	09000017 	stmdbeq	r0, {r0, r1, r2, r4}
    3d10:	000010d0 	ldrdeq	r1, [r0], -r0
    3d14:	002cd901 	eoreq	sp, ip, r1, lsl #18
    3d18:	17840000 	strne	r0, [r4, r0]
    3d1c:	3e090000 	cdpcc	0, 0, cr0, cr9, cr0, {0}
    3d20:	01000010 	tsteq	r0, r0, lsl r0
    3d24:	00002ce7 	andeq	r2, r0, r7, ror #25
    3d28:	00195000 	andseq	r5, r9, r0
    3d2c:	95500a00 	ldrbls	r0, [r0, #-2560]	; 0xa00
    3d30:	08410000 	stmdaeq	r1, {}^	; <UNPREDICTABLE>
    3d34:	03700000 	cmneq	r0, #0
    3d38:	010b0000 	mrseq	r0, (UNDEF: 11)
    3d3c:	00760250 	rsbseq	r0, r6, r0, asr r2
    3d40:	95800c00 	strls	r0, [r0, #3072]	; 0xc00
    3d44:	08620000 	stmdaeq	r2!, {}^	; <UNPREDICTABLE>
    3d48:	010b0000 	mrseq	r0, (UNDEF: 11)
    3d4c:	00760250 	rsbseq	r0, r6, r0, asr r2
    3d50:	6a070000 	bvs	1c3d58 <__bss_end__+0x1b99e8>
    3d54:	01000010 	tsteq	r0, r0, lsl r0
    3d58:	00958cf0 			; <UNDEFINED> instruction: 0x00958cf0
    3d5c:	00003800 	andeq	r3, r0, r0, lsl #16
    3d60:	d99c0100 	ldmible	ip, {r8}
    3d64:	08000003 	stmdaeq	r0, {r0, r1}
    3d68:	006e6970 	rsbeq	r6, lr, r0, ror r9
    3d6c:	002cf001 	eoreq	pc, ip, r1
    3d70:	19810000 	stmibne	r1, {}	; <UNPREDICTABLE>
    3d74:	a1090000 	mrsge	r0, (UNDEF: 9)
    3d78:	0100000f 	tsteq	r0, pc
    3d7c:	000133f6 	strdeq	r3, [r1], -r6
    3d80:	0019a200 	andseq	sl, r9, r0, lsl #4
    3d84:	103e0900 	eorsne	r0, lr, r0, lsl #18
    3d88:	f7010000 			; <UNDEFINED> instruction: 0xf7010000
    3d8c:	0000002c 	andeq	r0, r0, ip, lsr #32
    3d90:	000019d8 	ldrdeq	r1, [r0], -r8
    3d94:	0095bc0c 	addseq	fp, r5, ip, lsl #24
    3d98:	00086200 	andeq	r6, r8, r0, lsl #4
    3d9c:	51010b00 	tstpl	r1, r0, lsl #22
    3da0:	01f33107 	mvnseq	r3, r7, lsl #2
    3da4:	241a4f50 	ldrcs	r4, [sl], #-3920	; 0xf50
    3da8:	48130000 	ldmdami	r3, {}	; <UNPREDICTABLE>
    3dac:	0100000f 	tsteq	r0, pc
    3db0:	0064011e 	rsbeq	r0, r4, lr, lsl r1
    3db4:	95c40000 	strbls	r0, [r4]
    3db8:	002c0000 	eoreq	r0, ip, r0
    3dbc:	9c010000 	stcls	0, cr0, [r1], {-0}
    3dc0:	0000040d 	andeq	r0, r0, sp, lsl #8
    3dc4:	000f4b14 	andeq	r4, pc, r4, lsl fp	; <UNPREDICTABLE>
    3dc8:	011e0100 	tsteq	lr, r0, lsl #2
    3dcc:	0000002c 	andeq	r0, r0, ip, lsr #32
    3dd0:	00001a18 	andeq	r1, r0, r8, lsl sl
    3dd4:	0095d411 	addseq	sp, r5, r1, lsl r4
    3dd8:	00084100 	andeq	r4, r8, r0, lsl #2
    3ddc:	ee150000 	cdp	0, 1, cr0, cr5, cr0, {0}
    3de0:	0100000f 	tsteq	r0, pc
    3de4:	95f0012d 	ldrbls	r0, [r0, #301]!	; 0x12d
    3de8:	00840000 	addeq	r0, r4, r0
    3dec:	9c010000 	stcls	0, cr0, [r1], {-0}
    3df0:	000004d1 	ldrdeq	r0, [r0], -r1
    3df4:	6e697016 	mcrvs	0, 3, r7, cr9, cr6, {0}
    3df8:	012d0100 	teqeq	sp, r0, lsl #2
    3dfc:	0000002c 	andeq	r0, r0, ip, lsr #32
    3e00:	00001a39 	andeq	r1, r0, r9, lsr sl
    3e04:	000f7317 	andeq	r7, pc, r7, lsl r3	; <UNPREDICTABLE>
    3e08:	013f0100 	teqeq	pc, r0, lsl #2
    3e0c:	0000002c 	andeq	r0, r0, ip, lsr #32
    3e10:	00001a65 	andeq	r1, r0, r5, ror #20
    3e14:	00960c18 	addseq	r0, r6, r8, lsl ip
    3e18:	00001c00 	andeq	r1, r0, r0, lsl #24
    3e1c:	00047300 	andeq	r7, r4, r0, lsl #6
    3e20:	103e1700 	eorsne	r1, lr, r0, lsl #14
    3e24:	36010000 	strcc	r0, [r1], -r0
    3e28:	00002c01 	andeq	r2, r0, r1, lsl #24
    3e2c:	001a8300 	andseq	r8, sl, r0, lsl #6
    3e30:	96181100 	ldrls	r1, [r8], -r0, lsl #2
    3e34:	08410000 	stmdaeq	r1, {}^	; <UNPREDICTABLE>
    3e38:	28110000 	ldmdacs	r1, {}	; <UNPREDICTABLE>
    3e3c:	62000096 	andvs	r0, r0, #150	; 0x96
    3e40:	00000008 	andeq	r0, r0, r8
    3e44:	00962c18 	addseq	r2, r6, r8, lsl ip
    3e48:	00002000 	andeq	r2, r0, r0
    3e4c:	0004a300 	andeq	sl, r4, r0, lsl #6
    3e50:	103e1700 	eorsne	r1, lr, r0, lsl #14
    3e54:	3a010000 	bcc	43e5c <__bss_end__+0x39aec>
    3e58:	00002c01 	andeq	r2, r0, r1, lsl #24
    3e5c:	001aa100 	andseq	sl, sl, r0, lsl #2
    3e60:	96381100 	ldrtls	r1, [r8], -r0, lsl #2
    3e64:	08410000 	stmdaeq	r1, {}^	; <UNPREDICTABLE>
    3e68:	4c110000 	ldcmi	0, cr0, [r1], {-0}
    3e6c:	62000096 	andvs	r0, r0, #150	; 0x96
    3e70:	00000008 	andeq	r0, r0, r8
    3e74:	00960411 	addseq	r0, r6, r1, lsl r4
    3e78:	00087e00 	andeq	r7, r8, r0, lsl #28
    3e7c:	96501100 	ldrbls	r1, [r0], -r0, lsl #2
    3e80:	087e0000 	ldmdaeq	lr!, {}^	; <UNPREDICTABLE>
    3e84:	5c110000 	ldcpl	0, cr0, [r1], {-0}
    3e88:	41000096 	swpmi	r0, r6, [r0]	; <UNPREDICTABLE>
    3e8c:	11000008 	tstne	r0, r8
    3e90:	00009668 	andeq	r9, r0, r8, ror #12
    3e94:	00000862 	andeq	r0, r0, r2, ror #16
    3e98:	00966c11 	addseq	r6, r6, r1, lsl ip
    3e9c:	00087e00 	andeq	r7, r8, r0, lsl #28
    3ea0:	ae150000 	cdpge	0, 1, cr0, cr5, cr0, {0}
    3ea4:	01000010 	tsteq	r0, r0, lsl r0
    3ea8:	9674014a 	ldrbtls	r0, [r4], -sl, asr #2
    3eac:	00840000 	addeq	r0, r4, r0
    3eb0:	9c010000 	stcls	0, cr0, [r1], {-0}
    3eb4:	00000595 	muleq	r0, r5, r5
    3eb8:	6e697016 	mcrvs	0, 3, r7, cr9, cr6, {0}
    3ebc:	014a0100 	mrseq	r0, (UNDEF: 90)
    3ec0:	0000002c 	andeq	r0, r0, ip, lsr #32
    3ec4:	00001abf 			; <UNDEFINED> instruction: 0x00001abf
    3ec8:	000f7317 	andeq	r7, pc, r7, lsl r3	; <UNPREDICTABLE>
    3ecc:	015b0100 	cmpeq	fp, r0, lsl #2
    3ed0:	0000002c 	andeq	r0, r0, ip, lsr #32
    3ed4:	00001aeb 	andeq	r1, r0, fp, ror #21
    3ed8:	00969018 	addseq	r9, r6, r8, lsl r0
    3edc:	00001c00 	andeq	r1, r0, r0, lsl #24
    3ee0:	00053700 	andeq	r3, r5, r0, lsl #14
    3ee4:	103e1700 	eorsne	r1, lr, r0, lsl #14
    3ee8:	52010000 	andpl	r0, r1, #0
    3eec:	00002c01 	andeq	r2, r0, r1, lsl #24
    3ef0:	001b0900 	andseq	r0, fp, r0, lsl #18
    3ef4:	969c1100 	ldrls	r1, [ip], r0, lsl #2
    3ef8:	08410000 	stmdaeq	r1, {}^	; <UNPREDICTABLE>
    3efc:	ac110000 	ldcge	0, cr0, [r1], {-0}
    3f00:	62000096 	andvs	r0, r0, #150	; 0x96
    3f04:	00000008 	andeq	r0, r0, r8
    3f08:	0096b018 	addseq	fp, r6, r8, lsl r0
    3f0c:	00002000 	andeq	r2, r0, r0
    3f10:	00056700 	andeq	r6, r5, r0, lsl #14
    3f14:	103e1700 	eorsne	r1, lr, r0, lsl #14
    3f18:	56010000 	strpl	r0, [r1], -r0
    3f1c:	00002c01 	andeq	r2, r0, r1, lsl #24
    3f20:	001b2700 	andseq	r2, fp, r0, lsl #14
    3f24:	96bc1100 	ldrtls	r1, [ip], r0, lsl #2
    3f28:	08410000 	stmdaeq	r1, {}^	; <UNPREDICTABLE>
    3f2c:	d0110000 	andsle	r0, r1, r0
    3f30:	62000096 	andvs	r0, r0, #150	; 0x96
    3f34:	00000008 	andeq	r0, r0, r8
    3f38:	00968811 	addseq	r8, r6, r1, lsl r8
    3f3c:	00087e00 	andeq	r7, r8, r0, lsl #28
    3f40:	96d41100 	ldrbls	r1, [r4], r0, lsl #2
    3f44:	087e0000 	ldmdaeq	lr!, {}^	; <UNPREDICTABLE>
    3f48:	e0110000 	ands	r0, r1, r0
    3f4c:	41000096 	swpmi	r0, r6, [r0]	; <UNPREDICTABLE>
    3f50:	11000008 	tstne	r0, r8
    3f54:	000096ec 	andeq	r9, r0, ip, ror #13
    3f58:	00000862 	andeq	r0, r0, r2, ror #16
    3f5c:	0096f011 	addseq	pc, r6, r1, lsl r0	; <UNPREDICTABLE>
    3f60:	00087e00 	andeq	r7, r8, r0, lsl #28
    3f64:	17130000 	ldrne	r0, [r3, -r0]
    3f68:	0100000f 	tsteq	r0, pc
    3f6c:	00640165 	rsbeq	r0, r4, r5, ror #2
    3f70:	96f80000 	ldrbtls	r0, [r8], r0
    3f74:	00840000 	addeq	r0, r4, r0
    3f78:	9c010000 	stcls	0, cr0, [r1], {-0}
    3f7c:	0000063b 	andeq	r0, r0, fp, lsr r6
    3f80:	6e697016 	mcrvs	0, 3, r7, cr9, cr6, {0}
    3f84:	01650100 	cmneq	r5, r0, lsl #2
    3f88:	0000002c 	andeq	r0, r0, ip, lsr #32
    3f8c:	00001b45 	andeq	r1, r0, r5, asr #22
    3f90:	00971418 	addseq	r1, r7, r8, lsl r4
    3f94:	00002400 	andeq	r2, r0, r0, lsl #8
    3f98:	0005ef00 	andeq	lr, r5, r0, lsl #30
    3f9c:	0f8a1700 	svceq	0x008a1700
    3fa0:	6c010000 	stcvs	0, cr0, [r1], {-0}
    3fa4:	00002c01 	andeq	r2, r0, r1, lsl #24
    3fa8:	001b8700 	andseq	r8, fp, r0, lsl #14
    3fac:	97201100 	strls	r1, [r0, -r0, lsl #2]!
    3fb0:	08410000 	stmdaeq	r1, {}^	; <UNPREDICTABLE>
    3fb4:	30110000 	andscc	r0, r1, r0
    3fb8:	7e000097 	mcrvc	0, 0, r0, cr0, cr7, {4}
    3fbc:	00000008 	andeq	r0, r0, r8
    3fc0:	00973818 	addseq	r3, r7, r8, lsl r8
    3fc4:	00002c00 	andeq	r2, r0, r0, lsl #24
    3fc8:	00062800 	andeq	r2, r6, r0, lsl #16
    3fcc:	0f8a1700 	svceq	0x008a1700
    3fd0:	6f010000 	svcvs	0x00010000
    3fd4:	00002c01 	andeq	r2, r0, r1, lsl #24
    3fd8:	001ba100 	andseq	sl, fp, r0, lsl #2
    3fdc:	97441100 	strbls	r1, [r4, -r0, lsl #2]
    3fe0:	08410000 	stmdaeq	r1, {}^	; <UNPREDICTABLE>
    3fe4:	50110000 	andspl	r0, r1, r0
    3fe8:	7e000097 	mcrvc	0, 0, r0, cr0, cr7, {4}
    3fec:	11000008 	tstne	r0, r8
    3ff0:	0000975c 	andeq	r9, r0, ip, asr r7
    3ff4:	0000087e 	andeq	r0, r0, lr, ror r8
    3ff8:	970c1100 	strls	r1, [ip, -r0, lsl #2]
    3ffc:	087e0000 	ldmdaeq	lr!, {}^	; <UNPREDICTABLE>
    4000:	68110000 	ldmdavs	r1, {}	; <UNPREDICTABLE>
    4004:	7e000097 	mcrvc	0, 0, r0, cr0, cr7, {4}
    4008:	00000008 	andeq	r0, r0, r8
    400c:	00101115 	andseq	r1, r0, r5, lsl r1
    4010:	01780100 	cmneq	r8, r0, lsl #2
    4014:	0000977c 	andeq	r9, r0, ip, ror r7
    4018:	00000058 	andeq	r0, r0, r8, asr r0
    401c:	06a09c01 	strteq	r9, [r0], r1, lsl #24
    4020:	70160000 	andsvc	r0, r6, r0
    4024:	01006e69 	tsteq	r0, r9, ror #28
    4028:	002c0178 	eoreq	r0, ip, r8, ror r1
    402c:	1bb40000 	blne	fed04034 <__bss_end__+0xfecf9cc4>
    4030:	90110000 	andsls	r0, r1, r0
    4034:	7e000097 	mcrvc	0, 0, r0, cr0, cr7, {4}
    4038:	0a000008 	beq	4060 <_start-0x3fa0>
    403c:	000097ac 	andeq	r9, r0, ip, lsr #15
    4040:	00000862 	andeq	r0, r0, r2, ror #16
    4044:	00000680 	andeq	r0, r0, r0, lsl #13
    4048:	0451010b 	ldrbeq	r0, [r1], #-267	; 0x10b
    404c:	24007431 	strcs	r7, [r0], #-1073	; 0x431
    4050:	97c80a00 	strbls	r0, [r8, r0, lsl #20]
    4054:	08620000 	stmdaeq	r2!, {}^	; <UNPREDICTABLE>
    4058:	06960000 	ldreq	r0, [r6], r0
    405c:	010b0000 	mrseq	r0, (UNDEF: 11)
    4060:	74310451 	ldrtvc	r0, [r1], #-1105	; 0x451
    4064:	11002400 	tstne	r0, r0, lsl #8
    4068:	000097cc 	andeq	r9, r0, ip, asr #15
    406c:	0000087e 	andeq	r0, r0, lr, ror r8
    4070:	0fd21900 	svceq	0x00d21900
    4074:	28010000 	stmdacs	r1, {}	; <UNPREDICTABLE>
    4078:	00000133 	andeq	r0, r0, r3, lsr r1
    407c:	99f00305 	ldmibls	r0!, {r0, r2, r8, r9}^
    4080:	51190000 	tstpl	r9, r0
    4084:	01000010 	tsteq	r0, r0, lsl r0
    4088:	00013329 	andeq	r3, r1, r9, lsr #6
    408c:	ec030500 	cfstr32	mvfx0, [r3], {-0}
    4090:	19000099 	stmdbne	r0, {r0, r3, r4, r7}
    4094:	000010db 	ldrdeq	r1, [r0], -fp
    4098:	01332a01 	teqeq	r3, r1, lsl #20
    409c:	03050000 	movweq	r0, #20480	; 0x5000
    40a0:	000099e8 	andeq	r9, r0, r8, ror #19
    40a4:	000faa19 	andeq	sl, pc, r9, lsl sl	; <UNPREDICTABLE>
    40a8:	332c0100 	teqcc	ip, #0, 2
    40ac:	05000001 	streq	r0, [r0, #-1]
    40b0:	00999403 	addseq	r9, r9, r3, lsl #8
    40b4:	0fb21900 	svceq	0x00b21900
    40b8:	2d010000 	stccs	0, cr0, [r1, #-0]
    40bc:	00000133 	andeq	r0, r0, r3, lsr r1
    40c0:	99980305 	ldmibls	r8, {r0, r2, r8, r9}
    40c4:	2b190000 	blcs	6440cc <__bss_end__+0x639d5c>
    40c8:	0100000f 	tsteq	r0, pc
    40cc:	0001332e 	andeq	r3, r1, lr, lsr #6
    40d0:	9c030500 	cfstr32ls	mvfx0, [r3], {-0}
    40d4:	19000099 	stmdbne	r0, {r0, r3, r4, r7}
    40d8:	00000fba 			; <UNDEFINED> instruction: 0x00000fba
    40dc:	01332f01 	teqeq	r3, r1, lsl #30
    40e0:	03050000 	movweq	r0, #20480	; 0x5000
    40e4:	000099a0 	andeq	r9, r0, r0, lsr #19
    40e8:	000fc219 	andeq	ip, pc, r9, lsl r2	; <UNPREDICTABLE>
    40ec:	33300100 	teqcc	r0, #0, 2
    40f0:	05000001 	streq	r0, [r0, #-1]
    40f4:	0099a403 	addseq	sl, r9, r3, lsl #8
    40f8:	0fca1900 	svceq	0x00ca1900
    40fc:	31010000 	mrscc	r0, (UNDEF: 1)
    4100:	00000133 	andeq	r0, r0, r3, lsr r1
    4104:	99a80305 	stmibls	r8!, {r0, r2, r8, r9}
    4108:	7c190000 	ldcvc	0, cr0, [r9], {-0}
    410c:	0100000f 	tsteq	r0, pc
    4110:	00013333 	andeq	r3, r1, r3, lsr r3
    4114:	ac030500 	cfstr32ge	mvfx0, [r3], {-0}
    4118:	19000099 	stmdbne	r0, {r0, r3, r4, r7}
    411c:	00000f83 	andeq	r0, r0, r3, lsl #31
    4120:	01333401 	teqeq	r3, r1, lsl #8
    4124:	03050000 	movweq	r0, #20480	; 0x5000
    4128:	000099b0 			; <UNDEFINED> instruction: 0x000099b0
    412c:	000f3319 	andeq	r3, pc, r9, lsl r3	; <UNPREDICTABLE>
    4130:	33360100 	teqcc	r6, #0, 2
    4134:	05000001 	streq	r0, [r0, #-1]
    4138:	0099b403 	addseq	fp, r9, r3, lsl #8
    413c:	0fdd1900 	svceq	0x00dd1900
    4140:	37010000 	strcc	r0, [r1, -r0]
    4144:	00000133 	andeq	r0, r0, r3, lsr r1
    4148:	99b80305 	ldmibls	r8!, {r0, r2, r8, r9}
    414c:	93190000 	tstls	r9, #0
    4150:	0100000f 	tsteq	r0, pc
    4154:	00013339 	andeq	r3, r1, r9, lsr r3
    4158:	bc030500 	cfstr32lt	mvfx0, [r3], {-0}
    415c:	19000099 	stmdbne	r0, {r0, r3, r4, r7}
    4160:	00000f9a 	muleq	r0, sl, pc	; <UNPREDICTABLE>
    4164:	01333a01 	teqeq	r3, r1, lsl #20
    4168:	03050000 	movweq	r0, #20480	; 0x5000
    416c:	000099c0 	andeq	r9, r0, r0, asr #19
    4170:	0010221a 	andseq	r2, r0, sl, lsl r2
    4174:	01090100 	mrseq	r0, (UNDEF: 25)
    4178:	00000133 	andeq	r0, r0, r3, lsr r1
    417c:	99e40305 	stmibls	r4!, {r0, r2, r8, r9}^
    4180:	301a0000 	andscc	r0, sl, r0
    4184:	01000010 	tsteq	r0, r0, lsl r0
    4188:	0133010a 	teqeq	r3, sl, lsl #2
    418c:	03050000 	movweq	r0, #20480	; 0x5000
    4190:	000099c4 	andeq	r9, r0, r4, asr #19
    4194:	0010761a 	andseq	r7, r0, sl, lsl r6
    4198:	010c0100 	mrseq	r0, (UNDEF: 28)
    419c:	00000133 	andeq	r0, r0, r3, lsr r1
    41a0:	99dc0305 	ldmibls	ip, {r0, r2, r8, r9}^
    41a4:	7d1a0000 	ldcvc	0, cr0, [sl, #-0]
    41a8:	01000010 	tsteq	r0, r0, lsl r0
    41ac:	0133010d 	teqeq	r3, sp, lsl #2
    41b0:	03050000 	movweq	r0, #20480	; 0x5000
    41b4:	000099e0 	andeq	r9, r0, r0, ror #19
    41b8:	0010031a 	andseq	r0, r0, sl, lsl r3
    41bc:	010f0100 	mrseq	r0, (UNDEF: 31)
    41c0:	00000133 	andeq	r0, r0, r3, lsr r1
    41c4:	99c80305 	stmibls	r8, {r0, r2, r8, r9}^
    41c8:	0a1a0000 	beq	6841d0 <__bss_end__+0x679e60>
    41cc:	01000010 	tsteq	r0, r0, lsl r0
    41d0:	01330110 	teqeq	r3, r0, lsl r1
    41d4:	03050000 	movweq	r0, #20480	; 0x5000
    41d8:	000099cc 	andeq	r9, r0, ip, asr #19
    41dc:	0010901a 	andseq	r9, r0, sl, lsl r0
    41e0:	01120100 	tsteq	r2, r0, lsl #2
    41e4:	00000133 	andeq	r0, r0, r3, lsr r1
    41e8:	99d40305 	ldmibls	r4, {r0, r2, r8, r9}^
    41ec:	971a0000 	ldrls	r0, [sl, -r0]
    41f0:	01000010 	tsteq	r0, r0, lsl r0
    41f4:	01330113 	teqeq	r3, r3, lsl r1
    41f8:	03050000 	movweq	r0, #20480	; 0x5000
    41fc:	000099d8 	ldrdeq	r9, [r0], -r8
    4200:	000f3a1a 	andeq	r3, pc, sl, lsl sl	; <UNPREDICTABLE>
    4204:	01150100 	tsteq	r5, r0, lsl #2
    4208:	00000133 	andeq	r0, r0, r3, lsr r1
    420c:	99d00305 	ldmibls	r0, {r0, r2, r8, r9}^
    4210:	9f1b0000 	svcls	0x001b0000
    4214:	0100000b 	tsteq	r0, fp
    4218:	00002c20 	andeq	r2, r0, r0, lsr #24
    421c:	00085600 	andeq	r5, r8, r0, lsl #12
    4220:	08561c00 	ldmdaeq	r6, {sl, fp, ip}^
    4224:	0d000000 	stceq	0, cr0, [r0, #-0]
    4228:	00085c04 	andeq	r5, r8, r4, lsl #24
    422c:	08611d00 	stmdaeq	r1!, {r8, sl, fp, ip}^
    4230:	1f1e0000 	svcne	0x001e0000
    4234:	00000abd 			; <UNDEFINED> instruction: 0x00000abd
    4238:	08781e01 	ldmdaeq	r8!, {r0, r9, sl, fp, ip}^
    423c:	781c0000 	ldmdavc	ip, {}	; <UNPREDICTABLE>
    4240:	1c000008 	stcne	0, cr0, [r0], {8}
    4244:	0000002c 	andeq	r0, r0, ip, lsr #32
    4248:	61040d00 	tstvs	r4, r0, lsl #26
    424c:	20000008 	andcs	r0, r0, r8
    4250:	00000120 	andeq	r0, r0, r0, lsr #2
    4254:	ff008a03 			; <UNDEFINED> instruction: 0xff008a03
    4258:	04000003 	streq	r0, [r0], #-3
    425c:	000faf00 	andeq	sl, pc, r0, lsl #30
    4260:	83010400 	movwhi	r0, #5120	; 0x1400
    4264:	0100000c 	tsteq	r0, ip
    4268:	000011b6 			; <UNDEFINED> instruction: 0x000011b6
    426c:	00000cee 	andeq	r0, r0, lr, ror #25
    4270:	000097d4 	ldrdeq	r9, [r0], -r4
    4274:	00000154 	andeq	r0, r0, r4, asr r1
    4278:	00000c03 	andeq	r0, r0, r3, lsl #24
    427c:	69050402 	stmdbvs	r5, {r1, sl}
    4280:	0300746e 	movweq	r7, #1134	; 0x46e
    4284:	008d0704 	addeq	r0, sp, r4, lsl #14
    4288:	01030000 	mrseq	r0, (UNDEF: 3)
    428c:	00037706 	andeq	r7, r3, r6, lsl #14
    4290:	05020300 	streq	r0, [r2, #-768]	; 0x300
    4294:	00000400 	andeq	r0, r0, r0, lsl #8
    4298:	ce050403 	cdpgt	4, 0, cr0, cr5, cr3, {0}
    429c:	03000000 	movweq	r0, #0
    42a0:	00c90508 	sbceq	r0, r9, r8, lsl #10
    42a4:	01030000 	mrseq	r0, (UNDEF: 3)
    42a8:	00037508 	andeq	r7, r3, r8, lsl #10
    42ac:	07020300 	streq	r0, [r2, -r0, lsl #6]
    42b0:	00000259 	andeq	r0, r0, r9, asr r2
    42b4:	88070403 	stmdahi	r7, {r0, r1, sl}
    42b8:	03000000 	movweq	r0, #0
    42bc:	00830708 	addeq	r0, r3, r8, lsl #14
    42c0:	04030000 	streq	r0, [r3], #-0
    42c4:	0002e407 	andeq	lr, r2, r7, lsl #8
    42c8:	08010300 	stmdaeq	r1, {r8, r9}
    42cc:	0000037e 	andeq	r0, r0, lr, ror r3
    42d0:	0c020104 	stfeqs	f0, [r2], {4}
    42d4:	000000b2 	strheq	r0, [r0], -r2
    42d8:	00070b05 	andeq	r0, r7, r5, lsl #22
    42dc:	84050000 	strhi	r0, [r5], #-0
    42e0:	0100000b 	tsteq	r0, fp
    42e4:	000bc605 	andeq	ip, fp, r5, lsl #12
    42e8:	5a050400 	bpl	1452f0 <__bss_end__+0x13af80>
    42ec:	05000007 	streq	r0, [r0, #-7]
    42f0:	00094005 	andeq	r4, r9, r5
    42f4:	e3050600 	movw	r0, #22016	; 0x5600
    42f8:	0700000b 	streq	r0, [r0, -fp]
    42fc:	000bf205 	andeq	pc, fp, r5, lsl #4
    4300:	01050300 	mrseq	r0, SP_abt
    4304:	0200000c 	andeq	r0, r0, #12
    4308:	10c40600 	sbcne	r0, r4, r0, lsl #12
    430c:	15020000 	strne	r0, [r2, #-0]
    4310:	00000079 	andeq	r0, r0, r9, ror r0
    4314:	00007907 	andeq	r7, r0, r7, lsl #18
    4318:	d4370100 	ldrtle	r0, [r7], #-256	; 0x100
    431c:	9c000097 	stcls	0, cr0, [r0], {151}	; 0x97
    4320:	01000000 	mrseq	r0, (UNDEF: 0)
    4324:	0001c39c 	muleq	r1, ip, r3
    4328:	97dc0800 	ldrbls	r0, [ip, r0, lsl #16]
    432c:	03a80000 			; <UNDEFINED> instruction: 0x03a80000
    4330:	e8090000 	stmda	r9, {}	; <UNPREDICTABLE>
    4334:	af000097 	svcge	0x00000097
    4338:	f3000003 	vhadd.u8	d0, d0, d3
    433c:	0a000000 	beq	4344 <_start-0x3cbc>
    4340:	32015101 	andcc	r5, r1, #1073741824	; 0x40000000
    4344:	0150010a 	cmpeq	r0, sl, lsl #2
    4348:	f409003e 	vst4.8	{d0-d3}, [r9 :256], lr
    434c:	af000097 	svcge	0x00000097
    4350:	0b000003 	bleq	4364 <_start-0x3c9c>
    4354:	0a000001 	beq	4360 <_start-0x3ca0>
    4358:	32015101 	andcc	r5, r1, #1073741824	; 0x40000000
    435c:	0150010a 	cmpeq	r0, sl, lsl #2
    4360:	f808003f 			; <UNDEFINED> instruction: 0xf808003f
    4364:	a8000097 	stmdage	r0, {r0, r1, r2, r4, r7}
    4368:	09000003 	stmdbeq	r0, {r0, r1}
    436c:	00009808 	andeq	r9, r0, r8, lsl #16
    4370:	000003c5 	andeq	r0, r0, r5, asr #7
    4374:	00000128 	andeq	r0, r0, r8, lsr #2
    4378:	0250010a 	subseq	r0, r0, #-2147483646	; 0x80000002
    437c:	09000075 	stmdbeq	r0, {r0, r2, r4, r5, r6}
    4380:	00009814 	andeq	r9, r0, r4, lsl r8
    4384:	000003e6 	andeq	r0, r0, r6, ror #7
    4388:	0000013c 	andeq	r0, r0, ip, lsr r1
    438c:	0250010a 	subseq	r0, r0, #-2147483646	; 0x80000002
    4390:	08000075 	stmdaeq	r0, {r0, r2, r4, r5, r6}
    4394:	00009818 	andeq	r9, r0, r8, lsl r8
    4398:	000003a8 	andeq	r0, r0, r8, lsr #7
    439c:	00982409 	addseq	r2, r8, r9, lsl #8
    43a0:	0003e600 	andeq	lr, r3, r0, lsl #12
    43a4:	00015800 	andeq	r5, r1, r0, lsl #16
    43a8:	51010a00 	tstpl	r1, r0, lsl #20
    43ac:	09003001 	stmdbeq	r0, {r0, ip, sp}
    43b0:	00009830 	andeq	r9, r0, r0, lsr r8
    43b4:	000003e6 	andeq	r0, r0, r6, ror #7
    43b8:	0000016b 	andeq	r0, r0, fp, ror #2
    43bc:	0151010a 	cmpeq	r1, sl, lsl #2
    43c0:	3c090030 	stccc	0, cr0, [r9], {48}	; 0x30
    43c4:	e6000098 			; <UNDEFINED> instruction: 0xe6000098
    43c8:	7e000003 	cdpvc	0, 0, cr0, cr0, cr3, {0}
    43cc:	0a000001 	beq	43d8 <_start-0x3c28>
    43d0:	36015101 	strcc	r5, [r1], -r1, lsl #2
    43d4:	98480900 	stmdals	r8, {r8, fp}^
    43d8:	03e60000 	mvneq	r0, #0
    43dc:	01910000 	orrseq	r0, r1, r0
    43e0:	010a0000 	mrseq	r0, (UNDEF: 10)
    43e4:	00330151 	eorseq	r0, r3, r1, asr r1
    43e8:	00985409 	addseq	r5, r8, r9, lsl #8
    43ec:	0003e600 	andeq	lr, r3, r0, lsl #12
    43f0:	0001a600 	andeq	sl, r1, r0, lsl #12
    43f4:	51010a00 	tstpl	r1, r0, lsl #20
    43f8:	010e0a03 	tsteq	lr, r3, lsl #20
    43fc:	98600900 	stmdals	r0!, {r8, fp}^
    4400:	03e60000 	mvneq	r0, #0
    4404:	01b90000 			; <UNDEFINED> instruction: 0x01b90000
    4408:	010a0000 	mrseq	r0, (UNDEF: 10)
    440c:	00330151 	eorseq	r0, r3, r1, asr r1
    4410:	00986408 	addseq	r6, r8, r8, lsl #8
    4414:	0003a800 	andeq	sl, r3, r0, lsl #16
    4418:	110b0000 	mrsne	r0, (UNDEF: 11)
    441c:	01000011 	tsteq	r0, r1, lsl r0
    4420:	00002557 	andeq	r2, r0, r7, asr r5
    4424:	00987000 	addseq	r7, r8, r0
    4428:	00001c00 	andeq	r1, r0, r0, lsl #24
    442c:	e69c0100 	ldr	r0, [ip], r0, lsl #2
    4430:	08000001 	stmdaeq	r0, {r0}
    4434:	00009880 	andeq	r9, r0, r0, lsl #17
    4438:	000003c5 	andeq	r0, r0, r5, asr #7
    443c:	114c0b00 	cmpne	ip, r0, lsl #22
    4440:	5d010000 	stcpl	0, cr0, [r1, #-0]
    4444:	00000025 	andeq	r0, r0, r5, lsr #32
    4448:	0000988c 	andeq	r9, r0, ip, lsl #17
    444c:	00000028 	andeq	r0, r0, r8, lsr #32
    4450:	02129c01 	andseq	r9, r2, #256	; 0x100
    4454:	94080000 	strls	r0, [r8], #-0
    4458:	c3000098 	movwgt	r0, #152	; 0x98
    445c:	08000001 	stmdaeq	r0, {r0}
    4460:	000098a8 	andeq	r9, r0, r8, lsr #17
    4464:	000003c5 	andeq	r0, r0, r5, asr #7
    4468:	11650b00 	cmnne	r5, r0, lsl #22
    446c:	64010000 	strvs	r0, [r1], #-0
    4470:	00000025 	andeq	r0, r0, r5, lsr #32
    4474:	000098b4 			; <UNDEFINED> instruction: 0x000098b4
    4478:	0000001c 	andeq	r0, r0, ip, lsl r0
    447c:	02359c01 	eorseq	r9, r5, #256	; 0x100
    4480:	c4080000 	strgt	r0, [r8], #-0
    4484:	c5000098 	strgt	r0, [r0, #-152]	; 0x98
    4488:	00000003 	andeq	r0, r0, r3
    448c:	000d3707 	andeq	r3, sp, r7, lsl #14
    4490:	d06a0100 	rsble	r0, sl, r0, lsl #2
    4494:	2c000098 	stccs	0, cr0, [r0], {152}	; 0x98
    4498:	01000000 	mrseq	r0, (UNDEF: 0)
    449c:	0002719c 	muleq	r2, ip, r1
    44a0:	00630c00 	rsbeq	r0, r3, r0, lsl #24
    44a4:	002c6a01 	eoreq	r6, ip, r1, lsl #20
    44a8:	1be00000 	blne	ff8044b0 <__bss_end__+0xff7fa140>
    44ac:	dc080000 	stcle	0, cr0, [r8], {-0}
    44b0:	12000098 	andne	r0, r0, #152	; 0x98
    44b4:	0d000002 	stceq	0, cr0, [r0, #-8]
    44b8:	000098f4 	strdeq	r9, [r0], -r4
    44bc:	000003e6 	andeq	r0, r0, r6, ror #7
    44c0:	0251010a 	subseq	r0, r1, #-2147483646	; 0x80000002
    44c4:	00000074 	andeq	r0, r0, r4, ror r0
    44c8:	00112f0b 	andseq	r2, r1, fp, lsl #30
    44cc:	25740100 	ldrbcs	r0, [r4, #-256]!	; 0x100
    44d0:	fc000000 	stc2	0, cr0, [r0], {-0}
    44d4:	0c000098 	stceq	0, cr0, [r0], {152}	; 0x98
    44d8:	01000000 	mrseq	r0, (UNDEF: 0)
    44dc:	0002949c 	muleq	r2, ip, r4
    44e0:	99040800 	stmdbls	r4, {fp}
    44e4:	01c30000 	biceq	r0, r3, r0
    44e8:	0b000000 	bleq	44f0 <_start-0x3b10>
    44ec:	000011e2 	andeq	r1, r0, r2, ror #3
    44f0:	00257801 	eoreq	r7, r5, r1, lsl #16
    44f4:	99080000 	stmdbls	r8, {}	; <UNPREDICTABLE>
    44f8:	00200000 	eoreq	r0, r0, r0
    44fc:	9c010000 	stcls	0, cr0, [r1], {-0}
    4500:	000002c0 	andeq	r0, r0, r0, asr #5
    4504:	00991008 	addseq	r1, r9, r8
    4508:	00027100 	andeq	r7, r2, r0, lsl #2
    450c:	991c0800 	ldmdbls	ip, {fp}
    4510:	01e60000 	mvneq	r0, r0
    4514:	0e000000 	cdpeq	0, 0, cr0, cr0, cr0, {0}
    4518:	0000117f 	andeq	r1, r0, pc, ror r1
    451c:	02d11601 	sbcseq	r1, r1, #1048576	; 0x100000
    4520:	03050000 	movweq	r0, #20480	; 0x5000
    4524:	00009a24 	andeq	r9, r0, r4, lsr #20
    4528:	02d7040f 	sbcseq	r0, r7, #251658240	; 0xf000000
    452c:	2c100000 	ldccs	0, cr0, [r0], {-0}
    4530:	0e000000 	cdpeq	0, 0, cr0, cr0, cr0, {0}
    4534:	00001173 	andeq	r1, r0, r3, ror r1
    4538:	02d11701 	sbcseq	r1, r1, #262144	; 0x40000
    453c:	03050000 	movweq	r0, #20480	; 0x5000
    4540:	000099f4 	strdeq	r9, [r0], -r4
    4544:	0010f40e 	andseq	pc, r0, lr, lsl #8
    4548:	d11a0100 	tstle	sl, r0, lsl #2
    454c:	05000002 	streq	r0, [r0, #-2]
    4550:	009a1003 	addseq	r1, sl, r3
    4554:	113d0e00 	teqne	sp, r0, lsl #28
    4558:	1b010000 	blne	44560 <__bss_end__+0x3a1f0>
    455c:	000002d1 	ldrdeq	r0, [r0], -r1
    4560:	99fc0305 	ldmibls	ip!, {r0, r2, r8, r9}^
    4564:	560e0000 	strpl	r0, [lr], -r0
    4568:	01000011 	tsteq	r0, r1, lsl r0
    456c:	0002d11c 	andeq	sp, r2, ip, lsl r1
    4570:	00030500 	andeq	r0, r3, r0, lsl #10
    4574:	0e00009a 	mcreq	0, 0, r0, cr0, cr10, {4}
    4578:	000011c4 	andeq	r1, r0, r4, asr #3
    457c:	02d11d01 	sbcseq	r1, r1, #1, 26	; 0x40
    4580:	03050000 	movweq	r0, #20480	; 0x5000
    4584:	00009a04 	andeq	r9, r0, r4, lsl #20
    4588:	0010e50e 	andseq	lr, r0, lr, lsl #10
    458c:	d11e0100 	tstle	lr, r0, lsl #2
    4590:	05000002 	streq	r0, [r0, #-2]
    4594:	009a2003 	addseq	r2, sl, r3
    4598:	11d30e00 	bicsne	r0, r3, r0, lsl #28
    459c:	1f010000 	svcne	0x00010000
    45a0:	000002d1 	ldrdeq	r0, [r0], -r1
    45a4:	9a0c0305 	bls	3051c0 <__bss_end__+0x2fae50>
    45a8:	020e0000 	andeq	r0, lr, #0
    45ac:	01000011 	tsteq	r0, r1, lsl r0
    45b0:	0002d120 	andeq	sp, r2, r0, lsr #2
    45b4:	1c030500 	cfstr32ne	mvfx0, [r3], {-0}
    45b8:	0e00009a 	mcreq	0, 0, r0, cr0, cr10, {4}
    45bc:	000011a7 	andeq	r1, r0, r7, lsr #3
    45c0:	02d12101 	sbcseq	r2, r1, #1073741824	; 0x40000000
    45c4:	03050000 	movweq	r0, #20480	; 0x5000
    45c8:	00009a18 	andeq	r9, r0, r8, lsl sl
    45cc:	00111f0e 	andseq	r1, r1, lr, lsl #30
    45d0:	d1220100 	teqle	r2, r0, lsl #2
    45d4:	05000002 	streq	r0, [r0, #-2]
    45d8:	0099f803 	addseq	pc, r9, r3, lsl #16
    45dc:	11970e00 	orrsne	r0, r7, r0, lsl #28
    45e0:	23010000 	movwcs	r0, #4096	; 0x1000
    45e4:	000002d1 	ldrdeq	r0, [r0], -r1
    45e8:	9a140305 	bls	505204 <__bss_end__+0x4fae94>
    45ec:	870e0000 	strhi	r0, [lr, -r0]
    45f0:	01000011 	tsteq	r0, r1, lsl r0
    45f4:	0002d124 	andeq	sp, r2, r4, lsr #2
    45f8:	08030500 	stmdaeq	r3, {r8, sl}
    45fc:	1100009a 	swpne	r0, sl, [r0]	; <UNPREDICTABLE>
    4600:	00000120 	andeq	r0, r0, r0, lsr #2
    4604:	b4128a03 	ldrlt	r8, [r2], #-2563	; 0xa03
    4608:	02000007 	andeq	r0, r0, #7
    460c:	0003c519 	andeq	ip, r3, r9, lsl r5
    4610:	002c1300 	eoreq	r1, ip, r0, lsl #6
    4614:	b2130000 	andslt	r0, r3, #0
    4618:	00000000 	andeq	r0, r0, r0
    461c:	000b9f14 	andeq	r9, fp, r4, lsl pc
    4620:	2ca90300 	stccs	3, cr0, [r9]
    4624:	da000000 	ble	462c <_start-0x39d4>
    4628:	13000003 	movwne	r0, #3
    462c:	000003da 	ldrdeq	r0, [r0], -sl
    4630:	e0040f00 	and	r0, r4, r0, lsl #30
    4634:	15000003 	strne	r0, [r0, #-3]
    4638:	000003e5 	andeq	r0, r0, r5, ror #7
    463c:	0abd1216 	beq	fef48e9c <__bss_end__+0xfef3eb2c>
    4640:	9d030000 	stcls	0, cr0, [r3, #-0]
    4644:	000003fc 	strdeq	r0, [r0], -ip
    4648:	0003fc13 	andeq	pc, r3, r3, lsl ip	; <UNPREDICTABLE>
    464c:	002c1300 	eoreq	r1, ip, r0, lsl #6
    4650:	0f000000 	svceq	0x00000000
    4654:	0003e504 	andeq	lr, r3, r4, lsl #10
	...

Disassembly of section .debug_abbrev:

00000000 <.debug_abbrev>:
       0:	25011101 	strcs	r1, [r1, #-257]	; 0x101
       4:	030b130e 	movweq	r1, #45838	; 0xb30e
       8:	110e1b0e 	tstne	lr, lr, lsl #22
       c:	10061201 	andne	r1, r6, r1, lsl #4
      10:	02000017 	andeq	r0, r0, #23
      14:	0b0b0024 	bleq	2c00ac <__bss_end__+0x2b5d3c>
      18:	08030b3e 	stmdaeq	r3, {r1, r2, r3, r4, r5, r8, r9, fp}
      1c:	24030000 	strcs	r0, [r3], #-0
      20:	3e0b0b00 	vmlacc.f64	d0, d11, d0
      24:	000e030b 	andeq	r0, lr, fp, lsl #6
      28:	00160400 	andseq	r0, r6, r0, lsl #8
      2c:	0b3a0e03 	bleq	e83840 <__bss_end__+0xe794d0>
      30:	13490b3b 	movtne	r0, #39739	; 0x9b3b
      34:	0f050000 	svceq	0x00050000
      38:	490b0b00 	stmdbmi	fp, {r8, r9, fp}
      3c:	06000013 			; <UNDEFINED> instruction: 0x06000013
      40:	13490026 	movtne	r0, #36902	; 0x9026
      44:	01070000 	mrseq	r0, (UNDEF: 7)
      48:	01134901 	tsteq	r3, r1, lsl #18
      4c:	08000013 	stmdaeq	r0, {r0, r1, r4}
      50:	13490021 	movtne	r0, #36897	; 0x9021
      54:	00000b2f 	andeq	r0, r0, pc, lsr #22
      58:	0b010409 	bleq	41084 <__bss_end__+0x36d14>
      5c:	3b0b3a0b 	blcc	2ce890 <__bss_end__+0x2c4520>
      60:	0013010b 	andseq	r0, r3, fp, lsl #2
      64:	00280a00 	eoreq	r0, r8, r0, lsl #20
      68:	0d1c0e03 	ldceq	14, cr0, [ip, #-12]
      6c:	040b0000 	streq	r0, [fp], #-0
      70:	0b0e0301 	bleq	380c7c <__bss_end__+0x37690c>
      74:	3b0b3a0b 	blcc	2ce8a8 <__bss_end__+0x2c4538>
      78:	0013010b 	andseq	r0, r3, fp, lsl #2
      7c:	01130c00 	tsteq	r3, r0, lsl #24
      80:	0b3a0b0b 	bleq	e82cb4 <__bss_end__+0xe78944>
      84:	13010b3b 	movwne	r0, #6971	; 0x1b3b
      88:	0d0d0000 	stceq	0, cr0, [sp, #-0]
      8c:	3a080300 	bcc	200c94 <__bss_end__+0x1f6924>
      90:	490b3b0b 	stmdbmi	fp, {r0, r1, r3, r8, r9, fp, ip, sp}
      94:	000b3813 	andeq	r3, fp, r3, lsl r8
      98:	000d0e00 	andeq	r0, sp, r0, lsl #28
      9c:	0b3a0e03 	bleq	e838b0 <__bss_end__+0xe79540>
      a0:	13490b3b 	movtne	r0, #39739	; 0x9b3b
      a4:	00000b38 	andeq	r0, r0, r8, lsr fp
      a8:	03012e0f 	movweq	r2, #7695	; 0x1e0f
      ac:	3b0b3a0e 	blcc	2ce8ec <__bss_end__+0x2c457c>
      b0:	4919270b 	ldmdbmi	r9, {r0, r1, r3, r8, r9, sl, sp}
      b4:	010b2013 	tsteq	fp, r3, lsl r0
      b8:	10000013 	andne	r0, r0, r3, lsl r0
      bc:	08030005 	stmdaeq	r3, {r0, r2}
      c0:	0b3b0b3a 	bleq	ec2db0 <__bss_end__+0xeb8a40>
      c4:	00001349 	andeq	r1, r0, r9, asr #6
      c8:	03012e11 	movweq	r2, #7697	; 0x1e11
      cc:	3b0b3a0e 	blcc	2ce90c <__bss_end__+0x2c459c>
      d0:	4919270b 	ldmdbmi	r9, {r0, r1, r3, r8, r9, sl, sp}
      d4:	12011113 	andne	r1, r1, #-1073741820	; 0xc0000004
      d8:	97184006 	ldrls	r4, [r8, -r6]
      dc:	13011942 	movwne	r1, #6466	; 0x1942
      e0:	05120000 	ldreq	r0, [r2, #-0]
      e4:	3a080300 	bcc	200cec <__bss_end__+0x1f697c>
      e8:	490b3b0b 	stmdbmi	fp, {r0, r1, r3, r8, r9, fp, ip, sp}
      ec:	00170213 	andseq	r0, r7, r3, lsl r2
      f0:	00051300 	andeq	r1, r5, r0, lsl #6
      f4:	0b3a0803 	bleq	e82108 <__bss_end__+0xe77d98>
      f8:	13490b3b 	movtne	r0, #39739	; 0x9b3b
      fc:	00001802 	andeq	r1, r0, r2, lsl #16
     100:	03003414 	movweq	r3, #1044	; 0x414
     104:	3b0b3a0e 	blcc	2ce944 <__bss_end__+0x2c45d4>
     108:	0213490b 	andseq	r4, r3, #180224	; 0x2c000
     10c:	15000017 	strne	r0, [r0, #-23]
     110:	0e030005 	cdpeq	0, 0, cr0, cr3, cr5, {0}
     114:	0b3b0b3a 	bleq	ec2e04 <__bss_end__+0xeb8a94>
     118:	17021349 	strne	r1, [r2, -r9, asr #6]
     11c:	2e160000 	cdpcs	0, 1, cr0, cr6, cr0, {0}
     120:	3a0e0301 	bcc	380d2c <__bss_end__+0x3769bc>
     124:	270b3b0b 	strcs	r3, [fp, -fp, lsl #22]
     128:	12011119 	andne	r1, r1, #1073741830	; 0x40000006
     12c:	97184006 	ldrls	r4, [r8, -r6]
     130:	13011942 	movwne	r1, #6466	; 0x1942
     134:	34170000 	ldrcc	r0, [r7], #-0
     138:	3a080300 	bcc	200d40 <__bss_end__+0x1f69d0>
     13c:	490b3b0b 	stmdbmi	fp, {r0, r1, r3, r8, r9, fp, ip, sp}
     140:	00170213 	andseq	r0, r7, r3, lsl r2
     144:	00341800 	eorseq	r1, r4, r0, lsl #16
     148:	13490e03 	movtne	r0, #40451	; 0x9e03
     14c:	18021934 	stmdane	r2, {r2, r4, r5, r8, fp, ip}
     150:	89190000 	ldmdbhi	r9, {}	; <UNPREDICTABLE>
     154:	11000182 	smlabbne	r0, r2, r1, r0
     158:	00133101 	andseq	r3, r3, r1, lsl #2
     15c:	82891a00 	addhi	r1, r9, #0, 20
     160:	01110101 	tsteq	r1, r1, lsl #2
     164:	13011331 	movwne	r1, #4913	; 0x1331
     168:	8a1b0000 	bhi	6c0170 <__bss_end__+0x6b5e00>
     16c:	02000182 	andeq	r0, r0, #-2147483616	; 0x80000020
     170:	18429118 	stmdane	r2, {r3, r4, r8, ip, pc}^
     174:	2e1c0000 	cdpcs	0, 1, cr0, cr12, cr0, {0}
     178:	03193f01 	tsteq	r9, #1, 30
     17c:	3b0b3a0e 	blcc	2ce9bc <__bss_end__+0x2c464c>
     180:	4919270b 	ldmdbmi	r9, {r0, r1, r3, r8, r9, sl, sp}
     184:	12011113 	andne	r1, r1, #-1073741820	; 0xc0000004
     188:	97184006 	ldrls	r4, [r8, -r6]
     18c:	13011942 	movwne	r1, #6466	; 0x1942
     190:	341d0000 	ldrcc	r0, [sp], #-0
     194:	3a080300 	bcc	200d9c <__bss_end__+0x1f6a2c>
     198:	490b3b0b 	stmdbmi	fp, {r0, r1, r3, r8, r9, fp, ip, sp}
     19c:	00180213 	andseq	r0, r8, r3, lsl r2
     1a0:	82891e00 	addhi	r1, r9, #0, 28
     1a4:	01110101 	tsteq	r1, r1, lsl #2
     1a8:	00001331 	andeq	r1, r0, r1, lsr r3
     1ac:	3f012e1f 	svccc	0x00012e1f
     1b0:	3a0e0319 	bcc	380e1c <__bss_end__+0x376aac>
     1b4:	270b3b0b 	strcs	r3, [fp, -fp, lsl #22]
     1b8:	12011119 	andne	r1, r1, #1073741830	; 0x40000006
     1bc:	97184006 	ldrls	r4, [r8, -r6]
     1c0:	13011942 	movwne	r1, #6466	; 0x1942
     1c4:	34200000 	strtcc	r0, [r0], #-0
     1c8:	3a0e0300 	bcc	380dd0 <__bss_end__+0x376a60>
     1cc:	490b3b0b 	stmdbmi	fp, {r0, r1, r3, r8, r9, fp, ip, sp}
     1d0:	00180213 	andseq	r0, r8, r3, lsl r2
     1d4:	00342100 	eorseq	r2, r4, r0, lsl #2
     1d8:	0b3a0e03 	bleq	e839ec <__bss_end__+0xe7967c>
     1dc:	13490b3b 	movtne	r0, #39739	; 0x9b3b
     1e0:	1d220000 	stcne	0, cr0, [r2, #-0]
     1e4:	11133101 	tstne	r3, r1, lsl #2
     1e8:	58061201 	stmdapl	r6, {r0, r9, ip}
     1ec:	010b590b 	tsteq	fp, fp, lsl #18
     1f0:	23000013 	movwcs	r0, #19
     1f4:	13310005 	teqne	r1, #5
     1f8:	00001702 	andeq	r1, r0, r2, lsl #14
     1fc:	03003424 	movweq	r3, #1060	; 0x424
     200:	3b0b3a08 	blcc	2cea28 <__bss_end__+0x2c46b8>
     204:	0013490b 	andseq	r4, r3, fp, lsl #18
     208:	010b2500 	tsteq	fp, r0, lsl #10
     20c:	06120111 			; <UNDEFINED> instruction: 0x06120111
     210:	00001301 	andeq	r1, r0, r1, lsl #6
     214:	55010b26 	strpl	r0, [r1, #-2854]	; 0xb26
     218:	27000017 	smladcs	r0, r7, r0, r0
     21c:	0e030034 	mcreq	0, 0, r0, cr3, cr4, {1}
     220:	0b3b0b3a 	bleq	ec2f10 <__bss_end__+0xeb8ba0>
     224:	0b1c1349 	bleq	704f50 <__bss_end__+0x6fabe0>
     228:	2e280000 	cdpcs	0, 2, cr0, cr8, cr0, {0}
     22c:	03193f01 	tsteq	r9, #1, 30
     230:	3b0b3a0e 	blcc	2cea70 <__bss_end__+0x2c4700>
     234:	4919270b 	ldmdbmi	r9, {r0, r1, r3, r8, r9, sl, sp}
     238:	01193c13 	tsteq	r9, r3, lsl ip
     23c:	29000013 	stmdbcs	r0, {r0, r1, r4}
     240:	13490005 	movtne	r0, #36869	; 0x9005
     244:	182a0000 	stmdane	sl!, {}	; <UNPREDICTABLE>
     248:	2b000000 	blcs	250 <_start-0x7db0>
     24c:	193f002e 	ldmdbne	pc!, {r1, r2, r3, r5}	; <UNPREDICTABLE>
     250:	0b3a0e03 	bleq	e83a64 <__bss_end__+0xe796f4>
     254:	19270b3b 	stmdbne	r7!, {r0, r1, r3, r4, r5, r8, r9, fp}
     258:	0000193c 	andeq	r1, r0, ip, lsr r9
     25c:	3f012e2c 	svccc	0x00012e2c
     260:	3a0e0319 	bcc	380ecc <__bss_end__+0x376b5c>
     264:	270b3b0b 	strcs	r3, [fp, -fp, lsl #22]
     268:	01193c19 	tsteq	r9, r9, lsl ip
     26c:	00000013 	andeq	r0, r0, r3, lsl r0
     270:	25011101 	strcs	r1, [r1, #-257]	; 0x101
     274:	030b130e 	movweq	r1, #45838	; 0xb30e
     278:	110e1b0e 	tstne	lr, lr, lsl #22
     27c:	10061201 	andne	r1, r6, r1, lsl #4
     280:	02000017 	andeq	r0, r0, #23
     284:	0b0b0024 	bleq	2c031c <__bss_end__+0x2b5fac>
     288:	08030b3e 	stmdaeq	r3, {r1, r2, r3, r4, r5, r8, r9, fp}
     28c:	24030000 	strcs	r0, [r3], #-0
     290:	3e0b0b00 	vmlacc.f64	d0, d11, d0
     294:	000e030b 	andeq	r0, lr, fp, lsl #6
     298:	00260400 	eoreq	r0, r6, r0, lsl #8
     29c:	00001349 	andeq	r1, r0, r9, asr #6
     2a0:	03001605 	movweq	r1, #1541	; 0x605
     2a4:	3b0b3a0e 	blcc	2ceae4 <__bss_end__+0x2c4774>
     2a8:	0013490b 	andseq	r4, r3, fp, lsl #18
     2ac:	00160600 	andseq	r0, r6, r0, lsl #12
     2b0:	0b3a0e03 	bleq	e83ac4 <__bss_end__+0xe79754>
     2b4:	1349053b 	movtne	r0, #38203	; 0x953b
     2b8:	17070000 	strne	r0, [r7, -r0]
     2bc:	3a0b0b01 	bcc	2c2ec8 <__bss_end__+0x2b8b58>
     2c0:	010b3b0b 	tsteq	fp, fp, lsl #22
     2c4:	08000013 	stmdaeq	r0, {r0, r1, r4}
     2c8:	0e03000d 	cdpeq	0, 0, cr0, cr3, cr13, {0}
     2cc:	0b3b0b3a 	bleq	ec2fbc <__bss_end__+0xeb8c4c>
     2d0:	00001349 	andeq	r1, r0, r9, asr #6
     2d4:	49010109 	stmdbmi	r1, {r0, r3, r8}
     2d8:	00130113 	andseq	r0, r3, r3, lsl r1
     2dc:	00210a00 	eoreq	r0, r1, r0, lsl #20
     2e0:	0b2f1349 	bleq	bc500c <__bss_end__+0xbbac9c>
     2e4:	130b0000 	movwne	r0, #45056	; 0xb000
     2e8:	3a0b0b01 	bcc	2c2ef4 <__bss_end__+0x2b8b84>
     2ec:	010b3b0b 	tsteq	fp, fp, lsl #22
     2f0:	0c000013 	stceq	0, cr0, [r0], {19}
     2f4:	0e03000d 	cdpeq	0, 0, cr0, cr3, cr13, {0}
     2f8:	0b3b0b3a 	bleq	ec2fe8 <__bss_end__+0xeb8c78>
     2fc:	0b381349 	bleq	e05028 <__bss_end__+0xdfacb8>
     300:	0f0d0000 	svceq	0x000d0000
     304:	000b0b00 	andeq	r0, fp, r0, lsl #22
     308:	000f0e00 	andeq	r0, pc, r0, lsl #28
     30c:	13490b0b 	movtne	r0, #39691	; 0x9b0b
     310:	130f0000 	movwne	r0, #61440	; 0xf000
     314:	0b0e0301 	bleq	380f20 <__bss_end__+0x376bb0>
     318:	3b0b3a0b 	blcc	2ceb4c <__bss_end__+0x2c47dc>
     31c:	0013010b 	andseq	r0, r3, fp, lsl #2
     320:	000d1000 	andeq	r1, sp, r0
     324:	0b3a0803 	bleq	e82338 <__bss_end__+0xe77fc8>
     328:	13490b3b 	movtne	r0, #39739	; 0x9b3b
     32c:	00000b38 	andeq	r0, r0, r8, lsr fp
     330:	03011311 	movweq	r1, #4881	; 0x1311
     334:	3a050b0e 	bcc	142f74 <__bss_end__+0x138c04>
     338:	010b3b0b 	tsteq	fp, fp, lsl #22
     33c:	12000013 	andne	r0, r0, #19
     340:	0e03000d 	cdpeq	0, 0, cr0, cr3, cr13, {0}
     344:	0b3b0b3a 	bleq	ec3034 <__bss_end__+0xeb8cc4>
     348:	05381349 	ldreq	r1, [r8, #-841]!	; 0x349
     34c:	15130000 	ldrne	r0, [r3, #-0]
     350:	00192700 	andseq	r2, r9, r0, lsl #14
     354:	01151400 	tsteq	r5, r0, lsl #8
     358:	13491927 	movtne	r1, #39207	; 0x9927
     35c:	00001301 	andeq	r1, r0, r1, lsl #6
     360:	49000515 	stmdbmi	r0, {r0, r2, r4, r8, sl}
     364:	16000013 			; <UNDEFINED> instruction: 0x16000013
     368:	0e030113 	mcreq	1, 0, r0, cr3, cr3, {0}
     36c:	0b3a050b 	bleq	e817a0 <__bss_end__+0xe77430>
     370:	1301053b 	movwne	r0, #5435	; 0x153b
     374:	0d170000 	ldceq	0, cr0, [r7, #-0]
     378:	3a0e0300 	bcc	380f80 <__bss_end__+0x376c10>
     37c:	49053b0b 	stmdbmi	r5, {r0, r1, r3, r8, r9, fp, ip, sp}
     380:	000b3813 	andeq	r3, fp, r3, lsl r8
     384:	000d1800 	andeq	r1, sp, r0, lsl #16
     388:	0b3a0e03 	bleq	e83b9c <__bss_end__+0xe7982c>
     38c:	1349053b 	movtne	r0, #38203	; 0x953b
     390:	00000538 	andeq	r0, r0, r8, lsr r5
     394:	03011319 	movweq	r1, #4889	; 0x1319
     398:	3a0b0b0e 	bcc	2c2fd8 <__bss_end__+0x2b8c68>
     39c:	01053b0b 	tsteq	r5, fp, lsl #22
     3a0:	1a000013 	bne	3f4 <_start-0x7c0c>
     3a4:	0b0b0113 	bleq	2c07f8 <__bss_end__+0x2b6488>
     3a8:	053b0b3a 	ldreq	r0, [fp, #-2874]!	; 0xb3a
     3ac:	00001301 	andeq	r1, r0, r1, lsl #6
     3b0:	0b01171b 	bleq	46024 <__bss_end__+0x3bcb4>
     3b4:	3b0b3a0b 	blcc	2cebe8 <__bss_end__+0x2c4878>
     3b8:	00130105 	andseq	r0, r3, r5, lsl #2
     3bc:	000d1c00 	andeq	r1, sp, r0, lsl #24
     3c0:	0b3a0e03 	bleq	e83bd4 <__bss_end__+0xe79864>
     3c4:	1349053b 	movtne	r0, #38203	; 0x953b
     3c8:	151d0000 	ldrne	r0, [sp, #-0]
     3cc:	01192701 	tsteq	r9, r1, lsl #14
     3d0:	1e000013 	mcrne	0, 0, r0, cr0, cr3, {0}
     3d4:	0e030034 	mcreq	0, 0, r0, cr3, cr4, {1}
     3d8:	053b0b3a 	ldreq	r0, [fp, #-2874]!	; 0xb3a
     3dc:	193f1349 	ldmdbne	pc!, {r0, r3, r6, r8, r9, ip}	; <UNPREDICTABLE>
     3e0:	0000193c 	andeq	r1, r0, ip, lsr r9
     3e4:	0300341f 	movweq	r3, #1055	; 0x41f
     3e8:	3b0b3a0e 	blcc	2cec28 <__bss_end__+0x2c48b8>
     3ec:	3f13490b 	svccc	0x0013490b
     3f0:	00193c19 	andseq	r3, r9, r9, lsl ip
     3f4:	01042000 	mrseq	r2, (UNDEF: 4)
     3f8:	13490b0b 	movtne	r0, #39691	; 0x9b0b
     3fc:	0b3b0b3a 	bleq	ec30ec <__bss_end__+0xeb8d7c>
     400:	00001301 	andeq	r1, r0, r1, lsl #6
     404:	03002821 	movweq	r2, #2081	; 0x821
     408:	000b1c0e 	andeq	r1, fp, lr, lsl #24
     40c:	000d2200 	andeq	r2, sp, r0, lsl #4
     410:	0b3a0e03 	bleq	e83c24 <__bss_end__+0xe798b4>
     414:	13490b3b 	movtne	r0, #39739	; 0x9b3b
     418:	0b0d0b0b 	bleq	34304c <__bss_end__+0x338cdc>
     41c:	0b380b0c 	bleq	e03054 <__bss_end__+0xdf8ce4>
     420:	0d230000 	stceq	0, cr0, [r3, #-0]
     424:	3a080300 	bcc	20102c <__bss_end__+0x1f6cbc>
     428:	490b3b0b 	stmdbmi	fp, {r0, r1, r3, r8, r9, fp, ip, sp}
     42c:	0d0b0b13 	vstreq	d0, [fp, #-76]	; 0xffffffb4
     430:	380b0c0b 	stmdacc	fp, {r0, r1, r3, sl, fp}
     434:	2400000b 	strcs	r0, [r0], #-11
     438:	13490035 	movtne	r0, #36917	; 0x9035
     43c:	34250000 	strtcc	r0, [r5], #-0
     440:	3a080300 	bcc	201048 <__bss_end__+0x1f6cd8>
     444:	490b3b0b 	stmdbmi	fp, {r0, r1, r3, r8, r9, fp, ip, sp}
     448:	26000013 			; <UNDEFINED> instruction: 0x26000013
     44c:	0e030034 	mcreq	0, 0, r0, cr3, cr4, {1}
     450:	053b0b3a 	ldreq	r0, [fp, #-2874]!	; 0xb3a
     454:	18021349 	stmdane	r2, {r0, r3, r6, r8, r9, ip}
     458:	2e270000 	cdpcs	0, 2, cr0, cr7, cr0, {0}
     45c:	3a0e0301 	bcc	381068 <__bss_end__+0x376cf8>
     460:	27053b0b 	strcs	r3, [r5, -fp, lsl #22]
     464:	12011119 	andne	r1, r1, #1073741830	; 0x40000006
     468:	97184006 	ldrls	r4, [r8, -r6]
     46c:	13011942 	movwne	r1, #6466	; 0x1942
     470:	34280000 	strtcc	r0, [r8], #-0
     474:	490e0300 	stmdbmi	lr, {r8, r9}
     478:	02193413 	andseq	r3, r9, #318767104	; 0x13000000
     47c:	29000018 	stmdbcs	r0, {r3, r4}
     480:	1301010b 	movwne	r0, #4363	; 0x110b
     484:	172a0000 	strne	r0, [sl, -r0]!
     488:	0b080301 	bleq	201094 <__bss_end__+0x1f6d24>
     48c:	3b0b3a0b 	blcc	2cecc0 <__bss_end__+0x2c4950>
     490:	00130105 	andseq	r0, r3, r5, lsl #2
     494:	000d2b00 	andeq	r2, sp, r0, lsl #22
     498:	0b3a0803 	bleq	e824ac <__bss_end__+0xe7813c>
     49c:	1349053b 	movtne	r0, #38203	; 0x953b
     4a0:	342c0000 	strtcc	r0, [ip], #-0
     4a4:	3a080300 	bcc	2010ac <__bss_end__+0x1f6d3c>
     4a8:	49053b0b 	stmdbmi	r5, {r0, r1, r3, r8, r9, fp, ip, sp}
     4ac:	2d000013 	stccs	0, cr0, [r0, #-76]	; 0xffffffb4
     4b0:	0e030034 	mcreq	0, 0, r0, cr3, cr4, {1}
     4b4:	053b0b3a 	ldreq	r0, [fp, #-2874]!	; 0xb3a
     4b8:	00001349 	andeq	r1, r0, r9, asr #6
     4bc:	11010b2e 	tstne	r1, lr, lsr #22
     4c0:	00061201 	andeq	r1, r6, r1, lsl #4
     4c4:	00342f00 	eorseq	r2, r4, r0, lsl #30
     4c8:	0b3a0803 	bleq	e824dc <__bss_end__+0xe7816c>
     4cc:	1349053b 	movtne	r0, #38203	; 0x953b
     4d0:	0000051c 	andeq	r0, r0, ip, lsl r5
     4d4:	3f012e30 	svccc	0x00012e30
     4d8:	3a0e0319 	bcc	381144 <__bss_end__+0x376dd4>
     4dc:	27053b0b 	strcs	r3, [r5, -fp, lsl #22]
     4e0:	12011119 	andne	r1, r1, #1073741830	; 0x40000006
     4e4:	97184006 	ldrls	r4, [r8, -r6]
     4e8:	13011942 	movwne	r1, #6466	; 0x1942
     4ec:	34310000 	ldrtcc	r0, [r1], #-0
     4f0:	3a080300 	bcc	2010f8 <__bss_end__+0x1f6d88>
     4f4:	49053b0b 	stmdbmi	r5, {r0, r1, r3, r8, r9, fp, ip, sp}
     4f8:	000b1c13 	andeq	r1, fp, r3, lsl ip
     4fc:	82893200 	addhi	r3, r9, #0, 4
     500:	01110001 	tsteq	r1, r1
     504:	00001331 	andeq	r1, r0, r1, lsr r3
     508:	01828933 	orreq	r8, r2, r3, lsr r9
     50c:	31011101 	tstcc	r1, r1, lsl #2
     510:	00130113 	andseq	r0, r3, r3, lsl r1
     514:	828a3400 	addhi	r3, sl, #0, 8
     518:	18020001 	stmdane	r2, {r0}
     51c:	00184291 	mulseq	r8, r1, r2
     520:	002e3500 	eoreq	r3, lr, r0, lsl #10
     524:	0e03193f 	mcreq	9, 0, r1, cr3, cr15, {1}
     528:	053b0b3a 	ldreq	r0, [fp, #-2874]!	; 0xb3a
     52c:	13491927 	movtne	r1, #39207	; 0x9927
     530:	06120111 			; <UNDEFINED> instruction: 0x06120111
     534:	42971840 	addsmi	r1, r7, #64, 16	; 0x400000
     538:	36000019 			; <UNDEFINED> instruction: 0x36000019
     53c:	193f012e 	ldmdbne	pc!, {r1, r2, r3, r5, r8}	; <UNPREDICTABLE>
     540:	0b3a0e03 	bleq	e83d54 <__bss_end__+0xe799e4>
     544:	1927053b 	stmdbne	r7!, {r0, r1, r3, r4, r5, r8, sl}
     548:	01111349 	tsteq	r1, r9, asr #6
     54c:	18400612 	stmdane	r0, {r1, r4, r9, sl}^
     550:	01194297 			; <UNDEFINED> instruction: 0x01194297
     554:	37000013 	smladcc	r0, r3, r0, r0
     558:	0e030005 	cdpeq	0, 0, cr0, cr3, cr5, {0}
     55c:	053b0b3a 	ldreq	r0, [fp, #-2874]!	; 0xb3a
     560:	17021349 	strne	r1, [r2, -r9, asr #6]
     564:	0b380000 	bleq	e0056c <__bss_end__+0xdf61fc>
     568:	12011101 	andne	r1, r1, #1073741824	; 0x40000000
     56c:	00130106 	andseq	r0, r3, r6, lsl #2
     570:	00343900 	eorseq	r3, r4, r0, lsl #18
     574:	0b3a0803 	bleq	e82588 <__bss_end__+0xe78218>
     578:	1349053b 	movtne	r0, #38203	; 0x953b
     57c:	00001702 	andeq	r1, r0, r2, lsl #14
     580:	03012e3a 	movweq	r2, #7738	; 0x1e3a
     584:	3b0b3a0e 	blcc	2cedc4 <__bss_end__+0x2c4a54>
     588:	1119270b 	tstne	r9, fp, lsl #14
     58c:	40061201 	andmi	r1, r6, r1, lsl #4
     590:	19429718 	stmdbne	r2, {r3, r4, r8, r9, sl, ip, pc}^
     594:	00001301 	andeq	r1, r0, r1, lsl #6
     598:	0300053b 	movweq	r0, #1339	; 0x53b
     59c:	3b0b3a0e 	blcc	2ceddc <__bss_end__+0x2c4a6c>
     5a0:	0213490b 	andseq	r4, r3, #180224	; 0x2c000
     5a4:	3c000017 	stccc	0, cr0, [r0], {23}
     5a8:	08030034 	stmdaeq	r3, {r2, r4, r5}
     5ac:	0b3b0b3a 	bleq	ec329c <__bss_end__+0xeb8f2c>
     5b0:	17021349 	strne	r1, [r2, -r9, asr #6]
     5b4:	173d0000 	ldrne	r0, [sp, -r0]!
     5b8:	0b080301 	bleq	2011c4 <__bss_end__+0x1f6e54>
     5bc:	3b0b3a0b 	blcc	2cedf0 <__bss_end__+0x2c4a80>
     5c0:	0013010b 	andseq	r0, r3, fp, lsl #2
     5c4:	000d3e00 	andeq	r3, sp, r0, lsl #28
     5c8:	0b3a0803 	bleq	e825dc <__bss_end__+0xe7826c>
     5cc:	13490b3b 	movtne	r0, #39739	; 0x9b3b
     5d0:	893f0000 	ldmdbhi	pc!, {}	; <UNPREDICTABLE>
     5d4:	11010182 	smlabbne	r1, r2, r1, r0
     5d8:	00133101 	andseq	r3, r3, r1, lsl #2
     5dc:	012e4000 	teqeq	lr, r0
     5e0:	0b3a0e03 	bleq	e83df4 <__bss_end__+0xe79a84>
     5e4:	19270b3b 	stmdbne	r7!, {r0, r1, r3, r4, r5, r8, r9, fp}
     5e8:	01111349 	tsteq	r1, r9, asr #6
     5ec:	18400612 	stmdane	r0, {r1, r4, r9, sl}^
     5f0:	01194297 			; <UNDEFINED> instruction: 0x01194297
     5f4:	41000013 	tstmi	r0, r3, lsl r0
     5f8:	08030005 	stmdaeq	r3, {r0, r2}
     5fc:	0b3b0b3a 	bleq	ec32ec <__bss_end__+0xeb8f7c>
     600:	17021349 	strne	r1, [r2, -r9, asr #6]
     604:	2e420000 	cdpcs	0, 4, cr0, cr2, cr0, {0}
     608:	3c193f00 	ldccc	15, cr3, [r9], {-0}
     60c:	030e6e19 	movweq	r6, #60953	; 0xee19
     610:	3b0b3a0e 	blcc	2cee50 <__bss_end__+0x2c4ae0>
     614:	0000000b 	andeq	r0, r0, fp
     618:	25011101 	strcs	r1, [r1, #-257]	; 0x101
     61c:	030b130e 	movweq	r1, #45838	; 0xb30e
     620:	110e1b0e 	tstne	lr, lr, lsl #22
     624:	10061201 	andne	r1, r6, r1, lsl #4
     628:	02000017 	andeq	r0, r0, #23
     62c:	0e030016 	mcreq	0, 0, r0, cr3, cr6, {0}
     630:	0b3b0b3a 	bleq	ec3320 <__bss_end__+0xeb8fb0>
     634:	00001349 	andeq	r1, r0, r9, asr #6
     638:	03011303 	movweq	r1, #4867	; 0x1303
     63c:	3a0b0b0e 	bcc	2c327c <__bss_end__+0x2b8f0c>
     640:	010b3b0b 	tsteq	fp, fp, lsl #22
     644:	04000013 	streq	r0, [r0], #-19
     648:	0e03000d 	cdpeq	0, 0, cr0, cr3, cr13, {0}
     64c:	0b381349 	bleq	e05378 <__bss_end__+0xdfb008>
     650:	00001934 	andeq	r1, r0, r4, lsr r9
     654:	0b000f05 	bleq	4270 <_start-0x3d90>
     658:	0600000b 	streq	r0, [r0], -fp
     65c:	0b0b0024 	bleq	2c06f4 <__bss_end__+0x2b6384>
     660:	08030b3e 	stmdaeq	r3, {r1, r2, r3, r4, r5, r8, r9, fp}
     664:	24070000 	strcs	r0, [r7], #-0
     668:	3e0b0b00 	vmlacc.f64	d0, d11, d0
     66c:	000e030b 	andeq	r0, lr, fp, lsl #6
     670:	000f0800 	andeq	r0, pc, r0, lsl #16
     674:	13490b0b 	movtne	r0, #39691	; 0x9b0b
     678:	26090000 	strcs	r0, [r9], -r0
     67c:	00134900 	andseq	r4, r3, r0, lsl #18
     680:	012e0a00 	teqeq	lr, r0, lsl #20
     684:	0e03193f 	mcreq	9, 0, r1, cr3, cr15, {1}
     688:	0b3b0b3a 	bleq	ec3378 <__bss_end__+0xeb9008>
     68c:	13491927 	movtne	r1, #39207	; 0x9927
     690:	06120111 			; <UNDEFINED> instruction: 0x06120111
     694:	42971840 	addsmi	r1, r7, #64, 16	; 0x400000
     698:	00130119 	andseq	r0, r3, r9, lsl r1
     69c:	00050b00 	andeq	r0, r5, r0, lsl #22
     6a0:	0b3a0803 	bleq	e826b4 <__bss_end__+0xe78344>
     6a4:	13490b3b 	movtne	r0, #39739	; 0x9b3b
     6a8:	00001802 	andeq	r1, r0, r2, lsl #16
     6ac:	0000180c 	andeq	r1, r0, ip, lsl #16
     6b0:	00340d00 	eorseq	r0, r4, r0, lsl #26
     6b4:	0b3a0803 	bleq	e826c8 <__bss_end__+0xe78358>
     6b8:	13490b3b 	movtne	r0, #39739	; 0x9b3b
     6bc:	00001802 	andeq	r1, r0, r2, lsl #16
     6c0:	0300340e 	movweq	r3, #1038	; 0x40e
     6c4:	3b0b3a0e 	blcc	2cef04 <__bss_end__+0x2c4b94>
     6c8:	0213490b 	andseq	r4, r3, #180224	; 0x2c000
     6cc:	0f000018 	svceq	0x00000018
     6d0:	08030034 	stmdaeq	r3, {r2, r4, r5}
     6d4:	0b3b0b3a 	bleq	ec33c4 <__bss_end__+0xeb9054>
     6d8:	17021349 	strne	r1, [r2, -r9, asr #6]
     6dc:	89100000 	ldmdbhi	r0, {}	; <UNPREDICTABLE>
     6e0:	11010182 	smlabbne	r1, r2, r1, r0
     6e4:	01133101 	tsteq	r3, r1, lsl #2
     6e8:	11000013 	tstne	r0, r3, lsl r0
     6ec:	0001828a 	andeq	r8, r1, sl, lsl #5
     6f0:	42911802 	addsmi	r1, r1, #131072	; 0x20000
     6f4:	12000018 	andne	r0, r0, #24
     6f8:	01018289 	smlabbeq	r1, r9, r2, r8
     6fc:	00000111 	andeq	r0, r0, r1, lsl r1
     700:	49010113 	stmdbmi	r1, {r0, r1, r4, r8}
     704:	00130113 	andseq	r0, r3, r3, lsl r1
     708:	00211400 	eoreq	r1, r1, r0, lsl #8
     70c:	052f1349 	streq	r1, [pc, #-841]!	; 3cb <_start-0x7c35>
     710:	15150000 	ldrne	r0, [r5, #-0]
     714:	49192701 	ldmdbmi	r9, {r0, r8, r9, sl, sp}
     718:	00130113 	andseq	r0, r3, r3, lsl r1
     71c:	00051600 	andeq	r1, r5, r0, lsl #12
     720:	00001349 	andeq	r1, r0, r9, asr #6
     724:	03003417 	movweq	r3, #1047	; 0x417
     728:	3b0b3a0e 	blcc	2cef68 <__bss_end__+0x2c4bf8>
     72c:	3f13490b 	svccc	0x0013490b
     730:	00193c19 	andseq	r3, r9, r9, lsl ip
     734:	012e1800 	teqeq	lr, r0, lsl #16
     738:	0e03193f 	mcreq	9, 0, r1, cr3, cr15, {1}
     73c:	0b3b0b3a 	bleq	ec342c <__bss_end__+0xeb90bc>
     740:	13491927 	movtne	r1, #39207	; 0x9927
     744:	0000193c 	andeq	r1, r0, ip, lsr r9
     748:	01110100 	tsteq	r1, r0, lsl #2
     74c:	0b130e25 	bleq	4c3fe8 <__bss_end__+0x4b9c78>
     750:	0e1b0e03 	cdpeq	14, 1, cr0, cr11, cr3, {0}
     754:	06120111 			; <UNDEFINED> instruction: 0x06120111
     758:	00001710 	andeq	r1, r0, r0, lsl r7
     75c:	0b002402 	bleq	976c <gpio_event_detected+0x74>
     760:	030b3e0b 	movweq	r3, #48651	; 0xbe0b
     764:	03000008 	movweq	r0, #8
     768:	0b0b0024 	bleq	2c0800 <__bss_end__+0x2b6490>
     76c:	0e030b3e 	vmoveq.16	d3[0], r0
     770:	2e040000 	cdpcs	0, 0, cr0, cr4, cr0, {0}
     774:	3a0e0301 	bcc	381380 <__bss_end__+0x377010>
     778:	270b3b0b 	strcs	r3, [fp, -fp, lsl #22]
     77c:	11134919 	tstne	r3, r9, lsl r9
     780:	40061201 	andmi	r1, r6, r1, lsl #4
     784:	19429718 	stmdbne	r2, {r3, r4, r8, r9, sl, ip, pc}^
     788:	00001301 	andeq	r1, r0, r1, lsl #6
     78c:	03000505 	movweq	r0, #1285	; 0x505
     790:	3b0b3a08 	blcc	2cefb8 <__bss_end__+0x2c4c48>
     794:	0213490b 	andseq	r4, r3, #180224	; 0x2c000
     798:	06000017 			; <UNDEFINED> instruction: 0x06000017
     79c:	01018289 	smlabbeq	r1, r9, r2, r8
     7a0:	13310111 	teqne	r1, #1073741828	; 0x40000004
     7a4:	8a070000 	bhi	1c07ac <__bss_end__+0x1b643c>
     7a8:	02000182 	andeq	r0, r0, #-2147483616	; 0x80000020
     7ac:	18429118 	stmdane	r2, {r3, r4, r8, ip, pc}^
     7b0:	2e080000 	cdpcs	0, 0, cr0, cr8, cr0, {0}
     7b4:	03193f00 	tsteq	r9, #0, 30
     7b8:	3b0b3a0e 	blcc	2ceff8 <__bss_end__+0x2c4c88>
     7bc:	1119270b 	tstne	r9, fp, lsl #14
     7c0:	40061201 	andmi	r1, r6, r1, lsl #4
     7c4:	19429718 	stmdbne	r2, {r3, r4, r8, r9, sl, ip, pc}^
     7c8:	2e090000 	cdpcs	0, 0, cr0, cr9, cr0, {0}
     7cc:	03193f01 	tsteq	r9, #1, 30
     7d0:	3b0b3a0e 	blcc	2cf010 <__bss_end__+0x2c4ca0>
     7d4:	1119270b 	tstne	r9, fp, lsl #14
     7d8:	40061201 	andmi	r1, r6, r1, lsl #4
     7dc:	19429718 	stmdbne	r2, {r3, r4, r8, r9, sl, ip, pc}^
     7e0:	00001301 	andeq	r1, r0, r1, lsl #6
     7e4:	0300050a 	movweq	r0, #1290	; 0x50a
     7e8:	3b0b3a08 	blcc	2cf010 <__bss_end__+0x2c4ca0>
     7ec:	0213490b 	andseq	r4, r3, #180224	; 0x2c000
     7f0:	0b000018 	bleq	858 <_start-0x77a8>
     7f4:	19270115 	stmdbne	r7!, {r0, r2, r4, r8}
     7f8:	13011349 	movwne	r1, #4937	; 0x1349
     7fc:	050c0000 	streq	r0, [ip, #-0]
     800:	00134900 	andseq	r4, r3, r0, lsl #18
     804:	000f0d00 	andeq	r0, pc, r0, lsl #26
     808:	13490b0b 	movtne	r0, #39691	; 0x9b0b
     80c:	340e0000 	strcc	r0, [lr], #-0
     810:	3a0e0300 	bcc	381418 <__bss_end__+0x3770a8>
     814:	490b3b0b 	stmdbmi	fp, {r0, r1, r3, r8, r9, fp, ip, sp}
     818:	02193f13 	andseq	r3, r9, #19, 30	; 0x4c
     81c:	0f000018 	svceq	0x00000018
     820:	193f012e 	ldmdbne	pc!, {r1, r2, r3, r5, r8}	; <UNPREDICTABLE>
     824:	0b3a0e03 	bleq	e84038 <__bss_end__+0xe79cc8>
     828:	19270b3b 	stmdbne	r7!, {r0, r1, r3, r4, r5, r8, r9, fp}
     82c:	0000193c 	andeq	r1, r0, ip, lsr r9
     830:	01110100 	tsteq	r1, r0, lsl #2
     834:	0b130e25 	bleq	4c40d0 <__bss_end__+0x4b9d60>
     838:	0e1b0e03 	cdpeq	14, 1, cr0, cr11, cr3, {0}
     83c:	06120111 			; <UNDEFINED> instruction: 0x06120111
     840:	00001710 	andeq	r1, r0, r0, lsl r7
     844:	0b002402 	bleq	9854 <uart_init+0x80>
     848:	030b3e0b 	movweq	r3, #48651	; 0xbe0b
     84c:	03000008 	movweq	r0, #8
     850:	0b0b0024 	bleq	2c08e8 <__bss_end__+0x2b6578>
     854:	0e030b3e 	vmoveq.16	d3[0], r0
     858:	0f040000 	svceq	0x00040000
     85c:	490b0b00 	stmdbmi	fp, {r8, r9, fp}
     860:	05000013 	streq	r0, [r0, #-19]
     864:	13490026 	movtne	r0, #36902	; 0x9026
     868:	2e060000 	cdpcs	0, 0, cr0, cr6, cr0, {0}
     86c:	03193f01 	tsteq	r9, #1, 30
     870:	3b0b3a0e 	blcc	2cf0b0 <__bss_end__+0x2c4d40>
     874:	4919270b 	ldmdbmi	r9, {r0, r1, r3, r8, r9, sl, sp}
     878:	12011113 	andne	r1, r1, #-1073741820	; 0xc0000004
     87c:	96184006 	ldrls	r4, [r8], -r6
     880:	13011942 	movwne	r1, #6466	; 0x1942
     884:	05070000 	streq	r0, [r7, #-0]
     888:	3a080300 	bcc	201490 <__bss_end__+0x1f7120>
     88c:	490b3b0b 	stmdbmi	fp, {r0, r1, r3, r8, r9, fp, ip, sp}
     890:	00170213 	andseq	r0, r7, r3, lsl r2
     894:	01150800 	tsteq	r5, r0, lsl #16
     898:	13491927 	movtne	r1, #39207	; 0x9927
     89c:	00001301 	andeq	r1, r0, r1, lsl #6
     8a0:	49000509 	stmdbmi	r0, {r0, r3, r8, sl}
     8a4:	0a000013 	beq	8f8 <_start-0x7708>
     8a8:	0e030034 	mcreq	0, 0, r0, cr3, cr4, {1}
     8ac:	0b3b0b3a 	bleq	ec359c <__bss_end__+0xeb922c>
     8b0:	193f1349 	ldmdbne	pc!, {r0, r3, r6, r8, r9, ip}	; <UNPREDICTABLE>
     8b4:	0000193c 	andeq	r1, r0, ip, lsr r9
     8b8:	0300340b 	movweq	r3, #1035	; 0x40b
     8bc:	3b0b3a0e 	blcc	2cf0fc <__bss_end__+0x2c4d8c>
     8c0:	3f13490b 	svccc	0x0013490b
     8c4:	00180219 	andseq	r0, r8, r9, lsl r2
     8c8:	11010000 	mrsne	r0, (UNDEF: 1)
     8cc:	130e2501 	movwne	r2, #58625	; 0xe501
     8d0:	1b0e030b 	blne	381504 <__bss_end__+0x377194>
     8d4:	1201110e 	andne	r1, r1, #-2147483645	; 0x80000003
     8d8:	00171006 	andseq	r1, r7, r6
     8dc:	00240200 	eoreq	r0, r4, r0, lsl #4
     8e0:	0b3e0b0b 	bleq	f83514 <__bss_end__+0xf791a4>
     8e4:	00000803 	andeq	r0, r0, r3, lsl #16
     8e8:	0b002403 	bleq	98fc <uart_has_data>
     8ec:	030b3e0b 	movweq	r3, #48651	; 0xbe0b
     8f0:	0400000e 	streq	r0, [r0], #-14
     8f4:	0b0b000f 	bleq	2c0938 <__bss_end__+0x2b65c8>
     8f8:	0f050000 	svceq	0x00050000
     8fc:	490b0b00 	stmdbmi	fp, {r8, r9, fp}
     900:	06000013 			; <UNDEFINED> instruction: 0x06000013
     904:	13490026 	movtne	r0, #36902	; 0x9026
     908:	16070000 	strne	r0, [r7], -r0
     90c:	3a0e0300 	bcc	381514 <__bss_end__+0x3771a4>
     910:	490b3b0b 	stmdbmi	fp, {r0, r1, r3, r8, r9, fp, ip, sp}
     914:	08000013 	stmdaeq	r0, {r0, r1, r4}
     918:	0e030113 	mcreq	1, 0, r0, cr3, cr3, {0}
     91c:	0b3a0b0b 	bleq	e83550 <__bss_end__+0xe791e0>
     920:	13010b3b 	movwne	r0, #6971	; 0x1b3b
     924:	0d090000 	stceq	0, cr0, [r9, #-0]
     928:	490e0300 	stmdbmi	lr, {r8, r9}
     92c:	340b3813 	strcc	r3, [fp], #-2067	; 0x813
     930:	0a000019 	beq	99c <_start-0x7664>
     934:	0e03012e 	adfeqsp	f0, f3, #0.5
     938:	0b3b0b3a 	bleq	ec3628 <__bss_end__+0xeb92b8>
     93c:	13491927 	movtne	r1, #39207	; 0x9927
     940:	06120111 			; <UNDEFINED> instruction: 0x06120111
     944:	42971840 	addsmi	r1, r7, #64, 16	; 0x400000
     948:	00130119 	andseq	r0, r3, r9, lsl r1
     94c:	00050b00 	andeq	r0, r5, r0, lsl #22
     950:	0b3a0803 	bleq	e82964 <__bss_end__+0xe785f4>
     954:	13490b3b 	movtne	r0, #39739	; 0x9b3b
     958:	00001702 	andeq	r1, r0, r2, lsl #14
     95c:	03012e0c 	movweq	r2, #7692	; 0x1e0c
     960:	3b0b3a08 	blcc	2cf188 <__bss_end__+0x2c4e18>
     964:	4919270b 	ldmdbmi	r9, {r0, r1, r3, r8, r9, sl, sp}
     968:	12011113 	andne	r1, r1, #-1073741820	; 0xc0000004
     96c:	97184006 	ldrls	r4, [r8, -r6]
     970:	13011942 	movwne	r1, #6466	; 0x1942
     974:	050d0000 	streq	r0, [sp, #-0]
     978:	3a0e0300 	bcc	381580 <__bss_end__+0x377210>
     97c:	490b3b0b 	stmdbmi	fp, {r0, r1, r3, r8, r9, fp, ip, sp}
     980:	00170213 	andseq	r0, r7, r3, lsl r2
     984:	00050e00 	andeq	r0, r5, r0, lsl #28
     988:	0b3a0e03 	bleq	e8419c <__bss_end__+0xe79e2c>
     98c:	13490b3b 	movtne	r0, #39739	; 0x9b3b
     990:	00001802 	andeq	r1, r0, r2, lsl #16
     994:	0300340f 	movweq	r3, #1039	; 0x40f
     998:	3b0b3a08 	blcc	2cf1c0 <__bss_end__+0x2c4e50>
     99c:	0213490b 	andseq	r4, r3, #180224	; 0x2c000
     9a0:	10000018 	andne	r0, r0, r8, lsl r0
     9a4:	08030034 	stmdaeq	r3, {r2, r4, r5}
     9a8:	0b3b0b3a 	bleq	ec3698 <__bss_end__+0xeb9328>
     9ac:	17021349 	strne	r1, [r2, -r9, asr #6]
     9b0:	34110000 	ldrcc	r0, [r1], #-0
     9b4:	490e0300 	stmdbmi	lr, {r8, r9}
     9b8:	02193413 	andseq	r3, r9, #318767104	; 0x13000000
     9bc:	12000018 	andne	r0, r0, #24
     9c0:	0111010b 	tsteq	r1, fp, lsl #2
     9c4:	13010612 	movwne	r0, #5650	; 0x1612
     9c8:	34130000 	ldrcc	r0, [r3], #-0
     9cc:	3a0e0300 	bcc	3815d4 <__bss_end__+0x377264>
     9d0:	490b3b0b 	stmdbmi	fp, {r0, r1, r3, r8, r9, fp, ip, sp}
     9d4:	00170213 	andseq	r0, r7, r3, lsl r2
     9d8:	82891400 	addhi	r1, r9, #0, 8
     9dc:	01110001 	tsteq	r1, r1
     9e0:	00001331 	andeq	r1, r0, r1, lsr r3
     9e4:	01828915 	orreq	r8, r2, r5, lsl r9
     9e8:	31011101 	tstcc	r1, r1, lsl #2
     9ec:	00130113 	andseq	r0, r3, r3, lsl r1
     9f0:	828a1600 	addhi	r1, sl, #0, 12
     9f4:	18020001 	stmdane	r2, {r0}
     9f8:	00184291 	mulseq	r8, r1, r2
     9fc:	82891700 	addhi	r1, r9, #0, 14
     a00:	01110101 	tsteq	r1, r1, lsl #2
     a04:	00001331 	andeq	r1, r0, r1, lsr r3
     a08:	49010118 	stmdbmi	r1, {r3, r4, r8}
     a0c:	00130113 	andseq	r0, r3, r3, lsl r1
     a10:	00211900 	eoreq	r1, r1, r0, lsl #18
     a14:	0b2f1349 	bleq	bc5740 <__bss_end__+0xbbb3d0>
     a18:	2e1a0000 	cdpcs	0, 1, cr0, cr10, cr0, {0}
     a1c:	03193f01 	tsteq	r9, #1, 30
     a20:	3b0b3a0e 	blcc	2cf260 <__bss_end__+0x2c4ef0>
     a24:	1119270b 	tstne	r9, fp, lsl #14
     a28:	40061201 	andmi	r1, r6, r1, lsl #4
     a2c:	19429718 	stmdbne	r2, {r3, r4, r8, r9, sl, ip, pc}^
     a30:	00001301 	andeq	r1, r0, r1, lsl #6
     a34:	2701151b 	smladcs	r1, fp, r5, r1
     a38:	01134919 	tsteq	r3, r9, lsl r9
     a3c:	1c000013 	stcne	0, cr0, [r0], {19}
     a40:	13490005 	movtne	r0, #36869	; 0x9005
     a44:	2e1d0000 	cdpcs	0, 1, cr0, cr13, cr0, {0}
     a48:	03193f01 	tsteq	r9, #1, 30
     a4c:	3b0b3a0e 	blcc	2cf28c <__bss_end__+0x2c4f1c>
     a50:	4919270b 	ldmdbmi	r9, {r0, r1, r3, r8, r9, sl, sp}
     a54:	12011113 	andne	r1, r1, #-1073741820	; 0xc0000004
     a58:	97184006 	ldrls	r4, [r8, -r6]
     a5c:	13011942 	movwne	r1, #6466	; 0x1942
     a60:	0b1e0000 	bleq	780a68 <__bss_end__+0x7766f8>
     a64:	00175501 	andseq	r5, r7, r1, lsl #10
     a68:	00341f00 	eorseq	r1, r4, r0, lsl #30
     a6c:	0b3a0e03 	bleq	e84280 <__bss_end__+0xe79f10>
     a70:	13490b3b 	movtne	r0, #39739	; 0x9b3b
     a74:	193c193f 	ldmdbne	ip!, {r0, r1, r2, r3, r4, r5, r8, fp, ip}
     a78:	2e200000 	cdpcs	0, 2, cr0, cr0, cr0, {0}
     a7c:	03193f00 	tsteq	r9, #0, 30
     a80:	3b0b3a0e 	blcc	2cf2c0 <__bss_end__+0x2c4f50>
     a84:	3c19270b 	ldccc	7, cr2, [r9], {11}
     a88:	21000019 	tstcs	r0, r9, lsl r0
     a8c:	193f012e 	ldmdbne	pc!, {r1, r2, r3, r5, r8}	; <UNPREDICTABLE>
     a90:	0b3a0e03 	bleq	e842a4 <__bss_end__+0xe79f34>
     a94:	19270b3b 	stmdbne	r7!, {r0, r1, r3, r4, r5, r8, r9, fp}
     a98:	193c1349 	ldmdbne	ip!, {r0, r3, r6, r8, r9, ip}
     a9c:	00001301 	andeq	r1, r0, r1, lsl #6
     aa0:	00001822 	andeq	r1, r0, r2, lsr #16
     aa4:	11010000 	mrsne	r0, (UNDEF: 1)
     aa8:	130e2501 	movwne	r2, #58625	; 0xe501
     aac:	1b0e030b 	blne	3816e0 <__bss_end__+0x377370>
     ab0:	1201110e 	andne	r1, r1, #-2147483645	; 0x80000003
     ab4:	00171006 	andseq	r1, r7, r6
     ab8:	00240200 	eoreq	r0, r4, r0, lsl #4
     abc:	0b3e0b0b 	bleq	f836f0 <__bss_end__+0xf79380>
     ac0:	00000803 	andeq	r0, r0, r3, lsl #16
     ac4:	0b002403 	bleq	9ad8 <__FUNCTION__.4440+0x9c>
     ac8:	030b3e0b 	movweq	r3, #48651	; 0xbe0b
     acc:	0400000e 	streq	r0, [r0], #-14
     ad0:	0b0b000f 	bleq	2c0b14 <__bss_end__+0x2b67a4>
     ad4:	00001349 	andeq	r1, r0, r9, asr #6
     ad8:	49002605 	stmdbmi	r0, {r0, r2, r9, sl, sp}
     adc:	06000013 			; <UNDEFINED> instruction: 0x06000013
     ae0:	193f012e 	ldmdbne	pc!, {r1, r2, r3, r5, r8}	; <UNPREDICTABLE>
     ae4:	0b3a0e03 	bleq	e842f8 <__bss_end__+0xe79f88>
     ae8:	19270b3b 	stmdbne	r7!, {r0, r1, r3, r4, r5, r8, r9, fp}
     aec:	06120111 			; <UNDEFINED> instruction: 0x06120111
     af0:	42971840 	addsmi	r1, r7, #64, 16	; 0x400000
     af4:	00130119 	andseq	r0, r3, r9, lsl r1
     af8:	82890700 	addhi	r0, r9, #0, 14
     afc:	01110101 	tsteq	r1, r1, lsl #2
     b00:	00001301 	andeq	r1, r0, r1, lsl #6
     b04:	01828a08 	orreq	r8, r2, r8, lsl #20
     b08:	91180200 	tstls	r8, r0, lsl #4
     b0c:	00001842 	andeq	r1, r0, r2, asr #16
     b10:	01828909 	orreq	r8, r2, r9, lsl #18
     b14:	31011101 	tstcc	r1, r1, lsl #2
     b18:	00130113 	andseq	r0, r3, r3, lsl r1
     b1c:	82890a00 	addhi	r0, r9, #0, 20
     b20:	01110001 	tsteq	r1, r1
     b24:	00001331 	andeq	r1, r0, r1, lsr r3
     b28:	2701150b 	strcs	r1, [r1, -fp, lsl #10]
     b2c:	01134919 	tsteq	r3, r9, lsl r9
     b30:	0c000013 	stceq	0, cr0, [r0], {19}
     b34:	13490005 	movtne	r0, #36869	; 0x9005
     b38:	340d0000 	strcc	r0, [sp], #-0
     b3c:	3a0e0300 	bcc	381744 <__bss_end__+0x3773d4>
     b40:	490b3b0b 	stmdbmi	fp, {r0, r1, r3, r8, r9, fp, ip, sp}
     b44:	3c193f13 	ldccc	15, cr3, [r9], {19}
     b48:	0e000019 	mcreq	0, 0, r0, cr0, cr9, {0}
     b4c:	193f012e 	ldmdbne	pc!, {r1, r2, r3, r5, r8}	; <UNPREDICTABLE>
     b50:	0b3a0e03 	bleq	e84364 <__bss_end__+0xe79ff4>
     b54:	19270b3b 	stmdbne	r7!, {r0, r1, r3, r4, r5, r8, r9, fp}
     b58:	1301193c 	movwne	r1, #6460	; 0x193c
     b5c:	2e0f0000 	cdpcs	0, 0, cr0, cr15, cr0, {0}
     b60:	03193f00 	tsteq	r9, #0, 30
     b64:	3b0b3a0e 	blcc	2cf3a4 <__bss_end__+0x2c5034>
     b68:	3c19270b 	ldccc	7, cr2, [r9], {11}
     b6c:	00000019 	andeq	r0, r0, r9, lsl r0
     b70:	25011101 	strcs	r1, [r1, #-257]	; 0x101
     b74:	030b130e 	movweq	r1, #45838	; 0xb30e
     b78:	110e1b0e 	tstne	lr, lr, lsl #22
     b7c:	10061201 	andne	r1, r6, r1, lsl #4
     b80:	02000017 	andeq	r0, r0, #23
     b84:	0b0b0024 	bleq	2c0c1c <__bss_end__+0x2b68ac>
     b88:	08030b3e 	stmdaeq	r3, {r1, r2, r3, r4, r5, r8, r9, fp}
     b8c:	24030000 	strcs	r0, [r3], #-0
     b90:	3e0b0b00 	vmlacc.f64	d0, d11, d0
     b94:	000e030b 	andeq	r0, lr, fp, lsl #6
     b98:	012e0400 	teqeq	lr, r0, lsl #8
     b9c:	0e03193f 	mcreq	9, 0, r1, cr3, cr15, {1}
     ba0:	0b3b0b3a 	bleq	ec3890 <__bss_end__+0xeb9520>
     ba4:	06120111 			; <UNDEFINED> instruction: 0x06120111
     ba8:	42971840 	addsmi	r1, r7, #64, 16	; 0x400000
     bac:	00130119 	andseq	r0, r3, r9, lsl r1
     bb0:	00340500 	eorseq	r0, r4, r0, lsl #10
     bb4:	0b3a0e03 	bleq	e843c8 <__bss_end__+0xe7a058>
     bb8:	13490b3b 	movtne	r0, #39739	; 0x9b3b
     bbc:	193c193f 	ldmdbne	ip!, {r0, r1, r2, r3, r4, r5, r8, fp, ip}
     bc0:	2e060000 	cdpcs	0, 0, cr0, cr6, cr0, {0}
     bc4:	03193f00 	tsteq	r9, #0, 30
     bc8:	3b0b3a0e 	blcc	2cf408 <__bss_end__+0x2c5098>
     bcc:	3c19270b 	ldccc	7, cr2, [r9], {11}
     bd0:	07000019 	smladeq	r0, r9, r0, r0
     bd4:	08030034 	stmdaeq	r3, {r2, r4, r5}
     bd8:	0b3b0b3a 	bleq	ec38c8 <__bss_end__+0xeb9558>
     bdc:	17021349 	strne	r1, [r2, -r9, asr #6]
     be0:	34080000 	strcc	r0, [r8], #-0
     be4:	3a0e0300 	bcc	3817ec <__bss_end__+0x37747c>
     be8:	490b3b0b 	stmdbmi	fp, {r0, r1, r3, r8, r9, fp, ip, sp}
     bec:	09000013 	stmdbeq	r0, {r0, r1, r4}
     bf0:	00018289 	andeq	r8, r1, r9, lsl #5
     bf4:	13310111 	teqne	r1, #1073741828	; 0x40000004
     bf8:	0f0a0000 	svceq	0x000a0000
     bfc:	490b0b00 	stmdbmi	fp, {r8, r9, fp}
     c00:	00000013 	andeq	r0, r0, r3, lsl r0
     c04:	25011101 	strcs	r1, [r1, #-257]	; 0x101
     c08:	030b130e 	movweq	r1, #45838	; 0xb30e
     c0c:	550e1b0e 	strpl	r1, [lr, #-2830]	; 0xb0e
     c10:	10011117 	andne	r1, r1, r7, lsl r1
     c14:	02000017 	andeq	r0, r0, #23
     c18:	0b0b0024 	bleq	2c0cb0 <__bss_end__+0x2b6940>
     c1c:	08030b3e 	stmdaeq	r3, {r1, r2, r3, r4, r5, r8, r9, fp}
     c20:	24030000 	strcs	r0, [r3], #-0
     c24:	3e0b0b00 	vmlacc.f64	d0, d11, d0
     c28:	000e030b 	andeq	r0, lr, fp, lsl #6
     c2c:	012e0400 	teqeq	lr, r0, lsl #8
     c30:	0e03193f 	mcreq	9, 0, r1, cr3, cr15, {1}
     c34:	0b3b0b3a 	bleq	ec3924 <__bss_end__+0xeb95b4>
     c38:	13491927 	movtne	r1, #39207	; 0x9927
     c3c:	06120111 			; <UNDEFINED> instruction: 0x06120111
     c40:	42971840 	addsmi	r1, r7, #64, 16	; 0x400000
     c44:	00130119 	andseq	r0, r3, r9, lsl r1
     c48:	00340500 	eorseq	r0, r4, r0, lsl #10
     c4c:	0b3a0e03 	bleq	e84460 <__bss_end__+0xe7a0f0>
     c50:	13490b3b 	movtne	r0, #39739	; 0x9b3b
     c54:	00001702 	andeq	r1, r0, r2, lsl #14
     c58:	3f012e06 	svccc	0x00012e06
     c5c:	3a0e0319 	bcc	3818c8 <__bss_end__+0x377558>
     c60:	270b3b0b 	strcs	r3, [fp, -fp, lsl #22]
     c64:	12011119 	andne	r1, r1, #1073741830	; 0x40000006
     c68:	97184006 	ldrls	r4, [r8, -r6]
     c6c:	13011942 	movwne	r1, #6466	; 0x1942
     c70:	34070000 	strcc	r0, [r7], #-0
     c74:	3a0e0300 	bcc	38187c <__bss_end__+0x37750c>
     c78:	490b3b0b 	stmdbmi	fp, {r0, r1, r3, r8, r9, fp, ip, sp}
     c7c:	00061c13 	andeq	r1, r6, r3, lsl ip
     c80:	00340800 	eorseq	r0, r4, r0, lsl #16
     c84:	0b3a0e03 	bleq	e84498 <__bss_end__+0xe7a128>
     c88:	13490b3b 	movtne	r0, #39739	; 0x9b3b
     c8c:	00000b1c 	andeq	r0, r0, ip, lsl fp
     c90:	01828909 	orreq	r8, r2, r9, lsl #18
     c94:	31011100 	mrscc	r1, (UNDEF: 17)
     c98:	0a000013 	beq	cec <_start-0x7314>
     c9c:	01018289 	smlabbeq	r1, r9, r2, r8
     ca0:	13310111 	teqne	r1, #1073741828	; 0x40000004
     ca4:	00001301 	andeq	r1, r0, r1, lsl #6
     ca8:	01828a0b 	orreq	r8, r2, fp, lsl #20
     cac:	91180200 	tstls	r8, r0, lsl #4
     cb0:	00001842 	andeq	r1, r0, r2, asr #16
     cb4:	0182890c 	orreq	r8, r2, ip, lsl #18
     cb8:	31011101 	tstcc	r1, r1, lsl #2
     cbc:	0d000013 	stceq	0, cr0, [r0, #-76]	; 0xffffffb4
     cc0:	13490026 	movtne	r0, #36902	; 0x9026
     cc4:	2e0e0000 	cdpcs	0, 0, cr0, cr14, cr0, {0}
     cc8:	03193f01 	tsteq	r9, #1, 30
     ccc:	3b0b3a0e 	blcc	2cf50c <__bss_end__+0x2c519c>
     cd0:	3c19270b 	ldccc	7, cr2, [r9], {11}
     cd4:	00130119 	andseq	r0, r3, r9, lsl r1
     cd8:	00050f00 	andeq	r0, r5, r0, lsl #30
     cdc:	00001349 	andeq	r1, r0, r9, asr #6
     ce0:	3f012e10 	svccc	0x00012e10
     ce4:	3a0e0319 	bcc	381950 <__bss_end__+0x3775e0>
     ce8:	270b3b0b 	strcs	r3, [fp, -fp, lsl #22]
     cec:	00193c19 	andseq	r3, r9, r9, lsl ip
     cf0:	11010000 	mrsne	r0, (UNDEF: 1)
     cf4:	130e2501 	movwne	r2, #58625	; 0xe501
     cf8:	1b0e030b 	blne	38192c <__bss_end__+0x3775bc>
     cfc:	1201110e 	andne	r1, r1, #-2147483645	; 0x80000003
     d00:	00171006 	andseq	r1, r7, r6
     d04:	00240200 	eoreq	r0, r4, r0, lsl #4
     d08:	0b3e0b0b 	bleq	f8393c <__bss_end__+0xf795cc>
     d0c:	00000803 	andeq	r0, r0, r3, lsl #16
     d10:	0b002403 	bleq	9d24 <__FUNCTION__.4407+0xe0>
     d14:	030b3e0b 	movweq	r3, #48651	; 0xbe0b
     d18:	0400000e 	streq	r0, [r0], #-14
     d1c:	193f012e 	ldmdbne	pc!, {r1, r2, r3, r5, r8}	; <UNPREDICTABLE>
     d20:	0b3a0e03 	bleq	e84534 <__bss_end__+0xe7a1c4>
     d24:	19270b3b 	stmdbne	r7!, {r0, r1, r3, r4, r5, r8, r9, fp}
     d28:	06120111 			; <UNDEFINED> instruction: 0x06120111
     d2c:	42971840 	addsmi	r1, r7, #64, 16	; 0x400000
     d30:	00130119 	andseq	r0, r3, r9, lsl r1
     d34:	00050500 	andeq	r0, r5, r0, lsl #10
     d38:	0b3a0e03 	bleq	e8454c <__bss_end__+0xe7a1dc>
     d3c:	13490b3b 	movtne	r0, #39739	; 0x9b3b
     d40:	00001702 	andeq	r1, r0, r2, lsl #14
     d44:	3f012e06 	svccc	0x00012e06
     d48:	3a0e0319 	bcc	3819b4 <__bss_end__+0x377644>
     d4c:	270b3b0b 	strcs	r3, [fp, -fp, lsl #22]
     d50:	11134919 	tstne	r3, r9, lsl r9
     d54:	40061201 	andmi	r1, r6, r1, lsl #4
     d58:	19429718 	stmdbne	r2, {r3, r4, r8, r9, sl, ip, pc}^
     d5c:	00001301 	andeq	r1, r0, r1, lsl #6
     d60:	01828907 	orreq	r8, r2, r7, lsl #18
     d64:	31011101 	tstcc	r1, r1, lsl #2
     d68:	08000013 	stmdaeq	r0, {r0, r1, r4}
     d6c:	0001828a 	andeq	r8, r1, sl, lsl #5
     d70:	42911802 	addsmi	r1, r1, #131072	; 0x20000
     d74:	09000018 	stmdbeq	r0, {r3, r4}
     d78:	08030034 	stmdaeq	r3, {r2, r4, r5}
     d7c:	0b3b0b3a 	bleq	ec3a6c <__bss_end__+0xeb96fc>
     d80:	18021349 	stmdane	r2, {r0, r3, r6, r8, r9, ip}
     d84:	890a0000 	stmdbhi	sl, {}	; <UNPREDICTABLE>
     d88:	11000182 	smlabbne	r0, r2, r1, r0
     d8c:	00133101 	andseq	r3, r3, r1, lsl #2
     d90:	00050b00 	andeq	r0, r5, r0, lsl #22
     d94:	0b3a0803 	bleq	e82da8 <__bss_end__+0xe78a38>
     d98:	13490b3b 	movtne	r0, #39739	; 0x9b3b
     d9c:	00001702 	andeq	r1, r0, r2, lsl #14
     da0:	11010b0c 	tstne	r1, ip, lsl #22
     da4:	01061201 	tsteq	r6, r1, lsl #4
     da8:	0d000013 	stceq	0, cr0, [r0, #-76]	; 0xffffffb4
     dac:	08030034 	stmdaeq	r3, {r2, r4, r5}
     db0:	0b3b0b3a 	bleq	ec3aa0 <__bss_end__+0xeb9730>
     db4:	17021349 	strne	r1, [r2, -r9, asr #6]
     db8:	2e0e0000 	cdpcs	0, 0, cr0, cr14, cr0, {0}
     dbc:	03193f01 	tsteq	r9, #1, 30
     dc0:	3b0b3a0e 	blcc	2cf600 <__bss_end__+0x2c5290>
     dc4:	4919270b 	ldmdbmi	r9, {r0, r1, r3, r8, r9, sl, sp}
     dc8:	00193c13 	andseq	r3, r9, r3, lsl ip
     dcc:	00050f00 	andeq	r0, r5, r0, lsl #30
     dd0:	00001349 	andeq	r1, r0, r9, asr #6
     dd4:	01110100 	tsteq	r1, r0, lsl #2
     dd8:	0b130e25 	bleq	4c4674 <__bss_end__+0x4ba304>
     ddc:	0e1b0e03 	cdpeq	14, 1, cr0, cr11, cr3, {0}
     de0:	06120111 			; <UNDEFINED> instruction: 0x06120111
     de4:	00001710 	andeq	r1, r0, r0, lsl r7
     de8:	0b002402 	bleq	9df8 <__FUNCTION__.4407+0x1b4>
     dec:	030b3e0b 	movweq	r3, #48651	; 0xbe0b
     df0:	0300000e 	movweq	r0, #14
     df4:	0b0b0024 	bleq	2c0e8c <__bss_end__+0x2b6b1c>
     df8:	08030b3e 	stmdaeq	r3, {r1, r2, r3, r4, r5, r8, r9, fp}
     dfc:	04040000 	streq	r0, [r4], #-0
     e00:	3a0b0b01 	bcc	2c3a0c <__bss_end__+0x2b969c>
     e04:	010b3b0b 	tsteq	fp, fp, lsl #22
     e08:	05000013 	streq	r0, [r0, #-19]
     e0c:	0e030028 	cdpeq	0, 0, cr0, cr3, cr8, {1}
     e10:	00000d1c 	andeq	r0, r0, ip, lsl sp
     e14:	03001606 	movweq	r1, #1542	; 0x606
     e18:	3b0b3a0e 	blcc	2cf658 <__bss_end__+0x2c52e8>
     e1c:	0013490b 	andseq	r4, r3, fp, lsl #18
     e20:	012e0700 	teqeq	lr, r0, lsl #14
     e24:	0e03193f 	mcreq	9, 0, r1, cr3, cr15, {1}
     e28:	0b3b0b3a 	bleq	ec3b18 <__bss_end__+0xeb97a8>
     e2c:	01111927 	tsteq	r1, r7, lsr #18
     e30:	18400612 	stmdane	r0, {r1, r4, r9, sl}^
     e34:	01194297 			; <UNDEFINED> instruction: 0x01194297
     e38:	08000013 	stmdaeq	r0, {r0, r1, r4}
     e3c:	08030005 	stmdaeq	r3, {r0, r2}
     e40:	0b3b0b3a 	bleq	ec3b30 <__bss_end__+0xeb97c0>
     e44:	17021349 	strne	r1, [r2, -r9, asr #6]
     e48:	34090000 	strcc	r0, [r9], #-0
     e4c:	3a0e0300 	bcc	381a54 <__bss_end__+0x3776e4>
     e50:	490b3b0b 	stmdbmi	fp, {r0, r1, r3, r8, r9, fp, ip, sp}
     e54:	00170213 	andseq	r0, r7, r3, lsl r2
     e58:	82890a00 	addhi	r0, r9, #0, 20
     e5c:	01110101 	tsteq	r1, r1, lsl #2
     e60:	13011331 	movwne	r1, #4913	; 0x1331
     e64:	8a0b0000 	bhi	2c0e6c <__bss_end__+0x2b6afc>
     e68:	02000182 	andeq	r0, r0, #-2147483616	; 0x80000020
     e6c:	18429118 	stmdane	r2, {r3, r4, r8, ip, pc}^
     e70:	890c0000 	stmdbhi	ip, {}	; <UNPREDICTABLE>
     e74:	11010182 	smlabbne	r1, r2, r1, r0
     e78:	00133101 	andseq	r3, r3, r1, lsl #2
     e7c:	000f0d00 	andeq	r0, pc, r0, lsl #26
     e80:	13490b0b 	movtne	r0, #39691	; 0x9b0b
     e84:	350e0000 	strcc	r0, [lr, #-0]
     e88:	00134900 	andseq	r4, r3, r0, lsl #18
     e8c:	012e0f00 	teqeq	lr, r0, lsl #30
     e90:	0e03193f 	mcreq	9, 0, r1, cr3, cr15, {1}
     e94:	0b3b0b3a 	bleq	ec3b84 <__bss_end__+0xeb9814>
     e98:	13491927 	movtne	r1, #39207	; 0x9927
     e9c:	06120111 			; <UNDEFINED> instruction: 0x06120111
     ea0:	42971840 	addsmi	r1, r7, #64, 16	; 0x400000
     ea4:	00130119 	andseq	r0, r3, r9, lsl r1
     ea8:	00341000 	eorseq	r1, r4, r0
     eac:	0b3a0803 	bleq	e82ec0 <__bss_end__+0xe78b50>
     eb0:	13490b3b 	movtne	r0, #39739	; 0x9b3b
     eb4:	00001702 	andeq	r1, r0, r2, lsl #14
     eb8:	01828911 	orreq	r8, r2, r1, lsl r9
     ebc:	31011100 	mrscc	r1, (UNDEF: 17)
     ec0:	12000013 	andne	r0, r0, #19
     ec4:	0e030005 	cdpeq	0, 0, cr0, cr3, cr5, {0}
     ec8:	0b3b0b3a 	bleq	ec3bb8 <__bss_end__+0xeb9848>
     ecc:	17021349 	strne	r1, [r2, -r9, asr #6]
     ed0:	2e130000 	cdpcs	0, 1, cr0, cr3, cr0, {0}
     ed4:	03193f01 	tsteq	r9, #1, 30
     ed8:	3b0b3a0e 	blcc	2cf718 <__bss_end__+0x2c53a8>
     edc:	49192705 	ldmdbmi	r9, {r0, r2, r8, r9, sl, sp}
     ee0:	12011113 	andne	r1, r1, #-1073741820	; 0xc0000004
     ee4:	97184006 	ldrls	r4, [r8, -r6]
     ee8:	13011942 	movwne	r1, #6466	; 0x1942
     eec:	05140000 	ldreq	r0, [r4, #-0]
     ef0:	3a0e0300 	bcc	381af8 <__bss_end__+0x377788>
     ef4:	49053b0b 	stmdbmi	r5, {r0, r1, r3, r8, r9, fp, ip, sp}
     ef8:	00170213 	andseq	r0, r7, r3, lsl r2
     efc:	012e1500 	teqeq	lr, r0, lsl #10
     f00:	0e03193f 	mcreq	9, 0, r1, cr3, cr15, {1}
     f04:	053b0b3a 	ldreq	r0, [fp, #-2874]!	; 0xb3a
     f08:	01111927 	tsteq	r1, r7, lsr #18
     f0c:	18400612 	stmdane	r0, {r1, r4, r9, sl}^
     f10:	01194297 			; <UNDEFINED> instruction: 0x01194297
     f14:	16000013 			; <UNDEFINED> instruction: 0x16000013
     f18:	08030005 	stmdaeq	r3, {r0, r2}
     f1c:	053b0b3a 	ldreq	r0, [fp, #-2874]!	; 0xb3a
     f20:	17021349 	strne	r1, [r2, -r9, asr #6]
     f24:	34170000 	ldrcc	r0, [r7], #-0
     f28:	3a0e0300 	bcc	381b30 <__bss_end__+0x3777c0>
     f2c:	49053b0b 	stmdbmi	r5, {r0, r1, r3, r8, r9, fp, ip, sp}
     f30:	00170213 	andseq	r0, r7, r3, lsl r2
     f34:	010b1800 	tsteq	fp, r0, lsl #16
     f38:	06120111 			; <UNDEFINED> instruction: 0x06120111
     f3c:	00001301 	andeq	r1, r0, r1, lsl #6
     f40:	03003419 	movweq	r3, #1049	; 0x419
     f44:	3b0b3a0e 	blcc	2cf784 <__bss_end__+0x2c5414>
     f48:	3f13490b 	svccc	0x0013490b
     f4c:	00180219 	andseq	r0, r8, r9, lsl r2
     f50:	00341a00 	eorseq	r1, r4, r0, lsl #20
     f54:	0b3a0e03 	bleq	e84768 <__bss_end__+0xe7a3f8>
     f58:	1349053b 	movtne	r0, #38203	; 0x953b
     f5c:	1802193f 	stmdane	r2, {r0, r1, r2, r3, r4, r5, r8, fp, ip}
     f60:	2e1b0000 	cdpcs	0, 1, cr0, cr11, cr0, {0}
     f64:	03193f01 	tsteq	r9, #1, 30
     f68:	3b0b3a0e 	blcc	2cf7a8 <__bss_end__+0x2c5438>
     f6c:	4919270b 	ldmdbmi	r9, {r0, r1, r3, r8, r9, sl, sp}
     f70:	01193c13 	tsteq	r9, r3, lsl ip
     f74:	1c000013 	stcne	0, cr0, [r0], {19}
     f78:	13490005 	movtne	r0, #36869	; 0x9005
     f7c:	261d0000 	ldrcs	r0, [sp], -r0
     f80:	00134900 	andseq	r4, r3, r0, lsl #18
     f84:	00351e00 	eorseq	r1, r5, r0, lsl #28
     f88:	2e1f0000 	cdpcs	0, 1, cr0, cr15, cr0, {0}
     f8c:	03193f01 	tsteq	r9, #1, 30
     f90:	3b0b3a0e 	blcc	2cf7d0 <__bss_end__+0x2c5460>
     f94:	3c19270b 	ldccc	7, cr2, [r9], {11}
     f98:	00130119 	andseq	r0, r3, r9, lsl r1
     f9c:	002e2000 	eoreq	r2, lr, r0
     fa0:	0e03193f 	mcreq	9, 0, r1, cr3, cr15, {1}
     fa4:	0b3b0b3a 	bleq	ec3c94 <__bss_end__+0xeb9924>
     fa8:	193c1927 	ldmdbne	ip!, {r0, r1, r2, r5, r8, fp, ip}
     fac:	01000000 	mrseq	r0, (UNDEF: 0)
     fb0:	0e250111 	mcreq	1, 1, r0, cr5, cr1, {0}
     fb4:	0e030b13 	vmoveq.32	d3[0], r0
     fb8:	01110e1b 	tsteq	r1, fp, lsl lr
     fbc:	17100612 			; <UNDEFINED> instruction: 0x17100612
     fc0:	24020000 	strcs	r0, [r2], #-0
     fc4:	3e0b0b00 	vmlacc.f64	d0, d11, d0
     fc8:	0008030b 	andeq	r0, r8, fp, lsl #6
     fcc:	00240300 	eoreq	r0, r4, r0, lsl #6
     fd0:	0b3e0b0b 	bleq	f83c04 <__bss_end__+0xf79894>
     fd4:	00000e03 	andeq	r0, r0, r3, lsl #28
     fd8:	0b010404 	bleq	41ff0 <__bss_end__+0x37c80>
     fdc:	3b0b3a0b 	blcc	2cf810 <__bss_end__+0x2c54a0>
     fe0:	0013010b 	andseq	r0, r3, fp, lsl #2
     fe4:	00280500 	eoreq	r0, r8, r0, lsl #10
     fe8:	0d1c0e03 	ldceq	14, cr0, [ip, #-12]
     fec:	16060000 	strne	r0, [r6], -r0
     ff0:	3a0e0300 	bcc	381bf8 <__bss_end__+0x377888>
     ff4:	490b3b0b 	stmdbmi	fp, {r0, r1, r3, r8, r9, fp, ip, sp}
     ff8:	07000013 	smladeq	r0, r3, r0, r0
     ffc:	193f012e 	ldmdbne	pc!, {r1, r2, r3, r5, r8}	; <UNPREDICTABLE>
    1000:	0b3a0e03 	bleq	e84814 <__bss_end__+0xe7a4a4>
    1004:	19270b3b 	stmdbne	r7!, {r0, r1, r3, r4, r5, r8, r9, fp}
    1008:	06120111 			; <UNDEFINED> instruction: 0x06120111
    100c:	42971840 	addsmi	r1, r7, #64, 16	; 0x400000
    1010:	00130119 	andseq	r0, r3, r9, lsl r1
    1014:	82890800 	addhi	r0, r9, #0, 16
    1018:	01110001 	tsteq	r1, r1
    101c:	00001331 	andeq	r1, r0, r1, lsr r3
    1020:	01828909 	orreq	r8, r2, r9, lsl #18
    1024:	31011101 	tstcc	r1, r1, lsl #2
    1028:	00130113 	andseq	r0, r3, r3, lsl r1
    102c:	828a0a00 	addhi	r0, sl, #0, 20
    1030:	18020001 	stmdane	r2, {r0}
    1034:	00184291 	mulseq	r8, r1, r2
    1038:	012e0b00 	teqeq	lr, r0, lsl #22
    103c:	0e03193f 	mcreq	9, 0, r1, cr3, cr15, {1}
    1040:	0b3b0b3a 	bleq	ec3d30 <__bss_end__+0xeb99c0>
    1044:	13491927 	movtne	r1, #39207	; 0x9927
    1048:	06120111 			; <UNDEFINED> instruction: 0x06120111
    104c:	42971840 	addsmi	r1, r7, #64, 16	; 0x400000
    1050:	00130119 	andseq	r0, r3, r9, lsl r1
    1054:	00050c00 	andeq	r0, r5, r0, lsl #24
    1058:	0b3a0803 	bleq	e8306c <__bss_end__+0xe78cfc>
    105c:	13490b3b 	movtne	r0, #39739	; 0x9b3b
    1060:	00001702 	andeq	r1, r0, r2, lsl #14
    1064:	0182890d 	orreq	r8, r2, sp, lsl #18
    1068:	31011101 	tstcc	r1, r1, lsl #2
    106c:	0e000013 	mcreq	0, 0, r0, cr0, cr3, {0}
    1070:	0e030034 	mcreq	0, 0, r0, cr3, cr4, {1}
    1074:	0b3b0b3a 	bleq	ec3d64 <__bss_end__+0xeb99f4>
    1078:	193f1349 	ldmdbne	pc!, {r0, r3, r6, r8, r9, ip}	; <UNPREDICTABLE>
    107c:	00001802 	andeq	r1, r0, r2, lsl #16
    1080:	0b000f0f 	bleq	4cc4 <_start-0x333c>
    1084:	0013490b 	andseq	r4, r3, fp, lsl #18
    1088:	00351000 	eorseq	r1, r5, r0
    108c:	00001349 	andeq	r1, r0, r9, asr #6
    1090:	3f002e11 	svccc	0x00002e11
    1094:	3a0e0319 	bcc	381d00 <__bss_end__+0x377990>
    1098:	270b3b0b 	strcs	r3, [fp, -fp, lsl #22]
    109c:	00193c19 	andseq	r3, r9, r9, lsl ip
    10a0:	012e1200 	teqeq	lr, r0, lsl #4
    10a4:	0e03193f 	mcreq	9, 0, r1, cr3, cr15, {1}
    10a8:	0b3b0b3a 	bleq	ec3d98 <__bss_end__+0xeb9a28>
    10ac:	193c1927 	ldmdbne	ip!, {r0, r1, r2, r5, r8, fp, ip}
    10b0:	00001301 	andeq	r1, r0, r1, lsl #6
    10b4:	49000513 	stmdbmi	r0, {r0, r1, r4, r8, sl}
    10b8:	14000013 	strne	r0, [r0], #-19
    10bc:	193f012e 	ldmdbne	pc!, {r1, r2, r3, r5, r8}	; <UNPREDICTABLE>
    10c0:	0b3a0e03 	bleq	e848d4 <__bss_end__+0xe7a564>
    10c4:	19270b3b 	stmdbne	r7!, {r0, r1, r3, r4, r5, r8, r9, fp}
    10c8:	193c1349 	ldmdbne	ip!, {r0, r3, r6, r8, r9, ip}
    10cc:	00001301 	andeq	r1, r0, r1, lsl #6
    10d0:	49002615 	stmdbmi	r0, {r0, r2, r4, r9, sl, sp}
    10d4:	16000013 			; <UNDEFINED> instruction: 0x16000013
    10d8:	00000035 	andeq	r0, r0, r5, lsr r0
	...

Disassembly of section .debug_loc:

00000000 <.debug_loc>:
       0:	00000000 	andeq	r0, r0, r0
       4:	00000004 	andeq	r0, r0, r4
       8:	04500001 	ldrbeq	r0, [r0], #-1
       c:	0c000000 	stceq	0, cr0, [r0], {-0}
      10:	04000000 	streq	r0, [r0], #-0
      14:	5001f300 	andpl	pc, r1, r0, lsl #6
      18:	0000009f 	muleq	r0, pc, r0	; <UNPREDICTABLE>
      1c:	00000000 	andeq	r0, r0, r0
      20:	00000400 	andeq	r0, r0, r0, lsl #8
      24:	00000800 	andeq	r0, r0, r0, lsl #16
      28:	50000100 	andpl	r0, r0, r0, lsl #2
	...
      34:	0000000c 	andeq	r0, r0, ip
      38:	0000001c 	andeq	r0, r0, ip, lsl r0
      3c:	1c500001 	mrrcne	0, 0, r0, r0, cr1	; <UNPREDICTABLE>
      40:	34000000 	strcc	r0, [r0], #-0
      44:	04000000 	streq	r0, [r0], #-0
      48:	5001f300 	andpl	pc, r1, r0, lsl #6
      4c:	0000009f 	muleq	r0, pc, r0	; <UNPREDICTABLE>
      50:	00000000 	andeq	r0, r0, r0
      54:	00000c00 	andeq	r0, r0, r0, lsl #24
      58:	00001000 	andeq	r1, r0, r0
      5c:	51000100 	mrspl	r0, (UNDEF: 16)
      60:	00000010 	andeq	r0, r0, r0, lsl r0
      64:	00000034 	andeq	r0, r0, r4, lsr r0
      68:	01f30004 	mvnseq	r0, r4
      6c:	00009f51 	andeq	r9, r0, r1, asr pc
      70:	00000000 	andeq	r0, r0, r0
      74:	00440000 	subeq	r0, r4, r0
      78:	00540000 	subseq	r0, r4, r0
      7c:	00010000 	andeq	r0, r1, r0
      80:	00005450 	andeq	r5, r0, r0, asr r4
      84:	0000ac00 	andeq	sl, r0, r0, lsl #24
      88:	54000100 	strpl	r0, [r0], #-256	; 0x100
	...
      94:	00000044 	andeq	r0, r0, r4, asr #32
      98:	00000058 	andeq	r0, r0, r8, asr r0
      9c:	58510001 	ldmdapl	r1, {r0}^
      a0:	ac000000 	stcge	0, cr0, [r0], {-0}
      a4:	04000000 	streq	r0, [r0], #-0
      a8:	5101f300 	mrspl	pc, SP_irq	; <UNPREDICTABLE>
      ac:	0000009f 	muleq	r0, pc, r0	; <UNPREDICTABLE>
      b0:	00000000 	andeq	r0, r0, r0
      b4:	00004400 	andeq	r4, r0, r0, lsl #8
      b8:	00005b00 	andeq	r5, r0, r0, lsl #22
      bc:	52000100 	andpl	r0, r0, #0, 2
      c0:	0000005b 	andeq	r0, r0, fp, asr r0
      c4:	000000ac 	andeq	r0, r0, ip, lsr #1
      c8:	01f30004 	mvnseq	r0, r4
      cc:	00009f52 	andeq	r9, r0, r2, asr pc
      d0:	00000000 	andeq	r0, r0, r0
      d4:	00440000 	subeq	r0, r4, r0
      d8:	005b0000 	subseq	r0, fp, r0
      dc:	00010000 	andeq	r0, r1, r0
      e0:	00005b53 	andeq	r5, r0, r3, asr fp
      e4:	00006800 	andeq	r6, r0, r0, lsl #16
      e8:	55000100 	strpl	r0, [r0, #-256]	; 0x100
      ec:	00000068 	andeq	r0, r0, r8, rrx
      f0:	000000ac 	andeq	r0, r0, ip, lsr #1
      f4:	01f30004 	mvnseq	r0, r4
      f8:	00009f53 	andeq	r9, r0, r3, asr pc
      fc:	00000000 	andeq	r0, r0, r0
     100:	00680000 	rsbeq	r0, r8, r0
     104:	006c0000 	rsbeq	r0, ip, r0
     108:	00010000 	andeq	r0, r1, r0
     10c:	00006c50 	andeq	r6, r0, r0, asr ip
     110:	0000ac00 	andeq	sl, r0, r0, lsl #24
     114:	55000100 	strpl	r0, [r0, #-256]	; 0x100
	...
     120:	000000ac 	andeq	r0, r0, ip, lsr #1
     124:	000000cb 	andeq	r0, r0, fp, asr #1
     128:	cb500001 	blgt	1400134 <__bss_end__+0x13f5dc4>
     12c:	e8000000 	stmda	r0, {}	; <UNPREDICTABLE>
     130:	04000000 	streq	r0, [r0], #-0
     134:	5001f300 	andpl	pc, r1, r0, lsl #6
     138:	0000009f 	muleq	r0, pc, r0	; <UNPREDICTABLE>
     13c:	00000000 	andeq	r0, r0, r0
     140:	0000ac00 	andeq	sl, r0, r0, lsl #24
     144:	0000c400 	andeq	ip, r0, r0, lsl #8
     148:	51000100 	mrspl	r0, (UNDEF: 16)
     14c:	000000c4 	andeq	r0, r0, r4, asr #1
     150:	000000cb 	andeq	r0, r0, fp, asr #1
     154:	00710002 	rsbseq	r0, r1, r2
     158:	000000cb 	andeq	r0, r0, fp, asr #1
     15c:	000000e4 	andeq	r0, r0, r4, ror #1
     160:	67910002 	ldrvs	r0, [r1, r2]
     164:	000000e4 	andeq	r0, r0, r4, ror #1
     168:	000000e8 	andeq	r0, r0, r8, ror #1
     16c:	777d0002 	ldrbvc	r0, [sp, -r2]!
	...
     178:	000000e8 	andeq	r0, r0, r8, ror #1
     17c:	00000103 	andeq	r0, r0, r3, lsl #2
     180:	03500001 	cmpeq	r0, #1
     184:	0c000001 	stceq	0, cr0, [r0], {1}
     188:	04000001 	streq	r0, [r0], #-1
     18c:	5001f300 	andpl	pc, r1, r0, lsl #6
     190:	0000009f 	muleq	r0, pc, r0	; <UNPREDICTABLE>
     194:	00000000 	andeq	r0, r0, r0
     198:	0000e800 	andeq	lr, r0, r0, lsl #16
     19c:	0000fc00 	andeq	pc, r0, r0, lsl #24
     1a0:	51000100 	mrspl	r0, (UNDEF: 16)
     1a4:	000000fc 	strdeq	r0, [r0], -ip
     1a8:	00000103 	andeq	r0, r0, r3, lsl #2
     1ac:	00710002 	rsbseq	r0, r1, r2
     1b0:	00000103 	andeq	r0, r0, r3, lsl #2
     1b4:	0000010c 	andeq	r0, r0, ip, lsl #2
     1b8:	01f30004 	mvnseq	r0, r4
     1bc:	00009f51 	andeq	r9, r0, r1, asr pc
     1c0:	00000000 	andeq	r0, r0, r0
     1c4:	00e80000 	rsceq	r0, r8, r0
     1c8:	01000000 	mrseq	r0, (UNDEF: 0)
     1cc:	00010000 	andeq	r0, r1, r0
     1d0:	00010052 	andeq	r0, r1, r2, asr r0
     1d4:	00010300 	andeq	r0, r1, r0, lsl #6
     1d8:	91000200 	mrsls	r0, R8_usr
     1dc:	0001036d 	andeq	r0, r1, sp, ror #6
     1e0:	00010c00 	andeq	r0, r1, r0, lsl #24
     1e4:	f3000400 	vshl.u8	d0, d0, d0
     1e8:	009f5201 	addseq	r5, pc, r1, lsl #4
     1ec:	00000000 	andeq	r0, r0, r0
     1f0:	0c000000 	stceq	0, cr0, [r0], {-0}
     1f4:	33000001 	movwcc	r0, #1
     1f8:	01000001 	tsteq	r0, r1
     1fc:	01335000 	teqeq	r3, r0
     200:	014c0000 	mrseq	r0, (UNDEF: 76)
     204:	00040000 	andeq	r0, r4, r0
     208:	9f5001f3 	svcls	0x005001f3
	...
     214:	0000010c 	andeq	r0, r0, ip, lsl #2
     218:	0000012c 	andeq	r0, r0, ip, lsr #2
     21c:	2c510001 	mrrccs	0, 0, r0, r1, cr1
     220:	33000001 	movwcc	r0, #1
     224:	02000001 	andeq	r0, r0, #1
     228:	33007100 	movwcc	r7, #256	; 0x100
     22c:	48000001 	stmdami	r0, {r0}
     230:	02000001 	andeq	r0, r0, #1
     234:	48679100 	stmdami	r7!, {r8, ip, pc}^
     238:	4c000001 	stcmi	0, cr0, [r0], {1}
     23c:	02000001 	andeq	r0, r0, #1
     240:	007f7d00 	rsbseq	r7, pc, r0, lsl #26
     244:	00000000 	andeq	r0, r0, r0
     248:	0c000000 	stceq	0, cr0, [r0], {-0}
     24c:	30000001 	andcc	r0, r0, r1
     250:	01000001 	tsteq	r0, r1
     254:	01305200 	teqeq	r0, r0, lsl #4
     258:	014c0000 	mrseq	r0, (UNDEF: 76)
     25c:	00010000 	andeq	r0, r1, r0
     260:	00000055 	andeq	r0, r0, r5, asr r0
     264:	00000000 	andeq	r0, r0, r0
     268:	00010c00 	andeq	r0, r1, r0, lsl #24
     26c:	00013300 	andeq	r3, r1, r0, lsl #6
     270:	53000100 	movwpl	r0, #256	; 0x100
     274:	00000133 	andeq	r0, r0, r3, lsr r1
     278:	0000014c 	andeq	r0, r0, ip, asr #2
     27c:	00540001 	subseq	r0, r4, r1
     280:	00000000 	andeq	r0, r0, r0
     284:	4c000000 	stcmi	0, cr0, [r0], {-0}
     288:	6c000001 	stcvs	0, cr0, [r0], {1}
     28c:	01000001 	tsteq	r0, r1
     290:	016c5100 	cmneq	ip, r0, lsl #2
     294:	01b40000 			; <UNDEFINED> instruction: 0x01b40000
     298:	00040000 	andeq	r0, r4, r0
     29c:	9f5101f3 	svcls	0x005101f3
	...
     2a8:	00000160 	andeq	r0, r0, r0, ror #2
     2ac:	0000016c 	andeq	r0, r0, ip, ror #2
     2b0:	08710002 	ldmdaeq	r1!, {r1}^
     2b4:	0000016c 	andeq	r0, r0, ip, ror #2
     2b8:	0000016f 	andeq	r0, r0, pc, ror #2
     2bc:	6f500001 	svcvs	0x00500001
     2c0:	ac000001 	stcge	0, cr0, [r0], {1}
     2c4:	01000001 	tsteq	r0, r1
     2c8:	00005400 	andeq	r5, r0, r0, lsl #8
     2cc:	00000000 	andeq	r0, r0, r0
     2d0:	01740000 	cmneq	r4, r0
     2d4:	01780000 	cmneq	r8, r0
     2d8:	00010000 	andeq	r0, r1, r0
     2dc:	00017850 	andeq	r7, r1, r0, asr r8
     2e0:	0001ac00 	andeq	sl, r1, r0, lsl #24
     2e4:	57000100 	strpl	r0, [r0, -r0, lsl #2]
	...
     2f0:	00000184 	andeq	r0, r0, r4, lsl #3
     2f4:	00000188 	andeq	r0, r0, r8, lsl #3
     2f8:	88500001 	ldmdahi	r0, {r0}^
     2fc:	ac000001 	stcge	0, cr0, [r0], {1}
     300:	01000001 	tsteq	r0, r1
     304:	00005600 	andeq	r5, r0, r0, lsl #12
     308:	00000000 	andeq	r0, r0, r0
     30c:	01940000 	orrseq	r0, r4, r0
     310:	01980000 	orrseq	r0, r8, r0
     314:	00010000 	andeq	r0, r1, r0
     318:	00019850 	andeq	r9, r1, r0, asr r8
     31c:	0001a300 	andeq	sl, r1, r0, lsl #6
     320:	53000100 	movwpl	r0, #256	; 0x100
	...
     32c:	000001b4 			; <UNDEFINED> instruction: 0x000001b4
     330:	000001bc 			; <UNDEFINED> instruction: 0x000001bc
     334:	bc500001 	mrrclt	0, 0, r0, r0, cr1	; <UNPREDICTABLE>
     338:	dc000001 	stcle	0, cr0, [r0], {1}
     33c:	04000001 	streq	r0, [r0], #-1
     340:	5001f300 	andpl	pc, r1, r0, lsl #6
     344:	0000009f 	muleq	r0, pc, r0	; <UNPREDICTABLE>
     348:	00000000 	andeq	r0, r0, r0
     34c:	0001c400 	andeq	ip, r1, r0, lsl #8
     350:	0001d000 	andeq	sp, r1, r0
     354:	70000800 	andvc	r0, r0, r0, lsl #16
     358:	081a3100 	ldmdaeq	sl, {r8, ip, sp}
     35c:	d49f1aff 	ldrle	r1, [pc], #2815	; 364 <_start-0x7c9c>
     360:	d8000001 	stmdale	r0, {r0}
     364:	08000001 	stmdaeq	r0, {r0}
     368:	31007000 	mrscc	r7, (UNDEF: 0)
     36c:	1aff081a 	bne	fffc23dc <__bss_end__+0xfffb806c>
     370:	0000009f 	muleq	r0, pc, r0	; <UNPREDICTABLE>
     374:	00000000 	andeq	r0, r0, r0
     378:	0001dc00 	andeq	sp, r1, r0, lsl #24
     37c:	0001ec00 	andeq	lr, r1, r0, lsl #24
     380:	51000100 	mrspl	r0, (UNDEF: 16)
     384:	000001ec 	andeq	r0, r0, ip, ror #3
     388:	00000240 	andeq	r0, r0, r0, asr #4
     38c:	40540001 	subsmi	r0, r4, r1
     390:	88000002 	stmdahi	r0, {r1}
     394:	04000002 	streq	r0, [r0], #-2
     398:	5101f300 	mrspl	pc, SP_irq	; <UNPREDICTABLE>
     39c:	0000009f 	muleq	r0, pc, r0	; <UNPREDICTABLE>
     3a0:	00000000 	andeq	r0, r0, r0
     3a4:	00022000 	andeq	r2, r2, r0
     3a8:	00022400 	andeq	r2, r2, r0, lsl #8
     3ac:	50000100 	andpl	r0, r0, r0, lsl #2
     3b0:	00000224 	andeq	r0, r0, r4, lsr #4
     3b4:	0000027c 	andeq	r0, r0, ip, ror r2
     3b8:	7c570001 	mrrcvc	0, 0, r0, r7, cr1
     3bc:	88000002 	stmdahi	r0, {r1}
     3c0:	02000002 	andeq	r0, r0, #2
     3c4:	00007000 	andeq	r7, r0, r0
     3c8:	00000000 	andeq	r0, r0, r0
     3cc:	30000000 	andcc	r0, r0, r0
     3d0:	34000002 	strcc	r0, [r0], #-2
     3d4:	01000002 	tsteq	r0, r2
     3d8:	02345000 	eorseq	r5, r4, #0
     3dc:	027c0000 	rsbseq	r0, ip, #0
     3e0:	00010000 	andeq	r0, r1, r0
     3e4:	00027c56 	andeq	r7, r2, r6, asr ip
     3e8:	00028800 	andeq	r8, r2, r0, lsl #16
     3ec:	70000200 	andvc	r0, r0, r0, lsl #4
     3f0:	00000004 	andeq	r0, r0, r4
     3f4:	00000000 	andeq	r0, r0, r0
     3f8:	00024000 	andeq	r4, r2, r0
     3fc:	00024400 	andeq	r4, r2, r0, lsl #8
     400:	50000100 	andpl	r0, r0, r0, lsl #2
     404:	00000244 	andeq	r0, r0, r4, asr #4
     408:	0000027c 	andeq	r0, r0, ip, ror r2
     40c:	7c540001 	mrrcvc	0, 0, r0, r4, cr1
     410:	88000002 	stmdahi	r0, {r1}
     414:	02000002 	andeq	r0, r0, #2
     418:	00087000 	andeq	r7, r8, r0
     41c:	00000000 	andeq	r0, r0, r0
     420:	dc000000 	stcle	0, cr0, [r0], {-0}
     424:	ec000001 	stc	0, cr0, [r0], {1}
     428:	02000001 	andeq	r0, r0, #1
     42c:	ec007000 	stc	0, cr7, [r0], {-0}
     430:	7c000001 	stcvc	0, cr0, [r0], {1}
     434:	02000002 	andeq	r0, r0, #2
     438:	7c007500 	cfstr32vc	mvfx7, [r0], {-0}
     43c:	88000002 	stmdahi	r0, {r1}
     440:	02000002 	andeq	r0, r0, #2
     444:	00007000 	andeq	r7, r0, r0
     448:	00000000 	andeq	r0, r0, r0
     44c:	88000000 	stmdahi	r0, {}	; <UNPREDICTABLE>
     450:	a3000002 	movwge	r0, #2
     454:	01000002 	tsteq	r0, r2
     458:	02a35100 	adceq	r5, r3, #0, 2
     45c:	04040000 	streq	r0, [r4], #-0
     460:	00040000 	andeq	r0, r4, r0
     464:	9f5101f3 	svcls	0x005101f3
	...
     470:	00000288 	andeq	r0, r0, r8, lsl #5
     474:	000002a3 	andeq	r0, r0, r3, lsr #5
     478:	a3520001 	cmpge	r2, #1
     47c:	60000002 	andvs	r0, r0, r2
     480:	01000003 	tsteq	r0, r3
     484:	03605400 	cmneq	r0, #0, 8
     488:	04040000 	streq	r0, [r4], #-0
     48c:	00040000 	andeq	r0, r4, r0
     490:	9f5201f3 	svcls	0x005201f3
	...
     49c:	00000288 	andeq	r0, r0, r8, lsl #5
     4a0:	000002a3 	andeq	r0, r0, r3, lsr #5
     4a4:	a3530001 	cmpge	r3, #1
     4a8:	04000002 	streq	r0, [r0], #-2
     4ac:	04000004 	streq	r0, [r0], #-4
     4b0:	5301f300 	movwpl	pc, #4864	; 0x1300	; <UNPREDICTABLE>
     4b4:	0000009f 	muleq	r0, pc, r0	; <UNPREDICTABLE>
     4b8:	00000000 	andeq	r0, r0, r0
     4bc:	00035c00 	andeq	r5, r3, r0, lsl #24
     4c0:	0003e000 	andeq	lr, r3, r0
     4c4:	58000100 	stmdapl	r0, {r8}
     4c8:	000003e0 	andeq	r0, r0, r0, ror #7
     4cc:	00000404 	andeq	r0, r0, r4, lsl #8
     4d0:	08700002 	ldmdaeq	r0!, {r1}^
	...
     4dc:	00000360 	andeq	r0, r0, r0, ror #6
     4e0:	000003e0 	andeq	r0, r0, r0, ror #7
     4e4:	00540001 	subseq	r0, r4, r1
     4e8:	00000000 	andeq	r0, r0, r0
     4ec:	88000000 	stmdahi	r0, {}	; <UNPREDICTABLE>
     4f0:	a3000002 	movwge	r0, #2
     4f4:	02000002 	andeq	r0, r0, #2
     4f8:	a3007000 	movwge	r7, #0
     4fc:	e0000002 	and	r0, r0, r2
     500:	02000003 	andeq	r0, r0, #3
     504:	e0007600 	and	r7, r0, r0, lsl #12
     508:	04000003 	streq	r0, [r0], #-3
     50c:	02000004 	andeq	r0, r0, #4
     510:	00007000 	andeq	r7, r0, r0
     514:	00000000 	andeq	r0, r0, r0
     518:	d0000000 	andle	r0, r0, r0
     51c:	60000002 	andvs	r0, r0, r2
     520:	01000003 	tsteq	r0, r3
     524:	03605400 	cmneq	r0, #0, 8
     528:	04040000 	streq	r0, [r4], #-0
     52c:	00040000 	andeq	r0, r4, r0
     530:	9f5201f3 	svcls	0x005201f3
	...
     53c:	00000484 	andeq	r0, r0, r4, lsl #9
     540:	000004a0 	andeq	r0, r0, r0, lsr #9
     544:	9f300002 	svcls	0x00300002
     548:	000004a0 	andeq	r0, r0, r0, lsr #9
     54c:	00000510 	andeq	r0, r0, r0, lsl r5
     550:	00560001 	subseq	r0, r6, r1
     554:	00000000 	andeq	r0, r0, r0
     558:	54000000 	strpl	r0, [r0], #-0
     55c:	5f000005 	svcpl	0x00000005
     560:	01000005 	tsteq	r0, r5
     564:	055f5000 	ldrbeq	r5, [pc, #-0]	; 56c <_start-0x7a94>
     568:	05840000 	streq	r0, [r4]
     56c:	00010000 	andeq	r0, r1, r0
     570:	00058454 	andeq	r8, r5, r4, asr r4
     574:	00058800 	andeq	r8, r5, r0, lsl #16
     578:	50000100 	andpl	r0, r0, r0, lsl #2
     57c:	00000588 	andeq	r0, r0, r8, lsl #11
     580:	000005a4 	andeq	r0, r0, r4, lsr #11
     584:	00540001 	subseq	r0, r4, r1
     588:	00000000 	andeq	r0, r0, r0
     58c:	ec000000 	stc	0, cr0, [r0], {-0}
     590:	03000003 	movweq	r0, #3
     594:	01000004 	tsteq	r0, r4
     598:	04035000 	streq	r5, [r3], #-0
     59c:	04ac0000 	strteq	r0, [ip], #0
     5a0:	00040000 	andeq	r0, r4, r0
     5a4:	9f5001f3 	svcls	0x005001f3
	...
     5b0:	000003ec 	andeq	r0, r0, ip, ror #7
     5b4:	00000400 	andeq	r0, r0, r0, lsl #8
     5b8:	00510001 	subseq	r0, r1, r1
     5bc:	ac000004 	stcge	0, cr0, [r0], {4}
     5c0:	01000004 	tsteq	r0, r4
     5c4:	00005500 	andeq	r5, r0, r0, lsl #10
     5c8:	00000000 	andeq	r0, r0, r0
     5cc:	03ec0000 	mvneq	r0, #0
     5d0:	03fc0000 	mvnseq	r0, #0
     5d4:	00010000 	andeq	r0, r1, r0
     5d8:	0003fc52 	andeq	pc, r3, r2, asr ip	; <UNPREDICTABLE>
     5dc:	0004ac00 	andeq	sl, r4, r0, lsl #24
     5e0:	54000100 	strpl	r0, [r0], #-256	; 0x100
	...
     5ec:	00000404 	andeq	r0, r0, r4, lsl #8
     5f0:	0000040c 	andeq	r0, r0, ip, lsl #8
     5f4:	9f300002 	svcls	0x00300002
     5f8:	0000040c 	andeq	r0, r0, ip, lsl #8
     5fc:	0000040f 	andeq	r0, r0, pc, lsl #8
     600:	28520001 	ldmdacs	r2, {r0}^
     604:	73000004 	movwvc	r0, #4
     608:	01000004 	tsteq	r0, r4
     60c:	048c5200 	streq	r5, [ip], #512	; 0x200
     610:	048f0000 	streq	r0, [pc], #0	; 618 <_start-0x79e8>
     614:	00010000 	andeq	r0, r1, r0
     618:	00000052 	andeq	r0, r0, r2, asr r0
     61c:	00000000 	andeq	r0, r0, r0
     620:	00032800 	andeq	r2, r3, r0, lsl #16
     624:	00033f00 	andeq	r3, r3, r0, lsl #30
     628:	50000100 	andpl	r0, r0, r0, lsl #2
     62c:	0000033f 	andeq	r0, r0, pc, lsr r3
     630:	000003ec 	andeq	r0, r0, ip, ror #7
     634:	01f30004 	mvnseq	r0, r4
     638:	00009f50 	andeq	r9, r0, r0, asr pc
     63c:	00000000 	andeq	r0, r0, r0
     640:	03280000 	teqeq	r8, #0
     644:	033c0000 	teqeq	ip, #0
     648:	00010000 	andeq	r0, r1, r0
     64c:	00033c51 	andeq	r3, r3, r1, asr ip
     650:	0003ec00 	andeq	lr, r3, r0, lsl #24
     654:	55000100 	strpl	r0, [r0, #-256]	; 0x100
	...
     660:	00000328 	andeq	r0, r0, r8, lsr #6
     664:	00000338 	andeq	r0, r0, r8, lsr r3
     668:	38520001 	ldmdacc	r2, {r0}^
     66c:	ec000003 	stc	0, cr0, [r0], {3}
     670:	01000003 	tsteq	r0, r3
     674:	00005400 	andeq	r5, r0, r0, lsl #8
     678:	00000000 	andeq	r0, r0, r0
     67c:	03400000 	movteq	r0, #0
     680:	03480000 	movteq	r0, #32768	; 0x8000
     684:	00020000 	andeq	r0, r2, r0
     688:	03489f30 	movteq	r9, #36656	; 0x8f30
     68c:	034b0000 	movteq	r0, #45056	; 0xb000
     690:	00010000 	andeq	r0, r1, r0
     694:	00036452 	andeq	r6, r3, r2, asr r4
     698:	0003af00 	andeq	sl, r3, r0, lsl #30
     69c:	52000100 	andpl	r0, r0, #0, 2
     6a0:	000003c8 	andeq	r0, r0, r8, asr #7
     6a4:	000003cb 	andeq	r0, r0, fp, asr #7
     6a8:	00520001 	subseq	r0, r2, r1
     6ac:	00000000 	andeq	r0, r0, r0
     6b0:	60000000 	andvs	r0, r0, r0
     6b4:	73000001 	movwvc	r0, #1
     6b8:	01000001 	tsteq	r0, r1
     6bc:	01735000 	cmneq	r3, r0
     6c0:	03280000 	teqeq	r8, #0
     6c4:	00010000 	andeq	r0, r1, r0
     6c8:	00000056 	andeq	r0, r0, r6, asr r0
     6cc:	00000000 	andeq	r0, r0, r0
     6d0:	00016000 	andeq	r6, r1, r0
     6d4:	00017300 	andeq	r7, r1, r0, lsl #6
     6d8:	51000100 	mrspl	r0, (UNDEF: 16)
     6dc:	00000173 	andeq	r0, r0, r3, ror r1
     6e0:	0000021c 	andeq	r0, r0, ip, lsl r2
     6e4:	1c550001 	mrrcne	0, 0, r0, r5, cr1
     6e8:	88000002 	stmdahi	r0, {r1}
     6ec:	04000002 	streq	r0, [r0], #-2
     6f0:	5101f300 	mrspl	pc, SP_irq	; <UNPREDICTABLE>
     6f4:	0002889f 	muleq	r2, pc, r8	; <UNPREDICTABLE>
     6f8:	0002dc00 	andeq	sp, r2, r0, lsl #24
     6fc:	55000100 	strpl	r0, [r0, #-256]	; 0x100
     700:	000002dc 	ldrdeq	r0, [r0], -ip
     704:	00000328 	andeq	r0, r0, r8, lsr #6
     708:	01f30004 	mvnseq	r0, r4
     70c:	00009f51 	andeq	r9, r0, r1, asr pc
     710:	00000000 	andeq	r0, r0, r0
     714:	01600000 	cmneq	r0, r0
     718:	01730000 	cmneq	r3, r0
     71c:	00010000 	andeq	r0, r1, r0
     720:	00017352 	andeq	r7, r1, r2, asr r3
     724:	00032800 	andeq	r2, r3, r0, lsl #16
     728:	54000100 	strpl	r0, [r0], #-256	; 0x100
	...
     734:	0000022c 	andeq	r0, r0, ip, lsr #4
     738:	00000230 	andeq	r0, r0, r0, lsr r2
     73c:	00500001 	subseq	r0, r0, r1
     740:	00000000 	andeq	r0, r0, r0
     744:	3c000000 	stccc	0, cr0, [r0], {-0}
     748:	40000001 	andmi	r0, r0, r1
     74c:	01000001 	tsteq	r0, r1
     750:	00005100 	andeq	r5, r0, r0, lsl #2
     754:	00000000 	andeq	r0, r0, r0
     758:	01180000 	tsteq	r8, r0
     75c:	011f0000 	tsteq	pc, r0
     760:	00010000 	andeq	r0, r1, r0
     764:	00011f50 	andeq	r1, r1, r0, asr pc
     768:	00012800 	andeq	r2, r1, r0, lsl #16
     76c:	f3000400 	vshl.u8	d0, d0, d0
     770:	009f5001 	addseq	r5, pc, r1
     774:	00000000 	andeq	r0, r0, r0
     778:	14000000 	strne	r0, [r0], #-0
     77c:	18000000 	stmdane	r0, {}	; <UNPREDICTABLE>
     780:	01000000 	mrseq	r0, (UNDEF: 0)
     784:	00005000 	andeq	r5, r0, r0
     788:	00000000 	andeq	r0, r0, r0
     78c:	01500000 	cmpeq	r0, r0
     790:	01570000 	cmpeq	r7, r0
     794:	00010000 	andeq	r0, r1, r0
     798:	00015750 	andeq	r5, r1, r0, asr r7
     79c:	00016000 	andeq	r6, r1, r0
     7a0:	f3000400 	vshl.u8	d0, d0, d0
     7a4:	009f5001 	addseq	r5, pc, r1
	...
     7b0:	04000000 	streq	r0, [r0], #-0
     7b4:	01000000 	mrseq	r0, (UNDEF: 0)
     7b8:	00105000 	andseq	r5, r0, r0
     7bc:	00100000 	andseq	r0, r0, r0
     7c0:	00010000 	andeq	r0, r1, r0
     7c4:	00000050 	andeq	r0, r0, r0, asr r0
     7c8:	00000000 	andeq	r0, r0, r0
     7cc:	00002c00 	andeq	r2, r0, r0, lsl #24
     7d0:	00003800 	andeq	r3, r0, r0, lsl #16
     7d4:	50000100 	andpl	r0, r0, r0, lsl #2
     7d8:	00000038 	andeq	r0, r0, r8, lsr r0
     7dc:	00000048 	andeq	r0, r0, r8, asr #32
     7e0:	48550001 	ldmdami	r5, {r0}^
     7e4:	58000000 	stmdapl	r0, {}	; <UNPREDICTABLE>
     7e8:	01000000 	mrseq	r0, (UNDEF: 0)
     7ec:	00005000 	andeq	r5, r0, r0
	...
     7f8:	000b0000 	andeq	r0, fp, r0
     7fc:	00010000 	andeq	r0, r1, r0
     800:	00000b50 	andeq	r0, r0, r0, asr fp
     804:	00001400 	andeq	r1, r0, r0, lsl #8
     808:	54000100 	strpl	r0, [r0], #-256	; 0x100
	...
     818:	00000010 	andeq	r0, r0, r0, lsl r0
     81c:	10500001 	subsne	r0, r0, r1
     820:	34000000 	strcc	r0, [r0], #-0
     824:	01000000 	mrseq	r0, (UNDEF: 0)
     828:	00005400 	andeq	r5, r0, r0, lsl #8
	...
     834:	00040000 	andeq	r0, r4, r0
     838:	00010000 	andeq	r0, r1, r0
     83c:	00000450 	andeq	r0, r0, r0, asr r4
     840:	00000c00 	andeq	r0, r0, r0, lsl #24
     844:	70000300 	andvc	r0, r0, r0, lsl #6
     848:	000c9f30 	andeq	r9, ip, r0, lsr pc
     84c:	00140000 	andseq	r0, r4, r0
     850:	00040000 	andeq	r0, r4, r0
     854:	9f5001f3 	svcls	0x005001f3
	...
     860:	00000014 	andeq	r0, r0, r4, lsl r0
     864:	00000020 	andeq	r0, r0, r0, lsr #32
     868:	20500001 	subscs	r0, r0, r1
     86c:	2c000000 	stccs	0, cr0, [r0], {-0}
     870:	03000000 	movweq	r0, #0
     874:	9f017000 	svcls	0x00017000
     878:	0000002c 	andeq	r0, r0, ip, lsr #32
     87c:	00000040 	andeq	r0, r0, r0, asr #32
     880:	00500001 	subseq	r0, r0, r1
     884:	00000000 	andeq	r0, r0, r0
     888:	14000000 	strne	r0, [r0], #-0
     88c:	18000000 	stmdane	r0, {}	; <UNPREDICTABLE>
     890:	01000000 	mrseq	r0, (UNDEF: 0)
     894:	00185100 	andseq	r5, r8, r0, lsl #2
     898:	00400000 	subeq	r0, r0, r0
     89c:	00040000 	andeq	r0, r4, r0
     8a0:	9f5101f3 	svcls	0x005101f3
	...
     8ac:	00000040 	andeq	r0, r0, r0, asr #32
     8b0:	00000060 	andeq	r0, r0, r0, rrx
     8b4:	60500001 	subsvs	r0, r0, r1
     8b8:	6c000000 	stcvs	0, cr0, [r0], {-0}
     8bc:	03000000 	movweq	r0, #0
     8c0:	9f017100 	svcls	0x00017100
     8c4:	0000006c 	andeq	r0, r0, ip, rrx
     8c8:	00000074 	andeq	r0, r0, r4, ror r0
     8cc:	74510001 	ldrbvc	r0, [r1], #-1
     8d0:	80000000 	andhi	r0, r0, r0
     8d4:	03000000 	movweq	r0, #0
     8d8:	9f017100 	svcls	0x00017100
	...
     8e4:	00000040 	andeq	r0, r0, r0, asr #32
     8e8:	00000050 	andeq	r0, r0, r0, asr r0
     8ec:	50510001 	subspl	r0, r1, r1
     8f0:	80000000 	andhi	r0, r0, r0
     8f4:	04000000 	streq	r0, [r0], #-0
     8f8:	5101f300 	mrspl	pc, SP_irq	; <UNPREDICTABLE>
     8fc:	0000009f 	muleq	r0, pc, r0	; <UNPREDICTABLE>
     900:	00000000 	andeq	r0, r0, r0
     904:	00004000 	andeq	r4, r0, r0
     908:	00005800 	andeq	r5, r0, r0, lsl #16
     90c:	52000100 	andpl	r0, r0, #0, 2
     910:	00000058 	andeq	r0, r0, r8, asr r0
     914:	00000064 	andeq	r0, r0, r4, rrx
     918:	64520001 	ldrbvs	r0, [r2], #-1
     91c:	68000000 	stmdavs	r0, {}	; <UNPREDICTABLE>
     920:	03000000 	movweq	r0, #0
     924:	9f017200 	svcls	0x00017200
     928:	00000068 	andeq	r0, r0, r8, rrx
     92c:	00000080 	andeq	r0, r0, r0, lsl #1
     930:	00520001 	subseq	r0, r2, r1
     934:	00000000 	andeq	r0, r0, r0
     938:	40000000 	andmi	r0, r0, r0
     93c:	54000000 	strpl	r0, [r0], #-0
     940:	01000000 	mrseq	r0, (UNDEF: 0)
     944:	00545300 	subseq	r5, r4, r0, lsl #6
     948:	00780000 	rsbseq	r0, r8, r0
     94c:	00010000 	andeq	r0, r1, r0
     950:	00000053 	andeq	r0, r0, r3, asr r0
     954:	00000000 	andeq	r0, r0, r0
     958:	00004800 	andeq	r4, r0, r0, lsl #16
     95c:	00006000 	andeq	r6, r0, r0
     960:	5c000100 	stfpls	f0, [r0], {-0}
     964:	00000060 	andeq	r0, r0, r0, rrx
     968:	00000080 	andeq	r0, r0, r0, lsl #1
     96c:	01f3000a 	mvnseq	r0, sl
     970:	5301f352 	movwpl	pc, #4946	; 0x1352	; <UNPREDICTABLE>
     974:	9f01231c 	svcls	0x0001231c
	...
     980:	00000080 	andeq	r0, r0, r0, lsl #1
     984:	000000a4 	andeq	r0, r0, r4, lsr #1
     988:	a4500001 	ldrbge	r0, [r0], #-1
     98c:	18000000 	stmdane	r0, {}	; <UNPREDICTABLE>
     990:	03000001 	movweq	r0, #1
     994:	9f027000 	svcls	0x00027000
     998:	00000118 	andeq	r0, r0, r8, lsl r1
     99c:	0000021c 	andeq	r0, r0, ip, lsl r2
     9a0:	01f30004 	mvnseq	r0, r4
     9a4:	00009f50 	andeq	r9, r0, r0, asr pc
     9a8:	00000000 	andeq	r0, r0, r0
     9ac:	00800000 	addeq	r0, r0, r0
     9b0:	00f00000 	rscseq	r0, r0, r0
     9b4:	00010000 	andeq	r0, r1, r0
     9b8:	0000f051 	andeq	pc, r0, r1, asr r0	; <UNPREDICTABLE>
     9bc:	00016000 	andeq	r6, r1, r0
     9c0:	55000100 	strpl	r0, [r0, #-256]	; 0x100
     9c4:	00000160 	andeq	r0, r0, r0, ror #2
     9c8:	00000168 	andeq	r0, r0, r8, ror #2
     9cc:	68510001 	ldmdavs	r1, {r0}^
     9d0:	88000001 	stmdahi	r0, {r0}
     9d4:	01000001 	tsteq	r0, r1
     9d8:	01885500 	orreq	r5, r8, r0, lsl #10
     9dc:	019c0000 	orrseq	r0, ip, r0
     9e0:	00010000 	andeq	r0, r1, r0
     9e4:	00019c51 	andeq	r9, r1, r1, asr ip
     9e8:	0001bc00 	andeq	fp, r1, r0, lsl #24
     9ec:	55000100 	strpl	r0, [r0, #-256]	; 0x100
     9f0:	000001bc 			; <UNDEFINED> instruction: 0x000001bc
     9f4:	000001bf 			; <UNDEFINED> instruction: 0x000001bf
     9f8:	bf510001 	svclt	0x00510001
     9fc:	00000001 	andeq	r0, r0, r1
     a00:	01000002 	tsteq	r0, r2
     a04:	02005500 	andeq	r5, r0, #0, 10
     a08:	021c0000 	andseq	r0, ip, #0
     a0c:	00040000 	andeq	r0, r4, r0
     a10:	9f5101f3 	svcls	0x005101f3
	...
     a1c:	00000080 	andeq	r0, r0, r0, lsl #1
     a20:	00000094 	muleq	r0, r4, r0
     a24:	94520001 	ldrbls	r0, [r2], #-1
     a28:	00000000 	andeq	r0, r0, r0
     a2c:	01000002 	tsteq	r0, r2
     a30:	02005400 	andeq	r5, r0, #0, 8
     a34:	021c0000 	andseq	r0, ip, #0
     a38:	00040000 	andeq	r0, r4, r0
     a3c:	9f5201f3 	svcls	0x005201f3
	...
     a48:	00000080 	andeq	r0, r0, r0, lsl #1
     a4c:	00000100 	andeq	r0, r0, r0, lsl #2
     a50:	04530001 	ldrbeq	r0, [r3], #-1
     a54:	08000001 	stmdaeq	r0, {r0}
     a58:	01000001 	tsteq	r0, r1
     a5c:	01605300 	cmneq	r0, r0, lsl #6
     a60:	01680000 	cmneq	r8, r0
     a64:	00010000 	andeq	r0, r1, r0
     a68:	00016853 	andeq	r6, r1, r3, asr r8
     a6c:	00018800 	andeq	r8, r1, r0, lsl #16
     a70:	f3000400 	vshl.u8	d0, d0, d0
     a74:	889f5301 	ldmhi	pc, {r0, r8, r9, ip, lr}	; <UNPREDICTABLE>
     a78:	90000001 	andls	r0, r0, r1
     a7c:	01000001 	tsteq	r0, r1
     a80:	01905300 	orrseq	r5, r0, r0, lsl #6
     a84:	01940000 	orrseq	r0, r4, r0
     a88:	00010000 	andeq	r0, r1, r0
     a8c:	0001945c 	andeq	r9, r1, ip, asr r4
     a90:	00019c00 	andeq	r9, r1, r0, lsl #24
     a94:	53000100 	movwpl	r0, #256	; 0x100
     a98:	0000019c 	muleq	r0, ip, r1
     a9c:	000001bc 			; <UNDEFINED> instruction: 0x000001bc
     aa0:	01f30004 	mvnseq	r0, r4
     aa4:	01bc9f53 			; <UNDEFINED> instruction: 0x01bc9f53
     aa8:	01bf0000 			; <UNDEFINED> instruction: 0x01bf0000
     aac:	00010000 	andeq	r0, r1, r0
     ab0:	0001bf53 	andeq	fp, r1, r3, asr pc
     ab4:	0001d800 	andeq	sp, r1, r0, lsl #16
     ab8:	f3000400 	vshl.u8	d0, d0, d0
     abc:	009f5301 	addseq	r5, pc, r1, lsl #6
     ac0:	00000000 	andeq	r0, r0, r0
     ac4:	80000000 	andhi	r0, r0, r0
     ac8:	9c000000 	stcls	0, cr0, [r0], {-0}
     acc:	02000000 	andeq	r0, r0, #0
     ad0:	9c009100 	stflsd	f1, [r0], {-0}
     ad4:	bf000000 	svclt	0x00000000
     ad8:	01000001 	tsteq	r0, r1
     adc:	01d85200 	bicseq	r5, r8, r0, lsl #4
     ae0:	01e30000 	mvneq	r0, r0
     ae4:	00010000 	andeq	r0, r1, r0
     ae8:	00000052 	andeq	r0, r0, r2, asr r0
     aec:	00000000 	andeq	r0, r0, r0
     af0:	00009c00 	andeq	r9, r0, r0, lsl #24
     af4:	00011800 	andeq	r1, r1, r0, lsl #16
     af8:	5d000100 	stfpls	f0, [r0, #-0]
     afc:	00000118 	andeq	r0, r0, r8, lsl r1
     b00:	0000011c 	andeq	r0, r0, ip, lsl r1
     b04:	1c530001 	mrrcne	0, 0, r0, r3, cr1
     b08:	20000001 	andcs	r0, r0, r1
     b0c:	01000001 	tsteq	r0, r1
     b10:	01205100 	teqeq	r0, r0, lsl #2
     b14:	01600000 	cmneq	r0, r0
     b18:	00010000 	andeq	r0, r1, r0
     b1c:	00016053 	andeq	r6, r1, r3, asr r0
     b20:	00016800 	andeq	r6, r1, r0, lsl #16
     b24:	5d000100 	stfpls	f0, [r0, #-0]
     b28:	00000168 	andeq	r0, r0, r8, ror #2
     b2c:	0000016c 	andeq	r0, r0, ip, ror #2
     b30:	6c5e0001 	mrrcvs	0, 0, r0, lr, cr1
     b34:	88000001 	stmdahi	r0, {r0}
     b38:	01000001 	tsteq	r0, r1
     b3c:	01885300 	orreq	r5, r8, r0, lsl #6
     b40:	01900000 	orrseq	r0, r0, r0
     b44:	00040000 	andeq	r0, r4, r0
     b48:	9f7fa191 	svcls	0x007fa191
     b4c:	00000190 	muleq	r0, r0, r1
     b50:	00000194 	muleq	r0, r4, r1
     b54:	94530001 	ldrbls	r0, [r3], #-1
     b58:	9c000001 	stcls	0, cr0, [r0], {1}
     b5c:	01000001 	tsteq	r0, r1
     b60:	019c5d00 	orrseq	r5, ip, r0, lsl #26
     b64:	01a00000 	moveq	r0, r0
     b68:	00010000 	andeq	r0, r1, r0
     b6c:	0001a05e 	andeq	sl, r1, lr, asr r0
     b70:	0001bc00 	andeq	fp, r1, r0, lsl #24
     b74:	53000100 	movwpl	r0, #256	; 0x100
     b78:	000001bc 			; <UNDEFINED> instruction: 0x000001bc
     b7c:	000001d8 	ldrdeq	r0, [r0], -r8
     b80:	d85d0001 	ldmdale	sp, {r0}^
     b84:	e3000001 	movw	r0, #1
     b88:	01000001 	tsteq	r0, r1
     b8c:	00005300 	andeq	r5, r0, r0, lsl #6
     b90:	00000000 	andeq	r0, r0, r0
     b94:	00a00000 	adceq	r0, r0, r0
     b98:	00ec0000 	rsceq	r0, ip, r0
     b9c:	00010000 	andeq	r0, r1, r0
     ba0:	0000ec5c 	andeq	lr, r0, ip, asr ip
     ba4:	00010000 	andeq	r0, r1, r0
     ba8:	53000100 	movwpl	r0, #256	; 0x100
     bac:	00000100 	andeq	r0, r0, r0, lsl #2
     bb0:	00000104 	andeq	r0, r0, r4, lsl #2
     bb4:	045c0001 	ldrbeq	r0, [ip], #-1
     bb8:	08000001 	stmdaeq	r0, {r0}
     bbc:	01000001 	tsteq	r0, r1
     bc0:	01085300 	mrseq	r5, (UNDEF: 56)
     bc4:	01180000 	tsteq	r8, r0
     bc8:	00010000 	andeq	r0, r1, r0
     bcc:	0001185c 	andeq	r1, r1, ip, asr r8
     bd0:	00011c00 	andeq	r1, r1, r0, lsl #24
     bd4:	50000100 	andpl	r0, r0, r0, lsl #2
     bd8:	0000011c 	andeq	r0, r0, ip, lsl r1
     bdc:	0000013c 	andeq	r0, r0, ip, lsr r1
     be0:	445c0001 	ldrbmi	r0, [ip], #-1
     be4:	58000001 	stmdapl	r0, {r0}
     be8:	01000001 	tsteq	r0, r1
     bec:	01585000 	cmpeq	r8, r0
     bf0:	01600000 	cmneq	r0, r0
     bf4:	00010000 	andeq	r0, r1, r0
     bf8:	0001605c 	andeq	r6, r1, ip, asr r0
     bfc:	00016800 	andeq	r6, r1, r0, lsl #16
     c00:	53000100 	movwpl	r0, #256	; 0x100
     c04:	00000168 	andeq	r0, r0, r8, ror #2
     c08:	00000178 	andeq	r0, r0, r8, ror r1
     c0c:	785c0001 	ldmdavc	ip, {r0}^
     c10:	80000001 	andhi	r0, r0, r1
     c14:	05000001 	streq	r0, [r0, #-1]
     c18:	34007c00 	strcc	r7, [r0], #-3072	; 0xc00
     c1c:	01809f25 	orreq	r9, r0, r5, lsr #30
     c20:	01880000 	orreq	r0, r8, r0
     c24:	00010000 	andeq	r0, r1, r0
     c28:	0001885c 	andeq	r8, r1, ip, asr r8
     c2c:	00019000 	andeq	r9, r1, r0
     c30:	53000100 	movwpl	r0, #256	; 0x100
     c34:	00000190 	muleq	r0, r0, r1
     c38:	00000194 	muleq	r0, r4, r1
     c3c:	945c0001 	ldrbls	r0, [ip], #-1
     c40:	9c000001 	stcls	0, cr0, [r0], {1}
     c44:	01000001 	tsteq	r0, r1
     c48:	019c5300 	orrseq	r5, ip, r0, lsl #6
     c4c:	01ac0000 			; <UNDEFINED> instruction: 0x01ac0000
     c50:	00010000 	andeq	r0, r1, r0
     c54:	0001ac5c 	andeq	sl, r1, ip, asr ip
     c58:	0001b400 	andeq	fp, r1, r0, lsl #8
     c5c:	7c000500 	cfstr32vc	mvfx0, [r0], {-0}
     c60:	9f253100 	svcls	0x00253100
     c64:	000001b4 			; <UNDEFINED> instruction: 0x000001b4
     c68:	000001bc 			; <UNDEFINED> instruction: 0x000001bc
     c6c:	bc5c0001 	mrrclt	0, 0, r0, ip, cr1
     c70:	bf000001 	svclt	0x00000001
     c74:	01000001 	tsteq	r0, r1
     c78:	01bf5300 			; <UNDEFINED> instruction: 0x01bf5300
     c7c:	01d80000 	bicseq	r0, r8, r0
     c80:	00040000 	andeq	r0, r4, r0
     c84:	9f5301f3 	svcls	0x005301f3
     c88:	000001d8 	ldrdeq	r0, [r0], -r8
     c8c:	000001e3 	andeq	r0, r0, r3, ror #3
     c90:	005c0001 	subseq	r0, ip, r1
     c94:	00000000 	andeq	r0, r0, r0
     c98:	ec000000 	stc	0, cr0, [r0], {-0}
     c9c:	fc000000 	stc2	0, cr0, [r0], {-0}
     ca0:	02000000 	andeq	r0, r0, #0
     ca4:	fc9f3000 	ldc2	0, cr3, [pc], {0}
     ca8:	04000000 	streq	r0, [r0], #-0
     cac:	02000001 	andeq	r0, r0, #1
     cb0:	049f3100 	ldreq	r3, [pc], #256	; cb8 <_start-0x7348>
     cb4:	08000001 	stmdaeq	r0, {r0}
     cb8:	02000001 	andeq	r0, r0, #1
     cbc:	009f3000 	addseq	r3, pc, r0
     cc0:	00000000 	andeq	r0, r0, r0
     cc4:	1c000000 	stcne	0, cr0, [r0], {-0}
     cc8:	2b000002 	blcs	cd8 <_start-0x7328>
     ccc:	01000002 	tsteq	r0, r2
     cd0:	022b5000 	eoreq	r5, fp, #0
     cd4:	02440000 	subeq	r0, r4, #0
     cd8:	00040000 	andeq	r0, r4, r0
     cdc:	9f5001f3 	svcls	0x005001f3
     ce0:	00000244 	andeq	r0, r0, r4, asr #4
     ce4:	00000270 	andeq	r0, r0, r0, ror r2
     ce8:	00500001 	subseq	r0, r0, r1
     cec:	00000000 	andeq	r0, r0, r0
     cf0:	1c000000 	stcne	0, cr0, [r0], {-0}
     cf4:	2b000002 	blcs	d04 <_start-0x72fc>
     cf8:	01000002 	tsteq	r0, r2
     cfc:	022b5100 	eoreq	r5, fp, #0, 2
     d00:	02440000 	subeq	r0, r4, #0
     d04:	00040000 	andeq	r0, r4, r0
     d08:	9f5101f3 	svcls	0x005101f3
     d0c:	00000244 	andeq	r0, r0, r4, asr #4
     d10:	00000270 	andeq	r0, r0, r0, ror r2
     d14:	00510001 	subseq	r0, r1, r1
     d18:	00000000 	andeq	r0, r0, r0
     d1c:	70000000 	andvc	r0, r0, r0
     d20:	9c000002 	stcls	0, cr0, [r0], {2}
     d24:	01000002 	tsteq	r0, r2
     d28:	029c5000 	addseq	r5, ip, #0
     d2c:	04e40000 	strbteq	r0, [r4], #0
     d30:	00010000 	andeq	r0, r1, r0
     d34:	0004e45a 	andeq	lr, r4, sl, asr r4
     d38:	0004f800 	andeq	pc, r4, r0, lsl #16
     d3c:	f3000400 	vshl.u8	d0, d0, d0
     d40:	009f5001 	addseq	r5, pc, r1
     d44:	00000000 	andeq	r0, r0, r0
     d48:	70000000 	andvc	r0, r0, r0
     d4c:	84000002 	strhi	r0, [r0], #-2
     d50:	01000002 	tsteq	r0, r2
     d54:	02845100 	addeq	r5, r4, #0, 2
     d58:	029c0000 	addseq	r0, ip, #0
     d5c:	00030000 	andeq	r0, r3, r0
     d60:	9c9f0171 	ldflss	f0, [pc], {113}	; 0x71
     d64:	f8000002 			; <UNDEFINED> instruction: 0xf8000002
     d68:	04000004 	streq	r0, [r0], #-4
     d6c:	5101f300 	mrspl	pc, SP_irq	; <UNPREDICTABLE>
     d70:	0000009f 	muleq	r0, pc, r0	; <UNPREDICTABLE>
     d74:	00000000 	andeq	r0, r0, r0
     d78:	00027000 	andeq	r7, r2, r0
     d7c:	0002a400 	andeq	sl, r2, r0, lsl #8
     d80:	52000100 	andpl	r0, r0, #0, 2
     d84:	000002a4 	andeq	r0, r0, r4, lsr #5
     d88:	000002cc 	andeq	r0, r0, ip, asr #5
     d8c:	cc520001 	mrrcgt	0, 0, r0, r2, cr1
     d90:	94000002 	strls	r0, [r0], #-2
     d94:	01000004 	tsteq	r0, r4
     d98:	04945600 	ldreq	r5, [r4], #1536	; 0x600
     d9c:	04f80000 	ldrbteq	r0, [r8], #0
     da0:	00010000 	andeq	r0, r1, r0
     da4:	00000052 	andeq	r0, r0, r2, asr r0
     da8:	00000000 	andeq	r0, r0, r0
     dac:	00027000 	andeq	r7, r2, r0
     db0:	00028c00 	andeq	r8, r2, r0, lsl #24
     db4:	53000100 	movwpl	r0, #256	; 0x100
	...
     dc0:	00000280 	andeq	r0, r0, r0, lsl #5
     dc4:	0000029c 	muleq	r0, ip, r2
     dc8:	9c500001 	mrrcls	0, 0, r0, r0, cr1	; <UNPREDICTABLE>
     dcc:	a0000002 	andge	r0, r0, r2
     dd0:	01000002 	tsteq	r0, r2
     dd4:	02a05400 	adceq	r5, r0, #0, 8
     dd8:	02ac0000 	adceq	r0, ip, #0
     ddc:	00030000 	andeq	r0, r3, r0
     de0:	ac9f0174 	ldfges	f0, [pc], {116}	; 0x74
     de4:	b8000002 	stmdalt	r0, {r1}
     de8:	01000002 	tsteq	r0, r2
     dec:	02b85400 	adcseq	r5, r8, #0, 8
     df0:	02c40000 	sbceq	r0, r4, #0
     df4:	00030000 	andeq	r0, r3, r0
     df8:	c49f0174 	ldrgt	r0, [pc], #372	; e00 <_start-0x7200>
     dfc:	98000002 	stmdals	r0, {r1}
     e00:	01000004 	tsteq	r0, r4
     e04:	04985400 	ldreq	r5, [r8], #1024	; 0x400
     e08:	04a40000 	strteq	r0, [r4], #0
     e0c:	00030000 	andeq	r0, r3, r0
     e10:	a49f0174 	ldrge	r0, [pc], #372	; e18 <_start-0x71e8>
     e14:	d0000004 	andle	r0, r0, r4
     e18:	01000004 	tsteq	r0, r4
     e1c:	04d05400 	ldrbeq	r5, [r0], #1024	; 0x400
     e20:	04dc0000 	ldrbeq	r0, [ip], #0
     e24:	00010000 	andeq	r0, r1, r0
     e28:	0004dc50 	andeq	sp, r4, r0, asr ip
     e2c:	0004e400 	andeq	lr, r4, r0, lsl #8
     e30:	74000300 	strvc	r0, [r0], #-768	; 0x300
     e34:	00009f01 	andeq	r9, r0, r1, lsl #30
     e38:	00000000 	andeq	r0, r0, r0
     e3c:	02880000 	addeq	r0, r8, #0
     e40:	04e40000 	strbteq	r0, [r4], #0
     e44:	00010000 	andeq	r0, r1, r0
     e48:	0004e458 	andeq	lr, r4, r8, asr r4
     e4c:	0004f800 	andeq	pc, r4, r0, lsl #16
     e50:	f3000a00 	vpmax.u8	d0, d0, d0
     e54:	01f35101 	mvnseq	r5, r1, lsl #2
     e58:	1c312250 	lfmne	f2, 4, [r1], #-320	; 0xfffffec0
     e5c:	0000009f 	muleq	r0, pc, r0	; <UNPREDICTABLE>
     e60:	00000000 	andeq	r0, r0, r0
     e64:	0003cc00 	andeq	ip, r3, r0, lsl #24
     e68:	0003d000 	andeq	sp, r3, r0
     e6c:	50000100 	andpl	r0, r0, r0, lsl #2
     e70:	000003f0 	strdeq	r0, [r0], -r0	; <UNPREDICTABLE>
     e74:	000003f4 	strdeq	r0, [r0], -r4
     e78:	14500001 	ldrbne	r0, [r0], #-1
     e7c:	18000004 	stmdane	r0, {r2}
     e80:	01000004 	tsteq	r0, r4
     e84:	04385000 	ldrteq	r5, [r8], #-0
     e88:	043c0000 	ldrteq	r0, [ip], #-0
     e8c:	00010000 	andeq	r0, r1, r0
     e90:	00044450 	andeq	r4, r4, r0, asr r4
     e94:	00044800 	andeq	r4, r4, r0, lsl #16
     e98:	50000100 	andpl	r0, r0, r0, lsl #2
     e9c:	00000468 	andeq	r0, r0, r8, ror #8
     ea0:	0000046c 	andeq	r0, r0, ip, ror #8
     ea4:	90500001 	subsls	r0, r0, r1
     ea8:	b8000004 	stmdalt	r0, {r2}
     eac:	01000004 	tsteq	r0, r4
     eb0:	00005000 	andeq	r5, r0, r0
     eb4:	00000000 	andeq	r0, r0, r0
     eb8:	02cc0000 	sbceq	r0, ip, #0
     ebc:	02d40000 	sbcseq	r0, r4, #0
     ec0:	00020000 	andeq	r0, r2, r0
     ec4:	02d49f30 	sbcseq	r9, r4, #48, 30	; 0xc0
     ec8:	02d80000 	sbcseq	r0, r8, #0
     ecc:	00010000 	andeq	r0, r1, r0
     ed0:	0002e457 	andeq	lr, r2, r7, asr r4
     ed4:	0004b800 	andeq	fp, r4, r0, lsl #16
     ed8:	57000100 	strpl	r0, [r0, -r0, lsl #2]
	...
     ee4:	00000014 	andeq	r0, r0, r4, lsl r0
     ee8:	0000001c 	andeq	r0, r0, ip, lsl r0
     eec:	04730003 	ldrbteq	r0, [r3], #-3
     ef0:	00001c9f 	muleq	r0, pc, ip	; <UNPREDICTABLE>
     ef4:	00002700 	andeq	r2, r0, r0, lsl #14
     ef8:	53000100 	movwpl	r0, #256	; 0x100
	...
     f04:	00009138 	andeq	r9, r0, r8, lsr r1
     f08:	0000913c 	andeq	r9, r0, ip, lsr r1
     f0c:	9f300002 	svcls	0x00300002
     f10:	0000913c 	andeq	r9, r0, ip, lsr r1
     f14:	00009140 	andeq	r9, r0, r0, asr #2
     f18:	00500001 	subseq	r0, r0, r1
     f1c:	00000000 	andeq	r0, r0, r0
     f20:	50000000 	andpl	r0, r0, r0
     f24:	54000091 	strpl	r0, [r0], #-145	; 0x91
     f28:	02000091 	andeq	r0, r0, #145	; 0x91
     f2c:	549f3000 	ldrpl	r3, [pc], #0	; f34 <_start-0x70cc>
     f30:	58000091 	stmdapl	r0, {r0, r4, r7}
     f34:	01000091 	swpeq	r0, r1, [r0]	; <UNPREDICTABLE>
     f38:	915c5300 	cmpls	ip, r0, lsl #6
     f3c:	91640000 	cmnls	r4, r0
     f40:	00010000 	andeq	r0, r1, r0
     f44:	00000053 	andeq	r0, r0, r3, asr r0
	...
     f50:	00000400 	andeq	r0, r0, r0, lsl #8
     f54:	50000100 	andpl	r0, r0, r0, lsl #2
     f58:	00000004 	andeq	r0, r0, r4
     f5c:	0000000c 	andeq	r0, r0, ip
     f60:	0c530001 	mrrceq	0, 0, r0, r3, cr1
     f64:	10000000 	andne	r0, r0, r0
     f68:	01000000 	mrseq	r0, (UNDEF: 0)
     f6c:	00105000 	andseq	r5, r0, r0
     f70:	001c0000 	andseq	r0, ip, r0
     f74:	00010000 	andeq	r0, r1, r0
     f78:	00000053 	andeq	r0, r0, r3, asr r0
     f7c:	00000000 	andeq	r0, r0, r0
     f80:	00003c00 	andeq	r3, r0, r0, lsl #24
     f84:	00004700 	andeq	r4, r0, r0, lsl #14
     f88:	50000100 	andpl	r0, r0, r0, lsl #2
     f8c:	00000047 	andeq	r0, r0, r7, asr #32
     f90:	00000060 	andeq	r0, r0, r0, rrx
     f94:	00550001 	subseq	r0, r5, r1
     f98:	00000000 	andeq	r0, r0, r0
     f9c:	50000000 	andpl	r0, r0, r0
     fa0:	54000000 	strpl	r0, [r0], #-0
     fa4:	01000000 	mrseq	r0, (UNDEF: 0)
     fa8:	00005000 	andeq	r5, r0, r0
     fac:	00000000 	andeq	r0, r0, r0
     fb0:	00600000 	rsbeq	r0, r0, r0
     fb4:	006c0000 	rsbeq	r0, ip, r0
     fb8:	00010000 	andeq	r0, r1, r0
     fbc:	00006c50 	andeq	r6, r0, r0, asr ip
     fc0:	00007400 	andeq	r7, r0, r0, lsl #8
     fc4:	f3000400 	vshl.u8	d0, d0, d0
     fc8:	009f5001 	addseq	r5, pc, r1
     fcc:	00000000 	andeq	r0, r0, r0
     fd0:	74000000 	strvc	r0, [r0], #-0
     fd4:	80000000 	andhi	r0, r0, r0
     fd8:	01000000 	mrseq	r0, (UNDEF: 0)
     fdc:	00805000 	addeq	r5, r0, r0
     fe0:	00880000 	addeq	r0, r8, r0
     fe4:	00040000 	andeq	r0, r4, r0
     fe8:	9f5001f3 	svcls	0x005001f3
	...
     ff8:	00000090 	muleq	r0, r0, r0
     ffc:	90500001 	subsls	r0, r0, r1
    1000:	d4000000 	strle	r0, [r0], #-0
    1004:	01000000 	mrseq	r0, (UNDEF: 0)
    1008:	00005400 	andeq	r5, r0, r0, lsl #8
    100c:	00000000 	andeq	r0, r0, r0
    1010:	00480000 	subeq	r0, r8, r0
    1014:	004c0000 	subeq	r0, ip, r0
    1018:	00010000 	andeq	r0, r1, r0
    101c:	00005455 	andeq	r5, r0, r5, asr r4
    1020:	00005800 	andeq	r5, r0, r0, lsl #16
    1024:	55000100 	strpl	r0, [r0, #-256]	; 0x100
    1028:	00000060 	andeq	r0, r0, r0, rrx
    102c:	00000064 	andeq	r0, r0, r4, rrx
    1030:	6c550001 	mrrcvs	0, 0, r0, r5, cr1
    1034:	70000000 	andvc	r0, r0, r0
    1038:	01000000 	mrseq	r0, (UNDEF: 0)
    103c:	00785500 	rsbseq	r5, r8, r0, lsl #10
    1040:	007c0000 	rsbseq	r0, ip, r0
    1044:	00010000 	andeq	r0, r1, r0
    1048:	00008455 	andeq	r8, r0, r5, asr r4
    104c:	00008800 	andeq	r8, r0, r0, lsl #16
    1050:	55000100 	strpl	r0, [r0, #-256]	; 0x100
    1054:	0000008c 	andeq	r0, r0, ip, lsl #1
    1058:	000000d4 	ldrdeq	r0, [r0], -r4
    105c:	00550001 	subseq	r0, r5, r1
    1060:	00000000 	andeq	r0, r0, r0
    1064:	1c000000 	stcne	0, cr0, [r0], {-0}
    1068:	44000000 	strmi	r0, [r0], #-0
    106c:	01000000 	mrseq	r0, (UNDEF: 0)
    1070:	00445300 	subeq	r5, r4, r0, lsl #6
    1074:	004c0000 	subeq	r0, ip, r0
    1078:	001c0000 	andseq	r0, ip, r0
    107c:	2cf70070 	ldclcs	0, cr0, [r7], #448	; 0x1c0
    1080:	25f425f7 	ldrbcs	r2, [r4, #1527]!	; 0x5f7
    1084:	cccccd08 	stclgt	13, cr12, [ip], {8}
    1088:	000000cc 	andeq	r0, r0, ip, asr #1
    108c:	20081e00 	andcs	r1, r8, r0, lsl #28
    1090:	f72525f7 			; <UNDEFINED> instruction: 0xf72525f7
    1094:	9f25332c 	svcls	0x0025332c
    1098:	0000004c 	andeq	r0, r0, ip, asr #32
    109c:	00000050 	andeq	r0, r0, r0, asr r0
    10a0:	50530001 	subspl	r0, r3, r1
    10a4:	58000000 	stmdapl	r0, {}	; <UNPREDICTABLE>
    10a8:	1c000000 	stcne	0, cr0, [r0], {-0}
    10ac:	f7007000 			; <UNDEFINED> instruction: 0xf7007000
    10b0:	f425f72c 	vld1.8	{d15}, [r5 :128], ip
    10b4:	cccd0825 	stclgt	8, cr0, [sp], {37}	; 0x25
    10b8:	0000cccc 	andeq	ip, r0, ip, asr #25
    10bc:	081e0000 	ldmdaeq	lr, {}	; <UNPREDICTABLE>
    10c0:	2525f720 	strcs	pc, [r5, #-1824]!	; 0x720
    10c4:	25332cf7 	ldrcs	r2, [r3, #-3319]!	; 0xcf7
    10c8:	0000589f 	muleq	r0, pc, r8	; <UNPREDICTABLE>
    10cc:	00005c00 	andeq	r5, r0, r0, lsl #24
    10d0:	53000100 	movwpl	r0, #256	; 0x100
    10d4:	0000005c 	andeq	r0, r0, ip, asr r0
    10d8:	00000064 	andeq	r0, r0, r4, rrx
    10dc:	0070001c 	rsbseq	r0, r0, ip, lsl r0
    10e0:	25f72cf7 	ldrbcs	r2, [r7, #3319]!	; 0xcf7
    10e4:	cd0825f4 	cfstr32gt	mvfx2, [r8, #-976]	; 0xfffffc30
    10e8:	00cccccc 	sbceq	ip, ip, ip, asr #25
    10ec:	1e000000 	cdpne	0, 0, cr0, cr0, cr0, {0}
    10f0:	25f72008 	ldrbcs	r2, [r7, #8]!
    10f4:	332cf725 	msrcc	CPSR_fs, #9699328	; 0x940000
    10f8:	00649f25 	rsbeq	r9, r4, r5, lsr #30
    10fc:	00680000 	rsbeq	r0, r8, r0
    1100:	00010000 	andeq	r0, r1, r0
    1104:	00006853 	andeq	r6, r0, r3, asr r8
    1108:	00007000 	andeq	r7, r0, r0
    110c:	70001c00 	andvc	r1, r0, r0, lsl #24
    1110:	f72cf700 			; <UNDEFINED> instruction: 0xf72cf700
    1114:	0825f425 	stmdaeq	r5!, {r0, r2, r5, sl, ip, sp, lr, pc}
    1118:	cccccccd 	stclgt	12, cr12, [ip], {205}	; 0xcd
    111c:	00000000 	andeq	r0, r0, r0
    1120:	f720081e 			; <UNDEFINED> instruction: 0xf720081e
    1124:	2cf72525 	cfldr64cs	mvdx2, [r7], #148	; 0x94
    1128:	709f2533 	addsvc	r2, pc, r3, lsr r5	; <UNPREDICTABLE>
    112c:	74000000 	strvc	r0, [r0], #-0
    1130:	01000000 	mrseq	r0, (UNDEF: 0)
    1134:	00745300 	rsbseq	r5, r4, r0, lsl #6
    1138:	007c0000 	rsbseq	r0, ip, r0
    113c:	001c0000 	andseq	r0, ip, r0
    1140:	2cf70070 	ldclcs	0, cr0, [r7], #448	; 0x1c0
    1144:	25f425f7 	ldrbcs	r2, [r4, #1527]!	; 0x5f7
    1148:	cccccd08 	stclgt	13, cr12, [ip], {8}
    114c:	000000cc 	andeq	r0, r0, ip, asr #1
    1150:	20081e00 	andcs	r1, r8, r0, lsl #28
    1154:	f72525f7 			; <UNDEFINED> instruction: 0xf72525f7
    1158:	9f25332c 	svcls	0x0025332c
    115c:	0000007c 	andeq	r0, r0, ip, ror r0
    1160:	00000080 	andeq	r0, r0, r0, lsl #1
    1164:	80530001 	subshi	r0, r3, r1
    1168:	88000000 	stmdahi	r0, {}	; <UNPREDICTABLE>
    116c:	1c000000 	stcne	0, cr0, [r0], {-0}
    1170:	f7007000 			; <UNDEFINED> instruction: 0xf7007000
    1174:	f425f72c 	vld1.8	{d15}, [r5 :128], ip
    1178:	cccd0825 	stclgt	8, cr0, [sp], {37}	; 0x25
    117c:	0000cccc 	andeq	ip, r0, ip, asr #25
    1180:	081e0000 	ldmdaeq	lr, {}	; <UNPREDICTABLE>
    1184:	2525f720 	strcs	pc, [r5, #-1824]!	; 0x720
    1188:	25332cf7 	ldrcs	r2, [r3, #-3319]!	; 0xcf7
    118c:	0000889f 	muleq	r0, pc, r8	; <UNPREDICTABLE>
    1190:	00008c00 	andeq	r8, r0, r0, lsl #24
    1194:	53000100 	movwpl	r0, #256	; 0x100
    1198:	0000008c 	andeq	r0, r0, ip, lsl #1
    119c:	00000090 	muleq	r0, r0, r0
    11a0:	0070001c 	rsbseq	r0, r0, ip, lsl r0
    11a4:	25f72cf7 	ldrbcs	r2, [r7, #3319]!	; 0xcf7
    11a8:	cd0825f4 	cfstr32gt	mvfx2, [r8, #-976]	; 0xfffffc30
    11ac:	00cccccc 	sbceq	ip, ip, ip, asr #25
    11b0:	1e000000 	cdpne	0, 0, cr0, cr0, cr0, {0}
    11b4:	25f72008 	ldrbcs	r2, [r7, #8]!
    11b8:	332cf725 	msrcc	CPSR_fs, #9699328	; 0x940000
    11bc:	00909f25 	addseq	r9, r0, r5, lsr #30
    11c0:	00980000 	addseq	r0, r8, r0
    11c4:	001c0000 	andseq	r0, ip, r0
    11c8:	2cf70074 	ldclcs	0, cr0, [r7], #464	; 0x1d0
    11cc:	25f425f7 	ldrbcs	r2, [r4, #1527]!	; 0x5f7
    11d0:	cccccd08 	stclgt	13, cr12, [ip], {8}
    11d4:	000000cc 	andeq	r0, r0, ip, asr #1
    11d8:	20081e00 	andcs	r1, r8, r0, lsl #28
    11dc:	f72525f7 			; <UNDEFINED> instruction: 0xf72525f7
    11e0:	9f25332c 	svcls	0x0025332c
    11e4:	00000098 	muleq	r0, r8, r0
    11e8:	0000009c 	muleq	r0, ip, r0
    11ec:	00740017 	rsbseq	r0, r4, r7, lsl r0
    11f0:	25f72cf7 	ldrbcs	r2, [r7, #3319]!	; 0xcf7
    11f4:	2cf70071 	ldclcs	0, cr0, [r7], #452	; 0x1c4
    11f8:	081e25f7 	ldmdaeq	lr, {r0, r1, r2, r4, r5, r6, r7, r8, sl, sp}
    11fc:	2525f720 	strcs	pc, [r5, #-1824]!	; 0x720
    1200:	25332cf7 	ldrcs	r2, [r3, #-3319]!	; 0xcf7
    1204:	00009c9f 	muleq	r0, pc, ip	; <UNPREDICTABLE>
    1208:	0000d400 	andeq	sp, r0, r0, lsl #8
    120c:	74001c00 	strvc	r1, [r0], #-3072	; 0xc00
    1210:	f72cf700 			; <UNDEFINED> instruction: 0xf72cf700
    1214:	0825f425 	stmdaeq	r5!, {r0, r2, r5, sl, ip, sp, lr, pc}
    1218:	cccccccd 	stclgt	12, cr12, [ip], {205}	; 0xcd
    121c:	00000000 	andeq	r0, r0, r0
    1220:	f720081e 			; <UNDEFINED> instruction: 0xf720081e
    1224:	2cf72525 	cfldr64cs	mvdx2, [r7], #148	; 0x94
    1228:	009f2533 	addseq	r2, pc, r3, lsr r5	; <UNPREDICTABLE>
    122c:	00000000 	andeq	r0, r0, r0
    1230:	94000000 	strls	r0, [r0], #-0
    1234:	b8000000 	stmdalt	r0, {}	; <UNPREDICTABLE>
    1238:	01000000 	mrseq	r0, (UNDEF: 0)
    123c:	00b85000 	adcseq	r5, r8, r0
    1240:	00c40000 	sbceq	r0, r4, r0
    1244:	00080000 	andeq	r0, r8, r0
    1248:	24007131 	strcs	r7, [r0], #-305	; 0x131
    124c:	9f210073 	svcls	0x00210073
    1250:	000000c4 	andeq	r0, r0, r4, asr #1
    1254:	000000c7 	andeq	r0, r0, r7, asr #1
    1258:	00510001 	subseq	r0, r1, r1
    125c:	00000000 	andeq	r0, r0, r0
    1260:	d4000000 	strle	r0, [r0], #-0
    1264:	f8000000 			; <UNDEFINED> instruction: 0xf8000000
    1268:	01000000 	mrseq	r0, (UNDEF: 0)
    126c:	00f85000 	rscseq	r5, r8, r0
    1270:	010c0000 	mrseq	r0, (UNDEF: 12)
    1274:	00040000 	andeq	r0, r4, r0
    1278:	9f5001f3 	svcls	0x005001f3
	...
    1284:	000000e0 	andeq	r0, r0, r0, ror #1
    1288:	000000e8 	andeq	r0, r0, r8, ror #1
    128c:	9f300002 	svcls	0x00300002
    1290:	000000e8 	andeq	r0, r0, r8, ror #1
    1294:	000000e8 	andeq	r0, r0, r8, ror #1
    1298:	e8520001 	ldmda	r2, {r0}^
    129c:	f0000000 			; <UNDEFINED> instruction: 0xf0000000
    12a0:	02000000 	andeq	r0, r0, #0
    12a4:	f09f3000 			; <UNDEFINED> instruction: 0xf09f3000
    12a8:	03000000 	movweq	r0, #0
    12ac:	01000001 	tsteq	r0, r1
    12b0:	00005200 	andeq	r5, r0, r0, lsl #4
    12b4:	00000000 	andeq	r0, r0, r0
    12b8:	00e00000 	rsceq	r0, r0, r0
    12bc:	00f40000 	rscseq	r0, r4, r0
    12c0:	00020000 	andeq	r0, r2, r0
    12c4:	00f49f30 	rscseq	r9, r4, r0, lsr pc
    12c8:	01000000 	mrseq	r0, (UNDEF: 0)
    12cc:	00050000 	andeq	r0, r5, r0
    12d0:	24007331 	strcs	r7, [r0], #-817	; 0x331
    12d4:	0001009f 	muleq	r1, pc, r0	; <UNPREDICTABLE>
    12d8:	00010300 	andeq	r0, r1, r0, lsl #6
    12dc:	51000100 	mrspl	r0, (UNDEF: 16)
    12e0:	00000103 	andeq	r0, r0, r3, lsl #2
    12e4:	0000010c 	andeq	r0, r0, ip, lsl #2
    12e8:	f3310008 	vhadd.u<illegal width 64>	d0, d1, d8
    12ec:	1a4f5001 	bne	13d52f8 <__bss_end__+0x13caf88>
    12f0:	00009f24 	andeq	r9, r0, r4, lsr #30
    12f4:	00000000 	andeq	r0, r0, r0
    12f8:	010c0000 	mrseq	r0, (UNDEF: 12)
    12fc:	01300000 	teqeq	r0, r0
    1300:	00010000 	andeq	r0, r1, r0
    1304:	00013050 	andeq	r3, r1, r0, asr r0
    1308:	00014400 	andeq	r4, r1, r0, lsl #8
    130c:	f3000400 	vshl.u8	d0, d0, d0
    1310:	009f5001 	addseq	r5, pc, r1
    1314:	00000000 	andeq	r0, r0, r0
    1318:	18000000 	stmdane	r0, {}	; <UNPREDICTABLE>
    131c:	20000001 	andcs	r0, r0, r1
    1320:	02000001 	andeq	r0, r0, #1
    1324:	209f3000 	addscs	r3, pc, r0
    1328:	20000001 	andcs	r0, r0, r1
    132c:	01000001 	tsteq	r0, r1
    1330:	01205200 	teqeq	r0, r0, lsl #4
    1334:	01280000 	teqeq	r8, r0
    1338:	00020000 	andeq	r0, r2, r0
    133c:	01289f30 	teqeq	r8, r0, lsr pc
    1340:	013b0000 	teqeq	fp, r0
    1344:	00010000 	andeq	r0, r1, r0
    1348:	00000052 	andeq	r0, r0, r2, asr r0
    134c:	00000000 	andeq	r0, r0, r0
    1350:	00011800 	andeq	r1, r1, r0, lsl #16
    1354:	00012c00 	andeq	r2, r1, r0, lsl #24
    1358:	30000200 	andcc	r0, r0, r0, lsl #4
    135c:	00012c9f 	muleq	r1, pc, ip	; <UNPREDICTABLE>
    1360:	00013800 	andeq	r3, r1, r0, lsl #16
    1364:	31000500 	tstcc	r0, r0, lsl #10
    1368:	9f240073 	svcls	0x00240073
    136c:	00000138 	andeq	r0, r0, r8, lsr r1
    1370:	0000013b 	andeq	r0, r0, fp, lsr r1
    1374:	3b510001 	blcc	1441380 <__bss_end__+0x1437010>
    1378:	44000001 	strmi	r0, [r0], #-1
    137c:	08000001 	stmdaeq	r0, {r0}
    1380:	01f33100 	mvnseq	r3, r0, lsl #2
    1384:	241a4f50 	ldrcs	r4, [sl], #-3920	; 0xf50
    1388:	0000009f 	muleq	r0, pc, r0	; <UNPREDICTABLE>
    138c:	00000000 	andeq	r0, r0, r0
    1390:	00014400 	andeq	r4, r1, r0, lsl #8
    1394:	0001d400 	andeq	sp, r1, r0, lsl #8
    1398:	50000100 	andpl	r0, r0, r0, lsl #2
    139c:	000001d4 	ldrdeq	r0, [r0], -r4
    13a0:	00000210 	andeq	r0, r0, r0, lsl r2
    13a4:	00540001 	subseq	r0, r4, r1
    13a8:	00000000 	andeq	r0, r0, r0
    13ac:	8c000000 	stchi	0, cr0, [r0], {-0}
    13b0:	90000001 	andls	r0, r0, r1
    13b4:	01000001 	tsteq	r0, r1
    13b8:	01985500 	orrseq	r5, r8, r0, lsl #10
    13bc:	019c0000 	orrseq	r0, ip, r0
    13c0:	00010000 	andeq	r0, r1, r0
    13c4:	0001a455 	andeq	sl, r1, r5, asr r4
    13c8:	0001a800 	andeq	sl, r1, r0, lsl #16
    13cc:	55000100 	strpl	r0, [r0, #-256]	; 0x100
    13d0:	000001b0 			; <UNDEFINED> instruction: 0x000001b0
    13d4:	000001b4 			; <UNDEFINED> instruction: 0x000001b4
    13d8:	bc550001 	mrrclt	0, 0, r0, r5, cr1
    13dc:	c0000001 	andgt	r0, r0, r1
    13e0:	01000001 	tsteq	r0, r1
    13e4:	01c85500 	biceq	r5, r8, r0, lsl #10
    13e8:	01cc0000 	biceq	r0, ip, r0
    13ec:	00010000 	andeq	r0, r1, r0
    13f0:	0001d055 	andeq	sp, r1, r5, asr r0
    13f4:	00021000 	andeq	r1, r2, r0
    13f8:	55000100 	strpl	r0, [r0, #-256]	; 0x100
	...
    1404:	00000160 	andeq	r0, r0, r0, ror #2
    1408:	00000188 	andeq	r0, r0, r8, lsl #3
    140c:	88530001 	ldmdahi	r3, {r0}^
    1410:	90000001 	andls	r0, r0, r1
    1414:	1c000001 	stcne	0, cr0, [r0], {1}
    1418:	f7007000 			; <UNDEFINED> instruction: 0xf7007000
    141c:	f425f72c 	vld1.8	{d15}, [r5 :128], ip
    1420:	cccd0825 	stclgt	8, cr0, [sp], {37}	; 0x25
    1424:	0000cccc 	andeq	ip, r0, ip, asr #25
    1428:	081e0000 	ldmdaeq	lr, {}	; <UNPREDICTABLE>
    142c:	2525f720 	strcs	pc, [r5, #-1824]!	; 0x720
    1430:	25332cf7 	ldrcs	r2, [r3, #-3319]!	; 0xcf7
    1434:	0001909f 	muleq	r1, pc, r0	; <UNPREDICTABLE>
    1438:	00019400 	andeq	r9, r1, r0, lsl #8
    143c:	53000100 	movwpl	r0, #256	; 0x100
    1440:	00000194 	muleq	r0, r4, r1
    1444:	0000019c 	muleq	r0, ip, r1
    1448:	0070001c 	rsbseq	r0, r0, ip, lsl r0
    144c:	25f72cf7 	ldrbcs	r2, [r7, #3319]!	; 0xcf7
    1450:	cd0825f4 	cfstr32gt	mvfx2, [r8, #-976]	; 0xfffffc30
    1454:	00cccccc 	sbceq	ip, ip, ip, asr #25
    1458:	1e000000 	cdpne	0, 0, cr0, cr0, cr0, {0}
    145c:	25f72008 	ldrbcs	r2, [r7, #8]!
    1460:	332cf725 	msrcc	CPSR_fs, #9699328	; 0x940000
    1464:	019c9f25 	orrseq	r9, ip, r5, lsr #30
    1468:	01a00000 	moveq	r0, r0
    146c:	00010000 	andeq	r0, r1, r0
    1470:	0001a053 	andeq	sl, r1, r3, asr r0
    1474:	0001a800 	andeq	sl, r1, r0, lsl #16
    1478:	70001c00 	andvc	r1, r0, r0, lsl #24
    147c:	f72cf700 			; <UNDEFINED> instruction: 0xf72cf700
    1480:	0825f425 	stmdaeq	r5!, {r0, r2, r5, sl, ip, sp, lr, pc}
    1484:	cccccccd 	stclgt	12, cr12, [ip], {205}	; 0xcd
    1488:	00000000 	andeq	r0, r0, r0
    148c:	f720081e 			; <UNDEFINED> instruction: 0xf720081e
    1490:	2cf72525 	cfldr64cs	mvdx2, [r7], #148	; 0x94
    1494:	a89f2533 	ldmge	pc, {r0, r1, r4, r5, r8, sl, sp}	; <UNPREDICTABLE>
    1498:	ac000001 	stcge	0, cr0, [r0], {1}
    149c:	01000001 	tsteq	r0, r1
    14a0:	01ac5300 			; <UNDEFINED> instruction: 0x01ac5300
    14a4:	01b40000 			; <UNDEFINED> instruction: 0x01b40000
    14a8:	001c0000 	andseq	r0, ip, r0
    14ac:	2cf70070 	ldclcs	0, cr0, [r7], #448	; 0x1c0
    14b0:	25f425f7 	ldrbcs	r2, [r4, #1527]!	; 0x5f7
    14b4:	cccccd08 	stclgt	13, cr12, [ip], {8}
    14b8:	000000cc 	andeq	r0, r0, ip, asr #1
    14bc:	20081e00 	andcs	r1, r8, r0, lsl #28
    14c0:	f72525f7 			; <UNDEFINED> instruction: 0xf72525f7
    14c4:	9f25332c 	svcls	0x0025332c
    14c8:	000001b4 			; <UNDEFINED> instruction: 0x000001b4
    14cc:	000001b8 			; <UNDEFINED> instruction: 0x000001b8
    14d0:	b8530001 	ldmdalt	r3, {r0}^
    14d4:	c0000001 	andgt	r0, r0, r1
    14d8:	1c000001 	stcne	0, cr0, [r0], {1}
    14dc:	f7007000 			; <UNDEFINED> instruction: 0xf7007000
    14e0:	f425f72c 	vld1.8	{d15}, [r5 :128], ip
    14e4:	cccd0825 	stclgt	8, cr0, [sp], {37}	; 0x25
    14e8:	0000cccc 	andeq	ip, r0, ip, asr #25
    14ec:	081e0000 	ldmdaeq	lr, {}	; <UNPREDICTABLE>
    14f0:	2525f720 	strcs	pc, [r5, #-1824]!	; 0x720
    14f4:	25332cf7 	ldrcs	r2, [r3, #-3319]!	; 0xcf7
    14f8:	0001c09f 	muleq	r1, pc, r0	; <UNPREDICTABLE>
    14fc:	0001c400 	andeq	ip, r1, r0, lsl #8
    1500:	53000100 	movwpl	r0, #256	; 0x100
    1504:	000001c4 	andeq	r0, r0, r4, asr #3
    1508:	000001cc 	andeq	r0, r0, ip, asr #3
    150c:	0070001c 	rsbseq	r0, r0, ip, lsl r0
    1510:	25f72cf7 	ldrbcs	r2, [r7, #3319]!	; 0xcf7
    1514:	cd0825f4 	cfstr32gt	mvfx2, [r8, #-976]	; 0xfffffc30
    1518:	00cccccc 	sbceq	ip, ip, ip, asr #25
    151c:	1e000000 	cdpne	0, 0, cr0, cr0, cr0, {0}
    1520:	25f72008 	ldrbcs	r2, [r7, #8]!
    1524:	332cf725 	msrcc	CPSR_fs, #9699328	; 0x940000
    1528:	01cc9f25 	biceq	r9, ip, r5, lsr #30
    152c:	01d00000 	bicseq	r0, r0, r0
    1530:	00010000 	andeq	r0, r1, r0
    1534:	0001d053 	andeq	sp, r1, r3, asr r0
    1538:	0001d400 	andeq	sp, r1, r0, lsl #8
    153c:	70001c00 	andvc	r1, r0, r0, lsl #24
    1540:	f72cf700 			; <UNDEFINED> instruction: 0xf72cf700
    1544:	0825f425 	stmdaeq	r5!, {r0, r2, r5, sl, ip, sp, lr, pc}
    1548:	cccccccd 	stclgt	12, cr12, [ip], {205}	; 0xcd
    154c:	00000000 	andeq	r0, r0, r0
    1550:	f720081e 			; <UNDEFINED> instruction: 0xf720081e
    1554:	2cf72525 	cfldr64cs	mvdx2, [r7], #148	; 0x94
    1558:	d49f2533 	ldrle	r2, [pc], #1331	; 1560 <_start-0x6aa0>
    155c:	dc000001 	stcle	0, cr0, [r0], {1}
    1560:	1c000001 	stcne	0, cr0, [r0], {1}
    1564:	f7007400 			; <UNDEFINED> instruction: 0xf7007400
    1568:	f425f72c 	vld1.8	{d15}, [r5 :128], ip
    156c:	cccd0825 	stclgt	8, cr0, [sp], {37}	; 0x25
    1570:	0000cccc 	andeq	ip, r0, ip, asr #25
    1574:	081e0000 	ldmdaeq	lr, {}	; <UNPREDICTABLE>
    1578:	2525f720 	strcs	pc, [r5, #-1824]!	; 0x720
    157c:	25332cf7 	ldrcs	r2, [r3, #-3319]!	; 0xcf7
    1580:	0001dc9f 	muleq	r1, pc, ip	; <UNPREDICTABLE>
    1584:	0001e000 	andeq	lr, r1, r0
    1588:	74001700 	strvc	r1, [r0], #-1792	; 0x700
    158c:	f72cf700 			; <UNDEFINED> instruction: 0xf72cf700
    1590:	f7007125 			; <UNDEFINED> instruction: 0xf7007125
    1594:	1e25f72c 	cdpne	7, 2, cr15, cr5, cr12, {1}
    1598:	25f72008 	ldrbcs	r2, [r7, #8]!
    159c:	332cf725 	msrcc	CPSR_fs, #9699328	; 0x940000
    15a0:	01e09f25 	mvneq	r9, r5, lsr #30
    15a4:	02100000 	andseq	r0, r0, #0
    15a8:	001c0000 	andseq	r0, ip, r0
    15ac:	2cf70074 	ldclcs	0, cr0, [r7], #464	; 0x1d0
    15b0:	25f425f7 	ldrbcs	r2, [r4, #1527]!	; 0x5f7
    15b4:	cccccd08 	stclgt	13, cr12, [ip], {8}
    15b8:	000000cc 	andeq	r0, r0, ip, asr #1
    15bc:	20081e00 	andcs	r1, r8, r0, lsl #28
    15c0:	f72525f7 			; <UNDEFINED> instruction: 0xf72525f7
    15c4:	9f25332c 	svcls	0x0025332c
	...
    15d0:	000001d8 	ldrdeq	r0, [r0], -r8
    15d4:	000001fc 	strdeq	r0, [r0], -ip
    15d8:	fc500001 	mrrc2	0, 0, r0, r0, cr1	; <UNPREDICTABLE>
    15dc:	03000001 	movweq	r0, #1
    15e0:	01000002 	tsteq	r0, r2
    15e4:	00005100 	andeq	r5, r0, r0, lsl #2
    15e8:	00000000 	andeq	r0, r0, r0
    15ec:	02100000 	andseq	r0, r0, #0
    15f0:	022c0000 	eoreq	r0, ip, #0
    15f4:	00010000 	andeq	r0, r1, r0
    15f8:	00022c50 	andeq	r2, r2, r0, asr ip
    15fc:	00023400 	andeq	r3, r2, r0, lsl #8
    1600:	54000100 	strpl	r0, [r0], #-256	; 0x100
    1604:	00000234 	andeq	r0, r0, r4, lsr r2
    1608:	0000023c 	andeq	r0, r0, ip, lsr r2
    160c:	3c500001 	mrrccc	0, 0, r0, r0, cr1	; <UNPREDICTABLE>
    1610:	44000002 	strmi	r0, [r0], #-2
    1614:	01000002 	tsteq	r0, r2
    1618:	02445400 	subeq	r5, r4, #0, 8
    161c:	02500000 	subseq	r0, r0, #0
    1620:	00040000 	andeq	r0, r4, r0
    1624:	9f5001f3 	svcls	0x005001f3
    1628:	00000250 	andeq	r0, r0, r0, asr r2
    162c:	00000254 	andeq	r0, r0, r4, asr r2
    1630:	54500001 	ldrbpl	r0, [r0], #-1
    1634:	5c000002 	stcpl	0, cr0, [r0], {2}
    1638:	01000002 	tsteq	r0, r2
    163c:	00005400 	andeq	r5, r0, r0, lsl #8
    1640:	00000000 	andeq	r0, r0, r0
    1644:	02200000 	eoreq	r0, r0, #0
    1648:	02300000 	eorseq	r0, r0, #0
    164c:	00020000 	andeq	r0, r2, r0
    1650:	02309f30 	eorseq	r9, r0, #48, 30	; 0xc0
    1654:	02340000 	eorseq	r0, r4, #0
    1658:	00010000 	andeq	r0, r1, r0
    165c:	00023450 	andeq	r3, r2, r0, asr r4
    1660:	00024000 	andeq	r4, r2, r0
    1664:	30000200 	andcc	r0, r0, r0, lsl #4
    1668:	0002409f 	muleq	r2, pc, r0	; <UNPREDICTABLE>
    166c:	00024c00 	andeq	r4, r2, r0, lsl #24
    1670:	50000100 	andpl	r0, r0, r0, lsl #2
	...
    167c:	0000025c 	andeq	r0, r0, ip, asr r2
    1680:	00000273 	andeq	r0, r0, r3, ror r2
    1684:	73500001 	cmpvc	r0, #1
    1688:	78000002 	stmdavc	r0, {r1}
    168c:	04000002 	streq	r0, [r0], #-2
    1690:	5001f300 	andpl	pc, r1, r0, lsl #6
    1694:	0002789f 	muleq	r2, pc, r8	; <UNPREDICTABLE>
    1698:	00027b00 	andeq	r7, r2, r0, lsl #22
    169c:	50000100 	andpl	r0, r0, r0, lsl #2
    16a0:	0000027b 	andeq	r0, r0, fp, ror r2
    16a4:	00000280 	andeq	r0, r0, r0, lsl #5
    16a8:	01f30004 	mvnseq	r0, r4
    16ac:	00009f50 	andeq	r9, r0, r0, asr pc
    16b0:	00000000 	andeq	r0, r0, r0
    16b4:	025c0000 	subseq	r0, ip, #0
    16b8:	02730000 	rsbseq	r0, r3, #0
    16bc:	00010000 	andeq	r0, r1, r0
    16c0:	00027351 	andeq	r7, r2, r1, asr r3
    16c4:	00027800 	andeq	r7, r2, r0, lsl #16
    16c8:	f3000400 	vshl.u8	d0, d0, d0
    16cc:	789f5101 	ldmvc	pc, {r0, r8, ip, lr}	; <UNPREDICTABLE>
    16d0:	7b000002 	blvc	16e0 <_start-0x6920>
    16d4:	01000002 	tsteq	r0, r2
    16d8:	027b5100 	rsbseq	r5, fp, #0, 2
    16dc:	02800000 	addeq	r0, r0, #0
    16e0:	00040000 	andeq	r0, r4, r0
    16e4:	9f5101f3 	svcls	0x005101f3
	...
    16f0:	00000280 	andeq	r0, r0, r0, lsl #5
    16f4:	00000318 	andeq	r0, r0, r8, lsl r3
    16f8:	18500001 	ldmdane	r0, {r0}^
    16fc:	58000003 	stmdapl	r0, {r0, r1}
    1700:	01000003 	tsteq	r0, r3
    1704:	00005400 	andeq	r5, r0, r0, lsl #8
    1708:	00000000 	andeq	r0, r0, r0
    170c:	02800000 	addeq	r0, r0, #0
    1710:	031b0000 	tsteq	fp, #0
    1714:	00010000 	andeq	r0, r1, r0
    1718:	00031b51 	andeq	r1, r3, r1, asr fp
    171c:	00035800 	andeq	r5, r3, r0, lsl #16
    1720:	f3000400 	vshl.u8	d0, d0, d0
    1724:	009f5101 	addseq	r5, pc, r1, lsl #2
    1728:	00000000 	andeq	r0, r0, r0
    172c:	d0000000 	andle	r0, r0, r0
    1730:	d4000002 	strle	r0, [r0], #-2
    1734:	01000002 	tsteq	r0, r2
    1738:	02dc5600 	sbcseq	r5, ip, #0, 12
    173c:	02e00000 	rsceq	r0, r0, #0
    1740:	00010000 	andeq	r0, r1, r0
    1744:	0002e856 	andeq	lr, r2, r6, asr r8
    1748:	0002ec00 	andeq	lr, r2, r0, lsl #24
    174c:	56000100 	strpl	r0, [r0], -r0, lsl #2
    1750:	000002f4 	strdeq	r0, [r0], -r4
    1754:	000002f8 	strdeq	r0, [r0], -r8
    1758:	00560001 	subseq	r0, r6, r1
    175c:	04000003 	streq	r0, [r0], #-3
    1760:	01000003 	tsteq	r0, r3
    1764:	030c5600 	movweq	r5, #50688	; 0xc600
    1768:	03100000 	tsteq	r0, #0
    176c:	00010000 	andeq	r0, r1, r0
    1770:	00031456 	andeq	r1, r3, r6, asr r4
    1774:	00035800 	andeq	r5, r3, r0, lsl #16
    1778:	56000100 	strpl	r0, [r0], -r0, lsl #2
	...
    1784:	000002a4 	andeq	r0, r0, r4, lsr #5
    1788:	000002cc 	andeq	r0, r0, ip, asr #5
    178c:	cc530001 	mrrcgt	0, 0, r0, r3, cr1
    1790:	d4000002 	strle	r0, [r0], #-2
    1794:	1c000002 	stcne	0, cr0, [r0], {2}
    1798:	f7007000 			; <UNDEFINED> instruction: 0xf7007000
    179c:	f425f72c 	vld1.8	{d15}, [r5 :128], ip
    17a0:	cccd0825 	stclgt	8, cr0, [sp], {37}	; 0x25
    17a4:	0000cccc 	andeq	ip, r0, ip, asr #25
    17a8:	081e0000 	ldmdaeq	lr, {}	; <UNPREDICTABLE>
    17ac:	2525f720 	strcs	pc, [r5, #-1824]!	; 0x720
    17b0:	25332cf7 	ldrcs	r2, [r3, #-3319]!	; 0xcf7
    17b4:	0002d49f 	muleq	r2, pc, r4	; <UNPREDICTABLE>
    17b8:	0002d800 	andeq	sp, r2, r0, lsl #16
    17bc:	53000100 	movwpl	r0, #256	; 0x100
    17c0:	000002d8 	ldrdeq	r0, [r0], -r8
    17c4:	000002e0 	andeq	r0, r0, r0, ror #5
    17c8:	0070001c 	rsbseq	r0, r0, ip, lsl r0
    17cc:	25f72cf7 	ldrbcs	r2, [r7, #3319]!	; 0xcf7
    17d0:	cd0825f4 	cfstr32gt	mvfx2, [r8, #-976]	; 0xfffffc30
    17d4:	00cccccc 	sbceq	ip, ip, ip, asr #25
    17d8:	1e000000 	cdpne	0, 0, cr0, cr0, cr0, {0}
    17dc:	25f72008 	ldrbcs	r2, [r7, #8]!
    17e0:	332cf725 	msrcc	CPSR_fs, #9699328	; 0x940000
    17e4:	02e09f25 	rsceq	r9, r0, #37, 30	; 0x94
    17e8:	02e40000 	rsceq	r0, r4, #0
    17ec:	00010000 	andeq	r0, r1, r0
    17f0:	0002e453 	andeq	lr, r2, r3, asr r4
    17f4:	0002ec00 	andeq	lr, r2, r0, lsl #24
    17f8:	70001c00 	andvc	r1, r0, r0, lsl #24
    17fc:	f72cf700 			; <UNDEFINED> instruction: 0xf72cf700
    1800:	0825f425 	stmdaeq	r5!, {r0, r2, r5, sl, ip, sp, lr, pc}
    1804:	cccccccd 	stclgt	12, cr12, [ip], {205}	; 0xcd
    1808:	00000000 	andeq	r0, r0, r0
    180c:	f720081e 			; <UNDEFINED> instruction: 0xf720081e
    1810:	2cf72525 	cfldr64cs	mvdx2, [r7], #148	; 0x94
    1814:	ec9f2533 	cfldr32	mvfx2, [pc], {51}	; 0x33
    1818:	f0000002 			; <UNDEFINED> instruction: 0xf0000002
    181c:	01000002 	tsteq	r0, r2
    1820:	02f05300 	rscseq	r5, r0, #0, 6
    1824:	02f80000 	rscseq	r0, r8, #0
    1828:	001c0000 	andseq	r0, ip, r0
    182c:	2cf70070 	ldclcs	0, cr0, [r7], #448	; 0x1c0
    1830:	25f425f7 	ldrbcs	r2, [r4, #1527]!	; 0x5f7
    1834:	cccccd08 	stclgt	13, cr12, [ip], {8}
    1838:	000000cc 	andeq	r0, r0, ip, asr #1
    183c:	20081e00 	andcs	r1, r8, r0, lsl #28
    1840:	f72525f7 			; <UNDEFINED> instruction: 0xf72525f7
    1844:	9f25332c 	svcls	0x0025332c
    1848:	000002f8 	strdeq	r0, [r0], -r8
    184c:	000002fc 	strdeq	r0, [r0], -ip
    1850:	fc530001 	mrrc2	0, 0, r0, r3, cr1
    1854:	04000002 	streq	r0, [r0], #-2
    1858:	1c000003 	stcne	0, cr0, [r0], {3}
    185c:	f7007000 			; <UNDEFINED> instruction: 0xf7007000
    1860:	f425f72c 	vld1.8	{d15}, [r5 :128], ip
    1864:	cccd0825 	stclgt	8, cr0, [sp], {37}	; 0x25
    1868:	0000cccc 	andeq	ip, r0, ip, asr #25
    186c:	081e0000 	ldmdaeq	lr, {}	; <UNPREDICTABLE>
    1870:	2525f720 	strcs	pc, [r5, #-1824]!	; 0x720
    1874:	25332cf7 	ldrcs	r2, [r3, #-3319]!	; 0xcf7
    1878:	0003049f 	muleq	r3, pc, r4	; <UNPREDICTABLE>
    187c:	00030800 	andeq	r0, r3, r0, lsl #16
    1880:	53000100 	movwpl	r0, #256	; 0x100
    1884:	00000308 	andeq	r0, r0, r8, lsl #6
    1888:	00000310 	andeq	r0, r0, r0, lsl r3
    188c:	0070001c 	rsbseq	r0, r0, ip, lsl r0
    1890:	25f72cf7 	ldrbcs	r2, [r7, #3319]!	; 0xcf7
    1894:	cd0825f4 	cfstr32gt	mvfx2, [r8, #-976]	; 0xfffffc30
    1898:	00cccccc 	sbceq	ip, ip, ip, asr #25
    189c:	1e000000 	cdpne	0, 0, cr0, cr0, cr0, {0}
    18a0:	25f72008 	ldrbcs	r2, [r7, #8]!
    18a4:	332cf725 	msrcc	CPSR_fs, #9699328	; 0x940000
    18a8:	03109f25 	tsteq	r0, #37, 30	; 0x94
    18ac:	03140000 	tsteq	r4, #0
    18b0:	00010000 	andeq	r0, r1, r0
    18b4:	00031453 	andeq	r1, r3, r3, asr r4
    18b8:	00031800 	andeq	r1, r3, r0, lsl #16
    18bc:	70001c00 	andvc	r1, r0, r0, lsl #24
    18c0:	f72cf700 			; <UNDEFINED> instruction: 0xf72cf700
    18c4:	0825f425 	stmdaeq	r5!, {r0, r2, r5, sl, ip, sp, lr, pc}
    18c8:	cccccccd 	stclgt	12, cr12, [ip], {205}	; 0xcd
    18cc:	00000000 	andeq	r0, r0, r0
    18d0:	f720081e 			; <UNDEFINED> instruction: 0xf720081e
    18d4:	2cf72525 	cfldr64cs	mvdx2, [r7], #148	; 0x94
    18d8:	189f2533 	ldmne	pc, {r0, r1, r4, r5, r8, sl, sp}	; <UNPREDICTABLE>
    18dc:	20000003 	andcs	r0, r0, r3
    18e0:	1c000003 	stcne	0, cr0, [r0], {3}
    18e4:	f7007400 			; <UNDEFINED> instruction: 0xf7007400
    18e8:	f425f72c 	vld1.8	{d15}, [r5 :128], ip
    18ec:	cccd0825 	stclgt	8, cr0, [sp], {37}	; 0x25
    18f0:	0000cccc 	andeq	ip, r0, ip, asr #25
    18f4:	081e0000 	ldmdaeq	lr, {}	; <UNPREDICTABLE>
    18f8:	2525f720 	strcs	pc, [r5, #-1824]!	; 0x720
    18fc:	25332cf7 	ldrcs	r2, [r3, #-3319]!	; 0xcf7
    1900:	0003209f 	muleq	r3, pc, r0	; <UNPREDICTABLE>
    1904:	00032400 	andeq	r2, r3, r0, lsl #8
    1908:	74001700 	strvc	r1, [r0], #-1792	; 0x700
    190c:	f72cf700 			; <UNDEFINED> instruction: 0xf72cf700
    1910:	f7007325 			; <UNDEFINED> instruction: 0xf7007325
    1914:	1e25f72c 	cdpne	7, 2, cr15, cr5, cr12, {1}
    1918:	25f72008 	ldrbcs	r2, [r7, #8]!
    191c:	332cf725 	msrcc	CPSR_fs, #9699328	; 0x940000
    1920:	03249f25 	teqeq	r4, #37, 30	; 0x94
    1924:	03580000 	cmpeq	r8, #0
    1928:	001c0000 	andseq	r0, ip, r0
    192c:	2cf70074 	ldclcs	0, cr0, [r7], #464	; 0x1d0
    1930:	25f425f7 	ldrbcs	r2, [r4, #1527]!	; 0x5f7
    1934:	cccccd08 	stclgt	13, cr12, [ip], {8}
    1938:	000000cc 	andeq	r0, r0, ip, asr #1
    193c:	20081e00 	andcs	r1, r8, r0, lsl #28
    1940:	f72525f7 			; <UNDEFINED> instruction: 0xf72525f7
    1944:	9f25332c 	svcls	0x0025332c
	...
    1950:	0000031c 	andeq	r0, r0, ip, lsl r3
    1954:	00000340 	andeq	r0, r0, r0, asr #6
    1958:	40500001 	subsmi	r0, r0, r1
    195c:	48000003 	stmdami	r0, {r0, r1}
    1960:	09000003 	stmdbeq	r0, {r0, r1}
    1964:	73007500 	movwvc	r7, #1280	; 0x500
    1968:	00712400 	rsbseq	r2, r1, r0, lsl #8
    196c:	03489f21 	movteq	r9, #36641	; 0x8f21
    1970:	034b0000 	movteq	r0, #45056	; 0xb000
    1974:	00010000 	andeq	r0, r1, r0
    1978:	00000051 	andeq	r0, r0, r1, asr r0
    197c:	00000000 	andeq	r0, r0, r0
    1980:	00035800 	andeq	r5, r3, r0, lsl #16
    1984:	00037c00 	andeq	r7, r3, r0, lsl #24
    1988:	50000100 	andpl	r0, r0, r0, lsl #2
    198c:	0000037c 	andeq	r0, r0, ip, ror r3
    1990:	00000390 	muleq	r0, r0, r3
    1994:	01f30004 	mvnseq	r0, r4
    1998:	00009f50 	andeq	r9, r0, r0, asr pc
    199c:	00000000 	andeq	r0, r0, r0
    19a0:	03640000 	cmneq	r4, #0
    19a4:	036c0000 	cmneq	ip, #0
    19a8:	00020000 	andeq	r0, r2, r0
    19ac:	036c9f30 	cmneq	ip, #48, 30	; 0xc0
    19b0:	036c0000 	cmneq	ip, #0
    19b4:	00010000 	andeq	r0, r1, r0
    19b8:	00036c52 	andeq	r6, r3, r2, asr ip
    19bc:	00037400 	andeq	r7, r3, r0, lsl #8
    19c0:	30000200 	andcc	r0, r0, r0, lsl #4
    19c4:	0003749f 	muleq	r3, pc, r4	; <UNPREDICTABLE>
    19c8:	00038700 	andeq	r8, r3, r0, lsl #14
    19cc:	52000100 	andpl	r0, r0, #0, 2
	...
    19d8:	00000364 	andeq	r0, r0, r4, ror #6
    19dc:	00000378 	andeq	r0, r0, r8, ror r3
    19e0:	9f300002 	svcls	0x00300002
    19e4:	00000378 	andeq	r0, r0, r8, ror r3
    19e8:	00000384 	andeq	r0, r0, r4, lsl #7
    19ec:	73310005 	teqvc	r1, #5
    19f0:	849f2400 	ldrhi	r2, [pc], #1024	; 19f8 <_start-0x6608>
    19f4:	87000003 	strhi	r0, [r0, -r3]
    19f8:	01000003 	tsteq	r0, r3
    19fc:	03875100 	orreq	r5, r7, #0, 2
    1a00:	03900000 	orrseq	r0, r0, #0
    1a04:	00080000 	andeq	r0, r8, r0
    1a08:	5001f331 	andpl	pc, r1, r1, lsr r3	; <UNPREDICTABLE>
    1a0c:	9f241a4f 	svcls	0x00241a4f
	...
    1a18:	00000390 	muleq	r0, r0, r3
    1a1c:	0000039c 	muleq	r0, ip, r3
    1a20:	9c500001 	mrrcls	0, 0, r0, r0, cr1	; <UNPREDICTABLE>
    1a24:	bc000003 	stclt	0, cr0, [r0], {3}
    1a28:	04000003 	streq	r0, [r0], #-3
    1a2c:	5001f300 	andpl	pc, r1, r0, lsl #6
    1a30:	0000009f 	muleq	r0, pc, r0	; <UNPREDICTABLE>
    1a34:	00000000 	andeq	r0, r0, r0
    1a38:	0003bc00 	andeq	fp, r3, r0, lsl #24
    1a3c:	0003cf00 	andeq	ip, r3, r0, lsl #30
    1a40:	50000100 	andpl	r0, r0, r0, lsl #2
    1a44:	000003cf 	andeq	r0, r0, pc, asr #7
    1a48:	00000408 	andeq	r0, r0, r8, lsl #8
    1a4c:	08540001 	ldmdaeq	r4, {r0}^
    1a50:	40000004 	andmi	r0, r0, r4
    1a54:	04000004 	streq	r0, [r0], #-4
    1a58:	5001f300 	andpl	pc, r1, r0, lsl #6
    1a5c:	0000009f 	muleq	r0, pc, r0	; <UNPREDICTABLE>
    1a60:	00000000 	andeq	r0, r0, r0
    1a64:	00042800 	andeq	r2, r4, r0, lsl #16
    1a68:	00042c00 	andeq	r2, r4, r0, lsl #24
    1a6c:	50000100 	andpl	r0, r0, r0, lsl #2
    1a70:	0000042c 	andeq	r0, r0, ip, lsr #8
    1a74:	00000433 	andeq	r0, r0, r3, lsr r4
    1a78:	00510001 	subseq	r0, r1, r1
    1a7c:	00000000 	andeq	r0, r0, r0
    1a80:	e4000000 	str	r0, [r0], #-0
    1a84:	ec000003 	stc	0, cr0, [r0], {3}
    1a88:	01000003 	tsteq	r0, r3
    1a8c:	03ec5000 	mvneq	r5, #0
    1a90:	03f30000 	mvnseq	r0, #0
    1a94:	00010000 	andeq	r0, r1, r0
    1a98:	00000051 	andeq	r0, r0, r1, asr r0
    1a9c:	00000000 	andeq	r0, r0, r0
    1aa0:	00040400 	andeq	r0, r4, r0, lsl #8
    1aa4:	00041000 	andeq	r1, r4, r0
    1aa8:	50000100 	andpl	r0, r0, r0, lsl #2
    1aac:	00000410 	andeq	r0, r0, r0, lsl r4
    1ab0:	00000417 	andeq	r0, r0, r7, lsl r4
    1ab4:	00510001 	subseq	r0, r1, r1
    1ab8:	00000000 	andeq	r0, r0, r0
    1abc:	40000000 	andmi	r0, r0, r0
    1ac0:	53000004 	movwpl	r0, #4
    1ac4:	01000004 	tsteq	r0, r4
    1ac8:	04535000 	ldrbeq	r5, [r3], #-0
    1acc:	048c0000 	streq	r0, [ip], #0
    1ad0:	00010000 	andeq	r0, r1, r0
    1ad4:	00048c54 	andeq	r8, r4, r4, asr ip
    1ad8:	0004c400 	andeq	ip, r4, r0, lsl #8
    1adc:	f3000400 	vshl.u8	d0, d0, d0
    1ae0:	009f5001 	addseq	r5, pc, r1
    1ae4:	00000000 	andeq	r0, r0, r0
    1ae8:	ac000000 	stcge	0, cr0, [r0], {-0}
    1aec:	b0000004 	andlt	r0, r0, r4
    1af0:	01000004 	tsteq	r0, r4
    1af4:	04b05000 	ldrteq	r5, [r0], #0
    1af8:	04b70000 	ldrteq	r0, [r7], #0
    1afc:	00010000 	andeq	r0, r1, r0
    1b00:	00000051 	andeq	r0, r0, r1, asr r0
    1b04:	00000000 	andeq	r0, r0, r0
    1b08:	00046800 	andeq	r6, r4, r0, lsl #16
    1b0c:	00047000 	andeq	r7, r4, r0
    1b10:	50000100 	andpl	r0, r0, r0, lsl #2
    1b14:	00000470 	andeq	r0, r0, r0, ror r4
    1b18:	00000477 	andeq	r0, r0, r7, ror r4
    1b1c:	00510001 	subseq	r0, r1, r1
    1b20:	00000000 	andeq	r0, r0, r0
    1b24:	88000000 	stmdahi	r0, {}	; <UNPREDICTABLE>
    1b28:	94000004 	strls	r0, [r0], #-4
    1b2c:	01000004 	tsteq	r0, r4
    1b30:	04945000 	ldreq	r5, [r4], #0
    1b34:	049b0000 	ldreq	r0, [fp], #0
    1b38:	00010000 	andeq	r0, r1, r0
    1b3c:	00000051 	andeq	r0, r0, r1, asr r0
    1b40:	00000000 	andeq	r0, r0, r0
    1b44:	0004c400 	andeq	ip, r4, r0, lsl #8
    1b48:	0004d700 	andeq	sp, r4, r0, lsl #14
    1b4c:	50000100 	andpl	r0, r0, r0, lsl #2
    1b50:	000004d7 	ldrdeq	r0, [r0], -r7
    1b54:	00000518 	andeq	r0, r0, r8, lsl r5
    1b58:	18540001 	ldmdane	r4, {r0}^
    1b5c:	3c000005 	stccc	0, cr0, [r0], {5}
    1b60:	04000005 	streq	r0, [r0], #-5
    1b64:	5001f300 	andpl	pc, r1, r0, lsl #6
    1b68:	00053c9f 	muleq	r5, pc, ip	; <UNPREDICTABLE>
    1b6c:	00054000 	andeq	r4, r5, r0
    1b70:	50000100 	andpl	r0, r0, r0, lsl #2
    1b74:	00000540 	andeq	r0, r0, r0, asr #10
    1b78:	00000548 	andeq	r0, r0, r8, asr #10
    1b7c:	00540001 	subseq	r0, r4, r1
    1b80:	00000000 	andeq	r0, r0, r0
    1b84:	ec000000 	stc	0, cr0, [r0], {-0}
    1b88:	fb000004 	blx	1ba2 <_start-0x645e>
    1b8c:	08000004 	stmdaeq	r0, {r2}
    1b90:	00743100 	rsbseq	r3, r4, r0, lsl #2
    1b94:	1a007024 	bne	1dc2c <__bss_end__+0x138bc>
    1b98:	0000009f 	muleq	r0, pc, r0	; <UNPREDICTABLE>
    1b9c:	00000000 	andeq	r0, r0, r0
    1ba0:	00051800 	andeq	r1, r5, r0, lsl #16
    1ba4:	00053000 	andeq	r3, r5, r0
    1ba8:	54000100 	strpl	r0, [r0], #-256	; 0x100
	...
    1bb4:	00000548 	andeq	r0, r0, r8, asr #10
    1bb8:	0000055b 	andeq	r0, r0, fp, asr r5
    1bbc:	5b500001 	blpl	1401bc8 <__bss_end__+0x13f7858>
    1bc0:	80000005 	andhi	r0, r0, r5
    1bc4:	01000005 	tsteq	r0, r5
    1bc8:	05805400 	streq	r5, [r0, #1024]	; 0x400
    1bcc:	05a00000 	streq	r0, [r0, #0]!
    1bd0:	00040000 	andeq	r0, r4, r0
    1bd4:	9f5001f3 	svcls	0x005001f3
	...
    1be0:	000000fc 	strdeq	r0, [r0], -ip
    1be4:	00000104 	andeq	r0, r0, r4, lsl #2
    1be8:	04500001 	ldrbeq	r0, [r0], #-1
    1bec:	28000001 	stmdacs	r0, {r0}
    1bf0:	01000001 	tsteq	r0, r1
    1bf4:	00005400 	andeq	r5, r0, r0, lsl #8
    1bf8:	00000000 	andeq	r0, r0, r0
	...

Disassembly of section .debug_aranges:

00000000 <.debug_aranges>:
   0:	0000001c 	andeq	r0, r0, ip, lsl r0
   4:	00000002 	andeq	r0, r0, r2
   8:	00040000 	andeq	r0, r4, r0
   c:	00000000 	andeq	r0, r0, r0
  10:	00008010 	andeq	r8, r0, r0, lsl r0
  14:	000005a4 	andeq	r0, r0, r4, lsr #11
	...
  20:	0000001c 	andeq	r0, r0, ip, lsl r0
  24:	0eb90002 	cdpeq	0, 11, cr0, cr9, cr2, {0}
  28:	00040000 	andeq	r0, r4, r0
  2c:	00000000 	andeq	r0, r0, r0
  30:	000085b4 			; <UNDEFINED> instruction: 0x000085b4
  34:	00000568 	andeq	r0, r0, r8, ror #10
	...
  40:	0000001c 	andeq	r0, r0, ip, lsl r0
  44:	2a1b0002 	bcs	6c0054 <__bss_end__+0x6b5ce4>
  48:	00040000 	andeq	r0, r4, r0
  4c:	00000000 	andeq	r0, r0, r0
  50:	00008b1c 	andeq	r8, r0, ip, lsl fp
  54:	00000058 	andeq	r0, r0, r8, asr r0
	...
  60:	0000001c 	andeq	r0, r0, ip, lsl r0
  64:	2bb00002 	blcs	fec00074 <__bss_end__+0xfebf5d04>
  68:	00040000 	andeq	r0, r4, r0
  6c:	00000000 	andeq	r0, r0, r0
  70:	00008b74 	andeq	r8, r0, r4, ror fp
  74:	0000003c 	andeq	r0, r0, ip, lsr r0
	...
  80:	0000001c 	andeq	r0, r0, ip, lsl r0
  84:	2cc70002 	stclcs	0, cr0, [r7], {2}
  88:	00040000 	andeq	r0, r4, r0
  8c:	00000000 	andeq	r0, r0, r0
  90:	00008bb0 			; <UNDEFINED> instruction: 0x00008bb0
  94:	00000034 	andeq	r0, r0, r4, lsr r0
	...
  a0:	0000001c 	andeq	r0, r0, ip, lsl r0
  a4:	2db90002 	ldccs	0, cr0, [r9, #8]!
  a8:	00040000 	andeq	r0, r4, r0
  ac:	00000000 	andeq	r0, r0, r0
  b0:	00008be4 	andeq	r8, r0, r4, ror #23
  b4:	000004f8 	strdeq	r0, [r0], -r8
	...
  c0:	0000001c 	andeq	r0, r0, ip, lsl r0
  c4:	343e0002 	ldrtcc	r0, [lr], #-2
  c8:	00040000 	andeq	r0, r4, r0
  cc:	00000000 	andeq	r0, r0, r0
  d0:	000090dc 	ldrdeq	r9, [r0], -ip
  d4:	00000028 	andeq	r0, r0, r8, lsr #32
	...
  e0:	0000001c 	andeq	r0, r0, ip, lsl r0
  e4:	35410002 	strbcc	r0, [r1, #-2]
  e8:	00040000 	andeq	r0, r4, r0
  ec:	00000000 	andeq	r0, r0, r0
  f0:	00009104 	andeq	r9, r0, r4, lsl #2
  f4:	00000034 	andeq	r0, r0, r4, lsr r0
	...
 100:	0000001c 	andeq	r0, r0, ip, lsl r0
 104:	36440002 	strbcc	r0, [r4], -r2
 108:	00040000 	andeq	r0, r4, r0
 10c:	00000000 	andeq	r0, r0, r0
 110:	00009138 	andeq	r9, r0, r8, lsr r1
 114:	00000074 	andeq	r0, r0, r4, ror r0
	...
 120:	0000001c 	andeq	r0, r0, ip, lsl r0
 124:	37f50002 	ldrbcc	r0, [r5, r2]!
 128:	00040000 	andeq	r0, r4, r0
 12c:	00000000 	andeq	r0, r0, r0
 130:	000091ac 	andeq	r9, r0, ip, lsr #3
 134:	00000088 	andeq	r0, r0, r8, lsl #1
	...
 140:	0000001c 	andeq	r0, r0, ip, lsl r0
 144:	39d10002 	ldmibcc	r1, {r1}^
 148:	00040000 	andeq	r0, r4, r0
 14c:	00000000 	andeq	r0, r0, r0
 150:	00009234 	andeq	r9, r0, r4, lsr r2
 154:	000005a0 	andeq	r0, r0, r0, lsr #11
	...
 160:	0000001c 	andeq	r0, r0, ip, lsl r0
 164:	42570002 	subsmi	r0, r7, #2
 168:	00040000 	andeq	r0, r4, r0
 16c:	00000000 	andeq	r0, r0, r0
 170:	000097d4 	ldrdeq	r9, [r0], -r4
 174:	00000154 	andeq	r0, r0, r4, asr r1
	...

Disassembly of section .debug_ranges:

00000000 <.debug_ranges>:
   0:	00000488 	andeq	r0, r0, r8, lsl #9
   4:	0000049c 	muleq	r0, ip, r4
   8:	000004a0 	andeq	r0, r0, r0, lsr #9
   c:	000004fc 	strdeq	r0, [r0], -ip
	...
  18:	00000294 	muleq	r0, r4, r2
  1c:	00000298 	muleq	r0, r8, r2
  20:	000002c8 	andeq	r0, r0, r8, asr #5
  24:	000004b8 			; <UNDEFINED> instruction: 0x000004b8
	...
  30:	00009138 	andeq	r9, r0, r8, lsr r1
  34:	000091ac 	andeq	r9, r0, ip, lsr #3
	...

Disassembly of section .debug_line:

00000000 <.debug_line>:
   0:	000001aa 	andeq	r0, r0, sl, lsr #3
   4:	00e30002 	rsceq	r0, r3, r2
   8:	01020000 	mrseq	r0, (UNDEF: 2)
   c:	000d0efb 	strdeq	r0, [sp], -fp
  10:	01010101 	tsteq	r1, r1, lsl #2
  14:	01000000 	mrseq	r0, (UNDEF: 0)
  18:	2f010000 	svccs	0x00010000
  1c:	2f727375 	svccs	0x00727375
  20:	61636f6c 	cmnvs	r3, ip, ror #30
  24:	65432f6c 	strbvs	r2, [r3, #-3948]	; 0xf6c
  28:	72616c6c 	rsbvc	r6, r1, #108, 24	; 0x6c00
  2c:	6d72612f 	ldfvse	f6, [r2, #-188]!	; 0xffffff44
  30:	6e6f6e2d 	cdpvs	14, 6, cr6, cr15, cr13, {1}
  34:	61652d65 	cmnvs	r5, r5, ror #26
  38:	342f6962 	strtcc	r6, [pc], #-2402	; 40 <_start-0x7fc0>
  3c:	332e382e 	teqcc	lr, #3014656	; 0x2e0000
  40:	3173632d 	cmncc	r3, sp, lsr #6
  44:	2f653037 	svccs	0x00653037
  48:	2f62696c 	svccs	0x0062696c
  4c:	2f636367 	svccs	0x00636367
  50:	2d6d7261 	sfmcs	f7, 2, [sp, #-388]!	; 0xfffffe7c
  54:	656e6f6e 	strbvs	r6, [lr, #-3950]!	; 0xf6e
  58:	6261652d 	rsbvs	r6, r1, #188743680	; 0xb400000
  5c:	2e342f69 	cdpcs	15, 3, cr2, cr4, cr9, {3}
  60:	2f332e38 	svccs	0x00332e38
  64:	6c636e69 	stclvs	14, cr6, [r3], #-420	; 0xfffffe5c
  68:	00656475 	rsbeq	r6, r5, r5, ror r4
  6c:	6573552f 	ldrbvs	r5, [r3, #-1327]!	; 0x52f
  70:	622f7372 	eorvs	r7, pc, #-939524095	; 0xc8000001
  74:	6e616972 	mcrvs	9, 3, r6, cr1, cr2, {3}
  78:	2f6e756a 	svccs	0x006e756a
  7c:	6b736544 	blvs	1cd9594 <__bss_end__+0x1ccf224>
  80:	2f706f74 	svccs	0x00706f74
  84:	6f686373 	svcvs	0x00686373
  88:	572f6c6f 	strpl	r6, [pc, -pc, ror #24]!
  8c:	65746e69 	ldrbvs	r6, [r4, #-3689]!	; 0xe69
  90:	32393172 	eorscc	r3, r9, #-2147483620	; 0x8000001c
  94:	53432f30 	movtpl	r2, #16176	; 0x3f30
  98:	45303431 	ldrmi	r3, [r0, #-1073]!	; 0x431
  9c:	3173632f 	cmncc	r3, pc, lsr #6
  a0:	2d653034 	stclcs	0, cr3, [r5, #-208]!	; 0xffffff30
  a4:	69773032 	ldmdbvs	r7!, {r1, r4, r5, ip, sp}^
  a8:	696c2f6e 	stmdbvs	ip!, {r1, r2, r3, r5, r6, r8, r9, sl, fp, sp}^
  ac:	00697062 	rsbeq	r7, r9, r2, rrx
  b0:	63636100 	cmnvs	r3, #0, 2
  b4:	632e6c65 	teqvs	lr, #25856	; 0x6500
  b8:	00000000 	andeq	r0, r0, r0
  bc:	366d736c 	strbtcc	r7, [sp], -ip, ror #6
  c0:	33337364 	teqcc	r3, #100, 6	; 0x90000001
  c4:	0000682e 	andeq	r6, r0, lr, lsr #16
  c8:	74730000 	ldrbtvc	r0, [r3], #-0
  cc:	746e6964 	strbtvc	r6, [lr], #-2404	; 0x964
  d0:	6363672d 	cmnvs	r3, #11796480	; 0xb40000
  d4:	0100682e 	tsteq	r0, lr, lsr #16
  d8:	70720000 	rsbsvc	r0, r2, r0
  dc:	00682e69 	rsbeq	r2, r8, r9, ror #28
  e0:	69000002 	stmdbvs	r0, {r1}
  e4:	682e6332 	stmdavs	lr!, {r1, r4, r5, r8, r9, sp, lr}
  e8:	00000000 	andeq	r0, r0, r0
  ec:	02050000 	andeq	r0, r5, #0
  f0:	00008010 	andeq	r8, r0, r0, lsl r0
  f4:	13013903 	movwne	r3, #6403	; 0x1903
  f8:	d7134c30 			; <UNDEFINED> instruction: 0xd7134c30
  fc:	13660903 	cmnne	r6, #49152	; 0xc000
 100:	2e780367 	cdpcs	3, 7, cr0, cr8, cr7, {3}
 104:	0083bb67 	addeq	fp, r3, r7, ror #22
 108:	06010402 	streq	r0, [r1], -r2, lsl #8
 10c:	5603064a 	strpl	r0, [r3], -sl, asr #12
 110:	699f5808 	ldmibvs	pc, {r3, fp, ip, lr}	; <UNPREDICTABLE>
 114:	2f4c6984 	svccs	0x004c6984
 118:	d74e682f 	strble	r6, [lr, -pc, lsr #16]
 11c:	1c038367 	stcne	3, cr8, [r3], {103}	; 0x67
 120:	839fa04a 	orrshi	sl, pc, #74	; 0x4a
 124:	31848383 	orrcc	r8, r4, r3, lsl #7
 128:	304c4b67 	subcc	r4, ip, r7, ror #22
 12c:	002e0b03 	eoreq	r0, lr, r3, lsl #22
 130:	87010402 	strhi	r0, [r1, -r2, lsl #8]
 134:	8383a086 	orrhi	sl, r3, #134	; 0x86
 138:	68676784 	stmdavs	r7!, {r2, r7, r8, r9, sl, sp, lr}^
 13c:	31bbc268 			; <UNDEFINED> instruction: 0x31bbc268
 140:	0302046b 	movweq	r0, #9323	; 0x246b
 144:	04f27f85 	ldrbteq	r7, [r2], #3973	; 0xf85
 148:	00ff0301 	rscseq	r0, pc, r1, lsl #6
 14c:	f34bac08 			; <UNDEFINED> instruction: 0xf34bac08
 150:	2f2ff54b 	svccs	0x002ff54b
 154:	01040200 	mrseq	r0, R12_usr
 158:	da064a06 	ble	192978 <__bss_end__+0x188608>
 15c:	69bd8686 	ldmibvs	sp!, {r1, r2, r7, r9, sl, pc}
 160:	7708314c 	strvc	r3, [r8, -ip, asr #2]
 164:	9f9fa34c 	svcls	0x009fa34c
 168:	2fa09f9f 	svccs	0x00a09f9f
 16c:	302f302f 	eorcc	r3, pc, pc, lsr #32
 170:	002e7903 	eoreq	r7, lr, r3, lsl #18
 174:	2f020402 	svccs	0x00020402
 178:	02040200 	andeq	r0, r4, #0, 4
 17c:	04020067 	streq	r0, [r2], #-103	; 0x67
 180:	0200a002 	andeq	sl, r0, #2
 184:	00f30204 	rscseq	r0, r3, r4, lsl #4
 188:	a0020402 	andge	r0, r2, r2, lsl #8
 18c:	02040200 	andeq	r0, r4, #0, 4
 190:	004a7903 	subeq	r7, sl, r3, lsl #18
 194:	06010402 	streq	r0, [r1], -r2, lsl #8
 198:	0903062e 	stmdbeq	r3, {r1, r2, r3, r5, r9, sl}
 19c:	304bdb4a 	subcc	sp, fp, sl, asr #22
 1a0:	834e2f4b 	movthi	r2, #61259	; 0xef4b
 1a4:	4c3e084b 	ldcmi	8, cr0, [lr], #-300	; 0xfffffed4
 1a8:	000a022f 	andeq	r0, sl, pc, lsr #4
 1ac:	02410101 	subeq	r0, r1, #1073741824	; 0x40000000
 1b0:	00020000 	andeq	r0, r2, r0
 1b4:	00000104 	andeq	r0, r0, r4, lsl #2
 1b8:	0efb0102 	cdpeq	1, 15, cr0, cr11, cr2, {0}
 1bc:	0101000d 	tsteq	r1, sp
 1c0:	00000101 	andeq	r0, r0, r1, lsl #2
 1c4:	00000100 	andeq	r0, r0, r0, lsl #2
 1c8:	73752f01 	cmnvc	r5, #1, 30
 1cc:	696c2f72 	stmdbvs	ip!, {r1, r4, r5, r6, r8, r9, sl, fp, sp}^
 1d0:	63672f62 	cmnvs	r7, #392	; 0x188
 1d4:	72612f63 	rsbvc	r2, r1, #396	; 0x18c
 1d8:	6f6e2d6d 	svcvs	0x006e2d6d
 1dc:	652d656e 	strvs	r6, [sp, #-1390]!	; 0x56e
 1e0:	2f696261 	svccs	0x00696261
 1e4:	2e332e36 	mrccs	14, 1, r2, cr3, cr6, {1}
 1e8:	6e692f31 	mcrvs	15, 3, r2, cr9, cr1, {1}
 1ec:	64756c63 	ldrbtvs	r6, [r5], #-3171	; 0xc63
 1f0:	752f0065 	strvc	r0, [pc, #-101]!	; 193 <_start-0x7e6d>
 1f4:	692f7273 	stmdbvs	pc!, {r0, r1, r4, r5, r6, r9, ip, sp, lr}	; <UNPREDICTABLE>
 1f8:	756c636e 	strbvc	r6, [ip, #-878]!	; 0x36e
 1fc:	6e2f6564 	cfsh64vs	mvdx6, mvdx15, #52
 200:	696c7765 	stmdbvs	ip!, {r0, r2, r5, r6, r8, r9, sl, ip, sp, lr}^
 204:	79732f62 	ldmdbvc	r3!, {r1, r5, r6, r8, r9, sl, fp, sp}^
 208:	682f0073 	stmdavs	pc!, {r0, r1, r4, r5, r6}	; <UNPREDICTABLE>
 20c:	2f656d6f 	svccs	0x00656d6f
 210:	6c676e65 	stclvs	14, cr6, [r7], #-404	; 0xfffffe6c
 214:	632f7265 	teqvs	pc, #1342177286	; 0x50000006
 218:	7373616c 	cmnvc	r3, #108, 2
 21c:	3173632f 	cmncc	r3, pc, lsr #6
 220:	2d653034 	stclcs	0, cr3, [r5, #-208]!	; 0xffffff30
 224:	69773032 	ldmdbvs	r7!, {r1, r4, r5, ip, sp}^
 228:	696c2f6e 	stmdbvs	ip!, {r1, r2, r3, r5, r6, r8, r9, sl, fp, sp}^
 22c:	00697062 	rsbeq	r7, r9, r2, rrx
 230:	6d6f682f 	stclvs	8, cr6, [pc, #-188]!	; 17c <_start-0x7e84>
 234:	6e652f65 	cdpvs	15, 6, cr2, cr5, cr5, {3}
 238:	72656c67 	rsbvc	r6, r5, #26368	; 0x6700
 23c:	616c632f 	cmnvs	ip, pc, lsr #6
 240:	632f7373 	teqvs	pc, #-872415231	; 0xcc000001
 244:	30343173 	eorscc	r3, r4, r3, ror r1
 248:	30322d65 	eorscc	r2, r2, r5, ror #26
 24c:	2f6e6977 	svccs	0x006e6977
 250:	7062696c 	rsbvc	r6, r2, ip, ror #18
 254:	73632f69 	cmnvc	r3, #420	; 0x1a4
 258:	65303431 	ldrvs	r3, [r0, #-1073]!	; 0x431
 25c:	6372732d 	cmnvs	r2, #-1275068416	; 0xb4000000
 260:	32690000 	rsbcc	r0, r9, #0
 264:	00632e63 	rsbeq	r2, r3, r3, ror #28
 268:	73000000 	movwvc	r0, #0
 26c:	6e696474 	mcrvs	4, 3, r6, cr9, cr4, {3}
 270:	63672d74 	cmnvs	r7, #116, 26	; 0x1d00
 274:	00682e63 	rsbeq	r2, r8, r3, ror #28
 278:	6c000001 	stcvs	0, cr0, [r0], {1}
 27c:	2e6b636f 	cdpcs	3, 6, cr6, cr11, cr15, {3}
 280:	00020068 	andeq	r0, r2, r8, rrx
 284:	79745f00 	ldmdbvc	r4!, {r8, r9, sl, fp, ip, lr}^
 288:	2e736570 	mrccs	5, 3, r6, cr3, cr0, {3}
 28c:	00020068 	andeq	r0, r2, r8, rrx
 290:	64747300 	ldrbtvs	r7, [r4], #-768	; 0x300
 294:	2e666564 	cdpcs	5, 6, cr6, cr6, cr4, {3}
 298:	00010068 	andeq	r0, r1, r8, rrx
 29c:	65657200 	strbvs	r7, [r5, #-512]!	; 0x200
 2a0:	682e746e 	stmdavs	lr!, {r1, r2, r3, r5, r6, sl, ip, sp, lr}
 2a4:	00000200 	andeq	r0, r0, r0, lsl #4
 2a8:	2e697072 	mcrcs	0, 3, r7, cr9, cr2, {3}
 2ac:	00030068 	andeq	r0, r3, r8, rrx
 2b0:	69706700 	ldmdbvs	r0!, {r8, r9, sl, sp, lr}^
 2b4:	00682e6f 	rsbeq	r2, r8, pc, ror #28
 2b8:	00000004 	andeq	r0, r0, r4
 2bc:	b4020500 	strlt	r0, [r2], #-1280	; 0x500
 2c0:	03000085 	movweq	r0, #133	; 0x85
 2c4:	130100f3 	movwne	r0, #4339	; 0x10f3
 2c8:	302f2f2f 	eorcc	r2, pc, pc, lsr #30
 2cc:	132e3703 	teqne	lr, #786432	; 0xc0000
 2d0:	01b5034c 			; <UNDEFINED> instruction: 0x01b5034c
 2d4:	2e1d032e 	cdpcs	3, 1, cr0, cr13, cr14, {1}
 2d8:	2e7f8b03 	vaddcs.f64	d24, d15, d3
 2dc:	04040200 	streq	r0, [r4], #-512	; 0x200
 2e0:	04020030 	streq	r0, [r2], #-48	; 0x30
 2e4:	00820605 	addeq	r0, r2, r5, lsl #12
 2e8:	82020402 	andhi	r0, r2, #33554432	; 0x2000000
 2ec:	03040200 	movweq	r0, #16896	; 0x4200
 2f0:	04020082 	streq	r0, [r2], #-130	; 0x82
 2f4:	d906d601 	stmdble	r6, {r0, r9, sl, ip, lr, pc}
 2f8:	02008484 	andeq	r8, r0, #132, 8	; 0x84000000
 2fc:	00460104 	subeq	r0, r6, r4, lsl #2
 300:	d8010402 	stmdale	r1, {r1, sl}
 304:	087f9d03 	ldmdaeq	pc!, {r0, r1, r8, sl, fp, ip, pc}^	; <UNPREDICTABLE>
 308:	034b2fe4 	movteq	r2, #49124	; 0xbfe4
 30c:	672f2e2d 	strvs	r2, [pc, -sp, lsr #28]!
 310:	7f8f0334 	svcvc	0x008f0334
 314:	034b2f9e 	movteq	r2, #49054	; 0xbf9e
 318:	832e00f2 	teqhi	lr, #242	; 0xf2
 31c:	04040200 	streq	r0, [r4], #-512	; 0x200
 320:	04020031 	streq	r0, [r2], #-49	; 0x31
 324:	00820605 	addeq	r0, r2, r5, lsl #12
 328:	82020402 	andhi	r0, r2, #33554432	; 0x2000000
 32c:	03040200 	movweq	r0, #16896	; 0x4200
 330:	04020082 	streq	r0, [r2], #-130	; 0x82
 334:	d906d601 	stmdble	r6, {r0, r9, sl, ip, lr, pc}
 338:	694b3184 	stmdbvs	fp, {r2, r7, r8, ip, sp}^
 33c:	2f68684b 	svccs	0x0068684b
 340:	0402004b 	streq	r0, [r2], #-75	; 0x4b
 344:	02006e04 	andeq	r6, r0, #4, 28	; 0x40
 348:	82060504 	andhi	r0, r6, #4, 10	; 0x1000000
 34c:	02040200 	andeq	r0, r4, #0, 4
 350:	04020082 	streq	r0, [r2], #-130	; 0x82
 354:	02008203 	andeq	r8, r0, #805306368	; 0x30000000
 358:	03060104 	movweq	r0, #24836	; 0x6104
 35c:	0200d668 	andeq	sp, r0, #104, 12	; 0x6800000
 360:	00db0104 	sbcseq	r0, fp, r4, lsl #2
 364:	da010402 	ble	41374 <__bss_end__+0x37004>
 368:	01040200 	mrseq	r0, R12_usr
 36c:	d7d60f03 	ldrble	r0, [r6, r3, lsl #30]
 370:	74080f03 	strvc	r0, [r8], #-3843	; 0xf03
 374:	02006867 	andeq	r6, r0, #6750208	; 0x670000
 378:	004c0104 	subeq	r0, ip, r4, lsl #2
 37c:	d9020402 	stmdble	r2, {r1, sl}
 380:	02040200 	andeq	r0, r4, #0, 4
 384:	04020061 	streq	r0, [r2], #-97	; 0x61
 388:	002e0601 	eoreq	r0, lr, r1, lsl #12
 38c:	06040402 	streq	r0, [r4], -r2, lsl #8
 390:	0402004c 	streq	r0, [r2], #-76	; 0x4c
 394:	00820605 	addeq	r0, r2, r5, lsl #12
 398:	82020402 	andhi	r0, r2, #33554432	; 0x2000000
 39c:	03040200 	movweq	r0, #16896	; 0x4200
 3a0:	30dc0682 	sbcscc	r0, ip, r2, lsl #13
 3a4:	006967f5 	strdeq	r6, [r9], #-117	; 0xffffff8b	; <UNPREDICTABLE>
 3a8:	4c010402 	cfstrsmi	mvf0, [r1], {2}
 3ac:	02040200 	andeq	r0, r4, #0, 4
 3b0:	040200d9 	streq	r0, [r2], #-217	; 0xd9
 3b4:	02006102 	andeq	r6, r0, #-2147483648	; 0x80000000
 3b8:	2e060104 	adfcss	f0, f6, f4
 3bc:	04040200 	streq	r0, [r4], #-512	; 0x200
 3c0:	02004c06 	andeq	r4, r0, #1536	; 0x600
 3c4:	82060504 	andhi	r0, r6, #4, 10	; 0x1000000
 3c8:	02040200 	andeq	r0, r4, #0, 4
 3cc:	04020082 	streq	r0, [r2], #-130	; 0x82
 3d0:	dc068203 	sfmle	f0, 1, [r6], {3}
 3d4:	8a14db30 	bhi	53709c <__bss_end__+0x52cd2c>
 3d8:	6732302f 	ldrvs	r3, [r2, -pc, lsr #32]!
 3dc:	30843468 	addcc	r3, r4, r8, ror #8
 3e0:	00682f30 	rsbeq	r2, r8, r0, lsr pc
 3e4:	80010402 	andhi	r0, r1, r2, lsl #8
 3e8:	90086203 	andls	r6, r8, r3, lsl #4
 3ec:	0402682f 	streq	r6, [r2], #-2095	; 0x82f
 3f0:	02010100 	andeq	r0, r1, #0, 2
 3f4:	02000001 	andeq	r0, r0, #1
 3f8:	0000eb00 	andeq	lr, r0, r0, lsl #22
 3fc:	fb010200 	blx	40c06 <__bss_end__+0x36896>
 400:	01000d0e 	tsteq	r0, lr, lsl #26
 404:	00010101 	andeq	r0, r1, r1, lsl #2
 408:	00010000 	andeq	r0, r1, r0
 40c:	696c0100 	stmdbvs	ip!, {r8}^
 410:	2f006362 	svccs	0x00006362
 414:	2f727375 	svccs	0x00727375
 418:	61636f6c 	cmnvs	r3, ip, ror #30
 41c:	65432f6c 	strbvs	r2, [r3, #-3948]	; 0xf6c
 420:	72616c6c 	rsbvc	r6, r1, #108, 24	; 0x6c00
 424:	6d72612f 	ldfvse	f6, [r2, #-188]!	; 0xffffff44
 428:	6e6f6e2d 	cdpvs	14, 6, cr6, cr15, cr13, {1}
 42c:	61652d65 	cmnvs	r5, r5, ror #26
 430:	342f6962 	strtcc	r6, [pc], #-2402	; 438 <_start-0x7bc8>
 434:	332e382e 	teqcc	lr, #3014656	; 0x2e0000
 438:	3173632d 	cmncc	r3, sp, lsr #6
 43c:	2f653037 	svccs	0x00653037
 440:	2f62696c 	svccs	0x0062696c
 444:	2f636367 	svccs	0x00636367
 448:	2d6d7261 	sfmcs	f7, 2, [sp, #-388]!	; 0xfffffe7c
 44c:	656e6f6e 	strbvs	r6, [lr, #-3950]!	; 0xf6e
 450:	6261652d 	rsbvs	r6, r1, #188743680	; 0xb400000
 454:	2e342f69 	cdpcs	15, 3, cr2, cr4, cr9, {3}
 458:	2f332e38 	svccs	0x00332e38
 45c:	6c636e69 	stclvs	14, cr6, [r3], #-420	; 0xfffffe5c
 460:	00656475 	rsbeq	r6, r5, r5, ror r4
 464:	6573552f 	ldrbvs	r5, [r3, #-1327]!	; 0x52f
 468:	622f7372 	eorvs	r7, pc, #-939524095	; 0xc8000001
 46c:	6e616972 	mcrvs	9, 3, r6, cr1, cr2, {3}
 470:	2f6e756a 	svccs	0x006e756a
 474:	6b736544 	blvs	1cd998c <__bss_end__+0x1ccf61c>
 478:	2f706f74 	svccs	0x00706f74
 47c:	6f686373 	svcvs	0x00686373
 480:	572f6c6f 	strpl	r6, [pc, -pc, ror #24]!
 484:	65746e69 	ldrbvs	r6, [r4, #-3689]!	; 0xe69
 488:	32393172 	eorscc	r3, r9, #-2147483620	; 0x8000001c
 48c:	53432f30 	movtpl	r2, #16176	; 0x3f30
 490:	45303431 	ldrmi	r3, [r0, #-1073]!	; 0x431
 494:	3173632f 	cmncc	r3, pc, lsr #6
 498:	2d653034 	stclcs	0, cr3, [r5, #-208]!	; 0xffffff30
 49c:	69773032 	ldmdbvs	r7!, {r1, r4, r5, ip, sp}^
 4a0:	696c2f6e 	stmdbvs	ip!, {r1, r2, r3, r5, r6, r8, r9, sl, fp, sp}^
 4a4:	00697062 	rsbeq	r7, r9, r2, rrx
 4a8:	69727000 	ldmdbvs	r2!, {ip, sp, lr}^
 4ac:	2e6b746e 	cdpcs	4, 6, cr7, cr11, cr14, {3}
 4b0:	00010063 	andeq	r0, r1, r3, rrx
 4b4:	64747300 	ldrbtvs	r7, [r4], #-768	; 0x300
 4b8:	2e677261 	cdpcs	2, 6, cr7, cr7, cr1, {3}
 4bc:	00020068 	andeq	r0, r2, r8, rrx
 4c0:	75623c00 	strbvc	r3, [r2, #-3072]!	; 0xc00
 4c4:	2d746c69 	ldclcs	12, cr6, [r4, #-420]!	; 0xfffffe5c
 4c8:	003e6e69 	eorseq	r6, lr, r9, ror #28
 4cc:	72000000 	andvc	r0, r0, #0
 4d0:	682e6970 	stmdavs	lr!, {r4, r5, r6, r8, fp, sp, lr}
 4d4:	00000300 	andeq	r0, r0, r0, lsl #6
 4d8:	702d6176 	eorvc	r6, sp, r6, ror r1
 4dc:	746e6972 	strbtvc	r6, [lr], #-2418	; 0x972
 4e0:	00682e6b 	rsbeq	r2, r8, fp, ror #28
 4e4:	00000001 	andeq	r0, r0, r1
 4e8:	1c020500 	cfstr32ne	mvfx0, [r2], {-0}
 4ec:	1700008b 	strne	r0, [r0, -fp, lsl #1]
 4f0:	89bf4b6b 	ldmibhi	pc!, {r0, r1, r3, r5, r6, r8, r9, fp, lr}	; <UNPREDICTABLE>
 4f4:	01000e02 	tsteq	r0, r2, lsl #28
 4f8:	00008a01 	andeq	r8, r0, r1, lsl #20
 4fc:	72000200 	andvc	r0, r0, #0, 4
 500:	02000000 	andeq	r0, r0, #0
 504:	0d0efb01 	vstreq	d15, [lr, #-4]
 508:	01010100 	mrseq	r0, (UNDEF: 17)
 50c:	00000001 	andeq	r0, r0, r1
 510:	01000001 	tsteq	r0, r1
 514:	6362696c 	cmnvs	r2, #108, 18	; 0x1b0000
 518:	73552f00 	cmpvc	r5, #0, 30
 51c:	2f737265 	svccs	0x00737265
 520:	61697262 	cmnvs	r9, r2, ror #4
 524:	6e756a6e 	vsubvs.f32	s13, s10, s29
 528:	7365442f 	cmnvc	r5, #788529152	; 0x2f000000
 52c:	706f746b 	rsbvc	r7, pc, fp, ror #8
 530:	6863732f 	stmdavs	r3!, {r0, r1, r2, r3, r5, r8, r9, ip, sp, lr}^
 534:	2f6c6f6f 	svccs	0x006c6f6f
 538:	746e6957 	strbtvc	r6, [lr], #-2391	; 0x957
 53c:	39317265 	ldmdbcc	r1!, {r0, r2, r5, r6, r9, ip, sp, lr}
 540:	432f3032 	teqmi	pc, #50	; 0x32
 544:	30343153 	eorscc	r3, r4, r3, asr r1
 548:	73632f45 	cmnvc	r3, #276	; 0x114
 54c:	65303431 	ldrvs	r3, [r0, #-1073]!	; 0x431
 550:	7730322d 	ldrvc	r3, [r0, -sp, lsr #4]!
 554:	6c2f6e69 	stcvs	14, cr6, [pc], #-420	; 3b8 <_start-0x7c48>
 558:	69706269 	ldmdbvs	r0!, {r0, r3, r5, r6, r9, sp, lr}^
 55c:	75700000 	ldrbvc	r0, [r0, #-0]!
 560:	61686374 	smcvs	34356	; 0x8634
 564:	00632e72 	rsbeq	r2, r3, r2, ror lr
 568:	72000001 	andvc	r0, r0, #1
 56c:	682e6970 	stmdavs	lr!, {r4, r5, r6, r8, fp, sp, lr}
 570:	00000200 	andeq	r0, r0, r0, lsl #4
 574:	02050000 	andeq	r0, r5, #0
 578:	00008b74 	andeq	r8, r0, r4, ror fp
 57c:	136b4a14 	cmnne	fp, #20, 20	; 0x14000
 580:	080213bc 	stmdaeq	r2, {r2, r3, r4, r5, r7, r8, r9, ip}
 584:	96010100 	strls	r0, [r1], -r0, lsl #2
 588:	02000000 	andeq	r0, r0, #0
 58c:	00006f00 	andeq	r6, r0, r0, lsl #30
 590:	fb010200 	blx	40d9a <__bss_end__+0x36a2a>
 594:	01000d0e 	tsteq	r0, lr, lsl #26
 598:	00010101 	andeq	r0, r1, r1, lsl #2
 59c:	00010000 	andeq	r0, r1, r0
 5a0:	696c0100 	stmdbvs	ip!, {r8}^
 5a4:	2f006362 	svccs	0x00006362
 5a8:	72657355 	rsbvc	r7, r5, #1409286145	; 0x54000001
 5ac:	72622f73 	rsbvc	r2, r2, #460	; 0x1cc
 5b0:	6a6e6169 	bvs	1b98b5c <__bss_end__+0x1b8e7ec>
 5b4:	442f6e75 	strtmi	r6, [pc], #-3701	; 5bc <_start-0x7a44>
 5b8:	746b7365 	strbtvc	r7, [fp], #-869	; 0x365
 5bc:	732f706f 	teqvc	pc, #111	; 0x6f
 5c0:	6f6f6863 	svcvs	0x006f6863
 5c4:	69572f6c 	ldmdbvs	r7, {r2, r3, r5, r6, r8, r9, sl, fp, sp}^
 5c8:	7265746e 	rsbvc	r7, r5, #1845493760	; 0x6e000000
 5cc:	30323931 	eorscc	r3, r2, r1, lsr r9
 5d0:	3153432f 	cmpcc	r3, pc, lsr #6
 5d4:	2f453034 	svccs	0x00453034
 5d8:	34317363 	ldrtcc	r7, [r1], #-867	; 0x363
 5dc:	322d6530 	eorcc	r6, sp, #48, 10	; 0xc000000
 5e0:	6e697730 	mcrvs	7, 3, r7, cr9, cr0, {1}
 5e4:	62696c2f 	rsbvs	r6, r9, #12032	; 0x2f00
 5e8:	00006970 	andeq	r6, r0, r0, ror r9
 5ec:	6b747570 	blvs	1d1dbb4 <__bss_end__+0x1d13844>
 5f0:	0100632e 	tsteq	r0, lr, lsr #6
 5f4:	70720000 	rsbsvc	r0, r2, r0
 5f8:	00682e69 	rsbeq	r2, r8, r9, ror #28
 5fc:	00000002 	andeq	r0, r0, r2
 600:	b0020500 	andlt	r0, r2, r0, lsl #10
 604:	1500008b 	strne	r0, [r0, #-139]	; 0x8b
 608:	02002d4c 	andeq	r2, r0, #76, 26	; 0x1300
 60c:	002f0204 	eoreq	r0, pc, r4, lsl #4
 610:	49020402 	stmdbmi	r2, {r1, sl}
 614:	01040200 	mrseq	r0, R12_usr
 618:	6b062e06 	blvs	18be38 <__bss_end__+0x181ac8>
 61c:	01000602 	tsteq	r0, r2, lsl #12
 620:	0001de01 	andeq	sp, r1, r1, lsl #28
 624:	df000200 	svcle	0x00000200
 628:	02000000 	andeq	r0, r0, #0
 62c:	0d0efb01 	vstreq	d15, [lr, #-4]
 630:	01010100 	mrseq	r0, (UNDEF: 17)
 634:	00000001 	andeq	r0, r0, r1
 638:	01000001 	tsteq	r0, r1
 63c:	6362696c 	cmnvs	r2, #108, 18	; 0x1b0000
 640:	73752f00 	cmnvc	r5, #0, 30
 644:	6f6c2f72 	svcvs	0x006c2f72
 648:	2f6c6163 	svccs	0x006c6163
 64c:	6c6c6543 	cfstr64vs	mvdx6, [ip], #-268	; 0xfffffef4
 650:	612f7261 	teqvs	pc, r1, ror #4
 654:	6e2d6d72 	mcrvs	13, 1, r6, cr13, cr2, {3}
 658:	2d656e6f 	stclcs	14, cr6, [r5, #-444]!	; 0xfffffe44
 65c:	69626165 	stmdbvs	r2!, {r0, r2, r5, r6, r8, sp, lr}^
 660:	382e342f 	stmdacc	lr!, {r0, r1, r2, r3, r5, sl, ip, sp}
 664:	632d332e 	teqvs	sp, #-1207959552	; 0xb8000000
 668:	30373173 	eorscc	r3, r7, r3, ror r1
 66c:	696c2f65 	stmdbvs	ip!, {r0, r2, r5, r6, r8, r9, sl, fp, sp}^
 670:	63672f62 	cmnvs	r7, #392	; 0x188
 674:	72612f63 	rsbvc	r2, r1, #396	; 0x18c
 678:	6f6e2d6d 	svcvs	0x006e2d6d
 67c:	652d656e 	strvs	r6, [sp, #-1390]!	; 0x56e
 680:	2f696261 	svccs	0x00696261
 684:	2e382e34 	mrccs	14, 1, r2, cr8, cr4, {1}
 688:	6e692f33 	mcrvs	15, 3, r2, cr9, cr3, {1}
 68c:	64756c63 	ldrbtvs	r6, [r5], #-3171	; 0xc63
 690:	552f0065 	strpl	r0, [pc, #-101]!	; 633 <_start-0x79cd>
 694:	73726573 	cmnvc	r2, #482344960	; 0x1cc00000
 698:	6972622f 	ldmdbvs	r2!, {r0, r1, r2, r3, r5, r9, sp, lr}^
 69c:	756a6e61 	strbvc	r6, [sl, #-3681]!	; 0xe61
 6a0:	65442f6e 	strbvs	r2, [r4, #-3950]	; 0xf6e
 6a4:	6f746b73 	svcvs	0x00746b73
 6a8:	63732f70 	cmnvs	r3, #112, 30	; 0x1c0
 6ac:	6c6f6f68 	stclvs	15, cr6, [pc], #-416	; 514 <_start-0x7aec>
 6b0:	6e69572f 	cdpvs	7, 6, cr5, cr9, cr15, {1}
 6b4:	31726574 	cmncc	r2, r4, ror r5
 6b8:	2f303239 	svccs	0x00303239
 6bc:	34315343 	ldrtcc	r5, [r1], #-835	; 0x343
 6c0:	632f4530 	teqvs	pc, #48, 10	; 0xc000000
 6c4:	30343173 	eorscc	r3, r4, r3, ror r1
 6c8:	30322d65 	eorscc	r2, r2, r5, ror #26
 6cc:	2f6e6977 	svccs	0x006e6977
 6d0:	7062696c 	rsbvc	r6, r2, ip, ror #18
 6d4:	76000069 	strvc	r0, [r0], -r9, rrx
 6d8:	72702d61 	rsbsvc	r2, r0, #6208	; 0x1840
 6dc:	6b746e69 	blvs	1d1c088 <__bss_end__+0x1d11d18>
 6e0:	0100632e 	tsteq	r0, lr, lsr #6
 6e4:	74730000 	ldrbtvc	r0, [r3], #-0
 6e8:	67726164 	ldrbvs	r6, [r2, -r4, ror #2]!
 6ec:	0200682e 	andeq	r6, r0, #3014656	; 0x2e0000
 6f0:	70720000 	rsbsvc	r0, r2, r0
 6f4:	00682e69 	rsbeq	r2, r8, r9, ror #28
 6f8:	3c000003 	stccc	0, cr0, [r0], {3}
 6fc:	6c697562 	cfstr64vs	mvdx7, [r9], #-392	; 0xfffffe78
 700:	6e692d74 	mcrvs	13, 3, r2, cr9, cr4, {3}
 704:	0000003e 	andeq	r0, r0, lr, lsr r0
 708:	05000000 	streq	r0, [r0, #-0]
 70c:	008be402 	addeq	lr, fp, r2, lsl #8
 710:	01260300 	teqeq	r6, r0, lsl #6
 714:	3113a501 	tstcc	r3, r1, lsl #10
 718:	0402002d 	streq	r0, [r2], #-45	; 0x2d
 71c:	02002f02 	andeq	r2, r0, #2, 30
 720:	002d0204 	eoreq	r0, sp, r4, lsl #4
 724:	2f020402 	svccs	0x00020402
 728:	01040200 	mrseq	r0, R12_usr
 72c:	304c4c2d 	subcc	r4, ip, sp, lsr #24
 730:	4f2f4b14 	svcmi	0x002f4b14
 734:	02040200 	andeq	r0, r4, #0, 4
 738:	04020067 	streq	r0, [r2], #-103	; 0x67
 73c:	4d4c6501 	cfstr64mi	mvdx6, [ip, #-4]
 740:	312fa030 	teqcc	pc, r0, lsr r0	; <UNPREDICTABLE>
 744:	16260230 			; <UNDEFINED> instruction: 0x16260230
 748:	002c2d84 	eoreq	r2, ip, r4, lsl #27
 74c:	30010402 	andcc	r0, r1, r2, lsl #8
 750:	01040200 	mrseq	r0, R12_usr
 754:	00660633 	rsbeq	r0, r6, r3, lsr r6
 758:	2e010402 	cdpcs	4, 0, cr0, cr1, cr2, {0}
 75c:	01040200 	mrseq	r0, R12_usr
 760:	67210806 	strvs	r0, [r1, -r6, lsl #16]!
 764:	8273032f 	rsbshi	r0, r3, #-1140850688	; 0xbc000000
 768:	002e1303 	eoreq	r1, lr, r3, lsl #6
 76c:	06010402 	streq	r0, [r1], -r2, lsl #8
 770:	0402002e 	streq	r0, [r2], #-46	; 0x2e
 774:	6a9f0601 	bvs	fe7c1f80 <__bss_end__+0xfe7b7c10>
 778:	2e67034b 	cdpcs	3, 6, cr0, cr7, cr11, {2}
 77c:	002e2103 	eoreq	r2, lr, r3, lsl #2
 780:	06010402 	streq	r0, [r1], -r2, lsl #8
 784:	0402002e 	streq	r0, [r2], #-46	; 0x2e
 788:	009f0601 	addseq	r0, pc, r1, lsl #12
 78c:	6a010402 	bvs	4179c <__bss_end__+0x3742c>
 790:	a603f3d9 			; <UNDEFINED> instruction: 0xa603f3d9
 794:	2f20087f 	svccs	0x0020087f
 798:	01040200 	mrseq	r0, R12_usr
 79c:	d7064a06 	strle	r4, [r6, -r6, lsl #20]
 7a0:	da032f4b 	ble	cc4d4 <__bss_end__+0xc2164>
 7a4:	4c83f200 	sfmmi	f7, 1, [r3], {0}
 7a8:	2e0e0348 	cdpcs	3, 0, cr0, cr14, cr8, {2}
 7ac:	2f2e7503 	svccs	0x002e7503
 7b0:	2f4b842f 	svccs	0x004b842f
 7b4:	30314d2d 	eorscc	r4, r1, sp, lsr #26
 7b8:	0200832f 	andeq	r8, r0, #-1140850688	; 0xbc000000
 7bc:	a22c0104 	eorge	r0, ip, #4, 2
 7c0:	01040200 	mrseq	r0, R12_usr
 7c4:	d8064a06 	stmdale	r6, {r1, r2, r9, fp, lr}
 7c8:	03163602 	tsteq	r6, #2097152	; 0x200000
 7cc:	2108d60e 	tstcs	r8, lr, lsl #12
 7d0:	f331f330 	vcge.u<illegal width 64>	d15, d1, d16
 7d4:	4b30f330 	blmi	c3d49c <__bss_end__+0xc3312c>
 7d8:	0830f330 	ldmdaeq	r0!, {r4, r5, r8, r9, ip, sp, lr, pc}
 7dc:	002f3123 	eoreq	r3, pc, r3, lsr #2
 7e0:	65010402 	strvs	r0, [r1, #-1026]	; 0x402
 7e4:	02040200 	andeq	r0, r4, #0, 4
 7e8:	02004a06 	andeq	r4, r0, #24576	; 0x6000
 7ec:	03060104 	movweq	r0, #24836	; 0x6104
 7f0:	02006642 	andeq	r6, r0, #69206016	; 0x4200000
 7f4:	66060204 	strvs	r0, [r6], -r4, lsl #4
 7f8:	00c20306 	sbceq	r0, r2, r6, lsl #6
 7fc:	1002684a 	andne	r6, r2, sl, asr #16
 800:	93010100 	movwls	r0, #4352	; 0x1100
 804:	02000000 	andeq	r0, r0, #0
 808:	00007d00 	andeq	r7, r0, r0, lsl #26
 80c:	fb010200 	blx	41016 <__bss_end__+0x36ca6>
 810:	01000d0e 	tsteq	r0, lr, lsl #26
 814:	00010101 	andeq	r0, r1, r1, lsl #2
 818:	00010000 	andeq	r0, r1, r0
 81c:	73630100 	cmnvc	r3, #0, 2
 820:	65303431 	ldrvs	r3, [r0, #-1073]!	; 0x431
 824:	6372732d 	cmnvs	r2, #-1275068416	; 0xb4000000
 828:	73552f00 	cmpvc	r5, #0, 30
 82c:	2f737265 	svccs	0x00737265
 830:	61697262 	cmnvs	r9, r2, ror #4
 834:	6e756a6e 	vsubvs.f32	s13, s10, s29
 838:	7365442f 	cmnvc	r5, #788529152	; 0x2f000000
 83c:	706f746b 	rsbvc	r7, pc, fp, ror #8
 840:	6863732f 	stmdavs	r3!, {r0, r1, r2, r3, r5, r8, r9, ip, sp, lr}^
 844:	2f6c6f6f 	svccs	0x006c6f6f
 848:	746e6957 	strbtvc	r6, [lr], #-2391	; 0x957
 84c:	39317265 	ldmdbcc	r1!, {r0, r2, r5, r6, r9, ip, sp, lr}
 850:	432f3032 	teqmi	pc, #50	; 0x32
 854:	30343153 	eorscc	r3, r4, r3, asr r1
 858:	73632f45 	cmnvc	r3, #276	; 0x114
 85c:	65303431 	ldrvs	r3, [r0, #-1073]!	; 0x431
 860:	7730322d 	ldrvc	r3, [r0, -sp, lsr #4]!
 864:	6c2f6e69 	stcvs	14, cr6, [pc], #-420	; 6c8 <_start-0x7938>
 868:	69706269 	ldmdbvs	r0!, {r0, r3, r5, r6, r9, sp, lr}^
 86c:	6c630000 	stclvs	0, cr0, [r3], #-0
 870:	2d6e6165 	stfcse	f6, [lr, #-404]!	; 0xfffffe6c
 874:	6f626572 	svcvs	0x00626572
 878:	632e746f 	teqvs	lr, #1862270976	; 0x6f000000
 87c:	00000100 	andeq	r0, r0, r0, lsl #2
 880:	2e697072 	mcrcs	0, 3, r7, cr9, cr2, {3}
 884:	00020068 	andeq	r0, r2, r8, rrx
 888:	05000000 	streq	r0, [r0, #-0]
 88c:	0090dc02 	addseq	sp, r0, r2, lsl #24
 890:	832f1500 	teqhi	pc, #0, 10
 894:	0006024b 	andeq	r0, r6, fp, asr #4
 898:	009a0101 	addseq	r0, sl, r1, lsl #2
 89c:	00020000 	andeq	r0, r2, r0
 8a0:	00000077 	andeq	r0, r0, r7, ror r0
 8a4:	0efb0102 	cdpeq	1, 15, cr0, cr11, cr2, {0}
 8a8:	0101000d 	tsteq	r1, sp
 8ac:	00000101 	andeq	r0, r0, r1, lsl #2
 8b0:	00000100 	andeq	r0, r0, r0, lsl #2
 8b4:	31736301 	cmncc	r3, r1, lsl #6
 8b8:	2d653034 	stclcs	0, cr3, [r5, #-208]!	; 0xffffff30
 8bc:	00637273 	rsbeq	r7, r3, r3, ror r2
 8c0:	6573552f 	ldrbvs	r5, [r3, #-1327]!	; 0x52f
 8c4:	622f7372 	eorvs	r7, pc, #-939524095	; 0xc8000001
 8c8:	6e616972 	mcrvs	9, 3, r6, cr1, cr2, {3}
 8cc:	2f6e756a 	svccs	0x006e756a
 8d0:	6b736544 	blvs	1cd9de8 <__bss_end__+0x1ccfa78>
 8d4:	2f706f74 	svccs	0x00706f74
 8d8:	6f686373 	svcvs	0x00686373
 8dc:	572f6c6f 	strpl	r6, [pc, -pc, ror #24]!
 8e0:	65746e69 	ldrbvs	r6, [r4, #-3689]!	; 0xe69
 8e4:	32393172 	eorscc	r3, r9, #-2147483620	; 0x8000001c
 8e8:	53432f30 	movtpl	r2, #16176	; 0x3f30
 8ec:	45303431 	ldrmi	r3, [r0, #-1073]!	; 0x431
 8f0:	3173632f 	cmncc	r3, pc, lsr #6
 8f4:	2d653034 	stclcs	0, cr3, [r5, #-208]!	; 0xffffff30
 8f8:	69773032 	ldmdbvs	r7!, {r1, r4, r5, ip, sp}^
 8fc:	696c2f6e 	stmdbvs	ip!, {r1, r2, r3, r5, r6, r8, r9, sl, fp, sp}^
 900:	00697062 	rsbeq	r7, r9, r2, rrx
 904:	74736300 	ldrbtvc	r6, [r3], #-768	; 0x300
 908:	2e747261 	cdpcs	2, 7, cr7, cr4, cr1, {3}
 90c:	00010063 	andeq	r0, r1, r3, rrx
 910:	69707200 	ldmdbvs	r0!, {r9, ip, sp, lr}^
 914:	0200682e 	andeq	r6, r0, #3014656	; 0x2e0000
 918:	00000000 	andeq	r0, r0, r0
 91c:	91040205 	tstls	r4, r5, lsl #4
 920:	0c030000 	stceq	0, cr0, [r3], {-0}
 924:	2f313201 	svccs	0x00313201
 928:	02002f2d 	andeq	r2, r0, #45, 30	; 0xb4
 92c:	03490104 	movteq	r0, #37124	; 0x9104
 930:	022f4a0f 	eoreq	r4, pc, #61440	; 0xf000
 934:	01010006 	tsteq	r1, r6
 938:	00000099 	muleq	r0, r9, r0
 93c:	00770002 	rsbseq	r0, r7, r2
 940:	01020000 	mrseq	r0, (UNDEF: 2)
 944:	000d0efb 	strdeq	r0, [sp], -fp
 948:	01010101 	tsteq	r1, r1, lsl #2
 94c:	01000000 	mrseq	r0, (UNDEF: 0)
 950:	63010000 	movwvs	r0, #4096	; 0x1000
 954:	30343173 	eorscc	r3, r4, r3, ror r1
 958:	72732d65 	rsbsvc	r2, r3, #6464	; 0x1940
 95c:	552f0063 	strpl	r0, [pc, #-99]!	; 901 <_start-0x76ff>
 960:	73726573 	cmnvc	r2, #482344960	; 0x1cc00000
 964:	6972622f 	ldmdbvs	r2!, {r0, r1, r2, r3, r5, r9, sp, lr}^
 968:	756a6e61 	strbvc	r6, [sl, #-3681]!	; 0xe61
 96c:	65442f6e 	strbvs	r2, [r4, #-3950]	; 0xf6e
 970:	6f746b73 	svcvs	0x00746b73
 974:	63732f70 	cmnvs	r3, #112, 30	; 0x1c0
 978:	6c6f6f68 	stclvs	15, cr6, [pc], #-416	; 7e0 <_start-0x7820>
 97c:	6e69572f 	cdpvs	7, 6, cr5, cr9, cr15, {1}
 980:	31726574 	cmncc	r2, r4, ror r5
 984:	2f303239 	svccs	0x00303239
 988:	34315343 	ldrtcc	r5, [r1], #-835	; 0x343
 98c:	632f4530 	teqvs	pc, #48, 10	; 0xc000000
 990:	30343173 	eorscc	r3, r4, r3, ror r1
 994:	30322d65 	eorscc	r2, r2, r5, ror #26
 998:	2f6e6977 	svccs	0x006e6977
 99c:	7062696c 	rsbvc	r6, r2, ip, ror #18
 9a0:	72000069 	andvc	r0, r0, #105	; 0x69
 9a4:	6f6f6265 	svcvs	0x006f6265
 9a8:	00632e74 	rsbeq	r2, r3, r4, ror lr
 9ac:	72000001 	andvc	r0, r0, #1
 9b0:	682e6970 	stmdavs	lr!, {r4, r5, r6, r8, fp, sp, lr}
 9b4:	00000200 	andeq	r0, r0, r0, lsl #4
 9b8:	02050000 	andeq	r0, r5, #0
 9bc:	00009138 	andeq	r9, r0, r8, lsr r1
 9c0:	14010d03 	strne	r0, [r1], #-3331	; 0xd03
 9c4:	15852f31 	strne	r2, [r5, #3889]	; 0xf31
 9c8:	2f4d4b2f 	svccs	0x004d4b2f
 9cc:	67523567 	ldrbvs	r3, [r2, -r7, ror #10]
 9d0:	01001002 	tsteq	r0, r2
 9d4:	0000a301 	andeq	sl, r0, r1, lsl #6
 9d8:	76000200 	strvc	r0, [r0], -r0, lsl #4
 9dc:	02000000 	andeq	r0, r0, #0
 9e0:	0d0efb01 	vstreq	d15, [lr, #-4]
 9e4:	01010100 	mrseq	r0, (UNDEF: 17)
 9e8:	00000001 	andeq	r0, r0, r1
 9ec:	01000001 	tsteq	r0, r1
 9f0:	34317363 	ldrtcc	r7, [r1], #-867	; 0x363
 9f4:	732d6530 	teqvc	sp, #48, 10	; 0xc000000
 9f8:	2f006372 	svccs	0x00006372
 9fc:	72657355 	rsbvc	r7, r5, #1409286145	; 0x54000001
 a00:	72622f73 	rsbvc	r2, r2, #460	; 0x1cc
 a04:	6a6e6169 	bvs	1b98fb0 <__bss_end__+0x1b8ec40>
 a08:	442f6e75 	strtmi	r6, [pc], #-3701	; a10 <_start-0x75f0>
 a0c:	746b7365 	strbtvc	r7, [fp], #-869	; 0x365
 a10:	732f706f 	teqvc	pc, #111	; 0x6f
 a14:	6f6f6863 	svcvs	0x006f6863
 a18:	69572f6c 	ldmdbvs	r7, {r2, r3, r5, r6, r8, r9, sl, fp, sp}^
 a1c:	7265746e 	rsbvc	r7, r5, #1845493760	; 0x6e000000
 a20:	30323931 	eorscc	r3, r2, r1, lsr r9
 a24:	3153432f 	cmpcc	r3, pc, lsr #6
 a28:	2f453034 	svccs	0x00453034
 a2c:	34317363 	ldrtcc	r7, [r1], #-867	; 0x363
 a30:	322d6530 	eorcc	r6, sp, #48, 10	; 0xc000000
 a34:	6e697730 	mcrvs	7, 3, r7, cr9, cr0, {1}
 a38:	62696c2f 	rsbvs	r6, r9, #12032	; 0x2f00
 a3c:	00006970 	andeq	r6, r0, r0, ror r9
 a40:	656d6974 	strbvs	r6, [sp, #-2420]!	; 0x974
 a44:	00632e72 	rsbeq	r2, r3, r2, ror lr
 a48:	72000001 	andvc	r0, r0, #1
 a4c:	682e6970 	stmdavs	lr!, {r4, r5, r6, r8, fp, sp, lr}
 a50:	00000200 	andeq	r0, r0, r0, lsl #4
 a54:	02050000 	andeq	r0, r5, #0
 a58:	000091ac 	andeq	r9, r0, ip, lsr #3
 a5c:	2d2f1416 	cfstrscs	mvf1, [pc, #-88]!	; a0c <_start-0x75f4>
 a60:	01040200 	mrseq	r0, R12_usr
 a64:	6d062e06 	stcvs	14, cr2, [r6, #-24]	; 0xffffffe8
 a68:	4d4b2f31 	stclmi	15, cr2, [fp, #-196]	; 0xffffff3c
 a6c:	4b303132 	blmi	c0cf3c <__bss_end__+0xc02bcc>
 a70:	2f6a2f4c 	svccs	0x006a2f4c
 a74:	022f842f 	eoreq	r8, pc, #788529152	; 0x2f000000
 a78:	01010008 	tsteq	r1, r8
 a7c:	00000183 	andeq	r0, r0, r3, lsl #3
 a80:	00ce0002 	sbceq	r0, lr, r2
 a84:	01020000 	mrseq	r0, (UNDEF: 2)
 a88:	000d0efb 	strdeq	r0, [sp], -fp
 a8c:	01010101 	tsteq	r1, r1, lsl #2
 a90:	01000000 	mrseq	r0, (UNDEF: 0)
 a94:	63010000 	movwvs	r0, #4096	; 0x1000
 a98:	30343173 	eorscc	r3, r4, r3, ror r1
 a9c:	72732d65 	rsbsvc	r2, r3, #6464	; 0x1940
 aa0:	552f0063 	strpl	r0, [pc, #-99]!	; a45 <_start-0x75bb>
 aa4:	73726573 	cmnvc	r2, #482344960	; 0x1cc00000
 aa8:	6972622f 	ldmdbvs	r2!, {r0, r1, r2, r3, r5, r9, sp, lr}^
 aac:	756a6e61 	strbvc	r6, [sl, #-3681]!	; 0xe61
 ab0:	65442f6e 	strbvs	r2, [r4, #-3950]	; 0xf6e
 ab4:	6f746b73 	svcvs	0x00746b73
 ab8:	63732f70 	cmnvs	r3, #112, 30	; 0x1c0
 abc:	6c6f6f68 	stclvs	15, cr6, [pc], #-416	; 924 <_start-0x76dc>
 ac0:	6e69572f 	cdpvs	7, 6, cr5, cr9, cr15, {1}
 ac4:	31726574 	cmncc	r2, r4, ror r5
 ac8:	2f303239 	svccs	0x00303239
 acc:	34315343 	ldrtcc	r5, [r1], #-835	; 0x343
 ad0:	632f4530 	teqvs	pc, #48, 10	; 0xc000000
 ad4:	30343173 	eorscc	r3, r4, r3, ror r1
 ad8:	30322d65 	eorscc	r2, r2, r5, ror #26
 adc:	2f6e6977 	svccs	0x006e6977
 ae0:	7062696c 	rsbvc	r6, r2, ip, ror #18
 ae4:	73632f69 	cmnvc	r3, #420	; 0x1a4
 ae8:	65303431 	ldrvs	r3, [r0, #-1073]!	; 0x431
 aec:	6372732d 	cmnvs	r2, #-1275068416	; 0xb4000000
 af0:	73552f00 	cmpvc	r5, #0, 30
 af4:	2f737265 	svccs	0x00737265
 af8:	61697262 	cmnvs	r9, r2, ror #4
 afc:	6e756a6e 	vsubvs.f32	s13, s10, s29
 b00:	7365442f 	cmnvc	r5, #788529152	; 0x2f000000
 b04:	706f746b 	rsbvc	r7, pc, fp, ror #8
 b08:	6863732f 	stmdavs	r3!, {r0, r1, r2, r3, r5, r8, r9, ip, sp, lr}^
 b0c:	2f6c6f6f 	svccs	0x006c6f6f
 b10:	746e6957 	strbtvc	r6, [lr], #-2391	; 0x957
 b14:	39317265 	ldmdbcc	r1!, {r0, r2, r5, r6, r9, ip, sp, lr}
 b18:	432f3032 	teqmi	pc, #50	; 0x32
 b1c:	30343153 	eorscc	r3, r4, r3, asr r1
 b20:	73632f45 	cmnvc	r3, #276	; 0x114
 b24:	65303431 	ldrvs	r3, [r0, #-1073]!	; 0x431
 b28:	7730322d 	ldrvc	r3, [r0, -sp, lsr #4]!
 b2c:	6c2f6e69 	stcvs	14, cr6, [pc], #-420	; 990 <_start-0x7670>
 b30:	69706269 	ldmdbvs	r0!, {r0, r3, r5, r6, r9, sp, lr}^
 b34:	70670000 	rsbvc	r0, r7, r0
 b38:	632e6f69 	teqvs	lr, #420	; 0x1a4
 b3c:	00000100 	andeq	r0, r0, r0, lsl #2
 b40:	6f697067 	svcvs	0x00697067
 b44:	0200682e 	andeq	r6, r0, #3014656	; 0x2e0000
 b48:	70720000 	rsbsvc	r0, r2, r0
 b4c:	00682e69 	rsbeq	r2, r8, r9, ror #28
 b50:	00000003 	andeq	r0, r0, r3
 b54:	34020500 	strcc	r0, [r2], #-1280	; 0x500
 b58:	03000092 	movweq	r0, #146	; 0x92
 b5c:	504e013e 	subpl	r0, lr, lr, lsr r1
 b60:	67210869 	strvs	r0, [r1, -r9, ror #16]!
 b64:	67676767 	strbvs	r6, [r7, -r7, ror #14]!
 b68:	084b3267 	stmdaeq	fp, {r0, r1, r2, r5, r6, r9, ip, sp}^
 b6c:	5131dc22 	teqpl	r1, r2, lsr #24
 b70:	30504e13 	subscc	r4, r0, r3, lsl lr
 b74:	135031be 	cmpne	r0, #-2147483601	; 0x8000002f
 b78:	c0304f4d 	eorsgt	r4, r0, sp, asr #30
 b7c:	0869504c 	stmdaeq	r9!, {r2, r3, r6, ip, lr}^
 b80:	67676721 	strbvs	r6, [r7, -r1, lsr #14]!
 b84:	32676767 	rsbcc	r6, r7, #27000832	; 0x19c0000
 b88:	a321084b 	teqge	r1, #4915200	; 0x4b0000
 b8c:	842f504c 	strthi	r5, [pc], #-76	; b94 <_start-0x746c>
 b90:	82750369 	rsbshi	r0, r5, #-1543503871	; 0xa4000001
 b94:	4d2e0c03 	stcmi	12, cr0, [lr, #-12]!
 b98:	4c4b4e30 	mcrrmi	14, 3, r4, fp, cr0
 b9c:	696b6a4d 	stmdbvs	fp!, {r0, r2, r3, r6, r9, fp, sp, lr}^
 ba0:	67672108 	strbvs	r2, [r7, -r8, lsl #2]!
 ba4:	67676767 	strbvs	r6, [r7, -r7, ror #14]!
 ba8:	22084b32 	andcs	r4, r8, #51200	; 0xc800
 bac:	135130c0 	cmpne	r1, #192	; 0xc0
 bb0:	0330504e 	teqeq	r0, #78	; 0x4e
 bb4:	9f31ba18 	svcls	0x0031ba18
 bb8:	4d522f4c 	ldclmi	15, cr2, [r2, #-304]	; 0xfffffed0
 bbc:	674b2f4e 	strbvs	r2, [fp, -lr, asr #30]
 bc0:	6767684b 	strbvs	r6, [r7, -fp, asr #16]!
 bc4:	2f672f4c 	svccs	0x00672f4c
 bc8:	4e4c6e4b 	cdpmi	14, 4, cr6, cr12, cr11, {2}
 bcc:	4b674b2f 	blmi	19d3890 <__bss_end__+0x19c9520>
 bd0:	4c676768 	stclmi	7, cr6, [r7], #-416	; 0xfffffe60
 bd4:	4b2f672f 	blmi	bda898 <__bss_end__+0xbd0528>
 bd8:	2f4e4b6d 	svccs	0x004e4b6d
 bdc:	0200674b 	andeq	r6, r0, #19660800	; 0x12c0000
 be0:	66060104 	strvs	r0, [r6], -r4, lsl #2
 be4:	2f9f6806 	svccs	0x009f6806
 be8:	01040200 	mrseq	r0, R12_usr
 bec:	68064a06 	stmdavs	r6, {r1, r2, r9, fp, lr}
 bf0:	4a73032f 	bmi	1cc18b4 <__bss_end__+0x1cb7544>
 bf4:	4d2e0e03 	stcmi	14, cr0, [lr, #-12]!
 bf8:	4b2f4e4c 	blmi	bd4530 <__bss_end__+0xbca1c0>
 bfc:	0602bcbc 			; <UNDEFINED> instruction: 0x0602bcbc
 c00:	01010100 	mrseq	r0, (UNDEF: 17)
 c04:	02000001 	andeq	r0, r0, #1
 c08:	0000ca00 	andeq	ip, r0, r0, lsl #20
 c0c:	fb010200 	blx	41416 <__bss_end__+0x370a6>
 c10:	01000d0e 	tsteq	r0, lr, lsl #26
 c14:	00010101 	andeq	r0, r1, r1, lsl #2
 c18:	00010000 	andeq	r0, r1, r0
 c1c:	796d0100 	stmdbvc	sp!, {r8}^
 c20:	6372732d 	cmnvs	r2, #-1275068416	; 0xb4000000
 c24:	73552f00 	cmpvc	r5, #0, 30
 c28:	2f737265 	svccs	0x00737265
 c2c:	61697262 	cmnvs	r9, r2, ror #4
 c30:	6e756a6e 	vsubvs.f32	s13, s10, s29
 c34:	7365442f 	cmnvc	r5, #788529152	; 0x2f000000
 c38:	706f746b 	rsbvc	r7, pc, fp, ror #8
 c3c:	6863732f 	stmdavs	r3!, {r0, r1, r2, r3, r5, r8, r9, ip, sp, lr}^
 c40:	2f6c6f6f 	svccs	0x006c6f6f
 c44:	746e6957 	strbtvc	r6, [lr], #-2391	; 0x957
 c48:	39317265 	ldmdbcc	r1!, {r0, r2, r5, r6, r9, ip, sp, lr}
 c4c:	432f3032 	teqmi	pc, #50	; 0x32
 c50:	30343153 	eorscc	r3, r4, r3, asr r1
 c54:	73632f45 	cmnvc	r3, #276	; 0x114
 c58:	65303431 	ldrvs	r3, [r0, #-1073]!	; 0x431
 c5c:	7730322d 	ldrvc	r3, [r0, -sp, lsr #4]!
 c60:	6c2f6e69 	stcvs	14, cr6, [pc], #-420	; ac4 <_start-0x753c>
 c64:	69706269 	ldmdbvs	r0!, {r0, r3, r5, r6, r9, sp, lr}^
 c68:	3173632f 	cmncc	r3, pc, lsr #6
 c6c:	2d653034 	stclcs	0, cr3, [r5, #-208]!	; 0xffffff30
 c70:	00637273 	rsbeq	r7, r3, r3, ror r2
 c74:	6573552f 	ldrbvs	r5, [r3, #-1327]!	; 0x52f
 c78:	622f7372 	eorvs	r7, pc, #-939524095	; 0xc8000001
 c7c:	6e616972 	mcrvs	9, 3, r6, cr1, cr2, {3}
 c80:	2f6e756a 	svccs	0x006e756a
 c84:	6b736544 	blvs	1cda19c <__bss_end__+0x1ccfe2c>
 c88:	2f706f74 	svccs	0x00706f74
 c8c:	6f686373 	svcvs	0x00686373
 c90:	572f6c6f 	strpl	r6, [pc, -pc, ror #24]!
 c94:	65746e69 	ldrbvs	r6, [r4, #-3689]!	; 0xe69
 c98:	32393172 	eorscc	r3, r9, #-2147483620	; 0x8000001c
 c9c:	53432f30 	movtpl	r2, #16176	; 0x3f30
 ca0:	45303431 	ldrmi	r3, [r0, #-1073]!	; 0x431
 ca4:	3173632f 	cmncc	r3, pc, lsr #6
 ca8:	2d653034 	stclcs	0, cr3, [r5, #-208]!	; 0xffffff30
 cac:	69773032 	ldmdbvs	r7!, {r1, r4, r5, ip, sp}^
 cb0:	696c2f6e 	stmdbvs	ip!, {r1, r2, r3, r5, r6, r8, r9, sl, fp, sp}^
 cb4:	00697062 	rsbeq	r7, r9, r2, rrx
 cb8:	72617500 	rsbvc	r7, r1, #0, 10
 cbc:	00632e74 	rsbeq	r2, r3, r4, ror lr
 cc0:	67000001 	strvs	r0, [r0, -r1]
 cc4:	2e6f6970 	mcrcs	9, 3, r6, cr15, cr0, {3}
 cc8:	00020068 	andeq	r0, r2, r8, rrx
 ccc:	69707200 	ldmdbvs	r0!, {r9, ip, sp, lr}^
 cd0:	0300682e 	movweq	r6, #2094	; 0x82e
 cd4:	00000000 	andeq	r0, r0, r0
 cd8:	97d40205 	ldrbls	r0, [r4, r5, lsl #4]
 cdc:	36030000 	strcc	r0, [r3], -r0
 ce0:	67333001 	ldrvs	r3, [r3, -r1]!
 ce4:	30d8306d 	sbcscc	r3, r8, sp, rrx
 ce8:	67676767 	strbvs	r6, [r7, -r7, ror #14]!
 cec:	2f866867 	svccs	0x00866867
 cf0:	67306a67 	ldrvs	r6, [r0, -r7, ror #20]!
 cf4:	672f6967 	strvs	r6, [pc, -r7, ror #18]!
 cf8:	c1674c6a 	cmngt	r7, sl, ror #24
 cfc:	2f302f2f 	svccs	0x00302f2f
 d00:	02304968 	eorseq	r4, r0, #104, 18	; 0x1a0000
 d04:	01010002 	tsteq	r1, r2

Disassembly of section .debug_str:

00000000 <.debug_str>:
       0:	5854554f 	ldmdapl	r4, {r0, r1, r2, r3, r6, r8, sl, ip, lr}^
       4:	475f4c5f 			; <UNDEFINED> instruction: 0x475f4c5f
       8:	52544300 	subspl	r4, r4, #0, 6
       c:	435f344c 	cmpmi	pc, #76, 8	; 0x4c000000
      10:	6d6f6300 	stclvs	3, cr6, [pc, #-0]	; 18 <_start-0x7fe8>
      14:	6d5f6f62 	ldclvs	15, cr6, [pc, #-392]	; fffffe94 <__bss_end__+0xffff5b24>
      18:	49460067 	stmdbmi	r6, {r0, r1, r2, r5, r6}^
      1c:	435f4f46 	cmpmi	pc, #280	; 0x118
      20:	314c5254 	cmpcc	ip, r4, asr r2
      24:	46494600 	strbmi	r4, [r9], -r0, lsl #12
      28:	54435f4f 	strbpl	r5, [r3], #-3919	; 0xf4f
      2c:	00324c52 	eorseq	r4, r2, r2, asr ip
      30:	4f464946 	svcmi	0x00464946
      34:	5254435f 	subspl	r4, r4, #2080374785	; 0x7c000001
      38:	4600334c 	strmi	r3, [r0], -ip, asr #6
      3c:	5f4f4649 	svcpl	0x004f4649
      40:	4c525443 	cfldrdmi	mvd5, [r2], {67}	; 0x43
      44:	49460034 	stmdbmi	r6, {r2, r4, r5}^
      48:	435f4f46 	cmpmi	pc, #280	; 0x118
      4c:	354c5254 	strbcc	r5, [ip, #-596]	; 0x254
      50:	52544300 	subspl	r4, r4, #0, 6
      54:	585f394c 	ldmdapl	pc, {r2, r3, r6, r8, fp, ip, sp}^	; <UNPREDICTABLE>
      58:	736c004c 	cmnvc	ip, #76	; 0x4c
      5c:	7364366d 	cmnvc	r4, #114294784	; 0x6d00000
      60:	675f3333 	smmlarvs	pc, r3, r3, r3	; <UNPREDICTABLE>
      64:	6d00745f 	cfstrsvs	mvf7, [r0, #-380]	; 0xfffffe84
      68:	63735f67 	cmnvs	r3, #412	; 0x19c
      6c:	64656c61 	strbtvs	r6, [r5], #-3169	; 0xc61
      70:	746f6e00 	strbtvc	r6, [pc], #-3584	; 78 <_start-0x7f88>
      74:	6e69616d 	powvsez	f6, f1, #5.0
      78:	72617500 	rsbvc	r7, r1, #0, 10
      7c:	6e695f74 	mcrvs	15, 3, r5, cr9, cr4, {3}
      80:	6c007469 	cfstrsvs	mvf7, [r0], {105}	; 0x69
      84:	20676e6f 	rsbcs	r6, r7, pc, ror #28
      88:	676e6f6c 	strbvs	r6, [lr, -ip, ror #30]!
      8c:	736e7520 	cmnvc	lr, #32, 10	; 0x8000000
      90:	656e6769 	strbvs	r6, [lr, #-1897]!	; 0x769
      94:	6e692064 	cdpvs	0, 6, cr2, cr9, cr4, {3}
      98:	6d690074 	stclvs	0, cr0, [r9, #-464]!	; 0xfffffe30
      9c:	64725f75 	ldrbtvs	r5, [r2], #-3957	; 0xf75
      a0:	57006e5f 	smlsdpl	r0, pc, lr, r6	; <UNPREDICTABLE>
      a4:	5f454b41 	svcpl	0x00454b41
      a8:	545f5055 	ldrbpl	r5, [pc], #-85	; b0 <_start-0x7f50>
      ac:	6c005348 	stcvs	3, cr5, [r0], {72}	; 0x48
      b0:	64366d73 	ldrtvs	r6, [r6], #-3443	; 0xd73
      b4:	5f333373 	svcpl	0x00333373
      b8:	64006738 	strvs	r6, [r0], #-1848	; 0x738
      bc:	63615f6f 	cmnvs	r1, #444	; 0x1bc
      c0:	5f6c6563 	svcpl	0x006c6563
      c4:	74736574 	ldrbtvc	r6, [r3], #-1396	; 0x574
      c8:	6e6f6c00 	cdpvs	12, 6, cr6, cr15, cr0, {0}
      cc:	6f6c2067 	svcvs	0x006c2067
      d0:	6920676e 	stmdbvs	r0!, {r1, r2, r3, r5, r6, r8, r9, sl, sp, lr}
      d4:	4f00746e 	svcmi	0x0000746e
      d8:	545f5455 	ldrbpl	r5, [pc], #-1109	; e0 <_start-0x7f20>
      dc:	5f504d45 	svcpl	0x00504d45
      e0:	554f0048 	strbpl	r0, [pc, #-72]	; a0 <_start-0x7f60>
      e4:	45545f54 	ldrbmi	r5, [r4, #-3924]	; 0xf54
      e8:	4c5f504d 	mrrcmi	0, 4, r5, pc, cr13	; <UNPREDICTABLE>
      ec:	31444d00 	cmpcc	r4, r0, lsl #26
      f0:	4746435f 	smlsldmi	r4, r6, pc, r3	; <UNPREDICTABLE>
      f4:	52544300 	subspl	r4, r4, #0, 6
      f8:	435f334c 	cmpmi	pc, #76, 6	; 0x30000001
      fc:	50415400 	subpl	r5, r1, r0, lsl #8
     100:	5348545f 	movtpl	r5, #33887	; 0x845f
     104:	0044365f 	subeq	r3, r4, pc, asr r6
     108:	50455453 	subpl	r5, r5, r3, asr r4
     10c:	4d49545f 	cfstrdmi	mvd5, [r9, #-380]	; 0xfffffe84
     110:	41545345 	cmpmi	r4, r5, asr #6
     114:	4c5f504d 	mrrcmi	0, 4, r5, pc, cr13	; <UNPREDICTABLE>
     118:	7a797800 	bvc	1e5e120 <__bss_end__+0x1e53db0>
     11c:	006b6d5f 	rsbeq	r6, fp, pc, asr sp
     120:	5f766564 	svcpl	0x00766564
     124:	72726162 	rsbsvc	r6, r2, #-2147483624	; 0x80000018
     128:	00726569 	rsbseq	r6, r2, r9, ror #10
     12c:	735f676d 	cmpvc	pc, #28573696	; 0x1b40000
     130:	656c6163 	strbvs	r6, [ip, #-355]!	; 0x163
     134:	6c617600 	stclvs	6, cr7, [r1], #-0
     138:	554f0073 	strbpl	r0, [pc, #-115]	; cd <_start-0x7f33>
     13c:	4c5f5954 	mrrcmi	9, 5, r5, pc, cr4	; <UNPREDICTABLE>
     140:	004c585f 	subeq	r5, ip, pc, asr r8
     144:	5a54554f 	bpl	1515688 <__bss_end__+0x150b318>
     148:	475f4c5f 			; <UNDEFINED> instruction: 0x475f4c5f
     14c:	5f676d00 	svcpl	0x00676d00
     150:	00776172 	rsbseq	r6, r7, r2, ror r1
     154:	5f504154 	svcpl	0x00504154
     158:	00435253 	subeq	r5, r3, r3, asr r2
     15c:	366d736c 	strbtcc	r7, [sp], -ip, ror #6
     160:	33337364 	teqcc	r3, #100, 6	; 0x90000001
     164:	3830325f 	ldmdacc	r0!, {r0, r1, r2, r3, r4, r6, r9, ip, sp}
     168:	4f007a68 	svcmi	0x00007a68
     16c:	5f585455 	svcpl	0x00585455
     170:	4c585f48 	mrrcmi	15, 4, r5, r8, cr8
     174:	73616200 	cmnvc	r1, #0, 4
     178:	65725f65 	ldrbvs	r5, [r2, #-3941]!	; 0xf65
     17c:	49540067 	ldmdbmi	r4, {r0, r1, r2, r5, r6}^
     180:	5453454d 	ldrbpl	r4, [r3], #-1357	; 0x54d
     184:	31504d41 	cmpcc	r0, r1, asr #26
     188:	4745525f 	smlsldmi	r5, r5, pc, r2	; <UNPREDICTABLE>
     18c:	63636100 	cmnvs	r3, #0, 2
     190:	745f6c65 	ldrbvc	r6, [pc], #-3173	; 198 <_start-0x7e68>
     194:	6d736c00 	ldclvs	12, cr6, [r3, #-0]
     198:	33736436 	cmncc	r3, #905969664	; 0x36000000
     19c:	32355f33 	eorscc	r5, r5, #51, 30	; 0xcc
     1a0:	69007a68 	stmdbvs	r0, {r3, r5, r6, r9, fp, ip, sp, lr}
     1a4:	695f6332 	ldmdbvs	pc, {r1, r4, r5, r8, r9, sp, lr}^	; <UNPREDICTABLE>
     1a8:	0074696e 	rsbseq	r6, r4, lr, ror #18
     1ac:	74617473 	strbtvc	r7, [r1], #-1139	; 0x473
     1b0:	6c61765f 	stclvs	6, cr7, [r1], #-380	; 0xfffffe84
     1b4:	45545300 	ldrbmi	r5, [r4, #-768]	; 0x300
     1b8:	49545f50 	ldmdbmi	r4, {r4, r6, r8, r9, sl, fp, ip, lr}^
     1bc:	5453454d 	ldrbpl	r4, [r3], #-1357	; 0x54d
     1c0:	5f504d41 	svcpl	0x00504d41
     1c4:	736c0048 	cmnvc	ip, #72	; 0x48
     1c8:	7364366d 	cmnvc	r4, #114294784	; 0x6d00000
     1cc:	325f3333 	subscc	r3, pc, #-872415232	; 0xcc000000
     1d0:	70720067 	rsbsvc	r0, r2, r7, rrx
     1d4:	65725f69 	ldrbvs	r5, [r2, #-3945]!	; 0xf69
     1d8:	5f746573 	svcpl	0x00746573
     1dc:	63747570 	cmnvs	r4, #112, 10	; 0x1c000000
     1e0:	4d495400 	cfstrdmi	mvd5, [r9, #-0]
     1e4:	41545345 	cmpmi	r4, r5, asr #6
     1e8:	5f30504d 	svcpl	0x0030504d
     1ec:	00474552 	subeq	r4, r7, r2, asr r5
     1f0:	54415453 	strbpl	r5, [r1], #-1107	; 0x453
     1f4:	525f5355 	subspl	r5, pc, #1409286145	; 0x54000001
     1f8:	65004745 	strvs	r4, [r0, #-1861]	; 0x745
     1fc:	63657078 	cmnvs	r5, #120	; 0x78
     200:	00646574 	rsbeq	r6, r4, r4, ror r5
     204:	4f464946 	svcmi	0x00464946
     208:	4154535f 	cmpmi	r4, pc, asr r3
     20c:	31535554 	cmpcc	r3, r4, asr r5
     210:	46494600 	strbmi	r4, [r9], -r0, lsl #12
     214:	54535f4f 	ldrbpl	r5, [r3], #-3919	; 0xf4f
     218:	53555441 	cmppl	r5, #1090519040	; 0x41000000
     21c:	736c0032 	cmnvc	ip, #50	; 0x32
     220:	7364366d 	cmnvc	r4, #114294784	; 0x6d00000
     224:	315f3333 	cmpcc	pc, r3, lsr r3	; <UNPREDICTABLE>
     228:	7a683430 	bvc	1a0d2f0 <__bss_end__+0x1a02f80>
     22c:	46494600 	strbmi	r4, [r9], -r0, lsl #12
     230:	54535f4f 	ldrbpl	r5, [r3], #-3919	; 0xf4f
     234:	53555441 	cmppl	r5, #1090519040	; 0x41000000
     238:	54430034 	strbpl	r0, [r3], #-52	; 0x34
     23c:	5f324c52 	svcpl	0x00324c52
     240:	554f0047 	strbpl	r0, [pc, #-71]	; 201 <_start-0x7dff>
     244:	4c5f5a54 	mrrcmi	10, 5, r5, pc, cr4	; <UNPREDICTABLE>
     248:	004c585f 	subeq	r5, ip, pc, asr r8
     24c:	366d736c 	strbtcc	r7, [sp], -ip, ror #6
     250:	33337364 	teqcc	r3, #100, 6	; 0x90000001
     254:	6736315f 			; <UNDEFINED> instruction: 0x6736315f
     258:	6f687300 	svcvs	0x00687300
     25c:	75207472 	strvc	r7, [r0, #-1138]!	; 0x472
     260:	6769736e 	strbvs	r7, [r9, -lr, ror #6]!
     264:	2064656e 	rsbcs	r6, r4, lr, ror #10
     268:	00746e69 	rsbseq	r6, r4, r9, ror #28
     26c:	5f633269 	svcpl	0x00633269
     270:	74697277 	strbtvc	r7, [r9], #-631	; 0x277
     274:	656c0065 	strbvs	r0, [ip, #-101]!	; 0x65
     278:	5f6c6167 	svcpl	0x006c6167
     27c:	5f5f0047 	svcpl	0x005f0047
     280:	434e5546 	movtmi	r5, #58694	; 0xe546
     284:	4e4f4954 	mcrmi	9, 2, r4, cr15, cr4, {2}
     288:	43005f5f 	movwmi	r5, #3935	; 0xf5f
     28c:	314c5254 	cmpcc	ip, r4, asr r2
     290:	004c585f 	subeq	r5, ip, pc, asr r8
     294:	65636361 	strbvs	r6, [r3, #-865]!	; 0x361
     298:	74735f6c 	ldrbtvc	r5, [r3], #-3948	; 0xf6c
     29c:	74637572 	strbtvc	r7, [r3], #-1394	; 0x572
     2a0:	63636100 	cmnvs	r3, #0, 2
     2a4:	695f6c65 	ldmdbvs	pc, {r0, r2, r5, r6, sl, fp, sp, lr}^	; <UNPREDICTABLE>
     2a8:	0074696e 	rsbseq	r6, r4, lr, ror #18
     2ac:	6167656c 	cmnvs	r7, ip, ror #10
     2b0:	5f675f6c 	svcpl	0x00675f6c
     2b4:	73746962 	cmnvc	r4, #1605632	; 0x188000
     2b8:	52544300 	subspl	r4, r4, #0, 6
     2bc:	475f374c 	ldrbmi	r3, [pc, -ip, asr #14]
     2c0:	67657200 	strbvs	r7, [r5, -r0, lsl #4]!
     2c4:	72646441 	rsbvc	r6, r4, #1090519040	; 0x41000000
     2c8:	6d736c00 	ldclvs	12, cr6, [r3, #-0]
     2cc:	33736436 	cmncc	r3, #905969664	; 0x36000000
     2d0:	7a685f33 	bvc	1a17fa4 <__bss_end__+0x1a0dc34>
     2d4:	6c00745f 	cfstrsvs	mvf7, [r0], {95}	; 0x5f
     2d8:	64366d73 	ldrtvs	r6, [r6], #-3443	; 0xd73
     2dc:	5f333373 	svcpl	0x00333373
     2e0:	0066666f 	rsbeq	r6, r6, pc, ror #12
     2e4:	657a6973 	ldrbvs	r6, [sl, #-2419]!	; 0x973
     2e8:	65707974 	ldrbvs	r7, [r0, #-2420]!	; 0x974
     2ec:	73657400 	cmnvc	r5, #0, 8
     2f0:	676d5f74 			; <UNDEFINED> instruction: 0x676d5f74
     2f4:	756d6900 	strbvc	r6, [sp, #-2304]!	; 0x900
     2f8:	0064725f 	rsbeq	r7, r4, pc, asr r2
     2fc:	31544e49 	cmpcc	r4, r9, asr #28
     300:	5254435f 	subspl	r4, r4, #2080374785	; 0x7c000001
     304:	4157004c 	cmpmi	r7, ip, asr #32
     308:	555f454b 	ldrbpl	r4, [pc, #-1355]	; fffffdc5 <__bss_end__+0xffff5a55>
     30c:	52535f50 	subspl	r5, r3, #80, 30	; 0x140
     310:	736c0043 	cmnvc	ip, #67	; 0x43
     314:	7364366d 	cmnvc	r4, #114294784	; 0x6d00000
     318:	315f3333 	cmpcc	pc, r3, lsr r3	; <UNPREDICTABLE>
     31c:	007a6833 	rsbseq	r6, sl, r3, lsr r8
     320:	5f504154 	svcpl	0x00504154
     324:	00474643 	subeq	r4, r7, r3, asr #12
     328:	366d736c 	strbtcc	r7, [sp], -ip, ror #6
     32c:	33337364 	teqcc	r3, #100, 6	; 0x90000001
     330:	0067345f 	rsbeq	r3, r7, pc, asr r4
     334:	5f756d69 	svcpl	0x00756d69
     338:	5f7a7978 	svcpl	0x007a7978
     33c:	736c0074 	cmnvc	ip, #116	; 0x74
     340:	7364366d 	cmnvc	r4, #114294784	; 0x6d00000
     344:	365f3333 			; <UNDEFINED> instruction: 0x365f3333
     348:	68303636 	ldmdavs	r0!, {r1, r2, r4, r5, r9, sl, ip, sp}
     34c:	736c007a 	cmnvc	ip, #122	; 0x7a
     350:	7364366d 	cmnvc	r4, #114294784	; 0x6d00000
     354:	385f3333 	ldmdacc	pc, {r0, r1, r4, r5, r8, r9, ip, sp}^	; <UNPREDICTABLE>
     358:	7a683333 	bvc	1a0d02c <__bss_end__+0x1a02cbc>
     35c:	54554f00 	ldrbpl	r4, [r5], #-3840	; 0xf00
     360:	5f4c5f59 	svcpl	0x004c5f59
     364:	54530047 	ldrbpl	r0, [r3], #-71	; 0x47
     368:	435f5045 	cmpmi	pc, #69	; 0x45
     36c:	544e554f 	strbpl	r5, [lr], #-1359	; 0x54f
     370:	485f5245 	ldmdami	pc, {r0, r2, r6, r9, ip, lr}^	; <UNPREDICTABLE>
     374:	736e7500 	cmnvc	lr, #0, 10
     378:	656e6769 	strbvs	r6, [lr, #-1897]!	; 0x769
     37c:	68632064 	stmdavs	r3!, {r2, r5, r6, sp}^
     380:	53007261 	movwpl	r7, #609	; 0x261
     384:	5f504554 	svcpl	0x00504554
     388:	4e554f43 	cdpmi	15, 5, cr4, cr5, cr3, {2}
     38c:	5f524554 	svcpl	0x00524554
     390:	5443004c 	strbpl	r0, [r3], #-76	; 0x4c
     394:	5f364c52 	svcpl	0x00364c52
     398:	552f0047 	strpl	r0, [pc, #-71]!	; 359 <_start-0x7ca7>
     39c:	73726573 	cmnvc	r2, #482344960	; 0x1cc00000
     3a0:	6972622f 	ldmdbvs	r2!, {r0, r1, r2, r3, r5, r9, sp, lr}^
     3a4:	756a6e61 	strbvc	r6, [sl, #-3681]!	; 0xe61
     3a8:	65442f6e 	strbvs	r2, [r4, #-3950]	; 0xf6e
     3ac:	6f746b73 	svcvs	0x00746b73
     3b0:	63732f70 	cmnvs	r3, #112, 30	; 0x1c0
     3b4:	6c6f6f68 	stclvs	15, cr6, [pc], #-416	; 21c <_start-0x7de4>
     3b8:	7270532f 	rsbsvc	r5, r0, #-1140850688	; 0xbc000000
     3bc:	31676e69 	cmncc	r7, r9, ror #28
     3c0:	2f303239 	svccs	0x00303239
     3c4:	34325343 	ldrtcc	r5, [r2], #-835	; 0x343
     3c8:	2f584c30 	svccs	0x00584c30
     3cc:	34327363 	ldrtcc	r7, [r2], #-867	; 0x363
     3d0:	2d786c30 	ldclcs	12, cr6, [r8, #-192]!	; 0xffffff40
     3d4:	70733032 	rsbsvc	r3, r3, r2, lsr r0
     3d8:	616c2f72 	smcvs	49906	; 0xc2f2
     3dc:	382f7362 	stmdacc	pc!, {r1, r5, r6, r8, r9, ip, sp, lr}	; <UNPREDICTABLE>
     3e0:	6332692d 	teqvs	r2, #737280	; 0xb4000
     3e4:	6363612d 	cmnvs	r3, #1073741835	; 0x4000000b
     3e8:	632f6c65 	teqvs	pc, #25856	; 0x6500
     3ec:	0065646f 	rsbeq	r6, r5, pc, ror #8
     3f0:	434e5546 	movtmi	r5, #58694	; 0xe546
     3f4:	4746435f 	smlsldmi	r4, r6, pc, r3	; <UNPREDICTABLE>
     3f8:	4343415f 	movtmi	r4, #12639	; 0x315f
     3fc:	00535345 	subseq	r5, r3, r5, asr #6
     400:	726f6873 	rsbvc	r6, pc, #7536640	; 0x730000
     404:	6e692074 	mcrvs	0, 3, r2, cr9, cr4, {3}
     408:	54430074 	strbpl	r0, [r3], #-116	; 0x74
     40c:	5f384c52 	svcpl	0x00384c52
     410:	61004c58 	tstvs	r0, r8, asr ip
     414:	6c656363 	stclvs	3, cr6, [r5], #-396	; 0xfffffe74
     418:	7361685f 	cmnvc	r1, #6225920	; 0x5f0000
     41c:	7461645f 	strbtvc	r6, [r1], #-1119	; 0x45f
     420:	554f0061 	strbpl	r0, [pc, #-97]	; 3c7 <_start-0x7c39>
     424:	485f5954 	ldmdami	pc, {r2, r4, r6, r8, fp, ip, lr}^	; <UNPREDICTABLE>
     428:	004c585f 	subeq	r5, ip, pc, asr r8
     42c:	454b4157 	strbmi	r4, [fp, #-343]	; 0x157
     430:	5f50555f 	svcpl	0x0050555f
     434:	00525544 	subseq	r5, r2, r4, asr #10
     438:	366d736c 	strbtcc	r7, [sp], -ip, ror #6
     43c:	33337364 	teqcc	r3, #100, 6	; 0x90000001
     440:	3636315f 			; <UNDEFINED> instruction: 0x3636315f
     444:	007a6830 	rsbseq	r6, sl, r0, lsr r8
     448:	20554e47 	subscs	r4, r5, r7, asr #28
     44c:	2e342043 	cdpcs	0, 3, cr2, cr4, cr3, {2}
     450:	20332e38 	eorscs	r2, r3, r8, lsr lr
     454:	70636d2d 	rsbvc	r6, r3, sp, lsr #26
     458:	72613d75 	rsbvc	r3, r1, #7488	; 0x1d40
     45c:	3731316d 	ldrcc	r3, [r1, -sp, ror #2]!
     460:	667a6a36 			; <UNDEFINED> instruction: 0x667a6a36
     464:	2d20732d 	stccs	3, cr7, [r0, #-180]!	; 0xffffff4c
     468:	6e75746d 	cdpvs	4, 7, cr7, cr5, cr13, {3}
     46c:	72613d65 	rsbvc	r3, r1, #6464	; 0x1940
     470:	3731316d 	ldrcc	r3, [r1, -sp, ror #2]!
     474:	667a6a36 			; <UNDEFINED> instruction: 0x667a6a36
     478:	2d20732d 	stccs	3, cr7, [r0, #-180]!	; 0xffffff4c
     47c:	62646767 	rsbvs	r6, r4, #27000832	; 0x19c0000
     480:	674f2d20 	strbvs	r2, [pc, -r0, lsr #26]
     484:	74732d20 	ldrbtvc	r2, [r3], #-3360	; 0xd20
     488:	6e673d64 	cdpvs	13, 6, cr3, cr7, cr4, {3}
     48c:	20393975 	eorscs	r3, r9, r5, ror r9
     490:	7266662d 	rsbvc	r6, r6, #47185920	; 0x2d00000
     494:	74736565 	ldrbtvc	r6, [r3], #-1381	; 0x565
     498:	69646e61 	stmdbvs	r4!, {r0, r5, r6, r9, sl, fp, sp, lr}^
     49c:	2d20676e 	stccs	7, cr6, [r0, #-440]!	; 0xfffffe48
     4a0:	696c6166 	stmdbvs	ip!, {r1, r2, r5, r6, r8, sp, lr}^
     4a4:	662d6e67 	strtvs	r6, [sp], -r7, ror #28
     4a8:	74636e75 	strbtvc	r6, [r3], #-3701	; 0xe75
     4ac:	736e6f69 	cmnvc	lr, #420	; 0x1a4
     4b0:	4f00343d 	svcmi	0x0000343d
     4b4:	5f585455 	svcpl	0x00585455
     4b8:	00475f48 	subeq	r5, r7, r8, asr #30
     4bc:	616c6564 	cmnvs	ip, r4, ror #10
     4c0:	736d5f79 	cmnvc	sp, #484	; 0x1e4
     4c4:	6e697500 	cdpvs	5, 6, cr7, cr9, cr0, {0}
     4c8:	5f323374 	svcpl	0x00323374
     4cc:	41560074 	cmpmi	r6, r4, ror r0
     4d0:	48575f4c 	ldmdami	r7, {r2, r3, r6, r8, r9, sl, fp, ip, lr}^
     4d4:	4d415f4f 	stclmi	15, cr5, [r1, #-316]	; 0xfffffec4
     4d8:	4600495f 			; <UNDEFINED> instruction: 0x4600495f
     4dc:	5f454552 	svcpl	0x00454552
     4e0:	4c4c4146 	stfmie	f4, [ip], {70}	; 0x46
     4e4:	49524f00 	ldmdbmi	r2, {r8, r9, sl, fp, lr}^
     4e8:	5f544e45 	svcpl	0x00544e45
     4ec:	5f474643 	svcpl	0x00474643
     4f0:	6d690047 	stclvs	0, cr0, [r9, #-284]!	; 0xfffffee4
     4f4:	72775f75 	rsbsvc	r5, r7, #468	; 0x1d4
     4f8:	63636100 	cmnvs	r3, #0, 2
     4fc:	645f6c65 	ldrbvs	r6, [pc], #-3173	; 504 <_start-0x7afc>
     500:	00617461 	rsbeq	r7, r1, r1, ror #8
     504:	366d736c 	strbtcc	r7, [sp], -ip, ror #6
     508:	33337364 	teqcc	r3, #100, 6	; 0x90000001
     50c:	3631345f 			; <UNDEFINED> instruction: 0x3631345f
     510:	46007a68 	strmi	r7, [r0], -r8, ror #20
     514:	5f4f4649 	svcpl	0x004f4649
     518:	54415453 	strbpl	r5, [r1], #-1107	; 0x453
     51c:	00335355 	eorseq	r5, r3, r5, asr r3
     520:	366d736c 	strbtcc	r7, [sp], -ip, ror #6
     524:	33337364 	teqcc	r3, #100, 6	; 0x90000001
     528:	3333335f 	teqcc	r3, #2080374785	; 0x7c000001
     52c:	007a6830 	rsbseq	r6, sl, r0, lsr r8
     530:	5f766564 	svcpl	0x00766564
     534:	72646461 	rsbvc	r6, r4, #1627389952	; 0x61000000
     538:	54554f00 	ldrbpl	r4, [r5], #-3840	; 0xf00
     53c:	5f485f5a 	svcpl	0x00485f5a
     540:	61004c58 	tstvs	r0, r8, asr ip
     544:	6c656363 	stclvs	3, cr6, [r5], #-396	; 0xfffffe74
     548:	4300632e 	movwmi	r6, #814	; 0x32e
     54c:	354c5254 	strbcc	r5, [ip, #-596]	; 0x254
     550:	4f00435f 	svcmi	0x0000435f
     554:	5f585455 	svcpl	0x00585455
     558:	4c585f4c 	mrrcmi	15, 4, r5, r8, cr12
     55c:	52544300 	subspl	r4, r4, #0, 6
     560:	5f30314c 	svcpl	0x0030314c
     564:	736c0043 	cmnvc	ip, #67	; 0x43
     568:	7364366d 	cmnvc	r4, #114294784	; 0x6d00000
     56c:	645f3333 	ldrbvs	r3, [pc], #-819	; 574 <_start-0x7a8c>
     570:	75616665 	strbvc	r6, [r1, #-1637]!	; 0x665
     574:	615f746c 	cmpvs	pc, ip, ror #8
     578:	00726464 	rsbseq	r6, r2, r4, ror #8
     57c:	5f32444d 	svcpl	0x0032444d
     580:	00474643 	subeq	r4, r7, r3, asr #12
     584:	5f633269 	svcpl	0x00633269
     588:	64616572 	strbtvs	r6, [r1], #-1394	; 0x572
     58c:	63636100 	cmnvs	r3, #0, 2
     590:	725f6c65 	subsvc	r6, pc, #25856	; 0x6500
     594:	55460064 	strbpl	r0, [r6, #-100]	; 0x64
     598:	535f434e 	cmppl	pc, #939524097	; 0x38000001
     59c:	75004352 	strvc	r4, [r0, #-850]	; 0x352
     5a0:	38746e69 	ldmdacc	r4!, {r0, r3, r5, r6, r9, sl, fp, sp, lr}^
     5a4:	4900745f 	stmdbmi	r0, {r0, r1, r2, r3, r4, r6, sl, ip, sp, lr}
     5a8:	445f544e 	ldrbmi	r5, [pc], #-1102	; 5b0 <_start-0x7a50>
     5ac:	00325255 	eorseq	r5, r2, r5, asr r2
     5b0:	366d736c 	strbtcc	r7, [sp], -ip, ror #6
     5b4:	33337364 	teqcc	r3, #100, 6	; 0x90000001
     5b8:	6836325f 	ldmdavs	r6!, {r0, r1, r2, r3, r4, r6, r9, ip, sp}
     5bc:	4954007a 	ldmdbmi	r4, {r1, r3, r4, r5, r6}^
     5c0:	5453454d 	ldrbpl	r4, [r3], #-1357	; 0x54d
     5c4:	32504d41 	subscc	r4, r0, #4160	; 0x1040
     5c8:	4745525f 	smlsldmi	r5, r5, pc, r2	; <UNPREDICTABLE>
     5cc:	63636100 	cmnvs	r3, #0, 2
     5d0:	735f6c65 	cmpvc	pc, #25856	; 0x6500
     5d4:	656c6163 	strbvs	r6, [ip, #-355]!	; 0x163
     5d8:	44364400 	ldrtmi	r4, [r6], #-1024	; 0x400
     5dc:	4352535f 	cmpmi	r2, #2080374785	; 0x7c000001
     5e0:	54554f00 	ldrbpl	r4, [r5], #-3840	; 0xf00
     5e4:	5f485f59 	svcpl	0x00485f59
     5e8:	6c630047 	stclvs	0, cr0, [r3], #-284	; 0xfffffee4
     5ec:	5f6e6165 	svcpl	0x006e6165
     5f0:	6f626572 	svcvs	0x00626572
     5f4:	4600746f 	strmi	r7, [r0], -pc, ror #8
     5f8:	5f4f4649 	svcpl	0x004f4649
     5fc:	41544144 	cmpmi	r4, r4, asr #2
     600:	54554f5f 	ldrbpl	r4, [r5], #-3935	; 0xf5f
     604:	4600485f 			; <UNDEFINED> instruction: 0x4600485f
     608:	5f4f4649 	svcpl	0x004f4649
     60c:	41544144 	cmpmi	r4, r4, asr #2
     610:	54554f5f 	ldrbpl	r4, [r5], #-3935	; 0xf5f
     614:	4f004c5f 	svcmi	0x00004c5f
     618:	5f5a5455 	svcpl	0x005a5455
     61c:	00475f48 	subeq	r5, r7, r8, asr #30
     620:	32544e49 	subscc	r4, r4, #1168	; 0x490
     624:	5254435f 	subspl	r4, r4, #2080374785	; 0x7c000001
     628:	645f004c 	ldrbvs	r0, [pc], #-76	; 630 <_start-0x79d0>
     62c:	685f6f73 	ldmdavs	pc, {r0, r1, r4, r5, r6, r8, r9, sl, fp, sp, lr}^	; <UNPREDICTABLE>
     630:	6c646e61 	stclvs	14, cr6, [r4], #-388	; 0xfffffe7c
     634:	4e470065 	cdpmi	0, 4, cr0, cr7, cr5, {3}
     638:	39432055 	stmdbcc	r3, {r0, r2, r4, r6, sp}^
     63c:	2e362039 	mrccs	0, 1, r2, cr6, cr9, {1}
     640:	20312e33 	eorscs	r2, r1, r3, lsr lr
     644:	37313032 			; <UNDEFINED> instruction: 0x37313032
     648:	30323630 	eorscc	r3, r2, r0, lsr r6
     64c:	636d2d20 	cmnvs	sp, #32, 26	; 0x800
     650:	613d7570 	teqvs	sp, r0, ror r5
     654:	31316d72 	teqcc	r1, r2, ror sp
     658:	7a6a3637 	bvc	1a8df3c <__bss_end__+0x1a83bcc>
     65c:	20732d66 	rsbscs	r2, r3, r6, ror #26
     660:	75746d2d 	ldrbvc	r6, [r4, #-3373]!	; 0xd2d
     664:	613d656e 	teqvs	sp, lr, ror #10
     668:	31316d72 	teqcc	r1, r2, ror sp
     66c:	7a6a3637 	bvc	1a8df50 <__bss_end__+0x1a83be0>
     670:	20732d66 	rsbscs	r2, r3, r6, ror #26
     674:	6467672d 	strbtvs	r6, [r7], #-1837	; 0x72d
     678:	4f2d2062 	svcmi	0x002d2062
     67c:	732d2067 	teqvc	sp, #103	; 0x67
     680:	673d6474 			; <UNDEFINED> instruction: 0x673d6474
     684:	3939756e 	ldmdbcc	r9!, {r1, r2, r3, r5, r6, r8, sl, ip, sp, lr}
     688:	66662d20 	strbtvs	r2, [r6], -r0, lsr #26
     68c:	73656572 	cmnvc	r5, #478150656	; 0x1c800000
     690:	646e6174 	strbtvs	r6, [lr], #-372	; 0x174
     694:	20676e69 	rsbcs	r6, r7, r9, ror #28
     698:	6c61662d 	stclvs	6, cr6, [r1], #-180	; 0xffffff4c
     69c:	2d6e6769 	stclcs	7, cr6, [lr, #-420]!	; 0xfffffe5c
     6a0:	636e7566 	cmnvs	lr, #427819008	; 0x19800000
     6a4:	6e6f6974 	mcrvs	9, 3, r6, cr15, cr4, {3}
     6a8:	00343d73 	eorseq	r3, r4, r3, ror sp
     6ac:	7a69735f 	bvc	1a5d430 <__bss_end__+0x1a530c0>
     6b0:	725f0065 	subsvc	r0, pc, #101	; 0x65
     6b4:	34646e61 	strbtcc	r6, [r4], #-3681	; 0xe61
     6b8:	655f0038 	ldrbvs	r0, [pc, #-56]	; 688 <_start-0x7978>
     6bc:	6772656d 	ldrbvs	r6, [r2, -sp, ror #10]!
     6c0:	79636e65 	stmdbvc	r3!, {r0, r2, r5, r6, r9, sl, fp, sp, lr}^
     6c4:	725f7300 	subsvc	r7, pc, #0, 6
     6c8:	73696765 	cmnvc	r9, #26476544	; 0x1940000
     6cc:	00726574 	rsbseq	r6, r2, r4, ror r5
     6d0:	5f495052 	svcpl	0x00495052
     6d4:	00633269 	rsbeq	r3, r3, r9, ror #4
     6d8:	656e6f64 	strbvs	r6, [lr, #-3940]!	; 0xf64
     6dc:	66696600 	strbtvs	r6, [r9], -r0, lsl #12
     6e0:	775f006f 	ldrbvc	r0, [pc, -pc, rrx]
     6e4:	6f747263 	svcvs	0x00747263
     6e8:	735f626d 	cmpvc	pc, #-805306362	; 0xd0000006
     6ec:	65746174 	ldrbvs	r6, [r4, #-372]!	; 0x174
     6f0:	63775f00 	cmnvs	r7, #0, 30
     6f4:	6f747273 	svcvs	0x00747273
     6f8:	5f73626d 	svcpl	0x0073626d
     6fc:	74617473 	strbtvc	r7, [r1], #-1139	; 0x473
     700:	6c5f0065 	mrrcvs	0, 6, r0, pc, cr5	; <UNPREDICTABLE>
     704:	69736662 	ldmdbvs	r3!, {r1, r5, r6, r9, sl, sp, lr}^
     708:	4700657a 	smlsdxmi	r0, sl, r5, r6
     70c:	5f4f4950 	svcpl	0x004f4950
     710:	434e5546 	movtmi	r5, #58694	; 0xe546
     714:	504e495f 	subpl	r4, lr, pc, asr r9
     718:	5f005455 	svcpl	0x00005455
     71c:	7472626d 	ldrbtvc	r6, [r2], #-621	; 0x26d
     720:	5f63776f 	svcpl	0x0063776f
     724:	74617473 	strbtvc	r7, [r1], #-1139	; 0x473
     728:	32690065 	rsbcc	r0, r9, #101	; 0x65
     72c:	73695f63 	cmnvc	r9, #396	; 0x18c
     730:	696e695f 	stmdbvs	lr!, {r0, r1, r2, r3, r4, r6, r8, fp, sp, lr}^
     734:	6c616974 	stclvs	9, cr6, [r1], #-464	; 0xfffffe30
     738:	64657a69 	strbtvs	r7, [r5], #-2665	; 0xa69
     73c:	63775f00 	cmnvs	r7, #0, 30
     740:	626d6f74 	rsbvs	r6, sp, #116, 30	; 0x1d0
     744:	6174735f 	cmnvs	r4, pc, asr r3
     748:	5f006574 	svcpl	0x00006574
     74c:	5f6d745f 	svcpl	0x006d745f
     750:	00636573 	rsbeq	r6, r3, r3, ror r5
     754:	7562755f 	strbvc	r7, [r2, #-1375]!	; 0x55f
     758:	50470066 	subpl	r0, r7, r6, rrx
     75c:	465f4f49 	ldrbmi	r4, [pc], -r9, asr #30
     760:	5f434e55 	svcpl	0x00434e55
     764:	31544c41 	cmpcc	r4, r1, asr #24
     768:	61625f00 	cmnvs	r2, r0, lsl #30
     76c:	5f006573 	svcpl	0x00006573
     770:	5f6d745f 	svcpl	0x006d745f
     774:	72756f68 	rsbsvc	r6, r5, #104, 30	; 0x1a0
     778:	755f5f00 	ldrbvc	r5, [pc, #-3840]	; fffff880 <__bss_end__+0xffff5510>
     77c:	6573756e 	ldrbvs	r7, [r3, #-1390]!	; 0x56e
     780:	5f003164 	svcpl	0x00003164
     784:	0066735f 	rsbeq	r7, r6, pc, asr r3
     788:	5f6e6f5f 	svcpl	0x006e6f5f
     78c:	74697865 	strbtvc	r7, [r9], #-2149	; 0x865
     790:	6772615f 			; <UNDEFINED> instruction: 0x6772615f
     794:	6c630073 	stclvs	0, cr0, [r3], #-460	; 0xfffffe34
     798:	5f6b636f 	svcpl	0x006b636f
     79c:	65727473 	ldrbvs	r7, [r2, #-1139]!	; 0x473
     7a0:	5f686374 	svcpl	0x00686374
     7a4:	656d6974 	strbvs	r6, [sp, #-2420]!	; 0x974
     7a8:	0074756f 	rsbseq	r7, r4, pc, ror #10
     7ac:	6f6f635f 	svcvs	0x006f635f
     7b0:	0065696b 	rsbeq	r6, r5, fp, ror #18
     7b4:	6f697067 	svcvs	0x00697067
     7b8:	7465735f 	strbtvc	r7, [r5], #-863	; 0x35f
     7bc:	6e75665f 	mrcvs	6, 3, r6, cr5, cr15, {2}
     7c0:	6f697463 	svcvs	0x00697463
     7c4:	5f5f006e 	svcpl	0x005f006e
     7c8:	756c6773 	strbvc	r6, [ip, #-1907]!	; 0x773
     7cc:	665f0065 	ldrbvs	r0, [pc], -r5, rrx
     7d0:	7367616c 	cmnvc	r7, #108, 2
     7d4:	73695f00 	cmnvc	r9, #0, 30
     7d8:	6178635f 	cmnvs	r8, pc, asr r3
     7dc:	74735f00 	ldrbtvc	r5, [r3], #-3840	; 0xf00
     7e0:	006e6964 	rsbeq	r6, lr, r4, ror #18
     7e4:	6e755f5f 	mrcvs	15, 3, r5, cr5, cr15, {2}
     7e8:	64657375 	strbtvs	r7, [r5], #-885	; 0x375
     7ec:	625f0030 	subsvs	r0, pc, #48	; 0x30
     7f0:	69736b6c 	ldmdbvs	r3!, {r2, r3, r5, r6, r8, r9, fp, sp, lr}^
     7f4:	5f00657a 	svcpl	0x0000657a
     7f8:	756e755f 	strbvc	r7, [lr, #-1375]!	; 0x55f
     7fc:	32646573 	rsbcc	r6, r4, #482344960	; 0x1cc00000
     800:	755f5f00 	ldrbvc	r5, [pc, #-3840]	; fffff908 <__bss_end__+0xffff5598>
     804:	6573756e 	ldrbvs	r7, [r3, #-1390]!	; 0x56e
     808:	5f003364 	svcpl	0x00003364
     80c:	62747663 	rsbsvs	r7, r4, #103809024	; 0x6300000
     810:	5f006675 	svcpl	0x00006675
     814:	7366666f 	cmnvc	r6, #116391936	; 0x6f00000
     818:	73007465 	movwvc	r7, #1125	; 0x465
     81c:	74666968 	strbtvc	r6, [r6], #-2408	; 0x968
     820:	626d5f00 	rsbvs	r5, sp, #0, 30
     824:	6f747273 	svcvs	0x00747273
     828:	5f736377 	svcpl	0x00736377
     82c:	74617473 	strbtvc	r7, [r1], #-1139	; 0x473
     830:	6d5f0065 	ldclvs	0, cr0, [pc, #-404]	; 6a4 <_start-0x795c>
     834:	656c7262 	strbvs	r7, [ip, #-610]!	; 0x262
     838:	74735f6e 	ldrbtvc	r5, [r3], #-3950	; 0xf6e
     83c:	00657461 	rsbeq	r7, r5, r1, ror #8
     840:	616e665f 	cmnvs	lr, pc, asr r6
     844:	00736772 	rsbseq	r6, r3, r2, ror r7
     848:	736e665f 	cmnvc	lr, #99614720	; 0x5f00000
     84c:	63326900 	teqvs	r2, #0, 18
     850:	5f00632e 	svcpl	0x0000632e
     854:	6e676973 	mcrvs	9, 3, r6, cr7, cr3, {3}
     858:	61657200 	cmnvs	r5, r0, lsl #4
     85c:	00635f64 	rsbeq	r5, r3, r4, ror #30
     860:	6f6c665f 	svcvs	0x006c665f
     864:	745f6b63 	ldrbvc	r6, [pc], #-2915	; 86c <_start-0x7794>
     868:	74735f00 	ldrbtvc	r5, [r3], #-3840	; 0xf00
     86c:	72726564 	rsbsvc	r6, r2, #100, 10	; 0x19000000
     870:	69425f00 	stmdbvs	r2, {r8, r9, sl, fp, ip, lr}^
     874:	746e6967 	strbtvc	r6, [lr], #-2407	; 0x967
     878:	61675f00 	cmnvs	r7, r0, lsl #30
     87c:	5f616d6d 	svcpl	0x00616d6d
     880:	6e676973 	mcrvs	9, 3, r6, cr7, cr3, {3}
     884:	006d6167 	rsbeq	r6, sp, r7, ror #2
     888:	7365725f 	cmnvc	r5, #-268435451	; 0xf0000005
     88c:	5f746c75 	svcpl	0x00746c75
     890:	7072006b 	rsbsvc	r0, r2, fp, rrx
     894:	75705f69 	ldrbvc	r5, [r0, #-3945]!	; 0xf69
     898:	61686374 	smcvs	34356	; 0x8634
     89c:	5f5f0072 	svcpl	0x005f0072
     8a0:	72006d74 	andvc	r6, r0, #116, 26	; 0x1d00
     8a4:	5f646165 	svcpl	0x00646165
     8a8:	5f5f0073 	svcpl	0x005f0073
     8ac:	62686377 	rsbvs	r6, r8, #-603979775	; 0xdc000001
     8b0:	74735f00 	ldrbtvc	r5, [r3], #-3840	; 0xf00
     8b4:	74756f64 	ldrbtvc	r6, [r5], #-3940	; 0xf64
     8b8:	61657200 	cmnvs	r5, r0, lsl #4
     8bc:	00705f64 	rsbseq	r5, r0, r4, ror #30
     8c0:	7476635f 	ldrbtvc	r6, [r6], #-863	; 0x35f
     8c4:	006e656c 	rsbeq	r6, lr, ip, ror #10
     8c8:	6c69665f 	stclvs	6, cr6, [r9], #-380	; 0xfffffe84
     8cc:	6e5f0065 	cdpvs	0, 5, cr0, cr15, cr5, {3}
     8d0:	73626f69 	cmnvc	r2, #420	; 0x1a4
     8d4:	696e6900 	stmdbvs	lr!, {r8, fp, sp, lr}^
     8d8:	6c616974 	stclvs	9, cr6, [r1], #-464	; 0xfffffe30
     8dc:	64657a69 	strbtvs	r7, [r5], #-2665	; 0xa69
     8e0:	7300705f 	movwvc	r7, #95	; 0x5f
     8e4:	615f7465 	cmpvs	pc, r5, ror #8
     8e8:	63006c6c 	movwvs	r6, #3180	; 0xc6c
     8ec:	6b636f6c 	blvs	18dc6a4 <__bss_end__+0x18d2334>
     8f0:	7669645f 			; <UNDEFINED> instruction: 0x7669645f
     8f4:	74615f00 	strbtvc	r5, [r1], #-3840	; 0xf00
     8f8:	74697865 	strbtvc	r7, [r9], #-2149	; 0x865
     8fc:	65720030 	ldrbvs	r0, [r2, #-48]!	; 0x30
     900:	5f746573 	svcpl	0x00746573
     904:	74617473 	strbtvc	r7, [r1], #-1139	; 0x473
     908:	5f007375 	svcpl	0x00007375
     90c:	6e676973 	mcrvs	9, 3, r6, cr7, cr3, {3}
     910:	625f6c61 	subsvs	r6, pc, #24832	; 0x6100
     914:	5f006675 	svcpl	0x00006675
     918:	74637361 	strbtvc	r7, [r3], #-865	; 0x361
     91c:	5f656d69 	svcpl	0x00656d69
     920:	00667562 	rsbeq	r7, r6, r2, ror #10
     924:	5f633269 	svcpl	0x00633269
     928:	74696e69 	strbtvc	r6, [r9], #-3689	; 0xe69
     92c:	636e6f5f 	cmnvs	lr, #380	; 0x17c
     930:	725f0065 	subsvc	r0, pc, #101	; 0x65
     934:	6c757365 	ldclvs	3, cr7, [r5], #-404	; 0xfffffe6c
     938:	5f5f0074 	svcpl	0x005f0074
     93c:	00686377 	rsbeq	r6, r8, r7, ror r3
     940:	4f495047 	svcmi	0x00495047
     944:	4e55465f 	mrcmi	6, 2, r4, cr5, cr15, {2}
     948:	4c415f43 	mcrrmi	15, 4, r5, r1, cr3
     94c:	77003254 	smlsdvc	r0, r4, r2, r3
     950:	5f746e69 	svcpl	0x00746e69
     954:	6c5f0074 	mrrcvs	0, 7, r0, pc, cr4	; <UNPREDICTABLE>
     958:	006b636f 	rsbeq	r6, fp, pc, ror #6
     95c:	616c665f 	cmnvs	ip, pc, asr r6
     960:	00327367 	eorseq	r7, r2, r7, ror #6
     964:	6d745f5f 	ldclvs	15, cr5, [r4, #-380]!	; 0xfffffe84
     968:	6165795f 	cmnvs	r5, pc, asr r9
     96c:	6e690072 	mcrvs	0, 3, r0, cr9, cr2, {3}
     970:	5f006474 	svcpl	0x00006474
     974:	6c616d6e 	stclvs	13, cr6, [r1], #-440	; 0xfffffe48
     978:	00636f6c 	rsbeq	r6, r3, ip, ror #30
     97c:	72746e69 	rsbsvc	r6, r4, #1680	; 0x690
     980:	746e6900 	strbtvc	r6, [lr], #-2304	; 0x900
     984:	68630074 	stmdavs	r3!, {r2, r4, r5, r6}^
     988:	5f6b6365 	svcpl	0x006b6365
     98c:	6f79616c 	svcvs	0x0079616c
     990:	5f007475 	svcpl	0x00007475
     994:	7478656e 	ldrbtvc	r6, [r8], #-1390	; 0x56e
     998:	32690066 	rsbcc	r0, r9, #102	; 0x66
     99c:	006e6563 	rsbeq	r6, lr, r3, ror #10
     9a0:	6d745f5f 	ldclvs	15, cr5, [r4, #-380]!	; 0xfffffe84
     9a4:	6e6f6d5f 	mcrvs	13, 3, r6, cr15, cr15, {2}
     9a8:	74615f00 	strbtvc	r5, [r1], #-3840	; 0xf00
     9ac:	74697865 	strbtvc	r7, [r9], #-2149	; 0x865
     9b0:	735f5f00 	cmpvc	pc, #0, 30
     9b4:	69646964 	stmdbvs	r4!, {r2, r5, r6, r8, fp, sp, lr}^
     9b8:	0074696e 	rsbseq	r6, r4, lr, ror #18
     9bc:	66666f5f 	uqsaxvs	r6, r6, pc	; <UNPREDICTABLE>
     9c0:	5f00745f 	svcpl	0x0000745f
     9c4:	65657266 	strbvs	r7, [r5, #-614]!	; 0x266
     9c8:	7473696c 	ldrbtvc	r6, [r3], #-2412	; 0x96c
     9cc:	79626e00 	stmdbvc	r2!, {r9, sl, fp, sp, lr}^
     9d0:	00736574 	rsbseq	r6, r3, r4, ror r5
     9d4:	6e656c64 	cdpvs	12, 6, cr6, cr5, cr4, {3}
     9d8:	4f4c5f00 	svcmi	0x004c5f00
     9dc:	525f4b43 	subspl	r4, pc, #68608	; 0x10c00
     9e0:	52554345 	subspl	r4, r5, #335544321	; 0x14000001
     9e4:	45564953 	ldrbmi	r4, [r6, #-2387]	; 0x953
     9e8:	5f00545f 	svcpl	0x0000545f
     9ec:	0077656e 	rsbseq	r6, r7, lr, ror #10
     9f0:	655f685f 	ldrbvs	r6, [pc, #-2143]	; 199 <_start-0x7e67>
     9f4:	6f6e7272 	svcvs	0x006e7272
     9f8:	745f5f00 	ldrbvc	r5, [pc], #-3840	; a00 <_start-0x7600>
     9fc:	64795f6d 	ldrbtvs	r5, [r9], #-3949	; 0xf6d
     a00:	5f007961 	svcpl	0x00007961
     a04:	7562735f 	strbvc	r7, [r2, #-863]!	; 0x35f
     a08:	695f0066 	ldmdbvs	pc, {r1, r2, r5, r6}^	; <UNPREDICTABLE>
     a0c:	0073626f 	rsbseq	r6, r3, pc, ror #4
     a10:	49465f5f 	stmdbmi	r6, {r0, r1, r2, r3, r4, r6, r8, r9, sl, fp, ip, lr}^
     a14:	5f00454c 	svcpl	0x0000454c
     a18:	7473626d 	ldrbtvc	r6, [r3], #-621	; 0x26d
     a1c:	5f657461 	svcpl	0x00657461
     a20:	5f5f0074 	svcpl	0x005f0074
     a24:	4c494673 	mcrrmi	6, 7, r4, r9, cr3
     a28:	6d5f0045 	ldclvs	0, cr0, [pc, #-276]	; 91c <_start-0x76e4>
     a2c:	61747362 	cmnvs	r4, r2, ror #6
     a30:	5f006574 	svcpl	0x00006574
     a34:	646e6172 	strbtvs	r6, [lr], #-370	; 0x172
     a38:	78656e5f 	stmdavc	r5!, {r0, r1, r2, r3, r4, r6, r9, sl, fp, sp, lr}^
     a3c:	6c630074 	stclvs	0, cr0, [r3], #-464	; 0xfffffe30
     a40:	5f6b636f 	svcpl	0x006b636f
     a44:	616c6564 	cmnvs	ip, r4, ror #10
     a48:	6d5f0079 	ldclvs	0, cr0, [pc, #-484]	; 86c <_start-0x7794>
     a4c:	6e656c62 	cdpvs	12, 6, cr6, cr5, cr2, {3}
     a50:	6174735f 	cmnvs	r4, pc, asr r3
     a54:	5f006574 	svcpl	0x00006574
     a58:	00636e69 	rsbeq	r6, r3, r9, ror #28
     a5c:	646e695f 	strbtvs	r6, [lr], #-2399	; 0x95f
     a60:	75635f00 	strbvc	r5, [r3, #-3840]!	; 0xf00
     a64:	6e657272 	mcrvs	2, 3, r7, cr5, cr2, {3}
     a68:	6f6c5f74 	svcvs	0x006c5f74
     a6c:	656c6163 	strbvs	r6, [ip, #-355]!	; 0x163
     a70:	635f5f00 	cmpvs	pc, #0, 30
     a74:	6e61656c 	cdpvs	5, 6, cr6, cr1, cr12, {3}
     a78:	5f007075 	svcpl	0x00007075
     a7c:	7778616d 	ldrbvc	r6, [r8, -sp, ror #2]!
     a80:	5f007364 	svcpl	0x00007364
     a84:	6e656572 	mcrvs	5, 3, r6, cr5, cr2, {3}
     a88:	735f0074 	cmpvc	pc, #116	; 0x74
     a8c:	00646565 	rsbeq	r6, r4, r5, ror #10
     a90:	6f635f5f 	svcvs	0x00635f5f
     a94:	00746e75 	rsbseq	r6, r4, r5, ror lr
     a98:	746e6f63 	strbtvc	r6, [lr], #-3939	; 0xf63
     a9c:	006c6f72 	rsbeq	r6, ip, r2, ror pc
     aa0:	6565735f 	strbvs	r7, [r5, #-863]!	; 0x35f
     aa4:	665f006b 	ldrbvs	r0, [pc], -fp, rrx
     aa8:	5f736f70 	svcpl	0x00736f70
     aac:	5f5f0074 	svcpl	0x005f0074
     ab0:	6d5f6d74 	ldclvs	13, cr6, [pc, #-464]	; 8e8 <_start-0x7718>
     ab4:	5f006e69 	svcpl	0x00006e69
     ab8:	746c756d 	strbtvc	r7, [ip], #-1389	; 0x56d
     abc:	74757000 	ldrbtvc	r7, [r5], #-0
     ac0:	2f003233 	svccs	0x00003233
     ac4:	656d6f68 	strbvs	r6, [sp, #-3944]!	; 0xf68
     ac8:	676e652f 	strbvs	r6, [lr, -pc, lsr #10]!
     acc:	2f72656c 	svccs	0x0072656c
     ad0:	73616c63 	cmnvc	r1, #25344	; 0x6300
     ad4:	73632f73 	cmnvc	r3, #460	; 0x1cc
     ad8:	6c303432 	cfldrsvs	mvf3, [r0], #-200	; 0xffffff38
     adc:	30322d78 	eorscc	r2, r2, r8, ror sp
     ae0:	2f727073 	svccs	0x00727073
     ae4:	7362616c 	cmnvc	r2, #108, 2
     ae8:	692d382f 	pushvs	{r0, r1, r2, r3, r5, fp, ip, sp}
     aec:	612d6332 	teqvs	sp, r2, lsr r3
     af0:	6c656363 	stclvs	3, cr6, [r5], #-396	; 0xfffffe74
     af4:	646f632f 	strbtvs	r6, [pc], #-815	; afc <_start-0x7504>
     af8:	735f0065 	cmpvc	pc, #101	; 0x65
     afc:	6f747274 	svcvs	0x00747274
     b00:	616c5f6b 	cmnvs	ip, fp, ror #30
     b04:	5f007473 	svcpl	0x00007473
     b08:	6c61765f 	stclvs	6, cr7, [r1], #-380	; 0xfffffe84
     b0c:	5f006575 	svcpl	0x00006575
     b10:	79746e66 	ldmdbvc	r4!, {r1, r2, r5, r6, r9, sl, fp, sp, lr}^
     b14:	00736570 	rsbseq	r6, r3, r0, ror r5
     b18:	6464615f 	strbtvs	r6, [r4], #-351	; 0x15f
     b1c:	555f5f00 	ldrbpl	r5, [pc, #-3840]	; fffffc24 <__bss_end__+0xffff58b4>
     b20:	676e6f4c 	strbvs	r6, [lr, -ip, asr #30]!
     b24:	65675f00 	strbvs	r5, [r7, #-3840]!	; 0xf00
     b28:	74616474 	strbtvc	r6, [r1], #-1140	; 0x474
     b2c:	72655f65 	rsbvc	r5, r5, #404	; 0x194
     b30:	675f0072 			; <UNDEFINED> instruction: 0x675f0072
     b34:	61626f6c 	cmnvs	r2, ip, ror #30
     b38:	6d695f6c 	stclvs	15, cr5, [r9, #-432]!	; 0xfffffe50
     b3c:	65727570 	ldrbvs	r7, [r2, #-1392]!	; 0x570
     b40:	7274705f 	rsbsvc	r7, r4, #95	; 0x5f
     b44:	75635f00 	strbvc	r5, [r3, #-3840]!	; 0xf00
     b48:	6e657272 	mcrvs	2, 3, r7, cr5, cr2, {3}
     b4c:	61635f74 	smcvs	13812	; 0x35f4
     b50:	6f676574 	svcvs	0x00676574
     b54:	5f007972 	svcpl	0x00007972
     b58:	73756e75 	cmnvc	r5, #1872	; 0x750
     b5c:	725f6465 	subsvc	r6, pc, #1694498816	; 0x65000000
     b60:	00646e61 	rsbeq	r6, r4, r1, ror #28
     b64:	72656678 	rsbvc	r6, r5, #120, 12	; 0x7800000
     b68:	6174735f 	cmnvs	r4, pc, asr r3
     b6c:	5f007472 	svcpl	0x00007472
     b70:	00736477 	rsbseq	r6, r3, r7, ror r4
     b74:	6d745f5f 	ldclvs	15, cr5, [r4, #-380]!	; 0xfffffe84
     b78:	6164775f 	cmnvs	r4, pc, asr r7
     b7c:	675f0079 			; <UNDEFINED> instruction: 0x675f0079
     b80:	0065756c 	rsbeq	r7, r5, ip, ror #10
     b84:	4f495047 	svcmi	0x00495047
     b88:	4e55465f 	mrcmi	6, 2, r4, cr5, cr15, {2}
     b8c:	554f5f43 	strbpl	r5, [pc, #-3907]	; fffffc51 <__bss_end__+0xffff58e1>
     b90:	54555054 	ldrbpl	r5, [r5], #-84	; 0x54
     b94:	366c5f00 	strbtcc	r5, [ip], -r0, lsl #30
     b98:	625f6134 	subsvs	r6, pc, #52, 2
     b9c:	67006675 	smlsdxvs	r0, r5, r6, r6
     ba0:	32337465 	eorscc	r7, r3, #1694498816	; 0x65000000
     ba4:	65667800 	strbvs	r7, [r6, #-2048]!	; 0x800
     ba8:	6e655f72 	mcrvs	15, 3, r5, cr5, cr2, {3}
     bac:	735f0064 	cmpvc	pc, #100	; 0x64
     bb0:	665f6769 	ldrbvs	r6, [pc], -r9, ror #14
     bb4:	00636e75 	rsbeq	r6, r3, r5, ror lr
     bb8:	746b6c63 	strbtvc	r6, [fp], #-3171	; 0xc63
     bbc:	6c63006b 	stclvs	0, cr0, [r3], #-428	; 0xfffffe54
     bc0:	5f726165 	svcpl	0x00726165
     bc4:	50470063 	subpl	r0, r7, r3, rrx
     bc8:	465f4f49 	ldrbmi	r4, [pc], -r9, asr #30
     bcc:	5f434e55 	svcpl	0x00434e55
     bd0:	30544c41 	subscc	r4, r4, r1, asr #24
     bd4:	626e5f00 	rsbvs	r5, lr, #0, 30
     bd8:	5f006675 	svcpl	0x00006675
     bdc:	73756e75 	cmnvc	r5, #1872	; 0x750
     be0:	47006465 	strmi	r6, [r0, -r5, ror #8]
     be4:	5f4f4950 	svcpl	0x004f4950
     be8:	434e5546 	movtmi	r5, #58694	; 0xe546
     bec:	544c415f 	strbpl	r4, [ip], #-351	; 0x15f
     bf0:	50470033 	subpl	r0, r7, r3, lsr r0
     bf4:	465f4f49 	ldrbmi	r4, [pc], -r9, asr #30
     bf8:	5f434e55 	svcpl	0x00434e55
     bfc:	34544c41 	ldrbcc	r4, [r4], #-3137	; 0xc41
     c00:	49504700 	ldmdbmi	r0, {r8, r9, sl, lr}^
     c04:	55465f4f 	strbpl	r5, [r6, #-3919]	; 0xf4f
     c08:	415f434e 	cmpmi	pc, lr, asr #6
     c0c:	0035544c 	eorseq	r5, r5, ip, asr #8
     c10:	6d745f5f 	ldclvs	15, cr5, [r4, #-380]!	; 0xfffffe84
     c14:	6473695f 	ldrbtvs	r6, [r3], #-2399	; 0x95f
     c18:	5f007473 	svcpl	0x00007473
     c1c:	61636f6c 	cmnvs	r3, ip, ror #30
     c20:	6d69746c 	cfstrdvs	mvd7, [r9, #-432]!	; 0xfffffe50
     c24:	75625f65 	strbvc	r5, [r2, #-3941]!	; 0xf65
     c28:	635f0066 	cmpvs	pc, #102	; 0x66
     c2c:	65736f6c 	ldrbvs	r6, [r3, #-3948]!	; 0xf6c
     c30:	656c6300 	strbvs	r6, [ip, #-768]!	; 0x300
     c34:	735f7261 	cmpvc	pc, #268435462	; 0x10000006
     c38:	34725f00 	ldrbtcc	r5, [r2], #-3840	; 0xf00
     c3c:	5f630038 	svcpl	0x00630038
     c40:	69676572 	stmdbvs	r7!, {r1, r4, r5, r6, r8, sl, sp, lr}^
     c44:	72657473 	rsbvc	r7, r5, #1929379840	; 0x73000000
     c48:	626d5f00 	rsbvs	r5, sp, #0, 30
     c4c:	63776f74 	cmnvs	r7, #116, 30	; 0x1d0
     c50:	6174735f 	cmnvs	r4, pc, asr r3
     c54:	5f006574 	svcpl	0x00006574
     c58:	00733570 	rsbseq	r3, r3, r0, ror r5
     c5c:	6d745f5f 	ldclvs	15, cr5, [r4, #-380]!	; 0xfffffe84
     c60:	61646d5f 	cmnvs	r4, pc, asr sp
     c64:	5f5f0079 	svcpl	0x005f0079
     c68:	63756e67 	cmnvs	r5, #1648	; 0x670
     c6c:	5f61765f 	svcpl	0x0061765f
     c70:	7473696c 	ldrbtvc	r6, [r3], #-2412	; 0x96c
     c74:	62696c00 	rsbvs	r6, r9, #0, 24
     c78:	72702f63 	rsbsvc	r2, r0, #396	; 0x18c
     c7c:	6b746e69 	blvs	1d1c628 <__bss_end__+0x1d122b8>
     c80:	4700632e 	strmi	r6, [r0, -lr, lsr #6]
     c84:	4320554e 	teqmi	r0, #327155712	; 0x13800000
     c88:	382e3420 	stmdacc	lr!, {r5, sl, ip, sp}
     c8c:	2d20332e 	stccs	3, cr3, [r0, #-184]!	; 0xffffff48
     c90:	7570636d 	ldrbvc	r6, [r0, #-877]!	; 0x36d
     c94:	6d72613d 	ldfvse	f6, [r2, #-244]!	; 0xffffff0c
     c98:	36373131 			; <UNDEFINED> instruction: 0x36373131
     c9c:	2d667a6a 	vstmdbcs	r6!, {s15-s120}
     ca0:	6d2d2073 	stcvs	0, cr2, [sp, #-460]!	; 0xfffffe34
     ca4:	656e7574 	strbvs	r7, [lr, #-1396]!	; 0x574
     ca8:	6d72613d 	ldfvse	f6, [r2, #-244]!	; 0xffffff0c
     cac:	36373131 			; <UNDEFINED> instruction: 0x36373131
     cb0:	2d667a6a 	vstmdbcs	r6!, {s15-s120}
     cb4:	672d2073 			; <UNDEFINED> instruction: 0x672d2073
     cb8:	20626467 	rsbcs	r6, r2, r7, ror #8
     cbc:	20674f2d 	rsbcs	r4, r7, sp, lsr #30
     cc0:	6474732d 	ldrbtvs	r7, [r4], #-813	; 0x32d
     cc4:	756e673d 	strbvc	r6, [lr, #-1853]!	; 0x73d
     cc8:	2d203939 	stccs	9, cr3, [r0, #-228]!	; 0xffffff1c
     ccc:	65726666 	ldrbvs	r6, [r2, #-1638]!	; 0x666
     cd0:	61747365 	cmnvs	r4, r5, ror #6
     cd4:	6e69646e 	cdpvs	4, 6, cr6, cr9, cr14, {3}
     cd8:	61760067 	cmnvs	r6, r7, rrx
     cdc:	6972705f 	ldmdbvs	r2!, {r0, r1, r2, r3, r4, r6, ip, sp, lr}^
     ce0:	006b746e 	rsbeq	r7, fp, lr, ror #8
     ce4:	61765f5f 	cmnvs	r6, pc, asr pc
     ce8:	73696c5f 	cmnvc	r9, #24320	; 0x5f00
     cec:	552f0074 	strpl	r0, [pc, #-116]!	; c80 <_start-0x7380>
     cf0:	73726573 	cmnvc	r2, #482344960	; 0x1cc00000
     cf4:	6972622f 	ldmdbvs	r2!, {r0, r1, r2, r3, r5, r9, sp, lr}^
     cf8:	756a6e61 	strbvc	r6, [sl, #-3681]!	; 0xe61
     cfc:	65442f6e 	strbvs	r2, [r4, #-3950]	; 0xf6e
     d00:	6f746b73 	svcvs	0x00746b73
     d04:	63732f70 	cmnvs	r3, #112, 30	; 0x1c0
     d08:	6c6f6f68 	stclvs	15, cr6, [pc], #-416	; b70 <_start-0x7490>
     d0c:	6e69572f 	cdpvs	7, 6, cr5, cr9, cr15, {1}
     d10:	31726574 	cmncc	r2, r4, ror r5
     d14:	2f303239 	svccs	0x00303239
     d18:	34315343 	ldrtcc	r5, [r1], #-835	; 0x343
     d1c:	632f4530 	teqvs	pc, #48, 10	; 0xc000000
     d20:	30343173 	eorscc	r3, r4, r3, ror r1
     d24:	30322d65 	eorscc	r2, r2, r5, ror #26
     d28:	2f6e6977 	svccs	0x006e6977
     d2c:	7062696c 	rsbvc	r6, r2, ip, ror #18
     d30:	5f5f0069 	svcpl	0x005f0069
     d34:	75007061 	strvc	r7, [r0, #-97]	; 0x61
     d38:	5f747261 	svcpl	0x00747261
     d3c:	63747570 	cmnvs	r4, #112, 10	; 0x1c000000
     d40:	746e6900 	strbtvc	r6, [lr], #-2304	; 0x900
     d44:	616e7265 	cmnvs	lr, r5, ror #4
     d48:	75705f6c 	ldrbvc	r5, [r0, #-3948]!	; 0xf6c
     d4c:	61686374 	smcvs	34356	; 0x8634
     d50:	696c0072 	stmdbvs	ip!, {r1, r4, r5, r6}^
     d54:	702f6362 	eorvc	r6, pc, r2, ror #6
     d58:	68637475 	stmdavs	r3!, {r0, r2, r4, r5, r6, sl, ip, sp, lr}^
     d5c:	632e7261 	teqvs	lr, #268435462	; 0x10000006
     d60:	69707200 	ldmdbvs	r0!, {r9, ip, sp, lr}^
     d64:	7465735f 	strbtvc	r7, [r5], #-863	; 0x35f
     d68:	7475705f 	ldrbtvc	r7, [r5], #-95	; 0x5f
     d6c:	696c0063 	stmdbvs	ip!, {r0, r1, r5, r6}^
     d70:	702f6362 	eorvc	r6, pc, r2, ror #6
     d74:	2e6b7475 	mcrcs	4, 3, r7, cr11, cr5, {3}
     d78:	6e690063 	cdpvs	0, 6, cr0, cr9, cr3, {3}
     d7c:	6e726574 	mrcvs	5, 3, r6, cr2, cr4, {3}
     d80:	705f6c61 	subsvc	r6, pc, r1, ror #24
     d84:	006b7475 	rsbeq	r7, fp, r5, ror r4
     d88:	5f67656e 	svcpl	0x0067656e
     d8c:	65720070 	ldrbvs	r0, [r2, #-112]!	; 0x70
     d90:	73726576 	cmnvc	r2, #494927872	; 0x1d800000
     d94:	73690065 	cmnvc	r9, #101	; 0x65
     d98:	69676964 	stmdbvs	r7!, {r2, r5, r6, r8, fp, sp, lr}^
     d9c:	75700074 	ldrbvc	r0, [r0, #-116]!	; 0x74
     da0:	665f7374 			; <UNDEFINED> instruction: 0x665f7374
     da4:	69730070 	ldmdbvs	r3!, {r4, r5, r6}^
     da8:	64656e67 	strbtvs	r6, [r5], #-3687	; 0xe67
     dac:	6c00705f 	stcvs	0, cr7, [r0], {95}	; 0x5f
     db0:	2f636269 	svccs	0x00636269
     db4:	702d6176 	eorvc	r6, sp, r6, ror r1
     db8:	746e6972 	strbtvc	r6, [lr], #-2418	; 0x972
     dbc:	00632e6b 	rsbeq	r2, r3, fp, ror #28
     dc0:	5f697072 	svcpl	0x00697072
     dc4:	5f746573 	svcpl	0x00746573
     dc8:	7074756f 	rsbsvc	r7, r4, pc, ror #10
     dcc:	77007475 	smlsdxvc	r0, r5, r4, r7
     dd0:	68746469 	ldmdavs	r4!, {r0, r3, r5, r6, sl, sp, lr}^
     dd4:	74757000 	ldrbtvc	r7, [r5], #-0
     dd8:	70665f63 	rsbvc	r5, r6, r3, ror #30
     ddc:	696d6500 	stmdbvs	sp!, {r8, sl, sp, lr}^
     de0:	70720074 	rsbsvc	r0, r2, r4, ror r0
     de4:	65725f69 	ldrbvs	r5, [r2, #-3945]!	; 0xf69
     de8:	746f6f62 	strbtvc	r6, [pc], #-3938	; df0 <_start-0x7210>
     dec:	31736300 	cmncc	r3, r0, lsl #6
     df0:	2d653034 	stclcs	0, cr3, [r5, #-208]!	; 0xffffff30
     df4:	2f637273 	svccs	0x00637273
     df8:	61656c63 	cmnvs	r5, r3, ror #24
     dfc:	65722d6e 	ldrbvs	r2, [r2, #-3438]!	; 0xd6e
     e00:	746f6f62 	strbtvc	r6, [pc], #-3938	; e08 <_start-0x71f8>
     e04:	6300632e 	movwvs	r6, #814	; 0x32e
     e08:	30343173 	eorscc	r3, r4, r3, ror r1
     e0c:	72732d65 	rsbsvc	r2, r3, #6464	; 0x1940
     e10:	73632f63 	cmnvc	r3, #396	; 0x18c
     e14:	74726174 	ldrbtvc	r6, [r2], #-372	; 0x174
     e18:	5f00632e 	svcpl	0x0000632e
     e1c:	7373625f 	cmnvc	r3, #-268435451	; 0xf0000005
     e20:	6174735f 	cmnvs	r4, pc, asr r3
     e24:	5f5f7472 	svcpl	0x005f7472
     e28:	625f5f00 	subsvs	r5, pc, #0, 30
     e2c:	655f7373 	ldrbvs	r7, [pc, #-883]	; ac1 <_start-0x753f>
     e30:	5f5f646e 	svcpl	0x005f646e
     e34:	73736200 	cmnvc	r3, #0, 4
     e38:	646e655f 	strbtvs	r6, [lr], #-1375	; 0x55f
     e3c:	73635f00 	cmnvc	r3, #0, 30
     e40:	74726174 	ldrbtvc	r6, [r2], #-372	; 0x174
     e44:	5f746100 	svcpl	0x00746100
     e48:	72657375 	rsbvc	r7, r5, #-738197503	; 0xd4000001
     e4c:	76656c5f 			; <UNDEFINED> instruction: 0x76656c5f
     e50:	50006c65 	andpl	r6, r0, r5, ror #24
     e54:	41505f4d 	cmpmi	r0, sp, asr #30
     e58:	4f575353 	svcmi	0x00575353
     e5c:	63004452 	movwvs	r4, #1106	; 0x452
     e60:	30343173 	eorscc	r3, r4, r3, ror r1
     e64:	72732d65 	rsbsvc	r2, r3, #6464	; 0x1940
     e68:	65722f63 	ldrbvs	r2, [r2, #-3939]!	; 0xf63
     e6c:	746f6f62 	strbtvc	r6, [pc], #-3938	; e74 <_start-0x718c>
     e70:	5000632e 	andpl	r6, r0, lr, lsr #6
     e74:	53525f4d 	cmppl	r2, #308	; 0x134
     e78:	575f4354 			; <UNDEFINED> instruction: 0x575f4354
     e7c:	47464352 	smlsldmi	r4, r6, r2, r3
     e80:	4c55465f 	mrrcmi	6, 5, r4, r5, cr15
     e84:	45525f4c 	ldrbmi	r5, [r2, #-3916]	; 0xf4c
     e88:	00544553 	subseq	r4, r4, r3, asr r5
     e8c:	575f4d50 			; <UNDEFINED> instruction: 0x575f4d50
     e90:	00474f44 	subeq	r4, r7, r4, asr #30
     e94:	5f746573 	svcpl	0x00746573
     e98:	72657375 	rsbvc	r7, r5, #-738197503	; 0xd4000001
     e9c:	76656c5f 			; <UNDEFINED> instruction: 0x76656c5f
     ea0:	50006c65 	andpl	r6, r0, r5, ror #24
     ea4:	32335455 	eorscc	r5, r3, #1426063360	; 0x55000000
     ea8:	5f4d5000 	svcpl	0x004d5000
     eac:	43545352 	cmpmi	r4, #1207959553	; 0x48000001
     eb0:	73706300 	cmnvc	r0, #0, 6
     eb4:	69740072 	ldmdbvs	r4!, {r1, r4, r5, r6}^
     eb8:	5f72656d 	svcpl	0x0072656d
     ebc:	5f746567 	svcpl	0x00746567
     ec0:	63657375 	cmnvs	r5, #-738197503	; 0xd4000001
     ec4:	7761725f 			; <UNDEFINED> instruction: 0x7761725f
     ec8:	6c656400 	cfstrdvs	mvd6, [r5], #-0
     ecc:	735f7961 	cmpvc	pc, #1589248	; 0x184000
     ed0:	63006365 	movwvs	r6, #869	; 0x365
     ed4:	30343173 	eorscc	r3, r4, r3, ror r1
     ed8:	72732d65 	rsbsvc	r2, r3, #6464	; 0x1940
     edc:	69742f63 	ldmdbvs	r4!, {r0, r1, r5, r6, r8, r9, sl, fp, sp}^
     ee0:	2e72656d 	cdpcs	5, 7, cr6, cr2, cr13, {3}
     ee4:	45470063 	strbmi	r0, [r7, #-99]	; 0x63
     ee8:	00323354 	eorseq	r3, r2, r4, asr r3
     eec:	6b636974 	blvs	18db4c4 <__bss_end__+0x18d1154>
     ef0:	65640073 	strbvs	r0, [r4, #-115]!	; 0x73
     ef4:	5f79616c 	svcpl	0x0079616c
     ef8:	6c637963 	stclvs	9, cr7, [r3], #-396	; 0xfffffe74
     efc:	64007365 	strvs	r7, [r0], #-869	; 0x365
     f00:	79616c65 	stmdbvc	r1!, {r0, r2, r5, r6, sl, fp, sp, lr}^
     f04:	0073755f 	rsbseq	r7, r3, pc, asr r5
     f08:	656d6974 	strbvs	r6, [sp, #-2420]!	; 0x974
     f0c:	65675f72 	strbvs	r5, [r7, #-3954]!	; 0xf72
     f10:	73755f74 	cmnvc	r5, #116, 30	; 0x1d0
     f14:	67006365 	strvs	r6, [r0, -r5, ror #6]
     f18:	5f6f6970 	svcpl	0x006f6970
     f1c:	6e657665 	cdpvs	6, 6, cr7, cr5, cr5, {3}
     f20:	65645f74 	strbvs	r5, [r4, #-3956]!	; 0xf74
     f24:	74636574 	strbtvc	r6, [r3], #-1396	; 0x574
     f28:	47006465 	strmi	r6, [r0, -r5, ror #8]
     f2c:	45534650 	ldrbmi	r4, [r3, #-1616]	; 0x650
     f30:	4700324c 	strmi	r3, [r0, -ip, asr #4]
     f34:	524c4350 	subpl	r4, ip, #80, 6	; 0x40000001
     f38:	4e450030 	mcrmi	0, 2, r0, cr5, cr0, {1}
     f3c:	454c4241 	strbmi	r4, [ip, #-577]	; 0x241
     f40:	5152495f 	cmppl	r2, pc, asr r9
     f44:	00325f53 	eorseq	r5, r2, r3, asr pc
     f48:	675f7369 	ldrbvs	r7, [pc, -r9, ror #6]
     f4c:	5f6f6970 	svcpl	0x006f6970
     f50:	00746e69 	rsbseq	r6, r4, r9, ror #28
     f54:	34317363 	ldrtcc	r7, [r1], #-867	; 0x363
     f58:	732d6530 	teqvc	sp, #48, 10	; 0xc000000
     f5c:	672f6372 			; <UNDEFINED> instruction: 0x672f6372
     f60:	2e6f6970 	mcrcs	9, 3, r6, cr15, cr0, {3}
     f64:	70670063 	rsbvc	r0, r7, r3, rrx
     f68:	735f6f69 	cmpvc	pc, #420	; 0x1a4
     f6c:	6f5f7465 	svcvs	0x005f7465
     f70:	69006666 	stmdbvs	r0, {r1, r2, r5, r6, r9, sl, sp, lr}
     f74:	6d5f746e 	cfldrdvs	mvd7, [pc, #-440]	; dc4 <_start-0x723c>
     f78:	006b7361 	rsbeq	r7, fp, r1, ror #6
     f7c:	45535047 	ldrbmi	r5, [r3, #-71]	; 0x47
     f80:	47003054 	smlsdmi	r0, r4, r0, r3
     f84:	54455350 	strbpl	r5, [r5], #-848	; 0x350
     f88:	65720031 	ldrbvs	r0, [r2, #-49]!	; 0x31
     f8c:	74735f67 	ldrbtvc	r5, [r3], #-3943	; 0xf67
     f90:	47007461 	strmi	r7, [r0, -r1, ror #8]
     f94:	56454c50 			; <UNDEFINED> instruction: 0x56454c50
     f98:	50470030 	subpl	r0, r7, r0, lsr r0
     f9c:	3156454c 	cmpcc	r6, ip, asr #10
     fa0:	69706700 	ldmdbvs	r0!, {r8, r9, sl, sp, lr}^
     fa4:	65725f6f 	ldrbvs	r5, [r2, #-3951]!	; 0xf6f
     fa8:	50470067 	subpl	r0, r7, r7, rrx
     fac:	4c455346 	mcrrmi	3, 4, r5, r5, cr6
     fb0:	50470030 	subpl	r0, r7, r0, lsr r0
     fb4:	4c455346 	mcrrmi	3, 4, r5, r5, cr6
     fb8:	50470031 	subpl	r0, r7, r1, lsr r0
     fbc:	4c455346 	mcrrmi	3, 4, r5, r5, cr6
     fc0:	50470033 	subpl	r0, r7, r3, lsr r0
     fc4:	4c455346 	mcrrmi	3, 4, r5, r5, cr6
     fc8:	50470034 	subpl	r0, r7, r4, lsr r0
     fcc:	4c455346 	mcrrmi	3, 4, r5, r5, cr6
     fd0:	70670035 	rsbvc	r0, r7, r5, lsr r0
     fd4:	665f6f69 	ldrbvs	r6, [pc], -r9, ror #30
     fd8:	306c6573 	rsbcc	r6, ip, r3, ror r5
     fdc:	43504700 	cmpmi	r0, #0, 14
     fe0:	0031524c 	eorseq	r5, r1, ip, asr #4
     fe4:	6f697067 	svcvs	0x00697067
     fe8:	6165725f 	cmnvs	r5, pc, asr r2
     fec:	70670064 	rsbvc	r0, r7, r4, rrx
     ff0:	695f6f69 	ldmdbvs	pc, {r0, r3, r5, r6, r8, r9, sl, fp, sp, lr}^	; <UNPREDICTABLE>
     ff4:	725f746e 	subsvc	r7, pc, #1845493760	; 0x6e000000
     ff8:	6e697369 	cdpvs	3, 6, cr7, cr9, cr9, {3}
     ffc:	64655f67 	strbtvs	r5, [r5], #-3943	; 0xf67
    1000:	47006567 	strmi	r6, [r0, -r7, ror #10]
    1004:	4e455250 	mcrmi	2, 2, r5, cr5, cr0, {2}
    1008:	50470030 	subpl	r0, r7, r0, lsr r0
    100c:	314e4552 	cmpcc	lr, r2, asr r5
    1010:	69706700 	ldmdbvs	r0!, {r8, r9, sl, sp, lr}^
    1014:	76655f6f 	strbtvc	r5, [r5], -pc, ror #30
    1018:	5f746e65 	svcpl	0x00746e65
    101c:	61656c63 	cmnvs	r5, r3, ror #24
    1020:	52490072 	subpl	r0, r9, #114	; 0x72
    1024:	45505f51 	ldrbmi	r5, [r0, #-3921]	; 0xf51
    1028:	4e49444e 	cdpmi	4, 4, cr4, cr9, cr14, {2}
    102c:	00315f47 	eorseq	r5, r1, r7, asr #30
    1030:	5f515249 	svcpl	0x00515249
    1034:	444e4550 	strbmi	r4, [lr], #-1360	; 0x550
    1038:	5f474e49 	svcpl	0x00474e49
    103c:	69620032 	stmdbvs	r2!, {r1, r4, r5}^
    1040:	73616d74 	cmnvc	r1, #116, 26	; 0x1d00
    1044:	7067006b 	rsbvc	r0, r7, fp, rrx
    1048:	775f6f69 	ldrbvc	r6, [pc, -r9, ror #30]
    104c:	65746972 	ldrbvs	r6, [r4, #-2418]!	; 0x972
    1050:	69706700 	ldmdbvs	r0!, {r8, r9, sl, sp, lr}^
    1054:	65735f6f 	ldrbvs	r5, [r3, #-3951]!	; 0xf6f
    1058:	67003074 	smlsdxvs	r0, r4, r0, r3
    105c:	5f6f6970 	svcpl	0x006f6970
    1060:	5f746573 	svcpl	0x00746573
    1064:	75706e69 	ldrbvc	r6, [r0, #-3689]!	; 0xe69
    1068:	70670074 	rsbvc	r0, r7, r4, ror r0
    106c:	745f6f69 	ldrbvc	r6, [pc], #-3945	; 1074 <_start-0x6f8c>
    1070:	6c67676f 	stclvs	7, cr6, [r7], #-444	; 0xfffffe44
    1074:	50470065 	subpl	r0, r7, r5, rrx
    1078:	30534445 	subscc	r4, r3, r5, asr #8
    107c:	45504700 	ldrbmi	r4, [r0, #-1792]	; 0x700
    1080:	00315344 	eorseq	r5, r1, r4, asr #6
    1084:	6f697067 	svcvs	0x00697067
    1088:	7465735f 	strbtvc	r7, [r5], #-863	; 0x35f
    108c:	006e6f5f 	rsbeq	r6, lr, pc, asr pc
    1090:	45465047 	strbmi	r5, [r6, #-71]	; 0x47
    1094:	4700304e 	strmi	r3, [r0, -lr, asr #32]
    1098:	4e454650 	mcrmi	6, 2, r4, cr5, cr0, {2}
    109c:	70670031 	rsbvc	r0, r7, r1, lsr r0
    10a0:	735f6f69 	cmpvc	pc, #420	; 0x1a4
    10a4:	6f5f7465 	svcvs	0x005f7465
    10a8:	75707475 	ldrbvc	r7, [r0, #-1141]!	; 0x475
    10ac:	70670074 	rsbvc	r0, r7, r4, ror r0
    10b0:	695f6f69 	ldmdbvs	pc, {r0, r3, r5, r6, r8, r9, sl, fp, sp, lr}^	; <UNPREDICTABLE>
    10b4:	665f746e 	ldrbvs	r7, [pc], -lr, ror #8
    10b8:	696c6c61 	stmdbvs	ip!, {r0, r5, r6, sl, fp, sp, lr}^
    10bc:	655f676e 	ldrbvs	r6, [pc, #-1902]	; 956 <_start-0x76aa>
    10c0:	00656764 	rsbeq	r6, r5, r4, ror #14
    10c4:	6f697067 	svcvs	0x00697067
    10c8:	6e75665f 	mrcvs	6, 3, r6, cr5, cr15, {2}
    10cc:	00745f63 	rsbseq	r5, r4, r3, ror #30
    10d0:	5f676572 	svcpl	0x00676572
    10d4:	656c6573 	strbvs	r6, [ip, #-1395]!	; 0x573
    10d8:	67007463 	strvs	r7, [r0, -r3, ror #8]
    10dc:	5f6f6970 	svcpl	0x006f6970
    10e0:	30726c63 	rsbscc	r6, r2, r3, ror #24
    10e4:	58554100 	ldmdapl	r5, {r8, lr}^
    10e8:	5f554d5f 	svcpl	0x00554d5f
    10ec:	5f52434d 	svcpl	0x0052434d
    10f0:	00474552 	subeq	r4, r7, r2, asr r5
    10f4:	5f585541 	svcpl	0x00585541
    10f8:	495f554d 	ldmdbmi	pc, {r0, r2, r3, r6, r8, sl, ip, lr}^	; <UNPREDICTABLE>
    10fc:	45525f4f 	ldrbmi	r5, [r2, #-3919]	; 0xf4f
    1100:	55410047 	strbpl	r0, [r1, #-71]	; 0x47
    1104:	554d5f58 	strbpl	r5, [sp, #-3928]	; 0xf58
    1108:	52534d5f 	subspl	r4, r3, #6080	; 0x17c0
    110c:	4745525f 	smlsldmi	r5, r5, pc, r2	; <UNPREDICTABLE>
    1110:	72617500 	rsbvc	r7, r1, #0, 10
    1114:	61635f74 	smcvs	13812	; 0x35f4
    1118:	65675f6e 	strbvs	r5, [r7, #-3950]!	; 0xf6e
    111c:	41006374 	tstmi	r0, r4, ror r3
    1120:	4d5f5855 	ldclmi	8, cr5, [pc, #-340]	; fd4 <_start-0x702c>
    1124:	4e435f55 	mcrmi	15, 2, r5, cr3, cr5, {2}
    1128:	525f4c54 	subspl	r4, pc, #84, 24	; 0x5400
    112c:	75004745 	strvc	r4, [r0, #-1861]	; 0x745
    1130:	5f747261 	svcpl	0x00747261
    1134:	5f736168 	svcpl	0x00736168
    1138:	61746164 	cmnvs	r4, r4, ror #2
    113c:	58554100 	ldmdapl	r5, {r8, lr}^
    1140:	5f554d5f 	svcpl	0x00554d5f
    1144:	5f524549 	svcpl	0x00524549
    1148:	00474552 	subeq	r4, r7, r2, asr r5
    114c:	74726175 	ldrbtvc	r6, [r2], #-373	; 0x175
    1150:	7465675f 	strbtvc	r6, [r5], #-1887	; 0x75f
    1154:	55410063 	strbpl	r0, [r1, #-99]	; 0x63
    1158:	554d5f58 	strbpl	r5, [sp, #-3928]	; 0xf58
    115c:	5249495f 	subpl	r4, r9, #1556480	; 0x17c000
    1160:	4745525f 	smlsldmi	r5, r5, pc, r2	; <UNPREDICTABLE>
    1164:	72617500 	rsbvc	r7, r1, #0, 10
    1168:	61635f74 	smcvs	13812	; 0x35f4
    116c:	75705f6e 	ldrbvc	r5, [r0, #-3950]!	; 0xf6e
    1170:	41006374 	tstmi	r0, r4, ror r3
    1174:	455f5855 	ldrbmi	r5, [pc, #-2133]	; 927 <_start-0x76d9>
    1178:	4c42414e 	stfmie	f4, [r2], {78}	; 0x4e
    117c:	41005345 	tstmi	r0, r5, asr #6
    1180:	495f5855 	ldmdbmi	pc, {r0, r2, r4, r6, fp, ip, lr}^	; <UNPREDICTABLE>
    1184:	41005152 	tstmi	r0, r2, asr r1
    1188:	4d5f5855 	ldclmi	8, cr5, [pc, #-340]	; 103c <_start-0x6fc4>
    118c:	41425f55 	cmpmi	r2, r5, asr pc
    1190:	525f4455 	subspl	r4, pc, #1426063360	; 0x55000000
    1194:	41004745 	tstmi	r0, r5, asr #14
    1198:	4d5f5855 	ldclmi	8, cr5, [pc, #-340]	; 104c <_start-0x6fb4>
    119c:	54535f55 	ldrbpl	r5, [r3], #-3925	; 0xf55
    11a0:	525f5441 	subspl	r5, pc, #1090519040	; 0x41000000
    11a4:	41004745 	tstmi	r0, r5, asr #14
    11a8:	4d5f5855 	ldclmi	8, cr5, [pc, #-340]	; 105c <_start-0x6fa4>
    11ac:	43535f55 	cmpmi	r3, #340	; 0x154
    11b0:	43544152 	cmpmi	r4, #-2147483628	; 0x80000014
    11b4:	796d0048 	stmdbvc	sp!, {r3, r6}^
    11b8:	6372732d 	cmnvs	r2, #-1275068416	; 0xb4000000
    11bc:	7261752f 	rsbvc	r7, r1, #197132288	; 0xbc00000
    11c0:	00632e74 	rsbeq	r2, r3, r4, ror lr
    11c4:	5f585541 	svcpl	0x00585541
    11c8:	4c5f554d 	cfldr64mi	mvdx5, [pc], {77}	; 0x4d
    11cc:	525f5243 	subspl	r5, pc, #805306372	; 0x30000004
    11d0:	41004745 	tstmi	r0, r5, asr #14
    11d4:	4d5f5855 	ldclmi	8, cr5, [pc, #-340]	; 1088 <_start-0x6f78>
    11d8:	534c5f55 	movtpl	r5, #53077	; 0xcf55
    11dc:	45525f52 	ldrbmi	r5, [r2, #-3922]	; 0xf52
    11e0:	61750047 	cmnvs	r5, r7, asr #32
    11e4:	675f7472 			; <UNDEFINED> instruction: 0x675f7472
    11e8:	5f637465 	svcpl	0x00637465
    11ec:	6e797361 	cdpvs	3, 7, cr7, cr9, cr1, {3}
    11f0:	Address 0x00000000000011f0 is out of bounds.


Disassembly of section .debug_frame:

00000000 <.debug_frame>:
   0:	0000000c 	andeq	r0, r0, ip
   4:	ffffffff 			; <UNDEFINED> instruction: 0xffffffff
   8:	7c020001 	stcvc	0, cr0, [r2], {1}
   c:	000d0c0e 	andeq	r0, sp, lr, lsl #24
  10:	0000000c 	andeq	r0, r0, ip
  14:	00000000 	andeq	r0, r0, r0
  18:	00008010 	andeq	r8, r0, r0, lsl r0
  1c:	0000000c 	andeq	r0, r0, ip
  20:	0000000c 	andeq	r0, r0, ip
  24:	00000000 	andeq	r0, r0, r0
  28:	0000801c 	andeq	r8, r0, ip, lsl r0
  2c:	00000028 	andeq	r0, r0, r8, lsr #32
  30:	0000000c 	andeq	r0, r0, ip
  34:	00000000 	andeq	r0, r0, r0
  38:	00008044 	andeq	r8, r0, r4, asr #32
  3c:	00000010 	andeq	r0, r0, r0, lsl r0
  40:	00000018 	andeq	r0, r0, r8, lsl r0
  44:	00000000 	andeq	r0, r0, r0
  48:	00008054 	andeq	r8, r0, r4, asr r0
  4c:	00000068 	andeq	r0, r0, r8, rrx
  50:	83100e42 	tsthi	r0, #1056	; 0x420
  54:	85038404 	strhi	r8, [r3, #-1028]	; 0x404
  58:	00018e02 	andeq	r8, r1, r2, lsl #28
  5c:	00000018 	andeq	r0, r0, r8, lsl r0
  60:	00000000 	andeq	r0, r0, r0
  64:	000080bc 	strheq	r8, [r0], -ip
  68:	0000003c 	andeq	r0, r0, ip, lsr r0
  6c:	84080e42 	strhi	r0, [r8], #-3650	; 0xe42
  70:	42018e02 	andmi	r8, r1, #2, 28
  74:	0000180e 	andeq	r1, r0, lr, lsl #16
  78:	00000014 	andeq	r0, r0, r4, lsl r0
  7c:	00000000 	andeq	r0, r0, r0
  80:	000080f8 	strdeq	r8, [r0], -r8	; <UNPREDICTABLE>
  84:	00000024 	andeq	r0, r0, r4, lsr #32
  88:	8e040e42 	cdphi	14, 0, cr0, cr4, cr2, {2}
  8c:	100e4201 	andne	r4, lr, r1, lsl #4
  90:	0000001c 	andeq	r0, r0, ip, lsl r0
  94:	00000000 	andeq	r0, r0, r0
  98:	0000811c 	andeq	r8, r0, ip, lsl r1
  9c:	00000040 	andeq	r0, r0, r0, asr #32
  a0:	84100e42 	ldrhi	r0, [r0], #-3650	; 0xe42
  a4:	86038504 	strhi	r8, [r3], -r4, lsl #10
  a8:	42018e02 	andmi	r8, r1, #2, 28
  ac:	0000180e 	andeq	r1, r0, lr, lsl #16
  b0:	00000020 	andeq	r0, r0, r0, lsr #32
  b4:	00000000 	andeq	r0, r0, r0
  b8:	0000815c 	andeq	r8, r0, ip, asr r1
  bc:	00000068 	andeq	r0, r0, r8, rrx
  c0:	42080e42 	andmi	r0, r8, #1056	; 0x420
  c4:	0883200e 	stmeq	r3, {r1, r2, r3, sp}
  c8:	06850784 	streq	r0, [r5], r4, lsl #15
  cc:	04870586 	streq	r0, [r7], #1414	; 0x586
  d0:	0000038e 	andeq	r0, r0, lr, lsl #7
  d4:	00000014 	andeq	r0, r0, r4, lsl r0
  d8:	00000000 	andeq	r0, r0, r0
  dc:	000081c4 	andeq	r8, r0, r4, asr #3
  e0:	00000028 	andeq	r0, r0, r8, lsr #32
  e4:	83080e42 	movwhi	r0, #36418	; 0x8e42
  e8:	00018e02 	andeq	r8, r1, r2, lsl #28
  ec:	0000001c 	andeq	r0, r0, ip, lsl r0
  f0:	00000000 	andeq	r0, r0, r0
  f4:	000081ec 	andeq	r8, r0, ip, ror #3
  f8:	000000ac 	andeq	r0, r0, ip, lsr #1
  fc:	84140e42 	ldrhi	r0, [r4], #-3650	; 0xe42
 100:	86048505 	strhi	r8, [r4], -r5, lsl #10
 104:	8e028703 	cdphi	7, 0, cr8, cr2, cr3, {0}
 108:	200e4201 	andcs	r4, lr, r1, lsl #4
 10c:	00000020 	andeq	r0, r0, r0, lsr #32
 110:	00000000 	andeq	r0, r0, r0
 114:	00008298 	muleq	r0, r8, r2
 118:	0000017c 	andeq	r0, r0, ip, ror r1
 11c:	84180e42 	ldrhi	r0, [r8], #-3650	; 0xe42
 120:	86058506 	strhi	r8, [r5], -r6, lsl #10
 124:	88038704 	stmdahi	r3, {r2, r8, r9, sl, pc}
 128:	42018e02 	andmi	r8, r1, #2, 28
 12c:	0000200e 	andeq	r2, r0, lr
 130:	00000020 	andeq	r0, r0, r0, lsr #32
 134:	00000000 	andeq	r0, r0, r0
 138:	00008414 	andeq	r8, r0, r4, lsl r4
 13c:	00000120 	andeq	r0, r0, r0, lsr #2
 140:	841c0e42 	ldrhi	r0, [ip], #-3650	; 0xe42
 144:	86068507 	strhi	r8, [r6], -r7, lsl #10
 148:	88048705 	stmdahi	r4, {r0, r2, r8, r9, sl, pc}
 14c:	8e028903 	cdphi	9, 0, cr8, cr2, cr3, {0}
 150:	500e4201 	andpl	r4, lr, r1, lsl #4
 154:	00000018 	andeq	r0, r0, r8, lsl r0
 158:	00000000 	andeq	r0, r0, r0
 15c:	00008534 	andeq	r8, r0, r4, lsr r5
 160:	00000080 	andeq	r0, r0, r0, lsl #1
 164:	84080e42 	strhi	r0, [r8], #-3650	; 0xe42
 168:	42018e02 	andmi	r8, r1, #2, 28
 16c:	0000100e 	andeq	r1, r0, lr
 170:	0000000c 	andeq	r0, r0, ip
 174:	ffffffff 			; <UNDEFINED> instruction: 0xffffffff
 178:	7c020001 	stcvc	0, cr0, [r2], {1}
 17c:	000d0c0e 	andeq	r0, sp, lr, lsl #24
 180:	0000000c 	andeq	r0, r0, ip
 184:	00000170 	andeq	r0, r0, r0, ror r1
 188:	000085b4 			; <UNDEFINED> instruction: 0x000085b4
 18c:	00000014 	andeq	r0, r0, r4, lsl r0
 190:	0000000c 	andeq	r0, r0, ip
 194:	00000170 	andeq	r0, r0, r0, ror r1
 198:	000085c8 	andeq	r8, r0, r8, asr #11
 19c:	0000000c 	andeq	r0, r0, ip
 1a0:	00000014 	andeq	r0, r0, r4, lsl r0
 1a4:	00000170 	andeq	r0, r0, r0, ror r1
 1a8:	000085d4 	ldrdeq	r8, [r0], -r4
 1ac:	00000008 	andeq	r0, r0, r8
 1b0:	8e040e42 	cdphi	14, 0, cr0, cr4, cr2, {2}
 1b4:	00000001 	andeq	r0, r0, r1
 1b8:	00000014 	andeq	r0, r0, r4, lsl r0
 1bc:	00000170 	andeq	r0, r0, r0, ror r1
 1c0:	000085dc 	ldrdeq	r8, [r0], -ip
 1c4:	000000f0 	strdeq	r0, [r0], -r0	; <UNPREDICTABLE>
 1c8:	84080e42 	strhi	r0, [r8], #-3650	; 0xe42
 1cc:	00018e02 	andeq	r8, r1, r2, lsl #28
 1d0:	00000014 	andeq	r0, r0, r4, lsl r0
 1d4:	00000170 	andeq	r0, r0, r0, ror r1
 1d8:	000086cc 	andeq	r8, r0, ip, asr #13
 1dc:	00000010 	andeq	r0, r0, r0, lsl r0
 1e0:	84080e42 	strhi	r0, [r8], #-3650	; 0xe42
 1e4:	00018e02 	andeq	r8, r1, r2, lsl #28
 1e8:	00000014 	andeq	r0, r0, r4, lsl r0
 1ec:	00000170 	andeq	r0, r0, r0, ror r1
 1f0:	000086dc 	ldrdeq	r8, [r0], -ip
 1f4:	00000028 	andeq	r0, r0, r8, lsr #32
 1f8:	84080e42 	strhi	r0, [r8], #-3650	; 0xe42
 1fc:	00018e02 	andeq	r8, r1, r2, lsl #28
 200:	00000014 	andeq	r0, r0, r4, lsl r0
 204:	00000170 	andeq	r0, r0, r0, ror r1
 208:	00008704 	andeq	r8, r0, r4, lsl #14
 20c:	00000010 	andeq	r0, r0, r0, lsl r0
 210:	84080e42 	strhi	r0, [r8], #-3650	; 0xe42
 214:	00018e02 	andeq	r8, r1, r2, lsl #28
 218:	00000018 	andeq	r0, r0, r8, lsl r0
 21c:	00000170 	andeq	r0, r0, r0, ror r1
 220:	00008714 	andeq	r8, r0, r4, lsl r7
 224:	000001c8 	andeq	r0, r0, r8, asr #3
 228:	84100e42 	ldrhi	r0, [r0], #-3650	; 0xe42
 22c:	86038504 	strhi	r8, [r3], -r4, lsl #10
 230:	00018e02 	andeq	r8, r1, r2, lsl #28
 234:	00000018 	andeq	r0, r0, r8, lsl r0
 238:	00000170 	andeq	r0, r0, r0, ror r1
 23c:	000088dc 	ldrdeq	r8, [r0], -ip
 240:	000000c4 	andeq	r0, r0, r4, asr #1
 244:	84100e42 	ldrhi	r0, [r0], #-3650	; 0xe42
 248:	86038504 	strhi	r8, [r3], -r4, lsl #10
 24c:	00018e02 	andeq	r8, r1, r2, lsl #28
 250:	00000018 	andeq	r0, r0, r8, lsl r0
 254:	00000170 	andeq	r0, r0, r0, ror r1
 258:	000089a0 	andeq	r8, r0, r0, lsr #19
 25c:	000000c0 	andeq	r0, r0, r0, asr #1
 260:	84100e42 	ldrhi	r0, [r0], #-3650	; 0xe42
 264:	86038504 	strhi	r8, [r3], -r4, lsl #10
 268:	00018e02 	andeq	r8, r1, r2, lsl #28
 26c:	0000000c 	andeq	r0, r0, ip
 270:	00000170 	andeq	r0, r0, r0, ror r1
 274:	00008a60 	andeq	r8, r0, r0, ror #20
 278:	00000010 	andeq	r0, r0, r0, lsl r0
 27c:	00000014 	andeq	r0, r0, r4, lsl r0
 280:	00000170 	andeq	r0, r0, r0, ror r1
 284:	00008a70 	andeq	r8, r0, r0, ror sl
 288:	00000094 	muleq	r0, r4, r0
 28c:	84080e42 	strhi	r0, [r8], #-3650	; 0xe42
 290:	00018e02 	andeq	r8, r1, r2, lsl #28
 294:	00000014 	andeq	r0, r0, r4, lsl r0
 298:	00000170 	andeq	r0, r0, r0, ror r1
 29c:	00008b04 	andeq	r8, r0, r4, lsl #22
 2a0:	00000018 	andeq	r0, r0, r8, lsl r0
 2a4:	84080e42 	strhi	r0, [r8], #-3650	; 0xe42
 2a8:	00018e02 	andeq	r8, r1, r2, lsl #28
 2ac:	0000000c 	andeq	r0, r0, ip
 2b0:	ffffffff 			; <UNDEFINED> instruction: 0xffffffff
 2b4:	7c020001 	stcvc	0, cr0, [r2], {1}
 2b8:	000d0c0e 	andeq	r0, sp, lr, lsl #24
 2bc:	00000024 	andeq	r0, r0, r4, lsr #32
 2c0:	000002ac 	andeq	r0, r0, ip, lsr #5
 2c4:	00008b1c 	andeq	r8, r0, ip, lsl fp
 2c8:	00000058 	andeq	r0, r0, r8, asr r0
 2cc:	80100e42 	andshi	r0, r0, r2, asr #28
 2d0:	82038104 	andhi	r8, r3, #4, 2
 2d4:	42018302 	andmi	r8, r1, #134217728	; 0x8000000
 2d8:	07841c0e 	streq	r1, [r4, lr, lsl #24]
 2dc:	058e0685 	streq	r0, [lr, #1669]	; 0x685
 2e0:	00280e42 	eoreq	r0, r8, r2, asr #28
 2e4:	0000000c 	andeq	r0, r0, ip
 2e8:	ffffffff 			; <UNDEFINED> instruction: 0xffffffff
 2ec:	7c020001 	stcvc	0, cr0, [r2], {1}
 2f0:	000d0c0e 	andeq	r0, sp, lr, lsl #24
 2f4:	00000014 	andeq	r0, r0, r4, lsl r0
 2f8:	000002e4 	andeq	r0, r0, r4, ror #5
 2fc:	00008b74 	andeq	r8, r0, r4, ror fp
 300:	00000014 	andeq	r0, r0, r4, lsl r0
 304:	84080e42 	strhi	r0, [r8], #-3650	; 0xe42
 308:	00018e02 	andeq	r8, r1, r2, lsl #28
 30c:	0000000c 	andeq	r0, r0, ip
 310:	000002e4 	andeq	r0, r0, r4, ror #5
 314:	00008b88 	andeq	r8, r0, r8, lsl #23
 318:	00000018 	andeq	r0, r0, r8, lsl r0
 31c:	0000000c 	andeq	r0, r0, ip
 320:	000002e4 	andeq	r0, r0, r4, ror #5
 324:	00008ba0 	andeq	r8, r0, r0, lsr #23
 328:	00000010 	andeq	r0, r0, r0, lsl r0
 32c:	0000000c 	andeq	r0, r0, ip
 330:	ffffffff 			; <UNDEFINED> instruction: 0xffffffff
 334:	7c020001 	stcvc	0, cr0, [r2], {1}
 338:	000d0c0e 	andeq	r0, sp, lr, lsl #24
 33c:	00000018 	andeq	r0, r0, r8, lsl r0
 340:	0000032c 	andeq	r0, r0, ip, lsr #6
 344:	00008bb0 			; <UNDEFINED> instruction: 0x00008bb0
 348:	00000034 	andeq	r0, r0, r4, lsr r0
 34c:	83100e42 	tsthi	r0, #1056	; 0x420
 350:	85038404 	strhi	r8, [r3, #-1028]	; 0x404
 354:	00018e02 	andeq	r8, r1, r2, lsl #28
 358:	0000000c 	andeq	r0, r0, ip
 35c:	ffffffff 			; <UNDEFINED> instruction: 0xffffffff
 360:	7c020001 	stcvc	0, cr0, [r2], {1}
 364:	000d0c0e 	andeq	r0, sp, lr, lsl #24
 368:	0000000c 	andeq	r0, r0, ip
 36c:	00000358 	andeq	r0, r0, r8, asr r3
 370:	00008be4 	andeq	r8, r0, r4, ror #23
 374:	00000014 	andeq	r0, r0, r4, lsl r0
 378:	0000000c 	andeq	r0, r0, ip
 37c:	00000358 	andeq	r0, r0, r8, asr r3
 380:	00008bf8 	strdeq	r8, [r0], -r8	; <UNPREDICTABLE>
 384:	0000002c 	andeq	r0, r0, ip, lsr #32
 388:	0000000c 	andeq	r0, r0, ip
 38c:	00000358 	andeq	r0, r0, r8, asr r3
 390:	00008c24 	andeq	r8, r0, r4, lsr #24
 394:	00000040 	andeq	r0, r0, r0, asr #32
 398:	00000020 	andeq	r0, r0, r0, lsr #32
 39c:	00000358 	andeq	r0, r0, r8, asr r3
 3a0:	00008c64 	andeq	r8, r0, r4, ror #24
 3a4:	0000019c 	muleq	r0, ip, r1
 3a8:	84180e42 	ldrhi	r0, [r8], #-3650	; 0xe42
 3ac:	86058506 	strhi	r8, [r5], -r6, lsl #10
 3b0:	88038704 	stmdahi	r3, {r2, r8, r9, sl, pc}
 3b4:	42018e02 	andmi	r8, r1, #2, 28
 3b8:	0000580e 	andeq	r5, r0, lr, lsl #16
 3bc:	00000014 	andeq	r0, r0, r4, lsl r0
 3c0:	00000358 	andeq	r0, r0, r8, asr r3
 3c4:	00008e00 	andeq	r8, r0, r0, lsl #28
 3c8:	00000054 	andeq	r0, r0, r4, asr r0
 3cc:	83080e42 	movwhi	r0, #36418	; 0x8e42
 3d0:	00018e02 	andeq	r8, r1, r2, lsl #28
 3d4:	00000028 	andeq	r0, r0, r8, lsr #32
 3d8:	00000358 	andeq	r0, r0, r8, asr r3
 3dc:	00008e54 	andeq	r8, r0, r4, asr lr
 3e0:	00000288 	andeq	r0, r0, r8, lsl #5
 3e4:	84240e42 	strthi	r0, [r4], #-3650	; 0xe42
 3e8:	86088509 	strhi	r8, [r8], -r9, lsl #10
 3ec:	88068707 	stmdahi	r6, {r0, r1, r2, r8, r9, sl, pc}
 3f0:	8a048905 	bhi	12280c <__bss_end__+0x11849c>
 3f4:	8e028b03 	vmlahi.f64	d8, d2, d3
 3f8:	b00e4201 	andlt	r4, lr, r1, lsl #4
 3fc:	00000001 	andeq	r0, r0, r1
 400:	0000000c 	andeq	r0, r0, ip
 404:	ffffffff 			; <UNDEFINED> instruction: 0xffffffff
 408:	7c020001 	stcvc	0, cr0, [r2], {1}
 40c:	000d0c0e 	andeq	r0, sp, lr, lsl #24
 410:	00000014 	andeq	r0, r0, r4, lsl r0
 414:	00000400 	andeq	r0, r0, r0, lsl #8
 418:	000090dc 	ldrdeq	r9, [r0], -ip
 41c:	00000028 	andeq	r0, r0, r8, lsr #32
 420:	83080e42 	movwhi	r0, #36418	; 0x8e42
 424:	00018e02 	andeq	r8, r1, r2, lsl #28
 428:	0000000c 	andeq	r0, r0, ip
 42c:	ffffffff 			; <UNDEFINED> instruction: 0xffffffff
 430:	7c020001 	stcvc	0, cr0, [r2], {1}
 434:	000d0c0e 	andeq	r0, sp, lr, lsl #24
 438:	00000014 	andeq	r0, r0, r4, lsl r0
 43c:	00000428 	andeq	r0, r0, r8, lsr #8
 440:	00009104 	andeq	r9, r0, r4, lsl #2
 444:	00000034 	andeq	r0, r0, r4, lsr r0
 448:	83080e42 	movwhi	r0, #36418	; 0x8e42
 44c:	00018e02 	andeq	r8, r1, r2, lsl #28
 450:	0000000c 	andeq	r0, r0, ip
 454:	ffffffff 			; <UNDEFINED> instruction: 0xffffffff
 458:	7c020001 	stcvc	0, cr0, [r2], {1}
 45c:	000d0c0e 	andeq	r0, sp, lr, lsl #24
 460:	0000000c 	andeq	r0, r0, ip
 464:	00000450 	andeq	r0, r0, r0, asr r4
 468:	00009138 	andeq	r9, r0, r8, lsr r1
 46c:	00000018 	andeq	r0, r0, r8, lsl r0
 470:	0000000c 	andeq	r0, r0, ip
 474:	00000450 	andeq	r0, r0, r0, asr r4
 478:	00009150 	andeq	r9, r0, r0, asr r1
 47c:	00000014 	andeq	r0, r0, r4, lsl r0
 480:	00000014 	andeq	r0, r0, r4, lsl r0
 484:	00000450 	andeq	r0, r0, r0, asr r4
 488:	00009164 	andeq	r9, r0, r4, ror #2
 48c:	00000048 	andeq	r0, r0, r8, asr #32
 490:	83080e42 	movwhi	r0, #36418	; 0x8e42
 494:	00018e02 	andeq	r8, r1, r2, lsl #28
 498:	0000000c 	andeq	r0, r0, ip
 49c:	ffffffff 			; <UNDEFINED> instruction: 0xffffffff
 4a0:	7c020001 	stcvc	0, cr0, [r2], {1}
 4a4:	000d0c0e 	andeq	r0, sp, lr, lsl #24
 4a8:	0000000c 	andeq	r0, r0, ip
 4ac:	00000498 	muleq	r0, r8, r4
 4b0:	000091ac 	andeq	r9, r0, ip, lsr #3
 4b4:	0000001c 	andeq	r0, r0, ip, lsl r0
 4b8:	00000014 	andeq	r0, r0, r4, lsl r0
 4bc:	00000498 	muleq	r0, r8, r4
 4c0:	000091c8 	andeq	r9, r0, r8, asr #3
 4c4:	00000014 	andeq	r0, r0, r4, lsl r0
 4c8:	83080e42 	movwhi	r0, #36418	; 0x8e42
 4cc:	00018e02 	andeq	r8, r1, r2, lsl #28
 4d0:	00000014 	andeq	r0, r0, r4, lsl r0
 4d4:	00000498 	muleq	r0, r8, r4
 4d8:	000091dc 	ldrdeq	r9, [r0], -ip
 4dc:	0000000c 	andeq	r0, r0, ip
 4e0:	83080e42 	movwhi	r0, #36418	; 0x8e42
 4e4:	00018e02 	andeq	r8, r1, r2, lsl #28
 4e8:	00000018 	andeq	r0, r0, r8, lsl r0
 4ec:	00000498 	muleq	r0, r8, r4
 4f0:	000091e8 	andeq	r9, r0, r8, ror #3
 4f4:	00000024 	andeq	r0, r0, r4, lsr #32
 4f8:	83100e42 	tsthi	r0, #1056	; 0x420
 4fc:	85038404 	strhi	r8, [r3, #-1028]	; 0x404
 500:	00018e02 	andeq	r8, r1, r2, lsl #28
 504:	00000014 	andeq	r0, r0, r4, lsl r0
 508:	00000498 	muleq	r0, r8, r4
 50c:	0000920c 	andeq	r9, r0, ip, lsl #4
 510:	00000014 	andeq	r0, r0, r4, lsl r0
 514:	83080e42 	movwhi	r0, #36418	; 0x8e42
 518:	00018e02 	andeq	r8, r1, r2, lsl #28
 51c:	00000014 	andeq	r0, r0, r4, lsl r0
 520:	00000498 	muleq	r0, r8, r4
 524:	00009220 	andeq	r9, r0, r0, lsr #4
 528:	00000014 	andeq	r0, r0, r4, lsl r0
 52c:	83080e42 	movwhi	r0, #36418	; 0x8e42
 530:	00018e02 	andeq	r8, r1, r2, lsl #28
 534:	0000000c 	andeq	r0, r0, ip
 538:	ffffffff 			; <UNDEFINED> instruction: 0xffffffff
 53c:	7c020001 	stcvc	0, cr0, [r2], {1}
 540:	000d0c0e 	andeq	r0, sp, lr, lsl #24
 544:	00000018 	andeq	r0, r0, r8, lsl r0
 548:	00000534 	andeq	r0, r0, r4, lsr r5
 54c:	00009234 	andeq	r9, r0, r4, lsr r2
 550:	000000d4 	ldrdeq	r0, [r0], -r4
 554:	83100e42 	tsthi	r0, #1056	; 0x420
 558:	85038404 	strhi	r8, [r3, #-1028]	; 0x404
 55c:	00018e02 	andeq	r8, r1, r2, lsl #28
 560:	00000014 	andeq	r0, r0, r4, lsl r0
 564:	00000534 	andeq	r0, r0, r4, lsr r5
 568:	00009308 	andeq	r9, r0, r8, lsl #6
 56c:	00000038 	andeq	r0, r0, r8, lsr r0
 570:	83080e42 	movwhi	r0, #36418	; 0x8e42
 574:	00018e02 	andeq	r8, r1, r2, lsl #28
 578:	00000014 	andeq	r0, r0, r4, lsl r0
 57c:	00000534 	andeq	r0, r0, r4, lsr r5
 580:	00009340 	andeq	r9, r0, r0, asr #6
 584:	00000038 	andeq	r0, r0, r8, lsr r0
 588:	83080e42 	movwhi	r0, #36418	; 0x8e42
 58c:	00018e02 	andeq	r8, r1, r2, lsl #28
 590:	00000018 	andeq	r0, r0, r8, lsl r0
 594:	00000534 	andeq	r0, r0, r4, lsr r5
 598:	00009378 	andeq	r9, r0, r8, ror r3
 59c:	000000cc 	andeq	r0, r0, ip, asr #1
 5a0:	83100e42 	tsthi	r0, #1056	; 0x420
 5a4:	85038404 	strhi	r8, [r3, #-1028]	; 0x404
 5a8:	00018e02 	andeq	r8, r1, r2, lsl #28
 5ac:	00000014 	andeq	r0, r0, r4, lsl r0
 5b0:	00000534 	andeq	r0, r0, r4, lsr r5
 5b4:	00009444 	andeq	r9, r0, r4, asr #8
 5b8:	0000004c 	andeq	r0, r0, ip, asr #32
 5bc:	84080e42 	strhi	r0, [r8], #-3650	; 0xe42
 5c0:	00018e02 	andeq	r8, r1, r2, lsl #28
 5c4:	00000014 	andeq	r0, r0, r4, lsl r0
 5c8:	00000534 	andeq	r0, r0, r4, lsr r5
 5cc:	00009490 	muleq	r0, r0, r4
 5d0:	00000024 	andeq	r0, r0, r4, lsr #32
 5d4:	83080e42 	movwhi	r0, #36418	; 0x8e42
 5d8:	00018e02 	andeq	r8, r1, r2, lsl #28
 5dc:	00000018 	andeq	r0, r0, r8, lsl r0
 5e0:	00000534 	andeq	r0, r0, r4, lsr r5
 5e4:	000094b4 			; <UNDEFINED> instruction: 0x000094b4
 5e8:	000000d8 	ldrdeq	r0, [r0], -r8
 5ec:	84100e42 	ldrhi	r0, [r0], #-3650	; 0xe42
 5f0:	86038504 	strhi	r8, [r3], -r4, lsl #10
 5f4:	00018e02 	andeq	r8, r1, r2, lsl #28
 5f8:	00000014 	andeq	r0, r0, r4, lsl r0
 5fc:	00000534 	andeq	r0, r0, r4, lsr r5
 600:	0000958c 	andeq	r9, r0, ip, lsl #11
 604:	00000038 	andeq	r0, r0, r8, lsr r0
 608:	83080e42 	movwhi	r0, #36418	; 0x8e42
 60c:	00018e02 	andeq	r8, r1, r2, lsl #28
 610:	00000014 	andeq	r0, r0, r4, lsl r0
 614:	00000534 	andeq	r0, r0, r4, lsr r5
 618:	000095c4 	andeq	r9, r0, r4, asr #11
 61c:	0000002c 	andeq	r0, r0, ip, lsr #32
 620:	83080e42 	movwhi	r0, #36418	; 0x8e42
 624:	00018e02 	andeq	r8, r1, r2, lsl #28
 628:	00000018 	andeq	r0, r0, r8, lsl r0
 62c:	00000534 	andeq	r0, r0, r4, lsr r5
 630:	000095f0 	strdeq	r9, [r0], -r0
 634:	00000084 	andeq	r0, r0, r4, lsl #1
 638:	83100e42 	tsthi	r0, #1056	; 0x420
 63c:	85038404 	strhi	r8, [r3, #-1028]	; 0x404
 640:	00018e02 	andeq	r8, r1, r2, lsl #28
 644:	00000018 	andeq	r0, r0, r8, lsl r0
 648:	00000534 	andeq	r0, r0, r4, lsr r5
 64c:	00009674 	andeq	r9, r0, r4, ror r6
 650:	00000084 	andeq	r0, r0, r4, lsl #1
 654:	83100e42 	tsthi	r0, #1056	; 0x420
 658:	85038404 	strhi	r8, [r3, #-1028]	; 0x404
 65c:	00018e02 	andeq	r8, r1, r2, lsl #28
 660:	00000014 	andeq	r0, r0, r4, lsl r0
 664:	00000534 	andeq	r0, r0, r4, lsr r5
 668:	000096f8 	strdeq	r9, [r0], -r8
 66c:	00000084 	andeq	r0, r0, r4, lsl #1
 670:	84080e42 	strhi	r0, [r8], #-3650	; 0xe42
 674:	00018e02 	andeq	r8, r1, r2, lsl #28
 678:	00000014 	andeq	r0, r0, r4, lsl r0
 67c:	00000534 	andeq	r0, r0, r4, lsr r5
 680:	0000977c 	andeq	r9, r0, ip, ror r7
 684:	00000058 	andeq	r0, r0, r8, asr r0
 688:	84080e42 	strhi	r0, [r8], #-3650	; 0xe42
 68c:	00018e02 	andeq	r8, r1, r2, lsl #28
 690:	0000000c 	andeq	r0, r0, ip
 694:	ffffffff 			; <UNDEFINED> instruction: 0xffffffff
 698:	7c020001 	stcvc	0, cr0, [r2], {1}
 69c:	000d0c0e 	andeq	r0, sp, lr, lsl #24
 6a0:	00000018 	andeq	r0, r0, r8, lsl r0
 6a4:	00000690 	muleq	r0, r0, r6
 6a8:	000097d4 	ldrdeq	r9, [r0], -r4
 6ac:	0000009c 	muleq	r0, ip, r0
 6b0:	83100e42 	tsthi	r0, #1056	; 0x420
 6b4:	85038404 	strhi	r8, [r3, #-1028]	; 0x404
 6b8:	00018e02 	andeq	r8, r1, r2, lsl #28
 6bc:	00000014 	andeq	r0, r0, r4, lsl r0
 6c0:	00000690 	muleq	r0, r0, r6
 6c4:	00009870 	andeq	r9, r0, r0, ror r8
 6c8:	0000001c 	andeq	r0, r0, ip, lsl r0
 6cc:	83080e42 	movwhi	r0, #36418	; 0x8e42
 6d0:	00018e02 	andeq	r8, r1, r2, lsl #28
 6d4:	00000014 	andeq	r0, r0, r4, lsl r0
 6d8:	00000690 	muleq	r0, r0, r6
 6dc:	0000988c 	andeq	r9, r0, ip, lsl #17
 6e0:	00000028 	andeq	r0, r0, r8, lsr #32
 6e4:	83080e42 	movwhi	r0, #36418	; 0x8e42
 6e8:	00018e02 	andeq	r8, r1, r2, lsl #28
 6ec:	00000014 	andeq	r0, r0, r4, lsl r0
 6f0:	00000690 	muleq	r0, r0, r6
 6f4:	000098b4 			; <UNDEFINED> instruction: 0x000098b4
 6f8:	0000001c 	andeq	r0, r0, ip, lsl r0
 6fc:	83080e42 	movwhi	r0, #36418	; 0x8e42
 700:	00018e02 	andeq	r8, r1, r2, lsl #28
 704:	00000014 	andeq	r0, r0, r4, lsl r0
 708:	00000690 	muleq	r0, r0, r6
 70c:	000098d0 	ldrdeq	r9, [r0], -r0
 710:	0000002c 	andeq	r0, r0, ip, lsr #32
 714:	84080e42 	strhi	r0, [r8], #-3650	; 0xe42
 718:	00018e02 	andeq	r8, r1, r2, lsl #28
 71c:	00000014 	andeq	r0, r0, r4, lsl r0
 720:	00000690 	muleq	r0, r0, r6
 724:	000098fc 	strdeq	r9, [r0], -ip
 728:	0000000c 	andeq	r0, r0, ip
 72c:	83080e42 	movwhi	r0, #36418	; 0x8e42
 730:	00018e02 	andeq	r8, r1, r2, lsl #28
 734:	00000014 	andeq	r0, r0, r4, lsl r0
 738:	00000690 	muleq	r0, r0, r6
 73c:	00009908 	andeq	r9, r0, r8, lsl #18
 740:	00000020 	andeq	r0, r0, r0, lsr #32
 744:	83080e42 	movwhi	r0, #36418	; 0x8e42
 748:	00018e02 	andeq	r8, r1, r2, lsl #28
