
accel.elf:     file format elf32-littlearm


Disassembly of section .text:

00008000 <_start>:
    8000:	e3a0d302 	mov	sp, #134217728	; 0x8000000
    8004:	e3a0b000 	mov	fp, #0
    8008:	eb0003b7 	bl	8eec <_cstart>
    800c:	eb0003ce 	bl	8f4c <rpi_reboot>

00008010 <mg_scaled>:
    8010:	e92d4008 	push	{r3, lr}
    8014:	eb000255 	bl	8970 <rpi_reset_putc>
    8018:	e59f0010 	ldr	r0, [pc, #16]	; 8030 <mg_scaled+0x20>
    801c:	e59f1010 	ldr	r1, [pc, #16]	; 8034 <mg_scaled+0x24>
    8020:	e59f2010 	ldr	r2, [pc, #16]	; 8038 <mg_scaled+0x28>
    8024:	e3a0303f 	mov	r3, #63	; 0x3f
    8028:	eb000235 	bl	8904 <printk>
    802c:	eb0003a4 	bl	8ec4 <clean_reboot>
    8030:	00009854 	andeq	r9, r0, r4, asr r8
    8034:	00009880 	andeq	r9, r0, r0, lsl #17
    8038:	00009810 	andeq	r9, r0, r0, lsl r8

0000803c <mg_raw>:
    803c:	e92d4008 	push	{r3, lr}
    8040:	eb00024a 	bl	8970 <rpi_reset_putc>
    8044:	e59f0010 	ldr	r0, [pc, #16]	; 805c <mg_raw+0x20>
    8048:	e59f1010 	ldr	r1, [pc, #16]	; 8060 <mg_raw+0x24>
    804c:	e59f2010 	ldr	r2, [pc, #16]	; 8064 <mg_raw+0x28>
    8050:	e3a0303b 	mov	r3, #59	; 0x3b
    8054:	eb00022a 	bl	8904 <printk>
    8058:	eb000399 	bl	8ec4 <clean_reboot>
    805c:	00009854 	andeq	r9, r0, r4, asr r8
    8060:	00009880 	andeq	r9, r0, r0, lsl #17
    8064:	0000981c 	andeq	r9, r0, ip, lsl r8

00008068 <test_mg>:
    8068:	e92d4008 	push	{r3, lr}
    806c:	e1a00001 	mov	r0, r1
    8070:	e1a01002 	mov	r1, r2
    8074:	ebfffff0 	bl	803c <mg_raw>

00008078 <imu_rd>:
    8078:	e92d4010 	push	{r4, lr}
    807c:	e24dd010 	sub	sp, sp, #16
    8080:	e1a04000 	mov	r4, r0
    8084:	e28d3010 	add	r3, sp, #16
    8088:	e5631009 	strb	r1, [r3, #-9]!
    808c:	e1a01003 	mov	r1, r3
    8090:	e3a02001 	mov	r2, #1
    8094:	eb00018a 	bl	86c4 <i2c_write>
    8098:	e1a00004 	mov	r0, r4
    809c:	e28d100f 	add	r1, sp, #15
    80a0:	e3a02001 	mov	r2, #1
    80a4:	eb0001b7 	bl	8788 <i2c_read>
    80a8:	e5dd000f 	ldrb	r0, [sp, #15]
    80ac:	e28dd010 	add	sp, sp, #16
    80b0:	e8bd8010 	pop	{r4, pc}

000080b4 <imu_wr>:
    80b4:	e52de004 	push	{lr}		; (str lr, [sp, #-4]!)
    80b8:	e24dd00c 	sub	sp, sp, #12
    80bc:	e5cd1004 	strb	r1, [sp, #4]
    80c0:	e5cd2005 	strb	r2, [sp, #5]
    80c4:	e28d1004 	add	r1, sp, #4
    80c8:	e3a02002 	mov	r2, #2
    80cc:	eb00017c 	bl	86c4 <i2c_write>
    80d0:	e28dd00c 	add	sp, sp, #12
    80d4:	e49df004 	pop	{pc}		; (ldr pc, [sp], #4)

000080d8 <imu_rd_n>:
    80d8:	e92d4070 	push	{r4, r5, r6, lr}
    80dc:	e24dd008 	sub	sp, sp, #8
    80e0:	e1a06000 	mov	r6, r0
    80e4:	e1a05002 	mov	r5, r2
    80e8:	e1a04003 	mov	r4, r3
    80ec:	e28dc008 	add	ip, sp, #8
    80f0:	e56c1001 	strb	r1, [ip, #-1]!
    80f4:	e1a0100c 	mov	r1, ip
    80f8:	e3a02001 	mov	r2, #1
    80fc:	eb000170 	bl	86c4 <i2c_write>
    8100:	e1a00006 	mov	r0, r6
    8104:	e1a01005 	mov	r1, r5
    8108:	e1a02004 	mov	r2, r4
    810c:	eb00019d 	bl	8788 <i2c_read>
    8110:	e28dd008 	add	sp, sp, #8
    8114:	e8bd8070 	pop	{r4, r5, r6, pc}

00008118 <accel_scale>:
    8118:	e24dd008 	sub	sp, sp, #8
    811c:	e92d4008 	push	{r3, lr}
    8120:	e28d0004 	add	r0, sp, #4
    8124:	e980000c 	stmib	r0, {r2, r3}
    8128:	e5910008 	ldr	r0, [r1, #8]
    812c:	e59d1008 	ldr	r1, [sp, #8]
    8130:	ebffffb6 	bl	8010 <mg_scaled>

00008134 <accel_has_data>:
    8134:	e92d4008 	push	{r3, lr}
    8138:	eb00020c 	bl	8970 <rpi_reset_putc>
    813c:	e59f0010 	ldr	r0, [pc, #16]	; 8154 <accel_has_data+0x20>
    8140:	e59f1010 	ldr	r1, [pc, #16]	; 8158 <accel_has_data+0x24>
    8144:	e59f2010 	ldr	r2, [pc, #16]	; 815c <accel_has_data+0x28>
    8148:	e3a03056 	mov	r3, #86	; 0x56
    814c:	eb0001ec 	bl	8904 <printk>
    8150:	eb00035b 	bl	8ec4 <clean_reboot>
    8154:	00009854 	andeq	r9, r0, r4, asr r8
    8158:	00009880 	andeq	r9, r0, r0, lsl #17
    815c:	00009824 	andeq	r9, r0, r4, lsr #16

00008160 <accel_rd>:
    8160:	e92d4008 	push	{r3, lr}
    8164:	eb000201 	bl	8970 <rpi_reset_putc>
    8168:	e59f0010 	ldr	r0, [pc, #16]	; 8180 <accel_rd+0x20>
    816c:	e59f1010 	ldr	r1, [pc, #16]	; 8184 <accel_rd+0x24>
    8170:	e59f2010 	ldr	r2, [pc, #16]	; 8188 <accel_rd+0x28>
    8174:	e3a03067 	mov	r3, #103	; 0x67
    8178:	eb0001e1 	bl	8904 <printk>
    817c:	eb000350 	bl	8ec4 <clean_reboot>
    8180:	00009854 	andeq	r9, r0, r4, asr r8
    8184:	00009880 	andeq	r9, r0, r0, lsl #17
    8188:	00009834 	andeq	r9, r0, r4, lsr r8

0000818c <accel_init>:
    818c:	e92d40f0 	push	{r4, r5, r6, r7, lr}
    8190:	e24dd00c 	sub	sp, sp, #12
    8194:	e1a05000 	mov	r5, r0
    8198:	e1a07001 	mov	r7, r1
    819c:	e1a04002 	mov	r4, r2
    81a0:	e1a06003 	mov	r6, r3
    81a4:	eb000559 	bl	9710 <dev_barrier>
    81a8:	e2463008 	sub	r3, r6, #8
    81ac:	e3530002 	cmp	r3, #2
    81b0:	8a000007 	bhi	81d4 <accel_init+0x48>
    81b4:	eb0001ed 	bl	8970 <rpi_reset_putc>
    81b8:	e58d6000 	str	r6, [sp]
    81bc:	e59f0108 	ldr	r0, [pc, #264]	; 82cc <accel_init+0x140>
    81c0:	e59f1108 	ldr	r1, [pc, #264]	; 82d0 <accel_init+0x144>
    81c4:	e59f2108 	ldr	r2, [pc, #264]	; 82d4 <accel_init+0x148>
    81c8:	e3a03079 	mov	r3, #121	; 0x79
    81cc:	eb0001cc 	bl	8904 <printk>
    81d0:	eb00033b 	bl	8ec4 <clean_reboot>
    81d4:	e59f30fc 	ldr	r3, [pc, #252]	; 82d8 <accel_init+0x14c>
    81d8:	e1540003 	cmp	r4, r3
    81dc:	13540802 	cmpne	r4, #131072	; 0x20000
    81e0:	0a000006 	beq	8200 <accel_init+0x74>
    81e4:	e59f30f0 	ldr	r3, [pc, #240]	; 82dc <accel_init+0x150>
    81e8:	e59f20f0 	ldr	r2, [pc, #240]	; 82e0 <accel_init+0x154>
    81ec:	e1540003 	cmp	r4, r3
    81f0:	11540002 	cmpne	r4, r2
    81f4:	1a000003 	bne	8208 <accel_init+0x7c>
    81f8:	e3a03001 	mov	r3, #1
    81fc:	ea000002 	b	820c <accel_init+0x80>
    8200:	e3a03001 	mov	r3, #1
    8204:	ea000000 	b	820c <accel_init+0x80>
    8208:	e3a03000 	mov	r3, #0
    820c:	e3530000 	cmp	r3, #0
    8210:	1a000007 	bne	8234 <accel_init+0xa8>
    8214:	eb0001d5 	bl	8970 <rpi_reset_putc>
    8218:	e58d4000 	str	r4, [sp]
    821c:	e59f00c0 	ldr	r0, [pc, #192]	; 82e4 <accel_init+0x158>
    8220:	e59f10a8 	ldr	r1, [pc, #168]	; 82d0 <accel_init+0x144>
    8224:	e59f20a8 	ldr	r2, [pc, #168]	; 82d4 <accel_init+0x148>
    8228:	e3a0307e 	mov	r3, #126	; 0x7e
    822c:	eb0001b4 	bl	8904 <printk>
    8230:	eb000323 	bl	8ec4 <clean_reboot>
    8234:	e356000a 	cmp	r6, #10
    8238:	9a000007 	bls	825c <accel_init+0xd0>
    823c:	eb0001cb 	bl	8970 <rpi_reset_putc>
    8240:	e58d6000 	str	r6, [sp]
    8244:	e59f009c 	ldr	r0, [pc, #156]	; 82e8 <accel_init+0x15c>
    8248:	e59f1080 	ldr	r1, [pc, #128]	; 82d0 <accel_init+0x144>
    824c:	e59f2080 	ldr	r2, [pc, #128]	; 82d4 <accel_init+0x148>
    8250:	e3a03080 	mov	r3, #128	; 0x80
    8254:	eb0001aa 	bl	8904 <printk>
    8258:	eb000319 	bl	8ec4 <clean_reboot>
    825c:	e6ef3074 	uxtb	r3, r4
    8260:	e3530003 	cmp	r3, #3
    8264:	9a000006 	bls	8284 <accel_init+0xf8>
    8268:	eb0001c0 	bl	8970 <rpi_reset_putc>
    826c:	e59f0078 	ldr	r0, [pc, #120]	; 82ec <accel_init+0x160>
    8270:	e59f1058 	ldr	r1, [pc, #88]	; 82d0 <accel_init+0x144>
    8274:	e59f2058 	ldr	r2, [pc, #88]	; 82d4 <accel_init+0x148>
    8278:	e3a03085 	mov	r3, #133	; 0x85
    827c:	eb0001a0 	bl	8904 <printk>
    8280:	eb00030f 	bl	8ec4 <clean_reboot>
    8284:	e3a00018 	mov	r0, #24
    8288:	e3a01038 	mov	r1, #56	; 0x38
    828c:	eb00052f 	bl	9750 <PUT8>
    8290:	e3a00012 	mov	r0, #18
    8294:	e3a01044 	mov	r1, #68	; 0x44
    8298:	eb00052c 	bl	9750 <PUT8>
    829c:	e3a00010 	mov	r0, #16
    82a0:	e3a01060 	mov	r1, #96	; 0x60
    82a4:	eb000529 	bl	9750 <PUT8>
    82a8:	e5c57000 	strb	r7, [r5]
    82ac:	e5856004 	str	r6, [r5, #4]
    82b0:	e5854008 	str	r4, [r5, #8]
    82b4:	e3a0000a 	mov	r0, #10
    82b8:	eb00034d 	bl	8ff4 <delay_ms>
    82bc:	eb000513 	bl	9710 <dev_barrier>
    82c0:	e1a00005 	mov	r0, r5
    82c4:	e28dd00c 	add	sp, sp, #12
    82c8:	e8bd80f0 	pop	{r4, r5, r6, r7, pc}
    82cc:	00009888 	andeq	r9, r0, r8, lsl #17
    82d0:	00009880 	andeq	r9, r0, r0, lsl #17
    82d4:	00009840 	andeq	r9, r0, r0, asr #16
    82d8:	00040002 	andeq	r0, r4, r2
    82dc:	00100001 	andseq	r0, r0, r1
    82e0:	00080003 	andeq	r0, r8, r3
    82e4:	000098cc 	andeq	r9, r0, ip, asr #17
    82e8:	000098f4 	strdeq	r9, [r0], -r4
    82ec:	00009914 	andeq	r9, r0, r4, lsl r9

000082f0 <do_accel_test>:
    82f0:	e52de004 	push	{lr}		; (str lr, [sp, #-4]!)
    82f4:	e24dd014 	sub	sp, sp, #20
    82f8:	e28d0004 	add	r0, sp, #4
    82fc:	e3a0106b 	mov	r1, #107	; 0x6b
    8300:	e3a02802 	mov	r2, #131072	; 0x20000
    8304:	e3a03006 	mov	r3, #6
    8308:	ebffff9f 	bl	818c <accel_init>
    830c:	e3a00000 	mov	r0, #0
    8310:	e1a01000 	mov	r1, r0
    8314:	e1a02000 	mov	r2, r0
    8318:	e3a03002 	mov	r3, #2
    831c:	ebffff51 	bl	8068 <test_mg>

00008320 <notmain>:
    8320:	e92d4010 	push	{r4, lr}
    8324:	e24dd008 	sub	sp, sp, #8
    8328:	eb0004a3 	bl	95bc <uart_init>
    832c:	e3a00064 	mov	r0, #100	; 0x64
    8330:	eb00032f 	bl	8ff4 <delay_ms>
    8334:	eb000147 	bl	8858 <i2c_init>
    8338:	e3a00064 	mov	r0, #100	; 0x64
    833c:	eb00032c 	bl	8ff4 <delay_ms>
    8340:	e3a0006b 	mov	r0, #107	; 0x6b
    8344:	e3a0100f 	mov	r1, #15
    8348:	ebffff4a 	bl	8078 <imu_rd>
    834c:	e1a04000 	mov	r4, r0
    8350:	e3500069 	cmp	r0, #105	; 0x69
    8354:	0a000009 	beq	8380 <notmain+0x60>
    8358:	eb000184 	bl	8970 <rpi_reset_putc>
    835c:	e3a03069 	mov	r3, #105	; 0x69
    8360:	e58d3000 	str	r3, [sp]
    8364:	e58d4004 	str	r4, [sp, #4]
    8368:	e59f001c 	ldr	r0, [pc, #28]	; 838c <notmain+0x6c>
    836c:	e59f101c 	ldr	r1, [pc, #28]	; 8390 <notmain+0x70>
    8370:	e59f201c 	ldr	r2, [pc, #28]	; 8394 <notmain+0x74>
    8374:	e3a030c6 	mov	r3, #198	; 0xc6
    8378:	eb000161 	bl	8904 <printk>
    837c:	eb0002d0 	bl	8ec4 <clean_reboot>
    8380:	e59f0010 	ldr	r0, [pc, #16]	; 8398 <notmain+0x78>
    8384:	eb00015e 	bl	8904 <printk>
    8388:	ebffffd8 	bl	82f0 <do_accel_test>
    838c:	0000993c 	andeq	r9, r0, ip, lsr r9
    8390:	00009880 	andeq	r9, r0, r0, lsl #17
    8394:	0000984c 	andeq	r9, r0, ip, asr #16
    8398:	00009978 	andeq	r9, r0, r8, ror r9

0000839c <clear_c>:
    839c:	e3c0000e 	bic	r0, r0, #14
    83a0:	e3c00040 	bic	r0, r0, #64	; 0x40
    83a4:	e3c00b1e 	bic	r0, r0, #30720	; 0x7800
    83a8:	e6ff0070 	uxth	r0, r0
    83ac:	e12fff1e 	bx	lr

000083b0 <clear_s>:
    83b0:	e1a00b00 	lsl	r0, r0, #22
    83b4:	e1a00b20 	lsr	r0, r0, #22
    83b8:	e12fff1e 	bx	lr

000083bc <check_layout>:
    83bc:	e52de004 	push	{lr}		; (str lr, [sp, #-4]!)
    83c0:	e49df004 	pop	{pc}		; (ldr pc, [sp], #4)

000083c4 <xfer_end>:
    83c4:	e92d4010 	push	{r4, lr}
    83c8:	e59f30c0 	ldr	r3, [pc, #192]	; 8490 <xfer_end+0xcc>
    83cc:	e5933004 	ldr	r3, [r3, #4]
    83d0:	e3130002 	tst	r3, #2
    83d4:	1a000015 	bne	8430 <xfer_end+0x6c>
    83d8:	e59f30b0 	ldr	r3, [pc, #176]	; 8490 <xfer_end+0xcc>
    83dc:	e5933004 	ldr	r3, [r3, #4]
    83e0:	e3130c01 	tst	r3, #256	; 0x100
    83e4:	1a00000a 	bne	8414 <xfer_end+0x50>
    83e8:	e59f30a0 	ldr	r3, [pc, #160]	; 8490 <xfer_end+0xcc>
    83ec:	e5933004 	ldr	r3, [r3, #4]
    83f0:	e3130c02 	tst	r3, #512	; 0x200
    83f4:	0afffff3 	beq	83c8 <xfer_end+0x4>
    83f8:	eb00015c 	bl	8970 <rpi_reset_putc>
    83fc:	e59f3090 	ldr	r3, [pc, #144]	; 8494 <xfer_end+0xd0>
    8400:	e59f2090 	ldr	r2, [pc, #144]	; 8498 <xfer_end+0xd4>
    8404:	e59f1090 	ldr	r1, [pc, #144]	; 849c <xfer_end+0xd8>
    8408:	e59f0090 	ldr	r0, [pc, #144]	; 84a0 <xfer_end+0xdc>
    840c:	eb00013c 	bl	8904 <printk>
    8410:	eb0002ab 	bl	8ec4 <clean_reboot>
    8414:	eb000155 	bl	8970 <rpi_reset_putc>
    8418:	e59f3074 	ldr	r3, [pc, #116]	; 8494 <xfer_end+0xd0>
    841c:	e59f2074 	ldr	r2, [pc, #116]	; 8498 <xfer_end+0xd4>
    8420:	e59f1074 	ldr	r1, [pc, #116]	; 849c <xfer_end+0xd8>
    8424:	e59f0078 	ldr	r0, [pc, #120]	; 84a4 <xfer_end+0xe0>
    8428:	eb000135 	bl	8904 <printk>
    842c:	eb0002a4 	bl	8ec4 <clean_reboot>
    8430:	e59f3058 	ldr	r3, [pc, #88]	; 8490 <xfer_end+0xcc>
    8434:	e5933004 	ldr	r3, [r3, #4]
    8438:	e3130001 	tst	r3, #1
    843c:	1a000005 	bne	8458 <xfer_end+0x94>
    8440:	e59f3048 	ldr	r3, [pc, #72]	; 8490 <xfer_end+0xcc>
    8444:	e5933004 	ldr	r3, [r3, #4]
    8448:	e3130c01 	tst	r3, #256	; 0x100
    844c:	1a000008 	bne	8474 <xfer_end+0xb0>
    8450:	eb0004ae 	bl	9710 <dev_barrier>
    8454:	e8bd8010 	pop	{r4, pc}
    8458:	eb000144 	bl	8970 <rpi_reset_putc>
    845c:	e59f3044 	ldr	r3, [pc, #68]	; 84a8 <xfer_end+0xe4>
    8460:	e59f2030 	ldr	r2, [pc, #48]	; 8498 <xfer_end+0xd4>
    8464:	e59f1030 	ldr	r1, [pc, #48]	; 849c <xfer_end+0xd8>
    8468:	e59f003c 	ldr	r0, [pc, #60]	; 84ac <xfer_end+0xe8>
    846c:	eb000124 	bl	8904 <printk>
    8470:	eb000293 	bl	8ec4 <clean_reboot>
    8474:	eb00013d 	bl	8970 <rpi_reset_putc>
    8478:	e3a03f46 	mov	r3, #280	; 0x118
    847c:	e59f2014 	ldr	r2, [pc, #20]	; 8498 <xfer_end+0xd4>
    8480:	e59f1014 	ldr	r1, [pc, #20]	; 849c <xfer_end+0xd8>
    8484:	e59f0024 	ldr	r0, [pc, #36]	; 84b0 <xfer_end+0xec>
    8488:	eb00011d 	bl	8904 <printk>
    848c:	eb00028c 	bl	8ec4 <clean_reboot>
    8490:	20804000 	addcs	r4, r0, r0
    8494:	00000113 	andeq	r0, r0, r3, lsl r1
    8498:	000099b0 			; <UNDEFINED> instruction: 0x000099b0
    849c:	000099ec 	andeq	r9, r0, ip, ror #19
    84a0:	00009b08 	andeq	r9, r0, r8, lsl #22
    84a4:	00009ae4 	andeq	r9, r0, r4, ror #21
    84a8:	00000116 	andeq	r0, r0, r6, lsl r1
    84ac:	00009b38 	andeq	r9, r0, r8, lsr fp
    84b0:	00009b5c 	andeq	r9, r0, ip, asr fp

000084b4 <read_s>:
    84b4:	e92d4010 	push	{r4, lr}
    84b8:	eb0004a6 	bl	9758 <get32>
    84bc:	ebffffbb 	bl	83b0 <clear_s>
    84c0:	e8bd8010 	pop	{r4, pc}

000084c4 <reset_status>:
    84c4:	e92d4010 	push	{r4, lr}
    84c8:	e59f4018 	ldr	r4, [pc, #24]	; 84e8 <reset_status+0x24>
    84cc:	e1a00004 	mov	r0, r4
    84d0:	ebfffff7 	bl	84b4 <read_s>
    84d4:	e3801002 	orr	r1, r0, #2
    84d8:	e3811c03 	orr	r1, r1, #768	; 0x300
    84dc:	e1a00004 	mov	r0, r4
    84e0:	eb000490 	bl	9728 <put32>
    84e4:	e8bd8010 	pop	{r4, pc}
    84e8:	20804004 	addcs	r4, r0, r4

000084ec <read_c>:
    84ec:	e92d4010 	push	{r4, lr}
    84f0:	eb000498 	bl	9758 <get32>
    84f4:	ebffffa8 	bl	839c <clear_c>
    84f8:	e8bd8010 	pop	{r4, pc}

000084fc <xfer_start>:
    84fc:	e92d4070 	push	{r4, r5, r6, lr}
    8500:	e1a06000 	mov	r6, r0
    8504:	e1a05001 	mov	r5, r1
    8508:	e1a04002 	mov	r4, r2
    850c:	eb00047f 	bl	9710 <dev_barrier>
    8510:	e59f3180 	ldr	r3, [pc, #384]	; 8698 <xfer_start+0x19c>
    8514:	e5933004 	ldr	r3, [r3, #4]
    8518:	e3130001 	tst	r3, #1
    851c:	0a000015 	beq	8578 <xfer_start+0x7c>
    8520:	e59f3170 	ldr	r3, [pc, #368]	; 8698 <xfer_start+0x19c>
    8524:	e5933004 	ldr	r3, [r3, #4]
    8528:	e3130c01 	tst	r3, #256	; 0x100
    852c:	1a00000a 	bne	855c <xfer_start+0x60>
    8530:	e59f3160 	ldr	r3, [pc, #352]	; 8698 <xfer_start+0x19c>
    8534:	e5933004 	ldr	r3, [r3, #4]
    8538:	e3130c02 	tst	r3, #512	; 0x200
    853c:	0afffff3 	beq	8510 <xfer_start+0x14>
    8540:	eb00010a 	bl	8970 <rpi_reset_putc>
    8544:	e3a030f3 	mov	r3, #243	; 0xf3
    8548:	e59f214c 	ldr	r2, [pc, #332]	; 869c <xfer_start+0x1a0>
    854c:	e59f114c 	ldr	r1, [pc, #332]	; 86a0 <xfer_start+0x1a4>
    8550:	e59f014c 	ldr	r0, [pc, #332]	; 86a4 <xfer_start+0x1a8>
    8554:	eb0000ea 	bl	8904 <printk>
    8558:	eb000259 	bl	8ec4 <clean_reboot>
    855c:	eb000103 	bl	8970 <rpi_reset_putc>
    8560:	e3a030f3 	mov	r3, #243	; 0xf3
    8564:	e59f2130 	ldr	r2, [pc, #304]	; 869c <xfer_start+0x1a0>
    8568:	e59f1130 	ldr	r1, [pc, #304]	; 86a0 <xfer_start+0x1a4>
    856c:	e59f0134 	ldr	r0, [pc, #308]	; 86a8 <xfer_start+0x1ac>
    8570:	eb0000e3 	bl	8904 <printk>
    8574:	eb000252 	bl	8ec4 <clean_reboot>
    8578:	e59f3118 	ldr	r3, [pc, #280]	; 8698 <xfer_start+0x19c>
    857c:	e5933004 	ldr	r3, [r3, #4]
    8580:	e3130040 	tst	r3, #64	; 0x40
    8584:	0a000026 	beq	8624 <xfer_start+0x128>
    8588:	ebffffcd 	bl	84c4 <reset_status>
    858c:	e1b033a6 	lsrs	r3, r6, #7
    8590:	1a00002a 	bne	8640 <xfer_start+0x144>
    8594:	e1a01006 	mov	r1, r6
    8598:	e59f010c 	ldr	r0, [pc, #268]	; 86ac <xfer_start+0x1b0>
    859c:	eb000461 	bl	9728 <put32>
    85a0:	e1b03825 	lsrs	r3, r5, #16
    85a4:	1a00002c 	bne	865c <xfer_start+0x160>
    85a8:	e1a01005 	mov	r1, r5
    85ac:	e59f00fc 	ldr	r0, [pc, #252]	; 86b0 <xfer_start+0x1b4>
    85b0:	eb00045c 	bl	9728 <put32>
    85b4:	e59f50dc 	ldr	r5, [pc, #220]	; 8698 <xfer_start+0x19c>
    85b8:	e1a00005 	mov	r0, r5
    85bc:	ebffffca 	bl	84ec <read_c>
    85c0:	e38000b0 	orr	r0, r0, #176	; 0xb0
    85c4:	e2041001 	and	r1, r4, #1
    85c8:	e3c00001 	bic	r0, r0, #1
    85cc:	e1811000 	orr	r1, r1, r0
    85d0:	e1a00005 	mov	r0, r5
    85d4:	eb000453 	bl	9728 <put32>
    85d8:	e59f30b8 	ldr	r3, [pc, #184]	; 8698 <xfer_start+0x19c>
    85dc:	e5933004 	ldr	r3, [r3, #4]
    85e0:	e3130001 	tst	r3, #1
    85e4:	1a00002a 	bne	8694 <xfer_start+0x198>
    85e8:	e59f30a8 	ldr	r3, [pc, #168]	; 8698 <xfer_start+0x19c>
    85ec:	e5933004 	ldr	r3, [r3, #4]
    85f0:	e3130c01 	tst	r3, #256	; 0x100
    85f4:	1a00001f 	bne	8678 <xfer_start+0x17c>
    85f8:	e59f3098 	ldr	r3, [pc, #152]	; 8698 <xfer_start+0x19c>
    85fc:	e5933004 	ldr	r3, [r3, #4]
    8600:	e3130c02 	tst	r3, #512	; 0x200
    8604:	0afffff3 	beq	85d8 <xfer_start+0xdc>
    8608:	eb0000d8 	bl	8970 <rpi_reset_putc>
    860c:	e59f30a0 	ldr	r3, [pc, #160]	; 86b4 <xfer_start+0x1b8>
    8610:	e59f2084 	ldr	r2, [pc, #132]	; 869c <xfer_start+0x1a0>
    8614:	e59f1084 	ldr	r1, [pc, #132]	; 86a0 <xfer_start+0x1a4>
    8618:	e59f0084 	ldr	r0, [pc, #132]	; 86a4 <xfer_start+0x1a8>
    861c:	eb0000b8 	bl	8904 <printk>
    8620:	eb000227 	bl	8ec4 <clean_reboot>
    8624:	eb0000d1 	bl	8970 <rpi_reset_putc>
    8628:	e3a030f6 	mov	r3, #246	; 0xf6
    862c:	e59f2068 	ldr	r2, [pc, #104]	; 869c <xfer_start+0x1a0>
    8630:	e59f1068 	ldr	r1, [pc, #104]	; 86a0 <xfer_start+0x1a4>
    8634:	e59f007c 	ldr	r0, [pc, #124]	; 86b8 <xfer_start+0x1bc>
    8638:	eb0000b1 	bl	8904 <printk>
    863c:	eb000220 	bl	8ec4 <clean_reboot>
    8640:	eb0000ca 	bl	8970 <rpi_reset_putc>
    8644:	e3a030fb 	mov	r3, #251	; 0xfb
    8648:	e59f204c 	ldr	r2, [pc, #76]	; 869c <xfer_start+0x1a0>
    864c:	e59f104c 	ldr	r1, [pc, #76]	; 86a0 <xfer_start+0x1a4>
    8650:	e59f0064 	ldr	r0, [pc, #100]	; 86bc <xfer_start+0x1c0>
    8654:	eb0000aa 	bl	8904 <printk>
    8658:	eb000219 	bl	8ec4 <clean_reboot>
    865c:	eb0000c3 	bl	8970 <rpi_reset_putc>
    8660:	e3a030ff 	mov	r3, #255	; 0xff
    8664:	e59f2030 	ldr	r2, [pc, #48]	; 869c <xfer_start+0x1a0>
    8668:	e59f1030 	ldr	r1, [pc, #48]	; 86a0 <xfer_start+0x1a4>
    866c:	e59f004c 	ldr	r0, [pc, #76]	; 86c0 <xfer_start+0x1c4>
    8670:	eb0000a3 	bl	8904 <printk>
    8674:	eb000212 	bl	8ec4 <clean_reboot>
    8678:	eb0000bc 	bl	8970 <rpi_reset_putc>
    867c:	e59f3030 	ldr	r3, [pc, #48]	; 86b4 <xfer_start+0x1b8>
    8680:	e59f2014 	ldr	r2, [pc, #20]	; 869c <xfer_start+0x1a0>
    8684:	e59f1014 	ldr	r1, [pc, #20]	; 86a0 <xfer_start+0x1a4>
    8688:	e59f0018 	ldr	r0, [pc, #24]	; 86a8 <xfer_start+0x1ac>
    868c:	eb00009c 	bl	8904 <printk>
    8690:	eb00020b 	bl	8ec4 <clean_reboot>
    8694:	e8bd8070 	pop	{r4, r5, r6, pc}
    8698:	20804000 	addcs	r4, r0, r0
    869c:	000099bc 			; <UNDEFINED> instruction: 0x000099bc
    86a0:	000099ec 	andeq	r9, r0, ip, ror #19
    86a4:	00009b08 	andeq	r9, r0, r8, lsl #22
    86a8:	00009ae4 	andeq	r9, r0, r4, ror #21
    86ac:	2080400c 	addcs	r4, r0, ip
    86b0:	20804008 	addcs	r4, r0, r8
    86b4:	0000010e 	andeq	r0, r0, lr, lsl #2
    86b8:	00009b80 	andeq	r9, r0, r0, lsl #23
    86bc:	00009ba8 	andeq	r9, r0, r8, lsr #23
    86c0:	00009bcc 	andeq	r9, r0, ip, asr #23

000086c4 <i2c_write>:
    86c4:	e92d4070 	push	{r4, r5, r6, lr}
    86c8:	e1a05001 	mov	r5, r1
    86cc:	e1a04002 	mov	r4, r2
    86d0:	e3a02000 	mov	r2, #0
    86d4:	e1a01004 	mov	r1, r4
    86d8:	ebffff87 	bl	84fc <xfer_start>
    86dc:	e3a02000 	mov	r2, #0
    86e0:	ea00000a 	b	8710 <i2c_write+0x4c>
    86e4:	eb0000a1 	bl	8970 <rpi_reset_putc>
    86e8:	e59f3080 	ldr	r3, [pc, #128]	; 8770 <i2c_write+0xac>
    86ec:	e59f2080 	ldr	r2, [pc, #128]	; 8774 <i2c_write+0xb0>
    86f0:	e59f1080 	ldr	r1, [pc, #128]	; 8778 <i2c_write+0xb4>
    86f4:	e59f0080 	ldr	r0, [pc, #128]	; 877c <i2c_write+0xb8>
    86f8:	eb000081 	bl	8904 <printk>
    86fc:	eb0001f0 	bl	8ec4 <clean_reboot>
    8700:	e7d51002 	ldrb	r1, [r5, r2]
    8704:	e59f3074 	ldr	r3, [pc, #116]	; 8780 <i2c_write+0xbc>
    8708:	e5831010 	str	r1, [r3, #16]
    870c:	e2822001 	add	r2, r2, #1
    8710:	e1520004 	cmp	r2, r4
    8714:	2a000012 	bcs	8764 <i2c_write+0xa0>
    8718:	e59f3060 	ldr	r3, [pc, #96]	; 8780 <i2c_write+0xbc>
    871c:	e5933004 	ldr	r3, [r3, #4]
    8720:	e3130010 	tst	r3, #16
    8724:	1afffff5 	bne	8700 <i2c_write+0x3c>
    8728:	e59f3050 	ldr	r3, [pc, #80]	; 8780 <i2c_write+0xbc>
    872c:	e5933004 	ldr	r3, [r3, #4]
    8730:	e3130c01 	tst	r3, #256	; 0x100
    8734:	1affffea 	bne	86e4 <i2c_write+0x20>
    8738:	e59f3040 	ldr	r3, [pc, #64]	; 8780 <i2c_write+0xbc>
    873c:	e5933004 	ldr	r3, [r3, #4]
    8740:	e3130c02 	tst	r3, #512	; 0x200
    8744:	0afffff3 	beq	8718 <i2c_write+0x54>
    8748:	eb000088 	bl	8970 <rpi_reset_putc>
    874c:	e59f301c 	ldr	r3, [pc, #28]	; 8770 <i2c_write+0xac>
    8750:	e59f201c 	ldr	r2, [pc, #28]	; 8774 <i2c_write+0xb0>
    8754:	e59f101c 	ldr	r1, [pc, #28]	; 8778 <i2c_write+0xb4>
    8758:	e59f0024 	ldr	r0, [pc, #36]	; 8784 <i2c_write+0xc0>
    875c:	eb000068 	bl	8904 <printk>
    8760:	eb0001d7 	bl	8ec4 <clean_reboot>
    8764:	ebffff16 	bl	83c4 <xfer_end>
    8768:	e3a00001 	mov	r0, #1
    876c:	e8bd8070 	pop	{r4, r5, r6, pc}
    8770:	00000123 	andeq	r0, r0, r3, lsr #2
    8774:	000099c8 	andeq	r9, r0, r8, asr #19
    8778:	000099ec 	andeq	r9, r0, ip, ror #19
    877c:	00009ae4 	andeq	r9, r0, r4, ror #21
    8780:	20804000 	addcs	r4, r0, r0
    8784:	00009b08 	andeq	r9, r0, r8, lsl #22

00008788 <i2c_read>:
    8788:	e92d4070 	push	{r4, r5, r6, lr}
    878c:	e1a05001 	mov	r5, r1
    8790:	e1a04002 	mov	r4, r2
    8794:	e3a02001 	mov	r2, #1
    8798:	e1a01004 	mov	r1, r4
    879c:	ebffff56 	bl	84fc <xfer_start>
    87a0:	e3a02000 	mov	r2, #0
    87a4:	ea00000a 	b	87d4 <i2c_read+0x4c>
    87a8:	eb000070 	bl	8970 <rpi_reset_putc>
    87ac:	e3a03f4d 	mov	r3, #308	; 0x134
    87b0:	e59f207c 	ldr	r2, [pc, #124]	; 8834 <i2c_read+0xac>
    87b4:	e59f107c 	ldr	r1, [pc, #124]	; 8838 <i2c_read+0xb0>
    87b8:	e59f007c 	ldr	r0, [pc, #124]	; 883c <i2c_read+0xb4>
    87bc:	eb000050 	bl	8904 <printk>
    87c0:	eb0001bf 	bl	8ec4 <clean_reboot>
    87c4:	e59f3074 	ldr	r3, [pc, #116]	; 8840 <i2c_read+0xb8>
    87c8:	e5933010 	ldr	r3, [r3, #16]
    87cc:	e7c53002 	strb	r3, [r5, r2]
    87d0:	e2822001 	add	r2, r2, #1
    87d4:	e1520004 	cmp	r2, r4
    87d8:	2a000012 	bcs	8828 <i2c_read+0xa0>
    87dc:	e59f305c 	ldr	r3, [pc, #92]	; 8840 <i2c_read+0xb8>
    87e0:	e5933004 	ldr	r3, [r3, #4]
    87e4:	e3130020 	tst	r3, #32
    87e8:	1afffff5 	bne	87c4 <i2c_read+0x3c>
    87ec:	e59f304c 	ldr	r3, [pc, #76]	; 8840 <i2c_read+0xb8>
    87f0:	e5933004 	ldr	r3, [r3, #4]
    87f4:	e3130c01 	tst	r3, #256	; 0x100
    87f8:	1affffea 	bne	87a8 <i2c_read+0x20>
    87fc:	e59f303c 	ldr	r3, [pc, #60]	; 8840 <i2c_read+0xb8>
    8800:	e5933004 	ldr	r3, [r3, #4]
    8804:	e3130c02 	tst	r3, #512	; 0x200
    8808:	0afffff3 	beq	87dc <i2c_read+0x54>
    880c:	eb000057 	bl	8970 <rpi_reset_putc>
    8810:	e3a03f4d 	mov	r3, #308	; 0x134
    8814:	e59f2018 	ldr	r2, [pc, #24]	; 8834 <i2c_read+0xac>
    8818:	e59f1018 	ldr	r1, [pc, #24]	; 8838 <i2c_read+0xb0>
    881c:	e59f0020 	ldr	r0, [pc, #32]	; 8844 <i2c_read+0xbc>
    8820:	eb000037 	bl	8904 <printk>
    8824:	eb0001a6 	bl	8ec4 <clean_reboot>
    8828:	ebfffee5 	bl	83c4 <xfer_end>
    882c:	e3a00001 	mov	r0, #1
    8830:	e8bd8070 	pop	{r4, r5, r6, pc}
    8834:	000099d4 	ldrdeq	r9, [r0], -r4
    8838:	000099ec 	andeq	r9, r0, ip, ror #19
    883c:	00009ae4 	andeq	r9, r0, r4, ror #21
    8840:	20804000 	addcs	r4, r0, r0
    8844:	00009b08 	andeq	r9, r0, r8, lsl #22

00008848 <i2c_is_initialized>:
    8848:	e59f3004 	ldr	r3, [pc, #4]	; 8854 <i2c_is_initialized+0xc>
    884c:	e5930000 	ldr	r0, [r3]
    8850:	e12fff1e 	bx	lr
    8854:	00009d04 	andeq	r9, r0, r4, lsl #26

00008858 <i2c_init>:
    8858:	e92d4010 	push	{r4, lr}
    885c:	ebfffed6 	bl	83bc <check_layout>
    8860:	eb0003aa 	bl	9710 <dev_barrier>
    8864:	e3a01004 	mov	r1, #4
    8868:	e3a00002 	mov	r0, #2
    886c:	eb00028a 	bl	929c <gpio_set_function>
    8870:	e3a01004 	mov	r1, #4
    8874:	e3a00003 	mov	r0, #3
    8878:	eb000287 	bl	929c <gpio_set_function>
    887c:	eb0003a3 	bl	9710 <dev_barrier>
    8880:	e59f404c 	ldr	r4, [pc, #76]	; 88d4 <i2c_init+0x7c>
    8884:	e3a01902 	mov	r1, #32768	; 0x8000
    8888:	e1a00004 	mov	r0, r4
    888c:	eb0003a5 	bl	9728 <put32>
    8890:	eb00039e 	bl	9710 <dev_barrier>
    8894:	ebffff0a 	bl	84c4 <reset_status>
    8898:	eb00039c 	bl	9710 <dev_barrier>
    889c:	e5943004 	ldr	r3, [r4, #4]
    88a0:	e3130001 	tst	r3, #1
    88a4:	1a000003 	bne	88b8 <i2c_init+0x60>
    88a8:	e3a02001 	mov	r2, #1
    88ac:	e59f3024 	ldr	r3, [pc, #36]	; 88d8 <i2c_init+0x80>
    88b0:	e5832000 	str	r2, [r3]
    88b4:	e8bd8010 	pop	{r4, pc}
    88b8:	eb00002c 	bl	8970 <rpi_reset_putc>
    88bc:	e59f3018 	ldr	r3, [pc, #24]	; 88dc <i2c_init+0x84>
    88c0:	e59f2018 	ldr	r2, [pc, #24]	; 88e0 <i2c_init+0x88>
    88c4:	e59f1018 	ldr	r1, [pc, #24]	; 88e4 <i2c_init+0x8c>
    88c8:	e59f0018 	ldr	r0, [pc, #24]	; 88e8 <i2c_init+0x90>
    88cc:	eb00000c 	bl	8904 <printk>
    88d0:	eb00017b 	bl	8ec4 <clean_reboot>
    88d4:	20804000 	addcs	r4, r0, r0
    88d8:	00009d04 	andeq	r9, r0, r4, lsl #26
    88dc:	00000162 	andeq	r0, r0, r2, ror #2
    88e0:	000099e0 	andeq	r9, r0, r0, ror #19
    88e4:	000099ec 	andeq	r9, r0, ip, ror #19
    88e8:	00009b38 	andeq	r9, r0, r8, lsr fp

000088ec <i2c_init_once>:
    88ec:	e92d4010 	push	{r4, lr}
    88f0:	ebffffd4 	bl	8848 <i2c_is_initialized>
    88f4:	e3500000 	cmp	r0, #0
    88f8:	18bd8010 	popne	{r4, pc}
    88fc:	ebffffd5 	bl	8858 <i2c_init>
    8900:	e8bd8010 	pop	{r4, pc}

00008904 <printk>:
    8904:	e92d000f 	push	{r0, r1, r2, r3}
    8908:	e92d4030 	push	{r4, r5, lr}
    890c:	e24dd00c 	sub	sp, sp, #12
    8910:	e28d301c 	add	r3, sp, #28
    8914:	e58d3004 	str	r3, [sp, #4]
    8918:	e59f4034 	ldr	r4, [pc, #52]	; 8954 <printk+0x50>
    891c:	e1a00004 	mov	r0, r4
    8920:	e3a01b01 	mov	r1, #1024	; 0x400
    8924:	e59d2018 	ldr	r2, [sp, #24]
    8928:	eb0000c3 	bl	8c3c <va_printk>
    892c:	e1a05000 	mov	r5, r0
    8930:	e59f3020 	ldr	r3, [pc, #32]	; 8958 <printk+0x54>
    8934:	e5933000 	ldr	r3, [r3]
    8938:	e1a00004 	mov	r0, r4
    893c:	e12fff33 	blx	r3
    8940:	e1a00005 	mov	r0, r5
    8944:	e28dd00c 	add	sp, sp, #12
    8948:	e8bd4030 	pop	{r4, r5, lr}
    894c:	e28dd010 	add	sp, sp, #16
    8950:	e12fff1e 	bx	lr
    8954:	00009d08 	andeq	r9, r0, r8, lsl #26
    8958:	00009778 	andeq	r9, r0, r8, ror r7

0000895c <internal_putchar>:
    895c:	e92d4010 	push	{r4, lr}
    8960:	e1a04000 	mov	r4, r0
    8964:	eb000353 	bl	96b8 <uart_putc>
    8968:	e1a00004 	mov	r0, r4
    896c:	e8bd8010 	pop	{r4, pc}

00008970 <rpi_reset_putc>:
    8970:	e59f2008 	ldr	r2, [pc, #8]	; 8980 <rpi_reset_putc+0x10>
    8974:	e59f3008 	ldr	r3, [pc, #8]	; 8984 <rpi_reset_putc+0x14>
    8978:	e5832000 	str	r2, [r3]
    897c:	e12fff1e 	bx	lr
    8980:	0000895c 	andeq	r8, r0, ip, asr r9
    8984:	00009774 	andeq	r9, r0, r4, ror r7

00008988 <rpi_set_putc>:
    8988:	e59f3004 	ldr	r3, [pc, #4]	; 8994 <rpi_set_putc+0xc>
    898c:	e5830000 	str	r0, [r3]
    8990:	e12fff1e 	bx	lr
    8994:	00009774 	andeq	r9, r0, r4, ror r7

00008998 <internal_putk>:
    8998:	e92d4038 	push	{r3, r4, r5, lr}
    899c:	e1a04000 	mov	r4, r0
    89a0:	e59f5020 	ldr	r5, [pc, #32]	; 89c8 <internal_putk+0x30>
    89a4:	ea000002 	b	89b4 <internal_putk+0x1c>
    89a8:	e5953000 	ldr	r3, [r5]
    89ac:	e12fff33 	blx	r3
    89b0:	e2844001 	add	r4, r4, #1
    89b4:	e5d40000 	ldrb	r0, [r4]
    89b8:	e3500000 	cmp	r0, #0
    89bc:	1afffff9 	bne	89a8 <internal_putk+0x10>
    89c0:	e3a00001 	mov	r0, #1
    89c4:	e8bd8038 	pop	{r3, r4, r5, pc}
    89c8:	00009774 	andeq	r9, r0, r4, ror r7

000089cc <isdigit>:
    89cc:	e2400030 	sub	r0, r0, #48	; 0x30
    89d0:	e3500009 	cmp	r0, #9
    89d4:	83a00000 	movhi	r0, #0
    89d8:	93a00001 	movls	r0, #1
    89dc:	e12fff1e 	bx	lr

000089e0 <pad>:
    89e0:	e0611000 	rsb	r1, r1, r0
    89e4:	e3a03020 	mov	r3, #32
    89e8:	ea000002 	b	89f8 <pad+0x18>
    89ec:	e5c03000 	strb	r3, [r0]
    89f0:	e2811001 	add	r1, r1, #1
    89f4:	e2800001 	add	r0, r0, #1
    89f8:	e1510002 	cmp	r1, r2
    89fc:	bafffffa 	blt	89ec <pad+0xc>
    8a00:	e3a03000 	mov	r3, #0
    8a04:	e5c03000 	strb	r3, [r0]
    8a08:	e12fff1e 	bx	lr

00008a0c <reverse>:
    8a0c:	e063c002 	rsb	ip, r3, r2
    8a10:	e28cc001 	add	ip, ip, #1
    8a14:	e15c0001 	cmp	ip, r1
    8a18:	c061100c 	rsbgt	r1, r1, ip
    8a1c:	c0833001 	addgt	r3, r3, r1
    8a20:	e2422001 	sub	r2, r2, #1
    8a24:	e1a01000 	mov	r1, r0
    8a28:	ea000002 	b	8a38 <reverse+0x2c>
    8a2c:	e452c001 	ldrb	ip, [r2], #-1
    8a30:	e5c1c000 	strb	ip, [r1]
    8a34:	e2811001 	add	r1, r1, #1
    8a38:	e1520003 	cmp	r2, r3
    8a3c:	2afffffa 	bcs	8a2c <reverse+0x20>
    8a40:	e3a03000 	mov	r3, #0
    8a44:	e5c13000 	strb	r3, [r1]
    8a48:	e12fff1e 	bx	lr

00008a4c <emit>:
    8a4c:	e92d41f0 	push	{r4, r5, r6, r7, r8, lr}
    8a50:	e24dd040 	sub	sp, sp, #64	; 0x40
    8a54:	e1a05001 	mov	r5, r1
    8a58:	e1a04002 	mov	r4, r2
    8a5c:	e59d2058 	ldr	r2, [sp, #88]	; 0x58
    8a60:	e1520004 	cmp	r2, r4
    8a64:	c2442001 	subgt	r2, r4, #1
    8a68:	e1a0c003 	mov	ip, r3
    8a6c:	e2400002 	sub	r0, r0, #2
    8a70:	e350000e 	cmp	r0, #14
    8a74:	979ff100 	ldrls	pc, [pc, r0, lsl #2]
    8a78:	ea000042 	b	8b88 <emit+0x13c>
    8a7c:	00008b60 	andeq	r8, r0, r0, ror #22
    8a80:	00008b88 	andeq	r8, r0, r8, lsl #23
    8a84:	00008b88 	andeq	r8, r0, r8, lsl #23
    8a88:	00008b88 	andeq	r8, r0, r8, lsl #23
    8a8c:	00008b88 	andeq	r8, r0, r8, lsl #23
    8a90:	00008b88 	andeq	r8, r0, r8, lsl #23
    8a94:	00008b54 	andeq	r8, r0, r4, asr fp
    8a98:	00008b88 	andeq	r8, r0, r8, lsl #23
    8a9c:	00008ab8 			; <UNDEFINED> instruction: 0x00008ab8
    8aa0:	00008b88 	andeq	r8, r0, r8, lsl #23
    8aa4:	00008b88 	andeq	r8, r0, r8, lsl #23
    8aa8:	00008b88 	andeq	r8, r0, r8, lsl #23
    8aac:	00008b88 	andeq	r8, r0, r8, lsl #23
    8ab0:	00008b88 	andeq	r8, r0, r8, lsl #23
    8ab4:	00008b2c 	andeq	r8, r0, ip, lsr #22
    8ab8:	e59d105c 	ldr	r1, [sp, #92]	; 0x5c
    8abc:	e2911000 	adds	r1, r1, #0
    8ac0:	13a01001 	movne	r1, #1
    8ac4:	e0111fa3 	ands	r1, r1, r3, lsr #31
    8ac8:	1263c000 	rsbne	ip, r3, #0
    8acc:	13a08001 	movne	r8, #1
    8ad0:	03a08000 	moveq	r8, #0
    8ad4:	e1a0100d 	mov	r1, sp
    8ad8:	e59f70ec 	ldr	r7, [pc, #236]	; 8bcc <emit+0x180>
    8adc:	e59f60ec 	ldr	r6, [pc, #236]	; 8bd0 <emit+0x184>
    8ae0:	ea000000 	b	8ae8 <emit+0x9c>
    8ae4:	e1a01003 	mov	r1, r3
    8ae8:	e2813001 	add	r3, r1, #1
    8aec:	e08e0c97 	umull	r0, lr, r7, ip
    8af0:	e1a0e1ae 	lsr	lr, lr, #3
    8af4:	e1a0000e 	mov	r0, lr
    8af8:	e08ee10e 	add	lr, lr, lr, lsl #2
    8afc:	e1a0e08e 	lsl	lr, lr, #1
    8b00:	e06ee00c 	rsb	lr, lr, ip
    8b04:	e7d6c00e 	ldrb	ip, [r6, lr]
    8b08:	e5c1c000 	strb	ip, [r1]
    8b0c:	e1a0c000 	mov	ip, r0
    8b10:	e3500000 	cmp	r0, #0
    8b14:	1afffff2 	bne	8ae4 <emit+0x98>
    8b18:	e3580000 	cmp	r8, #0
    8b1c:	12813002 	addne	r3, r1, #2
    8b20:	13a0002d 	movne	r0, #45	; 0x2d
    8b24:	15c10001 	strbne	r0, [r1, #1]
    8b28:	ea00001d 	b	8ba4 <emit+0x158>
    8b2c:	e1a0e00d 	mov	lr, sp
    8b30:	e59f009c 	ldr	r0, [pc, #156]	; 8bd4 <emit+0x188>
    8b34:	e28e3001 	add	r3, lr, #1
    8b38:	e20c100f 	and	r1, ip, #15
    8b3c:	e7d01001 	ldrb	r1, [r0, r1]
    8b40:	e5ce1000 	strb	r1, [lr]
    8b44:	e1a0e003 	mov	lr, r3
    8b48:	e1b0c22c 	lsrs	ip, ip, #4
    8b4c:	1afffff8 	bne	8b34 <emit+0xe8>
    8b50:	ea000013 	b	8ba4 <emit+0x158>
    8b54:	e5cd3000 	strb	r3, [sp]
    8b58:	e28d3001 	add	r3, sp, #1
    8b5c:	ea000010 	b	8ba4 <emit+0x158>
    8b60:	e1a0e00d 	mov	lr, sp
    8b64:	e59f006c 	ldr	r0, [pc, #108]	; 8bd8 <emit+0x18c>
    8b68:	e28e3001 	add	r3, lr, #1
    8b6c:	e20c1001 	and	r1, ip, #1
    8b70:	e7d01001 	ldrb	r1, [r0, r1]
    8b74:	e5ce1000 	strb	r1, [lr]
    8b78:	e1a0e003 	mov	lr, r3
    8b7c:	e1b0c0ac 	lsrs	ip, ip, #1
    8b80:	1afffff8 	bne	8b68 <emit+0x11c>
    8b84:	ea000006 	b	8ba4 <emit+0x158>
    8b88:	ebffff78 	bl	8970 <rpi_reset_putc>
    8b8c:	e59f0048 	ldr	r0, [pc, #72]	; 8bdc <emit+0x190>
    8b90:	e59f1048 	ldr	r1, [pc, #72]	; 8be0 <emit+0x194>
    8b94:	e59f2048 	ldr	r2, [pc, #72]	; 8be4 <emit+0x198>
    8b98:	e3a03075 	mov	r3, #117	; 0x75
    8b9c:	ebffff58 	bl	8904 <printk>
    8ba0:	eb0000c7 	bl	8ec4 <clean_reboot>
    8ba4:	e1a00003 	mov	r0, r3
    8ba8:	e1a0100d 	mov	r1, sp
    8bac:	ebffff8b 	bl	89e0 <pad>
    8bb0:	e1a02000 	mov	r2, r0
    8bb4:	e1a00005 	mov	r0, r5
    8bb8:	e1a01004 	mov	r1, r4
    8bbc:	e1a0300d 	mov	r3, sp
    8bc0:	ebffff91 	bl	8a0c <reverse>
    8bc4:	e28dd040 	add	sp, sp, #64	; 0x40
    8bc8:	e8bd81f0 	pop	{r4, r5, r6, r7, r8, pc}
    8bcc:	cccccccd 	stclgt	12, cr12, [ip], {205}	; 0xcd
    8bd0:	00009c40 	andeq	r9, r0, r0, asr #24
    8bd4:	00009c4c 	andeq	r9, r0, ip, asr #24
    8bd8:	00009c60 	andeq	r9, r0, r0, ror #24
    8bdc:	00009c18 	andeq	r9, r0, r8, lsl ip
    8be0:	00009c2c 	andeq	r9, r0, ip, lsr #24
    8be4:	00009bf4 	strdeq	r9, [r0], -r4

00008be8 <rpi_set_output>:
    8be8:	e92d4008 	push	{r3, lr}
    8bec:	e3500000 	cmp	r0, #0
    8bf0:	1a000006 	bne	8c10 <rpi_set_output+0x28>
    8bf4:	ebffff5d 	bl	8970 <rpi_reset_putc>
    8bf8:	e59f0028 	ldr	r0, [pc, #40]	; 8c28 <rpi_set_output+0x40>
    8bfc:	e59f1028 	ldr	r1, [pc, #40]	; 8c2c <rpi_set_output+0x44>
    8c00:	e59f2028 	ldr	r2, [pc, #40]	; 8c30 <rpi_set_output+0x48>
    8c04:	e3a03020 	mov	r3, #32
    8c08:	ebffff3d 	bl	8904 <printk>
    8c0c:	eb0000ac 	bl	8ec4 <clean_reboot>
    8c10:	e59f301c 	ldr	r3, [pc, #28]	; 8c34 <rpi_set_output+0x4c>
    8c14:	e5830000 	str	r0, [r3]
    8c18:	e3510000 	cmp	r1, #0
    8c1c:	159f3014 	ldrne	r3, [pc, #20]	; 8c38 <rpi_set_output+0x50>
    8c20:	15831000 	strne	r1, [r3]
    8c24:	e8bd8008 	pop	{r3, pc}
    8c28:	00009c64 	andeq	r9, r0, r4, ror #24
    8c2c:	00009c2c 	andeq	r9, r0, ip, lsr #24
    8c30:	00009bfc 	strdeq	r9, [r0], -ip
    8c34:	00009774 	andeq	r9, r0, r4, ror r7
    8c38:	00009778 	andeq	r9, r0, r8, ror r7

00008c3c <va_printk>:
    8c3c:	e92d4ff0 	push	{r4, r5, r6, r7, r8, r9, sl, fp, lr}
    8c40:	e24dd08c 	sub	sp, sp, #140	; 0x8c
    8c44:	e1a0a000 	mov	sl, r0
    8c48:	e1a09003 	mov	r9, r3
    8c4c:	e2411001 	sub	r1, r1, #1
    8c50:	e0808001 	add	r8, r0, r1
    8c54:	e3a03000 	mov	r3, #0
    8c58:	e5c03000 	strb	r3, [r0]
    8c5c:	e1a04000 	mov	r4, r0
    8c60:	e1a0b003 	mov	fp, r3
    8c64:	ea000086 	b	8e84 <va_printk+0x248>
    8c68:	e3530025 	cmp	r3, #37	; 0x25
    8c6c:	12822001 	addne	r2, r2, #1
    8c70:	15c43000 	strbne	r3, [r4]
    8c74:	12844001 	addne	r4, r4, #1
    8c78:	1a000081 	bne	8e84 <va_printk+0x248>
    8c7c:	e5d21001 	ldrb	r1, [r2, #1]
    8c80:	e3510025 	cmp	r1, #37	; 0x25
    8c84:	05c43000 	strbeq	r3, [r4]
    8c88:	02822002 	addeq	r2, r2, #2
    8c8c:	02844001 	addeq	r4, r4, #1
    8c90:	0a00007b 	beq	8e84 <va_printk+0x248>
    8c94:	e2826001 	add	r6, r2, #1
    8c98:	e1a0700b 	mov	r7, fp
    8c9c:	ea000004 	b	8cb4 <va_printk+0x78>
    8ca0:	e0877107 	add	r7, r7, r7, lsl #2
    8ca4:	e1a07087 	lsl	r7, r7, #1
    8ca8:	e0877005 	add	r7, r7, r5
    8cac:	e2477030 	sub	r7, r7, #48	; 0x30
    8cb0:	e2866001 	add	r6, r6, #1
    8cb4:	e5d65000 	ldrb	r5, [r6]
    8cb8:	e1a00005 	mov	r0, r5
    8cbc:	ebffff42 	bl	89cc <isdigit>
    8cc0:	e3500000 	cmp	r0, #0
    8cc4:	1afffff5 	bne	8ca0 <va_printk+0x64>
    8cc8:	e357001f 	cmp	r7, #31
    8ccc:	9a000006 	bls	8cec <va_printk+0xb0>
    8cd0:	ebffff26 	bl	8970 <rpi_reset_putc>
    8cd4:	e59f01d4 	ldr	r0, [pc, #468]	; 8eb0 <va_printk+0x274>
    8cd8:	e59f11d4 	ldr	r1, [pc, #468]	; 8eb4 <va_printk+0x278>
    8cdc:	e59f21d4 	ldr	r2, [pc, #468]	; 8eb8 <va_printk+0x27c>
    8ce0:	e3a03092 	mov	r3, #146	; 0x92
    8ce4:	ebffff06 	bl	8904 <printk>
    8ce8:	eb000075 	bl	8ec4 <clean_reboot>
    8cec:	e2455062 	sub	r5, r5, #98	; 0x62
    8cf0:	e3550016 	cmp	r5, #22
    8cf4:	979ff105 	ldrls	pc, [pc, r5, lsl #2]
    8cf8:	ea00004e 	b	8e38 <va_printk+0x1fc>
    8cfc:	00008de4 	andeq	r8, r0, r4, ror #27
    8d00:	00008e14 	andeq	r8, r0, r4, lsl lr
    8d04:	00008d74 	andeq	r8, r0, r4, ror sp
    8d08:	00008e38 	andeq	r8, r0, r8, lsr lr
    8d0c:	00008d58 	andeq	r8, r0, r8, asr sp
    8d10:	00008e38 	andeq	r8, r0, r8, lsr lr
    8d14:	00008e38 	andeq	r8, r0, r8, lsr lr
    8d18:	00008e38 	andeq	r8, r0, r8, lsr lr
    8d1c:	00008e38 	andeq	r8, r0, r8, lsr lr
    8d20:	00008e38 	andeq	r8, r0, r8, lsr lr
    8d24:	00008e38 	andeq	r8, r0, r8, lsr lr
    8d28:	00008e38 	andeq	r8, r0, r8, lsr lr
    8d2c:	00008e38 	andeq	r8, r0, r8, lsr lr
    8d30:	00008e38 	andeq	r8, r0, r8, lsr lr
    8d34:	00008dc0 	andeq	r8, r0, r0, asr #27
    8d38:	00008e38 	andeq	r8, r0, r8, lsr lr
    8d3c:	00008e38 	andeq	r8, r0, r8, lsr lr
    8d40:	00008e08 	andeq	r8, r0, r8, lsl #28
    8d44:	00008e38 	andeq	r8, r0, r8, lsr lr
    8d48:	00008d9c 	muleq	r0, ip, sp
    8d4c:	00008e38 	andeq	r8, r0, r8, lsr lr
    8d50:	00008e38 	andeq	r8, r0, r8, lsr lr
    8d54:	00008dc0 	andeq	r8, r0, r0, asr #27
    8d58:	ebffff04 	bl	8970 <rpi_reset_putc>
    8d5c:	e59f0158 	ldr	r0, [pc, #344]	; 8ebc <va_printk+0x280>
    8d60:	e59f114c 	ldr	r1, [pc, #332]	; 8eb4 <va_printk+0x278>
    8d64:	e59f214c 	ldr	r2, [pc, #332]	; 8eb8 <va_printk+0x27c>
    8d68:	e3a03098 	mov	r3, #152	; 0x98
    8d6c:	ebfffee4 	bl	8904 <printk>
    8d70:	eb000053 	bl	8ec4 <clean_reboot>
    8d74:	e5993000 	ldr	r3, [r9]
    8d78:	e2899004 	add	r9, r9, #4
    8d7c:	e58d7000 	str	r7, [sp]
    8d80:	e3a02001 	mov	r2, #1
    8d84:	e58d2004 	str	r2, [sp, #4]
    8d88:	e3a0000a 	mov	r0, #10
    8d8c:	e28d1008 	add	r1, sp, #8
    8d90:	e3a02080 	mov	r2, #128	; 0x80
    8d94:	ebffff2c 	bl	8a4c <emit>
    8d98:	ea00002f 	b	8e5c <va_printk+0x220>
    8d9c:	e5993000 	ldr	r3, [r9]
    8da0:	e2899004 	add	r9, r9, #4
    8da4:	e58d7000 	str	r7, [sp]
    8da8:	e58db004 	str	fp, [sp, #4]
    8dac:	e3a0000a 	mov	r0, #10
    8db0:	e28d1008 	add	r1, sp, #8
    8db4:	e3a02080 	mov	r2, #128	; 0x80
    8db8:	ebffff23 	bl	8a4c <emit>
    8dbc:	ea000026 	b	8e5c <va_printk+0x220>
    8dc0:	e5993000 	ldr	r3, [r9]
    8dc4:	e2899004 	add	r9, r9, #4
    8dc8:	e58d7000 	str	r7, [sp]
    8dcc:	e58db004 	str	fp, [sp, #4]
    8dd0:	e3a00010 	mov	r0, #16
    8dd4:	e28d1008 	add	r1, sp, #8
    8dd8:	e3a02080 	mov	r2, #128	; 0x80
    8ddc:	ebffff1a 	bl	8a4c <emit>
    8de0:	ea00001d 	b	8e5c <va_printk+0x220>
    8de4:	e5993000 	ldr	r3, [r9]
    8de8:	e2899004 	add	r9, r9, #4
    8dec:	e58d7000 	str	r7, [sp]
    8df0:	e58db004 	str	fp, [sp, #4]
    8df4:	e3a00002 	mov	r0, #2
    8df8:	e28d1008 	add	r1, sp, #8
    8dfc:	e3a02080 	mov	r2, #128	; 0x80
    8e00:	ebffff11 	bl	8a4c <emit>
    8e04:	ea000014 	b	8e5c <va_printk+0x220>
    8e08:	e5990000 	ldr	r0, [r9]
    8e0c:	e2899004 	add	r9, r9, #4
    8e10:	ea000011 	b	8e5c <va_printk+0x220>
    8e14:	e5993000 	ldr	r3, [r9]
    8e18:	e2899004 	add	r9, r9, #4
    8e1c:	e58d7000 	str	r7, [sp]
    8e20:	e58db004 	str	fp, [sp, #4]
    8e24:	e3a00008 	mov	r0, #8
    8e28:	e08d1000 	add	r1, sp, r0
    8e2c:	e3a02080 	mov	r2, #128	; 0x80
    8e30:	ebffff05 	bl	8a4c <emit>
    8e34:	ea000008 	b	8e5c <va_printk+0x220>
    8e38:	ebfffecc 	bl	8970 <rpi_reset_putc>
    8e3c:	e5d63000 	ldrb	r3, [r6]
    8e40:	e58d3000 	str	r3, [sp]
    8e44:	e59f0074 	ldr	r0, [pc, #116]	; 8ec0 <va_printk+0x284>
    8e48:	e59f1064 	ldr	r1, [pc, #100]	; 8eb4 <va_printk+0x278>
    8e4c:	e59f2064 	ldr	r2, [pc, #100]	; 8eb8 <va_printk+0x27c>
    8e50:	e3a030b9 	mov	r3, #185	; 0xb9
    8e54:	ebfffeaa 	bl	8904 <printk>
    8e58:	eb000019 	bl	8ec4 <clean_reboot>
    8e5c:	e2862001 	add	r2, r6, #1
    8e60:	ea000002 	b	8e70 <va_printk+0x234>
    8e64:	e2800001 	add	r0, r0, #1
    8e68:	e5c43000 	strb	r3, [r4]
    8e6c:	e2844001 	add	r4, r4, #1
    8e70:	e1540008 	cmp	r4, r8
    8e74:	2a000002 	bcs	8e84 <va_printk+0x248>
    8e78:	e5d03000 	ldrb	r3, [r0]
    8e7c:	e3530000 	cmp	r3, #0
    8e80:	1afffff7 	bne	8e64 <va_printk+0x228>
    8e84:	e5d23000 	ldrb	r3, [r2]
    8e88:	e3530000 	cmp	r3, #0
    8e8c:	0a000001 	beq	8e98 <va_printk+0x25c>
    8e90:	e1540008 	cmp	r4, r8
    8e94:	3affff73 	bcc	8c68 <va_printk+0x2c>
    8e98:	e2840001 	add	r0, r4, #1
    8e9c:	e3a03000 	mov	r3, #0
    8ea0:	e5c43000 	strb	r3, [r4]
    8ea4:	e06a0000 	rsb	r0, sl, r0
    8ea8:	e28dd08c 	add	sp, sp, #140	; 0x8c
    8eac:	e8bd8ff0 	pop	{r4, r5, r6, r7, r8, r9, sl, fp, pc}
    8eb0:	00009c7c 	andeq	r9, r0, ip, ror ip
    8eb4:	00009c2c 	andeq	r9, r0, ip, lsr #24
    8eb8:	00009c0c 	andeq	r9, r0, ip, lsl #24
    8ebc:	00009c98 	muleq	r0, r8, ip
    8ec0:	00009cc0 	andeq	r9, r0, r0, asr #25

00008ec4 <clean_reboot>:
    8ec4:	e92d4008 	push	{r3, lr}
    8ec8:	e59f3014 	ldr	r3, [pc, #20]	; 8ee4 <clean_reboot+0x20>
    8ecc:	e5933000 	ldr	r3, [r3]
    8ed0:	e59f0010 	ldr	r0, [pc, #16]	; 8ee8 <clean_reboot+0x24>
    8ed4:	e12fff33 	blx	r3
    8ed8:	e3a00064 	mov	r0, #100	; 0x64
    8edc:	eb000044 	bl	8ff4 <delay_ms>
    8ee0:	eb000019 	bl	8f4c <rpi_reboot>
    8ee4:	00009778 	andeq	r9, r0, r8, ror r7
    8ee8:	00009cf8 	strdeq	r9, [r0], -r8

00008eec <_cstart>:
    8eec:	e92d4008 	push	{r3, lr}
    8ef0:	e59f3020 	ldr	r3, [pc, #32]	; 8f18 <_cstart+0x2c>
    8ef4:	e59f2020 	ldr	r2, [pc, #32]	; 8f1c <_cstart+0x30>
    8ef8:	e3a01000 	mov	r1, #0
    8efc:	ea000001 	b	8f08 <_cstart+0x1c>
    8f00:	e5831000 	str	r1, [r3]
    8f04:	e2833004 	add	r3, r3, #4
    8f08:	e1530002 	cmp	r3, r2
    8f0c:	3afffffb 	bcc	8f00 <_cstart+0x14>
    8f10:	ebfffd02 	bl	8320 <notmain>
    8f14:	eb00000c 	bl	8f4c <rpi_reboot>
    8f18:	00009d04 	andeq	r9, r0, r4, lsl #26
    8f1c:	0000a108 	andeq	sl, r0, r8, lsl #2

00008f20 <at_user_level>:
    8f20:	e10f0000 	mrs	r0, CPSR
    8f24:	e200001f 	and	r0, r0, #31
    8f28:	e3500010 	cmp	r0, #16
    8f2c:	13a00000 	movne	r0, #0
    8f30:	03a00001 	moveq	r0, #1
    8f34:	e12fff1e 	bx	lr

00008f38 <set_user_level>:
    8f38:	e10f3000 	mrs	r3, CPSR
    8f3c:	e3c3301f 	bic	r3, r3, #31
    8f40:	e3833010 	orr	r3, r3, #16
    8f44:	e129f003 	msr	CPSR_fc, r3
    8f48:	e12fff1e 	bx	lr

00008f4c <rpi_reboot>:
    8f4c:	e92d4008 	push	{r3, lr}
    8f50:	ebfffff2 	bl	8f20 <at_user_level>
    8f54:	e3500000 	cmp	r0, #0
    8f58:	0a000000 	beq	8f60 <rpi_reboot+0x14>
    8f5c:	ebfffff5 	bl	8f38 <set_user_level>
    8f60:	e3a0001e 	mov	r0, #30
    8f64:	eb000022 	bl	8ff4 <delay_ms>
    8f68:	e59f0014 	ldr	r0, [pc, #20]	; 8f84 <rpi_reboot+0x38>
    8f6c:	e59f1014 	ldr	r1, [pc, #20]	; 8f88 <rpi_reboot+0x3c>
    8f70:	eb0001ee 	bl	9730 <PUT32>
    8f74:	e59f0010 	ldr	r0, [pc, #16]	; 8f8c <rpi_reboot+0x40>
    8f78:	e59f1010 	ldr	r1, [pc, #16]	; 8f90 <rpi_reboot+0x44>
    8f7c:	eb0001eb 	bl	9730 <PUT32>
    8f80:	eafffffe 	b	8f80 <rpi_reboot+0x34>
    8f84:	20100024 	andscs	r0, r0, r4, lsr #32
    8f88:	5a000001 	bpl	8f94 <delay_cycles>
    8f8c:	2010001c 	andscs	r0, r0, ip, lsl r0
    8f90:	5a000020 	bpl	9018 <delay_sec+0x10>

00008f94 <delay_cycles>:
    8f94:	ea000001 	b	8fa0 <delay_cycles+0xc>
    8f98:	e2811000 	add	r1, r1, #0
    8f9c:	e1a00003 	mov	r0, r3
    8fa0:	e2403001 	sub	r3, r0, #1
    8fa4:	e3500000 	cmp	r0, #0
    8fa8:	1afffffa 	bne	8f98 <delay_cycles+0x4>
    8fac:	e12fff1e 	bx	lr

00008fb0 <timer_get_usec_raw>:
    8fb0:	e92d4008 	push	{r3, lr}
    8fb4:	e59f0004 	ldr	r0, [pc, #4]	; 8fc0 <timer_get_usec_raw+0x10>
    8fb8:	eb0001e8 	bl	9760 <GET32>
    8fbc:	e8bd8008 	pop	{r3, pc}
    8fc0:	20003004 	andcs	r3, r0, r4

00008fc4 <timer_get_usec>:
    8fc4:	e92d4008 	push	{r3, lr}
    8fc8:	ebfffff8 	bl	8fb0 <timer_get_usec_raw>
    8fcc:	e8bd8008 	pop	{r3, pc}

00008fd0 <delay_us>:
    8fd0:	e92d4038 	push	{r3, r4, r5, lr}
    8fd4:	e1a05000 	mov	r5, r0
    8fd8:	ebfffff9 	bl	8fc4 <timer_get_usec>
    8fdc:	e1a04000 	mov	r4, r0
    8fe0:	ebfffff7 	bl	8fc4 <timer_get_usec>
    8fe4:	e0640000 	rsb	r0, r4, r0
    8fe8:	e1500005 	cmp	r0, r5
    8fec:	3afffffb 	bcc	8fe0 <delay_us+0x10>
    8ff0:	e8bd8038 	pop	{r3, r4, r5, pc}

00008ff4 <delay_ms>:
    8ff4:	e92d4008 	push	{r3, lr}
    8ff8:	e3a03ffa 	mov	r3, #1000	; 0x3e8
    8ffc:	e0000093 	mul	r0, r3, r0
    9000:	ebfffff2 	bl	8fd0 <delay_us>
    9004:	e8bd8008 	pop	{r3, pc}

00009008 <delay_sec>:
    9008:	e92d4008 	push	{r3, lr}
    900c:	e3a03ffa 	mov	r3, #1000	; 0x3e8
    9010:	e0000093 	mul	r0, r3, r0
    9014:	ebfffff6 	bl	8ff4 <delay_ms>
    9018:	e8bd8008 	pop	{r3, pc}

0000901c <gpio_set_output>:
    901c:	e92d4038 	push	{r3, r4, r5, lr}
    9020:	e1a04000 	mov	r4, r0
    9024:	e350001f 	cmp	r0, #31
    9028:	88bd8038 	pophi	{r3, r4, r5, pc}
    902c:	e59f30b4 	ldr	r3, [pc, #180]	; 90e8 <gpio_set_output+0xcc>
    9030:	e0832093 	umull	r2, r3, r3, r0
    9034:	e1a031a3 	lsr	r3, r3, #3
    9038:	e3530005 	cmp	r3, #5
    903c:	979ff103 	ldrls	pc, [pc, r3, lsl #2]
    9040:	ea000017 	b	90a4 <gpio_set_output+0x88>
    9044:	0000905c 	andeq	r9, r0, ip, asr r0
    9048:	00009068 	andeq	r9, r0, r8, rrx
    904c:	00009074 	andeq	r9, r0, r4, ror r0
    9050:	00009080 	andeq	r9, r0, r0, lsl #1
    9054:	0000908c 	andeq	r9, r0, ip, lsl #1
    9058:	00009098 	muleq	r0, r8, r0
    905c:	e59f3088 	ldr	r3, [pc, #136]	; 90ec <gpio_set_output+0xd0>
    9060:	e5935000 	ldr	r5, [r3]
    9064:	ea00000f 	b	90a8 <gpio_set_output+0x8c>
    9068:	e59f307c 	ldr	r3, [pc, #124]	; 90ec <gpio_set_output+0xd0>
    906c:	e5935004 	ldr	r5, [r3, #4]
    9070:	ea00000c 	b	90a8 <gpio_set_output+0x8c>
    9074:	e59f3070 	ldr	r3, [pc, #112]	; 90ec <gpio_set_output+0xd0>
    9078:	e5935008 	ldr	r5, [r3, #8]
    907c:	ea000009 	b	90a8 <gpio_set_output+0x8c>
    9080:	e59f3064 	ldr	r3, [pc, #100]	; 90ec <gpio_set_output+0xd0>
    9084:	e593500c 	ldr	r5, [r3, #12]
    9088:	ea000006 	b	90a8 <gpio_set_output+0x8c>
    908c:	e59f3058 	ldr	r3, [pc, #88]	; 90ec <gpio_set_output+0xd0>
    9090:	e5935010 	ldr	r5, [r3, #16]
    9094:	ea000003 	b	90a8 <gpio_set_output+0x8c>
    9098:	e59f304c 	ldr	r3, [pc, #76]	; 90ec <gpio_set_output+0xd0>
    909c:	e5935014 	ldr	r5, [r3, #20]
    90a0:	ea000000 	b	90a8 <gpio_set_output+0x8c>
    90a4:	e3a05000 	mov	r5, #0
    90a8:	e1a00005 	mov	r0, r5
    90ac:	eb0001a9 	bl	9758 <get32>
    90b0:	e59f1030 	ldr	r1, [pc, #48]	; 90e8 <gpio_set_output+0xcc>
    90b4:	e0813491 	umull	r3, r1, r1, r4
    90b8:	e1a011a1 	lsr	r1, r1, #3
    90bc:	e0811101 	add	r1, r1, r1, lsl #2
    90c0:	e1a01081 	lsl	r1, r1, #1
    90c4:	e0611004 	rsb	r1, r1, r4
    90c8:	e0811081 	add	r1, r1, r1, lsl #1
    90cc:	e3a03007 	mov	r3, #7
    90d0:	e1c03113 	bic	r3, r0, r3, lsl r1
    90d4:	e1a00005 	mov	r0, r5
    90d8:	e3a02001 	mov	r2, #1
    90dc:	e1831112 	orr	r1, r3, r2, lsl r1
    90e0:	eb000190 	bl	9728 <put32>
    90e4:	e8bd8038 	pop	{r3, r4, r5, pc}
    90e8:	cccccccd 	stclgt	12, cr12, [ip], {205}	; 0xcd
    90ec:	0000977c 	andeq	r9, r0, ip, ror r7

000090f0 <gpio_set_on>:
    90f0:	e92d4008 	push	{r3, lr}
    90f4:	e350001f 	cmp	r0, #31
    90f8:	88bd8008 	pophi	{r3, pc}
    90fc:	959f3020 	ldrls	r3, [pc, #32]	; 9124 <gpio_set_on+0x34>
    9100:	95932018 	ldrls	r2, [r3, #24]
    9104:	859f3018 	ldrhi	r3, [pc, #24]	; 9124 <gpio_set_on+0x34>
    9108:	8593201c 	ldrhi	r2, [r3, #28]
    910c:	e200301f 	and	r3, r0, #31
    9110:	e1a00002 	mov	r0, r2
    9114:	e3a01001 	mov	r1, #1
    9118:	e1a01311 	lsl	r1, r1, r3
    911c:	eb000181 	bl	9728 <put32>
    9120:	e8bd8008 	pop	{r3, pc}
    9124:	0000977c 	andeq	r9, r0, ip, ror r7

00009128 <gpio_set_off>:
    9128:	e92d4008 	push	{r3, lr}
    912c:	e350001f 	cmp	r0, #31
    9130:	88bd8008 	pophi	{r3, pc}
    9134:	959f3020 	ldrls	r3, [pc, #32]	; 915c <gpio_set_off+0x34>
    9138:	95932020 	ldrls	r2, [r3, #32]
    913c:	859f3018 	ldrhi	r3, [pc, #24]	; 915c <gpio_set_off+0x34>
    9140:	85932024 	ldrhi	r2, [r3, #36]	; 0x24
    9144:	e200301f 	and	r3, r0, #31
    9148:	e1a00002 	mov	r0, r2
    914c:	e3a01001 	mov	r1, #1
    9150:	e1a01311 	lsl	r1, r1, r3
    9154:	eb000173 	bl	9728 <put32>
    9158:	e8bd8008 	pop	{r3, pc}
    915c:	0000977c 	andeq	r9, r0, ip, ror r7

00009160 <gpio_set_input>:
    9160:	e92d4038 	push	{r3, r4, r5, lr}
    9164:	e1a04000 	mov	r4, r0
    9168:	e350001f 	cmp	r0, #31
    916c:	88bd8038 	pophi	{r3, r4, r5, pc}
    9170:	e59f30ac 	ldr	r3, [pc, #172]	; 9224 <gpio_set_input+0xc4>
    9174:	e0832093 	umull	r2, r3, r3, r0
    9178:	e1a031a3 	lsr	r3, r3, #3
    917c:	e3530005 	cmp	r3, #5
    9180:	979ff103 	ldrls	pc, [pc, r3, lsl #2]
    9184:	ea000017 	b	91e8 <gpio_set_input+0x88>
    9188:	000091a0 	andeq	r9, r0, r0, lsr #3
    918c:	000091ac 	andeq	r9, r0, ip, lsr #3
    9190:	000091b8 			; <UNDEFINED> instruction: 0x000091b8
    9194:	000091c4 	andeq	r9, r0, r4, asr #3
    9198:	000091d0 	ldrdeq	r9, [r0], -r0
    919c:	000091dc 	ldrdeq	r9, [r0], -ip
    91a0:	e59f3080 	ldr	r3, [pc, #128]	; 9228 <gpio_set_input+0xc8>
    91a4:	e5935000 	ldr	r5, [r3]
    91a8:	ea00000f 	b	91ec <gpio_set_input+0x8c>
    91ac:	e59f3074 	ldr	r3, [pc, #116]	; 9228 <gpio_set_input+0xc8>
    91b0:	e5935004 	ldr	r5, [r3, #4]
    91b4:	ea00000c 	b	91ec <gpio_set_input+0x8c>
    91b8:	e59f3068 	ldr	r3, [pc, #104]	; 9228 <gpio_set_input+0xc8>
    91bc:	e5935008 	ldr	r5, [r3, #8]
    91c0:	ea000009 	b	91ec <gpio_set_input+0x8c>
    91c4:	e59f305c 	ldr	r3, [pc, #92]	; 9228 <gpio_set_input+0xc8>
    91c8:	e593500c 	ldr	r5, [r3, #12]
    91cc:	ea000006 	b	91ec <gpio_set_input+0x8c>
    91d0:	e59f3050 	ldr	r3, [pc, #80]	; 9228 <gpio_set_input+0xc8>
    91d4:	e5935010 	ldr	r5, [r3, #16]
    91d8:	ea000003 	b	91ec <gpio_set_input+0x8c>
    91dc:	e59f3044 	ldr	r3, [pc, #68]	; 9228 <gpio_set_input+0xc8>
    91e0:	e5935014 	ldr	r5, [r3, #20]
    91e4:	ea000000 	b	91ec <gpio_set_input+0x8c>
    91e8:	e3a05000 	mov	r5, #0
    91ec:	e1a00005 	mov	r0, r5
    91f0:	eb000158 	bl	9758 <get32>
    91f4:	e59f1028 	ldr	r1, [pc, #40]	; 9224 <gpio_set_input+0xc4>
    91f8:	e0813491 	umull	r3, r1, r1, r4
    91fc:	e1a011a1 	lsr	r1, r1, #3
    9200:	e0811101 	add	r1, r1, r1, lsl #2
    9204:	e1a01081 	lsl	r1, r1, #1
    9208:	e0611004 	rsb	r1, r1, r4
    920c:	e0811081 	add	r1, r1, r1, lsl #1
    9210:	e3a03007 	mov	r3, #7
    9214:	e1c01113 	bic	r1, r0, r3, lsl r1
    9218:	e1a00005 	mov	r0, r5
    921c:	eb000141 	bl	9728 <put32>
    9220:	e8bd8038 	pop	{r3, r4, r5, pc}
    9224:	cccccccd 	stclgt	12, cr12, [ip], {205}	; 0xcd
    9228:	0000977c 	andeq	r9, r0, ip, ror r7

0000922c <gpio_read>:
    922c:	e92d4010 	push	{r4, lr}
    9230:	e1a04000 	mov	r4, r0
    9234:	e350001f 	cmp	r0, #31
    9238:	8a00000b 	bhi	926c <gpio_read+0x40>
    923c:	8a000003 	bhi	9250 <gpio_read+0x24>
    9240:	e59f302c 	ldr	r3, [pc, #44]	; 9274 <gpio_read+0x48>
    9244:	e5930028 	ldr	r0, [r3, #40]	; 0x28
    9248:	eb000142 	bl	9758 <get32>
    924c:	ea000002 	b	925c <gpio_read+0x30>
    9250:	e59f301c 	ldr	r3, [pc, #28]	; 9274 <gpio_read+0x48>
    9254:	e593002c 	ldr	r0, [r3, #44]	; 0x2c
    9258:	eb00013e 	bl	9758 <get32>
    925c:	e204401f 	and	r4, r4, #31
    9260:	e3a03001 	mov	r3, #1
    9264:	e0000413 	and	r0, r0, r3, lsl r4
    9268:	e8bd8010 	pop	{r4, pc}
    926c:	e3e00000 	mvn	r0, #0
    9270:	e8bd8010 	pop	{r4, pc}
    9274:	0000977c 	andeq	r9, r0, ip, ror r7

00009278 <gpio_write>:
    9278:	e92d4008 	push	{r3, lr}
    927c:	e350001f 	cmp	r0, #31
    9280:	88bd8008 	pophi	{r3, pc}
    9284:	e3510000 	cmp	r1, #0
    9288:	0a000001 	beq	9294 <gpio_write+0x1c>
    928c:	ebffff97 	bl	90f0 <gpio_set_on>
    9290:	e8bd8008 	pop	{r3, pc}
    9294:	ebffffa3 	bl	9128 <gpio_set_off>
    9298:	e8bd8008 	pop	{r3, pc}

0000929c <gpio_set_function>:
    929c:	e92d4070 	push	{r4, r5, r6, lr}
    92a0:	e1a04000 	mov	r4, r0
    92a4:	e1a05001 	mov	r5, r1
    92a8:	e3510007 	cmp	r1, #7
    92ac:	9350001f 	cmpls	r0, #31
    92b0:	88bd8070 	pophi	{r4, r5, r6, pc}
    92b4:	e59f30b0 	ldr	r3, [pc, #176]	; 936c <gpio_set_function+0xd0>
    92b8:	e0832093 	umull	r2, r3, r3, r0
    92bc:	e1a031a3 	lsr	r3, r3, #3
    92c0:	e3530005 	cmp	r3, #5
    92c4:	979ff103 	ldrls	pc, [pc, r3, lsl #2]
    92c8:	ea000017 	b	932c <gpio_set_function+0x90>
    92cc:	000092e4 	andeq	r9, r0, r4, ror #5
    92d0:	000092f0 	strdeq	r9, [r0], -r0
    92d4:	000092fc 	strdeq	r9, [r0], -ip
    92d8:	00009308 	andeq	r9, r0, r8, lsl #6
    92dc:	00009314 	andeq	r9, r0, r4, lsl r3
    92e0:	00009320 	andeq	r9, r0, r0, lsr #6
    92e4:	e59f3084 	ldr	r3, [pc, #132]	; 9370 <gpio_set_function+0xd4>
    92e8:	e5936000 	ldr	r6, [r3]
    92ec:	ea00000f 	b	9330 <gpio_set_function+0x94>
    92f0:	e59f3078 	ldr	r3, [pc, #120]	; 9370 <gpio_set_function+0xd4>
    92f4:	e5936004 	ldr	r6, [r3, #4]
    92f8:	ea00000c 	b	9330 <gpio_set_function+0x94>
    92fc:	e59f306c 	ldr	r3, [pc, #108]	; 9370 <gpio_set_function+0xd4>
    9300:	e5936008 	ldr	r6, [r3, #8]
    9304:	ea000009 	b	9330 <gpio_set_function+0x94>
    9308:	e59f3060 	ldr	r3, [pc, #96]	; 9370 <gpio_set_function+0xd4>
    930c:	e593600c 	ldr	r6, [r3, #12]
    9310:	ea000006 	b	9330 <gpio_set_function+0x94>
    9314:	e59f3054 	ldr	r3, [pc, #84]	; 9370 <gpio_set_function+0xd4>
    9318:	e5936010 	ldr	r6, [r3, #16]
    931c:	ea000003 	b	9330 <gpio_set_function+0x94>
    9320:	e59f3048 	ldr	r3, [pc, #72]	; 9370 <gpio_set_function+0xd4>
    9324:	e5936014 	ldr	r6, [r3, #20]
    9328:	ea000000 	b	9330 <gpio_set_function+0x94>
    932c:	e3a06000 	mov	r6, #0
    9330:	e1a00006 	mov	r0, r6
    9334:	eb000107 	bl	9758 <get32>
    9338:	e59f302c 	ldr	r3, [pc, #44]	; 936c <gpio_set_function+0xd0>
    933c:	e0832493 	umull	r2, r3, r3, r4
    9340:	e1a031a3 	lsr	r3, r3, #3
    9344:	e0833103 	add	r3, r3, r3, lsl #2
    9348:	e1a03083 	lsl	r3, r3, #1
    934c:	e0633004 	rsb	r3, r3, r4
    9350:	e0833083 	add	r3, r3, r3, lsl #1
    9354:	e3a01007 	mov	r1, #7
    9358:	e1c01311 	bic	r1, r0, r1, lsl r3
    935c:	e1a00006 	mov	r0, r6
    9360:	e1811315 	orr	r1, r1, r5, lsl r3
    9364:	eb0000ef 	bl	9728 <put32>
    9368:	e8bd8070 	pop	{r4, r5, r6, pc}
    936c:	cccccccd 	stclgt	12, cr12, [ip], {205}	; 0xcd
    9370:	0000977c 	andeq	r9, r0, ip, ror r7

00009374 <gpio_toggle>:
    9374:	e92d4008 	push	{r3, lr}
    9378:	e350001f 	cmp	r0, #31
    937c:	88bd8008 	pophi	{r3, pc}
    9380:	959f3020 	ldrls	r3, [pc, #32]	; 93a8 <gpio_toggle+0x34>
    9384:	95932018 	ldrls	r2, [r3, #24]
    9388:	859f3018 	ldrhi	r3, [pc, #24]	; 93a8 <gpio_toggle+0x34>
    938c:	8593201c 	ldrhi	r2, [r3, #28]
    9390:	e200301f 	and	r3, r0, #31
    9394:	e1a00002 	mov	r0, r2
    9398:	e3a01001 	mov	r1, #1
    939c:	e1a01311 	lsl	r1, r1, r3
    93a0:	eb0000e0 	bl	9728 <put32>
    93a4:	e8bd8008 	pop	{r3, pc}
    93a8:	0000977c 	andeq	r9, r0, ip, ror r7

000093ac <is_gpio_int>:
    93ac:	e92d4008 	push	{r3, lr}
    93b0:	e59f301c 	ldr	r3, [pc, #28]	; 93d4 <is_gpio_int+0x28>
    93b4:	e5930030 	ldr	r0, [r3, #48]	; 0x30
    93b8:	eb0000e6 	bl	9758 <get32>
    93bc:	e3500000 	cmp	r0, #0
    93c0:	0a000001 	beq	93cc <is_gpio_int+0x20>
    93c4:	e3a00001 	mov	r0, #1
    93c8:	e8bd8008 	pop	{r3, pc}
    93cc:	e3a00000 	mov	r0, #0
    93d0:	e8bd8008 	pop	{r3, pc}
    93d4:	0000977c 	andeq	r9, r0, ip, ror r7

000093d8 <gpio_int_rising_edge>:
    93d8:	e92d4038 	push	{r3, r4, r5, lr}
    93dc:	e1a04000 	mov	r4, r0
    93e0:	e350001f 	cmp	r0, #31
    93e4:	88bd8038 	pophi	{r3, r4, r5, pc}
    93e8:	eb0000c8 	bl	9710 <dev_barrier>
    93ec:	e354001f 	cmp	r4, #31
    93f0:	8a000007 	bhi	9414 <gpio_int_rising_edge+0x3c>
    93f4:	e59f505c 	ldr	r5, [pc, #92]	; 9458 <gpio_int_rising_edge+0x80>
    93f8:	e5950034 	ldr	r0, [r5, #52]	; 0x34
    93fc:	eb0000d5 	bl	9758 <get32>
    9400:	e3a01001 	mov	r1, #1
    9404:	e1801411 	orr	r1, r0, r1, lsl r4
    9408:	e5950034 	ldr	r0, [r5, #52]	; 0x34
    940c:	eb0000c5 	bl	9728 <put32>
    9410:	ea000007 	b	9434 <gpio_int_rising_edge+0x5c>
    9414:	e59f503c 	ldr	r5, [pc, #60]	; 9458 <gpio_int_rising_edge+0x80>
    9418:	e5950038 	ldr	r0, [r5, #56]	; 0x38
    941c:	eb0000cd 	bl	9758 <get32>
    9420:	e204401f 	and	r4, r4, #31
    9424:	e3a01001 	mov	r1, #1
    9428:	e1801411 	orr	r1, r0, r1, lsl r4
    942c:	e5950038 	ldr	r0, [r5, #56]	; 0x38
    9430:	eb0000bc 	bl	9728 <put32>
    9434:	eb0000b5 	bl	9710 <dev_barrier>
    9438:	e59f4018 	ldr	r4, [pc, #24]	; 9458 <gpio_int_rising_edge+0x80>
    943c:	e594003c 	ldr	r0, [r4, #60]	; 0x3c
    9440:	eb0000c4 	bl	9758 <get32>
    9444:	e3801802 	orr	r1, r0, #131072	; 0x20000
    9448:	e594003c 	ldr	r0, [r4, #60]	; 0x3c
    944c:	eb0000b5 	bl	9728 <put32>
    9450:	eb0000ae 	bl	9710 <dev_barrier>
    9454:	e8bd8038 	pop	{r3, r4, r5, pc}
    9458:	0000977c 	andeq	r9, r0, ip, ror r7

0000945c <gpio_int_falling_edge>:
    945c:	e92d4038 	push	{r3, r4, r5, lr}
    9460:	e1a04000 	mov	r4, r0
    9464:	e350001f 	cmp	r0, #31
    9468:	88bd8038 	pophi	{r3, r4, r5, pc}
    946c:	eb0000a7 	bl	9710 <dev_barrier>
    9470:	e354001f 	cmp	r4, #31
    9474:	8a000007 	bhi	9498 <gpio_int_falling_edge+0x3c>
    9478:	e59f505c 	ldr	r5, [pc, #92]	; 94dc <gpio_int_falling_edge+0x80>
    947c:	e5950040 	ldr	r0, [r5, #64]	; 0x40
    9480:	eb0000b4 	bl	9758 <get32>
    9484:	e3a01001 	mov	r1, #1
    9488:	e1801411 	orr	r1, r0, r1, lsl r4
    948c:	e5950040 	ldr	r0, [r5, #64]	; 0x40
    9490:	eb0000a4 	bl	9728 <put32>
    9494:	ea000007 	b	94b8 <gpio_int_falling_edge+0x5c>
    9498:	e59f503c 	ldr	r5, [pc, #60]	; 94dc <gpio_int_falling_edge+0x80>
    949c:	e5950044 	ldr	r0, [r5, #68]	; 0x44
    94a0:	eb0000ac 	bl	9758 <get32>
    94a4:	e204401f 	and	r4, r4, #31
    94a8:	e3a01001 	mov	r1, #1
    94ac:	e1801411 	orr	r1, r0, r1, lsl r4
    94b0:	e5950044 	ldr	r0, [r5, #68]	; 0x44
    94b4:	eb00009b 	bl	9728 <put32>
    94b8:	eb000094 	bl	9710 <dev_barrier>
    94bc:	e59f4018 	ldr	r4, [pc, #24]	; 94dc <gpio_int_falling_edge+0x80>
    94c0:	e594003c 	ldr	r0, [r4, #60]	; 0x3c
    94c4:	eb0000a3 	bl	9758 <get32>
    94c8:	e3801601 	orr	r1, r0, #1048576	; 0x100000
    94cc:	e594003c 	ldr	r0, [r4, #60]	; 0x3c
    94d0:	eb000094 	bl	9728 <put32>
    94d4:	eb00008d 	bl	9710 <dev_barrier>
    94d8:	e8bd8038 	pop	{r3, r4, r5, pc}
    94dc:	0000977c 	andeq	r9, r0, ip, ror r7

000094e0 <gpio_event_detected>:
    94e0:	e92d4010 	push	{r4, lr}
    94e4:	e1a04000 	mov	r4, r0
    94e8:	e350001f 	cmp	r0, #31
    94ec:	8a000019 	bhi	9558 <gpio_event_detected+0x78>
    94f0:	eb000086 	bl	9710 <dev_barrier>
    94f4:	e354001f 	cmp	r4, #31
    94f8:	8a000008 	bhi	9520 <gpio_event_detected+0x40>
    94fc:	e59f305c 	ldr	r3, [pc, #92]	; 9560 <gpio_event_detected+0x80>
    9500:	e5930048 	ldr	r0, [r3, #72]	; 0x48
    9504:	eb000093 	bl	9758 <get32>
    9508:	e3a03001 	mov	r3, #1
    950c:	e0103413 	ands	r3, r0, r3, lsl r4
    9510:	0a00000d 	beq	954c <gpio_event_detected+0x6c>
    9514:	eb00007d 	bl	9710 <dev_barrier>
    9518:	e3a00001 	mov	r0, #1
    951c:	e8bd8010 	pop	{r4, pc}
    9520:	e59f3038 	ldr	r3, [pc, #56]	; 9560 <gpio_event_detected+0x80>
    9524:	e593004c 	ldr	r0, [r3, #76]	; 0x4c
    9528:	eb00008a 	bl	9758 <get32>
    952c:	e3a03001 	mov	r3, #1
    9530:	e0004413 	and	r4, r0, r3, lsl r4
    9534:	eb000075 	bl	9710 <dev_barrier>
    9538:	e3540000 	cmp	r4, #0
    953c:	0a000002 	beq	954c <gpio_event_detected+0x6c>
    9540:	eb000072 	bl	9710 <dev_barrier>
    9544:	e3a00001 	mov	r0, #1
    9548:	e8bd8010 	pop	{r4, pc}
    954c:	eb00006f 	bl	9710 <dev_barrier>
    9550:	e3a00000 	mov	r0, #0
    9554:	e8bd8010 	pop	{r4, pc}
    9558:	e3e00000 	mvn	r0, #0
    955c:	e8bd8010 	pop	{r4, pc}
    9560:	0000977c 	andeq	r9, r0, ip, ror r7

00009564 <gpio_event_clear>:
    9564:	e92d4010 	push	{r4, lr}
    9568:	e1a04000 	mov	r4, r0
    956c:	e350001f 	cmp	r0, #31
    9570:	88bd8010 	pophi	{r4, pc}
    9574:	eb000065 	bl	9710 <dev_barrier>
    9578:	e354001f 	cmp	r4, #31
    957c:	8a000005 	bhi	9598 <gpio_event_clear+0x34>
    9580:	e59f3030 	ldr	r3, [pc, #48]	; 95b8 <gpio_event_clear+0x54>
    9584:	e5930048 	ldr	r0, [r3, #72]	; 0x48
    9588:	e3a01001 	mov	r1, #1
    958c:	e1a01411 	lsl	r1, r1, r4
    9590:	eb000064 	bl	9728 <put32>
    9594:	ea000005 	b	95b0 <gpio_event_clear+0x4c>
    9598:	e204401f 	and	r4, r4, #31
    959c:	e59f3014 	ldr	r3, [pc, #20]	; 95b8 <gpio_event_clear+0x54>
    95a0:	e593004c 	ldr	r0, [r3, #76]	; 0x4c
    95a4:	e3a01001 	mov	r1, #1
    95a8:	e1a01411 	lsl	r1, r1, r4
    95ac:	eb00005d 	bl	9728 <put32>
    95b0:	eb000056 	bl	9710 <dev_barrier>
    95b4:	e8bd8010 	pop	{r4, pc}
    95b8:	0000977c 	andeq	r9, r0, ip, ror r7

000095bc <uart_init>:
    95bc:	e92d4038 	push	{r3, r4, r5, lr}
    95c0:	eb000052 	bl	9710 <dev_barrier>
    95c4:	e3a0000e 	mov	r0, #14
    95c8:	e3a01002 	mov	r1, #2
    95cc:	ebffff32 	bl	929c <gpio_set_function>
    95d0:	e3a0000f 	mov	r0, #15
    95d4:	e3a01002 	mov	r1, #2
    95d8:	ebffff2f 	bl	929c <gpio_set_function>
    95dc:	eb00004b 	bl	9710 <dev_barrier>
    95e0:	e59f4068 	ldr	r4, [pc, #104]	; 9650 <uart_init+0x94>
    95e4:	e5945000 	ldr	r5, [r4]
    95e8:	e1a00005 	mov	r0, r5
    95ec:	eb000059 	bl	9758 <get32>
    95f0:	e3801001 	orr	r1, r0, #1
    95f4:	e1a00005 	mov	r0, r5
    95f8:	eb00004a 	bl	9728 <put32>
    95fc:	eb000043 	bl	9710 <dev_barrier>
    9600:	e5940004 	ldr	r0, [r4, #4]
    9604:	e3a01000 	mov	r1, #0
    9608:	eb000046 	bl	9728 <put32>
    960c:	e5940008 	ldr	r0, [r4, #8]
    9610:	e3a01000 	mov	r1, #0
    9614:	eb000043 	bl	9728 <put32>
    9618:	e594000c 	ldr	r0, [r4, #12]
    961c:	e3a01006 	mov	r1, #6
    9620:	eb000040 	bl	9728 <put32>
    9624:	e5940010 	ldr	r0, [r4, #16]
    9628:	e3a01003 	mov	r1, #3
    962c:	eb00003d 	bl	9728 <put32>
    9630:	e5940014 	ldr	r0, [r4, #20]
    9634:	e59f1018 	ldr	r1, [pc, #24]	; 9654 <uart_init+0x98>
    9638:	eb00003a 	bl	9728 <put32>
    963c:	e5940004 	ldr	r0, [r4, #4]
    9640:	e3a01003 	mov	r1, #3
    9644:	eb000037 	bl	9728 <put32>
    9648:	eb000030 	bl	9710 <dev_barrier>
    964c:	e8bd8038 	pop	{r3, r4, r5, pc}
    9650:	000097dc 	ldrdeq	r9, [r0], -ip
    9654:	0000010e 	andeq	r0, r0, lr, lsl #2

00009658 <uart_can_getc>:
    9658:	e92d4008 	push	{r3, lr}
    965c:	e59f300c 	ldr	r3, [pc, #12]	; 9670 <uart_can_getc+0x18>
    9660:	e5930018 	ldr	r0, [r3, #24]
    9664:	eb00003b 	bl	9758 <get32>
    9668:	e2000001 	and	r0, r0, #1
    966c:	e8bd8008 	pop	{r3, pc}
    9670:	000097dc 	ldrdeq	r9, [r0], -ip

00009674 <uart_getc>:
    9674:	e92d4008 	push	{r3, lr}
    9678:	ebfffff6 	bl	9658 <uart_can_getc>
    967c:	e3500000 	cmp	r0, #0
    9680:	0afffffc 	beq	9678 <uart_getc+0x4>
    9684:	e59f300c 	ldr	r3, [pc, #12]	; 9698 <uart_getc+0x24>
    9688:	e593001c 	ldr	r0, [r3, #28]
    968c:	eb000031 	bl	9758 <get32>
    9690:	e6ef0070 	uxtb	r0, r0
    9694:	e8bd8008 	pop	{r3, pc}
    9698:	000097dc 	ldrdeq	r9, [r0], -ip

0000969c <uart_can_putc>:
    969c:	e92d4008 	push	{r3, lr}
    96a0:	e59f300c 	ldr	r3, [pc, #12]	; 96b4 <uart_can_putc+0x18>
    96a4:	e5930018 	ldr	r0, [r3, #24]
    96a8:	eb00002a 	bl	9758 <get32>
    96ac:	e2000020 	and	r0, r0, #32
    96b0:	e8bd8008 	pop	{r3, pc}
    96b4:	000097dc 	ldrdeq	r9, [r0], -ip

000096b8 <uart_putc>:
    96b8:	e92d4010 	push	{r4, lr}
    96bc:	e1a04000 	mov	r4, r0
    96c0:	ebfffff5 	bl	969c <uart_can_putc>
    96c4:	e3500000 	cmp	r0, #0
    96c8:	0afffffc 	beq	96c0 <uart_putc+0x8>
    96cc:	e59f300c 	ldr	r3, [pc, #12]	; 96e0 <uart_putc+0x28>
    96d0:	e593001c 	ldr	r0, [r3, #28]
    96d4:	e1a01004 	mov	r1, r4
    96d8:	eb000012 	bl	9728 <put32>
    96dc:	e8bd8010 	pop	{r4, pc}
    96e0:	000097dc 	ldrdeq	r9, [r0], -ip

000096e4 <uart_has_data>:
    96e4:	e92d4008 	push	{r3, lr}
    96e8:	ebffffda 	bl	9658 <uart_can_getc>
    96ec:	e8bd8008 	pop	{r3, pc}

000096f0 <uart_getc_async>:
    96f0:	e92d4008 	push	{r3, lr}
    96f4:	ebfffffa 	bl	96e4 <uart_has_data>
    96f8:	e3500000 	cmp	r0, #0
    96fc:	0a000001 	beq	9708 <uart_getc_async+0x18>
    9700:	ebffffdb 	bl	9674 <uart_getc>
    9704:	e8bd8008 	pop	{r3, pc}
    9708:	e3e00000 	mvn	r0, #0
    970c:	e8bd8008 	pop	{r3, pc}

00009710 <dev_barrier>:
    9710:	ea000002 	b	9720 <dsb>

00009714 <dmb>:
    9714:	e3a00000 	mov	r0, #0
    9718:	ee070fba 	mcr	15, 0, r0, cr7, cr10, {5}
    971c:	e12fff1e 	bx	lr

00009720 <dsb>:
    9720:	ee070f9a 	mcr	15, 0, r0, cr7, cr10, {4}
    9724:	e12fff1e 	bx	lr

00009728 <put32>:
    9728:	e5801000 	str	r1, [r0]
    972c:	e12fff1e 	bx	lr

00009730 <PUT32>:
    9730:	e5801000 	str	r1, [r0]
    9734:	e12fff1e 	bx	lr

00009738 <put16>:
    9738:	e1c010b0 	strh	r1, [r0]
    973c:	e12fff1e 	bx	lr

00009740 <PUT16>:
    9740:	e1c010b0 	strh	r1, [r0]
    9744:	e12fff1e 	bx	lr

00009748 <put8>:
    9748:	e5c01000 	strb	r1, [r0]
    974c:	e12fff1e 	bx	lr

00009750 <PUT8>:
    9750:	e5c01000 	strb	r1, [r0]
    9754:	e12fff1e 	bx	lr

00009758 <get32>:
    9758:	e5900000 	ldr	r0, [r0]
    975c:	e12fff1e 	bx	lr

00009760 <GET32>:
    9760:	e5900000 	ldr	r0, [r0]
    9764:	e12fff1e 	bx	lr

00009768 <GETPC>:
    9768:	e1a0000e 	mov	r0, lr
    976c:	e12fff1e 	bx	lr

00009770 <dummy>:
    9770:	e12fff1e 	bx	lr

Disassembly of section .data:

00009774 <rpi_putchar>:
    9774:	0000895c 	andeq	r8, r0, ip, asr r9

00009778 <putk>:
    9778:	00008998 	muleq	r0, r8, r9

0000977c <GPFSEL0>:
    977c:	20200000 	eorcs	r0, r0, r0

00009780 <GPFSEL1>:
    9780:	20200004 	eorcs	r0, r0, r4

00009784 <GPFSEL2>:
    9784:	20200008 	eorcs	r0, r0, r8

00009788 <GPFSEL3>:
    9788:	2020000c 	eorcs	r0, r0, ip

0000978c <GPFSEL4>:
    978c:	20200010 	eorcs	r0, r0, r0, lsl r0

00009790 <GPFSEL5>:
    9790:	20200014 	eorcs	r0, r0, r4, lsl r0

00009794 <GPSET0>:
    9794:	2020001c 	eorcs	r0, r0, ip, lsl r0

00009798 <GPSET1>:
    9798:	20200020 	eorcs	r0, r0, r0, lsr #32

0000979c <GPCLR0>:
    979c:	20200028 	eorcs	r0, r0, r8, lsr #32

000097a0 <GPCLR1>:
    97a0:	2020002c 	eorcs	r0, r0, ip, lsr #32

000097a4 <GPLEV0>:
    97a4:	20200034 	eorcs	r0, r0, r4, lsr r0

000097a8 <GPLEV1>:
    97a8:	20200038 	eorcs	r0, r0, r8, lsr r0

000097ac <IRQ_PENDING_2>:
    97ac:	2000b208 	andcs	fp, r0, r8, lsl #4

000097b0 <GPREN0>:
    97b0:	2020004c 	eorcs	r0, r0, ip, asr #32

000097b4 <GPREN1>:
    97b4:	20200050 	eorcs	r0, r0, r0, asr r0

000097b8 <ENABLE_IRQS_2>:
    97b8:	2000b214 	andcs	fp, r0, r4, lsl r2

000097bc <GPFEN0>:
    97bc:	20200058 	eorcs	r0, r0, r8, asr r0

000097c0 <GPFEN1>:
    97c0:	2020005c 	eorcs	r0, r0, ip, asr r0

000097c4 <GPEDS0>:
    97c4:	20200040 	eorcs	r0, r0, r0, asr #32

000097c8 <GPEDS1>:
    97c8:	20200044 	eorcs	r0, r0, r4, asr #32

000097cc <IRQ_PENDING_1>:
    97cc:	2000b204 	andcs	fp, r0, r4, lsl #4

000097d0 <gpio_clr0>:
    97d0:	20200028 	eorcs	r0, r0, r8, lsr #32

000097d4 <gpio_set0>:
    97d4:	2020001c 	eorcs	r0, r0, ip, lsl r0

000097d8 <gpio_fsel0>:
    97d8:	20200000 	eorcs	r0, r0, r0

000097dc <AUX_ENABLES>:
    97dc:	20215004 	eorcs	r5, r1, r4

000097e0 <AUX_MU_CNTL_REG>:
    97e0:	20215060 	eorcs	r5, r1, r0, rrx

000097e4 <AUX_MU_IER_REG>:
    97e4:	20215044 	eorcs	r5, r1, r4, asr #32

000097e8 <AUX_MU_IIR_REG>:
    97e8:	20215048 	eorcs	r5, r1, r8, asr #32

000097ec <AUX_MU_LCR_REG>:
    97ec:	2021504c 	eorcs	r5, r1, ip, asr #32

000097f0 <AUX_MU_BAUD_REG>:
    97f0:	20215068 	eorcs	r5, r1, r8, rrx

000097f4 <AUX_MU_LSR_REG>:
    97f4:	20215054 	eorcs	r5, r1, r4, asr r0

000097f8 <AUX_MU_IO_REG>:
    97f8:	20215040 	eorcs	r5, r1, r0, asr #32

000097fc <AUX_MU_STAT_REG>:
    97fc:	20215064 	eorcs	r5, r1, r4, rrx

00009800 <AUX_MU_SCRATCH>:
    9800:	2021505c 	eorcs	r5, r1, ip, asr r0

00009804 <AUX_MU_MSR_REG>:
    9804:	20215058 	eorcs	r5, r1, r8, asr r0

00009808 <AUX_MU_MCR_REG>:
    9808:	20215050 	eorcs	r5, r1, r0, asr r0

0000980c <AUX_IRQ>:
    980c:	20215000 	eorcs	r5, r1, r0

Disassembly of section .rodata:

00009810 <__FUNCTION__.4363>:
    9810:	735f676d 	cmpvc	pc, #28573696	; 0x1b40000
    9814:	656c6163 	strbvs	r6, [ip, #-355]!	; 0x163
    9818:	00000064 	andeq	r0, r0, r4, rrx

0000981c <__FUNCTION__.4358>:
    981c:	725f676d 	subsvc	r6, pc, #28573696	; 0x1b40000
    9820:	00007761 	andeq	r7, r0, r1, ror #14

00009824 <__FUNCTION__.4389>:
    9824:	65636361 	strbvs	r6, [r3, #-865]!	; 0x361
    9828:	61685f6c 	cmnvs	r8, ip, ror #30
    982c:	61645f73 	smcvs	17907	; 0x45f3
    9830:	00006174 	andeq	r6, r0, r4, ror r1

00009834 <__FUNCTION__.4395>:
    9834:	65636361 	strbvs	r6, [r3, #-865]!	; 0x361
    9838:	64725f6c 	ldrbtvs	r5, [r2], #-3948	; 0xf6c
    983c:	00000000 	andeq	r0, r0, r0

00009840 <__FUNCTION__.4404>:
    9840:	65636361 	strbvs	r6, [r3, #-865]!	; 0x361
    9844:	6e695f6c 	cdpvs	15, 6, cr5, cr9, cr12, {3}
    9848:	00007469 	andeq	r7, r0, r9, ror #8

0000984c <__FUNCTION__.4427>:
    984c:	6d746f6e 	ldclvs	15, cr6, [r4, #-440]!	; 0xfffffe48
    9850:	006e6961 	rsbeq	r6, lr, r1, ror #18
    9854:	494e4150 	stmdbmi	lr, {r4, r6, r8, lr}^
    9858:	73253a43 	teqvc	r5, #274432	; 0x43000
    985c:	3a73253a 	bcc	1cd2d4c <__bss_end__+0x1cc8c44>
    9860:	693a6425 	ldmdbvs	sl!, {r0, r2, r5, sl, sp, lr}
    9864:	656c706d 	strbvs	r7, [ip, #-109]!	; 0x6d
    9868:	746e656d 	strbtvc	r6, [lr], #-1389	; 0x56d
    986c:	69687420 	stmdbvs	r8!, {r5, sl, ip, sp, lr}^
    9870:	75662073 	strbvc	r2, [r6, #-115]!	; 0x73
    9874:	6974636e 	ldmdbvs	r4!, {r1, r2, r3, r5, r6, r8, r9, sp, lr}^
    9878:	0a216e6f 	beq	86523c <__bss_end__+0x85b134>
    987c:	0000000a 	andeq	r0, r0, sl
    9880:	65636361 	strbvs	r6, [r3, #-865]!	; 0x361
    9884:	00632e6c 	rsbeq	r2, r3, ip, ror #28
    9888:	494e4150 	stmdbmi	lr, {r4, r6, r8, lr}^
    988c:	73253a43 	teqvc	r5, #274432	; 0x43000
    9890:	3a73253a 	bcc	1cd2d80 <__bss_end__+0x1cc8c78>
    9894:	613a6425 	teqvs	sl, r5, lsr #8
    9898:	6c656363 	stclvs	3, cr6, [r5], #-396	; 0xfffffe74
    989c:	7a68203a 	bvc	1a1198c <__bss_end__+0x1a07884>
    98a0:	74657320 	strbtvc	r7, [r5], #-800	; 0x320
    98a4:	676e6974 			; <UNDEFINED> instruction: 0x676e6974
    98a8:	20666f20 	rsbcs	r6, r6, r0, lsr #30
    98ac:	64207825 	strtvs	r7, [r0], #-2085	; 0x825
    98b0:	2073656f 	rsbscs	r6, r3, pc, ror #10
    98b4:	20746f6e 	rsbscs	r6, r4, lr, ror #30
    98b8:	65707061 	ldrbvs	r7, [r0, #-97]!	; 0x61
    98bc:	74207261 	strtvc	r7, [r0], #-609	; 0x261
    98c0:	6f77206f 	svcvs	0x0077206f
    98c4:	0a0a6b72 	beq	2a4694 <__bss_end__+0x29a58c>
    98c8:	00000000 	andeq	r0, r0, r0
    98cc:	494e4150 	stmdbmi	lr, {r4, r6, r8, lr}^
    98d0:	73253a43 	teqvc	r5, #274432	; 0x43000
    98d4:	3a73253a 	bcc	1cd2dc4 <__bss_end__+0x1cc8cbc>
    98d8:	693a6425 	ldmdbvs	sl!, {r0, r2, r5, sl, sp, lr}
    98dc:	6c61766e 	stclvs	6, cr7, [r1], #-440	; 0xfffffe48
    98e0:	47206469 	strmi	r6, [r0, -r9, ror #8]!
    98e4:	6c617620 	stclvs	6, cr7, [r1], #-128	; 0xffffff80
    98e8:	203a6575 	eorscs	r6, sl, r5, ror r5
    98ec:	0a0a7825 	beq	2a7988 <__bss_end__+0x29d880>
    98f0:	00000000 	andeq	r0, r0, r0
    98f4:	494e4150 	stmdbmi	lr, {r4, r6, r8, lr}^
    98f8:	73253a43 	teqvc	r5, #274432	; 0x43000
    98fc:	3a73253a 	bcc	1cd2dec <__bss_end__+0x1cc8ce4>
    9900:	693a6425 	ldmdbvs	sl!, {r0, r2, r5, sl, sp, lr}
    9904:	6c61766e 	stclvs	6, cr7, [r1], #-440	; 0xfffffe48
    9908:	68206469 	stmdavs	r0!, {r0, r3, r5, r6, sl, sp, lr}
    990c:	25203a7a 	strcs	r3, [r0, #-2682]!	; 0xa7a
    9910:	000a0a78 	andeq	r0, sl, r8, ror sl
    9914:	494e4150 	stmdbmi	lr, {r4, r6, r8, lr}^
    9918:	73253a43 	teqvc	r5, #274432	; 0x43000
    991c:	3a73253a 	bcc	1cd2e0c <__bss_end__+0x1cc8d04>
    9920:	6c3a6425 	cfldrsvs	mvf6, [sl], #-148	; 0xffffff6c
    9924:	6c616765 	stclvs	7, cr6, [r1], #-404	; 0xfffffe6c
    9928:	625f675f 	subsvs	r6, pc, #24903680	; 0x17c0000
    992c:	28737469 	ldmdacs	r3!, {r0, r3, r5, r6, sl, ip, sp, lr}^
    9930:	69625f67 	stmdbvs	r2!, {r0, r1, r2, r5, r6, r8, r9, sl, fp, ip, lr}^
    9934:	0a297374 	beq	a6670c <__bss_end__+0xa5c604>
    9938:	00000000 	andeq	r0, r0, r0
    993c:	494e4150 	stmdbmi	lr, {r4, r6, r8, lr}^
    9940:	73253a43 	teqvc	r5, #274432	; 0x43000
    9944:	3a73253a 	bcc	1cd2e34 <__bss_end__+0x1cc8d2c>
    9948:	493a6425 	ldmdbmi	sl!, {r0, r2, r5, sl, sp, lr}
    994c:	6974696e 	ldmdbvs	r4!, {r1, r2, r3, r5, r6, r8, fp, sp, lr}^
    9950:	70206c61 	eorvc	r6, r0, r1, ror #24
    9954:	65626f72 	strbvs	r6, [r2, #-3954]!	; 0xf72
    9958:	69616620 	stmdbvs	r1!, {r5, r9, sl, sp, lr}^
    995c:	3a64656c 	bcc	1922f14 <__bss_end__+0x1918e0c>
    9960:	70786520 	rsbsvc	r6, r8, r0, lsr #10
    9964:	65746365 	ldrbvs	r6, [r4, #-869]!	; 0x365
    9968:	78252064 	stmdavc	r5!, {r2, r5, r6, sp}
    996c:	6f67202c 	svcvs	0x0067202c
    9970:	78252074 	stmdavc	r5!, {r2, r4, r5, r6, sp}
    9974:	00000a0a 	andeq	r0, r0, sl, lsl #20
    9978:	43435553 	movtmi	r5, #13651	; 0x3553
    997c:	3a535345 	bcc	14de698 <__bss_end__+0x14d4590>
    9980:	6d736c20 	ldclvs	12, cr6, [r3, #-128]!	; 0xffffff80
    9984:	6b636120 	blvs	18e1e0c <__bss_end__+0x18d7d04>
    9988:	6c776f6e 	ldclvs	15, cr6, [r7], #-440	; 0xfffffe48
    998c:	65676465 	strbvs	r6, [r7, #-1125]!	; 0x465
    9990:	756f2064 	strbvc	r2, [pc, #-100]!	; 9934 <__FUNCTION__.4427+0xe8>
    9994:	69702072 	ldmdbvs	r0!, {r1, r4, r5, r6, sp}^
    9998:	2121676e 	teqcs	r1, lr, ror #14
    999c:	0000000a 	andeq	r0, r0, sl

000099a0 <__FUNCTION__.4436>:
    99a0:	63656863 	cmnvs	r5, #6488064	; 0x630000
    99a4:	616c5f6b 	cmnvs	ip, fp, ror #30
    99a8:	74756f79 	ldrbtvc	r6, [r5], #-3961	; 0xf79
    99ac:	00000000 	andeq	r0, r0, r0

000099b0 <__FUNCTION__.4342>:
    99b0:	72656678 	rsbvc	r6, r5, #120, 12	; 0x7800000
    99b4:	646e655f 	strbtvs	r6, [lr], #-1375	; 0x55f
    99b8:	00000000 	andeq	r0, r0, r0

000099bc <__FUNCTION__.4321>:
    99bc:	72656678 	rsbvc	r6, r5, #120, 12	; 0x7800000
    99c0:	6174735f 	cmnvs	r4, pc, asr r3
    99c4:	00007472 	andeq	r7, r0, r2, ror r4

000099c8 <__FUNCTION__.4352>:
    99c8:	5f633269 	svcpl	0x00633269
    99cc:	74697277 	strbtvc	r7, [r9], #-631	; 0x277
    99d0:	00000065 	andeq	r0, r0, r5, rrx

000099d4 <__FUNCTION__.4365>:
    99d4:	5f633269 	svcpl	0x00633269
    99d8:	64616572 	strbtvs	r6, [r1], #-1394	; 0x572
    99dc:	00000000 	andeq	r0, r0, r0

000099e0 <__FUNCTION__.4407>:
    99e0:	5f633269 	svcpl	0x00633269
    99e4:	74696e69 	strbtvc	r6, [r9], #-3689	; 0xe69
    99e8:	00000000 	andeq	r0, r0, r0
    99ec:	2e633269 	cdpcs	2, 6, cr3, cr3, cr9, {3}
    99f0:	00000063 	andeq	r0, r0, r3, rrx
    99f4:	494e4150 	stmdbmi	lr, {r4, r6, r8, lr}^
    99f8:	73253a43 	teqvc	r5, #274432	; 0x43000
    99fc:	3a73253a 	bcc	1cd2eec <__bss_end__+0x1cc8de4>
    9a00:	6f3a6425 	svcvs	0x003a6425
    9a04:	65736666 	ldrbvs	r6, [r3, #-1638]!	; 0x666
    9a08:	72772074 	rsbsvc	r2, r7, #116	; 0x74
    9a0c:	3a676e6f 	bcc	19e53d0 <__bss_end__+0x19db2c8>
    9a10:	70786520 	rsbsvc	r6, r8, r0, lsr #10
    9a14:	20746365 	rsbscs	r6, r4, r5, ror #6
    9a18:	67207825 	strvs	r7, [r0, -r5, lsr #16]!
    9a1c:	2520746f 	strcs	r7, [r0, #-1135]!	; 0x46f
    9a20:	73252078 	teqvc	r5, #120	; 0x78
    9a24:	666f5b20 	strbtvs	r5, [pc], -r0, lsr #22
    9a28:	64253d66 	strtvs	r3, [r5], #-3430	; 0xd66
    9a2c:	69626e2c 	stmdbvs	r2!, {r2, r3, r5, r9, sl, fp, sp, lr}^
    9a30:	253d7374 	ldrcs	r7, [sp, #-884]!	; 0x374
    9a34:	0a0a5d64 	beq	2a0fcc <__bss_end__+0x296ec4>
    9a38:	00000000 	andeq	r0, r0, r0
    9a3c:	64616572 	strbtvs	r6, [r1], #-1394	; 0x572
    9a40:	00000000 	andeq	r0, r0, r0
    9a44:	61656c63 	cmnvs	r5, r3, ror #24
    9a48:	00000072 	andeq	r0, r0, r2, ror r0
    9a4c:	494e4150 	stmdbmi	lr, {r4, r6, r8, lr}^
    9a50:	73253a43 	teqvc	r5, #274432	; 0x43000
    9a54:	3a73253a 	bcc	1cd2f44 <__bss_end__+0x1cc8e3c>
    9a58:	773a6425 	ldrvc	r6, [sl, -r5, lsr #8]!
    9a5c:	68746469 	ldmdavs	r4!, {r0, r3, r5, r6, sl, sp, lr}^
    9a60:	6f727720 	svcvs	0x00727720
    9a64:	203a676e 	eorscs	r6, sl, lr, ror #14
    9a68:	65707865 	ldrbvs	r7, [r0, #-2149]!	; 0x865
    9a6c:	25207463 	strcs	r7, [r0, #-1123]!	; 0x463
    9a70:	6f672078 	svcvs	0x00672078
    9a74:	78252074 	stmdavc	r5!, {r2, r4, r5, r6, sp}
    9a78:	20732520 	rsbscs	r2, r3, r0, lsr #10
    9a7c:	66666f5b 	uqsaxvs	r6, r6, fp
    9a80:	2c64253d 	cfstr64cs	mvdx2, [r4], #-244	; 0xffffff0c
    9a84:	7469626e 	strbtvc	r6, [r9], #-622	; 0x26e
    9a88:	64253d73 	strtvs	r3, [r5], #-3443	; 0xd73
    9a8c:	000a0a5d 	andeq	r0, sl, sp, asr sl
    9a90:	00007473 	andeq	r7, r0, r3, ror r4
    9a94:	64746e69 	ldrbtvs	r6, [r4], #-3689	; 0xe69
    9a98:	00000000 	andeq	r0, r0, r0
    9a9c:	74746e69 	ldrbtvc	r6, [r4], #-3689	; 0xe69
    9aa0:	00000000 	andeq	r0, r0, r0
    9aa4:	72746e69 	rsbsvc	r6, r4, #1680	; 0x690
    9aa8:	00000000 	andeq	r0, r0, r0
    9aac:	65633269 	strbvs	r3, [r3, #-617]!	; 0x269
    9ab0:	0000006e 	andeq	r0, r0, lr, rrx
    9ab4:	00006174 	andeq	r6, r0, r4, ror r1
    9ab8:	656e6f64 	strbvs	r6, [lr, #-3940]!	; 0xf64
    9abc:	00000000 	andeq	r0, r0, r0
    9ac0:	00777874 	rsbseq	r7, r7, r4, ror r8
    9ac4:	00727872 	rsbseq	r7, r2, r2, ror r8
    9ac8:	00647874 	rsbeq	r7, r4, r4, ror r8
    9acc:	00647872 	rsbeq	r7, r4, r2, ror r8
    9ad0:	00657874 	rsbeq	r7, r5, r4, ror r8
    9ad4:	00667872 	rsbeq	r7, r6, r2, ror r8
    9ad8:	00727265 	rsbseq	r7, r2, r5, ror #4
    9adc:	746b6c63 	strbtvc	r6, [fp], #-3171	; 0xc63
    9ae0:	0000006b 	andeq	r0, r0, fp, rrx
    9ae4:	494e4150 	stmdbmi	lr, {r4, r6, r8, lr}^
    9ae8:	73253a43 	teqvc	r5, #274432	; 0x43000
    9aec:	3a73253a 	bcc	1cd2fdc <__bss_end__+0x1cc8ed4>
    9af0:	693a6425 	ldmdbvs	sl!, {r0, r2, r5, sl, sp, lr}
    9af4:	73206332 	teqvc	r0, #-939524096	; 0xc8000000
    9af8:	6576616c 	ldrbvs	r6, [r6, #-364]!	; 0x16c
    9afc:	6b636120 	blvs	18e1f84 <__bss_end__+0x18d7e7c>
    9b00:	72726520 	rsbsvc	r6, r2, #32, 10	; 0x8000000
    9b04:	000a726f 	andeq	r7, sl, pc, ror #4
    9b08:	494e4150 	stmdbmi	lr, {r4, r6, r8, lr}^
    9b0c:	73253a43 	teqvc	r5, #274432	; 0x43000
    9b10:	3a73253a 	bcc	1cd3000 <__bss_end__+0x1cc8ef8>
    9b14:	693a6425 	ldmdbvs	sl!, {r0, r2, r5, sl, sp, lr}
    9b18:	73206332 	teqvc	r0, #-939524096	; 0xc8000000
    9b1c:	6576616c 	ldrbvs	r6, [r6, #-364]!	; 0x16c
    9b20:	6c656820 	stclvs	8, cr6, [r5], #-128	; 0xffffff80
    9b24:	696c2064 	stmdbvs	ip!, {r2, r5, r6, sp}^
    9b28:	7420656e 	strtvc	r6, [r0], #-1390	; 0x56e
    9b2c:	6c206f6f 	stcvs	15, cr6, [r0], #-444	; 0xfffffe44
    9b30:	0a676e6f 	beq	19e54f4 <__bss_end__+0x19db3ec>
    9b34:	00000000 	andeq	r0, r0, r0
    9b38:	494e4150 	stmdbmi	lr, {r4, r6, r8, lr}^
    9b3c:	73253a43 	teqvc	r5, #274432	; 0x43000
    9b40:	3a73253a 	bcc	1cd3030 <__bss_end__+0x1cc8f28>
    9b44:	693a6425 	ldmdbvs	sl!, {r0, r2, r5, sl, sp, lr}
    9b48:	3e2d6332 	mcrcc	3, 1, r6, cr13, cr2, {1}
    9b4c:	74617473 	strbtvc	r7, [r1], #-1139	; 0x473
    9b50:	742e7375 	strtvc	r7, [lr], #-885	; 0x375
    9b54:	3d3d2061 	ldccc	0, cr2, [sp, #-388]!	; 0xfffffe7c
    9b58:	000a3020 	andeq	r3, sl, r0, lsr #32
    9b5c:	494e4150 	stmdbmi	lr, {r4, r6, r8, lr}^
    9b60:	73253a43 	teqvc	r5, #274432	; 0x43000
    9b64:	3a73253a 	bcc	1cd3054 <__bss_end__+0x1cc8f4c>
    9b68:	213a6425 	teqcs	sl, r5, lsr #8
    9b6c:	2d633269 	sfmcs	f3, 2, [r3, #-420]!	; 0xfffffe5c
    9b70:	6174733e 	cmnvs	r4, lr, lsr r3
    9b74:	2e737574 	mrccs	5, 3, r7, cr3, cr4, {3}
    9b78:	0a727265 	beq	1ca6514 <__bss_end__+0x1c9c40c>
    9b7c:	00000000 	andeq	r0, r0, r0
    9b80:	494e4150 	stmdbmi	lr, {r4, r6, r8, lr}^
    9b84:	73253a43 	teqvc	r5, #274432	; 0x43000
    9b88:	3a73253a 	bcc	1cd3078 <__bss_end__+0x1cc8f70>
    9b8c:	693a6425 	ldmdbvs	sl!, {r0, r2, r5, sl, sp, lr}
    9b90:	3e2d6332 	mcrcc	3, 1, r6, cr13, cr2, {1}
    9b94:	74617473 	strbtvc	r7, [r1], #-1139	; 0x473
    9b98:	742e7375 	strtvc	r7, [lr], #-885	; 0x375
    9b9c:	3d206578 	cfstr32cc	mvfx6, [r0, #-480]!	; 0xfffffe20
    9ba0:	0a31203d 	beq	c51c9c <__bss_end__+0xc47b94>
    9ba4:	00000000 	andeq	r0, r0, r0
    9ba8:	494e4150 	stmdbmi	lr, {r4, r6, r8, lr}^
    9bac:	73253a43 	teqvc	r5, #274432	; 0x43000
    9bb0:	3a73253a 	bcc	1cd30a0 <__bss_end__+0x1cc8f98>
    9bb4:	283a6425 	ldmdacs	sl!, {r0, r2, r5, sl, sp, lr}
    9bb8:	64646128 	strbtvs	r6, [r4], #-296	; 0x128
    9bbc:	3e202972 	mcrcc	9, 1, r2, cr0, cr2, {3}
    9bc0:	2937203e 	ldmdbcs	r7!, {r1, r2, r3, r4, r5, sp}
    9bc4:	203d3d20 	eorscs	r3, sp, r0, lsr #26
    9bc8:	00000a30 	andeq	r0, r0, r0, lsr sl
    9bcc:	494e4150 	stmdbmi	lr, {r4, r6, r8, lr}^
    9bd0:	73253a43 	teqvc	r5, #274432	; 0x43000
    9bd4:	3a73253a 	bcc	1cd30c4 <__bss_end__+0x1cc8fbc>
    9bd8:	283a6425 	ldmdacs	sl!, {r0, r2, r5, sl, sp, lr}
    9bdc:	79626e28 	stmdbvc	r2!, {r3, r5, r9, sl, fp, sp, lr}^
    9be0:	29736574 	ldmdbcs	r3!, {r2, r4, r5, r6, r8, sl, sp, lr}^
    9be4:	203e3e20 	eorscs	r3, lr, r0, lsr #28
    9be8:	20293631 	eorcs	r3, r9, r1, lsr r6
    9bec:	30203d3d 	eorcc	r3, r0, sp, lsr sp
    9bf0:	0000000a 	andeq	r0, r0, sl

00009bf4 <__FUNCTION__.4271>:
    9bf4:	74696d65 	strbtvc	r6, [r9], #-3429	; 0xd65
    9bf8:	00000000 	andeq	r0, r0, r0

00009bfc <__FUNCTION__.4219>:
    9bfc:	5f697072 	svcpl	0x00697072
    9c00:	5f746573 	svcpl	0x00746573
    9c04:	7074756f 	rsbsvc	r7, r4, pc, ror #10
    9c08:	00007475 	andeq	r7, r0, r5, ror r4

00009c0c <__FUNCTION__.4293>:
    9c0c:	705f6176 	subsvc	r6, pc, r6, ror r1	; <UNPREDICTABLE>
    9c10:	746e6972 	strbtvc	r6, [lr], #-2418	; 0x972
    9c14:	0000006b 	andeq	r0, r0, fp, rrx
    9c18:	494e4150 	stmdbmi	lr, {r4, r6, r8, lr}^
    9c1c:	73253a43 	teqvc	r5, #274432	; 0x43000
    9c20:	3a73253a 	bcc	1cd3110 <__bss_end__+0x1cc9008>
    9c24:	303a6425 	eorscc	r6, sl, r5, lsr #8
    9c28:	0000000a 	andeq	r0, r0, sl
    9c2c:	6362696c 	cmnvs	r2, #108, 18	; 0x1b0000
    9c30:	2d61762f 	stclcs	6, cr7, [r1, #-188]!	; 0xffffff44
    9c34:	6e697270 	mcrvs	2, 3, r7, cr9, cr0, {3}
    9c38:	632e6b74 	teqvs	lr, #116, 22	; 0x1d000
    9c3c:	00000000 	andeq	r0, r0, r0
    9c40:	33323130 	teqcc	r2, #48, 2
    9c44:	37363534 			; <UNDEFINED> instruction: 0x37363534
    9c48:	00003938 	andeq	r3, r0, r8, lsr r9
    9c4c:	33323130 	teqcc	r2, #48, 2
    9c50:	37363534 			; <UNDEFINED> instruction: 0x37363534
    9c54:	62613938 	rsbvs	r3, r1, #56, 18	; 0xe0000
    9c58:	66656463 	strbtvs	r6, [r5], -r3, ror #8
    9c5c:	00000000 	andeq	r0, r0, r0
    9c60:	00003130 	andeq	r3, r0, r0, lsr r1
    9c64:	494e4150 	stmdbmi	lr, {r4, r6, r8, lr}^
    9c68:	73253a43 	teqvc	r5, #274432	; 0x43000
    9c6c:	3a73253a 	bcc	1cd315c <__bss_end__+0x1cc9054>
    9c70:	703a6425 	eorsvc	r6, sl, r5, lsr #8
    9c74:	5f637475 	svcpl	0x00637475
    9c78:	000a7066 	andeq	r7, sl, r6, rrx
    9c7c:	494e4150 	stmdbmi	lr, {r4, r6, r8, lr}^
    9c80:	73253a43 	teqvc	r5, #274432	; 0x43000
    9c84:	3a73253a 	bcc	1cd3174 <__bss_end__+0x1cc906c>
    9c88:	773a6425 	ldrvc	r6, [sl, -r5, lsr #8]!
    9c8c:	68746469 	ldmdavs	r4!, {r0, r3, r5, r6, sl, sp, lr}^
    9c90:	33203c20 	teqcc	r0, #32, 24	; 0x2000
    9c94:	00000a32 	andeq	r0, r0, r2, lsr sl
    9c98:	494e4150 	stmdbmi	lr, {r4, r6, r8, lr}^
    9c9c:	73253a43 	teqvc	r5, #274432	; 0x43000
    9ca0:	3a73253a 	bcc	1cd3190 <__bss_end__+0x1cc9088>
    9ca4:	663a6425 	ldrtvs	r6, [sl], -r5, lsr #8
    9ca8:	74616f6c 	strbtvc	r6, [r1], #-3948	; 0xf6c
    9cac:	746f6e20 	strbtvc	r6, [pc], #-3616	; 9cb4 <__FUNCTION__.4293+0xa8>
    9cb0:	616e6520 	cmnvs	lr, r0, lsr #10
    9cb4:	64656c62 	strbtvs	r6, [r5], #-3170	; 0xc62
    9cb8:	0a212121 	beq	852144 <__bss_end__+0x84803c>
    9cbc:	00000000 	andeq	r0, r0, r0
    9cc0:	494e4150 	stmdbmi	lr, {r4, r6, r8, lr}^
    9cc4:	73253a43 	teqvc	r5, #274432	; 0x43000
    9cc8:	3a73253a 	bcc	1cd31b8 <__bss_end__+0x1cc90b0>
    9ccc:	703a6425 	eorsvc	r6, sl, r5, lsr #8
    9cd0:	746e6972 	strbtvc	r6, [lr], #-2418	; 0x972
    9cd4:	6e203a6b 	vnmulvs.f32	s6, s0, s23
    9cd8:	6820746f 	stmdavs	r0!, {r0, r1, r2, r3, r5, r6, sl, ip, sp, lr}
    9cdc:	6c646e61 	stclvs	14, cr6, [r4], #-388	; 0xfffffe7c
    9ce0:	20676e69 	rsbcs	r6, r7, r9, ror #28
    9ce4:	63657073 	cmnvs	r5, #115	; 0x73
    9ce8:	65696669 	strbvs	r6, [r9, #-1641]!	; 0x669
    9cec:	25272072 	strcs	r2, [r7, #-114]!	; 0x72
    9cf0:	0a0a2763 	beq	293a84 <__bss_end__+0x28997c>
    9cf4:	00000000 	andeq	r0, r0, r0
    9cf8:	454e4f44 	strbmi	r4, [lr, #-3908]	; 0xf44
    9cfc:	0a212121 	beq	852188 <__bss_end__+0x848080>
    9d00:	00000000 	andeq	r0, r0, r0

Disassembly of section .bss:

00009d04 <__bss_start__>:
    9d04:	00000000 	andeq	r0, r0, r0

00009d08 <buf.4219>:
	...

Disassembly of section .ARM.attributes:

00000000 <.ARM.attributes>:
   0:	00002a41 	andeq	r2, r0, r1, asr #20
   4:	61656100 	cmnvs	r5, r0, lsl #2
   8:	01006962 	tsteq	r0, r2, ror #18
   c:	00000020 	andeq	r0, r0, r0, lsr #32
  10:	4b5a3605 	blmi	168d82c <__bss_end__+0x1683724>
  14:	08070600 	stmdaeq	r7, {r9, sl}
  18:	12010901 	andne	r0, r1, #16384	; 0x4000
  1c:	15011404 	strne	r1, [r1, #-1028]	; 0x404
  20:	18031701 	stmdane	r3, {r0, r8, r9, sl, ip}
  24:	22011a01 	andcs	r1, r1, #4096	; 0x1000
  28:	Address 0x0000000000000028 is out of bounds.


Disassembly of section .comment:

00000000 <.comment>:
   0:	3a434347 	bcc	10d0d24 <__bss_end__+0x10c6c1c>
   4:	4e472820 	cdpmi	8, 4, cr2, cr7, cr0, {1}
   8:	34202955 	strtcc	r2, [r0], #-2389	; 0x955
   c:	332e382e 	teqcc	lr, #3014656	; 0x2e0000
  10:	43434700 	movtmi	r4, #14080	; 0x3700
  14:	3128203a 	teqcc	r8, sl, lsr r0
  18:	2e363a35 	mrccs	10, 1, r3, cr6, cr5, {1}
  1c:	2b312e33 	blcs	c4b8f0 <__bss_end__+0xc417e8>
  20:	326e7673 	rsbcc	r7, lr, #120586240	; 0x7300000
  24:	33303335 	teqcc	r0, #-738197504	; 0xd4000000
  28:	62312d39 	eorsvs	r2, r1, #3648	; 0xe40
  2c:	646c6975 	strbtvs	r6, [ip], #-2421	; 0x975
  30:	36202931 			; <UNDEFINED> instruction: 0x36202931
  34:	312e332e 	teqcc	lr, lr, lsr #6
  38:	31303220 	teqcc	r0, r0, lsr #4
  3c:	32363037 	eorscc	r3, r6, #55	; 0x37
  40:	Address 0x0000000000000040 is out of bounds.


Disassembly of section .debug_info:

00000000 <.debug_info>:
       0:	00000ca4 	andeq	r0, r0, r4, lsr #25
       4:	00000004 	andeq	r0, r0, r4
       8:	01040000 	mrseq	r0, (UNDEF: 4)
       c:	0000042f 	andeq	r0, r0, pc, lsr #8
      10:	00051f01 	andeq	r1, r5, r1, lsl #30
      14:	00038100 	andeq	r8, r3, r0, lsl #2
      18:	00801000 	addeq	r1, r0, r0
      1c:	00038c00 	andeq	r8, r3, r0, lsl #24
      20:	00000000 	andeq	r0, r0, r0
      24:	05040200 	streq	r0, [r4, #-512]	; 0x200
      28:	00746e69 	rsbseq	r6, r4, r9, ror #28
      2c:	84070403 	strhi	r0, [r7], #-1027	; 0x403
      30:	03000000 	movweq	r0, #0
      34:	035e0601 	cmpeq	lr, #1048576	; 0x100000
      38:	02030000 	andeq	r0, r3, #0
      3c:	0003e705 	andeq	lr, r3, r5, lsl #14
      40:	05040300 	streq	r0, [r4, #-768]	; 0x300
      44:	000000c5 	andeq	r0, r0, r5, asr #1
      48:	c0050803 	andgt	r0, r5, r3, lsl #16
      4c:	04000000 	streq	r0, [r0], #-0
      50:	0000057b 	andeq	r0, r0, fp, ror r5
      54:	005a2e03 	subseq	r2, sl, r3, lsl #28
      58:	01030000 	mrseq	r0, (UNDEF: 3)
      5c:	00035c08 	andeq	r5, r3, r8, lsl #24
      60:	07020300 	streq	r0, [r2, -r0, lsl #6]
      64:	00000240 	andeq	r0, r0, r0, asr #4
      68:	0004ac04 	andeq	sl, r4, r4, lsl #24
      6c:	73340300 	teqvc	r4, #0, 6
      70:	03000000 	movweq	r0, #0
      74:	007f0704 	rsbseq	r0, pc, r4, lsl #14
      78:	08030000 	stmdaeq	r3, {}	; <UNPREDICTABLE>
      7c:	00007a07 	andeq	r7, r0, r7, lsl #20
      80:	07040300 	streq	r0, [r4, -r0, lsl #6]
      84:	000002cb 	andeq	r0, r0, fp, asr #5
      88:	65080103 	strvs	r0, [r8, #-259]	; 0x103
      8c:	05000003 	streq	r0, [r0, #-3]
      90:	00009504 	andeq	r9, r0, r4, lsl #10
      94:	00880600 	addeq	r0, r8, r0, lsl #12
      98:	88070000 	stmdahi	r7, {}	; <UNPREDICTABLE>
      9c:	aa000000 	bge	a4 <_start-0x7f5c>
      a0:	08000000 	stmdaeq	r0, {}	; <UNPREDICTABLE>
      a4:	00000081 	andeq	r0, r0, r1, lsl #1
      a8:	01090007 	tsteq	r9, r7
      ac:	00ba0402 	adcseq	r0, sl, r2, lsl #8
      b0:	420a0000 	andmi	r0, sl, #0
      b4:	eb000005 	bl	d0 <_start-0x7f30>
      b8:	04090000 	streq	r0, [r9], #-0
      bc:	00e40702 	rsceq	r0, r4, r2, lsl #14
      c0:	ad0a0000 	stcge	0, cr0, [sl, #-0]
      c4:	80000001 	andhi	r0, r0, r1
      c8:	0f0a0880 	svceq	0x000a0880
      cc:	82000003 	andhi	r0, r0, #3
      d0:	a60a1080 	strge	r1, [sl], -r0, lsl #1
      d4:	83000000 	movwhi	r0, #0
      d8:	330a2080 	movwcc	r2, #41088	; 0xa080
      dc:	81000002 	tsthi	r0, r2
      e0:	0000c080 	andeq	ip, r0, r0, lsl #1
      e4:	00005104 	andeq	r5, r0, r4, lsl #2
      e8:	ba0f0200 	blt	3c08f0 <__bss_end__+0x3b67e8>
      ec:	09000000 	stmdbeq	r0, {}	; <UNPREDICTABLE>
      f0:	3a2c0201 	bcc	b008fc <__bss_end__+0xaf67f4>
      f4:	0a000001 	beq	100 <_start-0x7f00>
      f8:	000002be 			; <UNDEFINED> instruction: 0x000002be
      fc:	02f90a00 	rscseq	r0, r9, #0, 20
     100:	0a010000 	beq	40108 <__bss_end__+0x36000>
     104:	0000058c 	andeq	r0, r0, ip, lsl #11
     108:	01850a02 	orreq	r0, r5, r2, lsl #20
     10c:	0a030000 	beq	c0114 <__bss_end__+0xb600c>
     110:	00000205 	andeq	r0, r0, r5, lsl #4
     114:	014c0a04 	cmpeq	ip, r4, lsl #20
     118:	0a050000 	beq	140120 <__bss_end__+0x136018>
     11c:	000004e0 	andeq	r0, r0, r0, ror #9
     120:	03350a06 	teqeq	r5, #24576	; 0x6000
     124:	0a070000 	beq	1c012c <__bss_end__+0x1b6024>
     128:	0000041f 	andeq	r0, r0, pc, lsl r4
     12c:	04fc0a08 	ldrbteq	r0, [ip], #2568	; 0xa08
     130:	0a090000 	beq	240138 <__bss_end__+0x236030>
     134:	00000325 	andeq	r0, r0, r5, lsr #6
     138:	b004000a 	andlt	r0, r4, sl
     13c:	02000002 	andeq	r0, r0, #2
     140:	0000ef3a 	andeq	lr, r0, sl, lsr pc
     144:	02a80b00 	adceq	r0, r8, #0, 22
     148:	02010000 	andeq	r0, r1, #0
     14c:	0002ca48 	andeq	ip, r2, r8, asr #20
     150:	03d70a00 	bicseq	r0, r7, #0, 20
     154:	0a010000 	beq	4015c <__bss_end__+0x36054>
     158:	00000011 	andeq	r0, r0, r1, lsl r0
     15c:	001c0a06 	andseq	r0, ip, r6, lsl #20
     160:	0a070000 	beq	1c0168 <__bss_end__+0x1b6060>
     164:	00000027 	andeq	r0, r0, r7, lsr #32
     168:	00320a08 	eorseq	r0, r2, r8, lsl #20
     16c:	0a090000 	beq	240174 <__bss_end__+0x23606c>
     170:	0000003d 	andeq	r0, r0, sp, lsr r0
     174:	04cc0a0a 	strbeq	r0, [ip], #2570	; 0xa0a
     178:	0a0b0000 	beq	2c0180 <__bss_end__+0x2b6078>
     17c:	000002e3 	andeq	r0, r0, r3, ror #5
     180:	05fc0a0d 	ldrbeq	r0, [ip, #2573]!	; 0xa0d
     184:	0a0e0000 	beq	38018c <__bss_end__+0x376084>
     188:	000004b9 			; <UNDEFINED> instruction: 0x000004b9
     18c:	02720a0f 	rsbseq	r0, r2, #61440	; 0xf000
     190:	0a100000 	beq	400198 <__bss_end__+0x3f6090>
     194:	00000221 	andeq	r0, r0, r1, lsr #4
     198:	00ec0a11 	rsceq	r0, ip, r1, lsl sl
     19c:	0a120000 	beq	4801a4 <__bss_end__+0x47609c>
     1a0:	00000009 	andeq	r0, r0, r9
     1a4:	05270a13 	streq	r0, [r7, #-2579]!	; 0xa13
     1a8:	0a140000 	beq	5001b0 <__bss_end__+0x4f60a8>
     1ac:	00000379 	andeq	r0, r0, r9, ror r3
     1b0:	02a00a15 	adceq	r0, r0, #86016	; 0x15000
     1b4:	0a160000 	beq	5801bc <__bss_end__+0x5760b4>
     1b8:	000003f1 	strdeq	r0, [r0], -r1
     1bc:	00480a17 	subeq	r0, r8, r7, lsl sl
     1c0:	0a180000 	beq	6001c8 <__bss_end__+0x5f60c0>
     1c4:	00000539 	andeq	r0, r0, r9, lsr r5
     1c8:	02ed0a19 	rsceq	r0, sp, #102400	; 0x19000
     1cc:	0a1b0000 	beq	6c01d4 <__bss_end__+0x6b60cc>
     1d0:	00000144 	andeq	r0, r0, r4, asr #2
     1d4:	05b50a1c 	ldreq	r0, [r5, #2588]!	; 0xa1c
     1d8:	0a1d0000 	beq	7401e0 <__bss_end__+0x7360d8>
     1dc:	000001d7 	ldrdeq	r0, [r0], -r7
     1e0:	00d90a1e 	sbcseq	r0, r9, lr, lsl sl
     1e4:	0a200000 	beq	8001ec <__bss_end__+0x7f60e4>
     1e8:	000000ce 	andeq	r0, r0, lr, asr #1
     1ec:	00000a21 	andeq	r0, r0, r1, lsr #20
     1f0:	0a220000 	beq	8801f8 <__bss_end__+0x8760f0>
     1f4:	0000049a 	muleq	r0, sl, r4
     1f8:	03440a23 	movteq	r0, #18979	; 0x4a23
     1fc:	0a240000 	beq	900204 <__bss_end__+0x8f60fc>
     200:	000005bd 			; <UNDEFINED> instruction: 0x000005bd
     204:	01340a25 	teqeq	r4, r5, lsr #20
     208:	0a260000 	beq	980210 <__bss_end__+0x976108>
     20c:	000005f3 	strdeq	r0, [r0], -r3
     210:	052f0a27 	streq	r0, [pc, #-2599]!	; fffff7f1 <__bss_end__+0xffff56e9>
     214:	0a280000 	beq	a0021c <__bss_end__+0x9f6114>
     218:	0000015b 	andeq	r0, r0, fp, asr r1
     21c:	012a0a29 	teqeq	sl, r9, lsr #20
     220:	0a2a0000 	beq	a80228 <__bss_end__+0xa76120>
     224:	00000409 	andeq	r0, r0, r9, lsl #8
     228:	02290a2b 	eoreq	r0, r9, #176128	; 0x2b000
     22c:	0a2c0000 	beq	b00234 <__bss_end__+0xaf612c>
     230:	00000515 	andeq	r0, r0, r5, lsl r5
     234:	01eb0a2d 	mvneq	r0, sp, lsr #20
     238:	0a3a0000 	beq	e80240 <__bss_end__+0xe76138>
     23c:	000001f8 	strdeq	r0, [r0], -r8
     240:	04ef0a3b 	strbteq	r0, [pc], #2619	; 248 <_start-0x7db8>
     244:	0a3c0000 	beq	f0024c <__bss_end__+0xef6144>
     248:	00000214 	andeq	r0, r0, r4, lsl r2
     24c:	05e30a3d 	strbeq	r0, [r3, #2621]!	; 0xa3d
     250:	0a3e0000 	beq	f80258 <__bss_end__+0xf76150>
     254:	000005d3 	ldrdeq	r0, [r0], -r3
     258:	01c80a3f 	biceq	r0, r8, pc, lsr sl
     25c:	00c00000 	sbceq	r0, r0, r0
     260:	00016e0a 	andeq	r6, r1, sl, lsl #28
     264:	0a00c100 	beq	3066c <__bss_end__+0x26564>
     268:	0000059a 	muleq	r0, sl, r5
     26c:	040a00c2 	streq	r0, [sl], #-194	; 0xc2
     270:	c9000001 	stmdbgt	r0, {r0}
     274:	019c0a00 	orrseq	r0, ip, r0, lsl #20
     278:	00ca0000 	sbceq	r0, sl, r0
     27c:	00036a0a 	andeq	r6, r3, sl, lsl #20
     280:	0a00cb00 	beq	32e88 <__bss_end__+0x28d80>
     284:	0000034d 	andeq	r0, r0, sp, asr #6
     288:	720a00cc 	andvc	r0, sl, #204	; 0xcc
     28c:	d3000005 	movwle	r0, #5
     290:	03070a00 	movweq	r0, #31232	; 0x7a00
     294:	00d80000 	sbcseq	r0, r8, r0
     298:	0000f40a 	andeq	pc, r0, sl, lsl #8
     29c:	0a00d900 	beq	366a4 <__bss_end__+0x2c59c>
     2a0:	00000583 	andeq	r0, r0, r3, lsl #11
     2a4:	9a0a00da 	bls	280614 <__bss_end__+0x27650c>
     2a8:	db000000 	blle	2b0 <_start-0x7d50>
     2ac:	04130a00 	ldreq	r0, [r3], #-2560	; 0xa00
     2b0:	00dc0000 	sbcseq	r0, ip, r0
     2b4:	0004c20a 	andeq	ip, r4, sl, lsl #4
     2b8:	0a00dd00 	beq	376c0 <__bss_end__+0x2d5b8>
     2bc:	000000e4 	andeq	r0, r0, r4, ror #1
     2c0:	580a00de 	stmdapl	sl, {r1, r2, r3, r4, r6, r7}
     2c4:	df000005 	svcle	0x00000005
     2c8:	0c0c0000 	stceq	0, cr0, [ip], {-0}
     2cc:	02f19202 	rscseq	r9, r1, #536870912	; 0x20000000
     2d0:	780d0000 	stmdavc	sp, {}	; <UNPREDICTABLE>
     2d4:	25920200 	ldrcs	r0, [r2, #512]	; 0x200
     2d8:	00000000 	andeq	r0, r0, r0
     2dc:	0200790d 	andeq	r7, r0, #212992	; 0x34000
     2e0:	00002592 	muleq	r0, r2, r5
     2e4:	7a0d0400 	bvc	3412ec <__bss_end__+0x3371e4>
     2e8:	25920200 	ldrcs	r0, [r2, #512]	; 0x200
     2ec:	08000000 	stmdaeq	r0, {}	; <UNPREDICTABLE>
     2f0:	031b0400 	tsteq	fp, #0, 8
     2f4:	92020000 	andls	r0, r2, #0
     2f8:	000002ca 	andeq	r0, r0, sl, asr #5
     2fc:	97020c0c 	strls	r0, [r2, -ip, lsl #24]
     300:	00000326 	andeq	r0, r0, r6, lsr #6
     304:	0005530e 	andeq	r5, r5, lr, lsl #6
     308:	4f980200 	svcmi	0x00980200
     30c:	00000000 	andeq	r0, r0, r0
     310:	007a680d 	rsbseq	r6, sl, sp, lsl #16
     314:	002c9902 	eoreq	r9, ip, r2, lsl #18
     318:	0d040000 	stceq	0, cr0, [r4, #-0]
     31c:	9a020067 	bls	804c0 <__bss_end__+0x763b8>
     320:	0000002c 	andeq	r0, r0, ip, lsr #32
     324:	7d040008 	stcvc	0, cr0, [r4, #-32]	; 0xffffffe0
     328:	02000001 	andeq	r0, r0, #1
     32c:	0002fc9b 	muleq	r2, fp, ip
     330:	01010900 	tsteq	r1, r0, lsl #18
     334:	0003411a 	andeq	r4, r3, sl, lsl r1
     338:	04b50a00 	ldrteq	r0, [r5], #2560	; 0xa00
     33c:	00e90000 	rsceq	r0, r9, r0
     340:	025d0f00 	subseq	r0, sp, #0, 30
     344:	12020000 	andne	r0, r2, #0
     348:	00000025 	andeq	r0, r0, r5, lsr #32
     34c:	00035b03 	andeq	r5, r3, r3, lsl #22
     350:	00731000 	rsbseq	r1, r3, r0
     354:	00e41202 	rsceq	r1, r4, r2, lsl #4
     358:	0f000000 	svceq	0x00000000
     35c:	00000293 	muleq	r0, r3, r2
     360:	00251a02 	eoreq	r1, r5, r2, lsl #20
     364:	75030000 	strvc	r0, [r3, #-0]
     368:	10000003 	andne	r0, r0, r3
     36c:	1a020062 	bne	804fc <__bss_end__+0x763f4>
     370:	0000002c 	andeq	r0, r0, ip, lsr #32
     374:	005e1100 	subseq	r1, lr, r0, lsl #2
     378:	3e010000 	cdpcc	0, 0, cr0, cr1, cr0, {0}
     37c:	00000025 	andeq	r0, r0, r5, lsr #32
     380:	00008010 	andeq	r8, r0, r0, lsl r0
     384:	0000002c 	andeq	r0, r0, ip, lsr #32
     388:	03fb9c01 	mvnseq	r9, #256	; 0x100
     38c:	76120000 	ldrvc	r0, [r2], -r0
     390:	253e0100 	ldrcs	r0, [lr, #-256]!	; 0x100
     394:	00000000 	andeq	r0, r0, r0
     398:	13000000 	movwne	r0, #0
     39c:	00000121 	andeq	r0, r0, r1, lsr #2
     3a0:	00253e01 	eoreq	r3, r5, r1, lsl #28
     3a4:	00210000 	eoreq	r0, r1, r0
     3a8:	65140000 	ldrvs	r0, [r4, #-0]
     3ac:	0b000002 	bleq	3bc <_start-0x7c44>
     3b0:	05000004 	streq	r0, [r0, #-4]
     3b4:	00981003 	addseq	r1, r8, r3
     3b8:	80181500 	andshi	r1, r8, r0, lsl #10
     3bc:	0c090000 	stceq	0, cr0, [r9], {-0}
     3c0:	2c160000 	ldccs	0, cr0, [r6], {-0}
     3c4:	10000080 	andne	r0, r0, r0, lsl #1
     3c8:	f100000c 	cps	#12
     3cc:	17000003 	strne	r0, [r0, -r3]
     3d0:	08025301 	stmdaeq	r2, {r0, r8, r9, ip, lr}
     3d4:	5201173f 	andpl	r1, r1, #16515072	; 0xfc0000
     3d8:	98100305 	ldmdals	r0, {r0, r2, r8, r9}
     3dc:	01170000 	tsteq	r7, r0
     3e0:	80030551 	andhi	r0, r3, r1, asr r5
     3e4:	17000098 			; <UNDEFINED> instruction: 0x17000098
     3e8:	03055001 	movweq	r5, #20481	; 0x5001
     3ec:	00009854 	andeq	r9, r0, r4, asr r8
     3f0:	80301500 	eorshi	r1, r0, r0, lsl #10
     3f4:	0c260000 	stceq	0, cr0, [r6], #-0
     3f8:	07000000 	streq	r0, [r0, -r0]
     3fc:	00000088 	andeq	r0, r0, r8, lsl #1
     400:	0000040b 	andeq	r0, r0, fp, lsl #8
     404:	00008108 	andeq	r8, r0, r8, lsl #2
     408:	06000900 	streq	r0, [r0], -r0, lsl #18
     40c:	000003fb 	strdeq	r0, [r0], -fp
     410:	00013d11 	andeq	r3, r1, r1, lsl sp
     414:	3a3a0100 	bcc	e8081c <__bss_end__+0xe76714>
     418:	3c000000 	stccc	0, cr0, [r0], {-0}
     41c:	2c000080 	stccs	0, cr0, [r0], {128}	; 0x80
     420:	01000000 	mrseq	r0, (UNDEF: 0)
     424:	0004969c 	muleq	r4, ip, r6
     428:	69681200 	stmdbvs	r8!, {r9, ip}^
     42c:	4f3a0100 	svcmi	0x003a0100
     430:	42000000 	andmi	r0, r0, #0
     434:	12000000 	andne	r0, r0, #0
     438:	01006f6c 	tsteq	r0, ip, ror #30
     43c:	00004f3a 	andeq	r4, r0, sl, lsr pc
     440:	00006300 	andeq	r6, r0, r0, lsl #6
     444:	02651400 	rsbeq	r1, r5, #0, 8
     448:	04a60000 	strteq	r0, [r6], #0
     44c:	03050000 	movweq	r0, #20480	; 0x5000
     450:	0000981c 	andeq	r9, r0, ip, lsl r8
     454:	00804415 	addeq	r4, r0, r5, lsl r4
     458:	000c0900 	andeq	r0, ip, r0, lsl #18
     45c:	80581600 	subshi	r1, r8, r0, lsl #12
     460:	0c100000 	ldceq	0, cr0, [r0], {-0}
     464:	048c0000 	streq	r0, [ip], #0
     468:	01170000 	tsteq	r7, r0
     46c:	3b080253 	blcc	200dc0 <__bss_end__+0x1f6cb8>
     470:	05520117 	ldrbeq	r0, [r2, #-279]	; 0x117
     474:	00981c03 	addseq	r1, r8, r3, lsl #24
     478:	51011700 	tstpl	r1, r0, lsl #14
     47c:	98800305 	stmls	r0, {r0, r2, r8, r9}
     480:	01170000 	tsteq	r7, r0
     484:	54030550 	strpl	r0, [r3], #-1360	; 0x550
     488:	00000098 	muleq	r0, r8, r0
     48c:	00805c15 	addeq	r5, r0, r5, lsl ip
     490:	000c2600 	andeq	r2, ip, r0, lsl #12
     494:	88070000 	stmdahi	r7, {}	; <UNPREDICTABLE>
     498:	a6000000 	strge	r0, [r0], -r0
     49c:	08000004 	stmdaeq	r0, {r2}
     4a0:	00000081 	andeq	r0, r0, r1, lsl #1
     4a4:	96060006 	strls	r0, [r6], -r6
     4a8:	18000004 	stmdane	r0, {r2}
     4ac:	000002d4 	ldrdeq	r0, [r0], -r4
     4b0:	80684201 	rsbhi	r4, r8, r1, lsl #4
     4b4:	00100000 	andseq	r0, r0, r0
     4b8:	9c010000 	stcls	0, cr0, [r1], {-0}
     4bc:	00000514 	andeq	r0, r0, r4, lsl r5
     4c0:	0001e213 	andeq	lr, r1, r3, lsl r2
     4c4:	25420100 	strbcs	r0, [r2, #-256]	; 0x100
     4c8:	84000000 	strhi	r0, [r0], #-0
     4cc:	12000000 	andne	r0, r0, #0
     4d0:	42010068 	andmi	r0, r1, #104	; 0x68
     4d4:	0000004f 	andeq	r0, r0, pc, asr #32
     4d8:	000000a5 	andeq	r0, r0, r5, lsr #1
     4dc:	01006c12 	tsteq	r0, r2, lsl ip
     4e0:	00004f42 	andeq	r4, r0, r2, asr #30
     4e4:	0000c600 	andeq	ip, r0, r0, lsl #12
     4e8:	00671200 	rsbeq	r1, r7, r0, lsl #4
     4ec:	002c4201 	eoreq	r4, ip, r1, lsl #4
     4f0:	00e70000 	rsceq	r0, r7, r0
     4f4:	73190000 	tstvc	r9, #0
     4f8:	0100695f 	tsteq	r0, pc, asr r9
     4fc:	00002543 	andeq	r2, r0, r3, asr #10
     500:	02651a00 	rsbeq	r1, r5, #0, 20
     504:	05140000 	ldreq	r0, [r4, #-0]
     508:	78150000 	ldmdavc	r5, {}	; <UNPREDICTABLE>
     50c:	10000080 	andne	r0, r0, r0, lsl #1
     510:	00000004 	andeq	r0, r0, r4
     514:	00009a06 	andeq	r9, r0, r6, lsl #20
     518:	02dc1b00 	sbcseq	r1, ip, #0, 22
     51c:	1d010000 	stcne	0, cr0, [r1, #-0]
     520:	0000004f 	andeq	r0, r0, pc, asr #32
     524:	00008078 	andeq	r8, r0, r8, ror r0
     528:	0000003c 	andeq	r0, r0, ip, lsr r0
     52c:	05979c01 	ldreq	r9, [r7, #3073]	; 0xc01
     530:	53130000 	tstpl	r3, #0
     534:	01000005 	tsteq	r0, r5
     538:	00004f1d 	andeq	r4, r0, sp, lsl pc
     53c:	00010800 	andeq	r0, r1, r0, lsl #16
     540:	65721200 	ldrbvs	r1, [r2, #-512]!	; 0x200
     544:	1d010067 	stcne	0, cr0, [r1, #-412]	; 0xfffffe64
     548:	0000004f 	andeq	r0, r0, pc, asr #32
     54c:	00000129 	andeq	r0, r0, r9, lsr #2
     550:	0100761c 	tsteq	r0, ip, lsl r6
     554:	00004f20 	andeq	r4, r0, r0, lsr #30
     558:	77910200 	ldrvc	r0, [r1, r0, lsl #4]
     55c:	00809816 	addeq	r9, r0, r6, lsl r8
     560:	000c2d00 	andeq	r2, ip, r0, lsl #26
     564:	00057b00 	andeq	r7, r5, r0, lsl #22
     568:	52011700 	andpl	r1, r1, #0, 14
     56c:	01173101 	tsteq	r7, r1, lsl #2
     570:	67910251 			; <UNDEFINED> instruction: 0x67910251
     574:	02500117 	subseq	r0, r0, #-1073741819	; 0xc0000005
     578:	1d000074 	stcne	0, cr0, [r0, #-464]	; 0xfffffe30
     57c:	000080a8 	andeq	r8, r0, r8, lsr #1
     580:	00000c4c 	andeq	r0, r0, ip, asr #24
     584:	01520117 	cmpeq	r2, r7, lsl r1
     588:	51011731 	tstpl	r1, r1, lsr r7
     58c:	176f9102 	strbne	r9, [pc, -r2, lsl #2]!
     590:	74025001 	strvc	r5, [r2], #-1
     594:	1e000000 	cdpne	0, 0, cr0, cr0, cr0, {0}
     598:	000004d9 	ldrdeq	r0, [r0], -r9
     59c:	80b42601 	adcshi	r2, r4, r1, lsl #12
     5a0:	00240000 	eoreq	r0, r4, r0
     5a4:	9c010000 	stcls	0, cr0, [r1], {-0}
     5a8:	000005fb 	strdeq	r0, [r0], -fp
     5ac:	00055313 	andeq	r5, r5, r3, lsl r3
     5b0:	4f260100 	svcmi	0x00260100
     5b4:	60000000 	andvs	r0, r0, r0
     5b8:	12000001 	andne	r0, r0, #1
     5bc:	00676572 	rsbeq	r6, r7, r2, ror r5
     5c0:	004f2601 	subeq	r2, pc, r1, lsl #12
     5c4:	01810000 	orreq	r0, r1, r0
     5c8:	76120000 	ldrvc	r0, [r2], -r0
     5cc:	4f260100 	svcmi	0x00260100
     5d0:	ae000000 	cdpge	0, 0, cr0, cr0, cr0, {0}
     5d4:	1f000001 	svcne	0x00000001
     5d8:	00000404 	andeq	r0, r0, r4, lsl #8
     5dc:	05fb2701 	ldrbeq	r2, [fp, #1793]!	; 0x701
     5e0:	91020000 	mrsls	r0, (UNDEF: 2)
     5e4:	80d01d74 	sbcshi	r1, r0, r4, ror sp
     5e8:	0c2d0000 	stceq	0, cr0, [sp], #-0
     5ec:	01170000 	tsteq	r7, r0
     5f0:	17320152 			; <UNDEFINED> instruction: 0x17320152
     5f4:	91025101 	tstls	r2, r1, lsl #2
     5f8:	0700006c 	streq	r0, [r0, -ip, rrx]
     5fc:	0000004f 	andeq	r0, r0, pc, asr #32
     600:	0000060b 	andeq	r0, r0, fp, lsl #12
     604:	00008108 	andeq	r8, r0, r8, lsl #2
     608:	1b000100 	blne	a10 <_start-0x75f0>
     60c:	00000091 	muleq	r0, r1, r0
     610:	00253001 	eoreq	r3, r5, r1
     614:	80d80000 	sbcshi	r0, r8, r0
     618:	00400000 	subeq	r0, r0, r0
     61c:	9c010000 	stcls	0, cr0, [r1], {-0}
     620:	00000698 	muleq	r0, r8, r6
     624:	00055313 	andeq	r5, r5, r3, lsl r3
     628:	4f300100 	svcmi	0x00300100
     62c:	db000000 	blle	634 <_start-0x79cc>
     630:	13000001 	movwne	r0, #1
     634:	00000165 	andeq	r0, r0, r5, ror #2
     638:	004f3001 	subeq	r3, pc, r1
     63c:	01fc0000 	mvnseq	r0, r0
     640:	76120000 	ldrvc	r0, [r2], -r0
     644:	98300100 	ldmdals	r0!, {r8}
     648:	33000006 	movwcc	r0, #6
     64c:	12000002 	andne	r0, r0, #2
     650:	3001006e 	andcc	r0, r1, lr, rrx
     654:	00000068 	andeq	r0, r0, r8, rrx
     658:	00000251 	andeq	r0, r0, r1, asr r2
     65c:	00810016 	addeq	r0, r1, r6, lsl r0
     660:	000c2d00 	andeq	r2, ip, r0, lsl #26
     664:	00067b00 	andeq	r7, r6, r0, lsl #22
     668:	52011700 	andpl	r1, r1, #0, 14
     66c:	01173101 	tsteq	r7, r1, lsl #2
     670:	67910251 			; <UNDEFINED> instruction: 0x67910251
     674:	02500117 	subseq	r0, r0, #-1073741819	; 0xc0000005
     678:	1d000076 	stcne	0, cr0, [r0, #-472]	; 0xfffffe28
     67c:	00008110 	andeq	r8, r0, r0, lsl r1
     680:	00000c4c 	andeq	r0, r0, ip, asr #24
     684:	02520117 	subseq	r0, r2, #-1073741819	; 0xc0000005
     688:	01170074 	tsteq	r7, r4, ror r0
     68c:	00750251 	rsbseq	r0, r5, r1, asr r2
     690:	02500117 	subseq	r0, r0, #-1073741819	; 0xc0000005
     694:	00000076 	andeq	r0, r0, r6, ror r0
     698:	004f0405 	subeq	r0, pc, r5, lsl #8
     69c:	a91b0000 	ldmdbge	fp, {}	; <UNPREDICTABLE>
     6a0:	01000005 	tsteq	r0, r5
     6a4:	0002f14d 	andeq	pc, r2, sp, asr #2
     6a8:	00811800 	addeq	r1, r1, r0, lsl #16
     6ac:	00001c00 	andeq	r1, r0, r0, lsl #24
     6b0:	0c9c0100 	ldfeqs	f0, [ip], {0}
     6b4:	12000007 	andne	r0, r0, #7
     6b8:	4d010068 	stcmi	0, cr0, [r1, #-416]	; 0xfffffe60
     6bc:	0000070c 	andeq	r0, r0, ip, lsl #14
     6c0:	0000026f 	andeq	r0, r0, pc, ror #4
     6c4:	7a797820 	bvc	1e5e74c <__bss_end__+0x1e54644>
     6c8:	f14d0100 			; <UNDEFINED> instruction: 0xf14d0100
     6cc:	02000002 	andeq	r0, r0, #2
     6d0:	67217891 			; <UNDEFINED> instruction: 0x67217891
     6d4:	254e0100 	strbcs	r0, [lr, #-256]	; 0x100
     6d8:	90000000 	andls	r0, r0, r0
     6dc:	19000002 	stmdbne	r0, {r1}
     6e0:	4f010078 	svcmi	0x00010078
     6e4:	00000025 	andeq	r0, r0, r5, lsr #32
     6e8:	01007919 	tsteq	r0, r9, lsl r9
     6ec:	00002550 	andeq	r2, r0, r0, asr r5
     6f0:	007a1900 	rsbseq	r1, sl, r0, lsl #18
     6f4:	00255101 	eoreq	r5, r5, r1, lsl #2
     6f8:	341d0000 	ldrcc	r0, [sp], #-0
     6fc:	75000081 	strvc	r0, [r0, #-129]	; 0x81
     700:	17000003 	strne	r0, [r0, -r3]
     704:	7d035101 	stfvcs	f5, [r3, #-4]
     708:	00000608 	andeq	r0, r0, r8, lsl #12
     70c:	03260405 	teqeq	r6, #83886080	; 0x5000000
     710:	fa1b0000 	blx	6c0718 <__bss_end__+0x6b6610>
     714:	01000003 	tsteq	r0, r3
     718:	00002555 	andeq	r2, r0, r5, asr r5
     71c:	00813400 	addeq	r3, r1, r0, lsl #8
     720:	00002c00 	andeq	r2, r0, r0, lsl #24
     724:	899c0100 	ldmibhi	ip, {r8}
     728:	12000007 	andne	r0, r0, #7
     72c:	55010068 	strpl	r0, [r1, #-104]	; 0x68
     730:	0000070c 	andeq	r0, r0, ip, lsl #14
     734:	000002af 	andeq	r0, r0, pc, lsr #5
     738:	00026514 	andeq	r6, r2, r4, lsl r5
     73c:	00079900 	andeq	r9, r7, r0, lsl #18
     740:	24030500 	strcs	r0, [r3], #-1280	; 0x500
     744:	15000098 	strne	r0, [r0, #-152]	; 0x98
     748:	0000813c 	andeq	r8, r0, ip, lsr r1
     74c:	00000c09 	andeq	r0, r0, r9, lsl #24
     750:	00815016 	addeq	r5, r1, r6, lsl r0
     754:	000c1000 	andeq	r1, ip, r0
     758:	00077f00 	andeq	r7, r7, r0, lsl #30
     75c:	53011700 	movwpl	r1, #5888	; 0x1700
     760:	17560802 	ldrbne	r0, [r6, -r2, lsl #16]
     764:	03055201 	movweq	r5, #20993	; 0x5201
     768:	00009824 	andeq	r9, r0, r4, lsr #16
     76c:	05510117 	ldrbeq	r0, [r1, #-279]	; 0x117
     770:	00988003 	addseq	r8, r8, r3
     774:	50011700 	andpl	r1, r1, r0, lsl #14
     778:	98540305 	ldmdals	r4, {r0, r2, r8, r9}^
     77c:	15000000 	strne	r0, [r0, #-0]
     780:	00008154 	andeq	r8, r0, r4, asr r1
     784:	00000c26 	andeq	r0, r0, r6, lsr #24
     788:	00880700 	addeq	r0, r8, r0, lsl #14
     78c:	07990000 	ldreq	r0, [r9, r0]
     790:	81080000 	mrshi	r0, (UNDEF: 8)
     794:	0e000000 	cdpeq	0, 0, cr0, cr0, cr0, {0}
     798:	07890600 	streq	r0, [r9, r0, lsl #12]
     79c:	691b0000 	ldmdbvs	fp, {}	; <UNPREDICTABLE>
     7a0:	01000005 	tsteq	r0, r5
     7a4:	0002f162 	andeq	pc, r2, r2, ror #2
     7a8:	00816000 	addeq	r6, r1, r0
     7ac:	00002c00 	andeq	r2, r0, r0, lsl #24
     7b0:	339c0100 	orrscc	r0, ip, #0, 2
     7b4:	12000008 	andne	r0, r0, #8
     7b8:	62010068 	andvs	r0, r1, #104	; 0x68
     7bc:	0000070c 	andeq	r0, r0, ip, lsl #14
     7c0:	000002d0 	ldrdeq	r0, [r0], -r0	; <UNPREDICTABLE>
     7c4:	00012122 	andeq	r2, r1, r2, lsr #2
     7c8:	2c650100 	stfcse	f0, [r5], #-0
     7cc:	f1000000 	cps	#0
     7d0:	22000002 	andcs	r0, r0, #2
     7d4:	00000553 	andeq	r0, r0, r3, asr r5
     7d8:	004f6601 	subeq	r6, pc, r1, lsl #12
     7dc:	03050000 	movweq	r0, #20480	; 0x5000
     7e0:	65140000 	ldrvs	r0, [r4, #-0]
     7e4:	43000002 	movwmi	r0, #2
     7e8:	05000008 	streq	r0, [r0, #-8]
     7ec:	00983403 	addseq	r3, r8, r3, lsl #8
     7f0:	81681500 	cmnhi	r8, r0, lsl #10
     7f4:	0c090000 	stceq	0, cr0, [r9], {-0}
     7f8:	7c160000 	ldcvc	0, cr0, [r6], {-0}
     7fc:	10000081 	andne	r0, r0, r1, lsl #1
     800:	2900000c 	stmdbcs	r0, {r2, r3}
     804:	17000008 	strne	r0, [r0, -r8]
     808:	08025301 	stmdaeq	r2, {r0, r8, r9, ip, lr}
     80c:	52011767 	andpl	r1, r1, #27000832	; 0x19c0000
     810:	98340305 	ldmdals	r4!, {r0, r2, r8, r9}
     814:	01170000 	tsteq	r7, r0
     818:	80030551 	andhi	r0, r3, r1, asr r5
     81c:	17000098 			; <UNDEFINED> instruction: 0x17000098
     820:	03055001 	movweq	r5, #20481	; 0x5001
     824:	00009854 	andeq	r9, r0, r4, asr r8
     828:	81801500 	orrhi	r1, r0, r0, lsl #10
     82c:	0c260000 	stceq	0, cr0, [r6], #-0
     830:	07000000 	streq	r0, [r0, -r0]
     834:	00000088 	andeq	r0, r0, r8, lsl #1
     838:	00000843 	andeq	r0, r0, r3, asr #16
     83c:	00008108 	andeq	r8, r0, r8, lsl #2
     840:	06000800 	streq	r0, [r0], -r0, lsl #16
     844:	00000833 	andeq	r0, r0, r3, lsr r8
     848:	0002881b 	andeq	r8, r2, fp, lsl r8
     84c:	26700100 	ldrbtcs	r0, [r0], -r0, lsl #2
     850:	8c000003 	stchi	0, cr0, [r0], {3}
     854:	64000081 	strvs	r0, [r0], #-129	; 0x81
     858:	01000001 	tsteq	r0, r1
     85c:	000a6e9c 	muleq	sl, ip, lr
     860:	05531300 	ldrbeq	r1, [r3, #-768]	; 0x300
     864:	70010000 	andvc	r0, r1, r0
     868:	0000004f 	andeq	r0, r0, pc, asr #32
     86c:	00000319 	andeq	r0, r0, r9, lsl r3
     870:	01006712 	tsteq	r0, r2, lsl r7
     874:	0000e470 	andeq	lr, r0, r0, ror r4
     878:	00033a00 	andeq	r3, r3, r0, lsl #20
     87c:	7a681200 	bvc	1a05084 <__bss_end__+0x19faf7c>
     880:	3a700100 	bcc	1c00c88 <__bss_end__+0x1bf6b80>
     884:	64000001 	strvs	r0, [r0], #-1
     888:	14000003 	strne	r0, [r0], #-3
     88c:	00000265 	andeq	r0, r0, r5, ror #4
     890:	00000a7e 	andeq	r0, r0, lr, ror sl
     894:	98400305 	stmdals	r0, {r0, r2, r8, r9}^
     898:	22220000 	eorcs	r0, r2, #0
     89c:	01000001 	tsteq	r0, r1
     8a0:	00002c83 	andeq	r2, r0, r3, lsl #25
     8a4:	00038500 	andeq	r8, r3, r0, lsl #10
     8a8:	02992200 	addseq	r2, r9, #0, 4
     8ac:	84010000 	strhi	r0, [r1], #-0
     8b0:	0000002c 	andeq	r0, r0, ip, lsr #32
     8b4:	000003ac 	andeq	r0, r0, ip, lsr #7
     8b8:	00027b22 	andeq	r7, r2, r2, lsr #22
     8bc:	26940100 	ldrcs	r0, [r4], r0, lsl #2
     8c0:	ea000003 	b	8d4 <_start-0x772c>
     8c4:	23000003 	movwcs	r0, #3
     8c8:	00000341 	andeq	r0, r0, r1, asr #6
     8cc:	000081d4 	ldrdeq	r8, [r0], -r4
     8d0:	00000038 	andeq	r0, r0, r8, lsr r0
     8d4:	08e47d01 	stmiaeq	r4!, {r0, r8, sl, fp, ip, sp, lr}^
     8d8:	51240000 	teqpl	r4, r0
     8dc:	16000003 	strne	r0, [r0], -r3
     8e0:	00000004 	andeq	r0, r0, r4
     8e4:	0081a815 	addeq	sl, r1, r5, lsl r8
     8e8:	000c6b00 	andeq	r6, ip, r0, lsl #22
     8ec:	81b81500 			; <UNDEFINED> instruction: 0x81b81500
     8f0:	0c090000 	stceq	0, cr0, [r9], {-0}
     8f4:	d0160000 	andsle	r0, r6, r0
     8f8:	10000081 	andne	r0, r0, r1, lsl #1
     8fc:	2c00000c 	stccs	0, cr0, [r0], {12}
     900:	17000009 	strne	r0, [r0, -r9]
     904:	08025301 	stmdaeq	r2, {r0, r8, r9, ip, lr}
     908:	52011779 	andpl	r1, r1, #31719424	; 0x1e40000
     90c:	98400305 	stmdals	r0, {r0, r2, r8, r9}^
     910:	01170000 	tsteq	r7, r0
     914:	80030551 	andhi	r0, r3, r1, asr r5
     918:	17000098 			; <UNDEFINED> instruction: 0x17000098
     91c:	03055001 	movweq	r5, #20481	; 0x5001
     920:	00009888 	andeq	r9, r0, r8, lsl #17
     924:	007d0217 	rsbseq	r0, sp, r7, lsl r2
     928:	00007602 	andeq	r7, r0, r2, lsl #12
     92c:	0081d415 	addeq	sp, r1, r5, lsl r4
     930:	000c2600 	andeq	r2, ip, r0, lsl #12
     934:	82181500 	andshi	r1, r8, #0, 10
     938:	0c090000 	stceq	0, cr0, [r9], {-0}
     93c:	30160000 	andscc	r0, r6, r0
     940:	10000082 	andne	r0, r0, r2, lsl #1
     944:	7400000c 	strvc	r0, [r0], #-12
     948:	17000009 	strne	r0, [r0, -r9]
     94c:	08025301 	stmdaeq	r2, {r0, r8, r9, ip, lr}
     950:	5201177e 	andpl	r1, r1, #33030144	; 0x1f80000
     954:	98400305 	stmdals	r0, {r0, r2, r8, r9}^
     958:	01170000 	tsteq	r7, r0
     95c:	80030551 	andhi	r0, r3, r1, asr r5
     960:	17000098 			; <UNDEFINED> instruction: 0x17000098
     964:	03055001 	movweq	r5, #20481	; 0x5001
     968:	000098cc 	andeq	r9, r0, ip, asr #17
     96c:	007d0217 	rsbseq	r0, sp, r7, lsl r2
     970:	00007402 	andeq	r7, r0, r2, lsl #8
     974:	00823415 	addeq	r3, r2, r5, lsl r4
     978:	000c2600 	andeq	r2, ip, r0, lsl #12
     97c:	82401500 	subhi	r1, r0, #0, 10
     980:	0c090000 	stceq	0, cr0, [r9], {-0}
     984:	58160000 	ldmdapl	r6, {}	; <UNPREDICTABLE>
     988:	10000082 	andne	r0, r0, r2, lsl #1
     98c:	bc00000c 	stclt	0, cr0, [r0], {12}
     990:	17000009 	strne	r0, [r0, -r9]
     994:	08025301 	stmdaeq	r2, {r0, r8, r9, ip, lr}
     998:	52011780 	andpl	r1, r1, #128, 14	; 0x2000000
     99c:	98400305 	stmdals	r0, {r0, r2, r8, r9}^
     9a0:	01170000 	tsteq	r7, r0
     9a4:	80030551 	andhi	r0, r3, r1, asr r5
     9a8:	17000098 			; <UNDEFINED> instruction: 0x17000098
     9ac:	03055001 	movweq	r5, #20481	; 0x5001
     9b0:	000098f4 	strdeq	r9, [r0], -r4
     9b4:	007d0217 	rsbseq	r0, sp, r7, lsl r2
     9b8:	00007602 	andeq	r7, r0, r2, lsl #12
     9bc:	00825c15 	addeq	r5, r2, r5, lsl ip
     9c0:	000c2600 	andeq	r2, ip, r0, lsl #12
     9c4:	826c1500 	rsbhi	r1, ip, #0, 10
     9c8:	0c090000 	stceq	0, cr0, [r9], {-0}
     9cc:	80160000 	andshi	r0, r6, r0
     9d0:	10000082 	andne	r0, r0, r2, lsl #1
     9d4:	fd00000c 	stc2	0, cr0, [r0, #-48]	; 0xffffffd0
     9d8:	17000009 	strne	r0, [r0, -r9]
     9dc:	08025301 	stmdaeq	r2, {r0, r8, r9, ip, lr}
     9e0:	52011785 	andpl	r1, r1, #34865152	; 0x2140000
     9e4:	98400305 	stmdals	r0, {r0, r2, r8, r9}^
     9e8:	01170000 	tsteq	r7, r0
     9ec:	80030551 	andhi	r0, r3, r1, asr r5
     9f0:	17000098 			; <UNDEFINED> instruction: 0x17000098
     9f4:	03055001 	movweq	r5, #20481	; 0x5001
     9f8:	00009914 	andeq	r9, r0, r4, lsl r9
     9fc:	82841500 	addhi	r1, r4, #0, 10
     a00:	0c260000 	stceq	0, cr0, [r6], #-0
     a04:	90160000 	andsls	r0, r6, r0
     a08:	72000082 	andvc	r0, r0, #130	; 0x82
     a0c:	1f00000c 	svcne	0x0000000c
     a10:	1700000a 	strne	r0, [r0, -sl]
     a14:	08025101 	stmdaeq	r2, {r0, r8, ip, lr}
     a18:	50011738 	andpl	r1, r1, r8, lsr r7
     a1c:	16004801 	strne	r4, [r0], -r1, lsl #16
     a20:	0000829c 	muleq	r0, ip, r2
     a24:	00000c72 	andeq	r0, r0, r2, ror ip
     a28:	00000a38 	andeq	r0, r0, r8, lsr sl
     a2c:	02510117 	subseq	r0, r1, #-1073741819	; 0xc0000005
     a30:	01174408 	tsteq	r7, r8, lsl #8
     a34:	00420150 	subeq	r0, r2, r0, asr r1
     a38:	0082a816 	addeq	sl, r2, r6, lsl r8
     a3c:	000c7200 	andeq	r7, ip, r0, lsl #4
     a40:	000a5100 	andeq	r5, sl, r0, lsl #2
     a44:	51011700 	tstpl	r1, r0, lsl #14
     a48:	17600802 	strbne	r0, [r0, -r2, lsl #16]!
     a4c:	40015001 	andmi	r5, r1, r1
     a50:	82bc1600 	adcshi	r1, ip, #0, 12
     a54:	0c880000 	stceq	0, cr0, [r8], {0}
     a58:	0a640000 	beq	1900a60 <__bss_end__+0x18f6958>
     a5c:	01170000 	tsteq	r7, r0
     a60:	003a0150 	eorseq	r0, sl, r0, asr r1
     a64:	0082c015 	addeq	ip, r2, r5, lsl r0
     a68:	000c6b00 	andeq	r6, ip, r0, lsl #22
     a6c:	88070000 	stmdahi	r7, {}	; <UNPREDICTABLE>
     a70:	7e000000 	cdpvc	0, 0, cr0, cr0, cr0, {0}
     a74:	0800000a 	stmdaeq	r0, {r1, r3}
     a78:	00000081 	andeq	r0, r0, r1, lsl #1
     a7c:	6e06000a 	cdpvs	0, 0, cr0, cr6, cr10, {0}
     a80:	1e00000a 	cdpne	0, 0, cr0, cr0, cr10, {0}
     a84:	000000b2 	strheq	r0, [r0], -r2
     a88:	82f0a001 	rscshi	sl, r0, #1
     a8c:	00300000 	eorseq	r0, r0, r0
     a90:	9c010000 	stcls	0, cr0, [r1], {-0}
     a94:	00000b04 	andeq	r0, r0, r4, lsl #22
     a98:	0100681c 	tsteq	r0, ip, lsl r8
     a9c:	000326a2 	andeq	r2, r3, r2, lsr #13
     aa0:	6c910200 	lfmvs	f0, 4, [r1], {0}
     aa4:	01007819 	tsteq	r0, r9, lsl r8
     aa8:	000025a4 	andeq	r2, r0, r4, lsr #11
     aac:	00791900 	rsbseq	r1, r9, r0, lsl #18
     ab0:	0025a401 	eoreq	sl, r5, r1, lsl #8
     ab4:	7a190000 	bvc	640abc <__bss_end__+0x6369b4>
     ab8:	25a40100 	strcs	r0, [r4, #256]!	; 0x100
     abc:	16000000 	strne	r0, [r0], -r0
     ac0:	0000830c 	andeq	r8, r0, ip, lsl #6
     ac4:	00000848 	andeq	r0, r0, r8, asr #16
     ac8:	00000ae5 	andeq	r0, r0, r5, ror #21
     acc:	01530117 	cmpeq	r3, r7, lsl r1
     ad0:	52011736 	andpl	r1, r1, #14155776	; 0xd80000
     ad4:	243d4003 	ldrtcs	r4, [sp], #-3
     ad8:	02510117 	subseq	r0, r1, #-1073741819	; 0xc0000005
     adc:	01176b08 	tsteq	r7, r8, lsl #22
     ae0:	64910250 	ldrvs	r0, [r1], #592	; 0x250
     ae4:	83201d00 	teqhi	r0, #0, 26
     ae8:	04ab0000 	strteq	r0, [fp], #0
     aec:	01170000 	tsteq	r7, r0
     af0:	17320153 			; <UNDEFINED> instruction: 0x17320153
     af4:	30015201 	andcc	r5, r1, r1, lsl #4
     af8:	01510117 	cmpeq	r1, r7, lsl r1
     afc:	50011730 	andpl	r1, r1, r0, lsr r7
     b00:	00003001 	andeq	r3, r0, r1
     b04:	0000681e 	andeq	r6, r0, lr, lsl r8
     b08:	20bb0100 	adcscs	r0, fp, r0, lsl #2
     b0c:	7c000083 	stcvc	0, cr0, [r0], {131}	; 0x83
     b10:	01000000 	mrseq	r0, (UNDEF: 0)
     b14:	000c049c 	muleq	ip, ip, r4
     b18:	050c2500 	streq	r2, [ip, #-1280]	; 0x500
     b1c:	c3010000 	movwgt	r0, #4096	; 0x1000
     b20:	0000004f 	andeq	r0, r0, pc, asr #32
     b24:	0076216b 	rsbseq	r2, r6, fp, ror #2
     b28:	004fc401 	subeq	ip, pc, r1, lsl #8
     b2c:	04350000 	ldrteq	r0, [r5], #-0
     b30:	65140000 	ldrvs	r0, [r4, #-0]
     b34:	04000002 	streq	r0, [r0], #-2
     b38:	0500000c 	streq	r0, [r0, #-12]
     b3c:	00984c03 	addseq	r4, r8, r3, lsl #24
     b40:	832c1500 	teqhi	ip, #0, 10
     b44:	0c990000 	ldceq	0, cr0, [r9], {0}
     b48:	34160000 	ldrcc	r0, [r6], #-0
     b4c:	88000083 	stmdahi	r0, {r0, r1, r7}
     b50:	5e00000c 	cdppl	0, 0, cr0, cr0, cr12, {0}
     b54:	1700000b 	strne	r0, [r0, -fp]
     b58:	08025001 	stmdaeq	r2, {r0, ip, lr}
     b5c:	38150064 	ldmdacc	r5, {r2, r5, r6}
     b60:	a0000083 	andge	r0, r0, r3, lsl #1
     b64:	1600000c 	strne	r0, [r0], -ip
     b68:	00008340 	andeq	r8, r0, r0, asr #6
     b6c:	00000c88 	andeq	r0, r0, r8, lsl #25
     b70:	00000b7b 	andeq	r0, r0, fp, ror fp
     b74:	02500117 	subseq	r0, r0, #-1073741819	; 0xc0000005
     b78:	16006408 	strne	r6, [r0], -r8, lsl #8
     b7c:	0000834c 	andeq	r8, r0, ip, asr #6
     b80:	00000519 	andeq	r0, r0, r9, lsl r5
     b84:	00000b94 	muleq	r0, r4, fp
     b88:	01510117 	cmpeq	r1, r7, lsl r1
     b8c:	5001173f 	andpl	r1, r1, pc, lsr r7
     b90:	006b0802 	rsbeq	r0, fp, r2, lsl #16
     b94:	00835c15 	addeq	r5, r3, r5, lsl ip
     b98:	000c0900 	andeq	r0, ip, r0, lsl #18
     b9c:	837c1600 	cmnhi	ip, #0, 12
     ba0:	0c100000 	ldceq	0, cr0, [r0], {-0}
     ba4:	0bda0000 	bleq	ff680bac <__bss_end__+0xff676aa4>
     ba8:	01170000 	tsteq	r7, r0
     bac:	c6080253 			; <UNDEFINED> instruction: 0xc6080253
     bb0:	05520117 	ldrbeq	r0, [r2, #-279]	; 0x117
     bb4:	00984c03 	addseq	r4, r8, r3, lsl #24
     bb8:	51011700 	tstpl	r1, r0, lsl #14
     bbc:	98800305 	stmls	r0, {r0, r2, r8, r9}
     bc0:	01170000 	tsteq	r7, r0
     bc4:	3c030550 	cfstr32cc	mvfx0, [r3], {80}	; 0x50
     bc8:	17000099 			; <UNDEFINED> instruction: 0x17000099
     bcc:	02047d02 	andeq	r7, r4, #2, 26	; 0x80
     bd0:	02170074 	andseq	r0, r7, #116	; 0x74
     bd4:	0802007d 	stmdaeq	r2, {r0, r2, r3, r4, r5, r6}
     bd8:	80150069 	andshi	r0, r5, r9, rrx
     bdc:	26000083 	strcs	r0, [r0], -r3, lsl #1
     be0:	1600000c 	strne	r0, [r0], -ip
     be4:	00008388 	andeq	r8, r0, r8, lsl #7
     be8:	00000c10 	andeq	r0, r0, r0, lsl ip
     bec:	00000bfa 	strdeq	r0, [r0], -sl
     bf0:	05500117 	ldrbeq	r0, [r0, #-279]	; 0x117
     bf4:	00997803 	addseq	r7, r9, r3, lsl #16
     bf8:	8c150000 	ldchi	0, cr0, [r5], {-0}
     bfc:	83000083 	movwhi	r0, #131	; 0x83
     c00:	0000000a 	andeq	r0, r0, sl
     c04:	00009a06 	andeq	r9, r0, r6, lsl #20
     c08:	01b92600 			; <UNDEFINED> instruction: 0x01b92600
     c0c:	1e040000 	cdpne	0, 0, cr0, cr4, cr0, {0}
     c10:	000cb927 	andeq	fp, ip, r7, lsr #18
     c14:	25290400 	strcs	r0, [r9, #-1024]!	; 0x400
     c18:	26000000 	strcs	r0, [r0], -r0
     c1c:	2800000c 	stmdacs	r0, {r2, r3}
     c20:	0000008f 	andeq	r0, r0, pc, lsl #1
     c24:	c6260029 	strtgt	r0, [r6], -r9, lsr #32
     c28:	04000005 	streq	r0, [r0], #-5
     c2c:	02532766 	subseq	r2, r3, #26738688	; 0x1980000
     c30:	0c050000 	stceq	0, cr0, [r5], {-0}
     c34:	00000025 	andeq	r0, r0, r5, lsr #32
     c38:	00000c4c 	andeq	r0, r0, ip, asr #24
     c3c:	00002c28 	andeq	r2, r0, r8, lsr #24
     c40:	06982800 	ldreq	r2, [r8], r0, lsl #16
     c44:	2c280000 	stccs	0, cr0, [r8], #-0
     c48:	00000000 	andeq	r0, r0, r0
     c4c:	00056027 	andeq	r6, r5, r7, lsr #32
     c50:	250e0500 	strcs	r0, [lr, #-1280]	; 0x500
     c54:	6b000000 	blvs	c5c <_start-0x73a4>
     c58:	2800000c 	stmdacs	r0, {r2, r3}
     c5c:	0000002c 	andeq	r0, r0, ip, lsr #32
     c60:	00069828 	andeq	r9, r6, r8, lsr #16
     c64:	002c2800 	eoreq	r2, ip, r0, lsl #16
     c68:	26000000 	strcs	r0, [r0], -r0
     c6c:	00000115 	andeq	r0, r0, r5, lsl r1
     c70:	ff2a8a04 			; <UNDEFINED> instruction: 0xff2a8a04
     c74:	04000000 	streq	r0, [r0], #-0
     c78:	000c88a4 	andeq	r8, ip, r4, lsr #17
     c7c:	002c2800 	eoreq	r2, ip, r0, lsl #16
     c80:	5a280000 	bpl	a00c88 <__bss_end__+0x9f6b80>
     c84:	00000000 	andeq	r0, r0, r0
     c88:	0004a32a 	andeq	sl, r4, sl, lsr #6
     c8c:	99500400 	ldmdbls	r0, {sl}^
     c90:	2800000c 	stmdacs	r0, {r2, r3}
     c94:	0000002c 	andeq	r0, r0, ip, lsr #32
     c98:	00702600 	rsbseq	r2, r0, r0, lsl #12
     c9c:	3a040000 	bcc	100ca4 <__bss_end__+0xf6b9c>
     ca0:	00019326 	andeq	r9, r1, r6, lsr #6
     ca4:	00060500 	andeq	r0, r6, r0, lsl #10
     ca8:	00001b5e 	andeq	r1, r0, lr, asr fp
     cac:	025c0004 	subseq	r0, ip, #4
     cb0:	01040000 	mrseq	r0, (UNDEF: 4)
     cb4:	00000612 	andeq	r0, r0, r2, lsl r6
     cb8:	0008290c 	andeq	r2, r8, ip, lsl #18
     cbc:	000a9f00 	andeq	r9, sl, r0, lsl #30
     cc0:	00839c00 	addeq	r9, r3, r0, lsl #24
     cc4:	00056800 	andeq	r6, r5, r0, lsl #16
     cc8:	00015500 	andeq	r5, r1, r0, lsl #10
     ccc:	05040200 	streq	r0, [r4, #-512]	; 0x200
     cd0:	00746e69 	rsbseq	r6, r4, r9, ror #28
     cd4:	84070403 	strhi	r0, [r7], #-1027	; 0x403
     cd8:	04000000 	streq	r0, [r0], #-0
     cdc:	0000002c 	andeq	r0, r0, ip, lsr #32
     ce0:	5e060103 	adfpls	f0, f6, f3
     ce4:	03000003 	movweq	r0, #3
     ce8:	03e70502 	mvneq	r0, #8388608	; 0x800000
     cec:	04030000 	streq	r0, [r3], #-0
     cf0:	0000c505 	andeq	ip, r0, r5, lsl #10
     cf4:	05080300 	streq	r0, [r8, #-768]	; 0x300
     cf8:	000000c0 	andeq	r0, r0, r0, asr #1
     cfc:	00057b05 	andeq	r7, r5, r5, lsl #22
     d00:	5f2e0200 	svcpl	0x002e0200
     d04:	03000000 	movweq	r0, #0
     d08:	035c0801 	cmpeq	ip, #65536	; 0x10000
     d0c:	02030000 	andeq	r0, r3, #0
     d10:	00024007 	andeq	r4, r2, r7
     d14:	04ac0500 	strteq	r0, [ip], #1280	; 0x500
     d18:	34020000 	strcc	r0, [r2], #-0
     d1c:	00000078 	andeq	r0, r0, r8, ror r0
     d20:	7f070403 	svcvc	0x00070403
     d24:	03000000 	movweq	r0, #0
     d28:	007a0708 	rsbseq	r0, sl, r8, lsl #14
     d2c:	b5050000 	strlt	r0, [r5, #-0]
     d30:	03000009 	movweq	r0, #9
     d34:	00002507 	andeq	r2, r0, r7, lsl #10
     d38:	09980500 	ldmibeq	r8, {r8, sl}
     d3c:	2c040000 	stccs	0, cr0, [r4], {-0}
     d40:	00000046 	andeq	r0, r0, r6, asr #32
     d44:	000a8205 	andeq	r8, sl, r5, lsl #4
     d48:	46720400 	ldrbtmi	r0, [r2], -r0, lsl #8
     d4c:	06000000 	streq	r0, [r0], -r0
     d50:	0000092b 	andeq	r0, r0, fp, lsr #18
     d54:	2c016505 	cfstr32cs	mvfx6, [r1], {5}
     d58:	07000000 	streq	r0, [r0, -r0]
     d5c:	d2a60404 	adcle	r0, r6, #4, 8	; 0x4000000
     d60:	08000000 	stmdaeq	r0, {}	; <UNPREDICTABLE>
     d64:	00000916 	andeq	r0, r0, r6, lsl r9
     d68:	00a7a804 	adceq	sl, r7, r4, lsl #16
     d6c:	86080000 	strhi	r0, [r8], -r0
     d70:	04000008 	streq	r0, [r0], #-8
     d74:	0000d2a9 	andeq	sp, r0, r9, lsr #5
     d78:	5f090000 	svcpl	0x00090000
     d7c:	e2000000 	and	r0, r0, #0
     d80:	0a000000 	beq	d88 <_start-0x7278>
     d84:	000000e2 	andeq	r0, r0, r2, ror #1
     d88:	04030003 	streq	r0, [r3], #-3
     d8c:	0002cb07 	andeq	ip, r2, r7, lsl #22
     d90:	04080b00 	streq	r0, [r8], #-2816	; 0xb00
     d94:	00010aa3 	andeq	r0, r1, r3, lsr #21
     d98:	0a6c0c00 	beq	1b03da0 <__bss_end__+0x1af9c98>
     d9c:	a5040000 	strge	r0, [r4, #-0]
     da0:	00000025 	andeq	r0, r0, r5, lsr #32
     da4:	0ae30c00 	beq	ff8c3dac <__bss_end__+0xff8b9ca4>
     da8:	aa040000 	bge	100db0 <__bss_end__+0xf6ca8>
     dac:	000000b3 	strheq	r0, [r0], -r3
     db0:	f3050004 	vhadd.u8	d0, d5, d4
     db4:	04000009 	streq	r0, [r0], #-9
     db8:	0000e9ab 	andeq	lr, r0, fp, lsr #19
     dbc:	083c0500 	ldmdaeq	ip!, {r8, sl}
     dc0:	af040000 	svcge	0x00040000
     dc4:	00000086 	andeq	r0, r0, r6, lsl #1
     dc8:	040e040d 	streq	r0, [lr], #-1037	; 0x40d
     dcc:	00000128 	andeq	r0, r0, r8, lsr #2
     dd0:	65080103 	strvs	r0, [r8, #-259]	; 0x103
     dd4:	04000003 	streq	r0, [r0], #-3
     dd8:	00000128 	andeq	r0, r0, r8, lsr #2
     ddc:	000af905 	andeq	pc, sl, r5, lsl #18
     de0:	78160600 	ldmdavc	r6, {r9, sl}
     de4:	0f000000 	svceq	0x00000000
     de8:	0000084d 	andeq	r0, r0, sp, asr #16
     dec:	922d0618 	eorls	r0, sp, #24, 12	; 0x1800000
     df0:	0c000001 	stceq	0, cr0, [r0], {1}
     df4:	00000a14 	andeq	r0, r0, r4, lsl sl
     df8:	01922f06 	orrseq	r2, r2, r6, lsl #30
     dfc:	10000000 	andne	r0, r0, r0
     e00:	06006b5f 			; <UNDEFINED> instruction: 0x06006b5f
     e04:	00002530 	andeq	r2, r0, r0, lsr r5
     e08:	570c0400 	strpl	r0, [ip, -r0, lsl #8]
     e0c:	0600000a 	streq	r0, [r0], -sl
     e10:	00002530 	andeq	r2, r0, r0, lsr r5
     e14:	2f0c0800 	svccs	0x000c0800
     e18:	06000008 	streq	r0, [r0], -r8
     e1c:	00002530 	andeq	r2, r0, r0, lsr r5
     e20:	4b0c0c00 	blmi	303e28 <__bss_end__+0x2f9d20>
     e24:	0600000b 	streq	r0, [r0], -fp
     e28:	00002530 	andeq	r2, r0, r0, lsr r5
     e2c:	5f101000 	svcpl	0x00101000
     e30:	31060078 	tstcc	r6, r8, ror r0
     e34:	00000198 	muleq	r0, r8, r1
     e38:	040e0014 	streq	r0, [lr], #-20
     e3c:	0000013f 	andeq	r0, r0, pc, lsr r1
     e40:	00013409 	andeq	r3, r1, r9, lsl #8
     e44:	0001a800 	andeq	sl, r1, r0, lsl #16
     e48:	00e20a00 	rsceq	r0, r2, r0, lsl #20
     e4c:	00000000 	andeq	r0, r0, r0
     e50:	00087a0f 	andeq	r7, r8, pc, lsl #20
     e54:	35062400 	strcc	r2, [r6, #-1024]	; 0x400
     e58:	00000221 	andeq	r0, r0, r1, lsr #4
     e5c:	0007270c 	andeq	r2, r7, ip, lsl #14
     e60:	25370600 	ldrcs	r0, [r7, #-1536]!	; 0x600
     e64:	00000000 	andeq	r0, r0, r0
     e68:	000a8a0c 	andeq	r8, sl, ip, lsl #20
     e6c:	25380600 	ldrcs	r0, [r8, #-1536]!	; 0x600
     e70:	04000000 	streq	r0, [r0], #-0
     e74:	00074b0c 	andeq	r4, r7, ip, lsl #22
     e78:	25390600 	ldrcs	r0, [r9, #-1536]!	; 0x600
     e7c:	08000000 	stmdaeq	r0, {}	; <UNPREDICTABLE>
     e80:	000c380c 	andeq	r3, ip, ip, lsl #16
     e84:	253a0600 	ldrcs	r0, [sl, #-1536]!	; 0x600
     e88:	0c000000 	stceq	0, cr0, [r0], {-0}
     e8c:	00097c0c 	andeq	r7, r9, ip, lsl #24
     e90:	253b0600 	ldrcs	r0, [fp, #-1536]!	; 0x600
     e94:	10000000 	andne	r0, r0, r0
     e98:	0009400c 	andeq	r4, r9, ip
     e9c:	253c0600 	ldrcs	r0, [ip, #-1536]!	; 0x600
     ea0:	14000000 	strne	r0, [r0], #-0
     ea4:	000b500c 	andeq	r5, fp, ip
     ea8:	253d0600 	ldrcs	r0, [sp, #-1536]!	; 0x600
     eac:	18000000 	stmdane	r0, {}	; <UNPREDICTABLE>
     eb0:	0009d50c 	andeq	sp, r9, ip, lsl #10
     eb4:	253e0600 	ldrcs	r0, [lr, #-1536]!	; 0x600
     eb8:	1c000000 	stcne	0, cr0, [r0], {-0}
     ebc:	000bec0c 	andeq	lr, fp, ip, lsl #24
     ec0:	253f0600 	ldrcs	r0, [pc, #-1536]!	; 8c8 <_start-0x7738>
     ec4:	20000000 	andcs	r0, r0, r0
     ec8:	07641100 	strbeq	r1, [r4, -r0, lsl #2]!
     ecc:	01080000 	mrseq	r0, (UNDEF: 8)
     ed0:	02614806 	rsbeq	r4, r1, #393216	; 0x60000
     ed4:	1c0c0000 	stcne	0, cr0, [ip], {-0}
     ed8:	06000008 	streq	r0, [r0], -r8
     edc:	00026149 	andeq	r6, r2, r9, asr #2
     ee0:	060c0000 	streq	r0, [ip], -r0
     ee4:	06000006 	streq	r0, [r0], -r6
     ee8:	0002614a 	andeq	r6, r2, sl, asr #2
     eec:	eb128000 	bl	4a0ef4 <__bss_end__+0x496dec>
     ef0:	0600000a 	streq	r0, [r0], -sl
     ef4:	0001344c 	andeq	r3, r1, ip, asr #8
     ef8:	12010000 	andne	r0, r1, #0
     efc:	000007b1 			; <UNDEFINED> instruction: 0x000007b1
     f00:	01344f06 	teqeq	r4, r6, lsl #30
     f04:	01040000 	mrseq	r0, (UNDEF: 4)
     f08:	01200900 	teqeq	r0, r0, lsl #18
     f0c:	02710000 	rsbseq	r0, r1, #0
     f10:	e20a0000 	and	r0, sl, #0
     f14:	1f000000 	svcne	0x00000000
     f18:	09851100 	stmibeq	r5, {r8, ip}
     f1c:	01900000 	orrseq	r0, r0, r0
     f20:	02af5b06 	adceq	r5, pc, #6144	; 0x1800
     f24:	140c0000 	strne	r0, [ip], #-0
     f28:	0600000a 	streq	r0, [r0], -sl
     f2c:	0002af5c 	andeq	sl, r2, ip, asr pc
     f30:	380c0000 	stmdacc	ip, {}	; <UNPREDICTABLE>
     f34:	0600000a 	streq	r0, [r0], -sl
     f38:	0000255d 	andeq	r2, r0, sp, asr r5
     f3c:	240c0400 	strcs	r0, [ip], #-1024	; 0x400
     f40:	06000008 	streq	r0, [r0], -r8
     f44:	0002b55f 	andeq	fp, r2, pc, asr r5
     f48:	640c0800 	strvs	r0, [ip], #-2048	; 0x800
     f4c:	06000007 	streq	r0, [r0], -r7
     f50:	00022160 	andeq	r2, r2, r0, ror #2
     f54:	0e008800 	cdpeq	8, 0, cr8, cr0, cr0, {0}
     f58:	00027104 	andeq	r7, r2, r4, lsl #2
     f5c:	02c50900 	sbceq	r0, r5, #0, 18
     f60:	02c50000 	sbceq	r0, r5, #0
     f64:	e20a0000 	and	r0, sl, #0
     f68:	1f000000 	svcne	0x00000000
     f6c:	cb040e00 	blgt	104774 <__bss_end__+0xfa66c>
     f70:	13000002 	movwne	r0, #2
     f74:	0009df0f 	andeq	sp, r9, pc, lsl #30
     f78:	73060800 	movwvc	r0, #26624	; 0x6800
     f7c:	000002f1 	strdeq	r0, [r0], -r1
     f80:	0007450c 	andeq	r4, r7, ip, lsl #10
     f84:	f1740600 			; <UNDEFINED> instruction: 0xf1740600
     f88:	00000002 	andeq	r0, r0, r2
     f8c:	0006880c 	andeq	r8, r6, ip, lsl #16
     f90:	25750600 	ldrbcs	r0, [r5, #-1536]!	; 0x600
     f94:	04000000 	streq	r0, [r0], #-0
     f98:	5f040e00 	svcpl	0x00040e00
     f9c:	0f000000 	svceq	0x00000000
     fa0:	000009fe 	strdeq	r0, [r0], -lr
     fa4:	21b30668 			; <UNDEFINED> instruction: 0x21b30668
     fa8:	10000004 	andne	r0, r0, r4
     fac:	0600705f 			; <UNDEFINED> instruction: 0x0600705f
     fb0:	0002f1b4 			; <UNDEFINED> instruction: 0x0002f1b4
     fb4:	5f100000 	svcpl	0x00100000
     fb8:	b5060072 	strlt	r0, [r6, #-114]	; 0x72
     fbc:	00000025 	andeq	r0, r0, r5, lsr #32
     fc0:	775f1004 	ldrbvc	r1, [pc, -r4]
     fc4:	25b60600 	ldrcs	r0, [r6, #1536]!	; 0x600
     fc8:	08000000 	stmdaeq	r0, {}	; <UNPREDICTABLE>
     fcc:	0007aa0c 	andeq	sl, r7, ip, lsl #20
     fd0:	3fb70600 	svccc	0x00b70600
     fd4:	0c000000 	stceq	0, cr0, [r0], {-0}
     fd8:	0008a40c 	andeq	sl, r8, ip, lsl #8
     fdc:	3fb80600 	svccc	0x00b80600
     fe0:	0e000000 	cdpeq	0, 0, cr0, cr0, cr0, {0}
     fe4:	66625f10 	uqadd16vs	r5, r2, r0
     fe8:	ccb90600 	ldcgt	6, cr0, [r9]
     fec:	10000002 	andne	r0, r0, r2
     ff0:	0006de0c 	andeq	sp, r6, ip, lsl #28
     ff4:	25ba0600 	ldrcs	r0, [sl, #1536]!	; 0x600
     ff8:	18000000 	stmdane	r0, {}	; <UNPREDICTABLE>
     ffc:	0007880c 	andeq	r8, r7, ip, lsl #16
    1000:	20c10600 	sbccs	r0, r1, r0, lsl #12
    1004:	1c000001 	stcne	0, cr0, [r0], {1}
    1008:	0005630c 	andeq	r6, r5, ip, lsl #6
    100c:	7cc30600 	stclvc	6, cr0, [r3], {0}
    1010:	20000005 	andcs	r0, r0, r5
    1014:	0002560c 	andeq	r5, r2, ip, lsl #12
    1018:	a6c50600 	strbge	r0, [r5], r0, lsl #12
    101c:	24000005 	strcs	r0, [r0], #-5
    1020:	000a7c0c 	andeq	r7, sl, ip, lsl #24
    1024:	cac80600 	bgt	ff20282c <__bss_end__+0xff1f8724>
    1028:	28000005 	stmdacs	r0, {r0, r2}
    102c:	000c060c 	andeq	r0, ip, ip, lsl #12
    1030:	e4c90600 	strb	r0, [r9], #1536	; 0x600
    1034:	2c000005 	stccs	0, cr0, [r0], {5}
    1038:	62755f10 	rsbsvs	r5, r5, #16, 30	; 0x40
    103c:	cccc0600 	stclgt	6, cr0, [ip], {0}
    1040:	30000002 	andcc	r0, r0, r2
    1044:	70755f10 	rsbsvc	r5, r5, r0, lsl pc
    1048:	f1cd0600 			; <UNDEFINED> instruction: 0xf1cd0600
    104c:	38000002 	stmdacc	r0, {r1}
    1050:	72755f10 	rsbsvc	r5, r5, #16, 30	; 0x40
    1054:	25ce0600 	strbcs	r0, [lr, #1536]	; 0x600
    1058:	3c000000 	stccc	0, cr0, [r0], {-0}
    105c:	0007300c 	andeq	r3, r7, ip
    1060:	ead10600 	b	ff442868 <__bss_end__+0xff438760>
    1064:	40000005 	andmi	r0, r0, r5
    1068:	000bb10c 	andeq	fp, fp, ip, lsl #2
    106c:	fad20600 	blx	ff482874 <__bss_end__+0xff47876c>
    1070:	43000005 	movwmi	r0, #5
    1074:	626c5f10 	rsbvs	r5, ip, #16, 30	; 0x40
    1078:	ccd50600 	ldclgt	6, cr0, [r5], {0}
    107c:	44000002 	strmi	r0, [r0], #-2
    1080:	0007ca0c 	andeq	ip, r7, ip, lsl #20
    1084:	25d80600 	ldrbcs	r0, [r8, #1536]	; 0x600
    1088:	4c000000 	stcmi	0, cr0, [r0], {-0}
    108c:	0007ef0c 	andeq	lr, r7, ip, lsl #30
    1090:	91d90600 	bicsls	r0, r9, r0, lsl #12
    1094:	50000000 	andpl	r0, r0, r0
    1098:	0004030c 	andeq	r0, r4, ip, lsl #6
    109c:	3fdc0600 	svccc	0x00dc0600
    10a0:	54000004 	strpl	r0, [r0], #-4
    10a4:	0009320c 	andeq	r3, r9, ip, lsl #4
    10a8:	15e00600 	strbne	r0, [r0, #1536]!	; 0x600
    10ac:	58000001 	stmdapl	r0, {r0}
    10b0:	000a060c 	andeq	r0, sl, ip, lsl #12
    10b4:	0ae20600 	beq	ff8828bc <__bss_end__+0xff8787b4>
    10b8:	5c000001 	stcpl	0, cr0, [r0], {1}
    10bc:	0009380c 	andeq	r3, r9, ip, lsl #16
    10c0:	25e30600 	strbcs	r0, [r3, #1536]!	; 0x600
    10c4:	64000000 	strvs	r0, [r0], #-0
    10c8:	00251400 	eoreq	r1, r5, r0, lsl #8
    10cc:	043f0000 	ldrteq	r0, [pc], #-0	; 10d4 <_start-0x6f2c>
    10d0:	3f150000 	svccc	0x00150000
    10d4:	15000004 	strne	r0, [r0, #-4]
    10d8:	00000120 	andeq	r0, r0, r0, lsr #2
    10dc:	00012215 	andeq	r2, r1, r5, lsl r2
    10e0:	00251500 	eoreq	r1, r5, r0, lsl #10
    10e4:	0e000000 	cdpeq	0, 0, cr0, cr0, cr0, {0}
    10e8:	00044a04 	andeq	r4, r4, r4, lsl #20
    10ec:	043f0400 	ldrteq	r0, [pc], #-1024	; 10f4 <_start-0x6f0c>
    10f0:	5f160000 	svcpl	0x00160000
    10f4:	2800000a 	stmdacs	r0, {r1, r3}
    10f8:	02380604 	eorseq	r0, r8, #4, 12	; 0x400000
    10fc:	0000057c 	andeq	r0, r0, ip, ror r5
    1100:	0009ce17 	andeq	ip, r9, r7, lsl lr
    1104:	023a0600 	eorseq	r0, sl, #0, 12
    1108:	00000025 	andeq	r0, r0, r5, lsr #32
    110c:	07b91700 	ldreq	r1, [r9, r0, lsl #14]!
    1110:	3f060000 	svccc	0x00060000
    1114:	00065102 	andeq	r5, r6, r2, lsl #2
    1118:	8d170400 	cfldrshi	mvf0, [r7, #-0]
    111c:	06000008 	streq	r0, [r0], -r8
    1120:	0651023f 			; <UNDEFINED> instruction: 0x0651023f
    1124:	17080000 	strne	r0, [r8, -r0]
    1128:	00000845 	andeq	r0, r0, r5, asr #16
    112c:	51023f06 	tstpl	r2, r6, lsl #30
    1130:	0c000006 	stceq	0, cr0, [r0], {6}
    1134:	000a3317 	andeq	r3, sl, r7, lsl r3
    1138:	02410600 	subeq	r0, r1, #0, 12
    113c:	00000025 	andeq	r0, r0, r5, lsr #32
    1140:	06961710 			; <UNDEFINED> instruction: 0x06961710
    1144:	42060000 	andmi	r0, r6, #0
    1148:	00083302 	andeq	r3, r8, r2, lsl #6
    114c:	21171400 	tstcs	r7, r0, lsl #8
    1150:	0600000b 	streq	r0, [r0], -fp
    1154:	00250244 	eoreq	r0, r5, r4, asr #4
    1158:	17300000 	ldrne	r0, [r0, -r0]!
    115c:	00000a3d 	andeq	r0, r0, sp, lsr sl
    1160:	a0024506 	andge	r4, r2, r6, lsl #10
    1164:	34000005 	strcc	r0, [r0], #-5
    1168:	00098d17 	andeq	r8, r9, r7, lsl sp
    116c:	02470600 	subeq	r0, r7, #0, 12
    1170:	00000025 	andeq	r0, r0, r5, lsr #32
    1174:	0a4d1738 	beq	1346e5c <__bss_end__+0x133cd54>
    1178:	49060000 	stmdbmi	r6, {}	; <UNPREDICTABLE>
    117c:	00084e02 	andeq	r4, r8, r2, lsl #28
    1180:	0e173c00 	cdpeq	12, 1, cr3, cr7, cr0, {0}
    1184:	06000009 	streq	r0, [r0], -r9
    1188:	0192024c 	orrseq	r0, r2, ip, asr #4
    118c:	17400000 	strbne	r0, [r0, -r0]
    1190:	00000864 	andeq	r0, r0, r4, ror #16
    1194:	25024d06 	strcs	r4, [r2, #-3334]	; 0xd06
    1198:	44000000 	strmi	r0, [r0], #-0
    119c:	000c3317 	andeq	r3, ip, r7, lsl r3
    11a0:	024e0600 	subeq	r0, lr, #0, 12
    11a4:	00000192 	muleq	r0, r2, r1
    11a8:	099f1748 	ldmibeq	pc, {r3, r6, r8, r9, sl, ip}	; <UNPREDICTABLE>
    11ac:	4f060000 	svcmi	0x00060000
    11b0:	00085402 	andeq	r5, r8, r2, lsl #8
    11b4:	9c174c00 	ldcls	12, cr4, [r7], {-0}
    11b8:	06000008 	streq	r0, [r0], -r8
    11bc:	00250252 	eoreq	r0, r5, r2, asr r2
    11c0:	17500000 	ldrbne	r0, [r0, -r0]
    11c4:	000007e7 	andeq	r0, r0, r7, ror #15
    11c8:	22025306 	andcs	r5, r2, #402653184	; 0x18000000
    11cc:	54000001 	strpl	r0, [r0], #-1
    11d0:	0009c717 	andeq	ip, r9, r7, lsl r7
    11d4:	02760600 	rsbseq	r0, r6, #0, 12
    11d8:	00000811 	andeq	r0, r0, r1, lsl r8
    11dc:	09851858 	stmibeq	r5, {r3, r4, r6, fp, ip}
    11e0:	7a060000 	bvc	1811e8 <__bss_end__+0x1770e0>
    11e4:	0002af02 	andeq	sl, r2, r2, lsl #30
    11e8:	18014800 	stmdane	r1, {fp, lr}
    11ec:	000008d1 	ldrdeq	r0, [r0], -r1
    11f0:	71027b06 	tstvc	r2, r6, lsl #22
    11f4:	4c000002 	stcmi	0, cr0, [r0], {2}
    11f8:	0b8a1801 	bleq	fe287204 <__bss_end__+0xfe27d0fc>
    11fc:	7f060000 	svcvc	0x00060000
    1200:	00086502 	andeq	r6, r8, r2, lsl #10
    1204:	1802dc00 	stmdane	r2, {sl, fp, ip, lr, pc}
    1208:	000007a2 	andeq	r0, r0, r2, lsr #15
    120c:	16028406 	strne	r8, [r2], -r6, lsl #8
    1210:	e0000006 	and	r0, r0, r6
    1214:	075f1802 	ldrbeq	r1, [pc, -r2, lsl #16]
    1218:	85060000 	strhi	r0, [r6, #-0]
    121c:	00087102 	andeq	r7, r8, r2, lsl #2
    1220:	0002ec00 	andeq	lr, r2, r0, lsl #24
    1224:	0421040e 	strteq	r0, [r1], #-1038	; 0x40e
    1228:	25140000 	ldrcs	r0, [r4, #-0]
    122c:	a0000000 	andge	r0, r0, r0
    1230:	15000005 	strne	r0, [r0, #-5]
    1234:	0000043f 	andeq	r0, r0, pc, lsr r4
    1238:	00012015 	andeq	r2, r1, r5, lsl r0
    123c:	05a01500 	streq	r1, [r0, #1280]!	; 0x500
    1240:	25150000 	ldrcs	r0, [r5, #-0]
    1244:	00000000 	andeq	r0, r0, r0
    1248:	012f040e 	teqeq	pc, lr, lsl #8
    124c:	040e0000 	streq	r0, [lr], #-0
    1250:	00000582 	andeq	r0, r0, r2, lsl #11
    1254:	00009c14 	andeq	r9, r0, r4, lsl ip
    1258:	0005ca00 	andeq	ip, r5, r0, lsl #20
    125c:	043f1500 	ldrteq	r1, [pc], #-1280	; 1264 <_start-0x6d9c>
    1260:	20150000 	andscs	r0, r5, r0
    1264:	15000001 	strne	r0, [r0, #-1]
    1268:	0000009c 	muleq	r0, ip, r0
    126c:	00002515 	andeq	r2, r0, r5, lsl r5
    1270:	040e0000 	streq	r0, [lr], #-0
    1274:	000005ac 	andeq	r0, r0, ip, lsr #11
    1278:	00002514 	andeq	r2, r0, r4, lsl r5
    127c:	0005e400 	andeq	lr, r5, r0, lsl #8
    1280:	043f1500 	ldrteq	r1, [pc], #-1280	; 1288 <_start-0x6d78>
    1284:	20150000 	andscs	r0, r5, r0
    1288:	00000001 	andeq	r0, r0, r1
    128c:	05d0040e 	ldrbeq	r0, [r0, #1038]	; 0x40e
    1290:	5f090000 	svcpl	0x00090000
    1294:	fa000000 	blx	129c <_start-0x6d64>
    1298:	0a000005 	beq	12b4 <_start-0x6d4c>
    129c:	000000e2 	andeq	r0, r0, r2, ror #1
    12a0:	5f090002 	svcpl	0x00090002
    12a4:	0a000000 	beq	12ac <_start-0x6d54>
    12a8:	0a000006 	beq	12c8 <_start-0x6d38>
    12ac:	000000e2 	andeq	r0, r0, r2, ror #1
    12b0:	ec060000 	stc	0, cr0, [r6], {-0}
    12b4:	06000009 	streq	r0, [r0], -r9
    12b8:	02f7011d 	rscseq	r0, r7, #1073741831	; 0x40000007
    12bc:	5a190000 	bpl	6412c4 <__bss_end__+0x6371bc>
    12c0:	0c00000b 	stceq	0, cr0, [r0], {11}
    12c4:	4b012106 	blmi	496e4 <__bss_end__+0x3f5dc>
    12c8:	17000006 	strne	r0, [r0, -r6]
    12cc:	00000a14 	andeq	r0, r0, r4, lsl sl
    12d0:	4b012306 	blmi	49ef0 <__bss_end__+0x3fde8>
    12d4:	00000006 	andeq	r0, r0, r6
    12d8:	0008aa17 	andeq	sl, r8, r7, lsl sl
    12dc:	01240600 	teqeq	r4, r0, lsl #12
    12e0:	00000025 	andeq	r0, r0, r5, lsr #32
    12e4:	09e61704 	stmibeq	r6!, {r2, r8, r9, sl, ip}^
    12e8:	25060000 	strcs	r0, [r6, #-0]
    12ec:	00065101 	andeq	r5, r6, r1, lsl #2
    12f0:	0e000800 	cdpeq	8, 0, cr0, cr0, cr0, {0}
    12f4:	00061604 	andeq	r1, r6, r4, lsl #12
    12f8:	0a040e00 	beq	104b00 <__bss_end__+0xfa9f8>
    12fc:	19000006 	stmdbne	r0, {r1, r2}
    1300:	0000068e 	andeq	r0, r0, lr, lsl #13
    1304:	013d060e 	teqeq	sp, lr, lsl #12
    1308:	0000068c 	andeq	r0, r0, ip, lsl #13
    130c:	000a6617 	andeq	r6, sl, r7, lsl r6
    1310:	013e0600 	teqeq	lr, r0, lsl #12
    1314:	0000068c 	andeq	r0, r0, ip, lsl #13
    1318:	0a931700 	beq	fe4c6f20 <__bss_end__+0xfe4bce18>
    131c:	3f060000 	svccc	0x00060000
    1320:	00068c01 	andeq	r8, r6, r1, lsl #24
    1324:	f4170600 			; <UNDEFINED> instruction: 0xf4170600
    1328:	0600000a 	streq	r0, [r0], -sl
    132c:	00660140 	rsbeq	r0, r6, r0, asr #2
    1330:	000c0000 	andeq	r0, ip, r0
    1334:	00006609 	andeq	r6, r0, r9, lsl #12
    1338:	00069c00 	andeq	r9, r6, r0, lsl #24
    133c:	00e20a00 	rsceq	r0, r2, r0, lsl #20
    1340:	00020000 	andeq	r0, r2, r0
    1344:	5706d01a 	smladpl	r6, sl, r0, sp
    1348:	00079d02 	andeq	r9, r7, r2, lsl #26
    134c:	0b331700 	bleq	cc6f54 <__bss_end__+0xcbce4c>
    1350:	59060000 	stmdbpl	r6, {}	; <UNPREDICTABLE>
    1354:	00002c02 	andeq	r2, r0, r2, lsl #24
    1358:	d6170000 	ldrle	r0, [r7], -r0
    135c:	0600000a 	streq	r0, [r0], -sl
    1360:	0122025a 	teqeq	r2, sl, asr r2
    1364:	17040000 	strne	r0, [r4, -r0]
    1368:	000008f3 	strdeq	r0, [r0], -r3
    136c:	9d025b06 	vstrls	d5, [r2, #-24]	; 0xffffffe8
    1370:	08000007 	stmdaeq	r0, {r0, r1, r2}
    1374:	000bf717 	andeq	pc, fp, r7, lsl r7	; <UNPREDICTABLE>
    1378:	025c0600 	subseq	r0, ip, #0, 12
    137c:	000001a8 	andeq	r0, r0, r8, lsr #3
    1380:	08551724 	ldmdaeq	r5, {r2, r5, r8, r9, sl, ip}^
    1384:	5d060000 	stcpl	0, cr0, [r6, #-0]
    1388:	00002502 	andeq	r2, r0, r2, lsl #10
    138c:	0f174800 	svceq	0x00174800
    1390:	0600000a 	streq	r0, [r0], -sl
    1394:	007f025e 	rsbseq	r0, pc, lr, asr r2	; <UNPREDICTABLE>
    1398:	17500000 	ldrbne	r0, [r0, -r0]
    139c:	00000c15 	andeq	r0, r0, r5, lsl ip
    13a0:	57025f06 	strpl	r5, [r2, -r6, lsl #30]
    13a4:	58000006 	stmdapl	r0, {r1, r2}
    13a8:	000a2617 	andeq	r2, sl, r7, lsl r6
    13ac:	02600600 	rsbeq	r0, r0, #0, 12
    13b0:	0000010a 	andeq	r0, r0, sl, lsl #2
    13b4:	0c251768 	stceq	7, cr1, [r5], #-416	; 0xfffffe60
    13b8:	61060000 	mrsvs	r0, (UNDEF: 6)
    13bc:	00010a02 	andeq	r0, r1, r2, lsl #20
    13c0:	19177000 	ldmdbne	r7, {ip, sp, lr}
    13c4:	06000007 	streq	r0, [r0], -r7
    13c8:	010a0262 	tsteq	sl, r2, ror #4
    13cc:	17780000 	ldrbne	r0, [r8, -r0]!
    13d0:	00000b71 	andeq	r0, r0, r1, ror fp
    13d4:	ad026306 	stcge	3, cr6, [r2, #-24]	; 0xffffffe8
    13d8:	80000007 	andhi	r0, r0, r7
    13dc:	0008e717 	andeq	lr, r8, r7, lsl r7
    13e0:	02640600 	rsbeq	r0, r4, #0, 12
    13e4:	000007bd 			; <UNDEFINED> instruction: 0x000007bd
    13e8:	0b011788 	bleq	47210 <__bss_end__+0x3d108>
    13ec:	65060000 	strvs	r0, [r6, #-0]
    13f0:	00002502 	andeq	r2, r0, r2, lsl #10
    13f4:	0e17a000 	cdpeq	0, 1, cr10, cr7, cr0, {0}
    13f8:	06000008 	streq	r0, [r0], -r8
    13fc:	010a0266 	tsteq	sl, r6, ror #4
    1400:	17a40000 	strne	r0, [r4, r0]!
    1404:	000006f7 	strdeq	r0, [r0], -r7
    1408:	0a026706 	beq	9b028 <__bss_end__+0x90f20>
    140c:	ac000001 	stcge	0, cr0, [r0], {1}
    1410:	0007fd17 	andeq	pc, r7, r7, lsl sp	; <UNPREDICTABLE>
    1414:	02680600 	rsbeq	r0, r8, #0, 12
    1418:	0000010a 	andeq	r0, r0, sl, lsl #2
    141c:	06be17b4 			; <UNDEFINED> instruction: 0x06be17b4
    1420:	69060000 	stmdbvs	r6, {}	; <UNPREDICTABLE>
    1424:	00010a02 	andeq	r0, r1, r2, lsl #20
    1428:	cd17bc00 	ldcgt	12, cr11, [r7, #-0]
    142c:	06000006 	streq	r0, [r0], -r6
    1430:	010a026a 	tsteq	sl, sl, ror #4
    1434:	17c40000 	strbne	r0, [r4, r0]
    1438:	000009cc 	andeq	r0, r0, ip, asr #19
    143c:	25026b06 	strcs	r6, [r2, #-2822]	; 0xb06
    1440:	cc000000 	stcgt	0, cr0, [r0], {-0}
    1444:	01280900 	teqeq	r8, r0, lsl #18
    1448:	07ad0000 	streq	r0, [sp, r0]!
    144c:	e20a0000 	and	r0, sl, #0
    1450:	19000000 	stmdbne	r0, {}	; <UNPREDICTABLE>
    1454:	01280900 	teqeq	r8, r0, lsl #18
    1458:	07bd0000 	ldreq	r0, [sp, r0]!
    145c:	e20a0000 	and	r0, sl, #0
    1460:	07000000 	streq	r0, [r0, -r0]
    1464:	01280900 	teqeq	r8, r0, lsl #18
    1468:	07cd0000 	strbeq	r0, [sp, r0]
    146c:	e20a0000 	and	r0, sl, #0
    1470:	17000000 	strne	r0, [r0, -r0]
    1474:	06f01a00 	ldrbteq	r1, [r0], r0, lsl #20
    1478:	07f10270 			; <UNDEFINED> instruction: 0x07f10270
    147c:	6f170000 	svcvs	0x00170000
    1480:	06000009 	streq	r0, [r0], -r9
    1484:	07f10273 			; <UNDEFINED> instruction: 0x07f10273
    1488:	17000000 	strne	r0, [r0, -r0]
    148c:	0000094f 	andeq	r0, r0, pc, asr #18
    1490:	01027406 	tsteq	r2, r6, lsl #8
    1494:	78000008 	stmdavc	r0, {r3}
    1498:	02f10900 	rscseq	r0, r1, #0, 18
    149c:	08010000 	stmdaeq	r1, {}	; <UNPREDICTABLE>
    14a0:	e20a0000 	and	r0, sl, #0
    14a4:	1d000000 	stcne	0, cr0, [r0, #-0]
    14a8:	002c0900 	eoreq	r0, ip, r0, lsl #18
    14ac:	08110000 	ldmdaeq	r1, {}	; <UNPREDICTABLE>
    14b0:	e20a0000 	and	r0, sl, #0
    14b4:	1d000000 	stcne	0, cr0, [r0, #-0]
    14b8:	06f01b00 	ldrbteq	r1, [r0], r0, lsl #22
    14bc:	08330255 	ldmdaeq	r3!, {r0, r2, r4, r6, r9}
    14c0:	5f1c0000 	svcpl	0x001c0000
    14c4:	0600000a 	streq	r0, [r0], -sl
    14c8:	069c026c 	ldreq	r0, [ip], ip, ror #4
    14cc:	b71c0000 	ldrlt	r0, [ip, -r0]
    14d0:	0600000b 	streq	r0, [r0], -fp
    14d4:	07cd0275 			; <UNDEFINED> instruction: 0x07cd0275
    14d8:	09000000 	stmdbeq	r0, {}	; <UNPREDICTABLE>
    14dc:	00000128 	andeq	r0, r0, r8, lsr #2
    14e0:	00000843 	andeq	r0, r0, r3, asr #16
    14e4:	0000e20a 	andeq	lr, r0, sl, lsl #4
    14e8:	1d001800 	stcne	8, cr1, [r0, #-0]
    14ec:	0000084e 	andeq	r0, r0, lr, asr #16
    14f0:	00043f15 	andeq	r3, r4, r5, lsl pc
    14f4:	040e0000 	streq	r0, [lr], #-0
    14f8:	00000843 	andeq	r0, r0, r3, asr #16
    14fc:	0192040e 	orrseq	r0, r2, lr, lsl #8
    1500:	651d0000 	ldrvs	r0, [sp, #-0]
    1504:	15000008 	strne	r0, [r0, #-8]
    1508:	00000025 	andeq	r0, r0, r5, lsr #32
    150c:	6b040e00 	blvs	104d14 <__bss_end__+0xfac0c>
    1510:	0e000008 	cdpeq	0, 0, cr0, cr0, cr8, {0}
    1514:	00085a04 	andeq	r5, r8, r4, lsl #20
    1518:	060a0900 	streq	r0, [sl], -r0, lsl #18
    151c:	08810000 	stmeq	r1, {}	; <UNPREDICTABLE>
    1520:	e20a0000 	and	r0, sl, #0
    1524:	02000000 	andeq	r0, r0, #0
    1528:	0b151e00 	bleq	548d30 <__bss_end__+0x53ec28>
    152c:	fd060000 	stc2	0, cr0, [r6, #-0]
    1530:	00043f02 	andeq	r3, r4, r2, lsl #30
    1534:	0b0e1e00 	bleq	388d3c <__bss_end__+0x37ec34>
    1538:	fe060000 	cdp2	0, 0, cr0, cr6, cr0, {0}
    153c:	00044502 	andeq	r4, r4, r2, lsl #10
    1540:	00251400 	eoreq	r1, r5, r0, lsl #8
    1544:	08a80000 	stmiaeq	r8!, {}	; <UNPREDICTABLE>
    1548:	25150000 	ldrcs	r0, [r5, #-0]
    154c:	00000000 	andeq	r0, r0, r0
    1550:	00086e1f 	andeq	r6, r8, pc, lsl lr
    1554:	b31d0700 	tstlt	sp, #0, 14
    1558:	0e000008 	cdpeq	0, 0, cr0, cr0, cr8, {0}
    155c:	00089904 	andeq	r9, r8, r4, lsl #18
    1560:	00251400 	eoreq	r1, r5, r0, lsl #8
    1564:	08c80000 	stmiaeq	r8, {}^	; <UNPREDICTABLE>
    1568:	a0150000 	andsge	r0, r5, r0
    156c:	00000005 	andeq	r0, r0, r5
    1570:	000d5f1f 	andeq	r5, sp, pc, lsl pc
    1574:	d3220700 	teqle	r2, #0, 14
    1578:	0e000008 	cdpeq	0, 0, cr0, cr0, cr8, {0}
    157c:	0008b904 	andeq	fp, r8, r4, lsl #18
    1580:	5f012000 	svcpl	0x00012000
    1584:	08000000 	stmdaeq	r0, {}	; <UNPREDICTABLE>
    1588:	0009160c 	andeq	r1, r9, ip, lsl #12
    158c:	06e72100 	strbteq	r2, [r7], r0, lsl #2
    1590:	21000000 	mrscs	r0, (UNDEF: 0)
    1594:	00000b60 	andeq	r0, r0, r0, ror #22
    1598:	0ba22101 	bleq	fe8899a4 <__bss_end__+0xfe87f89c>
    159c:	21040000 	mrscs	r0, (UNDEF: 4)
    15a0:	00000736 	andeq	r0, r0, r6, lsr r7
    15a4:	091c2105 	ldmdbeq	ip, {r0, r2, r8, sp}
    15a8:	21060000 	mrscs	r0, (UNDEF: 6)
    15ac:	00000bbf 			; <UNDEFINED> instruction: 0x00000bbf
    15b0:	0bce2107 	bleq	ff3899d4 <__bss_end__+0xff37f8cc>
    15b4:	21030000 	mrscs	r0, (UNDEF: 3)
    15b8:	00000bdd 	ldrdeq	r0, [r0], -sp
    15bc:	040b0002 	streq	r0, [fp], #-2
    15c0:	09c35601 	stmibeq	r3, {r0, r9, sl, ip, lr}^
    15c4:	64220000 	strtvs	r0, [r2], #-0
    15c8:	01000005 	tsteq	r0, r5
    15cc:	00006d57 	andeq	r6, r0, r7, asr sp
    15d0:	1f010400 	svcne	0x00010400
    15d4:	07c02200 	strbeq	r2, [r0, r0, lsl #4]
    15d8:	59010000 	stmdbpl	r1, {}	; <UNPREDICTABLE>
    15dc:	0000006d 	andeq	r0, r0, sp, rrx
    15e0:	001c0304 	andseq	r0, ip, r4, lsl #6
    15e4:	000ff422 	andeq	pc, pc, r2, lsr #8
    15e8:	6d5a0100 	ldfvse	f0, [sl, #-0]
    15ec:	04000000 	streq	r0, [r0], #-0
    15f0:	22001a02 	andcs	r1, r0, #8192	; 0x2000
    15f4:	00000755 	andeq	r0, r0, r5, asr r7
    15f8:	006d6001 	rsbeq	r6, sp, r1
    15fc:	01040000 	mrseq	r0, (UNDEF: 4)
    1600:	73230019 	teqvc	r3, #25
    1604:	61010074 	tstvs	r1, r4, ror r0
    1608:	0000006d 	andeq	r0, r0, sp, rrx
    160c:	00180104 	andseq	r0, r8, r4, lsl #2
    1610:	00094a22 	andeq	r4, r9, r2, lsr #20
    1614:	6d650100 	stfvse	f0, [r5, #-0]
    1618:	04000000 	streq	r0, [r0], #-0
    161c:	22001701 	andcs	r1, r0, #262144	; 0x40000
    1620:	0000095d 	andeq	r0, r0, sp, asr r9
    1624:	006d6801 	rsbeq	r6, sp, r1, lsl #16
    1628:	01040000 	mrseq	r0, (UNDEF: 4)
    162c:	58220016 	stmdapl	r2!, {r1, r2, r4}
    1630:	01000009 	tsteq	r0, r9
    1634:	00006d6b 	andeq	r6, r0, fp, ror #26
    1638:	15010400 	strne	r0, [r1, #-1024]	; 0x400
    163c:	07d32200 	ldrbeq	r2, [r3, r0, lsl #4]
    1640:	6e010000 	cdpvs	0, 0, cr0, cr1, cr0, {0}
    1644:	0000006d 	andeq	r0, r0, sp, rrx
    1648:	00110404 	andseq	r0, r1, r4, lsl #8
    164c:	00097622 	andeq	r7, r9, r2, lsr #12
    1650:	6d6f0100 	stfvse	f0, [pc, #-0]	; 1658 <_start-0x69a8>
    1654:	04000000 	streq	r0, [r0], #-0
    1658:	22001001 	andcs	r1, r0, #1
    165c:	000007dd 	ldrdeq	r0, [r0], -sp
    1660:	006d7201 	rsbeq	r7, sp, r1, lsl #4
    1664:	10040000 	andne	r0, r4, r0
    1668:	05000000 	streq	r0, [r0, #-0]
    166c:	00000c1a 	andeq	r0, r0, sl, lsl ip
    1670:	09167301 	ldmdbeq	r6, {r0, r8, r9, ip, sp, lr}
    1674:	c3240000 	teqgt	r4, #0
    1678:	0b000009 	bleq	16a4 <_start-0x695c>
    167c:	80810104 	addhi	r0, r1, r4, lsl #2
    1680:	2300000a 	movwcs	r0, #10
    1684:	01006174 	tsteq	r0, r4, ror r1
    1688:	00002c82 	andeq	r2, r0, r2, lsl #25
    168c:	1f010400 	svcne	0x00010400
    1690:	06b42200 	ldrteq	r2, [r4], r0, lsl #4
    1694:	85010000 	strhi	r0, [r1, #-0]
    1698:	0000002c 	andeq	r0, r0, ip, lsr #32
    169c:	001e0104 	andseq	r0, lr, r4, lsl #2
    16a0:	77787423 	ldrbvc	r7, [r8, -r3, lsr #8]!
    16a4:	2c890100 	stfcss	f0, [r9], {0}
    16a8:	04000000 	streq	r0, [r0], #-0
    16ac:	23001d01 	movwcs	r1, #3329	; 0xd01
    16b0:	00727872 	rsbseq	r7, r2, r2, ror r8
    16b4:	002c8f01 	eoreq	r8, ip, r1, lsl #30
    16b8:	01040000 	mrseq	r0, (UNDEF: 4)
    16bc:	7423001c 	strtvc	r0, [r3], #-28
    16c0:	01006478 	tsteq	r0, r8, ror r4
    16c4:	00002c95 	muleq	r0, r5, ip
    16c8:	1b010400 	blne	426d0 <__bss_end__+0x385c8>
    16cc:	78722300 	ldmdavc	r2!, {r8, r9, sp}^
    16d0:	98010064 	stmdals	r1, {r2, r5, r6}
    16d4:	0000002c 	andeq	r0, r0, ip, lsr #32
    16d8:	001a0104 	andseq	r0, sl, r4, lsl #2
    16dc:	65787423 	ldrbvs	r7, [r8, #-1059]!	; 0x423
    16e0:	2c9c0100 	ldfcss	f0, [ip], {0}
    16e4:	04000000 	streq	r0, [r0], #-0
    16e8:	23001901 	movwcs	r1, #2305	; 0x901
    16ec:	00667872 	rsbeq	r7, r6, r2, ror r8
    16f0:	002ca101 	eoreq	sl, ip, r1, lsl #2
    16f4:	01040000 	mrseq	r0, (UNDEF: 4)
    16f8:	65230018 	strvs	r0, [r3, #-24]!
    16fc:	01007272 	tsteq	r0, r2, ror r2
    1700:	00002ca4 	andeq	r2, r0, r4, lsr #25
    1704:	17010400 	strne	r0, [r1, -r0, lsl #8]
    1708:	0b942200 	bleq	fe509f10 <__bss_end__+0xfe4ffe08>
    170c:	a8010000 	stmdage	r1, {}	; <UNPREDICTABLE>
    1710:	0000002c 	andeq	r0, r0, ip, lsr #32
    1714:	00160104 	andseq	r0, r6, r4, lsl #2
    1718:	0007c022 	andeq	ip, r7, r2, lsr #32
    171c:	2cad0100 	stfcss	f0, [sp]
    1720:	04000000 	streq	r0, [r0], #-0
    1724:	00000016 	andeq	r0, r0, r6, lsl r0
    1728:	0006a105 	andeq	sl, r6, r5, lsl #2
    172c:	d3ae0100 			; <UNDEFINED> instruction: 0xd3ae0100
    1730:	24000009 	strcs	r0, [r0], #-9
    1734:	00000a80 	andeq	r0, r0, r0, lsl #21
    1738:	0006ac0f 	andeq	sl, r6, pc, lsl #24
    173c:	b9012000 	stmdblt	r1, {sp}
    1740:	00000afd 	strdeq	r0, [r0], -sp
    1744:	000a740c 	andeq	r7, sl, ip, lsl #8
    1748:	c3ba0100 			; <UNDEFINED> instruction: 0xc3ba0100
    174c:	00000009 	andeq	r0, r0, r9
    1750:	0008e00c 	andeq	lr, r8, ip
    1754:	80bb0100 	adcshi	r0, fp, r0, lsl #2
    1758:	0400000a 	streq	r0, [r0], #-10
    175c:	0009b00c 	andeq	fp, r9, ip
    1760:	6dbe0100 	ldfvss	f0, [lr]
    1764:	08000000 	stmdaeq	r0, {}	; <UNPREDICTABLE>
    1768:	00050c0c 	andeq	r0, r5, ip, lsl #24
    176c:	6dc70100 	stfvse	f0, [r7]
    1770:	0c000000 	stceq	0, cr0, [r0], {-0}
    1774:	0006b90c 	andeq	fp, r6, ip, lsl #18
    1778:	6dc90100 	stfvse	f0, [r9]
    177c:	10000000 	andne	r0, r0, r0
    1780:	0008c70c 	andeq	ip, r8, ip, lsl #14
    1784:	6dcb0100 	stfvse	f0, [fp]
    1788:	14000000 	strne	r0, [r0], #-0
    178c:	000a1a0c 	andeq	r1, sl, ip, lsl #20
    1790:	6dcd0100 	stfvse	f0, [sp]
    1794:	18000000 	stmdane	r0, {}	; <UNPREDICTABLE>
    1798:	0007720c 	andeq	r7, r7, ip, lsl #4
    179c:	6dcf0100 	stfvse	f0, [pc]	; 17a4 <_start-0x685c>
    17a0:	1c000000 	stcne	0, cr0, [r0], {-0}
    17a4:	06ac0500 	strteq	r0, [ip], r0, lsl #10
    17a8:	d0010000 	andle	r0, r1, r0
    17ac:	00000a90 	muleq	r0, r0, sl
    17b0:	000afd24 	andeq	pc, sl, r4, lsr #26
    17b4:	32692500 	rsbcc	r2, r9, #0, 10
    17b8:	d4010063 	strle	r0, [r1], #-99	; 0x63
    17bc:	00000b18 	andeq	r0, r0, r8, lsl fp
    17c0:	0b08040e 	bleq	202800 <__bss_end__+0x1f86f8>
    17c4:	b1260000 	teqlt	r6, r0
    17c8:	01000008 	tsteq	r0, r8
    17cc:	0025013f 	eoreq	r0, r5, pc, lsr r1
    17d0:	03050000 	movweq	r0, #20480	; 0x5000
    17d4:	00009d04 	andeq	r9, r0, r4, lsl #26
    17d8:	00096227 	andeq	r6, r9, r7, lsr #4
    17dc:	01690100 	cmneq	r9, r0, lsl #2
    17e0:	000083bc 			; <UNDEFINED> instruction: 0x000083bc
    17e4:	00000008 	andeq	r0, r0, r8
    17e8:	11019c01 	tstne	r1, r1, lsl #24
    17ec:	65280000 	strvs	r0, [r8, #-0]!
    17f0:	11000002 	tstne	r0, r2
    17f4:	05000011 	streq	r0, [r0, #-17]
    17f8:	0099a003 	addseq	sl, r9, r3
    17fc:	0baa2900 	bleq	fea8bc04 <__bss_end__+0xfea81afc>
    1800:	5f2a0000 	svcpl	0x002a0000
    1804:	01040075 	tsteq	r4, r5, ror r0
    1808:	0b7b0174 	bleq	1ec1de0 <__bss_end__+0x1eb7cd8>
    180c:	732b0000 	teqvc	fp, #0
    1810:	01740100 	cmneq	r4, r0, lsl #2
    1814:	000009c3 	andeq	r0, r0, r3, asr #19
    1818:	0100752b 	tsteq	r0, fp, lsr #10
    181c:	002c0174 	eoreq	r0, ip, r4, ror r1
    1820:	2c000000 	stccs	0, cr0, [r0], {-0}
    1824:	74010078 	strvc	r0, [r1], #-120	; 0x78
    1828:	000b5a01 	andeq	r5, fp, r1, lsl #20
    182c:	78652c00 	stmdavc	r5!, {sl, fp, sp}^
    1830:	74010070 	strvc	r0, [r1], #-112	; 0x70
    1834:	00002c01 	andeq	r2, r0, r1, lsl #24
    1838:	07f72d00 	ldrbeq	r2, [r7, r0, lsl #26]!
    183c:	74010000 	strvc	r0, [r1], #-0
    1840:	00002c01 	andeq	r2, r0, r1, lsl #24
    1844:	08bf2d00 	ldmeq	pc!, {r8, sl, fp, sp}	; <UNPREDICTABLE>
    1848:	74010000 	strvc	r0, [r1], #-0
    184c:	00002c01 	andeq	r2, r0, r1, lsl #24
    1850:	ff290000 			; <UNDEFINED> instruction: 0xff290000
    1854:	2a00000b 	bcs	1888 <_start-0x6778>
    1858:	0400755f 	streq	r7, [r0], #-1375	; 0x55f
    185c:	d0017501 	andle	r7, r1, r1, lsl #10
    1860:	2b00000b 	blcs	1894 <_start-0x676c>
    1864:	75010073 	strvc	r0, [r1, #-115]	; 0x73
    1868:	0009c301 	andeq	ip, r9, r1, lsl #6
    186c:	00752b00 	rsbseq	r2, r5, r0, lsl #22
    1870:	2c017501 	cfstr32cs	mvfx7, [r1], {1}
    1874:	00000000 	andeq	r0, r0, r0
    1878:	0100782c 	tsteq	r0, ip, lsr #16
    187c:	0baf0175 	bleq	febc1e58 <__bss_end__+0xfebb7d50>
    1880:	652c0000 	strvs	r0, [ip, #-0]!
    1884:	01007078 	tsteq	r0, r8, ror r0
    1888:	002c0175 	eoreq	r0, ip, r5, ror r1
    188c:	f72d0000 			; <UNDEFINED> instruction: 0xf72d0000
    1890:	01000007 	tsteq	r0, r7
    1894:	002c0175 	eoreq	r0, ip, r5, ror r1
    1898:	bf2d0000 	svclt	0x002d0000
    189c:	01000008 	tsteq	r0, r8
    18a0:	002c0175 	eoreq	r0, ip, r5, ror r1
    18a4:	29000000 	stmdbcs	r0, {}	; <UNPREDICTABLE>
    18a8:	00000c54 	andeq	r0, r0, r4, asr ip
    18ac:	00755f2a 	rsbseq	r5, r5, sl, lsr #30
    18b0:	01760104 	cmneq	r6, r4, lsl #2
    18b4:	00000c25 	andeq	r0, r0, r5, lsr #24
    18b8:	0100732b 	tsteq	r0, fp, lsr #6
    18bc:	09c30176 	stmibeq	r3, {r1, r2, r4, r5, r6, r8}^
    18c0:	752b0000 	strvc	r0, [fp, #-0]!
    18c4:	01760100 	cmneq	r6, r0, lsl #2
    18c8:	0000002c 	andeq	r0, r0, ip, lsr #32
    18cc:	00782c00 	rsbseq	r2, r8, r0, lsl #24
    18d0:	04017601 	streq	r7, [r1], #-1537	; 0x601
    18d4:	2c00000c 	stccs	0, cr0, [r0], {12}
    18d8:	00707865 	rsbseq	r7, r0, r5, ror #16
    18dc:	2c017601 	stccs	6, cr7, [r1], {1}
    18e0:	2d000000 	stccs	0, cr0, [r0, #-0]
    18e4:	000007f7 	strdeq	r0, [r0], -r7
    18e8:	2c017601 	stccs	6, cr7, [r1], {1}
    18ec:	2d000000 	stccs	0, cr0, [r0, #-0]
    18f0:	000008bf 			; <UNDEFINED> instruction: 0x000008bf
    18f4:	2c017601 	stccs	6, cr7, [r1], {1}
    18f8:	00000000 	andeq	r0, r0, r0
    18fc:	000ca929 	andeq	sl, ip, r9, lsr #18
    1900:	755f2a00 	ldrbvc	r2, [pc, #-2560]	; f08 <_start-0x70f8>
    1904:	77010400 	strvc	r0, [r1, -r0, lsl #8]
    1908:	000c7a01 	andeq	r7, ip, r1, lsl #20
    190c:	00732b00 	rsbseq	r2, r3, r0, lsl #22
    1910:	c3017701 	movwgt	r7, #5889	; 0x1701
    1914:	2b000009 	blcs	1940 <_start-0x66c0>
    1918:	77010075 	smlsdxvc	r1, r5, r0, r0
    191c:	00002c01 	andeq	r2, r0, r1, lsl #24
    1920:	782c0000 	stmdavc	ip!, {}	; <UNPREDICTABLE>
    1924:	01770100 	cmneq	r7, r0, lsl #2
    1928:	00000c59 	andeq	r0, r0, r9, asr ip
    192c:	7078652c 	rsbsvc	r6, r8, ip, lsr #10
    1930:	01770100 	cmneq	r7, r0, lsl #2
    1934:	0000002c 	andeq	r0, r0, ip, lsr #32
    1938:	0007f72d 	andeq	pc, r7, sp, lsr #14
    193c:	01770100 	cmneq	r7, r0, lsl #2
    1940:	0000002c 	andeq	r0, r0, ip, lsr #32
    1944:	0008bf2d 	andeq	fp, r8, sp, lsr #30
    1948:	01770100 	cmneq	r7, r0, lsl #2
    194c:	0000002c 	andeq	r0, r0, ip, lsr #32
    1950:	0cfe2900 	ldcleq	9, cr2, [lr]
    1954:	5f2a0000 	svcpl	0x002a0000
    1958:	01040075 	tsteq	r4, r5, ror r0
    195c:	0ccf0178 	stfeqe	f0, [pc], {120}	; 0x78
    1960:	732b0000 	teqvc	fp, #0
    1964:	01780100 	cmneq	r8, r0, lsl #2
    1968:	000009c3 	andeq	r0, r0, r3, asr #19
    196c:	0100752b 	tsteq	r0, fp, lsr #10
    1970:	002c0178 	eoreq	r0, ip, r8, ror r1
    1974:	2c000000 	stccs	0, cr0, [r0], {-0}
    1978:	78010078 	stmdavc	r1, {r3, r4, r5, r6}
    197c:	000cae01 	andeq	sl, ip, r1, lsl #28
    1980:	78652c00 	stmdavc	r5!, {sl, fp, sp}^
    1984:	78010070 	stmdavc	r1, {r4, r5, r6}
    1988:	00002c01 	andeq	r2, r0, r1, lsl #24
    198c:	07f72d00 	ldrbeq	r2, [r7, r0, lsl #26]!
    1990:	78010000 	stmdavc	r1, {}	; <UNPREDICTABLE>
    1994:	00002c01 	andeq	r2, r0, r1, lsl #24
    1998:	08bf2d00 	ldmeq	pc!, {r8, sl, fp, sp}	; <UNPREDICTABLE>
    199c:	78010000 	stmdavc	r1, {}	; <UNPREDICTABLE>
    19a0:	00002c01 	andeq	r2, r0, r1, lsl #24
    19a4:	53290000 	teqpl	r9, #0
    19a8:	2a00000d 	bcs	19e4 <_start-0x661c>
    19ac:	0400755f 	streq	r7, [r0], #-1375	; 0x55f
    19b0:	24017901 	strcs	r7, [r1], #-2305	; 0x901
    19b4:	2b00000d 	blcs	19f0 <_start-0x6610>
    19b8:	79010073 	stmdbvc	r1, {r0, r1, r4, r5, r6}
    19bc:	0009c301 	andeq	ip, r9, r1, lsl #6
    19c0:	00752b00 	rsbseq	r2, r5, r0, lsl #22
    19c4:	2c017901 	stccs	9, cr7, [r1], {1}
    19c8:	00000000 	andeq	r0, r0, r0
    19cc:	0100782c 	tsteq	r0, ip, lsr #16
    19d0:	0d030179 	stfeqs	f0, [r3, #-484]	; 0xfffffe1c
    19d4:	652c0000 	strvs	r0, [ip, #-0]!
    19d8:	01007078 	tsteq	r0, r8, ror r0
    19dc:	002c0179 	eoreq	r0, ip, r9, ror r1
    19e0:	f72d0000 			; <UNDEFINED> instruction: 0xf72d0000
    19e4:	01000007 	tsteq	r0, r7
    19e8:	002c0179 	eoreq	r0, ip, r9, ror r1
    19ec:	bf2d0000 	svclt	0x002d0000
    19f0:	01000008 	tsteq	r0, r8
    19f4:	002c0179 	eoreq	r0, ip, r9, ror r1
    19f8:	29000000 	stmdbcs	r0, {}	; <UNPREDICTABLE>
    19fc:	00000da8 	andeq	r0, r0, r8, lsr #27
    1a00:	00755f2a 	rsbseq	r5, r5, sl, lsr #30
    1a04:	017a0104 	cmneq	sl, r4, lsl #2
    1a08:	00000d79 	andeq	r0, r0, r9, ror sp
    1a0c:	0100732b 	tsteq	r0, fp, lsr #6
    1a10:	09c3017a 	stmibeq	r3, {r1, r3, r4, r5, r6, r8}^
    1a14:	752b0000 	strvc	r0, [fp, #-0]!
    1a18:	017a0100 	cmneq	sl, r0, lsl #2
    1a1c:	0000002c 	andeq	r0, r0, ip, lsr #32
    1a20:	00782c00 	rsbseq	r2, r8, r0, lsl #24
    1a24:	58017a01 	stmdapl	r1, {r0, r9, fp, ip, sp, lr}
    1a28:	2c00000d 	stccs	0, cr0, [r0], {13}
    1a2c:	00707865 	rsbseq	r7, r0, r5, ror #16
    1a30:	2c017a01 	stccs	10, cr7, [r1], {1}
    1a34:	2d000000 	stccs	0, cr0, [r0, #-0]
    1a38:	000007f7 	strdeq	r0, [r0], -r7
    1a3c:	2c017a01 	stccs	10, cr7, [r1], {1}
    1a40:	2d000000 	stccs	0, cr0, [r0, #-0]
    1a44:	000008bf 			; <UNDEFINED> instruction: 0x000008bf
    1a48:	2c017a01 	stccs	10, cr7, [r1], {1}
    1a4c:	00000000 	andeq	r0, r0, r0
    1a50:	000dfd29 	andeq	pc, sp, r9, lsr #26
    1a54:	755f2a00 	ldrbvc	r2, [pc, #-2560]	; 105c <_start-0x6fa4>
    1a58:	7d010400 	cfstrsvc	mvf0, [r1, #-0]
    1a5c:	000dce01 	andeq	ip, sp, r1, lsl #28
    1a60:	00732b00 	rsbseq	r2, r3, r0, lsl #22
    1a64:	80017d01 	andhi	r7, r1, r1, lsl #26
    1a68:	2b00000a 	blcs	1a98 <_start-0x6568>
    1a6c:	7d010075 	stcvc	0, cr0, [r1, #-468]	; 0xfffffe2c
    1a70:	00002c01 	andeq	r2, r0, r1, lsl #24
    1a74:	782c0000 	stmdavc	ip!, {}	; <UNPREDICTABLE>
    1a78:	017d0100 	cmneq	sp, r0, lsl #2
    1a7c:	00000dad 	andeq	r0, r0, sp, lsr #27
    1a80:	7078652c 	rsbsvc	r6, r8, ip, lsr #10
    1a84:	017d0100 	cmneq	sp, r0, lsl #2
    1a88:	0000002c 	andeq	r0, r0, ip, lsr #32
    1a8c:	0007f72d 	andeq	pc, r7, sp, lsr #14
    1a90:	017d0100 	cmneq	sp, r0, lsl #2
    1a94:	0000002c 	andeq	r0, r0, ip, lsr #32
    1a98:	0008bf2d 	andeq	fp, r8, sp, lsr #30
    1a9c:	017d0100 	cmneq	sp, r0, lsl #2
    1aa0:	0000002c 	andeq	r0, r0, ip, lsr #32
    1aa4:	0e522900 	cdpeq	9, 5, cr2, cr2, cr0, {0}
    1aa8:	5f2a0000 	svcpl	0x002a0000
    1aac:	01040075 	tsteq	r4, r5, ror r0
    1ab0:	0e23017e 	mcreq	1, 1, r0, cr3, cr14, {3}
    1ab4:	732b0000 	teqvc	fp, #0
    1ab8:	017e0100 	cmneq	lr, r0, lsl #2
    1abc:	00000a80 	andeq	r0, r0, r0, lsl #21
    1ac0:	0100752b 	tsteq	r0, fp, lsr #10
    1ac4:	002c017e 	eoreq	r0, ip, lr, ror r1
    1ac8:	2c000000 	stccs	0, cr0, [r0], {-0}
    1acc:	7e010078 	mcrvc	0, 0, r0, cr1, cr8, {3}
    1ad0:	000e0201 	andeq	r0, lr, r1, lsl #4
    1ad4:	78652c00 	stmdavc	r5!, {sl, fp, sp}^
    1ad8:	7e010070 	mcrvc	0, 0, r0, cr1, cr0, {3}
    1adc:	00002c01 	andeq	r2, r0, r1, lsl #24
    1ae0:	07f72d00 	ldrbeq	r2, [r7, r0, lsl #26]!
    1ae4:	7e010000 	cdpvc	0, 0, cr0, cr1, cr0, {0}
    1ae8:	00002c01 	andeq	r2, r0, r1, lsl #24
    1aec:	08bf2d00 	ldmeq	pc!, {r8, sl, fp, sp}	; <UNPREDICTABLE>
    1af0:	7e010000 	cdpvc	0, 0, cr0, cr1, cr0, {0}
    1af4:	00002c01 	andeq	r2, r0, r1, lsl #24
    1af8:	a7290000 	strge	r0, [r9, -r0]!
    1afc:	2a00000e 	bcs	1b3c <_start-0x64c4>
    1b00:	0400755f 	streq	r7, [r0], #-1375	; 0x55f
    1b04:	78017f01 	stmdavc	r1, {r0, r8, r9, sl, fp, ip, sp, lr}
    1b08:	2b00000e 	blcs	1b48 <_start-0x64b8>
    1b0c:	7f010073 	svcvc	0x00010073
    1b10:	000a8001 	andeq	r8, sl, r1
    1b14:	00752b00 	rsbseq	r2, r5, r0, lsl #22
    1b18:	2c017f01 	stccs	15, cr7, [r1], {1}
    1b1c:	00000000 	andeq	r0, r0, r0
    1b20:	0100782c 	tsteq	r0, ip, lsr #16
    1b24:	0e57017f 	mrceq	1, 2, r0, cr7, cr15, {3}
    1b28:	652c0000 	strvs	r0, [ip, #-0]!
    1b2c:	01007078 	tsteq	r0, r8, ror r0
    1b30:	002c017f 	eoreq	r0, ip, pc, ror r1
    1b34:	f72d0000 			; <UNDEFINED> instruction: 0xf72d0000
    1b38:	01000007 	tsteq	r0, r7
    1b3c:	002c017f 	eoreq	r0, ip, pc, ror r1
    1b40:	bf2d0000 	svclt	0x002d0000
    1b44:	01000008 	tsteq	r0, r8
    1b48:	002c017f 	eoreq	r0, ip, pc, ror r1
    1b4c:	29000000 	stmdbcs	r0, {}	; <UNPREDICTABLE>
    1b50:	00000efc 	strdeq	r0, [r0], -ip
    1b54:	00755f2a 	rsbseq	r5, r5, sl, lsr #30
    1b58:	01800104 	orreq	r0, r0, r4, lsl #2
    1b5c:	00000ecd 	andeq	r0, r0, sp, asr #29
    1b60:	0100732b 	tsteq	r0, fp, lsr #6
    1b64:	0a800180 	beq	fe00216c <__bss_end__+0xfdff8064>
    1b68:	752b0000 	strvc	r0, [fp, #-0]!
    1b6c:	01800100 	orreq	r0, r0, r0, lsl #2
    1b70:	0000002c 	andeq	r0, r0, ip, lsr #32
    1b74:	00782c00 	rsbseq	r2, r8, r0, lsl #24
    1b78:	ac018001 	stcge	0, cr8, [r1], {1}
    1b7c:	2c00000e 	stccs	0, cr0, [r0], {14}
    1b80:	00707865 	rsbseq	r7, r0, r5, ror #16
    1b84:	2c018001 	stccs	0, cr8, [r1], {1}
    1b88:	2d000000 	stccs	0, cr0, [r0, #-0]
    1b8c:	000007f7 	strdeq	r0, [r0], -r7
    1b90:	2c018001 	stccs	0, cr8, [r1], {1}
    1b94:	2d000000 	stccs	0, cr0, [r0, #-0]
    1b98:	000008bf 			; <UNDEFINED> instruction: 0x000008bf
    1b9c:	2c018001 	stccs	0, cr8, [r1], {1}
    1ba0:	00000000 	andeq	r0, r0, r0
    1ba4:	000f5129 	andeq	r5, pc, r9, lsr #2
    1ba8:	755f2a00 	ldrbvc	r2, [pc, #-2560]	; 11b0 <_start-0x6e50>
    1bac:	81010400 	tsthi	r1, r0, lsl #8
    1bb0:	000f2201 	andeq	r2, pc, r1, lsl #4
    1bb4:	00732b00 	rsbseq	r2, r3, r0, lsl #22
    1bb8:	80018101 	andhi	r8, r1, r1, lsl #2
    1bbc:	2b00000a 	blcs	1bec <_start-0x6414>
    1bc0:	81010075 	tsthi	r1, r5, ror r0
    1bc4:	00002c01 	andeq	r2, r0, r1, lsl #24
    1bc8:	782c0000 	stmdavc	ip!, {}	; <UNPREDICTABLE>
    1bcc:	01810100 	orreq	r0, r1, r0, lsl #2
    1bd0:	00000f01 	andeq	r0, r0, r1, lsl #30
    1bd4:	7078652c 	rsbsvc	r6, r8, ip, lsr #10
    1bd8:	01810100 	orreq	r0, r1, r0, lsl #2
    1bdc:	0000002c 	andeq	r0, r0, ip, lsr #32
    1be0:	0007f72d 	andeq	pc, r7, sp, lsr #14
    1be4:	01810100 	orreq	r0, r1, r0, lsl #2
    1be8:	0000002c 	andeq	r0, r0, ip, lsr #32
    1bec:	0008bf2d 	andeq	fp, r8, sp, lsr #30
    1bf0:	01810100 	orreq	r0, r1, r0, lsl #2
    1bf4:	0000002c 	andeq	r0, r0, ip, lsr #32
    1bf8:	0fa62900 	svceq	0x00a62900
    1bfc:	5f2a0000 	svcpl	0x002a0000
    1c00:	01040075 	tsteq	r4, r5, ror r0
    1c04:	0f770182 	svceq	0x00770182
    1c08:	732b0000 	teqvc	fp, #0
    1c0c:	01820100 	orreq	r0, r2, r0, lsl #2
    1c10:	00000a80 	andeq	r0, r0, r0, lsl #21
    1c14:	0100752b 	tsteq	r0, fp, lsr #10
    1c18:	002c0182 	eoreq	r0, ip, r2, lsl #3
    1c1c:	2c000000 	stccs	0, cr0, [r0], {-0}
    1c20:	82010078 	andhi	r0, r1, #120	; 0x78
    1c24:	000f5601 	andeq	r5, pc, r1, lsl #12
    1c28:	78652c00 	stmdavc	r5!, {sl, fp, sp}^
    1c2c:	82010070 	andhi	r0, r1, #112	; 0x70
    1c30:	00002c01 	andeq	r2, r0, r1, lsl #24
    1c34:	07f72d00 	ldrbeq	r2, [r7, r0, lsl #26]!
    1c38:	82010000 	andhi	r0, r1, #0
    1c3c:	00002c01 	andeq	r2, r0, r1, lsl #24
    1c40:	08bf2d00 	ldmeq	pc!, {r8, sl, fp, sp}	; <UNPREDICTABLE>
    1c44:	82010000 	andhi	r0, r1, #0
    1c48:	00002c01 	andeq	r2, r0, r1, lsl #24
    1c4c:	fb290000 	blx	a41c56 <__bss_end__+0xa37b4e>
    1c50:	2a00000f 	bcs	1c94 <_start-0x636c>
    1c54:	0400755f 	streq	r7, [r0], #-1375	; 0x55f
    1c58:	cc018301 	stcgt	3, cr8, [r1], {1}
    1c5c:	2b00000f 	blcs	1ca0 <_start-0x6360>
    1c60:	83010073 	movwhi	r0, #4211	; 0x1073
    1c64:	000a8001 	andeq	r8, sl, r1
    1c68:	00752b00 	rsbseq	r2, r5, r0, lsl #22
    1c6c:	2c018301 	stccs	3, cr8, [r1], {1}
    1c70:	00000000 	andeq	r0, r0, r0
    1c74:	0100782c 	tsteq	r0, ip, lsr #16
    1c78:	0fab0183 	svceq	0x00ab0183
    1c7c:	652c0000 	strvs	r0, [ip, #-0]!
    1c80:	01007078 	tsteq	r0, r8, ror r0
    1c84:	002c0183 	eoreq	r0, ip, r3, lsl #3
    1c88:	f72d0000 			; <UNDEFINED> instruction: 0xf72d0000
    1c8c:	01000007 	tsteq	r0, r7
    1c90:	002c0183 	eoreq	r0, ip, r3, lsl #3
    1c94:	bf2d0000 	svclt	0x002d0000
    1c98:	01000008 	tsteq	r0, r8
    1c9c:	002c0183 	eoreq	r0, ip, r3, lsl #3
    1ca0:	29000000 	stmdbcs	r0, {}	; <UNPREDICTABLE>
    1ca4:	00001050 	andeq	r1, r0, r0, asr r0
    1ca8:	00755f2a 	rsbseq	r5, r5, sl, lsr #30
    1cac:	01840104 	orreq	r0, r4, r4, lsl #2
    1cb0:	00001021 	andeq	r1, r0, r1, lsr #32
    1cb4:	0100732b 	tsteq	r0, fp, lsr #6
    1cb8:	0a800184 	beq	fe0022d0 <__bss_end__+0xfdff81c8>
    1cbc:	752b0000 	strvc	r0, [fp, #-0]!
    1cc0:	01840100 	orreq	r0, r4, r0, lsl #2
    1cc4:	0000002c 	andeq	r0, r0, ip, lsr #32
    1cc8:	00782c00 	rsbseq	r2, r8, r0, lsl #24
    1ccc:	00018401 	andeq	r8, r1, r1, lsl #8
    1cd0:	2c000010 	stccs	0, cr0, [r0], {16}
    1cd4:	00707865 	rsbseq	r7, r0, r5, ror #16
    1cd8:	2c018401 	cfstrscs	mvf8, [r1], {1}
    1cdc:	2d000000 	stccs	0, cr0, [r0, #-0]
    1ce0:	000007f7 	strdeq	r0, [r0], -r7
    1ce4:	2c018401 	cfstrscs	mvf8, [r1], {1}
    1ce8:	2d000000 	stccs	0, cr0, [r0, #-0]
    1cec:	000008bf 			; <UNDEFINED> instruction: 0x000008bf
    1cf0:	2c018401 	cfstrscs	mvf8, [r1], {1}
    1cf4:	00000000 	andeq	r0, r0, r0
    1cf8:	0010a529 	andseq	sl, r0, r9, lsr #10
    1cfc:	755f2a00 	ldrbvc	r2, [pc, #-2560]	; 1304 <_start-0x6cfc>
    1d00:	85010400 	strhi	r0, [r1, #-1024]	; 0x400
    1d04:	00107601 	andseq	r7, r0, r1, lsl #12
    1d08:	00732b00 	rsbseq	r2, r3, r0, lsl #22
    1d0c:	80018501 	andhi	r8, r1, r1, lsl #10
    1d10:	2b00000a 	blcs	1d40 <_start-0x62c0>
    1d14:	85010075 	strhi	r0, [r1, #-117]	; 0x75
    1d18:	00002c01 	andeq	r2, r0, r1, lsl #24
    1d1c:	782c0000 	stmdavc	ip!, {}	; <UNPREDICTABLE>
    1d20:	01850100 	orreq	r0, r5, r0, lsl #2
    1d24:	00001055 	andeq	r1, r0, r5, asr r0
    1d28:	7078652c 	rsbsvc	r6, r8, ip, lsr #10
    1d2c:	01850100 	orreq	r0, r5, r0, lsl #2
    1d30:	0000002c 	andeq	r0, r0, ip, lsr #32
    1d34:	0007f72d 	andeq	pc, r7, sp, lsr #14
    1d38:	01850100 	orreq	r0, r5, r0, lsl #2
    1d3c:	0000002c 	andeq	r0, r0, ip, lsr #32
    1d40:	0008bf2d 	andeq	fp, r8, sp, lsr #30
    1d44:	01850100 	orreq	r0, r5, r0, lsl #2
    1d48:	0000002c 	andeq	r0, r0, ip, lsr #32
    1d4c:	83c02e00 	bichi	r2, r0, #0, 28
    1d50:	00040000 	andeq	r0, r4, r0
    1d54:	5f2a0000 	svcpl	0x002a0000
    1d58:	01040075 	tsteq	r4, r5, ror r0
    1d5c:	10cf0186 	sbcne	r0, pc, r6, lsl #3
    1d60:	732b0000 	teqvc	fp, #0
    1d64:	01860100 	orreq	r0, r6, r0, lsl #2
    1d68:	00000a80 	andeq	r0, r0, r0, lsl #21
    1d6c:	0100752b 	tsteq	r0, fp, lsr #10
    1d70:	002c0186 	eoreq	r0, ip, r6, lsl #3
    1d74:	2c000000 	stccs	0, cr0, [r0], {-0}
    1d78:	86010078 			; <UNDEFINED> instruction: 0x86010078
    1d7c:	0010ae01 	andseq	sl, r0, r1, lsl #28
    1d80:	78652f00 	stmdavc	r5!, {r8, r9, sl, fp, sp}^
    1d84:	86010070 			; <UNDEFINED> instruction: 0x86010070
    1d88:	00002c01 	andeq	r2, r0, r1, lsl #24
    1d8c:	2d020000 	stccs	0, cr0, [r2, #-0]
    1d90:	000007f7 	strdeq	r0, [r0], -r7
    1d94:	2c018601 	stccs	6, cr8, [r1], {1}
    1d98:	2d000000 	stccs	0, cr0, [r0, #-0]
    1d9c:	000008bf 			; <UNDEFINED> instruction: 0x000008bf
    1da0:	2c018601 	stccs	6, cr8, [r1], {1}
    1da4:	00000000 	andeq	r0, r0, r0
    1da8:	012f0900 	teqeq	pc, r0, lsl #18
    1dac:	11110000 	tstne	r1, r0
    1db0:	e20a0000 	and	r0, sl, #0
    1db4:	0c000000 	stceq	0, cr0, [r0], {-0}
    1db8:	11010400 	tstne	r1, r0, lsl #8
    1dbc:	93300000 	teqls	r0, #0
    1dc0:	01000001 	tsteq	r0, r1
    1dc4:	8858014b 	ldmdahi	r8, {r0, r1, r3, r6, r8}^
    1dc8:	00940000 	addseq	r0, r4, r0
    1dcc:	9c010000 	stcls	0, cr0, [r1], {-0}
    1dd0:	00001287 	andeq	r1, r0, r7, lsl #5
    1dd4:	41445331 	cmpmi	r4, r1, lsr r3
    1dd8:	01500100 	cmpeq	r0, r0, lsl #2
    1ddc:	00000033 	andeq	r0, r0, r3, lsr r0
    1de0:	43533102 	cmpmi	r3, #-2147483648	; 0x80000000
    1de4:	5101004c 	tstpl	r1, ip, asr #32
    1de8:	00003301 	andeq	r3, r0, r1, lsl #6
    1dec:	632c0300 	teqvs	ip, #0, 6
    1df0:	01590100 	cmpeq	r9, r0, lsl #2
    1df4:	000009c3 	andeq	r0, r0, r3, asr #19
    1df8:	00026528 	andeq	r6, r2, r8, lsr #10
    1dfc:	00129700 	andseq	r9, r2, r0, lsl #14
    1e00:	e0030500 	and	r0, r3, r0, lsl #10
    1e04:	29000099 	stmdbcs	r0, {r0, r3, r4, r7}
    1e08:	00001190 	muleq	r0, r0, r1
    1e0c:	00755f2a 	rsbseq	r5, r5, sl, lsr #30
    1e10:	01590104 	cmpeq	r9, r4, lsl #2
    1e14:	00001185 	andeq	r1, r0, r5, lsl #3
    1e18:	0100762b 	tsteq	r0, fp, lsr #12
    1e1c:	09c30159 	stmibeq	r3, {r0, r3, r4, r6, r8}^
    1e20:	752b0000 	strvc	r0, [fp, #-0]!
    1e24:	01590100 	cmpeq	r9, r0, lsl #2
    1e28:	0000002c 	andeq	r0, r0, ip, lsr #32
    1e2c:	00752c00 	rsbseq	r2, r5, r0, lsl #24
    1e30:	64015901 	strvs	r5, [r1], #-2305	; 0x901
    1e34:	00000011 	andeq	r0, r0, r1, lsl r0
    1e38:	0011c329 	andseq	ip, r1, r9, lsr #6
    1e3c:	755f2a00 	ldrbvc	r2, [pc, #-2560]	; 1444 <_start-0x6bbc>
    1e40:	5b010400 	blpl	42e48 <__bss_end__+0x38d40>
    1e44:	0011b801 	andseq	fp, r1, r1, lsl #16
    1e48:	76762b00 	ldrbtvc	r2, [r6], -r0, lsl #22
    1e4c:	015b0100 	cmpeq	fp, r0, lsl #2
    1e50:	000009c3 	andeq	r0, r0, r3, asr #19
    1e54:	0075752b 	rsbseq	r7, r5, fp, lsr #10
    1e58:	6d015b01 	vstrvs	d5, [r1, #-4]
    1e5c:	00000000 	andeq	r0, r0, r0
    1e60:	0100752c 	tsteq	r0, ip, lsr #10
    1e64:	1195015b 	orrsne	r0, r5, fp, asr r1
    1e68:	32000000 	andcc	r0, r0, #0
    1e6c:	00008860 	andeq	r8, r0, r0, ror #16
    1e70:	00000b30 	andeq	r0, r0, r0, lsr fp
    1e74:	00886432 	addeq	r6, r8, r2, lsr r4
    1e78:	001b1400 	andseq	r1, fp, r0, lsl #8
    1e7c:	88703300 	ldmdahi	r0!, {r8, r9, ip, sp}^
    1e80:	1b1f0000 	blne	7c1e88 <__bss_end__+0x7b7d80>
    1e84:	11ed0000 	mvnne	r0, r0
    1e88:	01340000 	teqeq	r4, r0
    1e8c:	34320150 	ldrtcc	r0, [r2], #-336	; 0x150
    1e90:	34015101 	strcc	r5, [r1], #-257	; 0x101
    1e94:	887c3300 	ldmdahi	ip!, {r8, r9, ip, sp}^
    1e98:	1b1f0000 	blne	7c1ea0 <__bss_end__+0x7b7d98>
    1e9c:	12050000 	andne	r0, r5, #0
    1ea0:	01340000 	teqeq	r4, r0
    1ea4:	34330150 	ldrtcc	r0, [r3], #-336	; 0x150
    1ea8:	34015101 	strcc	r5, [r1], #-257	; 0x101
    1eac:	88803200 	stmhi	r0, {r9, ip, sp}
    1eb0:	1b140000 	blne	501eb8 <__bss_end__+0x4f7db0>
    1eb4:	90330000 	eorsls	r0, r3, r0
    1eb8:	2a000088 	bcs	20e0 <_start-0x5f20>
    1ebc:	2900001b 	stmdbcs	r0, {r0, r1, r3, r4}
    1ec0:	34000012 	strcc	r0, [r0], #-18
    1ec4:	74025001 	strvc	r5, [r2], #-1
    1ec8:	51013400 	tstpl	r1, r0, lsl #8
    1ecc:	80000a03 	andhi	r0, r0, r3, lsl #20
    1ed0:	88943200 	ldmhi	r4, {r9, ip, sp}
    1ed4:	1b140000 	blne	501edc <__bss_end__+0x4f7dd4>
    1ed8:	98320000 	ldmdals	r2!, {}	; <UNPREDICTABLE>
    1edc:	58000088 	stmdapl	r0, {r3, r7}
    1ee0:	32000019 	andcc	r0, r0, #25
    1ee4:	0000889c 	muleq	r0, ip, r8
    1ee8:	00001b14 	andeq	r1, r0, r4, lsl fp
    1eec:	0088bc32 	addeq	fp, r8, r2, lsr ip
    1ef0:	001b3500 	andseq	r3, fp, r0, lsl #10
    1ef4:	88d03300 	ldmhi	r0, {r8, r9, ip, sp}^
    1ef8:	1b400000 	blne	1001f00 <__bss_end__+0xff7df8>
    1efc:	127d0000 	rsbsne	r0, sp, #0
    1f00:	01340000 	teqeq	r4, r0
    1f04:	38030550 	stmdacc	r3, {r4, r6, r8, sl}
    1f08:	3400009b 	strcc	r0, [r0], #-155	; 0x9b
    1f0c:	03055101 	movweq	r5, #20737	; 0x5101
    1f10:	000099ec 	andeq	r9, r0, ip, ror #19
    1f14:	05520134 	ldrbeq	r0, [r2, #-308]	; 0x134
    1f18:	0099e003 	addseq	lr, r9, r3
    1f1c:	53013400 	movwpl	r3, #5120	; 0x1400
    1f20:	01620a03 	cmneq	r2, r3, lsl #20
    1f24:	88d43200 	ldmhi	r4, {r9, ip, sp}^
    1f28:	1b4b0000 	blne	12c1f30 <__bss_end__+0x12b7e28>
    1f2c:	09000000 	stmdbeq	r0, {}	; <UNPREDICTABLE>
    1f30:	0000012f 	andeq	r0, r0, pc, lsr #2
    1f34:	00001297 	muleq	r0, r7, r2
    1f38:	0000e20a 	andeq	lr, r0, sl, lsl #4
    1f3c:	04000800 	streq	r0, [r0], #-2048	; 0x800
    1f40:	00001287 	andeq	r1, r0, r7, lsl #5
    1f44:	00090030 	andeq	r0, r9, r0, lsr r0
    1f48:	01440100 	mrseq	r0, (UNDEF: 84)
    1f4c:	000088ec 	andeq	r8, r0, ip, ror #17
    1f50:	00000018 	andeq	r0, r0, r8, lsl r0
    1f54:	12c59c01 	sbcne	r9, r5, #256	; 0x100
    1f58:	f4320000 			; <UNDEFINED> instruction: 0xf4320000
    1f5c:	c5000088 	strgt	r0, [r0, #-136]	; 0x88
    1f60:	32000012 	andcc	r0, r0, #18
    1f64:	00008900 	andeq	r8, r0, r0, lsl #18
    1f68:	00001116 	andeq	r1, r0, r6, lsl r1
    1f6c:	07063500 	streq	r3, [r6, -r0, lsl #10]
    1f70:	41010000 	mrsmi	r0, (UNDEF: 1)
    1f74:	00002501 	andeq	r2, r0, r1, lsl #10
    1f78:	00884800 	addeq	r4, r8, r0, lsl #16
    1f7c:	00001000 	andeq	r1, r0, r0
    1f80:	369c0100 	ldrcc	r0, [ip], r0, lsl #2
    1f84:	00000560 	andeq	r0, r0, r0, ror #10
    1f88:	25012e01 	strcs	r2, [r1, #-3585]	; 0xe01
    1f8c:	88000000 	stmdahi	r0, {}	; <UNPREDICTABLE>
    1f90:	c0000087 	andgt	r0, r0, r7, lsl #1
    1f94:	01000000 	mrseq	r0, (UNDEF: 0)
    1f98:	0013fe9c 	mulseq	r3, ip, lr
    1f9c:	05533700 	ldrbeq	r3, [r3, #-1792]	; 0x700
    1fa0:	2e010000 	cdpcs	0, 0, cr0, cr1, cr0, {0}
    1fa4:	00002c01 	andeq	r2, r0, r1, lsl #24
    1fa8:	00046900 	andeq	r6, r4, r0, lsl #18
    1fac:	04043700 	streq	r3, [r4], #-1792	; 0x700
    1fb0:	2e010000 	cdpcs	0, 0, cr0, cr1, cr0, {0}
    1fb4:	0013fe01 	andseq	pc, r3, r1, lsl #28
    1fb8:	00048a00 	andeq	r8, r4, r0, lsl #20
    1fbc:	09a93700 	stmibeq	r9!, {r8, r9, sl, ip, sp}
    1fc0:	2e010000 	cdpcs	0, 0, cr0, cr1, cr0, {0}
    1fc4:	00002c01 	andeq	r2, r0, r1, lsl #24
    1fc8:	0004a800 	andeq	sl, r4, r0, lsl #16
    1fcc:	02652800 	rsbeq	r2, r5, #0, 16
    1fd0:	12970000 	addsne	r0, r7, #0
    1fd4:	03050000 	movweq	r0, #20480	; 0x5000
    1fd8:	000099d4 	ldrdeq	r9, [r0], -r4
    1fdc:	0087a038 	addeq	sl, r7, r8, lsr r0
    1fe0:	00008800 	andeq	r8, r0, r0, lsl #16
    1fe4:	0013d400 	andseq	sp, r3, r0, lsl #8
    1fe8:	00693900 	rsbeq	r3, r9, r0, lsl #18
    1fec:	2c013201 	sfmcs	f3, 4, [r1], {1}
    1ff0:	c6000000 	strgt	r0, [r0], -r0
    1ff4:	32000004 	andcc	r0, r0, #4
    1ff8:	000087ac 	andeq	r8, r0, ip, lsr #15
    1ffc:	00001b35 	andeq	r1, r0, r5, lsr fp
    2000:	0087c033 	addeq	ip, r7, r3, lsr r0
    2004:	001b4000 	andseq	r4, fp, r0
    2008:	00138800 	andseq	r8, r3, r0, lsl #16
    200c:	50013400 	andpl	r3, r1, r0, lsl #8
    2010:	9ae40305 	bls	ff902c2c <__bss_end__+0xff8f8b24>
    2014:	01340000 	teqeq	r4, r0
    2018:	ec030551 	cfstr32	mvfx0, [r3], {81}	; 0x51
    201c:	34000099 	strcc	r0, [r0], #-153	; 0x99
    2020:	03055201 	movweq	r5, #20993	; 0x5201
    2024:	000099d4 	ldrdeq	r9, [r0], -r4
    2028:	03530134 	cmpeq	r3, #52, 2
    202c:	0001340a 	andeq	r3, r1, sl, lsl #8
    2030:	0087c432 	addeq	ip, r7, r2, lsr r4
    2034:	001b4b00 	andseq	r4, fp, r0, lsl #22
    2038:	88103200 	ldmdahi	r0, {r9, ip, sp}
    203c:	1b350000 	blne	d42044 <__bss_end__+0xd37f3c>
    2040:	24330000 	ldrtcs	r0, [r3], #-0
    2044:	40000088 	andmi	r0, r0, r8, lsl #1
    2048:	ca00001b 	bgt	20bc <_start-0x5f44>
    204c:	34000013 	strcc	r0, [r0], #-19
    2050:	03055001 	movweq	r5, #20481	; 0x5001
    2054:	00009b08 	andeq	r9, r0, r8, lsl #22
    2058:	05510134 	ldrbeq	r0, [r1, #-308]	; 0x134
    205c:	0099ec03 	addseq	lr, r9, r3, lsl #24
    2060:	52013400 	andpl	r3, r1, #0, 8
    2064:	99d40305 	ldmibls	r4, {r0, r2, r8, r9}^
    2068:	01340000 	teqeq	r4, r0
    206c:	340a0353 	strcc	r0, [sl], #-851	; 0x353
    2070:	28320001 	ldmdacs	r2!, {r0}
    2074:	4b000088 	blmi	229c <_start-0x5d64>
    2078:	0000001b 	andeq	r0, r0, fp, lsl r0
    207c:	0087a033 	addeq	sl, r7, r3, lsr r0
    2080:	00167300 	andseq	r7, r6, r0, lsl #6
    2084:	0013f400 	andseq	pc, r3, r0, lsl #8
    2088:	50013400 	andpl	r3, r1, r0, lsl #8
    208c:	5001f303 	andpl	pc, r1, r3, lsl #6
    2090:	02510134 	subseq	r0, r1, #52, 2
    2094:	01340074 	teqeq	r4, r4, ror r0
    2098:	00310152 	eorseq	r0, r1, r2, asr r1
    209c:	00882c32 	addeq	r2, r8, r2, lsr ip
    20a0:	00153c00 	andseq	r3, r5, r0, lsl #24
    20a4:	040e0000 	streq	r0, [lr], #-0
    20a8:	00000054 	andeq	r0, r0, r4, asr r0
    20ac:	00025336 	andeq	r5, r2, r6, lsr r3
    20b0:	011e0100 	tsteq	lr, r0, lsl #2
    20b4:	00000025 	andeq	r0, r0, r5, lsr #32
    20b8:	000086c4 	andeq	r8, r0, r4, asr #13
    20bc:	000000c4 	andeq	r0, r0, r4, asr #1
    20c0:	15279c01 	strne	r9, [r7, #-3073]!	; 0xc01
    20c4:	53370000 	teqpl	r7, #0
    20c8:	01000005 	tsteq	r0, r5
    20cc:	002c011e 	eoreq	r0, ip, lr, lsl r1
    20d0:	04fb0000 	ldrbteq	r0, [fp], #0
    20d4:	04370000 	ldrteq	r0, [r7], #-0
    20d8:	01000004 	tsteq	r0, r4
    20dc:	13fe011e 	mvnsne	r0, #-2147483641	; 0x80000007
    20e0:	051c0000 	ldreq	r0, [ip, #-0]
    20e4:	a9370000 	ldmdbge	r7!, {}	; <UNPREDICTABLE>
    20e8:	01000009 	tsteq	r0, r9
    20ec:	002c011e 	eoreq	r0, ip, lr, lsl r1
    20f0:	053a0000 	ldreq	r0, [sl, #-0]!
    20f4:	65280000 	strvs	r0, [r8, #-0]!
    20f8:	37000002 	strcc	r0, [r0, -r2]
    20fc:	05000015 	streq	r0, [r0, #-21]
    2100:	0099c803 	addseq	ip, r9, r3, lsl #16
    2104:	86dc3800 	ldrbhi	r3, [ip], r0, lsl #16
    2108:	00880000 	addeq	r0, r8, r0
    210c:	14fd0000 	ldrbtne	r0, [sp], #0
    2110:	69390000 	ldmdbvs	r9!, {}	; <UNPREDICTABLE>
    2114:	01210100 	teqeq	r1, r0, lsl #2
    2118:	0000002c 	andeq	r0, r0, ip, lsr #32
    211c:	00000558 	andeq	r0, r0, r8, asr r5
    2120:	0086e832 	addeq	lr, r6, r2, lsr r8
    2124:	001b3500 	andseq	r3, fp, r0, lsl #10
    2128:	86fc3300 	ldrbthi	r3, [ip], r0, lsl #6
    212c:	1b400000 	blne	1002134 <__bss_end__+0xff802c>
    2130:	14b10000 	ldrtne	r0, [r1], #0
    2134:	01340000 	teqeq	r4, r0
    2138:	e4030550 	str	r0, [r3], #-1360	; 0x550
    213c:	3400009a 	strcc	r0, [r0], #-154	; 0x9a
    2140:	03055101 	movweq	r5, #20737	; 0x5101
    2144:	000099ec 	andeq	r9, r0, ip, ror #19
    2148:	05520134 	ldrbeq	r0, [r2, #-308]	; 0x134
    214c:	0099c803 	addseq	ip, r9, r3, lsl #16
    2150:	53013400 	movwpl	r3, #5120	; 0x1400
    2154:	01230a03 	teqeq	r3, r3, lsl #20
    2158:	87003200 	strhi	r3, [r0, -r0, lsl #4]
    215c:	1b4b0000 	blne	12c2164 <__bss_end__+0x12b805c>
    2160:	4c320000 	ldcmi	0, cr0, [r2], #-0
    2164:	35000087 	strcc	r0, [r0, #-135]	; 0x87
    2168:	3300001b 	movwcc	r0, #27
    216c:	00008760 	andeq	r8, r0, r0, ror #14
    2170:	00001b40 	andeq	r1, r0, r0, asr #22
    2174:	000014f3 	strdeq	r1, [r0], -r3
    2178:	05500134 	ldrbeq	r0, [r0, #-308]	; 0x134
    217c:	009b0803 	addseq	r0, fp, r3, lsl #16
    2180:	51013400 	tstpl	r1, r0, lsl #8
    2184:	99ec0305 	stmibls	ip!, {r0, r2, r8, r9}^
    2188:	01340000 	teqeq	r4, r0
    218c:	c8030552 	stmdagt	r3, {r1, r4, r6, r8, sl}
    2190:	34000099 	strcc	r0, [r0], #-153	; 0x99
    2194:	0a035301 	beq	d6da0 <__bss_end__+0xccc98>
    2198:	32000123 	andcc	r0, r0, #-1073741816	; 0xc0000008
    219c:	00008764 	andeq	r8, r0, r4, ror #14
    21a0:	00001b4b 	andeq	r1, r0, fp, asr #22
    21a4:	86dc3300 	ldrbhi	r3, [ip], r0, lsl #6
    21a8:	16730000 	ldrbtne	r0, [r3], -r0
    21ac:	151d0000 	ldrne	r0, [sp, #-0]
    21b0:	01340000 	teqeq	r4, r0
    21b4:	01f30350 	mvnseq	r0, r0, asr r3
    21b8:	51013450 	tstpl	r1, r0, asr r4
    21bc:	34007402 	strcc	r7, [r0], #-1026	; 0x402
    21c0:	30015201 	andcc	r5, r1, r1, lsl #4
    21c4:	87683200 	strbhi	r3, [r8, -r0, lsl #4]!
    21c8:	153c0000 	ldrne	r0, [ip, #-0]!
    21cc:	09000000 	stmdbeq	r0, {}	; <UNPREDICTABLE>
    21d0:	0000012f 	andeq	r0, r0, pc, lsr #2
    21d4:	00001537 	andeq	r1, r0, r7, lsr r5
    21d8:	0000e20a 	andeq	lr, r0, sl, lsl #4
    21dc:	04000900 	streq	r0, [r0], #-2304	; 0x900
    21e0:	00001527 	andeq	r1, r0, r7, lsr #10
    21e4:	000b8127 	andeq	r8, fp, r7, lsr #2
    21e8:	01110100 	tsteq	r1, r0, lsl #2
    21ec:	000083c4 	andeq	r8, r0, r4, asr #7
    21f0:	000000f0 	strdeq	r0, [r0], -r0	; <UNPREDICTABLE>
    21f4:	16739c01 	ldrbtne	r9, [r3], -r1, lsl #24
    21f8:	65280000 	strvs	r0, [r8, #-0]!
    21fc:	97000002 	strls	r0, [r0, -r2]
    2200:	05000012 	streq	r0, [r0, #-18]
    2204:	0099b003 	addseq	fp, r9, r3
    2208:	83fc3200 	mvnshi	r3, #0, 4
    220c:	1b350000 	blne	d42214 <__bss_end__+0xd3810c>
    2210:	10330000 	eorsne	r0, r3, r0
    2214:	40000084 	andmi	r0, r0, r4, lsl #1
    2218:	9a00001b 	bls	228c <_start-0x5d74>
    221c:	34000015 	strcc	r0, [r0], #-21
    2220:	03055001 	movweq	r5, #20481	; 0x5001
    2224:	00009b08 	andeq	r9, r0, r8, lsl #22
    2228:	05510134 	ldrbeq	r0, [r1, #-308]	; 0x134
    222c:	0099ec03 	addseq	lr, r9, r3, lsl #24
    2230:	52013400 	andpl	r3, r1, #0, 8
    2234:	99b00305 	ldmibls	r0!, {r0, r2, r8, r9}
    2238:	01340000 	teqeq	r4, r0
    223c:	130a0353 	movwne	r0, #41811	; 0xa353
    2240:	14320001 	ldrtne	r0, [r2], #-1
    2244:	4b000084 	blmi	245c <_start-0x5ba4>
    2248:	3200001b 	andcc	r0, r0, #27
    224c:	00008418 	andeq	r8, r0, r8, lsl r4
    2250:	00001b35 	andeq	r1, r0, r5, lsr fp
    2254:	00842c33 	addeq	r2, r4, r3, lsr ip
    2258:	001b4000 	andseq	r4, fp, r0
    225c:	0015dc00 	andseq	sp, r5, r0, lsl #24
    2260:	50013400 	andpl	r3, r1, r0, lsl #8
    2264:	9ae40305 	bls	ff902e80 <__bss_end__+0xff8f8d78>
    2268:	01340000 	teqeq	r4, r0
    226c:	ec030551 	cfstr32	mvfx0, [r3], {81}	; 0x51
    2270:	34000099 	strcc	r0, [r0], #-153	; 0x99
    2274:	03055201 	movweq	r5, #20993	; 0x5201
    2278:	000099b0 			; <UNDEFINED> instruction: 0x000099b0
    227c:	03530134 	cmpeq	r3, #52, 2
    2280:	0001130a 	andeq	r1, r1, sl, lsl #6
    2284:	00843032 	addeq	r3, r4, r2, lsr r0
    2288:	001b4b00 	andseq	r4, fp, r0, lsl #22
    228c:	84543200 	ldrbhi	r3, [r4], #-512	; 0x200
    2290:	1b140000 	blne	502298 <__bss_end__+0x4f8190>
    2294:	5c320000 	ldcpl	0, cr0, [r2], #-0
    2298:	35000084 	strcc	r0, [r0, #-132]	; 0x84
    229c:	3300001b 	movwcc	r0, #27
    22a0:	00008470 	andeq	r8, r0, r0, ror r4
    22a4:	00001b40 	andeq	r1, r0, r0, asr #22
    22a8:	00001627 	andeq	r1, r0, r7, lsr #12
    22ac:	05500134 	ldrbeq	r0, [r0, #-308]	; 0x134
    22b0:	009b3803 	addseq	r3, fp, r3, lsl #16
    22b4:	51013400 	tstpl	r1, r0, lsl #8
    22b8:	99ec0305 	stmibls	ip!, {r0, r2, r8, r9}^
    22bc:	01340000 	teqeq	r4, r0
    22c0:	b0030552 	andlt	r0, r3, r2, asr r5
    22c4:	34000099 	strcc	r0, [r0], #-153	; 0x99
    22c8:	0a035301 	beq	d6ed4 <__bss_end__+0xccdcc>
    22cc:	32000116 	andcc	r0, r0, #-2147483643	; 0x80000005
    22d0:	00008474 	andeq	r8, r0, r4, ror r4
    22d4:	00001b4b 	andeq	r1, r0, fp, asr #22
    22d8:	00847832 	addeq	r7, r4, r2, lsr r8
    22dc:	001b3500 	andseq	r3, fp, r0, lsl #10
    22e0:	848c3300 	strhi	r3, [ip], #768	; 0x300
    22e4:	1b400000 	blne	10022ec <__bss_end__+0xff81e4>
    22e8:	16690000 	strbtne	r0, [r9], -r0
    22ec:	01340000 	teqeq	r4, r0
    22f0:	5c030550 	cfstr32pl	mvfx0, [r3], {80}	; 0x50
    22f4:	3400009b 	strcc	r0, [r0], #-155	; 0x9b
    22f8:	03055101 	movweq	r5, #20737	; 0x5101
    22fc:	000099ec 	andeq	r9, r0, ip, ror #19
    2300:	05520134 	ldrbeq	r0, [r2, #-308]	; 0x134
    2304:	0099b003 	addseq	fp, r9, r3
    2308:	53013400 	movwpl	r3, #5120	; 0x1400
    230c:	01180a03 	tsteq	r8, r3, lsl #20
    2310:	84903200 	ldrhi	r3, [r0], #512	; 0x200
    2314:	1b4b0000 	blne	12c231c <__bss_end__+0x12b8214>
    2318:	3a000000 	bcc	2320 <_start-0x5ce0>
    231c:	00000b40 	andeq	r0, r0, r0, asr #22
    2320:	84fcef01 	ldrbthi	lr, [ip], #3841	; 0xf01
    2324:	01c80000 	biceq	r0, r8, r0
    2328:	9c010000 	stcls	0, cr0, [r1], {-0}
    232c:	00001943 	andeq	r1, r0, r3, asr #18
    2330:	0005533b 	andeq	r5, r5, fp, lsr r3
    2334:	2cef0100 	stfcse	f0, [pc]	; 233c <_start-0x5cc4>
    2338:	8d000000 	stchi	0, cr0, [r0, #-0]
    233c:	3b000005 	blcc	2358 <_start-0x5ca8>
    2340:	000009a9 	andeq	r0, r0, r9, lsr #19
    2344:	002cef01 	eoreq	lr, ip, r1, lsl #30
    2348:	05ab0000 	streq	r0, [fp, #0]!
    234c:	953b0000 	ldrls	r0, [fp, #-0]!
    2350:	01000008 	tsteq	r0, r8
    2354:	000025ef 	andeq	r2, r0, pc, ror #11
    2358:	0005f000 	andeq	pc, r5, r0
    235c:	02652800 	rsbeq	r2, r5, #0, 16
    2360:	19530000 	ldmdbne	r3, {}^	; <UNPREDICTABLE>
    2364:	03050000 	movweq	r0, #20480	; 0x5000
    2368:	000099bc 			; <UNDEFINED> instruction: 0x000099bc
    236c:	01006339 	tsteq	r0, r9, lsr r3
    2370:	09c30102 	stmibeq	r3, {r1, r8}^
    2374:	060e0000 	streq	r0, [lr], -r0
    2378:	05290000 	streq	r0, [r9, #-0]!
    237c:	2a000017 	bcs	23e0 <_start-0x5c20>
    2380:	0400755f 	streq	r7, [r0], #-1375	; 0x55f
    2384:	fa010601 	blx	43b90 <__bss_end__+0x39a88>
    2388:	2b000016 	blcs	23e8 <_start-0x5c18>
    238c:	01007676 	tsteq	r0, r6, ror r6
    2390:	09c30106 	stmibeq	r3, {r1, r2, r8}^
    2394:	752b0000 	strvc	r0, [fp, #-0]!
    2398:	06010075 			; <UNDEFINED> instruction: 0x06010075
    239c:	00006d01 	andeq	r6, r0, r1, lsl #26
    23a0:	752c0000 	strvc	r0, [ip, #-0]!
    23a4:	01060100 	mrseq	r0, (UNDEF: 22)
    23a8:	000016d7 	ldrdeq	r1, [r0], -r7
    23ac:	85103200 	ldrhi	r3, [r0, #-512]	; 0x200
    23b0:	1b140000 	blne	5023b8 <__bss_end__+0x4f82b0>
    23b4:	44320000 	ldrtmi	r0, [r2], #-0
    23b8:	35000085 	strcc	r0, [r0, #-133]	; 0x85
    23bc:	3300001b 	movwcc	r0, #27
    23c0:	00008558 	andeq	r8, r0, r8, asr r5
    23c4:	00001b40 	andeq	r1, r0, r0, asr #22
    23c8:	00001746 	andeq	r1, r0, r6, asr #14
    23cc:	05500134 	ldrbeq	r0, [r0, #-308]	; 0x134
    23d0:	009b0803 	addseq	r0, fp, r3, lsl #16
    23d4:	51013400 	tstpl	r1, r0, lsl #8
    23d8:	99ec0305 	stmibls	ip!, {r0, r2, r8, r9}^
    23dc:	01340000 	teqeq	r4, r0
    23e0:	bc030552 	cfstr32lt	mvfx0, [r3], {82}	; 0x52
    23e4:	34000099 	strcc	r0, [r0], #-153	; 0x99
    23e8:	08025301 	stmdaeq	r2, {r0, r8, r9, ip, lr}
    23ec:	5c3200f3 	ldcpl	0, cr0, [r2], #-972	; 0xfffffc34
    23f0:	4b000085 	blmi	260c <_start-0x59f4>
    23f4:	3200001b 	andcc	r0, r0, #27
    23f8:	00008560 	andeq	r8, r0, r0, ror #10
    23fc:	00001b35 	andeq	r1, r0, r5, lsr fp
    2400:	00857433 	addeq	r7, r5, r3, lsr r4
    2404:	001b4000 	andseq	r4, fp, r0
    2408:	00178700 	andseq	r8, r7, r0, lsl #14
    240c:	50013400 	andpl	r3, r1, r0, lsl #8
    2410:	9ae40305 	bls	ff90302c <__bss_end__+0xff8f8f24>
    2414:	01340000 	teqeq	r4, r0
    2418:	ec030551 	cfstr32	mvfx0, [r3], {81}	; 0x51
    241c:	34000099 	strcc	r0, [r0], #-153	; 0x99
    2420:	03055201 	movweq	r5, #20993	; 0x5201
    2424:	000099bc 			; <UNDEFINED> instruction: 0x000099bc
    2428:	02530134 	subseq	r0, r3, #52, 2
    242c:	3200f308 	andcc	pc, r0, #8, 6	; 0x20000000
    2430:	00008578 	andeq	r8, r0, r8, ror r5
    2434:	00001b4b 	andeq	r1, r0, fp, asr #22
    2438:	00858c32 	addeq	r8, r5, r2, lsr ip
    243c:	00195800 	andseq	r5, r9, r0, lsl #16
    2440:	85a03300 	strhi	r3, [r0, #768]!	; 0x300
    2444:	1b2a0000 	blne	a8244c <__bss_end__+0xa78344>
    2448:	17b60000 	ldrne	r0, [r6, r0]!
    244c:	01340000 	teqeq	r4, r0
    2450:	0c0c0550 	cfstr32eq	mvfx0, [ip], {80}	; 0x50
    2454:	34208040 	strtcc	r8, [r0], #-64	; 0x40
    2458:	76025101 	strvc	r5, [r2], -r1, lsl #2
    245c:	b4330000 	ldrtlt	r0, [r3], #-0
    2460:	2a000085 	bcs	267c <_start-0x5984>
    2464:	d300001b 	movwle	r0, #27
    2468:	34000017 	strcc	r0, [r0], #-23
    246c:	0c055001 	stceq	0, cr5, [r5], {1}
    2470:	20804008 	addcs	r4, r0, r8
    2474:	02510134 	subseq	r0, r1, #52, 2
    2478:	33000075 	movwcc	r0, #117	; 0x75
    247c:	000085c0 	andeq	r8, r0, r0, asr #11
    2480:	00001a71 	andeq	r1, r0, r1, ror sl
    2484:	000017e7 	andeq	r1, r0, r7, ror #15
    2488:	02500134 	subseq	r0, r0, #52, 2
    248c:	33000075 	movwcc	r0, #117	; 0x75
    2490:	000085d8 	ldrdeq	r8, [r0], -r8	; <UNPREDICTABLE>
    2494:	00001b2a 	andeq	r1, r0, sl, lsr #22
    2498:	000017fb 	strdeq	r1, [r0], -fp
    249c:	02500134 	subseq	r0, r0, #52, 2
    24a0:	32000075 	andcc	r0, r0, #117	; 0x75
    24a4:	0000860c 	andeq	r8, r0, ip, lsl #12
    24a8:	00001b35 	andeq	r1, r0, r5, lsr fp
    24ac:	00862033 	addeq	r2, r6, r3, lsr r0
    24b0:	001b4000 	andseq	r4, fp, r0
    24b4:	00183400 	andseq	r3, r8, r0, lsl #8
    24b8:	50013400 	andpl	r3, r1, r0, lsl #8
    24bc:	9b080305 	blls	2030d8 <__bss_end__+0x1f8fd0>
    24c0:	01340000 	teqeq	r4, r0
    24c4:	ec030551 	cfstr32	mvfx0, [r3], {81}	; 0x51
    24c8:	34000099 	strcc	r0, [r0], #-153	; 0x99
    24cc:	03055201 	movweq	r5, #20993	; 0x5201
    24d0:	000099bc 			; <UNDEFINED> instruction: 0x000099bc
    24d4:	03530134 	cmpeq	r3, #52, 2
    24d8:	00010e0a 	andeq	r0, r1, sl, lsl #28
    24dc:	00862432 	addeq	r2, r6, r2, lsr r4
    24e0:	001b4b00 	andseq	r4, fp, r0, lsl #22
    24e4:	86283200 	strthi	r3, [r8], -r0, lsl #4
    24e8:	1b350000 	blne	d424f0 <__bss_end__+0xd383e8>
    24ec:	3c330000 	ldccc	0, cr0, [r3], #-0
    24f0:	40000086 	andmi	r0, r0, r6, lsl #1
    24f4:	7500001b 	strvc	r0, [r0, #-27]
    24f8:	34000018 	strcc	r0, [r0], #-24
    24fc:	03055001 	movweq	r5, #20481	; 0x5001
    2500:	00009b80 	andeq	r9, r0, r0, lsl #23
    2504:	05510134 	ldrbeq	r0, [r1, #-308]	; 0x134
    2508:	0099ec03 	addseq	lr, r9, r3, lsl #24
    250c:	52013400 	andpl	r3, r1, #0, 8
    2510:	99bc0305 	ldmibls	ip!, {r0, r2, r8, r9}
    2514:	01340000 	teqeq	r4, r0
    2518:	f6080253 			; <UNDEFINED> instruction: 0xf6080253
    251c:	86403200 	strbhi	r3, [r0], -r0, lsl #4
    2520:	1b4b0000 	blne	12c2528 <__bss_end__+0x12b8420>
    2524:	44320000 	ldrtmi	r0, [r2], #-0
    2528:	35000086 	strcc	r0, [r0, #-134]	; 0x86
    252c:	3300001b 	movwcc	r0, #27
    2530:	00008658 	andeq	r8, r0, r8, asr r6
    2534:	00001b40 	andeq	r1, r0, r0, asr #22
    2538:	000018b6 			; <UNDEFINED> instruction: 0x000018b6
    253c:	05500134 	ldrbeq	r0, [r0, #-308]	; 0x134
    2540:	009ba803 	addseq	sl, fp, r3, lsl #16
    2544:	51013400 	tstpl	r1, r0, lsl #8
    2548:	99ec0305 	stmibls	ip!, {r0, r2, r8, r9}^
    254c:	01340000 	teqeq	r4, r0
    2550:	bc030552 	cfstr32lt	mvfx0, [r3], {82}	; 0x52
    2554:	34000099 	strcc	r0, [r0], #-153	; 0x99
    2558:	08025301 	stmdaeq	r2, {r0, r8, r9, ip, lr}
    255c:	5c3200fb 	ldcpl	0, cr0, [r2], #-1004	; 0xfffffc14
    2560:	4b000086 	blmi	2780 <_start-0x5880>
    2564:	3200001b 	andcc	r0, r0, #27
    2568:	00008660 	andeq	r8, r0, r0, ror #12
    256c:	00001b35 	andeq	r1, r0, r5, lsr fp
    2570:	00867433 	addeq	r7, r6, r3, lsr r4
    2574:	001b4000 	andseq	r4, fp, r0
    2578:	0018f700 	andseq	pc, r8, r0, lsl #14
    257c:	50013400 	andpl	r3, r1, r0, lsl #8
    2580:	9bcc0305 	blls	ff30319c <__bss_end__+0xff2f9094>
    2584:	01340000 	teqeq	r4, r0
    2588:	ec030551 	cfstr32	mvfx0, [r3], {81}	; 0x51
    258c:	34000099 	strcc	r0, [r0], #-153	; 0x99
    2590:	03055201 	movweq	r5, #20993	; 0x5201
    2594:	000099bc 			; <UNDEFINED> instruction: 0x000099bc
    2598:	02530134 	subseq	r0, r3, #52, 2
    259c:	3200ff08 	andcc	pc, r0, #8, 30
    25a0:	00008678 	andeq	r8, r0, r8, ror r6
    25a4:	00001b4b 	andeq	r1, r0, fp, asr #22
    25a8:	00867c32 	addeq	r7, r6, r2, lsr ip
    25ac:	001b3500 	andseq	r3, fp, r0, lsl #10
    25b0:	86903300 	ldrhi	r3, [r0], r0, lsl #6
    25b4:	1b400000 	blne	10025bc <__bss_end__+0xff84b4>
    25b8:	19390000 	ldmdbne	r9!, {}	; <UNPREDICTABLE>
    25bc:	01340000 	teqeq	r4, r0
    25c0:	e4030550 	str	r0, [r3], #-1360	; 0x550
    25c4:	3400009a 	strcc	r0, [r0], #-154	; 0x9a
    25c8:	03055101 	movweq	r5, #20737	; 0x5101
    25cc:	000099ec 	andeq	r9, r0, ip, ror #19
    25d0:	05520134 	ldrbeq	r0, [r2, #-308]	; 0x134
    25d4:	0099bc03 	addseq	fp, r9, r3, lsl #24
    25d8:	53013400 	movwpl	r3, #5120	; 0x1400
    25dc:	010e0a03 	tsteq	lr, r3, lsl #20
    25e0:	86943200 	ldrhi	r3, [r4], r0, lsl #4
    25e4:	1b4b0000 	blne	12c25ec <__bss_end__+0x12b84e4>
    25e8:	09000000 	stmdbeq	r0, {}	; <UNPREDICTABLE>
    25ec:	0000012f 	andeq	r0, r0, pc, lsr #2
    25f0:	00001953 	andeq	r1, r0, r3, asr r9
    25f4:	0000e20a 	andeq	lr, r0, sl, lsl #4
    25f8:	04000a00 	streq	r0, [r0], #-2560	; 0xa00
    25fc:	00001943 	andeq	r1, r0, r3, asr #18
    2600:	0008da3a 	andeq	sp, r8, sl, lsr sl
    2604:	c4e40100 	strbtgt	r0, [r4], #256	; 0x100
    2608:	28000084 	stmdacs	r0, {r2, r7}
    260c:	01000000 	mrseq	r0, (UNDEF: 0)
    2610:	0019ce9c 	mulseq	r9, ip, lr
    2614:	00733c00 	rsbseq	r3, r3, r0, lsl #24
    2618:	0a80e501 	beq	fe03ba24 <__bss_end__+0xfe03191c>
    261c:	06210000 	strteq	r0, [r1], -r0
    2620:	a9290000 	stmdbge	r9!, {}	; <UNPREDICTABLE>
    2624:	3d000019 	stccc	0, cr0, [r0, #-100]	; 0xffffff9c
    2628:	0400755f 	streq	r7, [r0], #-1375	; 0x55f
    262c:	199fec01 	ldmibne	pc, {r0, sl, fp, sp, lr, pc}	; <UNPREDICTABLE>
    2630:	763e0000 	ldrtvc	r0, [lr], -r0
    2634:	ec010076 	stc	0, cr0, [r1], {118}	; 0x76
    2638:	00000a80 	andeq	r0, r0, r0, lsl #21
    263c:	0075753e 	rsbseq	r7, r5, lr, lsr r5
    2640:	006dec01 	rsbeq	lr, sp, r1, lsl #24
    2644:	25000000 	strcs	r0, [r0, #-0]
    2648:	ec010075 	stc	0, cr0, [r1], {117}	; 0x75
    264c:	0000197f 	andeq	r1, r0, pc, ror r9
    2650:	84d43300 	ldrbhi	r3, [r4], #768	; 0x300
    2654:	19ce0000 	stmibne	lr, {}^	; <UNPREDICTABLE>
    2658:	19bd0000 	ldmibne	sp!, {}	; <UNPREDICTABLE>
    265c:	01340000 	teqeq	r4, r0
    2660:	00740250 	rsbseq	r0, r4, r0, asr r2
    2664:	84e43f00 	strbthi	r3, [r4], #3840	; 0xf00
    2668:	1b2a0000 	blne	a82670 <__bss_end__+0xa78568>
    266c:	01340000 	teqeq	r4, r0
    2670:	00740250 	rsbseq	r0, r4, r0, asr r2
    2674:	7f400000 	svcvc	0x00400000
    2678:	01000008 	tsteq	r0, r8
    267c:	000a80b5 	strheq	r8, [sl], -r5
    2680:	0084b400 	addeq	fp, r4, r0, lsl #8
    2684:	00001000 	andeq	r1, r0, r0
    2688:	449c0100 	ldrmi	r0, [ip], #256	; 0x100
    268c:	4100001a 	tstmi	r0, sl, lsl r0
    2690:	b5010073 	strlt	r0, [r1, #-115]	; 0x73
    2694:	00001a44 	andeq	r1, r0, r4, asr #20
    2698:	00000634 	andeq	r0, r0, r4, lsr r6
    269c:	0084b838 	addeq	fp, r4, r8, lsr r8
    26a0:	00000400 	andeq	r0, r0, r0, lsl #8
    26a4:	001a3a00 	andseq	r3, sl, r0, lsl #20
    26a8:	755f3d00 	ldrbvc	r3, [pc, #-3328]	; 19b0 <_start-0x6650>
    26ac:	b6010400 	strlt	r0, [r1], -r0, lsl #8
    26b0:	00001a1f 	andeq	r1, r0, pc, lsl sl
    26b4:	0100763e 	tsteq	r0, lr, lsr r6
    26b8:	000a8bb6 			; <UNDEFINED> instruction: 0x000a8bb6
    26bc:	00753e00 	rsbseq	r3, r5, r0, lsl #28
    26c0:	002cb601 	eoreq	fp, ip, r1, lsl #12
    26c4:	25000000 	strcs	r0, [r0, #-0]
    26c8:	b6010075 			; <UNDEFINED> instruction: 0xb6010075
    26cc:	00001a01 	andeq	r1, r0, r1, lsl #20
    26d0:	0084bc3f 	addeq	fp, r4, pc, lsr ip
    26d4:	001b5600 	andseq	r5, fp, r0, lsl #12
    26d8:	50013400 	andpl	r3, r1, r0, lsl #8
    26dc:	5001f303 	andpl	pc, r1, r3, lsl #6
    26e0:	c0320000 	eorsgt	r0, r2, r0
    26e4:	4a000084 	bmi	28fc <_start-0x5704>
    26e8:	0000001a 	andeq	r0, r0, sl, lsl r0
    26ec:	0a8b040e 	beq	fe2c372c <__bss_end__+0xfe2b9624>
    26f0:	0d400000 	stcleq	0, cr0, [r0, #-0]
    26f4:	0100000c 	tsteq	r0, ip
    26f8:	000a80b1 	strheq	r8, [sl], -r1
    26fc:	0083b000 	addeq	fp, r3, r0
    2700:	00000c00 	andeq	r0, r0, r0, lsl #24
    2704:	719c0100 	orrsvc	r0, ip, r0, lsl #2
    2708:	4100001a 	tstmi	r0, sl, lsl r0
    270c:	b1010073 	tstlt	r1, r3, ror r0
    2710:	00000a80 	andeq	r0, r0, r0, lsl #21
    2714:	00000655 	andeq	r0, r0, r5, asr r6
    2718:	08354000 	ldmdaeq	r5!, {lr}
    271c:	7b010000 	blvc	42724 <__bss_end__+0x3861c>
    2720:	000009c3 	andeq	r0, r0, r3, asr #19
    2724:	000084ec 	andeq	r8, r0, ip, ror #9
    2728:	00000010 	andeq	r0, r0, r0, lsl r0
    272c:	1ae79c01 	bne	ff9e9738 <__bss_end__+0xff9df630>
    2730:	63410000 	movtvs	r0, #4096	; 0x1000
    2734:	e77b0100 	ldrb	r0, [fp, -r0, lsl #2]!
    2738:	6800001a 	stmdavs	r0, {r1, r3, r4}
    273c:	38000006 	stmdacc	r0, {r1, r2}
    2740:	000084f0 	strdeq	r8, [r0], -r0
    2744:	00000004 	andeq	r0, r0, r4
    2748:	00001add 	ldrdeq	r1, [r0], -sp
    274c:	00755f3d 	rsbseq	r5, r5, sp, lsr pc
    2750:	c27c0104 	rsbsgt	r0, ip, #4, 2
    2754:	3e00001a 	mcrcc	0, 0, r0, cr0, cr10, {0}
    2758:	7c010076 	stcvc	0, cr0, [r1], {118}	; 0x76
    275c:	000009ce 	andeq	r0, r0, lr, asr #19
    2760:	0100753e 	tsteq	r0, lr, lsr r5
    2764:	00002c7c 	andeq	r2, r0, ip, ror ip
    2768:	75250000 	strvc	r0, [r5, #-0]!
    276c:	a47c0100 	ldrbtge	r0, [ip], #-256	; 0x100
    2770:	3f00001a 	svccc	0x0000001a
    2774:	000084f4 	strdeq	r8, [r0], -r4
    2778:	00001b56 	andeq	r1, r0, r6, asr fp
    277c:	03500134 	cmpeq	r0, #52, 2
    2780:	005001f3 	ldrsheq	r0, [r0], #-19	; 0xffffffed
    2784:	84f83200 	ldrbthi	r3, [r8], #512	; 0x200
    2788:	1aed0000 	bne	ffb42790 <__bss_end__+0xffb38688>
    278c:	0e000000 	cdpeq	0, 0, cr0, cr0, cr0, {0}
    2790:	0009ce04 	andeq	ip, r9, r4, lsl #28
    2794:	0b9a4000 	bleq	fe69279c <__bss_end__+0xfe688694>
    2798:	74010000 	strvc	r0, [r1], #-0
    279c:	000009c3 	andeq	r0, r0, r3, asr #19
    27a0:	0000839c 	muleq	r0, ip, r3
    27a4:	00000014 	andeq	r0, r0, r4, lsl r0
    27a8:	1b149c01 	blne	5297b4 <__bss_end__+0x51f6ac>
    27ac:	63410000 	movtvs	r0, #4096	; 0x1000
    27b0:	c3740100 	cmngt	r4, #0, 2
    27b4:	89000009 	stmdbhi	r0, {r0, r3}
    27b8:	00000006 	andeq	r0, r0, r6
    27bc:	00011542 	andeq	r1, r1, r2, asr #10
    27c0:	00011500 	andeq	r1, r1, r0, lsl #10
    27c4:	42890700 	addmi	r0, r9, #0, 14
    27c8:	00000790 	muleq	r0, r0, r7
    27cc:	00000790 	muleq	r0, r0, r7
    27d0:	99421908 	stmdbls	r2, {r3, r8, fp, ip}^
    27d4:	9900000a 	stmdbls	r0, {r1, r3}
    27d8:	0700000a 	streq	r0, [r0, -sl]
    27dc:	01b9429c 			; <UNDEFINED> instruction: 0x01b9429c
    27e0:	01b90000 			; <UNDEFINED> instruction: 0x01b90000
    27e4:	1e070000 	cdpne	0, 0, cr0, cr7, cr0, {0}
    27e8:	000cb942 	andeq	fp, ip, r2, asr #18
    27ec:	000cb900 	andeq	fp, ip, r0, lsl #18
    27f0:	42290700 	eormi	r0, r9, #0, 14
    27f4:	000005c6 	andeq	r0, r0, r6, asr #11
    27f8:	000005c6 	andeq	r0, r0, r6, asr #11
    27fc:	7b426507 	blvc	109bc20 <__bss_end__+0x1091b18>
    2800:	7b00000b 	blvc	2834 <_start-0x57cc>
    2804:	0700000b 	streq	r0, [r0, -fp]
    2808:	019100a8 	orrseq	r0, r1, r8, lsr #1
    280c:	00040000 	andeq	r0, r4, r0
    2810:	00000604 	andeq	r0, r0, r4, lsl #12
    2814:	0c5f0104 	ldfeqe	f0, [pc], {4}
    2818:	51010000 	mrspl	r0, (UNDEF: 1)
    281c:	ca00000c 	bgt	2854 <_start-0x57ac>
    2820:	0400000c 	streq	r0, [r0], #-12
    2824:	58000089 	stmdapl	r0, {r0, r3, r7}
    2828:	9a000000 	bls	2830 <_start-0x57d0>
    282c:	02000003 	andeq	r0, r0, #3
    2830:	00000c42 	andeq	r0, r0, r2, asr #24
    2834:	00302802 	eorseq	r2, r0, r2, lsl #16
    2838:	c0030000 	andgt	r0, r3, r0
    283c:	0400000c 	streq	r0, [r0], #-12
    2840:	00470003 	subeq	r0, r7, r3
    2844:	0e040000 	cdpeq	0, 0, cr0, cr4, cr0, {0}
    2848:	4700000d 	strmi	r0, [r0, -sp]
    284c:	00000000 	andeq	r0, r0, r0
    2850:	02040500 	andeq	r0, r4, #0, 10
    2854:	00000cc2 	andeq	r0, r0, r2, asr #25
    2858:	00256202 	eoreq	r6, r5, r2, lsl #4
    285c:	04060000 	streq	r0, [r6], #-0
    2860:	746e6905 	strbtvc	r6, [lr], #-2309	; 0x905
    2864:	07040700 	streq	r0, [r4, -r0, lsl #14]
    2868:	00000084 	andeq	r0, r0, r4, lsl #1
    286c:	5e060107 	adfpls	f0, f6, f7
    2870:	07000003 	streq	r0, [r0, -r3]
    2874:	03e70502 	mvneq	r0, #8388608	; 0x800000
    2878:	04070000 	streq	r0, [r7], #-0
    287c:	0000c505 	andeq	ip, r0, r5, lsl #10
    2880:	05080700 	streq	r0, [r8, #-1792]	; 0x700
    2884:	000000c0 	andeq	r0, r0, r0, asr #1
    2888:	5c080107 	stfpls	f0, [r8], {7}
    288c:	07000003 	streq	r0, [r0, -r3]
    2890:	02400702 	subeq	r0, r0, #524288	; 0x80000
    2894:	04070000 	streq	r0, [r7], #-0
    2898:	00007f07 	andeq	r7, r0, r7, lsl #30
    289c:	07080700 	streq	r0, [r8, -r0, lsl #14]
    28a0:	0000007a 	andeq	r0, r0, sl, ror r0
    28a4:	cb070407 	blgt	1c38c8 <__bss_end__+0x1b97c0>
    28a8:	08000002 	stmdaeq	r0, {r1}
    28ac:	0000a704 	andeq	sl, r0, r4, lsl #14
    28b0:	08010700 	stmdaeq	r1, {r8, r9, sl}
    28b4:	00000365 	andeq	r0, r0, r5, ror #6
    28b8:	00b40408 	adcseq	r0, r4, r8, lsl #8
    28bc:	a7090000 	strge	r0, [r9, -r0]
    28c0:	0a000000 	beq	28c8 <_start-0x5738>
    28c4:	00000cb9 			; <UNDEFINED> instruction: 0x00000cb9
    28c8:	00540601 	subseq	r0, r4, r1, lsl #12
    28cc:	89040000 	stmdbhi	r4, {}	; <UNPREDICTABLE>
    28d0:	00580000 	subseq	r0, r8, r0
    28d4:	9c010000 	stcls	0, cr0, [r1], {-0}
    28d8:	00000143 	andeq	r0, r0, r3, asr #2
    28dc:	746d660b 	strbtvc	r6, [sp], #-1547	; 0x60b
    28e0:	ae060100 	adfges	f0, f6, f0
    28e4:	02000000 	andeq	r0, r0, #0
    28e8:	0d0c7091 	stceq	0, cr7, [ip, #-580]	; 0xfffffdbc
    28ec:	00667562 	rsbeq	r7, r6, r2, ror #10
    28f0:	01430801 	cmpeq	r3, r1, lsl #16
    28f4:	03050000 	movweq	r0, #20480	; 0x5000
    28f8:	00009d08 	andeq	r9, r0, r8, lsl #26
    28fc:	00076d0e 	andeq	r6, r7, lr, lsl #26
    2900:	49090100 	stmdbmi	r9, {r8}
    2904:	02000000 	andeq	r0, r0, #0
    2908:	730f5c91 	movwvc	r5, #64657	; 0xfc91
    290c:	0c01007a 	stceq	0, cr0, [r1], {122}	; 0x7a
    2910:	00000054 	andeq	r0, r0, r4, asr r0
    2914:	000006a7 	andeq	r0, r0, r7, lsr #13
    2918:	00892c10 	addeq	r2, r9, r0, lsl ip
    291c:	00017400 	andeq	r7, r1, r0, lsl #8
    2920:	00013600 	andeq	r3, r1, r0, lsl #12
    2924:	53011100 	movwpl	r1, #4352	; 0x1100
    2928:	114c9102 	cmpne	ip, r2, lsl #2
    292c:	91035201 	tstls	r3, r1, lsl #4
    2930:	01110648 	tsteq	r1, r8, asr #12
    2934:	000a0351 	andeq	r0, sl, r1, asr r3
    2938:	50011104 	andpl	r1, r1, r4, lsl #2
    293c:	00007402 	andeq	r7, r0, r2, lsl #8
    2940:	00894012 	addeq	r4, r9, r2, lsl r0
    2944:	50011100 	andpl	r1, r1, r0, lsl #2
    2948:	00007402 	andeq	r7, r0, r2, lsl #8
    294c:	00a71300 	adceq	r1, r7, r0, lsl #6
    2950:	01540000 	cmpeq	r4, r0
    2954:	9a140000 	bls	50295c <__bss_end__+0x4f8854>
    2958:	ff000000 			; <UNDEFINED> instruction: 0xff000000
    295c:	54150003 	ldrpl	r0, [r5], #-3
    2960:	63000000 	movwvs	r0, #0
    2964:	16000001 	strne	r0, [r0], -r1
    2968:	000000ae 	andeq	r0, r0, lr, lsr #1
    296c:	0d5f1700 	ldcleq	7, cr1, [pc, #-0]	; 2974 <_start-0x568c>
    2970:	22040000 	andcs	r0, r4, #0
    2974:	0000016e 	andeq	r0, r0, lr, ror #2
    2978:	01540408 	cmpeq	r4, r8, lsl #8
    297c:	b6180000 	ldrlt	r0, [r8], -r0
    2980:	0500000c 	streq	r0, [r0, #-12]
    2984:	00005402 	andeq	r5, r0, r2, lsl #8
    2988:	00a11600 	adceq	r1, r1, r0, lsl #12
    298c:	54160000 	ldrpl	r0, [r6], #-0
    2990:	16000000 	strne	r0, [r0], -r0
    2994:	000000ae 	andeq	r0, r0, lr, lsr #1
    2998:	00004916 	andeq	r4, r0, r6, lsl r9
    299c:	13000000 	movwne	r0, #0
    29a0:	04000001 	streq	r0, [r0], #-1
    29a4:	00073500 	andeq	r3, r7, r0, lsl #10
    29a8:	5f010400 	svcpl	0x00010400
    29ac:	0100000c 	tsteq	r0, ip
    29b0:	00000d2e 	andeq	r0, r0, lr, lsr #26
    29b4:	00000cca 	andeq	r0, r0, sl, asr #25
    29b8:	0000895c 	andeq	r8, r0, ip, asr r9
    29bc:	0000003c 	andeq	r0, r0, ip, lsr r0
    29c0:	000004a0 	andeq	r0, r0, r0, lsr #9
    29c4:	69050402 	stmdbvs	r5, {r1, sl}
    29c8:	0300746e 	movweq	r7, #1134	; 0x46e
    29cc:	00840704 	addeq	r0, r4, r4, lsl #14
    29d0:	01030000 	mrseq	r0, (UNDEF: 3)
    29d4:	00035e06 	andeq	r5, r3, r6, lsl #28
    29d8:	05020300 	streq	r0, [r2, #-768]	; 0x300
    29dc:	000003e7 	andeq	r0, r0, r7, ror #7
    29e0:	c5050403 	strgt	r0, [r5, #-1027]	; 0x403
    29e4:	03000000 	movweq	r0, #0
    29e8:	00c00508 	sbceq	r0, r0, r8, lsl #10
    29ec:	01030000 	mrseq	r0, (UNDEF: 3)
    29f0:	00035c08 	andeq	r5, r3, r8, lsl #24
    29f4:	07020300 	streq	r0, [r2, -r0, lsl #6]
    29f8:	00000240 	andeq	r0, r0, r0, asr #4
    29fc:	7f070403 	svcvc	0x00070403
    2a00:	03000000 	movweq	r0, #0
    2a04:	007a0708 	rsbseq	r0, sl, r8, lsl #14
    2a08:	04030000 	streq	r0, [r3], #-0
    2a0c:	0002cb07 	andeq	ip, r2, r7, lsl #22
    2a10:	08010300 	stmdaeq	r1, {r8, r9}
    2a14:	00000365 	andeq	r0, r0, r5, ror #6
    2a18:	000d1d04 	andeq	r1, sp, r4, lsl #26
    2a1c:	25030100 	strcs	r0, [r3, #-256]	; 0x100
    2a20:	5c000000 	stcpl	0, cr0, [r0], {-0}
    2a24:	14000089 	strne	r0, [r0], #-137	; 0x89
    2a28:	01000000 	mrseq	r0, (UNDEF: 0)
    2a2c:	0000b09c 	muleq	r0, ip, r0
    2a30:	00630500 	rsbeq	r0, r3, r0, lsl #10
    2a34:	00250301 	eoreq	r0, r5, r1, lsl #6
    2a38:	06d00000 	ldrbeq	r0, [r0], r0
    2a3c:	68060000 	stmdavs	r6, {}	; <UNPREDICTABLE>
    2a40:	09000089 	stmdbeq	r0, {r0, r3, r7}
    2a44:	07000001 	streq	r0, [r0, -r1]
    2a48:	74025001 	strvc	r5, [r2], #-1
    2a4c:	08000000 	stmdaeq	r0, {}	; <UNPREDICTABLE>
    2a50:	000001b9 			; <UNDEFINED> instruction: 0x000001b9
    2a54:	89700801 	ldmdbhi	r0!, {r0, fp}^
    2a58:	00180000 	andseq	r0, r8, r0
    2a5c:	9c010000 	stcls	0, cr0, [r1], {-0}
    2a60:	000d3d09 	andeq	r3, sp, r9, lsl #26
    2a64:	880b0100 	stmdahi	fp, {r8}
    2a68:	10000089 	andne	r0, r0, r9, lsl #1
    2a6c:	01000000 	mrseq	r0, (UNDEF: 0)
    2a70:	0000e39c 	muleq	r0, ip, r3
    2a74:	70660a00 	rsbvc	r0, r6, r0, lsl #20
    2a78:	f20b0100 	vrhadd.s8	d0, d11, d0
    2a7c:	01000000 	mrseq	r0, (UNDEF: 0)
    2a80:	250b0050 	strcs	r0, [fp, #-80]	; 0x50
    2a84:	f2000000 	vhadd.s8	d0, d0, d0
    2a88:	0c000000 	stceq	0, cr0, [r0], {-0}
    2a8c:	00000025 	andeq	r0, r0, r5, lsr #32
    2a90:	e3040d00 	movw	r0, #19712	; 0x4d00
    2a94:	0e000000 	cdpeq	0, 0, cr0, cr0, cr0, {0}
    2a98:	0000086e 	andeq	r0, r0, lr, ror #16
    2a9c:	00f20601 	rscseq	r0, r2, r1, lsl #12
    2aa0:	03050000 	movweq	r0, #20480	; 0x5000
    2aa4:	00009774 	andeq	r9, r0, r4, ror r7
    2aa8:	000d130f 	andeq	r1, sp, pc, lsl #6
    2aac:	0c3c0200 	lfmeq	f0, 4, [ip], #-0
    2ab0:	0000002c 	andeq	r0, r0, ip, lsr #32
    2ab4:	00ee0000 	rsceq	r0, lr, r0
    2ab8:	00040000 	andeq	r0, r4, r0
    2abc:	0000081d 	andeq	r0, r0, sp, lsl r8
    2ac0:	0c5f0104 	ldfeqe	f0, [pc], {4}
    2ac4:	4a010000 	bmi	42acc <__bss_end__+0x389c4>
    2ac8:	ca00000d 	bgt	2b04 <_start-0x54fc>
    2acc:	9800000c 	stmdals	r0, {r2, r3}
    2ad0:	34000089 	strcc	r0, [r0], #-137	; 0x89
    2ad4:	2e000000 	cdpcs	0, 0, cr0, cr0, cr0, {0}
    2ad8:	02000005 	andeq	r0, r0, #5
    2adc:	6e690504 	cdpvs	5, 6, cr0, cr9, cr4, {0}
    2ae0:	04030074 	streq	r0, [r3], #-116	; 0x74
    2ae4:	00008407 	andeq	r8, r0, r7, lsl #8
    2ae8:	06010300 	streq	r0, [r1], -r0, lsl #6
    2aec:	0000035e 	andeq	r0, r0, lr, asr r3
    2af0:	e7050203 	str	r0, [r5, -r3, lsl #4]
    2af4:	03000003 	movweq	r0, #3
    2af8:	00c50504 	sbceq	r0, r5, r4, lsl #10
    2afc:	08030000 	stmdaeq	r3, {}	; <UNPREDICTABLE>
    2b00:	0000c005 	andeq	ip, r0, r5
    2b04:	08010300 	stmdaeq	r1, {r8, r9}
    2b08:	0000035c 	andeq	r0, r0, ip, asr r3
    2b0c:	40070203 	andmi	r0, r7, r3, lsl #4
    2b10:	03000002 	movweq	r0, #2
    2b14:	007f0704 	rsbseq	r0, pc, r4, lsl #14
    2b18:	08030000 	stmdaeq	r3, {}	; <UNPREDICTABLE>
    2b1c:	00007a07 	andeq	r7, r0, r7, lsl #20
    2b20:	07040300 	streq	r0, [r4, -r0, lsl #6]
    2b24:	000002cb 	andeq	r0, r0, fp, asr #5
    2b28:	65080103 	strvs	r0, [r8, #-259]	; 0x103
    2b2c:	04000003 	streq	r0, [r0], #-3
    2b30:	00007f04 	andeq	r7, r0, r4, lsl #30
    2b34:	00720500 	rsbseq	r0, r2, r0, lsl #10
    2b38:	56060000 	strpl	r0, [r6], -r0
    2b3c:	0100000d 	tsteq	r0, sp
    2b40:	00002504 	andeq	r2, r0, r4, lsl #10
    2b44:	00899800 	addeq	r9, r9, r0, lsl #16
    2b48:	00003400 	andeq	r3, r0, r0, lsl #8
    2b4c:	ab9c0100 	blge	fe702f54 <__bss_end__+0xfe6f8e4c>
    2b50:	07000000 	streq	r0, [r0, -r0]
    2b54:	04010070 	streq	r0, [r1], #-112	; 0x70
    2b58:	00000079 	andeq	r0, r0, r9, ror r0
    2b5c:	000006ee 	andeq	r0, r0, lr, ror #13
    2b60:	00250800 	eoreq	r0, r5, r0, lsl #16
    2b64:	00ba0000 	adcseq	r0, sl, r0
    2b68:	25090000 	strcs	r0, [r9, #-0]
    2b6c:	00000000 	andeq	r0, r0, r0
    2b70:	00086e0a 	andeq	r6, r8, sl, lsl #28
    2b74:	c51d0200 	ldrgt	r0, [sp, #-512]	; 0x200
    2b78:	04000000 	streq	r0, [r0], #-0
    2b7c:	0000ab04 	andeq	sl, r0, r4, lsl #22
    2b80:	00250800 	eoreq	r0, r5, r0, lsl #16
    2b84:	00da0000 	sbcseq	r0, sl, r0
    2b88:	79090000 	stmdbvc	r9, {}	; <UNPREDICTABLE>
    2b8c:	00000000 	andeq	r0, r0, r0
    2b90:	000d5f0b 	andeq	r5, sp, fp, lsl #30
    2b94:	eb0c0100 	bl	302f9c <__bss_end__+0x2f8e94>
    2b98:	05000000 	streq	r0, [r0, #-0]
    2b9c:	00977803 	addseq	r7, r7, r3, lsl #16
    2ba0:	cb040400 	blgt	103ba8 <__bss_end__+0xf9aa0>
    2ba4:	00000000 	andeq	r0, r0, r0
    2ba8:	00000681 	andeq	r0, r0, r1, lsl #13
    2bac:	08b60004 	ldmeq	r6!, {r2}
    2bb0:	01040000 	mrseq	r0, (UNDEF: 4)
    2bb4:	00000c5f 	andeq	r0, r0, pc, asr ip
    2bb8:	000d8b01 	andeq	r8, sp, r1, lsl #22
    2bbc:	000cca00 	andeq	ip, ip, r0, lsl #20
    2bc0:	0089cc00 	addeq	ip, r9, r0, lsl #24
    2bc4:	0004f800 	andeq	pc, r4, r0, lsl #16
    2bc8:	0005c800 	andeq	ip, r5, r0, lsl #16
    2bcc:	05040200 	streq	r0, [r4, #-512]	; 0x200
    2bd0:	00746e69 	rsbseq	r6, r4, r9, ror #28
    2bd4:	84070403 	strhi	r0, [r7], #-1027	; 0x403
    2bd8:	03000000 	movweq	r0, #0
    2bdc:	035e0601 	cmpeq	lr, #1048576	; 0x100000
    2be0:	02030000 	andeq	r0, r3, #0
    2be4:	0003e705 	andeq	lr, r3, r5, lsl #14
    2be8:	05040300 	streq	r0, [r4, #-768]	; 0x300
    2bec:	000000c5 	andeq	r0, r0, r5, asr #1
    2bf0:	c0050803 	andgt	r0, r5, r3, lsl #16
    2bf4:	03000000 	movweq	r0, #0
    2bf8:	035c0801 	cmpeq	ip, #65536	; 0x10000
    2bfc:	02030000 	andeq	r0, r3, #0
    2c00:	00024007 	andeq	r4, r2, r7
    2c04:	07040300 	streq	r0, [r4, -r0, lsl #6]
    2c08:	0000007f 	andeq	r0, r0, pc, ror r0
    2c0c:	7a070803 	bvc	1c4c20 <__bss_end__+0x1bab18>
    2c10:	03000000 	movweq	r0, #0
    2c14:	02cb0704 	sbceq	r0, fp, #4, 14	; 0x100000
    2c18:	04040000 	streq	r0, [r4], #-0
    2c1c:	007a0405 	rsbseq	r0, sl, r5, lsl #8
    2c20:	01030000 	mrseq	r0, (UNDEF: 3)
    2c24:	00036508 	andeq	r6, r3, r8, lsl #10
    2c28:	87040500 	strhi	r0, [r4, -r0, lsl #10]
    2c2c:	06000000 	streq	r0, [r0], -r0
    2c30:	0000007a 	andeq	r0, r0, sl, ror r0
    2c34:	000c4207 	andeq	r4, ip, r7, lsl #4
    2c38:	97280200 	strls	r0, [r8, -r0, lsl #4]!
    2c3c:	08000000 	stmdaeq	r0, {}	; <UNPREDICTABLE>
    2c40:	00000cc0 	andeq	r0, r0, r0, asr #25
    2c44:	ae000404 	cdpge	4, 0, cr0, cr0, cr4, {0}
    2c48:	09000000 	stmdbeq	r0, {}	; <UNPREDICTABLE>
    2c4c:	00000d0e 	andeq	r0, r0, lr, lsl #26
    2c50:	00000072 	andeq	r0, r0, r2, ror r0
    2c54:	c2070000 	andgt	r0, r7, #0
    2c58:	0200000c 	andeq	r0, r0, #12
    2c5c:	00008c62 	andeq	r8, r0, r2, ror #24
    2c60:	0d720a00 	vldmdbeq	r2!, {s1-s0}
    2c64:	27010000 	strcs	r0, [r1, -r0]
    2c68:	00000025 	andeq	r0, r0, r5, lsr #32
    2c6c:	000089cc 	andeq	r8, r0, ip, asr #19
    2c70:	00000014 	andeq	r0, r0, r4, lsl r0
    2c74:	00e09c01 	rsceq	r9, r0, r1, lsl #24
    2c78:	630b0000 	movwvs	r0, #45056	; 0xb000
    2c7c:	25270100 	strcs	r0, [r7, #-256]!	; 0x100
    2c80:	0c000000 	stceq	0, cr0, [r0], {-0}
    2c84:	00000007 	andeq	r0, r0, r7
    2c88:	6461700c 	strbtvs	r7, [r1], #-12
    2c8c:	742e0100 	strtvc	r0, [lr], #-256	; 0x100
    2c90:	e0000000 	and	r0, r0, r0
    2c94:	2c000089 	stccs	0, cr0, [r0], {137}	; 0x89
    2c98:	01000000 	mrseq	r0, (UNDEF: 0)
    2c9c:	0001309c 	muleq	r1, ip, r0
    2ca0:	00700b00 	rsbseq	r0, r0, r0, lsl #22
    2ca4:	00742e01 	rsbseq	r2, r4, r1, lsl #28
    2ca8:	073a0000 	ldreq	r0, [sl, -r0]!
    2cac:	460d0000 	strmi	r0, [sp], -r0
    2cb0:	01000007 	tsteq	r0, r7
    2cb4:	0000742e 	andeq	r7, r0, lr, lsr #8
    2cb8:	00076500 	andeq	r6, r7, r0, lsl #10
    2cbc:	0dab0e00 	stceq	14, cr0, [fp]
    2cc0:	2e010000 	cdpcs	0, 0, cr0, cr1, cr0, {0}
    2cc4:	00000025 	andeq	r0, r0, r5, lsr #32
    2cc8:	6c0f5201 	sfmvs	f5, 4, [pc], {1}
    2ccc:	01006e65 	tsteq	r0, r5, ror #28
    2cd0:	0000252f 	andeq	r2, r0, pc, lsr #10
    2cd4:	00510100 	subseq	r0, r1, r0, lsl #2
    2cd8:	000d6a0a 	andeq	r6, sp, sl, lsl #20
    2cdc:	74370100 	ldrtvc	r0, [r7], #-256	; 0x100
    2ce0:	0c000000 	stceq	0, cr0, [r0], {-0}
    2ce4:	4000008a 	andmi	r0, r0, sl, lsl #1
    2ce8:	01000000 	mrseq	r0, (UNDEF: 0)
    2cec:	00019c9c 	muleq	r1, ip, ip
    2cf0:	73640b00 	cmnvc	r4, #0, 22
    2cf4:	37010074 	smlsdxcc	r1, r4, r0, r0
    2cf8:	00000074 	andeq	r0, r0, r4, ror r0
    2cfc:	00000786 	andeq	r0, r0, r6, lsl #15
    2d00:	01006e0b 	tsteq	r0, fp, lsl #28
    2d04:	00002537 	andeq	r2, r0, r7, lsr r5
    2d08:	0007be00 	andeq	fp, r7, r0, lsl #28
    2d0c:	00700b00 	rsbseq	r0, r0, r0, lsl #22
    2d10:	00743701 	rsbseq	r3, r4, r1, lsl #14
    2d14:	07df0000 	ldrbeq	r0, [pc, r0]
    2d18:	450d0000 	strmi	r0, [sp, #-0]
    2d1c:	0100000b 	tsteq	r0, fp
    2d20:	00007437 	andeq	r7, r0, r7, lsr r4
    2d24:	00081500 	andeq	r1, r8, r0, lsl #10
    2d28:	656c1000 	strbvs	r1, [ip, #-0]!
    2d2c:	3901006e 	stmdbcc	r1, {r1, r2, r3, r5, r6}
    2d30:	00000025 	andeq	r0, r0, r5, lsr #32
    2d34:	00000833 	andeq	r0, r0, r3, lsr r8
    2d38:	0100730f 	tsteq	r0, pc, lsl #6
    2d3c:	0000743d 	andeq	r7, r0, sp, lsr r4
    2d40:	00500100 	subseq	r0, r0, r0, lsl #2
    2d44:	000db90a 	andeq	fp, sp, sl, lsl #18
    2d48:	74470100 	strbvc	r0, [r7], #-256	; 0x100
    2d4c:	4c000000 	stcmi	0, cr0, [r0], {-0}
    2d50:	9c00008a 	stcls	0, cr0, [r0], {138}	; 0x8a
    2d54:	01000001 	tsteq	r0, r1
    2d58:	0002d39c 	muleq	r2, ip, r3
    2d5c:	07460d00 	strbeq	r0, [r6, -r0, lsl #26]
    2d60:	47010000 	strmi	r0, [r1, -r0]
    2d64:	0000002c 	andeq	r0, r0, ip, lsr #32
    2d68:	0000085a 	andeq	r0, r0, sl, asr r8
    2d6c:	7473640b 	ldrbtvc	r6, [r3], #-1035	; 0x40b
    2d70:	74470100 	strbvc	r0, [r7], #-256	; 0x100
    2d74:	88000000 	stmdahi	r0, {}	; <UNPREDICTABLE>
    2d78:	0b000008 	bleq	2da0 <_start-0x5260>
    2d7c:	4701006e 	strmi	r0, [r1, -lr, rrx]
    2d80:	00000025 	andeq	r0, r0, r5, lsr #32
    2d84:	000008f6 	strdeq	r0, [r0], -r6
    2d88:	6c61760b 	stclvs	6, cr7, [r1], #-44	; 0xffffffd4
    2d8c:	25470100 	strbcs	r0, [r7, #-256]	; 0x100
    2d90:	22000000 	andcs	r0, r0, #0
    2d94:	0d000009 	stceq	0, cr0, [r0, #-36]	; 0xffffffdc
    2d98:	00000dab 	andeq	r0, r0, fp, lsr #27
    2d9c:	00254701 	eoreq	r4, r5, r1, lsl #14
    2da0:	09a10000 	stmibeq	r1!, {}	; <UNPREDICTABLE>
    2da4:	820e0000 	andhi	r0, lr, #0
    2da8:	0100000d 	tsteq	r0, sp
    2dac:	00002547 	andeq	r2, r0, r7, asr #10
    2db0:	04910200 	ldreq	r0, [r1], #512	; 0x200
    2db4:	6675620f 	ldrbtvs	r6, [r5], -pc, lsl #4
    2db8:	d34c0100 	movtle	r0, #49408	; 0xc100
    2dbc:	03000002 	movweq	r0, #2
    2dc0:	107fa891 			; <UNDEFINED> instruction: 0x107fa891
    2dc4:	4c010070 	stcmi	0, cr0, [r1], {112}	; 0x70
    2dc8:	00000074 	andeq	r0, r0, r4, ror r0
    2dcc:	000009cb 	andeq	r0, r0, fp, asr #19
    2dd0:	01007510 	tsteq	r0, r0, lsl r5
    2dd4:	00002c4d 	andeq	r2, r0, sp, asr #24
    2dd8:	000a7000 	andeq	r7, sl, r0
    2ddc:	02651100 	rsbeq	r1, r5, #0, 2
    2de0:	02f30000 	rscseq	r0, r3, #0
    2de4:	03050000 	movweq	r0, #20480	; 0x5000
    2de8:	00009bf4 	strdeq	r9, [r0], -r4
    2dec:	008ab812 	addeq	fp, sl, r2, lsl r8
    2df0:	00007400 	andeq	r7, r0, r0, lsl #8
    2df4:	00026100 	andeq	r6, r2, r0, lsl #2
    2df8:	0d641300 	stcleq	3, cr1, [r4, #-0]
    2dfc:	52010000 	andpl	r0, r1, #0
    2e00:	0000002c 	andeq	r0, r0, ip, lsr #32
    2e04:	00000b75 	andeq	r0, r0, r5, ror fp
    2e08:	8b8c1400 	blhi	fe307e10 <__bss_end__+0xfe2fdd08>
    2e0c:	06600000 	strbteq	r0, [r0], -r0
    2e10:	a0150000 	andsge	r0, r5, r0
    2e14:	6700008b 	strvs	r0, [r0, -fp, lsl #1]
    2e18:	99000006 	stmdbls	r0, {r1, r2}
    2e1c:	16000002 	strne	r0, [r0], -r2
    2e20:	08025301 	stmdaeq	r2, {r0, r8, r9, ip, lr}
    2e24:	52011675 	andpl	r1, r1, #122683392	; 0x7500000
    2e28:	9bf40305 	blls	ffd03a44 <__bss_end__+0xffcf993c>
    2e2c:	01160000 	tsteq	r6, r0
    2e30:	2c030551 	cfstr32cs	mvfx0, [r3], {81}	; 0x51
    2e34:	1600009c 			; <UNDEFINED> instruction: 0x1600009c
    2e38:	03055001 	movweq	r5, #20481	; 0x5001
    2e3c:	00009c18 	andeq	r9, r0, r8, lsl ip
    2e40:	8ba41400 	blhi	fe907e48 <__bss_end__+0xfe8fdd40>
    2e44:	067d0000 	ldrbteq	r0, [sp], -r0
    2e48:	b0150000 	andslt	r0, r5, r0
    2e4c:	e000008b 	and	r0, r0, fp, lsl #1
    2e50:	b6000000 	strlt	r0, [r0], -r0
    2e54:	16000002 	strne	r0, [r0], -r2
    2e58:	7d025101 	stfvcs	f5, [r2, #-4]
    2e5c:	c4170000 	ldrgt	r0, [r7], #-0
    2e60:	3000008b 	andcc	r0, r0, fp, lsl #1
    2e64:	16000001 	strne	r0, [r0], -r1
    2e68:	7d025301 	stcvc	3, cr5, [r2, #-4]
    2e6c:	51011600 	tstpl	r1, r0, lsl #12
    2e70:	16007402 	strne	r7, [r0], -r2, lsl #8
    2e74:	75025001 	strvc	r5, [r2, #-1]
    2e78:	18000000 	stmdane	r0, {}	; <UNPREDICTABLE>
    2e7c:	0000007a 	andeq	r0, r0, sl, ror r0
    2e80:	000002e3 	andeq	r0, r0, r3, ror #5
    2e84:	00006b19 	andeq	r6, r0, r9, lsl fp
    2e88:	18003f00 	stmdane	r0, {r8, r9, sl, fp, ip, sp}
    2e8c:	0000007a 	andeq	r0, r0, sl, ror r0
    2e90:	000002f3 	strdeq	r0, [r0], -r3
    2e94:	00006b19 	andeq	r6, r0, r9, lsl fp
    2e98:	06000400 	streq	r0, [r0], -r0, lsl #8
    2e9c:	000002e3 	andeq	r0, r0, r3, ror #5
    2ea0:	000d9c1a 	andeq	r9, sp, sl, lsl ip
    2ea4:	e81f0100 	ldmda	pc, {r8}	; <UNPREDICTABLE>
    2ea8:	5400008b 	strpl	r0, [r0], #-139	; 0x8b
    2eac:	01000000 	mrseq	r0, (UNDEF: 0)
    2eb0:	00037c9c 	muleq	r3, ip, ip
    2eb4:	0db10d00 	ldceq	13, cr0, [r1]
    2eb8:	1f010000 	svcne	0x00010000
    2ebc:	0000038b 	andeq	r0, r0, fp, lsl #7
    2ec0:	00000ba1 	andeq	r0, r0, r1, lsr #23
    2ec4:	000d7a0d 	andeq	r7, sp, sp, lsl #20
    2ec8:	a01f0100 	andsge	r0, pc, r0, lsl #2
    2ecc:	cd000003 	stcgt	0, cr0, [r0, #-12]
    2ed0:	1100000b 	tstne	r0, fp
    2ed4:	00000265 	andeq	r0, r0, r5, ror #4
    2ed8:	000003b6 			; <UNDEFINED> instruction: 0x000003b6
    2edc:	9bfc0305 	blls	fff03af8 <__bss_end__+0xffef99f0>
    2ee0:	f8140000 			; <UNDEFINED> instruction: 0xf8140000
    2ee4:	6000008b 	andvs	r0, r0, fp, lsl #1
    2ee8:	15000006 	strne	r0, [r0, #-6]
    2eec:	00008c0c 	andeq	r8, r0, ip, lsl #24
    2ef0:	00000667 	andeq	r0, r0, r7, ror #12
    2ef4:	00000372 	andeq	r0, r0, r2, ror r3
    2ef8:	02530116 	subseq	r0, r3, #-2147483643	; 0x80000005
    2efc:	01162008 	tsteq	r6, r8
    2f00:	fc030552 	stc2	5, cr0, [r3], {82}	; 0x52
    2f04:	1600009b 			; <UNDEFINED> instruction: 0x1600009b
    2f08:	03055101 	movweq	r5, #20737	; 0x5101
    2f0c:	00009c2c 	andeq	r9, r0, ip, lsr #24
    2f10:	05500116 	ldrbeq	r0, [r0, #-278]	; 0x116
    2f14:	009c6403 	addseq	r6, ip, r3, lsl #8
    2f18:	10140000 	andsne	r0, r4, r0
    2f1c:	7d00008c 	stcvc	0, cr0, [r0, #-560]	; 0xfffffdd0
    2f20:	00000006 	andeq	r0, r0, r6
    2f24:	0000251b 	andeq	r2, r0, fp, lsl r5
    2f28:	00038b00 	andeq	r8, r3, r0, lsl #22
    2f2c:	00251c00 	eoreq	r1, r5, r0, lsl #24
    2f30:	05000000 	streq	r0, [r0, #-0]
    2f34:	00037c04 	andeq	r7, r3, r4, lsl #24
    2f38:	00251b00 	eoreq	r1, r5, r0, lsl #22
    2f3c:	03a00000 	moveq	r0, #0
    2f40:	811c0000 	tsthi	ip, r0
    2f44:	00000000 	andeq	r0, r0, r0
    2f48:	03910405 	orrseq	r0, r1, #83886080	; 0x5000000
    2f4c:	7a180000 	bvc	602f54 <__bss_end__+0x5f8e4c>
    2f50:	b6000000 	strlt	r0, [r0], -r0
    2f54:	19000003 	stmdbne	r0, {r0, r1}
    2f58:	0000006b 	andeq	r0, r0, fp, rrx
    2f5c:	a606000e 	strge	r0, [r6], -lr
    2f60:	1d000003 	stcne	0, cr0, [r0, #-12]
    2f64:	00000cb6 			; <UNDEFINED> instruction: 0x00000cb6
    2f68:	00257d01 	eoreq	r7, r5, r1, lsl #26
    2f6c:	8c3c0000 	ldchi	0, cr0, [ip], #-0
    2f70:	02880000 	addeq	r0, r8, #0
    2f74:	9c010000 	stcls	0, cr0, [r1], {-0}
    2f78:	00000625 	andeq	r0, r0, r5, lsr #12
    2f7c:	6675620b 	ldrbtvs	r6, [r5], -fp, lsl #4
    2f80:	747d0100 	ldrbtvc	r0, [sp], #-256	; 0x100
    2f84:	f9000000 			; <UNDEFINED> instruction: 0xf9000000
    2f88:	0b00000b 	bleq	2fbc <_start-0x5044>
    2f8c:	7d01006e 	stcvc	0, cr0, [r1, #-440]	; 0xfffffe48
    2f90:	00000025 	andeq	r0, r0, r5, lsr #32
    2f94:	00000c25 	andeq	r0, r0, r5, lsr #24
    2f98:	746d660b 	strbtvc	r6, [sp], #-1547	; 0x60b
    2f9c:	817d0100 	cmnhi	sp, r0, lsl #2
    2fa0:	53000000 	movwpl	r0, #0
    2fa4:	0d00000c 	stceq	0, cr0, [r0, #-48]	; 0xffffffd0
    2fa8:	0000076d 	andeq	r0, r0, sp, ror #14
    2fac:	00ae7d01 	adceq	r7, lr, r1, lsl #26
    2fb0:	0c870000 	stceq	0, cr0, [r7], {0}
    2fb4:	70100000 	andsvc	r0, r0, r0
    2fb8:	747e0100 	ldrbtvc	r0, [lr], #-256	; 0x100
    2fbc:	9a000000 	bls	2fc4 <_start-0x503c>
    2fc0:	1000000c 	andne	r0, r0, ip
    2fc4:	7e010065 	cdpvc	0, 0, cr0, cr1, cr5, {3}
    2fc8:	00000074 	andeq	r0, r0, r4, ror r0
    2fcc:	00000d18 	andeq	r0, r0, r8, lsl sp
    2fd0:	00026511 	andeq	r6, r2, r1, lsl r5
    2fd4:	00063500 	andeq	r3, r6, r0, lsl #10
    2fd8:	0c030500 	cfstr32eq	mvfx0, [r3], {-0}
    2fdc:	1e00009c 	mcrne	0, 0, r0, cr0, cr12, {4}
    2fe0:	00000000 	andeq	r0, r0, r0
    2fe4:	01007310 	tsteq	r0, r0, lsl r3
    2fe8:	0000748b 	andeq	r7, r0, fp, lsl #9
    2fec:	000d3f00 	andeq	r3, sp, r0, lsl #30
    2ff0:	756e0f00 	strbvc	r0, [lr, #-3840]!	; 0xf00
    2ff4:	8b01006d 	blhi	431b0 <__bss_end__+0x390a8>
    2ff8:	0000063a 	andeq	r0, r0, sl, lsr r6
    2ffc:	7ed89103 	atnvce	f1, f3
    3000:	000dab13 	andeq	sl, sp, r3, lsl fp
    3004:	2c8c0100 	stfcss	f0, [ip], {0}
    3008:	94000000 	strls	r0, [r0], #-0
    300c:	1500000d 	strne	r0, [r0, #-13]
    3010:	00008cc0 	andeq	r8, r0, r0, asr #25
    3014:	000000b9 	strheq	r0, [r0], -r9
    3018:	0000047b 	andeq	r0, r0, fp, ror r4
    301c:	02500116 	subseq	r0, r0, #-2147483643	; 0x80000005
    3020:	14000075 	strne	r0, [r0], #-117	; 0x75
    3024:	00008cd4 	ldrdeq	r8, [r0], -r4
    3028:	00000660 	andeq	r0, r0, r0, ror #12
    302c:	008ce815 	addeq	lr, ip, r5, lsl r8
    3030:	00066700 	andeq	r6, r6, r0, lsl #14
    3034:	0004b300 	andeq	fp, r4, r0, lsl #6
    3038:	53011600 	movwpl	r1, #5632	; 0x1600
    303c:	16920802 	ldrne	r0, [r2], r2, lsl #16
    3040:	03055201 	movweq	r5, #20993	; 0x5201
    3044:	00009c0c 	andeq	r9, r0, ip, lsl #24
    3048:	05510116 	ldrbeq	r0, [r1, #-278]	; 0x116
    304c:	009c2c03 	addseq	r2, ip, r3, lsl #24
    3050:	50011600 	andpl	r1, r1, r0, lsl #12
    3054:	9c7c0305 	ldclls	3, cr0, [ip], #-20	; 0xffffffec
    3058:	14000000 	strne	r0, [r0], #-0
    305c:	00008cec 	andeq	r8, r0, ip, ror #25
    3060:	0000067d 	andeq	r0, r0, sp, ror r6
    3064:	008d5c14 	addeq	r5, sp, r4, lsl ip
    3068:	00066000 	andeq	r6, r6, r0
    306c:	8d701500 	cfldr64hi	mvdx1, [r0, #-0]
    3070:	06670000 	strbteq	r0, [r7], -r0
    3074:	04f40000 	ldrbteq	r0, [r4], #0
    3078:	01160000 	tsteq	r6, r0
    307c:	98080253 	stmdals	r8, {r0, r1, r4, r6, r9}
    3080:	05520116 	ldrbeq	r0, [r2, #-278]	; 0x116
    3084:	009c0c03 	addseq	r0, ip, r3, lsl #24
    3088:	51011600 	tstpl	r1, r0, lsl #12
    308c:	9c2c0305 	stcls	3, cr0, [ip], #-20	; 0xffffffec
    3090:	01160000 	tsteq	r6, r0
    3094:	98030550 	stmdals	r3, {r4, r6, r8, sl}
    3098:	0000009c 	muleq	r0, ip, r0
    309c:	008d7414 	addeq	r7, sp, r4, lsl r4
    30a0:	00067d00 	andeq	r7, r6, r0, lsl #26
    30a4:	8d981500 	cfldr32hi	mvfx1, [r8]
    30a8:	019c0000 	orrseq	r0, ip, r0
    30ac:	052a0000 	streq	r0, [sl, #-0]!
    30b0:	01160000 	tsteq	r6, r0
    30b4:	80080252 	andhi	r0, r8, r2, asr r2
    30b8:	03510116 	cmpeq	r1, #-2147483643	; 0x80000005
    30bc:	167ed091 			; <UNDEFINED> instruction: 0x167ed091
    30c0:	3a015001 	bcc	570cc <__bss_end__+0x4cfc4>
    30c4:	047d0216 	ldrbteq	r0, [sp], #-534	; 0x216
    30c8:	02163101 	andseq	r3, r6, #1073741824	; 0x40000000
    30cc:	7702007d 	smlsdxvc	r2, sp, r0, r0
    30d0:	bc150000 	ldclt	0, cr0, [r5], {-0}
    30d4:	9c00008d 	stcls	0, cr0, [r0], {141}	; 0x8d
    30d8:	58000001 	stmdapl	r0, {r0}
    30dc:	16000005 	strne	r0, [r0], -r5
    30e0:	08025201 	stmdaeq	r2, {r0, r9, ip, lr}
    30e4:	51011680 	smlabbpl	r1, r0, r6, r1
    30e8:	7ed09103 	atnvcs	f1, f3
    30ec:	01500116 	cmpeq	r0, r6, lsl r1
    30f0:	7d02163a 	stcvc	6, cr1, [r2, #-232]	; 0xffffff18
    30f4:	007b0204 	rsbseq	r0, fp, r4, lsl #4
    30f8:	007d0216 	rsbseq	r0, sp, r6, lsl r2
    30fc:	00007702 	andeq	r7, r0, r2, lsl #14
    3100:	008de015 	addeq	lr, sp, r5, lsl r0
    3104:	00019c00 	andeq	r9, r1, r0, lsl #24
    3108:	00058600 	andeq	r8, r5, r0, lsl #12
    310c:	52011600 	andpl	r1, r1, #0, 12
    3110:	16800802 	strne	r0, [r0], r2, lsl #16
    3114:	91035101 	tstls	r3, r1, lsl #2
    3118:	01167ed0 			; <UNDEFINED> instruction: 0x01167ed0
    311c:	16400150 			; <UNDEFINED> instruction: 0x16400150
    3120:	02047d02 	andeq	r7, r4, #2, 26	; 0x80
    3124:	0216007b 	andseq	r0, r6, #123	; 0x7b
    3128:	7702007d 	smlsdxvc	r2, sp, r0, r0
    312c:	04150000 	ldreq	r0, [r5], #-0
    3130:	9c00008e 	stcls	0, cr0, [r0], {142}	; 0x8e
    3134:	b4000001 	strlt	r0, [r0], #-1
    3138:	16000005 	strne	r0, [r0], -r5
    313c:	08025201 	stmdaeq	r2, {r0, r9, ip, lr}
    3140:	51011680 	smlabbpl	r1, r0, r6, r1
    3144:	7ed09103 	atnvcs	f1, f3
    3148:	01500116 	cmpeq	r0, r6, lsl r1
    314c:	7d021632 	stcvc	6, cr1, [r2, #-200]	; 0xffffff38
    3150:	007b0204 	rsbseq	r0, fp, r4, lsl #4
    3154:	007d0216 	rsbseq	r0, sp, r6, lsl r2
    3158:	00007702 	andeq	r7, r0, r2, lsl #14
    315c:	008e3415 	addeq	r3, lr, r5, lsl r4
    3160:	00019c00 	andeq	r9, r1, r0, lsl #24
    3164:	0005e200 	andeq	lr, r5, r0, lsl #4
    3168:	52011600 	andpl	r1, r1, #0, 12
    316c:	16800802 	strne	r0, [r0], r2, lsl #16
    3170:	91035101 	tstls	r3, r1, lsl #2
    3174:	01167ed0 			; <UNDEFINED> instruction: 0x01167ed0
    3178:	16380150 			; <UNDEFINED> instruction: 0x16380150
    317c:	02047d02 	andeq	r7, r4, #2, 26	; 0x80
    3180:	0216007b 	andseq	r0, r6, #123	; 0x7b
    3184:	7702007d 	smlsdxvc	r2, sp, r0, r0
    3188:	3c140000 	ldccc	0, cr0, [r4], {-0}
    318c:	6000008e 	andvs	r0, r0, lr, lsl #1
    3190:	15000006 	strne	r0, [r0, #-6]
    3194:	00008e58 	andeq	r8, r0, r8, asr lr
    3198:	00000667 	andeq	r0, r0, r7, ror #12
    319c:	0000061a 	andeq	r0, r0, sl, lsl r6
    31a0:	02530116 	subseq	r0, r3, #-2147483643	; 0x80000005
    31a4:	0116b908 	tsteq	r6, r8, lsl #18
    31a8:	0c030552 	cfstr32eq	mvfx0, [r3], {82}	; 0x52
    31ac:	1600009c 			; <UNDEFINED> instruction: 0x1600009c
    31b0:	03055101 	movweq	r5, #20737	; 0x5101
    31b4:	00009c2c 	andeq	r9, r0, ip, lsr #24
    31b8:	05500116 	ldrbeq	r0, [r0, #-278]	; 0x116
    31bc:	009cc003 	addseq	ip, ip, r3
    31c0:	5c140000 	ldcpl	0, cr0, [r4], {-0}
    31c4:	7d00008e 	stcvc	0, cr0, [r0, #-568]	; 0xfffffdc8
    31c8:	00000006 	andeq	r0, r0, r6
    31cc:	007a1800 	rsbseq	r1, sl, r0, lsl #16
    31d0:	06350000 	ldrteq	r0, [r5], -r0
    31d4:	6b190000 	blvs	6431dc <__bss_end__+0x6390d4>
    31d8:	09000000 	stmdbeq	r0, {}	; <UNPREDICTABLE>
    31dc:	06250600 	strteq	r0, [r5], -r0, lsl #12
    31e0:	7a180000 	bvc	6031e8 <__bss_end__+0x5f90e0>
    31e4:	4a000000 	bmi	31ec <_start-0x4e14>
    31e8:	19000006 	stmdbne	r0, {r1, r2}
    31ec:	0000006b 	andeq	r0, r0, fp, rrx
    31f0:	6e1f007f 	mrcvs	0, 0, r0, cr15, cr15, {3}
    31f4:	03000008 	movweq	r0, #8
    31f8:	00038b1d 	andeq	r8, r3, sp, lsl fp
    31fc:	0d5f1f00 	ldcleq	15, cr1, [pc, #-0]	; 3204 <_start-0x4dfc>
    3200:	22030000 	andcs	r0, r3, #0
    3204:	000003a0 	andeq	r0, r0, r0, lsr #7
    3208:	0001b920 	andeq	fp, r1, r0, lsr #18
    320c:	211e0300 	tstcs	lr, r0, lsl #6
    3210:	00000cb9 			; <UNDEFINED> instruction: 0x00000cb9
    3214:	00252903 	eoreq	r2, r5, r3, lsl #18
    3218:	067d0000 	ldrbteq	r0, [sp], -r0
    321c:	811c0000 	tsthi	ip, r0
    3220:	22000000 	andcs	r0, r0, #0
    3224:	05c62000 	strbeq	r2, [r6]
    3228:	66030000 	strvs	r0, [r3], -r0
    322c:	0000ff00 	andeq	pc, r0, r0, lsl #30
    3230:	92000400 	andls	r0, r0, #0, 8
    3234:	0400000a 	streq	r0, [r0], #-10
    3238:	000c5f01 	andeq	r5, ip, r1, lsl #30
    323c:	0dc90100 	stfeqe	f0, [r9]
    3240:	0cca0000 	stcleq	0, cr0, [sl], {0}
    3244:	8ec40000 	cdphi	0, 12, cr0, cr4, cr0, {0}
    3248:	00280000 	eoreq	r0, r8, r0
    324c:	07aa0000 	streq	r0, [sl, r0]!
    3250:	04020000 	streq	r0, [r2], #-0
    3254:	746e6905 	strbtvc	r6, [lr], #-2309	; 0x905
    3258:	07040300 	streq	r0, [r4, -r0, lsl #6]
    325c:	00000084 	andeq	r0, r0, r4, lsl #1
    3260:	5e060103 	adfpls	f0, f6, f3
    3264:	03000003 	movweq	r0, #3
    3268:	03e70502 	mvneq	r0, #8388608	; 0x800000
    326c:	04030000 	streq	r0, [r3], #-0
    3270:	0000c505 	andeq	ip, r0, r5, lsl #10
    3274:	05080300 	streq	r0, [r8, #-768]	; 0x300
    3278:	000000c0 	andeq	r0, r0, r0, asr #1
    327c:	5c080103 	stfpls	f0, [r8], {3}
    3280:	03000003 	movweq	r0, #3
    3284:	02400702 	subeq	r0, r0, #524288	; 0x80000
    3288:	04030000 	streq	r0, [r3], #-0
    328c:	00007f07 	andeq	r7, r0, r7, lsl #30
    3290:	07080300 	streq	r0, [r8, -r0, lsl #6]
    3294:	0000007a 	andeq	r0, r0, sl, ror r0
    3298:	cb070403 	blgt	1c42ac <__bss_end__+0x1ba1a4>
    329c:	03000002 	movweq	r0, #2
    32a0:	03650801 	cmneq	r5, #65536	; 0x10000
    32a4:	04040000 	streq	r0, [r4], #-0
    32a8:	0000007f 	andeq	r0, r0, pc, ror r0
    32ac:	00007205 	andeq	r7, r0, r5, lsl #4
    32b0:	05c60600 	strbeq	r0, [r6, #1536]	; 0x600
    32b4:	04010000 	streq	r0, [r1], #-0
    32b8:	00008ec4 	andeq	r8, r0, r4, asr #29
    32bc:	00000028 	andeq	r0, r0, r8, lsr #32
    32c0:	00ca9c01 	sbceq	r9, sl, r1, lsl #24
    32c4:	d8070000 	stmdale	r7, {}	; <UNPREDICTABLE>
    32c8:	ac00008e 	stcge	0, cr0, [r0], {142}	; 0x8e
    32cc:	08000000 	stmdaeq	r0, {}	; <UNPREDICTABLE>
    32d0:	03055001 	movweq	r5, #20481	; 0x5001
    32d4:	00009cf8 	strdeq	r9, [r0], -r8
    32d8:	8ee00900 	cdphi	9, 14, cr0, cr0, cr0, {0}
    32dc:	00ea0000 	rsceq	r0, sl, r0
    32e0:	00c00000 	sbceq	r0, r0, r0
    32e4:	01080000 	mrseq	r0, (UNDEF: 8)
    32e8:	64080250 	strvs	r0, [r8], #-592	; 0x250
    32ec:	8ee40a00 	vfmahi.f32	s1, s8, s0
    32f0:	00fb0000 	rscseq	r0, fp, r0
    32f4:	0b000000 	bleq	32fc <_start-0x4d04>
    32f8:	00000025 	andeq	r0, r0, r5, lsr #32
    32fc:	000000d9 	ldrdeq	r0, [r0], -r9
    3300:	0000790c 	andeq	r7, r0, ip, lsl #18
    3304:	5f0d0000 	svcpl	0x000d0000
    3308:	0200000d 	andeq	r0, r0, #13
    330c:	0000e422 	andeq	lr, r0, r2, lsr #8
    3310:	ca040400 	bgt	104318 <__bss_end__+0xfa210>
    3314:	0e000000 	cdpeq	0, 0, cr0, cr0, cr0, {0}
    3318:	000004a3 	andeq	r0, r0, r3, lsr #9
    331c:	00fb5002 	rscseq	r5, fp, r2
    3320:	2c0c0000 	stccs	0, cr0, [ip], {-0}
    3324:	00000000 	andeq	r0, r0, r0
    3328:	000dbe0f 	andeq	fp, sp, pc, lsl #28
    332c:	00630200 	rsbeq	r0, r3, r0, lsl #4
    3330:	000000ff 	strdeq	r0, [r0], -pc	; <UNPREDICTABLE>
    3334:	0b5c0004 	bleq	170334c <__bss_end__+0x16f9244>
    3338:	01040000 	mrseq	r0, (UNDEF: 4)
    333c:	00000c5f 	andeq	r0, r0, pc, asr ip
    3340:	000de301 	andeq	lr, sp, r1, lsl #6
    3344:	000cca00 	andeq	ip, ip, r0, lsl #20
    3348:	008eec00 	addeq	lr, lr, r0, lsl #24
    334c:	00003400 	andeq	r3, r0, r0, lsl #8
    3350:	00084100 	andeq	r4, r8, r0, lsl #2
    3354:	05040200 	streq	r0, [r4, #-512]	; 0x200
    3358:	00746e69 	rsbseq	r6, r4, r9, ror #28
    335c:	84070403 	strhi	r0, [r7], #-1027	; 0x403
    3360:	03000000 	movweq	r0, #0
    3364:	035e0601 	cmpeq	lr, #1048576	; 0x100000
    3368:	02030000 	andeq	r0, r3, #0
    336c:	0003e705 	andeq	lr, r3, r5, lsl #14
    3370:	05040300 	streq	r0, [r4, #-768]	; 0x300
    3374:	000000c5 	andeq	r0, r0, r5, asr #1
    3378:	c0050803 	andgt	r0, r5, r3, lsl #16
    337c:	03000000 	movweq	r0, #0
    3380:	035c0801 	cmpeq	ip, #65536	; 0x10000
    3384:	02030000 	andeq	r0, r3, #0
    3388:	00024007 	andeq	r4, r2, r7
    338c:	07040300 	streq	r0, [r4, -r0, lsl #6]
    3390:	0000007f 	andeq	r0, r0, pc, ror r0
    3394:	7a070803 	bvc	1c53a8 <__bss_end__+0x1bb2a0>
    3398:	03000000 	movweq	r0, #0
    339c:	02cb0704 	sbceq	r0, fp, #4, 14	; 0x100000
    33a0:	01030000 	mrseq	r0, (UNDEF: 3)
    33a4:	00036508 	andeq	r6, r3, r8, lsl #10
    33a8:	0e190400 	cfmulseq	mvf0, mvf9, mvf0
    33ac:	0d010000 	stceq	0, cr0, [r1, #-0]
    33b0:	00008eec 	andeq	r8, r0, ip, ror #29
    33b4:	00000034 	andeq	r0, r0, r4, lsr r0
    33b8:	00d89c01 	sbcseq	r9, r8, r1, lsl #24
    33bc:	f7050000 			; <UNDEFINED> instruction: 0xf7050000
    33c0:	0100000d 	tsteq	r0, sp
    33c4:	0000250e 	andeq	r2, r0, lr, lsl #10
    33c8:	0e050500 	cfsh32eq	mvfx0, mvfx5, #0
    33cc:	0e010000 	cdpeq	0, 0, cr0, cr1, cr0, {0}
    33d0:	00000025 	andeq	r0, r0, r5, lsr #32
    33d4:	00006806 	andeq	r6, r0, r6, lsl #16
    33d8:	070f0100 	streq	r0, [pc, -r0, lsl #2]
    33dc:	00737362 	rsbseq	r7, r3, r2, ror #6
    33e0:	00d81101 	sbcseq	r1, r8, r1, lsl #2
    33e4:	0dbe0000 	ldceq	0, cr0, [lr]
    33e8:	11080000 	mrsne	r0, (UNDEF: 8)
    33ec:	0100000e 	tsteq	r0, lr
    33f0:	0000d812 	andeq	sp, r0, r2, lsl r8
    33f4:	8f140900 	svchi	0x00140900
    33f8:	00f40000 	rscseq	r0, r4, r0
    33fc:	18090000 	stmdane	r9, {}	; <UNPREDICTABLE>
    3400:	fb00008f 	blx	3646 <_start-0x49ba>
    3404:	00000000 	andeq	r0, r0, r0
    3408:	0025040a 	eoreq	r0, r5, sl, lsl #8
    340c:	f7050000 			; <UNDEFINED> instruction: 0xf7050000
    3410:	0100000d 	tsteq	r0, sp
    3414:	0000250e 	andeq	r2, r0, lr, lsl #10
    3418:	0e050500 	cfsh32eq	mvfx0, mvfx5, #0
    341c:	0e010000 	cdpeq	0, 0, cr0, cr1, cr0, {0}
    3420:	00000025 	andeq	r0, r0, r5, lsr #32
    3424:	00006806 	andeq	r6, r0, r6, lsl #16
    3428:	06d80200 	ldrbeq	r0, [r8], r0, lsl #4
    342c:	00000dbe 			; <UNDEFINED> instruction: 0x00000dbe
    3430:	ad006302 	stcge	3, cr6, [r0, #-8]
    3434:	04000001 	streq	r0, [r0], #-1
    3438:	000bf000 	andeq	pc, fp, r0
    343c:	5f010400 	svcpl	0x00010400
    3440:	0100000c 	tsteq	r0, ip
    3444:	00000e3b 	andeq	r0, r0, fp, lsr lr
    3448:	00000cca 	andeq	r0, r0, sl, asr #25
    344c:	00000018 	andeq	r0, r0, r8, lsl r0
    3450:	00000000 	andeq	r0, r0, r0
    3454:	000008df 	ldrdeq	r0, [r0], -pc	; <UNPREDICTABLE>
    3458:	69050402 	stmdbvs	r5, {r1, sl}
    345c:	0300746e 	movweq	r7, #1134	; 0x46e
    3460:	00840704 	addeq	r0, r4, r4, lsl #14
    3464:	01030000 	mrseq	r0, (UNDEF: 3)
    3468:	00035e06 	andeq	r5, r3, r6, lsl #28
    346c:	05020300 	streq	r0, [r2, #-768]	; 0x300
    3470:	000003e7 	andeq	r0, r0, r7, ror #7
    3474:	c5050403 	strgt	r0, [r5, #-1027]	; 0x403
    3478:	03000000 	movweq	r0, #0
    347c:	00c00508 	sbceq	r0, r0, r8, lsl #10
    3480:	01030000 	mrseq	r0, (UNDEF: 3)
    3484:	00035c08 	andeq	r5, r3, r8, lsl #24
    3488:	07020300 	streq	r0, [r2, -r0, lsl #6]
    348c:	00000240 	andeq	r0, r0, r0, asr #4
    3490:	7f070403 	svcvc	0x00070403
    3494:	03000000 	movweq	r0, #0
    3498:	007a0708 	rsbseq	r0, sl, r8, lsl #14
    349c:	04030000 	streq	r0, [r3], #-0
    34a0:	0002cb07 	andeq	ip, r2, r7, lsl #22
    34a4:	08010300 	stmdaeq	r1, {r8, r9}
    34a8:	00000365 	andeq	r0, r0, r5, ror #6
    34ac:	000e2104 	andeq	r2, lr, r4, lsl #2
    34b0:	250e0100 	strcs	r0, [lr, #-256]	; 0x100
    34b4:	20000000 	andcs	r0, r0, r0
    34b8:	1800008f 	stmdane	r0, {r0, r1, r2, r3, r7}
    34bc:	01000000 	mrseq	r0, (UNDEF: 0)
    34c0:	0000a29c 	muleq	r0, ip, r2
    34c4:	0e8d0500 	cdpeq	5, 8, cr0, cr13, cr0, {0}
    34c8:	0f010000 	svceq	0x00010000
    34cc:	0000002c 	andeq	r0, r0, ip, lsr #32
    34d0:	00000dde 	ldrdeq	r0, [r0], -lr
    34d4:	0e700600 	cdpeq	6, 7, cr0, cr0, cr0, {0}
    34d8:	17010000 	strne	r0, [r1, -r0]
    34dc:	00008f38 	andeq	r8, r0, r8, lsr pc
    34e0:	00000014 	andeq	r0, r0, r4, lsl r0
    34e4:	00c79c01 	sbceq	r9, r7, r1, lsl #24
    34e8:	8d050000 	stchi	0, cr0, [r5, #-0]
    34ec:	0100000e 	tsteq	r0, lr
    34f0:	00002c18 	andeq	r2, r0, r8, lsl ip
    34f4:	000dfd00 	andeq	pc, sp, r0, lsl #26
    34f8:	be060000 	cdplt	0, 0, cr0, cr6, cr0, {0}
    34fc:	0100000d 	tsteq	r0, sp
    3500:	008f4c1f 	addeq	r4, pc, pc, lsl ip	; <UNPREDICTABLE>
    3504:	00004800 	andeq	r4, r0, r0, lsl #16
    3508:	779c0100 	ldrvc	r0, [ip, r0, lsl #2]
    350c:	07000001 	streq	r0, [r0, -r1]
    3510:	00000e85 	andeq	r0, r0, r5, lsl #29
    3514:	01772a01 	cmneq	r7, r1, lsl #20
    3518:	001c0000 	andseq	r0, ip, r0
    351c:	68072010 	stmdavs	r7, {r4, sp}
    3520:	0100000e 	tsteq	r0, lr
    3524:	0001772b 	andeq	r7, r1, fp, lsr #14
    3528:	10002400 	andne	r2, r0, r0, lsl #8
    352c:	0e2f0720 	cdpeq	7, 2, cr0, cr15, cr0, {1}
    3530:	2c010000 	stccs	0, cr0, [r1], {-0}
    3534:	00000177 	andeq	r0, r0, r7, ror r1
    3538:	5a000000 	bpl	3540 <_start-0x4ac0>
    353c:	000e4f08 	andeq	r4, lr, r8, lsl #30
    3540:	772d0100 	strvc	r0, [sp, -r0, lsl #2]!
    3544:	20000001 	andcs	r0, r0, r1
    3548:	008f5409 	addeq	r5, pc, r9, lsl #8
    354c:	00007900 	andeq	r7, r0, r0, lsl #18
    3550:	8f600900 	svchi	0x00600900
    3554:	00a20000 	adceq	r0, r2, r0
    3558:	680a0000 	stmdavs	sl, {}	; <UNPREDICTABLE>
    355c:	8d00008f 	stchi	0, cr0, [r0, #-572]	; 0xfffffdc4
    3560:	3a000001 	bcc	356c <_start-0x4a94>
    3564:	0b000001 	bleq	3570 <_start-0x4a90>
    3568:	4e015001 	cdpmi	0, 0, cr5, cr1, cr1, {0}
    356c:	8f740a00 	svchi	0x00740a00
    3570:	019e0000 	orrseq	r0, lr, r0
    3574:	015a0000 	cmpeq	sl, r0
    3578:	010b0000 	mrseq	r0, (UNDEF: 11)
    357c:	010c0551 	tsteq	ip, r1, asr r5
    3580:	0b5a0000 	bleq	1683588 <__bss_end__+0x1679480>
    3584:	0c055001 	stceq	0, cr5, [r5], {1}
    3588:	20100024 	andscs	r0, r0, r4, lsr #32
    358c:	8f800c00 	svchi	0x00800c00
    3590:	019e0000 	orrseq	r0, lr, r0
    3594:	010b0000 	mrseq	r0, (UNDEF: 11)
    3598:	200c0551 	andcs	r0, ip, r1, asr r5
    359c:	0b5a0000 	bleq	16835a4 <__bss_end__+0x167949c>
    35a0:	0c055001 	stceq	0, cr5, [r5], {1}
    35a4:	2010001c 	andscs	r0, r0, ip, lsl r0
    35a8:	250d0000 	strcs	r0, [sp, #-0]
    35ac:	08000000 	stmdaeq	r0, {}	; <UNPREDICTABLE>
    35b0:	00000e24 	andeq	r0, r0, r4, lsr #28
    35b4:	01880d01 	orreq	r0, r8, r1, lsl #26
    35b8:	0d100000 	ldceq	0, cr0, [r0, #-0]
    35bc:	0000002c 	andeq	r0, r0, ip, lsr #32
    35c0:	0004a30e 	andeq	sl, r4, lr, lsl #6
    35c4:	9e500200 	cdpls	2, 5, cr0, cr0, cr0, {0}
    35c8:	0f000001 	svceq	0x00000001
    35cc:	0000002c 	andeq	r0, r0, ip, lsr #32
    35d0:	0e7f1000 	cdpeq	0, 7, cr1, cr15, cr0, {0}
    35d4:	9c020000 	stcls	0, cr0, [r2], {-0}
    35d8:	00002c0f 	andeq	r2, r0, pc, lsl #24
    35dc:	002c0f00 	eoreq	r0, ip, r0, lsl #30
    35e0:	00000000 	andeq	r0, r0, r0
    35e4:	000001d8 	ldrdeq	r0, [r0], -r8
    35e8:	0cde0004 	ldcleq	0, cr0, [lr], {4}
    35ec:	01040000 	mrseq	r0, (UNDEF: 4)
    35f0:	00000c5f 	andeq	r0, r0, pc, asr ip
    35f4:	000eaf01 	andeq	sl, lr, r1, lsl #30
    35f8:	000cca00 	andeq	ip, ip, r0, lsl #20
    35fc:	008f9400 	addeq	r9, pc, r0, lsl #8
    3600:	00008800 	andeq	r8, r0, r0, lsl #16
    3604:	00097c00 	andeq	r7, r9, r0, lsl #24
    3608:	05040200 	streq	r0, [r4, #-512]	; 0x200
    360c:	00746e69 	rsbseq	r6, r4, r9, ror #28
    3610:	84070403 	strhi	r0, [r7], #-1027	; 0x403
    3614:	03000000 	movweq	r0, #0
    3618:	035e0601 	cmpeq	lr, #1048576	; 0x100000
    361c:	02030000 	andeq	r0, r3, #0
    3620:	0003e705 	andeq	lr, r3, r5, lsl #14
    3624:	05040300 	streq	r0, [r4, #-768]	; 0x300
    3628:	000000c5 	andeq	r0, r0, r5, asr #1
    362c:	c0050803 	andgt	r0, r5, r3, lsl #16
    3630:	03000000 	movweq	r0, #0
    3634:	035c0801 	cmpeq	ip, #65536	; 0x10000
    3638:	02030000 	andeq	r0, r3, #0
    363c:	00024007 	andeq	r4, r2, r7
    3640:	07040300 	streq	r0, [r4, -r0, lsl #6]
    3644:	0000007f 	andeq	r0, r0, pc, ror r0
    3648:	7a070803 	bvc	1c565c <__bss_end__+0x1bb554>
    364c:	03000000 	movweq	r0, #0
    3650:	02cb0704 	sbceq	r0, fp, #4, 14	; 0x100000
    3654:	01030000 	mrseq	r0, (UNDEF: 3)
    3658:	00036508 	andeq	r6, r3, r8, lsl #10
    365c:	0ece0400 	cdpeq	4, 12, cr0, cr14, cr0, {0}
    3660:	05010000 	streq	r0, [r1, #-0]
    3664:	00008f94 	muleq	r0, r4, pc	; <UNPREDICTABLE>
    3668:	0000001c 	andeq	r0, r0, ip, lsl r0
    366c:	009e9c01 	addseq	r9, lr, r1, lsl #24
    3670:	c8050000 	stmdagt	r5, {}	; <UNPREDICTABLE>
    3674:	0100000e 	tsteq	r0, lr
    3678:	00002c05 	andeq	r2, r0, r5, lsl #24
    367c:	000e2700 	andeq	r2, lr, r0, lsl #14
    3680:	92060000 	andls	r0, r6, #0
    3684:	0100000e 	tsteq	r0, lr
    3688:	00002c11 	andeq	r2, r0, r1, lsl ip
    368c:	008fb000 	addeq	fp, pc, r0
    3690:	00001400 	andeq	r1, r0, r0, lsl #8
    3694:	cb9c0100 	blgt	fe703a9c <__bss_end__+0xfe6f9994>
    3698:	07000000 	streq	r0, [r0, -r0]
    369c:	00008fbc 			; <UNDEFINED> instruction: 0x00008fbc
    36a0:	000001ca 	andeq	r0, r0, sl, asr #3
    36a4:	05500108 	ldrbeq	r0, [r0, #-264]	; 0x108
    36a8:	0030040c 	eorseq	r0, r0, ip, lsl #8
    36ac:	06000020 	streq	r0, [r0], -r0, lsr #32
    36b0:	00000ee4 	andeq	r0, r0, r4, ror #29
    36b4:	002c1601 	eoreq	r1, ip, r1, lsl #12
    36b8:	8fc40000 	svchi	0x00c40000
    36bc:	000c0000 	andeq	r0, ip, r0
    36c0:	9c010000 	stcls	0, cr0, [r1], {-0}
    36c4:	000000f9 	strdeq	r0, [r0], -r9
    36c8:	01007509 	tsteq	r0, r9, lsl #10
    36cc:	00002c1a 	andeq	r2, r0, sl, lsl ip
    36d0:	0a500100 	beq	1403ad8 <__bss_end__+0x13f99d0>
    36d4:	00008fcc 	andeq	r8, r0, ip, asr #31
    36d8:	0000009e 	muleq	r0, lr, r0
    36dc:	0edb0400 	cdpeq	4, 13, cr0, cr11, cr0, {0}
    36e0:	1f010000 	svcne	0x00010000
    36e4:	00008fd0 	ldrdeq	r8, [r0], -r0
    36e8:	00000024 	andeq	r0, r0, r4, lsr #32
    36ec:	01579c01 	cmpeq	r7, r1, lsl #24
    36f0:	750b0000 	strvc	r0, [fp, #-0]
    36f4:	1f010073 	svcne	0x00010073
    36f8:	0000002c 	andeq	r0, r0, ip, lsr #32
    36fc:	00000e5b 	andeq	r0, r0, fp, asr lr
    3700:	00627209 	rsbeq	r7, r2, r9, lsl #4
    3704:	002c2001 	eoreq	r2, ip, r1
    3708:	54010000 	strpl	r0, [r1], #-0
    370c:	008fe00c 	addeq	lr, pc, ip
    3710:	00001000 	andeq	r1, r0, r0
    3714:	00014d00 	andeq	r4, r1, r0, lsl #26
    3718:	61720d00 	cmnvs	r2, r0, lsl #26
    371c:	2c220100 	stfcss	f0, [r2], #-0
    3720:	79000000 	stmdbvc	r0, {}	; <UNPREDICTABLE>
    3724:	0a00000e 	beq	3764 <_start-0x489c>
    3728:	00008fe4 	andeq	r8, r0, r4, ror #31
    372c:	000000cb 	andeq	r0, r0, fp, asr #1
    3730:	8fdc0a00 	svchi	0x00dc0a00
    3734:	00cb0000 	sbceq	r0, fp, r0
    3738:	04000000 	streq	r0, [r0], #-0
    373c:	000004a3 	andeq	r0, r0, r3, lsr #9
    3740:	8ff42801 	svchi	0x00f42801
    3744:	00140000 	andseq	r0, r4, r0
    3748:	9c010000 	stcls	0, cr0, [r1], {-0}
    374c:	00000190 	muleq	r0, r0, r1
    3750:	00736d0b 	rsbseq	r6, r3, fp, lsl #26
    3754:	002c2801 	eoreq	r2, ip, r1, lsl #16
    3758:	0e8c0000 	cdpeq	0, 8, cr0, cr12, cr0, {0}
    375c:	04070000 	streq	r0, [r7], #-0
    3760:	f9000090 			; <UNDEFINED> instruction: 0xf9000090
    3764:	08000000 	stmdaeq	r0, {}	; <UNPREDICTABLE>
    3768:	f3075001 	vhadd.u8	d5, d7, d1
    376c:	e80a5001 	stmda	sl, {r0, ip, lr}
    3770:	00001e03 	andeq	r1, r0, r3, lsl #28
    3774:	000ea504 	andeq	sl, lr, r4, lsl #10
    3778:	082b0100 	stmdaeq	fp!, {r8}
    377c:	14000090 	strne	r0, [r0], #-144	; 0x90
    3780:	01000000 	mrseq	r0, (UNDEF: 0)
    3784:	0001ca9c 	muleq	r1, ip, sl
    3788:	65730b00 	ldrbvs	r0, [r3, #-2816]!	; 0xb00
    378c:	2b010063 	blcs	43920 <__bss_end__+0x39818>
    3790:	0000002c 	andeq	r0, r0, ip, lsr #32
    3794:	00000ead 	andeq	r0, r0, sp, lsr #29
    3798:	00901807 	addseq	r1, r0, r7, lsl #16
    379c:	00015700 	andeq	r5, r1, r0, lsl #14
    37a0:	50010800 	andpl	r0, r1, r0, lsl #16
    37a4:	5001f307 	andpl	pc, r1, r7, lsl #6
    37a8:	1e03e80a 	cdpne	8, 0, cr14, cr3, cr10, {0}
    37ac:	c20e0000 	andgt	r0, lr, #0
    37b0:	0200000e 	andeq	r0, r0, #14
    37b4:	00002ca8 	andeq	r2, r0, r8, lsr #25
    37b8:	002c0f00 	eoreq	r0, ip, r0, lsl #30
    37bc:	00000000 	andeq	r0, r0, r0
    37c0:	00000882 	andeq	r0, r0, r2, lsl #17
    37c4:	0dc10004 	stcleq	0, cr0, [r1, #16]
    37c8:	01040000 	mrseq	r0, (UNDEF: 4)
    37cc:	00000c5f 	andeq	r0, r0, pc, asr ip
    37d0:	000f3d01 	andeq	r3, pc, r1, lsl #26
    37d4:	000cca00 	andeq	ip, ip, r0, lsl #20
    37d8:	00901c00 	addseq	r1, r0, r0, lsl #24
    37dc:	0005a000 	andeq	sl, r5, r0
    37e0:	000a2300 	andeq	r2, sl, r0, lsl #6
    37e4:	07080200 	streq	r0, [r8, -r0, lsl #4]
    37e8:	0000007a 	andeq	r0, r0, sl, ror r0
    37ec:	84070402 	strhi	r0, [r7], #-1026	; 0x402
    37f0:	02000000 	andeq	r0, r0, #0
    37f4:	035e0601 	cmpeq	lr, #1048576	; 0x100000
    37f8:	02020000 	andeq	r0, r2, #0
    37fc:	0003e705 	andeq	lr, r3, r5, lsl #14
    3800:	05040200 	streq	r0, [r4, #-512]	; 0x200
    3804:	000000c5 	andeq	r0, r0, r5, asr #1
    3808:	c0050802 	andgt	r0, r5, r2, lsl #16
    380c:	02000000 	andeq	r0, r0, #0
    3810:	035c0801 	cmpeq	ip, #65536	; 0x10000
    3814:	02020000 	andeq	r0, r2, #0
    3818:	00024007 	andeq	r4, r2, r7
    381c:	07040200 	streq	r0, [r4, -r0, lsl #4]
    3820:	0000007f 	andeq	r0, r0, pc, ror r0
    3824:	69050403 	stmdbvs	r5, {r0, r1, sl}
    3828:	0200746e 	andeq	r7, r0, #1845493760	; 0x6e000000
    382c:	02cb0704 	sbceq	r0, fp, #4, 14	; 0x100000
    3830:	01020000 	mrseq	r0, (UNDEF: 2)
    3834:	00036508 	andeq	r6, r3, r8, lsl #10
    3838:	02010400 	andeq	r0, r1, #0, 8
    383c:	0000b20c 	andeq	fp, r0, ip, lsl #4
    3840:	06e70500 	strbteq	r0, [r7], r0, lsl #10
    3844:	05000000 	streq	r0, [r0, #-0]
    3848:	00000b60 	andeq	r0, r0, r0, ror #22
    384c:	0ba20501 	bleq	fe884c58 <__bss_end__+0xfe87ab50>
    3850:	05040000 	streq	r0, [r4, #-0]
    3854:	00000736 	andeq	r0, r0, r6, lsr r7
    3858:	091c0505 	ldmdbeq	ip, {r0, r2, r8, sl}
    385c:	05060000 	streq	r0, [r6, #-0]
    3860:	00000bbf 			; <UNDEFINED> instruction: 0x00000bbf
    3864:	0bce0507 	bleq	ff384c88 <__bss_end__+0xff37ab80>
    3868:	05030000 	streq	r0, [r3, #-0]
    386c:	00000bdd 	ldrdeq	r0, [r0], -sp
    3870:	9c060002 	stcls	0, cr0, [r6], {2}
    3874:	02000010 	andeq	r0, r0, #16
    3878:	00007915 	andeq	r7, r0, r5, lsl r9
    387c:	10760700 	rsbsne	r0, r6, r0, lsl #14
    3880:	3f010000 	svccc	0x00010000
    3884:	0000901c 	andeq	r9, r0, ip, lsl r0
    3888:	000000d4 	ldrdeq	r0, [r0], -r4
    388c:	01339c01 	teqeq	r3, r1, lsl #24
    3890:	70080000 	andvc	r0, r8, r0
    3894:	01006e69 	tsteq	r0, r9, ror #28
    3898:	00002c3f 	andeq	r2, r0, pc, lsr ip
    389c:	000ece00 	andeq	ip, lr, r0, lsl #28
    38a0:	0f790900 	svceq	0x00790900
    38a4:	47010000 	strmi	r0, [r1, -r0]
    38a8:	00000133 	andeq	r0, r0, r3, lsr r1
    38ac:	00000eec 	andeq	r0, r0, ip, ror #29
    38b0:	0010a809 	andseq	sl, r0, r9, lsl #16
    38b4:	2c490100 	stfcse	f0, [r9], {-0}
    38b8:	41000000 	mrsmi	r0, (UNDEF: 0)
    38bc:	0900000f 	stmdbeq	r0, {r0, r1, r2, r3}
    38c0:	00001016 	andeq	r1, r0, r6, lsl r0
    38c4:	002c5701 	eoreq	r5, ip, r1, lsl #14
    38c8:	110d0000 	mrsne	r0, (UNDEF: 13)
    38cc:	b00a0000 	andlt	r0, sl, r0
    38d0:	41000090 	swpmi	r0, r0, [r0]	; <UNPREDICTABLE>
    38d4:	22000008 	andcs	r0, r0, #8
    38d8:	0b000001 	bleq	38e4 <_start-0x471c>
    38dc:	75025001 	strvc	r5, [r2, #-1]
    38e0:	e40c0000 	str	r0, [ip], #-0
    38e4:	62000090 	andvs	r0, r0, #144	; 0x90
    38e8:	0b000008 	bleq	3910 <_start-0x46f0>
    38ec:	75025001 	strvc	r5, [r2, #-1]
    38f0:	0d000000 	stceq	0, cr0, [r0, #-0]
    38f4:	00013904 	andeq	r3, r1, r4, lsl #18
    38f8:	002c0e00 	eoreq	r0, ip, r0, lsl #28
    38fc:	5c070000 	stcpl	0, cr0, [r7], {-0}
    3900:	01000010 	tsteq	r0, r0, lsl r0
    3904:	0090f060 	addseq	pc, r0, r0, rrx
    3908:	00003800 	andeq	r3, r0, r0, lsl #16
    390c:	969c0100 	ldrls	r0, [ip], r0, lsl #2
    3910:	08000001 	stmdaeq	r0, {r0}
    3914:	006e6970 	rsbeq	r6, lr, r0, ror r9
    3918:	002c6001 	eoreq	r6, ip, r1
    391c:	113d0000 	teqne	sp, r0
    3920:	79090000 	stmdbvc	r9, {}	; <UNPREDICTABLE>
    3924:	0100000f 	tsteq	r0, pc
    3928:	00013367 	andeq	r3, r1, r7, ror #6
    392c:	00115e00 	andseq	r5, r1, r0, lsl #28
    3930:	10160900 	andsne	r0, r6, r0, lsl #18
    3934:	68010000 	stmdavs	r1, {}	; <UNPREDICTABLE>
    3938:	0000002c 	andeq	r0, r0, ip, lsr #32
    393c:	00001194 	muleq	r0, r4, r1
    3940:	0091200c 	addseq	r2, r1, ip
    3944:	00086200 	andeq	r6, r8, r0, lsl #4
    3948:	51010b00 	tstpl	r1, r0, lsl #22
    394c:	01f33107 	mvnseq	r3, r7, lsl #2
    3950:	241a4f50 	ldrcs	r4, [sl], #-3920	; 0xf50
    3954:	30070000 	andcc	r0, r7, r0
    3958:	0100000f 	tsteq	r0, pc
    395c:	0091287b 	addseq	r2, r1, fp, ror r8
    3960:	00003800 	andeq	r3, r0, r0, lsl #16
    3964:	ee9c0100 	fmle	f0, f4, f0
    3968:	08000001 	stmdaeq	r0, {r0}
    396c:	006e6970 	rsbeq	r6, lr, r0, ror r9
    3970:	002c7b01 	eoreq	r7, ip, r1, lsl #22
    3974:	11d40000 	bicsne	r0, r4, r0
    3978:	79090000 	stmdbvc	r9, {}	; <UNPREDICTABLE>
    397c:	0100000f 	tsteq	r0, pc
    3980:	00013381 	andeq	r3, r1, r1, lsl #7
    3984:	0011f500 	andseq	pc, r1, r0, lsl #10
    3988:	10160900 	andsne	r0, r6, r0, lsl #18
    398c:	82010000 	andhi	r0, r1, #0
    3990:	0000002c 	andeq	r0, r0, ip, lsr #32
    3994:	0000122b 	andeq	r1, r0, fp, lsr #4
    3998:	0091580c 	addseq	r5, r1, ip, lsl #16
    399c:	00086200 	andeq	r6, r8, r0, lsl #4
    39a0:	51010b00 	tstpl	r1, r0, lsl #22
    39a4:	01f33107 	mvnseq	r3, r7, lsl #2
    39a8:	241a4f50 	ldrcs	r4, [sl], #-3920	; 0xf50
    39ac:	33070000 	movwcc	r0, #28672	; 0x7000
    39b0:	01000010 	tsteq	r0, r0, lsl r0
    39b4:	00916095 	umullseq	r6, r1, r5, r0
    39b8:	0000cc00 	andeq	ip, r0, r0, lsl #24
    39bc:	649c0100 	ldrvs	r0, [ip], #256	; 0x100
    39c0:	08000002 	stmdaeq	r0, {r1}
    39c4:	006e6970 	rsbeq	r6, lr, r0, ror r9
    39c8:	002c9501 	eoreq	r9, ip, r1, lsl #10
    39cc:	126b0000 	rsbne	r0, fp, #0
    39d0:	79090000 	stmdbvc	r9, {}	; <UNPREDICTABLE>
    39d4:	0100000f 	tsteq	r0, pc
    39d8:	0001339b 	muleq	r1, fp, r3
    39dc:	00128900 	andseq	r8, r2, r0, lsl #18
    39e0:	10a80900 	adcne	r0, r8, r0, lsl #18
    39e4:	9d010000 	stcls	0, cr0, [r1, #-0]
    39e8:	0000002c 	andeq	r0, r0, ip, lsr #32
    39ec:	000012de 	ldrdeq	r1, [r0], -lr
    39f0:	00101609 	andseq	r1, r0, r9, lsl #12
    39f4:	2cab0100 	stfcss	f0, [fp]
    39f8:	aa000000 	bge	3a00 <_start-0x4600>
    39fc:	0a000014 	beq	3a54 <_start-0x45ac>
    3a00:	000091f4 	strdeq	r9, [r0], -r4
    3a04:	00000841 	andeq	r0, r0, r1, asr #16
    3a08:	00000253 	andeq	r0, r0, r3, asr r2
    3a0c:	0250010b 	subseq	r0, r0, #-1073741822	; 0xc0000002
    3a10:	0c000075 	stceq	0, cr0, [r0], {117}	; 0x75
    3a14:	00009220 	andeq	r9, r0, r0, lsr #4
    3a18:	00000862 	andeq	r0, r0, r2, ror #16
    3a1c:	0250010b 	subseq	r0, r0, #-1073741822	; 0xc0000002
    3a20:	00000075 	andeq	r0, r0, r5, ror r0
    3a24:	000fbc0f 	andeq	fp, pc, pc, lsl #24
    3a28:	64b20100 	ldrtvs	r0, [r2], #256	; 0x100
    3a2c:	2c000000 	stccs	0, cr0, [r0], {-0}
    3a30:	4c000092 	stcmi	0, cr0, [r0], {146}	; 0x92
    3a34:	01000000 	mrseq	r0, (UNDEF: 0)
    3a38:	0002ac9c 	muleq	r2, ip, ip
    3a3c:	69700800 	ldmdbvs	r0!, {fp}^
    3a40:	b201006e 	andlt	r0, r1, #110	; 0x6e
    3a44:	0000002c 	andeq	r0, r0, ip, lsr #32
    3a48:	000014c8 	andeq	r1, r0, r8, asr #9
    3a4c:	01007610 	tsteq	r0, r0, lsl r6
    3a50:	00002cb8 			; <UNDEFINED> instruction: 0x00002cb8
    3a54:	00152000 	andseq	r2, r5, r0
    3a58:	924c1100 	subls	r1, ip, #0, 2
    3a5c:	08410000 	stmdaeq	r1, {}^	; <UNPREDICTABLE>
    3a60:	5c110000 	ldcpl	0, cr0, [r1], {-0}
    3a64:	41000092 	swpmi	r0, r2, [r0]	; <UNPREDICTABLE>
    3a68:	00000008 	andeq	r0, r0, r8
    3a6c:	00101e07 	andseq	r1, r0, r7, lsl #28
    3a70:	78c40100 	stmiavc	r4, {r8}^
    3a74:	24000092 	strcs	r0, [r0], #-146	; 0x92
    3a78:	01000000 	mrseq	r0, (UNDEF: 0)
    3a7c:	0002fc9c 	muleq	r2, ip, ip
    3a80:	69700800 	ldmdbvs	r0!, {fp}^
    3a84:	c401006e 	strgt	r0, [r1], #-110	; 0x6e
    3a88:	0000002c 	andeq	r0, r0, ip, lsr #32
    3a8c:	00001556 	andeq	r1, r0, r6, asr r5
    3a90:	01007608 	tsteq	r0, r8, lsl #12
    3a94:	00002cc4 	andeq	r2, r0, r4, asr #25
    3a98:	00159000 	andseq	r9, r5, r0
    3a9c:	92900a00 	addsls	r0, r0, #0, 20
    3aa0:	013e0000 	teqeq	lr, r0
    3aa4:	02f20000 	rscseq	r0, r2, #0
    3aa8:	010b0000 	mrseq	r0, (UNDEF: 11)
    3aac:	01f30350 	mvnseq	r0, r0, asr r3
    3ab0:	98110050 	ldmdals	r1, {r4, r6}
    3ab4:	96000092 			; <UNDEFINED> instruction: 0x96000092
    3ab8:	00000001 	andeq	r0, r0, r1
    3abc:	00079007 	andeq	r9, r7, r7
    3ac0:	9cd00100 	ldflse	f0, [r0], {0}
    3ac4:	d8000092 	stmdale	r0, {r1, r4, r7}
    3ac8:	01000000 	mrseq	r0, (UNDEF: 0)
    3acc:	0003819c 	muleq	r3, ip, r1
    3ad0:	69700800 	ldmdbvs	r0!, {fp}^
    3ad4:	d001006e 	andle	r0, r1, lr, rrx
    3ad8:	0000002c 	andeq	r0, r0, ip, lsr #32
    3adc:	000015ca 	andeq	r1, r0, sl, asr #11
    3ae0:	000b8f12 	andeq	r8, fp, r2, lsl pc
    3ae4:	b2d00100 	sbcslt	r0, r0, #0, 2
    3ae8:	e8000000 	stmda	r0, {}	; <UNPREDICTABLE>
    3aec:	09000015 	stmdbeq	r0, {r0, r2, r4}
    3af0:	00000f79 	andeq	r0, r0, r9, ror pc
    3af4:	0133d801 	teqeq	r3, r1, lsl #16
    3af8:	16090000 	strne	r0, [r9], -r0
    3afc:	a8090000 	stmdage	r9, {}	; <UNPREDICTABLE>
    3b00:	01000010 	tsteq	r0, r0, lsl r0
    3b04:	00002cd9 	ldrdeq	r2, [r0], -r9
    3b08:	00165e00 	andseq	r5, r6, r0, lsl #28
    3b0c:	10160900 	andsne	r0, r6, r0, lsl #18
    3b10:	e7010000 	str	r0, [r1, -r0]
    3b14:	0000002c 	andeq	r0, r0, ip, lsr #32
    3b18:	0000182a 	andeq	r1, r0, sl, lsr #16
    3b1c:	0093380a 	addseq	r3, r3, sl, lsl #16
    3b20:	00084100 	andeq	r4, r8, r0, lsl #2
    3b24:	00037000 	andeq	r7, r3, r0
    3b28:	50010b00 	andpl	r0, r1, r0, lsl #22
    3b2c:	00007602 	andeq	r7, r0, r2, lsl #12
    3b30:	0093680c 	addseq	r6, r3, ip, lsl #16
    3b34:	00086200 	andeq	r6, r8, r0, lsl #4
    3b38:	50010b00 	andpl	r0, r1, r0, lsl #22
    3b3c:	00007602 	andeq	r7, r0, r2, lsl #12
    3b40:	10420700 	subne	r0, r2, r0, lsl #14
    3b44:	f0010000 			; <UNDEFINED> instruction: 0xf0010000
    3b48:	00009374 	andeq	r9, r0, r4, ror r3
    3b4c:	00000038 	andeq	r0, r0, r8, lsr r0
    3b50:	03d99c01 	bicseq	r9, r9, #256	; 0x100
    3b54:	70080000 	andvc	r0, r8, r0
    3b58:	01006e69 	tsteq	r0, r9, ror #28
    3b5c:	00002cf0 	strdeq	r2, [r0], -r0
    3b60:	00185b00 	andseq	r5, r8, r0, lsl #22
    3b64:	0f790900 	svceq	0x00790900
    3b68:	f6010000 			; <UNDEFINED> instruction: 0xf6010000
    3b6c:	00000133 	andeq	r0, r0, r3, lsr r1
    3b70:	0000187c 	andeq	r1, r0, ip, ror r8
    3b74:	00101609 	andseq	r1, r0, r9, lsl #12
    3b78:	2cf70100 	ldfcse	f0, [r7]
    3b7c:	b2000000 	andlt	r0, r0, #0
    3b80:	0c000018 	stceq	0, cr0, [r0], {24}
    3b84:	000093a4 	andeq	r9, r0, r4, lsr #7
    3b88:	00000862 	andeq	r0, r0, r2, ror #16
    3b8c:	0751010b 	ldrbeq	r0, [r1, -fp, lsl #2]
    3b90:	5001f331 	andpl	pc, r1, r1, lsr r3	; <UNPREDICTABLE>
    3b94:	00241a4f 	eoreq	r1, r4, pc, asr #20
    3b98:	0f241300 	svceq	0x00241300
    3b9c:	1e010000 	cdpne	0, 0, cr0, cr1, cr0, {0}
    3ba0:	00006401 	andeq	r6, r0, r1, lsl #8
    3ba4:	0093ac00 	addseq	sl, r3, r0, lsl #24
    3ba8:	00002c00 	andeq	r2, r0, r0, lsl #24
    3bac:	0d9c0100 	ldfeqs	f0, [ip]
    3bb0:	14000004 	strne	r0, [r0], #-4
    3bb4:	00000f27 	andeq	r0, r0, r7, lsr #30
    3bb8:	2c011e01 	stccs	14, cr1, [r1], {1}
    3bbc:	f2000000 	vhadd.s8	d0, d0, d0
    3bc0:	11000018 	tstne	r0, r8, lsl r0
    3bc4:	000093bc 			; <UNDEFINED> instruction: 0x000093bc
    3bc8:	00000841 	andeq	r0, r0, r1, asr #16
    3bcc:	0fc61500 	svceq	0x00c61500
    3bd0:	2d010000 	stccs	0, cr0, [r1, #-0]
    3bd4:	0093d801 	addseq	sp, r3, r1, lsl #16
    3bd8:	00008400 	andeq	r8, r0, r0, lsl #8
    3bdc:	d19c0100 	orrsle	r0, ip, r0, lsl #2
    3be0:	16000004 	strne	r0, [r0], -r4
    3be4:	006e6970 	rsbeq	r6, lr, r0, ror r9
    3be8:	2c012d01 	stccs	13, cr2, [r1], {1}
    3bec:	13000000 	movwne	r0, #0
    3bf0:	17000019 	smladne	r0, r9, r0, r0
    3bf4:	00000f4b 	andeq	r0, r0, fp, asr #30
    3bf8:	2c013f01 	stccs	15, cr3, [r1], {1}
    3bfc:	3f000000 	svccc	0x00000000
    3c00:	18000019 	stmdane	r0, {r0, r3, r4}
    3c04:	000093f4 	strdeq	r9, [r0], -r4
    3c08:	0000001c 	andeq	r0, r0, ip, lsl r0
    3c0c:	00000473 	andeq	r0, r0, r3, ror r4
    3c10:	00101617 	andseq	r1, r0, r7, lsl r6
    3c14:	01360100 	teqeq	r6, r0, lsl #2
    3c18:	0000002c 	andeq	r0, r0, ip, lsr #32
    3c1c:	0000195d 	andeq	r1, r0, sp, asr r9
    3c20:	00940011 	addseq	r0, r4, r1, lsl r0
    3c24:	00084100 	andeq	r4, r8, r0, lsl #2
    3c28:	94101100 	ldrls	r1, [r0], #-256	; 0x100
    3c2c:	08620000 	stmdaeq	r2!, {}^	; <UNPREDICTABLE>
    3c30:	18000000 	stmdane	r0, {}	; <UNPREDICTABLE>
    3c34:	00009414 	andeq	r9, r0, r4, lsl r4
    3c38:	00000020 	andeq	r0, r0, r0, lsr #32
    3c3c:	000004a3 	andeq	r0, r0, r3, lsr #9
    3c40:	00101617 	andseq	r1, r0, r7, lsl r6
    3c44:	013a0100 	teqeq	sl, r0, lsl #2
    3c48:	0000002c 	andeq	r0, r0, ip, lsr #32
    3c4c:	0000197b 	andeq	r1, r0, fp, ror r9
    3c50:	00942011 	addseq	r2, r4, r1, lsl r0
    3c54:	00084100 	andeq	r4, r8, r0, lsl #2
    3c58:	94341100 	ldrtls	r1, [r4], #-256	; 0x100
    3c5c:	08620000 	stmdaeq	r2!, {}^	; <UNPREDICTABLE>
    3c60:	11000000 	mrsne	r0, (UNDEF: 0)
    3c64:	000093ec 	andeq	r9, r0, ip, ror #7
    3c68:	0000087e 	andeq	r0, r0, lr, ror r8
    3c6c:	00943811 	addseq	r3, r4, r1, lsl r8
    3c70:	00087e00 	andeq	r7, r8, r0, lsl #28
    3c74:	94441100 	strbls	r1, [r4], #-256	; 0x100
    3c78:	08410000 	stmdaeq	r1, {}^	; <UNPREDICTABLE>
    3c7c:	50110000 	andspl	r0, r1, r0
    3c80:	62000094 	andvs	r0, r0, #148	; 0x94
    3c84:	11000008 	tstne	r0, r8
    3c88:	00009454 	andeq	r9, r0, r4, asr r4
    3c8c:	0000087e 	andeq	r0, r0, lr, ror r8
    3c90:	10861500 	addne	r1, r6, r0, lsl #10
    3c94:	4a010000 	bmi	43c9c <__bss_end__+0x39b94>
    3c98:	00945c01 	addseq	r5, r4, r1, lsl #24
    3c9c:	00008400 	andeq	r8, r0, r0, lsl #8
    3ca0:	959c0100 	ldrls	r0, [ip, #256]	; 0x100
    3ca4:	16000005 	strne	r0, [r0], -r5
    3ca8:	006e6970 	rsbeq	r6, lr, r0, ror r9
    3cac:	2c014a01 	stccs	10, cr4, [r1], {1}
    3cb0:	99000000 	stmdbls	r0, {}	; <UNPREDICTABLE>
    3cb4:	17000019 	smladne	r0, r9, r0, r0
    3cb8:	00000f4b 	andeq	r0, r0, fp, asr #30
    3cbc:	2c015b01 	stccs	11, cr5, [r1], {1}
    3cc0:	c5000000 	strgt	r0, [r0, #-0]
    3cc4:	18000019 	stmdane	r0, {r0, r3, r4}
    3cc8:	00009478 	andeq	r9, r0, r8, ror r4
    3ccc:	0000001c 	andeq	r0, r0, ip, lsl r0
    3cd0:	00000537 	andeq	r0, r0, r7, lsr r5
    3cd4:	00101617 	andseq	r1, r0, r7, lsl r6
    3cd8:	01520100 	cmpeq	r2, r0, lsl #2
    3cdc:	0000002c 	andeq	r0, r0, ip, lsr #32
    3ce0:	000019e3 	andeq	r1, r0, r3, ror #19
    3ce4:	00948411 	addseq	r8, r4, r1, lsl r4
    3ce8:	00084100 	andeq	r4, r8, r0, lsl #2
    3cec:	94941100 	ldrls	r1, [r4], #256	; 0x100
    3cf0:	08620000 	stmdaeq	r2!, {}^	; <UNPREDICTABLE>
    3cf4:	18000000 	stmdane	r0, {}	; <UNPREDICTABLE>
    3cf8:	00009498 	muleq	r0, r8, r4
    3cfc:	00000020 	andeq	r0, r0, r0, lsr #32
    3d00:	00000567 	andeq	r0, r0, r7, ror #10
    3d04:	00101617 	andseq	r1, r0, r7, lsl r6
    3d08:	01560100 	cmpeq	r6, r0, lsl #2
    3d0c:	0000002c 	andeq	r0, r0, ip, lsr #32
    3d10:	00001a01 	andeq	r1, r0, r1, lsl #20
    3d14:	0094a411 	addseq	sl, r4, r1, lsl r4
    3d18:	00084100 	andeq	r4, r8, r0, lsl #2
    3d1c:	94b81100 	ldrtls	r1, [r8], #256	; 0x100
    3d20:	08620000 	stmdaeq	r2!, {}^	; <UNPREDICTABLE>
    3d24:	11000000 	mrsne	r0, (UNDEF: 0)
    3d28:	00009470 	andeq	r9, r0, r0, ror r4
    3d2c:	0000087e 	andeq	r0, r0, lr, ror r8
    3d30:	0094bc11 	addseq	fp, r4, r1, lsl ip
    3d34:	00087e00 	andeq	r7, r8, r0, lsl #28
    3d38:	94c81100 	strbls	r1, [r8], #256	; 0x100
    3d3c:	08410000 	stmdaeq	r1, {}^	; <UNPREDICTABLE>
    3d40:	d4110000 	ldrle	r0, [r1], #-0
    3d44:	62000094 	andvs	r0, r0, #148	; 0x94
    3d48:	11000008 	tstne	r0, r8
    3d4c:	000094d8 	ldrdeq	r9, [r0], -r8
    3d50:	0000087e 	andeq	r0, r0, lr, ror r8
    3d54:	0ef31300 	cdpeq	3, 15, cr1, cr3, cr0, {0}
    3d58:	65010000 	strvs	r0, [r1, #-0]
    3d5c:	00006401 	andeq	r6, r0, r1, lsl #8
    3d60:	0094e000 	addseq	lr, r4, r0
    3d64:	00008400 	andeq	r8, r0, r0, lsl #8
    3d68:	3b9c0100 	blcc	fe704170 <__bss_end__+0xfe6fa068>
    3d6c:	16000006 	strne	r0, [r0], -r6
    3d70:	006e6970 	rsbeq	r6, lr, r0, ror r9
    3d74:	2c016501 	cfstr32cs	mvfx6, [r1], {1}
    3d78:	1f000000 	svcne	0x00000000
    3d7c:	1800001a 	stmdane	r0, {r1, r3, r4}
    3d80:	000094fc 	strdeq	r9, [r0], -ip
    3d84:	00000024 	andeq	r0, r0, r4, lsr #32
    3d88:	000005ef 	andeq	r0, r0, pc, ror #11
    3d8c:	000f6217 	andeq	r6, pc, r7, lsl r2	; <UNPREDICTABLE>
    3d90:	016c0100 	cmneq	ip, r0, lsl #2
    3d94:	0000002c 	andeq	r0, r0, ip, lsr #32
    3d98:	00001a61 	andeq	r1, r0, r1, ror #20
    3d9c:	00950811 	addseq	r0, r5, r1, lsl r8
    3da0:	00084100 	andeq	r4, r8, r0, lsl #2
    3da4:	95181100 	ldrls	r1, [r8, #-256]	; 0x100
    3da8:	087e0000 	ldmdaeq	lr!, {}^	; <UNPREDICTABLE>
    3dac:	18000000 	stmdane	r0, {}	; <UNPREDICTABLE>
    3db0:	00009520 	andeq	r9, r0, r0, lsr #10
    3db4:	0000002c 	andeq	r0, r0, ip, lsr #32
    3db8:	00000628 	andeq	r0, r0, r8, lsr #12
    3dbc:	000f6217 	andeq	r6, pc, r7, lsl r2	; <UNPREDICTABLE>
    3dc0:	016f0100 	cmneq	pc, r0, lsl #2
    3dc4:	0000002c 	andeq	r0, r0, ip, lsr #32
    3dc8:	00001a7b 	andeq	r1, r0, fp, ror sl
    3dcc:	00952c11 	addseq	r2, r5, r1, lsl ip
    3dd0:	00084100 	andeq	r4, r8, r0, lsl #2
    3dd4:	95381100 	ldrls	r1, [r8, #-256]!	; 0x100
    3dd8:	087e0000 	ldmdaeq	lr!, {}^	; <UNPREDICTABLE>
    3ddc:	44110000 	ldrmi	r0, [r1], #-0
    3de0:	7e000095 	mcrvc	0, 0, r0, cr0, cr5, {4}
    3de4:	00000008 	andeq	r0, r0, r8
    3de8:	0094f411 	addseq	pc, r4, r1, lsl r4	; <UNPREDICTABLE>
    3dec:	00087e00 	andeq	r7, r8, r0, lsl #28
    3df0:	95501100 	ldrbls	r1, [r0, #-256]	; 0x100
    3df4:	087e0000 	ldmdaeq	lr!, {}^	; <UNPREDICTABLE>
    3df8:	15000000 	strne	r0, [r0, #-0]
    3dfc:	00000fe9 	andeq	r0, r0, r9, ror #31
    3e00:	64017801 	strvs	r7, [r1], #-2049	; 0x801
    3e04:	58000095 	stmdapl	r0, {r0, r2, r4, r7}
    3e08:	01000000 	mrseq	r0, (UNDEF: 0)
    3e0c:	0006a09c 	muleq	r6, ip, r0
    3e10:	69701600 	ldmdbvs	r0!, {r9, sl, ip}^
    3e14:	7801006e 	stmdavc	r1, {r1, r2, r3, r5, r6}
    3e18:	00002c01 	andeq	r2, r0, r1, lsl #24
    3e1c:	001a8e00 	andseq	r8, sl, r0, lsl #28
    3e20:	95781100 	ldrbls	r1, [r8, #-256]!	; 0x100
    3e24:	087e0000 	ldmdaeq	lr!, {}^	; <UNPREDICTABLE>
    3e28:	940a0000 	strls	r0, [sl], #-0
    3e2c:	62000095 	andvs	r0, r0, #149	; 0x95
    3e30:	80000008 	andhi	r0, r0, r8
    3e34:	0b000006 	bleq	3e54 <_start-0x41ac>
    3e38:	31045101 	tstcc	r4, r1, lsl #2
    3e3c:	00240074 	eoreq	r0, r4, r4, ror r0
    3e40:	0095b00a 	addseq	fp, r5, sl
    3e44:	00086200 	andeq	r6, r8, r0, lsl #4
    3e48:	00069600 	andeq	r9, r6, r0, lsl #12
    3e4c:	51010b00 	tstpl	r1, r0, lsl #22
    3e50:	00743104 	rsbseq	r3, r4, r4, lsl #2
    3e54:	b4110024 	ldrlt	r0, [r1], #-36	; 0x24
    3e58:	7e000095 	mcrvc	0, 0, r0, cr0, cr5, {4}
    3e5c:	00000008 	andeq	r0, r0, r8
    3e60:	000faa19 	andeq	sl, pc, r9, lsl sl	; <UNPREDICTABLE>
    3e64:	33280100 	teqcc	r8, #0, 2
    3e68:	05000001 	streq	r0, [r0, #-1]
    3e6c:	0097d803 	addseq	sp, r7, r3, lsl #16
    3e70:	10291900 	eorne	r1, r9, r0, lsl #18
    3e74:	29010000 	stmdbcs	r1, {}	; <UNPREDICTABLE>
    3e78:	00000133 	andeq	r0, r0, r3, lsr r1
    3e7c:	97d40305 	ldrbls	r0, [r4, r5, lsl #6]
    3e80:	b3190000 	tstlt	r9, #0
    3e84:	01000010 	tsteq	r0, r0, lsl r0
    3e88:	0001332a 	andeq	r3, r1, sl, lsr #6
    3e8c:	d0030500 	andle	r0, r3, r0, lsl #10
    3e90:	19000097 	stmdbne	r0, {r0, r1, r2, r4, r7}
    3e94:	00000f82 	andeq	r0, r0, r2, lsl #31
    3e98:	01332c01 	teqeq	r3, r1, lsl #24
    3e9c:	03050000 	movweq	r0, #20480	; 0x5000
    3ea0:	0000977c 	andeq	r9, r0, ip, ror r7
    3ea4:	000f8a19 	andeq	r8, pc, r9, lsl sl	; <UNPREDICTABLE>
    3ea8:	332d0100 	teqcc	sp, #0, 2
    3eac:	05000001 	streq	r0, [r0, #-1]
    3eb0:	00978003 	addseq	r8, r7, r3
    3eb4:	0f071900 	svceq	0x00071900
    3eb8:	2e010000 	cdpcs	0, 0, cr0, cr1, cr0, {0}
    3ebc:	00000133 	andeq	r0, r0, r3, lsr r1
    3ec0:	97840305 	strls	r0, [r4, r5, lsl #6]
    3ec4:	92190000 	andsls	r0, r9, #0
    3ec8:	0100000f 	tsteq	r0, pc
    3ecc:	0001332f 	andeq	r3, r1, pc, lsr #6
    3ed0:	88030500 	stmdahi	r3, {r8, sl}
    3ed4:	19000097 	stmdbne	r0, {r0, r1, r2, r4, r7}
    3ed8:	00000f9a 	muleq	r0, sl, pc	; <UNPREDICTABLE>
    3edc:	01333001 	teqeq	r3, r1
    3ee0:	03050000 	movweq	r0, #20480	; 0x5000
    3ee4:	0000978c 	andeq	r9, r0, ip, lsl #15
    3ee8:	000fa219 	andeq	sl, pc, r9, lsl r2	; <UNPREDICTABLE>
    3eec:	33310100 	teqcc	r1, #0, 2
    3ef0:	05000001 	streq	r0, [r0, #-1]
    3ef4:	00979003 	addseq	r9, r7, r3
    3ef8:	0f541900 	svceq	0x00541900
    3efc:	33010000 	movwcc	r0, #4096	; 0x1000
    3f00:	00000133 	andeq	r0, r0, r3, lsr r1
    3f04:	97940305 	ldrls	r0, [r4, r5, lsl #6]
    3f08:	5b190000 	blpl	643f10 <__bss_end__+0x639e08>
    3f0c:	0100000f 	tsteq	r0, pc
    3f10:	00013334 	andeq	r3, r1, r4, lsr r3
    3f14:	98030500 	stmdals	r3, {r8, sl}
    3f18:	19000097 	stmdbne	r0, {r0, r1, r2, r4, r7}
    3f1c:	00000f0f 	andeq	r0, r0, pc, lsl #30
    3f20:	01333601 	teqeq	r3, r1, lsl #12
    3f24:	03050000 	movweq	r0, #20480	; 0x5000
    3f28:	0000979c 	muleq	r0, ip, r7
    3f2c:	000fb519 	andeq	fp, pc, r9, lsl r5	; <UNPREDICTABLE>
    3f30:	33370100 	teqcc	r7, #0, 2
    3f34:	05000001 	streq	r0, [r0, #-1]
    3f38:	0097a003 	addseq	sl, r7, r3
    3f3c:	0f6b1900 	svceq	0x006b1900
    3f40:	39010000 	stmdbcc	r1, {}	; <UNPREDICTABLE>
    3f44:	00000133 	andeq	r0, r0, r3, lsr r1
    3f48:	97a40305 	strls	r0, [r4, r5, lsl #6]!
    3f4c:	72190000 	andsvc	r0, r9, #0
    3f50:	0100000f 	tsteq	r0, pc
    3f54:	0001333a 	andeq	r3, r1, sl, lsr r3
    3f58:	a8030500 	stmdage	r3, {r8, sl}
    3f5c:	1a000097 	bne	41c0 <_start-0x3e40>
    3f60:	00000ffa 	strdeq	r0, [r0], -sl
    3f64:	33010901 	movwcc	r0, #6401	; 0x1901
    3f68:	05000001 	streq	r0, [r0, #-1]
    3f6c:	0097cc03 	addseq	ip, r7, r3, lsl #24
    3f70:	10081a00 	andne	r1, r8, r0, lsl #20
    3f74:	0a010000 	beq	43f7c <__bss_end__+0x39e74>
    3f78:	00013301 	andeq	r3, r1, r1, lsl #6
    3f7c:	ac030500 	cfstr32ge	mvfx0, [r3], {-0}
    3f80:	1a000097 	bne	41e4 <_start-0x3e1c>
    3f84:	0000104e 	andeq	r1, r0, lr, asr #32
    3f88:	33010c01 	movwcc	r0, #7169	; 0x1c01
    3f8c:	05000001 	streq	r0, [r0, #-1]
    3f90:	0097c403 	addseq	ip, r7, r3, lsl #8
    3f94:	10551a00 	subsne	r1, r5, r0, lsl #20
    3f98:	0d010000 	stceq	0, cr0, [r1, #-0]
    3f9c:	00013301 	andeq	r3, r1, r1, lsl #6
    3fa0:	c8030500 	stmdagt	r3, {r8, sl}
    3fa4:	1a000097 	bne	4208 <_start-0x3df8>
    3fa8:	00000fdb 	ldrdeq	r0, [r0], -fp
    3fac:	33010f01 	movwcc	r0, #7937	; 0x1f01
    3fb0:	05000001 	streq	r0, [r0, #-1]
    3fb4:	0097b003 	addseq	fp, r7, r3
    3fb8:	0fe21a00 	svceq	0x00e21a00
    3fbc:	10010000 	andne	r0, r1, r0
    3fc0:	00013301 	andeq	r3, r1, r1, lsl #6
    3fc4:	b4030500 	strlt	r0, [r3], #-1280	; 0x500
    3fc8:	1a000097 	bne	422c <_start-0x3dd4>
    3fcc:	00001068 	andeq	r1, r0, r8, rrx
    3fd0:	33011201 	movwcc	r1, #4609	; 0x1201
    3fd4:	05000001 	streq	r0, [r0, #-1]
    3fd8:	0097bc03 	addseq	fp, r7, r3, lsl #24
    3fdc:	106f1a00 	rsbne	r1, pc, r0, lsl #20
    3fe0:	13010000 	movwne	r0, #4096	; 0x1000
    3fe4:	00013301 	andeq	r3, r1, r1, lsl #6
    3fe8:	c0030500 	andgt	r0, r3, r0, lsl #10
    3fec:	1a000097 	bne	4250 <_start-0x3db0>
    3ff0:	00000f16 	andeq	r0, r0, r6, lsl pc
    3ff4:	33011501 	movwcc	r1, #5377	; 0x1501
    3ff8:	05000001 	streq	r0, [r0, #-1]
    3ffc:	0097b803 	addseq	fp, r7, r3, lsl #16
    4000:	0b7b1b00 	bleq	1ecac08 <__bss_end__+0x1ec0b00>
    4004:	20010000 	andcs	r0, r1, r0
    4008:	0000002c 	andeq	r0, r0, ip, lsr #32
    400c:	00000856 	andeq	r0, r0, r6, asr r8
    4010:	0008561c 	andeq	r5, r8, ip, lsl r6
    4014:	040d0000 	streq	r0, [sp], #-0
    4018:	0000085c 	andeq	r0, r0, ip, asr r8
    401c:	0008611d 	andeq	r6, r8, sp, lsl r1
    4020:	991f1e00 	ldmdbls	pc, {r9, sl, fp, ip}	; <UNPREDICTABLE>
    4024:	0100000a 	tsteq	r0, sl
    4028:	0008781e 	andeq	r7, r8, lr, lsl r8
    402c:	08781c00 	ldmdaeq	r8!, {sl, fp, ip}^
    4030:	2c1c0000 	ldccs	0, cr0, [ip], {-0}
    4034:	00000000 	andeq	r0, r0, r0
    4038:	0861040d 	stmdaeq	r1!, {r0, r2, r3, sl}^
    403c:	15200000 	strne	r0, [r0, #-0]!
    4040:	03000001 	movweq	r0, #1
    4044:	03ff008a 	mvnseq	r0, #138	; 0x8a
    4048:	00040000 	andeq	r0, r4, r0
    404c:	00000f9b 	muleq	r0, fp, pc	; <UNPREDICTABLE>
    4050:	0c5f0104 	ldfeqe	f0, [pc], {4}
    4054:	8e010000 	cdphi	0, 0, cr0, cr1, cr0, {0}
    4058:	ca000011 	bgt	40a4 <_start-0x3f5c>
    405c:	bc00000c 	stclt	0, cr0, [r0], {12}
    4060:	54000095 	strpl	r0, [r0], #-149	; 0x95
    4064:	a6000001 	strge	r0, [r0], -r1
    4068:	0200000b 	andeq	r0, r0, #11
    406c:	6e690504 	cdpvs	5, 6, cr0, cr9, cr4, {0}
    4070:	04030074 	streq	r0, [r3], #-116	; 0x74
    4074:	00008407 	andeq	r8, r0, r7, lsl #8
    4078:	06010300 	streq	r0, [r1], -r0, lsl #6
    407c:	0000035e 	andeq	r0, r0, lr, asr r3
    4080:	e7050203 	str	r0, [r5, -r3, lsl #4]
    4084:	03000003 	movweq	r0, #3
    4088:	00c50504 	sbceq	r0, r5, r4, lsl #10
    408c:	08030000 	stmdaeq	r3, {}	; <UNPREDICTABLE>
    4090:	0000c005 	andeq	ip, r0, r5
    4094:	08010300 	stmdaeq	r1, {r8, r9}
    4098:	0000035c 	andeq	r0, r0, ip, asr r3
    409c:	40070203 	andmi	r0, r7, r3, lsl #4
    40a0:	03000002 	movweq	r0, #2
    40a4:	007f0704 	rsbseq	r0, pc, r4, lsl #14
    40a8:	08030000 	stmdaeq	r3, {}	; <UNPREDICTABLE>
    40ac:	00007a07 	andeq	r7, r0, r7, lsl #20
    40b0:	07040300 	streq	r0, [r4, -r0, lsl #6]
    40b4:	000002cb 	andeq	r0, r0, fp, asr #5
    40b8:	65080103 	strvs	r0, [r8, #-259]	; 0x103
    40bc:	04000003 	streq	r0, [r0], #-3
    40c0:	b20c0201 	andlt	r0, ip, #268435456	; 0x10000000
    40c4:	05000000 	streq	r0, [r0, #-0]
    40c8:	000006e7 	andeq	r0, r0, r7, ror #13
    40cc:	0b600500 	bleq	18054d4 <__bss_end__+0x17fb3cc>
    40d0:	05010000 	streq	r0, [r1, #-0]
    40d4:	00000ba2 	andeq	r0, r0, r2, lsr #23
    40d8:	07360504 	ldreq	r0, [r6, -r4, lsl #10]!
    40dc:	05050000 	streq	r0, [r5, #-0]
    40e0:	0000091c 	andeq	r0, r0, ip, lsl r9
    40e4:	0bbf0506 	bleq	fefc5504 <__bss_end__+0xfefbb3fc>
    40e8:	05070000 	streq	r0, [r7, #-0]
    40ec:	00000bce 	andeq	r0, r0, lr, asr #23
    40f0:	0bdd0503 	bleq	ff745504 <__bss_end__+0xff73b3fc>
    40f4:	00020000 	andeq	r0, r2, r0
    40f8:	00109c06 	andseq	r9, r0, r6, lsl #24
    40fc:	79150200 	ldmdbvc	r5, {r9}
    4100:	07000000 	streq	r0, [r0, -r0]
    4104:	00000070 	andeq	r0, r0, r0, ror r0
    4108:	95bc3701 	ldrls	r3, [ip, #1793]!	; 0x701
    410c:	009c0000 	addseq	r0, ip, r0
    4110:	9c010000 	stcls	0, cr0, [r1], {-0}
    4114:	000001c3 	andeq	r0, r0, r3, asr #3
    4118:	0095c408 	addseq	ip, r5, r8, lsl #8
    411c:	0003a800 	andeq	sl, r3, r0, lsl #16
    4120:	95d00900 	ldrbls	r0, [r0, #2304]	; 0x900
    4124:	03af0000 			; <UNDEFINED> instruction: 0x03af0000
    4128:	00f30000 	rscseq	r0, r3, r0
    412c:	010a0000 	mrseq	r0, (UNDEF: 10)
    4130:	0a320151 	beq	c8467c <__bss_end__+0xc7a574>
    4134:	3e015001 	cdpcc	0, 0, cr5, cr1, cr1, {0}
    4138:	95dc0900 	ldrbls	r0, [ip, #2304]	; 0x900
    413c:	03af0000 			; <UNDEFINED> instruction: 0x03af0000
    4140:	010b0000 	mrseq	r0, (UNDEF: 11)
    4144:	010a0000 	mrseq	r0, (UNDEF: 10)
    4148:	0a320151 	beq	c84694 <__bss_end__+0xc7a58c>
    414c:	3f015001 	svccc	0x00015001
    4150:	95e00800 	strbls	r0, [r0, #2048]!	; 0x800
    4154:	03a80000 			; <UNDEFINED> instruction: 0x03a80000
    4158:	f0090000 			; <UNDEFINED> instruction: 0xf0090000
    415c:	c5000095 	strgt	r0, [r0, #-149]	; 0x95
    4160:	28000003 	stmdacs	r0, {r0, r1}
    4164:	0a000001 	beq	4170 <_start-0x3e90>
    4168:	75025001 	strvc	r5, [r2, #-1]
    416c:	fc090000 	stc2	0, cr0, [r9], {-0}
    4170:	e6000095 			; <UNDEFINED> instruction: 0xe6000095
    4174:	3c000003 	stccc	0, cr0, [r0], {3}
    4178:	0a000001 	beq	4184 <_start-0x3e7c>
    417c:	75025001 	strvc	r5, [r2, #-1]
    4180:	00080000 	andeq	r0, r8, r0
    4184:	a8000096 	stmdage	r0, {r1, r2, r4, r7}
    4188:	09000003 	stmdbeq	r0, {r0, r1}
    418c:	0000960c 	andeq	r9, r0, ip, lsl #12
    4190:	000003e6 	andeq	r0, r0, r6, ror #7
    4194:	00000158 	andeq	r0, r0, r8, asr r1
    4198:	0151010a 	cmpeq	r1, sl, lsl #2
    419c:	18090030 	stmdane	r9, {r4, r5}
    41a0:	e6000096 			; <UNDEFINED> instruction: 0xe6000096
    41a4:	6b000003 	blvs	41b8 <_start-0x3e48>
    41a8:	0a000001 	beq	41b4 <_start-0x3e4c>
    41ac:	30015101 	andcc	r5, r1, r1, lsl #2
    41b0:	96240900 	strtls	r0, [r4], -r0, lsl #18
    41b4:	03e60000 	mvneq	r0, #0
    41b8:	017e0000 	cmneq	lr, r0
    41bc:	010a0000 	mrseq	r0, (UNDEF: 10)
    41c0:	00360151 	eorseq	r0, r6, r1, asr r1
    41c4:	00963009 	addseq	r3, r6, r9
    41c8:	0003e600 	andeq	lr, r3, r0, lsl #12
    41cc:	00019100 	andeq	r9, r1, r0, lsl #2
    41d0:	51010a00 	tstpl	r1, r0, lsl #20
    41d4:	09003301 	stmdbeq	r0, {r0, r8, r9, ip, sp}
    41d8:	0000963c 	andeq	r9, r0, ip, lsr r6
    41dc:	000003e6 	andeq	r0, r0, r6, ror #7
    41e0:	000001a6 	andeq	r0, r0, r6, lsr #3
    41e4:	0351010a 	cmpeq	r1, #-2147483646	; 0x80000002
    41e8:	00010e0a 	andeq	r0, r1, sl, lsl #28
    41ec:	00964809 	addseq	r4, r6, r9, lsl #16
    41f0:	0003e600 	andeq	lr, r3, r0, lsl #12
    41f4:	0001b900 	andeq	fp, r1, r0, lsl #18
    41f8:	51010a00 	tstpl	r1, r0, lsl #20
    41fc:	08003301 	stmdaeq	r0, {r0, r8, r9, ip, sp}
    4200:	0000964c 	andeq	r9, r0, ip, asr #12
    4204:	000003a8 	andeq	r0, r0, r8, lsr #7
    4208:	10e90b00 	rscne	r0, r9, r0, lsl #22
    420c:	57010000 	strpl	r0, [r1, -r0]
    4210:	00000025 	andeq	r0, r0, r5, lsr #32
    4214:	00009658 	andeq	r9, r0, r8, asr r6
    4218:	0000001c 	andeq	r0, r0, ip, lsl r0
    421c:	01e69c01 	mvneq	r9, r1, lsl #24
    4220:	68080000 	stmdavs	r8, {}	; <UNPREDICTABLE>
    4224:	c5000096 	strgt	r0, [r0, #-150]	; 0x96
    4228:	00000003 	andeq	r0, r0, r3
    422c:	0011240b 	andseq	r2, r1, fp, lsl #8
    4230:	255d0100 	ldrbcs	r0, [sp, #-256]	; 0x100
    4234:	74000000 	strvc	r0, [r0], #-0
    4238:	28000096 	stmdacs	r0, {r1, r2, r4, r7}
    423c:	01000000 	mrseq	r0, (UNDEF: 0)
    4240:	0002129c 	muleq	r2, ip, r2
    4244:	967c0800 	ldrbtls	r0, [ip], -r0, lsl #16
    4248:	01c30000 	biceq	r0, r3, r0
    424c:	90080000 	andls	r0, r8, r0
    4250:	c5000096 	strgt	r0, [r0, #-150]	; 0x96
    4254:	00000003 	andeq	r0, r0, r3
    4258:	00113d0b 	andseq	r3, r1, fp, lsl #26
    425c:	25640100 	strbcs	r0, [r4, #-256]!	; 0x100
    4260:	9c000000 	stcls	0, cr0, [r0], {-0}
    4264:	1c000096 	stcne	0, cr0, [r0], {150}	; 0x96
    4268:	01000000 	mrseq	r0, (UNDEF: 0)
    426c:	0002359c 	muleq	r2, ip, r5
    4270:	96ac0800 	strtls	r0, [ip], r0, lsl #16
    4274:	03c50000 	biceq	r0, r5, #0
    4278:	07000000 	streq	r0, [r0, -r0]
    427c:	00000d13 	andeq	r0, r0, r3, lsl sp
    4280:	96b86a01 	ldrtls	r6, [r8], r1, lsl #20
    4284:	002c0000 	eoreq	r0, ip, r0
    4288:	9c010000 	stcls	0, cr0, [r1], {-0}
    428c:	00000271 	andeq	r0, r0, r1, ror r2
    4290:	0100630c 	tsteq	r0, ip, lsl #6
    4294:	00002c6a 	andeq	r2, r0, sl, ror #24
    4298:	001aba00 	andseq	fp, sl, r0, lsl #20
    429c:	96c40800 	strbls	r0, [r4], r0, lsl #16
    42a0:	02120000 	andseq	r0, r2, #0
    42a4:	dc0d0000 	stcle	0, cr0, [sp], {-0}
    42a8:	e6000096 			; <UNDEFINED> instruction: 0xe6000096
    42ac:	0a000003 	beq	42c0 <_start-0x3d40>
    42b0:	74025101 	strvc	r5, [r2], #-257	; 0x101
    42b4:	0b000000 	bleq	42bc <_start-0x3d44>
    42b8:	00001107 	andeq	r1, r0, r7, lsl #2
    42bc:	00257401 	eoreq	r7, r5, r1, lsl #8
    42c0:	96e40000 	strbtls	r0, [r4], r0
    42c4:	000c0000 	andeq	r0, ip, r0
    42c8:	9c010000 	stcls	0, cr0, [r1], {-0}
    42cc:	00000294 	muleq	r0, r4, r2
    42d0:	0096ec08 	addseq	lr, r6, r8, lsl #24
    42d4:	0001c300 	andeq	ip, r1, r0, lsl #6
    42d8:	ba0b0000 	blt	2c42e0 <__bss_end__+0x2ba1d8>
    42dc:	01000011 	tsteq	r0, r1, lsl r0
    42e0:	00002578 	andeq	r2, r0, r8, ror r5
    42e4:	0096f000 	addseq	pc, r6, r0
    42e8:	00002000 	andeq	r2, r0, r0
    42ec:	c09c0100 	addsgt	r0, ip, r0, lsl #2
    42f0:	08000002 	stmdaeq	r0, {r1}
    42f4:	000096f8 	strdeq	r9, [r0], -r8
    42f8:	00000271 	andeq	r0, r0, r1, ror r2
    42fc:	00970408 	addseq	r0, r7, r8, lsl #8
    4300:	0001e600 	andeq	lr, r1, r0, lsl #12
    4304:	570e0000 	strpl	r0, [lr, -r0]
    4308:	01000011 	tsteq	r0, r1, lsl r0
    430c:	0002d116 	andeq	sp, r2, r6, lsl r1
    4310:	0c030500 	cfstr32eq	mvfx0, [r3], {-0}
    4314:	0f000098 	svceq	0x00000098
    4318:	0002d704 	andeq	sp, r2, r4, lsl #14
    431c:	002c1000 	eoreq	r1, ip, r0
    4320:	4b0e0000 	blmi	384328 <__bss_end__+0x37a220>
    4324:	01000011 	tsteq	r0, r1, lsl r0
    4328:	0002d117 	andeq	sp, r2, r7, lsl r1
    432c:	dc030500 	cfstr32le	mvfx0, [r3], {-0}
    4330:	0e000097 	mcreq	0, 0, r0, cr0, cr7, {4}
    4334:	000010cc 	andeq	r1, r0, ip, asr #1
    4338:	02d11a01 	sbcseq	r1, r1, #4096	; 0x1000
    433c:	03050000 	movweq	r0, #20480	; 0x5000
    4340:	000097f8 	strdeq	r9, [r0], -r8
    4344:	0011150e 	andseq	r1, r1, lr, lsl #10
    4348:	d11b0100 	tstle	fp, r0, lsl #2
    434c:	05000002 	streq	r0, [r0, #-2]
    4350:	0097e403 	addseq	lr, r7, r3, lsl #8
    4354:	112e0e00 	teqne	lr, r0, lsl #28
    4358:	1c010000 	stcne	0, cr0, [r1], {-0}
    435c:	000002d1 	ldrdeq	r0, [r0], -r1
    4360:	97e80305 	strbls	r0, [r8, r5, lsl #6]!
    4364:	9c0e0000 	stcls	0, cr0, [lr], {-0}
    4368:	01000011 	tsteq	r0, r1, lsl r0
    436c:	0002d11d 	andeq	sp, r2, sp, lsl r1
    4370:	ec030500 	cfstr32	mvfx0, [r3], {-0}
    4374:	0e000097 	mcreq	0, 0, r0, cr0, cr7, {4}
    4378:	000010bd 	strheq	r1, [r0], -sp
    437c:	02d11e01 	sbcseq	r1, r1, #1, 28
    4380:	03050000 	movweq	r0, #20480	; 0x5000
    4384:	00009808 	andeq	r9, r0, r8, lsl #16
    4388:	0011ab0e 	andseq	sl, r1, lr, lsl #22
    438c:	d11f0100 	tstle	pc, r0, lsl #2
    4390:	05000002 	streq	r0, [r0, #-2]
    4394:	0097f403 	addseq	pc, r7, r3, lsl #8
    4398:	10da0e00 	sbcsne	r0, sl, r0, lsl #28
    439c:	20010000 	andcs	r0, r1, r0
    43a0:	000002d1 	ldrdeq	r0, [r0], -r1
    43a4:	98040305 	stmdals	r4, {r0, r2, r8, r9}
    43a8:	7f0e0000 	svcvc	0x000e0000
    43ac:	01000011 	tsteq	r0, r1, lsl r0
    43b0:	0002d121 	andeq	sp, r2, r1, lsr #2
    43b4:	00030500 	andeq	r0, r3, r0, lsl #10
    43b8:	0e000098 	mcreq	0, 0, r0, cr0, cr8, {4}
    43bc:	000010f7 	strdeq	r1, [r0], -r7
    43c0:	02d12201 	sbcseq	r2, r1, #268435456	; 0x10000000
    43c4:	03050000 	movweq	r0, #20480	; 0x5000
    43c8:	000097e0 	andeq	r9, r0, r0, ror #15
    43cc:	00116f0e 	andseq	r6, r1, lr, lsl #30
    43d0:	d1230100 	teqle	r3, r0, lsl #2
    43d4:	05000002 	streq	r0, [r0, #-2]
    43d8:	0097fc03 	addseq	pc, r7, r3, lsl #24
    43dc:	115f0e00 	cmpne	pc, r0, lsl #28
    43e0:	24010000 	strcs	r0, [r1], #-0
    43e4:	000002d1 	ldrdeq	r0, [r0], -r1
    43e8:	97f00305 	ldrbls	r0, [r0, r5, lsl #6]!
    43ec:	15110000 	ldrne	r0, [r1, #-0]
    43f0:	03000001 	movweq	r0, #1
    43f4:	0790128a 	ldreq	r1, [r0, sl, lsl #5]
    43f8:	19020000 	stmdbne	r2, {}	; <UNPREDICTABLE>
    43fc:	000003c5 	andeq	r0, r0, r5, asr #7
    4400:	00002c13 	andeq	r2, r0, r3, lsl ip
    4404:	00b21300 	adcseq	r1, r2, r0, lsl #6
    4408:	14000000 	strne	r0, [r0], #-0
    440c:	00000b7b 	andeq	r0, r0, fp, ror fp
    4410:	002ca903 	eoreq	sl, ip, r3, lsl #18
    4414:	03da0000 	bicseq	r0, sl, #0
    4418:	da130000 	ble	4c4420 <__bss_end__+0x4ba318>
    441c:	00000003 	andeq	r0, r0, r3
    4420:	03e0040f 	mvneq	r0, #251658240	; 0xf000000
    4424:	e5150000 	ldr	r0, [r5, #-0]
    4428:	16000003 	strne	r0, [r0], -r3
    442c:	000a9912 	andeq	r9, sl, r2, lsl r9
    4430:	fc9d0300 	ldc2	3, cr0, [sp], {0}
    4434:	13000003 	movwne	r0, #3
    4438:	000003fc 	strdeq	r0, [r0], -ip
    443c:	00002c13 	andeq	r2, r0, r3, lsl ip
    4440:	040f0000 	streq	r0, [pc], #-0	; 4448 <_start-0x3bb8>
    4444:	000003e5 	andeq	r0, r0, r5, ror #7
	...

Disassembly of section .debug_abbrev:

00000000 <.debug_abbrev>:
       0:	25011101 	strcs	r1, [r1, #-257]	; 0x101
       4:	030b130e 	movweq	r1, #45838	; 0xb30e
       8:	110e1b0e 	tstne	lr, lr, lsl #22
       c:	10061201 	andne	r1, r6, r1, lsl #4
      10:	02000017 	andeq	r0, r0, #23
      14:	0b0b0024 	bleq	2c00ac <__bss_end__+0x2b5fa4>
      18:	08030b3e 	stmdaeq	r3, {r1, r2, r3, r4, r5, r8, r9, fp}
      1c:	24030000 	strcs	r0, [r3], #-0
      20:	3e0b0b00 	vmlacc.f64	d0, d11, d0
      24:	000e030b 	andeq	r0, lr, fp, lsl #6
      28:	00160400 	andseq	r0, r6, r0, lsl #8
      2c:	0b3a0e03 	bleq	e83840 <__bss_end__+0xe79738>
      30:	13490b3b 	movtne	r0, #39739	; 0x9b3b
      34:	0f050000 	svceq	0x00050000
      38:	490b0b00 	stmdbmi	fp, {r8, r9, fp}
      3c:	06000013 			; <UNDEFINED> instruction: 0x06000013
      40:	13490026 	movtne	r0, #36902	; 0x9026
      44:	01070000 	mrseq	r0, (UNDEF: 7)
      48:	01134901 	tsteq	r3, r1, lsl #18
      4c:	08000013 	stmdaeq	r0, {r0, r1, r4}
      50:	13490021 	movtne	r0, #36897	; 0x9021
      54:	00000b2f 	andeq	r0, r0, pc, lsr #22
      58:	0b010409 	bleq	41084 <__bss_end__+0x36f7c>
      5c:	3b0b3a0b 	blcc	2ce890 <__bss_end__+0x2c4788>
      60:	0013010b 	andseq	r0, r3, fp, lsl #2
      64:	00280a00 	eoreq	r0, r8, r0, lsl #20
      68:	0d1c0e03 	ldceq	14, cr0, [ip, #-12]
      6c:	040b0000 	streq	r0, [fp], #-0
      70:	0b0e0301 	bleq	380c7c <__bss_end__+0x376b74>
      74:	3b0b3a0b 	blcc	2ce8a8 <__bss_end__+0x2c47a0>
      78:	0013010b 	andseq	r0, r3, fp, lsl #2
      7c:	01130c00 	tsteq	r3, r0, lsl #24
      80:	0b3a0b0b 	bleq	e82cb4 <__bss_end__+0xe78bac>
      84:	13010b3b 	movwne	r0, #6971	; 0x1b3b
      88:	0d0d0000 	stceq	0, cr0, [sp, #-0]
      8c:	3a080300 	bcc	200c94 <__bss_end__+0x1f6b8c>
      90:	490b3b0b 	stmdbmi	fp, {r0, r1, r3, r8, r9, fp, ip, sp}
      94:	000b3813 	andeq	r3, fp, r3, lsl r8
      98:	000d0e00 	andeq	r0, sp, r0, lsl #28
      9c:	0b3a0e03 	bleq	e838b0 <__bss_end__+0xe797a8>
      a0:	13490b3b 	movtne	r0, #39739	; 0x9b3b
      a4:	00000b38 	andeq	r0, r0, r8, lsr fp
      a8:	03012e0f 	movweq	r2, #7695	; 0x1e0f
      ac:	3b0b3a0e 	blcc	2ce8ec <__bss_end__+0x2c47e4>
      b0:	4919270b 	ldmdbmi	r9, {r0, r1, r3, r8, r9, sl, sp}
      b4:	010b2013 	tsteq	fp, r3, lsl r0
      b8:	10000013 	andne	r0, r0, r3, lsl r0
      bc:	08030005 	stmdaeq	r3, {r0, r2}
      c0:	0b3b0b3a 	bleq	ec2db0 <__bss_end__+0xeb8ca8>
      c4:	00001349 	andeq	r1, r0, r9, asr #6
      c8:	03012e11 	movweq	r2, #7697	; 0x1e11
      cc:	3b0b3a0e 	blcc	2ce90c <__bss_end__+0x2c4804>
      d0:	4919270b 	ldmdbmi	r9, {r0, r1, r3, r8, r9, sl, sp}
      d4:	12011113 	andne	r1, r1, #-1073741820	; 0xc0000004
      d8:	97184006 	ldrls	r4, [r8, -r6]
      dc:	13011942 	movwne	r1, #6466	; 0x1942
      e0:	05120000 	ldreq	r0, [r2, #-0]
      e4:	3a080300 	bcc	200cec <__bss_end__+0x1f6be4>
      e8:	490b3b0b 	stmdbmi	fp, {r0, r1, r3, r8, r9, fp, ip, sp}
      ec:	00170213 	andseq	r0, r7, r3, lsl r2
      f0:	00051300 	andeq	r1, r5, r0, lsl #6
      f4:	0b3a0e03 	bleq	e83908 <__bss_end__+0xe79800>
      f8:	13490b3b 	movtne	r0, #39739	; 0x9b3b
      fc:	00001702 	andeq	r1, r0, r2, lsl #14
     100:	03003414 	movweq	r3, #1044	; 0x414
     104:	3413490e 	ldrcc	r4, [r3], #-2318	; 0x90e
     108:	00180219 	andseq	r0, r8, r9, lsl r2
     10c:	82891500 	addhi	r1, r9, #0, 10
     110:	01110001 	tsteq	r1, r1
     114:	00001331 	andeq	r1, r0, r1, lsr r3
     118:	01828916 	orreq	r8, r2, r6, lsl r9
     11c:	31011101 	tstcc	r1, r1, lsl #2
     120:	00130113 	andseq	r0, r3, r3, lsl r1
     124:	828a1700 	addhi	r1, sl, #0, 14
     128:	18020001 	stmdane	r2, {r0}
     12c:	00184291 	mulseq	r8, r1, r2
     130:	012e1800 	teqeq	lr, r0, lsl #16
     134:	0b3a0e03 	bleq	e83948 <__bss_end__+0xe79840>
     138:	19270b3b 	stmdbne	r7!, {r0, r1, r3, r4, r5, r8, r9, fp}
     13c:	06120111 			; <UNDEFINED> instruction: 0x06120111
     140:	42971840 	addsmi	r1, r7, #64, 16	; 0x400000
     144:	00130119 	andseq	r0, r3, r9, lsl r1
     148:	00341900 	eorseq	r1, r4, r0, lsl #18
     14c:	0b3a0803 	bleq	e82160 <__bss_end__+0xe78058>
     150:	13490b3b 	movtne	r0, #39739	; 0x9b3b
     154:	341a0000 	ldrcc	r0, [sl], #-0
     158:	490e0300 	stmdbmi	lr, {r8, r9}
     15c:	00193413 	andseq	r3, r9, r3, lsl r4
     160:	012e1b00 	teqeq	lr, r0, lsl #22
     164:	0e03193f 	mcreq	9, 0, r1, cr3, cr15, {1}
     168:	0b3b0b3a 	bleq	ec2e58 <__bss_end__+0xeb8d50>
     16c:	13491927 	movtne	r1, #39207	; 0x9927
     170:	06120111 			; <UNDEFINED> instruction: 0x06120111
     174:	42971840 	addsmi	r1, r7, #64, 16	; 0x400000
     178:	00130119 	andseq	r0, r3, r9, lsl r1
     17c:	00341c00 	eorseq	r1, r4, r0, lsl #24
     180:	0b3a0803 	bleq	e82194 <__bss_end__+0xe7808c>
     184:	13490b3b 	movtne	r0, #39739	; 0x9b3b
     188:	00001802 	andeq	r1, r0, r2, lsl #16
     18c:	0182891d 	orreq	r8, r2, sp, lsl r9
     190:	31011101 	tstcc	r1, r1, lsl #2
     194:	1e000013 	mcrne	0, 0, r0, cr0, cr3, {0}
     198:	193f012e 	ldmdbne	pc!, {r1, r2, r3, r5, r8}	; <UNPREDICTABLE>
     19c:	0b3a0e03 	bleq	e839b0 <__bss_end__+0xe798a8>
     1a0:	19270b3b 	stmdbne	r7!, {r0, r1, r3, r4, r5, r8, r9, fp}
     1a4:	06120111 			; <UNDEFINED> instruction: 0x06120111
     1a8:	42971840 	addsmi	r1, r7, #64, 16	; 0x400000
     1ac:	00130119 	andseq	r0, r3, r9, lsl r1
     1b0:	00341f00 	eorseq	r1, r4, r0, lsl #30
     1b4:	0b3a0e03 	bleq	e839c8 <__bss_end__+0xe798c0>
     1b8:	13490b3b 	movtne	r0, #39739	; 0x9b3b
     1bc:	00001802 	andeq	r1, r0, r2, lsl #16
     1c0:	03000520 	movweq	r0, #1312	; 0x520
     1c4:	3b0b3a08 	blcc	2ce9ec <__bss_end__+0x2c48e4>
     1c8:	0213490b 	andseq	r4, r3, #180224	; 0x2c000
     1cc:	21000018 	tstcs	r0, r8, lsl r0
     1d0:	08030034 	stmdaeq	r3, {r2, r4, r5}
     1d4:	0b3b0b3a 	bleq	ec2ec4 <__bss_end__+0xeb8dbc>
     1d8:	17021349 	strne	r1, [r2, -r9, asr #6]
     1dc:	34220000 	strtcc	r0, [r2], #-0
     1e0:	3a0e0300 	bcc	380de8 <__bss_end__+0x376ce0>
     1e4:	490b3b0b 	stmdbmi	fp, {r0, r1, r3, r8, r9, fp, ip, sp}
     1e8:	00170213 	andseq	r0, r7, r3, lsl r2
     1ec:	011d2300 	tsteq	sp, r0, lsl #6
     1f0:	01111331 	tsteq	r1, r1, lsr r3
     1f4:	0b580612 	bleq	1601a44 <__bss_end__+0x15f793c>
     1f8:	13010b59 	movwne	r0, #7001	; 0x1b59
     1fc:	05240000 	streq	r0, [r4, #-0]!
     200:	02133100 	andseq	r3, r3, #0, 2
     204:	25000017 	strcs	r0, [r0, #-23]
     208:	0e030034 	mcreq	0, 0, r0, cr3, cr4, {1}
     20c:	0b3b0b3a 	bleq	ec2efc <__bss_end__+0xeb8df4>
     210:	0b1c1349 	bleq	704f3c <__bss_end__+0x6fae34>
     214:	2e260000 	cdpcs	0, 2, cr0, cr6, cr0, {0}
     218:	03193f00 	tsteq	r9, #0, 30
     21c:	3b0b3a0e 	blcc	2cea5c <__bss_end__+0x2c4954>
     220:	3c19270b 	ldccc	7, cr2, [r9], {11}
     224:	27000019 	smladcs	r0, r9, r0, r0
     228:	193f012e 	ldmdbne	pc!, {r1, r2, r3, r5, r8}	; <UNPREDICTABLE>
     22c:	0b3a0e03 	bleq	e83a40 <__bss_end__+0xe79938>
     230:	19270b3b 	stmdbne	r7!, {r0, r1, r3, r4, r5, r8, r9, fp}
     234:	193c1349 	ldmdbne	ip!, {r0, r3, r6, r8, r9, ip}
     238:	00001301 	andeq	r1, r0, r1, lsl #6
     23c:	49000528 	stmdbmi	r0, {r3, r5, r8, sl}
     240:	29000013 	stmdbcs	r0, {r0, r1, r4}
     244:	00000018 	andeq	r0, r0, r8, lsl r0
     248:	3f012e2a 	svccc	0x00012e2a
     24c:	3a0e0319 	bcc	380eb8 <__bss_end__+0x376db0>
     250:	270b3b0b 	strcs	r3, [fp, -fp, lsl #22]
     254:	01193c19 	tsteq	r9, r9, lsl ip
     258:	00000013 	andeq	r0, r0, r3, lsl r0
     25c:	25011101 	strcs	r1, [r1, #-257]	; 0x101
     260:	030b130e 	movweq	r1, #45838	; 0xb30e
     264:	110e1b0e 	tstne	lr, lr, lsl #22
     268:	10061201 	andne	r1, r6, r1, lsl #4
     26c:	02000017 	andeq	r0, r0, #23
     270:	0b0b0024 	bleq	2c0308 <__bss_end__+0x2b6200>
     274:	08030b3e 	stmdaeq	r3, {r1, r2, r3, r4, r5, r8, r9, fp}
     278:	24030000 	strcs	r0, [r3], #-0
     27c:	3e0b0b00 	vmlacc.f64	d0, d11, d0
     280:	000e030b 	andeq	r0, lr, fp, lsl #6
     284:	00260400 	eoreq	r0, r6, r0, lsl #8
     288:	00001349 	andeq	r1, r0, r9, asr #6
     28c:	03001605 	movweq	r1, #1541	; 0x605
     290:	3b0b3a0e 	blcc	2cead0 <__bss_end__+0x2c49c8>
     294:	0013490b 	andseq	r4, r3, fp, lsl #18
     298:	00160600 	andseq	r0, r6, r0, lsl #12
     29c:	0b3a0e03 	bleq	e83ab0 <__bss_end__+0xe799a8>
     2a0:	1349053b 	movtne	r0, #38203	; 0x953b
     2a4:	17070000 	strne	r0, [r7, -r0]
     2a8:	3a0b0b01 	bcc	2c2eb4 <__bss_end__+0x2b8dac>
     2ac:	010b3b0b 	tsteq	fp, fp, lsl #22
     2b0:	08000013 	stmdaeq	r0, {r0, r1, r4}
     2b4:	0e03000d 	cdpeq	0, 0, cr0, cr3, cr13, {0}
     2b8:	0b3b0b3a 	bleq	ec2fa8 <__bss_end__+0xeb8ea0>
     2bc:	00001349 	andeq	r1, r0, r9, asr #6
     2c0:	49010109 	stmdbmi	r1, {r0, r3, r8}
     2c4:	00130113 	andseq	r0, r3, r3, lsl r1
     2c8:	00210a00 	eoreq	r0, r1, r0, lsl #20
     2cc:	0b2f1349 	bleq	bc4ff8 <__bss_end__+0xbbaef0>
     2d0:	130b0000 	movwne	r0, #45056	; 0xb000
     2d4:	3a0b0b01 	bcc	2c2ee0 <__bss_end__+0x2b8dd8>
     2d8:	010b3b0b 	tsteq	fp, fp, lsl #22
     2dc:	0c000013 	stceq	0, cr0, [r0], {19}
     2e0:	0e03000d 	cdpeq	0, 0, cr0, cr3, cr13, {0}
     2e4:	0b3b0b3a 	bleq	ec2fd4 <__bss_end__+0xeb8ecc>
     2e8:	0b381349 	bleq	e05014 <__bss_end__+0xdfaf0c>
     2ec:	0f0d0000 	svceq	0x000d0000
     2f0:	000b0b00 	andeq	r0, fp, r0, lsl #22
     2f4:	000f0e00 	andeq	r0, pc, r0, lsl #28
     2f8:	13490b0b 	movtne	r0, #39691	; 0x9b0b
     2fc:	130f0000 	movwne	r0, #61440	; 0xf000
     300:	0b0e0301 	bleq	380f0c <__bss_end__+0x376e04>
     304:	3b0b3a0b 	blcc	2ceb38 <__bss_end__+0x2c4a30>
     308:	0013010b 	andseq	r0, r3, fp, lsl #2
     30c:	000d1000 	andeq	r1, sp, r0
     310:	0b3a0803 	bleq	e82324 <__bss_end__+0xe7821c>
     314:	13490b3b 	movtne	r0, #39739	; 0x9b3b
     318:	00000b38 	andeq	r0, r0, r8, lsr fp
     31c:	03011311 	movweq	r1, #4881	; 0x1311
     320:	3a050b0e 	bcc	142f60 <__bss_end__+0x138e58>
     324:	010b3b0b 	tsteq	fp, fp, lsl #22
     328:	12000013 	andne	r0, r0, #19
     32c:	0e03000d 	cdpeq	0, 0, cr0, cr3, cr13, {0}
     330:	0b3b0b3a 	bleq	ec3020 <__bss_end__+0xeb8f18>
     334:	05381349 	ldreq	r1, [r8, #-841]!	; 0x349
     338:	15130000 	ldrne	r0, [r3, #-0]
     33c:	00192700 	andseq	r2, r9, r0, lsl #14
     340:	01151400 	tsteq	r5, r0, lsl #8
     344:	13491927 	movtne	r1, #39207	; 0x9927
     348:	00001301 	andeq	r1, r0, r1, lsl #6
     34c:	49000515 	stmdbmi	r0, {r0, r2, r4, r8, sl}
     350:	16000013 			; <UNDEFINED> instruction: 0x16000013
     354:	0e030113 	mcreq	1, 0, r0, cr3, cr3, {0}
     358:	0b3a050b 	bleq	e8178c <__bss_end__+0xe77684>
     35c:	1301053b 	movwne	r0, #5435	; 0x153b
     360:	0d170000 	ldceq	0, cr0, [r7, #-0]
     364:	3a0e0300 	bcc	380f6c <__bss_end__+0x376e64>
     368:	49053b0b 	stmdbmi	r5, {r0, r1, r3, r8, r9, fp, ip, sp}
     36c:	000b3813 	andeq	r3, fp, r3, lsl r8
     370:	000d1800 	andeq	r1, sp, r0, lsl #16
     374:	0b3a0e03 	bleq	e83b88 <__bss_end__+0xe79a80>
     378:	1349053b 	movtne	r0, #38203	; 0x953b
     37c:	00000538 	andeq	r0, r0, r8, lsr r5
     380:	03011319 	movweq	r1, #4889	; 0x1319
     384:	3a0b0b0e 	bcc	2c2fc4 <__bss_end__+0x2b8ebc>
     388:	01053b0b 	tsteq	r5, fp, lsl #22
     38c:	1a000013 	bne	3e0 <_start-0x7c20>
     390:	0b0b0113 	bleq	2c07e4 <__bss_end__+0x2b66dc>
     394:	053b0b3a 	ldreq	r0, [fp, #-2874]!	; 0xb3a
     398:	00001301 	andeq	r1, r0, r1, lsl #6
     39c:	0b01171b 	bleq	46010 <__bss_end__+0x3bf08>
     3a0:	3b0b3a0b 	blcc	2cebd4 <__bss_end__+0x2c4acc>
     3a4:	00130105 	andseq	r0, r3, r5, lsl #2
     3a8:	000d1c00 	andeq	r1, sp, r0, lsl #24
     3ac:	0b3a0e03 	bleq	e83bc0 <__bss_end__+0xe79ab8>
     3b0:	1349053b 	movtne	r0, #38203	; 0x953b
     3b4:	151d0000 	ldrne	r0, [sp, #-0]
     3b8:	01192701 	tsteq	r9, r1, lsl #14
     3bc:	1e000013 	mcrne	0, 0, r0, cr0, cr3, {0}
     3c0:	0e030034 	mcreq	0, 0, r0, cr3, cr4, {1}
     3c4:	053b0b3a 	ldreq	r0, [fp, #-2874]!	; 0xb3a
     3c8:	193f1349 	ldmdbne	pc!, {r0, r3, r6, r8, r9, ip}	; <UNPREDICTABLE>
     3cc:	0000193c 	andeq	r1, r0, ip, lsr r9
     3d0:	0300341f 	movweq	r3, #1055	; 0x41f
     3d4:	3b0b3a0e 	blcc	2cec14 <__bss_end__+0x2c4b0c>
     3d8:	3f13490b 	svccc	0x0013490b
     3dc:	00193c19 	andseq	r3, r9, r9, lsl ip
     3e0:	01042000 	mrseq	r2, (UNDEF: 4)
     3e4:	13490b0b 	movtne	r0, #39691	; 0x9b0b
     3e8:	0b3b0b3a 	bleq	ec30d8 <__bss_end__+0xeb8fd0>
     3ec:	00001301 	andeq	r1, r0, r1, lsl #6
     3f0:	03002821 	movweq	r2, #2081	; 0x821
     3f4:	000b1c0e 	andeq	r1, fp, lr, lsl #24
     3f8:	000d2200 	andeq	r2, sp, r0, lsl #4
     3fc:	0b3a0e03 	bleq	e83c10 <__bss_end__+0xe79b08>
     400:	13490b3b 	movtne	r0, #39739	; 0x9b3b
     404:	0b0d0b0b 	bleq	343038 <__bss_end__+0x338f30>
     408:	0b380b0c 	bleq	e03040 <__bss_end__+0xdf8f38>
     40c:	0d230000 	stceq	0, cr0, [r3, #-0]
     410:	3a080300 	bcc	201018 <__bss_end__+0x1f6f10>
     414:	490b3b0b 	stmdbmi	fp, {r0, r1, r3, r8, r9, fp, ip, sp}
     418:	0d0b0b13 	vstreq	d0, [fp, #-76]	; 0xffffffb4
     41c:	380b0c0b 	stmdacc	fp, {r0, r1, r3, sl, fp}
     420:	2400000b 	strcs	r0, [r0], #-11
     424:	13490035 	movtne	r0, #36917	; 0x9035
     428:	34250000 	strtcc	r0, [r5], #-0
     42c:	3a080300 	bcc	201034 <__bss_end__+0x1f6f2c>
     430:	490b3b0b 	stmdbmi	fp, {r0, r1, r3, r8, r9, fp, ip, sp}
     434:	26000013 			; <UNDEFINED> instruction: 0x26000013
     438:	0e030034 	mcreq	0, 0, r0, cr3, cr4, {1}
     43c:	053b0b3a 	ldreq	r0, [fp, #-2874]!	; 0xb3a
     440:	18021349 	stmdane	r2, {r0, r3, r6, r8, r9, ip}
     444:	2e270000 	cdpcs	0, 2, cr0, cr7, cr0, {0}
     448:	3a0e0301 	bcc	381054 <__bss_end__+0x376f4c>
     44c:	27053b0b 	strcs	r3, [r5, -fp, lsl #22]
     450:	12011119 	andne	r1, r1, #1073741830	; 0x40000006
     454:	97184006 	ldrls	r4, [r8, -r6]
     458:	13011942 	movwne	r1, #6466	; 0x1942
     45c:	34280000 	strtcc	r0, [r8], #-0
     460:	490e0300 	stmdbmi	lr, {r8, r9}
     464:	02193413 	andseq	r3, r9, #318767104	; 0x13000000
     468:	29000018 	stmdbcs	r0, {r3, r4}
     46c:	1301010b 	movwne	r0, #4363	; 0x110b
     470:	172a0000 	strne	r0, [sl, -r0]!
     474:	0b080301 	bleq	201080 <__bss_end__+0x1f6f78>
     478:	3b0b3a0b 	blcc	2cecac <__bss_end__+0x2c4ba4>
     47c:	00130105 	andseq	r0, r3, r5, lsl #2
     480:	000d2b00 	andeq	r2, sp, r0, lsl #22
     484:	0b3a0803 	bleq	e82498 <__bss_end__+0xe78390>
     488:	1349053b 	movtne	r0, #38203	; 0x953b
     48c:	342c0000 	strtcc	r0, [ip], #-0
     490:	3a080300 	bcc	201098 <__bss_end__+0x1f6f90>
     494:	49053b0b 	stmdbmi	r5, {r0, r1, r3, r8, r9, fp, ip, sp}
     498:	2d000013 	stccs	0, cr0, [r0, #-76]	; 0xffffffb4
     49c:	0e030034 	mcreq	0, 0, r0, cr3, cr4, {1}
     4a0:	053b0b3a 	ldreq	r0, [fp, #-2874]!	; 0xb3a
     4a4:	00001349 	andeq	r1, r0, r9, asr #6
     4a8:	11010b2e 	tstne	r1, lr, lsr #22
     4ac:	00061201 	andeq	r1, r6, r1, lsl #4
     4b0:	00342f00 	eorseq	r2, r4, r0, lsl #30
     4b4:	0b3a0803 	bleq	e824c8 <__bss_end__+0xe783c0>
     4b8:	1349053b 	movtne	r0, #38203	; 0x953b
     4bc:	0000051c 	andeq	r0, r0, ip, lsl r5
     4c0:	3f012e30 	svccc	0x00012e30
     4c4:	3a0e0319 	bcc	381130 <__bss_end__+0x377028>
     4c8:	27053b0b 	strcs	r3, [r5, -fp, lsl #22]
     4cc:	12011119 	andne	r1, r1, #1073741830	; 0x40000006
     4d0:	97184006 	ldrls	r4, [r8, -r6]
     4d4:	13011942 	movwne	r1, #6466	; 0x1942
     4d8:	34310000 	ldrtcc	r0, [r1], #-0
     4dc:	3a080300 	bcc	2010e4 <__bss_end__+0x1f6fdc>
     4e0:	49053b0b 	stmdbmi	r5, {r0, r1, r3, r8, r9, fp, ip, sp}
     4e4:	000b1c13 	andeq	r1, fp, r3, lsl ip
     4e8:	82893200 	addhi	r3, r9, #0, 4
     4ec:	01110001 	tsteq	r1, r1
     4f0:	00001331 	andeq	r1, r0, r1, lsr r3
     4f4:	01828933 	orreq	r8, r2, r3, lsr r9
     4f8:	31011101 	tstcc	r1, r1, lsl #2
     4fc:	00130113 	andseq	r0, r3, r3, lsl r1
     500:	828a3400 	addhi	r3, sl, #0, 8
     504:	18020001 	stmdane	r2, {r0}
     508:	00184291 	mulseq	r8, r1, r2
     50c:	002e3500 	eoreq	r3, lr, r0, lsl #10
     510:	0e03193f 	mcreq	9, 0, r1, cr3, cr15, {1}
     514:	053b0b3a 	ldreq	r0, [fp, #-2874]!	; 0xb3a
     518:	13491927 	movtne	r1, #39207	; 0x9927
     51c:	06120111 			; <UNDEFINED> instruction: 0x06120111
     520:	42971840 	addsmi	r1, r7, #64, 16	; 0x400000
     524:	36000019 			; <UNDEFINED> instruction: 0x36000019
     528:	193f012e 	ldmdbne	pc!, {r1, r2, r3, r5, r8}	; <UNPREDICTABLE>
     52c:	0b3a0e03 	bleq	e83d40 <__bss_end__+0xe79c38>
     530:	1927053b 	stmdbne	r7!, {r0, r1, r3, r4, r5, r8, sl}
     534:	01111349 	tsteq	r1, r9, asr #6
     538:	18400612 	stmdane	r0, {r1, r4, r9, sl}^
     53c:	01194297 			; <UNDEFINED> instruction: 0x01194297
     540:	37000013 	smladcc	r0, r3, r0, r0
     544:	0e030005 	cdpeq	0, 0, cr0, cr3, cr5, {0}
     548:	053b0b3a 	ldreq	r0, [fp, #-2874]!	; 0xb3a
     54c:	17021349 	strne	r1, [r2, -r9, asr #6]
     550:	0b380000 	bleq	e00558 <__bss_end__+0xdf6450>
     554:	12011101 	andne	r1, r1, #1073741824	; 0x40000000
     558:	00130106 	andseq	r0, r3, r6, lsl #2
     55c:	00343900 	eorseq	r3, r4, r0, lsl #18
     560:	0b3a0803 	bleq	e82574 <__bss_end__+0xe7846c>
     564:	1349053b 	movtne	r0, #38203	; 0x953b
     568:	00001702 	andeq	r1, r0, r2, lsl #14
     56c:	03012e3a 	movweq	r2, #7738	; 0x1e3a
     570:	3b0b3a0e 	blcc	2cedb0 <__bss_end__+0x2c4ca8>
     574:	1119270b 	tstne	r9, fp, lsl #14
     578:	40061201 	andmi	r1, r6, r1, lsl #4
     57c:	19429718 	stmdbne	r2, {r3, r4, r8, r9, sl, ip, pc}^
     580:	00001301 	andeq	r1, r0, r1, lsl #6
     584:	0300053b 	movweq	r0, #1339	; 0x53b
     588:	3b0b3a0e 	blcc	2cedc8 <__bss_end__+0x2c4cc0>
     58c:	0213490b 	andseq	r4, r3, #180224	; 0x2c000
     590:	3c000017 	stccc	0, cr0, [r0], {23}
     594:	08030034 	stmdaeq	r3, {r2, r4, r5}
     598:	0b3b0b3a 	bleq	ec3288 <__bss_end__+0xeb9180>
     59c:	17021349 	strne	r1, [r2, -r9, asr #6]
     5a0:	173d0000 	ldrne	r0, [sp, -r0]!
     5a4:	0b080301 	bleq	2011b0 <__bss_end__+0x1f70a8>
     5a8:	3b0b3a0b 	blcc	2ceddc <__bss_end__+0x2c4cd4>
     5ac:	0013010b 	andseq	r0, r3, fp, lsl #2
     5b0:	000d3e00 	andeq	r3, sp, r0, lsl #28
     5b4:	0b3a0803 	bleq	e825c8 <__bss_end__+0xe784c0>
     5b8:	13490b3b 	movtne	r0, #39739	; 0x9b3b
     5bc:	893f0000 	ldmdbhi	pc!, {}	; <UNPREDICTABLE>
     5c0:	11010182 	smlabbne	r1, r2, r1, r0
     5c4:	00133101 	andseq	r3, r3, r1, lsl #2
     5c8:	012e4000 	teqeq	lr, r0
     5cc:	0b3a0e03 	bleq	e83de0 <__bss_end__+0xe79cd8>
     5d0:	19270b3b 	stmdbne	r7!, {r0, r1, r3, r4, r5, r8, r9, fp}
     5d4:	01111349 	tsteq	r1, r9, asr #6
     5d8:	18400612 	stmdane	r0, {r1, r4, r9, sl}^
     5dc:	01194297 			; <UNDEFINED> instruction: 0x01194297
     5e0:	41000013 	tstmi	r0, r3, lsl r0
     5e4:	08030005 	stmdaeq	r3, {r0, r2}
     5e8:	0b3b0b3a 	bleq	ec32d8 <__bss_end__+0xeb91d0>
     5ec:	17021349 	strne	r1, [r2, -r9, asr #6]
     5f0:	2e420000 	cdpcs	0, 4, cr0, cr2, cr0, {0}
     5f4:	3c193f00 	ldccc	15, cr3, [r9], {-0}
     5f8:	030e6e19 	movweq	r6, #60953	; 0xee19
     5fc:	3b0b3a0e 	blcc	2cee3c <__bss_end__+0x2c4d34>
     600:	0000000b 	andeq	r0, r0, fp
     604:	25011101 	strcs	r1, [r1, #-257]	; 0x101
     608:	030b130e 	movweq	r1, #45838	; 0xb30e
     60c:	110e1b0e 	tstne	lr, lr, lsl #22
     610:	10061201 	andne	r1, r6, r1, lsl #4
     614:	02000017 	andeq	r0, r0, #23
     618:	0e030016 	mcreq	0, 0, r0, cr3, cr6, {0}
     61c:	0b3b0b3a 	bleq	ec330c <__bss_end__+0xeb9204>
     620:	00001349 	andeq	r1, r0, r9, asr #6
     624:	03011303 	movweq	r1, #4867	; 0x1303
     628:	3a0b0b0e 	bcc	2c3268 <__bss_end__+0x2b9160>
     62c:	010b3b0b 	tsteq	fp, fp, lsl #22
     630:	04000013 	streq	r0, [r0], #-19
     634:	0e03000d 	cdpeq	0, 0, cr0, cr3, cr13, {0}
     638:	0b381349 	bleq	e05364 <__bss_end__+0xdfb25c>
     63c:	00001934 	andeq	r1, r0, r4, lsr r9
     640:	0b000f05 	bleq	425c <_start-0x3da4>
     644:	0600000b 	streq	r0, [r0], -fp
     648:	0b0b0024 	bleq	2c06e0 <__bss_end__+0x2b65d8>
     64c:	08030b3e 	stmdaeq	r3, {r1, r2, r3, r4, r5, r8, r9, fp}
     650:	24070000 	strcs	r0, [r7], #-0
     654:	3e0b0b00 	vmlacc.f64	d0, d11, d0
     658:	000e030b 	andeq	r0, lr, fp, lsl #6
     65c:	000f0800 	andeq	r0, pc, r0, lsl #16
     660:	13490b0b 	movtne	r0, #39691	; 0x9b0b
     664:	26090000 	strcs	r0, [r9], -r0
     668:	00134900 	andseq	r4, r3, r0, lsl #18
     66c:	012e0a00 	teqeq	lr, r0, lsl #20
     670:	0e03193f 	mcreq	9, 0, r1, cr3, cr15, {1}
     674:	0b3b0b3a 	bleq	ec3364 <__bss_end__+0xeb925c>
     678:	13491927 	movtne	r1, #39207	; 0x9927
     67c:	06120111 			; <UNDEFINED> instruction: 0x06120111
     680:	42971840 	addsmi	r1, r7, #64, 16	; 0x400000
     684:	00130119 	andseq	r0, r3, r9, lsl r1
     688:	00050b00 	andeq	r0, r5, r0, lsl #22
     68c:	0b3a0803 	bleq	e826a0 <__bss_end__+0xe78598>
     690:	13490b3b 	movtne	r0, #39739	; 0x9b3b
     694:	00001802 	andeq	r1, r0, r2, lsl #16
     698:	0000180c 	andeq	r1, r0, ip, lsl #16
     69c:	00340d00 	eorseq	r0, r4, r0, lsl #26
     6a0:	0b3a0803 	bleq	e826b4 <__bss_end__+0xe785ac>
     6a4:	13490b3b 	movtne	r0, #39739	; 0x9b3b
     6a8:	00001802 	andeq	r1, r0, r2, lsl #16
     6ac:	0300340e 	movweq	r3, #1038	; 0x40e
     6b0:	3b0b3a0e 	blcc	2ceef0 <__bss_end__+0x2c4de8>
     6b4:	0213490b 	andseq	r4, r3, #180224	; 0x2c000
     6b8:	0f000018 	svceq	0x00000018
     6bc:	08030034 	stmdaeq	r3, {r2, r4, r5}
     6c0:	0b3b0b3a 	bleq	ec33b0 <__bss_end__+0xeb92a8>
     6c4:	17021349 	strne	r1, [r2, -r9, asr #6]
     6c8:	89100000 	ldmdbhi	r0, {}	; <UNPREDICTABLE>
     6cc:	11010182 	smlabbne	r1, r2, r1, r0
     6d0:	01133101 	tsteq	r3, r1, lsl #2
     6d4:	11000013 	tstne	r0, r3, lsl r0
     6d8:	0001828a 	andeq	r8, r1, sl, lsl #5
     6dc:	42911802 	addsmi	r1, r1, #131072	; 0x20000
     6e0:	12000018 	andne	r0, r0, #24
     6e4:	01018289 	smlabbeq	r1, r9, r2, r8
     6e8:	00000111 	andeq	r0, r0, r1, lsl r1
     6ec:	49010113 	stmdbmi	r1, {r0, r1, r4, r8}
     6f0:	00130113 	andseq	r0, r3, r3, lsl r1
     6f4:	00211400 	eoreq	r1, r1, r0, lsl #8
     6f8:	052f1349 	streq	r1, [pc, #-841]!	; 3b7 <_start-0x7c49>
     6fc:	15150000 	ldrne	r0, [r5, #-0]
     700:	49192701 	ldmdbmi	r9, {r0, r8, r9, sl, sp}
     704:	00130113 	andseq	r0, r3, r3, lsl r1
     708:	00051600 	andeq	r1, r5, r0, lsl #12
     70c:	00001349 	andeq	r1, r0, r9, asr #6
     710:	03003417 	movweq	r3, #1047	; 0x417
     714:	3b0b3a0e 	blcc	2cef54 <__bss_end__+0x2c4e4c>
     718:	3f13490b 	svccc	0x0013490b
     71c:	00193c19 	andseq	r3, r9, r9, lsl ip
     720:	012e1800 	teqeq	lr, r0, lsl #16
     724:	0e03193f 	mcreq	9, 0, r1, cr3, cr15, {1}
     728:	0b3b0b3a 	bleq	ec3418 <__bss_end__+0xeb9310>
     72c:	13491927 	movtne	r1, #39207	; 0x9927
     730:	0000193c 	andeq	r1, r0, ip, lsr r9
     734:	01110100 	tsteq	r1, r0, lsl #2
     738:	0b130e25 	bleq	4c3fd4 <__bss_end__+0x4b9ecc>
     73c:	0e1b0e03 	cdpeq	14, 1, cr0, cr11, cr3, {0}
     740:	06120111 			; <UNDEFINED> instruction: 0x06120111
     744:	00001710 	andeq	r1, r0, r0, lsl r7
     748:	0b002402 	bleq	9758 <get32>
     74c:	030b3e0b 	movweq	r3, #48651	; 0xbe0b
     750:	03000008 	movweq	r0, #8
     754:	0b0b0024 	bleq	2c07ec <__bss_end__+0x2b66e4>
     758:	0e030b3e 	vmoveq.16	d3[0], r0
     75c:	2e040000 	cdpcs	0, 0, cr0, cr4, cr0, {0}
     760:	3a0e0301 	bcc	38136c <__bss_end__+0x377264>
     764:	270b3b0b 	strcs	r3, [fp, -fp, lsl #22]
     768:	11134919 	tstne	r3, r9, lsl r9
     76c:	40061201 	andmi	r1, r6, r1, lsl #4
     770:	19429718 	stmdbne	r2, {r3, r4, r8, r9, sl, ip, pc}^
     774:	00001301 	andeq	r1, r0, r1, lsl #6
     778:	03000505 	movweq	r0, #1285	; 0x505
     77c:	3b0b3a08 	blcc	2cefa4 <__bss_end__+0x2c4e9c>
     780:	0213490b 	andseq	r4, r3, #180224	; 0x2c000
     784:	06000017 			; <UNDEFINED> instruction: 0x06000017
     788:	01018289 	smlabbeq	r1, r9, r2, r8
     78c:	13310111 	teqne	r1, #1073741828	; 0x40000004
     790:	8a070000 	bhi	1c0798 <__bss_end__+0x1b6690>
     794:	02000182 	andeq	r0, r0, #-2147483616	; 0x80000020
     798:	18429118 	stmdane	r2, {r3, r4, r8, ip, pc}^
     79c:	2e080000 	cdpcs	0, 0, cr0, cr8, cr0, {0}
     7a0:	03193f00 	tsteq	r9, #0, 30
     7a4:	3b0b3a0e 	blcc	2cefe4 <__bss_end__+0x2c4edc>
     7a8:	1119270b 	tstne	r9, fp, lsl #14
     7ac:	40061201 	andmi	r1, r6, r1, lsl #4
     7b0:	19429718 	stmdbne	r2, {r3, r4, r8, r9, sl, ip, pc}^
     7b4:	2e090000 	cdpcs	0, 0, cr0, cr9, cr0, {0}
     7b8:	03193f01 	tsteq	r9, #1, 30
     7bc:	3b0b3a0e 	blcc	2ceffc <__bss_end__+0x2c4ef4>
     7c0:	1119270b 	tstne	r9, fp, lsl #14
     7c4:	40061201 	andmi	r1, r6, r1, lsl #4
     7c8:	19429718 	stmdbne	r2, {r3, r4, r8, r9, sl, ip, pc}^
     7cc:	00001301 	andeq	r1, r0, r1, lsl #6
     7d0:	0300050a 	movweq	r0, #1290	; 0x50a
     7d4:	3b0b3a08 	blcc	2ceffc <__bss_end__+0x2c4ef4>
     7d8:	0213490b 	andseq	r4, r3, #180224	; 0x2c000
     7dc:	0b000018 	bleq	844 <_start-0x77bc>
     7e0:	19270115 	stmdbne	r7!, {r0, r2, r4, r8}
     7e4:	13011349 	movwne	r1, #4937	; 0x1349
     7e8:	050c0000 	streq	r0, [ip, #-0]
     7ec:	00134900 	andseq	r4, r3, r0, lsl #18
     7f0:	000f0d00 	andeq	r0, pc, r0, lsl #26
     7f4:	13490b0b 	movtne	r0, #39691	; 0x9b0b
     7f8:	340e0000 	strcc	r0, [lr], #-0
     7fc:	3a0e0300 	bcc	381404 <__bss_end__+0x3772fc>
     800:	490b3b0b 	stmdbmi	fp, {r0, r1, r3, r8, r9, fp, ip, sp}
     804:	02193f13 	andseq	r3, r9, #19, 30	; 0x4c
     808:	0f000018 	svceq	0x00000018
     80c:	193f012e 	ldmdbne	pc!, {r1, r2, r3, r5, r8}	; <UNPREDICTABLE>
     810:	0b3a0e03 	bleq	e84024 <__bss_end__+0xe79f1c>
     814:	19270b3b 	stmdbne	r7!, {r0, r1, r3, r4, r5, r8, r9, fp}
     818:	0000193c 	andeq	r1, r0, ip, lsr r9
     81c:	01110100 	tsteq	r1, r0, lsl #2
     820:	0b130e25 	bleq	4c40bc <__bss_end__+0x4b9fb4>
     824:	0e1b0e03 	cdpeq	14, 1, cr0, cr11, cr3, {0}
     828:	06120111 			; <UNDEFINED> instruction: 0x06120111
     82c:	00001710 	andeq	r1, r0, r0, lsl r7
     830:	0b002402 	bleq	9840 <__FUNCTION__.4404>
     834:	030b3e0b 	movweq	r3, #48651	; 0xbe0b
     838:	03000008 	movweq	r0, #8
     83c:	0b0b0024 	bleq	2c08d4 <__bss_end__+0x2b67cc>
     840:	0e030b3e 	vmoveq.16	d3[0], r0
     844:	0f040000 	svceq	0x00040000
     848:	490b0b00 	stmdbmi	fp, {r8, r9, fp}
     84c:	05000013 	streq	r0, [r0, #-19]
     850:	13490026 	movtne	r0, #36902	; 0x9026
     854:	2e060000 	cdpcs	0, 0, cr0, cr6, cr0, {0}
     858:	03193f01 	tsteq	r9, #1, 30
     85c:	3b0b3a0e 	blcc	2cf09c <__bss_end__+0x2c4f94>
     860:	4919270b 	ldmdbmi	r9, {r0, r1, r3, r8, r9, sl, sp}
     864:	12011113 	andne	r1, r1, #-1073741820	; 0xc0000004
     868:	96184006 	ldrls	r4, [r8], -r6
     86c:	13011942 	movwne	r1, #6466	; 0x1942
     870:	05070000 	streq	r0, [r7, #-0]
     874:	3a080300 	bcc	20147c <__bss_end__+0x1f7374>
     878:	490b3b0b 	stmdbmi	fp, {r0, r1, r3, r8, r9, fp, ip, sp}
     87c:	00170213 	andseq	r0, r7, r3, lsl r2
     880:	01150800 	tsteq	r5, r0, lsl #16
     884:	13491927 	movtne	r1, #39207	; 0x9927
     888:	00001301 	andeq	r1, r0, r1, lsl #6
     88c:	49000509 	stmdbmi	r0, {r0, r3, r8, sl}
     890:	0a000013 	beq	8e4 <_start-0x771c>
     894:	0e030034 	mcreq	0, 0, r0, cr3, cr4, {1}
     898:	0b3b0b3a 	bleq	ec3588 <__bss_end__+0xeb9480>
     89c:	193f1349 	ldmdbne	pc!, {r0, r3, r6, r8, r9, ip}	; <UNPREDICTABLE>
     8a0:	0000193c 	andeq	r1, r0, ip, lsr r9
     8a4:	0300340b 	movweq	r3, #1035	; 0x40b
     8a8:	3b0b3a0e 	blcc	2cf0e8 <__bss_end__+0x2c4fe0>
     8ac:	3f13490b 	svccc	0x0013490b
     8b0:	00180219 	andseq	r0, r8, r9, lsl r2
     8b4:	11010000 	mrsne	r0, (UNDEF: 1)
     8b8:	130e2501 	movwne	r2, #58625	; 0xe501
     8bc:	1b0e030b 	blne	3814f0 <__bss_end__+0x3773e8>
     8c0:	1201110e 	andne	r1, r1, #-2147483645	; 0x80000003
     8c4:	00171006 	andseq	r1, r7, r6
     8c8:	00240200 	eoreq	r0, r4, r0, lsl #4
     8cc:	0b3e0b0b 	bleq	f83500 <__bss_end__+0xf793f8>
     8d0:	00000803 	andeq	r0, r0, r3, lsl #16
     8d4:	0b002403 	bleq	98e8 <__FUNCTION__.4427+0x9c>
     8d8:	030b3e0b 	movweq	r3, #48651	; 0xbe0b
     8dc:	0400000e 	streq	r0, [r0], #-14
     8e0:	0b0b000f 	bleq	2c0924 <__bss_end__+0x2b681c>
     8e4:	0f050000 	svceq	0x00050000
     8e8:	490b0b00 	stmdbmi	fp, {r8, r9, fp}
     8ec:	06000013 			; <UNDEFINED> instruction: 0x06000013
     8f0:	13490026 	movtne	r0, #36902	; 0x9026
     8f4:	16070000 	strne	r0, [r7], -r0
     8f8:	3a0e0300 	bcc	381500 <__bss_end__+0x3773f8>
     8fc:	490b3b0b 	stmdbmi	fp, {r0, r1, r3, r8, r9, fp, ip, sp}
     900:	08000013 	stmdaeq	r0, {r0, r1, r4}
     904:	0e030113 	mcreq	1, 0, r0, cr3, cr3, {0}
     908:	0b3a0b0b 	bleq	e8353c <__bss_end__+0xe79434>
     90c:	13010b3b 	movwne	r0, #6971	; 0x1b3b
     910:	0d090000 	stceq	0, cr0, [r9, #-0]
     914:	490e0300 	stmdbmi	lr, {r8, r9}
     918:	340b3813 	strcc	r3, [fp], #-2067	; 0x813
     91c:	0a000019 	beq	988 <_start-0x7678>
     920:	0e03012e 	adfeqsp	f0, f3, #0.5
     924:	0b3b0b3a 	bleq	ec3614 <__bss_end__+0xeb950c>
     928:	13491927 	movtne	r1, #39207	; 0x9927
     92c:	06120111 			; <UNDEFINED> instruction: 0x06120111
     930:	42971840 	addsmi	r1, r7, #64, 16	; 0x400000
     934:	00130119 	andseq	r0, r3, r9, lsl r1
     938:	00050b00 	andeq	r0, r5, r0, lsl #22
     93c:	0b3a0803 	bleq	e82950 <__bss_end__+0xe78848>
     940:	13490b3b 	movtne	r0, #39739	; 0x9b3b
     944:	00001702 	andeq	r1, r0, r2, lsl #14
     948:	03012e0c 	movweq	r2, #7692	; 0x1e0c
     94c:	3b0b3a08 	blcc	2cf174 <__bss_end__+0x2c506c>
     950:	4919270b 	ldmdbmi	r9, {r0, r1, r3, r8, r9, sl, sp}
     954:	12011113 	andne	r1, r1, #-1073741820	; 0xc0000004
     958:	97184006 	ldrls	r4, [r8, -r6]
     95c:	13011942 	movwne	r1, #6466	; 0x1942
     960:	050d0000 	streq	r0, [sp, #-0]
     964:	3a0e0300 	bcc	38156c <__bss_end__+0x377464>
     968:	490b3b0b 	stmdbmi	fp, {r0, r1, r3, r8, r9, fp, ip, sp}
     96c:	00170213 	andseq	r0, r7, r3, lsl r2
     970:	00050e00 	andeq	r0, r5, r0, lsl #28
     974:	0b3a0e03 	bleq	e84188 <__bss_end__+0xe7a080>
     978:	13490b3b 	movtne	r0, #39739	; 0x9b3b
     97c:	00001802 	andeq	r1, r0, r2, lsl #16
     980:	0300340f 	movweq	r3, #1039	; 0x40f
     984:	3b0b3a08 	blcc	2cf1ac <__bss_end__+0x2c50a4>
     988:	0213490b 	andseq	r4, r3, #180224	; 0x2c000
     98c:	10000018 	andne	r0, r0, r8, lsl r0
     990:	08030034 	stmdaeq	r3, {r2, r4, r5}
     994:	0b3b0b3a 	bleq	ec3684 <__bss_end__+0xeb957c>
     998:	17021349 	strne	r1, [r2, -r9, asr #6]
     99c:	34110000 	ldrcc	r0, [r1], #-0
     9a0:	490e0300 	stmdbmi	lr, {r8, r9}
     9a4:	02193413 	andseq	r3, r9, #318767104	; 0x13000000
     9a8:	12000018 	andne	r0, r0, #24
     9ac:	0111010b 	tsteq	r1, fp, lsl #2
     9b0:	13010612 	movwne	r0, #5650	; 0x1612
     9b4:	34130000 	ldrcc	r0, [r3], #-0
     9b8:	3a0e0300 	bcc	3815c0 <__bss_end__+0x3774b8>
     9bc:	490b3b0b 	stmdbmi	fp, {r0, r1, r3, r8, r9, fp, ip, sp}
     9c0:	00170213 	andseq	r0, r7, r3, lsl r2
     9c4:	82891400 	addhi	r1, r9, #0, 8
     9c8:	01110001 	tsteq	r1, r1
     9cc:	00001331 	andeq	r1, r0, r1, lsr r3
     9d0:	01828915 	orreq	r8, r2, r5, lsl r9
     9d4:	31011101 	tstcc	r1, r1, lsl #2
     9d8:	00130113 	andseq	r0, r3, r3, lsl r1
     9dc:	828a1600 	addhi	r1, sl, #0, 12
     9e0:	18020001 	stmdane	r2, {r0}
     9e4:	00184291 	mulseq	r8, r1, r2
     9e8:	82891700 	addhi	r1, r9, #0, 14
     9ec:	01110101 	tsteq	r1, r1, lsl #2
     9f0:	00001331 	andeq	r1, r0, r1, lsr r3
     9f4:	49010118 	stmdbmi	r1, {r3, r4, r8}
     9f8:	00130113 	andseq	r0, r3, r3, lsl r1
     9fc:	00211900 	eoreq	r1, r1, r0, lsl #18
     a00:	0b2f1349 	bleq	bc572c <__bss_end__+0xbbb624>
     a04:	2e1a0000 	cdpcs	0, 1, cr0, cr10, cr0, {0}
     a08:	03193f01 	tsteq	r9, #1, 30
     a0c:	3b0b3a0e 	blcc	2cf24c <__bss_end__+0x2c5144>
     a10:	1119270b 	tstne	r9, fp, lsl #14
     a14:	40061201 	andmi	r1, r6, r1, lsl #4
     a18:	19429718 	stmdbne	r2, {r3, r4, r8, r9, sl, ip, pc}^
     a1c:	00001301 	andeq	r1, r0, r1, lsl #6
     a20:	2701151b 	smladcs	r1, fp, r5, r1
     a24:	01134919 	tsteq	r3, r9, lsl r9
     a28:	1c000013 	stcne	0, cr0, [r0], {19}
     a2c:	13490005 	movtne	r0, #36869	; 0x9005
     a30:	2e1d0000 	cdpcs	0, 1, cr0, cr13, cr0, {0}
     a34:	03193f01 	tsteq	r9, #1, 30
     a38:	3b0b3a0e 	blcc	2cf278 <__bss_end__+0x2c5170>
     a3c:	4919270b 	ldmdbmi	r9, {r0, r1, r3, r8, r9, sl, sp}
     a40:	12011113 	andne	r1, r1, #-1073741820	; 0xc0000004
     a44:	97184006 	ldrls	r4, [r8, -r6]
     a48:	13011942 	movwne	r1, #6466	; 0x1942
     a4c:	0b1e0000 	bleq	780a54 <__bss_end__+0x77694c>
     a50:	00175501 	andseq	r5, r7, r1, lsl #10
     a54:	00341f00 	eorseq	r1, r4, r0, lsl #30
     a58:	0b3a0e03 	bleq	e8426c <__bss_end__+0xe7a164>
     a5c:	13490b3b 	movtne	r0, #39739	; 0x9b3b
     a60:	193c193f 	ldmdbne	ip!, {r0, r1, r2, r3, r4, r5, r8, fp, ip}
     a64:	2e200000 	cdpcs	0, 2, cr0, cr0, cr0, {0}
     a68:	03193f00 	tsteq	r9, #0, 30
     a6c:	3b0b3a0e 	blcc	2cf2ac <__bss_end__+0x2c51a4>
     a70:	3c19270b 	ldccc	7, cr2, [r9], {11}
     a74:	21000019 	tstcs	r0, r9, lsl r0
     a78:	193f012e 	ldmdbne	pc!, {r1, r2, r3, r5, r8}	; <UNPREDICTABLE>
     a7c:	0b3a0e03 	bleq	e84290 <__bss_end__+0xe7a188>
     a80:	19270b3b 	stmdbne	r7!, {r0, r1, r3, r4, r5, r8, r9, fp}
     a84:	193c1349 	ldmdbne	ip!, {r0, r3, r6, r8, r9, ip}
     a88:	00001301 	andeq	r1, r0, r1, lsl #6
     a8c:	00001822 	andeq	r1, r0, r2, lsr #16
     a90:	11010000 	mrsne	r0, (UNDEF: 1)
     a94:	130e2501 	movwne	r2, #58625	; 0xe501
     a98:	1b0e030b 	blne	3816cc <__bss_end__+0x3775c4>
     a9c:	1201110e 	andne	r1, r1, #-2147483645	; 0x80000003
     aa0:	00171006 	andseq	r1, r7, r6
     aa4:	00240200 	eoreq	r0, r4, r0, lsl #4
     aa8:	0b3e0b0b 	bleq	f836dc <__bss_end__+0xf795d4>
     aac:	00000803 	andeq	r0, r0, r3, lsl #16
     ab0:	0b002403 	bleq	9ac4 <__FUNCTION__.4407+0xe4>
     ab4:	030b3e0b 	movweq	r3, #48651	; 0xbe0b
     ab8:	0400000e 	streq	r0, [r0], #-14
     abc:	0b0b000f 	bleq	2c0b00 <__bss_end__+0x2b69f8>
     ac0:	00001349 	andeq	r1, r0, r9, asr #6
     ac4:	49002605 	stmdbmi	r0, {r0, r2, r9, sl, sp}
     ac8:	06000013 			; <UNDEFINED> instruction: 0x06000013
     acc:	193f012e 	ldmdbne	pc!, {r1, r2, r3, r5, r8}	; <UNPREDICTABLE>
     ad0:	0b3a0e03 	bleq	e842e4 <__bss_end__+0xe7a1dc>
     ad4:	19270b3b 	stmdbne	r7!, {r0, r1, r3, r4, r5, r8, r9, fp}
     ad8:	06120111 			; <UNDEFINED> instruction: 0x06120111
     adc:	42971840 	addsmi	r1, r7, #64, 16	; 0x400000
     ae0:	00130119 	andseq	r0, r3, r9, lsl r1
     ae4:	82890700 	addhi	r0, r9, #0, 14
     ae8:	01110101 	tsteq	r1, r1, lsl #2
     aec:	00001301 	andeq	r1, r0, r1, lsl #6
     af0:	01828a08 	orreq	r8, r2, r8, lsl #20
     af4:	91180200 	tstls	r8, r0, lsl #4
     af8:	00001842 	andeq	r1, r0, r2, asr #16
     afc:	01828909 	orreq	r8, r2, r9, lsl #18
     b00:	31011101 	tstcc	r1, r1, lsl #2
     b04:	00130113 	andseq	r0, r3, r3, lsl r1
     b08:	82890a00 	addhi	r0, r9, #0, 20
     b0c:	01110001 	tsteq	r1, r1
     b10:	00001331 	andeq	r1, r0, r1, lsr r3
     b14:	2701150b 	strcs	r1, [r1, -fp, lsl #10]
     b18:	01134919 	tsteq	r3, r9, lsl r9
     b1c:	0c000013 	stceq	0, cr0, [r0], {19}
     b20:	13490005 	movtne	r0, #36869	; 0x9005
     b24:	340d0000 	strcc	r0, [sp], #-0
     b28:	3a0e0300 	bcc	381730 <__bss_end__+0x377628>
     b2c:	490b3b0b 	stmdbmi	fp, {r0, r1, r3, r8, r9, fp, ip, sp}
     b30:	3c193f13 	ldccc	15, cr3, [r9], {19}
     b34:	0e000019 	mcreq	0, 0, r0, cr0, cr9, {0}
     b38:	193f012e 	ldmdbne	pc!, {r1, r2, r3, r5, r8}	; <UNPREDICTABLE>
     b3c:	0b3a0e03 	bleq	e84350 <__bss_end__+0xe7a248>
     b40:	19270b3b 	stmdbne	r7!, {r0, r1, r3, r4, r5, r8, r9, fp}
     b44:	1301193c 	movwne	r1, #6460	; 0x193c
     b48:	2e0f0000 	cdpcs	0, 0, cr0, cr15, cr0, {0}
     b4c:	03193f00 	tsteq	r9, #0, 30
     b50:	3b0b3a0e 	blcc	2cf390 <__bss_end__+0x2c5288>
     b54:	3c19270b 	ldccc	7, cr2, [r9], {11}
     b58:	00000019 	andeq	r0, r0, r9, lsl r0
     b5c:	25011101 	strcs	r1, [r1, #-257]	; 0x101
     b60:	030b130e 	movweq	r1, #45838	; 0xb30e
     b64:	110e1b0e 	tstne	lr, lr, lsl #22
     b68:	10061201 	andne	r1, r6, r1, lsl #4
     b6c:	02000017 	andeq	r0, r0, #23
     b70:	0b0b0024 	bleq	2c0c08 <__bss_end__+0x2b6b00>
     b74:	08030b3e 	stmdaeq	r3, {r1, r2, r3, r4, r5, r8, r9, fp}
     b78:	24030000 	strcs	r0, [r3], #-0
     b7c:	3e0b0b00 	vmlacc.f64	d0, d11, d0
     b80:	000e030b 	andeq	r0, lr, fp, lsl #6
     b84:	012e0400 	teqeq	lr, r0, lsl #8
     b88:	0e03193f 	mcreq	9, 0, r1, cr3, cr15, {1}
     b8c:	0b3b0b3a 	bleq	ec387c <__bss_end__+0xeb9774>
     b90:	06120111 			; <UNDEFINED> instruction: 0x06120111
     b94:	42971840 	addsmi	r1, r7, #64, 16	; 0x400000
     b98:	00130119 	andseq	r0, r3, r9, lsl r1
     b9c:	00340500 	eorseq	r0, r4, r0, lsl #10
     ba0:	0b3a0e03 	bleq	e843b4 <__bss_end__+0xe7a2ac>
     ba4:	13490b3b 	movtne	r0, #39739	; 0x9b3b
     ba8:	193c193f 	ldmdbne	ip!, {r0, r1, r2, r3, r4, r5, r8, fp, ip}
     bac:	2e060000 	cdpcs	0, 0, cr0, cr6, cr0, {0}
     bb0:	03193f00 	tsteq	r9, #0, 30
     bb4:	3b0b3a0e 	blcc	2cf3f4 <__bss_end__+0x2c52ec>
     bb8:	3c19270b 	ldccc	7, cr2, [r9], {11}
     bbc:	07000019 	smladeq	r0, r9, r0, r0
     bc0:	08030034 	stmdaeq	r3, {r2, r4, r5}
     bc4:	0b3b0b3a 	bleq	ec38b4 <__bss_end__+0xeb97ac>
     bc8:	17021349 	strne	r1, [r2, -r9, asr #6]
     bcc:	34080000 	strcc	r0, [r8], #-0
     bd0:	3a0e0300 	bcc	3817d8 <__bss_end__+0x3776d0>
     bd4:	490b3b0b 	stmdbmi	fp, {r0, r1, r3, r8, r9, fp, ip, sp}
     bd8:	09000013 	stmdbeq	r0, {r0, r1, r4}
     bdc:	00018289 	andeq	r8, r1, r9, lsl #5
     be0:	13310111 	teqne	r1, #1073741828	; 0x40000004
     be4:	0f0a0000 	svceq	0x000a0000
     be8:	490b0b00 	stmdbmi	fp, {r8, r9, fp}
     bec:	00000013 	andeq	r0, r0, r3, lsl r0
     bf0:	25011101 	strcs	r1, [r1, #-257]	; 0x101
     bf4:	030b130e 	movweq	r1, #45838	; 0xb30e
     bf8:	550e1b0e 	strpl	r1, [lr, #-2830]	; 0xb0e
     bfc:	10011117 	andne	r1, r1, r7, lsl r1
     c00:	02000017 	andeq	r0, r0, #23
     c04:	0b0b0024 	bleq	2c0c9c <__bss_end__+0x2b6b94>
     c08:	08030b3e 	stmdaeq	r3, {r1, r2, r3, r4, r5, r8, r9, fp}
     c0c:	24030000 	strcs	r0, [r3], #-0
     c10:	3e0b0b00 	vmlacc.f64	d0, d11, d0
     c14:	000e030b 	andeq	r0, lr, fp, lsl #6
     c18:	012e0400 	teqeq	lr, r0, lsl #8
     c1c:	0e03193f 	mcreq	9, 0, r1, cr3, cr15, {1}
     c20:	0b3b0b3a 	bleq	ec3910 <__bss_end__+0xeb9808>
     c24:	13491927 	movtne	r1, #39207	; 0x9927
     c28:	06120111 			; <UNDEFINED> instruction: 0x06120111
     c2c:	42971840 	addsmi	r1, r7, #64, 16	; 0x400000
     c30:	00130119 	andseq	r0, r3, r9, lsl r1
     c34:	00340500 	eorseq	r0, r4, r0, lsl #10
     c38:	0b3a0e03 	bleq	e8444c <__bss_end__+0xe7a344>
     c3c:	13490b3b 	movtne	r0, #39739	; 0x9b3b
     c40:	00001702 	andeq	r1, r0, r2, lsl #14
     c44:	3f012e06 	svccc	0x00012e06
     c48:	3a0e0319 	bcc	3818b4 <__bss_end__+0x3777ac>
     c4c:	270b3b0b 	strcs	r3, [fp, -fp, lsl #22]
     c50:	12011119 	andne	r1, r1, #1073741830	; 0x40000006
     c54:	97184006 	ldrls	r4, [r8, -r6]
     c58:	13011942 	movwne	r1, #6466	; 0x1942
     c5c:	34070000 	strcc	r0, [r7], #-0
     c60:	3a0e0300 	bcc	381868 <__bss_end__+0x377760>
     c64:	490b3b0b 	stmdbmi	fp, {r0, r1, r3, r8, r9, fp, ip, sp}
     c68:	00061c13 	andeq	r1, r6, r3, lsl ip
     c6c:	00340800 	eorseq	r0, r4, r0, lsl #16
     c70:	0b3a0e03 	bleq	e84484 <__bss_end__+0xe7a37c>
     c74:	13490b3b 	movtne	r0, #39739	; 0x9b3b
     c78:	00000b1c 	andeq	r0, r0, ip, lsl fp
     c7c:	01828909 	orreq	r8, r2, r9, lsl #18
     c80:	31011100 	mrscc	r1, (UNDEF: 17)
     c84:	0a000013 	beq	cd8 <_start-0x7328>
     c88:	01018289 	smlabbeq	r1, r9, r2, r8
     c8c:	13310111 	teqne	r1, #1073741828	; 0x40000004
     c90:	00001301 	andeq	r1, r0, r1, lsl #6
     c94:	01828a0b 	orreq	r8, r2, fp, lsl #20
     c98:	91180200 	tstls	r8, r0, lsl #4
     c9c:	00001842 	andeq	r1, r0, r2, asr #16
     ca0:	0182890c 	orreq	r8, r2, ip, lsl #18
     ca4:	31011101 	tstcc	r1, r1, lsl #2
     ca8:	0d000013 	stceq	0, cr0, [r0, #-76]	; 0xffffffb4
     cac:	13490026 	movtne	r0, #36902	; 0x9026
     cb0:	2e0e0000 	cdpcs	0, 0, cr0, cr14, cr0, {0}
     cb4:	03193f01 	tsteq	r9, #1, 30
     cb8:	3b0b3a0e 	blcc	2cf4f8 <__bss_end__+0x2c53f0>
     cbc:	3c19270b 	ldccc	7, cr2, [r9], {11}
     cc0:	00130119 	andseq	r0, r3, r9, lsl r1
     cc4:	00050f00 	andeq	r0, r5, r0, lsl #30
     cc8:	00001349 	andeq	r1, r0, r9, asr #6
     ccc:	3f012e10 	svccc	0x00012e10
     cd0:	3a0e0319 	bcc	38193c <__bss_end__+0x377834>
     cd4:	270b3b0b 	strcs	r3, [fp, -fp, lsl #22]
     cd8:	00193c19 	andseq	r3, r9, r9, lsl ip
     cdc:	11010000 	mrsne	r0, (UNDEF: 1)
     ce0:	130e2501 	movwne	r2, #58625	; 0xe501
     ce4:	1b0e030b 	blne	381918 <__bss_end__+0x377810>
     ce8:	1201110e 	andne	r1, r1, #-2147483645	; 0x80000003
     cec:	00171006 	andseq	r1, r7, r6
     cf0:	00240200 	eoreq	r0, r4, r0, lsl #4
     cf4:	0b3e0b0b 	bleq	f83928 <__bss_end__+0xf79820>
     cf8:	00000803 	andeq	r0, r0, r3, lsl #16
     cfc:	0b002403 	bleq	9d10 <buf.4219+0x8>
     d00:	030b3e0b 	movweq	r3, #48651	; 0xbe0b
     d04:	0400000e 	streq	r0, [r0], #-14
     d08:	193f012e 	ldmdbne	pc!, {r1, r2, r3, r5, r8}	; <UNPREDICTABLE>
     d0c:	0b3a0e03 	bleq	e84520 <__bss_end__+0xe7a418>
     d10:	19270b3b 	stmdbne	r7!, {r0, r1, r3, r4, r5, r8, r9, fp}
     d14:	06120111 			; <UNDEFINED> instruction: 0x06120111
     d18:	42971840 	addsmi	r1, r7, #64, 16	; 0x400000
     d1c:	00130119 	andseq	r0, r3, r9, lsl r1
     d20:	00050500 	andeq	r0, r5, r0, lsl #10
     d24:	0b3a0e03 	bleq	e84538 <__bss_end__+0xe7a430>
     d28:	13490b3b 	movtne	r0, #39739	; 0x9b3b
     d2c:	00001702 	andeq	r1, r0, r2, lsl #14
     d30:	3f012e06 	svccc	0x00012e06
     d34:	3a0e0319 	bcc	3819a0 <__bss_end__+0x377898>
     d38:	270b3b0b 	strcs	r3, [fp, -fp, lsl #22]
     d3c:	11134919 	tstne	r3, r9, lsl r9
     d40:	40061201 	andmi	r1, r6, r1, lsl #4
     d44:	19429718 	stmdbne	r2, {r3, r4, r8, r9, sl, ip, pc}^
     d48:	00001301 	andeq	r1, r0, r1, lsl #6
     d4c:	01828907 	orreq	r8, r2, r7, lsl #18
     d50:	31011101 	tstcc	r1, r1, lsl #2
     d54:	08000013 	stmdaeq	r0, {r0, r1, r4}
     d58:	0001828a 	andeq	r8, r1, sl, lsl #5
     d5c:	42911802 	addsmi	r1, r1, #131072	; 0x20000
     d60:	09000018 	stmdbeq	r0, {r3, r4}
     d64:	08030034 	stmdaeq	r3, {r2, r4, r5}
     d68:	0b3b0b3a 	bleq	ec3a58 <__bss_end__+0xeb9950>
     d6c:	18021349 	stmdane	r2, {r0, r3, r6, r8, r9, ip}
     d70:	890a0000 	stmdbhi	sl, {}	; <UNPREDICTABLE>
     d74:	11000182 	smlabbne	r0, r2, r1, r0
     d78:	00133101 	andseq	r3, r3, r1, lsl #2
     d7c:	00050b00 	andeq	r0, r5, r0, lsl #22
     d80:	0b3a0803 	bleq	e82d94 <__bss_end__+0xe78c8c>
     d84:	13490b3b 	movtne	r0, #39739	; 0x9b3b
     d88:	00001702 	andeq	r1, r0, r2, lsl #14
     d8c:	11010b0c 	tstne	r1, ip, lsl #22
     d90:	01061201 	tsteq	r6, r1, lsl #4
     d94:	0d000013 	stceq	0, cr0, [r0, #-76]	; 0xffffffb4
     d98:	08030034 	stmdaeq	r3, {r2, r4, r5}
     d9c:	0b3b0b3a 	bleq	ec3a8c <__bss_end__+0xeb9984>
     da0:	17021349 	strne	r1, [r2, -r9, asr #6]
     da4:	2e0e0000 	cdpcs	0, 0, cr0, cr14, cr0, {0}
     da8:	03193f01 	tsteq	r9, #1, 30
     dac:	3b0b3a0e 	blcc	2cf5ec <__bss_end__+0x2c54e4>
     db0:	4919270b 	ldmdbmi	r9, {r0, r1, r3, r8, r9, sl, sp}
     db4:	00193c13 	andseq	r3, r9, r3, lsl ip
     db8:	00050f00 	andeq	r0, r5, r0, lsl #30
     dbc:	00001349 	andeq	r1, r0, r9, asr #6
     dc0:	01110100 	tsteq	r1, r0, lsl #2
     dc4:	0b130e25 	bleq	4c4660 <__bss_end__+0x4ba558>
     dc8:	0e1b0e03 	cdpeq	14, 1, cr0, cr11, cr3, {0}
     dcc:	06120111 			; <UNDEFINED> instruction: 0x06120111
     dd0:	00001710 	andeq	r1, r0, r0, lsl r7
     dd4:	0b002402 	bleq	9de4 <buf.4219+0xdc>
     dd8:	030b3e0b 	movweq	r3, #48651	; 0xbe0b
     ddc:	0300000e 	movweq	r0, #14
     de0:	0b0b0024 	bleq	2c0e78 <__bss_end__+0x2b6d70>
     de4:	08030b3e 	stmdaeq	r3, {r1, r2, r3, r4, r5, r8, r9, fp}
     de8:	04040000 	streq	r0, [r4], #-0
     dec:	3a0b0b01 	bcc	2c39f8 <__bss_end__+0x2b98f0>
     df0:	010b3b0b 	tsteq	fp, fp, lsl #22
     df4:	05000013 	streq	r0, [r0, #-19]
     df8:	0e030028 	cdpeq	0, 0, cr0, cr3, cr8, {1}
     dfc:	00000d1c 	andeq	r0, r0, ip, lsl sp
     e00:	03001606 	movweq	r1, #1542	; 0x606
     e04:	3b0b3a0e 	blcc	2cf644 <__bss_end__+0x2c553c>
     e08:	0013490b 	andseq	r4, r3, fp, lsl #18
     e0c:	012e0700 	teqeq	lr, r0, lsl #14
     e10:	0e03193f 	mcreq	9, 0, r1, cr3, cr15, {1}
     e14:	0b3b0b3a 	bleq	ec3b04 <__bss_end__+0xeb99fc>
     e18:	01111927 	tsteq	r1, r7, lsr #18
     e1c:	18400612 	stmdane	r0, {r1, r4, r9, sl}^
     e20:	01194297 			; <UNDEFINED> instruction: 0x01194297
     e24:	08000013 	stmdaeq	r0, {r0, r1, r4}
     e28:	08030005 	stmdaeq	r3, {r0, r2}
     e2c:	0b3b0b3a 	bleq	ec3b1c <__bss_end__+0xeb9a14>
     e30:	17021349 	strne	r1, [r2, -r9, asr #6]
     e34:	34090000 	strcc	r0, [r9], #-0
     e38:	3a0e0300 	bcc	381a40 <__bss_end__+0x377938>
     e3c:	490b3b0b 	stmdbmi	fp, {r0, r1, r3, r8, r9, fp, ip, sp}
     e40:	00170213 	andseq	r0, r7, r3, lsl r2
     e44:	82890a00 	addhi	r0, r9, #0, 20
     e48:	01110101 	tsteq	r1, r1, lsl #2
     e4c:	13011331 	movwne	r1, #4913	; 0x1331
     e50:	8a0b0000 	bhi	2c0e58 <__bss_end__+0x2b6d50>
     e54:	02000182 	andeq	r0, r0, #-2147483616	; 0x80000020
     e58:	18429118 	stmdane	r2, {r3, r4, r8, ip, pc}^
     e5c:	890c0000 	stmdbhi	ip, {}	; <UNPREDICTABLE>
     e60:	11010182 	smlabbne	r1, r2, r1, r0
     e64:	00133101 	andseq	r3, r3, r1, lsl #2
     e68:	000f0d00 	andeq	r0, pc, r0, lsl #26
     e6c:	13490b0b 	movtne	r0, #39691	; 0x9b0b
     e70:	350e0000 	strcc	r0, [lr, #-0]
     e74:	00134900 	andseq	r4, r3, r0, lsl #18
     e78:	012e0f00 	teqeq	lr, r0, lsl #30
     e7c:	0e03193f 	mcreq	9, 0, r1, cr3, cr15, {1}
     e80:	0b3b0b3a 	bleq	ec3b70 <__bss_end__+0xeb9a68>
     e84:	13491927 	movtne	r1, #39207	; 0x9927
     e88:	06120111 			; <UNDEFINED> instruction: 0x06120111
     e8c:	42971840 	addsmi	r1, r7, #64, 16	; 0x400000
     e90:	00130119 	andseq	r0, r3, r9, lsl r1
     e94:	00341000 	eorseq	r1, r4, r0
     e98:	0b3a0803 	bleq	e82eac <__bss_end__+0xe78da4>
     e9c:	13490b3b 	movtne	r0, #39739	; 0x9b3b
     ea0:	00001702 	andeq	r1, r0, r2, lsl #14
     ea4:	01828911 	orreq	r8, r2, r1, lsl r9
     ea8:	31011100 	mrscc	r1, (UNDEF: 17)
     eac:	12000013 	andne	r0, r0, #19
     eb0:	0e030005 	cdpeq	0, 0, cr0, cr3, cr5, {0}
     eb4:	0b3b0b3a 	bleq	ec3ba4 <__bss_end__+0xeb9a9c>
     eb8:	17021349 	strne	r1, [r2, -r9, asr #6]
     ebc:	2e130000 	cdpcs	0, 1, cr0, cr3, cr0, {0}
     ec0:	03193f01 	tsteq	r9, #1, 30
     ec4:	3b0b3a0e 	blcc	2cf704 <__bss_end__+0x2c55fc>
     ec8:	49192705 	ldmdbmi	r9, {r0, r2, r8, r9, sl, sp}
     ecc:	12011113 	andne	r1, r1, #-1073741820	; 0xc0000004
     ed0:	97184006 	ldrls	r4, [r8, -r6]
     ed4:	13011942 	movwne	r1, #6466	; 0x1942
     ed8:	05140000 	ldreq	r0, [r4, #-0]
     edc:	3a0e0300 	bcc	381ae4 <__bss_end__+0x3779dc>
     ee0:	49053b0b 	stmdbmi	r5, {r0, r1, r3, r8, r9, fp, ip, sp}
     ee4:	00170213 	andseq	r0, r7, r3, lsl r2
     ee8:	012e1500 	teqeq	lr, r0, lsl #10
     eec:	0e03193f 	mcreq	9, 0, r1, cr3, cr15, {1}
     ef0:	053b0b3a 	ldreq	r0, [fp, #-2874]!	; 0xb3a
     ef4:	01111927 	tsteq	r1, r7, lsr #18
     ef8:	18400612 	stmdane	r0, {r1, r4, r9, sl}^
     efc:	01194297 			; <UNDEFINED> instruction: 0x01194297
     f00:	16000013 			; <UNDEFINED> instruction: 0x16000013
     f04:	08030005 	stmdaeq	r3, {r0, r2}
     f08:	053b0b3a 	ldreq	r0, [fp, #-2874]!	; 0xb3a
     f0c:	17021349 	strne	r1, [r2, -r9, asr #6]
     f10:	34170000 	ldrcc	r0, [r7], #-0
     f14:	3a0e0300 	bcc	381b1c <__bss_end__+0x377a14>
     f18:	49053b0b 	stmdbmi	r5, {r0, r1, r3, r8, r9, fp, ip, sp}
     f1c:	00170213 	andseq	r0, r7, r3, lsl r2
     f20:	010b1800 	tsteq	fp, r0, lsl #16
     f24:	06120111 			; <UNDEFINED> instruction: 0x06120111
     f28:	00001301 	andeq	r1, r0, r1, lsl #6
     f2c:	03003419 	movweq	r3, #1049	; 0x419
     f30:	3b0b3a0e 	blcc	2cf770 <__bss_end__+0x2c5668>
     f34:	3f13490b 	svccc	0x0013490b
     f38:	00180219 	andseq	r0, r8, r9, lsl r2
     f3c:	00341a00 	eorseq	r1, r4, r0, lsl #20
     f40:	0b3a0e03 	bleq	e84754 <__bss_end__+0xe7a64c>
     f44:	1349053b 	movtne	r0, #38203	; 0x953b
     f48:	1802193f 	stmdane	r2, {r0, r1, r2, r3, r4, r5, r8, fp, ip}
     f4c:	2e1b0000 	cdpcs	0, 1, cr0, cr11, cr0, {0}
     f50:	03193f01 	tsteq	r9, #1, 30
     f54:	3b0b3a0e 	blcc	2cf794 <__bss_end__+0x2c568c>
     f58:	4919270b 	ldmdbmi	r9, {r0, r1, r3, r8, r9, sl, sp}
     f5c:	01193c13 	tsteq	r9, r3, lsl ip
     f60:	1c000013 	stcne	0, cr0, [r0], {19}
     f64:	13490005 	movtne	r0, #36869	; 0x9005
     f68:	261d0000 	ldrcs	r0, [sp], -r0
     f6c:	00134900 	andseq	r4, r3, r0, lsl #18
     f70:	00351e00 	eorseq	r1, r5, r0, lsl #28
     f74:	2e1f0000 	cdpcs	0, 1, cr0, cr15, cr0, {0}
     f78:	03193f01 	tsteq	r9, #1, 30
     f7c:	3b0b3a0e 	blcc	2cf7bc <__bss_end__+0x2c56b4>
     f80:	3c19270b 	ldccc	7, cr2, [r9], {11}
     f84:	00130119 	andseq	r0, r3, r9, lsl r1
     f88:	002e2000 	eoreq	r2, lr, r0
     f8c:	0e03193f 	mcreq	9, 0, r1, cr3, cr15, {1}
     f90:	0b3b0b3a 	bleq	ec3c80 <__bss_end__+0xeb9b78>
     f94:	193c1927 	ldmdbne	ip!, {r0, r1, r2, r5, r8, fp, ip}
     f98:	01000000 	mrseq	r0, (UNDEF: 0)
     f9c:	0e250111 	mcreq	1, 1, r0, cr5, cr1, {0}
     fa0:	0e030b13 	vmoveq.32	d3[0], r0
     fa4:	01110e1b 	tsteq	r1, fp, lsl lr
     fa8:	17100612 			; <UNDEFINED> instruction: 0x17100612
     fac:	24020000 	strcs	r0, [r2], #-0
     fb0:	3e0b0b00 	vmlacc.f64	d0, d11, d0
     fb4:	0008030b 	andeq	r0, r8, fp, lsl #6
     fb8:	00240300 	eoreq	r0, r4, r0, lsl #6
     fbc:	0b3e0b0b 	bleq	f83bf0 <__bss_end__+0xf79ae8>
     fc0:	00000e03 	andeq	r0, r0, r3, lsl #28
     fc4:	0b010404 	bleq	41fdc <__bss_end__+0x37ed4>
     fc8:	3b0b3a0b 	blcc	2cf7fc <__bss_end__+0x2c56f4>
     fcc:	0013010b 	andseq	r0, r3, fp, lsl #2
     fd0:	00280500 	eoreq	r0, r8, r0, lsl #10
     fd4:	0d1c0e03 	ldceq	14, cr0, [ip, #-12]
     fd8:	16060000 	strne	r0, [r6], -r0
     fdc:	3a0e0300 	bcc	381be4 <__bss_end__+0x377adc>
     fe0:	490b3b0b 	stmdbmi	fp, {r0, r1, r3, r8, r9, fp, ip, sp}
     fe4:	07000013 	smladeq	r0, r3, r0, r0
     fe8:	193f012e 	ldmdbne	pc!, {r1, r2, r3, r5, r8}	; <UNPREDICTABLE>
     fec:	0b3a0e03 	bleq	e84800 <__bss_end__+0xe7a6f8>
     ff0:	19270b3b 	stmdbne	r7!, {r0, r1, r3, r4, r5, r8, r9, fp}
     ff4:	06120111 			; <UNDEFINED> instruction: 0x06120111
     ff8:	42971840 	addsmi	r1, r7, #64, 16	; 0x400000
     ffc:	00130119 	andseq	r0, r3, r9, lsl r1
    1000:	82890800 	addhi	r0, r9, #0, 16
    1004:	01110001 	tsteq	r1, r1
    1008:	00001331 	andeq	r1, r0, r1, lsr r3
    100c:	01828909 	orreq	r8, r2, r9, lsl #18
    1010:	31011101 	tstcc	r1, r1, lsl #2
    1014:	00130113 	andseq	r0, r3, r3, lsl r1
    1018:	828a0a00 	addhi	r0, sl, #0, 20
    101c:	18020001 	stmdane	r2, {r0}
    1020:	00184291 	mulseq	r8, r1, r2
    1024:	012e0b00 	teqeq	lr, r0, lsl #22
    1028:	0e03193f 	mcreq	9, 0, r1, cr3, cr15, {1}
    102c:	0b3b0b3a 	bleq	ec3d1c <__bss_end__+0xeb9c14>
    1030:	13491927 	movtne	r1, #39207	; 0x9927
    1034:	06120111 			; <UNDEFINED> instruction: 0x06120111
    1038:	42971840 	addsmi	r1, r7, #64, 16	; 0x400000
    103c:	00130119 	andseq	r0, r3, r9, lsl r1
    1040:	00050c00 	andeq	r0, r5, r0, lsl #24
    1044:	0b3a0803 	bleq	e83058 <__bss_end__+0xe78f50>
    1048:	13490b3b 	movtne	r0, #39739	; 0x9b3b
    104c:	00001702 	andeq	r1, r0, r2, lsl #14
    1050:	0182890d 	orreq	r8, r2, sp, lsl #18
    1054:	31011101 	tstcc	r1, r1, lsl #2
    1058:	0e000013 	mcreq	0, 0, r0, cr0, cr3, {0}
    105c:	0e030034 	mcreq	0, 0, r0, cr3, cr4, {1}
    1060:	0b3b0b3a 	bleq	ec3d50 <__bss_end__+0xeb9c48>
    1064:	193f1349 	ldmdbne	pc!, {r0, r3, r6, r8, r9, ip}	; <UNPREDICTABLE>
    1068:	00001802 	andeq	r1, r0, r2, lsl #16
    106c:	0b000f0f 	bleq	4cb0 <_start-0x3350>
    1070:	0013490b 	andseq	r4, r3, fp, lsl #18
    1074:	00351000 	eorseq	r1, r5, r0
    1078:	00001349 	andeq	r1, r0, r9, asr #6
    107c:	3f002e11 	svccc	0x00002e11
    1080:	3a0e0319 	bcc	381cec <__bss_end__+0x377be4>
    1084:	270b3b0b 	strcs	r3, [fp, -fp, lsl #22]
    1088:	00193c19 	andseq	r3, r9, r9, lsl ip
    108c:	012e1200 	teqeq	lr, r0, lsl #4
    1090:	0e03193f 	mcreq	9, 0, r1, cr3, cr15, {1}
    1094:	0b3b0b3a 	bleq	ec3d84 <__bss_end__+0xeb9c7c>
    1098:	193c1927 	ldmdbne	ip!, {r0, r1, r2, r5, r8, fp, ip}
    109c:	00001301 	andeq	r1, r0, r1, lsl #6
    10a0:	49000513 	stmdbmi	r0, {r0, r1, r4, r8, sl}
    10a4:	14000013 	strne	r0, [r0], #-19
    10a8:	193f012e 	ldmdbne	pc!, {r1, r2, r3, r5, r8}	; <UNPREDICTABLE>
    10ac:	0b3a0e03 	bleq	e848c0 <__bss_end__+0xe7a7b8>
    10b0:	19270b3b 	stmdbne	r7!, {r0, r1, r3, r4, r5, r8, r9, fp}
    10b4:	193c1349 	ldmdbne	ip!, {r0, r3, r6, r8, r9, ip}
    10b8:	00001301 	andeq	r1, r0, r1, lsl #6
    10bc:	49002615 	stmdbmi	r0, {r0, r2, r4, r9, sl, sp}
    10c0:	16000013 			; <UNDEFINED> instruction: 0x16000013
    10c4:	00000035 	andeq	r0, r0, r5, lsr r0
	...

Disassembly of section .debug_loc:

00000000 <.debug_loc>:
       0:	00000000 	andeq	r0, r0, r0
       4:	00000007 	andeq	r0, r0, r7
       8:	07500001 	ldrbeq	r0, [r0, -r1]
       c:	2c000000 	stccs	0, cr0, [r0], {-0}
      10:	04000000 	streq	r0, [r0], #-0
      14:	5001f300 	andpl	pc, r1, r0, lsl #6
      18:	0000009f 	muleq	r0, pc, r0	; <UNPREDICTABLE>
	...
      24:	00000700 	andeq	r0, r0, r0, lsl #14
      28:	51000100 	mrspl	r0, (UNDEF: 16)
      2c:	00000007 	andeq	r0, r0, r7
      30:	0000002c 	andeq	r0, r0, ip, lsr #32
      34:	01f30004 	mvnseq	r0, r4
      38:	00009f51 	andeq	r9, r0, r1, asr pc
      3c:	00000000 	andeq	r0, r0, r0
      40:	002c0000 	eoreq	r0, ip, r0
      44:	00330000 	eorseq	r0, r3, r0
      48:	00010000 	andeq	r0, r1, r0
      4c:	00003350 	andeq	r3, r0, r0, asr r3
      50:	00005800 	andeq	r5, r0, r0, lsl #16
      54:	f3000400 	vshl.u8	d0, d0, d0
      58:	009f5001 	addseq	r5, pc, r1
      5c:	00000000 	andeq	r0, r0, r0
      60:	2c000000 	stccs	0, cr0, [r0], {-0}
      64:	33000000 	movwcc	r0, #0
      68:	01000000 	mrseq	r0, (UNDEF: 0)
      6c:	00335100 	eorseq	r5, r3, r0, lsl #2
      70:	00580000 	subseq	r0, r8, r0
      74:	00040000 	andeq	r0, r4, r0
      78:	9f5101f3 	svcls	0x005101f3
	...
      84:	00000058 	andeq	r0, r0, r8, asr r0
      88:	00000060 	andeq	r0, r0, r0, rrx
      8c:	60500001 	subsvs	r0, r0, r1
      90:	68000000 	stmdavs	r0, {}	; <UNPREDICTABLE>
      94:	04000000 	streq	r0, [r0], #-0
      98:	5001f300 	andpl	pc, r1, r0, lsl #6
      9c:	0000009f 	muleq	r0, pc, r0	; <UNPREDICTABLE>
      a0:	00000000 	andeq	r0, r0, r0
      a4:	00005800 	andeq	r5, r0, r0, lsl #16
      a8:	00006400 	andeq	r6, r0, r0, lsl #8
      ac:	51000100 	mrspl	r0, (UNDEF: 16)
      b0:	00000064 	andeq	r0, r0, r4, rrx
      b4:	00000068 	andeq	r0, r0, r8, rrx
      b8:	01f30004 	mvnseq	r0, r4
      bc:	00009f51 	andeq	r9, r0, r1, asr pc
      c0:	00000000 	andeq	r0, r0, r0
      c4:	00580000 	subseq	r0, r8, r0
      c8:	00670000 	rsbeq	r0, r7, r0
      cc:	00010000 	andeq	r0, r1, r0
      d0:	00006752 	andeq	r6, r0, r2, asr r7
      d4:	00006800 	andeq	r6, r0, r0, lsl #16
      d8:	f3000400 	vshl.u8	d0, d0, d0
      dc:	009f5201 	addseq	r5, pc, r1, lsl #4
      e0:	00000000 	andeq	r0, r0, r0
      e4:	58000000 	stmdapl	r0, {}	; <UNPREDICTABLE>
      e8:	67000000 	strvs	r0, [r0, -r0]
      ec:	01000000 	mrseq	r0, (UNDEF: 0)
      f0:	00675300 	rsbeq	r5, r7, r0, lsl #6
      f4:	00680000 	rsbeq	r0, r8, r0
      f8:	00040000 	andeq	r0, r4, r0
      fc:	9f5301f3 	svcls	0x005301f3
	...
     108:	00000068 	andeq	r0, r0, r8, rrx
     10c:	00000087 	andeq	r0, r0, r7, lsl #1
     110:	87500001 	ldrbhi	r0, [r0, -r1]
     114:	a4000000 	strge	r0, [r0], #-0
     118:	04000000 	streq	r0, [r0], #-0
     11c:	5001f300 	andpl	pc, r1, r0, lsl #6
     120:	0000009f 	muleq	r0, pc, r0	; <UNPREDICTABLE>
     124:	00000000 	andeq	r0, r0, r0
     128:	00006800 	andeq	r6, r0, r0, lsl #16
     12c:	00008000 	andeq	r8, r0, r0
     130:	51000100 	mrspl	r0, (UNDEF: 16)
     134:	00000080 	andeq	r0, r0, r0, lsl #1
     138:	00000087 	andeq	r0, r0, r7, lsl #1
     13c:	00710002 	rsbseq	r0, r1, r2
     140:	00000087 	andeq	r0, r0, r7, lsl #1
     144:	000000a0 	andeq	r0, r0, r0, lsr #1
     148:	67910002 	ldrvs	r0, [r1, r2]
     14c:	000000a0 	andeq	r0, r0, r0, lsr #1
     150:	000000a4 	andeq	r0, r0, r4, lsr #1
     154:	777d0002 	ldrbvc	r0, [sp, -r2]!
	...
     160:	000000a4 	andeq	r0, r0, r4, lsr #1
     164:	000000bf 	strheq	r0, [r0], -pc	; <UNPREDICTABLE>
     168:	bf500001 	svclt	0x00500001
     16c:	c8000000 	stmdagt	r0, {}	; <UNPREDICTABLE>
     170:	04000000 	streq	r0, [r0], #-0
     174:	5001f300 	andpl	pc, r1, r0, lsl #6
     178:	0000009f 	muleq	r0, pc, r0	; <UNPREDICTABLE>
     17c:	00000000 	andeq	r0, r0, r0
     180:	0000a400 	andeq	sl, r0, r0, lsl #8
     184:	0000b800 	andeq	fp, r0, r0, lsl #16
     188:	51000100 	mrspl	r0, (UNDEF: 16)
     18c:	000000b8 	strheq	r0, [r0], -r8
     190:	000000bf 	strheq	r0, [r0], -pc	; <UNPREDICTABLE>
     194:	00710002 	rsbseq	r0, r1, r2
     198:	000000bf 	strheq	r0, [r0], -pc	; <UNPREDICTABLE>
     19c:	000000c8 	andeq	r0, r0, r8, asr #1
     1a0:	01f30004 	mvnseq	r0, r4
     1a4:	00009f51 	andeq	r9, r0, r1, asr pc
     1a8:	00000000 	andeq	r0, r0, r0
     1ac:	00a40000 	adceq	r0, r4, r0
     1b0:	00bc0000 	adcseq	r0, ip, r0
     1b4:	00010000 	andeq	r0, r1, r0
     1b8:	0000bc52 	andeq	fp, r0, r2, asr ip
     1bc:	0000bf00 	andeq	fp, r0, r0, lsl #30
     1c0:	91000200 	mrsls	r0, R8_usr
     1c4:	0000bf6d 	andeq	fp, r0, sp, ror #30
     1c8:	0000c800 	andeq	ip, r0, r0, lsl #16
     1cc:	f3000400 	vshl.u8	d0, d0, d0
     1d0:	009f5201 	addseq	r5, pc, r1, lsl #4
     1d4:	00000000 	andeq	r0, r0, r0
     1d8:	c8000000 	stmdagt	r0, {}	; <UNPREDICTABLE>
     1dc:	ef000000 	svc	0x00000000
     1e0:	01000000 	mrseq	r0, (UNDEF: 0)
     1e4:	00ef5000 	rsceq	r5, pc, r0
     1e8:	01080000 	mrseq	r0, (UNDEF: 8)
     1ec:	00040000 	andeq	r0, r4, r0
     1f0:	9f5001f3 	svcls	0x005001f3
	...
     1fc:	000000c8 	andeq	r0, r0, r8, asr #1
     200:	000000e8 	andeq	r0, r0, r8, ror #1
     204:	e8510001 	ldmda	r1, {r0}^
     208:	ef000000 	svc	0x00000000
     20c:	02000000 	andeq	r0, r0, #0
     210:	ef007100 	svc	0x00007100
     214:	04000000 	streq	r0, [r0], #-0
     218:	02000001 	andeq	r0, r0, #1
     21c:	04679100 	strbteq	r9, [r7], #-256	; 0x100
     220:	08000001 	stmdaeq	r0, {r0}
     224:	02000001 	andeq	r0, r0, #1
     228:	007f7d00 	rsbseq	r7, pc, r0, lsl #26
     22c:	00000000 	andeq	r0, r0, r0
     230:	c8000000 	stmdagt	r0, {}	; <UNPREDICTABLE>
     234:	ec000000 	stc	0, cr0, [r0], {-0}
     238:	01000000 	mrseq	r0, (UNDEF: 0)
     23c:	00ec5200 	rsceq	r5, ip, r0, lsl #4
     240:	01080000 	mrseq	r0, (UNDEF: 8)
     244:	00010000 	andeq	r0, r1, r0
     248:	00000055 	andeq	r0, r0, r5, asr r0
     24c:	00000000 	andeq	r0, r0, r0
     250:	0000c800 	andeq	ip, r0, r0, lsl #16
     254:	0000ef00 	andeq	lr, r0, r0, lsl #30
     258:	53000100 	movwpl	r0, #256	; 0x100
     25c:	000000ef 	andeq	r0, r0, pc, ror #1
     260:	00000108 	andeq	r0, r0, r8, lsl #2
     264:	00540001 	subseq	r0, r4, r1
     268:	00000000 	andeq	r0, r0, r0
     26c:	08000000 	stmdaeq	r0, {}	; <UNPREDICTABLE>
     270:	20000001 	andcs	r0, r0, r1
     274:	01000001 	tsteq	r0, r1
     278:	01205100 	teqeq	r0, r0, lsl #2
     27c:	01240000 	teqeq	r4, r0
     280:	00040000 	andeq	r0, r4, r0
     284:	9f5101f3 	svcls	0x005101f3
	...
     290:	00000118 	andeq	r0, r0, r8, lsl r1
     294:	00000120 	andeq	r0, r0, r0, lsr #2
     298:	08710002 	ldmdaeq	r1!, {r1}^
     29c:	00000120 	andeq	r0, r0, r0, lsr #2
     2a0:	00000123 	andeq	r0, r0, r3, lsr #2
     2a4:	00500001 	subseq	r0, r0, r1
     2a8:	00000000 	andeq	r0, r0, r0
     2ac:	24000000 	strcs	r0, [r0], #-0
     2b0:	2b000001 	blcs	2bc <_start-0x7d44>
     2b4:	01000001 	tsteq	r0, r1
     2b8:	012b5000 	teqeq	fp, r0
     2bc:	01500000 	cmpeq	r0, r0
     2c0:	00040000 	andeq	r0, r4, r0
     2c4:	9f5001f3 	svcls	0x005001f3
	...
     2d0:	00000150 	andeq	r0, r0, r0, asr r1
     2d4:	00000157 	andeq	r0, r0, r7, asr r1
     2d8:	57510001 	ldrbpl	r0, [r1, -r1]
     2dc:	7c000001 	stcvc	0, cr0, [r0], {1}
     2e0:	04000001 	streq	r0, [r0], #-1
     2e4:	5101f300 	mrspl	pc, SP_irq	; <UNPREDICTABLE>
     2e8:	0000009f 	muleq	r0, pc, r0	; <UNPREDICTABLE>
     2ec:	00000000 	andeq	r0, r0, r0
     2f0:	00015400 	andeq	r5, r1, r0, lsl #8
     2f4:	00015700 	andeq	r5, r1, r0, lsl #14
     2f8:	71000200 	mrsvc	r0, R8_usr
     2fc:	00000008 	andeq	r0, r0, r8
     300:	00000000 	andeq	r0, r0, r0
     304:	00015400 	andeq	r5, r1, r0, lsl #8
     308:	00015700 	andeq	r5, r1, r0, lsl #14
     30c:	71000200 	mrsvc	r0, R8_usr
	...
     318:	00017c00 	andeq	r7, r1, r0, lsl #24
     31c:	00019700 	andeq	r9, r1, r0, lsl #14
     320:	51000100 	mrspl	r0, (UNDEF: 16)
     324:	00000197 	muleq	r0, r7, r1
     328:	000002e0 	andeq	r0, r0, r0, ror #5
     32c:	01f30004 	mvnseq	r0, r4
     330:	00009f51 	andeq	r9, r0, r1, asr pc
     334:	00000000 	andeq	r0, r0, r0
     338:	017c0000 	cmneq	ip, r0
     33c:	01970000 	orrseq	r0, r7, r0
     340:	00010000 	andeq	r0, r1, r0
     344:	00019752 	andeq	r9, r1, r2, asr r7
     348:	0002bc00 	andeq	fp, r2, r0, lsl #24
     34c:	54000100 	strpl	r0, [r0], #-256	; 0x100
     350:	000002bc 			; <UNDEFINED> instruction: 0x000002bc
     354:	000002e0 	andeq	r0, r0, r0, ror #5
     358:	08700002 	ldmdaeq	r0!, {r1}^
	...
     364:	0000017c 	andeq	r0, r0, ip, ror r1
     368:	00000197 	muleq	r0, r7, r1
     36c:	97530001 	ldrbls	r0, [r3, -r1]
     370:	e0000001 	and	r0, r0, r1
     374:	04000002 	streq	r0, [r0], #-2
     378:	5301f300 	movwpl	pc, #4864	; 0x1300	; <UNPREDICTABLE>
     37c:	0000009f 	muleq	r0, pc, r0	; <UNPREDICTABLE>
     380:	00000000 	andeq	r0, r0, r0
     384:	00024c00 	andeq	r4, r2, r0, lsl #24
     388:	0002bc00 	andeq	fp, r2, r0, lsl #24
     38c:	74000500 	strvc	r0, [r0], #-1280	; 0x500
     390:	9f254000 	svcls	0x00254000
     394:	000002bc 			; <UNDEFINED> instruction: 0x000002bc
     398:	000002e0 	andeq	r0, r0, r0, ror #5
     39c:	08700006 	ldmdaeq	r0!, {r1, r2}^
     3a0:	9f254006 	svcls	0x00254006
	...
     3ac:	00000250 	andeq	r0, r0, r0, asr r2
     3b0:	0000025b 	andeq	r0, r0, fp, asr r2
     3b4:	5b530001 	blpl	14c03c0 <__bss_end__+0x14b62b8>
     3b8:	74000002 	strvc	r0, [r0], #-2
     3bc:	06000002 	streq	r0, [r0], -r2
     3c0:	08007400 	stmdaeq	r0, {sl, ip, sp, lr}
     3c4:	749f1aff 	ldrvc	r1, [pc], #2815	; 3cc <_start-0x7c34>
     3c8:	7f000002 	svcvc	0x00000002
     3cc:	01000002 	tsteq	r0, r2
     3d0:	027f5300 	rsbseq	r5, pc, #0, 6
     3d4:	02bc0000 	adcseq	r0, ip, #0
     3d8:	00060000 	andeq	r0, r6, r0
     3dc:	ff080074 			; <UNDEFINED> instruction: 0xff080074
     3e0:	00009f1a 	andeq	r9, r0, sl, lsl pc
     3e4:	00000000 	andeq	r0, r0, r0
     3e8:	017c0000 	cmneq	ip, r0
     3ec:	01970000 	orrseq	r0, r7, r0
     3f0:	00020000 	andeq	r0, r2, r0
     3f4:	01970070 	orrseq	r0, r7, r0, ror r0
     3f8:	02bc0000 	adcseq	r0, ip, #0
     3fc:	00020000 	andeq	r0, r2, r0
     400:	02bc0075 	adcseq	r0, ip, #117	; 0x75
     404:	02e00000 	rsceq	r0, r0, #0
     408:	00020000 	andeq	r0, r2, r0
     40c:	00000070 	andeq	r0, r0, r0, ror r0
     410:	00000000 	andeq	r0, r0, r0
     414:	01c40000 	biceq	r0, r4, r0
     418:	02bc0000 	adcseq	r0, ip, #0
     41c:	00010000 	andeq	r0, r1, r0
     420:	0002bc54 	andeq	fp, r2, r4, asr ip
     424:	0002e000 	andeq	lr, r2, r0
     428:	70000200 	andvc	r0, r0, r0, lsl #4
     42c:	00000008 	andeq	r0, r0, r8
     430:	00000000 	andeq	r0, r0, r0
     434:	00034000 	andeq	r4, r3, r0
     438:	00034b00 	andeq	r4, r3, r0, lsl #22
     43c:	50000100 	andpl	r0, r0, r0, lsl #2
     440:	0000034b 	andeq	r0, r0, fp, asr #6
     444:	00000370 	andeq	r0, r0, r0, ror r3
     448:	70540001 	subsvc	r0, r4, r1
     44c:	74000003 	strvc	r0, [r0], #-3
     450:	01000003 	tsteq	r0, r3
     454:	03745000 	cmneq	r4, #0
     458:	038c0000 	orreq	r0, ip, #0
     45c:	00010000 	andeq	r0, r1, r0
     460:	00000054 	andeq	r0, r0, r4, asr r0
     464:	00000000 	andeq	r0, r0, r0
     468:	0003ec00 	andeq	lr, r3, r0, lsl #24
     46c:	00040300 	andeq	r0, r4, r0, lsl #6
     470:	50000100 	andpl	r0, r0, r0, lsl #2
     474:	00000403 	andeq	r0, r0, r3, lsl #8
     478:	000004ac 	andeq	r0, r0, ip, lsr #9
     47c:	01f30004 	mvnseq	r0, r4
     480:	00009f50 	andeq	r9, r0, r0, asr pc
     484:	00000000 	andeq	r0, r0, r0
     488:	03ec0000 	mvneq	r0, #0
     48c:	04000000 	streq	r0, [r0], #-0
     490:	00010000 	andeq	r0, r1, r0
     494:	00040051 	andeq	r0, r4, r1, asr r0
     498:	0004ac00 	andeq	sl, r4, r0, lsl #24
     49c:	55000100 	strpl	r0, [r0, #-256]	; 0x100
	...
     4a8:	000003ec 	andeq	r0, r0, ip, ror #7
     4ac:	000003fc 	strdeq	r0, [r0], -ip
     4b0:	fc520001 	mrrc2	0, 0, r0, r2, cr1
     4b4:	ac000003 	stcge	0, cr0, [r0], {3}
     4b8:	01000004 	tsteq	r0, r4
     4bc:	00005400 	andeq	r5, r0, r0, lsl #8
     4c0:	00000000 	andeq	r0, r0, r0
     4c4:	04040000 	streq	r0, [r4], #-0
     4c8:	040c0000 	streq	r0, [ip], #-0
     4cc:	00020000 	andeq	r0, r2, r0
     4d0:	040c9f30 	streq	r9, [ip], #-3888	; 0xf30
     4d4:	040f0000 	streq	r0, [pc], #-0	; 4dc <_start-0x7b24>
     4d8:	00010000 	andeq	r0, r1, r0
     4dc:	00042852 	andeq	r2, r4, r2, asr r8
     4e0:	00047300 	andeq	r7, r4, r0, lsl #6
     4e4:	52000100 	andpl	r0, r0, #0, 2
     4e8:	0000048c 	andeq	r0, r0, ip, lsl #9
     4ec:	0000048f 	andeq	r0, r0, pc, lsl #9
     4f0:	00520001 	subseq	r0, r2, r1
     4f4:	00000000 	andeq	r0, r0, r0
     4f8:	28000000 	stmdacs	r0, {}	; <UNPREDICTABLE>
     4fc:	3f000003 	svccc	0x00000003
     500:	01000003 	tsteq	r0, r3
     504:	033f5000 	teqeq	pc, #0
     508:	03ec0000 	mvneq	r0, #0
     50c:	00040000 	andeq	r0, r4, r0
     510:	9f5001f3 	svcls	0x005001f3
	...
     51c:	00000328 	andeq	r0, r0, r8, lsr #6
     520:	0000033c 	andeq	r0, r0, ip, lsr r3
     524:	3c510001 	mrrccc	0, 0, r0, r1, cr1
     528:	ec000003 	stc	0, cr0, [r0], {3}
     52c:	01000003 	tsteq	r0, r3
     530:	00005500 	andeq	r5, r0, r0, lsl #10
     534:	00000000 	andeq	r0, r0, r0
     538:	03280000 	teqeq	r8, #0
     53c:	03380000 	teqeq	r8, #0
     540:	00010000 	andeq	r0, r1, r0
     544:	00033852 	andeq	r3, r3, r2, asr r8
     548:	0003ec00 	andeq	lr, r3, r0, lsl #24
     54c:	54000100 	strpl	r0, [r0], #-256	; 0x100
	...
     558:	00000340 	andeq	r0, r0, r0, asr #6
     55c:	00000348 	andeq	r0, r0, r8, asr #6
     560:	9f300002 	svcls	0x00300002
     564:	00000348 	andeq	r0, r0, r8, asr #6
     568:	0000034b 	andeq	r0, r0, fp, asr #6
     56c:	64520001 	ldrbvs	r0, [r2], #-1
     570:	af000003 	svcge	0x00000003
     574:	01000003 	tsteq	r0, r3
     578:	03c85200 	biceq	r5, r8, #0, 4
     57c:	03cb0000 	biceq	r0, fp, #0
     580:	00010000 	andeq	r0, r1, r0
     584:	00000052 	andeq	r0, r0, r2, asr r0
     588:	00000000 	andeq	r0, r0, r0
     58c:	00016000 	andeq	r6, r1, r0
     590:	00017300 	andeq	r7, r1, r0, lsl #6
     594:	50000100 	andpl	r0, r0, r0, lsl #2
     598:	00000173 	andeq	r0, r0, r3, ror r1
     59c:	00000328 	andeq	r0, r0, r8, lsr #6
     5a0:	00560001 	subseq	r0, r6, r1
     5a4:	00000000 	andeq	r0, r0, r0
     5a8:	60000000 	andvs	r0, r0, r0
     5ac:	73000001 	movwvc	r0, #1
     5b0:	01000001 	tsteq	r0, r1
     5b4:	01735100 	cmneq	r3, r0, lsl #2
     5b8:	021c0000 	andseq	r0, ip, #0
     5bc:	00010000 	andeq	r0, r1, r0
     5c0:	00021c55 	andeq	r1, r2, r5, asr ip
     5c4:	00028800 	andeq	r8, r2, r0, lsl #16
     5c8:	f3000400 	vshl.u8	d0, d0, d0
     5cc:	889f5101 	ldmhi	pc, {r0, r8, ip, lr}	; <UNPREDICTABLE>
     5d0:	dc000002 	stcle	0, cr0, [r0], {2}
     5d4:	01000002 	tsteq	r0, r2
     5d8:	02dc5500 	sbcseq	r5, ip, #0, 10
     5dc:	03280000 	teqeq	r8, #0
     5e0:	00040000 	andeq	r0, r4, r0
     5e4:	9f5101f3 	svcls	0x005101f3
	...
     5f0:	00000160 	andeq	r0, r0, r0, ror #2
     5f4:	00000173 	andeq	r0, r0, r3, ror r1
     5f8:	73520001 	cmpvc	r2, #1
     5fc:	28000001 	stmdacs	r0, {r0}
     600:	01000003 	tsteq	r0, r3
     604:	00005400 	andeq	r5, r0, r0, lsl #8
     608:	00000000 	andeq	r0, r0, r0
     60c:	022c0000 	eoreq	r0, ip, #0
     610:	02300000 	eorseq	r0, r0, #0
     614:	00010000 	andeq	r0, r1, r0
     618:	00000050 	andeq	r0, r0, r0, asr r0
     61c:	00000000 	andeq	r0, r0, r0
     620:	00013c00 	andeq	r3, r1, r0, lsl #24
     624:	00014000 	andeq	r4, r1, r0
     628:	51000100 	mrspl	r0, (UNDEF: 16)
	...
     634:	00000118 	andeq	r0, r0, r8, lsl r1
     638:	0000011f 	andeq	r0, r0, pc, lsl r1
     63c:	1f500001 	svcne	0x00500001
     640:	28000001 	stmdacs	r0, {r0}
     644:	04000001 	streq	r0, [r0], #-1
     648:	5001f300 	andpl	pc, r1, r0, lsl #6
     64c:	0000009f 	muleq	r0, pc, r0	; <UNPREDICTABLE>
     650:	00000000 	andeq	r0, r0, r0
     654:	00001400 	andeq	r1, r0, r0, lsl #8
     658:	00001800 	andeq	r1, r0, r0, lsl #16
     65c:	50000100 	andpl	r0, r0, r0, lsl #2
	...
     668:	00000150 	andeq	r0, r0, r0, asr r1
     66c:	00000157 	andeq	r0, r0, r7, asr r1
     670:	57500001 	ldrbpl	r0, [r0, -r1]
     674:	60000001 	andvs	r0, r0, r1
     678:	04000001 	streq	r0, [r0], #-1
     67c:	5001f300 	andpl	pc, r1, r0, lsl #6
     680:	0000009f 	muleq	r0, pc, r0	; <UNPREDICTABLE>
	...
     68c:	00000400 	andeq	r0, r0, r0, lsl #8
     690:	50000100 	andpl	r0, r0, r0, lsl #2
     694:	00000010 	andeq	r0, r0, r0, lsl r0
     698:	00000010 	andeq	r0, r0, r0, lsl r0
     69c:	00500001 	subseq	r0, r0, r1
     6a0:	00000000 	andeq	r0, r0, r0
     6a4:	2c000000 	stccs	0, cr0, [r0], {-0}
     6a8:	38000000 	stmdacc	r0, {}	; <UNPREDICTABLE>
     6ac:	01000000 	mrseq	r0, (UNDEF: 0)
     6b0:	00385000 	eorseq	r5, r8, r0
     6b4:	00480000 	subeq	r0, r8, r0
     6b8:	00010000 	andeq	r0, r1, r0
     6bc:	00004855 	andeq	r4, r0, r5, asr r8
     6c0:	00005800 	andeq	r5, r0, r0, lsl #16
     6c4:	50000100 	andpl	r0, r0, r0, lsl #2
	...
     6d4:	0000000b 	andeq	r0, r0, fp
     6d8:	0b500001 	bleq	14006e4 <__bss_end__+0x13f65dc>
     6dc:	14000000 	strne	r0, [r0], #-0
     6e0:	01000000 	mrseq	r0, (UNDEF: 0)
     6e4:	00005400 	andeq	r5, r0, r0, lsl #8
	...
     6f0:	00100000 	andseq	r0, r0, r0
     6f4:	00010000 	andeq	r0, r1, r0
     6f8:	00001050 	andeq	r1, r0, r0, asr r0
     6fc:	00003400 	andeq	r3, r0, r0, lsl #8
     700:	54000100 	strpl	r0, [r0], #-256	; 0x100
	...
     710:	00000004 	andeq	r0, r0, r4
     714:	04500001 	ldrbeq	r0, [r0], #-1
     718:	0c000000 	stceq	0, cr0, [r0], {-0}
     71c:	03000000 	movweq	r0, #0
     720:	9f307000 	svcls	0x00307000
     724:	0000000c 	andeq	r0, r0, ip
     728:	00000014 	andeq	r0, r0, r4, lsl r0
     72c:	01f30004 	mvnseq	r0, r4
     730:	00009f50 	andeq	r9, r0, r0, asr pc
     734:	00000000 	andeq	r0, r0, r0
     738:	00140000 	andseq	r0, r4, r0
     73c:	00200000 	eoreq	r0, r0, r0
     740:	00010000 	andeq	r0, r1, r0
     744:	00002050 	andeq	r2, r0, r0, asr r0
     748:	00002c00 	andeq	r2, r0, r0, lsl #24
     74c:	70000300 	andvc	r0, r0, r0, lsl #6
     750:	002c9f01 	eoreq	r9, ip, r1, lsl #30
     754:	00400000 	subeq	r0, r0, r0
     758:	00010000 	andeq	r0, r1, r0
     75c:	00000050 	andeq	r0, r0, r0, asr r0
     760:	00000000 	andeq	r0, r0, r0
     764:	00001400 	andeq	r1, r0, r0, lsl #8
     768:	00001800 	andeq	r1, r0, r0, lsl #16
     76c:	51000100 	mrspl	r0, (UNDEF: 16)
     770:	00000018 	andeq	r0, r0, r8, lsl r0
     774:	00000040 	andeq	r0, r0, r0, asr #32
     778:	01f30004 	mvnseq	r0, r4
     77c:	00009f51 	andeq	r9, r0, r1, asr pc
     780:	00000000 	andeq	r0, r0, r0
     784:	00400000 	subeq	r0, r0, r0
     788:	00600000 	rsbeq	r0, r0, r0
     78c:	00010000 	andeq	r0, r1, r0
     790:	00006050 	andeq	r6, r0, r0, asr r0
     794:	00006c00 	andeq	r6, r0, r0, lsl #24
     798:	71000300 	mrsvc	r0, LR_irq
     79c:	006c9f01 	rsbeq	r9, ip, r1, lsl #30
     7a0:	00740000 	rsbseq	r0, r4, r0
     7a4:	00010000 	andeq	r0, r1, r0
     7a8:	00007451 	andeq	r7, r0, r1, asr r4
     7ac:	00008000 	andeq	r8, r0, r0
     7b0:	71000300 	mrsvc	r0, LR_irq
     7b4:	00009f01 	andeq	r9, r0, r1, lsl #30
     7b8:	00000000 	andeq	r0, r0, r0
     7bc:	00400000 	subeq	r0, r0, r0
     7c0:	00500000 	subseq	r0, r0, r0
     7c4:	00010000 	andeq	r0, r1, r0
     7c8:	00005051 	andeq	r5, r0, r1, asr r0
     7cc:	00008000 	andeq	r8, r0, r0
     7d0:	f3000400 	vshl.u8	d0, d0, d0
     7d4:	009f5101 	addseq	r5, pc, r1, lsl #2
     7d8:	00000000 	andeq	r0, r0, r0
     7dc:	40000000 	andmi	r0, r0, r0
     7e0:	58000000 	stmdapl	r0, {}	; <UNPREDICTABLE>
     7e4:	01000000 	mrseq	r0, (UNDEF: 0)
     7e8:	00585200 	subseq	r5, r8, r0, lsl #4
     7ec:	00640000 	rsbeq	r0, r4, r0
     7f0:	00010000 	andeq	r0, r1, r0
     7f4:	00006452 	andeq	r6, r0, r2, asr r4
     7f8:	00006800 	andeq	r6, r0, r0, lsl #16
     7fc:	72000300 	andvc	r0, r0, #0, 6
     800:	00689f01 	rsbeq	r9, r8, r1, lsl #30
     804:	00800000 	addeq	r0, r0, r0
     808:	00010000 	andeq	r0, r1, r0
     80c:	00000052 	andeq	r0, r0, r2, asr r0
     810:	00000000 	andeq	r0, r0, r0
     814:	00004000 	andeq	r4, r0, r0
     818:	00005400 	andeq	r5, r0, r0, lsl #8
     81c:	53000100 	movwpl	r0, #256	; 0x100
     820:	00000054 	andeq	r0, r0, r4, asr r0
     824:	00000078 	andeq	r0, r0, r8, ror r0
     828:	00530001 	subseq	r0, r3, r1
     82c:	00000000 	andeq	r0, r0, r0
     830:	48000000 	stmdami	r0, {}	; <UNPREDICTABLE>
     834:	60000000 	andvs	r0, r0, r0
     838:	01000000 	mrseq	r0, (UNDEF: 0)
     83c:	00605c00 	rsbeq	r5, r0, r0, lsl #24
     840:	00800000 	addeq	r0, r0, r0
     844:	000a0000 	andeq	r0, sl, r0
     848:	f35201f3 	vbsl	q8, q9, <illegal reg q9.5>
     84c:	231c5301 	tstcs	ip, #67108864	; 0x4000000
     850:	00009f01 	andeq	r9, r0, r1, lsl #30
     854:	00000000 	andeq	r0, r0, r0
     858:	00800000 	addeq	r0, r0, r0
     85c:	00a40000 	adceq	r0, r4, r0
     860:	00010000 	andeq	r0, r1, r0
     864:	0000a450 	andeq	sl, r0, r0, asr r4
     868:	00011800 	andeq	r1, r1, r0, lsl #16
     86c:	70000300 	andvc	r0, r0, r0, lsl #6
     870:	01189f02 	tsteq	r8, r2, lsl #30
     874:	021c0000 	andseq	r0, ip, #0
     878:	00040000 	andeq	r0, r4, r0
     87c:	9f5001f3 	svcls	0x005001f3
	...
     888:	00000080 	andeq	r0, r0, r0, lsl #1
     88c:	000000f0 	strdeq	r0, [r0], -r0	; <UNPREDICTABLE>
     890:	f0510001 			; <UNDEFINED> instruction: 0xf0510001
     894:	60000000 	andvs	r0, r0, r0
     898:	01000001 	tsteq	r0, r1
     89c:	01605500 	cmneq	r0, r0, lsl #10
     8a0:	01680000 	cmneq	r8, r0
     8a4:	00010000 	andeq	r0, r1, r0
     8a8:	00016851 	andeq	r6, r1, r1, asr r8
     8ac:	00018800 	andeq	r8, r1, r0, lsl #16
     8b0:	55000100 	strpl	r0, [r0, #-256]	; 0x100
     8b4:	00000188 	andeq	r0, r0, r8, lsl #3
     8b8:	0000019c 	muleq	r0, ip, r1
     8bc:	9c510001 	mrrcls	0, 0, r0, r1, cr1
     8c0:	bc000001 	stclt	0, cr0, [r0], {1}
     8c4:	01000001 	tsteq	r0, r1
     8c8:	01bc5500 			; <UNDEFINED> instruction: 0x01bc5500
     8cc:	01bf0000 			; <UNDEFINED> instruction: 0x01bf0000
     8d0:	00010000 	andeq	r0, r1, r0
     8d4:	0001bf51 	andeq	fp, r1, r1, asr pc
     8d8:	00020000 	andeq	r0, r2, r0
     8dc:	55000100 	strpl	r0, [r0, #-256]	; 0x100
     8e0:	00000200 	andeq	r0, r0, r0, lsl #4
     8e4:	0000021c 	andeq	r0, r0, ip, lsl r2
     8e8:	01f30004 	mvnseq	r0, r4
     8ec:	00009f51 	andeq	r9, r0, r1, asr pc
     8f0:	00000000 	andeq	r0, r0, r0
     8f4:	00800000 	addeq	r0, r0, r0
     8f8:	00940000 	addseq	r0, r4, r0
     8fc:	00010000 	andeq	r0, r1, r0
     900:	00009452 	andeq	r9, r0, r2, asr r4
     904:	00020000 	andeq	r0, r2, r0
     908:	54000100 	strpl	r0, [r0], #-256	; 0x100
     90c:	00000200 	andeq	r0, r0, r0, lsl #4
     910:	0000021c 	andeq	r0, r0, ip, lsl r2
     914:	01f30004 	mvnseq	r0, r4
     918:	00009f52 	andeq	r9, r0, r2, asr pc
     91c:	00000000 	andeq	r0, r0, r0
     920:	00800000 	addeq	r0, r0, r0
     924:	01000000 	mrseq	r0, (UNDEF: 0)
     928:	00010000 	andeq	r0, r1, r0
     92c:	00010453 	andeq	r0, r1, r3, asr r4
     930:	00010800 	andeq	r0, r1, r0, lsl #16
     934:	53000100 	movwpl	r0, #256	; 0x100
     938:	00000160 	andeq	r0, r0, r0, ror #2
     93c:	00000168 	andeq	r0, r0, r8, ror #2
     940:	68530001 	ldmdavs	r3, {r0}^
     944:	88000001 	stmdahi	r0, {r0}
     948:	04000001 	streq	r0, [r0], #-1
     94c:	5301f300 	movwpl	pc, #4864	; 0x1300	; <UNPREDICTABLE>
     950:	0001889f 	muleq	r1, pc, r8	; <UNPREDICTABLE>
     954:	00019000 	andeq	r9, r1, r0
     958:	53000100 	movwpl	r0, #256	; 0x100
     95c:	00000190 	muleq	r0, r0, r1
     960:	00000194 	muleq	r0, r4, r1
     964:	945c0001 	ldrbls	r0, [ip], #-1
     968:	9c000001 	stcls	0, cr0, [r0], {1}
     96c:	01000001 	tsteq	r0, r1
     970:	019c5300 	orrseq	r5, ip, r0, lsl #6
     974:	01bc0000 			; <UNDEFINED> instruction: 0x01bc0000
     978:	00040000 	andeq	r0, r4, r0
     97c:	9f5301f3 	svcls	0x005301f3
     980:	000001bc 			; <UNDEFINED> instruction: 0x000001bc
     984:	000001bf 			; <UNDEFINED> instruction: 0x000001bf
     988:	bf530001 	svclt	0x00530001
     98c:	d8000001 	stmdale	r0, {r0}
     990:	04000001 	streq	r0, [r0], #-1
     994:	5301f300 	movwpl	pc, #4864	; 0x1300	; <UNPREDICTABLE>
     998:	0000009f 	muleq	r0, pc, r0	; <UNPREDICTABLE>
     99c:	00000000 	andeq	r0, r0, r0
     9a0:	00008000 	andeq	r8, r0, r0
     9a4:	00009c00 	andeq	r9, r0, r0, lsl #24
     9a8:	91000200 	mrsls	r0, R8_usr
     9ac:	00009c00 	andeq	r9, r0, r0, lsl #24
     9b0:	0001bf00 	andeq	fp, r1, r0, lsl #30
     9b4:	52000100 	andpl	r0, r0, #0, 2
     9b8:	000001d8 	ldrdeq	r0, [r0], -r8
     9bc:	000001e3 	andeq	r0, r0, r3, ror #3
     9c0:	00520001 	subseq	r0, r2, r1
     9c4:	00000000 	andeq	r0, r0, r0
     9c8:	9c000000 	stcls	0, cr0, [r0], {-0}
     9cc:	18000000 	stmdane	r0, {}	; <UNPREDICTABLE>
     9d0:	01000001 	tsteq	r0, r1
     9d4:	01185d00 	tsteq	r8, r0, lsl #26
     9d8:	011c0000 	tsteq	ip, r0
     9dc:	00010000 	andeq	r0, r1, r0
     9e0:	00011c53 	andeq	r1, r1, r3, asr ip
     9e4:	00012000 	andeq	r2, r1, r0
     9e8:	51000100 	mrspl	r0, (UNDEF: 16)
     9ec:	00000120 	andeq	r0, r0, r0, lsr #2
     9f0:	00000160 	andeq	r0, r0, r0, ror #2
     9f4:	60530001 	subsvs	r0, r3, r1
     9f8:	68000001 	stmdavs	r0, {r0}
     9fc:	01000001 	tsteq	r0, r1
     a00:	01685d00 	cmneq	r8, r0, lsl #26
     a04:	016c0000 	cmneq	ip, r0
     a08:	00010000 	andeq	r0, r1, r0
     a0c:	00016c5e 	andeq	r6, r1, lr, asr ip
     a10:	00018800 	andeq	r8, r1, r0, lsl #16
     a14:	53000100 	movwpl	r0, #256	; 0x100
     a18:	00000188 	andeq	r0, r0, r8, lsl #3
     a1c:	00000190 	muleq	r0, r0, r1
     a20:	a1910004 	orrsge	r0, r1, r4
     a24:	01909f7f 	orrseq	r9, r0, pc, ror pc
     a28:	01940000 	orrseq	r0, r4, r0
     a2c:	00010000 	andeq	r0, r1, r0
     a30:	00019453 	andeq	r9, r1, r3, asr r4
     a34:	00019c00 	andeq	r9, r1, r0, lsl #24
     a38:	5d000100 	stfpls	f0, [r0, #-0]
     a3c:	0000019c 	muleq	r0, ip, r1
     a40:	000001a0 	andeq	r0, r0, r0, lsr #3
     a44:	a05e0001 	subsge	r0, lr, r1
     a48:	bc000001 	stclt	0, cr0, [r0], {1}
     a4c:	01000001 	tsteq	r0, r1
     a50:	01bc5300 			; <UNDEFINED> instruction: 0x01bc5300
     a54:	01d80000 	bicseq	r0, r8, r0
     a58:	00010000 	andeq	r0, r1, r0
     a5c:	0001d85d 	andeq	sp, r1, sp, asr r8
     a60:	0001e300 	andeq	lr, r1, r0, lsl #6
     a64:	53000100 	movwpl	r0, #256	; 0x100
	...
     a70:	000000a0 	andeq	r0, r0, r0, lsr #1
     a74:	000000ec 	andeq	r0, r0, ip, ror #1
     a78:	ec5c0001 	mrrc	0, 0, r0, ip, cr1
     a7c:	00000000 	andeq	r0, r0, r0
     a80:	01000001 	tsteq	r0, r1
     a84:	01005300 	mrseq	r5, LR_irq
     a88:	01040000 	mrseq	r0, (UNDEF: 4)
     a8c:	00010000 	andeq	r0, r1, r0
     a90:	0001045c 	andeq	r0, r1, ip, asr r4
     a94:	00010800 	andeq	r0, r1, r0, lsl #16
     a98:	53000100 	movwpl	r0, #256	; 0x100
     a9c:	00000108 	andeq	r0, r0, r8, lsl #2
     aa0:	00000118 	andeq	r0, r0, r8, lsl r1
     aa4:	185c0001 	ldmdane	ip, {r0}^
     aa8:	1c000001 	stcne	0, cr0, [r0], {1}
     aac:	01000001 	tsteq	r0, r1
     ab0:	011c5000 	tsteq	ip, r0
     ab4:	013c0000 	teqeq	ip, r0
     ab8:	00010000 	andeq	r0, r1, r0
     abc:	0001445c 	andeq	r4, r1, ip, asr r4
     ac0:	00015800 	andeq	r5, r1, r0, lsl #16
     ac4:	50000100 	andpl	r0, r0, r0, lsl #2
     ac8:	00000158 	andeq	r0, r0, r8, asr r1
     acc:	00000160 	andeq	r0, r0, r0, ror #2
     ad0:	605c0001 	subsvs	r0, ip, r1
     ad4:	68000001 	stmdavs	r0, {r0}
     ad8:	01000001 	tsteq	r0, r1
     adc:	01685300 	cmneq	r8, r0, lsl #6
     ae0:	01780000 	cmneq	r8, r0
     ae4:	00010000 	andeq	r0, r1, r0
     ae8:	0001785c 	andeq	r7, r1, ip, asr r8
     aec:	00018000 	andeq	r8, r1, r0
     af0:	7c000500 	cfstr32vc	mvfx0, [r0], {-0}
     af4:	9f253400 	svcls	0x00253400
     af8:	00000180 	andeq	r0, r0, r0, lsl #3
     afc:	00000188 	andeq	r0, r0, r8, lsl #3
     b00:	885c0001 	ldmdahi	ip, {r0}^
     b04:	90000001 	andls	r0, r0, r1
     b08:	01000001 	tsteq	r0, r1
     b0c:	01905300 	orrseq	r5, r0, r0, lsl #6
     b10:	01940000 	orrseq	r0, r4, r0
     b14:	00010000 	andeq	r0, r1, r0
     b18:	0001945c 	andeq	r9, r1, ip, asr r4
     b1c:	00019c00 	andeq	r9, r1, r0, lsl #24
     b20:	53000100 	movwpl	r0, #256	; 0x100
     b24:	0000019c 	muleq	r0, ip, r1
     b28:	000001ac 	andeq	r0, r0, ip, lsr #3
     b2c:	ac5c0001 	mrrcge	0, 0, r0, ip, cr1
     b30:	b4000001 	strlt	r0, [r0], #-1
     b34:	05000001 	streq	r0, [r0, #-1]
     b38:	31007c00 	tstcc	r0, r0, lsl #24
     b3c:	01b49f25 			; <UNDEFINED> instruction: 0x01b49f25
     b40:	01bc0000 			; <UNDEFINED> instruction: 0x01bc0000
     b44:	00010000 	andeq	r0, r1, r0
     b48:	0001bc5c 	andeq	fp, r1, ip, asr ip
     b4c:	0001bf00 	andeq	fp, r1, r0, lsl #30
     b50:	53000100 	movwpl	r0, #256	; 0x100
     b54:	000001bf 			; <UNDEFINED> instruction: 0x000001bf
     b58:	000001d8 	ldrdeq	r0, [r0], -r8
     b5c:	01f30004 	mvnseq	r0, r4
     b60:	01d89f53 	bicseq	r9, r8, r3, asr pc
     b64:	01e30000 	mvneq	r0, r0
     b68:	00010000 	andeq	r0, r1, r0
     b6c:	0000005c 	andeq	r0, r0, ip, asr r0
     b70:	00000000 	andeq	r0, r0, r0
     b74:	0000ec00 	andeq	lr, r0, r0, lsl #24
     b78:	0000fc00 	andeq	pc, r0, r0, lsl #24
     b7c:	30000200 	andcc	r0, r0, r0, lsl #4
     b80:	0000fc9f 	muleq	r0, pc, ip	; <UNPREDICTABLE>
     b84:	00010400 	andeq	r0, r1, r0, lsl #8
     b88:	31000200 	mrscc	r0, R8_usr
     b8c:	0001049f 	muleq	r1, pc, r4	; <UNPREDICTABLE>
     b90:	00010800 	andeq	r0, r1, r0, lsl #16
     b94:	30000200 	andcc	r0, r0, r0, lsl #4
     b98:	0000009f 	muleq	r0, pc, r0	; <UNPREDICTABLE>
     b9c:	00000000 	andeq	r0, r0, r0
     ba0:	00021c00 	andeq	r1, r2, r0, lsl #24
     ba4:	00022b00 	andeq	r2, r2, r0, lsl #22
     ba8:	50000100 	andpl	r0, r0, r0, lsl #2
     bac:	0000022b 	andeq	r0, r0, fp, lsr #4
     bb0:	00000244 	andeq	r0, r0, r4, asr #4
     bb4:	01f30004 	mvnseq	r0, r4
     bb8:	02449f50 	subeq	r9, r4, #80, 30	; 0x140
     bbc:	02700000 	rsbseq	r0, r0, #0
     bc0:	00010000 	andeq	r0, r1, r0
     bc4:	00000050 	andeq	r0, r0, r0, asr r0
     bc8:	00000000 	andeq	r0, r0, r0
     bcc:	00021c00 	andeq	r1, r2, r0, lsl #24
     bd0:	00022b00 	andeq	r2, r2, r0, lsl #22
     bd4:	51000100 	mrspl	r0, (UNDEF: 16)
     bd8:	0000022b 	andeq	r0, r0, fp, lsr #4
     bdc:	00000244 	andeq	r0, r0, r4, asr #4
     be0:	01f30004 	mvnseq	r0, r4
     be4:	02449f51 	subeq	r9, r4, #324	; 0x144
     be8:	02700000 	rsbseq	r0, r0, #0
     bec:	00010000 	andeq	r0, r1, r0
     bf0:	00000051 	andeq	r0, r0, r1, asr r0
     bf4:	00000000 	andeq	r0, r0, r0
     bf8:	00027000 	andeq	r7, r2, r0
     bfc:	00029c00 	andeq	r9, r2, r0, lsl #24
     c00:	50000100 	andpl	r0, r0, r0, lsl #2
     c04:	0000029c 	muleq	r0, ip, r2
     c08:	000004e4 	andeq	r0, r0, r4, ror #9
     c0c:	e45a0001 	ldrb	r0, [sl], #-1
     c10:	f8000004 			; <UNDEFINED> instruction: 0xf8000004
     c14:	04000004 	streq	r0, [r0], #-4
     c18:	5001f300 	andpl	pc, r1, r0, lsl #6
     c1c:	0000009f 	muleq	r0, pc, r0	; <UNPREDICTABLE>
     c20:	00000000 	andeq	r0, r0, r0
     c24:	00027000 	andeq	r7, r2, r0
     c28:	00028400 	andeq	r8, r2, r0, lsl #8
     c2c:	51000100 	mrspl	r0, (UNDEF: 16)
     c30:	00000284 	andeq	r0, r0, r4, lsl #5
     c34:	0000029c 	muleq	r0, ip, r2
     c38:	01710003 	cmneq	r1, r3
     c3c:	00029c9f 	muleq	r2, pc, ip	; <UNPREDICTABLE>
     c40:	0004f800 	andeq	pc, r4, r0, lsl #16
     c44:	f3000400 	vshl.u8	d0, d0, d0
     c48:	009f5101 	addseq	r5, pc, r1, lsl #2
     c4c:	00000000 	andeq	r0, r0, r0
     c50:	70000000 	andvc	r0, r0, r0
     c54:	a4000002 	strge	r0, [r0], #-2
     c58:	01000002 	tsteq	r0, r2
     c5c:	02a45200 	adceq	r5, r4, #0, 4
     c60:	02cc0000 	sbceq	r0, ip, #0
     c64:	00010000 	andeq	r0, r1, r0
     c68:	0002cc52 	andeq	ip, r2, r2, asr ip
     c6c:	00049400 	andeq	r9, r4, r0, lsl #8
     c70:	56000100 	strpl	r0, [r0], -r0, lsl #2
     c74:	00000494 	muleq	r0, r4, r4
     c78:	000004f8 	strdeq	r0, [r0], -r8
     c7c:	00520001 	subseq	r0, r2, r1
     c80:	00000000 	andeq	r0, r0, r0
     c84:	70000000 	andvc	r0, r0, r0
     c88:	8c000002 	stchi	0, cr0, [r0], {2}
     c8c:	01000002 	tsteq	r0, r2
     c90:	00005300 	andeq	r5, r0, r0, lsl #6
     c94:	00000000 	andeq	r0, r0, r0
     c98:	02800000 	addeq	r0, r0, #0
     c9c:	029c0000 	addseq	r0, ip, #0
     ca0:	00010000 	andeq	r0, r1, r0
     ca4:	00029c50 	andeq	r9, r2, r0, asr ip
     ca8:	0002a000 	andeq	sl, r2, r0
     cac:	54000100 	strpl	r0, [r0], #-256	; 0x100
     cb0:	000002a0 	andeq	r0, r0, r0, lsr #5
     cb4:	000002ac 	andeq	r0, r0, ip, lsr #5
     cb8:	01740003 	cmneq	r4, r3
     cbc:	0002ac9f 	muleq	r2, pc, ip	; <UNPREDICTABLE>
     cc0:	0002b800 	andeq	fp, r2, r0, lsl #16
     cc4:	54000100 	strpl	r0, [r0], #-256	; 0x100
     cc8:	000002b8 			; <UNDEFINED> instruction: 0x000002b8
     ccc:	000002c4 	andeq	r0, r0, r4, asr #5
     cd0:	01740003 	cmneq	r4, r3
     cd4:	0002c49f 	muleq	r2, pc, r4	; <UNPREDICTABLE>
     cd8:	00049800 	andeq	r9, r4, r0, lsl #16
     cdc:	54000100 	strpl	r0, [r0], #-256	; 0x100
     ce0:	00000498 	muleq	r0, r8, r4
     ce4:	000004a4 	andeq	r0, r0, r4, lsr #9
     ce8:	01740003 	cmneq	r4, r3
     cec:	0004a49f 	muleq	r4, pc, r4	; <UNPREDICTABLE>
     cf0:	0004d000 	andeq	sp, r4, r0
     cf4:	54000100 	strpl	r0, [r0], #-256	; 0x100
     cf8:	000004d0 	ldrdeq	r0, [r0], -r0	; <UNPREDICTABLE>
     cfc:	000004dc 	ldrdeq	r0, [r0], -ip
     d00:	dc500001 	mrrcle	0, 0, r0, r0, cr1	; <UNPREDICTABLE>
     d04:	e4000004 	str	r0, [r0], #-4
     d08:	03000004 	movweq	r0, #4
     d0c:	9f017400 	svcls	0x00017400
	...
     d18:	00000288 	andeq	r0, r0, r8, lsl #5
     d1c:	000004e4 	andeq	r0, r0, r4, ror #9
     d20:	e4580001 	ldrb	r0, [r8], #-1
     d24:	f8000004 			; <UNDEFINED> instruction: 0xf8000004
     d28:	0a000004 	beq	d40 <_start-0x72c0>
     d2c:	5101f300 	mrspl	pc, SP_irq	; <UNPREDICTABLE>
     d30:	225001f3 	subscs	r0, r0, #-1073741764	; 0xc000003c
     d34:	009f1c31 	addseq	r1, pc, r1, lsr ip	; <UNPREDICTABLE>
     d38:	00000000 	andeq	r0, r0, r0
     d3c:	cc000000 	stcgt	0, cr0, [r0], {-0}
     d40:	d0000003 	andle	r0, r0, r3
     d44:	01000003 	tsteq	r0, r3
     d48:	03f05000 	mvnseq	r5, #0
     d4c:	03f40000 	mvnseq	r0, #0
     d50:	00010000 	andeq	r0, r1, r0
     d54:	00041450 	andeq	r1, r4, r0, asr r4
     d58:	00041800 	andeq	r1, r4, r0, lsl #16
     d5c:	50000100 	andpl	r0, r0, r0, lsl #2
     d60:	00000438 	andeq	r0, r0, r8, lsr r4
     d64:	0000043c 	andeq	r0, r0, ip, lsr r4
     d68:	44500001 	ldrbmi	r0, [r0], #-1
     d6c:	48000004 	stmdami	r0, {r2}
     d70:	01000004 	tsteq	r0, r4
     d74:	04685000 	strbteq	r5, [r8], #-0
     d78:	046c0000 	strbteq	r0, [ip], #-0
     d7c:	00010000 	andeq	r0, r1, r0
     d80:	00049050 	andeq	r9, r4, r0, asr r0
     d84:	0004b800 	andeq	fp, r4, r0, lsl #16
     d88:	50000100 	andpl	r0, r0, r0, lsl #2
	...
     d94:	000002cc 	andeq	r0, r0, ip, asr #5
     d98:	000002d4 	ldrdeq	r0, [r0], -r4
     d9c:	9f300002 	svcls	0x00300002
     da0:	000002d4 	ldrdeq	r0, [r0], -r4
     da4:	000002d8 	ldrdeq	r0, [r0], -r8
     da8:	e4570001 	ldrb	r0, [r7], #-1
     dac:	b8000002 	stmdalt	r0, {r1}
     db0:	01000004 	tsteq	r0, r4
     db4:	00005700 	andeq	r5, r0, r0, lsl #14
     db8:	00000000 	andeq	r0, r0, r0
     dbc:	00140000 	andseq	r0, r4, r0
     dc0:	001c0000 	andseq	r0, ip, r0
     dc4:	00030000 	andeq	r0, r3, r0
     dc8:	1c9f0473 	cfldrsne	mvf0, [pc], {115}	; 0x73
     dcc:	27000000 	strcs	r0, [r0, -r0]
     dd0:	01000000 	mrseq	r0, (UNDEF: 0)
     dd4:	00005300 	andeq	r5, r0, r0, lsl #6
     dd8:	00000000 	andeq	r0, r0, r0
     ddc:	8f200000 	svchi	0x00200000
     de0:	8f240000 	svchi	0x00240000
     de4:	00020000 	andeq	r0, r2, r0
     de8:	8f249f30 	svchi	0x00249f30
     dec:	8f280000 	svchi	0x00280000
     df0:	00010000 	andeq	r0, r1, r0
     df4:	00000050 	andeq	r0, r0, r0, asr r0
     df8:	00000000 	andeq	r0, r0, r0
     dfc:	008f3800 	addeq	r3, pc, r0, lsl #16
     e00:	008f3c00 	addeq	r3, pc, r0, lsl #24
     e04:	30000200 	andcc	r0, r0, r0, lsl #4
     e08:	008f3c9f 	umulleq	r3, pc, pc, ip	; <UNPREDICTABLE>
     e0c:	008f4000 	addeq	r4, pc, r0
     e10:	53000100 	movwpl	r0, #256	; 0x100
     e14:	00008f44 	andeq	r8, r0, r4, asr #30
     e18:	00008f4c 	andeq	r8, r0, ip, asr #30
     e1c:	00530001 	subseq	r0, r3, r1
	...
     e28:	04000000 	streq	r0, [r0], #-0
     e2c:	01000000 	mrseq	r0, (UNDEF: 0)
     e30:	00045000 	andeq	r5, r4, r0
     e34:	000c0000 	andeq	r0, ip, r0
     e38:	00010000 	andeq	r0, r1, r0
     e3c:	00000c53 	andeq	r0, r0, r3, asr ip
     e40:	00001000 	andeq	r1, r0, r0
     e44:	50000100 	andpl	r0, r0, r0, lsl #2
     e48:	00000010 	andeq	r0, r0, r0, lsl r0
     e4c:	0000001c 	andeq	r0, r0, ip, lsl r0
     e50:	00530001 	subseq	r0, r3, r1
     e54:	00000000 	andeq	r0, r0, r0
     e58:	3c000000 	stccc	0, cr0, [r0], {-0}
     e5c:	47000000 	strmi	r0, [r0, -r0]
     e60:	01000000 	mrseq	r0, (UNDEF: 0)
     e64:	00475000 	subeq	r5, r7, r0
     e68:	00600000 	rsbeq	r0, r0, r0
     e6c:	00010000 	andeq	r0, r1, r0
     e70:	00000055 	andeq	r0, r0, r5, asr r0
     e74:	00000000 	andeq	r0, r0, r0
     e78:	00005000 	andeq	r5, r0, r0
     e7c:	00005400 	andeq	r5, r0, r0, lsl #8
     e80:	50000100 	andpl	r0, r0, r0, lsl #2
	...
     e8c:	00000060 	andeq	r0, r0, r0, rrx
     e90:	0000006c 	andeq	r0, r0, ip, rrx
     e94:	6c500001 	mrrcvs	0, 0, r0, r0, cr1	; <UNPREDICTABLE>
     e98:	74000000 	strvc	r0, [r0], #-0
     e9c:	04000000 	streq	r0, [r0], #-0
     ea0:	5001f300 	andpl	pc, r1, r0, lsl #6
     ea4:	0000009f 	muleq	r0, pc, r0	; <UNPREDICTABLE>
     ea8:	00000000 	andeq	r0, r0, r0
     eac:	00007400 	andeq	r7, r0, r0, lsl #8
     eb0:	00008000 	andeq	r8, r0, r0
     eb4:	50000100 	andpl	r0, r0, r0, lsl #2
     eb8:	00000080 	andeq	r0, r0, r0, lsl #1
     ebc:	00000088 	andeq	r0, r0, r8, lsl #1
     ec0:	01f30004 	mvnseq	r0, r4
     ec4:	00009f50 	andeq	r9, r0, r0, asr pc
	...
     ed0:	00900000 	addseq	r0, r0, r0
     ed4:	00010000 	andeq	r0, r1, r0
     ed8:	00009050 	andeq	r9, r0, r0, asr r0
     edc:	0000d400 	andeq	sp, r0, r0, lsl #8
     ee0:	54000100 	strpl	r0, [r0], #-256	; 0x100
	...
     eec:	00000048 	andeq	r0, r0, r8, asr #32
     ef0:	0000004c 	andeq	r0, r0, ip, asr #32
     ef4:	54550001 	ldrbpl	r0, [r5], #-1
     ef8:	58000000 	stmdapl	r0, {}	; <UNPREDICTABLE>
     efc:	01000000 	mrseq	r0, (UNDEF: 0)
     f00:	00605500 	rsbeq	r5, r0, r0, lsl #10
     f04:	00640000 	rsbeq	r0, r4, r0
     f08:	00010000 	andeq	r0, r1, r0
     f0c:	00006c55 	andeq	r6, r0, r5, asr ip
     f10:	00007000 	andeq	r7, r0, r0
     f14:	55000100 	strpl	r0, [r0, #-256]	; 0x100
     f18:	00000078 	andeq	r0, r0, r8, ror r0
     f1c:	0000007c 	andeq	r0, r0, ip, ror r0
     f20:	84550001 	ldrbhi	r0, [r5], #-1
     f24:	88000000 	stmdahi	r0, {}	; <UNPREDICTABLE>
     f28:	01000000 	mrseq	r0, (UNDEF: 0)
     f2c:	008c5500 	addeq	r5, ip, r0, lsl #10
     f30:	00d40000 	sbcseq	r0, r4, r0
     f34:	00010000 	andeq	r0, r1, r0
     f38:	00000055 	andeq	r0, r0, r5, asr r0
     f3c:	00000000 	andeq	r0, r0, r0
     f40:	00001c00 	andeq	r1, r0, r0, lsl #24
     f44:	00004400 	andeq	r4, r0, r0, lsl #8
     f48:	53000100 	movwpl	r0, #256	; 0x100
     f4c:	00000044 	andeq	r0, r0, r4, asr #32
     f50:	0000004c 	andeq	r0, r0, ip, asr #32
     f54:	0070001c 	rsbseq	r0, r0, ip, lsl r0
     f58:	25f72cf7 	ldrbcs	r2, [r7, #3319]!	; 0xcf7
     f5c:	cd0825f4 	cfstr32gt	mvfx2, [r8, #-976]	; 0xfffffc30
     f60:	00cccccc 	sbceq	ip, ip, ip, asr #25
     f64:	1e000000 	cdpne	0, 0, cr0, cr0, cr0, {0}
     f68:	25f72008 	ldrbcs	r2, [r7, #8]!
     f6c:	332cf725 	msrcc	CPSR_fs, #9699328	; 0x940000
     f70:	004c9f25 	subeq	r9, ip, r5, lsr #30
     f74:	00500000 	subseq	r0, r0, r0
     f78:	00010000 	andeq	r0, r1, r0
     f7c:	00005053 	andeq	r5, r0, r3, asr r0
     f80:	00005800 	andeq	r5, r0, r0, lsl #16
     f84:	70001c00 	andvc	r1, r0, r0, lsl #24
     f88:	f72cf700 			; <UNDEFINED> instruction: 0xf72cf700
     f8c:	0825f425 	stmdaeq	r5!, {r0, r2, r5, sl, ip, sp, lr, pc}
     f90:	cccccccd 	stclgt	12, cr12, [ip], {205}	; 0xcd
     f94:	00000000 	andeq	r0, r0, r0
     f98:	f720081e 			; <UNDEFINED> instruction: 0xf720081e
     f9c:	2cf72525 	cfldr64cs	mvdx2, [r7], #148	; 0x94
     fa0:	589f2533 	ldmpl	pc, {r0, r1, r4, r5, r8, sl, sp}	; <UNPREDICTABLE>
     fa4:	5c000000 	stcpl	0, cr0, [r0], {-0}
     fa8:	01000000 	mrseq	r0, (UNDEF: 0)
     fac:	005c5300 	subseq	r5, ip, r0, lsl #6
     fb0:	00640000 	rsbeq	r0, r4, r0
     fb4:	001c0000 	andseq	r0, ip, r0
     fb8:	2cf70070 	ldclcs	0, cr0, [r7], #448	; 0x1c0
     fbc:	25f425f7 	ldrbcs	r2, [r4, #1527]!	; 0x5f7
     fc0:	cccccd08 	stclgt	13, cr12, [ip], {8}
     fc4:	000000cc 	andeq	r0, r0, ip, asr #1
     fc8:	20081e00 	andcs	r1, r8, r0, lsl #28
     fcc:	f72525f7 			; <UNDEFINED> instruction: 0xf72525f7
     fd0:	9f25332c 	svcls	0x0025332c
     fd4:	00000064 	andeq	r0, r0, r4, rrx
     fd8:	00000068 	andeq	r0, r0, r8, rrx
     fdc:	68530001 	ldmdavs	r3, {r0}^
     fe0:	70000000 	andvc	r0, r0, r0
     fe4:	1c000000 	stcne	0, cr0, [r0], {-0}
     fe8:	f7007000 			; <UNDEFINED> instruction: 0xf7007000
     fec:	f425f72c 	vld1.8	{d15}, [r5 :128], ip
     ff0:	cccd0825 	stclgt	8, cr0, [sp], {37}	; 0x25
     ff4:	0000cccc 	andeq	ip, r0, ip, asr #25
     ff8:	081e0000 	ldmdaeq	lr, {}	; <UNPREDICTABLE>
     ffc:	2525f720 	strcs	pc, [r5, #-1824]!	; 0x720
    1000:	25332cf7 	ldrcs	r2, [r3, #-3319]!	; 0xcf7
    1004:	0000709f 	muleq	r0, pc, r0	; <UNPREDICTABLE>
    1008:	00007400 	andeq	r7, r0, r0, lsl #8
    100c:	53000100 	movwpl	r0, #256	; 0x100
    1010:	00000074 	andeq	r0, r0, r4, ror r0
    1014:	0000007c 	andeq	r0, r0, ip, ror r0
    1018:	0070001c 	rsbseq	r0, r0, ip, lsl r0
    101c:	25f72cf7 	ldrbcs	r2, [r7, #3319]!	; 0xcf7
    1020:	cd0825f4 	cfstr32gt	mvfx2, [r8, #-976]	; 0xfffffc30
    1024:	00cccccc 	sbceq	ip, ip, ip, asr #25
    1028:	1e000000 	cdpne	0, 0, cr0, cr0, cr0, {0}
    102c:	25f72008 	ldrbcs	r2, [r7, #8]!
    1030:	332cf725 	msrcc	CPSR_fs, #9699328	; 0x940000
    1034:	007c9f25 	rsbseq	r9, ip, r5, lsr #30
    1038:	00800000 	addeq	r0, r0, r0
    103c:	00010000 	andeq	r0, r1, r0
    1040:	00008053 	andeq	r8, r0, r3, asr r0
    1044:	00008800 	andeq	r8, r0, r0, lsl #16
    1048:	70001c00 	andvc	r1, r0, r0, lsl #24
    104c:	f72cf700 			; <UNDEFINED> instruction: 0xf72cf700
    1050:	0825f425 	stmdaeq	r5!, {r0, r2, r5, sl, ip, sp, lr, pc}
    1054:	cccccccd 	stclgt	12, cr12, [ip], {205}	; 0xcd
    1058:	00000000 	andeq	r0, r0, r0
    105c:	f720081e 			; <UNDEFINED> instruction: 0xf720081e
    1060:	2cf72525 	cfldr64cs	mvdx2, [r7], #148	; 0x94
    1064:	889f2533 	ldmhi	pc, {r0, r1, r4, r5, r8, sl, sp}	; <UNPREDICTABLE>
    1068:	8c000000 	stchi	0, cr0, [r0], {-0}
    106c:	01000000 	mrseq	r0, (UNDEF: 0)
    1070:	008c5300 	addeq	r5, ip, r0, lsl #6
    1074:	00900000 	addseq	r0, r0, r0
    1078:	001c0000 	andseq	r0, ip, r0
    107c:	2cf70070 	ldclcs	0, cr0, [r7], #448	; 0x1c0
    1080:	25f425f7 	ldrbcs	r2, [r4, #1527]!	; 0x5f7
    1084:	cccccd08 	stclgt	13, cr12, [ip], {8}
    1088:	000000cc 	andeq	r0, r0, ip, asr #1
    108c:	20081e00 	andcs	r1, r8, r0, lsl #28
    1090:	f72525f7 			; <UNDEFINED> instruction: 0xf72525f7
    1094:	9f25332c 	svcls	0x0025332c
    1098:	00000090 	muleq	r0, r0, r0
    109c:	00000098 	muleq	r0, r8, r0
    10a0:	0074001c 	rsbseq	r0, r4, ip, lsl r0
    10a4:	25f72cf7 	ldrbcs	r2, [r7, #3319]!	; 0xcf7
    10a8:	cd0825f4 	cfstr32gt	mvfx2, [r8, #-976]	; 0xfffffc30
    10ac:	00cccccc 	sbceq	ip, ip, ip, asr #25
    10b0:	1e000000 	cdpne	0, 0, cr0, cr0, cr0, {0}
    10b4:	25f72008 	ldrbcs	r2, [r7, #8]!
    10b8:	332cf725 	msrcc	CPSR_fs, #9699328	; 0x940000
    10bc:	00989f25 	addseq	r9, r8, r5, lsr #30
    10c0:	009c0000 	addseq	r0, ip, r0
    10c4:	00170000 	andseq	r0, r7, r0
    10c8:	2cf70074 	ldclcs	0, cr0, [r7], #464	; 0x1d0
    10cc:	007125f7 	ldrshteq	r2, [r1], #-87	; 0xffffffa9
    10d0:	25f72cf7 	ldrbcs	r2, [r7, #3319]!	; 0xcf7
    10d4:	f720081e 			; <UNDEFINED> instruction: 0xf720081e
    10d8:	2cf72525 	cfldr64cs	mvdx2, [r7], #148	; 0x94
    10dc:	9c9f2533 	cfldr32ls	mvfx2, [pc], {51}	; 0x33
    10e0:	d4000000 	strle	r0, [r0], #-0
    10e4:	1c000000 	stcne	0, cr0, [r0], {-0}
    10e8:	f7007400 			; <UNDEFINED> instruction: 0xf7007400
    10ec:	f425f72c 	vld1.8	{d15}, [r5 :128], ip
    10f0:	cccd0825 	stclgt	8, cr0, [sp], {37}	; 0x25
    10f4:	0000cccc 	andeq	ip, r0, ip, asr #25
    10f8:	081e0000 	ldmdaeq	lr, {}	; <UNPREDICTABLE>
    10fc:	2525f720 	strcs	pc, [r5, #-1824]!	; 0x720
    1100:	25332cf7 	ldrcs	r2, [r3, #-3319]!	; 0xcf7
    1104:	0000009f 	muleq	r0, pc, r0	; <UNPREDICTABLE>
    1108:	00000000 	andeq	r0, r0, r0
    110c:	00009400 	andeq	r9, r0, r0, lsl #8
    1110:	0000b800 	andeq	fp, r0, r0, lsl #16
    1114:	50000100 	andpl	r0, r0, r0, lsl #2
    1118:	000000b8 	strheq	r0, [r0], -r8
    111c:	000000c4 	andeq	r0, r0, r4, asr #1
    1120:	71310008 	teqvc	r1, r8
    1124:	00732400 	rsbseq	r2, r3, r0, lsl #8
    1128:	00c49f21 	sbceq	r9, r4, r1, lsr #30
    112c:	00c70000 	sbceq	r0, r7, r0
    1130:	00010000 	andeq	r0, r1, r0
    1134:	00000051 	andeq	r0, r0, r1, asr r0
    1138:	00000000 	andeq	r0, r0, r0
    113c:	0000d400 	andeq	sp, r0, r0, lsl #8
    1140:	0000f800 	andeq	pc, r0, r0, lsl #16
    1144:	50000100 	andpl	r0, r0, r0, lsl #2
    1148:	000000f8 	strdeq	r0, [r0], -r8
    114c:	0000010c 	andeq	r0, r0, ip, lsl #2
    1150:	01f30004 	mvnseq	r0, r4
    1154:	00009f50 	andeq	r9, r0, r0, asr pc
    1158:	00000000 	andeq	r0, r0, r0
    115c:	00e00000 	rsceq	r0, r0, r0
    1160:	00e80000 	rsceq	r0, r8, r0
    1164:	00020000 	andeq	r0, r2, r0
    1168:	00e89f30 	rsceq	r9, r8, r0, lsr pc
    116c:	00e80000 	rsceq	r0, r8, r0
    1170:	00010000 	andeq	r0, r1, r0
    1174:	0000e852 	andeq	lr, r0, r2, asr r8
    1178:	0000f000 	andeq	pc, r0, r0
    117c:	30000200 	andcc	r0, r0, r0, lsl #4
    1180:	0000f09f 	muleq	r0, pc, r0	; <UNPREDICTABLE>
    1184:	00010300 	andeq	r0, r1, r0, lsl #6
    1188:	52000100 	andpl	r0, r0, #0, 2
	...
    1194:	000000e0 	andeq	r0, r0, r0, ror #1
    1198:	000000f4 	strdeq	r0, [r0], -r4
    119c:	9f300002 	svcls	0x00300002
    11a0:	000000f4 	strdeq	r0, [r0], -r4
    11a4:	00000100 	andeq	r0, r0, r0, lsl #2
    11a8:	73310005 	teqvc	r1, #5
    11ac:	009f2400 	addseq	r2, pc, r0, lsl #8
    11b0:	03000001 	movweq	r0, #1
    11b4:	01000001 	tsteq	r0, r1
    11b8:	01035100 	mrseq	r5, (UNDEF: 19)
    11bc:	010c0000 	mrseq	r0, (UNDEF: 12)
    11c0:	00080000 	andeq	r0, r8, r0
    11c4:	5001f331 	andpl	pc, r1, r1, lsr r3	; <UNPREDICTABLE>
    11c8:	9f241a4f 	svcls	0x00241a4f
	...
    11d4:	0000010c 	andeq	r0, r0, ip, lsl #2
    11d8:	00000130 	andeq	r0, r0, r0, lsr r1
    11dc:	30500001 	subscc	r0, r0, r1
    11e0:	44000001 	strmi	r0, [r0], #-1
    11e4:	04000001 	streq	r0, [r0], #-1
    11e8:	5001f300 	andpl	pc, r1, r0, lsl #6
    11ec:	0000009f 	muleq	r0, pc, r0	; <UNPREDICTABLE>
    11f0:	00000000 	andeq	r0, r0, r0
    11f4:	00011800 	andeq	r1, r1, r0, lsl #16
    11f8:	00012000 	andeq	r2, r1, r0
    11fc:	30000200 	andcc	r0, r0, r0, lsl #4
    1200:	0001209f 	muleq	r1, pc, r0	; <UNPREDICTABLE>
    1204:	00012000 	andeq	r2, r1, r0
    1208:	52000100 	andpl	r0, r0, #0, 2
    120c:	00000120 	andeq	r0, r0, r0, lsr #2
    1210:	00000128 	andeq	r0, r0, r8, lsr #2
    1214:	9f300002 	svcls	0x00300002
    1218:	00000128 	andeq	r0, r0, r8, lsr #2
    121c:	0000013b 	andeq	r0, r0, fp, lsr r1
    1220:	00520001 	subseq	r0, r2, r1
    1224:	00000000 	andeq	r0, r0, r0
    1228:	18000000 	stmdane	r0, {}	; <UNPREDICTABLE>
    122c:	2c000001 	stccs	0, cr0, [r0], {1}
    1230:	02000001 	andeq	r0, r0, #1
    1234:	2c9f3000 	ldccs	0, cr3, [pc], {0}
    1238:	38000001 	stmdacc	r0, {r0}
    123c:	05000001 	streq	r0, [r0, #-1]
    1240:	00733100 	rsbseq	r3, r3, r0, lsl #2
    1244:	01389f24 	teqeq	r8, r4, lsr #30
    1248:	013b0000 	teqeq	fp, r0
    124c:	00010000 	andeq	r0, r1, r0
    1250:	00013b51 	andeq	r3, r1, r1, asr fp
    1254:	00014400 	andeq	r4, r1, r0, lsl #8
    1258:	31000800 	tstcc	r0, r0, lsl #16
    125c:	4f5001f3 	svcmi	0x005001f3
    1260:	009f241a 	addseq	r2, pc, sl, lsl r4	; <UNPREDICTABLE>
    1264:	00000000 	andeq	r0, r0, r0
    1268:	44000000 	strmi	r0, [r0], #-0
    126c:	d4000001 	strle	r0, [r0], #-1
    1270:	01000001 	tsteq	r0, r1
    1274:	01d45000 	bicseq	r5, r4, r0
    1278:	02100000 	andseq	r0, r0, #0
    127c:	00010000 	andeq	r0, r1, r0
    1280:	00000054 	andeq	r0, r0, r4, asr r0
    1284:	00000000 	andeq	r0, r0, r0
    1288:	00018c00 	andeq	r8, r1, r0, lsl #24
    128c:	00019000 	andeq	r9, r1, r0
    1290:	55000100 	strpl	r0, [r0, #-256]	; 0x100
    1294:	00000198 	muleq	r0, r8, r1
    1298:	0000019c 	muleq	r0, ip, r1
    129c:	a4550001 	ldrbge	r0, [r5], #-1
    12a0:	a8000001 	stmdage	r0, {r0}
    12a4:	01000001 	tsteq	r0, r1
    12a8:	01b05500 	lslseq	r5, r0, #10
    12ac:	01b40000 			; <UNDEFINED> instruction: 0x01b40000
    12b0:	00010000 	andeq	r0, r1, r0
    12b4:	0001bc55 	andeq	fp, r1, r5, asr ip
    12b8:	0001c000 	andeq	ip, r1, r0
    12bc:	55000100 	strpl	r0, [r0, #-256]	; 0x100
    12c0:	000001c8 	andeq	r0, r0, r8, asr #3
    12c4:	000001cc 	andeq	r0, r0, ip, asr #3
    12c8:	d0550001 	subsle	r0, r5, r1
    12cc:	10000001 	andne	r0, r0, r1
    12d0:	01000002 	tsteq	r0, r2
    12d4:	00005500 	andeq	r5, r0, r0, lsl #10
    12d8:	00000000 	andeq	r0, r0, r0
    12dc:	01600000 	cmneq	r0, r0
    12e0:	01880000 	orreq	r0, r8, r0
    12e4:	00010000 	andeq	r0, r1, r0
    12e8:	00018853 	andeq	r8, r1, r3, asr r8
    12ec:	00019000 	andeq	r9, r1, r0
    12f0:	70001c00 	andvc	r1, r0, r0, lsl #24
    12f4:	f72cf700 			; <UNDEFINED> instruction: 0xf72cf700
    12f8:	0825f425 	stmdaeq	r5!, {r0, r2, r5, sl, ip, sp, lr, pc}
    12fc:	cccccccd 	stclgt	12, cr12, [ip], {205}	; 0xcd
    1300:	00000000 	andeq	r0, r0, r0
    1304:	f720081e 			; <UNDEFINED> instruction: 0xf720081e
    1308:	2cf72525 	cfldr64cs	mvdx2, [r7], #148	; 0x94
    130c:	909f2533 	addsls	r2, pc, r3, lsr r5	; <UNPREDICTABLE>
    1310:	94000001 	strls	r0, [r0], #-1
    1314:	01000001 	tsteq	r0, r1
    1318:	01945300 	orrseq	r5, r4, r0, lsl #6
    131c:	019c0000 	orrseq	r0, ip, r0
    1320:	001c0000 	andseq	r0, ip, r0
    1324:	2cf70070 	ldclcs	0, cr0, [r7], #448	; 0x1c0
    1328:	25f425f7 	ldrbcs	r2, [r4, #1527]!	; 0x5f7
    132c:	cccccd08 	stclgt	13, cr12, [ip], {8}
    1330:	000000cc 	andeq	r0, r0, ip, asr #1
    1334:	20081e00 	andcs	r1, r8, r0, lsl #28
    1338:	f72525f7 			; <UNDEFINED> instruction: 0xf72525f7
    133c:	9f25332c 	svcls	0x0025332c
    1340:	0000019c 	muleq	r0, ip, r1
    1344:	000001a0 	andeq	r0, r0, r0, lsr #3
    1348:	a0530001 	subsge	r0, r3, r1
    134c:	a8000001 	stmdage	r0, {r0}
    1350:	1c000001 	stcne	0, cr0, [r0], {1}
    1354:	f7007000 			; <UNDEFINED> instruction: 0xf7007000
    1358:	f425f72c 	vld1.8	{d15}, [r5 :128], ip
    135c:	cccd0825 	stclgt	8, cr0, [sp], {37}	; 0x25
    1360:	0000cccc 	andeq	ip, r0, ip, asr #25
    1364:	081e0000 	ldmdaeq	lr, {}	; <UNPREDICTABLE>
    1368:	2525f720 	strcs	pc, [r5, #-1824]!	; 0x720
    136c:	25332cf7 	ldrcs	r2, [r3, #-3319]!	; 0xcf7
    1370:	0001a89f 	muleq	r1, pc, r8	; <UNPREDICTABLE>
    1374:	0001ac00 	andeq	sl, r1, r0, lsl #24
    1378:	53000100 	movwpl	r0, #256	; 0x100
    137c:	000001ac 	andeq	r0, r0, ip, lsr #3
    1380:	000001b4 			; <UNDEFINED> instruction: 0x000001b4
    1384:	0070001c 	rsbseq	r0, r0, ip, lsl r0
    1388:	25f72cf7 	ldrbcs	r2, [r7, #3319]!	; 0xcf7
    138c:	cd0825f4 	cfstr32gt	mvfx2, [r8, #-976]	; 0xfffffc30
    1390:	00cccccc 	sbceq	ip, ip, ip, asr #25
    1394:	1e000000 	cdpne	0, 0, cr0, cr0, cr0, {0}
    1398:	25f72008 	ldrbcs	r2, [r7, #8]!
    139c:	332cf725 	msrcc	CPSR_fs, #9699328	; 0x940000
    13a0:	01b49f25 			; <UNDEFINED> instruction: 0x01b49f25
    13a4:	01b80000 			; <UNDEFINED> instruction: 0x01b80000
    13a8:	00010000 	andeq	r0, r1, r0
    13ac:	0001b853 	andeq	fp, r1, r3, asr r8
    13b0:	0001c000 	andeq	ip, r1, r0
    13b4:	70001c00 	andvc	r1, r0, r0, lsl #24
    13b8:	f72cf700 			; <UNDEFINED> instruction: 0xf72cf700
    13bc:	0825f425 	stmdaeq	r5!, {r0, r2, r5, sl, ip, sp, lr, pc}
    13c0:	cccccccd 	stclgt	12, cr12, [ip], {205}	; 0xcd
    13c4:	00000000 	andeq	r0, r0, r0
    13c8:	f720081e 			; <UNDEFINED> instruction: 0xf720081e
    13cc:	2cf72525 	cfldr64cs	mvdx2, [r7], #148	; 0x94
    13d0:	c09f2533 	addsgt	r2, pc, r3, lsr r5	; <UNPREDICTABLE>
    13d4:	c4000001 	strgt	r0, [r0], #-1
    13d8:	01000001 	tsteq	r0, r1
    13dc:	01c45300 	biceq	r5, r4, r0, lsl #6
    13e0:	01cc0000 	biceq	r0, ip, r0
    13e4:	001c0000 	andseq	r0, ip, r0
    13e8:	2cf70070 	ldclcs	0, cr0, [r7], #448	; 0x1c0
    13ec:	25f425f7 	ldrbcs	r2, [r4, #1527]!	; 0x5f7
    13f0:	cccccd08 	stclgt	13, cr12, [ip], {8}
    13f4:	000000cc 	andeq	r0, r0, ip, asr #1
    13f8:	20081e00 	andcs	r1, r8, r0, lsl #28
    13fc:	f72525f7 			; <UNDEFINED> instruction: 0xf72525f7
    1400:	9f25332c 	svcls	0x0025332c
    1404:	000001cc 	andeq	r0, r0, ip, asr #3
    1408:	000001d0 	ldrdeq	r0, [r0], -r0	; <UNPREDICTABLE>
    140c:	d0530001 	subsle	r0, r3, r1
    1410:	d4000001 	strle	r0, [r0], #-1
    1414:	1c000001 	stcne	0, cr0, [r0], {1}
    1418:	f7007000 			; <UNDEFINED> instruction: 0xf7007000
    141c:	f425f72c 	vld1.8	{d15}, [r5 :128], ip
    1420:	cccd0825 	stclgt	8, cr0, [sp], {37}	; 0x25
    1424:	0000cccc 	andeq	ip, r0, ip, asr #25
    1428:	081e0000 	ldmdaeq	lr, {}	; <UNPREDICTABLE>
    142c:	2525f720 	strcs	pc, [r5, #-1824]!	; 0x720
    1430:	25332cf7 	ldrcs	r2, [r3, #-3319]!	; 0xcf7
    1434:	0001d49f 	muleq	r1, pc, r4	; <UNPREDICTABLE>
    1438:	0001dc00 	andeq	sp, r1, r0, lsl #24
    143c:	74001c00 	strvc	r1, [r0], #-3072	; 0xc00
    1440:	f72cf700 			; <UNDEFINED> instruction: 0xf72cf700
    1444:	0825f425 	stmdaeq	r5!, {r0, r2, r5, sl, ip, sp, lr, pc}
    1448:	cccccccd 	stclgt	12, cr12, [ip], {205}	; 0xcd
    144c:	00000000 	andeq	r0, r0, r0
    1450:	f720081e 			; <UNDEFINED> instruction: 0xf720081e
    1454:	2cf72525 	cfldr64cs	mvdx2, [r7], #148	; 0x94
    1458:	dc9f2533 	cfldr32le	mvfx2, [pc], {51}	; 0x33
    145c:	e0000001 	and	r0, r0, r1
    1460:	17000001 	strne	r0, [r0, -r1]
    1464:	f7007400 			; <UNDEFINED> instruction: 0xf7007400
    1468:	7125f72c 	msrvc	SP_abt, ip
    146c:	f72cf700 			; <UNDEFINED> instruction: 0xf72cf700
    1470:	20081e25 	andcs	r1, r8, r5, lsr #28
    1474:	f72525f7 			; <UNDEFINED> instruction: 0xf72525f7
    1478:	9f25332c 	svcls	0x0025332c
    147c:	000001e0 	andeq	r0, r0, r0, ror #3
    1480:	00000210 	andeq	r0, r0, r0, lsl r2
    1484:	0074001c 	rsbseq	r0, r4, ip, lsl r0
    1488:	25f72cf7 	ldrbcs	r2, [r7, #3319]!	; 0xcf7
    148c:	cd0825f4 	cfstr32gt	mvfx2, [r8, #-976]	; 0xfffffc30
    1490:	00cccccc 	sbceq	ip, ip, ip, asr #25
    1494:	1e000000 	cdpne	0, 0, cr0, cr0, cr0, {0}
    1498:	25f72008 	ldrbcs	r2, [r7, #8]!
    149c:	332cf725 	msrcc	CPSR_fs, #9699328	; 0x940000
    14a0:	00009f25 	andeq	r9, r0, r5, lsr #30
    14a4:	00000000 	andeq	r0, r0, r0
    14a8:	01d80000 	bicseq	r0, r8, r0
    14ac:	01fc0000 	mvnseq	r0, r0
    14b0:	00010000 	andeq	r0, r1, r0
    14b4:	0001fc50 	andeq	pc, r1, r0, asr ip	; <UNPREDICTABLE>
    14b8:	00020300 	andeq	r0, r2, r0, lsl #6
    14bc:	51000100 	mrspl	r0, (UNDEF: 16)
	...
    14c8:	00000210 	andeq	r0, r0, r0, lsl r2
    14cc:	0000022c 	andeq	r0, r0, ip, lsr #4
    14d0:	2c500001 	mrrccs	0, 0, r0, r0, cr1	; <UNPREDICTABLE>
    14d4:	34000002 	strcc	r0, [r0], #-2
    14d8:	01000002 	tsteq	r0, r2
    14dc:	02345400 	eorseq	r5, r4, #0, 8
    14e0:	023c0000 	eorseq	r0, ip, #0
    14e4:	00010000 	andeq	r0, r1, r0
    14e8:	00023c50 	andeq	r3, r2, r0, asr ip
    14ec:	00024400 	andeq	r4, r2, r0, lsl #8
    14f0:	54000100 	strpl	r0, [r0], #-256	; 0x100
    14f4:	00000244 	andeq	r0, r0, r4, asr #4
    14f8:	00000250 	andeq	r0, r0, r0, asr r2
    14fc:	01f30004 	mvnseq	r0, r4
    1500:	02509f50 	subseq	r9, r0, #80, 30	; 0x140
    1504:	02540000 	subseq	r0, r4, #0
    1508:	00010000 	andeq	r0, r1, r0
    150c:	00025450 	andeq	r5, r2, r0, asr r4
    1510:	00025c00 	andeq	r5, r2, r0, lsl #24
    1514:	54000100 	strpl	r0, [r0], #-256	; 0x100
	...
    1520:	00000220 	andeq	r0, r0, r0, lsr #4
    1524:	00000230 	andeq	r0, r0, r0, lsr r2
    1528:	9f300002 	svcls	0x00300002
    152c:	00000230 	andeq	r0, r0, r0, lsr r2
    1530:	00000234 	andeq	r0, r0, r4, lsr r2
    1534:	34500001 	ldrbcc	r0, [r0], #-1
    1538:	40000002 	andmi	r0, r0, r2
    153c:	02000002 	andeq	r0, r0, #2
    1540:	409f3000 	addsmi	r3, pc, r0
    1544:	4c000002 	stcmi	0, cr0, [r0], {2}
    1548:	01000002 	tsteq	r0, r2
    154c:	00005000 	andeq	r5, r0, r0
    1550:	00000000 	andeq	r0, r0, r0
    1554:	025c0000 	subseq	r0, ip, #0
    1558:	02730000 	rsbseq	r0, r3, #0
    155c:	00010000 	andeq	r0, r1, r0
    1560:	00027350 	andeq	r7, r2, r0, asr r3
    1564:	00027800 	andeq	r7, r2, r0, lsl #16
    1568:	f3000400 	vshl.u8	d0, d0, d0
    156c:	789f5001 	ldmvc	pc, {r0, ip, lr}	; <UNPREDICTABLE>
    1570:	7b000002 	blvc	1580 <_start-0x6a80>
    1574:	01000002 	tsteq	r0, r2
    1578:	027b5000 	rsbseq	r5, fp, #0
    157c:	02800000 	addeq	r0, r0, #0
    1580:	00040000 	andeq	r0, r4, r0
    1584:	9f5001f3 	svcls	0x005001f3
	...
    1590:	0000025c 	andeq	r0, r0, ip, asr r2
    1594:	00000273 	andeq	r0, r0, r3, ror r2
    1598:	73510001 	cmpvc	r1, #1
    159c:	78000002 	stmdavc	r0, {r1}
    15a0:	04000002 	streq	r0, [r0], #-2
    15a4:	5101f300 	mrspl	pc, SP_irq	; <UNPREDICTABLE>
    15a8:	0002789f 	muleq	r2, pc, r8	; <UNPREDICTABLE>
    15ac:	00027b00 	andeq	r7, r2, r0, lsl #22
    15b0:	51000100 	mrspl	r0, (UNDEF: 16)
    15b4:	0000027b 	andeq	r0, r0, fp, ror r2
    15b8:	00000280 	andeq	r0, r0, r0, lsl #5
    15bc:	01f30004 	mvnseq	r0, r4
    15c0:	00009f51 	andeq	r9, r0, r1, asr pc
    15c4:	00000000 	andeq	r0, r0, r0
    15c8:	02800000 	addeq	r0, r0, #0
    15cc:	03180000 	tsteq	r8, #0
    15d0:	00010000 	andeq	r0, r1, r0
    15d4:	00031850 	andeq	r1, r3, r0, asr r8
    15d8:	00035800 	andeq	r5, r3, r0, lsl #16
    15dc:	54000100 	strpl	r0, [r0], #-256	; 0x100
	...
    15e8:	00000280 	andeq	r0, r0, r0, lsl #5
    15ec:	0000031b 	andeq	r0, r0, fp, lsl r3
    15f0:	1b510001 	blne	14415fc <__bss_end__+0x14374f4>
    15f4:	58000003 	stmdapl	r0, {r0, r1}
    15f8:	04000003 	streq	r0, [r0], #-3
    15fc:	5101f300 	mrspl	pc, SP_irq	; <UNPREDICTABLE>
    1600:	0000009f 	muleq	r0, pc, r0	; <UNPREDICTABLE>
    1604:	00000000 	andeq	r0, r0, r0
    1608:	0002d000 	andeq	sp, r2, r0
    160c:	0002d400 	andeq	sp, r2, r0, lsl #8
    1610:	56000100 	strpl	r0, [r0], -r0, lsl #2
    1614:	000002dc 	ldrdeq	r0, [r0], -ip
    1618:	000002e0 	andeq	r0, r0, r0, ror #5
    161c:	e8560001 	ldmda	r6, {r0}^
    1620:	ec000002 	stc	0, cr0, [r0], {2}
    1624:	01000002 	tsteq	r0, r2
    1628:	02f45600 	rscseq	r5, r4, #0, 12
    162c:	02f80000 	rscseq	r0, r8, #0
    1630:	00010000 	andeq	r0, r1, r0
    1634:	00030056 	andeq	r0, r3, r6, asr r0
    1638:	00030400 	andeq	r0, r3, r0, lsl #8
    163c:	56000100 	strpl	r0, [r0], -r0, lsl #2
    1640:	0000030c 	andeq	r0, r0, ip, lsl #6
    1644:	00000310 	andeq	r0, r0, r0, lsl r3
    1648:	14560001 	ldrbne	r0, [r6], #-1
    164c:	58000003 	stmdapl	r0, {r0, r1}
    1650:	01000003 	tsteq	r0, r3
    1654:	00005600 	andeq	r5, r0, r0, lsl #12
    1658:	00000000 	andeq	r0, r0, r0
    165c:	02a40000 	adceq	r0, r4, #0
    1660:	02cc0000 	sbceq	r0, ip, #0
    1664:	00010000 	andeq	r0, r1, r0
    1668:	0002cc53 	andeq	ip, r2, r3, asr ip
    166c:	0002d400 	andeq	sp, r2, r0, lsl #8
    1670:	70001c00 	andvc	r1, r0, r0, lsl #24
    1674:	f72cf700 			; <UNDEFINED> instruction: 0xf72cf700
    1678:	0825f425 	stmdaeq	r5!, {r0, r2, r5, sl, ip, sp, lr, pc}
    167c:	cccccccd 	stclgt	12, cr12, [ip], {205}	; 0xcd
    1680:	00000000 	andeq	r0, r0, r0
    1684:	f720081e 			; <UNDEFINED> instruction: 0xf720081e
    1688:	2cf72525 	cfldr64cs	mvdx2, [r7], #148	; 0x94
    168c:	d49f2533 	ldrle	r2, [pc], #1331	; 1694 <_start-0x696c>
    1690:	d8000002 	stmdale	r0, {r1}
    1694:	01000002 	tsteq	r0, r2
    1698:	02d85300 	sbcseq	r5, r8, #0, 6
    169c:	02e00000 	rsceq	r0, r0, #0
    16a0:	001c0000 	andseq	r0, ip, r0
    16a4:	2cf70070 	ldclcs	0, cr0, [r7], #448	; 0x1c0
    16a8:	25f425f7 	ldrbcs	r2, [r4, #1527]!	; 0x5f7
    16ac:	cccccd08 	stclgt	13, cr12, [ip], {8}
    16b0:	000000cc 	andeq	r0, r0, ip, asr #1
    16b4:	20081e00 	andcs	r1, r8, r0, lsl #28
    16b8:	f72525f7 			; <UNDEFINED> instruction: 0xf72525f7
    16bc:	9f25332c 	svcls	0x0025332c
    16c0:	000002e0 	andeq	r0, r0, r0, ror #5
    16c4:	000002e4 	andeq	r0, r0, r4, ror #5
    16c8:	e4530001 	ldrb	r0, [r3], #-1
    16cc:	ec000002 	stc	0, cr0, [r0], {2}
    16d0:	1c000002 	stcne	0, cr0, [r0], {2}
    16d4:	f7007000 			; <UNDEFINED> instruction: 0xf7007000
    16d8:	f425f72c 	vld1.8	{d15}, [r5 :128], ip
    16dc:	cccd0825 	stclgt	8, cr0, [sp], {37}	; 0x25
    16e0:	0000cccc 	andeq	ip, r0, ip, asr #25
    16e4:	081e0000 	ldmdaeq	lr, {}	; <UNPREDICTABLE>
    16e8:	2525f720 	strcs	pc, [r5, #-1824]!	; 0x720
    16ec:	25332cf7 	ldrcs	r2, [r3, #-3319]!	; 0xcf7
    16f0:	0002ec9f 	muleq	r2, pc, ip	; <UNPREDICTABLE>
    16f4:	0002f000 	andeq	pc, r2, r0
    16f8:	53000100 	movwpl	r0, #256	; 0x100
    16fc:	000002f0 	strdeq	r0, [r0], -r0	; <UNPREDICTABLE>
    1700:	000002f8 	strdeq	r0, [r0], -r8
    1704:	0070001c 	rsbseq	r0, r0, ip, lsl r0
    1708:	25f72cf7 	ldrbcs	r2, [r7, #3319]!	; 0xcf7
    170c:	cd0825f4 	cfstr32gt	mvfx2, [r8, #-976]	; 0xfffffc30
    1710:	00cccccc 	sbceq	ip, ip, ip, asr #25
    1714:	1e000000 	cdpne	0, 0, cr0, cr0, cr0, {0}
    1718:	25f72008 	ldrbcs	r2, [r7, #8]!
    171c:	332cf725 	msrcc	CPSR_fs, #9699328	; 0x940000
    1720:	02f89f25 	rscseq	r9, r8, #37, 30	; 0x94
    1724:	02fc0000 	rscseq	r0, ip, #0
    1728:	00010000 	andeq	r0, r1, r0
    172c:	0002fc53 	andeq	pc, r2, r3, asr ip	; <UNPREDICTABLE>
    1730:	00030400 	andeq	r0, r3, r0, lsl #8
    1734:	70001c00 	andvc	r1, r0, r0, lsl #24
    1738:	f72cf700 			; <UNDEFINED> instruction: 0xf72cf700
    173c:	0825f425 	stmdaeq	r5!, {r0, r2, r5, sl, ip, sp, lr, pc}
    1740:	cccccccd 	stclgt	12, cr12, [ip], {205}	; 0xcd
    1744:	00000000 	andeq	r0, r0, r0
    1748:	f720081e 			; <UNDEFINED> instruction: 0xf720081e
    174c:	2cf72525 	cfldr64cs	mvdx2, [r7], #148	; 0x94
    1750:	049f2533 	ldreq	r2, [pc], #1331	; 1758 <_start-0x68a8>
    1754:	08000003 	stmdaeq	r0, {r0, r1}
    1758:	01000003 	tsteq	r0, r3
    175c:	03085300 	movweq	r5, #33536	; 0x8300
    1760:	03100000 	tsteq	r0, #0
    1764:	001c0000 	andseq	r0, ip, r0
    1768:	2cf70070 	ldclcs	0, cr0, [r7], #448	; 0x1c0
    176c:	25f425f7 	ldrbcs	r2, [r4, #1527]!	; 0x5f7
    1770:	cccccd08 	stclgt	13, cr12, [ip], {8}
    1774:	000000cc 	andeq	r0, r0, ip, asr #1
    1778:	20081e00 	andcs	r1, r8, r0, lsl #28
    177c:	f72525f7 			; <UNDEFINED> instruction: 0xf72525f7
    1780:	9f25332c 	svcls	0x0025332c
    1784:	00000310 	andeq	r0, r0, r0, lsl r3
    1788:	00000314 	andeq	r0, r0, r4, lsl r3
    178c:	14530001 	ldrbne	r0, [r3], #-1
    1790:	18000003 	stmdane	r0, {r0, r1}
    1794:	1c000003 	stcne	0, cr0, [r0], {3}
    1798:	f7007000 			; <UNDEFINED> instruction: 0xf7007000
    179c:	f425f72c 	vld1.8	{d15}, [r5 :128], ip
    17a0:	cccd0825 	stclgt	8, cr0, [sp], {37}	; 0x25
    17a4:	0000cccc 	andeq	ip, r0, ip, asr #25
    17a8:	081e0000 	ldmdaeq	lr, {}	; <UNPREDICTABLE>
    17ac:	2525f720 	strcs	pc, [r5, #-1824]!	; 0x720
    17b0:	25332cf7 	ldrcs	r2, [r3, #-3319]!	; 0xcf7
    17b4:	0003189f 	muleq	r3, pc, r8	; <UNPREDICTABLE>
    17b8:	00032000 	andeq	r2, r3, r0
    17bc:	74001c00 	strvc	r1, [r0], #-3072	; 0xc00
    17c0:	f72cf700 			; <UNDEFINED> instruction: 0xf72cf700
    17c4:	0825f425 	stmdaeq	r5!, {r0, r2, r5, sl, ip, sp, lr, pc}
    17c8:	cccccccd 	stclgt	12, cr12, [ip], {205}	; 0xcd
    17cc:	00000000 	andeq	r0, r0, r0
    17d0:	f720081e 			; <UNDEFINED> instruction: 0xf720081e
    17d4:	2cf72525 	cfldr64cs	mvdx2, [r7], #148	; 0x94
    17d8:	209f2533 	addscs	r2, pc, r3, lsr r5	; <UNPREDICTABLE>
    17dc:	24000003 	strcs	r0, [r0], #-3
    17e0:	17000003 	strne	r0, [r0, -r3]
    17e4:	f7007400 			; <UNDEFINED> instruction: 0xf7007400
    17e8:	7325f72c 	msrvc	CPSR_sc, #44, 14	; 0xb00000
    17ec:	f72cf700 			; <UNDEFINED> instruction: 0xf72cf700
    17f0:	20081e25 	andcs	r1, r8, r5, lsr #28
    17f4:	f72525f7 			; <UNDEFINED> instruction: 0xf72525f7
    17f8:	9f25332c 	svcls	0x0025332c
    17fc:	00000324 	andeq	r0, r0, r4, lsr #6
    1800:	00000358 	andeq	r0, r0, r8, asr r3
    1804:	0074001c 	rsbseq	r0, r4, ip, lsl r0
    1808:	25f72cf7 	ldrbcs	r2, [r7, #3319]!	; 0xcf7
    180c:	cd0825f4 	cfstr32gt	mvfx2, [r8, #-976]	; 0xfffffc30
    1810:	00cccccc 	sbceq	ip, ip, ip, asr #25
    1814:	1e000000 	cdpne	0, 0, cr0, cr0, cr0, {0}
    1818:	25f72008 	ldrbcs	r2, [r7, #8]!
    181c:	332cf725 	msrcc	CPSR_fs, #9699328	; 0x940000
    1820:	00009f25 	andeq	r9, r0, r5, lsr #30
    1824:	00000000 	andeq	r0, r0, r0
    1828:	031c0000 	tsteq	ip, #0
    182c:	03400000 	movteq	r0, #0
    1830:	00010000 	andeq	r0, r1, r0
    1834:	00034050 	andeq	r4, r3, r0, asr r0
    1838:	00034800 	andeq	r4, r3, r0, lsl #16
    183c:	75000900 	strvc	r0, [r0, #-2304]	; 0x900
    1840:	24007300 	strcs	r7, [r0], #-768	; 0x300
    1844:	9f210071 	svcls	0x00210071
    1848:	00000348 	andeq	r0, r0, r8, asr #6
    184c:	0000034b 	andeq	r0, r0, fp, asr #6
    1850:	00510001 	subseq	r0, r1, r1
    1854:	00000000 	andeq	r0, r0, r0
    1858:	58000000 	stmdapl	r0, {}	; <UNPREDICTABLE>
    185c:	7c000003 	stcvc	0, cr0, [r0], {3}
    1860:	01000003 	tsteq	r0, r3
    1864:	037c5000 	cmneq	ip, #0
    1868:	03900000 	orrseq	r0, r0, #0
    186c:	00040000 	andeq	r0, r4, r0
    1870:	9f5001f3 	svcls	0x005001f3
	...
    187c:	00000364 	andeq	r0, r0, r4, ror #6
    1880:	0000036c 	andeq	r0, r0, ip, ror #6
    1884:	9f300002 	svcls	0x00300002
    1888:	0000036c 	andeq	r0, r0, ip, ror #6
    188c:	0000036c 	andeq	r0, r0, ip, ror #6
    1890:	6c520001 	mrrcvs	0, 0, r0, r2, cr1
    1894:	74000003 	strvc	r0, [r0], #-3
    1898:	02000003 	andeq	r0, r0, #3
    189c:	749f3000 	ldrvc	r3, [pc], #0	; 18a4 <_start-0x675c>
    18a0:	87000003 	strhi	r0, [r0, -r3]
    18a4:	01000003 	tsteq	r0, r3
    18a8:	00005200 	andeq	r5, r0, r0, lsl #4
    18ac:	00000000 	andeq	r0, r0, r0
    18b0:	03640000 	cmneq	r4, #0
    18b4:	03780000 	cmneq	r8, #0
    18b8:	00020000 	andeq	r0, r2, r0
    18bc:	03789f30 	cmneq	r8, #48, 30	; 0xc0
    18c0:	03840000 	orreq	r0, r4, #0
    18c4:	00050000 	andeq	r0, r5, r0
    18c8:	24007331 	strcs	r7, [r0], #-817	; 0x331
    18cc:	0003849f 	muleq	r3, pc, r4	; <UNPREDICTABLE>
    18d0:	00038700 	andeq	r8, r3, r0, lsl #14
    18d4:	51000100 	mrspl	r0, (UNDEF: 16)
    18d8:	00000387 	andeq	r0, r0, r7, lsl #7
    18dc:	00000390 	muleq	r0, r0, r3
    18e0:	f3310008 	vhadd.u<illegal width 64>	d0, d1, d8
    18e4:	1a4f5001 	bne	13d58f0 <__bss_end__+0x13cb7e8>
    18e8:	00009f24 	andeq	r9, r0, r4, lsr #30
    18ec:	00000000 	andeq	r0, r0, r0
    18f0:	03900000 	orrseq	r0, r0, #0
    18f4:	039c0000 	orrseq	r0, ip, #0
    18f8:	00010000 	andeq	r0, r1, r0
    18fc:	00039c50 	andeq	r9, r3, r0, asr ip
    1900:	0003bc00 	andeq	fp, r3, r0, lsl #24
    1904:	f3000400 	vshl.u8	d0, d0, d0
    1908:	009f5001 	addseq	r5, pc, r1
    190c:	00000000 	andeq	r0, r0, r0
    1910:	bc000000 	stclt	0, cr0, [r0], {-0}
    1914:	cf000003 	svcgt	0x00000003
    1918:	01000003 	tsteq	r0, r3
    191c:	03cf5000 	biceq	r5, pc, #0
    1920:	04080000 	streq	r0, [r8], #-0
    1924:	00010000 	andeq	r0, r1, r0
    1928:	00040854 	andeq	r0, r4, r4, asr r8
    192c:	00044000 	andeq	r4, r4, r0
    1930:	f3000400 	vshl.u8	d0, d0, d0
    1934:	009f5001 	addseq	r5, pc, r1
    1938:	00000000 	andeq	r0, r0, r0
    193c:	28000000 	stmdacs	r0, {}	; <UNPREDICTABLE>
    1940:	2c000004 	stccs	0, cr0, [r0], {4}
    1944:	01000004 	tsteq	r0, r4
    1948:	042c5000 	strteq	r5, [ip], #-0
    194c:	04330000 	ldrteq	r0, [r3], #-0
    1950:	00010000 	andeq	r0, r1, r0
    1954:	00000051 	andeq	r0, r0, r1, asr r0
    1958:	00000000 	andeq	r0, r0, r0
    195c:	0003e400 	andeq	lr, r3, r0, lsl #8
    1960:	0003ec00 	andeq	lr, r3, r0, lsl #24
    1964:	50000100 	andpl	r0, r0, r0, lsl #2
    1968:	000003ec 	andeq	r0, r0, ip, ror #7
    196c:	000003f3 	strdeq	r0, [r0], -r3
    1970:	00510001 	subseq	r0, r1, r1
    1974:	00000000 	andeq	r0, r0, r0
    1978:	04000000 	streq	r0, [r0], #-0
    197c:	10000004 	andne	r0, r0, r4
    1980:	01000004 	tsteq	r0, r4
    1984:	04105000 	ldreq	r5, [r0], #-0
    1988:	04170000 	ldreq	r0, [r7], #-0
    198c:	00010000 	andeq	r0, r1, r0
    1990:	00000051 	andeq	r0, r0, r1, asr r0
    1994:	00000000 	andeq	r0, r0, r0
    1998:	00044000 	andeq	r4, r4, r0
    199c:	00045300 	andeq	r5, r4, r0, lsl #6
    19a0:	50000100 	andpl	r0, r0, r0, lsl #2
    19a4:	00000453 	andeq	r0, r0, r3, asr r4
    19a8:	0000048c 	andeq	r0, r0, ip, lsl #9
    19ac:	8c540001 	mrrchi	0, 0, r0, r4, cr1
    19b0:	c4000004 	strgt	r0, [r0], #-4
    19b4:	04000004 	streq	r0, [r0], #-4
    19b8:	5001f300 	andpl	pc, r1, r0, lsl #6
    19bc:	0000009f 	muleq	r0, pc, r0	; <UNPREDICTABLE>
    19c0:	00000000 	andeq	r0, r0, r0
    19c4:	0004ac00 	andeq	sl, r4, r0, lsl #24
    19c8:	0004b000 	andeq	fp, r4, r0
    19cc:	50000100 	andpl	r0, r0, r0, lsl #2
    19d0:	000004b0 			; <UNDEFINED> instruction: 0x000004b0
    19d4:	000004b7 			; <UNDEFINED> instruction: 0x000004b7
    19d8:	00510001 	subseq	r0, r1, r1
    19dc:	00000000 	andeq	r0, r0, r0
    19e0:	68000000 	stmdavs	r0, {}	; <UNPREDICTABLE>
    19e4:	70000004 	andvc	r0, r0, r4
    19e8:	01000004 	tsteq	r0, r4
    19ec:	04705000 	ldrbteq	r5, [r0], #-0
    19f0:	04770000 	ldrbteq	r0, [r7], #-0
    19f4:	00010000 	andeq	r0, r1, r0
    19f8:	00000051 	andeq	r0, r0, r1, asr r0
    19fc:	00000000 	andeq	r0, r0, r0
    1a00:	00048800 	andeq	r8, r4, r0, lsl #16
    1a04:	00049400 	andeq	r9, r4, r0, lsl #8
    1a08:	50000100 	andpl	r0, r0, r0, lsl #2
    1a0c:	00000494 	muleq	r0, r4, r4
    1a10:	0000049b 	muleq	r0, fp, r4
    1a14:	00510001 	subseq	r0, r1, r1
    1a18:	00000000 	andeq	r0, r0, r0
    1a1c:	c4000000 	strgt	r0, [r0], #-0
    1a20:	d7000004 	strle	r0, [r0, -r4]
    1a24:	01000004 	tsteq	r0, r4
    1a28:	04d75000 	ldrbeq	r5, [r7], #0
    1a2c:	05180000 	ldreq	r0, [r8, #-0]
    1a30:	00010000 	andeq	r0, r1, r0
    1a34:	00051854 	andeq	r1, r5, r4, asr r8
    1a38:	00053c00 	andeq	r3, r5, r0, lsl #24
    1a3c:	f3000400 	vshl.u8	d0, d0, d0
    1a40:	3c9f5001 	ldccc	0, cr5, [pc], {1}
    1a44:	40000005 	andmi	r0, r0, r5
    1a48:	01000005 	tsteq	r0, r5
    1a4c:	05405000 	strbeq	r5, [r0, #-0]
    1a50:	05480000 	strbeq	r0, [r8, #-0]
    1a54:	00010000 	andeq	r0, r1, r0
    1a58:	00000054 	andeq	r0, r0, r4, asr r0
    1a5c:	00000000 	andeq	r0, r0, r0
    1a60:	0004ec00 	andeq	lr, r4, r0, lsl #24
    1a64:	0004fb00 	andeq	pc, r4, r0, lsl #22
    1a68:	31000800 	tstcc	r0, r0, lsl #16
    1a6c:	70240074 	eorvc	r0, r4, r4, ror r0
    1a70:	009f1a00 	addseq	r1, pc, r0, lsl #20
    1a74:	00000000 	andeq	r0, r0, r0
    1a78:	18000000 	stmdane	r0, {}	; <UNPREDICTABLE>
    1a7c:	30000005 	andcc	r0, r0, r5
    1a80:	01000005 	tsteq	r0, r5
    1a84:	00005400 	andeq	r5, r0, r0, lsl #8
    1a88:	00000000 	andeq	r0, r0, r0
    1a8c:	05480000 	strbeq	r0, [r8, #-0]
    1a90:	055b0000 	ldrbeq	r0, [fp, #-0]
    1a94:	00010000 	andeq	r0, r1, r0
    1a98:	00055b50 	andeq	r5, r5, r0, asr fp
    1a9c:	00058000 	andeq	r8, r5, r0
    1aa0:	54000100 	strpl	r0, [r0], #-256	; 0x100
    1aa4:	00000580 	andeq	r0, r0, r0, lsl #11
    1aa8:	000005a0 	andeq	r0, r0, r0, lsr #11
    1aac:	01f30004 	mvnseq	r0, r4
    1ab0:	00009f50 	andeq	r9, r0, r0, asr pc
    1ab4:	00000000 	andeq	r0, r0, r0
    1ab8:	00fc0000 	rscseq	r0, ip, r0
    1abc:	01040000 	mrseq	r0, (UNDEF: 4)
    1ac0:	00010000 	andeq	r0, r1, r0
    1ac4:	00010450 	andeq	r0, r1, r0, asr r4
    1ac8:	00012800 	andeq	r2, r1, r0, lsl #16
    1acc:	54000100 	strpl	r0, [r0], #-256	; 0x100
	...

Disassembly of section .debug_aranges:

00000000 <.debug_aranges>:
   0:	0000001c 	andeq	r0, r0, ip, lsl r0
   4:	00000002 	andeq	r0, r0, r2
   8:	00040000 	andeq	r0, r4, r0
   c:	00000000 	andeq	r0, r0, r0
  10:	00008010 	andeq	r8, r0, r0, lsl r0
  14:	0000038c 	andeq	r0, r0, ip, lsl #7
	...
  20:	0000001c 	andeq	r0, r0, ip, lsl r0
  24:	0ca80002 	stceq	0, cr0, [r8], #8
  28:	00040000 	andeq	r0, r4, r0
  2c:	00000000 	andeq	r0, r0, r0
  30:	0000839c 	muleq	r0, ip, r3
  34:	00000568 	andeq	r0, r0, r8, ror #10
	...
  40:	0000001c 	andeq	r0, r0, ip, lsl r0
  44:	280a0002 	stmdacs	sl, {r1}
  48:	00040000 	andeq	r0, r4, r0
  4c:	00000000 	andeq	r0, r0, r0
  50:	00008904 	andeq	r8, r0, r4, lsl #18
  54:	00000058 	andeq	r0, r0, r8, asr r0
	...
  60:	0000001c 	andeq	r0, r0, ip, lsl r0
  64:	299f0002 	ldmibcs	pc, {r1}	; <UNPREDICTABLE>
  68:	00040000 	andeq	r0, r4, r0
  6c:	00000000 	andeq	r0, r0, r0
  70:	0000895c 	andeq	r8, r0, ip, asr r9
  74:	0000003c 	andeq	r0, r0, ip, lsr r0
	...
  80:	0000001c 	andeq	r0, r0, ip, lsl r0
  84:	2ab60002 	bcs	fed80094 <__bss_end__+0xfed75f8c>
  88:	00040000 	andeq	r0, r4, r0
  8c:	00000000 	andeq	r0, r0, r0
  90:	00008998 	muleq	r0, r8, r9
  94:	00000034 	andeq	r0, r0, r4, lsr r0
	...
  a0:	0000001c 	andeq	r0, r0, ip, lsl r0
  a4:	2ba80002 	blcs	fea000b4 <__bss_end__+0xfe9f5fac>
  a8:	00040000 	andeq	r0, r4, r0
  ac:	00000000 	andeq	r0, r0, r0
  b0:	000089cc 	andeq	r8, r0, ip, asr #19
  b4:	000004f8 	strdeq	r0, [r0], -r8
	...
  c0:	0000001c 	andeq	r0, r0, ip, lsl r0
  c4:	322d0002 	eorcc	r0, sp, #2
  c8:	00040000 	andeq	r0, r4, r0
  cc:	00000000 	andeq	r0, r0, r0
  d0:	00008ec4 	andeq	r8, r0, r4, asr #29
  d4:	00000028 	andeq	r0, r0, r8, lsr #32
	...
  e0:	0000001c 	andeq	r0, r0, ip, lsl r0
  e4:	33300002 	teqcc	r0, #2
  e8:	00040000 	andeq	r0, r4, r0
  ec:	00000000 	andeq	r0, r0, r0
  f0:	00008eec 	andeq	r8, r0, ip, ror #29
  f4:	00000034 	andeq	r0, r0, r4, lsr r0
	...
 100:	0000001c 	andeq	r0, r0, ip, lsl r0
 104:	34330002 	ldrtcc	r0, [r3], #-2
 108:	00040000 	andeq	r0, r4, r0
 10c:	00000000 	andeq	r0, r0, r0
 110:	00008f20 	andeq	r8, r0, r0, lsr #30
 114:	00000074 	andeq	r0, r0, r4, ror r0
	...
 120:	0000001c 	andeq	r0, r0, ip, lsl r0
 124:	35e40002 	strbcc	r0, [r4, #2]!
 128:	00040000 	andeq	r0, r4, r0
 12c:	00000000 	andeq	r0, r0, r0
 130:	00008f94 	muleq	r0, r4, pc	; <UNPREDICTABLE>
 134:	00000088 	andeq	r0, r0, r8, lsl #1
	...
 140:	0000001c 	andeq	r0, r0, ip, lsl r0
 144:	37c00002 	strbcc	r0, [r0, r2]
 148:	00040000 	andeq	r0, r4, r0
 14c:	00000000 	andeq	r0, r0, r0
 150:	0000901c 	andeq	r9, r0, ip, lsl r0
 154:	000005a0 	andeq	r0, r0, r0, lsr #11
	...
 160:	0000001c 	andeq	r0, r0, ip, lsl r0
 164:	40460002 	submi	r0, r6, r2
 168:	00040000 	andeq	r0, r4, r0
 16c:	00000000 	andeq	r0, r0, r0
 170:	000095bc 			; <UNDEFINED> instruction: 0x000095bc
 174:	00000154 	andeq	r0, r0, r4, asr r1
	...

Disassembly of section .debug_line:

00000000 <.debug_line>:
   0:	00000151 	andeq	r0, r0, r1, asr r1
   4:	00e30002 	rsceq	r0, r3, r2
   8:	01020000 	mrseq	r0, (UNDEF: 2)
   c:	000d0efb 	strdeq	r0, [sp], -fp
  10:	01010101 	tsteq	r1, r1, lsl #2
  14:	01000000 	mrseq	r0, (UNDEF: 0)
  18:	2f010000 	svccs	0x00010000
  1c:	2f727375 	svccs	0x00727375
  20:	61636f6c 	cmnvs	r3, ip, ror #30
  24:	65432f6c 	strbvs	r2, [r3, #-3948]	; 0xf6c
  28:	72616c6c 	rsbvc	r6, r1, #108, 24	; 0x6c00
  2c:	6d72612f 	ldfvse	f6, [r2, #-188]!	; 0xffffff44
  30:	6e6f6e2d 	cdpvs	14, 6, cr6, cr15, cr13, {1}
  34:	61652d65 	cmnvs	r5, r5, ror #26
  38:	342f6962 	strtcc	r6, [pc], #-2402	; 40 <_start-0x7fc0>
  3c:	332e382e 	teqcc	lr, #3014656	; 0x2e0000
  40:	3173632d 	cmncc	r3, sp, lsr #6
  44:	2f653037 	svccs	0x00653037
  48:	2f62696c 	svccs	0x0062696c
  4c:	2f636367 	svccs	0x00636367
  50:	2d6d7261 	sfmcs	f7, 2, [sp, #-388]!	; 0xfffffe7c
  54:	656e6f6e 	strbvs	r6, [lr, #-3950]!	; 0xf6e
  58:	6261652d 	rsbvs	r6, r1, #188743680	; 0xb400000
  5c:	2e342f69 	cdpcs	15, 3, cr2, cr4, cr9, {3}
  60:	2f332e38 	svccs	0x00332e38
  64:	6c636e69 	stclvs	14, cr6, [r3], #-420	; 0xfffffe5c
  68:	00656475 	rsbeq	r6, r5, r5, ror r4
  6c:	6573552f 	ldrbvs	r5, [r3, #-1327]!	; 0x52f
  70:	622f7372 	eorvs	r7, pc, #-939524095	; 0xc8000001
  74:	6e616972 	mcrvs	9, 3, r6, cr1, cr2, {3}
  78:	2f6e756a 	svccs	0x006e756a
  7c:	6b736544 	blvs	1cd9594 <__bss_end__+0x1ccf48c>
  80:	2f706f74 	svccs	0x00706f74
  84:	6f686373 	svcvs	0x00686373
  88:	572f6c6f 	strpl	r6, [pc, -pc, ror #24]!
  8c:	65746e69 	ldrbvs	r6, [r4, #-3689]!	; 0xe69
  90:	32393172 	eorscc	r3, r9, #-2147483620	; 0x8000001c
  94:	53432f30 	movtpl	r2, #16176	; 0x3f30
  98:	45303431 	ldrmi	r3, [r0, #-1073]!	; 0x431
  9c:	3173632f 	cmncc	r3, pc, lsr #6
  a0:	2d653034 	stclcs	0, cr3, [r5, #-208]!	; 0xffffff30
  a4:	69773032 	ldmdbvs	r7!, {r1, r4, r5, ip, sp}^
  a8:	696c2f6e 	stmdbvs	ip!, {r1, r2, r3, r5, r6, r8, r9, sl, fp, sp}^
  ac:	00697062 	rsbeq	r7, r9, r2, rrx
  b0:	63636100 	cmnvs	r3, #0, 2
  b4:	632e6c65 	teqvs	lr, #25856	; 0x6500
  b8:	00000000 	andeq	r0, r0, r0
  bc:	366d736c 	strbtcc	r7, [sp], -ip, ror #6
  c0:	33337364 	teqcc	r3, #100, 6	; 0x90000001
  c4:	0000682e 	andeq	r6, r0, lr, lsr #16
  c8:	74730000 	ldrbtvc	r0, [r3], #-0
  cc:	746e6964 	strbtvc	r6, [lr], #-2404	; 0x964
  d0:	6363672d 	cmnvs	r3, #11796480	; 0xb40000
  d4:	0100682e 	tsteq	r0, lr, lsr #16
  d8:	70720000 	rsbsvc	r0, r2, r0
  dc:	00682e69 	rsbeq	r2, r8, r9, ror #28
  e0:	69000002 	stmdbvs	r0, {r1}
  e4:	682e6332 	stmdavs	lr!, {r1, r4, r5, r8, r9, sp, lr}
  e8:	00000000 	andeq	r0, r0, r0
  ec:	02050000 	andeq	r0, r5, #0
  f0:	00008010 	andeq	r8, r0, r0, lsl r0
  f4:	2f013d03 	svccs	0x00013d03
  f8:	082f3708 	stmdaeq	pc!, {r3, r8, r9, sl, ip, sp}	; <UNPREDICTABLE>
  fc:	5a032f43 	bpl	cbe10 <__bss_end__+0xc1d08>
 100:	84699f66 	strbthi	r9, [r9], #-3942	; 0xf66
 104:	2f2f4c69 	svccs	0x002f4c69
 108:	67d74e68 	ldrbvs	r4, [r7, r8, ror #28]
 10c:	4a1a0383 	bmi	680f20 <__bss_end__+0x676e18>
 110:	032f6c84 	teqeq	pc, #132, 24	; 0x8400
 114:	333c080c 	teqcc	ip, #12, 16	; 0xc0000
 118:	3c080903 	stccc	9, cr0, [r8], {3}
 11c:	046b31bb 	strbteq	r3, [fp], #-443	; 0x1bb
 120:	7f9d0302 	svcvc	0x009d0302
 124:	030104f2 	movweq	r0, #5362	; 0x14f2
 128:	ac0800e7 	stcge	0, cr0, [r8], {231}	; 0xe7
 12c:	f64bf34b 			; <UNDEFINED> instruction: 0xf64bf34b
 130:	0402002f 	streq	r0, [r2], #-47	; 0x2f
 134:	064a0601 	strbeq	r0, [sl], -r1, lsl #12
 138:	696a6ada 	stmdbvs	sl!, {r1, r3, r4, r6, r7, r9, fp, sp, lr}^
 13c:	08314d69 	ldmdaeq	r1!, {r0, r3, r5, r6, r8, sl, fp, lr}
 140:	03a34c77 			; <UNDEFINED> instruction: 0x03a34c77
 144:	304b9e14 	subcc	r9, fp, r4, lsl lr
 148:	834e2f4b 	movthi	r2, #61259	; 0xef4b
 14c:	4c3e084b 	ldcmi	8, cr0, [lr], #-300	; 0xfffffed4
 150:	01000a02 	tsteq	r0, r2, lsl #20
 154:	00024101 	andeq	r4, r2, r1, lsl #2
 158:	04000200 	streq	r0, [r0], #-512	; 0x200
 15c:	02000001 	andeq	r0, r0, #1
 160:	0d0efb01 	vstreq	d15, [lr, #-4]
 164:	01010100 	mrseq	r0, (UNDEF: 17)
 168:	00000001 	andeq	r0, r0, r1
 16c:	01000001 	tsteq	r0, r1
 170:	7273752f 	rsbsvc	r7, r3, #197132288	; 0xbc00000
 174:	62696c2f 	rsbvs	r6, r9, #12032	; 0x2f00
 178:	6363672f 	cmnvs	r3, #12320768	; 0xbc0000
 17c:	6d72612f 	ldfvse	f6, [r2, #-188]!	; 0xffffff44
 180:	6e6f6e2d 	cdpvs	14, 6, cr6, cr15, cr13, {1}
 184:	61652d65 	cmnvs	r5, r5, ror #26
 188:	362f6962 	strtcc	r6, [pc], -r2, ror #18
 18c:	312e332e 	teqcc	lr, lr, lsr #6
 190:	636e692f 	cmnvs	lr, #770048	; 0xbc000
 194:	6564756c 	strbvs	r7, [r4, #-1388]!	; 0x56c
 198:	73752f00 	cmnvc	r5, #0, 30
 19c:	6e692f72 	mcrvs	15, 3, r2, cr9, cr2, {3}
 1a0:	64756c63 	ldrbtvs	r6, [r5], #-3171	; 0xc63
 1a4:	656e2f65 	strbvs	r2, [lr, #-3941]!	; 0xf65
 1a8:	62696c77 	rsbvs	r6, r9, #30464	; 0x7700
 1ac:	7379732f 	cmnvc	r9, #-1140850688	; 0xbc000000
 1b0:	6f682f00 	svcvs	0x00682f00
 1b4:	652f656d 	strvs	r6, [pc, #-1389]!	; fffffc4f <__bss_end__+0xffff5b47>
 1b8:	656c676e 	strbvs	r6, [ip, #-1902]!	; 0x76e
 1bc:	6c632f72 	stclvs	15, cr2, [r3], #-456	; 0xfffffe38
 1c0:	2f737361 	svccs	0x00737361
 1c4:	34317363 	ldrtcc	r7, [r1], #-867	; 0x363
 1c8:	322d6530 	eorcc	r6, sp, #48, 10	; 0xc000000
 1cc:	6e697730 	mcrvs	7, 3, r7, cr9, cr0, {1}
 1d0:	62696c2f 	rsbvs	r6, r9, #12032	; 0x2f00
 1d4:	2f006970 	svccs	0x00006970
 1d8:	656d6f68 	strbvs	r6, [sp, #-3944]!	; 0xf68
 1dc:	676e652f 	strbvs	r6, [lr, -pc, lsr #10]!
 1e0:	2f72656c 	svccs	0x0072656c
 1e4:	73616c63 	cmnvc	r1, #25344	; 0x6300
 1e8:	73632f73 	cmnvc	r3, #460	; 0x1cc
 1ec:	65303431 	ldrvs	r3, [r0, #-1073]!	; 0x431
 1f0:	7730322d 	ldrvc	r3, [r0, -sp, lsr #4]!
 1f4:	6c2f6e69 	stcvs	14, cr6, [pc], #-420	; 58 <_start-0x7fa8>
 1f8:	69706269 	ldmdbvs	r0!, {r0, r3, r5, r6, r9, sp, lr}^
 1fc:	3173632f 	cmncc	r3, pc, lsr #6
 200:	2d653034 	stclcs	0, cr3, [r5, #-208]!	; 0xffffff30
 204:	00637273 	rsbeq	r7, r3, r3, ror r2
 208:	63326900 	teqvs	r2, #0, 18
 20c:	0000632e 	andeq	r6, r0, lr, lsr #6
 210:	74730000 	ldrbtvc	r0, [r3], #-0
 214:	746e6964 	strbtvc	r6, [lr], #-2404	; 0x964
 218:	6363672d 	cmnvs	r3, #11796480	; 0xb40000
 21c:	0100682e 	tsteq	r0, lr, lsr #16
 220:	6f6c0000 	svcvs	0x006c0000
 224:	682e6b63 	stmdavs	lr!, {r0, r1, r5, r6, r8, r9, fp, sp, lr}
 228:	00000200 	andeq	r0, r0, r0, lsl #4
 22c:	7079745f 	rsbsvc	r7, r9, pc, asr r4
 230:	682e7365 	stmdavs	lr!, {r0, r2, r5, r6, r8, r9, ip, sp, lr}
 234:	00000200 	andeq	r0, r0, r0, lsl #4
 238:	64647473 	strbtvs	r7, [r4], #-1139	; 0x473
 23c:	682e6665 	stmdavs	lr!, {r0, r2, r5, r6, r9, sl, sp, lr}
 240:	00000100 	andeq	r0, r0, r0, lsl #2
 244:	6e656572 	mcrvs	5, 3, r6, cr5, cr2, {3}
 248:	00682e74 	rsbeq	r2, r8, r4, ror lr
 24c:	72000002 	andvc	r0, r0, #2
 250:	682e6970 	stmdavs	lr!, {r4, r5, r6, r8, fp, sp, lr}
 254:	00000300 	andeq	r0, r0, r0, lsl #6
 258:	6f697067 	svcvs	0x00697067
 25c:	0400682e 	streq	r6, [r0], #-2094	; 0x82e
 260:	00000000 	andeq	r0, r0, r0
 264:	839c0205 	orrshi	r0, ip, #1342177280	; 0x50000000
 268:	f3030000 	vhadd.u8	d0, d3, d0
 26c:	2f130100 	svccs	0x00130100
 270:	03302f2f 	teqeq	r0, #47, 30	; 0xbc
 274:	4c132e37 	ldcmi	14, cr2, [r3], {55}	; 0x37
 278:	2e01b503 	cfsh32cs	mvfx11, mvfx1, #3
 27c:	032e1d03 	teqeq	lr, #3, 26	; 0xc0
 280:	002e7f8b 	eoreq	r7, lr, fp, lsl #31
 284:	30040402 	andcc	r0, r4, r2, lsl #8
 288:	05040200 	streq	r0, [r4, #-512]	; 0x200
 28c:	02008206 	andeq	r8, r0, #1610612736	; 0x60000000
 290:	00820204 	addeq	r0, r2, r4, lsl #4
 294:	82030402 	andhi	r0, r3, #33554432	; 0x2000000
 298:	01040200 	mrseq	r0, R12_usr
 29c:	84d906d6 	ldrbhi	r0, [r9], #1750	; 0x6d6
 2a0:	04020084 	streq	r0, [r2], #-132	; 0x84
 2a4:	02004601 	andeq	r4, r0, #1048576	; 0x100000
 2a8:	03d80104 	bicseq	r0, r8, #4, 2
 2ac:	e4087f9d 	str	r7, [r8], #-3997	; 0xf9d
 2b0:	2d034b2f 	vstrcs	d4, [r3, #-188]	; 0xffffff44
 2b4:	34672f2e 	strbtcc	r2, [r7], #-3886	; 0xf2e
 2b8:	9e7f8f03 	cdpls	15, 7, cr8, cr15, cr3, {0}
 2bc:	f2034b2f 	vqdmulh.s<illegal width 8>	d4, d3, d31
 2c0:	00832e00 	addeq	r2, r3, r0, lsl #28
 2c4:	31040402 	tstcc	r4, r2, lsl #8
 2c8:	05040200 	streq	r0, [r4, #-512]	; 0x200
 2cc:	02008206 	andeq	r8, r0, #1610612736	; 0x60000000
 2d0:	00820204 	addeq	r0, r2, r4, lsl #4
 2d4:	82030402 	andhi	r0, r3, #33554432	; 0x2000000
 2d8:	01040200 	mrseq	r0, R12_usr
 2dc:	84d906d6 	ldrbhi	r0, [r9], #1750	; 0x6d6
 2e0:	4b694b31 	blmi	1a52fac <__bss_end__+0x1a48ea4>
 2e4:	4b2f6868 	blmi	bda48c <__bss_end__+0xbd0384>
 2e8:	04040200 	streq	r0, [r4], #-512	; 0x200
 2ec:	0402006e 	streq	r0, [r2], #-110	; 0x6e
 2f0:	00820605 	addeq	r0, r2, r5, lsl #12
 2f4:	82020402 	andhi	r0, r2, #33554432	; 0x2000000
 2f8:	03040200 	movweq	r0, #16896	; 0x4200
 2fc:	04020082 	streq	r0, [r2], #-130	; 0x82
 300:	68030601 	stmdavs	r3, {r0, r9, sl}
 304:	040200d6 	streq	r0, [r2], #-214	; 0xd6
 308:	0200db01 	andeq	sp, r0, #1024	; 0x400
 30c:	00da0104 	sbcseq	r0, sl, r4, lsl #2
 310:	03010402 	movweq	r0, #5122	; 0x1402
 314:	03d7d60f 	bicseq	sp, r7, #15728640	; 0xf00000
 318:	6774080f 	ldrbvs	r0, [r4, -pc, lsl #16]!
 31c:	04020068 	streq	r0, [r2], #-104	; 0x68
 320:	02004c01 	andeq	r4, r0, #256	; 0x100
 324:	00d90204 	sbcseq	r0, r9, r4, lsl #4
 328:	61020402 	tstvs	r2, r2, lsl #8
 32c:	01040200 	mrseq	r0, R12_usr
 330:	02002e06 	andeq	r2, r0, #6, 28	; 0x60
 334:	4c060404 	cfstrsmi	mvf0, [r6], {4}
 338:	05040200 	streq	r0, [r4, #-512]	; 0x200
 33c:	02008206 	andeq	r8, r0, #1610612736	; 0x60000000
 340:	00820204 	addeq	r0, r2, r4, lsl #4
 344:	82030402 	andhi	r0, r3, #33554432	; 0x2000000
 348:	f530dc06 			; <UNDEFINED> instruction: 0xf530dc06
 34c:	02006967 	andeq	r6, r0, #1687552	; 0x19c000
 350:	004c0104 	subeq	r0, ip, r4, lsl #2
 354:	d9020402 	stmdble	r2, {r1, sl}
 358:	02040200 	andeq	r0, r4, #0, 4
 35c:	04020061 	streq	r0, [r2], #-97	; 0x61
 360:	002e0601 	eoreq	r0, lr, r1, lsl #12
 364:	06040402 	streq	r0, [r4], -r2, lsl #8
 368:	0402004c 	streq	r0, [r2], #-76	; 0x4c
 36c:	00820605 	addeq	r0, r2, r5, lsl #12
 370:	82020402 	andhi	r0, r2, #33554432	; 0x2000000
 374:	03040200 	movweq	r0, #16896	; 0x4200
 378:	30dc0682 	sbcscc	r0, ip, r2, lsl #13
 37c:	2f8a14db 	svccs	0x008a14db
 380:	68673230 	stmdavs	r7!, {r4, r5, r9, ip, sp}^
 384:	30308434 	eorscc	r8, r0, r4, lsr r4
 388:	0200682f 	andeq	r6, r0, #3080192	; 0x2f0000
 38c:	03800104 	orreq	r0, r0, #4, 2
 390:	2f900862 	svccs	0x00900862
 394:	00040268 	andeq	r0, r4, r8, ror #4
 398:	01020101 	tsteq	r2, r1, lsl #2
 39c:	00020000 	andeq	r0, r2, r0
 3a0:	000000eb 	andeq	r0, r0, fp, ror #1
 3a4:	0efb0102 	cdpeq	1, 15, cr0, cr11, cr2, {0}
 3a8:	0101000d 	tsteq	r1, sp
 3ac:	00000101 	andeq	r0, r0, r1, lsl #2
 3b0:	00000100 	andeq	r0, r0, r0, lsl #2
 3b4:	62696c01 	rsbvs	r6, r9, #256	; 0x100
 3b8:	752f0063 	strvc	r0, [pc, #-99]!	; 35d <_start-0x7ca3>
 3bc:	6c2f7273 	sfmvs	f7, 4, [pc], #-460	; 1f8 <_start-0x7e08>
 3c0:	6c61636f 	stclvs	3, cr6, [r1], #-444	; 0xfffffe44
 3c4:	6c65432f 	stclvs	3, cr4, [r5], #-188	; 0xffffff44
 3c8:	2f72616c 	svccs	0x0072616c
 3cc:	2d6d7261 	sfmcs	f7, 2, [sp, #-388]!	; 0xfffffe7c
 3d0:	656e6f6e 	strbvs	r6, [lr, #-3950]!	; 0xf6e
 3d4:	6261652d 	rsbvs	r6, r1, #188743680	; 0xb400000
 3d8:	2e342f69 	cdpcs	15, 3, cr2, cr4, cr9, {3}
 3dc:	2d332e38 	ldccs	14, cr2, [r3, #-224]!	; 0xffffff20
 3e0:	37317363 	ldrcc	r7, [r1, -r3, ror #6]!
 3e4:	6c2f6530 	cfstr32vs	mvfx6, [pc], #-192	; 32c <_start-0x7cd4>
 3e8:	672f6269 	strvs	r6, [pc, -r9, ror #4]!
 3ec:	612f6363 	teqvs	pc, r3, ror #6
 3f0:	6e2d6d72 	mcrvs	13, 1, r6, cr13, cr2, {3}
 3f4:	2d656e6f 	stclcs	14, cr6, [r5, #-444]!	; 0xfffffe44
 3f8:	69626165 	stmdbvs	r2!, {r0, r2, r5, r6, r8, sp, lr}^
 3fc:	382e342f 	stmdacc	lr!, {r0, r1, r2, r3, r5, sl, ip, sp}
 400:	692f332e 	stmdbvs	pc!, {r1, r2, r3, r5, r8, r9, ip, sp}	; <UNPREDICTABLE>
 404:	756c636e 	strbvc	r6, [ip, #-878]!	; 0x36e
 408:	2f006564 	svccs	0x00006564
 40c:	72657355 	rsbvc	r7, r5, #1409286145	; 0x54000001
 410:	72622f73 	rsbvc	r2, r2, #460	; 0x1cc
 414:	6a6e6169 	bvs	1b989c0 <__bss_end__+0x1b8e8b8>
 418:	442f6e75 	strtmi	r6, [pc], #-3701	; 420 <_start-0x7be0>
 41c:	746b7365 	strbtvc	r7, [fp], #-869	; 0x365
 420:	732f706f 	teqvc	pc, #111	; 0x6f
 424:	6f6f6863 	svcvs	0x006f6863
 428:	69572f6c 	ldmdbvs	r7, {r2, r3, r5, r6, r8, r9, sl, fp, sp}^
 42c:	7265746e 	rsbvc	r7, r5, #1845493760	; 0x6e000000
 430:	30323931 	eorscc	r3, r2, r1, lsr r9
 434:	3153432f 	cmpcc	r3, pc, lsr #6
 438:	2f453034 	svccs	0x00453034
 43c:	34317363 	ldrtcc	r7, [r1], #-867	; 0x363
 440:	322d6530 	eorcc	r6, sp, #48, 10	; 0xc000000
 444:	6e697730 	mcrvs	7, 3, r7, cr9, cr0, {1}
 448:	62696c2f 	rsbvs	r6, r9, #12032	; 0x2f00
 44c:	00006970 	andeq	r6, r0, r0, ror r9
 450:	6e697270 	mcrvs	2, 3, r7, cr9, cr0, {3}
 454:	632e6b74 	teqvs	lr, #116, 22	; 0x1d000
 458:	00000100 	andeq	r0, r0, r0, lsl #2
 45c:	61647473 	smcvs	18243	; 0x4743
 460:	682e6772 	stmdavs	lr!, {r1, r4, r5, r6, r8, r9, sl, sp, lr}
 464:	00000200 	andeq	r0, r0, r0, lsl #4
 468:	6975623c 	ldmdbvs	r5!, {r2, r3, r4, r5, r9, sp, lr}^
 46c:	692d746c 	pushvs	{r2, r3, r5, r6, sl, ip, sp, lr}
 470:	00003e6e 	andeq	r3, r0, lr, ror #28
 474:	70720000 	rsbsvc	r0, r2, r0
 478:	00682e69 	rsbeq	r2, r8, r9, ror #28
 47c:	76000003 	strvc	r0, [r0], -r3
 480:	72702d61 	rsbsvc	r2, r0, #6208	; 0x1840
 484:	6b746e69 	blvs	1d1be30 <__bss_end__+0x1d11d28>
 488:	0100682e 	tsteq	r0, lr, lsr #16
 48c:	00000000 	andeq	r0, r0, r0
 490:	89040205 	stmdbhi	r4, {r0, r2, r9}
 494:	6b170000 	blvs	5c049c <__bss_end__+0x5b6394>
 498:	0289bf4b 	addeq	fp, r9, #300	; 0x12c
 49c:	0101000e 	tsteq	r1, lr
 4a0:	0000008a 	andeq	r0, r0, sl, lsl #1
 4a4:	00720002 	rsbseq	r0, r2, r2
 4a8:	01020000 	mrseq	r0, (UNDEF: 2)
 4ac:	000d0efb 	strdeq	r0, [sp], -fp
 4b0:	01010101 	tsteq	r1, r1, lsl #2
 4b4:	01000000 	mrseq	r0, (UNDEF: 0)
 4b8:	6c010000 	stcvs	0, cr0, [r1], {-0}
 4bc:	00636269 	rsbeq	r6, r3, r9, ror #4
 4c0:	6573552f 	ldrbvs	r5, [r3, #-1327]!	; 0x52f
 4c4:	622f7372 	eorvs	r7, pc, #-939524095	; 0xc8000001
 4c8:	6e616972 	mcrvs	9, 3, r6, cr1, cr2, {3}
 4cc:	2f6e756a 	svccs	0x006e756a
 4d0:	6b736544 	blvs	1cd99e8 <__bss_end__+0x1ccf8e0>
 4d4:	2f706f74 	svccs	0x00706f74
 4d8:	6f686373 	svcvs	0x00686373
 4dc:	572f6c6f 	strpl	r6, [pc, -pc, ror #24]!
 4e0:	65746e69 	ldrbvs	r6, [r4, #-3689]!	; 0xe69
 4e4:	32393172 	eorscc	r3, r9, #-2147483620	; 0x8000001c
 4e8:	53432f30 	movtpl	r2, #16176	; 0x3f30
 4ec:	45303431 	ldrmi	r3, [r0, #-1073]!	; 0x431
 4f0:	3173632f 	cmncc	r3, pc, lsr #6
 4f4:	2d653034 	stclcs	0, cr3, [r5, #-208]!	; 0xffffff30
 4f8:	69773032 	ldmdbvs	r7!, {r1, r4, r5, ip, sp}^
 4fc:	696c2f6e 	stmdbvs	ip!, {r1, r2, r3, r5, r6, r8, r9, sl, fp, sp}^
 500:	00697062 	rsbeq	r7, r9, r2, rrx
 504:	74757000 	ldrbtvc	r7, [r5], #-0
 508:	72616863 	rsbvc	r6, r1, #6488064	; 0x630000
 50c:	0100632e 	tsteq	r0, lr, lsr #6
 510:	70720000 	rsbsvc	r0, r2, r0
 514:	00682e69 	rsbeq	r2, r8, r9, ror #28
 518:	00000002 	andeq	r0, r0, r2
 51c:	5c020500 	cfstr32pl	mvfx0, [r2], {-0}
 520:	14000089 	strne	r0, [r0], #-137	; 0x89
 524:	bc136b4a 	ldclt	11, cr6, [r3], {74}	; 0x4a
 528:	00080213 	andeq	r0, r8, r3, lsl r2
 52c:	00960101 	addseq	r0, r6, r1, lsl #2
 530:	00020000 	andeq	r0, r2, r0
 534:	0000006f 	andeq	r0, r0, pc, rrx
 538:	0efb0102 	cdpeq	1, 15, cr0, cr11, cr2, {0}
 53c:	0101000d 	tsteq	r1, sp
 540:	00000101 	andeq	r0, r0, r1, lsl #2
 544:	00000100 	andeq	r0, r0, r0, lsl #2
 548:	62696c01 	rsbvs	r6, r9, #256	; 0x100
 54c:	552f0063 	strpl	r0, [pc, #-99]!	; 4f1 <_start-0x7b0f>
 550:	73726573 	cmnvc	r2, #482344960	; 0x1cc00000
 554:	6972622f 	ldmdbvs	r2!, {r0, r1, r2, r3, r5, r9, sp, lr}^
 558:	756a6e61 	strbvc	r6, [sl, #-3681]!	; 0xe61
 55c:	65442f6e 	strbvs	r2, [r4, #-3950]	; 0xf6e
 560:	6f746b73 	svcvs	0x00746b73
 564:	63732f70 	cmnvs	r3, #112, 30	; 0x1c0
 568:	6c6f6f68 	stclvs	15, cr6, [pc], #-416	; 3d0 <_start-0x7c30>
 56c:	6e69572f 	cdpvs	7, 6, cr5, cr9, cr15, {1}
 570:	31726574 	cmncc	r2, r4, ror r5
 574:	2f303239 	svccs	0x00303239
 578:	34315343 	ldrtcc	r5, [r1], #-835	; 0x343
 57c:	632f4530 	teqvs	pc, #48, 10	; 0xc000000
 580:	30343173 	eorscc	r3, r4, r3, ror r1
 584:	30322d65 	eorscc	r2, r2, r5, ror #26
 588:	2f6e6977 	svccs	0x006e6977
 58c:	7062696c 	rsbvc	r6, r2, ip, ror #18
 590:	70000069 	andvc	r0, r0, r9, rrx
 594:	2e6b7475 	mcrcs	4, 3, r7, cr11, cr5, {3}
 598:	00010063 	andeq	r0, r1, r3, rrx
 59c:	69707200 	ldmdbvs	r0!, {r9, ip, sp, lr}^
 5a0:	0200682e 	andeq	r6, r0, #3014656	; 0x2e0000
 5a4:	00000000 	andeq	r0, r0, r0
 5a8:	89980205 	ldmibhi	r8, {r0, r2, r9}
 5ac:	4c150000 	ldcmi	0, cr0, [r5], {-0}
 5b0:	0402002d 	streq	r0, [r2], #-45	; 0x2d
 5b4:	02002f02 	andeq	r2, r0, #2, 30
 5b8:	00490204 	subeq	r0, r9, r4, lsl #4
 5bc:	06010402 	streq	r0, [r1], -r2, lsl #8
 5c0:	026b062e 	rsbeq	r0, fp, #48234496	; 0x2e00000
 5c4:	01010006 	tsteq	r1, r6
 5c8:	000001de 	ldrdeq	r0, [r0], -lr
 5cc:	00df0002 	sbcseq	r0, pc, r2
 5d0:	01020000 	mrseq	r0, (UNDEF: 2)
 5d4:	000d0efb 	strdeq	r0, [sp], -fp
 5d8:	01010101 	tsteq	r1, r1, lsl #2
 5dc:	01000000 	mrseq	r0, (UNDEF: 0)
 5e0:	6c010000 	stcvs	0, cr0, [r1], {-0}
 5e4:	00636269 	rsbeq	r6, r3, r9, ror #4
 5e8:	7273752f 	rsbsvc	r7, r3, #197132288	; 0xbc00000
 5ec:	636f6c2f 	cmnvs	pc, #12032	; 0x2f00
 5f0:	432f6c61 	teqmi	pc, #24832	; 0x6100
 5f4:	616c6c65 	cmnvs	ip, r5, ror #24
 5f8:	72612f72 	rsbvc	r2, r1, #456	; 0x1c8
 5fc:	6f6e2d6d 	svcvs	0x006e2d6d
 600:	652d656e 	strvs	r6, [sp, #-1390]!	; 0x56e
 604:	2f696261 	svccs	0x00696261
 608:	2e382e34 	mrccs	14, 1, r2, cr8, cr4, {1}
 60c:	73632d33 	cmnvc	r3, #3264	; 0xcc0
 610:	65303731 	ldrvs	r3, [r0, #-1841]!	; 0x731
 614:	62696c2f 	rsbvs	r6, r9, #12032	; 0x2f00
 618:	6363672f 	cmnvs	r3, #12320768	; 0xbc0000
 61c:	6d72612f 	ldfvse	f6, [r2, #-188]!	; 0xffffff44
 620:	6e6f6e2d 	cdpvs	14, 6, cr6, cr15, cr13, {1}
 624:	61652d65 	cmnvs	r5, r5, ror #26
 628:	342f6962 	strtcc	r6, [pc], #-2402	; 630 <_start-0x79d0>
 62c:	332e382e 	teqcc	lr, #3014656	; 0x2e0000
 630:	636e692f 	cmnvs	lr, #770048	; 0xbc000
 634:	6564756c 	strbvs	r7, [r4, #-1388]!	; 0x56c
 638:	73552f00 	cmpvc	r5, #0, 30
 63c:	2f737265 	svccs	0x00737265
 640:	61697262 	cmnvs	r9, r2, ror #4
 644:	6e756a6e 	vsubvs.f32	s13, s10, s29
 648:	7365442f 	cmnvc	r5, #788529152	; 0x2f000000
 64c:	706f746b 	rsbvc	r7, pc, fp, ror #8
 650:	6863732f 	stmdavs	r3!, {r0, r1, r2, r3, r5, r8, r9, ip, sp, lr}^
 654:	2f6c6f6f 	svccs	0x006c6f6f
 658:	746e6957 	strbtvc	r6, [lr], #-2391	; 0x957
 65c:	39317265 	ldmdbcc	r1!, {r0, r2, r5, r6, r9, ip, sp, lr}
 660:	432f3032 	teqmi	pc, #50	; 0x32
 664:	30343153 	eorscc	r3, r4, r3, asr r1
 668:	73632f45 	cmnvc	r3, #276	; 0x114
 66c:	65303431 	ldrvs	r3, [r0, #-1073]!	; 0x431
 670:	7730322d 	ldrvc	r3, [r0, -sp, lsr #4]!
 674:	6c2f6e69 	stcvs	14, cr6, [pc], #-420	; 4d8 <_start-0x7b28>
 678:	69706269 	ldmdbvs	r0!, {r0, r3, r5, r6, r9, sp, lr}^
 67c:	61760000 	cmnvs	r6, r0
 680:	6972702d 	ldmdbvs	r2!, {r0, r2, r3, r5, ip, sp, lr}^
 684:	2e6b746e 	cdpcs	4, 6, cr7, cr11, cr14, {3}
 688:	00010063 	andeq	r0, r1, r3, rrx
 68c:	64747300 	ldrbtvs	r7, [r4], #-768	; 0x300
 690:	2e677261 	cdpcs	2, 6, cr7, cr7, cr1, {3}
 694:	00020068 	andeq	r0, r2, r8, rrx
 698:	69707200 	ldmdbvs	r0!, {r9, ip, sp, lr}^
 69c:	0300682e 	movweq	r6, #2094	; 0x82e
 6a0:	623c0000 	eorsvs	r0, ip, #0
 6a4:	746c6975 	strbtvc	r6, [ip], #-2421	; 0x975
 6a8:	3e6e692d 	cdpcc	9, 6, cr6, cr14, cr13, {1}
 6ac:	00000000 	andeq	r0, r0, r0
 6b0:	02050000 	andeq	r0, r5, #0
 6b4:	000089cc 	andeq	r8, r0, ip, asr #19
 6b8:	01012603 	tsteq	r1, r3, lsl #12
 6bc:	2d3113a5 	ldccs	3, cr1, [r1, #-660]!	; 0xfffffd6c
 6c0:	02040200 	andeq	r0, r4, #0, 4
 6c4:	0402002f 	streq	r0, [r2], #-47	; 0x2f
 6c8:	02002d02 	andeq	r2, r0, #2, 26	; 0x80
 6cc:	002f0204 	eoreq	r0, pc, r4, lsl #4
 6d0:	2d010402 	cfstrscs	mvf0, [r1, #-8]
 6d4:	14304c4c 	ldrtne	r4, [r0], #-3148	; 0xc4c
 6d8:	004f2f4b 	subeq	r2, pc, fp, asr #30
 6dc:	67020402 	strvs	r0, [r2, -r2, lsl #8]
 6e0:	01040200 	mrseq	r0, R12_usr
 6e4:	304d4c65 	subcc	r4, sp, r5, ror #24
 6e8:	30312fa0 	eorscc	r2, r1, r0, lsr #31
 6ec:	84162602 	ldrhi	r2, [r6], #-1538	; 0x602
 6f0:	02002c2d 	andeq	r2, r0, #11520	; 0x2d00
 6f4:	00300104 	eorseq	r0, r0, r4, lsl #2
 6f8:	33010402 	movwcc	r0, #5122	; 0x1402
 6fc:	02006606 	andeq	r6, r0, #6291456	; 0x600000
 700:	002e0104 	eoreq	r0, lr, r4, lsl #2
 704:	06010402 	streq	r0, [r1], -r2, lsl #8
 708:	2f672108 	svccs	0x00672108
 70c:	03827303 	orreq	r7, r2, #201326592	; 0xc000000
 710:	02002e13 	andeq	r2, r0, #304	; 0x130
 714:	2e060104 	adfcss	f0, f6, f4
 718:	01040200 	mrseq	r0, R12_usr
 71c:	4b6a9f06 	blmi	1aa833c <__bss_end__+0x1a9e234>
 720:	032e6703 	teqeq	lr, #786432	; 0xc0000
 724:	02002e21 	andeq	r2, r0, #528	; 0x210
 728:	2e060104 	adfcss	f0, f6, f4
 72c:	01040200 	mrseq	r0, R12_usr
 730:	02009f06 	andeq	r9, r0, #6, 30
 734:	d96a0104 	stmdble	sl!, {r2, r8}^
 738:	7fa603f3 	svcvc	0x00a603f3
 73c:	002f2008 	eoreq	r2, pc, r8
 740:	06010402 	streq	r0, [r1], -r2, lsl #8
 744:	4bd7064a 	blmi	ff5c2074 <__bss_end__+0xff5b7f6c>
 748:	00da032f 	sbcseq	r0, sl, pc, lsr #6
 74c:	484c83f2 	stmdami	ip, {r1, r4, r5, r6, r7, r8, r9, pc}^
 750:	032e0e03 	teqeq	lr, #3, 28	; 0x30
 754:	2f2f2e75 	svccs	0x002f2e75
 758:	2d2f4b84 	vstmdbcs	pc!, {d4-d5}
 75c:	2f30314d 	svccs	0x0030314d
 760:	04020083 	streq	r0, [r2], #-131	; 0x83
 764:	00a22c01 	adceq	r2, r2, r1, lsl #24
 768:	06010402 	streq	r0, [r1], -r2, lsl #8
 76c:	02d8064a 	sbcseq	r0, r8, #77594624	; 0x4a00000
 770:	0e031636 	mcreq	6, 0, r1, cr3, cr6, {1}
 774:	302108d6 	ldrdcc	r0, [r1], -r6	; <UNPREDICTABLE>
 778:	30f331f3 	ldrshtcc	r3, [r3], #19
 77c:	304b30f3 	strdcc	r3, [fp], #-3
 780:	230830f3 	movwcs	r3, #33011	; 0x80f3
 784:	02002f31 	andeq	r2, r0, #49, 30	; 0xc4
 788:	00650104 	rsbeq	r0, r5, r4, lsl #2
 78c:	06020402 	streq	r0, [r2], -r2, lsl #8
 790:	0402004a 	streq	r0, [r2], #-74	; 0x4a
 794:	42030601 	andmi	r0, r3, #1048576	; 0x100000
 798:	04020066 	streq	r0, [r2], #-102	; 0x66
 79c:	06660602 	strbteq	r0, [r6], -r2, lsl #12
 7a0:	4a00c203 	bmi	30fb4 <__bss_end__+0x26eac>
 7a4:	00100268 	andseq	r0, r0, r8, ror #4
 7a8:	00930101 	addseq	r0, r3, r1, lsl #2
 7ac:	00020000 	andeq	r0, r2, r0
 7b0:	0000007d 	andeq	r0, r0, sp, ror r0
 7b4:	0efb0102 	cdpeq	1, 15, cr0, cr11, cr2, {0}
 7b8:	0101000d 	tsteq	r1, sp
 7bc:	00000101 	andeq	r0, r0, r1, lsl #2
 7c0:	00000100 	andeq	r0, r0, r0, lsl #2
 7c4:	31736301 	cmncc	r3, r1, lsl #6
 7c8:	2d653034 	stclcs	0, cr3, [r5, #-208]!	; 0xffffff30
 7cc:	00637273 	rsbeq	r7, r3, r3, ror r2
 7d0:	6573552f 	ldrbvs	r5, [r3, #-1327]!	; 0x52f
 7d4:	622f7372 	eorvs	r7, pc, #-939524095	; 0xc8000001
 7d8:	6e616972 	mcrvs	9, 3, r6, cr1, cr2, {3}
 7dc:	2f6e756a 	svccs	0x006e756a
 7e0:	6b736544 	blvs	1cd9cf8 <__bss_end__+0x1ccfbf0>
 7e4:	2f706f74 	svccs	0x00706f74
 7e8:	6f686373 	svcvs	0x00686373
 7ec:	572f6c6f 	strpl	r6, [pc, -pc, ror #24]!
 7f0:	65746e69 	ldrbvs	r6, [r4, #-3689]!	; 0xe69
 7f4:	32393172 	eorscc	r3, r9, #-2147483620	; 0x8000001c
 7f8:	53432f30 	movtpl	r2, #16176	; 0x3f30
 7fc:	45303431 	ldrmi	r3, [r0, #-1073]!	; 0x431
 800:	3173632f 	cmncc	r3, pc, lsr #6
 804:	2d653034 	stclcs	0, cr3, [r5, #-208]!	; 0xffffff30
 808:	69773032 	ldmdbvs	r7!, {r1, r4, r5, ip, sp}^
 80c:	696c2f6e 	stmdbvs	ip!, {r1, r2, r3, r5, r6, r8, r9, sl, fp, sp}^
 810:	00697062 	rsbeq	r7, r9, r2, rrx
 814:	656c6300 	strbvs	r6, [ip, #-768]!	; 0x300
 818:	722d6e61 	eorvc	r6, sp, #1552	; 0x610
 81c:	6f6f6265 	svcvs	0x006f6265
 820:	00632e74 	rsbeq	r2, r3, r4, ror lr
 824:	72000001 	andvc	r0, r0, #1
 828:	682e6970 	stmdavs	lr!, {r4, r5, r6, r8, fp, sp, lr}
 82c:	00000200 	andeq	r0, r0, r0, lsl #4
 830:	02050000 	andeq	r0, r5, #0
 834:	00008ec4 	andeq	r8, r0, r4, asr #29
 838:	4b832f15 	blmi	fe0cc494 <__bss_end__+0xfe0c238c>
 83c:	01000602 	tsteq	r0, r2, lsl #12
 840:	00009a01 	andeq	r9, r0, r1, lsl #20
 844:	77000200 	strvc	r0, [r0, -r0, lsl #4]
 848:	02000000 	andeq	r0, r0, #0
 84c:	0d0efb01 	vstreq	d15, [lr, #-4]
 850:	01010100 	mrseq	r0, (UNDEF: 17)
 854:	00000001 	andeq	r0, r0, r1
 858:	01000001 	tsteq	r0, r1
 85c:	34317363 	ldrtcc	r7, [r1], #-867	; 0x363
 860:	732d6530 	teqvc	sp, #48, 10	; 0xc000000
 864:	2f006372 	svccs	0x00006372
 868:	72657355 	rsbvc	r7, r5, #1409286145	; 0x54000001
 86c:	72622f73 	rsbvc	r2, r2, #460	; 0x1cc
 870:	6a6e6169 	bvs	1b98e1c <__bss_end__+0x1b8ed14>
 874:	442f6e75 	strtmi	r6, [pc], #-3701	; 87c <_start-0x7784>
 878:	746b7365 	strbtvc	r7, [fp], #-869	; 0x365
 87c:	732f706f 	teqvc	pc, #111	; 0x6f
 880:	6f6f6863 	svcvs	0x006f6863
 884:	69572f6c 	ldmdbvs	r7, {r2, r3, r5, r6, r8, r9, sl, fp, sp}^
 888:	7265746e 	rsbvc	r7, r5, #1845493760	; 0x6e000000
 88c:	30323931 	eorscc	r3, r2, r1, lsr r9
 890:	3153432f 	cmpcc	r3, pc, lsr #6
 894:	2f453034 	svccs	0x00453034
 898:	34317363 	ldrtcc	r7, [r1], #-867	; 0x363
 89c:	322d6530 	eorcc	r6, sp, #48, 10	; 0xc000000
 8a0:	6e697730 	mcrvs	7, 3, r7, cr9, cr0, {1}
 8a4:	62696c2f 	rsbvs	r6, r9, #12032	; 0x2f00
 8a8:	00006970 	andeq	r6, r0, r0, ror r9
 8ac:	61747363 	cmnvs	r4, r3, ror #6
 8b0:	632e7472 	teqvs	lr, #1912602624	; 0x72000000
 8b4:	00000100 	andeq	r0, r0, r0, lsl #2
 8b8:	2e697072 	mcrcs	0, 3, r7, cr9, cr2, {3}
 8bc:	00020068 	andeq	r0, r2, r8, rrx
 8c0:	05000000 	streq	r0, [r0, #-0]
 8c4:	008eec02 	addeq	lr, lr, r2, lsl #24
 8c8:	010c0300 	mrseq	r0, LR_mon
 8cc:	2d2f3132 	stfcss	f3, [pc, #-200]!	; 80c <_start-0x77f4>
 8d0:	0402002f 	streq	r0, [r2], #-47	; 0x2f
 8d4:	0f034901 	svceq	0x00034901
 8d8:	06022f4a 	streq	r2, [r2], -sl, asr #30
 8dc:	99010100 	stmdbls	r1, {r8}
 8e0:	02000000 	andeq	r0, r0, #0
 8e4:	00007700 	andeq	r7, r0, r0, lsl #14
 8e8:	fb010200 	blx	410f2 <__bss_end__+0x36fea>
 8ec:	01000d0e 	tsteq	r0, lr, lsl #26
 8f0:	00010101 	andeq	r0, r1, r1, lsl #2
 8f4:	00010000 	andeq	r0, r1, r0
 8f8:	73630100 	cmnvc	r3, #0, 2
 8fc:	65303431 	ldrvs	r3, [r0, #-1073]!	; 0x431
 900:	6372732d 	cmnvs	r2, #-1275068416	; 0xb4000000
 904:	73552f00 	cmpvc	r5, #0, 30
 908:	2f737265 	svccs	0x00737265
 90c:	61697262 	cmnvs	r9, r2, ror #4
 910:	6e756a6e 	vsubvs.f32	s13, s10, s29
 914:	7365442f 	cmnvc	r5, #788529152	; 0x2f000000
 918:	706f746b 	rsbvc	r7, pc, fp, ror #8
 91c:	6863732f 	stmdavs	r3!, {r0, r1, r2, r3, r5, r8, r9, ip, sp, lr}^
 920:	2f6c6f6f 	svccs	0x006c6f6f
 924:	746e6957 	strbtvc	r6, [lr], #-2391	; 0x957
 928:	39317265 	ldmdbcc	r1!, {r0, r2, r5, r6, r9, ip, sp, lr}
 92c:	432f3032 	teqmi	pc, #50	; 0x32
 930:	30343153 	eorscc	r3, r4, r3, asr r1
 934:	73632f45 	cmnvc	r3, #276	; 0x114
 938:	65303431 	ldrvs	r3, [r0, #-1073]!	; 0x431
 93c:	7730322d 	ldrvc	r3, [r0, -sp, lsr #4]!
 940:	6c2f6e69 	stcvs	14, cr6, [pc], #-420	; 7a4 <_start-0x785c>
 944:	69706269 	ldmdbvs	r0!, {r0, r3, r5, r6, r9, sp, lr}^
 948:	65720000 	ldrbvs	r0, [r2, #-0]!
 94c:	746f6f62 	strbtvc	r6, [pc], #-3938	; 954 <_start-0x76ac>
 950:	0100632e 	tsteq	r0, lr, lsr #6
 954:	70720000 	rsbsvc	r0, r2, r0
 958:	00682e69 	rsbeq	r2, r8, r9, ror #28
 95c:	00000002 	andeq	r0, r0, r2
 960:	20020500 	andcs	r0, r2, r0, lsl #10
 964:	0300008f 	movweq	r0, #143	; 0x8f
 968:	3114010d 	tstcc	r4, sp, lsl #2
 96c:	2f15852f 	svccs	0x0015852f
 970:	672f4d4b 	strvs	r4, [pc, -fp, asr #26]!
 974:	02675235 	rsbeq	r5, r7, #1342177283	; 0x50000003
 978:	01010010 	tsteq	r1, r0, lsl r0
 97c:	000000a3 	andeq	r0, r0, r3, lsr #1
 980:	00760002 	rsbseq	r0, r6, r2
 984:	01020000 	mrseq	r0, (UNDEF: 2)
 988:	000d0efb 	strdeq	r0, [sp], -fp
 98c:	01010101 	tsteq	r1, r1, lsl #2
 990:	01000000 	mrseq	r0, (UNDEF: 0)
 994:	63010000 	movwvs	r0, #4096	; 0x1000
 998:	30343173 	eorscc	r3, r4, r3, ror r1
 99c:	72732d65 	rsbsvc	r2, r3, #6464	; 0x1940
 9a0:	552f0063 	strpl	r0, [pc, #-99]!	; 945 <_start-0x76bb>
 9a4:	73726573 	cmnvc	r2, #482344960	; 0x1cc00000
 9a8:	6972622f 	ldmdbvs	r2!, {r0, r1, r2, r3, r5, r9, sp, lr}^
 9ac:	756a6e61 	strbvc	r6, [sl, #-3681]!	; 0xe61
 9b0:	65442f6e 	strbvs	r2, [r4, #-3950]	; 0xf6e
 9b4:	6f746b73 	svcvs	0x00746b73
 9b8:	63732f70 	cmnvs	r3, #112, 30	; 0x1c0
 9bc:	6c6f6f68 	stclvs	15, cr6, [pc], #-416	; 824 <_start-0x77dc>
 9c0:	6e69572f 	cdpvs	7, 6, cr5, cr9, cr15, {1}
 9c4:	31726574 	cmncc	r2, r4, ror r5
 9c8:	2f303239 	svccs	0x00303239
 9cc:	34315343 	ldrtcc	r5, [r1], #-835	; 0x343
 9d0:	632f4530 	teqvs	pc, #48, 10	; 0xc000000
 9d4:	30343173 	eorscc	r3, r4, r3, ror r1
 9d8:	30322d65 	eorscc	r2, r2, r5, ror #26
 9dc:	2f6e6977 	svccs	0x006e6977
 9e0:	7062696c 	rsbvc	r6, r2, ip, ror #18
 9e4:	74000069 	strvc	r0, [r0], #-105	; 0x69
 9e8:	72656d69 	rsbvc	r6, r5, #6720	; 0x1a40
 9ec:	0100632e 	tsteq	r0, lr, lsr #6
 9f0:	70720000 	rsbsvc	r0, r2, r0
 9f4:	00682e69 	rsbeq	r2, r8, r9, ror #28
 9f8:	00000002 	andeq	r0, r0, r2
 9fc:	94020500 	strls	r0, [r2], #-1280	; 0x500
 a00:	1600008f 	strne	r0, [r0], -pc, lsl #1
 a04:	002d2f14 	eoreq	r2, sp, r4, lsl pc
 a08:	06010402 	streq	r0, [r1], -r2, lsl #8
 a0c:	316d062e 	cmncc	sp, lr, lsr #12
 a10:	324d4b2f 	subcc	r4, sp, #48128	; 0xbc00
 a14:	4c4b3031 	mcrrmi	0, 3, r3, fp, cr1
 a18:	2f2f6a2f 	svccs	0x002f6a2f
 a1c:	08022f84 	stmdaeq	r2, {r2, r7, r8, r9, sl, fp, sp}
 a20:	7f010100 	svcvc	0x00010100
 a24:	02000001 	andeq	r0, r0, #1
 a28:	0000ca00 	andeq	ip, r0, r0, lsl #20
 a2c:	fb010200 	blx	41236 <__bss_end__+0x3712e>
 a30:	01000d0e 	tsteq	r0, lr, lsl #26
 a34:	00010101 	andeq	r0, r1, r1, lsl #2
 a38:	00010000 	andeq	r0, r1, r0
 a3c:	796d0100 	stmdbvc	sp!, {r8}^
 a40:	6372732d 	cmnvs	r2, #-1275068416	; 0xb4000000
 a44:	73552f00 	cmpvc	r5, #0, 30
 a48:	2f737265 	svccs	0x00737265
 a4c:	61697262 	cmnvs	r9, r2, ror #4
 a50:	6e756a6e 	vsubvs.f32	s13, s10, s29
 a54:	7365442f 	cmnvc	r5, #788529152	; 0x2f000000
 a58:	706f746b 	rsbvc	r7, pc, fp, ror #8
 a5c:	6863732f 	stmdavs	r3!, {r0, r1, r2, r3, r5, r8, r9, ip, sp, lr}^
 a60:	2f6c6f6f 	svccs	0x006c6f6f
 a64:	746e6957 	strbtvc	r6, [lr], #-2391	; 0x957
 a68:	39317265 	ldmdbcc	r1!, {r0, r2, r5, r6, r9, ip, sp, lr}
 a6c:	432f3032 	teqmi	pc, #50	; 0x32
 a70:	30343153 	eorscc	r3, r4, r3, asr r1
 a74:	73632f45 	cmnvc	r3, #276	; 0x114
 a78:	65303431 	ldrvs	r3, [r0, #-1073]!	; 0x431
 a7c:	7730322d 	ldrvc	r3, [r0, -sp, lsr #4]!
 a80:	6c2f6e69 	stcvs	14, cr6, [pc], #-420	; 8e4 <_start-0x771c>
 a84:	69706269 	ldmdbvs	r0!, {r0, r3, r5, r6, r9, sp, lr}^
 a88:	3173632f 	cmncc	r3, pc, lsr #6
 a8c:	2d653034 	stclcs	0, cr3, [r5, #-208]!	; 0xffffff30
 a90:	00637273 	rsbeq	r7, r3, r3, ror r2
 a94:	6573552f 	ldrbvs	r5, [r3, #-1327]!	; 0x52f
 a98:	622f7372 	eorvs	r7, pc, #-939524095	; 0xc8000001
 a9c:	6e616972 	mcrvs	9, 3, r6, cr1, cr2, {3}
 aa0:	2f6e756a 	svccs	0x006e756a
 aa4:	6b736544 	blvs	1cd9fbc <__bss_end__+0x1ccfeb4>
 aa8:	2f706f74 	svccs	0x00706f74
 aac:	6f686373 	svcvs	0x00686373
 ab0:	572f6c6f 	strpl	r6, [pc, -pc, ror #24]!
 ab4:	65746e69 	ldrbvs	r6, [r4, #-3689]!	; 0xe69
 ab8:	32393172 	eorscc	r3, r9, #-2147483620	; 0x8000001c
 abc:	53432f30 	movtpl	r2, #16176	; 0x3f30
 ac0:	45303431 	ldrmi	r3, [r0, #-1073]!	; 0x431
 ac4:	3173632f 	cmncc	r3, pc, lsr #6
 ac8:	2d653034 	stclcs	0, cr3, [r5, #-208]!	; 0xffffff30
 acc:	69773032 	ldmdbvs	r7!, {r1, r4, r5, ip, sp}^
 ad0:	696c2f6e 	stmdbvs	ip!, {r1, r2, r3, r5, r6, r8, r9, sl, fp, sp}^
 ad4:	00697062 	rsbeq	r7, r9, r2, rrx
 ad8:	69706700 	ldmdbvs	r0!, {r8, r9, sl, sp, lr}^
 adc:	00632e6f 	rsbeq	r2, r3, pc, ror #28
 ae0:	67000001 	strvs	r0, [r0, -r1]
 ae4:	2e6f6970 	mcrcs	9, 3, r6, cr15, cr0, {3}
 ae8:	00020068 	andeq	r0, r2, r8, rrx
 aec:	69707200 	ldmdbvs	r0!, {r9, ip, sp, lr}^
 af0:	0300682e 	movweq	r6, #2094	; 0x82e
 af4:	00000000 	andeq	r0, r0, r0
 af8:	901c0205 	andsls	r0, ip, r5, lsl #4
 afc:	3e030000 	cdpcc	0, 0, cr0, cr3, cr0, {0}
 b00:	69504e01 	ldmdbvs	r0, {r0, r9, sl, fp, lr}^
 b04:	67672108 	strbvs	r2, [r7, -r8, lsl #2]!
 b08:	67676767 	strbvs	r6, [r7, -r7, ror #14]!
 b0c:	22084b32 	andcs	r4, r8, #51200	; 0xc800
 b10:	135131dc 	cmpne	r1, #220, 2	; 0x37
 b14:	be30504e 	cdplt	0, 3, cr5, cr0, cr14, {2}
 b18:	4d135031 	ldcmi	0, cr5, [r3, #-196]	; 0xffffff3c
 b1c:	4cc0304f 	stclmi	0, cr3, [r0], {79}	; 0x4f
 b20:	21086950 	tstcs	r8, r0, asr r9
 b24:	67676767 	strbvs	r6, [r7, -r7, ror #14]!
 b28:	4b326767 	blmi	c9a8cc <__bss_end__+0xc907c4>
 b2c:	4ca32108 	stfmis	f2, [r3], #32
 b30:	69842f50 	stmibvs	r4, {r4, r6, r8, r9, sl, fp, sp}
 b34:	03827503 	orreq	r7, r2, #12582912	; 0xc00000
 b38:	304d2e0c 	subcc	r2, sp, ip, lsl #28
 b3c:	4d4c4b4e 	vstrmi	d20, [ip, #-312]	; 0xfffffec8
 b40:	08696b6a 	stmdaeq	r9!, {r1, r3, r5, r6, r8, r9, fp, sp, lr}^
 b44:	67676721 	strbvs	r6, [r7, -r1, lsr #14]!
 b48:	32676767 	rsbcc	r6, r7, #27000832	; 0x19c0000
 b4c:	c022084b 	eorgt	r0, r2, fp, asr #16
 b50:	4e135130 	mrcmi	1, 0, r5, cr3, cr0, {1}
 b54:	18033050 	stmdane	r3, {r4, r6, ip, sp}
 b58:	4c9f31ba 	ldfmis	f3, [pc], {186}	; 0xba
 b5c:	4e4d522f 	cdpmi	2, 4, cr5, cr13, cr15, {1}
 b60:	4b674b2f 	blmi	19d3824 <__bss_end__+0x19c971c>
 b64:	4c676768 	stclmi	7, cr6, [r7], #-416	; 0xfffffe60
 b68:	4b2f672f 	blmi	bda82c <__bss_end__+0xbd0724>
 b6c:	2f4e4c6e 	svccs	0x004e4c6e
 b70:	684b674b 	stmdavs	fp, {r0, r1, r3, r6, r8, r9, sl, sp, lr}^
 b74:	2f4c6767 	svccs	0x004c6767
 b78:	6d4b2f67 	stclvs	15, cr2, [fp, #-412]	; 0xfffffe64
 b7c:	4b2f4e4b 	blmi	bd44b0 <__bss_end__+0xbca3a8>
 b80:	04020067 	streq	r0, [r2], #-103	; 0x67
 b84:	06660601 	strbteq	r0, [r6], -r1, lsl #12
 b88:	002f9f68 	eoreq	r9, pc, r8, ror #30
 b8c:	06010402 	streq	r0, [r1], -r2, lsl #8
 b90:	2f68064a 	svccs	0x0068064a
 b94:	034a7303 	movteq	r7, #41731	; 0xa303
 b98:	4c4d2e0e 	mcrrmi	14, 0, r2, sp, cr14
 b9c:	bc4b2f4e 	mcrrlt	15, 4, r2, fp, cr14
 ba0:	000602bc 			; <UNDEFINED> instruction: 0x000602bc
 ba4:	01010101 	tsteq	r1, r1, lsl #2
 ba8:	00020000 	andeq	r0, r2, r0
 bac:	000000ca 	andeq	r0, r0, sl, asr #1
 bb0:	0efb0102 	cdpeq	1, 15, cr0, cr11, cr2, {0}
 bb4:	0101000d 	tsteq	r1, sp
 bb8:	00000101 	andeq	r0, r0, r1, lsl #2
 bbc:	00000100 	andeq	r0, r0, r0, lsl #2
 bc0:	2d796d01 	ldclcs	13, cr6, [r9, #-4]!
 bc4:	00637273 	rsbeq	r7, r3, r3, ror r2
 bc8:	6573552f 	ldrbvs	r5, [r3, #-1327]!	; 0x52f
 bcc:	622f7372 	eorvs	r7, pc, #-939524095	; 0xc8000001
 bd0:	6e616972 	mcrvs	9, 3, r6, cr1, cr2, {3}
 bd4:	2f6e756a 	svccs	0x006e756a
 bd8:	6b736544 	blvs	1cda0f0 <__bss_end__+0x1ccffe8>
 bdc:	2f706f74 	svccs	0x00706f74
 be0:	6f686373 	svcvs	0x00686373
 be4:	572f6c6f 	strpl	r6, [pc, -pc, ror #24]!
 be8:	65746e69 	ldrbvs	r6, [r4, #-3689]!	; 0xe69
 bec:	32393172 	eorscc	r3, r9, #-2147483620	; 0x8000001c
 bf0:	53432f30 	movtpl	r2, #16176	; 0x3f30
 bf4:	45303431 	ldrmi	r3, [r0, #-1073]!	; 0x431
 bf8:	3173632f 	cmncc	r3, pc, lsr #6
 bfc:	2d653034 	stclcs	0, cr3, [r5, #-208]!	; 0xffffff30
 c00:	69773032 	ldmdbvs	r7!, {r1, r4, r5, ip, sp}^
 c04:	696c2f6e 	stmdbvs	ip!, {r1, r2, r3, r5, r6, r8, r9, sl, fp, sp}^
 c08:	2f697062 	svccs	0x00697062
 c0c:	34317363 	ldrtcc	r7, [r1], #-867	; 0x363
 c10:	732d6530 	teqvc	sp, #48, 10	; 0xc000000
 c14:	2f006372 	svccs	0x00006372
 c18:	72657355 	rsbvc	r7, r5, #1409286145	; 0x54000001
 c1c:	72622f73 	rsbvc	r2, r2, #460	; 0x1cc
 c20:	6a6e6169 	bvs	1b991cc <__bss_end__+0x1b8f0c4>
 c24:	442f6e75 	strtmi	r6, [pc], #-3701	; c2c <_start-0x73d4>
 c28:	746b7365 	strbtvc	r7, [fp], #-869	; 0x365
 c2c:	732f706f 	teqvc	pc, #111	; 0x6f
 c30:	6f6f6863 	svcvs	0x006f6863
 c34:	69572f6c 	ldmdbvs	r7, {r2, r3, r5, r6, r8, r9, sl, fp, sp}^
 c38:	7265746e 	rsbvc	r7, r5, #1845493760	; 0x6e000000
 c3c:	30323931 	eorscc	r3, r2, r1, lsr r9
 c40:	3153432f 	cmpcc	r3, pc, lsr #6
 c44:	2f453034 	svccs	0x00453034
 c48:	34317363 	ldrtcc	r7, [r1], #-867	; 0x363
 c4c:	322d6530 	eorcc	r6, sp, #48, 10	; 0xc000000
 c50:	6e697730 	mcrvs	7, 3, r7, cr9, cr0, {1}
 c54:	62696c2f 	rsbvs	r6, r9, #12032	; 0x2f00
 c58:	00006970 	andeq	r6, r0, r0, ror r9
 c5c:	74726175 	ldrbtvc	r6, [r2], #-373	; 0x175
 c60:	0100632e 	tsteq	r0, lr, lsr #6
 c64:	70670000 	rsbvc	r0, r7, r0
 c68:	682e6f69 	stmdavs	lr!, {r0, r3, r5, r6, r8, r9, sl, fp, sp, lr}
 c6c:	00000200 	andeq	r0, r0, r0, lsl #4
 c70:	2e697072 	mcrcs	0, 3, r7, cr9, cr2, {3}
 c74:	00030068 	andeq	r0, r3, r8, rrx
 c78:	05000000 	streq	r0, [r0, #-0]
 c7c:	0095bc02 	addseq	fp, r5, r2, lsl #24
 c80:	01360300 	teqeq	r6, r0, lsl #6
 c84:	6d673330 	stclvs	3, cr3, [r7, #-192]!	; 0xffffff40
 c88:	6730d830 			; <UNDEFINED> instruction: 0x6730d830
 c8c:	67676767 	strbvs	r6, [r7, -r7, ror #14]!
 c90:	672f8668 	strvs	r8, [pc, -r8, ror #12]!
 c94:	6767306a 	strbvs	r3, [r7, -sl, rrx]!
 c98:	6a672f69 	bvs	19cca44 <__bss_end__+0x19c293c>
 c9c:	2fc1674c 	svccs	0x00c1674c
 ca0:	682f302f 	stmdavs	pc!, {r0, r1, r2, r3, r5, ip, sp}	; <UNPREDICTABLE>
 ca4:	02023049 	andeq	r3, r2, #73	; 0x49
 ca8:	Address 0x0000000000000ca8 is out of bounds.


Disassembly of section .debug_str:

00000000 <.debug_str>:
       0:	5854554f 	ldmdapl	r4, {r0, r1, r2, r3, r6, r8, sl, ip, lr}^
       4:	475f4c5f 			; <UNDEFINED> instruction: 0x475f4c5f
       8:	52544300 	subspl	r4, r4, #0, 6
       c:	435f344c 	cmpmi	pc, #76, 8	; 0x4c000000
      10:	46494600 	strbmi	r4, [r9], -r0, lsl #12
      14:	54435f4f 	strbpl	r5, [r3], #-3919	; 0xf4f
      18:	00314c52 	eorseq	r4, r1, r2, asr ip
      1c:	4f464946 	svcmi	0x00464946
      20:	5254435f 	subspl	r4, r4, #2080374785	; 0x7c000001
      24:	4600324c 	strmi	r3, [r0], -ip, asr #4
      28:	5f4f4649 	svcpl	0x004f4649
      2c:	4c525443 	cfldrdmi	mvd5, [r2], {67}	; 0x43
      30:	49460033 	stmdbmi	r6, {r0, r1, r4, r5}^
      34:	435f4f46 	cmpmi	pc, #280	; 0x118
      38:	344c5254 	strbcc	r5, [ip], #-596	; 0x254
      3c:	46494600 	strbmi	r4, [r9], -r0, lsl #12
      40:	54435f4f 	strbpl	r5, [r3], #-3919	; 0xf4f
      44:	00354c52 	eorseq	r4, r5, r2, asr ip
      48:	4c525443 	cfldrdmi	mvd5, [r2], {67}	; 0x43
      4c:	4c585f39 	mrrcmi	15, 3, r5, r8, cr9
      50:	6d736c00 	ldclvs	12, cr6, [r3, #-0]
      54:	33736436 	cmncc	r3, #905969664	; 0x36000000
      58:	5f675f33 	svcpl	0x00675f33
      5c:	676d0074 			; <UNDEFINED> instruction: 0x676d0074
      60:	6163735f 	cmnvs	r3, pc, asr r3
      64:	0064656c 	rsbeq	r6, r4, ip, ror #10
      68:	6d746f6e 	ldclvs	15, cr6, [r4, #-440]!	; 0xfffffe48
      6c:	006e6961 	rsbeq	r6, lr, r1, ror #18
      70:	74726175 	ldrbtvc	r6, [r2], #-373	; 0x175
      74:	696e695f 	stmdbvs	lr!, {r0, r1, r2, r3, r4, r6, r8, fp, sp, lr}^
      78:	6f6c0074 	svcvs	0x006c0074
      7c:	6c20676e 	stcvs	7, cr6, [r0], #-440	; 0xfffffe48
      80:	20676e6f 	rsbcs	r6, r7, pc, ror #28
      84:	69736e75 	ldmdbvs	r3!, {r0, r2, r4, r5, r6, r9, sl, fp, sp, lr}^
      88:	64656e67 	strbtvs	r6, [r5], #-3687	; 0xe67
      8c:	746e6920 	strbtvc	r6, [lr], #-2336	; 0x920
      90:	756d6900 	strbvc	r6, [sp, #-2304]!	; 0x900
      94:	5f64725f 	svcpl	0x0064725f
      98:	4157006e 	cmpmi	r7, lr, rrx
      9c:	555f454b 	ldrbpl	r4, [pc, #-1355]	; fffffb59 <__bss_end__+0xffff5a51>
      a0:	48545f50 	ldmdami	r4, {r4, r6, r8, r9, sl, fp, ip, lr}^
      a4:	736c0053 	cmnvc	ip, #83	; 0x53
      a8:	7364366d 	cmnvc	r4, #114294784	; 0x6d00000
      ac:	385f3333 	ldmdacc	pc, {r0, r1, r4, r5, r8, r9, ip, sp}^	; <UNPREDICTABLE>
      b0:	6f640067 	svcvs	0x00640067
      b4:	6363615f 	cmnvs	r3, #-1073741801	; 0xc0000017
      b8:	745f6c65 	ldrbvc	r6, [pc], #-3173	; c0 <_start-0x7f40>
      bc:	00747365 	rsbseq	r7, r4, r5, ror #6
      c0:	676e6f6c 	strbvs	r6, [lr, -ip, ror #30]!
      c4:	6e6f6c20 	cdpvs	12, 6, cr6, cr15, cr0, {1}
      c8:	6e692067 	cdpvs	0, 6, cr2, cr9, cr7, {3}
      cc:	554f0074 	strbpl	r0, [pc, #-116]	; 60 <_start-0x7fa0>
      d0:	45545f54 	ldrbmi	r5, [r4, #-3924]	; 0xf54
      d4:	485f504d 	ldmdami	pc, {r0, r2, r3, r6, ip, lr}^	; <UNPREDICTABLE>
      d8:	54554f00 	ldrbpl	r4, [r5], #-3840	; 0xf00
      dc:	4d45545f 	cfstrdmi	mvd5, [r5, #-380]	; 0xfffffe84
      e0:	004c5f50 	subeq	r5, ip, r0, asr pc
      e4:	5f31444d 	svcpl	0x0031444d
      e8:	00474643 	subeq	r4, r7, r3, asr #12
      ec:	4c525443 	cfldrdmi	mvd5, [r2], {67}	; 0x43
      f0:	00435f33 	subeq	r5, r3, r3, lsr pc
      f4:	5f504154 	svcpl	0x00504154
      f8:	5f534854 	svcpl	0x00534854
      fc:	50004436 	andpl	r4, r0, r6, lsr r4
     100:	00385455 	eorseq	r5, r8, r5, asr r4
     104:	50455453 	subpl	r5, r5, r3, asr r4
     108:	4d49545f 	cfstrdmi	mvd5, [r9, #-380]	; 0xfffffe84
     10c:	41545345 	cmpmi	r4, r5, asr #6
     110:	4c5f504d 	mrrcmi	0, 4, r5, pc, cr13	; <UNPREDICTABLE>
     114:	76656400 	strbtvc	r6, [r5], -r0, lsl #8
     118:	7261625f 	rsbvc	r6, r1, #-268435451	; 0xf0000005
     11c:	72656972 	rsbvc	r6, r5, #1867776	; 0x1c8000
     120:	5f676d00 	svcpl	0x00676d00
     124:	6c616373 	stclvs	3, cr6, [r1], #-460	; 0xfffffe34
     128:	554f0065 	strbpl	r0, [pc, #-101]	; cb <_start-0x7f35>
     12c:	4c5f5954 	mrrcmi	9, 5, r5, pc, cr4	; <UNPREDICTABLE>
     130:	004c585f 	subeq	r5, ip, pc, asr r8
     134:	5a54554f 	bpl	1515678 <__bss_end__+0x150b570>
     138:	475f4c5f 			; <UNDEFINED> instruction: 0x475f4c5f
     13c:	5f676d00 	svcpl	0x00676d00
     140:	00776172 	rsbseq	r6, r7, r2, ror r1
     144:	5f504154 	svcpl	0x00504154
     148:	00435253 	subeq	r5, r3, r3, asr r2
     14c:	366d736c 	strbtcc	r7, [sp], -ip, ror #6
     150:	33337364 	teqcc	r3, #100, 6	; 0x90000001
     154:	3830325f 	ldmdacc	r0!, {r0, r1, r2, r3, r4, r6, r9, ip, sp}
     158:	4f007a68 	svcmi	0x00007a68
     15c:	5f585455 	svcpl	0x00585455
     160:	4c585f48 	mrrcmi	15, 4, r5, r8, cr8
     164:	73616200 	cmnvc	r1, #0, 4
     168:	65725f65 	ldrbvs	r5, [r2, #-3941]!	; 0xf65
     16c:	49540067 	ldmdbmi	r4, {r0, r1, r2, r5, r6}^
     170:	5453454d 	ldrbpl	r4, [r3], #-1357	; 0x54d
     174:	31504d41 	cmpcc	r0, r1, asr #26
     178:	4745525f 	smlsldmi	r5, r5, pc, r2	; <UNPREDICTABLE>
     17c:	63636100 	cmnvs	r3, #0, 2
     180:	745f6c65 	ldrbvc	r6, [pc], #-3173	; 188 <_start-0x7e78>
     184:	6d736c00 	ldclvs	12, cr6, [r3, #-0]
     188:	33736436 	cmncc	r3, #905969664	; 0x36000000
     18c:	32355f33 	eorscc	r5, r5, #51, 30	; 0xcc
     190:	69007a68 	stmdbvs	r0, {r3, r5, r6, r9, fp, ip, sp, lr}
     194:	695f6332 	ldmdbvs	pc, {r1, r4, r5, r8, r9, sp, lr}^	; <UNPREDICTABLE>
     198:	0074696e 	rsbseq	r6, r4, lr, ror #18
     19c:	50455453 	subpl	r5, r5, r3, asr r4
     1a0:	4d49545f 	cfstrdmi	mvd5, [r9, #-380]	; 0xfffffe84
     1a4:	41545345 	cmpmi	r4, r5, asr #6
     1a8:	485f504d 	ldmdami	pc, {r0, r2, r3, r6, ip, lr}^	; <UNPREDICTABLE>
     1ac:	6d736c00 	ldclvs	12, cr6, [r3, #-0]
     1b0:	33736436 	cmncc	r3, #905969664	; 0x36000000
     1b4:	67325f33 			; <UNDEFINED> instruction: 0x67325f33
     1b8:	69707200 	ldmdbvs	r0!, {r9, ip, sp, lr}^
     1bc:	7365725f 	cmnvc	r5, #-268435451	; 0xf0000005
     1c0:	705f7465 	subsvc	r7, pc, r5, ror #8
     1c4:	00637475 	rsbeq	r7, r3, r5, ror r4
     1c8:	454d4954 	strbmi	r4, [sp, #-2388]	; 0x954
     1cc:	4d415453 	cfstrdmi	mvd5, [r1, #-332]	; 0xfffffeb4
     1d0:	525f3050 	subspl	r3, pc, #80	; 0x50
     1d4:	53004745 	movwpl	r4, #1861	; 0x745
     1d8:	55544154 	ldrbpl	r4, [r4, #-340]	; 0x154
     1dc:	45525f53 	ldrbmi	r5, [r2, #-3923]	; 0xf53
     1e0:	78650047 	stmdavc	r5!, {r0, r1, r2, r6}^
     1e4:	74636570 	strbtvc	r6, [r3], #-1392	; 0x570
     1e8:	46006465 	strmi	r6, [r0], -r5, ror #8
     1ec:	5f4f4649 	svcpl	0x004f4649
     1f0:	54415453 	strbpl	r5, [r1], #-1107	; 0x453
     1f4:	00315355 	eorseq	r5, r1, r5, asr r3
     1f8:	4f464946 	svcmi	0x00464946
     1fc:	4154535f 	cmpmi	r4, pc, asr r3
     200:	32535554 	subscc	r5, r3, #84, 10	; 0x15000000
     204:	6d736c00 	ldclvs	12, cr6, [r3, #-0]
     208:	33736436 	cmncc	r3, #905969664	; 0x36000000
     20c:	30315f33 	eorscc	r5, r1, r3, lsr pc
     210:	007a6834 	rsbseq	r6, sl, r4, lsr r8
     214:	4f464946 	svcmi	0x00464946
     218:	4154535f 	cmpmi	r4, pc, asr r3
     21c:	34535554 	ldrbcc	r5, [r3], #-1364	; 0x554
     220:	52544300 	subspl	r4, r4, #0, 6
     224:	475f324c 	ldrbmi	r3, [pc, -ip, asr #4]
     228:	54554f00 	ldrbpl	r4, [r5], #-3840	; 0xf00
     22c:	5f4c5f5a 	svcpl	0x004c5f5a
     230:	6c004c58 	stcvs	12, cr4, [r0], {88}	; 0x58
     234:	64366d73 	ldrtvs	r6, [r6], #-3443	; 0xd73
     238:	5f333373 	svcpl	0x00333373
     23c:	00673631 	rsbeq	r3, r7, r1, lsr r6
     240:	726f6873 	rsbvc	r6, pc, #7536640	; 0x730000
     244:	6e752074 	mrcvs	0, 3, r2, cr5, cr4, {3}
     248:	6e676973 	mcrvs	9, 3, r6, cr7, cr3, {3}
     24c:	69206465 	stmdbvs	r0!, {r0, r2, r5, r6, sl, sp, lr}
     250:	6900746e 	stmdbvs	r0, {r1, r2, r3, r5, r6, sl, ip, sp, lr}
     254:	775f6332 	smmlarvc	pc, r2, r3, r6	; <UNPREDICTABLE>
     258:	65746972 	ldrbvs	r6, [r4, #-2418]!	; 0x972
     25c:	67656c00 	strbvs	r6, [r5, -r0, lsl #24]!
     260:	475f6c61 	ldrbmi	r6, [pc, -r1, ror #24]
     264:	465f5f00 	ldrbmi	r5, [pc], -r0, lsl #30
     268:	54434e55 	strbpl	r4, [r3], #-3669	; 0xe55
     26c:	5f4e4f49 	svcpl	0x004e4f49
     270:	5443005f 	strbpl	r0, [r3], #-95	; 0x5f
     274:	5f314c52 	svcpl	0x00314c52
     278:	61004c58 	tstvs	r0, r8, asr ip
     27c:	6c656363 	stclvs	3, cr6, [r5], #-396	; 0xfffffe74
     280:	7274735f 	rsbsvc	r7, r4, #2080374785	; 0x7c000001
     284:	00746375 	rsbseq	r6, r4, r5, ror r3
     288:	65636361 	strbvs	r6, [r3, #-865]!	; 0x361
     28c:	6e695f6c 	cdpvs	15, 6, cr5, cr9, cr12, {3}
     290:	6c007469 	cfstrsvs	mvf7, [r0], {105}	; 0x69
     294:	6c616765 	stclvs	7, cr6, [r1], #-404	; 0xfffffe6c
     298:	625f675f 	subsvs	r6, pc, #24903680	; 0x17c0000
     29c:	00737469 	rsbseq	r7, r3, r9, ror #8
     2a0:	4c525443 	cfldrdmi	mvd5, [r2], {67}	; 0x43
     2a4:	00475f37 	subeq	r5, r7, r7, lsr pc
     2a8:	41676572 	smcmi	30290	; 0x7652
     2ac:	00726464 	rsbseq	r6, r2, r4, ror #8
     2b0:	366d736c 	strbtcc	r7, [sp], -ip, ror #6
     2b4:	33337364 	teqcc	r3, #100, 6	; 0x90000001
     2b8:	5f7a685f 	svcpl	0x007a685f
     2bc:	736c0074 	cmnvc	ip, #116	; 0x74
     2c0:	7364366d 	cmnvc	r4, #114294784	; 0x6d00000
     2c4:	6f5f3333 	svcvs	0x005f3333
     2c8:	73006666 	movwvc	r6, #1638	; 0x666
     2cc:	74657a69 	strbtvc	r7, [r5], #-2665	; 0xa69
     2d0:	00657079 	rsbeq	r7, r5, r9, ror r0
     2d4:	74736574 	ldrbtvc	r6, [r3], #-1396	; 0x574
     2d8:	00676d5f 	rsbeq	r6, r7, pc, asr sp
     2dc:	5f756d69 	svcpl	0x00756d69
     2e0:	49006472 	stmdbmi	r0, {r1, r4, r5, r6, sl, sp, lr}
     2e4:	5f31544e 	svcpl	0x0031544e
     2e8:	4c525443 	cfldrdmi	mvd5, [r2], {67}	; 0x43
     2ec:	4b415700 	blmi	1055ef4 <__bss_end__+0x104bdec>
     2f0:	50555f45 	subspl	r5, r5, r5, asr #30
     2f4:	4352535f 	cmpmi	r2, #2080374785	; 0x7c000001
     2f8:	6d736c00 	ldclvs	12, cr6, [r3, #-0]
     2fc:	33736436 	cmncc	r3, #905969664	; 0x36000000
     300:	33315f33 	teqcc	r1, #51, 30	; 0xcc
     304:	54007a68 	strpl	r7, [r0], #-2664	; 0xa68
     308:	435f5041 	cmpmi	pc, #65	; 0x41
     30c:	6c004746 	stcvs	7, cr4, [r0], {70}	; 0x46
     310:	64366d73 	ldrtvs	r6, [r6], #-3443	; 0xd73
     314:	5f333373 	svcpl	0x00333373
     318:	69006734 	stmdbvs	r0, {r2, r4, r5, r8, r9, sl, sp, lr}
     31c:	785f756d 	ldmdavc	pc, {r0, r2, r3, r5, r6, r8, sl, ip, sp, lr}^	; <UNPREDICTABLE>
     320:	745f7a79 	ldrbvc	r7, [pc], #-2681	; 328 <_start-0x7cd8>
     324:	6d736c00 	ldclvs	12, cr6, [r3, #-0]
     328:	33736436 	cmncc	r3, #905969664	; 0x36000000
     32c:	36365f33 	shasxcc	r5, r6, r3
     330:	7a683036 	bvc	1a0c410 <__bss_end__+0x1a02308>
     334:	6d736c00 	ldclvs	12, cr6, [r3, #-0]
     338:	33736436 	cmncc	r3, #905969664	; 0x36000000
     33c:	33385f33 	teqcc	r8, #51, 30	; 0xcc
     340:	007a6833 	rsbseq	r6, sl, r3, lsr r8
     344:	5954554f 	ldmdbpl	r4, {r0, r1, r2, r3, r6, r8, sl, ip, lr}^
     348:	475f4c5f 			; <UNDEFINED> instruction: 0x475f4c5f
     34c:	45545300 	ldrbmi	r5, [r4, #-768]	; 0x300
     350:	4f435f50 	svcmi	0x00435f50
     354:	45544e55 	ldrbmi	r4, [r4, #-3669]	; 0xe55
     358:	00485f52 	subeq	r5, r8, r2, asr pc
     35c:	69736e75 	ldmdbvs	r3!, {r0, r2, r4, r5, r6, r9, sl, fp, sp, lr}^
     360:	64656e67 	strbtvs	r6, [r5], #-3687	; 0xe67
     364:	61686320 	cmnvs	r8, r0, lsr #6
     368:	54530072 	ldrbpl	r0, [r3], #-114	; 0x72
     36c:	435f5045 	cmpmi	pc, #69	; 0x45
     370:	544e554f 	strbpl	r5, [lr], #-1359	; 0x54f
     374:	4c5f5245 	lfmmi	f5, 2, [pc], {69}	; 0x45
     378:	52544300 	subspl	r4, r4, #0, 6
     37c:	475f364c 	ldrbmi	r3, [pc, -ip, asr #12]
     380:	73552f00 	cmpvc	r5, #0, 30
     384:	2f737265 	svccs	0x00737265
     388:	61697262 	cmnvs	r9, r2, ror #4
     38c:	6e756a6e 	vsubvs.f32	s13, s10, s29
     390:	7365442f 	cmnvc	r5, #788529152	; 0x2f000000
     394:	706f746b 	rsbvc	r7, pc, fp, ror #8
     398:	6863732f 	stmdavs	r3!, {r0, r1, r2, r3, r5, r8, r9, ip, sp, lr}^
     39c:	2f6c6f6f 	svccs	0x006c6f6f
     3a0:	69727053 	ldmdbvs	r2!, {r0, r1, r4, r6, ip, sp, lr}^
     3a4:	3931676e 	ldmdbcc	r1!, {r1, r2, r3, r5, r6, r8, r9, sl, sp, lr}
     3a8:	432f3032 	teqmi	pc, #50	; 0x32
     3ac:	30343253 	eorscc	r3, r4, r3, asr r2
     3b0:	632f584c 	teqvs	pc, #76, 16	; 0x4c0000
     3b4:	30343273 	eorscc	r3, r4, r3, ror r2
     3b8:	322d786c 	eorcc	r7, sp, #108, 16	; 0x6c0000
     3bc:	72707330 	rsbsvc	r7, r0, #48, 6	; 0xc0000000
     3c0:	62616c2f 	rsbvs	r6, r1, #12032	; 0x2f00
     3c4:	2d382f73 	ldccs	15, cr2, [r8, #-460]!	; 0xfffffe34
     3c8:	2d633269 	sfmcs	f3, 2, [r3, #-420]!	; 0xfffffe5c
     3cc:	65636361 	strbvs	r6, [r3, #-865]!	; 0x361
     3d0:	6f632f6c 	svcvs	0x00632f6c
     3d4:	46006564 	strmi	r6, [r0], -r4, ror #10
     3d8:	5f434e55 	svcpl	0x00434e55
     3dc:	5f474643 	svcpl	0x00474643
     3e0:	45434341 	strbmi	r4, [r3, #-833]	; 0x341
     3e4:	73005353 	movwvc	r5, #851	; 0x353
     3e8:	74726f68 	ldrbtvc	r6, [r2], #-3944	; 0xf68
     3ec:	746e6920 	strbtvc	r6, [lr], #-2336	; 0x920
     3f0:	52544300 	subspl	r4, r4, #0, 6
     3f4:	585f384c 	ldmdapl	pc, {r2, r3, r6, fp, ip, sp}^	; <UNPREDICTABLE>
     3f8:	6361004c 	cmnvs	r1, #76	; 0x4c
     3fc:	5f6c6563 	svcpl	0x006c6563
     400:	5f736168 	svcpl	0x00736168
     404:	61746164 	cmnvs	r4, r4, ror #2
     408:	54554f00 	ldrbpl	r4, [r5], #-3840	; 0xf00
     40c:	5f485f59 	svcpl	0x00485f59
     410:	57004c58 	smlsdpl	r0, r8, ip, r4
     414:	5f454b41 	svcpl	0x00454b41
     418:	445f5055 	ldrbmi	r5, [pc], #-85	; 420 <_start-0x7be0>
     41c:	6c005255 	sfmvs	f5, 4, [r0], {85}	; 0x55
     420:	64366d73 	ldrtvs	r6, [r6], #-3443	; 0xd73
     424:	5f333373 	svcpl	0x00333373
     428:	30363631 	eorscc	r3, r6, r1, lsr r6
     42c:	47007a68 	strmi	r7, [r0, -r8, ror #20]
     430:	4320554e 	teqmi	r0, #327155712	; 0x13800000
     434:	382e3420 	stmdacc	lr!, {r5, sl, ip, sp}
     438:	2d20332e 	stccs	3, cr3, [r0, #-184]!	; 0xffffff48
     43c:	7570636d 	ldrbvc	r6, [r0, #-877]!	; 0x36d
     440:	6d72613d 	ldfvse	f6, [r2, #-244]!	; 0xffffff0c
     444:	36373131 			; <UNDEFINED> instruction: 0x36373131
     448:	2d667a6a 	vstmdbcs	r6!, {s15-s120}
     44c:	6d2d2073 	stcvs	0, cr2, [sp, #-460]!	; 0xfffffe34
     450:	656e7574 	strbvs	r7, [lr, #-1396]!	; 0x574
     454:	6d72613d 	ldfvse	f6, [r2, #-244]!	; 0xffffff0c
     458:	36373131 			; <UNDEFINED> instruction: 0x36373131
     45c:	2d667a6a 	vstmdbcs	r6!, {s15-s120}
     460:	672d2073 			; <UNDEFINED> instruction: 0x672d2073
     464:	20626467 	rsbcs	r6, r2, r7, ror #8
     468:	20674f2d 	rsbcs	r4, r7, sp, lsr #30
     46c:	6474732d 	ldrbtvs	r7, [r4], #-813	; 0x32d
     470:	756e673d 	strbvc	r6, [lr, #-1853]!	; 0x73d
     474:	2d203939 	stccs	9, cr3, [r0, #-228]!	; 0xffffff1c
     478:	65726666 	ldrbvs	r6, [r2, #-1638]!	; 0x666
     47c:	61747365 	cmnvs	r4, r5, ror #6
     480:	6e69646e 	cdpvs	4, 6, cr6, cr9, cr14, {3}
     484:	662d2067 	strtvs	r2, [sp], -r7, rrx
     488:	67696c61 	strbvs	r6, [r9, -r1, ror #24]!
     48c:	75662d6e 	strbvc	r2, [r6, #-3438]!	; 0xd6e
     490:	6974636e 	ldmdbvs	r4!, {r1, r2, r3, r5, r6, r8, r9, sp, lr}^
     494:	3d736e6f 	ldclcc	14, cr6, [r3, #-444]!	; 0xfffffe44
     498:	554f0034 	strbpl	r0, [pc, #-52]	; 46c <_start-0x7b94>
     49c:	485f5854 	ldmdami	pc, {r2, r4, r6, fp, ip, lr}^	; <UNPREDICTABLE>
     4a0:	6400475f 	strvs	r4, [r0], #-1887	; 0x75f
     4a4:	79616c65 	stmdbvc	r1!, {r0, r2, r5, r6, sl, fp, sp, lr}^
     4a8:	00736d5f 	rsbseq	r6, r3, pc, asr sp
     4ac:	746e6975 	strbtvc	r6, [lr], #-2421	; 0x975
     4b0:	745f3233 	ldrbvc	r3, [pc], #-563	; 4b8 <_start-0x7b48>
     4b4:	4c415600 	mcrrmi	6, 0, r5, r1, cr0
     4b8:	4f48575f 	svcmi	0x0048575f
     4bc:	5f4d415f 	svcpl	0x004d415f
     4c0:	52460049 	subpl	r0, r6, #73	; 0x49
     4c4:	465f4545 	ldrbmi	r4, [pc], -r5, asr #10
     4c8:	004c4c41 	subeq	r4, ip, r1, asr #24
     4cc:	4549524f 	strbmi	r5, [r9, #-591]	; 0x24f
     4d0:	435f544e 	cmpmi	pc, #1308622848	; 0x4e000000
     4d4:	475f4746 	ldrbmi	r4, [pc, -r6, asr #14]
     4d8:	756d6900 	strbvc	r6, [sp, #-2304]!	; 0x900
     4dc:	0072775f 	rsbseq	r7, r2, pc, asr r7
     4e0:	366d736c 	strbtcc	r7, [sp], -ip, ror #6
     4e4:	33337364 	teqcc	r3, #100, 6	; 0x90000001
     4e8:	3631345f 			; <UNDEFINED> instruction: 0x3631345f
     4ec:	46007a68 	strmi	r7, [r0], -r8, ror #20
     4f0:	5f4f4649 	svcpl	0x004f4649
     4f4:	54415453 	strbpl	r5, [r1], #-1107	; 0x453
     4f8:	00335355 	eorseq	r5, r3, r5, asr r3
     4fc:	366d736c 	strbtcc	r7, [sp], -ip, ror #6
     500:	33337364 	teqcc	r3, #100, 6	; 0x90000001
     504:	3333335f 	teqcc	r3, #2080374785	; 0x7c000001
     508:	007a6830 	rsbseq	r6, sl, r0, lsr r8
     50c:	5f766564 	svcpl	0x00766564
     510:	72646461 	rsbvc	r6, r4, #1627389952	; 0x61000000
     514:	54554f00 	ldrbpl	r4, [r5], #-3840	; 0xf00
     518:	5f485f5a 	svcpl	0x00485f5a
     51c:	61004c58 	tstvs	r0, r8, asr ip
     520:	6c656363 	stclvs	3, cr6, [r5], #-396	; 0xfffffe74
     524:	4300632e 	movwmi	r6, #814	; 0x32e
     528:	354c5254 	strbcc	r5, [ip, #-596]	; 0x254
     52c:	4f00435f 	svcmi	0x0000435f
     530:	5f585455 	svcpl	0x00585455
     534:	4c585f4c 	mrrcmi	15, 4, r5, r8, cr12
     538:	52544300 	subspl	r4, r4, #0, 6
     53c:	5f30314c 	svcpl	0x0030314c
     540:	736c0043 	cmnvc	ip, #67	; 0x43
     544:	7364366d 	cmnvc	r4, #114294784	; 0x6d00000
     548:	645f3333 	ldrbvs	r3, [pc], #-819	; 550 <_start-0x7ab0>
     54c:	75616665 	strbvc	r6, [r1, #-1637]!	; 0x665
     550:	615f746c 	cmpvs	pc, ip, ror #8
     554:	00726464 	rsbseq	r6, r2, r4, ror #8
     558:	5f32444d 	svcpl	0x0032444d
     55c:	00474643 	subeq	r4, r7, r3, asr #12
     560:	5f633269 	svcpl	0x00633269
     564:	64616572 	strbtvs	r6, [r1], #-1394	; 0x572
     568:	63636100 	cmnvs	r3, #0, 2
     56c:	725f6c65 	subsvc	r6, pc, #25856	; 0x6500
     570:	55460064 	strbpl	r0, [r6, #-100]	; 0x64
     574:	535f434e 	cmppl	pc, #939524097	; 0x38000001
     578:	75004352 	strvc	r4, [r0, #-850]	; 0x352
     57c:	38746e69 	ldmdacc	r4!, {r0, r3, r5, r6, r9, sl, fp, sp, lr}^
     580:	4900745f 	stmdbmi	r0, {r0, r1, r2, r3, r4, r6, sl, ip, sp, lr}
     584:	445f544e 	ldrbmi	r5, [pc], #-1102	; 58c <_start-0x7a74>
     588:	00325255 	eorseq	r5, r2, r5, asr r2
     58c:	366d736c 	strbtcc	r7, [sp], -ip, ror #6
     590:	33337364 	teqcc	r3, #100, 6	; 0x90000001
     594:	6836325f 	ldmdavs	r6!, {r0, r1, r2, r3, r4, r6, r9, ip, sp}
     598:	4954007a 	ldmdbmi	r4, {r1, r3, r4, r5, r6}^
     59c:	5453454d 	ldrbpl	r4, [r3], #-1357	; 0x54d
     5a0:	32504d41 	subscc	r4, r0, #4160	; 0x1040
     5a4:	4745525f 	smlsldmi	r5, r5, pc, r2	; <UNPREDICTABLE>
     5a8:	63636100 	cmnvs	r3, #0, 2
     5ac:	735f6c65 	cmpvc	pc, #25856	; 0x6500
     5b0:	656c6163 	strbvs	r6, [ip, #-355]!	; 0x163
     5b4:	44364400 	ldrtmi	r4, [r6], #-1024	; 0x400
     5b8:	4352535f 	cmpmi	r2, #2080374785	; 0x7c000001
     5bc:	54554f00 	ldrbpl	r4, [r5], #-3840	; 0xf00
     5c0:	5f485f59 	svcpl	0x00485f59
     5c4:	6c630047 	stclvs	0, cr0, [r3], #-284	; 0xfffffee4
     5c8:	5f6e6165 	svcpl	0x006e6165
     5cc:	6f626572 	svcvs	0x00626572
     5d0:	4600746f 	strmi	r7, [r0], -pc, ror #8
     5d4:	5f4f4649 	svcpl	0x004f4649
     5d8:	41544144 	cmpmi	r4, r4, asr #2
     5dc:	54554f5f 	ldrbpl	r4, [r5], #-3935	; 0xf5f
     5e0:	4600485f 			; <UNDEFINED> instruction: 0x4600485f
     5e4:	5f4f4649 	svcpl	0x004f4649
     5e8:	41544144 	cmpmi	r4, r4, asr #2
     5ec:	54554f5f 	ldrbpl	r4, [r5], #-3935	; 0xf5f
     5f0:	4f004c5f 	svcmi	0x00004c5f
     5f4:	5f5a5455 	svcpl	0x005a5455
     5f8:	00475f48 	subeq	r5, r7, r8, asr #30
     5fc:	32544e49 	subscc	r4, r4, #1168	; 0x490
     600:	5254435f 	subspl	r4, r4, #2080374785	; 0x7c000001
     604:	645f004c 	ldrbvs	r0, [pc], #-76	; 60c <_start-0x79f4>
     608:	685f6f73 	ldmdavs	pc, {r0, r1, r4, r5, r6, r8, r9, sl, fp, sp, lr}^	; <UNPREDICTABLE>
     60c:	6c646e61 	stclvs	14, cr6, [r4], #-388	; 0xfffffe7c
     610:	4e470065 	cdpmi	0, 4, cr0, cr7, cr5, {3}
     614:	39432055 	stmdbcc	r3, {r0, r2, r4, r6, sp}^
     618:	2e362039 	mrccs	0, 1, r2, cr6, cr9, {1}
     61c:	20312e33 	eorscs	r2, r1, r3, lsr lr
     620:	37313032 			; <UNDEFINED> instruction: 0x37313032
     624:	30323630 	eorscc	r3, r2, r0, lsr r6
     628:	636d2d20 	cmnvs	sp, #32, 26	; 0x800
     62c:	613d7570 	teqvs	sp, r0, ror r5
     630:	31316d72 	teqcc	r1, r2, ror sp
     634:	7a6a3637 	bvc	1a8df18 <__bss_end__+0x1a83e10>
     638:	20732d66 	rsbscs	r2, r3, r6, ror #26
     63c:	75746d2d 	ldrbvc	r6, [r4, #-3373]!	; 0xd2d
     640:	613d656e 	teqvs	sp, lr, ror #10
     644:	31316d72 	teqcc	r1, r2, ror sp
     648:	7a6a3637 	bvc	1a8df2c <__bss_end__+0x1a83e24>
     64c:	20732d66 	rsbscs	r2, r3, r6, ror #26
     650:	6467672d 	strbtvs	r6, [r7], #-1837	; 0x72d
     654:	4f2d2062 	svcmi	0x002d2062
     658:	732d2067 	teqvc	sp, #103	; 0x67
     65c:	673d6474 			; <UNDEFINED> instruction: 0x673d6474
     660:	3939756e 	ldmdbcc	r9!, {r1, r2, r3, r5, r6, r8, sl, ip, sp, lr}
     664:	66662d20 	strbtvs	r2, [r6], -r0, lsr #26
     668:	73656572 	cmnvc	r5, #478150656	; 0x1c800000
     66c:	646e6174 	strbtvs	r6, [lr], #-372	; 0x174
     670:	20676e69 	rsbcs	r6, r7, r9, ror #28
     674:	6c61662d 	stclvs	6, cr6, [r1], #-180	; 0xffffff4c
     678:	2d6e6769 	stclcs	7, cr6, [lr, #-420]!	; 0xfffffe5c
     67c:	636e7566 	cmnvs	lr, #427819008	; 0x19800000
     680:	6e6f6974 	mcrvs	9, 3, r6, cr15, cr4, {3}
     684:	00343d73 	eorseq	r3, r4, r3, ror sp
     688:	7a69735f 	bvc	1a5d40c <__bss_end__+0x1a53304>
     68c:	725f0065 	subsvc	r0, pc, #101	; 0x65
     690:	34646e61 	strbtcc	r6, [r4], #-3681	; 0xe61
     694:	655f0038 	ldrbvs	r0, [pc, #-56]	; 664 <_start-0x799c>
     698:	6772656d 	ldrbvs	r6, [r2, -sp, ror #10]!
     69c:	79636e65 	stmdbvc	r3!, {r0, r2, r5, r6, r9, sl, fp, sp, lr}^
     6a0:	725f7300 	subsvc	r7, pc, #0, 6
     6a4:	73696765 	cmnvc	r9, #26476544	; 0x1940000
     6a8:	00726574 	rsbseq	r6, r2, r4, ror r5
     6ac:	5f495052 	svcpl	0x00495052
     6b0:	00633269 	rsbeq	r3, r3, r9, ror #4
     6b4:	656e6f64 	strbvs	r6, [lr, #-3940]!	; 0xf64
     6b8:	66696600 	strbtvs	r6, [r9], -r0, lsl #12
     6bc:	775f006f 	ldrbvc	r0, [pc, -pc, rrx]
     6c0:	6f747263 	svcvs	0x00747263
     6c4:	735f626d 	cmpvc	pc, #-805306362	; 0xd0000006
     6c8:	65746174 	ldrbvs	r6, [r4, #-372]!	; 0x174
     6cc:	63775f00 	cmnvs	r7, #0, 30
     6d0:	6f747273 	svcvs	0x00747273
     6d4:	5f73626d 	svcpl	0x0073626d
     6d8:	74617473 	strbtvc	r7, [r1], #-1139	; 0x473
     6dc:	6c5f0065 	mrrcvs	0, 6, r0, pc, cr5	; <UNPREDICTABLE>
     6e0:	69736662 	ldmdbvs	r3!, {r1, r5, r6, r9, sl, sp, lr}^
     6e4:	4700657a 	smlsdxmi	r0, sl, r5, r6
     6e8:	5f4f4950 	svcpl	0x004f4950
     6ec:	434e5546 	movtmi	r5, #58694	; 0xe546
     6f0:	504e495f 	subpl	r4, lr, pc, asr r9
     6f4:	5f005455 	svcpl	0x00005455
     6f8:	7472626d 	ldrbtvc	r6, [r2], #-621	; 0x26d
     6fc:	5f63776f 	svcpl	0x0063776f
     700:	74617473 	strbtvc	r7, [r1], #-1139	; 0x473
     704:	32690065 	rsbcc	r0, r9, #101	; 0x65
     708:	73695f63 	cmnvc	r9, #396	; 0x18c
     70c:	696e695f 	stmdbvs	lr!, {r0, r1, r2, r3, r4, r6, r8, fp, sp, lr}^
     710:	6c616974 	stclvs	9, cr6, [r1], #-464	; 0xfffffe30
     714:	64657a69 	strbtvs	r7, [r5], #-2665	; 0xa69
     718:	63775f00 	cmnvs	r7, #0, 30
     71c:	626d6f74 	rsbvs	r6, sp, #116, 30	; 0x1d0
     720:	6174735f 	cmnvs	r4, pc, asr r3
     724:	5f006574 	svcpl	0x00006574
     728:	5f6d745f 	svcpl	0x006d745f
     72c:	00636573 	rsbeq	r6, r3, r3, ror r5
     730:	7562755f 	strbvc	r7, [r2, #-1375]!	; 0x55f
     734:	50470066 	subpl	r0, r7, r6, rrx
     738:	465f4f49 	ldrbmi	r4, [pc], -r9, asr #30
     73c:	5f434e55 	svcpl	0x00434e55
     740:	31544c41 	cmpcc	r4, r1, asr #24
     744:	61625f00 	cmnvs	r2, r0, lsl #30
     748:	5f006573 	svcpl	0x00006573
     74c:	5f6d745f 	svcpl	0x006d745f
     750:	72756f68 	rsbsvc	r6, r5, #104, 30	; 0x1a0
     754:	755f5f00 	ldrbvc	r5, [pc, #-3840]	; fffff85c <__bss_end__+0xffff5754>
     758:	6573756e 	ldrbvs	r7, [r3, #-1390]!	; 0x56e
     75c:	5f003164 	svcpl	0x00003164
     760:	0066735f 	rsbeq	r7, r6, pc, asr r3
     764:	5f6e6f5f 	svcpl	0x006e6f5f
     768:	74697865 	strbtvc	r7, [r9], #-2149	; 0x865
     76c:	6772615f 			; <UNDEFINED> instruction: 0x6772615f
     770:	6c630073 	stclvs	0, cr0, [r3], #-460	; 0xfffffe34
     774:	5f6b636f 	svcpl	0x006b636f
     778:	65727473 	ldrbvs	r7, [r2, #-1139]!	; 0x473
     77c:	5f686374 	svcpl	0x00686374
     780:	656d6974 	strbvs	r6, [sp, #-2420]!	; 0x974
     784:	0074756f 	rsbseq	r7, r4, pc, ror #10
     788:	6f6f635f 	svcvs	0x006f635f
     78c:	0065696b 	rsbeq	r6, r5, fp, ror #18
     790:	6f697067 	svcvs	0x00697067
     794:	7465735f 	strbtvc	r7, [r5], #-863	; 0x35f
     798:	6e75665f 	mrcvs	6, 3, r6, cr5, cr15, {2}
     79c:	6f697463 	svcvs	0x00697463
     7a0:	5f5f006e 	svcpl	0x005f006e
     7a4:	756c6773 	strbvc	r6, [ip, #-1907]!	; 0x773
     7a8:	665f0065 	ldrbvs	r0, [pc], -r5, rrx
     7ac:	7367616c 	cmnvc	r7, #108, 2
     7b0:	73695f00 	cmnvc	r9, #0, 30
     7b4:	6178635f 	cmnvs	r8, pc, asr r3
     7b8:	74735f00 	ldrbtvc	r5, [r3], #-3840	; 0xf00
     7bc:	006e6964 	rsbeq	r6, lr, r4, ror #18
     7c0:	6e755f5f 	mrcvs	15, 3, r5, cr5, cr15, {2}
     7c4:	64657375 	strbtvs	r7, [r5], #-885	; 0x375
     7c8:	625f0030 	subsvs	r0, pc, #48	; 0x30
     7cc:	69736b6c 	ldmdbvs	r3!, {r2, r3, r5, r6, r8, r9, fp, sp, lr}^
     7d0:	5f00657a 	svcpl	0x0000657a
     7d4:	756e755f 	strbvc	r7, [lr, #-1375]!	; 0x55f
     7d8:	32646573 	rsbcc	r6, r4, #482344960	; 0x1cc00000
     7dc:	755f5f00 	ldrbvc	r5, [pc, #-3840]	; fffff8e4 <__bss_end__+0xffff57dc>
     7e0:	6573756e 	ldrbvs	r7, [r3, #-1390]!	; 0x56e
     7e4:	5f003364 	svcpl	0x00003364
     7e8:	62747663 	rsbsvs	r7, r4, #103809024	; 0x6300000
     7ec:	5f006675 	svcpl	0x00006675
     7f0:	7366666f 	cmnvc	r6, #116391936	; 0x6f00000
     7f4:	73007465 	movwvc	r7, #1125	; 0x465
     7f8:	74666968 	strbtvc	r6, [r6], #-2408	; 0x968
     7fc:	626d5f00 	rsbvs	r5, sp, #0, 30
     800:	6f747273 	svcvs	0x00747273
     804:	5f736377 	svcpl	0x00736377
     808:	74617473 	strbtvc	r7, [r1], #-1139	; 0x473
     80c:	6d5f0065 	ldclvs	0, cr0, [pc, #-404]	; 680 <_start-0x7980>
     810:	656c7262 	strbvs	r7, [ip, #-610]!	; 0x262
     814:	74735f6e 	ldrbtvc	r5, [r3], #-3950	; 0xf6e
     818:	00657461 	rsbeq	r7, r5, r1, ror #8
     81c:	616e665f 	cmnvs	lr, pc, asr r6
     820:	00736772 	rsbseq	r6, r3, r2, ror r7
     824:	736e665f 	cmnvc	lr, #99614720	; 0x5f00000
     828:	63326900 	teqvs	r2, #0, 18
     82c:	5f00632e 	svcpl	0x0000632e
     830:	6e676973 	mcrvs	9, 3, r6, cr7, cr3, {3}
     834:	61657200 	cmnvs	r5, r0, lsl #4
     838:	00635f64 	rsbeq	r5, r3, r4, ror #30
     83c:	6f6c665f 	svcvs	0x006c665f
     840:	745f6b63 	ldrbvc	r6, [pc], #-2915	; 848 <_start-0x77b8>
     844:	74735f00 	ldrbtvc	r5, [r3], #-3840	; 0xf00
     848:	72726564 	rsbsvc	r6, r2, #100, 10	; 0x19000000
     84c:	69425f00 	stmdbvs	r2, {r8, r9, sl, fp, ip, lr}^
     850:	746e6967 	strbtvc	r6, [lr], #-2407	; 0x967
     854:	61675f00 	cmnvs	r7, r0, lsl #30
     858:	5f616d6d 	svcpl	0x00616d6d
     85c:	6e676973 	mcrvs	9, 3, r6, cr7, cr3, {3}
     860:	006d6167 	rsbeq	r6, sp, r7, ror #2
     864:	7365725f 	cmnvc	r5, #-268435451	; 0xf0000005
     868:	5f746c75 	svcpl	0x00746c75
     86c:	7072006b 	rsbsvc	r0, r2, fp, rrx
     870:	75705f69 	ldrbvc	r5, [r0, #-3945]!	; 0xf69
     874:	61686374 	smcvs	34356	; 0x8634
     878:	5f5f0072 	svcpl	0x005f0072
     87c:	72006d74 	andvc	r6, r0, #116, 26	; 0x1d00
     880:	5f646165 	svcpl	0x00646165
     884:	5f5f0073 	svcpl	0x005f0073
     888:	62686377 	rsbvs	r6, r8, #-603979775	; 0xdc000001
     88c:	74735f00 	ldrbtvc	r5, [r3], #-3840	; 0xf00
     890:	74756f64 	ldrbtvc	r6, [r5], #-3940	; 0xf64
     894:	61657200 	cmnvs	r5, r0, lsl #4
     898:	00705f64 	rsbseq	r5, r0, r4, ror #30
     89c:	7476635f 	ldrbtvc	r6, [r6], #-863	; 0x35f
     8a0:	006e656c 	rsbeq	r6, lr, ip, ror #10
     8a4:	6c69665f 	stclvs	6, cr6, [r9], #-380	; 0xfffffe84
     8a8:	6e5f0065 	cdpvs	0, 5, cr0, cr15, cr5, {3}
     8ac:	73626f69 	cmnvc	r2, #420	; 0x1a4
     8b0:	696e6900 	stmdbvs	lr!, {r8, fp, sp, lr}^
     8b4:	6c616974 	stclvs	9, cr6, [r1], #-464	; 0xfffffe30
     8b8:	64657a69 	strbtvs	r7, [r5], #-2665	; 0xa69
     8bc:	7300705f 	movwvc	r7, #95	; 0x5f
     8c0:	615f7465 	cmpvs	pc, r5, ror #8
     8c4:	63006c6c 	movwvs	r6, #3180	; 0xc6c
     8c8:	6b636f6c 	blvs	18dc680 <__bss_end__+0x18d2578>
     8cc:	7669645f 			; <UNDEFINED> instruction: 0x7669645f
     8d0:	74615f00 	strbtvc	r5, [r1], #-3840	; 0xf00
     8d4:	74697865 	strbtvc	r7, [r9], #-2149	; 0x865
     8d8:	65720030 	ldrbvs	r0, [r2, #-48]!	; 0x30
     8dc:	5f746573 	svcpl	0x00746573
     8e0:	74617473 	strbtvc	r7, [r1], #-1139	; 0x473
     8e4:	5f007375 	svcpl	0x00007375
     8e8:	6e676973 	mcrvs	9, 3, r6, cr7, cr3, {3}
     8ec:	625f6c61 	subsvs	r6, pc, #24832	; 0x6100
     8f0:	5f006675 	svcpl	0x00006675
     8f4:	74637361 	strbtvc	r7, [r3], #-865	; 0x361
     8f8:	5f656d69 	svcpl	0x00656d69
     8fc:	00667562 	rsbeq	r7, r6, r2, ror #10
     900:	5f633269 	svcpl	0x00633269
     904:	74696e69 	strbtvc	r6, [r9], #-3689	; 0xe69
     908:	636e6f5f 	cmnvs	lr, #380	; 0x17c
     90c:	725f0065 	subsvc	r0, pc, #101	; 0x65
     910:	6c757365 	ldclvs	3, cr7, [r5], #-404	; 0xfffffe6c
     914:	5f5f0074 	svcpl	0x005f0074
     918:	00686377 	rsbeq	r6, r8, r7, ror r3
     91c:	4f495047 	svcmi	0x00495047
     920:	4e55465f 	mrcmi	6, 2, r4, cr5, cr15, {2}
     924:	4c415f43 	mcrrmi	15, 4, r5, r1, cr3
     928:	77003254 	smlsdvc	r0, r4, r2, r3
     92c:	5f746e69 	svcpl	0x00746e69
     930:	6c5f0074 	mrrcvs	0, 7, r0, pc, cr4	; <UNPREDICTABLE>
     934:	006b636f 	rsbeq	r6, fp, pc, ror #6
     938:	616c665f 	cmnvs	ip, pc, asr r6
     93c:	00327367 	eorseq	r7, r2, r7, ror #6
     940:	6d745f5f 	ldclvs	15, cr5, [r4, #-380]!	; 0xfffffe84
     944:	6165795f 	cmnvs	r5, pc, asr r9
     948:	6e690072 	mcrvs	0, 3, r0, cr9, cr2, {3}
     94c:	5f006474 	svcpl	0x00006474
     950:	6c616d6e 	stclvs	13, cr6, [r1], #-440	; 0xfffffe48
     954:	00636f6c 	rsbeq	r6, r3, ip, ror #30
     958:	72746e69 	rsbsvc	r6, r4, #1680	; 0x690
     95c:	746e6900 	strbtvc	r6, [lr], #-2304	; 0x900
     960:	68630074 	stmdavs	r3!, {r2, r4, r5, r6}^
     964:	5f6b6365 	svcpl	0x006b6365
     968:	6f79616c 	svcvs	0x0079616c
     96c:	5f007475 	svcpl	0x00007475
     970:	7478656e 	ldrbtvc	r6, [r8], #-1390	; 0x56e
     974:	32690066 	rsbcc	r0, r9, #102	; 0x66
     978:	006e6563 	rsbeq	r6, lr, r3, ror #10
     97c:	6d745f5f 	ldclvs	15, cr5, [r4, #-380]!	; 0xfffffe84
     980:	6e6f6d5f 	mcrvs	13, 3, r6, cr15, cr15, {2}
     984:	74615f00 	strbtvc	r5, [r1], #-3840	; 0xf00
     988:	74697865 	strbtvc	r7, [r9], #-2149	; 0x865
     98c:	735f5f00 	cmpvc	pc, #0, 30
     990:	69646964 	stmdbvs	r4!, {r2, r5, r6, r8, fp, sp, lr}^
     994:	0074696e 	rsbseq	r6, r4, lr, ror #18
     998:	66666f5f 	uqsaxvs	r6, r6, pc	; <UNPREDICTABLE>
     99c:	5f00745f 	svcpl	0x0000745f
     9a0:	65657266 	strbvs	r7, [r5, #-614]!	; 0x266
     9a4:	7473696c 	ldrbtvc	r6, [r3], #-2412	; 0x96c
     9a8:	79626e00 	stmdbvc	r2!, {r9, sl, fp, sp, lr}^
     9ac:	00736574 	rsbseq	r6, r3, r4, ror r5
     9b0:	6e656c64 	cdpvs	12, 6, cr6, cr5, cr4, {3}
     9b4:	4f4c5f00 	svcmi	0x004c5f00
     9b8:	525f4b43 	subspl	r4, pc, #68608	; 0x10c00
     9bc:	52554345 	subspl	r4, r5, #335544321	; 0x14000001
     9c0:	45564953 	ldrbmi	r4, [r6, #-2387]	; 0x953
     9c4:	5f00545f 	svcpl	0x0000545f
     9c8:	0077656e 	rsbseq	r6, r7, lr, ror #10
     9cc:	655f685f 	ldrbvs	r6, [pc, #-2143]	; 175 <_start-0x7e8b>
     9d0:	6f6e7272 	svcvs	0x006e7272
     9d4:	745f5f00 	ldrbvc	r5, [pc], #-3840	; 9dc <_start-0x7624>
     9d8:	64795f6d 	ldrbtvs	r5, [r9], #-3949	; 0xf6d
     9dc:	5f007961 	svcpl	0x00007961
     9e0:	7562735f 	strbvc	r7, [r2, #-863]!	; 0x35f
     9e4:	695f0066 	ldmdbvs	pc, {r1, r2, r5, r6}^	; <UNPREDICTABLE>
     9e8:	0073626f 	rsbseq	r6, r3, pc, ror #4
     9ec:	49465f5f 	stmdbmi	r6, {r0, r1, r2, r3, r4, r6, r8, r9, sl, fp, ip, lr}^
     9f0:	5f00454c 	svcpl	0x0000454c
     9f4:	7473626d 	ldrbtvc	r6, [r3], #-621	; 0x26d
     9f8:	5f657461 	svcpl	0x00657461
     9fc:	5f5f0074 	svcpl	0x005f0074
     a00:	4c494673 	mcrrmi	6, 7, r4, r9, cr3
     a04:	6d5f0045 	ldclvs	0, cr0, [pc, #-276]	; 8f8 <_start-0x7708>
     a08:	61747362 	cmnvs	r4, r2, ror #6
     a0c:	5f006574 	svcpl	0x00006574
     a10:	646e6172 	strbtvs	r6, [lr], #-370	; 0x172
     a14:	78656e5f 	stmdavc	r5!, {r0, r1, r2, r3, r4, r6, r9, sl, fp, sp, lr}^
     a18:	6c630074 	stclvs	0, cr0, [r3], #-464	; 0xfffffe30
     a1c:	5f6b636f 	svcpl	0x006b636f
     a20:	616c6564 	cmnvs	ip, r4, ror #10
     a24:	6d5f0079 	ldclvs	0, cr0, [pc, #-484]	; 848 <_start-0x77b8>
     a28:	6e656c62 	cdpvs	12, 6, cr6, cr5, cr2, {3}
     a2c:	6174735f 	cmnvs	r4, pc, asr r3
     a30:	5f006574 	svcpl	0x00006574
     a34:	00636e69 	rsbeq	r6, r3, r9, ror #28
     a38:	646e695f 	strbtvs	r6, [lr], #-2399	; 0x95f
     a3c:	75635f00 	strbvc	r5, [r3, #-3840]!	; 0xf00
     a40:	6e657272 	mcrvs	2, 3, r7, cr5, cr2, {3}
     a44:	6f6c5f74 	svcvs	0x006c5f74
     a48:	656c6163 	strbvs	r6, [ip, #-355]!	; 0x163
     a4c:	635f5f00 	cmpvs	pc, #0, 30
     a50:	6e61656c 	cdpvs	5, 6, cr6, cr1, cr12, {3}
     a54:	5f007075 	svcpl	0x00007075
     a58:	7778616d 	ldrbvc	r6, [r8, -sp, ror #2]!
     a5c:	5f007364 	svcpl	0x00007364
     a60:	6e656572 	mcrvs	5, 3, r6, cr5, cr2, {3}
     a64:	735f0074 	cmpvc	pc, #116	; 0x74
     a68:	00646565 	rsbeq	r6, r4, r5, ror #10
     a6c:	6f635f5f 	svcvs	0x00635f5f
     a70:	00746e75 	rsbseq	r6, r4, r5, ror lr
     a74:	746e6f63 	strbtvc	r6, [lr], #-3939	; 0xf63
     a78:	006c6f72 	rsbeq	r6, ip, r2, ror pc
     a7c:	6565735f 	strbvs	r7, [r5, #-863]!	; 0x35f
     a80:	665f006b 	ldrbvs	r0, [pc], -fp, rrx
     a84:	5f736f70 	svcpl	0x00736f70
     a88:	5f5f0074 	svcpl	0x005f0074
     a8c:	6d5f6d74 	ldclvs	13, cr6, [pc, #-464]	; 8c4 <_start-0x773c>
     a90:	5f006e69 	svcpl	0x00006e69
     a94:	746c756d 	strbtvc	r7, [ip], #-1389	; 0x56d
     a98:	74757000 	ldrbtvc	r7, [r5], #-0
     a9c:	2f003233 	svccs	0x00003233
     aa0:	656d6f68 	strbvs	r6, [sp, #-3944]!	; 0xf68
     aa4:	676e652f 	strbvs	r6, [lr, -pc, lsr #10]!
     aa8:	2f72656c 	svccs	0x0072656c
     aac:	73616c63 	cmnvc	r1, #25344	; 0x6300
     ab0:	73632f73 	cmnvc	r3, #460	; 0x1cc
     ab4:	6c303432 	cfldrsvs	mvf3, [r0], #-200	; 0xffffff38
     ab8:	30322d78 	eorscc	r2, r2, r8, ror sp
     abc:	2f727073 	svccs	0x00727073
     ac0:	7362616c 	cmnvc	r2, #108, 2
     ac4:	692d382f 	pushvs	{r0, r1, r2, r3, r5, fp, ip, sp}
     ac8:	612d6332 	teqvs	sp, r2, lsr r3
     acc:	6c656363 	stclvs	3, cr6, [r5], #-396	; 0xfffffe74
     ad0:	646f632f 	strbtvs	r6, [pc], #-815	; ad8 <_start-0x7528>
     ad4:	735f0065 	cmpvc	pc, #101	; 0x65
     ad8:	6f747274 	svcvs	0x00747274
     adc:	616c5f6b 	cmnvs	ip, fp, ror #30
     ae0:	5f007473 	svcpl	0x00007473
     ae4:	6c61765f 	stclvs	6, cr7, [r1], #-380	; 0xfffffe84
     ae8:	5f006575 	svcpl	0x00006575
     aec:	79746e66 	ldmdbvc	r4!, {r1, r2, r5, r6, r9, sl, fp, sp, lr}^
     af0:	00736570 	rsbseq	r6, r3, r0, ror r5
     af4:	6464615f 	strbtvs	r6, [r4], #-351	; 0x15f
     af8:	555f5f00 	ldrbpl	r5, [pc, #-3840]	; fffffc00 <__bss_end__+0xffff5af8>
     afc:	676e6f4c 	strbvs	r6, [lr, -ip, asr #30]!
     b00:	65675f00 	strbvs	r5, [r7, #-3840]!	; 0xf00
     b04:	74616474 	strbtvc	r6, [r1], #-1140	; 0x474
     b08:	72655f65 	rsbvc	r5, r5, #404	; 0x194
     b0c:	675f0072 			; <UNDEFINED> instruction: 0x675f0072
     b10:	61626f6c 	cmnvs	r2, ip, ror #30
     b14:	6d695f6c 	stclvs	15, cr5, [r9, #-432]!	; 0xfffffe50
     b18:	65727570 	ldrbvs	r7, [r2, #-1392]!	; 0x570
     b1c:	7274705f 	rsbsvc	r7, r4, #95	; 0x5f
     b20:	75635f00 	strbvc	r5, [r3, #-3840]!	; 0xf00
     b24:	6e657272 	mcrvs	2, 3, r7, cr5, cr2, {3}
     b28:	61635f74 	smcvs	13812	; 0x35f4
     b2c:	6f676574 	svcvs	0x00676574
     b30:	5f007972 	svcpl	0x00007972
     b34:	73756e75 	cmnvc	r5, #1872	; 0x750
     b38:	725f6465 	subsvc	r6, pc, #1694498816	; 0x65000000
     b3c:	00646e61 	rsbeq	r6, r4, r1, ror #28
     b40:	72656678 	rsbvc	r6, r5, #120, 12	; 0x7800000
     b44:	6174735f 	cmnvs	r4, pc, asr r3
     b48:	5f007472 	svcpl	0x00007472
     b4c:	00736477 	rsbseq	r6, r3, r7, ror r4
     b50:	6d745f5f 	ldclvs	15, cr5, [r4, #-380]!	; 0xfffffe84
     b54:	6164775f 	cmnvs	r4, pc, asr r7
     b58:	675f0079 			; <UNDEFINED> instruction: 0x675f0079
     b5c:	0065756c 	rsbeq	r7, r5, ip, ror #10
     b60:	4f495047 	svcmi	0x00495047
     b64:	4e55465f 	mrcmi	6, 2, r4, cr5, cr15, {2}
     b68:	554f5f43 	strbpl	r5, [pc, #-3907]	; fffffc2d <__bss_end__+0xffff5b25>
     b6c:	54555054 	ldrbpl	r5, [r5], #-84	; 0x54
     b70:	366c5f00 	strbtcc	r5, [ip], -r0, lsl #30
     b74:	625f6134 	subsvs	r6, pc, #52, 2
     b78:	67006675 	smlsdxvs	r0, r5, r6, r6
     b7c:	32337465 	eorscc	r7, r3, #1694498816	; 0x65000000
     b80:	65667800 	strbvs	r7, [r6, #-2048]!	; 0x800
     b84:	6e655f72 	mcrvs	15, 3, r5, cr5, cr2, {3}
     b88:	735f0064 	cmpvc	pc, #100	; 0x64
     b8c:	665f6769 	ldrbvs	r6, [pc], -r9, ror #14
     b90:	00636e75 	rsbeq	r6, r3, r5, ror lr
     b94:	746b6c63 	strbtvc	r6, [fp], #-3171	; 0xc63
     b98:	6c63006b 	stclvs	0, cr0, [r3], #-428	; 0xfffffe54
     b9c:	5f726165 	svcpl	0x00726165
     ba0:	50470063 	subpl	r0, r7, r3, rrx
     ba4:	465f4f49 	ldrbmi	r4, [pc], -r9, asr #30
     ba8:	5f434e55 	svcpl	0x00434e55
     bac:	30544c41 	subscc	r4, r4, r1, asr #24
     bb0:	626e5f00 	rsbvs	r5, lr, #0, 30
     bb4:	5f006675 	svcpl	0x00006675
     bb8:	73756e75 	cmnvc	r5, #1872	; 0x750
     bbc:	47006465 	strmi	r6, [r0, -r5, ror #8]
     bc0:	5f4f4950 	svcpl	0x004f4950
     bc4:	434e5546 	movtmi	r5, #58694	; 0xe546
     bc8:	544c415f 	strbpl	r4, [ip], #-351	; 0x15f
     bcc:	50470033 	subpl	r0, r7, r3, lsr r0
     bd0:	465f4f49 	ldrbmi	r4, [pc], -r9, asr #30
     bd4:	5f434e55 	svcpl	0x00434e55
     bd8:	34544c41 	ldrbcc	r4, [r4], #-3137	; 0xc41
     bdc:	49504700 	ldmdbmi	r0, {r8, r9, sl, lr}^
     be0:	55465f4f 	strbpl	r5, [r6, #-3919]	; 0xf4f
     be4:	415f434e 	cmpmi	pc, lr, asr #6
     be8:	0035544c 	eorseq	r5, r5, ip, asr #8
     bec:	6d745f5f 	ldclvs	15, cr5, [r4, #-380]!	; 0xfffffe84
     bf0:	6473695f 	ldrbtvs	r6, [r3], #-2399	; 0x95f
     bf4:	5f007473 	svcpl	0x00007473
     bf8:	61636f6c 	cmnvs	r3, ip, ror #30
     bfc:	6d69746c 	cfstrdvs	mvd7, [r9, #-432]!	; 0xfffffe50
     c00:	75625f65 	strbvc	r5, [r2, #-3941]!	; 0xf65
     c04:	635f0066 	cmpvs	pc, #102	; 0x66
     c08:	65736f6c 	ldrbvs	r6, [r3, #-3948]!	; 0xf6c
     c0c:	656c6300 	strbvs	r6, [ip, #-768]!	; 0x300
     c10:	735f7261 	cmpvc	pc, #268435462	; 0x10000006
     c14:	34725f00 	ldrbtcc	r5, [r2], #-3840	; 0xf00
     c18:	5f630038 	svcpl	0x00630038
     c1c:	69676572 	stmdbvs	r7!, {r1, r4, r5, r6, r8, sl, sp, lr}^
     c20:	72657473 	rsbvc	r7, r5, #1929379840	; 0x73000000
     c24:	626d5f00 	rsbvs	r5, sp, #0, 30
     c28:	63776f74 	cmnvs	r7, #116, 30	; 0x1d0
     c2c:	6174735f 	cmnvs	r4, pc, asr r3
     c30:	5f006574 	svcpl	0x00006574
     c34:	00733570 	rsbseq	r3, r3, r0, ror r5
     c38:	6d745f5f 	ldclvs	15, cr5, [r4, #-380]!	; 0xfffffe84
     c3c:	61646d5f 	cmnvs	r4, pc, asr sp
     c40:	5f5f0079 	svcpl	0x005f0079
     c44:	63756e67 	cmnvs	r5, #1648	; 0x670
     c48:	5f61765f 	svcpl	0x0061765f
     c4c:	7473696c 	ldrbtvc	r6, [r3], #-2412	; 0x96c
     c50:	62696c00 	rsbvs	r6, r9, #0, 24
     c54:	72702f63 	rsbsvc	r2, r0, #396	; 0x18c
     c58:	6b746e69 	blvs	1d1c604 <__bss_end__+0x1d124fc>
     c5c:	4700632e 	strmi	r6, [r0, -lr, lsr #6]
     c60:	4320554e 	teqmi	r0, #327155712	; 0x13800000
     c64:	382e3420 	stmdacc	lr!, {r5, sl, ip, sp}
     c68:	2d20332e 	stccs	3, cr3, [r0, #-184]!	; 0xffffff48
     c6c:	7570636d 	ldrbvc	r6, [r0, #-877]!	; 0x36d
     c70:	6d72613d 	ldfvse	f6, [r2, #-244]!	; 0xffffff0c
     c74:	36373131 			; <UNDEFINED> instruction: 0x36373131
     c78:	2d667a6a 	vstmdbcs	r6!, {s15-s120}
     c7c:	6d2d2073 	stcvs	0, cr2, [sp, #-460]!	; 0xfffffe34
     c80:	656e7574 	strbvs	r7, [lr, #-1396]!	; 0x574
     c84:	6d72613d 	ldfvse	f6, [r2, #-244]!	; 0xffffff0c
     c88:	36373131 			; <UNDEFINED> instruction: 0x36373131
     c8c:	2d667a6a 	vstmdbcs	r6!, {s15-s120}
     c90:	672d2073 			; <UNDEFINED> instruction: 0x672d2073
     c94:	20626467 	rsbcs	r6, r2, r7, ror #8
     c98:	20674f2d 	rsbcs	r4, r7, sp, lsr #30
     c9c:	6474732d 	ldrbtvs	r7, [r4], #-813	; 0x32d
     ca0:	756e673d 	strbvc	r6, [lr, #-1853]!	; 0x73d
     ca4:	2d203939 	stccs	9, cr3, [r0, #-228]!	; 0xffffff1c
     ca8:	65726666 	ldrbvs	r6, [r2, #-1638]!	; 0x666
     cac:	61747365 	cmnvs	r4, r5, ror #6
     cb0:	6e69646e 	cdpvs	4, 6, cr6, cr9, cr14, {3}
     cb4:	61760067 	cmnvs	r6, r7, rrx
     cb8:	6972705f 	ldmdbvs	r2!, {r0, r1, r2, r3, r4, r6, ip, sp, lr}^
     cbc:	006b746e 	rsbeq	r7, fp, lr, ror #8
     cc0:	61765f5f 	cmnvs	r6, pc, asr pc
     cc4:	73696c5f 	cmnvc	r9, #24320	; 0x5f00
     cc8:	552f0074 	strpl	r0, [pc, #-116]!	; c5c <_start-0x73a4>
     ccc:	73726573 	cmnvc	r2, #482344960	; 0x1cc00000
     cd0:	6972622f 	ldmdbvs	r2!, {r0, r1, r2, r3, r5, r9, sp, lr}^
     cd4:	756a6e61 	strbvc	r6, [sl, #-3681]!	; 0xe61
     cd8:	65442f6e 	strbvs	r2, [r4, #-3950]	; 0xf6e
     cdc:	6f746b73 	svcvs	0x00746b73
     ce0:	63732f70 	cmnvs	r3, #112, 30	; 0x1c0
     ce4:	6c6f6f68 	stclvs	15, cr6, [pc], #-416	; b4c <_start-0x74b4>
     ce8:	6e69572f 	cdpvs	7, 6, cr5, cr9, cr15, {1}
     cec:	31726574 	cmncc	r2, r4, ror r5
     cf0:	2f303239 	svccs	0x00303239
     cf4:	34315343 	ldrtcc	r5, [r1], #-835	; 0x343
     cf8:	632f4530 	teqvs	pc, #48, 10	; 0xc000000
     cfc:	30343173 	eorscc	r3, r4, r3, ror r1
     d00:	30322d65 	eorscc	r2, r2, r5, ror #26
     d04:	2f6e6977 	svccs	0x006e6977
     d08:	7062696c 	rsbvc	r6, r2, ip, ror #18
     d0c:	5f5f0069 	svcpl	0x005f0069
     d10:	75007061 	strvc	r7, [r0, #-97]	; 0x61
     d14:	5f747261 	svcpl	0x00747261
     d18:	63747570 	cmnvs	r4, #112, 10	; 0x1c000000
     d1c:	746e6900 	strbtvc	r6, [lr], #-2304	; 0x900
     d20:	616e7265 	cmnvs	lr, r5, ror #4
     d24:	75705f6c 	ldrbvc	r5, [r0, #-3948]!	; 0xf6c
     d28:	61686374 	smcvs	34356	; 0x8634
     d2c:	696c0072 	stmdbvs	ip!, {r1, r4, r5, r6}^
     d30:	702f6362 	eorvc	r6, pc, r2, ror #6
     d34:	68637475 	stmdavs	r3!, {r0, r2, r4, r5, r6, sl, ip, sp, lr}^
     d38:	632e7261 	teqvs	lr, #268435462	; 0x10000006
     d3c:	69707200 	ldmdbvs	r0!, {r9, ip, sp, lr}^
     d40:	7465735f 	strbtvc	r7, [r5], #-863	; 0x35f
     d44:	7475705f 	ldrbtvc	r7, [r5], #-95	; 0x5f
     d48:	696c0063 	stmdbvs	ip!, {r0, r1, r5, r6}^
     d4c:	702f6362 	eorvc	r6, pc, r2, ror #6
     d50:	2e6b7475 	mcrcs	4, 3, r7, cr11, cr5, {3}
     d54:	6e690063 	cdpvs	0, 6, cr0, cr9, cr3, {3}
     d58:	6e726574 	mrcvs	5, 3, r6, cr2, cr4, {3}
     d5c:	705f6c61 	subsvc	r6, pc, r1, ror #24
     d60:	006b7475 	rsbeq	r7, fp, r5, ror r4
     d64:	5f67656e 	svcpl	0x0067656e
     d68:	65720070 	ldrbvs	r0, [r2, #-112]!	; 0x70
     d6c:	73726576 	cmnvc	r2, #494927872	; 0x1d800000
     d70:	73690065 	cmnvc	r9, #101	; 0x65
     d74:	69676964 	stmdbvs	r7!, {r2, r5, r6, r8, fp, sp, lr}^
     d78:	75700074 	ldrbvc	r0, [r0, #-116]!	; 0x74
     d7c:	665f7374 			; <UNDEFINED> instruction: 0x665f7374
     d80:	69730070 	ldmdbvs	r3!, {r4, r5, r6}^
     d84:	64656e67 	strbtvs	r6, [r5], #-3687	; 0xe67
     d88:	6c00705f 	stcvs	0, cr7, [r0], {95}	; 0x5f
     d8c:	2f636269 	svccs	0x00636269
     d90:	702d6176 	eorvc	r6, sp, r6, ror r1
     d94:	746e6972 	strbtvc	r6, [lr], #-2418	; 0x972
     d98:	00632e6b 	rsbeq	r2, r3, fp, ror #28
     d9c:	5f697072 	svcpl	0x00697072
     da0:	5f746573 	svcpl	0x00746573
     da4:	7074756f 	rsbsvc	r7, r4, pc, ror #10
     da8:	77007475 	smlsdxvc	r0, r5, r4, r7
     dac:	68746469 	ldmdavs	r4!, {r0, r3, r5, r6, sl, sp, lr}^
     db0:	74757000 	ldrbtvc	r7, [r5], #-0
     db4:	70665f63 	rsbvc	r5, r6, r3, ror #30
     db8:	696d6500 	stmdbvs	sp!, {r8, sl, sp, lr}^
     dbc:	70720074 	rsbsvc	r0, r2, r4, ror r0
     dc0:	65725f69 	ldrbvs	r5, [r2, #-3945]!	; 0xf69
     dc4:	746f6f62 	strbtvc	r6, [pc], #-3938	; dcc <_start-0x7234>
     dc8:	31736300 	cmncc	r3, r0, lsl #6
     dcc:	2d653034 	stclcs	0, cr3, [r5, #-208]!	; 0xffffff30
     dd0:	2f637273 	svccs	0x00637273
     dd4:	61656c63 	cmnvs	r5, r3, ror #24
     dd8:	65722d6e 	ldrbvs	r2, [r2, #-3438]!	; 0xd6e
     ddc:	746f6f62 	strbtvc	r6, [pc], #-3938	; de4 <_start-0x721c>
     de0:	6300632e 	movwvs	r6, #814	; 0x32e
     de4:	30343173 	eorscc	r3, r4, r3, ror r1
     de8:	72732d65 	rsbsvc	r2, r3, #6464	; 0x1940
     dec:	73632f63 	cmnvc	r3, #396	; 0x18c
     df0:	74726174 	ldrbtvc	r6, [r2], #-372	; 0x174
     df4:	5f00632e 	svcpl	0x0000632e
     df8:	7373625f 	cmnvc	r3, #-268435451	; 0xf0000005
     dfc:	6174735f 	cmnvs	r4, pc, asr r3
     e00:	5f5f7472 	svcpl	0x005f7472
     e04:	625f5f00 	subsvs	r5, pc, #0, 30
     e08:	655f7373 	ldrbvs	r7, [pc, #-883]	; a9d <_start-0x7563>
     e0c:	5f5f646e 	svcpl	0x005f646e
     e10:	73736200 	cmnvc	r3, #0, 4
     e14:	646e655f 	strbtvs	r6, [lr], #-1375	; 0x55f
     e18:	73635f00 	cmnvc	r3, #0, 30
     e1c:	74726174 	ldrbtvc	r6, [r2], #-372	; 0x174
     e20:	5f746100 	svcpl	0x00746100
     e24:	72657375 	rsbvc	r7, r5, #-738197503	; 0xd4000001
     e28:	76656c5f 			; <UNDEFINED> instruction: 0x76656c5f
     e2c:	50006c65 	andpl	r6, r0, r5, ror #24
     e30:	41505f4d 	cmpmi	r0, sp, asr #30
     e34:	4f575353 	svcmi	0x00575353
     e38:	63004452 	movwvs	r4, #1106	; 0x452
     e3c:	30343173 	eorscc	r3, r4, r3, ror r1
     e40:	72732d65 	rsbsvc	r2, r3, #6464	; 0x1940
     e44:	65722f63 	ldrbvs	r2, [r2, #-3939]!	; 0xf63
     e48:	746f6f62 	strbtvc	r6, [pc], #-3938	; e50 <_start-0x71b0>
     e4c:	5000632e 	andpl	r6, r0, lr, lsr #6
     e50:	53525f4d 	cmppl	r2, #308	; 0x134
     e54:	575f4354 			; <UNDEFINED> instruction: 0x575f4354
     e58:	47464352 	smlsldmi	r4, r6, r2, r3
     e5c:	4c55465f 	mrrcmi	6, 5, r4, r5, cr15
     e60:	45525f4c 	ldrbmi	r5, [r2, #-3916]	; 0xf4c
     e64:	00544553 	subseq	r4, r4, r3, asr r5
     e68:	575f4d50 			; <UNDEFINED> instruction: 0x575f4d50
     e6c:	00474f44 	subeq	r4, r7, r4, asr #30
     e70:	5f746573 	svcpl	0x00746573
     e74:	72657375 	rsbvc	r7, r5, #-738197503	; 0xd4000001
     e78:	76656c5f 			; <UNDEFINED> instruction: 0x76656c5f
     e7c:	50006c65 	andpl	r6, r0, r5, ror #24
     e80:	32335455 	eorscc	r5, r3, #1426063360	; 0x55000000
     e84:	5f4d5000 	svcpl	0x004d5000
     e88:	43545352 	cmpmi	r4, #1207959553	; 0x48000001
     e8c:	73706300 	cmnvc	r0, #0, 6
     e90:	69740072 	ldmdbvs	r4!, {r1, r4, r5, r6}^
     e94:	5f72656d 	svcpl	0x0072656d
     e98:	5f746567 	svcpl	0x00746567
     e9c:	63657375 	cmnvs	r5, #-738197503	; 0xd4000001
     ea0:	7761725f 			; <UNDEFINED> instruction: 0x7761725f
     ea4:	6c656400 	cfstrdvs	mvd6, [r5], #-0
     ea8:	735f7961 	cmpvc	pc, #1589248	; 0x184000
     eac:	63006365 	movwvs	r6, #869	; 0x365
     eb0:	30343173 	eorscc	r3, r4, r3, ror r1
     eb4:	72732d65 	rsbsvc	r2, r3, #6464	; 0x1940
     eb8:	69742f63 	ldmdbvs	r4!, {r0, r1, r5, r6, r8, r9, sl, fp, sp}^
     ebc:	2e72656d 	cdpcs	5, 7, cr6, cr2, cr13, {3}
     ec0:	45470063 	strbmi	r0, [r7, #-99]	; 0x63
     ec4:	00323354 	eorseq	r3, r2, r4, asr r3
     ec8:	6b636974 	blvs	18db4a0 <__bss_end__+0x18d1398>
     ecc:	65640073 	strbvs	r0, [r4, #-115]!	; 0x73
     ed0:	5f79616c 	svcpl	0x0079616c
     ed4:	6c637963 	stclvs	9, cr7, [r3], #-396	; 0xfffffe74
     ed8:	64007365 	strvs	r7, [r0], #-869	; 0x365
     edc:	79616c65 	stmdbvc	r1!, {r0, r2, r5, r6, sl, fp, sp, lr}^
     ee0:	0073755f 	rsbseq	r7, r3, pc, asr r5
     ee4:	656d6974 	strbvs	r6, [sp, #-2420]!	; 0x974
     ee8:	65675f72 	strbvs	r5, [r7, #-3954]!	; 0xf72
     eec:	73755f74 	cmnvc	r5, #116, 30	; 0x1d0
     ef0:	67006365 	strvs	r6, [r0, -r5, ror #6]
     ef4:	5f6f6970 	svcpl	0x006f6970
     ef8:	6e657665 	cdpvs	6, 6, cr7, cr5, cr5, {3}
     efc:	65645f74 	strbvs	r5, [r4, #-3956]!	; 0xf74
     f00:	74636574 	strbtvc	r6, [r3], #-1396	; 0x574
     f04:	47006465 	strmi	r6, [r0, -r5, ror #8]
     f08:	45534650 	ldrbmi	r4, [r3, #-1616]	; 0x650
     f0c:	4700324c 	strmi	r3, [r0, -ip, asr #4]
     f10:	524c4350 	subpl	r4, ip, #80, 6	; 0x40000001
     f14:	4e450030 	mcrmi	0, 2, r0, cr5, cr0, {1}
     f18:	454c4241 	strbmi	r4, [ip, #-577]	; 0x241
     f1c:	5152495f 	cmppl	r2, pc, asr r9
     f20:	00325f53 	eorseq	r5, r2, r3, asr pc
     f24:	675f7369 	ldrbvs	r7, [pc, -r9, ror #6]
     f28:	5f6f6970 	svcpl	0x006f6970
     f2c:	00746e69 	rsbseq	r6, r4, r9, ror #28
     f30:	6f697067 	svcvs	0x00697067
     f34:	7465735f 	strbtvc	r7, [r5], #-863	; 0x35f
     f38:	66666f5f 	uqsaxvs	r6, r6, pc	; <UNPREDICTABLE>
     f3c:	2d796d00 	ldclcs	13, cr6, [r9, #-0]
     f40:	2f637273 	svccs	0x00637273
     f44:	6f697067 	svcvs	0x00697067
     f48:	6900632e 	stmdbvs	r0, {r1, r2, r3, r5, r8, r9, sp, lr}
     f4c:	6d5f746e 	cfldrdvs	mvd7, [pc, #-440]	; d9c <_start-0x7264>
     f50:	006b7361 	rsbeq	r7, fp, r1, ror #6
     f54:	45535047 	ldrbmi	r5, [r3, #-71]	; 0x47
     f58:	47003054 	smlsdmi	r0, r4, r0, r3
     f5c:	54455350 	strbpl	r5, [r5], #-848	; 0x350
     f60:	65720031 	ldrbvs	r0, [r2, #-49]!	; 0x31
     f64:	74735f67 	ldrbtvc	r5, [r3], #-3943	; 0xf67
     f68:	47007461 	strmi	r7, [r0, -r1, ror #8]
     f6c:	56454c50 			; <UNDEFINED> instruction: 0x56454c50
     f70:	50470030 	subpl	r0, r7, r0, lsr r0
     f74:	3156454c 	cmpcc	r6, ip, asr #10
     f78:	69706700 	ldmdbvs	r0!, {r8, r9, sl, sp, lr}^
     f7c:	65725f6f 	ldrbvs	r5, [r2, #-3951]!	; 0xf6f
     f80:	50470067 	subpl	r0, r7, r7, rrx
     f84:	4c455346 	mcrrmi	3, 4, r5, r5, cr6
     f88:	50470030 	subpl	r0, r7, r0, lsr r0
     f8c:	4c455346 	mcrrmi	3, 4, r5, r5, cr6
     f90:	50470031 	subpl	r0, r7, r1, lsr r0
     f94:	4c455346 	mcrrmi	3, 4, r5, r5, cr6
     f98:	50470033 	subpl	r0, r7, r3, lsr r0
     f9c:	4c455346 	mcrrmi	3, 4, r5, r5, cr6
     fa0:	50470034 	subpl	r0, r7, r4, lsr r0
     fa4:	4c455346 	mcrrmi	3, 4, r5, r5, cr6
     fa8:	70670035 	rsbvc	r0, r7, r5, lsr r0
     fac:	665f6f69 	ldrbvs	r6, [pc], -r9, ror #30
     fb0:	306c6573 	rsbcc	r6, ip, r3, ror r5
     fb4:	43504700 	cmpmi	r0, #0, 14
     fb8:	0031524c 	eorseq	r5, r1, ip, asr #4
     fbc:	6f697067 	svcvs	0x00697067
     fc0:	6165725f 	cmnvs	r5, pc, asr r2
     fc4:	70670064 	rsbvc	r0, r7, r4, rrx
     fc8:	695f6f69 	ldmdbvs	pc, {r0, r3, r5, r6, r8, r9, sl, fp, sp, lr}^	; <UNPREDICTABLE>
     fcc:	725f746e 	subsvc	r7, pc, #1845493760	; 0x6e000000
     fd0:	6e697369 	cdpvs	3, 6, cr7, cr9, cr9, {3}
     fd4:	64655f67 	strbtvs	r5, [r5], #-3943	; 0xf67
     fd8:	47006567 	strmi	r6, [r0, -r7, ror #10]
     fdc:	4e455250 	mcrmi	2, 2, r5, cr5, cr0, {2}
     fe0:	50470030 	subpl	r0, r7, r0, lsr r0
     fe4:	314e4552 	cmpcc	lr, r2, asr r5
     fe8:	69706700 	ldmdbvs	r0!, {r8, r9, sl, sp, lr}^
     fec:	76655f6f 	strbtvc	r5, [r5], -pc, ror #30
     ff0:	5f746e65 	svcpl	0x00746e65
     ff4:	61656c63 	cmnvs	r5, r3, ror #24
     ff8:	52490072 	subpl	r0, r9, #114	; 0x72
     ffc:	45505f51 	ldrbmi	r5, [r0, #-3921]	; 0xf51
    1000:	4e49444e 	cdpmi	4, 4, cr4, cr9, cr14, {2}
    1004:	00315f47 	eorseq	r5, r1, r7, asr #30
    1008:	5f515249 	svcpl	0x00515249
    100c:	444e4550 	strbmi	r4, [lr], #-1360	; 0x550
    1010:	5f474e49 	svcpl	0x00474e49
    1014:	69620032 	stmdbvs	r2!, {r1, r4, r5}^
    1018:	73616d74 	cmnvc	r1, #116, 26	; 0x1d00
    101c:	7067006b 	rsbvc	r0, r7, fp, rrx
    1020:	775f6f69 	ldrbvc	r6, [pc, -r9, ror #30]
    1024:	65746972 	ldrbvs	r6, [r4, #-2418]!	; 0x972
    1028:	69706700 	ldmdbvs	r0!, {r8, r9, sl, sp, lr}^
    102c:	65735f6f 	ldrbvs	r5, [r3, #-3951]!	; 0xf6f
    1030:	67003074 	smlsdxvs	r0, r4, r0, r3
    1034:	5f6f6970 	svcpl	0x006f6970
    1038:	5f746573 	svcpl	0x00746573
    103c:	75706e69 	ldrbvc	r6, [r0, #-3689]!	; 0xe69
    1040:	70670074 	rsbvc	r0, r7, r4, ror r0
    1044:	745f6f69 	ldrbvc	r6, [pc], #-3945	; 104c <_start-0x6fb4>
    1048:	6c67676f 	stclvs	7, cr6, [r7], #-444	; 0xfffffe44
    104c:	50470065 	subpl	r0, r7, r5, rrx
    1050:	30534445 	subscc	r4, r3, r5, asr #8
    1054:	45504700 	ldrbmi	r4, [r0, #-1792]	; 0x700
    1058:	00315344 	eorseq	r5, r1, r4, asr #6
    105c:	6f697067 	svcvs	0x00697067
    1060:	7465735f 	strbtvc	r7, [r5], #-863	; 0x35f
    1064:	006e6f5f 	rsbeq	r6, lr, pc, asr pc
    1068:	45465047 	strbmi	r5, [r6, #-71]	; 0x47
    106c:	4700304e 	strmi	r3, [r0, -lr, asr #32]
    1070:	4e454650 	mcrmi	6, 2, r4, cr5, cr0, {2}
    1074:	70670031 	rsbvc	r0, r7, r1, lsr r0
    1078:	735f6f69 	cmpvc	pc, #420	; 0x1a4
    107c:	6f5f7465 	svcvs	0x005f7465
    1080:	75707475 	ldrbvc	r7, [r0, #-1141]!	; 0x475
    1084:	70670074 	rsbvc	r0, r7, r4, ror r0
    1088:	695f6f69 	ldmdbvs	pc, {r0, r3, r5, r6, r8, r9, sl, fp, sp, lr}^	; <UNPREDICTABLE>
    108c:	665f746e 	ldrbvs	r7, [pc], -lr, ror #8
    1090:	696c6c61 	stmdbvs	ip!, {r0, r5, r6, sl, fp, sp, lr}^
    1094:	655f676e 	ldrbvs	r6, [pc, #-1902]	; 92e <_start-0x76d2>
    1098:	00656764 	rsbeq	r6, r5, r4, ror #14
    109c:	6f697067 	svcvs	0x00697067
    10a0:	6e75665f 	mrcvs	6, 3, r6, cr5, cr15, {2}
    10a4:	00745f63 	rsbseq	r5, r4, r3, ror #30
    10a8:	5f676572 	svcpl	0x00676572
    10ac:	656c6573 	strbvs	r6, [ip, #-1395]!	; 0x573
    10b0:	67007463 	strvs	r7, [r0, -r3, ror #8]
    10b4:	5f6f6970 	svcpl	0x006f6970
    10b8:	30726c63 	rsbscc	r6, r2, r3, ror #24
    10bc:	58554100 	ldmdapl	r5, {r8, lr}^
    10c0:	5f554d5f 	svcpl	0x00554d5f
    10c4:	5f52434d 	svcpl	0x0052434d
    10c8:	00474552 	subeq	r4, r7, r2, asr r5
    10cc:	5f585541 	svcpl	0x00585541
    10d0:	495f554d 	ldmdbmi	pc, {r0, r2, r3, r6, r8, sl, ip, lr}^	; <UNPREDICTABLE>
    10d4:	45525f4f 	ldrbmi	r5, [r2, #-3919]	; 0xf4f
    10d8:	55410047 	strbpl	r0, [r1, #-71]	; 0x47
    10dc:	554d5f58 	strbpl	r5, [sp, #-3928]	; 0xf58
    10e0:	52534d5f 	subspl	r4, r3, #6080	; 0x17c0
    10e4:	4745525f 	smlsldmi	r5, r5, pc, r2	; <UNPREDICTABLE>
    10e8:	72617500 	rsbvc	r7, r1, #0, 10
    10ec:	61635f74 	smcvs	13812	; 0x35f4
    10f0:	65675f6e 	strbvs	r5, [r7, #-3950]!	; 0xf6e
    10f4:	41006374 	tstmi	r0, r4, ror r3
    10f8:	4d5f5855 	ldclmi	8, cr5, [pc, #-340]	; fac <_start-0x7054>
    10fc:	4e435f55 	mcrmi	15, 2, r5, cr3, cr5, {2}
    1100:	525f4c54 	subspl	r4, pc, #84, 24	; 0x5400
    1104:	75004745 	strvc	r4, [r0, #-1861]	; 0x745
    1108:	5f747261 	svcpl	0x00747261
    110c:	5f736168 	svcpl	0x00736168
    1110:	61746164 	cmnvs	r4, r4, ror #2
    1114:	58554100 	ldmdapl	r5, {r8, lr}^
    1118:	5f554d5f 	svcpl	0x00554d5f
    111c:	5f524549 	svcpl	0x00524549
    1120:	00474552 	subeq	r4, r7, r2, asr r5
    1124:	74726175 	ldrbtvc	r6, [r2], #-373	; 0x175
    1128:	7465675f 	strbtvc	r6, [r5], #-1887	; 0x75f
    112c:	55410063 	strbpl	r0, [r1, #-99]	; 0x63
    1130:	554d5f58 	strbpl	r5, [sp, #-3928]	; 0xf58
    1134:	5249495f 	subpl	r4, r9, #1556480	; 0x17c000
    1138:	4745525f 	smlsldmi	r5, r5, pc, r2	; <UNPREDICTABLE>
    113c:	72617500 	rsbvc	r7, r1, #0, 10
    1140:	61635f74 	smcvs	13812	; 0x35f4
    1144:	75705f6e 	ldrbvc	r5, [r0, #-3950]!	; 0xf6e
    1148:	41006374 	tstmi	r0, r4, ror r3
    114c:	455f5855 	ldrbmi	r5, [pc, #-2133]	; 8ff <_start-0x7701>
    1150:	4c42414e 	stfmie	f4, [r2], {78}	; 0x4e
    1154:	41005345 	tstmi	r0, r5, asr #6
    1158:	495f5855 	ldmdbmi	pc, {r0, r2, r4, r6, fp, ip, lr}^	; <UNPREDICTABLE>
    115c:	41005152 	tstmi	r0, r2, asr r1
    1160:	4d5f5855 	ldclmi	8, cr5, [pc, #-340]	; 1014 <_start-0x6fec>
    1164:	41425f55 	cmpmi	r2, r5, asr pc
    1168:	525f4455 	subspl	r4, pc, #1426063360	; 0x55000000
    116c:	41004745 	tstmi	r0, r5, asr #14
    1170:	4d5f5855 	ldclmi	8, cr5, [pc, #-340]	; 1024 <_start-0x6fdc>
    1174:	54535f55 	ldrbpl	r5, [r3], #-3925	; 0xf55
    1178:	525f5441 	subspl	r5, pc, #1090519040	; 0x41000000
    117c:	41004745 	tstmi	r0, r5, asr #14
    1180:	4d5f5855 	ldclmi	8, cr5, [pc, #-340]	; 1034 <_start-0x6fcc>
    1184:	43535f55 	cmpmi	r3, #340	; 0x154
    1188:	43544152 	cmpmi	r4, #-2147483628	; 0x80000014
    118c:	796d0048 	stmdbvc	sp!, {r3, r6}^
    1190:	6372732d 	cmnvs	r2, #-1275068416	; 0xb4000000
    1194:	7261752f 	rsbvc	r7, r1, #197132288	; 0xbc00000
    1198:	00632e74 	rsbeq	r2, r3, r4, ror lr
    119c:	5f585541 	svcpl	0x00585541
    11a0:	4c5f554d 	cfldr64mi	mvdx5, [pc], {77}	; 0x4d
    11a4:	525f5243 	subspl	r5, pc, #805306372	; 0x30000004
    11a8:	41004745 	tstmi	r0, r5, asr #14
    11ac:	4d5f5855 	ldclmi	8, cr5, [pc, #-340]	; 1060 <_start-0x6fa0>
    11b0:	534c5f55 	movtpl	r5, #53077	; 0xcf55
    11b4:	45525f52 	ldrbmi	r5, [r2, #-3922]	; 0xf52
    11b8:	61750047 	cmnvs	r5, r7, asr #32
    11bc:	675f7472 			; <UNDEFINED> instruction: 0x675f7472
    11c0:	5f637465 	svcpl	0x00637465
    11c4:	6e797361 	cdpvs	3, 7, cr7, cr9, cr1, {3}
    11c8:	Address 0x00000000000011c8 is out of bounds.


Disassembly of section .debug_frame:

00000000 <.debug_frame>:
   0:	0000000c 	andeq	r0, r0, ip
   4:	ffffffff 			; <UNDEFINED> instruction: 0xffffffff
   8:	7c020001 	stcvc	0, cr0, [r2], {1}
   c:	000d0c0e 	andeq	r0, sp, lr, lsl #24
  10:	00000014 	andeq	r0, r0, r4, lsl r0
  14:	00000000 	andeq	r0, r0, r0
  18:	00008010 	andeq	r8, r0, r0, lsl r0
  1c:	0000002c 	andeq	r0, r0, ip, lsr #32
  20:	83080e42 	movwhi	r0, #36418	; 0x8e42
  24:	00018e02 	andeq	r8, r1, r2, lsl #28
  28:	00000014 	andeq	r0, r0, r4, lsl r0
  2c:	00000000 	andeq	r0, r0, r0
  30:	0000803c 	andeq	r8, r0, ip, lsr r0
  34:	0000002c 	andeq	r0, r0, ip, lsr #32
  38:	83080e42 	movwhi	r0, #36418	; 0x8e42
  3c:	00018e02 	andeq	r8, r1, r2, lsl #28
  40:	00000014 	andeq	r0, r0, r4, lsl r0
  44:	00000000 	andeq	r0, r0, r0
  48:	00008068 	andeq	r8, r0, r8, rrx
  4c:	00000010 	andeq	r0, r0, r0, lsl r0
  50:	83080e42 	movwhi	r0, #36418	; 0x8e42
  54:	00018e02 	andeq	r8, r1, r2, lsl #28
  58:	00000018 	andeq	r0, r0, r8, lsl r0
  5c:	00000000 	andeq	r0, r0, r0
  60:	00008078 	andeq	r8, r0, r8, ror r0
  64:	0000003c 	andeq	r0, r0, ip, lsr r0
  68:	84080e42 	strhi	r0, [r8], #-3650	; 0xe42
  6c:	42018e02 	andmi	r8, r1, #2, 28
  70:	0000180e 	andeq	r1, r0, lr, lsl #16
  74:	00000014 	andeq	r0, r0, r4, lsl r0
  78:	00000000 	andeq	r0, r0, r0
  7c:	000080b4 	strheq	r8, [r0], -r4
  80:	00000024 	andeq	r0, r0, r4, lsr #32
  84:	8e040e42 	cdphi	14, 0, cr0, cr4, cr2, {2}
  88:	100e4201 	andne	r4, lr, r1, lsl #4
  8c:	0000001c 	andeq	r0, r0, ip, lsl r0
  90:	00000000 	andeq	r0, r0, r0
  94:	000080d8 	ldrdeq	r8, [r0], -r8	; <UNPREDICTABLE>
  98:	00000040 	andeq	r0, r0, r0, asr #32
  9c:	84100e42 	ldrhi	r0, [r0], #-3650	; 0xe42
  a0:	86038504 	strhi	r8, [r3], -r4, lsl #10
  a4:	42018e02 	andmi	r8, r1, #2, 28
  a8:	0000180e 	andeq	r1, r0, lr, lsl #16
  ac:	00000018 	andeq	r0, r0, r8, lsl r0
  b0:	00000000 	andeq	r0, r0, r0
  b4:	00008118 	andeq	r8, r0, r8, lsl r1
  b8:	0000001c 	andeq	r0, r0, ip, lsl r0
  bc:	42080e42 	andmi	r0, r8, #1056	; 0x420
  c0:	0483100e 	streq	r1, [r3], #14
  c4:	0000038e 	andeq	r0, r0, lr, lsl #7
  c8:	00000014 	andeq	r0, r0, r4, lsl r0
  cc:	00000000 	andeq	r0, r0, r0
  d0:	00008134 	andeq	r8, r0, r4, lsr r1
  d4:	0000002c 	andeq	r0, r0, ip, lsr #32
  d8:	83080e42 	movwhi	r0, #36418	; 0x8e42
  dc:	00018e02 	andeq	r8, r1, r2, lsl #28
  e0:	00000014 	andeq	r0, r0, r4, lsl r0
  e4:	00000000 	andeq	r0, r0, r0
  e8:	00008160 	andeq	r8, r0, r0, ror #2
  ec:	0000002c 	andeq	r0, r0, ip, lsr #32
  f0:	83080e42 	movwhi	r0, #36418	; 0x8e42
  f4:	00018e02 	andeq	r8, r1, r2, lsl #28
  f8:	0000001c 	andeq	r0, r0, ip, lsl r0
  fc:	00000000 	andeq	r0, r0, r0
 100:	0000818c 	andeq	r8, r0, ip, lsl #3
 104:	00000164 	andeq	r0, r0, r4, ror #2
 108:	84140e42 	ldrhi	r0, [r4], #-3650	; 0xe42
 10c:	86048505 	strhi	r8, [r4], -r5, lsl #10
 110:	8e028703 	cdphi	7, 0, cr8, cr2, cr3, {0}
 114:	200e4201 	andcs	r4, lr, r1, lsl #4
 118:	00000014 	andeq	r0, r0, r4, lsl r0
 11c:	00000000 	andeq	r0, r0, r0
 120:	000082f0 	strdeq	r8, [r0], -r0
 124:	00000030 	andeq	r0, r0, r0, lsr r0
 128:	8e040e42 	cdphi	14, 0, cr0, cr4, cr2, {2}
 12c:	180e4201 	stmdane	lr, {r0, r9, lr}
 130:	00000018 	andeq	r0, r0, r8, lsl r0
 134:	00000000 	andeq	r0, r0, r0
 138:	00008320 	andeq	r8, r0, r0, lsr #6
 13c:	0000007c 	andeq	r0, r0, ip, ror r0
 140:	84080e42 	strhi	r0, [r8], #-3650	; 0xe42
 144:	42018e02 	andmi	r8, r1, #2, 28
 148:	0000100e 	andeq	r1, r0, lr
 14c:	0000000c 	andeq	r0, r0, ip
 150:	ffffffff 			; <UNDEFINED> instruction: 0xffffffff
 154:	7c020001 	stcvc	0, cr0, [r2], {1}
 158:	000d0c0e 	andeq	r0, sp, lr, lsl #24
 15c:	0000000c 	andeq	r0, r0, ip
 160:	0000014c 	andeq	r0, r0, ip, asr #2
 164:	0000839c 	muleq	r0, ip, r3
 168:	00000014 	andeq	r0, r0, r4, lsl r0
 16c:	0000000c 	andeq	r0, r0, ip
 170:	0000014c 	andeq	r0, r0, ip, asr #2
 174:	000083b0 			; <UNDEFINED> instruction: 0x000083b0
 178:	0000000c 	andeq	r0, r0, ip
 17c:	00000014 	andeq	r0, r0, r4, lsl r0
 180:	0000014c 	andeq	r0, r0, ip, asr #2
 184:	000083bc 			; <UNDEFINED> instruction: 0x000083bc
 188:	00000008 	andeq	r0, r0, r8
 18c:	8e040e42 	cdphi	14, 0, cr0, cr4, cr2, {2}
 190:	00000001 	andeq	r0, r0, r1
 194:	00000014 	andeq	r0, r0, r4, lsl r0
 198:	0000014c 	andeq	r0, r0, ip, asr #2
 19c:	000083c4 	andeq	r8, r0, r4, asr #7
 1a0:	000000f0 	strdeq	r0, [r0], -r0	; <UNPREDICTABLE>
 1a4:	84080e42 	strhi	r0, [r8], #-3650	; 0xe42
 1a8:	00018e02 	andeq	r8, r1, r2, lsl #28
 1ac:	00000014 	andeq	r0, r0, r4, lsl r0
 1b0:	0000014c 	andeq	r0, r0, ip, asr #2
 1b4:	000084b4 			; <UNDEFINED> instruction: 0x000084b4
 1b8:	00000010 	andeq	r0, r0, r0, lsl r0
 1bc:	84080e42 	strhi	r0, [r8], #-3650	; 0xe42
 1c0:	00018e02 	andeq	r8, r1, r2, lsl #28
 1c4:	00000014 	andeq	r0, r0, r4, lsl r0
 1c8:	0000014c 	andeq	r0, r0, ip, asr #2
 1cc:	000084c4 	andeq	r8, r0, r4, asr #9
 1d0:	00000028 	andeq	r0, r0, r8, lsr #32
 1d4:	84080e42 	strhi	r0, [r8], #-3650	; 0xe42
 1d8:	00018e02 	andeq	r8, r1, r2, lsl #28
 1dc:	00000014 	andeq	r0, r0, r4, lsl r0
 1e0:	0000014c 	andeq	r0, r0, ip, asr #2
 1e4:	000084ec 	andeq	r8, r0, ip, ror #9
 1e8:	00000010 	andeq	r0, r0, r0, lsl r0
 1ec:	84080e42 	strhi	r0, [r8], #-3650	; 0xe42
 1f0:	00018e02 	andeq	r8, r1, r2, lsl #28
 1f4:	00000018 	andeq	r0, r0, r8, lsl r0
 1f8:	0000014c 	andeq	r0, r0, ip, asr #2
 1fc:	000084fc 	strdeq	r8, [r0], -ip
 200:	000001c8 	andeq	r0, r0, r8, asr #3
 204:	84100e42 	ldrhi	r0, [r0], #-3650	; 0xe42
 208:	86038504 	strhi	r8, [r3], -r4, lsl #10
 20c:	00018e02 	andeq	r8, r1, r2, lsl #28
 210:	00000018 	andeq	r0, r0, r8, lsl r0
 214:	0000014c 	andeq	r0, r0, ip, asr #2
 218:	000086c4 	andeq	r8, r0, r4, asr #13
 21c:	000000c4 	andeq	r0, r0, r4, asr #1
 220:	84100e42 	ldrhi	r0, [r0], #-3650	; 0xe42
 224:	86038504 	strhi	r8, [r3], -r4, lsl #10
 228:	00018e02 	andeq	r8, r1, r2, lsl #28
 22c:	00000018 	andeq	r0, r0, r8, lsl r0
 230:	0000014c 	andeq	r0, r0, ip, asr #2
 234:	00008788 	andeq	r8, r0, r8, lsl #15
 238:	000000c0 	andeq	r0, r0, r0, asr #1
 23c:	84100e42 	ldrhi	r0, [r0], #-3650	; 0xe42
 240:	86038504 	strhi	r8, [r3], -r4, lsl #10
 244:	00018e02 	andeq	r8, r1, r2, lsl #28
 248:	0000000c 	andeq	r0, r0, ip
 24c:	0000014c 	andeq	r0, r0, ip, asr #2
 250:	00008848 	andeq	r8, r0, r8, asr #16
 254:	00000010 	andeq	r0, r0, r0, lsl r0
 258:	00000014 	andeq	r0, r0, r4, lsl r0
 25c:	0000014c 	andeq	r0, r0, ip, asr #2
 260:	00008858 	andeq	r8, r0, r8, asr r8
 264:	00000094 	muleq	r0, r4, r0
 268:	84080e42 	strhi	r0, [r8], #-3650	; 0xe42
 26c:	00018e02 	andeq	r8, r1, r2, lsl #28
 270:	00000014 	andeq	r0, r0, r4, lsl r0
 274:	0000014c 	andeq	r0, r0, ip, asr #2
 278:	000088ec 	andeq	r8, r0, ip, ror #17
 27c:	00000018 	andeq	r0, r0, r8, lsl r0
 280:	84080e42 	strhi	r0, [r8], #-3650	; 0xe42
 284:	00018e02 	andeq	r8, r1, r2, lsl #28
 288:	0000000c 	andeq	r0, r0, ip
 28c:	ffffffff 			; <UNDEFINED> instruction: 0xffffffff
 290:	7c020001 	stcvc	0, cr0, [r2], {1}
 294:	000d0c0e 	andeq	r0, sp, lr, lsl #24
 298:	00000024 	andeq	r0, r0, r4, lsr #32
 29c:	00000288 	andeq	r0, r0, r8, lsl #5
 2a0:	00008904 	andeq	r8, r0, r4, lsl #18
 2a4:	00000058 	andeq	r0, r0, r8, asr r0
 2a8:	80100e42 	andshi	r0, r0, r2, asr #28
 2ac:	82038104 	andhi	r8, r3, #4, 2
 2b0:	42018302 	andmi	r8, r1, #134217728	; 0x8000000
 2b4:	07841c0e 	streq	r1, [r4, lr, lsl #24]
 2b8:	058e0685 	streq	r0, [lr, #1669]	; 0x685
 2bc:	00280e42 	eoreq	r0, r8, r2, asr #28
 2c0:	0000000c 	andeq	r0, r0, ip
 2c4:	ffffffff 			; <UNDEFINED> instruction: 0xffffffff
 2c8:	7c020001 	stcvc	0, cr0, [r2], {1}
 2cc:	000d0c0e 	andeq	r0, sp, lr, lsl #24
 2d0:	00000014 	andeq	r0, r0, r4, lsl r0
 2d4:	000002c0 	andeq	r0, r0, r0, asr #5
 2d8:	0000895c 	andeq	r8, r0, ip, asr r9
 2dc:	00000014 	andeq	r0, r0, r4, lsl r0
 2e0:	84080e42 	strhi	r0, [r8], #-3650	; 0xe42
 2e4:	00018e02 	andeq	r8, r1, r2, lsl #28
 2e8:	0000000c 	andeq	r0, r0, ip
 2ec:	000002c0 	andeq	r0, r0, r0, asr #5
 2f0:	00008970 	andeq	r8, r0, r0, ror r9
 2f4:	00000018 	andeq	r0, r0, r8, lsl r0
 2f8:	0000000c 	andeq	r0, r0, ip
 2fc:	000002c0 	andeq	r0, r0, r0, asr #5
 300:	00008988 	andeq	r8, r0, r8, lsl #19
 304:	00000010 	andeq	r0, r0, r0, lsl r0
 308:	0000000c 	andeq	r0, r0, ip
 30c:	ffffffff 			; <UNDEFINED> instruction: 0xffffffff
 310:	7c020001 	stcvc	0, cr0, [r2], {1}
 314:	000d0c0e 	andeq	r0, sp, lr, lsl #24
 318:	00000018 	andeq	r0, r0, r8, lsl r0
 31c:	00000308 	andeq	r0, r0, r8, lsl #6
 320:	00008998 	muleq	r0, r8, r9
 324:	00000034 	andeq	r0, r0, r4, lsr r0
 328:	83100e42 	tsthi	r0, #1056	; 0x420
 32c:	85038404 	strhi	r8, [r3, #-1028]	; 0x404
 330:	00018e02 	andeq	r8, r1, r2, lsl #28
 334:	0000000c 	andeq	r0, r0, ip
 338:	ffffffff 			; <UNDEFINED> instruction: 0xffffffff
 33c:	7c020001 	stcvc	0, cr0, [r2], {1}
 340:	000d0c0e 	andeq	r0, sp, lr, lsl #24
 344:	0000000c 	andeq	r0, r0, ip
 348:	00000334 	andeq	r0, r0, r4, lsr r3
 34c:	000089cc 	andeq	r8, r0, ip, asr #19
 350:	00000014 	andeq	r0, r0, r4, lsl r0
 354:	0000000c 	andeq	r0, r0, ip
 358:	00000334 	andeq	r0, r0, r4, lsr r3
 35c:	000089e0 	andeq	r8, r0, r0, ror #19
 360:	0000002c 	andeq	r0, r0, ip, lsr #32
 364:	0000000c 	andeq	r0, r0, ip
 368:	00000334 	andeq	r0, r0, r4, lsr r3
 36c:	00008a0c 	andeq	r8, r0, ip, lsl #20
 370:	00000040 	andeq	r0, r0, r0, asr #32
 374:	00000020 	andeq	r0, r0, r0, lsr #32
 378:	00000334 	andeq	r0, r0, r4, lsr r3
 37c:	00008a4c 	andeq	r8, r0, ip, asr #20
 380:	0000019c 	muleq	r0, ip, r1
 384:	84180e42 	ldrhi	r0, [r8], #-3650	; 0xe42
 388:	86058506 	strhi	r8, [r5], -r6, lsl #10
 38c:	88038704 	stmdahi	r3, {r2, r8, r9, sl, pc}
 390:	42018e02 	andmi	r8, r1, #2, 28
 394:	0000580e 	andeq	r5, r0, lr, lsl #16
 398:	00000014 	andeq	r0, r0, r4, lsl r0
 39c:	00000334 	andeq	r0, r0, r4, lsr r3
 3a0:	00008be8 	andeq	r8, r0, r8, ror #23
 3a4:	00000054 	andeq	r0, r0, r4, asr r0
 3a8:	83080e42 	movwhi	r0, #36418	; 0x8e42
 3ac:	00018e02 	andeq	r8, r1, r2, lsl #28
 3b0:	00000028 	andeq	r0, r0, r8, lsr #32
 3b4:	00000334 	andeq	r0, r0, r4, lsr r3
 3b8:	00008c3c 	andeq	r8, r0, ip, lsr ip
 3bc:	00000288 	andeq	r0, r0, r8, lsl #5
 3c0:	84240e42 	strthi	r0, [r4], #-3650	; 0xe42
 3c4:	86088509 	strhi	r8, [r8], -r9, lsl #10
 3c8:	88068707 	stmdahi	r6, {r0, r1, r2, r8, r9, sl, pc}
 3cc:	8a048905 	bhi	1227e8 <__bss_end__+0x1186e0>
 3d0:	8e028b03 	vmlahi.f64	d8, d2, d3
 3d4:	b00e4201 	andlt	r4, lr, r1, lsl #4
 3d8:	00000001 	andeq	r0, r0, r1
 3dc:	0000000c 	andeq	r0, r0, ip
 3e0:	ffffffff 			; <UNDEFINED> instruction: 0xffffffff
 3e4:	7c020001 	stcvc	0, cr0, [r2], {1}
 3e8:	000d0c0e 	andeq	r0, sp, lr, lsl #24
 3ec:	00000014 	andeq	r0, r0, r4, lsl r0
 3f0:	000003dc 	ldrdeq	r0, [r0], -ip
 3f4:	00008ec4 	andeq	r8, r0, r4, asr #29
 3f8:	00000028 	andeq	r0, r0, r8, lsr #32
 3fc:	83080e42 	movwhi	r0, #36418	; 0x8e42
 400:	00018e02 	andeq	r8, r1, r2, lsl #28
 404:	0000000c 	andeq	r0, r0, ip
 408:	ffffffff 			; <UNDEFINED> instruction: 0xffffffff
 40c:	7c020001 	stcvc	0, cr0, [r2], {1}
 410:	000d0c0e 	andeq	r0, sp, lr, lsl #24
 414:	00000014 	andeq	r0, r0, r4, lsl r0
 418:	00000404 	andeq	r0, r0, r4, lsl #8
 41c:	00008eec 	andeq	r8, r0, ip, ror #29
 420:	00000034 	andeq	r0, r0, r4, lsr r0
 424:	83080e42 	movwhi	r0, #36418	; 0x8e42
 428:	00018e02 	andeq	r8, r1, r2, lsl #28
 42c:	0000000c 	andeq	r0, r0, ip
 430:	ffffffff 			; <UNDEFINED> instruction: 0xffffffff
 434:	7c020001 	stcvc	0, cr0, [r2], {1}
 438:	000d0c0e 	andeq	r0, sp, lr, lsl #24
 43c:	0000000c 	andeq	r0, r0, ip
 440:	0000042c 	andeq	r0, r0, ip, lsr #8
 444:	00008f20 	andeq	r8, r0, r0, lsr #30
 448:	00000018 	andeq	r0, r0, r8, lsl r0
 44c:	0000000c 	andeq	r0, r0, ip
 450:	0000042c 	andeq	r0, r0, ip, lsr #8
 454:	00008f38 	andeq	r8, r0, r8, lsr pc
 458:	00000014 	andeq	r0, r0, r4, lsl r0
 45c:	00000014 	andeq	r0, r0, r4, lsl r0
 460:	0000042c 	andeq	r0, r0, ip, lsr #8
 464:	00008f4c 	andeq	r8, r0, ip, asr #30
 468:	00000048 	andeq	r0, r0, r8, asr #32
 46c:	83080e42 	movwhi	r0, #36418	; 0x8e42
 470:	00018e02 	andeq	r8, r1, r2, lsl #28
 474:	0000000c 	andeq	r0, r0, ip
 478:	ffffffff 			; <UNDEFINED> instruction: 0xffffffff
 47c:	7c020001 	stcvc	0, cr0, [r2], {1}
 480:	000d0c0e 	andeq	r0, sp, lr, lsl #24
 484:	0000000c 	andeq	r0, r0, ip
 488:	00000474 	andeq	r0, r0, r4, ror r4
 48c:	00008f94 	muleq	r0, r4, pc	; <UNPREDICTABLE>
 490:	0000001c 	andeq	r0, r0, ip, lsl r0
 494:	00000014 	andeq	r0, r0, r4, lsl r0
 498:	00000474 	andeq	r0, r0, r4, ror r4
 49c:	00008fb0 			; <UNDEFINED> instruction: 0x00008fb0
 4a0:	00000014 	andeq	r0, r0, r4, lsl r0
 4a4:	83080e42 	movwhi	r0, #36418	; 0x8e42
 4a8:	00018e02 	andeq	r8, r1, r2, lsl #28
 4ac:	00000014 	andeq	r0, r0, r4, lsl r0
 4b0:	00000474 	andeq	r0, r0, r4, ror r4
 4b4:	00008fc4 	andeq	r8, r0, r4, asr #31
 4b8:	0000000c 	andeq	r0, r0, ip
 4bc:	83080e42 	movwhi	r0, #36418	; 0x8e42
 4c0:	00018e02 	andeq	r8, r1, r2, lsl #28
 4c4:	00000018 	andeq	r0, r0, r8, lsl r0
 4c8:	00000474 	andeq	r0, r0, r4, ror r4
 4cc:	00008fd0 	ldrdeq	r8, [r0], -r0
 4d0:	00000024 	andeq	r0, r0, r4, lsr #32
 4d4:	83100e42 	tsthi	r0, #1056	; 0x420
 4d8:	85038404 	strhi	r8, [r3, #-1028]	; 0x404
 4dc:	00018e02 	andeq	r8, r1, r2, lsl #28
 4e0:	00000014 	andeq	r0, r0, r4, lsl r0
 4e4:	00000474 	andeq	r0, r0, r4, ror r4
 4e8:	00008ff4 	strdeq	r8, [r0], -r4
 4ec:	00000014 	andeq	r0, r0, r4, lsl r0
 4f0:	83080e42 	movwhi	r0, #36418	; 0x8e42
 4f4:	00018e02 	andeq	r8, r1, r2, lsl #28
 4f8:	00000014 	andeq	r0, r0, r4, lsl r0
 4fc:	00000474 	andeq	r0, r0, r4, ror r4
 500:	00009008 	andeq	r9, r0, r8
 504:	00000014 	andeq	r0, r0, r4, lsl r0
 508:	83080e42 	movwhi	r0, #36418	; 0x8e42
 50c:	00018e02 	andeq	r8, r1, r2, lsl #28
 510:	0000000c 	andeq	r0, r0, ip
 514:	ffffffff 			; <UNDEFINED> instruction: 0xffffffff
 518:	7c020001 	stcvc	0, cr0, [r2], {1}
 51c:	000d0c0e 	andeq	r0, sp, lr, lsl #24
 520:	00000018 	andeq	r0, r0, r8, lsl r0
 524:	00000510 	andeq	r0, r0, r0, lsl r5
 528:	0000901c 	andeq	r9, r0, ip, lsl r0
 52c:	000000d4 	ldrdeq	r0, [r0], -r4
 530:	83100e42 	tsthi	r0, #1056	; 0x420
 534:	85038404 	strhi	r8, [r3, #-1028]	; 0x404
 538:	00018e02 	andeq	r8, r1, r2, lsl #28
 53c:	00000014 	andeq	r0, r0, r4, lsl r0
 540:	00000510 	andeq	r0, r0, r0, lsl r5
 544:	000090f0 	strdeq	r9, [r0], -r0
 548:	00000038 	andeq	r0, r0, r8, lsr r0
 54c:	83080e42 	movwhi	r0, #36418	; 0x8e42
 550:	00018e02 	andeq	r8, r1, r2, lsl #28
 554:	00000014 	andeq	r0, r0, r4, lsl r0
 558:	00000510 	andeq	r0, r0, r0, lsl r5
 55c:	00009128 	andeq	r9, r0, r8, lsr #2
 560:	00000038 	andeq	r0, r0, r8, lsr r0
 564:	83080e42 	movwhi	r0, #36418	; 0x8e42
 568:	00018e02 	andeq	r8, r1, r2, lsl #28
 56c:	00000018 	andeq	r0, r0, r8, lsl r0
 570:	00000510 	andeq	r0, r0, r0, lsl r5
 574:	00009160 	andeq	r9, r0, r0, ror #2
 578:	000000cc 	andeq	r0, r0, ip, asr #1
 57c:	83100e42 	tsthi	r0, #1056	; 0x420
 580:	85038404 	strhi	r8, [r3, #-1028]	; 0x404
 584:	00018e02 	andeq	r8, r1, r2, lsl #28
 588:	00000014 	andeq	r0, r0, r4, lsl r0
 58c:	00000510 	andeq	r0, r0, r0, lsl r5
 590:	0000922c 	andeq	r9, r0, ip, lsr #4
 594:	0000004c 	andeq	r0, r0, ip, asr #32
 598:	84080e42 	strhi	r0, [r8], #-3650	; 0xe42
 59c:	00018e02 	andeq	r8, r1, r2, lsl #28
 5a0:	00000014 	andeq	r0, r0, r4, lsl r0
 5a4:	00000510 	andeq	r0, r0, r0, lsl r5
 5a8:	00009278 	andeq	r9, r0, r8, ror r2
 5ac:	00000024 	andeq	r0, r0, r4, lsr #32
 5b0:	83080e42 	movwhi	r0, #36418	; 0x8e42
 5b4:	00018e02 	andeq	r8, r1, r2, lsl #28
 5b8:	00000018 	andeq	r0, r0, r8, lsl r0
 5bc:	00000510 	andeq	r0, r0, r0, lsl r5
 5c0:	0000929c 	muleq	r0, ip, r2
 5c4:	000000d8 	ldrdeq	r0, [r0], -r8
 5c8:	84100e42 	ldrhi	r0, [r0], #-3650	; 0xe42
 5cc:	86038504 	strhi	r8, [r3], -r4, lsl #10
 5d0:	00018e02 	andeq	r8, r1, r2, lsl #28
 5d4:	00000014 	andeq	r0, r0, r4, lsl r0
 5d8:	00000510 	andeq	r0, r0, r0, lsl r5
 5dc:	00009374 	andeq	r9, r0, r4, ror r3
 5e0:	00000038 	andeq	r0, r0, r8, lsr r0
 5e4:	83080e42 	movwhi	r0, #36418	; 0x8e42
 5e8:	00018e02 	andeq	r8, r1, r2, lsl #28
 5ec:	00000014 	andeq	r0, r0, r4, lsl r0
 5f0:	00000510 	andeq	r0, r0, r0, lsl r5
 5f4:	000093ac 	andeq	r9, r0, ip, lsr #7
 5f8:	0000002c 	andeq	r0, r0, ip, lsr #32
 5fc:	83080e42 	movwhi	r0, #36418	; 0x8e42
 600:	00018e02 	andeq	r8, r1, r2, lsl #28
 604:	00000018 	andeq	r0, r0, r8, lsl r0
 608:	00000510 	andeq	r0, r0, r0, lsl r5
 60c:	000093d8 	ldrdeq	r9, [r0], -r8
 610:	00000084 	andeq	r0, r0, r4, lsl #1
 614:	83100e42 	tsthi	r0, #1056	; 0x420
 618:	85038404 	strhi	r8, [r3, #-1028]	; 0x404
 61c:	00018e02 	andeq	r8, r1, r2, lsl #28
 620:	00000018 	andeq	r0, r0, r8, lsl r0
 624:	00000510 	andeq	r0, r0, r0, lsl r5
 628:	0000945c 	andeq	r9, r0, ip, asr r4
 62c:	00000084 	andeq	r0, r0, r4, lsl #1
 630:	83100e42 	tsthi	r0, #1056	; 0x420
 634:	85038404 	strhi	r8, [r3, #-1028]	; 0x404
 638:	00018e02 	andeq	r8, r1, r2, lsl #28
 63c:	00000014 	andeq	r0, r0, r4, lsl r0
 640:	00000510 	andeq	r0, r0, r0, lsl r5
 644:	000094e0 	andeq	r9, r0, r0, ror #9
 648:	00000084 	andeq	r0, r0, r4, lsl #1
 64c:	84080e42 	strhi	r0, [r8], #-3650	; 0xe42
 650:	00018e02 	andeq	r8, r1, r2, lsl #28
 654:	00000014 	andeq	r0, r0, r4, lsl r0
 658:	00000510 	andeq	r0, r0, r0, lsl r5
 65c:	00009564 	andeq	r9, r0, r4, ror #10
 660:	00000058 	andeq	r0, r0, r8, asr r0
 664:	84080e42 	strhi	r0, [r8], #-3650	; 0xe42
 668:	00018e02 	andeq	r8, r1, r2, lsl #28
 66c:	0000000c 	andeq	r0, r0, ip
 670:	ffffffff 			; <UNDEFINED> instruction: 0xffffffff
 674:	7c020001 	stcvc	0, cr0, [r2], {1}
 678:	000d0c0e 	andeq	r0, sp, lr, lsl #24
 67c:	00000018 	andeq	r0, r0, r8, lsl r0
 680:	0000066c 	andeq	r0, r0, ip, ror #12
 684:	000095bc 			; <UNDEFINED> instruction: 0x000095bc
 688:	0000009c 	muleq	r0, ip, r0
 68c:	83100e42 	tsthi	r0, #1056	; 0x420
 690:	85038404 	strhi	r8, [r3, #-1028]	; 0x404
 694:	00018e02 	andeq	r8, r1, r2, lsl #28
 698:	00000014 	andeq	r0, r0, r4, lsl r0
 69c:	0000066c 	andeq	r0, r0, ip, ror #12
 6a0:	00009658 	andeq	r9, r0, r8, asr r6
 6a4:	0000001c 	andeq	r0, r0, ip, lsl r0
 6a8:	83080e42 	movwhi	r0, #36418	; 0x8e42
 6ac:	00018e02 	andeq	r8, r1, r2, lsl #28
 6b0:	00000014 	andeq	r0, r0, r4, lsl r0
 6b4:	0000066c 	andeq	r0, r0, ip, ror #12
 6b8:	00009674 	andeq	r9, r0, r4, ror r6
 6bc:	00000028 	andeq	r0, r0, r8, lsr #32
 6c0:	83080e42 	movwhi	r0, #36418	; 0x8e42
 6c4:	00018e02 	andeq	r8, r1, r2, lsl #28
 6c8:	00000014 	andeq	r0, r0, r4, lsl r0
 6cc:	0000066c 	andeq	r0, r0, ip, ror #12
 6d0:	0000969c 	muleq	r0, ip, r6
 6d4:	0000001c 	andeq	r0, r0, ip, lsl r0
 6d8:	83080e42 	movwhi	r0, #36418	; 0x8e42
 6dc:	00018e02 	andeq	r8, r1, r2, lsl #28
 6e0:	00000014 	andeq	r0, r0, r4, lsl r0
 6e4:	0000066c 	andeq	r0, r0, ip, ror #12
 6e8:	000096b8 			; <UNDEFINED> instruction: 0x000096b8
 6ec:	0000002c 	andeq	r0, r0, ip, lsr #32
 6f0:	84080e42 	strhi	r0, [r8], #-3650	; 0xe42
 6f4:	00018e02 	andeq	r8, r1, r2, lsl #28
 6f8:	00000014 	andeq	r0, r0, r4, lsl r0
 6fc:	0000066c 	andeq	r0, r0, ip, ror #12
 700:	000096e4 	andeq	r9, r0, r4, ror #13
 704:	0000000c 	andeq	r0, r0, ip
 708:	83080e42 	movwhi	r0, #36418	; 0x8e42
 70c:	00018e02 	andeq	r8, r1, r2, lsl #28
 710:	00000014 	andeq	r0, r0, r4, lsl r0
 714:	0000066c 	andeq	r0, r0, ip, ror #12
 718:	000096f0 	strdeq	r9, [r0], -r0
 71c:	00000020 	andeq	r0, r0, r0, lsr #32
 720:	83080e42 	movwhi	r0, #36418	; 0x8e42
 724:	00018e02 	andeq	r8, r1, r2, lsl #28

Disassembly of section .debug_ranges:

00000000 <.debug_ranges>:
   0:	00000294 	muleq	r0, r4, r2
   4:	00000298 	muleq	r0, r8, r2
   8:	000002c8 	andeq	r0, r0, r8, asr #5
   c:	000004b8 			; <UNDEFINED> instruction: 0x000004b8
	...
  18:	00008f20 	andeq	r8, r0, r0, lsr #30
  1c:	00008f94 	muleq	r0, r4, pc	; <UNPREDICTABLE>
	...
