
gyro.elf:     file format elf32-littlearm


Disassembly of section .text:

00008000 <_start>:
    8000:	e3a0d302 	mov	sp, #134217728	; 0x8000000
    8004:	e3a0b000 	mov	fp, #0
    8008:	eb00049d 	bl	9284 <_cstart>
    800c:	eb0004b4 	bl	92e4 <rpi_reboot>

00008010 <xyz_mk>:
    8010:	e5801000 	str	r1, [r0]
    8014:	e5802004 	str	r2, [r0, #4]
    8018:	e5803008 	str	r3, [r0, #8]
    801c:	e12fff1e 	bx	lr

00008020 <mdps_raw>:
    8020:	e1810400 	orr	r0, r1, r0, lsl #8
    8024:	e6bf0070 	sxth	r0, r0
    8028:	e12fff1e 	bx	lr

0000802c <mdps_scaled>:
    802c:	e0010190 	mul	r1, r0, r1
    8030:	e59f000c 	ldr	r0, [pc, #12]	; 8044 <mdps_scaled+0x18>
    8034:	e0c03190 	smull	r3, r0, r0, r1
    8038:	e1a01fc1 	asr	r1, r1, #31
    803c:	e0610340 	rsb	r0, r1, r0, asr #6
    8040:	e12fff1e 	bx	lr
    8044:	10624dd3 	ldrdne	r4, [r2], #-211	; 0xffffff2d	; <UNPREDICTABLE>

00008048 <gyro_scale>:
    8048:	e24dd008 	sub	sp, sp, #8
    804c:	e92d40f8 	push	{r3, r4, r5, r6, r7, lr}
    8050:	e1a05000 	mov	r5, r0
    8054:	e28d0014 	add	r0, sp, #20
    8058:	e980000c 	stmib	r0, {r2, r3}
    805c:	e591400c 	ldr	r4, [r1, #12]
    8060:	e59d0018 	ldr	r0, [sp, #24]
    8064:	e1a01004 	mov	r1, r4
    8068:	ebffffef 	bl	802c <mdps_scaled>
    806c:	e1a07000 	mov	r7, r0
    8070:	e59d001c 	ldr	r0, [sp, #28]
    8074:	e1a01004 	mov	r1, r4
    8078:	ebffffeb 	bl	802c <mdps_scaled>
    807c:	e1a06000 	mov	r6, r0
    8080:	e59d0020 	ldr	r0, [sp, #32]
    8084:	e1a01004 	mov	r1, r4
    8088:	ebffffe7 	bl	802c <mdps_scaled>
    808c:	e1a03000 	mov	r3, r0
    8090:	e1a00005 	mov	r0, r5
    8094:	e1a01007 	mov	r1, r7
    8098:	e1a02006 	mov	r2, r6
    809c:	ebffffdb 	bl	8010 <xyz_mk>
    80a0:	e1a00005 	mov	r0, r5
    80a4:	e8bd40f8 	pop	{r3, r4, r5, r6, r7, lr}
    80a8:	e28dd008 	add	sp, sp, #8
    80ac:	e12fff1e 	bx	lr

000080b0 <test_dps>:
    80b0:	e92d40f0 	push	{r4, r5, r6, r7, lr}
    80b4:	e24dd014 	sub	sp, sp, #20
    80b8:	e1a05000 	mov	r5, r0
    80bc:	e1a06003 	mov	r6, r3
    80c0:	e1a00001 	mov	r0, r1
    80c4:	e1a01002 	mov	r1, r2
    80c8:	ebffffd4 	bl	8020 <mdps_raw>
    80cc:	e1a07000 	mov	r7, r0
    80d0:	e1a01006 	mov	r1, r6
    80d4:	ebffffd4 	bl	802c <mdps_scaled>
    80d8:	e59f406c 	ldr	r4, [pc, #108]	; 814c <test_dps+0x9c>
    80dc:	e0c43094 	smull	r3, r4, r4, r0
    80e0:	e1a00fc0 	asr	r0, r0, #31
    80e4:	e0604344 	rsb	r4, r0, r4, asr #6
    80e8:	e59f0060 	ldr	r0, [pc, #96]	; 8150 <test_dps+0xa0>
    80ec:	e1a01007 	mov	r1, r7
    80f0:	e1a02004 	mov	r2, r4
    80f4:	e1a03005 	mov	r3, r5
    80f8:	eb0002e7 	bl	8c9c <printk>
    80fc:	e1550004 	cmp	r5, r4
    8100:	0a00000f 	beq	8144 <test_dps+0x94>
    8104:	e2843001 	add	r3, r4, #1
    8108:	e1530005 	cmp	r3, r5
    810c:	0a00000c 	beq	8144 <test_dps+0x94>
    8110:	e2443001 	sub	r3, r4, #1
    8114:	e1530005 	cmp	r3, r5
    8118:	0a000009 	beq	8144 <test_dps+0x94>
    811c:	eb0002f9 	bl	8d08 <rpi_reset_putc>
    8120:	e58d5000 	str	r5, [sp]
    8124:	e58d4004 	str	r4, [sp, #4]
    8128:	e58d6008 	str	r6, [sp, #8]
    812c:	e59f0020 	ldr	r0, [pc, #32]	; 8154 <test_dps+0xa4>
    8130:	e59f1020 	ldr	r1, [pc, #32]	; 8158 <test_dps+0xa8>
    8134:	e59f2020 	ldr	r2, [pc, #32]	; 815c <test_dps+0xac>
    8138:	e3a030b1 	mov	r3, #177	; 0xb1
    813c:	eb0002d6 	bl	8c9c <printk>
    8140:	eb000445 	bl	925c <clean_reboot>
    8144:	e28dd014 	add	sp, sp, #20
    8148:	e8bd80f0 	pop	{r4, r5, r6, r7, pc}
    814c:	10624dd3 	ldrdne	r4, [r2], #-211	; 0xffffff2d	; <UNPREDICTABLE>
    8150:	00009c04 	andeq	r9, r0, r4, lsl #24
    8154:	00009c24 	andeq	r9, r0, r4, lsr #24
    8158:	00009c58 	andeq	r9, r0, r8, asr ip
    815c:	00009ba8 	andeq	r9, r0, r8, lsr #23

00008160 <imu_rd>:
    8160:	e92d4010 	push	{r4, lr}
    8164:	e24dd010 	sub	sp, sp, #16
    8168:	e5cd1007 	strb	r1, [sp, #7]
    816c:	e2504000 	subs	r4, r0, #0
    8170:	1a000006 	bne	8190 <imu_rd+0x30>
    8174:	eb0002e3 	bl	8d08 <rpi_reset_putc>
    8178:	e59f0064 	ldr	r0, [pc, #100]	; 81e4 <imu_rd+0x84>
    817c:	e59f1064 	ldr	r1, [pc, #100]	; 81e8 <imu_rd+0x88>
    8180:	e59f2064 	ldr	r2, [pc, #100]	; 81ec <imu_rd+0x8c>
    8184:	e3a03025 	mov	r3, #37	; 0x25
    8188:	eb0002c3 	bl	8c9c <printk>
    818c:	eb000432 	bl	925c <clean_reboot>
    8190:	e5dd3007 	ldrb	r3, [sp, #7]
    8194:	e3530000 	cmp	r3, #0
    8198:	1a000006 	bne	81b8 <imu_rd+0x58>
    819c:	eb0002d9 	bl	8d08 <rpi_reset_putc>
    81a0:	e59f0048 	ldr	r0, [pc, #72]	; 81f0 <imu_rd+0x90>
    81a4:	e59f103c 	ldr	r1, [pc, #60]	; 81e8 <imu_rd+0x88>
    81a8:	e59f203c 	ldr	r2, [pc, #60]	; 81ec <imu_rd+0x8c>
    81ac:	e3a03026 	mov	r3, #38	; 0x26
    81b0:	eb0002b9 	bl	8c9c <printk>
    81b4:	eb000428 	bl	925c <clean_reboot>
    81b8:	e1a00004 	mov	r0, r4
    81bc:	e28d1007 	add	r1, sp, #7
    81c0:	e3a02001 	mov	r2, #1
    81c4:	eb000224 	bl	8a5c <i2c_write>
    81c8:	e1a00004 	mov	r0, r4
    81cc:	e28d100f 	add	r1, sp, #15
    81d0:	e3a02001 	mov	r2, #1
    81d4:	eb000251 	bl	8b20 <i2c_read>
    81d8:	e5dd000f 	ldrb	r0, [sp, #15]
    81dc:	e28dd010 	add	sp, sp, #16
    81e0:	e8bd8010 	pop	{r4, pc}
    81e4:	00009c60 	andeq	r9, r0, r0, ror #24
    81e8:	00009c58 	andeq	r9, r0, r8, asr ip
    81ec:	00009bb4 			; <UNDEFINED> instruction: 0x00009bb4
    81f0:	00009c78 	andeq	r9, r0, r8, ror ip

000081f4 <imu_wr>:
    81f4:	e52de004 	push	{lr}		; (str lr, [sp, #-4]!)
    81f8:	e24dd00c 	sub	sp, sp, #12
    81fc:	e3500000 	cmp	r0, #0
    8200:	1a000006 	bne	8220 <imu_wr+0x2c>
    8204:	eb0002bf 	bl	8d08 <rpi_reset_putc>
    8208:	e59f0050 	ldr	r0, [pc, #80]	; 8260 <imu_wr+0x6c>
    820c:	e59f1050 	ldr	r1, [pc, #80]	; 8264 <imu_wr+0x70>
    8210:	e59f2050 	ldr	r2, [pc, #80]	; 8268 <imu_wr+0x74>
    8214:	e3a03030 	mov	r3, #48	; 0x30
    8218:	eb00029f 	bl	8c9c <printk>
    821c:	eb00040e 	bl	925c <clean_reboot>
    8220:	e3510000 	cmp	r1, #0
    8224:	1a000006 	bne	8244 <imu_wr+0x50>
    8228:	eb0002b6 	bl	8d08 <rpi_reset_putc>
    822c:	e59f0038 	ldr	r0, [pc, #56]	; 826c <imu_wr+0x78>
    8230:	e59f102c 	ldr	r1, [pc, #44]	; 8264 <imu_wr+0x70>
    8234:	e59f202c 	ldr	r2, [pc, #44]	; 8268 <imu_wr+0x74>
    8238:	e3a03031 	mov	r3, #49	; 0x31
    823c:	eb000296 	bl	8c9c <printk>
    8240:	eb000405 	bl	925c <clean_reboot>
    8244:	e5cd1004 	strb	r1, [sp, #4]
    8248:	e5cd2005 	strb	r2, [sp, #5]
    824c:	e28d1004 	add	r1, sp, #4
    8250:	e3a02002 	mov	r2, #2
    8254:	eb000200 	bl	8a5c <i2c_write>
    8258:	e28dd00c 	add	sp, sp, #12
    825c:	e49df004 	pop	{pc}		; (ldr pc, [sp], #4)
    8260:	00009c60 	andeq	r9, r0, r0, ror #24
    8264:	00009c58 	andeq	r9, r0, r8, asr ip
    8268:	00009bbc 			; <UNDEFINED> instruction: 0x00009bbc
    826c:	00009c78 	andeq	r9, r0, r8, ror ip

00008270 <imu_rd_n>:
    8270:	e92d4070 	push	{r4, r5, r6, lr}
    8274:	e24dd008 	sub	sp, sp, #8
    8278:	e1a06002 	mov	r6, r2
    827c:	e1a05003 	mov	r5, r3
    8280:	e5cd1007 	strb	r1, [sp, #7]
    8284:	e2504000 	subs	r4, r0, #0
    8288:	1a000006 	bne	82a8 <imu_rd_n+0x38>
    828c:	eb00029d 	bl	8d08 <rpi_reset_putc>
    8290:	e59f0060 	ldr	r0, [pc, #96]	; 82f8 <imu_rd_n+0x88>
    8294:	e59f1060 	ldr	r1, [pc, #96]	; 82fc <imu_rd_n+0x8c>
    8298:	e59f2060 	ldr	r2, [pc, #96]	; 8300 <imu_rd_n+0x90>
    829c:	e3a0303c 	mov	r3, #60	; 0x3c
    82a0:	eb00027d 	bl	8c9c <printk>
    82a4:	eb0003ec 	bl	925c <clean_reboot>
    82a8:	e5dd3007 	ldrb	r3, [sp, #7]
    82ac:	e3530000 	cmp	r3, #0
    82b0:	1a000006 	bne	82d0 <imu_rd_n+0x60>
    82b4:	eb000293 	bl	8d08 <rpi_reset_putc>
    82b8:	e59f0044 	ldr	r0, [pc, #68]	; 8304 <imu_rd_n+0x94>
    82bc:	e59f1038 	ldr	r1, [pc, #56]	; 82fc <imu_rd_n+0x8c>
    82c0:	e59f2038 	ldr	r2, [pc, #56]	; 8300 <imu_rd_n+0x90>
    82c4:	e3a0303d 	mov	r3, #61	; 0x3d
    82c8:	eb000273 	bl	8c9c <printk>
    82cc:	eb0003e2 	bl	925c <clean_reboot>
    82d0:	e1a00004 	mov	r0, r4
    82d4:	e28d1007 	add	r1, sp, #7
    82d8:	e3a02001 	mov	r2, #1
    82dc:	eb0001de 	bl	8a5c <i2c_write>
    82e0:	e1a00004 	mov	r0, r4
    82e4:	e1a01006 	mov	r1, r6
    82e8:	e1a02005 	mov	r2, r5
    82ec:	eb00020b 	bl	8b20 <i2c_read>
    82f0:	e28dd008 	add	sp, sp, #8
    82f4:	e8bd8070 	pop	{r4, r5, r6, pc}
    82f8:	00009c60 	andeq	r9, r0, r0, ror #24
    82fc:	00009c58 	andeq	r9, r0, r8, asr ip
    8300:	00009bc4 	andeq	r9, r0, r4, asr #23
    8304:	00009c8c 	andeq	r9, r0, ip, lsl #25

00008308 <dps_to_scale>:
    8308:	e92d4008 	push	{r3, lr}
    830c:	e3500f7d 	cmp	r0, #500	; 0x1f4
    8310:	0a000015 	beq	836c <dps_to_scale+0x64>
    8314:	8a000002 	bhi	8324 <dps_to_scale+0x1c>
    8318:	e35000f5 	cmp	r0, #245	; 0xf5
    831c:	0a000010 	beq	8364 <dps_to_scale+0x5c>
    8320:	ea000008 	b	8348 <dps_to_scale+0x40>
    8324:	e3500ffa 	cmp	r0, #1000	; 0x3e8
    8328:	0a000002 	beq	8338 <dps_to_scale+0x30>
    832c:	e3500e7d 	cmp	r0, #2000	; 0x7d0
    8330:	0a000002 	beq	8340 <dps_to_scale+0x38>
    8334:	ea000003 	b	8348 <dps_to_scale+0x40>
    8338:	e59f0034 	ldr	r0, [pc, #52]	; 8374 <dps_to_scale+0x6c>
    833c:	e8bd8008 	pop	{r3, pc}
    8340:	e59f0030 	ldr	r0, [pc, #48]	; 8378 <dps_to_scale+0x70>
    8344:	e8bd8008 	pop	{r3, pc}
    8348:	eb00026e 	bl	8d08 <rpi_reset_putc>
    834c:	e59f0028 	ldr	r0, [pc, #40]	; 837c <dps_to_scale+0x74>
    8350:	e59f1028 	ldr	r1, [pc, #40]	; 8380 <dps_to_scale+0x78>
    8354:	e59f2028 	ldr	r2, [pc, #40]	; 8384 <dps_to_scale+0x7c>
    8358:	e3a0305f 	mov	r3, #95	; 0x5f
    835c:	eb00024e 	bl	8c9c <printk>
    8360:	eb0003bd 	bl	925c <clean_reboot>
    8364:	e59f001c 	ldr	r0, [pc, #28]	; 8388 <dps_to_scale+0x80>
    8368:	e8bd8008 	pop	{r3, pc}
    836c:	e59f0018 	ldr	r0, [pc, #24]	; 838c <dps_to_scale+0x84>
    8370:	e8bd8008 	pop	{r3, pc}
    8374:	000088b8 			; <UNDEFINED> instruction: 0x000088b8
    8378:	00011170 	andeq	r1, r1, r0, ror r1
    837c:	00009ca8 	andeq	r9, r0, r8, lsr #25
    8380:	00009c58 	andeq	r9, r0, r8, asr ip
    8384:	00009bd0 	ldrdeq	r9, [r0], -r0
    8388:	0000222e 	andeq	r2, r0, lr, lsr #4
    838c:	0000445c 	andeq	r4, r0, ip, asr r4

00008390 <init_gyro>:
    8390:	e92d40f0 	push	{r4, r5, r6, r7, lr}
    8394:	e24dd00c 	sub	sp, sp, #12
    8398:	e1a05000 	mov	r5, r0
    839c:	e1a07001 	mov	r7, r1
    83a0:	e1a04002 	mov	r4, r2
    83a4:	e1a06003 	mov	r6, r3
    83a8:	eb0005be 	bl	9aa8 <dev_barrier>
    83ac:	e59f310c 	ldr	r3, [pc, #268]	; 84c0 <init_gyro+0x130>
    83b0:	e1540003 	cmp	r4, r3
    83b4:	135408f5 	cmpne	r4, #16056320	; 0xf50000
    83b8:	0a000006 	beq	83d8 <init_gyro+0x48>
    83bc:	e59f3100 	ldr	r3, [pc, #256]	; 84c4 <init_gyro+0x134>
    83c0:	e59f2100 	ldr	r2, [pc, #256]	; 84c8 <init_gyro+0x138>
    83c4:	e1540003 	cmp	r4, r3
    83c8:	11540002 	cmpne	r4, r2
    83cc:	1a000003 	bne	83e0 <init_gyro+0x50>
    83d0:	e3a03001 	mov	r3, #1
    83d4:	ea000002 	b	83e4 <init_gyro+0x54>
    83d8:	e3a03001 	mov	r3, #1
    83dc:	ea000000 	b	83e4 <init_gyro+0x54>
    83e0:	e3a03000 	mov	r3, #0
    83e4:	e3530000 	cmp	r3, #0
    83e8:	1a000007 	bne	840c <init_gyro+0x7c>
    83ec:	eb000245 	bl	8d08 <rpi_reset_putc>
    83f0:	e58d4000 	str	r4, [sp]
    83f4:	e59f00d0 	ldr	r0, [pc, #208]	; 84cc <init_gyro+0x13c>
    83f8:	e59f10d0 	ldr	r1, [pc, #208]	; 84d0 <init_gyro+0x140>
    83fc:	e59f20d0 	ldr	r2, [pc, #208]	; 84d4 <init_gyro+0x144>
    8400:	e3a03070 	mov	r3, #112	; 0x70
    8404:	eb000224 	bl	8c9c <printk>
    8408:	eb000393 	bl	925c <clean_reboot>
    840c:	e3560008 	cmp	r6, #8
    8410:	1a000006 	bne	8430 <init_gyro+0xa0>
    8414:	eb00023b 	bl	8d08 <rpi_reset_putc>
    8418:	e59f00b8 	ldr	r0, [pc, #184]	; 84d8 <init_gyro+0x148>
    841c:	e59f10b8 	ldr	r1, [pc, #184]	; 84dc <init_gyro+0x14c>
    8420:	e59f20b8 	ldr	r2, [pc, #184]	; 84e0 <init_gyro+0x150>
    8424:	e3a0303e 	mov	r3, #62	; 0x3e
    8428:	eb00021b 	bl	8c9c <printk>
    842c:	eb00038a 	bl	925c <clean_reboot>
    8430:	e3560008 	cmp	r6, #8
    8434:	9a000007 	bls	8458 <init_gyro+0xc8>
    8438:	eb000232 	bl	8d08 <rpi_reset_putc>
    843c:	e58d6000 	str	r6, [sp]
    8440:	e59f009c 	ldr	r0, [pc, #156]	; 84e4 <init_gyro+0x154>
    8444:	e59f1084 	ldr	r1, [pc, #132]	; 84d0 <init_gyro+0x140>
    8448:	e59f2084 	ldr	r2, [pc, #132]	; 84d4 <init_gyro+0x144>
    844c:	e3a03072 	mov	r3, #114	; 0x72
    8450:	eb000211 	bl	8c9c <printk>
    8454:	eb000380 	bl	925c <clean_reboot>
    8458:	e1a00007 	mov	r0, r7
    845c:	e3a01019 	mov	r1, #25
    8460:	e3a02038 	mov	r2, #56	; 0x38
    8464:	ebffff62 	bl	81f4 <imu_wr>
    8468:	e1a00007 	mov	r0, r7
    846c:	e3a01012 	mov	r1, #18
    8470:	e3a02044 	mov	r2, #68	; 0x44
    8474:	ebffff5e 	bl	81f4 <imu_wr>
    8478:	e1a02104 	lsl	r2, r4, #2
    847c:	e1822206 	orr	r2, r2, r6, lsl #4
    8480:	e1a00007 	mov	r0, r7
    8484:	e3a01011 	mov	r1, #17
    8488:	e20220fc 	and	r2, r2, #252	; 0xfc
    848c:	ebffff58 	bl	81f4 <imu_wr>
    8490:	e5c57000 	strb	r7, [r5]
    8494:	e5856004 	str	r6, [r5, #4]
    8498:	e5854008 	str	r4, [r5, #8]
    849c:	e3a000f5 	mov	r0, #245	; 0xf5
    84a0:	ebffff98 	bl	8308 <dps_to_scale>
    84a4:	e585000c 	str	r0, [r5, #12]
    84a8:	e3a00050 	mov	r0, #80	; 0x50
    84ac:	eb0003b6 	bl	938c <delay_ms>
    84b0:	eb00057c 	bl	9aa8 <dev_barrier>
    84b4:	e1a00005 	mov	r0, r5
    84b8:	e28dd00c 	add	sp, sp, #12
    84bc:	e8bd80f0 	pop	{r4, r5, r6, r7, pc}
    84c0:	01f40001 	mvnseq	r0, r1
    84c4:	07d00003 	ldrbeq	r0, [r0, r3]
    84c8:	03e80002 	mvneq	r0, #2
    84cc:	00009cbc 			; <UNDEFINED> instruction: 0x00009cbc
    84d0:	00009c58 	andeq	r9, r0, r8, asr ip
    84d4:	00009be0 	andeq	r9, r0, r0, ror #23
    84d8:	00009ce0 	andeq	r9, r0, r0, ror #25
    84dc:	00009d14 	andeq	r9, r0, r4, lsl sp
    84e0:	00009bec 	andeq	r9, r0, ip, ror #23
    84e4:	00009d20 	andeq	r9, r0, r0, lsr #26

000084e8 <gyro_has_data>:
    84e8:	e92d4008 	push	{r3, lr}
    84ec:	e5d00000 	ldrb	r0, [r0]
    84f0:	e3a0101e 	mov	r1, #30
    84f4:	ebffff19 	bl	8160 <imu_rd>
    84f8:	e3100002 	tst	r0, #2
    84fc:	0a000001 	beq	8508 <gyro_has_data+0x20>
    8500:	e3a00001 	mov	r0, #1
    8504:	e8bd8008 	pop	{r3, pc}
    8508:	e3a00000 	mov	r0, #0
    850c:	e8bd8008 	pop	{r3, pc}

00008510 <gyro_rd>:
    8510:	e92d4070 	push	{r4, r5, r6, lr}
    8514:	e24dd008 	sub	sp, sp, #8
    8518:	e1a05000 	mov	r5, r0
    851c:	e1a04001 	mov	r4, r1
    8520:	e1a00004 	mov	r0, r4
    8524:	ebffffef 	bl	84e8 <gyro_has_data>
    8528:	e3500000 	cmp	r0, #0
    852c:	0afffffb 	beq	8520 <gyro_rd+0x10>
    8530:	e5d40000 	ldrb	r0, [r4]
    8534:	e3a01022 	mov	r1, #34	; 0x22
    8538:	e1a0200d 	mov	r2, sp
    853c:	e3a03006 	mov	r3, #6
    8540:	ebffff4a 	bl	8270 <imu_rd_n>
    8544:	e5dd0001 	ldrb	r0, [sp, #1]
    8548:	e5dd1000 	ldrb	r1, [sp]
    854c:	ebfffeb3 	bl	8020 <mdps_raw>
    8550:	e1a06000 	mov	r6, r0
    8554:	e5dd0003 	ldrb	r0, [sp, #3]
    8558:	e5dd1002 	ldrb	r1, [sp, #2]
    855c:	ebfffeaf 	bl	8020 <mdps_raw>
    8560:	e1a04000 	mov	r4, r0
    8564:	e5dd0005 	ldrb	r0, [sp, #5]
    8568:	e5dd1004 	ldrb	r1, [sp, #4]
    856c:	ebfffeab 	bl	8020 <mdps_raw>
    8570:	e5856000 	str	r6, [r5]
    8574:	e5854004 	str	r4, [r5, #4]
    8578:	e5850008 	str	r0, [r5, #8]
    857c:	e1a00005 	mov	r0, r5
    8580:	e28dd008 	add	sp, sp, #8
    8584:	e8bd8070 	pop	{r4, r5, r6, pc}

00008588 <do_gyro_test>:
    8588:	e92d43f0 	push	{r4, r5, r6, r7, r8, r9, lr}
    858c:	e24dd03c 	sub	sp, sp, #60	; 0x3c
    8590:	e3a000f5 	mov	r0, #245	; 0xf5
    8594:	ebffff5b 	bl	8308 <dps_to_scale>
    8598:	e1a04000 	mov	r4, r0
    859c:	e3a00000 	mov	r0, #0
    85a0:	e1a01000 	mov	r1, r0
    85a4:	e1a02000 	mov	r2, r0
    85a8:	e1a03004 	mov	r3, r4
    85ac:	ebfffebf 	bl	80b0 <test_dps>
    85b0:	e3a00064 	mov	r0, #100	; 0x64
    85b4:	e3a0102c 	mov	r1, #44	; 0x2c
    85b8:	e3a020a4 	mov	r2, #164	; 0xa4
    85bc:	e1a03004 	mov	r3, r4
    85c0:	ebfffeba 	bl	80b0 <test_dps>
    85c4:	e3a000c8 	mov	r0, #200	; 0xc8
    85c8:	e3a01059 	mov	r1, #89	; 0x59
    85cc:	e3a02049 	mov	r2, #73	; 0x49
    85d0:	e1a03004 	mov	r3, r4
    85d4:	ebfffeb5 	bl	80b0 <test_dps>
    85d8:	e3e00063 	mvn	r0, #99	; 0x63
    85dc:	e3a010d3 	mov	r1, #211	; 0xd3
    85e0:	e3a0205c 	mov	r2, #92	; 0x5c
    85e4:	e1a03004 	mov	r3, r4
    85e8:	ebfffeb0 	bl	80b0 <test_dps>
    85ec:	e3e000c7 	mvn	r0, #199	; 0xc7
    85f0:	e3a010a6 	mov	r1, #166	; 0xa6
    85f4:	e3a020b7 	mov	r2, #183	; 0xb7
    85f8:	e1a03004 	mov	r3, r4
    85fc:	ebfffeab 	bl	80b0 <test_dps>
    8600:	e59f00a0 	ldr	r0, [pc, #160]	; 86a8 <do_gyro_test+0x120>
    8604:	eb0001a4 	bl	8c9c <printk>
    8608:	e28d0028 	add	r0, sp, #40	; 0x28
    860c:	e3a0106b 	mov	r1, #107	; 0x6b
    8610:	e3a028f5 	mov	r2, #16056320	; 0xf50000
    8614:	e3a03005 	mov	r3, #5
    8618:	ebffff5c 	bl	8390 <init_gyro>
    861c:	e3a06000 	mov	r6, #0
    8620:	e28d401c 	add	r4, sp, #28
    8624:	e59f9080 	ldr	r9, [pc, #128]	; 86ac <do_gyro_test+0x124>
    8628:	e28d5008 	add	r5, sp, #8
    862c:	e59f807c 	ldr	r8, [pc, #124]	; 86b0 <do_gyro_test+0x128>
    8630:	e3a07f7d 	mov	r7, #500	; 0x1f4
    8634:	ea000017 	b	8698 <do_gyro_test+0x110>
    8638:	e1a00004 	mov	r0, r4
    863c:	e28d1028 	add	r1, sp, #40	; 0x28
    8640:	ebffffb2 	bl	8510 <gyro_rd>
    8644:	e1a00009 	mov	r0, r9
    8648:	e59d101c 	ldr	r1, [sp, #28]
    864c:	e59d2020 	ldr	r2, [sp, #32]
    8650:	e59d3024 	ldr	r3, [sp, #36]	; 0x24
    8654:	eb000190 	bl	8c9c <printk>
    8658:	e59d3024 	ldr	r3, [sp, #36]	; 0x24
    865c:	e58d3000 	str	r3, [sp]
    8660:	e894000c 	ldm	r4, {r2, r3}
    8664:	e1a00005 	mov	r0, r5
    8668:	e28d1028 	add	r1, sp, #40	; 0x28
    866c:	ebfffe75 	bl	8048 <gyro_scale>
    8670:	e8950007 	ldm	r5, {r0, r1, r2}
    8674:	e8840007 	stm	r4, {r0, r1, r2}
    8678:	e1a00008 	mov	r0, r8
    867c:	e59d101c 	ldr	r1, [sp, #28]
    8680:	e59d2020 	ldr	r2, [sp, #32]
    8684:	e59d3024 	ldr	r3, [sp, #36]	; 0x24
    8688:	eb000183 	bl	8c9c <printk>
    868c:	e1a00007 	mov	r0, r7
    8690:	eb00033d 	bl	938c <delay_ms>
    8694:	e2866001 	add	r6, r6, #1
    8698:	e3560009 	cmp	r6, #9
    869c:	daffffe5 	ble	8638 <do_gyro_test+0xb0>
    86a0:	e28dd03c 	add	sp, sp, #60	; 0x3c
    86a4:	e8bd83f0 	pop	{r4, r5, r6, r7, r8, r9, pc}
    86a8:	00009d40 	andeq	r9, r0, r0, asr #26
    86ac:	00009d54 	andeq	r9, r0, r4, asr sp
    86b0:	00009d78 	andeq	r9, r0, r8, ror sp

000086b4 <notmain>:
    86b4:	e92d4010 	push	{r4, lr}
    86b8:	e24dd008 	sub	sp, sp, #8
    86bc:	eb0004a4 	bl	9954 <uart_init>
    86c0:	e3a00064 	mov	r0, #100	; 0x64
    86c4:	eb000330 	bl	938c <delay_ms>
    86c8:	eb000148 	bl	8bf0 <i2c_init>
    86cc:	e3a00064 	mov	r0, #100	; 0x64
    86d0:	eb00032d 	bl	938c <delay_ms>
    86d4:	e3a0006b 	mov	r0, #107	; 0x6b
    86d8:	e3a0100f 	mov	r1, #15
    86dc:	ebfffe9f 	bl	8160 <imu_rd>
    86e0:	e1a04000 	mov	r4, r0
    86e4:	e3500069 	cmp	r0, #105	; 0x69
    86e8:	0a000009 	beq	8714 <notmain+0x60>
    86ec:	eb000185 	bl	8d08 <rpi_reset_putc>
    86f0:	e3a03069 	mov	r3, #105	; 0x69
    86f4:	e58d3000 	str	r3, [sp]
    86f8:	e58d4004 	str	r4, [sp, #4]
    86fc:	e59f0020 	ldr	r0, [pc, #32]	; 8724 <notmain+0x70>
    8700:	e59f1020 	ldr	r1, [pc, #32]	; 8728 <notmain+0x74>
    8704:	e59f2020 	ldr	r2, [pc, #32]	; 872c <notmain+0x78>
    8708:	e3a030e9 	mov	r3, #233	; 0xe9
    870c:	eb000162 	bl	8c9c <printk>
    8710:	eb0002d1 	bl	925c <clean_reboot>
    8714:	e59f0014 	ldr	r0, [pc, #20]	; 8730 <notmain+0x7c>
    8718:	eb00015f 	bl	8c9c <printk>
    871c:	ebffff99 	bl	8588 <do_gyro_test>
    8720:	eb0002cd 	bl	925c <clean_reboot>
    8724:	00009da4 	andeq	r9, r0, r4, lsr #27
    8728:	00009c58 	andeq	r9, r0, r8, asr ip
    872c:	00009bfc 	strdeq	r9, [r0], -ip
    8730:	00009de0 	andeq	r9, r0, r0, ror #27

00008734 <clear_c>:
    8734:	e3c0000e 	bic	r0, r0, #14
    8738:	e3c00040 	bic	r0, r0, #64	; 0x40
    873c:	e3c00b1e 	bic	r0, r0, #30720	; 0x7800
    8740:	e6ff0070 	uxth	r0, r0
    8744:	e12fff1e 	bx	lr

00008748 <clear_s>:
    8748:	e1a00b00 	lsl	r0, r0, #22
    874c:	e1a00b20 	lsr	r0, r0, #22
    8750:	e12fff1e 	bx	lr

00008754 <check_layout>:
    8754:	e52de004 	push	{lr}		; (str lr, [sp, #-4]!)
    8758:	e49df004 	pop	{pc}		; (ldr pc, [sp], #4)

0000875c <xfer_end>:
    875c:	e92d4010 	push	{r4, lr}
    8760:	e59f30c0 	ldr	r3, [pc, #192]	; 8828 <xfer_end+0xcc>
    8764:	e5933004 	ldr	r3, [r3, #4]
    8768:	e3130002 	tst	r3, #2
    876c:	1a000015 	bne	87c8 <xfer_end+0x6c>
    8770:	e59f30b0 	ldr	r3, [pc, #176]	; 8828 <xfer_end+0xcc>
    8774:	e5933004 	ldr	r3, [r3, #4]
    8778:	e3130c01 	tst	r3, #256	; 0x100
    877c:	1a00000a 	bne	87ac <xfer_end+0x50>
    8780:	e59f30a0 	ldr	r3, [pc, #160]	; 8828 <xfer_end+0xcc>
    8784:	e5933004 	ldr	r3, [r3, #4]
    8788:	e3130c02 	tst	r3, #512	; 0x200
    878c:	0afffff3 	beq	8760 <xfer_end+0x4>
    8790:	eb00015c 	bl	8d08 <rpi_reset_putc>
    8794:	e59f3090 	ldr	r3, [pc, #144]	; 882c <xfer_end+0xd0>
    8798:	e59f2090 	ldr	r2, [pc, #144]	; 8830 <xfer_end+0xd4>
    879c:	e59f1090 	ldr	r1, [pc, #144]	; 8834 <xfer_end+0xd8>
    87a0:	e59f0090 	ldr	r0, [pc, #144]	; 8838 <xfer_end+0xdc>
    87a4:	eb00013c 	bl	8c9c <printk>
    87a8:	eb0002ab 	bl	925c <clean_reboot>
    87ac:	eb000155 	bl	8d08 <rpi_reset_putc>
    87b0:	e59f3074 	ldr	r3, [pc, #116]	; 882c <xfer_end+0xd0>
    87b4:	e59f2074 	ldr	r2, [pc, #116]	; 8830 <xfer_end+0xd4>
    87b8:	e59f1074 	ldr	r1, [pc, #116]	; 8834 <xfer_end+0xd8>
    87bc:	e59f0078 	ldr	r0, [pc, #120]	; 883c <xfer_end+0xe0>
    87c0:	eb000135 	bl	8c9c <printk>
    87c4:	eb0002a4 	bl	925c <clean_reboot>
    87c8:	e59f3058 	ldr	r3, [pc, #88]	; 8828 <xfer_end+0xcc>
    87cc:	e5933004 	ldr	r3, [r3, #4]
    87d0:	e3130001 	tst	r3, #1
    87d4:	1a000005 	bne	87f0 <xfer_end+0x94>
    87d8:	e59f3048 	ldr	r3, [pc, #72]	; 8828 <xfer_end+0xcc>
    87dc:	e5933004 	ldr	r3, [r3, #4]
    87e0:	e3130c01 	tst	r3, #256	; 0x100
    87e4:	1a000008 	bne	880c <xfer_end+0xb0>
    87e8:	eb0004ae 	bl	9aa8 <dev_barrier>
    87ec:	e8bd8010 	pop	{r4, pc}
    87f0:	eb000144 	bl	8d08 <rpi_reset_putc>
    87f4:	e59f3044 	ldr	r3, [pc, #68]	; 8840 <xfer_end+0xe4>
    87f8:	e59f2030 	ldr	r2, [pc, #48]	; 8830 <xfer_end+0xd4>
    87fc:	e59f1030 	ldr	r1, [pc, #48]	; 8834 <xfer_end+0xd8>
    8800:	e59f003c 	ldr	r0, [pc, #60]	; 8844 <xfer_end+0xe8>
    8804:	eb000124 	bl	8c9c <printk>
    8808:	eb000293 	bl	925c <clean_reboot>
    880c:	eb00013d 	bl	8d08 <rpi_reset_putc>
    8810:	e3a03f46 	mov	r3, #280	; 0x118
    8814:	e59f2014 	ldr	r2, [pc, #20]	; 8830 <xfer_end+0xd4>
    8818:	e59f1014 	ldr	r1, [pc, #20]	; 8834 <xfer_end+0xd8>
    881c:	e59f0024 	ldr	r0, [pc, #36]	; 8848 <xfer_end+0xec>
    8820:	eb00011d 	bl	8c9c <printk>
    8824:	eb00028c 	bl	925c <clean_reboot>
    8828:	20804000 	addcs	r4, r0, r0
    882c:	00000113 	andeq	r0, r0, r3, lsl r1
    8830:	00009e18 	andeq	r9, r0, r8, lsl lr
    8834:	00009e54 	andeq	r9, r0, r4, asr lr
    8838:	00009f70 	andeq	r9, r0, r0, ror pc
    883c:	00009f4c 	andeq	r9, r0, ip, asr #30
    8840:	00000116 	andeq	r0, r0, r6, lsl r1
    8844:	00009fa0 	andeq	r9, r0, r0, lsr #31
    8848:	00009fc4 	andeq	r9, r0, r4, asr #31

0000884c <read_s>:
    884c:	e92d4010 	push	{r4, lr}
    8850:	eb0004a6 	bl	9af0 <get32>
    8854:	ebffffbb 	bl	8748 <clear_s>
    8858:	e8bd8010 	pop	{r4, pc}

0000885c <reset_status>:
    885c:	e92d4010 	push	{r4, lr}
    8860:	e59f4018 	ldr	r4, [pc, #24]	; 8880 <reset_status+0x24>
    8864:	e1a00004 	mov	r0, r4
    8868:	ebfffff7 	bl	884c <read_s>
    886c:	e3801002 	orr	r1, r0, #2
    8870:	e3811c03 	orr	r1, r1, #768	; 0x300
    8874:	e1a00004 	mov	r0, r4
    8878:	eb000490 	bl	9ac0 <put32>
    887c:	e8bd8010 	pop	{r4, pc}
    8880:	20804004 	addcs	r4, r0, r4

00008884 <read_c>:
    8884:	e92d4010 	push	{r4, lr}
    8888:	eb000498 	bl	9af0 <get32>
    888c:	ebffffa8 	bl	8734 <clear_c>
    8890:	e8bd8010 	pop	{r4, pc}

00008894 <xfer_start>:
    8894:	e92d4070 	push	{r4, r5, r6, lr}
    8898:	e1a06000 	mov	r6, r0
    889c:	e1a05001 	mov	r5, r1
    88a0:	e1a04002 	mov	r4, r2
    88a4:	eb00047f 	bl	9aa8 <dev_barrier>
    88a8:	e59f3180 	ldr	r3, [pc, #384]	; 8a30 <xfer_start+0x19c>
    88ac:	e5933004 	ldr	r3, [r3, #4]
    88b0:	e3130001 	tst	r3, #1
    88b4:	0a000015 	beq	8910 <xfer_start+0x7c>
    88b8:	e59f3170 	ldr	r3, [pc, #368]	; 8a30 <xfer_start+0x19c>
    88bc:	e5933004 	ldr	r3, [r3, #4]
    88c0:	e3130c01 	tst	r3, #256	; 0x100
    88c4:	1a00000a 	bne	88f4 <xfer_start+0x60>
    88c8:	e59f3160 	ldr	r3, [pc, #352]	; 8a30 <xfer_start+0x19c>
    88cc:	e5933004 	ldr	r3, [r3, #4]
    88d0:	e3130c02 	tst	r3, #512	; 0x200
    88d4:	0afffff3 	beq	88a8 <xfer_start+0x14>
    88d8:	eb00010a 	bl	8d08 <rpi_reset_putc>
    88dc:	e3a030f3 	mov	r3, #243	; 0xf3
    88e0:	e59f214c 	ldr	r2, [pc, #332]	; 8a34 <xfer_start+0x1a0>
    88e4:	e59f114c 	ldr	r1, [pc, #332]	; 8a38 <xfer_start+0x1a4>
    88e8:	e59f014c 	ldr	r0, [pc, #332]	; 8a3c <xfer_start+0x1a8>
    88ec:	eb0000ea 	bl	8c9c <printk>
    88f0:	eb000259 	bl	925c <clean_reboot>
    88f4:	eb000103 	bl	8d08 <rpi_reset_putc>
    88f8:	e3a030f3 	mov	r3, #243	; 0xf3
    88fc:	e59f2130 	ldr	r2, [pc, #304]	; 8a34 <xfer_start+0x1a0>
    8900:	e59f1130 	ldr	r1, [pc, #304]	; 8a38 <xfer_start+0x1a4>
    8904:	e59f0134 	ldr	r0, [pc, #308]	; 8a40 <xfer_start+0x1ac>
    8908:	eb0000e3 	bl	8c9c <printk>
    890c:	eb000252 	bl	925c <clean_reboot>
    8910:	e59f3118 	ldr	r3, [pc, #280]	; 8a30 <xfer_start+0x19c>
    8914:	e5933004 	ldr	r3, [r3, #4]
    8918:	e3130040 	tst	r3, #64	; 0x40
    891c:	0a000026 	beq	89bc <xfer_start+0x128>
    8920:	ebffffcd 	bl	885c <reset_status>
    8924:	e1b033a6 	lsrs	r3, r6, #7
    8928:	1a00002a 	bne	89d8 <xfer_start+0x144>
    892c:	e1a01006 	mov	r1, r6
    8930:	e59f010c 	ldr	r0, [pc, #268]	; 8a44 <xfer_start+0x1b0>
    8934:	eb000461 	bl	9ac0 <put32>
    8938:	e1b03825 	lsrs	r3, r5, #16
    893c:	1a00002c 	bne	89f4 <xfer_start+0x160>
    8940:	e1a01005 	mov	r1, r5
    8944:	e59f00fc 	ldr	r0, [pc, #252]	; 8a48 <xfer_start+0x1b4>
    8948:	eb00045c 	bl	9ac0 <put32>
    894c:	e59f50dc 	ldr	r5, [pc, #220]	; 8a30 <xfer_start+0x19c>
    8950:	e1a00005 	mov	r0, r5
    8954:	ebffffca 	bl	8884 <read_c>
    8958:	e38000b0 	orr	r0, r0, #176	; 0xb0
    895c:	e2041001 	and	r1, r4, #1
    8960:	e3c00001 	bic	r0, r0, #1
    8964:	e1811000 	orr	r1, r1, r0
    8968:	e1a00005 	mov	r0, r5
    896c:	eb000453 	bl	9ac0 <put32>
    8970:	e59f30b8 	ldr	r3, [pc, #184]	; 8a30 <xfer_start+0x19c>
    8974:	e5933004 	ldr	r3, [r3, #4]
    8978:	e3130001 	tst	r3, #1
    897c:	1a00002a 	bne	8a2c <xfer_start+0x198>
    8980:	e59f30a8 	ldr	r3, [pc, #168]	; 8a30 <xfer_start+0x19c>
    8984:	e5933004 	ldr	r3, [r3, #4]
    8988:	e3130c01 	tst	r3, #256	; 0x100
    898c:	1a00001f 	bne	8a10 <xfer_start+0x17c>
    8990:	e59f3098 	ldr	r3, [pc, #152]	; 8a30 <xfer_start+0x19c>
    8994:	e5933004 	ldr	r3, [r3, #4]
    8998:	e3130c02 	tst	r3, #512	; 0x200
    899c:	0afffff3 	beq	8970 <xfer_start+0xdc>
    89a0:	eb0000d8 	bl	8d08 <rpi_reset_putc>
    89a4:	e59f30a0 	ldr	r3, [pc, #160]	; 8a4c <xfer_start+0x1b8>
    89a8:	e59f2084 	ldr	r2, [pc, #132]	; 8a34 <xfer_start+0x1a0>
    89ac:	e59f1084 	ldr	r1, [pc, #132]	; 8a38 <xfer_start+0x1a4>
    89b0:	e59f0084 	ldr	r0, [pc, #132]	; 8a3c <xfer_start+0x1a8>
    89b4:	eb0000b8 	bl	8c9c <printk>
    89b8:	eb000227 	bl	925c <clean_reboot>
    89bc:	eb0000d1 	bl	8d08 <rpi_reset_putc>
    89c0:	e3a030f6 	mov	r3, #246	; 0xf6
    89c4:	e59f2068 	ldr	r2, [pc, #104]	; 8a34 <xfer_start+0x1a0>
    89c8:	e59f1068 	ldr	r1, [pc, #104]	; 8a38 <xfer_start+0x1a4>
    89cc:	e59f007c 	ldr	r0, [pc, #124]	; 8a50 <xfer_start+0x1bc>
    89d0:	eb0000b1 	bl	8c9c <printk>
    89d4:	eb000220 	bl	925c <clean_reboot>
    89d8:	eb0000ca 	bl	8d08 <rpi_reset_putc>
    89dc:	e3a030fb 	mov	r3, #251	; 0xfb
    89e0:	e59f204c 	ldr	r2, [pc, #76]	; 8a34 <xfer_start+0x1a0>
    89e4:	e59f104c 	ldr	r1, [pc, #76]	; 8a38 <xfer_start+0x1a4>
    89e8:	e59f0064 	ldr	r0, [pc, #100]	; 8a54 <xfer_start+0x1c0>
    89ec:	eb0000aa 	bl	8c9c <printk>
    89f0:	eb000219 	bl	925c <clean_reboot>
    89f4:	eb0000c3 	bl	8d08 <rpi_reset_putc>
    89f8:	e3a030ff 	mov	r3, #255	; 0xff
    89fc:	e59f2030 	ldr	r2, [pc, #48]	; 8a34 <xfer_start+0x1a0>
    8a00:	e59f1030 	ldr	r1, [pc, #48]	; 8a38 <xfer_start+0x1a4>
    8a04:	e59f004c 	ldr	r0, [pc, #76]	; 8a58 <xfer_start+0x1c4>
    8a08:	eb0000a3 	bl	8c9c <printk>
    8a0c:	eb000212 	bl	925c <clean_reboot>
    8a10:	eb0000bc 	bl	8d08 <rpi_reset_putc>
    8a14:	e59f3030 	ldr	r3, [pc, #48]	; 8a4c <xfer_start+0x1b8>
    8a18:	e59f2014 	ldr	r2, [pc, #20]	; 8a34 <xfer_start+0x1a0>
    8a1c:	e59f1014 	ldr	r1, [pc, #20]	; 8a38 <xfer_start+0x1a4>
    8a20:	e59f0018 	ldr	r0, [pc, #24]	; 8a40 <xfer_start+0x1ac>
    8a24:	eb00009c 	bl	8c9c <printk>
    8a28:	eb00020b 	bl	925c <clean_reboot>
    8a2c:	e8bd8070 	pop	{r4, r5, r6, pc}
    8a30:	20804000 	addcs	r4, r0, r0
    8a34:	00009e24 	andeq	r9, r0, r4, lsr #28
    8a38:	00009e54 	andeq	r9, r0, r4, asr lr
    8a3c:	00009f70 	andeq	r9, r0, r0, ror pc
    8a40:	00009f4c 	andeq	r9, r0, ip, asr #30
    8a44:	2080400c 	addcs	r4, r0, ip
    8a48:	20804008 	addcs	r4, r0, r8
    8a4c:	0000010e 	andeq	r0, r0, lr, lsl #2
    8a50:	00009fe8 	andeq	r9, r0, r8, ror #31
    8a54:	0000a010 	andeq	sl, r0, r0, lsl r0
    8a58:	0000a034 	andeq	sl, r0, r4, lsr r0

00008a5c <i2c_write>:
    8a5c:	e92d4070 	push	{r4, r5, r6, lr}
    8a60:	e1a05001 	mov	r5, r1
    8a64:	e1a04002 	mov	r4, r2
    8a68:	e3a02000 	mov	r2, #0
    8a6c:	e1a01004 	mov	r1, r4
    8a70:	ebffff87 	bl	8894 <xfer_start>
    8a74:	e3a02000 	mov	r2, #0
    8a78:	ea00000a 	b	8aa8 <i2c_write+0x4c>
    8a7c:	eb0000a1 	bl	8d08 <rpi_reset_putc>
    8a80:	e59f3080 	ldr	r3, [pc, #128]	; 8b08 <i2c_write+0xac>
    8a84:	e59f2080 	ldr	r2, [pc, #128]	; 8b0c <i2c_write+0xb0>
    8a88:	e59f1080 	ldr	r1, [pc, #128]	; 8b10 <i2c_write+0xb4>
    8a8c:	e59f0080 	ldr	r0, [pc, #128]	; 8b14 <i2c_write+0xb8>
    8a90:	eb000081 	bl	8c9c <printk>
    8a94:	eb0001f0 	bl	925c <clean_reboot>
    8a98:	e7d51002 	ldrb	r1, [r5, r2]
    8a9c:	e59f3074 	ldr	r3, [pc, #116]	; 8b18 <i2c_write+0xbc>
    8aa0:	e5831010 	str	r1, [r3, #16]
    8aa4:	e2822001 	add	r2, r2, #1
    8aa8:	e1520004 	cmp	r2, r4
    8aac:	2a000012 	bcs	8afc <i2c_write+0xa0>
    8ab0:	e59f3060 	ldr	r3, [pc, #96]	; 8b18 <i2c_write+0xbc>
    8ab4:	e5933004 	ldr	r3, [r3, #4]
    8ab8:	e3130010 	tst	r3, #16
    8abc:	1afffff5 	bne	8a98 <i2c_write+0x3c>
    8ac0:	e59f3050 	ldr	r3, [pc, #80]	; 8b18 <i2c_write+0xbc>
    8ac4:	e5933004 	ldr	r3, [r3, #4]
    8ac8:	e3130c01 	tst	r3, #256	; 0x100
    8acc:	1affffea 	bne	8a7c <i2c_write+0x20>
    8ad0:	e59f3040 	ldr	r3, [pc, #64]	; 8b18 <i2c_write+0xbc>
    8ad4:	e5933004 	ldr	r3, [r3, #4]
    8ad8:	e3130c02 	tst	r3, #512	; 0x200
    8adc:	0afffff3 	beq	8ab0 <i2c_write+0x54>
    8ae0:	eb000088 	bl	8d08 <rpi_reset_putc>
    8ae4:	e59f301c 	ldr	r3, [pc, #28]	; 8b08 <i2c_write+0xac>
    8ae8:	e59f201c 	ldr	r2, [pc, #28]	; 8b0c <i2c_write+0xb0>
    8aec:	e59f101c 	ldr	r1, [pc, #28]	; 8b10 <i2c_write+0xb4>
    8af0:	e59f0024 	ldr	r0, [pc, #36]	; 8b1c <i2c_write+0xc0>
    8af4:	eb000068 	bl	8c9c <printk>
    8af8:	eb0001d7 	bl	925c <clean_reboot>
    8afc:	ebffff16 	bl	875c <xfer_end>
    8b00:	e3a00001 	mov	r0, #1
    8b04:	e8bd8070 	pop	{r4, r5, r6, pc}
    8b08:	00000123 	andeq	r0, r0, r3, lsr #2
    8b0c:	00009e30 	andeq	r9, r0, r0, lsr lr
    8b10:	00009e54 	andeq	r9, r0, r4, asr lr
    8b14:	00009f4c 	andeq	r9, r0, ip, asr #30
    8b18:	20804000 	addcs	r4, r0, r0
    8b1c:	00009f70 	andeq	r9, r0, r0, ror pc

00008b20 <i2c_read>:
    8b20:	e92d4070 	push	{r4, r5, r6, lr}
    8b24:	e1a05001 	mov	r5, r1
    8b28:	e1a04002 	mov	r4, r2
    8b2c:	e3a02001 	mov	r2, #1
    8b30:	e1a01004 	mov	r1, r4
    8b34:	ebffff56 	bl	8894 <xfer_start>
    8b38:	e3a02000 	mov	r2, #0
    8b3c:	ea00000a 	b	8b6c <i2c_read+0x4c>
    8b40:	eb000070 	bl	8d08 <rpi_reset_putc>
    8b44:	e3a03f4d 	mov	r3, #308	; 0x134
    8b48:	e59f207c 	ldr	r2, [pc, #124]	; 8bcc <i2c_read+0xac>
    8b4c:	e59f107c 	ldr	r1, [pc, #124]	; 8bd0 <i2c_read+0xb0>
    8b50:	e59f007c 	ldr	r0, [pc, #124]	; 8bd4 <i2c_read+0xb4>
    8b54:	eb000050 	bl	8c9c <printk>
    8b58:	eb0001bf 	bl	925c <clean_reboot>
    8b5c:	e59f3074 	ldr	r3, [pc, #116]	; 8bd8 <i2c_read+0xb8>
    8b60:	e5933010 	ldr	r3, [r3, #16]
    8b64:	e7c53002 	strb	r3, [r5, r2]
    8b68:	e2822001 	add	r2, r2, #1
    8b6c:	e1520004 	cmp	r2, r4
    8b70:	2a000012 	bcs	8bc0 <i2c_read+0xa0>
    8b74:	e59f305c 	ldr	r3, [pc, #92]	; 8bd8 <i2c_read+0xb8>
    8b78:	e5933004 	ldr	r3, [r3, #4]
    8b7c:	e3130020 	tst	r3, #32
    8b80:	1afffff5 	bne	8b5c <i2c_read+0x3c>
    8b84:	e59f304c 	ldr	r3, [pc, #76]	; 8bd8 <i2c_read+0xb8>
    8b88:	e5933004 	ldr	r3, [r3, #4]
    8b8c:	e3130c01 	tst	r3, #256	; 0x100
    8b90:	1affffea 	bne	8b40 <i2c_read+0x20>
    8b94:	e59f303c 	ldr	r3, [pc, #60]	; 8bd8 <i2c_read+0xb8>
    8b98:	e5933004 	ldr	r3, [r3, #4]
    8b9c:	e3130c02 	tst	r3, #512	; 0x200
    8ba0:	0afffff3 	beq	8b74 <i2c_read+0x54>
    8ba4:	eb000057 	bl	8d08 <rpi_reset_putc>
    8ba8:	e3a03f4d 	mov	r3, #308	; 0x134
    8bac:	e59f2018 	ldr	r2, [pc, #24]	; 8bcc <i2c_read+0xac>
    8bb0:	e59f1018 	ldr	r1, [pc, #24]	; 8bd0 <i2c_read+0xb0>
    8bb4:	e59f0020 	ldr	r0, [pc, #32]	; 8bdc <i2c_read+0xbc>
    8bb8:	eb000037 	bl	8c9c <printk>
    8bbc:	eb0001a6 	bl	925c <clean_reboot>
    8bc0:	ebfffee5 	bl	875c <xfer_end>
    8bc4:	e3a00001 	mov	r0, #1
    8bc8:	e8bd8070 	pop	{r4, r5, r6, pc}
    8bcc:	00009e3c 	andeq	r9, r0, ip, lsr lr
    8bd0:	00009e54 	andeq	r9, r0, r4, asr lr
    8bd4:	00009f4c 	andeq	r9, r0, ip, asr #30
    8bd8:	20804000 	addcs	r4, r0, r0
    8bdc:	00009f70 	andeq	r9, r0, r0, ror pc

00008be0 <i2c_is_initialized>:
    8be0:	e59f3004 	ldr	r3, [pc, #4]	; 8bec <i2c_is_initialized+0xc>
    8be4:	e5930000 	ldr	r0, [r3]
    8be8:	e12fff1e 	bx	lr
    8bec:	0000a158 	andeq	sl, r0, r8, asr r1

00008bf0 <i2c_init>:
    8bf0:	e92d4010 	push	{r4, lr}
    8bf4:	ebfffed6 	bl	8754 <check_layout>
    8bf8:	eb0003aa 	bl	9aa8 <dev_barrier>
    8bfc:	e3a01004 	mov	r1, #4
    8c00:	e3a00002 	mov	r0, #2
    8c04:	eb00028a 	bl	9634 <gpio_set_function>
    8c08:	e3a01004 	mov	r1, #4
    8c0c:	e3a00003 	mov	r0, #3
    8c10:	eb000287 	bl	9634 <gpio_set_function>
    8c14:	eb0003a3 	bl	9aa8 <dev_barrier>
    8c18:	e59f404c 	ldr	r4, [pc, #76]	; 8c6c <i2c_init+0x7c>
    8c1c:	e3a01902 	mov	r1, #32768	; 0x8000
    8c20:	e1a00004 	mov	r0, r4
    8c24:	eb0003a5 	bl	9ac0 <put32>
    8c28:	eb00039e 	bl	9aa8 <dev_barrier>
    8c2c:	ebffff0a 	bl	885c <reset_status>
    8c30:	eb00039c 	bl	9aa8 <dev_barrier>
    8c34:	e5943004 	ldr	r3, [r4, #4]
    8c38:	e3130001 	tst	r3, #1
    8c3c:	1a000003 	bne	8c50 <i2c_init+0x60>
    8c40:	e3a02001 	mov	r2, #1
    8c44:	e59f3024 	ldr	r3, [pc, #36]	; 8c70 <i2c_init+0x80>
    8c48:	e5832000 	str	r2, [r3]
    8c4c:	e8bd8010 	pop	{r4, pc}
    8c50:	eb00002c 	bl	8d08 <rpi_reset_putc>
    8c54:	e59f3018 	ldr	r3, [pc, #24]	; 8c74 <i2c_init+0x84>
    8c58:	e59f2018 	ldr	r2, [pc, #24]	; 8c78 <i2c_init+0x88>
    8c5c:	e59f1018 	ldr	r1, [pc, #24]	; 8c7c <i2c_init+0x8c>
    8c60:	e59f0018 	ldr	r0, [pc, #24]	; 8c80 <i2c_init+0x90>
    8c64:	eb00000c 	bl	8c9c <printk>
    8c68:	eb00017b 	bl	925c <clean_reboot>
    8c6c:	20804000 	addcs	r4, r0, r0
    8c70:	0000a158 	andeq	sl, r0, r8, asr r1
    8c74:	00000162 	andeq	r0, r0, r2, ror #2
    8c78:	00009e48 	andeq	r9, r0, r8, asr #28
    8c7c:	00009e54 	andeq	r9, r0, r4, asr lr
    8c80:	00009fa0 	andeq	r9, r0, r0, lsr #31

00008c84 <i2c_init_once>:
    8c84:	e92d4010 	push	{r4, lr}
    8c88:	ebffffd4 	bl	8be0 <i2c_is_initialized>
    8c8c:	e3500000 	cmp	r0, #0
    8c90:	18bd8010 	popne	{r4, pc}
    8c94:	ebffffd5 	bl	8bf0 <i2c_init>
    8c98:	e8bd8010 	pop	{r4, pc}

00008c9c <printk>:
    8c9c:	e92d000f 	push	{r0, r1, r2, r3}
    8ca0:	e92d4030 	push	{r4, r5, lr}
    8ca4:	e24dd00c 	sub	sp, sp, #12
    8ca8:	e28d301c 	add	r3, sp, #28
    8cac:	e58d3004 	str	r3, [sp, #4]
    8cb0:	e59f4034 	ldr	r4, [pc, #52]	; 8cec <printk+0x50>
    8cb4:	e1a00004 	mov	r0, r4
    8cb8:	e3a01b01 	mov	r1, #1024	; 0x400
    8cbc:	e59d2018 	ldr	r2, [sp, #24]
    8cc0:	eb0000c3 	bl	8fd4 <va_printk>
    8cc4:	e1a05000 	mov	r5, r0
    8cc8:	e59f3020 	ldr	r3, [pc, #32]	; 8cf0 <printk+0x54>
    8ccc:	e5933000 	ldr	r3, [r3]
    8cd0:	e1a00004 	mov	r0, r4
    8cd4:	e12fff33 	blx	r3
    8cd8:	e1a00005 	mov	r0, r5
    8cdc:	e28dd00c 	add	sp, sp, #12
    8ce0:	e8bd4030 	pop	{r4, r5, lr}
    8ce4:	e28dd010 	add	sp, sp, #16
    8ce8:	e12fff1e 	bx	lr
    8cec:	0000a15c 	andeq	sl, r0, ip, asr r1
    8cf0:	00009b10 	andeq	r9, r0, r0, lsl fp

00008cf4 <internal_putchar>:
    8cf4:	e92d4010 	push	{r4, lr}
    8cf8:	e1a04000 	mov	r4, r0
    8cfc:	eb000353 	bl	9a50 <uart_putc>
    8d00:	e1a00004 	mov	r0, r4
    8d04:	e8bd8010 	pop	{r4, pc}

00008d08 <rpi_reset_putc>:
    8d08:	e59f2008 	ldr	r2, [pc, #8]	; 8d18 <rpi_reset_putc+0x10>
    8d0c:	e59f3008 	ldr	r3, [pc, #8]	; 8d1c <rpi_reset_putc+0x14>
    8d10:	e5832000 	str	r2, [r3]
    8d14:	e12fff1e 	bx	lr
    8d18:	00008cf4 	strdeq	r8, [r0], -r4
    8d1c:	00009b0c 	andeq	r9, r0, ip, lsl #22

00008d20 <rpi_set_putc>:
    8d20:	e59f3004 	ldr	r3, [pc, #4]	; 8d2c <rpi_set_putc+0xc>
    8d24:	e5830000 	str	r0, [r3]
    8d28:	e12fff1e 	bx	lr
    8d2c:	00009b0c 	andeq	r9, r0, ip, lsl #22

00008d30 <internal_putk>:
    8d30:	e92d4038 	push	{r3, r4, r5, lr}
    8d34:	e1a04000 	mov	r4, r0
    8d38:	e59f5020 	ldr	r5, [pc, #32]	; 8d60 <internal_putk+0x30>
    8d3c:	ea000002 	b	8d4c <internal_putk+0x1c>
    8d40:	e5953000 	ldr	r3, [r5]
    8d44:	e12fff33 	blx	r3
    8d48:	e2844001 	add	r4, r4, #1
    8d4c:	e5d40000 	ldrb	r0, [r4]
    8d50:	e3500000 	cmp	r0, #0
    8d54:	1afffff9 	bne	8d40 <internal_putk+0x10>
    8d58:	e3a00001 	mov	r0, #1
    8d5c:	e8bd8038 	pop	{r3, r4, r5, pc}
    8d60:	00009b0c 	andeq	r9, r0, ip, lsl #22

00008d64 <isdigit>:
    8d64:	e2400030 	sub	r0, r0, #48	; 0x30
    8d68:	e3500009 	cmp	r0, #9
    8d6c:	83a00000 	movhi	r0, #0
    8d70:	93a00001 	movls	r0, #1
    8d74:	e12fff1e 	bx	lr

00008d78 <pad>:
    8d78:	e0611000 	rsb	r1, r1, r0
    8d7c:	e3a03020 	mov	r3, #32
    8d80:	ea000002 	b	8d90 <pad+0x18>
    8d84:	e5c03000 	strb	r3, [r0]
    8d88:	e2811001 	add	r1, r1, #1
    8d8c:	e2800001 	add	r0, r0, #1
    8d90:	e1510002 	cmp	r1, r2
    8d94:	bafffffa 	blt	8d84 <pad+0xc>
    8d98:	e3a03000 	mov	r3, #0
    8d9c:	e5c03000 	strb	r3, [r0]
    8da0:	e12fff1e 	bx	lr

00008da4 <reverse>:
    8da4:	e063c002 	rsb	ip, r3, r2
    8da8:	e28cc001 	add	ip, ip, #1
    8dac:	e15c0001 	cmp	ip, r1
    8db0:	c061100c 	rsbgt	r1, r1, ip
    8db4:	c0833001 	addgt	r3, r3, r1
    8db8:	e2422001 	sub	r2, r2, #1
    8dbc:	e1a01000 	mov	r1, r0
    8dc0:	ea000002 	b	8dd0 <reverse+0x2c>
    8dc4:	e452c001 	ldrb	ip, [r2], #-1
    8dc8:	e5c1c000 	strb	ip, [r1]
    8dcc:	e2811001 	add	r1, r1, #1
    8dd0:	e1520003 	cmp	r2, r3
    8dd4:	2afffffa 	bcs	8dc4 <reverse+0x20>
    8dd8:	e3a03000 	mov	r3, #0
    8ddc:	e5c13000 	strb	r3, [r1]
    8de0:	e12fff1e 	bx	lr

00008de4 <emit>:
    8de4:	e92d41f0 	push	{r4, r5, r6, r7, r8, lr}
    8de8:	e24dd040 	sub	sp, sp, #64	; 0x40
    8dec:	e1a05001 	mov	r5, r1
    8df0:	e1a04002 	mov	r4, r2
    8df4:	e59d2058 	ldr	r2, [sp, #88]	; 0x58
    8df8:	e1520004 	cmp	r2, r4
    8dfc:	c2442001 	subgt	r2, r4, #1
    8e00:	e1a0c003 	mov	ip, r3
    8e04:	e2400002 	sub	r0, r0, #2
    8e08:	e350000e 	cmp	r0, #14
    8e0c:	979ff100 	ldrls	pc, [pc, r0, lsl #2]
    8e10:	ea000042 	b	8f20 <emit+0x13c>
    8e14:	00008ef8 	strdeq	r8, [r0], -r8	; <UNPREDICTABLE>
    8e18:	00008f20 	andeq	r8, r0, r0, lsr #30
    8e1c:	00008f20 	andeq	r8, r0, r0, lsr #30
    8e20:	00008f20 	andeq	r8, r0, r0, lsr #30
    8e24:	00008f20 	andeq	r8, r0, r0, lsr #30
    8e28:	00008f20 	andeq	r8, r0, r0, lsr #30
    8e2c:	00008eec 	andeq	r8, r0, ip, ror #29
    8e30:	00008f20 	andeq	r8, r0, r0, lsr #30
    8e34:	00008e50 	andeq	r8, r0, r0, asr lr
    8e38:	00008f20 	andeq	r8, r0, r0, lsr #30
    8e3c:	00008f20 	andeq	r8, r0, r0, lsr #30
    8e40:	00008f20 	andeq	r8, r0, r0, lsr #30
    8e44:	00008f20 	andeq	r8, r0, r0, lsr #30
    8e48:	00008f20 	andeq	r8, r0, r0, lsr #30
    8e4c:	00008ec4 	andeq	r8, r0, r4, asr #29
    8e50:	e59d105c 	ldr	r1, [sp, #92]	; 0x5c
    8e54:	e2911000 	adds	r1, r1, #0
    8e58:	13a01001 	movne	r1, #1
    8e5c:	e0111fa3 	ands	r1, r1, r3, lsr #31
    8e60:	1263c000 	rsbne	ip, r3, #0
    8e64:	13a08001 	movne	r8, #1
    8e68:	03a08000 	moveq	r8, #0
    8e6c:	e1a0100d 	mov	r1, sp
    8e70:	e59f70ec 	ldr	r7, [pc, #236]	; 8f64 <emit+0x180>
    8e74:	e59f60ec 	ldr	r6, [pc, #236]	; 8f68 <emit+0x184>
    8e78:	ea000000 	b	8e80 <emit+0x9c>
    8e7c:	e1a01003 	mov	r1, r3
    8e80:	e2813001 	add	r3, r1, #1
    8e84:	e08e0c97 	umull	r0, lr, r7, ip
    8e88:	e1a0e1ae 	lsr	lr, lr, #3
    8e8c:	e1a0000e 	mov	r0, lr
    8e90:	e08ee10e 	add	lr, lr, lr, lsl #2
    8e94:	e1a0e08e 	lsl	lr, lr, #1
    8e98:	e06ee00c 	rsb	lr, lr, ip
    8e9c:	e7d6c00e 	ldrb	ip, [r6, lr]
    8ea0:	e5c1c000 	strb	ip, [r1]
    8ea4:	e1a0c000 	mov	ip, r0
    8ea8:	e3500000 	cmp	r0, #0
    8eac:	1afffff2 	bne	8e7c <emit+0x98>
    8eb0:	e3580000 	cmp	r8, #0
    8eb4:	12813002 	addne	r3, r1, #2
    8eb8:	13a0002d 	movne	r0, #45	; 0x2d
    8ebc:	15c10001 	strbne	r0, [r1, #1]
    8ec0:	ea00001d 	b	8f3c <emit+0x158>
    8ec4:	e1a0e00d 	mov	lr, sp
    8ec8:	e59f009c 	ldr	r0, [pc, #156]	; 8f6c <emit+0x188>
    8ecc:	e28e3001 	add	r3, lr, #1
    8ed0:	e20c100f 	and	r1, ip, #15
    8ed4:	e7d01001 	ldrb	r1, [r0, r1]
    8ed8:	e5ce1000 	strb	r1, [lr]
    8edc:	e1a0e003 	mov	lr, r3
    8ee0:	e1b0c22c 	lsrs	ip, ip, #4
    8ee4:	1afffff8 	bne	8ecc <emit+0xe8>
    8ee8:	ea000013 	b	8f3c <emit+0x158>
    8eec:	e5cd3000 	strb	r3, [sp]
    8ef0:	e28d3001 	add	r3, sp, #1
    8ef4:	ea000010 	b	8f3c <emit+0x158>
    8ef8:	e1a0e00d 	mov	lr, sp
    8efc:	e59f006c 	ldr	r0, [pc, #108]	; 8f70 <emit+0x18c>
    8f00:	e28e3001 	add	r3, lr, #1
    8f04:	e20c1001 	and	r1, ip, #1
    8f08:	e7d01001 	ldrb	r1, [r0, r1]
    8f0c:	e5ce1000 	strb	r1, [lr]
    8f10:	e1a0e003 	mov	lr, r3
    8f14:	e1b0c0ac 	lsrs	ip, ip, #1
    8f18:	1afffff8 	bne	8f00 <emit+0x11c>
    8f1c:	ea000006 	b	8f3c <emit+0x158>
    8f20:	ebffff78 	bl	8d08 <rpi_reset_putc>
    8f24:	e59f0048 	ldr	r0, [pc, #72]	; 8f74 <emit+0x190>
    8f28:	e59f1048 	ldr	r1, [pc, #72]	; 8f78 <emit+0x194>
    8f2c:	e59f2048 	ldr	r2, [pc, #72]	; 8f7c <emit+0x198>
    8f30:	e3a03075 	mov	r3, #117	; 0x75
    8f34:	ebffff58 	bl	8c9c <printk>
    8f38:	eb0000c7 	bl	925c <clean_reboot>
    8f3c:	e1a00003 	mov	r0, r3
    8f40:	e1a0100d 	mov	r1, sp
    8f44:	ebffff8b 	bl	8d78 <pad>
    8f48:	e1a02000 	mov	r2, r0
    8f4c:	e1a00005 	mov	r0, r5
    8f50:	e1a01004 	mov	r1, r4
    8f54:	e1a0300d 	mov	r3, sp
    8f58:	ebffff91 	bl	8da4 <reverse>
    8f5c:	e28dd040 	add	sp, sp, #64	; 0x40
    8f60:	e8bd81f0 	pop	{r4, r5, r6, r7, r8, pc}
    8f64:	cccccccd 	stclgt	12, cr12, [ip], {205}	; 0xcd
    8f68:	0000a094 	muleq	r0, r4, r0
    8f6c:	0000a0a0 	andeq	sl, r0, r0, lsr #1
    8f70:	0000a0b4 	strheq	sl, [r0], -r4
    8f74:	00009ca8 	andeq	r9, r0, r8, lsr #25
    8f78:	0000a080 	andeq	sl, r0, r0, lsl #1
    8f7c:	0000a05c 	andeq	sl, r0, ip, asr r0

00008f80 <rpi_set_output>:
    8f80:	e92d4008 	push	{r3, lr}
    8f84:	e3500000 	cmp	r0, #0
    8f88:	1a000006 	bne	8fa8 <rpi_set_output+0x28>
    8f8c:	ebffff5d 	bl	8d08 <rpi_reset_putc>
    8f90:	e59f0028 	ldr	r0, [pc, #40]	; 8fc0 <rpi_set_output+0x40>
    8f94:	e59f1028 	ldr	r1, [pc, #40]	; 8fc4 <rpi_set_output+0x44>
    8f98:	e59f2028 	ldr	r2, [pc, #40]	; 8fc8 <rpi_set_output+0x48>
    8f9c:	e3a03020 	mov	r3, #32
    8fa0:	ebffff3d 	bl	8c9c <printk>
    8fa4:	eb0000ac 	bl	925c <clean_reboot>
    8fa8:	e59f301c 	ldr	r3, [pc, #28]	; 8fcc <rpi_set_output+0x4c>
    8fac:	e5830000 	str	r0, [r3]
    8fb0:	e3510000 	cmp	r1, #0
    8fb4:	159f3014 	ldrne	r3, [pc, #20]	; 8fd0 <rpi_set_output+0x50>
    8fb8:	15831000 	strne	r1, [r3]
    8fbc:	e8bd8008 	pop	{r3, pc}
    8fc0:	0000a0b8 	strheq	sl, [r0], -r8
    8fc4:	0000a080 	andeq	sl, r0, r0, lsl #1
    8fc8:	0000a064 	andeq	sl, r0, r4, rrx
    8fcc:	00009b0c 	andeq	r9, r0, ip, lsl #22
    8fd0:	00009b10 	andeq	r9, r0, r0, lsl fp

00008fd4 <va_printk>:
    8fd4:	e92d4ff0 	push	{r4, r5, r6, r7, r8, r9, sl, fp, lr}
    8fd8:	e24dd08c 	sub	sp, sp, #140	; 0x8c
    8fdc:	e1a0a000 	mov	sl, r0
    8fe0:	e1a09003 	mov	r9, r3
    8fe4:	e2411001 	sub	r1, r1, #1
    8fe8:	e0808001 	add	r8, r0, r1
    8fec:	e3a03000 	mov	r3, #0
    8ff0:	e5c03000 	strb	r3, [r0]
    8ff4:	e1a04000 	mov	r4, r0
    8ff8:	e1a0b003 	mov	fp, r3
    8ffc:	ea000086 	b	921c <va_printk+0x248>
    9000:	e3530025 	cmp	r3, #37	; 0x25
    9004:	12822001 	addne	r2, r2, #1
    9008:	15c43000 	strbne	r3, [r4]
    900c:	12844001 	addne	r4, r4, #1
    9010:	1a000081 	bne	921c <va_printk+0x248>
    9014:	e5d21001 	ldrb	r1, [r2, #1]
    9018:	e3510025 	cmp	r1, #37	; 0x25
    901c:	05c43000 	strbeq	r3, [r4]
    9020:	02822002 	addeq	r2, r2, #2
    9024:	02844001 	addeq	r4, r4, #1
    9028:	0a00007b 	beq	921c <va_printk+0x248>
    902c:	e2826001 	add	r6, r2, #1
    9030:	e1a0700b 	mov	r7, fp
    9034:	ea000004 	b	904c <va_printk+0x78>
    9038:	e0877107 	add	r7, r7, r7, lsl #2
    903c:	e1a07087 	lsl	r7, r7, #1
    9040:	e0877005 	add	r7, r7, r5
    9044:	e2477030 	sub	r7, r7, #48	; 0x30
    9048:	e2866001 	add	r6, r6, #1
    904c:	e5d65000 	ldrb	r5, [r6]
    9050:	e1a00005 	mov	r0, r5
    9054:	ebffff42 	bl	8d64 <isdigit>
    9058:	e3500000 	cmp	r0, #0
    905c:	1afffff5 	bne	9038 <va_printk+0x64>
    9060:	e357001f 	cmp	r7, #31
    9064:	9a000006 	bls	9084 <va_printk+0xb0>
    9068:	ebffff26 	bl	8d08 <rpi_reset_putc>
    906c:	e59f01d4 	ldr	r0, [pc, #468]	; 9248 <va_printk+0x274>
    9070:	e59f11d4 	ldr	r1, [pc, #468]	; 924c <va_printk+0x278>
    9074:	e59f21d4 	ldr	r2, [pc, #468]	; 9250 <va_printk+0x27c>
    9078:	e3a03092 	mov	r3, #146	; 0x92
    907c:	ebffff06 	bl	8c9c <printk>
    9080:	eb000075 	bl	925c <clean_reboot>
    9084:	e2455062 	sub	r5, r5, #98	; 0x62
    9088:	e3550016 	cmp	r5, #22
    908c:	979ff105 	ldrls	pc, [pc, r5, lsl #2]
    9090:	ea00004e 	b	91d0 <va_printk+0x1fc>
    9094:	0000917c 	andeq	r9, r0, ip, ror r1
    9098:	000091ac 	andeq	r9, r0, ip, lsr #3
    909c:	0000910c 	andeq	r9, r0, ip, lsl #2
    90a0:	000091d0 	ldrdeq	r9, [r0], -r0
    90a4:	000090f0 	strdeq	r9, [r0], -r0
    90a8:	000091d0 	ldrdeq	r9, [r0], -r0
    90ac:	000091d0 	ldrdeq	r9, [r0], -r0
    90b0:	000091d0 	ldrdeq	r9, [r0], -r0
    90b4:	000091d0 	ldrdeq	r9, [r0], -r0
    90b8:	000091d0 	ldrdeq	r9, [r0], -r0
    90bc:	000091d0 	ldrdeq	r9, [r0], -r0
    90c0:	000091d0 	ldrdeq	r9, [r0], -r0
    90c4:	000091d0 	ldrdeq	r9, [r0], -r0
    90c8:	000091d0 	ldrdeq	r9, [r0], -r0
    90cc:	00009158 	andeq	r9, r0, r8, asr r1
    90d0:	000091d0 	ldrdeq	r9, [r0], -r0
    90d4:	000091d0 	ldrdeq	r9, [r0], -r0
    90d8:	000091a0 	andeq	r9, r0, r0, lsr #3
    90dc:	000091d0 	ldrdeq	r9, [r0], -r0
    90e0:	00009134 	andeq	r9, r0, r4, lsr r1
    90e4:	000091d0 	ldrdeq	r9, [r0], -r0
    90e8:	000091d0 	ldrdeq	r9, [r0], -r0
    90ec:	00009158 	andeq	r9, r0, r8, asr r1
    90f0:	ebffff04 	bl	8d08 <rpi_reset_putc>
    90f4:	e59f0158 	ldr	r0, [pc, #344]	; 9254 <va_printk+0x280>
    90f8:	e59f114c 	ldr	r1, [pc, #332]	; 924c <va_printk+0x278>
    90fc:	e59f214c 	ldr	r2, [pc, #332]	; 9250 <va_printk+0x27c>
    9100:	e3a03098 	mov	r3, #152	; 0x98
    9104:	ebfffee4 	bl	8c9c <printk>
    9108:	eb000053 	bl	925c <clean_reboot>
    910c:	e5993000 	ldr	r3, [r9]
    9110:	e2899004 	add	r9, r9, #4
    9114:	e58d7000 	str	r7, [sp]
    9118:	e3a02001 	mov	r2, #1
    911c:	e58d2004 	str	r2, [sp, #4]
    9120:	e3a0000a 	mov	r0, #10
    9124:	e28d1008 	add	r1, sp, #8
    9128:	e3a02080 	mov	r2, #128	; 0x80
    912c:	ebffff2c 	bl	8de4 <emit>
    9130:	ea00002f 	b	91f4 <va_printk+0x220>
    9134:	e5993000 	ldr	r3, [r9]
    9138:	e2899004 	add	r9, r9, #4
    913c:	e58d7000 	str	r7, [sp]
    9140:	e58db004 	str	fp, [sp, #4]
    9144:	e3a0000a 	mov	r0, #10
    9148:	e28d1008 	add	r1, sp, #8
    914c:	e3a02080 	mov	r2, #128	; 0x80
    9150:	ebffff23 	bl	8de4 <emit>
    9154:	ea000026 	b	91f4 <va_printk+0x220>
    9158:	e5993000 	ldr	r3, [r9]
    915c:	e2899004 	add	r9, r9, #4
    9160:	e58d7000 	str	r7, [sp]
    9164:	e58db004 	str	fp, [sp, #4]
    9168:	e3a00010 	mov	r0, #16
    916c:	e28d1008 	add	r1, sp, #8
    9170:	e3a02080 	mov	r2, #128	; 0x80
    9174:	ebffff1a 	bl	8de4 <emit>
    9178:	ea00001d 	b	91f4 <va_printk+0x220>
    917c:	e5993000 	ldr	r3, [r9]
    9180:	e2899004 	add	r9, r9, #4
    9184:	e58d7000 	str	r7, [sp]
    9188:	e58db004 	str	fp, [sp, #4]
    918c:	e3a00002 	mov	r0, #2
    9190:	e28d1008 	add	r1, sp, #8
    9194:	e3a02080 	mov	r2, #128	; 0x80
    9198:	ebffff11 	bl	8de4 <emit>
    919c:	ea000014 	b	91f4 <va_printk+0x220>
    91a0:	e5990000 	ldr	r0, [r9]
    91a4:	e2899004 	add	r9, r9, #4
    91a8:	ea000011 	b	91f4 <va_printk+0x220>
    91ac:	e5993000 	ldr	r3, [r9]
    91b0:	e2899004 	add	r9, r9, #4
    91b4:	e58d7000 	str	r7, [sp]
    91b8:	e58db004 	str	fp, [sp, #4]
    91bc:	e3a00008 	mov	r0, #8
    91c0:	e08d1000 	add	r1, sp, r0
    91c4:	e3a02080 	mov	r2, #128	; 0x80
    91c8:	ebffff05 	bl	8de4 <emit>
    91cc:	ea000008 	b	91f4 <va_printk+0x220>
    91d0:	ebfffecc 	bl	8d08 <rpi_reset_putc>
    91d4:	e5d63000 	ldrb	r3, [r6]
    91d8:	e58d3000 	str	r3, [sp]
    91dc:	e59f0074 	ldr	r0, [pc, #116]	; 9258 <va_printk+0x284>
    91e0:	e59f1064 	ldr	r1, [pc, #100]	; 924c <va_printk+0x278>
    91e4:	e59f2064 	ldr	r2, [pc, #100]	; 9250 <va_printk+0x27c>
    91e8:	e3a030b9 	mov	r3, #185	; 0xb9
    91ec:	ebfffeaa 	bl	8c9c <printk>
    91f0:	eb000019 	bl	925c <clean_reboot>
    91f4:	e2862001 	add	r2, r6, #1
    91f8:	ea000002 	b	9208 <va_printk+0x234>
    91fc:	e2800001 	add	r0, r0, #1
    9200:	e5c43000 	strb	r3, [r4]
    9204:	e2844001 	add	r4, r4, #1
    9208:	e1540008 	cmp	r4, r8
    920c:	2a000002 	bcs	921c <va_printk+0x248>
    9210:	e5d03000 	ldrb	r3, [r0]
    9214:	e3530000 	cmp	r3, #0
    9218:	1afffff7 	bne	91fc <va_printk+0x228>
    921c:	e5d23000 	ldrb	r3, [r2]
    9220:	e3530000 	cmp	r3, #0
    9224:	0a000001 	beq	9230 <va_printk+0x25c>
    9228:	e1540008 	cmp	r4, r8
    922c:	3affff73 	bcc	9000 <va_printk+0x2c>
    9230:	e2840001 	add	r0, r4, #1
    9234:	e3a03000 	mov	r3, #0
    9238:	e5c43000 	strb	r3, [r4]
    923c:	e06a0000 	rsb	r0, sl, r0
    9240:	e28dd08c 	add	sp, sp, #140	; 0x8c
    9244:	e8bd8ff0 	pop	{r4, r5, r6, r7, r8, r9, sl, fp, pc}
    9248:	0000a0d0 	ldrdeq	sl, [r0], -r0
    924c:	0000a080 	andeq	sl, r0, r0, lsl #1
    9250:	0000a074 	andeq	sl, r0, r4, ror r0
    9254:	0000a0ec 	andeq	sl, r0, ip, ror #1
    9258:	0000a114 	andeq	sl, r0, r4, lsl r1

0000925c <clean_reboot>:
    925c:	e92d4008 	push	{r3, lr}
    9260:	e59f3014 	ldr	r3, [pc, #20]	; 927c <clean_reboot+0x20>
    9264:	e5933000 	ldr	r3, [r3]
    9268:	e59f0010 	ldr	r0, [pc, #16]	; 9280 <clean_reboot+0x24>
    926c:	e12fff33 	blx	r3
    9270:	e3a00064 	mov	r0, #100	; 0x64
    9274:	eb000044 	bl	938c <delay_ms>
    9278:	eb000019 	bl	92e4 <rpi_reboot>
    927c:	00009b10 	andeq	r9, r0, r0, lsl fp
    9280:	0000a14c 	andeq	sl, r0, ip, asr #2

00009284 <_cstart>:
    9284:	e92d4008 	push	{r3, lr}
    9288:	e59f3020 	ldr	r3, [pc, #32]	; 92b0 <_cstart+0x2c>
    928c:	e59f2020 	ldr	r2, [pc, #32]	; 92b4 <_cstart+0x30>
    9290:	e3a01000 	mov	r1, #0
    9294:	ea000001 	b	92a0 <_cstart+0x1c>
    9298:	e5831000 	str	r1, [r3]
    929c:	e2833004 	add	r3, r3, #4
    92a0:	e1530002 	cmp	r3, r2
    92a4:	3afffffb 	bcc	9298 <_cstart+0x14>
    92a8:	ebfffd01 	bl	86b4 <notmain>
    92ac:	eb00000c 	bl	92e4 <rpi_reboot>
    92b0:	0000a158 	andeq	sl, r0, r8, asr r1
    92b4:	0000a560 	andeq	sl, r0, r0, ror #10

000092b8 <at_user_level>:
    92b8:	e10f0000 	mrs	r0, CPSR
    92bc:	e200001f 	and	r0, r0, #31
    92c0:	e3500010 	cmp	r0, #16
    92c4:	13a00000 	movne	r0, #0
    92c8:	03a00001 	moveq	r0, #1
    92cc:	e12fff1e 	bx	lr

000092d0 <set_user_level>:
    92d0:	e10f3000 	mrs	r3, CPSR
    92d4:	e3c3301f 	bic	r3, r3, #31
    92d8:	e3833010 	orr	r3, r3, #16
    92dc:	e129f003 	msr	CPSR_fc, r3
    92e0:	e12fff1e 	bx	lr

000092e4 <rpi_reboot>:
    92e4:	e92d4008 	push	{r3, lr}
    92e8:	ebfffff2 	bl	92b8 <at_user_level>
    92ec:	e3500000 	cmp	r0, #0
    92f0:	0a000000 	beq	92f8 <rpi_reboot+0x14>
    92f4:	ebfffff5 	bl	92d0 <set_user_level>
    92f8:	e3a0001e 	mov	r0, #30
    92fc:	eb000022 	bl	938c <delay_ms>
    9300:	e59f0014 	ldr	r0, [pc, #20]	; 931c <rpi_reboot+0x38>
    9304:	e59f1014 	ldr	r1, [pc, #20]	; 9320 <rpi_reboot+0x3c>
    9308:	eb0001ee 	bl	9ac8 <PUT32>
    930c:	e59f0010 	ldr	r0, [pc, #16]	; 9324 <rpi_reboot+0x40>
    9310:	e59f1010 	ldr	r1, [pc, #16]	; 9328 <rpi_reboot+0x44>
    9314:	eb0001eb 	bl	9ac8 <PUT32>
    9318:	eafffffe 	b	9318 <rpi_reboot+0x34>
    931c:	20100024 	andscs	r0, r0, r4, lsr #32
    9320:	5a000001 	bpl	932c <delay_cycles>
    9324:	2010001c 	andscs	r0, r0, ip, lsl r0
    9328:	5a000020 	bpl	93b0 <delay_sec+0x10>

0000932c <delay_cycles>:
    932c:	ea000001 	b	9338 <delay_cycles+0xc>
    9330:	e2811000 	add	r1, r1, #0
    9334:	e1a00003 	mov	r0, r3
    9338:	e2403001 	sub	r3, r0, #1
    933c:	e3500000 	cmp	r0, #0
    9340:	1afffffa 	bne	9330 <delay_cycles+0x4>
    9344:	e12fff1e 	bx	lr

00009348 <timer_get_usec_raw>:
    9348:	e92d4008 	push	{r3, lr}
    934c:	e59f0004 	ldr	r0, [pc, #4]	; 9358 <timer_get_usec_raw+0x10>
    9350:	eb0001e8 	bl	9af8 <GET32>
    9354:	e8bd8008 	pop	{r3, pc}
    9358:	20003004 	andcs	r3, r0, r4

0000935c <timer_get_usec>:
    935c:	e92d4008 	push	{r3, lr}
    9360:	ebfffff8 	bl	9348 <timer_get_usec_raw>
    9364:	e8bd8008 	pop	{r3, pc}

00009368 <delay_us>:
    9368:	e92d4038 	push	{r3, r4, r5, lr}
    936c:	e1a05000 	mov	r5, r0
    9370:	ebfffff9 	bl	935c <timer_get_usec>
    9374:	e1a04000 	mov	r4, r0
    9378:	ebfffff7 	bl	935c <timer_get_usec>
    937c:	e0640000 	rsb	r0, r4, r0
    9380:	e1500005 	cmp	r0, r5
    9384:	3afffffb 	bcc	9378 <delay_us+0x10>
    9388:	e8bd8038 	pop	{r3, r4, r5, pc}

0000938c <delay_ms>:
    938c:	e92d4008 	push	{r3, lr}
    9390:	e3a03ffa 	mov	r3, #1000	; 0x3e8
    9394:	e0000093 	mul	r0, r3, r0
    9398:	ebfffff2 	bl	9368 <delay_us>
    939c:	e8bd8008 	pop	{r3, pc}

000093a0 <delay_sec>:
    93a0:	e92d4008 	push	{r3, lr}
    93a4:	e3a03ffa 	mov	r3, #1000	; 0x3e8
    93a8:	e0000093 	mul	r0, r3, r0
    93ac:	ebfffff6 	bl	938c <delay_ms>
    93b0:	e8bd8008 	pop	{r3, pc}

000093b4 <gpio_set_output>:
    93b4:	e92d4038 	push	{r3, r4, r5, lr}
    93b8:	e1a04000 	mov	r4, r0
    93bc:	e350001f 	cmp	r0, #31
    93c0:	88bd8038 	pophi	{r3, r4, r5, pc}
    93c4:	e59f30b4 	ldr	r3, [pc, #180]	; 9480 <gpio_set_output+0xcc>
    93c8:	e0832093 	umull	r2, r3, r3, r0
    93cc:	e1a031a3 	lsr	r3, r3, #3
    93d0:	e3530005 	cmp	r3, #5
    93d4:	979ff103 	ldrls	pc, [pc, r3, lsl #2]
    93d8:	ea000017 	b	943c <gpio_set_output+0x88>
    93dc:	000093f4 	strdeq	r9, [r0], -r4
    93e0:	00009400 	andeq	r9, r0, r0, lsl #8
    93e4:	0000940c 	andeq	r9, r0, ip, lsl #8
    93e8:	00009418 	andeq	r9, r0, r8, lsl r4
    93ec:	00009424 	andeq	r9, r0, r4, lsr #8
    93f0:	00009430 	andeq	r9, r0, r0, lsr r4
    93f4:	e59f3088 	ldr	r3, [pc, #136]	; 9484 <gpio_set_output+0xd0>
    93f8:	e5935000 	ldr	r5, [r3]
    93fc:	ea00000f 	b	9440 <gpio_set_output+0x8c>
    9400:	e59f307c 	ldr	r3, [pc, #124]	; 9484 <gpio_set_output+0xd0>
    9404:	e5935004 	ldr	r5, [r3, #4]
    9408:	ea00000c 	b	9440 <gpio_set_output+0x8c>
    940c:	e59f3070 	ldr	r3, [pc, #112]	; 9484 <gpio_set_output+0xd0>
    9410:	e5935008 	ldr	r5, [r3, #8]
    9414:	ea000009 	b	9440 <gpio_set_output+0x8c>
    9418:	e59f3064 	ldr	r3, [pc, #100]	; 9484 <gpio_set_output+0xd0>
    941c:	e593500c 	ldr	r5, [r3, #12]
    9420:	ea000006 	b	9440 <gpio_set_output+0x8c>
    9424:	e59f3058 	ldr	r3, [pc, #88]	; 9484 <gpio_set_output+0xd0>
    9428:	e5935010 	ldr	r5, [r3, #16]
    942c:	ea000003 	b	9440 <gpio_set_output+0x8c>
    9430:	e59f304c 	ldr	r3, [pc, #76]	; 9484 <gpio_set_output+0xd0>
    9434:	e5935014 	ldr	r5, [r3, #20]
    9438:	ea000000 	b	9440 <gpio_set_output+0x8c>
    943c:	e3a05000 	mov	r5, #0
    9440:	e1a00005 	mov	r0, r5
    9444:	eb0001a9 	bl	9af0 <get32>
    9448:	e59f1030 	ldr	r1, [pc, #48]	; 9480 <gpio_set_output+0xcc>
    944c:	e0813491 	umull	r3, r1, r1, r4
    9450:	e1a011a1 	lsr	r1, r1, #3
    9454:	e0811101 	add	r1, r1, r1, lsl #2
    9458:	e1a01081 	lsl	r1, r1, #1
    945c:	e0611004 	rsb	r1, r1, r4
    9460:	e0811081 	add	r1, r1, r1, lsl #1
    9464:	e3a03007 	mov	r3, #7
    9468:	e1c03113 	bic	r3, r0, r3, lsl r1
    946c:	e1a00005 	mov	r0, r5
    9470:	e3a02001 	mov	r2, #1
    9474:	e1831112 	orr	r1, r3, r2, lsl r1
    9478:	eb000190 	bl	9ac0 <put32>
    947c:	e8bd8038 	pop	{r3, r4, r5, pc}
    9480:	cccccccd 	stclgt	12, cr12, [ip], {205}	; 0xcd
    9484:	00009b14 	andeq	r9, r0, r4, lsl fp

00009488 <gpio_set_on>:
    9488:	e92d4008 	push	{r3, lr}
    948c:	e350001f 	cmp	r0, #31
    9490:	88bd8008 	pophi	{r3, pc}
    9494:	959f3020 	ldrls	r3, [pc, #32]	; 94bc <gpio_set_on+0x34>
    9498:	95932018 	ldrls	r2, [r3, #24]
    949c:	859f3018 	ldrhi	r3, [pc, #24]	; 94bc <gpio_set_on+0x34>
    94a0:	8593201c 	ldrhi	r2, [r3, #28]
    94a4:	e200301f 	and	r3, r0, #31
    94a8:	e1a00002 	mov	r0, r2
    94ac:	e3a01001 	mov	r1, #1
    94b0:	e1a01311 	lsl	r1, r1, r3
    94b4:	eb000181 	bl	9ac0 <put32>
    94b8:	e8bd8008 	pop	{r3, pc}
    94bc:	00009b14 	andeq	r9, r0, r4, lsl fp

000094c0 <gpio_set_off>:
    94c0:	e92d4008 	push	{r3, lr}
    94c4:	e350001f 	cmp	r0, #31
    94c8:	88bd8008 	pophi	{r3, pc}
    94cc:	959f3020 	ldrls	r3, [pc, #32]	; 94f4 <gpio_set_off+0x34>
    94d0:	95932020 	ldrls	r2, [r3, #32]
    94d4:	859f3018 	ldrhi	r3, [pc, #24]	; 94f4 <gpio_set_off+0x34>
    94d8:	85932024 	ldrhi	r2, [r3, #36]	; 0x24
    94dc:	e200301f 	and	r3, r0, #31
    94e0:	e1a00002 	mov	r0, r2
    94e4:	e3a01001 	mov	r1, #1
    94e8:	e1a01311 	lsl	r1, r1, r3
    94ec:	eb000173 	bl	9ac0 <put32>
    94f0:	e8bd8008 	pop	{r3, pc}
    94f4:	00009b14 	andeq	r9, r0, r4, lsl fp

000094f8 <gpio_set_input>:
    94f8:	e92d4038 	push	{r3, r4, r5, lr}
    94fc:	e1a04000 	mov	r4, r0
    9500:	e350001f 	cmp	r0, #31
    9504:	88bd8038 	pophi	{r3, r4, r5, pc}
    9508:	e59f30ac 	ldr	r3, [pc, #172]	; 95bc <gpio_set_input+0xc4>
    950c:	e0832093 	umull	r2, r3, r3, r0
    9510:	e1a031a3 	lsr	r3, r3, #3
    9514:	e3530005 	cmp	r3, #5
    9518:	979ff103 	ldrls	pc, [pc, r3, lsl #2]
    951c:	ea000017 	b	9580 <gpio_set_input+0x88>
    9520:	00009538 	andeq	r9, r0, r8, lsr r5
    9524:	00009544 	andeq	r9, r0, r4, asr #10
    9528:	00009550 	andeq	r9, r0, r0, asr r5
    952c:	0000955c 	andeq	r9, r0, ip, asr r5
    9530:	00009568 	andeq	r9, r0, r8, ror #10
    9534:	00009574 	andeq	r9, r0, r4, ror r5
    9538:	e59f3080 	ldr	r3, [pc, #128]	; 95c0 <gpio_set_input+0xc8>
    953c:	e5935000 	ldr	r5, [r3]
    9540:	ea00000f 	b	9584 <gpio_set_input+0x8c>
    9544:	e59f3074 	ldr	r3, [pc, #116]	; 95c0 <gpio_set_input+0xc8>
    9548:	e5935004 	ldr	r5, [r3, #4]
    954c:	ea00000c 	b	9584 <gpio_set_input+0x8c>
    9550:	e59f3068 	ldr	r3, [pc, #104]	; 95c0 <gpio_set_input+0xc8>
    9554:	e5935008 	ldr	r5, [r3, #8]
    9558:	ea000009 	b	9584 <gpio_set_input+0x8c>
    955c:	e59f305c 	ldr	r3, [pc, #92]	; 95c0 <gpio_set_input+0xc8>
    9560:	e593500c 	ldr	r5, [r3, #12]
    9564:	ea000006 	b	9584 <gpio_set_input+0x8c>
    9568:	e59f3050 	ldr	r3, [pc, #80]	; 95c0 <gpio_set_input+0xc8>
    956c:	e5935010 	ldr	r5, [r3, #16]
    9570:	ea000003 	b	9584 <gpio_set_input+0x8c>
    9574:	e59f3044 	ldr	r3, [pc, #68]	; 95c0 <gpio_set_input+0xc8>
    9578:	e5935014 	ldr	r5, [r3, #20]
    957c:	ea000000 	b	9584 <gpio_set_input+0x8c>
    9580:	e3a05000 	mov	r5, #0
    9584:	e1a00005 	mov	r0, r5
    9588:	eb000158 	bl	9af0 <get32>
    958c:	e59f1028 	ldr	r1, [pc, #40]	; 95bc <gpio_set_input+0xc4>
    9590:	e0813491 	umull	r3, r1, r1, r4
    9594:	e1a011a1 	lsr	r1, r1, #3
    9598:	e0811101 	add	r1, r1, r1, lsl #2
    959c:	e1a01081 	lsl	r1, r1, #1
    95a0:	e0611004 	rsb	r1, r1, r4
    95a4:	e0811081 	add	r1, r1, r1, lsl #1
    95a8:	e3a03007 	mov	r3, #7
    95ac:	e1c01113 	bic	r1, r0, r3, lsl r1
    95b0:	e1a00005 	mov	r0, r5
    95b4:	eb000141 	bl	9ac0 <put32>
    95b8:	e8bd8038 	pop	{r3, r4, r5, pc}
    95bc:	cccccccd 	stclgt	12, cr12, [ip], {205}	; 0xcd
    95c0:	00009b14 	andeq	r9, r0, r4, lsl fp

000095c4 <gpio_read>:
    95c4:	e92d4010 	push	{r4, lr}
    95c8:	e1a04000 	mov	r4, r0
    95cc:	e350001f 	cmp	r0, #31
    95d0:	8a00000b 	bhi	9604 <gpio_read+0x40>
    95d4:	8a000003 	bhi	95e8 <gpio_read+0x24>
    95d8:	e59f302c 	ldr	r3, [pc, #44]	; 960c <gpio_read+0x48>
    95dc:	e5930028 	ldr	r0, [r3, #40]	; 0x28
    95e0:	eb000142 	bl	9af0 <get32>
    95e4:	ea000002 	b	95f4 <gpio_read+0x30>
    95e8:	e59f301c 	ldr	r3, [pc, #28]	; 960c <gpio_read+0x48>
    95ec:	e593002c 	ldr	r0, [r3, #44]	; 0x2c
    95f0:	eb00013e 	bl	9af0 <get32>
    95f4:	e204401f 	and	r4, r4, #31
    95f8:	e3a03001 	mov	r3, #1
    95fc:	e0000413 	and	r0, r0, r3, lsl r4
    9600:	e8bd8010 	pop	{r4, pc}
    9604:	e3e00000 	mvn	r0, #0
    9608:	e8bd8010 	pop	{r4, pc}
    960c:	00009b14 	andeq	r9, r0, r4, lsl fp

00009610 <gpio_write>:
    9610:	e92d4008 	push	{r3, lr}
    9614:	e350001f 	cmp	r0, #31
    9618:	88bd8008 	pophi	{r3, pc}
    961c:	e3510000 	cmp	r1, #0
    9620:	0a000001 	beq	962c <gpio_write+0x1c>
    9624:	ebffff97 	bl	9488 <gpio_set_on>
    9628:	e8bd8008 	pop	{r3, pc}
    962c:	ebffffa3 	bl	94c0 <gpio_set_off>
    9630:	e8bd8008 	pop	{r3, pc}

00009634 <gpio_set_function>:
    9634:	e92d4070 	push	{r4, r5, r6, lr}
    9638:	e1a04000 	mov	r4, r0
    963c:	e1a05001 	mov	r5, r1
    9640:	e3510007 	cmp	r1, #7
    9644:	9350001f 	cmpls	r0, #31
    9648:	88bd8070 	pophi	{r4, r5, r6, pc}
    964c:	e59f30b0 	ldr	r3, [pc, #176]	; 9704 <gpio_set_function+0xd0>
    9650:	e0832093 	umull	r2, r3, r3, r0
    9654:	e1a031a3 	lsr	r3, r3, #3
    9658:	e3530005 	cmp	r3, #5
    965c:	979ff103 	ldrls	pc, [pc, r3, lsl #2]
    9660:	ea000017 	b	96c4 <gpio_set_function+0x90>
    9664:	0000967c 	andeq	r9, r0, ip, ror r6
    9668:	00009688 	andeq	r9, r0, r8, lsl #13
    966c:	00009694 	muleq	r0, r4, r6
    9670:	000096a0 	andeq	r9, r0, r0, lsr #13
    9674:	000096ac 	andeq	r9, r0, ip, lsr #13
    9678:	000096b8 			; <UNDEFINED> instruction: 0x000096b8
    967c:	e59f3084 	ldr	r3, [pc, #132]	; 9708 <gpio_set_function+0xd4>
    9680:	e5936000 	ldr	r6, [r3]
    9684:	ea00000f 	b	96c8 <gpio_set_function+0x94>
    9688:	e59f3078 	ldr	r3, [pc, #120]	; 9708 <gpio_set_function+0xd4>
    968c:	e5936004 	ldr	r6, [r3, #4]
    9690:	ea00000c 	b	96c8 <gpio_set_function+0x94>
    9694:	e59f306c 	ldr	r3, [pc, #108]	; 9708 <gpio_set_function+0xd4>
    9698:	e5936008 	ldr	r6, [r3, #8]
    969c:	ea000009 	b	96c8 <gpio_set_function+0x94>
    96a0:	e59f3060 	ldr	r3, [pc, #96]	; 9708 <gpio_set_function+0xd4>
    96a4:	e593600c 	ldr	r6, [r3, #12]
    96a8:	ea000006 	b	96c8 <gpio_set_function+0x94>
    96ac:	e59f3054 	ldr	r3, [pc, #84]	; 9708 <gpio_set_function+0xd4>
    96b0:	e5936010 	ldr	r6, [r3, #16]
    96b4:	ea000003 	b	96c8 <gpio_set_function+0x94>
    96b8:	e59f3048 	ldr	r3, [pc, #72]	; 9708 <gpio_set_function+0xd4>
    96bc:	e5936014 	ldr	r6, [r3, #20]
    96c0:	ea000000 	b	96c8 <gpio_set_function+0x94>
    96c4:	e3a06000 	mov	r6, #0
    96c8:	e1a00006 	mov	r0, r6
    96cc:	eb000107 	bl	9af0 <get32>
    96d0:	e59f302c 	ldr	r3, [pc, #44]	; 9704 <gpio_set_function+0xd0>
    96d4:	e0832493 	umull	r2, r3, r3, r4
    96d8:	e1a031a3 	lsr	r3, r3, #3
    96dc:	e0833103 	add	r3, r3, r3, lsl #2
    96e0:	e1a03083 	lsl	r3, r3, #1
    96e4:	e0633004 	rsb	r3, r3, r4
    96e8:	e0833083 	add	r3, r3, r3, lsl #1
    96ec:	e3a01007 	mov	r1, #7
    96f0:	e1c01311 	bic	r1, r0, r1, lsl r3
    96f4:	e1a00006 	mov	r0, r6
    96f8:	e1811315 	orr	r1, r1, r5, lsl r3
    96fc:	eb0000ef 	bl	9ac0 <put32>
    9700:	e8bd8070 	pop	{r4, r5, r6, pc}
    9704:	cccccccd 	stclgt	12, cr12, [ip], {205}	; 0xcd
    9708:	00009b14 	andeq	r9, r0, r4, lsl fp

0000970c <gpio_toggle>:
    970c:	e92d4008 	push	{r3, lr}
    9710:	e350001f 	cmp	r0, #31
    9714:	88bd8008 	pophi	{r3, pc}
    9718:	959f3020 	ldrls	r3, [pc, #32]	; 9740 <gpio_toggle+0x34>
    971c:	95932018 	ldrls	r2, [r3, #24]
    9720:	859f3018 	ldrhi	r3, [pc, #24]	; 9740 <gpio_toggle+0x34>
    9724:	8593201c 	ldrhi	r2, [r3, #28]
    9728:	e200301f 	and	r3, r0, #31
    972c:	e1a00002 	mov	r0, r2
    9730:	e3a01001 	mov	r1, #1
    9734:	e1a01311 	lsl	r1, r1, r3
    9738:	eb0000e0 	bl	9ac0 <put32>
    973c:	e8bd8008 	pop	{r3, pc}
    9740:	00009b14 	andeq	r9, r0, r4, lsl fp

00009744 <is_gpio_int>:
    9744:	e92d4008 	push	{r3, lr}
    9748:	e59f301c 	ldr	r3, [pc, #28]	; 976c <is_gpio_int+0x28>
    974c:	e5930030 	ldr	r0, [r3, #48]	; 0x30
    9750:	eb0000e6 	bl	9af0 <get32>
    9754:	e3500000 	cmp	r0, #0
    9758:	0a000001 	beq	9764 <is_gpio_int+0x20>
    975c:	e3a00001 	mov	r0, #1
    9760:	e8bd8008 	pop	{r3, pc}
    9764:	e3a00000 	mov	r0, #0
    9768:	e8bd8008 	pop	{r3, pc}
    976c:	00009b14 	andeq	r9, r0, r4, lsl fp

00009770 <gpio_int_rising_edge>:
    9770:	e92d4038 	push	{r3, r4, r5, lr}
    9774:	e1a04000 	mov	r4, r0
    9778:	e350001f 	cmp	r0, #31
    977c:	88bd8038 	pophi	{r3, r4, r5, pc}
    9780:	eb0000c8 	bl	9aa8 <dev_barrier>
    9784:	e354001f 	cmp	r4, #31
    9788:	8a000007 	bhi	97ac <gpio_int_rising_edge+0x3c>
    978c:	e59f505c 	ldr	r5, [pc, #92]	; 97f0 <gpio_int_rising_edge+0x80>
    9790:	e5950034 	ldr	r0, [r5, #52]	; 0x34
    9794:	eb0000d5 	bl	9af0 <get32>
    9798:	e3a01001 	mov	r1, #1
    979c:	e1801411 	orr	r1, r0, r1, lsl r4
    97a0:	e5950034 	ldr	r0, [r5, #52]	; 0x34
    97a4:	eb0000c5 	bl	9ac0 <put32>
    97a8:	ea000007 	b	97cc <gpio_int_rising_edge+0x5c>
    97ac:	e59f503c 	ldr	r5, [pc, #60]	; 97f0 <gpio_int_rising_edge+0x80>
    97b0:	e5950038 	ldr	r0, [r5, #56]	; 0x38
    97b4:	eb0000cd 	bl	9af0 <get32>
    97b8:	e204401f 	and	r4, r4, #31
    97bc:	e3a01001 	mov	r1, #1
    97c0:	e1801411 	orr	r1, r0, r1, lsl r4
    97c4:	e5950038 	ldr	r0, [r5, #56]	; 0x38
    97c8:	eb0000bc 	bl	9ac0 <put32>
    97cc:	eb0000b5 	bl	9aa8 <dev_barrier>
    97d0:	e59f4018 	ldr	r4, [pc, #24]	; 97f0 <gpio_int_rising_edge+0x80>
    97d4:	e594003c 	ldr	r0, [r4, #60]	; 0x3c
    97d8:	eb0000c4 	bl	9af0 <get32>
    97dc:	e3801802 	orr	r1, r0, #131072	; 0x20000
    97e0:	e594003c 	ldr	r0, [r4, #60]	; 0x3c
    97e4:	eb0000b5 	bl	9ac0 <put32>
    97e8:	eb0000ae 	bl	9aa8 <dev_barrier>
    97ec:	e8bd8038 	pop	{r3, r4, r5, pc}
    97f0:	00009b14 	andeq	r9, r0, r4, lsl fp

000097f4 <gpio_int_falling_edge>:
    97f4:	e92d4038 	push	{r3, r4, r5, lr}
    97f8:	e1a04000 	mov	r4, r0
    97fc:	e350001f 	cmp	r0, #31
    9800:	88bd8038 	pophi	{r3, r4, r5, pc}
    9804:	eb0000a7 	bl	9aa8 <dev_barrier>
    9808:	e354001f 	cmp	r4, #31
    980c:	8a000007 	bhi	9830 <gpio_int_falling_edge+0x3c>
    9810:	e59f505c 	ldr	r5, [pc, #92]	; 9874 <gpio_int_falling_edge+0x80>
    9814:	e5950040 	ldr	r0, [r5, #64]	; 0x40
    9818:	eb0000b4 	bl	9af0 <get32>
    981c:	e3a01001 	mov	r1, #1
    9820:	e1801411 	orr	r1, r0, r1, lsl r4
    9824:	e5950040 	ldr	r0, [r5, #64]	; 0x40
    9828:	eb0000a4 	bl	9ac0 <put32>
    982c:	ea000007 	b	9850 <gpio_int_falling_edge+0x5c>
    9830:	e59f503c 	ldr	r5, [pc, #60]	; 9874 <gpio_int_falling_edge+0x80>
    9834:	e5950044 	ldr	r0, [r5, #68]	; 0x44
    9838:	eb0000ac 	bl	9af0 <get32>
    983c:	e204401f 	and	r4, r4, #31
    9840:	e3a01001 	mov	r1, #1
    9844:	e1801411 	orr	r1, r0, r1, lsl r4
    9848:	e5950044 	ldr	r0, [r5, #68]	; 0x44
    984c:	eb00009b 	bl	9ac0 <put32>
    9850:	eb000094 	bl	9aa8 <dev_barrier>
    9854:	e59f4018 	ldr	r4, [pc, #24]	; 9874 <gpio_int_falling_edge+0x80>
    9858:	e594003c 	ldr	r0, [r4, #60]	; 0x3c
    985c:	eb0000a3 	bl	9af0 <get32>
    9860:	e3801601 	orr	r1, r0, #1048576	; 0x100000
    9864:	e594003c 	ldr	r0, [r4, #60]	; 0x3c
    9868:	eb000094 	bl	9ac0 <put32>
    986c:	eb00008d 	bl	9aa8 <dev_barrier>
    9870:	e8bd8038 	pop	{r3, r4, r5, pc}
    9874:	00009b14 	andeq	r9, r0, r4, lsl fp

00009878 <gpio_event_detected>:
    9878:	e92d4010 	push	{r4, lr}
    987c:	e1a04000 	mov	r4, r0
    9880:	e350001f 	cmp	r0, #31
    9884:	8a000019 	bhi	98f0 <gpio_event_detected+0x78>
    9888:	eb000086 	bl	9aa8 <dev_barrier>
    988c:	e354001f 	cmp	r4, #31
    9890:	8a000008 	bhi	98b8 <gpio_event_detected+0x40>
    9894:	e59f305c 	ldr	r3, [pc, #92]	; 98f8 <gpio_event_detected+0x80>
    9898:	e5930048 	ldr	r0, [r3, #72]	; 0x48
    989c:	eb000093 	bl	9af0 <get32>
    98a0:	e3a03001 	mov	r3, #1
    98a4:	e0103413 	ands	r3, r0, r3, lsl r4
    98a8:	0a00000d 	beq	98e4 <gpio_event_detected+0x6c>
    98ac:	eb00007d 	bl	9aa8 <dev_barrier>
    98b0:	e3a00001 	mov	r0, #1
    98b4:	e8bd8010 	pop	{r4, pc}
    98b8:	e59f3038 	ldr	r3, [pc, #56]	; 98f8 <gpio_event_detected+0x80>
    98bc:	e593004c 	ldr	r0, [r3, #76]	; 0x4c
    98c0:	eb00008a 	bl	9af0 <get32>
    98c4:	e3a03001 	mov	r3, #1
    98c8:	e0004413 	and	r4, r0, r3, lsl r4
    98cc:	eb000075 	bl	9aa8 <dev_barrier>
    98d0:	e3540000 	cmp	r4, #0
    98d4:	0a000002 	beq	98e4 <gpio_event_detected+0x6c>
    98d8:	eb000072 	bl	9aa8 <dev_barrier>
    98dc:	e3a00001 	mov	r0, #1
    98e0:	e8bd8010 	pop	{r4, pc}
    98e4:	eb00006f 	bl	9aa8 <dev_barrier>
    98e8:	e3a00000 	mov	r0, #0
    98ec:	e8bd8010 	pop	{r4, pc}
    98f0:	e3e00000 	mvn	r0, #0
    98f4:	e8bd8010 	pop	{r4, pc}
    98f8:	00009b14 	andeq	r9, r0, r4, lsl fp

000098fc <gpio_event_clear>:
    98fc:	e92d4010 	push	{r4, lr}
    9900:	e1a04000 	mov	r4, r0
    9904:	e350001f 	cmp	r0, #31
    9908:	88bd8010 	pophi	{r4, pc}
    990c:	eb000065 	bl	9aa8 <dev_barrier>
    9910:	e354001f 	cmp	r4, #31
    9914:	8a000005 	bhi	9930 <gpio_event_clear+0x34>
    9918:	e59f3030 	ldr	r3, [pc, #48]	; 9950 <gpio_event_clear+0x54>
    991c:	e5930048 	ldr	r0, [r3, #72]	; 0x48
    9920:	e3a01001 	mov	r1, #1
    9924:	e1a01411 	lsl	r1, r1, r4
    9928:	eb000064 	bl	9ac0 <put32>
    992c:	ea000005 	b	9948 <gpio_event_clear+0x4c>
    9930:	e204401f 	and	r4, r4, #31
    9934:	e59f3014 	ldr	r3, [pc, #20]	; 9950 <gpio_event_clear+0x54>
    9938:	e593004c 	ldr	r0, [r3, #76]	; 0x4c
    993c:	e3a01001 	mov	r1, #1
    9940:	e1a01411 	lsl	r1, r1, r4
    9944:	eb00005d 	bl	9ac0 <put32>
    9948:	eb000056 	bl	9aa8 <dev_barrier>
    994c:	e8bd8010 	pop	{r4, pc}
    9950:	00009b14 	andeq	r9, r0, r4, lsl fp

00009954 <uart_init>:
    9954:	e92d4038 	push	{r3, r4, r5, lr}
    9958:	eb000052 	bl	9aa8 <dev_barrier>
    995c:	e3a0000e 	mov	r0, #14
    9960:	e3a01002 	mov	r1, #2
    9964:	ebffff32 	bl	9634 <gpio_set_function>
    9968:	e3a0000f 	mov	r0, #15
    996c:	e3a01002 	mov	r1, #2
    9970:	ebffff2f 	bl	9634 <gpio_set_function>
    9974:	eb00004b 	bl	9aa8 <dev_barrier>
    9978:	e59f4068 	ldr	r4, [pc, #104]	; 99e8 <uart_init+0x94>
    997c:	e5945000 	ldr	r5, [r4]
    9980:	e1a00005 	mov	r0, r5
    9984:	eb000059 	bl	9af0 <get32>
    9988:	e3801001 	orr	r1, r0, #1
    998c:	e1a00005 	mov	r0, r5
    9990:	eb00004a 	bl	9ac0 <put32>
    9994:	eb000043 	bl	9aa8 <dev_barrier>
    9998:	e5940004 	ldr	r0, [r4, #4]
    999c:	e3a01000 	mov	r1, #0
    99a0:	eb000046 	bl	9ac0 <put32>
    99a4:	e5940008 	ldr	r0, [r4, #8]
    99a8:	e3a01000 	mov	r1, #0
    99ac:	eb000043 	bl	9ac0 <put32>
    99b0:	e594000c 	ldr	r0, [r4, #12]
    99b4:	e3a01006 	mov	r1, #6
    99b8:	eb000040 	bl	9ac0 <put32>
    99bc:	e5940010 	ldr	r0, [r4, #16]
    99c0:	e3a01003 	mov	r1, #3
    99c4:	eb00003d 	bl	9ac0 <put32>
    99c8:	e5940014 	ldr	r0, [r4, #20]
    99cc:	e59f1018 	ldr	r1, [pc, #24]	; 99ec <uart_init+0x98>
    99d0:	eb00003a 	bl	9ac0 <put32>
    99d4:	e5940004 	ldr	r0, [r4, #4]
    99d8:	e3a01003 	mov	r1, #3
    99dc:	eb000037 	bl	9ac0 <put32>
    99e0:	eb000030 	bl	9aa8 <dev_barrier>
    99e4:	e8bd8038 	pop	{r3, r4, r5, pc}
    99e8:	00009b74 	andeq	r9, r0, r4, ror fp
    99ec:	0000010e 	andeq	r0, r0, lr, lsl #2

000099f0 <uart_can_getc>:
    99f0:	e92d4008 	push	{r3, lr}
    99f4:	e59f300c 	ldr	r3, [pc, #12]	; 9a08 <uart_can_getc+0x18>
    99f8:	e5930018 	ldr	r0, [r3, #24]
    99fc:	eb00003b 	bl	9af0 <get32>
    9a00:	e2000001 	and	r0, r0, #1
    9a04:	e8bd8008 	pop	{r3, pc}
    9a08:	00009b74 	andeq	r9, r0, r4, ror fp

00009a0c <uart_getc>:
    9a0c:	e92d4008 	push	{r3, lr}
    9a10:	ebfffff6 	bl	99f0 <uart_can_getc>
    9a14:	e3500000 	cmp	r0, #0
    9a18:	0afffffc 	beq	9a10 <uart_getc+0x4>
    9a1c:	e59f300c 	ldr	r3, [pc, #12]	; 9a30 <uart_getc+0x24>
    9a20:	e593001c 	ldr	r0, [r3, #28]
    9a24:	eb000031 	bl	9af0 <get32>
    9a28:	e6ef0070 	uxtb	r0, r0
    9a2c:	e8bd8008 	pop	{r3, pc}
    9a30:	00009b74 	andeq	r9, r0, r4, ror fp

00009a34 <uart_can_putc>:
    9a34:	e92d4008 	push	{r3, lr}
    9a38:	e59f300c 	ldr	r3, [pc, #12]	; 9a4c <uart_can_putc+0x18>
    9a3c:	e5930018 	ldr	r0, [r3, #24]
    9a40:	eb00002a 	bl	9af0 <get32>
    9a44:	e2000020 	and	r0, r0, #32
    9a48:	e8bd8008 	pop	{r3, pc}
    9a4c:	00009b74 	andeq	r9, r0, r4, ror fp

00009a50 <uart_putc>:
    9a50:	e92d4010 	push	{r4, lr}
    9a54:	e1a04000 	mov	r4, r0
    9a58:	ebfffff5 	bl	9a34 <uart_can_putc>
    9a5c:	e3500000 	cmp	r0, #0
    9a60:	0afffffc 	beq	9a58 <uart_putc+0x8>
    9a64:	e59f300c 	ldr	r3, [pc, #12]	; 9a78 <uart_putc+0x28>
    9a68:	e593001c 	ldr	r0, [r3, #28]
    9a6c:	e1a01004 	mov	r1, r4
    9a70:	eb000012 	bl	9ac0 <put32>
    9a74:	e8bd8010 	pop	{r4, pc}
    9a78:	00009b74 	andeq	r9, r0, r4, ror fp

00009a7c <uart_has_data>:
    9a7c:	e92d4008 	push	{r3, lr}
    9a80:	ebffffda 	bl	99f0 <uart_can_getc>
    9a84:	e8bd8008 	pop	{r3, pc}

00009a88 <uart_getc_async>:
    9a88:	e92d4008 	push	{r3, lr}
    9a8c:	ebfffffa 	bl	9a7c <uart_has_data>
    9a90:	e3500000 	cmp	r0, #0
    9a94:	0a000001 	beq	9aa0 <uart_getc_async+0x18>
    9a98:	ebffffdb 	bl	9a0c <uart_getc>
    9a9c:	e8bd8008 	pop	{r3, pc}
    9aa0:	e3e00000 	mvn	r0, #0
    9aa4:	e8bd8008 	pop	{r3, pc}

00009aa8 <dev_barrier>:
    9aa8:	ea000002 	b	9ab8 <dsb>

00009aac <dmb>:
    9aac:	e3a00000 	mov	r0, #0
    9ab0:	ee070fba 	mcr	15, 0, r0, cr7, cr10, {5}
    9ab4:	e12fff1e 	bx	lr

00009ab8 <dsb>:
    9ab8:	ee070f9a 	mcr	15, 0, r0, cr7, cr10, {4}
    9abc:	e12fff1e 	bx	lr

00009ac0 <put32>:
    9ac0:	e5801000 	str	r1, [r0]
    9ac4:	e12fff1e 	bx	lr

00009ac8 <PUT32>:
    9ac8:	e5801000 	str	r1, [r0]
    9acc:	e12fff1e 	bx	lr

00009ad0 <put16>:
    9ad0:	e1c010b0 	strh	r1, [r0]
    9ad4:	e12fff1e 	bx	lr

00009ad8 <PUT16>:
    9ad8:	e1c010b0 	strh	r1, [r0]
    9adc:	e12fff1e 	bx	lr

00009ae0 <put8>:
    9ae0:	e5c01000 	strb	r1, [r0]
    9ae4:	e12fff1e 	bx	lr

00009ae8 <PUT8>:
    9ae8:	e5c01000 	strb	r1, [r0]
    9aec:	e12fff1e 	bx	lr

00009af0 <get32>:
    9af0:	e5900000 	ldr	r0, [r0]
    9af4:	e12fff1e 	bx	lr

00009af8 <GET32>:
    9af8:	e5900000 	ldr	r0, [r0]
    9afc:	e12fff1e 	bx	lr

00009b00 <GETPC>:
    9b00:	e1a0000e 	mov	r0, lr
    9b04:	e12fff1e 	bx	lr

00009b08 <dummy>:
    9b08:	e12fff1e 	bx	lr

Disassembly of section .data:

00009b0c <rpi_putchar>:
    9b0c:	00008cf4 	strdeq	r8, [r0], -r4

00009b10 <putk>:
    9b10:	00008d30 	andeq	r8, r0, r0, lsr sp

00009b14 <GPFSEL0>:
    9b14:	20200000 	eorcs	r0, r0, r0

00009b18 <GPFSEL1>:
    9b18:	20200004 	eorcs	r0, r0, r4

00009b1c <GPFSEL2>:
    9b1c:	20200008 	eorcs	r0, r0, r8

00009b20 <GPFSEL3>:
    9b20:	2020000c 	eorcs	r0, r0, ip

00009b24 <GPFSEL4>:
    9b24:	20200010 	eorcs	r0, r0, r0, lsl r0

00009b28 <GPFSEL5>:
    9b28:	20200014 	eorcs	r0, r0, r4, lsl r0

00009b2c <GPSET0>:
    9b2c:	2020001c 	eorcs	r0, r0, ip, lsl r0

00009b30 <GPSET1>:
    9b30:	20200020 	eorcs	r0, r0, r0, lsr #32

00009b34 <GPCLR0>:
    9b34:	20200028 	eorcs	r0, r0, r8, lsr #32

00009b38 <GPCLR1>:
    9b38:	2020002c 	eorcs	r0, r0, ip, lsr #32

00009b3c <GPLEV0>:
    9b3c:	20200034 	eorcs	r0, r0, r4, lsr r0

00009b40 <GPLEV1>:
    9b40:	20200038 	eorcs	r0, r0, r8, lsr r0

00009b44 <IRQ_PENDING_2>:
    9b44:	2000b208 	andcs	fp, r0, r8, lsl #4

00009b48 <GPREN0>:
    9b48:	2020004c 	eorcs	r0, r0, ip, asr #32

00009b4c <GPREN1>:
    9b4c:	20200050 	eorcs	r0, r0, r0, asr r0

00009b50 <ENABLE_IRQS_2>:
    9b50:	2000b214 	andcs	fp, r0, r4, lsl r2

00009b54 <GPFEN0>:
    9b54:	20200058 	eorcs	r0, r0, r8, asr r0

00009b58 <GPFEN1>:
    9b58:	2020005c 	eorcs	r0, r0, ip, asr r0

00009b5c <GPEDS0>:
    9b5c:	20200040 	eorcs	r0, r0, r0, asr #32

00009b60 <GPEDS1>:
    9b60:	20200044 	eorcs	r0, r0, r4, asr #32

00009b64 <IRQ_PENDING_1>:
    9b64:	2000b204 	andcs	fp, r0, r4, lsl #4

00009b68 <gpio_clr0>:
    9b68:	20200028 	eorcs	r0, r0, r8, lsr #32

00009b6c <gpio_set0>:
    9b6c:	2020001c 	eorcs	r0, r0, ip, lsl r0

00009b70 <gpio_fsel0>:
    9b70:	20200000 	eorcs	r0, r0, r0

00009b74 <AUX_ENABLES>:
    9b74:	20215004 	eorcs	r5, r1, r4

00009b78 <AUX_MU_CNTL_REG>:
    9b78:	20215060 	eorcs	r5, r1, r0, rrx

00009b7c <AUX_MU_IER_REG>:
    9b7c:	20215044 	eorcs	r5, r1, r4, asr #32

00009b80 <AUX_MU_IIR_REG>:
    9b80:	20215048 	eorcs	r5, r1, r8, asr #32

00009b84 <AUX_MU_LCR_REG>:
    9b84:	2021504c 	eorcs	r5, r1, ip, asr #32

00009b88 <AUX_MU_BAUD_REG>:
    9b88:	20215068 	eorcs	r5, r1, r8, rrx

00009b8c <AUX_MU_LSR_REG>:
    9b8c:	20215054 	eorcs	r5, r1, r4, asr r0

00009b90 <AUX_MU_IO_REG>:
    9b90:	20215040 	eorcs	r5, r1, r0, asr #32

00009b94 <AUX_MU_STAT_REG>:
    9b94:	20215064 	eorcs	r5, r1, r4, rrx

00009b98 <AUX_MU_SCRATCH>:
    9b98:	2021505c 	eorcs	r5, r1, ip, asr r0

00009b9c <AUX_MU_MSR_REG>:
    9b9c:	20215058 	eorcs	r5, r1, r8, asr r0

00009ba0 <AUX_MU_MCR_REG>:
    9ba0:	20215050 	eorcs	r5, r1, r0, asr r0

00009ba4 <AUX_IRQ>:
    9ba4:	20215000 	eorcs	r5, r1, r0

Disassembly of section .rodata:

00009ba8 <__FUNCTION__.4434>:
    9ba8:	74736574 	ldrbtvc	r6, [r3], #-1396	; 0x574
    9bac:	7370645f 	cmnvc	r0, #1593835520	; 0x5f000000
    9bb0:	00000000 	andeq	r0, r0, r0

00009bb4 <__FUNCTION__.4354>:
    9bb4:	5f756d69 	svcpl	0x00756d69
    9bb8:	00006472 	andeq	r6, r0, r2, ror r4

00009bbc <__FUNCTION__.4361>:
    9bbc:	5f756d69 	svcpl	0x00756d69
    9bc0:	00007277 	andeq	r7, r0, r7, ror r2

00009bc4 <__FUNCTION__.4369>:
    9bc4:	5f756d69 	svcpl	0x00756d69
    9bc8:	6e5f6472 	mrcvs	4, 2, r6, cr15, cr2, {3}
    9bcc:	00000000 	andeq	r0, r0, r0

00009bd0 <__FUNCTION__.4393>:
    9bd0:	5f737064 	svcpl	0x00737064
    9bd4:	735f6f74 	cmpvc	pc, #116, 30	; 0x1d0
    9bd8:	656c6163 	strbvs	r6, [ip, #-355]!	; 0x163
    9bdc:	00000000 	andeq	r0, r0, r0

00009be0 <__FUNCTION__.4407>:
    9be0:	74696e69 	strbtvc	r6, [r9], #-3689	; 0xe69
    9be4:	7279675f 	rsbsvc	r6, r9, #24903680	; 0x17c0000
    9be8:	0000006f 	andeq	r0, r0, pc, rrx

00009bec <__FUNCTION__.4261>:
    9bec:	6167656c 	cmnvs	r7, ip, ror #10
    9bf0:	79675f6c 	stmdbvc	r7!, {r2, r3, r5, r6, r8, r9, sl, fp, ip, lr}^
    9bf4:	685f6f72 	ldmdavs	pc, {r1, r4, r5, r6, r8, r9, sl, fp, sp, lr}^	; <UNPREDICTABLE>
    9bf8:	0000007a 	andeq	r0, r0, sl, ror r0

00009bfc <__FUNCTION__.4450>:
    9bfc:	6d746f6e 	ldclvs	15, cr6, [r4, #-440]!	; 0xfffffe48
    9c00:	006e6961 	rsbeq	r6, lr, r1, ror #18
    9c04:	3d776172 	ldfcce	f6, [r7, #-456]!	; 0xfffffe38
    9c08:	202c6425 	eorcs	r6, ip, r5, lsr #8
    9c0c:	6c616373 	stclvs	3, cr6, [r1], #-460	; 0xfffffe34
    9c10:	253d6465 	ldrcs	r6, [sp, #-1125]!	; 0x465
    9c14:	65202c64 	strvs	r2, [r0, #-3172]!	; 0xc64
    9c18:	63657078 	cmnvs	r5, #120	; 0x78
    9c1c:	3d646574 	cfstr64cc	mvdx6, [r4, #-464]!	; 0xfffffe30
    9c20:	000a6425 	andeq	r6, sl, r5, lsr #8
    9c24:	494e4150 	stmdbmi	lr, {r4, r6, r8, lr}^
    9c28:	73253a43 	teqvc	r5, #274432	; 0x43000
    9c2c:	3a73253a 	bcc	1cd311c <__bss_end__+0x1cc8bbc>
    9c30:	653a6425 	ldrvs	r6, [sl, #-1061]!	; 0x425
    9c34:	63657078 	cmnvs	r5, #120	; 0x78
    9c38:	20646574 	rsbcs	r6, r4, r4, ror r5
    9c3c:	202c6425 	eorcs	r6, ip, r5, lsr #8
    9c40:	20746f67 	rsbscs	r6, r4, r7, ror #30
    9c44:	6425203d 	strtvs	r2, [r5], #-61	; 0x3d
    9c48:	6373202c 	cmnvs	r3, #44	; 0x2c
    9c4c:	3d656c61 	stclcc	12, cr6, [r5, #-388]!	; 0xfffffe7c
    9c50:	0a0a6425 	beq	2a2cec <__bss_end__+0x29878c>
    9c54:	00000000 	andeq	r0, r0, r0
    9c58:	6f727967 	svcvs	0x00727967
    9c5c:	0000632e 	andeq	r6, r0, lr, lsr #6
    9c60:	494e4150 	stmdbmi	lr, {r4, r6, r8, lr}^
    9c64:	73253a43 	teqvc	r5, #274432	; 0x43000
    9c68:	3a73253a 	bcc	1cd3158 <__bss_end__+0x1cc8bf8>
    9c6c:	613a6425 	teqvs	sl, r5, lsr #8
    9c70:	0a726464 	beq	1ca2e08 <__bss_end__+0x1c988a8>
    9c74:	00000000 	andeq	r0, r0, r0
    9c78:	494e4150 	stmdbmi	lr, {r4, r6, r8, lr}^
    9c7c:	73253a43 	teqvc	r5, #274432	; 0x43000
    9c80:	3a73253a 	bcc	1cd3170 <__bss_end__+0x1cc8c10>
    9c84:	723a6425 	eorsvc	r6, sl, #620756992	; 0x25000000
    9c88:	000a6765 	andeq	r6, sl, r5, ror #14
    9c8c:	494e4150 	stmdbmi	lr, {r4, r6, r8, lr}^
    9c90:	73253a43 	teqvc	r5, #274432	; 0x43000
    9c94:	3a73253a 	bcc	1cd3184 <__bss_end__+0x1cc8c24>
    9c98:	623a6425 	eorsvs	r6, sl, #620756992	; 0x25000000
    9c9c:	5f657361 	svcpl	0x00657361
    9ca0:	0a676572 	beq	19e3270 <__bss_end__+0x19d8d10>
    9ca4:	00000000 	andeq	r0, r0, r0
    9ca8:	494e4150 	stmdbmi	lr, {r4, r6, r8, lr}^
    9cac:	73253a43 	teqvc	r5, #274432	; 0x43000
    9cb0:	3a73253a 	bcc	1cd31a0 <__bss_end__+0x1cc8c40>
    9cb4:	303a6425 	eorscc	r6, sl, r5, lsr #8
    9cb8:	0000000a 	andeq	r0, r0, sl
    9cbc:	494e4150 	stmdbmi	lr, {r4, r6, r8, lr}^
    9cc0:	73253a43 	teqvc	r5, #274432	; 0x43000
    9cc4:	3a73253a 	bcc	1cd31b4 <__bss_end__+0x1cc8c54>
    9cc8:	693a6425 	ldmdbvs	sl!, {r0, r2, r5, sl, sp, lr}
    9ccc:	6c61766e 	stclvs	6, cr7, [r1], #-440	; 0xfffffe48
    9cd0:	64206469 	strtvs	r6, [r0], #-1129	; 0x469
    9cd4:	203a7370 	eorscs	r7, sl, r0, ror r3
    9cd8:	0a0a7825 	beq	2a7d74 <__bss_end__+0x29d814>
    9cdc:	00000000 	andeq	r0, r0, r0
    9ce0:	494e4150 	stmdbmi	lr, {r4, r6, r8, lr}^
    9ce4:	73253a43 	teqvc	r5, #274432	; 0x43000
    9ce8:	3a73253a 	bcc	1cd31d8 <__bss_end__+0x1cc8c78>
    9cec:	673a6425 	ldrvs	r6, [sl, -r5, lsr #8]!
    9cf0:	3a6f7279 	bcc	1be66dc <__bss_end__+0x1bdc17c>
    9cf4:	36363120 	ldrtcc	r3, [r6], -r0, lsr #2
    9cf8:	207a6830 	rsbscs	r6, sl, r0, lsr r8
    9cfc:	73656f64 	cmnvc	r5, #100, 30	; 0x190
    9d00:	2074276e 	rsbscs	r2, r4, lr, ror #14
    9d04:	6d656573 	cfstr64vs	mvdx6, [r5, #-460]!	; 0xfffffe34
    9d08:	206f7420 	rsbcs	r7, pc, r0, lsr #8
    9d0c:	6b726f77 	blvs	1ca5af0 <__bss_end__+0x1c9b590>
    9d10:	00000a0a 	andeq	r0, r0, sl, lsl #20
    9d14:	366d736c 	strbtcc	r7, [sp], -ip, ror #6
    9d18:	33337364 	teqcc	r3, #100, 6	; 0x90000001
    9d1c:	0000682e 	andeq	r6, r0, lr, lsr #16
    9d20:	494e4150 	stmdbmi	lr, {r4, r6, r8, lr}^
    9d24:	73253a43 	teqvc	r5, #274432	; 0x43000
    9d28:	3a73253a 	bcc	1cd3218 <__bss_end__+0x1cc8cb8>
    9d2c:	693a6425 	ldmdbvs	sl!, {r0, r2, r5, sl, sp, lr}
    9d30:	6c61766e 	stclvs	6, cr7, [r1], #-440	; 0xfffffe48
    9d34:	68206469 	stmdavs	r0!, {r0, r3, r5, r6, sl, sp, lr}
    9d38:	25203a7a 	strcs	r3, [r0, #-2682]!	; 0xa7a
    9d3c:	000a0a78 	andeq	r0, sl, r8, ror sl
    9d40:	20737064 	rsbscs	r7, r3, r4, rrx
    9d44:	6c616373 	stclvs	3, cr6, [r1], #-460	; 0xfffffe34
    9d48:	20676e69 	rsbcs	r6, r7, r9, ror #28
    9d4c:	73736170 	cmnvc	r3, #112, 2
    9d50:	000a6465 	andeq	r6, sl, r5, ror #8
    9d54:	6f727967 	svcvs	0x00727967
    9d58:	77617220 	strbvc	r7, [r1, -r0, lsr #4]!
    9d5c:	6c617620 	stclvs	6, cr7, [r1], #-128	; 0xffffff80
    9d60:	3a736575 	bcc	1ce333c <__bss_end__+0x1cd8ddc>
    9d64:	253d7820 	ldrcs	r7, [sp, #-2080]!	; 0x820
    9d68:	3d792c64 	ldclcc	12, cr2, [r9, #-400]!	; 0xfffffe70
    9d6c:	7a2c6425 	bvc	b22e08 <__bss_end__+0xb188a8>
    9d70:	0a64253d 	beq	191326c <__bss_end__+0x1908d0c>
    9d74:	00000000 	andeq	r0, r0, r0
    9d78:	6f727967 	svcvs	0x00727967
    9d7c:	61637320 	cmnvs	r3, r0, lsr #6
    9d80:	2064656c 	rsbcs	r6, r4, ip, ror #10
    9d84:	756c6176 	strbvc	r6, [ip, #-374]!	; 0x176
    9d88:	69207365 	stmdbvs	r0!, {r0, r2, r5, r6, r8, r9, ip, sp, lr}
    9d8c:	646d206e 	strbtvs	r2, [sp], #-110	; 0x6e
    9d90:	203a7370 	eorscs	r7, sl, r0, ror r3
    9d94:	64253d78 	strtvs	r3, [r5], #-3448	; 0xd78
    9d98:	253d792c 	ldrcs	r7, [sp, #-2348]!	; 0x92c
    9d9c:	3d7a2c64 	ldclcc	12, cr2, [sl, #-400]!	; 0xfffffe70
    9da0:	000a6425 	andeq	r6, sl, r5, lsr #8
    9da4:	494e4150 	stmdbmi	lr, {r4, r6, r8, lr}^
    9da8:	73253a43 	teqvc	r5, #274432	; 0x43000
    9dac:	3a73253a 	bcc	1cd329c <__bss_end__+0x1cc8d3c>
    9db0:	493a6425 	ldmdbmi	sl!, {r0, r2, r5, sl, sp, lr}
    9db4:	6974696e 	ldmdbvs	r4!, {r1, r2, r3, r5, r6, r8, fp, sp, lr}^
    9db8:	70206c61 	eorvc	r6, r0, r1, ror #24
    9dbc:	65626f72 	strbvs	r6, [r2, #-3954]!	; 0xf72
    9dc0:	69616620 	stmdbvs	r1!, {r5, r9, sl, sp, lr}^
    9dc4:	3a64656c 	bcc	192337c <__bss_end__+0x1918e1c>
    9dc8:	70786520 	rsbsvc	r6, r8, r0, lsr #10
    9dcc:	65746365 	ldrbvs	r6, [r4, #-869]!	; 0x365
    9dd0:	78252064 	stmdavc	r5!, {r2, r5, r6, sp}
    9dd4:	6f67202c 	svcvs	0x0067202c
    9dd8:	78252074 	stmdavc	r5!, {r2, r4, r5, r6, sp}
    9ddc:	00000a0a 	andeq	r0, r0, sl, lsl #20
    9de0:	43435553 	movtmi	r5, #13651	; 0x3553
    9de4:	3a535345 	bcc	14deb00 <__bss_end__+0x14d45a0>
    9de8:	6d736c20 	ldclvs	12, cr6, [r3, #-128]!	; 0xffffff80
    9dec:	6b636120 	blvs	18e2274 <__bss_end__+0x18d7d14>
    9df0:	6c776f6e 	ldclvs	15, cr6, [r7], #-440	; 0xfffffe48
    9df4:	65676465 	strbvs	r6, [r7, #-1125]!	; 0x465
    9df8:	756f2064 	strbvc	r2, [pc, #-100]!	; 9d9c <__FUNCTION__.4450+0x1a0>
    9dfc:	69702072 	ldmdbvs	r0!, {r1, r4, r5, r6, sp}^
    9e00:	2121676e 	teqcs	r1, lr, ror #14
    9e04:	0000000a 	andeq	r0, r0, sl

00009e08 <__FUNCTION__.4436>:
    9e08:	63656863 	cmnvs	r5, #6488064	; 0x630000
    9e0c:	616c5f6b 	cmnvs	ip, fp, ror #30
    9e10:	74756f79 	ldrbtvc	r6, [r5], #-3961	; 0xf79
    9e14:	00000000 	andeq	r0, r0, r0

00009e18 <__FUNCTION__.4342>:
    9e18:	72656678 	rsbvc	r6, r5, #120, 12	; 0x7800000
    9e1c:	646e655f 	strbtvs	r6, [lr], #-1375	; 0x55f
    9e20:	00000000 	andeq	r0, r0, r0

00009e24 <__FUNCTION__.4321>:
    9e24:	72656678 	rsbvc	r6, r5, #120, 12	; 0x7800000
    9e28:	6174735f 	cmnvs	r4, pc, asr r3
    9e2c:	00007472 	andeq	r7, r0, r2, ror r4

00009e30 <__FUNCTION__.4352>:
    9e30:	5f633269 	svcpl	0x00633269
    9e34:	74697277 	strbtvc	r7, [r9], #-631	; 0x277
    9e38:	00000065 	andeq	r0, r0, r5, rrx

00009e3c <__FUNCTION__.4365>:
    9e3c:	5f633269 	svcpl	0x00633269
    9e40:	64616572 	strbtvs	r6, [r1], #-1394	; 0x572
    9e44:	00000000 	andeq	r0, r0, r0

00009e48 <__FUNCTION__.4407>:
    9e48:	5f633269 	svcpl	0x00633269
    9e4c:	74696e69 	strbtvc	r6, [r9], #-3689	; 0xe69
    9e50:	00000000 	andeq	r0, r0, r0
    9e54:	2e633269 	cdpcs	2, 6, cr3, cr3, cr9, {3}
    9e58:	00000063 	andeq	r0, r0, r3, rrx
    9e5c:	494e4150 	stmdbmi	lr, {r4, r6, r8, lr}^
    9e60:	73253a43 	teqvc	r5, #274432	; 0x43000
    9e64:	3a73253a 	bcc	1cd3354 <__bss_end__+0x1cc8df4>
    9e68:	6f3a6425 	svcvs	0x003a6425
    9e6c:	65736666 	ldrbvs	r6, [r3, #-1638]!	; 0x666
    9e70:	72772074 	rsbsvc	r2, r7, #116	; 0x74
    9e74:	3a676e6f 	bcc	19e5838 <__bss_end__+0x19db2d8>
    9e78:	70786520 	rsbsvc	r6, r8, r0, lsr #10
    9e7c:	20746365 	rsbscs	r6, r4, r5, ror #6
    9e80:	67207825 	strvs	r7, [r0, -r5, lsr #16]!
    9e84:	2520746f 	strcs	r7, [r0, #-1135]!	; 0x46f
    9e88:	73252078 	teqvc	r5, #120	; 0x78
    9e8c:	666f5b20 	strbtvs	r5, [pc], -r0, lsr #22
    9e90:	64253d66 	strtvs	r3, [r5], #-3430	; 0xd66
    9e94:	69626e2c 	stmdbvs	r2!, {r2, r3, r5, r9, sl, fp, sp, lr}^
    9e98:	253d7374 	ldrcs	r7, [sp, #-884]!	; 0x374
    9e9c:	0a0a5d64 	beq	2a1434 <__bss_end__+0x296ed4>
    9ea0:	00000000 	andeq	r0, r0, r0
    9ea4:	64616572 	strbtvs	r6, [r1], #-1394	; 0x572
    9ea8:	00000000 	andeq	r0, r0, r0
    9eac:	61656c63 	cmnvs	r5, r3, ror #24
    9eb0:	00000072 	andeq	r0, r0, r2, ror r0
    9eb4:	494e4150 	stmdbmi	lr, {r4, r6, r8, lr}^
    9eb8:	73253a43 	teqvc	r5, #274432	; 0x43000
    9ebc:	3a73253a 	bcc	1cd33ac <__bss_end__+0x1cc8e4c>
    9ec0:	773a6425 	ldrvc	r6, [sl, -r5, lsr #8]!
    9ec4:	68746469 	ldmdavs	r4!, {r0, r3, r5, r6, sl, sp, lr}^
    9ec8:	6f727720 	svcvs	0x00727720
    9ecc:	203a676e 	eorscs	r6, sl, lr, ror #14
    9ed0:	65707865 	ldrbvs	r7, [r0, #-2149]!	; 0x865
    9ed4:	25207463 	strcs	r7, [r0, #-1123]!	; 0x463
    9ed8:	6f672078 	svcvs	0x00672078
    9edc:	78252074 	stmdavc	r5!, {r2, r4, r5, r6, sp}
    9ee0:	20732520 	rsbscs	r2, r3, r0, lsr #10
    9ee4:	66666f5b 	uqsaxvs	r6, r6, fp
    9ee8:	2c64253d 	cfstr64cs	mvdx2, [r4], #-244	; 0xffffff0c
    9eec:	7469626e 	strbtvc	r6, [r9], #-622	; 0x26e
    9ef0:	64253d73 	strtvs	r3, [r5], #-3443	; 0xd73
    9ef4:	000a0a5d 	andeq	r0, sl, sp, asr sl
    9ef8:	00007473 	andeq	r7, r0, r3, ror r4
    9efc:	64746e69 	ldrbtvs	r6, [r4], #-3689	; 0xe69
    9f00:	00000000 	andeq	r0, r0, r0
    9f04:	74746e69 	ldrbtvc	r6, [r4], #-3689	; 0xe69
    9f08:	00000000 	andeq	r0, r0, r0
    9f0c:	72746e69 	rsbsvc	r6, r4, #1680	; 0x690
    9f10:	00000000 	andeq	r0, r0, r0
    9f14:	65633269 	strbvs	r3, [r3, #-617]!	; 0x269
    9f18:	0000006e 	andeq	r0, r0, lr, rrx
    9f1c:	00006174 	andeq	r6, r0, r4, ror r1
    9f20:	656e6f64 	strbvs	r6, [lr, #-3940]!	; 0xf64
    9f24:	00000000 	andeq	r0, r0, r0
    9f28:	00777874 	rsbseq	r7, r7, r4, ror r8
    9f2c:	00727872 	rsbseq	r7, r2, r2, ror r8
    9f30:	00647874 	rsbeq	r7, r4, r4, ror r8
    9f34:	00647872 	rsbeq	r7, r4, r2, ror r8
    9f38:	00657874 	rsbeq	r7, r5, r4, ror r8
    9f3c:	00667872 	rsbeq	r7, r6, r2, ror r8
    9f40:	00727265 	rsbseq	r7, r2, r5, ror #4
    9f44:	746b6c63 	strbtvc	r6, [fp], #-3171	; 0xc63
    9f48:	0000006b 	andeq	r0, r0, fp, rrx
    9f4c:	494e4150 	stmdbmi	lr, {r4, r6, r8, lr}^
    9f50:	73253a43 	teqvc	r5, #274432	; 0x43000
    9f54:	3a73253a 	bcc	1cd3444 <__bss_end__+0x1cc8ee4>
    9f58:	693a6425 	ldmdbvs	sl!, {r0, r2, r5, sl, sp, lr}
    9f5c:	73206332 	teqvc	r0, #-939524096	; 0xc8000000
    9f60:	6576616c 	ldrbvs	r6, [r6, #-364]!	; 0x16c
    9f64:	6b636120 	blvs	18e23ec <__bss_end__+0x18d7e8c>
    9f68:	72726520 	rsbsvc	r6, r2, #32, 10	; 0x8000000
    9f6c:	000a726f 	andeq	r7, sl, pc, ror #4
    9f70:	494e4150 	stmdbmi	lr, {r4, r6, r8, lr}^
    9f74:	73253a43 	teqvc	r5, #274432	; 0x43000
    9f78:	3a73253a 	bcc	1cd3468 <__bss_end__+0x1cc8f08>
    9f7c:	693a6425 	ldmdbvs	sl!, {r0, r2, r5, sl, sp, lr}
    9f80:	73206332 	teqvc	r0, #-939524096	; 0xc8000000
    9f84:	6576616c 	ldrbvs	r6, [r6, #-364]!	; 0x16c
    9f88:	6c656820 	stclvs	8, cr6, [r5], #-128	; 0xffffff80
    9f8c:	696c2064 	stmdbvs	ip!, {r2, r5, r6, sp}^
    9f90:	7420656e 	strtvc	r6, [r0], #-1390	; 0x56e
    9f94:	6c206f6f 	stcvs	15, cr6, [r0], #-444	; 0xfffffe44
    9f98:	0a676e6f 	beq	19e595c <__bss_end__+0x19db3fc>
    9f9c:	00000000 	andeq	r0, r0, r0
    9fa0:	494e4150 	stmdbmi	lr, {r4, r6, r8, lr}^
    9fa4:	73253a43 	teqvc	r5, #274432	; 0x43000
    9fa8:	3a73253a 	bcc	1cd3498 <__bss_end__+0x1cc8f38>
    9fac:	693a6425 	ldmdbvs	sl!, {r0, r2, r5, sl, sp, lr}
    9fb0:	3e2d6332 	mcrcc	3, 1, r6, cr13, cr2, {1}
    9fb4:	74617473 	strbtvc	r7, [r1], #-1139	; 0x473
    9fb8:	742e7375 	strtvc	r7, [lr], #-885	; 0x375
    9fbc:	3d3d2061 	ldccc	0, cr2, [sp, #-388]!	; 0xfffffe7c
    9fc0:	000a3020 	andeq	r3, sl, r0, lsr #32
    9fc4:	494e4150 	stmdbmi	lr, {r4, r6, r8, lr}^
    9fc8:	73253a43 	teqvc	r5, #274432	; 0x43000
    9fcc:	3a73253a 	bcc	1cd34bc <__bss_end__+0x1cc8f5c>
    9fd0:	213a6425 	teqcs	sl, r5, lsr #8
    9fd4:	2d633269 	sfmcs	f3, 2, [r3, #-420]!	; 0xfffffe5c
    9fd8:	6174733e 	cmnvs	r4, lr, lsr r3
    9fdc:	2e737574 	mrccs	5, 3, r7, cr3, cr4, {3}
    9fe0:	0a727265 	beq	1ca697c <__bss_end__+0x1c9c41c>
    9fe4:	00000000 	andeq	r0, r0, r0
    9fe8:	494e4150 	stmdbmi	lr, {r4, r6, r8, lr}^
    9fec:	73253a43 	teqvc	r5, #274432	; 0x43000
    9ff0:	3a73253a 	bcc	1cd34e0 <__bss_end__+0x1cc8f80>
    9ff4:	693a6425 	ldmdbvs	sl!, {r0, r2, r5, sl, sp, lr}
    9ff8:	3e2d6332 	mcrcc	3, 1, r6, cr13, cr2, {1}
    9ffc:	74617473 	strbtvc	r7, [r1], #-1139	; 0x473
    a000:	742e7375 	strtvc	r7, [lr], #-885	; 0x375
    a004:	3d206578 	cfstr32cc	mvfx6, [r0, #-480]!	; 0xfffffe20
    a008:	0a31203d 	beq	c52104 <__bss_end__+0xc47ba4>
    a00c:	00000000 	andeq	r0, r0, r0
    a010:	494e4150 	stmdbmi	lr, {r4, r6, r8, lr}^
    a014:	73253a43 	teqvc	r5, #274432	; 0x43000
    a018:	3a73253a 	bcc	1cd3508 <__bss_end__+0x1cc8fa8>
    a01c:	283a6425 	ldmdacs	sl!, {r0, r2, r5, sl, sp, lr}
    a020:	64646128 	strbtvs	r6, [r4], #-296	; 0x128
    a024:	3e202972 	mcrcc	9, 1, r2, cr0, cr2, {3}
    a028:	2937203e 	ldmdbcs	r7!, {r1, r2, r3, r4, r5, sp}
    a02c:	203d3d20 	eorscs	r3, sp, r0, lsr #26
    a030:	00000a30 	andeq	r0, r0, r0, lsr sl
    a034:	494e4150 	stmdbmi	lr, {r4, r6, r8, lr}^
    a038:	73253a43 	teqvc	r5, #274432	; 0x43000
    a03c:	3a73253a 	bcc	1cd352c <__bss_end__+0x1cc8fcc>
    a040:	283a6425 	ldmdacs	sl!, {r0, r2, r5, sl, sp, lr}
    a044:	79626e28 	stmdbvc	r2!, {r3, r5, r9, sl, fp, sp, lr}^
    a048:	29736574 	ldmdbcs	r3!, {r2, r4, r5, r6, r8, sl, sp, lr}^
    a04c:	203e3e20 	eorscs	r3, lr, r0, lsr #28
    a050:	20293631 	eorcs	r3, r9, r1, lsr r6
    a054:	30203d3d 	eorcc	r3, r0, sp, lsr sp
    a058:	0000000a 	andeq	r0, r0, sl

0000a05c <__FUNCTION__.4271>:
    a05c:	74696d65 	strbtvc	r6, [r9], #-3429	; 0xd65
    a060:	00000000 	andeq	r0, r0, r0

0000a064 <__FUNCTION__.4219>:
    a064:	5f697072 	svcpl	0x00697072
    a068:	5f746573 	svcpl	0x00746573
    a06c:	7074756f 	rsbsvc	r7, r4, pc, ror #10
    a070:	00007475 	andeq	r7, r0, r5, ror r4

0000a074 <__FUNCTION__.4293>:
    a074:	705f6176 	subsvc	r6, pc, r6, ror r1	; <UNPREDICTABLE>
    a078:	746e6972 	strbtvc	r6, [lr], #-2418	; 0x972
    a07c:	0000006b 	andeq	r0, r0, fp, rrx
    a080:	6362696c 	cmnvs	r2, #108, 18	; 0x1b0000
    a084:	2d61762f 	stclcs	6, cr7, [r1, #-188]!	; 0xffffff44
    a088:	6e697270 	mcrvs	2, 3, r7, cr9, cr0, {3}
    a08c:	632e6b74 	teqvs	lr, #116, 22	; 0x1d000
    a090:	00000000 	andeq	r0, r0, r0
    a094:	33323130 	teqcc	r2, #48, 2
    a098:	37363534 			; <UNDEFINED> instruction: 0x37363534
    a09c:	00003938 	andeq	r3, r0, r8, lsr r9
    a0a0:	33323130 	teqcc	r2, #48, 2
    a0a4:	37363534 			; <UNDEFINED> instruction: 0x37363534
    a0a8:	62613938 	rsbvs	r3, r1, #56, 18	; 0xe0000
    a0ac:	66656463 	strbtvs	r6, [r5], -r3, ror #8
    a0b0:	00000000 	andeq	r0, r0, r0
    a0b4:	00003130 	andeq	r3, r0, r0, lsr r1
    a0b8:	494e4150 	stmdbmi	lr, {r4, r6, r8, lr}^
    a0bc:	73253a43 	teqvc	r5, #274432	; 0x43000
    a0c0:	3a73253a 	bcc	1cd35b0 <__bss_end__+0x1cc9050>
    a0c4:	703a6425 	eorsvc	r6, sl, r5, lsr #8
    a0c8:	5f637475 	svcpl	0x00637475
    a0cc:	000a7066 	andeq	r7, sl, r6, rrx
    a0d0:	494e4150 	stmdbmi	lr, {r4, r6, r8, lr}^
    a0d4:	73253a43 	teqvc	r5, #274432	; 0x43000
    a0d8:	3a73253a 	bcc	1cd35c8 <__bss_end__+0x1cc9068>
    a0dc:	773a6425 	ldrvc	r6, [sl, -r5, lsr #8]!
    a0e0:	68746469 	ldmdavs	r4!, {r0, r3, r5, r6, sl, sp, lr}^
    a0e4:	33203c20 	teqcc	r0, #32, 24	; 0x2000
    a0e8:	00000a32 	andeq	r0, r0, r2, lsr sl
    a0ec:	494e4150 	stmdbmi	lr, {r4, r6, r8, lr}^
    a0f0:	73253a43 	teqvc	r5, #274432	; 0x43000
    a0f4:	3a73253a 	bcc	1cd35e4 <__bss_end__+0x1cc9084>
    a0f8:	663a6425 	ldrtvs	r6, [sl], -r5, lsr #8
    a0fc:	74616f6c 	strbtvc	r6, [r1], #-3948	; 0xf6c
    a100:	746f6e20 	strbtvc	r6, [pc], #-3616	; a108 <__FUNCTION__.4293+0x94>
    a104:	616e6520 	cmnvs	lr, r0, lsr #10
    a108:	64656c62 	strbtvs	r6, [r5], #-3170	; 0xc62
    a10c:	0a212121 	beq	852598 <__bss_end__+0x848038>
    a110:	00000000 	andeq	r0, r0, r0
    a114:	494e4150 	stmdbmi	lr, {r4, r6, r8, lr}^
    a118:	73253a43 	teqvc	r5, #274432	; 0x43000
    a11c:	3a73253a 	bcc	1cd360c <__bss_end__+0x1cc90ac>
    a120:	703a6425 	eorsvc	r6, sl, r5, lsr #8
    a124:	746e6972 	strbtvc	r6, [lr], #-2418	; 0x972
    a128:	6e203a6b 	vnmulvs.f32	s6, s0, s23
    a12c:	6820746f 	stmdavs	r0!, {r0, r1, r2, r3, r5, r6, sl, ip, sp, lr}
    a130:	6c646e61 	stclvs	14, cr6, [r4], #-388	; 0xfffffe7c
    a134:	20676e69 	rsbcs	r6, r7, r9, ror #28
    a138:	63657073 	cmnvs	r5, #115	; 0x73
    a13c:	65696669 	strbvs	r6, [r9, #-1641]!	; 0x669
    a140:	25272072 	strcs	r2, [r7, #-114]!	; 0x72
    a144:	0a0a2763 	beq	293ed8 <__bss_end__+0x289978>
    a148:	00000000 	andeq	r0, r0, r0
    a14c:	454e4f44 	strbmi	r4, [lr, #-3908]	; 0xf44
    a150:	0a212121 	beq	8525dc <__bss_end__+0x84807c>
    a154:	00000000 	andeq	r0, r0, r0

Disassembly of section .bss:

0000a158 <__bss_start__>:
    a158:	00000000 	andeq	r0, r0, r0

0000a15c <buf.4219>:
	...

Disassembly of section .ARM.attributes:

00000000 <.ARM.attributes>:
   0:	00002a41 	andeq	r2, r0, r1, asr #20
   4:	61656100 	cmnvs	r5, r0, lsl #2
   8:	01006962 	tsteq	r0, r2, ror #18
   c:	00000020 	andeq	r0, r0, r0, lsr #32
  10:	4b5a3605 	blmi	168d82c <__bss_end__+0x16832cc>
  14:	08070600 	stmdaeq	r7, {r9, sl}
  18:	12010901 	andne	r0, r1, #16384	; 0x4000
  1c:	15011404 	strne	r1, [r1, #-1028]	; 0x404
  20:	18031701 	stmdane	r3, {r0, r8, r9, sl, ip}
  24:	22011a01 	andcs	r1, r1, #4096	; 0x1000
  28:	Address 0x0000000000000028 is out of bounds.


Disassembly of section .comment:

00000000 <.comment>:
   0:	3a434347 	bcc	10d0d24 <__bss_end__+0x10c67c4>
   4:	4e472820 	cdpmi	8, 4, cr2, cr7, cr0, {1}
   8:	34202955 	strtcc	r2, [r0], #-2389	; 0x955
   c:	332e382e 	teqcc	lr, #3014656	; 0x2e0000
  10:	43434700 	movtmi	r4, #14080	; 0x3700
  14:	3128203a 	teqcc	r8, sl, lsr r0
  18:	2e363a35 	mrccs	10, 1, r3, cr6, cr5, {1}
  1c:	2b312e33 	blcs	c4b8f0 <__bss_end__+0xc41390>
  20:	326e7673 	rsbcc	r7, lr, #120586240	; 0x7300000
  24:	33303335 	teqcc	r0, #-738197504	; 0xd4000000
  28:	62312d39 	eorsvs	r2, r1, #3648	; 0xe40
  2c:	646c6975 	strbtvs	r6, [ip], #-2421	; 0x975
  30:	36202931 			; <UNDEFINED> instruction: 0x36202931
  34:	312e332e 	teqcc	lr, lr, lsr #6
  38:	31303220 	teqcc	r0, r0, lsr #4
  3c:	32363037 	eorscc	r3, r6, #55	; 0x37
  40:	Address 0x0000000000000040 is out of bounds.


Disassembly of section .debug_info:

00000000 <.debug_info>:
       0:	0000113c 	andeq	r1, r0, ip, lsr r1
       4:	00000004 	andeq	r0, r0, r4
       8:	01040000 	mrseq	r0, (UNDEF: 4)
       c:	0000043f 	andeq	r0, r0, pc, lsr r4
      10:	00001101 	andeq	r1, r0, r1, lsl #2
      14:	00039200 	andeq	r9, r3, r0, lsl #4
      18:	00801000 	addeq	r1, r0, r0
      1c:	00072400 	andeq	r2, r7, r0, lsl #8
      20:	00000000 	andeq	r0, r0, r0
      24:	05040200 	streq	r0, [r4, #-512]	; 0x200
      28:	00746e69 	rsbseq	r6, r4, r9, ror #28
      2c:	84070403 	strhi	r0, [r7], #-1027	; 0x403
      30:	03000000 	movweq	r0, #0
      34:	036f0601 	cmneq	pc, #1048576	; 0x100000
      38:	02030000 	andeq	r0, r3, #0
      3c:	0003f805 	andeq	pc, r3, r5, lsl #16
      40:	05040300 	streq	r0, [r4, #-768]	; 0x300
      44:	000000b6 	strheq	r0, [r0], -r6
      48:	b1050803 	tstlt	r5, r3, lsl #16
      4c:	04000000 	streq	r0, [r0], #-0
      50:	000005a0 	andeq	r0, r0, r0, lsr #11
      54:	005a2e03 	subseq	r2, sl, r3, lsl #28
      58:	01030000 	mrseq	r0, (UNDEF: 3)
      5c:	00036d08 	andeq	r6, r3, r8, lsl #26
      60:	07020300 	streq	r0, [r2, -r0, lsl #6]
      64:	00000281 	andeq	r0, r0, r1, lsl #5
      68:	0004c604 	andeq	ip, r4, r4, lsl #12
      6c:	73340300 	teqvc	r4, #0, 6
      70:	03000000 	movweq	r0, #0
      74:	007f0704 	rsbseq	r0, pc, r4, lsl #14
      78:	08030000 	stmdaeq	r3, {}	; <UNPREDICTABLE>
      7c:	00007a07 	andeq	r7, r0, r7, lsl #20
      80:	07040300 	streq	r0, [r4, -r0, lsl #6]
      84:	000002f0 	strdeq	r0, [r0], -r0	; <UNPREDICTABLE>
      88:	76080103 	strvc	r0, [r8], -r3, lsl #2
      8c:	05000003 	streq	r0, [r0, #-3]
      90:	00009504 	andeq	r9, r0, r4, lsl #10
      94:	00880600 	addeq	r0, r8, r0, lsl #12
      98:	88070000 	stmdahi	r7, {}	; <UNPREDICTABLE>
      9c:	aa000000 	bge	a4 <_start-0x7f5c>
      a0:	08000000 	stmdaeq	r0, {}	; <UNPREDICTABLE>
      a4:	00000081 	andeq	r0, r0, r1, lsl #1
      a8:	01090007 	tsteq	r9, r7
      ac:	00ba0402 	adcseq	r0, sl, r2, lsl #8
      b0:	700a0000 	andvc	r0, sl, r0
      b4:	eb000005 	bl	d0 <_start-0x7f30>
      b8:	01090000 	mrseq	r0, (UNDEF: 9)
      bc:	01052c02 	tsteq	r5, r2, lsl #24
      c0:	e30a0000 	movw	r0, #40960	; 0xa000
      c4:	00000002 	andeq	r0, r0, r2
      c8:	0003160a 	andeq	r1, r3, sl, lsl #12
      cc:	b10a0100 	mrslt	r0, (UNDEF: 26)
      d0:	02000005 	andeq	r0, r0, #5
      d4:	0001890a 	andeq	r8, r1, sl, lsl #18
      d8:	380a0300 	stmdacc	sl, {r8, r9}
      dc:	04000002 	streq	r0, [r0], #-2
      e0:	0001470a 	andeq	r4, r1, sl, lsl #14
      e4:	fa0a0500 	blx	2814ec <__bss_end__+0x276f8c>
      e8:	06000004 	streq	r0, [r0], -r4
      ec:	0003460a 	andeq	r4, r3, sl, lsl #12
      f0:	210a0700 	tstcs	sl, r0, lsl #14
      f4:	08000004 	stmdaeq	r0, {r2}
      f8:	0002710a 	andeq	r7, r2, sl, lsl #2
      fc:	360a0900 	strcc	r0, [sl], -r0, lsl #18
     100:	0a000003 	beq	114 <_start-0x7eec>
     104:	02c10400 	sbceq	r0, r1, #0, 8
     108:	3a020000 	bcc	80110 <__bss_end__+0x75bb0>
     10c:	000000ba 	strheq	r0, [r0], -sl
     110:	43020409 	movwmi	r0, #9225	; 0x2409
     114:	0000013d 	andeq	r0, r0, sp, lsr r1
     118:	0001a00a 	andeq	sl, r1, sl
     11c:	d4808000 	strle	r8, [r0], #0
     120:	00180a07 	andseq	r0, r8, r7, lsl #20
     124:	80810000 	addhi	r0, r1, r0
     128:	600a0fd0 	ldrdvs	r0, [sl], -r0	; <UNPREDICTABLE>
     12c:	82000001 	andhi	r0, r0, #1
     130:	0a1fa080 	beq	7e8338 <__bss_end__+0x7dddd8>
     134:	00000516 	andeq	r0, r0, r6, lsl r5
     138:	3ec08083 	cdpcc	0, 12, cr8, cr0, cr3, {4}
     13c:	05300400 	ldreq	r0, [r0, #-1024]!	; 0x400
     140:	4b020000 	blmi	80148 <__bss_end__+0x75be8>
     144:	00000110 	andeq	r0, r0, r0, lsl r1
     148:	0002b90b 	andeq	fp, r2, fp, lsl #18
     14c:	57020100 	strpl	r0, [r2, -r0, lsl #2]
     150:	000002cd 	andeq	r0, r0, sp, asr #5
     154:	0003e80a 	andeq	lr, r3, sl, lsl #16
     158:	280a0100 	stmdacs	sl, {r8}
     15c:	06000000 	streq	r0, [r0], -r0
     160:	0000330a 	andeq	r3, r0, sl, lsl #6
     164:	3e0a0700 	cdpcc	7, 0, cr0, cr10, cr0, {0}
     168:	08000000 	stmdaeq	r0, {}	; <UNPREDICTABLE>
     16c:	0000490a 	andeq	r4, r0, sl, lsl #18
     170:	540a0900 	strpl	r0, [sl], #-2304	; 0x900
     174:	0a000000 	beq	17c <_start-0x7e84>
     178:	0004e60a 	andeq	lr, r4, sl, lsl #12
     17c:	000a0b00 	andeq	r0, sl, r0, lsl #22
     180:	0d000003 	stceq	0, cr0, [r0, #-12]
     184:	0006350a 	andeq	r3, r6, sl, lsl #10
     188:	d30a0e00 	movwle	r0, #44544	; 0xae00
     18c:	0f000004 	svceq	0x00000004
     190:	0002a80a 	andeq	sl, r2, sl, lsl #16
     194:	540a1000 	strpl	r1, [sl], #-0
     198:	11000002 	tstne	r0, r2
     19c:	0000f30a 	andeq	pc, r0, sl, lsl #6
     1a0:	090a1200 	stmdbeq	sl, {r9, ip}
     1a4:	13000000 	movwne	r0, #0
     1a8:	0005550a 	andeq	r5, r5, sl, lsl #10
     1ac:	8a0a1400 	bhi	2851b4 <__bss_end__+0x27ac54>
     1b0:	15000003 	strne	r0, [r0, #-3]
     1b4:	0002b10a 	andeq	fp, r2, sl, lsl #2
     1b8:	020a1600 	andeq	r1, sl, #0, 12
     1bc:	17000004 	strne	r0, [r0, -r4]
     1c0:	00005f0a 	andeq	r5, r0, sl, lsl #30
     1c4:	670a1800 	strvs	r1, [sl, -r0, lsl #16]
     1c8:	19000005 	stmdbne	r0, {r0, r2}
     1cc:	00030a0a 	andeq	r0, r3, sl, lsl #20
     1d0:	3f0a1b00 	svccc	0x000a1b00
     1d4:	1c000001 	stcne	0, cr0, [r0], {1}
     1d8:	0005ee0a 	andeq	lr, r5, sl, lsl #28
     1dc:	0a0a1d00 	beq	2875e4 <__bss_end__+0x27d084>
     1e0:	1e000002 	cdpne	0, 0, cr0, cr0, cr2, {0}
     1e4:	0000d20a 	andeq	sp, r0, sl, lsl #4
     1e8:	bf0a2000 	svclt	0x000a2000
     1ec:	21000000 	mrscs	r0, (UNDEF: 0)
     1f0:	0000000a 	andeq	r0, r0, sl
     1f4:	aa0a2200 	bge	2889fc <__bss_end__+0x27e49c>
     1f8:	23000004 	movwcs	r0, #4
     1fc:	0003550a 	andeq	r5, r3, sl, lsl #10
     200:	f60a2400 			; <UNDEFINED> instruction: 0xf60a2400
     204:	25000005 	strcs	r0, [r0, #-5]
     208:	0001360a 	andeq	r3, r1, sl, lsl #12
     20c:	2c0a2600 	stccs	6, cr2, [sl], {-0}
     210:	27000006 	strcs	r0, [r0, -r6]
     214:	00055d0a 	andeq	r5, r5, sl, lsl #26
     218:	560a2800 	strpl	r2, [sl], -r0, lsl #16
     21c:	29000001 	stmdbcs	r0, {r0}
     220:	00012c0a 	andeq	r2, r1, sl, lsl #24
     224:	0b0a2a00 	bleq	28aa2c <__bss_end__+0x2804cc>
     228:	2b000004 	blcs	240 <_start-0x7dc0>
     22c:	0002670a 	andeq	r6, r2, sl, lsl #14
     230:	3f0a2c00 	svccc	0x000a2c00
     234:	2d000005 	stccs	0, cr0, [r0, #-20]	; 0xffffffec
     238:	00021e0a 	andeq	r1, r2, sl, lsl #28
     23c:	2b0a3a00 	blcs	28ea44 <__bss_end__+0x2844e4>
     240:	3b000002 	blcc	250 <_start-0x7db0>
     244:	0005090a 	andeq	r0, r5, sl, lsl #18
     248:	470a3c00 	strmi	r3, [sl, -r0, lsl #24]
     24c:	3d000002 	stccc	0, cr0, [r0, #-8]
     250:	00061c0a 	andeq	r1, r6, sl, lsl #24
     254:	0c0a3e00 	stceq	14, cr3, [sl], {-0}
     258:	3f000006 	svccc	0x00000006
     25c:	0001ee0a 	andeq	lr, r1, sl, lsl #28
     260:	0a00c000 	beq	30268 <__bss_end__+0x25d08>
     264:	0000017a 	andeq	r0, r0, sl, ror r1
     268:	c80a00c1 	stmdagt	sl, {r0, r6, r7}
     26c:	c2000005 	andgt	r0, r0, #5
     270:	01060a00 	tsteq	r6, r0, lsl #20
     274:	00c90000 	sbceq	r0, r9, r0
     278:	0001c20a 	andeq	ip, r1, sl, lsl #4
     27c:	0a00ca00 	beq	32a84 <__bss_end__+0x28524>
     280:	0000037b 	andeq	r0, r0, fp, ror r3
     284:	5e0a00cb 	cdppl	0, 0, cr0, cr10, cr11, {6}
     288:	cc000003 	stcgt	0, cr0, [r0], {3}
     28c:	05970a00 	ldreq	r0, [r7, #2560]	; 0xa00
     290:	00d30000 	sbcseq	r0, r3, r0
     294:	0003240a 	andeq	r2, r3, sl, lsl #8
     298:	0a00d800 	beq	362a0 <__bss_end__+0x2bd40>
     29c:	000000fb 	strdeq	r0, [r0], -fp
     2a0:	a80a00d9 	stmdage	sl, {r0, r3, r4, r6, r7}
     2a4:	da000005 	ble	2c0 <_start-0x7d40>
     2a8:	009a0a00 	addseq	r0, sl, r0, lsl #20
     2ac:	00db0000 	sbcseq	r0, fp, r0
     2b0:	0004150a 	andeq	r1, r4, sl, lsl #10
     2b4:	0a00dc00 	beq	372bc <__bss_end__+0x2cd5c>
     2b8:	000004dc 	ldrdeq	r0, [r0], -ip
     2bc:	dd0a00dd 	stcle	0, cr0, [sl, #-884]	; 0xfffffc8c
     2c0:	de000000 	cdple	0, 0, cr0, cr0, cr0, {0}
     2c4:	05860a00 	streq	r0, [r6, #2560]	; 0xa00
     2c8:	00df0000 	sbcseq	r0, pc, r0
     2cc:	020c0c00 	andeq	r0, ip, #0, 24
     2d0:	0002f4a1 	andeq	pc, r2, r1, lsr #9
     2d4:	00780d00 	rsbseq	r0, r8, r0, lsl #26
     2d8:	0025a102 	eoreq	sl, r5, r2, lsl #2
     2dc:	0d000000 	stceq	0, cr0, [r0, #-0]
     2e0:	a1020079 	tstge	r2, r9, ror r0
     2e4:	00000025 	andeq	r0, r0, r5, lsr #32
     2e8:	007a0d04 	rsbseq	r0, sl, r4, lsl #26
     2ec:	0025a102 	eoreq	sl, r5, r2, lsl #2
     2f0:	00080000 	andeq	r0, r8, r0
     2f4:	00032c04 	andeq	r2, r3, r4, lsl #24
     2f8:	cda10200 	sfmgt	f0, 4, [r1]
     2fc:	09000002 	stmdbeq	r0, {r1}
     300:	0f1c0101 	svceq	0x001c0101
     304:	0a000003 	beq	318 <_start-0x7ce8>
     308:	000004cf 	andeq	r0, r0, pc, asr #9
     30c:	0c0000e9 	stceq	0, cr0, [r0], {233}	; 0xe9
     310:	47460110 	smlaldmi	r0, r6, r0, r1
     314:	0e000003 	cdpeq	0, 0, cr0, cr0, cr3, {0}
     318:	00000581 	andeq	r0, r0, r1, lsl #11
     31c:	004f4701 	subeq	r4, pc, r1, lsl #14
     320:	0d000000 	stceq	0, cr0, [r0, #-0]
     324:	01007a68 	tsteq	r0, r8, ror #20
     328:	00002c48 	andeq	r2, r0, r8, asr #24
     32c:	640d0400 	strvs	r0, [sp], #-1024	; 0x400
     330:	01007370 	tsteq	r0, r0, ror r3
     334:	00002c49 	andeq	r2, r0, r9, asr #24
     338:	ab0e0800 	blge	382340 <__bss_end__+0x377de0>
     33c:	01000000 	mrseq	r0, (UNDEF: 0)
     340:	00002c4a 	andeq	r2, r0, sl, asr #24
     344:	04000c00 	streq	r0, [r0], #-3072	; 0xc00
     348:	000002dc 	ldrdeq	r0, [r0], -ip
     34c:	030f4b01 	movweq	r4, #64257	; 0xfb01
     350:	9e0f0000 	cdpls	0, 0, cr0, cr15, cr0, {0}
     354:	02000002 	andeq	r0, r0, #2
     358:	0000254d 	andeq	r2, r0, sp, asr #10
     35c:	036e0300 	cmneq	lr, #0, 6
     360:	64100000 	ldrvs	r0, [r0], #-0
     364:	02007370 	andeq	r7, r0, #112, 6	; 0xc0000001
     368:	00013d4d 	andeq	r3, r1, sp, asr #26
     36c:	17110000 	ldrne	r0, [r1, -r0]
     370:	01000001 	tsteq	r0, r1
     374:	0002f41e 	andeq	pc, r2, lr, lsl r4	; <UNPREDICTABLE>
     378:	00801000 	addeq	r1, r0, r0
     37c:	00001000 	andeq	r1, r0, r0
     380:	a99c0100 	ldmibge	ip, {r8}
     384:	12000003 	andne	r0, r0, #3
     388:	1e010078 	mcrne	0, 0, r0, cr1, cr8, {3}
     38c:	00000025 	andeq	r0, r0, r5, lsr #32
     390:	79125101 	ldmdbvc	r2, {r0, r8, ip, lr}
     394:	251e0100 	ldrcs	r0, [lr, #-256]	; 0x100
     398:	01000000 	mrseq	r0, (UNDEF: 0)
     39c:	007a1252 	rsbseq	r1, sl, r2, asr r2
     3a0:	00251e01 	eoreq	r1, r5, r1, lsl #28
     3a4:	53010000 	movwpl	r0, #4096	; 0x1000
     3a8:	01971100 	orrseq	r1, r7, r0, lsl #2
     3ac:	4d010000 	stcmi	0, cr0, [r1, #-0]
     3b0:	00000025 	andeq	r0, r0, r5, lsr #32
     3b4:	00008020 	andeq	r8, r0, r0, lsr #32
     3b8:	0000000c 	andeq	r0, r0, ip
     3bc:	03ec9c01 	mvneq	r9, #256	; 0x100
     3c0:	68130000 	ldmdavs	r3, {}	; <UNPREDICTABLE>
     3c4:	4d010069 	stcmi	0, cr0, [r1, #-420]	; 0xfffffe5c
     3c8:	0000004f 	andeq	r0, r0, pc, asr #32
     3cc:	00000000 	andeq	r0, r0, r0
     3d0:	006f6c12 	rsbeq	r6, pc, r2, lsl ip	; <UNPREDICTABLE>
     3d4:	004f4d01 	subeq	r4, pc, r1, lsl #26
     3d8:	51010000 	mrspl	r0, (UNDEF: 1)
     3dc:	0005bf14 	andeq	fp, r5, r4, lsl pc
     3e0:	3a4e0100 	bcc	13807e8 <__bss_end__+0x1376288>
     3e4:	21000000 	mrscs	r0, (UNDEF: 0)
     3e8:	00000000 	andeq	r0, r0, r0
     3ec:	0001e211 	andeq	lr, r1, r1, lsl r2
     3f0:	25530100 	ldrbcs	r0, [r3, #-256]	; 0x100
     3f4:	2c000000 	stccs	0, cr0, [r0], {-0}
     3f8:	1c000080 	stcne	0, cr0, [r0], {128}	; 0x80
     3fc:	01000000 	mrseq	r0, (UNDEF: 0)
     400:	0004229c 	muleq	r4, ip, r2
     404:	00761300 	rsbseq	r1, r6, r0, lsl #6
     408:	00255301 	eoreq	r5, r5, r1, lsl #6
     40c:	00340000 	eorseq	r0, r4, r0
     410:	5d150000 	ldcpl	0, cr0, [r5, #-0]
     414:	01000002 	tsteq	r0, r2
     418:	00002553 	andeq	r2, r0, r3, asr r5
     41c:	00005500 	andeq	r5, r0, r0, lsl #10
     420:	a6110000 	ldrge	r0, [r1], -r0
     424:	01000000 	mrseq	r0, (UNDEF: 0)
     428:	0002f464 	andeq	pc, r2, r4, ror #8
     42c:	00804800 	addeq	r4, r0, r0, lsl #16
     430:	00006800 	andeq	r6, r0, r0, lsl #16
     434:	f89c0100 			; <UNDEFINED> instruction: 0xf89c0100
     438:	13000004 	movwne	r0, #4
     43c:	64010068 	strvs	r0, [r1], #-104	; 0x68
     440:	000004f8 	strdeq	r0, [r0], -r8
     444:	00000076 	andeq	r0, r0, r6, ror r0
     448:	7a797812 	bvc	1e5e498 <__bss_end__+0x1e53f38>
     44c:	f4640100 	vld4.8	{d16,d18,d20,d22}, [r4], r0
     450:	02000002 	andeq	r0, r0, #2
     454:	73167891 	tstvc	r6, #9502720	; 0x910000
     458:	25650100 	strbcs	r0, [r5, #-256]!	; 0x100
     45c:	97000000 	strls	r0, [r0, -r0]
     460:	16000000 	strne	r0, [r0], -r0
     464:	66010078 			; <UNDEFINED> instruction: 0x66010078
     468:	00000025 	andeq	r0, r0, r5, lsr #32
     46c:	000000aa 	andeq	r0, r0, sl, lsr #1
     470:	01007916 	tsteq	r0, r6, lsl r9
     474:	00002567 	andeq	r2, r0, r7, ror #10
     478:	0000c800 	andeq	ip, r0, r0, lsl #16
     47c:	007a1600 	rsbseq	r1, sl, r0, lsl #12
     480:	00256801 	eoreq	r6, r5, r1, lsl #16
     484:	00e60000 	rsceq	r0, r6, r0
     488:	6c170000 	ldcvs	0, cr0, [r7], {-0}
     48c:	ec000080 	stc	0, cr0, [r0], {128}	; 0x80
     490:	a5000003 	strge	r0, [r0, #-3]
     494:	18000004 	stmdane	r0, {r2}
     498:	74025101 	strvc	r5, [r2], #-257	; 0x101
     49c:	50011800 	andpl	r1, r1, r0, lsl #16
     4a0:	06187d03 	ldreq	r7, [r8], -r3, lsl #26
     4a4:	807c1700 	rsbshi	r1, ip, r0, lsl #14
     4a8:	03ec0000 	mvneq	r0, #0
     4ac:	04c00000 	strbeq	r0, [r0], #0
     4b0:	01180000 	tsteq	r8, r0
     4b4:	00740251 	rsbseq	r0, r4, r1, asr r2
     4b8:	03500118 	cmpeq	r0, #24, 2
     4bc:	00066491 	muleq	r6, r1, r4
     4c0:	00808c17 	addeq	r8, r0, r7, lsl ip
     4c4:	0003ec00 	andeq	lr, r3, r0, lsl #24
     4c8:	0004db00 	andeq	sp, r4, r0, lsl #22
     4cc:	51011800 	tstpl	r1, r0, lsl #16
     4d0:	18007402 	stmdane	r0, {r1, sl, ip, sp, lr}
     4d4:	91035001 	tstls	r3, r1
     4d8:	19000668 	stmdbne	r0, {r3, r5, r6, r9, sl}
     4dc:	000080a0 	andeq	r8, r0, r0, lsr #1
     4e0:	0000036e 	andeq	r0, r0, lr, ror #6
     4e4:	02520118 	subseq	r0, r2, #24, 2
     4e8:	01180076 	tsteq	r8, r6, ror r0
     4ec:	00770251 	rsbseq	r0, r7, r1, asr r2
     4f0:	02500118 	subseq	r0, r0, #24, 2
     4f4:	00000075 	andeq	r0, r0, r5, ror r0
     4f8:	03470405 	movteq	r0, #29701	; 0x7405
     4fc:	1e1a0000 	cdpne	0, 1, cr0, cr10, cr0, {0}
     500:	01000001 	tsteq	r0, r1
     504:	0080b0a7 	addeq	fp, r0, r7, lsr #1
     508:	0000b000 	andeq	fp, r0, r0
     50c:	179c0100 	ldrne	r0, [ip, r0, lsl #2]
     510:	15000006 	strne	r0, [r0, #-6]
     514:	00000215 	andeq	r0, r0, r5, lsl r2
     518:	0025a701 	eoreq	sl, r5, r1, lsl #14
     51c:	01040000 	mrseq	r0, (UNDEF: 4)
     520:	68130000 	ldmdavs	r3, {}	; <UNPREDICTABLE>
     524:	4fa70100 	svcmi	0x00a70100
     528:	30000000 	andcc	r0, r0, r0
     52c:	13000001 	movwne	r0, #1
     530:	a701006c 	strge	r0, [r1, -ip, rrx]
     534:	0000004f 	andeq	r0, r0, pc, asr #32
     538:	00000151 	andeq	r0, r0, r1, asr r1
     53c:	00025d15 	andeq	r5, r2, r5, lsl sp
     540:	25a70100 	strcs	r0, [r7, #256]!	; 0x100
     544:	72000000 	andvc	r0, r0, #0
     548:	16000001 	strne	r0, [r0], -r1
     54c:	a8010076 	stmdage	r1, {r1, r2, r4, r5, r6}
     550:	00000025 	andeq	r0, r0, r5, lsr #32
     554:	0000019e 	muleq	r0, lr, r1
     558:	01007316 	tsteq	r0, r6, lsl r3
     55c:	000025aa 	andeq	r2, r0, sl, lsr #11
     560:	0001bc00 	andeq	fp, r1, r0, lsl #24
     564:	02cf1b00 	sbceq	r1, pc, #0, 22
     568:	06270000 	strteq	r0, [r7], -r0
     56c:	03050000 	movweq	r0, #20480	; 0x5000
     570:	00009ba8 	andeq	r9, r0, r8, lsr #23
     574:	0080cc1c 	addeq	ip, r0, ip, lsl ip
     578:	0003a900 	andeq	sl, r3, r0, lsl #18
     57c:	80d81700 	sbcshi	r1, r8, r0, lsl #14
     580:	03ec0000 	mvneq	r0, #0
     584:	05970000 	ldreq	r0, [r7]
     588:	01180000 	tsteq	r8, r0
     58c:	00760251 	rsbseq	r0, r6, r1, asr r2
     590:	02500118 	subseq	r0, r0, #24, 2
     594:	17000077 	smlsdxne	r0, r7, r0, r0
     598:	000080fc 	strdeq	r8, [r0], -ip
     59c:	000010b7 	strheq	r1, [r0], -r7
     5a0:	000005c0 	andeq	r0, r0, r0, asr #11
     5a4:	02530118 	subseq	r0, r3, #24, 2
     5a8:	01180075 	tsteq	r8, r5, ror r0
     5ac:	00740252 	rsbseq	r0, r4, r2, asr r2
     5b0:	02510118 	subseq	r0, r1, #24, 2
     5b4:	01180077 	tsteq	r8, r7, ror r0
     5b8:	04030550 	streq	r0, [r3], #-1360	; 0x550
     5bc:	0000009c 	muleq	r0, ip, r0
     5c0:	0081201c 	addeq	r2, r1, ip, lsl r0
     5c4:	0010cd00 	andseq	ip, r0, r0, lsl #26
     5c8:	81401700 	cmphi	r0, r0, lsl #14
     5cc:	10b70000 	adcsne	r0, r7, r0
     5d0:	060d0000 	streq	r0, [sp], -r0
     5d4:	01180000 	tsteq	r8, r0
     5d8:	b1080253 	tstlt	r8, r3, asr r2
     5dc:	05520118 	ldrbeq	r0, [r2, #-280]	; 0x118
     5e0:	009ba803 	addseq	sl, fp, r3, lsl #16
     5e4:	51011800 	tstpl	r1, r0, lsl #16
     5e8:	9c580305 	mrrcls	3, 0, r0, r8, cr5
     5ec:	01180000 	tsteq	r8, r0
     5f0:	24030550 	strcs	r0, [r3], #-1360	; 0x550
     5f4:	1800009c 	stmdane	r0, {r2, r3, r4, r7}
     5f8:	02087d02 	andeq	r7, r8, #2, 26	; 0x80
     5fc:	02180076 	andseq	r0, r8, #118	; 0x76
     600:	7402047d 	strvc	r0, [r2], #-1149	; 0x47d
     604:	7d021800 	stcvc	8, cr1, [r2, #-0]
     608:	00750200 	rsbseq	r0, r5, r0, lsl #4
     60c:	81441c00 	cmphi	r4, r0, lsl #24
     610:	10d40000 	sbcsne	r0, r4, r0
     614:	07000000 	streq	r0, [r0, -r0]
     618:	00000088 	andeq	r0, r0, r8, lsl #1
     61c:	00000627 	andeq	r0, r0, r7, lsr #12
     620:	00008108 	andeq	r8, r0, r8, lsl #2
     624:	06000800 	streq	r0, [r0], -r0, lsl #16
     628:	00000617 	andeq	r0, r0, r7, lsl r6
     62c:	0002f91d 	andeq	pc, r2, sp, lsl r9	; <UNPREDICTABLE>
     630:	4f240100 	svcmi	0x00240100
     634:	60000000 	andvs	r0, r0, r0
     638:	94000081 	strls	r0, [r0], #-129	; 0x81
     63c:	01000000 	mrseq	r0, (UNDEF: 0)
     640:	00073b9c 	muleq	r7, ip, fp
     644:	05811500 	streq	r1, [r1, #1280]	; 0x500
     648:	24010000 	strcs	r0, [r1], #-0
     64c:	0000004f 	andeq	r0, r0, pc, asr #32
     650:	000001cf 	andeq	r0, r0, pc, asr #3
     654:	67657213 			; <UNDEFINED> instruction: 0x67657213
     658:	4f240100 	svcmi	0x00240100
     65c:	22000000 	andcs	r0, r0, #0
     660:	1b000002 	blne	670 <_start-0x7990>
     664:	000002cf 	andeq	r0, r0, pc, asr #5
     668:	0000074b 	andeq	r0, r0, fp, asr #14
     66c:	9bb40305 	blls	fed01288 <__bss_end__+0xfecf6d28>
     670:	761e0000 	ldrvc	r0, [lr], -r0
     674:	4f290100 	svcmi	0x00290100
     678:	02000000 	andeq	r0, r0, #0
     67c:	781c7791 	ldmdavc	ip, {r0, r4, r7, r8, r9, sl, ip, sp, lr}
     680:	cd000081 	stcgt	0, cr0, [r0, #-516]	; 0xfffffdfc
     684:	17000010 	smladne	r0, r0, r0, r0
     688:	0000818c 	andeq	r8, r0, ip, lsl #3
     68c:	000010b7 	strheq	r1, [r0], -r7
     690:	000006b6 			; <UNDEFINED> instruction: 0x000006b6
     694:	02530118 	subseq	r0, r3, #24, 2
     698:	01182508 	tsteq	r8, r8, lsl #10
     69c:	b4030552 	strlt	r0, [r3], #-1362	; 0x552
     6a0:	1800009b 	stmdane	r0, {r0, r1, r3, r4, r7}
     6a4:	03055101 	movweq	r5, #20737	; 0x5101
     6a8:	00009c58 	andeq	r9, r0, r8, asr ip
     6ac:	05500118 	ldrbeq	r0, [r0, #-280]	; 0x118
     6b0:	009c6003 	addseq	r6, ip, r3
     6b4:	901c0000 	andsls	r0, ip, r0
     6b8:	d4000081 	strle	r0, [r0], #-129	; 0x81
     6bc:	1c000010 	stcne	0, cr0, [r0], {16}
     6c0:	000081a0 	andeq	r8, r0, r0, lsr #3
     6c4:	000010cd 	andeq	r1, r0, sp, asr #1
     6c8:	0081b417 	addeq	fp, r1, r7, lsl r4
     6cc:	0010b700 	andseq	fp, r0, r0, lsl #14
     6d0:	0006f700 	andeq	pc, r6, r0, lsl #14
     6d4:	53011800 	movwpl	r1, #6144	; 0x1800
     6d8:	18260802 	stmdane	r6!, {r1, fp}
     6dc:	03055201 	movweq	r5, #20993	; 0x5201
     6e0:	00009bb4 			; <UNDEFINED> instruction: 0x00009bb4
     6e4:	05510118 	ldrbeq	r0, [r1, #-280]	; 0x118
     6e8:	009c5803 	addseq	r5, ip, r3, lsl #16
     6ec:	50011800 	andpl	r1, r1, r0, lsl #16
     6f0:	9c780305 	ldclls	3, cr0, [r8], #-20	; 0xffffffec
     6f4:	1c000000 	stcne	0, cr0, [r0], {-0}
     6f8:	000081b8 			; <UNDEFINED> instruction: 0x000081b8
     6fc:	000010d4 	ldrdeq	r1, [r0], -r4
     700:	0081c817 	addeq	ip, r1, r7, lsl r8
     704:	0010db00 	andseq	sp, r0, r0, lsl #22
     708:	00071f00 	andeq	r1, r7, r0, lsl #30
     70c:	52011800 	andpl	r1, r1, #0, 16
     710:	01183101 	tsteq	r8, r1, lsl #2
     714:	67910251 			; <UNDEFINED> instruction: 0x67910251
     718:	02500118 	subseq	r0, r0, #24, 2
     71c:	19000074 	stmdbne	r0, {r2, r4, r5, r6}
     720:	000081d8 	ldrdeq	r8, [r0], -r8	; <UNPREDICTABLE>
     724:	000010fa 	strdeq	r1, [r0], -sl
     728:	01520118 	cmpeq	r2, r8, lsl r1
     72c:	51011831 	tstpl	r1, r1, lsr r8
     730:	186f9102 	stmdane	pc!, {r1, r8, ip, pc}^	; <UNPREDICTABLE>
     734:	74025001 	strvc	r5, [r2], #-1
     738:	07000000 	streq	r0, [r0, -r0]
     73c:	00000088 	andeq	r0, r0, r8, lsl #1
     740:	0000074b 	andeq	r0, r0, fp, asr #14
     744:	00008108 	andeq	r8, r0, r8, lsl #2
     748:	06000600 	streq	r0, [r0], -r0, lsl #12
     74c:	0000073b 	andeq	r0, r0, fp, lsr r7
     750:	0004f31f 	andeq	pc, r4, pc, lsl r3	; <UNPREDICTABLE>
     754:	f42f0100 	vld4.8	{d0,d2,d4,d6}, [pc], r0
     758:	7c000081 	stcvc	0, cr0, [r0], {129}	; 0x81
     75c:	01000000 	mrseq	r0, (UNDEF: 0)
     760:	0008459c 	muleq	r8, ip, r5
     764:	05811500 	streq	r1, [r1, #1280]	; 0x500
     768:	2f010000 	svccs	0x00010000
     76c:	0000004f 	andeq	r0, r0, pc, asr #32
     770:	0000027b 	andeq	r0, r0, fp, ror r2
     774:	67657213 			; <UNDEFINED> instruction: 0x67657213
     778:	4f2f0100 	svcmi	0x002f0100
     77c:	9c000000 	stcls	0, cr0, [r0], {-0}
     780:	13000002 	movwne	r0, #2
     784:	2f010076 	svccs	0x00010076
     788:	0000004f 	andeq	r0, r0, pc, asr #32
     78c:	000002fb 	strdeq	r0, [r0], -fp
     790:	0002cf1b 	andeq	ip, r2, fp, lsl pc
     794:	00084500 	andeq	r4, r8, r0, lsl #10
     798:	bc030500 	cfstr32lt	mvfx0, [r3], {-0}
     79c:	2000009b 	mulcs	r0, fp, r0
     7a0:	000004b8 			; <UNDEFINED> instruction: 0x000004b8
     7a4:	084a3201 	stmdaeq	sl, {r0, r9, ip, sp}^
     7a8:	91020000 	mrsls	r0, (UNDEF: 2)
     7ac:	82081c74 	andhi	r1, r8, #116, 24	; 0x7400
     7b0:	10cd0000 	sbcne	r0, sp, r0
     7b4:	1c170000 	ldcne	0, cr0, [r7], {-0}
     7b8:	b7000082 	strlt	r0, [r0, -r2, lsl #1]
     7bc:	e5000010 	str	r0, [r0, #-16]
     7c0:	18000007 	stmdane	r0, {r0, r1, r2}
     7c4:	08025301 	stmdaeq	r2, {r0, r8, r9, ip, lr}
     7c8:	52011830 	andpl	r1, r1, #48, 16	; 0x300000
     7cc:	9bbc0305 	blls	fef013e8 <__bss_end__+0xfeef6e88>
     7d0:	01180000 	tsteq	r8, r0
     7d4:	58030551 	stmdapl	r3, {r0, r4, r6, r8, sl}
     7d8:	1800009c 	stmdane	r0, {r2, r3, r4, r7}
     7dc:	03055001 	movweq	r5, #20481	; 0x5001
     7e0:	00009c60 	andeq	r9, r0, r0, ror #24
     7e4:	82201c00 	eorhi	r1, r0, #0, 24
     7e8:	10d40000 	sbcsne	r0, r4, r0
     7ec:	2c1c0000 	ldccs	0, cr0, [ip], {-0}
     7f0:	cd000082 	stcgt	0, cr0, [r0, #-520]	; 0xfffffdf8
     7f4:	17000010 	smladne	r0, r0, r0, r0
     7f8:	00008240 	andeq	r8, r0, r0, asr #4
     7fc:	000010b7 	strheq	r1, [r0], -r7
     800:	00000826 	andeq	r0, r0, r6, lsr #16
     804:	02530118 	subseq	r0, r3, #24, 2
     808:	01183108 	tsteq	r8, r8, lsl #2
     80c:	bc030552 	cfstr32lt	mvfx0, [r3], {82}	; 0x52
     810:	1800009b 	stmdane	r0, {r0, r1, r3, r4, r7}
     814:	03055101 	movweq	r5, #20737	; 0x5101
     818:	00009c58 	andeq	r9, r0, r8, asr ip
     81c:	05500118 	ldrbeq	r0, [r0, #-280]	; 0x118
     820:	009c7803 	addseq	r7, ip, r3, lsl #16
     824:	441c0000 	ldrmi	r0, [ip], #-0
     828:	d4000082 	strle	r0, [r0], #-130	; 0x82
     82c:	19000010 	stmdbne	r0, {r4}
     830:	00008258 	andeq	r8, r0, r8, asr r2
     834:	000010db 	ldrdeq	r1, [r0], -fp
     838:	01520118 	cmpeq	r2, r8, lsl r1
     83c:	51011832 	tstpl	r1, r2, lsr r8
     840:	006c9102 	rsbeq	r9, ip, r2, lsl #2
     844:	073b0600 	ldreq	r0, [fp, -r0, lsl #12]!
     848:	4f070000 	svcmi	0x00070000
     84c:	5a000000 	bpl	854 <_start-0x77ac>
     850:	08000008 	stmdaeq	r0, {r3}
     854:	00000081 	andeq	r0, r0, r1, lsl #1
     858:	911d0001 	tstls	sp, r1
     85c:	01000000 	mrseq	r0, (UNDEF: 0)
     860:	0000253b 	andeq	r2, r0, fp, lsr r5
     864:	00827000 	addeq	r7, r2, r0
     868:	00009800 	andeq	r9, r0, r0, lsl #16
     86c:	789c0100 	ldmvc	ip, {r8}
     870:	15000009 	strne	r0, [r0, #-9]
     874:	00000581 	andeq	r0, r0, r1, lsl #11
     878:	004f3b01 	subeq	r3, pc, r1, lsl #22
     87c:	035a0000 	cmpeq	sl, #0
     880:	71150000 	tstvc	r5, r0
     884:	01000001 	tsteq	r0, r1
     888:	00004f3b 	andeq	r4, r0, fp, lsr pc
     88c:	0003ad00 	andeq	sl, r3, r0, lsl #26
     890:	00761300 	rsbseq	r1, r6, r0, lsl #6
     894:	09783b01 	ldmdbeq	r8!, {r0, r8, r9, fp, ip, sp}^
     898:	04060000 	streq	r0, [r6], #-0
     89c:	6e130000 	cdpvs	0, 1, cr0, cr3, cr0, {0}
     8a0:	683b0100 	ldmdavs	fp!, {r8}
     8a4:	5e000000 	cdppl	0, 0, cr0, cr0, cr0, {0}
     8a8:	1b000004 	blne	8c0 <_start-0x7740>
     8ac:	000002cf 	andeq	r0, r0, pc, asr #5
     8b0:	0000097e 	andeq	r0, r0, lr, ror r9
     8b4:	9bc40305 	blls	ff1014d0 <__bss_end__+0xff0f6f70>
     8b8:	901c0000 	andsls	r0, ip, r0
     8bc:	cd000082 	stcgt	0, cr0, [r0, #-520]	; 0xfffffdf8
     8c0:	17000010 	smladne	r0, r0, r0, r0
     8c4:	000082a4 	andeq	r8, r0, r4, lsr #5
     8c8:	000010b7 	strheq	r1, [r0], -r7
     8cc:	000008f2 	strdeq	r0, [r0], -r2
     8d0:	02530118 	subseq	r0, r3, #24, 2
     8d4:	01183c08 	tsteq	r8, r8, lsl #24
     8d8:	c4030552 	strgt	r0, [r3], #-1362	; 0x552
     8dc:	1800009b 	stmdane	r0, {r0, r1, r3, r4, r7}
     8e0:	03055101 	movweq	r5, #20737	; 0x5101
     8e4:	00009c58 	andeq	r9, r0, r8, asr ip
     8e8:	05500118 	ldrbeq	r0, [r0, #-280]	; 0x118
     8ec:	009c6003 	addseq	r6, ip, r3
     8f0:	a81c0000 	ldmdage	ip, {}	; <UNPREDICTABLE>
     8f4:	d4000082 	strle	r0, [r0], #-130	; 0x82
     8f8:	1c000010 	stcne	0, cr0, [r0], {16}
     8fc:	000082b8 			; <UNDEFINED> instruction: 0x000082b8
     900:	000010cd 	andeq	r1, r0, sp, asr #1
     904:	0082cc17 	addeq	ip, r2, r7, lsl ip
     908:	0010b700 	andseq	fp, r0, r0, lsl #14
     90c:	00093300 	andeq	r3, r9, r0, lsl #6
     910:	53011800 	movwpl	r1, #6144	; 0x1800
     914:	183d0802 	ldmdane	sp!, {r1, fp}
     918:	03055201 	movweq	r5, #20993	; 0x5201
     91c:	00009bc4 	andeq	r9, r0, r4, asr #23
     920:	05510118 	ldrbeq	r0, [r1, #-280]	; 0x118
     924:	009c5803 	addseq	r5, ip, r3, lsl #16
     928:	50011800 	andpl	r1, r1, r0, lsl #16
     92c:	9c8c0305 	stcls	3, cr0, [ip], {5}
     930:	1c000000 	stcne	0, cr0, [r0], {-0}
     934:	000082d0 	ldrdeq	r8, [r0], -r0
     938:	000010d4 	ldrdeq	r1, [r0], -r4
     93c:	0082e017 	addeq	lr, r2, r7, lsl r0
     940:	0010db00 	andseq	sp, r0, r0, lsl #22
     944:	00095b00 	andeq	r5, r9, r0, lsl #22
     948:	52011800 	andpl	r1, r1, #0, 16
     94c:	01183101 	tsteq	r8, r1, lsl #2
     950:	67910251 			; <UNDEFINED> instruction: 0x67910251
     954:	02500118 	subseq	r0, r0, #24, 2
     958:	19000074 	stmdbne	r0, {r2, r4, r5, r6}
     95c:	000082f0 	strdeq	r8, [r0], -r0
     960:	000010fa 	strdeq	r1, [r0], -sl
     964:	02520118 	subseq	r0, r2, #24, 2
     968:	01180075 	tsteq	r8, r5, ror r0
     96c:	00760251 	rsbseq	r0, r6, r1, asr r2
     970:	02500118 	subseq	r0, r0, #24, 2
     974:	00000074 	andeq	r0, r0, r4, ror r0
     978:	004f0405 	subeq	r0, pc, r5, lsl #8
     97c:	17060000 	strne	r0, [r6, -r0]
     980:	1d000006 	stcne	0, cr0, [r0, #-24]	; 0xffffffe8
     984:	000005d7 	ldrdeq	r0, [r0], -r7
     988:	002c5901 	eoreq	r5, ip, r1, lsl #18
     98c:	83080000 	movwhi	r0, #32768	; 0x8000
     990:	00880000 	addeq	r0, r8, r0
     994:	9c010000 	stcls	0, cr0, [r1], {-0}
     998:	000009fb 	strdeq	r0, [r0], -fp
     99c:	00736613 	rsbseq	r6, r3, r3, lsl r6
     9a0:	002c5901 	eoreq	r5, ip, r1, lsl #18
     9a4:	04a00000 	strteq	r0, [r0], #0
     9a8:	cf1b0000 	svcgt	0x001b0000
     9ac:	0b000002 	bleq	9bc <_start-0x7644>
     9b0:	0500000a 	streq	r0, [r0, #-10]
     9b4:	009bd003 	addseq	sp, fp, r3
     9b8:	834c1c00 	movthi	r1, #52224	; 0xcc00
     9bc:	10cd0000 	sbcne	r0, sp, r0
     9c0:	60170000 	andsvs	r0, r7, r0
     9c4:	b7000083 	strlt	r0, [r0, -r3, lsl #1]
     9c8:	f1000010 	cps	#16
     9cc:	18000009 	stmdane	r0, {r0, r3}
     9d0:	08025301 	stmdaeq	r2, {r0, r8, r9, ip, lr}
     9d4:	5201185f 	andpl	r1, r1, #6225920	; 0x5f0000
     9d8:	9bd00305 	blls	ff4015f4 <__bss_end__+0xff3f7094>
     9dc:	01180000 	tsteq	r8, r0
     9e0:	58030551 	stmdapl	r3, {r0, r4, r6, r8, sl}
     9e4:	1800009c 	stmdane	r0, {r2, r3, r4, r7}
     9e8:	03055001 	movweq	r5, #20481	; 0x5001
     9ec:	00009ca8 	andeq	r9, r0, r8, lsr #25
     9f0:	83641c00 	cmnhi	r4, #0, 24
     9f4:	10d40000 	sbcsne	r0, r4, r0
     9f8:	07000000 	streq	r0, [r0, -r0]
     9fc:	00000088 	andeq	r0, r0, r8, lsl #1
     a00:	00000a0b 	andeq	r0, r0, fp, lsl #20
     a04:	00008108 	andeq	r8, r0, r8, lsl #2
     a08:	06000c00 	streq	r0, [r0], -r0, lsl #24
     a0c:	000009fb 	strdeq	r0, [r0], -fp
     a10:	0004310f 	andeq	r3, r4, pc, lsl #2
     a14:	253c0200 	ldrcs	r0, [ip, #-512]!	; 0x200
     a18:	03000000 	movweq	r0, #0
     a1c:	00000a38 	andeq	r0, r0, r8, lsr sl
     a20:	007a6810 	rsbseq	r6, sl, r0, lsl r8
     a24:	002c3c02 	eoreq	r3, ip, r2, lsl #24
     a28:	cf210000 	svcgt	0x00210000
     a2c:	48000002 	stmdami	r0, {r1}
     a30:	3100000a 	tstcc	r0, sl
     a34:	00000004 	andeq	r0, r0, r4
     a38:	00008807 	andeq	r8, r0, r7, lsl #16
     a3c:	000a4800 	andeq	r4, sl, r0, lsl #16
     a40:	00810800 	addeq	r0, r1, r0, lsl #16
     a44:	000d0000 	andeq	r0, sp, r0
     a48:	000a3806 	andeq	r3, sl, r6, lsl #16
     a4c:	05e41d00 	strbeq	r1, [r4, #3328]!	; 0xd00
     a50:	6c010000 	stcvs	0, cr0, [r1], {-0}
     a54:	00000347 	andeq	r0, r0, r7, asr #6
     a58:	00008390 	muleq	r0, r0, r3
     a5c:	00000158 	andeq	r0, r0, r8, asr r1
     a60:	0c729c01 	ldcleq	12, cr9, [r2], #-4
     a64:	81150000 	tsthi	r5, r0
     a68:	01000005 	tsteq	r0, r5
     a6c:	00004f6c 	andeq	r4, r0, ip, ror #30
     a70:	00052500 	andeq	r2, r5, r0, lsl #10
     a74:	70641300 	rsbvc	r1, r4, r0, lsl #6
     a78:	6c010073 	stcvs	0, cr0, [r1], {115}	; 0x73
     a7c:	0000013d 	andeq	r0, r0, sp, lsr r1
     a80:	00000546 	andeq	r0, r0, r6, asr #10
     a84:	007a6813 	rsbseq	r6, sl, r3, lsl r8
     a88:	01056c01 	tsteq	r5, r1, lsl #24
     a8c:	05700000 	ldrbeq	r0, [r0, #-0]!
     a90:	cf1b0000 	svcgt	0x001b0000
     a94:	82000002 	andhi	r0, r0, #2
     a98:	0500000c 	streq	r0, [r0, #-12]
     a9c:	009be003 	addseq	lr, fp, r3
     aa0:	063f1400 	ldrteq	r1, [pc], -r0, lsl #8
     aa4:	81010000 	mrshi	r0, (UNDEF: 1)
     aa8:	00000347 	andeq	r0, r0, r7, asr #6
     aac:	00000591 	muleq	r0, r1, r5
     ab0:	00035222 	andeq	r5, r3, r2, lsr #4
     ab4:	0083ac00 	addeq	sl, r3, r0, lsl #24
     ab8:	00003800 	andeq	r3, r0, r0, lsl #16
     abc:	cd6f0100 	stfgte	f0, [pc, #-0]	; ac4 <_start-0x753c>
     ac0:	2300000a 	movwcs	r0, #10
     ac4:	00000362 	andeq	r0, r0, r2, ror #6
     ac8:	000005bd 			; <UNDEFINED> instruction: 0x000005bd
     acc:	0a102200 	beq	4092d4 <__bss_end__+0x3fed74>
     ad0:	840c0000 	strhi	r0, [ip], #-0
     ad4:	00240000 	eoreq	r0, r4, r0
     ad8:	71010000 	mrsvc	r0, (UNDEF: 1)
     adc:	00000b40 	andeq	r0, r0, r0, asr #22
     ae0:	000a2023 	andeq	r2, sl, r3, lsr #32
     ae4:	0005dc00 	andeq	sp, r5, r0, lsl #24
     ae8:	840c2400 	strhi	r2, [ip], #-1024	; 0x400
     aec:	00240000 	eoreq	r0, r4, r0
     af0:	2a250000 	bcs	940af8 <__bss_end__+0x936598>
     af4:	0500000a 	streq	r0, [r0, #-10]
     af8:	009bec03 	addseq	lr, fp, r3, lsl #24
     afc:	84181c00 	ldrhi	r1, [r8], #-3072	; 0xc00
     b00:	10cd0000 	sbcne	r0, sp, r0
     b04:	2c170000 	ldccs	0, cr0, [r7], {-0}
     b08:	b7000084 	strlt	r0, [r0, -r4, lsl #1]
     b0c:	35000010 	strcc	r0, [r0, #-16]
     b10:	1800000b 	stmdane	r0, {r0, r1, r3}
     b14:	08025301 	stmdaeq	r2, {r0, r8, r9, ip, lr}
     b18:	5201183e 	andpl	r1, r1, #4063232	; 0x3e0000
     b1c:	9bec0305 	blls	ffb01738 <__bss_end__+0xffaf71d8>
     b20:	01180000 	tsteq	r8, r0
     b24:	14030551 	strne	r0, [r3], #-1361	; 0x551
     b28:	1800009d 	stmdane	r0, {r0, r2, r3, r4, r7}
     b2c:	03055001 	movweq	r5, #20481	; 0x5001
     b30:	00009ce0 	andeq	r9, r0, r0, ror #25
     b34:	84301c00 	ldrthi	r1, [r0], #-3072	; 0xc00
     b38:	10d40000 	sbcsne	r0, r4, r0
     b3c:	00000000 	andeq	r0, r0, r0
     b40:	0083ac1c 	addeq	sl, r3, ip, lsl ip
     b44:	00111900 	andseq	r1, r1, r0, lsl #18
     b48:	83f01c00 	mvnshi	r1, #0, 24
     b4c:	10cd0000 	sbcne	r0, sp, r0
     b50:	08170000 	ldmdaeq	r7, {}	; <UNPREDICTABLE>
     b54:	b7000084 	strlt	r0, [r0, -r4, lsl #1]
     b58:	88000010 	stmdahi	r0, {r4}
     b5c:	1800000b 	stmdane	r0, {r0, r1, r3}
     b60:	08025301 	stmdaeq	r2, {r0, r8, r9, ip, lr}
     b64:	52011870 	andpl	r1, r1, #112, 16	; 0x700000
     b68:	9be00305 	blls	ff801784 <__bss_end__+0xff7f7224>
     b6c:	01180000 	tsteq	r8, r0
     b70:	58030551 	stmdapl	r3, {r0, r4, r6, r8, sl}
     b74:	1800009c 	stmdane	r0, {r2, r3, r4, r7}
     b78:	03055001 	movweq	r5, #20481	; 0x5001
     b7c:	00009cbc 			; <UNDEFINED> instruction: 0x00009cbc
     b80:	007d0218 	rsbseq	r0, sp, r8, lsl r2
     b84:	00007402 	andeq	r7, r0, r2, lsl #8
     b88:	00840c1c 	addeq	r0, r4, ip, lsl ip
     b8c:	0010d400 	andseq	sp, r0, r0, lsl #8
     b90:	843c1c00 	ldrthi	r1, [ip], #-3072	; 0xc00
     b94:	10cd0000 	sbcne	r0, sp, r0
     b98:	54170000 	ldrpl	r0, [r7], #-0
     b9c:	b7000084 	strlt	r0, [r0, -r4, lsl #1]
     ba0:	d0000010 	andle	r0, r0, r0, lsl r0
     ba4:	1800000b 	stmdane	r0, {r0, r1, r3}
     ba8:	08025301 	stmdaeq	r2, {r0, r8, r9, ip, lr}
     bac:	52011872 	andpl	r1, r1, #7471104	; 0x720000
     bb0:	9be00305 	blls	ff8017cc <__bss_end__+0xff7f726c>
     bb4:	01180000 	tsteq	r8, r0
     bb8:	58030551 	stmdapl	r3, {r0, r4, r6, r8, sl}
     bbc:	1800009c 	stmdane	r0, {r2, r3, r4, r7}
     bc0:	03055001 	movweq	r5, #20481	; 0x5001
     bc4:	00009d20 	andeq	r9, r0, r0, lsr #26
     bc8:	007d0218 	rsbseq	r0, sp, r8, lsl r2
     bcc:	00007602 	andeq	r7, r0, r2, lsl #12
     bd0:	0084581c 	addeq	r5, r4, ip, lsl r8
     bd4:	0010d400 	andseq	sp, r0, r0, lsl #8
     bd8:	84681700 	strbthi	r1, [r8], #-1792	; 0x700
     bdc:	07500000 	ldrbeq	r0, [r0, -r0]
     be0:	0bf80000 	bleq	ffe00be8 <__bss_end__+0xffdf6688>
     be4:	01180000 	tsteq	r8, r0
     be8:	38080252 	stmdacc	r8, {r1, r4, r6, r9}
     bec:	01510118 	cmpeq	r1, r8, lsl r1
     bf0:	50011849 	andpl	r1, r1, r9, asr #16
     bf4:	00007702 	andeq	r7, r0, r2, lsl #14
     bf8:	00847817 	addeq	r7, r4, r7, lsl r8
     bfc:	00075000 	andeq	r5, r7, r0
     c00:	000c1700 	andeq	r1, ip, r0, lsl #14
     c04:	52011800 	andpl	r1, r1, #0, 16
     c08:	18440802 	stmdane	r4, {r1, fp}^
     c0c:	42015101 	andmi	r5, r1, #1073741824	; 0x40000000
     c10:	02500118 	subseq	r0, r0, #24, 2
     c14:	17000077 	smlsdxne	r0, r7, r0, r0
     c18:	00008490 	muleq	r0, r0, r4
     c1c:	00000750 	andeq	r0, r0, r0, asr r7
     c20:	00000c40 	andeq	r0, r0, r0, asr #24
     c24:	0c520118 	ldfeqe	f0, [r2], {24}
     c28:	24340076 	ldrtcs	r0, [r4], #-118	; 0x76
     c2c:	24320074 	ldrtcs	r0, [r2], #-116	; 0x74
     c30:	1afc0821 	bne	fff02cbc <__bss_end__+0xffef875c>
     c34:	01510118 	cmpeq	r1, r8, lsl r1
     c38:	50011841 	andpl	r1, r1, r1, asr #16
     c3c:	00007702 	andeq	r7, r0, r2, lsl #14
     c40:	0084a417 	addeq	sl, r4, r7, lsl r4
     c44:	00098300 	andeq	r8, r9, r0, lsl #6
     c48:	000c5400 	andeq	r5, ip, r0, lsl #8
     c4c:	50011800 	andpl	r1, r1, r0, lsl #16
     c50:	00f50802 	rscseq	r0, r5, r2, lsl #16
     c54:	0084b017 	addeq	fp, r4, r7, lsl r0
     c58:	00112000 	andseq	r2, r1, r0
     c5c:	000c6800 	andeq	r6, ip, r0, lsl #16
     c60:	50011800 	andpl	r1, r1, r0, lsl #16
     c64:	00500802 	subseq	r0, r0, r2, lsl #16
     c68:	0084b41c 	addeq	fp, r4, ip, lsl r4
     c6c:	00111900 	andseq	r1, r1, r0, lsl #18
     c70:	88070000 	stmdahi	r7, {}	; <UNPREDICTABLE>
     c74:	82000000 	andhi	r0, r0, #0
     c78:	0800000c 	stmdaeq	r0, {r2, r3}
     c7c:	00000081 	andeq	r0, r0, r1, lsl #1
     c80:	72060009 	andvc	r0, r6, #9
     c84:	1d00000c 	stcne	0, cr0, [r0, #-48]	; 0xffffffd0
     c88:	000000e5 	andeq	r0, r0, r5, ror #1
     c8c:	00258b01 	eoreq	r8, r5, r1, lsl #22
     c90:	84e80000 	strbthi	r0, [r8], #0
     c94:	00280000 	eoreq	r0, r8, r0
     c98:	9c010000 	stcls	0, cr0, [r1], {-0}
     c9c:	00000ccc 	andeq	r0, r0, ip, asr #25
     ca0:	01006813 	tsteq	r0, r3, lsl r8
     ca4:	0004f88b 	andeq	pc, r4, fp, lsl #17
     ca8:	0005fb00 	andeq	pc, r5, r0, lsl #22
     cac:	01b91400 			; <UNDEFINED> instruction: 0x01b91400
     cb0:	8e010000 	cdphi	0, 0, cr0, cr1, cr0, {0}
     cb4:	0000002c 	andeq	r0, r0, ip, lsr #32
     cb8:	0000061c 	andeq	r0, r0, ip, lsl r6
     cbc:	0084f819 	addeq	pc, r4, r9, lsl r8	; <UNPREDICTABLE>
     cc0:	00062c00 	andeq	r2, r6, r0, lsl #24
     cc4:	51011800 	tstpl	r1, r0, lsl #16
     cc8:	00004e01 	andeq	r4, r0, r1, lsl #28
     ccc:	0000ca1d 	andeq	ip, r0, sp, lsl sl
     cd0:	f4960100 			; <UNDEFINED> instruction: 0xf4960100
     cd4:	10000002 	andne	r0, r0, r2
     cd8:	78000085 	stmdavc	r0, {r0, r2, r7}
     cdc:	01000000 	mrseq	r0, (UNDEF: 0)
     ce0:	000d9b9c 	muleq	sp, ip, fp
     ce4:	00681300 	rsbeq	r1, r8, r0, lsl #6
     ce8:	04f89601 	ldrbteq	r9, [r8], #1537	; 0x601
     cec:	06480000 	strbeq	r0, [r8], -r0
     cf0:	5c260000 	stcpl	0, cr0, [r6], #-0
     cf4:	01000002 	tsteq	r0, r2
     cf8:	00002c97 	muleq	r0, r7, ip
     cfc:	05812600 	streq	r2, [r1, #1536]	; 0x600
     d00:	98010000 	stmdals	r1, {}	; <UNPREDICTABLE>
     d04:	0000004f 	andeq	r0, r0, pc, asr #32
     d08:	00012720 	andeq	r2, r1, r0, lsr #14
     d0c:	9b9b0100 	blls	fe6c1114 <__bss_end__+0xfe6b6bb4>
     d10:	0200000d 	andeq	r0, r0, #13
     d14:	78166891 	ldmdavc	r6, {r0, r4, r7, fp, sp, lr}
     d18:	259f0100 	ldrcs	r0, [pc, #256]	; e20 <_start-0x71e0>
     d1c:	74000000 	strvc	r0, [r0], #-0
     d20:	16000006 	strne	r0, [r0], -r6
     d24:	a0010079 	andge	r0, r1, r9, ror r0
     d28:	00000025 	andeq	r0, r0, r5, lsr #32
     d2c:	00000692 	muleq	r0, r2, r6
     d30:	01007a16 	tsteq	r0, r6, lsl sl
     d34:	000025a1 	andeq	r2, r0, r1, lsr #11
     d38:	0006b000 	andeq	fp, r6, r0
     d3c:	04b31400 	ldrteq	r1, [r3], #1024	; 0x400
     d40:	a3010000 	movwge	r0, #4096	; 0x1000
     d44:	000002f4 	strdeq	r0, [r0], -r4
     d48:	000006cf 	andeq	r0, r0, pc, asr #13
     d4c:	00852817 	addeq	r2, r5, r7, lsl r8
     d50:	000c8700 	andeq	r8, ip, r0, lsl #14
     d54:	000d6000 	andeq	r6, sp, r0
     d58:	50011800 	andpl	r1, r1, r0, lsl #16
     d5c:	00007402 	andeq	r7, r0, r2, lsl #8
     d60:	00854417 	addeq	r4, r5, r7, lsl r4
     d64:	00085a00 	andeq	r5, r8, r0, lsl #20
     d68:	000d7f00 	andeq	r7, sp, r0, lsl #30
     d6c:	53011800 	movwpl	r1, #6144	; 0x1800
     d70:	01183601 	tsteq	r8, r1, lsl #12
     d74:	007d0252 	rsbseq	r0, sp, r2, asr r2
     d78:	02510118 	subseq	r0, r1, #24, 2
     d7c:	1c002208 	sfmne	f2, 4, [r0], {8}
     d80:	00008550 	andeq	r8, r0, r0, asr r5
     d84:	000003a9 	andeq	r0, r0, r9, lsr #7
     d88:	0085601c 	addeq	r6, r5, ip, lsl r0
     d8c:	0003a900 	andeq	sl, r3, r0, lsl #18
     d90:	85701c00 	ldrbhi	r1, [r0, #-3072]!	; 0xc00
     d94:	03a90000 			; <UNDEFINED> instruction: 0x03a90000
     d98:	07000000 	streq	r0, [r0, -r0]
     d9c:	0000004f 	andeq	r0, r0, pc, asr #32
     da0:	00000dab 	andeq	r0, r0, fp, lsr #27
     da4:	00008108 	andeq	r8, r0, r8, lsl #2
     da8:	1f000500 	svcne	0x00000500
     dac:	000001fd 	strdeq	r0, [r0], -sp
     db0:	8588b401 	strhi	fp, [r8, #1025]	; 0x401
     db4:	012c0000 	teqeq	ip, r0
     db8:	9c010000 	stcls	0, cr0, [r1], {-0}
     dbc:	00000fa9 	andeq	r0, r0, r9, lsr #31
     dc0:	0000ab14 	andeq	sl, r0, r4, lsl fp
     dc4:	2cc60100 	stfcse	f0, [r6], {0}
     dc8:	ef000000 	svc	0x00000000
     dcc:	1e000006 	cdpne	0, 0, cr0, cr0, cr6, {0}
     dd0:	ce010068 	cdpgt	0, 0, cr0, cr1, cr8, {3}
     dd4:	00000347 	andeq	r0, r0, r7, asr #6
     dd8:	27509102 	ldrbcs	r9, [r0, -r2, lsl #2]
     ddc:	0000861c 	andeq	r8, r0, ip, lsl r6
     de0:	00000084 	andeq	r0, r0, r4, lsl #1
     de4:	00000e9e 	muleq	r0, lr, lr
     de8:	01006916 	tsteq	r0, r6, lsl r9
     dec:	000025d0 	ldrdeq	r2, [r0], -r0
     df0:	00070d00 	andeq	r0, r7, r0, lsl #26
     df4:	00002800 	andeq	r2, r0, r0, lsl #16
     df8:	761e0000 	ldrvc	r0, [lr], -r0
     dfc:	f4d10100 			; <UNDEFINED> instruction: 0xf4d10100
     e00:	02000002 	andeq	r0, r0, #2
     e04:	44174491 	ldrmi	r4, [r7], #-1169	; 0x491
     e08:	cc000086 	stcgt	0, cr0, [r0], {134}	; 0x86
     e0c:	2000000c 	andcs	r0, r0, ip
     e10:	1800000e 	stmdane	r0, {r1, r2, r3}
     e14:	91025101 	tstls	r2, r1, lsl #2
     e18:	50011848 	andpl	r1, r1, r8, asr #16
     e1c:	00007402 	andeq	r7, r0, r2, lsl #8
     e20:	00865817 	addeq	r5, r6, r7, lsl r8
     e24:	0010b700 	andseq	fp, r0, r0, lsl #14
     e28:	000e4900 	andeq	r4, lr, r0, lsl #18
     e2c:	53011800 	movwpl	r1, #6144	; 0x1800
     e30:	06449103 	strbeq	r9, [r4], -r3, lsl #2
     e34:	03520118 	cmpeq	r2, #24, 2
     e38:	18064091 	stmdane	r6, {r0, r4, r7, lr}
     e3c:	74035101 	strvc	r5, [r3], #-257	; 0x101
     e40:	01180600 	tsteq	r8, r0, lsl #12
     e44:	00790250 	rsbseq	r0, r9, r0, asr r2
     e48:	86701700 	ldrbthi	r1, [r0], -r0, lsl #14
     e4c:	04220000 	strteq	r0, [r2], #-0
     e50:	0e630000 	cdpeq	0, 6, cr0, cr3, cr0, {0}
     e54:	01180000 	tsteq	r8, r0
     e58:	48910251 	ldmmi	r1, {r0, r4, r6, r9}
     e5c:	02500118 	subseq	r0, r0, #24, 2
     e60:	17000075 	smlsdxne	r0, r5, r0, r0
     e64:	0000868c 	andeq	r8, r0, ip, lsl #13
     e68:	000010b7 	strheq	r1, [r0], -r7
     e6c:	00000e8c 	andeq	r0, r0, ip, lsl #29
     e70:	03530118 	cmpeq	r3, #24, 2
     e74:	18064491 	stmdane	r6, {r0, r4, r7, sl, lr}
     e78:	91035201 	tstls	r3, r1, lsl #4
     e7c:	01180640 	tsteq	r8, r0, asr #12
     e80:	00740351 	rsbseq	r0, r4, r1, asr r3
     e84:	50011806 	andpl	r1, r1, r6, lsl #16
     e88:	00007802 	andeq	r7, r0, r2, lsl #16
     e8c:	00869419 	addeq	r9, r6, r9, lsl r4
     e90:	00112000 	andseq	r2, r1, r0
     e94:	50011800 	andpl	r1, r1, r0, lsl #16
     e98:	00007702 	andeq	r7, r0, r2, lsl #14
     e9c:	98170000 	ldmdals	r7, {}	; <UNPREDICTABLE>
     ea0:	83000085 	movwhi	r0, #133	; 0x85
     ea4:	b2000009 	andlt	r0, r0, #9
     ea8:	1800000e 	stmdane	r0, {r1, r2, r3}
     eac:	08025001 	stmdaeq	r2, {r0, ip, lr}
     eb0:	b01700f5 	ldrshlt	r0, [r7], -r5
     eb4:	fe000085 	cdp2	0, 0, cr0, cr0, cr5, {4}
     eb8:	d5000004 	strle	r0, [r0, #-4]
     ebc:	1800000e 	stmdane	r0, {r1, r2, r3}
     ec0:	74025301 	strvc	r5, [r2], #-769	; 0x301
     ec4:	52011800 	andpl	r1, r1, #0, 16
     ec8:	01183001 	tsteq	r8, r1
     ecc:	18300151 	ldmdane	r0!, {r0, r4, r6, r8}
     ed0:	30015001 	andcc	r5, r1, r1
     ed4:	85c41700 	strbhi	r1, [r4, #1792]	; 0x700
     ed8:	04fe0000 	ldrbteq	r0, [lr], #0
     edc:	0efb0000 	cdpeq	0, 15, cr0, cr11, cr0, {0}
     ee0:	01180000 	tsteq	r8, r0
     ee4:	00740253 	rsbseq	r0, r4, r3, asr r2
     ee8:	02520118 	subseq	r0, r2, #24, 2
     eec:	0118a409 	tsteq	r8, r9, lsl #8
     ef0:	2c080251 	sfmcs	f0, 4, [r8], {81}	; 0x51
     ef4:	02500118 	subseq	r0, r0, #24, 2
     ef8:	17006408 	strne	r6, [r0, -r8, lsl #8]
     efc:	000085d8 	ldrdeq	r8, [r0], -r8	; <UNPREDICTABLE>
     f00:	000004fe 	strdeq	r0, [r0], -lr
     f04:	00000f21 	andeq	r0, r0, r1, lsr #30
     f08:	02530118 	subseq	r0, r3, #24, 2
     f0c:	01180074 	tsteq	r8, r4, ror r0
     f10:	49080252 	stmdbmi	r8, {r1, r4, r6, r9}
     f14:	02510118 	subseq	r0, r1, #24, 2
     f18:	01185908 	tsteq	r8, r8, lsl #18
     f1c:	c8080250 	stmdagt	r8, {r4, r6, r9}
     f20:	85ec1700 	strbhi	r1, [ip, #1792]!	; 0x700
     f24:	04fe0000 	ldrbteq	r0, [lr], #0
     f28:	0f470000 	svceq	0x00470000
     f2c:	01180000 	tsteq	r8, r0
     f30:	00740253 	rsbseq	r0, r4, r3, asr r2
     f34:	02520118 	subseq	r0, r2, #24, 2
     f38:	01185c08 	tsteq	r8, r8, lsl #24
     f3c:	d3090251 	movwle	r0, #37457	; 0x9251
     f40:	02500118 	subseq	r0, r0, #24, 2
     f44:	17009c09 	strne	r9, [r0, -r9, lsl #24]
     f48:	00008600 	andeq	r8, r0, r0, lsl #12
     f4c:	000004fe 	strdeq	r0, [r0], -lr
     f50:	00000f6e 	andeq	r0, r0, lr, ror #30
     f54:	02530118 	subseq	r0, r3, #24, 2
     f58:	01180074 	tsteq	r8, r4, ror r0
     f5c:	b7090252 	smlsdlt	r9, r2, r2, r0
     f60:	02510118 	subseq	r0, r1, #24, 2
     f64:	0118a609 	tsteq	r8, r9, lsl #12
     f68:	380b0350 	stmdacc	fp, {r4, r6, r8, r9}
     f6c:	081700ff 	ldmdaeq	r7, {r0, r1, r2, r3, r4, r5, r6, r7}
     f70:	b7000086 	strlt	r0, [r0, -r6, lsl #1]
     f74:	85000010 	strhi	r0, [r0, #-16]
     f78:	1800000f 	stmdane	r0, {r0, r1, r2, r3}
     f7c:	03055001 	movweq	r5, #20481	; 0x5001
     f80:	00009d40 	andeq	r9, r0, r0, asr #26
     f84:	861c1900 	ldrhi	r1, [ip], -r0, lsl #18
     f88:	0a4d0000 	beq	1340f90 <__bss_end__+0x1336a30>
     f8c:	01180000 	tsteq	r8, r0
     f90:	18350153 	ldmdane	r5!, {r0, r1, r4, r6, r8}
     f94:	08045201 	stmdaeq	r4, {r0, r9, ip, lr}
     f98:	182440f5 	stmdane	r4!, {r0, r2, r4, r5, r6, r7, lr}
     f9c:	08025101 	stmdaeq	r2, {r0, r8, ip, lr}
     fa0:	5001186b 	andpl	r1, r1, fp, ror #16
     fa4:	00489102 	subeq	r9, r8, r2, lsl #2
     fa8:	00681f00 	rsbeq	r1, r8, r0, lsl #30
     fac:	de010000 	cdple	0, 0, cr0, cr1, cr0, {0}
     fb0:	000086b4 			; <UNDEFINED> instruction: 0x000086b4
     fb4:	00000080 	andeq	r0, r0, r0, lsl #1
     fb8:	10b29c01 	adcsne	r9, r2, r1, lsl #24
     fbc:	27290000 	strcs	r0, [r9, -r0]!
     fc0:	01000005 	tsteq	r0, r5
     fc4:	00004fe6 	andeq	r4, r0, r6, ror #31
     fc8:	76166b00 	ldrvc	r6, [r6], -r0, lsl #22
     fcc:	4fe70100 	svcmi	0x00e70100
     fd0:	2c000000 	stccs	0, cr0, [r0], {-0}
     fd4:	1b000007 	blne	ff8 <_start-0x7008>
     fd8:	000002cf 	andeq	r0, r0, pc, asr #5
     fdc:	000010b2 	strheq	r1, [r0], -r2
     fe0:	9bfc0305 	blls	fff01bfc <__bss_end__+0xffef769c>
     fe4:	c01c0000 	andsgt	r0, ip, r0
     fe8:	31000086 	smlabbcc	r0, r6, r0, r0
     fec:	17000011 	smladne	r0, r1, r0, r0
     ff0:	000086c8 	andeq	r8, r0, r8, asr #13
     ff4:	00001120 	andeq	r1, r0, r0, lsr #2
     ff8:	00001003 	andeq	r1, r0, r3
     ffc:	02500118 	subseq	r0, r0, #24, 2
    1000:	1c006408 	cfstrsne	mvf6, [r0], {8}
    1004:	000086cc 	andeq	r8, r0, ip, asr #13
    1008:	00001138 	andeq	r1, r0, r8, lsr r1
    100c:	0086d417 	addeq	sp, r6, r7, lsl r4
    1010:	00112000 	andseq	r2, r1, r0
    1014:	00102000 	andseq	r2, r0, r0
    1018:	50011800 	andpl	r1, r1, r0, lsl #16
    101c:	00640802 	rsbeq	r0, r4, r2, lsl #16
    1020:	0086e017 	addeq	lr, r6, r7, lsl r0
    1024:	00062c00 	andeq	r2, r6, r0, lsl #24
    1028:	00103900 	andseq	r3, r0, r0, lsl #18
    102c:	51011800 	tstpl	r1, r0, lsl #16
    1030:	01183f01 	tsteq	r8, r1, lsl #30
    1034:	6b080250 	blvs	20197c <__bss_end__+0x1f741c>
    1038:	86f01c00 	ldrbthi	r1, [r0], r0, lsl #24
    103c:	10cd0000 	sbcne	r0, sp, r0
    1040:	10170000 	andsne	r0, r7, r0
    1044:	b7000087 	strlt	r0, [r0, -r7, lsl #1]
    1048:	7f000010 	svcvc	0x00000010
    104c:	18000010 	stmdane	r0, {r4}
    1050:	08025301 	stmdaeq	r2, {r0, r8, r9, ip, lr}
    1054:	520118e9 	andpl	r1, r1, #15269888	; 0xe90000
    1058:	9bfc0305 	blls	fff01c74 <__bss_end__+0xffef7714>
    105c:	01180000 	tsteq	r8, r0
    1060:	58030551 	stmdapl	r3, {r0, r4, r6, r8, sl}
    1064:	1800009c 	stmdane	r0, {r2, r3, r4, r7}
    1068:	03055001 	movweq	r5, #20481	; 0x5001
    106c:	00009da4 	andeq	r9, r0, r4, lsr #27
    1070:	047d0218 	ldrbteq	r0, [sp], #-536	; 0x218
    1074:	18007402 	stmdane	r0, {r1, sl, ip, sp, lr}
    1078:	02007d02 	andeq	r7, r0, #2, 26	; 0x80
    107c:	1c006908 	stcne	9, cr6, [r0], {8}
    1080:	00008714 	andeq	r8, r0, r4, lsl r7
    1084:	000010d4 	ldrdeq	r1, [r0], -r4
    1088:	00871c17 	addeq	r1, r7, r7, lsl ip
    108c:	0010b700 	andseq	fp, r0, r0, lsl #14
    1090:	00109f00 	andseq	r9, r0, r0, lsl #30
    1094:	50011800 	andpl	r1, r1, r0, lsl #16
    1098:	9de00305 	stclls	3, cr0, [r0, #20]!
    109c:	1c000000 	stcne	0, cr0, [r0], {-0}
    10a0:	00008720 	andeq	r8, r0, r0, lsr #14
    10a4:	00000dab 	andeq	r0, r0, fp, lsr #27
    10a8:	0087241c 	addeq	r2, r7, ip, lsl r4
    10ac:	0010d400 	andseq	sp, r0, r0, lsl #8
    10b0:	9a060000 	bls	1810b8 <__bss_end__+0x176b58>
    10b4:	2a000000 	bcs	10bc <_start-0x6f44>
    10b8:	00000cfe 	strdeq	r0, [r0], -lr
    10bc:	00252904 	eoreq	r2, r5, r4, lsl #18
    10c0:	10cd0000 	sbcne	r0, sp, r0
    10c4:	8f2b0000 	svchi	0x002b0000
    10c8:	2c000000 	stccs	0, cr0, [r0], {-0}
    10cc:	01d32d00 	bicseq	r2, r3, r0, lsl #26
    10d0:	1e040000 	cdpne	0, 0, cr0, cr4, cr0, {0}
    10d4:	0005ff2d 	andeq	pc, r5, sp, lsr #30
    10d8:	2a660400 	bcs	19820e0 <__bss_end__+0x1977b80>
    10dc:	00000294 	muleq	r0, r4, r2
    10e0:	00250c05 	eoreq	r0, r5, r5, lsl #24
    10e4:	10fa0000 	rscsne	r0, sl, r0
    10e8:	2c2b0000 	stccs	0, cr0, [fp], #-0
    10ec:	2b000000 	blcs	10f4 <_start-0x6f0c>
    10f0:	00000978 	andeq	r0, r0, r8, ror r9
    10f4:	00002c2b 	andeq	r2, r0, fp, lsr #24
    10f8:	8e2a0000 	cdphi	0, 2, cr0, cr10, cr0, {0}
    10fc:	05000005 	streq	r0, [r0, #-5]
    1100:	0000250e 	andeq	r2, r0, lr, lsl #10
    1104:	00111900 	andseq	r1, r1, r0, lsl #18
    1108:	002c2b00 	eoreq	r2, ip, r0, lsl #22
    110c:	782b0000 	stmdavc	fp!, {}	; <UNPREDICTABLE>
    1110:	2b000009 	blcs	113c <_start-0x6ec4>
    1114:	0000002c 	andeq	r0, r0, ip, lsr #32
    1118:	05492d00 	strbeq	r2, [r9, #-3328]	; 0xd00
    111c:	8a040000 	bhi	101124 <__bss_end__+0xf6bc4>
    1120:	0004bd2e 	andeq	fp, r4, lr, lsr #26
    1124:	31500400 	cmpcc	r0, r0, lsl #8
    1128:	2b000011 	blcs	1174 <_start-0x6e8c>
    112c:	0000002c 	andeq	r0, r0, ip, lsr #32
    1130:	00702d00 	rsbseq	r2, r0, r0, lsl #26
    1134:	3a040000 	bcc	10113c <__bss_end__+0xf6bdc>
    1138:	0001b02d 	andeq	fp, r1, sp, lsr #32
    113c:	00060500 	andeq	r0, r6, r0, lsl #10
    1140:	00001b5e 	andeq	r1, r0, lr, asr fp
    1144:	02820004 	addeq	r0, r2, #4
    1148:	01040000 	mrseq	r0, (UNDEF: 4)
    114c:	00000657 	andeq	r0, r0, r7, asr r6
    1150:	00086e0c 	andeq	r6, r8, ip, lsl #28
    1154:	000ae400 	andeq	lr, sl, r0, lsl #8
    1158:	00873400 	addeq	r3, r7, r0, lsl #8
    115c:	00056800 	andeq	r6, r5, r0, lsl #16
    1160:	0001eb00 	andeq	lr, r1, r0, lsl #22
    1164:	05040200 	streq	r0, [r4, #-512]	; 0x200
    1168:	00746e69 	rsbseq	r6, r4, r9, ror #28
    116c:	84070403 	strhi	r0, [r7], #-1027	; 0x403
    1170:	04000000 	streq	r0, [r0], #-0
    1174:	0000002c 	andeq	r0, r0, ip, lsr #32
    1178:	6f060103 	svcvs	0x00060103
    117c:	03000003 	movweq	r0, #3
    1180:	03f80502 	mvnseq	r0, #8388608	; 0x800000
    1184:	04030000 	streq	r0, [r3], #-0
    1188:	0000b605 	andeq	fp, r0, r5, lsl #12
    118c:	05080300 	streq	r0, [r8, #-768]	; 0x300
    1190:	000000b1 	strheq	r0, [r0], -r1
    1194:	0005a005 	andeq	sl, r5, r5
    1198:	5f2e0200 	svcpl	0x002e0200
    119c:	03000000 	movweq	r0, #0
    11a0:	036d0801 	cmneq	sp, #65536	; 0x10000
    11a4:	02030000 	andeq	r0, r3, #0
    11a8:	00028107 	andeq	r8, r2, r7, lsl #2
    11ac:	04c60500 	strbeq	r0, [r6], #1280	; 0x500
    11b0:	34020000 	strcc	r0, [r2], #-0
    11b4:	00000078 	andeq	r0, r0, r8, ror r0
    11b8:	7f070403 	svcvc	0x00070403
    11bc:	03000000 	movweq	r0, #0
    11c0:	007a0708 	rsbseq	r0, sl, r8, lsl #14
    11c4:	fa050000 	blx	1411cc <__bss_end__+0x136c6c>
    11c8:	03000009 	movweq	r0, #9
    11cc:	00002507 	andeq	r2, r0, r7, lsl #10
    11d0:	09dd0500 	ldmibeq	sp, {r8, sl}^
    11d4:	2c040000 	stccs	0, cr0, [r4], {-0}
    11d8:	00000046 	andeq	r0, r0, r6, asr #32
    11dc:	000ac705 	andeq	ip, sl, r5, lsl #14
    11e0:	46720400 	ldrbtmi	r0, [r2], -r0, lsl #8
    11e4:	06000000 	streq	r0, [r0], -r0
    11e8:	00000970 	andeq	r0, r0, r0, ror r9
    11ec:	2c016505 	cfstr32cs	mvfx6, [r1], {5}
    11f0:	07000000 	streq	r0, [r0, -r0]
    11f4:	d2a60404 	adcle	r0, r6, #4, 8	; 0x4000000
    11f8:	08000000 	stmdaeq	r0, {}	; <UNPREDICTABLE>
    11fc:	0000095b 	andeq	r0, r0, fp, asr r9
    1200:	00a7a804 	adceq	sl, r7, r4, lsl #16
    1204:	cb080000 	blgt	20120c <__bss_end__+0x1f6cac>
    1208:	04000008 	streq	r0, [r0], #-8
    120c:	0000d2a9 	andeq	sp, r0, r9, lsr #5
    1210:	5f090000 	svcpl	0x00090000
    1214:	e2000000 	and	r0, r0, #0
    1218:	0a000000 	beq	1220 <_start-0x6de0>
    121c:	000000e2 	andeq	r0, r0, r2, ror #1
    1220:	04030003 	streq	r0, [r3], #-3
    1224:	0002f007 	andeq	pc, r2, r7
    1228:	04080b00 	streq	r0, [r8], #-2816	; 0xb00
    122c:	00010aa3 	andeq	r0, r1, r3, lsr #21
    1230:	0ab10c00 	beq	fec44238 <__bss_end__+0xfec39cd8>
    1234:	a5040000 	strge	r0, [r4, #-0]
    1238:	00000025 	andeq	r0, r0, r5, lsr #32
    123c:	0b280c00 	bleq	a04244 <__bss_end__+0x9f9ce4>
    1240:	aa040000 	bge	101248 <__bss_end__+0xf6ce8>
    1244:	000000b3 	strheq	r0, [r0], -r3
    1248:	38050004 	stmdacc	r5, {r2}
    124c:	0400000a 	streq	r0, [r0], #-10
    1250:	0000e9ab 	andeq	lr, r0, fp, lsr #19
    1254:	08810500 	stmeq	r1, {r8, sl}
    1258:	af040000 	svcge	0x00040000
    125c:	00000086 	andeq	r0, r0, r6, lsl #1
    1260:	040e040d 	streq	r0, [lr], #-1037	; 0x40d
    1264:	00000128 	andeq	r0, r0, r8, lsr #2
    1268:	76080103 	strvc	r0, [r8], -r3, lsl #2
    126c:	04000003 	streq	r0, [r0], #-3
    1270:	00000128 	andeq	r0, r0, r8, lsr #2
    1274:	000b3e05 	andeq	r3, fp, r5, lsl #28
    1278:	78160600 	ldmdavc	r6, {r9, sl}
    127c:	0f000000 	svceq	0x00000000
    1280:	00000892 	muleq	r0, r2, r8
    1284:	922d0618 	eorls	r0, sp, #24, 12	; 0x1800000
    1288:	0c000001 	stceq	0, cr0, [r0], {1}
    128c:	00000a59 	andeq	r0, r0, r9, asr sl
    1290:	01922f06 	orrseq	r2, r2, r6, lsl #30
    1294:	10000000 	andne	r0, r0, r0
    1298:	06006b5f 			; <UNDEFINED> instruction: 0x06006b5f
    129c:	00002530 	andeq	r2, r0, r0, lsr r5
    12a0:	9c0c0400 	cfstrsls	mvf0, [ip], {-0}
    12a4:	0600000a 	streq	r0, [r0], -sl
    12a8:	00002530 	andeq	r2, r0, r0, lsr r5
    12ac:	740c0800 	strvc	r0, [ip], #-2048	; 0x800
    12b0:	06000008 	streq	r0, [r0], -r8
    12b4:	00002530 	andeq	r2, r0, r0, lsr r5
    12b8:	900c0c00 	andls	r0, ip, r0, lsl #24
    12bc:	0600000b 	streq	r0, [r0], -fp
    12c0:	00002530 	andeq	r2, r0, r0, lsr r5
    12c4:	5f101000 	svcpl	0x00101000
    12c8:	31060078 	tstcc	r6, r8, ror r0
    12cc:	00000198 	muleq	r0, r8, r1
    12d0:	040e0014 	streq	r0, [lr], #-20
    12d4:	0000013f 	andeq	r0, r0, pc, lsr r1
    12d8:	00013409 	andeq	r3, r1, r9, lsl #8
    12dc:	0001a800 	andeq	sl, r1, r0, lsl #16
    12e0:	00e20a00 	rsceq	r0, r2, r0, lsl #20
    12e4:	00000000 	andeq	r0, r0, r0
    12e8:	0008bf0f 	andeq	fp, r8, pc, lsl #30
    12ec:	35062400 	strcc	r2, [r6, #-1024]	; 0x400
    12f0:	00000221 	andeq	r0, r0, r1, lsr #4
    12f4:	00076c0c 	andeq	r6, r7, ip, lsl #24
    12f8:	25370600 	ldrcs	r0, [r7, #-1536]!	; 0x600
    12fc:	00000000 	andeq	r0, r0, r0
    1300:	000acf0c 	andeq	ip, sl, ip, lsl #30
    1304:	25380600 	ldrcs	r0, [r8, #-1536]!	; 0x600
    1308:	04000000 	streq	r0, [r0], #-0
    130c:	0007900c 	andeq	r9, r7, ip
    1310:	25390600 	ldrcs	r0, [r9, #-1536]!	; 0x600
    1314:	08000000 	stmdaeq	r0, {}	; <UNPREDICTABLE>
    1318:	000c7d0c 	andeq	r7, ip, ip, lsl #26
    131c:	253a0600 	ldrcs	r0, [sl, #-1536]!	; 0x600
    1320:	0c000000 	stceq	0, cr0, [r0], {-0}
    1324:	0009c10c 	andeq	ip, r9, ip, lsl #2
    1328:	253b0600 	ldrcs	r0, [fp, #-1536]!	; 0x600
    132c:	10000000 	andne	r0, r0, r0
    1330:	0009850c 	andeq	r8, r9, ip, lsl #10
    1334:	253c0600 	ldrcs	r0, [ip, #-1536]!	; 0x600
    1338:	14000000 	strne	r0, [r0], #-0
    133c:	000b950c 	andeq	r9, fp, ip, lsl #10
    1340:	253d0600 	ldrcs	r0, [sp, #-1536]!	; 0x600
    1344:	18000000 	stmdane	r0, {}	; <UNPREDICTABLE>
    1348:	000a1a0c 	andeq	r1, sl, ip, lsl #20
    134c:	253e0600 	ldrcs	r0, [lr, #-1536]!	; 0x600
    1350:	1c000000 	stcne	0, cr0, [r0], {-0}
    1354:	000c310c 	andeq	r3, ip, ip, lsl #2
    1358:	253f0600 	ldrcs	r0, [pc, #-1536]!	; d60 <_start-0x72a0>
    135c:	20000000 	andcs	r0, r0, r0
    1360:	07a91100 	streq	r1, [r9, r0, lsl #2]!
    1364:	01080000 	mrseq	r0, (UNDEF: 8)
    1368:	02614806 	rsbeq	r4, r1, #393216	; 0x60000
    136c:	610c0000 	mrsvs	r0, (UNDEF: 12)
    1370:	06000008 	streq	r0, [r0], -r8
    1374:	00026149 	andeq	r6, r2, r9, asr #2
    1378:	4b0c0000 	blmi	301380 <__bss_end__+0x2f6e20>
    137c:	06000006 	streq	r0, [r0], -r6
    1380:	0002614a 	andeq	r6, r2, sl, asr #2
    1384:	30128000 	andscc	r8, r2, r0
    1388:	0600000b 	streq	r0, [r0], -fp
    138c:	0001344c 	andeq	r3, r1, ip, asr #8
    1390:	12010000 	andne	r0, r1, #0
    1394:	000007f6 	strdeq	r0, [r0], -r6
    1398:	01344f06 	teqeq	r4, r6, lsl #30
    139c:	01040000 	mrseq	r0, (UNDEF: 4)
    13a0:	01200900 	teqeq	r0, r0, lsl #18
    13a4:	02710000 	rsbseq	r0, r1, #0
    13a8:	e20a0000 	and	r0, sl, #0
    13ac:	1f000000 	svcne	0x00000000
    13b0:	09ca1100 	stmibeq	sl, {r8, ip}^
    13b4:	01900000 	orrseq	r0, r0, r0
    13b8:	02af5b06 	adceq	r5, pc, #6144	; 0x1800
    13bc:	590c0000 	stmdbpl	ip, {}	; <UNPREDICTABLE>
    13c0:	0600000a 	streq	r0, [r0], -sl
    13c4:	0002af5c 	andeq	sl, r2, ip, asr pc
    13c8:	7d0c0000 	stcvc	0, cr0, [ip, #-0]
    13cc:	0600000a 	streq	r0, [r0], -sl
    13d0:	0000255d 	andeq	r2, r0, sp, asr r5
    13d4:	690c0400 	stmdbvs	ip, {sl}
    13d8:	06000008 	streq	r0, [r0], -r8
    13dc:	0002b55f 	andeq	fp, r2, pc, asr r5
    13e0:	a90c0800 	stmdbge	ip, {fp}
    13e4:	06000007 	streq	r0, [r0], -r7
    13e8:	00022160 	andeq	r2, r2, r0, ror #2
    13ec:	0e008800 	cdpeq	8, 0, cr8, cr0, cr0, {0}
    13f0:	00027104 	andeq	r7, r2, r4, lsl #2
    13f4:	02c50900 	sbceq	r0, r5, #0, 18
    13f8:	02c50000 	sbceq	r0, r5, #0
    13fc:	e20a0000 	and	r0, sl, #0
    1400:	1f000000 	svcne	0x00000000
    1404:	cb040e00 	blgt	104c0c <__bss_end__+0xfa6ac>
    1408:	13000002 	movwne	r0, #2
    140c:	000a240f 	andeq	r2, sl, pc, lsl #8
    1410:	73060800 	movwvc	r0, #26624	; 0x6800
    1414:	000002f1 	strdeq	r0, [r0], -r1
    1418:	00078a0c 	andeq	r8, r7, ip, lsl #20
    141c:	f1740600 			; <UNDEFINED> instruction: 0xf1740600
    1420:	00000002 	andeq	r0, r0, r2
    1424:	0006cd0c 	andeq	ip, r6, ip, lsl #26
    1428:	25750600 	ldrbcs	r0, [r5, #-1536]!	; 0x600
    142c:	04000000 	streq	r0, [r0], #-0
    1430:	5f040e00 	svcpl	0x00040e00
    1434:	0f000000 	svceq	0x00000000
    1438:	00000a43 	andeq	r0, r0, r3, asr #20
    143c:	21b30668 			; <UNDEFINED> instruction: 0x21b30668
    1440:	10000004 	andne	r0, r0, r4
    1444:	0600705f 			; <UNDEFINED> instruction: 0x0600705f
    1448:	0002f1b4 			; <UNDEFINED> instruction: 0x0002f1b4
    144c:	5f100000 	svcpl	0x00100000
    1450:	b5060072 	strlt	r0, [r6, #-114]	; 0x72
    1454:	00000025 	andeq	r0, r0, r5, lsr #32
    1458:	775f1004 	ldrbvc	r1, [pc, -r4]
    145c:	25b60600 	ldrcs	r0, [r6, #1536]!	; 0x600
    1460:	08000000 	stmdaeq	r0, {}	; <UNPREDICTABLE>
    1464:	0007ef0c 	andeq	lr, r7, ip, lsl #30
    1468:	3fb70600 	svccc	0x00b70600
    146c:	0c000000 	stceq	0, cr0, [r0], {-0}
    1470:	0008e90c 	andeq	lr, r8, ip, lsl #18
    1474:	3fb80600 	svccc	0x00b80600
    1478:	0e000000 	cdpeq	0, 0, cr0, cr0, cr0, {0}
    147c:	66625f10 	uqadd16vs	r5, r2, r0
    1480:	ccb90600 	ldcgt	6, cr0, [r9]
    1484:	10000002 	andne	r0, r0, r2
    1488:	0007230c 	andeq	r2, r7, ip, lsl #6
    148c:	25ba0600 	ldrcs	r0, [sl, #1536]!	; 0x600
    1490:	18000000 	stmdane	r0, {}	; <UNPREDICTABLE>
    1494:	0007cd0c 	andeq	ip, r7, ip, lsl #26
    1498:	20c10600 	sbccs	r0, r1, r0, lsl #12
    149c:	1c000001 	stcne	0, cr0, [r0], {1}
    14a0:	0005910c 	andeq	r9, r5, ip, lsl #2
    14a4:	7cc30600 	stclvc	6, cr0, [r3], {0}
    14a8:	20000005 	andcs	r0, r0, r5
    14ac:	0002970c 	andeq	r9, r2, ip, lsl #14
    14b0:	a6c50600 	strbge	r0, [r5], r0, lsl #12
    14b4:	24000005 	strcs	r0, [r0], #-5
    14b8:	000ac10c 	andeq	ip, sl, ip, lsl #2
    14bc:	cac80600 	bgt	ff202cc4 <__bss_end__+0xff1f8764>
    14c0:	28000005 	stmdacs	r0, {r0, r2}
    14c4:	000c4b0c 	andeq	r4, ip, ip, lsl #22
    14c8:	e4c90600 	strb	r0, [r9], #1536	; 0x600
    14cc:	2c000005 	stccs	0, cr0, [r0], {5}
    14d0:	62755f10 	rsbsvs	r5, r5, #16, 30	; 0x40
    14d4:	cccc0600 	stclgt	6, cr0, [ip], {0}
    14d8:	30000002 	andcc	r0, r0, r2
    14dc:	70755f10 	rsbsvc	r5, r5, r0, lsl pc
    14e0:	f1cd0600 			; <UNDEFINED> instruction: 0xf1cd0600
    14e4:	38000002 	stmdacc	r0, {r1}
    14e8:	72755f10 	rsbsvc	r5, r5, #16, 30	; 0x40
    14ec:	25ce0600 	strbcs	r0, [lr, #1536]	; 0x600
    14f0:	3c000000 	stccc	0, cr0, [r0], {-0}
    14f4:	0007750c 	andeq	r7, r7, ip, lsl #10
    14f8:	ead10600 	b	ff442d00 <__bss_end__+0xff4387a0>
    14fc:	40000005 	andmi	r0, r0, r5
    1500:	000bf60c 	andeq	pc, fp, ip, lsl #12
    1504:	fad20600 	blx	ff482d0c <__bss_end__+0xff4787ac>
    1508:	43000005 	movwmi	r0, #5
    150c:	626c5f10 	rsbvs	r5, ip, #16, 30	; 0x40
    1510:	ccd50600 	ldclgt	6, cr0, [r5], {0}
    1514:	44000002 	strmi	r0, [r0], #-2
    1518:	00080f0c 	andeq	r0, r8, ip, lsl #30
    151c:	25d80600 	ldrbcs	r0, [r8, #1536]	; 0x600
    1520:	4c000000 	stcmi	0, cr0, [r0], {-0}
    1524:	0008340c 	andeq	r3, r8, ip, lsl #8
    1528:	91d90600 	bicsls	r0, r9, r0, lsl #12
    152c:	50000000 	andpl	r0, r0, r0
    1530:	0004b70c 	andeq	fp, r4, ip, lsl #14
    1534:	3fdc0600 	svccc	0x00dc0600
    1538:	54000004 	strpl	r0, [r0], #-4
    153c:	0009770c 	andeq	r7, r9, ip, lsl #14
    1540:	15e00600 	strbne	r0, [r0, #1536]!	; 0x600
    1544:	58000001 	stmdapl	r0, {r0}
    1548:	000a4b0c 	andeq	r4, sl, ip, lsl #22
    154c:	0ae20600 	beq	ff882d54 <__bss_end__+0xff8787f4>
    1550:	5c000001 	stcpl	0, cr0, [r0], {1}
    1554:	00097d0c 	andeq	r7, r9, ip, lsl #26
    1558:	25e30600 	strbcs	r0, [r3, #1536]!	; 0x600
    155c:	64000000 	strvs	r0, [r0], #-0
    1560:	00251400 	eoreq	r1, r5, r0, lsl #8
    1564:	043f0000 	ldrteq	r0, [pc], #-0	; 156c <_start-0x6a94>
    1568:	3f150000 	svccc	0x00150000
    156c:	15000004 	strne	r0, [r0, #-4]
    1570:	00000120 	andeq	r0, r0, r0, lsr #2
    1574:	00012215 	andeq	r2, r1, r5, lsl r2
    1578:	00251500 	eoreq	r1, r5, r0, lsl #10
    157c:	0e000000 	cdpeq	0, 0, cr0, cr0, cr0, {0}
    1580:	00044a04 	andeq	r4, r4, r4, lsl #20
    1584:	043f0400 	ldrteq	r0, [pc], #-1024	; 158c <_start-0x6a74>
    1588:	a4160000 	ldrge	r0, [r6], #-0
    158c:	2800000a 	stmdacs	r0, {r1, r3}
    1590:	02380604 	eorseq	r0, r8, #4, 12	; 0x400000
    1594:	0000057c 	andeq	r0, r0, ip, ror r5
    1598:	000a1317 	andeq	r1, sl, r7, lsl r3
    159c:	023a0600 	eorseq	r0, sl, #0, 12
    15a0:	00000025 	andeq	r0, r0, r5, lsr #32
    15a4:	07fe1700 	ldrbeq	r1, [lr, r0, lsl #14]!
    15a8:	3f060000 	svccc	0x00060000
    15ac:	00065102 	andeq	r5, r6, r2, lsl #2
    15b0:	d2170400 	andsle	r0, r7, #0, 8
    15b4:	06000008 	streq	r0, [r0], -r8
    15b8:	0651023f 			; <UNDEFINED> instruction: 0x0651023f
    15bc:	17080000 	strne	r0, [r8, -r0]
    15c0:	0000088a 	andeq	r0, r0, sl, lsl #17
    15c4:	51023f06 	tstpl	r2, r6, lsl #30
    15c8:	0c000006 	stceq	0, cr0, [r0], {6}
    15cc:	000a7817 	andeq	r7, sl, r7, lsl r8
    15d0:	02410600 	subeq	r0, r1, #0, 12
    15d4:	00000025 	andeq	r0, r0, r5, lsr #32
    15d8:	06db1710 			; <UNDEFINED> instruction: 0x06db1710
    15dc:	42060000 	andmi	r0, r6, #0
    15e0:	00083302 	andeq	r3, r8, r2, lsl #6
    15e4:	66171400 	ldrvs	r1, [r7], -r0, lsl #8
    15e8:	0600000b 	streq	r0, [r0], -fp
    15ec:	00250244 	eoreq	r0, r5, r4, asr #4
    15f0:	17300000 	ldrne	r0, [r0, -r0]!
    15f4:	00000a82 	andeq	r0, r0, r2, lsl #21
    15f8:	a0024506 	andge	r4, r2, r6, lsl #10
    15fc:	34000005 	strcc	r0, [r0], #-5
    1600:	0009d217 	andeq	sp, r9, r7, lsl r2
    1604:	02470600 	subeq	r0, r7, #0, 12
    1608:	00000025 	andeq	r0, r0, r5, lsr #32
    160c:	0a921738 	beq	fe4872f4 <__bss_end__+0xfe47cd94>
    1610:	49060000 	stmdbmi	r6, {}	; <UNPREDICTABLE>
    1614:	00084e02 	andeq	r4, r8, r2, lsl #28
    1618:	53173c00 	tstpl	r7, #0, 24
    161c:	06000009 	streq	r0, [r0], -r9
    1620:	0192024c 	orrseq	r0, r2, ip, asr #4
    1624:	17400000 	strbne	r0, [r0, -r0]
    1628:	000008a9 	andeq	r0, r0, r9, lsr #17
    162c:	25024d06 	strcs	r4, [r2, #-3334]	; 0xd06
    1630:	44000000 	strmi	r0, [r0], #-0
    1634:	000c7817 	andeq	r7, ip, r7, lsl r8
    1638:	024e0600 	subeq	r0, lr, #0, 12
    163c:	00000192 	muleq	r0, r2, r1
    1640:	09e41748 	stmibeq	r4!, {r3, r6, r8, r9, sl, ip}^
    1644:	4f060000 	svcmi	0x00060000
    1648:	00085402 	andeq	r5, r8, r2, lsl #8
    164c:	e1174c00 	tst	r7, r0, lsl #24
    1650:	06000008 	streq	r0, [r0], -r8
    1654:	00250252 	eoreq	r0, r5, r2, asr r2
    1658:	17500000 	ldrbne	r0, [r0, -r0]
    165c:	0000082c 	andeq	r0, r0, ip, lsr #16
    1660:	22025306 	andcs	r5, r2, #402653184	; 0x18000000
    1664:	54000001 	strpl	r0, [r0], #-1
    1668:	000a0c17 	andeq	r0, sl, r7, lsl ip
    166c:	02760600 	rsbseq	r0, r6, #0, 12
    1670:	00000811 	andeq	r0, r0, r1, lsl r8
    1674:	09ca1858 	stmibeq	sl, {r3, r4, r6, fp, ip}^
    1678:	7a060000 	bvc	181680 <__bss_end__+0x177120>
    167c:	0002af02 	andeq	sl, r2, r2, lsl #30
    1680:	18014800 	stmdane	r1, {fp, lr}
    1684:	00000916 	andeq	r0, r0, r6, lsl r9
    1688:	71027b06 	tstvc	r2, r6, lsl #22
    168c:	4c000002 	stcmi	0, cr0, [r0], {2}
    1690:	0bcf1801 	bleq	ff3c769c <__bss_end__+0xff3bd13c>
    1694:	7f060000 	svcvc	0x00060000
    1698:	00086502 	andeq	r6, r8, r2, lsl #10
    169c:	1802dc00 	stmdane	r2, {sl, fp, ip, lr, pc}
    16a0:	000007e7 	andeq	r0, r0, r7, ror #15
    16a4:	16028406 	strne	r8, [r2], -r6, lsl #8
    16a8:	e0000006 	and	r0, r0, r6
    16ac:	07a41802 	streq	r1, [r4, r2, lsl #16]!
    16b0:	85060000 	strhi	r0, [r6, #-0]
    16b4:	00087102 	andeq	r7, r8, r2, lsl #2
    16b8:	0002ec00 	andeq	lr, r2, r0, lsl #24
    16bc:	0421040e 	strteq	r0, [r1], #-1038	; 0x40e
    16c0:	25140000 	ldrcs	r0, [r4, #-0]
    16c4:	a0000000 	andge	r0, r0, r0
    16c8:	15000005 	strne	r0, [r0, #-5]
    16cc:	0000043f 	andeq	r0, r0, pc, lsr r4
    16d0:	00012015 	andeq	r2, r1, r5, lsl r0
    16d4:	05a01500 	streq	r1, [r0, #1280]!	; 0x500
    16d8:	25150000 	ldrcs	r0, [r5, #-0]
    16dc:	00000000 	andeq	r0, r0, r0
    16e0:	012f040e 	teqeq	pc, lr, lsl #8
    16e4:	040e0000 	streq	r0, [lr], #-0
    16e8:	00000582 	andeq	r0, r0, r2, lsl #11
    16ec:	00009c14 	andeq	r9, r0, r4, lsl ip
    16f0:	0005ca00 	andeq	ip, r5, r0, lsl #20
    16f4:	043f1500 	ldrteq	r1, [pc], #-1280	; 16fc <_start-0x6904>
    16f8:	20150000 	andscs	r0, r5, r0
    16fc:	15000001 	strne	r0, [r0, #-1]
    1700:	0000009c 	muleq	r0, ip, r0
    1704:	00002515 	andeq	r2, r0, r5, lsl r5
    1708:	040e0000 	streq	r0, [lr], #-0
    170c:	000005ac 	andeq	r0, r0, ip, lsr #11
    1710:	00002514 	andeq	r2, r0, r4, lsl r5
    1714:	0005e400 	andeq	lr, r5, r0, lsl #8
    1718:	043f1500 	ldrteq	r1, [pc], #-1280	; 1720 <_start-0x68e0>
    171c:	20150000 	andscs	r0, r5, r0
    1720:	00000001 	andeq	r0, r0, r1
    1724:	05d0040e 	ldrbeq	r0, [r0, #1038]	; 0x40e
    1728:	5f090000 	svcpl	0x00090000
    172c:	fa000000 	blx	1734 <_start-0x68cc>
    1730:	0a000005 	beq	174c <_start-0x68b4>
    1734:	000000e2 	andeq	r0, r0, r2, ror #1
    1738:	5f090002 	svcpl	0x00090002
    173c:	0a000000 	beq	1744 <_start-0x68bc>
    1740:	0a000006 	beq	1760 <_start-0x68a0>
    1744:	000000e2 	andeq	r0, r0, r2, ror #1
    1748:	31060000 	mrscc	r0, (UNDEF: 6)
    174c:	0600000a 	streq	r0, [r0], -sl
    1750:	02f7011d 	rscseq	r0, r7, #1073741831	; 0x40000007
    1754:	9f190000 	svcls	0x00190000
    1758:	0c00000b 	stceq	0, cr0, [r0], {11}
    175c:	4b012106 	blmi	49b7c <__bss_end__+0x3f61c>
    1760:	17000006 	strne	r0, [r0, -r6]
    1764:	00000a59 	andeq	r0, r0, r9, asr sl
    1768:	4b012306 	blmi	4a388 <__bss_end__+0x3fe28>
    176c:	00000006 	andeq	r0, r0, r6
    1770:	0008ef17 	andeq	lr, r8, r7, lsl pc
    1774:	01240600 	teqeq	r4, r0, lsl #12
    1778:	00000025 	andeq	r0, r0, r5, lsr #32
    177c:	0a2b1704 	beq	ac7394 <__bss_end__+0xabce34>
    1780:	25060000 	strcs	r0, [r6, #-0]
    1784:	00065101 	andeq	r5, r6, r1, lsl #2
    1788:	0e000800 	cdpeq	8, 0, cr0, cr0, cr0, {0}
    178c:	00061604 	andeq	r1, r6, r4, lsl #12
    1790:	0a040e00 	beq	104f98 <__bss_end__+0xfaa38>
    1794:	19000006 	stmdbne	r0, {r1, r2}
    1798:	000006d3 	ldrdeq	r0, [r0], -r3
    179c:	013d060e 	teqeq	sp, lr, lsl #12
    17a0:	0000068c 	andeq	r0, r0, ip, lsl #13
    17a4:	000aab17 	andeq	sl, sl, r7, lsl fp
    17a8:	013e0600 	teqeq	lr, r0, lsl #12
    17ac:	0000068c 	andeq	r0, r0, ip, lsl #13
    17b0:	0ad81700 	beq	ff6073b8 <__bss_end__+0xff5fce58>
    17b4:	3f060000 	svccc	0x00060000
    17b8:	00068c01 	andeq	r8, r6, r1, lsl #24
    17bc:	39170600 	ldmdbcc	r7, {r9, sl}
    17c0:	0600000b 	streq	r0, [r0], -fp
    17c4:	00660140 	rsbeq	r0, r6, r0, asr #2
    17c8:	000c0000 	andeq	r0, ip, r0
    17cc:	00006609 	andeq	r6, r0, r9, lsl #12
    17d0:	00069c00 	andeq	r9, r6, r0, lsl #24
    17d4:	00e20a00 	rsceq	r0, r2, r0, lsl #20
    17d8:	00020000 	andeq	r0, r2, r0
    17dc:	5706d01a 	smladpl	r6, sl, r0, sp
    17e0:	00079d02 	andeq	r9, r7, r2, lsl #26
    17e4:	0b781700 	bleq	1e073ec <__bss_end__+0x1dfce8c>
    17e8:	59060000 	stmdbpl	r6, {}	; <UNPREDICTABLE>
    17ec:	00002c02 	andeq	r2, r0, r2, lsl #24
    17f0:	1b170000 	blne	5c17f8 <__bss_end__+0x5b7298>
    17f4:	0600000b 	streq	r0, [r0], -fp
    17f8:	0122025a 	teqeq	r2, sl, asr r2
    17fc:	17040000 	strne	r0, [r4, -r0]
    1800:	00000938 	andeq	r0, r0, r8, lsr r9
    1804:	9d025b06 	vstrls	d5, [r2, #-24]	; 0xffffffe8
    1808:	08000007 	stmdaeq	r0, {r0, r1, r2}
    180c:	000c3c17 	andeq	r3, ip, r7, lsl ip
    1810:	025c0600 	subseq	r0, ip, #0, 12
    1814:	000001a8 	andeq	r0, r0, r8, lsr #3
    1818:	089a1724 	ldmeq	sl, {r2, r5, r8, r9, sl, ip}
    181c:	5d060000 	stcpl	0, cr0, [r6, #-0]
    1820:	00002502 	andeq	r2, r0, r2, lsl #10
    1824:	54174800 	ldrpl	r4, [r7], #-2048	; 0x800
    1828:	0600000a 	streq	r0, [r0], -sl
    182c:	007f025e 	rsbseq	r0, pc, lr, asr r2	; <UNPREDICTABLE>
    1830:	17500000 	ldrbne	r0, [r0, -r0]
    1834:	00000c5a 	andeq	r0, r0, sl, asr ip
    1838:	57025f06 	strpl	r5, [r2, -r6, lsl #30]
    183c:	58000006 	stmdapl	r0, {r1, r2}
    1840:	000a6b17 	andeq	r6, sl, r7, lsl fp
    1844:	02600600 	rsbeq	r0, r0, #0, 12
    1848:	0000010a 	andeq	r0, r0, sl, lsl #2
    184c:	0c6a1768 	stcleq	7, cr1, [sl], #-416	; 0xfffffe60
    1850:	61060000 	mrsvs	r0, (UNDEF: 6)
    1854:	00010a02 	andeq	r0, r1, r2, lsl #20
    1858:	5e177000 	cdppl	0, 1, cr7, cr7, cr0, {0}
    185c:	06000007 	streq	r0, [r0], -r7
    1860:	010a0262 	tsteq	sl, r2, ror #4
    1864:	17780000 	ldrbne	r0, [r8, -r0]!
    1868:	00000bb6 			; <UNDEFINED> instruction: 0x00000bb6
    186c:	ad026306 	stcge	3, cr6, [r2, #-24]	; 0xffffffe8
    1870:	80000007 	andhi	r0, r0, r7
    1874:	00092c17 	andeq	r2, r9, r7, lsl ip
    1878:	02640600 	rsbeq	r0, r4, #0, 12
    187c:	000007bd 			; <UNDEFINED> instruction: 0x000007bd
    1880:	0b461788 	bleq	11876a8 <__bss_end__+0x117d148>
    1884:	65060000 	strvs	r0, [r6, #-0]
    1888:	00002502 	andeq	r2, r0, r2, lsl #10
    188c:	5317a000 	tstpl	r7, #0
    1890:	06000008 	streq	r0, [r0], -r8
    1894:	010a0266 	tsteq	sl, r6, ror #4
    1898:	17a40000 	strne	r0, [r4, r0]!
    189c:	0000073c 	andeq	r0, r0, ip, lsr r7
    18a0:	0a026706 	beq	9b4c0 <__bss_end__+0x90f60>
    18a4:	ac000001 	stcge	0, cr0, [r0], {1}
    18a8:	00084217 	andeq	r4, r8, r7, lsl r2
    18ac:	02680600 	rsbeq	r0, r8, #0, 12
    18b0:	0000010a 	andeq	r0, r0, sl, lsl #2
    18b4:	070317b4 			; <UNDEFINED> instruction: 0x070317b4
    18b8:	69060000 	stmdbvs	r6, {}	; <UNPREDICTABLE>
    18bc:	00010a02 	andeq	r0, r1, r2, lsl #20
    18c0:	1217bc00 	andsne	fp, r7, #0, 24
    18c4:	06000007 	streq	r0, [r0], -r7
    18c8:	010a026a 	tsteq	sl, sl, ror #4
    18cc:	17c40000 	strbne	r0, [r4, r0]
    18d0:	00000a11 	andeq	r0, r0, r1, lsl sl
    18d4:	25026b06 	strcs	r6, [r2, #-2822]	; 0xb06
    18d8:	cc000000 	stcgt	0, cr0, [r0], {-0}
    18dc:	01280900 	teqeq	r8, r0, lsl #18
    18e0:	07ad0000 	streq	r0, [sp, r0]!
    18e4:	e20a0000 	and	r0, sl, #0
    18e8:	19000000 	stmdbne	r0, {}	; <UNPREDICTABLE>
    18ec:	01280900 	teqeq	r8, r0, lsl #18
    18f0:	07bd0000 	ldreq	r0, [sp, r0]!
    18f4:	e20a0000 	and	r0, sl, #0
    18f8:	07000000 	streq	r0, [r0, -r0]
    18fc:	01280900 	teqeq	r8, r0, lsl #18
    1900:	07cd0000 	strbeq	r0, [sp, r0]
    1904:	e20a0000 	and	r0, sl, #0
    1908:	17000000 	strne	r0, [r0, -r0]
    190c:	06f01a00 	ldrbteq	r1, [r0], r0, lsl #20
    1910:	07f10270 			; <UNDEFINED> instruction: 0x07f10270
    1914:	b4170000 	ldrlt	r0, [r7], #-0
    1918:	06000009 	streq	r0, [r0], -r9
    191c:	07f10273 			; <UNDEFINED> instruction: 0x07f10273
    1920:	17000000 	strne	r0, [r0, -r0]
    1924:	00000994 	muleq	r0, r4, r9
    1928:	01027406 	tsteq	r2, r6, lsl #8
    192c:	78000008 	stmdavc	r0, {r3}
    1930:	02f10900 	rscseq	r0, r1, #0, 18
    1934:	08010000 	stmdaeq	r1, {}	; <UNPREDICTABLE>
    1938:	e20a0000 	and	r0, sl, #0
    193c:	1d000000 	stcne	0, cr0, [r0, #-0]
    1940:	002c0900 	eoreq	r0, ip, r0, lsl #18
    1944:	08110000 	ldmdaeq	r1, {}	; <UNPREDICTABLE>
    1948:	e20a0000 	and	r0, sl, #0
    194c:	1d000000 	stcne	0, cr0, [r0, #-0]
    1950:	06f01b00 	ldrbteq	r1, [r0], r0, lsl #22
    1954:	08330255 	ldmdaeq	r3!, {r0, r2, r4, r6, r9}
    1958:	a41c0000 	ldrge	r0, [ip], #-0
    195c:	0600000a 	streq	r0, [r0], -sl
    1960:	069c026c 	ldreq	r0, [ip], ip, ror #4
    1964:	fc1c0000 	ldc2	0, cr0, [ip], {-0}
    1968:	0600000b 	streq	r0, [r0], -fp
    196c:	07cd0275 			; <UNDEFINED> instruction: 0x07cd0275
    1970:	09000000 	stmdbeq	r0, {}	; <UNPREDICTABLE>
    1974:	00000128 	andeq	r0, r0, r8, lsr #2
    1978:	00000843 	andeq	r0, r0, r3, asr #16
    197c:	0000e20a 	andeq	lr, r0, sl, lsl #4
    1980:	1d001800 	stcne	8, cr1, [r0, #-0]
    1984:	0000084e 	andeq	r0, r0, lr, asr #16
    1988:	00043f15 	andeq	r3, r4, r5, lsl pc
    198c:	040e0000 	streq	r0, [lr], #-0
    1990:	00000843 	andeq	r0, r0, r3, asr #16
    1994:	0192040e 	orrseq	r0, r2, lr, lsl #8
    1998:	651d0000 	ldrvs	r0, [sp, #-0]
    199c:	15000008 	strne	r0, [r0, #-8]
    19a0:	00000025 	andeq	r0, r0, r5, lsr #32
    19a4:	6b040e00 	blvs	1051ac <__bss_end__+0xfac4c>
    19a8:	0e000008 	cdpeq	0, 0, cr0, cr0, cr8, {0}
    19ac:	00085a04 	andeq	r5, r8, r4, lsl #20
    19b0:	060a0900 	streq	r0, [sl], -r0, lsl #18
    19b4:	08810000 	stmeq	r1, {}	; <UNPREDICTABLE>
    19b8:	e20a0000 	and	r0, sl, #0
    19bc:	02000000 	andeq	r0, r0, #0
    19c0:	0b5a1e00 	bleq	16891c8 <__bss_end__+0x167ec68>
    19c4:	fd060000 	stc2	0, cr0, [r6, #-0]
    19c8:	00043f02 	andeq	r3, r4, r2, lsl #30
    19cc:	0b531e00 	bleq	14c91d4 <__bss_end__+0x14bec74>
    19d0:	fe060000 	cdp2	0, 0, cr0, cr6, cr0, {0}
    19d4:	00044502 	andeq	r4, r4, r2, lsl #10
    19d8:	00251400 	eoreq	r1, r5, r0, lsl #8
    19dc:	08a80000 	stmiaeq	r8!, {}	; <UNPREDICTABLE>
    19e0:	25150000 	ldrcs	r0, [r5, #-0]
    19e4:	00000000 	andeq	r0, r0, r0
    19e8:	0008b31f 	andeq	fp, r8, pc, lsl r3
    19ec:	b31d0700 	tstlt	sp, #0, 14
    19f0:	0e000008 	cdpeq	0, 0, cr0, cr0, cr8, {0}
    19f4:	00089904 	andeq	r9, r8, r4, lsl #18
    19f8:	00251400 	eoreq	r1, r5, r0, lsl #8
    19fc:	08c80000 	stmiaeq	r8, {}^	; <UNPREDICTABLE>
    1a00:	a0150000 	andsge	r0, r5, r0
    1a04:	00000005 	andeq	r0, r0, r5
    1a08:	000da41f 	andeq	sl, sp, pc, lsl r4
    1a0c:	d3220700 	teqle	r2, #0, 14
    1a10:	0e000008 	cdpeq	0, 0, cr0, cr0, cr8, {0}
    1a14:	0008b904 	andeq	fp, r8, r4, lsl #18
    1a18:	5f012000 	svcpl	0x00012000
    1a1c:	08000000 	stmdaeq	r0, {}	; <UNPREDICTABLE>
    1a20:	0009160c 	andeq	r1, r9, ip, lsl #12
    1a24:	072c2100 	streq	r2, [ip, -r0, lsl #2]!
    1a28:	21000000 	mrscs	r0, (UNDEF: 0)
    1a2c:	00000ba5 	andeq	r0, r0, r5, lsr #23
    1a30:	0be72101 	bleq	ff9c9e3c <__bss_end__+0xff9bf8dc>
    1a34:	21040000 	mrscs	r0, (UNDEF: 4)
    1a38:	0000077b 	andeq	r0, r0, fp, ror r7
    1a3c:	09612105 	stmdbeq	r1!, {r0, r2, r8, sp}^
    1a40:	21060000 	mrscs	r0, (UNDEF: 6)
    1a44:	00000c04 	andeq	r0, r0, r4, lsl #24
    1a48:	0c132107 	ldfeqs	f2, [r3], {7}
    1a4c:	21030000 	mrscs	r0, (UNDEF: 3)
    1a50:	00000c22 	andeq	r0, r0, r2, lsr #24
    1a54:	040b0002 	streq	r0, [fp], #-2
    1a58:	09c35601 	stmibeq	r3, {r0, r9, sl, ip, lr}^
    1a5c:	92220000 	eorls	r0, r2, #0
    1a60:	01000005 	tsteq	r0, r5
    1a64:	00006d57 	andeq	r6, r0, r7, asr sp
    1a68:	1f010400 	svcne	0x00010400
    1a6c:	08052200 	stmdaeq	r5, {r9, sp}
    1a70:	59010000 	stmdbpl	r1, {}	; <UNPREDICTABLE>
    1a74:	0000006d 	andeq	r0, r0, sp, rrx
    1a78:	001c0304 	andseq	r0, ip, r4, lsl #6
    1a7c:	00103922 	andseq	r3, r0, r2, lsr #18
    1a80:	6d5a0100 	ldfvse	f0, [sl, #-0]
    1a84:	04000000 	streq	r0, [r0], #-0
    1a88:	22001a02 	andcs	r1, r0, #8192	; 0x2000
    1a8c:	0000079a 	muleq	r0, sl, r7
    1a90:	006d6001 	rsbeq	r6, sp, r1
    1a94:	01040000 	mrseq	r0, (UNDEF: 4)
    1a98:	73230019 	teqvc	r3, #25
    1a9c:	61010074 	tstvs	r1, r4, ror r0
    1aa0:	0000006d 	andeq	r0, r0, sp, rrx
    1aa4:	00180104 	andseq	r0, r8, r4, lsl #2
    1aa8:	00098f22 	andeq	r8, r9, r2, lsr #30
    1aac:	6d650100 	stfvse	f0, [r5, #-0]
    1ab0:	04000000 	streq	r0, [r0], #-0
    1ab4:	22001701 	andcs	r1, r0, #262144	; 0x40000
    1ab8:	000009a2 	andeq	r0, r0, r2, lsr #19
    1abc:	006d6801 	rsbeq	r6, sp, r1, lsl #16
    1ac0:	01040000 	mrseq	r0, (UNDEF: 4)
    1ac4:	9d220016 	stcls	0, cr0, [r2, #-88]!	; 0xffffffa8
    1ac8:	01000009 	tsteq	r0, r9
    1acc:	00006d6b 	andeq	r6, r0, fp, ror #26
    1ad0:	15010400 	strne	r0, [r1, #-1024]	; 0x400
    1ad4:	08182200 	ldmdaeq	r8, {r9, sp}
    1ad8:	6e010000 	cdpvs	0, 0, cr0, cr1, cr0, {0}
    1adc:	0000006d 	andeq	r0, r0, sp, rrx
    1ae0:	00110404 	andseq	r0, r1, r4, lsl #8
    1ae4:	0009bb22 	andeq	fp, r9, r2, lsr #22
    1ae8:	6d6f0100 	stfvse	f0, [pc, #-0]	; 1af0 <_start-0x6510>
    1aec:	04000000 	streq	r0, [r0], #-0
    1af0:	22001001 	andcs	r1, r0, #1
    1af4:	00000822 	andeq	r0, r0, r2, lsr #16
    1af8:	006d7201 	rsbeq	r7, sp, r1, lsl #4
    1afc:	10040000 	andne	r0, r4, r0
    1b00:	05000000 	streq	r0, [r0, #-0]
    1b04:	00000c5f 	andeq	r0, r0, pc, asr ip
    1b08:	09167301 	ldmdbeq	r6, {r0, r8, r9, ip, sp, lr}
    1b0c:	c3240000 	teqgt	r4, #0
    1b10:	0b000009 	bleq	1b3c <_start-0x64c4>
    1b14:	80810104 	addhi	r0, r1, r4, lsl #2
    1b18:	2300000a 	movwcs	r0, #10
    1b1c:	01006174 	tsteq	r0, r4, ror r1
    1b20:	00002c82 	andeq	r2, r0, r2, lsl #25
    1b24:	1f010400 	svcne	0x00010400
    1b28:	06f92200 	ldrbteq	r2, [r9], r0, lsl #4
    1b2c:	85010000 	strhi	r0, [r1, #-0]
    1b30:	0000002c 	andeq	r0, r0, ip, lsr #32
    1b34:	001e0104 	andseq	r0, lr, r4, lsl #2
    1b38:	77787423 	ldrbvc	r7, [r8, -r3, lsr #8]!
    1b3c:	2c890100 	stfcss	f0, [r9], {0}
    1b40:	04000000 	streq	r0, [r0], #-0
    1b44:	23001d01 	movwcs	r1, #3329	; 0xd01
    1b48:	00727872 	rsbseq	r7, r2, r2, ror r8
    1b4c:	002c8f01 	eoreq	r8, ip, r1, lsl #30
    1b50:	01040000 	mrseq	r0, (UNDEF: 4)
    1b54:	7423001c 	strtvc	r0, [r3], #-28
    1b58:	01006478 	tsteq	r0, r8, ror r4
    1b5c:	00002c95 	muleq	r0, r5, ip
    1b60:	1b010400 	blne	42b68 <__bss_end__+0x38608>
    1b64:	78722300 	ldmdavc	r2!, {r8, r9, sp}^
    1b68:	98010064 	stmdals	r1, {r2, r5, r6}
    1b6c:	0000002c 	andeq	r0, r0, ip, lsr #32
    1b70:	001a0104 	andseq	r0, sl, r4, lsl #2
    1b74:	65787423 	ldrbvs	r7, [r8, #-1059]!	; 0x423
    1b78:	2c9c0100 	ldfcss	f0, [ip], {0}
    1b7c:	04000000 	streq	r0, [r0], #-0
    1b80:	23001901 	movwcs	r1, #2305	; 0x901
    1b84:	00667872 	rsbeq	r7, r6, r2, ror r8
    1b88:	002ca101 	eoreq	sl, ip, r1, lsl #2
    1b8c:	01040000 	mrseq	r0, (UNDEF: 4)
    1b90:	65230018 	strvs	r0, [r3, #-24]!
    1b94:	01007272 	tsteq	r0, r2, ror r2
    1b98:	00002ca4 	andeq	r2, r0, r4, lsr #25
    1b9c:	17010400 	strne	r0, [r1, -r0, lsl #8]
    1ba0:	0bd92200 	bleq	ff64a3a8 <__bss_end__+0xff63fe48>
    1ba4:	a8010000 	stmdage	r1, {}	; <UNPREDICTABLE>
    1ba8:	0000002c 	andeq	r0, r0, ip, lsr #32
    1bac:	00160104 	andseq	r0, r6, r4, lsl #2
    1bb0:	00080522 	andeq	r0, r8, r2, lsr #10
    1bb4:	2cad0100 	stfcss	f0, [sp]
    1bb8:	04000000 	streq	r0, [r0], #-0
    1bbc:	00000016 	andeq	r0, r0, r6, lsl r0
    1bc0:	0006e605 	andeq	lr, r6, r5, lsl #12
    1bc4:	d3ae0100 			; <UNDEFINED> instruction: 0xd3ae0100
    1bc8:	24000009 	strcs	r0, [r0], #-9
    1bcc:	00000a80 	andeq	r0, r0, r0, lsl #21
    1bd0:	0006f10f 	andeq	pc, r6, pc, lsl #2
    1bd4:	b9012000 	stmdblt	r1, {sp}
    1bd8:	00000afd 	strdeq	r0, [r0], -sp
    1bdc:	000ab90c 	andeq	fp, sl, ip, lsl #18
    1be0:	c3ba0100 			; <UNDEFINED> instruction: 0xc3ba0100
    1be4:	00000009 	andeq	r0, r0, r9
    1be8:	0009250c 	andeq	r2, r9, ip, lsl #10
    1bec:	80bb0100 	adcshi	r0, fp, r0, lsl #2
    1bf0:	0400000a 	streq	r0, [r0], #-10
    1bf4:	0009f50c 	andeq	pc, r9, ip, lsl #10
    1bf8:	6dbe0100 	ldfvss	f0, [lr]
    1bfc:	08000000 	stmdaeq	r0, {}	; <UNPREDICTABLE>
    1c00:	0005270c 	andeq	r2, r5, ip, lsl #14
    1c04:	6dc70100 	stfvse	f0, [r7]
    1c08:	0c000000 	stceq	0, cr0, [r0], {-0}
    1c0c:	0006fe0c 	andeq	pc, r6, ip, lsl #28
    1c10:	6dc90100 	stfvse	f0, [r9]
    1c14:	10000000 	andne	r0, r0, r0
    1c18:	00090c0c 	andeq	r0, r9, ip, lsl #24
    1c1c:	6dcb0100 	stfvse	f0, [fp]
    1c20:	14000000 	strne	r0, [r0], #-0
    1c24:	000a5f0c 	andeq	r5, sl, ip, lsl #30
    1c28:	6dcd0100 	stfvse	f0, [sp]
    1c2c:	18000000 	stmdane	r0, {}	; <UNPREDICTABLE>
    1c30:	0007b70c 	andeq	fp, r7, ip, lsl #14
    1c34:	6dcf0100 	stfvse	f0, [pc]	; 1c3c <_start-0x63c4>
    1c38:	1c000000 	stcne	0, cr0, [r0], {-0}
    1c3c:	06f10500 	ldrbteq	r0, [r1], r0, lsl #10
    1c40:	d0010000 	andle	r0, r1, r0
    1c44:	00000a90 	muleq	r0, r0, sl
    1c48:	000afd24 	andeq	pc, sl, r4, lsr #26
    1c4c:	32692500 	rsbcc	r2, r9, #0, 10
    1c50:	d4010063 	strle	r0, [r1], #-99	; 0x63
    1c54:	00000b18 	andeq	r0, r0, r8, lsl fp
    1c58:	0b08040e 	bleq	202c98 <__bss_end__+0x1f8738>
    1c5c:	f6260000 			; <UNDEFINED> instruction: 0xf6260000
    1c60:	01000008 	tsteq	r0, r8
    1c64:	0025013f 	eoreq	r0, r5, pc, lsr r1
    1c68:	03050000 	movweq	r0, #20480	; 0x5000
    1c6c:	0000a158 	andeq	sl, r0, r8, asr r1
    1c70:	0009a727 	andeq	sl, r9, r7, lsr #14
    1c74:	01690100 	cmneq	r9, r0, lsl #2
    1c78:	00008754 	andeq	r8, r0, r4, asr r7
    1c7c:	00000008 	andeq	r0, r0, r8
    1c80:	11019c01 	tstne	r1, r1, lsl #24
    1c84:	cf280000 	svcgt	0x00280000
    1c88:	11000002 	tstne	r0, r2
    1c8c:	05000011 	streq	r0, [r0, #-17]
    1c90:	009e0803 	addseq	r0, lr, r3, lsl #16
    1c94:	0baa2900 	bleq	fea8c09c <__bss_end__+0xfea81b3c>
    1c98:	5f2a0000 	svcpl	0x002a0000
    1c9c:	01040075 	tsteq	r4, r5, ror r0
    1ca0:	0b7b0174 	bleq	1ec2278 <__bss_end__+0x1eb7d18>
    1ca4:	732b0000 	teqvc	fp, #0
    1ca8:	01740100 	cmneq	r4, r0, lsl #2
    1cac:	000009c3 	andeq	r0, r0, r3, asr #19
    1cb0:	0100752b 	tsteq	r0, fp, lsr #10
    1cb4:	002c0174 	eoreq	r0, ip, r4, ror r1
    1cb8:	2c000000 	stccs	0, cr0, [r0], {-0}
    1cbc:	74010078 	strvc	r0, [r1], #-120	; 0x78
    1cc0:	000b5a01 	andeq	r5, fp, r1, lsl #20
    1cc4:	78652c00 	stmdavc	r5!, {sl, fp, sp}^
    1cc8:	74010070 	strvc	r0, [r1], #-112	; 0x70
    1ccc:	00002c01 	andeq	r2, r0, r1, lsl #24
    1cd0:	083c2d00 	ldmdaeq	ip!, {r8, sl, fp, sp}
    1cd4:	74010000 	strvc	r0, [r1], #-0
    1cd8:	00002c01 	andeq	r2, r0, r1, lsl #24
    1cdc:	09042d00 	stmdbeq	r4, {r8, sl, fp, sp}
    1ce0:	74010000 	strvc	r0, [r1], #-0
    1ce4:	00002c01 	andeq	r2, r0, r1, lsl #24
    1ce8:	ff290000 			; <UNDEFINED> instruction: 0xff290000
    1cec:	2a00000b 	bcs	1d20 <_start-0x62e0>
    1cf0:	0400755f 	streq	r7, [r0], #-1375	; 0x55f
    1cf4:	d0017501 	andle	r7, r1, r1, lsl #10
    1cf8:	2b00000b 	blcs	1d2c <_start-0x62d4>
    1cfc:	75010073 	strvc	r0, [r1, #-115]	; 0x73
    1d00:	0009c301 	andeq	ip, r9, r1, lsl #6
    1d04:	00752b00 	rsbseq	r2, r5, r0, lsl #22
    1d08:	2c017501 	cfstr32cs	mvfx7, [r1], {1}
    1d0c:	00000000 	andeq	r0, r0, r0
    1d10:	0100782c 	tsteq	r0, ip, lsr #16
    1d14:	0baf0175 	bleq	febc22f0 <__bss_end__+0xfebb7d90>
    1d18:	652c0000 	strvs	r0, [ip, #-0]!
    1d1c:	01007078 	tsteq	r0, r8, ror r0
    1d20:	002c0175 	eoreq	r0, ip, r5, ror r1
    1d24:	3c2d0000 	stccc	0, cr0, [sp], #-0
    1d28:	01000008 	tsteq	r0, r8
    1d2c:	002c0175 	eoreq	r0, ip, r5, ror r1
    1d30:	042d0000 	strteq	r0, [sp], #-0
    1d34:	01000009 	tsteq	r0, r9
    1d38:	002c0175 	eoreq	r0, ip, r5, ror r1
    1d3c:	29000000 	stmdbcs	r0, {}	; <UNPREDICTABLE>
    1d40:	00000c54 	andeq	r0, r0, r4, asr ip
    1d44:	00755f2a 	rsbseq	r5, r5, sl, lsr #30
    1d48:	01760104 	cmneq	r6, r4, lsl #2
    1d4c:	00000c25 	andeq	r0, r0, r5, lsr #24
    1d50:	0100732b 	tsteq	r0, fp, lsr #6
    1d54:	09c30176 	stmibeq	r3, {r1, r2, r4, r5, r6, r8}^
    1d58:	752b0000 	strvc	r0, [fp, #-0]!
    1d5c:	01760100 	cmneq	r6, r0, lsl #2
    1d60:	0000002c 	andeq	r0, r0, ip, lsr #32
    1d64:	00782c00 	rsbseq	r2, r8, r0, lsl #24
    1d68:	04017601 	streq	r7, [r1], #-1537	; 0x601
    1d6c:	2c00000c 	stccs	0, cr0, [r0], {12}
    1d70:	00707865 	rsbseq	r7, r0, r5, ror #16
    1d74:	2c017601 	stccs	6, cr7, [r1], {1}
    1d78:	2d000000 	stccs	0, cr0, [r0, #-0]
    1d7c:	0000083c 	andeq	r0, r0, ip, lsr r8
    1d80:	2c017601 	stccs	6, cr7, [r1], {1}
    1d84:	2d000000 	stccs	0, cr0, [r0, #-0]
    1d88:	00000904 	andeq	r0, r0, r4, lsl #18
    1d8c:	2c017601 	stccs	6, cr7, [r1], {1}
    1d90:	00000000 	andeq	r0, r0, r0
    1d94:	000ca929 	andeq	sl, ip, r9, lsr #18
    1d98:	755f2a00 	ldrbvc	r2, [pc, #-2560]	; 13a0 <_start-0x6c60>
    1d9c:	77010400 	strvc	r0, [r1, -r0, lsl #8]
    1da0:	000c7a01 	andeq	r7, ip, r1, lsl #20
    1da4:	00732b00 	rsbseq	r2, r3, r0, lsl #22
    1da8:	c3017701 	movwgt	r7, #5889	; 0x1701
    1dac:	2b000009 	blcs	1dd8 <_start-0x6228>
    1db0:	77010075 	smlsdxvc	r1, r5, r0, r0
    1db4:	00002c01 	andeq	r2, r0, r1, lsl #24
    1db8:	782c0000 	stmdavc	ip!, {}	; <UNPREDICTABLE>
    1dbc:	01770100 	cmneq	r7, r0, lsl #2
    1dc0:	00000c59 	andeq	r0, r0, r9, asr ip
    1dc4:	7078652c 	rsbsvc	r6, r8, ip, lsr #10
    1dc8:	01770100 	cmneq	r7, r0, lsl #2
    1dcc:	0000002c 	andeq	r0, r0, ip, lsr #32
    1dd0:	00083c2d 	andeq	r3, r8, sp, lsr #24
    1dd4:	01770100 	cmneq	r7, r0, lsl #2
    1dd8:	0000002c 	andeq	r0, r0, ip, lsr #32
    1ddc:	0009042d 	andeq	r0, r9, sp, lsr #8
    1de0:	01770100 	cmneq	r7, r0, lsl #2
    1de4:	0000002c 	andeq	r0, r0, ip, lsr #32
    1de8:	0cfe2900 	ldcleq	9, cr2, [lr]
    1dec:	5f2a0000 	svcpl	0x002a0000
    1df0:	01040075 	tsteq	r4, r5, ror r0
    1df4:	0ccf0178 	stfeqe	f0, [pc], {120}	; 0x78
    1df8:	732b0000 	teqvc	fp, #0
    1dfc:	01780100 	cmneq	r8, r0, lsl #2
    1e00:	000009c3 	andeq	r0, r0, r3, asr #19
    1e04:	0100752b 	tsteq	r0, fp, lsr #10
    1e08:	002c0178 	eoreq	r0, ip, r8, ror r1
    1e0c:	2c000000 	stccs	0, cr0, [r0], {-0}
    1e10:	78010078 	stmdavc	r1, {r3, r4, r5, r6}
    1e14:	000cae01 	andeq	sl, ip, r1, lsl #28
    1e18:	78652c00 	stmdavc	r5!, {sl, fp, sp}^
    1e1c:	78010070 	stmdavc	r1, {r4, r5, r6}
    1e20:	00002c01 	andeq	r2, r0, r1, lsl #24
    1e24:	083c2d00 	ldmdaeq	ip!, {r8, sl, fp, sp}
    1e28:	78010000 	stmdavc	r1, {}	; <UNPREDICTABLE>
    1e2c:	00002c01 	andeq	r2, r0, r1, lsl #24
    1e30:	09042d00 	stmdbeq	r4, {r8, sl, fp, sp}
    1e34:	78010000 	stmdavc	r1, {}	; <UNPREDICTABLE>
    1e38:	00002c01 	andeq	r2, r0, r1, lsl #24
    1e3c:	53290000 	teqpl	r9, #0
    1e40:	2a00000d 	bcs	1e7c <_start-0x6184>
    1e44:	0400755f 	streq	r7, [r0], #-1375	; 0x55f
    1e48:	24017901 	strcs	r7, [r1], #-2305	; 0x901
    1e4c:	2b00000d 	blcs	1e88 <_start-0x6178>
    1e50:	79010073 	stmdbvc	r1, {r0, r1, r4, r5, r6}
    1e54:	0009c301 	andeq	ip, r9, r1, lsl #6
    1e58:	00752b00 	rsbseq	r2, r5, r0, lsl #22
    1e5c:	2c017901 	stccs	9, cr7, [r1], {1}
    1e60:	00000000 	andeq	r0, r0, r0
    1e64:	0100782c 	tsteq	r0, ip, lsr #16
    1e68:	0d030179 	stfeqs	f0, [r3, #-484]	; 0xfffffe1c
    1e6c:	652c0000 	strvs	r0, [ip, #-0]!
    1e70:	01007078 	tsteq	r0, r8, ror r0
    1e74:	002c0179 	eoreq	r0, ip, r9, ror r1
    1e78:	3c2d0000 	stccc	0, cr0, [sp], #-0
    1e7c:	01000008 	tsteq	r0, r8
    1e80:	002c0179 	eoreq	r0, ip, r9, ror r1
    1e84:	042d0000 	strteq	r0, [sp], #-0
    1e88:	01000009 	tsteq	r0, r9
    1e8c:	002c0179 	eoreq	r0, ip, r9, ror r1
    1e90:	29000000 	stmdbcs	r0, {}	; <UNPREDICTABLE>
    1e94:	00000da8 	andeq	r0, r0, r8, lsr #27
    1e98:	00755f2a 	rsbseq	r5, r5, sl, lsr #30
    1e9c:	017a0104 	cmneq	sl, r4, lsl #2
    1ea0:	00000d79 	andeq	r0, r0, r9, ror sp
    1ea4:	0100732b 	tsteq	r0, fp, lsr #6
    1ea8:	09c3017a 	stmibeq	r3, {r1, r3, r4, r5, r6, r8}^
    1eac:	752b0000 	strvc	r0, [fp, #-0]!
    1eb0:	017a0100 	cmneq	sl, r0, lsl #2
    1eb4:	0000002c 	andeq	r0, r0, ip, lsr #32
    1eb8:	00782c00 	rsbseq	r2, r8, r0, lsl #24
    1ebc:	58017a01 	stmdapl	r1, {r0, r9, fp, ip, sp, lr}
    1ec0:	2c00000d 	stccs	0, cr0, [r0], {13}
    1ec4:	00707865 	rsbseq	r7, r0, r5, ror #16
    1ec8:	2c017a01 	stccs	10, cr7, [r1], {1}
    1ecc:	2d000000 	stccs	0, cr0, [r0, #-0]
    1ed0:	0000083c 	andeq	r0, r0, ip, lsr r8
    1ed4:	2c017a01 	stccs	10, cr7, [r1], {1}
    1ed8:	2d000000 	stccs	0, cr0, [r0, #-0]
    1edc:	00000904 	andeq	r0, r0, r4, lsl #18
    1ee0:	2c017a01 	stccs	10, cr7, [r1], {1}
    1ee4:	00000000 	andeq	r0, r0, r0
    1ee8:	000dfd29 	andeq	pc, sp, r9, lsr #26
    1eec:	755f2a00 	ldrbvc	r2, [pc, #-2560]	; 14f4 <_start-0x6b0c>
    1ef0:	7d010400 	cfstrsvc	mvf0, [r1, #-0]
    1ef4:	000dce01 	andeq	ip, sp, r1, lsl #28
    1ef8:	00732b00 	rsbseq	r2, r3, r0, lsl #22
    1efc:	80017d01 	andhi	r7, r1, r1, lsl #26
    1f00:	2b00000a 	blcs	1f30 <_start-0x60d0>
    1f04:	7d010075 	stcvc	0, cr0, [r1, #-468]	; 0xfffffe2c
    1f08:	00002c01 	andeq	r2, r0, r1, lsl #24
    1f0c:	782c0000 	stmdavc	ip!, {}	; <UNPREDICTABLE>
    1f10:	017d0100 	cmneq	sp, r0, lsl #2
    1f14:	00000dad 	andeq	r0, r0, sp, lsr #27
    1f18:	7078652c 	rsbsvc	r6, r8, ip, lsr #10
    1f1c:	017d0100 	cmneq	sp, r0, lsl #2
    1f20:	0000002c 	andeq	r0, r0, ip, lsr #32
    1f24:	00083c2d 	andeq	r3, r8, sp, lsr #24
    1f28:	017d0100 	cmneq	sp, r0, lsl #2
    1f2c:	0000002c 	andeq	r0, r0, ip, lsr #32
    1f30:	0009042d 	andeq	r0, r9, sp, lsr #8
    1f34:	017d0100 	cmneq	sp, r0, lsl #2
    1f38:	0000002c 	andeq	r0, r0, ip, lsr #32
    1f3c:	0e522900 	cdpeq	9, 5, cr2, cr2, cr0, {0}
    1f40:	5f2a0000 	svcpl	0x002a0000
    1f44:	01040075 	tsteq	r4, r5, ror r0
    1f48:	0e23017e 	mcreq	1, 1, r0, cr3, cr14, {3}
    1f4c:	732b0000 	teqvc	fp, #0
    1f50:	017e0100 	cmneq	lr, r0, lsl #2
    1f54:	00000a80 	andeq	r0, r0, r0, lsl #21
    1f58:	0100752b 	tsteq	r0, fp, lsr #10
    1f5c:	002c017e 	eoreq	r0, ip, lr, ror r1
    1f60:	2c000000 	stccs	0, cr0, [r0], {-0}
    1f64:	7e010078 	mcrvc	0, 0, r0, cr1, cr8, {3}
    1f68:	000e0201 	andeq	r0, lr, r1, lsl #4
    1f6c:	78652c00 	stmdavc	r5!, {sl, fp, sp}^
    1f70:	7e010070 	mcrvc	0, 0, r0, cr1, cr0, {3}
    1f74:	00002c01 	andeq	r2, r0, r1, lsl #24
    1f78:	083c2d00 	ldmdaeq	ip!, {r8, sl, fp, sp}
    1f7c:	7e010000 	cdpvc	0, 0, cr0, cr1, cr0, {0}
    1f80:	00002c01 	andeq	r2, r0, r1, lsl #24
    1f84:	09042d00 	stmdbeq	r4, {r8, sl, fp, sp}
    1f88:	7e010000 	cdpvc	0, 0, cr0, cr1, cr0, {0}
    1f8c:	00002c01 	andeq	r2, r0, r1, lsl #24
    1f90:	a7290000 	strge	r0, [r9, -r0]!
    1f94:	2a00000e 	bcs	1fd4 <_start-0x602c>
    1f98:	0400755f 	streq	r7, [r0], #-1375	; 0x55f
    1f9c:	78017f01 	stmdavc	r1, {r0, r8, r9, sl, fp, ip, sp, lr}
    1fa0:	2b00000e 	blcs	1fe0 <_start-0x6020>
    1fa4:	7f010073 	svcvc	0x00010073
    1fa8:	000a8001 	andeq	r8, sl, r1
    1fac:	00752b00 	rsbseq	r2, r5, r0, lsl #22
    1fb0:	2c017f01 	stccs	15, cr7, [r1], {1}
    1fb4:	00000000 	andeq	r0, r0, r0
    1fb8:	0100782c 	tsteq	r0, ip, lsr #16
    1fbc:	0e57017f 	mrceq	1, 2, r0, cr7, cr15, {3}
    1fc0:	652c0000 	strvs	r0, [ip, #-0]!
    1fc4:	01007078 	tsteq	r0, r8, ror r0
    1fc8:	002c017f 	eoreq	r0, ip, pc, ror r1
    1fcc:	3c2d0000 	stccc	0, cr0, [sp], #-0
    1fd0:	01000008 	tsteq	r0, r8
    1fd4:	002c017f 	eoreq	r0, ip, pc, ror r1
    1fd8:	042d0000 	strteq	r0, [sp], #-0
    1fdc:	01000009 	tsteq	r0, r9
    1fe0:	002c017f 	eoreq	r0, ip, pc, ror r1
    1fe4:	29000000 	stmdbcs	r0, {}	; <UNPREDICTABLE>
    1fe8:	00000efc 	strdeq	r0, [r0], -ip
    1fec:	00755f2a 	rsbseq	r5, r5, sl, lsr #30
    1ff0:	01800104 	orreq	r0, r0, r4, lsl #2
    1ff4:	00000ecd 	andeq	r0, r0, sp, asr #29
    1ff8:	0100732b 	tsteq	r0, fp, lsr #6
    1ffc:	0a800180 	beq	fe002604 <__bss_end__+0xfdff80a4>
    2000:	752b0000 	strvc	r0, [fp, #-0]!
    2004:	01800100 	orreq	r0, r0, r0, lsl #2
    2008:	0000002c 	andeq	r0, r0, ip, lsr #32
    200c:	00782c00 	rsbseq	r2, r8, r0, lsl #24
    2010:	ac018001 	stcge	0, cr8, [r1], {1}
    2014:	2c00000e 	stccs	0, cr0, [r0], {14}
    2018:	00707865 	rsbseq	r7, r0, r5, ror #16
    201c:	2c018001 	stccs	0, cr8, [r1], {1}
    2020:	2d000000 	stccs	0, cr0, [r0, #-0]
    2024:	0000083c 	andeq	r0, r0, ip, lsr r8
    2028:	2c018001 	stccs	0, cr8, [r1], {1}
    202c:	2d000000 	stccs	0, cr0, [r0, #-0]
    2030:	00000904 	andeq	r0, r0, r4, lsl #18
    2034:	2c018001 	stccs	0, cr8, [r1], {1}
    2038:	00000000 	andeq	r0, r0, r0
    203c:	000f5129 	andeq	r5, pc, r9, lsr #2
    2040:	755f2a00 	ldrbvc	r2, [pc, #-2560]	; 1648 <_start-0x69b8>
    2044:	81010400 	tsthi	r1, r0, lsl #8
    2048:	000f2201 	andeq	r2, pc, r1, lsl #4
    204c:	00732b00 	rsbseq	r2, r3, r0, lsl #22
    2050:	80018101 	andhi	r8, r1, r1, lsl #2
    2054:	2b00000a 	blcs	2084 <_start-0x5f7c>
    2058:	81010075 	tsthi	r1, r5, ror r0
    205c:	00002c01 	andeq	r2, r0, r1, lsl #24
    2060:	782c0000 	stmdavc	ip!, {}	; <UNPREDICTABLE>
    2064:	01810100 	orreq	r0, r1, r0, lsl #2
    2068:	00000f01 	andeq	r0, r0, r1, lsl #30
    206c:	7078652c 	rsbsvc	r6, r8, ip, lsr #10
    2070:	01810100 	orreq	r0, r1, r0, lsl #2
    2074:	0000002c 	andeq	r0, r0, ip, lsr #32
    2078:	00083c2d 	andeq	r3, r8, sp, lsr #24
    207c:	01810100 	orreq	r0, r1, r0, lsl #2
    2080:	0000002c 	andeq	r0, r0, ip, lsr #32
    2084:	0009042d 	andeq	r0, r9, sp, lsr #8
    2088:	01810100 	orreq	r0, r1, r0, lsl #2
    208c:	0000002c 	andeq	r0, r0, ip, lsr #32
    2090:	0fa62900 	svceq	0x00a62900
    2094:	5f2a0000 	svcpl	0x002a0000
    2098:	01040075 	tsteq	r4, r5, ror r0
    209c:	0f770182 	svceq	0x00770182
    20a0:	732b0000 	teqvc	fp, #0
    20a4:	01820100 	orreq	r0, r2, r0, lsl #2
    20a8:	00000a80 	andeq	r0, r0, r0, lsl #21
    20ac:	0100752b 	tsteq	r0, fp, lsr #10
    20b0:	002c0182 	eoreq	r0, ip, r2, lsl #3
    20b4:	2c000000 	stccs	0, cr0, [r0], {-0}
    20b8:	82010078 	andhi	r0, r1, #120	; 0x78
    20bc:	000f5601 	andeq	r5, pc, r1, lsl #12
    20c0:	78652c00 	stmdavc	r5!, {sl, fp, sp}^
    20c4:	82010070 	andhi	r0, r1, #112	; 0x70
    20c8:	00002c01 	andeq	r2, r0, r1, lsl #24
    20cc:	083c2d00 	ldmdaeq	ip!, {r8, sl, fp, sp}
    20d0:	82010000 	andhi	r0, r1, #0
    20d4:	00002c01 	andeq	r2, r0, r1, lsl #24
    20d8:	09042d00 	stmdbeq	r4, {r8, sl, fp, sp}
    20dc:	82010000 	andhi	r0, r1, #0
    20e0:	00002c01 	andeq	r2, r0, r1, lsl #24
    20e4:	fb290000 	blx	a420ee <__bss_end__+0xa37b8e>
    20e8:	2a00000f 	bcs	212c <_start-0x5ed4>
    20ec:	0400755f 	streq	r7, [r0], #-1375	; 0x55f
    20f0:	cc018301 	stcgt	3, cr8, [r1], {1}
    20f4:	2b00000f 	blcs	2138 <_start-0x5ec8>
    20f8:	83010073 	movwhi	r0, #4211	; 0x1073
    20fc:	000a8001 	andeq	r8, sl, r1
    2100:	00752b00 	rsbseq	r2, r5, r0, lsl #22
    2104:	2c018301 	stccs	3, cr8, [r1], {1}
    2108:	00000000 	andeq	r0, r0, r0
    210c:	0100782c 	tsteq	r0, ip, lsr #16
    2110:	0fab0183 	svceq	0x00ab0183
    2114:	652c0000 	strvs	r0, [ip, #-0]!
    2118:	01007078 	tsteq	r0, r8, ror r0
    211c:	002c0183 	eoreq	r0, ip, r3, lsl #3
    2120:	3c2d0000 	stccc	0, cr0, [sp], #-0
    2124:	01000008 	tsteq	r0, r8
    2128:	002c0183 	eoreq	r0, ip, r3, lsl #3
    212c:	042d0000 	strteq	r0, [sp], #-0
    2130:	01000009 	tsteq	r0, r9
    2134:	002c0183 	eoreq	r0, ip, r3, lsl #3
    2138:	29000000 	stmdbcs	r0, {}	; <UNPREDICTABLE>
    213c:	00001050 	andeq	r1, r0, r0, asr r0
    2140:	00755f2a 	rsbseq	r5, r5, sl, lsr #30
    2144:	01840104 	orreq	r0, r4, r4, lsl #2
    2148:	00001021 	andeq	r1, r0, r1, lsr #32
    214c:	0100732b 	tsteq	r0, fp, lsr #6
    2150:	0a800184 	beq	fe002768 <__bss_end__+0xfdff8208>
    2154:	752b0000 	strvc	r0, [fp, #-0]!
    2158:	01840100 	orreq	r0, r4, r0, lsl #2
    215c:	0000002c 	andeq	r0, r0, ip, lsr #32
    2160:	00782c00 	rsbseq	r2, r8, r0, lsl #24
    2164:	00018401 	andeq	r8, r1, r1, lsl #8
    2168:	2c000010 	stccs	0, cr0, [r0], {16}
    216c:	00707865 	rsbseq	r7, r0, r5, ror #16
    2170:	2c018401 	cfstrscs	mvf8, [r1], {1}
    2174:	2d000000 	stccs	0, cr0, [r0, #-0]
    2178:	0000083c 	andeq	r0, r0, ip, lsr r8
    217c:	2c018401 	cfstrscs	mvf8, [r1], {1}
    2180:	2d000000 	stccs	0, cr0, [r0, #-0]
    2184:	00000904 	andeq	r0, r0, r4, lsl #18
    2188:	2c018401 	cfstrscs	mvf8, [r1], {1}
    218c:	00000000 	andeq	r0, r0, r0
    2190:	0010a529 	andseq	sl, r0, r9, lsr #10
    2194:	755f2a00 	ldrbvc	r2, [pc, #-2560]	; 179c <_start-0x6864>
    2198:	85010400 	strhi	r0, [r1, #-1024]	; 0x400
    219c:	00107601 	andseq	r7, r0, r1, lsl #12
    21a0:	00732b00 	rsbseq	r2, r3, r0, lsl #22
    21a4:	80018501 	andhi	r8, r1, r1, lsl #10
    21a8:	2b00000a 	blcs	21d8 <_start-0x5e28>
    21ac:	85010075 	strhi	r0, [r1, #-117]	; 0x75
    21b0:	00002c01 	andeq	r2, r0, r1, lsl #24
    21b4:	782c0000 	stmdavc	ip!, {}	; <UNPREDICTABLE>
    21b8:	01850100 	orreq	r0, r5, r0, lsl #2
    21bc:	00001055 	andeq	r1, r0, r5, asr r0
    21c0:	7078652c 	rsbsvc	r6, r8, ip, lsr #10
    21c4:	01850100 	orreq	r0, r5, r0, lsl #2
    21c8:	0000002c 	andeq	r0, r0, ip, lsr #32
    21cc:	00083c2d 	andeq	r3, r8, sp, lsr #24
    21d0:	01850100 	orreq	r0, r5, r0, lsl #2
    21d4:	0000002c 	andeq	r0, r0, ip, lsr #32
    21d8:	0009042d 	andeq	r0, r9, sp, lsr #8
    21dc:	01850100 	orreq	r0, r5, r0, lsl #2
    21e0:	0000002c 	andeq	r0, r0, ip, lsr #32
    21e4:	87582e00 	ldrbhi	r2, [r8, -r0, lsl #28]
    21e8:	00040000 	andeq	r0, r4, r0
    21ec:	5f2a0000 	svcpl	0x002a0000
    21f0:	01040075 	tsteq	r4, r5, ror r0
    21f4:	10cf0186 	sbcne	r0, pc, r6, lsl #3
    21f8:	732b0000 	teqvc	fp, #0
    21fc:	01860100 	orreq	r0, r6, r0, lsl #2
    2200:	00000a80 	andeq	r0, r0, r0, lsl #21
    2204:	0100752b 	tsteq	r0, fp, lsr #10
    2208:	002c0186 	eoreq	r0, ip, r6, lsl #3
    220c:	2c000000 	stccs	0, cr0, [r0], {-0}
    2210:	86010078 			; <UNDEFINED> instruction: 0x86010078
    2214:	0010ae01 	andseq	sl, r0, r1, lsl #28
    2218:	78652f00 	stmdavc	r5!, {r8, r9, sl, fp, sp}^
    221c:	86010070 			; <UNDEFINED> instruction: 0x86010070
    2220:	00002c01 	andeq	r2, r0, r1, lsl #24
    2224:	2d020000 	stccs	0, cr0, [r2, #-0]
    2228:	0000083c 	andeq	r0, r0, ip, lsr r8
    222c:	2c018601 	stccs	6, cr8, [r1], {1}
    2230:	2d000000 	stccs	0, cr0, [r0, #-0]
    2234:	00000904 	andeq	r0, r0, r4, lsl #18
    2238:	2c018601 	stccs	6, cr8, [r1], {1}
    223c:	00000000 	andeq	r0, r0, r0
    2240:	012f0900 	teqeq	pc, r0, lsl #18
    2244:	11110000 	tstne	r1, r0
    2248:	e20a0000 	and	r0, sl, #0
    224c:	0c000000 	stceq	0, cr0, [r0], {-0}
    2250:	11010400 	tstne	r1, r0, lsl #8
    2254:	b0300000 	eorslt	r0, r0, r0
    2258:	01000001 	tsteq	r0, r1
    225c:	8bf0014b 	blhi	ffc02790 <__bss_end__+0xffbf8230>
    2260:	00940000 	addseq	r0, r4, r0
    2264:	9c010000 	stcls	0, cr0, [r1], {-0}
    2268:	00001287 	andeq	r1, r0, r7, lsl #5
    226c:	41445331 	cmpmi	r4, r1, lsr r3
    2270:	01500100 	cmpeq	r0, r0, lsl #2
    2274:	00000033 	andeq	r0, r0, r3, lsr r0
    2278:	43533102 	cmpmi	r3, #-2147483648	; 0x80000000
    227c:	5101004c 	tstpl	r1, ip, asr #32
    2280:	00003301 	andeq	r3, r0, r1, lsl #6
    2284:	632c0300 	teqvs	ip, #0, 6
    2288:	01590100 	cmpeq	r9, r0, lsl #2
    228c:	000009c3 	andeq	r0, r0, r3, asr #19
    2290:	0002cf28 	andeq	ip, r2, r8, lsr #30
    2294:	00129700 	andseq	r9, r2, r0, lsl #14
    2298:	48030500 	stmdami	r3, {r8, sl}
    229c:	2900009e 	stmdbcs	r0, {r1, r2, r3, r4, r7}
    22a0:	00001190 	muleq	r0, r0, r1
    22a4:	00755f2a 	rsbseq	r5, r5, sl, lsr #30
    22a8:	01590104 	cmpeq	r9, r4, lsl #2
    22ac:	00001185 	andeq	r1, r0, r5, lsl #3
    22b0:	0100762b 	tsteq	r0, fp, lsr #12
    22b4:	09c30159 	stmibeq	r3, {r0, r3, r4, r6, r8}^
    22b8:	752b0000 	strvc	r0, [fp, #-0]!
    22bc:	01590100 	cmpeq	r9, r0, lsl #2
    22c0:	0000002c 	andeq	r0, r0, ip, lsr #32
    22c4:	00752c00 	rsbseq	r2, r5, r0, lsl #24
    22c8:	64015901 	strvs	r5, [r1], #-2305	; 0x901
    22cc:	00000011 	andeq	r0, r0, r1, lsl r0
    22d0:	0011c329 	andseq	ip, r1, r9, lsr #6
    22d4:	755f2a00 	ldrbvc	r2, [pc, #-2560]	; 18dc <_start-0x6724>
    22d8:	5b010400 	blpl	432e0 <__bss_end__+0x38d80>
    22dc:	0011b801 	andseq	fp, r1, r1, lsl #16
    22e0:	76762b00 	ldrbtvc	r2, [r6], -r0, lsl #22
    22e4:	015b0100 	cmpeq	fp, r0, lsl #2
    22e8:	000009c3 	andeq	r0, r0, r3, asr #19
    22ec:	0075752b 	rsbseq	r7, r5, fp, lsr #10
    22f0:	6d015b01 	vstrvs	d5, [r1, #-4]
    22f4:	00000000 	andeq	r0, r0, r0
    22f8:	0100752c 	tsteq	r0, ip, lsr #10
    22fc:	1195015b 	orrsne	r0, r5, fp, asr r1
    2300:	32000000 	andcc	r0, r0, #0
    2304:	00008bf8 	strdeq	r8, [r0], -r8	; <UNPREDICTABLE>
    2308:	00000b30 	andeq	r0, r0, r0, lsr fp
    230c:	008bfc32 	addeq	pc, fp, r2, lsr ip	; <UNPREDICTABLE>
    2310:	001b1400 	andseq	r1, fp, r0, lsl #8
    2314:	8c083300 	stchi	3, cr3, [r8], {-0}
    2318:	1b1f0000 	blne	7c2320 <__bss_end__+0x7b7dc0>
    231c:	11ed0000 	mvnne	r0, r0
    2320:	01340000 	teqeq	r4, r0
    2324:	34320150 	ldrtcc	r0, [r2], #-336	; 0x150
    2328:	34015101 	strcc	r5, [r1], #-257	; 0x101
    232c:	8c143300 	ldchi	3, cr3, [r4], {-0}
    2330:	1b1f0000 	blne	7c2338 <__bss_end__+0x7b7dd8>
    2334:	12050000 	andne	r0, r5, #0
    2338:	01340000 	teqeq	r4, r0
    233c:	34330150 	ldrtcc	r0, [r3], #-336	; 0x150
    2340:	34015101 	strcc	r5, [r1], #-257	; 0x101
    2344:	8c183200 	lfmhi	f3, 4, [r8], {-0}
    2348:	1b140000 	blne	502350 <__bss_end__+0x4f7df0>
    234c:	28330000 	ldmdacs	r3!, {}	; <UNPREDICTABLE>
    2350:	2a00008c 	bcs	2588 <_start-0x5a78>
    2354:	2900001b 	stmdbcs	r0, {r0, r1, r3, r4}
    2358:	34000012 	strcc	r0, [r0], #-18
    235c:	74025001 	strvc	r5, [r2], #-1
    2360:	51013400 	tstpl	r1, r0, lsl #8
    2364:	80000a03 	andhi	r0, r0, r3, lsl #20
    2368:	8c2c3200 	sfmhi	f3, 4, [ip], #-0
    236c:	1b140000 	blne	502374 <__bss_end__+0x4f7e14>
    2370:	30320000 	eorscc	r0, r2, r0
    2374:	5800008c 	stmdapl	r0, {r2, r3, r7}
    2378:	32000019 	andcc	r0, r0, #25
    237c:	00008c34 	andeq	r8, r0, r4, lsr ip
    2380:	00001b14 	andeq	r1, r0, r4, lsl fp
    2384:	008c5432 	addeq	r5, ip, r2, lsr r4
    2388:	001b3500 	andseq	r3, fp, r0, lsl #10
    238c:	8c683300 	stclhi	3, cr3, [r8], #-0
    2390:	1b400000 	blne	1002398 <__bss_end__+0xff7e38>
    2394:	127d0000 	rsbsne	r0, sp, #0
    2398:	01340000 	teqeq	r4, r0
    239c:	a0030550 	andge	r0, r3, r0, asr r5
    23a0:	3400009f 	strcc	r0, [r0], #-159	; 0x9f
    23a4:	03055101 	movweq	r5, #20737	; 0x5101
    23a8:	00009e54 	andeq	r9, r0, r4, asr lr
    23ac:	05520134 	ldrbeq	r0, [r2, #-308]	; 0x134
    23b0:	009e4803 	addseq	r4, lr, r3, lsl #16
    23b4:	53013400 	movwpl	r3, #5120	; 0x1400
    23b8:	01620a03 	cmneq	r2, r3, lsl #20
    23bc:	8c6c3200 	sfmhi	f3, 2, [ip], #-0
    23c0:	1b4b0000 	blne	12c23c8 <__bss_end__+0x12b7e68>
    23c4:	09000000 	stmdbeq	r0, {}	; <UNPREDICTABLE>
    23c8:	0000012f 	andeq	r0, r0, pc, lsr #2
    23cc:	00001297 	muleq	r0, r7, r2
    23d0:	0000e20a 	andeq	lr, r0, sl, lsl #4
    23d4:	04000800 	streq	r0, [r0], #-2048	; 0x800
    23d8:	00001287 	andeq	r1, r0, r7, lsl #5
    23dc:	00094530 	andeq	r4, r9, r0, lsr r5
    23e0:	01440100 	mrseq	r0, (UNDEF: 84)
    23e4:	00008c84 	andeq	r8, r0, r4, lsl #25
    23e8:	00000018 	andeq	r0, r0, r8, lsl r0
    23ec:	12c59c01 	sbcne	r9, r5, #256	; 0x100
    23f0:	8c320000 	ldchi	0, cr0, [r2], #-0
    23f4:	c500008c 	strgt	r0, [r0, #-140]	; 0x8c
    23f8:	32000012 	andcc	r0, r0, #18
    23fc:	00008c98 	muleq	r0, r8, ip
    2400:	00001116 	andeq	r1, r0, r6, lsl r1
    2404:	074b3500 	strbeq	r3, [fp, -r0, lsl #10]
    2408:	41010000 	mrsmi	r0, (UNDEF: 1)
    240c:	00002501 	andeq	r2, r0, r1, lsl #10
    2410:	008be000 	addeq	lr, fp, r0
    2414:	00001000 	andeq	r1, r0, r0
    2418:	369c0100 	ldrcc	r0, [ip], r0, lsl #2
    241c:	0000058e 	andeq	r0, r0, lr, lsl #11
    2420:	25012e01 	strcs	r2, [r1, #-3585]	; 0xe01
    2424:	20000000 	andcs	r0, r0, r0
    2428:	c000008b 	andgt	r0, r0, fp, lsl #1
    242c:	01000000 	mrseq	r0, (UNDEF: 0)
    2430:	0013fe9c 	mulseq	r3, ip, lr
    2434:	05813700 	streq	r3, [r1, #1792]	; 0x700
    2438:	2e010000 	cdpcs	0, 0, cr0, cr1, cr0, {0}
    243c:	00002c01 	andeq	r2, r0, r1, lsl #24
    2440:	00076000 	andeq	r6, r7, r0
    2444:	04b83700 	ldrteq	r3, [r8], #1792	; 0x700
    2448:	2e010000 	cdpcs	0, 0, cr0, cr1, cr0, {0}
    244c:	0013fe01 	andseq	pc, r3, r1, lsl #28
    2450:	00078100 	andeq	r8, r7, r0, lsl #2
    2454:	09ee3700 	stmibeq	lr!, {r8, r9, sl, ip, sp}^
    2458:	2e010000 	cdpcs	0, 0, cr0, cr1, cr0, {0}
    245c:	00002c01 	andeq	r2, r0, r1, lsl #24
    2460:	00079f00 	andeq	r9, r7, r0, lsl #30
    2464:	02cf2800 	sbceq	r2, pc, #0, 16
    2468:	12970000 	addsne	r0, r7, #0
    246c:	03050000 	movweq	r0, #20480	; 0x5000
    2470:	00009e3c 	andeq	r9, r0, ip, lsr lr
    2474:	008b3838 	addeq	r3, fp, r8, lsr r8
    2478:	00008800 	andeq	r8, r0, r0, lsl #16
    247c:	0013d400 	andseq	sp, r3, r0, lsl #8
    2480:	00693900 	rsbeq	r3, r9, r0, lsl #18
    2484:	2c013201 	sfmcs	f3, 4, [r1], {1}
    2488:	bd000000 	stclt	0, cr0, [r0, #-0]
    248c:	32000007 	andcc	r0, r0, #7
    2490:	00008b44 	andeq	r8, r0, r4, asr #22
    2494:	00001b35 	andeq	r1, r0, r5, lsr fp
    2498:	008b5833 	addeq	r5, fp, r3, lsr r8
    249c:	001b4000 	andseq	r4, fp, r0
    24a0:	00138800 	andseq	r8, r3, r0, lsl #16
    24a4:	50013400 	andpl	r3, r1, r0, lsl #8
    24a8:	9f4c0305 	svcls	0x004c0305
    24ac:	01340000 	teqeq	r4, r0
    24b0:	54030551 	strpl	r0, [r3], #-1361	; 0x551
    24b4:	3400009e 	strcc	r0, [r0], #-158	; 0x9e
    24b8:	03055201 	movweq	r5, #20993	; 0x5201
    24bc:	00009e3c 	andeq	r9, r0, ip, lsr lr
    24c0:	03530134 	cmpeq	r3, #52, 2
    24c4:	0001340a 	andeq	r3, r1, sl, lsl #8
    24c8:	008b5c32 	addeq	r5, fp, r2, lsr ip
    24cc:	001b4b00 	andseq	r4, fp, r0, lsl #22
    24d0:	8ba83200 	blhi	fea0ecd8 <__bss_end__+0xfea04778>
    24d4:	1b350000 	blne	d424dc <__bss_end__+0xd37f7c>
    24d8:	bc330000 	ldclt	0, cr0, [r3], #-0
    24dc:	4000008b 	andmi	r0, r0, fp, lsl #1
    24e0:	ca00001b 	bgt	2554 <_start-0x5aac>
    24e4:	34000013 	strcc	r0, [r0], #-19
    24e8:	03055001 	movweq	r5, #20481	; 0x5001
    24ec:	00009f70 	andeq	r9, r0, r0, ror pc
    24f0:	05510134 	ldrbeq	r0, [r1, #-308]	; 0x134
    24f4:	009e5403 	addseq	r5, lr, r3, lsl #8
    24f8:	52013400 	andpl	r3, r1, #0, 8
    24fc:	9e3c0305 	cdpls	3, 3, cr0, cr12, cr5, {0}
    2500:	01340000 	teqeq	r4, r0
    2504:	340a0353 	strcc	r0, [sl], #-851	; 0x353
    2508:	c0320001 	eorsgt	r0, r2, r1
    250c:	4b00008b 	blmi	2740 <_start-0x58c0>
    2510:	0000001b 	andeq	r0, r0, fp, lsl r0
    2514:	008b3833 	addeq	r3, fp, r3, lsr r8
    2518:	00167300 	andseq	r7, r6, r0, lsl #6
    251c:	0013f400 	andseq	pc, r3, r0, lsl #8
    2520:	50013400 	andpl	r3, r1, r0, lsl #8
    2524:	5001f303 	andpl	pc, r1, r3, lsl #6
    2528:	02510134 	subseq	r0, r1, #52, 2
    252c:	01340074 	teqeq	r4, r4, ror r0
    2530:	00310152 	eorseq	r0, r1, r2, asr r1
    2534:	008bc432 	addeq	ip, fp, r2, lsr r4
    2538:	00153c00 	andseq	r3, r5, r0, lsl #24
    253c:	040e0000 	streq	r0, [lr], #-0
    2540:	00000054 	andeq	r0, r0, r4, asr r0
    2544:	00029436 	andeq	r9, r2, r6, lsr r4
    2548:	011e0100 	tsteq	lr, r0, lsl #2
    254c:	00000025 	andeq	r0, r0, r5, lsr #32
    2550:	00008a5c 	andeq	r8, r0, ip, asr sl
    2554:	000000c4 	andeq	r0, r0, r4, asr #1
    2558:	15279c01 	strne	r9, [r7, #-3073]!	; 0xc01
    255c:	81370000 	teqhi	r7, r0
    2560:	01000005 	tsteq	r0, r5
    2564:	002c011e 	eoreq	r0, ip, lr, lsl r1
    2568:	07f20000 	ldrbeq	r0, [r2, r0]!
    256c:	b8370000 	ldmdalt	r7!, {}	; <UNPREDICTABLE>
    2570:	01000004 	tsteq	r0, r4
    2574:	13fe011e 	mvnsne	r0, #-2147483641	; 0x80000007
    2578:	08130000 	ldmdaeq	r3, {}	; <UNPREDICTABLE>
    257c:	ee370000 	cdp	0, 3, cr0, cr7, cr0, {0}
    2580:	01000009 	tsteq	r0, r9
    2584:	002c011e 	eoreq	r0, ip, lr, lsl r1
    2588:	08310000 	ldmdaeq	r1!, {}	; <UNPREDICTABLE>
    258c:	cf280000 	svcgt	0x00280000
    2590:	37000002 	strcc	r0, [r0, -r2]
    2594:	05000015 	streq	r0, [r0, #-21]
    2598:	009e3003 	addseq	r3, lr, r3
    259c:	8a743800 	bhi	1d105a4 <__bss_end__+0x1d06044>
    25a0:	00880000 	addeq	r0, r8, r0
    25a4:	14fd0000 	ldrbtne	r0, [sp], #0
    25a8:	69390000 	ldmdbvs	r9!, {}	; <UNPREDICTABLE>
    25ac:	01210100 	teqeq	r1, r0, lsl #2
    25b0:	0000002c 	andeq	r0, r0, ip, lsr #32
    25b4:	0000084f 	andeq	r0, r0, pc, asr #16
    25b8:	008a8032 	addeq	r8, sl, r2, lsr r0
    25bc:	001b3500 	andseq	r3, fp, r0, lsl #10
    25c0:	8a943300 	bhi	fe50f1c8 <__bss_end__+0xfe504c68>
    25c4:	1b400000 	blne	10025cc <__bss_end__+0xff806c>
    25c8:	14b10000 	ldrtne	r0, [r1], #0
    25cc:	01340000 	teqeq	r4, r0
    25d0:	4c030550 	cfstr32mi	mvfx0, [r3], {80}	; 0x50
    25d4:	3400009f 	strcc	r0, [r0], #-159	; 0x9f
    25d8:	03055101 	movweq	r5, #20737	; 0x5101
    25dc:	00009e54 	andeq	r9, r0, r4, asr lr
    25e0:	05520134 	ldrbeq	r0, [r2, #-308]	; 0x134
    25e4:	009e3003 	addseq	r3, lr, r3
    25e8:	53013400 	movwpl	r3, #5120	; 0x1400
    25ec:	01230a03 	teqeq	r3, r3, lsl #20
    25f0:	8a983200 	bhi	fe60edf8 <__bss_end__+0xfe604898>
    25f4:	1b4b0000 	blne	12c25fc <__bss_end__+0x12b809c>
    25f8:	e4320000 	ldrt	r0, [r2], #-0
    25fc:	3500008a 	strcc	r0, [r0, #-138]	; 0x8a
    2600:	3300001b 	movwcc	r0, #27
    2604:	00008af8 	strdeq	r8, [r0], -r8	; <UNPREDICTABLE>
    2608:	00001b40 	andeq	r1, r0, r0, asr #22
    260c:	000014f3 	strdeq	r1, [r0], -r3
    2610:	05500134 	ldrbeq	r0, [r0, #-308]	; 0x134
    2614:	009f7003 	addseq	r7, pc, r3
    2618:	51013400 	tstpl	r1, r0, lsl #8
    261c:	9e540305 	cdpls	3, 5, cr0, cr4, cr5, {0}
    2620:	01340000 	teqeq	r4, r0
    2624:	30030552 	andcc	r0, r3, r2, asr r5
    2628:	3400009e 	strcc	r0, [r0], #-158	; 0x9e
    262c:	0a035301 	beq	d7238 <__bss_end__+0xcccd8>
    2630:	32000123 	andcc	r0, r0, #-1073741816	; 0xc0000008
    2634:	00008afc 	strdeq	r8, [r0], -ip
    2638:	00001b4b 	andeq	r1, r0, fp, asr #22
    263c:	8a743300 	bhi	1d0f244 <__bss_end__+0x1d04ce4>
    2640:	16730000 	ldrbtne	r0, [r3], -r0
    2644:	151d0000 	ldrne	r0, [sp, #-0]
    2648:	01340000 	teqeq	r4, r0
    264c:	01f30350 	mvnseq	r0, r0, asr r3
    2650:	51013450 	tstpl	r1, r0, asr r4
    2654:	34007402 	strcc	r7, [r0], #-1026	; 0x402
    2658:	30015201 	andcc	r5, r1, r1, lsl #4
    265c:	8b003200 	blhi	ee64 <__bss_end__+0x4904>
    2660:	153c0000 	ldrne	r0, [ip, #-0]!
    2664:	09000000 	stmdbeq	r0, {}	; <UNPREDICTABLE>
    2668:	0000012f 	andeq	r0, r0, pc, lsr #2
    266c:	00001537 	andeq	r1, r0, r7, lsr r5
    2670:	0000e20a 	andeq	lr, r0, sl, lsl #4
    2674:	04000900 	streq	r0, [r0], #-2304	; 0x900
    2678:	00001527 	andeq	r1, r0, r7, lsr #10
    267c:	000bc627 	andeq	ip, fp, r7, lsr #12
    2680:	01110100 	tsteq	r1, r0, lsl #2
    2684:	0000875c 	andeq	r8, r0, ip, asr r7
    2688:	000000f0 	strdeq	r0, [r0], -r0	; <UNPREDICTABLE>
    268c:	16739c01 	ldrbtne	r9, [r3], -r1, lsl #24
    2690:	cf280000 	svcgt	0x00280000
    2694:	97000002 	strls	r0, [r0, -r2]
    2698:	05000012 	streq	r0, [r0, #-18]
    269c:	009e1803 	addseq	r1, lr, r3, lsl #16
    26a0:	87943200 	ldrhi	r3, [r4, r0, lsl #4]
    26a4:	1b350000 	blne	d426ac <__bss_end__+0xd3814c>
    26a8:	a8330000 	ldmdage	r3!, {}	; <UNPREDICTABLE>
    26ac:	40000087 	andmi	r0, r0, r7, lsl #1
    26b0:	9a00001b 	bls	2724 <_start-0x58dc>
    26b4:	34000015 	strcc	r0, [r0], #-21
    26b8:	03055001 	movweq	r5, #20481	; 0x5001
    26bc:	00009f70 	andeq	r9, r0, r0, ror pc
    26c0:	05510134 	ldrbeq	r0, [r1, #-308]	; 0x134
    26c4:	009e5403 	addseq	r5, lr, r3, lsl #8
    26c8:	52013400 	andpl	r3, r1, #0, 8
    26cc:	9e180305 	cdpls	3, 1, cr0, cr8, cr5, {0}
    26d0:	01340000 	teqeq	r4, r0
    26d4:	130a0353 	movwne	r0, #41811	; 0xa353
    26d8:	ac320001 	ldcge	0, cr0, [r2], #-4
    26dc:	4b000087 	blmi	2900 <_start-0x5700>
    26e0:	3200001b 	andcc	r0, r0, #27
    26e4:	000087b0 			; <UNDEFINED> instruction: 0x000087b0
    26e8:	00001b35 	andeq	r1, r0, r5, lsr fp
    26ec:	0087c433 	addeq	ip, r7, r3, lsr r4
    26f0:	001b4000 	andseq	r4, fp, r0
    26f4:	0015dc00 	andseq	sp, r5, r0, lsl #24
    26f8:	50013400 	andpl	r3, r1, r0, lsl #8
    26fc:	9f4c0305 	svcls	0x004c0305
    2700:	01340000 	teqeq	r4, r0
    2704:	54030551 	strpl	r0, [r3], #-1361	; 0x551
    2708:	3400009e 	strcc	r0, [r0], #-158	; 0x9e
    270c:	03055201 	movweq	r5, #20993	; 0x5201
    2710:	00009e18 	andeq	r9, r0, r8, lsl lr
    2714:	03530134 	cmpeq	r3, #52, 2
    2718:	0001130a 	andeq	r1, r1, sl, lsl #6
    271c:	0087c832 	addeq	ip, r7, r2, lsr r8
    2720:	001b4b00 	andseq	r4, fp, r0, lsl #22
    2724:	87ec3200 	strbhi	r3, [ip, r0, lsl #4]!
    2728:	1b140000 	blne	502730 <__bss_end__+0x4f81d0>
    272c:	f4320000 			; <UNDEFINED> instruction: 0xf4320000
    2730:	35000087 	strcc	r0, [r0, #-135]	; 0x87
    2734:	3300001b 	movwcc	r0, #27
    2738:	00008808 	andeq	r8, r0, r8, lsl #16
    273c:	00001b40 	andeq	r1, r0, r0, asr #22
    2740:	00001627 	andeq	r1, r0, r7, lsr #12
    2744:	05500134 	ldrbeq	r0, [r0, #-308]	; 0x134
    2748:	009fa003 	addseq	sl, pc, r3
    274c:	51013400 	tstpl	r1, r0, lsl #8
    2750:	9e540305 	cdpls	3, 5, cr0, cr4, cr5, {0}
    2754:	01340000 	teqeq	r4, r0
    2758:	18030552 	stmdane	r3, {r1, r4, r6, r8, sl}
    275c:	3400009e 	strcc	r0, [r0], #-158	; 0x9e
    2760:	0a035301 	beq	d736c <__bss_end__+0xcce0c>
    2764:	32000116 	andcc	r0, r0, #-2147483643	; 0x80000005
    2768:	0000880c 	andeq	r8, r0, ip, lsl #16
    276c:	00001b4b 	andeq	r1, r0, fp, asr #22
    2770:	00881032 	addeq	r1, r8, r2, lsr r0
    2774:	001b3500 	andseq	r3, fp, r0, lsl #10
    2778:	88243300 	stmdahi	r4!, {r8, r9, ip, sp}
    277c:	1b400000 	blne	1002784 <__bss_end__+0xff8224>
    2780:	16690000 	strbtne	r0, [r9], -r0
    2784:	01340000 	teqeq	r4, r0
    2788:	c4030550 	strgt	r0, [r3], #-1360	; 0x550
    278c:	3400009f 	strcc	r0, [r0], #-159	; 0x9f
    2790:	03055101 	movweq	r5, #20737	; 0x5101
    2794:	00009e54 	andeq	r9, r0, r4, asr lr
    2798:	05520134 	ldrbeq	r0, [r2, #-308]	; 0x134
    279c:	009e1803 	addseq	r1, lr, r3, lsl #16
    27a0:	53013400 	movwpl	r3, #5120	; 0x1400
    27a4:	01180a03 	tsteq	r8, r3, lsl #20
    27a8:	88283200 	stmdahi	r8!, {r9, ip, sp}
    27ac:	1b4b0000 	blne	12c27b4 <__bss_end__+0x12b8254>
    27b0:	3a000000 	bcc	27b8 <_start-0x5848>
    27b4:	00000b85 	andeq	r0, r0, r5, lsl #23
    27b8:	8894ef01 	ldmhi	r4, {r0, r8, r9, sl, fp, sp, lr, pc}
    27bc:	01c80000 	biceq	r0, r8, r0
    27c0:	9c010000 	stcls	0, cr0, [r1], {-0}
    27c4:	00001943 	andeq	r1, r0, r3, asr #18
    27c8:	0005813b 	andeq	r8, r5, fp, lsr r1
    27cc:	2cef0100 	stfcse	f0, [pc]	; 27d4 <_start-0x582c>
    27d0:	84000000 	strhi	r0, [r0], #-0
    27d4:	3b000008 	blcc	27fc <_start-0x5804>
    27d8:	000009ee 	andeq	r0, r0, lr, ror #19
    27dc:	002cef01 	eoreq	lr, ip, r1, lsl #30
    27e0:	08a20000 	stmiaeq	r2!, {}	; <UNPREDICTABLE>
    27e4:	da3b0000 	ble	ec27ec <__bss_end__+0xeb828c>
    27e8:	01000008 	tsteq	r0, r8
    27ec:	000025ef 	andeq	r2, r0, pc, ror #11
    27f0:	0008e700 	andeq	lr, r8, r0, lsl #14
    27f4:	02cf2800 	sbceq	r2, pc, #0, 16
    27f8:	19530000 	ldmdbne	r3, {}^	; <UNPREDICTABLE>
    27fc:	03050000 	movweq	r0, #20480	; 0x5000
    2800:	00009e24 	andeq	r9, r0, r4, lsr #28
    2804:	01006339 	tsteq	r0, r9, lsr r3
    2808:	09c30102 	stmibeq	r3, {r1, r8}^
    280c:	09050000 	stmdbeq	r5, {}	; <UNPREDICTABLE>
    2810:	05290000 	streq	r0, [r9, #-0]!
    2814:	2a000017 	bcs	2878 <_start-0x5788>
    2818:	0400755f 	streq	r7, [r0], #-1375	; 0x55f
    281c:	fa010601 	blx	44028 <__bss_end__+0x39ac8>
    2820:	2b000016 	blcs	2880 <_start-0x5780>
    2824:	01007676 	tsteq	r0, r6, ror r6
    2828:	09c30106 	stmibeq	r3, {r1, r2, r8}^
    282c:	752b0000 	strvc	r0, [fp, #-0]!
    2830:	06010075 			; <UNDEFINED> instruction: 0x06010075
    2834:	00006d01 	andeq	r6, r0, r1, lsl #26
    2838:	752c0000 	strvc	r0, [ip, #-0]!
    283c:	01060100 	mrseq	r0, (UNDEF: 22)
    2840:	000016d7 	ldrdeq	r1, [r0], -r7
    2844:	88a83200 	stmiahi	r8!, {r9, ip, sp}
    2848:	1b140000 	blne	502850 <__bss_end__+0x4f82f0>
    284c:	dc320000 	ldcle	0, cr0, [r2], #-0
    2850:	35000088 	strcc	r0, [r0, #-136]	; 0x88
    2854:	3300001b 	movwcc	r0, #27
    2858:	000088f0 	strdeq	r8, [r0], -r0
    285c:	00001b40 	andeq	r1, r0, r0, asr #22
    2860:	00001746 	andeq	r1, r0, r6, asr #14
    2864:	05500134 	ldrbeq	r0, [r0, #-308]	; 0x134
    2868:	009f7003 	addseq	r7, pc, r3
    286c:	51013400 	tstpl	r1, r0, lsl #8
    2870:	9e540305 	cdpls	3, 5, cr0, cr4, cr5, {0}
    2874:	01340000 	teqeq	r4, r0
    2878:	24030552 	strcs	r0, [r3], #-1362	; 0x552
    287c:	3400009e 	strcc	r0, [r0], #-158	; 0x9e
    2880:	08025301 	stmdaeq	r2, {r0, r8, r9, ip, lr}
    2884:	f43200f3 			; <UNDEFINED> instruction: 0xf43200f3
    2888:	4b000088 	blmi	2ab0 <_start-0x5550>
    288c:	3200001b 	andcc	r0, r0, #27
    2890:	000088f8 	strdeq	r8, [r0], -r8	; <UNPREDICTABLE>
    2894:	00001b35 	andeq	r1, r0, r5, lsr fp
    2898:	00890c33 	addeq	r0, r9, r3, lsr ip
    289c:	001b4000 	andseq	r4, fp, r0
    28a0:	00178700 	andseq	r8, r7, r0, lsl #14
    28a4:	50013400 	andpl	r3, r1, r0, lsl #8
    28a8:	9f4c0305 	svcls	0x004c0305
    28ac:	01340000 	teqeq	r4, r0
    28b0:	54030551 	strpl	r0, [r3], #-1361	; 0x551
    28b4:	3400009e 	strcc	r0, [r0], #-158	; 0x9e
    28b8:	03055201 	movweq	r5, #20993	; 0x5201
    28bc:	00009e24 	andeq	r9, r0, r4, lsr #28
    28c0:	02530134 	subseq	r0, r3, #52, 2
    28c4:	3200f308 	andcc	pc, r0, #8, 6	; 0x20000000
    28c8:	00008910 	andeq	r8, r0, r0, lsl r9
    28cc:	00001b4b 	andeq	r1, r0, fp, asr #22
    28d0:	00892432 	addeq	r2, r9, r2, lsr r4
    28d4:	00195800 	andseq	r5, r9, r0, lsl #16
    28d8:	89383300 	ldmdbhi	r8!, {r8, r9, ip, sp}
    28dc:	1b2a0000 	blne	a828e4 <__bss_end__+0xa78384>
    28e0:	17b60000 	ldrne	r0, [r6, r0]!
    28e4:	01340000 	teqeq	r4, r0
    28e8:	0c0c0550 	cfstr32eq	mvfx0, [ip], {80}	; 0x50
    28ec:	34208040 	strtcc	r8, [r0], #-64	; 0x40
    28f0:	76025101 	strvc	r5, [r2], -r1, lsl #2
    28f4:	4c330000 	ldcmi	0, cr0, [r3], #-0
    28f8:	2a000089 	bcs	2b24 <_start-0x54dc>
    28fc:	d300001b 	movwle	r0, #27
    2900:	34000017 	strcc	r0, [r0], #-23
    2904:	0c055001 	stceq	0, cr5, [r5], {1}
    2908:	20804008 	addcs	r4, r0, r8
    290c:	02510134 	subseq	r0, r1, #52, 2
    2910:	33000075 	movwcc	r0, #117	; 0x75
    2914:	00008958 	andeq	r8, r0, r8, asr r9
    2918:	00001a71 	andeq	r1, r0, r1, ror sl
    291c:	000017e7 	andeq	r1, r0, r7, ror #15
    2920:	02500134 	subseq	r0, r0, #52, 2
    2924:	33000075 	movwcc	r0, #117	; 0x75
    2928:	00008970 	andeq	r8, r0, r0, ror r9
    292c:	00001b2a 	andeq	r1, r0, sl, lsr #22
    2930:	000017fb 	strdeq	r1, [r0], -fp
    2934:	02500134 	subseq	r0, r0, #52, 2
    2938:	32000075 	andcc	r0, r0, #117	; 0x75
    293c:	000089a4 	andeq	r8, r0, r4, lsr #19
    2940:	00001b35 	andeq	r1, r0, r5, lsr fp
    2944:	0089b833 	addeq	fp, r9, r3, lsr r8
    2948:	001b4000 	andseq	r4, fp, r0
    294c:	00183400 	andseq	r3, r8, r0, lsl #8
    2950:	50013400 	andpl	r3, r1, r0, lsl #8
    2954:	9f700305 	svcls	0x00700305
    2958:	01340000 	teqeq	r4, r0
    295c:	54030551 	strpl	r0, [r3], #-1361	; 0x551
    2960:	3400009e 	strcc	r0, [r0], #-158	; 0x9e
    2964:	03055201 	movweq	r5, #20993	; 0x5201
    2968:	00009e24 	andeq	r9, r0, r4, lsr #28
    296c:	03530134 	cmpeq	r3, #52, 2
    2970:	00010e0a 	andeq	r0, r1, sl, lsl #28
    2974:	0089bc32 	addeq	fp, r9, r2, lsr ip
    2978:	001b4b00 	andseq	r4, fp, r0, lsl #22
    297c:	89c03200 	stmibhi	r0, {r9, ip, sp}^
    2980:	1b350000 	blne	d42988 <__bss_end__+0xd38428>
    2984:	d4330000 	ldrtle	r0, [r3], #-0
    2988:	40000089 	andmi	r0, r0, r9, lsl #1
    298c:	7500001b 	strvc	r0, [r0, #-27]
    2990:	34000018 	strcc	r0, [r0], #-24
    2994:	03055001 	movweq	r5, #20481	; 0x5001
    2998:	00009fe8 	andeq	r9, r0, r8, ror #31
    299c:	05510134 	ldrbeq	r0, [r1, #-308]	; 0x134
    29a0:	009e5403 	addseq	r5, lr, r3, lsl #8
    29a4:	52013400 	andpl	r3, r1, #0, 8
    29a8:	9e240305 	cdpls	3, 2, cr0, cr4, cr5, {0}
    29ac:	01340000 	teqeq	r4, r0
    29b0:	f6080253 			; <UNDEFINED> instruction: 0xf6080253
    29b4:	89d83200 	ldmibhi	r8, {r9, ip, sp}^
    29b8:	1b4b0000 	blne	12c29c0 <__bss_end__+0x12b8460>
    29bc:	dc320000 	ldcle	0, cr0, [r2], #-0
    29c0:	35000089 	strcc	r0, [r0, #-137]	; 0x89
    29c4:	3300001b 	movwcc	r0, #27
    29c8:	000089f0 	strdeq	r8, [r0], -r0
    29cc:	00001b40 	andeq	r1, r0, r0, asr #22
    29d0:	000018b6 			; <UNDEFINED> instruction: 0x000018b6
    29d4:	05500134 	ldrbeq	r0, [r0, #-308]	; 0x134
    29d8:	00a01003 	adceq	r1, r0, r3
    29dc:	51013400 	tstpl	r1, r0, lsl #8
    29e0:	9e540305 	cdpls	3, 5, cr0, cr4, cr5, {0}
    29e4:	01340000 	teqeq	r4, r0
    29e8:	24030552 	strcs	r0, [r3], #-1362	; 0x552
    29ec:	3400009e 	strcc	r0, [r0], #-158	; 0x9e
    29f0:	08025301 	stmdaeq	r2, {r0, r8, r9, ip, lr}
    29f4:	f43200fb 			; <UNDEFINED> instruction: 0xf43200fb
    29f8:	4b000089 	blmi	2c24 <_start-0x53dc>
    29fc:	3200001b 	andcc	r0, r0, #27
    2a00:	000089f8 	strdeq	r8, [r0], -r8	; <UNPREDICTABLE>
    2a04:	00001b35 	andeq	r1, r0, r5, lsr fp
    2a08:	008a0c33 	addeq	r0, sl, r3, lsr ip
    2a0c:	001b4000 	andseq	r4, fp, r0
    2a10:	0018f700 	andseq	pc, r8, r0, lsl #14
    2a14:	50013400 	andpl	r3, r1, r0, lsl #8
    2a18:	a0340305 	eorsge	r0, r4, r5, lsl #6
    2a1c:	01340000 	teqeq	r4, r0
    2a20:	54030551 	strpl	r0, [r3], #-1361	; 0x551
    2a24:	3400009e 	strcc	r0, [r0], #-158	; 0x9e
    2a28:	03055201 	movweq	r5, #20993	; 0x5201
    2a2c:	00009e24 	andeq	r9, r0, r4, lsr #28
    2a30:	02530134 	subseq	r0, r3, #52, 2
    2a34:	3200ff08 	andcc	pc, r0, #8, 30
    2a38:	00008a10 	andeq	r8, r0, r0, lsl sl
    2a3c:	00001b4b 	andeq	r1, r0, fp, asr #22
    2a40:	008a1432 	addeq	r1, sl, r2, lsr r4
    2a44:	001b3500 	andseq	r3, fp, r0, lsl #10
    2a48:	8a283300 	bhi	a0f650 <__bss_end__+0xa050f0>
    2a4c:	1b400000 	blne	1002a54 <__bss_end__+0xff84f4>
    2a50:	19390000 	ldmdbne	r9!, {}	; <UNPREDICTABLE>
    2a54:	01340000 	teqeq	r4, r0
    2a58:	4c030550 	cfstr32mi	mvfx0, [r3], {80}	; 0x50
    2a5c:	3400009f 	strcc	r0, [r0], #-159	; 0x9f
    2a60:	03055101 	movweq	r5, #20737	; 0x5101
    2a64:	00009e54 	andeq	r9, r0, r4, asr lr
    2a68:	05520134 	ldrbeq	r0, [r2, #-308]	; 0x134
    2a6c:	009e2403 	addseq	r2, lr, r3, lsl #8
    2a70:	53013400 	movwpl	r3, #5120	; 0x1400
    2a74:	010e0a03 	tsteq	lr, r3, lsl #20
    2a78:	8a2c3200 	bhi	b0f280 <__bss_end__+0xb04d20>
    2a7c:	1b4b0000 	blne	12c2a84 <__bss_end__+0x12b8524>
    2a80:	09000000 	stmdbeq	r0, {}	; <UNPREDICTABLE>
    2a84:	0000012f 	andeq	r0, r0, pc, lsr #2
    2a88:	00001953 	andeq	r1, r0, r3, asr r9
    2a8c:	0000e20a 	andeq	lr, r0, sl, lsl #4
    2a90:	04000a00 	streq	r0, [r0], #-2560	; 0xa00
    2a94:	00001943 	andeq	r1, r0, r3, asr #18
    2a98:	00091f3a 	andeq	r1, r9, sl, lsr pc
    2a9c:	5ce40100 	stfple	f0, [r4]
    2aa0:	28000088 	stmdacs	r0, {r3, r7}
    2aa4:	01000000 	mrseq	r0, (UNDEF: 0)
    2aa8:	0019ce9c 	mulseq	r9, ip, lr
    2aac:	00733c00 	rsbseq	r3, r3, r0, lsl #24
    2ab0:	0a80e501 	beq	fe03bebc <__bss_end__+0xfe03195c>
    2ab4:	09180000 	ldmdbeq	r8, {}	; <UNPREDICTABLE>
    2ab8:	a9290000 	stmdbge	r9!, {}	; <UNPREDICTABLE>
    2abc:	3d000019 	stccc	0, cr0, [r0, #-100]	; 0xffffff9c
    2ac0:	0400755f 	streq	r7, [r0], #-1375	; 0x55f
    2ac4:	199fec01 	ldmibne	pc, {r0, sl, fp, sp, lr, pc}	; <UNPREDICTABLE>
    2ac8:	763e0000 	ldrtvc	r0, [lr], -r0
    2acc:	ec010076 	stc	0, cr0, [r1], {118}	; 0x76
    2ad0:	00000a80 	andeq	r0, r0, r0, lsl #21
    2ad4:	0075753e 	rsbseq	r7, r5, lr, lsr r5
    2ad8:	006dec01 	rsbeq	lr, sp, r1, lsl #24
    2adc:	25000000 	strcs	r0, [r0, #-0]
    2ae0:	ec010075 	stc	0, cr0, [r1], {117}	; 0x75
    2ae4:	0000197f 	andeq	r1, r0, pc, ror r9
    2ae8:	886c3300 	stmdahi	ip!, {r8, r9, ip, sp}^
    2aec:	19ce0000 	stmibne	lr, {}^	; <UNPREDICTABLE>
    2af0:	19bd0000 	ldmibne	sp!, {}	; <UNPREDICTABLE>
    2af4:	01340000 	teqeq	r4, r0
    2af8:	00740250 	rsbseq	r0, r4, r0, asr r2
    2afc:	887c3f00 	ldmdahi	ip!, {r8, r9, sl, fp, ip, sp}^
    2b00:	1b2a0000 	blne	a82b08 <__bss_end__+0xa785a8>
    2b04:	01340000 	teqeq	r4, r0
    2b08:	00740250 	rsbseq	r0, r4, r0, asr r2
    2b0c:	c4400000 	strbgt	r0, [r0], #-0
    2b10:	01000008 	tsteq	r0, r8
    2b14:	000a80b5 	strheq	r8, [sl], -r5
    2b18:	00884c00 	addeq	r4, r8, r0, lsl #24
    2b1c:	00001000 	andeq	r1, r0, r0
    2b20:	449c0100 	ldrmi	r0, [ip], #256	; 0x100
    2b24:	4100001a 	tstmi	r0, sl, lsl r0
    2b28:	b5010073 	strlt	r0, [r1, #-115]	; 0x73
    2b2c:	00001a44 	andeq	r1, r0, r4, asr #20
    2b30:	0000092b 	andeq	r0, r0, fp, lsr #18
    2b34:	00885038 	addeq	r5, r8, r8, lsr r0
    2b38:	00000400 	andeq	r0, r0, r0, lsl #8
    2b3c:	001a3a00 	andseq	r3, sl, r0, lsl #20
    2b40:	755f3d00 	ldrbvc	r3, [pc, #-3328]	; 1e48 <_start-0x61b8>
    2b44:	b6010400 	strlt	r0, [r1], -r0, lsl #8
    2b48:	00001a1f 	andeq	r1, r0, pc, lsl sl
    2b4c:	0100763e 	tsteq	r0, lr, lsr r6
    2b50:	000a8bb6 			; <UNDEFINED> instruction: 0x000a8bb6
    2b54:	00753e00 	rsbseq	r3, r5, r0, lsl #28
    2b58:	002cb601 	eoreq	fp, ip, r1, lsl #12
    2b5c:	25000000 	strcs	r0, [r0, #-0]
    2b60:	b6010075 			; <UNDEFINED> instruction: 0xb6010075
    2b64:	00001a01 	andeq	r1, r0, r1, lsl #20
    2b68:	0088543f 	addeq	r5, r8, pc, lsr r4
    2b6c:	001b5600 	andseq	r5, fp, r0, lsl #12
    2b70:	50013400 	andpl	r3, r1, r0, lsl #8
    2b74:	5001f303 	andpl	pc, r1, r3, lsl #6
    2b78:	58320000 	ldmdapl	r2!, {}	; <UNPREDICTABLE>
    2b7c:	4a000088 	bmi	2da4 <_start-0x525c>
    2b80:	0000001a 	andeq	r0, r0, sl, lsl r0
    2b84:	0a8b040e 	beq	fe2c3bc4 <__bss_end__+0xfe2b9664>
    2b88:	52400000 	subpl	r0, r0, #0
    2b8c:	0100000c 	tsteq	r0, ip
    2b90:	000a80b1 	strheq	r8, [sl], -r1
    2b94:	00874800 	addeq	r4, r7, r0, lsl #16
    2b98:	00000c00 	andeq	r0, r0, r0, lsl #24
    2b9c:	719c0100 	orrsvc	r0, ip, r0, lsl #2
    2ba0:	4100001a 	tstmi	r0, sl, lsl r0
    2ba4:	b1010073 	tstlt	r1, r3, ror r0
    2ba8:	00000a80 	andeq	r0, r0, r0, lsl #21
    2bac:	0000094c 	andeq	r0, r0, ip, asr #18
    2bb0:	087a4000 	ldmdaeq	sl!, {lr}^
    2bb4:	7b010000 	blvc	42bbc <__bss_end__+0x3865c>
    2bb8:	000009c3 	andeq	r0, r0, r3, asr #19
    2bbc:	00008884 	andeq	r8, r0, r4, lsl #17
    2bc0:	00000010 	andeq	r0, r0, r0, lsl r0
    2bc4:	1ae79c01 	bne	ff9e9bd0 <__bss_end__+0xff9df670>
    2bc8:	63410000 	movtvs	r0, #4096	; 0x1000
    2bcc:	e77b0100 	ldrb	r0, [fp, -r0, lsl #2]!
    2bd0:	5f00001a 	svcpl	0x0000001a
    2bd4:	38000009 	stmdacc	r0, {r0, r3}
    2bd8:	00008888 	andeq	r8, r0, r8, lsl #17
    2bdc:	00000004 	andeq	r0, r0, r4
    2be0:	00001add 	ldrdeq	r1, [r0], -sp
    2be4:	00755f3d 	rsbseq	r5, r5, sp, lsr pc
    2be8:	c27c0104 	rsbsgt	r0, ip, #4, 2
    2bec:	3e00001a 	mcrcc	0, 0, r0, cr0, cr10, {0}
    2bf0:	7c010076 	stcvc	0, cr0, [r1], {118}	; 0x76
    2bf4:	000009ce 	andeq	r0, r0, lr, asr #19
    2bf8:	0100753e 	tsteq	r0, lr, lsr r5
    2bfc:	00002c7c 	andeq	r2, r0, ip, ror ip
    2c00:	75250000 	strvc	r0, [r5, #-0]!
    2c04:	a47c0100 	ldrbtge	r0, [ip], #-256	; 0x100
    2c08:	3f00001a 	svccc	0x0000001a
    2c0c:	0000888c 	andeq	r8, r0, ip, lsl #17
    2c10:	00001b56 	andeq	r1, r0, r6, asr fp
    2c14:	03500134 	cmpeq	r0, #52, 2
    2c18:	005001f3 	ldrsheq	r0, [r0], #-19	; 0xffffffed
    2c1c:	88903200 	ldmhi	r0, {r9, ip, sp}
    2c20:	1aed0000 	bne	ffb42c28 <__bss_end__+0xffb386c8>
    2c24:	0e000000 	cdpeq	0, 0, cr0, cr0, cr0, {0}
    2c28:	0009ce04 	andeq	ip, r9, r4, lsl #28
    2c2c:	0bdf4000 	bleq	ff7d2c34 <__bss_end__+0xff7c86d4>
    2c30:	74010000 	strvc	r0, [r1], #-0
    2c34:	000009c3 	andeq	r0, r0, r3, asr #19
    2c38:	00008734 	andeq	r8, r0, r4, lsr r7
    2c3c:	00000014 	andeq	r0, r0, r4, lsl r0
    2c40:	1b149c01 	blne	529c4c <__bss_end__+0x51f6ec>
    2c44:	63410000 	movtvs	r0, #4096	; 0x1000
    2c48:	c3740100 	cmngt	r4, #0, 2
    2c4c:	80000009 	andhi	r0, r0, r9
    2c50:	00000009 	andeq	r0, r0, r9
    2c54:	00054942 	andeq	r4, r5, r2, asr #18
    2c58:	00054900 	andeq	r4, r5, r0, lsl #18
    2c5c:	42890700 	addmi	r0, r9, #0, 14
    2c60:	000007d5 	ldrdeq	r0, [r0], -r5
    2c64:	000007d5 	ldrdeq	r0, [r0], -r5
    2c68:	de421908 	cdple	9, 4, cr1, cr2, cr8, {0}
    2c6c:	de00000a 	cdple	0, 0, cr0, cr0, cr10, {0}
    2c70:	0700000a 	streq	r0, [r0, -sl]
    2c74:	01d3429c 			; <UNDEFINED> instruction: 0x01d3429c
    2c78:	01d30000 	bicseq	r0, r3, r0
    2c7c:	1e070000 	cdpne	0, 0, cr0, cr7, cr0, {0}
    2c80:	000cfe42 	andeq	pc, ip, r2, asr #28
    2c84:	000cfe00 	andeq	pc, ip, r0, lsl #28
    2c88:	42290700 	eormi	r0, r9, #0, 14
    2c8c:	000005ff 	strdeq	r0, [r0], -pc	; <UNPREDICTABLE>
    2c90:	000005ff 	strdeq	r0, [r0], -pc	; <UNPREDICTABLE>
    2c94:	c0426507 	subgt	r6, r2, r7, lsl #10
    2c98:	c000000b 	andgt	r0, r0, fp
    2c9c:	0700000b 	streq	r0, [r0, -fp]
    2ca0:	019100a8 	orrseq	r0, r1, r8, lsr #1
    2ca4:	00040000 	andeq	r0, r4, r0
    2ca8:	0000062a 	andeq	r0, r0, sl, lsr #12
    2cac:	0ca40104 	stfeqs	f0, [r4], #16
    2cb0:	96010000 	strls	r0, [r1], -r0
    2cb4:	0f00000c 	svceq	0x0000000c
    2cb8:	9c00000d 	stcls	0, cr0, [r0], {13}
    2cbc:	5800008c 	stmdapl	r0, {r2, r3, r7}
    2cc0:	30000000 	andcc	r0, r0, r0
    2cc4:	02000004 	andeq	r0, r0, #4
    2cc8:	00000c87 	andeq	r0, r0, r7, lsl #25
    2ccc:	00302802 	eorseq	r2, r0, r2, lsl #16
    2cd0:	05030000 	streq	r0, [r3, #-0]
    2cd4:	0400000d 	streq	r0, [r0], #-13
    2cd8:	00470003 	subeq	r0, r7, r3
    2cdc:	53040000 	movwpl	r0, #16384	; 0x4000
    2ce0:	4700000d 	strmi	r0, [r0, -sp]
    2ce4:	00000000 	andeq	r0, r0, r0
    2ce8:	02040500 	andeq	r0, r4, #0, 10
    2cec:	00000d07 	andeq	r0, r0, r7, lsl #26
    2cf0:	00256202 	eoreq	r6, r5, r2, lsl #4
    2cf4:	04060000 	streq	r0, [r6], #-0
    2cf8:	746e6905 	strbtvc	r6, [lr], #-2309	; 0x905
    2cfc:	07040700 	streq	r0, [r4, -r0, lsl #14]
    2d00:	00000084 	andeq	r0, r0, r4, lsl #1
    2d04:	6f060107 	svcvs	0x00060107
    2d08:	07000003 	streq	r0, [r0, -r3]
    2d0c:	03f80502 	mvnseq	r0, #8388608	; 0x800000
    2d10:	04070000 	streq	r0, [r7], #-0
    2d14:	0000b605 	andeq	fp, r0, r5, lsl #12
    2d18:	05080700 	streq	r0, [r8, #-1792]	; 0x700
    2d1c:	000000b1 	strheq	r0, [r0], -r1
    2d20:	6d080107 	stfvss	f0, [r8, #-28]	; 0xffffffe4
    2d24:	07000003 	streq	r0, [r0, -r3]
    2d28:	02810702 	addeq	r0, r1, #524288	; 0x80000
    2d2c:	04070000 	streq	r0, [r7], #-0
    2d30:	00007f07 	andeq	r7, r0, r7, lsl #30
    2d34:	07080700 	streq	r0, [r8, -r0, lsl #14]
    2d38:	0000007a 	andeq	r0, r0, sl, ror r0
    2d3c:	f0070407 			; <UNDEFINED> instruction: 0xf0070407
    2d40:	08000002 	stmdaeq	r0, {r1}
    2d44:	0000a704 	andeq	sl, r0, r4, lsl #14
    2d48:	08010700 	stmdaeq	r1, {r8, r9, sl}
    2d4c:	00000376 	andeq	r0, r0, r6, ror r3
    2d50:	00b40408 	adcseq	r0, r4, r8, lsl #8
    2d54:	a7090000 	strge	r0, [r9, -r0]
    2d58:	0a000000 	beq	2d60 <_start-0x52a0>
    2d5c:	00000cfe 	strdeq	r0, [r0], -lr
    2d60:	00540601 	subseq	r0, r4, r1, lsl #12
    2d64:	8c9c0000 	ldchi	0, cr0, [ip], {0}
    2d68:	00580000 	subseq	r0, r8, r0
    2d6c:	9c010000 	stcls	0, cr0, [r1], {-0}
    2d70:	00000143 	andeq	r0, r0, r3, asr #2
    2d74:	746d660b 	strbtvc	r6, [sp], #-1547	; 0x60b
    2d78:	ae060100 	adfges	f0, f6, f0
    2d7c:	02000000 	andeq	r0, r0, #0
    2d80:	0d0c7091 	stceq	0, cr7, [ip, #-580]	; 0xfffffdbc
    2d84:	00667562 	rsbeq	r7, r6, r2, ror #10
    2d88:	01430801 	cmpeq	r3, r1, lsl #16
    2d8c:	03050000 	movweq	r0, #20480	; 0x5000
    2d90:	0000a15c 	andeq	sl, r0, ip, asr r1
    2d94:	0007b20e 	andeq	fp, r7, lr, lsl #4
    2d98:	49090100 	stmdbmi	r9, {r8}
    2d9c:	02000000 	andeq	r0, r0, #0
    2da0:	730f5c91 	movwvc	r5, #64657	; 0xfc91
    2da4:	0c01007a 	stceq	0, cr0, [r1], {122}	; 0x7a
    2da8:	00000054 	andeq	r0, r0, r4, asr r0
    2dac:	0000099e 	muleq	r0, lr, r9
    2db0:	008cc410 	addeq	ip, ip, r0, lsl r4
    2db4:	00017400 	andeq	r7, r1, r0, lsl #8
    2db8:	00013600 	andeq	r3, r1, r0, lsl #12
    2dbc:	53011100 	movwpl	r1, #4352	; 0x1100
    2dc0:	114c9102 	cmpne	ip, r2, lsl #2
    2dc4:	91035201 	tstls	r3, r1, lsl #4
    2dc8:	01110648 	tsteq	r1, r8, asr #12
    2dcc:	000a0351 	andeq	r0, sl, r1, asr r3
    2dd0:	50011104 	andpl	r1, r1, r4, lsl #2
    2dd4:	00007402 	andeq	r7, r0, r2, lsl #8
    2dd8:	008cd812 	addeq	sp, ip, r2, lsl r8
    2ddc:	50011100 	andpl	r1, r1, r0, lsl #2
    2de0:	00007402 	andeq	r7, r0, r2, lsl #8
    2de4:	00a71300 	adceq	r1, r7, r0, lsl #6
    2de8:	01540000 	cmpeq	r4, r0
    2dec:	9a140000 	bls	502df4 <__bss_end__+0x4f8894>
    2df0:	ff000000 			; <UNDEFINED> instruction: 0xff000000
    2df4:	54150003 	ldrpl	r0, [r5], #-3
    2df8:	63000000 	movwvs	r0, #0
    2dfc:	16000001 	strne	r0, [r0], -r1
    2e00:	000000ae 	andeq	r0, r0, lr, lsr #1
    2e04:	0da41700 	stceq	7, cr1, [r4]
    2e08:	22040000 	andcs	r0, r4, #0
    2e0c:	0000016e 	andeq	r0, r0, lr, ror #2
    2e10:	01540408 	cmpeq	r4, r8, lsl #8
    2e14:	fb180000 	blx	602e1e <__bss_end__+0x5f88be>
    2e18:	0500000c 	streq	r0, [r0, #-12]
    2e1c:	00005402 	andeq	r5, r0, r2, lsl #8
    2e20:	00a11600 	adceq	r1, r1, r0, lsl #12
    2e24:	54160000 	ldrpl	r0, [r6], #-0
    2e28:	16000000 	strne	r0, [r0], -r0
    2e2c:	000000ae 	andeq	r0, r0, lr, lsr #1
    2e30:	00004916 	andeq	r4, r0, r6, lsl r9
    2e34:	13000000 	movwne	r0, #0
    2e38:	04000001 	streq	r0, [r0], #-1
    2e3c:	00075b00 	andeq	r5, r7, r0, lsl #22
    2e40:	a4010400 	strge	r0, [r1], #-1024	; 0x400
    2e44:	0100000c 	tsteq	r0, ip
    2e48:	00000d73 	andeq	r0, r0, r3, ror sp
    2e4c:	00000d0f 	andeq	r0, r0, pc, lsl #26
    2e50:	00008cf4 	strdeq	r8, [r0], -r4
    2e54:	0000003c 	andeq	r0, r0, ip, lsr r0
    2e58:	00000536 	andeq	r0, r0, r6, lsr r5
    2e5c:	69050402 	stmdbvs	r5, {r1, sl}
    2e60:	0300746e 	movweq	r7, #1134	; 0x46e
    2e64:	00840704 	addeq	r0, r4, r4, lsl #14
    2e68:	01030000 	mrseq	r0, (UNDEF: 3)
    2e6c:	00036f06 	andeq	r6, r3, r6, lsl #30
    2e70:	05020300 	streq	r0, [r2, #-768]	; 0x300
    2e74:	000003f8 	strdeq	r0, [r0], -r8
    2e78:	b6050403 	strlt	r0, [r5], -r3, lsl #8
    2e7c:	03000000 	movweq	r0, #0
    2e80:	00b10508 	adcseq	r0, r1, r8, lsl #10
    2e84:	01030000 	mrseq	r0, (UNDEF: 3)
    2e88:	00036d08 	andeq	r6, r3, r8, lsl #26
    2e8c:	07020300 	streq	r0, [r2, -r0, lsl #6]
    2e90:	00000281 	andeq	r0, r0, r1, lsl #5
    2e94:	7f070403 	svcvc	0x00070403
    2e98:	03000000 	movweq	r0, #0
    2e9c:	007a0708 	rsbseq	r0, sl, r8, lsl #14
    2ea0:	04030000 	streq	r0, [r3], #-0
    2ea4:	0002f007 	andeq	pc, r2, r7
    2ea8:	08010300 	stmdaeq	r1, {r8, r9}
    2eac:	00000376 	andeq	r0, r0, r6, ror r3
    2eb0:	000d6204 	andeq	r6, sp, r4, lsl #4
    2eb4:	25030100 	strcs	r0, [r3, #-256]	; 0x100
    2eb8:	f4000000 	vst4.8	{d0-d3}, [r0], r0
    2ebc:	1400008c 	strne	r0, [r0], #-140	; 0x8c
    2ec0:	01000000 	mrseq	r0, (UNDEF: 0)
    2ec4:	0000b09c 	muleq	r0, ip, r0
    2ec8:	00630500 	rsbeq	r0, r3, r0, lsl #10
    2ecc:	00250301 	eoreq	r0, r5, r1, lsl #6
    2ed0:	09c70000 	stmibeq	r7, {}^	; <UNPREDICTABLE>
    2ed4:	00060000 	andeq	r0, r6, r0
    2ed8:	0900008d 	stmdbeq	r0, {r0, r2, r3, r7}
    2edc:	07000001 	streq	r0, [r0, -r1]
    2ee0:	74025001 	strvc	r5, [r2], #-1
    2ee4:	08000000 	stmdaeq	r0, {}	; <UNPREDICTABLE>
    2ee8:	000001d3 	ldrdeq	r0, [r0], -r3
    2eec:	8d080801 	stchi	8, cr0, [r8, #-4]
    2ef0:	00180000 	andseq	r0, r8, r0
    2ef4:	9c010000 	stcls	0, cr0, [r1], {-0}
    2ef8:	000d8209 	andeq	r8, sp, r9, lsl #4
    2efc:	200b0100 	andcs	r0, fp, r0, lsl #2
    2f00:	1000008d 	andne	r0, r0, sp, lsl #1
    2f04:	01000000 	mrseq	r0, (UNDEF: 0)
    2f08:	0000e39c 	muleq	r0, ip, r3
    2f0c:	70660a00 	rsbvc	r0, r6, r0, lsl #20
    2f10:	f20b0100 	vrhadd.s8	d0, d11, d0
    2f14:	01000000 	mrseq	r0, (UNDEF: 0)
    2f18:	250b0050 	strcs	r0, [fp, #-80]	; 0x50
    2f1c:	f2000000 	vhadd.s8	d0, d0, d0
    2f20:	0c000000 	stceq	0, cr0, [r0], {-0}
    2f24:	00000025 	andeq	r0, r0, r5, lsr #32
    2f28:	e3040d00 	movw	r0, #19712	; 0x4d00
    2f2c:	0e000000 	cdpeq	0, 0, cr0, cr0, cr0, {0}
    2f30:	000008b3 			; <UNDEFINED> instruction: 0x000008b3
    2f34:	00f20601 	rscseq	r0, r2, r1, lsl #12
    2f38:	03050000 	movweq	r0, #20480	; 0x5000
    2f3c:	00009b0c 	andeq	r9, r0, ip, lsl #22
    2f40:	000d580f 	andeq	r5, sp, pc, lsl #16
    2f44:	0c3c0200 	lfmeq	f0, 4, [ip], #-0
    2f48:	0000002c 	andeq	r0, r0, ip, lsr #32
    2f4c:	00ee0000 	rsceq	r0, lr, r0
    2f50:	00040000 	andeq	r0, r4, r0
    2f54:	00000843 	andeq	r0, r0, r3, asr #16
    2f58:	0ca40104 	stfeqs	f0, [r4], #16
    2f5c:	8f010000 	svchi	0x00010000
    2f60:	0f00000d 	svceq	0x0000000d
    2f64:	3000000d 	andcc	r0, r0, sp
    2f68:	3400008d 	strcc	r0, [r0], #-141	; 0x8d
    2f6c:	c4000000 	strgt	r0, [r0], #-0
    2f70:	02000005 	andeq	r0, r0, #5
    2f74:	6e690504 	cdpvs	5, 6, cr0, cr9, cr4, {0}
    2f78:	04030074 	streq	r0, [r3], #-116	; 0x74
    2f7c:	00008407 	andeq	r8, r0, r7, lsl #8
    2f80:	06010300 	streq	r0, [r1], -r0, lsl #6
    2f84:	0000036f 	andeq	r0, r0, pc, ror #6
    2f88:	f8050203 			; <UNDEFINED> instruction: 0xf8050203
    2f8c:	03000003 	movweq	r0, #3
    2f90:	00b60504 	adcseq	r0, r6, r4, lsl #10
    2f94:	08030000 	stmdaeq	r3, {}	; <UNPREDICTABLE>
    2f98:	0000b105 	andeq	fp, r0, r5, lsl #2
    2f9c:	08010300 	stmdaeq	r1, {r8, r9}
    2fa0:	0000036d 	andeq	r0, r0, sp, ror #6
    2fa4:	81070203 	tsthi	r7, r3, lsl #4
    2fa8:	03000002 	movweq	r0, #2
    2fac:	007f0704 	rsbseq	r0, pc, r4, lsl #14
    2fb0:	08030000 	stmdaeq	r3, {}	; <UNPREDICTABLE>
    2fb4:	00007a07 	andeq	r7, r0, r7, lsl #20
    2fb8:	07040300 	streq	r0, [r4, -r0, lsl #6]
    2fbc:	000002f0 	strdeq	r0, [r0], -r0	; <UNPREDICTABLE>
    2fc0:	76080103 	strvc	r0, [r8], -r3, lsl #2
    2fc4:	04000003 	streq	r0, [r0], #-3
    2fc8:	00007f04 	andeq	r7, r0, r4, lsl #30
    2fcc:	00720500 	rsbseq	r0, r2, r0, lsl #10
    2fd0:	9b060000 	blls	182fd8 <__bss_end__+0x178a78>
    2fd4:	0100000d 	tsteq	r0, sp
    2fd8:	00002504 	andeq	r2, r0, r4, lsl #10
    2fdc:	008d3000 	addeq	r3, sp, r0
    2fe0:	00003400 	andeq	r3, r0, r0, lsl #8
    2fe4:	ab9c0100 	blge	fe7033ec <__bss_end__+0xfe6f8e8c>
    2fe8:	07000000 	streq	r0, [r0, -r0]
    2fec:	04010070 	streq	r0, [r1], #-112	; 0x70
    2ff0:	00000079 	andeq	r0, r0, r9, ror r0
    2ff4:	000009e5 	andeq	r0, r0, r5, ror #19
    2ff8:	00250800 	eoreq	r0, r5, r0, lsl #16
    2ffc:	00ba0000 	adcseq	r0, sl, r0
    3000:	25090000 	strcs	r0, [r9, #-0]
    3004:	00000000 	andeq	r0, r0, r0
    3008:	0008b30a 	andeq	fp, r8, sl, lsl #6
    300c:	c51d0200 	ldrgt	r0, [sp, #-512]	; 0x200
    3010:	04000000 	streq	r0, [r0], #-0
    3014:	0000ab04 	andeq	sl, r0, r4, lsl #22
    3018:	00250800 	eoreq	r0, r5, r0, lsl #16
    301c:	00da0000 	sbcseq	r0, sl, r0
    3020:	79090000 	stmdbvc	r9, {}	; <UNPREDICTABLE>
    3024:	00000000 	andeq	r0, r0, r0
    3028:	000da40b 	andeq	sl, sp, fp, lsl #8
    302c:	eb0c0100 	bl	303434 <__bss_end__+0x2f8ed4>
    3030:	05000000 	streq	r0, [r0, #-0]
    3034:	009b1003 	addseq	r1, fp, r3
    3038:	cb040400 	blgt	104040 <__bss_end__+0xf9ae0>
    303c:	00000000 	andeq	r0, r0, r0
    3040:	00000681 	andeq	r0, r0, r1, lsl #13
    3044:	08dc0004 	ldmeq	ip, {r2}^
    3048:	01040000 	mrseq	r0, (UNDEF: 4)
    304c:	00000ca4 	andeq	r0, r0, r4, lsr #25
    3050:	000dd001 	andeq	sp, sp, r1
    3054:	000d0f00 	andeq	r0, sp, r0, lsl #30
    3058:	008d6400 	addeq	r6, sp, r0, lsl #8
    305c:	0004f800 	andeq	pc, r4, r0, lsl #16
    3060:	00065e00 	andeq	r5, r6, r0, lsl #28
    3064:	05040200 	streq	r0, [r4, #-512]	; 0x200
    3068:	00746e69 	rsbseq	r6, r4, r9, ror #28
    306c:	84070403 	strhi	r0, [r7], #-1027	; 0x403
    3070:	03000000 	movweq	r0, #0
    3074:	036f0601 	cmneq	pc, #1048576	; 0x100000
    3078:	02030000 	andeq	r0, r3, #0
    307c:	0003f805 	andeq	pc, r3, r5, lsl #16
    3080:	05040300 	streq	r0, [r4, #-768]	; 0x300
    3084:	000000b6 	strheq	r0, [r0], -r6
    3088:	b1050803 	tstlt	r5, r3, lsl #16
    308c:	03000000 	movweq	r0, #0
    3090:	036d0801 	cmneq	sp, #65536	; 0x10000
    3094:	02030000 	andeq	r0, r3, #0
    3098:	00028107 	andeq	r8, r2, r7, lsl #2
    309c:	07040300 	streq	r0, [r4, -r0, lsl #6]
    30a0:	0000007f 	andeq	r0, r0, pc, ror r0
    30a4:	7a070803 	bvc	1c50b8 <__bss_end__+0x1bab58>
    30a8:	03000000 	movweq	r0, #0
    30ac:	02f00704 	rscseq	r0, r0, #4, 14	; 0x100000
    30b0:	04040000 	streq	r0, [r4], #-0
    30b4:	007a0405 	rsbseq	r0, sl, r5, lsl #8
    30b8:	01030000 	mrseq	r0, (UNDEF: 3)
    30bc:	00037608 	andeq	r7, r3, r8, lsl #12
    30c0:	87040500 	strhi	r0, [r4, -r0, lsl #10]
    30c4:	06000000 	streq	r0, [r0], -r0
    30c8:	0000007a 	andeq	r0, r0, sl, ror r0
    30cc:	000c8707 	andeq	r8, ip, r7, lsl #14
    30d0:	97280200 	strls	r0, [r8, -r0, lsl #4]!
    30d4:	08000000 	stmdaeq	r0, {}	; <UNPREDICTABLE>
    30d8:	00000d05 	andeq	r0, r0, r5, lsl #26
    30dc:	ae000404 	cdpge	4, 0, cr0, cr0, cr4, {0}
    30e0:	09000000 	stmdbeq	r0, {}	; <UNPREDICTABLE>
    30e4:	00000d53 	andeq	r0, r0, r3, asr sp
    30e8:	00000072 	andeq	r0, r0, r2, ror r0
    30ec:	07070000 	streq	r0, [r7, -r0]
    30f0:	0200000d 	andeq	r0, r0, #13
    30f4:	00008c62 	andeq	r8, r0, r2, ror #24
    30f8:	0db70a00 	ldceq	10, cr0, [r7]
    30fc:	27010000 	strcs	r0, [r1, -r0]
    3100:	00000025 	andeq	r0, r0, r5, lsr #32
    3104:	00008d64 	andeq	r8, r0, r4, ror #26
    3108:	00000014 	andeq	r0, r0, r4, lsl r0
    310c:	00e09c01 	rsceq	r9, r0, r1, lsl #24
    3110:	630b0000 	movwvs	r0, #45056	; 0xb000
    3114:	25270100 	strcs	r0, [r7, #-256]!	; 0x100
    3118:	03000000 	movweq	r0, #0
    311c:	0000000a 	andeq	r0, r0, sl
    3120:	6461700c 	strbtvs	r7, [r1], #-12
    3124:	742e0100 	strtvc	r0, [lr], #-256	; 0x100
    3128:	78000000 	stmdavc	r0, {}	; <UNPREDICTABLE>
    312c:	2c00008d 	stccs	0, cr0, [r0], {141}	; 0x8d
    3130:	01000000 	mrseq	r0, (UNDEF: 0)
    3134:	0001309c 	muleq	r1, ip, r0
    3138:	00700b00 	rsbseq	r0, r0, r0, lsl #22
    313c:	00742e01 	rsbseq	r2, r4, r1, lsl #28
    3140:	0a310000 	beq	c43148 <__bss_end__+0xc38be8>
    3144:	8b0d0000 	blhi	34314c <__bss_end__+0x338bec>
    3148:	01000007 	tsteq	r0, r7
    314c:	0000742e 	andeq	r7, r0, lr, lsr #8
    3150:	000a5c00 	andeq	r5, sl, r0, lsl #24
    3154:	0df00e00 	ldcleq	14, cr0, [r0]
    3158:	2e010000 	cdpcs	0, 0, cr0, cr1, cr0, {0}
    315c:	00000025 	andeq	r0, r0, r5, lsr #32
    3160:	6c0f5201 	sfmvs	f5, 4, [pc], {1}
    3164:	01006e65 	tsteq	r0, r5, ror #28
    3168:	0000252f 	andeq	r2, r0, pc, lsr #10
    316c:	00510100 	subseq	r0, r1, r0, lsl #2
    3170:	000daf0a 	andeq	sl, sp, sl, lsl #30
    3174:	74370100 	ldrtvc	r0, [r7], #-256	; 0x100
    3178:	a4000000 	strge	r0, [r0], #-0
    317c:	4000008d 	andmi	r0, r0, sp, lsl #1
    3180:	01000000 	mrseq	r0, (UNDEF: 0)
    3184:	00019c9c 	muleq	r1, ip, ip
    3188:	73640b00 	cmnvc	r4, #0, 22
    318c:	37010074 	smlsdxcc	r1, r4, r0, r0
    3190:	00000074 	andeq	r0, r0, r4, ror r0
    3194:	00000a7d 	andeq	r0, r0, sp, ror sl
    3198:	01006e0b 	tsteq	r0, fp, lsl #28
    319c:	00002537 	andeq	r2, r0, r7, lsr r5
    31a0:	000ab500 	andeq	fp, sl, r0, lsl #10
    31a4:	00700b00 	rsbseq	r0, r0, r0, lsl #22
    31a8:	00743701 	rsbseq	r3, r4, r1, lsl #14
    31ac:	0ad60000 	beq	ff5831b4 <__bss_end__+0xff578c54>
    31b0:	8a0d0000 	bhi	3431b8 <__bss_end__+0x338c58>
    31b4:	0100000b 	tsteq	r0, fp
    31b8:	00007437 	andeq	r7, r0, r7, lsr r4
    31bc:	000b0c00 	andeq	r0, fp, r0, lsl #24
    31c0:	656c1000 	strbvs	r1, [ip, #-0]!
    31c4:	3901006e 	stmdbcc	r1, {r1, r2, r3, r5, r6}
    31c8:	00000025 	andeq	r0, r0, r5, lsr #32
    31cc:	00000b2a 	andeq	r0, r0, sl, lsr #22
    31d0:	0100730f 	tsteq	r0, pc, lsl #6
    31d4:	0000743d 	andeq	r7, r0, sp, lsr r4
    31d8:	00500100 	subseq	r0, r0, r0, lsl #2
    31dc:	000dfe0a 	andeq	pc, sp, sl, lsl #28
    31e0:	74470100 	strbvc	r0, [r7], #-256	; 0x100
    31e4:	e4000000 	str	r0, [r0], #-0
    31e8:	9c00008d 	stcls	0, cr0, [r0], {141}	; 0x8d
    31ec:	01000001 	tsteq	r0, r1
    31f0:	0002d39c 	muleq	r2, ip, r3
    31f4:	078b0d00 	streq	r0, [fp, r0, lsl #26]
    31f8:	47010000 	strmi	r0, [r1, -r0]
    31fc:	0000002c 	andeq	r0, r0, ip, lsr #32
    3200:	00000b51 	andeq	r0, r0, r1, asr fp
    3204:	7473640b 	ldrbtvc	r6, [r3], #-1035	; 0x40b
    3208:	74470100 	strbvc	r0, [r7], #-256	; 0x100
    320c:	7f000000 	svcvc	0x00000000
    3210:	0b00000b 	bleq	3244 <_start-0x4dbc>
    3214:	4701006e 	strmi	r0, [r1, -lr, rrx]
    3218:	00000025 	andeq	r0, r0, r5, lsr #32
    321c:	00000bed 	andeq	r0, r0, sp, ror #23
    3220:	6c61760b 	stclvs	6, cr7, [r1], #-44	; 0xffffffd4
    3224:	25470100 	strbcs	r0, [r7, #-256]	; 0x100
    3228:	19000000 	stmdbne	r0, {}	; <UNPREDICTABLE>
    322c:	0d00000c 	stceq	0, cr0, [r0, #-48]	; 0xffffffd0
    3230:	00000df0 	strdeq	r0, [r0], -r0	; <UNPREDICTABLE>
    3234:	00254701 	eoreq	r4, r5, r1, lsl #14
    3238:	0c980000 	ldceq	0, cr0, [r8], {0}
    323c:	c70e0000 	strgt	r0, [lr, -r0]
    3240:	0100000d 	tsteq	r0, sp
    3244:	00002547 	andeq	r2, r0, r7, asr #10
    3248:	04910200 	ldreq	r0, [r1], #512	; 0x200
    324c:	6675620f 	ldrbtvs	r6, [r5], -pc, lsl #4
    3250:	d34c0100 	movtle	r0, #49408	; 0xc100
    3254:	03000002 	movweq	r0, #2
    3258:	107fa891 			; <UNDEFINED> instruction: 0x107fa891
    325c:	4c010070 	stcmi	0, cr0, [r1], {112}	; 0x70
    3260:	00000074 	andeq	r0, r0, r4, ror r0
    3264:	00000cc2 	andeq	r0, r0, r2, asr #25
    3268:	01007510 	tsteq	r0, r0, lsl r5
    326c:	00002c4d 	andeq	r2, r0, sp, asr #24
    3270:	000d6700 	andeq	r6, sp, r0, lsl #14
    3274:	02cf1100 	sbceq	r1, pc, #0, 2
    3278:	02f30000 	rscseq	r0, r3, #0
    327c:	03050000 	movweq	r0, #20480	; 0x5000
    3280:	0000a05c 	andeq	sl, r0, ip, asr r0
    3284:	008e5012 	addeq	r5, lr, r2, lsl r0
    3288:	00007400 	andeq	r7, r0, r0, lsl #8
    328c:	00026100 	andeq	r6, r2, r0, lsl #2
    3290:	0da91300 	stceq	3, cr1, [r9]
    3294:	52010000 	andpl	r0, r1, #0
    3298:	0000002c 	andeq	r0, r0, ip, lsr #32
    329c:	00000e6c 	andeq	r0, r0, ip, ror #28
    32a0:	8f241400 	svchi	0x00241400
    32a4:	06600000 	strbteq	r0, [r0], -r0
    32a8:	38150000 	ldmdacc	r5, {}	; <UNPREDICTABLE>
    32ac:	6700008f 	strvs	r0, [r0, -pc, lsl #1]
    32b0:	99000006 	stmdbls	r0, {r1, r2}
    32b4:	16000002 	strne	r0, [r0], -r2
    32b8:	08025301 	stmdaeq	r2, {r0, r8, r9, ip, lr}
    32bc:	52011675 	andpl	r1, r1, #122683392	; 0x7500000
    32c0:	a05c0305 	subsge	r0, ip, r5, lsl #6
    32c4:	01160000 	tsteq	r6, r0
    32c8:	80030551 	andhi	r0, r3, r1, asr r5
    32cc:	160000a0 	strne	r0, [r0], -r0, lsr #1
    32d0:	03055001 	movweq	r5, #20481	; 0x5001
    32d4:	00009ca8 	andeq	r9, r0, r8, lsr #25
    32d8:	8f3c1400 	svchi	0x003c1400
    32dc:	067d0000 	ldrbteq	r0, [sp], -r0
    32e0:	48150000 	ldmdami	r5, {}	; <UNPREDICTABLE>
    32e4:	e000008f 	and	r0, r0, pc, lsl #1
    32e8:	b6000000 	strlt	r0, [r0], -r0
    32ec:	16000002 	strne	r0, [r0], -r2
    32f0:	7d025101 	stfvcs	f5, [r2, #-4]
    32f4:	5c170000 	ldcpl	0, cr0, [r7], {-0}
    32f8:	3000008f 	andcc	r0, r0, pc, lsl #1
    32fc:	16000001 	strne	r0, [r0], -r1
    3300:	7d025301 	stcvc	3, cr5, [r2, #-4]
    3304:	51011600 	tstpl	r1, r0, lsl #12
    3308:	16007402 	strne	r7, [r0], -r2, lsl #8
    330c:	75025001 	strvc	r5, [r2, #-1]
    3310:	18000000 	stmdane	r0, {}	; <UNPREDICTABLE>
    3314:	0000007a 	andeq	r0, r0, sl, ror r0
    3318:	000002e3 	andeq	r0, r0, r3, ror #5
    331c:	00006b19 	andeq	r6, r0, r9, lsl fp
    3320:	18003f00 	stmdane	r0, {r8, r9, sl, fp, ip, sp}
    3324:	0000007a 	andeq	r0, r0, sl, ror r0
    3328:	000002f3 	strdeq	r0, [r0], -r3
    332c:	00006b19 	andeq	r6, r0, r9, lsl fp
    3330:	06000400 	streq	r0, [r0], -r0, lsl #8
    3334:	000002e3 	andeq	r0, r0, r3, ror #5
    3338:	000de11a 	andeq	lr, sp, sl, lsl r1
    333c:	801f0100 	andshi	r0, pc, r0, lsl #2
    3340:	5400008f 	strpl	r0, [r0], #-143	; 0x8f
    3344:	01000000 	mrseq	r0, (UNDEF: 0)
    3348:	00037c9c 	muleq	r3, ip, ip
    334c:	0df60d00 	ldcleq	13, cr0, [r6]
    3350:	1f010000 	svcne	0x00010000
    3354:	0000038b 	andeq	r0, r0, fp, lsl #7
    3358:	00000e98 	muleq	r0, r8, lr
    335c:	000dbf0d 	andeq	fp, sp, sp, lsl #30
    3360:	a01f0100 	andsge	r0, pc, r0, lsl #2
    3364:	c4000003 	strgt	r0, [r0], #-3
    3368:	1100000e 	tstne	r0, lr
    336c:	000002cf 	andeq	r0, r0, pc, asr #5
    3370:	000003b6 			; <UNDEFINED> instruction: 0x000003b6
    3374:	a0640305 	rsbge	r0, r4, r5, lsl #6
    3378:	90140000 	andsls	r0, r4, r0
    337c:	6000008f 	andvs	r0, r0, pc, lsl #1
    3380:	15000006 	strne	r0, [r0, #-6]
    3384:	00008fa4 	andeq	r8, r0, r4, lsr #31
    3388:	00000667 	andeq	r0, r0, r7, ror #12
    338c:	00000372 	andeq	r0, r0, r2, ror r3
    3390:	02530116 	subseq	r0, r3, #-2147483643	; 0x80000005
    3394:	01162008 	tsteq	r6, r8
    3398:	64030552 	strvs	r0, [r3], #-1362	; 0x552
    339c:	160000a0 	strne	r0, [r0], -r0, lsr #1
    33a0:	03055101 	movweq	r5, #20737	; 0x5101
    33a4:	0000a080 	andeq	sl, r0, r0, lsl #1
    33a8:	05500116 	ldrbeq	r0, [r0, #-278]	; 0x116
    33ac:	00a0b803 	adceq	fp, r0, r3, lsl #16
    33b0:	a8140000 	ldmdage	r4, {}	; <UNPREDICTABLE>
    33b4:	7d00008f 	stcvc	0, cr0, [r0, #-572]	; 0xfffffdc4
    33b8:	00000006 	andeq	r0, r0, r6
    33bc:	0000251b 	andeq	r2, r0, fp, lsl r5
    33c0:	00038b00 	andeq	r8, r3, r0, lsl #22
    33c4:	00251c00 	eoreq	r1, r5, r0, lsl #24
    33c8:	05000000 	streq	r0, [r0, #-0]
    33cc:	00037c04 	andeq	r7, r3, r4, lsl #24
    33d0:	00251b00 	eoreq	r1, r5, r0, lsl #22
    33d4:	03a00000 	moveq	r0, #0
    33d8:	811c0000 	tsthi	ip, r0
    33dc:	00000000 	andeq	r0, r0, r0
    33e0:	03910405 	orrseq	r0, r1, #83886080	; 0x5000000
    33e4:	7a180000 	bvc	6033ec <__bss_end__+0x5f8e8c>
    33e8:	b6000000 	strlt	r0, [r0], -r0
    33ec:	19000003 	stmdbne	r0, {r0, r1}
    33f0:	0000006b 	andeq	r0, r0, fp, rrx
    33f4:	a606000e 	strge	r0, [r6], -lr
    33f8:	1d000003 	stcne	0, cr0, [r0, #-12]
    33fc:	00000cfb 	strdeq	r0, [r0], -fp
    3400:	00257d01 	eoreq	r7, r5, r1, lsl #26
    3404:	8fd40000 	svchi	0x00d40000
    3408:	02880000 	addeq	r0, r8, #0
    340c:	9c010000 	stcls	0, cr0, [r1], {-0}
    3410:	00000625 	andeq	r0, r0, r5, lsr #12
    3414:	6675620b 	ldrbtvs	r6, [r5], -fp, lsl #4
    3418:	747d0100 	ldrbtvc	r0, [sp], #-256	; 0x100
    341c:	f0000000 			; <UNDEFINED> instruction: 0xf0000000
    3420:	0b00000e 	bleq	3460 <_start-0x4ba0>
    3424:	7d01006e 	stcvc	0, cr0, [r1, #-440]	; 0xfffffe48
    3428:	00000025 	andeq	r0, r0, r5, lsr #32
    342c:	00000f1c 	andeq	r0, r0, ip, lsl pc
    3430:	746d660b 	strbtvc	r6, [sp], #-1547	; 0x60b
    3434:	817d0100 	cmnhi	sp, r0, lsl #2
    3438:	4a000000 	bmi	3440 <_start-0x4bc0>
    343c:	0d00000f 	stceq	0, cr0, [r0, #-60]	; 0xffffffc4
    3440:	000007b2 			; <UNDEFINED> instruction: 0x000007b2
    3444:	00ae7d01 	adceq	r7, lr, r1, lsl #26
    3448:	0f7e0000 	svceq	0x007e0000
    344c:	70100000 	andsvc	r0, r0, r0
    3450:	747e0100 	ldrbtvc	r0, [lr], #-256	; 0x100
    3454:	91000000 	mrsls	r0, (UNDEF: 0)
    3458:	1000000f 	andne	r0, r0, pc
    345c:	7e010065 	cdpvc	0, 0, cr0, cr1, cr5, {3}
    3460:	00000074 	andeq	r0, r0, r4, ror r0
    3464:	0000100f 	andeq	r1, r0, pc
    3468:	0002cf11 	andeq	ip, r2, r1, lsl pc
    346c:	00063500 	andeq	r3, r6, r0, lsl #10
    3470:	74030500 	strvc	r0, [r3], #-1280	; 0x500
    3474:	1e0000a0 	cdpne	0, 0, cr0, cr0, cr0, {5}
    3478:	00000018 	andeq	r0, r0, r8, lsl r0
    347c:	01007310 	tsteq	r0, r0, lsl r3
    3480:	0000748b 	andeq	r7, r0, fp, lsl #9
    3484:	00103600 	andseq	r3, r0, r0, lsl #12
    3488:	756e0f00 	strbvc	r0, [lr, #-3840]!	; 0xf00
    348c:	8b01006d 	blhi	43648 <__bss_end__+0x390e8>
    3490:	0000063a 	andeq	r0, r0, sl, lsr r6
    3494:	7ed89103 	atnvce	f1, f3
    3498:	000df013 	andeq	pc, sp, r3, lsl r0	; <UNPREDICTABLE>
    349c:	2c8c0100 	stfcss	f0, [ip], {0}
    34a0:	8b000000 	blhi	34a8 <_start-0x4b58>
    34a4:	15000010 	strne	r0, [r0, #-16]
    34a8:	00009058 	andeq	r9, r0, r8, asr r0
    34ac:	000000b9 	strheq	r0, [r0], -r9
    34b0:	0000047b 	andeq	r0, r0, fp, ror r4
    34b4:	02500116 	subseq	r0, r0, #-2147483643	; 0x80000005
    34b8:	14000075 	strne	r0, [r0], #-117	; 0x75
    34bc:	0000906c 	andeq	r9, r0, ip, rrx
    34c0:	00000660 	andeq	r0, r0, r0, ror #12
    34c4:	00908015 	addseq	r8, r0, r5, lsl r0
    34c8:	00066700 	andeq	r6, r6, r0, lsl #14
    34cc:	0004b300 	andeq	fp, r4, r0, lsl #6
    34d0:	53011600 	movwpl	r1, #5632	; 0x1600
    34d4:	16920802 	ldrne	r0, [r2], r2, lsl #16
    34d8:	03055201 	movweq	r5, #20993	; 0x5201
    34dc:	0000a074 	andeq	sl, r0, r4, ror r0
    34e0:	05510116 	ldrbeq	r0, [r1, #-278]	; 0x116
    34e4:	00a08003 	adceq	r8, r0, r3
    34e8:	50011600 	andpl	r1, r1, r0, lsl #12
    34ec:	a0d00305 	sbcsge	r0, r0, r5, lsl #6
    34f0:	14000000 	strne	r0, [r0], #-0
    34f4:	00009084 	andeq	r9, r0, r4, lsl #1
    34f8:	0000067d 	andeq	r0, r0, sp, ror r6
    34fc:	0090f414 	addseq	pc, r0, r4, lsl r4	; <UNPREDICTABLE>
    3500:	00066000 	andeq	r6, r6, r0
    3504:	91081500 	tstls	r8, r0, lsl #10
    3508:	06670000 	strbteq	r0, [r7], -r0
    350c:	04f40000 	ldrbteq	r0, [r4], #0
    3510:	01160000 	tsteq	r6, r0
    3514:	98080253 	stmdals	r8, {r0, r1, r4, r6, r9}
    3518:	05520116 	ldrbeq	r0, [r2, #-278]	; 0x116
    351c:	00a07403 	adceq	r7, r0, r3, lsl #8
    3520:	51011600 	tstpl	r1, r0, lsl #12
    3524:	a0800305 	addge	r0, r0, r5, lsl #6
    3528:	01160000 	tsteq	r6, r0
    352c:	ec030550 	cfstr32	mvfx0, [r3], {80}	; 0x50
    3530:	000000a0 	andeq	r0, r0, r0, lsr #1
    3534:	00910c14 	addseq	r0, r1, r4, lsl ip
    3538:	00067d00 	andeq	r7, r6, r0, lsl #26
    353c:	91301500 	teqls	r0, r0, lsl #10
    3540:	019c0000 	orrseq	r0, ip, r0
    3544:	052a0000 	streq	r0, [sl, #-0]!
    3548:	01160000 	tsteq	r6, r0
    354c:	80080252 	andhi	r0, r8, r2, asr r2
    3550:	03510116 	cmpeq	r1, #-2147483643	; 0x80000005
    3554:	167ed091 			; <UNDEFINED> instruction: 0x167ed091
    3558:	3a015001 	bcc	57564 <__bss_end__+0x4d004>
    355c:	047d0216 	ldrbteq	r0, [sp], #-534	; 0x216
    3560:	02163101 	andseq	r3, r6, #1073741824	; 0x40000000
    3564:	7702007d 	smlsdxvc	r2, sp, r0, r0
    3568:	54150000 	ldrpl	r0, [r5], #-0
    356c:	9c000091 	stcls	0, cr0, [r0], {145}	; 0x91
    3570:	58000001 	stmdapl	r0, {r0}
    3574:	16000005 	strne	r0, [r0], -r5
    3578:	08025201 	stmdaeq	r2, {r0, r9, ip, lr}
    357c:	51011680 	smlabbpl	r1, r0, r6, r1
    3580:	7ed09103 	atnvcs	f1, f3
    3584:	01500116 	cmpeq	r0, r6, lsl r1
    3588:	7d02163a 	stcvc	6, cr1, [r2, #-232]	; 0xffffff18
    358c:	007b0204 	rsbseq	r0, fp, r4, lsl #4
    3590:	007d0216 	rsbseq	r0, sp, r6, lsl r2
    3594:	00007702 	andeq	r7, r0, r2, lsl #14
    3598:	00917815 	addseq	r7, r1, r5, lsl r8
    359c:	00019c00 	andeq	r9, r1, r0, lsl #24
    35a0:	00058600 	andeq	r8, r5, r0, lsl #12
    35a4:	52011600 	andpl	r1, r1, #0, 12
    35a8:	16800802 	strne	r0, [r0], r2, lsl #16
    35ac:	91035101 	tstls	r3, r1, lsl #2
    35b0:	01167ed0 			; <UNDEFINED> instruction: 0x01167ed0
    35b4:	16400150 			; <UNDEFINED> instruction: 0x16400150
    35b8:	02047d02 	andeq	r7, r4, #2, 26	; 0x80
    35bc:	0216007b 	andseq	r0, r6, #123	; 0x7b
    35c0:	7702007d 	smlsdxvc	r2, sp, r0, r0
    35c4:	9c150000 	ldcls	0, cr0, [r5], {-0}
    35c8:	9c000091 	stcls	0, cr0, [r0], {145}	; 0x91
    35cc:	b4000001 	strlt	r0, [r0], #-1
    35d0:	16000005 	strne	r0, [r0], -r5
    35d4:	08025201 	stmdaeq	r2, {r0, r9, ip, lr}
    35d8:	51011680 	smlabbpl	r1, r0, r6, r1
    35dc:	7ed09103 	atnvcs	f1, f3
    35e0:	01500116 	cmpeq	r0, r6, lsl r1
    35e4:	7d021632 	stcvc	6, cr1, [r2, #-200]	; 0xffffff38
    35e8:	007b0204 	rsbseq	r0, fp, r4, lsl #4
    35ec:	007d0216 	rsbseq	r0, sp, r6, lsl r2
    35f0:	00007702 	andeq	r7, r0, r2, lsl #14
    35f4:	0091cc15 	addseq	ip, r1, r5, lsl ip
    35f8:	00019c00 	andeq	r9, r1, r0, lsl #24
    35fc:	0005e200 	andeq	lr, r5, r0, lsl #4
    3600:	52011600 	andpl	r1, r1, #0, 12
    3604:	16800802 	strne	r0, [r0], r2, lsl #16
    3608:	91035101 	tstls	r3, r1, lsl #2
    360c:	01167ed0 			; <UNDEFINED> instruction: 0x01167ed0
    3610:	16380150 			; <UNDEFINED> instruction: 0x16380150
    3614:	02047d02 	andeq	r7, r4, #2, 26	; 0x80
    3618:	0216007b 	andseq	r0, r6, #123	; 0x7b
    361c:	7702007d 	smlsdxvc	r2, sp, r0, r0
    3620:	d4140000 	ldrle	r0, [r4], #-0
    3624:	60000091 	mulvs	r0, r1, r0
    3628:	15000006 	strne	r0, [r0, #-6]
    362c:	000091f0 	strdeq	r9, [r0], -r0
    3630:	00000667 	andeq	r0, r0, r7, ror #12
    3634:	0000061a 	andeq	r0, r0, sl, lsl r6
    3638:	02530116 	subseq	r0, r3, #-2147483643	; 0x80000005
    363c:	0116b908 	tsteq	r6, r8, lsl #18
    3640:	74030552 	strvc	r0, [r3], #-1362	; 0x552
    3644:	160000a0 	strne	r0, [r0], -r0, lsr #1
    3648:	03055101 	movweq	r5, #20737	; 0x5101
    364c:	0000a080 	andeq	sl, r0, r0, lsl #1
    3650:	05500116 	ldrbeq	r0, [r0, #-278]	; 0x116
    3654:	00a11403 	adceq	r1, r1, r3, lsl #8
    3658:	f4140000 			; <UNDEFINED> instruction: 0xf4140000
    365c:	7d000091 	stcvc	0, cr0, [r0, #-580]	; 0xfffffdbc
    3660:	00000006 	andeq	r0, r0, r6
    3664:	007a1800 	rsbseq	r1, sl, r0, lsl #16
    3668:	06350000 	ldrteq	r0, [r5], -r0
    366c:	6b190000 	blvs	643674 <__bss_end__+0x639114>
    3670:	09000000 	stmdbeq	r0, {}	; <UNPREDICTABLE>
    3674:	06250600 	strteq	r0, [r5], -r0, lsl #12
    3678:	7a180000 	bvc	603680 <__bss_end__+0x5f9120>
    367c:	4a000000 	bmi	3684 <_start-0x497c>
    3680:	19000006 	stmdbne	r0, {r1, r2}
    3684:	0000006b 	andeq	r0, r0, fp, rrx
    3688:	b31f007f 	tstlt	pc, #127	; 0x7f
    368c:	03000008 	movweq	r0, #8
    3690:	00038b1d 	andeq	r8, r3, sp, lsl fp
    3694:	0da41f00 	stceq	15, cr1, [r4]
    3698:	22030000 	andcs	r0, r3, #0
    369c:	000003a0 	andeq	r0, r0, r0, lsr #7
    36a0:	0001d320 	andeq	sp, r1, r0, lsr #6
    36a4:	211e0300 	tstcs	lr, r0, lsl #6
    36a8:	00000cfe 	strdeq	r0, [r0], -lr
    36ac:	00252903 	eoreq	r2, r5, r3, lsl #18
    36b0:	067d0000 	ldrbteq	r0, [sp], -r0
    36b4:	811c0000 	tsthi	ip, r0
    36b8:	22000000 	andcs	r0, r0, #0
    36bc:	05ff2000 	ldrbeq	r2, [pc, #0]!	; 36c4 <_start-0x493c>
    36c0:	66030000 	strvs	r0, [r3], -r0
    36c4:	0000ff00 	andeq	pc, r0, r0, lsl #30
    36c8:	b8000400 	stmdalt	r0, {sl}
    36cc:	0400000a 	streq	r0, [r0], #-10
    36d0:	000ca401 	andeq	sl, ip, r1, lsl #8
    36d4:	0e0e0100 	adfeqe	f0, f6, f0
    36d8:	0d0f0000 	stceq	0, cr0, [pc, #-0]	; 36e0 <_start-0x4920>
    36dc:	925c0000 	subsls	r0, ip, #0
    36e0:	00280000 	eoreq	r0, r8, r0
    36e4:	08400000 	stmdaeq	r0, {}^	; <UNPREDICTABLE>
    36e8:	04020000 	streq	r0, [r2], #-0
    36ec:	746e6905 	strbtvc	r6, [lr], #-2309	; 0x905
    36f0:	07040300 	streq	r0, [r4, -r0, lsl #6]
    36f4:	00000084 	andeq	r0, r0, r4, lsl #1
    36f8:	6f060103 	svcvs	0x00060103
    36fc:	03000003 	movweq	r0, #3
    3700:	03f80502 	mvnseq	r0, #8388608	; 0x800000
    3704:	04030000 	streq	r0, [r3], #-0
    3708:	0000b605 	andeq	fp, r0, r5, lsl #12
    370c:	05080300 	streq	r0, [r8, #-768]	; 0x300
    3710:	000000b1 	strheq	r0, [r0], -r1
    3714:	6d080103 	stfvss	f0, [r8, #-12]
    3718:	03000003 	movweq	r0, #3
    371c:	02810702 	addeq	r0, r1, #524288	; 0x80000
    3720:	04030000 	streq	r0, [r3], #-0
    3724:	00007f07 	andeq	r7, r0, r7, lsl #30
    3728:	07080300 	streq	r0, [r8, -r0, lsl #6]
    372c:	0000007a 	andeq	r0, r0, sl, ror r0
    3730:	f0070403 			; <UNDEFINED> instruction: 0xf0070403
    3734:	03000002 	movweq	r0, #2
    3738:	03760801 	cmneq	r6, #65536	; 0x10000
    373c:	04040000 	streq	r0, [r4], #-0
    3740:	0000007f 	andeq	r0, r0, pc, ror r0
    3744:	00007205 	andeq	r7, r0, r5, lsl #4
    3748:	05ff0600 	ldrbeq	r0, [pc, #1536]!	; 3d50 <_start-0x42b0>
    374c:	04010000 	streq	r0, [r1], #-0
    3750:	0000925c 	andeq	r9, r0, ip, asr r2
    3754:	00000028 	andeq	r0, r0, r8, lsr #32
    3758:	00ca9c01 	sbceq	r9, sl, r1, lsl #24
    375c:	70070000 	andvc	r0, r7, r0
    3760:	ac000092 	stcge	0, cr0, [r0], {146}	; 0x92
    3764:	08000000 	stmdaeq	r0, {}	; <UNPREDICTABLE>
    3768:	03055001 	movweq	r5, #20481	; 0x5001
    376c:	0000a14c 	andeq	sl, r0, ip, asr #2
    3770:	92780900 	rsbsls	r0, r8, #0, 18
    3774:	00ea0000 	rsceq	r0, sl, r0
    3778:	00c00000 	sbceq	r0, r0, r0
    377c:	01080000 	mrseq	r0, (UNDEF: 8)
    3780:	64080250 	strvs	r0, [r8], #-592	; 0x250
    3784:	927c0a00 	rsbsls	r0, ip, #0, 20
    3788:	00fb0000 	rscseq	r0, fp, r0
    378c:	0b000000 	bleq	3794 <_start-0x486c>
    3790:	00000025 	andeq	r0, r0, r5, lsr #32
    3794:	000000d9 	ldrdeq	r0, [r0], -r9
    3798:	0000790c 	andeq	r7, r0, ip, lsl #18
    379c:	a40d0000 	strge	r0, [sp], #-0
    37a0:	0200000d 	andeq	r0, r0, #13
    37a4:	0000e422 	andeq	lr, r0, r2, lsr #8
    37a8:	ca040400 	bgt	1047b0 <__bss_end__+0xfa250>
    37ac:	0e000000 	cdpeq	0, 0, cr0, cr0, cr0, {0}
    37b0:	000004bd 			; <UNDEFINED> instruction: 0x000004bd
    37b4:	00fb5002 	rscseq	r5, fp, r2
    37b8:	2c0c0000 	stccs	0, cr0, [ip], {-0}
    37bc:	00000000 	andeq	r0, r0, r0
    37c0:	000e030f 	andeq	r0, lr, pc, lsl #6
    37c4:	00630200 	rsbeq	r0, r3, r0, lsl #4
    37c8:	000000ff 	strdeq	r0, [r0], -pc	; <UNPREDICTABLE>
    37cc:	0b820004 	bleq	fe0837e4 <__bss_end__+0xfe079284>
    37d0:	01040000 	mrseq	r0, (UNDEF: 4)
    37d4:	00000ca4 	andeq	r0, r0, r4, lsr #25
    37d8:	000e2801 	andeq	r2, lr, r1, lsl #16
    37dc:	000d0f00 	andeq	r0, sp, r0, lsl #30
    37e0:	00928400 	addseq	r8, r2, r0, lsl #8
    37e4:	00003400 	andeq	r3, r0, r0, lsl #8
    37e8:	0008d700 	andeq	sp, r8, r0, lsl #14
    37ec:	05040200 	streq	r0, [r4, #-512]	; 0x200
    37f0:	00746e69 	rsbseq	r6, r4, r9, ror #28
    37f4:	84070403 	strhi	r0, [r7], #-1027	; 0x403
    37f8:	03000000 	movweq	r0, #0
    37fc:	036f0601 	cmneq	pc, #1048576	; 0x100000
    3800:	02030000 	andeq	r0, r3, #0
    3804:	0003f805 	andeq	pc, r3, r5, lsl #16
    3808:	05040300 	streq	r0, [r4, #-768]	; 0x300
    380c:	000000b6 	strheq	r0, [r0], -r6
    3810:	b1050803 	tstlt	r5, r3, lsl #16
    3814:	03000000 	movweq	r0, #0
    3818:	036d0801 	cmneq	sp, #65536	; 0x10000
    381c:	02030000 	andeq	r0, r3, #0
    3820:	00028107 	andeq	r8, r2, r7, lsl #2
    3824:	07040300 	streq	r0, [r4, -r0, lsl #6]
    3828:	0000007f 	andeq	r0, r0, pc, ror r0
    382c:	7a070803 	bvc	1c5840 <__bss_end__+0x1bb2e0>
    3830:	03000000 	movweq	r0, #0
    3834:	02f00704 	rscseq	r0, r0, #4, 14	; 0x100000
    3838:	01030000 	mrseq	r0, (UNDEF: 3)
    383c:	00037608 	andeq	r7, r3, r8, lsl #12
    3840:	0e5e0400 	cdpeq	4, 5, cr0, cr14, cr0, {0}
    3844:	0d010000 	stceq	0, cr0, [r1, #-0]
    3848:	00009284 	andeq	r9, r0, r4, lsl #5
    384c:	00000034 	andeq	r0, r0, r4, lsr r0
    3850:	00d89c01 	sbcseq	r9, r8, r1, lsl #24
    3854:	3c050000 	stccc	0, cr0, [r5], {-0}
    3858:	0100000e 	tsteq	r0, lr
    385c:	0000250e 	andeq	r2, r0, lr, lsl #10
    3860:	0e4a0500 	cdpeq	5, 4, cr0, cr10, cr0, {0}
    3864:	0e010000 	cdpeq	0, 0, cr0, cr1, cr0, {0}
    3868:	00000025 	andeq	r0, r0, r5, lsr #32
    386c:	00006806 	andeq	r6, r0, r6, lsl #16
    3870:	070f0100 	streq	r0, [pc, -r0, lsl #2]
    3874:	00737362 	rsbseq	r7, r3, r2, ror #6
    3878:	00d81101 	sbcseq	r1, r8, r1, lsl #2
    387c:	10b50000 	adcsne	r0, r5, r0
    3880:	56080000 	strpl	r0, [r8], -r0
    3884:	0100000e 	tsteq	r0, lr
    3888:	0000d812 	andeq	sp, r0, r2, lsl r8
    388c:	92ac0900 	adcls	r0, ip, #0, 18
    3890:	00f40000 	rscseq	r0, r4, r0
    3894:	b0090000 	andlt	r0, r9, r0
    3898:	fb000092 	blx	3aea <_start-0x4516>
    389c:	00000000 	andeq	r0, r0, r0
    38a0:	0025040a 	eoreq	r0, r5, sl, lsl #8
    38a4:	3c050000 	stccc	0, cr0, [r5], {-0}
    38a8:	0100000e 	tsteq	r0, lr
    38ac:	0000250e 	andeq	r2, r0, lr, lsl #10
    38b0:	0e4a0500 	cdpeq	5, 4, cr0, cr10, cr0, {0}
    38b4:	0e010000 	cdpeq	0, 0, cr0, cr1, cr0, {0}
    38b8:	00000025 	andeq	r0, r0, r5, lsr #32
    38bc:	00006806 	andeq	r6, r0, r6, lsl #16
    38c0:	06d80200 	ldrbeq	r0, [r8], r0, lsl #4
    38c4:	00000e03 	andeq	r0, r0, r3, lsl #28
    38c8:	ad006302 	stcge	3, cr6, [r0, #-8]
    38cc:	04000001 	streq	r0, [r0], #-1
    38d0:	000c1600 	andeq	r1, ip, r0, lsl #12
    38d4:	a4010400 	strge	r0, [r1], #-1024	; 0x400
    38d8:	0100000c 	tsteq	r0, ip
    38dc:	00000e80 	andeq	r0, r0, r0, lsl #29
    38e0:	00000d0f 	andeq	r0, r0, pc, lsl #26
    38e4:	00000030 	andeq	r0, r0, r0, lsr r0
    38e8:	00000000 	andeq	r0, r0, r0
    38ec:	00000975 	andeq	r0, r0, r5, ror r9
    38f0:	69050402 	stmdbvs	r5, {r1, sl}
    38f4:	0300746e 	movweq	r7, #1134	; 0x46e
    38f8:	00840704 	addeq	r0, r4, r4, lsl #14
    38fc:	01030000 	mrseq	r0, (UNDEF: 3)
    3900:	00036f06 	andeq	r6, r3, r6, lsl #30
    3904:	05020300 	streq	r0, [r2, #-768]	; 0x300
    3908:	000003f8 	strdeq	r0, [r0], -r8
    390c:	b6050403 	strlt	r0, [r5], -r3, lsl #8
    3910:	03000000 	movweq	r0, #0
    3914:	00b10508 	adcseq	r0, r1, r8, lsl #10
    3918:	01030000 	mrseq	r0, (UNDEF: 3)
    391c:	00036d08 	andeq	r6, r3, r8, lsl #26
    3920:	07020300 	streq	r0, [r2, -r0, lsl #6]
    3924:	00000281 	andeq	r0, r0, r1, lsl #5
    3928:	7f070403 	svcvc	0x00070403
    392c:	03000000 	movweq	r0, #0
    3930:	007a0708 	rsbseq	r0, sl, r8, lsl #14
    3934:	04030000 	streq	r0, [r3], #-0
    3938:	0002f007 	andeq	pc, r2, r7
    393c:	08010300 	stmdaeq	r1, {r8, r9}
    3940:	00000376 	andeq	r0, r0, r6, ror r3
    3944:	000e6604 	andeq	r6, lr, r4, lsl #12
    3948:	250e0100 	strcs	r0, [lr, #-256]	; 0x100
    394c:	b8000000 	stmdalt	r0, {}	; <UNPREDICTABLE>
    3950:	18000092 	stmdane	r0, {r1, r4, r7}
    3954:	01000000 	mrseq	r0, (UNDEF: 0)
    3958:	0000a29c 	muleq	r0, ip, r2
    395c:	0ed20500 	cdpeq	5, 13, cr0, cr2, cr0, {0}
    3960:	0f010000 	svceq	0x00010000
    3964:	0000002c 	andeq	r0, r0, ip, lsr #32
    3968:	000010d5 	ldrdeq	r1, [r0], -r5
    396c:	0eb50600 	cdpeq	6, 11, cr0, cr5, cr0, {0}
    3970:	17010000 	strne	r0, [r1, -r0]
    3974:	000092d0 	ldrdeq	r9, [r0], -r0
    3978:	00000014 	andeq	r0, r0, r4, lsl r0
    397c:	00c79c01 	sbceq	r9, r7, r1, lsl #24
    3980:	d2050000 	andle	r0, r5, #0
    3984:	0100000e 	tsteq	r0, lr
    3988:	00002c18 	andeq	r2, r0, r8, lsl ip
    398c:	0010f400 	andseq	pc, r0, r0, lsl #8
    3990:	03060000 	movweq	r0, #24576	; 0x6000
    3994:	0100000e 	tsteq	r0, lr
    3998:	0092e41f 	addseq	lr, r2, pc, lsl r4
    399c:	00004800 	andeq	r4, r0, r0, lsl #16
    39a0:	779c0100 	ldrvc	r0, [ip, r0, lsl #2]
    39a4:	07000001 	streq	r0, [r0, -r1]
    39a8:	00000eca 	andeq	r0, r0, sl, asr #29
    39ac:	01772a01 	cmneq	r7, r1, lsl #20
    39b0:	001c0000 	andseq	r0, ip, r0
    39b4:	ad072010 	stcge	0, cr2, [r7, #-64]	; 0xffffffc0
    39b8:	0100000e 	tsteq	r0, lr
    39bc:	0001772b 	andeq	r7, r1, fp, lsr #14
    39c0:	10002400 	andne	r2, r0, r0, lsl #8
    39c4:	0e740720 	cdpeq	7, 7, cr0, cr4, cr0, {1}
    39c8:	2c010000 	stccs	0, cr0, [r1], {-0}
    39cc:	00000177 	andeq	r0, r0, r7, ror r1
    39d0:	5a000000 	bpl	39d8 <_start-0x4628>
    39d4:	000e9408 	andeq	r9, lr, r8, lsl #8
    39d8:	772d0100 	strvc	r0, [sp, -r0, lsl #2]!
    39dc:	20000001 	andcs	r0, r0, r1
    39e0:	0092ec09 	addseq	lr, r2, r9, lsl #24
    39e4:	00007900 	andeq	r7, r0, r0, lsl #18
    39e8:	92f80900 	rscsls	r0, r8, #0, 18
    39ec:	00a20000 	adceq	r0, r2, r0
    39f0:	000a0000 	andeq	r0, sl, r0
    39f4:	8d000093 	stchi	0, cr0, [r0, #-588]	; 0xfffffdb4
    39f8:	3a000001 	bcc	3a04 <_start-0x45fc>
    39fc:	0b000001 	bleq	3a08 <_start-0x45f8>
    3a00:	4e015001 	cdpmi	0, 0, cr5, cr1, cr1, {0}
    3a04:	930c0a00 	movwls	r0, #51712	; 0xca00
    3a08:	019e0000 	orrseq	r0, lr, r0
    3a0c:	015a0000 	cmpeq	sl, r0
    3a10:	010b0000 	mrseq	r0, (UNDEF: 11)
    3a14:	010c0551 	tsteq	ip, r1, asr r5
    3a18:	0b5a0000 	bleq	1683a20 <__bss_end__+0x16794c0>
    3a1c:	0c055001 	stceq	0, cr5, [r5], {1}
    3a20:	20100024 	andscs	r0, r0, r4, lsr #32
    3a24:	93180c00 	tstls	r8, #0, 24
    3a28:	019e0000 	orrseq	r0, lr, r0
    3a2c:	010b0000 	mrseq	r0, (UNDEF: 11)
    3a30:	200c0551 	andcs	r0, ip, r1, asr r5
    3a34:	0b5a0000 	bleq	1683a3c <__bss_end__+0x16794dc>
    3a38:	0c055001 	stceq	0, cr5, [r5], {1}
    3a3c:	2010001c 	andscs	r0, r0, ip, lsl r0
    3a40:	250d0000 	strcs	r0, [sp, #-0]
    3a44:	08000000 	stmdaeq	r0, {}	; <UNPREDICTABLE>
    3a48:	00000e69 	andeq	r0, r0, r9, ror #28
    3a4c:	01880d01 	orreq	r0, r8, r1, lsl #26
    3a50:	0d100000 	ldceq	0, cr0, [r0, #-0]
    3a54:	0000002c 	andeq	r0, r0, ip, lsr #32
    3a58:	0004bd0e 	andeq	fp, r4, lr, lsl #26
    3a5c:	9e500200 	cdpls	2, 5, cr0, cr0, cr0, {0}
    3a60:	0f000001 	svceq	0x00000001
    3a64:	0000002c 	andeq	r0, r0, ip, lsr #32
    3a68:	0ec41000 	cdpeq	0, 12, cr1, cr4, cr0, {0}
    3a6c:	9c020000 	stcls	0, cr0, [r2], {-0}
    3a70:	00002c0f 	andeq	r2, r0, pc, lsl #24
    3a74:	002c0f00 	eoreq	r0, ip, r0, lsl #30
    3a78:	00000000 	andeq	r0, r0, r0
    3a7c:	000001d8 	ldrdeq	r0, [r0], -r8
    3a80:	0d040004 	stceq	0, cr0, [r4, #-16]
    3a84:	01040000 	mrseq	r0, (UNDEF: 4)
    3a88:	00000ca4 	andeq	r0, r0, r4, lsr #25
    3a8c:	000ef401 	andeq	pc, lr, r1, lsl #8
    3a90:	000d0f00 	andeq	r0, sp, r0, lsl #30
    3a94:	00932c00 	addseq	r2, r3, r0, lsl #24
    3a98:	00008800 	andeq	r8, r0, r0, lsl #16
    3a9c:	000a1200 	andeq	r1, sl, r0, lsl #4
    3aa0:	05040200 	streq	r0, [r4, #-512]	; 0x200
    3aa4:	00746e69 	rsbseq	r6, r4, r9, ror #28
    3aa8:	84070403 	strhi	r0, [r7], #-1027	; 0x403
    3aac:	03000000 	movweq	r0, #0
    3ab0:	036f0601 	cmneq	pc, #1048576	; 0x100000
    3ab4:	02030000 	andeq	r0, r3, #0
    3ab8:	0003f805 	andeq	pc, r3, r5, lsl #16
    3abc:	05040300 	streq	r0, [r4, #-768]	; 0x300
    3ac0:	000000b6 	strheq	r0, [r0], -r6
    3ac4:	b1050803 	tstlt	r5, r3, lsl #16
    3ac8:	03000000 	movweq	r0, #0
    3acc:	036d0801 	cmneq	sp, #65536	; 0x10000
    3ad0:	02030000 	andeq	r0, r3, #0
    3ad4:	00028107 	andeq	r8, r2, r7, lsl #2
    3ad8:	07040300 	streq	r0, [r4, -r0, lsl #6]
    3adc:	0000007f 	andeq	r0, r0, pc, ror r0
    3ae0:	7a070803 	bvc	1c5af4 <__bss_end__+0x1bb594>
    3ae4:	03000000 	movweq	r0, #0
    3ae8:	02f00704 	rscseq	r0, r0, #4, 14	; 0x100000
    3aec:	01030000 	mrseq	r0, (UNDEF: 3)
    3af0:	00037608 	andeq	r7, r3, r8, lsl #12
    3af4:	0f130400 	svceq	0x00130400
    3af8:	05010000 	streq	r0, [r1, #-0]
    3afc:	0000932c 	andeq	r9, r0, ip, lsr #6
    3b00:	0000001c 	andeq	r0, r0, ip, lsl r0
    3b04:	009e9c01 	addseq	r9, lr, r1, lsl #24
    3b08:	0d050000 	stceq	0, cr0, [r5, #-0]
    3b0c:	0100000f 	tsteq	r0, pc
    3b10:	00002c05 	andeq	r2, r0, r5, lsl #24
    3b14:	00111e00 	andseq	r1, r1, r0, lsl #28
    3b18:	d7060000 	strle	r0, [r6, -r0]
    3b1c:	0100000e 	tsteq	r0, lr
    3b20:	00002c11 	andeq	r2, r0, r1, lsl ip
    3b24:	00934800 	addseq	r4, r3, r0, lsl #16
    3b28:	00001400 	andeq	r1, r0, r0, lsl #8
    3b2c:	cb9c0100 	blgt	fe703f34 <__bss_end__+0xfe6f99d4>
    3b30:	07000000 	streq	r0, [r0, -r0]
    3b34:	00009354 	andeq	r9, r0, r4, asr r3
    3b38:	000001ca 	andeq	r0, r0, sl, asr #3
    3b3c:	05500108 	ldrbeq	r0, [r0, #-264]	; 0x108
    3b40:	0030040c 	eorseq	r0, r0, ip, lsl #8
    3b44:	06000020 	streq	r0, [r0], -r0, lsr #32
    3b48:	00000f29 	andeq	r0, r0, r9, lsr #30
    3b4c:	002c1601 	eoreq	r1, ip, r1, lsl #12
    3b50:	935c0000 	cmpls	ip, #0
    3b54:	000c0000 	andeq	r0, ip, r0
    3b58:	9c010000 	stcls	0, cr0, [r1], {-0}
    3b5c:	000000f9 	strdeq	r0, [r0], -r9
    3b60:	01007509 	tsteq	r0, r9, lsl #10
    3b64:	00002c1a 	andeq	r2, r0, sl, lsl ip
    3b68:	0a500100 	beq	1403f70 <__bss_end__+0x13f9a10>
    3b6c:	00009364 	andeq	r9, r0, r4, ror #6
    3b70:	0000009e 	muleq	r0, lr, r0
    3b74:	0f200400 	svceq	0x00200400
    3b78:	1f010000 	svcne	0x00010000
    3b7c:	00009368 	andeq	r9, r0, r8, ror #6
    3b80:	00000024 	andeq	r0, r0, r4, lsr #32
    3b84:	01579c01 	cmpeq	r7, r1, lsl #24
    3b88:	750b0000 	strvc	r0, [fp, #-0]
    3b8c:	1f010073 	svcne	0x00010073
    3b90:	0000002c 	andeq	r0, r0, ip, lsr #32
    3b94:	00001152 	andeq	r1, r0, r2, asr r1
    3b98:	00627209 	rsbeq	r7, r2, r9, lsl #4
    3b9c:	002c2001 	eoreq	r2, ip, r1
    3ba0:	54010000 	strpl	r0, [r1], #-0
    3ba4:	0093780c 	addseq	r7, r3, ip, lsl #16
    3ba8:	00001000 	andeq	r1, r0, r0
    3bac:	00014d00 	andeq	r4, r1, r0, lsl #26
    3bb0:	61720d00 	cmnvs	r2, r0, lsl #26
    3bb4:	2c220100 	stfcss	f0, [r2], #-0
    3bb8:	70000000 	andvc	r0, r0, r0
    3bbc:	0a000011 	beq	3c08 <_start-0x43f8>
    3bc0:	0000937c 	andeq	r9, r0, ip, ror r3
    3bc4:	000000cb 	andeq	r0, r0, fp, asr #1
    3bc8:	93740a00 	cmnls	r4, #0, 20
    3bcc:	00cb0000 	sbceq	r0, fp, r0
    3bd0:	04000000 	streq	r0, [r0], #-0
    3bd4:	000004bd 			; <UNDEFINED> instruction: 0x000004bd
    3bd8:	938c2801 	orrls	r2, ip, #65536	; 0x10000
    3bdc:	00140000 	andseq	r0, r4, r0
    3be0:	9c010000 	stcls	0, cr0, [r1], {-0}
    3be4:	00000190 	muleq	r0, r0, r1
    3be8:	00736d0b 	rsbseq	r6, r3, fp, lsl #26
    3bec:	002c2801 	eoreq	r2, ip, r1, lsl #16
    3bf0:	11830000 	orrne	r0, r3, r0
    3bf4:	9c070000 	stcls	0, cr0, [r7], {-0}
    3bf8:	f9000093 			; <UNDEFINED> instruction: 0xf9000093
    3bfc:	08000000 	stmdaeq	r0, {}	; <UNPREDICTABLE>
    3c00:	f3075001 	vhadd.u8	d5, d7, d1
    3c04:	e80a5001 	stmda	sl, {r0, ip, lr}
    3c08:	00001e03 	andeq	r1, r0, r3, lsl #28
    3c0c:	000eea04 	andeq	lr, lr, r4, lsl #20
    3c10:	a02b0100 	eorge	r0, fp, r0, lsl #2
    3c14:	14000093 	strne	r0, [r0], #-147	; 0x93
    3c18:	01000000 	mrseq	r0, (UNDEF: 0)
    3c1c:	0001ca9c 	muleq	r1, ip, sl
    3c20:	65730b00 	ldrbvs	r0, [r3, #-2816]!	; 0xb00
    3c24:	2b010063 	blcs	43db8 <__bss_end__+0x39858>
    3c28:	0000002c 	andeq	r0, r0, ip, lsr #32
    3c2c:	000011a4 	andeq	r1, r0, r4, lsr #3
    3c30:	0093b007 	addseq	fp, r3, r7
    3c34:	00015700 	andeq	r5, r1, r0, lsl #14
    3c38:	50010800 	andpl	r0, r1, r0, lsl #16
    3c3c:	5001f307 	andpl	pc, r1, r7, lsl #6
    3c40:	1e03e80a 	cdpne	8, 0, cr14, cr3, cr10, {0}
    3c44:	070e0000 	streq	r0, [lr, -r0]
    3c48:	0200000f 	andeq	r0, r0, #15
    3c4c:	00002ca8 	andeq	r2, r0, r8, lsr #25
    3c50:	002c0f00 	eoreq	r0, ip, r0, lsl #30
    3c54:	00000000 	andeq	r0, r0, r0
    3c58:	00000882 	andeq	r0, r0, r2, lsl #17
    3c5c:	0de70004 	stcleq	0, cr0, [r7, #16]!
    3c60:	01040000 	mrseq	r0, (UNDEF: 4)
    3c64:	00000ca4 	andeq	r0, r0, r4, lsr #25
    3c68:	000f8201 	andeq	r8, pc, r1, lsl #4
    3c6c:	000d0f00 	andeq	r0, sp, r0, lsl #30
    3c70:	0093b400 	addseq	fp, r3, r0, lsl #8
    3c74:	0005a000 	andeq	sl, r5, r0
    3c78:	000ab900 	andeq	fp, sl, r0, lsl #18
    3c7c:	07080200 	streq	r0, [r8, -r0, lsl #4]
    3c80:	0000007a 	andeq	r0, r0, sl, ror r0
    3c84:	84070402 	strhi	r0, [r7], #-1026	; 0x402
    3c88:	02000000 	andeq	r0, r0, #0
    3c8c:	036f0601 	cmneq	pc, #1048576	; 0x100000
    3c90:	02020000 	andeq	r0, r2, #0
    3c94:	0003f805 	andeq	pc, r3, r5, lsl #16
    3c98:	05040200 	streq	r0, [r4, #-512]	; 0x200
    3c9c:	000000b6 	strheq	r0, [r0], -r6
    3ca0:	b1050802 	tstlt	r5, r2, lsl #16
    3ca4:	02000000 	andeq	r0, r0, #0
    3ca8:	036d0801 	cmneq	sp, #65536	; 0x10000
    3cac:	02020000 	andeq	r0, r2, #0
    3cb0:	00028107 	andeq	r8, r2, r7, lsl #2
    3cb4:	07040200 	streq	r0, [r4, -r0, lsl #4]
    3cb8:	0000007f 	andeq	r0, r0, pc, ror r0
    3cbc:	69050403 	stmdbvs	r5, {r0, r1, sl}
    3cc0:	0200746e 	andeq	r7, r0, #1845493760	; 0x6e000000
    3cc4:	02f00704 	rscseq	r0, r0, #4, 14	; 0x100000
    3cc8:	01020000 	mrseq	r0, (UNDEF: 2)
    3ccc:	00037608 	andeq	r7, r3, r8, lsl #12
    3cd0:	02010400 	andeq	r0, r1, #0, 8
    3cd4:	0000b20c 	andeq	fp, r0, ip, lsl #4
    3cd8:	072c0500 	streq	r0, [ip, -r0, lsl #10]!
    3cdc:	05000000 	streq	r0, [r0, #-0]
    3ce0:	00000ba5 	andeq	r0, r0, r5, lsr #23
    3ce4:	0be70501 	bleq	ff9c50f0 <__bss_end__+0xff9bab90>
    3ce8:	05040000 	streq	r0, [r4, #-0]
    3cec:	0000077b 	andeq	r0, r0, fp, ror r7
    3cf0:	09610505 	stmdbeq	r1!, {r0, r2, r8, sl}^
    3cf4:	05060000 	streq	r0, [r6, #-0]
    3cf8:	00000c04 	andeq	r0, r0, r4, lsl #24
    3cfc:	0c130507 	cfldr32eq	mvfx0, [r3], {7}
    3d00:	05030000 	streq	r0, [r3, #-0]
    3d04:	00000c22 	andeq	r0, r0, r2, lsr #24
    3d08:	e1060002 	tst	r6, r2
    3d0c:	02000010 	andeq	r0, r0, #16
    3d10:	00007915 	andeq	r7, r0, r5, lsl r9
    3d14:	10bb0700 	adcsne	r0, fp, r0, lsl #14
    3d18:	3f010000 	svccc	0x00010000
    3d1c:	000093b4 			; <UNDEFINED> instruction: 0x000093b4
    3d20:	000000d4 	ldrdeq	r0, [r0], -r4
    3d24:	01339c01 	teqeq	r3, r1, lsl #24
    3d28:	70080000 	andvc	r0, r8, r0
    3d2c:	01006e69 	tsteq	r0, r9, ror #28
    3d30:	00002c3f 	andeq	r2, r0, pc, lsr ip
    3d34:	0011c500 	andseq	ip, r1, r0, lsl #10
    3d38:	0fbe0900 	svceq	0x00be0900
    3d3c:	47010000 	strmi	r0, [r1, -r0]
    3d40:	00000133 	andeq	r0, r0, r3, lsr r1
    3d44:	000011e3 	andeq	r1, r0, r3, ror #3
    3d48:	0010ed09 	andseq	lr, r0, r9, lsl #26
    3d4c:	2c490100 	stfcse	f0, [r9], {-0}
    3d50:	38000000 	stmdacc	r0, {}	; <UNPREDICTABLE>
    3d54:	09000012 	stmdbeq	r0, {r1, r4}
    3d58:	0000105b 	andeq	r1, r0, fp, asr r0
    3d5c:	002c5701 	eoreq	r5, ip, r1, lsl #14
    3d60:	14040000 	strne	r0, [r4], #-0
    3d64:	480a0000 	stmdami	sl, {}	; <UNPREDICTABLE>
    3d68:	41000094 	swpmi	r0, r4, [r0]	; <UNPREDICTABLE>
    3d6c:	22000008 	andcs	r0, r0, #8
    3d70:	0b000001 	bleq	3d7c <_start-0x4284>
    3d74:	75025001 	strvc	r5, [r2, #-1]
    3d78:	7c0c0000 	stcvc	0, cr0, [ip], {-0}
    3d7c:	62000094 	andvs	r0, r0, #148	; 0x94
    3d80:	0b000008 	bleq	3da8 <_start-0x4258>
    3d84:	75025001 	strvc	r5, [r2, #-1]
    3d88:	0d000000 	stceq	0, cr0, [r0, #-0]
    3d8c:	00013904 	andeq	r3, r1, r4, lsl #18
    3d90:	002c0e00 	eoreq	r0, ip, r0, lsl #28
    3d94:	a1070000 	mrsge	r0, (UNDEF: 7)
    3d98:	01000010 	tsteq	r0, r0, lsl r0
    3d9c:	00948860 	addseq	r8, r4, r0, ror #16
    3da0:	00003800 	andeq	r3, r0, r0, lsl #16
    3da4:	969c0100 	ldrls	r0, [ip], r0, lsl #2
    3da8:	08000001 	stmdaeq	r0, {r0}
    3dac:	006e6970 	rsbeq	r6, lr, r0, ror r9
    3db0:	002c6001 	eoreq	r6, ip, r1
    3db4:	14340000 	ldrtne	r0, [r4], #-0
    3db8:	be090000 	cdplt	0, 0, cr0, cr9, cr0, {0}
    3dbc:	0100000f 	tsteq	r0, pc
    3dc0:	00013367 	andeq	r3, r1, r7, ror #6
    3dc4:	00145500 	andseq	r5, r4, r0, lsl #10
    3dc8:	105b0900 	subsne	r0, fp, r0, lsl #18
    3dcc:	68010000 	stmdavs	r1, {}	; <UNPREDICTABLE>
    3dd0:	0000002c 	andeq	r0, r0, ip, lsr #32
    3dd4:	0000148b 	andeq	r1, r0, fp, lsl #9
    3dd8:	0094b80c 	addseq	fp, r4, ip, lsl #16
    3ddc:	00086200 	andeq	r6, r8, r0, lsl #4
    3de0:	51010b00 	tstpl	r1, r0, lsl #22
    3de4:	01f33107 	mvnseq	r3, r7, lsl #2
    3de8:	241a4f50 	ldrcs	r4, [sl], #-3920	; 0xf50
    3dec:	75070000 	strvc	r0, [r7, #-0]
    3df0:	0100000f 	tsteq	r0, pc
    3df4:	0094c07b 	addseq	ip, r4, fp, ror r0
    3df8:	00003800 	andeq	r3, r0, r0, lsl #16
    3dfc:	ee9c0100 	fmle	f0, f4, f0
    3e00:	08000001 	stmdaeq	r0, {r0}
    3e04:	006e6970 	rsbeq	r6, lr, r0, ror r9
    3e08:	002c7b01 	eoreq	r7, ip, r1, lsl #22
    3e0c:	14cb0000 	strbne	r0, [fp], #0
    3e10:	be090000 	cdplt	0, 0, cr0, cr9, cr0, {0}
    3e14:	0100000f 	tsteq	r0, pc
    3e18:	00013381 	andeq	r3, r1, r1, lsl #7
    3e1c:	0014ec00 	andseq	lr, r4, r0, lsl #24
    3e20:	105b0900 	subsne	r0, fp, r0, lsl #18
    3e24:	82010000 	andhi	r0, r1, #0
    3e28:	0000002c 	andeq	r0, r0, ip, lsr #32
    3e2c:	00001522 	andeq	r1, r0, r2, lsr #10
    3e30:	0094f00c 	addseq	pc, r4, ip
    3e34:	00086200 	andeq	r6, r8, r0, lsl #4
    3e38:	51010b00 	tstpl	r1, r0, lsl #22
    3e3c:	01f33107 	mvnseq	r3, r7, lsl #2
    3e40:	241a4f50 	ldrcs	r4, [sl], #-3920	; 0xf50
    3e44:	78070000 	stmdavc	r7, {}	; <UNPREDICTABLE>
    3e48:	01000010 	tsteq	r0, r0, lsl r0
    3e4c:	0094f895 	umullseq	pc, r4, r5, r8	; <UNPREDICTABLE>
    3e50:	0000cc00 	andeq	ip, r0, r0, lsl #24
    3e54:	649c0100 	ldrvs	r0, [ip], #256	; 0x100
    3e58:	08000002 	stmdaeq	r0, {r1}
    3e5c:	006e6970 	rsbeq	r6, lr, r0, ror r9
    3e60:	002c9501 	eoreq	r9, ip, r1, lsl #10
    3e64:	15620000 	strbne	r0, [r2, #-0]!
    3e68:	be090000 	cdplt	0, 0, cr0, cr9, cr0, {0}
    3e6c:	0100000f 	tsteq	r0, pc
    3e70:	0001339b 	muleq	r1, fp, r3
    3e74:	00158000 	andseq	r8, r5, r0
    3e78:	10ed0900 	rscne	r0, sp, r0, lsl #18
    3e7c:	9d010000 	stcls	0, cr0, [r1, #-0]
    3e80:	0000002c 	andeq	r0, r0, ip, lsr #32
    3e84:	000015d5 	ldrdeq	r1, [r0], -r5
    3e88:	00105b09 	andseq	r5, r0, r9, lsl #22
    3e8c:	2cab0100 	stfcss	f0, [fp]
    3e90:	a1000000 	mrsge	r0, (UNDEF: 0)
    3e94:	0a000017 	beq	3ef8 <_start-0x4108>
    3e98:	0000958c 	andeq	r9, r0, ip, lsl #11
    3e9c:	00000841 	andeq	r0, r0, r1, asr #16
    3ea0:	00000253 	andeq	r0, r0, r3, asr r2
    3ea4:	0250010b 	subseq	r0, r0, #-1073741822	; 0xc0000002
    3ea8:	0c000075 	stceq	0, cr0, [r0], {117}	; 0x75
    3eac:	000095b8 			; <UNDEFINED> instruction: 0x000095b8
    3eb0:	00000862 	andeq	r0, r0, r2, ror #16
    3eb4:	0250010b 	subseq	r0, r0, #-1073741822	; 0xc0000002
    3eb8:	00000075 	andeq	r0, r0, r5, ror r0
    3ebc:	0010010f 	andseq	r0, r0, pc, lsl #2
    3ec0:	64b20100 	ldrtvs	r0, [r2], #256	; 0x100
    3ec4:	c4000000 	strgt	r0, [r0], #-0
    3ec8:	4c000095 	stcmi	0, cr0, [r0], {149}	; 0x95
    3ecc:	01000000 	mrseq	r0, (UNDEF: 0)
    3ed0:	0002ac9c 	muleq	r2, ip, ip
    3ed4:	69700800 	ldmdbvs	r0!, {fp}^
    3ed8:	b201006e 	andlt	r0, r1, #110	; 0x6e
    3edc:	0000002c 	andeq	r0, r0, ip, lsr #32
    3ee0:	000017bf 			; <UNDEFINED> instruction: 0x000017bf
    3ee4:	01007610 	tsteq	r0, r0, lsl r6
    3ee8:	00002cb8 			; <UNDEFINED> instruction: 0x00002cb8
    3eec:	00181700 	andseq	r1, r8, r0, lsl #14
    3ef0:	95e41100 	strbls	r1, [r4, #256]!	; 0x100
    3ef4:	08410000 	stmdaeq	r1, {}^	; <UNPREDICTABLE>
    3ef8:	f4110000 			; <UNDEFINED> instruction: 0xf4110000
    3efc:	41000095 	swpmi	r0, r5, [r0]	; <UNPREDICTABLE>
    3f00:	00000008 	andeq	r0, r0, r8
    3f04:	00106307 	andseq	r6, r0, r7, lsl #6
    3f08:	10c40100 	sbcne	r0, r4, r0, lsl #2
    3f0c:	24000096 	strcs	r0, [r0], #-150	; 0x96
    3f10:	01000000 	mrseq	r0, (UNDEF: 0)
    3f14:	0002fc9c 	muleq	r2, ip, ip
    3f18:	69700800 	ldmdbvs	r0!, {fp}^
    3f1c:	c401006e 	strgt	r0, [r1], #-110	; 0x6e
    3f20:	0000002c 	andeq	r0, r0, ip, lsr #32
    3f24:	0000184d 	andeq	r1, r0, sp, asr #16
    3f28:	01007608 	tsteq	r0, r8, lsl #12
    3f2c:	00002cc4 	andeq	r2, r0, r4, asr #25
    3f30:	00188700 	andseq	r8, r8, r0, lsl #14
    3f34:	96280a00 	strtls	r0, [r8], -r0, lsl #20
    3f38:	013e0000 	teqeq	lr, r0
    3f3c:	02f20000 	rscseq	r0, r2, #0
    3f40:	010b0000 	mrseq	r0, (UNDEF: 11)
    3f44:	01f30350 	mvnseq	r0, r0, asr r3
    3f48:	30110050 	andscc	r0, r1, r0, asr r0
    3f4c:	96000096 			; <UNDEFINED> instruction: 0x96000096
    3f50:	00000001 	andeq	r0, r0, r1
    3f54:	0007d507 	andeq	sp, r7, r7, lsl #10
    3f58:	34d00100 	ldrbcc	r0, [r0], #256	; 0x100
    3f5c:	d8000096 	stmdale	r0, {r1, r2, r4, r7}
    3f60:	01000000 	mrseq	r0, (UNDEF: 0)
    3f64:	0003819c 	muleq	r3, ip, r1
    3f68:	69700800 	ldmdbvs	r0!, {fp}^
    3f6c:	d001006e 	andle	r0, r1, lr, rrx
    3f70:	0000002c 	andeq	r0, r0, ip, lsr #32
    3f74:	000018c1 	andeq	r1, r0, r1, asr #17
    3f78:	000bd412 	andeq	sp, fp, r2, lsl r4
    3f7c:	b2d00100 	sbcslt	r0, r0, #0, 2
    3f80:	df000000 	svcle	0x00000000
    3f84:	09000018 	stmdbeq	r0, {r3, r4}
    3f88:	00000fbe 			; <UNDEFINED> instruction: 0x00000fbe
    3f8c:	0133d801 	teqeq	r3, r1, lsl #16
    3f90:	19000000 	stmdbne	r0, {}	; <UNPREDICTABLE>
    3f94:	ed090000 	stc	0, cr0, [r9, #-0]
    3f98:	01000010 	tsteq	r0, r0, lsl r0
    3f9c:	00002cd9 	ldrdeq	r2, [r0], -r9
    3fa0:	00195500 	andseq	r5, r9, r0, lsl #10
    3fa4:	105b0900 	subsne	r0, fp, r0, lsl #18
    3fa8:	e7010000 	str	r0, [r1, -r0]
    3fac:	0000002c 	andeq	r0, r0, ip, lsr #32
    3fb0:	00001b21 	andeq	r1, r0, r1, lsr #22
    3fb4:	0096d00a 	addseq	sp, r6, sl
    3fb8:	00084100 	andeq	r4, r8, r0, lsl #2
    3fbc:	00037000 	andeq	r7, r3, r0
    3fc0:	50010b00 	andpl	r0, r1, r0, lsl #22
    3fc4:	00007602 	andeq	r7, r0, r2, lsl #12
    3fc8:	0097000c 	addseq	r0, r7, ip
    3fcc:	00086200 	andeq	r6, r8, r0, lsl #4
    3fd0:	50010b00 	andpl	r0, r1, r0, lsl #22
    3fd4:	00007602 	andeq	r7, r0, r2, lsl #12
    3fd8:	10870700 	addne	r0, r7, r0, lsl #14
    3fdc:	f0010000 			; <UNDEFINED> instruction: 0xf0010000
    3fe0:	0000970c 	andeq	r9, r0, ip, lsl #14
    3fe4:	00000038 	andeq	r0, r0, r8, lsr r0
    3fe8:	03d99c01 	bicseq	r9, r9, #256	; 0x100
    3fec:	70080000 	andvc	r0, r8, r0
    3ff0:	01006e69 	tsteq	r0, r9, ror #28
    3ff4:	00002cf0 	strdeq	r2, [r0], -r0
    3ff8:	001b5200 	andseq	r5, fp, r0, lsl #4
    3ffc:	0fbe0900 	svceq	0x00be0900
    4000:	f6010000 			; <UNDEFINED> instruction: 0xf6010000
    4004:	00000133 	andeq	r0, r0, r3, lsr r1
    4008:	00001b73 	andeq	r1, r0, r3, ror fp
    400c:	00105b09 	andseq	r5, r0, r9, lsl #22
    4010:	2cf70100 	ldfcse	f0, [r7]
    4014:	a9000000 	stmdbge	r0, {}	; <UNPREDICTABLE>
    4018:	0c00001b 	stceq	0, cr0, [r0], {27}
    401c:	0000973c 	andeq	r9, r0, ip, lsr r7
    4020:	00000862 	andeq	r0, r0, r2, ror #16
    4024:	0751010b 	ldrbeq	r0, [r1, -fp, lsl #2]
    4028:	5001f331 	andpl	pc, r1, r1, lsr r3	; <UNPREDICTABLE>
    402c:	00241a4f 	eoreq	r1, r4, pc, asr #20
    4030:	0f691300 	svceq	0x00691300
    4034:	1e010000 	cdpne	0, 0, cr0, cr1, cr0, {0}
    4038:	00006401 	andeq	r6, r0, r1, lsl #8
    403c:	00974400 	addseq	r4, r7, r0, lsl #8
    4040:	00002c00 	andeq	r2, r0, r0, lsl #24
    4044:	0d9c0100 	ldfeqs	f0, [ip]
    4048:	14000004 	strne	r0, [r0], #-4
    404c:	00000f6c 	andeq	r0, r0, ip, ror #30
    4050:	2c011e01 	stccs	14, cr1, [r1], {1}
    4054:	e9000000 	stmdb	r0, {}	; <UNPREDICTABLE>
    4058:	1100001b 	tstne	r0, fp, lsl r0
    405c:	00009754 	andeq	r9, r0, r4, asr r7
    4060:	00000841 	andeq	r0, r0, r1, asr #16
    4064:	100b1500 	andne	r1, fp, r0, lsl #10
    4068:	2d010000 	stccs	0, cr0, [r1, #-0]
    406c:	00977001 	addseq	r7, r7, r1
    4070:	00008400 	andeq	r8, r0, r0, lsl #8
    4074:	d19c0100 	orrsle	r0, ip, r0, lsl #2
    4078:	16000004 	strne	r0, [r0], -r4
    407c:	006e6970 	rsbeq	r6, lr, r0, ror r9
    4080:	2c012d01 	stccs	13, cr2, [r1], {1}
    4084:	0a000000 	beq	408c <_start-0x3f74>
    4088:	1700001c 	smladne	r0, ip, r0, r0
    408c:	00000f90 	muleq	r0, r0, pc	; <UNPREDICTABLE>
    4090:	2c013f01 	stccs	15, cr3, [r1], {1}
    4094:	36000000 	strcc	r0, [r0], -r0
    4098:	1800001c 	stmdane	r0, {r2, r3, r4}
    409c:	0000978c 	andeq	r9, r0, ip, lsl #15
    40a0:	0000001c 	andeq	r0, r0, ip, lsl r0
    40a4:	00000473 	andeq	r0, r0, r3, ror r4
    40a8:	00105b17 	andseq	r5, r0, r7, lsl fp
    40ac:	01360100 	teqeq	r6, r0, lsl #2
    40b0:	0000002c 	andeq	r0, r0, ip, lsr #32
    40b4:	00001c54 	andeq	r1, r0, r4, asr ip
    40b8:	00979811 	addseq	r9, r7, r1, lsl r8
    40bc:	00084100 	andeq	r4, r8, r0, lsl #2
    40c0:	97a81100 	strls	r1, [r8, r0, lsl #2]!
    40c4:	08620000 	stmdaeq	r2!, {}^	; <UNPREDICTABLE>
    40c8:	18000000 	stmdane	r0, {}	; <UNPREDICTABLE>
    40cc:	000097ac 	andeq	r9, r0, ip, lsr #15
    40d0:	00000020 	andeq	r0, r0, r0, lsr #32
    40d4:	000004a3 	andeq	r0, r0, r3, lsr #9
    40d8:	00105b17 	andseq	r5, r0, r7, lsl fp
    40dc:	013a0100 	teqeq	sl, r0, lsl #2
    40e0:	0000002c 	andeq	r0, r0, ip, lsr #32
    40e4:	00001c72 	andeq	r1, r0, r2, ror ip
    40e8:	0097b811 	addseq	fp, r7, r1, lsl r8
    40ec:	00084100 	andeq	r4, r8, r0, lsl #2
    40f0:	97cc1100 	strbls	r1, [ip, r0, lsl #2]
    40f4:	08620000 	stmdaeq	r2!, {}^	; <UNPREDICTABLE>
    40f8:	11000000 	mrsne	r0, (UNDEF: 0)
    40fc:	00009784 	andeq	r9, r0, r4, lsl #15
    4100:	0000087e 	andeq	r0, r0, lr, ror r8
    4104:	0097d011 	addseq	sp, r7, r1, lsl r0
    4108:	00087e00 	andeq	r7, r8, r0, lsl #28
    410c:	97dc1100 	ldrbls	r1, [ip, r0, lsl #2]
    4110:	08410000 	stmdaeq	r1, {}^	; <UNPREDICTABLE>
    4114:	e8110000 	ldmda	r1, {}	; <UNPREDICTABLE>
    4118:	62000097 	andvs	r0, r0, #151	; 0x97
    411c:	11000008 	tstne	r0, r8
    4120:	000097ec 	andeq	r9, r0, ip, ror #15
    4124:	0000087e 	andeq	r0, r0, lr, ror r8
    4128:	10cb1500 	sbcne	r1, fp, r0, lsl #10
    412c:	4a010000 	bmi	44134 <__bss_end__+0x39bd4>
    4130:	0097f401 	addseq	pc, r7, r1, lsl #8
    4134:	00008400 	andeq	r8, r0, r0, lsl #8
    4138:	959c0100 	ldrls	r0, [ip, #256]	; 0x100
    413c:	16000005 	strne	r0, [r0], -r5
    4140:	006e6970 	rsbeq	r6, lr, r0, ror r9
    4144:	2c014a01 	stccs	10, cr4, [r1], {1}
    4148:	90000000 	andls	r0, r0, r0
    414c:	1700001c 	smladne	r0, ip, r0, r0
    4150:	00000f90 	muleq	r0, r0, pc	; <UNPREDICTABLE>
    4154:	2c015b01 	stccs	11, cr5, [r1], {1}
    4158:	bc000000 	stclt	0, cr0, [r0], {-0}
    415c:	1800001c 	stmdane	r0, {r2, r3, r4}
    4160:	00009810 	andeq	r9, r0, r0, lsl r8
    4164:	0000001c 	andeq	r0, r0, ip, lsl r0
    4168:	00000537 	andeq	r0, r0, r7, lsr r5
    416c:	00105b17 	andseq	r5, r0, r7, lsl fp
    4170:	01520100 	cmpeq	r2, r0, lsl #2
    4174:	0000002c 	andeq	r0, r0, ip, lsr #32
    4178:	00001cda 	ldrdeq	r1, [r0], -sl
    417c:	00981c11 	addseq	r1, r8, r1, lsl ip
    4180:	00084100 	andeq	r4, r8, r0, lsl #2
    4184:	982c1100 	stmdals	ip!, {r8, ip}
    4188:	08620000 	stmdaeq	r2!, {}^	; <UNPREDICTABLE>
    418c:	18000000 	stmdane	r0, {}	; <UNPREDICTABLE>
    4190:	00009830 	andeq	r9, r0, r0, lsr r8
    4194:	00000020 	andeq	r0, r0, r0, lsr #32
    4198:	00000567 	andeq	r0, r0, r7, ror #10
    419c:	00105b17 	andseq	r5, r0, r7, lsl fp
    41a0:	01560100 	cmpeq	r6, r0, lsl #2
    41a4:	0000002c 	andeq	r0, r0, ip, lsr #32
    41a8:	00001cf8 	strdeq	r1, [r0], -r8
    41ac:	00983c11 	addseq	r3, r8, r1, lsl ip
    41b0:	00084100 	andeq	r4, r8, r0, lsl #2
    41b4:	98501100 	ldmdals	r0, {r8, ip}^
    41b8:	08620000 	stmdaeq	r2!, {}^	; <UNPREDICTABLE>
    41bc:	11000000 	mrsne	r0, (UNDEF: 0)
    41c0:	00009808 	andeq	r9, r0, r8, lsl #16
    41c4:	0000087e 	andeq	r0, r0, lr, ror r8
    41c8:	00985411 	addseq	r5, r8, r1, lsl r4
    41cc:	00087e00 	andeq	r7, r8, r0, lsl #28
    41d0:	98601100 	stmdals	r0!, {r8, ip}^
    41d4:	08410000 	stmdaeq	r1, {}^	; <UNPREDICTABLE>
    41d8:	6c110000 	ldcvs	0, cr0, [r1], {-0}
    41dc:	62000098 	andvs	r0, r0, #152	; 0x98
    41e0:	11000008 	tstne	r0, r8
    41e4:	00009870 	andeq	r9, r0, r0, ror r8
    41e8:	0000087e 	andeq	r0, r0, lr, ror r8
    41ec:	0f381300 	svceq	0x00381300
    41f0:	65010000 	strvs	r0, [r1, #-0]
    41f4:	00006401 	andeq	r6, r0, r1, lsl #8
    41f8:	00987800 	addseq	r7, r8, r0, lsl #16
    41fc:	00008400 	andeq	r8, r0, r0, lsl #8
    4200:	3b9c0100 	blcc	fe704608 <__bss_end__+0xfe6fa0a8>
    4204:	16000006 	strne	r0, [r0], -r6
    4208:	006e6970 	rsbeq	r6, lr, r0, ror r9
    420c:	2c016501 	cfstr32cs	mvfx6, [r1], {1}
    4210:	16000000 	strne	r0, [r0], -r0
    4214:	1800001d 	stmdane	r0, {r0, r2, r3, r4}
    4218:	00009894 	muleq	r0, r4, r8
    421c:	00000024 	andeq	r0, r0, r4, lsr #32
    4220:	000005ef 	andeq	r0, r0, pc, ror #11
    4224:	000fa717 	andeq	sl, pc, r7, lsl r7	; <UNPREDICTABLE>
    4228:	016c0100 	cmneq	ip, r0, lsl #2
    422c:	0000002c 	andeq	r0, r0, ip, lsr #32
    4230:	00001d58 	andeq	r1, r0, r8, asr sp
    4234:	0098a011 	addseq	sl, r8, r1, lsl r0
    4238:	00084100 	andeq	r4, r8, r0, lsl #2
    423c:	98b01100 	ldmls	r0!, {r8, ip}
    4240:	087e0000 	ldmdaeq	lr!, {}^	; <UNPREDICTABLE>
    4244:	18000000 	stmdane	r0, {}	; <UNPREDICTABLE>
    4248:	000098b8 			; <UNDEFINED> instruction: 0x000098b8
    424c:	0000002c 	andeq	r0, r0, ip, lsr #32
    4250:	00000628 	andeq	r0, r0, r8, lsr #12
    4254:	000fa717 	andeq	sl, pc, r7, lsl r7	; <UNPREDICTABLE>
    4258:	016f0100 	cmneq	pc, r0, lsl #2
    425c:	0000002c 	andeq	r0, r0, ip, lsr #32
    4260:	00001d72 	andeq	r1, r0, r2, ror sp
    4264:	0098c411 	addseq	ip, r8, r1, lsl r4
    4268:	00084100 	andeq	r4, r8, r0, lsl #2
    426c:	98d01100 	ldmls	r0, {r8, ip}^
    4270:	087e0000 	ldmdaeq	lr!, {}^	; <UNPREDICTABLE>
    4274:	dc110000 	ldcle	0, cr0, [r1], {-0}
    4278:	7e000098 	mcrvc	0, 0, r0, cr0, cr8, {4}
    427c:	00000008 	andeq	r0, r0, r8
    4280:	00988c11 	addseq	r8, r8, r1, lsl ip
    4284:	00087e00 	andeq	r7, r8, r0, lsl #28
    4288:	98e81100 	stmials	r8!, {r8, ip}^
    428c:	087e0000 	ldmdaeq	lr!, {}^	; <UNPREDICTABLE>
    4290:	15000000 	strne	r0, [r0, #-0]
    4294:	0000102e 	andeq	r1, r0, lr, lsr #32
    4298:	fc017801 	stc2	8, cr7, [r1], {1}
    429c:	58000098 	stmdapl	r0, {r3, r4, r7}
    42a0:	01000000 	mrseq	r0, (UNDEF: 0)
    42a4:	0006a09c 	muleq	r6, ip, r0
    42a8:	69701600 	ldmdbvs	r0!, {r9, sl, ip}^
    42ac:	7801006e 	stmdavc	r1, {r1, r2, r3, r5, r6}
    42b0:	00002c01 	andeq	r2, r0, r1, lsl #24
    42b4:	001d8500 	andseq	r8, sp, r0, lsl #10
    42b8:	99101100 	ldmdbls	r0, {r8, ip}
    42bc:	087e0000 	ldmdaeq	lr!, {}^	; <UNPREDICTABLE>
    42c0:	2c0a0000 	stccs	0, cr0, [sl], {-0}
    42c4:	62000099 	andvs	r0, r0, #153	; 0x99
    42c8:	80000008 	andhi	r0, r0, r8
    42cc:	0b000006 	bleq	42ec <_start-0x3d14>
    42d0:	31045101 	tstcc	r4, r1, lsl #2
    42d4:	00240074 	eoreq	r0, r4, r4, ror r0
    42d8:	0099480a 	addseq	r4, r9, sl, lsl #16
    42dc:	00086200 	andeq	r6, r8, r0, lsl #4
    42e0:	00069600 	andeq	r9, r6, r0, lsl #12
    42e4:	51010b00 	tstpl	r1, r0, lsl #22
    42e8:	00743104 	rsbseq	r3, r4, r4, lsl #2
    42ec:	4c110024 	ldcmi	0, cr0, [r1], {36}	; 0x24
    42f0:	7e000099 	mcrvc	0, 0, r0, cr0, cr9, {4}
    42f4:	00000008 	andeq	r0, r0, r8
    42f8:	000fef19 	andeq	lr, pc, r9, lsl pc	; <UNPREDICTABLE>
    42fc:	33280100 	teqcc	r8, #0, 2
    4300:	05000001 	streq	r0, [r0, #-1]
    4304:	009b7003 	addseq	r7, fp, r3
    4308:	106e1900 	rsbne	r1, lr, r0, lsl #18
    430c:	29010000 	stmdbcs	r1, {}	; <UNPREDICTABLE>
    4310:	00000133 	andeq	r0, r0, r3, lsr r1
    4314:	9b6c0305 	blls	1b04f30 <__bss_end__+0x1afa9d0>
    4318:	f8190000 			; <UNDEFINED> instruction: 0xf8190000
    431c:	01000010 	tsteq	r0, r0, lsl r0
    4320:	0001332a 	andeq	r3, r1, sl, lsr #6
    4324:	68030500 	stmdavs	r3, {r8, sl}
    4328:	1900009b 	stmdbne	r0, {r0, r1, r3, r4, r7}
    432c:	00000fc7 	andeq	r0, r0, r7, asr #31
    4330:	01332c01 	teqeq	r3, r1, lsl #24
    4334:	03050000 	movweq	r0, #20480	; 0x5000
    4338:	00009b14 	andeq	r9, r0, r4, lsl fp
    433c:	000fcf19 	andeq	ip, pc, r9, lsl pc	; <UNPREDICTABLE>
    4340:	332d0100 	teqcc	sp, #0, 2
    4344:	05000001 	streq	r0, [r0, #-1]
    4348:	009b1803 	addseq	r1, fp, r3, lsl #16
    434c:	0f4c1900 	svceq	0x004c1900
    4350:	2e010000 	cdpcs	0, 0, cr0, cr1, cr0, {0}
    4354:	00000133 	andeq	r0, r0, r3, lsr r1
    4358:	9b1c0305 	blls	704f74 <__bss_end__+0x6faa14>
    435c:	d7190000 	ldrle	r0, [r9, -r0]
    4360:	0100000f 	tsteq	r0, pc
    4364:	0001332f 	andeq	r3, r1, pc, lsr #6
    4368:	20030500 	andcs	r0, r3, r0, lsl #10
    436c:	1900009b 	stmdbne	r0, {r0, r1, r3, r4, r7}
    4370:	00000fdf 	ldrdeq	r0, [r0], -pc	; <UNPREDICTABLE>
    4374:	01333001 	teqeq	r3, r1
    4378:	03050000 	movweq	r0, #20480	; 0x5000
    437c:	00009b24 	andeq	r9, r0, r4, lsr #22
    4380:	000fe719 	andeq	lr, pc, r9, lsl r7	; <UNPREDICTABLE>
    4384:	33310100 	teqcc	r1, #0, 2
    4388:	05000001 	streq	r0, [r0, #-1]
    438c:	009b2803 	addseq	r2, fp, r3, lsl #16
    4390:	0f991900 	svceq	0x00991900
    4394:	33010000 	movwcc	r0, #4096	; 0x1000
    4398:	00000133 	andeq	r0, r0, r3, lsr r1
    439c:	9b2c0305 	blls	b04fb8 <__bss_end__+0xafaa58>
    43a0:	a0190000 	andsge	r0, r9, r0
    43a4:	0100000f 	tsteq	r0, pc
    43a8:	00013334 	andeq	r3, r1, r4, lsr r3
    43ac:	30030500 	andcc	r0, r3, r0, lsl #10
    43b0:	1900009b 	stmdbne	r0, {r0, r1, r3, r4, r7}
    43b4:	00000f54 	andeq	r0, r0, r4, asr pc
    43b8:	01333601 	teqeq	r3, r1, lsl #12
    43bc:	03050000 	movweq	r0, #20480	; 0x5000
    43c0:	00009b34 	andeq	r9, r0, r4, lsr fp
    43c4:	000ffa19 	andeq	pc, pc, r9, lsl sl	; <UNPREDICTABLE>
    43c8:	33370100 	teqcc	r7, #0, 2
    43cc:	05000001 	streq	r0, [r0, #-1]
    43d0:	009b3803 	addseq	r3, fp, r3, lsl #16
    43d4:	0fb01900 	svceq	0x00b01900
    43d8:	39010000 	stmdbcc	r1, {}	; <UNPREDICTABLE>
    43dc:	00000133 	andeq	r0, r0, r3, lsr r1
    43e0:	9b3c0305 	blls	f04ffc <__bss_end__+0xefaa9c>
    43e4:	b7190000 	ldrlt	r0, [r9, -r0]
    43e8:	0100000f 	tsteq	r0, pc
    43ec:	0001333a 	andeq	r3, r1, sl, lsr r3
    43f0:	40030500 	andmi	r0, r3, r0, lsl #10
    43f4:	1a00009b 	bne	4668 <_start-0x3998>
    43f8:	0000103f 	andeq	r1, r0, pc, lsr r0
    43fc:	33010901 	movwcc	r0, #6401	; 0x1901
    4400:	05000001 	streq	r0, [r0, #-1]
    4404:	009b6403 	addseq	r6, fp, r3, lsl #8
    4408:	104d1a00 	subne	r1, sp, r0, lsl #20
    440c:	0a010000 	beq	44414 <__bss_end__+0x39eb4>
    4410:	00013301 	andeq	r3, r1, r1, lsl #6
    4414:	44030500 	strmi	r0, [r3], #-1280	; 0x500
    4418:	1a00009b 	bne	468c <_start-0x3974>
    441c:	00001093 	muleq	r0, r3, r0
    4420:	33010c01 	movwcc	r0, #7169	; 0x1c01
    4424:	05000001 	streq	r0, [r0, #-1]
    4428:	009b5c03 	addseq	r5, fp, r3, lsl #24
    442c:	109a1a00 	addsne	r1, sl, r0, lsl #20
    4430:	0d010000 	stceq	0, cr0, [r1, #-0]
    4434:	00013301 	andeq	r3, r1, r1, lsl #6
    4438:	60030500 	andvs	r0, r3, r0, lsl #10
    443c:	1a00009b 	bne	46b0 <_start-0x3950>
    4440:	00001020 	andeq	r1, r0, r0, lsr #32
    4444:	33010f01 	movwcc	r0, #7937	; 0x1f01
    4448:	05000001 	streq	r0, [r0, #-1]
    444c:	009b4803 	addseq	r4, fp, r3, lsl #16
    4450:	10271a00 	eorne	r1, r7, r0, lsl #20
    4454:	10010000 	andne	r0, r1, r0
    4458:	00013301 	andeq	r3, r1, r1, lsl #6
    445c:	4c030500 	cfstr32mi	mvfx0, [r3], {-0}
    4460:	1a00009b 	bne	46d4 <_start-0x392c>
    4464:	000010ad 	andeq	r1, r0, sp, lsr #1
    4468:	33011201 	movwcc	r1, #4609	; 0x1201
    446c:	05000001 	streq	r0, [r0, #-1]
    4470:	009b5403 	addseq	r5, fp, r3, lsl #8
    4474:	10b41a00 	adcsne	r1, r4, r0, lsl #20
    4478:	13010000 	movwne	r0, #4096	; 0x1000
    447c:	00013301 	andeq	r3, r1, r1, lsl #6
    4480:	58030500 	stmdapl	r3, {r8, sl}
    4484:	1a00009b 	bne	46f8 <_start-0x3908>
    4488:	00000f5b 	andeq	r0, r0, fp, asr pc
    448c:	33011501 	movwcc	r1, #5377	; 0x1501
    4490:	05000001 	streq	r0, [r0, #-1]
    4494:	009b5003 	addseq	r5, fp, r3
    4498:	0bc01b00 	bleq	ff00b0a0 <__bss_end__+0xff000b40>
    449c:	20010000 	andcs	r0, r1, r0
    44a0:	0000002c 	andeq	r0, r0, ip, lsr #32
    44a4:	00000856 	andeq	r0, r0, r6, asr r8
    44a8:	0008561c 	andeq	r5, r8, ip, lsl r6
    44ac:	040d0000 	streq	r0, [sp], #-0
    44b0:	0000085c 	andeq	r0, r0, ip, asr r8
    44b4:	0008611d 	andeq	r6, r8, sp, lsl r1
    44b8:	de1f1e00 	cdple	14, 1, cr1, cr15, cr0, {0}
    44bc:	0100000a 	tsteq	r0, sl
    44c0:	0008781e 	andeq	r7, r8, lr, lsl r8
    44c4:	08781c00 	ldmdaeq	r8!, {sl, fp, ip}^
    44c8:	2c1c0000 	ldccs	0, cr0, [ip], {-0}
    44cc:	00000000 	andeq	r0, r0, r0
    44d0:	0861040d 	stmdaeq	r1!, {r0, r2, r3, sl}^
    44d4:	49200000 	stmdbmi	r0!, {}	; <UNPREDICTABLE>
    44d8:	03000005 	movweq	r0, #5
    44dc:	03ff008a 	mvnseq	r0, #138	; 0x8a
    44e0:	00040000 	andeq	r0, r4, r0
    44e4:	00000fc1 	andeq	r0, r0, r1, asr #31
    44e8:	0ca40104 	stfeqs	f0, [r4], #16
    44ec:	d3010000 	movwle	r0, #4096	; 0x1000
    44f0:	0f000011 	svceq	0x00000011
    44f4:	5400000d 	strpl	r0, [r0], #-13
    44f8:	54000099 	strpl	r0, [r0], #-153	; 0x99
    44fc:	3c000001 	stccc	0, cr0, [r0], {1}
    4500:	0200000c 	andeq	r0, r0, #12
    4504:	6e690504 	cdpvs	5, 6, cr0, cr9, cr4, {0}
    4508:	04030074 	streq	r0, [r3], #-116	; 0x74
    450c:	00008407 	andeq	r8, r0, r7, lsl #8
    4510:	06010300 	streq	r0, [r1], -r0, lsl #6
    4514:	0000036f 	andeq	r0, r0, pc, ror #6
    4518:	f8050203 			; <UNDEFINED> instruction: 0xf8050203
    451c:	03000003 	movweq	r0, #3
    4520:	00b60504 	adcseq	r0, r6, r4, lsl #10
    4524:	08030000 	stmdaeq	r3, {}	; <UNPREDICTABLE>
    4528:	0000b105 	andeq	fp, r0, r5, lsl #2
    452c:	08010300 	stmdaeq	r1, {r8, r9}
    4530:	0000036d 	andeq	r0, r0, sp, ror #6
    4534:	81070203 	tsthi	r7, r3, lsl #4
    4538:	03000002 	movweq	r0, #2
    453c:	007f0704 	rsbseq	r0, pc, r4, lsl #14
    4540:	08030000 	stmdaeq	r3, {}	; <UNPREDICTABLE>
    4544:	00007a07 	andeq	r7, r0, r7, lsl #20
    4548:	07040300 	streq	r0, [r4, -r0, lsl #6]
    454c:	000002f0 	strdeq	r0, [r0], -r0	; <UNPREDICTABLE>
    4550:	76080103 	strvc	r0, [r8], -r3, lsl #2
    4554:	04000003 	streq	r0, [r0], #-3
    4558:	b20c0201 	andlt	r0, ip, #268435456	; 0x10000000
    455c:	05000000 	streq	r0, [r0, #-0]
    4560:	0000072c 	andeq	r0, r0, ip, lsr #14
    4564:	0ba50500 	bleq	fe94596c <__bss_end__+0xfe93b40c>
    4568:	05010000 	streq	r0, [r1, #-0]
    456c:	00000be7 	andeq	r0, r0, r7, ror #23
    4570:	077b0504 	ldrbeq	r0, [fp, -r4, lsl #10]!
    4574:	05050000 	streq	r0, [r5, #-0]
    4578:	00000961 	andeq	r0, r0, r1, ror #18
    457c:	0c040506 	cfstr32eq	mvfx0, [r4], {6}
    4580:	05070000 	streq	r0, [r7, #-0]
    4584:	00000c13 	andeq	r0, r0, r3, lsl ip
    4588:	0c220503 	cfstr32eq	mvfx0, [r2], #-12
    458c:	00020000 	andeq	r0, r2, r0
    4590:	0010e106 	andseq	lr, r0, r6, lsl #2
    4594:	79150200 	ldmdbvc	r5, {r9}
    4598:	07000000 	streq	r0, [r0, -r0]
    459c:	00000070 	andeq	r0, r0, r0, ror r0
    45a0:	99543701 	ldmdbls	r4, {r0, r8, r9, sl, ip, sp}^
    45a4:	009c0000 	addseq	r0, ip, r0
    45a8:	9c010000 	stcls	0, cr0, [r1], {-0}
    45ac:	000001c3 	andeq	r0, r0, r3, asr #3
    45b0:	00995c08 	addseq	r5, r9, r8, lsl #24
    45b4:	0003a800 	andeq	sl, r3, r0, lsl #16
    45b8:	99680900 	stmdbls	r8!, {r8, fp}^
    45bc:	03af0000 			; <UNDEFINED> instruction: 0x03af0000
    45c0:	00f30000 	rscseq	r0, r3, r0
    45c4:	010a0000 	mrseq	r0, (UNDEF: 10)
    45c8:	0a320151 	beq	c84b14 <__bss_end__+0xc7a5b4>
    45cc:	3e015001 	cdpcc	0, 0, cr5, cr1, cr1, {0}
    45d0:	99740900 	ldmdbls	r4!, {r8, fp}^
    45d4:	03af0000 			; <UNDEFINED> instruction: 0x03af0000
    45d8:	010b0000 	mrseq	r0, (UNDEF: 11)
    45dc:	010a0000 	mrseq	r0, (UNDEF: 10)
    45e0:	0a320151 	beq	c84b2c <__bss_end__+0xc7a5cc>
    45e4:	3f015001 	svccc	0x00015001
    45e8:	99780800 	ldmdbls	r8!, {fp}^
    45ec:	03a80000 			; <UNDEFINED> instruction: 0x03a80000
    45f0:	88090000 	stmdahi	r9, {}	; <UNPREDICTABLE>
    45f4:	c5000099 	strgt	r0, [r0, #-153]	; 0x99
    45f8:	28000003 	stmdacs	r0, {r0, r1}
    45fc:	0a000001 	beq	4608 <_start-0x39f8>
    4600:	75025001 	strvc	r5, [r2, #-1]
    4604:	94090000 	strls	r0, [r9], #-0
    4608:	e6000099 			; <UNDEFINED> instruction: 0xe6000099
    460c:	3c000003 	stccc	0, cr0, [r0], {3}
    4610:	0a000001 	beq	461c <_start-0x39e4>
    4614:	75025001 	strvc	r5, [r2, #-1]
    4618:	98080000 	stmdals	r8, {}	; <UNPREDICTABLE>
    461c:	a8000099 	stmdage	r0, {r0, r3, r4, r7}
    4620:	09000003 	stmdbeq	r0, {r0, r1}
    4624:	000099a4 	andeq	r9, r0, r4, lsr #19
    4628:	000003e6 	andeq	r0, r0, r6, ror #7
    462c:	00000158 	andeq	r0, r0, r8, asr r1
    4630:	0151010a 	cmpeq	r1, sl, lsl #2
    4634:	b0090030 	andlt	r0, r9, r0, lsr r0
    4638:	e6000099 			; <UNDEFINED> instruction: 0xe6000099
    463c:	6b000003 	blvs	4650 <_start-0x39b0>
    4640:	0a000001 	beq	464c <_start-0x39b4>
    4644:	30015101 	andcc	r5, r1, r1, lsl #2
    4648:	99bc0900 	ldmibls	ip!, {r8, fp}
    464c:	03e60000 	mvneq	r0, #0
    4650:	017e0000 	cmneq	lr, r0
    4654:	010a0000 	mrseq	r0, (UNDEF: 10)
    4658:	00360151 	eorseq	r0, r6, r1, asr r1
    465c:	0099c809 	addseq	ip, r9, r9, lsl #16
    4660:	0003e600 	andeq	lr, r3, r0, lsl #12
    4664:	00019100 	andeq	r9, r1, r0, lsl #2
    4668:	51010a00 	tstpl	r1, r0, lsl #20
    466c:	09003301 	stmdbeq	r0, {r0, r8, r9, ip, sp}
    4670:	000099d4 	ldrdeq	r9, [r0], -r4
    4674:	000003e6 	andeq	r0, r0, r6, ror #7
    4678:	000001a6 	andeq	r0, r0, r6, lsr #3
    467c:	0351010a 	cmpeq	r1, #-2147483646	; 0x80000002
    4680:	00010e0a 	andeq	r0, r1, sl, lsl #28
    4684:	0099e009 	addseq	lr, r9, r9
    4688:	0003e600 	andeq	lr, r3, r0, lsl #12
    468c:	0001b900 	andeq	fp, r1, r0, lsl #18
    4690:	51010a00 	tstpl	r1, r0, lsl #20
    4694:	08003301 	stmdaeq	r0, {r0, r8, r9, ip, sp}
    4698:	000099e4 	andeq	r9, r0, r4, ror #19
    469c:	000003a8 	andeq	r0, r0, r8, lsr #7
    46a0:	112e0b00 	teqne	lr, r0, lsl #22
    46a4:	57010000 	strpl	r0, [r1, -r0]
    46a8:	00000025 	andeq	r0, r0, r5, lsr #32
    46ac:	000099f0 	strdeq	r9, [r0], -r0
    46b0:	0000001c 	andeq	r0, r0, ip, lsl r0
    46b4:	01e69c01 	mvneq	r9, r1, lsl #24
    46b8:	00080000 	andeq	r0, r8, r0
    46bc:	c500009a 	strgt	r0, [r0, #-154]	; 0x9a
    46c0:	00000003 	andeq	r0, r0, r3
    46c4:	0011690b 	andseq	r6, r1, fp, lsl #18
    46c8:	255d0100 	ldrbcs	r0, [sp, #-256]	; 0x100
    46cc:	0c000000 	stceq	0, cr0, [r0], {-0}
    46d0:	2800009a 	stmdacs	r0, {r1, r3, r4, r7}
    46d4:	01000000 	mrseq	r0, (UNDEF: 0)
    46d8:	0002129c 	muleq	r2, ip, r2
    46dc:	9a140800 	bls	5066e4 <__bss_end__+0x4fc184>
    46e0:	01c30000 	biceq	r0, r3, r0
    46e4:	28080000 	stmdacs	r8, {}	; <UNPREDICTABLE>
    46e8:	c500009a 	strgt	r0, [r0, #-154]	; 0x9a
    46ec:	00000003 	andeq	r0, r0, r3
    46f0:	0011820b 	andseq	r8, r1, fp, lsl #4
    46f4:	25640100 	strbcs	r0, [r4, #-256]!	; 0x100
    46f8:	34000000 	strcc	r0, [r0], #-0
    46fc:	1c00009a 	stcne	0, cr0, [r0], {154}	; 0x9a
    4700:	01000000 	mrseq	r0, (UNDEF: 0)
    4704:	0002359c 	muleq	r2, ip, r5
    4708:	9a440800 	bls	1106710 <__bss_end__+0x10fc1b0>
    470c:	03c50000 	biceq	r0, r5, #0
    4710:	07000000 	streq	r0, [r0, -r0]
    4714:	00000d58 	andeq	r0, r0, r8, asr sp
    4718:	9a506a01 	bls	141ef24 <__bss_end__+0x14149c4>
    471c:	002c0000 	eoreq	r0, ip, r0
    4720:	9c010000 	stcls	0, cr0, [r1], {-0}
    4724:	00000271 	andeq	r0, r0, r1, ror r2
    4728:	0100630c 	tsteq	r0, ip, lsl #6
    472c:	00002c6a 	andeq	r2, r0, sl, ror #24
    4730:	001db100 	andseq	fp, sp, r0, lsl #2
    4734:	9a5c0800 	bls	170673c <__bss_end__+0x16fc1dc>
    4738:	02120000 	andseq	r0, r2, #0
    473c:	740d0000 	strvc	r0, [sp], #-0
    4740:	e600009a 			; <UNDEFINED> instruction: 0xe600009a
    4744:	0a000003 	beq	4758 <_start-0x38a8>
    4748:	74025101 	strvc	r5, [r2], #-257	; 0x101
    474c:	0b000000 	bleq	4754 <_start-0x38ac>
    4750:	0000114c 	andeq	r1, r0, ip, asr #2
    4754:	00257401 	eoreq	r7, r5, r1, lsl #8
    4758:	9a7c0000 	bls	1f04760 <__bss_end__+0x1efa200>
    475c:	000c0000 	andeq	r0, ip, r0
    4760:	9c010000 	stcls	0, cr0, [r1], {-0}
    4764:	00000294 	muleq	r0, r4, r2
    4768:	009a8408 	addseq	r8, sl, r8, lsl #8
    476c:	0001c300 	andeq	ip, r1, r0, lsl #6
    4770:	ff0b0000 			; <UNDEFINED> instruction: 0xff0b0000
    4774:	01000011 	tsteq	r0, r1, lsl r0
    4778:	00002578 	andeq	r2, r0, r8, ror r5
    477c:	009a8800 	addseq	r8, sl, r0, lsl #16
    4780:	00002000 	andeq	r2, r0, r0
    4784:	c09c0100 	addsgt	r0, ip, r0, lsl #2
    4788:	08000002 	stmdaeq	r0, {r1}
    478c:	00009a90 	muleq	r0, r0, sl
    4790:	00000271 	andeq	r0, r0, r1, ror r2
    4794:	009a9c08 	addseq	r9, sl, r8, lsl #24
    4798:	0001e600 	andeq	lr, r1, r0, lsl #12
    479c:	9c0e0000 	stcls	0, cr0, [lr], {-0}
    47a0:	01000011 	tsteq	r0, r1, lsl r0
    47a4:	0002d116 	andeq	sp, r2, r6, lsl r1
    47a8:	a4030500 	strge	r0, [r3], #-1280	; 0x500
    47ac:	0f00009b 	svceq	0x0000009b
    47b0:	0002d704 	andeq	sp, r2, r4, lsl #14
    47b4:	002c1000 	eoreq	r1, ip, r0
    47b8:	900e0000 	andls	r0, lr, r0
    47bc:	01000011 	tsteq	r0, r1, lsl r0
    47c0:	0002d117 	andeq	sp, r2, r7, lsl r1
    47c4:	74030500 	strvc	r0, [r3], #-1280	; 0x500
    47c8:	0e00009b 	mcreq	0, 0, r0, cr0, cr11, {4}
    47cc:	00001111 	andeq	r1, r0, r1, lsl r1
    47d0:	02d11a01 	sbcseq	r1, r1, #4096	; 0x1000
    47d4:	03050000 	movweq	r0, #20480	; 0x5000
    47d8:	00009b90 	muleq	r0, r0, fp
    47dc:	00115a0e 	andseq	r5, r1, lr, lsl #20
    47e0:	d11b0100 	tstle	fp, r0, lsl #2
    47e4:	05000002 	streq	r0, [r0, #-2]
    47e8:	009b7c03 	addseq	r7, fp, r3, lsl #24
    47ec:	11730e00 	cmnne	r3, r0, lsl #28
    47f0:	1c010000 	stcne	0, cr0, [r1], {-0}
    47f4:	000002d1 	ldrdeq	r0, [r0], -r1
    47f8:	9b800305 	blls	fe005414 <__bss_end__+0xfdffaeb4>
    47fc:	e10e0000 	mrs	r0, (UNDEF: 14)
    4800:	01000011 	tsteq	r0, r1, lsl r0
    4804:	0002d11d 	andeq	sp, r2, sp, lsl r1
    4808:	84030500 	strhi	r0, [r3], #-1280	; 0x500
    480c:	0e00009b 	mcreq	0, 0, r0, cr0, cr11, {4}
    4810:	00001102 	andeq	r1, r0, r2, lsl #2
    4814:	02d11e01 	sbcseq	r1, r1, #1, 28
    4818:	03050000 	movweq	r0, #20480	; 0x5000
    481c:	00009ba0 	andeq	r9, r0, r0, lsr #23
    4820:	0011f00e 	andseq	pc, r1, lr
    4824:	d11f0100 	tstle	pc, r0, lsl #2
    4828:	05000002 	streq	r0, [r0, #-2]
    482c:	009b8c03 	addseq	r8, fp, r3, lsl #24
    4830:	111f0e00 	tstne	pc, r0, lsl #28
    4834:	20010000 	andcs	r0, r1, r0
    4838:	000002d1 	ldrdeq	r0, [r0], -r1
    483c:	9b9c0305 	blls	fe705458 <__bss_end__+0xfe6faef8>
    4840:	c40e0000 	strgt	r0, [lr], #-0
    4844:	01000011 	tsteq	r0, r1, lsl r0
    4848:	0002d121 	andeq	sp, r2, r1, lsr #2
    484c:	98030500 	stmdals	r3, {r8, sl}
    4850:	0e00009b 	mcreq	0, 0, r0, cr0, cr11, {4}
    4854:	0000113c 	andeq	r1, r0, ip, lsr r1
    4858:	02d12201 	sbcseq	r2, r1, #268435456	; 0x10000000
    485c:	03050000 	movweq	r0, #20480	; 0x5000
    4860:	00009b78 	andeq	r9, r0, r8, ror fp
    4864:	0011b40e 	andseq	fp, r1, lr, lsl #8
    4868:	d1230100 	teqle	r3, r0, lsl #2
    486c:	05000002 	streq	r0, [r0, #-2]
    4870:	009b9403 	addseq	r9, fp, r3, lsl #8
    4874:	11a40e00 			; <UNDEFINED> instruction: 0x11a40e00
    4878:	24010000 	strcs	r0, [r1], #-0
    487c:	000002d1 	ldrdeq	r0, [r0], -r1
    4880:	9b880305 	blls	fe20549c <__bss_end__+0xfe1faf3c>
    4884:	49110000 	ldmdbmi	r1, {}	; <UNPREDICTABLE>
    4888:	03000005 	movweq	r0, #5
    488c:	07d5128a 	ldrbeq	r1, [r5, sl, lsl #5]
    4890:	19020000 	stmdbne	r2, {}	; <UNPREDICTABLE>
    4894:	000003c5 	andeq	r0, r0, r5, asr #7
    4898:	00002c13 	andeq	r2, r0, r3, lsl ip
    489c:	00b21300 	adcseq	r1, r2, r0, lsl #6
    48a0:	14000000 	strne	r0, [r0], #-0
    48a4:	00000bc0 	andeq	r0, r0, r0, asr #23
    48a8:	002ca903 	eoreq	sl, ip, r3, lsl #18
    48ac:	03da0000 	bicseq	r0, sl, #0
    48b0:	da130000 	ble	4c48b8 <__bss_end__+0x4ba358>
    48b4:	00000003 	andeq	r0, r0, r3
    48b8:	03e0040f 	mvneq	r0, #251658240	; 0xf000000
    48bc:	e5150000 	ldr	r0, [r5, #-0]
    48c0:	16000003 	strne	r0, [r0], -r3
    48c4:	000ade12 	andeq	sp, sl, r2, lsl lr
    48c8:	fc9d0300 	ldc2	3, cr0, [sp], {0}
    48cc:	13000003 	movwne	r0, #3
    48d0:	000003fc 	strdeq	r0, [r0], -ip
    48d4:	00002c13 	andeq	r2, r0, r3, lsl ip
    48d8:	040f0000 	streq	r0, [pc], #-0	; 48e0 <_start-0x3720>
    48dc:	000003e5 	andeq	r0, r0, r5, ror #7
	...

Disassembly of section .debug_abbrev:

00000000 <.debug_abbrev>:
       0:	25011101 	strcs	r1, [r1, #-257]	; 0x101
       4:	030b130e 	movweq	r1, #45838	; 0xb30e
       8:	110e1b0e 	tstne	lr, lr, lsl #22
       c:	10061201 	andne	r1, r6, r1, lsl #4
      10:	02000017 	andeq	r0, r0, #23
      14:	0b0b0024 	bleq	2c00ac <__bss_end__+0x2b5b4c>
      18:	08030b3e 	stmdaeq	r3, {r1, r2, r3, r4, r5, r8, r9, fp}
      1c:	24030000 	strcs	r0, [r3], #-0
      20:	3e0b0b00 	vmlacc.f64	d0, d11, d0
      24:	000e030b 	andeq	r0, lr, fp, lsl #6
      28:	00160400 	andseq	r0, r6, r0, lsl #8
      2c:	0b3a0e03 	bleq	e83840 <__bss_end__+0xe792e0>
      30:	13490b3b 	movtne	r0, #39739	; 0x9b3b
      34:	0f050000 	svceq	0x00050000
      38:	490b0b00 	stmdbmi	fp, {r8, r9, fp}
      3c:	06000013 			; <UNDEFINED> instruction: 0x06000013
      40:	13490026 	movtne	r0, #36902	; 0x9026
      44:	01070000 	mrseq	r0, (UNDEF: 7)
      48:	01134901 	tsteq	r3, r1, lsl #18
      4c:	08000013 	stmdaeq	r0, {r0, r1, r4}
      50:	13490021 	movtne	r0, #36897	; 0x9021
      54:	00000b2f 	andeq	r0, r0, pc, lsr #22
      58:	0b010409 	bleq	41084 <__bss_end__+0x36b24>
      5c:	3b0b3a0b 	blcc	2ce890 <__bss_end__+0x2c4330>
      60:	0013010b 	andseq	r0, r3, fp, lsl #2
      64:	00280a00 	eoreq	r0, r8, r0, lsl #20
      68:	0d1c0e03 	ldceq	14, cr0, [ip, #-12]
      6c:	040b0000 	streq	r0, [fp], #-0
      70:	0b0e0301 	bleq	380c7c <__bss_end__+0x37671c>
      74:	3b0b3a0b 	blcc	2ce8a8 <__bss_end__+0x2c4348>
      78:	0013010b 	andseq	r0, r3, fp, lsl #2
      7c:	01130c00 	tsteq	r3, r0, lsl #24
      80:	0b3a0b0b 	bleq	e82cb4 <__bss_end__+0xe78754>
      84:	13010b3b 	movwne	r0, #6971	; 0x1b3b
      88:	0d0d0000 	stceq	0, cr0, [sp, #-0]
      8c:	3a080300 	bcc	200c94 <__bss_end__+0x1f6734>
      90:	490b3b0b 	stmdbmi	fp, {r0, r1, r3, r8, r9, fp, ip, sp}
      94:	000b3813 	andeq	r3, fp, r3, lsl r8
      98:	000d0e00 	andeq	r0, sp, r0, lsl #28
      9c:	0b3a0e03 	bleq	e838b0 <__bss_end__+0xe79350>
      a0:	13490b3b 	movtne	r0, #39739	; 0x9b3b
      a4:	00000b38 	andeq	r0, r0, r8, lsr fp
      a8:	03012e0f 	movweq	r2, #7695	; 0x1e0f
      ac:	3b0b3a0e 	blcc	2ce8ec <__bss_end__+0x2c438c>
      b0:	4919270b 	ldmdbmi	r9, {r0, r1, r3, r8, r9, sl, sp}
      b4:	010b2013 	tsteq	fp, r3, lsl r0
      b8:	10000013 	andne	r0, r0, r3, lsl r0
      bc:	08030005 	stmdaeq	r3, {r0, r2}
      c0:	0b3b0b3a 	bleq	ec2db0 <__bss_end__+0xeb8850>
      c4:	00001349 	andeq	r1, r0, r9, asr #6
      c8:	03012e11 	movweq	r2, #7697	; 0x1e11
      cc:	3b0b3a0e 	blcc	2ce90c <__bss_end__+0x2c43ac>
      d0:	4919270b 	ldmdbmi	r9, {r0, r1, r3, r8, r9, sl, sp}
      d4:	12011113 	andne	r1, r1, #-1073741820	; 0xc0000004
      d8:	97184006 	ldrls	r4, [r8, -r6]
      dc:	13011942 	movwne	r1, #6466	; 0x1942
      e0:	05120000 	ldreq	r0, [r2, #-0]
      e4:	3a080300 	bcc	200cec <__bss_end__+0x1f678c>
      e8:	490b3b0b 	stmdbmi	fp, {r0, r1, r3, r8, r9, fp, ip, sp}
      ec:	00180213 	andseq	r0, r8, r3, lsl r2
      f0:	00051300 	andeq	r1, r5, r0, lsl #6
      f4:	0b3a0803 	bleq	e82108 <__bss_end__+0xe77ba8>
      f8:	13490b3b 	movtne	r0, #39739	; 0x9b3b
      fc:	00001702 	andeq	r1, r0, r2, lsl #14
     100:	03003414 	movweq	r3, #1044	; 0x414
     104:	3b0b3a0e 	blcc	2ce944 <__bss_end__+0x2c43e4>
     108:	0213490b 	andseq	r4, r3, #180224	; 0x2c000
     10c:	15000017 	strne	r0, [r0, #-23]
     110:	0e030005 	cdpeq	0, 0, cr0, cr3, cr5, {0}
     114:	0b3b0b3a 	bleq	ec2e04 <__bss_end__+0xeb88a4>
     118:	17021349 	strne	r1, [r2, -r9, asr #6]
     11c:	34160000 	ldrcc	r0, [r6], #-0
     120:	3a080300 	bcc	200d28 <__bss_end__+0x1f67c8>
     124:	490b3b0b 	stmdbmi	fp, {r0, r1, r3, r8, r9, fp, ip, sp}
     128:	00170213 	andseq	r0, r7, r3, lsl r2
     12c:	82891700 	addhi	r1, r9, #0, 14
     130:	01110101 	tsteq	r1, r1, lsl #2
     134:	13011331 	movwne	r1, #4913	; 0x1331
     138:	8a180000 	bhi	600140 <__bss_end__+0x5f5be0>
     13c:	02000182 	andeq	r0, r0, #-2147483616	; 0x80000020
     140:	18429118 	stmdane	r2, {r3, r4, r8, ip, pc}^
     144:	89190000 	ldmdbhi	r9, {}	; <UNPREDICTABLE>
     148:	11010182 	smlabbne	r1, r2, r1, r0
     14c:	00133101 	andseq	r3, r3, r1, lsl #2
     150:	012e1a00 	teqeq	lr, r0, lsl #20
     154:	0b3a0e03 	bleq	e83968 <__bss_end__+0xe79408>
     158:	19270b3b 	stmdbne	r7!, {r0, r1, r3, r4, r5, r8, r9, fp}
     15c:	06120111 			; <UNDEFINED> instruction: 0x06120111
     160:	42971840 	addsmi	r1, r7, #64, 16	; 0x400000
     164:	00130119 	andseq	r0, r3, r9, lsl r1
     168:	00341b00 	eorseq	r1, r4, r0, lsl #22
     16c:	13490e03 	movtne	r0, #40451	; 0x9e03
     170:	18021934 	stmdane	r2, {r2, r4, r5, r8, fp, ip}
     174:	891c0000 	ldmdbhi	ip, {}	; <UNPREDICTABLE>
     178:	11000182 	smlabbne	r0, r2, r1, r0
     17c:	00133101 	andseq	r3, r3, r1, lsl #2
     180:	012e1d00 	teqeq	lr, r0, lsl #26
     184:	0e03193f 	mcreq	9, 0, r1, cr3, cr15, {1}
     188:	0b3b0b3a 	bleq	ec2e78 <__bss_end__+0xeb8918>
     18c:	13491927 	movtne	r1, #39207	; 0x9927
     190:	06120111 			; <UNDEFINED> instruction: 0x06120111
     194:	42971840 	addsmi	r1, r7, #64, 16	; 0x400000
     198:	00130119 	andseq	r0, r3, r9, lsl r1
     19c:	00341e00 	eorseq	r1, r4, r0, lsl #28
     1a0:	0b3a0803 	bleq	e821b4 <__bss_end__+0xe77c54>
     1a4:	13490b3b 	movtne	r0, #39739	; 0x9b3b
     1a8:	00001802 	andeq	r1, r0, r2, lsl #16
     1ac:	3f012e1f 	svccc	0x00012e1f
     1b0:	3a0e0319 	bcc	380e1c <__bss_end__+0x3768bc>
     1b4:	270b3b0b 	strcs	r3, [fp, -fp, lsl #22]
     1b8:	12011119 	andne	r1, r1, #1073741830	; 0x40000006
     1bc:	97184006 	ldrls	r4, [r8, -r6]
     1c0:	13011942 	movwne	r1, #6466	; 0x1942
     1c4:	34200000 	strtcc	r0, [r0], #-0
     1c8:	3a0e0300 	bcc	380dd0 <__bss_end__+0x376870>
     1cc:	490b3b0b 	stmdbmi	fp, {r0, r1, r3, r8, r9, fp, ip, sp}
     1d0:	00180213 	andseq	r0, r8, r3, lsl r2
     1d4:	00342100 	eorseq	r2, r4, r0, lsl #2
     1d8:	13490e03 	movtne	r0, #40451	; 0x9e03
     1dc:	0e1c1934 	mrceq	9, 0, r1, cr12, cr4, {1}
     1e0:	1d220000 	stcne	0, cr0, [r2, #-0]
     1e4:	11133101 	tstne	r3, r1, lsl #2
     1e8:	58061201 	stmdapl	r6, {r0, r9, ip}
     1ec:	010b590b 	tsteq	fp, fp, lsl #18
     1f0:	23000013 	movwcs	r0, #19
     1f4:	13310005 	teqne	r1, #5
     1f8:	00001702 	andeq	r1, r0, r2, lsl #14
     1fc:	11010b24 	tstne	r1, r4, lsr #22
     200:	00061201 	andeq	r1, r6, r1, lsl #4
     204:	00342500 	eorseq	r2, r4, r0, lsl #10
     208:	18021331 	stmdane	r2, {r0, r4, r5, r8, r9, ip}
     20c:	34260000 	strtcc	r0, [r6], #-0
     210:	3a0e0300 	bcc	380e18 <__bss_end__+0x3768b8>
     214:	490b3b0b 	stmdbmi	fp, {r0, r1, r3, r8, r9, fp, ip, sp}
     218:	27000013 	smladcs	r0, r3, r0, r0
     21c:	0111010b 	tsteq	r1, fp, lsl #2
     220:	13010612 	movwne	r0, #5650	; 0x1612
     224:	0b280000 	bleq	a0022c <__bss_end__+0x9f5ccc>
     228:	00175501 	andseq	r5, r7, r1, lsl #10
     22c:	00342900 	eorseq	r2, r4, r0, lsl #18
     230:	0b3a0e03 	bleq	e83a44 <__bss_end__+0xe794e4>
     234:	13490b3b 	movtne	r0, #39739	; 0x9b3b
     238:	00000b1c 	andeq	r0, r0, ip, lsl fp
     23c:	3f012e2a 	svccc	0x00012e2a
     240:	3a0e0319 	bcc	380eac <__bss_end__+0x37694c>
     244:	270b3b0b 	strcs	r3, [fp, -fp, lsl #22]
     248:	3c134919 	ldccc	9, cr4, [r3], {25}
     24c:	00130119 	andseq	r0, r3, r9, lsl r1
     250:	00052b00 	andeq	r2, r5, r0, lsl #22
     254:	00001349 	andeq	r1, r0, r9, asr #6
     258:	0000182c 	andeq	r1, r0, ip, lsr #16
     25c:	002e2d00 	eoreq	r2, lr, r0, lsl #26
     260:	0e03193f 	mcreq	9, 0, r1, cr3, cr15, {1}
     264:	0b3b0b3a 	bleq	ec2f54 <__bss_end__+0xeb89f4>
     268:	193c1927 	ldmdbne	ip!, {r0, r1, r2, r5, r8, fp, ip}
     26c:	2e2e0000 	cdpcs	0, 2, cr0, cr14, cr0, {0}
     270:	03193f01 	tsteq	r9, #1, 30
     274:	3b0b3a0e 	blcc	2ceab4 <__bss_end__+0x2c4554>
     278:	3c19270b 	ldccc	7, cr2, [r9], {11}
     27c:	00130119 	andseq	r0, r3, r9, lsl r1
     280:	11010000 	mrsne	r0, (UNDEF: 1)
     284:	130e2501 	movwne	r2, #58625	; 0xe501
     288:	1b0e030b 	blne	380ebc <__bss_end__+0x37695c>
     28c:	1201110e 	andne	r1, r1, #-2147483645	; 0x80000003
     290:	00171006 	andseq	r1, r7, r6
     294:	00240200 	eoreq	r0, r4, r0, lsl #4
     298:	0b3e0b0b 	bleq	f82ecc <__bss_end__+0xf7896c>
     29c:	00000803 	andeq	r0, r0, r3, lsl #16
     2a0:	0b002403 	bleq	92b4 <_cstart+0x30>
     2a4:	030b3e0b 	movweq	r3, #48651	; 0xbe0b
     2a8:	0400000e 	streq	r0, [r0], #-14
     2ac:	13490026 	movtne	r0, #36902	; 0x9026
     2b0:	16050000 	strne	r0, [r5], -r0
     2b4:	3a0e0300 	bcc	380ebc <__bss_end__+0x37695c>
     2b8:	490b3b0b 	stmdbmi	fp, {r0, r1, r3, r8, r9, fp, ip, sp}
     2bc:	06000013 			; <UNDEFINED> instruction: 0x06000013
     2c0:	0e030016 	mcreq	0, 0, r0, cr3, cr6, {0}
     2c4:	053b0b3a 	ldreq	r0, [fp, #-2874]!	; 0xb3a
     2c8:	00001349 	andeq	r1, r0, r9, asr #6
     2cc:	0b011707 	bleq	45ef0 <__bss_end__+0x3b990>
     2d0:	3b0b3a0b 	blcc	2ceb04 <__bss_end__+0x2c45a4>
     2d4:	0013010b 	andseq	r0, r3, fp, lsl #2
     2d8:	000d0800 	andeq	r0, sp, r0, lsl #16
     2dc:	0b3a0e03 	bleq	e83af0 <__bss_end__+0xe79590>
     2e0:	13490b3b 	movtne	r0, #39739	; 0x9b3b
     2e4:	01090000 	mrseq	r0, (UNDEF: 9)
     2e8:	01134901 	tsteq	r3, r1, lsl #18
     2ec:	0a000013 	beq	340 <_start-0x7cc0>
     2f0:	13490021 	movtne	r0, #36897	; 0x9021
     2f4:	00000b2f 	andeq	r0, r0, pc, lsr #22
     2f8:	0b01130b 	bleq	44f2c <__bss_end__+0x3a9cc>
     2fc:	3b0b3a0b 	blcc	2ceb30 <__bss_end__+0x2c45d0>
     300:	0013010b 	andseq	r0, r3, fp, lsl #2
     304:	000d0c00 	andeq	r0, sp, r0, lsl #24
     308:	0b3a0e03 	bleq	e83b1c <__bss_end__+0xe795bc>
     30c:	13490b3b 	movtne	r0, #39739	; 0x9b3b
     310:	00000b38 	andeq	r0, r0, r8, lsr fp
     314:	0b000f0d 	bleq	3f50 <_start-0x40b0>
     318:	0e00000b 	cdpeq	0, 0, cr0, cr0, cr11, {0}
     31c:	0b0b000f 	bleq	2c0360 <__bss_end__+0x2b5e00>
     320:	00001349 	andeq	r1, r0, r9, asr #6
     324:	0301130f 	movweq	r1, #4879	; 0x130f
     328:	3a0b0b0e 	bcc	2c2f68 <__bss_end__+0x2b8a08>
     32c:	010b3b0b 	tsteq	fp, fp, lsl #22
     330:	10000013 	andne	r0, r0, r3, lsl r0
     334:	0803000d 	stmdaeq	r3, {r0, r2, r3}
     338:	0b3b0b3a 	bleq	ec3028 <__bss_end__+0xeb8ac8>
     33c:	0b381349 	bleq	e05068 <__bss_end__+0xdfab08>
     340:	13110000 	tstne	r1, #0
     344:	0b0e0301 	bleq	380f50 <__bss_end__+0x3769f0>
     348:	3b0b3a05 	blcc	2ceb64 <__bss_end__+0x2c4604>
     34c:	0013010b 	andseq	r0, r3, fp, lsl #2
     350:	000d1200 	andeq	r1, sp, r0, lsl #4
     354:	0b3a0e03 	bleq	e83b68 <__bss_end__+0xe79608>
     358:	13490b3b 	movtne	r0, #39739	; 0x9b3b
     35c:	00000538 	andeq	r0, r0, r8, lsr r5
     360:	27001513 	smladcs	r0, r3, r5, r1
     364:	14000019 	strne	r0, [r0], #-25
     368:	19270115 	stmdbne	r7!, {r0, r2, r4, r8}
     36c:	13011349 	movwne	r1, #4937	; 0x1349
     370:	05150000 	ldreq	r0, [r5, #-0]
     374:	00134900 	andseq	r4, r3, r0, lsl #18
     378:	01131600 	tsteq	r3, r0, lsl #12
     37c:	050b0e03 	streq	r0, [fp, #-3587]	; 0xe03
     380:	053b0b3a 	ldreq	r0, [fp, #-2874]!	; 0xb3a
     384:	00001301 	andeq	r1, r0, r1, lsl #6
     388:	03000d17 	movweq	r0, #3351	; 0xd17
     38c:	3b0b3a0e 	blcc	2cebcc <__bss_end__+0x2c466c>
     390:	38134905 	ldmdacc	r3, {r0, r2, r8, fp, lr}
     394:	1800000b 	stmdane	r0, {r0, r1, r3}
     398:	0e03000d 	cdpeq	0, 0, cr0, cr3, cr13, {0}
     39c:	053b0b3a 	ldreq	r0, [fp, #-2874]!	; 0xb3a
     3a0:	05381349 	ldreq	r1, [r8, #-841]!	; 0x349
     3a4:	13190000 	tstne	r9, #0
     3a8:	0b0e0301 	bleq	380fb4 <__bss_end__+0x376a54>
     3ac:	3b0b3a0b 	blcc	2cebe0 <__bss_end__+0x2c4680>
     3b0:	00130105 	andseq	r0, r3, r5, lsl #2
     3b4:	01131a00 	tsteq	r3, r0, lsl #20
     3b8:	0b3a0b0b 	bleq	e82fec <__bss_end__+0xe78a8c>
     3bc:	1301053b 	movwne	r0, #5435	; 0x153b
     3c0:	171b0000 	ldrne	r0, [fp, -r0]
     3c4:	3a0b0b01 	bcc	2c2fd0 <__bss_end__+0x2b8a70>
     3c8:	01053b0b 	tsteq	r5, fp, lsl #22
     3cc:	1c000013 	stcne	0, cr0, [r0], {19}
     3d0:	0e03000d 	cdpeq	0, 0, cr0, cr3, cr13, {0}
     3d4:	053b0b3a 	ldreq	r0, [fp, #-2874]!	; 0xb3a
     3d8:	00001349 	andeq	r1, r0, r9, asr #6
     3dc:	2701151d 	smladcs	r1, sp, r5, r1
     3e0:	00130119 	andseq	r0, r3, r9, lsl r1
     3e4:	00341e00 	eorseq	r1, r4, r0, lsl #28
     3e8:	0b3a0e03 	bleq	e83bfc <__bss_end__+0xe7969c>
     3ec:	1349053b 	movtne	r0, #38203	; 0x953b
     3f0:	193c193f 	ldmdbne	ip!, {r0, r1, r2, r3, r4, r5, r8, fp, ip}
     3f4:	341f0000 	ldrcc	r0, [pc], #-0	; 3fc <_start-0x7c04>
     3f8:	3a0e0300 	bcc	381000 <__bss_end__+0x376aa0>
     3fc:	490b3b0b 	stmdbmi	fp, {r0, r1, r3, r8, r9, fp, ip, sp}
     400:	3c193f13 	ldccc	15, cr3, [r9], {19}
     404:	20000019 	andcs	r0, r0, r9, lsl r0
     408:	0b0b0104 	bleq	2c0820 <__bss_end__+0x2b62c0>
     40c:	0b3a1349 	bleq	e85138 <__bss_end__+0xe7abd8>
     410:	13010b3b 	movwne	r0, #6971	; 0x1b3b
     414:	28210000 	stmdacs	r1!, {}	; <UNPREDICTABLE>
     418:	1c0e0300 	stcne	3, cr0, [lr], {-0}
     41c:	2200000b 	andcs	r0, r0, #11
     420:	0e03000d 	cdpeq	0, 0, cr0, cr3, cr13, {0}
     424:	0b3b0b3a 	bleq	ec3114 <__bss_end__+0xeb8bb4>
     428:	0b0b1349 	bleq	2c5154 <__bss_end__+0x2babf4>
     42c:	0b0c0b0d 	bleq	303068 <__bss_end__+0x2f8b08>
     430:	00000b38 	andeq	r0, r0, r8, lsr fp
     434:	03000d23 	movweq	r0, #3363	; 0xd23
     438:	3b0b3a08 	blcc	2cec60 <__bss_end__+0x2c4700>
     43c:	0b13490b 	bleq	4d2870 <__bss_end__+0x4c8310>
     440:	0c0b0d0b 	stceq	13, cr0, [fp], {11}
     444:	000b380b 	andeq	r3, fp, fp, lsl #16
     448:	00352400 	eorseq	r2, r5, r0, lsl #8
     44c:	00001349 	andeq	r1, r0, r9, asr #6
     450:	03003425 	movweq	r3, #1061	; 0x425
     454:	3b0b3a08 	blcc	2cec7c <__bss_end__+0x2c471c>
     458:	0013490b 	andseq	r4, r3, fp, lsl #18
     45c:	00342600 	eorseq	r2, r4, r0, lsl #12
     460:	0b3a0e03 	bleq	e83c74 <__bss_end__+0xe79714>
     464:	1349053b 	movtne	r0, #38203	; 0x953b
     468:	00001802 	andeq	r1, r0, r2, lsl #16
     46c:	03012e27 	movweq	r2, #7719	; 0x1e27
     470:	3b0b3a0e 	blcc	2cecb0 <__bss_end__+0x2c4750>
     474:	11192705 	tstne	r9, r5, lsl #14
     478:	40061201 	andmi	r1, r6, r1, lsl #4
     47c:	19429718 	stmdbne	r2, {r3, r4, r8, r9, sl, ip, pc}^
     480:	00001301 	andeq	r1, r0, r1, lsl #6
     484:	03003428 	movweq	r3, #1064	; 0x428
     488:	3413490e 	ldrcc	r4, [r3], #-2318	; 0x90e
     48c:	00180219 	andseq	r0, r8, r9, lsl r2
     490:	010b2900 	tsteq	fp, r0, lsl #18
     494:	00001301 	andeq	r1, r0, r1, lsl #6
     498:	0301172a 	movweq	r1, #5930	; 0x172a
     49c:	3a0b0b08 	bcc	2c30c4 <__bss_end__+0x2b8b64>
     4a0:	01053b0b 	tsteq	r5, fp, lsl #22
     4a4:	2b000013 	blcs	4f8 <_start-0x7b08>
     4a8:	0803000d 	stmdaeq	r3, {r0, r2, r3}
     4ac:	053b0b3a 	ldreq	r0, [fp, #-2874]!	; 0xb3a
     4b0:	00001349 	andeq	r1, r0, r9, asr #6
     4b4:	0300342c 	movweq	r3, #1068	; 0x42c
     4b8:	3b0b3a08 	blcc	2cece0 <__bss_end__+0x2c4780>
     4bc:	00134905 	andseq	r4, r3, r5, lsl #18
     4c0:	00342d00 	eorseq	r2, r4, r0, lsl #26
     4c4:	0b3a0e03 	bleq	e83cd8 <__bss_end__+0xe79778>
     4c8:	1349053b 	movtne	r0, #38203	; 0x953b
     4cc:	0b2e0000 	bleq	b804d4 <__bss_end__+0xb75f74>
     4d0:	12011101 	andne	r1, r1, #1073741824	; 0x40000000
     4d4:	2f000006 	svccs	0x00000006
     4d8:	08030034 	stmdaeq	r3, {r2, r4, r5}
     4dc:	053b0b3a 	ldreq	r0, [fp, #-2874]!	; 0xb3a
     4e0:	051c1349 	ldreq	r1, [ip, #-841]	; 0x349
     4e4:	2e300000 	cdpcs	0, 3, cr0, cr0, cr0, {0}
     4e8:	03193f01 	tsteq	r9, #1, 30
     4ec:	3b0b3a0e 	blcc	2ced2c <__bss_end__+0x2c47cc>
     4f0:	11192705 	tstne	r9, r5, lsl #14
     4f4:	40061201 	andmi	r1, r6, r1, lsl #4
     4f8:	19429718 	stmdbne	r2, {r3, r4, r8, r9, sl, ip, pc}^
     4fc:	00001301 	andeq	r1, r0, r1, lsl #6
     500:	03003431 	movweq	r3, #1073	; 0x431
     504:	3b0b3a08 	blcc	2ced2c <__bss_end__+0x2c47cc>
     508:	1c134905 	ldcne	9, cr4, [r3], {5}
     50c:	3200000b 	andcc	r0, r0, #11
     510:	00018289 	andeq	r8, r1, r9, lsl #5
     514:	13310111 	teqne	r1, #1073741828	; 0x40000004
     518:	89330000 	ldmdbhi	r3!, {}	; <UNPREDICTABLE>
     51c:	11010182 	smlabbne	r1, r2, r1, r0
     520:	01133101 	tsteq	r3, r1, lsl #2
     524:	34000013 	strcc	r0, [r0], #-19
     528:	0001828a 	andeq	r8, r1, sl, lsl #5
     52c:	42911802 	addsmi	r1, r1, #131072	; 0x20000
     530:	35000018 	strcc	r0, [r0, #-24]
     534:	193f002e 	ldmdbne	pc!, {r1, r2, r3, r5}	; <UNPREDICTABLE>
     538:	0b3a0e03 	bleq	e83d4c <__bss_end__+0xe797ec>
     53c:	1927053b 	stmdbne	r7!, {r0, r1, r3, r4, r5, r8, sl}
     540:	01111349 	tsteq	r1, r9, asr #6
     544:	18400612 	stmdane	r0, {r1, r4, r9, sl}^
     548:	00194297 	mulseq	r9, r7, r2
     54c:	012e3600 	teqeq	lr, r0, lsl #12
     550:	0e03193f 	mcreq	9, 0, r1, cr3, cr15, {1}
     554:	053b0b3a 	ldreq	r0, [fp, #-2874]!	; 0xb3a
     558:	13491927 	movtne	r1, #39207	; 0x9927
     55c:	06120111 			; <UNDEFINED> instruction: 0x06120111
     560:	42971840 	addsmi	r1, r7, #64, 16	; 0x400000
     564:	00130119 	andseq	r0, r3, r9, lsl r1
     568:	00053700 	andeq	r3, r5, r0, lsl #14
     56c:	0b3a0e03 	bleq	e83d80 <__bss_end__+0xe79820>
     570:	1349053b 	movtne	r0, #38203	; 0x953b
     574:	00001702 	andeq	r1, r0, r2, lsl #14
     578:	11010b38 	tstne	r1, r8, lsr fp
     57c:	01061201 	tsteq	r6, r1, lsl #4
     580:	39000013 	stmdbcc	r0, {r0, r1, r4}
     584:	08030034 	stmdaeq	r3, {r2, r4, r5}
     588:	053b0b3a 	ldreq	r0, [fp, #-2874]!	; 0xb3a
     58c:	17021349 	strne	r1, [r2, -r9, asr #6]
     590:	2e3a0000 	cdpcs	0, 3, cr0, cr10, cr0, {0}
     594:	3a0e0301 	bcc	3811a0 <__bss_end__+0x376c40>
     598:	270b3b0b 	strcs	r3, [fp, -fp, lsl #22]
     59c:	12011119 	andne	r1, r1, #1073741830	; 0x40000006
     5a0:	97184006 	ldrls	r4, [r8, -r6]
     5a4:	13011942 	movwne	r1, #6466	; 0x1942
     5a8:	053b0000 	ldreq	r0, [fp, #-0]!
     5ac:	3a0e0300 	bcc	3811b4 <__bss_end__+0x376c54>
     5b0:	490b3b0b 	stmdbmi	fp, {r0, r1, r3, r8, r9, fp, ip, sp}
     5b4:	00170213 	andseq	r0, r7, r3, lsl r2
     5b8:	00343c00 	eorseq	r3, r4, r0, lsl #24
     5bc:	0b3a0803 	bleq	e825d0 <__bss_end__+0xe78070>
     5c0:	13490b3b 	movtne	r0, #39739	; 0x9b3b
     5c4:	00001702 	andeq	r1, r0, r2, lsl #14
     5c8:	0301173d 	movweq	r1, #5949	; 0x173d
     5cc:	3a0b0b08 	bcc	2c31f4 <__bss_end__+0x2b8c94>
     5d0:	010b3b0b 	tsteq	fp, fp, lsl #22
     5d4:	3e000013 	mcrcc	0, 0, r0, cr0, cr3, {0}
     5d8:	0803000d 	stmdaeq	r3, {r0, r2, r3}
     5dc:	0b3b0b3a 	bleq	ec32cc <__bss_end__+0xeb8d6c>
     5e0:	00001349 	andeq	r1, r0, r9, asr #6
     5e4:	0182893f 	orreq	r8, r2, pc, lsr r9
     5e8:	31011101 	tstcc	r1, r1, lsl #2
     5ec:	40000013 	andmi	r0, r0, r3, lsl r0
     5f0:	0e03012e 	adfeqsp	f0, f3, #0.5
     5f4:	0b3b0b3a 	bleq	ec32e4 <__bss_end__+0xeb8d84>
     5f8:	13491927 	movtne	r1, #39207	; 0x9927
     5fc:	06120111 			; <UNDEFINED> instruction: 0x06120111
     600:	42971840 	addsmi	r1, r7, #64, 16	; 0x400000
     604:	00130119 	andseq	r0, r3, r9, lsl r1
     608:	00054100 	andeq	r4, r5, r0, lsl #2
     60c:	0b3a0803 	bleq	e82620 <__bss_end__+0xe780c0>
     610:	13490b3b 	movtne	r0, #39739	; 0x9b3b
     614:	00001702 	andeq	r1, r0, r2, lsl #14
     618:	3f002e42 	svccc	0x00002e42
     61c:	6e193c19 	mrcvs	12, 0, r3, cr9, cr9, {0}
     620:	3a0e030e 	bcc	381260 <__bss_end__+0x376d00>
     624:	000b3b0b 	andeq	r3, fp, fp, lsl #22
     628:	11010000 	mrsne	r0, (UNDEF: 1)
     62c:	130e2501 	movwne	r2, #58625	; 0xe501
     630:	1b0e030b 	blne	381264 <__bss_end__+0x376d04>
     634:	1201110e 	andne	r1, r1, #-2147483645	; 0x80000003
     638:	00171006 	andseq	r1, r7, r6
     63c:	00160200 	andseq	r0, r6, r0, lsl #4
     640:	0b3a0e03 	bleq	e83e54 <__bss_end__+0xe798f4>
     644:	13490b3b 	movtne	r0, #39739	; 0x9b3b
     648:	13030000 	movwne	r0, #12288	; 0x3000
     64c:	0b0e0301 	bleq	381258 <__bss_end__+0x376cf8>
     650:	3b0b3a0b 	blcc	2cee84 <__bss_end__+0x2c4924>
     654:	0013010b 	andseq	r0, r3, fp, lsl #2
     658:	000d0400 	andeq	r0, sp, r0, lsl #8
     65c:	13490e03 	movtne	r0, #40451	; 0x9e03
     660:	19340b38 	ldmdbne	r4!, {r3, r4, r5, r8, r9, fp}
     664:	0f050000 	svceq	0x00050000
     668:	000b0b00 	andeq	r0, fp, r0, lsl #22
     66c:	00240600 	eoreq	r0, r4, r0, lsl #12
     670:	0b3e0b0b 	bleq	f832a4 <__bss_end__+0xf78d44>
     674:	00000803 	andeq	r0, r0, r3, lsl #16
     678:	0b002407 	bleq	969c <gpio_set_function+0x68>
     67c:	030b3e0b 	movweq	r3, #48651	; 0xbe0b
     680:	0800000e 	stmdaeq	r0, {r1, r2, r3}
     684:	0b0b000f 	bleq	2c06c8 <__bss_end__+0x2b6168>
     688:	00001349 	andeq	r1, r0, r9, asr #6
     68c:	49002609 	stmdbmi	r0, {r0, r3, r9, sl, sp}
     690:	0a000013 	beq	6e4 <_start-0x791c>
     694:	193f012e 	ldmdbne	pc!, {r1, r2, r3, r5, r8}	; <UNPREDICTABLE>
     698:	0b3a0e03 	bleq	e83eac <__bss_end__+0xe7994c>
     69c:	19270b3b 	stmdbne	r7!, {r0, r1, r3, r4, r5, r8, r9, fp}
     6a0:	01111349 	tsteq	r1, r9, asr #6
     6a4:	18400612 	stmdane	r0, {r1, r4, r9, sl}^
     6a8:	01194297 			; <UNDEFINED> instruction: 0x01194297
     6ac:	0b000013 	bleq	700 <_start-0x7900>
     6b0:	08030005 	stmdaeq	r3, {r0, r2}
     6b4:	0b3b0b3a 	bleq	ec33a4 <__bss_end__+0xeb8e44>
     6b8:	18021349 	stmdane	r2, {r0, r3, r6, r8, r9, ip}
     6bc:	180c0000 	stmdane	ip, {}	; <UNPREDICTABLE>
     6c0:	0d000000 	stceq	0, cr0, [r0, #-0]
     6c4:	08030034 	stmdaeq	r3, {r2, r4, r5}
     6c8:	0b3b0b3a 	bleq	ec33b8 <__bss_end__+0xeb8e58>
     6cc:	18021349 	stmdane	r2, {r0, r3, r6, r8, r9, ip}
     6d0:	340e0000 	strcc	r0, [lr], #-0
     6d4:	3a0e0300 	bcc	3812dc <__bss_end__+0x376d7c>
     6d8:	490b3b0b 	stmdbmi	fp, {r0, r1, r3, r8, r9, fp, ip, sp}
     6dc:	00180213 	andseq	r0, r8, r3, lsl r2
     6e0:	00340f00 	eorseq	r0, r4, r0, lsl #30
     6e4:	0b3a0803 	bleq	e826f8 <__bss_end__+0xe78198>
     6e8:	13490b3b 	movtne	r0, #39739	; 0x9b3b
     6ec:	00001702 	andeq	r1, r0, r2, lsl #14
     6f0:	01828910 	orreq	r8, r2, r0, lsl r9
     6f4:	31011101 	tstcc	r1, r1, lsl #2
     6f8:	00130113 	andseq	r0, r3, r3, lsl r1
     6fc:	828a1100 	addhi	r1, sl, #0, 2
     700:	18020001 	stmdane	r2, {r0}
     704:	00184291 	mulseq	r8, r1, r2
     708:	82891200 	addhi	r1, r9, #0, 4
     70c:	01110101 	tsteq	r1, r1, lsl #2
     710:	01130000 	tsteq	r3, r0
     714:	01134901 	tsteq	r3, r1, lsl #18
     718:	14000013 	strne	r0, [r0], #-19
     71c:	13490021 	movtne	r0, #36897	; 0x9021
     720:	0000052f 	andeq	r0, r0, pc, lsr #10
     724:	27011515 	smladcs	r1, r5, r5, r1
     728:	01134919 	tsteq	r3, r9, lsl r9
     72c:	16000013 			; <UNDEFINED> instruction: 0x16000013
     730:	13490005 	movtne	r0, #36869	; 0x9005
     734:	34170000 	ldrcc	r0, [r7], #-0
     738:	3a0e0300 	bcc	381340 <__bss_end__+0x376de0>
     73c:	490b3b0b 	stmdbmi	fp, {r0, r1, r3, r8, r9, fp, ip, sp}
     740:	3c193f13 	ldccc	15, cr3, [r9], {19}
     744:	18000019 	stmdane	r0, {r0, r3, r4}
     748:	193f012e 	ldmdbne	pc!, {r1, r2, r3, r5, r8}	; <UNPREDICTABLE>
     74c:	0b3a0e03 	bleq	e83f60 <__bss_end__+0xe79a00>
     750:	19270b3b 	stmdbne	r7!, {r0, r1, r3, r4, r5, r8, r9, fp}
     754:	193c1349 	ldmdbne	ip!, {r0, r3, r6, r8, r9, ip}
     758:	01000000 	mrseq	r0, (UNDEF: 0)
     75c:	0e250111 	mcreq	1, 1, r0, cr5, cr1, {0}
     760:	0e030b13 	vmoveq.32	d3[0], r0
     764:	01110e1b 	tsteq	r1, fp, lsl lr
     768:	17100612 			; <UNDEFINED> instruction: 0x17100612
     76c:	24020000 	strcs	r0, [r2], #-0
     770:	3e0b0b00 	vmlacc.f64	d0, d11, d0
     774:	0008030b 	andeq	r0, r8, fp, lsl #6
     778:	00240300 	eoreq	r0, r4, r0, lsl #6
     77c:	0b3e0b0b 	bleq	f833b0 <__bss_end__+0xf78e50>
     780:	00000e03 	andeq	r0, r0, r3, lsl #28
     784:	03012e04 	movweq	r2, #7684	; 0x1e04
     788:	3b0b3a0e 	blcc	2cefc8 <__bss_end__+0x2c4a68>
     78c:	4919270b 	ldmdbmi	r9, {r0, r1, r3, r8, r9, sl, sp}
     790:	12011113 	andne	r1, r1, #-1073741820	; 0xc0000004
     794:	97184006 	ldrls	r4, [r8, -r6]
     798:	13011942 	movwne	r1, #6466	; 0x1942
     79c:	05050000 	streq	r0, [r5, #-0]
     7a0:	3a080300 	bcc	2013a8 <__bss_end__+0x1f6e48>
     7a4:	490b3b0b 	stmdbmi	fp, {r0, r1, r3, r8, r9, fp, ip, sp}
     7a8:	00170213 	andseq	r0, r7, r3, lsl r2
     7ac:	82890600 	addhi	r0, r9, #0, 12
     7b0:	01110101 	tsteq	r1, r1, lsl #2
     7b4:	00001331 	andeq	r1, r0, r1, lsr r3
     7b8:	01828a07 	orreq	r8, r2, r7, lsl #20
     7bc:	91180200 	tstls	r8, r0, lsl #4
     7c0:	00001842 	andeq	r1, r0, r2, asr #16
     7c4:	3f002e08 	svccc	0x00002e08
     7c8:	3a0e0319 	bcc	381434 <__bss_end__+0x376ed4>
     7cc:	270b3b0b 	strcs	r3, [fp, -fp, lsl #22]
     7d0:	12011119 	andne	r1, r1, #1073741830	; 0x40000006
     7d4:	97184006 	ldrls	r4, [r8, -r6]
     7d8:	00001942 	andeq	r1, r0, r2, asr #18
     7dc:	3f012e09 	svccc	0x00012e09
     7e0:	3a0e0319 	bcc	38144c <__bss_end__+0x376eec>
     7e4:	270b3b0b 	strcs	r3, [fp, -fp, lsl #22]
     7e8:	12011119 	andne	r1, r1, #1073741830	; 0x40000006
     7ec:	97184006 	ldrls	r4, [r8, -r6]
     7f0:	13011942 	movwne	r1, #6466	; 0x1942
     7f4:	050a0000 	streq	r0, [sl, #-0]
     7f8:	3a080300 	bcc	201400 <__bss_end__+0x1f6ea0>
     7fc:	490b3b0b 	stmdbmi	fp, {r0, r1, r3, r8, r9, fp, ip, sp}
     800:	00180213 	andseq	r0, r8, r3, lsl r2
     804:	01150b00 	tsteq	r5, r0, lsl #22
     808:	13491927 	movtne	r1, #39207	; 0x9927
     80c:	00001301 	andeq	r1, r0, r1, lsl #6
     810:	4900050c 	stmdbmi	r0, {r2, r3, r8, sl}
     814:	0d000013 	stceq	0, cr0, [r0, #-76]	; 0xffffffb4
     818:	0b0b000f 	bleq	2c085c <__bss_end__+0x2b62fc>
     81c:	00001349 	andeq	r1, r0, r9, asr #6
     820:	0300340e 	movweq	r3, #1038	; 0x40e
     824:	3b0b3a0e 	blcc	2cf064 <__bss_end__+0x2c4b04>
     828:	3f13490b 	svccc	0x0013490b
     82c:	00180219 	andseq	r0, r8, r9, lsl r2
     830:	012e0f00 	teqeq	lr, r0, lsl #30
     834:	0e03193f 	mcreq	9, 0, r1, cr3, cr15, {1}
     838:	0b3b0b3a 	bleq	ec3528 <__bss_end__+0xeb8fc8>
     83c:	193c1927 	ldmdbne	ip!, {r0, r1, r2, r5, r8, fp, ip}
     840:	01000000 	mrseq	r0, (UNDEF: 0)
     844:	0e250111 	mcreq	1, 1, r0, cr5, cr1, {0}
     848:	0e030b13 	vmoveq.32	d3[0], r0
     84c:	01110e1b 	tsteq	r1, fp, lsl lr
     850:	17100612 			; <UNDEFINED> instruction: 0x17100612
     854:	24020000 	strcs	r0, [r2], #-0
     858:	3e0b0b00 	vmlacc.f64	d0, d11, d0
     85c:	0008030b 	andeq	r0, r8, fp, lsl #6
     860:	00240300 	eoreq	r0, r4, r0, lsl #6
     864:	0b3e0b0b 	bleq	f83498 <__bss_end__+0xf78f38>
     868:	00000e03 	andeq	r0, r0, r3, lsl #28
     86c:	0b000f04 	bleq	4484 <_start-0x3b7c>
     870:	0013490b 	andseq	r4, r3, fp, lsl #18
     874:	00260500 	eoreq	r0, r6, r0, lsl #10
     878:	00001349 	andeq	r1, r0, r9, asr #6
     87c:	3f012e06 	svccc	0x00012e06
     880:	3a0e0319 	bcc	3814ec <__bss_end__+0x376f8c>
     884:	270b3b0b 	strcs	r3, [fp, -fp, lsl #22]
     888:	11134919 	tstne	r3, r9, lsl r9
     88c:	40061201 	andmi	r1, r6, r1, lsl #4
     890:	19429618 	stmdbne	r2, {r3, r4, r9, sl, ip, pc}^
     894:	00001301 	andeq	r1, r0, r1, lsl #6
     898:	03000507 	movweq	r0, #1287	; 0x507
     89c:	3b0b3a08 	blcc	2cf0c4 <__bss_end__+0x2c4b64>
     8a0:	0213490b 	andseq	r4, r3, #180224	; 0x2c000
     8a4:	08000017 	stmdaeq	r0, {r0, r1, r2, r4}
     8a8:	19270115 	stmdbne	r7!, {r0, r2, r4, r8}
     8ac:	13011349 	movwne	r1, #4937	; 0x1349
     8b0:	05090000 	streq	r0, [r9, #-0]
     8b4:	00134900 	andseq	r4, r3, r0, lsl #18
     8b8:	00340a00 	eorseq	r0, r4, r0, lsl #20
     8bc:	0b3a0e03 	bleq	e840d0 <__bss_end__+0xe79b70>
     8c0:	13490b3b 	movtne	r0, #39739	; 0x9b3b
     8c4:	193c193f 	ldmdbne	ip!, {r0, r1, r2, r3, r4, r5, r8, fp, ip}
     8c8:	340b0000 	strcc	r0, [fp], #-0
     8cc:	3a0e0300 	bcc	3814d4 <__bss_end__+0x376f74>
     8d0:	490b3b0b 	stmdbmi	fp, {r0, r1, r3, r8, r9, fp, ip, sp}
     8d4:	02193f13 	andseq	r3, r9, #19, 30	; 0x4c
     8d8:	00000018 	andeq	r0, r0, r8, lsl r0
     8dc:	25011101 	strcs	r1, [r1, #-257]	; 0x101
     8e0:	030b130e 	movweq	r1, #45838	; 0xb30e
     8e4:	110e1b0e 	tstne	lr, lr, lsl #22
     8e8:	10061201 	andne	r1, r6, r1, lsl #4
     8ec:	02000017 	andeq	r0, r0, #23
     8f0:	0b0b0024 	bleq	2c0988 <__bss_end__+0x2b6428>
     8f4:	08030b3e 	stmdaeq	r3, {r1, r2, r3, r4, r5, r8, r9, fp}
     8f8:	24030000 	strcs	r0, [r3], #-0
     8fc:	3e0b0b00 	vmlacc.f64	d0, d11, d0
     900:	000e030b 	andeq	r0, lr, fp, lsl #6
     904:	000f0400 	andeq	r0, pc, r0, lsl #8
     908:	00000b0b 	andeq	r0, r0, fp, lsl #22
     90c:	0b000f05 	bleq	4528 <_start-0x3ad8>
     910:	0013490b 	andseq	r4, r3, fp, lsl #18
     914:	00260600 	eoreq	r0, r6, r0, lsl #12
     918:	00001349 	andeq	r1, r0, r9, asr #6
     91c:	03001607 	movweq	r1, #1543	; 0x607
     920:	3b0b3a0e 	blcc	2cf160 <__bss_end__+0x2c4c00>
     924:	0013490b 	andseq	r4, r3, fp, lsl #18
     928:	01130800 	tsteq	r3, r0, lsl #16
     92c:	0b0b0e03 	bleq	2c4140 <__bss_end__+0x2b9be0>
     930:	0b3b0b3a 	bleq	ec3620 <__bss_end__+0xeb90c0>
     934:	00001301 	andeq	r1, r0, r1, lsl #6
     938:	03000d09 	movweq	r0, #3337	; 0xd09
     93c:	3813490e 	ldmdacc	r3, {r1, r2, r3, r8, fp, lr}
     940:	0019340b 	andseq	r3, r9, fp, lsl #8
     944:	012e0a00 	teqeq	lr, r0, lsl #20
     948:	0b3a0e03 	bleq	e8415c <__bss_end__+0xe79bfc>
     94c:	19270b3b 	stmdbne	r7!, {r0, r1, r3, r4, r5, r8, r9, fp}
     950:	01111349 	tsteq	r1, r9, asr #6
     954:	18400612 	stmdane	r0, {r1, r4, r9, sl}^
     958:	01194297 			; <UNDEFINED> instruction: 0x01194297
     95c:	0b000013 	bleq	9b0 <_start-0x7650>
     960:	08030005 	stmdaeq	r3, {r0, r2}
     964:	0b3b0b3a 	bleq	ec3654 <__bss_end__+0xeb90f4>
     968:	17021349 	strne	r1, [r2, -r9, asr #6]
     96c:	2e0c0000 	cdpcs	0, 0, cr0, cr12, cr0, {0}
     970:	3a080301 	bcc	20157c <__bss_end__+0x1f701c>
     974:	270b3b0b 	strcs	r3, [fp, -fp, lsl #22]
     978:	11134919 	tstne	r3, r9, lsl r9
     97c:	40061201 	andmi	r1, r6, r1, lsl #4
     980:	19429718 	stmdbne	r2, {r3, r4, r8, r9, sl, ip, pc}^
     984:	00001301 	andeq	r1, r0, r1, lsl #6
     988:	0300050d 	movweq	r0, #1293	; 0x50d
     98c:	3b0b3a0e 	blcc	2cf1cc <__bss_end__+0x2c4c6c>
     990:	0213490b 	andseq	r4, r3, #180224	; 0x2c000
     994:	0e000017 	mcreq	0, 0, r0, cr0, cr7, {0}
     998:	0e030005 	cdpeq	0, 0, cr0, cr3, cr5, {0}
     99c:	0b3b0b3a 	bleq	ec368c <__bss_end__+0xeb912c>
     9a0:	18021349 	stmdane	r2, {r0, r3, r6, r8, r9, ip}
     9a4:	340f0000 	strcc	r0, [pc], #-0	; 9ac <_start-0x7654>
     9a8:	3a080300 	bcc	2015b0 <__bss_end__+0x1f7050>
     9ac:	490b3b0b 	stmdbmi	fp, {r0, r1, r3, r8, r9, fp, ip, sp}
     9b0:	00180213 	andseq	r0, r8, r3, lsl r2
     9b4:	00341000 	eorseq	r1, r4, r0
     9b8:	0b3a0803 	bleq	e829cc <__bss_end__+0xe7846c>
     9bc:	13490b3b 	movtne	r0, #39739	; 0x9b3b
     9c0:	00001702 	andeq	r1, r0, r2, lsl #14
     9c4:	03003411 	movweq	r3, #1041	; 0x411
     9c8:	3413490e 	ldrcc	r4, [r3], #-2318	; 0x90e
     9cc:	00180219 	andseq	r0, r8, r9, lsl r2
     9d0:	010b1200 	mrseq	r1, R11_fiq
     9d4:	06120111 			; <UNDEFINED> instruction: 0x06120111
     9d8:	00001301 	andeq	r1, r0, r1, lsl #6
     9dc:	03003413 	movweq	r3, #1043	; 0x413
     9e0:	3b0b3a0e 	blcc	2cf220 <__bss_end__+0x2c4cc0>
     9e4:	0213490b 	andseq	r4, r3, #180224	; 0x2c000
     9e8:	14000017 	strne	r0, [r0], #-23
     9ec:	00018289 	andeq	r8, r1, r9, lsl #5
     9f0:	13310111 	teqne	r1, #1073741828	; 0x40000004
     9f4:	89150000 	ldmdbhi	r5, {}	; <UNPREDICTABLE>
     9f8:	11010182 	smlabbne	r1, r2, r1, r0
     9fc:	01133101 	tsteq	r3, r1, lsl #2
     a00:	16000013 			; <UNDEFINED> instruction: 0x16000013
     a04:	0001828a 	andeq	r8, r1, sl, lsl #5
     a08:	42911802 	addsmi	r1, r1, #131072	; 0x20000
     a0c:	17000018 	smladne	r0, r8, r0, r0
     a10:	01018289 	smlabbeq	r1, r9, r2, r8
     a14:	13310111 	teqne	r1, #1073741828	; 0x40000004
     a18:	01180000 	tsteq	r8, r0
     a1c:	01134901 	tsteq	r3, r1, lsl #18
     a20:	19000013 	stmdbne	r0, {r0, r1, r4}
     a24:	13490021 	movtne	r0, #36897	; 0x9021
     a28:	00000b2f 	andeq	r0, r0, pc, lsr #22
     a2c:	3f012e1a 	svccc	0x00012e1a
     a30:	3a0e0319 	bcc	38169c <__bss_end__+0x37713c>
     a34:	270b3b0b 	strcs	r3, [fp, -fp, lsl #22]
     a38:	12011119 	andne	r1, r1, #1073741830	; 0x40000006
     a3c:	97184006 	ldrls	r4, [r8, -r6]
     a40:	13011942 	movwne	r1, #6466	; 0x1942
     a44:	151b0000 	ldrne	r0, [fp, #-0]
     a48:	49192701 	ldmdbmi	r9, {r0, r8, r9, sl, sp}
     a4c:	00130113 	andseq	r0, r3, r3, lsl r1
     a50:	00051c00 	andeq	r1, r5, r0, lsl #24
     a54:	00001349 	andeq	r1, r0, r9, asr #6
     a58:	3f012e1d 	svccc	0x00012e1d
     a5c:	3a0e0319 	bcc	3816c8 <__bss_end__+0x377168>
     a60:	270b3b0b 	strcs	r3, [fp, -fp, lsl #22]
     a64:	11134919 	tstne	r3, r9, lsl r9
     a68:	40061201 	andmi	r1, r6, r1, lsl #4
     a6c:	19429718 	stmdbne	r2, {r3, r4, r8, r9, sl, ip, pc}^
     a70:	00001301 	andeq	r1, r0, r1, lsl #6
     a74:	55010b1e 	strpl	r0, [r1, #-2846]	; 0xb1e
     a78:	1f000017 	svcne	0x00000017
     a7c:	0e030034 	mcreq	0, 0, r0, cr3, cr4, {1}
     a80:	0b3b0b3a 	bleq	ec3770 <__bss_end__+0xeb9210>
     a84:	193f1349 	ldmdbne	pc!, {r0, r3, r6, r8, r9, ip}	; <UNPREDICTABLE>
     a88:	0000193c 	andeq	r1, r0, ip, lsr r9
     a8c:	3f002e20 	svccc	0x00002e20
     a90:	3a0e0319 	bcc	3816fc <__bss_end__+0x37719c>
     a94:	270b3b0b 	strcs	r3, [fp, -fp, lsl #22]
     a98:	00193c19 	andseq	r3, r9, r9, lsl ip
     a9c:	012e2100 	teqeq	lr, r0, lsl #2
     aa0:	0e03193f 	mcreq	9, 0, r1, cr3, cr15, {1}
     aa4:	0b3b0b3a 	bleq	ec3794 <__bss_end__+0xeb9234>
     aa8:	13491927 	movtne	r1, #39207	; 0x9927
     aac:	1301193c 	movwne	r1, #6460	; 0x193c
     ab0:	18220000 	stmdane	r2!, {}	; <UNPREDICTABLE>
     ab4:	00000000 	andeq	r0, r0, r0
     ab8:	25011101 	strcs	r1, [r1, #-257]	; 0x101
     abc:	030b130e 	movweq	r1, #45838	; 0xb30e
     ac0:	110e1b0e 	tstne	lr, lr, lsl #22
     ac4:	10061201 	andne	r1, r6, r1, lsl #4
     ac8:	02000017 	andeq	r0, r0, #23
     acc:	0b0b0024 	bleq	2c0b64 <__bss_end__+0x2b6604>
     ad0:	08030b3e 	stmdaeq	r3, {r1, r2, r3, r4, r5, r8, r9, fp}
     ad4:	24030000 	strcs	r0, [r3], #-0
     ad8:	3e0b0b00 	vmlacc.f64	d0, d11, d0
     adc:	000e030b 	andeq	r0, lr, fp, lsl #6
     ae0:	000f0400 	andeq	r0, pc, r0, lsl #8
     ae4:	13490b0b 	movtne	r0, #39691	; 0x9b0b
     ae8:	26050000 	strcs	r0, [r5], -r0
     aec:	00134900 	andseq	r4, r3, r0, lsl #18
     af0:	012e0600 	teqeq	lr, r0, lsl #12
     af4:	0e03193f 	mcreq	9, 0, r1, cr3, cr15, {1}
     af8:	0b3b0b3a 	bleq	ec37e8 <__bss_end__+0xeb9288>
     afc:	01111927 	tsteq	r1, r7, lsr #18
     b00:	18400612 	stmdane	r0, {r1, r4, r9, sl}^
     b04:	01194297 			; <UNDEFINED> instruction: 0x01194297
     b08:	07000013 	smladeq	r0, r3, r0, r0
     b0c:	01018289 	smlabbeq	r1, r9, r2, r8
     b10:	13010111 	movwne	r0, #4369	; 0x1111
     b14:	8a080000 	bhi	200b1c <__bss_end__+0x1f65bc>
     b18:	02000182 	andeq	r0, r0, #-2147483616	; 0x80000020
     b1c:	18429118 	stmdane	r2, {r3, r4, r8, ip, pc}^
     b20:	89090000 	stmdbhi	r9, {}	; <UNPREDICTABLE>
     b24:	11010182 	smlabbne	r1, r2, r1, r0
     b28:	01133101 	tsteq	r3, r1, lsl #2
     b2c:	0a000013 	beq	b80 <_start-0x7480>
     b30:	00018289 	andeq	r8, r1, r9, lsl #5
     b34:	13310111 	teqne	r1, #1073741828	; 0x40000004
     b38:	150b0000 	strne	r0, [fp, #-0]
     b3c:	49192701 	ldmdbmi	r9, {r0, r8, r9, sl, sp}
     b40:	00130113 	andseq	r0, r3, r3, lsl r1
     b44:	00050c00 	andeq	r0, r5, r0, lsl #24
     b48:	00001349 	andeq	r1, r0, r9, asr #6
     b4c:	0300340d 	movweq	r3, #1037	; 0x40d
     b50:	3b0b3a0e 	blcc	2cf390 <__bss_end__+0x2c4e30>
     b54:	3f13490b 	svccc	0x0013490b
     b58:	00193c19 	andseq	r3, r9, r9, lsl ip
     b5c:	012e0e00 	teqeq	lr, r0, lsl #28
     b60:	0e03193f 	mcreq	9, 0, r1, cr3, cr15, {1}
     b64:	0b3b0b3a 	bleq	ec3854 <__bss_end__+0xeb92f4>
     b68:	193c1927 	ldmdbne	ip!, {r0, r1, r2, r5, r8, fp, ip}
     b6c:	00001301 	andeq	r1, r0, r1, lsl #6
     b70:	3f002e0f 	svccc	0x00002e0f
     b74:	3a0e0319 	bcc	3817e0 <__bss_end__+0x377280>
     b78:	270b3b0b 	strcs	r3, [fp, -fp, lsl #22]
     b7c:	00193c19 	andseq	r3, r9, r9, lsl ip
     b80:	11010000 	mrsne	r0, (UNDEF: 1)
     b84:	130e2501 	movwne	r2, #58625	; 0xe501
     b88:	1b0e030b 	blne	3817bc <__bss_end__+0x37725c>
     b8c:	1201110e 	andne	r1, r1, #-2147483645	; 0x80000003
     b90:	00171006 	andseq	r1, r7, r6
     b94:	00240200 	eoreq	r0, r4, r0, lsl #4
     b98:	0b3e0b0b 	bleq	f837cc <__bss_end__+0xf7926c>
     b9c:	00000803 	andeq	r0, r0, r3, lsl #16
     ba0:	0b002403 	bleq	9bb4 <__FUNCTION__.4354>
     ba4:	030b3e0b 	movweq	r3, #48651	; 0xbe0b
     ba8:	0400000e 	streq	r0, [r0], #-14
     bac:	193f012e 	ldmdbne	pc!, {r1, r2, r3, r5, r8}	; <UNPREDICTABLE>
     bb0:	0b3a0e03 	bleq	e843c4 <__bss_end__+0xe79e64>
     bb4:	01110b3b 	tsteq	r1, fp, lsr fp
     bb8:	18400612 	stmdane	r0, {r1, r4, r9, sl}^
     bbc:	01194297 			; <UNDEFINED> instruction: 0x01194297
     bc0:	05000013 	streq	r0, [r0, #-19]
     bc4:	0e030034 	mcreq	0, 0, r0, cr3, cr4, {1}
     bc8:	0b3b0b3a 	bleq	ec38b8 <__bss_end__+0xeb9358>
     bcc:	193f1349 	ldmdbne	pc!, {r0, r3, r6, r8, r9, ip}	; <UNPREDICTABLE>
     bd0:	0000193c 	andeq	r1, r0, ip, lsr r9
     bd4:	3f002e06 	svccc	0x00002e06
     bd8:	3a0e0319 	bcc	381844 <__bss_end__+0x3772e4>
     bdc:	270b3b0b 	strcs	r3, [fp, -fp, lsl #22]
     be0:	00193c19 	andseq	r3, r9, r9, lsl ip
     be4:	00340700 	eorseq	r0, r4, r0, lsl #14
     be8:	0b3a0803 	bleq	e82bfc <__bss_end__+0xe7869c>
     bec:	13490b3b 	movtne	r0, #39739	; 0x9b3b
     bf0:	00001702 	andeq	r1, r0, r2, lsl #14
     bf4:	03003408 	movweq	r3, #1032	; 0x408
     bf8:	3b0b3a0e 	blcc	2cf438 <__bss_end__+0x2c4ed8>
     bfc:	0013490b 	andseq	r4, r3, fp, lsl #18
     c00:	82890900 	addhi	r0, r9, #0, 18
     c04:	01110001 	tsteq	r1, r1
     c08:	00001331 	andeq	r1, r0, r1, lsr r3
     c0c:	0b000f0a 	bleq	483c <_start-0x37c4>
     c10:	0013490b 	andseq	r4, r3, fp, lsl #18
     c14:	11010000 	mrsne	r0, (UNDEF: 1)
     c18:	130e2501 	movwne	r2, #58625	; 0xe501
     c1c:	1b0e030b 	blne	381850 <__bss_end__+0x3772f0>
     c20:	1117550e 	tstne	r7, lr, lsl #10
     c24:	00171001 	andseq	r1, r7, r1
     c28:	00240200 	eoreq	r0, r4, r0, lsl #4
     c2c:	0b3e0b0b 	bleq	f83860 <__bss_end__+0xf79300>
     c30:	00000803 	andeq	r0, r0, r3, lsl #16
     c34:	0b002403 	bleq	9c48 <__FUNCTION__.4450+0x4c>
     c38:	030b3e0b 	movweq	r3, #48651	; 0xbe0b
     c3c:	0400000e 	streq	r0, [r0], #-14
     c40:	193f012e 	ldmdbne	pc!, {r1, r2, r3, r5, r8}	; <UNPREDICTABLE>
     c44:	0b3a0e03 	bleq	e84458 <__bss_end__+0xe79ef8>
     c48:	19270b3b 	stmdbne	r7!, {r0, r1, r3, r4, r5, r8, r9, fp}
     c4c:	01111349 	tsteq	r1, r9, asr #6
     c50:	18400612 	stmdane	r0, {r1, r4, r9, sl}^
     c54:	01194297 			; <UNDEFINED> instruction: 0x01194297
     c58:	05000013 	streq	r0, [r0, #-19]
     c5c:	0e030034 	mcreq	0, 0, r0, cr3, cr4, {1}
     c60:	0b3b0b3a 	bleq	ec3950 <__bss_end__+0xeb93f0>
     c64:	17021349 	strne	r1, [r2, -r9, asr #6]
     c68:	2e060000 	cdpcs	0, 0, cr0, cr6, cr0, {0}
     c6c:	03193f01 	tsteq	r9, #1, 30
     c70:	3b0b3a0e 	blcc	2cf4b0 <__bss_end__+0x2c4f50>
     c74:	1119270b 	tstne	r9, fp, lsl #14
     c78:	40061201 	andmi	r1, r6, r1, lsl #4
     c7c:	19429718 	stmdbne	r2, {r3, r4, r8, r9, sl, ip, pc}^
     c80:	00001301 	andeq	r1, r0, r1, lsl #6
     c84:	03003407 	movweq	r3, #1031	; 0x407
     c88:	3b0b3a0e 	blcc	2cf4c8 <__bss_end__+0x2c4f68>
     c8c:	1c13490b 	ldcne	9, cr4, [r3], {11}
     c90:	08000006 	stmdaeq	r0, {r1, r2}
     c94:	0e030034 	mcreq	0, 0, r0, cr3, cr4, {1}
     c98:	0b3b0b3a 	bleq	ec3988 <__bss_end__+0xeb9428>
     c9c:	0b1c1349 	bleq	7059c8 <__bss_end__+0x6fb468>
     ca0:	89090000 	stmdbhi	r9, {}	; <UNPREDICTABLE>
     ca4:	11000182 	smlabbne	r0, r2, r1, r0
     ca8:	00133101 	andseq	r3, r3, r1, lsl #2
     cac:	82890a00 	addhi	r0, r9, #0, 20
     cb0:	01110101 	tsteq	r1, r1, lsl #2
     cb4:	13011331 	movwne	r1, #4913	; 0x1331
     cb8:	8a0b0000 	bhi	2c0cc0 <__bss_end__+0x2b6760>
     cbc:	02000182 	andeq	r0, r0, #-2147483616	; 0x80000020
     cc0:	18429118 	stmdane	r2, {r3, r4, r8, ip, pc}^
     cc4:	890c0000 	stmdbhi	ip, {}	; <UNPREDICTABLE>
     cc8:	11010182 	smlabbne	r1, r2, r1, r0
     ccc:	00133101 	andseq	r3, r3, r1, lsl #2
     cd0:	00260d00 	eoreq	r0, r6, r0, lsl #26
     cd4:	00001349 	andeq	r1, r0, r9, asr #6
     cd8:	3f012e0e 	svccc	0x00012e0e
     cdc:	3a0e0319 	bcc	381948 <__bss_end__+0x3773e8>
     ce0:	270b3b0b 	strcs	r3, [fp, -fp, lsl #22]
     ce4:	01193c19 	tsteq	r9, r9, lsl ip
     ce8:	0f000013 	svceq	0x00000013
     cec:	13490005 	movtne	r0, #36869	; 0x9005
     cf0:	2e100000 	cdpcs	0, 1, cr0, cr0, cr0, {0}
     cf4:	03193f01 	tsteq	r9, #1, 30
     cf8:	3b0b3a0e 	blcc	2cf538 <__bss_end__+0x2c4fd8>
     cfc:	3c19270b 	ldccc	7, cr2, [r9], {11}
     d00:	00000019 	andeq	r0, r0, r9, lsl r0
     d04:	25011101 	strcs	r1, [r1, #-257]	; 0x101
     d08:	030b130e 	movweq	r1, #45838	; 0xb30e
     d0c:	110e1b0e 	tstne	lr, lr, lsl #22
     d10:	10061201 	andne	r1, r6, r1, lsl #4
     d14:	02000017 	andeq	r0, r0, #23
     d18:	0b0b0024 	bleq	2c0db0 <__bss_end__+0x2b6850>
     d1c:	08030b3e 	stmdaeq	r3, {r1, r2, r3, r4, r5, r8, r9, fp}
     d20:	24030000 	strcs	r0, [r3], #-0
     d24:	3e0b0b00 	vmlacc.f64	d0, d11, d0
     d28:	000e030b 	andeq	r0, lr, fp, lsl #6
     d2c:	012e0400 	teqeq	lr, r0, lsl #8
     d30:	0e03193f 	mcreq	9, 0, r1, cr3, cr15, {1}
     d34:	0b3b0b3a 	bleq	ec3a24 <__bss_end__+0xeb94c4>
     d38:	01111927 	tsteq	r1, r7, lsr #18
     d3c:	18400612 	stmdane	r0, {r1, r4, r9, sl}^
     d40:	01194297 			; <UNDEFINED> instruction: 0x01194297
     d44:	05000013 	streq	r0, [r0, #-19]
     d48:	0e030005 	cdpeq	0, 0, cr0, cr3, cr5, {0}
     d4c:	0b3b0b3a 	bleq	ec3a3c <__bss_end__+0xeb94dc>
     d50:	17021349 	strne	r1, [r2, -r9, asr #6]
     d54:	2e060000 	cdpcs	0, 0, cr0, cr6, cr0, {0}
     d58:	03193f01 	tsteq	r9, #1, 30
     d5c:	3b0b3a0e 	blcc	2cf59c <__bss_end__+0x2c503c>
     d60:	4919270b 	ldmdbmi	r9, {r0, r1, r3, r8, r9, sl, sp}
     d64:	12011113 	andne	r1, r1, #-1073741820	; 0xc0000004
     d68:	97184006 	ldrls	r4, [r8, -r6]
     d6c:	13011942 	movwne	r1, #6466	; 0x1942
     d70:	89070000 	stmdbhi	r7, {}	; <UNPREDICTABLE>
     d74:	11010182 	smlabbne	r1, r2, r1, r0
     d78:	00133101 	andseq	r3, r3, r1, lsl #2
     d7c:	828a0800 	addhi	r0, sl, #0, 16
     d80:	18020001 	stmdane	r2, {r0}
     d84:	00184291 	mulseq	r8, r1, r2
     d88:	00340900 	eorseq	r0, r4, r0, lsl #18
     d8c:	0b3a0803 	bleq	e82da0 <__bss_end__+0xe78840>
     d90:	13490b3b 	movtne	r0, #39739	; 0x9b3b
     d94:	00001802 	andeq	r1, r0, r2, lsl #16
     d98:	0182890a 	orreq	r8, r2, sl, lsl #18
     d9c:	31011100 	mrscc	r1, (UNDEF: 17)
     da0:	0b000013 	bleq	df4 <_start-0x720c>
     da4:	08030005 	stmdaeq	r3, {r0, r2}
     da8:	0b3b0b3a 	bleq	ec3a98 <__bss_end__+0xeb9538>
     dac:	17021349 	strne	r1, [r2, -r9, asr #6]
     db0:	0b0c0000 	bleq	300db8 <__bss_end__+0x2f6858>
     db4:	12011101 	andne	r1, r1, #1073741824	; 0x40000000
     db8:	00130106 	andseq	r0, r3, r6, lsl #2
     dbc:	00340d00 	eorseq	r0, r4, r0, lsl #26
     dc0:	0b3a0803 	bleq	e82dd4 <__bss_end__+0xe78874>
     dc4:	13490b3b 	movtne	r0, #39739	; 0x9b3b
     dc8:	00001702 	andeq	r1, r0, r2, lsl #14
     dcc:	3f012e0e 	svccc	0x00012e0e
     dd0:	3a0e0319 	bcc	381a3c <__bss_end__+0x3774dc>
     dd4:	270b3b0b 	strcs	r3, [fp, -fp, lsl #22]
     dd8:	3c134919 	ldccc	9, cr4, [r3], {25}
     ddc:	0f000019 	svceq	0x00000019
     de0:	13490005 	movtne	r0, #36869	; 0x9005
     de4:	01000000 	mrseq	r0, (UNDEF: 0)
     de8:	0e250111 	mcreq	1, 1, r0, cr5, cr1, {0}
     dec:	0e030b13 	vmoveq.32	d3[0], r0
     df0:	01110e1b 	tsteq	r1, fp, lsl lr
     df4:	17100612 			; <UNDEFINED> instruction: 0x17100612
     df8:	24020000 	strcs	r0, [r2], #-0
     dfc:	3e0b0b00 	vmlacc.f64	d0, d11, d0
     e00:	000e030b 	andeq	r0, lr, fp, lsl #6
     e04:	00240300 	eoreq	r0, r4, r0, lsl #6
     e08:	0b3e0b0b 	bleq	f83a3c <__bss_end__+0xf794dc>
     e0c:	00000803 	andeq	r0, r0, r3, lsl #16
     e10:	0b010404 	bleq	41e28 <__bss_end__+0x378c8>
     e14:	3b0b3a0b 	blcc	2cf648 <__bss_end__+0x2c50e8>
     e18:	0013010b 	andseq	r0, r3, fp, lsl #2
     e1c:	00280500 	eoreq	r0, r8, r0, lsl #10
     e20:	0d1c0e03 	ldceq	14, cr0, [ip, #-12]
     e24:	16060000 	strne	r0, [r6], -r0
     e28:	3a0e0300 	bcc	381a30 <__bss_end__+0x3774d0>
     e2c:	490b3b0b 	stmdbmi	fp, {r0, r1, r3, r8, r9, fp, ip, sp}
     e30:	07000013 	smladeq	r0, r3, r0, r0
     e34:	193f012e 	ldmdbne	pc!, {r1, r2, r3, r5, r8}	; <UNPREDICTABLE>
     e38:	0b3a0e03 	bleq	e8464c <__bss_end__+0xe7a0ec>
     e3c:	19270b3b 	stmdbne	r7!, {r0, r1, r3, r4, r5, r8, r9, fp}
     e40:	06120111 			; <UNDEFINED> instruction: 0x06120111
     e44:	42971840 	addsmi	r1, r7, #64, 16	; 0x400000
     e48:	00130119 	andseq	r0, r3, r9, lsl r1
     e4c:	00050800 	andeq	r0, r5, r0, lsl #16
     e50:	0b3a0803 	bleq	e82e64 <__bss_end__+0xe78904>
     e54:	13490b3b 	movtne	r0, #39739	; 0x9b3b
     e58:	00001702 	andeq	r1, r0, r2, lsl #14
     e5c:	03003409 	movweq	r3, #1033	; 0x409
     e60:	3b0b3a0e 	blcc	2cf6a0 <__bss_end__+0x2c5140>
     e64:	0213490b 	andseq	r4, r3, #180224	; 0x2c000
     e68:	0a000017 	beq	ecc <_start-0x7134>
     e6c:	01018289 	smlabbeq	r1, r9, r2, r8
     e70:	13310111 	teqne	r1, #1073741828	; 0x40000004
     e74:	00001301 	andeq	r1, r0, r1, lsl #6
     e78:	01828a0b 	orreq	r8, r2, fp, lsl #20
     e7c:	91180200 	tstls	r8, r0, lsl #4
     e80:	00001842 	andeq	r1, r0, r2, asr #16
     e84:	0182890c 	orreq	r8, r2, ip, lsl #18
     e88:	31011101 	tstcc	r1, r1, lsl #2
     e8c:	0d000013 	stceq	0, cr0, [r0, #-76]	; 0xffffffb4
     e90:	0b0b000f 	bleq	2c0ed4 <__bss_end__+0x2b6974>
     e94:	00001349 	andeq	r1, r0, r9, asr #6
     e98:	4900350e 	stmdbmi	r0, {r1, r2, r3, r8, sl, ip, sp}
     e9c:	0f000013 	svceq	0x00000013
     ea0:	193f012e 	ldmdbne	pc!, {r1, r2, r3, r5, r8}	; <UNPREDICTABLE>
     ea4:	0b3a0e03 	bleq	e846b8 <__bss_end__+0xe7a158>
     ea8:	19270b3b 	stmdbne	r7!, {r0, r1, r3, r4, r5, r8, r9, fp}
     eac:	01111349 	tsteq	r1, r9, asr #6
     eb0:	18400612 	stmdane	r0, {r1, r4, r9, sl}^
     eb4:	01194297 			; <UNDEFINED> instruction: 0x01194297
     eb8:	10000013 	andne	r0, r0, r3, lsl r0
     ebc:	08030034 	stmdaeq	r3, {r2, r4, r5}
     ec0:	0b3b0b3a 	bleq	ec3bb0 <__bss_end__+0xeb9650>
     ec4:	17021349 	strne	r1, [r2, -r9, asr #6]
     ec8:	89110000 	ldmdbhi	r1, {}	; <UNPREDICTABLE>
     ecc:	11000182 	smlabbne	r0, r2, r1, r0
     ed0:	00133101 	andseq	r3, r3, r1, lsl #2
     ed4:	00051200 	andeq	r1, r5, r0, lsl #4
     ed8:	0b3a0e03 	bleq	e846ec <__bss_end__+0xe7a18c>
     edc:	13490b3b 	movtne	r0, #39739	; 0x9b3b
     ee0:	00001702 	andeq	r1, r0, r2, lsl #14
     ee4:	3f012e13 	svccc	0x00012e13
     ee8:	3a0e0319 	bcc	381b54 <__bss_end__+0x3775f4>
     eec:	27053b0b 	strcs	r3, [r5, -fp, lsl #22]
     ef0:	11134919 	tstne	r3, r9, lsl r9
     ef4:	40061201 	andmi	r1, r6, r1, lsl #4
     ef8:	19429718 	stmdbne	r2, {r3, r4, r8, r9, sl, ip, pc}^
     efc:	00001301 	andeq	r1, r0, r1, lsl #6
     f00:	03000514 	movweq	r0, #1300	; 0x514
     f04:	3b0b3a0e 	blcc	2cf744 <__bss_end__+0x2c51e4>
     f08:	02134905 	andseq	r4, r3, #81920	; 0x14000
     f0c:	15000017 	strne	r0, [r0, #-23]
     f10:	193f012e 	ldmdbne	pc!, {r1, r2, r3, r5, r8}	; <UNPREDICTABLE>
     f14:	0b3a0e03 	bleq	e84728 <__bss_end__+0xe7a1c8>
     f18:	1927053b 	stmdbne	r7!, {r0, r1, r3, r4, r5, r8, sl}
     f1c:	06120111 			; <UNDEFINED> instruction: 0x06120111
     f20:	42971840 	addsmi	r1, r7, #64, 16	; 0x400000
     f24:	00130119 	andseq	r0, r3, r9, lsl r1
     f28:	00051600 	andeq	r1, r5, r0, lsl #12
     f2c:	0b3a0803 	bleq	e82f40 <__bss_end__+0xe789e0>
     f30:	1349053b 	movtne	r0, #38203	; 0x953b
     f34:	00001702 	andeq	r1, r0, r2, lsl #14
     f38:	03003417 	movweq	r3, #1047	; 0x417
     f3c:	3b0b3a0e 	blcc	2cf77c <__bss_end__+0x2c521c>
     f40:	02134905 	andseq	r4, r3, #81920	; 0x14000
     f44:	18000017 	stmdane	r0, {r0, r1, r2, r4}
     f48:	0111010b 	tsteq	r1, fp, lsl #2
     f4c:	13010612 	movwne	r0, #5650	; 0x1612
     f50:	34190000 	ldrcc	r0, [r9], #-0
     f54:	3a0e0300 	bcc	381b5c <__bss_end__+0x3775fc>
     f58:	490b3b0b 	stmdbmi	fp, {r0, r1, r3, r8, r9, fp, ip, sp}
     f5c:	02193f13 	andseq	r3, r9, #19, 30	; 0x4c
     f60:	1a000018 	bne	fc8 <_start-0x7038>
     f64:	0e030034 	mcreq	0, 0, r0, cr3, cr4, {1}
     f68:	053b0b3a 	ldreq	r0, [fp, #-2874]!	; 0xb3a
     f6c:	193f1349 	ldmdbne	pc!, {r0, r3, r6, r8, r9, ip}	; <UNPREDICTABLE>
     f70:	00001802 	andeq	r1, r0, r2, lsl #16
     f74:	3f012e1b 	svccc	0x00012e1b
     f78:	3a0e0319 	bcc	381be4 <__bss_end__+0x377684>
     f7c:	270b3b0b 	strcs	r3, [fp, -fp, lsl #22]
     f80:	3c134919 	ldccc	9, cr4, [r3], {25}
     f84:	00130119 	andseq	r0, r3, r9, lsl r1
     f88:	00051c00 	andeq	r1, r5, r0, lsl #24
     f8c:	00001349 	andeq	r1, r0, r9, asr #6
     f90:	4900261d 	stmdbmi	r0, {r0, r2, r3, r4, r9, sl, sp}
     f94:	1e000013 	mcrne	0, 0, r0, cr0, cr3, {0}
     f98:	00000035 	andeq	r0, r0, r5, lsr r0
     f9c:	3f012e1f 	svccc	0x00012e1f
     fa0:	3a0e0319 	bcc	381c0c <__bss_end__+0x3776ac>
     fa4:	270b3b0b 	strcs	r3, [fp, -fp, lsl #22]
     fa8:	01193c19 	tsteq	r9, r9, lsl ip
     fac:	20000013 	andcs	r0, r0, r3, lsl r0
     fb0:	193f002e 	ldmdbne	pc!, {r1, r2, r3, r5}	; <UNPREDICTABLE>
     fb4:	0b3a0e03 	bleq	e847c8 <__bss_end__+0xe7a268>
     fb8:	19270b3b 	stmdbne	r7!, {r0, r1, r3, r4, r5, r8, r9, fp}
     fbc:	0000193c 	andeq	r1, r0, ip, lsr r9
     fc0:	01110100 	tsteq	r1, r0, lsl #2
     fc4:	0b130e25 	bleq	4c4860 <__bss_end__+0x4ba300>
     fc8:	0e1b0e03 	cdpeq	14, 1, cr0, cr11, cr3, {0}
     fcc:	06120111 			; <UNDEFINED> instruction: 0x06120111
     fd0:	00001710 	andeq	r1, r0, r0, lsl r7
     fd4:	0b002402 	bleq	9fe4 <__FUNCTION__.4407+0x19c>
     fd8:	030b3e0b 	movweq	r3, #48651	; 0xbe0b
     fdc:	03000008 	movweq	r0, #8
     fe0:	0b0b0024 	bleq	2c1078 <__bss_end__+0x2b6b18>
     fe4:	0e030b3e 	vmoveq.16	d3[0], r0
     fe8:	04040000 	streq	r0, [r4], #-0
     fec:	3a0b0b01 	bcc	2c3bf8 <__bss_end__+0x2b9698>
     ff0:	010b3b0b 	tsteq	fp, fp, lsl #22
     ff4:	05000013 	streq	r0, [r0, #-19]
     ff8:	0e030028 	cdpeq	0, 0, cr0, cr3, cr8, {1}
     ffc:	00000d1c 	andeq	r0, r0, ip, lsl sp
    1000:	03001606 	movweq	r1, #1542	; 0x606
    1004:	3b0b3a0e 	blcc	2cf844 <__bss_end__+0x2c52e4>
    1008:	0013490b 	andseq	r4, r3, fp, lsl #18
    100c:	012e0700 	teqeq	lr, r0, lsl #14
    1010:	0e03193f 	mcreq	9, 0, r1, cr3, cr15, {1}
    1014:	0b3b0b3a 	bleq	ec3d04 <__bss_end__+0xeb97a4>
    1018:	01111927 	tsteq	r1, r7, lsr #18
    101c:	18400612 	stmdane	r0, {r1, r4, r9, sl}^
    1020:	01194297 			; <UNDEFINED> instruction: 0x01194297
    1024:	08000013 	stmdaeq	r0, {r0, r1, r4}
    1028:	00018289 	andeq	r8, r1, r9, lsl #5
    102c:	13310111 	teqne	r1, #1073741828	; 0x40000004
    1030:	89090000 	stmdbhi	r9, {}	; <UNPREDICTABLE>
    1034:	11010182 	smlabbne	r1, r2, r1, r0
    1038:	01133101 	tsteq	r3, r1, lsl #2
    103c:	0a000013 	beq	1090 <_start-0x6f70>
    1040:	0001828a 	andeq	r8, r1, sl, lsl #5
    1044:	42911802 	addsmi	r1, r1, #131072	; 0x20000
    1048:	0b000018 	bleq	10b0 <_start-0x6f50>
    104c:	193f012e 	ldmdbne	pc!, {r1, r2, r3, r5, r8}	; <UNPREDICTABLE>
    1050:	0b3a0e03 	bleq	e84864 <__bss_end__+0xe7a304>
    1054:	19270b3b 	stmdbne	r7!, {r0, r1, r3, r4, r5, r8, r9, fp}
    1058:	01111349 	tsteq	r1, r9, asr #6
    105c:	18400612 	stmdane	r0, {r1, r4, r9, sl}^
    1060:	01194297 			; <UNDEFINED> instruction: 0x01194297
    1064:	0c000013 	stceq	0, cr0, [r0], {19}
    1068:	08030005 	stmdaeq	r3, {r0, r2}
    106c:	0b3b0b3a 	bleq	ec3d5c <__bss_end__+0xeb97fc>
    1070:	17021349 	strne	r1, [r2, -r9, asr #6]
    1074:	890d0000 	stmdbhi	sp, {}	; <UNPREDICTABLE>
    1078:	11010182 	smlabbne	r1, r2, r1, r0
    107c:	00133101 	andseq	r3, r3, r1, lsl #2
    1080:	00340e00 	eorseq	r0, r4, r0, lsl #28
    1084:	0b3a0e03 	bleq	e84898 <__bss_end__+0xe7a338>
    1088:	13490b3b 	movtne	r0, #39739	; 0x9b3b
    108c:	1802193f 	stmdane	r2, {r0, r1, r2, r3, r4, r5, r8, fp, ip}
    1090:	0f0f0000 	svceq	0x000f0000
    1094:	490b0b00 	stmdbmi	fp, {r8, r9, fp}
    1098:	10000013 	andne	r0, r0, r3, lsl r0
    109c:	13490035 	movtne	r0, #36917	; 0x9035
    10a0:	2e110000 	cdpcs	0, 1, cr0, cr1, cr0, {0}
    10a4:	03193f00 	tsteq	r9, #0, 30
    10a8:	3b0b3a0e 	blcc	2cf8e8 <__bss_end__+0x2c5388>
    10ac:	3c19270b 	ldccc	7, cr2, [r9], {11}
    10b0:	12000019 	andne	r0, r0, #25
    10b4:	193f012e 	ldmdbne	pc!, {r1, r2, r3, r5, r8}	; <UNPREDICTABLE>
    10b8:	0b3a0e03 	bleq	e848cc <__bss_end__+0xe7a36c>
    10bc:	19270b3b 	stmdbne	r7!, {r0, r1, r3, r4, r5, r8, r9, fp}
    10c0:	1301193c 	movwne	r1, #6460	; 0x193c
    10c4:	05130000 	ldreq	r0, [r3, #-0]
    10c8:	00134900 	andseq	r4, r3, r0, lsl #18
    10cc:	012e1400 	teqeq	lr, r0, lsl #8
    10d0:	0e03193f 	mcreq	9, 0, r1, cr3, cr15, {1}
    10d4:	0b3b0b3a 	bleq	ec3dc4 <__bss_end__+0xeb9864>
    10d8:	13491927 	movtne	r1, #39207	; 0x9927
    10dc:	1301193c 	movwne	r1, #6460	; 0x193c
    10e0:	26150000 	ldrcs	r0, [r5], -r0
    10e4:	00134900 	andseq	r4, r3, r0, lsl #18
    10e8:	00351600 	eorseq	r1, r5, r0, lsl #12
    10ec:	Address 0x00000000000010ec is out of bounds.


Disassembly of section .debug_loc:

00000000 <.debug_loc>:
       0:	00000010 	andeq	r0, r0, r0, lsl r0
       4:	00000014 	andeq	r0, r0, r4, lsl r0
       8:	14500001 	ldrbne	r0, [r0], #-1
       c:	1c000000 	stcne	0, cr0, [r0], {-0}
      10:	04000000 	streq	r0, [r0], #-0
      14:	5001f300 	andpl	pc, r1, r0, lsl #6
      18:	0000009f 	muleq	r0, pc, r0	; <UNPREDICTABLE>
      1c:	00000000 	andeq	r0, r0, r0
      20:	00001400 	andeq	r1, r0, r0, lsl #8
      24:	00001800 	andeq	r1, r0, r0, lsl #16
      28:	50000100 	andpl	r0, r0, r0, lsl #2
	...
      34:	0000001c 	andeq	r0, r0, ip, lsl r0
      38:	00000024 	andeq	r0, r0, r4, lsr #32
      3c:	24500001 	ldrbcs	r0, [r0], #-1
      40:	38000000 	stmdacc	r0, {}	; <UNPREDICTABLE>
      44:	04000000 	streq	r0, [r0], #-0
      48:	5001f300 	andpl	pc, r1, r0, lsl #6
      4c:	0000009f 	muleq	r0, pc, r0	; <UNPREDICTABLE>
      50:	00000000 	andeq	r0, r0, r0
      54:	00001c00 	andeq	r1, r0, r0, lsl #24
      58:	00002000 	andeq	r2, r0, r0
      5c:	51000100 	mrspl	r0, (UNDEF: 16)
      60:	00000020 	andeq	r0, r0, r0, lsr #32
      64:	00000038 	andeq	r0, r0, r8, lsr r0
      68:	01f30004 	mvnseq	r0, r4
      6c:	00009f51 	andeq	r9, r0, r1, asr pc
      70:	00000000 	andeq	r0, r0, r0
      74:	00380000 	eorseq	r0, r8, r0
      78:	00580000 	subseq	r0, r8, r0
      7c:	00010000 	andeq	r0, r1, r0
      80:	00005851 	andeq	r5, r0, r1, asr r8
      84:	0000a000 	andeq	sl, r0, r0
      88:	f3000400 	vshl.u8	d0, d0, d0
      8c:	009f5101 	addseq	r5, pc, r1, lsl #2
      90:	00000000 	andeq	r0, r0, r0
      94:	50000000 	andpl	r0, r0, r0
      98:	98000000 	stmdals	r0, {}	; <UNPREDICTABLE>
      9c:	01000000 	mrseq	r0, (UNDEF: 0)
      a0:	00005400 	andeq	r5, r0, r0, lsl #8
      a4:	00000000 	andeq	r0, r0, r0
      a8:	00600000 	rsbeq	r0, r0, r0
      ac:	00640000 	rsbeq	r0, r4, r0
      b0:	00010000 	andeq	r0, r1, r0
      b4:	00006450 	andeq	r6, r0, r0, asr r4
      b8:	00009800 	andeq	r9, r0, r0, lsl #16
      bc:	57000100 	strpl	r0, [r0, -r0, lsl #2]
	...
      c8:	00000070 	andeq	r0, r0, r0, ror r0
      cc:	00000074 	andeq	r0, r0, r4, ror r0
      d0:	74500001 	ldrbvc	r0, [r0], #-1
      d4:	98000000 	stmdals	r0, {}	; <UNPREDICTABLE>
      d8:	01000000 	mrseq	r0, (UNDEF: 0)
      dc:	00005600 	andeq	r5, r0, r0, lsl #12
      e0:	00000000 	andeq	r0, r0, r0
      e4:	00800000 	addeq	r0, r0, r0
      e8:	00840000 	addeq	r0, r4, r0
      ec:	00010000 	andeq	r0, r1, r0
      f0:	00008450 	andeq	r8, r0, r0, asr r4
      f4:	00008f00 	andeq	r8, r0, r0, lsl #30
      f8:	53000100 	movwpl	r0, #256	; 0x100
	...
     104:	000000a0 	andeq	r0, r0, r0, lsr #1
     108:	000000b4 	strheq	r0, [r0], -r4
     10c:	b4500001 	ldrblt	r0, [r0], #-1
     110:	3c000000 	stccc	0, cr0, [r0], {-0}
     114:	01000001 	tsteq	r0, r1
     118:	013c5500 	teqeq	ip, r0, lsl #10
     11c:	01500000 	cmpeq	r0, r0
     120:	00040000 	andeq	r0, r4, r0
     124:	9f5001f3 	svcls	0x005001f3
	...
     130:	000000a0 	andeq	r0, r0, r0, lsr #1
     134:	000000b8 	strheq	r0, [r0], -r8
     138:	b8510001 	ldmdalt	r1, {r0}^
     13c:	50000000 	andpl	r0, r0, r0
     140:	04000001 	streq	r0, [r0], #-1
     144:	5101f300 	mrspl	pc, SP_irq	; <UNPREDICTABLE>
     148:	0000009f 	muleq	r0, pc, r0	; <UNPREDICTABLE>
     14c:	00000000 	andeq	r0, r0, r0
     150:	0000a000 	andeq	sl, r0, r0
     154:	0000bb00 	andeq	fp, r0, r0, lsl #22
     158:	52000100 	andpl	r0, r0, #0, 2
     15c:	000000bb 	strheq	r0, [r0], -fp
     160:	00000150 	andeq	r0, r0, r0, asr r1
     164:	01f30004 	mvnseq	r0, r4
     168:	00009f52 	andeq	r9, r0, r2, asr pc
     16c:	00000000 	andeq	r0, r0, r0
     170:	00a00000 	adceq	r0, r0, r0
     174:	00bb0000 	adcseq	r0, fp, r0
     178:	00010000 	andeq	r0, r1, r0
     17c:	0000bb53 	andeq	fp, r0, r3, asr fp
     180:	00013c00 	andeq	r3, r1, r0, lsl #24
     184:	56000100 	strpl	r0, [r0], -r0, lsl #2
     188:	0000013c 	andeq	r0, r0, ip, lsr r1
     18c:	00000150 	andeq	r0, r0, r0, asr r1
     190:	01f30004 	mvnseq	r0, r4
     194:	00009f53 	andeq	r9, r0, r3, asr pc
     198:	00000000 	andeq	r0, r0, r0
     19c:	00c00000 	sbceq	r0, r0, r0
     1a0:	00c70000 	sbceq	r0, r7, r0
     1a4:	00010000 	andeq	r0, r1, r0
     1a8:	0000c750 	andeq	ip, r0, r0, asr r7
     1ac:	00013c00 	andeq	r3, r1, r0, lsl #24
     1b0:	57000100 	strpl	r0, [r0, -r0, lsl #2]
	...
     1bc:	000000d8 	ldrdeq	r0, [r0], -r8
     1c0:	0000013c 	andeq	r0, r0, ip, lsr r1
     1c4:	00540001 	subseq	r0, r4, r1
     1c8:	00000000 	andeq	r0, r0, r0
     1cc:	50000000 	andpl	r0, r0, r0
     1d0:	67000001 	strvs	r0, [r0, -r1]
     1d4:	01000001 	tsteq	r0, r1
     1d8:	01675000 	cmneq	r7, r0
     1dc:	01800000 	orreq	r0, r0, r0
     1e0:	00040000 	andeq	r0, r4, r0
     1e4:	9f5001f3 	svcls	0x005001f3
     1e8:	00000180 	andeq	r0, r0, r0, lsl #3
     1ec:	0000018f 	andeq	r0, r0, pc, lsl #3
     1f0:	8f500001 	svchi	0x00500001
     1f4:	a8000001 	stmdage	r0, {r0}
     1f8:	04000001 	streq	r0, [r0], #-1
     1fc:	5001f300 	andpl	pc, r1, r0, lsl #6
     200:	0001a89f 	muleq	r1, pc, r8	; <UNPREDICTABLE>
     204:	0001ac00 	andeq	sl, r1, r0, lsl #24
     208:	50000100 	andpl	r0, r0, r0, lsl #2
     20c:	000001ac 	andeq	r0, r0, ip, lsr #3
     210:	000001e4 	andeq	r0, r0, r4, ror #3
     214:	01f30004 	mvnseq	r0, r4
     218:	00009f50 	andeq	r9, r0, r0, asr pc
     21c:	00000000 	andeq	r0, r0, r0
     220:	01500000 	cmpeq	r0, r0
     224:	01670000 	cmneq	r7, r0
     228:	00010000 	andeq	r0, r1, r0
     22c:	00016751 	andeq	r6, r1, r1, asr r7
     230:	00018000 	andeq	r8, r1, r0
     234:	91000200 	mrsls	r0, R8_usr
     238:	00018067 	andeq	r8, r1, r7, rrx
     23c:	00018f00 	andeq	r8, r1, r0, lsl #30
     240:	51000100 	mrspl	r0, (UNDEF: 16)
     244:	0000018f 	andeq	r0, r0, pc, lsl #3
     248:	000001a8 	andeq	r0, r0, r8, lsr #3
     24c:	67910002 	ldrvs	r0, [r1, r2]
     250:	000001a8 	andeq	r0, r0, r8, lsr #3
     254:	000001b0 			; <UNDEFINED> instruction: 0x000001b0
     258:	b0510001 	subslt	r0, r1, r1
     25c:	b7000001 	strlt	r0, [r0, -r1]
     260:	02000001 	andeq	r0, r0, #1
     264:	b7007100 	strlt	r7, [r0, -r0, lsl #2]
     268:	e4000001 	str	r0, [r0], #-1
     26c:	02000001 	andeq	r0, r0, #1
     270:	00679100 	rsbeq	r9, r7, r0, lsl #2
     274:	00000000 	andeq	r0, r0, r0
     278:	e4000000 	str	r0, [r0], #-0
     27c:	f0000001 			; <UNDEFINED> instruction: 0xf0000001
     280:	01000001 	tsteq	r0, r1
     284:	01f05000 	mvnseq	r5, r0
     288:	02600000 	rsbeq	r0, r0, #0
     28c:	00040000 	andeq	r0, r4, r0
     290:	9f5001f3 	svcls	0x005001f3
	...
     29c:	000001e4 	andeq	r0, r0, r4, ror #3
     2a0:	000001f7 	strdeq	r0, [r0], -r7
     2a4:	f7510001 			; <UNDEFINED> instruction: 0xf7510001
     2a8:	10000001 	andne	r0, r0, r1
     2ac:	04000002 	streq	r0, [r0], #-2
     2b0:	5101f300 	mrspl	pc, SP_irq	; <UNPREDICTABLE>
     2b4:	0002109f 	muleq	r2, pc, r0	; <UNPREDICTABLE>
     2b8:	00021b00 	andeq	r1, r2, r0, lsl #22
     2bc:	51000100 	mrspl	r0, (UNDEF: 16)
     2c0:	0000021b 	andeq	r0, r0, fp, lsl r2
     2c4:	00000234 	andeq	r0, r0, r4, lsr r2
     2c8:	01f30004 	mvnseq	r0, r4
     2cc:	02349f51 	eorseq	r9, r4, #324	; 0x144
     2d0:	02400000 	subeq	r0, r0, #0
     2d4:	00010000 	andeq	r0, r1, r0
     2d8:	00024051 	andeq	r4, r2, r1, asr r0
     2dc:	00024700 	andeq	r4, r2, r0, lsl #14
     2e0:	71000200 	mrsvc	r0, R8_usr
     2e4:	00024700 	andeq	r4, r2, r0, lsl #14
     2e8:	00026000 	andeq	r6, r2, r0
     2ec:	f3000400 	vshl.u8	d0, d0, d0
     2f0:	009f5101 	addseq	r5, pc, r1, lsl #2
     2f4:	00000000 	andeq	r0, r0, r0
     2f8:	e4000000 	str	r0, [r0], #-0
     2fc:	f7000001 			; <UNDEFINED> instruction: 0xf7000001
     300:	01000001 	tsteq	r0, r1
     304:	01f75200 	mvnseq	r5, r0, lsl #4
     308:	02100000 	andseq	r0, r0, #0
     30c:	00040000 	andeq	r0, r4, r0
     310:	9f5201f3 	svcls	0x005201f3
     314:	00000210 	andeq	r0, r0, r0, lsl r2
     318:	0000021b 	andeq	r0, r0, fp, lsl r2
     31c:	1b520001 	blne	1480328 <__bss_end__+0x1475dc8>
     320:	34000002 	strcc	r0, [r0], #-2
     324:	04000002 	streq	r0, [r0], #-2
     328:	5201f300 	andpl	pc, r1, #0, 6
     32c:	0002349f 	muleq	r2, pc, r4	; <UNPREDICTABLE>
     330:	00024400 	andeq	r4, r2, r0, lsl #8
     334:	52000100 	andpl	r0, r0, #0, 2
     338:	00000244 	andeq	r0, r0, r4, asr #4
     33c:	00000247 	andeq	r0, r0, r7, asr #4
     340:	6d910002 	ldcvs	0, cr0, [r1, #8]
     344:	00000247 	andeq	r0, r0, r7, asr #4
     348:	00000260 	andeq	r0, r0, r0, ror #4
     34c:	01f30004 	mvnseq	r0, r4
     350:	00009f52 	andeq	r9, r0, r2, asr pc
     354:	00000000 	andeq	r0, r0, r0
     358:	02600000 	rsbeq	r0, r0, #0
     35c:	027f0000 	rsbseq	r0, pc, #0
     360:	00010000 	andeq	r0, r1, r0
     364:	00027f50 	andeq	r7, r2, r0, asr pc
     368:	00029800 	andeq	r9, r2, r0, lsl #16
     36c:	f3000400 	vshl.u8	d0, d0, d0
     370:	989f5001 	ldmls	pc, {r0, ip, lr}	; <UNPREDICTABLE>
     374:	a7000002 	strge	r0, [r0, -r2]
     378:	01000002 	tsteq	r0, r2
     37c:	02a75000 	adceq	r5, r7, #0
     380:	02c00000 	sbceq	r0, r0, #0
     384:	00040000 	andeq	r0, r4, r0
     388:	9f5001f3 	svcls	0x005001f3
     38c:	000002c0 	andeq	r0, r0, r0, asr #5
     390:	000002c4 	andeq	r0, r0, r4, asr #5
     394:	c4500001 	ldrbgt	r0, [r0], #-1
     398:	f8000002 			; <UNDEFINED> instruction: 0xf8000002
     39c:	04000002 	streq	r0, [r0], #-2
     3a0:	5001f300 	andpl	pc, r1, r0, lsl #6
     3a4:	0000009f 	muleq	r0, pc, r0	; <UNPREDICTABLE>
     3a8:	00000000 	andeq	r0, r0, r0
     3ac:	00026000 	andeq	r6, r2, r0
     3b0:	00027f00 	andeq	r7, r2, r0, lsl #30
     3b4:	51000100 	mrspl	r0, (UNDEF: 16)
     3b8:	0000027f 	andeq	r0, r0, pc, ror r2
     3bc:	00000298 	muleq	r0, r8, r2
     3c0:	67910002 	ldrvs	r0, [r1, r2]
     3c4:	00000298 	muleq	r0, r8, r2
     3c8:	000002a7 	andeq	r0, r0, r7, lsr #5
     3cc:	a7510001 	ldrbge	r0, [r1, -r1]
     3d0:	c0000002 	andgt	r0, r0, r2
     3d4:	02000002 	andeq	r0, r0, #2
     3d8:	c0679100 	rsbgt	r9, r7, r0, lsl #2
     3dc:	c8000002 	stmdagt	r0, {r1}
     3e0:	01000002 	tsteq	r0, r2
     3e4:	02c85100 	sbceq	r5, r8, #0, 2
     3e8:	02cf0000 	sbceq	r0, pc, #0
     3ec:	00020000 	andeq	r0, r2, r0
     3f0:	02cf0071 	sbceq	r0, pc, #113	; 0x71
     3f4:	02f80000 	rscseq	r0, r8, #0
     3f8:	00020000 	andeq	r0, r2, r0
     3fc:	00006791 	muleq	r0, r1, r7
     400:	00000000 	andeq	r0, r0, r0
     404:	02600000 	rsbeq	r0, r0, #0
     408:	027f0000 	rsbseq	r0, pc, #0
     40c:	00010000 	andeq	r0, r1, r0
     410:	00027f52 	andeq	r7, r2, r2, asr pc
     414:	00029800 	andeq	r9, r2, r0, lsl #16
     418:	56000100 	strpl	r0, [r0], -r0, lsl #2
     41c:	00000298 	muleq	r0, r8, r2
     420:	000002a7 	andeq	r0, r0, r7, lsr #5
     424:	a7520001 	ldrbge	r0, [r2, -r1]
     428:	c0000002 	andgt	r0, r0, r2
     42c:	01000002 	tsteq	r0, r2
     430:	02c05600 	sbceq	r5, r0, #0, 12
     434:	02cc0000 	sbceq	r0, ip, #0
     438:	00010000 	andeq	r0, r1, r0
     43c:	0002cc52 	andeq	ip, r2, r2, asr ip
     440:	0002e800 	andeq	lr, r2, r0, lsl #16
     444:	56000100 	strpl	r0, [r0], -r0, lsl #2
     448:	000002e8 	andeq	r0, r0, r8, ror #5
     44c:	000002f8 	strdeq	r0, [r0], -r8
     450:	01f30004 	mvnseq	r0, r4
     454:	00009f52 	andeq	r9, r0, r2, asr pc
     458:	00000000 	andeq	r0, r0, r0
     45c:	02600000 	rsbeq	r0, r0, #0
     460:	027f0000 	rsbseq	r0, pc, #0
     464:	00010000 	andeq	r0, r1, r0
     468:	00027f53 	andeq	r7, r2, r3, asr pc
     46c:	00029800 	andeq	r9, r2, r0, lsl #16
     470:	55000100 	strpl	r0, [r0, #-256]	; 0x100
     474:	00000298 	muleq	r0, r8, r2
     478:	0000029c 	muleq	r0, ip, r2
     47c:	9c530001 	mrrcls	0, 0, r0, r3, cr1
     480:	e8000002 	stmda	r0, {r1}
     484:	01000002 	tsteq	r0, r2
     488:	02e85500 	rsceq	r5, r8, #0, 10
     48c:	02f80000 	rscseq	r0, r8, #0
     490:	00040000 	andeq	r0, r4, r0
     494:	9f5301f3 	svcls	0x005301f3
	...
     4a0:	000002f8 	strdeq	r0, [r0], -r8
     4a4:	0000032c 	andeq	r0, r0, ip, lsr #6
     4a8:	2c500001 	mrrccs	0, 0, r0, r0, cr1	; <UNPREDICTABLE>
     4ac:	30000003 	andcc	r0, r0, r3
     4b0:	04000003 	streq	r0, [r0], #-3
     4b4:	5001f300 	andpl	pc, r1, r0, lsl #6
     4b8:	0003309f 	muleq	r3, pc, r0	; <UNPREDICTABLE>
     4bc:	00033400 	andeq	r3, r3, r0, lsl #8
     4c0:	50000100 	andpl	r0, r0, r0, lsl #2
     4c4:	00000334 	andeq	r0, r0, r4, lsr r3
     4c8:	00000338 	andeq	r0, r0, r8, lsr r3
     4cc:	01f30004 	mvnseq	r0, r4
     4d0:	03389f50 	teqeq	r8, #80, 30	; 0x140
     4d4:	033b0000 	teqeq	fp, #0
     4d8:	00010000 	andeq	r0, r1, r0
     4dc:	00033b50 	andeq	r3, r3, r0, asr fp
     4e0:	00035400 	andeq	r5, r3, r0, lsl #8
     4e4:	f3000400 	vshl.u8	d0, d0, d0
     4e8:	549f5001 	ldrpl	r5, [pc], #1	; 4f0 <_start-0x7b10>
     4ec:	58000003 	stmdapl	r0, {r0, r1}
     4f0:	01000003 	tsteq	r0, r3
     4f4:	03585000 	cmpeq	r8, #0
     4f8:	035c0000 	cmpeq	ip, #0
     4fc:	00040000 	andeq	r0, r4, r0
     500:	9f5001f3 	svcls	0x005001f3
     504:	0000035c 	andeq	r0, r0, ip, asr r3
     508:	00000360 	andeq	r0, r0, r0, ror #6
     50c:	60500001 	subsvs	r0, r0, r1
     510:	80000003 	andhi	r0, r0, r3
     514:	04000003 	streq	r0, [r0], #-3
     518:	5001f300 	andpl	pc, r1, r0, lsl #6
     51c:	0000009f 	muleq	r0, pc, r0	; <UNPREDICTABLE>
     520:	00000000 	andeq	r0, r0, r0
     524:	00038000 	andeq	r8, r3, r0
     528:	00039b00 	andeq	r9, r3, r0, lsl #22
     52c:	51000100 	mrspl	r0, (UNDEF: 16)
     530:	0000039b 	muleq	r0, fp, r3
     534:	000004d8 	ldrdeq	r0, [r0], -r8
     538:	01f30004 	mvnseq	r0, r4
     53c:	00009f51 	andeq	r9, r0, r1, asr pc
     540:	00000000 	andeq	r0, r0, r0
     544:	03800000 	orreq	r0, r0, #0
     548:	039b0000 	orrseq	r0, fp, #0
     54c:	00010000 	andeq	r0, r1, r0
     550:	00039b52 	andeq	r9, r3, r2, asr fp
     554:	0004b000 	andeq	fp, r4, r0
     558:	54000100 	strpl	r0, [r0], #-256	; 0x100
     55c:	000004b0 			; <UNDEFINED> instruction: 0x000004b0
     560:	000004d8 	ldrdeq	r0, [r0], -r8
     564:	08700002 	ldmdaeq	r0!, {r1}^
	...
     570:	00000380 	andeq	r0, r0, r0, lsl #7
     574:	0000039b 	muleq	r0, fp, r3
     578:	9b530001 	blls	14c0584 <__bss_end__+0x14b6024>
     57c:	d8000003 	stmdale	r0, {r0, r1}
     580:	04000004 	streq	r0, [r0], #-4
     584:	5301f300 	movwpl	pc, #4864	; 0x1300	; <UNPREDICTABLE>
     588:	0000009f 	muleq	r0, pc, r0	; <UNPREDICTABLE>
     58c:	00000000 	andeq	r0, r0, r0
     590:	00038000 	andeq	r8, r3, r0
     594:	00039b00 	andeq	r9, r3, r0, lsl #22
     598:	70000200 	andvc	r0, r0, r0, lsl #4
     59c:	00039b00 	andeq	r9, r3, r0, lsl #22
     5a0:	0004b000 	andeq	fp, r4, r0
     5a4:	75000200 	strvc	r0, [r0, #-512]	; 0x200
     5a8:	0004b000 	andeq	fp, r4, r0
     5ac:	0004d800 	andeq	sp, r4, r0, lsl #16
     5b0:	70000200 	andvc	r0, r0, r0, lsl #4
	...
     5bc:	00039c00 	andeq	r9, r3, r0, lsl #24
     5c0:	0004b000 	andeq	fp, r4, r0
     5c4:	54000100 	strpl	r0, [r0], #-256	; 0x100
     5c8:	000004b0 			; <UNDEFINED> instruction: 0x000004b0
     5cc:	000004d8 	ldrdeq	r0, [r0], -r8
     5d0:	08700002 	ldmdaeq	r0!, {r1}^
	...
     5dc:	000003fc 	strdeq	r0, [r0], -ip
     5e0:	000004b0 			; <UNDEFINED> instruction: 0x000004b0
     5e4:	b0560001 	subslt	r0, r6, r1
     5e8:	d8000004 	stmdale	r0, {r2}
     5ec:	02000004 	andeq	r0, r0, #4
     5f0:	00047000 	andeq	r7, r4, r0
     5f4:	00000000 	andeq	r0, r0, r0
     5f8:	d8000000 	stmdale	r0, {}	; <UNPREDICTABLE>
     5fc:	e0000004 	and	r0, r0, r4
     600:	01000004 	tsteq	r0, r4
     604:	04e05000 	strbteq	r5, [r0], #0
     608:	05000000 	streq	r0, [r0, #-0]
     60c:	00040000 	andeq	r0, r4, r0
     610:	9f5001f3 	svcls	0x005001f3
	...
     61c:	000004e8 	andeq	r0, r0, r8, ror #9
     620:	000004f4 	strdeq	r0, [r0], -r4
     624:	00700008 	rsbseq	r0, r0, r8
     628:	ff081a32 			; <UNDEFINED> instruction: 0xff081a32
     62c:	04f89f1a 	ldrbteq	r9, [r8], #3866	; 0xf1a
     630:	04fc0000 	ldrbteq	r0, [ip], #0
     634:	00080000 	andeq	r0, r8, r0
     638:	1a320070 	bne	c80800 <__bss_end__+0xc762a0>
     63c:	9f1aff08 	svcls	0x001aff08
	...
     648:	00000500 	andeq	r0, r0, r0, lsl #10
     64c:	00000510 	andeq	r0, r0, r0, lsl r5
     650:	10510001 	subsne	r0, r1, r1
     654:	54000005 	strpl	r0, [r0], #-5
     658:	01000005 	tsteq	r0, r5
     65c:	05545400 	ldrbeq	r5, [r4, #-1024]	; 0x400
     660:	05780000 	ldrbeq	r0, [r8, #-0]!
     664:	00040000 	andeq	r0, r4, r0
     668:	9f5101f3 	svcls	0x005101f3
	...
     674:	00000544 	andeq	r0, r0, r4, asr #10
     678:	00000548 	andeq	r0, r0, r8, asr #10
     67c:	48500001 	ldmdami	r0, {r0}^
     680:	78000005 	stmdavc	r0, {r0, r2}
     684:	01000005 	tsteq	r0, r5
     688:	00005600 	andeq	r5, r0, r0, lsl #12
     68c:	00000000 	andeq	r0, r0, r0
     690:	05540000 	ldrbeq	r0, [r4, #-0]
     694:	05580000 	ldrbeq	r0, [r8, #-0]
     698:	00010000 	andeq	r0, r1, r0
     69c:	00055850 	andeq	r5, r5, r0, asr r8
     6a0:	00057800 	andeq	r7, r5, r0, lsl #16
     6a4:	54000100 	strpl	r0, [r0], #-256	; 0x100
	...
     6b0:	00000560 	andeq	r0, r0, r0, ror #10
     6b4:	00000570 	andeq	r0, r0, r0, ror r5
     6b8:	70500001 	subsvc	r0, r0, r1
     6bc:	78000005 	stmdavc	r0, {r0, r2}
     6c0:	02000005 	andeq	r0, r0, #5
     6c4:	00087000 	andeq	r7, r8, r0
	...
     6d0:	10000005 	andne	r0, r0, r5
     6d4:	02000005 	andeq	r0, r0, #5
     6d8:	10007000 	andne	r7, r0, r0
     6dc:	78000005 	stmdavc	r0, {r0, r2}
     6e0:	02000005 	andeq	r0, r0, #5
     6e4:	00007500 	andeq	r7, r0, r0, lsl #10
     6e8:	00000000 	andeq	r0, r0, r0
     6ec:	8c000000 	stchi	0, cr0, [r0], {-0}
     6f0:	90000005 	andls	r0, r0, r5
     6f4:	01000005 	tsteq	r0, r5
     6f8:	05905000 	ldreq	r5, [r0]
     6fc:	06140000 	ldreq	r0, [r4], -r0
     700:	00010000 	andeq	r0, r1, r0
     704:	00000054 	andeq	r0, r0, r4, asr r0
     708:	00000000 	andeq	r0, r0, r0
     70c:	00060c00 	andeq	r0, r6, r0, lsl #24
     710:	00062800 	andeq	r2, r6, r0, lsl #16
     714:	30000200 	andcc	r0, r0, r0, lsl #4
     718:	0006289f 	muleq	r6, pc, r8	; <UNPREDICTABLE>
     71c:	00069800 	andeq	r9, r6, r0, lsl #16
     720:	56000100 	strpl	r0, [r0], -r0, lsl #2
	...
     72c:	000006d4 	ldrdeq	r0, [r0], -r4
     730:	000006df 	ldrdeq	r0, [r0], -pc	; <UNPREDICTABLE>
     734:	df500001 	svcle	0x00500001
     738:	04000006 	streq	r0, [r0], #-6
     73c:	01000007 	tsteq	r0, r7
     740:	07045400 	streq	r5, [r4, -r0, lsl #8]
     744:	07080000 	streq	r0, [r8, -r0]
     748:	00010000 	andeq	r0, r1, r0
     74c:	00070850 	andeq	r0, r7, r0, asr r8
     750:	00072400 	andeq	r2, r7, r0, lsl #8
     754:	54000100 	strpl	r0, [r0], #-256	; 0x100
	...
     760:	000003ec 	andeq	r0, r0, ip, ror #7
     764:	00000403 	andeq	r0, r0, r3, lsl #8
     768:	03500001 	cmpeq	r0, #1
     76c:	ac000004 	stcge	0, cr0, [r0], {4}
     770:	04000004 	streq	r0, [r0], #-4
     774:	5001f300 	andpl	pc, r1, r0, lsl #6
     778:	0000009f 	muleq	r0, pc, r0	; <UNPREDICTABLE>
     77c:	00000000 	andeq	r0, r0, r0
     780:	0003ec00 	andeq	lr, r3, r0, lsl #24
     784:	00040000 	andeq	r0, r4, r0
     788:	51000100 	mrspl	r0, (UNDEF: 16)
     78c:	00000400 	andeq	r0, r0, r0, lsl #8
     790:	000004ac 	andeq	r0, r0, ip, lsr #9
     794:	00550001 	subseq	r0, r5, r1
     798:	00000000 	andeq	r0, r0, r0
     79c:	ec000000 	stc	0, cr0, [r0], {-0}
     7a0:	fc000003 	stc2	0, cr0, [r0], {3}
     7a4:	01000003 	tsteq	r0, r3
     7a8:	03fc5200 	mvnseq	r5, #0, 4
     7ac:	04ac0000 	strteq	r0, [ip], #0
     7b0:	00010000 	andeq	r0, r1, r0
     7b4:	00000054 	andeq	r0, r0, r4, asr r0
     7b8:	00000000 	andeq	r0, r0, r0
     7bc:	00040400 	andeq	r0, r4, r0, lsl #8
     7c0:	00040c00 	andeq	r0, r4, r0, lsl #24
     7c4:	30000200 	andcc	r0, r0, r0, lsl #4
     7c8:	00040c9f 	muleq	r4, pc, ip	; <UNPREDICTABLE>
     7cc:	00040f00 	andeq	r0, r4, r0, lsl #30
     7d0:	52000100 	andpl	r0, r0, #0, 2
     7d4:	00000428 	andeq	r0, r0, r8, lsr #8
     7d8:	00000473 	andeq	r0, r0, r3, ror r4
     7dc:	8c520001 	mrrchi	0, 0, r0, r2, cr1
     7e0:	8f000004 	svchi	0x00000004
     7e4:	01000004 	tsteq	r0, r4
     7e8:	00005200 	andeq	r5, r0, r0, lsl #4
     7ec:	00000000 	andeq	r0, r0, r0
     7f0:	03280000 	teqeq	r8, #0
     7f4:	033f0000 	teqeq	pc, #0
     7f8:	00010000 	andeq	r0, r1, r0
     7fc:	00033f50 	andeq	r3, r3, r0, asr pc
     800:	0003ec00 	andeq	lr, r3, r0, lsl #24
     804:	f3000400 	vshl.u8	d0, d0, d0
     808:	009f5001 	addseq	r5, pc, r1
     80c:	00000000 	andeq	r0, r0, r0
     810:	28000000 	stmdacs	r0, {}	; <UNPREDICTABLE>
     814:	3c000003 	stccc	0, cr0, [r0], {3}
     818:	01000003 	tsteq	r0, r3
     81c:	033c5100 	teqeq	ip, #0, 2
     820:	03ec0000 	mvneq	r0, #0
     824:	00010000 	andeq	r0, r1, r0
     828:	00000055 	andeq	r0, r0, r5, asr r0
     82c:	00000000 	andeq	r0, r0, r0
     830:	00032800 	andeq	r2, r3, r0, lsl #16
     834:	00033800 	andeq	r3, r3, r0, lsl #16
     838:	52000100 	andpl	r0, r0, #0, 2
     83c:	00000338 	andeq	r0, r0, r8, lsr r3
     840:	000003ec 	andeq	r0, r0, ip, ror #7
     844:	00540001 	subseq	r0, r4, r1
     848:	00000000 	andeq	r0, r0, r0
     84c:	40000000 	andmi	r0, r0, r0
     850:	48000003 	stmdami	r0, {r0, r1}
     854:	02000003 	andeq	r0, r0, #3
     858:	489f3000 	ldmmi	pc, {ip, sp}	; <UNPREDICTABLE>
     85c:	4b000003 	blmi	870 <_start-0x7790>
     860:	01000003 	tsteq	r0, r3
     864:	03645200 	cmneq	r4, #0, 4
     868:	03af0000 			; <UNDEFINED> instruction: 0x03af0000
     86c:	00010000 	andeq	r0, r1, r0
     870:	0003c852 	andeq	ip, r3, r2, asr r8
     874:	0003cb00 	andeq	ip, r3, r0, lsl #22
     878:	52000100 	andpl	r0, r0, #0, 2
	...
     884:	00000160 	andeq	r0, r0, r0, ror #2
     888:	00000173 	andeq	r0, r0, r3, ror r1
     88c:	73500001 	cmpvc	r0, #1
     890:	28000001 	stmdacs	r0, {r0}
     894:	01000003 	tsteq	r0, r3
     898:	00005600 	andeq	r5, r0, r0, lsl #12
     89c:	00000000 	andeq	r0, r0, r0
     8a0:	01600000 	cmneq	r0, r0
     8a4:	01730000 	cmneq	r3, r0
     8a8:	00010000 	andeq	r0, r1, r0
     8ac:	00017351 	andeq	r7, r1, r1, asr r3
     8b0:	00021c00 	andeq	r1, r2, r0, lsl #24
     8b4:	55000100 	strpl	r0, [r0, #-256]	; 0x100
     8b8:	0000021c 	andeq	r0, r0, ip, lsl r2
     8bc:	00000288 	andeq	r0, r0, r8, lsl #5
     8c0:	01f30004 	mvnseq	r0, r4
     8c4:	02889f51 	addeq	r9, r8, #324	; 0x144
     8c8:	02dc0000 	sbcseq	r0, ip, #0
     8cc:	00010000 	andeq	r0, r1, r0
     8d0:	0002dc55 	andeq	sp, r2, r5, asr ip
     8d4:	00032800 	andeq	r2, r3, r0, lsl #16
     8d8:	f3000400 	vshl.u8	d0, d0, d0
     8dc:	009f5101 	addseq	r5, pc, r1, lsl #2
     8e0:	00000000 	andeq	r0, r0, r0
     8e4:	60000000 	andvs	r0, r0, r0
     8e8:	73000001 	movwvc	r0, #1
     8ec:	01000001 	tsteq	r0, r1
     8f0:	01735200 	cmneq	r3, r0, lsl #4
     8f4:	03280000 	teqeq	r8, #0
     8f8:	00010000 	andeq	r0, r1, r0
     8fc:	00000054 	andeq	r0, r0, r4, asr r0
     900:	00000000 	andeq	r0, r0, r0
     904:	00022c00 	andeq	r2, r2, r0, lsl #24
     908:	00023000 	andeq	r3, r2, r0
     90c:	50000100 	andpl	r0, r0, r0, lsl #2
	...
     918:	0000013c 	andeq	r0, r0, ip, lsr r1
     91c:	00000140 	andeq	r0, r0, r0, asr #2
     920:	00510001 	subseq	r0, r1, r1
     924:	00000000 	andeq	r0, r0, r0
     928:	18000000 	stmdane	r0, {}	; <UNPREDICTABLE>
     92c:	1f000001 	svcne	0x00000001
     930:	01000001 	tsteq	r0, r1
     934:	011f5000 	tsteq	pc, r0
     938:	01280000 	teqeq	r8, r0
     93c:	00040000 	andeq	r0, r4, r0
     940:	9f5001f3 	svcls	0x005001f3
	...
     94c:	00000014 	andeq	r0, r0, r4, lsl r0
     950:	00000018 	andeq	r0, r0, r8, lsl r0
     954:	00500001 	subseq	r0, r0, r1
     958:	00000000 	andeq	r0, r0, r0
     95c:	50000000 	andpl	r0, r0, r0
     960:	57000001 	strpl	r0, [r0, -r1]
     964:	01000001 	tsteq	r0, r1
     968:	01575000 	cmpeq	r7, r0
     96c:	01600000 	cmneq	r0, r0
     970:	00040000 	andeq	r0, r4, r0
     974:	9f5001f3 	svcls	0x005001f3
	...
     984:	00000004 	andeq	r0, r0, r4
     988:	10500001 	subsne	r0, r0, r1
     98c:	10000000 	andne	r0, r0, r0
     990:	01000000 	mrseq	r0, (UNDEF: 0)
     994:	00005000 	andeq	r5, r0, r0
     998:	00000000 	andeq	r0, r0, r0
     99c:	002c0000 	eoreq	r0, ip, r0
     9a0:	00380000 	eorseq	r0, r8, r0
     9a4:	00010000 	andeq	r0, r1, r0
     9a8:	00003850 	andeq	r3, r0, r0, asr r8
     9ac:	00004800 	andeq	r4, r0, r0, lsl #16
     9b0:	55000100 	strpl	r0, [r0, #-256]	; 0x100
     9b4:	00000048 	andeq	r0, r0, r8, asr #32
     9b8:	00000058 	andeq	r0, r0, r8, asr r0
     9bc:	00500001 	subseq	r0, r0, r1
	...
     9c8:	0b000000 	bleq	9d0 <_start-0x7630>
     9cc:	01000000 	mrseq	r0, (UNDEF: 0)
     9d0:	000b5000 	andeq	r5, fp, r0
     9d4:	00140000 	andseq	r0, r4, r0
     9d8:	00010000 	andeq	r0, r1, r0
     9dc:	00000054 	andeq	r0, r0, r4, asr r0
	...
     9e8:	00001000 	andeq	r1, r0, r0
     9ec:	50000100 	andpl	r0, r0, r0, lsl #2
     9f0:	00000010 	andeq	r0, r0, r0, lsl r0
     9f4:	00000034 	andeq	r0, r0, r4, lsr r0
     9f8:	00540001 	subseq	r0, r4, r1
	...
     a04:	04000000 	streq	r0, [r0], #-0
     a08:	01000000 	mrseq	r0, (UNDEF: 0)
     a0c:	00045000 	andeq	r5, r4, r0
     a10:	000c0000 	andeq	r0, ip, r0
     a14:	00030000 	andeq	r0, r3, r0
     a18:	0c9f3070 	ldceq	0, cr3, [pc], {112}	; 0x70
     a1c:	14000000 	strne	r0, [r0], #-0
     a20:	04000000 	streq	r0, [r0], #-0
     a24:	5001f300 	andpl	pc, r1, r0, lsl #6
     a28:	0000009f 	muleq	r0, pc, r0	; <UNPREDICTABLE>
     a2c:	00000000 	andeq	r0, r0, r0
     a30:	00001400 	andeq	r1, r0, r0, lsl #8
     a34:	00002000 	andeq	r2, r0, r0
     a38:	50000100 	andpl	r0, r0, r0, lsl #2
     a3c:	00000020 	andeq	r0, r0, r0, lsr #32
     a40:	0000002c 	andeq	r0, r0, ip, lsr #32
     a44:	01700003 	cmneq	r0, r3
     a48:	00002c9f 	muleq	r0, pc, ip	; <UNPREDICTABLE>
     a4c:	00004000 	andeq	r4, r0, r0
     a50:	50000100 	andpl	r0, r0, r0, lsl #2
	...
     a5c:	00000014 	andeq	r0, r0, r4, lsl r0
     a60:	00000018 	andeq	r0, r0, r8, lsl r0
     a64:	18510001 	ldmdane	r1, {r0}^
     a68:	40000000 	andmi	r0, r0, r0
     a6c:	04000000 	streq	r0, [r0], #-0
     a70:	5101f300 	mrspl	pc, SP_irq	; <UNPREDICTABLE>
     a74:	0000009f 	muleq	r0, pc, r0	; <UNPREDICTABLE>
     a78:	00000000 	andeq	r0, r0, r0
     a7c:	00004000 	andeq	r4, r0, r0
     a80:	00006000 	andeq	r6, r0, r0
     a84:	50000100 	andpl	r0, r0, r0, lsl #2
     a88:	00000060 	andeq	r0, r0, r0, rrx
     a8c:	0000006c 	andeq	r0, r0, ip, rrx
     a90:	01710003 	cmneq	r1, r3
     a94:	00006c9f 	muleq	r0, pc, ip	; <UNPREDICTABLE>
     a98:	00007400 	andeq	r7, r0, r0, lsl #8
     a9c:	51000100 	mrspl	r0, (UNDEF: 16)
     aa0:	00000074 	andeq	r0, r0, r4, ror r0
     aa4:	00000080 	andeq	r0, r0, r0, lsl #1
     aa8:	01710003 	cmneq	r1, r3
     aac:	0000009f 	muleq	r0, pc, r0	; <UNPREDICTABLE>
     ab0:	00000000 	andeq	r0, r0, r0
     ab4:	00004000 	andeq	r4, r0, r0
     ab8:	00005000 	andeq	r5, r0, r0
     abc:	51000100 	mrspl	r0, (UNDEF: 16)
     ac0:	00000050 	andeq	r0, r0, r0, asr r0
     ac4:	00000080 	andeq	r0, r0, r0, lsl #1
     ac8:	01f30004 	mvnseq	r0, r4
     acc:	00009f51 	andeq	r9, r0, r1, asr pc
     ad0:	00000000 	andeq	r0, r0, r0
     ad4:	00400000 	subeq	r0, r0, r0
     ad8:	00580000 	subseq	r0, r8, r0
     adc:	00010000 	andeq	r0, r1, r0
     ae0:	00005852 	andeq	r5, r0, r2, asr r8
     ae4:	00006400 	andeq	r6, r0, r0, lsl #8
     ae8:	52000100 	andpl	r0, r0, #0, 2
     aec:	00000064 	andeq	r0, r0, r4, rrx
     af0:	00000068 	andeq	r0, r0, r8, rrx
     af4:	01720003 	cmneq	r2, r3
     af8:	0000689f 	muleq	r0, pc, r8	; <UNPREDICTABLE>
     afc:	00008000 	andeq	r8, r0, r0
     b00:	52000100 	andpl	r0, r0, #0, 2
	...
     b0c:	00000040 	andeq	r0, r0, r0, asr #32
     b10:	00000054 	andeq	r0, r0, r4, asr r0
     b14:	54530001 	ldrbpl	r0, [r3], #-1
     b18:	78000000 	stmdavc	r0, {}	; <UNPREDICTABLE>
     b1c:	01000000 	mrseq	r0, (UNDEF: 0)
     b20:	00005300 	andeq	r5, r0, r0, lsl #6
     b24:	00000000 	andeq	r0, r0, r0
     b28:	00480000 	subeq	r0, r8, r0
     b2c:	00600000 	rsbeq	r0, r0, r0
     b30:	00010000 	andeq	r0, r1, r0
     b34:	0000605c 	andeq	r6, r0, ip, asr r0
     b38:	00008000 	andeq	r8, r0, r0
     b3c:	f3000a00 	vpmax.u8	d0, d0, d0
     b40:	01f35201 	mvnseq	r5, r1, lsl #4
     b44:	01231c53 	teqeq	r3, r3, asr ip
     b48:	0000009f 	muleq	r0, pc, r0	; <UNPREDICTABLE>
     b4c:	00000000 	andeq	r0, r0, r0
     b50:	00008000 	andeq	r8, r0, r0
     b54:	0000a400 	andeq	sl, r0, r0, lsl #8
     b58:	50000100 	andpl	r0, r0, r0, lsl #2
     b5c:	000000a4 	andeq	r0, r0, r4, lsr #1
     b60:	00000118 	andeq	r0, r0, r8, lsl r1
     b64:	02700003 	rsbseq	r0, r0, #3
     b68:	0001189f 	muleq	r1, pc, r8	; <UNPREDICTABLE>
     b6c:	00021c00 	andeq	r1, r2, r0, lsl #24
     b70:	f3000400 	vshl.u8	d0, d0, d0
     b74:	009f5001 	addseq	r5, pc, r1
     b78:	00000000 	andeq	r0, r0, r0
     b7c:	80000000 	andhi	r0, r0, r0
     b80:	f0000000 			; <UNDEFINED> instruction: 0xf0000000
     b84:	01000000 	mrseq	r0, (UNDEF: 0)
     b88:	00f05100 	rscseq	r5, r0, r0, lsl #2
     b8c:	01600000 	cmneq	r0, r0
     b90:	00010000 	andeq	r0, r1, r0
     b94:	00016055 	andeq	r6, r1, r5, asr r0
     b98:	00016800 	andeq	r6, r1, r0, lsl #16
     b9c:	51000100 	mrspl	r0, (UNDEF: 16)
     ba0:	00000168 	andeq	r0, r0, r8, ror #2
     ba4:	00000188 	andeq	r0, r0, r8, lsl #3
     ba8:	88550001 	ldmdahi	r5, {r0}^
     bac:	9c000001 	stcls	0, cr0, [r0], {1}
     bb0:	01000001 	tsteq	r0, r1
     bb4:	019c5100 	orrseq	r5, ip, r0, lsl #2
     bb8:	01bc0000 			; <UNDEFINED> instruction: 0x01bc0000
     bbc:	00010000 	andeq	r0, r1, r0
     bc0:	0001bc55 	andeq	fp, r1, r5, asr ip
     bc4:	0001bf00 	andeq	fp, r1, r0, lsl #30
     bc8:	51000100 	mrspl	r0, (UNDEF: 16)
     bcc:	000001bf 			; <UNDEFINED> instruction: 0x000001bf
     bd0:	00000200 	andeq	r0, r0, r0, lsl #4
     bd4:	00550001 	subseq	r0, r5, r1
     bd8:	1c000002 	stcne	0, cr0, [r0], {2}
     bdc:	04000002 	streq	r0, [r0], #-2
     be0:	5101f300 	mrspl	pc, SP_irq	; <UNPREDICTABLE>
     be4:	0000009f 	muleq	r0, pc, r0	; <UNPREDICTABLE>
     be8:	00000000 	andeq	r0, r0, r0
     bec:	00008000 	andeq	r8, r0, r0
     bf0:	00009400 	andeq	r9, r0, r0, lsl #8
     bf4:	52000100 	andpl	r0, r0, #0, 2
     bf8:	00000094 	muleq	r0, r4, r0
     bfc:	00000200 	andeq	r0, r0, r0, lsl #4
     c00:	00540001 	subseq	r0, r4, r1
     c04:	1c000002 	stcne	0, cr0, [r0], {2}
     c08:	04000002 	streq	r0, [r0], #-2
     c0c:	5201f300 	andpl	pc, r1, #0, 6
     c10:	0000009f 	muleq	r0, pc, r0	; <UNPREDICTABLE>
     c14:	00000000 	andeq	r0, r0, r0
     c18:	00008000 	andeq	r8, r0, r0
     c1c:	00010000 	andeq	r0, r1, r0
     c20:	53000100 	movwpl	r0, #256	; 0x100
     c24:	00000104 	andeq	r0, r0, r4, lsl #2
     c28:	00000108 	andeq	r0, r0, r8, lsl #2
     c2c:	60530001 	subsvs	r0, r3, r1
     c30:	68000001 	stmdavs	r0, {r0}
     c34:	01000001 	tsteq	r0, r1
     c38:	01685300 	cmneq	r8, r0, lsl #6
     c3c:	01880000 	orreq	r0, r8, r0
     c40:	00040000 	andeq	r0, r4, r0
     c44:	9f5301f3 	svcls	0x005301f3
     c48:	00000188 	andeq	r0, r0, r8, lsl #3
     c4c:	00000190 	muleq	r0, r0, r1
     c50:	90530001 	subsls	r0, r3, r1
     c54:	94000001 	strls	r0, [r0], #-1
     c58:	01000001 	tsteq	r0, r1
     c5c:	01945c00 	orrseq	r5, r4, r0, lsl #24
     c60:	019c0000 	orrseq	r0, ip, r0
     c64:	00010000 	andeq	r0, r1, r0
     c68:	00019c53 	andeq	r9, r1, r3, asr ip
     c6c:	0001bc00 	andeq	fp, r1, r0, lsl #24
     c70:	f3000400 	vshl.u8	d0, d0, d0
     c74:	bc9f5301 	ldclt	3, cr5, [pc], {1}
     c78:	bf000001 	svclt	0x00000001
     c7c:	01000001 	tsteq	r0, r1
     c80:	01bf5300 			; <UNDEFINED> instruction: 0x01bf5300
     c84:	01d80000 	bicseq	r0, r8, r0
     c88:	00040000 	andeq	r0, r4, r0
     c8c:	9f5301f3 	svcls	0x005301f3
	...
     c98:	00000080 	andeq	r0, r0, r0, lsl #1
     c9c:	0000009c 	muleq	r0, ip, r0
     ca0:	00910002 	addseq	r0, r1, r2
     ca4:	0000009c 	muleq	r0, ip, r0
     ca8:	000001bf 			; <UNDEFINED> instruction: 0x000001bf
     cac:	d8520001 	ldmdale	r2, {r0}^
     cb0:	e3000001 	movw	r0, #1
     cb4:	01000001 	tsteq	r0, r1
     cb8:	00005200 	andeq	r5, r0, r0, lsl #4
     cbc:	00000000 	andeq	r0, r0, r0
     cc0:	009c0000 	addseq	r0, ip, r0
     cc4:	01180000 	tsteq	r8, r0
     cc8:	00010000 	andeq	r0, r1, r0
     ccc:	0001185d 	andeq	r1, r1, sp, asr r8
     cd0:	00011c00 	andeq	r1, r1, r0, lsl #24
     cd4:	53000100 	movwpl	r0, #256	; 0x100
     cd8:	0000011c 	andeq	r0, r0, ip, lsl r1
     cdc:	00000120 	andeq	r0, r0, r0, lsr #2
     ce0:	20510001 	subscs	r0, r1, r1
     ce4:	60000001 	andvs	r0, r0, r1
     ce8:	01000001 	tsteq	r0, r1
     cec:	01605300 	cmneq	r0, r0, lsl #6
     cf0:	01680000 	cmneq	r8, r0
     cf4:	00010000 	andeq	r0, r1, r0
     cf8:	0001685d 	andeq	r6, r1, sp, asr r8
     cfc:	00016c00 	andeq	r6, r1, r0, lsl #24
     d00:	5e000100 	adfpls	f0, f0, f0
     d04:	0000016c 	andeq	r0, r0, ip, ror #2
     d08:	00000188 	andeq	r0, r0, r8, lsl #3
     d0c:	88530001 	ldmdahi	r3, {r0}^
     d10:	90000001 	andls	r0, r0, r1
     d14:	04000001 	streq	r0, [r0], #-1
     d18:	7fa19100 	svcvc	0x00a19100
     d1c:	0001909f 	muleq	r1, pc, r0	; <UNPREDICTABLE>
     d20:	00019400 	andeq	r9, r1, r0, lsl #8
     d24:	53000100 	movwpl	r0, #256	; 0x100
     d28:	00000194 	muleq	r0, r4, r1
     d2c:	0000019c 	muleq	r0, ip, r1
     d30:	9c5d0001 	mrrcls	0, 0, r0, sp, cr1
     d34:	a0000001 	andge	r0, r0, r1
     d38:	01000001 	tsteq	r0, r1
     d3c:	01a05e00 	lsleq	r5, r0, #28
     d40:	01bc0000 			; <UNDEFINED> instruction: 0x01bc0000
     d44:	00010000 	andeq	r0, r1, r0
     d48:	0001bc53 	andeq	fp, r1, r3, asr ip
     d4c:	0001d800 	andeq	sp, r1, r0, lsl #16
     d50:	5d000100 	stfpls	f0, [r0, #-0]
     d54:	000001d8 	ldrdeq	r0, [r0], -r8
     d58:	000001e3 	andeq	r0, r0, r3, ror #3
     d5c:	00530001 	subseq	r0, r3, r1
     d60:	00000000 	andeq	r0, r0, r0
     d64:	a0000000 	andge	r0, r0, r0
     d68:	ec000000 	stc	0, cr0, [r0], {-0}
     d6c:	01000000 	mrseq	r0, (UNDEF: 0)
     d70:	00ec5c00 	rsceq	r5, ip, r0, lsl #24
     d74:	01000000 	mrseq	r0, (UNDEF: 0)
     d78:	00010000 	andeq	r0, r1, r0
     d7c:	00010053 	andeq	r0, r1, r3, asr r0
     d80:	00010400 	andeq	r0, r1, r0, lsl #8
     d84:	5c000100 	stfpls	f0, [r0], {-0}
     d88:	00000104 	andeq	r0, r0, r4, lsl #2
     d8c:	00000108 	andeq	r0, r0, r8, lsl #2
     d90:	08530001 	ldmdaeq	r3, {r0}^
     d94:	18000001 	stmdane	r0, {r0}
     d98:	01000001 	tsteq	r0, r1
     d9c:	01185c00 	tsteq	r8, r0, lsl #24
     da0:	011c0000 	tsteq	ip, r0
     da4:	00010000 	andeq	r0, r1, r0
     da8:	00011c50 	andeq	r1, r1, r0, asr ip
     dac:	00013c00 	andeq	r3, r1, r0, lsl #24
     db0:	5c000100 	stfpls	f0, [r0], {-0}
     db4:	00000144 	andeq	r0, r0, r4, asr #2
     db8:	00000158 	andeq	r0, r0, r8, asr r1
     dbc:	58500001 	ldmdapl	r0, {r0}^
     dc0:	60000001 	andvs	r0, r0, r1
     dc4:	01000001 	tsteq	r0, r1
     dc8:	01605c00 	cmneq	r0, r0, lsl #24
     dcc:	01680000 	cmneq	r8, r0
     dd0:	00010000 	andeq	r0, r1, r0
     dd4:	00016853 	andeq	r6, r1, r3, asr r8
     dd8:	00017800 	andeq	r7, r1, r0, lsl #16
     ddc:	5c000100 	stfpls	f0, [r0], {-0}
     de0:	00000178 	andeq	r0, r0, r8, ror r1
     de4:	00000180 	andeq	r0, r0, r0, lsl #3
     de8:	007c0005 	rsbseq	r0, ip, r5
     dec:	809f2534 	addshi	r2, pc, r4, lsr r5	; <UNPREDICTABLE>
     df0:	88000001 	stmdahi	r0, {r0}
     df4:	01000001 	tsteq	r0, r1
     df8:	01885c00 	orreq	r5, r8, r0, lsl #24
     dfc:	01900000 	orrseq	r0, r0, r0
     e00:	00010000 	andeq	r0, r1, r0
     e04:	00019053 	andeq	r9, r1, r3, asr r0
     e08:	00019400 	andeq	r9, r1, r0, lsl #8
     e0c:	5c000100 	stfpls	f0, [r0], {-0}
     e10:	00000194 	muleq	r0, r4, r1
     e14:	0000019c 	muleq	r0, ip, r1
     e18:	9c530001 	mrrcls	0, 0, r0, r3, cr1
     e1c:	ac000001 	stcge	0, cr0, [r0], {1}
     e20:	01000001 	tsteq	r0, r1
     e24:	01ac5c00 			; <UNDEFINED> instruction: 0x01ac5c00
     e28:	01b40000 			; <UNDEFINED> instruction: 0x01b40000
     e2c:	00050000 	andeq	r0, r5, r0
     e30:	2531007c 	ldrcs	r0, [r1, #-124]!	; 0x7c
     e34:	0001b49f 	muleq	r1, pc, r4	; <UNPREDICTABLE>
     e38:	0001bc00 	andeq	fp, r1, r0, lsl #24
     e3c:	5c000100 	stfpls	f0, [r0], {-0}
     e40:	000001bc 			; <UNDEFINED> instruction: 0x000001bc
     e44:	000001bf 			; <UNDEFINED> instruction: 0x000001bf
     e48:	bf530001 	svclt	0x00530001
     e4c:	d8000001 	stmdale	r0, {r0}
     e50:	04000001 	streq	r0, [r0], #-1
     e54:	5301f300 	movwpl	pc, #4864	; 0x1300	; <UNPREDICTABLE>
     e58:	0001d89f 	muleq	r1, pc, r8	; <UNPREDICTABLE>
     e5c:	0001e300 	andeq	lr, r1, r0, lsl #6
     e60:	5c000100 	stfpls	f0, [r0], {-0}
	...
     e6c:	000000ec 	andeq	r0, r0, ip, ror #1
     e70:	000000fc 	strdeq	r0, [r0], -ip
     e74:	9f300002 	svcls	0x00300002
     e78:	000000fc 	strdeq	r0, [r0], -ip
     e7c:	00000104 	andeq	r0, r0, r4, lsl #2
     e80:	9f310002 	svcls	0x00310002
     e84:	00000104 	andeq	r0, r0, r4, lsl #2
     e88:	00000108 	andeq	r0, r0, r8, lsl #2
     e8c:	9f300002 	svcls	0x00300002
	...
     e98:	0000021c 	andeq	r0, r0, ip, lsl r2
     e9c:	0000022b 	andeq	r0, r0, fp, lsr #4
     ea0:	2b500001 	blcs	1400eac <__bss_end__+0x13f694c>
     ea4:	44000002 	strmi	r0, [r0], #-2
     ea8:	04000002 	streq	r0, [r0], #-2
     eac:	5001f300 	andpl	pc, r1, r0, lsl #6
     eb0:	0002449f 	muleq	r2, pc, r4	; <UNPREDICTABLE>
     eb4:	00027000 	andeq	r7, r2, r0
     eb8:	50000100 	andpl	r0, r0, r0, lsl #2
	...
     ec4:	0000021c 	andeq	r0, r0, ip, lsl r2
     ec8:	0000022b 	andeq	r0, r0, fp, lsr #4
     ecc:	2b510001 	blcs	1440ed8 <__bss_end__+0x1436978>
     ed0:	44000002 	strmi	r0, [r0], #-2
     ed4:	04000002 	streq	r0, [r0], #-2
     ed8:	5101f300 	mrspl	pc, SP_irq	; <UNPREDICTABLE>
     edc:	0002449f 	muleq	r2, pc, r4	; <UNPREDICTABLE>
     ee0:	00027000 	andeq	r7, r2, r0
     ee4:	51000100 	mrspl	r0, (UNDEF: 16)
	...
     ef0:	00000270 	andeq	r0, r0, r0, ror r2
     ef4:	0000029c 	muleq	r0, ip, r2
     ef8:	9c500001 	mrrcls	0, 0, r0, r0, cr1	; <UNPREDICTABLE>
     efc:	e4000002 	str	r0, [r0], #-2
     f00:	01000004 	tsteq	r0, r4
     f04:	04e45a00 	strbteq	r5, [r4], #2560	; 0xa00
     f08:	04f80000 	ldrbteq	r0, [r8], #0
     f0c:	00040000 	andeq	r0, r4, r0
     f10:	9f5001f3 	svcls	0x005001f3
	...
     f1c:	00000270 	andeq	r0, r0, r0, ror r2
     f20:	00000284 	andeq	r0, r0, r4, lsl #5
     f24:	84510001 	ldrbhi	r0, [r1], #-1
     f28:	9c000002 	stcls	0, cr0, [r0], {2}
     f2c:	03000002 	movweq	r0, #2
     f30:	9f017100 	svcls	0x00017100
     f34:	0000029c 	muleq	r0, ip, r2
     f38:	000004f8 	strdeq	r0, [r0], -r8
     f3c:	01f30004 	mvnseq	r0, r4
     f40:	00009f51 	andeq	r9, r0, r1, asr pc
     f44:	00000000 	andeq	r0, r0, r0
     f48:	02700000 	rsbseq	r0, r0, #0
     f4c:	02a40000 	adceq	r0, r4, #0
     f50:	00010000 	andeq	r0, r1, r0
     f54:	0002a452 	andeq	sl, r2, r2, asr r4
     f58:	0002cc00 	andeq	ip, r2, r0, lsl #24
     f5c:	52000100 	andpl	r0, r0, #0, 2
     f60:	000002cc 	andeq	r0, r0, ip, asr #5
     f64:	00000494 	muleq	r0, r4, r4
     f68:	94560001 	ldrbls	r0, [r6], #-1
     f6c:	f8000004 			; <UNDEFINED> instruction: 0xf8000004
     f70:	01000004 	tsteq	r0, r4
     f74:	00005200 	andeq	r5, r0, r0, lsl #4
     f78:	00000000 	andeq	r0, r0, r0
     f7c:	02700000 	rsbseq	r0, r0, #0
     f80:	028c0000 	addeq	r0, ip, #0
     f84:	00010000 	andeq	r0, r1, r0
     f88:	00000053 	andeq	r0, r0, r3, asr r0
     f8c:	00000000 	andeq	r0, r0, r0
     f90:	00028000 	andeq	r8, r2, r0
     f94:	00029c00 	andeq	r9, r2, r0, lsl #24
     f98:	50000100 	andpl	r0, r0, r0, lsl #2
     f9c:	0000029c 	muleq	r0, ip, r2
     fa0:	000002a0 	andeq	r0, r0, r0, lsr #5
     fa4:	a0540001 	subsge	r0, r4, r1
     fa8:	ac000002 	stcge	0, cr0, [r0], {2}
     fac:	03000002 	movweq	r0, #2
     fb0:	9f017400 	svcls	0x00017400
     fb4:	000002ac 	andeq	r0, r0, ip, lsr #5
     fb8:	000002b8 			; <UNDEFINED> instruction: 0x000002b8
     fbc:	b8540001 	ldmdalt	r4, {r0}^
     fc0:	c4000002 	strgt	r0, [r0], #-2
     fc4:	03000002 	movweq	r0, #2
     fc8:	9f017400 	svcls	0x00017400
     fcc:	000002c4 	andeq	r0, r0, r4, asr #5
     fd0:	00000498 	muleq	r0, r8, r4
     fd4:	98540001 	ldmdals	r4, {r0}^
     fd8:	a4000004 	strge	r0, [r0], #-4
     fdc:	03000004 	movweq	r0, #4
     fe0:	9f017400 	svcls	0x00017400
     fe4:	000004a4 	andeq	r0, r0, r4, lsr #9
     fe8:	000004d0 	ldrdeq	r0, [r0], -r0	; <UNPREDICTABLE>
     fec:	d0540001 	subsle	r0, r4, r1
     ff0:	dc000004 	stcle	0, cr0, [r0], {4}
     ff4:	01000004 	tsteq	r0, r4
     ff8:	04dc5000 	ldrbeq	r5, [ip], #0
     ffc:	04e40000 	strbteq	r0, [r4], #0
    1000:	00030000 	andeq	r0, r3, r0
    1004:	009f0174 	addseq	r0, pc, r4, ror r1	; <UNPREDICTABLE>
    1008:	00000000 	andeq	r0, r0, r0
    100c:	88000000 	stmdahi	r0, {}	; <UNPREDICTABLE>
    1010:	e4000002 	str	r0, [r0], #-2
    1014:	01000004 	tsteq	r0, r4
    1018:	04e45800 	strbteq	r5, [r4], #2048	; 0x800
    101c:	04f80000 	ldrbteq	r0, [r8], #0
    1020:	000a0000 	andeq	r0, sl, r0
    1024:	f35101f3 	vbsl	q8, <illegal reg q8.5>, <illegal reg q9.5>
    1028:	31225001 	teqcc	r2, r1
    102c:	00009f1c 	andeq	r9, r0, ip, lsl pc
    1030:	00000000 	andeq	r0, r0, r0
    1034:	03cc0000 	biceq	r0, ip, #0
    1038:	03d00000 	bicseq	r0, r0, #0
    103c:	00010000 	andeq	r0, r1, r0
    1040:	0003f050 	andeq	pc, r3, r0, asr r0	; <UNPREDICTABLE>
    1044:	0003f400 	andeq	pc, r3, r0, lsl #8
    1048:	50000100 	andpl	r0, r0, r0, lsl #2
    104c:	00000414 	andeq	r0, r0, r4, lsl r4
    1050:	00000418 	andeq	r0, r0, r8, lsl r4
    1054:	38500001 	ldmdacc	r0, {r0}^
    1058:	3c000004 	stccc	0, cr0, [r0], {4}
    105c:	01000004 	tsteq	r0, r4
    1060:	04445000 	strbeq	r5, [r4], #-0
    1064:	04480000 	strbeq	r0, [r8], #-0
    1068:	00010000 	andeq	r0, r1, r0
    106c:	00046850 	andeq	r6, r4, r0, asr r8
    1070:	00046c00 	andeq	r6, r4, r0, lsl #24
    1074:	50000100 	andpl	r0, r0, r0, lsl #2
    1078:	00000490 	muleq	r0, r0, r4
    107c:	000004b8 			; <UNDEFINED> instruction: 0x000004b8
    1080:	00500001 	subseq	r0, r0, r1
    1084:	00000000 	andeq	r0, r0, r0
    1088:	cc000000 	stcgt	0, cr0, [r0], {-0}
    108c:	d4000002 	strle	r0, [r0], #-2
    1090:	02000002 	andeq	r0, r0, #2
    1094:	d49f3000 	ldrle	r3, [pc], #0	; 109c <_start-0x6f64>
    1098:	d8000002 	stmdale	r0, {r1}
    109c:	01000002 	tsteq	r0, r2
    10a0:	02e45700 	rsceq	r5, r4, #0, 14
    10a4:	04b80000 	ldrteq	r0, [r8], #0
    10a8:	00010000 	andeq	r0, r1, r0
    10ac:	00000057 	andeq	r0, r0, r7, asr r0
    10b0:	00000000 	andeq	r0, r0, r0
    10b4:	00001400 	andeq	r1, r0, r0, lsl #8
    10b8:	00001c00 	andeq	r1, r0, r0, lsl #24
    10bc:	73000300 	movwvc	r0, #768	; 0x300
    10c0:	001c9f04 	andseq	r9, ip, r4, lsl #30
    10c4:	00270000 	eoreq	r0, r7, r0
    10c8:	00010000 	andeq	r0, r1, r0
    10cc:	00000053 	andeq	r0, r0, r3, asr r0
    10d0:	00000000 	andeq	r0, r0, r0
    10d4:	0092b800 	addseq	fp, r2, r0, lsl #16
    10d8:	0092bc00 	addseq	fp, r2, r0, lsl #24
    10dc:	30000200 	andcc	r0, r0, r0, lsl #4
    10e0:	0092bc9f 	umullseq	fp, r2, pc, ip	; <UNPREDICTABLE>
    10e4:	0092c000 	addseq	ip, r2, r0
    10e8:	50000100 	andpl	r0, r0, r0, lsl #2
	...
    10f4:	000092d0 	ldrdeq	r9, [r0], -r0
    10f8:	000092d4 	ldrdeq	r9, [r0], -r4
    10fc:	9f300002 	svcls	0x00300002
    1100:	000092d4 	ldrdeq	r9, [r0], -r4
    1104:	000092d8 	ldrdeq	r9, [r0], -r8
    1108:	dc530001 	mrrcle	0, 0, r0, r3, cr1
    110c:	e4000092 	str	r0, [r0], #-146	; 0x92
    1110:	01000092 	swpeq	r0, r2, [r0]	; <UNPREDICTABLE>
    1114:	00005300 	andeq	r5, r0, r0, lsl #6
	...
    1120:	00040000 	andeq	r0, r4, r0
    1124:	00010000 	andeq	r0, r1, r0
    1128:	00000450 	andeq	r0, r0, r0, asr r4
    112c:	00000c00 	andeq	r0, r0, r0, lsl #24
    1130:	53000100 	movwpl	r0, #256	; 0x100
    1134:	0000000c 	andeq	r0, r0, ip
    1138:	00000010 	andeq	r0, r0, r0, lsl r0
    113c:	10500001 	subsne	r0, r0, r1
    1140:	1c000000 	stcne	0, cr0, [r0], {-0}
    1144:	01000000 	mrseq	r0, (UNDEF: 0)
    1148:	00005300 	andeq	r5, r0, r0, lsl #6
    114c:	00000000 	andeq	r0, r0, r0
    1150:	003c0000 	eorseq	r0, ip, r0
    1154:	00470000 	subeq	r0, r7, r0
    1158:	00010000 	andeq	r0, r1, r0
    115c:	00004750 	andeq	r4, r0, r0, asr r7
    1160:	00006000 	andeq	r6, r0, r0
    1164:	55000100 	strpl	r0, [r0, #-256]	; 0x100
	...
    1170:	00000050 	andeq	r0, r0, r0, asr r0
    1174:	00000054 	andeq	r0, r0, r4, asr r0
    1178:	00500001 	subseq	r0, r0, r1
    117c:	00000000 	andeq	r0, r0, r0
    1180:	60000000 	andvs	r0, r0, r0
    1184:	6c000000 	stcvs	0, cr0, [r0], {-0}
    1188:	01000000 	mrseq	r0, (UNDEF: 0)
    118c:	006c5000 	rsbeq	r5, ip, r0
    1190:	00740000 	rsbseq	r0, r4, r0
    1194:	00040000 	andeq	r0, r4, r0
    1198:	9f5001f3 	svcls	0x005001f3
	...
    11a4:	00000074 	andeq	r0, r0, r4, ror r0
    11a8:	00000080 	andeq	r0, r0, r0, lsl #1
    11ac:	80500001 	subshi	r0, r0, r1
    11b0:	88000000 	stmdahi	r0, {}	; <UNPREDICTABLE>
    11b4:	04000000 	streq	r0, [r0], #-0
    11b8:	5001f300 	andpl	pc, r1, r0, lsl #6
    11bc:	0000009f 	muleq	r0, pc, r0	; <UNPREDICTABLE>
	...
    11c8:	00009000 	andeq	r9, r0, r0
    11cc:	50000100 	andpl	r0, r0, r0, lsl #2
    11d0:	00000090 	muleq	r0, r0, r0
    11d4:	000000d4 	ldrdeq	r0, [r0], -r4
    11d8:	00540001 	subseq	r0, r4, r1
    11dc:	00000000 	andeq	r0, r0, r0
    11e0:	48000000 	stmdami	r0, {}	; <UNPREDICTABLE>
    11e4:	4c000000 	stcmi	0, cr0, [r0], {-0}
    11e8:	01000000 	mrseq	r0, (UNDEF: 0)
    11ec:	00545500 	subseq	r5, r4, r0, lsl #10
    11f0:	00580000 	subseq	r0, r8, r0
    11f4:	00010000 	andeq	r0, r1, r0
    11f8:	00006055 	andeq	r6, r0, r5, asr r0
    11fc:	00006400 	andeq	r6, r0, r0, lsl #8
    1200:	55000100 	strpl	r0, [r0, #-256]	; 0x100
    1204:	0000006c 	andeq	r0, r0, ip, rrx
    1208:	00000070 	andeq	r0, r0, r0, ror r0
    120c:	78550001 	ldmdavc	r5, {r0}^
    1210:	7c000000 	stcvc	0, cr0, [r0], {-0}
    1214:	01000000 	mrseq	r0, (UNDEF: 0)
    1218:	00845500 	addeq	r5, r4, r0, lsl #10
    121c:	00880000 	addeq	r0, r8, r0
    1220:	00010000 	andeq	r0, r1, r0
    1224:	00008c55 	andeq	r8, r0, r5, asr ip
    1228:	0000d400 	andeq	sp, r0, r0, lsl #8
    122c:	55000100 	strpl	r0, [r0, #-256]	; 0x100
	...
    1238:	0000001c 	andeq	r0, r0, ip, lsl r0
    123c:	00000044 	andeq	r0, r0, r4, asr #32
    1240:	44530001 	ldrbmi	r0, [r3], #-1
    1244:	4c000000 	stcmi	0, cr0, [r0], {-0}
    1248:	1c000000 	stcne	0, cr0, [r0], {-0}
    124c:	f7007000 			; <UNDEFINED> instruction: 0xf7007000
    1250:	f425f72c 	vld1.8	{d15}, [r5 :128], ip
    1254:	cccd0825 	stclgt	8, cr0, [sp], {37}	; 0x25
    1258:	0000cccc 	andeq	ip, r0, ip, asr #25
    125c:	081e0000 	ldmdaeq	lr, {}	; <UNPREDICTABLE>
    1260:	2525f720 	strcs	pc, [r5, #-1824]!	; 0x720
    1264:	25332cf7 	ldrcs	r2, [r3, #-3319]!	; 0xcf7
    1268:	00004c9f 	muleq	r0, pc, ip	; <UNPREDICTABLE>
    126c:	00005000 	andeq	r5, r0, r0
    1270:	53000100 	movwpl	r0, #256	; 0x100
    1274:	00000050 	andeq	r0, r0, r0, asr r0
    1278:	00000058 	andeq	r0, r0, r8, asr r0
    127c:	0070001c 	rsbseq	r0, r0, ip, lsl r0
    1280:	25f72cf7 	ldrbcs	r2, [r7, #3319]!	; 0xcf7
    1284:	cd0825f4 	cfstr32gt	mvfx2, [r8, #-976]	; 0xfffffc30
    1288:	00cccccc 	sbceq	ip, ip, ip, asr #25
    128c:	1e000000 	cdpne	0, 0, cr0, cr0, cr0, {0}
    1290:	25f72008 	ldrbcs	r2, [r7, #8]!
    1294:	332cf725 	msrcc	CPSR_fs, #9699328	; 0x940000
    1298:	00589f25 	subseq	r9, r8, r5, lsr #30
    129c:	005c0000 	subseq	r0, ip, r0
    12a0:	00010000 	andeq	r0, r1, r0
    12a4:	00005c53 	andeq	r5, r0, r3, asr ip
    12a8:	00006400 	andeq	r6, r0, r0, lsl #8
    12ac:	70001c00 	andvc	r1, r0, r0, lsl #24
    12b0:	f72cf700 			; <UNDEFINED> instruction: 0xf72cf700
    12b4:	0825f425 	stmdaeq	r5!, {r0, r2, r5, sl, ip, sp, lr, pc}
    12b8:	cccccccd 	stclgt	12, cr12, [ip], {205}	; 0xcd
    12bc:	00000000 	andeq	r0, r0, r0
    12c0:	f720081e 			; <UNDEFINED> instruction: 0xf720081e
    12c4:	2cf72525 	cfldr64cs	mvdx2, [r7], #148	; 0x94
    12c8:	649f2533 	ldrvs	r2, [pc], #1331	; 12d0 <_start-0x6d30>
    12cc:	68000000 	stmdavs	r0, {}	; <UNPREDICTABLE>
    12d0:	01000000 	mrseq	r0, (UNDEF: 0)
    12d4:	00685300 	rsbeq	r5, r8, r0, lsl #6
    12d8:	00700000 	rsbseq	r0, r0, r0
    12dc:	001c0000 	andseq	r0, ip, r0
    12e0:	2cf70070 	ldclcs	0, cr0, [r7], #448	; 0x1c0
    12e4:	25f425f7 	ldrbcs	r2, [r4, #1527]!	; 0x5f7
    12e8:	cccccd08 	stclgt	13, cr12, [ip], {8}
    12ec:	000000cc 	andeq	r0, r0, ip, asr #1
    12f0:	20081e00 	andcs	r1, r8, r0, lsl #28
    12f4:	f72525f7 			; <UNDEFINED> instruction: 0xf72525f7
    12f8:	9f25332c 	svcls	0x0025332c
    12fc:	00000070 	andeq	r0, r0, r0, ror r0
    1300:	00000074 	andeq	r0, r0, r4, ror r0
    1304:	74530001 	ldrbvc	r0, [r3], #-1
    1308:	7c000000 	stcvc	0, cr0, [r0], {-0}
    130c:	1c000000 	stcne	0, cr0, [r0], {-0}
    1310:	f7007000 			; <UNDEFINED> instruction: 0xf7007000
    1314:	f425f72c 	vld1.8	{d15}, [r5 :128], ip
    1318:	cccd0825 	stclgt	8, cr0, [sp], {37}	; 0x25
    131c:	0000cccc 	andeq	ip, r0, ip, asr #25
    1320:	081e0000 	ldmdaeq	lr, {}	; <UNPREDICTABLE>
    1324:	2525f720 	strcs	pc, [r5, #-1824]!	; 0x720
    1328:	25332cf7 	ldrcs	r2, [r3, #-3319]!	; 0xcf7
    132c:	00007c9f 	muleq	r0, pc, ip	; <UNPREDICTABLE>
    1330:	00008000 	andeq	r8, r0, r0
    1334:	53000100 	movwpl	r0, #256	; 0x100
    1338:	00000080 	andeq	r0, r0, r0, lsl #1
    133c:	00000088 	andeq	r0, r0, r8, lsl #1
    1340:	0070001c 	rsbseq	r0, r0, ip, lsl r0
    1344:	25f72cf7 	ldrbcs	r2, [r7, #3319]!	; 0xcf7
    1348:	cd0825f4 	cfstr32gt	mvfx2, [r8, #-976]	; 0xfffffc30
    134c:	00cccccc 	sbceq	ip, ip, ip, asr #25
    1350:	1e000000 	cdpne	0, 0, cr0, cr0, cr0, {0}
    1354:	25f72008 	ldrbcs	r2, [r7, #8]!
    1358:	332cf725 	msrcc	CPSR_fs, #9699328	; 0x940000
    135c:	00889f25 	addeq	r9, r8, r5, lsr #30
    1360:	008c0000 	addeq	r0, ip, r0
    1364:	00010000 	andeq	r0, r1, r0
    1368:	00008c53 	andeq	r8, r0, r3, asr ip
    136c:	00009000 	andeq	r9, r0, r0
    1370:	70001c00 	andvc	r1, r0, r0, lsl #24
    1374:	f72cf700 			; <UNDEFINED> instruction: 0xf72cf700
    1378:	0825f425 	stmdaeq	r5!, {r0, r2, r5, sl, ip, sp, lr, pc}
    137c:	cccccccd 	stclgt	12, cr12, [ip], {205}	; 0xcd
    1380:	00000000 	andeq	r0, r0, r0
    1384:	f720081e 			; <UNDEFINED> instruction: 0xf720081e
    1388:	2cf72525 	cfldr64cs	mvdx2, [r7], #148	; 0x94
    138c:	909f2533 	addsls	r2, pc, r3, lsr r5	; <UNPREDICTABLE>
    1390:	98000000 	stmdals	r0, {}	; <UNPREDICTABLE>
    1394:	1c000000 	stcne	0, cr0, [r0], {-0}
    1398:	f7007400 			; <UNDEFINED> instruction: 0xf7007400
    139c:	f425f72c 	vld1.8	{d15}, [r5 :128], ip
    13a0:	cccd0825 	stclgt	8, cr0, [sp], {37}	; 0x25
    13a4:	0000cccc 	andeq	ip, r0, ip, asr #25
    13a8:	081e0000 	ldmdaeq	lr, {}	; <UNPREDICTABLE>
    13ac:	2525f720 	strcs	pc, [r5, #-1824]!	; 0x720
    13b0:	25332cf7 	ldrcs	r2, [r3, #-3319]!	; 0xcf7
    13b4:	0000989f 	muleq	r0, pc, r8	; <UNPREDICTABLE>
    13b8:	00009c00 	andeq	r9, r0, r0, lsl #24
    13bc:	74001700 	strvc	r1, [r0], #-1792	; 0x700
    13c0:	f72cf700 			; <UNDEFINED> instruction: 0xf72cf700
    13c4:	f7007125 			; <UNDEFINED> instruction: 0xf7007125
    13c8:	1e25f72c 	cdpne	7, 2, cr15, cr5, cr12, {1}
    13cc:	25f72008 	ldrbcs	r2, [r7, #8]!
    13d0:	332cf725 	msrcc	CPSR_fs, #9699328	; 0x940000
    13d4:	009c9f25 	addseq	r9, ip, r5, lsr #30
    13d8:	00d40000 	sbcseq	r0, r4, r0
    13dc:	001c0000 	andseq	r0, ip, r0
    13e0:	2cf70074 	ldclcs	0, cr0, [r7], #464	; 0x1d0
    13e4:	25f425f7 	ldrbcs	r2, [r4, #1527]!	; 0x5f7
    13e8:	cccccd08 	stclgt	13, cr12, [ip], {8}
    13ec:	000000cc 	andeq	r0, r0, ip, asr #1
    13f0:	20081e00 	andcs	r1, r8, r0, lsl #28
    13f4:	f72525f7 			; <UNDEFINED> instruction: 0xf72525f7
    13f8:	9f25332c 	svcls	0x0025332c
	...
    1404:	00000094 	muleq	r0, r4, r0
    1408:	000000b8 	strheq	r0, [r0], -r8
    140c:	b8500001 	ldmdalt	r0, {r0}^
    1410:	c4000000 	strgt	r0, [r0], #-0
    1414:	08000000 	stmdaeq	r0, {}	; <UNPREDICTABLE>
    1418:	00713100 	rsbseq	r3, r1, r0, lsl #2
    141c:	21007324 	tstcs	r0, r4, lsr #6
    1420:	0000c49f 	muleq	r0, pc, r4	; <UNPREDICTABLE>
    1424:	0000c700 	andeq	ip, r0, r0, lsl #14
    1428:	51000100 	mrspl	r0, (UNDEF: 16)
	...
    1434:	000000d4 	ldrdeq	r0, [r0], -r4
    1438:	000000f8 	strdeq	r0, [r0], -r8
    143c:	f8500001 			; <UNDEFINED> instruction: 0xf8500001
    1440:	0c000000 	stceq	0, cr0, [r0], {-0}
    1444:	04000001 	streq	r0, [r0], #-1
    1448:	5001f300 	andpl	pc, r1, r0, lsl #6
    144c:	0000009f 	muleq	r0, pc, r0	; <UNPREDICTABLE>
    1450:	00000000 	andeq	r0, r0, r0
    1454:	0000e000 	andeq	lr, r0, r0
    1458:	0000e800 	andeq	lr, r0, r0, lsl #16
    145c:	30000200 	andcc	r0, r0, r0, lsl #4
    1460:	0000e89f 	muleq	r0, pc, r8	; <UNPREDICTABLE>
    1464:	0000e800 	andeq	lr, r0, r0, lsl #16
    1468:	52000100 	andpl	r0, r0, #0, 2
    146c:	000000e8 	andeq	r0, r0, r8, ror #1
    1470:	000000f0 	strdeq	r0, [r0], -r0	; <UNPREDICTABLE>
    1474:	9f300002 	svcls	0x00300002
    1478:	000000f0 	strdeq	r0, [r0], -r0	; <UNPREDICTABLE>
    147c:	00000103 	andeq	r0, r0, r3, lsl #2
    1480:	00520001 	subseq	r0, r2, r1
    1484:	00000000 	andeq	r0, r0, r0
    1488:	e0000000 	and	r0, r0, r0
    148c:	f4000000 	vst4.8	{d0-d3}, [r0], r0
    1490:	02000000 	andeq	r0, r0, #0
    1494:	f49f3000 			; <UNDEFINED> instruction: 0xf49f3000
    1498:	00000000 	andeq	r0, r0, r0
    149c:	05000001 	streq	r0, [r0, #-1]
    14a0:	00733100 	rsbseq	r3, r3, r0, lsl #2
    14a4:	01009f24 	tsteq	r0, r4, lsr #30
    14a8:	01030000 	mrseq	r0, (UNDEF: 3)
    14ac:	00010000 	andeq	r0, r1, r0
    14b0:	00010351 	andeq	r0, r1, r1, asr r3
    14b4:	00010c00 	andeq	r0, r1, r0, lsl #24
    14b8:	31000800 	tstcc	r0, r0, lsl #16
    14bc:	4f5001f3 	svcmi	0x005001f3
    14c0:	009f241a 	addseq	r2, pc, sl, lsl r4	; <UNPREDICTABLE>
    14c4:	00000000 	andeq	r0, r0, r0
    14c8:	0c000000 	stceq	0, cr0, [r0], {-0}
    14cc:	30000001 	andcc	r0, r0, r1
    14d0:	01000001 	tsteq	r0, r1
    14d4:	01305000 	teqeq	r0, r0
    14d8:	01440000 	mrseq	r0, (UNDEF: 68)
    14dc:	00040000 	andeq	r0, r4, r0
    14e0:	9f5001f3 	svcls	0x005001f3
	...
    14ec:	00000118 	andeq	r0, r0, r8, lsl r1
    14f0:	00000120 	andeq	r0, r0, r0, lsr #2
    14f4:	9f300002 	svcls	0x00300002
    14f8:	00000120 	andeq	r0, r0, r0, lsr #2
    14fc:	00000120 	andeq	r0, r0, r0, lsr #2
    1500:	20520001 	subscs	r0, r2, r1
    1504:	28000001 	stmdacs	r0, {r0}
    1508:	02000001 	andeq	r0, r0, #1
    150c:	289f3000 	ldmcs	pc, {ip, sp}	; <UNPREDICTABLE>
    1510:	3b000001 	blcc	151c <_start-0x6ae4>
    1514:	01000001 	tsteq	r0, r1
    1518:	00005200 	andeq	r5, r0, r0, lsl #4
    151c:	00000000 	andeq	r0, r0, r0
    1520:	01180000 	tsteq	r8, r0
    1524:	012c0000 	teqeq	ip, r0
    1528:	00020000 	andeq	r0, r2, r0
    152c:	012c9f30 	teqeq	ip, r0, lsr pc
    1530:	01380000 	teqeq	r8, r0
    1534:	00050000 	andeq	r0, r5, r0
    1538:	24007331 	strcs	r7, [r0], #-817	; 0x331
    153c:	0001389f 	muleq	r1, pc, r8	; <UNPREDICTABLE>
    1540:	00013b00 	andeq	r3, r1, r0, lsl #22
    1544:	51000100 	mrspl	r0, (UNDEF: 16)
    1548:	0000013b 	andeq	r0, r0, fp, lsr r1
    154c:	00000144 	andeq	r0, r0, r4, asr #2
    1550:	f3310008 	vhadd.u<illegal width 64>	d0, d1, d8
    1554:	1a4f5001 	bne	13d5560 <__bss_end__+0x13cb000>
    1558:	00009f24 	andeq	r9, r0, r4, lsr #30
    155c:	00000000 	andeq	r0, r0, r0
    1560:	01440000 	mrseq	r0, (UNDEF: 68)
    1564:	01d40000 	bicseq	r0, r4, r0
    1568:	00010000 	andeq	r0, r1, r0
    156c:	0001d450 	andeq	sp, r1, r0, asr r4
    1570:	00021000 	andeq	r1, r2, r0
    1574:	54000100 	strpl	r0, [r0], #-256	; 0x100
	...
    1580:	0000018c 	andeq	r0, r0, ip, lsl #3
    1584:	00000190 	muleq	r0, r0, r1
    1588:	98550001 	ldmdals	r5, {r0}^
    158c:	9c000001 	stcls	0, cr0, [r0], {1}
    1590:	01000001 	tsteq	r0, r1
    1594:	01a45500 			; <UNDEFINED> instruction: 0x01a45500
    1598:	01a80000 			; <UNDEFINED> instruction: 0x01a80000
    159c:	00010000 	andeq	r0, r1, r0
    15a0:	0001b055 	andeq	fp, r1, r5, asr r0
    15a4:	0001b400 	andeq	fp, r1, r0, lsl #8
    15a8:	55000100 	strpl	r0, [r0, #-256]	; 0x100
    15ac:	000001bc 			; <UNDEFINED> instruction: 0x000001bc
    15b0:	000001c0 	andeq	r0, r0, r0, asr #3
    15b4:	c8550001 	ldmdagt	r5, {r0}^
    15b8:	cc000001 	stcgt	0, cr0, [r0], {1}
    15bc:	01000001 	tsteq	r0, r1
    15c0:	01d05500 	bicseq	r5, r0, r0, lsl #10
    15c4:	02100000 	andseq	r0, r0, #0
    15c8:	00010000 	andeq	r0, r1, r0
    15cc:	00000055 	andeq	r0, r0, r5, asr r0
    15d0:	00000000 	andeq	r0, r0, r0
    15d4:	00016000 	andeq	r6, r1, r0
    15d8:	00018800 	andeq	r8, r1, r0, lsl #16
    15dc:	53000100 	movwpl	r0, #256	; 0x100
    15e0:	00000188 	andeq	r0, r0, r8, lsl #3
    15e4:	00000190 	muleq	r0, r0, r1
    15e8:	0070001c 	rsbseq	r0, r0, ip, lsl r0
    15ec:	25f72cf7 	ldrbcs	r2, [r7, #3319]!	; 0xcf7
    15f0:	cd0825f4 	cfstr32gt	mvfx2, [r8, #-976]	; 0xfffffc30
    15f4:	00cccccc 	sbceq	ip, ip, ip, asr #25
    15f8:	1e000000 	cdpne	0, 0, cr0, cr0, cr0, {0}
    15fc:	25f72008 	ldrbcs	r2, [r7, #8]!
    1600:	332cf725 	msrcc	CPSR_fs, #9699328	; 0x940000
    1604:	01909f25 	orrseq	r9, r0, r5, lsr #30
    1608:	01940000 	orrseq	r0, r4, r0
    160c:	00010000 	andeq	r0, r1, r0
    1610:	00019453 	andeq	r9, r1, r3, asr r4
    1614:	00019c00 	andeq	r9, r1, r0, lsl #24
    1618:	70001c00 	andvc	r1, r0, r0, lsl #24
    161c:	f72cf700 			; <UNDEFINED> instruction: 0xf72cf700
    1620:	0825f425 	stmdaeq	r5!, {r0, r2, r5, sl, ip, sp, lr, pc}
    1624:	cccccccd 	stclgt	12, cr12, [ip], {205}	; 0xcd
    1628:	00000000 	andeq	r0, r0, r0
    162c:	f720081e 			; <UNDEFINED> instruction: 0xf720081e
    1630:	2cf72525 	cfldr64cs	mvdx2, [r7], #148	; 0x94
    1634:	9c9f2533 	cfldr32ls	mvfx2, [pc], {51}	; 0x33
    1638:	a0000001 	andge	r0, r0, r1
    163c:	01000001 	tsteq	r0, r1
    1640:	01a05300 	lsleq	r5, r0, #6
    1644:	01a80000 			; <UNDEFINED> instruction: 0x01a80000
    1648:	001c0000 	andseq	r0, ip, r0
    164c:	2cf70070 	ldclcs	0, cr0, [r7], #448	; 0x1c0
    1650:	25f425f7 	ldrbcs	r2, [r4, #1527]!	; 0x5f7
    1654:	cccccd08 	stclgt	13, cr12, [ip], {8}
    1658:	000000cc 	andeq	r0, r0, ip, asr #1
    165c:	20081e00 	andcs	r1, r8, r0, lsl #28
    1660:	f72525f7 			; <UNDEFINED> instruction: 0xf72525f7
    1664:	9f25332c 	svcls	0x0025332c
    1668:	000001a8 	andeq	r0, r0, r8, lsr #3
    166c:	000001ac 	andeq	r0, r0, ip, lsr #3
    1670:	ac530001 	mrrcge	0, 0, r0, r3, cr1
    1674:	b4000001 	strlt	r0, [r0], #-1
    1678:	1c000001 	stcne	0, cr0, [r0], {1}
    167c:	f7007000 			; <UNDEFINED> instruction: 0xf7007000
    1680:	f425f72c 	vld1.8	{d15}, [r5 :128], ip
    1684:	cccd0825 	stclgt	8, cr0, [sp], {37}	; 0x25
    1688:	0000cccc 	andeq	ip, r0, ip, asr #25
    168c:	081e0000 	ldmdaeq	lr, {}	; <UNPREDICTABLE>
    1690:	2525f720 	strcs	pc, [r5, #-1824]!	; 0x720
    1694:	25332cf7 	ldrcs	r2, [r3, #-3319]!	; 0xcf7
    1698:	0001b49f 	muleq	r1, pc, r4	; <UNPREDICTABLE>
    169c:	0001b800 	andeq	fp, r1, r0, lsl #16
    16a0:	53000100 	movwpl	r0, #256	; 0x100
    16a4:	000001b8 			; <UNDEFINED> instruction: 0x000001b8
    16a8:	000001c0 	andeq	r0, r0, r0, asr #3
    16ac:	0070001c 	rsbseq	r0, r0, ip, lsl r0
    16b0:	25f72cf7 	ldrbcs	r2, [r7, #3319]!	; 0xcf7
    16b4:	cd0825f4 	cfstr32gt	mvfx2, [r8, #-976]	; 0xfffffc30
    16b8:	00cccccc 	sbceq	ip, ip, ip, asr #25
    16bc:	1e000000 	cdpne	0, 0, cr0, cr0, cr0, {0}
    16c0:	25f72008 	ldrbcs	r2, [r7, #8]!
    16c4:	332cf725 	msrcc	CPSR_fs, #9699328	; 0x940000
    16c8:	01c09f25 	biceq	r9, r0, r5, lsr #30
    16cc:	01c40000 	biceq	r0, r4, r0
    16d0:	00010000 	andeq	r0, r1, r0
    16d4:	0001c453 	andeq	ip, r1, r3, asr r4
    16d8:	0001cc00 	andeq	ip, r1, r0, lsl #24
    16dc:	70001c00 	andvc	r1, r0, r0, lsl #24
    16e0:	f72cf700 			; <UNDEFINED> instruction: 0xf72cf700
    16e4:	0825f425 	stmdaeq	r5!, {r0, r2, r5, sl, ip, sp, lr, pc}
    16e8:	cccccccd 	stclgt	12, cr12, [ip], {205}	; 0xcd
    16ec:	00000000 	andeq	r0, r0, r0
    16f0:	f720081e 			; <UNDEFINED> instruction: 0xf720081e
    16f4:	2cf72525 	cfldr64cs	mvdx2, [r7], #148	; 0x94
    16f8:	cc9f2533 	cfldr32gt	mvfx2, [pc], {51}	; 0x33
    16fc:	d0000001 	andle	r0, r0, r1
    1700:	01000001 	tsteq	r0, r1
    1704:	01d05300 	bicseq	r5, r0, r0, lsl #6
    1708:	01d40000 	bicseq	r0, r4, r0
    170c:	001c0000 	andseq	r0, ip, r0
    1710:	2cf70070 	ldclcs	0, cr0, [r7], #448	; 0x1c0
    1714:	25f425f7 	ldrbcs	r2, [r4, #1527]!	; 0x5f7
    1718:	cccccd08 	stclgt	13, cr12, [ip], {8}
    171c:	000000cc 	andeq	r0, r0, ip, asr #1
    1720:	20081e00 	andcs	r1, r8, r0, lsl #28
    1724:	f72525f7 			; <UNDEFINED> instruction: 0xf72525f7
    1728:	9f25332c 	svcls	0x0025332c
    172c:	000001d4 	ldrdeq	r0, [r0], -r4
    1730:	000001dc 	ldrdeq	r0, [r0], -ip
    1734:	0074001c 	rsbseq	r0, r4, ip, lsl r0
    1738:	25f72cf7 	ldrbcs	r2, [r7, #3319]!	; 0xcf7
    173c:	cd0825f4 	cfstr32gt	mvfx2, [r8, #-976]	; 0xfffffc30
    1740:	00cccccc 	sbceq	ip, ip, ip, asr #25
    1744:	1e000000 	cdpne	0, 0, cr0, cr0, cr0, {0}
    1748:	25f72008 	ldrbcs	r2, [r7, #8]!
    174c:	332cf725 	msrcc	CPSR_fs, #9699328	; 0x940000
    1750:	01dc9f25 	bicseq	r9, ip, r5, lsr #30
    1754:	01e00000 	mvneq	r0, r0
    1758:	00170000 	andseq	r0, r7, r0
    175c:	2cf70074 	ldclcs	0, cr0, [r7], #464	; 0x1d0
    1760:	007125f7 	ldrshteq	r2, [r1], #-87	; 0xffffffa9
    1764:	25f72cf7 	ldrbcs	r2, [r7, #3319]!	; 0xcf7
    1768:	f720081e 			; <UNDEFINED> instruction: 0xf720081e
    176c:	2cf72525 	cfldr64cs	mvdx2, [r7], #148	; 0x94
    1770:	e09f2533 	adds	r2, pc, r3, lsr r5	; <UNPREDICTABLE>
    1774:	10000001 	andne	r0, r0, r1
    1778:	1c000002 	stcne	0, cr0, [r0], {2}
    177c:	f7007400 			; <UNDEFINED> instruction: 0xf7007400
    1780:	f425f72c 	vld1.8	{d15}, [r5 :128], ip
    1784:	cccd0825 	stclgt	8, cr0, [sp], {37}	; 0x25
    1788:	0000cccc 	andeq	ip, r0, ip, asr #25
    178c:	081e0000 	ldmdaeq	lr, {}	; <UNPREDICTABLE>
    1790:	2525f720 	strcs	pc, [r5, #-1824]!	; 0x720
    1794:	25332cf7 	ldrcs	r2, [r3, #-3319]!	; 0xcf7
    1798:	0000009f 	muleq	r0, pc, r0	; <UNPREDICTABLE>
    179c:	00000000 	andeq	r0, r0, r0
    17a0:	0001d800 	andeq	sp, r1, r0, lsl #16
    17a4:	0001fc00 	andeq	pc, r1, r0, lsl #24
    17a8:	50000100 	andpl	r0, r0, r0, lsl #2
    17ac:	000001fc 	strdeq	r0, [r0], -ip
    17b0:	00000203 	andeq	r0, r0, r3, lsl #4
    17b4:	00510001 	subseq	r0, r1, r1
    17b8:	00000000 	andeq	r0, r0, r0
    17bc:	10000000 	andne	r0, r0, r0
    17c0:	2c000002 	stccs	0, cr0, [r0], {2}
    17c4:	01000002 	tsteq	r0, r2
    17c8:	022c5000 	eoreq	r5, ip, #0
    17cc:	02340000 	eorseq	r0, r4, #0
    17d0:	00010000 	andeq	r0, r1, r0
    17d4:	00023454 	andeq	r3, r2, r4, asr r4
    17d8:	00023c00 	andeq	r3, r2, r0, lsl #24
    17dc:	50000100 	andpl	r0, r0, r0, lsl #2
    17e0:	0000023c 	andeq	r0, r0, ip, lsr r2
    17e4:	00000244 	andeq	r0, r0, r4, asr #4
    17e8:	44540001 	ldrbmi	r0, [r4], #-1
    17ec:	50000002 	andpl	r0, r0, r2
    17f0:	04000002 	streq	r0, [r0], #-2
    17f4:	5001f300 	andpl	pc, r1, r0, lsl #6
    17f8:	0002509f 	muleq	r2, pc, r0	; <UNPREDICTABLE>
    17fc:	00025400 	andeq	r5, r2, r0, lsl #8
    1800:	50000100 	andpl	r0, r0, r0, lsl #2
    1804:	00000254 	andeq	r0, r0, r4, asr r2
    1808:	0000025c 	andeq	r0, r0, ip, asr r2
    180c:	00540001 	subseq	r0, r4, r1
    1810:	00000000 	andeq	r0, r0, r0
    1814:	20000000 	andcs	r0, r0, r0
    1818:	30000002 	andcc	r0, r0, r2
    181c:	02000002 	andeq	r0, r0, #2
    1820:	309f3000 	addscc	r3, pc, r0
    1824:	34000002 	strcc	r0, [r0], #-2
    1828:	01000002 	tsteq	r0, r2
    182c:	02345000 	eorseq	r5, r4, #0
    1830:	02400000 	subeq	r0, r0, #0
    1834:	00020000 	andeq	r0, r2, r0
    1838:	02409f30 	subeq	r9, r0, #48, 30	; 0xc0
    183c:	024c0000 	subeq	r0, ip, #0
    1840:	00010000 	andeq	r0, r1, r0
    1844:	00000050 	andeq	r0, r0, r0, asr r0
    1848:	00000000 	andeq	r0, r0, r0
    184c:	00025c00 	andeq	r5, r2, r0, lsl #24
    1850:	00027300 	andeq	r7, r2, r0, lsl #6
    1854:	50000100 	andpl	r0, r0, r0, lsl #2
    1858:	00000273 	andeq	r0, r0, r3, ror r2
    185c:	00000278 	andeq	r0, r0, r8, ror r2
    1860:	01f30004 	mvnseq	r0, r4
    1864:	02789f50 	rsbseq	r9, r8, #80, 30	; 0x140
    1868:	027b0000 	rsbseq	r0, fp, #0
    186c:	00010000 	andeq	r0, r1, r0
    1870:	00027b50 	andeq	r7, r2, r0, asr fp
    1874:	00028000 	andeq	r8, r2, r0
    1878:	f3000400 	vshl.u8	d0, d0, d0
    187c:	009f5001 	addseq	r5, pc, r1
    1880:	00000000 	andeq	r0, r0, r0
    1884:	5c000000 	stcpl	0, cr0, [r0], {-0}
    1888:	73000002 	movwvc	r0, #2
    188c:	01000002 	tsteq	r0, r2
    1890:	02735100 	rsbseq	r5, r3, #0, 2
    1894:	02780000 	rsbseq	r0, r8, #0
    1898:	00040000 	andeq	r0, r4, r0
    189c:	9f5101f3 	svcls	0x005101f3
    18a0:	00000278 	andeq	r0, r0, r8, ror r2
    18a4:	0000027b 	andeq	r0, r0, fp, ror r2
    18a8:	7b510001 	blvc	14418b4 <__bss_end__+0x1437354>
    18ac:	80000002 	andhi	r0, r0, r2
    18b0:	04000002 	streq	r0, [r0], #-2
    18b4:	5101f300 	mrspl	pc, SP_irq	; <UNPREDICTABLE>
    18b8:	0000009f 	muleq	r0, pc, r0	; <UNPREDICTABLE>
    18bc:	00000000 	andeq	r0, r0, r0
    18c0:	00028000 	andeq	r8, r2, r0
    18c4:	00031800 	andeq	r1, r3, r0, lsl #16
    18c8:	50000100 	andpl	r0, r0, r0, lsl #2
    18cc:	00000318 	andeq	r0, r0, r8, lsl r3
    18d0:	00000358 	andeq	r0, r0, r8, asr r3
    18d4:	00540001 	subseq	r0, r4, r1
    18d8:	00000000 	andeq	r0, r0, r0
    18dc:	80000000 	andhi	r0, r0, r0
    18e0:	1b000002 	blne	18f0 <_start-0x6710>
    18e4:	01000003 	tsteq	r0, r3
    18e8:	031b5100 	tsteq	fp, #0, 2
    18ec:	03580000 	cmpeq	r8, #0
    18f0:	00040000 	andeq	r0, r4, r0
    18f4:	9f5101f3 	svcls	0x005101f3
	...
    1900:	000002d0 	ldrdeq	r0, [r0], -r0	; <UNPREDICTABLE>
    1904:	000002d4 	ldrdeq	r0, [r0], -r4
    1908:	dc560001 	mrrcle	0, 0, r0, r6, cr1
    190c:	e0000002 	and	r0, r0, r2
    1910:	01000002 	tsteq	r0, r2
    1914:	02e85600 	rsceq	r5, r8, #0, 12
    1918:	02ec0000 	rsceq	r0, ip, #0
    191c:	00010000 	andeq	r0, r1, r0
    1920:	0002f456 	andeq	pc, r2, r6, asr r4	; <UNPREDICTABLE>
    1924:	0002f800 	andeq	pc, r2, r0, lsl #16
    1928:	56000100 	strpl	r0, [r0], -r0, lsl #2
    192c:	00000300 	andeq	r0, r0, r0, lsl #6
    1930:	00000304 	andeq	r0, r0, r4, lsl #6
    1934:	0c560001 	mrrceq	0, 0, r0, r6, cr1
    1938:	10000003 	andne	r0, r0, r3
    193c:	01000003 	tsteq	r0, r3
    1940:	03145600 	tsteq	r4, #0, 12
    1944:	03580000 	cmpeq	r8, #0
    1948:	00010000 	andeq	r0, r1, r0
    194c:	00000056 	andeq	r0, r0, r6, asr r0
    1950:	00000000 	andeq	r0, r0, r0
    1954:	0002a400 	andeq	sl, r2, r0, lsl #8
    1958:	0002cc00 	andeq	ip, r2, r0, lsl #24
    195c:	53000100 	movwpl	r0, #256	; 0x100
    1960:	000002cc 	andeq	r0, r0, ip, asr #5
    1964:	000002d4 	ldrdeq	r0, [r0], -r4
    1968:	0070001c 	rsbseq	r0, r0, ip, lsl r0
    196c:	25f72cf7 	ldrbcs	r2, [r7, #3319]!	; 0xcf7
    1970:	cd0825f4 	cfstr32gt	mvfx2, [r8, #-976]	; 0xfffffc30
    1974:	00cccccc 	sbceq	ip, ip, ip, asr #25
    1978:	1e000000 	cdpne	0, 0, cr0, cr0, cr0, {0}
    197c:	25f72008 	ldrbcs	r2, [r7, #8]!
    1980:	332cf725 	msrcc	CPSR_fs, #9699328	; 0x940000
    1984:	02d49f25 	sbcseq	r9, r4, #37, 30	; 0x94
    1988:	02d80000 	sbcseq	r0, r8, #0
    198c:	00010000 	andeq	r0, r1, r0
    1990:	0002d853 	andeq	sp, r2, r3, asr r8
    1994:	0002e000 	andeq	lr, r2, r0
    1998:	70001c00 	andvc	r1, r0, r0, lsl #24
    199c:	f72cf700 			; <UNDEFINED> instruction: 0xf72cf700
    19a0:	0825f425 	stmdaeq	r5!, {r0, r2, r5, sl, ip, sp, lr, pc}
    19a4:	cccccccd 	stclgt	12, cr12, [ip], {205}	; 0xcd
    19a8:	00000000 	andeq	r0, r0, r0
    19ac:	f720081e 			; <UNDEFINED> instruction: 0xf720081e
    19b0:	2cf72525 	cfldr64cs	mvdx2, [r7], #148	; 0x94
    19b4:	e09f2533 	adds	r2, pc, r3, lsr r5	; <UNPREDICTABLE>
    19b8:	e4000002 	str	r0, [r0], #-2
    19bc:	01000002 	tsteq	r0, r2
    19c0:	02e45300 	rsceq	r5, r4, #0, 6
    19c4:	02ec0000 	rsceq	r0, ip, #0
    19c8:	001c0000 	andseq	r0, ip, r0
    19cc:	2cf70070 	ldclcs	0, cr0, [r7], #448	; 0x1c0
    19d0:	25f425f7 	ldrbcs	r2, [r4, #1527]!	; 0x5f7
    19d4:	cccccd08 	stclgt	13, cr12, [ip], {8}
    19d8:	000000cc 	andeq	r0, r0, ip, asr #1
    19dc:	20081e00 	andcs	r1, r8, r0, lsl #28
    19e0:	f72525f7 			; <UNDEFINED> instruction: 0xf72525f7
    19e4:	9f25332c 	svcls	0x0025332c
    19e8:	000002ec 	andeq	r0, r0, ip, ror #5
    19ec:	000002f0 	strdeq	r0, [r0], -r0	; <UNPREDICTABLE>
    19f0:	f0530001 			; <UNDEFINED> instruction: 0xf0530001
    19f4:	f8000002 			; <UNDEFINED> instruction: 0xf8000002
    19f8:	1c000002 	stcne	0, cr0, [r0], {2}
    19fc:	f7007000 			; <UNDEFINED> instruction: 0xf7007000
    1a00:	f425f72c 	vld1.8	{d15}, [r5 :128], ip
    1a04:	cccd0825 	stclgt	8, cr0, [sp], {37}	; 0x25
    1a08:	0000cccc 	andeq	ip, r0, ip, asr #25
    1a0c:	081e0000 	ldmdaeq	lr, {}	; <UNPREDICTABLE>
    1a10:	2525f720 	strcs	pc, [r5, #-1824]!	; 0x720
    1a14:	25332cf7 	ldrcs	r2, [r3, #-3319]!	; 0xcf7
    1a18:	0002f89f 	muleq	r2, pc, r8	; <UNPREDICTABLE>
    1a1c:	0002fc00 	andeq	pc, r2, r0, lsl #24
    1a20:	53000100 	movwpl	r0, #256	; 0x100
    1a24:	000002fc 	strdeq	r0, [r0], -ip
    1a28:	00000304 	andeq	r0, r0, r4, lsl #6
    1a2c:	0070001c 	rsbseq	r0, r0, ip, lsl r0
    1a30:	25f72cf7 	ldrbcs	r2, [r7, #3319]!	; 0xcf7
    1a34:	cd0825f4 	cfstr32gt	mvfx2, [r8, #-976]	; 0xfffffc30
    1a38:	00cccccc 	sbceq	ip, ip, ip, asr #25
    1a3c:	1e000000 	cdpne	0, 0, cr0, cr0, cr0, {0}
    1a40:	25f72008 	ldrbcs	r2, [r7, #8]!
    1a44:	332cf725 	msrcc	CPSR_fs, #9699328	; 0x940000
    1a48:	03049f25 	movweq	r9, #20261	; 0x4f25
    1a4c:	03080000 	movweq	r0, #32768	; 0x8000
    1a50:	00010000 	andeq	r0, r1, r0
    1a54:	00030853 	andeq	r0, r3, r3, asr r8
    1a58:	00031000 	andeq	r1, r3, r0
    1a5c:	70001c00 	andvc	r1, r0, r0, lsl #24
    1a60:	f72cf700 			; <UNDEFINED> instruction: 0xf72cf700
    1a64:	0825f425 	stmdaeq	r5!, {r0, r2, r5, sl, ip, sp, lr, pc}
    1a68:	cccccccd 	stclgt	12, cr12, [ip], {205}	; 0xcd
    1a6c:	00000000 	andeq	r0, r0, r0
    1a70:	f720081e 			; <UNDEFINED> instruction: 0xf720081e
    1a74:	2cf72525 	cfldr64cs	mvdx2, [r7], #148	; 0x94
    1a78:	109f2533 	addsne	r2, pc, r3, lsr r5	; <UNPREDICTABLE>
    1a7c:	14000003 	strne	r0, [r0], #-3
    1a80:	01000003 	tsteq	r0, r3
    1a84:	03145300 	tsteq	r4, #0, 6
    1a88:	03180000 	tsteq	r8, #0
    1a8c:	001c0000 	andseq	r0, ip, r0
    1a90:	2cf70070 	ldclcs	0, cr0, [r7], #448	; 0x1c0
    1a94:	25f425f7 	ldrbcs	r2, [r4, #1527]!	; 0x5f7
    1a98:	cccccd08 	stclgt	13, cr12, [ip], {8}
    1a9c:	000000cc 	andeq	r0, r0, ip, asr #1
    1aa0:	20081e00 	andcs	r1, r8, r0, lsl #28
    1aa4:	f72525f7 			; <UNDEFINED> instruction: 0xf72525f7
    1aa8:	9f25332c 	svcls	0x0025332c
    1aac:	00000318 	andeq	r0, r0, r8, lsl r3
    1ab0:	00000320 	andeq	r0, r0, r0, lsr #6
    1ab4:	0074001c 	rsbseq	r0, r4, ip, lsl r0
    1ab8:	25f72cf7 	ldrbcs	r2, [r7, #3319]!	; 0xcf7
    1abc:	cd0825f4 	cfstr32gt	mvfx2, [r8, #-976]	; 0xfffffc30
    1ac0:	00cccccc 	sbceq	ip, ip, ip, asr #25
    1ac4:	1e000000 	cdpne	0, 0, cr0, cr0, cr0, {0}
    1ac8:	25f72008 	ldrbcs	r2, [r7, #8]!
    1acc:	332cf725 	msrcc	CPSR_fs, #9699328	; 0x940000
    1ad0:	03209f25 	teqeq	r0, #37, 30	; 0x94
    1ad4:	03240000 	teqeq	r4, #0
    1ad8:	00170000 	andseq	r0, r7, r0
    1adc:	2cf70074 	ldclcs	0, cr0, [r7], #464	; 0x1d0
    1ae0:	007325f7 	ldrshteq	r2, [r3], #-87	; 0xffffffa9
    1ae4:	25f72cf7 	ldrbcs	r2, [r7, #3319]!	; 0xcf7
    1ae8:	f720081e 			; <UNDEFINED> instruction: 0xf720081e
    1aec:	2cf72525 	cfldr64cs	mvdx2, [r7], #148	; 0x94
    1af0:	249f2533 	ldrcs	r2, [pc], #1331	; 1af8 <_start-0x6508>
    1af4:	58000003 	stmdapl	r0, {r0, r1}
    1af8:	1c000003 	stcne	0, cr0, [r0], {3}
    1afc:	f7007400 			; <UNDEFINED> instruction: 0xf7007400
    1b00:	f425f72c 	vld1.8	{d15}, [r5 :128], ip
    1b04:	cccd0825 	stclgt	8, cr0, [sp], {37}	; 0x25
    1b08:	0000cccc 	andeq	ip, r0, ip, asr #25
    1b0c:	081e0000 	ldmdaeq	lr, {}	; <UNPREDICTABLE>
    1b10:	2525f720 	strcs	pc, [r5, #-1824]!	; 0x720
    1b14:	25332cf7 	ldrcs	r2, [r3, #-3319]!	; 0xcf7
    1b18:	0000009f 	muleq	r0, pc, r0	; <UNPREDICTABLE>
    1b1c:	00000000 	andeq	r0, r0, r0
    1b20:	00031c00 	andeq	r1, r3, r0, lsl #24
    1b24:	00034000 	andeq	r4, r3, r0
    1b28:	50000100 	andpl	r0, r0, r0, lsl #2
    1b2c:	00000340 	andeq	r0, r0, r0, asr #6
    1b30:	00000348 	andeq	r0, r0, r8, asr #6
    1b34:	00750009 	rsbseq	r0, r5, r9
    1b38:	71240073 	teqvc	r4, r3, ror r0
    1b3c:	489f2100 	ldmmi	pc, {r8, sp}	; <UNPREDICTABLE>
    1b40:	4b000003 	blmi	1b54 <_start-0x64ac>
    1b44:	01000003 	tsteq	r0, r3
    1b48:	00005100 	andeq	r5, r0, r0, lsl #2
    1b4c:	00000000 	andeq	r0, r0, r0
    1b50:	03580000 	cmpeq	r8, #0
    1b54:	037c0000 	cmneq	ip, #0
    1b58:	00010000 	andeq	r0, r1, r0
    1b5c:	00037c50 	andeq	r7, r3, r0, asr ip
    1b60:	00039000 	andeq	r9, r3, r0
    1b64:	f3000400 	vshl.u8	d0, d0, d0
    1b68:	009f5001 	addseq	r5, pc, r1
    1b6c:	00000000 	andeq	r0, r0, r0
    1b70:	64000000 	strvs	r0, [r0], #-0
    1b74:	6c000003 	stcvs	0, cr0, [r0], {3}
    1b78:	02000003 	andeq	r0, r0, #3
    1b7c:	6c9f3000 	ldcvs	0, cr3, [pc], {0}
    1b80:	6c000003 	stcvs	0, cr0, [r0], {3}
    1b84:	01000003 	tsteq	r0, r3
    1b88:	036c5200 	cmneq	ip, #0, 4
    1b8c:	03740000 	cmneq	r4, #0
    1b90:	00020000 	andeq	r0, r2, r0
    1b94:	03749f30 	cmneq	r4, #48, 30	; 0xc0
    1b98:	03870000 	orreq	r0, r7, #0
    1b9c:	00010000 	andeq	r0, r1, r0
    1ba0:	00000052 	andeq	r0, r0, r2, asr r0
    1ba4:	00000000 	andeq	r0, r0, r0
    1ba8:	00036400 	andeq	r6, r3, r0, lsl #8
    1bac:	00037800 	andeq	r7, r3, r0, lsl #16
    1bb0:	30000200 	andcc	r0, r0, r0, lsl #4
    1bb4:	0003789f 	muleq	r3, pc, r8	; <UNPREDICTABLE>
    1bb8:	00038400 	andeq	r8, r3, r0, lsl #8
    1bbc:	31000500 	tstcc	r0, r0, lsl #10
    1bc0:	9f240073 	svcls	0x00240073
    1bc4:	00000384 	andeq	r0, r0, r4, lsl #7
    1bc8:	00000387 	andeq	r0, r0, r7, lsl #7
    1bcc:	87510001 	ldrbhi	r0, [r1, -r1]
    1bd0:	90000003 	andls	r0, r0, r3
    1bd4:	08000003 	stmdaeq	r0, {r0, r1}
    1bd8:	01f33100 	mvnseq	r3, r0, lsl #2
    1bdc:	241a4f50 	ldrcs	r4, [sl], #-3920	; 0xf50
    1be0:	0000009f 	muleq	r0, pc, r0	; <UNPREDICTABLE>
    1be4:	00000000 	andeq	r0, r0, r0
    1be8:	00039000 	andeq	r9, r3, r0
    1bec:	00039c00 	andeq	r9, r3, r0, lsl #24
    1bf0:	50000100 	andpl	r0, r0, r0, lsl #2
    1bf4:	0000039c 	muleq	r0, ip, r3
    1bf8:	000003bc 			; <UNDEFINED> instruction: 0x000003bc
    1bfc:	01f30004 	mvnseq	r0, r4
    1c00:	00009f50 	andeq	r9, r0, r0, asr pc
    1c04:	00000000 	andeq	r0, r0, r0
    1c08:	03bc0000 			; <UNDEFINED> instruction: 0x03bc0000
    1c0c:	03cf0000 	biceq	r0, pc, #0
    1c10:	00010000 	andeq	r0, r1, r0
    1c14:	0003cf50 	andeq	ip, r3, r0, asr pc
    1c18:	00040800 	andeq	r0, r4, r0, lsl #16
    1c1c:	54000100 	strpl	r0, [r0], #-256	; 0x100
    1c20:	00000408 	andeq	r0, r0, r8, lsl #8
    1c24:	00000440 	andeq	r0, r0, r0, asr #8
    1c28:	01f30004 	mvnseq	r0, r4
    1c2c:	00009f50 	andeq	r9, r0, r0, asr pc
    1c30:	00000000 	andeq	r0, r0, r0
    1c34:	04280000 	strteq	r0, [r8], #-0
    1c38:	042c0000 	strteq	r0, [ip], #-0
    1c3c:	00010000 	andeq	r0, r1, r0
    1c40:	00042c50 	andeq	r2, r4, r0, asr ip
    1c44:	00043300 	andeq	r3, r4, r0, lsl #6
    1c48:	51000100 	mrspl	r0, (UNDEF: 16)
	...
    1c54:	000003e4 	andeq	r0, r0, r4, ror #7
    1c58:	000003ec 	andeq	r0, r0, ip, ror #7
    1c5c:	ec500001 	mrrc	0, 0, r0, r0, cr1	; <UNPREDICTABLE>
    1c60:	f3000003 	vhadd.u8	d0, d0, d3
    1c64:	01000003 	tsteq	r0, r3
    1c68:	00005100 	andeq	r5, r0, r0, lsl #2
    1c6c:	00000000 	andeq	r0, r0, r0
    1c70:	04040000 	streq	r0, [r4], #-0
    1c74:	04100000 	ldreq	r0, [r0], #-0
    1c78:	00010000 	andeq	r0, r1, r0
    1c7c:	00041050 	andeq	r1, r4, r0, asr r0
    1c80:	00041700 	andeq	r1, r4, r0, lsl #14
    1c84:	51000100 	mrspl	r0, (UNDEF: 16)
	...
    1c90:	00000440 	andeq	r0, r0, r0, asr #8
    1c94:	00000453 	andeq	r0, r0, r3, asr r4
    1c98:	53500001 	cmppl	r0, #1
    1c9c:	8c000004 	stchi	0, cr0, [r0], {4}
    1ca0:	01000004 	tsteq	r0, r4
    1ca4:	048c5400 	streq	r5, [ip], #1024	; 0x400
    1ca8:	04c40000 	strbeq	r0, [r4], #0
    1cac:	00040000 	andeq	r0, r4, r0
    1cb0:	9f5001f3 	svcls	0x005001f3
	...
    1cbc:	000004ac 	andeq	r0, r0, ip, lsr #9
    1cc0:	000004b0 			; <UNDEFINED> instruction: 0x000004b0
    1cc4:	b0500001 	subslt	r0, r0, r1
    1cc8:	b7000004 	strlt	r0, [r0, -r4]
    1ccc:	01000004 	tsteq	r0, r4
    1cd0:	00005100 	andeq	r5, r0, r0, lsl #2
    1cd4:	00000000 	andeq	r0, r0, r0
    1cd8:	04680000 	strbteq	r0, [r8], #-0
    1cdc:	04700000 	ldrbteq	r0, [r0], #-0
    1ce0:	00010000 	andeq	r0, r1, r0
    1ce4:	00047050 	andeq	r7, r4, r0, asr r0
    1ce8:	00047700 	andeq	r7, r4, r0, lsl #14
    1cec:	51000100 	mrspl	r0, (UNDEF: 16)
	...
    1cf8:	00000488 	andeq	r0, r0, r8, lsl #9
    1cfc:	00000494 	muleq	r0, r4, r4
    1d00:	94500001 	ldrbls	r0, [r0], #-1
    1d04:	9b000004 	blls	1d1c <_start-0x62e4>
    1d08:	01000004 	tsteq	r0, r4
    1d0c:	00005100 	andeq	r5, r0, r0, lsl #2
    1d10:	00000000 	andeq	r0, r0, r0
    1d14:	04c40000 	strbeq	r0, [r4], #0
    1d18:	04d70000 	ldrbeq	r0, [r7], #0
    1d1c:	00010000 	andeq	r0, r1, r0
    1d20:	0004d750 	andeq	sp, r4, r0, asr r7
    1d24:	00051800 	andeq	r1, r5, r0, lsl #16
    1d28:	54000100 	strpl	r0, [r0], #-256	; 0x100
    1d2c:	00000518 	andeq	r0, r0, r8, lsl r5
    1d30:	0000053c 	andeq	r0, r0, ip, lsr r5
    1d34:	01f30004 	mvnseq	r0, r4
    1d38:	053c9f50 	ldreq	r9, [ip, #-3920]!	; 0xf50
    1d3c:	05400000 	strbeq	r0, [r0, #-0]
    1d40:	00010000 	andeq	r0, r1, r0
    1d44:	00054050 	andeq	r4, r5, r0, asr r0
    1d48:	00054800 	andeq	r4, r5, r0, lsl #16
    1d4c:	54000100 	strpl	r0, [r0], #-256	; 0x100
	...
    1d58:	000004ec 	andeq	r0, r0, ip, ror #9
    1d5c:	000004fb 	strdeq	r0, [r0], -fp
    1d60:	74310008 	ldrtvc	r0, [r1], #-8
    1d64:	00702400 	rsbseq	r2, r0, r0, lsl #8
    1d68:	00009f1a 	andeq	r9, r0, sl, lsl pc
    1d6c:	00000000 	andeq	r0, r0, r0
    1d70:	05180000 	ldreq	r0, [r8, #-0]
    1d74:	05300000 	ldreq	r0, [r0, #-0]!
    1d78:	00010000 	andeq	r0, r1, r0
    1d7c:	00000054 	andeq	r0, r0, r4, asr r0
    1d80:	00000000 	andeq	r0, r0, r0
    1d84:	00054800 	andeq	r4, r5, r0, lsl #16
    1d88:	00055b00 	andeq	r5, r5, r0, lsl #22
    1d8c:	50000100 	andpl	r0, r0, r0, lsl #2
    1d90:	0000055b 	andeq	r0, r0, fp, asr r5
    1d94:	00000580 	andeq	r0, r0, r0, lsl #11
    1d98:	80540001 	subshi	r0, r4, r1
    1d9c:	a0000005 	andge	r0, r0, r5
    1da0:	04000005 	streq	r0, [r0], #-5
    1da4:	5001f300 	andpl	pc, r1, r0, lsl #6
    1da8:	0000009f 	muleq	r0, pc, r0	; <UNPREDICTABLE>
    1dac:	00000000 	andeq	r0, r0, r0
    1db0:	0000fc00 	andeq	pc, r0, r0, lsl #24
    1db4:	00010400 	andeq	r0, r1, r0, lsl #8
    1db8:	50000100 	andpl	r0, r0, r0, lsl #2
    1dbc:	00000104 	andeq	r0, r0, r4, lsl #2
    1dc0:	00000128 	andeq	r0, r0, r8, lsr #2
    1dc4:	00540001 	subseq	r0, r4, r1
    1dc8:	00000000 	andeq	r0, r0, r0
    1dcc:	Address 0x0000000000001dcc is out of bounds.


Disassembly of section .debug_aranges:

00000000 <.debug_aranges>:
   0:	0000001c 	andeq	r0, r0, ip, lsl r0
   4:	00000002 	andeq	r0, r0, r2
   8:	00040000 	andeq	r0, r4, r0
   c:	00000000 	andeq	r0, r0, r0
  10:	00008010 	andeq	r8, r0, r0, lsl r0
  14:	00000724 	andeq	r0, r0, r4, lsr #14
	...
  20:	0000001c 	andeq	r0, r0, ip, lsl r0
  24:	11400002 	cmpne	r0, r2
  28:	00040000 	andeq	r0, r4, r0
  2c:	00000000 	andeq	r0, r0, r0
  30:	00008734 	andeq	r8, r0, r4, lsr r7
  34:	00000568 	andeq	r0, r0, r8, ror #10
	...
  40:	0000001c 	andeq	r0, r0, ip, lsl r0
  44:	2ca20002 	stccs	0, cr0, [r2], #8
  48:	00040000 	andeq	r0, r4, r0
  4c:	00000000 	andeq	r0, r0, r0
  50:	00008c9c 	muleq	r0, ip, ip
  54:	00000058 	andeq	r0, r0, r8, asr r0
	...
  60:	0000001c 	andeq	r0, r0, ip, lsl r0
  64:	2e370002 	cdpcs	0, 3, cr0, cr7, cr2, {0}
  68:	00040000 	andeq	r0, r4, r0
  6c:	00000000 	andeq	r0, r0, r0
  70:	00008cf4 	strdeq	r8, [r0], -r4
  74:	0000003c 	andeq	r0, r0, ip, lsr r0
	...
  80:	0000001c 	andeq	r0, r0, ip, lsl r0
  84:	2f4e0002 	svccs	0x004e0002
  88:	00040000 	andeq	r0, r4, r0
  8c:	00000000 	andeq	r0, r0, r0
  90:	00008d30 	andeq	r8, r0, r0, lsr sp
  94:	00000034 	andeq	r0, r0, r4, lsr r0
	...
  a0:	0000001c 	andeq	r0, r0, ip, lsl r0
  a4:	30400002 	subcc	r0, r0, r2
  a8:	00040000 	andeq	r0, r4, r0
  ac:	00000000 	andeq	r0, r0, r0
  b0:	00008d64 	andeq	r8, r0, r4, ror #26
  b4:	000004f8 	strdeq	r0, [r0], -r8
	...
  c0:	0000001c 	andeq	r0, r0, ip, lsl r0
  c4:	36c50002 	strbcc	r0, [r5], r2
  c8:	00040000 	andeq	r0, r4, r0
  cc:	00000000 	andeq	r0, r0, r0
  d0:	0000925c 	andeq	r9, r0, ip, asr r2
  d4:	00000028 	andeq	r0, r0, r8, lsr #32
	...
  e0:	0000001c 	andeq	r0, r0, ip, lsl r0
  e4:	37c80002 	strbcc	r0, [r8, r2]
  e8:	00040000 	andeq	r0, r4, r0
  ec:	00000000 	andeq	r0, r0, r0
  f0:	00009284 	andeq	r9, r0, r4, lsl #5
  f4:	00000034 	andeq	r0, r0, r4, lsr r0
	...
 100:	0000001c 	andeq	r0, r0, ip, lsl r0
 104:	38cb0002 	stmiacc	fp, {r1}^
 108:	00040000 	andeq	r0, r4, r0
 10c:	00000000 	andeq	r0, r0, r0
 110:	000092b8 			; <UNDEFINED> instruction: 0x000092b8
 114:	00000074 	andeq	r0, r0, r4, ror r0
	...
 120:	0000001c 	andeq	r0, r0, ip, lsl r0
 124:	3a7c0002 	bcc	1f00134 <__bss_end__+0x1ef5bd4>
 128:	00040000 	andeq	r0, r4, r0
 12c:	00000000 	andeq	r0, r0, r0
 130:	0000932c 	andeq	r9, r0, ip, lsr #6
 134:	00000088 	andeq	r0, r0, r8, lsl #1
	...
 140:	0000001c 	andeq	r0, r0, ip, lsl r0
 144:	3c580002 	mrrccc	0, 0, r0, r8, cr2
 148:	00040000 	andeq	r0, r4, r0
 14c:	00000000 	andeq	r0, r0, r0
 150:	000093b4 			; <UNDEFINED> instruction: 0x000093b4
 154:	000005a0 	andeq	r0, r0, r0, lsr #11
	...
 160:	0000001c 	andeq	r0, r0, ip, lsl r0
 164:	44de0002 	ldrbmi	r0, [lr], #2
 168:	00040000 	andeq	r0, r4, r0
 16c:	00000000 	andeq	r0, r0, r0
 170:	00009954 	andeq	r9, r0, r4, asr r9
 174:	00000154 	andeq	r0, r0, r4, asr r1
	...

Disassembly of section .debug_ranges:

00000000 <.debug_ranges>:
   0:	00000610 	andeq	r0, r0, r0, lsl r6
   4:	00000624 	andeq	r0, r0, r4, lsr #12
   8:	00000628 	andeq	r0, r0, r8, lsr #12
   c:	00000684 	andeq	r0, r0, r4, lsl #13
	...
  18:	00000294 	muleq	r0, r4, r2
  1c:	00000298 	muleq	r0, r8, r2
  20:	000002c8 	andeq	r0, r0, r8, asr #5
  24:	000004b8 			; <UNDEFINED> instruction: 0x000004b8
	...
  30:	000092b8 			; <UNDEFINED> instruction: 0x000092b8
  34:	0000932c 	andeq	r9, r0, ip, lsr #6
	...

Disassembly of section .debug_line:

00000000 <.debug_line>:
   0:	000001e7 	andeq	r0, r0, r7, ror #3
   4:	00e20002 	rsceq	r0, r2, r2
   8:	01020000 	mrseq	r0, (UNDEF: 2)
   c:	000d0efb 	strdeq	r0, [sp], -fp
  10:	01010101 	tsteq	r1, r1, lsl #2
  14:	01000000 	mrseq	r0, (UNDEF: 0)
  18:	2f010000 	svccs	0x00010000
  1c:	2f727375 	svccs	0x00727375
  20:	61636f6c 	cmnvs	r3, ip, ror #30
  24:	65432f6c 	strbvs	r2, [r3, #-3948]	; 0xf6c
  28:	72616c6c 	rsbvc	r6, r1, #108, 24	; 0x6c00
  2c:	6d72612f 	ldfvse	f6, [r2, #-188]!	; 0xffffff44
  30:	6e6f6e2d 	cdpvs	14, 6, cr6, cr15, cr13, {1}
  34:	61652d65 	cmnvs	r5, r5, ror #26
  38:	342f6962 	strtcc	r6, [pc], #-2402	; 40 <_start-0x7fc0>
  3c:	332e382e 	teqcc	lr, #3014656	; 0x2e0000
  40:	3173632d 	cmncc	r3, sp, lsr #6
  44:	2f653037 	svccs	0x00653037
  48:	2f62696c 	svccs	0x0062696c
  4c:	2f636367 	svccs	0x00636367
  50:	2d6d7261 	sfmcs	f7, 2, [sp, #-388]!	; 0xfffffe7c
  54:	656e6f6e 	strbvs	r6, [lr, #-3950]!	; 0xf6e
  58:	6261652d 	rsbvs	r6, r1, #188743680	; 0xb400000
  5c:	2e342f69 	cdpcs	15, 3, cr2, cr4, cr9, {3}
  60:	2f332e38 	svccs	0x00332e38
  64:	6c636e69 	stclvs	14, cr6, [r3], #-420	; 0xfffffe5c
  68:	00656475 	rsbeq	r6, r5, r5, ror r4
  6c:	6573552f 	ldrbvs	r5, [r3, #-1327]!	; 0x52f
  70:	622f7372 	eorvs	r7, pc, #-939524095	; 0xc8000001
  74:	6e616972 	mcrvs	9, 3, r6, cr1, cr2, {3}
  78:	2f6e756a 	svccs	0x006e756a
  7c:	6b736544 	blvs	1cd9594 <__bss_end__+0x1ccf034>
  80:	2f706f74 	svccs	0x00706f74
  84:	6f686373 	svcvs	0x00686373
  88:	572f6c6f 	strpl	r6, [pc, -pc, ror #24]!
  8c:	65746e69 	ldrbvs	r6, [r4, #-3689]!	; 0xe69
  90:	32393172 	eorscc	r3, r9, #-2147483620	; 0x8000001c
  94:	53432f30 	movtpl	r2, #16176	; 0x3f30
  98:	45303431 	ldrmi	r3, [r0, #-1073]!	; 0x431
  9c:	3173632f 	cmncc	r3, pc, lsr #6
  a0:	2d653034 	stclcs	0, cr3, [r5, #-208]!	; 0xffffff30
  a4:	69773032 	ldmdbvs	r7!, {r1, r4, r5, ip, sp}^
  a8:	696c2f6e 	stmdbvs	ip!, {r1, r2, r3, r5, r6, r8, r9, sl, fp, sp}^
  ac:	00697062 	rsbeq	r7, r9, r2, rrx
  b0:	72796700 	rsbsvc	r6, r9, #0, 14
  b4:	00632e6f 	rsbeq	r2, r3, pc, ror #28
  b8:	6c000000 	stcvs	0, cr0, [r0], {-0}
  bc:	64366d73 	ldrtvs	r6, [r6], #-3443	; 0xd73
  c0:	2e333373 	mrccs	3, 1, r3, cr3, cr3, {3}
  c4:	00000068 	andeq	r0, r0, r8, rrx
  c8:	64747300 	ldrbtvs	r7, [r4], #-768	; 0x300
  cc:	2d746e69 	ldclcs	14, cr6, [r4, #-420]!	; 0xfffffe5c
  d0:	2e636367 	cdpcs	3, 6, cr6, cr3, cr7, {3}
  d4:	00010068 	andeq	r0, r1, r8, rrx
  d8:	69707200 	ldmdbvs	r0!, {r9, ip, sp, lr}^
  dc:	0200682e 	andeq	r6, r0, #3014656	; 0x2e0000
  e0:	32690000 	rsbcc	r0, r9, #0
  e4:	00682e63 	rsbeq	r2, r8, r3, ror #28
  e8:	00000000 	andeq	r0, r0, r0
  ec:	10020500 	andne	r0, r2, r0, lsl #10
  f0:	03000080 	movweq	r0, #128	; 0x80
  f4:	6713011d 			; <UNDEFINED> instruction: 0x6713011d
  f8:	132e2d03 	teqne	lr, #3, 26	; 0xc0
  fc:	83134d30 	tsthi	r3, #48, 26	; 0xc00
 100:	9f660f03 	svcls	0x00660f03
 104:	8383832f 	orrhi	r8, r3, #-1140850688	; 0xbc000000
 108:	823d0383 	eorshi	r0, sp, #201326594	; 0xc000002
 10c:	a1bb8483 			; <UNDEFINED> instruction: 0xa1bb8483
 110:	0867674b 	stmdaeq	r7!, {r0, r1, r3, r6, r8, r9, sl, sp, lr}^
 114:	7ef2033d 	mrcvc	3, 7, r0, cr2, cr13, {1}
 118:	020067d6 	andeq	r6, r0, #56098816	; 0x3580000
 11c:	4a060104 	bmi	180534 <__bss_end__+0x175fd4>
 120:	0200d706 	andeq	sp, r0, #1572864	; 0x180000
 124:	66060104 	strvs	r0, [r6], -r4, lsl #2
 128:	8485d706 	strhi	sp, [r5], #1798	; 0x706
 12c:	02004bd9 	andeq	r4, r0, #222208	; 0x36400
 130:	4a060104 	bmi	180548 <__bss_end__+0x175fe8>
 134:	0200d706 	andeq	sp, r0, #1572864	; 0x180000
 138:	4a060104 	bmi	180550 <__bss_end__+0x175ff0>
 13c:	2f2fd806 	svccs	0x002fd806
 140:	009fbe68 	addseq	fp, pc, r8, ror #28
 144:	06010402 	streq	r0, [r1], -r2, lsl #8
 148:	00d7064a 	sbcseq	r0, r7, sl, asr #12
 14c:	06010402 	streq	r0, [r1], -r2, lsl #8
 150:	83d70666 	bicshi	r0, r7, #106954752	; 0x6600000
 154:	ba190383 	blt	640f68 <__bss_end__+0x636a08>
 158:	4b5b082f 	blmi	16c221c <__bss_end__+0x16b7cbc>
 15c:	01040200 	mrseq	r0, R12_usr
 160:	334bd24b 	movtcc	sp, #45643	; 0xb24b
 164:	bbf20b03 	bllt	ffc82d78 <__bss_end__+0xffc78818>
 168:	64030204 	strvs	r0, [r3], #-516	; 0x204
 16c:	0301042e 	movweq	r0, #5166	; 0x142e
 170:	4bac081e 	blmi	feb021f0 <__bss_end__+0xfeaf7c90>
 174:	4d030204 	sfmmi	f0, 4, [r3, #-16]
 178:	01044bf2 	strdeq	r4, [r4, -r2]
 17c:	4bd63303 	blmi	ff58cd90 <__bss_end__+0xff582830>
 180:	bc8686f7 	stclt	6, cr8, [r6], {247}	; 0xf7
 184:	08314cbc 	ldmdaeq	r1!, {r2, r3, r4, r5, r7, sl, fp, lr}
 188:	4b673193 	blmi	19cc7dc <__bss_end__+0x19c227c>
 18c:	0030304c 	eorseq	r3, r0, ip, asr #32
 190:	85010402 	strhi	r0, [r1, #-1026]	; 0x402
 194:	8383a086 	orrhi	sl, r3, #134	; 0x86
 198:	0f036868 	svceq	0x00036868
 19c:	4a120366 	bmi	480f3c <__bss_end__+0x4769dc>
 1a0:	9f9f9f67 	svcls	0x009f9f67
 1a4:	a04c9f9f 	umaalge	r9, ip, pc, pc	; <UNPREDICTABLE>
 1a8:	2f302f2f 	svccs	0x00302f2f
 1ac:	2e790330 	mrccs	3, 3, r0, cr9, cr0, {1}
 1b0:	02040200 	andeq	r0, r4, #0, 4
 1b4:	0402002f 	streq	r0, [r2], #-47	; 0x2f
 1b8:	02006702 	andeq	r6, r0, #524288	; 0x80000
 1bc:	00a00204 	adceq	r0, r0, r4, lsl #4
 1c0:	f3020402 	vshl.u8	d0, d2, d2
 1c4:	02040200 	andeq	r0, r4, #0, 4
 1c8:	040200a0 	streq	r0, [r2], #-160	; 0xa0
 1cc:	4a790302 	bmi	1e40ddc <__bss_end__+0x1e3687c>
 1d0:	01040200 	mrseq	r0, R12_usr
 1d4:	03062e06 	movweq	r2, #28166	; 0x6e06
 1d8:	4ba34a09 	blmi	fe8d2a04 <__bss_end__+0xfe8c84a4>
 1dc:	4e2f4b30 	vmovmi.16	d15[2], r4
 1e0:	3e084b83 	vmlacc.f64	d4, d24, d3
 1e4:	0a02304d 	beq	8c320 <__bss_end__+0x81dc0>
 1e8:	41010100 	mrsmi	r0, (UNDEF: 17)
 1ec:	02000002 	andeq	r0, r0, #2
 1f0:	00010400 	andeq	r0, r1, r0, lsl #8
 1f4:	fb010200 	blx	409fe <__bss_end__+0x3649e>
 1f8:	01000d0e 	tsteq	r0, lr, lsl #26
 1fc:	00010101 	andeq	r0, r1, r1, lsl #2
 200:	00010000 	andeq	r0, r1, r0
 204:	752f0100 	strvc	r0, [pc, #-256]!	; 10c <_start-0x7ef4>
 208:	6c2f7273 	sfmvs	f7, 4, [pc], #-460	; 44 <_start-0x7fbc>
 20c:	672f6269 	strvs	r6, [pc, -r9, ror #4]!
 210:	612f6363 	teqvs	pc, r3, ror #6
 214:	6e2d6d72 	mcrvs	13, 1, r6, cr13, cr2, {3}
 218:	2d656e6f 	stclcs	14, cr6, [r5, #-444]!	; 0xfffffe44
 21c:	69626165 	stmdbvs	r2!, {r0, r2, r5, r6, r8, sp, lr}^
 220:	332e362f 	teqcc	lr, #49283072	; 0x2f00000
 224:	692f312e 	stmdbvs	pc!, {r1, r2, r3, r5, r8, ip, sp}	; <UNPREDICTABLE>
 228:	756c636e 	strbvc	r6, [ip, #-878]!	; 0x36e
 22c:	2f006564 	svccs	0x00006564
 230:	2f727375 	svccs	0x00727375
 234:	6c636e69 	stclvs	14, cr6, [r3], #-420	; 0xfffffe5c
 238:	2f656475 	svccs	0x00656475
 23c:	6c77656e 	cfldr64vs	mvdx6, [r7], #-440	; 0xfffffe48
 240:	732f6269 	teqvc	pc, #-1879048186	; 0x90000006
 244:	2f007379 	svccs	0x00007379
 248:	656d6f68 	strbvs	r6, [sp, #-3944]!	; 0xf68
 24c:	676e652f 	strbvs	r6, [lr, -pc, lsr #10]!
 250:	2f72656c 	svccs	0x0072656c
 254:	73616c63 	cmnvc	r1, #25344	; 0x6300
 258:	73632f73 	cmnvc	r3, #460	; 0x1cc
 25c:	65303431 	ldrvs	r3, [r0, #-1073]!	; 0x431
 260:	7730322d 	ldrvc	r3, [r0, -sp, lsr #4]!
 264:	6c2f6e69 	stcvs	14, cr6, [pc], #-420	; c8 <_start-0x7f38>
 268:	69706269 	ldmdbvs	r0!, {r0, r3, r5, r6, r9, sp, lr}^
 26c:	6f682f00 	svcvs	0x00682f00
 270:	652f656d 	strvs	r6, [pc, #-1389]!	; fffffd0b <__bss_end__+0xffff57ab>
 274:	656c676e 	strbvs	r6, [ip, #-1902]!	; 0x76e
 278:	6c632f72 	stclvs	15, cr2, [r3], #-456	; 0xfffffe38
 27c:	2f737361 	svccs	0x00737361
 280:	34317363 	ldrtcc	r7, [r1], #-867	; 0x363
 284:	322d6530 	eorcc	r6, sp, #48, 10	; 0xc000000
 288:	6e697730 	mcrvs	7, 3, r7, cr9, cr0, {1}
 28c:	62696c2f 	rsbvs	r6, r9, #12032	; 0x2f00
 290:	632f6970 	teqvs	pc, #112, 18	; 0x1c0000
 294:	30343173 	eorscc	r3, r4, r3, ror r1
 298:	72732d65 	rsbsvc	r2, r3, #6464	; 0x1940
 29c:	69000063 	stmdbvs	r0, {r0, r1, r5, r6}
 2a0:	632e6332 	teqvs	lr, #-939524096	; 0xc8000000
 2a4:	00000000 	andeq	r0, r0, r0
 2a8:	69647473 	stmdbvs	r4!, {r0, r1, r4, r5, r6, sl, ip, sp, lr}^
 2ac:	672d746e 	strvs	r7, [sp, -lr, ror #8]!
 2b0:	682e6363 	stmdavs	lr!, {r0, r1, r5, r6, r8, r9, sp, lr}
 2b4:	00000100 	andeq	r0, r0, r0, lsl #2
 2b8:	6b636f6c 	blvs	18dc070 <__bss_end__+0x18d1b10>
 2bc:	0200682e 	andeq	r6, r0, #3014656	; 0x2e0000
 2c0:	745f0000 	ldrbvc	r0, [pc], #-0	; 2c8 <_start-0x7d38>
 2c4:	73657079 	cmnvc	r5, #121	; 0x79
 2c8:	0200682e 	andeq	r6, r0, #3014656	; 0x2e0000
 2cc:	74730000 	ldrbtvc	r0, [r3], #-0
 2d0:	66656464 	strbtvs	r6, [r5], -r4, ror #8
 2d4:	0100682e 	tsteq	r0, lr, lsr #16
 2d8:	65720000 	ldrbvs	r0, [r2, #-0]!
 2dc:	2e746e65 	cdpcs	14, 7, cr6, cr4, cr5, {3}
 2e0:	00020068 	andeq	r0, r2, r8, rrx
 2e4:	69707200 	ldmdbvs	r0!, {r9, ip, sp, lr}^
 2e8:	0300682e 	movweq	r6, #2094	; 0x82e
 2ec:	70670000 	rsbvc	r0, r7, r0
 2f0:	682e6f69 	stmdavs	lr!, {r0, r3, r5, r6, r8, r9, sl, fp, sp, lr}
 2f4:	00000400 	andeq	r0, r0, r0, lsl #8
 2f8:	02050000 	andeq	r0, r5, #0
 2fc:	00008734 	andeq	r8, r0, r4, lsr r7
 300:	0100f303 	tsteq	r0, r3, lsl #6
 304:	2f2f2f13 	svccs	0x002f2f13
 308:	2e370330 	mrccs	3, 1, r0, cr7, cr0, {1}
 30c:	b5034c13 	strlt	r4, [r3, #-3091]	; 0xc13
 310:	1d032e01 	stcne	14, cr2, [r3, #-4]
 314:	7f8b032e 	svcvc	0x008b032e
 318:	0402002e 	streq	r0, [r2], #-46	; 0x2e
 31c:	02003004 	andeq	r3, r0, #4
 320:	82060504 	andhi	r0, r6, #4, 10	; 0x1000000
 324:	02040200 	andeq	r0, r4, #0, 4
 328:	04020082 	streq	r0, [r2], #-130	; 0x82
 32c:	02008203 	andeq	r8, r0, #805306368	; 0x30000000
 330:	06d60104 	ldrbeq	r0, [r6], r4, lsl #2
 334:	008484d9 	ldrdeq	r8, [r4], r9
 338:	46010402 	strmi	r0, [r1], -r2, lsl #8
 33c:	01040200 	mrseq	r0, R12_usr
 340:	7f9d03d8 	svcvc	0x009d03d8
 344:	4b2fe408 	blmi	bf936c <__bss_end__+0xbeee0c>
 348:	2f2e2d03 	svccs	0x002e2d03
 34c:	8f033467 	svchi	0x00033467
 350:	4b2f9e7f 	blmi	be7d54 <__bss_end__+0xbdd7f4>
 354:	2e00f203 	cdpcs	2, 0, cr15, cr0, cr3, {0}
 358:	04020083 	streq	r0, [r2], #-131	; 0x83
 35c:	02003104 	andeq	r3, r0, #4, 2
 360:	82060504 	andhi	r0, r6, #4, 10	; 0x1000000
 364:	02040200 	andeq	r0, r4, #0, 4
 368:	04020082 	streq	r0, [r2], #-130	; 0x82
 36c:	02008203 	andeq	r8, r0, #805306368	; 0x30000000
 370:	06d60104 	ldrbeq	r0, [r6], r4, lsl #2
 374:	4b3184d9 	blmi	c616e0 <__bss_end__+0xc57180>
 378:	68684b69 	stmdavs	r8!, {r0, r3, r5, r6, r8, r9, fp, lr}^
 37c:	02004b2f 	andeq	r4, r0, #48128	; 0xbc00
 380:	006e0404 	rsbeq	r0, lr, r4, lsl #8
 384:	06050402 	streq	r0, [r5], -r2, lsl #8
 388:	04020082 	streq	r0, [r2], #-130	; 0x82
 38c:	02008202 	andeq	r8, r0, #536870912	; 0x20000000
 390:	00820304 	addeq	r0, r2, r4, lsl #6
 394:	06010402 	streq	r0, [r1], -r2, lsl #8
 398:	00d66803 	sbcseq	r6, r6, r3, lsl #16
 39c:	db010402 	blle	413ac <__bss_end__+0x36e4c>
 3a0:	01040200 	mrseq	r0, R12_usr
 3a4:	040200da 	streq	r0, [r2], #-218	; 0xda
 3a8:	d60f0301 	strle	r0, [pc], -r1, lsl #6
 3ac:	080f03d7 	stmdaeq	pc, {r0, r1, r2, r4, r6, r7, r8, r9}	; <UNPREDICTABLE>
 3b0:	00686774 	rsbeq	r6, r8, r4, ror r7
 3b4:	4c010402 	cfstrsmi	mvf0, [r1], {2}
 3b8:	02040200 	andeq	r0, r4, #0, 4
 3bc:	040200d9 	streq	r0, [r2], #-217	; 0xd9
 3c0:	02006102 	andeq	r6, r0, #-2147483648	; 0x80000000
 3c4:	2e060104 	adfcss	f0, f6, f4
 3c8:	04040200 	streq	r0, [r4], #-512	; 0x200
 3cc:	02004c06 	andeq	r4, r0, #1536	; 0x600
 3d0:	82060504 	andhi	r0, r6, #4, 10	; 0x1000000
 3d4:	02040200 	andeq	r0, r4, #0, 4
 3d8:	04020082 	streq	r0, [r2], #-130	; 0x82
 3dc:	dc068203 	sfmle	f0, 1, [r6], {3}
 3e0:	6967f530 	stmdbvs	r7!, {r4, r5, r8, sl, ip, sp, lr, pc}^
 3e4:	01040200 	mrseq	r0, R12_usr
 3e8:	0402004c 	streq	r0, [r2], #-76	; 0x4c
 3ec:	0200d902 	andeq	sp, r0, #32768	; 0x8000
 3f0:	00610204 	rsbeq	r0, r1, r4, lsl #4
 3f4:	06010402 	streq	r0, [r1], -r2, lsl #8
 3f8:	0402002e 	streq	r0, [r2], #-46	; 0x2e
 3fc:	004c0604 	subeq	r0, ip, r4, lsl #12
 400:	06050402 	streq	r0, [r5], -r2, lsl #8
 404:	04020082 	streq	r0, [r2], #-130	; 0x82
 408:	02008202 	andeq	r8, r0, #536870912	; 0x20000000
 40c:	06820304 	streq	r0, [r2], r4, lsl #6
 410:	14db30dc 	ldrbne	r3, [fp], #220	; 0xdc
 414:	32302f8a 	eorscc	r2, r0, #552	; 0x228
 418:	84346867 	ldrthi	r6, [r4], #-2151	; 0x867
 41c:	682f3030 	stmdavs	pc!, {r4, r5, ip, sp}	; <UNPREDICTABLE>
 420:	01040200 	mrseq	r0, R12_usr
 424:	08620380 	stmdaeq	r2!, {r7, r8, r9}^
 428:	02682f90 	rsbeq	r2, r8, #144, 30	; 0x240
 42c:	01010004 	tsteq	r1, r4
 430:	00000102 	andeq	r0, r0, r2, lsl #2
 434:	00eb0002 	rsceq	r0, fp, r2
 438:	01020000 	mrseq	r0, (UNDEF: 2)
 43c:	000d0efb 	strdeq	r0, [sp], -fp
 440:	01010101 	tsteq	r1, r1, lsl #2
 444:	01000000 	mrseq	r0, (UNDEF: 0)
 448:	6c010000 	stcvs	0, cr0, [r1], {-0}
 44c:	00636269 	rsbeq	r6, r3, r9, ror #4
 450:	7273752f 	rsbsvc	r7, r3, #197132288	; 0xbc00000
 454:	636f6c2f 	cmnvs	pc, #12032	; 0x2f00
 458:	432f6c61 	teqmi	pc, #24832	; 0x6100
 45c:	616c6c65 	cmnvs	ip, r5, ror #24
 460:	72612f72 	rsbvc	r2, r1, #456	; 0x1c8
 464:	6f6e2d6d 	svcvs	0x006e2d6d
 468:	652d656e 	strvs	r6, [sp, #-1390]!	; 0x56e
 46c:	2f696261 	svccs	0x00696261
 470:	2e382e34 	mrccs	14, 1, r2, cr8, cr4, {1}
 474:	73632d33 	cmnvc	r3, #3264	; 0xcc0
 478:	65303731 	ldrvs	r3, [r0, #-1841]!	; 0x731
 47c:	62696c2f 	rsbvs	r6, r9, #12032	; 0x2f00
 480:	6363672f 	cmnvs	r3, #12320768	; 0xbc0000
 484:	6d72612f 	ldfvse	f6, [r2, #-188]!	; 0xffffff44
 488:	6e6f6e2d 	cdpvs	14, 6, cr6, cr15, cr13, {1}
 48c:	61652d65 	cmnvs	r5, r5, ror #26
 490:	342f6962 	strtcc	r6, [pc], #-2402	; 498 <_start-0x7b68>
 494:	332e382e 	teqcc	lr, #3014656	; 0x2e0000
 498:	636e692f 	cmnvs	lr, #770048	; 0xbc000
 49c:	6564756c 	strbvs	r7, [r4, #-1388]!	; 0x56c
 4a0:	73552f00 	cmpvc	r5, #0, 30
 4a4:	2f737265 	svccs	0x00737265
 4a8:	61697262 	cmnvs	r9, r2, ror #4
 4ac:	6e756a6e 	vsubvs.f32	s13, s10, s29
 4b0:	7365442f 	cmnvc	r5, #788529152	; 0x2f000000
 4b4:	706f746b 	rsbvc	r7, pc, fp, ror #8
 4b8:	6863732f 	stmdavs	r3!, {r0, r1, r2, r3, r5, r8, r9, ip, sp, lr}^
 4bc:	2f6c6f6f 	svccs	0x006c6f6f
 4c0:	746e6957 	strbtvc	r6, [lr], #-2391	; 0x957
 4c4:	39317265 	ldmdbcc	r1!, {r0, r2, r5, r6, r9, ip, sp, lr}
 4c8:	432f3032 	teqmi	pc, #50	; 0x32
 4cc:	30343153 	eorscc	r3, r4, r3, asr r1
 4d0:	73632f45 	cmnvc	r3, #276	; 0x114
 4d4:	65303431 	ldrvs	r3, [r0, #-1073]!	; 0x431
 4d8:	7730322d 	ldrvc	r3, [r0, -sp, lsr #4]!
 4dc:	6c2f6e69 	stcvs	14, cr6, [pc], #-420	; 340 <_start-0x7cc0>
 4e0:	69706269 	ldmdbvs	r0!, {r0, r3, r5, r6, r9, sp, lr}^
 4e4:	72700000 	rsbsvc	r0, r0, #0
 4e8:	6b746e69 	blvs	1d1be94 <__bss_end__+0x1d11934>
 4ec:	0100632e 	tsteq	r0, lr, lsr #6
 4f0:	74730000 	ldrbtvc	r0, [r3], #-0
 4f4:	67726164 	ldrbvs	r6, [r2, -r4, ror #2]!
 4f8:	0200682e 	andeq	r6, r0, #3014656	; 0x2e0000
 4fc:	623c0000 	eorsvs	r0, ip, #0
 500:	746c6975 	strbtvc	r6, [ip], #-2421	; 0x975
 504:	3e6e692d 	cdpcc	9, 6, cr6, cr14, cr13, {1}
 508:	00000000 	andeq	r0, r0, r0
 50c:	2e697072 	mcrcs	0, 3, r7, cr9, cr2, {3}
 510:	00030068 	andeq	r0, r3, r8, rrx
 514:	2d617600 	stclcs	6, cr7, [r1, #-0]
 518:	6e697270 	mcrvs	2, 3, r7, cr9, cr0, {3}
 51c:	682e6b74 	stmdavs	lr!, {r2, r4, r5, r6, r8, r9, fp, sp, lr}
 520:	00000100 	andeq	r0, r0, r0, lsl #2
 524:	02050000 	andeq	r0, r5, #0
 528:	00008c9c 	muleq	r0, ip, ip
 52c:	bf4b6b17 	svclt	0x004b6b17
 530:	000e0289 	andeq	r0, lr, r9, lsl #5
 534:	008a0101 	addeq	r0, sl, r1, lsl #2
 538:	00020000 	andeq	r0, r2, r0
 53c:	00000072 	andeq	r0, r0, r2, ror r0
 540:	0efb0102 	cdpeq	1, 15, cr0, cr11, cr2, {0}
 544:	0101000d 	tsteq	r1, sp
 548:	00000101 	andeq	r0, r0, r1, lsl #2
 54c:	00000100 	andeq	r0, r0, r0, lsl #2
 550:	62696c01 	rsbvs	r6, r9, #256	; 0x100
 554:	552f0063 	strpl	r0, [pc, #-99]!	; 4f9 <_start-0x7b07>
 558:	73726573 	cmnvc	r2, #482344960	; 0x1cc00000
 55c:	6972622f 	ldmdbvs	r2!, {r0, r1, r2, r3, r5, r9, sp, lr}^
 560:	756a6e61 	strbvc	r6, [sl, #-3681]!	; 0xe61
 564:	65442f6e 	strbvs	r2, [r4, #-3950]	; 0xf6e
 568:	6f746b73 	svcvs	0x00746b73
 56c:	63732f70 	cmnvs	r3, #112, 30	; 0x1c0
 570:	6c6f6f68 	stclvs	15, cr6, [pc], #-416	; 3d8 <_start-0x7c28>
 574:	6e69572f 	cdpvs	7, 6, cr5, cr9, cr15, {1}
 578:	31726574 	cmncc	r2, r4, ror r5
 57c:	2f303239 	svccs	0x00303239
 580:	34315343 	ldrtcc	r5, [r1], #-835	; 0x343
 584:	632f4530 	teqvs	pc, #48, 10	; 0xc000000
 588:	30343173 	eorscc	r3, r4, r3, ror r1
 58c:	30322d65 	eorscc	r2, r2, r5, ror #26
 590:	2f6e6977 	svccs	0x006e6977
 594:	7062696c 	rsbvc	r6, r2, ip, ror #18
 598:	70000069 	andvc	r0, r0, r9, rrx
 59c:	68637475 	stmdavs	r3!, {r0, r2, r4, r5, r6, sl, ip, sp, lr}^
 5a0:	632e7261 	teqvs	lr, #268435462	; 0x10000006
 5a4:	00000100 	andeq	r0, r0, r0, lsl #2
 5a8:	2e697072 	mcrcs	0, 3, r7, cr9, cr2, {3}
 5ac:	00020068 	andeq	r0, r2, r8, rrx
 5b0:	05000000 	streq	r0, [r0, #-0]
 5b4:	008cf402 	addeq	pc, ip, r2, lsl #8
 5b8:	6b4a1400 	blvs	12855c0 <__bss_end__+0x127b060>
 5bc:	0213bc13 	andseq	fp, r3, #4864	; 0x1300
 5c0:	01010008 	tsteq	r1, r8
 5c4:	00000096 	muleq	r0, r6, r0
 5c8:	006f0002 	rsbeq	r0, pc, r2
 5cc:	01020000 	mrseq	r0, (UNDEF: 2)
 5d0:	000d0efb 	strdeq	r0, [sp], -fp
 5d4:	01010101 	tsteq	r1, r1, lsl #2
 5d8:	01000000 	mrseq	r0, (UNDEF: 0)
 5dc:	6c010000 	stcvs	0, cr0, [r1], {-0}
 5e0:	00636269 	rsbeq	r6, r3, r9, ror #4
 5e4:	6573552f 	ldrbvs	r5, [r3, #-1327]!	; 0x52f
 5e8:	622f7372 	eorvs	r7, pc, #-939524095	; 0xc8000001
 5ec:	6e616972 	mcrvs	9, 3, r6, cr1, cr2, {3}
 5f0:	2f6e756a 	svccs	0x006e756a
 5f4:	6b736544 	blvs	1cd9b0c <__bss_end__+0x1ccf5ac>
 5f8:	2f706f74 	svccs	0x00706f74
 5fc:	6f686373 	svcvs	0x00686373
 600:	572f6c6f 	strpl	r6, [pc, -pc, ror #24]!
 604:	65746e69 	ldrbvs	r6, [r4, #-3689]!	; 0xe69
 608:	32393172 	eorscc	r3, r9, #-2147483620	; 0x8000001c
 60c:	53432f30 	movtpl	r2, #16176	; 0x3f30
 610:	45303431 	ldrmi	r3, [r0, #-1073]!	; 0x431
 614:	3173632f 	cmncc	r3, pc, lsr #6
 618:	2d653034 	stclcs	0, cr3, [r5, #-208]!	; 0xffffff30
 61c:	69773032 	ldmdbvs	r7!, {r1, r4, r5, ip, sp}^
 620:	696c2f6e 	stmdbvs	ip!, {r1, r2, r3, r5, r6, r8, r9, sl, fp, sp}^
 624:	00697062 	rsbeq	r7, r9, r2, rrx
 628:	74757000 	ldrbtvc	r7, [r5], #-0
 62c:	00632e6b 	rsbeq	r2, r3, fp, ror #28
 630:	72000001 	andvc	r0, r0, #1
 634:	682e6970 	stmdavs	lr!, {r4, r5, r6, r8, fp, sp, lr}
 638:	00000200 	andeq	r0, r0, r0, lsl #4
 63c:	02050000 	andeq	r0, r5, #0
 640:	00008d30 	andeq	r8, r0, r0, lsr sp
 644:	002d4c15 	eoreq	r4, sp, r5, lsl ip
 648:	2f020402 	svccs	0x00020402
 64c:	02040200 	andeq	r0, r4, #0, 4
 650:	04020049 	streq	r0, [r2], #-73	; 0x49
 654:	062e0601 	strteq	r0, [lr], -r1, lsl #12
 658:	0006026b 	andeq	r0, r6, fp, ror #4
 65c:	01de0101 	bicseq	r0, lr, r1, lsl #2
 660:	00020000 	andeq	r0, r2, r0
 664:	000000df 	ldrdeq	r0, [r0], -pc	; <UNPREDICTABLE>
 668:	0efb0102 	cdpeq	1, 15, cr0, cr11, cr2, {0}
 66c:	0101000d 	tsteq	r1, sp
 670:	00000101 	andeq	r0, r0, r1, lsl #2
 674:	00000100 	andeq	r0, r0, r0, lsl #2
 678:	62696c01 	rsbvs	r6, r9, #256	; 0x100
 67c:	752f0063 	strvc	r0, [pc, #-99]!	; 621 <_start-0x79df>
 680:	6c2f7273 	sfmvs	f7, 4, [pc], #-460	; 4bc <_start-0x7b44>
 684:	6c61636f 	stclvs	3, cr6, [r1], #-444	; 0xfffffe44
 688:	6c65432f 	stclvs	3, cr4, [r5], #-188	; 0xffffff44
 68c:	2f72616c 	svccs	0x0072616c
 690:	2d6d7261 	sfmcs	f7, 2, [sp, #-388]!	; 0xfffffe7c
 694:	656e6f6e 	strbvs	r6, [lr, #-3950]!	; 0xf6e
 698:	6261652d 	rsbvs	r6, r1, #188743680	; 0xb400000
 69c:	2e342f69 	cdpcs	15, 3, cr2, cr4, cr9, {3}
 6a0:	2d332e38 	ldccs	14, cr2, [r3, #-224]!	; 0xffffff20
 6a4:	37317363 	ldrcc	r7, [r1, -r3, ror #6]!
 6a8:	6c2f6530 	cfstr32vs	mvfx6, [pc], #-192	; 5f0 <_start-0x7a10>
 6ac:	672f6269 	strvs	r6, [pc, -r9, ror #4]!
 6b0:	612f6363 	teqvs	pc, r3, ror #6
 6b4:	6e2d6d72 	mcrvs	13, 1, r6, cr13, cr2, {3}
 6b8:	2d656e6f 	stclcs	14, cr6, [r5, #-444]!	; 0xfffffe44
 6bc:	69626165 	stmdbvs	r2!, {r0, r2, r5, r6, r8, sp, lr}^
 6c0:	382e342f 	stmdacc	lr!, {r0, r1, r2, r3, r5, sl, ip, sp}
 6c4:	692f332e 	stmdbvs	pc!, {r1, r2, r3, r5, r8, r9, ip, sp}	; <UNPREDICTABLE>
 6c8:	756c636e 	strbvc	r6, [ip, #-878]!	; 0x36e
 6cc:	2f006564 	svccs	0x00006564
 6d0:	72657355 	rsbvc	r7, r5, #1409286145	; 0x54000001
 6d4:	72622f73 	rsbvc	r2, r2, #460	; 0x1cc
 6d8:	6a6e6169 	bvs	1b98c84 <__bss_end__+0x1b8e724>
 6dc:	442f6e75 	strtmi	r6, [pc], #-3701	; 6e4 <_start-0x791c>
 6e0:	746b7365 	strbtvc	r7, [fp], #-869	; 0x365
 6e4:	732f706f 	teqvc	pc, #111	; 0x6f
 6e8:	6f6f6863 	svcvs	0x006f6863
 6ec:	69572f6c 	ldmdbvs	r7, {r2, r3, r5, r6, r8, r9, sl, fp, sp}^
 6f0:	7265746e 	rsbvc	r7, r5, #1845493760	; 0x6e000000
 6f4:	30323931 	eorscc	r3, r2, r1, lsr r9
 6f8:	3153432f 	cmpcc	r3, pc, lsr #6
 6fc:	2f453034 	svccs	0x00453034
 700:	34317363 	ldrtcc	r7, [r1], #-867	; 0x363
 704:	322d6530 	eorcc	r6, sp, #48, 10	; 0xc000000
 708:	6e697730 	mcrvs	7, 3, r7, cr9, cr0, {1}
 70c:	62696c2f 	rsbvs	r6, r9, #12032	; 0x2f00
 710:	00006970 	andeq	r6, r0, r0, ror r9
 714:	702d6176 	eorvc	r6, sp, r6, ror r1
 718:	746e6972 	strbtvc	r6, [lr], #-2418	; 0x972
 71c:	00632e6b 	rsbeq	r2, r3, fp, ror #28
 720:	73000001 	movwvc	r0, #1
 724:	72616474 	rsbvc	r6, r1, #116, 8	; 0x74000000
 728:	00682e67 	rsbeq	r2, r8, r7, ror #28
 72c:	72000002 	andvc	r0, r0, #2
 730:	682e6970 	stmdavs	lr!, {r4, r5, r6, r8, fp, sp, lr}
 734:	00000300 	andeq	r0, r0, r0, lsl #6
 738:	6975623c 	ldmdbvs	r5!, {r2, r3, r4, r5, r9, sp, lr}^
 73c:	692d746c 	pushvs	{r2, r3, r5, r6, sl, ip, sp, lr}
 740:	00003e6e 	andeq	r3, r0, lr, ror #28
 744:	00000000 	andeq	r0, r0, r0
 748:	8d640205 	sfmhi	f0, 2, [r4, #-20]!	; 0xffffffec
 74c:	26030000 	strcs	r0, [r3], -r0
 750:	13a50101 			; <UNDEFINED> instruction: 0x13a50101
 754:	02002d31 	andeq	r2, r0, #3136	; 0xc40
 758:	002f0204 	eoreq	r0, pc, r4, lsl #4
 75c:	2d020402 	cfstrscs	mvf0, [r2, #-8]
 760:	02040200 	andeq	r0, r4, #0, 4
 764:	0402002f 	streq	r0, [r2], #-47	; 0x2f
 768:	4c4c2d01 	mcrrmi	13, 0, r2, ip, cr1
 76c:	2f4b1430 	svccs	0x004b1430
 770:	0402004f 	streq	r0, [r2], #-79	; 0x4f
 774:	02006702 	andeq	r6, r0, #524288	; 0x80000
 778:	4c650104 	stfmie	f0, [r5], #-16
 77c:	2fa0304d 	svccs	0x00a0304d
 780:	26023031 			; <UNDEFINED> instruction: 0x26023031
 784:	2c2d8416 	cfstrscs	mvf8, [sp], #-88	; 0xffffffa8
 788:	01040200 	mrseq	r0, R12_usr
 78c:	04020030 	streq	r0, [r2], #-48	; 0x30
 790:	66063301 	strvs	r3, [r6], -r1, lsl #6
 794:	01040200 	mrseq	r0, R12_usr
 798:	0402002e 	streq	r0, [r2], #-46	; 0x2e
 79c:	21080601 	tstcs	r8, r1, lsl #12
 7a0:	73032f67 	movwvc	r2, #16231	; 0x3f67
 7a4:	2e130382 	cdpcs	3, 1, cr0, cr3, cr2, {4}
 7a8:	01040200 	mrseq	r0, R12_usr
 7ac:	02002e06 	andeq	r2, r0, #6, 28	; 0x60
 7b0:	9f060104 	svcls	0x00060104
 7b4:	67034b6a 	strvs	r4, [r3, -sl, ror #22]
 7b8:	2e21032e 	cdpcs	3, 2, cr0, cr1, cr14, {1}
 7bc:	01040200 	mrseq	r0, R12_usr
 7c0:	02002e06 	andeq	r2, r0, #6, 28	; 0x60
 7c4:	9f060104 	svcls	0x00060104
 7c8:	01040200 	mrseq	r0, R12_usr
 7cc:	03f3d96a 	mvnseq	sp, #1736704	; 0x1a8000
 7d0:	20087fa6 	andcs	r7, r8, r6, lsr #31
 7d4:	0402002f 	streq	r0, [r2], #-47	; 0x2f
 7d8:	064a0601 	strbeq	r0, [sl], -r1, lsl #12
 7dc:	032f4bd7 	teqeq	pc, #220160	; 0x35c00
 7e0:	83f200da 	mvnshi	r0, #218	; 0xda
 7e4:	0e03484c 	cdpeq	8, 0, cr4, cr3, cr12, {2}
 7e8:	2e75032e 	cdpcs	3, 7, cr0, cr5, cr14, {1}
 7ec:	4b842f2f 	blmi	fe10c4b0 <__bss_end__+0xfe101f50>
 7f0:	314d2d2f 	cmpcc	sp, pc, lsr #26
 7f4:	00832f30 	addeq	r2, r3, r0, lsr pc
 7f8:	2c010402 	cfstrscs	mvf0, [r1], {2}
 7fc:	040200a2 	streq	r0, [r2], #-162	; 0xa2
 800:	064a0601 	strbeq	r0, [sl], -r1, lsl #12
 804:	163602d8 			; <UNDEFINED> instruction: 0x163602d8
 808:	08d60e03 	ldmeq	r6, {r0, r1, r9, sl, fp}^
 80c:	31f33021 	mvnscc	r3, r1, lsr #32
 810:	30f330f3 	ldrshtcc	r3, [r3], #3
 814:	30f3304b 	rscscc	r3, r3, fp, asr #32
 818:	2f312308 	svccs	0x00312308
 81c:	01040200 	mrseq	r0, R12_usr
 820:	04020065 	streq	r0, [r2], #-101	; 0x65
 824:	004a0602 	subeq	r0, sl, r2, lsl #12
 828:	06010402 	streq	r0, [r1], -r2, lsl #8
 82c:	00664203 	rsbeq	r4, r6, r3, lsl #4
 830:	06020402 	streq	r0, [r2], -r2, lsl #8
 834:	c2030666 	andgt	r0, r3, #106954752	; 0x6600000
 838:	02684a00 	rsbeq	r4, r8, #0, 20
 83c:	01010010 	tsteq	r1, r0, lsl r0
 840:	00000093 	muleq	r0, r3, r0
 844:	007d0002 	rsbseq	r0, sp, r2
 848:	01020000 	mrseq	r0, (UNDEF: 2)
 84c:	000d0efb 	strdeq	r0, [sp], -fp
 850:	01010101 	tsteq	r1, r1, lsl #2
 854:	01000000 	mrseq	r0, (UNDEF: 0)
 858:	63010000 	movwvs	r0, #4096	; 0x1000
 85c:	30343173 	eorscc	r3, r4, r3, ror r1
 860:	72732d65 	rsbsvc	r2, r3, #6464	; 0x1940
 864:	552f0063 	strpl	r0, [pc, #-99]!	; 809 <_start-0x77f7>
 868:	73726573 	cmnvc	r2, #482344960	; 0x1cc00000
 86c:	6972622f 	ldmdbvs	r2!, {r0, r1, r2, r3, r5, r9, sp, lr}^
 870:	756a6e61 	strbvc	r6, [sl, #-3681]!	; 0xe61
 874:	65442f6e 	strbvs	r2, [r4, #-3950]	; 0xf6e
 878:	6f746b73 	svcvs	0x00746b73
 87c:	63732f70 	cmnvs	r3, #112, 30	; 0x1c0
 880:	6c6f6f68 	stclvs	15, cr6, [pc], #-416	; 6e8 <_start-0x7918>
 884:	6e69572f 	cdpvs	7, 6, cr5, cr9, cr15, {1}
 888:	31726574 	cmncc	r2, r4, ror r5
 88c:	2f303239 	svccs	0x00303239
 890:	34315343 	ldrtcc	r5, [r1], #-835	; 0x343
 894:	632f4530 	teqvs	pc, #48, 10	; 0xc000000
 898:	30343173 	eorscc	r3, r4, r3, ror r1
 89c:	30322d65 	eorscc	r2, r2, r5, ror #26
 8a0:	2f6e6977 	svccs	0x006e6977
 8a4:	7062696c 	rsbvc	r6, r2, ip, ror #18
 8a8:	63000069 	movwvs	r0, #105	; 0x69
 8ac:	6e61656c 	cdpvs	5, 6, cr6, cr1, cr12, {3}
 8b0:	6265722d 	rsbvs	r7, r5, #-805306366	; 0xd0000002
 8b4:	2e746f6f 	cdpcs	15, 7, cr6, cr4, cr15, {3}
 8b8:	00010063 	andeq	r0, r1, r3, rrx
 8bc:	69707200 	ldmdbvs	r0!, {r9, ip, sp, lr}^
 8c0:	0200682e 	andeq	r6, r0, #3014656	; 0x2e0000
 8c4:	00000000 	andeq	r0, r0, r0
 8c8:	925c0205 	subsls	r0, ip, #1342177280	; 0x50000000
 8cc:	2f150000 	svccs	0x00150000
 8d0:	06024b83 	streq	r4, [r2], -r3, lsl #23
 8d4:	9a010100 	bls	40cdc <__bss_end__+0x3677c>
 8d8:	02000000 	andeq	r0, r0, #0
 8dc:	00007700 	andeq	r7, r0, r0, lsl #14
 8e0:	fb010200 	blx	410ea <__bss_end__+0x36b8a>
 8e4:	01000d0e 	tsteq	r0, lr, lsl #26
 8e8:	00010101 	andeq	r0, r1, r1, lsl #2
 8ec:	00010000 	andeq	r0, r1, r0
 8f0:	73630100 	cmnvc	r3, #0, 2
 8f4:	65303431 	ldrvs	r3, [r0, #-1073]!	; 0x431
 8f8:	6372732d 	cmnvs	r2, #-1275068416	; 0xb4000000
 8fc:	73552f00 	cmpvc	r5, #0, 30
 900:	2f737265 	svccs	0x00737265
 904:	61697262 	cmnvs	r9, r2, ror #4
 908:	6e756a6e 	vsubvs.f32	s13, s10, s29
 90c:	7365442f 	cmnvc	r5, #788529152	; 0x2f000000
 910:	706f746b 	rsbvc	r7, pc, fp, ror #8
 914:	6863732f 	stmdavs	r3!, {r0, r1, r2, r3, r5, r8, r9, ip, sp, lr}^
 918:	2f6c6f6f 	svccs	0x006c6f6f
 91c:	746e6957 	strbtvc	r6, [lr], #-2391	; 0x957
 920:	39317265 	ldmdbcc	r1!, {r0, r2, r5, r6, r9, ip, sp, lr}
 924:	432f3032 	teqmi	pc, #50	; 0x32
 928:	30343153 	eorscc	r3, r4, r3, asr r1
 92c:	73632f45 	cmnvc	r3, #276	; 0x114
 930:	65303431 	ldrvs	r3, [r0, #-1073]!	; 0x431
 934:	7730322d 	ldrvc	r3, [r0, -sp, lsr #4]!
 938:	6c2f6e69 	stcvs	14, cr6, [pc], #-420	; 79c <_start-0x7864>
 93c:	69706269 	ldmdbvs	r0!, {r0, r3, r5, r6, r9, sp, lr}^
 940:	73630000 	cmnvc	r3, #0
 944:	74726174 	ldrbtvc	r6, [r2], #-372	; 0x174
 948:	0100632e 	tsteq	r0, lr, lsr #6
 94c:	70720000 	rsbsvc	r0, r2, r0
 950:	00682e69 	rsbeq	r2, r8, r9, ror #28
 954:	00000002 	andeq	r0, r0, r2
 958:	84020500 	strhi	r0, [r2], #-1280	; 0x500
 95c:	03000092 	movweq	r0, #146	; 0x92
 960:	3132010c 	teqcc	r2, ip, lsl #2
 964:	002f2d2f 	eoreq	r2, pc, pc, lsr #26
 968:	49010402 	stmdbmi	r1, {r1, sl}
 96c:	2f4a0f03 	svccs	0x004a0f03
 970:	01000602 	tsteq	r0, r2, lsl #12
 974:	00009901 	andeq	r9, r0, r1, lsl #18
 978:	77000200 	strvc	r0, [r0, -r0, lsl #4]
 97c:	02000000 	andeq	r0, r0, #0
 980:	0d0efb01 	vstreq	d15, [lr, #-4]
 984:	01010100 	mrseq	r0, (UNDEF: 17)
 988:	00000001 	andeq	r0, r0, r1
 98c:	01000001 	tsteq	r0, r1
 990:	34317363 	ldrtcc	r7, [r1], #-867	; 0x363
 994:	732d6530 	teqvc	sp, #48, 10	; 0xc000000
 998:	2f006372 	svccs	0x00006372
 99c:	72657355 	rsbvc	r7, r5, #1409286145	; 0x54000001
 9a0:	72622f73 	rsbvc	r2, r2, #460	; 0x1cc
 9a4:	6a6e6169 	bvs	1b98f50 <__bss_end__+0x1b8e9f0>
 9a8:	442f6e75 	strtmi	r6, [pc], #-3701	; 9b0 <_start-0x7650>
 9ac:	746b7365 	strbtvc	r7, [fp], #-869	; 0x365
 9b0:	732f706f 	teqvc	pc, #111	; 0x6f
 9b4:	6f6f6863 	svcvs	0x006f6863
 9b8:	69572f6c 	ldmdbvs	r7, {r2, r3, r5, r6, r8, r9, sl, fp, sp}^
 9bc:	7265746e 	rsbvc	r7, r5, #1845493760	; 0x6e000000
 9c0:	30323931 	eorscc	r3, r2, r1, lsr r9
 9c4:	3153432f 	cmpcc	r3, pc, lsr #6
 9c8:	2f453034 	svccs	0x00453034
 9cc:	34317363 	ldrtcc	r7, [r1], #-867	; 0x363
 9d0:	322d6530 	eorcc	r6, sp, #48, 10	; 0xc000000
 9d4:	6e697730 	mcrvs	7, 3, r7, cr9, cr0, {1}
 9d8:	62696c2f 	rsbvs	r6, r9, #12032	; 0x2f00
 9dc:	00006970 	andeq	r6, r0, r0, ror r9
 9e0:	6f626572 	svcvs	0x00626572
 9e4:	632e746f 	teqvs	lr, #1862270976	; 0x6f000000
 9e8:	00000100 	andeq	r0, r0, r0, lsl #2
 9ec:	2e697072 	mcrcs	0, 3, r7, cr9, cr2, {3}
 9f0:	00020068 	andeq	r0, r2, r8, rrx
 9f4:	05000000 	streq	r0, [r0, #-0]
 9f8:	0092b802 	addseq	fp, r2, r2, lsl #16
 9fc:	010d0300 	mrseq	r0, SP_mon
 a00:	852f3114 	strhi	r3, [pc, #-276]!	; 8f4 <_start-0x770c>
 a04:	4d4b2f15 	stclmi	15, cr2, [fp, #-84]	; 0xffffffac
 a08:	5235672f 	eorspl	r6, r5, #12320768	; 0xbc0000
 a0c:	00100267 	andseq	r0, r0, r7, ror #4
 a10:	00a30101 	adceq	r0, r3, r1, lsl #2
 a14:	00020000 	andeq	r0, r2, r0
 a18:	00000076 	andeq	r0, r0, r6, ror r0
 a1c:	0efb0102 	cdpeq	1, 15, cr0, cr11, cr2, {0}
 a20:	0101000d 	tsteq	r1, sp
 a24:	00000101 	andeq	r0, r0, r1, lsl #2
 a28:	00000100 	andeq	r0, r0, r0, lsl #2
 a2c:	31736301 	cmncc	r3, r1, lsl #6
 a30:	2d653034 	stclcs	0, cr3, [r5, #-208]!	; 0xffffff30
 a34:	00637273 	rsbeq	r7, r3, r3, ror r2
 a38:	6573552f 	ldrbvs	r5, [r3, #-1327]!	; 0x52f
 a3c:	622f7372 	eorvs	r7, pc, #-939524095	; 0xc8000001
 a40:	6e616972 	mcrvs	9, 3, r6, cr1, cr2, {3}
 a44:	2f6e756a 	svccs	0x006e756a
 a48:	6b736544 	blvs	1cd9f60 <__bss_end__+0x1ccfa00>
 a4c:	2f706f74 	svccs	0x00706f74
 a50:	6f686373 	svcvs	0x00686373
 a54:	572f6c6f 	strpl	r6, [pc, -pc, ror #24]!
 a58:	65746e69 	ldrbvs	r6, [r4, #-3689]!	; 0xe69
 a5c:	32393172 	eorscc	r3, r9, #-2147483620	; 0x8000001c
 a60:	53432f30 	movtpl	r2, #16176	; 0x3f30
 a64:	45303431 	ldrmi	r3, [r0, #-1073]!	; 0x431
 a68:	3173632f 	cmncc	r3, pc, lsr #6
 a6c:	2d653034 	stclcs	0, cr3, [r5, #-208]!	; 0xffffff30
 a70:	69773032 	ldmdbvs	r7!, {r1, r4, r5, ip, sp}^
 a74:	696c2f6e 	stmdbvs	ip!, {r1, r2, r3, r5, r6, r8, r9, sl, fp, sp}^
 a78:	00697062 	rsbeq	r7, r9, r2, rrx
 a7c:	6d697400 	cfstrdvs	mvd7, [r9, #-0]
 a80:	632e7265 	teqvs	lr, #1342177286	; 0x50000006
 a84:	00000100 	andeq	r0, r0, r0, lsl #2
 a88:	2e697072 	mcrcs	0, 3, r7, cr9, cr2, {3}
 a8c:	00020068 	andeq	r0, r2, r8, rrx
 a90:	05000000 	streq	r0, [r0, #-0]
 a94:	00932c02 	addseq	r2, r3, r2, lsl #24
 a98:	2f141600 	svccs	0x00141600
 a9c:	0402002d 	streq	r0, [r2], #-45	; 0x2d
 aa0:	062e0601 	strteq	r0, [lr], -r1, lsl #12
 aa4:	4b2f316d 	blmi	bcd060 <__bss_end__+0xbc2b00>
 aa8:	3031324d 	eorscc	r3, r1, sp, asr #4
 aac:	6a2f4c4b 	bvs	bd3be0 <__bss_end__+0xbc9680>
 ab0:	2f842f2f 	svccs	0x00842f2f
 ab4:	01000802 	tsteq	r0, r2, lsl #16
 ab8:	00017f01 	andeq	r7, r1, r1, lsl #30
 abc:	ca000200 	bgt	12c4 <_start-0x6d3c>
 ac0:	02000000 	andeq	r0, r0, #0
 ac4:	0d0efb01 	vstreq	d15, [lr, #-4]
 ac8:	01010100 	mrseq	r0, (UNDEF: 17)
 acc:	00000001 	andeq	r0, r0, r1
 ad0:	01000001 	tsteq	r0, r1
 ad4:	732d796d 	teqvc	sp, #1785856	; 0x1b4000
 ad8:	2f006372 	svccs	0x00006372
 adc:	72657355 	rsbvc	r7, r5, #1409286145	; 0x54000001
 ae0:	72622f73 	rsbvc	r2, r2, #460	; 0x1cc
 ae4:	6a6e6169 	bvs	1b99090 <__bss_end__+0x1b8eb30>
 ae8:	442f6e75 	strtmi	r6, [pc], #-3701	; af0 <_start-0x7510>
 aec:	746b7365 	strbtvc	r7, [fp], #-869	; 0x365
 af0:	732f706f 	teqvc	pc, #111	; 0x6f
 af4:	6f6f6863 	svcvs	0x006f6863
 af8:	69572f6c 	ldmdbvs	r7, {r2, r3, r5, r6, r8, r9, sl, fp, sp}^
 afc:	7265746e 	rsbvc	r7, r5, #1845493760	; 0x6e000000
 b00:	30323931 	eorscc	r3, r2, r1, lsr r9
 b04:	3153432f 	cmpcc	r3, pc, lsr #6
 b08:	2f453034 	svccs	0x00453034
 b0c:	34317363 	ldrtcc	r7, [r1], #-867	; 0x363
 b10:	322d6530 	eorcc	r6, sp, #48, 10	; 0xc000000
 b14:	6e697730 	mcrvs	7, 3, r7, cr9, cr0, {1}
 b18:	62696c2f 	rsbvs	r6, r9, #12032	; 0x2f00
 b1c:	632f6970 	teqvs	pc, #112, 18	; 0x1c0000
 b20:	30343173 	eorscc	r3, r4, r3, ror r1
 b24:	72732d65 	rsbsvc	r2, r3, #6464	; 0x1940
 b28:	552f0063 	strpl	r0, [pc, #-99]!	; acd <_start-0x7533>
 b2c:	73726573 	cmnvc	r2, #482344960	; 0x1cc00000
 b30:	6972622f 	ldmdbvs	r2!, {r0, r1, r2, r3, r5, r9, sp, lr}^
 b34:	756a6e61 	strbvc	r6, [sl, #-3681]!	; 0xe61
 b38:	65442f6e 	strbvs	r2, [r4, #-3950]	; 0xf6e
 b3c:	6f746b73 	svcvs	0x00746b73
 b40:	63732f70 	cmnvs	r3, #112, 30	; 0x1c0
 b44:	6c6f6f68 	stclvs	15, cr6, [pc], #-416	; 9ac <_start-0x7654>
 b48:	6e69572f 	cdpvs	7, 6, cr5, cr9, cr15, {1}
 b4c:	31726574 	cmncc	r2, r4, ror r5
 b50:	2f303239 	svccs	0x00303239
 b54:	34315343 	ldrtcc	r5, [r1], #-835	; 0x343
 b58:	632f4530 	teqvs	pc, #48, 10	; 0xc000000
 b5c:	30343173 	eorscc	r3, r4, r3, ror r1
 b60:	30322d65 	eorscc	r2, r2, r5, ror #26
 b64:	2f6e6977 	svccs	0x006e6977
 b68:	7062696c 	rsbvc	r6, r2, ip, ror #18
 b6c:	67000069 	strvs	r0, [r0, -r9, rrx]
 b70:	2e6f6970 	mcrcs	9, 3, r6, cr15, cr0, {3}
 b74:	00010063 	andeq	r0, r1, r3, rrx
 b78:	69706700 	ldmdbvs	r0!, {r8, r9, sl, sp, lr}^
 b7c:	00682e6f 	rsbeq	r2, r8, pc, ror #28
 b80:	72000002 	andvc	r0, r0, #2
 b84:	682e6970 	stmdavs	lr!, {r4, r5, r6, r8, fp, sp, lr}
 b88:	00000300 	andeq	r0, r0, r0, lsl #6
 b8c:	02050000 	andeq	r0, r5, #0
 b90:	000093b4 			; <UNDEFINED> instruction: 0x000093b4
 b94:	4e013e03 	cdpmi	14, 0, cr3, cr1, cr3, {0}
 b98:	21086950 	tstcs	r8, r0, asr r9
 b9c:	67676767 	strbvs	r6, [r7, -r7, ror #14]!
 ba0:	4b326767 	blmi	c9a944 <__bss_end__+0xc903e4>
 ba4:	31dc2208 	bicscc	r2, ip, r8, lsl #4
 ba8:	504e1351 	subpl	r1, lr, r1, asr r3
 bac:	5031be30 	eorspl	fp, r1, r0, lsr lr
 bb0:	304f4d13 	subcc	r4, pc, r3, lsl sp	; <UNPREDICTABLE>
 bb4:	69504cc0 	ldmdbvs	r0, {r6, r7, sl, fp, lr}^
 bb8:	67672108 	strbvs	r2, [r7, -r8, lsl #2]!
 bbc:	67676767 	strbvs	r6, [r7, -r7, ror #14]!
 bc0:	21084b32 	tstcs	r8, r2, lsr fp
 bc4:	2f504ca3 	svccs	0x00504ca3
 bc8:	75036984 	strvc	r6, [r3, #-2436]	; 0x984
 bcc:	2e0c0382 	cdpcs	3, 0, cr0, cr12, cr2, {4}
 bd0:	4b4e304d 	blmi	138cd0c <__bss_end__+0x13827ac>
 bd4:	6b6a4d4c 	blvs	1a9410c <__bss_end__+0x1a89bac>
 bd8:	67210869 	strvs	r0, [r1, -r9, ror #16]!
 bdc:	67676767 	strbvs	r6, [r7, -r7, ror #14]!
 be0:	084b3267 	stmdaeq	fp, {r0, r1, r2, r5, r6, r9, ip, sp}^
 be4:	5130c022 	teqpl	r0, r2, lsr #32
 be8:	30504e13 	subscc	r4, r0, r3, lsl lr
 bec:	31ba1803 			; <UNDEFINED> instruction: 0x31ba1803
 bf0:	522f4c9f 	eorpl	r4, pc, #40704	; 0x9f00
 bf4:	4b2f4e4d 	blmi	bd4530 <__bss_end__+0xbc9fd0>
 bf8:	67684b67 	strbvs	r4, [r8, -r7, ror #22]!
 bfc:	672f4c67 	strvs	r4, [pc, -r7, ror #24]!
 c00:	4c6e4b2f 	stclmi	11, cr4, [lr], #-188	; 0xffffff44
 c04:	674b2f4e 	strbvs	r2, [fp, -lr, asr #30]
 c08:	6767684b 	strbvs	r6, [r7, -fp, asr #16]!
 c0c:	2f672f4c 	svccs	0x00672f4c
 c10:	4e4b6d4b 	cdpmi	13, 4, cr6, cr11, cr11, {2}
 c14:	00674b2f 	rsbeq	r4, r7, pc, lsr #22
 c18:	06010402 	streq	r0, [r1], -r2, lsl #8
 c1c:	9f680666 	svcls	0x00680666
 c20:	0402002f 	streq	r0, [r2], #-47	; 0x2f
 c24:	064a0601 	strbeq	r0, [sl], -r1, lsl #12
 c28:	73032f68 	movwvc	r2, #16232	; 0x3f68
 c2c:	2e0e034a 	cdpcs	3, 0, cr0, cr14, cr10, {2}
 c30:	2f4e4c4d 	svccs	0x004e4c4d
 c34:	02bcbc4b 	adcseq	fp, ip, #19200	; 0x4b00
 c38:	01010006 	tsteq	r1, r6
 c3c:	00000101 	andeq	r0, r0, r1, lsl #2
 c40:	00ca0002 	sbceq	r0, sl, r2
 c44:	01020000 	mrseq	r0, (UNDEF: 2)
 c48:	000d0efb 	strdeq	r0, [sp], -fp
 c4c:	01010101 	tsteq	r1, r1, lsl #2
 c50:	01000000 	mrseq	r0, (UNDEF: 0)
 c54:	6d010000 	stcvs	0, cr0, [r1, #-0]
 c58:	72732d79 	rsbsvc	r2, r3, #7744	; 0x1e40
 c5c:	552f0063 	strpl	r0, [pc, #-99]!	; c01 <_start-0x73ff>
 c60:	73726573 	cmnvc	r2, #482344960	; 0x1cc00000
 c64:	6972622f 	ldmdbvs	r2!, {r0, r1, r2, r3, r5, r9, sp, lr}^
 c68:	756a6e61 	strbvc	r6, [sl, #-3681]!	; 0xe61
 c6c:	65442f6e 	strbvs	r2, [r4, #-3950]	; 0xf6e
 c70:	6f746b73 	svcvs	0x00746b73
 c74:	63732f70 	cmnvs	r3, #112, 30	; 0x1c0
 c78:	6c6f6f68 	stclvs	15, cr6, [pc], #-416	; ae0 <_start-0x7520>
 c7c:	6e69572f 	cdpvs	7, 6, cr5, cr9, cr15, {1}
 c80:	31726574 	cmncc	r2, r4, ror r5
 c84:	2f303239 	svccs	0x00303239
 c88:	34315343 	ldrtcc	r5, [r1], #-835	; 0x343
 c8c:	632f4530 	teqvs	pc, #48, 10	; 0xc000000
 c90:	30343173 	eorscc	r3, r4, r3, ror r1
 c94:	30322d65 	eorscc	r2, r2, r5, ror #26
 c98:	2f6e6977 	svccs	0x006e6977
 c9c:	7062696c 	rsbvc	r6, r2, ip, ror #18
 ca0:	73632f69 	cmnvc	r3, #420	; 0x1a4
 ca4:	65303431 	ldrvs	r3, [r0, #-1073]!	; 0x431
 ca8:	6372732d 	cmnvs	r2, #-1275068416	; 0xb4000000
 cac:	73552f00 	cmpvc	r5, #0, 30
 cb0:	2f737265 	svccs	0x00737265
 cb4:	61697262 	cmnvs	r9, r2, ror #4
 cb8:	6e756a6e 	vsubvs.f32	s13, s10, s29
 cbc:	7365442f 	cmnvc	r5, #788529152	; 0x2f000000
 cc0:	706f746b 	rsbvc	r7, pc, fp, ror #8
 cc4:	6863732f 	stmdavs	r3!, {r0, r1, r2, r3, r5, r8, r9, ip, sp, lr}^
 cc8:	2f6c6f6f 	svccs	0x006c6f6f
 ccc:	746e6957 	strbtvc	r6, [lr], #-2391	; 0x957
 cd0:	39317265 	ldmdbcc	r1!, {r0, r2, r5, r6, r9, ip, sp, lr}
 cd4:	432f3032 	teqmi	pc, #50	; 0x32
 cd8:	30343153 	eorscc	r3, r4, r3, asr r1
 cdc:	73632f45 	cmnvc	r3, #276	; 0x114
 ce0:	65303431 	ldrvs	r3, [r0, #-1073]!	; 0x431
 ce4:	7730322d 	ldrvc	r3, [r0, -sp, lsr #4]!
 ce8:	6c2f6e69 	stcvs	14, cr6, [pc], #-420	; b4c <_start-0x74b4>
 cec:	69706269 	ldmdbvs	r0!, {r0, r3, r5, r6, r9, sp, lr}^
 cf0:	61750000 	cmnvs	r5, r0
 cf4:	632e7472 	teqvs	lr, #1912602624	; 0x72000000
 cf8:	00000100 	andeq	r0, r0, r0, lsl #2
 cfc:	6f697067 	svcvs	0x00697067
 d00:	0200682e 	andeq	r6, r0, #3014656	; 0x2e0000
 d04:	70720000 	rsbsvc	r0, r2, r0
 d08:	00682e69 	rsbeq	r2, r8, r9, ror #28
 d0c:	00000003 	andeq	r0, r0, r3
 d10:	54020500 	strpl	r0, [r2], #-1280	; 0x500
 d14:	03000099 	movweq	r0, #153	; 0x99
 d18:	33300136 	teqcc	r0, #-2147483635	; 0x8000000d
 d1c:	d8306d67 	ldmdale	r0!, {r0, r1, r2, r5, r6, r8, sl, fp, sp, lr}
 d20:	67676730 			; <UNDEFINED> instruction: 0x67676730
 d24:	86686767 	strbthi	r6, [r8], -r7, ror #14
 d28:	306a672f 	rsbcc	r6, sl, pc, lsr #14
 d2c:	2f696767 	svccs	0x00696767
 d30:	674c6a67 	strbvs	r6, [ip, -r7, ror #20]
 d34:	302f2fc1 	eorcc	r2, pc, r1, asr #31
 d38:	3049682f 	subcc	r6, r9, pc, lsr #16
 d3c:	01000202 	tsteq	r0, r2, lsl #4
 d40:	Address 0x0000000000000d40 is out of bounds.


Disassembly of section .debug_str:

00000000 <.debug_str>:
       0:	5854554f 	ldmdapl	r4, {r0, r1, r2, r3, r6, r8, sl, ip, lr}^
       4:	475f4c5f 			; <UNDEFINED> instruction: 0x475f4c5f
       8:	52544300 	subspl	r4, r4, #0, 6
       c:	435f344c 	cmpmi	pc, #76, 8	; 0x4c000000
      10:	72796700 	rsbsvc	r6, r9, #0, 14
      14:	00632e6f 	rsbeq	r2, r3, pc, ror #28
      18:	366d736c 	strbtcc	r7, [sp], -ip, ror #6
      1c:	33337364 	teqcc	r3, #100, 6	; 0x90000001
      20:	3030355f 	eorscc	r3, r0, pc, asr r5
      24:	00737064 	rsbseq	r7, r3, r4, rrx
      28:	4f464946 	svcmi	0x00464946
      2c:	5254435f 	subspl	r4, r4, #2080374785	; 0x7c000001
      30:	4600314c 	strmi	r3, [r0], -ip, asr #2
      34:	5f4f4649 	svcpl	0x004f4649
      38:	4c525443 	cfldrdmi	mvd5, [r2], {67}	; 0x43
      3c:	49460032 	stmdbmi	r6, {r1, r4, r5}^
      40:	435f4f46 	cmpmi	pc, #280	; 0x118
      44:	334c5254 	movtcc	r5, #49748	; 0xc254
      48:	46494600 	strbmi	r4, [r9], -r0, lsl #12
      4c:	54435f4f 	strbpl	r5, [r3], #-3919	; 0xf4f
      50:	00344c52 	eorseq	r4, r4, r2, asr ip
      54:	4f464946 	svcmi	0x00464946
      58:	5254435f 	subspl	r4, r4, #2080374785	; 0x7c000001
      5c:	4300354c 	movwmi	r3, #1356	; 0x54c
      60:	394c5254 	stmdbcc	ip, {r2, r4, r6, r9, ip, lr}^
      64:	004c585f 	subeq	r5, ip, pc, asr r8
      68:	6d746f6e 	ldclvs	15, cr6, [r4, #-440]!	; 0xfffffe48
      6c:	006e6961 	rsbeq	r6, lr, r1, ror #18
      70:	74726175 	ldrbtvc	r6, [r2], #-373	; 0x175
      74:	696e695f 	stmdbvs	lr!, {r0, r1, r2, r3, r4, r6, r8, fp, sp, lr}^
      78:	6f6c0074 	svcvs	0x006c0074
      7c:	6c20676e 	stcvs	7, cr6, [r0], #-440	; 0xfffffe48
      80:	20676e6f 	rsbcs	r6, r7, pc, ror #28
      84:	69736e75 	ldmdbvs	r3!, {r0, r2, r4, r5, r6, r9, sl, fp, sp, lr}^
      88:	64656e67 	strbtvs	r6, [r5], #-3687	; 0xe67
      8c:	746e6920 	strbtvc	r6, [lr], #-2336	; 0x920
      90:	756d6900 	strbvc	r6, [sp, #-2304]!	; 0x900
      94:	5f64725f 	svcpl	0x0064725f
      98:	4157006e 	cmpmi	r7, lr, rrx
      9c:	555f454b 	ldrbpl	r4, [pc, #-1355]	; fffffb59 <__bss_end__+0xffff55f9>
      a0:	48545f50 	ldmdami	r4, {r4, r6, r8, r9, sl, fp, ip, lr}^
      a4:	79670053 	stmdbvc	r7!, {r0, r1, r4, r6}^
      a8:	735f6f72 	cmpvc	pc, #456	; 0x1c8
      ac:	656c6163 	strbvs	r6, [ip, #-355]!	; 0x163
      b0:	6e6f6c00 	cdpvs	12, 6, cr6, cr15, cr0, {0}
      b4:	6f6c2067 	svcvs	0x006c2067
      b8:	6920676e 	stmdbvs	r0!, {r1, r2, r3, r5, r6, r8, r9, sl, sp, lr}
      bc:	4f00746e 	svcmi	0x0000746e
      c0:	545f5455 	ldrbpl	r5, [pc], #-1109	; c8 <_start-0x7f38>
      c4:	5f504d45 	svcpl	0x00504d45
      c8:	79670048 	stmdbvc	r7!, {r3, r6}^
      cc:	725f6f72 	subsvc	r6, pc, #456	; 0x1c8
      d0:	554f0064 	strbpl	r0, [pc, #-100]	; 74 <_start-0x7f8c>
      d4:	45545f54 	ldrbmi	r5, [r4, #-3924]	; 0xf54
      d8:	4c5f504d 	mrrcmi	0, 4, r5, pc, cr13	; <UNPREDICTABLE>
      dc:	31444d00 	cmpcc	r4, r0, lsl #26
      e0:	4746435f 	smlsldmi	r4, r6, pc, r3	; <UNPREDICTABLE>
      e4:	72796700 	rsbsvc	r6, r9, #0, 14
      e8:	61685f6f 	cmnvs	r8, pc, ror #30
      ec:	61645f73 	smcvs	17907	; 0x45f3
      f0:	43006174 	movwmi	r6, #372	; 0x174
      f4:	334c5254 	movtcc	r5, #49748	; 0xc254
      f8:	5400435f 	strpl	r4, [r0], #-863	; 0x35f
      fc:	545f5041 	ldrbpl	r5, [pc], #-65	; 104 <_start-0x7efc>
     100:	365f5348 	ldrbcc	r5, [pc], -r8, asr #6
     104:	54530044 	ldrbpl	r0, [r3], #-68	; 0x44
     108:	545f5045 	ldrbpl	r5, [pc], #-69	; 110 <_start-0x7ef0>
     10c:	53454d49 	movtpl	r4, #23881	; 0x5d49
     110:	504d4154 	subpl	r4, sp, r4, asr r1
     114:	78004c5f 	stmdavc	r0, {r0, r1, r2, r3, r4, r6, sl, fp, lr}
     118:	6d5f7a79 	vldrvs	s15, [pc, #-484]	; ffffff3c <__bss_end__+0xffff59dc>
     11c:	6574006b 	ldrbvs	r0, [r4, #-107]!	; 0x6b
     120:	645f7473 	ldrbvs	r7, [pc], #-1139	; 128 <_start-0x7ed8>
     124:	76007370 			; <UNDEFINED> instruction: 0x76007370
     128:	00736c61 	rsbseq	r6, r3, r1, ror #24
     12c:	5954554f 	ldmdbpl	r4, {r0, r1, r2, r3, r6, r8, sl, ip, lr}^
     130:	585f4c5f 	ldmdapl	pc, {r0, r1, r2, r3, r4, r6, sl, fp, lr}^	; <UNPREDICTABLE>
     134:	554f004c 	strbpl	r0, [pc, #-76]	; f0 <_start-0x7f10>
     138:	4c5f5a54 	mrrcmi	10, 5, r5, pc, cr4	; <UNPREDICTABLE>
     13c:	5400475f 	strpl	r4, [r0], #-1887	; 0x75f
     140:	535f5041 	cmppl	pc, #65	; 0x41
     144:	6c004352 	stcvs	3, cr4, [r0], {82}	; 0x52
     148:	64366d73 	ldrtvs	r6, [r6], #-3443	; 0xd73
     14c:	5f333373 	svcpl	0x00333373
     150:	68383032 	ldmdavs	r8!, {r1, r4, r5, ip, sp}
     154:	554f007a 	strbpl	r0, [pc, #-122]	; e2 <_start-0x7f1e>
     158:	485f5854 	ldmdami	pc, {r2, r4, r6, fp, ip, lr}^	; <UNPREDICTABLE>
     15c:	004c585f 	subeq	r5, ip, pc, asr r8
     160:	366d736c 	strbtcc	r7, [sp], -ip, ror #6
     164:	33337364 	teqcc	r3, #100, 6	; 0x90000001
     168:	3030315f 	eorscc	r3, r0, pc, asr r1
     16c:	73706430 	cmnvc	r0, #48, 8	; 0x30000000
     170:	73616200 	cmnvc	r1, #0, 4
     174:	65725f65 	ldrbvs	r5, [r2, #-3941]!	; 0xf65
     178:	49540067 	ldmdbmi	r4, {r0, r1, r2, r5, r6}^
     17c:	5453454d 	ldrbpl	r4, [r3], #-1357	; 0x54d
     180:	31504d41 	cmpcc	r0, r1, asr #26
     184:	4745525f 	smlsldmi	r5, r5, pc, r2	; <UNPREDICTABLE>
     188:	6d736c00 	ldclvs	12, cr6, [r3, #-0]
     18c:	33736436 	cmncc	r3, #905969664	; 0x36000000
     190:	32355f33 	eorscc	r5, r5, #51, 30	; 0xcc
     194:	6d007a68 	vstrvs	s14, [r0, #-416]	; 0xfffffe60
     198:	5f737064 	svcpl	0x00737064
     19c:	00776172 	rsbseq	r6, r7, r2, ror r1
     1a0:	366d736c 	strbtcc	r7, [sp], -ip, ror #6
     1a4:	33337364 	teqcc	r3, #100, 6	; 0x90000001
     1a8:	3534325f 	ldrcc	r3, [r4, #-607]!	; 0x25f
     1ac:	00737064 	rsbseq	r7, r3, r4, rrx
     1b0:	5f633269 	svcpl	0x00633269
     1b4:	74696e69 	strbtvc	r6, [r9], #-3689	; 0xe69
     1b8:	61747300 	cmnvs	r4, r0, lsl #6
     1bc:	61765f74 	cmnvs	r6, r4, ror pc
     1c0:	5453006c 	ldrbpl	r0, [r3], #-108	; 0x6c
     1c4:	545f5045 	ldrbpl	r5, [pc], #-69	; 1cc <_start-0x7e34>
     1c8:	53454d49 	movtpl	r4, #23881	; 0x5d49
     1cc:	504d4154 	subpl	r4, sp, r4, asr r1
     1d0:	7200485f 	andvc	r4, r0, #6225920	; 0x5f0000
     1d4:	725f6970 	subsvc	r6, pc, #112, 18	; 0x1c0000
     1d8:	74657365 	strbtvc	r7, [r5], #-869	; 0x365
     1dc:	7475705f 	ldrbtvc	r7, [r5], #-95	; 0x5f
     1e0:	646d0063 	strbtvs	r0, [sp], #-99	; 0x63
     1e4:	735f7370 	cmpvc	pc, #112, 6	; 0xc0000001
     1e8:	656c6163 	strbvs	r6, [ip, #-355]!	; 0x163
     1ec:	49540064 	ldmdbmi	r4, {r2, r5, r6}^
     1f0:	5453454d 	ldrbpl	r4, [r3], #-1357	; 0x54d
     1f4:	30504d41 	subscc	r4, r0, r1, asr #26
     1f8:	4745525f 	smlsldmi	r5, r5, pc, r2	; <UNPREDICTABLE>
     1fc:	5f6f6400 	svcpl	0x006f6400
     200:	6f727967 	svcvs	0x00727967
     204:	7365745f 	cmnvc	r5, #1593835520	; 0x5f000000
     208:	54530074 	ldrbpl	r0, [r3], #-116	; 0x74
     20c:	53555441 	cmppl	r5, #1090519040	; 0x41000000
     210:	4745525f 	smlsldmi	r5, r5, pc, r2	; <UNPREDICTABLE>
     214:	70786500 	rsbsvc	r6, r8, r0, lsl #10
     218:	65746365 	ldrbvs	r6, [r4, #-869]!	; 0x365
     21c:	49460064 	stmdbmi	r6, {r2, r5, r6}^
     220:	535f4f46 	cmppl	pc, #280	; 0x118
     224:	55544154 	ldrbpl	r4, [r4, #-340]	; 0x154
     228:	46003153 			; <UNDEFINED> instruction: 0x46003153
     22c:	5f4f4649 	svcpl	0x004f4649
     230:	54415453 	strbpl	r5, [r1], #-1107	; 0x453
     234:	00325355 	eorseq	r5, r2, r5, asr r3
     238:	366d736c 	strbtcc	r7, [sp], -ip, ror #6
     23c:	33337364 	teqcc	r3, #100, 6	; 0x90000001
     240:	3430315f 	ldrtcc	r3, [r0], #-351	; 0x15f
     244:	46007a68 	strmi	r7, [r0], -r8, ror #20
     248:	5f4f4649 	svcpl	0x004f4649
     24c:	54415453 	strbpl	r5, [r1], #-1107	; 0x453
     250:	00345355 	eorseq	r5, r4, r5, asr r3
     254:	4c525443 	cfldrdmi	mvd5, [r2], {67}	; 0x43
     258:	00475f32 	subeq	r5, r7, r2, lsr pc
     25c:	7370646d 	cmnvc	r0, #1828716544	; 0x6d000000
     260:	6163735f 	cmnvs	r3, pc, asr r3
     264:	4f00656c 	svcmi	0x0000656c
     268:	5f5a5455 	svcpl	0x005a5455
     26c:	4c585f4c 	mrrcmi	15, 4, r5, r8, cr12
     270:	6d736c00 	ldclvs	12, cr6, [r3, #-0]
     274:	33736436 	cmncc	r3, #905969664	; 0x36000000
     278:	33335f33 	teqcc	r3, #51, 30	; 0xcc
     27c:	7a683033 	bvc	1a0c350 <__bss_end__+0x1a01df0>
     280:	6f687300 	svcvs	0x00687300
     284:	75207472 	strvc	r7, [r0, #-1138]!	; 0x472
     288:	6769736e 	strbvs	r7, [r9, -lr, ror #6]!
     28c:	2064656e 	rsbcs	r6, r4, lr, ror #10
     290:	00746e69 	rsbseq	r6, r4, r9, ror #28
     294:	5f633269 	svcpl	0x00633269
     298:	74697277 	strbtvc	r7, [r9], #-631	; 0x277
     29c:	656c0065 	strbvs	r0, [ip, #-101]!	; 0x65
     2a0:	5f6c6167 	svcpl	0x006c6167
     2a4:	00737064 	rsbseq	r7, r3, r4, rrx
     2a8:	4c525443 	cfldrdmi	mvd5, [r2], {67}	; 0x43
     2ac:	4c585f31 	mrrcmi	15, 3, r5, r8, cr1
     2b0:	52544300 	subspl	r4, r4, #0, 6
     2b4:	475f374c 	ldrbmi	r3, [pc, -ip, asr #14]
     2b8:	67657200 	strbvs	r7, [r5, -r0, lsl #4]!
     2bc:	72646441 	rsbvc	r6, r4, #1090519040	; 0x41000000
     2c0:	6d736c00 	ldclvs	12, cr6, [r3, #-0]
     2c4:	33736436 	cmncc	r3, #905969664	; 0x36000000
     2c8:	7a685f33 	bvc	1a17f9c <__bss_end__+0x1a0da3c>
     2cc:	5f00745f 	svcpl	0x0000745f
     2d0:	4e55465f 	mrcmi	6, 2, r4, cr5, cr15, {2}
     2d4:	4f495443 	svcmi	0x00495443
     2d8:	005f5f4e 	subseq	r5, pc, lr, asr #30
     2dc:	6f727967 	svcvs	0x00727967
     2e0:	6c00745f 	cfstrsvs	mvf7, [r0], {95}	; 0x5f
     2e4:	64366d73 	ldrtvs	r6, [r6], #-3443	; 0xd73
     2e8:	5f333373 	svcpl	0x00333373
     2ec:	0066666f 	rsbeq	r6, r6, pc, ror #12
     2f0:	657a6973 	ldrbvs	r6, [sl, #-2419]!	; 0x973
     2f4:	65707974 	ldrbvs	r7, [r0, #-2420]!	; 0x974
     2f8:	756d6900 	strbvc	r6, [sp, #-2304]!	; 0x900
     2fc:	0064725f 	rsbeq	r7, r4, pc, asr r2
     300:	31544e49 	cmpcc	r4, r9, asr #28
     304:	5254435f 	subspl	r4, r4, #2080374785	; 0x7c000001
     308:	4157004c 	cmpmi	r7, ip, asr #32
     30c:	555f454b 	ldrbpl	r4, [pc, #-1355]	; fffffdc9 <__bss_end__+0xffff5869>
     310:	52535f50 	subspl	r5, r3, #80, 30	; 0x140
     314:	736c0043 	cmnvc	ip, #67	; 0x43
     318:	7364366d 	cmnvc	r4, #114294784	; 0x6d00000
     31c:	315f3333 	cmpcc	pc, r3, lsr r3	; <UNPREDICTABLE>
     320:	007a6833 	rsbseq	r6, sl, r3, lsr r8
     324:	5f504154 	svcpl	0x00504154
     328:	00474643 	subeq	r4, r7, r3, asr #12
     32c:	5f756d69 	svcpl	0x00756d69
     330:	5f7a7978 	svcpl	0x007a7978
     334:	736c0074 	cmnvc	ip, #116	; 0x74
     338:	7364366d 	cmnvc	r4, #114294784	; 0x6d00000
     33c:	365f3333 			; <UNDEFINED> instruction: 0x365f3333
     340:	68303636 	ldmdavs	r0!, {r1, r2, r4, r5, r9, sl, ip, sp}
     344:	736c007a 	cmnvc	ip, #122	; 0x7a
     348:	7364366d 	cmnvc	r4, #114294784	; 0x6d00000
     34c:	385f3333 	ldmdacc	pc, {r0, r1, r4, r5, r8, r9, ip, sp}^	; <UNPREDICTABLE>
     350:	7a683333 	bvc	1a0d024 <__bss_end__+0x1a02ac4>
     354:	54554f00 	ldrbpl	r4, [r5], #-3840	; 0xf00
     358:	5f4c5f59 	svcpl	0x004c5f59
     35c:	54530047 	ldrbpl	r0, [r3], #-71	; 0x47
     360:	435f5045 	cmpmi	pc, #69	; 0x45
     364:	544e554f 	strbpl	r5, [lr], #-1359	; 0x54f
     368:	485f5245 	ldmdami	pc, {r0, r2, r6, r9, ip, lr}^	; <UNPREDICTABLE>
     36c:	736e7500 	cmnvc	lr, #0, 10
     370:	656e6769 	strbvs	r6, [lr, #-1897]!	; 0x769
     374:	68632064 	stmdavs	r3!, {r2, r5, r6, sp}^
     378:	53007261 	movwpl	r7, #609	; 0x261
     37c:	5f504554 	svcpl	0x00504554
     380:	4e554f43 	cdpmi	15, 5, cr4, cr5, cr3, {2}
     384:	5f524554 	svcpl	0x00524554
     388:	5443004c 	strbpl	r0, [r3], #-76	; 0x4c
     38c:	5f364c52 	svcpl	0x00364c52
     390:	552f0047 	strpl	r0, [pc, #-71]!	; 351 <_start-0x7caf>
     394:	73726573 	cmnvc	r2, #482344960	; 0x1cc00000
     398:	6972622f 	ldmdbvs	r2!, {r0, r1, r2, r3, r5, r9, sp, lr}^
     39c:	756a6e61 	strbvc	r6, [sl, #-3681]!	; 0xe61
     3a0:	65442f6e 	strbvs	r2, [r4, #-3950]	; 0xf6e
     3a4:	6f746b73 	svcvs	0x00746b73
     3a8:	63732f70 	cmnvs	r3, #112, 30	; 0x1c0
     3ac:	6c6f6f68 	stclvs	15, cr6, [pc], #-416	; 214 <_start-0x7dec>
     3b0:	7270532f 	rsbsvc	r5, r0, #-1140850688	; 0xbc000000
     3b4:	31676e69 	cmncc	r7, r9, ror #28
     3b8:	2f303239 	svccs	0x00303239
     3bc:	34325343 	ldrtcc	r5, [r2], #-835	; 0x343
     3c0:	2f584c30 	svccs	0x00584c30
     3c4:	34327363 	ldrtcc	r7, [r2], #-867	; 0x363
     3c8:	2d786c30 	ldclcs	12, cr6, [r8, #-192]!	; 0xffffff40
     3cc:	70733032 	rsbsvc	r3, r3, r2, lsr r0
     3d0:	616c2f72 	smcvs	49906	; 0xc2f2
     3d4:	382f7362 	stmdacc	pc!, {r1, r5, r6, r8, r9, ip, sp, lr}	; <UNPREDICTABLE>
     3d8:	6332692d 	teqvs	r2, #737280	; 0xb4000
     3dc:	6363612d 	cmnvs	r3, #1073741835	; 0x4000000b
     3e0:	632f6c65 	teqvs	pc, #25856	; 0x6500
     3e4:	0065646f 	rsbeq	r6, r5, pc, ror #8
     3e8:	434e5546 	movtmi	r5, #58694	; 0xe546
     3ec:	4746435f 	smlsldmi	r4, r6, pc, r3	; <UNPREDICTABLE>
     3f0:	4343415f 	movtmi	r4, #12639	; 0x315f
     3f4:	00535345 	subseq	r5, r3, r5, asr #6
     3f8:	726f6873 	rsbvc	r6, pc, #7536640	; 0x730000
     3fc:	6e692074 	mcrvs	0, 3, r2, cr9, cr4, {3}
     400:	54430074 	strbpl	r0, [r3], #-116	; 0x74
     404:	5f384c52 	svcpl	0x00384c52
     408:	4f004c58 	svcmi	0x00004c58
     40c:	5f595455 	svcpl	0x00595455
     410:	4c585f48 	mrrcmi	15, 4, r5, r8, cr8
     414:	4b415700 	blmi	105601c <__bss_end__+0x104babc>
     418:	50555f45 	subspl	r5, r5, r5, asr #30
     41c:	5255445f 	subspl	r4, r5, #1593835520	; 0x5f000000
     420:	6d736c00 	ldclvs	12, cr6, [r3, #-0]
     424:	33736436 	cmncc	r3, #905969664	; 0x36000000
     428:	36315f33 	shasxcc	r5, r1, r3
     42c:	7a683036 	bvc	1a0c50c <__bss_end__+0x1a01fac>
     430:	67656c00 	strbvs	r6, [r5, -r0, lsl #24]!
     434:	675f6c61 	ldrbvs	r6, [pc, -r1, ror #24]
     438:	5f6f7279 	svcpl	0x006f7279
     43c:	47007a68 	strmi	r7, [r0, -r8, ror #20]
     440:	4320554e 	teqmi	r0, #327155712	; 0x13800000
     444:	382e3420 	stmdacc	lr!, {r5, sl, ip, sp}
     448:	2d20332e 	stccs	3, cr3, [r0, #-184]!	; 0xffffff48
     44c:	7570636d 	ldrbvc	r6, [r0, #-877]!	; 0x36d
     450:	6d72613d 	ldfvse	f6, [r2, #-244]!	; 0xffffff0c
     454:	36373131 			; <UNDEFINED> instruction: 0x36373131
     458:	2d667a6a 	vstmdbcs	r6!, {s15-s120}
     45c:	6d2d2073 	stcvs	0, cr2, [sp, #-460]!	; 0xfffffe34
     460:	656e7574 	strbvs	r7, [lr, #-1396]!	; 0x574
     464:	6d72613d 	ldfvse	f6, [r2, #-244]!	; 0xffffff0c
     468:	36373131 			; <UNDEFINED> instruction: 0x36373131
     46c:	2d667a6a 	vstmdbcs	r6!, {s15-s120}
     470:	672d2073 			; <UNDEFINED> instruction: 0x672d2073
     474:	20626467 	rsbcs	r6, r2, r7, ror #8
     478:	20674f2d 	rsbcs	r4, r7, sp, lsr #30
     47c:	6474732d 	ldrbtvs	r7, [r4], #-813	; 0x32d
     480:	756e673d 	strbvc	r6, [lr, #-1853]!	; 0x73d
     484:	2d203939 	stccs	9, cr3, [r0, #-228]!	; 0xffffff1c
     488:	65726666 	ldrbvs	r6, [r2, #-1638]!	; 0x666
     48c:	61747365 	cmnvs	r4, r5, ror #6
     490:	6e69646e 	cdpvs	4, 6, cr6, cr9, cr14, {3}
     494:	662d2067 	strtvs	r2, [sp], -r7, rrx
     498:	67696c61 	strbvs	r6, [r9, -r1, ror #24]!
     49c:	75662d6e 	strbvc	r2, [r6, #-3438]!	; 0xd6e
     4a0:	6974636e 	ldmdbvs	r4!, {r1, r2, r3, r5, r6, r8, r9, sp, lr}^
     4a4:	3d736e6f 	ldclcc	14, cr6, [r3, #-444]!	; 0xfffffe44
     4a8:	554f0034 	strbpl	r0, [pc, #-52]	; 47c <_start-0x7b84>
     4ac:	485f5854 	ldmdami	pc, {r2, r4, r6, fp, ip, lr}^	; <UNPREDICTABLE>
     4b0:	6700475f 	smlsdvs	r0, pc, r7, r4	; <UNPREDICTABLE>
     4b4:	5f6f7279 	svcpl	0x006f7279
     4b8:	61746164 	cmnvs	r4, r4, ror #2
     4bc:	6c656400 	cfstrdvs	mvd6, [r5], #-0
     4c0:	6d5f7961 	ldclvs	9, cr7, [pc, #-388]	; 344 <_start-0x7cbc>
     4c4:	69750073 	ldmdbvs	r5!, {r0, r1, r4, r5, r6}^
     4c8:	3233746e 	eorscc	r7, r3, #1845493760	; 0x6e000000
     4cc:	5600745f 			; <UNDEFINED> instruction: 0x5600745f
     4d0:	575f4c41 	ldrbpl	r4, [pc, -r1, asr #24]
     4d4:	415f4f48 	cmpmi	pc, r8, asr #30
     4d8:	00495f4d 	subeq	r5, r9, sp, asr #30
     4dc:	45455246 	strbmi	r5, [r5, #-582]	; 0x246
     4e0:	4c41465f 	mcrrmi	6, 5, r4, r1, cr15
     4e4:	524f004c 	subpl	r0, pc, #76	; 0x4c
     4e8:	544e4549 	strbpl	r4, [lr], #-1353	; 0x549
     4ec:	4746435f 	smlsldmi	r4, r6, pc, r3	; <UNPREDICTABLE>
     4f0:	6900475f 	stmdbvs	r0, {r0, r1, r2, r3, r4, r6, r8, r9, sl, lr}
     4f4:	775f756d 	ldrbvc	r7, [pc, -sp, ror #10]
     4f8:	736c0072 	cmnvc	ip, #114	; 0x72
     4fc:	7364366d 	cmnvc	r4, #114294784	; 0x6d00000
     500:	345f3333 	ldrbcc	r3, [pc], #-819	; 508 <_start-0x7af8>
     504:	7a683631 	bvc	1a0ddd0 <__bss_end__+0x1a03870>
     508:	46494600 	strbmi	r4, [r9], -r0, lsl #12
     50c:	54535f4f 	ldrbpl	r5, [r3], #-3919	; 0xf4f
     510:	53555441 	cmppl	r5, #1090519040	; 0x41000000
     514:	736c0033 	cmnvc	ip, #51	; 0x33
     518:	7364366d 	cmnvc	r4, #114294784	; 0x6d00000
     51c:	325f3333 	subscc	r3, pc, #-872415232	; 0xcc000000
     520:	64303030 	ldrtvs	r3, [r0], #-48	; 0x30
     524:	64007370 	strvs	r7, [r0], #-880	; 0x370
     528:	615f7665 	cmpvs	pc, r5, ror #12
     52c:	00726464 	rsbseq	r6, r2, r4, ror #8
     530:	366d736c 	strbtcc	r7, [sp], -ip, ror #6
     534:	33337364 	teqcc	r3, #100, 6	; 0x90000001
     538:	7370645f 	cmnvc	r0, #1593835520	; 0x5f000000
     53c:	4f00745f 	svcmi	0x0000745f
     540:	5f5a5455 	svcpl	0x005a5455
     544:	4c585f48 	mrrcmi	15, 4, r5, r8, cr8
     548:	76656400 	strbtvc	r6, [r5], -r0, lsl #8
     54c:	7261625f 	rsbvc	r6, r1, #-268435451	; 0xf0000005
     550:	72656972 	rsbvc	r6, r5, #1867776	; 0x1c8000
     554:	52544300 	subspl	r4, r4, #0, 6
     558:	435f354c 	cmpmi	pc, #76, 10	; 0x13000000
     55c:	54554f00 	ldrbpl	r4, [r5], #-3840	; 0xf00
     560:	5f4c5f58 	svcpl	0x004c5f58
     564:	43004c58 	movwmi	r4, #3160	; 0xc58
     568:	314c5254 	cmpcc	ip, r4, asr r2
     56c:	00435f30 	subeq	r5, r3, r0, lsr pc
     570:	366d736c 	strbtcc	r7, [sp], -ip, ror #6
     574:	33337364 	teqcc	r3, #100, 6	; 0x90000001
     578:	6665645f 			; <UNDEFINED> instruction: 0x6665645f
     57c:	746c7561 	strbtvc	r7, [ip], #-1377	; 0x561
     580:	6464615f 	strbtvs	r6, [r4], #-351	; 0x15f
     584:	444d0072 	strbmi	r0, [sp], #-114	; 0x72
     588:	46435f32 			; <UNDEFINED> instruction: 0x46435f32
     58c:	32690047 	rsbcc	r0, r9, #71	; 0x47
     590:	65725f63 	ldrbvs	r5, [r2, #-3939]!	; 0xf63
     594:	46006461 	strmi	r6, [r0], -r1, ror #8
     598:	5f434e55 	svcpl	0x00434e55
     59c:	00435253 	subeq	r5, r3, r3, asr r2
     5a0:	746e6975 	strbtvc	r6, [lr], #-2421	; 0x975
     5a4:	00745f38 	rsbseq	r5, r4, r8, lsr pc
     5a8:	5f544e49 	svcpl	0x00544e49
     5ac:	32525544 	subscc	r5, r2, #68, 10	; 0x11000000
     5b0:	6d736c00 	ldclvs	12, cr6, [r3, #-0]
     5b4:	33736436 	cmncc	r3, #905969664	; 0x36000000
     5b8:	36325f33 	shasxcc	r5, r2, r3
     5bc:	63007a68 	movwvs	r7, #2664	; 0xa68
     5c0:	6f626d6f 	svcvs	0x00626d6f
     5c4:	00676d5f 	rsbeq	r6, r7, pc, asr sp
     5c8:	454d4954 	strbmi	r4, [sp, #-2388]	; 0x954
     5cc:	4d415453 	cfstrdmi	mvd5, [r1, #-332]	; 0xfffffeb4
     5d0:	525f3250 	subspl	r3, pc, #80, 4
     5d4:	64004745 	strvs	r4, [r0], #-1861	; 0x745
     5d8:	745f7370 	ldrbvc	r7, [pc], #-880	; 5e0 <_start-0x7a20>
     5dc:	63735f6f 	cmnvs	r3, #444	; 0x1bc
     5e0:	00656c61 	rsbeq	r6, r5, r1, ror #24
     5e4:	74696e69 	strbtvc	r6, [r9], #-3689	; 0xe69
     5e8:	7279675f 	rsbsvc	r6, r9, #24903680	; 0x17c0000
     5ec:	3644006f 	strbcc	r0, [r4], -pc, rrx
     5f0:	52535f44 	subspl	r5, r3, #68, 30	; 0x110
     5f4:	554f0043 	strbpl	r0, [pc, #-67]	; 5b9 <_start-0x7a47>
     5f8:	485f5954 	ldmdami	pc, {r2, r4, r6, r8, fp, ip, lr}^	; <UNPREDICTABLE>
     5fc:	6300475f 	movwvs	r4, #1887	; 0x75f
     600:	6e61656c 	cdpvs	5, 6, cr6, cr1, cr12, {3}
     604:	6265725f 	rsbvs	r7, r5, #-268435451	; 0xf0000005
     608:	00746f6f 	rsbseq	r6, r4, pc, ror #30
     60c:	4f464946 	svcmi	0x00464946
     610:	5441445f 	strbpl	r4, [r1], #-1119	; 0x45f
     614:	554f5f41 	strbpl	r5, [pc, #-3905]	; fffff6db <__bss_end__+0xffff517b>
     618:	00485f54 	subeq	r5, r8, r4, asr pc
     61c:	4f464946 	svcmi	0x00464946
     620:	5441445f 	strbpl	r4, [r1], #-1119	; 0x45f
     624:	554f5f41 	strbpl	r5, [pc, #-3905]	; fffff6eb <__bss_end__+0xffff518b>
     628:	004c5f54 	subeq	r5, ip, r4, asr pc
     62c:	5a54554f 	bpl	1515b70 <__bss_end__+0x150b610>
     630:	475f485f 			; <UNDEFINED> instruction: 0x475f485f
     634:	544e4900 	strbpl	r4, [lr], #-2304	; 0x900
     638:	54435f32 	strbpl	r5, [r3], #-3890	; 0xf32
     63c:	67004c52 	smlsdvs	r0, r2, ip, r4
     640:	5f6f7279 	svcpl	0x006f7279
     644:	75727473 	ldrbvc	r7, [r2, #-1139]!	; 0x473
     648:	5f007463 	svcpl	0x00007463
     64c:	5f6f7364 	svcpl	0x006f7364
     650:	646e6168 	strbtvs	r6, [lr], #-360	; 0x168
     654:	4700656c 	strmi	r6, [r0, -ip, ror #10]
     658:	4320554e 	teqmi	r0, #327155712	; 0x13800000
     65c:	36203939 			; <UNDEFINED> instruction: 0x36203939
     660:	312e332e 	teqcc	lr, lr, lsr #6
     664:	31303220 	teqcc	r0, r0, lsr #4
     668:	32363037 	eorscc	r3, r6, #55	; 0x37
     66c:	6d2d2030 	stcvs	0, cr2, [sp, #-192]!	; 0xffffff40
     670:	3d757063 	ldclcc	0, cr7, [r5, #-396]!	; 0xfffffe74
     674:	316d7261 	cmncc	sp, r1, ror #4
     678:	6a363731 	bvs	d8e344 <__bss_end__+0xd83de4>
     67c:	732d667a 	teqvc	sp, #127926272	; 0x7a00000
     680:	746d2d20 	strbtvc	r2, [sp], #-3360	; 0xd20
     684:	3d656e75 	stclcc	14, cr6, [r5, #-468]!	; 0xfffffe2c
     688:	316d7261 	cmncc	sp, r1, ror #4
     68c:	6a363731 	bvs	d8e358 <__bss_end__+0xd83df8>
     690:	732d667a 	teqvc	sp, #127926272	; 0x7a00000
     694:	67672d20 	strbvs	r2, [r7, -r0, lsr #26]!
     698:	2d206264 	sfmcs	f6, 4, [r0, #-400]!	; 0xfffffe70
     69c:	2d20674f 	stccs	7, cr6, [r0, #-316]!	; 0xfffffec4
     6a0:	3d647473 	cfstrdcc	mvd7, [r4, #-460]!	; 0xfffffe34
     6a4:	39756e67 	ldmdbcc	r5!, {r0, r1, r2, r5, r6, r9, sl, fp, sp, lr}^
     6a8:	662d2039 			; <UNDEFINED> instruction: 0x662d2039
     6ac:	65657266 	strbvs	r7, [r5, #-614]!	; 0x266
     6b0:	6e617473 	mcrvs	4, 3, r7, cr1, cr3, {3}
     6b4:	676e6964 	strbvs	r6, [lr, -r4, ror #18]!
     6b8:	61662d20 	cmnvs	r6, r0, lsr #26
     6bc:	6e67696c 	cdpvs	9, 6, cr6, cr7, cr12, {3}
     6c0:	6e75662d 	cdpvs	6, 7, cr6, cr5, cr13, {1}
     6c4:	6f697463 	svcvs	0x00697463
     6c8:	343d736e 	ldrtcc	r7, [sp], #-878	; 0x36e
     6cc:	69735f00 	ldmdbvs	r3!, {r8, r9, sl, fp, ip, lr}^
     6d0:	5f00657a 	svcpl	0x0000657a
     6d4:	646e6172 	strbtvs	r6, [lr], #-370	; 0x172
     6d8:	5f003834 	svcpl	0x00003834
     6dc:	72656d65 	rsbvc	r6, r5, #6464	; 0x1940
     6e0:	636e6567 	cmnvs	lr, #432013312	; 0x19c00000
     6e4:	5f730079 	svcpl	0x00730079
     6e8:	69676572 	stmdbvs	r7!, {r1, r4, r5, r6, r8, sl, sp, lr}^
     6ec:	72657473 	rsbvc	r7, r5, #1929379840	; 0x73000000
     6f0:	49505200 	ldmdbmi	r0, {r9, ip, lr}^
     6f4:	6332695f 	teqvs	r2, #1556480	; 0x17c000
     6f8:	6e6f6400 	cdpvs	4, 6, cr6, cr15, cr0, {0}
     6fc:	69660065 	stmdbvs	r6!, {r0, r2, r5, r6}^
     700:	5f006f66 	svcpl	0x00006f66
     704:	74726377 	ldrbtvc	r6, [r2], #-887	; 0x377
     708:	5f626d6f 	svcpl	0x00626d6f
     70c:	74617473 	strbtvc	r7, [r1], #-1139	; 0x473
     710:	775f0065 	ldrbvc	r0, [pc, -r5, rrx]
     714:	74727363 	ldrbtvc	r7, [r2], #-867	; 0x363
     718:	73626d6f 	cmnvc	r2, #7104	; 0x1bc0
     71c:	6174735f 	cmnvs	r4, pc, asr r3
     720:	5f006574 	svcpl	0x00006574
     724:	7366626c 	cmnvc	r6, #108, 4	; 0xc0000006
     728:	00657a69 	rsbeq	r7, r5, r9, ror #20
     72c:	4f495047 	svcmi	0x00495047
     730:	4e55465f 	mrcmi	6, 2, r4, cr5, cr15, {2}
     734:	4e495f43 	cdpmi	15, 4, cr5, cr9, cr3, {2}
     738:	00545550 	subseq	r5, r4, r0, asr r5
     73c:	72626d5f 	rsbvc	r6, r2, #6080	; 0x17c0
     740:	63776f74 	cmnvs	r7, #116, 30	; 0x1d0
     744:	6174735f 	cmnvs	r4, pc, asr r3
     748:	69006574 	stmdbvs	r0, {r2, r4, r5, r6, r8, sl, sp, lr}
     74c:	695f6332 	ldmdbvs	pc, {r1, r4, r5, r8, r9, sp, lr}^	; <UNPREDICTABLE>
     750:	6e695f73 	mcrvs	15, 3, r5, cr9, cr3, {3}
     754:	61697469 	cmnvs	r9, r9, ror #8
     758:	657a696c 	ldrbvs	r6, [sl, #-2412]!	; 0x96c
     75c:	775f0064 	ldrbvc	r0, [pc, -r4, rrx]
     760:	6d6f7463 	cfstrdvs	mvd7, [pc, #-396]!	; 5dc <_start-0x7a24>
     764:	74735f62 	ldrbtvc	r5, [r3], #-3938	; 0xf62
     768:	00657461 	rsbeq	r7, r5, r1, ror #8
     76c:	6d745f5f 	ldclvs	15, cr5, [r4, #-380]!	; 0xfffffe84
     770:	6365735f 	cmnvs	r5, #2080374785	; 0x7c000001
     774:	62755f00 	rsbsvs	r5, r5, #0, 30
     778:	47006675 	smlsdxmi	r0, r5, r6, r6
     77c:	5f4f4950 	svcpl	0x004f4950
     780:	434e5546 	movtmi	r5, #58694	; 0xe546
     784:	544c415f 	strbpl	r4, [ip], #-351	; 0x15f
     788:	625f0031 	subsvs	r0, pc, #49	; 0x31
     78c:	00657361 	rsbeq	r7, r5, r1, ror #6
     790:	6d745f5f 	ldclvs	15, cr5, [r4, #-380]!	; 0xfffffe84
     794:	756f685f 	strbvc	r6, [pc, #-2143]!	; ffffff3d <__bss_end__+0xffff59dd>
     798:	5f5f0072 	svcpl	0x005f0072
     79c:	73756e75 	cmnvc	r5, #1872	; 0x750
     7a0:	00316465 	eorseq	r6, r1, r5, ror #8
     7a4:	66735f5f 	uhsaxvs	r5, r3, pc	; <UNPREDICTABLE>
     7a8:	6e6f5f00 	cdpvs	15, 6, cr5, cr15, cr0, {0}
     7ac:	6978655f 	ldmdbvs	r8!, {r0, r1, r2, r3, r4, r6, r8, sl, sp, lr}^
     7b0:	72615f74 	rsbvc	r5, r1, #116, 30	; 0x1d0
     7b4:	63007367 	movwvs	r7, #871	; 0x367
     7b8:	6b636f6c 	blvs	18dc570 <__bss_end__+0x18d2010>
     7bc:	7274735f 	rsbsvc	r7, r4, #2080374785	; 0x7c000001
     7c0:	68637465 	stmdavs	r3!, {r0, r2, r5, r6, sl, ip, sp, lr}^
     7c4:	6d69745f 	cfstrdvs	mvd7, [r9, #-380]!	; 0xfffffe84
     7c8:	74756f65 	ldrbtvc	r6, [r5], #-3941	; 0xf65
     7cc:	6f635f00 	svcvs	0x00635f00
     7d0:	65696b6f 	strbvs	r6, [r9, #-2927]!	; 0xb6f
     7d4:	69706700 	ldmdbvs	r0!, {r8, r9, sl, sp, lr}^
     7d8:	65735f6f 	ldrbvs	r5, [r3, #-3951]!	; 0xf6f
     7dc:	75665f74 	strbvc	r5, [r6, #-3956]!	; 0xf74
     7e0:	6974636e 	ldmdbvs	r4!, {r1, r2, r3, r5, r6, r8, r9, sp, lr}^
     7e4:	5f006e6f 	svcpl	0x00006e6f
     7e8:	6c67735f 	stclvs	3, cr7, [r7], #-380	; 0xfffffe84
     7ec:	5f006575 	svcpl	0x00006575
     7f0:	67616c66 	strbvs	r6, [r1, -r6, ror #24]!
     7f4:	695f0073 	ldmdbvs	pc, {r0, r1, r4, r5, r6}^	; <UNPREDICTABLE>
     7f8:	78635f73 	stmdavc	r3!, {r0, r1, r4, r5, r6, r8, r9, sl, fp, ip, lr}^
     7fc:	735f0061 	cmpvc	pc, #97	; 0x61
     800:	6e696474 	mcrvs	4, 3, r6, cr9, cr4, {3}
     804:	755f5f00 	ldrbvc	r5, [pc, #-3840]	; fffff90c <__bss_end__+0xffff53ac>
     808:	6573756e 	ldrbvs	r7, [r3, #-1390]!	; 0x56e
     80c:	5f003064 	svcpl	0x00003064
     810:	736b6c62 	cmnvc	fp, #25088	; 0x6200
     814:	00657a69 	rsbeq	r7, r5, r9, ror #20
     818:	6e755f5f 	mrcvs	15, 3, r5, cr5, cr15, {2}
     81c:	64657375 	strbtvs	r7, [r5], #-885	; 0x375
     820:	5f5f0032 	svcpl	0x005f0032
     824:	73756e75 	cmnvc	r5, #1872	; 0x750
     828:	00336465 	eorseq	r6, r3, r5, ror #8
     82c:	7476635f 	ldrbtvc	r6, [r6], #-863	; 0x35f
     830:	00667562 	rsbeq	r7, r6, r2, ror #10
     834:	66666f5f 	uqsaxvs	r6, r6, pc	; <UNPREDICTABLE>
     838:	00746573 	rsbseq	r6, r4, r3, ror r5
     83c:	66696873 			; <UNDEFINED> instruction: 0x66696873
     840:	6d5f0074 	ldclvs	0, cr0, [pc, #-464]	; 678 <_start-0x7988>
     844:	74727362 	ldrbtvc	r7, [r2], #-866	; 0x362
     848:	7363776f 	cmnvc	r3, #29097984	; 0x1bc0000
     84c:	6174735f 	cmnvs	r4, pc, asr r3
     850:	5f006574 	svcpl	0x00006574
     854:	6c72626d 	lfmvs	f6, 2, [r2], #-436	; 0xfffffe4c
     858:	735f6e65 	cmpvc	pc, #1616	; 0x650
     85c:	65746174 	ldrbvs	r6, [r4, #-372]!	; 0x174
     860:	6e665f00 	cdpvs	15, 6, cr5, cr6, cr0, {0}
     864:	73677261 	cmnvc	r7, #268435462	; 0x10000006
     868:	6e665f00 	cdpvs	15, 6, cr5, cr6, cr0, {0}
     86c:	32690073 	rsbcc	r0, r9, #115	; 0x73
     870:	00632e63 	rsbeq	r2, r3, r3, ror #28
     874:	6769735f 			; <UNDEFINED> instruction: 0x6769735f
     878:	6572006e 	ldrbvs	r0, [r2, #-110]!	; 0x6e
     87c:	635f6461 	cmpvs	pc, #1627389952	; 0x61000000
     880:	6c665f00 	stclvs	15, cr5, [r6], #-0
     884:	5f6b636f 	svcpl	0x006b636f
     888:	735f0074 	cmpvc	pc, #116	; 0x74
     88c:	72656474 	rsbvc	r6, r5, #116, 8	; 0x74000000
     890:	425f0072 	subsmi	r0, pc, #114	; 0x72
     894:	6e696769 	cdpvs	7, 6, cr6, cr9, cr9, {3}
     898:	675f0074 			; <UNDEFINED> instruction: 0x675f0074
     89c:	616d6d61 	cmnvs	sp, r1, ror #26
     8a0:	6769735f 			; <UNDEFINED> instruction: 0x6769735f
     8a4:	6d61676e 	stclvs	7, cr6, [r1, #-440]!	; 0xfffffe48
     8a8:	65725f00 	ldrbvs	r5, [r2, #-3840]!	; 0xf00
     8ac:	746c7573 	strbtvc	r7, [ip], #-1395	; 0x573
     8b0:	72006b5f 	andvc	r6, r0, #97280	; 0x17c00
     8b4:	705f6970 	subsvc	r6, pc, r0, ror r9	; <UNPREDICTABLE>
     8b8:	68637475 	stmdavs	r3!, {r0, r2, r4, r5, r6, sl, ip, sp, lr}^
     8bc:	5f007261 	svcpl	0x00007261
     8c0:	006d745f 	rsbeq	r7, sp, pc, asr r4
     8c4:	64616572 	strbtvs	r6, [r1], #-1394	; 0x572
     8c8:	5f00735f 	svcpl	0x0000735f
     8cc:	6863775f 	stmdavs	r3!, {r0, r1, r2, r3, r4, r6, r8, r9, sl, ip, sp, lr}^
     8d0:	735f0062 	cmpvc	pc, #98	; 0x62
     8d4:	756f6474 	strbvc	r6, [pc, #-1140]!	; 468 <_start-0x7b98>
     8d8:	65720074 	ldrbvs	r0, [r2, #-116]!	; 0x74
     8dc:	705f6461 	subsvc	r6, pc, r1, ror #8
     8e0:	76635f00 	strbtvc	r5, [r3], -r0, lsl #30
     8e4:	6e656c74 	mcrvs	12, 3, r6, cr5, cr4, {3}
     8e8:	69665f00 	stmdbvs	r6!, {r8, r9, sl, fp, ip, lr}^
     8ec:	5f00656c 	svcpl	0x0000656c
     8f0:	626f696e 	rsbvs	r6, pc, #1802240	; 0x1b8000
     8f4:	6e690073 	mcrvs	0, 3, r0, cr9, cr3, {3}
     8f8:	61697469 	cmnvs	r9, r9, ror #8
     8fc:	657a696c 	ldrbvs	r6, [sl, #-2412]!	; 0x96c
     900:	00705f64 	rsbseq	r5, r0, r4, ror #30
     904:	5f746573 	svcpl	0x00746573
     908:	006c6c61 	rsbeq	r6, ip, r1, ror #24
     90c:	636f6c63 	cmnvs	pc, #25344	; 0x6300
     910:	69645f6b 	stmdbvs	r4!, {r0, r1, r3, r5, r6, r8, r9, sl, fp, ip, lr}^
     914:	615f0076 	cmpvs	pc, r6, ror r0	; <UNPREDICTABLE>
     918:	69786574 	ldmdbvs	r8!, {r2, r4, r5, r6, r8, sl, sp, lr}^
     91c:	72003074 	andvc	r3, r0, #116	; 0x74
     920:	74657365 	strbtvc	r7, [r5], #-869	; 0x365
     924:	6174735f 	cmnvs	r4, pc, asr r3
     928:	00737574 	rsbseq	r7, r3, r4, ror r5
     92c:	6769735f 			; <UNDEFINED> instruction: 0x6769735f
     930:	5f6c616e 	svcpl	0x006c616e
     934:	00667562 	rsbeq	r7, r6, r2, ror #10
     938:	6373615f 	cmnvs	r3, #-1073741801	; 0xc0000017
     93c:	656d6974 	strbvs	r6, [sp, #-2420]!	; 0x974
     940:	6675625f 			; <UNDEFINED> instruction: 0x6675625f
     944:	63326900 	teqvs	r2, #0, 18
     948:	696e695f 	stmdbvs	lr!, {r0, r1, r2, r3, r4, r6, r8, fp, sp, lr}^
     94c:	6e6f5f74 	mcrvs	15, 3, r5, cr15, cr4, {3}
     950:	5f006563 	svcpl	0x00006563
     954:	75736572 	ldrbvc	r6, [r3, #-1394]!	; 0x572
     958:	5f00746c 	svcpl	0x0000746c
     95c:	6863775f 	stmdavs	r3!, {r0, r1, r2, r3, r4, r6, r8, r9, sl, ip, sp, lr}^
     960:	49504700 	ldmdbmi	r0, {r8, r9, sl, lr}^
     964:	55465f4f 	strbpl	r5, [r6, #-3919]	; 0xf4f
     968:	415f434e 	cmpmi	pc, lr, asr #6
     96c:	0032544c 	eorseq	r5, r2, ip, asr #8
     970:	746e6977 	strbtvc	r6, [lr], #-2423	; 0x977
     974:	5f00745f 	svcpl	0x0000745f
     978:	6b636f6c 	blvs	18dc730 <__bss_end__+0x18d21d0>
     97c:	6c665f00 	stclvs	15, cr5, [r6], #-0
     980:	32736761 	rsbscc	r6, r3, #25427968	; 0x1840000
     984:	745f5f00 	ldrbvc	r5, [pc], #-3840	; 98c <_start-0x7674>
     988:	65795f6d 	ldrbvs	r5, [r9, #-3949]!	; 0xf6d
     98c:	69007261 	stmdbvs	r0, {r0, r5, r6, r9, ip, sp, lr}
     990:	0064746e 	rsbeq	r7, r4, lr, ror #8
     994:	616d6e5f 	cmnvs	sp, pc, asr lr
     998:	636f6c6c 	cmnvs	pc, #108, 24	; 0x6c00
     99c:	746e6900 	strbtvc	r6, [lr], #-2304	; 0x900
     9a0:	6e690072 	mcrvs	0, 3, r0, cr9, cr2, {3}
     9a4:	63007474 	movwvs	r7, #1140	; 0x474
     9a8:	6b636568 	blvs	18d9f50 <__bss_end__+0x18cf9f0>
     9ac:	79616c5f 	stmdbvc	r1!, {r0, r1, r2, r3, r4, r6, sl, fp, sp, lr}^
     9b0:	0074756f 	rsbseq	r7, r4, pc, ror #10
     9b4:	78656e5f 	stmdavc	r5!, {r0, r1, r2, r3, r4, r6, r9, sl, fp, sp, lr}^
     9b8:	69006674 	stmdbvs	r0, {r2, r4, r5, r6, r9, sl, sp, lr}
     9bc:	6e656332 	mcrvs	3, 3, r6, cr5, cr2, {1}
     9c0:	745f5f00 	ldrbvc	r5, [pc], #-3840	; 9c8 <_start-0x7638>
     9c4:	6f6d5f6d 	svcvs	0x006d5f6d
     9c8:	615f006e 	cmpvs	pc, lr, rrx
     9cc:	69786574 	ldmdbvs	r8!, {r2, r4, r5, r6, r8, sl, sp, lr}^
     9d0:	5f5f0074 	svcpl	0x005f0074
     9d4:	64696473 	strbtvs	r6, [r9], #-1139	; 0x473
     9d8:	74696e69 	strbtvc	r6, [r9], #-3689	; 0xe69
     9dc:	666f5f00 	strbtvs	r5, [pc], -r0, lsl #30
     9e0:	00745f66 	rsbseq	r5, r4, r6, ror #30
     9e4:	6572665f 	ldrbvs	r6, [r2, #-1631]!	; 0x65f
     9e8:	73696c65 	cmnvc	r9, #25856	; 0x6500
     9ec:	626e0074 	rsbvs	r0, lr, #116	; 0x74
     9f0:	73657479 	cmnvc	r5, #2030043136	; 0x79000000
     9f4:	656c6400 	strbvs	r6, [ip, #-1024]!	; 0x400
     9f8:	4c5f006e 	mrrcmi	0, 6, r0, pc, cr14	; <UNPREDICTABLE>
     9fc:	5f4b434f 	svcpl	0x004b434f
     a00:	55434552 	strbpl	r4, [r3, #-1362]	; 0x552
     a04:	56495352 			; <UNDEFINED> instruction: 0x56495352
     a08:	00545f45 	subseq	r5, r4, r5, asr #30
     a0c:	77656e5f 			; <UNDEFINED> instruction: 0x77656e5f
     a10:	5f685f00 	svcpl	0x00685f00
     a14:	6e727265 	cdpvs	2, 7, cr7, cr2, cr5, {3}
     a18:	5f5f006f 	svcpl	0x005f006f
     a1c:	795f6d74 	ldmdbvc	pc, {r2, r4, r5, r6, r8, sl, fp, sp, lr}^	; <UNPREDICTABLE>
     a20:	00796164 	rsbseq	r6, r9, r4, ror #2
     a24:	62735f5f 	rsbsvs	r5, r3, #380	; 0x17c
     a28:	5f006675 	svcpl	0x00006675
     a2c:	73626f69 	cmnvc	r2, #420	; 0x1a4
     a30:	465f5f00 	ldrbmi	r5, [pc], -r0, lsl #30
     a34:	00454c49 	subeq	r4, r5, r9, asr #24
     a38:	73626d5f 	cmnvc	r2, #6080	; 0x17c0
     a3c:	65746174 	ldrbvs	r6, [r4, #-372]!	; 0x174
     a40:	5f00745f 	svcpl	0x0000745f
     a44:	4946735f 	stmdbmi	r6, {r0, r1, r2, r3, r4, r6, r8, r9, ip, sp, lr}^
     a48:	5f00454c 	svcpl	0x0000454c
     a4c:	7473626d 	ldrbtvc	r6, [r3], #-621	; 0x26d
     a50:	00657461 	rsbeq	r7, r5, r1, ror #8
     a54:	6e61725f 	mcrvs	2, 3, r7, cr1, cr15, {2}
     a58:	656e5f64 	strbvs	r5, [lr, #-3940]!	; 0xf64
     a5c:	63007478 	movwvs	r7, #1144	; 0x478
     a60:	6b636f6c 	blvs	18dc818 <__bss_end__+0x18d22b8>
     a64:	6c65645f 	cfstrdvs	mvd6, [r5], #-380	; 0xfffffe84
     a68:	5f007961 	svcpl	0x00007961
     a6c:	656c626d 	strbvs	r6, [ip, #-621]!	; 0x26d
     a70:	74735f6e 	ldrbtvc	r5, [r3], #-3950	; 0xf6e
     a74:	00657461 	rsbeq	r7, r5, r1, ror #8
     a78:	636e695f 	cmnvs	lr, #1556480	; 0x17c000
     a7c:	6e695f00 	cdpvs	15, 6, cr5, cr9, cr0, {0}
     a80:	635f0064 	cmpvs	pc, #100	; 0x64
     a84:	65727275 	ldrbvs	r7, [r2, #-629]!	; 0x275
     a88:	6c5f746e 	cfldrdvs	mvd7, [pc], {110}	; 0x6e
     a8c:	6c61636f 	stclvs	3, cr6, [r1], #-444	; 0xfffffe44
     a90:	5f5f0065 	svcpl	0x005f0065
     a94:	61656c63 	cmnvs	r5, r3, ror #24
     a98:	0070756e 	rsbseq	r7, r0, lr, ror #10
     a9c:	78616d5f 	stmdavc	r1!, {r0, r1, r2, r3, r4, r6, r8, sl, fp, sp, lr}^
     aa0:	00736477 	rsbseq	r6, r3, r7, ror r4
     aa4:	6565725f 	strbvs	r7, [r5, #-607]!	; 0x25f
     aa8:	5f00746e 	svcpl	0x0000746e
     aac:	64656573 	strbtvs	r6, [r5], #-1395	; 0x573
     ab0:	635f5f00 	cmpvs	pc, #0, 30
     ab4:	746e756f 	strbtvc	r7, [lr], #-1391	; 0x56f
     ab8:	6e6f6300 	cdpvs	3, 6, cr6, cr15, cr0, {0}
     abc:	6c6f7274 	sfmvs	f7, 2, [pc], #-464	; 8f4 <_start-0x770c>
     ac0:	65735f00 	ldrbvs	r5, [r3, #-3840]!	; 0xf00
     ac4:	5f006b65 	svcpl	0x00006b65
     ac8:	736f7066 	cmnvc	pc, #102	; 0x66
     acc:	5f00745f 	svcpl	0x0000745f
     ad0:	5f6d745f 	svcpl	0x006d745f
     ad4:	006e696d 	rsbeq	r6, lr, sp, ror #18
     ad8:	6c756d5f 	ldclvs	13, cr6, [r5], #-380	; 0xfffffe84
     adc:	75700074 	ldrbvc	r0, [r0, #-116]!	; 0x74
     ae0:	00323374 	eorseq	r3, r2, r4, ror r3
     ae4:	6d6f682f 	stclvs	8, cr6, [pc, #-188]!	; a30 <_start-0x75d0>
     ae8:	6e652f65 	cdpvs	15, 6, cr2, cr5, cr5, {3}
     aec:	72656c67 	rsbvc	r6, r5, #26368	; 0x6700
     af0:	616c632f 	cmnvs	ip, pc, lsr #6
     af4:	632f7373 	teqvs	pc, #-872415231	; 0xcc000001
     af8:	30343273 	eorscc	r3, r4, r3, ror r2
     afc:	322d786c 	eorcc	r7, sp, #108, 16	; 0x6c0000
     b00:	72707330 	rsbsvc	r7, r0, #48, 6	; 0xc0000000
     b04:	62616c2f 	rsbvs	r6, r1, #12032	; 0x2f00
     b08:	2d382f73 	ldccs	15, cr2, [r8, #-460]!	; 0xfffffe34
     b0c:	2d633269 	sfmcs	f3, 2, [r3, #-420]!	; 0xfffffe5c
     b10:	65636361 	strbvs	r6, [r3, #-865]!	; 0x361
     b14:	6f632f6c 	svcvs	0x00632f6c
     b18:	5f006564 	svcpl	0x00006564
     b1c:	74727473 	ldrbtvc	r7, [r2], #-1139	; 0x473
     b20:	6c5f6b6f 	mrrcvs	11, 6, r6, pc, cr15	; <UNPREDICTABLE>
     b24:	00747361 	rsbseq	r7, r4, r1, ror #6
     b28:	61765f5f 	cmnvs	r6, pc, asr pc
     b2c:	0065756c 	rsbeq	r7, r5, ip, ror #10
     b30:	746e665f 	strbtvc	r6, [lr], #-1631	; 0x65f
     b34:	73657079 	cmnvc	r5, #121	; 0x79
     b38:	64615f00 	strbtvs	r5, [r1], #-3840	; 0xf00
     b3c:	5f5f0064 	svcpl	0x005f0064
     b40:	6e6f4c55 	mcrvs	12, 3, r4, cr15, cr5, {2}
     b44:	675f0067 	ldrbvs	r0, [pc, -r7, rrx]
     b48:	61647465 	cmnvs	r4, r5, ror #8
     b4c:	655f6574 	ldrbvs	r6, [pc, #-1396]	; 5e0 <_start-0x7a20>
     b50:	5f007272 	svcpl	0x00007272
     b54:	626f6c67 	rsbvs	r6, pc, #26368	; 0x6700
     b58:	695f6c61 	ldmdbvs	pc, {r0, r5, r6, sl, fp, sp, lr}^	; <UNPREDICTABLE>
     b5c:	7275706d 	rsbsvc	r7, r5, #109	; 0x6d
     b60:	74705f65 	ldrbtvc	r5, [r0], #-3941	; 0xf65
     b64:	635f0072 	cmpvs	pc, #114	; 0x72
     b68:	65727275 	ldrbvs	r7, [r2, #-629]!	; 0x275
     b6c:	635f746e 	cmpvs	pc, #1845493760	; 0x6e000000
     b70:	67657461 	strbvs	r7, [r5, -r1, ror #8]!
     b74:	0079726f 	rsbseq	r7, r9, pc, ror #4
     b78:	756e755f 	strbvc	r7, [lr, #-1375]!	; 0x55f
     b7c:	5f646573 	svcpl	0x00646573
     b80:	646e6172 	strbtvs	r6, [lr], #-370	; 0x172
     b84:	65667800 	strbvs	r7, [r6, #-2048]!	; 0x800
     b88:	74735f72 	ldrbtvc	r5, [r3], #-3954	; 0xf72
     b8c:	00747261 	rsbseq	r7, r4, r1, ror #4
     b90:	7364775f 	cmnvc	r4, #24903680	; 0x17c0000
     b94:	745f5f00 	ldrbvc	r5, [pc], #-3840	; b9c <_start-0x7464>
     b98:	64775f6d 	ldrbtvs	r5, [r7], #-3949	; 0xf6d
     b9c:	5f007961 	svcpl	0x00007961
     ba0:	65756c67 	ldrbvs	r6, [r5, #-3175]!	; 0xc67
     ba4:	49504700 	ldmdbmi	r0, {r8, r9, sl, lr}^
     ba8:	55465f4f 	strbpl	r5, [r6, #-3919]	; 0xf4f
     bac:	4f5f434e 	svcmi	0x005f434e
     bb0:	55505455 	ldrbpl	r5, [r0, #-1109]	; 0x455
     bb4:	6c5f0054 	mrrcvs	0, 5, r0, pc, cr4	; <UNPREDICTABLE>
     bb8:	5f613436 	svcpl	0x00613436
     bbc:	00667562 	rsbeq	r7, r6, r2, ror #10
     bc0:	33746567 	cmncc	r4, #432013312	; 0x19c00000
     bc4:	66780032 			; <UNDEFINED> instruction: 0x66780032
     bc8:	655f7265 	ldrbvs	r7, [pc, #-613]	; 96b <_start-0x7695>
     bcc:	5f00646e 	svcpl	0x0000646e
     bd0:	5f676973 	svcpl	0x00676973
     bd4:	636e7566 	cmnvs	lr, #427819008	; 0x19800000
     bd8:	6b6c6300 	blvs	1b197e0 <__bss_end__+0x1b0f280>
     bdc:	63006b74 	movwvs	r6, #2932	; 0xb74
     be0:	7261656c 	rsbvc	r6, r1, #108, 10	; 0x1b000000
     be4:	4700635f 	smlsdmi	r0, pc, r3, r6	; <UNPREDICTABLE>
     be8:	5f4f4950 	svcpl	0x004f4950
     bec:	434e5546 	movtmi	r5, #58694	; 0xe546
     bf0:	544c415f 	strbpl	r4, [ip], #-351	; 0x15f
     bf4:	6e5f0030 	mrcvs	0, 2, r0, cr15, cr0, {1}
     bf8:	00667562 	rsbeq	r7, r6, r2, ror #10
     bfc:	756e755f 	strbvc	r7, [lr, #-1375]!	; 0x55f
     c00:	00646573 	rsbeq	r6, r4, r3, ror r5
     c04:	4f495047 	svcmi	0x00495047
     c08:	4e55465f 	mrcmi	6, 2, r4, cr5, cr15, {2}
     c0c:	4c415f43 	mcrrmi	15, 4, r5, r1, cr3
     c10:	47003354 	smlsdmi	r0, r4, r3, r3
     c14:	5f4f4950 	svcpl	0x004f4950
     c18:	434e5546 	movtmi	r5, #58694	; 0xe546
     c1c:	544c415f 	strbpl	r4, [ip], #-351	; 0x15f
     c20:	50470034 	subpl	r0, r7, r4, lsr r0
     c24:	465f4f49 	ldrbmi	r4, [pc], -r9, asr #30
     c28:	5f434e55 	svcpl	0x00434e55
     c2c:	35544c41 	ldrbcc	r4, [r4, #-3137]	; 0xc41
     c30:	745f5f00 	ldrbvc	r5, [pc], #-3840	; c38 <_start-0x73c8>
     c34:	73695f6d 	cmnvc	r9, #436	; 0x1b4
     c38:	00747364 	rsbseq	r7, r4, r4, ror #6
     c3c:	636f6c5f 	cmnvs	pc, #24320	; 0x5f00
     c40:	69746c61 	ldmdbvs	r4!, {r0, r5, r6, sl, fp, sp, lr}^
     c44:	625f656d 	subsvs	r6, pc, #457179136	; 0x1b400000
     c48:	5f006675 	svcpl	0x00006675
     c4c:	736f6c63 	cmnvc	pc, #25344	; 0x6300
     c50:	6c630065 	stclvs	0, cr0, [r3], #-404	; 0xfffffe6c
     c54:	5f726165 	svcpl	0x00726165
     c58:	725f0073 	subsvc	r0, pc, #115	; 0x73
     c5c:	63003834 	movwvs	r3, #2100	; 0x834
     c60:	6765725f 			; <UNDEFINED> instruction: 0x6765725f
     c64:	65747369 	ldrbvs	r7, [r4, #-873]!	; 0x369
     c68:	6d5f0072 	ldclvs	0, cr0, [pc, #-456]	; aa8 <_start-0x7558>
     c6c:	776f7462 	strbvc	r7, [pc, -r2, ror #8]!
     c70:	74735f63 	ldrbtvc	r5, [r3], #-3939	; 0xf63
     c74:	00657461 	rsbeq	r7, r5, r1, ror #8
     c78:	7335705f 	teqvc	r5, #95	; 0x5f
     c7c:	745f5f00 	ldrbvc	r5, [pc], #-3840	; c84 <_start-0x737c>
     c80:	646d5f6d 	strbtvs	r5, [sp], #-3949	; 0xf6d
     c84:	5f007961 	svcpl	0x00007961
     c88:	756e675f 	strbvc	r6, [lr, #-1887]!	; 0x75f
     c8c:	61765f63 	cmnvs	r6, r3, ror #30
     c90:	73696c5f 	cmnvc	r9, #24320	; 0x5f00
     c94:	696c0074 	stmdbvs	ip!, {r2, r4, r5, r6}^
     c98:	702f6362 	eorvc	r6, pc, r2, ror #6
     c9c:	746e6972 	strbtvc	r6, [lr], #-2418	; 0x972
     ca0:	00632e6b 	rsbeq	r2, r3, fp, ror #28
     ca4:	20554e47 	subscs	r4, r5, r7, asr #28
     ca8:	2e342043 	cdpcs	0, 3, cr2, cr4, cr3, {2}
     cac:	20332e38 	eorscs	r2, r3, r8, lsr lr
     cb0:	70636d2d 	rsbvc	r6, r3, sp, lsr #26
     cb4:	72613d75 	rsbvc	r3, r1, #7488	; 0x1d40
     cb8:	3731316d 	ldrcc	r3, [r1, -sp, ror #2]!
     cbc:	667a6a36 			; <UNDEFINED> instruction: 0x667a6a36
     cc0:	2d20732d 	stccs	3, cr7, [r0, #-180]!	; 0xffffff4c
     cc4:	6e75746d 	cdpvs	4, 7, cr7, cr5, cr13, {3}
     cc8:	72613d65 	rsbvc	r3, r1, #6464	; 0x1940
     ccc:	3731316d 	ldrcc	r3, [r1, -sp, ror #2]!
     cd0:	667a6a36 			; <UNDEFINED> instruction: 0x667a6a36
     cd4:	2d20732d 	stccs	3, cr7, [r0, #-180]!	; 0xffffff4c
     cd8:	62646767 	rsbvs	r6, r4, #27000832	; 0x19c0000
     cdc:	674f2d20 	strbvs	r2, [pc, -r0, lsr #26]
     ce0:	74732d20 	ldrbtvc	r2, [r3], #-3360	; 0xd20
     ce4:	6e673d64 	cdpvs	13, 6, cr3, cr7, cr4, {3}
     ce8:	20393975 	eorscs	r3, r9, r5, ror r9
     cec:	7266662d 	rsbvc	r6, r6, #47185920	; 0x2d00000
     cf0:	74736565 	ldrbtvc	r6, [r3], #-1381	; 0x565
     cf4:	69646e61 	stmdbvs	r4!, {r0, r5, r6, r9, sl, fp, sp, lr}^
     cf8:	7600676e 	strvc	r6, [r0], -lr, ror #14
     cfc:	72705f61 	rsbsvc	r5, r0, #388	; 0x184
     d00:	6b746e69 	blvs	1d1c6ac <__bss_end__+0x1d1214c>
     d04:	765f5f00 	ldrbvc	r5, [pc], -r0, lsl #30
     d08:	696c5f61 	stmdbvs	ip!, {r0, r5, r6, r8, r9, sl, fp, ip, lr}^
     d0c:	2f007473 	svccs	0x00007473
     d10:	72657355 	rsbvc	r7, r5, #1409286145	; 0x54000001
     d14:	72622f73 	rsbvc	r2, r2, #460	; 0x1cc
     d18:	6a6e6169 	bvs	1b992c4 <__bss_end__+0x1b8ed64>
     d1c:	442f6e75 	strtmi	r6, [pc], #-3701	; d24 <_start-0x72dc>
     d20:	746b7365 	strbtvc	r7, [fp], #-869	; 0x365
     d24:	732f706f 	teqvc	pc, #111	; 0x6f
     d28:	6f6f6863 	svcvs	0x006f6863
     d2c:	69572f6c 	ldmdbvs	r7, {r2, r3, r5, r6, r8, r9, sl, fp, sp}^
     d30:	7265746e 	rsbvc	r7, r5, #1845493760	; 0x6e000000
     d34:	30323931 	eorscc	r3, r2, r1, lsr r9
     d38:	3153432f 	cmpcc	r3, pc, lsr #6
     d3c:	2f453034 	svccs	0x00453034
     d40:	34317363 	ldrtcc	r7, [r1], #-867	; 0x363
     d44:	322d6530 	eorcc	r6, sp, #48, 10	; 0xc000000
     d48:	6e697730 	mcrvs	7, 3, r7, cr9, cr0, {1}
     d4c:	62696c2f 	rsbvs	r6, r9, #12032	; 0x2f00
     d50:	5f006970 	svcpl	0x00006970
     d54:	0070615f 	rsbseq	r6, r0, pc, asr r1
     d58:	74726175 	ldrbtvc	r6, [r2], #-373	; 0x175
     d5c:	7475705f 	ldrbtvc	r7, [r5], #-95	; 0x5f
     d60:	6e690063 	cdpvs	0, 6, cr0, cr9, cr3, {3}
     d64:	6e726574 	mrcvs	5, 3, r6, cr2, cr4, {3}
     d68:	705f6c61 	subsvc	r6, pc, r1, ror #24
     d6c:	68637475 	stmdavs	r3!, {r0, r2, r4, r5, r6, sl, ip, sp, lr}^
     d70:	6c007261 	sfmvs	f7, 4, [r0], {97}	; 0x61
     d74:	2f636269 	svccs	0x00636269
     d78:	63747570 	cmnvs	r4, #112, 10	; 0x1c000000
     d7c:	2e726168 	rpwcssz	f6, f2, #0.0
     d80:	70720063 	rsbsvc	r0, r2, r3, rrx
     d84:	65735f69 	ldrbvs	r5, [r3, #-3945]!	; 0xf69
     d88:	75705f74 	ldrbvc	r5, [r0, #-3956]!	; 0xf74
     d8c:	6c006374 	stcvs	3, cr6, [r0], {116}	; 0x74
     d90:	2f636269 	svccs	0x00636269
     d94:	6b747570 	blvs	1d1e35c <__bss_end__+0x1d13dfc>
     d98:	6900632e 	stmdbvs	r0, {r1, r2, r3, r5, r8, r9, sp, lr}
     d9c:	7265746e 	rsbvc	r7, r5, #1845493760	; 0x6e000000
     da0:	5f6c616e 	svcpl	0x006c616e
     da4:	6b747570 	blvs	1d1e36c <__bss_end__+0x1d13e0c>
     da8:	67656e00 	strbvs	r6, [r5, -r0, lsl #28]!
     dac:	7200705f 	andvc	r7, r0, #95	; 0x5f
     db0:	72657665 	rsbvc	r7, r5, #105906176	; 0x6500000
     db4:	69006573 	stmdbvs	r0, {r0, r1, r4, r5, r6, r8, sl, sp, lr}
     db8:	67696473 			; <UNDEFINED> instruction: 0x67696473
     dbc:	70007469 	andvc	r7, r0, r9, ror #8
     dc0:	5f737475 	svcpl	0x00737475
     dc4:	73007066 	movwvc	r7, #102	; 0x66
     dc8:	656e6769 	strbvs	r6, [lr, #-1897]!	; 0x769
     dcc:	00705f64 	rsbseq	r5, r0, r4, ror #30
     dd0:	6362696c 	cmnvs	r2, #108, 18	; 0x1b0000
     dd4:	2d61762f 	stclcs	6, cr7, [r1, #-188]!	; 0xffffff44
     dd8:	6e697270 	mcrvs	2, 3, r7, cr9, cr0, {3}
     ddc:	632e6b74 	teqvs	lr, #116, 22	; 0x1d000
     de0:	69707200 	ldmdbvs	r0!, {r9, ip, sp, lr}^
     de4:	7465735f 	strbtvc	r7, [r5], #-863	; 0x35f
     de8:	74756f5f 	ldrbtvc	r6, [r5], #-3935	; 0xf5f
     dec:	00747570 	rsbseq	r7, r4, r0, ror r5
     df0:	74646977 	strbtvc	r6, [r4], #-2423	; 0x977
     df4:	75700068 	ldrbvc	r0, [r0, #-104]!	; 0x68
     df8:	665f6374 			; <UNDEFINED> instruction: 0x665f6374
     dfc:	6d650070 	stclvs	0, cr0, [r5, #-448]!	; 0xfffffe40
     e00:	72007469 	andvc	r7, r0, #1761607680	; 0x69000000
     e04:	725f6970 	subsvc	r6, pc, #112, 18	; 0x1c0000
     e08:	6f6f6265 	svcvs	0x006f6265
     e0c:	73630074 	cmnvc	r3, #116	; 0x74
     e10:	65303431 	ldrvs	r3, [r0, #-1073]!	; 0x431
     e14:	6372732d 	cmnvs	r2, #-1275068416	; 0xb4000000
     e18:	656c632f 	strbvs	r6, [ip, #-815]!	; 0x32f
     e1c:	722d6e61 	eorvc	r6, sp, #1552	; 0x610
     e20:	6f6f6265 	svcvs	0x006f6265
     e24:	00632e74 	rsbeq	r2, r3, r4, ror lr
     e28:	34317363 	ldrtcc	r7, [r1], #-867	; 0x363
     e2c:	732d6530 	teqvc	sp, #48, 10	; 0xc000000
     e30:	632f6372 	teqvs	pc, #-939524095	; 0xc8000001
     e34:	72617473 	rsbvc	r7, r1, #1929379840	; 0x73000000
     e38:	00632e74 	rsbeq	r2, r3, r4, ror lr
     e3c:	73625f5f 	cmnvc	r2, #380	; 0x17c
     e40:	74735f73 	ldrbtvc	r5, [r3], #-3955	; 0xf73
     e44:	5f747261 	svcpl	0x00747261
     e48:	5f5f005f 	svcpl	0x005f005f
     e4c:	5f737362 	svcpl	0x00737362
     e50:	5f646e65 	svcpl	0x00646e65
     e54:	7362005f 	cmnvc	r2, #95	; 0x5f
     e58:	6e655f73 	mcrvs	15, 3, r5, cr5, cr3, {3}
     e5c:	635f0064 	cmpvs	pc, #100	; 0x64
     e60:	72617473 	rsbvc	r7, r1, #1929379840	; 0x73000000
     e64:	74610074 	strbtvc	r0, [r1], #-116	; 0x74
     e68:	6573755f 	ldrbvs	r7, [r3, #-1375]!	; 0x55f
     e6c:	656c5f72 	strbvs	r5, [ip, #-3954]!	; 0xf72
     e70:	006c6576 	rsbeq	r6, ip, r6, ror r5
     e74:	505f4d50 	subspl	r4, pc, r0, asr sp	; <UNPREDICTABLE>
     e78:	57535341 	ldrbpl	r5, [r3, -r1, asr #6]
     e7c:	0044524f 	subeq	r5, r4, pc, asr #4
     e80:	34317363 	ldrtcc	r7, [r1], #-867	; 0x363
     e84:	732d6530 	teqvc	sp, #48, 10	; 0xc000000
     e88:	722f6372 	eorvc	r6, pc, #-939524095	; 0xc8000001
     e8c:	6f6f6265 	svcvs	0x006f6265
     e90:	00632e74 	rsbeq	r2, r3, r4, ror lr
     e94:	525f4d50 	subspl	r4, pc, #80, 26	; 0x1400
     e98:	5f435453 	svcpl	0x00435453
     e9c:	46435257 			; <UNDEFINED> instruction: 0x46435257
     ea0:	55465f47 	strbpl	r5, [r6, #-3911]	; 0xf47
     ea4:	525f4c4c 	subspl	r4, pc, #76, 24	; 0x4c00
     ea8:	54455345 	strbpl	r5, [r5], #-837	; 0x345
     eac:	5f4d5000 	svcpl	0x004d5000
     eb0:	474f4457 	smlsldmi	r4, pc, r7, r4	; <UNPREDICTABLE>
     eb4:	74657300 	strbtvc	r7, [r5], #-768	; 0x300
     eb8:	6573755f 	ldrbvs	r7, [r3, #-1375]!	; 0x55f
     ebc:	656c5f72 	strbvs	r5, [ip, #-3954]!	; 0xf72
     ec0:	006c6576 	rsbeq	r6, ip, r6, ror r5
     ec4:	33545550 	cmpcc	r4, #80, 10	; 0x14000000
     ec8:	4d500032 	ldclmi	0, cr0, [r0, #-200]	; 0xffffff38
     ecc:	5453525f 	ldrbpl	r5, [r3], #-607	; 0x25f
     ed0:	70630043 	rsbvc	r0, r3, r3, asr #32
     ed4:	74007273 	strvc	r7, [r0], #-627	; 0x273
     ed8:	72656d69 	rsbvc	r6, r5, #6720	; 0x1a40
     edc:	7465675f 	strbtvc	r6, [r5], #-1887	; 0x75f
     ee0:	6573755f 	ldrbvs	r7, [r3, #-1375]!	; 0x55f
     ee4:	61725f63 	cmnvs	r2, r3, ror #30
     ee8:	65640077 	strbvs	r0, [r4, #-119]!	; 0x77
     eec:	5f79616c 	svcpl	0x0079616c
     ef0:	00636573 	rsbeq	r6, r3, r3, ror r5
     ef4:	34317363 	ldrtcc	r7, [r1], #-867	; 0x363
     ef8:	732d6530 	teqvc	sp, #48, 10	; 0xc000000
     efc:	742f6372 	strtvc	r6, [pc], #-882	; f04 <_start-0x70fc>
     f00:	72656d69 	rsbvc	r6, r5, #6720	; 0x1a40
     f04:	4700632e 	strmi	r6, [r0, -lr, lsr #6]
     f08:	32335445 	eorscc	r5, r3, #1157627904	; 0x45000000
     f0c:	63697400 	cmnvs	r9, #0, 8
     f10:	6400736b 	strvs	r7, [r0], #-875	; 0x36b
     f14:	79616c65 	stmdbvc	r1!, {r0, r2, r5, r6, sl, fp, sp, lr}^
     f18:	6379635f 	cmnvs	r9, #2080374785	; 0x7c000001
     f1c:	0073656c 	rsbseq	r6, r3, ip, ror #10
     f20:	616c6564 	cmnvs	ip, r4, ror #10
     f24:	73755f79 	cmnvc	r5, #484	; 0x1e4
     f28:	6d697400 	cfstrdvs	mvd7, [r9, #-0]
     f2c:	675f7265 	ldrbvs	r7, [pc, -r5, ror #4]
     f30:	755f7465 	ldrbvc	r7, [pc, #-1125]	; ad3 <_start-0x752d>
     f34:	00636573 	rsbeq	r6, r3, r3, ror r5
     f38:	6f697067 	svcvs	0x00697067
     f3c:	6576655f 	ldrbvs	r6, [r6, #-1375]!	; 0x55f
     f40:	645f746e 	ldrbvs	r7, [pc], #-1134	; f48 <_start-0x70b8>
     f44:	63657465 	cmnvs	r5, #1694498816	; 0x65000000
     f48:	00646574 	rsbeq	r6, r4, r4, ror r5
     f4c:	53465047 	movtpl	r5, #24647	; 0x6047
     f50:	00324c45 	eorseq	r4, r2, r5, asr #24
     f54:	4c435047 	mcrrmi	0, 4, r5, r3, cr7
     f58:	45003052 	strmi	r3, [r0, #-82]	; 0x52
     f5c:	4c42414e 	stfmie	f4, [r2], {78}	; 0x4e
     f60:	52495f45 	subpl	r5, r9, #276	; 0x114
     f64:	325f5351 	subscc	r5, pc, #1140850689	; 0x44000001
     f68:	5f736900 	svcpl	0x00736900
     f6c:	6f697067 	svcvs	0x00697067
     f70:	746e695f 	strbtvc	r6, [lr], #-2399	; 0x95f
     f74:	69706700 	ldmdbvs	r0!, {r8, r9, sl, sp, lr}^
     f78:	65735f6f 	ldrbvs	r5, [r3, #-3951]!	; 0xf6f
     f7c:	666f5f74 	uqsub16vs	r5, pc, r4	; <UNPREDICTABLE>
     f80:	796d0066 	stmdbvc	sp!, {r1, r2, r5, r6}^
     f84:	6372732d 	cmnvs	r2, #-1275068416	; 0xb4000000
     f88:	6970672f 	ldmdbvs	r0!, {r0, r1, r2, r3, r5, r8, r9, sl, sp, lr}^
     f8c:	00632e6f 	rsbeq	r2, r3, pc, ror #28
     f90:	5f746e69 	svcpl	0x00746e69
     f94:	6b73616d 	blvs	1cd9550 <__bss_end__+0x1cceff0>
     f98:	53504700 	cmppl	r0, #0, 14
     f9c:	00305445 	eorseq	r5, r0, r5, asr #8
     fa0:	45535047 	ldrbmi	r5, [r3, #-71]	; 0x47
     fa4:	72003154 	andvc	r3, r0, #84, 2
     fa8:	735f6765 	cmpvc	pc, #26476544	; 0x1940000
     fac:	00746174 	rsbseq	r6, r4, r4, ror r1
     fb0:	454c5047 	strbmi	r5, [ip, #-71]	; 0x47
     fb4:	47003056 	smlsdmi	r0, r6, r0, r3
     fb8:	56454c50 			; <UNDEFINED> instruction: 0x56454c50
     fbc:	70670031 	rsbvc	r0, r7, r1, lsr r0
     fc0:	725f6f69 	subsvc	r6, pc, #420	; 0x1a4
     fc4:	47006765 	strmi	r6, [r0, -r5, ror #14]
     fc8:	45534650 	ldrbmi	r4, [r3, #-1616]	; 0x650
     fcc:	4700304c 	strmi	r3, [r0, -ip, asr #32]
     fd0:	45534650 	ldrbmi	r4, [r3, #-1616]	; 0x650
     fd4:	4700314c 	strmi	r3, [r0, -ip, asr #2]
     fd8:	45534650 	ldrbmi	r4, [r3, #-1616]	; 0x650
     fdc:	4700334c 	strmi	r3, [r0, -ip, asr #6]
     fe0:	45534650 	ldrbmi	r4, [r3, #-1616]	; 0x650
     fe4:	4700344c 	strmi	r3, [r0, -ip, asr #8]
     fe8:	45534650 	ldrbmi	r4, [r3, #-1616]	; 0x650
     fec:	6700354c 	strvs	r3, [r0, -ip, asr #10]
     ff0:	5f6f6970 	svcpl	0x006f6970
     ff4:	6c657366 	stclvs	3, cr7, [r5], #-408	; 0xfffffe68
     ff8:	50470030 	subpl	r0, r7, r0, lsr r0
     ffc:	31524c43 	cmpcc	r2, r3, asr #24
    1000:	69706700 	ldmdbvs	r0!, {r8, r9, sl, sp, lr}^
    1004:	65725f6f 	ldrbvs	r5, [r2, #-3951]!	; 0xf6f
    1008:	67006461 	strvs	r6, [r0, -r1, ror #8]
    100c:	5f6f6970 	svcpl	0x006f6970
    1010:	5f746e69 	svcpl	0x00746e69
    1014:	69736972 	ldmdbvs	r3!, {r1, r4, r5, r6, r8, fp, sp, lr}^
    1018:	655f676e 	ldrbvs	r6, [pc, #-1902]	; 8b2 <_start-0x774e>
    101c:	00656764 	rsbeq	r6, r5, r4, ror #14
    1020:	45525047 	ldrbmi	r5, [r2, #-71]	; 0x47
    1024:	4700304e 	strmi	r3, [r0, -lr, asr #32]
    1028:	4e455250 	mcrmi	2, 2, r5, cr5, cr0, {2}
    102c:	70670031 	rsbvc	r0, r7, r1, lsr r0
    1030:	655f6f69 	ldrbvs	r6, [pc, #-3945]	; cf <_start-0x7f31>
    1034:	746e6576 	strbtvc	r6, [lr], #-1398	; 0x576
    1038:	656c635f 	strbvs	r6, [ip, #-863]!	; 0x35f
    103c:	49007261 	stmdbmi	r0, {r0, r5, r6, r9, ip, sp, lr}
    1040:	505f5152 	subspl	r5, pc, r2, asr r1	; <UNPREDICTABLE>
    1044:	49444e45 	stmdbmi	r4, {r0, r2, r6, r9, sl, fp, lr}^
    1048:	315f474e 	cmpcc	pc, lr, asr #14
    104c:	51524900 	cmppl	r2, r0, lsl #18
    1050:	4e45505f 	mcrmi	0, 2, r5, cr5, cr15, {2}
    1054:	474e4944 	strbmi	r4, [lr, -r4, asr #18]
    1058:	6200325f 	andvs	r3, r0, #-268435451	; 0xf0000005
    105c:	616d7469 	cmnvs	sp, r9, ror #8
    1060:	67006b73 	smlsdxvs	r0, r3, fp, r6
    1064:	5f6f6970 	svcpl	0x006f6970
    1068:	74697277 	strbtvc	r7, [r9], #-631	; 0x277
    106c:	70670065 	rsbvc	r0, r7, r5, rrx
    1070:	735f6f69 	cmpvc	pc, #420	; 0x1a4
    1074:	00307465 	eorseq	r7, r0, r5, ror #8
    1078:	6f697067 	svcvs	0x00697067
    107c:	7465735f 	strbtvc	r7, [r5], #-863	; 0x35f
    1080:	706e695f 	rsbvc	r6, lr, pc, asr r9
    1084:	67007475 	smlsdxvs	r0, r5, r4, r7
    1088:	5f6f6970 	svcpl	0x006f6970
    108c:	67676f74 			; <UNDEFINED> instruction: 0x67676f74
    1090:	4700656c 	strmi	r6, [r0, -ip, ror #10]
    1094:	53444550 	movtpl	r4, #17744	; 0x4550
    1098:	50470030 	subpl	r0, r7, r0, lsr r0
    109c:	31534445 	cmpcc	r3, r5, asr #8
    10a0:	69706700 	ldmdbvs	r0!, {r8, r9, sl, sp, lr}^
    10a4:	65735f6f 	ldrbvs	r5, [r3, #-3951]!	; 0xf6f
    10a8:	6e6f5f74 	mcrvs	15, 3, r5, cr15, cr4, {3}
    10ac:	46504700 	ldrbmi	r4, [r0], -r0, lsl #14
    10b0:	00304e45 	eorseq	r4, r0, r5, asr #28
    10b4:	45465047 	strbmi	r5, [r6, #-71]	; 0x47
    10b8:	6700314e 	strvs	r3, [r0, -lr, asr #2]
    10bc:	5f6f6970 	svcpl	0x006f6970
    10c0:	5f746573 	svcpl	0x00746573
    10c4:	7074756f 	rsbsvc	r7, r4, pc, ror #10
    10c8:	67007475 	smlsdxvs	r0, r5, r4, r7
    10cc:	5f6f6970 	svcpl	0x006f6970
    10d0:	5f746e69 	svcpl	0x00746e69
    10d4:	6c6c6166 	stfvse	f6, [ip], #-408	; 0xfffffe68
    10d8:	5f676e69 	svcpl	0x00676e69
    10dc:	65676465 	strbvs	r6, [r7, #-1125]!	; 0x465
    10e0:	69706700 	ldmdbvs	r0!, {r8, r9, sl, sp, lr}^
    10e4:	75665f6f 	strbvc	r5, [r6, #-3951]!	; 0xf6f
    10e8:	745f636e 	ldrbvc	r6, [pc], #-878	; 10f0 <_start-0x6f10>
    10ec:	67657200 	strbvs	r7, [r5, -r0, lsl #4]!
    10f0:	6c65735f 	stclvs	3, cr7, [r5], #-380	; 0xfffffe84
    10f4:	00746365 	rsbseq	r6, r4, r5, ror #6
    10f8:	6f697067 	svcvs	0x00697067
    10fc:	726c635f 	rsbvc	r6, ip, #2080374785	; 0x7c000001
    1100:	55410030 	strbpl	r0, [r1, #-48]	; 0x30
    1104:	554d5f58 	strbpl	r5, [sp, #-3928]	; 0xf58
    1108:	52434d5f 	subpl	r4, r3, #6080	; 0x17c0
    110c:	4745525f 	smlsldmi	r5, r5, pc, r2	; <UNPREDICTABLE>
    1110:	58554100 	ldmdapl	r5, {r8, lr}^
    1114:	5f554d5f 	svcpl	0x00554d5f
    1118:	525f4f49 	subspl	r4, pc, #292	; 0x124
    111c:	41004745 	tstmi	r0, r5, asr #14
    1120:	4d5f5855 	ldclmi	8, cr5, [pc, #-340]	; fd4 <_start-0x702c>
    1124:	534d5f55 	movtpl	r5, #57173	; 0xdf55
    1128:	45525f52 	ldrbmi	r5, [r2, #-3922]	; 0xf52
    112c:	61750047 	cmnvs	r5, r7, asr #32
    1130:	635f7472 	cmpvs	pc, #1912602624	; 0x72000000
    1134:	675f6e61 	ldrbvs	r6, [pc, -r1, ror #28]
    1138:	00637465 	rsbeq	r7, r3, r5, ror #8
    113c:	5f585541 	svcpl	0x00585541
    1140:	435f554d 	cmpmi	pc, #322961408	; 0x13400000
    1144:	5f4c544e 	svcpl	0x004c544e
    1148:	00474552 	subeq	r4, r7, r2, asr r5
    114c:	74726175 	ldrbtvc	r6, [r2], #-373	; 0x175
    1150:	7361685f 	cmnvc	r1, #6225920	; 0x5f0000
    1154:	7461645f 	strbtvc	r6, [r1], #-1119	; 0x45f
    1158:	55410061 	strbpl	r0, [r1, #-97]	; 0x61
    115c:	554d5f58 	strbpl	r5, [sp, #-3928]	; 0xf58
    1160:	5245495f 	subpl	r4, r5, #1556480	; 0x17c000
    1164:	4745525f 	smlsldmi	r5, r5, pc, r2	; <UNPREDICTABLE>
    1168:	72617500 	rsbvc	r7, r1, #0, 10
    116c:	65675f74 	strbvs	r5, [r7, #-3956]!	; 0xf74
    1170:	41006374 	tstmi	r0, r4, ror r3
    1174:	4d5f5855 	ldclmi	8, cr5, [pc, #-340]	; 1028 <_start-0x6fd8>
    1178:	49495f55 	stmdbmi	r9, {r0, r2, r4, r6, r8, r9, sl, fp, ip, lr}^
    117c:	45525f52 	ldrbmi	r5, [r2, #-3922]	; 0xf52
    1180:	61750047 	cmnvs	r5, r7, asr #32
    1184:	635f7472 	cmpvs	pc, #1912602624	; 0x72000000
    1188:	705f6e61 	subsvc	r6, pc, r1, ror #28
    118c:	00637475 	rsbeq	r7, r3, r5, ror r4
    1190:	5f585541 	svcpl	0x00585541
    1194:	42414e45 	submi	r4, r1, #1104	; 0x450
    1198:	0053454c 	subseq	r4, r3, ip, asr #10
    119c:	5f585541 	svcpl	0x00585541
    11a0:	00515249 	subseq	r5, r1, r9, asr #4
    11a4:	5f585541 	svcpl	0x00585541
    11a8:	425f554d 	subsmi	r5, pc, #322961408	; 0x13400000
    11ac:	5f445541 	svcpl	0x00445541
    11b0:	00474552 	subeq	r4, r7, r2, asr r5
    11b4:	5f585541 	svcpl	0x00585541
    11b8:	535f554d 	cmppl	pc, #322961408	; 0x13400000
    11bc:	5f544154 	svcpl	0x00544154
    11c0:	00474552 	subeq	r4, r7, r2, asr r5
    11c4:	5f585541 	svcpl	0x00585541
    11c8:	535f554d 	cmppl	pc, #322961408	; 0x13400000
    11cc:	54415243 	strbpl	r5, [r1], #-579	; 0x243
    11d0:	6d004843 	stcvs	8, cr4, [r0, #-268]	; 0xfffffef4
    11d4:	72732d79 	rsbsvc	r2, r3, #7744	; 0x1e40
    11d8:	61752f63 	cmnvs	r5, r3, ror #30
    11dc:	632e7472 	teqvs	lr, #1912602624	; 0x72000000
    11e0:	58554100 	ldmdapl	r5, {r8, lr}^
    11e4:	5f554d5f 	svcpl	0x00554d5f
    11e8:	5f52434c 	svcpl	0x0052434c
    11ec:	00474552 	subeq	r4, r7, r2, asr r5
    11f0:	5f585541 	svcpl	0x00585541
    11f4:	4c5f554d 	cfldr64mi	mvdx5, [pc], {77}	; 0x4d
    11f8:	525f5253 	subspl	r5, pc, #805306373	; 0x30000005
    11fc:	75004745 	strvc	r4, [r0, #-1861]	; 0x745
    1200:	5f747261 	svcpl	0x00747261
    1204:	63746567 	cmnvs	r4, #432013312	; 0x19c00000
    1208:	7973615f 	ldmdbvc	r3!, {r0, r1, r2, r3, r4, r6, r8, sp, lr}^
    120c:	Address 0x000000000000120c is out of bounds.


Disassembly of section .debug_frame:

00000000 <.debug_frame>:
   0:	0000000c 	andeq	r0, r0, ip
   4:	ffffffff 			; <UNDEFINED> instruction: 0xffffffff
   8:	7c020001 	stcvc	0, cr0, [r2], {1}
   c:	000d0c0e 	andeq	r0, sp, lr, lsl #24
  10:	0000000c 	andeq	r0, r0, ip
  14:	00000000 	andeq	r0, r0, r0
  18:	00008010 	andeq	r8, r0, r0, lsl r0
  1c:	00000010 	andeq	r0, r0, r0, lsl r0
  20:	0000000c 	andeq	r0, r0, ip
  24:	00000000 	andeq	r0, r0, r0
  28:	00008020 	andeq	r8, r0, r0, lsr #32
  2c:	0000000c 	andeq	r0, r0, ip
  30:	0000000c 	andeq	r0, r0, ip
  34:	00000000 	andeq	r0, r0, r0
  38:	0000802c 	andeq	r8, r0, ip, lsr #32
  3c:	0000001c 	andeq	r0, r0, ip, lsl r0
  40:	00000020 	andeq	r0, r0, r0, lsr #32
  44:	00000000 	andeq	r0, r0, r0
  48:	00008048 	andeq	r8, r0, r8, asr #32
  4c:	00000068 	andeq	r0, r0, r8, rrx
  50:	42080e42 	andmi	r0, r8, #1056	; 0x420
  54:	0883200e 	stmeq	r3, {r1, r2, r3, sp}
  58:	06850784 	streq	r0, [r5], r4, lsl #15
  5c:	04870586 	streq	r0, [r7], #1414	; 0x586
  60:	0000038e 	andeq	r0, r0, lr, lsl #7
  64:	0000001c 	andeq	r0, r0, ip, lsl r0
  68:	00000000 	andeq	r0, r0, r0
  6c:	000080b0 	strheq	r8, [r0], -r0
  70:	000000b0 	strheq	r0, [r0], -r0	; <UNPREDICTABLE>
  74:	84140e42 	ldrhi	r0, [r4], #-3650	; 0xe42
  78:	86048505 	strhi	r8, [r4], -r5, lsl #10
  7c:	8e028703 	cdphi	7, 0, cr8, cr2, cr3, {0}
  80:	280e4201 	stmdacs	lr, {r0, r9, lr}
  84:	00000018 	andeq	r0, r0, r8, lsl r0
  88:	00000000 	andeq	r0, r0, r0
  8c:	00008160 	andeq	r8, r0, r0, ror #2
  90:	00000094 	muleq	r0, r4, r0
  94:	84080e42 	strhi	r0, [r8], #-3650	; 0xe42
  98:	42018e02 	andmi	r8, r1, #2, 28
  9c:	0000180e 	andeq	r1, r0, lr, lsl #16
  a0:	00000014 	andeq	r0, r0, r4, lsl r0
  a4:	00000000 	andeq	r0, r0, r0
  a8:	000081f4 	strdeq	r8, [r0], -r4
  ac:	0000007c 	andeq	r0, r0, ip, ror r0
  b0:	8e040e42 	cdphi	14, 0, cr0, cr4, cr2, {2}
  b4:	100e4201 	andne	r4, lr, r1, lsl #4
  b8:	0000001c 	andeq	r0, r0, ip, lsl r0
  bc:	00000000 	andeq	r0, r0, r0
  c0:	00008270 	andeq	r8, r0, r0, ror r2
  c4:	00000098 	muleq	r0, r8, r0
  c8:	84100e42 	ldrhi	r0, [r0], #-3650	; 0xe42
  cc:	86038504 	strhi	r8, [r3], -r4, lsl #10
  d0:	42018e02 	andmi	r8, r1, #2, 28
  d4:	0000180e 	andeq	r1, r0, lr, lsl #16
  d8:	00000014 	andeq	r0, r0, r4, lsl r0
  dc:	00000000 	andeq	r0, r0, r0
  e0:	00008308 	andeq	r8, r0, r8, lsl #6
  e4:	00000088 	andeq	r0, r0, r8, lsl #1
  e8:	83080e42 	movwhi	r0, #36418	; 0x8e42
  ec:	00018e02 	andeq	r8, r1, r2, lsl #28
  f0:	0000001c 	andeq	r0, r0, ip, lsl r0
  f4:	00000000 	andeq	r0, r0, r0
  f8:	00008390 	muleq	r0, r0, r3
  fc:	00000158 	andeq	r0, r0, r8, asr r1
 100:	84140e42 	ldrhi	r0, [r4], #-3650	; 0xe42
 104:	86048505 	strhi	r8, [r4], -r5, lsl #10
 108:	8e028703 	cdphi	7, 0, cr8, cr2, cr3, {0}
 10c:	200e4201 	andcs	r4, lr, r1, lsl #4
 110:	00000014 	andeq	r0, r0, r4, lsl r0
 114:	00000000 	andeq	r0, r0, r0
 118:	000084e8 	andeq	r8, r0, r8, ror #9
 11c:	00000028 	andeq	r0, r0, r8, lsr #32
 120:	83080e42 	movwhi	r0, #36418	; 0x8e42
 124:	00018e02 	andeq	r8, r1, r2, lsl #28
 128:	0000001c 	andeq	r0, r0, ip, lsl r0
 12c:	00000000 	andeq	r0, r0, r0
 130:	00008510 	andeq	r8, r0, r0, lsl r5
 134:	00000078 	andeq	r0, r0, r8, ror r0
 138:	84100e42 	ldrhi	r0, [r0], #-3650	; 0xe42
 13c:	86038504 	strhi	r8, [r3], -r4, lsl #10
 140:	42018e02 	andmi	r8, r1, #2, 28
 144:	0000180e 	andeq	r1, r0, lr, lsl #16
 148:	00000020 	andeq	r0, r0, r0, lsr #32
 14c:	00000000 	andeq	r0, r0, r0
 150:	00008588 	andeq	r8, r0, r8, lsl #11
 154:	0000012c 	andeq	r0, r0, ip, lsr #2
 158:	841c0e42 	ldrhi	r0, [ip], #-3650	; 0xe42
 15c:	86068507 	strhi	r8, [r6], -r7, lsl #10
 160:	88048705 	stmdahi	r4, {r0, r2, r8, r9, sl, pc}
 164:	8e028903 	cdphi	9, 0, cr8, cr2, cr3, {0}
 168:	580e4201 	stmdapl	lr, {r0, r9, lr}
 16c:	00000018 	andeq	r0, r0, r8, lsl r0
 170:	00000000 	andeq	r0, r0, r0
 174:	000086b4 			; <UNDEFINED> instruction: 0x000086b4
 178:	00000080 	andeq	r0, r0, r0, lsl #1
 17c:	84080e42 	strhi	r0, [r8], #-3650	; 0xe42
 180:	42018e02 	andmi	r8, r1, #2, 28
 184:	0000100e 	andeq	r1, r0, lr
 188:	0000000c 	andeq	r0, r0, ip
 18c:	ffffffff 			; <UNDEFINED> instruction: 0xffffffff
 190:	7c020001 	stcvc	0, cr0, [r2], {1}
 194:	000d0c0e 	andeq	r0, sp, lr, lsl #24
 198:	0000000c 	andeq	r0, r0, ip
 19c:	00000188 	andeq	r0, r0, r8, lsl #3
 1a0:	00008734 	andeq	r8, r0, r4, lsr r7
 1a4:	00000014 	andeq	r0, r0, r4, lsl r0
 1a8:	0000000c 	andeq	r0, r0, ip
 1ac:	00000188 	andeq	r0, r0, r8, lsl #3
 1b0:	00008748 	andeq	r8, r0, r8, asr #14
 1b4:	0000000c 	andeq	r0, r0, ip
 1b8:	00000014 	andeq	r0, r0, r4, lsl r0
 1bc:	00000188 	andeq	r0, r0, r8, lsl #3
 1c0:	00008754 	andeq	r8, r0, r4, asr r7
 1c4:	00000008 	andeq	r0, r0, r8
 1c8:	8e040e42 	cdphi	14, 0, cr0, cr4, cr2, {2}
 1cc:	00000001 	andeq	r0, r0, r1
 1d0:	00000014 	andeq	r0, r0, r4, lsl r0
 1d4:	00000188 	andeq	r0, r0, r8, lsl #3
 1d8:	0000875c 	andeq	r8, r0, ip, asr r7
 1dc:	000000f0 	strdeq	r0, [r0], -r0	; <UNPREDICTABLE>
 1e0:	84080e42 	strhi	r0, [r8], #-3650	; 0xe42
 1e4:	00018e02 	andeq	r8, r1, r2, lsl #28
 1e8:	00000014 	andeq	r0, r0, r4, lsl r0
 1ec:	00000188 	andeq	r0, r0, r8, lsl #3
 1f0:	0000884c 	andeq	r8, r0, ip, asr #16
 1f4:	00000010 	andeq	r0, r0, r0, lsl r0
 1f8:	84080e42 	strhi	r0, [r8], #-3650	; 0xe42
 1fc:	00018e02 	andeq	r8, r1, r2, lsl #28
 200:	00000014 	andeq	r0, r0, r4, lsl r0
 204:	00000188 	andeq	r0, r0, r8, lsl #3
 208:	0000885c 	andeq	r8, r0, ip, asr r8
 20c:	00000028 	andeq	r0, r0, r8, lsr #32
 210:	84080e42 	strhi	r0, [r8], #-3650	; 0xe42
 214:	00018e02 	andeq	r8, r1, r2, lsl #28
 218:	00000014 	andeq	r0, r0, r4, lsl r0
 21c:	00000188 	andeq	r0, r0, r8, lsl #3
 220:	00008884 	andeq	r8, r0, r4, lsl #17
 224:	00000010 	andeq	r0, r0, r0, lsl r0
 228:	84080e42 	strhi	r0, [r8], #-3650	; 0xe42
 22c:	00018e02 	andeq	r8, r1, r2, lsl #28
 230:	00000018 	andeq	r0, r0, r8, lsl r0
 234:	00000188 	andeq	r0, r0, r8, lsl #3
 238:	00008894 	muleq	r0, r4, r8
 23c:	000001c8 	andeq	r0, r0, r8, asr #3
 240:	84100e42 	ldrhi	r0, [r0], #-3650	; 0xe42
 244:	86038504 	strhi	r8, [r3], -r4, lsl #10
 248:	00018e02 	andeq	r8, r1, r2, lsl #28
 24c:	00000018 	andeq	r0, r0, r8, lsl r0
 250:	00000188 	andeq	r0, r0, r8, lsl #3
 254:	00008a5c 	andeq	r8, r0, ip, asr sl
 258:	000000c4 	andeq	r0, r0, r4, asr #1
 25c:	84100e42 	ldrhi	r0, [r0], #-3650	; 0xe42
 260:	86038504 	strhi	r8, [r3], -r4, lsl #10
 264:	00018e02 	andeq	r8, r1, r2, lsl #28
 268:	00000018 	andeq	r0, r0, r8, lsl r0
 26c:	00000188 	andeq	r0, r0, r8, lsl #3
 270:	00008b20 	andeq	r8, r0, r0, lsr #22
 274:	000000c0 	andeq	r0, r0, r0, asr #1
 278:	84100e42 	ldrhi	r0, [r0], #-3650	; 0xe42
 27c:	86038504 	strhi	r8, [r3], -r4, lsl #10
 280:	00018e02 	andeq	r8, r1, r2, lsl #28
 284:	0000000c 	andeq	r0, r0, ip
 288:	00000188 	andeq	r0, r0, r8, lsl #3
 28c:	00008be0 	andeq	r8, r0, r0, ror #23
 290:	00000010 	andeq	r0, r0, r0, lsl r0
 294:	00000014 	andeq	r0, r0, r4, lsl r0
 298:	00000188 	andeq	r0, r0, r8, lsl #3
 29c:	00008bf0 	strdeq	r8, [r0], -r0
 2a0:	00000094 	muleq	r0, r4, r0
 2a4:	84080e42 	strhi	r0, [r8], #-3650	; 0xe42
 2a8:	00018e02 	andeq	r8, r1, r2, lsl #28
 2ac:	00000014 	andeq	r0, r0, r4, lsl r0
 2b0:	00000188 	andeq	r0, r0, r8, lsl #3
 2b4:	00008c84 	andeq	r8, r0, r4, lsl #25
 2b8:	00000018 	andeq	r0, r0, r8, lsl r0
 2bc:	84080e42 	strhi	r0, [r8], #-3650	; 0xe42
 2c0:	00018e02 	andeq	r8, r1, r2, lsl #28
 2c4:	0000000c 	andeq	r0, r0, ip
 2c8:	ffffffff 			; <UNDEFINED> instruction: 0xffffffff
 2cc:	7c020001 	stcvc	0, cr0, [r2], {1}
 2d0:	000d0c0e 	andeq	r0, sp, lr, lsl #24
 2d4:	00000024 	andeq	r0, r0, r4, lsr #32
 2d8:	000002c4 	andeq	r0, r0, r4, asr #5
 2dc:	00008c9c 	muleq	r0, ip, ip
 2e0:	00000058 	andeq	r0, r0, r8, asr r0
 2e4:	80100e42 	andshi	r0, r0, r2, asr #28
 2e8:	82038104 	andhi	r8, r3, #4, 2
 2ec:	42018302 	andmi	r8, r1, #134217728	; 0x8000000
 2f0:	07841c0e 	streq	r1, [r4, lr, lsl #24]
 2f4:	058e0685 	streq	r0, [lr, #1669]	; 0x685
 2f8:	00280e42 	eoreq	r0, r8, r2, asr #28
 2fc:	0000000c 	andeq	r0, r0, ip
 300:	ffffffff 			; <UNDEFINED> instruction: 0xffffffff
 304:	7c020001 	stcvc	0, cr0, [r2], {1}
 308:	000d0c0e 	andeq	r0, sp, lr, lsl #24
 30c:	00000014 	andeq	r0, r0, r4, lsl r0
 310:	000002fc 	strdeq	r0, [r0], -ip
 314:	00008cf4 	strdeq	r8, [r0], -r4
 318:	00000014 	andeq	r0, r0, r4, lsl r0
 31c:	84080e42 	strhi	r0, [r8], #-3650	; 0xe42
 320:	00018e02 	andeq	r8, r1, r2, lsl #28
 324:	0000000c 	andeq	r0, r0, ip
 328:	000002fc 	strdeq	r0, [r0], -ip
 32c:	00008d08 	andeq	r8, r0, r8, lsl #26
 330:	00000018 	andeq	r0, r0, r8, lsl r0
 334:	0000000c 	andeq	r0, r0, ip
 338:	000002fc 	strdeq	r0, [r0], -ip
 33c:	00008d20 	andeq	r8, r0, r0, lsr #26
 340:	00000010 	andeq	r0, r0, r0, lsl r0
 344:	0000000c 	andeq	r0, r0, ip
 348:	ffffffff 			; <UNDEFINED> instruction: 0xffffffff
 34c:	7c020001 	stcvc	0, cr0, [r2], {1}
 350:	000d0c0e 	andeq	r0, sp, lr, lsl #24
 354:	00000018 	andeq	r0, r0, r8, lsl r0
 358:	00000344 	andeq	r0, r0, r4, asr #6
 35c:	00008d30 	andeq	r8, r0, r0, lsr sp
 360:	00000034 	andeq	r0, r0, r4, lsr r0
 364:	83100e42 	tsthi	r0, #1056	; 0x420
 368:	85038404 	strhi	r8, [r3, #-1028]	; 0x404
 36c:	00018e02 	andeq	r8, r1, r2, lsl #28
 370:	0000000c 	andeq	r0, r0, ip
 374:	ffffffff 			; <UNDEFINED> instruction: 0xffffffff
 378:	7c020001 	stcvc	0, cr0, [r2], {1}
 37c:	000d0c0e 	andeq	r0, sp, lr, lsl #24
 380:	0000000c 	andeq	r0, r0, ip
 384:	00000370 	andeq	r0, r0, r0, ror r3
 388:	00008d64 	andeq	r8, r0, r4, ror #26
 38c:	00000014 	andeq	r0, r0, r4, lsl r0
 390:	0000000c 	andeq	r0, r0, ip
 394:	00000370 	andeq	r0, r0, r0, ror r3
 398:	00008d78 	andeq	r8, r0, r8, ror sp
 39c:	0000002c 	andeq	r0, r0, ip, lsr #32
 3a0:	0000000c 	andeq	r0, r0, ip
 3a4:	00000370 	andeq	r0, r0, r0, ror r3
 3a8:	00008da4 	andeq	r8, r0, r4, lsr #27
 3ac:	00000040 	andeq	r0, r0, r0, asr #32
 3b0:	00000020 	andeq	r0, r0, r0, lsr #32
 3b4:	00000370 	andeq	r0, r0, r0, ror r3
 3b8:	00008de4 	andeq	r8, r0, r4, ror #27
 3bc:	0000019c 	muleq	r0, ip, r1
 3c0:	84180e42 	ldrhi	r0, [r8], #-3650	; 0xe42
 3c4:	86058506 	strhi	r8, [r5], -r6, lsl #10
 3c8:	88038704 	stmdahi	r3, {r2, r8, r9, sl, pc}
 3cc:	42018e02 	andmi	r8, r1, #2, 28
 3d0:	0000580e 	andeq	r5, r0, lr, lsl #16
 3d4:	00000014 	andeq	r0, r0, r4, lsl r0
 3d8:	00000370 	andeq	r0, r0, r0, ror r3
 3dc:	00008f80 	andeq	r8, r0, r0, lsl #31
 3e0:	00000054 	andeq	r0, r0, r4, asr r0
 3e4:	83080e42 	movwhi	r0, #36418	; 0x8e42
 3e8:	00018e02 	andeq	r8, r1, r2, lsl #28
 3ec:	00000028 	andeq	r0, r0, r8, lsr #32
 3f0:	00000370 	andeq	r0, r0, r0, ror r3
 3f4:	00008fd4 	ldrdeq	r8, [r0], -r4
 3f8:	00000288 	andeq	r0, r0, r8, lsl #5
 3fc:	84240e42 	strthi	r0, [r4], #-3650	; 0xe42
 400:	86088509 	strhi	r8, [r8], -r9, lsl #10
 404:	88068707 	stmdahi	r6, {r0, r1, r2, r8, r9, sl, pc}
 408:	8a048905 	bhi	122824 <__bss_end__+0x1182c4>
 40c:	8e028b03 	vmlahi.f64	d8, d2, d3
 410:	b00e4201 	andlt	r4, lr, r1, lsl #4
 414:	00000001 	andeq	r0, r0, r1
 418:	0000000c 	andeq	r0, r0, ip
 41c:	ffffffff 			; <UNDEFINED> instruction: 0xffffffff
 420:	7c020001 	stcvc	0, cr0, [r2], {1}
 424:	000d0c0e 	andeq	r0, sp, lr, lsl #24
 428:	00000014 	andeq	r0, r0, r4, lsl r0
 42c:	00000418 	andeq	r0, r0, r8, lsl r4
 430:	0000925c 	andeq	r9, r0, ip, asr r2
 434:	00000028 	andeq	r0, r0, r8, lsr #32
 438:	83080e42 	movwhi	r0, #36418	; 0x8e42
 43c:	00018e02 	andeq	r8, r1, r2, lsl #28
 440:	0000000c 	andeq	r0, r0, ip
 444:	ffffffff 			; <UNDEFINED> instruction: 0xffffffff
 448:	7c020001 	stcvc	0, cr0, [r2], {1}
 44c:	000d0c0e 	andeq	r0, sp, lr, lsl #24
 450:	00000014 	andeq	r0, r0, r4, lsl r0
 454:	00000440 	andeq	r0, r0, r0, asr #8
 458:	00009284 	andeq	r9, r0, r4, lsl #5
 45c:	00000034 	andeq	r0, r0, r4, lsr r0
 460:	83080e42 	movwhi	r0, #36418	; 0x8e42
 464:	00018e02 	andeq	r8, r1, r2, lsl #28
 468:	0000000c 	andeq	r0, r0, ip
 46c:	ffffffff 			; <UNDEFINED> instruction: 0xffffffff
 470:	7c020001 	stcvc	0, cr0, [r2], {1}
 474:	000d0c0e 	andeq	r0, sp, lr, lsl #24
 478:	0000000c 	andeq	r0, r0, ip
 47c:	00000468 	andeq	r0, r0, r8, ror #8
 480:	000092b8 			; <UNDEFINED> instruction: 0x000092b8
 484:	00000018 	andeq	r0, r0, r8, lsl r0
 488:	0000000c 	andeq	r0, r0, ip
 48c:	00000468 	andeq	r0, r0, r8, ror #8
 490:	000092d0 	ldrdeq	r9, [r0], -r0
 494:	00000014 	andeq	r0, r0, r4, lsl r0
 498:	00000014 	andeq	r0, r0, r4, lsl r0
 49c:	00000468 	andeq	r0, r0, r8, ror #8
 4a0:	000092e4 	andeq	r9, r0, r4, ror #5
 4a4:	00000048 	andeq	r0, r0, r8, asr #32
 4a8:	83080e42 	movwhi	r0, #36418	; 0x8e42
 4ac:	00018e02 	andeq	r8, r1, r2, lsl #28
 4b0:	0000000c 	andeq	r0, r0, ip
 4b4:	ffffffff 			; <UNDEFINED> instruction: 0xffffffff
 4b8:	7c020001 	stcvc	0, cr0, [r2], {1}
 4bc:	000d0c0e 	andeq	r0, sp, lr, lsl #24
 4c0:	0000000c 	andeq	r0, r0, ip
 4c4:	000004b0 			; <UNDEFINED> instruction: 0x000004b0
 4c8:	0000932c 	andeq	r9, r0, ip, lsr #6
 4cc:	0000001c 	andeq	r0, r0, ip, lsl r0
 4d0:	00000014 	andeq	r0, r0, r4, lsl r0
 4d4:	000004b0 			; <UNDEFINED> instruction: 0x000004b0
 4d8:	00009348 	andeq	r9, r0, r8, asr #6
 4dc:	00000014 	andeq	r0, r0, r4, lsl r0
 4e0:	83080e42 	movwhi	r0, #36418	; 0x8e42
 4e4:	00018e02 	andeq	r8, r1, r2, lsl #28
 4e8:	00000014 	andeq	r0, r0, r4, lsl r0
 4ec:	000004b0 			; <UNDEFINED> instruction: 0x000004b0
 4f0:	0000935c 	andeq	r9, r0, ip, asr r3
 4f4:	0000000c 	andeq	r0, r0, ip
 4f8:	83080e42 	movwhi	r0, #36418	; 0x8e42
 4fc:	00018e02 	andeq	r8, r1, r2, lsl #28
 500:	00000018 	andeq	r0, r0, r8, lsl r0
 504:	000004b0 			; <UNDEFINED> instruction: 0x000004b0
 508:	00009368 	andeq	r9, r0, r8, ror #6
 50c:	00000024 	andeq	r0, r0, r4, lsr #32
 510:	83100e42 	tsthi	r0, #1056	; 0x420
 514:	85038404 	strhi	r8, [r3, #-1028]	; 0x404
 518:	00018e02 	andeq	r8, r1, r2, lsl #28
 51c:	00000014 	andeq	r0, r0, r4, lsl r0
 520:	000004b0 			; <UNDEFINED> instruction: 0x000004b0
 524:	0000938c 	andeq	r9, r0, ip, lsl #7
 528:	00000014 	andeq	r0, r0, r4, lsl r0
 52c:	83080e42 	movwhi	r0, #36418	; 0x8e42
 530:	00018e02 	andeq	r8, r1, r2, lsl #28
 534:	00000014 	andeq	r0, r0, r4, lsl r0
 538:	000004b0 			; <UNDEFINED> instruction: 0x000004b0
 53c:	000093a0 	andeq	r9, r0, r0, lsr #7
 540:	00000014 	andeq	r0, r0, r4, lsl r0
 544:	83080e42 	movwhi	r0, #36418	; 0x8e42
 548:	00018e02 	andeq	r8, r1, r2, lsl #28
 54c:	0000000c 	andeq	r0, r0, ip
 550:	ffffffff 			; <UNDEFINED> instruction: 0xffffffff
 554:	7c020001 	stcvc	0, cr0, [r2], {1}
 558:	000d0c0e 	andeq	r0, sp, lr, lsl #24
 55c:	00000018 	andeq	r0, r0, r8, lsl r0
 560:	0000054c 	andeq	r0, r0, ip, asr #10
 564:	000093b4 			; <UNDEFINED> instruction: 0x000093b4
 568:	000000d4 	ldrdeq	r0, [r0], -r4
 56c:	83100e42 	tsthi	r0, #1056	; 0x420
 570:	85038404 	strhi	r8, [r3, #-1028]	; 0x404
 574:	00018e02 	andeq	r8, r1, r2, lsl #28
 578:	00000014 	andeq	r0, r0, r4, lsl r0
 57c:	0000054c 	andeq	r0, r0, ip, asr #10
 580:	00009488 	andeq	r9, r0, r8, lsl #9
 584:	00000038 	andeq	r0, r0, r8, lsr r0
 588:	83080e42 	movwhi	r0, #36418	; 0x8e42
 58c:	00018e02 	andeq	r8, r1, r2, lsl #28
 590:	00000014 	andeq	r0, r0, r4, lsl r0
 594:	0000054c 	andeq	r0, r0, ip, asr #10
 598:	000094c0 	andeq	r9, r0, r0, asr #9
 59c:	00000038 	andeq	r0, r0, r8, lsr r0
 5a0:	83080e42 	movwhi	r0, #36418	; 0x8e42
 5a4:	00018e02 	andeq	r8, r1, r2, lsl #28
 5a8:	00000018 	andeq	r0, r0, r8, lsl r0
 5ac:	0000054c 	andeq	r0, r0, ip, asr #10
 5b0:	000094f8 	strdeq	r9, [r0], -r8
 5b4:	000000cc 	andeq	r0, r0, ip, asr #1
 5b8:	83100e42 	tsthi	r0, #1056	; 0x420
 5bc:	85038404 	strhi	r8, [r3, #-1028]	; 0x404
 5c0:	00018e02 	andeq	r8, r1, r2, lsl #28
 5c4:	00000014 	andeq	r0, r0, r4, lsl r0
 5c8:	0000054c 	andeq	r0, r0, ip, asr #10
 5cc:	000095c4 	andeq	r9, r0, r4, asr #11
 5d0:	0000004c 	andeq	r0, r0, ip, asr #32
 5d4:	84080e42 	strhi	r0, [r8], #-3650	; 0xe42
 5d8:	00018e02 	andeq	r8, r1, r2, lsl #28
 5dc:	00000014 	andeq	r0, r0, r4, lsl r0
 5e0:	0000054c 	andeq	r0, r0, ip, asr #10
 5e4:	00009610 	andeq	r9, r0, r0, lsl r6
 5e8:	00000024 	andeq	r0, r0, r4, lsr #32
 5ec:	83080e42 	movwhi	r0, #36418	; 0x8e42
 5f0:	00018e02 	andeq	r8, r1, r2, lsl #28
 5f4:	00000018 	andeq	r0, r0, r8, lsl r0
 5f8:	0000054c 	andeq	r0, r0, ip, asr #10
 5fc:	00009634 	andeq	r9, r0, r4, lsr r6
 600:	000000d8 	ldrdeq	r0, [r0], -r8
 604:	84100e42 	ldrhi	r0, [r0], #-3650	; 0xe42
 608:	86038504 	strhi	r8, [r3], -r4, lsl #10
 60c:	00018e02 	andeq	r8, r1, r2, lsl #28
 610:	00000014 	andeq	r0, r0, r4, lsl r0
 614:	0000054c 	andeq	r0, r0, ip, asr #10
 618:	0000970c 	andeq	r9, r0, ip, lsl #14
 61c:	00000038 	andeq	r0, r0, r8, lsr r0
 620:	83080e42 	movwhi	r0, #36418	; 0x8e42
 624:	00018e02 	andeq	r8, r1, r2, lsl #28
 628:	00000014 	andeq	r0, r0, r4, lsl r0
 62c:	0000054c 	andeq	r0, r0, ip, asr #10
 630:	00009744 	andeq	r9, r0, r4, asr #14
 634:	0000002c 	andeq	r0, r0, ip, lsr #32
 638:	83080e42 	movwhi	r0, #36418	; 0x8e42
 63c:	00018e02 	andeq	r8, r1, r2, lsl #28
 640:	00000018 	andeq	r0, r0, r8, lsl r0
 644:	0000054c 	andeq	r0, r0, ip, asr #10
 648:	00009770 	andeq	r9, r0, r0, ror r7
 64c:	00000084 	andeq	r0, r0, r4, lsl #1
 650:	83100e42 	tsthi	r0, #1056	; 0x420
 654:	85038404 	strhi	r8, [r3, #-1028]	; 0x404
 658:	00018e02 	andeq	r8, r1, r2, lsl #28
 65c:	00000018 	andeq	r0, r0, r8, lsl r0
 660:	0000054c 	andeq	r0, r0, ip, asr #10
 664:	000097f4 	strdeq	r9, [r0], -r4
 668:	00000084 	andeq	r0, r0, r4, lsl #1
 66c:	83100e42 	tsthi	r0, #1056	; 0x420
 670:	85038404 	strhi	r8, [r3, #-1028]	; 0x404
 674:	00018e02 	andeq	r8, r1, r2, lsl #28
 678:	00000014 	andeq	r0, r0, r4, lsl r0
 67c:	0000054c 	andeq	r0, r0, ip, asr #10
 680:	00009878 	andeq	r9, r0, r8, ror r8
 684:	00000084 	andeq	r0, r0, r4, lsl #1
 688:	84080e42 	strhi	r0, [r8], #-3650	; 0xe42
 68c:	00018e02 	andeq	r8, r1, r2, lsl #28
 690:	00000014 	andeq	r0, r0, r4, lsl r0
 694:	0000054c 	andeq	r0, r0, ip, asr #10
 698:	000098fc 	strdeq	r9, [r0], -ip
 69c:	00000058 	andeq	r0, r0, r8, asr r0
 6a0:	84080e42 	strhi	r0, [r8], #-3650	; 0xe42
 6a4:	00018e02 	andeq	r8, r1, r2, lsl #28
 6a8:	0000000c 	andeq	r0, r0, ip
 6ac:	ffffffff 			; <UNDEFINED> instruction: 0xffffffff
 6b0:	7c020001 	stcvc	0, cr0, [r2], {1}
 6b4:	000d0c0e 	andeq	r0, sp, lr, lsl #24
 6b8:	00000018 	andeq	r0, r0, r8, lsl r0
 6bc:	000006a8 	andeq	r0, r0, r8, lsr #13
 6c0:	00009954 	andeq	r9, r0, r4, asr r9
 6c4:	0000009c 	muleq	r0, ip, r0
 6c8:	83100e42 	tsthi	r0, #1056	; 0x420
 6cc:	85038404 	strhi	r8, [r3, #-1028]	; 0x404
 6d0:	00018e02 	andeq	r8, r1, r2, lsl #28
 6d4:	00000014 	andeq	r0, r0, r4, lsl r0
 6d8:	000006a8 	andeq	r0, r0, r8, lsr #13
 6dc:	000099f0 	strdeq	r9, [r0], -r0
 6e0:	0000001c 	andeq	r0, r0, ip, lsl r0
 6e4:	83080e42 	movwhi	r0, #36418	; 0x8e42
 6e8:	00018e02 	andeq	r8, r1, r2, lsl #28
 6ec:	00000014 	andeq	r0, r0, r4, lsl r0
 6f0:	000006a8 	andeq	r0, r0, r8, lsr #13
 6f4:	00009a0c 	andeq	r9, r0, ip, lsl #20
 6f8:	00000028 	andeq	r0, r0, r8, lsr #32
 6fc:	83080e42 	movwhi	r0, #36418	; 0x8e42
 700:	00018e02 	andeq	r8, r1, r2, lsl #28
 704:	00000014 	andeq	r0, r0, r4, lsl r0
 708:	000006a8 	andeq	r0, r0, r8, lsr #13
 70c:	00009a34 	andeq	r9, r0, r4, lsr sl
 710:	0000001c 	andeq	r0, r0, ip, lsl r0
 714:	83080e42 	movwhi	r0, #36418	; 0x8e42
 718:	00018e02 	andeq	r8, r1, r2, lsl #28
 71c:	00000014 	andeq	r0, r0, r4, lsl r0
 720:	000006a8 	andeq	r0, r0, r8, lsr #13
 724:	00009a50 	andeq	r9, r0, r0, asr sl
 728:	0000002c 	andeq	r0, r0, ip, lsr #32
 72c:	84080e42 	strhi	r0, [r8], #-3650	; 0xe42
 730:	00018e02 	andeq	r8, r1, r2, lsl #28
 734:	00000014 	andeq	r0, r0, r4, lsl r0
 738:	000006a8 	andeq	r0, r0, r8, lsr #13
 73c:	00009a7c 	andeq	r9, r0, ip, ror sl
 740:	0000000c 	andeq	r0, r0, ip
 744:	83080e42 	movwhi	r0, #36418	; 0x8e42
 748:	00018e02 	andeq	r8, r1, r2, lsl #28
 74c:	00000014 	andeq	r0, r0, r4, lsl r0
 750:	000006a8 	andeq	r0, r0, r8, lsr #13
 754:	00009a88 	andeq	r9, r0, r8, lsl #21
 758:	00000020 	andeq	r0, r0, r0, lsr #32
 75c:	83080e42 	movwhi	r0, #36418	; 0x8e42
 760:	00018e02 	andeq	r8, r1, r2, lsl #28
