
tests2.0/16-part2-test8.elf:     file format elf32-littlearm


Disassembly of section .text:

00008000 <__code_start__>:
    8000:	e3a00013 	mov	r0, #19
    8004:	e129f000 	msr	CPSR_fc, r0
    8008:	e3a01000 	mov	r1, #0
    800c:	ee073f95 	mcr	15, 0, r3, cr7, cr5, {4}
    8010:	e3a0d302 	mov	sp, #134217728	; 0x8000000
    8014:	e3a0b000 	mov	fp, #0
    8018:	eb000552 	bl	9568 <_cstart>
    801c:	eb0005ba 	bl	970c <rpi_reboot>

00008020 <print_lr>:
    8020:	e52de004 	push	{lr}		; (str lr, [sp, #-4]!)
    8024:	e24dd00c 	sub	sp, sp, #12
    8028:	e1a04000 	mov	r4, r0
    802c:	eb0003c5 	bl	8f48 <rpi_reset_putc>
    8030:	e58d4000 	str	r4, [sp]
    8034:	e59f0010 	ldr	r0, [pc, #16]	; 804c <print_lr+0x2c>
    8038:	e59f1010 	ldr	r1, [pc, #16]	; 8050 <print_lr+0x30>
    803c:	e59f2010 	ldr	r2, [pc, #16]	; 8054 <print_lr+0x34>
    8040:	e3a0300b 	mov	r3, #11
    8044:	eb0003a4 	bl	8edc <printk>
    8048:	eb00053b 	bl	953c <clean_reboot>
    804c:	00009af0 	strdeq	r9, [r0], -r0
    8050:	00009b08 	andeq	r9, r0, r8, lsl #22
    8054:	00009bf4 	strdeq	r9, [r0], -r4

00008058 <cnt_A>:
    8058:	e52de004 	push	{lr}		; (str lr, [sp, #-4]!)
    805c:	e24dd00c 	sub	sp, sp, #12
    8060:	e59f007c 	ldr	r0, [pc, #124]	; 80e4 <cnt_A+0x8c>
    8064:	eb0001b3 	bl	8738 <sys_try_lock_asm>
    8068:	e3500000 	cmp	r0, #0
    806c:	1a000006 	bne	808c <cnt_A+0x34>
    8070:	eb0003b4 	bl	8f48 <rpi_reset_putc>
    8074:	e59f006c 	ldr	r0, [pc, #108]	; 80e8 <cnt_A+0x90>
    8078:	e59f106c 	ldr	r1, [pc, #108]	; 80ec <cnt_A+0x94>
    807c:	e59f206c 	ldr	r2, [pc, #108]	; 80f0 <cnt_A+0x98>
    8080:	e3a03010 	mov	r3, #16
    8084:	eb000394 	bl	8edc <printk>
    8088:	eb00052b 	bl	953c <clean_reboot>
    808c:	e59f3060 	ldr	r3, [pc, #96]	; 80f4 <cnt_A+0x9c>
    8090:	e5932000 	ldr	r2, [r3]
    8094:	e2822001 	add	r2, r2, #1
    8098:	e5832000 	str	r2, [r3]
    809c:	e59f3040 	ldr	r3, [pc, #64]	; 80e4 <cnt_A+0x8c>
    80a0:	e5933000 	ldr	r3, [r3]
    80a4:	e3530001 	cmp	r3, #1
    80a8:	0a000008 	beq	80d0 <cnt_A+0x78>
    80ac:	eb0003a5 	bl	8f48 <rpi_reset_putc>
    80b0:	e59f3040 	ldr	r3, [pc, #64]	; 80f8 <cnt_A+0xa0>
    80b4:	e58d3000 	str	r3, [sp]
    80b8:	e59f003c 	ldr	r0, [pc, #60]	; 80fc <cnt_A+0xa4>
    80bc:	e59f103c 	ldr	r1, [pc, #60]	; 8100 <cnt_A+0xa8>
    80c0:	e59f203c 	ldr	r2, [pc, #60]	; 8104 <cnt_A+0xac>
    80c4:	e3a03018 	mov	r3, #24
    80c8:	eb000383 	bl	8edc <printk>
    80cc:	eb00051a 	bl	953c <clean_reboot>
    80d0:	e3a02000 	mov	r2, #0
    80d4:	e59f3008 	ldr	r3, [pc, #8]	; 80e4 <cnt_A+0x8c>
    80d8:	e5832000 	str	r2, [r3]
    80dc:	e28dd00c 	add	sp, sp, #12
    80e0:	e49df004 	pop	{pc}		; (ldr pc, [sp], #4)
    80e4:	0000a354 	andeq	sl, r0, r4, asr r3
    80e8:	00009b24 	andeq	r9, r0, r4, lsr #22
    80ec:	00009b08 	andeq	r9, r0, r8, lsl #22
    80f0:	00009c44 	andeq	r9, r0, r4, asr #24
    80f4:	0000a350 	andeq	sl, r0, r0, asr r3
    80f8:	00009b64 	andeq	r9, r0, r4, ror #22
    80fc:	00009b40 	andeq	r9, r0, r0, asr #22
    8100:	00009b54 	andeq	r9, r0, r4, asr fp
    8104:	00009c4c 	andeq	r9, r0, ip, asr #24

00008108 <cnt_B>:
    8108:	e3a00001 	mov	r0, #1
    810c:	e12fff1e 	bx	lr

00008110 <cnt_init>:
    8110:	e3a03000 	mov	r3, #0
    8114:	e59f200c 	ldr	r2, [pc, #12]	; 8128 <cnt_init+0x18>
    8118:	e5823000 	str	r3, [r2]
    811c:	e59f2008 	ldr	r2, [pc, #8]	; 812c <cnt_init+0x1c>
    8120:	e5823000 	str	r3, [r2]
    8124:	e12fff1e 	bx	lr
    8128:	0000a350 	andeq	sl, r0, r0, asr r3
    812c:	0000a354 	andeq	sl, r0, r4, asr r3

00008130 <cnt_check>:
    8130:	e52de004 	push	{lr}		; (str lr, [sp, #-4]!)
    8134:	e24dd00c 	sub	sp, sp, #12
    8138:	e59f306c 	ldr	r3, [pc, #108]	; 81ac <cnt_check+0x7c>
    813c:	e5933000 	ldr	r3, [r3]
    8140:	e3530000 	cmp	r3, #0
    8144:	0a000008 	beq	816c <cnt_check+0x3c>
    8148:	eb00037e 	bl	8f48 <rpi_reset_putc>
    814c:	e59f305c 	ldr	r3, [pc, #92]	; 81b0 <cnt_check+0x80>
    8150:	e58d3000 	str	r3, [sp]
    8154:	e59f0058 	ldr	r0, [pc, #88]	; 81b4 <cnt_check+0x84>
    8158:	e59f1058 	ldr	r1, [pc, #88]	; 81b8 <cnt_check+0x88>
    815c:	e59f2058 	ldr	r2, [pc, #88]	; 81bc <cnt_check+0x8c>
    8160:	e3a0301f 	mov	r3, #31
    8164:	eb00035c 	bl	8edc <printk>
    8168:	eb0004f3 	bl	953c <clean_reboot>
    816c:	e59f304c 	ldr	r3, [pc, #76]	; 81c0 <cnt_check+0x90>
    8170:	e5933000 	ldr	r3, [r3]
    8174:	e3530001 	cmp	r3, #1
    8178:	0a000008 	beq	81a0 <cnt_check+0x70>
    817c:	eb000371 	bl	8f48 <rpi_reset_putc>
    8180:	e59f303c 	ldr	r3, [pc, #60]	; 81c4 <cnt_check+0x94>
    8184:	e58d3000 	str	r3, [sp]
    8188:	e59f0024 	ldr	r0, [pc, #36]	; 81b4 <cnt_check+0x84>
    818c:	e59f1024 	ldr	r1, [pc, #36]	; 81b8 <cnt_check+0x88>
    8190:	e59f2024 	ldr	r2, [pc, #36]	; 81bc <cnt_check+0x8c>
    8194:	e3a03020 	mov	r3, #32
    8198:	eb00034f 	bl	8edc <printk>
    819c:	eb0004e6 	bl	953c <clean_reboot>
    81a0:	e3a00001 	mov	r0, #1
    81a4:	e28dd00c 	add	sp, sp, #12
    81a8:	e49df004 	pop	{pc}		; (ldr pc, [sp], #4)
    81ac:	0000a354 	andeq	sl, r0, r4, asr r3
    81b0:	00009b6c 	andeq	r9, r0, ip, ror #22
    81b4:	00009b40 	andeq	r9, r0, r0, asr #22
    81b8:	00009b08 	andeq	r9, r0, r8, lsl #22
    81bc:	00009c38 	andeq	r9, r0, r8, lsr ip
    81c0:	0000a350 	andeq	sl, r0, r0, asr r3
    81c4:	00009b74 	andeq	r9, r0, r4, ror fp

000081c8 <cnt_mk_checker>:
    81c8:	e1a03000 	mov	r3, r0
    81cc:	e3a02000 	mov	r2, #0
    81d0:	e4832004 	str	r2, [r3], #4
    81d4:	e2833008 	add	r3, r3, #8
    81d8:	e4832004 	str	r2, [r3], #4
    81dc:	e4832004 	str	r2, [r3], #4
    81e0:	e4832004 	str	r2, [r3], #4
    81e4:	e4832004 	str	r2, [r3], #4
    81e8:	e4832004 	str	r2, [r3], #4
    81ec:	e4832004 	str	r2, [r3], #4
    81f0:	e4832004 	str	r2, [r3], #4
    81f4:	e4832004 	str	r2, [r3], #4
    81f8:	e4832004 	str	r2, [r3], #4
    81fc:	e4832004 	str	r2, [r3], #4
    8200:	e5832000 	str	r2, [r3]
    8204:	e59f301c 	ldr	r3, [pc, #28]	; 8228 <cnt_mk_checker+0x60>
    8208:	e5803004 	str	r3, [r0, #4]
    820c:	e59f3018 	ldr	r3, [pc, #24]	; 822c <cnt_mk_checker+0x64>
    8210:	e5803008 	str	r3, [r0, #8]
    8214:	e59f3014 	ldr	r3, [pc, #20]	; 8230 <cnt_mk_checker+0x68>
    8218:	e580300c 	str	r3, [r0, #12]
    821c:	e59f3010 	ldr	r3, [pc, #16]	; 8234 <cnt_mk_checker+0x6c>
    8220:	e5803010 	str	r3, [r0, #16]
    8224:	e12fff1e 	bx	lr
    8228:	00008058 	andeq	r8, r0, r8, asr r0
    822c:	00008108 	andeq	r8, r0, r8, lsl #2
    8230:	00008110 	andeq	r8, r0, r0, lsl r1
    8234:	00008130 	andeq	r8, r0, r0, lsr r1

00008238 <notmain>:
    8238:	e52de004 	push	{lr}		; (str lr, [sp, #-4]!)
    823c:	e24dd03c 	sub	sp, sp, #60	; 0x3c
    8240:	eb0004b5 	bl	951c <enable_cache>
    8244:	e1a0000d 	mov	r0, sp
    8248:	ebffffde 	bl	81c8 <cnt_mk_checker>
    824c:	e1a0000d 	mov	r0, sp
    8250:	eb00030e 	bl	8e90 <check>
    8254:	e3500000 	cmp	r0, #0
    8258:	1a000006 	bne	8278 <notmain+0x40>
    825c:	eb000339 	bl	8f48 <rpi_reset_putc>
    8260:	e59f002c 	ldr	r0, [pc, #44]	; 8294 <notmain+0x5c>
    8264:	e59f102c 	ldr	r1, [pc, #44]	; 8298 <notmain+0x60>
    8268:	e59f202c 	ldr	r2, [pc, #44]	; 829c <notmain+0x64>
    826c:	e3a03035 	mov	r3, #53	; 0x35
    8270:	eb000319 	bl	8edc <printk>
    8274:	eb0004b0 	bl	953c <clean_reboot>
    8278:	e59f0020 	ldr	r0, [pc, #32]	; 82a0 <notmain+0x68>
    827c:	eb000316 	bl	8edc <printk>
    8280:	e59f001c 	ldr	r0, [pc, #28]	; 82a4 <notmain+0x6c>
    8284:	e59d1028 	ldr	r1, [sp, #40]	; 0x28
    8288:	e59d202c 	ldr	r2, [sp, #44]	; 0x2c
    828c:	eb000312 	bl	8edc <printk>
    8290:	eb0004a9 	bl	953c <clean_reboot>
    8294:	00009b80 	andeq	r9, r0, r0, lsl #23
    8298:	00009b08 	andeq	r9, r0, r8, lsl #22
    829c:	00009c58 	andeq	r9, r0, r8, asr ip
    82a0:	00009bb0 			; <UNDEFINED> instruction: 0x00009bb0
    82a4:	00009bbc 			; <UNDEFINED> instruction: 0x00009bbc

000082a8 <watchpt_set0>:
    82a8:	e52de004 	push	{lr}		; (str lr, [sp, #-4]!)
    82ac:	e24dd00c 	sub	sp, sp, #12
    82b0:	ee103ef0 	mrc	14, 0, r3, cr0, cr0, {7}
    82b4:	e3c33001 	bic	r3, r3, #1
    82b8:	ee003ef0 	mcr	14, 0, r3, cr0, cr0, {7}
    82bc:	ee102ef0 	mrc	14, 0, r2, cr0, cr0, {7}
    82c0:	e1530002 	cmp	r3, r2
    82c4:	0a000008 	beq	82ec <watchpt_set0+0x44>
    82c8:	eb00031e 	bl	8f48 <rpi_reset_putc>
    82cc:	e59f306c 	ldr	r3, [pc, #108]	; 8340 <watchpt_set0+0x98>
    82d0:	e58d3000 	str	r3, [sp]
    82d4:	e59f0068 	ldr	r0, [pc, #104]	; 8344 <watchpt_set0+0x9c>
    82d8:	e59f1068 	ldr	r1, [pc, #104]	; 8348 <watchpt_set0+0xa0>
    82dc:	e59f2068 	ldr	r2, [pc, #104]	; 834c <watchpt_set0+0xa4>
    82e0:	e3a03041 	mov	r3, #65	; 0x41
    82e4:	eb0002fc 	bl	8edc <printk>
    82e8:	eb000493 	bl	953c <clean_reboot>
    82ec:	ee000ed0 	mcr	14, 0, r0, cr0, cr0, {6}
    82f0:	e59f3058 	ldr	r3, [pc, #88]	; 8350 <watchpt_set0+0xa8>
    82f4:	ee003ef0 	mcr	14, 0, r3, cr0, cr0, {7}
    82f8:	ee102ef0 	mrc	14, 0, r2, cr0, cr0, {7}
    82fc:	e1520003 	cmp	r2, r3
    8300:	0a000008 	beq	8328 <watchpt_set0+0x80>
    8304:	eb00030f 	bl	8f48 <rpi_reset_putc>
    8308:	e59f3030 	ldr	r3, [pc, #48]	; 8340 <watchpt_set0+0x98>
    830c:	e58d3000 	str	r3, [sp]
    8310:	e59f002c 	ldr	r0, [pc, #44]	; 8344 <watchpt_set0+0x9c>
    8314:	e59f102c 	ldr	r1, [pc, #44]	; 8348 <watchpt_set0+0xa0>
    8318:	e59f202c 	ldr	r2, [pc, #44]	; 834c <watchpt_set0+0xa4>
    831c:	e3a03052 	mov	r3, #82	; 0x52
    8320:	eb0002ed 	bl	8edc <printk>
    8324:	eb000484 	bl	953c <clean_reboot>
    8328:	e3a03000 	mov	r3, #0
    832c:	ee073f95 	mcr	15, 0, r3, cr7, cr5, {4}
    8330:	e59f301c 	ldr	r3, [pc, #28]	; 8354 <watchpt_set0+0xac>
    8334:	e5831000 	str	r1, [r3]
    8338:	e28dd00c 	add	sp, sp, #12
    833c:	e49df004 	pop	{pc}		; (ldr pc, [sp], #4)
    8340:	00009c70 	andeq	r9, r0, r0, ror ip
    8344:	00009b40 	andeq	r9, r0, r0, asr #22
    8348:	00009c60 	andeq	r9, r0, r0, ror #24
    834c:	00009d88 	andeq	r9, r0, r8, lsl #27
    8350:	000001ff 	strdeq	r0, [r0], -pc	; <UNPREDICTABLE>
    8354:	0000a358 	andeq	sl, r0, r8, asr r3

00008358 <data_abort_vector>:
    8358:	e52de004 	push	{lr}		; (str lr, [sp, #-4]!)
    835c:	e24dd00c 	sub	sp, sp, #12
    8360:	e1a01000 	mov	r1, r0
    8364:	ee153f10 	mrc	15, 0, r3, cr5, cr0, {0}
    8368:	ee153f10 	mrc	15, 0, r3, cr5, cr0, {0}
    836c:	e203300f 	and	r3, r3, #15
    8370:	e3530002 	cmp	r3, #2
    8374:	0a000006 	beq	8394 <data_abort_vector+0x3c>
    8378:	eb0002f2 	bl	8f48 <rpi_reset_putc>
    837c:	e59f008c 	ldr	r0, [pc, #140]	; 8410 <data_abort_vector+0xb8>
    8380:	e59f108c 	ldr	r1, [pc, #140]	; 8414 <data_abort_vector+0xbc>
    8384:	e59f208c 	ldr	r2, [pc, #140]	; 8418 <data_abort_vector+0xc0>
    8388:	e3a03079 	mov	r3, #121	; 0x79
    838c:	eb0002d2 	bl	8edc <printk>
    8390:	eb000469 	bl	953c <clean_reboot>
    8394:	ee103e16 	mrc	14, 0, r3, cr0, cr6, {0}
    8398:	e2433004 	sub	r3, r3, #4
    839c:	e1530000 	cmp	r3, r0
    83a0:	0a000008 	beq	83c8 <data_abort_vector+0x70>
    83a4:	eb0002e7 	bl	8f48 <rpi_reset_putc>
    83a8:	e59f306c 	ldr	r3, [pc, #108]	; 841c <data_abort_vector+0xc4>
    83ac:	e58d3000 	str	r3, [sp]
    83b0:	e59f0068 	ldr	r0, [pc, #104]	; 8420 <data_abort_vector+0xc8>
    83b4:	e59f1068 	ldr	r1, [pc, #104]	; 8424 <data_abort_vector+0xcc>
    83b8:	e59f2068 	ldr	r2, [pc, #104]	; 8428 <data_abort_vector+0xd0>
    83bc:	e3a03067 	mov	r3, #103	; 0x67
    83c0:	eb0002c5 	bl	8edc <printk>
    83c4:	eb00045c 	bl	953c <clean_reboot>
    83c8:	e59f305c 	ldr	r3, [pc, #92]	; 842c <data_abort_vector+0xd4>
    83cc:	e5933000 	ldr	r3, [r3]
    83d0:	e3530000 	cmp	r3, #0
    83d4:	1a000008 	bne	83fc <data_abort_vector+0xa4>
    83d8:	eb0002da 	bl	8f48 <rpi_reset_putc>
    83dc:	e59f304c 	ldr	r3, [pc, #76]	; 8430 <data_abort_vector+0xd8>
    83e0:	e58d3000 	str	r3, [sp]
    83e4:	e59f0034 	ldr	r0, [pc, #52]	; 8420 <data_abort_vector+0xc8>
    83e8:	e59f1034 	ldr	r1, [pc, #52]	; 8424 <data_abort_vector+0xcc>
    83ec:	e59f2034 	ldr	r2, [pc, #52]	; 8428 <data_abort_vector+0xd0>
    83f0:	e3a03069 	mov	r3, #105	; 0x69
    83f4:	eb0002b8 	bl	8edc <printk>
    83f8:	eb00044f 	bl	953c <clean_reboot>
    83fc:	ee162f10 	mrc	15, 0, r2, cr6, cr0, {0}
    8400:	e3a00000 	mov	r0, #0
    8404:	e12fff33 	blx	r3
    8408:	e28dd00c 	add	sp, sp, #12
    840c:	e49df004 	pop	{pc}		; (ldr pc, [sp], #4)
    8410:	00009c88 	andeq	r9, r0, r8, lsl #25
    8414:	00009cc0 	andeq	r9, r0, r0, asr #25
    8418:	00009dac 	andeq	r9, r0, ip, lsr #27
    841c:	00009cd0 	ldrdeq	r9, [r0], -r0
    8420:	00009b40 	andeq	r9, r0, r0, asr #22
    8424:	00009c60 	andeq	r9, r0, r0, ror #24
    8428:	00009d98 	muleq	r0, r8, sp
    842c:	0000a358 	andeq	sl, r0, r8, asr r3
    8430:	00009ce4 	andeq	r9, r0, r4, ror #25

00008434 <cp14_enable>:
    8434:	e92d4008 	push	{r3, lr}
    8438:	e59f302c 	ldr	r3, [pc, #44]	; 846c <cp14_enable+0x38>
    843c:	e5933000 	ldr	r3, [r3]
    8440:	e3530000 	cmp	r3, #0
    8444:	1a000003 	bne	8458 <cp14_enable+0x24>
    8448:	eb000489 	bl	9674 <int_init>
    844c:	e3a02001 	mov	r2, #1
    8450:	e59f3014 	ldr	r3, [pc, #20]	; 846c <cp14_enable+0x38>
    8454:	e5832000 	str	r2, [r3]
    8458:	e3a03902 	mov	r3, #32768	; 0x8000
    845c:	ee003e11 	mcr	14, 0, r3, cr0, cr1, {0}
    8460:	e3a03000 	mov	r3, #0
    8464:	ee073f95 	mcr	15, 0, r3, cr7, cr5, {4}
    8468:	e8bd8008 	pop	{r3, pc}
    846c:	0000a368 	andeq	sl, r0, r8, ror #6

00008470 <brkpt_set0>:
    8470:	ee103eb0 	mrc	14, 0, r3, cr0, cr0, {5}
    8474:	e3c33001 	bic	r3, r3, #1
    8478:	ee003eb0 	mcr	14, 0, r3, cr0, cr0, {5}
    847c:	ee000e90 	mcr	14, 0, r0, cr0, cr0, {4}
    8480:	e59f3014 	ldr	r3, [pc, #20]	; 849c <brkpt_set0+0x2c>
    8484:	ee003eb0 	mcr	14, 0, r3, cr0, cr0, {5}
    8488:	e3a03000 	mov	r3, #0
    848c:	ee073f95 	mcr	15, 0, r3, cr7, cr5, {4}
    8490:	e59f3008 	ldr	r3, [pc, #8]	; 84a0 <brkpt_set0+0x30>
    8494:	e5831000 	str	r1, [r3]
    8498:	e12fff1e 	bx	lr
    849c:	000001e7 	andeq	r0, r0, r7, ror #3
    84a0:	0000a35c 	andeq	sl, r0, ip, asr r3

000084a4 <prefetch_abort_vector>:
    84a4:	e52de004 	push	{lr}		; (str lr, [sp, #-4]!)
    84a8:	e24dd00c 	sub	sp, sp, #12
    84ac:	e1a01000 	mov	r1, r0
    84b0:	ee153f30 	mrc	15, 0, r3, cr5, cr0, {1}
    84b4:	e203300f 	and	r3, r3, #15
    84b8:	e3530002 	cmp	r3, #2
    84bc:	0a000006 	beq	84dc <prefetch_abort_vector+0x38>
    84c0:	eb0002a0 	bl	8f48 <rpi_reset_putc>
    84c4:	e59f0058 	ldr	r0, [pc, #88]	; 8524 <prefetch_abort_vector+0x80>
    84c8:	e59f1058 	ldr	r1, [pc, #88]	; 8528 <prefetch_abort_vector+0x84>
    84cc:	e59f2058 	ldr	r2, [pc, #88]	; 852c <prefetch_abort_vector+0x88>
    84d0:	e3a030c7 	mov	r3, #199	; 0xc7
    84d4:	eb000280 	bl	8edc <printk>
    84d8:	eb000417 	bl	953c <clean_reboot>
    84dc:	e59f304c 	ldr	r3, [pc, #76]	; 8530 <prefetch_abort_vector+0x8c>
    84e0:	e5933000 	ldr	r3, [r3]
    84e4:	e3530000 	cmp	r3, #0
    84e8:	1a000008 	bne	8510 <prefetch_abort_vector+0x6c>
    84ec:	eb000295 	bl	8f48 <rpi_reset_putc>
    84f0:	e59f303c 	ldr	r3, [pc, #60]	; 8534 <prefetch_abort_vector+0x90>
    84f4:	e58d3000 	str	r3, [sp]
    84f8:	e59f0038 	ldr	r0, [pc, #56]	; 8538 <prefetch_abort_vector+0x94>
    84fc:	e59f1024 	ldr	r1, [pc, #36]	; 8528 <prefetch_abort_vector+0x84>
    8500:	e59f2024 	ldr	r2, [pc, #36]	; 852c <prefetch_abort_vector+0x88>
    8504:	e3a030c8 	mov	r3, #200	; 0xc8
    8508:	eb000273 	bl	8edc <printk>
    850c:	eb00040a 	bl	953c <clean_reboot>
    8510:	ee162f10 	mrc	15, 0, r2, cr6, cr0, {0}
    8514:	e3a00000 	mov	r0, #0
    8518:	e12fff33 	blx	r3
    851c:	e28dd00c 	add	sp, sp, #12
    8520:	e49df004 	pop	{pc}		; (ldr pc, [sp], #4)
    8524:	00009cf8 	strdeq	r9, [r0], -r8
    8528:	00009c60 	andeq	r9, r0, r0, ror #24
    852c:	00009dc0 	andeq	r9, r0, r0, asr #27
    8530:	0000a35c 	andeq	sl, r0, ip, asr r3
    8534:	00009d30 	andeq	r9, r0, r0, lsr sp
    8538:	00009b40 	andeq	r9, r0, r0, asr #22

0000853c <interrupt_vector>:
    853c:	e12fff1e 	bx	lr

00008540 <brk_no_ret_error>:
    8540:	e92d4008 	push	{r3, lr}
    8544:	eb00027f 	bl	8f48 <rpi_reset_putc>
    8548:	e59f0010 	ldr	r0, [pc, #16]	; 8560 <brk_no_ret_error+0x20>
    854c:	e59f1010 	ldr	r1, [pc, #16]	; 8564 <brk_no_ret_error+0x24>
    8550:	e59f2010 	ldr	r2, [pc, #16]	; 8568 <brk_no_ret_error+0x28>
    8554:	e3a030d9 	mov	r3, #217	; 0xd9
    8558:	eb00025f 	bl	8edc <printk>
    855c:	eb0003f6 	bl	953c <clean_reboot>
    8560:	00009d40 	andeq	r9, r0, r0, asr #26
    8564:	00009c60 	andeq	r9, r0, r0, ror #24
    8568:	00009dd8 	ldrdeq	r9, [r0], -r8

0000856c <brkpt_mismatch_set0>:
    856c:	ee103eb0 	mrc	14, 0, r3, cr0, cr0, {5}
    8570:	e3c33001 	bic	r3, r3, #1
    8574:	ee003eb0 	mcr	14, 0, r3, cr0, cr0, {5}
    8578:	ee000e90 	mcr	14, 0, r0, cr0, cr0, {4}
    857c:	e59f3014 	ldr	r3, [pc, #20]	; 8598 <brkpt_mismatch_set0+0x2c>
    8580:	ee003eb0 	mcr	14, 0, r3, cr0, cr0, {5}
    8584:	e3a03000 	mov	r3, #0
    8588:	ee073f95 	mcr	15, 0, r3, cr7, cr5, {4}
    858c:	e59f3008 	ldr	r3, [pc, #8]	; 859c <brkpt_mismatch_set0+0x30>
    8590:	e5831000 	str	r1, [r3]
    8594:	e12fff1e 	bx	lr
    8598:	004001e7 	subeq	r0, r0, r7, ror #3
    859c:	0000a35c 	andeq	sl, r0, ip, asr r3

000085a0 <brkpt_mismatch_disable0>:
    85a0:	e59f3004 	ldr	r3, [pc, #4]	; 85ac <brkpt_mismatch_disable0+0xc>
    85a4:	ee003eb0 	mcr	14, 0, r3, cr0, cr0, {5}
    85a8:	e12fff1e 	bx	lr
    85ac:	004001e6 	subeq	r0, r0, r6, ror #3

000085b0 <syscall_vector>:
    85b0:	e92d4008 	push	{r3, lr}
    85b4:	e5903000 	ldr	r3, [r0]
    85b8:	e3c334ff 	bic	r3, r3, #-16777216	; 0xff000000
    85bc:	e3530001 	cmp	r3, #1
    85c0:	1a000002 	bne	85d0 <syscall_vector+0x20>
    85c4:	e169f001 	msr	SPSR_fc, r1
    85c8:	e3a00000 	mov	r0, #0
    85cc:	e8bd8008 	pop	{r3, pc}
    85d0:	e3530002 	cmp	r3, #2
    85d4:	1a000005 	bne	85f0 <syscall_vector+0x40>
    85d8:	e5913000 	ldr	r3, [r1]
    85dc:	e3530000 	cmp	r3, #0
    85e0:	1a000009 	bne	860c <syscall_vector+0x5c>
    85e4:	e3a00001 	mov	r0, #1
    85e8:	e5810000 	str	r0, [r1]
    85ec:	e8bd8008 	pop	{r3, pc}
    85f0:	e3530003 	cmp	r3, #3
    85f4:	0a000006 	beq	8614 <syscall_vector+0x64>
    85f8:	e59f001c 	ldr	r0, [pc, #28]	; 861c <syscall_vector+0x6c>
    85fc:	e1a01003 	mov	r1, r3
    8600:	eb000235 	bl	8edc <printk>
    8604:	e3a00000 	mov	r0, #0
    8608:	e8bd8008 	pop	{r3, pc}
    860c:	e3a00000 	mov	r0, #0
    8610:	e8bd8008 	pop	{r3, pc}
    8614:	e3a00003 	mov	r0, #3
    8618:	e8bd8008 	pop	{r3, pc}
    861c:	00009d70 	andeq	r9, r0, r0, ror sp

00008620 <_interrupt_table>:
    8620:	e59ff020 	ldr	pc, [pc, #32]	; 8648 <_reset_asm>
    8624:	e59ff020 	ldr	pc, [pc, #32]	; 864c <_undefined_instruction_asm>
    8628:	e59ff020 	ldr	pc, [pc, #32]	; 8650 <_software_interrupt_asm>
    862c:	e59ff020 	ldr	pc, [pc, #32]	; 8654 <_prefetch_abort_asm>
    8630:	e59ff020 	ldr	pc, [pc, #32]	; 8658 <_data_abort_asm>
    8634:	e59ff00c 	ldr	pc, [pc, #12]	; 8648 <_reset_asm>
    8638:	e59ff01c 	ldr	pc, [pc, #28]	; 865c <_interrupt_asm>

0000863c <fast_interrupt_asm>:
    863c:	e3a0d409 	mov	sp, #150994944	; 0x9000000
    8640:	e24ee004 	sub	lr, lr, #4
    8644:	eb0003d5 	bl	95a0 <fast_interrupt_vector>

00008648 <_reset_asm>:
    8648:	00008678 	andeq	r8, r0, r8, ror r6

0000864c <_undefined_instruction_asm>:
    864c:	000086bc 			; <UNDEFINED> instruction: 0x000086bc

00008650 <_software_interrupt_asm>:
    8650:	000086c8 	andeq	r8, r0, r8, asr #13

00008654 <_prefetch_abort_asm>:
    8654:	000086a0 	andeq	r8, r0, r0, lsr #13

00008658 <_data_abort_asm>:
    8658:	00008684 	andeq	r8, r0, r4, lsl #13

0000865c <_interrupt_asm>:
    865c:	00008660 	andeq	r8, r0, r0, ror #12

00008660 <_interrupt_table_end>:
    8660:	e3a0d409 	mov	sp, #150994944	; 0x9000000
    8664:	e24ee004 	sub	lr, lr, #4
    8668:	e92d5fff 	push	{r0, r1, r2, r3, r4, r5, r6, r7, r8, r9, sl, fp, ip, lr}
    866c:	e1a0000e 	mov	r0, lr
    8670:	e8bd5fff 	pop	{r0, r1, r2, r3, r4, r5, r6, r7, r8, r9, sl, fp, ip, lr}
    8674:	e1b0f00e 	movs	pc, lr

00008678 <reset_asm>:
    8678:	e3a0d409 	mov	sp, #150994944	; 0x9000000
    867c:	e24ee004 	sub	lr, lr, #4
    8680:	eb0003d7 	bl	95e4 <reset_vector>

00008684 <data_abort_asm>:
    8684:	e24ee008 	sub	lr, lr, #8
    8688:	e3a0d409 	mov	sp, #150994944	; 0x9000000
    868c:	e92d5fff 	push	{r0, r1, r2, r3, r4, r5, r6, r7, r8, r9, sl, fp, ip, lr}
    8690:	e1a0000e 	mov	r0, lr
    8694:	ebffff2f 	bl	8358 <data_abort_vector>
    8698:	e8bd5fff 	pop	{r0, r1, r2, r3, r4, r5, r6, r7, r8, r9, sl, fp, ip, lr}
    869c:	e1b0f00e 	movs	pc, lr

000086a0 <prefetch_abort_asm>:
    86a0:	e24ee004 	sub	lr, lr, #4
    86a4:	e3a0d409 	mov	sp, #150994944	; 0x9000000
    86a8:	e92d5fff 	push	{r0, r1, r2, r3, r4, r5, r6, r7, r8, r9, sl, fp, ip, lr}
    86ac:	e1a0000e 	mov	r0, lr
    86b0:	ebffff7b 	bl	84a4 <prefetch_abort_vector>
    86b4:	e8bd5fff 	pop	{r0, r1, r2, r3, r4, r5, r6, r7, r8, r9, sl, fp, ip, lr}
    86b8:	e1b0f00e 	movs	pc, lr

000086bc <undefined_instruction_asm>:
    86bc:	e3a0d409 	mov	sp, #150994944	; 0x9000000
    86c0:	e24ee004 	sub	lr, lr, #4
    86c4:	eb0003d7 	bl	9628 <undefined_instruction_vector>

000086c8 <software_interrupt_asm>:
    86c8:	e92d5ff0 	push	{r4, r5, r6, r7, r8, r9, sl, fp, ip, lr}
    86cc:	e24ee004 	sub	lr, lr, #4
    86d0:	e1a01000 	mov	r1, r0
    86d4:	e1a0000e 	mov	r0, lr
    86d8:	ebffffb4 	bl	85b0 <syscall_vector>
    86dc:	e8bd5ff0 	pop	{r4, r5, r6, r7, r8, r9, sl, fp, ip, lr}
    86e0:	e1b0f00e 	movs	pc, lr

000086e4 <user_trampoline_no_ret>:
    86e4:	e1a0200d 	mov	r2, sp
    86e8:	e129f000 	msr	CPSR_fc, r0
    86ec:	e10f5000 	mrs	r5, CPSR
    86f0:	ee070f95 	mcr	15, 0, r0, cr7, cr5, {4}
    86f4:	e1a0d002 	mov	sp, r2
    86f8:	e92d5ff0 	push	{r4, r5, r6, r7, r8, r9, sl, fp, ip, lr}
    86fc:	e12fff31 	blx	r1
    8700:	e8bd5ff0 	pop	{r4, r5, r6, r7, r8, r9, sl, fp, ip, lr}
    8704:	eb00038c 	bl	953c <clean_reboot>
    8708:	ebffff8c 	bl	8540 <brk_no_ret_error>

0000870c <user_trampoline_ret>:
    870c:	e92d5ff0 	push	{r4, r5, r6, r7, r8, r9, sl, fp, ip, lr}
    8710:	e10f4000 	mrs	r4, CPSR
    8714:	e129f000 	msr	CPSR_fc, r0
    8718:	ee070f95 	mcr	15, 0, r0, cr7, cr5, {4}
    871c:	e3a0d407 	mov	sp, #117440512	; 0x7000000
    8720:	e1a00002 	mov	r0, r2
    8724:	e12fff31 	blx	r1
    8728:	e1a00004 	mov	r0, r4
    872c:	ef000001 	svc	0x00000001
    8730:	e8bd5ff0 	pop	{r4, r5, r6, r7, r8, r9, sl, fp, ip, lr}
    8734:	e12fff1e 	bx	lr

00008738 <sys_try_lock_asm>:
    8738:	e92d5ff0 	push	{r4, r5, r6, r7, r8, r9, sl, fp, ip, lr}
    873c:	ef000002 	svc	0x00000002
    8740:	e8bd5ff0 	pop	{r4, r5, r6, r7, r8, r9, sl, fp, ip, lr}
    8744:	e12fff1e 	bx	lr

00008748 <sys_foo_asm>:
    8748:	e92d5ff0 	push	{r4, r5, r6, r7, r8, r9, sl, fp, ip, lr}
    874c:	ef000003 	svc	0x00000003
    8750:	e8bd5ff0 	pop	{r4, r5, r6, r7, r8, r9, sl, fp, ip, lr}
    8754:	e12fff1e 	bx	lr

00008758 <single_step_handler>:
    8758:	e92d4030 	push	{r4, r5, lr}
    875c:	e24dd00c 	sub	sp, sp, #12
    8760:	e1a05001 	mov	r5, r1
    8764:	e59f3164 	ldr	r3, [pc, #356]	; 88d0 <single_step_handler+0x178>
    8768:	e5933000 	ldr	r3, [r3]
    876c:	e3530000 	cmp	r3, #0
    8770:	0a000005 	beq	878c <single_step_handler+0x34>
    8774:	e58d1000 	str	r1, [sp]
    8778:	e59f0154 	ldr	r0, [pc, #340]	; 88d4 <single_step_handler+0x17c>
    877c:	e59f1154 	ldr	r1, [pc, #340]	; 88d8 <single_step_handler+0x180>
    8780:	e59f2154 	ldr	r2, [pc, #340]	; 88dc <single_step_handler+0x184>
    8784:	e3a0300c 	mov	r3, #12
    8788:	eb0001d3 	bl	8edc <printk>
    878c:	ee153f30 	mrc	15, 0, r3, cr5, cr0, {1}
    8790:	e203300f 	and	r3, r3, #15
    8794:	e3530002 	cmp	r3, #2
    8798:	0a000006 	beq	87b8 <single_step_handler+0x60>
    879c:	eb0001e9 	bl	8f48 <rpi_reset_putc>
    87a0:	e59f0138 	ldr	r0, [pc, #312]	; 88e0 <single_step_handler+0x188>
    87a4:	e59f112c 	ldr	r1, [pc, #300]	; 88d8 <single_step_handler+0x180>
    87a8:	e59f212c 	ldr	r2, [pc, #300]	; 88dc <single_step_handler+0x184>
    87ac:	e3a0300e 	mov	r3, #14
    87b0:	eb0001c9 	bl	8edc <printk>
    87b4:	eb000360 	bl	953c <clean_reboot>
    87b8:	e59f3124 	ldr	r3, [pc, #292]	; 88e4 <single_step_handler+0x18c>
    87bc:	e5934000 	ldr	r4, [r3]
    87c0:	e594201c 	ldr	r2, [r4, #28]
    87c4:	e5943018 	ldr	r3, [r4, #24]
    87c8:	e1520003 	cmp	r2, r3
    87cc:	1a000016 	bne	882c <single_step_handler+0xd4>
    87d0:	e59f0110 	ldr	r0, [pc, #272]	; 88e8 <single_step_handler+0x190>
    87d4:	e1a01005 	mov	r1, r5
    87d8:	e5942008 	ldr	r2, [r4, #8]
    87dc:	eb0001be 	bl	8edc <printk>
    87e0:	e5943008 	ldr	r3, [r4, #8]
    87e4:	e1a00004 	mov	r0, r4
    87e8:	e12fff33 	blx	r3
    87ec:	e3500000 	cmp	r0, #0
    87f0:	0a00000a 	beq	8820 <single_step_handler+0xc8>
    87f4:	e1a00005 	mov	r0, r5
    87f8:	ebffff68 	bl	85a0 <brkpt_mismatch_disable0>
    87fc:	e5845020 	str	r5, [r4, #32]
    8800:	e3a03001 	mov	r3, #1
    8804:	e5843024 	str	r3, [r4, #36]	; 0x24
    8808:	e5943014 	ldr	r3, [r4, #20]
    880c:	e2833001 	add	r3, r3, #1
    8810:	e5843014 	str	r3, [r4, #20]
    8814:	e59f00d0 	ldr	r0, [pc, #208]	; 88ec <single_step_handler+0x194>
    8818:	eb0001af 	bl	8edc <printk>
    881c:	ea000029 	b	88c8 <single_step_handler+0x170>
    8820:	e5943018 	ldr	r3, [r4, #24]
    8824:	e2833001 	add	r3, r3, #1
    8828:	e5843018 	str	r3, [r4, #24]
    882c:	e594201c 	ldr	r2, [r4, #28]
    8830:	e5943018 	ldr	r3, [r4, #24]
    8834:	e1520003 	cmp	r2, r3
    8838:	3a000008 	bcc	8860 <single_step_handler+0x108>
    883c:	eb0001c1 	bl	8f48 <rpi_reset_putc>
    8840:	e59f30a8 	ldr	r3, [pc, #168]	; 88f0 <single_step_handler+0x198>
    8844:	e58d3000 	str	r3, [sp]
    8848:	e59f00a4 	ldr	r0, [pc, #164]	; 88f4 <single_step_handler+0x19c>
    884c:	e59f1084 	ldr	r1, [pc, #132]	; 88d8 <single_step_handler+0x180>
    8850:	e59f2084 	ldr	r2, [pc, #132]	; 88dc <single_step_handler+0x184>
    8854:	e3a03023 	mov	r3, #35	; 0x23
    8858:	eb00019f 	bl	8edc <printk>
    885c:	eb000336 	bl	953c <clean_reboot>
    8860:	e594301c 	ldr	r3, [r4, #28]
    8864:	e2833001 	add	r3, r3, #1
    8868:	e584301c 	str	r3, [r4, #28]
    886c:	e59f305c 	ldr	r3, [pc, #92]	; 88d0 <single_step_handler+0x178>
    8870:	e5933000 	ldr	r3, [r3]
    8874:	e3530000 	cmp	r3, #0
    8878:	0a000005 	beq	8894 <single_step_handler+0x13c>
    887c:	e58d5000 	str	r5, [sp]
    8880:	e59f0070 	ldr	r0, [pc, #112]	; 88f8 <single_step_handler+0x1a0>
    8884:	e59f104c 	ldr	r1, [pc, #76]	; 88d8 <single_step_handler+0x180>
    8888:	e59f204c 	ldr	r2, [pc, #76]	; 88dc <single_step_handler+0x184>
    888c:	e3a03026 	mov	r3, #38	; 0x26
    8890:	eb000191 	bl	8edc <printk>
    8894:	e1a00005 	mov	r0, r5
    8898:	e59f105c 	ldr	r1, [pc, #92]	; 88fc <single_step_handler+0x1a4>
    889c:	ebffff32 	bl	856c <brkpt_mismatch_set0>
    88a0:	e59f3028 	ldr	r3, [pc, #40]	; 88d0 <single_step_handler+0x178>
    88a4:	e5933000 	ldr	r3, [r3]
    88a8:	e3530000 	cmp	r3, #0
    88ac:	0a000005 	beq	88c8 <single_step_handler+0x170>
    88b0:	e58d5000 	str	r5, [sp]
    88b4:	e59f0044 	ldr	r0, [pc, #68]	; 8900 <single_step_handler+0x1a8>
    88b8:	e59f1018 	ldr	r1, [pc, #24]	; 88d8 <single_step_handler+0x180>
    88bc:	e59f2018 	ldr	r2, [pc, #24]	; 88dc <single_step_handler+0x184>
    88c0:	e3a03028 	mov	r3, #40	; 0x28
    88c4:	eb000184 	bl	8edc <printk>
    88c8:	e28dd00c 	add	sp, sp, #12
    88cc:	e8bd8030 	pop	{r4, r5, pc}
    88d0:	0000a360 	andeq	sl, r0, r0, ror #6
    88d4:	00009dec 	andeq	r9, r0, ip, ror #27
    88d8:	00009e0c 	andeq	r9, r0, ip, lsl #28
    88dc:	0000a0f0 	strdeq	sl, [r0], -r0
    88e0:	00009cf8 	strdeq	r9, [r0], -r8
    88e4:	0000a36c 	andeq	sl, r0, ip, ror #6
    88e8:	00009e20 	andeq	r9, r0, r0, lsr #28
    88ec:	00009e40 	andeq	r9, r0, r0, asr #28
    88f0:	00009e68 	andeq	r9, r0, r8, ror #28
    88f4:	00009b40 	andeq	r9, r0, r0, asr #22
    88f8:	00009e8c 	andeq	r9, r0, ip, lsl #29
    88fc:	00008758 	andeq	r8, r0, r8, asr r7
    8900:	00009eb4 			; <UNDEFINED> instruction: 0x00009eb4

00008904 <check_one_cswitch>:
    8904:	e92d4ff0 	push	{r4, r5, r6, r7, r8, r9, sl, fp, lr}
    8908:	e24dd00c 	sub	sp, sp, #12
    890c:	e1a04000 	mov	r4, r0
    8910:	e10f8000 	mrs	r8, CPSR
    8914:	e3c8701f 	bic	r7, r8, #31
    8918:	e3877010 	orr	r7, r7, #16
    891c:	e59f3460 	ldr	r3, [pc, #1120]	; 8d84 <check_one_cswitch+0x480>
    8920:	e5830000 	str	r0, [r3]
    8924:	e3a03001 	mov	r3, #1
    8928:	e5803030 	str	r3, [r0, #48]	; 0x30
    892c:	e59f6454 	ldr	r6, [pc, #1108]	; 8d88 <check_one_cswitch+0x484>
    8930:	e59fb454 	ldr	fp, [pc, #1108]	; 8d8c <check_one_cswitch+0x488>
    8934:	e59fa454 	ldr	sl, [pc, #1108]	; 8d90 <check_one_cswitch+0x48c>
    8938:	e59f9454 	ldr	r9, [pc, #1108]	; 8d94 <check_one_cswitch+0x490>
    893c:	e59f5454 	ldr	r5, [pc, #1108]	; 8d98 <check_one_cswitch+0x494>
    8940:	e594300c 	ldr	r3, [r4, #12]
    8944:	e1a00004 	mov	r0, r4
    8948:	e12fff33 	blx	r3
    894c:	e5963000 	ldr	r3, [r6]
    8950:	e3530000 	cmp	r3, #0
    8954:	0a000006 	beq	8974 <check_one_cswitch+0x70>
    8958:	e5943028 	ldr	r3, [r4, #40]	; 0x28
    895c:	e58d3000 	str	r3, [sp]
    8960:	e1a0000b 	mov	r0, fp
    8964:	e1a0100a 	mov	r1, sl
    8968:	e1a02009 	mov	r2, r9
    896c:	e3a03034 	mov	r3, #52	; 0x34
    8970:	eb000159 	bl	8edc <printk>
    8974:	e3a00000 	mov	r0, #0
    8978:	e1a01005 	mov	r1, r5
    897c:	ebfffefa 	bl	856c <brkpt_mismatch_set0>
    8980:	e5943018 	ldr	r3, [r4, #24]
    8984:	e2833001 	add	r3, r3, #1
    8988:	e5843018 	str	r3, [r4, #24]
    898c:	e3a03000 	mov	r3, #0
    8990:	e584301c 	str	r3, [r4, #28]
    8994:	e5843024 	str	r3, [r4, #36]	; 0x24
    8998:	e1a00007 	mov	r0, r7
    899c:	e5941004 	ldr	r1, [r4, #4]
    89a0:	e1a02004 	mov	r2, r4
    89a4:	ebffff58 	bl	870c <user_trampoline_ret>
    89a8:	e5943024 	ldr	r3, [r4, #36]	; 0x24
    89ac:	e3530000 	cmp	r3, #0
    89b0:	1a000002 	bne	89c0 <check_one_cswitch+0xbc>
    89b4:	e5943008 	ldr	r3, [r4, #8]
    89b8:	e1a00004 	mov	r0, r4
    89bc:	e12fff33 	blx	r3
    89c0:	e5943010 	ldr	r3, [r4, #16]
    89c4:	e1a00004 	mov	r0, r4
    89c8:	e12fff33 	blx	r3
    89cc:	e3500000 	cmp	r0, #0
    89d0:	1a000006 	bne	89f0 <check_one_cswitch+0xec>
    89d4:	e5941020 	ldr	r1, [r4, #32]
    89d8:	e5942018 	ldr	r2, [r4, #24]
    89dc:	e59f03b8 	ldr	r0, [pc, #952]	; 8d9c <check_one_cswitch+0x498>
    89e0:	eb00013d 	bl	8edc <printk>
    89e4:	e594302c 	ldr	r3, [r4, #44]	; 0x2c
    89e8:	e2833001 	add	r3, r3, #1
    89ec:	e584302c 	str	r3, [r4, #44]	; 0x2c
    89f0:	e5942028 	ldr	r2, [r4, #40]	; 0x28
    89f4:	e2822001 	add	r2, r2, #1
    89f8:	e5842028 	str	r2, [r4, #40]	; 0x28
    89fc:	e5943024 	ldr	r3, [r4, #36]	; 0x24
    8a00:	e3530000 	cmp	r3, #0
    8a04:	1affffcd 	bne	8940 <check_one_cswitch+0x3c>
    8a08:	e5941014 	ldr	r1, [r4, #20]
    8a0c:	e59f038c 	ldr	r0, [pc, #908]	; 8da0 <check_one_cswitch+0x49c>
    8a10:	e594302c 	ldr	r3, [r4, #44]	; 0x2c
    8a14:	eb000130 	bl	8edc <printk>
    8a18:	e208301f 	and	r3, r8, #31
    8a1c:	e3530012 	cmp	r3, #18
    8a20:	13530010 	cmpne	r3, #16
    8a24:	0a000006 	beq	8a44 <check_one_cswitch+0x140>
    8a28:	e3530017 	cmp	r3, #23
    8a2c:	13530013 	cmpne	r3, #19
    8a30:	0a000005 	beq	8a4c <check_one_cswitch+0x148>
    8a34:	e353001f 	cmp	r3, #31
    8a38:	1a000005 	bne	8a54 <check_one_cswitch+0x150>
    8a3c:	e3a02001 	mov	r2, #1
    8a40:	ea000004 	b	8a58 <check_one_cswitch+0x154>
    8a44:	e3a02001 	mov	r2, #1
    8a48:	ea000002 	b	8a58 <check_one_cswitch+0x154>
    8a4c:	e3a02001 	mov	r2, #1
    8a50:	ea000000 	b	8a58 <check_one_cswitch+0x154>
    8a54:	e3a02000 	mov	r2, #0
    8a58:	e3520000 	cmp	r2, #0
    8a5c:	1a000008 	bne	8a84 <check_one_cswitch+0x180>
    8a60:	eb000138 	bl	8f48 <rpi_reset_putc>
    8a64:	e59f3338 	ldr	r3, [pc, #824]	; 8da4 <check_one_cswitch+0x4a0>
    8a68:	e58d3000 	str	r3, [sp]
    8a6c:	e59f0334 	ldr	r0, [pc, #820]	; 8da8 <check_one_cswitch+0x4a4>
    8a70:	e59f1334 	ldr	r1, [pc, #820]	; 8dac <check_one_cswitch+0x4a8>
    8a74:	e59f2334 	ldr	r2, [pc, #820]	; 8db0 <check_one_cswitch+0x4ac>
    8a78:	e3a03011 	mov	r3, #17
    8a7c:	eb000116 	bl	8edc <printk>
    8a80:	eb0002ad 	bl	953c <clean_reboot>
    8a84:	e2433010 	sub	r3, r3, #16
    8a88:	e353000f 	cmp	r3, #15
    8a8c:	979ff103 	ldrls	pc, [pc, r3, lsl #2]
    8a90:	ea000019 	b	8afc <check_one_cswitch+0x1f8>
    8a94:	00008b1c 	andeq	r8, r0, ip, lsl fp
    8a98:	00008b24 	andeq	r8, r0, r4, lsr #22
    8a9c:	00008ad4 	ldrdeq	r8, [r0], -r4
    8aa0:	00008adc 	ldrdeq	r8, [r0], -ip
    8aa4:	00008afc 	strdeq	r8, [r0], -ip
    8aa8:	00008afc 	strdeq	r8, [r0], -ip
    8aac:	00008afc 	strdeq	r8, [r0], -ip
    8ab0:	00008ae4 	andeq	r8, r0, r4, ror #21
    8ab4:	00008afc 	strdeq	r8, [r0], -ip
    8ab8:	00008afc 	strdeq	r8, [r0], -ip
    8abc:	00008afc 	strdeq	r8, [r0], -ip
    8ac0:	00008aec 	andeq	r8, r0, ip, ror #21
    8ac4:	00008afc 	strdeq	r8, [r0], -ip
    8ac8:	00008afc 	strdeq	r8, [r0], -ip
    8acc:	00008afc 	strdeq	r8, [r0], -ip
    8ad0:	00008af4 	strdeq	r8, [r0], -r4
    8ad4:	e59f12d8 	ldr	r1, [pc, #728]	; 8db4 <check_one_cswitch+0x4b0>
    8ad8:	ea000012 	b	8b28 <check_one_cswitch+0x224>
    8adc:	e59f12d4 	ldr	r1, [pc, #724]	; 8db8 <check_one_cswitch+0x4b4>
    8ae0:	ea000010 	b	8b28 <check_one_cswitch+0x224>
    8ae4:	e59f12d0 	ldr	r1, [pc, #720]	; 8dbc <check_one_cswitch+0x4b8>
    8ae8:	ea00000e 	b	8b28 <check_one_cswitch+0x224>
    8aec:	e59f12cc 	ldr	r1, [pc, #716]	; 8dc0 <check_one_cswitch+0x4bc>
    8af0:	ea00000c 	b	8b28 <check_one_cswitch+0x224>
    8af4:	e59f12c8 	ldr	r1, [pc, #712]	; 8dc4 <check_one_cswitch+0x4c0>
    8af8:	ea00000a 	b	8b28 <check_one_cswitch+0x224>
    8afc:	eb000111 	bl	8f48 <rpi_reset_putc>
    8b00:	e58d8000 	str	r8, [sp]
    8b04:	e59f02bc 	ldr	r0, [pc, #700]	; 8dc8 <check_one_cswitch+0x4c4>
    8b08:	e59f129c 	ldr	r1, [pc, #668]	; 8dac <check_one_cswitch+0x4a8>
    8b0c:	e59f22b8 	ldr	r2, [pc, #696]	; 8dcc <check_one_cswitch+0x4c8>
    8b10:	e3a03021 	mov	r3, #33	; 0x21
    8b14:	eb0000f0 	bl	8edc <printk>
    8b18:	eb000287 	bl	953c <clean_reboot>
    8b1c:	e59f12ac 	ldr	r1, [pc, #684]	; 8dd0 <check_one_cswitch+0x4cc>
    8b20:	ea000000 	b	8b28 <check_one_cswitch+0x224>
    8b24:	e59f12a8 	ldr	r1, [pc, #680]	; 8dd4 <check_one_cswitch+0x4d0>
    8b28:	e59f02a8 	ldr	r0, [pc, #680]	; 8dd8 <check_one_cswitch+0x4d4>
    8b2c:	e1a02008 	mov	r2, r8
    8b30:	eb0000e9 	bl	8edc <printk>
    8b34:	e10f5000 	mrs	r5, CPSR
    8b38:	e205301f 	and	r3, r5, #31
    8b3c:	e3530012 	cmp	r3, #18
    8b40:	13530010 	cmpne	r3, #16
    8b44:	0a000006 	beq	8b64 <check_one_cswitch+0x260>
    8b48:	e3530017 	cmp	r3, #23
    8b4c:	13530013 	cmpne	r3, #19
    8b50:	0a000005 	beq	8b6c <check_one_cswitch+0x268>
    8b54:	e353001f 	cmp	r3, #31
    8b58:	1a000005 	bne	8b74 <check_one_cswitch+0x270>
    8b5c:	e3a02001 	mov	r2, #1
    8b60:	ea000004 	b	8b78 <check_one_cswitch+0x274>
    8b64:	e3a02001 	mov	r2, #1
    8b68:	ea000002 	b	8b78 <check_one_cswitch+0x274>
    8b6c:	e3a02001 	mov	r2, #1
    8b70:	ea000000 	b	8b78 <check_one_cswitch+0x274>
    8b74:	e3a02000 	mov	r2, #0
    8b78:	e3520000 	cmp	r2, #0
    8b7c:	1a000008 	bne	8ba4 <check_one_cswitch+0x2a0>
    8b80:	eb0000f0 	bl	8f48 <rpi_reset_putc>
    8b84:	e59f3218 	ldr	r3, [pc, #536]	; 8da4 <check_one_cswitch+0x4a0>
    8b88:	e58d3000 	str	r3, [sp]
    8b8c:	e59f0214 	ldr	r0, [pc, #532]	; 8da8 <check_one_cswitch+0x4a4>
    8b90:	e59f1214 	ldr	r1, [pc, #532]	; 8dac <check_one_cswitch+0x4a8>
    8b94:	e59f2214 	ldr	r2, [pc, #532]	; 8db0 <check_one_cswitch+0x4ac>
    8b98:	e3a03011 	mov	r3, #17
    8b9c:	eb0000ce 	bl	8edc <printk>
    8ba0:	eb000265 	bl	953c <clean_reboot>
    8ba4:	e2433010 	sub	r3, r3, #16
    8ba8:	e353000f 	cmp	r3, #15
    8bac:	979ff103 	ldrls	pc, [pc, r3, lsl #2]
    8bb0:	ea000019 	b	8c1c <check_one_cswitch+0x318>
    8bb4:	00008c3c 	andeq	r8, r0, ip, lsr ip
    8bb8:	00008c44 	andeq	r8, r0, r4, asr #24
    8bbc:	00008bf4 	strdeq	r8, [r0], -r4
    8bc0:	00008bfc 	strdeq	r8, [r0], -ip
    8bc4:	00008c1c 	andeq	r8, r0, ip, lsl ip
    8bc8:	00008c1c 	andeq	r8, r0, ip, lsl ip
    8bcc:	00008c1c 	andeq	r8, r0, ip, lsl ip
    8bd0:	00008c04 	andeq	r8, r0, r4, lsl #24
    8bd4:	00008c1c 	andeq	r8, r0, ip, lsl ip
    8bd8:	00008c1c 	andeq	r8, r0, ip, lsl ip
    8bdc:	00008c1c 	andeq	r8, r0, ip, lsl ip
    8be0:	00008c0c 	andeq	r8, r0, ip, lsl #24
    8be4:	00008c1c 	andeq	r8, r0, ip, lsl ip
    8be8:	00008c1c 	andeq	r8, r0, ip, lsl ip
    8bec:	00008c1c 	andeq	r8, r0, ip, lsl ip
    8bf0:	00008c14 	andeq	r8, r0, r4, lsl ip
    8bf4:	e59f11b8 	ldr	r1, [pc, #440]	; 8db4 <check_one_cswitch+0x4b0>
    8bf8:	ea000012 	b	8c48 <check_one_cswitch+0x344>
    8bfc:	e59f11b4 	ldr	r1, [pc, #436]	; 8db8 <check_one_cswitch+0x4b4>
    8c00:	ea000010 	b	8c48 <check_one_cswitch+0x344>
    8c04:	e59f11b0 	ldr	r1, [pc, #432]	; 8dbc <check_one_cswitch+0x4b8>
    8c08:	ea00000e 	b	8c48 <check_one_cswitch+0x344>
    8c0c:	e59f11ac 	ldr	r1, [pc, #428]	; 8dc0 <check_one_cswitch+0x4bc>
    8c10:	ea00000c 	b	8c48 <check_one_cswitch+0x344>
    8c14:	e59f11a8 	ldr	r1, [pc, #424]	; 8dc4 <check_one_cswitch+0x4c0>
    8c18:	ea00000a 	b	8c48 <check_one_cswitch+0x344>
    8c1c:	eb0000c9 	bl	8f48 <rpi_reset_putc>
    8c20:	e58d5000 	str	r5, [sp]
    8c24:	e59f019c 	ldr	r0, [pc, #412]	; 8dc8 <check_one_cswitch+0x4c4>
    8c28:	e59f117c 	ldr	r1, [pc, #380]	; 8dac <check_one_cswitch+0x4a8>
    8c2c:	e59f2198 	ldr	r2, [pc, #408]	; 8dcc <check_one_cswitch+0x4c8>
    8c30:	e3a03021 	mov	r3, #33	; 0x21
    8c34:	eb0000a8 	bl	8edc <printk>
    8c38:	eb00023f 	bl	953c <clean_reboot>
    8c3c:	e59f118c 	ldr	r1, [pc, #396]	; 8dd0 <check_one_cswitch+0x4cc>
    8c40:	ea000000 	b	8c48 <check_one_cswitch+0x344>
    8c44:	e59f1188 	ldr	r1, [pc, #392]	; 8dd4 <check_one_cswitch+0x4d0>
    8c48:	e10f2000 	mrs	r2, CPSR
    8c4c:	e59f0188 	ldr	r0, [pc, #392]	; 8ddc <check_one_cswitch+0x4d8>
    8c50:	eb0000a1 	bl	8edc <printk>
    8c54:	e3a00000 	mov	r0, #0
    8c58:	ebfffe50 	bl	85a0 <brkpt_mismatch_disable0>
    8c5c:	e208801f 	and	r8, r8, #31
    8c60:	e3580012 	cmp	r8, #18
    8c64:	13580010 	cmpne	r8, #16
    8c68:	0a000006 	beq	8c88 <check_one_cswitch+0x384>
    8c6c:	e3580017 	cmp	r8, #23
    8c70:	13580013 	cmpne	r8, #19
    8c74:	0a000005 	beq	8c90 <check_one_cswitch+0x38c>
    8c78:	e358001f 	cmp	r8, #31
    8c7c:	1a000005 	bne	8c98 <check_one_cswitch+0x394>
    8c80:	e3a03001 	mov	r3, #1
    8c84:	ea000004 	b	8c9c <check_one_cswitch+0x398>
    8c88:	e3a03001 	mov	r3, #1
    8c8c:	ea000002 	b	8c9c <check_one_cswitch+0x398>
    8c90:	e3a03001 	mov	r3, #1
    8c94:	ea000000 	b	8c9c <check_one_cswitch+0x398>
    8c98:	e3a03000 	mov	r3, #0
    8c9c:	e3530000 	cmp	r3, #0
    8ca0:	1a000008 	bne	8cc8 <check_one_cswitch+0x3c4>
    8ca4:	eb0000a7 	bl	8f48 <rpi_reset_putc>
    8ca8:	e59f30f4 	ldr	r3, [pc, #244]	; 8da4 <check_one_cswitch+0x4a0>
    8cac:	e58d3000 	str	r3, [sp]
    8cb0:	e59f00f0 	ldr	r0, [pc, #240]	; 8da8 <check_one_cswitch+0x4a4>
    8cb4:	e59f10f0 	ldr	r1, [pc, #240]	; 8dac <check_one_cswitch+0x4a8>
    8cb8:	e59f20f0 	ldr	r2, [pc, #240]	; 8db0 <check_one_cswitch+0x4ac>
    8cbc:	e3a03011 	mov	r3, #17
    8cc0:	eb000085 	bl	8edc <printk>
    8cc4:	eb00021c 	bl	953c <clean_reboot>
    8cc8:	e10f3000 	mrs	r3, CPSR
    8ccc:	e203301f 	and	r3, r3, #31
    8cd0:	e3530012 	cmp	r3, #18
    8cd4:	13530010 	cmpne	r3, #16
    8cd8:	0a000006 	beq	8cf8 <check_one_cswitch+0x3f4>
    8cdc:	e3530017 	cmp	r3, #23
    8ce0:	13530013 	cmpne	r3, #19
    8ce4:	0a000005 	beq	8d00 <check_one_cswitch+0x3fc>
    8ce8:	e353001f 	cmp	r3, #31
    8cec:	1a000005 	bne	8d08 <check_one_cswitch+0x404>
    8cf0:	e3a02001 	mov	r2, #1
    8cf4:	ea000004 	b	8d0c <check_one_cswitch+0x408>
    8cf8:	e3a02001 	mov	r2, #1
    8cfc:	ea000002 	b	8d0c <check_one_cswitch+0x408>
    8d00:	e3a02001 	mov	r2, #1
    8d04:	ea000000 	b	8d0c <check_one_cswitch+0x408>
    8d08:	e3a02000 	mov	r2, #0
    8d0c:	e3520000 	cmp	r2, #0
    8d10:	1a000008 	bne	8d38 <check_one_cswitch+0x434>
    8d14:	eb00008b 	bl	8f48 <rpi_reset_putc>
    8d18:	e59f3084 	ldr	r3, [pc, #132]	; 8da4 <check_one_cswitch+0x4a0>
    8d1c:	e58d3000 	str	r3, [sp]
    8d20:	e59f0080 	ldr	r0, [pc, #128]	; 8da8 <check_one_cswitch+0x4a4>
    8d24:	e59f1080 	ldr	r1, [pc, #128]	; 8dac <check_one_cswitch+0x4a8>
    8d28:	e59f2080 	ldr	r2, [pc, #128]	; 8db0 <check_one_cswitch+0x4ac>
    8d2c:	e3a03011 	mov	r3, #17
    8d30:	eb000069 	bl	8edc <printk>
    8d34:	eb000200 	bl	953c <clean_reboot>
    8d38:	e1580003 	cmp	r8, r3
    8d3c:	0a000008 	beq	8d64 <check_one_cswitch+0x460>
    8d40:	eb000080 	bl	8f48 <rpi_reset_putc>
    8d44:	e59f3094 	ldr	r3, [pc, #148]	; 8de0 <check_one_cswitch+0x4dc>
    8d48:	e58d3000 	str	r3, [sp]
    8d4c:	e59f0054 	ldr	r0, [pc, #84]	; 8da8 <check_one_cswitch+0x4a4>
    8d50:	e59f1038 	ldr	r1, [pc, #56]	; 8d90 <check_one_cswitch+0x48c>
    8d54:	e59f2038 	ldr	r2, [pc, #56]	; 8d94 <check_one_cswitch+0x490>
    8d58:	e3a03058 	mov	r3, #88	; 0x58
    8d5c:	eb00005e 	bl	8edc <printk>
    8d60:	eb0001f5 	bl	953c <clean_reboot>
    8d64:	e3a03000 	mov	r3, #0
    8d68:	e5843030 	str	r3, [r4, #48]	; 0x30
    8d6c:	e594002c 	ldr	r0, [r4, #44]	; 0x2c
    8d70:	e1500003 	cmp	r0, r3
    8d74:	13a00000 	movne	r0, #0
    8d78:	03a00001 	moveq	r0, #1
    8d7c:	e28dd00c 	add	sp, sp, #12
    8d80:	e8bd8ff0 	pop	{r4, r5, r6, r7, r8, r9, sl, fp, pc}
    8d84:	0000a36c 	andeq	sl, r0, ip, ror #6
    8d88:	0000a360 	andeq	sl, r0, r0, ror #6
    8d8c:	00009f34 	andeq	r9, r0, r4, lsr pc
    8d90:	00009e0c 	andeq	r9, r0, ip, lsl #28
    8d94:	0000a0dc 	ldrdeq	sl, [r0], -ip
    8d98:	00008758 	andeq	r8, r0, r8, asr r7
    8d9c:	00009f6c 	andeq	r9, r0, ip, ror #30
    8da0:	00009fb4 			; <UNDEFINED> instruction: 0x00009fb4
    8da4:	00009ff4 	strdeq	r9, [r0], -r4
    8da8:	00009b40 	andeq	r9, r0, r0, asr #22
    8dac:	00009fe8 	andeq	r9, r0, r8, ror #31
    8db0:	0000a128 	andeq	sl, r0, r8, lsr #2
    8db4:	00009ef8 	strdeq	r9, [r0], -r8
    8db8:	00009f04 	andeq	r9, r0, r4, lsl #30
    8dbc:	00009f10 	andeq	r9, r0, r0, lsl pc
    8dc0:	00009f1c 	andeq	r9, r0, ip, lsl pc
    8dc4:	00009f28 	andeq	r9, r0, r8, lsr #30
    8dc8:	0000a008 	andeq	sl, r0, r8
    8dcc:	0000a11c 	andeq	sl, r0, ip, lsl r1
    8dd0:	00009ee0 	andeq	r9, r0, r0, ror #29
    8dd4:	00009eec 	andeq	r9, r0, ip, ror #29
    8dd8:	0000a02c 	andeq	sl, r0, ip, lsr #32
    8ddc:	0000a048 	andeq	sl, r0, r8, asr #32
    8de0:	0000a060 	andeq	sl, r0, r0, rrx

00008de4 <check_sequential>:
    8de4:	e92d4038 	push	{r3, r4, r5, lr}
    8de8:	e1a04000 	mov	r4, r0
    8dec:	e3a05000 	mov	r5, #0
    8df0:	ea000015 	b	8e4c <check_sequential+0x68>
    8df4:	e594300c 	ldr	r3, [r4, #12]
    8df8:	e1a00004 	mov	r0, r4
    8dfc:	e12fff33 	blx	r3
    8e00:	e5943004 	ldr	r3, [r4, #4]
    8e04:	e1a00004 	mov	r0, r4
    8e08:	e12fff33 	blx	r3
    8e0c:	e5943008 	ldr	r3, [r4, #8]
    8e10:	e1a00004 	mov	r0, r4
    8e14:	e12fff33 	blx	r3
    8e18:	e5943010 	ldr	r3, [r4, #16]
    8e1c:	e1a00004 	mov	r0, r4
    8e20:	e12fff33 	blx	r3
    8e24:	e3500000 	cmp	r0, #0
    8e28:	1a000006 	bne	8e48 <check_sequential+0x64>
    8e2c:	eb000045 	bl	8f48 <rpi_reset_putc>
    8e30:	e59f0024 	ldr	r0, [pc, #36]	; 8e5c <check_sequential+0x78>
    8e34:	e59f1024 	ldr	r1, [pc, #36]	; 8e60 <check_sequential+0x7c>
    8e38:	e59f2024 	ldr	r2, [pc, #36]	; 8e64 <check_sequential+0x80>
    8e3c:	e3a0306e 	mov	r3, #110	; 0x6e
    8e40:	eb000025 	bl	8edc <printk>
    8e44:	eb0001bc 	bl	953c <clean_reboot>
    8e48:	e2855001 	add	r5, r5, #1
    8e4c:	e3550063 	cmp	r5, #99	; 0x63
    8e50:	9affffe7 	bls	8df4 <check_sequential+0x10>
    8e54:	e3a00001 	mov	r0, #1
    8e58:	e8bd8038 	pop	{r3, r4, r5, pc}
    8e5c:	0000a08c 	andeq	sl, r0, ip, lsl #1
    8e60:	00009e0c 	andeq	r9, r0, ip, lsl #28
    8e64:	0000a0c8 	andeq	sl, r0, r8, asr #1

00008e68 <check_zero>:
    8e68:	e3a03000 	mov	r3, #0
    8e6c:	e5803030 	str	r3, [r0, #48]	; 0x30
    8e70:	e580302c 	str	r3, [r0, #44]	; 0x2c
    8e74:	e5803028 	str	r3, [r0, #40]	; 0x28
    8e78:	e5803024 	str	r3, [r0, #36]	; 0x24
    8e7c:	e5803020 	str	r3, [r0, #32]
    8e80:	e580301c 	str	r3, [r0, #28]
    8e84:	e5803018 	str	r3, [r0, #24]
    8e88:	e5803014 	str	r3, [r0, #20]
    8e8c:	e12fff1e 	bx	lr

00008e90 <check>:
    8e90:	e92d4010 	push	{r4, lr}
    8e94:	e1a04000 	mov	r4, r0
    8e98:	ebfffd65 	bl	8434 <cp14_enable>
    8e9c:	e1a00004 	mov	r0, r4
    8ea0:	ebfffff0 	bl	8e68 <check_zero>
    8ea4:	e1a00004 	mov	r0, r4
    8ea8:	ebffffcd 	bl	8de4 <check_sequential>
    8eac:	e3500000 	cmp	r0, #0
    8eb0:	0a000005 	beq	8ecc <check+0x3c>
    8eb4:	e1a00004 	mov	r0, r4
    8eb8:	ebfffe91 	bl	8904 <check_one_cswitch>
    8ebc:	e3500000 	cmp	r0, #0
    8ec0:	0a000003 	beq	8ed4 <check+0x44>
    8ec4:	e3a00001 	mov	r0, #1
    8ec8:	e8bd8010 	pop	{r4, pc}
    8ecc:	e3a00000 	mov	r0, #0
    8ed0:	e8bd8010 	pop	{r4, pc}
    8ed4:	e3a00000 	mov	r0, #0
    8ed8:	e8bd8010 	pop	{r4, pc}

00008edc <printk>:
    8edc:	e92d000f 	push	{r0, r1, r2, r3}
    8ee0:	e92d4030 	push	{r4, r5, lr}
    8ee4:	e24dd00c 	sub	sp, sp, #12
    8ee8:	e28d301c 	add	r3, sp, #28
    8eec:	e58d3004 	str	r3, [sp, #4]
    8ef0:	e59f4034 	ldr	r4, [pc, #52]	; 8f2c <printk+0x50>
    8ef4:	e1a00004 	mov	r0, r4
    8ef8:	e3a01b01 	mov	r1, #1024	; 0x400
    8efc:	e59d2018 	ldr	r2, [sp, #24]
    8f00:	eb0000d0 	bl	9248 <va_printk>
    8f04:	e1a05000 	mov	r5, r0
    8f08:	e59f3020 	ldr	r3, [pc, #32]	; 8f30 <printk+0x54>
    8f0c:	e5933000 	ldr	r3, [r3]
    8f10:	e1a00004 	mov	r0, r4
    8f14:	e12fff33 	blx	r3
    8f18:	e1a00005 	mov	r0, r5
    8f1c:	e28dd00c 	add	sp, sp, #12
    8f20:	e8bd4030 	pop	{r4, r5, lr}
    8f24:	e28dd010 	add	sp, sp, #16
    8f28:	e12fff1e 	bx	lr
    8f2c:	0000a374 	andeq	sl, r0, r4, ror r3
    8f30:	00009aec 	andeq	r9, r0, ip, ror #21

00008f34 <internal_putchar>:
    8f34:	e92d4010 	push	{r4, lr}
    8f38:	e1a04000 	mov	r4, r0
    8f3c:	eb000291 	bl	9988 <uart_putc>
    8f40:	e1a00004 	mov	r0, r4
    8f44:	e8bd8010 	pop	{r4, pc}

00008f48 <rpi_reset_putc>:
    8f48:	e59f2008 	ldr	r2, [pc, #8]	; 8f58 <rpi_reset_putc+0x10>
    8f4c:	e59f3008 	ldr	r3, [pc, #8]	; 8f5c <rpi_reset_putc+0x14>
    8f50:	e5832000 	str	r2, [r3]
    8f54:	e12fff1e 	bx	lr
    8f58:	00008f34 	andeq	r8, r0, r4, lsr pc
    8f5c:	00009ae8 	andeq	r9, r0, r8, ror #21

00008f60 <rpi_set_putc>:
    8f60:	e59f3004 	ldr	r3, [pc, #4]	; 8f6c <rpi_set_putc+0xc>
    8f64:	e5830000 	str	r0, [r3]
    8f68:	e12fff1e 	bx	lr
    8f6c:	00009ae8 	andeq	r9, r0, r8, ror #21

00008f70 <internal_putk>:
    8f70:	e92d4038 	push	{r3, r4, r5, lr}
    8f74:	e1a04000 	mov	r4, r0
    8f78:	e59f5020 	ldr	r5, [pc, #32]	; 8fa0 <internal_putk+0x30>
    8f7c:	ea000002 	b	8f8c <internal_putk+0x1c>
    8f80:	e5953000 	ldr	r3, [r5]
    8f84:	e12fff33 	blx	r3
    8f88:	e2844001 	add	r4, r4, #1
    8f8c:	e5d40000 	ldrb	r0, [r4]
    8f90:	e3500000 	cmp	r0, #0
    8f94:	1afffff9 	bne	8f80 <internal_putk+0x10>
    8f98:	e3a00001 	mov	r0, #1
    8f9c:	e8bd8038 	pop	{r3, r4, r5, pc}
    8fa0:	00009ae8 	andeq	r9, r0, r8, ror #21

00008fa4 <isdigit>:
    8fa4:	e2400030 	sub	r0, r0, #48	; 0x30
    8fa8:	e3500009 	cmp	r0, #9
    8fac:	83a00000 	movhi	r0, #0
    8fb0:	93a00001 	movls	r0, #1
    8fb4:	e12fff1e 	bx	lr

00008fb8 <pad>:
    8fb8:	e0611000 	rsb	r1, r1, r0
    8fbc:	e3a03020 	mov	r3, #32
    8fc0:	ea000002 	b	8fd0 <pad+0x18>
    8fc4:	e5c03000 	strb	r3, [r0]
    8fc8:	e2811001 	add	r1, r1, #1
    8fcc:	e2800001 	add	r0, r0, #1
    8fd0:	e1510002 	cmp	r1, r2
    8fd4:	bafffffa 	blt	8fc4 <pad+0xc>
    8fd8:	e3a03000 	mov	r3, #0
    8fdc:	e5c03000 	strb	r3, [r0]
    8fe0:	e12fff1e 	bx	lr

00008fe4 <reverse>:
    8fe4:	e063c002 	rsb	ip, r3, r2
    8fe8:	e28cc001 	add	ip, ip, #1
    8fec:	e15c0001 	cmp	ip, r1
    8ff0:	c061100c 	rsbgt	r1, r1, ip
    8ff4:	c0833001 	addgt	r3, r3, r1
    8ff8:	e2422001 	sub	r2, r2, #1
    8ffc:	e1a01000 	mov	r1, r0
    9000:	ea000002 	b	9010 <reverse+0x2c>
    9004:	e452c001 	ldrb	ip, [r2], #-1
    9008:	e5c1c000 	strb	ip, [r1]
    900c:	e2811001 	add	r1, r1, #1
    9010:	e1520003 	cmp	r2, r3
    9014:	2afffffa 	bcs	9004 <reverse+0x20>
    9018:	e3a03000 	mov	r3, #0
    901c:	e5c13000 	strb	r3, [r1]
    9020:	e12fff1e 	bx	lr

00009024 <emit>:
    9024:	e92d41f0 	push	{r4, r5, r6, r7, r8, lr}
    9028:	e24dd048 	sub	sp, sp, #72	; 0x48
    902c:	e1a05001 	mov	r5, r1
    9030:	e1a04002 	mov	r4, r2
    9034:	e59d2060 	ldr	r2, [sp, #96]	; 0x60
    9038:	e1520004 	cmp	r2, r4
    903c:	c2442001 	subgt	r2, r4, #1
    9040:	e1a0c003 	mov	ip, r3
    9044:	e2400002 	sub	r0, r0, #2
    9048:	e350000e 	cmp	r0, #14
    904c:	979ff100 	ldrls	pc, [pc, r0, lsl #2]
    9050:	ea000048 	b	9178 <emit+0x154>
    9054:	00009150 	andeq	r9, r0, r0, asr r1
    9058:	00009178 	andeq	r9, r0, r8, ror r1
    905c:	00009178 	andeq	r9, r0, r8, ror r1
    9060:	00009178 	andeq	r9, r0, r8, ror r1
    9064:	00009178 	andeq	r9, r0, r8, ror r1
    9068:	00009178 	andeq	r9, r0, r8, ror r1
    906c:	00009144 	andeq	r9, r0, r4, asr #2
    9070:	00009178 	andeq	r9, r0, r8, ror r1
    9074:	00009090 	muleq	r0, r0, r0
    9078:	00009178 	andeq	r9, r0, r8, ror r1
    907c:	00009178 	andeq	r9, r0, r8, ror r1
    9080:	00009178 	andeq	r9, r0, r8, ror r1
    9084:	00009178 	andeq	r9, r0, r8, ror r1
    9088:	00009178 	andeq	r9, r0, r8, ror r1
    908c:	00009104 	andeq	r9, r0, r4, lsl #2
    9090:	e59d1064 	ldr	r1, [sp, #100]	; 0x64
    9094:	e2911000 	adds	r1, r1, #0
    9098:	13a01001 	movne	r1, #1
    909c:	e0111fa3 	ands	r1, r1, r3, lsr #31
    90a0:	1263c000 	rsbne	ip, r3, #0
    90a4:	13a08001 	movne	r8, #1
    90a8:	03a08000 	moveq	r8, #0
    90ac:	e28d1008 	add	r1, sp, #8
    90b0:	e59f7108 	ldr	r7, [pc, #264]	; 91c0 <emit+0x19c>
    90b4:	e59f6108 	ldr	r6, [pc, #264]	; 91c4 <emit+0x1a0>
    90b8:	ea000000 	b	90c0 <emit+0x9c>
    90bc:	e1a01000 	mov	r1, r0
    90c0:	e2810001 	add	r0, r1, #1
    90c4:	e083ec97 	umull	lr, r3, r7, ip
    90c8:	e1a031a3 	lsr	r3, r3, #3
    90cc:	e1a0e003 	mov	lr, r3
    90d0:	e0833103 	add	r3, r3, r3, lsl #2
    90d4:	e1a03083 	lsl	r3, r3, #1
    90d8:	e063300c 	rsb	r3, r3, ip
    90dc:	e7d63003 	ldrb	r3, [r6, r3]
    90e0:	e5c13000 	strb	r3, [r1]
    90e4:	e1a0c00e 	mov	ip, lr
    90e8:	e35e0000 	cmp	lr, #0
    90ec:	1afffff2 	bne	90bc <emit+0x98>
    90f0:	e3580000 	cmp	r8, #0
    90f4:	12810002 	addne	r0, r1, #2
    90f8:	13a0302d 	movne	r3, #45	; 0x2d
    90fc:	15c13001 	strbne	r3, [r1, #1]
    9100:	ea000025 	b	919c <emit+0x178>
    9104:	e28d3008 	add	r3, sp, #8
    9108:	e59fe0b8 	ldr	lr, [pc, #184]	; 91c8 <emit+0x1a4>
    910c:	ea000000 	b	9114 <emit+0xf0>
    9110:	e1a03000 	mov	r3, r0
    9114:	e2830001 	add	r0, r3, #1
    9118:	e20c100f 	and	r1, ip, #15
    911c:	e7de1001 	ldrb	r1, [lr, r1]
    9120:	e5c31000 	strb	r1, [r3]
    9124:	e1b0c22c 	lsrs	ip, ip, #4
    9128:	1afffff8 	bne	9110 <emit+0xec>
    912c:	e3a01078 	mov	r1, #120	; 0x78
    9130:	e5c31001 	strb	r1, [r3, #1]
    9134:	e2830003 	add	r0, r3, #3
    9138:	e3a01030 	mov	r1, #48	; 0x30
    913c:	e5c31002 	strb	r1, [r3, #2]
    9140:	ea000015 	b	919c <emit+0x178>
    9144:	e5cd3008 	strb	r3, [sp, #8]
    9148:	e28d0009 	add	r0, sp, #9
    914c:	ea000012 	b	919c <emit+0x178>
    9150:	e28d3008 	add	r3, sp, #8
    9154:	e59fe070 	ldr	lr, [pc, #112]	; 91cc <emit+0x1a8>
    9158:	e2830001 	add	r0, r3, #1
    915c:	e20c1001 	and	r1, ip, #1
    9160:	e7de1001 	ldrb	r1, [lr, r1]
    9164:	e5c31000 	strb	r1, [r3]
    9168:	e1a03000 	mov	r3, r0
    916c:	e1b0c0ac 	lsrs	ip, ip, #1
    9170:	1afffff8 	bne	9158 <emit+0x134>
    9174:	ea000008 	b	919c <emit+0x178>
    9178:	ebffff72 	bl	8f48 <rpi_reset_putc>
    917c:	e59f304c 	ldr	r3, [pc, #76]	; 91d0 <emit+0x1ac>
    9180:	e58d3000 	str	r3, [sp]
    9184:	e59f0048 	ldr	r0, [pc, #72]	; 91d4 <emit+0x1b0>
    9188:	e59f1048 	ldr	r1, [pc, #72]	; 91d8 <emit+0x1b4>
    918c:	e59f2048 	ldr	r2, [pc, #72]	; 91dc <emit+0x1b8>
    9190:	e3a03077 	mov	r3, #119	; 0x77
    9194:	ebffff50 	bl	8edc <printk>
    9198:	eb0000e7 	bl	953c <clean_reboot>
    919c:	e28d1008 	add	r1, sp, #8
    91a0:	ebffff84 	bl	8fb8 <pad>
    91a4:	e1a02000 	mov	r2, r0
    91a8:	e1a00005 	mov	r0, r5
    91ac:	e1a01004 	mov	r1, r4
    91b0:	e28d3008 	add	r3, sp, #8
    91b4:	ebffff8a 	bl	8fe4 <reverse>
    91b8:	e28dd048 	add	sp, sp, #72	; 0x48
    91bc:	e8bd81f0 	pop	{r4, r5, r6, r7, r8, pc}
    91c0:	cccccccd 	stclgt	12, cr12, [ip], {205}	; 0xcd
    91c4:	0000a17c 	andeq	sl, r0, ip, ror r1
    91c8:	0000a188 	andeq	sl, r0, r8, lsl #3
    91cc:	0000a19c 	muleq	r0, ip, r1
    91d0:	0000a178 	andeq	sl, r0, r8, ror r1
    91d4:	00009b40 	andeq	r9, r0, r0, asr #22
    91d8:	0000a164 	andeq	sl, r0, r4, ror #2
    91dc:	0000a140 	andeq	sl, r0, r0, asr #2

000091e0 <rpi_set_output>:
    91e0:	e52de004 	push	{lr}		; (str lr, [sp, #-4]!)
    91e4:	e24dd00c 	sub	sp, sp, #12
    91e8:	e3500000 	cmp	r0, #0
    91ec:	1a000008 	bne	9214 <rpi_set_output+0x34>
    91f0:	ebffff54 	bl	8f48 <rpi_reset_putc>
    91f4:	e59f3034 	ldr	r3, [pc, #52]	; 9230 <rpi_set_output+0x50>
    91f8:	e58d3000 	str	r3, [sp]
    91fc:	e59f0030 	ldr	r0, [pc, #48]	; 9234 <rpi_set_output+0x54>
    9200:	e59f1030 	ldr	r1, [pc, #48]	; 9238 <rpi_set_output+0x58>
    9204:	e59f2030 	ldr	r2, [pc, #48]	; 923c <rpi_set_output+0x5c>
    9208:	e3a03020 	mov	r3, #32
    920c:	ebffff32 	bl	8edc <printk>
    9210:	eb0000c9 	bl	953c <clean_reboot>
    9214:	e59f3024 	ldr	r3, [pc, #36]	; 9240 <rpi_set_output+0x60>
    9218:	e5830000 	str	r0, [r3]
    921c:	e3510000 	cmp	r1, #0
    9220:	159f301c 	ldrne	r3, [pc, #28]	; 9244 <rpi_set_output+0x64>
    9224:	15831000 	strne	r1, [r3]
    9228:	e28dd00c 	add	sp, sp, #12
    922c:	e49df004 	pop	{pc}		; (ldr pc, [sp], #4)
    9230:	0000a1a0 	andeq	sl, r0, r0, lsr #3
    9234:	00009b40 	andeq	r9, r0, r0, asr #22
    9238:	0000a164 	andeq	sl, r0, r4, ror #2
    923c:	0000a148 	andeq	sl, r0, r8, asr #2
    9240:	00009ae8 	andeq	r9, r0, r8, ror #21
    9244:	00009aec 	andeq	r9, r0, ip, ror #21

00009248 <va_printk>:
    9248:	e92d4ff0 	push	{r4, r5, r6, r7, r8, r9, sl, fp, lr}
    924c:	e24dd094 	sub	sp, sp, #148	; 0x94
    9250:	e1a0b000 	mov	fp, r0
    9254:	e58d200c 	str	r2, [sp, #12]
    9258:	e1a0a003 	mov	sl, r3
    925c:	e2411001 	sub	r1, r1, #1
    9260:	e0808001 	add	r8, r0, r1
    9264:	e3a03000 	mov	r3, #0
    9268:	e5c03000 	strb	r3, [r0]
    926c:	e1a04000 	mov	r4, r0
    9270:	e1a06002 	mov	r6, r2
    9274:	ea000095 	b	94d0 <va_printk+0x288>
    9278:	e3530025 	cmp	r3, #37	; 0x25
    927c:	12866001 	addne	r6, r6, #1
    9280:	15c43000 	strbne	r3, [r4]
    9284:	12844001 	addne	r4, r4, #1
    9288:	1a000090 	bne	94d0 <va_printk+0x288>
    928c:	e5d62001 	ldrb	r2, [r6, #1]
    9290:	e3520025 	cmp	r2, #37	; 0x25
    9294:	05c43000 	strbeq	r3, [r4]
    9298:	02866002 	addeq	r6, r6, #2
    929c:	02844001 	addeq	r4, r4, #1
    92a0:	0a00008a 	beq	94d0 <va_printk+0x288>
    92a4:	e2866001 	add	r6, r6, #1
    92a8:	e3a07000 	mov	r7, #0
    92ac:	ea000004 	b	92c4 <va_printk+0x7c>
    92b0:	e0877107 	add	r7, r7, r7, lsl #2
    92b4:	e1a07087 	lsl	r7, r7, #1
    92b8:	e0877005 	add	r7, r7, r5
    92bc:	e2477030 	sub	r7, r7, #48	; 0x30
    92c0:	e2866001 	add	r6, r6, #1
    92c4:	e5d65000 	ldrb	r5, [r6]
    92c8:	e1a09005 	mov	r9, r5
    92cc:	e1a00005 	mov	r0, r5
    92d0:	ebffff33 	bl	8fa4 <isdigit>
    92d4:	e3500000 	cmp	r0, #0
    92d8:	1afffff4 	bne	92b0 <va_printk+0x68>
    92dc:	e357001f 	cmp	r7, #31
    92e0:	9a000008 	bls	9308 <va_printk+0xc0>
    92e4:	ebffff17 	bl	8f48 <rpi_reset_putc>
    92e8:	e59f320c 	ldr	r3, [pc, #524]	; 94fc <va_printk+0x2b4>
    92ec:	e58d3000 	str	r3, [sp]
    92f0:	e59f0208 	ldr	r0, [pc, #520]	; 9500 <va_printk+0x2b8>
    92f4:	e59f1208 	ldr	r1, [pc, #520]	; 9504 <va_printk+0x2bc>
    92f8:	e59f2208 	ldr	r2, [pc, #520]	; 9508 <va_printk+0x2c0>
    92fc:	e3a03095 	mov	r3, #149	; 0x95
    9300:	ebfffef5 	bl	8edc <printk>
    9304:	eb00008c 	bl	953c <clean_reboot>
    9308:	e2455062 	sub	r5, r5, #98	; 0x62
    930c:	e3550016 	cmp	r5, #22
    9310:	979ff105 	ldrls	pc, [pc, r5, lsl #2]
    9314:	ea000052 	b	9464 <va_printk+0x21c>
    9318:	00009408 	andeq	r9, r0, r8, lsl #8
    931c:	0000943c 	andeq	r9, r0, ip, lsr r4
    9320:	00009390 	muleq	r0, r0, r3
    9324:	00009464 	andeq	r9, r0, r4, ror #8
    9328:	00009374 	andeq	r9, r0, r4, ror r3
    932c:	00009464 	andeq	r9, r0, r4, ror #8
    9330:	00009464 	andeq	r9, r0, r4, ror #8
    9334:	00009464 	andeq	r9, r0, r4, ror #8
    9338:	00009464 	andeq	r9, r0, r4, ror #8
    933c:	00009464 	andeq	r9, r0, r4, ror #8
    9340:	00009464 	andeq	r9, r0, r4, ror #8
    9344:	00009464 	andeq	r9, r0, r4, ror #8
    9348:	00009464 	andeq	r9, r0, r4, ror #8
    934c:	00009464 	andeq	r9, r0, r4, ror #8
    9350:	000093e0 	andeq	r9, r0, r0, ror #7
    9354:	00009464 	andeq	r9, r0, r4, ror #8
    9358:	00009464 	andeq	r9, r0, r4, ror #8
    935c:	00009430 	andeq	r9, r0, r0, lsr r4
    9360:	00009464 	andeq	r9, r0, r4, ror #8
    9364:	000093b8 			; <UNDEFINED> instruction: 0x000093b8
    9368:	00009464 	andeq	r9, r0, r4, ror #8
    936c:	00009464 	andeq	r9, r0, r4, ror #8
    9370:	000093e0 	andeq	r9, r0, r0, ror #7
    9374:	ebfffef3 	bl	8f48 <rpi_reset_putc>
    9378:	e59f018c 	ldr	r0, [pc, #396]	; 950c <va_printk+0x2c4>
    937c:	e59f1180 	ldr	r1, [pc, #384]	; 9504 <va_printk+0x2bc>
    9380:	e59f2180 	ldr	r2, [pc, #384]	; 9508 <va_printk+0x2c0>
    9384:	e3a0309b 	mov	r3, #155	; 0x9b
    9388:	ebfffed3 	bl	8edc <printk>
    938c:	eb00006a 	bl	953c <clean_reboot>
    9390:	e59a3000 	ldr	r3, [sl]
    9394:	e28aa004 	add	sl, sl, #4
    9398:	e58d7000 	str	r7, [sp]
    939c:	e3a02001 	mov	r2, #1
    93a0:	e58d2004 	str	r2, [sp, #4]
    93a4:	e3a0000a 	mov	r0, #10
    93a8:	e28d1010 	add	r1, sp, #16
    93ac:	e3a02080 	mov	r2, #128	; 0x80
    93b0:	ebffff1b 	bl	9024 <emit>
    93b4:	ea00003b 	b	94a8 <va_printk+0x260>
    93b8:	e59a3000 	ldr	r3, [sl]
    93bc:	e28aa004 	add	sl, sl, #4
    93c0:	e58d7000 	str	r7, [sp]
    93c4:	e3a02000 	mov	r2, #0
    93c8:	e58d2004 	str	r2, [sp, #4]
    93cc:	e3a0000a 	mov	r0, #10
    93d0:	e28d1010 	add	r1, sp, #16
    93d4:	e3a02080 	mov	r2, #128	; 0x80
    93d8:	ebffff11 	bl	9024 <emit>
    93dc:	ea000031 	b	94a8 <va_printk+0x260>
    93e0:	e59a3000 	ldr	r3, [sl]
    93e4:	e28aa004 	add	sl, sl, #4
    93e8:	e58d7000 	str	r7, [sp]
    93ec:	e3a02000 	mov	r2, #0
    93f0:	e58d2004 	str	r2, [sp, #4]
    93f4:	e3a00010 	mov	r0, #16
    93f8:	e08d1000 	add	r1, sp, r0
    93fc:	e3a02080 	mov	r2, #128	; 0x80
    9400:	ebffff07 	bl	9024 <emit>
    9404:	ea000027 	b	94a8 <va_printk+0x260>
    9408:	e59a3000 	ldr	r3, [sl]
    940c:	e28aa004 	add	sl, sl, #4
    9410:	e58d7000 	str	r7, [sp]
    9414:	e3a02000 	mov	r2, #0
    9418:	e58d2004 	str	r2, [sp, #4]
    941c:	e3a00002 	mov	r0, #2
    9420:	e28d1010 	add	r1, sp, #16
    9424:	e3a02080 	mov	r2, #128	; 0x80
    9428:	ebfffefd 	bl	9024 <emit>
    942c:	ea00001d 	b	94a8 <va_printk+0x260>
    9430:	e59a0000 	ldr	r0, [sl]
    9434:	e28aa004 	add	sl, sl, #4
    9438:	ea00001a 	b	94a8 <va_printk+0x260>
    943c:	e59a3000 	ldr	r3, [sl]
    9440:	e28aa004 	add	sl, sl, #4
    9444:	e58d7000 	str	r7, [sp]
    9448:	e3a02000 	mov	r2, #0
    944c:	e58d2004 	str	r2, [sp, #4]
    9450:	e3a00008 	mov	r0, #8
    9454:	e28d1010 	add	r1, sp, #16
    9458:	e3a02080 	mov	r2, #128	; 0x80
    945c:	ebfffef0 	bl	9024 <emit>
    9460:	ea000010 	b	94a8 <va_printk+0x260>
    9464:	e3a03000 	mov	r3, #0
    9468:	e5c63001 	strb	r3, [r6, #1]
    946c:	e59f009c 	ldr	r0, [pc, #156]	; 9510 <va_printk+0x2c8>
    9470:	e1a01009 	mov	r1, r9
    9474:	e1a02009 	mov	r2, r9
    9478:	ebfffe97 	bl	8edc <printk>
    947c:	e59f3090 	ldr	r3, [pc, #144]	; 9514 <va_printk+0x2cc>
    9480:	e5933000 	ldr	r3, [r3]
    9484:	e59d000c 	ldr	r0, [sp, #12]
    9488:	e12fff33 	blx	r3
    948c:	ebfffead 	bl	8f48 <rpi_reset_putc>
    9490:	e59f0080 	ldr	r0, [pc, #128]	; 9518 <va_printk+0x2d0>
    9494:	e59f1068 	ldr	r1, [pc, #104]	; 9504 <va_printk+0x2bc>
    9498:	e59f2068 	ldr	r2, [pc, #104]	; 9508 <va_printk+0x2c0>
    949c:	e3a030bf 	mov	r3, #191	; 0xbf
    94a0:	ebfffe8d 	bl	8edc <printk>
    94a4:	eb000024 	bl	953c <clean_reboot>
    94a8:	e2866001 	add	r6, r6, #1
    94ac:	ea000002 	b	94bc <va_printk+0x274>
    94b0:	e2800001 	add	r0, r0, #1
    94b4:	e5c43000 	strb	r3, [r4]
    94b8:	e2844001 	add	r4, r4, #1
    94bc:	e1540008 	cmp	r4, r8
    94c0:	2a000002 	bcs	94d0 <va_printk+0x288>
    94c4:	e5d03000 	ldrb	r3, [r0]
    94c8:	e3530000 	cmp	r3, #0
    94cc:	1afffff7 	bne	94b0 <va_printk+0x268>
    94d0:	e5d63000 	ldrb	r3, [r6]
    94d4:	e3530000 	cmp	r3, #0
    94d8:	0a000001 	beq	94e4 <va_printk+0x29c>
    94dc:	e1540008 	cmp	r4, r8
    94e0:	3affff64 	bcc	9278 <va_printk+0x30>
    94e4:	e2840001 	add	r0, r4, #1
    94e8:	e3a03000 	mov	r3, #0
    94ec:	e5c43000 	strb	r3, [r4]
    94f0:	e06b0000 	rsb	r0, fp, r0
    94f4:	e28dd094 	add	sp, sp, #148	; 0x94
    94f8:	e8bd8ff0 	pop	{r4, r5, r6, r7, r8, r9, sl, fp, pc}
    94fc:	0000a1a8 	andeq	sl, r0, r8, lsr #3
    9500:	00009b40 	andeq	r9, r0, r0, asr #22
    9504:	0000a164 	andeq	sl, r0, r4, ror #2
    9508:	0000a158 	andeq	sl, r0, r8, asr r1
    950c:	0000a1b4 			; <UNDEFINED> instruction: 0x0000a1b4
    9510:	0000a1dc 	ldrdeq	sl, [r0], -ip
    9514:	00009aec 	andeq	r9, r0, ip, ror #21
    9518:	0000a20c 	andeq	sl, r0, ip, lsl #4

0000951c <enable_cache>:
    951c:	ee113f10 	mrc	15, 0, r3, cr1, cr0, {0}
    9520:	e3833b06 	orr	r3, r3, #6144	; 0x1800
    9524:	ee013f10 	mcr	15, 0, r3, cr1, cr0, {0}
    9528:	e12fff1e 	bx	lr

0000952c <disable_cache>:
    952c:	ee113f10 	mrc	15, 0, r3, cr1, cr0, {0}
    9530:	e3c33b06 	bic	r3, r3, #6144	; 0x1800
    9534:	ee013f10 	mcr	15, 0, r3, cr1, cr0, {0}
    9538:	e12fff1e 	bx	lr

0000953c <clean_reboot>:
    953c:	e92d4008 	push	{r3, lr}
    9540:	eb00004a 	bl	9670 <reboot_handler>
    9544:	e59f3014 	ldr	r3, [pc, #20]	; 9560 <clean_reboot+0x24>
    9548:	e5933000 	ldr	r3, [r3]
    954c:	e59f0010 	ldr	r0, [pc, #16]	; 9564 <clean_reboot+0x28>
    9550:	e12fff33 	blx	r3
    9554:	e3a00064 	mov	r0, #100	; 0x64
    9558:	eb000099 	bl	97c4 <delay_ms>
    955c:	eb00006a 	bl	970c <rpi_reboot>
    9560:	00009aec 	andeq	r9, r0, ip, ror #21
    9564:	0000a22c 	andeq	sl, r0, ip, lsr #4

00009568 <_cstart>:
    9568:	e92d4008 	push	{r3, lr}
    956c:	e59f3024 	ldr	r3, [pc, #36]	; 9598 <_cstart+0x30>
    9570:	e59f2024 	ldr	r2, [pc, #36]	; 959c <_cstart+0x34>
    9574:	e3a01000 	mov	r1, #0
    9578:	ea000001 	b	9584 <_cstart+0x1c>
    957c:	e5831000 	str	r1, [r3]
    9580:	e2833004 	add	r3, r3, #4
    9584:	e1530002 	cmp	r3, r2
    9588:	3afffffb 	bcc	957c <_cstart+0x14>
    958c:	eb000036 	bl	966c <cstart_handler>
    9590:	ebfffb28 	bl	8238 <notmain>
    9594:	ebffffe8 	bl	953c <clean_reboot>
    9598:	0000a350 	andeq	sl, r0, r0, asr r3
    959c:	0000a778 	andeq	sl, r0, r8, ror r7

000095a0 <fast_interrupt_vector>:
    95a0:	e52de004 	push	{lr}		; (str lr, [sp, #-4]!)
    95a4:	e24dd00c 	sub	sp, sp, #12
    95a8:	e1a04000 	mov	r4, r0
    95ac:	ebfffe65 	bl	8f48 <rpi_reset_putc>
    95b0:	e59f301c 	ldr	r3, [pc, #28]	; 95d4 <fast_interrupt_vector+0x34>
    95b4:	e58d3000 	str	r3, [sp]
    95b8:	e58d4004 	str	r4, [sp, #4]
    95bc:	e59f0014 	ldr	r0, [pc, #20]	; 95d8 <fast_interrupt_vector+0x38>
    95c0:	e59f1014 	ldr	r1, [pc, #20]	; 95dc <fast_interrupt_vector+0x3c>
    95c4:	e59f2014 	ldr	r2, [pc, #20]	; 95e0 <fast_interrupt_vector+0x40>
    95c8:	e3a03002 	mov	r3, #2
    95cc:	ebfffe42 	bl	8edc <printk>
    95d0:	ebffffd9 	bl	953c <clean_reboot>
    95d4:	0000a2b0 			; <UNDEFINED> instruction: 0x0000a2b0
    95d8:	0000a250 	andeq	sl, r0, r0, asr r2
    95dc:	0000a28c 	andeq	sl, r0, ip, lsl #5
    95e0:	0000a238 	andeq	sl, r0, r8, lsr r2

000095e4 <reset_vector>:
    95e4:	e52de004 	push	{lr}		; (str lr, [sp, #-4]!)
    95e8:	e24dd00c 	sub	sp, sp, #12
    95ec:	e1a04000 	mov	r4, r0
    95f0:	ebfffe54 	bl	8f48 <rpi_reset_putc>
    95f4:	e59f301c 	ldr	r3, [pc, #28]	; 9618 <reset_vector+0x34>
    95f8:	e58d3000 	str	r3, [sp]
    95fc:	e58d4004 	str	r4, [sp, #4]
    9600:	e59f0014 	ldr	r0, [pc, #20]	; 961c <reset_vector+0x38>
    9604:	e59f1014 	ldr	r1, [pc, #20]	; 9620 <reset_vector+0x3c>
    9608:	e59f2014 	ldr	r2, [pc, #20]	; 9624 <reset_vector+0x40>
    960c:	e3a03002 	mov	r3, #2
    9610:	ebfffe31 	bl	8edc <printk>
    9614:	ebffffc8 	bl	953c <clean_reboot>
    9618:	0000a2ec 	andeq	sl, r0, ip, ror #5
    961c:	0000a250 	andeq	sl, r0, r0, asr r2
    9620:	0000a2c8 	andeq	sl, r0, r8, asr #5
    9624:	0000a2b8 			; <UNDEFINED> instruction: 0x0000a2b8

00009628 <undefined_instruction_vector>:
    9628:	e52de004 	push	{lr}		; (str lr, [sp, #-4]!)
    962c:	e24dd00c 	sub	sp, sp, #12
    9630:	e1a04000 	mov	r4, r0
    9634:	ebfffe43 	bl	8f48 <rpi_reset_putc>
    9638:	e59f301c 	ldr	r3, [pc, #28]	; 965c <undefined_instruction_vector+0x34>
    963c:	e58d3000 	str	r3, [sp]
    9640:	e58d4004 	str	r4, [sp, #4]
    9644:	e59f0014 	ldr	r0, [pc, #20]	; 9660 <undefined_instruction_vector+0x38>
    9648:	e59f1014 	ldr	r1, [pc, #20]	; 9664 <undefined_instruction_vector+0x3c>
    964c:	e59f2014 	ldr	r2, [pc, #20]	; 9668 <undefined_instruction_vector+0x40>
    9650:	e3a03002 	mov	r3, #2
    9654:	ebfffe20 	bl	8edc <printk>
    9658:	ebffffb7 	bl	953c <clean_reboot>
    965c:	0000a340 	andeq	sl, r0, r0, asr #6
    9660:	0000a250 	andeq	sl, r0, r0, asr r2
    9664:	0000a314 	andeq	sl, r0, r4, lsl r3
    9668:	0000a2f4 	strdeq	sl, [r0], -r4

0000966c <cstart_handler>:
    966c:	e12fff1e 	bx	lr

00009670 <reboot_handler>:
    9670:	e12fff1e 	bx	lr

00009674 <int_init>:
    9674:	e92d4008 	push	{r3, lr}
    9678:	eb00005b 	bl	97ec <dev_barrier>
    967c:	e59f004c 	ldr	r0, [pc, #76]	; 96d0 <int_init+0x5c>
    9680:	e3e01000 	mvn	r1, #0
    9684:	eb000060 	bl	980c <PUT32>
    9688:	e59f0044 	ldr	r0, [pc, #68]	; 96d4 <int_init+0x60>
    968c:	e3e01000 	mvn	r1, #0
    9690:	eb00005d 	bl	980c <PUT32>
    9694:	eb000054 	bl	97ec <dev_barrier>
    9698:	e59f3038 	ldr	r3, [pc, #56]	; 96d8 <int_init+0x64>
    969c:	e59f0038 	ldr	r0, [pc, #56]	; 96dc <int_init+0x68>
    96a0:	e0630000 	rsb	r0, r3, r0
    96a4:	e1a00140 	asr	r0, r0, #2
    96a8:	e3a03000 	mov	r3, #0
    96ac:	e59fc024 	ldr	ip, [pc, #36]	; 96d8 <int_init+0x64>
    96b0:	ea000003 	b	96c4 <int_init+0x50>
    96b4:	e1a02103 	lsl	r2, r3, #2
    96b8:	e79c1103 	ldr	r1, [ip, r3, lsl #2]
    96bc:	e5821000 	str	r1, [r2]
    96c0:	e2833001 	add	r3, r3, #1
    96c4:	e1530000 	cmp	r3, r0
    96c8:	3afffff9 	bcc	96b4 <int_init+0x40>
    96cc:	e8bd8008 	pop	{r3, pc}
    96d0:	2000b21c 	andcs	fp, r0, ip, lsl r2
    96d4:	2000b220 	andcs	fp, r0, r0, lsr #4
    96d8:	00008620 	andeq	r8, r0, r0, lsr #12
    96dc:	00008660 	andeq	r8, r0, r0, ror #12

000096e0 <at_user_level>:
    96e0:	e10f0000 	mrs	r0, CPSR
    96e4:	e200001f 	and	r0, r0, #31
    96e8:	e3500010 	cmp	r0, #16
    96ec:	13a00000 	movne	r0, #0
    96f0:	03a00001 	moveq	r0, #1
    96f4:	e12fff1e 	bx	lr

000096f8 <set_user_level>:
    96f8:	e10f3000 	mrs	r3, CPSR
    96fc:	e3c3301f 	bic	r3, r3, #31
    9700:	e3833010 	orr	r3, r3, #16
    9704:	e129f003 	msr	CPSR_fc, r3
    9708:	e12fff1e 	bx	lr

0000970c <rpi_reboot>:
    970c:	e92d4008 	push	{r3, lr}
    9710:	ebfffff2 	bl	96e0 <at_user_level>
    9714:	e3500000 	cmp	r0, #0
    9718:	0a000000 	beq	9720 <rpi_reboot+0x14>
    971c:	ebfffff5 	bl	96f8 <set_user_level>
    9720:	e3a0001e 	mov	r0, #30
    9724:	eb000026 	bl	97c4 <delay_ms>
    9728:	e59f0014 	ldr	r0, [pc, #20]	; 9744 <rpi_reboot+0x38>
    972c:	e59f1014 	ldr	r1, [pc, #20]	; 9748 <rpi_reboot+0x3c>
    9730:	eb000035 	bl	980c <PUT32>
    9734:	e59f0010 	ldr	r0, [pc, #16]	; 974c <rpi_reboot+0x40>
    9738:	e59f1010 	ldr	r1, [pc, #16]	; 9750 <rpi_reboot+0x44>
    973c:	eb000032 	bl	980c <PUT32>
    9740:	eafffffe 	b	9740 <rpi_reboot+0x34>
    9744:	20100024 	andscs	r0, r0, r4, lsr #32
    9748:	5a000001 	bpl	9754 <delay_cycles>
    974c:	2010001c 	andscs	r0, r0, ip, lsl r0
    9750:	5a000020 	bpl	97d8 <delay_sec>

00009754 <delay_cycles>:
    9754:	ea000001 	b	9760 <delay_cycles+0xc>
    9758:	e2811000 	add	r1, r1, #0
    975c:	e1a00003 	mov	r0, r3
    9760:	e2403001 	sub	r3, r0, #1
    9764:	e3500000 	cmp	r0, #0
    9768:	1afffffa 	bne	9758 <delay_cycles+0x4>
    976c:	e12fff1e 	bx	lr

00009770 <timer_get_usec_raw>:
    9770:	e92d4008 	push	{r3, lr}
    9774:	e59f0004 	ldr	r0, [pc, #4]	; 9780 <timer_get_usec_raw+0x10>
    9778:	eb00002f 	bl	983c <GET32>
    977c:	e8bd8008 	pop	{r3, pc}
    9780:	20003004 	andcs	r3, r0, r4

00009784 <timer_get_usec>:
    9784:	e92d4010 	push	{r4, lr}
    9788:	eb000017 	bl	97ec <dev_barrier>
    978c:	ebfffff7 	bl	9770 <timer_get_usec_raw>
    9790:	e1a04000 	mov	r4, r0
    9794:	eb000014 	bl	97ec <dev_barrier>
    9798:	e1a00004 	mov	r0, r4
    979c:	e8bd8010 	pop	{r4, pc}

000097a0 <delay_us>:
    97a0:	e92d4038 	push	{r3, r4, r5, lr}
    97a4:	e1a05000 	mov	r5, r0
    97a8:	ebfffff5 	bl	9784 <timer_get_usec>
    97ac:	e1a04000 	mov	r4, r0
    97b0:	ebfffff3 	bl	9784 <timer_get_usec>
    97b4:	e0640000 	rsb	r0, r4, r0
    97b8:	e1500005 	cmp	r0, r5
    97bc:	3afffffb 	bcc	97b0 <delay_us+0x10>
    97c0:	e8bd8038 	pop	{r3, r4, r5, pc}

000097c4 <delay_ms>:
    97c4:	e92d4008 	push	{r3, lr}
    97c8:	e3a03ffa 	mov	r3, #1000	; 0x3e8
    97cc:	e0000093 	mul	r0, r3, r0
    97d0:	ebfffff2 	bl	97a0 <delay_us>
    97d4:	e8bd8008 	pop	{r3, pc}

000097d8 <delay_sec>:
    97d8:	e92d4008 	push	{r3, lr}
    97dc:	e3a03ffa 	mov	r3, #1000	; 0x3e8
    97e0:	e0000093 	mul	r0, r3, r0
    97e4:	ebfffff6 	bl	97c4 <delay_ms>
    97e8:	e8bd8008 	pop	{r3, pc}

000097ec <dev_barrier>:
    97ec:	ea000002 	b	97fc <dsb>

000097f0 <dmb>:
    97f0:	e3a00000 	mov	r0, #0
    97f4:	ee070fba 	mcr	15, 0, r0, cr7, cr10, {5}
    97f8:	e12fff1e 	bx	lr

000097fc <dsb>:
    97fc:	ee070f9a 	mcr	15, 0, r0, cr7, cr10, {4}
    9800:	e12fff1e 	bx	lr

00009804 <put32>:
    9804:	e5801000 	str	r1, [r0]
    9808:	e12fff1e 	bx	lr

0000980c <PUT32>:
    980c:	e5801000 	str	r1, [r0]
    9810:	e12fff1e 	bx	lr

00009814 <put16>:
    9814:	e1c010b0 	strh	r1, [r0]
    9818:	e12fff1e 	bx	lr

0000981c <PUT16>:
    981c:	e1c010b0 	strh	r1, [r0]
    9820:	e12fff1e 	bx	lr

00009824 <put8>:
    9824:	e5c01000 	strb	r1, [r0]
    9828:	e12fff1e 	bx	lr

0000982c <PUT8>:
    982c:	e5c01000 	strb	r1, [r0]
    9830:	e12fff1e 	bx	lr

00009834 <get32>:
    9834:	e5900000 	ldr	r0, [r0]
    9838:	e12fff1e 	bx	lr

0000983c <GET32>:
    983c:	e5900000 	ldr	r0, [r0]
    9840:	e12fff1e 	bx	lr

00009844 <GETPC>:
    9844:	e1a0000e 	mov	r0, lr
    9848:	e12fff1e 	bx	lr

0000984c <dummy>:
    984c:	e12fff1e 	bx	lr

00009850 <or_in32>:
    9850:	e92d4070 	push	{r4, r5, r6, lr}
    9854:	e1a04000 	mov	r4, r0
    9858:	e1a05001 	mov	r5, r1
    985c:	ebfffff4 	bl	9834 <get32>
    9860:	e1801005 	orr	r1, r0, r5
    9864:	e1a00004 	mov	r0, r4
    9868:	ebffffe5 	bl	9804 <put32>
    986c:	e8bd8070 	pop	{r4, r5, r6, pc}

00009870 <uart_init>:
    9870:	e92d4010 	push	{r4, lr}
    9874:	e3a01002 	mov	r1, #2
    9878:	e3a0000e 	mov	r0, #14
    987c:	eb000051 	bl	99c8 <gpio_set_function>
    9880:	e3a01002 	mov	r1, #2
    9884:	e3a0000f 	mov	r0, #15
    9888:	eb00004e 	bl	99c8 <gpio_set_function>
    988c:	ebffffd6 	bl	97ec <dev_barrier>
    9890:	e3a01001 	mov	r1, #1
    9894:	e59f0064 	ldr	r0, [pc, #100]	; 9900 <uart_init+0x90>
    9898:	ebffffec 	bl	9850 <or_in32>
    989c:	ebffffd2 	bl	97ec <dev_barrier>
    98a0:	e59f405c 	ldr	r4, [pc, #92]	; 9904 <uart_init+0x94>
    98a4:	e3a01000 	mov	r1, #0
    98a8:	e1a00004 	mov	r0, r4
    98ac:	ebffffd4 	bl	9804 <put32>
    98b0:	e3a01000 	mov	r1, #0
    98b4:	e59f004c 	ldr	r0, [pc, #76]	; 9908 <uart_init+0x98>
    98b8:	ebffffd1 	bl	9804 <put32>
    98bc:	e3a01003 	mov	r1, #3
    98c0:	e59f0044 	ldr	r0, [pc, #68]	; 990c <uart_init+0x9c>
    98c4:	ebffffce 	bl	9804 <put32>
    98c8:	e3a01000 	mov	r1, #0
    98cc:	e59f003c 	ldr	r0, [pc, #60]	; 9910 <uart_init+0xa0>
    98d0:	ebffffcb 	bl	9804 <put32>
    98d4:	e3a010c7 	mov	r1, #199	; 0xc7
    98d8:	e59f0034 	ldr	r0, [pc, #52]	; 9914 <uart_init+0xa4>
    98dc:	ebffffc8 	bl	9804 <put32>
    98e0:	e59f1030 	ldr	r1, [pc, #48]	; 9918 <uart_init+0xa8>
    98e4:	e59f0030 	ldr	r0, [pc, #48]	; 991c <uart_init+0xac>
    98e8:	ebffffc5 	bl	9804 <put32>
    98ec:	e3a01003 	mov	r1, #3
    98f0:	e1a00004 	mov	r0, r4
    98f4:	ebffffc2 	bl	9804 <put32>
    98f8:	ebffffbb 	bl	97ec <dev_barrier>
    98fc:	e8bd8010 	pop	{r4, pc}
    9900:	20215004 	eorcs	r5, r1, r4
    9904:	20215060 	eorcs	r5, r1, r0, rrx
    9908:	20215044 	eorcs	r5, r1, r4, asr #32
    990c:	2021504c 	eorcs	r5, r1, ip, asr #32
    9910:	20215050 	eorcs	r5, r1, r0, asr r0
    9914:	20215048 	eorcs	r5, r1, r8, asr #32
    9918:	0000010e 	andeq	r0, r0, lr, lsl #2
    991c:	20215068 	eorcs	r5, r1, r8, rrx

00009920 <uart_can_getc>:
    9920:	e92d4010 	push	{r4, lr}
    9924:	e59f0008 	ldr	r0, [pc, #8]	; 9934 <uart_can_getc+0x14>
    9928:	ebffffc1 	bl	9834 <get32>
    992c:	e2000001 	and	r0, r0, #1
    9930:	e8bd8010 	pop	{r4, pc}
    9934:	20215064 	eorcs	r5, r1, r4, rrx

00009938 <uart_can_putc>:
    9938:	e92d4010 	push	{r4, lr}
    993c:	e59f0010 	ldr	r0, [pc, #16]	; 9954 <uart_can_putc+0x1c>
    9940:	ebffffbb 	bl	9834 <get32>
    9944:	e3100002 	tst	r0, #2
    9948:	13a00001 	movne	r0, #1
    994c:	03a00000 	moveq	r0, #0
    9950:	e8bd8010 	pop	{r4, pc}
    9954:	20215064 	eorcs	r5, r1, r4, rrx

00009958 <uart_getc>:
    9958:	e92d4010 	push	{r4, lr}
    995c:	ebffffa2 	bl	97ec <dev_barrier>
    9960:	ebffffee 	bl	9920 <uart_can_getc>
    9964:	e3500000 	cmp	r0, #0
    9968:	0afffffc 	beq	9960 <uart_getc+0x8>
    996c:	e59f0010 	ldr	r0, [pc, #16]	; 9984 <uart_getc+0x2c>
    9970:	ebffffaf 	bl	9834 <get32>
    9974:	e6ef4070 	uxtb	r4, r0
    9978:	ebffff9b 	bl	97ec <dev_barrier>
    997c:	e1a00004 	mov	r0, r4
    9980:	e8bd8010 	pop	{r4, pc}
    9984:	20215040 	eorcs	r5, r1, r0, asr #32

00009988 <uart_putc>:
    9988:	e92d4010 	push	{r4, lr}
    998c:	e1a04000 	mov	r4, r0
    9990:	ebffff95 	bl	97ec <dev_barrier>
    9994:	ebffffe7 	bl	9938 <uart_can_putc>
    9998:	e3500000 	cmp	r0, #0
    999c:	0afffffc 	beq	9994 <uart_putc+0xc>
    99a0:	e6ef1074 	uxtb	r1, r4
    99a4:	e59f0008 	ldr	r0, [pc, #8]	; 99b4 <uart_putc+0x2c>
    99a8:	ebffff95 	bl	9804 <put32>
    99ac:	ebffff8e 	bl	97ec <dev_barrier>
    99b0:	e8bd8010 	pop	{r4, pc}
    99b4:	20215040 	eorcs	r5, r1, r0, asr #32

000099b8 <uart_has_data>:
    99b8:	e92d4010 	push	{r4, lr}
    99bc:	ebffff8a 	bl	97ec <dev_barrier>
    99c0:	ebffffd6 	bl	9920 <uart_can_getc>
    99c4:	e8bd8010 	pop	{r4, pc}

000099c8 <gpio_set_function>:
    99c8:	e350001f 	cmp	r0, #31
    99cc:	812fff1e 	bxhi	lr
    99d0:	e3d13007 	bics	r3, r1, #7
    99d4:	112fff1e 	bxne	lr
    99d8:	e92d4070 	push	{r4, r5, r6, lr}
    99dc:	e1a05001 	mov	r5, r1
    99e0:	e59f3044 	ldr	r3, [pc, #68]	; 9a2c <gpio_set_function+0x64>
    99e4:	e0832093 	umull	r2, r3, r3, r0
    99e8:	e1a031a3 	lsr	r3, r3, #3
    99ec:	e1a06003 	mov	r6, r3
    99f0:	e0833103 	add	r3, r3, r3, lsl #2
    99f4:	e1a02083 	lsl	r2, r3, #1
    99f8:	e0403002 	sub	r3, r0, r2
    99fc:	e0834083 	add	r4, r3, r3, lsl #1
    9a00:	e2866302 	add	r6, r6, #134217728	; 0x8000000
    9a04:	e2866702 	add	r6, r6, #524288	; 0x80000
    9a08:	e1a06106 	lsl	r6, r6, #2
    9a0c:	e1a00006 	mov	r0, r6
    9a10:	ebffff89 	bl	983c <GET32>
    9a14:	e3a01007 	mov	r1, #7
    9a18:	e1c01411 	bic	r1, r0, r1, lsl r4
    9a1c:	e1811415 	orr	r1, r1, r5, lsl r4
    9a20:	e1a00006 	mov	r0, r6
    9a24:	ebffff78 	bl	980c <PUT32>
    9a28:	e8bd8070 	pop	{r4, r5, r6, pc}
    9a2c:	cccccccd 	stclgt	12, cr12, [ip], {205}	; 0xcd

00009a30 <gpio_set_output>:
    9a30:	e92d4010 	push	{r4, lr}
    9a34:	e3a01001 	mov	r1, #1
    9a38:	ebffffe2 	bl	99c8 <gpio_set_function>
    9a3c:	e8bd8010 	pop	{r4, pc}

00009a40 <gpio_set_on>:
    9a40:	e350001f 	cmp	r0, #31
    9a44:	812fff1e 	bxhi	lr
    9a48:	e92d4010 	push	{r4, lr}
    9a4c:	e3a01001 	mov	r1, #1
    9a50:	e1a01011 	lsl	r1, r1, r0
    9a54:	e59f0004 	ldr	r0, [pc, #4]	; 9a60 <gpio_set_on+0x20>
    9a58:	ebffff6b 	bl	980c <PUT32>
    9a5c:	e8bd8010 	pop	{r4, pc}
    9a60:	2020001c 	eorcs	r0, r0, ip, lsl r0

00009a64 <gpio_set_off>:
    9a64:	e350001f 	cmp	r0, #31
    9a68:	812fff1e 	bxhi	lr
    9a6c:	e92d4010 	push	{r4, lr}
    9a70:	e3a01001 	mov	r1, #1
    9a74:	e1a01011 	lsl	r1, r1, r0
    9a78:	e59f0004 	ldr	r0, [pc, #4]	; 9a84 <gpio_set_off+0x20>
    9a7c:	ebffff62 	bl	980c <PUT32>
    9a80:	e8bd8010 	pop	{r4, pc}
    9a84:	20200028 	eorcs	r0, r0, r8, lsr #32

00009a88 <gpio_set_input>:
    9a88:	e92d4010 	push	{r4, lr}
    9a8c:	e3a01000 	mov	r1, #0
    9a90:	ebffffcc 	bl	99c8 <gpio_set_function>
    9a94:	e8bd8010 	pop	{r4, pc}

00009a98 <gpio_write>:
    9a98:	e92d4010 	push	{r4, lr}
    9a9c:	e3510000 	cmp	r1, #0
    9aa0:	1a000001 	bne	9aac <gpio_write+0x14>
    9aa4:	ebffffee 	bl	9a64 <gpio_set_off>
    9aa8:	e8bd8010 	pop	{r4, pc}
    9aac:	ebffffe3 	bl	9a40 <gpio_set_on>
    9ab0:	e8bd8010 	pop	{r4, pc}

00009ab4 <gpio_read>:
    9ab4:	e350001f 	cmp	r0, #31
    9ab8:	8a000007 	bhi	9adc <gpio_read+0x28>
    9abc:	e92d4010 	push	{r4, lr}
    9ac0:	e200401f 	and	r4, r0, #31
    9ac4:	e59f3018 	ldr	r3, [pc, #24]	; 9ae4 <gpio_read+0x30>
    9ac8:	e08302a0 	add	r0, r3, r0, lsr #5
    9acc:	ebffff5a 	bl	983c <GET32>
    9ad0:	e1a00430 	lsr	r0, r0, r4
    9ad4:	e2000001 	and	r0, r0, #1
    9ad8:	e8bd8010 	pop	{r4, pc}
    9adc:	e3e00000 	mvn	r0, #0
    9ae0:	e12fff1e 	bx	lr
    9ae4:	20200034 	eorcs	r0, r0, r4, lsr r0

Disassembly of section .data:

00009ae8 <__data_start__>:
    9ae8:	00008f34 	andeq	r8, r0, r4, lsr pc

00009aec <putk>:
    9aec:	00008f70 	andeq	r8, r0, r0, ror pc

Disassembly of section .rodata:

00009af0 <__FUNCTION__.4406-0x104>:
    9af0:	494e4150 	stmdbmi	lr, {r4, r6, r8, lr}^
    9af4:	73253a43 	teqvc	r5, #274432	; 0x43000
    9af8:	3a73253a 	bcc	1cd2fe8 <__bss_end__+0x1cc8870>
    9afc:	6c3a6425 	cfldrsvs	mvf6, [sl], #-148	; 0xffffff6c
    9b00:	253d2072 	ldrcs	r2, [sp, #-114]!	; 0x72
    9b04:	000a0a70 	andeq	r0, sl, r0, ror sl
    9b08:	74736574 	ldrbtvc	r6, [r3], #-1396	; 0x574
    9b0c:	302e3273 	eorcc	r3, lr, r3, ror r2
    9b10:	2d36312f 	ldfcss	f3, [r6, #-188]!	; 0xffffff44
    9b14:	74726170 	ldrbtvc	r6, [r2], #-368	; 0x170
    9b18:	65742d32 	ldrbvs	r2, [r4, #-3378]!	; 0xd32
    9b1c:	2e387473 	mrccs	4, 1, r7, cr8, cr3, {3}
    9b20:	00000063 	andeq	r0, r0, r3, rrx
    9b24:	494e4150 	stmdbmi	lr, {r4, r6, r8, lr}^
    9b28:	73253a43 	teqvc	r5, #274432	; 0x43000
    9b2c:	3a73253a 	bcc	1cd301c <__bss_end__+0x1cc88a4>
    9b30:	693a6425 	ldmdbvs	sl!, {r0, r2, r5, sl, sp, lr}
    9b34:	736f706d 	cmnvc	pc, #109	; 0x6d
    9b38:	6c626973 	stclvs	9, cr6, [r2], #-460	; 0xfffffe34
    9b3c:	000a0a65 	andeq	r0, sl, r5, ror #20
    9b40:	494e4150 	stmdbmi	lr, {r4, r6, r8, lr}^
    9b44:	73253a43 	teqvc	r5, #274432	; 0x43000
    9b48:	3a73253a 	bcc	1cd3038 <__bss_end__+0x1cc88c0>
    9b4c:	253a6425 	ldrcs	r6, [sl, #-1061]!	; 0x425
    9b50:	00000a73 	andeq	r0, r0, r3, ror sl
    9b54:	69702f2e 	ldmdbvs	r0!, {r1, r2, r3, r5, r8, r9, sl, fp, sp}^
    9b58:	7379732d 	cmnvc	r9, #-1275068416	; 0xb4000000
    9b5c:	636f6c2d 	cmnvs	pc, #11520	; 0x2d00
    9b60:	00682e6b 	rsbeq	r2, r8, fp, ror #28
    9b64:	3d206c2a 	stccc	12, cr6, [r0, #-168]!	; 0xffffff58
    9b68:	0031203d 	eorseq	r2, r1, sp, lsr r0
    9b6c:	3d3d206c 	ldccc	0, cr2, [sp, #-432]!	; 0xfffffe50
    9b70:	00003020 	andeq	r3, r0, r0, lsr #32
    9b74:	20746e63 	rsbscs	r6, r4, r3, ror #28
    9b78:	31203d3d 	teqcc	r0, sp, lsr sp
    9b7c:	00000000 	andeq	r0, r0, r0
    9b80:	494e4150 	stmdbmi	lr, {r4, r6, r8, lr}^
    9b84:	73253a43 	teqvc	r5, #274432	; 0x43000
    9b88:	3a73253a 	bcc	1cd3078 <__bss_end__+0x1cc8900>
    9b8c:	633a6425 	teqvs	sl, #620756992	; 0x25000000
    9b90:	6b636568 	blvs	18e3138 <__bss_end__+0x18d89c0>
    9b94:	746f6e20 	strbtvc	r6, [pc], #-3616	; 9b9c <__data_end__+0xac>
    9b98:	6f687320 	svcvs	0x00687320
    9b9c:	20646c75 	rsbcs	r6, r4, r5, ror ip
    9ba0:	65766168 	ldrbvs	r6, [r6, #-360]!	; 0x168
    9ba4:	69616620 	stmdbvs	r1!, {r5, r9, sl, sp, lr}^
    9ba8:	2164656c 	cmncs	r4, ip, ror #10
    9bac:	00000a0a 	andeq	r0, r0, sl, lsl #20
    9bb0:	43435553 	movtmi	r5, #13651	; 0x3553
    9bb4:	3a535345 	bcc	14de8d0 <__bss_end__+0x14d4158>
    9bb8:	00000000 	andeq	r0, r0, r0
    9bbc:	63656863 	cmnvs	r5, #6488064	; 0x630000
    9bc0:	6f77206b 	svcvs	0x0077206b
    9bc4:	64656b72 	strbtvs	r6, [r5], #-2930	; 0xb72
    9bc8:	20736120 	rsbscs	r6, r3, r0, lsr #2
    9bcc:	73207469 	teqvc	r0, #1761607680	; 0x69000000
    9bd0:	6c756f68 	ldclvs	15, cr6, [r5], #-416	; 0xfffffe60
    9bd4:	61682064 	cmnvs	r8, r4, rrx
    9bd8:	202c6576 	eorcs	r6, ip, r6, ror r5
    9bdc:	6972746e 	ldmdbvs	r2!, {r1, r2, r3, r5, r6, sl, ip, sp, lr}^
    9be0:	3d736c61 	ldclcc	12, cr6, [r3, #-388]!	; 0xfffffe7c
    9be4:	202c6425 	eorcs	r6, ip, r5, lsr #8
    9be8:	7272656e 	rsbsvc	r6, r2, #461373440	; 0x1b800000
    9bec:	3d73726f 	lfmcc	f7, 2, [r3, #-444]!	; 0xfffffe44
    9bf0:	000a6425 	andeq	r6, sl, r5, lsr #8

00009bf4 <__FUNCTION__.4406>:
    9bf4:	6e697270 	mcrvs	2, 3, r7, cr9, cr0, {3}
    9bf8:	726c5f74 	rsbvc	r5, ip, #116, 30	; 0x1d0
    9bfc:	00000000 	andeq	r0, r0, r0

00009c00 <C.0.4424>:
    9c00:	00000000 	andeq	r0, r0, r0
    9c04:	00008058 	andeq	r8, r0, r8, asr r0
    9c08:	00008108 	andeq	r8, r0, r8, lsl #2
    9c0c:	00008110 	andeq	r8, r0, r0, lsl r1
    9c10:	00008130 	andeq	r8, r0, r0, lsr r1
	...

00009c38 <__FUNCTION__.4420>:
    9c38:	5f746e63 	svcpl	0x00746e63
    9c3c:	63656863 	cmnvs	r5, #6488064	; 0x630000
    9c40:	0000006b 	andeq	r0, r0, fp, rrx

00009c44 <__FUNCTION__.4410>:
    9c44:	5f746e63 	svcpl	0x00746e63
    9c48:	00000041 	andeq	r0, r0, r1, asr #32

00009c4c <__FUNCTION__.4398>:
    9c4c:	5f737973 	svcpl	0x00737973
    9c50:	6f6c6e75 	svcvs	0x006c6e75
    9c54:	00006b63 	andeq	r6, r0, r3, ror #22

00009c58 <__FUNCTION__.4430>:
    9c58:	6d746f6e 	ldclvs	15, cr6, [r4, #-440]!	; 0xfffffe48
    9c5c:	006e6961 	rsbeq	r6, lr, r1, ror #18
    9c60:	34317063 	ldrtcc	r7, [r1], #-99	; 0x63
    9c64:	6265642d 	rsbvs	r6, r5, #754974720	; 0x2d000000
    9c68:	632e6775 	teqvs	lr, #30670848	; 0x1d40000
    9c6c:	00000000 	andeq	r0, r0, r0
    9c70:	30726377 	rsbscc	r6, r2, r7, ror r3
    9c74:	6765725f 			; <UNDEFINED> instruction: 0x6765725f
    9c78:	203d3d20 	eorscs	r3, sp, r0, lsr #26
    9c7c:	30726377 	rsbscc	r6, r2, r7, ror r3
    9c80:	7465675f 	strbtvc	r6, [r5], #-1887	; 0x75f
    9c84:	00002928 	andeq	r2, r0, r8, lsr #18
    9c88:	494e4150 	stmdbmi	lr, {r4, r6, r8, lr}^
    9c8c:	73253a43 	teqvc	r5, #274432	; 0x43000
    9c90:	3a73253a 	bcc	1cd3180 <__bss_end__+0x1cc8a08>
    9c94:	693a6425 	ldmdbvs	sl!, {r0, r2, r5, sl, sp, lr}
    9c98:	736f706d 	cmnvc	pc, #109	; 0x6d
    9c9c:	6c626973 	stclvs	9, cr6, [r2], #-460	; 0xfffffe34
    9ca0:	73203a65 	teqvc	r0, #413696	; 0x65000
    9ca4:	6c756f68 	ldclvs	15, cr6, [r5], #-416	; 0xfffffe60
    9ca8:	6e6f2064 	cdpvs	0, 6, cr2, cr15, cr4, {3}
    9cac:	6720796c 	strvs	r7, [r0, -ip, ror #18]!
    9cb0:	64207465 	strtvs	r7, [r0], #-1125	; 0x465
    9cb4:	66617461 	strbtvs	r7, [r1], -r1, ror #8
    9cb8:	746c7561 	strbtvc	r7, [ip], #-1377	; 0x561
    9cbc:	000a0a73 	andeq	r0, sl, r3, ror sl
    9cc0:	34317063 	ldrtcc	r7, [r1], #-99	; 0x63
    9cc4:	6265642d 	rsbvs	r6, r5, #754974720	; 0x2d000000
    9cc8:	682e6775 	stmdavs	lr!, {r0, r2, r4, r5, r6, r8, r9, sl, sp, lr}
    9ccc:	00000000 	andeq	r0, r0, r0
    9cd0:	72616677 	rsbvc	r6, r1, #124780544	; 0x7700000
    9cd4:	7465675f 	strbtvc	r6, [r5], #-1887	; 0x75f
    9cd8:	342d2928 	strtcc	r2, [sp], #-2344	; 0x928
    9cdc:	203d3d20 	eorscs	r3, sp, r0, lsr #26
    9ce0:	00006370 	andeq	r6, r0, r0, ror r3
    9ce4:	63746177 	cmnvs	r4, #-1073741795	; 0xc000001d
    9ce8:	5f747068 	svcpl	0x00747068
    9cec:	646e6168 	strbtvs	r6, [lr], #-360	; 0x168
    9cf0:	3072656c 	rsbscc	r6, r2, ip, ror #10
    9cf4:	00000000 	andeq	r0, r0, r0
    9cf8:	494e4150 	stmdbmi	lr, {r4, r6, r8, lr}^
    9cfc:	73253a43 	teqvc	r5, #274432	; 0x43000
    9d00:	3a73253a 	bcc	1cd31f0 <__bss_end__+0x1cc8a78>
    9d04:	693a6425 	ldmdbvs	sl!, {r0, r2, r5, sl, sp, lr}
    9d08:	736f706d 	cmnvc	pc, #109	; 0x6d
    9d0c:	6c626973 	stclvs	9, cr6, [r2], #-460	; 0xfffffe34
    9d10:	73203a65 	teqvc	r0, #413696	; 0x65000
    9d14:	6c756f68 	ldclvs	15, cr6, [r5], #-416	; 0xfffffe60
    9d18:	65672064 	strbvs	r2, [r7, #-100]!	; 0x64
    9d1c:	6f6e2074 	svcvs	0x006e2074
    9d20:	68746f20 	ldmdavs	r4!, {r5, r8, r9, sl, fp, sp, lr}^
    9d24:	66207265 	strtvs	r7, [r0], -r5, ror #4
    9d28:	746c7561 	strbtvc	r7, [ip], #-1377	; 0x561
    9d2c:	000a0a73 	andeq	r0, sl, r3, ror sl
    9d30:	706b7262 	rsbvc	r7, fp, r2, ror #4
    9d34:	61685f74 	smcvs	34292	; 0x85f4
    9d38:	656c646e 	strbvs	r6, [ip, #-1134]!	; 0x46e
    9d3c:	00003072 	andeq	r3, r0, r2, ror r0
    9d40:	494e4150 	stmdbmi	lr, {r4, r6, r8, lr}^
    9d44:	73253a43 	teqvc	r5, #274432	; 0x43000
    9d48:	3a73253a 	bcc	1cd3238 <__bss_end__+0x1cc8ac0>
    9d4c:	723a6425 	eorsvc	r6, sl, #620756992	; 0x25000000
    9d50:	72757465 	rsbsvc	r7, r5, #1694498816	; 0x65000000
    9d54:	2064656e 	rsbcs	r6, r4, lr, ror #10
    9d58:	20646e61 	rsbcs	r6, r4, r1, ror #28
    9d5c:	756f6873 	strbvc	r6, [pc, #-2163]!	; 94f1 <va_printk+0x2a9>
    9d60:	6e20646c 	cdpvs	4, 2, cr6, cr0, cr12, {3}
    9d64:	6820746f 	stmdavs	r0!, {r0, r1, r2, r3, r5, r6, sl, ip, sp, lr}
    9d68:	21657661 	cmncs	r5, r1, ror #12
    9d6c:	00000a0a 	andeq	r0, r0, sl, lsl #20
    9d70:	656c6c69 	strbvs	r6, [ip, #-3177]!	; 0xc69
    9d74:	206c6167 	rsbcs	r6, ip, r7, ror #2
    9d78:	74737973 	ldrbtvc	r7, [r3], #-2419	; 0x973
    9d7c:	63206d65 	teqvs	r0, #6464	; 0x1940
    9d80:	206c6c61 	rsbcs	r6, ip, r1, ror #24
    9d84:	000a6425 	andeq	r6, sl, r5, lsr #8

00009d88 <__FUNCTION__.4393>:
    9d88:	63746177 	cmnvs	r4, #-1073741795	; 0xc000001d
    9d8c:	5f747068 	svcpl	0x00747068
    9d90:	30746573 	rsbscc	r6, r4, r3, ror r5
    9d94:	00000000 	andeq	r0, r0, r0

00009d98 <__FUNCTION__.4399>:
    9d98:	61746164 	cmnvs	r4, r4, ror #2
    9d9c:	6f62615f 	svcvs	0x0062615f
    9da0:	765f7472 			; <UNDEFINED> instruction: 0x765f7472
    9da4:	6f746365 	svcvs	0x00746365
    9da8:	00000072 	andeq	r0, r0, r2, ror r0

00009dac <__FUNCTION__.4306>:
    9dac:	5f736177 	svcpl	0x00736177
    9db0:	75626564 	strbvc	r6, [r2, #-1380]!	; 0x564
    9db4:	61645f67 	cmnvs	r4, r7, ror #30
    9db8:	61666174 	smcvs	26132	; 0x6614
    9dbc:	00746c75 	rsbseq	r6, r4, r5, ror ip

00009dc0 <__FUNCTION__.4443>:
    9dc0:	66657270 			; <UNDEFINED> instruction: 0x66657270
    9dc4:	68637465 	stmdavs	r3!, {r0, r2, r5, r6, sl, ip, sp, lr}^
    9dc8:	6f62615f 	svcvs	0x0062615f
    9dcc:	765f7472 			; <UNDEFINED> instruction: 0x765f7472
    9dd0:	6f746365 	svcvs	0x00746365
    9dd4:	00000072 	andeq	r0, r0, r2, ror r0

00009dd8 <__FUNCTION__.4451>:
    9dd8:	5f6b7262 	svcpl	0x006b7262
    9ddc:	725f6f6e 	subsvc	r6, pc, #440	; 0x1b8
    9de0:	655f7465 	ldrbvs	r7, [pc, #-1125]	; 9983 <uart_getc+0x2b>
    9de4:	726f7272 	rsbvc	r7, pc, #536870919	; 0x20000007
    9de8:	00000000 	andeq	r0, r0, r0
    9dec:	253a7325 	ldrcs	r7, [sl, #-805]!	; 0x325
    9df0:	64253a73 	strtvs	r3, [r5], #-2675	; 0xa73
    9df4:	6572703a 	ldrbvs	r7, [r2, #-58]!	; 0x3a
    9df8:	63746566 	cmnvs	r4, #427819008	; 0x19800000
    9dfc:	62612068 	rsbvs	r2, r1, #104	; 0x68
    9e00:	2074726f 	rsbscs	r7, r4, pc, ror #4
    9e04:	25207461 	strcs	r7, [r0, #-1121]!	; 0x461
    9e08:	00000a70 	andeq	r0, r0, r0, ror sl
    9e0c:	63656863 	cmnvs	r5, #6488064	; 0x630000
    9e10:	6e692d6b 	cdpvs	13, 6, cr2, cr9, cr11, {3}
    9e14:	6c726574 	cfldr64vs	mvdx6, [r2], #-464	; 0xfffffe30
    9e18:	65766165 	ldrbvs	r6, [r6, #-357]!	; 0x165
    9e1c:	0000632e 	andeq	r6, r0, lr, lsr #6
    9e20:	756f6261 	strbvc	r6, [pc, #-609]!	; 9bc7 <__data_end__+0xd7>
    9e24:	6f742074 	svcvs	0x00742074
    9e28:	69777320 	ldmdbvs	r7!, {r5, r8, r9, ip, sp, lr}^
    9e2c:	20686374 	rsbcs	r6, r8, r4, ror r3
    9e30:	6d6f7266 	sfmvs	f7, 2, [pc, #-408]!	; 9ca0 <__FUNCTION__.4430+0x48>
    9e34:	20702520 	rsbscs	r2, r0, r0, lsr #10
    9e38:	25206f74 	strcs	r6, [r0, #-3956]!	; 0xf74
    9e3c:	00000a70 	andeq	r0, r0, r0, ror sl
    9e40:	656e6f64 	strbvs	r6, [lr, #-3940]!	; 0xf64
    9e44:	6e757220 	cdpvs	2, 7, cr7, cr5, cr0, {1}
    9e48:	676e696e 	strbvs	r6, [lr, -lr, ror #18]!
    9e4c:	202c4220 	eorcs	r4, ip, r0, lsr #4
    9e50:	6e696f67 	cdpvs	15, 6, cr6, cr9, cr7, {3}
    9e54:	6f742067 	svcvs	0x00742067
    9e58:	74657220 	strbtvc	r7, [r5], #-544	; 0x220
    9e5c:	206e7275 	rsbcs	r7, lr, r5, ror r2
    9e60:	41206f74 	teqmi	r0, r4, ror pc
    9e64:	0000000a 	andeq	r0, r0, sl
    9e68:	693e2d63 	ldmdbvs	lr!, {r0, r1, r5, r6, r8, sl, fp, sp}
    9e6c:	5f74736e 	svcpl	0x0074736e
    9e70:	6e756f63 	cdpvs	15, 7, cr6, cr5, cr3, {3}
    9e74:	203c2074 	eorscs	r2, ip, r4, ror r0
    9e78:	733e2d63 	teqvc	lr, #6336	; 0x18c0
    9e7c:	63746977 	cmnvs	r4, #1949696	; 0x1dc000
    9e80:	6e6f5f68 	cdpvs	15, 6, cr5, cr15, cr8, {3}
    9e84:	736e695f 	cmnvc	lr, #1556480	; 0x17c000
    9e88:	006e5f74 	rsbeq	r5, lr, r4, ror pc
    9e8c:	253a7325 	ldrcs	r7, [sl, #-805]!	; 0x325
    9e90:	64253a73 	strtvs	r3, [r5], #-2675	; 0xa73
    9e94:	7465733a 	strbtvc	r7, [r5], #-826	; 0x33a
    9e98:	676e6974 			; <UNDEFINED> instruction: 0x676e6974
    9e9c:	20707520 	rsbscs	r7, r0, r0, lsr #10
    9ea0:	696d2061 	stmdbvs	sp!, {r0, r5, r6, sp}^
    9ea4:	74616d73 	strbtvc	r6, [r1], #-3443	; 0xd73
    9ea8:	6f206863 	svcvs	0x00206863
    9eac:	7025206e 	eorvc	r2, r5, lr, rrx
    9eb0:	0000000a 	andeq	r0, r0, sl
    9eb4:	253a7325 	ldrcs	r7, [sl, #-805]!	; 0x325
    9eb8:	64253a73 	strtvs	r3, [r5], #-2675	; 0xa73
    9ebc:	6e6f643a 	mcrvs	4, 3, r6, cr15, cr10, {1}
    9ec0:	65732065 	ldrbvs	r2, [r3, #-101]!	; 0x65
    9ec4:	6e697474 	mcrvs	4, 3, r7, cr9, cr4, {3}
    9ec8:	70752067 	rsbsvc	r2, r5, r7, rrx
    9ecc:	6d206120 	stfvss	f6, [r0, #-128]!	; 0xffffff80
    9ed0:	616d7369 	cmnvs	sp, r9, ror #6
    9ed4:	20686374 	rsbcs	r6, r8, r4, ror r3
    9ed8:	25206e6f 	strcs	r6, [r0, #-3695]!	; 0xe6f
    9edc:	00000a70 	andeq	r0, r0, r0, ror sl
    9ee0:	52455355 	subpl	r5, r5, #1409286145	; 0x54000001
    9ee4:	444f4d20 	strbmi	r4, [pc], #-3360	; 9eec <__FUNCTION__.4451+0x114>
    9ee8:	00000045 	andeq	r0, r0, r5, asr #32
    9eec:	20514946 	subscs	r4, r1, r6, asr #18
    9ef0:	45444f4d 	strbmi	r4, [r4, #-3917]	; 0xf4d
    9ef4:	00000000 	andeq	r0, r0, r0
    9ef8:	20515249 	subscs	r5, r1, r9, asr #4
    9efc:	45444f4d 	strbmi	r4, [r4, #-3917]	; 0xf4d
    9f00:	00000000 	andeq	r0, r0, r0
    9f04:	45505553 	ldrbmi	r5, [r0, #-1363]	; 0x553
    9f08:	4f4d2052 	svcmi	0x004d2052
    9f0c:	00004544 	andeq	r4, r0, r4, asr #10
    9f10:	524f4241 	subpl	r4, pc, #268435460	; 0x10000004
    9f14:	4f4d2054 	svcmi	0x004d2054
    9f18:	00004544 	andeq	r4, r0, r4, asr #10
    9f1c:	45444e55 	strbmi	r4, [r4, #-3669]	; 0xe55
    9f20:	4f4d2046 	svcmi	0x004d2046
    9f24:	00004544 	andeq	r4, r0, r4, asr #10
    9f28:	20535953 	subscs	r5, r3, r3, asr r9
    9f2c:	45444f4d 	strbmi	r4, [r4, #-3917]	; 0xf4d
    9f30:	00000000 	andeq	r0, r0, r0
    9f34:	253a7325 	ldrcs	r7, [sl, #-805]!	; 0x325
    9f38:	64253a73 	strtvs	r3, [r5], #-2675	; 0xa73
    9f3c:	6972743a 	ldmdbvs	r2!, {r1, r3, r4, r5, sl, ip, sp, lr}^
    9f40:	253d6c61 	ldrcs	r6, [sp, #-3169]!	; 0xc61
    9f44:	61203a64 	teqvs	r0, r4, ror #20
    9f48:	74756f62 	ldrbtvc	r6, [r5], #-3938	; 0xf62
    9f4c:	206f7420 	rsbcs	r7, pc, r0, lsr #8
    9f50:	20746573 	rsbscs	r6, r4, r3, ror r5
    9f54:	6d73696d 	ldclvs	9, cr6, [r3, #-436]!	; 0xfffffe4c
    9f58:	68637461 	stmdavs	r3!, {r0, r5, r6, sl, ip, sp, lr}^
    9f5c:	6b726220 	blvs	1ca27e4 <__bss_end__+0x1c9806c>
    9f60:	66207470 			; <UNDEFINED> instruction: 0x66207470
    9f64:	4120726f 	teqmi	r0, pc, ror #4
    9f68:	0000000a 	andeq	r0, r0, sl
    9f6c:	4f525245 	svcmi	0x00525245
    9f70:	63203a52 	teqvs	r0, #335872	; 0x52000
    9f74:	6b636568 	blvs	18e351c <__bss_end__+0x18d8da4>
    9f78:	69616620 	stmdbvs	r1!, {r5, r9, sl, sp, lr}^
    9f7c:	2064656c 	rsbcs	r6, r4, ip, ror #10
    9f80:	6e656877 	mcrvs	8, 3, r6, cr5, cr7, {3}
    9f84:	69777320 	ldmdbvs	r7!, {r5, r8, r9, ip, sp, lr}^
    9f88:	65686374 	strbvs	r6, [r8, #-884]!	; 0x374
    9f8c:	6e6f2064 	cdpvs	0, 6, cr2, cr15, cr4, {3}
    9f90:	64646120 	strbtvs	r6, [r4], #-288	; 0x120
    9f94:	73736572 	cmnvc	r3, #478150656	; 0x1c800000
    9f98:	2c702520 	cfldr64cs	mvdx2, [r0], #-128	; 0xffffff80
    9f9c:	74666120 	strbtvc	r6, [r6], #-288	; 0x120
    9fa0:	25207265 	strcs	r7, [r0, #-613]!	; 0x265
    9fa4:	6e692064 	cdpvs	0, 6, cr2, cr9, cr4, {3}
    9fa8:	75727473 	ldrbvc	r7, [r2, #-1139]!	; 0x473
    9fac:	6f697463 	svcvs	0x00697463
    9fb0:	000a736e 	andeq	r7, sl, lr, ror #6
    9fb4:	656e6f64 	strbvs	r6, [lr, #-3940]!	; 0xf64
    9fb8:	64202021 	strtvs	r2, [r0], #-33	; 0x21
    9fbc:	63206469 	teqvs	r0, #1761607680	; 0x69000000
    9fc0:	736e3e2d 	cmnvc	lr, #720	; 0x2d0
    9fc4:	63746977 	cmnvs	r4, #1949696	; 0x1dc000
    9fc8:	3d736568 	cfldr64cc	mvdx6, [r3, #-416]!	; 0xfffffe60
    9fcc:	202c6425 	eorcs	r6, ip, r5, lsr #8
    9fd0:	6972746e 	ldmdbvs	r2!, {r1, r2, r3, r5, r6, sl, ip, sp, lr}^
    9fd4:	3d736c61 	ldclcc	12, cr6, [r3, #-388]!	; 0xfffffe7c
    9fd8:	202c6425 	eorcs	r6, ip, r5, lsr #8
    9fdc:	7272656e 	rsbsvc	r6, r2, #461373440	; 0x1b800000
    9fe0:	3d73726f 	lfmcc	f7, 2, [r3, #-444]!	; 0xfffffe44
    9fe4:	000a6425 	andeq	r6, sl, r5, lsr #8
    9fe8:	72737063 	rsbsvc	r7, r3, #99	; 0x63
    9fec:	6974752d 	ldmdbvs	r4!, {r0, r2, r3, r5, r8, sl, ip, sp, lr}^
    9ff0:	00682e6c 	rsbeq	r2, r8, ip, ror #28
    9ff4:	65646f6d 	strbvs	r6, [r4, #-3949]!	; 0xf6d
    9ff8:	67656c5f 			; <UNDEFINED> instruction: 0x67656c5f
    9ffc:	6d286c61 	stcvs	12, cr6, [r8, #-388]!	; 0xfffffe7c
    a000:	2965646f 	stmdbcs	r5!, {r0, r1, r2, r3, r5, r6, sl, sp, lr}^
    a004:	00000000 	andeq	r0, r0, r0
    a008:	494e4150 	stmdbmi	lr, {r4, r6, r8, lr}^
    a00c:	73253a43 	teqvc	r5, #274432	; 0x43000
    a010:	3a73253a 	bcc	1cd3500 <__bss_end__+0x1cc8d88>
    a014:	753a6425 	ldrvc	r6, [sl, #-1061]!	; 0x425
    a018:	6f6e6b6e 	svcvs	0x006e6b6e
    a01c:	6d206e77 	stcvs	14, cr6, [r0, #-476]!	; 0xfffffe24
    a020:	3a65646f 	bcc	19631e4 <__bss_end__+0x1958a6c>
    a024:	78253c20 	stmdavc	r5!, {r5, sl, fp, ip, sp}
    a028:	000a0a3e 	andeq	r0, sl, lr, lsr sl
    a02c:	65707865 	ldrbvs	r7, [r0, #-2149]!	; 0x865
    a030:	64657463 	strbtvs	r7, [r5], #-1123	; 0x463
    a034:	646f6d20 	strbtvs	r6, [pc], #-3360	; a03c <__FUNCTION__.4451+0x264>
    a038:	203d2065 	eorscs	r2, sp, r5, rrx
    a03c:	28207325 	stmdacs	r0!, {r0, r2, r5, r8, r9, ip, sp, lr}
    a040:	0a297825 	beq	a680dc <__bss_end__+0xa5d964>
    a044:	00000000 	andeq	r0, r0, r0
    a048:	72727563 	rsbsvc	r7, r2, #415236096	; 0x18c00000
    a04c:	20746e65 	rsbscs	r6, r4, r5, ror #28
    a050:	65646f6d 	strbvs	r6, [r4, #-3949]!	; 0xf6d
    a054:	25203d20 	strcs	r3, [r0, #-3360]!	; 0xd20
    a058:	25282073 	strcs	r2, [r8, #-115]!	; 0x73
    a05c:	000a2978 	andeq	r2, sl, r8, ror r9
    a060:	65646f6d 	strbvs	r6, [r4, #-3949]!	; 0xf6d
    a064:	7465675f 	strbtvc	r6, [r5], #-1887	; 0x75f
    a068:	73706328 	cmnvc	r0, #40, 6	; 0xa0000000
    a06c:	6c6f5f72 	stclvs	15, cr5, [pc], #-456	; 9eac <__FUNCTION__.4451+0xd4>
    a070:	3d202964 	stccc	9, cr2, [r0, #-400]!	; 0xfffffe70
    a074:	6f6d203d 	svcvs	0x006d203d
    a078:	675f6564 	ldrbvs	r6, [pc, -r4, ror #10]
    a07c:	63287465 	teqvs	r8, #1694498816	; 0x65000000
    a080:	5f727370 	svcpl	0x00727370
    a084:	28746567 	ldmdacs	r4!, {r0, r1, r2, r5, r6, r8, sl, sp, lr}^
    a088:	00002929 	andeq	r2, r0, r9, lsr #18
    a08c:	494e4150 	stmdbmi	lr, {r4, r6, r8, lr}^
    a090:	73253a43 	teqvc	r5, #274432	; 0x43000
    a094:	3a73253a 	bcc	1cd3584 <__bss_end__+0x1cc8e0c>
    a098:	633a6425 	teqvs	sl, #620756992	; 0x25000000
    a09c:	6b636568 	blvs	18e3644 <__bss_end__+0x18d8ecc>
    a0a0:	69616620 	stmdbvs	r1!, {r5, r9, sl, sp, lr}^
    a0a4:	2064656c 	rsbcs	r6, r4, ip, ror #10
    a0a8:	75716573 	ldrbvc	r6, [r1, #-1395]!	; 0x573
    a0ac:	69746e65 	ldmdbvs	r4!, {r0, r2, r5, r6, r9, sl, fp, sp, lr}^
    a0b0:	796c6c61 	stmdbvc	ip!, {r0, r5, r6, sl, fp, sp, lr}^
    a0b4:	6f63203a 	svcvs	0x0063203a
    a0b8:	69206564 	stmdbvs	r0!, {r2, r5, r6, r8, sl, sp, lr}
    a0bc:	72622073 	rsbvc	r2, r2, #115	; 0x73
    a0c0:	6e656b6f 	vnmulvs.f64	d22, d5, d31
    a0c4:	00000a0a 	andeq	r0, r0, sl, lsl #20

0000a0c8 <__FUNCTION__.4432>:
    a0c8:	63656863 	cmnvs	r5, #6488064	; 0x630000
    a0cc:	65735f6b 	ldrbvs	r5, [r3, #-3947]!	; 0xf6b
    a0d0:	6e657571 	mcrvs	5, 3, r7, cr5, cr1, {3}
    a0d4:	6c616974 	stclvs	9, cr6, [r1], #-464	; 0xfffffe30
    a0d8:	00000000 	andeq	r0, r0, r0

0000a0dc <__FUNCTION__.4424>:
    a0dc:	63656863 	cmnvs	r5, #6488064	; 0x630000
    a0e0:	6e6f5f6b 	cdpvs	15, 6, cr5, cr15, cr11, {3}
    a0e4:	73635f65 	cmnvc	r3, #404	; 0x194
    a0e8:	63746977 	cmnvs	r4, #1949696	; 0x1dc000
    a0ec:	00000068 	andeq	r0, r0, r8, rrx

0000a0f0 <__FUNCTION__.4417>:
    a0f0:	676e6973 			; <UNDEFINED> instruction: 0x676e6973
    a0f4:	735f656c 	cmpvc	pc, #108, 10	; 0x1b000000
    a0f8:	5f706574 	svcpl	0x00706574
    a0fc:	646e6168 	strbtvs	r6, [lr], #-360	; 0x168
    a100:	0072656c 	rsbseq	r6, r2, ip, ror #10

0000a104 <__FUNCTION__.4397>:
    a104:	65646f6d 	strbvs	r6, [r4, #-3949]!	; 0xf6d
    a108:	7465735f 	strbtvc	r7, [r5], #-863	; 0x35f
    a10c:	00000000 	andeq	r0, r0, r0

0000a110 <__FUNCTION__.4258>:
    a110:	73746962 	cmnvc	r4, #1605632	; 0x188000
    a114:	726c635f 	rsbvc	r6, ip, #2080374785	; 0x7c000001
    a118:	00000000 	andeq	r0, r0, r0

0000a11c <__FUNCTION__.4409>:
    a11c:	65646f6d 	strbvs	r6, [r4, #-3949]!	; 0xf6d
    a120:	7274735f 	rsbsvc	r7, r4, #2080374785	; 0x7c000001
    a124:	00000000 	andeq	r0, r0, r0

0000a128 <__FUNCTION__.4392>:
    a128:	65646f6d 	strbvs	r6, [r4, #-3949]!	; 0xf6d
    a12c:	7465675f 	strbtvc	r6, [r5], #-1887	; 0x75f
    a130:	00000000 	andeq	r0, r0, r0

0000a134 <__FUNCTION__.4251>:
    a134:	73746962 	cmnvc	r4, #1605632	; 0x188000
    a138:	7465675f 	strbtvc	r6, [r5], #-1887	; 0x75f
    a13c:	00000000 	andeq	r0, r0, r0

0000a140 <__FUNCTION__.4249>:
    a140:	74696d65 	strbtvc	r6, [r9], #-3429	; 0xd65
    a144:	00000000 	andeq	r0, r0, r0

0000a148 <__FUNCTION__.4197>:
    a148:	5f697072 	svcpl	0x00697072
    a14c:	5f746573 	svcpl	0x00746573
    a150:	7074756f 	rsbsvc	r7, r4, pc, ror #10
    a154:	00007475 	andeq	r7, r0, r5, ror r4

0000a158 <__FUNCTION__.4272>:
    a158:	705f6176 	subsvc	r6, pc, r6, ror r1	; <UNPREDICTABLE>
    a15c:	746e6972 	strbtvc	r6, [lr], #-2418	; 0x972
    a160:	0000006b 	andeq	r0, r0, fp, rrx
    a164:	6362696c 	cmnvs	r2, #108, 18	; 0x1b0000
    a168:	2d61762f 	stclcs	6, cr7, [r1, #-188]!	; 0xffffff44
    a16c:	6e697270 	mcrvs	2, 3, r7, cr9, cr0, {3}
    a170:	632e6b74 	teqvs	lr, #116, 22	; 0x1d000
    a174:	00000000 	andeq	r0, r0, r0
    a178:	00000030 	andeq	r0, r0, r0, lsr r0
    a17c:	33323130 	teqcc	r2, #48, 2
    a180:	37363534 			; <UNDEFINED> instruction: 0x37363534
    a184:	00003938 	andeq	r3, r0, r8, lsr r9
    a188:	33323130 	teqcc	r2, #48, 2
    a18c:	37363534 			; <UNDEFINED> instruction: 0x37363534
    a190:	62613938 	rsbvs	r3, r1, #56, 18	; 0xe0000
    a194:	66656463 	strbtvs	r6, [r5], -r3, ror #8
    a198:	00000000 	andeq	r0, r0, r0
    a19c:	00003130 	andeq	r3, r0, r0, lsr r1
    a1a0:	63747570 	cmnvs	r4, #112, 10	; 0x1c000000
    a1a4:	0070665f 	rsbseq	r6, r0, pc, asr r6
    a1a8:	74646977 	strbtvc	r6, [r4], #-2423	; 0x977
    a1ac:	203c2068 	eorscs	r2, ip, r8, rrx
    a1b0:	00003233 	andeq	r3, r0, r3, lsr r2
    a1b4:	494e4150 	stmdbmi	lr, {r4, r6, r8, lr}^
    a1b8:	73253a43 	teqvc	r5, #274432	; 0x43000
    a1bc:	3a73253a 	bcc	1cd36ac <__bss_end__+0x1cc8f34>
    a1c0:	663a6425 	ldrtvs	r6, [sl], -r5, lsr #8
    a1c4:	74616f6c 	strbtvc	r6, [r1], #-3948	; 0xf6c
    a1c8:	746f6e20 	strbtvc	r6, [pc], #-3616	; a1d0 <__FUNCTION__.4272+0x78>
    a1cc:	616e6520 	cmnvs	lr, r0, lsr #10
    a1d0:	64656c62 	strbtvs	r6, [r5], #-3170	; 0xc62
    a1d4:	0a212121 	beq	852660 <__bss_end__+0x847ee8>
    a1d8:	00000000 	andeq	r0, r0, r0
    a1dc:	6e697270 	mcrvs	2, 3, r7, cr9, cr0, {3}
    a1e0:	203a6b74 	eorscs	r6, sl, r4, ror fp
    a1e4:	20746f6e 	rsbscs	r6, r4, lr, ror #30
    a1e8:	646e6168 	strbtvs	r6, [lr], #-360	; 0x168
    a1ec:	676e696c 	strbvs	r6, [lr, -ip, ror #18]!
    a1f0:	65707320 	ldrbvs	r7, [r0, #-800]!	; 0x320
    a1f4:	69666963 	stmdbvs	r6!, {r0, r1, r5, r6, r8, fp, sp, lr}^
    a1f8:	27207265 	strcs	r7, [r0, -r5, ror #4]!
    a1fc:	20276325 	eorcs	r6, r7, r5, lsr #6
    a200:	63736128 	cmnvs	r3, #40, 2
    a204:	253d6969 	ldrcs	r6, [sp, #-2409]!	; 0x969
    a208:	000a2964 	andeq	r2, sl, r4, ror #18
    a20c:	494e4150 	stmdbmi	lr, {r4, r6, r8, lr}^
    a210:	73253a43 	teqvc	r5, #274432	; 0x43000
    a214:	3a73253a 	bcc	1cd3704 <__bss_end__+0x1cc8f8c>
    a218:	703a6425 	eorsvc	r6, sl, r5, lsr #8
    a21c:	746e6972 	strbtvc	r6, [lr], #-2418	; 0x972
    a220:	7265206b 	rsbvc	r2, r5, #107	; 0x6b
    a224:	0a726f72 	beq	1ca5ff4 <__bss_end__+0x1c9b87c>
    a228:	0000000a 	andeq	r0, r0, sl
    a22c:	454e4f44 	strbmi	r4, [lr, #-3908]	; 0xf44
    a230:	0a212121 	beq	8526bc <__bss_end__+0x847f44>
    a234:	00000000 	andeq	r0, r0, r0

0000a238 <__FUNCTION__.4220>:
    a238:	74736166 	ldrbtvc	r6, [r3], #-358	; 0x166
    a23c:	746e695f 	strbtvc	r6, [lr], #-2399	; 0x95f
    a240:	75727265 	ldrbvc	r7, [r2, #-613]!	; 0x265
    a244:	765f7470 			; <UNDEFINED> instruction: 0x765f7470
    a248:	6f746365 	svcvs	0x00746365
    a24c:	00000072 	andeq	r0, r0, r2, ror r0
    a250:	494e4150 	stmdbmi	lr, {r4, r6, r8, lr}^
    a254:	73253a43 	teqvc	r5, #274432	; 0x43000
    a258:	3a73253a 	bcc	1cd3748 <__bss_end__+0x1cc8fd0>
    a25c:	453a6425 	ldrmi	r6, [sl, #-1061]!	; 0x425
    a260:	524f5252 	subpl	r5, pc, #536870917	; 0x20000005
    a264:	6e75203a 	mrcvs	0, 3, r2, cr5, cr10, {1}
    a268:	646e6168 	strbtvs	r6, [lr], #-360	; 0x168
    a26c:	2064656c 	rsbcs	r6, r4, ip, ror #10
    a270:	65637865 	strbvs	r7, [r3, #-2149]!	; 0x865
    a274:	6f697470 	svcvs	0x00697470
    a278:	253c206e 	ldrcs	r2, [ip, #-110]!	; 0x6e
    a27c:	61203e73 	teqvs	r0, r3, ror lr
    a280:	43502074 	cmpmi	r0, #116	; 0x74
    a284:	0a78253d 	beq	1e13780 <__bss_end__+0x1e09008>
    a288:	0000000a 	andeq	r0, r0, sl
    a28c:	66617473 			; <UNDEFINED> instruction: 0x66617473
    a290:	72732d66 	rsbsvc	r2, r3, #6528	; 0x1980
    a294:	65642f63 	strbvs	r2, [r4, #-3939]!	; 0xf63
    a298:	6c756166 	ldfvse	f6, [r5], #-408	; 0xfffffe68
    a29c:	61682d74 	smcvs	33492	; 0x82d4
    a2a0:	656c646e 	strbvs	r6, [ip, #-1134]!	; 0x46e
    a2a4:	61662d72 	smcvs	25298	; 0x62d2
    a2a8:	632e7473 	teqvs	lr, #1929379840	; 0x73000000
    a2ac:	00000000 	andeq	r0, r0, r0
    a2b0:	74736166 	ldrbtvc	r6, [r3], #-358	; 0x166
    a2b4:	00000000 	andeq	r0, r0, r0

0000a2b8 <__FUNCTION__.4220>:
    a2b8:	65736572 	ldrbvs	r6, [r3, #-1394]!	; 0x572
    a2bc:	65765f74 	ldrbvs	r5, [r6, #-3956]!	; 0xf74
    a2c0:	726f7463 	rsbvc	r7, pc, #1660944384	; 0x63000000
    a2c4:	00000000 	andeq	r0, r0, r0
    a2c8:	66617473 			; <UNDEFINED> instruction: 0x66617473
    a2cc:	72732d66 	rsbsvc	r2, r3, #6528	; 0x1980
    a2d0:	65642f63 	strbvs	r2, [r4, #-3939]!	; 0xf63
    a2d4:	6c756166 	ldfvse	f6, [r5], #-408	; 0xfffffe68
    a2d8:	61682d74 	smcvs	33492	; 0x82d4
    a2dc:	656c646e 	strbvs	r6, [ip, #-1134]!	; 0x46e
    a2e0:	65722d72 	ldrbvs	r2, [r2, #-3442]!	; 0xd72
    a2e4:	2e746573 	mrccs	5, 3, r6, cr4, cr3, {3}
    a2e8:	00000063 	andeq	r0, r0, r3, rrx
    a2ec:	65736572 	ldrbvs	r6, [r3, #-1394]!	; 0x572
    a2f0:	00000074 	andeq	r0, r0, r4, ror r0

0000a2f4 <__FUNCTION__.4220>:
    a2f4:	65646e75 	strbvs	r6, [r4, #-3701]!	; 0xe75
    a2f8:	656e6966 	strbvs	r6, [lr, #-2406]!	; 0x966
    a2fc:	6e695f64 	cdpvs	15, 6, cr5, cr9, cr4, {3}
    a300:	75727473 	ldrbvc	r7, [r2, #-1139]!	; 0x473
    a304:	6f697463 	svcvs	0x00697463
    a308:	65765f6e 	ldrbvs	r5, [r6, #-3950]!	; 0xf6e
    a30c:	726f7463 	rsbvc	r7, pc, #1660944384	; 0x63000000
    a310:	00000000 	andeq	r0, r0, r0
    a314:	66617473 			; <UNDEFINED> instruction: 0x66617473
    a318:	72732d66 	rsbsvc	r2, r3, #6528	; 0x1980
    a31c:	65642f63 	strbvs	r2, [r4, #-3939]!	; 0xf63
    a320:	6c756166 	ldfvse	f6, [r5], #-408	; 0xfffffe68
    a324:	61682d74 	smcvs	33492	; 0x82d4
    a328:	656c646e 	strbvs	r6, [ip, #-1134]!	; 0x46e
    a32c:	6e752d72 	mrcvs	13, 3, r2, cr5, cr2, {3}
    a330:	69666564 	stmdbvs	r6!, {r2, r5, r6, r8, sl, sp, lr}^
    a334:	2d64656e 	cfstr64cs	mvdx6, [r4, #-440]!	; 0xfffffe48
    a338:	74736e69 	ldrbtvc	r6, [r3], #-3689	; 0xe69
    a33c:	0000632e 	andeq	r6, r0, lr, lsr #6
    a340:	65646e75 	strbvs	r6, [r4, #-3701]!	; 0xe75
    a344:	656e6966 	strbvs	r6, [lr, #-2406]!	; 0x966
    a348:	6e692064 	cdpvs	0, 6, cr2, cr9, cr4, {3}
    a34c:	00007473 	andeq	r7, r0, r3, ror r4

Disassembly of section .bss:

0000a350 <__bss_start__>:
    a350:	00000000 	andeq	r0, r0, r0

0000a354 <l>:
    a354:	00000000 	andeq	r0, r0, r0

0000a358 <watchpt_handler0>:
    a358:	00000000 	andeq	r0, r0, r0

0000a35c <brkpt_handler0>:
    a35c:	00000000 	andeq	r0, r0, r0

0000a360 <brk_verbose_p>:
    a360:	00000000 	andeq	r0, r0, r0

0000a364 <nfaults.4398>:
    a364:	00000000 	andeq	r0, r0, r0

0000a368 <init_p.4404>:
    a368:	00000000 	andeq	r0, r0, r0

0000a36c <checker>:
    a36c:	00000000 	andeq	r0, r0, r0

0000a370 <expected_handle>:
    a370:	00000000 	andeq	r0, r0, r0

0000a374 <buf.4189>:
	...

Disassembly of section .ARM.attributes:

00000000 <.ARM.attributes>:
   0:	00002a41 	andeq	r2, r0, r1, asr #20
   4:	61656100 	cmnvs	r5, r0, lsl #2
   8:	01006962 	tsteq	r0, r2, ror #18
   c:	00000020 	andeq	r0, r0, r0, lsr #32
  10:	4b5a3605 	blmi	168d82c <__bss_end__+0x16830b4>
  14:	08070600 	stmdaeq	r7, {r9, sl}
  18:	12010901 	andne	r0, r1, #16384	; 0x4000
  1c:	15011404 	strne	r1, [r1, #-1028]	; 0x404
  20:	18031701 	stmdane	r3, {r0, r8, r9, sl, ip}
  24:	22011a01 	andcs	r1, r1, #4096	; 0x1000
  28:	Address 0x0000000000000028 is out of bounds.


Disassembly of section .comment:

00000000 <.comment>:
   0:	3a434347 	bcc	10d0d24 <__bss_end__+0x10c65ac>
   4:	4e472820 	cdpmi	8, 4, cr2, cr7, cr0, {1}
   8:	34202955 	strtcc	r2, [r0], #-2389	; 0x955
   c:	332e382e 	teqcc	lr, #3014656	; 0x2e0000
  10:	43434700 	movtmi	r4, #14080	; 0x3700
  14:	3128203a 	teqcc	r8, sl, lsr r0
  18:	2e363a35 	mrccs	10, 1, r3, cr6, cr5, {1}
  1c:	2b312e33 	blcs	c4b8f0 <__bss_end__+0xc41178>
  20:	326e7673 	rsbcc	r7, lr, #120586240	; 0x7300000
  24:	33303335 	teqcc	r0, #-738197504	; 0xd4000000
  28:	62312d39 	eorsvs	r2, r1, #3648	; 0xe40
  2c:	646c6975 	strbtvs	r6, [ip], #-2421	; 0x975
  30:	36202931 			; <UNDEFINED> instruction: 0x36202931
  34:	312e332e 	teqcc	lr, lr, lsr #6
  38:	31303220 	teqcc	r0, r0, lsr #4
  3c:	32363037 	eorscc	r3, r6, #55	; 0x37
  40:	Address 0x0000000000000040 is out of bounds.


Disassembly of section .debug_info:

00000000 <.debug_info>:
       0:	000006b4 			; <UNDEFINED> instruction: 0x000006b4
       4:	00000004 	andeq	r0, r0, r4
       8:	01040000 	mrseq	r0, (UNDEF: 4)
       c:	000000f5 	strdeq	r0, [r0], -r5
      10:	00004701 	andeq	r4, r0, r1, lsl #14
      14:	00020400 	andeq	r0, r2, r0, lsl #8
      18:	00802000 	addeq	r2, r0, r0
      1c:	00028800 	andeq	r8, r2, r0, lsl #16
      20:	00000000 	andeq	r0, r0, r0
      24:	05040200 	streq	r0, [r4, #-512]	; 0x200
      28:	00746e69 	rsbseq	r6, r4, r9, ror #28
      2c:	6c070403 	cfstrsvs	mvf0, [r7], {3}
      30:	03000001 	movweq	r0, #1
      34:	00740601 	rsbseq	r0, r4, r1, lsl #12
      38:	02030000 	andeq	r0, r3, #0
      3c:	0000c005 	andeq	ip, r0, r5
      40:	05040300 	streq	r0, [r4, #-768]	; 0x300
      44:	0000019c 	muleq	r0, ip, r1
      48:	97050803 	strls	r0, [r5, -r3, lsl #16]
      4c:	03000001 	movweq	r0, #1
      50:	00720801 	rsbseq	r0, r2, r1, lsl #16
      54:	02030000 	andeq	r0, r3, #0
      58:	00008d07 	andeq	r8, r0, r7, lsl #26
      5c:	01ea0400 	mvneq	r0, r0, lsl #8
      60:	34040000 	strcc	r0, [r4], #-0
      64:	00000068 	andeq	r0, r0, r8, rrx
      68:	67070403 	strvs	r0, [r7, -r3, lsl #8]
      6c:	03000001 	movweq	r0, #1
      70:	01620708 	cmneq	r2, r8, lsl #14
      74:	04030000 	streq	r0, [r3], #-0
      78:	00018e07 	andeq	r8, r1, r7, lsl #28
      7c:	08010300 	stmdaeq	r1, {r8, r9}
      80:	0000007b 	andeq	r0, r0, fp, ror r0
      84:	008a0405 	addeq	r0, sl, r5, lsl #8
      88:	7d060000 	stcvc	0, cr0, [r6, #-0]
      8c:	07000000 	streq	r0, [r0, -r0]
      90:	0000007d 	andeq	r0, r0, sp, ror r0
      94:	0000009f 	muleq	r0, pc, r0	; <UNPREDICTABLE>
      98:	00007608 	andeq	r7, r0, r8, lsl #12
      9c:	09000700 	stmdbeq	r0, {r8, r9, sl}
      a0:	000000ed 	andeq	r0, r0, sp, ror #1
      a4:	500a0338 	andpl	r0, sl, r8, lsr r3
      a8:	0a000001 	beq	b4 <__code_start__-0x7f4c>
      ac:	00000a8c 	andeq	r0, r0, ip, lsl #21
      b0:	01500f03 	cmpeq	r0, r3, lsl #30
      b4:	0b000000 	bleq	bc <__code_start__-0x7f44>
      b8:	12030041 	andne	r0, r3, #65	; 0x41
      bc:	00000168 	andeq	r0, r0, r8, ror #2
      c0:	00420b04 	subeq	r0, r2, r4, lsl #22
      c4:	017d1303 	cmneq	sp, r3, lsl #6
      c8:	0a080000 	beq	2000d0 <__bss_end__+0x1f5958>
      cc:	000001d2 	ldrdeq	r0, [r0], -r2
      d0:	01681603 	cmneq	r8, r3, lsl #12
      d4:	0a0c0000 	beq	3000dc <__bss_end__+0x2f5964>
      d8:	000001e4 	andeq	r0, r0, r4, ror #3
      dc:	017d1803 	cmneq	sp, r3, lsl #16
      e0:	0a100000 	beq	4000e8 <__bss_end__+0x3f5970>
      e4:	00000179 	andeq	r0, r0, r9, ror r1
      e8:	01831f03 	orreq	r1, r3, r3, lsl #30
      ec:	0a140000 	beq	5000f4 <__bss_end__+0x4f597c>
      f0:	00000061 	andeq	r0, r0, r1, rrx
      f4:	01833103 	orreq	r3, r3, r3, lsl #2
      f8:	0a180000 	beq	600100 <__bss_end__+0x5f5988>
      fc:	00000028 	andeq	r0, r0, r8, lsr #32
     100:	01883603 	orreq	r3, r8, r3, lsl #12
     104:	0a1c0000 	beq	70010c <__bss_end__+0x6f5994>
     108:	000001b0 			; <UNDEFINED> instruction: 0x000001b0
     10c:	01883a03 	orreq	r3, r8, r3, lsl #20
     110:	0a200000 	beq	800118 <__bss_end__+0x7f59a0>
     114:	000001a5 	andeq	r0, r0, r5, lsr #3
     118:	01833f03 	orreq	r3, r3, r3, lsl #30
     11c:	0a240000 	beq	900124 <__bss_end__+0x8f59ac>
     120:	00000016 	andeq	r0, r0, r6, lsl r0
     124:	002c4203 	eoreq	r4, ip, r3, lsl #4
     128:	0a280000 	beq	a00130 <__bss_end__+0x9f59b8>
     12c:	000000a0 	andeq	r0, r0, r0, lsr #1
     130:	002c4303 	eoreq	r4, ip, r3, lsl #6
     134:	0a2c0000 	beq	b0013c <__bss_end__+0xaf59c4>
     138:	000000d7 	ldrdeq	r0, [r0], -r7
     13c:	002c4603 	eoreq	r4, ip, r3, lsl #12
     140:	0a300000 	beq	c00148 <__bss_end__+0xbf59d0>
     144:	0000026c 	andeq	r0, r0, ip, ror #4
     148:	01884803 	orreq	r4, r8, r3, lsl #16
     14c:	00340000 	eorseq	r0, r4, r0
     150:	01560405 	cmpeq	r6, r5, lsl #8
     154:	0d0c0000 	stceq	0, cr0, [ip, #-0]
     158:	00000162 	andeq	r0, r0, r2, ror #2
     15c:	0001620e 	andeq	r6, r1, lr, lsl #4
     160:	04050000 	streq	r0, [r5], #-0
     164:	0000009f 	muleq	r0, pc, r0	; <UNPREDICTABLE>
     168:	01570405 	cmpeq	r7, r5, lsl #8
     16c:	250f0000 	strcs	r0, [pc, #-0]	; 174 <__code_start__-0x7e8c>
     170:	7d000000 	stcvc	0, cr0, [r0, #-0]
     174:	0e000001 	cdpeq	0, 0, cr0, cr0, cr1, {0}
     178:	00000162 	andeq	r0, r0, r2, ror #2
     17c:	6e040500 	cfsh32vs	mvfx0, mvfx4, #0
     180:	10000001 	andne	r0, r0, r1
     184:	0000002c 	andeq	r0, r0, ip, lsr #32
     188:	00005d10 	andeq	r5, r0, r0, lsl sp
     18c:	001e0400 	andseq	r0, lr, r0, lsl #8
     190:	49030000 	stmdbmi	r3, {}	; <UNPREDICTABLE>
     194:	0000009f 	muleq	r0, pc, r0	; <UNPREDICTABLE>
     198:	0000b604 	andeq	fp, r0, r4, lsl #12
     19c:	a3050200 	movwge	r0, #20992	; 0x5200
     1a0:	10000001 	andne	r0, r0, r1
     1a4:	00000025 	andeq	r0, r0, r5, lsr #32
     1a8:	0001c911 	andeq	ip, r1, r1, lsl r9
     1ac:	03070200 	movweq	r0, #29184	; 0x7200
     1b0:	000001be 			; <UNDEFINED> instruction: 0x000001be
     1b4:	02006c12 	andeq	r6, r0, #4608	; 0x1200
     1b8:	0001be07 	andeq	fp, r1, r7, lsl #28
     1bc:	04050000 	streq	r0, [r5], #-0
     1c0:	00000198 	muleq	r0, r8, r1
     1c4:	00000913 	andeq	r0, r0, r3, lsl r9
     1c8:	250a0200 	strcs	r0, [sl, #-512]	; 0x200
     1cc:	03000000 	movweq	r0, #0
     1d0:	000001ea 	andeq	r0, r0, sl, ror #3
     1d4:	02006c12 	andeq	r6, r0, #4608	; 0x1200
     1d8:	0001be0a 	andeq	fp, r1, sl, lsl #28
     1dc:	01f31400 	mvnseq	r1, r0, lsl #8
     1e0:	0c020000 	stceq	0, cr0, [r2], {-0}
     1e4:	00000025 	andeq	r0, r0, r5, lsr #32
     1e8:	d7150000 	ldrle	r0, [r5, -r0]
     1ec:	01000001 	tsteq	r0, r1
     1f0:	0080200a 	addeq	r2, r0, sl
     1f4:	00003800 	andeq	r3, r0, r0, lsl #16
     1f8:	649c0100 	ldrvs	r0, [ip], #256	; 0x100
     1fc:	16000002 	strne	r0, [r0], -r2
     200:	0100726c 	tsteq	r0, ip, ror #4
     204:	00002c0a 	andeq	r2, r0, sl, lsl #24
     208:	00000000 	andeq	r0, r0, r0
     20c:	00ca1700 	sbceq	r1, sl, r0, lsl #14
     210:	02740000 	rsbseq	r0, r4, #0
     214:	03050000 	movweq	r0, #20480	; 0x5000
     218:	00009bf4 	strdeq	r9, [r0], -r4
     21c:	00803018 	addeq	r3, r0, r8, lsl r0
     220:	00066600 	andeq	r6, r6, r0, lsl #12
     224:	80481900 	subhi	r1, r8, r0, lsl #18
     228:	066d0000 	strbteq	r0, [sp], -r0
     22c:	025a0000 	subseq	r0, sl, #0
     230:	011a0000 	tsteq	sl, r0
     234:	1a3b0153 	bne	ec0788 <__bss_end__+0xeb6010>
     238:	03055201 	movweq	r5, #20993	; 0x5201
     23c:	00009bf4 	strdeq	r9, [r0], -r4
     240:	0551011a 	ldrbeq	r0, [r1, #-282]	; 0x11a
     244:	009b0803 	addseq	r0, fp, r3, lsl #16
     248:	50011a00 	andpl	r1, r1, r0, lsl #20
     24c:	9af00305 	bls	ffc00e68 <__bss_end__+0xffbf66f0>
     250:	021a0000 	andseq	r0, sl, #0
     254:	7402007d 	strvc	r0, [r2], #-125	; 0x7d
     258:	4c180000 	ldcmi	0, cr0, [r8], {-0}
     25c:	83000080 	movwhi	r0, #128	; 0x80
     260:	00000006 	andeq	r0, r0, r6
     264:	00007d07 	andeq	r7, r0, r7, lsl #26
     268:	00027400 	andeq	r7, r2, r0, lsl #8
     26c:	00760800 	rsbseq	r0, r6, r0, lsl #16
     270:	00080000 	andeq	r0, r8, r0
     274:	00026406 	andeq	r6, r2, r6, lsl #8
     278:	01831100 	orreq	r1, r3, r0, lsl #2
     27c:	17020000 	strne	r0, [r2, -r0]
     280:	00029c03 	andeq	r9, r2, r3, lsl #24
     284:	006c1200 	rsbeq	r1, ip, r0, lsl #4
     288:	01be1702 			; <UNDEFINED> instruction: 0x01be1702
     28c:	ca1b0000 	bgt	6c0294 <__bss_end__+0x6b5b1c>
     290:	ac000000 	stcge	0, cr0, [r0], {-0}
     294:	83000002 	movwhi	r0, #2
     298:	00000001 	andeq	r0, r0, r1
     29c:	00007d07 	andeq	r7, r0, r7, lsl #26
     2a0:	0002ac00 	andeq	sl, r2, r0, lsl #24
     2a4:	00760800 	rsbseq	r0, r6, r0, lsl #16
     2a8:	000a0000 	andeq	r0, sl, r0
     2ac:	00029c06 	andeq	r9, r2, r6, lsl #24
     2b0:	003b1c00 	eorseq	r1, fp, r0, lsl #24
     2b4:	0e010000 	cdpeq	0, 0, cr0, cr1, cr0, {0}
     2b8:	00008058 	andeq	r8, r0, r8, asr r0
     2bc:	000000b0 	strheq	r0, [r0], -r0	; <UNPREDICTABLE>
     2c0:	03df9c01 	bicseq	r9, pc, #256	; 0x100
     2c4:	63160000 	tstvs	r6, #0
     2c8:	df0e0100 	svcle	0x000e0100
     2cc:	1e000003 	cdpne	0, 0, cr0, cr0, cr3, {0}
     2d0:	17000000 	strne	r0, [r0, -r0]
     2d4:	000000ca 	andeq	r0, r0, sl, asr #1
     2d8:	000003f5 	strdeq	r0, [r0], -r5
     2dc:	9c440305 	mcrrls	3, 0, r0, r4, cr5
     2e0:	c41d0000 	ldrgt	r0, [sp], #-0
     2e4:	60000001 	andvs	r0, r0, r1
     2e8:	08000080 	stmdaeq	r0, {r7}
     2ec:	01000000 	mrseq	r0, (UNDEF: 0)
     2f0:	00031f0f 	andeq	r1, r3, pc, lsl #30
     2f4:	01d41e00 	bicseq	r1, r4, r0, lsl #28
     2f8:	03060000 	movweq	r0, #24576	; 0x6000
     2fc:	0000a354 	andeq	sl, r0, r4, asr r3
     300:	80601f9f 	mlshi	r0, pc, pc, r1	; <UNPREDICTABLE>
     304:	00080000 	andeq	r0, r8, r0
     308:	68200000 	stmdavs	r0!, {}	; <UNPREDICTABLE>
     30c:	8a000080 	bhi	514 <__code_start__-0x7aec>
     310:	1a000006 	bne	330 <__code_start__-0x7cd0>
     314:	03055001 	movweq	r5, #20481	; 0x5001
     318:	0000a354 	andeq	sl, r0, r4, asr r3
     31c:	1d000000 	stcne	0, cr0, [r0, #-0]
     320:	00000279 	andeq	r0, r0, r9, ror r2
     324:	0000809c 	muleq	r0, ip, r0
     328:	00000040 	andeq	r0, r0, r0, asr #32
     32c:	039e1201 	orrseq	r1, lr, #268435456	; 0x10000000
     330:	851e0000 	ldrhi	r0, [lr, #-0]
     334:	06000002 	streq	r0, [r0], -r2
     338:	00a35403 	adceq	r5, r3, r3, lsl #8
     33c:	9c1f9f00 	ldcls	15, cr9, [pc], {-0}
     340:	40000080 	andmi	r0, r0, r0, lsl #1
     344:	21000000 	mrscs	r0, (UNDEF: 0)
     348:	0000028e 	andeq	r0, r0, lr, lsl #5
     34c:	9c4c0305 	mcrrls	3, 0, r0, ip, cr5
     350:	b0180000 	andslt	r0, r8, r0
     354:	66000080 	strvs	r0, [r0], -r0, lsl #1
     358:	19000006 	stmdbne	r0, {r1, r2}
     35c:	000080cc 	andeq	r8, r0, ip, asr #1
     360:	0000066d 	andeq	r0, r0, sp, ror #12
     364:	00000393 	muleq	r0, r3, r3
     368:	0153011a 	cmpeq	r3, sl, lsl r1
     36c:	52011a48 	andpl	r1, r1, #72, 20	; 0x48000
     370:	9c4c0305 	mcrrls	3, 0, r0, ip, cr5
     374:	011a0000 	tsteq	sl, r0
     378:	54030551 	strpl	r0, [r3], #-1361	; 0x551
     37c:	1a00009b 	bne	5f0 <__code_start__-0x7a10>
     380:	03055001 	movweq	r5, #20481	; 0x5001
     384:	00009b40 	andeq	r9, r0, r0, asr #22
     388:	007d021a 	rsbseq	r0, sp, sl, lsl r2
     38c:	9b640305 	blls	1900fa8 <__bss_end__+0x18f6830>
     390:	18000000 	stmdane	r0, {}	; <UNPREDICTABLE>
     394:	000080d0 	ldrdeq	r8, [r0], -r0
     398:	00000683 	andeq	r0, r0, r3, lsl #13
     39c:	74180000 	ldrvc	r0, [r8], #-0
     3a0:	66000080 	strvs	r0, [r0], -r0, lsl #1
     3a4:	19000006 	stmdbne	r0, {r1, r2}
     3a8:	00008088 	andeq	r8, r0, r8, lsl #1
     3ac:	0000066d 	andeq	r0, r0, sp, ror #12
     3b0:	000003d5 	ldrdeq	r0, [r0], -r5
     3b4:	0153011a 	cmpeq	r3, sl, lsl r1
     3b8:	52011a40 	andpl	r1, r1, #64, 20	; 0x40000
     3bc:	9c440305 	mcrrls	3, 0, r0, r4, cr5
     3c0:	011a0000 	tsteq	sl, r0
     3c4:	08030551 	stmdaeq	r3, {r0, r4, r6, r8, sl}
     3c8:	1a00009b 	bne	63c <__code_start__-0x79c4>
     3cc:	03055001 	movweq	r5, #20481	; 0x5001
     3d0:	00009b24 	andeq	r9, r0, r4, lsr #22
     3d4:	808c1800 	addhi	r1, ip, r0, lsl #16
     3d8:	06830000 	streq	r0, [r3], r0
     3dc:	05000000 	streq	r0, [r0, #-0]
     3e0:	00018d04 	andeq	r8, r1, r4, lsl #26
     3e4:	007d0700 	rsbseq	r0, sp, r0, lsl #14
     3e8:	03f50000 	mvnseq	r0, #0
     3ec:	76080000 	strvc	r0, [r8], -r0
     3f0:	05000000 	streq	r0, [r0, #-0]
     3f4:	03e50600 	mvneq	r0, #0, 12
     3f8:	41220000 	teqmi	r2, r0
     3fc:	01000000 	mrseq	r0, (UNDEF: 0)
     400:	00002515 	andeq	r2, r0, r5, lsl r5
     404:	00810800 	addeq	r0, r1, r0, lsl #16
     408:	00000800 	andeq	r0, r0, r0, lsl #16
     40c:	219c0100 	orrscs	r0, ip, r0, lsl #2
     410:	16000004 	strne	r0, [r0], -r4
     414:	15010063 	strne	r0, [r1, #-99]	; 0x63
     418:	000003df 	ldrdeq	r0, [r0], -pc	; <UNPREDICTABLE>
     41c:	0000003f 	andeq	r0, r0, pc, lsr r0
     420:	00001c00 	andeq	r1, r0, r0, lsl #24
     424:	1a010000 	bne	4042c <__bss_end__+0x35cb4>
     428:	00008110 	andeq	r8, r0, r0, lsl r1
     42c:	00000020 	andeq	r0, r0, r0, lsr #32
     430:	045e9c01 	ldrbeq	r9, [lr], #-3073	; 0xc01
     434:	63230000 	teqvs	r3, #0
     438:	df1a0100 	svcle	0x001a0100
     43c:	01000003 	tsteq	r0, r3
     440:	01a82450 			; <UNDEFINED> instruction: 0x01a82450
     444:	811c0000 	tsthi	ip, r0
     448:	00140000 	andseq	r0, r4, r0
     44c:	1c010000 	stcne	0, cr0, [r1], {-0}
     450:	0001b41e 	andeq	fp, r1, lr, lsl r4
     454:	54030600 	strpl	r0, [r3], #-1536	; 0x600
     458:	9f0000a3 	svcls	0x000000a3
     45c:	e0220000 	eor	r0, r2, r0
     460:	01000001 	tsteq	r0, r1
     464:	0000251e 	andeq	r2, r0, lr, lsl r5
     468:	00813000 	addeq	r3, r1, r0
     46c:	00009800 	andeq	r9, r0, r0, lsl #16
     470:	299c0100 	ldmibcs	ip, {r8}
     474:	16000005 	strne	r0, [r0], -r5
     478:	1e010063 	cdpne	0, 0, cr0, cr1, cr3, {3}
     47c:	000003df 	ldrdeq	r0, [r0], -pc	; <UNPREDICTABLE>
     480:	00000060 	andeq	r0, r0, r0, rrx
     484:	0000ca17 	andeq	ip, r0, r7, lsl sl
     488:	00053900 	andeq	r3, r5, r0, lsl #18
     48c:	38030500 	stmdacc	r3, {r8, sl}
     490:	1800009c 	stmdane	r0, {r2, r3, r4, r7}
     494:	0000814c 	andeq	r8, r0, ip, asr #2
     498:	00000666 	andeq	r0, r0, r6, ror #12
     49c:	00816819 	addeq	r6, r1, r9, lsl r8
     4a0:	00066d00 	andeq	r6, r6, r0, lsl #26
     4a4:	0004d400 	andeq	sp, r4, r0, lsl #8
     4a8:	53011a00 	movwpl	r1, #6656	; 0x1a00
     4ac:	011a4f01 	tsteq	sl, r1, lsl #30
     4b0:	38030552 	stmdacc	r3, {r1, r4, r6, r8, sl}
     4b4:	1a00009c 	bne	72c <__code_start__-0x78d4>
     4b8:	03055101 	movweq	r5, #20737	; 0x5101
     4bc:	00009b08 	andeq	r9, r0, r8, lsl #22
     4c0:	0550011a 	ldrbeq	r0, [r0, #-282]	; 0x11a
     4c4:	009b4003 	addseq	r4, fp, r3
     4c8:	7d021a00 	vstrvc	s2, [r2, #-0]
     4cc:	6c030500 	cfstr32vs	mvfx0, [r3], {-0}
     4d0:	0000009b 	muleq	r0, fp, r0
     4d4:	00816c18 	addeq	r6, r1, r8, lsl ip
     4d8:	00068300 	andeq	r8, r6, r0, lsl #6
     4dc:	81801800 	orrhi	r1, r0, r0, lsl #16
     4e0:	06660000 	strbteq	r0, [r6], -r0
     4e4:	9c190000 	ldcls	0, cr0, [r9], {-0}
     4e8:	6d000081 	stcvs	0, cr0, [r0, #-516]	; 0xfffffdfc
     4ec:	1f000006 	svcne	0x00000006
     4f0:	1a000005 	bne	50c <__code_start__-0x7af4>
     4f4:	08025301 	stmdaeq	r2, {r0, r8, r9, ip, lr}
     4f8:	52011a20 	andpl	r1, r1, #32, 20	; 0x20000
     4fc:	9c380305 	ldcls	3, cr0, [r8], #-20	; 0xffffffec
     500:	011a0000 	tsteq	sl, r0
     504:	08030551 	stmdaeq	r3, {r0, r4, r6, r8, sl}
     508:	1a00009b 	bne	77c <__code_start__-0x7884>
     50c:	03055001 	movweq	r5, #20481	; 0x5001
     510:	00009b40 	andeq	r9, r0, r0, asr #22
     514:	007d021a 	rsbseq	r0, sp, sl, lsl r2
     518:	9b740305 	blls	1d01134 <__bss_end__+0x1cf69bc>
     51c:	18000000 	stmdane	r0, {}	; <UNPREDICTABLE>
     520:	000081a0 	andeq	r8, r0, r0, lsr #3
     524:	00000683 	andeq	r0, r0, r3, lsl #13
     528:	007d0700 	rsbseq	r0, sp, r0, lsl #14
     52c:	05390000 	ldreq	r0, [r9, #-0]!
     530:	76080000 	strvc	r0, [r8], -r0
     534:	09000000 	stmdbeq	r0, {}	; <UNPREDICTABLE>
     538:	05290600 	streq	r0, [r9, #-1536]!	; 0x600
     53c:	e6250000 	strt	r0, [r5], -r0
     540:	01000000 	mrseq	r0, (UNDEF: 0)
     544:	00018d24 	andeq	r8, r1, r4, lsr #26
     548:	0081c800 	addeq	ip, r1, r0, lsl #16
     54c:	00007000 	andeq	r7, r0, r0
     550:	159c0100 	ldrne	r0, [ip, #256]	; 0x100
     554:	00000033 	andeq	r0, r0, r3, lsr r0
     558:	82382e01 	eorshi	r2, r8, #1, 28
     55c:	00700000 	rsbseq	r0, r0, r0
     560:	9c010000 	stcls	0, cr0, [r1], {-0}
     564:	00000636 	andeq	r0, r0, r6, lsr r6
     568:	01006326 	tsteq	r0, r6, lsr #6
     56c:	00009f32 	andeq	r9, r0, r2, lsr pc
     570:	40910200 	addsmi	r0, r1, r0, lsl #4
     574:	01006e27 	tsteq	r0, r7, lsr #28
     578:	00002533 	andeq	r2, r0, r3, lsr r5
     57c:	00ca1700 	sbceq	r1, sl, r0, lsl #14
     580:	06360000 	ldrteq	r0, [r6], -r0
     584:	03050000 	movweq	r0, #20480	; 0x5000
     588:	00009c58 	andeq	r9, r0, r8, asr ip
     58c:	00824418 	addeq	r4, r2, r8, lsl r4
     590:	00069f00 	andeq	r9, r6, r0, lsl #30
     594:	824c1900 	subhi	r1, ip, #0, 18
     598:	053e0000 	ldreq	r0, [lr, #-0]!
     59c:	05a90000 	streq	r0, [r9, #0]!
     5a0:	011a0000 	tsteq	sl, r0
     5a4:	007d0250 	rsbseq	r0, sp, r0, asr r2
     5a8:	82541900 	subshi	r1, r4, #0, 18
     5ac:	06a60000 	strteq	r0, [r6], r0
     5b0:	05bd0000 	ldreq	r0, [sp, #0]!
     5b4:	011a0000 	tsteq	sl, r0
     5b8:	007d0250 	rsbseq	r0, sp, r0, asr r2
     5bc:	82601800 	rsbhi	r1, r0, #0, 16
     5c0:	06660000 	strbteq	r0, [r6], -r0
     5c4:	74190000 	ldrvc	r0, [r9], #-0
     5c8:	6d000082 	stcvs	0, cr0, [r0, #-520]	; 0xfffffdf8
     5cc:	f5000006 			; <UNDEFINED> instruction: 0xf5000006
     5d0:	1a000005 	bne	5ec <__code_start__-0x7a14>
     5d4:	08025301 	stmdaeq	r2, {r0, r8, r9, ip, lr}
     5d8:	52011a35 	andpl	r1, r1, #217088	; 0x35000
     5dc:	9c580305 	mrrcls	3, 0, r0, r8, cr5
     5e0:	011a0000 	tsteq	sl, r0
     5e4:	08030551 	stmdaeq	r3, {r0, r4, r6, r8, sl}
     5e8:	1a00009b 	bne	85c <__code_start__-0x77a4>
     5ec:	03055001 	movweq	r5, #20481	; 0x5001
     5f0:	00009b80 	andeq	r9, r0, r0, lsl #23
     5f4:	82781800 	rsbshi	r1, r8, #0, 16
     5f8:	06830000 	streq	r0, [r3], r0
     5fc:	80190000 	andshi	r0, r9, r0
     600:	6d000082 	stcvs	0, cr0, [r0, #-520]	; 0xfffffdf8
     604:	15000006 	strne	r0, [r0, #-6]
     608:	1a000006 	bne	628 <__code_start__-0x79d8>
     60c:	03055001 	movweq	r5, #20481	; 0x5001
     610:	00009bb0 			; <UNDEFINED> instruction: 0x00009bb0
     614:	82901900 	addshi	r1, r0, #0, 18
     618:	066d0000 	strbteq	r0, [sp], -r0
     61c:	062c0000 	strteq	r0, [ip], -r0
     620:	011a0000 	tsteq	sl, r0
     624:	bc030550 	cfstr32lt	mvfx0, [r3], {80}	; 0x50
     628:	0000009b 	muleq	r0, fp, r0
     62c:	00829418 	addeq	r9, r2, r8, lsl r4
     630:	00068300 	andeq	r8, r6, r0, lsl #6
     634:	8f060000 	svchi	0x00060000
     638:	26000000 	strcs	r0, [r0], -r0
     63c:	00746e63 	rsbseq	r6, r4, r3, ror #28
     640:	01a30601 			; <UNDEFINED> instruction: 0x01a30601
     644:	03050000 	movweq	r0, #20480	; 0x5000
     648:	0000a350 	andeq	sl, r0, r0, asr r3
     64c:	01006c26 	tsteq	r0, r6, lsr #24
     650:	00019807 	andeq	r9, r1, r7, lsl #16
     654:	54030500 	strpl	r0, [r3], #-1280	; 0x500
     658:	280000a3 	stmdacs	r0, {r0, r1, r5, r7}
     65c:	000000a8 	andeq	r0, r0, r8, lsr #1
     660:	0025c206 	eoreq	ip, r5, r6, lsl #4
     664:	72290000 	eorvc	r0, r9, #0
     668:	05000002 	streq	r0, [r0, #-2]
     66c:	05c52a1e 	strbeq	r2, [r5, #2590]	; 0xa1e
     670:	29050000 	stmdbcs	r5, {}	; <UNPREDICTABLE>
     674:	00000025 	andeq	r0, r0, r5, lsr #32
     678:	00000683 	andeq	r0, r0, r3, lsl #13
     67c:	0000840e 	andeq	r8, r0, lr, lsl #8
     680:	29002b00 	stmdbcs	r0, {r8, r9, fp, sp}
     684:	00000080 	andeq	r0, r0, r0, lsl #1
     688:	f32a6505 	vrshl.u32	d6, d5, d10
     68c:	02000001 	andeq	r0, r0, #1
     690:	0000250c 	andeq	r2, r0, ip, lsl #10
     694:	00069f00 	andeq	r9, r6, r0, lsl #30
     698:	01be0e00 			; <UNDEFINED> instruction: 0x01be0e00
     69c:	29000000 	stmdbcs	r0, {}	; <UNPREDICTABLE>
     6a0:	000001bc 			; <UNDEFINED> instruction: 0x000001bc
     6a4:	e42c8d05 	strt	r8, [ip], #-3333	; 0xd05
     6a8:	03000001 	movweq	r0, #1
     6ac:	0000254e 	andeq	r2, r0, lr, asr #10
     6b0:	03df0e00 	bicseq	r0, pc, #0, 28
     6b4:	00000000 	andeq	r0, r0, r0
     6b8:	00000bd7 	ldrdeq	r0, [r0], -r7
     6bc:	02640004 	rsbeq	r0, r4, #4
     6c0:	01040000 	mrseq	r0, (UNDEF: 4)
     6c4:	000000f5 	strdeq	r0, [r0], -r5
     6c8:	0002bd01 	andeq	fp, r2, r1, lsl #26
     6cc:	00020400 	andeq	r0, r2, r0, lsl #8
     6d0:	0082a800 	addeq	sl, r2, r0, lsl #16
     6d4:	00037800 	andeq	r7, r3, r0, lsl #16
     6d8:	00017d00 	andeq	r7, r1, r0, lsl #26
     6dc:	05040200 	streq	r0, [r4, #-512]	; 0x200
     6e0:	00746e69 	rsbseq	r6, r4, r9, ror #28
     6e4:	6c070403 	cfstrsvs	mvf0, [r7], {3}
     6e8:	03000001 	movweq	r0, #1
     6ec:	00740601 	rsbseq	r0, r4, r1, lsl #12
     6f0:	02030000 	andeq	r0, r3, #0
     6f4:	0000c005 	andeq	ip, r0, r5
     6f8:	05040300 	streq	r0, [r4, #-768]	; 0x300
     6fc:	0000019c 	muleq	r0, ip, r1
     700:	97050803 	strls	r0, [r5, -r3, lsl #16]
     704:	03000001 	movweq	r0, #1
     708:	00720801 	rsbseq	r0, r2, r1, lsl #16
     70c:	02030000 	andeq	r0, r3, #0
     710:	00008d07 	andeq	r8, r0, r7, lsl #26
     714:	01ea0400 	mvneq	r0, r0, lsl #8
     718:	34030000 	strcc	r0, [r3], #-0
     71c:	00000068 	andeq	r0, r0, r8, rrx
     720:	67070403 	strvs	r0, [r7, -r3, lsl #8]
     724:	03000001 	movweq	r0, #1
     728:	01620708 	cmneq	r2, r8, lsl #14
     72c:	04030000 	streq	r0, [r3], #-0
     730:	00018e07 	andeq	r8, r1, r7, lsl #28
     734:	03040500 	movweq	r0, #17664	; 0x4500
     738:	007b0801 	rsbseq	r0, fp, r1, lsl #16
     73c:	04060000 	streq	r0, [r6], #-0
     740:	0000008c 	andeq	r0, r0, ip, lsl #1
     744:	00007f07 	andeq	r7, r0, r7, lsl #30
     748:	04350400 	ldrteq	r0, [r5], #-1024	; 0x400
     74c:	8a020000 	bhi	80754 <__bss_end__+0x75fdc>
     750:	0000009c 	muleq	r0, ip, r0
     754:	00a20406 	adceq	r0, r2, r6, lsl #8
     758:	b7080000 	strlt	r0, [r8, -r0]
     75c:	09000000 	stmdbeq	r0, {}	; <UNPREDICTABLE>
     760:	000000b7 	strheq	r0, [r0], -r7
     764:	00005d09 	andeq	r5, r0, r9, lsl #26
     768:	005d0900 	subseq	r0, sp, r0, lsl #18
     76c:	06000000 	streq	r0, [r0], -r0
     770:	00005d04 	andeq	r5, r0, r4, lsl #26
     774:	04010a00 	streq	r0, [r1], #-2560	; 0xa00
     778:	5f020000 	svcpl	0x00020000
     77c:	0000005d 	andeq	r0, r0, sp, asr r0
     780:	0000d903 	andeq	sp, r0, r3, lsl #18
     784:	65720b00 	ldrbvs	r0, [r2, #-2816]!	; 0xb00
     788:	5f020074 	svcpl	0x00020074
     78c:	0000005d 	andeq	r0, r0, sp, asr r0
     790:	03810a00 	orreq	r0, r1, #0, 20
     794:	a6020000 	strge	r0, [r2], -r0
     798:	0000005d 	andeq	r0, r0, sp, asr r0
     79c:	0000f503 	andeq	pc, r0, r3, lsl #10
     7a0:	65720b00 	ldrbvs	r0, [r2, #-2816]!	; 0xb00
     7a4:	a6020074 			; <UNDEFINED> instruction: 0xa6020074
     7a8:	0000005d 	andeq	r0, r0, sp, asr r0
     7ac:	03d30a00 	bicseq	r0, r3, #0, 20
     7b0:	70020000 	andvc	r0, r2, r0
     7b4:	0000002c 	andeq	r0, r0, ip, lsr #32
     7b8:	00010f03 	andeq	r0, r1, r3, lsl #30
     7bc:	00720c00 	rsbseq	r0, r2, r0, lsl #24
     7c0:	005d7002 	subseq	r7, sp, r2
     7c4:	0a000000 	beq	7cc <__code_start__-0x7834>
     7c8:	000002f0 	strdeq	r0, [r0], -r0	; <UNPREDICTABLE>
     7cc:	005d1801 	subseq	r1, sp, r1, lsl #16
     7d0:	2b030000 	blcs	c07d8 <__bss_end__+0xb6060>
     7d4:	0b000001 	bleq	7e0 <__code_start__-0x7820>
     7d8:	00746572 	rsbseq	r6, r4, r2, ror r5
     7dc:	005d1801 	subseq	r1, sp, r1, lsl #16
     7e0:	0d000000 	stceq	0, cr0, [r0, #-0]
     7e4:	0000045b 	andeq	r0, r0, fp, asr r4
     7e8:	41031e01 	tstmi	r3, r1, lsl #28
     7ec:	0c000001 	stceq	0, cr0, [r0], {1}
     7f0:	1e010076 	mcrne	0, 0, r0, cr1, cr6, {3}
     7f4:	0000005d 	andeq	r0, r0, sp, asr r0
     7f8:	03330d00 	teqeq	r3, #0, 26
     7fc:	26010000 	strcs	r0, [r1], -r0
     800:	00015703 	andeq	r5, r1, r3, lsl #14
     804:	00760c00 	rsbseq	r0, r6, r0, lsl #24
     808:	005d2601 	subseq	r2, sp, r1, lsl #12
     80c:	0d000000 	stceq	0, cr0, [r0, #-0]
     810:	00000419 	andeq	r0, r0, r9, lsl r4
     814:	6d030d01 	stcvs	13, cr0, [r3, #-4]
     818:	0c000001 	stceq	0, cr0, [r0], {1}
     81c:	0d010076 	stceq	0, cr0, [r1, #-472]	; 0xfffffe28
     820:	0000005d 	andeq	r0, r0, sp, asr r0
     824:	03b30a00 			; <UNDEFINED> instruction: 0x03b30a00
     828:	66020000 	strvs	r0, [r2], -r0
     82c:	0000002c 	andeq	r0, r0, ip, lsr #32
     830:	00018903 	andeq	r8, r1, r3, lsl #18
     834:	036f0e00 	cmneq	pc, #0, 28
     838:	67020000 	strvs	r0, [r2, -r0]
     83c:	0000005d 	andeq	r0, r0, sp, asr r0
     840:	043f0a00 	ldrteq	r0, [pc], #-2560	; 848 <__code_start__-0x77b8>
     844:	56020000 	strpl	r0, [r2], -r0
     848:	0000005d 	andeq	r0, r0, sp, asr r0
     84c:	0001a503 	andeq	sl, r1, r3, lsl #10
     850:	65720b00 	ldrbvs	r0, [r2, #-2816]!	; 0xb00
     854:	56020074 			; <UNDEFINED> instruction: 0x56020074
     858:	0000005d 	andeq	r0, r0, sp, asr r0
     85c:	03790a00 	cmneq	r9, #0, 20
     860:	63020000 	movwvs	r0, #8192	; 0x2000
     864:	0000005d 	andeq	r0, r0, sp, asr r0
     868:	0001c103 	andeq	ip, r1, r3, lsl #2
     86c:	65720b00 	ldrbvs	r0, [r2, #-2816]!	; 0xb00
     870:	63020074 	movwvs	r0, #8308	; 0x2074
     874:	0000005d 	andeq	r0, r0, sp, asr r0
     878:	02de0d00 	sbcseq	r0, lr, #0, 26
     87c:	32010000 	andcc	r0, r1, #0
     880:	0001d703 	andeq	sp, r1, r3, lsl #14
     884:	00760c00 	rsbseq	r0, r6, r0, lsl #24
     888:	005d3201 	subseq	r3, sp, r1, lsl #4
     88c:	0a000000 	beq	894 <__code_start__-0x776c>
     890:	0000034d 	andeq	r0, r0, sp, asr #6
     894:	005d8d01 	subseq	r8, sp, r1, lsl #26
     898:	f3030000 	vhadd.u8	d0, d3, d0
     89c:	0b000001 	bleq	8a8 <__code_start__-0x7758>
     8a0:	00746572 	rsbseq	r6, r4, r2, ror r5
     8a4:	005d8d01 	subseq	r8, sp, r1, lsl #26
     8a8:	0d000000 	stceq	0, cr0, [r0, #-0]
     8ac:	0000030f 	andeq	r0, r0, pc, lsl #6
     8b0:	09038e01 	stmdbeq	r3, {r0, r9, sl, fp, pc}
     8b4:	0c000002 	stceq	0, cr0, [r0], {2}
     8b8:	8e010076 	mcrhi	0, 0, r0, cr1, cr6, {3}
     8bc:	0000005d 	andeq	r0, r0, sp, asr r0
     8c0:	03c50d00 	biceq	r0, r5, #0, 26
     8c4:	8c010000 	stchi	0, cr0, [r1], {-0}
     8c8:	00021f03 	andeq	r1, r2, r3, lsl #30
     8cc:	00760c00 	rsbseq	r0, r6, r0, lsl #24
     8d0:	005d8c01 	subseq	r8, sp, r1, lsl #24
     8d4:	0a000000 	beq	8dc <__code_start__-0x7724>
     8d8:	000002ca 	andeq	r0, r0, sl, asr #5
     8dc:	002ca902 	eoreq	sl, ip, r2, lsl #18
     8e0:	39030000 	stmdbcc	r3, {}	; <UNPREDICTABLE>
     8e4:	0b000002 	bleq	8f4 <__code_start__-0x770c>
     8e8:	aa020072 	bge	80ab8 <__bss_end__+0x76340>
     8ec:	0000002c 	andeq	r0, r0, ip, lsr #32
     8f0:	03780a00 	cmneq	r8, #0, 20
     8f4:	97020000 	strls	r0, [r2, -r0]
     8f8:	0000005d 	andeq	r0, r0, sp, asr r0
     8fc:	00025503 	andeq	r5, r2, r3, lsl #10
     900:	65720b00 	ldrbvs	r0, [r2, #-2816]!	; 0xb00
     904:	97020074 	smlsdxls	r2, r4, r0, r0
     908:	0000005d 	andeq	r0, r0, sp, asr r0
     90c:	03260f00 	teqeq	r6, #0, 30
     910:	36010000 	strcc	r0, [r1], -r0
     914:	000082a8 	andeq	r8, r0, r8, lsr #5
     918:	000000b0 	strheq	r0, [r0], -r0	; <UNPREDICTABLE>
     91c:	04309c01 	ldrteq	r9, [r0], #-3073	; 0xc01
     920:	b6100000 	ldrlt	r0, [r0], -r0
     924:	01000001 	tsteq	r0, r1
     928:	00007d36 	andeq	r7, r0, r6, lsr sp
     92c:	0000b300 	andeq	fp, r0, r0, lsl #6
     930:	04791000 	ldrbteq	r1, [r9], #-0
     934:	36010000 	strcc	r0, [r1], -r0
     938:	00000091 	muleq	r0, r1, r0
     93c:	000000f8 	strdeq	r0, [r0], -r8
     940:	0002e711 	andeq	lr, r2, r1, lsl r7
     944:	5d390100 	ldfpls	f0, [r9, #-0]
     948:	3d000000 	stccc	0, cr0, [r0, #-0]
     94c:	12000001 	andne	r0, r0, #1
     950:	000000ca 	andeq	r0, r0, sl, asr #1
     954:	00000440 	andeq	r0, r0, r0, asr #8
     958:	9d880305 	stcls	3, cr0, [r8, #20]
     95c:	1d110000 	ldcne	0, cr0, [r1, #-0]
     960:	01000003 	tsteq	r0, r3
     964:	00005d43 	andeq	r5, r0, r3, asr #26
     968:	00016900 	andeq	r6, r1, r0, lsl #18
     96c:	010f1300 	mrseq	r1, SP_hyp
     970:	82b00000 	adcshi	r0, r0, #0
     974:	00040000 	andeq	r0, r4, r0
     978:	39010000 	stmdbcc	r1, {}	; <UNPREDICTABLE>
     97c:	000002dc 	ldrdeq	r0, [r0], -ip
     980:	0082b014 	addeq	fp, r2, r4, lsl r0
     984:	00000400 	andeq	r0, r0, r0, lsl #8
     988:	011f1500 	tsteq	pc, r0, lsl #10
     98c:	01950000 	orrseq	r0, r5, r0
     990:	00000000 	andeq	r0, r0, r0
     994:	00012b13 	andeq	r2, r1, r3, lsl fp
     998:	0082b800 	addeq	fp, r2, r0, lsl #16
     99c:	00000400 	andeq	r0, r0, r0, lsl #8
     9a0:	f93f0100 			; <UNDEFINED> instruction: 0xf93f0100
     9a4:	16000002 	strne	r0, [r0], -r2
     9a8:	00000137 	andeq	r0, r0, r7, lsr r1
     9ac:	000001a8 	andeq	r0, r0, r8, lsr #3
     9b0:	010f1300 	mrseq	r1, SP_hyp
     9b4:	82bc0000 	adcshi	r0, ip, #0
     9b8:	00040000 	andeq	r0, r4, r0
     9bc:	41010000 	mrsmi	r0, (UNDEF: 1)
     9c0:	00000320 	andeq	r0, r0, r0, lsr #6
     9c4:	0082bc14 	addeq	fp, r2, r4, lsl ip
     9c8:	00000400 	andeq	r0, r0, r0, lsl #8
     9cc:	011f1500 	tsteq	pc, r0, lsl #10
     9d0:	01c60000 	biceq	r0, r6, r0
     9d4:	00000000 	andeq	r0, r0, r0
     9d8:	00014113 	andeq	r4, r1, r3, lsl r1
     9dc:	0082ec00 	addeq	lr, r2, r0, lsl #24
     9e0:	00000400 	andeq	r0, r0, r0, lsl #8
     9e4:	3d460100 	stfcce	f0, [r6, #-0]
     9e8:	16000003 	strne	r0, [r0], -r3
     9ec:	0000014d 	andeq	r0, r0, sp, asr #2
     9f0:	00000169 	andeq	r0, r0, r9, ror #2
     9f4:	012b1300 	teqeq	fp, r0, lsl #6
     9f8:	82f00000 	rscshi	r0, r0, #0
     9fc:	00080000 	andeq	r0, r8, r0
     a00:	50010000 	andpl	r0, r1, r0
     a04:	00000358 	andeq	r0, r0, r8, asr r3
     a08:	00013717 	andeq	r3, r1, r7, lsl r7
     a0c:	0001ff00 	andeq	pc, r1, r0, lsl #30
     a10:	00010f13 	andeq	r0, r1, r3, lsl pc
     a14:	0082f800 	addeq	pc, r2, r0, lsl #16
     a18:	00000400 	andeq	r0, r0, r0, lsl #8
     a1c:	7f520100 	svcvc	0x00520100
     a20:	14000003 	strne	r0, [r0], #-3
     a24:	000082f8 	strdeq	r8, [r0], -r8	; <UNPREDICTABLE>
     a28:	00000004 	andeq	r0, r0, r4
     a2c:	00011f15 	andeq	r1, r1, r5, lsl pc
     a30:	0001e400 	andeq	lr, r1, r0, lsl #8
     a34:	13000000 	movwne	r0, #0
     a38:	00000157 	andeq	r0, r0, r7, asr r1
     a3c:	00008328 	andeq	r8, r0, r8, lsr #6
     a40:	00000008 	andeq	r0, r0, r8
     a44:	03995401 	orrseq	r5, r9, #16777216	; 0x1000000
     a48:	63180000 	tstvs	r8, #0
     a4c:	00000001 	andeq	r0, r0, r1
     a50:	82cc1900 	sbchi	r1, ip, #0, 18
     a54:	0baf0000 	bleq	febc0a5c <__bss_end__+0xfebb62e4>
     a58:	e81a0000 	ldmda	sl, {}	; <UNPREDICTABLE>
     a5c:	b6000082 	strlt	r0, [r0], -r2, lsl #1
     a60:	db00000b 	blle	a94 <__code_start__-0x756c>
     a64:	1b000003 	blne	a78 <__code_start__-0x7588>
     a68:	08025301 	stmdaeq	r2, {r0, r8, r9, ip, lr}
     a6c:	52011b41 	andpl	r1, r1, #66560	; 0x10400
     a70:	9d880305 	stcls	3, cr0, [r8, #20]
     a74:	011b0000 	tsteq	fp, r0
     a78:	60030551 	andvs	r0, r3, r1, asr r5
     a7c:	1b00009c 	blne	cf4 <__code_start__-0x730c>
     a80:	03055001 	movweq	r5, #20481	; 0x5001
     a84:	00009b40 	andeq	r9, r0, r0, asr #22
     a88:	007d021b 	rsbseq	r0, sp, fp, lsl r2
     a8c:	9c700305 	ldclls	3, cr0, [r0], #-20	; 0xffffffec
     a90:	19000000 	stmdbne	r0, {}	; <UNPREDICTABLE>
     a94:	000082ec 	andeq	r8, r0, ip, ror #5
     a98:	00000bcc 	andeq	r0, r0, ip, asr #23
     a9c:	00830819 	addeq	r0, r3, r9, lsl r8
     aa0:	000baf00 	andeq	sl, fp, r0, lsl #30
     aa4:	83241a00 	teqhi	r4, #0, 20
     aa8:	0bb60000 	bleq	fed80ab0 <__bss_end__+0xfed76338>
     aac:	04260000 	strteq	r0, [r6], #-0
     ab0:	011b0000 	tsteq	fp, r0
     ab4:	52080253 	andpl	r0, r8, #805306373	; 0x30000005
     ab8:	0552011b 	ldrbeq	r0, [r2, #-283]	; 0x11b
     abc:	009d8803 	addseq	r8, sp, r3, lsl #16
     ac0:	51011b00 	tstpl	r1, r0, lsl #22
     ac4:	9c600305 	stclls	3, cr0, [r0], #-20	; 0xffffffec
     ac8:	011b0000 	tsteq	fp, r0
     acc:	40030550 	andmi	r0, r3, r0, asr r5
     ad0:	1b00009b 	blne	d44 <__code_start__-0x72bc>
     ad4:	05007d02 	streq	r7, [r0, #-3330]	; 0xd02
     ad8:	009c7003 	addseq	r7, ip, r3
     adc:	28190000 	ldmdacs	r9, {}	; <UNPREDICTABLE>
     ae0:	cc000083 	stcgt	0, cr0, [r0], {131}	; 0x83
     ae4:	0000000b 	andeq	r0, r0, fp
     ae8:	00007f1c 	andeq	r7, r0, ip, lsl pc
     aec:	00044000 	andeq	r4, r4, r0
     af0:	00761d00 	rsbseq	r1, r6, r0, lsl #26
     af4:	000c0000 	andeq	r0, ip, r0
     af8:	00043007 	andeq	r3, r4, r7
     afc:	02a90a00 	adceq	r0, r9, #0, 20
     b00:	76020000 	strvc	r0, [r2], -r0
     b04:	0000002c 	andeq	r0, r0, ip, lsr #32
     b08:	00046c03 	andeq	r6, r4, r3, lsl #24
     b0c:	00720b00 	rsbseq	r0, r2, r0, lsl #22
     b10:	002c7702 	eoreq	r7, ip, r2, lsl #14
     b14:	ca1e0000 	bgt	780b1c <__bss_end__+0x7763a4>
     b18:	7c000000 	stcvc	0, cr0, [r0], {-0}
     b1c:	a9000004 	stmdbge	r0, {r2}
     b20:	00000002 	andeq	r0, r0, r2
     b24:	00007f1c 	andeq	r7, r0, ip, lsl pc
     b28:	00047c00 	andeq	r7, r4, r0, lsl #24
     b2c:	00761d00 	rsbseq	r1, r6, r0, lsl #26
     b30:	00130000 	andseq	r0, r3, r0
     b34:	00046c07 	andeq	r6, r4, r7, lsl #24
     b38:	02810f00 	addeq	r0, r1, #0, 30
     b3c:	59010000 	stmdbpl	r1, {}	; <UNPREDICTABLE>
     b40:	00008358 	andeq	r8, r0, r8, asr r3
     b44:	000000dc 	ldrdeq	r0, [r0], -ip
     b48:	06b09c01 	ldrteq	r9, [r0], r1, lsl #24
     b4c:	701f0000 	andsvc	r0, pc, r0
     b50:	59010063 	stmdbpl	r1, {r0, r1, r5, r6}
     b54:	0000002c 	andeq	r0, r0, ip, lsr #32
     b58:	00000202 	andeq	r0, r0, r2, lsl #4
     b5c:	0003f020 	andeq	pc, r3, r0, lsr #32
     b60:	255a0100 	ldrbcs	r0, [sl, #-256]	; 0x100
     b64:	05000000 	streq	r0, [r0, #-0]
     b68:	00a36403 	adceq	r6, r3, r3, lsl #8
     b6c:	00ca1200 	sbceq	r1, sl, r0, lsl #4
     b70:	06c00000 	strbeq	r0, [r0], r0
     b74:	03050000 	movweq	r0, #20480	; 0x5000
     b78:	00009d98 	muleq	r0, r8, sp
     b7c:	0001b70e 	andeq	fp, r1, lr, lsl #14
     b80:	5d6b0100 	stfple	f0, [fp, #-0]
     b84:	13000000 	movwne	r0, #0
     b88:	0000016d 	andeq	r0, r0, sp, ror #2
     b8c:	00008364 	andeq	r8, r0, r4, ror #6
     b90:	00000004 	andeq	r0, r0, r4
     b94:	05115c01 	ldreq	r5, [r1, #-3073]	; 0xc01
     b98:	64140000 	ldrvs	r0, [r4], #-0
     b9c:	04000083 	streq	r0, [r0], #-131	; 0x83
     ba0:	21000000 	mrscs	r0, (UNDEF: 0)
     ba4:	0000017d 	andeq	r0, r0, sp, ror r1
     ba8:	0000bd22 	andeq	fp, r0, r2, lsr #26
     bac:	00836400 	addeq	r6, r3, r0, lsl #8
     bb0:	00000400 	andeq	r0, r0, r0, lsl #8
     bb4:	14670200 	strbtne	r0, [r7], #-512	; 0x200
     bb8:	00008364 	andeq	r8, r0, r4, ror #6
     bbc:	00000004 	andeq	r0, r0, r4
     bc0:	0000cd21 	andeq	ip, r0, r1, lsr #26
     bc4:	00000000 	andeq	r0, r0, r0
     bc8:	04451300 	strbeq	r1, [r5], #-768	; 0x300
     bcc:	83680000 	cmnhi	r8, #0
     bd0:	002c0000 	eoreq	r0, ip, r0
     bd4:	62010000 	andvs	r0, r1, #0
     bd8:	000005c4 	andeq	r0, r0, r4, asr #11
     bdc:	00836814 	addeq	r6, r3, r4, lsl r8
     be0:	00002c00 	andeq	r2, r0, r0, lsl #24
     be4:	04552100 	ldrbeq	r2, [r5], #-256	; 0x100
     be8:	5e230000 	cdppl	0, 2, cr0, cr3, cr0, {0}
     bec:	05000004 	streq	r0, [r0, #-4]
     bf0:	009dac03 	addseq	sl, sp, r3, lsl #24
     bf4:	00bd1300 	adcseq	r1, sp, r0, lsl #6
     bf8:	83680000 	cmnhi	r8, #0
     bfc:	00040000 	andeq	r0, r4, r0
     c00:	77020000 	strvc	r0, [r2, -r0]
     c04:	00000564 	andeq	r0, r0, r4, ror #10
     c08:	00836814 	addeq	r6, r3, r4, lsl r8
     c0c:	00000400 	andeq	r0, r0, r0, lsl #8
     c10:	00cd1500 	sbceq	r1, sp, r0, lsl #10
     c14:	02790000 	rsbseq	r0, r9, #0
     c18:	00000000 	andeq	r0, r0, r0
     c1c:	0000f513 	andeq	pc, r0, r3, lsl r5	; <UNPREDICTABLE>
     c20:	00836c00 	addeq	r6, r3, r0, lsl #24
     c24:	00000400 	andeq	r0, r0, r0, lsl #8
     c28:	81780200 	cmnhi	r8, r0, lsl #4
     c2c:	16000005 	strne	r0, [r0], -r5
     c30:	00000105 	andeq	r0, r0, r5, lsl #2
     c34:	00000279 	andeq	r0, r0, r9, ror r2
     c38:	837c1900 	cmnhi	ip, #0, 18
     c3c:	0baf0000 	bleq	febc0c44 <__bss_end__+0xfebb64cc>
     c40:	901a0000 	andsls	r0, sl, r0
     c44:	b6000083 	strlt	r0, [r0], -r3, lsl #1
     c48:	b900000b 	stmdblt	r0, {r0, r1, r3}
     c4c:	1b000005 	blne	c68 <__code_start__-0x7398>
     c50:	08025301 	stmdaeq	r2, {r0, r8, r9, ip, lr}
     c54:	52011b79 	andpl	r1, r1, #123904	; 0x1e400
     c58:	9dac0305 	stcls	3, cr0, [ip, #20]!
     c5c:	011b0000 	tsteq	fp, r0
     c60:	c0030551 	andgt	r0, r3, r1, asr r5
     c64:	1b00009c 	blne	edc <__code_start__-0x7124>
     c68:	03055001 	movweq	r5, #20481	; 0x5001
     c6c:	00009c88 	andeq	r9, r0, r8, lsl #25
     c70:	83941900 	orrshi	r1, r4, #0, 18
     c74:	0bcc0000 	bleq	ff300c7c <__bss_end__+0xff2f6504>
     c78:	00000000 	andeq	r0, r0, r0
     c7c:	00018913 	andeq	r8, r1, r3, lsl r9
     c80:	00839400 	addeq	r9, r3, r0, lsl #8
     c84:	00000400 	andeq	r0, r0, r0, lsl #8
     c88:	eb670100 	bl	19c1090 <__bss_end__+0x19b6918>
     c8c:	14000005 	strne	r0, [r0], #-5
     c90:	00008394 	muleq	r0, r4, r3
     c94:	00000004 	andeq	r0, r0, r4
     c98:	00019915 	andeq	r9, r1, r5, lsl r9
     c9c:	00028c00 	andeq	r8, r2, r0, lsl #24
     ca0:	13000000 	movwne	r0, #0
     ca4:	000001a5 	andeq	r0, r0, r5, lsr #3
     ca8:	000083fc 	strdeq	r8, [r0], -ip
     cac:	00000004 	andeq	r0, r0, r4
     cb0:	060e6b01 	streq	r6, [lr], -r1, lsl #22
     cb4:	fc140000 	ldc2	0, cr0, [r4], {-0}
     cb8:	04000083 	streq	r0, [r0], #-131	; 0x83
     cbc:	21000000 	mrscs	r0, (UNDEF: 0)
     cc0:	000001b5 			; <UNDEFINED> instruction: 0x000001b5
     cc4:	a8190000 	ldmdage	r9, {}	; <UNPREDICTABLE>
     cc8:	af000083 	svcge	0x00000083
     ccc:	1a00000b 	bne	d00 <__code_start__-0x7300>
     cd0:	000083c4 	andeq	r8, r0, r4, asr #7
     cd4:	00000bb6 			; <UNDEFINED> instruction: 0x00000bb6
     cd8:	00000650 	andeq	r0, r0, r0, asr r6
     cdc:	0253011b 	subseq	r0, r3, #-1073741818	; 0xc0000006
     ce0:	011b6708 	tsteq	fp, r8, lsl #14
     ce4:	98030552 	stmdals	r3, {r1, r4, r6, r8, sl}
     ce8:	1b00009d 	blne	f64 <__code_start__-0x709c>
     cec:	03055101 	movweq	r5, #20737	; 0x5101
     cf0:	00009c60 	andeq	r9, r0, r0, ror #24
     cf4:	0550011b 	ldrbeq	r0, [r0, #-283]	; 0x11b
     cf8:	009b4003 	addseq	r4, fp, r3
     cfc:	7d021b00 	vstrvc	d1, [r2, #-0]
     d00:	d0030500 	andle	r0, r3, r0, lsl #10
     d04:	0000009c 	muleq	r0, ip, r0
     d08:	0083c819 	addeq	ip, r3, r9, lsl r8
     d0c:	000bcc00 	andeq	ip, fp, r0, lsl #24
     d10:	83dc1900 	bicshi	r1, ip, #0, 18
     d14:	0baf0000 	bleq	febc0d1c <__bss_end__+0xfebb65a4>
     d18:	f81a0000 			; <UNDEFINED> instruction: 0xf81a0000
     d1c:	b6000083 	strlt	r0, [r0], -r3, lsl #1
     d20:	9b00000b 	blls	d54 <__code_start__-0x72ac>
     d24:	1b000006 	blne	d44 <__code_start__-0x72bc>
     d28:	08025301 	stmdaeq	r2, {r0, r8, r9, ip, lr}
     d2c:	52011b69 	andpl	r1, r1, #107520	; 0x1a400
     d30:	9d980305 	ldcls	3, cr0, [r8, #20]
     d34:	011b0000 	tsteq	fp, r0
     d38:	60030551 	andvs	r0, r3, r1, asr r5
     d3c:	1b00009c 	blne	fb4 <__code_start__-0x704c>
     d40:	03055001 	movweq	r5, #20481	; 0x5001
     d44:	00009b40 	andeq	r9, r0, r0, asr #22
     d48:	007d021b 	rsbseq	r0, sp, fp, lsl r2
     d4c:	9ce40305 	stclls	3, cr0, [r4], #20
     d50:	19000000 	stmdbne	r0, {}	; <UNPREDICTABLE>
     d54:	000083fc 	strdeq	r8, [r0], -ip
     d58:	00000bcc 	andeq	r0, r0, ip, asr #23
     d5c:	00840824 	addeq	r0, r4, r4, lsr #16
     d60:	50011b00 	andpl	r1, r1, r0, lsl #22
     d64:	00003001 	andeq	r3, r0, r1
     d68:	00007f1c 	andeq	r7, r0, ip, lsl pc
     d6c:	0006c000 	andeq	ip, r6, r0
     d70:	00761d00 	rsbseq	r1, r6, r0, lsl #26
     d74:	00110000 	andseq	r0, r1, r0
     d78:	0006b007 	andeq	fp, r6, r7
     d7c:	03e40f00 	mvneq	r0, #0, 30
     d80:	72010000 	andvc	r0, r1, #0
     d84:	00008434 	andeq	r8, r0, r4, lsr r4
     d88:	0000003c 	andeq	r0, r0, ip, lsr r0
     d8c:	07359c01 	ldreq	r9, [r5, -r1, lsl #24]!
     d90:	f9200000 			; <UNDEFINED> instruction: 0xf9200000
     d94:	01000002 	tsteq	r0, r2
     d98:	00002573 	andeq	r2, r0, r3, ror r5
     d9c:	68030500 	stmdavs	r3, {r8, sl}
     da0:	250000a3 	strcs	r0, [r0, #-163]	; 0xa3
     da4:	7c010076 	stcvc	0, cr0, [r1], {118}	; 0x76
     da8:	0000005d 	andeq	r0, r0, sp, asr r0
     dac:	c1138000 	tstgt	r3, r0
     db0:	58000001 	stmdapl	r0, {r0}
     db4:	08000084 	stmdaeq	r0, {r2, r7}
     db8:	01000000 	mrseq	r0, (UNDEF: 0)
     dbc:	0007117e 	andeq	r1, r7, lr, ror r1
     dc0:	01cd1700 	biceq	r1, sp, r0, lsl #14
     dc4:	80000000 	andhi	r0, r0, r0
     dc8:	01571300 	cmpeq	r7, r0, lsl #6
     dcc:	84600000 	strbthi	r0, [r0], #-0
     dd0:	00100000 	andseq	r0, r0, r0
     dd4:	80010000 	andhi	r0, r1, r0
     dd8:	0000072b 	andeq	r0, r0, fp, lsr #14
     ddc:	00016318 	andeq	r6, r1, r8, lsl r3
     de0:	19000000 	stmdbne	r0, {}	; <UNPREDICTABLE>
     de4:	0000844c 	andeq	r8, r0, ip, asr #8
     de8:	00000bd3 	ldrdeq	r0, [r0], -r3
     dec:	04500f00 	ldrbeq	r0, [r0], #-3840	; 0xf00
     df0:	a8010000 	stmdage	r1, {}	; <UNPREDICTABLE>
     df4:	00008470 	andeq	r8, r0, r0, ror r4
     df8:	00000034 	andeq	r0, r0, r4, lsr r0
     dfc:	08119c01 	ldmdaeq	r1, {r0, sl, fp, ip, pc}
     e00:	b7260000 	strlt	r0, [r6, -r0]!
     e04:	01000001 	tsteq	r0, r1
     e08:	00005da8 	andeq	r5, r0, r8, lsr #27
     e0c:	26500100 	ldrbcs	r0, [r0], -r0, lsl #2
     e10:	00000479 	andeq	r0, r0, r9, ror r4
     e14:	0091a801 	addseq	sl, r1, r1, lsl #16
     e18:	51010000 	mrspl	r0, (UNDEF: 1)
     e1c:	00042c11 	andeq	r2, r4, r1, lsl ip
     e20:	5da90100 	stfpls	f0, [r9]
     e24:	b9000000 	stmdblt	r0, {}	; <UNPREDICTABLE>
     e28:	20000002 	andcs	r0, r0, r2
     e2c:	000003f8 	strdeq	r0, [r0], -r8
     e30:	005db101 	subseq	fp, sp, r1, lsl #2
     e34:	50010000 	andpl	r0, r1, r0
     e38:	0001d713 	andeq	sp, r1, r3, lsl r7
     e3c:	00847000 	addeq	r7, r4, r0
     e40:	00000400 	andeq	r0, r0, r0, lsl #8
     e44:	a7a90100 	strge	r0, [r9, r0, lsl #2]!
     e48:	14000007 	strne	r0, [r0], #-7
     e4c:	00008470 	andeq	r8, r0, r0, ror r4
     e50:	00000004 	andeq	r0, r0, r4
     e54:	0001e715 	andeq	lr, r1, r5, lsl r7
     e58:	0002da00 	andeq	sp, r2, r0, lsl #20
     e5c:	13000000 	movwne	r0, #0
     e60:	000001f3 	strdeq	r0, [r0], -r3
     e64:	00008478 	andeq	r8, r0, r8, ror r4
     e68:	00000004 	andeq	r0, r0, r4
     e6c:	07c4af01 	strbeq	sl, [r4, r1, lsl #30]
     e70:	ff160000 			; <UNDEFINED> instruction: 0xff160000
     e74:	ed000001 	stc	0, cr0, [r0, #-4]
     e78:	00000002 	andeq	r0, r0, r2
     e7c:	00020913 	andeq	r0, r2, r3, lsl r9
     e80:	00847c00 	addeq	r7, r4, r0, lsl #24
     e84:	00000400 	andeq	r0, r0, r0, lsl #8
     e88:	dfb40100 	svcle	0x00b40100
     e8c:	27000007 	strcs	r0, [r0, -r7]
     e90:	00000215 	andeq	r0, r0, r5, lsl r2
     e94:	13005001 	movwne	r5, #1
     e98:	000001f3 	strdeq	r0, [r0], -r3
     e9c:	00008480 	andeq	r8, r0, r0, lsl #9
     ea0:	00000008 	andeq	r0, r0, r8
     ea4:	07fabe01 	ldrbeq	fp, [sl, r1, lsl #28]!
     ea8:	ff170000 			; <UNDEFINED> instruction: 0xff170000
     eac:	e7000001 	str	r0, [r0, -r1]
     eb0:	57220001 	strpl	r0, [r2, -r1]!
     eb4:	88000001 	stmdahi	r0, {r0}
     eb8:	08000084 	stmdaeq	r0, {r2, r7}
     ebc:	01000000 	mrseq	r0, (UNDEF: 0)
     ec0:	016318bf 	strheq	r1, [r3, #-143]!	; 0xffffff71
     ec4:	00000000 	andeq	r0, r0, r0
     ec8:	02930f00 	addseq	r0, r3, #0, 30
     ecc:	c4010000 	strgt	r0, [r1], #-0
     ed0:	000084a4 	andeq	r8, r0, r4, lsr #9
     ed4:	00000098 	muleq	r0, r8, r0
     ed8:	09449c01 	stmdbeq	r4, {r0, sl, fp, ip, pc}^
     edc:	701f0000 	andsvc	r0, pc, r0
     ee0:	c4010063 	strgt	r0, [r1], #-99	; 0x63
     ee4:	0000002c 	andeq	r0, r0, ip, lsr #32
     ee8:	00000300 	andeq	r0, r0, r0, lsl #6
     eec:	0000ca12 	andeq	ip, r0, r2, lsl sl
     ef0:	00095400 	andeq	r5, r9, r0, lsl #8
     ef4:	c0030500 	andgt	r0, r3, r0, lsl #10
     ef8:	1300009d 	movwne	r0, #157	; 0x9d
     efc:	0000021f 	andeq	r0, r0, pc, lsl r2
     f00:	000084b0 			; <UNDEFINED> instruction: 0x000084b0
     f04:	00000008 	andeq	r0, r0, r8
     f08:	0889c601 	stmeq	r9, {r0, r9, sl, lr, pc}
     f0c:	b0140000 	andslt	r0, r4, r0
     f10:	08000084 	stmdaeq	r0, {r2, r7}
     f14:	21000000 	mrscs	r0, (UNDEF: 0)
     f18:	0000022f 	andeq	r0, r0, pc, lsr #4
     f1c:	0000d922 	andeq	sp, r0, r2, lsr #18
     f20:	0084b000 	addeq	fp, r4, r0
     f24:	00000400 	andeq	r0, r0, r0, lsl #8
     f28:	14aa0200 	strtne	r0, [sl], #512	; 0x200
     f2c:	000084b0 			; <UNDEFINED> instruction: 0x000084b0
     f30:	00000004 	andeq	r0, r0, r4
     f34:	0000e915 	andeq	lr, r0, r5, lsl r9
     f38:	00035e00 	andeq	r5, r3, r0, lsl #28
     f3c:	00000000 	andeq	r0, r0, r0
     f40:	02391300 	eorseq	r1, r9, #0, 6
     f44:	85100000 	ldrhi	r0, [r0, #-0]
     f48:	00040000 	andeq	r0, r4, r0
     f4c:	ca010000 	bgt	40f54 <__bss_end__+0x367dc>
     f50:	000008ac 	andeq	r0, r0, ip, lsr #17
     f54:	00851014 	addeq	r1, r5, r4, lsl r0
     f58:	00000400 	andeq	r0, r0, r0, lsl #8
     f5c:	02492100 	subeq	r2, r9, #0, 2
     f60:	00000000 	andeq	r0, r0, r0
     f64:	0084c419 	addeq	ip, r4, r9, lsl r4
     f68:	000baf00 	andeq	sl, fp, r0, lsl #30
     f6c:	84d81a00 	ldrbhi	r1, [r8], #2560	; 0xa00
     f70:	0bb60000 	bleq	fed80f78 <__bss_end__+0xfed76800>
     f74:	08e40000 	stmiaeq	r4!, {}^	; <UNPREDICTABLE>
     f78:	011b0000 	tsteq	fp, r0
     f7c:	c7080253 	smlsdgt	r8, r3, r2, r0
     f80:	0552011b 	ldrbeq	r0, [r2, #-283]	; 0x11b
     f84:	009dc003 	addseq	ip, sp, r3
     f88:	51011b00 	tstpl	r1, r0, lsl #22
     f8c:	9c600305 	stclls	3, cr0, [r0], #-20	; 0xffffffec
     f90:	011b0000 	tsteq	fp, r0
     f94:	f8030550 			; <UNDEFINED> instruction: 0xf8030550
     f98:	0000009c 	muleq	r0, ip, r0
     f9c:	0084dc19 	addeq	sp, r4, r9, lsl ip
     fa0:	000bcc00 	andeq	ip, fp, r0, lsl #24
     fa4:	84f01900 	ldrbthi	r1, [r0], #2304	; 0x900
     fa8:	0baf0000 	bleq	febc0fb0 <__bss_end__+0xfebb6838>
     fac:	0c1a0000 	ldceq	0, cr0, [sl], {-0}
     fb0:	b6000085 	strlt	r0, [r0], -r5, lsl #1
     fb4:	2f00000b 	svccs	0x0000000b
     fb8:	1b000009 	blne	fe4 <__code_start__-0x701c>
     fbc:	08025301 	stmdaeq	r2, {r0, r8, r9, ip, lr}
     fc0:	52011bc8 	andpl	r1, r1, #200, 22	; 0x32000
     fc4:	9dc00305 	stclls	3, cr0, [r0, #20]
     fc8:	011b0000 	tsteq	fp, r0
     fcc:	60030551 	andvs	r0, r3, r1, asr r5
     fd0:	1b00009c 	blne	1248 <__code_start__-0x6db8>
     fd4:	03055001 	movweq	r5, #20481	; 0x5001
     fd8:	00009b40 	andeq	r9, r0, r0, asr #22
     fdc:	007d021b 	rsbseq	r0, sp, fp, lsl r2
     fe0:	9d300305 	ldcls	3, cr0, [r0, #-20]!	; 0xffffffec
     fe4:	19000000 	stmdbne	r0, {}	; <UNPREDICTABLE>
     fe8:	00008510 	andeq	r8, r0, r0, lsl r5
     fec:	00000bcc 	andeq	r0, r0, ip, asr #23
     ff0:	00851c24 	addeq	r1, r5, r4, lsr #24
     ff4:	50011b00 	andpl	r1, r1, r0, lsl #22
     ff8:	00003001 	andeq	r3, r0, r1
     ffc:	00007f1c 	andeq	r7, r0, ip, lsl pc
    1000:	00095400 	andeq	r5, r9, r0, lsl #8
    1004:	00761d00 	rsbseq	r1, r6, r0, lsl #26
    1008:	00150000 	andseq	r0, r5, r0
    100c:	00094407 	andeq	r4, r9, r7, lsl #8
    1010:	07b00f00 	ldreq	r0, [r0, r0, lsl #30]!
    1014:	cd010000 	stcgt	0, cr0, [r1, #-0]
    1018:	0000853c 	andeq	r8, r0, ip, lsr r5
    101c:	00000004 	andeq	r0, r0, r4
    1020:	097b9c01 	ldmdbeq	fp!, {r0, sl, fp, ip, pc}^
    1024:	70280000 	eorvc	r0, r8, r0
    1028:	cd010063 	stcgt	0, cr0, [r1, #-396]	; 0xfffffe74
    102c:	0000002c 	andeq	r0, r0, ip, lsr #32
    1030:	0f005001 	svceq	0x00005001
    1034:	0000033c 	andeq	r0, r0, ip, lsr r3
    1038:	8540d801 	strbhi	sp, [r0, #-2049]	; 0x801
    103c:	002c0000 	eoreq	r0, ip, r0
    1040:	9c010000 	stcls	0, cr0, [r1], {-0}
    1044:	000009e1 	andeq	r0, r0, r1, ror #19
    1048:	0000ca12 	andeq	ip, r0, r2, lsl sl
    104c:	0009f100 	andeq	pc, r9, r0, lsl #2
    1050:	d8030500 	stmdale	r3, {r8, sl}
    1054:	1900009d 	stmdbne	r0, {r0, r2, r3, r4, r7}
    1058:	00008548 	andeq	r8, r0, r8, asr #10
    105c:	00000baf 	andeq	r0, r0, pc, lsr #23
    1060:	00855c1a 	addeq	r5, r5, sl, lsl ip
    1064:	000bb600 	andeq	fp, fp, r0, lsl #12
    1068:	0009d700 	andeq	sp, r9, r0, lsl #14
    106c:	53011b00 	movwpl	r1, #6912	; 0x1b00
    1070:	1bd90802 	blne	ff643080 <__bss_end__+0xff638908>
    1074:	03055201 	movweq	r5, #20993	; 0x5201
    1078:	00009dd8 	ldrdeq	r9, [r0], -r8
    107c:	0551011b 	ldrbeq	r0, [r1, #-283]	; 0x11b
    1080:	009c6003 	addseq	r6, ip, r3
    1084:	50011b00 	andpl	r1, r1, r0, lsl #22
    1088:	9d400305 	stclls	3, cr0, [r0, #-20]	; 0xffffffec
    108c:	19000000 	stmdbne	r0, {}	; <UNPREDICTABLE>
    1090:	00008560 	andeq	r8, r0, r0, ror #10
    1094:	00000bcc 	andeq	r0, r0, ip, asr #23
    1098:	007f1c00 	rsbseq	r1, pc, r0, lsl #24
    109c:	09f10000 	ldmibeq	r1!, {}^	; <UNPREDICTABLE>
    10a0:	761d0000 	ldrvc	r0, [sp], -r0
    10a4:	10000000 	andne	r0, r0, r0
    10a8:	09e10700 	stmibeq	r1!, {r8, r9, sl}^
    10ac:	5b0f0000 	blpl	3c10b4 <__bss_end__+0x3b693c>
    10b0:	01000003 	tsteq	r0, r3
    10b4:	00856cdc 	ldrdeq	r6, [r5], ip
    10b8:	00003400 	andeq	r3, r0, r0, lsl #8
    10bc:	d49c0100 	ldrle	r0, [ip], #256	; 0x100
    10c0:	2600000a 	strcs	r0, [r0], -sl
    10c4:	000001b7 			; <UNDEFINED> instruction: 0x000001b7
    10c8:	005ddc01 	subseq	sp, sp, r1, lsl #24
    10cc:	50010000 	andpl	r0, r1, r0
    10d0:	00047926 	andeq	r7, r4, r6, lsr #18
    10d4:	91dc0100 	bicsls	r0, ip, r0, lsl #2
    10d8:	01000000 	mrseq	r0, (UNDEF: 0)
    10dc:	042c1151 	strteq	r1, [ip], #-337	; 0x151
    10e0:	dd010000 	stcle	0, cr0, [r1, #-0]
    10e4:	0000005d 	andeq	r0, r0, sp, asr r0
    10e8:	00000371 	andeq	r0, r0, r1, ror r3
    10ec:	0003f820 	andeq	pc, r3, r0, lsr #16
    10f0:	5de50100 	stfple	f0, [r5]
    10f4:	01000000 	mrseq	r0, (UNDEF: 0)
    10f8:	01d71350 	bicseq	r1, r7, r0, asr r3
    10fc:	856c0000 	strbhi	r0, [ip, #-0]!
    1100:	00040000 	andeq	r0, r4, r0
    1104:	dd010000 	stcle	0, cr0, [r1, #-0]
    1108:	00000a68 	andeq	r0, r0, r8, ror #20
    110c:	00856c14 	addeq	r6, r5, r4, lsl ip
    1110:	00000400 	andeq	r0, r0, r0, lsl #8
    1114:	01e71500 	mvneq	r1, r0, lsl #10
    1118:	03940000 	orrseq	r0, r4, #0
    111c:	00000000 	andeq	r0, r0, r0
    1120:	0001f313 	andeq	pc, r1, r3, lsl r3	; <UNPREDICTABLE>
    1124:	00857400 	addeq	r7, r5, r0, lsl #8
    1128:	00000400 	andeq	r0, r0, r0, lsl #8
    112c:	85e30100 	strbhi	r0, [r3, #256]!	; 0x100
    1130:	1600000a 	strne	r0, [r0], -sl
    1134:	000001ff 	strdeq	r0, [r0], -pc	; <UNPREDICTABLE>
    1138:	000003a7 	andeq	r0, r0, r7, lsr #7
    113c:	02091300 	andeq	r1, r9, #0, 6
    1140:	85780000 	ldrbhi	r0, [r8, #-0]!
    1144:	00040000 	andeq	r0, r4, r0
    1148:	e8010000 	stmda	r1, {}	; <UNPREDICTABLE>
    114c:	00000aa0 	andeq	r0, r0, r0, lsr #21
    1150:	00021527 	andeq	r1, r2, r7, lsr #10
    1154:	00500100 	subseq	r0, r0, r0, lsl #2
    1158:	0001f313 	andeq	pc, r1, r3, lsl r3	; <UNPREDICTABLE>
    115c:	00857c00 	addeq	r7, r5, r0, lsl #24
    1160:	00000800 	andeq	r0, r0, r0, lsl #16
    1164:	bdf20100 	ldflte	f0, [r2]
    1168:	2900000a 	stmdbcs	r0, {r1, r3}
    116c:	000001ff 	strdeq	r0, [r0], -pc	; <UNPREDICTABLE>
    1170:	004001e7 	subeq	r0, r0, r7, ror #3
    1174:	01572200 	cmpeq	r7, r0, lsl #4
    1178:	85840000 	strhi	r0, [r4]
    117c:	00080000 	andeq	r0, r8, r0
    1180:	f3010000 	vhadd.u8	d0, d1, d0
    1184:	00016318 	andeq	r6, r1, r8, lsl r3
    1188:	00000000 	andeq	r0, r0, r0
    118c:	00039b0f 	andeq	r9, r3, pc, lsl #22
    1190:	a0f80100 	rscsge	r0, r8, r0, lsl #2
    1194:	10000085 	andne	r0, r0, r5, lsl #1
    1198:	01000000 	mrseq	r0, (UNDEF: 0)
    119c:	000b209c 	muleq	fp, ip, r0
    11a0:	01b72600 			; <UNDEFINED> instruction: 0x01b72600
    11a4:	f8010000 			; <UNDEFINED> instruction: 0xf8010000
    11a8:	0000005d 	andeq	r0, r0, sp, asr r0
    11ac:	2c2a5001 	stccs	0, cr5, [sl], #-4
    11b0:	01000004 	tsteq	r0, r4
    11b4:	00005df9 	strdeq	r5, [r0], -r9
    11b8:	4001e600 	andmi	lr, r1, r0, lsl #12
    11bc:	01f32b00 	mvnseq	r2, r0, lsl #22
    11c0:	85a00000 	strhi	r0, [r0, #0]!
    11c4:	00100000 	andseq	r0, r0, r0
    11c8:	00010000 	andeq	r0, r1, r0
    11cc:	01ff2901 	mvnseq	r2, r1, lsl #18
    11d0:	01e60000 	mvneq	r0, r0
    11d4:	00000040 	andeq	r0, r0, r0, asr #32
    11d8:	00040a2c 	andeq	r0, r4, ip, lsr #20
    11dc:	01090100 	mrseq	r0, (UNDEF: 25)
    11e0:	00000025 	andeq	r0, r0, r5, lsr #32
    11e4:	000085b0 			; <UNDEFINED> instruction: 0x000085b0
    11e8:	00000070 	andeq	r0, r0, r0, ror r0
    11ec:	0b7c9c01 	bleq	1f281f8 <__bss_end__+0x1f1da80>
    11f0:	702d0000 	eorvc	r0, sp, r0
    11f4:	09010063 	stmdbeq	r1, {r0, r1, r5, r6}
    11f8:	00002c01 	andeq	r2, r0, r1, lsl #24
    11fc:	0003ba00 	andeq	fp, r3, r0, lsl #20
    1200:	30722d00 	rsbscc	r2, r2, r0, lsl #26
    1204:	01090100 	mrseq	r0, (UNDEF: 25)
    1208:	0000005d 	andeq	r0, r0, sp, asr r0
    120c:	0000043f 	andeq	r0, r0, pc, lsr r4
    1210:	0004482e 	andeq	r4, r4, lr, lsr #16
    1214:	010a0100 	mrseq	r0, (UNDEF: 26)
    1218:	0000005d 	andeq	r0, r0, sp, asr r0
    121c:	0000046b 	andeq	r0, r0, fp, ror #8
    1220:	0086042f 	addeq	r0, r6, pc, lsr #8
    1224:	000bb600 	andeq	fp, fp, r0, lsl #12
    1228:	50011b00 	andpl	r1, r1, r0, lsl #22
    122c:	9d700305 	ldclls	3, cr0, [r0, #-20]!	; 0xffffffec
    1230:	00000000 	andeq	r0, r0, r0
    1234:	00038a20 	andeq	r8, r3, r0, lsr #20
    1238:	910b0100 	mrsls	r0, (UNDEF: 27)
    123c:	05000000 	streq	r0, [r0, #-0]
    1240:	00a35803 	adceq	r5, r3, r3, lsl #16
    1244:	03002000 	movweq	r2, #0
    1248:	89010000 	stmdbhi	r1, {}	; <UNPREDICTABLE>
    124c:	00000091 	muleq	r0, r1, r0
    1250:	a35c0305 	cmpge	ip, #335544320	; 0x14000000
    1254:	a8300000 	ldmdage	r0!, {}	; <UNPREDICTABLE>
    1258:	01000000 	mrseq	r0, (UNDEF: 0)
    125c:	000025d5 	ldrdeq	r2, [r0], -r5
    1260:	60030500 	andvs	r0, r3, r0, lsl #10
    1264:	310000a3 	smlatbcc	r0, r3, r0, r0
    1268:	00000272 	andeq	r0, r0, r2, ror r2
    126c:	c5321e04 	ldrgt	r1, [r2, #-3588]!	; 0xe04
    1270:	04000005 	streq	r0, [r0], #-5
    1274:	00002529 	andeq	r2, r0, r9, lsr #10
    1278:	000bcc00 	andeq	ip, fp, r0, lsl #24
    127c:	00860900 	addeq	r0, r6, r0, lsl #18
    1280:	00330000 	eorseq	r0, r3, r0
    1284:	00008031 	andeq	r8, r0, r1, lsr r0
    1288:	31650400 	cmncc	r5, r0, lsl #8
    128c:	00000464 	andeq	r0, r0, r4, ror #8
    1290:	ff003605 			; <UNDEFINED> instruction: 0xff003605
    1294:	0400000e 	streq	r0, [r0], #-14
    1298:	0004f700 	andeq	pc, r4, r0, lsl #14
    129c:	f5010400 			; <UNDEFINED> instruction: 0xf5010400
    12a0:	01000000 	mrseq	r0, (UNDEF: 0)
    12a4:	0000048c 	andeq	r0, r0, ip, lsl #9
    12a8:	00000204 	andeq	r0, r0, r4, lsl #4
    12ac:	00008758 	andeq	r8, r0, r8, asr r7
    12b0:	00000784 	andeq	r0, r0, r4, lsl #15
    12b4:	00000375 	andeq	r0, r0, r5, ror r3
    12b8:	69050402 	stmdbvs	r5, {r1, sl}
    12bc:	0300746e 	movweq	r7, #1134	; 0x46e
    12c0:	016c0704 	cmneq	ip, r4, lsl #14
    12c4:	01030000 	mrseq	r0, (UNDEF: 3)
    12c8:	00007406 	andeq	r7, r0, r6, lsl #8
    12cc:	05020300 	streq	r0, [r2, #-768]	; 0x300
    12d0:	000000c0 	andeq	r0, r0, r0, asr #1
    12d4:	9c050403 	cfstrsls	mvf0, [r5], {3}
    12d8:	03000001 	movweq	r0, #1
    12dc:	01970508 	orrseq	r0, r7, r8, lsl #10
    12e0:	01030000 	mrseq	r0, (UNDEF: 3)
    12e4:	00007208 	andeq	r7, r0, r8, lsl #4
    12e8:	07020300 	streq	r0, [r2, -r0, lsl #6]
    12ec:	0000008d 	andeq	r0, r0, sp, lsl #1
    12f0:	0001ea04 	andeq	lr, r1, r4, lsl #20
    12f4:	68340600 	ldmdavs	r4!, {r9, sl}
    12f8:	03000000 	movweq	r0, #0
    12fc:	01670704 	cmneq	r7, r4, lsl #14
    1300:	08030000 	stmdaeq	r3, {}	; <UNPREDICTABLE>
    1304:	00016207 	andeq	r6, r1, r7, lsl #4
    1308:	07040300 	streq	r0, [r4, -r0, lsl #6]
    130c:	0000018e 	andeq	r0, r0, lr, lsl #3
    1310:	01030405 	tsteq	r3, r5, lsl #8
    1314:	00007b08 	andeq	r7, r0, r8, lsl #22
    1318:	8c040600 	stchi	6, cr0, [r4], {-0}
    131c:	07000000 	streq	r0, [r0, -r0]
    1320:	0000007f 	andeq	r0, r0, pc, ror r0
    1324:	00043504 	andeq	r3, r4, r4, lsl #10
    1328:	9c8a0200 	sfmls	f0, 4, [sl], {0}
    132c:	06000000 	streq	r0, [r0], -r0
    1330:	0000a204 	andeq	sl, r0, r4, lsl #4
    1334:	00b70800 	adcseq	r0, r7, r0, lsl #16
    1338:	b7090000 	strlt	r0, [r9, -r0]
    133c:	09000000 	stmdbeq	r0, {}	; <UNPREDICTABLE>
    1340:	0000005d 	andeq	r0, r0, sp, asr r0
    1344:	00005d09 	andeq	r5, r0, r9, lsl #26
    1348:	04060000 	streq	r0, [r6], #-0
    134c:	0000005d 	andeq	r0, r0, sp, asr r0
    1350:	0000ed0a 	andeq	lr, r0, sl, lsl #26
    1354:	0a073800 	beq	1cf35c <__bss_end__+0x1c4be4>
    1358:	0000016e 	andeq	r0, r0, lr, ror #2
    135c:	000a8c0b 	andeq	r8, sl, fp, lsl #24
    1360:	6e0f0700 	cdpvs	7, 0, cr0, cr15, cr0, {0}
    1364:	00000001 	andeq	r0, r0, r1
    1368:	0700410c 	streq	r4, [r0, -ip, lsl #2]
    136c:	00018612 	andeq	r8, r1, r2, lsl r6
    1370:	420c0400 	andmi	r0, ip, #0, 8
    1374:	9b130700 	blls	4c2f7c <__bss_end__+0x4b8804>
    1378:	08000001 	stmdaeq	r0, {r0}
    137c:	0001d20b 	andeq	sp, r1, fp, lsl #4
    1380:	86160700 	ldrhi	r0, [r6], -r0, lsl #14
    1384:	0c000001 	stceq	0, cr0, [r0], {1}
    1388:	0001e40b 	andeq	lr, r1, fp, lsl #8
    138c:	9b180700 	blls	602f94 <__bss_end__+0x5f881c>
    1390:	10000001 	andne	r0, r0, r1
    1394:	0001790b 	andeq	r7, r1, fp, lsl #18
    1398:	a11f0700 	tstge	pc, r0, lsl #14
    139c:	14000001 	strne	r0, [r0], #-1
    13a0:	0000610b 	andeq	r6, r0, fp, lsl #2
    13a4:	a1310700 	teqge	r1, r0, lsl #14
    13a8:	18000001 	stmdane	r0, {r0}
    13ac:	0000280b 	andeq	r2, r0, fp, lsl #16
    13b0:	a6360700 	ldrtge	r0, [r6], -r0, lsl #14
    13b4:	1c000001 	stcne	0, cr0, [r0], {1}
    13b8:	0001b00b 	andeq	fp, r1, fp
    13bc:	a63a0700 	ldrtge	r0, [sl], -r0, lsl #14
    13c0:	20000001 	andcs	r0, r0, r1
    13c4:	0001a50b 	andeq	sl, r1, fp, lsl #10
    13c8:	a13f0700 	teqge	pc, r0, lsl #14
    13cc:	24000001 	strcs	r0, [r0], #-1
    13d0:	0000160b 	andeq	r1, r0, fp, lsl #12
    13d4:	2c420700 	mcrrcs	7, 0, r0, r2, cr0
    13d8:	28000000 	stmdacs	r0, {}	; <UNPREDICTABLE>
    13dc:	0000a00b 	andeq	sl, r0, fp
    13e0:	2c430700 	mcrrcs	7, 0, r0, r3, cr0
    13e4:	2c000000 	stccs	0, cr0, [r0], {-0}
    13e8:	0000d70b 	andeq	sp, r0, fp, lsl #14
    13ec:	2c460700 	mcrrcs	7, 0, r0, r6, cr0
    13f0:	30000000 	andcc	r0, r0, r0
    13f4:	00026c0b 	andeq	r6, r2, fp, lsl #24
    13f8:	a6480700 	strbge	r0, [r8], -r0, lsl #14
    13fc:	34000001 	strcc	r0, [r0], #-1
    1400:	74040600 	strvc	r0, [r4], #-1536	; 0x600
    1404:	0d000001 	stceq	0, cr0, [r0, #-4]
    1408:	00018008 	andeq	r8, r1, r8
    140c:	01800900 	orreq	r0, r0, r0, lsl #18
    1410:	06000000 	streq	r0, [r0], -r0
    1414:	0000bd04 	andeq	fp, r0, r4, lsl #26
    1418:	75040600 	strvc	r0, [r4, #-1536]	; 0x600
    141c:	0e000001 	cdpeq	0, 0, cr0, cr0, cr1, {0}
    1420:	00000025 	andeq	r0, r0, r5, lsr #32
    1424:	0000019b 	muleq	r0, fp, r1
    1428:	00018009 	andeq	r8, r1, r9
    142c:	04060000 	streq	r0, [r6], #-0
    1430:	0000018c 	andeq	r0, r0, ip, lsl #3
    1434:	00002c0f 	andeq	r2, r0, pc, lsl #24
    1438:	005d0f00 	subseq	r0, sp, r0, lsl #30
    143c:	1e040000 	cdpne	0, 0, cr0, cr4, cr0, {0}
    1440:	07000000 	streq	r0, [r0, -r0]
    1444:	0000bd49 	andeq	fp, r0, r9, asr #26
    1448:	03811000 	orreq	r1, r1, #0
    144c:	a6020000 	strge	r0, [r2], -r0
    1450:	0000005d 	andeq	r0, r0, sp, asr r0
    1454:	0001d203 	andeq	sp, r1, r3, lsl #4
    1458:	65721100 	ldrbvs	r1, [r2, #-256]!	; 0x100
    145c:	a6020074 			; <UNDEFINED> instruction: 0xa6020074
    1460:	0000005d 	andeq	r0, r0, sp, asr r0
    1464:	05301000 	ldreq	r1, [r0, #-0]!
    1468:	07050000 	streq	r0, [r5, -r0]
    146c:	00000025 	andeq	r0, r0, r5, lsr #32
    1470:	0001ee03 	andeq	lr, r1, r3, lsl #28
    1474:	05491200 	strbeq	r1, [r9, #-512]	; 0x200
    1478:	07050000 	streq	r0, [r5, -r0]
    147c:	0000002c 	andeq	r0, r0, ip, lsr #32
    1480:	04b31000 	ldrteq	r1, [r3], #0
    1484:	26030000 	strcs	r0, [r3], -r0
    1488:	0000005d 	andeq	r0, r0, sp, asr r0
    148c:	00020a03 	andeq	r0, r2, r3, lsl #20
    1490:	052b1300 	streq	r1, [fp, #-768]!	; 0x300
    1494:	27030000 	strcs	r0, [r3, -r0]
    1498:	0000005d 	andeq	r0, r0, sp, asr r0
    149c:	02ca1000 	sbceq	r1, sl, #0
    14a0:	a9020000 	stmdbge	r2, {}	; <UNPREDICTABLE>
    14a4:	0000002c 	andeq	r0, r0, ip, lsr #32
    14a8:	00022403 	andeq	r2, r2, r3, lsl #8
    14ac:	00721100 	rsbseq	r1, r2, r0, lsl #2
    14b0:	002caa02 	eoreq	sl, ip, r2, lsl #20
    14b4:	14000000 	strne	r0, [r0], #-0
    14b8:	0000046d 	andeq	r0, r0, sp, ror #8
    14bc:	87580b01 	ldrbhi	r0, [r8, -r1, lsl #22]
    14c0:	01ac0000 			; <UNDEFINED> instruction: 0x01ac0000
    14c4:	9c010000 	stcls	0, cr0, [r1], {-0}
    14c8:	00000465 	andeq	r0, r0, r5, ror #8
    14cc:	00054415 	andeq	r4, r5, r5, lsl r4
    14d0:	b70b0100 	strlt	r0, [fp, -r0, lsl #2]
    14d4:	e6000000 	str	r0, [r0], -r0
    14d8:	16000004 	strne	r0, [r0], -r4
    14dc:	01006370 	tsteq	r0, r0, ror r3
    14e0:	00005d0b 	andeq	r5, r0, fp, lsl #26
    14e4:	00050700 	andeq	r0, r5, r0, lsl #14
    14e8:	01b71500 			; <UNDEFINED> instruction: 0x01b71500
    14ec:	0b010000 	bleq	414f4 <__bss_end__+0x36d7c>
    14f0:	0000005d 	andeq	r0, r0, sp, asr r0
    14f4:	00000533 	andeq	r0, r0, r3, lsr r5
    14f8:	0000ca17 	andeq	ip, r0, r7, lsl sl
    14fc:	00047500 	andeq	r7, r4, r0, lsl #10
    1500:	f0030500 			; <UNDEFINED> instruction: 0xf0030500
    1504:	180000a0 	stmdane	r0, {r5, r7}
    1508:	10010063 	andne	r0, r1, r3, rrx
    150c:	0000047a 	andeq	r0, r0, sl, ror r4
    1510:	00000554 	andeq	r0, r0, r4, asr r5
    1514:	00020a19 	andeq	r0, r2, r9, lsl sl
    1518:	00878c00 	addeq	r8, r7, r0, lsl #24
    151c:	00000800 	andeq	r0, r0, r0, lsl #16
    1520:	c70d0100 	strgt	r0, [sp, -r0, lsl #2]
    1524:	1a000002 	bne	1534 <__code_start__-0x6acc>
    1528:	0000878c 	andeq	r8, r0, ip, lsl #15
    152c:	00000008 	andeq	r0, r0, r8
    1530:	00021a1b 	andeq	r1, r2, fp, lsl sl
    1534:	01b61c00 			; <UNDEFINED> instruction: 0x01b61c00
    1538:	878c0000 	strhi	r0, [ip, r0]
    153c:	00040000 	andeq	r0, r4, r0
    1540:	aa020000 	bge	81548 <__bss_end__+0x76dd0>
    1544:	00878c1a 	addeq	r8, r7, sl, lsl ip
    1548:	00000400 	andeq	r0, r0, r0, lsl #8
    154c:	01c61d00 	biceq	r1, r6, r0, lsl #26
    1550:	05670000 	strbeq	r0, [r7, #-0]!
    1554:	00000000 	andeq	r0, r0, r0
    1558:	8c1e0000 	ldchi	0, cr0, [lr], {-0}
    155c:	84000087 	strhi	r0, [r0], #-135	; 0x87
    1560:	fc00000e 	stc2	0, cr0, [r0], {14}
    1564:	1f000002 	svcne	0x00000002
    1568:	3c015301 	stccc	3, cr5, [r1], {1}
    156c:	0552011f 	ldrbeq	r0, [r2, #-287]	; 0x11f
    1570:	00a0f003 	adceq	pc, r0, r3
    1574:	51011f00 	tstpl	r1, r0, lsl #30
    1578:	9e0c0305 	cdpls	3, 0, cr0, cr12, cr5, {0}
    157c:	011f0000 	tsteq	pc, r0
    1580:	ec030550 	cfstr32	mvfx0, [r3], {80}	; 0x50
    1584:	1f00009d 	svcne	0x0000009d
    1588:	02007d02 	andeq	r7, r0, #2, 26	; 0x80
    158c:	20000075 	andcs	r0, r0, r5, ror r0
    1590:	000087a0 	andeq	r8, r0, r0, lsr #15
    1594:	00000e9a 	muleq	r0, sl, lr
    1598:	0087b41e 	addeq	fp, r7, lr, lsl r4
    159c:	000e8400 	andeq	r8, lr, r0, lsl #8
    15a0:	00033300 	andeq	r3, r3, r0, lsl #6
    15a4:	53011f00 	movwpl	r1, #7936	; 0x1f00
    15a8:	011f3e01 	tsteq	pc, r1, lsl #28
    15ac:	f0030552 			; <UNDEFINED> instruction: 0xf0030552
    15b0:	1f0000a0 	svcne	0x000000a0
    15b4:	03055101 	movweq	r5, #20737	; 0x5101
    15b8:	00009e0c 	andeq	r9, r0, ip, lsl #28
    15bc:	0550011f 	ldrbeq	r0, [r0, #-287]	; 0x11f
    15c0:	009cf803 	addseq	pc, ip, r3, lsl #16
    15c4:	b8200000 	stmdalt	r0!, {}	; <UNPREDICTABLE>
    15c8:	a1000087 	smlabbge	r0, r7, r0, r0
    15cc:	1e00000e 	cdpne	0, 0, cr0, cr0, cr14, {0}
    15d0:	000087e0 	andeq	r8, r0, r0, ror #15
    15d4:	00000e84 	andeq	r0, r0, r4, lsl #29
    15d8:	00000359 	andeq	r0, r0, r9, asr r3
    15dc:	0251011f 	subseq	r0, r1, #-1073741817	; 0xc0000007
    15e0:	011f0075 	tsteq	pc, r5, ror r0	; <UNPREDICTABLE>
    15e4:	20030550 	andcs	r0, r3, r0, asr r5
    15e8:	0000009e 	muleq	r0, lr, r0
    15ec:	0087ec21 	addeq	lr, r7, r1, lsr #24
    15f0:	00036900 	andeq	r6, r3, r0, lsl #18
    15f4:	50011f00 	andpl	r1, r1, r0, lsl #30
    15f8:	00007402 	andeq	r7, r0, r2, lsl #8
    15fc:	0087fc1e 	addeq	pc, r7, lr, lsl ip	; <UNPREDICTABLE>
    1600:	000ea800 	andeq	sl, lr, r0, lsl #16
    1604:	00037d00 	andeq	r7, r3, r0, lsl #26
    1608:	50011f00 	andpl	r1, r1, r0, lsl #30
    160c:	00007502 	andeq	r7, r0, r2, lsl #10
    1610:	00881c1e 	addeq	r1, r8, lr, lsl ip
    1614:	000e8400 	andeq	r8, lr, r0, lsl #8
    1618:	00039400 	andeq	r9, r3, r0, lsl #8
    161c:	50011f00 	andpl	r1, r1, r0, lsl #30
    1620:	9e400305 	cdpls	3, 4, cr0, cr0, cr5, {0}
    1624:	20000000 	andcs	r0, r0, r0
    1628:	00008840 	andeq	r8, r0, r0, asr #16
    162c:	00000e9a 	muleq	r0, sl, lr
    1630:	00885c1e 	addeq	r5, r8, lr, lsl ip
    1634:	000e8400 	andeq	r8, lr, r0, lsl #8
    1638:	0003d600 	andeq	sp, r3, r0, lsl #12
    163c:	53011f00 	movwpl	r1, #7936	; 0x1f00
    1640:	1f230802 	svcne	0x00230802
    1644:	03055201 	movweq	r5, #20993	; 0x5201
    1648:	0000a0f0 	strdeq	sl, [r0], -r0
    164c:	0551011f 	ldrbeq	r0, [r1, #-287]	; 0x11f
    1650:	009e0c03 	addseq	r0, lr, r3, lsl #24
    1654:	50011f00 	andpl	r1, r1, r0, lsl #30
    1658:	9b400305 	blls	1002274 <__bss_end__+0xff7afc>
    165c:	021f0000 	andseq	r0, pc, #0
    1660:	0305007d 	movweq	r0, #20605	; 0x507d
    1664:	00009e68 	andeq	r9, r0, r8, ror #28
    1668:	88602000 	stmdahi	r0!, {sp}^
    166c:	0ea10000 	cdpeq	0, 10, cr0, cr1, cr0, {0}
    1670:	941e0000 	ldrls	r0, [lr], #-0
    1674:	84000088 	strhi	r0, [r0], #-136	; 0x88
    1678:	1500000e 	strne	r0, [r0, #-14]
    167c:	1f000004 	svcne	0x00000004
    1680:	08025301 	stmdaeq	r2, {r0, r8, r9, ip, lr}
    1684:	52011f26 	andpl	r1, r1, #38, 30	; 0x98
    1688:	a0f00305 	rscsge	r0, r0, r5, lsl #6
    168c:	011f0000 	tsteq	pc, r0
    1690:	0c030551 	cfstr32eq	mvfx0, [r3], {81}	; 0x51
    1694:	1f00009e 	svcne	0x0000009e
    1698:	03055001 	movweq	r5, #20481	; 0x5001
    169c:	00009e8c 	andeq	r9, r0, ip, lsl #29
    16a0:	007d021f 	rsbseq	r0, sp, pc, lsl r2
    16a4:	00007502 	andeq	r7, r0, r2, lsl #10
    16a8:	0088a01e 	addeq	sl, r8, lr, lsl r0
    16ac:	000eb900 	andeq	fp, lr, r0, lsl #18
    16b0:	00043200 	andeq	r3, r4, r0, lsl #4
    16b4:	51011f00 	tstpl	r1, r0, lsl #30
    16b8:	87580305 	ldrbhi	r0, [r8, -r5, lsl #6]
    16bc:	011f0000 	tsteq	pc, r0
    16c0:	00750250 	rsbseq	r0, r5, r0, asr r2
    16c4:	88c82200 	stmiahi	r8, {r9, sp}^
    16c8:	0e840000 	cdpeq	0, 8, cr0, cr4, cr0, {0}
    16cc:	011f0000 	tsteq	pc, r0
    16d0:	28080253 	stmdacs	r8, {r0, r1, r4, r6, r9}
    16d4:	0552011f 	ldrbeq	r0, [r2, #-287]	; 0x11f
    16d8:	00a0f003 	adceq	pc, r0, r3
    16dc:	51011f00 	tstpl	r1, r0, lsl #30
    16e0:	9e0c0305 	cdpls	3, 0, cr0, cr12, cr5, {0}
    16e4:	011f0000 	tsteq	pc, r0
    16e8:	b4030550 	strlt	r0, [r3], #-1360	; 0x550
    16ec:	1f00009e 	svcne	0x0000009e
    16f0:	02007d02 	andeq	r7, r0, #2, 26	; 0x80
    16f4:	00000075 	andeq	r0, r0, r5, ror r0
    16f8:	00007f23 	andeq	r7, r0, r3, lsr #30
    16fc:	00047500 	andeq	r7, r4, r0, lsl #10
    1700:	00762400 	rsbseq	r2, r6, r0, lsl #8
    1704:	00130000 	andseq	r0, r3, r0
    1708:	00046507 	andeq	r6, r4, r7, lsl #10
    170c:	ab040600 	blge	102f14 <__bss_end__+0xf879c>
    1710:	10000001 	andne	r0, r0, r1
    1714:	000004f5 	strdeq	r0, [r0], -r5
    1718:	005d1405 	subseq	r1, sp, r5, lsl #8
    171c:	b4030000 	strlt	r0, [r3], #-0
    1720:	12000004 	andne	r0, r0, #4
    1724:	0000052b 	andeq	r0, r0, fp, lsr #10
    1728:	005d1405 	subseq	r1, sp, r5, lsl #8
    172c:	49120000 	ldmdbmi	r2, {}	; <UNPREDICTABLE>
    1730:	05000005 	streq	r0, [r0, #-5]
    1734:	00002c14 	andeq	r2, r0, r4, lsl ip
    1738:	00ca2500 	sbceq	r2, sl, r0, lsl #10
    173c:	04c40000 	strbeq	r0, [r4], #0
    1740:	04f50000 	ldrbteq	r0, [r5], #0
    1744:	23000000 	movwcs	r0, #0
    1748:	0000007f 	andeq	r0, r0, pc, ror r0
    174c:	000004c4 	andeq	r0, r0, r4, asr #9
    1750:	00007624 	andeq	r7, r0, r4, lsr #12
    1754:	07000800 	streq	r0, [r0, -r0, lsl #16]
    1758:	000004b4 			; <UNDEFINED> instruction: 0x000004b4
    175c:	0004d110 	andeq	sp, r4, r0, lsl r1
    1760:	5d250400 	cfstrspl	mvf0, [r5, #-0]
    1764:	03000000 	movweq	r0, #0
    1768:	00000518 	andeq	r0, r0, r8, lsl r5
    176c:	04007826 	streq	r7, [r0], #-2086	; 0x826
    1770:	00005d25 	andeq	r5, r0, r5, lsr #26
    1774:	626c2600 	rsbvs	r2, ip, #0, 12
    1778:	2c250400 	cfstrscs	mvf0, [r5], #-0
    177c:	26000000 	strcs	r0, [r0], -r0
    1780:	04006275 	streq	r6, [r0], #-629	; 0x275
    1784:	00002c25 	andeq	r2, r0, r5, lsr #24
    1788:	00ca2500 	sbceq	r2, sl, r0, lsl #10
    178c:	05180000 	ldreq	r0, [r8, #-0]
    1790:	04d10000 	ldrbeq	r0, [r1], #0
    1794:	6e110000 	cdpvs	0, 1, cr0, cr1, cr0, {0}
    1798:	2c280400 	cfstrscs	mvf0, [r8], #-0
    179c:	13000000 	movwne	r0, #0
    17a0:	000004cc 	andeq	r0, r0, ip, asr #9
    17a4:	002c2a04 	eoreq	r2, ip, r4, lsl #20
    17a8:	07000000 	streq	r0, [r0, -r0]
    17ac:	000004b4 			; <UNDEFINED> instruction: 0x000004b4
    17b0:	0004ec10 	andeq	lr, r4, r0, lsl ip
    17b4:	86180500 	ldrhi	r0, [r8], -r0, lsl #10
    17b8:	03000000 	movweq	r0, #0
    17bc:	00000546 	andeq	r0, r0, r6, asr #10
    17c0:	00052b12 	andeq	r2, r5, r2, lsl fp
    17c4:	5d180500 	cfldr32pl	mvfx0, [r8, #-0]
    17c8:	25000000 	strcs	r0, [r0, #-0]
    17cc:	000000ca 	andeq	r0, r0, sl, asr #1
    17d0:	00000546 	andeq	r0, r0, r6, asr #10
    17d4:	000004ec 	andeq	r0, r0, ip, ror #9
    17d8:	04b40700 	ldrteq	r0, [r4], #1792	; 0x700
    17dc:	3b100000 	blcc	4017e4 <__bss_end__+0x3f706c>
    17e0:	05000005 	streq	r0, [r0, #-5]
    17e4:	00005d0f 	andeq	r5, r0, pc, lsl #26
    17e8:	057f0300 	ldrbeq	r0, [pc, #-768]!	; 14f0 <__code_start__-0x6b10>
    17ec:	2b120000 	blcs	4817f4 <__bss_end__+0x47707c>
    17f0:	05000005 	streq	r0, [r0, #-5]
    17f4:	00005d0f 	andeq	r5, r0, pc, lsl #26
    17f8:	05491300 	strbeq	r1, [r9, #-768]	; 0x300
    17fc:	10050000 	andne	r0, r5, r0
    1800:	0000002c 	andeq	r0, r0, ip, lsr #32
    1804:	0000ca25 	andeq	ip, r0, r5, lsr #20
    1808:	00057f00 	andeq	r7, r5, r0, lsl #30
    180c:	00053b00 	andeq	r3, r5, r0, lsl #22
    1810:	b4070000 	strlt	r0, [r7], #-0
    1814:	10000004 	andne	r0, r0, r4
    1818:	00000518 	andeq	r0, r0, r8, lsl r5
    181c:	005d1c04 	subseq	r1, sp, r4, lsl #24
    1820:	c8030000 	stmdagt	r3, {}	; <UNPREDICTABLE>
    1824:	26000005 	strcs	r0, [r0], -r5
    1828:	1c040078 	stcne	0, cr0, [r4], {120}	; 0x78
    182c:	0000005d 	andeq	r0, r0, sp, asr r0
    1830:	00626c26 	rsbeq	r6, r2, r6, lsr #24
    1834:	002c1c04 	eoreq	r1, ip, r4, lsl #24
    1838:	75260000 	strvc	r0, [r6, #-0]!
    183c:	1c040062 	stcne	0, cr0, [r4], {98}	; 0x62
    1840:	0000002c 	andeq	r0, r0, ip, lsr #32
    1844:	0000ca25 	andeq	ip, r0, r5, lsr #20
    1848:	0005c800 	andeq	ip, r5, r0, lsl #16
    184c:	00051800 	andeq	r1, r5, r0, lsl #16
    1850:	006e1100 	rsbeq	r1, lr, r0, lsl #2
    1854:	002c1f04 	eoreq	r1, ip, r4, lsl #30
    1858:	07000000 	streq	r0, [r0, -r0]
    185c:	000004b4 			; <UNDEFINED> instruction: 0x000004b4
    1860:	0004da27 	andeq	sp, r4, r7, lsr #20
    1864:	2c2b0100 	stfcss	f0, [fp], #-0
    1868:	04000000 	streq	r0, [r0], #-0
    186c:	e0000089 	and	r0, r0, r9, lsl #1
    1870:	01000004 	tsteq	r0, r4
    1874:	000ce09c 	muleq	ip, ip, r0
    1878:	00631600 	rsbeq	r1, r3, r0, lsl #12
    187c:	047a2b01 	ldrbteq	r2, [sl], #-2817	; 0xb01
    1880:	057a0000 	ldrbeq	r0, [sl, #-0]!
    1884:	0f280000 	svceq	0x00280000
    1888:	01000005 	tsteq	r0, r5
    188c:	00005d2c 	andeq	r5, r0, ip, lsr #26
    1890:	13580100 	cmpne	r8, #0, 2
    1894:	00000521 	andeq	r0, r0, r1, lsr #10
    1898:	005d2d01 	subseq	r2, sp, r1, lsl #26
    189c:	ca170000 	bgt	5c18a4 <__bss_end__+0x5b712c>
    18a0:	f0000000 			; <UNDEFINED> instruction: 0xf0000000
    18a4:	0500000c 	streq	r0, [r0, #-12]
    18a8:	00a0dc03 	adceq	sp, r0, r3, lsl #24
    18ac:	01ee1900 	mvneq	r1, r0, lsl #18
    18b0:	89100000 	ldmdbhi	r0, {}	; <UNPREDICTABLE>
    18b4:	00040000 	andeq	r0, r4, r0
    18b8:	2c010000 	stccs	0, cr0, [r1], {-0}
    18bc:	00000641 	andeq	r0, r0, r1, asr #12
    18c0:	0089101a 	addeq	r1, r9, sl, lsl r0
    18c4:	00000400 	andeq	r0, r0, r0, lsl #8
    18c8:	01fe1d00 	mvnseq	r1, r0, lsl #26
    18cc:	05a60000 	streq	r0, [r6, #0]!
    18d0:	00000000 	andeq	r0, r0, r0
    18d4:	00048019 	andeq	r8, r4, r9, lsl r0
    18d8:	00891400 	addeq	r1, r9, r0, lsl #8
    18dc:	00000800 	andeq	r0, r0, r0, lsl #16
    18e0:	bf2d0100 	svclt	0x002d0100
    18e4:	29000006 	stmdbcs	r0, {r1, r2}
    18e8:	0000049b 	muleq	r0, fp, r4
    18ec:	04902a10 	ldreq	r2, [r0], #2576	; 0xa10
    18f0:	05a60000 	streq	r0, [r6, #0]!
    18f4:	141a0000 	ldrne	r0, [sl], #-0
    18f8:	08000089 	stmdaeq	r0, {r0, r3, r7}
    18fc:	2b000000 	blcs	1904 <__code_start__-0x66fc>
    1900:	000004a6 	andeq	r0, r0, r6, lsr #9
    1904:	a1040305 	tstge	r4, r5, lsl #6
    1908:	c91c0000 	ldmdbgt	ip, {}	; <UNPREDICTABLE>
    190c:	14000004 	strne	r0, [r0], #-4
    1910:	04000089 	streq	r0, [r0], #-137	; 0x89
    1914:	05000000 	streq	r0, [r0, #-0]
    1918:	04ec2916 	strbteq	r2, [ip], #2326	; 0x916
    191c:	29040000 	stmdbcs	r4, {}	; <UNPREDICTABLE>
    1920:	000004e2 	andeq	r0, r0, r2, ror #9
    1924:	04d92a00 	ldrbeq	r2, [r9], #2560	; 0xa00
    1928:	05a60000 	streq	r0, [r6, #0]!
    192c:	141a0000 	ldrne	r0, [sl], #-0
    1930:	04000089 	streq	r0, [r0], #-137	; 0x89
    1934:	2c000000 	stccs	0, cr0, [r0], {-0}
    1938:	00000503 	andeq	r0, r0, r3, lsl #10
    193c:	050c2c05 	streq	r2, [ip, #-3077]	; 0xc05
    1940:	2b1f0000 	blcs	7c1948 <__bss_end__+0x7b71d0>
    1944:	000004f6 	strdeq	r0, [r0], -r6
    1948:	a1100305 	tstge	r0, r5, lsl #6
    194c:	00000000 	andeq	r0, r0, r0
    1950:	1d190000 	ldcne	0, cr0, [r9, #-0]
    1954:	18000005 	stmdane	r0, {r0, r2}
    1958:	1000008a 	andne	r0, r0, sl, lsl #1
    195c:	01000001 	tsteq	r0, r1
    1960:	00081753 	andeq	r1, r8, r3, asr r7
    1964:	052d2a00 	streq	r2, [sp, #-2560]!	; 0xa00
    1968:	05b90000 	ldreq	r0, [r9, #0]!
    196c:	181a0000 	ldmdane	sl, {}	; <UNPREDICTABLE>
    1970:	1000008a 	andne	r0, r0, sl, lsl #1
    1974:	2b000001 	blcs	1980 <__code_start__-0x6680>
    1978:	00000538 	andeq	r0, r0, r8, lsr r5
    197c:	a11c0305 	tstge	ip, r5, lsl #6
    1980:	4b190000 	blmi	641988 <__bss_end__+0x637210>
    1984:	18000005 	stmdane	r0, {r0, r2}
    1988:	6c00008a 	stcvs	0, cr0, [r0], {138}	; 0x8a
    198c:	05000000 	streq	r0, [r0, #-0]
    1990:	0007cd19 	andeq	ip, r7, r9, lsl sp
    1994:	055b2a00 	ldrbeq	r2, [fp, #-2560]	; 0xa00
    1998:	05b90000 	ldreq	r0, [r9, #0]!
    199c:	181a0000 	ldmdane	sl, {}	; <UNPREDICTABLE>
    19a0:	6c00008a 	stcvs	0, cr0, [r0], {138}	; 0x8a
    19a4:	1b000000 	blne	19ac <__code_start__-0x6654>
    19a8:	00000566 	andeq	r0, r0, r6, ror #10
    19ac:	0005712b 	andeq	r7, r5, fp, lsr #2
    19b0:	28030500 	stmdacs	r3, {r8, sl}
    19b4:	190000a1 	stmdbne	r0, {r0, r5, r7}
    19b8:	00000584 	andeq	r0, r0, r4, lsl #11
    19bc:	00008a18 	andeq	r8, r0, r8, lsl sl
    19c0:	00000004 	andeq	r0, r0, r4
    19c4:	07681005 	strbeq	r1, [r8, -r5]!
    19c8:	a7290000 	strge	r0, [r9, -r0]!
    19cc:	04000005 	streq	r0, [r0], #-5
    19d0:	00059d29 	andeq	r9, r5, r9, lsr #26
    19d4:	942a0000 	strtls	r0, [sl], #-0
    19d8:	b9000005 	stmdblt	r0, {r0, r2}
    19dc:	1a000005 	bne	19f8 <__code_start__-0x6608>
    19e0:	00008a18 	andeq	r8, r0, r8, lsl sl
    19e4:	00000004 	andeq	r0, r0, r4
    19e8:	0005be2c 	andeq	fp, r5, ip, lsr #28
    19ec:	b12b0500 	teqlt	fp, r0, lsl #10
    19f0:	05000005 	streq	r0, [r0, #-5]
    19f4:	00a13403 	adceq	r3, r1, r3, lsl #8
    19f8:	19000000 	stmdbne	r0, {}	; <UNPREDICTABLE>
    19fc:	000001d2 	ldrdeq	r0, [r0], -r2
    1a00:	00008a1c 	andeq	r8, r0, ip, lsl sl
    1a04:	0000003c 	andeq	r0, r0, ip, lsr r0
    1a08:	07811105 	streq	r1, [r1, r5, lsl #2]
    1a0c:	e22d0000 	eor	r0, sp, #0
    1a10:	00000001 	andeq	r0, r0, r1
    1a14:	008a6420 	addeq	r6, sl, r0, lsr #8
    1a18:	000e9a00 	andeq	r9, lr, r0, lsl #20
    1a1c:	8a801e00 	bhi	fe009224 <__bss_end__+0xfdffeaac>
    1a20:	0e840000 	cdpeq	0, 8, cr0, cr4, cr0, {0}
    1a24:	07c20000 	strbeq	r0, [r2, r0]
    1a28:	011f0000 	tsteq	pc, r0
    1a2c:	1f410153 	svcne	0x00410153
    1a30:	03055201 	movweq	r5, #20993	; 0x5201
    1a34:	0000a128 	andeq	sl, r0, r8, lsr #2
    1a38:	0551011f 	ldrbeq	r0, [r1, #-287]	; 0x11f
    1a3c:	009fe803 	addseq	lr, pc, r3, lsl #16
    1a40:	50011f00 	andpl	r1, r1, r0, lsl #30
    1a44:	9b400305 	blls	1002660 <__bss_end__+0xff7ee8>
    1a48:	021f0000 	andseq	r0, pc, #0
    1a4c:	0305007d 	movweq	r0, #20605	; 0x507d
    1a50:	00009ff4 	strdeq	r9, [r0], -r4
    1a54:	8a842000 	bhi	fe109a5c <__bss_end__+0xfe0ff2e4>
    1a58:	0ea10000 	cdpeq	0, 10, cr0, cr1, cr0, {0}
    1a5c:	00000000 	andeq	r0, r0, r0
    1a60:	008b0020 	addeq	r0, fp, r0, lsr #32
    1a64:	000e9a00 	andeq	r9, lr, r0, lsl #20
    1a68:	8b181e00 	blhi	609270 <__bss_end__+0x5feaf8>
    1a6c:	0e840000 	cdpeq	0, 8, cr0, cr4, cr0, {0}
    1a70:	080c0000 	stmdaeq	ip, {}	; <UNPREDICTABLE>
    1a74:	011f0000 	tsteq	pc, r0
    1a78:	21080253 	tstcs	r8, r3, asr r2
    1a7c:	0552011f 	ldrbeq	r0, [r2, #-287]	; 0x11f
    1a80:	00a11c03 	adceq	r1, r1, r3, lsl #24
    1a84:	51011f00 	tstpl	r1, r0, lsl #30
    1a88:	9fe80305 	svcls	0x00e80305
    1a8c:	011f0000 	tsteq	pc, r0
    1a90:	08030550 	stmdaeq	r3, {r4, r6, r8, sl}
    1a94:	1f0000a0 	svcne	0x000000a0
    1a98:	02007d02 	andeq	r7, r0, #2, 26	; 0x80
    1a9c:	20000078 	andcs	r0, r0, r8, ror r0
    1aa0:	00008b1c 	andeq	r8, r0, ip, lsl fp
    1aa4:	00000ea1 	andeq	r0, r0, r1, lsr #29
    1aa8:	ee190000 	cdp	0, 1, cr0, cr9, cr0, {0}
    1aac:	34000001 	strcc	r0, [r0], #-1
    1ab0:	0400008b 	streq	r0, [r0], #-139	; 0x8b
    1ab4:	01000000 	mrseq	r0, (UNDEF: 0)
    1ab8:	00083e54 	andeq	r3, r8, r4, asr lr
    1abc:	8b341a00 	blhi	d082c4 <__bss_end__+0xcfdb4c>
    1ac0:	00040000 	andeq	r0, r4, r0
    1ac4:	fe1d0000 	cdp2	0, 1, cr0, cr13, cr0, {0}
    1ac8:	cc000001 	stcgt	0, cr0, [r0], {1}
    1acc:	00000005 	andeq	r0, r0, r5
    1ad0:	051d1900 	ldreq	r1, [sp, #-2304]	; 0x900
    1ad4:	8b380000 	blhi	e01adc <__bss_end__+0xdf7364>
    1ad8:	01100000 	tsteq	r0, r0
    1adc:	54010000 	strpl	r0, [r1], #-0
    1ae0:	00000996 	muleq	r0, r6, r9
    1ae4:	00052d2a 	andeq	r2, r5, sl, lsr #26
    1ae8:	0005cc00 	andeq	ip, r5, r0, lsl #24
    1aec:	8b381a00 	blhi	e082f4 <__bss_end__+0xdfdb7c>
    1af0:	01100000 	tsteq	r0, r0
    1af4:	382b0000 	stmdacc	fp!, {}	; <UNPREDICTABLE>
    1af8:	05000005 	streq	r0, [r0, #-5]
    1afc:	00a11c03 	adceq	r1, r1, r3, lsl #24
    1b00:	054b1900 	strbeq	r1, [fp, #-2304]	; 0x900
    1b04:	8b380000 	blhi	e01b0c <__bss_end__+0xdf7394>
    1b08:	006c0000 	rsbeq	r0, ip, r0
    1b0c:	19050000 	stmdbne	r5, {}	; <UNPREDICTABLE>
    1b10:	0000094c 	andeq	r0, r0, ip, asr #18
    1b14:	00055b2a 	andeq	r5, r5, sl, lsr #22
    1b18:	0005cc00 	andeq	ip, r5, r0, lsl #24
    1b1c:	8b381a00 	blhi	e08324 <__bss_end__+0xdfdbac>
    1b20:	006c0000 	rsbeq	r0, ip, r0
    1b24:	661b0000 	ldrvs	r0, [fp], -r0
    1b28:	2b000005 	blcs	1b44 <__code_start__-0x64bc>
    1b2c:	00000571 	andeq	r0, r0, r1, ror r5
    1b30:	a1280305 	teqge	r8, r5, lsl #6
    1b34:	84190000 	ldrhi	r0, [r9], #-0
    1b38:	38000005 	stmdacc	r0, {r0, r2}
    1b3c:	0400008b 	streq	r0, [r0], #-139	; 0x8b
    1b40:	05000000 	streq	r0, [r0, #-0]
    1b44:	0008e710 	andeq	lr, r8, r0, lsl r7
    1b48:	05a72900 	streq	r2, [r7, #2304]!	; 0x900
    1b4c:	29040000 	stmdbcs	r4, {}	; <UNPREDICTABLE>
    1b50:	0000059d 	muleq	r0, sp, r5
    1b54:	05942a00 	ldreq	r2, [r4, #2560]	; 0xa00
    1b58:	05cc0000 	strbeq	r0, [ip]
    1b5c:	381a0000 	ldmdacc	sl, {}	; <UNPREDICTABLE>
    1b60:	0400008b 	streq	r0, [r0], #-139	; 0x8b
    1b64:	2c000000 	stccs	0, cr0, [r0], {-0}
    1b68:	000005be 			; <UNDEFINED> instruction: 0x000005be
    1b6c:	05b12b05 	ldreq	r2, [r1, #2821]!	; 0xb05
    1b70:	03050000 	movweq	r0, #20480	; 0x5000
    1b74:	0000a134 	andeq	sl, r0, r4, lsr r1
    1b78:	d2190000 	andsle	r0, r9, #0
    1b7c:	3c000001 	stccc	0, cr0, [r0], {1}
    1b80:	3c00008b 	stccc	0, cr0, [r0], {139}	; 0x8b
    1b84:	05000000 	streq	r0, [r0, #-0]
    1b88:	00090011 	andeq	r0, r9, r1, lsl r0
    1b8c:	01e22d00 	mvneq	r2, r0, lsl #26
    1b90:	20000000 	andcs	r0, r0, r0
    1b94:	00008b84 	andeq	r8, r0, r4, lsl #23
    1b98:	00000e9a 	muleq	r0, sl, lr
    1b9c:	008ba01e 	addeq	sl, fp, lr, lsl r0
    1ba0:	000e8400 	andeq	r8, lr, r0, lsl #8
    1ba4:	00094100 	andeq	r4, r9, r0, lsl #2
    1ba8:	53011f00 	movwpl	r1, #7936	; 0x1f00
    1bac:	011f4101 	tsteq	pc, r1, lsl #2
    1bb0:	28030552 	stmdacs	r3, {r1, r4, r6, r8, sl}
    1bb4:	1f0000a1 	svcne	0x000000a1
    1bb8:	03055101 	movweq	r5, #20737	; 0x5101
    1bbc:	00009fe8 	andeq	r9, r0, r8, ror #31
    1bc0:	0550011f 	ldrbeq	r0, [r0, #-287]	; 0x11f
    1bc4:	009b4003 	addseq	r4, fp, r3
    1bc8:	7d021f00 	stcvc	15, cr1, [r2, #-0]
    1bcc:	f4030500 	vst3.8	{d0,d2,d4}, [r3], r0
    1bd0:	0000009f 	muleq	r0, pc, r0	; <UNPREDICTABLE>
    1bd4:	008ba420 	addeq	sl, fp, r0, lsr #8
    1bd8:	000ea100 	andeq	sl, lr, r0, lsl #2
    1bdc:	20000000 	andcs	r0, r0, r0
    1be0:	00008c20 	andeq	r8, r0, r0, lsr #24
    1be4:	00000e9a 	muleq	r0, sl, lr
    1be8:	008c381e 	addeq	r3, ip, lr, lsl r8
    1bec:	000e8400 	andeq	r8, lr, r0, lsl #8
    1bf0:	00098b00 	andeq	r8, r9, r0, lsl #22
    1bf4:	53011f00 	movwpl	r1, #7936	; 0x1f00
    1bf8:	1f210802 	svcne	0x00210802
    1bfc:	03055201 	movweq	r5, #20993	; 0x5201
    1c00:	0000a11c 	andeq	sl, r0, ip, lsl r1
    1c04:	0551011f 	ldrbeq	r0, [r1, #-287]	; 0x11f
    1c08:	009fe803 	addseq	lr, pc, r3, lsl #16
    1c0c:	50011f00 	andpl	r1, r1, r0, lsl #30
    1c10:	a0080305 	andge	r0, r8, r5, lsl #6
    1c14:	021f0000 	andseq	r0, pc, #0
    1c18:	7502007d 	strvc	r0, [r2, #-125]	; 0x7d
    1c1c:	3c200000 	stccc	0, cr0, [r0], #-0
    1c20:	a100008c 	smlabbge	r0, ip, r0, r0
    1c24:	0000000e 	andeq	r0, r0, lr
    1c28:	01ee1900 	mvneq	r1, r0, lsl #18
    1c2c:	8c480000 	marhi	acc0, r0, r8
    1c30:	00040000 	andeq	r0, r4, r0
    1c34:	54010000 	strpl	r0, [r1], #-0
    1c38:	000009b9 			; <UNDEFINED> instruction: 0x000009b9
    1c3c:	008c481a 	addeq	r4, ip, sl, lsl r8
    1c40:	00000400 	andeq	r0, r0, r0, lsl #8
    1c44:	01fe1b00 	mvnseq	r1, r0, lsl #22
    1c48:	00000000 	andeq	r0, r0, r0
    1c4c:	00054b19 	andeq	r4, r5, r9, lsl fp
    1c50:	008c5c00 	addeq	r5, ip, r0, lsl #24
    1c54:	00006c00 	andeq	r6, r0, r0, lsl #24
    1c58:	97580100 	ldrbls	r0, [r8, -r0, lsl #2]
    1c5c:	2a00000a 	bcs	1c8c <__code_start__-0x6374>
    1c60:	0000055b 	andeq	r0, r0, fp, asr r5
    1c64:	000005df 	ldrdeq	r0, [r0], -pc	; <UNPREDICTABLE>
    1c68:	008c5c1a 	addeq	r5, ip, sl, lsl ip
    1c6c:	00006c00 	andeq	r6, r0, r0, lsl #24
    1c70:	05661b00 	strbeq	r1, [r6, #-2816]!	; 0xb00
    1c74:	712b0000 	teqvc	fp, r0
    1c78:	05000005 	streq	r0, [r0, #-5]
    1c7c:	00a12803 	adceq	r2, r1, r3, lsl #16
    1c80:	05841900 	streq	r1, [r4, #2304]	; 0x900
    1c84:	8c5c0000 	mrahi	r0, ip, acc0
    1c88:	00040000 	andeq	r0, r4, r0
    1c8c:	10050000 	andne	r0, r5, r0
    1c90:	00000a32 	andeq	r0, r0, r2, lsr sl
    1c94:	0005a729 	andeq	sl, r5, r9, lsr #14
    1c98:	9d290400 	cfstrsls	mvf0, [r9, #-0]
    1c9c:	00000005 	andeq	r0, r0, r5
    1ca0:	0005942a 	andeq	r9, r5, sl, lsr #8
    1ca4:	0005df00 	andeq	sp, r5, r0, lsl #30
    1ca8:	8c5c1a00 	mrrchi	10, 0, r1, ip, cr0
    1cac:	00040000 	andeq	r0, r4, r0
    1cb0:	be2c0000 	cdplt	0, 2, cr0, cr12, cr0, {0}
    1cb4:	05000005 	streq	r0, [r0, #-5]
    1cb8:	0005b12b 	andeq	fp, r5, fp, lsr #2
    1cbc:	34030500 	strcc	r0, [r3], #-1280	; 0x500
    1cc0:	000000a1 	andeq	r0, r0, r1, lsr #1
    1cc4:	01d21900 	bicseq	r1, r2, r0, lsl #18
    1cc8:	8c600000 	stclhi	0, cr0, [r0], #-0
    1ccc:	003c0000 	eorseq	r0, ip, r0
    1cd0:	11050000 	mrsne	r0, (UNDEF: 5)
    1cd4:	00000a4b 	andeq	r0, r0, fp, asr #20
    1cd8:	0001e22d 	andeq	lr, r1, sp, lsr #4
    1cdc:	a8200000 	stmdage	r0!, {}	; <UNPREDICTABLE>
    1ce0:	9a00008c 	bls	1f18 <__code_start__-0x60e8>
    1ce4:	1e00000e 	cdpne	0, 0, cr0, cr0, cr14, {0}
    1ce8:	00008cc4 	andeq	r8, r0, r4, asr #25
    1cec:	00000e84 	andeq	r0, r0, r4, lsl #29
    1cf0:	00000a8c 	andeq	r0, r0, ip, lsl #21
    1cf4:	0153011f 	cmpeq	r3, pc, lsl r1
    1cf8:	52011f41 	andpl	r1, r1, #260	; 0x104
    1cfc:	a1280305 	teqge	r8, r5, lsl #6
    1d00:	011f0000 	tsteq	pc, r0
    1d04:	e8030551 	stmda	r3, {r0, r4, r6, r8, sl}
    1d08:	1f00009f 	svcne	0x0000009f
    1d0c:	03055001 	movweq	r5, #20481	; 0x5001
    1d10:	00009b40 	andeq	r9, r0, r0, asr #22
    1d14:	007d021f 	rsbseq	r0, sp, pc, lsl r2
    1d18:	9ff40305 	svcls	0x00f40305
    1d1c:	20000000 	andcs	r0, r0, r0
    1d20:	00008cc8 	andeq	r8, r0, r8, asr #25
    1d24:	00000ea1 	andeq	r0, r0, r1, lsr #29
    1d28:	ee190000 	cdp	0, 1, cr0, cr9, cr0, {0}
    1d2c:	c8000001 	stmdagt	r0, {r0}
    1d30:	0400008c 	streq	r0, [r0], #-140	; 0x8c
    1d34:	01000000 	mrseq	r0, (UNDEF: 0)
    1d38:	000abe58 	andeq	fp, sl, r8, asr lr
    1d3c:	8cc81a00 	vstmiahi	r8, {s3-s2}
    1d40:	00040000 	andeq	r0, r4, r0
    1d44:	fe1d0000 	cdp2	0, 1, cr0, cr13, cr0, {0}
    1d48:	f2000001 	vhadd.s8	d0, d0, d1
    1d4c:	00000005 	andeq	r0, r0, r5
    1d50:	054b1900 	strbeq	r1, [fp, #-2304]	; 0x900
    1d54:	8ccc0000 	stclhi	0, cr0, [ip], {0}
    1d58:	006c0000 	rsbeq	r0, ip, r0
    1d5c:	58010000 	stmdapl	r1, {}	; <UNPREDICTABLE>
    1d60:	00000b9c 	muleq	r0, ip, fp
    1d64:	00055b2a 	andeq	r5, r5, sl, lsr #22
    1d68:	0005f200 	andeq	pc, r5, r0, lsl #4
    1d6c:	8ccc1a00 	vstmiahi	ip, {s3-s2}
    1d70:	006c0000 	rsbeq	r0, ip, r0
    1d74:	661b0000 	ldrvs	r0, [fp], -r0
    1d78:	2b000005 	blcs	1d94 <__code_start__-0x626c>
    1d7c:	00000571 	andeq	r0, r0, r1, ror r5
    1d80:	a1280305 	teqge	r8, r5, lsl #6
    1d84:	84190000 	ldrhi	r0, [r9], #-0
    1d88:	cc000005 	stcgt	0, cr0, [r0], {5}
    1d8c:	0400008c 	streq	r0, [r0], #-140	; 0x8c
    1d90:	05000000 	streq	r0, [r0, #-0]
    1d94:	000b3710 	andeq	r3, fp, r0, lsl r7
    1d98:	05a72900 	streq	r2, [r7, #2304]!	; 0x900
    1d9c:	29040000 	stmdbcs	r4, {}	; <UNPREDICTABLE>
    1da0:	0000059d 	muleq	r0, sp, r5
    1da4:	05942a00 	ldreq	r2, [r4, #2560]	; 0xa00
    1da8:	05f20000 	ldrbeq	r0, [r2, #0]!
    1dac:	cc1a0000 	ldcgt	0, cr0, [sl], {-0}
    1db0:	0400008c 	streq	r0, [r0], #-140	; 0x8c
    1db4:	2c000000 	stccs	0, cr0, [r0], {-0}
    1db8:	000005be 			; <UNDEFINED> instruction: 0x000005be
    1dbc:	05b12b05 	ldreq	r2, [r1, #2821]!	; 0xb05
    1dc0:	03050000 	movweq	r0, #20480	; 0x5000
    1dc4:	0000a134 	andeq	sl, r0, r4, lsr r1
    1dc8:	d2190000 	andsle	r0, r9, #0
    1dcc:	d0000001 	andle	r0, r0, r1
    1dd0:	3c00008c 	stccc	0, cr0, [r0], {140}	; 0x8c
    1dd4:	05000000 	streq	r0, [r0, #-0]
    1dd8:	000b5011 	andeq	r5, fp, r1, lsl r0
    1ddc:	01e22d00 	mvneq	r2, r0, lsl #26
    1de0:	20000000 	andcs	r0, r0, r0
    1de4:	00008d18 	andeq	r8, r0, r8, lsl sp
    1de8:	00000e9a 	muleq	r0, sl, lr
    1dec:	008d341e 	addeq	r3, sp, lr, lsl r4
    1df0:	000e8400 	andeq	r8, lr, r0, lsl #8
    1df4:	000b9100 	andeq	r9, fp, r0, lsl #2
    1df8:	53011f00 	movwpl	r1, #7936	; 0x1f00
    1dfc:	011f4101 	tsteq	pc, r1, lsl #2
    1e00:	28030552 	stmdacs	r3, {r1, r4, r6, r8, sl}
    1e04:	1f0000a1 	svcne	0x000000a1
    1e08:	03055101 	movweq	r5, #20737	; 0x5101
    1e0c:	00009fe8 	andeq	r9, r0, r8, ror #31
    1e10:	0550011f 	ldrbeq	r0, [r0, #-287]	; 0x11f
    1e14:	009b4003 	addseq	r4, fp, r3
    1e18:	7d021f00 	stcvc	15, cr1, [r2, #-0]
    1e1c:	f4030500 	vst3.8	{d0,d2,d4}, [r3], r0
    1e20:	0000009f 	muleq	r0, pc, r0	; <UNPREDICTABLE>
    1e24:	008d3820 	addeq	r3, sp, r0, lsr #16
    1e28:	000ea100 	andeq	sl, lr, r0, lsl #2
    1e2c:	21000000 	mrscs	r0, (UNDEF: 0)
    1e30:	0000894c 	andeq	r8, r0, ip, asr #18
    1e34:	00000bac 	andeq	r0, r0, ip, lsr #23
    1e38:	0250011f 	subseq	r0, r0, #-1073741817	; 0xc0000007
    1e3c:	1e000074 	mcrne	0, 0, r0, cr0, cr4, {3}
    1e40:	00008974 	andeq	r8, r0, r4, ror r9
    1e44:	00000e84 	andeq	r0, r0, r4, lsl #29
    1e48:	00000bd2 	ldrdeq	r0, [r0], -r2
    1e4c:	0253011f 	subseq	r0, r3, #-1073741817	; 0xc0000007
    1e50:	011f3408 	tsteq	pc, r8, lsl #8
    1e54:	00790252 	rsbseq	r0, r9, r2, asr r2
    1e58:	0251011f 	subseq	r0, r1, #-1073741817	; 0xc0000007
    1e5c:	011f007a 	tsteq	pc, sl, ror r0	; <UNPREDICTABLE>
    1e60:	007b0250 	rsbseq	r0, fp, r0, asr r2
    1e64:	89801e00 	stmibhi	r0, {r9, sl, fp, ip}
    1e68:	0eb90000 	cdpeq	0, 11, cr0, cr9, cr0, {0}
    1e6c:	0beb0000 	bleq	ffac1e74 <__bss_end__+0xffab76fc>
    1e70:	011f0000 	tsteq	pc, r0
    1e74:	00750251 	rsbseq	r0, r5, r1, asr r2
    1e78:	0150011f 	cmpeq	r0, pc, lsl r1
    1e7c:	a81e0030 	ldmdage	lr, {r4, r5}
    1e80:	cf000089 	svcgt	0x00000089
    1e84:	0500000e 	streq	r0, [r0, #-14]
    1e88:	1f00000c 	svcne	0x0000000c
    1e8c:	74025201 	strvc	r5, [r2], #-513	; 0x201
    1e90:	50011f00 	andpl	r1, r1, r0, lsl #30
    1e94:	00007702 	andeq	r7, r0, r2, lsl #14
    1e98:	0089c021 	addeq	ip, r9, r1, lsr #32
    1e9c:	000c1500 	andeq	r1, ip, r0, lsl #10
    1ea0:	50011f00 	andpl	r1, r1, r0, lsl #30
    1ea4:	00007402 	andeq	r7, r0, r2, lsl #8
    1ea8:	0089cc21 	addeq	ip, r9, r1, lsr #24
    1eac:	000c2500 	andeq	r2, ip, r0, lsl #10
    1eb0:	50011f00 	andpl	r1, r1, r0, lsl #30
    1eb4:	00007402 	andeq	r7, r0, r2, lsl #8
    1eb8:	0089e41e 	addeq	lr, r9, lr, lsl r4
    1ebc:	000e8400 	andeq	r8, lr, r0, lsl #8
    1ec0:	000c3c00 	andeq	r3, ip, r0, lsl #24
    1ec4:	50011f00 	andpl	r1, r1, r0, lsl #30
    1ec8:	9f6c0305 	svcls	0x006c0305
    1ecc:	1e000000 	cdpne	0, 0, cr0, cr0, cr0, {0}
    1ed0:	00008a18 	andeq	r8, r0, r8, lsl sl
    1ed4:	00000e84 	andeq	r0, r0, r4, lsl #29
    1ed8:	00000c53 	andeq	r0, r0, r3, asr ip
    1edc:	0550011f 	ldrbeq	r0, [r0, #-287]	; 0x11f
    1ee0:	009fb403 	addseq	fp, pc, r3, lsl #8
    1ee4:	341e0000 	ldrcc	r0, [lr], #-0
    1ee8:	8400008b 	strhi	r0, [r0], #-139	; 0x8b
    1eec:	7000000e 	andvc	r0, r0, lr
    1ef0:	1f00000c 	svcne	0x0000000c
    1ef4:	78025201 	stmdavc	r2, {r0, r9, ip, lr}
    1ef8:	50011f00 	andpl	r1, r1, r0, lsl #30
    1efc:	a02c0305 	eorge	r0, ip, r5, lsl #6
    1f00:	1e000000 	cdpne	0, 0, cr0, cr0, cr0, {0}
    1f04:	00008c54 	andeq	r8, r0, r4, asr ip
    1f08:	00000e84 	andeq	r0, r0, r4, lsl #29
    1f0c:	00000c87 	andeq	r0, r0, r7, lsl #25
    1f10:	0550011f 	ldrbeq	r0, [r0, #-287]	; 0x11f
    1f14:	00a04803 	adceq	r4, r0, r3, lsl #16
    1f18:	5c1e0000 	ldcpl	0, cr0, [lr], {-0}
    1f1c:	a800008c 	stmdage	r0, {r2, r3, r7}
    1f20:	9a00000e 	bls	1f60 <__code_start__-0x60a0>
    1f24:	1f00000c 	svcne	0x0000000c
    1f28:	30015001 	andcc	r5, r1, r1
    1f2c:	8d442000 	stclhi	0, cr2, [r4, #-0]
    1f30:	0e9a0000 	cdpeq	0, 9, cr0, cr10, cr0, {0}
    1f34:	601e0000 	andsvs	r0, lr, r0
    1f38:	8400008d 	strhi	r0, [r0], #-141	; 0x8d
    1f3c:	d600000e 	strle	r0, [r0], -lr
    1f40:	1f00000c 	svcne	0x0000000c
    1f44:	08025301 	stmdaeq	r2, {r0, r8, r9, ip, lr}
    1f48:	52011f58 	andpl	r1, r1, #88, 30	; 0x160
    1f4c:	1f007902 	svcne	0x00007902
    1f50:	7a025101 	bvc	9635c <__bss_end__+0x8bbe4>
    1f54:	50011f00 	andpl	r1, r1, r0, lsl #30
    1f58:	9b400305 	blls	1002b74 <__bss_end__+0xff83fc>
    1f5c:	021f0000 	andseq	r0, pc, #0
    1f60:	0305007d 	movweq	r0, #20605	; 0x507d
    1f64:	0000a060 	andeq	sl, r0, r0, rrx
    1f68:	8d642000 	stclhi	0, cr2, [r4, #-0]
    1f6c:	0ea10000 	cdpeq	0, 10, cr0, cr1, cr0, {0}
    1f70:	23000000 	movwcs	r0, #0
    1f74:	0000007f 	andeq	r0, r0, pc, ror r0
    1f78:	00000cf0 	strdeq	r0, [r0], -r0	; <UNPREDICTABLE>
    1f7c:	00007624 	andeq	r7, r0, r4, lsr #12
    1f80:	07001100 	streq	r1, [r0, -r0, lsl #2]
    1f84:	00000ce0 	andeq	r0, r0, r0, ror #25
    1f88:	0004fe27 	andeq	pc, r4, r7, lsr #28
    1f8c:	2c640100 	stfcse	f0, [r4], #-0
    1f90:	e4000000 	str	r0, [r0], #-0
    1f94:	8400008d 	strhi	r0, [r0], #-141	; 0x8d
    1f98:	01000000 	mrseq	r0, (UNDEF: 0)
    1f9c:	000db99c 	muleq	sp, ip, r9
    1fa0:	00631600 	rsbeq	r1, r3, r0, lsl #12
    1fa4:	047a6401 	ldrbteq	r6, [sl], #-1025	; 0x401
    1fa8:	06050000 	streq	r0, [r5], -r0
    1fac:	69180000 	ldmdbvs	r8, {}	; <UNPREDICTABLE>
    1fb0:	2c670100 	stfcse	f0, [r7], #-0
    1fb4:	23000000 	movwcs	r0, #0
    1fb8:	17000006 	strne	r0, [r0, -r6]
    1fbc:	000000ca 	andeq	r0, r0, sl, asr #1
    1fc0:	00000dc9 	andeq	r0, r0, r9, asr #27
    1fc4:	a0c80305 	sbcge	r0, r8, r5, lsl #6
    1fc8:	00210000 	eoreq	r0, r1, r0
    1fcc:	4700008e 	strmi	r0, [r0, -lr, lsl #1]
    1fd0:	1f00000d 	svcne	0x0000000d
    1fd4:	74025001 	strvc	r5, [r2], #-1
    1fd8:	0c210000 	stceq	0, cr0, [r1], #-0
    1fdc:	5700008e 	strpl	r0, [r0, -lr, lsl #1]
    1fe0:	1f00000d 	svcne	0x0000000d
    1fe4:	74025001 	strvc	r5, [r2], #-1
    1fe8:	18210000 	stmdane	r1!, {}	; <UNPREDICTABLE>
    1fec:	6700008e 	strvs	r0, [r0, -lr, lsl #1]
    1ff0:	1f00000d 	svcne	0x0000000d
    1ff4:	74025001 	strvc	r5, [r2], #-1
    1ff8:	24210000 	strtcs	r0, [r1], #-0
    1ffc:	7700008e 	strvc	r0, [r0, -lr, lsl #1]
    2000:	1f00000d 	svcne	0x0000000d
    2004:	74025001 	strvc	r5, [r2], #-1
    2008:	30200000 	eorcc	r0, r0, r0
    200c:	9a00008e 	bls	224c <__code_start__-0x5db4>
    2010:	1e00000e 	cdpne	0, 0, cr0, cr0, cr14, {0}
    2014:	00008e44 	andeq	r8, r0, r4, asr #28
    2018:	00000e84 	andeq	r0, r0, r4, lsl #29
    201c:	00000daf 	andeq	r0, r0, pc, lsr #27
    2020:	0253011f 	subseq	r0, r3, #-1073741817	; 0xc0000007
    2024:	011f6e08 	tsteq	pc, r8, lsl #28
    2028:	c8030552 	stmdagt	r3, {r1, r4, r6, r8, sl}
    202c:	1f0000a0 	svcne	0x000000a0
    2030:	03055101 	movweq	r5, #20737	; 0x5101
    2034:	00009e0c 	andeq	r9, r0, ip, lsl #28
    2038:	0550011f 	ldrbeq	r0, [r0, #-287]	; 0x11f
    203c:	00a08c03 	adceq	r8, r0, r3, lsl #24
    2040:	48200000 	stmdami	r0!, {}	; <UNPREDICTABLE>
    2044:	a100008e 	smlabbge	r0, lr, r0, r0
    2048:	0000000e 	andeq	r0, r0, lr
    204c:	00007f23 	andeq	r7, r0, r3, lsr #30
    2050:	000dc900 	andeq	ip, sp, r0, lsl #18
    2054:	00762400 	rsbseq	r2, r6, r0, lsl #8
    2058:	00100000 	andseq	r0, r0, r0
    205c:	000db907 	andeq	fp, sp, r7, lsl #18
    2060:	04811400 	streq	r1, [r1], #1024	; 0x400
    2064:	7d010000 	stcvc	0, cr0, [r1, #-0]
    2068:	00008e68 	andeq	r8, r0, r8, ror #28
    206c:	00000028 	andeq	r0, r0, r8, lsr #32
    2070:	0def9c01 	stcleq	12, cr9, [pc, #4]!	; 207c <__code_start__-0x5f84>
    2074:	632e0000 	teqvs	lr, #0
    2078:	7a7d0100 	bvc	1f42480 <__bss_end__+0x1f37d08>
    207c:	01000004 	tsteq	r0, r4
    2080:	e42f0050 	strt	r0, [pc], #-80	; 2088 <__code_start__-0x5f78>
    2084:	01000001 	tsteq	r0, r1
    2088:	00002588 	andeq	r2, r0, r8, lsl #11
    208c:	008e9000 	addeq	r9, lr, r0
    2090:	00004c00 	andeq	r4, r0, r0, lsl #24
    2094:	579c0100 	ldrpl	r0, [ip, r0, lsl #2]
    2098:	1600000e 	strne	r0, [r0], -lr
    209c:	88010063 	stmdahi	r1, {r0, r1, r5, r6}
    20a0:	0000047a 	andeq	r0, r0, sl, ror r4
    20a4:	00000642 	andeq	r0, r0, r2, asr #12
    20a8:	008e9c20 	addeq	r9, lr, r0, lsr #24
    20ac:	000efb00 	andeq	pc, lr, r0, lsl #22
    20b0:	8ea41e00 	cdphi	14, 10, cr1, cr4, cr0, {0}
    20b4:	0dce0000 	stcleq	0, cr0, [lr]
    20b8:	0e320000 	cdpeq	0, 3, cr0, cr2, cr0, {0}
    20bc:	011f0000 	tsteq	pc, r0
    20c0:	00740250 	rsbseq	r0, r4, r0, asr r2
    20c4:	8eac1e00 	cdphi	14, 10, cr1, cr12, cr0, {0}
    20c8:	0cf50000 	ldcleq	0, cr0, [r5]
    20cc:	0e460000 	cdpeq	0, 4, cr0, cr6, cr0, {0}
    20d0:	011f0000 	tsteq	pc, r0
    20d4:	00740250 	rsbseq	r0, r4, r0, asr r2
    20d8:	8ebc2200 	cdphi	2, 11, cr2, cr12, cr0, {0}
    20dc:	05cd0000 	strbeq	r0, [sp]
    20e0:	011f0000 	tsteq	pc, r0
    20e4:	00740250 	rsbseq	r0, r4, r0, asr r2
    20e8:	ed280000 	stc	0, cr0, [r8, #-0]
    20ec:	01000000 	mrseq	r0, (UNDEF: 0)
    20f0:	00047a06 	andeq	r7, r4, r6, lsl #20
    20f4:	6c030500 	cfstr32vs	mvfx0, [r3], {-0}
    20f8:	280000a3 	stmdacs	r0, {r0, r1, r5, r7}
    20fc:	000004bc 			; <UNDEFINED> instruction: 0x000004bc
    2100:	007d0801 	rsbseq	r0, sp, r1, lsl #16
    2104:	03050000 	movweq	r0, #20480	; 0x5000
    2108:	0000a370 	andeq	sl, r0, r0, ror r3
    210c:	0000a830 	andeq	sl, r0, r0, lsr r8
    2110:	25c20200 	strbcs	r0, [r2, #512]	; 0x200
    2114:	31000000 	mrscc	r0, (UNDEF: 0)
    2118:	000005c5 	andeq	r0, r0, r5, asr #11
    211c:	00252908 	eoreq	r2, r5, r8, lsl #18
    2120:	0e9a0000 	cdpeq	0, 9, cr0, cr10, cr0, {0}
    2124:	86090000 	strhi	r0, [r9], -r0
    2128:	32000000 	andcc	r0, r0, #0
    212c:	02723300 	rsbseq	r3, r2, #0, 6
    2130:	1e080000 	cdpne	0, 0, cr0, cr8, cr0, {0}
    2134:	00008033 	andeq	r8, r0, r3, lsr r0
    2138:	34650800 	strbtcc	r0, [r5], #-2048	; 0x800
    213c:	0000039b 	muleq	r0, fp, r3
    2140:	0eb9e302 	cdpeq	3, 11, cr14, cr9, cr2, {0}
    2144:	5d090000 	stcpl	0, cr0, [r9, #-0]
    2148:	00000000 	andeq	r0, r0, r0
    214c:	00035b34 	andeq	r5, r3, r4, lsr fp
    2150:	cfd90200 	svcgt	0x00d90200
    2154:	0900000e 	stmdbeq	r0, {r1, r2, r3}
    2158:	0000005d 	andeq	r0, r0, sp, asr r0
    215c:	00009109 	andeq	r9, r0, r9, lsl #2
    2160:	9f340000 	svcls	0x00340000
    2164:	02000004 	andeq	r0, r0, #4
    2168:	000eeaf3 	strdeq	lr, [lr], -r3
    216c:	005d0900 	subseq	r0, sp, r0, lsl #18
    2170:	ea090000 	b	242178 <__bss_end__+0x237a00>
    2174:	0900000e 	stmdbeq	r0, {r1, r2, r3}
    2178:	0000007d 	andeq	r0, r0, sp, ror r0
    217c:	f0040600 			; <UNDEFINED> instruction: 0xf0040600
    2180:	0800000e 	stmdaeq	r0, {r1, r2, r3}
    2184:	00000efb 	strdeq	r0, [r0], -fp
    2188:	00007d09 	andeq	r7, r0, r9, lsl #26
    218c:	e4330000 	ldrt	r0, [r3], #-0
    2190:	02000003 	andeq	r0, r0, #3
    2194:	01910090 			; <UNDEFINED> instruction: 0x01910090
    2198:	00040000 	andeq	r0, r4, r0
    219c:	00000792 	muleq	r0, r2, r7
    21a0:	056b0104 	strbeq	r0, [fp, #-260]!	; 0x104
    21a4:	5d010000 	stcpl	0, cr0, [r1, #-0]
    21a8:	d6000005 	strle	r0, [r0], -r5
    21ac:	dc000005 	stcle	0, cr0, [r0], {5}
    21b0:	5800008e 	stmdapl	r0, {r1, r2, r3, r7}
    21b4:	e0000000 	and	r0, r0, r0
    21b8:	02000005 	andeq	r0, r0, #5
    21bc:	0000054e 	andeq	r0, r0, lr, asr #10
    21c0:	00302802 	eorseq	r2, r0, r2, lsl #16
    21c4:	cc030000 	stcgt	0, cr0, [r3], {-0}
    21c8:	04000005 	streq	r0, [r0], #-5
    21cc:	00470003 	subeq	r0, r7, r3
    21d0:	1c040000 	stcne	0, cr0, [r4], {-0}
    21d4:	47000006 	strmi	r0, [r0, -r6]
    21d8:	00000000 	andeq	r0, r0, r0
    21dc:	02040500 	andeq	r0, r4, #0, 10
    21e0:	000005ce 	andeq	r0, r0, lr, asr #11
    21e4:	00256202 	eoreq	r6, r5, r2, lsl #4
    21e8:	04060000 	streq	r0, [r6], #-0
    21ec:	746e6905 	strbtvc	r6, [lr], #-2309	; 0x905
    21f0:	07040700 	streq	r0, [r4, -r0, lsl #14]
    21f4:	0000016c 	andeq	r0, r0, ip, ror #2
    21f8:	74060107 	strvc	r0, [r6], #-263	; 0x107
    21fc:	07000000 	streq	r0, [r0, -r0]
    2200:	00c00502 	sbceq	r0, r0, r2, lsl #10
    2204:	04070000 	streq	r0, [r7], #-0
    2208:	00019c05 	andeq	r9, r1, r5, lsl #24
    220c:	05080700 	streq	r0, [r8, #-1792]	; 0x700
    2210:	00000197 	muleq	r0, r7, r1
    2214:	72080107 	andvc	r0, r8, #-1073741823	; 0xc0000001
    2218:	07000000 	streq	r0, [r0, -r0]
    221c:	008d0702 	addeq	r0, sp, r2, lsl #14
    2220:	04070000 	streq	r0, [r7], #-0
    2224:	00016707 	andeq	r6, r1, r7, lsl #14
    2228:	07080700 	streq	r0, [r8, -r0, lsl #14]
    222c:	00000162 	andeq	r0, r0, r2, ror #2
    2230:	8e070407 	cdphi	4, 0, cr0, cr7, cr7, {0}
    2234:	08000001 	stmdaeq	r0, {r0}
    2238:	0000a704 	andeq	sl, r0, r4, lsl #14
    223c:	08010700 	stmdaeq	r1, {r8, r9, sl}
    2240:	0000007b 	andeq	r0, r0, fp, ror r0
    2244:	00b40408 	adcseq	r0, r4, r8, lsl #8
    2248:	a7090000 	strge	r0, [r9, -r0]
    224c:	0a000000 	beq	2254 <__code_start__-0x5dac>
    2250:	000005c5 	andeq	r0, r0, r5, asr #11
    2254:	00540601 	subseq	r0, r4, r1, lsl #12
    2258:	8edc0000 	cdphi	0, 13, cr0, cr12, cr0, {0}
    225c:	00580000 	subseq	r0, r8, r0
    2260:	9c010000 	stcls	0, cr0, [r1], {-0}
    2264:	00000143 	andeq	r0, r0, r3, asr #2
    2268:	746d660b 	strbtvc	r6, [sp], #-1547	; 0x60b
    226c:	ae060100 	adfges	f0, f6, f0
    2270:	02000000 	andeq	r0, r0, #0
    2274:	0d0c7091 	stceq	0, cr7, [ip, #-580]	; 0xfffffdbc
    2278:	00667562 	rsbeq	r7, r6, r2, ror #10
    227c:	01430801 	cmpeq	r3, r1, lsl #16
    2280:	03050000 	movweq	r0, #20480	; 0x5000
    2284:	0000a374 	andeq	sl, r0, r4, ror r3
    2288:	000ad80e 	andeq	sp, sl, lr, lsl #16
    228c:	49090100 	stmdbmi	r9, {r8}
    2290:	02000000 	andeq	r0, r0, #0
    2294:	730f5c91 	movwvc	r5, #64657	; 0xfc91
    2298:	0c01007a 	stceq	0, cr0, [r1], {122}	; 0x7a
    229c:	00000054 	andeq	r0, r0, r4, asr r0
    22a0:	00000660 	andeq	r0, r0, r0, ror #12
    22a4:	008f0410 	addeq	r0, pc, r0, lsl r4	; <UNPREDICTABLE>
    22a8:	00017400 	andeq	r7, r1, r0, lsl #8
    22ac:	00013600 	andeq	r3, r1, r0, lsl #12
    22b0:	53011100 	movwpl	r1, #4352	; 0x1100
    22b4:	114c9102 	cmpne	ip, r2, lsl #2
    22b8:	91035201 	tstls	r3, r1, lsl #4
    22bc:	01110648 	tsteq	r1, r8, asr #12
    22c0:	000a0351 	andeq	r0, sl, r1, asr r3
    22c4:	50011104 	andpl	r1, r1, r4, lsl #2
    22c8:	00007402 	andeq	r7, r0, r2, lsl #8
    22cc:	008f1812 	addeq	r1, pc, r2, lsl r8	; <UNPREDICTABLE>
    22d0:	50011100 	andpl	r1, r1, r0, lsl #2
    22d4:	00007402 	andeq	r7, r0, r2, lsl #8
    22d8:	00a71300 	adceq	r1, r7, r0, lsl #6
    22dc:	01540000 	cmpeq	r4, r0
    22e0:	9a140000 	bls	5022e8 <__bss_end__+0x4f7b70>
    22e4:	ff000000 			; <UNDEFINED> instruction: 0xff000000
    22e8:	54150003 	ldrpl	r0, [r5], #-3
    22ec:	63000000 	movwvs	r0, #0
    22f0:	16000001 	strne	r0, [r0], -r1
    22f4:	000000ae 	andeq	r0, r0, lr, lsr #1
    22f8:	06791700 	ldrbteq	r1, [r9], -r0, lsl #14
    22fc:	22040000 	andcs	r0, r4, #0
    2300:	0000016e 	andeq	r0, r0, lr, ror #2
    2304:	01540408 	cmpeq	r4, r8, lsl #8
    2308:	c2180000 	andsgt	r0, r8, #0
    230c:	05000005 	streq	r0, [r0, #-5]
    2310:	00005402 	andeq	r5, r0, r2, lsl #8
    2314:	00a11600 	adceq	r1, r1, r0, lsl #12
    2318:	54160000 	ldrpl	r0, [r6], #-0
    231c:	16000000 	strne	r0, [r0], -r0
    2320:	000000ae 	andeq	r0, r0, lr, lsr #1
    2324:	00004916 	andeq	r4, r0, r6, lsl r9
    2328:	13000000 	movwne	r0, #0
    232c:	04000001 	streq	r0, [r0], #-1
    2330:	0008c300 	andeq	ip, r8, r0, lsl #6
    2334:	6b010400 	blvs	4333c <__bss_end__+0x38bc4>
    2338:	01000005 	tsteq	r0, r5
    233c:	00000648 	andeq	r0, r0, r8, asr #12
    2340:	000005d6 	ldrdeq	r0, [r0], -r6
    2344:	00008f34 	andeq	r8, r0, r4, lsr pc
    2348:	0000003c 	andeq	r0, r0, ip, lsr r0
    234c:	000006f0 	strdeq	r0, [r0], -r0	; <UNPREDICTABLE>
    2350:	69050402 	stmdbvs	r5, {r1, sl}
    2354:	0300746e 	movweq	r7, #1134	; 0x46e
    2358:	016c0704 	cmneq	ip, r4, lsl #14
    235c:	01030000 	mrseq	r0, (UNDEF: 3)
    2360:	00007406 	andeq	r7, r0, r6, lsl #8
    2364:	05020300 	streq	r0, [r2, #-768]	; 0x300
    2368:	000000c0 	andeq	r0, r0, r0, asr #1
    236c:	9c050403 	cfstrsls	mvf0, [r5], {3}
    2370:	03000001 	movweq	r0, #1
    2374:	01970508 	orrseq	r0, r7, r8, lsl #10
    2378:	01030000 	mrseq	r0, (UNDEF: 3)
    237c:	00007208 	andeq	r7, r0, r8, lsl #4
    2380:	07020300 	streq	r0, [r2, -r0, lsl #6]
    2384:	0000008d 	andeq	r0, r0, sp, lsl #1
    2388:	67070403 	strvs	r0, [r7, -r3, lsl #8]
    238c:	03000001 	movweq	r0, #1
    2390:	01620708 	cmneq	r2, r8, lsl #14
    2394:	04030000 	streq	r0, [r3], #-0
    2398:	00018e07 	andeq	r8, r1, r7, lsl #28
    239c:	08010300 	stmdaeq	r1, {r8, r9}
    23a0:	0000007b 	andeq	r0, r0, fp, ror r0
    23a4:	00062b04 	andeq	r2, r6, r4, lsl #22
    23a8:	25030100 	strcs	r0, [r3, #-256]	; 0x100
    23ac:	34000000 	strcc	r0, [r0], #-0
    23b0:	1400008f 	strne	r0, [r0], #-143	; 0x8f
    23b4:	01000000 	mrseq	r0, (UNDEF: 0)
    23b8:	0000b09c 	muleq	r0, ip, r0
    23bc:	00630500 	rsbeq	r0, r3, r0, lsl #10
    23c0:	00250301 	eoreq	r0, r5, r1, lsl #6
    23c4:	06890000 	streq	r0, [r9], r0
    23c8:	40060000 	andmi	r0, r6, r0
    23cc:	0900008f 	stmdbeq	r0, {r0, r1, r2, r3, r7}
    23d0:	07000001 	streq	r0, [r0, -r1]
    23d4:	74025001 	strvc	r5, [r2], #-1
    23d8:	08000000 	stmdaeq	r0, {}	; <UNPREDICTABLE>
    23dc:	00000272 	andeq	r0, r0, r2, ror r2
    23e0:	8f480801 	svchi	0x00480801
    23e4:	00180000 	andseq	r0, r8, r0
    23e8:	9c010000 	stcls	0, cr0, [r1], {-0}
    23ec:	00065709 	andeq	r5, r6, r9, lsl #14
    23f0:	600b0100 	andvs	r0, fp, r0, lsl #2
    23f4:	1000008f 	andne	r0, r0, pc, lsl #1
    23f8:	01000000 	mrseq	r0, (UNDEF: 0)
    23fc:	0000e39c 	muleq	r0, ip, r3
    2400:	70660a00 	rsbvc	r0, r6, r0, lsl #20
    2404:	f20b0100 	vrhadd.s8	d0, d11, d0
    2408:	01000000 	mrseq	r0, (UNDEF: 0)
    240c:	250b0050 	strcs	r0, [fp, #-80]	; 0x50
    2410:	f2000000 	vhadd.s8	d0, d0, d0
    2414:	0c000000 	stceq	0, cr0, [r0], {-0}
    2418:	00000025 	andeq	r0, r0, r5, lsr #32
    241c:	e3040d00 	movw	r0, #19712	; 0x4d00
    2420:	0e000000 	cdpeq	0, 0, cr0, cr0, cr0, {0}
    2424:	0000063c 	andeq	r0, r0, ip, lsr r6
    2428:	00f20601 	rscseq	r0, r2, r1, lsl #12
    242c:	03050000 	movweq	r0, #20480	; 0x5000
    2430:	00009ae8 	andeq	r9, r0, r8, ror #21
    2434:	0006210f 	andeq	r2, r6, pc, lsl #2
    2438:	0c3c0200 	lfmeq	f0, 4, [ip], #-0
    243c:	0000002c 	andeq	r0, r0, ip, lsr #32
    2440:	00ee0000 	rsceq	r0, lr, r0
    2444:	00040000 	andeq	r0, r4, r0
    2448:	000009ab 	andeq	r0, r0, fp, lsr #19
    244c:	056b0104 	strbeq	r0, [fp, #-260]!	; 0x104
    2450:	64010000 	strvs	r0, [r1], #-0
    2454:	d6000006 	strle	r0, [r0], -r6
    2458:	70000005 	andvc	r0, r0, r5
    245c:	3400008f 	strcc	r0, [r0], #-143	; 0x8f
    2460:	88000000 	stmdahi	r0, {}	; <UNPREDICTABLE>
    2464:	02000007 	andeq	r0, r0, #7
    2468:	6e690504 	cdpvs	5, 6, cr0, cr9, cr4, {0}
    246c:	04030074 	streq	r0, [r3], #-116	; 0x74
    2470:	00016c07 	andeq	r6, r1, r7, lsl #24
    2474:	06010300 	streq	r0, [r1], -r0, lsl #6
    2478:	00000074 	andeq	r0, r0, r4, ror r0
    247c:	c0050203 	andgt	r0, r5, r3, lsl #4
    2480:	03000000 	movweq	r0, #0
    2484:	019c0504 	orrseq	r0, ip, r4, lsl #10
    2488:	08030000 	stmdaeq	r3, {}	; <UNPREDICTABLE>
    248c:	00019705 	andeq	r9, r1, r5, lsl #14
    2490:	08010300 	stmdaeq	r1, {r8, r9}
    2494:	00000072 	andeq	r0, r0, r2, ror r0
    2498:	8d070203 	sfmhi	f0, 4, [r7, #-12]
    249c:	03000000 	movweq	r0, #0
    24a0:	01670704 	cmneq	r7, r4, lsl #14
    24a4:	08030000 	stmdaeq	r3, {}	; <UNPREDICTABLE>
    24a8:	00016207 	andeq	r6, r1, r7, lsl #4
    24ac:	07040300 	streq	r0, [r4, -r0, lsl #6]
    24b0:	0000018e 	andeq	r0, r0, lr, lsl #3
    24b4:	7b080103 	blvc	2028c8 <__bss_end__+0x1f8150>
    24b8:	04000000 	streq	r0, [r0], #-0
    24bc:	00007f04 	andeq	r7, r0, r4, lsl #30
    24c0:	00720500 	rsbseq	r0, r2, r0, lsl #10
    24c4:	70060000 	andvc	r0, r6, r0
    24c8:	01000006 	tsteq	r0, r6
    24cc:	00002504 	andeq	r2, r0, r4, lsl #10
    24d0:	008f7000 	addeq	r7, pc, r0
    24d4:	00003400 	andeq	r3, r0, r0, lsl #8
    24d8:	ab9c0100 	blge	fe7028e0 <__bss_end__+0xfe6f8168>
    24dc:	07000000 	streq	r0, [r0, -r0]
    24e0:	04010070 	streq	r0, [r1], #-112	; 0x70
    24e4:	00000079 	andeq	r0, r0, r9, ror r0
    24e8:	000006a7 	andeq	r0, r0, r7, lsr #13
    24ec:	00250800 	eoreq	r0, r5, r0, lsl #16
    24f0:	00ba0000 	adcseq	r0, sl, r0
    24f4:	25090000 	strcs	r0, [r9, #-0]
    24f8:	00000000 	andeq	r0, r0, r0
    24fc:	00063c0a 	andeq	r3, r6, sl, lsl #24
    2500:	c51d0200 	ldrgt	r0, [sp, #-512]	; 0x200
    2504:	04000000 	streq	r0, [r0], #-0
    2508:	0000ab04 	andeq	sl, r0, r4, lsl #22
    250c:	00250800 	eoreq	r0, r5, r0, lsl #16
    2510:	00da0000 	sbcseq	r0, sl, r0
    2514:	79090000 	stmdbvc	r9, {}	; <UNPREDICTABLE>
    2518:	00000000 	andeq	r0, r0, r0
    251c:	0006790b 	andeq	r7, r6, fp, lsl #18
    2520:	eb0c0100 	bl	302928 <__bss_end__+0x2f81b0>
    2524:	05000000 	streq	r0, [r0, #-0]
    2528:	009aec03 	addseq	lr, sl, r3, lsl #24
    252c:	cb040400 	blgt	103534 <__bss_end__+0xf8dbc>
    2530:	00000000 	andeq	r0, r0, r0
    2534:	000006e5 	andeq	r0, r0, r5, ror #13
    2538:	0a440004 	beq	1102550 <__bss_end__+0x10f7dd8>
    253c:	01040000 	mrseq	r0, (UNDEF: 4)
    2540:	0000056b 	andeq	r0, r0, fp, ror #10
    2544:	0006af01 	andeq	sl, r6, r1, lsl #30
    2548:	0005d600 	andeq	sp, r5, r0, lsl #12
    254c:	008fa400 	addeq	sl, pc, r0, lsl #8
    2550:	00057800 	andeq	r7, r5, r0, lsl #16
    2554:	00082c00 	andeq	r2, r8, r0, lsl #24
    2558:	05040200 	streq	r0, [r4, #-512]	; 0x200
    255c:	00746e69 	rsbseq	r6, r4, r9, ror #28
    2560:	6c070403 	cfstrsvs	mvf0, [r7], {3}
    2564:	03000001 	movweq	r0, #1
    2568:	00740601 	rsbseq	r0, r4, r1, lsl #12
    256c:	02030000 	andeq	r0, r3, #0
    2570:	0000c005 	andeq	ip, r0, r5
    2574:	05040300 	streq	r0, [r4, #-768]	; 0x300
    2578:	0000019c 	muleq	r0, ip, r1
    257c:	97050803 	strls	r0, [r5, -r3, lsl #16]
    2580:	03000001 	movweq	r0, #1
    2584:	00720801 	rsbseq	r0, r2, r1, lsl #16
    2588:	02030000 	andeq	r0, r3, #0
    258c:	00008d07 	andeq	r8, r0, r7, lsl #26
    2590:	07040300 	streq	r0, [r4, -r0, lsl #6]
    2594:	00000167 	andeq	r0, r0, r7, ror #2
    2598:	62070803 	andvs	r0, r7, #196608	; 0x30000
    259c:	03000001 	movweq	r0, #1
    25a0:	018e0704 	orreq	r0, lr, r4, lsl #14
    25a4:	04040000 	streq	r0, [r4], #-0
    25a8:	007a0405 	rsbseq	r0, sl, r5, lsl #8
    25ac:	01030000 	mrseq	r0, (UNDEF: 3)
    25b0:	00007b08 	andeq	r7, r0, r8, lsl #22
    25b4:	87040500 	strhi	r0, [r4, -r0, lsl #10]
    25b8:	06000000 	streq	r0, [r0], -r0
    25bc:	0000007a 	andeq	r0, r0, sl, ror r0
    25c0:	00054e07 	andeq	r4, r5, r7, lsl #28
    25c4:	97280200 	strls	r0, [r8, -r0, lsl #4]!
    25c8:	08000000 	stmdaeq	r0, {}	; <UNPREDICTABLE>
    25cc:	000005cc 	andeq	r0, r0, ip, asr #11
    25d0:	ae000404 	cdpge	4, 0, cr0, cr0, cr4, {0}
    25d4:	09000000 	stmdbeq	r0, {}	; <UNPREDICTABLE>
    25d8:	0000061c 	andeq	r0, r0, ip, lsl r6
    25dc:	00000072 	andeq	r0, r0, r2, ror r0
    25e0:	ce070000 	cdpgt	0, 0, cr0, cr7, cr0, {0}
    25e4:	02000005 	andeq	r0, r0, #5
    25e8:	00008c62 	andeq	r8, r0, r2, ror #24
    25ec:	06960a00 	ldreq	r0, [r6], r0, lsl #20
    25f0:	27010000 	strcs	r0, [r1, -r0]
    25f4:	00000025 	andeq	r0, r0, r5, lsr #32
    25f8:	00008fa4 	andeq	r8, r0, r4, lsr #31
    25fc:	00000014 	andeq	r0, r0, r4, lsl r0
    2600:	00e09c01 	rsceq	r9, r0, r1, lsl #24
    2604:	630b0000 	movwvs	r0, #45056	; 0xb000
    2608:	25270100 	strcs	r0, [r7, #-256]!	; 0x100
    260c:	c5000000 	strgt	r0, [r0, #-0]
    2610:	00000006 	andeq	r0, r0, r6
    2614:	6461700c 	strbtvs	r7, [r1], #-12
    2618:	742e0100 	strtvc	r0, [lr], #-256	; 0x100
    261c:	b8000000 	stmdalt	r0, {}	; <UNPREDICTABLE>
    2620:	2c00008f 	stccs	0, cr0, [r0], {143}	; 0x8f
    2624:	01000000 	mrseq	r0, (UNDEF: 0)
    2628:	0001309c 	muleq	r1, ip, r0
    262c:	00700b00 	rsbseq	r0, r0, r0, lsl #22
    2630:	00742e01 	rsbseq	r2, r4, r1, lsl #28
    2634:	06f30000 	ldrbteq	r0, [r3], r0
    2638:	b60d0000 	strlt	r0, [sp], -r0
    263c:	0100000a 	tsteq	r0, sl
    2640:	0000742e 	andeq	r7, r0, lr, lsr #8
    2644:	00071e00 	andeq	r1, r7, r0, lsl #28
    2648:	06cf0e00 	strbeq	r0, [pc], r0, lsl #28
    264c:	2e010000 	cdpcs	0, 0, cr0, cr1, cr0, {0}
    2650:	00000025 	andeq	r0, r0, r5, lsr #32
    2654:	6c0f5201 	sfmvs	f5, 4, [pc], {1}
    2658:	01006e65 	tsteq	r0, r5, ror #28
    265c:	0000252f 	andeq	r2, r0, pc, lsr #10
    2660:	00510100 	subseq	r0, r1, r0, lsl #2
    2664:	00068e0a 	andeq	r8, r6, sl, lsl #28
    2668:	74370100 	ldrtvc	r0, [r7], #-256	; 0x100
    266c:	e4000000 	str	r0, [r0], #-0
    2670:	4000008f 	andmi	r0, r0, pc, lsl #1
    2674:	01000000 	mrseq	r0, (UNDEF: 0)
    2678:	00019c9c 	muleq	r1, ip, ip
    267c:	73640b00 	cmnvc	r4, #0, 22
    2680:	37010074 	smlsdxcc	r1, r4, r0, r0
    2684:	00000074 	andeq	r0, r0, r4, ror r0
    2688:	0000073f 	andeq	r0, r0, pc, lsr r7
    268c:	01006e0b 	tsteq	r0, fp, lsl #28
    2690:	00002537 	andeq	r2, r0, r7, lsr r5
    2694:	00077700 	andeq	r7, r7, r0, lsl #14
    2698:	00700b00 	rsbseq	r0, r0, r0, lsl #22
    269c:	00743701 	rsbseq	r3, r4, r1, lsl #14
    26a0:	07980000 	ldreq	r0, [r8, r0]
    26a4:	820d0000 	andhi	r0, sp, #0
    26a8:	01000006 	tsteq	r0, r6
    26ac:	00007437 	andeq	r7, r0, r7, lsr r4
    26b0:	0007ce00 	andeq	ip, r7, r0, lsl #28
    26b4:	656c1000 	strbvs	r1, [ip, #-0]!
    26b8:	3901006e 	stmdbcc	r1, {r1, r2, r3, r5, r6}
    26bc:	00000025 	andeq	r0, r0, r5, lsr #32
    26c0:	000007ec 	andeq	r0, r0, ip, ror #15
    26c4:	0100730f 	tsteq	r0, pc, lsl #6
    26c8:	0000743d 	andeq	r7, r0, sp, lsr r4
    26cc:	00500100 	subseq	r0, r0, r0, lsl #2
    26d0:	0006dd0a 	andeq	sp, r6, sl, lsl #26
    26d4:	74470100 	strbvc	r0, [r7], #-256	; 0x100
    26d8:	24000000 	strcs	r0, [r0], #-0
    26dc:	bc000090 	stclt	0, cr0, [r0], {144}	; 0x90
    26e0:	01000001 	tsteq	r0, r1
    26e4:	0002df9c 	muleq	r2, ip, pc	; <UNPREDICTABLE>
    26e8:	0ab60d00 	beq	fed85af0 <__bss_end__+0xfed7b378>
    26ec:	47010000 	strmi	r0, [r1, -r0]
    26f0:	0000002c 	andeq	r0, r0, ip, lsr #32
    26f4:	00000813 	andeq	r0, r0, r3, lsl r8
    26f8:	7473640b 	ldrbtvc	r6, [r3], #-1035	; 0x40b
    26fc:	74470100 	strbvc	r0, [r7], #-256	; 0x100
    2700:	41000000 	mrsmi	r0, (UNDEF: 0)
    2704:	0b000008 	bleq	272c <__code_start__-0x58d4>
    2708:	4701006e 	strmi	r0, [r1, -lr, rrx]
    270c:	00000025 	andeq	r0, r0, r5, lsr #32
    2710:	000008af 	andeq	r0, r0, pc, lsr #17
    2714:	6c61760b 	stclvs	6, cr7, [r1], #-44	; 0xffffffd4
    2718:	25470100 	strbcs	r0, [r7, #-256]	; 0x100
    271c:	db000000 	blle	2724 <__code_start__-0x58dc>
    2720:	0d000008 	stceq	0, cr0, [r0, #-32]	; 0xffffffe0
    2724:	000006cf 	andeq	r0, r0, pc, asr #13
    2728:	00254701 	eoreq	r4, r5, r1, lsl #14
    272c:	095a0000 	ldmdbeq	sl, {}^	; <UNPREDICTABLE>
    2730:	a60e0000 	strge	r0, [lr], -r0
    2734:	01000006 	tsteq	r0, r6
    2738:	00002547 	andeq	r2, r0, r7, asr #10
    273c:	04910200 	ldreq	r0, [r1], #512	; 0x200
    2740:	6675620f 	ldrbtvs	r6, [r5], -pc, lsl #4
    2744:	df4c0100 	svcle	0x004c0100
    2748:	03000002 	movweq	r0, #2
    274c:	107fa891 			; <UNDEFINED> instruction: 0x107fa891
    2750:	4c010070 	stcmi	0, cr0, [r1], {112}	; 0x70
    2754:	00000074 	andeq	r0, r0, r4, ror r0
    2758:	00000984 	andeq	r0, r0, r4, lsl #19
    275c:	01007510 	tsteq	r0, r0, lsl r5
    2760:	00002c4d 	andeq	r2, r0, sp, asr #24
    2764:	000a6e00 	andeq	r6, sl, r0, lsl #28
    2768:	00ca1100 	sbceq	r1, sl, r0, lsl #2
    276c:	02ff0000 	rscseq	r0, pc, #0
    2770:	03050000 	movweq	r0, #20480	; 0x5000
    2774:	0000a140 	andeq	sl, r0, r0, asr #2
    2778:	00909012 	addseq	r9, r0, r2, lsl r0
    277c:	00007400 	andeq	r7, r0, r0, lsl #8
    2780:	00026100 	andeq	r6, r2, r0, lsl #2
    2784:	06881300 	streq	r1, [r8], r0, lsl #6
    2788:	52010000 	andpl	r0, r1, #0
    278c:	0000002c 	andeq	r0, r0, ip, lsr #32
    2790:	00000b31 	andeq	r0, r0, r1, lsr fp
    2794:	917c1400 	cmnls	ip, r0, lsl #8
    2798:	06c40000 	strbeq	r0, [r4], r0
    279c:	98150000 	ldmdals	r5, {}	; <UNPREDICTABLE>
    27a0:	cb000091 	blgt	29ec <__code_start__-0x5614>
    27a4:	a3000006 	movwge	r0, #6
    27a8:	16000002 	strne	r0, [r0], -r2
    27ac:	08025301 	stmdaeq	r2, {r0, r8, r9, ip, lr}
    27b0:	52011677 	andpl	r1, r1, #124780544	; 0x7700000
    27b4:	a1400305 	cmpge	r0, r5, lsl #6
    27b8:	01160000 	tsteq	r6, r0
    27bc:	64030551 	strvs	r0, [r3], #-1361	; 0x551
    27c0:	160000a1 	strne	r0, [r0], -r1, lsr #1
    27c4:	03055001 	movweq	r5, #20481	; 0x5001
    27c8:	00009b40 	andeq	r9, r0, r0, asr #22
    27cc:	007d0216 	rsbseq	r0, sp, r6, lsl r2
    27d0:	a1780305 	cmnge	r8, r5, lsl #6
    27d4:	14000000 	strne	r0, [r0], #-0
    27d8:	0000919c 	muleq	r0, ip, r1
    27dc:	000006e1 	andeq	r0, r0, r1, ror #13
    27e0:	0091a415 	addseq	sl, r1, r5, lsl r4
    27e4:	0000e000 	andeq	lr, r0, r0
    27e8:	0002c100 	andeq	ip, r2, r0, lsl #2
    27ec:	51011600 	tstpl	r1, r0, lsl #12
    27f0:	7fa09103 	svcvc	0x00a09103
    27f4:	91b81700 			; <UNDEFINED> instruction: 0x91b81700
    27f8:	01300000 	teqeq	r0, r0
    27fc:	01160000 	tsteq	r6, r0
    2800:	a0910353 	addsge	r0, r1, r3, asr r3
    2804:	5101167f 	tstpl	r1, pc, ror r6
    2808:	16007402 	strne	r7, [r0], -r2, lsl #8
    280c:	75025001 	strvc	r5, [r2, #-1]
    2810:	18000000 	stmdane	r0, {}	; <UNPREDICTABLE>
    2814:	0000007a 	andeq	r0, r0, sl, ror r0
    2818:	000002ef 	andeq	r0, r0, pc, ror #5
    281c:	00006b19 	andeq	r6, r0, r9, lsl fp
    2820:	18003f00 	stmdane	r0, {r8, r9, sl, fp, ip, sp}
    2824:	0000007a 	andeq	r0, r0, sl, ror r0
    2828:	000002ff 	strdeq	r0, [r0], -pc	; <UNPREDICTABLE>
    282c:	00006b19 	andeq	r6, r0, r9, lsl fp
    2830:	06000400 	streq	r0, [r0], -r0, lsl #8
    2834:	000002ef 	andeq	r0, r0, pc, ror #5
    2838:	0006c01a 	andeq	ip, r6, sl, lsl r0
    283c:	e01f0100 	ands	r0, pc, r0, lsl #2
    2840:	68000091 	stmdavs	r0, {r0, r4, r7}
    2844:	01000000 	mrseq	r0, (UNDEF: 0)
    2848:	0003929c 	muleq	r3, ip, r2
    284c:	06d50d00 	ldrbeq	r0, [r5], r0, lsl #26
    2850:	1f010000 	svcne	0x00010000
    2854:	000003a1 	andeq	r0, r0, r1, lsr #7
    2858:	00000b5d 	andeq	r0, r0, sp, asr fp
    285c:	00069e0d 	andeq	r9, r6, sp, lsl #28
    2860:	b61f0100 	ldrlt	r0, [pc], -r0, lsl #2
    2864:	89000003 	stmdbhi	r0, {r0, r1}
    2868:	1100000b 	tstne	r0, fp
    286c:	000000ca 	andeq	r0, r0, sl, asr #1
    2870:	000003cc 	andeq	r0, r0, ip, asr #7
    2874:	a1480305 	cmpge	r8, r5, lsl #6
    2878:	f4140000 			; <UNDEFINED> instruction: 0xf4140000
    287c:	c4000091 	strgt	r0, [r0], #-145	; 0x91
    2880:	15000006 	strne	r0, [r0, #-6]
    2884:	00009210 	andeq	r9, r0, r0, lsl r2
    2888:	000006cb 	andeq	r0, r0, fp, asr #13
    288c:	00000388 	andeq	r0, r0, r8, lsl #7
    2890:	02530116 	subseq	r0, r3, #-2147483643	; 0x80000005
    2894:	01162008 	tsteq	r6, r8
    2898:	48030552 	stmdami	r3, {r1, r4, r6, r8, sl}
    289c:	160000a1 	strne	r0, [r0], -r1, lsr #1
    28a0:	03055101 	movweq	r5, #20737	; 0x5101
    28a4:	0000a164 	andeq	sl, r0, r4, ror #2
    28a8:	05500116 	ldrbeq	r0, [r0, #-278]	; 0x116
    28ac:	009b4003 	addseq	r4, fp, r3
    28b0:	7d021600 	stcvc	6, cr1, [r2, #-0]
    28b4:	a0030500 	andge	r0, r3, r0, lsl #10
    28b8:	000000a1 	andeq	r0, r0, r1, lsr #1
    28bc:	00921414 	addseq	r1, r2, r4, lsl r4
    28c0:	0006e100 	andeq	lr, r6, r0, lsl #2
    28c4:	251b0000 	ldrcs	r0, [fp, #-0]
    28c8:	a1000000 	mrsge	r0, (UNDEF: 0)
    28cc:	1c000003 	stcne	0, cr0, [r0], {3}
    28d0:	00000025 	andeq	r0, r0, r5, lsr #32
    28d4:	92040500 	andls	r0, r4, #0, 10
    28d8:	1b000003 	blne	28ec <__code_start__-0x5714>
    28dc:	00000025 	andeq	r0, r0, r5, lsr #32
    28e0:	000003b6 			; <UNDEFINED> instruction: 0x000003b6
    28e4:	0000811c 	andeq	r8, r0, ip, lsl r1
    28e8:	04050000 	streq	r0, [r5], #-0
    28ec:	000003a7 	andeq	r0, r0, r7, lsr #7
    28f0:	00007a18 	andeq	r7, r0, r8, lsl sl
    28f4:	0003cc00 	andeq	ip, r3, r0, lsl #24
    28f8:	006b1900 	rsbeq	r1, fp, r0, lsl #18
    28fc:	000e0000 	andeq	r0, lr, r0
    2900:	0003bc06 	andeq	fp, r3, r6, lsl #24
    2904:	05c21d00 	strbeq	r1, [r2, #3328]	; 0xd00
    2908:	7f010000 	svcvc	0x00010000
    290c:	00000025 	andeq	r0, r0, r5, lsr #32
    2910:	00009248 	andeq	r9, r0, r8, asr #4
    2914:	000002d4 	ldrdeq	r0, [r0], -r4
    2918:	06899c01 	streq	r9, [r9], r1, lsl #24
    291c:	620b0000 	andvs	r0, fp, #0
    2920:	01006675 	tsteq	r0, r5, ror r6
    2924:	0000747f 	andeq	r7, r0, pc, ror r4
    2928:	000bb500 	andeq	fp, fp, r0, lsl #10
    292c:	006e0b00 	rsbeq	r0, lr, r0, lsl #22
    2930:	00257f01 	eoreq	r7, r5, r1, lsl #30
    2934:	0be10000 	bleq	ff84293c <__bss_end__+0xff8381c4>
    2938:	660b0000 	strvs	r0, [fp], -r0
    293c:	0100746d 	tsteq	r0, sp, ror #8
    2940:	0000817f 	andeq	r8, r0, pc, ror r1
    2944:	000c0f00 	andeq	r0, ip, r0, lsl #30
    2948:	0ad80d00 	beq	ff605d50 <__bss_end__+0xff5fb5d8>
    294c:	7f010000 	svcvc	0x00010000
    2950:	000000ae 	andeq	r0, r0, lr, lsr #1
    2954:	00000c2d 	andeq	r0, r0, sp, lsr #24
    2958:	01007010 	tsteq	r0, r0, lsl r0
    295c:	00007480 	andeq	r7, r0, r0, lsl #9
    2960:	000c4000 	andeq	r4, ip, r0
    2964:	00651000 	rsbeq	r1, r5, r0
    2968:	00748001 	rsbseq	r8, r4, r1
    296c:	0cbe0000 	ldceq	0, cr0, [lr]
    2970:	7e130000 	cdpvc	0, 1, cr0, cr3, cr0, {0}
    2974:	01000006 	tsteq	r0, r6
    2978:	00008183 	andeq	r8, r0, r3, lsl #3
    297c:	000ce500 	andeq	lr, ip, r0, lsl #10
    2980:	00ca1100 	sbceq	r1, sl, r0, lsl #2
    2984:	06990000 	ldreq	r0, [r9], r0
    2988:	03050000 	movweq	r0, #20480	; 0x5000
    298c:	0000a158 	andeq	sl, r0, r8, asr r1
    2990:	0092a41e 	addseq	sl, r2, lr, lsl r4
    2994:	00022c00 	andeq	r2, r2, r0, lsl #24
    2998:	00731000 	rsbseq	r1, r3, r0
    299c:	00748e01 	rsbseq	r8, r4, r1, lsl #28
    29a0:	0d050000 	stceq	0, cr0, [r5, #-0]
    29a4:	6e0f0000 	cdpvs	0, 0, cr0, cr15, cr0, {0}
    29a8:	01006d75 	tsteq	r0, r5, ror sp
    29ac:	00069e8e 	andeq	r9, r6, lr, lsl #29
    29b0:	d8910300 	ldmle	r1, {r8, r9}
    29b4:	06cf137e 			; <UNDEFINED> instruction: 0x06cf137e
    29b8:	8f010000 	svchi	0x00010000
    29bc:	0000002c 	andeq	r0, r0, ip, lsr #32
    29c0:	00000d5a 	andeq	r0, r0, sl, asr sp
    29c4:	0092d415 	addseq	sp, r2, r5, lsl r4
    29c8:	0000b900 	andeq	fp, r0, r0, lsl #18
    29cc:	0004a400 	andeq	sl, r4, r0, lsl #8
    29d0:	50011600 	andpl	r1, r1, r0, lsl #12
    29d4:	00007502 	andeq	r7, r0, r2, lsl #10
    29d8:	0092e814 	addseq	lr, r2, r4, lsl r8
    29dc:	0006c400 	andeq	ip, r6, r0, lsl #8
    29e0:	93041500 	movwls	r1, #17664	; 0x4500
    29e4:	06cb0000 	strbeq	r0, [fp], r0
    29e8:	04e60000 	strbteq	r0, [r6], #0
    29ec:	01160000 	tsteq	r6, r0
    29f0:	95080253 	strls	r0, [r8, #-595]	; 0x253
    29f4:	05520116 	ldrbeq	r0, [r2, #-278]	; 0x116
    29f8:	00a15803 	adceq	r5, r1, r3, lsl #16
    29fc:	51011600 	tstpl	r1, r0, lsl #12
    2a00:	a1640305 	cmnge	r4, r5, lsl #6
    2a04:	01160000 	tsteq	r6, r0
    2a08:	40030550 	andmi	r0, r3, r0, asr r5
    2a0c:	1600009b 			; <UNDEFINED> instruction: 0x1600009b
    2a10:	05007d02 	streq	r7, [r0, #-3330]	; 0xd02
    2a14:	00a1a803 	adceq	sl, r1, r3, lsl #16
    2a18:	08140000 	ldmdaeq	r4, {}	; <UNPREDICTABLE>
    2a1c:	e1000093 	swp	r0, r3, [r0]	; <UNPREDICTABLE>
    2a20:	14000006 	strne	r0, [r0], #-6
    2a24:	00009378 	andeq	r9, r0, r8, ror r3
    2a28:	000006c4 	andeq	r0, r0, r4, asr #13
    2a2c:	00938c15 	addseq	r8, r3, r5, lsl ip
    2a30:	0006cb00 	andeq	ip, r6, r0, lsl #22
    2a34:	00052700 	andeq	r2, r5, r0, lsl #14
    2a38:	53011600 	movwpl	r1, #5632	; 0x1600
    2a3c:	169b0802 	ldrne	r0, [fp], r2, lsl #16
    2a40:	03055201 	movweq	r5, #20993	; 0x5201
    2a44:	0000a158 	andeq	sl, r0, r8, asr r1
    2a48:	05510116 	ldrbeq	r0, [r1, #-278]	; 0x116
    2a4c:	00a16403 	adceq	r6, r1, r3, lsl #8
    2a50:	50011600 	andpl	r1, r1, r0, lsl #12
    2a54:	a1b40305 			; <UNDEFINED> instruction: 0xa1b40305
    2a58:	14000000 	strne	r0, [r0], #-0
    2a5c:	00009390 	muleq	r0, r0, r3
    2a60:	000006e1 	andeq	r0, r0, r1, ror #13
    2a64:	0093b415 	addseq	fp, r3, r5, lsl r4
    2a68:	00019c00 	andeq	r9, r1, r0, lsl #24
    2a6c:	00055d00 	andeq	r5, r5, r0, lsl #26
    2a70:	52011600 	andpl	r1, r1, #0, 12
    2a74:	16800802 	strne	r0, [r0], r2, lsl #16
    2a78:	91035101 	tstls	r3, r1, lsl #2
    2a7c:	01167ed0 			; <UNDEFINED> instruction: 0x01167ed0
    2a80:	163a0150 			; <UNDEFINED> instruction: 0x163a0150
    2a84:	01047d02 	tsteq	r4, r2, lsl #26
    2a88:	7d021631 	stcvc	6, cr1, [r2, #-196]	; 0xffffff3c
    2a8c:	00770200 	rsbseq	r0, r7, r0, lsl #4
    2a90:	93dc1500 	bicsls	r1, ip, #0, 10
    2a94:	019c0000 	orrseq	r0, ip, r0
    2a98:	058a0000 	streq	r0, [sl]
    2a9c:	01160000 	tsteq	r6, r0
    2aa0:	80080252 	andhi	r0, r8, r2, asr r2
    2aa4:	03510116 	cmpeq	r1, #-2147483643	; 0x80000005
    2aa8:	167ed091 			; <UNDEFINED> instruction: 0x167ed091
    2aac:	3a015001 	bcc	56ab8 <__bss_end__+0x4c340>
    2ab0:	047d0216 	ldrbteq	r0, [sp], #-534	; 0x216
    2ab4:	02163001 	andseq	r3, r6, #1
    2ab8:	7702007d 	smlsdxvc	r2, sp, r0, r0
    2abc:	04150000 	ldreq	r0, [r5], #-0
    2ac0:	9c000094 	stcls	0, cr0, [r0], {148}	; 0x94
    2ac4:	b7000001 	strlt	r0, [r0, -r1]
    2ac8:	16000005 	strne	r0, [r0], -r5
    2acc:	08025201 	stmdaeq	r2, {r0, r9, ip, lr}
    2ad0:	51011680 	smlabbpl	r1, r0, r6, r1
    2ad4:	7ed09103 	atnvcs	f1, f3
    2ad8:	01500116 	cmpeq	r0, r6, lsl r1
    2adc:	7d021640 	stcvc	6, cr1, [r2, #-256]	; 0xffffff00
    2ae0:	16300104 	ldrtne	r0, [r0], -r4, lsl #2
    2ae4:	02007d02 	andeq	r7, r0, #2, 26	; 0x80
    2ae8:	15000077 	strne	r0, [r0, #-119]	; 0x77
    2aec:	0000942c 	andeq	r9, r0, ip, lsr #8
    2af0:	0000019c 	muleq	r0, ip, r1
    2af4:	000005e4 	andeq	r0, r0, r4, ror #11
    2af8:	02520116 	subseq	r0, r2, #-2147483643	; 0x80000005
    2afc:	01168008 	tsteq	r6, r8
    2b00:	d0910351 	addsle	r0, r1, r1, asr r3
    2b04:	5001167e 	andpl	r1, r1, lr, ror r6
    2b08:	02163201 	andseq	r3, r6, #268435456	; 0x10000000
    2b0c:	3001047d 	andcc	r0, r1, sp, ror r4
    2b10:	007d0216 	rsbseq	r0, sp, r6, lsl r2
    2b14:	00007702 	andeq	r7, r0, r2, lsl #14
    2b18:	00946015 	addseq	r6, r4, r5, lsl r0
    2b1c:	00019c00 	andeq	r9, r1, r0, lsl #24
    2b20:	00061100 	andeq	r1, r6, r0, lsl #2
    2b24:	52011600 	andpl	r1, r1, #0, 12
    2b28:	16800802 	strne	r0, [r0], r2, lsl #16
    2b2c:	91035101 	tstls	r3, r1, lsl #2
    2b30:	01167ed0 			; <UNDEFINED> instruction: 0x01167ed0
    2b34:	16380150 			; <UNDEFINED> instruction: 0x16380150
    2b38:	01047d02 	tsteq	r4, r2, lsl #26
    2b3c:	7d021630 	stcvc	6, cr1, [r2, #-192]	; 0xffffff40
    2b40:	00770200 	rsbseq	r0, r7, r0, lsl #4
    2b44:	947c1500 	ldrbtls	r1, [ip], #-1280	; 0x500
    2b48:	06cb0000 	strbeq	r0, [fp], r0
    2b4c:	06340000 	ldrteq	r0, [r4], -r0
    2b50:	01160000 	tsteq	r6, r0
    2b54:	00790252 	rsbseq	r0, r9, r2, asr r2
    2b58:	02510116 	subseq	r0, r1, #-2147483643	; 0x80000005
    2b5c:	01160079 	tsteq	r6, r9, ror r0
    2b60:	dc030550 	cfstr32le	mvfx0, [r3], {80}	; 0x50
    2b64:	000000a1 	andeq	r0, r0, r1, lsr #1
    2b68:	00948c1f 	addseq	r8, r4, pc, lsl ip
    2b6c:	00064600 	andeq	r4, r6, r0, lsl #12
    2b70:	50011600 	andpl	r1, r1, r0, lsl #12
    2b74:	7ecc9104 	acsvce	f1, f4
    2b78:	90140006 	andsls	r0, r4, r6
    2b7c:	c4000094 	strgt	r0, [r0], #-148	; 0x94
    2b80:	15000006 	strne	r0, [r0, #-6]
    2b84:	000094a4 	andeq	r9, r0, r4, lsr #9
    2b88:	000006cb 	andeq	r0, r0, fp, asr #13
    2b8c:	0000067e 	andeq	r0, r0, lr, ror r6
    2b90:	02530116 	subseq	r0, r3, #-2147483643	; 0x80000005
    2b94:	0116bf08 	tsteq	r6, r8, lsl #30
    2b98:	58030552 	stmdapl	r3, {r1, r4, r6, r8, sl}
    2b9c:	160000a1 	strne	r0, [r0], -r1, lsr #1
    2ba0:	03055101 	movweq	r5, #20737	; 0x5101
    2ba4:	0000a164 	andeq	sl, r0, r4, ror #2
    2ba8:	05500116 	ldrbeq	r0, [r0, #-278]	; 0x116
    2bac:	00a20c03 	adceq	r0, r2, r3, lsl #24
    2bb0:	a8140000 	ldmdage	r4, {}	; <UNPREDICTABLE>
    2bb4:	e1000094 	swp	r0, r4, [r0]	; <UNPREDICTABLE>
    2bb8:	00000006 	andeq	r0, r0, r6
    2bbc:	007a1800 	rsbseq	r1, sl, r0, lsl #16
    2bc0:	06990000 	ldreq	r0, [r9], r0
    2bc4:	6b190000 	blvs	642bcc <__bss_end__+0x638454>
    2bc8:	09000000 	stmdbeq	r0, {}	; <UNPREDICTABLE>
    2bcc:	06890600 	streq	r0, [r9], r0, lsl #12
    2bd0:	7a180000 	bvc	602bd8 <__bss_end__+0x5f8460>
    2bd4:	ae000000 	cdpge	0, 0, cr0, cr0, cr0, {0}
    2bd8:	19000006 	stmdbne	r0, {r1, r2}
    2bdc:	0000006b 	andeq	r0, r0, fp, rrx
    2be0:	3c20007f 	stccc	0, cr0, [r0], #-508	; 0xfffffe04
    2be4:	03000006 	movweq	r0, #6
    2be8:	0003a11d 	andeq	sl, r3, sp, lsl r1
    2bec:	06792000 	ldrbteq	r2, [r9], -r0
    2bf0:	22030000 	andcs	r0, r3, #0
    2bf4:	000003b6 			; <UNDEFINED> instruction: 0x000003b6
    2bf8:	00027221 	andeq	r7, r2, r1, lsr #4
    2bfc:	221e0300 	andscs	r0, lr, #0, 6
    2c00:	000005c5 	andeq	r0, r0, r5, asr #11
    2c04:	00252903 	eoreq	r2, r5, r3, lsl #18
    2c08:	06e10000 	strbteq	r0, [r1], r0
    2c0c:	811c0000 	tsthi	ip, r0
    2c10:	23000000 	movwcs	r0, #0
    2c14:	00802100 	addeq	r2, r0, r0, lsl #2
    2c18:	65030000 	strvs	r0, [r3, #-0]
    2c1c:	0000b800 	andeq	fp, r0, r0, lsl #16
    2c20:	2d000400 	cfstrscs	mvf0, [r0, #-0]
    2c24:	0400000c 	streq	r0, [r0], #-12
    2c28:	00056b01 	andeq	r6, r5, r1, lsl #22
    2c2c:	06f00100 	ldrbteq	r0, [r0], r0, lsl #2
    2c30:	05d60000 	ldrbeq	r0, [r6]
    2c34:	951c0000 	ldrls	r0, [ip, #-0]
    2c38:	00200000 	eoreq	r0, r0, r0
    2c3c:	0a210000 	beq	842c44 <__bss_end__+0x8384cc>
    2c40:	04020000 	streq	r0, [r2], #-0
    2c44:	746e6905 	strbtvc	r6, [lr], #-2309	; 0x905
    2c48:	07040300 	streq	r0, [r4, -r0, lsl #6]
    2c4c:	0000016c 	andeq	r0, r0, ip, ror #2
    2c50:	74060103 	strvc	r0, [r6], #-259	; 0x103
    2c54:	03000000 	movweq	r0, #0
    2c58:	00c00502 	sbceq	r0, r0, r2, lsl #10
    2c5c:	04030000 	streq	r0, [r3], #-0
    2c60:	00019c05 	andeq	r9, r1, r5, lsl #24
    2c64:	05080300 	streq	r0, [r8, #-768]	; 0x300
    2c68:	00000197 	muleq	r0, r7, r1
    2c6c:	72080103 	andvc	r0, r8, #-1073741824	; 0xc0000000
    2c70:	03000000 	movweq	r0, #0
    2c74:	008d0702 	addeq	r0, sp, r2, lsl #14
    2c78:	04030000 	streq	r0, [r3], #-0
    2c7c:	00016707 	andeq	r6, r1, r7, lsl #14
    2c80:	07080300 	streq	r0, [r8, -r0, lsl #6]
    2c84:	00000162 	andeq	r0, r0, r2, ror #2
    2c88:	8e070403 	cdphi	4, 0, cr0, cr7, cr3, {0}
    2c8c:	03000001 	movweq	r0, #1
    2c90:	007b0801 	rsbseq	r0, fp, r1, lsl #16
    2c94:	bc040000 	stclt	0, cr0, [r4], {-0}
    2c98:	01000001 	tsteq	r0, r1
    2c9c:	00951c03 	addseq	r1, r5, r3, lsl #24
    2ca0:	00001000 	andeq	r1, r0, r0
    2ca4:	9c9c0100 	ldflss	f0, [ip], {0}
    2ca8:	05000000 	streq	r0, [r0, #-0]
    2cac:	04010072 	streq	r0, [r1], #-114	; 0x72
    2cb0:	0000002c 	andeq	r0, r0, ip, lsr #32
    2cb4:	00000d84 	andeq	r0, r0, r4, lsl #27
    2cb8:	06e20600 	strbteq	r0, [r2], r0, lsl #12
    2cbc:	0c010000 	stceq	0, cr0, [r1], {-0}
    2cc0:	0000952c 	andeq	r9, r0, ip, lsr #10
    2cc4:	00000010 	andeq	r0, r0, r0, lsl r0
    2cc8:	72059c01 	andvc	r9, r5, #256	; 0x100
    2ccc:	2c0d0100 	stfcss	f0, [sp], {-0}
    2cd0:	a8000000 	stmdage	r0, {}	; <UNPREDICTABLE>
    2cd4:	0000000d 	andeq	r0, r0, sp
    2cd8:	00010f00 	andeq	r0, r1, r0, lsl #30
    2cdc:	98000400 	stmdals	r0, {sl}
    2ce0:	0400000c 	streq	r0, [r0], #-12
    2ce4:	00056b01 	andeq	r6, r5, r1, lsl #22
    2ce8:	07110100 	ldreq	r0, [r1, -r0, lsl #2]
    2cec:	05d60000 	ldrbeq	r0, [r6]
    2cf0:	953c0000 	ldrls	r0, [ip, #-0]!
    2cf4:	002c0000 	eoreq	r0, ip, r0
    2cf8:	0a670000 	beq	19c2d00 <__bss_end__+0x19b8588>
    2cfc:	04020000 	streq	r0, [r2], #-0
    2d00:	746e6905 	strbtvc	r6, [lr], #-2309	; 0x905
    2d04:	07040300 	streq	r0, [r4, -r0, lsl #6]
    2d08:	0000016c 	andeq	r0, r0, ip, ror #2
    2d0c:	74060103 	strvc	r0, [r6], #-259	; 0x103
    2d10:	03000000 	movweq	r0, #0
    2d14:	00c00502 	sbceq	r0, r0, r2, lsl #10
    2d18:	04030000 	streq	r0, [r3], #-0
    2d1c:	00019c05 	andeq	r9, r1, r5, lsl #24
    2d20:	05080300 	streq	r0, [r8, #-768]	; 0x300
    2d24:	00000197 	muleq	r0, r7, r1
    2d28:	72080103 	andvc	r0, r8, #-1073741824	; 0xc0000000
    2d2c:	03000000 	movweq	r0, #0
    2d30:	008d0702 	addeq	r0, sp, r2, lsl #14
    2d34:	04030000 	streq	r0, [r3], #-0
    2d38:	00016707 	andeq	r6, r1, r7, lsl #14
    2d3c:	07080300 	streq	r0, [r8, -r0, lsl #6]
    2d40:	00000162 	andeq	r0, r0, r2, ror #2
    2d44:	8e070403 	cdphi	4, 0, cr0, cr7, cr3, {0}
    2d48:	03000001 	movweq	r0, #1
    2d4c:	007b0801 	rsbseq	r0, fp, r1, lsl #16
    2d50:	04040000 	streq	r0, [r4], #-0
    2d54:	0000007f 	andeq	r0, r0, pc, ror r0
    2d58:	00007205 	andeq	r7, r0, r5, lsl #4
    2d5c:	00800600 	addeq	r0, r0, r0, lsl #12
    2d60:	04010000 	streq	r0, [r1], #-0
    2d64:	0000953c 	andeq	r9, r0, ip, lsr r5
    2d68:	0000002c 	andeq	r0, r0, ip, lsr #32
    2d6c:	00d39c01 	sbcseq	r9, r3, r1, lsl #24
    2d70:	44070000 	strmi	r0, [r7], #-0
    2d74:	f3000095 	vqadd.u8	d0, d16, d5
    2d78:	08000000 	stmdaeq	r0, {}	; <UNPREDICTABLE>
    2d7c:	00009554 	andeq	r9, r0, r4, asr r5
    2d80:	000000b5 	strheq	r0, [r0], -r5
    2d84:	05500109 	ldrbeq	r0, [r0, #-265]	; 0x109
    2d88:	00a22c03 	adceq	r2, r2, r3, lsl #24
    2d8c:	5c0a0000 	stcpl	0, cr0, [sl], {-0}
    2d90:	fa000095 	blx	2fec <__code_start__-0x5014>
    2d94:	c9000000 	stmdbgt	r0, {}	; <UNPREDICTABLE>
    2d98:	09000000 	stmdbeq	r0, {}	; <UNPREDICTABLE>
    2d9c:	08025001 	stmdaeq	r2, {r0, ip, lr}
    2da0:	60070064 	andvs	r0, r7, r4, rrx
    2da4:	0b000095 	bleq	3000 <__code_start__-0x5000>
    2da8:	00000001 	andeq	r0, r0, r1
    2dac:	0000250b 	andeq	r2, r0, fp, lsl #10
    2db0:	0000e200 	andeq	lr, r0, r0, lsl #4
    2db4:	00790c00 	rsbseq	r0, r9, r0, lsl #24
    2db8:	0d000000 	stceq	0, cr0, [r0, #-0]
    2dbc:	00000679 	andeq	r0, r0, r9, ror r6
    2dc0:	00ed2202 	rsceq	r2, sp, r2, lsl #4
    2dc4:	04040000 	streq	r0, [r4], #-0
    2dc8:	000000d3 	ldrdeq	r0, [r0], -r3
    2dcc:	0007020e 	andeq	r0, r7, lr, lsl #4
    2dd0:	0fdc0200 	svceq	0x00dc0200
    2dd4:	00000735 	andeq	r0, r0, r5, lsr r7
    2dd8:	010b4f02 	tsteq	fp, r2, lsl #30
    2ddc:	2c0c0000 	stccs	0, cr0, [ip], {-0}
    2de0:	00000000 	andeq	r0, r0, r0
    2de4:	00072a0e 	andeq	r2, r7, lr, lsl #20
    2de8:	00620200 	rsbeq	r0, r2, r0, lsl #4
    2dec:	0000010f 	andeq	r0, r0, pc, lsl #2
    2df0:	0d620004 	stcleq	0, cr0, [r2, #-16]!
    2df4:	01040000 	mrseq	r0, (UNDEF: 4)
    2df8:	0000056b 	andeq	r0, r0, fp, ror #10
    2dfc:	00077701 	andeq	r7, r7, r1, lsl #14
    2e00:	0005d600 	andeq	sp, r5, r0, lsl #12
    2e04:	00956800 	addseq	r6, r5, r0, lsl #16
    2e08:	00003800 	andeq	r3, r0, r0, lsl #16
    2e0c:	000b0800 	andeq	r0, fp, r0, lsl #16
    2e10:	05040200 	streq	r0, [r4, #-512]	; 0x200
    2e14:	00746e69 	rsbseq	r6, r4, r9, ror #28
    2e18:	6c070403 	cfstrsvs	mvf0, [r7], {3}
    2e1c:	03000001 	movweq	r0, #1
    2e20:	00740601 	rsbseq	r0, r4, r1, lsl #12
    2e24:	02030000 	andeq	r0, r3, #0
    2e28:	0000c005 	andeq	ip, r0, r5
    2e2c:	05040300 	streq	r0, [r4, #-768]	; 0x300
    2e30:	0000019c 	muleq	r0, ip, r1
    2e34:	97050803 	strls	r0, [r5, -r3, lsl #16]
    2e38:	03000001 	movweq	r0, #1
    2e3c:	00720801 	rsbseq	r0, r2, r1, lsl #16
    2e40:	02030000 	andeq	r0, r3, #0
    2e44:	00008d07 	andeq	r8, r0, r7, lsl #26
    2e48:	07040300 	streq	r0, [r4, -r0, lsl #6]
    2e4c:	00000167 	andeq	r0, r0, r7, ror #2
    2e50:	62070803 	andvs	r0, r7, #196608	; 0x30000
    2e54:	03000001 	movweq	r0, #1
    2e58:	018e0704 	orreq	r0, lr, r4, lsl #14
    2e5c:	01030000 	mrseq	r0, (UNDEF: 3)
    2e60:	00007b08 	andeq	r7, r0, r8, lsl #22
    2e64:	076f0400 	strbeq	r0, [pc, -r0, lsl #8]!
    2e68:	0d010000 	stceq	0, cr0, [r1, #-0]
    2e6c:	00009568 	andeq	r9, r0, r8, ror #10
    2e70:	00000038 	andeq	r0, r0, r8, lsr r0
    2e74:	00e19c01 	rsceq	r9, r1, r1, lsl #24
    2e78:	3e050000 	cdpcc	0, 0, cr0, cr5, cr0, {0}
    2e7c:	01000007 	tsteq	r0, r7
    2e80:	0000250e 	andeq	r2, r0, lr, lsl #10
    2e84:	074c0500 	strbeq	r0, [ip, -r0, lsl #10]
    2e88:	0e010000 	cdpeq	0, 0, cr0, cr1, cr0, {0}
    2e8c:	00000025 	andeq	r0, r0, r5, lsr #32
    2e90:	00003306 	andeq	r3, r0, r6, lsl #6
    2e94:	070f0100 	streq	r0, [pc, -r0, lsl #2]
    2e98:	00737362 	rsbseq	r7, r3, r2, ror #6
    2e9c:	00e11101 	rsceq	r1, r1, r1, lsl #2
    2ea0:	0dcc0000 	stcleq	0, cr0, [ip]
    2ea4:	67080000 	strvs	r0, [r8, -r0]
    2ea8:	01000007 	tsteq	r0, r7
    2eac:	0000e112 	andeq	lr, r0, r2, lsl r1
    2eb0:	95900900 	ldrls	r0, [r0, #2304]	; 0x900
    2eb4:	00fd0000 	rscseq	r0, sp, r0
    2eb8:	94090000 	strls	r0, [r9], #-0
    2ebc:	04000095 	streq	r0, [r0], #-149	; 0x95
    2ec0:	09000001 	stmdbeq	r0, {r0}
    2ec4:	00009598 	muleq	r0, r8, r5
    2ec8:	0000010b 	andeq	r0, r0, fp, lsl #2
    2ecc:	25040a00 	strcs	r0, [r4, #-2560]	; 0xa00
    2ed0:	05000000 	streq	r0, [r0, #-0]
    2ed4:	0000073e 	andeq	r0, r0, lr, lsr r7
    2ed8:	00250e01 	eoreq	r0, r5, r1, lsl #28
    2edc:	4c050000 	stcmi	0, cr0, [r5], {-0}
    2ee0:	01000007 	tsteq	r0, r7
    2ee4:	0000250e 	andeq	r2, r0, lr, lsl #10
    2ee8:	07580600 	ldrbeq	r0, [r8, -r0, lsl #12]
    2eec:	da020000 	ble	82ef4 <__bss_end__+0x7877c>
    2ef0:	00003306 	andeq	r3, r0, r6, lsl #6
    2ef4:	06d70200 	ldrbeq	r0, [r7], r0, lsl #4
    2ef8:	00000080 	andeq	r0, r0, r0, lsl #1
    2efc:	3e006502 	cfsh32cc	mvfx6, mvfx0, #2
    2f00:	04000001 	streq	r0, [r0], #-1
    2f04:	000df600 	andeq	pc, sp, r0, lsl #12
    2f08:	6b010400 	blvs	43f10 <__bss_end__+0x39798>
    2f0c:	01000005 	tsteq	r0, r5
    2f10:	0000078a 	andeq	r0, r0, sl, lsl #15
    2f14:	000005d6 	ldrdeq	r0, [r0], -r6
    2f18:	000095a0 	andeq	r9, r0, r0, lsr #11
    2f1c:	00000044 	andeq	r0, r0, r4, asr #32
    2f20:	00000bb2 			; <UNDEFINED> instruction: 0x00000bb2
    2f24:	69050402 	stmdbvs	r5, {r1, sl}
    2f28:	0300746e 	movweq	r7, #1134	; 0x46e
    2f2c:	016c0704 	cmneq	ip, r4, lsl #14
    2f30:	01030000 	mrseq	r0, (UNDEF: 3)
    2f34:	00007406 	andeq	r7, r0, r6, lsl #8
    2f38:	05020300 	streq	r0, [r2, #-768]	; 0x300
    2f3c:	000000c0 	andeq	r0, r0, r0, asr #1
    2f40:	9c050403 	cfstrsls	mvf0, [r5], {3}
    2f44:	03000001 	movweq	r0, #1
    2f48:	01970508 	orrseq	r0, r7, r8, lsl #10
    2f4c:	01030000 	mrseq	r0, (UNDEF: 3)
    2f50:	00007208 	andeq	r7, r0, r8, lsl #4
    2f54:	07020300 	streq	r0, [r2, -r0, lsl #6]
    2f58:	0000008d 	andeq	r0, r0, sp, lsl #1
    2f5c:	67070403 	strvs	r0, [r7, -r3, lsl #8]
    2f60:	03000001 	movweq	r0, #1
    2f64:	01620708 	cmneq	r2, r8, lsl #14
    2f68:	04030000 	streq	r0, [r3], #-0
    2f6c:	00018e07 	andeq	r8, r1, r7, lsl #28
    2f70:	08010300 	stmdaeq	r1, {r8, r9}
    2f74:	0000007b 	andeq	r0, r0, fp, ror r0
    2f78:	007f0404 	rsbseq	r0, pc, r4, lsl #8
    2f7c:	72050000 	andvc	r0, r5, #0
    2f80:	06000000 	streq	r0, [r0], -r0
    2f84:	000007ab 	andeq	r0, r0, fp, lsr #15
    2f88:	95a00201 	strls	r0, [r0, #513]!	; 0x201
    2f8c:	00440000 	subeq	r0, r4, r0
    2f90:	9c010000 	stcls	0, cr0, [r1], {-0}
    2f94:	00000108 	andeq	r0, r0, r8, lsl #2
    2f98:	00637007 	rsbeq	r7, r3, r7
    2f9c:	002c0201 	eoreq	r0, ip, r1, lsl #4
    2fa0:	0dec0000 	stcleq	0, cr0, [ip]
    2fa4:	ca080000 	bgt	202fac <__bss_end__+0x1f8834>
    2fa8:	18000000 	stmdane	r0, {}	; <UNPREDICTABLE>
    2fac:	05000001 	streq	r0, [r0, #-1]
    2fb0:	00a23803 	adceq	r3, r2, r3, lsl #16
    2fb4:	95b00900 	ldrls	r0, [r0, #2304]!	; 0x900
    2fb8:	011d0000 	tsteq	sp, r0
    2fbc:	d00a0000 	andle	r0, sl, r0
    2fc0:	24000095 	strcs	r0, [r0], #-149	; 0x95
    2fc4:	fe000001 	cdp2	0, 0, cr0, cr0, cr1, {0}
    2fc8:	0b000000 	bleq	2fd0 <__code_start__-0x5030>
    2fcc:	32015301 	andcc	r5, r1, #67108864	; 0x4000000
    2fd0:	0552010b 	ldrbeq	r0, [r2, #-267]	; 0x10b
    2fd4:	00a23803 	adceq	r3, r2, r3, lsl #16
    2fd8:	51010b00 	tstpl	r1, r0, lsl #22
    2fdc:	a28c0305 	addge	r0, ip, #335544320	; 0x14000000
    2fe0:	010b0000 	mrseq	r0, (UNDEF: 11)
    2fe4:	50030550 	andpl	r0, r3, r0, asr r5
    2fe8:	0b0000a2 	bleq	3278 <__code_start__-0x4d88>
    2fec:	02047d02 	andeq	r7, r4, #2, 26	; 0x80
    2ff0:	020b0074 	andeq	r0, fp, #116	; 0x74
    2ff4:	0305007d 	movweq	r0, #20605	; 0x507d
    2ff8:	0000a2b0 			; <UNDEFINED> instruction: 0x0000a2b0
    2ffc:	95d40900 	ldrbls	r0, [r4, #2304]	; 0x900
    3000:	013a0000 	teqeq	sl, r0
    3004:	0c000000 	stceq	0, cr0, [r0], {-0}
    3008:	00000072 	andeq	r0, r0, r2, ror r0
    300c:	00000118 	andeq	r0, r0, r8, lsl r1
    3010:	00006b0d 	andeq	r6, r0, sp, lsl #22
    3014:	05001500 	streq	r1, [r0, #-1280]	; 0x500
    3018:	00000108 	andeq	r0, r0, r8, lsl #2
    301c:	0002720e 	andeq	r7, r2, lr, lsl #4
    3020:	0f1e0200 	svceq	0x001e0200
    3024:	000005c5 	andeq	r0, r0, r5, asr #11
    3028:	00252902 	eoreq	r2, r5, r2, lsl #18
    302c:	013a0000 	teqeq	sl, r0
    3030:	79100000 	ldmdbvc	r0, {}	; <UNPREDICTABLE>
    3034:	11000000 	mrsne	r0, (UNDEF: 0)
    3038:	00800e00 	addeq	r0, r0, r0, lsl #28
    303c:	65020000 	strvs	r0, [r2, #-0]
    3040:	00013e00 	andeq	r3, r1, r0, lsl #28
    3044:	ce000400 	cfcpysgt	mvf0, mvf0
    3048:	0400000e 	streq	r0, [r0], #-14
    304c:	00056b01 	andeq	r6, r5, r1, lsl #22
    3050:	07ce0100 	strbeq	r0, [lr, r0, lsl #2]
    3054:	05d60000 	ldrbeq	r0, [r6]
    3058:	95e40000 	strbls	r0, [r4, #0]!
    305c:	00440000 	subeq	r0, r4, r0
    3060:	0c580000 	mraeq	r0, r8, acc0
    3064:	04020000 	streq	r0, [r2], #-0
    3068:	746e6905 	strbtvc	r6, [lr], #-2309	; 0x905
    306c:	07040300 	streq	r0, [r4, -r0, lsl #6]
    3070:	0000016c 	andeq	r0, r0, ip, ror #2
    3074:	74060103 	strvc	r0, [r6], #-259	; 0x103
    3078:	03000000 	movweq	r0, #0
    307c:	00c00502 	sbceq	r0, r0, r2, lsl #10
    3080:	04030000 	streq	r0, [r3], #-0
    3084:	00019c05 	andeq	r9, r1, r5, lsl #24
    3088:	05080300 	streq	r0, [r8, #-768]	; 0x300
    308c:	00000197 	muleq	r0, r7, r1
    3090:	72080103 	andvc	r0, r8, #-1073741824	; 0xc0000000
    3094:	03000000 	movweq	r0, #0
    3098:	008d0702 	addeq	r0, sp, r2, lsl #14
    309c:	04030000 	streq	r0, [r3], #-0
    30a0:	00016707 	andeq	r6, r1, r7, lsl #14
    30a4:	07080300 	streq	r0, [r8, -r0, lsl #6]
    30a8:	00000162 	andeq	r0, r0, r2, ror #2
    30ac:	8e070403 	cdphi	4, 0, cr0, cr7, cr3, {0}
    30b0:	03000001 	movweq	r0, #1
    30b4:	007b0801 	rsbseq	r0, fp, r1, lsl #16
    30b8:	04040000 	streq	r0, [r4], #-0
    30bc:	0000007f 	andeq	r0, r0, pc, ror r0
    30c0:	00007205 	andeq	r7, r0, r5, lsl #4
    30c4:	07c10600 	strbeq	r0, [r1, r0, lsl #12]
    30c8:	02010000 	andeq	r0, r1, #0
    30cc:	000095e4 	andeq	r9, r0, r4, ror #11
    30d0:	00000044 	andeq	r0, r0, r4, asr #32
    30d4:	01089c01 	tsteq	r8, r1, lsl #24
    30d8:	70070000 	andvc	r0, r7, r0
    30dc:	02010063 	andeq	r0, r1, #99	; 0x63
    30e0:	0000002c 	andeq	r0, r0, ip, lsr #32
    30e4:	00000e0a 	andeq	r0, r0, sl, lsl #28
    30e8:	0000ca08 	andeq	ip, r0, r8, lsl #20
    30ec:	00011800 	andeq	r1, r1, r0, lsl #16
    30f0:	b8030500 	stmdalt	r3, {r8, sl}
    30f4:	090000a2 	stmdbeq	r0, {r1, r5, r7}
    30f8:	000095f4 	strdeq	r9, [r0], -r4
    30fc:	0000011d 	andeq	r0, r0, sp, lsl r1
    3100:	0096140a 	addseq	r1, r6, sl, lsl #8
    3104:	00012400 	andeq	r2, r1, r0, lsl #8
    3108:	0000fe00 	andeq	pc, r0, r0, lsl #28
    310c:	53010b00 	movwpl	r0, #6912	; 0x1b00
    3110:	010b3201 	tsteq	fp, r1, lsl #4
    3114:	b8030552 	stmdalt	r3, {r1, r4, r6, r8, sl}
    3118:	0b0000a2 	bleq	33a8 <__code_start__-0x4c58>
    311c:	03055101 	movweq	r5, #20737	; 0x5101
    3120:	0000a2c8 	andeq	sl, r0, r8, asr #5
    3124:	0550010b 	ldrbeq	r0, [r0, #-267]	; 0x10b
    3128:	00a25003 	adceq	r5, r2, r3
    312c:	7d020b00 	vstrvc	d0, [r2, #-0]
    3130:	00740204 	rsbseq	r0, r4, r4, lsl #4
    3134:	007d020b 	rsbseq	r0, sp, fp, lsl #4
    3138:	a2ec0305 	rscge	r0, ip, #335544320	; 0x14000000
    313c:	09000000 	stmdbeq	r0, {}	; <UNPREDICTABLE>
    3140:	00009618 	andeq	r9, r0, r8, lsl r6
    3144:	0000013a 	andeq	r0, r0, sl, lsr r1
    3148:	00720c00 	rsbseq	r0, r2, r0, lsl #24
    314c:	01180000 	tsteq	r8, r0
    3150:	6b0d0000 	blvs	343158 <__bss_end__+0x3389e0>
    3154:	0c000000 	stceq	0, cr0, [r0], {-0}
    3158:	01080500 	tsteq	r8, r0, lsl #10
    315c:	720e0000 	andvc	r0, lr, #0
    3160:	02000002 	andeq	r0, r0, #2
    3164:	05c50f1e 	strbeq	r0, [r5, #3870]	; 0xf1e
    3168:	29020000 	stmdbcs	r2, {}	; <UNPREDICTABLE>
    316c:	00000025 	andeq	r0, r0, r5, lsr #32
    3170:	0000013a 	andeq	r0, r0, sl, lsr r1
    3174:	00007910 	andeq	r7, r0, r0, lsl r9
    3178:	0e001100 	adfeqs	f1, f0, f0
    317c:	00000080 	andeq	r0, r0, r0, lsl #1
    3180:	3e006502 	cfsh32cc	mvfx6, mvfx0, #2
    3184:	04000001 	streq	r0, [r0], #-1
    3188:	000fa600 	andeq	sl, pc, r0, lsl #12
    318c:	6b010400 	blvs	44194 <__bss_end__+0x39a1c>
    3190:	01000005 	tsteq	r0, r5
    3194:	000007f0 	strdeq	r0, [r0], -r0	; <UNPREDICTABLE>
    3198:	000005d6 	ldrdeq	r0, [r0], -r6
    319c:	00009628 	andeq	r9, r0, r8, lsr #12
    31a0:	00000044 	andeq	r0, r0, r4, asr #32
    31a4:	00000cff 	strdeq	r0, [r0], -pc	; <UNPREDICTABLE>
    31a8:	69050402 	stmdbvs	r5, {r1, sl}
    31ac:	0300746e 	movweq	r7, #1134	; 0x46e
    31b0:	016c0704 	cmneq	ip, r4, lsl #14
    31b4:	01030000 	mrseq	r0, (UNDEF: 3)
    31b8:	00007406 	andeq	r7, r0, r6, lsl #8
    31bc:	05020300 	streq	r0, [r2, #-768]	; 0x300
    31c0:	000000c0 	andeq	r0, r0, r0, asr #1
    31c4:	9c050403 	cfstrsls	mvf0, [r5], {3}
    31c8:	03000001 	movweq	r0, #1
    31cc:	01970508 	orrseq	r0, r7, r8, lsl #10
    31d0:	01030000 	mrseq	r0, (UNDEF: 3)
    31d4:	00007208 	andeq	r7, r0, r8, lsl #4
    31d8:	07020300 	streq	r0, [r2, -r0, lsl #6]
    31dc:	0000008d 	andeq	r0, r0, sp, lsl #1
    31e0:	67070403 	strvs	r0, [r7, -r3, lsl #8]
    31e4:	03000001 	movweq	r0, #1
    31e8:	01620708 	cmneq	r2, r8, lsl #14
    31ec:	04030000 	streq	r0, [r3], #-0
    31f0:	00018e07 	andeq	r8, r1, r7, lsl #28
    31f4:	08010300 	stmdaeq	r1, {r8, r9}
    31f8:	0000007b 	andeq	r0, r0, fp, ror r0
    31fc:	007f0404 	rsbseq	r0, pc, r4, lsl #8
    3200:	72050000 	andvc	r0, r5, #0
    3204:	06000000 	streq	r0, [r0], -r0
    3208:	0000081b 	andeq	r0, r0, fp, lsl r8
    320c:	96280201 	strtls	r0, [r8], -r1, lsl #4
    3210:	00440000 	subeq	r0, r4, r0
    3214:	9c010000 	stcls	0, cr0, [r1], {-0}
    3218:	00000108 	andeq	r0, r0, r8, lsl #2
    321c:	00637007 	rsbeq	r7, r3, r7
    3220:	002c0201 	eoreq	r0, ip, r1, lsl #4
    3224:	0e280000 	cdpeq	0, 2, cr0, cr8, cr0, {0}
    3228:	ca080000 	bgt	203230 <__bss_end__+0x1f8ab8>
    322c:	18000000 	stmdane	r0, {}	; <UNPREDICTABLE>
    3230:	05000001 	streq	r0, [r0, #-1]
    3234:	00a2f403 	adceq	pc, r2, r3, lsl #8
    3238:	96380900 	ldrtls	r0, [r8], -r0, lsl #18
    323c:	011d0000 	tsteq	sp, r0
    3240:	580a0000 	stmdapl	sl, {}	; <UNPREDICTABLE>
    3244:	24000096 	strcs	r0, [r0], #-150	; 0x96
    3248:	fe000001 	cdp2	0, 0, cr0, cr0, cr1, {0}
    324c:	0b000000 	bleq	3254 <__code_start__-0x4dac>
    3250:	32015301 	andcc	r5, r1, #67108864	; 0x4000000
    3254:	0552010b 	ldrbeq	r0, [r2, #-267]	; 0x10b
    3258:	00a2f403 	adceq	pc, r2, r3, lsl #8
    325c:	51010b00 	tstpl	r1, r0, lsl #22
    3260:	a3140305 	tstge	r4, #335544320	; 0x14000000
    3264:	010b0000 	mrseq	r0, (UNDEF: 11)
    3268:	50030550 	andpl	r0, r3, r0, asr r5
    326c:	0b0000a2 	bleq	34fc <__code_start__-0x4b04>
    3270:	02047d02 	andeq	r7, r4, #2, 26	; 0x80
    3274:	020b0074 	andeq	r0, fp, #116	; 0x74
    3278:	0305007d 	movweq	r0, #20605	; 0x507d
    327c:	0000a340 	andeq	sl, r0, r0, asr #6
    3280:	965c0900 	ldrbls	r0, [ip], -r0, lsl #18
    3284:	013a0000 	teqeq	sl, r0
    3288:	0c000000 	stceq	0, cr0, [r0], {-0}
    328c:	00000072 	andeq	r0, r0, r2, ror r0
    3290:	00000118 	andeq	r0, r0, r8, lsl r1
    3294:	00006b0d 	andeq	r6, r0, sp, lsl #22
    3298:	05001c00 	streq	r1, [r0, #-3072]	; 0xc00
    329c:	00000108 	andeq	r0, r0, r8, lsl #2
    32a0:	0002720e 	andeq	r7, r2, lr, lsl #4
    32a4:	0f1e0200 	svceq	0x001e0200
    32a8:	000005c5 	andeq	r0, r0, r5, asr #11
    32ac:	00252902 	eoreq	r2, r5, r2, lsl #18
    32b0:	013a0000 	teqeq	sl, r0
    32b4:	79100000 	ldmdbvc	r0, {}	; <UNPREDICTABLE>
    32b8:	11000000 	mrsne	r0, (UNDEF: 0)
    32bc:	00800e00 	addeq	r0, r0, r0, lsl #28
    32c0:	65020000 	strvs	r0, [r2, #-0]
    32c4:	00009800 	andeq	r9, r0, r0, lsl #16
    32c8:	7e000400 	cfcpysvc	mvf0, mvf0
    32cc:	04000010 	streq	r0, [r0], #-16
    32d0:	00056b01 	andeq	r6, r5, r1, lsl #22
    32d4:	08380100 	ldmdaeq	r8!, {r8}
    32d8:	05d60000 	ldrbeq	r0, [r6]
    32dc:	966c0000 	strbtls	r0, [ip], -r0
    32e0:	00080000 	andeq	r0, r8, r0
    32e4:	0daf0000 	stceq	0, cr0, [pc]	; 32ec <__code_start__-0x4d14>
    32e8:	04020000 	streq	r0, [r2], #-0
    32ec:	746e6905 	strbtvc	r6, [lr], #-2309	; 0x905
    32f0:	07040300 	streq	r0, [r4, -r0, lsl #6]
    32f4:	0000016c 	andeq	r0, r0, ip, ror #2
    32f8:	74060103 	strvc	r0, [r6], #-259	; 0x103
    32fc:	03000000 	movweq	r0, #0
    3300:	00c00502 	sbceq	r0, r0, r2, lsl #10
    3304:	04030000 	streq	r0, [r3], #-0
    3308:	00019c05 	andeq	r9, r1, r5, lsl #24
    330c:	05080300 	streq	r0, [r8, #-768]	; 0x300
    3310:	00000197 	muleq	r0, r7, r1
    3314:	72080103 	andvc	r0, r8, #-1073741824	; 0xc0000000
    3318:	03000000 	movweq	r0, #0
    331c:	008d0702 	addeq	r0, sp, r2, lsl #14
    3320:	04030000 	streq	r0, [r3], #-0
    3324:	00016707 	andeq	r6, r1, r7, lsl #14
    3328:	07080300 	streq	r0, [r8, -r0, lsl #6]
    332c:	00000162 	andeq	r0, r0, r2, ror #2
    3330:	8e070403 	cdphi	4, 0, cr0, cr7, cr3, {0}
    3334:	03000001 	movweq	r0, #1
    3338:	007b0801 	rsbseq	r0, fp, r1, lsl #16
    333c:	58040000 	stmdapl	r4, {}	; <UNPREDICTABLE>
    3340:	01000007 	tsteq	r0, r7
    3344:	00966c04 	addseq	r6, r6, r4, lsl #24
    3348:	00000400 	andeq	r0, r0, r0, lsl #8
    334c:	049c0100 	ldreq	r0, [ip], #256	; 0x100
    3350:	00000702 	andeq	r0, r0, r2, lsl #14
    3354:	96700501 	ldrbtls	r0, [r0], -r1, lsl #10
    3358:	00040000 	andeq	r0, r4, r0
    335c:	9c010000 	stcls	0, cr0, [r1], {-0}
    3360:	0001d700 	andeq	sp, r1, r0, lsl #14
    3364:	c0000400 	andgt	r0, r0, r0, lsl #8
    3368:	04000010 	streq	r0, [r0], #-16
    336c:	00056b01 	andeq	r6, r5, r1, lsl #22
    3370:	08f40100 	ldmeq	r4!, {r8}^
    3374:	05d60000 	ldrbeq	r0, [r6]
    3378:	96740000 	ldrbtls	r0, [r4], -r0
    337c:	006c0000 	rsbeq	r0, ip, r0
    3380:	0dfa0000 	ldcleq	0, cr0, [sl]
    3384:	04020000 	streq	r0, [r2], #-0
    3388:	746e6905 	strbtvc	r6, [lr], #-2309	; 0x905
    338c:	07040300 	streq	r0, [r4, -r0, lsl #6]
    3390:	0000016c 	andeq	r0, r0, ip, ror #2
    3394:	74060103 	strvc	r0, [r6], #-259	; 0x103
    3398:	03000000 	movweq	r0, #0
    339c:	00c00502 	sbceq	r0, r0, r2, lsl #10
    33a0:	04030000 	streq	r0, [r3], #-0
    33a4:	00019c05 	andeq	r9, r1, r5, lsl #24
    33a8:	05080300 	streq	r0, [r8, #-768]	; 0x300
    33ac:	00000197 	muleq	r0, r7, r1
    33b0:	72080103 	andvc	r0, r8, #-1073741824	; 0xc0000000
    33b4:	03000000 	movweq	r0, #0
    33b8:	008d0702 	addeq	r0, sp, r2, lsl #14
    33bc:	04030000 	streq	r0, [r3], #-0
    33c0:	00016707 	andeq	r6, r1, r7, lsl #14
    33c4:	07080300 	streq	r0, [r8, -r0, lsl #6]
    33c8:	00000162 	andeq	r0, r0, r2, ror #2
    33cc:	8e070403 	cdphi	4, 0, cr0, cr7, cr3, {0}
    33d0:	03000001 	movweq	r0, #1
    33d4:	007b0801 	rsbseq	r0, fp, r1, lsl #16
    33d8:	04040000 	streq	r0, [r4], #-0
    33dc:	00f01402 	rscseq	r1, r0, r2, lsl #8
    33e0:	0d050000 	stceq	0, cr0, [r5, #-0]
    33e4:	80000009 	andhi	r0, r0, r9
    33e8:	028082e4 	addeq	r8, r0, #228, 4	; 0x4000000e
    33ec:	00089305 	andeq	r9, r8, r5, lsl #6
    33f0:	82e48000 	rschi	r8, r4, #0
    33f4:	3a050280 	bcc	143dfc <__bss_end__+0x139684>
    33f8:	84000009 	strhi	r0, [r0], #-9
    33fc:	028082e4 	addeq	r8, r0, #228, 4	; 0x4000000e
    3400:	00085505 	andeq	r5, r8, r5, lsl #10
    3404:	82e48800 	rschi	r8, r4, #0, 16
    3408:	76050280 	strvc	r0, [r5], -r0, lsl #5
    340c:	8c000008 	stchi	0, cr0, [r0], {8}
    3410:	028082e4 	addeq	r8, r0, #228, 4	; 0x4000000e
    3414:	0008b705 	andeq	fp, r8, r5, lsl #14
    3418:	82e49000 	rschi	r9, r4, #0
    341c:	c5050280 	strgt	r0, [r5, #-640]	; 0x280
    3420:	94000008 	strls	r0, [r0], #-8
    3424:	028082e4 	addeq	r8, r0, #228, 4	; 0x4000000e
    3428:	0008a505 	andeq	sl, r8, r5, lsl #10
    342c:	82e49800 	rschi	r9, r4, #0, 16
    3430:	1c050280 	sfmne	f0, 4, [r5], {128}	; 0x80
    3434:	9c000009 	stcls	0, cr0, [r0], {9}
    3438:	028082e4 	addeq	r8, r0, #228, 4	; 0x4000000e
    343c:	00092b05 	andeq	r2, r9, r5, lsl #22
    3440:	82e4a000 	rschi	sl, r4, #0
    3444:	63050280 	movwvs	r0, #21120	; 0x5280
    3448:	a4000008 	strge	r0, [r0], #-8
    344c:	028082e4 	addeq	r8, r0, #228, 4	; 0x4000000e
    3450:	04640600 	strbteq	r0, [r4], #-1536	; 0x600
    3454:	1b010000 	blne	4345c <__bss_end__+0x38ce4>
    3458:	00009674 	andeq	r9, r0, r4, ror r6
    345c:	0000006c 	andeq	r0, r0, ip, rrx
    3460:	01a59c01 			; <UNDEFINED> instruction: 0x01a59c01
    3464:	82070000 	andhi	r0, r7, #0
    3468:	01000008 	tsteq	r0, r8
    346c:	00002c23 	andeq	r2, r0, r3, lsr #24
    3470:	08d30700 	ldmeq	r3, {r8, r9, sl}^
    3474:	24010000 	strcs	r0, [r1], #-0
    3478:	0000002c 	andeq	r0, r0, ip, lsr #32
    347c:	74736408 	ldrbtvc	r6, [r3], #-1032	; 0x408
    3480:	a5270100 	strge	r0, [r7, #-256]!	; 0x100
    3484:	00000001 	andeq	r0, r0, r1
    3488:	63727309 	cmnvs	r2, #603979776	; 0x24000000
    348c:	a5280100 	strge	r0, [r8, #-256]!	; 0x100
    3490:	0a000001 	beq	349c <__code_start__-0x4b64>
    3494:	2901006e 	stmdbcs	r1, {r1, r2, r3, r5, r6}
    3498:	0000002c 	andeq	r0, r0, ip, lsr #32
    349c:	a80b5001 	stmdage	fp, {r0, ip, lr}
    34a0:	24000096 	strcs	r0, [r0], #-150	; 0x96
    34a4:	58000000 	stmdapl	r0, {}	; <UNPREDICTABLE>
    34a8:	0c000001 	stceq	0, cr0, [r0], {1}
    34ac:	2a010069 	bcs	43658 <__bss_end__+0x38ee0>
    34b0:	00000025 	andeq	r0, r0, r5, lsr #32
    34b4:	00000e46 	andeq	r0, r0, r6, asr #28
    34b8:	967c0d00 	ldrbtls	r0, [ip], -r0, lsl #26
    34bc:	01c10000 	biceq	r0, r1, r0
    34c0:	880e0000 	stmdahi	lr, {}	; <UNPREDICTABLE>
    34c4:	c8000096 	stmdagt	r0, {r1, r2, r4, r7}
    34c8:	7e000001 	cdpvc	0, 0, cr0, cr0, cr1, {0}
    34cc:	0f000001 	svceq	0x00000001
    34d0:	09025101 	stmdbeq	r2, {r0, r8, ip, lr}
    34d4:	50010fff 	strdpl	r0, [r1], -pc	; <UNPREDICTABLE>
    34d8:	b21c0c05 	andslt	r0, ip, #1280	; 0x500
    34dc:	0e002000 	cdpeq	0, 0, cr2, cr0, cr0, {0}
    34e0:	00009694 	muleq	r0, r4, r6
    34e4:	000001c8 	andeq	r0, r0, r8, asr #3
    34e8:	0000019b 	muleq	r0, fp, r1
    34ec:	0251010f 	subseq	r0, r1, #-1073741821	; 0xc0000003
    34f0:	010fff09 	tsteq	pc, r9, lsl #30
    34f4:	200c0550 	andcs	r0, ip, r0, asr r5
    34f8:	002000b2 	strhteq	r0, [r0], -r2
    34fc:	0096980d 	addseq	r9, r6, sp, lsl #16
    3500:	0001c100 	andeq	ip, r1, r0, lsl #2
    3504:	04100000 	ldreq	r0, [r0], #-0
    3508:	0000002c 	andeq	r0, r0, ip, lsr #32
    350c:	00088207 	andeq	r8, r8, r7, lsl #4
    3510:	2c230100 	stfcss	f0, [r3], #-0
    3514:	07000000 	streq	r0, [r0, -r0]
    3518:	000008d3 	ldrdeq	r0, [r0], -r3
    351c:	002c2401 	eoreq	r2, ip, r1, lsl #8
    3520:	e8110000 	ldmda	r1, {}	; <UNPREDICTABLE>
    3524:	03000008 	movweq	r0, #8
    3528:	09161289 	ldmdbeq	r6, {r0, r3, r7, r9, ip}
    352c:	9b030000 	blls	c3534 <__bss_end__+0xb8dbc>
    3530:	00002c13 	andeq	r2, r0, r3, lsl ip
    3534:	002c1300 	eoreq	r1, ip, r0, lsl #6
    3538:	00000000 	andeq	r0, r0, r0
    353c:	000001ad 	andeq	r0, r0, sp, lsr #3
    3540:	11c60004 	bicne	r0, r6, r4
    3544:	01040000 	mrseq	r0, (UNDEF: 4)
    3548:	0000056b 	andeq	r0, r0, fp, ror #10
    354c:	00095601 	andeq	r5, r9, r1, lsl #12
    3550:	0005d600 	andeq	sp, r5, r0, lsl #12
	...
    355c:	000ec700 	andeq	ip, lr, r0, lsl #14
    3560:	05040200 	streq	r0, [r4, #-512]	; 0x200
    3564:	00746e69 	rsbseq	r6, r4, r9, ror #28
    3568:	6c070403 	cfstrsvs	mvf0, [r7], {3}
    356c:	03000001 	movweq	r0, #1
    3570:	00740601 	rsbseq	r0, r4, r1, lsl #12
    3574:	02030000 	andeq	r0, r3, #0
    3578:	0000c005 	andeq	ip, r0, r5
    357c:	05040300 	streq	r0, [r4, #-768]	; 0x300
    3580:	0000019c 	muleq	r0, ip, r1
    3584:	97050803 	strls	r0, [r5, -r3, lsl #16]
    3588:	03000001 	movweq	r0, #1
    358c:	00720801 	rsbseq	r0, r2, r1, lsl #16
    3590:	02030000 	andeq	r0, r3, #0
    3594:	00008d07 	andeq	r8, r0, r7, lsl #26
    3598:	07040300 	streq	r0, [r4, -r0, lsl #6]
    359c:	00000167 	andeq	r0, r0, r7, ror #2
    35a0:	62070803 	andvs	r0, r7, #196608	; 0x30000
    35a4:	03000001 	movweq	r0, #1
    35a8:	018e0704 	orreq	r0, lr, r4, lsl #14
    35ac:	01030000 	mrseq	r0, (UNDEF: 3)
    35b0:	00007b08 	andeq	r7, r0, r8, lsl #22
    35b4:	09480400 	stmdbeq	r8, {sl}^
    35b8:	0e010000 	cdpeq	0, 0, cr0, cr1, cr0, {0}
    35bc:	00000025 	andeq	r0, r0, r5, lsr #32
    35c0:	000096e0 	andeq	r9, r0, r0, ror #13
    35c4:	00000018 	andeq	r0, r0, r8, lsl r0
    35c8:	00a29c01 	adceq	r9, r2, r1, lsl #24
    35cc:	2b050000 	blcs	1435d4 <__bss_end__+0x138e5c>
    35d0:	01000005 	tsteq	r0, r5
    35d4:	00002c0f 	andeq	r2, r0, pc, lsl #24
    35d8:	000e6500 	andeq	r6, lr, r0, lsl #10
    35dc:	8a060000 	bhi	1835e4 <__bss_end__+0x178e6c>
    35e0:	01000009 	tsteq	r0, r9
    35e4:	0096f817 	addseq	pc, r6, r7, lsl r8	; <UNPREDICTABLE>
    35e8:	00001400 	andeq	r1, r0, r0, lsl #8
    35ec:	c79c0100 	ldrgt	r0, [ip, r0, lsl #2]
    35f0:	05000000 	streq	r0, [r0, #-0]
    35f4:	0000052b 	andeq	r0, r0, fp, lsr #10
    35f8:	002c1801 	eoreq	r1, ip, r1, lsl #16
    35fc:	0e840000 	cdpeq	0, 8, cr0, cr4, cr0, {0}
    3600:	06000000 	streq	r0, [r0], -r0
    3604:	0000072a 	andeq	r0, r0, sl, lsr #14
    3608:	970c1f01 	strls	r1, [ip, -r1, lsl #30]
    360c:	00480000 	subeq	r0, r8, r0
    3610:	9c010000 	stcls	0, cr0, [r1], {-0}
    3614:	00000177 	andeq	r0, r0, r7, ror r1
    3618:	0009a507 	andeq	sl, r9, r7, lsl #10
    361c:	772a0100 	strvc	r0, [sl, -r0, lsl #2]!
    3620:	1c000001 	stcne	0, cr0, [r0], {1}
    3624:	07201000 	streq	r1, [r0, -r0]!
    3628:	00000982 	andeq	r0, r0, r2, lsl #19
    362c:	01772b01 	cmneq	r7, r1, lsl #22
    3630:	00240000 	eoreq	r0, r4, r0
    3634:	99072010 	stmdbls	r7, {r4, sp}
    3638:	01000009 	tsteq	r0, r9
    363c:	0001772c 	andeq	r7, r1, ip, lsr #14
    3640:	00000000 	andeq	r0, r0, r0
    3644:	0969085a 	stmdbeq	r9!, {r1, r3, r4, r6, fp}^
    3648:	2d010000 	stccs	0, cr0, [r1, #-0]
    364c:	00000177 	andeq	r0, r0, r7, ror r1
    3650:	97140920 	ldrls	r0, [r4, -r0, lsr #18]
    3654:	00790000 	rsbseq	r0, r9, r0
    3658:	20090000 	andcs	r0, r9, r0
    365c:	a2000097 	andge	r0, r0, #151	; 0x97
    3660:	0a000000 	beq	3668 <__code_start__-0x4998>
    3664:	00009728 	andeq	r9, r0, r8, lsr #14
    3668:	0000018d 	andeq	r0, r0, sp, lsl #3
    366c:	0000013a 	andeq	r0, r0, sl, lsr r1
    3670:	0150010b 	cmpeq	r0, fp, lsl #2
    3674:	340a004e 	strcc	r0, [sl], #-78	; 0x4e
    3678:	9e000097 	mcrls	0, 0, r0, cr0, cr7, {4}
    367c:	5a000001 	bpl	3688 <__code_start__-0x4978>
    3680:	0b000001 	bleq	368c <__code_start__-0x4974>
    3684:	0c055101 	stfeqs	f5, [r5], {1}
    3688:	5a000001 	bpl	3694 <__code_start__-0x496c>
    368c:	0550010b 	ldrbeq	r0, [r0, #-267]	; 0x10b
    3690:	1000240c 	andne	r2, r0, ip, lsl #8
    3694:	400c0020 	andmi	r0, ip, r0, lsr #32
    3698:	9e000097 	mcrls	0, 0, r0, cr0, cr7, {4}
    369c:	0b000001 	bleq	36a8 <__code_start__-0x4958>
    36a0:	0c055101 	stfeqs	f5, [r5], {1}
    36a4:	5a000020 	bpl	372c <__code_start__-0x48d4>
    36a8:	0550010b 	ldrbeq	r0, [r0, #-267]	; 0x10b
    36ac:	10001c0c 	andne	r1, r0, ip, lsl #24
    36b0:	0d000020 	stceq	0, cr0, [r0, #-128]	; 0xffffff80
    36b4:	00000025 	andeq	r0, r0, r5, lsr #32
    36b8:	00094b08 	andeq	r4, r9, r8, lsl #22
    36bc:	880d0100 	stmdahi	sp, {r8}
    36c0:	10000001 	andne	r0, r0, r1
    36c4:	00002c0d 	andeq	r2, r0, sp, lsl #24
    36c8:	07350e00 	ldreq	r0, [r5, -r0, lsl #28]!
    36cc:	4f020000 	svcmi	0x00020000
    36d0:	0000019e 	muleq	r0, lr, r1
    36d4:	00002c0f 	andeq	r2, r0, pc, lsl #24
    36d8:	16100000 	ldrne	r0, [r0], -r0
    36dc:	02000009 	andeq	r0, r0, #9
    36e0:	002c0f9b 	mlaeq	ip, fp, pc, r0	; <UNPREDICTABLE>
    36e4:	2c0f0000 	stccs	0, cr0, [pc], {-0}
    36e8:	00000000 	andeq	r0, r0, r0
    36ec:	0001f700 	andeq	pc, r1, r0, lsl #14
    36f0:	b4000400 	strlt	r0, [r0], #-1024	; 0x400
    36f4:	04000012 	streq	r0, [r0], #-18
    36f8:	00056b01 	andeq	r6, r5, r1, lsl #22
    36fc:	09ca0100 	stmibeq	sl, {r8}^
    3700:	05d60000 	ldrbeq	r0, [r6]
    3704:	97540000 	ldrbls	r0, [r4, -r0]
    3708:	00980000 	addseq	r0, r8, r0
    370c:	0f6d0000 	svceq	0x006d0000
    3710:	04020000 	streq	r0, [r2], #-0
    3714:	746e6905 	strbtvc	r6, [lr], #-2309	; 0x905
    3718:	07040300 	streq	r0, [r4, -r0, lsl #6]
    371c:	0000016c 	andeq	r0, r0, ip, ror #2
    3720:	74060103 	strvc	r0, [r6], #-259	; 0x103
    3724:	03000000 	movweq	r0, #0
    3728:	00c00502 	sbceq	r0, r0, r2, lsl #10
    372c:	04030000 	streq	r0, [r3], #-0
    3730:	00019c05 	andeq	r9, r1, r5, lsl #24
    3734:	05080300 	streq	r0, [r8, #-768]	; 0x300
    3738:	00000197 	muleq	r0, r7, r1
    373c:	72080103 	andvc	r0, r8, #-1073741824	; 0xc0000000
    3740:	03000000 	movweq	r0, #0
    3744:	008d0702 	addeq	r0, sp, r2, lsl #14
    3748:	04030000 	streq	r0, [r3], #-0
    374c:	00016707 	andeq	r6, r1, r7, lsl #14
    3750:	07080300 	streq	r0, [r8, -r0, lsl #6]
    3754:	00000162 	andeq	r0, r0, r2, ror #2
    3758:	8e070403 	cdphi	4, 0, cr0, cr7, cr3, {0}
    375c:	03000001 	movweq	r0, #1
    3760:	007b0801 	rsbseq	r0, fp, r1, lsl #16
    3764:	e8040000 	stmda	r4, {}	; <UNPREDICTABLE>
    3768:	01000009 	tsteq	r0, r9
    376c:	00975405 	addseq	r5, r7, r5, lsl #8
    3770:	00001c00 	andeq	r1, r0, r0, lsl #24
    3774:	9e9c0100 	fmllse	f0, f4, f0
    3778:	05000000 	streq	r0, [r0, #-0]
    377c:	000009e2 	andeq	r0, r0, r2, ror #19
    3780:	002c0501 	eoreq	r0, ip, r1, lsl #10
    3784:	0eae0000 	cdpeq	0, 10, cr0, cr14, cr0, {0}
    3788:	06000000 	streq	r0, [r0], -r0
    378c:	000009ad 	andeq	r0, r0, sp, lsr #19
    3790:	002c1101 	eoreq	r1, ip, r1, lsl #2
    3794:	97700000 	ldrbls	r0, [r0, -r0]!
    3798:	00140000 	andseq	r0, r4, r0
    379c:	9c010000 	stcls	0, cr0, [r1], {-0}
    37a0:	000000cb 	andeq	r0, r0, fp, asr #1
    37a4:	00977c07 	addseq	r7, r7, r7, lsl #24
    37a8:	0001de00 	andeq	sp, r1, r0, lsl #28
    37ac:	50010800 	andpl	r0, r1, r0, lsl #16
    37b0:	30040c05 	andcc	r0, r4, r5, lsl #24
    37b4:	00002000 	andeq	r2, r0, r0
    37b8:	0009fe06 	andeq	pc, r9, r6, lsl #28
    37bc:	2c160100 	ldfcss	f0, [r6], {-0}
    37c0:	84000000 	strhi	r0, [r0], #-0
    37c4:	1c000097 	stcne	0, cr0, [r0], {151}	; 0x97
    37c8:	01000000 	mrseq	r0, (UNDEF: 0)
    37cc:	00010d9c 	muleq	r1, ip, sp
    37d0:	00750900 	rsbseq	r0, r5, r0, lsl #18
    37d4:	002c1a01 	eoreq	r1, ip, r1, lsl #20
    37d8:	0ee20000 	cdpeq	0, 14, cr0, cr2, cr0, {0}
    37dc:	8c0a0000 	stchi	0, cr0, [sl], {-0}
    37e0:	f3000097 	vqadd.u8	d0, d16, d7
    37e4:	0a000001 	beq	37f0 <__code_start__-0x4810>
    37e8:	00009790 	muleq	r0, r0, r7
    37ec:	0000009e 	muleq	r0, lr, r0
    37f0:	0097980a 	addseq	r9, r7, sl, lsl #16
    37f4:	0001f300 	andeq	pc, r1, r0, lsl #6
    37f8:	f5040000 			; <UNDEFINED> instruction: 0xf5040000
    37fc:	01000009 	tsteq	r0, r9
    3800:	0097a01f 	addseq	sl, r7, pc, lsl r0
    3804:	00002400 	andeq	r2, r0, r0, lsl #8
    3808:	6b9c0100 	blvs	fe703c10 <__bss_end__+0xfe6f9498>
    380c:	0b000001 	bleq	3818 <__code_start__-0x47e8>
    3810:	01007375 	tsteq	r0, r5, ror r3
    3814:	00002c1f 	andeq	r2, r0, pc, lsl ip
    3818:	000f0000 	andeq	r0, pc, r0
    381c:	62720c00 	rsbsvs	r0, r2, #0, 24
    3820:	2c200100 	stfcss	f0, [r0], #-0
    3824:	01000000 	mrseq	r0, (UNDEF: 0)
    3828:	97b00d54 	sbfxls	r0, r4, #26, #17
    382c:	00100000 	andseq	r0, r0, r0
    3830:	01610000 	cmneq	r1, r0
    3834:	72090000 	andvc	r0, r9, #0
    3838:	22010061 	andcs	r0, r1, #97	; 0x61
    383c:	0000002c 	andeq	r0, r0, ip, lsr #32
    3840:	00000f1e 	andeq	r0, r0, lr, lsl pc
    3844:	0097b40a 	addseq	fp, r7, sl, lsl #8
    3848:	0000cb00 	andeq	ip, r0, r0, lsl #22
    384c:	ac0a0000 	stcge	0, cr0, [sl], {-0}
    3850:	cb000097 	blgt	3ab4 <__code_start__-0x454c>
    3854:	00000000 	andeq	r0, r0, r0
    3858:	00073504 	andeq	r3, r7, r4, lsl #10
    385c:	c4280100 	strtgt	r0, [r8], #-256	; 0x100
    3860:	14000097 	strne	r0, [r0], #-151	; 0x97
    3864:	01000000 	mrseq	r0, (UNDEF: 0)
    3868:	0001a49c 	muleq	r1, ip, r4
    386c:	736d0b00 	cmnvc	sp, #0, 22
    3870:	2c280100 	stfcss	f0, [r8], #-0
    3874:	31000000 	mrscc	r0, (UNDEF: 0)
    3878:	0700000f 	streq	r0, [r0, -pc]
    387c:	000097d4 	ldrdeq	r9, [r0], -r4
    3880:	0000010d 	andeq	r0, r0, sp, lsl #2
    3884:	07500108 	ldrbeq	r0, [r0, -r8, lsl #2]
    3888:	0a5001f3 	beq	140405c <__bss_end__+0x13f98e4>
    388c:	001e03e8 	andseq	r0, lr, r8, ror #7
    3890:	09c00400 	stmibeq	r0, {sl}^
    3894:	2b010000 	blcs	4389c <__bss_end__+0x39124>
    3898:	000097d8 	ldrdeq	r9, [r0], -r8
    389c:	00000014 	andeq	r0, r0, r4, lsl r0
    38a0:	01de9c01 	bicseq	r9, lr, r1, lsl #24
    38a4:	730b0000 	movwvc	r0, #45056	; 0xb000
    38a8:	01006365 	tsteq	r0, r5, ror #6
    38ac:	00002c2b 	andeq	r2, r0, fp, lsr #24
    38b0:	000f5200 	andeq	r5, pc, r0, lsl #4
    38b4:	97e80700 	strbls	r0, [r8, r0, lsl #14]!
    38b8:	016b0000 	cmneq	fp, r0
    38bc:	01080000 	mrseq	r0, (UNDEF: 8)
    38c0:	01f30750 	mvnseq	r0, r0, asr r7
    38c4:	03e80a50 	mvneq	r0, #80, 20	; 0x50000
    38c8:	0e00001e 	mcreq	0, 0, r0, cr0, cr14, {0}
    38cc:	000009dc 	ldrdeq	r0, [r0], -ip
    38d0:	002ca702 	eoreq	sl, ip, r2, lsl #14
    38d4:	01f30000 	mvnseq	r0, r0
    38d8:	2c0f0000 	stccs	0, cr0, [pc], {-0}
    38dc:	00000000 	andeq	r0, r0, r0
    38e0:	0008e810 	andeq	lr, r8, r0, lsl r8
    38e4:	00890200 	addeq	r0, r9, r0, lsl #4
    38e8:	00000cc5 	andeq	r0, r0, r5, asr #25
    38ec:	13aa0004 			; <UNDEFINED> instruction: 0x13aa0004
    38f0:	01040000 	mrseq	r0, (UNDEF: 4)
    38f4:	00000da9 	andeq	r0, r0, r9, lsr #27
    38f8:	000b0c0c 	andeq	r0, fp, ip, lsl #24
    38fc:	000b2700 	andeq	r2, fp, r0, lsl #14
    3900:	00985000 	addseq	r5, r8, r0
    3904:	00017800 	andeq	r7, r1, r0, lsl #16
    3908:	00101f00 	andseq	r1, r0, r0, lsl #30
    390c:	05040200 	streq	r0, [r4, #-512]	; 0x200
    3910:	00746e69 	rsbseq	r6, r4, r9, ror #28
    3914:	6c070403 	cfstrsvs	mvf0, [r7], {3}
    3918:	04000001 	streq	r0, [r0], #-1
    391c:	0000002c 	andeq	r0, r0, ip, lsr #32
    3920:	74060103 	strvc	r0, [r6], #-259	; 0x103
    3924:	03000000 	movweq	r0, #0
    3928:	00c00502 	sbceq	r0, r0, r2, lsl #10
    392c:	04030000 	streq	r0, [r3], #-0
    3930:	00019c05 	andeq	r9, r1, r5, lsl #24
    3934:	05080300 	streq	r0, [r8, #-768]	; 0x300
    3938:	00000197 	muleq	r0, r7, r1
    393c:	72080103 	andvc	r0, r8, #-1073741824	; 0xc0000000
    3940:	03000000 	movweq	r0, #0
    3944:	008d0702 	addeq	r0, sp, r2, lsl #14
    3948:	04030000 	streq	r0, [r3], #-0
    394c:	00016707 	andeq	r6, r1, r7, lsl #14
    3950:	07080300 	streq	r0, [r8, -r0, lsl #6]
    3954:	00000162 	andeq	r0, r0, r2, ror #2
    3958:	000cbe05 	andeq	fp, ip, r5, lsl #28
    395c:	25070200 	strcs	r0, [r7, #-512]	; 0x200
    3960:	05000000 	streq	r0, [r0, #-0]
    3964:	00000ca8 	andeq	r0, r0, r8, lsr #25
    3968:	00462c03 	subeq	r2, r6, r3, lsl #24
    396c:	84050000 	strhi	r0, [r5], #-0
    3970:	0300000d 	movweq	r0, #13
    3974:	00004672 	andeq	r4, r0, r2, ror r6
    3978:	0c4c0600 	mcrreq	6, 0, r0, ip, cr0
    397c:	65040000 	strvs	r0, [r4, #-0]
    3980:	00002c01 	andeq	r2, r0, r1, lsl #24
    3984:	03040700 	movweq	r0, #18176	; 0x4700
    3988:	0000bca6 	andeq	fp, r0, r6, lsr #25
    398c:	0c370800 	ldceq	8, cr0, [r7], #-0
    3990:	a8030000 	stmdage	r3, {}	; <UNPREDICTABLE>
    3994:	00000091 	muleq	r0, r1, r0
    3998:	000bdf08 	andeq	sp, fp, r8, lsl #30
    399c:	bca90300 	stclt	3, cr0, [r9]
    39a0:	00000000 	andeq	r0, r0, r0
    39a4:	00005409 	andeq	r5, r0, r9, lsl #8
    39a8:	0000cc00 	andeq	ip, r0, r0, lsl #24
    39ac:	00cc0a00 	sbceq	r0, ip, r0, lsl #20
    39b0:	00030000 	andeq	r0, r3, r0
    39b4:	8e070403 	cdphi	4, 0, cr0, cr7, cr3, {0}
    39b8:	0b000001 	bleq	39c4 <__code_start__-0x463c>
    39bc:	f4a30308 	vld4.8	{d0[0],d1[0],d2[0],d3[0]}, [r3], r8
    39c0:	0c000000 	stceq	0, cr0, [r0], {-0}
    39c4:	00000d69 	andeq	r0, r0, r9, ror #26
    39c8:	0025a503 	eoreq	sl, r5, r3, lsl #10
    39cc:	0c000000 	stceq	0, cr0, [r0], {-0}
    39d0:	00000d71 	andeq	r0, r0, r1, ror sp
    39d4:	009daa03 	addseq	sl, sp, r3, lsl #20
    39d8:	00040000 	andeq	r0, r4, r0
    39dc:	000cfc05 	andeq	pc, ip, r5, lsl #24
    39e0:	d3ab0300 			; <UNDEFINED> instruction: 0xd3ab0300
    39e4:	05000000 	streq	r0, [r0, #-0]
    39e8:	00000ba8 	andeq	r0, r0, r8, lsr #23
    39ec:	0070af03 	rsbseq	sl, r0, r3, lsl #30
    39f0:	040d0000 	streq	r0, [sp], #-0
    39f4:	0112040e 	tsteq	r2, lr, lsl #8
    39f8:	01030000 	mrseq	r0, (UNDEF: 3)
    39fc:	00007b08 	andeq	r7, r0, r8, lsl #22
    3a00:	01120f00 	tsteq	r2, r0, lsl #30
    3a04:	26050000 	strcs	r0, [r5], -r0
    3a08:	0500000e 	streq	r0, [r0, #-14]
    3a0c:	00006216 	andeq	r6, r0, r6, lsl r2
    3a10:	0bb91000 	bleq	fee47a18 <__bss_end__+0xfee3d2a0>
    3a14:	05180000 	ldreq	r0, [r8, #-0]
    3a18:	00017c2d 	andeq	r7, r1, sp, lsr #24
    3a1c:	0d1d0c00 	ldceq	12, cr0, [sp, #-0]
    3a20:	2f050000 	svccs	0x00050000
    3a24:	0000017c 	andeq	r0, r0, ip, ror r1
    3a28:	6b5f1100 	blvs	17c7e30 <__bss_end__+0x17bd6b8>
    3a2c:	25300500 	ldrcs	r0, [r0, #-1280]!	; 0x500
    3a30:	04000000 	streq	r0, [r0], #-0
    3a34:	000d540c 	andeq	r5, sp, ip, lsl #8
    3a38:	25300500 	ldrcs	r0, [r0, #-1280]!	; 0x500
    3a3c:	08000000 	stmdaeq	r0, {}	; <UNPREDICTABLE>
    3a40:	000b940c 	andeq	r9, fp, ip, lsl #8
    3a44:	25300500 	ldrcs	r0, [r0, #-1280]!	; 0x500
    3a48:	0c000000 	stceq	0, cr0, [r0], {-0}
    3a4c:	000e6d0c 	andeq	r6, lr, ip, lsl #26
    3a50:	25300500 	ldrcs	r0, [r0, #-1280]!	; 0x500
    3a54:	10000000 	andne	r0, r0, r0
    3a58:	00785f11 	rsbseq	r5, r8, r1, lsl pc
    3a5c:	01823105 	orreq	r3, r2, r5, lsl #2
    3a60:	00140000 	andseq	r0, r4, r0
    3a64:	0129040e 	teqeq	r9, lr, lsl #8
    3a68:	1e090000 	cdpne	0, 0, cr0, cr9, cr0, {0}
    3a6c:	92000001 	andls	r0, r0, #1
    3a70:	0a000001 	beq	3a7c <__code_start__-0x4584>
    3a74:	000000cc 	andeq	r0, r0, ip, asr #1
    3a78:	da100000 	ble	403a80 <__bss_end__+0x3f9308>
    3a7c:	2400000b 	strcs	r0, [r0], #-11
    3a80:	020b3505 	andeq	r3, fp, #20971520	; 0x1400000
    3a84:	920c0000 	andls	r0, ip, #0
    3a88:	0500000a 	streq	r0, [r0, #-10]
    3a8c:	00002537 	andeq	r2, r0, r7, lsr r5
    3a90:	8c0c0000 	stchi	0, cr0, [ip], {-0}
    3a94:	0500000d 	streq	r0, [r0, #-13]
    3a98:	00002538 	andeq	r2, r0, r8, lsr r5
    3a9c:	c00c0400 	andgt	r0, ip, r0, lsl #8
    3aa0:	0500000a 	streq	r0, [r0, #-10]
    3aa4:	00002539 	andeq	r2, r0, r9, lsr r5
    3aa8:	5d0c0800 	stcpl	8, cr0, [ip, #-0]
    3aac:	0500000f 	streq	r0, [r0, #-15]
    3ab0:	0000253a 	andeq	r2, r0, sl, lsr r5
    3ab4:	8c0c0c00 	stchi	12, cr0, [ip], {-0}
    3ab8:	0500000c 	streq	r0, [r0, #-12]
    3abc:	0000253b 	andeq	r2, r0, fp, lsr r5
    3ac0:	610c1000 	mrsvs	r1, (UNDEF: 12)
    3ac4:	0500000c 	streq	r0, [r0, #-12]
    3ac8:	0000253c 	andeq	r2, r0, ip, lsr r5
    3acc:	720c1400 	andvc	r1, ip, #0, 8
    3ad0:	0500000e 	streq	r0, [r0, #-14]
    3ad4:	0000253d 	andeq	r2, r0, sp, lsr r5
    3ad8:	de0c1800 	cdple	8, 0, cr1, cr12, cr0, {0}
    3adc:	0500000c 	streq	r0, [r0, #-12]
    3ae0:	0000253e 	andeq	r2, r0, lr, lsr r5
    3ae4:	240c1c00 	strcs	r1, [ip], #-3072	; 0xc00
    3ae8:	0500000f 	streq	r0, [r0, #-15]
    3aec:	0000253f 	andeq	r2, r0, pc, lsr r5
    3af0:	12002000 	andne	r2, r0, #0
    3af4:	00000acf 	andeq	r0, r0, pc, asr #21
    3af8:	48050108 	stmdami	r5, {r3, r8}
    3afc:	0000024b 	andeq	r0, r0, fp, asr #4
    3b00:	000b7b0c 	andeq	r7, fp, ip, lsl #22
    3b04:	4b490500 	blmi	1244f0c <__bss_end__+0x123a794>
    3b08:	00000002 	andeq	r0, r0, r2
    3b0c:	000a0d0c 	andeq	r0, sl, ip, lsl #26
    3b10:	4b4a0500 	blmi	1284f18 <__bss_end__+0x127a7a0>
    3b14:	80000002 	andhi	r0, r0, r2
    3b18:	000e1813 	andeq	r1, lr, r3, lsl r8
    3b1c:	1e4c0500 	cdpne	5, 4, cr0, cr12, cr0, {0}
    3b20:	00000001 	andeq	r0, r0, r1
    3b24:	0af41301 	beq	ffd08730 <__bss_end__+0xffcfdfb8>
    3b28:	4f050000 	svcmi	0x00050000
    3b2c:	0000011e 	andeq	r0, r0, lr, lsl r1
    3b30:	09000104 	stmdbeq	r0, {r2, r8}
    3b34:	0000010a 	andeq	r0, r0, sl, lsl #2
    3b38:	0000025b 	andeq	r0, r0, fp, asr r2
    3b3c:	0000cc0a 	andeq	ip, r0, sl, lsl #24
    3b40:	12001f00 	andne	r1, r0, #0, 30
    3b44:	00000c95 	muleq	r0, r5, ip
    3b48:	5b050190 	blpl	144190 <__bss_end__+0x139a18>
    3b4c:	00000299 	muleq	r0, r9, r2
    3b50:	000d1d0c 	andeq	r1, sp, ip, lsl #26
    3b54:	995c0500 	ldmdbls	ip, {r8, sl}^
    3b58:	00000002 	andeq	r0, r0, r2
    3b5c:	000d350c 	andeq	r3, sp, ip, lsl #10
    3b60:	255d0500 	ldrbcs	r0, [sp, #-1280]	; 0x500
    3b64:	04000000 	streq	r0, [r0], #-0
    3b68:	000b8f0c 	andeq	r8, fp, ip, lsl #30
    3b6c:	9f5f0500 	svcls	0x005f0500
    3b70:	08000002 	stmdaeq	r0, {r1}
    3b74:	000acf0c 	andeq	ip, sl, ip, lsl #30
    3b78:	0b600500 	bleq	1804f80 <__bss_end__+0x17fa808>
    3b7c:	88000002 	stmdahi	r0, {r1}
    3b80:	5b040e00 	blpl	107388 <__bss_end__+0xfcc10>
    3b84:	09000002 	stmdbeq	r0, {r1}
    3b88:	000002af 	andeq	r0, r0, pc, lsr #5
    3b8c:	000002af 	andeq	r0, r0, pc, lsr #5
    3b90:	0000cc0a 	andeq	ip, r0, sl, lsl #24
    3b94:	0e001f00 	cdpeq	15, 0, cr1, cr0, cr0, {0}
    3b98:	0002b504 	andeq	fp, r2, r4, lsl #10
    3b9c:	e8101400 	ldmda	r0, {sl, ip}
    3ba0:	0800000c 	stmdaeq	r0, {r2, r3}
    3ba4:	02db7305 	sbcseq	r7, fp, #335544320	; 0x14000000
    3ba8:	b50c0000 	strlt	r0, [ip, #-0]
    3bac:	0500000a 	streq	r0, [r0, #-10]
    3bb0:	0002db74 	andeq	sp, r2, r4, ror fp
    3bb4:	190c0000 	stmdbne	ip, {}	; <UNPREDICTABLE>
    3bb8:	0500000a 	streq	r0, [r0, #-10]
    3bbc:	00002575 	andeq	r2, r0, r5, ror r5
    3bc0:	0e000400 	cfcpyseq	mvf0, mvf0
    3bc4:	00005404 	andeq	r5, r0, r4, lsl #8
    3bc8:	0d071000 	stceq	0, cr1, [r7, #-0]
    3bcc:	05680000 	strbeq	r0, [r8, #-0]!
    3bd0:	00040bb3 			; <UNDEFINED> instruction: 0x00040bb3
    3bd4:	705f1100 	subsvc	r1, pc, r0, lsl #2
    3bd8:	dbb40500 	blle	fed04fe0 <__bss_end__+0xfecfa868>
    3bdc:	00000002 	andeq	r0, r0, r2
    3be0:	00725f11 	rsbseq	r5, r2, r1, lsl pc
    3be4:	0025b505 	eoreq	fp, r5, r5, lsl #10
    3be8:	11040000 	mrsne	r0, (UNDEF: 4)
    3bec:	0500775f 	streq	r7, [r0, #-1887]	; 0x75f
    3bf0:	000025b6 			; <UNDEFINED> instruction: 0x000025b6
    3bf4:	ed0c0800 	stc	8, cr0, [ip, #-0]
    3bf8:	0500000a 	streq	r0, [r0, #-10]
    3bfc:	00003fb7 			; <UNDEFINED> instruction: 0x00003fb7
    3c00:	000c0c00 	andeq	r0, ip, r0, lsl #24
    3c04:	0500000c 	streq	r0, [r0, #-12]
    3c08:	00003fb8 			; <UNDEFINED> instruction: 0x00003fb8
    3c0c:	5f110e00 	svcpl	0x00110e00
    3c10:	05006662 	streq	r6, [r0, #-1634]	; 0x662
    3c14:	0002b6b9 			; <UNDEFINED> instruction: 0x0002b6b9
    3c18:	5c0c1000 	stcpl	0, cr1, [ip], {-0}
    3c1c:	0500000a 	streq	r0, [r0, #-10]
    3c20:	000025ba 			; <UNDEFINED> instruction: 0x000025ba
    3c24:	dd0c1800 	stcle	8, cr1, [ip, #-0]
    3c28:	0500000a 	streq	r0, [r0, #-10]
    3c2c:	00010ac1 	andeq	r0, r1, r1, asr #21
    3c30:	840c1c00 	strhi	r1, [ip], #-3072	; 0xc00
    3c34:	0500000f 	streq	r0, [r0, #-15]
    3c38:	000566c3 	andeq	r6, r5, r3, asr #13
    3c3c:	9e0c2000 	cdpls	0, 0, cr2, cr12, cr0, {0}
    3c40:	0500000f 	streq	r0, [r0, #-15]
    3c44:	000590c5 	andeq	r9, r5, r5, asr #1
    3c48:	790c2400 	stmdbvc	ip, {sl, sp}
    3c4c:	0500000d 	streq	r0, [r0, #-13]
    3c50:	0005b4c8 	andeq	fp, r5, r8, asr #9
    3c54:	3e0c2800 	cdpcc	8, 0, cr2, cr12, cr0, {0}
    3c58:	0500000f 	streq	r0, [r0, #-15]
    3c5c:	0005cec9 	andeq	ip, r5, r9, asr #29
    3c60:	5f112c00 	svcpl	0x00112c00
    3c64:	05006275 	streq	r6, [r0, #-629]	; 0x275
    3c68:	0002b6cc 	andeq	fp, r2, ip, asr #13
    3c6c:	5f113000 	svcpl	0x00113000
    3c70:	05007075 	streq	r7, [r0, #-117]	; 0x75
    3c74:	0002dbcd 	andeq	sp, r2, sp, asr #23
    3c78:	5f113800 	svcpl	0x00113800
    3c7c:	05007275 	streq	r7, [r0, #-629]	; 0x275
    3c80:	000025ce 	andeq	r2, r0, lr, asr #11
    3c84:	a00c3c00 	andge	r3, ip, r0, lsl #24
    3c88:	0500000a 	streq	r0, [r0, #-10]
    3c8c:	0005d4d1 	ldrdeq	sp, [r5], -r1
    3c90:	e90c4000 	stmdb	ip, {lr}
    3c94:	0500000e 	streq	r0, [r0, #-14]
    3c98:	0005e4d2 	ldrdeq	lr, [r5], -r2
    3c9c:	5f114300 	svcpl	0x00114300
    3ca0:	0500626c 	streq	r6, [r0, #-620]	; 0x26c
    3ca4:	0002b6d5 	ldrdeq	fp, [r2], -r5
    3ca8:	030c4400 	movweq	r4, #50176	; 0xc400
    3cac:	0500000b 	streq	r0, [r0, #-11]
    3cb0:	000025d8 	ldrdeq	r2, [r0], -r8
    3cb4:	6b0c4c00 	blvs	316cbc <__bss_end__+0x30c544>
    3cb8:	0500000c 	streq	r0, [r0, #-12]
    3cbc:	00007bd9 	ldrdeq	r7, [r0], -r9
    3cc0:	d40c5000 	strle	r5, [ip], #-0
    3cc4:	0500000e 	streq	r0, [r0, #-14]
    3cc8:	000429dc 	ldrdeq	r2, [r4], -ip
    3ccc:	530c5400 	movwpl	r5, #50176	; 0xc400
    3cd0:	0500000c 	streq	r0, [r0, #-12]
    3cd4:	0000ffe0 	andeq	pc, r0, r0, ror #31
    3cd8:	0f0c5800 	svceq	0x000c5800
    3cdc:	0500000d 	streq	r0, [r0, #-13]
    3ce0:	0000f4e2 	andeq	pc, r0, r2, ror #9
    3ce4:	590c5c00 	stmdbpl	ip, {sl, fp, ip, lr}
    3ce8:	0500000c 	streq	r0, [r0, #-12]
    3cec:	000025e3 	andeq	r2, r0, r3, ror #11
    3cf0:	15006400 	strne	r6, [r0, #-1024]	; 0x400
    3cf4:	00000025 	andeq	r0, r0, r5, lsr #32
    3cf8:	00000429 	andeq	r0, r0, r9, lsr #8
    3cfc:	00042916 	andeq	r2, r4, r6, lsl r9
    3d00:	010a1600 	tsteq	sl, r0, lsl #12
    3d04:	0c160000 	ldceq	0, cr0, [r6], {-0}
    3d08:	16000001 	strne	r0, [r0], -r1
    3d0c:	00000025 	andeq	r0, r0, r5, lsr #32
    3d10:	34040e00 	strcc	r0, [r4], #-3584	; 0xe00
    3d14:	0f000004 	svceq	0x00000004
    3d18:	00000429 	andeq	r0, r0, r9, lsr #8
    3d1c:	000d5c17 	andeq	r5, sp, r7, lsl ip
    3d20:	05042800 	streq	r2, [r4, #-2048]	; 0x800
    3d24:	05660238 	strbeq	r0, [r6, #-568]!	; 0x238
    3d28:	d7180000 	ldrle	r0, [r8, -r0]
    3d2c:	0500000c 	streq	r0, [r0, #-12]
    3d30:	0025023a 	eoreq	r0, r5, sl, lsr r2
    3d34:	18000000 	stmdane	r0, {}	; <UNPREDICTABLE>
    3d38:	00000afc 	strdeq	r0, [r0], -ip
    3d3c:	3b023f05 	blcc	93958 <__bss_end__+0x891e0>
    3d40:	04000006 	streq	r0, [r0], #-6
    3d44:	000bf018 	andeq	pc, fp, r8, lsl r0	; <UNPREDICTABLE>
    3d48:	023f0500 	eorseq	r0, pc, #0, 10
    3d4c:	0000063b 	andeq	r0, r0, fp, lsr r6
    3d50:	0bb11808 	bleq	fec49d78 <__bss_end__+0xfec3f600>
    3d54:	3f050000 	svccc	0x00050000
    3d58:	00063b02 	andeq	r3, r6, r2, lsl #22
    3d5c:	30180c00 	andscc	r0, r8, r0, lsl #24
    3d60:	0500000d 	streq	r0, [r0, #-13]
    3d64:	00250241 	eoreq	r0, r5, r1, asr #4
    3d68:	18100000 	ldmdane	r0, {}	; <UNPREDICTABLE>
    3d6c:	00000a27 	andeq	r0, r0, r7, lsr #20
    3d70:	1d024205 	sfmne	f4, 4, [r2, #-20]	; 0xffffffec
    3d74:	14000008 	strne	r0, [r0], #-8
    3d78:	000e4e18 	andeq	r4, lr, r8, lsl lr
    3d7c:	02440500 	subeq	r0, r4, #0, 10
    3d80:	00000025 	andeq	r0, r0, r5, lsr #32
    3d84:	0d3a1830 	ldceq	8, cr1, [sl, #-192]!	; 0xffffff40
    3d88:	45050000 	strmi	r0, [r5, #-0]
    3d8c:	00058a02 	andeq	r8, r5, r2, lsl #20
    3d90:	9d183400 	cfldrsls	mvf3, [r8, #-0]
    3d94:	0500000c 	streq	r0, [r0, #-12]
    3d98:	00250247 	eoreq	r0, r5, r7, asr #4
    3d9c:	18380000 	ldmdane	r8!, {}	; <UNPREDICTABLE>
    3da0:	00000d4a 	andeq	r0, r0, sl, asr #26
    3da4:	38024905 	stmdacc	r2, {r0, r2, r8, fp, lr}
    3da8:	3c000008 	stccc	0, cr0, [r0], {8}
    3dac:	000c2f18 	andeq	r2, ip, r8, lsl pc
    3db0:	024c0500 	subeq	r0, ip, #0, 10
    3db4:	0000017c 	andeq	r0, r0, ip, ror r1
    3db8:	0bd01840 	bleq	ff409ec0 <__bss_end__+0xff3ff748>
    3dbc:	4d050000 	stcmi	0, cr0, [r5, #-0]
    3dc0:	00002502 	andeq	r2, r0, r2, lsl #10
    3dc4:	58184400 	ldmdapl	r8, {sl, lr}
    3dc8:	0500000f 	streq	r0, [r0, #-15]
    3dcc:	017c024e 	cmneq	ip, lr, asr #4
    3dd0:	18480000 	stmdane	r8, {}^	; <UNPREDICTABLE>
    3dd4:	00000cb4 			; <UNDEFINED> instruction: 0x00000cb4
    3dd8:	3e024f05 	cdpcc	15, 0, cr4, cr2, cr5, {0}
    3ddc:	4c000008 	stcmi	0, cr0, [r0], {8}
    3de0:	000bf818 	andeq	pc, fp, r8, lsl r8	; <UNPREDICTABLE>
    3de4:	02520500 	subseq	r0, r2, #0, 10
    3de8:	00000025 	andeq	r0, r0, r5, lsr #32
    3dec:	0b1f1850 	bleq	7c9f34 <__bss_end__+0x7bf7bc>
    3df0:	53050000 	movwpl	r0, #20480	; 0x5000
    3df4:	00010c02 	andeq	r0, r1, r2, lsl #24
    3df8:	d0185400 	andsle	r5, r8, r0, lsl #8
    3dfc:	0500000c 	streq	r0, [r0, #-12]
    3e00:	07fb0276 			; <UNDEFINED> instruction: 0x07fb0276
    3e04:	19580000 	ldmdbne	r8, {}^	; <UNPREDICTABLE>
    3e08:	00000c95 	muleq	r0, r5, ip
    3e0c:	99027a05 	stmdbls	r2, {r0, r2, r9, fp, ip, sp, lr}
    3e10:	48000002 	stmdami	r0, {r1}
    3e14:	0c0d1901 	stceq	9, cr1, [sp], {1}
    3e18:	7b050000 	blvc	143e20 <__bss_end__+0x1396a8>
    3e1c:	00025b02 	andeq	r5, r2, r2, lsl #22
    3e20:	19014c00 	stmdbne	r1, {sl, fp, lr}
    3e24:	00000eba 			; <UNDEFINED> instruction: 0x00000eba
    3e28:	4f027f05 	svcmi	0x00027f05
    3e2c:	dc000008 	stcle	0, cr0, [r0], {8}
    3e30:	0ae51902 	beq	ff94a240 <__bss_end__+0xff93fac8>
    3e34:	84050000 	strhi	r0, [r5], #-0
    3e38:	00060002 	andeq	r0, r6, r2
    3e3c:	1902e000 	stmdbne	r2, {sp, lr, pc}
    3e40:	00000aca 	andeq	r0, r0, sl, asr #21
    3e44:	5b028505 	blpl	a5260 <__bss_end__+0x9aae8>
    3e48:	ec000008 	stc	0, cr0, [r0], {8}
    3e4c:	040e0002 	streq	r0, [lr], #-2
    3e50:	0000040b 	andeq	r0, r0, fp, lsl #8
    3e54:	00002515 	andeq	r2, r0, r5, lsl r5
    3e58:	00058a00 	andeq	r8, r5, r0, lsl #20
    3e5c:	04291600 	strteq	r1, [r9], #-1536	; 0x600
    3e60:	0a160000 	beq	583e68 <__bss_end__+0x5796f0>
    3e64:	16000001 	strne	r0, [r0], -r1
    3e68:	0000058a 	andeq	r0, r0, sl, lsl #11
    3e6c:	00002516 	andeq	r2, r0, r6, lsl r5
    3e70:	040e0000 	streq	r0, [lr], #-0
    3e74:	00000119 	andeq	r0, r0, r9, lsl r1
    3e78:	056c040e 	strbeq	r0, [ip, #-1038]!	; 0x40e
    3e7c:	86150000 	ldrhi	r0, [r5], -r0
    3e80:	b4000000 	strlt	r0, [r0], #-0
    3e84:	16000005 	strne	r0, [r0], -r5
    3e88:	00000429 	andeq	r0, r0, r9, lsr #8
    3e8c:	00010a16 	andeq	r0, r1, r6, lsl sl
    3e90:	00861600 	addeq	r1, r6, r0, lsl #12
    3e94:	25160000 	ldrcs	r0, [r6, #-0]
    3e98:	00000000 	andeq	r0, r0, r0
    3e9c:	0596040e 	ldreq	r0, [r6, #1038]	; 0x40e
    3ea0:	25150000 	ldrcs	r0, [r5, #-0]
    3ea4:	ce000000 	cdpgt	0, 0, cr0, cr0, cr0, {0}
    3ea8:	16000005 	strne	r0, [r0], -r5
    3eac:	00000429 	andeq	r0, r0, r9, lsr #8
    3eb0:	00010a16 	andeq	r0, r1, r6, lsl sl
    3eb4:	040e0000 	streq	r0, [lr], #-0
    3eb8:	000005ba 			; <UNDEFINED> instruction: 0x000005ba
    3ebc:	00005409 	andeq	r5, r0, r9, lsl #8
    3ec0:	0005e400 	andeq	lr, r5, r0, lsl #8
    3ec4:	00cc0a00 	sbceq	r0, ip, r0, lsl #20
    3ec8:	00020000 	andeq	r0, r2, r0
    3ecc:	00005409 	andeq	r5, r0, r9, lsl #8
    3ed0:	0005f400 	andeq	pc, r5, r0, lsl #8
    3ed4:	00cc0a00 	sbceq	r0, ip, r0, lsl #20
    3ed8:	00000000 	andeq	r0, r0, r0
    3edc:	000cf506 	andeq	pc, ip, r6, lsl #10
    3ee0:	011d0500 	tsteq	sp, r0, lsl #10
    3ee4:	000002e1 	andeq	r0, r0, r1, ror #5
    3ee8:	000e7c1a 	andeq	r7, lr, sl, lsl ip
    3eec:	21050c00 	tstcs	r5, r0, lsl #24
    3ef0:	00063501 	andeq	r3, r6, r1, lsl #10
    3ef4:	0d1d1800 	ldceq	8, cr1, [sp, #-0]
    3ef8:	23050000 	movwcs	r0, #20480	; 0x5000
    3efc:	00063501 	andeq	r3, r6, r1, lsl #10
    3f00:	06180000 	ldreq	r0, [r8], -r0
    3f04:	0500000c 	streq	r0, [r0, #-12]
    3f08:	00250124 	eoreq	r0, r5, r4, lsr #2
    3f0c:	18040000 	stmdane	r4, {}	; <UNPREDICTABLE>
    3f10:	00000cef 	andeq	r0, r0, pc, ror #25
    3f14:	3b012505 	blcc	4d330 <__bss_end__+0x42bb8>
    3f18:	08000006 	stmdaeq	r0, {r1, r2}
    3f1c:	00040e00 	andeq	r0, r4, r0, lsl #28
    3f20:	0e000006 	cdpeq	0, 0, cr0, cr0, cr6, {0}
    3f24:	0005f404 	andeq	pc, r5, r4, lsl #8
    3f28:	0a1f1a00 	beq	7ca730 <__bss_end__+0x7bffb8>
    3f2c:	050e0000 	streq	r0, [lr, #-0]
    3f30:	0676013d 			; <UNDEFINED> instruction: 0x0676013d
    3f34:	63180000 	tstvs	r8, #0
    3f38:	0500000d 	streq	r0, [r0, #-13]
    3f3c:	0676013e 			; <UNDEFINED> instruction: 0x0676013e
    3f40:	18000000 	stmdane	r0, {}	; <UNPREDICTABLE>
    3f44:	00000d9d 	muleq	r0, sp, sp
    3f48:	76013f05 	strvc	r3, [r1], -r5, lsl #30
    3f4c:	06000006 	streq	r0, [r0], -r6
    3f50:	000e2118 	andeq	r2, lr, r8, lsl r1
    3f54:	01400500 	cmpeq	r0, r0, lsl #10
    3f58:	0000005b 	andeq	r0, r0, fp, asr r0
    3f5c:	5b09000c 	blpl	243f94 <__bss_end__+0x23981c>
    3f60:	86000000 	strhi	r0, [r0], -r0
    3f64:	0a000006 	beq	3f84 <__code_start__-0x407c>
    3f68:	000000cc 	andeq	r0, r0, ip, asr #1
    3f6c:	d01b0002 	andsle	r0, fp, r2
    3f70:	87025705 	strhi	r5, [r2, -r5, lsl #14]
    3f74:	18000007 	stmdane	r0, {r0, r1, r2}
    3f78:	00000e60 	andeq	r0, r0, r0, ror #28
    3f7c:	2c025905 	stccs	9, cr5, [r2], {5}
    3f80:	00000000 	andeq	r0, r0, r0
    3f84:	000e0b18 	andeq	r0, lr, r8, lsl fp
    3f88:	025a0500 	subseq	r0, sl, #0, 10
    3f8c:	0000010c 	andeq	r0, r0, ip, lsl #2
    3f90:	0c221804 	stceq	8, cr1, [r2], #-16
    3f94:	5b050000 	blpl	143f9c <__bss_end__+0x139824>
    3f98:	00078702 	andeq	r8, r7, r2, lsl #14
    3f9c:	2f180800 	svccs	0x00180800
    3fa0:	0500000f 	streq	r0, [r0, #-15]
    3fa4:	0192025c 	orrseq	r0, r2, ip, asr r2
    3fa8:	18240000 	stmdane	r4!, {}	; <UNPREDICTABLE>
    3fac:	00000bc1 	andeq	r0, r0, r1, asr #23
    3fb0:	25025d05 	strcs	r5, [r2, #-3333]	; 0xd05
    3fb4:	48000000 	stmdami	r0, {}	; <UNPREDICTABLE>
    3fb8:	000d1818 	andeq	r1, sp, r8, lsl r8
    3fbc:	025e0500 	subseq	r0, lr, #0, 10
    3fc0:	00000069 	andeq	r0, r0, r9, rrx
    3fc4:	0f451850 	svceq	0x00451850
    3fc8:	5f050000 	svcpl	0x00050000
    3fcc:	00064102 	andeq	r4, r6, r2, lsl #2
    3fd0:	23185800 	tstcs	r8, #0, 16
    3fd4:	0500000d 	streq	r0, [r0, #-13]
    3fd8:	00f40260 	rscseq	r0, r4, r0, ror #4
    3fdc:	18680000 	stmdane	r8!, {}^	; <UNPREDICTABLE>
    3fe0:	00000f4a 	andeq	r0, r0, sl, asr #30
    3fe4:	f4026105 	vst4.8	{d6,d8,d10,d12}, [r2], r5
    3fe8:	70000000 	andvc	r0, r0, r0
    3fec:	000a8418 	andeq	r8, sl, r8, lsl r4
    3ff0:	02620500 	rsbeq	r0, r2, #0, 10
    3ff4:	000000f4 	strdeq	r0, [r0], -r4
    3ff8:	0e9c1878 	mrceq	8, 4, r1, cr12, cr8, {3}
    3ffc:	63050000 	movwvs	r0, #20480	; 0x5000
    4000:	00079702 	andeq	r9, r7, r2, lsl #14
    4004:	16188000 	ldrne	r8, [r8], -r0
    4008:	0500000c 	streq	r0, [r0, #-12]
    400c:	07a70264 	streq	r0, [r7, r4, ror #4]!
    4010:	18880000 	stmne	r8, {}	; <UNPREDICTABLE>
    4014:	00000e2e 	andeq	r0, r0, lr, lsr #28
    4018:	25026505 	strcs	r6, [r2, #-1285]	; 0x505
    401c:	a0000000 	andge	r0, r0, r0
    4020:	000b6d18 	andeq	r6, fp, r8, lsl sp
    4024:	02660500 	rsbeq	r0, r6, #0, 10
    4028:	000000f4 	strdeq	r0, [r0], -r4
    402c:	0a7518a4 	beq	1d4a2c4 <__bss_end__+0x1d3fb4c>
    4030:	67050000 	strvs	r0, [r5, -r0]
    4034:	0000f402 	andeq	pc, r0, r2, lsl #8
    4038:	5c18ac00 	ldcpl	12, cr10, [r8], {-0}
    403c:	0500000b 	streq	r0, [r0, #-11]
    4040:	00f40268 	rscseq	r0, r4, r8, ror #4
    4044:	18b40000 	ldmne	r4!, {}	; <UNPREDICTABLE>
    4048:	00000a3c 	andeq	r0, r0, ip, lsr sl
    404c:	f4026905 	vst2.8	{d6,d8}, [r2], r5
    4050:	bc000000 	stclt	0, cr0, [r0], {-0}
    4054:	000a4b18 	andeq	r4, sl, r8, lsl fp
    4058:	026a0500 	rsbeq	r0, sl, #0, 10
    405c:	000000f4 	strdeq	r0, [r0], -r4
    4060:	0cd518c4 	ldcleq	8, cr1, [r5], {196}	; 0xc4
    4064:	6b050000 	blvs	14406c <__bss_end__+0x1398f4>
    4068:	00002502 	andeq	r2, r0, r2, lsl #10
    406c:	0900cc00 	stmdbeq	r0, {sl, fp, lr, pc}
    4070:	00000112 	andeq	r0, r0, r2, lsl r1
    4074:	00000797 	muleq	r0, r7, r7
    4078:	0000cc0a 	andeq	ip, r0, sl, lsl #24
    407c:	09001900 	stmdbeq	r0, {r8, fp, ip}
    4080:	00000112 	andeq	r0, r0, r2, lsl r1
    4084:	000007a7 	andeq	r0, r0, r7, lsr #15
    4088:	0000cc0a 	andeq	ip, r0, sl, lsl #24
    408c:	09000700 	stmdbeq	r0, {r8, r9, sl}
    4090:	00000112 	andeq	r0, r0, r2, lsl r1
    4094:	000007b7 			; <UNDEFINED> instruction: 0x000007b7
    4098:	0000cc0a 	andeq	ip, r0, sl, lsl #24
    409c:	1b001700 	blne	9ca4 <__FUNCTION__.4430+0x4c>
    40a0:	027005f0 	rsbseq	r0, r0, #240, 10	; 0x3c000000
    40a4:	000007db 	ldrdeq	r0, [r0], -fp
    40a8:	000c8518 	andeq	r8, ip, r8, lsl r5
    40ac:	02730500 	rsbseq	r0, r3, #0, 10
    40b0:	000007db 	ldrdeq	r0, [r0], -fp
    40b4:	0e931800 	cdpeq	8, 9, cr1, cr3, cr0, {0}
    40b8:	74050000 	strvc	r0, [r5], #-0
    40bc:	0007eb02 	andeq	lr, r7, r2, lsl #22
    40c0:	09007800 	stmdbeq	r0, {fp, ip, sp, lr}
    40c4:	000002db 	ldrdeq	r0, [r0], -fp
    40c8:	000007eb 	andeq	r0, r0, fp, ror #15
    40cc:	0000cc0a 	andeq	ip, r0, sl, lsl #24
    40d0:	09001d00 	stmdbeq	r0, {r8, sl, fp, ip}
    40d4:	0000002c 	andeq	r0, r0, ip, lsr #32
    40d8:	000007fb 	strdeq	r0, [r0], -fp
    40dc:	0000cc0a 	andeq	ip, r0, sl, lsl #24
    40e0:	1c001d00 	stcne	13, cr1, [r0], {-0}
    40e4:	025505f0 	subseq	r0, r5, #240, 10	; 0x3c000000
    40e8:	0000081d 	andeq	r0, r0, sp, lsl r8
    40ec:	000d5c1d 	andeq	r5, sp, sp, lsl ip
    40f0:	026c0500 	rsbeq	r0, ip, #0, 10
    40f4:	00000686 	andeq	r0, r0, r6, lsl #13
    40f8:	000eef1d 	andeq	lr, lr, sp, lsl pc
    40fc:	02750500 	rsbseq	r0, r5, #0, 10
    4100:	000007b7 			; <UNDEFINED> instruction: 0x000007b7
    4104:	01120900 	tsteq	r2, r0, lsl #18
    4108:	082d0000 	stmdaeq	sp!, {}	; <UNPREDICTABLE>
    410c:	cc0a0000 	stcgt	0, cr0, [sl], {-0}
    4110:	18000000 	stmdane	r0, {}	; <UNPREDICTABLE>
    4114:	08381e00 	ldmdaeq	r8!, {r9, sl, fp, ip}
    4118:	29160000 	ldmdbcs	r6, {}	; <UNPREDICTABLE>
    411c:	00000004 	andeq	r0, r0, r4
    4120:	082d040e 	stmdaeq	sp!, {r1, r2, r3, sl}
    4124:	040e0000 	streq	r0, [lr], #-0
    4128:	0000017c 	andeq	r0, r0, ip, ror r1
    412c:	00084f1e 	andeq	r4, r8, lr, lsl pc
    4130:	00251600 	eoreq	r1, r5, r0, lsl #12
    4134:	0e000000 	cdpeq	0, 0, cr0, cr0, cr0, {0}
    4138:	00085504 	andeq	r5, r8, r4, lsl #10
    413c:	44040e00 	strmi	r0, [r4], #-3584	; 0xe00
    4140:	09000008 	stmdbeq	r0, {r3}
    4144:	000005f4 	strdeq	r0, [r0], -r4
    4148:	0000086b 	andeq	r0, r0, fp, ror #16
    414c:	0000cc0a 	andeq	ip, r0, sl, lsl #24
    4150:	1f000200 	svcne	0x00000200
    4154:	00000e42 	andeq	r0, r0, r2, asr #28
    4158:	2902fd05 	stmdbcs	r2, {r0, r2, r8, sl, fp, ip, sp, lr, pc}
    415c:	1f000004 	svcne	0x00000004
    4160:	00000e3b 	andeq	r0, r0, fp, lsr lr
    4164:	2f02fe05 	svccs	0x0002fe05
    4168:	15000004 	strne	r0, [r0, #-4]
    416c:	00000025 	andeq	r0, r0, r5, lsr #32
    4170:	00000892 	muleq	r0, r2, r8
    4174:	00002516 	andeq	r2, r0, r6, lsl r5
    4178:	3c200000 	stccc	0, cr0, [r0], #-0
    417c:	06000006 	streq	r0, [r0], -r6
    4180:	00089d1d 	andeq	r9, r8, sp, lsl sp
    4184:	83040e00 	movwhi	r0, #19968	; 0x4e00
    4188:	15000008 	strne	r0, [r0, #-8]
    418c:	00000025 	andeq	r0, r0, r5, lsr #32
    4190:	000008b2 			; <UNDEFINED> instruction: 0x000008b2
    4194:	00058a16 	andeq	r8, r5, r6, lsl sl
    4198:	79200000 	stmdbvc	r0!, {}	; <UNPREDICTABLE>
    419c:	06000006 	streq	r0, [r0], -r6
    41a0:	0008bd22 	andeq	fp, r8, r2, lsr #26
    41a4:	a3040e00 	movwge	r0, #19968	; 0x4e00
    41a8:	21000008 	tstcs	r0, r8
    41ac:	00005401 	andeq	r5, r0, r1, lsl #8
    41b0:	000c0800 	andeq	r0, ip, r0, lsl #16
    41b4:	22000009 	andcs	r0, r0, #9
    41b8:	00000a65 	andeq	r0, r0, r5, ror #20
    41bc:	0e822200 	cdpeq	2, 8, cr2, cr2, cr0, {0}
    41c0:	22010000 	andcs	r0, r1, #0
    41c4:	00000eda 	ldrdeq	r0, [r0], -sl
    41c8:	0aa62204 	beq	fe98c9e0 <__bss_end__+0xfe982268>
    41cc:	22050000 	andcs	r0, r5, #0
    41d0:	00000c3d 	andeq	r0, r0, sp, lsr ip
    41d4:	0ef72206 	cdpeq	2, 15, cr2, cr7, cr6, {0}
    41d8:	22070000 	andcs	r0, r7, #0
    41dc:	00000f06 	andeq	r0, r0, r6, lsl #30
    41e0:	0f152203 	svceq	0x00152203
    41e4:	00020000 	andeq	r0, r2, r0
    41e8:	000b1310 	andeq	r1, fp, r0, lsl r3
    41ec:	06072c00 	streq	r2, [r7], -r0, lsl #24
    41f0:	00000990 	muleq	r0, r0, r9
    41f4:	006f6911 	rsbeq	r6, pc, r1, lsl r9	; <UNPREDICTABLE>
    41f8:	00330907 	eorseq	r0, r3, r7, lsl #18
    41fc:	11000000 	mrsne	r0, (UNDEF: 0)
    4200:	00726569 	rsbseq	r6, r2, r9, ror #10
    4204:	00330a07 	eorseq	r0, r3, r7, lsl #20
    4208:	11040000 	mrsne	r0, (UNDEF: 4)
    420c:	00726969 	rsbseq	r6, r2, r9, ror #18
    4210:	00331107 	eorseq	r1, r3, r7, lsl #2
    4214:	11080000 	mrsne	r0, (UNDEF: 8)
    4218:	0072636c 	rsbseq	r6, r2, ip, ror #6
    421c:	00331307 	eorseq	r1, r3, r7, lsl #6
    4220:	110c0000 	mrsne	r0, (UNDEF: 12)
    4224:	0072636d 	rsbseq	r6, r2, sp, ror #6
    4228:	00331407 	eorseq	r1, r3, r7, lsl #8
    422c:	11100000 	tstne	r0, r0
    4230:	0072736c 	rsbseq	r7, r2, ip, ror #6
    4234:	00331507 	eorseq	r1, r3, r7, lsl #10
    4238:	11140000 	tstne	r4, r0
    423c:	0072736d 	rsbseq	r7, r2, sp, ror #6
    4240:	00331607 	eorseq	r1, r3, r7, lsl #12
    4244:	0c180000 	ldceq	0, cr0, [r8], {-0}
    4248:	00000d95 	muleq	r0, r5, sp
    424c:	00331707 	eorseq	r1, r3, r7, lsl #14
    4250:	0c1c0000 	ldceq	0, cr0, [ip], {-0}
    4254:	00000abb 			; <UNDEFINED> instruction: 0x00000abb
    4258:	00331b07 	eorseq	r1, r3, r7, lsl #22
    425c:	0c200000 	stceq	0, cr0, [r0], #-0
    4260:	00000a9b 	muleq	r0, fp, sl
    4264:	00331d07 	eorseq	r1, r3, r7, lsl #26
    4268:	0c240000 	stceq	0, cr0, [r4], #-0
    426c:	00000d7f 	andeq	r0, r0, pc, ror sp
    4270:	00331e07 	eorseq	r1, r3, r7, lsl #28
    4274:	00280000 	eoreq	r0, r8, r0
    4278:	000b8323 	andeq	r8, fp, r3, lsr #6
    427c:	a5070100 	strge	r0, [r7, #-256]	; 0x100
    4280:	04000009 	streq	r0, [r0], #-9
    4284:	0e202150 	mcreq	1, 1, r2, cr0, cr0, {2}
    4288:	00003304 	andeq	r3, r0, r4, lsl #6
    428c:	099f0f00 	ldmibeq	pc, {r8, r9, sl, fp}	; <UNPREDICTABLE>
    4290:	af230000 	svcge	0x00230000
    4294:	0100000c 	tsteq	r0, ip
    4298:	0009bf28 	andeq	fp, r9, r8, lsr #30
    429c:	21504000 	cmpcs	r0, r0
    42a0:	00040e20 	andeq	r0, r4, r0, lsr #28
    42a4:	0f000009 	svceq	0x00000009
    42a8:	000009b9 			; <UNDEFINED> instruction: 0x000009b9
    42ac:	000ecc24 	andeq	ip, lr, r4, lsr #24
    42b0:	25a70100 	strcs	r0, [r7, #256]!	; 0x100
    42b4:	b8000000 	stmdalt	r0, {}	; <UNPREDICTABLE>
    42b8:	10000099 	mulne	r0, r9, r0
    42bc:	01000000 	mrseq	r0, (UNDEF: 0)
    42c0:	0009f09c 	muleq	r9, ip, r0
    42c4:	99c02500 	stmibls	r0, {r8, sl, sp}^
    42c8:	0c9c0000 	ldceq	0, cr0, [ip], {0}
    42cc:	c4250000 	strtgt	r0, [r5], #-0
    42d0:	d2000099 	andle	r0, r0, #153	; 0x99
    42d4:	0000000a 	andeq	r0, r0, sl
    42d8:	00062126 	andeq	r2, r6, r6, lsr #2
    42dc:	889f0100 	ldmhi	pc, {r8}	; <UNPREDICTABLE>
    42e0:	30000099 	mulcc	r0, r9, r0
    42e4:	01000000 	mrseq	r0, (UNDEF: 0)
    42e8:	000a4e9c 	muleq	sl, ip, lr
    42ec:	00632700 	rsbeq	r2, r3, r0, lsl #14
    42f0:	002c9f01 	eoreq	r9, ip, r1, lsl #30
    42f4:	0f730000 	svceq	0x00730000
    42f8:	94250000 	strtls	r0, [r5], #-0
    42fc:	9c000099 	stcls	0, cr0, [r0], {153}	; 0x99
    4300:	2500000c 	strcs	r0, [r0, #-12]
    4304:	00009998 	muleq	r0, r8, r9
    4308:	00000aa5 	andeq	r0, r0, r5, lsr #21
    430c:	0099ac28 	addseq	sl, r9, r8, lsr #24
    4310:	000ca700 	andeq	sl, ip, r0, lsl #14
    4314:	000a4400 	andeq	r4, sl, r0, lsl #8
    4318:	50012900 	andpl	r2, r1, r0, lsl #18
    431c:	50400c05 	subpl	r0, r0, r5, lsl #24
    4320:	01292021 	teqeq	r9, r1, lsr #32
    4324:	00740551 	rsbseq	r0, r4, r1, asr r5
    4328:	001aff08 	andseq	pc, sl, r8, lsl #30
    432c:	0099b025 	addseq	fp, r9, r5, lsr #32
    4330:	000c9c00 	andeq	r9, ip, r0, lsl #24
    4334:	e6240000 	strt	r0, [r4], -r0
    4338:	0100000b 	tsteq	r0, fp
    433c:	00002597 	muleq	r0, r7, r5
    4340:	00995800 	addseq	r5, r9, r0, lsl #16
    4344:	00003000 	andeq	r3, r0, r0
    4348:	a59c0100 	ldrge	r0, [ip, #256]	; 0x100
    434c:	2a00000a 	bcs	437c <__code_start__-0x3c84>
    4350:	9b010063 	blls	444e4 <__bss_end__+0x39d6c>
    4354:	00000025 	andeq	r0, r0, r5, lsr #32
    4358:	60255401 	eorvs	r5, r5, r1, lsl #8
    435c:	9c000099 	stcls	0, cr0, [r0], {153}	; 0x99
    4360:	2500000c 	strcs	r0, [r0, #-12]
    4364:	00009964 	andeq	r9, r0, r4, ror #18
    4368:	00000ad2 	ldrdeq	r0, [r0], -r2
    436c:	00997428 	addseq	r7, r9, r8, lsr #8
    4370:	000cb200 	andeq	fp, ip, r0, lsl #4
    4374:	000a9b00 	andeq	r9, sl, r0, lsl #22
    4378:	50012900 	andpl	r2, r1, r0, lsl #18
    437c:	50400c05 	subpl	r0, r0, r5, lsl #24
    4380:	25002021 	strcs	r2, [r0, #-33]	; 0x21
    4384:	0000997c 	andeq	r9, r0, ip, ror r9
    4388:	00000c9c 	muleq	r0, ip, ip
    438c:	0b9a2400 	bleq	fe68d394 <__bss_end__+0xfe682c1c>
    4390:	88010000 	stmdahi	r1, {}	; <UNPREDICTABLE>
    4394:	00000025 	andeq	r0, r0, r5, lsr #32
    4398:	00009938 	andeq	r9, r0, r8, lsr r9
    439c:	00000020 	andeq	r0, r0, r0, lsr #32
    43a0:	0ad29c01 	beq	ff4ab3ac <__bss_end__+0xff4a0c34>
    43a4:	442b0000 	strtmi	r0, [fp], #-0
    43a8:	b2000099 	andlt	r0, r0, #153	; 0x99
    43ac:	2900000c 	stmdbcs	r0, {r2, r3}
    43b0:	0c055001 	stceq	0, cr5, [r5], {1}
    43b4:	20215064 	eorcs	r5, r1, r4, rrx
    43b8:	ac240000 	stcge	0, cr0, [r4], #-0
    43bc:	0100000e 	tsteq	r0, lr
    43c0:	0000257f 	andeq	r2, r0, pc, ror r5
    43c4:	00992000 	addseq	r2, r9, r0
    43c8:	00001800 	andeq	r1, r0, r0, lsl #16
    43cc:	ff9c0100 			; <UNDEFINED> instruction: 0xff9c0100
    43d0:	2b00000a 	blcs	4400 <__code_start__-0x3c00>
    43d4:	0000992c 	andeq	r9, r0, ip, lsr #18
    43d8:	00000cb2 			; <UNDEFINED> instruction: 0x00000cb2
    43dc:	05500129 	ldrbeq	r0, [r0, #-297]	; 0x129
    43e0:	2150640c 	cmpcs	r0, ip, lsl #8
    43e4:	26000020 	strcs	r0, [r0], -r0, lsr #32
    43e8:	00000a32 	andeq	r0, r0, r2, lsr sl
    43ec:	98703a01 	ldmdals	r0!, {r0, r9, fp, ip, sp}^
    43f0:	00b00000 	adcseq	r0, r0, r0
    43f4:	9c010000 	stcls	0, cr0, [r1], {-0}
    43f8:	00000c3d 	andeq	r0, r0, sp, lsr ip
    43fc:	00988028 	addseq	r8, r8, r8, lsr #32
    4400:	000cbd00 	andeq	fp, ip, r0, lsl #26
    4404:	000b2c00 	andeq	r2, fp, r0, lsl #24
    4408:	50012900 	andpl	r2, r1, r0, lsl #18
    440c:	01293e01 	teqeq	r9, r1, lsl #28
    4410:	00320151 	eorseq	r0, r2, r1, asr r1
    4414:	00988c28 	addseq	r8, r8, r8, lsr #24
    4418:	000cbd00 	andeq	fp, ip, r0, lsl #26
    441c:	000b4400 	andeq	r4, fp, r0, lsl #8
    4420:	50012900 	andpl	r2, r1, r0, lsl #18
    4424:	01293f01 	teqeq	r9, r1, lsl #30
    4428:	00320151 	eorseq	r0, r2, r1, asr r1
    442c:	00989025 	addseq	r9, r8, r5, lsr #32
    4430:	000c9c00 	andeq	r9, ip, r0, lsl #24
    4434:	989c2800 	ldmls	ip, {fp, sp}
    4438:	0c3d0000 	ldceq	0, cr0, [sp], #-0
    443c:	0b690000 	bleq	1a44444 <__bss_end__+0x1a39ccc>
    4440:	01290000 	teqeq	r9, r0
    4444:	040c0550 	streq	r0, [ip], #-1360	; 0x550
    4448:	29202150 	stmdbcs	r0!, {r4, r6, r8, sp}
    444c:	31015101 	tstcc	r1, r1, lsl #2
    4450:	98a02500 	stmials	r0!, {r8, sl, sp}
    4454:	0c9c0000 	ldceq	0, cr0, [ip], {0}
    4458:	b0280000 	eorlt	r0, r8, r0
    445c:	a7000098 			; <UNDEFINED> instruction: 0xa7000098
    4460:	8b00000c 	blhi	4498 <__code_start__-0x3b68>
    4464:	2900000b 	stmdbcs	r0, {r0, r1, r3}
    4468:	74025001 	strvc	r5, [r2], #-1
    446c:	51012900 	tstpl	r1, r0, lsl #18
    4470:	28003001 	stmdacs	r0, {r0, ip, sp}
    4474:	000098bc 			; <UNDEFINED> instruction: 0x000098bc
    4478:	00000ca7 	andeq	r0, r0, r7, lsr #25
    447c:	00000ba7 	andeq	r0, r0, r7, lsr #23
    4480:	05500129 	ldrbeq	r0, [r0, #-297]	; 0x129
    4484:	2150440c 	cmpcs	r0, ip, lsl #8
    4488:	51012920 	tstpl	r1, r0, lsr #18
    448c:	28003001 	stmdacs	r0, {r0, ip, sp}
    4490:	000098c8 	andeq	r9, r0, r8, asr #17
    4494:	00000ca7 	andeq	r0, r0, r7, lsr #25
    4498:	00000bc3 	andeq	r0, r0, r3, asr #23
    449c:	05500129 	ldrbeq	r0, [r0, #-297]	; 0x129
    44a0:	21504c0c 	cmpcs	r0, ip, lsl #24
    44a4:	51012920 	tstpl	r1, r0, lsr #18
    44a8:	28003301 	stmdacs	r0, {r0, r8, r9, ip, sp}
    44ac:	000098d4 	ldrdeq	r9, [r0], -r4
    44b0:	00000ca7 	andeq	r0, r0, r7, lsr #25
    44b4:	00000bdf 	ldrdeq	r0, [r0], -pc	; <UNPREDICTABLE>
    44b8:	05500129 	ldrbeq	r0, [r0, #-297]	; 0x129
    44bc:	2150500c 	cmpcs	r0, ip
    44c0:	51012920 	tstpl	r1, r0, lsr #18
    44c4:	28003001 	stmdacs	r0, {r0, ip, sp}
    44c8:	000098e0 	andeq	r9, r0, r0, ror #17
    44cc:	00000ca7 	andeq	r0, r0, r7, lsr #25
    44d0:	00000bfc 	strdeq	r0, [r0], -ip
    44d4:	05500129 	ldrbeq	r0, [r0, #-297]	; 0x129
    44d8:	2150480c 	cmpcs	r0, ip, lsl #16
    44dc:	51012920 	tstpl	r1, r0, lsr #18
    44e0:	00c70802 	sbceq	r0, r7, r2, lsl #16
    44e4:	0098ec28 	addseq	lr, r8, r8, lsr #24
    44e8:	000ca700 	andeq	sl, ip, r0, lsl #14
    44ec:	000c1a00 	andeq	r1, ip, r0, lsl #20
    44f0:	50012900 	andpl	r2, r1, r0, lsl #18
    44f4:	50680c05 	rsbpl	r0, r8, r5, lsl #24
    44f8:	01292021 	teqeq	r9, r1, lsr #32
    44fc:	0e0a0351 	mcreq	3, 0, r0, cr10, cr1, {2}
    4500:	f8280001 			; <UNDEFINED> instruction: 0xf8280001
    4504:	a7000098 			; <UNDEFINED> instruction: 0xa7000098
    4508:	3300000c 	movwcc	r0, #12
    450c:	2900000c 	stmdbcs	r0, {r2, r3}
    4510:	74025001 	strvc	r5, [r2], #-1
    4514:	51012900 	tstpl	r1, r0, lsl #18
    4518:	25003301 	strcs	r3, [r0, #-769]	; 0x301
    451c:	000098fc 	strdeq	r9, [r0], -ip
    4520:	00000c9c 	muleq	r0, ip, ip
    4524:	0ec42c00 	cdpeq	12, 12, cr2, cr4, cr0, {0}
    4528:	2d010000 	stccs	0, cr0, [r1, #-0]
    452c:	00009850 	andeq	r9, r0, r0, asr r8
    4530:	00000020 	andeq	r0, r0, r0, lsr #32
    4534:	0c959c01 	ldceq	12, cr9, [r5], {1}
    4538:	b72d0000 	strlt	r0, [sp, -r0]!
    453c:	01000001 	tsteq	r0, r1
    4540:	000c952d 	andeq	r9, ip, sp, lsr #10
    4544:	000f9100 	andeq	r9, pc, r0, lsl #2
    4548:	61762700 	cmnvs	r6, r0, lsl #14
    454c:	2d01006c 	stccs	0, cr0, [r1, #-432]	; 0xfffffe50
    4550:	0000002c 	andeq	r0, r0, ip, lsr #32
    4554:	00000faf 	andeq	r0, r0, pc, lsr #31
    4558:	00986028 	addseq	r6, r8, r8, lsr #32
    455c:	000cb200 	andeq	fp, ip, r0, lsl #4
    4560:	000c8400 	andeq	r8, ip, r0, lsl #8
    4564:	50012900 	andpl	r2, r1, r0, lsl #18
    4568:	00007402 	andeq	r7, r0, r2, lsl #8
    456c:	00986c2b 	addseq	r6, r8, fp, lsr #24
    4570:	000ca700 	andeq	sl, ip, r0, lsl #14
    4574:	50012900 	andpl	r2, r1, r0, lsl #18
    4578:	00007402 	andeq	r7, r0, r2, lsl #8
    457c:	9b040e00 	blls	107d84 <__bss_end__+0xfd60c>
    4580:	2e00000c 	cdpcs	0, 0, cr0, cr0, cr12, {0}
    4584:	0008e82f 	andeq	lr, r8, pc, lsr #16
    4588:	0008e800 	andeq	lr, r8, r0, lsl #16
    458c:	2f890600 	svccs	0x00890600
    4590:	00000da3 	andeq	r0, r0, r3, lsr #27
    4594:	00000da3 	andeq	r0, r0, r3, lsr #27
    4598:	a62f9c06 	strtge	r9, [pc], -r6, lsl #24
    459c:	a600000e 	strge	r0, [r0], -lr
    45a0:	0600000e 	streq	r0, [r0], -lr
    45a4:	0c732fa8 	ldcleq	15, cr2, [r3], #-672	; 0xfffffd60
    45a8:	0c730000 	ldcleq	0, cr0, [r3], #-0
    45ac:	19080000 	stmdbne	r8, {}	; <UNPREDICTABLE>
    45b0:	000b7000 	andeq	r7, fp, r0
    45b4:	1e000400 	cfcpysne	mvf0, mvf0
    45b8:	04000016 	streq	r0, [r0], #-22
    45bc:	000da901 	andeq	sl, sp, r1, lsl #18
    45c0:	0f790c00 	svceq	0x00790c00
    45c4:	0b270000 	bleq	9c45cc <__bss_end__+0x9b9e54>
    45c8:	99c80000 	stmibls	r8, {}^	; <UNPREDICTABLE>
    45cc:	01200000 	teqeq	r0, r0
    45d0:	116b0000 	cmnne	fp, r0
    45d4:	04020000 	streq	r0, [r2], #-0
    45d8:	746e6905 	strbtvc	r6, [lr], #-2309	; 0x905
    45dc:	07040300 	streq	r0, [r4, -r0, lsl #6]
    45e0:	0000016c 	andeq	r0, r0, ip, ror #2
    45e4:	00002c04 	andeq	r2, r0, r4, lsl #24
    45e8:	06010300 	streq	r0, [r1], -r0, lsl #6
    45ec:	00000074 	andeq	r0, r0, r4, ror r0
    45f0:	c0050203 	andgt	r0, r5, r3, lsl #4
    45f4:	03000000 	movweq	r0, #0
    45f8:	019c0504 	orrseq	r0, ip, r4, lsl #10
    45fc:	08030000 	stmdaeq	r3, {}	; <UNPREDICTABLE>
    4600:	00019705 	andeq	r9, r1, r5, lsl #14
    4604:	08010300 	stmdaeq	r1, {r8, r9}
    4608:	00000072 	andeq	r0, r0, r2, ror r0
    460c:	8d070203 	sfmhi	f0, 4, [r7, #-12]
    4610:	03000000 	movweq	r0, #0
    4614:	01670704 	cmneq	r7, r4, lsl #14
    4618:	08030000 	stmdaeq	r3, {}	; <UNPREDICTABLE>
    461c:	00016207 	andeq	r6, r1, r7, lsl #4
    4620:	0cbe0500 	cfldr32eq	mvfx0, [lr]
    4624:	07020000 	streq	r0, [r2, -r0]
    4628:	00000025 	andeq	r0, r0, r5, lsr #32
    462c:	000ca805 	andeq	sl, ip, r5, lsl #16
    4630:	462c0300 	strtmi	r0, [ip], -r0, lsl #6
    4634:	05000000 	streq	r0, [r0, #-0]
    4638:	00000d84 	andeq	r0, r0, r4, lsl #27
    463c:	00467203 	subeq	r7, r6, r3, lsl #4
    4640:	4c060000 	stcmi	0, cr0, [r6], {-0}
    4644:	0400000c 	streq	r0, [r0], #-12
    4648:	002c0165 	eoreq	r0, ip, r5, ror #2
    464c:	04070000 	streq	r0, [r7], #-0
    4650:	00bca603 	adcseq	sl, ip, r3, lsl #12
    4654:	37080000 	strcc	r0, [r8, -r0]
    4658:	0300000c 	movweq	r0, #12
    465c:	000091a8 	andeq	r9, r0, r8, lsr #3
    4660:	0bdf0800 	bleq	ff7c6668 <__bss_end__+0xff7bbef0>
    4664:	a9030000 	stmdbge	r3, {}	; <UNPREDICTABLE>
    4668:	000000bc 	strheq	r0, [r0], -ip
    466c:	00540900 	subseq	r0, r4, r0, lsl #18
    4670:	00cc0000 	sbceq	r0, ip, r0
    4674:	cc0a0000 	stcgt	0, cr0, [sl], {-0}
    4678:	03000000 	movweq	r0, #0
    467c:	07040300 	streq	r0, [r4, -r0, lsl #6]
    4680:	0000018e 	andeq	r0, r0, lr, lsl #3
    4684:	a303080b 	movwge	r0, #14347	; 0x380b
    4688:	000000f4 	strdeq	r0, [r0], -r4
    468c:	000d690c 	andeq	r6, sp, ip, lsl #18
    4690:	25a50300 	strcs	r0, [r5, #768]!	; 0x300
    4694:	00000000 	andeq	r0, r0, r0
    4698:	000d710c 	andeq	r7, sp, ip, lsl #2
    469c:	9daa0300 	stcls	3, cr0, [sl]
    46a0:	04000000 	streq	r0, [r0], #-0
    46a4:	0cfc0500 	cfldr64eq	mvdx0, [ip]
    46a8:	ab030000 	blge	c46b0 <__bss_end__+0xb9f38>
    46ac:	000000d3 	ldrdeq	r0, [r0], -r3
    46b0:	000ba805 	andeq	sl, fp, r5, lsl #16
    46b4:	70af0300 	adcvc	r0, pc, r0, lsl #6
    46b8:	0d000000 	stceq	0, cr0, [r0, #-0]
    46bc:	12040e04 	andne	r0, r4, #4, 28	; 0x40
    46c0:	03000001 	movweq	r0, #1
    46c4:	007b0801 	rsbseq	r0, fp, r1, lsl #16
    46c8:	12040000 	andne	r0, r4, #0
    46cc:	05000001 	streq	r0, [r0, #-1]
    46d0:	00000e26 	andeq	r0, r0, r6, lsr #28
    46d4:	00621605 	rsbeq	r1, r2, r5, lsl #12
    46d8:	b90f0000 	stmdblt	pc, {}	; <UNPREDICTABLE>
    46dc:	1800000b 	stmdane	r0, {r0, r1, r3}
    46e0:	017c2d05 	cmneq	ip, r5, lsl #26
    46e4:	1d0c0000 	stcne	0, cr0, [ip, #-0]
    46e8:	0500000d 	streq	r0, [r0, #-13]
    46ec:	00017c2f 	andeq	r7, r1, pc, lsr #24
    46f0:	5f100000 	svcpl	0x00100000
    46f4:	3005006b 	andcc	r0, r5, fp, rrx
    46f8:	00000025 	andeq	r0, r0, r5, lsr #32
    46fc:	0d540c04 	ldcleq	12, cr0, [r4, #-16]
    4700:	30050000 	andcc	r0, r5, r0
    4704:	00000025 	andeq	r0, r0, r5, lsr #32
    4708:	0b940c08 	bleq	fe507730 <__bss_end__+0xfe4fcfb8>
    470c:	30050000 	andcc	r0, r5, r0
    4710:	00000025 	andeq	r0, r0, r5, lsr #32
    4714:	0e6d0c0c 	cdpeq	12, 6, cr0, cr13, cr12, {0}
    4718:	30050000 	andcc	r0, r5, r0
    471c:	00000025 	andeq	r0, r0, r5, lsr #32
    4720:	785f1010 	ldmdavc	pc, {r4, ip}^	; <UNPREDICTABLE>
    4724:	82310500 	eorshi	r0, r1, #0, 10
    4728:	14000001 	strne	r0, [r0], #-1
    472c:	29040e00 	stmdbcs	r4, {r9, sl, fp}
    4730:	09000001 	stmdbeq	r0, {r0}
    4734:	0000011e 	andeq	r0, r0, lr, lsl r1
    4738:	00000192 	muleq	r0, r2, r1
    473c:	0000cc0a 	andeq	ip, r0, sl, lsl #24
    4740:	0f000000 	svceq	0x00000000
    4744:	00000bda 	ldrdeq	r0, [r0], -sl
    4748:	0b350524 	bleq	d45be0 <__bss_end__+0xd3b468>
    474c:	0c000002 	stceq	0, cr0, [r0], {2}
    4750:	00000a92 	muleq	r0, r2, sl
    4754:	00253705 	eoreq	r3, r5, r5, lsl #14
    4758:	0c000000 	stceq	0, cr0, [r0], {-0}
    475c:	00000d8c 	andeq	r0, r0, ip, lsl #27
    4760:	00253805 	eoreq	r3, r5, r5, lsl #16
    4764:	0c040000 	stceq	0, cr0, [r4], {-0}
    4768:	00000ac0 	andeq	r0, r0, r0, asr #21
    476c:	00253905 	eoreq	r3, r5, r5, lsl #18
    4770:	0c080000 	stceq	0, cr0, [r8], {-0}
    4774:	00000f5d 	andeq	r0, r0, sp, asr pc
    4778:	00253a05 	eoreq	r3, r5, r5, lsl #20
    477c:	0c0c0000 	stceq	0, cr0, [ip], {-0}
    4780:	00000c8c 	andeq	r0, r0, ip, lsl #25
    4784:	00253b05 	eoreq	r3, r5, r5, lsl #22
    4788:	0c100000 	ldceq	0, cr0, [r0], {-0}
    478c:	00000c61 	andeq	r0, r0, r1, ror #24
    4790:	00253c05 	eoreq	r3, r5, r5, lsl #24
    4794:	0c140000 	ldceq	0, cr0, [r4], {-0}
    4798:	00000e72 	andeq	r0, r0, r2, ror lr
    479c:	00253d05 	eoreq	r3, r5, r5, lsl #26
    47a0:	0c180000 	ldceq	0, cr0, [r8], {-0}
    47a4:	00000cde 	ldrdeq	r0, [r0], -lr
    47a8:	00253e05 	eoreq	r3, r5, r5, lsl #28
    47ac:	0c1c0000 	ldceq	0, cr0, [ip], {-0}
    47b0:	00000f24 	andeq	r0, r0, r4, lsr #30
    47b4:	00253f05 	eoreq	r3, r5, r5, lsl #30
    47b8:	00200000 	eoreq	r0, r0, r0
    47bc:	000acf11 	andeq	ip, sl, r1, lsl pc
    47c0:	05010800 	streq	r0, [r1, #-2048]	; 0x800
    47c4:	00024b48 	andeq	r4, r2, r8, asr #22
    47c8:	0b7b0c00 	bleq	1ec77d0 <__bss_end__+0x1ebd058>
    47cc:	49050000 	stmdbmi	r5, {}	; <UNPREDICTABLE>
    47d0:	0000024b 	andeq	r0, r0, fp, asr #4
    47d4:	0a0d0c00 	beq	3477dc <__bss_end__+0x33d064>
    47d8:	4a050000 	bmi	1447e0 <__bss_end__+0x13a068>
    47dc:	0000024b 	andeq	r0, r0, fp, asr #4
    47e0:	0e181280 	cdpeq	2, 1, cr1, cr8, cr0, {4}
    47e4:	4c050000 	stcmi	0, cr0, [r5], {-0}
    47e8:	0000011e 	andeq	r0, r0, lr, lsl r1
    47ec:	f4120100 			; <UNDEFINED> instruction: 0xf4120100
    47f0:	0500000a 	streq	r0, [r0, #-10]
    47f4:	00011e4f 	andeq	r1, r1, pc, asr #28
    47f8:	00010400 	andeq	r0, r1, r0, lsl #8
    47fc:	00010a09 	andeq	r0, r1, r9, lsl #20
    4800:	00025b00 	andeq	r5, r2, r0, lsl #22
    4804:	00cc0a00 	sbceq	r0, ip, r0, lsl #20
    4808:	001f0000 	andseq	r0, pc, r0
    480c:	000c9511 	andeq	r9, ip, r1, lsl r5
    4810:	05019000 	streq	r9, [r1, #-0]
    4814:	0002995b 	andeq	r9, r2, fp, asr r9
    4818:	0d1d0c00 	ldceq	12, cr0, [sp, #-0]
    481c:	5c050000 	stcpl	0, cr0, [r5], {-0}
    4820:	00000299 	muleq	r0, r9, r2
    4824:	0d350c00 	ldceq	12, cr0, [r5, #-0]
    4828:	5d050000 	stcpl	0, cr0, [r5, #-0]
    482c:	00000025 	andeq	r0, r0, r5, lsr #32
    4830:	0b8f0c04 	bleq	fe3c7848 <__bss_end__+0xfe3bd0d0>
    4834:	5f050000 	svcpl	0x00050000
    4838:	0000029f 	muleq	r0, pc, r2	; <UNPREDICTABLE>
    483c:	0acf0c08 	beq	ff3c7864 <__bss_end__+0xff3bd0ec>
    4840:	60050000 	andvs	r0, r5, r0
    4844:	0000020b 	andeq	r0, r0, fp, lsl #4
    4848:	040e0088 	streq	r0, [lr], #-136	; 0x88
    484c:	0000025b 	andeq	r0, r0, fp, asr r2
    4850:	0002af09 	andeq	sl, r2, r9, lsl #30
    4854:	0002af00 	andeq	sl, r2, r0, lsl #30
    4858:	00cc0a00 	sbceq	r0, ip, r0, lsl #20
    485c:	001f0000 	andseq	r0, pc, r0
    4860:	02b5040e 	adcseq	r0, r5, #234881024	; 0xe000000
    4864:	0f130000 	svceq	0x00130000
    4868:	00000ce8 	andeq	r0, r0, r8, ror #25
    486c:	db730508 	blle	1cc5c94 <__bss_end__+0x1cbb51c>
    4870:	0c000002 	stceq	0, cr0, [r0], {2}
    4874:	00000ab5 			; <UNDEFINED> instruction: 0x00000ab5
    4878:	02db7405 	sbcseq	r7, fp, #83886080	; 0x5000000
    487c:	0c000000 	stceq	0, cr0, [r0], {-0}
    4880:	00000a19 	andeq	r0, r0, r9, lsl sl
    4884:	00257505 	eoreq	r7, r5, r5, lsl #10
    4888:	00040000 	andeq	r0, r4, r0
    488c:	0054040e 	subseq	r0, r4, lr, lsl #8
    4890:	070f0000 	streq	r0, [pc, -r0]
    4894:	6800000d 	stmdavs	r0, {r0, r2, r3}
    4898:	040bb305 	streq	fp, [fp], #-773	; 0x305
    489c:	5f100000 	svcpl	0x00100000
    48a0:	b4050070 	strlt	r0, [r5], #-112	; 0x70
    48a4:	000002db 	ldrdeq	r0, [r0], -fp
    48a8:	725f1000 	subsvc	r1, pc, #0
    48ac:	25b50500 	ldrcs	r0, [r5, #1280]!	; 0x500
    48b0:	04000000 	streq	r0, [r0], #-0
    48b4:	00775f10 	rsbseq	r5, r7, r0, lsl pc
    48b8:	0025b605 	eoreq	fp, r5, r5, lsl #12
    48bc:	0c080000 	stceq	0, cr0, [r8], {-0}
    48c0:	00000aed 	andeq	r0, r0, sp, ror #21
    48c4:	003fb705 	eorseq	fp, pc, r5, lsl #14
    48c8:	0c0c0000 	stceq	0, cr0, [ip], {-0}
    48cc:	00000c00 	andeq	r0, r0, r0, lsl #24
    48d0:	003fb805 	eorseq	fp, pc, r5, lsl #16
    48d4:	100e0000 	andne	r0, lr, r0
    48d8:	0066625f 	rsbeq	r6, r6, pc, asr r2
    48dc:	02b6b905 	adcseq	fp, r6, #81920	; 0x14000
    48e0:	0c100000 	ldceq	0, cr0, [r0], {-0}
    48e4:	00000a5c 	andeq	r0, r0, ip, asr sl
    48e8:	0025ba05 	eoreq	fp, r5, r5, lsl #20
    48ec:	0c180000 	ldceq	0, cr0, [r8], {-0}
    48f0:	00000add 	ldrdeq	r0, [r0], -sp
    48f4:	010ac105 	tsteq	sl, r5, lsl #2
    48f8:	0c1c0000 	ldceq	0, cr0, [ip], {-0}
    48fc:	00000f84 	andeq	r0, r0, r4, lsl #31
    4900:	0566c305 	strbeq	ip, [r6, #-773]!	; 0x305
    4904:	0c200000 	stceq	0, cr0, [r0], #-0
    4908:	00000f9e 	muleq	r0, lr, pc	; <UNPREDICTABLE>
    490c:	0590c505 	ldreq	ip, [r0, #1285]	; 0x505
    4910:	0c240000 	stceq	0, cr0, [r4], #-0
    4914:	00000d79 	andeq	r0, r0, r9, ror sp
    4918:	05b4c805 	ldreq	ip, [r4, #2053]!	; 0x805
    491c:	0c280000 	stceq	0, cr0, [r8], #-0
    4920:	00000f3e 	andeq	r0, r0, lr, lsr pc
    4924:	05cec905 	strbeq	ip, [lr, #2309]	; 0x905
    4928:	102c0000 	eorne	r0, ip, r0
    492c:	0062755f 	rsbeq	r7, r2, pc, asr r5
    4930:	02b6cc05 	adcseq	ip, r6, #1280	; 0x500
    4934:	10300000 	eorsne	r0, r0, r0
    4938:	0070755f 	rsbseq	r7, r0, pc, asr r5
    493c:	02dbcd05 	sbcseq	ip, fp, #320	; 0x140
    4940:	10380000 	eorsne	r0, r8, r0
    4944:	0072755f 	rsbseq	r7, r2, pc, asr r5
    4948:	0025ce05 	eoreq	ip, r5, r5, lsl #28
    494c:	0c3c0000 	ldceq	0, cr0, [ip], #-0
    4950:	00000aa0 	andeq	r0, r0, r0, lsr #21
    4954:	05d4d105 	ldrbeq	sp, [r4, #261]	; 0x105
    4958:	0c400000 	mareq	acc0, r0, r0
    495c:	00000ee9 	andeq	r0, r0, r9, ror #29
    4960:	05e4d205 	strbeq	sp, [r4, #517]!	; 0x205
    4964:	10430000 	subne	r0, r3, r0
    4968:	00626c5f 	rsbeq	r6, r2, pc, asr ip
    496c:	02b6d505 	adcseq	sp, r6, #20971520	; 0x1400000
    4970:	0c440000 	mareq	acc0, r0, r4
    4974:	00000b03 	andeq	r0, r0, r3, lsl #22
    4978:	0025d805 	eoreq	sp, r5, r5, lsl #16
    497c:	0c4c0000 	mareq	acc0, r0, ip
    4980:	00000c6b 	andeq	r0, r0, fp, ror #24
    4984:	007bd905 	rsbseq	sp, fp, r5, lsl #18
    4988:	0c500000 	mraeq	r0, r0, acc0
    498c:	00000ed4 	ldrdeq	r0, [r0], -r4
    4990:	0429dc05 	strteq	sp, [r9], #-3077	; 0xc05
    4994:	0c540000 	mraeq	r0, r4, acc0
    4998:	00000c53 	andeq	r0, r0, r3, asr ip
    499c:	00ffe005 	rscseq	lr, pc, r5
    49a0:	0c580000 	mraeq	r0, r8, acc0
    49a4:	00000d0f 	andeq	r0, r0, pc, lsl #26
    49a8:	00f4e205 	rscseq	lr, r4, r5, lsl #4
    49ac:	0c5c0000 	mraeq	r0, ip, acc0
    49b0:	00000c59 	andeq	r0, r0, r9, asr ip
    49b4:	0025e305 	eoreq	lr, r5, r5, lsl #6
    49b8:	00640000 	rsbeq	r0, r4, r0
    49bc:	00002514 	andeq	r2, r0, r4, lsl r5
    49c0:	00042900 	andeq	r2, r4, r0, lsl #18
    49c4:	04291500 	strteq	r1, [r9], #-1280	; 0x500
    49c8:	0a150000 	beq	5449d0 <__bss_end__+0x53a258>
    49cc:	15000001 	strne	r0, [r0, #-1]
    49d0:	0000010c 	andeq	r0, r0, ip, lsl #2
    49d4:	00002515 	andeq	r2, r0, r5, lsl r5
    49d8:	040e0000 	streq	r0, [lr], #-0
    49dc:	00000434 	andeq	r0, r0, r4, lsr r4
    49e0:	00042904 	andeq	r2, r4, r4, lsl #18
    49e4:	0d5c1600 	ldcleq	6, cr1, [ip, #-0]
    49e8:	04280000 	strteq	r0, [r8], #-0
    49ec:	66023805 	strvs	r3, [r2], -r5, lsl #16
    49f0:	17000005 	strne	r0, [r0, -r5]
    49f4:	00000cd7 	ldrdeq	r0, [r0], -r7
    49f8:	25023a05 	strcs	r3, [r2, #-2565]	; 0xa05
    49fc:	00000000 	andeq	r0, r0, r0
    4a00:	000afc17 	andeq	pc, sl, r7, lsl ip	; <UNPREDICTABLE>
    4a04:	023f0500 	eorseq	r0, pc, #0, 10
    4a08:	0000063b 	andeq	r0, r0, fp, lsr r6
    4a0c:	0bf01704 	bleq	ffc0a624 <__bss_end__+0xffbffeac>
    4a10:	3f050000 	svccc	0x00050000
    4a14:	00063b02 	andeq	r3, r6, r2, lsl #22
    4a18:	b1170800 	tstlt	r7, r0, lsl #16
    4a1c:	0500000b 	streq	r0, [r0, #-11]
    4a20:	063b023f 			; <UNDEFINED> instruction: 0x063b023f
    4a24:	170c0000 	strne	r0, [ip, -r0]
    4a28:	00000d30 	andeq	r0, r0, r0, lsr sp
    4a2c:	25024105 	strcs	r4, [r2, #-261]	; 0x105
    4a30:	10000000 	andne	r0, r0, r0
    4a34:	000a2717 	andeq	r2, sl, r7, lsl r7
    4a38:	02420500 	subeq	r0, r2, #0, 10
    4a3c:	0000081d 	andeq	r0, r0, sp, lsl r8
    4a40:	0e4e1714 	mcreq	7, 2, r1, cr14, cr4, {0}
    4a44:	44050000 	strmi	r0, [r5], #-0
    4a48:	00002502 	andeq	r2, r0, r2, lsl #10
    4a4c:	3a173000 	bcc	5d0a54 <__bss_end__+0x5c62dc>
    4a50:	0500000d 	streq	r0, [r0, #-13]
    4a54:	058a0245 	streq	r0, [sl, #581]	; 0x245
    4a58:	17340000 	ldrne	r0, [r4, -r0]!
    4a5c:	00000c9d 	muleq	r0, sp, ip
    4a60:	25024705 	strcs	r4, [r2, #-1797]	; 0x705
    4a64:	38000000 	stmdacc	r0, {}	; <UNPREDICTABLE>
    4a68:	000d4a17 	andeq	r4, sp, r7, lsl sl
    4a6c:	02490500 	subeq	r0, r9, #0, 10
    4a70:	00000838 	andeq	r0, r0, r8, lsr r8
    4a74:	0c2f173c 	stceq	7, cr1, [pc], #-240	; 498c <__code_start__-0x3674>
    4a78:	4c050000 	stcmi	0, cr0, [r5], {-0}
    4a7c:	00017c02 	andeq	r7, r1, r2, lsl #24
    4a80:	d0174000 	andsle	r4, r7, r0
    4a84:	0500000b 	streq	r0, [r0, #-11]
    4a88:	0025024d 	eoreq	r0, r5, sp, asr #4
    4a8c:	17440000 	strbne	r0, [r4, -r0]
    4a90:	00000f58 	andeq	r0, r0, r8, asr pc
    4a94:	7c024e05 	stcvc	14, cr4, [r2], {5}
    4a98:	48000001 	stmdami	r0, {r0}
    4a9c:	000cb417 	andeq	fp, ip, r7, lsl r4
    4aa0:	024f0500 	subeq	r0, pc, #0, 10
    4aa4:	0000083e 	andeq	r0, r0, lr, lsr r8
    4aa8:	0bf8174c 	bleq	ffe0a7e0 <__bss_end__+0xffe00068>
    4aac:	52050000 	andpl	r0, r5, #0
    4ab0:	00002502 	andeq	r2, r0, r2, lsl #10
    4ab4:	1f175000 	svcne	0x00175000
    4ab8:	0500000b 	streq	r0, [r0, #-11]
    4abc:	010c0253 	tsteq	ip, r3, asr r2
    4ac0:	17540000 	ldrbne	r0, [r4, -r0]
    4ac4:	00000cd0 	ldrdeq	r0, [r0], -r0	; <UNPREDICTABLE>
    4ac8:	fb027605 	blx	a22e6 <__bss_end__+0x97b6e>
    4acc:	58000007 	stmdapl	r0, {r0, r1, r2}
    4ad0:	000c9518 	andeq	r9, ip, r8, lsl r5
    4ad4:	027a0500 	rsbseq	r0, sl, #0, 10
    4ad8:	00000299 	muleq	r0, r9, r2
    4adc:	0d180148 	ldfeqs	f0, [r8, #-288]	; 0xfffffee0
    4ae0:	0500000c 	streq	r0, [r0, #-12]
    4ae4:	025b027b 	subseq	r0, fp, #-1342177273	; 0xb0000007
    4ae8:	014c0000 	mrseq	r0, (UNDEF: 76)
    4aec:	000eba18 	andeq	fp, lr, r8, lsl sl
    4af0:	027f0500 	rsbseq	r0, pc, #0, 10
    4af4:	0000084f 	andeq	r0, r0, pc, asr #16
    4af8:	e51802dc 	ldr	r0, [r8, #-732]	; 0x2dc
    4afc:	0500000a 	streq	r0, [r0, #-10]
    4b00:	06000284 	streq	r0, [r0], -r4, lsl #5
    4b04:	02e00000 	rsceq	r0, r0, #0
    4b08:	000aca18 	andeq	ip, sl, r8, lsl sl
    4b0c:	02850500 	addeq	r0, r5, #0, 10
    4b10:	0000085b 	andeq	r0, r0, fp, asr r8
    4b14:	0e0002ec 	cdpeq	2, 0, cr0, cr0, cr12, {7}
    4b18:	00040b04 	andeq	r0, r4, r4, lsl #22
    4b1c:	00251400 	eoreq	r1, r5, r0, lsl #8
    4b20:	058a0000 	streq	r0, [sl]
    4b24:	29150000 	ldmdbcs	r5, {}	; <UNPREDICTABLE>
    4b28:	15000004 	strne	r0, [r0, #-4]
    4b2c:	0000010a 	andeq	r0, r0, sl, lsl #2
    4b30:	00058a15 	andeq	r8, r5, r5, lsl sl
    4b34:	00251500 	eoreq	r1, r5, r0, lsl #10
    4b38:	0e000000 	cdpeq	0, 0, cr0, cr0, cr0, {0}
    4b3c:	00011904 	andeq	r1, r1, r4, lsl #18
    4b40:	6c040e00 	stcvs	14, cr0, [r4], {-0}
    4b44:	14000005 	strne	r0, [r0], #-5
    4b48:	00000086 	andeq	r0, r0, r6, lsl #1
    4b4c:	000005b4 			; <UNDEFINED> instruction: 0x000005b4
    4b50:	00042915 	andeq	r2, r4, r5, lsl r9
    4b54:	010a1500 	tsteq	sl, r0, lsl #10
    4b58:	86150000 	ldrhi	r0, [r5], -r0
    4b5c:	15000000 	strne	r0, [r0, #-0]
    4b60:	00000025 	andeq	r0, r0, r5, lsr #32
    4b64:	96040e00 	strls	r0, [r4], -r0, lsl #28
    4b68:	14000005 	strne	r0, [r0], #-5
    4b6c:	00000025 	andeq	r0, r0, r5, lsr #32
    4b70:	000005ce 	andeq	r0, r0, lr, asr #11
    4b74:	00042915 	andeq	r2, r4, r5, lsl r9
    4b78:	010a1500 	tsteq	sl, r0, lsl #10
    4b7c:	0e000000 	cdpeq	0, 0, cr0, cr0, cr0, {0}
    4b80:	0005ba04 	andeq	fp, r5, r4, lsl #20
    4b84:	00540900 	subseq	r0, r4, r0, lsl #18
    4b88:	05e40000 	strbeq	r0, [r4, #0]!
    4b8c:	cc0a0000 	stcgt	0, cr0, [sl], {-0}
    4b90:	02000000 	andeq	r0, r0, #0
    4b94:	00540900 	subseq	r0, r4, r0, lsl #18
    4b98:	05f40000 	ldrbeq	r0, [r4, #0]!
    4b9c:	cc0a0000 	stcgt	0, cr0, [sl], {-0}
    4ba0:	00000000 	andeq	r0, r0, r0
    4ba4:	0cf50600 	ldcleq	6, cr0, [r5]
    4ba8:	1d050000 	stcne	0, cr0, [r5, #-0]
    4bac:	0002e101 	andeq	lr, r2, r1, lsl #2
    4bb0:	0e7c1900 	cdpeq	9, 7, cr1, cr12, cr0, {0}
    4bb4:	050c0000 	streq	r0, [ip, #-0]
    4bb8:	06350121 	ldrteq	r0, [r5], -r1, lsr #2
    4bbc:	1d170000 	ldcne	0, cr0, [r7, #-0]
    4bc0:	0500000d 	streq	r0, [r0, #-13]
    4bc4:	06350123 	ldrteq	r0, [r5], -r3, lsr #2
    4bc8:	17000000 	strne	r0, [r0, -r0]
    4bcc:	00000c06 	andeq	r0, r0, r6, lsl #24
    4bd0:	25012405 	strcs	r2, [r1, #-1029]	; 0x405
    4bd4:	04000000 	streq	r0, [r0], #-0
    4bd8:	000cef17 	andeq	lr, ip, r7, lsl pc
    4bdc:	01250500 	teqeq	r5, r0, lsl #10
    4be0:	0000063b 	andeq	r0, r0, fp, lsr r6
    4be4:	040e0008 	streq	r0, [lr], #-8
    4be8:	00000600 	andeq	r0, r0, r0, lsl #12
    4bec:	05f4040e 	ldrbeq	r0, [r4, #1038]!	; 0x40e
    4bf0:	1f190000 	svcne	0x00190000
    4bf4:	0e00000a 	cdpeq	0, 0, cr0, cr0, cr10, {0}
    4bf8:	76013d05 	strvc	r3, [r1], -r5, lsl #26
    4bfc:	17000006 	strne	r0, [r0, -r6]
    4c00:	00000d63 	andeq	r0, r0, r3, ror #26
    4c04:	76013e05 	strvc	r3, [r1], -r5, lsl #28
    4c08:	00000006 	andeq	r0, r0, r6
    4c0c:	000d9d17 	andeq	r9, sp, r7, lsl sp
    4c10:	013f0500 	teqeq	pc, r0, lsl #10
    4c14:	00000676 	andeq	r0, r0, r6, ror r6
    4c18:	0e211706 	cdpeq	7, 2, cr1, cr1, cr6, {0}
    4c1c:	40050000 	andmi	r0, r5, r0
    4c20:	00005b01 	andeq	r5, r0, r1, lsl #22
    4c24:	09000c00 	stmdbeq	r0, {sl, fp}
    4c28:	0000005b 	andeq	r0, r0, fp, asr r0
    4c2c:	00000686 	andeq	r0, r0, r6, lsl #13
    4c30:	0000cc0a 	andeq	ip, r0, sl, lsl #24
    4c34:	1a000200 	bne	543c <__code_start__-0x2bc4>
    4c38:	025705d0 	subseq	r0, r7, #208, 10	; 0x34000000
    4c3c:	00000787 	andeq	r0, r0, r7, lsl #15
    4c40:	000e6017 	andeq	r6, lr, r7, lsl r0
    4c44:	02590500 	subseq	r0, r9, #0, 10
    4c48:	0000002c 	andeq	r0, r0, ip, lsr #32
    4c4c:	0e0b1700 	cdpeq	7, 0, cr1, cr11, cr0, {0}
    4c50:	5a050000 	bpl	144c58 <__bss_end__+0x13a4e0>
    4c54:	00010c02 	andeq	r0, r1, r2, lsl #24
    4c58:	22170400 	andscs	r0, r7, #0, 8
    4c5c:	0500000c 	streq	r0, [r0, #-12]
    4c60:	0787025b 			; <UNDEFINED> instruction: 0x0787025b
    4c64:	17080000 	strne	r0, [r8, -r0]
    4c68:	00000f2f 	andeq	r0, r0, pc, lsr #30
    4c6c:	92025c05 	andls	r5, r2, #1280	; 0x500
    4c70:	24000001 	strcs	r0, [r0], #-1
    4c74:	000bc117 	andeq	ip, fp, r7, lsl r1
    4c78:	025d0500 	subseq	r0, sp, #0, 10
    4c7c:	00000025 	andeq	r0, r0, r5, lsr #32
    4c80:	0d181748 	ldceq	7, cr1, [r8, #-288]	; 0xfffffee0
    4c84:	5e050000 	cdppl	0, 0, cr0, cr5, cr0, {0}
    4c88:	00006902 	andeq	r6, r0, r2, lsl #18
    4c8c:	45175000 	ldrmi	r5, [r7, #-0]
    4c90:	0500000f 	streq	r0, [r0, #-15]
    4c94:	0641025f 			; <UNDEFINED> instruction: 0x0641025f
    4c98:	17580000 	ldrbne	r0, [r8, -r0]
    4c9c:	00000d23 	andeq	r0, r0, r3, lsr #26
    4ca0:	f4026005 	vst4.8	{d6-d9}, [r2], r5
    4ca4:	68000000 	stmdavs	r0, {}	; <UNPREDICTABLE>
    4ca8:	000f4a17 	andeq	r4, pc, r7, lsl sl	; <UNPREDICTABLE>
    4cac:	02610500 	rsbeq	r0, r1, #0, 10
    4cb0:	000000f4 	strdeq	r0, [r0], -r4
    4cb4:	0a841770 	beq	fe10aa7c <__bss_end__+0xfe100304>
    4cb8:	62050000 	andvs	r0, r5, #0
    4cbc:	0000f402 	andeq	pc, r0, r2, lsl #8
    4cc0:	9c177800 	ldcls	8, cr7, [r7], {-0}
    4cc4:	0500000e 	streq	r0, [r0, #-14]
    4cc8:	07970263 	ldreq	r0, [r7, r3, ror #4]
    4ccc:	17800000 	strne	r0, [r0, r0]
    4cd0:	00000c16 	andeq	r0, r0, r6, lsl ip
    4cd4:	a7026405 	strge	r6, [r2, -r5, lsl #8]
    4cd8:	88000007 	stmdahi	r0, {r0, r1, r2}
    4cdc:	000e2e17 	andeq	r2, lr, r7, lsl lr
    4ce0:	02650500 	rsbeq	r0, r5, #0, 10
    4ce4:	00000025 	andeq	r0, r0, r5, lsr #32
    4ce8:	0b6d17a0 	bleq	1b4ab70 <__bss_end__+0x1b403f8>
    4cec:	66050000 	strvs	r0, [r5], -r0
    4cf0:	0000f402 	andeq	pc, r0, r2, lsl #8
    4cf4:	7517a400 	ldrvc	sl, [r7, #-1024]	; 0x400
    4cf8:	0500000a 	streq	r0, [r0, #-10]
    4cfc:	00f40267 	rscseq	r0, r4, r7, ror #4
    4d00:	17ac0000 	strne	r0, [ip, r0]!
    4d04:	00000b5c 	andeq	r0, r0, ip, asr fp
    4d08:	f4026805 	vst2.8	{d6-d7}, [r2], r5
    4d0c:	b4000000 	strlt	r0, [r0], #-0
    4d10:	000a3c17 	andeq	r3, sl, r7, lsl ip
    4d14:	02690500 	rsbeq	r0, r9, #0, 10
    4d18:	000000f4 	strdeq	r0, [r0], -r4
    4d1c:	0a4b17bc 	beq	12cac14 <__bss_end__+0x12c049c>
    4d20:	6a050000 	bvs	144d28 <__bss_end__+0x13a5b0>
    4d24:	0000f402 	andeq	pc, r0, r2, lsl #8
    4d28:	d517c400 	ldrle	ip, [r7, #-1024]	; 0x400
    4d2c:	0500000c 	streq	r0, [r0, #-12]
    4d30:	0025026b 	eoreq	r0, r5, fp, ror #4
    4d34:	00cc0000 	sbceq	r0, ip, r0
    4d38:	00011209 	andeq	r1, r1, r9, lsl #4
    4d3c:	00079700 	andeq	r9, r7, r0, lsl #14
    4d40:	00cc0a00 	sbceq	r0, ip, r0, lsl #20
    4d44:	00190000 	andseq	r0, r9, r0
    4d48:	00011209 	andeq	r1, r1, r9, lsl #4
    4d4c:	0007a700 	andeq	sl, r7, r0, lsl #14
    4d50:	00cc0a00 	sbceq	r0, ip, r0, lsl #20
    4d54:	00070000 	andeq	r0, r7, r0
    4d58:	00011209 	andeq	r1, r1, r9, lsl #4
    4d5c:	0007b700 	andeq	fp, r7, r0, lsl #14
    4d60:	00cc0a00 	sbceq	r0, ip, r0, lsl #20
    4d64:	00170000 	andseq	r0, r7, r0
    4d68:	7005f01a 	andvc	pc, r5, sl, lsl r0	; <UNPREDICTABLE>
    4d6c:	0007db02 	andeq	sp, r7, r2, lsl #22
    4d70:	0c851700 	stceq	7, cr1, [r5], {0}
    4d74:	73050000 	movwvc	r0, #20480	; 0x5000
    4d78:	0007db02 	andeq	sp, r7, r2, lsl #22
    4d7c:	93170000 	tstls	r7, #0
    4d80:	0500000e 	streq	r0, [r0, #-14]
    4d84:	07eb0274 			; <UNDEFINED> instruction: 0x07eb0274
    4d88:	00780000 	rsbseq	r0, r8, r0
    4d8c:	0002db09 	andeq	sp, r2, r9, lsl #22
    4d90:	0007eb00 	andeq	lr, r7, r0, lsl #22
    4d94:	00cc0a00 	sbceq	r0, ip, r0, lsl #20
    4d98:	001d0000 	andseq	r0, sp, r0
    4d9c:	00002c09 	andeq	r2, r0, r9, lsl #24
    4da0:	0007fb00 	andeq	pc, r7, r0, lsl #22
    4da4:	00cc0a00 	sbceq	r0, ip, r0, lsl #20
    4da8:	001d0000 	andseq	r0, sp, r0
    4dac:	5505f01b 	strpl	pc, [r5, #-27]
    4db0:	00081d02 	andeq	r1, r8, r2, lsl #26
    4db4:	0d5c1c00 	ldcleq	12, cr1, [ip, #-0]
    4db8:	6c050000 	stcvs	0, cr0, [r5], {-0}
    4dbc:	00068602 	andeq	r8, r6, r2, lsl #12
    4dc0:	0eef1c00 	cdpeq	12, 14, cr1, cr15, cr0, {0}
    4dc4:	75050000 	strvc	r0, [r5, #-0]
    4dc8:	0007b702 	andeq	fp, r7, r2, lsl #14
    4dcc:	12090000 	andne	r0, r9, #0
    4dd0:	2d000001 	stccs	0, cr0, [r0, #-4]
    4dd4:	0a000008 	beq	4dfc <__code_start__-0x3204>
    4dd8:	000000cc 	andeq	r0, r0, ip, asr #1
    4ddc:	381d0018 	ldmdacc	sp, {r3, r4}
    4de0:	15000008 	strne	r0, [r0, #-8]
    4de4:	00000429 	andeq	r0, r0, r9, lsr #8
    4de8:	2d040e00 	stccs	14, cr0, [r4, #-0]
    4dec:	0e000008 	cdpeq	0, 0, cr0, cr0, cr8, {0}
    4df0:	00017c04 	andeq	r7, r1, r4, lsl #24
    4df4:	084f1d00 	stmdaeq	pc, {r8, sl, fp, ip}^	; <UNPREDICTABLE>
    4df8:	25150000 	ldrcs	r0, [r5, #-0]
    4dfc:	00000000 	andeq	r0, r0, r0
    4e00:	0855040e 	ldmdaeq	r5, {r1, r2, r3, sl}^
    4e04:	040e0000 	streq	r0, [lr], #-0
    4e08:	00000844 	andeq	r0, r0, r4, asr #16
    4e0c:	0005f409 	andeq	pc, r5, r9, lsl #8
    4e10:	00086b00 	andeq	r6, r8, r0, lsl #22
    4e14:	00cc0a00 	sbceq	r0, ip, r0, lsl #20
    4e18:	00020000 	andeq	r0, r2, r0
    4e1c:	000e421e 	andeq	r4, lr, lr, lsl r2
    4e20:	02fd0500 	rscseq	r0, sp, #0, 10
    4e24:	00000429 	andeq	r0, r0, r9, lsr #8
    4e28:	000e3b1e 	andeq	r3, lr, lr, lsl fp
    4e2c:	02fe0500 	rscseq	r0, lr, #0, 10
    4e30:	0000042f 	andeq	r0, r0, pc, lsr #8
    4e34:	00002514 	andeq	r2, r0, r4, lsl r5
    4e38:	00089200 	andeq	r9, r8, r0, lsl #4
    4e3c:	00251500 	eoreq	r1, r5, r0, lsl #10
    4e40:	1f000000 	svcne	0x00000000
    4e44:	0000063c 	andeq	r0, r0, ip, lsr r6
    4e48:	089d1d06 	ldmeq	sp, {r1, r2, r8, sl, fp, ip}
    4e4c:	040e0000 	streq	r0, [lr], #-0
    4e50:	00000883 	andeq	r0, r0, r3, lsl #17
    4e54:	00002514 	andeq	r2, r0, r4, lsl r5
    4e58:	0008b200 	andeq	fp, r8, r0, lsl #4
    4e5c:	058a1500 	streq	r1, [sl, #1280]	; 0x500
    4e60:	1f000000 	svcne	0x00000000
    4e64:	00000679 	andeq	r0, r0, r9, ror r6
    4e68:	08bd2206 	popeq	{r1, r2, r9, sp}
    4e6c:	040e0000 	streq	r0, [lr], #-0
    4e70:	000008a3 	andeq	r0, r0, r3, lsr #17
    4e74:	00540120 	subseq	r0, r4, r0, lsr #2
    4e78:	0c070000 	stceq	0, cr0, [r7], {-0}
    4e7c:	00000900 	andeq	r0, r0, r0, lsl #18
    4e80:	000a6521 	andeq	r6, sl, r1, lsr #10
    4e84:	82210000 	eorhi	r0, r1, #0
    4e88:	0100000e 	tsteq	r0, lr
    4e8c:	000eda21 	andeq	sp, lr, r1, lsr #20
    4e90:	a6210400 	strtge	r0, [r1], -r0, lsl #8
    4e94:	0500000a 	streq	r0, [r0, #-10]
    4e98:	000c3d21 	andeq	r3, ip, r1, lsr #26
    4e9c:	f7210600 			; <UNDEFINED> instruction: 0xf7210600
    4ea0:	0700000e 	streq	r0, [r0, -lr]
    4ea4:	000f0621 	andeq	r0, pc, r1, lsr #12
    4ea8:	15210300 	strne	r0, [r1, #-768]!	; 0x300
    4eac:	0200000f 	andeq	r0, r0, #15
    4eb0:	0fd40500 	svceq	0x00d40500
    4eb4:	15070000 	strne	r0, [r7, #-0]
    4eb8:	000008c3 	andeq	r0, r0, r3, asr #17
    4ebc:	000fa522 	andeq	sl, pc, r2, lsr #10
    4ec0:	331d0100 	tstcc	sp, #0, 2
    4ec4:	1c000000 	stcne	0, cr0, [r0], {-0}
    4ec8:	22202000 	eorcs	r2, r0, #0
    4ecc:	00000fe0 	andeq	r0, r0, r0, ror #31
    4ed0:	00331e01 	eorseq	r1, r3, r1, lsl #28
    4ed4:	00280000 	eoreq	r0, r8, r0
    4ed8:	af222020 	svcge	0x00222020
    4edc:	0100000f 	tsteq	r0, pc
    4ee0:	0000331f 	andeq	r3, r0, pc, lsl r3
    4ee4:	20003400 	andcs	r3, r0, r0, lsl #8
    4ee8:	0f802320 	svceq	0x00802320
    4eec:	56010000 	strpl	r0, [r1], -r0
    4ef0:	00000025 	andeq	r0, r0, r5, lsr #32
    4ef4:	00009ab4 			; <UNDEFINED> instruction: 0x00009ab4
    4ef8:	00000034 	andeq	r0, r0, r4, lsr r0
    4efc:	09989c01 	ldmibeq	r8, {r0, sl, fp, ip, pc}
    4f00:	70240000 	eorvc	r0, r4, r0
    4f04:	01006e69 	tsteq	r0, r9, ror #28
    4f08:	00002c56 	andeq	r2, r0, r6, asr ip
    4f0c:	000fcd00 	andeq	ip, pc, r0, lsl #26
    4f10:	0f742500 	svceq	0x00742500
    4f14:	59010000 	stmdbpl	r1, {}	; <UNPREDICTABLE>
    4f18:	0000002c 	andeq	r0, r0, ip, lsr #32
    4f1c:	00001007 	andeq	r1, r0, r7
    4f20:	66666f26 	strbtvs	r6, [r6], -r6, lsr #30
    4f24:	2c5a0100 	ldfcse	f0, [sl], {-0}
    4f28:	45000000 	strmi	r0, [r0, #-0]
    4f2c:	27000010 	smladcs	r0, r0, r0, r0
    4f30:	00009ad0 	ldrdeq	r9, [r0], -r0
    4f34:	00000b5d 	andeq	r0, r0, sp, asr fp
    4f38:	0b500128 	bleq	14053e0 <__bss_end__+0x13fac68>
    4f3c:	355001f3 	ldrbcc	r0, [r0, #-499]	; 0x1f3
    4f40:	80b42325 	adcshi	r2, r4, r5, lsr #6
    4f44:	00028180 	andeq	r8, r2, r0, lsl #3
    4f48:	0f9a2900 	svceq	0x009a2900
    4f4c:	4f010000 	svcmi	0x00010000
    4f50:	00009a98 	muleq	r0, r8, sl
    4f54:	0000001c 	andeq	r0, r0, ip, lsl r0
    4f58:	09e89c01 	stmibeq	r8!, {r0, sl, fp, ip, pc}^
    4f5c:	70240000 	eorvc	r0, r4, r0
    4f60:	01006e69 	tsteq	r0, r9, ror #28
    4f64:	00002c4f 	andeq	r2, r0, pc, asr #24
    4f68:	00105800 	andseq	r5, r0, r0, lsl #16
    4f6c:	00762400 	rsbseq	r2, r6, r0, lsl #8
    4f70:	002c4f01 	eoreq	r4, ip, r1, lsl #30
    4f74:	10920000 	addsne	r0, r2, r0
    4f78:	a82a0000 	stmdage	sl!, {}	; <UNPREDICTABLE>
    4f7c:	2300009a 	movwcs	r0, #154	; 0x9a
    4f80:	de00000a 	cdple	0, 0, cr0, cr0, cr10, {0}
    4f84:	28000009 	stmdacs	r0, {r0, r3}
    4f88:	f3035001 	vhadd.u8	d5, d3, d1
    4f8c:	2b005001 	blcs	18f98 <__bss_end__+0xe820>
    4f90:	00009ab0 			; <UNDEFINED> instruction: 0x00009ab0
    4f94:	00000a64 	andeq	r0, r0, r4, ror #20
    4f98:	0fb92900 	svceq	0x00b92900
    4f9c:	4a010000 	bmi	44fa4 <__bss_end__+0x3a82c>
    4fa0:	00009a88 	andeq	r9, r0, r8, lsl #21
    4fa4:	00000010 	andeq	r0, r0, r0, lsl r0
    4fa8:	0a239c01 	beq	8ebfb4 <__bss_end__+0x8e183c>
    4fac:	70240000 	eorvc	r0, r4, r0
    4fb0:	01006e69 	tsteq	r0, r9, ror #28
    4fb4:	00002c4a 	andeq	r2, r0, sl, asr #24
    4fb8:	0010cc00 	andseq	ip, r0, r0, lsl #24
    4fbc:	9a942700 	bls	fe50ebc4 <__bss_end__+0xfe50444c>
    4fc0:	0ae00000 	beq	ff804fc8 <__bss_end__+0xff7fa850>
    4fc4:	01280000 	teqeq	r8, r0
    4fc8:	01f30350 	mvnseq	r0, r0, asr r3
    4fcc:	51012850 	tstpl	r1, r0, asr r8
    4fd0:	00003001 	andeq	r3, r0, r1
    4fd4:	000f6729 	andeq	r6, pc, r9, lsr #14
    4fd8:	64430100 	strbvs	r0, [r3], #-256	; 0x100
    4fdc:	2400009a 	strcs	r0, [r0], #-154	; 0x9a
    4fe0:	01000000 	mrseq	r0, (UNDEF: 0)
    4fe4:	000a649c 	muleq	sl, ip, r4
    4fe8:	69702400 	ldmdbvs	r0!, {sl, sp}^
    4fec:	4301006e 	movwmi	r0, #4206	; 0x106e
    4ff0:	0000002c 	andeq	r0, r0, ip, lsr #32
    4ff4:	000010ed 	andeq	r1, r0, sp, ror #1
    4ff8:	009a8027 	addseq	r8, sl, r7, lsr #32
    4ffc:	000b6800 	andeq	r6, fp, r0, lsl #16
    5000:	50012800 	andpl	r2, r1, r0, lsl #16
    5004:	00280c05 	eoreq	r0, r8, r5, lsl #24
    5008:	01282020 	teqeq	r8, r0, lsr #32
    500c:	f3310551 	vqrshl.u64	q0, <illegal reg q0.5>, <illegal reg q0.5>
    5010:	00245001 	eoreq	r5, r4, r1
    5014:	0fc82900 	svceq	0x00c82900
    5018:	3c010000 	stccc	0, cr0, [r1], {-0}
    501c:	00009a40 	andeq	r9, r0, r0, asr #20
    5020:	00000024 	andeq	r0, r0, r4, lsr #32
    5024:	0aa59c01 	beq	fe96c030 <__bss_end__+0xfe9618b8>
    5028:	70240000 	eorvc	r0, r4, r0
    502c:	01006e69 	tsteq	r0, r9, ror #28
    5030:	00002c3c 	andeq	r2, r0, ip, lsr ip
    5034:	00110e00 	andseq	r0, r1, r0, lsl #28
    5038:	9a5c2700 	bls	170ec40 <__bss_end__+0x17044c8>
    503c:	0b680000 	bleq	1a05044 <__bss_end__+0x19fa8cc>
    5040:	01280000 	teqeq	r8, r0
    5044:	1c0c0550 	cfstr32ne	mvfx0, [ip], {80}	; 0x50
    5048:	28202000 	stmdacs	r0!, {sp}
    504c:	31055101 	tstcc	r5, r1, lsl #2
    5050:	245001f3 	ldrbcs	r0, [r0], #-499	; 0x1f3
    5054:	8a290000 	bhi	a4505c <__bss_end__+0xa3a8e4>
    5058:	0100000f 	tsteq	r0, pc
    505c:	009a3037 	addseq	r3, sl, r7, lsr r0
    5060:	00001000 	andeq	r1, r0, r0
    5064:	e09c0100 	adds	r0, ip, r0, lsl #2
    5068:	2400000a 	strcs	r0, [r0], #-10
    506c:	006e6970 	rsbeq	r6, lr, r0, ror r9
    5070:	002c3701 	eoreq	r3, ip, r1, lsl #14
    5074:	112f0000 	teqne	pc, r0
    5078:	3c270000 	stccc	0, cr0, [r7], #-0
    507c:	e000009a 	mul	r0, sl, r0
    5080:	2800000a 	stmdacs	r0, {r1, r3}
    5084:	f3035001 	vhadd.u8	d5, d3, d1
    5088:	01285001 	teqeq	r8, r1
    508c:	00310151 	eorseq	r0, r1, r1, asr r1
    5090:	0c732900 	ldcleq	9, cr2, [r3], #-0
    5094:	28010000 	stmdacs	r1, {}	; <UNPREDICTABLE>
    5098:	000099c8 	andeq	r9, r0, r8, asr #19
    509c:	00000068 	andeq	r0, r0, r8, rrx
    50a0:	0b5d9c01 	bleq	176c0ac <__bss_end__+0x1761934>
    50a4:	70240000 	eorvc	r0, r4, r0
    50a8:	01006e69 	tsteq	r0, r9, ror #28
    50ac:	00002c28 	andeq	r2, r0, r8, lsr #24
    50b0:	00115000 	andseq	r5, r1, r0
    50b4:	0ebf2c00 	cdpeq	12, 11, cr2, cr15, cr0, {0}
    50b8:	28010000 	stmdacs	r1, {}	; <UNPREDICTABLE>
    50bc:	00000900 	andeq	r0, r0, r0, lsl #18
    50c0:	00001171 	andeq	r1, r0, r1, ror r1
    50c4:	66666f2d 	strbtvs	r6, [r6], -sp, lsr #30
    50c8:	2c2d0100 	stfcss	f0, [sp], #-0
    50cc:	01000000 	mrseq	r0, (UNDEF: 0)
    50d0:	00672d54 	rsbeq	r2, r7, r4, asr sp
    50d4:	002c2f01 	eoreq	r2, ip, r1, lsl #30
    50d8:	56010000 	strpl	r0, [r1], -r0
    50dc:	01007626 	tsteq	r0, r6, lsr #12
    50e0:	00002c31 	andeq	r2, r0, r1, lsr ip
    50e4:	00119200 	andseq	r9, r1, r0, lsl #4
    50e8:	9a142a00 	bls	50f8f0 <__bss_end__+0x505178>
    50ec:	0b5d0000 	bleq	17450f4 <__bss_end__+0x173a97c>
    50f0:	0b4c0000 	bleq	13050f8 <__bss_end__+0x12fa980>
    50f4:	01280000 	teqeq	r8, r0
    50f8:	00760250 	rsbseq	r0, r6, r0, asr r2
    50fc:	9a282700 	bls	a0ed04 <__bss_end__+0xa0458c>
    5100:	0b680000 	bleq	1a05108 <__bss_end__+0x19fa990>
    5104:	01280000 	teqeq	r8, r0
    5108:	00760250 	rsbseq	r0, r6, r0, asr r2
    510c:	dc2e0000 	stcle	0, cr0, [lr], #-0
    5110:	dc000009 	stcle	0, cr0, [r0], {9}
    5114:	06000009 	streq	r0, [r0], -r9
    5118:	09162ea7 	ldmdbeq	r6, {r0, r1, r2, r5, r7, r9, sl, fp, sp}
    511c:	09160000 	ldmdbeq	r6, {}	; <UNPREDICTABLE>
    5120:	9b060000 	blls	185128 <__bss_end__+0x17a9b0>
	...

Disassembly of section .debug_abbrev:

00000000 <.debug_abbrev>:
       0:	25011101 	strcs	r1, [r1, #-257]	; 0x101
       4:	030b130e 	movweq	r1, #45838	; 0xb30e
       8:	110e1b0e 	tstne	lr, lr, lsl #22
       c:	10061201 	andne	r1, r6, r1, lsl #4
      10:	02000017 	andeq	r0, r0, #23
      14:	0b0b0024 	bleq	2c00ac <__bss_end__+0x2b5934>
      18:	08030b3e 	stmdaeq	r3, {r1, r2, r3, r4, r5, r8, r9, fp}
      1c:	24030000 	strcs	r0, [r3], #-0
      20:	3e0b0b00 	vmlacc.f64	d0, d11, d0
      24:	000e030b 	andeq	r0, lr, fp, lsl #6
      28:	00160400 	andseq	r0, r6, r0, lsl #8
      2c:	0b3a0e03 	bleq	e83840 <__bss_end__+0xe790c8>
      30:	13490b3b 	movtne	r0, #39739	; 0x9b3b
      34:	0f050000 	svceq	0x00050000
      38:	490b0b00 	stmdbmi	fp, {r8, r9, fp}
      3c:	06000013 			; <UNDEFINED> instruction: 0x06000013
      40:	13490026 	movtne	r0, #36902	; 0x9026
      44:	01070000 	mrseq	r0, (UNDEF: 7)
      48:	01134901 	tsteq	r3, r1, lsl #18
      4c:	08000013 	stmdaeq	r0, {r0, r1, r4}
      50:	13490021 	movtne	r0, #36897	; 0x9021
      54:	00000b2f 	andeq	r0, r0, pc, lsr #22
      58:	03011309 	movweq	r1, #4873	; 0x1309
      5c:	3a0b0b0e 	bcc	2c2c9c <__bss_end__+0x2b8524>
      60:	010b3b0b 	tsteq	fp, fp, lsl #22
      64:	0a000013 	beq	b8 <__code_start__-0x7f48>
      68:	0e03000d 	cdpeq	0, 0, cr0, cr3, cr13, {0}
      6c:	0b3b0b3a 	bleq	ec2d5c <__bss_end__+0xeb85e4>
      70:	0b381349 	bleq	e04d9c <__bss_end__+0xdfa624>
      74:	0d0b0000 	stceq	0, cr0, [fp, #-0]
      78:	3a080300 	bcc	200c80 <__bss_end__+0x1f6508>
      7c:	490b3b0b 	stmdbmi	fp, {r0, r1, r3, r8, r9, fp, ip, sp}
      80:	000b3813 	andeq	r3, fp, r3, lsl r8
      84:	00350c00 	eorseq	r0, r5, r0, lsl #24
      88:	150d0000 	strne	r0, [sp, #-0]
      8c:	01192701 	tsteq	r9, r1, lsl #14
      90:	0e000013 	mcreq	0, 0, r0, cr0, cr3, {0}
      94:	13490005 	movtne	r0, #36869	; 0x9005
      98:	150f0000 	strne	r0, [pc, #-0]	; a0 <__code_start__-0x7f60>
      9c:	49192701 	ldmdbmi	r9, {r0, r8, r9, sl, sp}
      a0:	00130113 	andseq	r0, r3, r3, lsl r1
      a4:	00351000 	eorseq	r1, r5, r0
      a8:	00001349 	andeq	r1, r0, r9, asr #6
      ac:	03012e11 	movweq	r2, #7697	; 0x1e11
      b0:	3b0b3a0e 	blcc	2ce8f0 <__bss_end__+0x2c4178>
      b4:	2019270b 	andscs	r2, r9, fp, lsl #14
      b8:	0013010b 	andseq	r0, r3, fp, lsl #2
      bc:	00051200 	andeq	r1, r5, r0, lsl #4
      c0:	0b3a0803 	bleq	e820d4 <__bss_end__+0xe7795c>
      c4:	13490b3b 	movtne	r0, #39739	; 0x9b3b
      c8:	2e130000 	cdpcs	0, 1, cr0, cr3, cr0, {0}
      cc:	3a0e0301 	bcc	380cd8 <__bss_end__+0x376560>
      d0:	270b3b0b 	strcs	r3, [fp, -fp, lsl #22]
      d4:	20134919 	andscs	r4, r3, r9, lsl r9
      d8:	0013010b 	andseq	r0, r3, fp, lsl #2
      dc:	002e1400 	eoreq	r1, lr, r0, lsl #8
      e0:	0e03193f 	mcreq	9, 0, r1, cr3, cr15, {1}
      e4:	0b3b0b3a 	bleq	ec2dd4 <__bss_end__+0xeb865c>
      e8:	13491927 	movtne	r1, #39207	; 0x9927
      ec:	00000b20 	andeq	r0, r0, r0, lsr #22
      f0:	3f012e15 	svccc	0x00012e15
      f4:	3a0e0319 	bcc	380d60 <__bss_end__+0x3765e8>
      f8:	270b3b0b 	strcs	r3, [fp, -fp, lsl #22]
      fc:	12011119 	andne	r1, r1, #1073741830	; 0x40000006
     100:	97184006 	ldrls	r4, [r8, -r6]
     104:	13011942 	movwne	r1, #6466	; 0x1942
     108:	05160000 	ldreq	r0, [r6, #-0]
     10c:	3a080300 	bcc	200d14 <__bss_end__+0x1f659c>
     110:	490b3b0b 	stmdbmi	fp, {r0, r1, r3, r8, r9, fp, ip, sp}
     114:	00170213 	andseq	r0, r7, r3, lsl r2
     118:	00341700 	eorseq	r1, r4, r0, lsl #14
     11c:	13490e03 	movtne	r0, #40451	; 0x9e03
     120:	18021934 	stmdane	r2, {r2, r4, r5, r8, fp, ip}
     124:	89180000 	ldmdbhi	r8, {}	; <UNPREDICTABLE>
     128:	11000182 	smlabbne	r0, r2, r1, r0
     12c:	00133101 	andseq	r3, r3, r1, lsl #2
     130:	82891900 	addhi	r1, r9, #0, 18
     134:	01110101 	tsteq	r1, r1, lsl #2
     138:	13011331 	movwne	r1, #4913	; 0x1331
     13c:	8a1a0000 	bhi	680144 <__bss_end__+0x6759cc>
     140:	02000182 	andeq	r0, r0, #-2147483616	; 0x80000020
     144:	18429118 	stmdane	r2, {r3, r4, r8, ip, pc}^
     148:	341b0000 	ldrcc	r0, [fp], #-0
     14c:	490e0300 	stmdbmi	lr, {r8, r9}
     150:	1c193413 	cfldrsne	mvf3, [r9], {19}
     154:	1c00000e 	stcne	0, cr0, [r0], {14}
     158:	0e03012e 	adfeqsp	f0, f3, #0.5
     15c:	0b3b0b3a 	bleq	ec2e4c <__bss_end__+0xeb86d4>
     160:	01111927 	tsteq	r1, r7, lsr #18
     164:	18400612 	stmdane	r0, {r1, r4, r9, sl}^
     168:	01194297 			; <UNDEFINED> instruction: 0x01194297
     16c:	1d000013 	stcne	0, cr0, [r0, #-76]	; 0xffffffb4
     170:	1331011d 	teqne	r1, #1073741831	; 0x40000007
     174:	06120111 			; <UNDEFINED> instruction: 0x06120111
     178:	0b590b58 	bleq	1642ee0 <__bss_end__+0x1638768>
     17c:	00001301 	andeq	r1, r0, r1, lsl #6
     180:	3100051e 	tstcc	r0, lr, lsl r5
     184:	00180213 	andseq	r0, r8, r3, lsl r2
     188:	010b1f00 	tsteq	fp, r0, lsl #30
     18c:	06120111 			; <UNDEFINED> instruction: 0x06120111
     190:	89200000 	stmdbhi	r0!, {}	; <UNPREDICTABLE>
     194:	11010182 	smlabbne	r1, r2, r1, r0
     198:	00133101 	andseq	r3, r3, r1, lsl #2
     19c:	00342100 	eorseq	r2, r4, r0, lsl #2
     1a0:	18021331 	stmdane	r2, {r0, r4, r5, r8, r9, ip}
     1a4:	2e220000 	cdpcs	0, 2, cr0, cr2, cr0, {0}
     1a8:	3a0e0301 	bcc	380db4 <__bss_end__+0x37663c>
     1ac:	270b3b0b 	strcs	r3, [fp, -fp, lsl #22]
     1b0:	11134919 	tstne	r3, r9, lsl r9
     1b4:	40061201 	andmi	r1, r6, r1, lsl #4
     1b8:	19429718 	stmdbne	r2, {r3, r4, r8, r9, sl, ip, pc}^
     1bc:	00001301 	andeq	r1, r0, r1, lsl #6
     1c0:	03000523 	movweq	r0, #1315	; 0x523
     1c4:	3b0b3a08 	blcc	2ce9ec <__bss_end__+0x2c4274>
     1c8:	0213490b 	andseq	r4, r3, #180224	; 0x2c000
     1cc:	24000018 	strcs	r0, [r0], #-24
     1d0:	1331011d 	teqne	r1, #1073741831	; 0x40000007
     1d4:	06120111 			; <UNDEFINED> instruction: 0x06120111
     1d8:	0b590b58 	bleq	1642f40 <__bss_end__+0x16387c8>
     1dc:	2e250000 	cdpcs	0, 2, cr0, cr5, cr0, {0}
     1e0:	03193f00 	tsteq	r9, #0, 30
     1e4:	3b0b3a0e 	blcc	2cea24 <__bss_end__+0x2c42ac>
     1e8:	4919270b 	ldmdbmi	r9, {r0, r1, r3, r8, r9, sl, sp}
     1ec:	12011113 	andne	r1, r1, #-1073741820	; 0xc0000004
     1f0:	97184006 	ldrls	r4, [r8, -r6]
     1f4:	00001942 	andeq	r1, r0, r2, asr #18
     1f8:	03003426 	movweq	r3, #1062	; 0x426
     1fc:	3b0b3a08 	blcc	2cea24 <__bss_end__+0x2c42ac>
     200:	0213490b 	andseq	r4, r3, #180224	; 0x2c000
     204:	27000018 	smladcs	r0, r8, r0, r0
     208:	08030034 	stmdaeq	r3, {r2, r4, r5}
     20c:	0b3b0b3a 	bleq	ec2efc <__bss_end__+0xeb8784>
     210:	00001349 	andeq	r1, r0, r9, asr #6
     214:	03003428 	movweq	r3, #1064	; 0x428
     218:	3b0b3a0e 	blcc	2cea58 <__bss_end__+0x2c42e0>
     21c:	3f13490b 	svccc	0x0013490b
     220:	00193c19 	andseq	r3, r9, r9, lsl ip
     224:	002e2900 	eoreq	r2, lr, r0, lsl #18
     228:	0e03193f 	mcreq	9, 0, r1, cr3, cr15, {1}
     22c:	0b3b0b3a 	bleq	ec2f1c <__bss_end__+0xeb87a4>
     230:	193c1927 	ldmdbne	ip!, {r0, r1, r2, r5, r8, fp, ip}
     234:	2e2a0000 	cdpcs	0, 2, cr0, cr10, cr0, {0}
     238:	03193f01 	tsteq	r9, #1, 30
     23c:	3b0b3a0e 	blcc	2cea7c <__bss_end__+0x2c4304>
     240:	4919270b 	ldmdbmi	r9, {r0, r1, r3, r8, r9, sl, sp}
     244:	01193c13 	tsteq	r9, r3, lsl ip
     248:	2b000013 	blcs	29c <__code_start__-0x7d64>
     24c:	00000018 	andeq	r0, r0, r8, lsl r0
     250:	3f012e2c 	svccc	0x00012e2c
     254:	3a0e0319 	bcc	380ec0 <__bss_end__+0x376748>
     258:	270b3b0b 	strcs	r3, [fp, -fp, lsl #22]
     25c:	3c134919 	ldccc	9, cr4, [r3], {25}
     260:	00000019 	andeq	r0, r0, r9, lsl r0
     264:	25011101 	strcs	r1, [r1, #-257]	; 0x101
     268:	030b130e 	movweq	r1, #45838	; 0xb30e
     26c:	110e1b0e 	tstne	lr, lr, lsl #22
     270:	10061201 	andne	r1, r6, r1, lsl #4
     274:	02000017 	andeq	r0, r0, #23
     278:	0b0b0024 	bleq	2c0310 <__bss_end__+0x2b5b98>
     27c:	08030b3e 	stmdaeq	r3, {r1, r2, r3, r4, r5, r8, r9, fp}
     280:	24030000 	strcs	r0, [r3], #-0
     284:	3e0b0b00 	vmlacc.f64	d0, d11, d0
     288:	000e030b 	andeq	r0, lr, fp, lsl #6
     28c:	00160400 	andseq	r0, r6, r0, lsl #8
     290:	0b3a0e03 	bleq	e83aa4 <__bss_end__+0xe7932c>
     294:	13490b3b 	movtne	r0, #39739	; 0x9b3b
     298:	0f050000 	svceq	0x00050000
     29c:	000b0b00 	andeq	r0, fp, r0, lsl #22
     2a0:	000f0600 	andeq	r0, pc, r0, lsl #12
     2a4:	13490b0b 	movtne	r0, #39691	; 0x9b0b
     2a8:	26070000 	strcs	r0, [r7], -r0
     2ac:	00134900 	andseq	r4, r3, r0, lsl #18
     2b0:	01150800 	tsteq	r5, r0, lsl #16
     2b4:	13011927 	movwne	r1, #6439	; 0x1927
     2b8:	05090000 	streq	r0, [r9, #-0]
     2bc:	00134900 	andseq	r4, r3, r0, lsl #18
     2c0:	012e0a00 	teqeq	lr, r0, lsl #20
     2c4:	0b3a0e03 	bleq	e83ad8 <__bss_end__+0xe79360>
     2c8:	19270b3b 	stmdbne	r7!, {r0, r1, r3, r4, r5, r8, r9, fp}
     2cc:	0b201349 	bleq	804ff8 <__bss_end__+0x7fa880>
     2d0:	00001301 	andeq	r1, r0, r1, lsl #6
     2d4:	0300340b 	movweq	r3, #1035	; 0x40b
     2d8:	3b0b3a08 	blcc	2ceb00 <__bss_end__+0x2c4388>
     2dc:	0013490b 	andseq	r4, r3, fp, lsl #18
     2e0:	00050c00 	andeq	r0, r5, r0, lsl #24
     2e4:	0b3a0803 	bleq	e822f8 <__bss_end__+0xe77b80>
     2e8:	13490b3b 	movtne	r0, #39739	; 0x9b3b
     2ec:	2e0d0000 	cdpcs	0, 0, cr0, cr13, cr0, {0}
     2f0:	3a0e0301 	bcc	380efc <__bss_end__+0x376784>
     2f4:	270b3b0b 	strcs	r3, [fp, -fp, lsl #22]
     2f8:	010b2019 	tsteq	fp, r9, lsl r0
     2fc:	0e000013 	mcreq	0, 0, r0, cr0, cr3, {0}
     300:	0e030034 	mcreq	0, 0, r0, cr3, cr4, {1}
     304:	0b3b0b3a 	bleq	ec2ff4 <__bss_end__+0xeb887c>
     308:	00001349 	andeq	r1, r0, r9, asr #6
     30c:	3f012e0f 	svccc	0x00012e0f
     310:	3a0e0319 	bcc	380f7c <__bss_end__+0x376804>
     314:	270b3b0b 	strcs	r3, [fp, -fp, lsl #22]
     318:	12011119 	andne	r1, r1, #1073741830	; 0x40000006
     31c:	97184006 	ldrls	r4, [r8, -r6]
     320:	13011942 	movwne	r1, #6466	; 0x1942
     324:	05100000 	ldreq	r0, [r0, #-0]
     328:	3a0e0300 	bcc	380f30 <__bss_end__+0x3767b8>
     32c:	490b3b0b 	stmdbmi	fp, {r0, r1, r3, r8, r9, fp, ip, sp}
     330:	00170213 	andseq	r0, r7, r3, lsl r2
     334:	00341100 	eorseq	r1, r4, r0, lsl #2
     338:	0b3a0e03 	bleq	e83b4c <__bss_end__+0xe793d4>
     33c:	13490b3b 	movtne	r0, #39739	; 0x9b3b
     340:	00001702 	andeq	r1, r0, r2, lsl #14
     344:	03003412 	movweq	r3, #1042	; 0x412
     348:	3413490e 	ldrcc	r4, [r3], #-2318	; 0x90e
     34c:	00180219 	andseq	r0, r8, r9, lsl r2
     350:	011d1300 	tsteq	sp, r0, lsl #6
     354:	01111331 	tsteq	r1, r1, lsr r3
     358:	0b580612 	bleq	1601ba8 <__bss_end__+0x15f7430>
     35c:	13010b59 	movwne	r0, #7001	; 0x1b59
     360:	0b140000 	bleq	500368 <__bss_end__+0x4f5bf0>
     364:	12011101 	andne	r1, r1, #1073741824	; 0x40000000
     368:	15000006 	strne	r0, [r0, #-6]
     36c:	13310034 	teqne	r1, #52	; 0x34
     370:	00001702 	andeq	r1, r0, r2, lsl #14
     374:	31000516 	tstcc	r0, r6, lsl r5
     378:	00170213 	andseq	r0, r7, r3, lsl r2
     37c:	00051700 	andeq	r1, r5, r0, lsl #14
     380:	051c1331 	ldreq	r1, [ip, #-817]	; 0x331
     384:	05180000 	ldreq	r0, [r8, #-0]
     388:	1c133100 	ldfnes	f3, [r3], {-0}
     38c:	1900000b 	stmdbne	r0, {r0, r1, r3}
     390:	00018289 	andeq	r8, r1, r9, lsl #5
     394:	13310111 	teqne	r1, #1073741828	; 0x40000004
     398:	891a0000 	ldmdbhi	sl, {}	; <UNPREDICTABLE>
     39c:	11010182 	smlabbne	r1, r2, r1, r0
     3a0:	01133101 	tsteq	r3, r1, lsl #2
     3a4:	1b000013 	blne	3f8 <__code_start__-0x7c08>
     3a8:	0001828a 	andeq	r8, r1, sl, lsl #5
     3ac:	42911802 	addsmi	r1, r1, #131072	; 0x20000
     3b0:	1c000018 	stcne	0, cr0, [r0], {24}
     3b4:	13490101 	movtne	r0, #37121	; 0x9101
     3b8:	00001301 	andeq	r1, r0, r1, lsl #6
     3bc:	4900211d 	stmdbmi	r0, {r0, r2, r3, r4, r8, sp}
     3c0:	000b2f13 	andeq	r2, fp, r3, lsl pc
     3c4:	00341e00 	eorseq	r1, r4, r0, lsl #28
     3c8:	13490e03 	movtne	r0, #40451	; 0x9e03
     3cc:	0e1c1934 	mrceq	9, 0, r1, cr12, cr4, {1}
     3d0:	051f0000 	ldreq	r0, [pc, #-0]	; 3d8 <__code_start__-0x7c28>
     3d4:	3a080300 	bcc	200fdc <__bss_end__+0x1f6864>
     3d8:	490b3b0b 	stmdbmi	fp, {r0, r1, r3, r8, r9, fp, ip, sp}
     3dc:	00170213 	andseq	r0, r7, r3, lsl r2
     3e0:	00342000 	eorseq	r2, r4, r0
     3e4:	0b3a0e03 	bleq	e83bf8 <__bss_end__+0xe79480>
     3e8:	13490b3b 	movtne	r0, #39739	; 0x9b3b
     3ec:	00001802 	andeq	r1, r0, r2, lsl #16
     3f0:	31003421 	tstcc	r0, r1, lsr #8
     3f4:	22000013 	andcs	r0, r0, #19
     3f8:	1331011d 	teqne	r1, #1073741831	; 0x40000007
     3fc:	06120111 			; <UNDEFINED> instruction: 0x06120111
     400:	0b590b58 	bleq	1643168 <__bss_end__+0x16389f0>
     404:	34230000 	strtcc	r0, [r3], #-0
     408:	02133100 	andseq	r3, r3, #0, 2
     40c:	24000018 	strcs	r0, [r0], #-24
     410:	01018289 	smlabbeq	r1, r9, r2, r8
     414:	00000111 	andeq	r0, r0, r1, lsl r1
     418:	03003425 	movweq	r3, #1061	; 0x425
     41c:	3b0b3a08 	blcc	2cec44 <__bss_end__+0x2c44cc>
     420:	1c13490b 	ldcne	9, cr4, [r3], {11}
     424:	26000005 	strcs	r0, [r0], -r5
     428:	0e030005 	cdpeq	0, 0, cr0, cr3, cr5, {0}
     42c:	0b3b0b3a 	bleq	ec311c <__bss_end__+0xeb89a4>
     430:	18021349 	stmdane	r2, {r0, r3, r6, r8, r9, ip}
     434:	05270000 	streq	r0, [r7, #-0]!
     438:	02133100 	andseq	r3, r3, #0, 2
     43c:	28000018 	stmdacs	r0, {r3, r4}
     440:	08030005 	stmdaeq	r3, {r0, r2}
     444:	0b3b0b3a 	bleq	ec3134 <__bss_end__+0xeb89bc>
     448:	18021349 	stmdane	r2, {r0, r3, r6, r8, r9, ip}
     44c:	05290000 	streq	r0, [r9, #-0]!
     450:	1c133100 	ldfnes	f3, [r3], {-0}
     454:	2a000006 	bcs	474 <__code_start__-0x7b8c>
     458:	0e030034 	mcreq	0, 0, r0, cr3, cr4, {1}
     45c:	0b3b0b3a 	bleq	ec314c <__bss_end__+0xeb89d4>
     460:	061c1349 	ldreq	r1, [ip], -r9, asr #6
     464:	1d2b0000 	stcne	0, cr0, [fp, #-0]
     468:	11133101 	tstne	r3, r1, lsl #2
     46c:	58061201 	stmdapl	r6, {r0, r9, ip}
     470:	0005590b 	andeq	r5, r5, fp, lsl #18
     474:	012e2c00 	teqeq	lr, r0, lsl #24
     478:	0e03193f 	mcreq	9, 0, r1, cr3, cr15, {1}
     47c:	053b0b3a 	ldreq	r0, [fp, #-2874]!	; 0xb3a
     480:	13491927 	movtne	r1, #39207	; 0x9927
     484:	06120111 			; <UNDEFINED> instruction: 0x06120111
     488:	42971840 	addsmi	r1, r7, #64, 16	; 0x400000
     48c:	00130119 	andseq	r0, r3, r9, lsl r1
     490:	00052d00 	andeq	r2, r5, r0, lsl #26
     494:	0b3a0803 	bleq	e824a8 <__bss_end__+0xe77d30>
     498:	1349053b 	movtne	r0, #38203	; 0x953b
     49c:	00001702 	andeq	r1, r0, r2, lsl #14
     4a0:	0300342e 	movweq	r3, #1070	; 0x42e
     4a4:	3b0b3a0e 	blcc	2cece4 <__bss_end__+0x2c456c>
     4a8:	02134905 	andseq	r4, r3, #81920	; 0x14000
     4ac:	2f000017 	svccs	0x00000017
     4b0:	01018289 	smlabbeq	r1, r9, r2, r8
     4b4:	13310111 	teqne	r1, #1073741828	; 0x40000004
     4b8:	34300000 	ldrtcc	r0, [r0], #-0
     4bc:	3a0e0300 	bcc	3810c4 <__bss_end__+0x37694c>
     4c0:	490b3b0b 	stmdbmi	fp, {r0, r1, r3, r8, r9, fp, ip, sp}
     4c4:	02193f13 	andseq	r3, r9, #19, 30	; 0x4c
     4c8:	31000018 	tstcc	r0, r8, lsl r0
     4cc:	193f002e 	ldmdbne	pc!, {r1, r2, r3, r5}	; <UNPREDICTABLE>
     4d0:	0b3a0e03 	bleq	e83ce4 <__bss_end__+0xe7956c>
     4d4:	19270b3b 	stmdbne	r7!, {r0, r1, r3, r4, r5, r8, r9, fp}
     4d8:	0000193c 	andeq	r1, r0, ip, lsr r9
     4dc:	3f012e32 	svccc	0x00012e32
     4e0:	3a0e0319 	bcc	38114c <__bss_end__+0x3769d4>
     4e4:	270b3b0b 	strcs	r3, [fp, -fp, lsl #22]
     4e8:	3c134919 	ldccc	9, cr4, [r3], {25}
     4ec:	00130119 	andseq	r0, r3, r9, lsl r1
     4f0:	00183300 	andseq	r3, r8, r0, lsl #6
     4f4:	01000000 	mrseq	r0, (UNDEF: 0)
     4f8:	0e250111 	mcreq	1, 1, r0, cr5, cr1, {0}
     4fc:	0e030b13 	vmoveq.32	d3[0], r0
     500:	01110e1b 	tsteq	r1, fp, lsl lr
     504:	17100612 			; <UNDEFINED> instruction: 0x17100612
     508:	24020000 	strcs	r0, [r2], #-0
     50c:	3e0b0b00 	vmlacc.f64	d0, d11, d0
     510:	0008030b 	andeq	r0, r8, fp, lsl #6
     514:	00240300 	eoreq	r0, r4, r0, lsl #6
     518:	0b3e0b0b 	bleq	f8314c <__bss_end__+0xf789d4>
     51c:	00000e03 	andeq	r0, r0, r3, lsl #28
     520:	03001604 	movweq	r1, #1540	; 0x604
     524:	3b0b3a0e 	blcc	2ced64 <__bss_end__+0x2c45ec>
     528:	0013490b 	andseq	r4, r3, fp, lsl #18
     52c:	000f0500 	andeq	r0, pc, r0, lsl #10
     530:	00000b0b 	andeq	r0, r0, fp, lsl #22
     534:	0b000f06 	bleq	4154 <__code_start__-0x3eac>
     538:	0013490b 	andseq	r4, r3, fp, lsl #18
     53c:	00260700 	eoreq	r0, r6, r0, lsl #14
     540:	00001349 	andeq	r1, r0, r9, asr #6
     544:	27011508 	strcs	r1, [r1, -r8, lsl #10]
     548:	00130119 	andseq	r0, r3, r9, lsl r1
     54c:	00050900 	andeq	r0, r5, r0, lsl #18
     550:	00001349 	andeq	r1, r0, r9, asr #6
     554:	0301130a 	movweq	r1, #4874	; 0x130a
     558:	3a0b0b0e 	bcc	2c3198 <__bss_end__+0x2b8a20>
     55c:	010b3b0b 	tsteq	fp, fp, lsl #22
     560:	0b000013 	bleq	5b4 <__code_start__-0x7a4c>
     564:	0e03000d 	cdpeq	0, 0, cr0, cr3, cr13, {0}
     568:	0b3b0b3a 	bleq	ec3258 <__bss_end__+0xeb8ae0>
     56c:	0b381349 	bleq	e05298 <__bss_end__+0xdfab20>
     570:	0d0c0000 	stceq	0, cr0, [ip, #-0]
     574:	3a080300 	bcc	20117c <__bss_end__+0x1f6a04>
     578:	490b3b0b 	stmdbmi	fp, {r0, r1, r3, r8, r9, fp, ip, sp}
     57c:	000b3813 	andeq	r3, fp, r3, lsl r8
     580:	00350d00 	eorseq	r0, r5, r0, lsl #26
     584:	150e0000 	strne	r0, [lr, #-0]
     588:	49192701 	ldmdbmi	r9, {r0, r8, r9, sl, sp}
     58c:	00130113 	andseq	r0, r3, r3, lsl r1
     590:	00350f00 	eorseq	r0, r5, r0, lsl #30
     594:	00001349 	andeq	r1, r0, r9, asr #6
     598:	03012e10 	movweq	r2, #7696	; 0x1e10
     59c:	3b0b3a0e 	blcc	2ceddc <__bss_end__+0x2c4664>
     5a0:	4919270b 	ldmdbmi	r9, {r0, r1, r3, r8, r9, sl, sp}
     5a4:	010b2013 	tsteq	fp, r3, lsl r0
     5a8:	11000013 	tstne	r0, r3, lsl r0
     5ac:	08030034 	stmdaeq	r3, {r2, r4, r5}
     5b0:	0b3b0b3a 	bleq	ec32a0 <__bss_end__+0xeb8b28>
     5b4:	00001349 	andeq	r1, r0, r9, asr #6
     5b8:	03000512 	movweq	r0, #1298	; 0x512
     5bc:	3b0b3a0e 	blcc	2cedfc <__bss_end__+0x2c4684>
     5c0:	0013490b 	andseq	r4, r3, fp, lsl #18
     5c4:	00341300 	eorseq	r1, r4, r0, lsl #6
     5c8:	0b3a0e03 	bleq	e83ddc <__bss_end__+0xe79664>
     5cc:	13490b3b 	movtne	r0, #39739	; 0x9b3b
     5d0:	2e140000 	cdpcs	0, 1, cr0, cr4, cr0, {0}
     5d4:	3a0e0301 	bcc	3811e0 <__bss_end__+0x376a68>
     5d8:	270b3b0b 	strcs	r3, [fp, -fp, lsl #22]
     5dc:	12011119 	andne	r1, r1, #1073741830	; 0x40000006
     5e0:	97184006 	ldrls	r4, [r8, -r6]
     5e4:	13011942 	movwne	r1, #6466	; 0x1942
     5e8:	05150000 	ldreq	r0, [r5, #-0]
     5ec:	3a0e0300 	bcc	3811f4 <__bss_end__+0x376a7c>
     5f0:	490b3b0b 	stmdbmi	fp, {r0, r1, r3, r8, r9, fp, ip, sp}
     5f4:	00170213 	andseq	r0, r7, r3, lsl r2
     5f8:	00051600 	andeq	r1, r5, r0, lsl #12
     5fc:	0b3a0803 	bleq	e82610 <__bss_end__+0xe77e98>
     600:	13490b3b 	movtne	r0, #39739	; 0x9b3b
     604:	00001702 	andeq	r1, r0, r2, lsl #14
     608:	03003417 	movweq	r3, #1047	; 0x417
     60c:	3413490e 	ldrcc	r4, [r3], #-2318	; 0x90e
     610:	00180219 	andseq	r0, r8, r9, lsl r2
     614:	00341800 	eorseq	r1, r4, r0, lsl #16
     618:	0b3a0803 	bleq	e8262c <__bss_end__+0xe77eb4>
     61c:	13490b3b 	movtne	r0, #39739	; 0x9b3b
     620:	00001702 	andeq	r1, r0, r2, lsl #14
     624:	31011d19 	tstcc	r1, r9, lsl sp
     628:	12011113 	andne	r1, r1, #-1073741820	; 0xc0000004
     62c:	590b5806 	stmdbpl	fp, {r1, r2, fp, ip, lr}
     630:	0013010b 	andseq	r0, r3, fp, lsl #2
     634:	010b1a00 	tsteq	fp, r0, lsl #20
     638:	06120111 			; <UNDEFINED> instruction: 0x06120111
     63c:	341b0000 	ldrcc	r0, [fp], #-0
     640:	00133100 	andseq	r3, r3, r0, lsl #2
     644:	011d1c00 	tsteq	sp, r0, lsl #24
     648:	01111331 	tsteq	r1, r1, lsr r3
     64c:	0b580612 	bleq	1601e9c <__bss_end__+0x15f7724>
     650:	00000b59 	andeq	r0, r0, r9, asr fp
     654:	3100341d 	tstcc	r0, sp, lsl r4
     658:	00170213 	andseq	r0, r7, r3, lsl r2
     65c:	82891e00 	addhi	r1, r9, #0, 28
     660:	01110101 	tsteq	r1, r1, lsl #2
     664:	13011331 	movwne	r1, #4913	; 0x1331
     668:	8a1f0000 	bhi	7c0670 <__bss_end__+0x7b5ef8>
     66c:	02000182 	andeq	r0, r0, #-2147483616	; 0x80000020
     670:	18429118 	stmdane	r2, {r3, r4, r8, ip, pc}^
     674:	89200000 	stmdbhi	r0!, {}	; <UNPREDICTABLE>
     678:	11000182 	smlabbne	r0, r2, r1, r0
     67c:	00133101 	andseq	r3, r3, r1, lsl #2
     680:	82892100 	addhi	r2, r9, #0, 2
     684:	01110101 	tsteq	r1, r1, lsl #2
     688:	00001301 	andeq	r1, r0, r1, lsl #6
     68c:	01828922 	orreq	r8, r2, r2, lsr #18
     690:	31011101 	tstcc	r1, r1, lsl #2
     694:	23000013 	movwcs	r0, #19
     698:	13490101 	movtne	r0, #37121	; 0x9101
     69c:	00001301 	andeq	r1, r0, r1, lsl #6
     6a0:	49002124 	stmdbmi	r0, {r2, r5, r8, sp}
     6a4:	000b2f13 	andeq	r2, fp, r3, lsl pc
     6a8:	00342500 	eorseq	r2, r4, r0, lsl #10
     6ac:	13490e03 	movtne	r0, #40451	; 0x9e03
     6b0:	0e1c1934 	mrceq	9, 0, r1, cr12, cr4, {1}
     6b4:	05260000 	streq	r0, [r6, #-0]!
     6b8:	3a080300 	bcc	2012c0 <__bss_end__+0x1f6b48>
     6bc:	490b3b0b 	stmdbmi	fp, {r0, r1, r3, r8, r9, fp, ip, sp}
     6c0:	27000013 	smladcs	r0, r3, r0, r0
     6c4:	0e03012e 	adfeqsp	f0, f3, #0.5
     6c8:	0b3b0b3a 	bleq	ec33b8 <__bss_end__+0xeb8c40>
     6cc:	13491927 	movtne	r1, #39207	; 0x9927
     6d0:	06120111 			; <UNDEFINED> instruction: 0x06120111
     6d4:	42971840 	addsmi	r1, r7, #64, 16	; 0x400000
     6d8:	00130119 	andseq	r0, r3, r9, lsl r1
     6dc:	00342800 	eorseq	r2, r4, r0, lsl #16
     6e0:	0b3a0e03 	bleq	e83ef4 <__bss_end__+0xe7977c>
     6e4:	13490b3b 	movtne	r0, #39739	; 0x9b3b
     6e8:	00001802 	andeq	r1, r0, r2, lsl #16
     6ec:	31000529 	tstcc	r0, r9, lsr #10
     6f0:	000b1c13 	andeq	r1, fp, r3, lsl ip
     6f4:	00052a00 	andeq	r2, r5, r0, lsl #20
     6f8:	17021331 	smladxne	r2, r1, r3, r1
     6fc:	342b0000 	strtcc	r0, [fp], #-0
     700:	02133100 	andseq	r3, r3, #0, 2
     704:	2c000018 	stccs	0, cr0, [r0], {24}
     708:	13310034 	teqne	r1, #52	; 0x34
     70c:	00000b1c 	andeq	r0, r0, ip, lsl fp
     710:	3100052d 	tstcc	r0, sp, lsr #10
     714:	2e000013 	mcrcs	0, 0, r0, cr0, cr3, {0}
     718:	08030005 	stmdaeq	r3, {r0, r2}
     71c:	0b3b0b3a 	bleq	ec340c <__bss_end__+0xeb8c94>
     720:	18021349 	stmdane	r2, {r0, r3, r6, r8, r9, ip}
     724:	2e2f0000 	cdpcs	0, 2, cr0, cr15, cr0, {0}
     728:	03193f01 	tsteq	r9, #1, 30
     72c:	3b0b3a0e 	blcc	2cef6c <__bss_end__+0x2c47f4>
     730:	4919270b 	ldmdbmi	r9, {r0, r1, r3, r8, r9, sl, sp}
     734:	12011113 	andne	r1, r1, #-1073741820	; 0xc0000004
     738:	97184006 	ldrls	r4, [r8, -r6]
     73c:	13011942 	movwne	r1, #6466	; 0x1942
     740:	34300000 	ldrtcc	r0, [r0], #-0
     744:	3a0e0300 	bcc	38134c <__bss_end__+0x376bd4>
     748:	490b3b0b 	stmdbmi	fp, {r0, r1, r3, r8, r9, fp, ip, sp}
     74c:	3c193f13 	ldccc	15, cr3, [r9], {19}
     750:	31000019 	tstcc	r0, r9, lsl r0
     754:	193f012e 	ldmdbne	pc!, {r1, r2, r3, r5, r8}	; <UNPREDICTABLE>
     758:	0b3a0e03 	bleq	e83f6c <__bss_end__+0xe797f4>
     75c:	19270b3b 	stmdbne	r7!, {r0, r1, r3, r4, r5, r8, r9, fp}
     760:	193c1349 	ldmdbne	ip!, {r0, r3, r6, r8, r9, ip}
     764:	00001301 	andeq	r1, r0, r1, lsl #6
     768:	00001832 	andeq	r1, r0, r2, lsr r8
     76c:	002e3300 	eoreq	r3, lr, r0, lsl #6
     770:	0e03193f 	mcreq	9, 0, r1, cr3, cr15, {1}
     774:	0b3b0b3a 	bleq	ec3464 <__bss_end__+0xeb8cec>
     778:	193c1927 	ldmdbne	ip!, {r0, r1, r2, r5, r8, fp, ip}
     77c:	2e340000 	cdpcs	0, 3, cr0, cr4, cr0, {0}
     780:	03193f01 	tsteq	r9, #1, 30
     784:	3b0b3a0e 	blcc	2cefc4 <__bss_end__+0x2c484c>
     788:	3c19270b 	ldccc	7, cr2, [r9], {11}
     78c:	00130119 	andseq	r0, r3, r9, lsl r1
     790:	11010000 	mrsne	r0, (UNDEF: 1)
     794:	130e2501 	movwne	r2, #58625	; 0xe501
     798:	1b0e030b 	blne	3813cc <__bss_end__+0x376c54>
     79c:	1201110e 	andne	r1, r1, #-2147483645	; 0x80000003
     7a0:	00171006 	andseq	r1, r7, r6
     7a4:	00160200 	andseq	r0, r6, r0, lsl #4
     7a8:	0b3a0e03 	bleq	e83fbc <__bss_end__+0xe79844>
     7ac:	13490b3b 	movtne	r0, #39739	; 0x9b3b
     7b0:	13030000 	movwne	r0, #12288	; 0x3000
     7b4:	0b0e0301 	bleq	3813c0 <__bss_end__+0x376c48>
     7b8:	3b0b3a0b 	blcc	2cefec <__bss_end__+0x2c4874>
     7bc:	0013010b 	andseq	r0, r3, fp, lsl #2
     7c0:	000d0400 	andeq	r0, sp, r0, lsl #8
     7c4:	13490e03 	movtne	r0, #40451	; 0x9e03
     7c8:	19340b38 	ldmdbne	r4!, {r3, r4, r5, r8, r9, fp}
     7cc:	0f050000 	svceq	0x00050000
     7d0:	000b0b00 	andeq	r0, fp, r0, lsl #22
     7d4:	00240600 	eoreq	r0, r4, r0, lsl #12
     7d8:	0b3e0b0b 	bleq	f8340c <__bss_end__+0xf78c94>
     7dc:	00000803 	andeq	r0, r0, r3, lsl #16
     7e0:	0b002407 	bleq	9804 <put32>
     7e4:	030b3e0b 	movweq	r3, #48651	; 0xbe0b
     7e8:	0800000e 	stmdaeq	r0, {r1, r2, r3}
     7ec:	0b0b000f 	bleq	2c0830 <__bss_end__+0x2b60b8>
     7f0:	00001349 	andeq	r1, r0, r9, asr #6
     7f4:	49002609 	stmdbmi	r0, {r0, r3, r9, sl, sp}
     7f8:	0a000013 	beq	84c <__code_start__-0x77b4>
     7fc:	193f012e 	ldmdbne	pc!, {r1, r2, r3, r5, r8}	; <UNPREDICTABLE>
     800:	0b3a0e03 	bleq	e84014 <__bss_end__+0xe7989c>
     804:	19270b3b 	stmdbne	r7!, {r0, r1, r3, r4, r5, r8, r9, fp}
     808:	01111349 	tsteq	r1, r9, asr #6
     80c:	18400612 	stmdane	r0, {r1, r4, r9, sl}^
     810:	01194297 			; <UNDEFINED> instruction: 0x01194297
     814:	0b000013 	bleq	868 <__code_start__-0x7798>
     818:	08030005 	stmdaeq	r3, {r0, r2}
     81c:	0b3b0b3a 	bleq	ec350c <__bss_end__+0xeb8d94>
     820:	18021349 	stmdane	r2, {r0, r3, r6, r8, r9, ip}
     824:	180c0000 	stmdane	ip, {}	; <UNPREDICTABLE>
     828:	0d000000 	stceq	0, cr0, [r0, #-0]
     82c:	08030034 	stmdaeq	r3, {r2, r4, r5}
     830:	0b3b0b3a 	bleq	ec3520 <__bss_end__+0xeb8da8>
     834:	18021349 	stmdane	r2, {r0, r3, r6, r8, r9, ip}
     838:	340e0000 	strcc	r0, [lr], #-0
     83c:	3a0e0300 	bcc	381444 <__bss_end__+0x376ccc>
     840:	490b3b0b 	stmdbmi	fp, {r0, r1, r3, r8, r9, fp, ip, sp}
     844:	00180213 	andseq	r0, r8, r3, lsl r2
     848:	00340f00 	eorseq	r0, r4, r0, lsl #30
     84c:	0b3a0803 	bleq	e82860 <__bss_end__+0xe780e8>
     850:	13490b3b 	movtne	r0, #39739	; 0x9b3b
     854:	00001702 	andeq	r1, r0, r2, lsl #14
     858:	01828910 	orreq	r8, r2, r0, lsl r9
     85c:	31011101 	tstcc	r1, r1, lsl #2
     860:	00130113 	andseq	r0, r3, r3, lsl r1
     864:	828a1100 	addhi	r1, sl, #0, 2
     868:	18020001 	stmdane	r2, {r0}
     86c:	00184291 	mulseq	r8, r1, r2
     870:	82891200 	addhi	r1, r9, #0, 4
     874:	01110101 	tsteq	r1, r1, lsl #2
     878:	01130000 	tsteq	r3, r0
     87c:	01134901 	tsteq	r3, r1, lsl #18
     880:	14000013 	strne	r0, [r0], #-19
     884:	13490021 	movtne	r0, #36897	; 0x9021
     888:	0000052f 	andeq	r0, r0, pc, lsr #10
     88c:	27011515 	smladcs	r1, r5, r5, r1
     890:	01134919 	tsteq	r3, r9, lsl r9
     894:	16000013 			; <UNDEFINED> instruction: 0x16000013
     898:	13490005 	movtne	r0, #36869	; 0x9005
     89c:	34170000 	ldrcc	r0, [r7], #-0
     8a0:	3a0e0300 	bcc	3814a8 <__bss_end__+0x376d30>
     8a4:	490b3b0b 	stmdbmi	fp, {r0, r1, r3, r8, r9, fp, ip, sp}
     8a8:	3c193f13 	ldccc	15, cr3, [r9], {19}
     8ac:	18000019 	stmdane	r0, {r0, r3, r4}
     8b0:	193f012e 	ldmdbne	pc!, {r1, r2, r3, r5, r8}	; <UNPREDICTABLE>
     8b4:	0b3a0e03 	bleq	e840c8 <__bss_end__+0xe79950>
     8b8:	19270b3b 	stmdbne	r7!, {r0, r1, r3, r4, r5, r8, r9, fp}
     8bc:	193c1349 	ldmdbne	ip!, {r0, r3, r6, r8, r9, ip}
     8c0:	01000000 	mrseq	r0, (UNDEF: 0)
     8c4:	0e250111 	mcreq	1, 1, r0, cr5, cr1, {0}
     8c8:	0e030b13 	vmoveq.32	d3[0], r0
     8cc:	01110e1b 	tsteq	r1, fp, lsl lr
     8d0:	17100612 			; <UNDEFINED> instruction: 0x17100612
     8d4:	24020000 	strcs	r0, [r2], #-0
     8d8:	3e0b0b00 	vmlacc.f64	d0, d11, d0
     8dc:	0008030b 	andeq	r0, r8, fp, lsl #6
     8e0:	00240300 	eoreq	r0, r4, r0, lsl #6
     8e4:	0b3e0b0b 	bleq	f83518 <__bss_end__+0xf78da0>
     8e8:	00000e03 	andeq	r0, r0, r3, lsl #28
     8ec:	03012e04 	movweq	r2, #7684	; 0x1e04
     8f0:	3b0b3a0e 	blcc	2cf130 <__bss_end__+0x2c49b8>
     8f4:	4919270b 	ldmdbmi	r9, {r0, r1, r3, r8, r9, sl, sp}
     8f8:	12011113 	andne	r1, r1, #-1073741820	; 0xc0000004
     8fc:	97184006 	ldrls	r4, [r8, -r6]
     900:	13011942 	movwne	r1, #6466	; 0x1942
     904:	05050000 	streq	r0, [r5, #-0]
     908:	3a080300 	bcc	201510 <__bss_end__+0x1f6d98>
     90c:	490b3b0b 	stmdbmi	fp, {r0, r1, r3, r8, r9, fp, ip, sp}
     910:	00170213 	andseq	r0, r7, r3, lsl r2
     914:	82890600 	addhi	r0, r9, #0, 12
     918:	01110101 	tsteq	r1, r1, lsl #2
     91c:	00001331 	andeq	r1, r0, r1, lsr r3
     920:	01828a07 	orreq	r8, r2, r7, lsl #20
     924:	91180200 	tstls	r8, r0, lsl #4
     928:	00001842 	andeq	r1, r0, r2, asr #16
     92c:	3f002e08 	svccc	0x00002e08
     930:	3a0e0319 	bcc	38159c <__bss_end__+0x376e24>
     934:	270b3b0b 	strcs	r3, [fp, -fp, lsl #22]
     938:	12011119 	andne	r1, r1, #1073741830	; 0x40000006
     93c:	97184006 	ldrls	r4, [r8, -r6]
     940:	00001942 	andeq	r1, r0, r2, asr #18
     944:	3f012e09 	svccc	0x00012e09
     948:	3a0e0319 	bcc	3815b4 <__bss_end__+0x376e3c>
     94c:	270b3b0b 	strcs	r3, [fp, -fp, lsl #22]
     950:	12011119 	andne	r1, r1, #1073741830	; 0x40000006
     954:	97184006 	ldrls	r4, [r8, -r6]
     958:	13011942 	movwne	r1, #6466	; 0x1942
     95c:	050a0000 	streq	r0, [sl, #-0]
     960:	3a080300 	bcc	201568 <__bss_end__+0x1f6df0>
     964:	490b3b0b 	stmdbmi	fp, {r0, r1, r3, r8, r9, fp, ip, sp}
     968:	00180213 	andseq	r0, r8, r3, lsl r2
     96c:	01150b00 	tsteq	r5, r0, lsl #22
     970:	13491927 	movtne	r1, #39207	; 0x9927
     974:	00001301 	andeq	r1, r0, r1, lsl #6
     978:	4900050c 	stmdbmi	r0, {r2, r3, r8, sl}
     97c:	0d000013 	stceq	0, cr0, [r0, #-76]	; 0xffffffb4
     980:	0b0b000f 	bleq	2c09c4 <__bss_end__+0x2b624c>
     984:	00001349 	andeq	r1, r0, r9, asr #6
     988:	0300340e 	movweq	r3, #1038	; 0x40e
     98c:	3b0b3a0e 	blcc	2cf1cc <__bss_end__+0x2c4a54>
     990:	3f13490b 	svccc	0x0013490b
     994:	00180219 	andseq	r0, r8, r9, lsl r2
     998:	012e0f00 	teqeq	lr, r0, lsl #30
     99c:	0e03193f 	mcreq	9, 0, r1, cr3, cr15, {1}
     9a0:	0b3b0b3a 	bleq	ec3690 <__bss_end__+0xeb8f18>
     9a4:	193c1927 	ldmdbne	ip!, {r0, r1, r2, r5, r8, fp, ip}
     9a8:	01000000 	mrseq	r0, (UNDEF: 0)
     9ac:	0e250111 	mcreq	1, 1, r0, cr5, cr1, {0}
     9b0:	0e030b13 	vmoveq.32	d3[0], r0
     9b4:	01110e1b 	tsteq	r1, fp, lsl lr
     9b8:	17100612 			; <UNDEFINED> instruction: 0x17100612
     9bc:	24020000 	strcs	r0, [r2], #-0
     9c0:	3e0b0b00 	vmlacc.f64	d0, d11, d0
     9c4:	0008030b 	andeq	r0, r8, fp, lsl #6
     9c8:	00240300 	eoreq	r0, r4, r0, lsl #6
     9cc:	0b3e0b0b 	bleq	f83600 <__bss_end__+0xf78e88>
     9d0:	00000e03 	andeq	r0, r0, r3, lsl #28
     9d4:	0b000f04 	bleq	45ec <__code_start__-0x3a14>
     9d8:	0013490b 	andseq	r4, r3, fp, lsl #18
     9dc:	00260500 	eoreq	r0, r6, r0, lsl #10
     9e0:	00001349 	andeq	r1, r0, r9, asr #6
     9e4:	3f012e06 	svccc	0x00012e06
     9e8:	3a0e0319 	bcc	381654 <__bss_end__+0x376edc>
     9ec:	270b3b0b 	strcs	r3, [fp, -fp, lsl #22]
     9f0:	11134919 	tstne	r3, r9, lsl r9
     9f4:	40061201 	andmi	r1, r6, r1, lsl #4
     9f8:	19429618 	stmdbne	r2, {r3, r4, r9, sl, ip, pc}^
     9fc:	00001301 	andeq	r1, r0, r1, lsl #6
     a00:	03000507 	movweq	r0, #1287	; 0x507
     a04:	3b0b3a08 	blcc	2cf22c <__bss_end__+0x2c4ab4>
     a08:	0213490b 	andseq	r4, r3, #180224	; 0x2c000
     a0c:	08000017 	stmdaeq	r0, {r0, r1, r2, r4}
     a10:	19270115 	stmdbne	r7!, {r0, r2, r4, r8}
     a14:	13011349 	movwne	r1, #4937	; 0x1349
     a18:	05090000 	streq	r0, [r9, #-0]
     a1c:	00134900 	andseq	r4, r3, r0, lsl #18
     a20:	00340a00 	eorseq	r0, r4, r0, lsl #20
     a24:	0b3a0e03 	bleq	e84238 <__bss_end__+0xe79ac0>
     a28:	13490b3b 	movtne	r0, #39739	; 0x9b3b
     a2c:	193c193f 	ldmdbne	ip!, {r0, r1, r2, r3, r4, r5, r8, fp, ip}
     a30:	340b0000 	strcc	r0, [fp], #-0
     a34:	3a0e0300 	bcc	38163c <__bss_end__+0x376ec4>
     a38:	490b3b0b 	stmdbmi	fp, {r0, r1, r3, r8, r9, fp, ip, sp}
     a3c:	02193f13 	andseq	r3, r9, #19, 30	; 0x4c
     a40:	00000018 	andeq	r0, r0, r8, lsl r0
     a44:	25011101 	strcs	r1, [r1, #-257]	; 0x101
     a48:	030b130e 	movweq	r1, #45838	; 0xb30e
     a4c:	110e1b0e 	tstne	lr, lr, lsl #22
     a50:	10061201 	andne	r1, r6, r1, lsl #4
     a54:	02000017 	andeq	r0, r0, #23
     a58:	0b0b0024 	bleq	2c0af0 <__bss_end__+0x2b6378>
     a5c:	08030b3e 	stmdaeq	r3, {r1, r2, r3, r4, r5, r8, r9, fp}
     a60:	24030000 	strcs	r0, [r3], #-0
     a64:	3e0b0b00 	vmlacc.f64	d0, d11, d0
     a68:	000e030b 	andeq	r0, lr, fp, lsl #6
     a6c:	000f0400 	andeq	r0, pc, r0, lsl #8
     a70:	00000b0b 	andeq	r0, r0, fp, lsl #22
     a74:	0b000f05 	bleq	4690 <__code_start__-0x3970>
     a78:	0013490b 	andseq	r4, r3, fp, lsl #18
     a7c:	00260600 	eoreq	r0, r6, r0, lsl #12
     a80:	00001349 	andeq	r1, r0, r9, asr #6
     a84:	03001607 	movweq	r1, #1543	; 0x607
     a88:	3b0b3a0e 	blcc	2cf2c8 <__bss_end__+0x2c4b50>
     a8c:	0013490b 	andseq	r4, r3, fp, lsl #18
     a90:	01130800 	tsteq	r3, r0, lsl #16
     a94:	0b0b0e03 	bleq	2c42a8 <__bss_end__+0x2b9b30>
     a98:	0b3b0b3a 	bleq	ec3788 <__bss_end__+0xeb9010>
     a9c:	00001301 	andeq	r1, r0, r1, lsl #6
     aa0:	03000d09 	movweq	r0, #3337	; 0xd09
     aa4:	3813490e 	ldmdacc	r3, {r1, r2, r3, r8, fp, lr}
     aa8:	0019340b 	andseq	r3, r9, fp, lsl #8
     aac:	012e0a00 	teqeq	lr, r0, lsl #20
     ab0:	0b3a0e03 	bleq	e842c4 <__bss_end__+0xe79b4c>
     ab4:	19270b3b 	stmdbne	r7!, {r0, r1, r3, r4, r5, r8, r9, fp}
     ab8:	01111349 	tsteq	r1, r9, asr #6
     abc:	18400612 	stmdane	r0, {r1, r4, r9, sl}^
     ac0:	01194297 			; <UNDEFINED> instruction: 0x01194297
     ac4:	0b000013 	bleq	b18 <__code_start__-0x74e8>
     ac8:	08030005 	stmdaeq	r3, {r0, r2}
     acc:	0b3b0b3a 	bleq	ec37bc <__bss_end__+0xeb9044>
     ad0:	17021349 	strne	r1, [r2, -r9, asr #6]
     ad4:	2e0c0000 	cdpcs	0, 0, cr0, cr12, cr0, {0}
     ad8:	3a080301 	bcc	2016e4 <__bss_end__+0x1f6f6c>
     adc:	270b3b0b 	strcs	r3, [fp, -fp, lsl #22]
     ae0:	11134919 	tstne	r3, r9, lsl r9
     ae4:	40061201 	andmi	r1, r6, r1, lsl #4
     ae8:	19429718 	stmdbne	r2, {r3, r4, r8, r9, sl, ip, pc}^
     aec:	00001301 	andeq	r1, r0, r1, lsl #6
     af0:	0300050d 	movweq	r0, #1293	; 0x50d
     af4:	3b0b3a0e 	blcc	2cf334 <__bss_end__+0x2c4bbc>
     af8:	0213490b 	andseq	r4, r3, #180224	; 0x2c000
     afc:	0e000017 	mcreq	0, 0, r0, cr0, cr7, {0}
     b00:	0e030005 	cdpeq	0, 0, cr0, cr3, cr5, {0}
     b04:	0b3b0b3a 	bleq	ec37f4 <__bss_end__+0xeb907c>
     b08:	18021349 	stmdane	r2, {r0, r3, r6, r8, r9, ip}
     b0c:	340f0000 	strcc	r0, [pc], #-0	; b14 <__code_start__-0x74ec>
     b10:	3a080300 	bcc	201718 <__bss_end__+0x1f6fa0>
     b14:	490b3b0b 	stmdbmi	fp, {r0, r1, r3, r8, r9, fp, ip, sp}
     b18:	00180213 	andseq	r0, r8, r3, lsl r2
     b1c:	00341000 	eorseq	r1, r4, r0
     b20:	0b3a0803 	bleq	e82b34 <__bss_end__+0xe783bc>
     b24:	13490b3b 	movtne	r0, #39739	; 0x9b3b
     b28:	00001702 	andeq	r1, r0, r2, lsl #14
     b2c:	03003411 	movweq	r3, #1041	; 0x411
     b30:	3413490e 	ldrcc	r4, [r3], #-2318	; 0x90e
     b34:	00180219 	andseq	r0, r8, r9, lsl r2
     b38:	010b1200 	mrseq	r1, R11_fiq
     b3c:	06120111 			; <UNDEFINED> instruction: 0x06120111
     b40:	00001301 	andeq	r1, r0, r1, lsl #6
     b44:	03003413 	movweq	r3, #1043	; 0x413
     b48:	3b0b3a0e 	blcc	2cf388 <__bss_end__+0x2c4c10>
     b4c:	0213490b 	andseq	r4, r3, #180224	; 0x2c000
     b50:	14000017 	strne	r0, [r0], #-23
     b54:	00018289 	andeq	r8, r1, r9, lsl #5
     b58:	13310111 	teqne	r1, #1073741828	; 0x40000004
     b5c:	89150000 	ldmdbhi	r5, {}	; <UNPREDICTABLE>
     b60:	11010182 	smlabbne	r1, r2, r1, r0
     b64:	01133101 	tsteq	r3, r1, lsl #2
     b68:	16000013 			; <UNDEFINED> instruction: 0x16000013
     b6c:	0001828a 	andeq	r8, r1, sl, lsl #5
     b70:	42911802 	addsmi	r1, r1, #131072	; 0x20000
     b74:	17000018 	smladne	r0, r8, r0, r0
     b78:	01018289 	smlabbeq	r1, r9, r2, r8
     b7c:	13310111 	teqne	r1, #1073741828	; 0x40000004
     b80:	01180000 	tsteq	r8, r0
     b84:	01134901 	tsteq	r3, r1, lsl #18
     b88:	19000013 	stmdbne	r0, {r0, r1, r4}
     b8c:	13490021 	movtne	r0, #36897	; 0x9021
     b90:	00000b2f 	andeq	r0, r0, pc, lsr #22
     b94:	3f012e1a 	svccc	0x00012e1a
     b98:	3a0e0319 	bcc	381804 <__bss_end__+0x37708c>
     b9c:	270b3b0b 	strcs	r3, [fp, -fp, lsl #22]
     ba0:	12011119 	andne	r1, r1, #1073741830	; 0x40000006
     ba4:	97184006 	ldrls	r4, [r8, -r6]
     ba8:	13011942 	movwne	r1, #6466	; 0x1942
     bac:	151b0000 	ldrne	r0, [fp, #-0]
     bb0:	49192701 	ldmdbmi	r9, {r0, r8, r9, sl, sp}
     bb4:	00130113 	andseq	r0, r3, r3, lsl r1
     bb8:	00051c00 	andeq	r1, r5, r0, lsl #24
     bbc:	00001349 	andeq	r1, r0, r9, asr #6
     bc0:	3f012e1d 	svccc	0x00012e1d
     bc4:	3a0e0319 	bcc	381830 <__bss_end__+0x3770b8>
     bc8:	270b3b0b 	strcs	r3, [fp, -fp, lsl #22]
     bcc:	11134919 	tstne	r3, r9, lsl r9
     bd0:	40061201 	andmi	r1, r6, r1, lsl #4
     bd4:	19429718 	stmdbne	r2, {r3, r4, r8, r9, sl, ip, pc}^
     bd8:	00001301 	andeq	r1, r0, r1, lsl #6
     bdc:	11010b1e 	tstne	r1, lr, lsl fp
     be0:	00061201 	andeq	r1, r6, r1, lsl #4
     be4:	82891f00 	addhi	r1, r9, #0, 30
     be8:	01110101 	tsteq	r1, r1, lsl #2
     bec:	00001301 	andeq	r1, r0, r1, lsl #6
     bf0:	03003420 	movweq	r3, #1056	; 0x420
     bf4:	3b0b3a0e 	blcc	2cf434 <__bss_end__+0x2c4cbc>
     bf8:	3f13490b 	svccc	0x0013490b
     bfc:	00193c19 	andseq	r3, r9, r9, lsl ip
     c00:	002e2100 	eoreq	r2, lr, r0, lsl #2
     c04:	0e03193f 	mcreq	9, 0, r1, cr3, cr15, {1}
     c08:	0b3b0b3a 	bleq	ec38f8 <__bss_end__+0xeb9180>
     c0c:	193c1927 	ldmdbne	ip!, {r0, r1, r2, r5, r8, fp, ip}
     c10:	2e220000 	cdpcs	0, 2, cr0, cr2, cr0, {0}
     c14:	03193f01 	tsteq	r9, #1, 30
     c18:	3b0b3a0e 	blcc	2cf458 <__bss_end__+0x2c4ce0>
     c1c:	4919270b 	ldmdbmi	r9, {r0, r1, r3, r8, r9, sl, sp}
     c20:	01193c13 	tsteq	r9, r3, lsl ip
     c24:	23000013 	movwcs	r0, #19
     c28:	00000018 	andeq	r0, r0, r8, lsl r0
     c2c:	01110100 	tsteq	r1, r0, lsl #2
     c30:	0b130e25 	bleq	4c44cc <__bss_end__+0x4b9d54>
     c34:	0e1b0e03 	cdpeq	14, 1, cr0, cr11, cr3, {0}
     c38:	06120111 			; <UNDEFINED> instruction: 0x06120111
     c3c:	00001710 	andeq	r1, r0, r0, lsl r7
     c40:	0b002402 	bleq	9c50 <__FUNCTION__.4398+0x4>
     c44:	030b3e0b 	movweq	r3, #48651	; 0xbe0b
     c48:	03000008 	movweq	r0, #8
     c4c:	0b0b0024 	bleq	2c0ce4 <__bss_end__+0x2b656c>
     c50:	0e030b3e 	vmoveq.16	d3[0], r0
     c54:	2e040000 	cdpcs	0, 0, cr0, cr4, cr0, {0}
     c58:	03193f01 	tsteq	r9, #1, 30
     c5c:	3b0b3a0e 	blcc	2cf49c <__bss_end__+0x2c4d24>
     c60:	1119270b 	tstne	r9, fp, lsl #14
     c64:	40061201 	andmi	r1, r6, r1, lsl #4
     c68:	19429718 	stmdbne	r2, {r3, r4, r8, r9, sl, ip, pc}^
     c6c:	00001301 	andeq	r1, r0, r1, lsl #6
     c70:	03003405 	movweq	r3, #1029	; 0x405
     c74:	3b0b3a08 	blcc	2cf49c <__bss_end__+0x2c4d24>
     c78:	0213490b 	andseq	r4, r3, #180224	; 0x2c000
     c7c:	06000017 			; <UNDEFINED> instruction: 0x06000017
     c80:	193f012e 	ldmdbne	pc!, {r1, r2, r3, r5, r8}	; <UNPREDICTABLE>
     c84:	0b3a0e03 	bleq	e84498 <__bss_end__+0xe79d20>
     c88:	19270b3b 	stmdbne	r7!, {r0, r1, r3, r4, r5, r8, r9, fp}
     c8c:	06120111 			; <UNDEFINED> instruction: 0x06120111
     c90:	42971840 	addsmi	r1, r7, #64, 16	; 0x400000
     c94:	00000019 	andeq	r0, r0, r9, lsl r0
     c98:	25011101 	strcs	r1, [r1, #-257]	; 0x101
     c9c:	030b130e 	movweq	r1, #45838	; 0xb30e
     ca0:	110e1b0e 	tstne	lr, lr, lsl #22
     ca4:	10061201 	andne	r1, r6, r1, lsl #4
     ca8:	02000017 	andeq	r0, r0, #23
     cac:	0b0b0024 	bleq	2c0d44 <__bss_end__+0x2b65cc>
     cb0:	08030b3e 	stmdaeq	r3, {r1, r2, r3, r4, r5, r8, r9, fp}
     cb4:	24030000 	strcs	r0, [r3], #-0
     cb8:	3e0b0b00 	vmlacc.f64	d0, d11, d0
     cbc:	000e030b 	andeq	r0, lr, fp, lsl #6
     cc0:	000f0400 	andeq	r0, pc, r0, lsl #8
     cc4:	13490b0b 	movtne	r0, #39691	; 0x9b0b
     cc8:	26050000 	strcs	r0, [r5], -r0
     ccc:	00134900 	andseq	r4, r3, r0, lsl #18
     cd0:	012e0600 	teqeq	lr, r0, lsl #12
     cd4:	0e03193f 	mcreq	9, 0, r1, cr3, cr15, {1}
     cd8:	0b3b0b3a 	bleq	ec39c8 <__bss_end__+0xeb9250>
     cdc:	01111927 	tsteq	r1, r7, lsr #18
     ce0:	18400612 	stmdane	r0, {r1, r4, r9, sl}^
     ce4:	01194297 			; <UNDEFINED> instruction: 0x01194297
     ce8:	07000013 	smladeq	r0, r3, r0, r0
     cec:	00018289 	andeq	r8, r1, r9, lsl #5
     cf0:	13310111 	teqne	r1, #1073741828	; 0x40000004
     cf4:	89080000 	stmdbhi	r8, {}	; <UNPREDICTABLE>
     cf8:	11010182 	smlabbne	r1, r2, r1, r0
     cfc:	00130101 	andseq	r0, r3, r1, lsl #2
     d00:	828a0900 	addhi	r0, sl, #0, 18
     d04:	18020001 	stmdane	r2, {r0}
     d08:	00184291 	mulseq	r8, r1, r2
     d0c:	82890a00 	addhi	r0, r9, #0, 20
     d10:	01110101 	tsteq	r1, r1, lsl #2
     d14:	13011331 	movwne	r1, #4913	; 0x1331
     d18:	150b0000 	strne	r0, [fp, #-0]
     d1c:	49192701 	ldmdbmi	r9, {r0, r8, r9, sl, sp}
     d20:	00130113 	andseq	r0, r3, r3, lsl r1
     d24:	00050c00 	andeq	r0, r5, r0, lsl #24
     d28:	00001349 	andeq	r1, r0, r9, asr #6
     d2c:	0300340d 	movweq	r3, #1037	; 0x40d
     d30:	3b0b3a0e 	blcc	2cf570 <__bss_end__+0x2c4df8>
     d34:	3f13490b 	svccc	0x0013490b
     d38:	00193c19 	andseq	r3, r9, r9, lsl ip
     d3c:	002e0e00 	eoreq	r0, lr, r0, lsl #28
     d40:	0e03193f 	mcreq	9, 0, r1, cr3, cr15, {1}
     d44:	0b3b0b3a 	bleq	ec3a34 <__bss_end__+0xeb92bc>
     d48:	193c1927 	ldmdbne	ip!, {r0, r1, r2, r5, r8, fp, ip}
     d4c:	2e0f0000 	cdpcs	0, 0, cr0, cr15, cr0, {0}
     d50:	03193f01 	tsteq	r9, #1, 30
     d54:	3b0b3a0e 	blcc	2cf594 <__bss_end__+0x2c4e1c>
     d58:	3c19270b 	ldccc	7, cr2, [r9], {11}
     d5c:	00130119 	andseq	r0, r3, r9, lsl r1
     d60:	11010000 	mrsne	r0, (UNDEF: 1)
     d64:	130e2501 	movwne	r2, #58625	; 0xe501
     d68:	1b0e030b 	blne	38199c <__bss_end__+0x377224>
     d6c:	1201110e 	andne	r1, r1, #-2147483645	; 0x80000003
     d70:	00171006 	andseq	r1, r7, r6
     d74:	00240200 	eoreq	r0, r4, r0, lsl #4
     d78:	0b3e0b0b 	bleq	f839ac <__bss_end__+0xf79234>
     d7c:	00000803 	andeq	r0, r0, r3, lsl #16
     d80:	0b002403 	bleq	9d94 <__FUNCTION__.4393+0xc>
     d84:	030b3e0b 	movweq	r3, #48651	; 0xbe0b
     d88:	0400000e 	streq	r0, [r0], #-14
     d8c:	193f012e 	ldmdbne	pc!, {r1, r2, r3, r5, r8}	; <UNPREDICTABLE>
     d90:	0b3a0e03 	bleq	e845a4 <__bss_end__+0xe79e2c>
     d94:	01110b3b 	tsteq	r1, fp, lsr fp
     d98:	18400612 	stmdane	r0, {r1, r4, r9, sl}^
     d9c:	01194297 			; <UNDEFINED> instruction: 0x01194297
     da0:	05000013 	streq	r0, [r0, #-19]
     da4:	0e030034 	mcreq	0, 0, r0, cr3, cr4, {1}
     da8:	0b3b0b3a 	bleq	ec3a98 <__bss_end__+0xeb9320>
     dac:	193f1349 	ldmdbne	pc!, {r0, r3, r6, r8, r9, ip}	; <UNPREDICTABLE>
     db0:	0000193c 	andeq	r1, r0, ip, lsr r9
     db4:	3f002e06 	svccc	0x00002e06
     db8:	3a0e0319 	bcc	381a24 <__bss_end__+0x3772ac>
     dbc:	270b3b0b 	strcs	r3, [fp, -fp, lsl #22]
     dc0:	00193c19 	andseq	r3, r9, r9, lsl ip
     dc4:	00340700 	eorseq	r0, r4, r0, lsl #14
     dc8:	0b3a0803 	bleq	e82ddc <__bss_end__+0xe78664>
     dcc:	13490b3b 	movtne	r0, #39739	; 0x9b3b
     dd0:	00001702 	andeq	r1, r0, r2, lsl #14
     dd4:	03003408 	movweq	r3, #1032	; 0x408
     dd8:	3b0b3a0e 	blcc	2cf618 <__bss_end__+0x2c4ea0>
     ddc:	0013490b 	andseq	r4, r3, fp, lsl #18
     de0:	82890900 	addhi	r0, r9, #0, 18
     de4:	01110001 	tsteq	r1, r1
     de8:	00001331 	andeq	r1, r0, r1, lsr r3
     dec:	0b000f0a 	bleq	4a1c <__code_start__-0x35e4>
     df0:	0013490b 	andseq	r4, r3, fp, lsl #18
     df4:	11010000 	mrsne	r0, (UNDEF: 1)
     df8:	130e2501 	movwne	r2, #58625	; 0xe501
     dfc:	1b0e030b 	blne	381a30 <__bss_end__+0x3772b8>
     e00:	1201110e 	andne	r1, r1, #-2147483645	; 0x80000003
     e04:	00171006 	andseq	r1, r7, r6
     e08:	00240200 	eoreq	r0, r4, r0, lsl #4
     e0c:	0b3e0b0b 	bleq	f83a40 <__bss_end__+0xf792c8>
     e10:	00000803 	andeq	r0, r0, r3, lsl #16
     e14:	0b002403 	bleq	9e28 <__FUNCTION__.4451+0x50>
     e18:	030b3e0b 	movweq	r3, #48651	; 0xbe0b
     e1c:	0400000e 	streq	r0, [r0], #-14
     e20:	0b0b000f 	bleq	2c0e64 <__bss_end__+0x2b66ec>
     e24:	00001349 	andeq	r1, r0, r9, asr #6
     e28:	49002605 	stmdbmi	r0, {r0, r2, r9, sl, sp}
     e2c:	06000013 			; <UNDEFINED> instruction: 0x06000013
     e30:	193f012e 	ldmdbne	pc!, {r1, r2, r3, r5, r8}	; <UNPREDICTABLE>
     e34:	0b3a0e03 	bleq	e84648 <__bss_end__+0xe79ed0>
     e38:	19270b3b 	stmdbne	r7!, {r0, r1, r3, r4, r5, r8, r9, fp}
     e3c:	06120111 			; <UNDEFINED> instruction: 0x06120111
     e40:	42971840 	addsmi	r1, r7, #64, 16	; 0x400000
     e44:	00130119 	andseq	r0, r3, r9, lsl r1
     e48:	00050700 	andeq	r0, r5, r0, lsl #14
     e4c:	0b3a0803 	bleq	e82e60 <__bss_end__+0xe786e8>
     e50:	13490b3b 	movtne	r0, #39739	; 0x9b3b
     e54:	00001702 	andeq	r1, r0, r2, lsl #14
     e58:	03003408 	movweq	r3, #1032	; 0x408
     e5c:	3413490e 	ldrcc	r4, [r3], #-2318	; 0x90e
     e60:	00180219 	andseq	r0, r8, r9, lsl r2
     e64:	82890900 	addhi	r0, r9, #0, 18
     e68:	01110001 	tsteq	r1, r1
     e6c:	00001331 	andeq	r1, r0, r1, lsr r3
     e70:	0182890a 	orreq	r8, r2, sl, lsl #18
     e74:	31011101 	tstcc	r1, r1, lsl #2
     e78:	00130113 	andseq	r0, r3, r3, lsl r1
     e7c:	828a0b00 	addhi	r0, sl, #0, 22
     e80:	18020001 	stmdane	r2, {r0}
     e84:	00184291 	mulseq	r8, r1, r2
     e88:	01010c00 	tsteq	r1, r0, lsl #24
     e8c:	13011349 	movwne	r1, #4937	; 0x1349
     e90:	210d0000 	mrscs	r0, (UNDEF: 13)
     e94:	2f134900 	svccs	0x00134900
     e98:	0e00000b 	cdpeq	0, 0, cr0, cr0, cr11, {0}
     e9c:	193f002e 	ldmdbne	pc!, {r1, r2, r3, r5}	; <UNPREDICTABLE>
     ea0:	0b3a0e03 	bleq	e846b4 <__bss_end__+0xe79f3c>
     ea4:	19270b3b 	stmdbne	r7!, {r0, r1, r3, r4, r5, r8, r9, fp}
     ea8:	0000193c 	andeq	r1, r0, ip, lsr r9
     eac:	3f012e0f 	svccc	0x00012e0f
     eb0:	3a0e0319 	bcc	381b1c <__bss_end__+0x3773a4>
     eb4:	270b3b0b 	strcs	r3, [fp, -fp, lsl #22]
     eb8:	3c134919 	ldccc	9, cr4, [r3], {25}
     ebc:	00130119 	andseq	r0, r3, r9, lsl r1
     ec0:	00051000 	andeq	r1, r5, r0
     ec4:	00001349 	andeq	r1, r0, r9, asr #6
     ec8:	00001811 	andeq	r1, r0, r1, lsl r8
     ecc:	11010000 	mrsne	r0, (UNDEF: 1)
     ed0:	130e2501 	movwne	r2, #58625	; 0xe501
     ed4:	1b0e030b 	blne	381b08 <__bss_end__+0x377390>
     ed8:	1201110e 	andne	r1, r1, #-2147483645	; 0x80000003
     edc:	00171006 	andseq	r1, r7, r6
     ee0:	00240200 	eoreq	r0, r4, r0, lsl #4
     ee4:	0b3e0b0b 	bleq	f83b18 <__bss_end__+0xf793a0>
     ee8:	00000803 	andeq	r0, r0, r3, lsl #16
     eec:	0b002403 	bleq	9f00 <__FUNCTION__.4451+0x128>
     ef0:	030b3e0b 	movweq	r3, #48651	; 0xbe0b
     ef4:	0400000e 	streq	r0, [r0], #-14
     ef8:	0b0b000f 	bleq	2c0f3c <__bss_end__+0x2b67c4>
     efc:	00001349 	andeq	r1, r0, r9, asr #6
     f00:	49002605 	stmdbmi	r0, {r0, r2, r9, sl, sp}
     f04:	06000013 			; <UNDEFINED> instruction: 0x06000013
     f08:	193f012e 	ldmdbne	pc!, {r1, r2, r3, r5, r8}	; <UNPREDICTABLE>
     f0c:	0b3a0e03 	bleq	e84720 <__bss_end__+0xe79fa8>
     f10:	19270b3b 	stmdbne	r7!, {r0, r1, r3, r4, r5, r8, r9, fp}
     f14:	06120111 			; <UNDEFINED> instruction: 0x06120111
     f18:	42971840 	addsmi	r1, r7, #64, 16	; 0x400000
     f1c:	00130119 	andseq	r0, r3, r9, lsl r1
     f20:	00050700 	andeq	r0, r5, r0, lsl #14
     f24:	0b3a0803 	bleq	e82f38 <__bss_end__+0xe787c0>
     f28:	13490b3b 	movtne	r0, #39739	; 0x9b3b
     f2c:	00001702 	andeq	r1, r0, r2, lsl #14
     f30:	03003408 	movweq	r3, #1032	; 0x408
     f34:	3413490e 	ldrcc	r4, [r3], #-2318	; 0x90e
     f38:	00180219 	andseq	r0, r8, r9, lsl r2
     f3c:	82890900 	addhi	r0, r9, #0, 18
     f40:	01110001 	tsteq	r1, r1
     f44:	00001331 	andeq	r1, r0, r1, lsr r3
     f48:	0182890a 	orreq	r8, r2, sl, lsl #18
     f4c:	31011101 	tstcc	r1, r1, lsl #2
     f50:	00130113 	andseq	r0, r3, r3, lsl r1
     f54:	828a0b00 	addhi	r0, sl, #0, 22
     f58:	18020001 	stmdane	r2, {r0}
     f5c:	00184291 	mulseq	r8, r1, r2
     f60:	01010c00 	tsteq	r1, r0, lsl #24
     f64:	13011349 	movwne	r1, #4937	; 0x1349
     f68:	210d0000 	mrscs	r0, (UNDEF: 13)
     f6c:	2f134900 	svccs	0x00134900
     f70:	0e00000b 	cdpeq	0, 0, cr0, cr0, cr11, {0}
     f74:	193f002e 	ldmdbne	pc!, {r1, r2, r3, r5}	; <UNPREDICTABLE>
     f78:	0b3a0e03 	bleq	e8478c <__bss_end__+0xe7a014>
     f7c:	19270b3b 	stmdbne	r7!, {r0, r1, r3, r4, r5, r8, r9, fp}
     f80:	0000193c 	andeq	r1, r0, ip, lsr r9
     f84:	3f012e0f 	svccc	0x00012e0f
     f88:	3a0e0319 	bcc	381bf4 <__bss_end__+0x37747c>
     f8c:	270b3b0b 	strcs	r3, [fp, -fp, lsl #22]
     f90:	3c134919 	ldccc	9, cr4, [r3], {25}
     f94:	00130119 	andseq	r0, r3, r9, lsl r1
     f98:	00051000 	andeq	r1, r5, r0
     f9c:	00001349 	andeq	r1, r0, r9, asr #6
     fa0:	00001811 	andeq	r1, r0, r1, lsl r8
     fa4:	11010000 	mrsne	r0, (UNDEF: 1)
     fa8:	130e2501 	movwne	r2, #58625	; 0xe501
     fac:	1b0e030b 	blne	381be0 <__bss_end__+0x377468>
     fb0:	1201110e 	andne	r1, r1, #-2147483645	; 0x80000003
     fb4:	00171006 	andseq	r1, r7, r6
     fb8:	00240200 	eoreq	r0, r4, r0, lsl #4
     fbc:	0b3e0b0b 	bleq	f83bf0 <__bss_end__+0xf79478>
     fc0:	00000803 	andeq	r0, r0, r3, lsl #16
     fc4:	0b002403 	bleq	9fd8 <__FUNCTION__.4451+0x200>
     fc8:	030b3e0b 	movweq	r3, #48651	; 0xbe0b
     fcc:	0400000e 	streq	r0, [r0], #-14
     fd0:	0b0b000f 	bleq	2c1014 <__bss_end__+0x2b689c>
     fd4:	00001349 	andeq	r1, r0, r9, asr #6
     fd8:	49002605 	stmdbmi	r0, {r0, r2, r9, sl, sp}
     fdc:	06000013 			; <UNDEFINED> instruction: 0x06000013
     fe0:	193f012e 	ldmdbne	pc!, {r1, r2, r3, r5, r8}	; <UNPREDICTABLE>
     fe4:	0b3a0e03 	bleq	e847f8 <__bss_end__+0xe7a080>
     fe8:	19270b3b 	stmdbne	r7!, {r0, r1, r3, r4, r5, r8, r9, fp}
     fec:	06120111 			; <UNDEFINED> instruction: 0x06120111
     ff0:	42971840 	addsmi	r1, r7, #64, 16	; 0x400000
     ff4:	00130119 	andseq	r0, r3, r9, lsl r1
     ff8:	00050700 	andeq	r0, r5, r0, lsl #14
     ffc:	0b3a0803 	bleq	e83010 <__bss_end__+0xe78898>
    1000:	13490b3b 	movtne	r0, #39739	; 0x9b3b
    1004:	00001702 	andeq	r1, r0, r2, lsl #14
    1008:	03003408 	movweq	r3, #1032	; 0x408
    100c:	3413490e 	ldrcc	r4, [r3], #-2318	; 0x90e
    1010:	00180219 	andseq	r0, r8, r9, lsl r2
    1014:	82890900 	addhi	r0, r9, #0, 18
    1018:	01110001 	tsteq	r1, r1
    101c:	00001331 	andeq	r1, r0, r1, lsr r3
    1020:	0182890a 	orreq	r8, r2, sl, lsl #18
    1024:	31011101 	tstcc	r1, r1, lsl #2
    1028:	00130113 	andseq	r0, r3, r3, lsl r1
    102c:	828a0b00 	addhi	r0, sl, #0, 22
    1030:	18020001 	stmdane	r2, {r0}
    1034:	00184291 	mulseq	r8, r1, r2
    1038:	01010c00 	tsteq	r1, r0, lsl #24
    103c:	13011349 	movwne	r1, #4937	; 0x1349
    1040:	210d0000 	mrscs	r0, (UNDEF: 13)
    1044:	2f134900 	svccs	0x00134900
    1048:	0e00000b 	cdpeq	0, 0, cr0, cr0, cr11, {0}
    104c:	193f002e 	ldmdbne	pc!, {r1, r2, r3, r5}	; <UNPREDICTABLE>
    1050:	0b3a0e03 	bleq	e84864 <__bss_end__+0xe7a0ec>
    1054:	19270b3b 	stmdbne	r7!, {r0, r1, r3, r4, r5, r8, r9, fp}
    1058:	0000193c 	andeq	r1, r0, ip, lsr r9
    105c:	3f012e0f 	svccc	0x00012e0f
    1060:	3a0e0319 	bcc	381ccc <__bss_end__+0x377554>
    1064:	270b3b0b 	strcs	r3, [fp, -fp, lsl #22]
    1068:	3c134919 	ldccc	9, cr4, [r3], {25}
    106c:	00130119 	andseq	r0, r3, r9, lsl r1
    1070:	00051000 	andeq	r1, r5, r0
    1074:	00001349 	andeq	r1, r0, r9, asr #6
    1078:	00001811 	andeq	r1, r0, r1, lsl r8
    107c:	11010000 	mrsne	r0, (UNDEF: 1)
    1080:	130e2501 	movwne	r2, #58625	; 0xe501
    1084:	1b0e030b 	blne	381cb8 <__bss_end__+0x377540>
    1088:	1201110e 	andne	r1, r1, #-2147483645	; 0x80000003
    108c:	00171006 	andseq	r1, r7, r6
    1090:	00240200 	eoreq	r0, r4, r0, lsl #4
    1094:	0b3e0b0b 	bleq	f83cc8 <__bss_end__+0xf79550>
    1098:	00000803 	andeq	r0, r0, r3, lsl #16
    109c:	0b002403 	bleq	a0b0 <__FUNCTION__.4451+0x2d8>
    10a0:	030b3e0b 	movweq	r3, #48651	; 0xbe0b
    10a4:	0400000e 	streq	r0, [r0], #-14
    10a8:	193f002e 	ldmdbne	pc!, {r1, r2, r3, r5}	; <UNPREDICTABLE>
    10ac:	0b3a0e03 	bleq	e848c0 <__bss_end__+0xe7a148>
    10b0:	19270b3b 	stmdbne	r7!, {r0, r1, r3, r4, r5, r8, r9, fp}
    10b4:	06120111 			; <UNDEFINED> instruction: 0x06120111
    10b8:	42971840 	addsmi	r1, r7, #64, 16	; 0x400000
    10bc:	00000019 	andeq	r0, r0, r9, lsl r0
    10c0:	25011101 	strcs	r1, [r1, #-257]	; 0x101
    10c4:	030b130e 	movweq	r1, #45838	; 0xb30e
    10c8:	110e1b0e 	tstne	lr, lr, lsl #22
    10cc:	10061201 	andne	r1, r6, r1, lsl #4
    10d0:	02000017 	andeq	r0, r0, #23
    10d4:	0b0b0024 	bleq	2c116c <__bss_end__+0x2b69f4>
    10d8:	08030b3e 	stmdaeq	r3, {r1, r2, r3, r4, r5, r8, r9, fp}
    10dc:	24030000 	strcs	r0, [r3], #-0
    10e0:	3e0b0b00 	vmlacc.f64	d0, d11, d0
    10e4:	000e030b 	andeq	r0, lr, fp, lsl #6
    10e8:	01040400 	tsteq	r4, r0, lsl #8
    10ec:	0b3a0b0b 	bleq	e83d20 <__bss_end__+0xe795a8>
    10f0:	13010b3b 	movwne	r0, #6971	; 0x1b3b
    10f4:	28050000 	stmdacs	r5, {}	; <UNPREDICTABLE>
    10f8:	1c0e0300 	stcne	3, cr0, [lr], {-0}
    10fc:	0600000d 	streq	r0, [r0], -sp
    1100:	193f012e 	ldmdbne	pc!, {r1, r2, r3, r5, r8}	; <UNPREDICTABLE>
    1104:	0b3a0e03 	bleq	e84918 <__bss_end__+0xe7a1a0>
    1108:	19270b3b 	stmdbne	r7!, {r0, r1, r3, r4, r5, r8, r9, fp}
    110c:	06120111 			; <UNDEFINED> instruction: 0x06120111
    1110:	42971840 	addsmi	r1, r7, #64, 16	; 0x400000
    1114:	00130119 	andseq	r0, r3, r9, lsl r1
    1118:	00340700 	eorseq	r0, r4, r0, lsl #14
    111c:	0b3a0e03 	bleq	e84930 <__bss_end__+0xe7a1b8>
    1120:	13490b3b 	movtne	r0, #39739	; 0x9b3b
    1124:	193c193f 	ldmdbne	ip!, {r0, r1, r2, r3, r4, r5, r8, fp, ip}
    1128:	34080000 	strcc	r0, [r8], #-0
    112c:	3a080300 	bcc	201d34 <__bss_end__+0x1f75bc>
    1130:	490b3b0b 	stmdbmi	fp, {r0, r1, r3, r8, r9, fp, ip, sp}
    1134:	000b1c13 	andeq	r1, fp, r3, lsl ip
    1138:	00340900 	eorseq	r0, r4, r0, lsl #18
    113c:	0b3a0803 	bleq	e83150 <__bss_end__+0xe789d8>
    1140:	13490b3b 	movtne	r0, #39739	; 0x9b3b
    1144:	340a0000 	strcc	r0, [sl], #-0
    1148:	3a080300 	bcc	201d50 <__bss_end__+0x1f75d8>
    114c:	490b3b0b 	stmdbmi	fp, {r0, r1, r3, r8, r9, fp, ip, sp}
    1150:	00180213 	andseq	r0, r8, r3, lsl r2
    1154:	010b0b00 	tsteq	fp, r0, lsl #22
    1158:	06120111 			; <UNDEFINED> instruction: 0x06120111
    115c:	00001301 	andeq	r1, r0, r1, lsl #6
    1160:	0300340c 	movweq	r3, #1036	; 0x40c
    1164:	3b0b3a08 	blcc	2cf98c <__bss_end__+0x2c5214>
    1168:	0213490b 	andseq	r4, r3, #180224	; 0x2c000
    116c:	0d000017 	stceq	0, cr0, [r0, #-92]	; 0xffffffa4
    1170:	00018289 	andeq	r8, r1, r9, lsl #5
    1174:	13310111 	teqne	r1, #1073741828	; 0x40000004
    1178:	890e0000 	stmdbhi	lr, {}	; <UNPREDICTABLE>
    117c:	11010182 	smlabbne	r1, r2, r1, r0
    1180:	01133101 	tsteq	r3, r1, lsl #2
    1184:	0f000013 	svceq	0x00000013
    1188:	0001828a 	andeq	r8, r1, sl, lsl #5
    118c:	42911802 	addsmi	r1, r1, #131072	; 0x20000
    1190:	10000018 	andne	r0, r0, r8, lsl r0
    1194:	0b0b000f 	bleq	2c11d8 <__bss_end__+0x2b6a60>
    1198:	00001349 	andeq	r1, r0, r9, asr #6
    119c:	3f002e11 	svccc	0x00002e11
    11a0:	3a0e0319 	bcc	381e0c <__bss_end__+0x377694>
    11a4:	270b3b0b 	strcs	r3, [fp, -fp, lsl #22]
    11a8:	00193c19 	andseq	r3, r9, r9, lsl ip
    11ac:	012e1200 	teqeq	lr, r0, lsl #4
    11b0:	0e03193f 	mcreq	9, 0, r1, cr3, cr15, {1}
    11b4:	0b3b0b3a 	bleq	ec3ea4 <__bss_end__+0xeb972c>
    11b8:	193c1927 	ldmdbne	ip!, {r0, r1, r2, r5, r8, fp, ip}
    11bc:	05130000 	ldreq	r0, [r3, #-0]
    11c0:	00134900 	andseq	r4, r3, r0, lsl #18
    11c4:	11010000 	mrsne	r0, (UNDEF: 1)
    11c8:	130e2501 	movwne	r2, #58625	; 0xe501
    11cc:	1b0e030b 	blne	381e00 <__bss_end__+0x377688>
    11d0:	1117550e 	tstne	r7, lr, lsl #10
    11d4:	00171001 	andseq	r1, r7, r1
    11d8:	00240200 	eoreq	r0, r4, r0, lsl #4
    11dc:	0b3e0b0b 	bleq	f83e10 <__bss_end__+0xf79698>
    11e0:	00000803 	andeq	r0, r0, r3, lsl #16
    11e4:	0b002403 	bleq	a1f8 <__FUNCTION__.4272+0xa0>
    11e8:	030b3e0b 	movweq	r3, #48651	; 0xbe0b
    11ec:	0400000e 	streq	r0, [r0], #-14
    11f0:	193f012e 	ldmdbne	pc!, {r1, r2, r3, r5, r8}	; <UNPREDICTABLE>
    11f4:	0b3a0e03 	bleq	e84a08 <__bss_end__+0xe7a290>
    11f8:	19270b3b 	stmdbne	r7!, {r0, r1, r3, r4, r5, r8, r9, fp}
    11fc:	01111349 	tsteq	r1, r9, asr #6
    1200:	18400612 	stmdane	r0, {r1, r4, r9, sl}^
    1204:	01194297 			; <UNDEFINED> instruction: 0x01194297
    1208:	05000013 	streq	r0, [r0, #-19]
    120c:	0e030034 	mcreq	0, 0, r0, cr3, cr4, {1}
    1210:	0b3b0b3a 	bleq	ec3f00 <__bss_end__+0xeb9788>
    1214:	17021349 	strne	r1, [r2, -r9, asr #6]
    1218:	2e060000 	cdpcs	0, 0, cr0, cr6, cr0, {0}
    121c:	03193f01 	tsteq	r9, #1, 30
    1220:	3b0b3a0e 	blcc	2cfa60 <__bss_end__+0x2c52e8>
    1224:	1119270b 	tstne	r9, fp, lsl #14
    1228:	40061201 	andmi	r1, r6, r1, lsl #4
    122c:	19429718 	stmdbne	r2, {r3, r4, r8, r9, sl, ip, pc}^
    1230:	00001301 	andeq	r1, r0, r1, lsl #6
    1234:	03003407 	movweq	r3, #1031	; 0x407
    1238:	3b0b3a0e 	blcc	2cfa78 <__bss_end__+0x2c5300>
    123c:	1c13490b 	ldcne	9, cr4, [r3], {11}
    1240:	08000006 	stmdaeq	r0, {r1, r2}
    1244:	0e030034 	mcreq	0, 0, r0, cr3, cr4, {1}
    1248:	0b3b0b3a 	bleq	ec3f38 <__bss_end__+0xeb97c0>
    124c:	0b1c1349 	bleq	705f78 <__bss_end__+0x6fb800>
    1250:	89090000 	stmdbhi	r9, {}	; <UNPREDICTABLE>
    1254:	11000182 	smlabbne	r0, r2, r1, r0
    1258:	00133101 	andseq	r3, r3, r1, lsl #2
    125c:	82890a00 	addhi	r0, r9, #0, 20
    1260:	01110101 	tsteq	r1, r1, lsl #2
    1264:	13011331 	movwne	r1, #4913	; 0x1331
    1268:	8a0b0000 	bhi	2c1270 <__bss_end__+0x2b6af8>
    126c:	02000182 	andeq	r0, r0, #-2147483616	; 0x80000020
    1270:	18429118 	stmdane	r2, {r3, r4, r8, ip, pc}^
    1274:	890c0000 	stmdbhi	ip, {}	; <UNPREDICTABLE>
    1278:	11010182 	smlabbne	r1, r2, r1, r0
    127c:	00133101 	andseq	r3, r3, r1, lsl #2
    1280:	00260d00 	eoreq	r0, r6, r0, lsl #26
    1284:	00001349 	andeq	r1, r0, r9, asr #6
    1288:	3f012e0e 	svccc	0x00012e0e
    128c:	3a0e0319 	bcc	381ef8 <__bss_end__+0x377780>
    1290:	270b3b0b 	strcs	r3, [fp, -fp, lsl #22]
    1294:	01193c19 	tsteq	r9, r9, lsl ip
    1298:	0f000013 	svceq	0x00000013
    129c:	13490005 	movtne	r0, #36869	; 0x9005
    12a0:	2e100000 	cdpcs	0, 1, cr0, cr0, cr0, {0}
    12a4:	03193f01 	tsteq	r9, #1, 30
    12a8:	3b0b3a0e 	blcc	2cfae8 <__bss_end__+0x2c5370>
    12ac:	3c19270b 	ldccc	7, cr2, [r9], {11}
    12b0:	00000019 	andeq	r0, r0, r9, lsl r0
    12b4:	25011101 	strcs	r1, [r1, #-257]	; 0x101
    12b8:	030b130e 	movweq	r1, #45838	; 0xb30e
    12bc:	110e1b0e 	tstne	lr, lr, lsl #22
    12c0:	10061201 	andne	r1, r6, r1, lsl #4
    12c4:	02000017 	andeq	r0, r0, #23
    12c8:	0b0b0024 	bleq	2c1360 <__bss_end__+0x2b6be8>
    12cc:	08030b3e 	stmdaeq	r3, {r1, r2, r3, r4, r5, r8, r9, fp}
    12d0:	24030000 	strcs	r0, [r3], #-0
    12d4:	3e0b0b00 	vmlacc.f64	d0, d11, d0
    12d8:	000e030b 	andeq	r0, lr, fp, lsl #6
    12dc:	012e0400 	teqeq	lr, r0, lsl #8
    12e0:	0e03193f 	mcreq	9, 0, r1, cr3, cr15, {1}
    12e4:	0b3b0b3a 	bleq	ec3fd4 <__bss_end__+0xeb985c>
    12e8:	01111927 	tsteq	r1, r7, lsr #18
    12ec:	18400612 	stmdane	r0, {r1, r4, r9, sl}^
    12f0:	01194297 			; <UNDEFINED> instruction: 0x01194297
    12f4:	05000013 	streq	r0, [r0, #-19]
    12f8:	0e030005 	cdpeq	0, 0, cr0, cr3, cr5, {0}
    12fc:	0b3b0b3a 	bleq	ec3fec <__bss_end__+0xeb9874>
    1300:	17021349 	strne	r1, [r2, -r9, asr #6]
    1304:	2e060000 	cdpcs	0, 0, cr0, cr6, cr0, {0}
    1308:	03193f01 	tsteq	r9, #1, 30
    130c:	3b0b3a0e 	blcc	2cfb4c <__bss_end__+0x2c53d4>
    1310:	4919270b 	ldmdbmi	r9, {r0, r1, r3, r8, r9, sl, sp}
    1314:	12011113 	andne	r1, r1, #-1073741820	; 0xc0000004
    1318:	97184006 	ldrls	r4, [r8, -r6]
    131c:	13011942 	movwne	r1, #6466	; 0x1942
    1320:	89070000 	stmdbhi	r7, {}	; <UNPREDICTABLE>
    1324:	11010182 	smlabbne	r1, r2, r1, r0
    1328:	00133101 	andseq	r3, r3, r1, lsl #2
    132c:	828a0800 	addhi	r0, sl, #0, 16
    1330:	18020001 	stmdane	r2, {r0}
    1334:	00184291 	mulseq	r8, r1, r2
    1338:	00340900 	eorseq	r0, r4, r0, lsl #18
    133c:	0b3a0803 	bleq	e83350 <__bss_end__+0xe78bd8>
    1340:	13490b3b 	movtne	r0, #39739	; 0x9b3b
    1344:	00001702 	andeq	r1, r0, r2, lsl #14
    1348:	0182890a 	orreq	r8, r2, sl, lsl #18
    134c:	31011100 	mrscc	r1, (UNDEF: 17)
    1350:	0b000013 	bleq	13a4 <__code_start__-0x6c5c>
    1354:	08030005 	stmdaeq	r3, {r0, r2}
    1358:	0b3b0b3a 	bleq	ec4048 <__bss_end__+0xeb98d0>
    135c:	17021349 	strne	r1, [r2, -r9, asr #6]
    1360:	340c0000 	strcc	r0, [ip], #-0
    1364:	3a080300 	bcc	201f6c <__bss_end__+0x1f77f4>
    1368:	490b3b0b 	stmdbmi	fp, {r0, r1, r3, r8, r9, fp, ip, sp}
    136c:	00180213 	andseq	r0, r8, r3, lsl r2
    1370:	010b0d00 	tsteq	fp, r0, lsl #26
    1374:	06120111 			; <UNDEFINED> instruction: 0x06120111
    1378:	00001301 	andeq	r1, r0, r1, lsl #6
    137c:	3f012e0e 	svccc	0x00012e0e
    1380:	3a0e0319 	bcc	381fec <__bss_end__+0x377874>
    1384:	270b3b0b 	strcs	r3, [fp, -fp, lsl #22]
    1388:	3c134919 	ldccc	9, cr4, [r3], {25}
    138c:	00130119 	andseq	r0, r3, r9, lsl r1
    1390:	00050f00 	andeq	r0, r5, r0, lsl #30
    1394:	00001349 	andeq	r1, r0, r9, asr #6
    1398:	3f002e10 	svccc	0x00002e10
    139c:	3a0e0319 	bcc	382008 <__bss_end__+0x377890>
    13a0:	270b3b0b 	strcs	r3, [fp, -fp, lsl #22]
    13a4:	00193c19 	andseq	r3, r9, r9, lsl ip
    13a8:	11010000 	mrsne	r0, (UNDEF: 1)
    13ac:	130e2501 	movwne	r2, #58625	; 0xe501
    13b0:	1b0e030b 	blne	381fe4 <__bss_end__+0x37786c>
    13b4:	1201110e 	andne	r1, r1, #-2147483645	; 0x80000003
    13b8:	00171006 	andseq	r1, r7, r6
    13bc:	00240200 	eoreq	r0, r4, r0, lsl #4
    13c0:	0b3e0b0b 	bleq	f83ff4 <__bss_end__+0xf7987c>
    13c4:	00000803 	andeq	r0, r0, r3, lsl #16
    13c8:	0b002403 	bleq	a3dc <buf.4189+0x68>
    13cc:	030b3e0b 	movweq	r3, #48651	; 0xbe0b
    13d0:	0400000e 	streq	r0, [r0], #-14
    13d4:	13490035 	movtne	r0, #36917	; 0x9035
    13d8:	16050000 	strne	r0, [r5], -r0
    13dc:	3a0e0300 	bcc	381fe4 <__bss_end__+0x37786c>
    13e0:	490b3b0b 	stmdbmi	fp, {r0, r1, r3, r8, r9, fp, ip, sp}
    13e4:	06000013 			; <UNDEFINED> instruction: 0x06000013
    13e8:	0e030016 	mcreq	0, 0, r0, cr3, cr6, {0}
    13ec:	053b0b3a 	ldreq	r0, [fp, #-2874]!	; 0xb3a
    13f0:	00001349 	andeq	r1, r0, r9, asr #6
    13f4:	0b011707 	bleq	47018 <__bss_end__+0x3c8a0>
    13f8:	3b0b3a0b 	blcc	2cfc2c <__bss_end__+0x2c54b4>
    13fc:	0013010b 	andseq	r0, r3, fp, lsl #2
    1400:	000d0800 	andeq	r0, sp, r0, lsl #16
    1404:	0b3a0e03 	bleq	e84c18 <__bss_end__+0xe7a4a0>
    1408:	13490b3b 	movtne	r0, #39739	; 0x9b3b
    140c:	01090000 	mrseq	r0, (UNDEF: 9)
    1410:	01134901 	tsteq	r3, r1, lsl #18
    1414:	0a000013 	beq	1468 <__code_start__-0x6b98>
    1418:	13490021 	movtne	r0, #36897	; 0x9021
    141c:	00000b2f 	andeq	r0, r0, pc, lsr #22
    1420:	0b01130b 	bleq	46054 <__bss_end__+0x3b8dc>
    1424:	3b0b3a0b 	blcc	2cfc58 <__bss_end__+0x2c54e0>
    1428:	0013010b 	andseq	r0, r3, fp, lsl #2
    142c:	000d0c00 	andeq	r0, sp, r0, lsl #24
    1430:	0b3a0e03 	bleq	e84c44 <__bss_end__+0xe7a4cc>
    1434:	13490b3b 	movtne	r0, #39739	; 0x9b3b
    1438:	00000b38 	andeq	r0, r0, r8, lsr fp
    143c:	0b000f0d 	bleq	5078 <__code_start__-0x2f88>
    1440:	0e00000b 	cdpeq	0, 0, cr0, cr0, cr11, {0}
    1444:	0b0b000f 	bleq	2c1488 <__bss_end__+0x2b6d10>
    1448:	00001349 	andeq	r1, r0, r9, asr #6
    144c:	4900260f 	stmdbmi	r0, {r0, r1, r2, r3, r9, sl, sp}
    1450:	10000013 	andne	r0, r0, r3, lsl r0
    1454:	0e030113 	mcreq	1, 0, r0, cr3, cr3, {0}
    1458:	0b3a0b0b 	bleq	e8408c <__bss_end__+0xe79914>
    145c:	13010b3b 	movwne	r0, #6971	; 0x1b3b
    1460:	0d110000 	ldceq	0, cr0, [r1, #-0]
    1464:	3a080300 	bcc	20206c <__bss_end__+0x1f78f4>
    1468:	490b3b0b 	stmdbmi	fp, {r0, r1, r3, r8, r9, fp, ip, sp}
    146c:	000b3813 	andeq	r3, fp, r3, lsl r8
    1470:	01131200 	tsteq	r3, r0, lsl #4
    1474:	050b0e03 	streq	r0, [fp, #-3587]	; 0xe03
    1478:	0b3b0b3a 	bleq	ec4168 <__bss_end__+0xeb99f0>
    147c:	00001301 	andeq	r1, r0, r1, lsl #6
    1480:	03000d13 	movweq	r0, #3347	; 0xd13
    1484:	3b0b3a0e 	blcc	2cfcc4 <__bss_end__+0x2c554c>
    1488:	3813490b 	ldmdacc	r3, {r0, r1, r3, r8, fp, lr}
    148c:	14000005 	strne	r0, [r0], #-5
    1490:	19270015 	stmdbne	r7!, {r0, r2, r4}
    1494:	15150000 	ldrne	r0, [r5, #-0]
    1498:	49192701 	ldmdbmi	r9, {r0, r8, r9, sl, sp}
    149c:	00130113 	andseq	r0, r3, r3, lsl r1
    14a0:	00051600 	andeq	r1, r5, r0, lsl #12
    14a4:	00001349 	andeq	r1, r0, r9, asr #6
    14a8:	03011317 	movweq	r1, #4887	; 0x1317
    14ac:	3a050b0e 	bcc	1440ec <__bss_end__+0x139974>
    14b0:	01053b0b 	tsteq	r5, fp, lsl #22
    14b4:	18000013 	stmdane	r0, {r0, r1, r4}
    14b8:	0e03000d 	cdpeq	0, 0, cr0, cr3, cr13, {0}
    14bc:	053b0b3a 	ldreq	r0, [fp, #-2874]!	; 0xb3a
    14c0:	0b381349 	bleq	e061ec <__bss_end__+0xdfba74>
    14c4:	0d190000 	ldceq	0, cr0, [r9, #-0]
    14c8:	3a0e0300 	bcc	3820d0 <__bss_end__+0x377958>
    14cc:	49053b0b 	stmdbmi	r5, {r0, r1, r3, r8, r9, fp, ip, sp}
    14d0:	00053813 	andeq	r3, r5, r3, lsl r8
    14d4:	01131a00 	tsteq	r3, r0, lsl #20
    14d8:	0b0b0e03 	bleq	2c4cec <__bss_end__+0x2ba574>
    14dc:	053b0b3a 	ldreq	r0, [fp, #-2874]!	; 0xb3a
    14e0:	00001301 	andeq	r1, r0, r1, lsl #6
    14e4:	0b01131b 	bleq	46158 <__bss_end__+0x3b9e0>
    14e8:	3b0b3a0b 	blcc	2cfd1c <__bss_end__+0x2c55a4>
    14ec:	00130105 	andseq	r0, r3, r5, lsl #2
    14f0:	01171c00 	tsteq	r7, r0, lsl #24
    14f4:	0b3a0b0b 	bleq	e84128 <__bss_end__+0xe799b0>
    14f8:	1301053b 	movwne	r0, #5435	; 0x153b
    14fc:	0d1d0000 	ldceq	0, cr0, [sp, #-0]
    1500:	3a0e0300 	bcc	382108 <__bss_end__+0x377990>
    1504:	49053b0b 	stmdbmi	r5, {r0, r1, r3, r8, r9, fp, ip, sp}
    1508:	1e000013 	mcrne	0, 0, r0, cr0, cr3, {0}
    150c:	19270115 	stmdbne	r7!, {r0, r2, r4, r8}
    1510:	00001301 	andeq	r1, r0, r1, lsl #6
    1514:	0300341f 	movweq	r3, #1055	; 0x41f
    1518:	3b0b3a0e 	blcc	2cfd58 <__bss_end__+0x2c55e0>
    151c:	3f134905 	svccc	0x00134905
    1520:	00193c19 	andseq	r3, r9, r9, lsl ip
    1524:	00342000 	eorseq	r2, r4, r0
    1528:	0b3a0e03 	bleq	e84d3c <__bss_end__+0xe7a5c4>
    152c:	13490b3b 	movtne	r0, #39739	; 0x9b3b
    1530:	193c193f 	ldmdbne	ip!, {r0, r1, r2, r3, r4, r5, r8, fp, ip}
    1534:	04210000 	strteq	r0, [r1], #-0
    1538:	490b0b01 	stmdbmi	fp, {r0, r8, r9, fp}
    153c:	3b0b3a13 	blcc	2cfd90 <__bss_end__+0x2c5618>
    1540:	0013010b 	andseq	r0, r3, fp, lsl #2
    1544:	00282200 	eoreq	r2, r8, r0, lsl #4
    1548:	0b1c0e03 	bleq	704d5c <__bss_end__+0x6fa5e4>
    154c:	34230000 	strtcc	r0, [r3], #-0
    1550:	3a0e0300 	bcc	382158 <__bss_end__+0x3779e0>
    1554:	490b3b0b 	stmdbmi	fp, {r0, r1, r3, r8, r9, fp, ip, sp}
    1558:	00061c13 	andeq	r1, r6, r3, lsl ip
    155c:	012e2400 	teqeq	lr, r0, lsl #8
    1560:	0e03193f 	mcreq	9, 0, r1, cr3, cr15, {1}
    1564:	0b3b0b3a 	bleq	ec4254 <__bss_end__+0xeb9adc>
    1568:	13491927 	movtne	r1, #39207	; 0x9927
    156c:	06120111 			; <UNDEFINED> instruction: 0x06120111
    1570:	42971840 	addsmi	r1, r7, #64, 16	; 0x400000
    1574:	00130119 	andseq	r0, r3, r9, lsl r1
    1578:	82892500 	addhi	r2, r9, #0, 10
    157c:	01110001 	tsteq	r1, r1
    1580:	00001331 	andeq	r1, r0, r1, lsr r3
    1584:	3f012e26 	svccc	0x00012e26
    1588:	3a0e0319 	bcc	3821f4 <__bss_end__+0x377a7c>
    158c:	270b3b0b 	strcs	r3, [fp, -fp, lsl #22]
    1590:	12011119 	andne	r1, r1, #1073741830	; 0x40000006
    1594:	97184006 	ldrls	r4, [r8, -r6]
    1598:	13011942 	movwne	r1, #6466	; 0x1942
    159c:	05270000 	streq	r0, [r7, #-0]!
    15a0:	3a080300 	bcc	2021a8 <__bss_end__+0x1f7a30>
    15a4:	490b3b0b 	stmdbmi	fp, {r0, r1, r3, r8, r9, fp, ip, sp}
    15a8:	00170213 	andseq	r0, r7, r3, lsl r2
    15ac:	82892800 	addhi	r2, r9, #0, 16
    15b0:	01110101 	tsteq	r1, r1, lsl #2
    15b4:	13011331 	movwne	r1, #4913	; 0x1331
    15b8:	8a290000 	bhi	a415c0 <__bss_end__+0xa36e48>
    15bc:	02000182 	andeq	r0, r0, #-2147483616	; 0x80000020
    15c0:	18429118 	stmdane	r2, {r3, r4, r8, ip, pc}^
    15c4:	342a0000 	strtcc	r0, [sl], #-0
    15c8:	3a080300 	bcc	2021d0 <__bss_end__+0x1f7a58>
    15cc:	490b3b0b 	stmdbmi	fp, {r0, r1, r3, r8, r9, fp, ip, sp}
    15d0:	00180213 	andseq	r0, r8, r3, lsl r2
    15d4:	82892b00 	addhi	r2, r9, #0, 22
    15d8:	01110101 	tsteq	r1, r1, lsl #2
    15dc:	00001331 	andeq	r1, r0, r1, lsr r3
    15e0:	03012e2c 	movweq	r2, #7724	; 0x1e2c
    15e4:	3b0b3a0e 	blcc	2cfe24 <__bss_end__+0x2c56ac>
    15e8:	1119270b 	tstne	r9, fp, lsl #14
    15ec:	40061201 	andmi	r1, r6, r1, lsl #4
    15f0:	19429718 	stmdbne	r2, {r3, r4, r8, r9, sl, ip, pc}^
    15f4:	00001301 	andeq	r1, r0, r1, lsl #6
    15f8:	0300052d 	movweq	r0, #1325	; 0x52d
    15fc:	3b0b3a0e 	blcc	2cfe3c <__bss_end__+0x2c56c4>
    1600:	0213490b 	andseq	r4, r3, #180224	; 0x2c000
    1604:	2e000017 	mcrcs	0, 0, r0, cr0, cr7, {0}
    1608:	00000035 	andeq	r0, r0, r5, lsr r0
    160c:	3f002e2f 	svccc	0x00002e2f
    1610:	6e193c19 	mrcvs	12, 0, r3, cr9, cr9, {0}
    1614:	3a0e030e 	bcc	382254 <__bss_end__+0x377adc>
    1618:	000b3b0b 	andeq	r3, fp, fp, lsl #22
    161c:	11010000 	mrsne	r0, (UNDEF: 1)
    1620:	130e2501 	movwne	r2, #58625	; 0xe501
    1624:	1b0e030b 	blne	382258 <__bss_end__+0x377ae0>
    1628:	1201110e 	andne	r1, r1, #-2147483645	; 0x80000003
    162c:	00171006 	andseq	r1, r7, r6
    1630:	00240200 	eoreq	r0, r4, r0, lsl #4
    1634:	0b3e0b0b 	bleq	f84268 <__bss_end__+0xf79af0>
    1638:	00000803 	andeq	r0, r0, r3, lsl #16
    163c:	0b002403 	bleq	a650 <buf.4189+0x2dc>
    1640:	030b3e0b 	movweq	r3, #48651	; 0xbe0b
    1644:	0400000e 	streq	r0, [r0], #-14
    1648:	13490026 	movtne	r0, #36902	; 0x9026
    164c:	16050000 	strne	r0, [r5], -r0
    1650:	3a0e0300 	bcc	382258 <__bss_end__+0x377ae0>
    1654:	490b3b0b 	stmdbmi	fp, {r0, r1, r3, r8, r9, fp, ip, sp}
    1658:	06000013 			; <UNDEFINED> instruction: 0x06000013
    165c:	0e030016 	mcreq	0, 0, r0, cr3, cr6, {0}
    1660:	053b0b3a 	ldreq	r0, [fp, #-2874]!	; 0xb3a
    1664:	00001349 	andeq	r1, r0, r9, asr #6
    1668:	0b011707 	bleq	4728c <__bss_end__+0x3cb14>
    166c:	3b0b3a0b 	blcc	2cfea0 <__bss_end__+0x2c5728>
    1670:	0013010b 	andseq	r0, r3, fp, lsl #2
    1674:	000d0800 	andeq	r0, sp, r0, lsl #16
    1678:	0b3a0e03 	bleq	e84e8c <__bss_end__+0xe7a714>
    167c:	13490b3b 	movtne	r0, #39739	; 0x9b3b
    1680:	01090000 	mrseq	r0, (UNDEF: 9)
    1684:	01134901 	tsteq	r3, r1, lsl #18
    1688:	0a000013 	beq	16dc <__code_start__-0x6924>
    168c:	13490021 	movtne	r0, #36897	; 0x9021
    1690:	00000b2f 	andeq	r0, r0, pc, lsr #22
    1694:	0b01130b 	bleq	462c8 <__bss_end__+0x3bb50>
    1698:	3b0b3a0b 	blcc	2cfecc <__bss_end__+0x2c5754>
    169c:	0013010b 	andseq	r0, r3, fp, lsl #2
    16a0:	000d0c00 	andeq	r0, sp, r0, lsl #24
    16a4:	0b3a0e03 	bleq	e84eb8 <__bss_end__+0xe7a740>
    16a8:	13490b3b 	movtne	r0, #39739	; 0x9b3b
    16ac:	00000b38 	andeq	r0, r0, r8, lsr fp
    16b0:	0b000f0d 	bleq	52ec <__code_start__-0x2d14>
    16b4:	0e00000b 	cdpeq	0, 0, cr0, cr0, cr11, {0}
    16b8:	0b0b000f 	bleq	2c16fc <__bss_end__+0x2b6f84>
    16bc:	00001349 	andeq	r1, r0, r9, asr #6
    16c0:	0301130f 	movweq	r1, #4879	; 0x130f
    16c4:	3a0b0b0e 	bcc	2c4304 <__bss_end__+0x2b9b8c>
    16c8:	010b3b0b 	tsteq	fp, fp, lsl #22
    16cc:	10000013 	andne	r0, r0, r3, lsl r0
    16d0:	0803000d 	stmdaeq	r3, {r0, r2, r3}
    16d4:	0b3b0b3a 	bleq	ec43c4 <__bss_end__+0xeb9c4c>
    16d8:	0b381349 	bleq	e06404 <__bss_end__+0xdfbc8c>
    16dc:	13110000 	tstne	r1, #0
    16e0:	0b0e0301 	bleq	3822ec <__bss_end__+0x377b74>
    16e4:	3b0b3a05 	blcc	2cff00 <__bss_end__+0x2c5788>
    16e8:	0013010b 	andseq	r0, r3, fp, lsl #2
    16ec:	000d1200 	andeq	r1, sp, r0, lsl #4
    16f0:	0b3a0e03 	bleq	e84f04 <__bss_end__+0xe7a78c>
    16f4:	13490b3b 	movtne	r0, #39739	; 0x9b3b
    16f8:	00000538 	andeq	r0, r0, r8, lsr r5
    16fc:	27001513 	smladcs	r0, r3, r5, r1
    1700:	14000019 	strne	r0, [r0], #-25
    1704:	19270115 	stmdbne	r7!, {r0, r2, r4, r8}
    1708:	13011349 	movwne	r1, #4937	; 0x1349
    170c:	05150000 	ldreq	r0, [r5, #-0]
    1710:	00134900 	andseq	r4, r3, r0, lsl #18
    1714:	01131600 	tsteq	r3, r0, lsl #12
    1718:	050b0e03 	streq	r0, [fp, #-3587]	; 0xe03
    171c:	053b0b3a 	ldreq	r0, [fp, #-2874]!	; 0xb3a
    1720:	00001301 	andeq	r1, r0, r1, lsl #6
    1724:	03000d17 	movweq	r0, #3351	; 0xd17
    1728:	3b0b3a0e 	blcc	2cff68 <__bss_end__+0x2c57f0>
    172c:	38134905 	ldmdacc	r3, {r0, r2, r8, fp, lr}
    1730:	1800000b 	stmdane	r0, {r0, r1, r3}
    1734:	0e03000d 	cdpeq	0, 0, cr0, cr3, cr13, {0}
    1738:	053b0b3a 	ldreq	r0, [fp, #-2874]!	; 0xb3a
    173c:	05381349 	ldreq	r1, [r8, #-841]!	; 0x349
    1740:	13190000 	tstne	r9, #0
    1744:	0b0e0301 	bleq	382350 <__bss_end__+0x377bd8>
    1748:	3b0b3a0b 	blcc	2cff7c <__bss_end__+0x2c5804>
    174c:	00130105 	andseq	r0, r3, r5, lsl #2
    1750:	01131a00 	tsteq	r3, r0, lsl #20
    1754:	0b3a0b0b 	bleq	e84388 <__bss_end__+0xe79c10>
    1758:	1301053b 	movwne	r0, #5435	; 0x153b
    175c:	171b0000 	ldrne	r0, [fp, -r0]
    1760:	3a0b0b01 	bcc	2c436c <__bss_end__+0x2b9bf4>
    1764:	01053b0b 	tsteq	r5, fp, lsl #22
    1768:	1c000013 	stcne	0, cr0, [r0], {19}
    176c:	0e03000d 	cdpeq	0, 0, cr0, cr3, cr13, {0}
    1770:	053b0b3a 	ldreq	r0, [fp, #-2874]!	; 0xb3a
    1774:	00001349 	andeq	r1, r0, r9, asr #6
    1778:	2701151d 	smladcs	r1, sp, r5, r1
    177c:	00130119 	andseq	r0, r3, r9, lsl r1
    1780:	00341e00 	eorseq	r1, r4, r0, lsl #28
    1784:	0b3a0e03 	bleq	e84f98 <__bss_end__+0xe7a820>
    1788:	1349053b 	movtne	r0, #38203	; 0x953b
    178c:	193c193f 	ldmdbne	ip!, {r0, r1, r2, r3, r4, r5, r8, fp, ip}
    1790:	341f0000 	ldrcc	r0, [pc], #-0	; 1798 <__code_start__-0x6868>
    1794:	3a0e0300 	bcc	38239c <__bss_end__+0x377c24>
    1798:	490b3b0b 	stmdbmi	fp, {r0, r1, r3, r8, r9, fp, ip, sp}
    179c:	3c193f13 	ldccc	15, cr3, [r9], {19}
    17a0:	20000019 	andcs	r0, r0, r9, lsl r0
    17a4:	0b0b0104 	bleq	2c1bbc <__bss_end__+0x2b7444>
    17a8:	0b3a1349 	bleq	e864d4 <__bss_end__+0xe7bd5c>
    17ac:	13010b3b 	movwne	r0, #6971	; 0x1b3b
    17b0:	28210000 	stmdacs	r1!, {}	; <UNPREDICTABLE>
    17b4:	1c0e0300 	stcne	3, cr0, [lr], {-0}
    17b8:	2200000b 	andcs	r0, r0, #11
    17bc:	0e030034 	mcreq	0, 0, r0, cr3, cr4, {1}
    17c0:	0b3b0b3a 	bleq	ec44b0 <__bss_end__+0xeb9d38>
    17c4:	061c1349 	ldreq	r1, [ip], -r9, asr #6
    17c8:	2e230000 	cdpcs	0, 2, cr0, cr3, cr0, {0}
    17cc:	03193f01 	tsteq	r9, #1, 30
    17d0:	3b0b3a0e 	blcc	2d0010 <__bss_end__+0x2c5898>
    17d4:	4919270b 	ldmdbmi	r9, {r0, r1, r3, r8, r9, sl, sp}
    17d8:	12011113 	andne	r1, r1, #-1073741820	; 0xc0000004
    17dc:	97184006 	ldrls	r4, [r8, -r6]
    17e0:	13011942 	movwne	r1, #6466	; 0x1942
    17e4:	05240000 	streq	r0, [r4, #-0]!
    17e8:	3a080300 	bcc	2023f0 <__bss_end__+0x1f7c78>
    17ec:	490b3b0b 	stmdbmi	fp, {r0, r1, r3, r8, r9, fp, ip, sp}
    17f0:	00170213 	andseq	r0, r7, r3, lsl r2
    17f4:	00342500 	eorseq	r2, r4, r0, lsl #10
    17f8:	0b3a0e03 	bleq	e8500c <__bss_end__+0xe7a894>
    17fc:	13490b3b 	movtne	r0, #39739	; 0x9b3b
    1800:	00001702 	andeq	r1, r0, r2, lsl #14
    1804:	03003426 	movweq	r3, #1062	; 0x426
    1808:	3b0b3a08 	blcc	2d0030 <__bss_end__+0x2c58b8>
    180c:	0213490b 	andseq	r4, r3, #180224	; 0x2c000
    1810:	27000017 	smladcs	r0, r7, r0, r0
    1814:	01018289 	smlabbeq	r1, r9, r2, r8
    1818:	13310111 	teqne	r1, #1073741828	; 0x40000004
    181c:	8a280000 	bhi	a01824 <__bss_end__+0x9f70ac>
    1820:	02000182 	andeq	r0, r0, #-2147483616	; 0x80000020
    1824:	18429118 	stmdane	r2, {r3, r4, r8, ip, pc}^
    1828:	2e290000 	cdpcs	0, 2, cr0, cr9, cr0, {0}
    182c:	03193f01 	tsteq	r9, #1, 30
    1830:	3b0b3a0e 	blcc	2d0070 <__bss_end__+0x2c58f8>
    1834:	1119270b 	tstne	r9, fp, lsl #14
    1838:	40061201 	andmi	r1, r6, r1, lsl #4
    183c:	19429718 	stmdbne	r2, {r3, r4, r8, r9, sl, ip, pc}^
    1840:	00001301 	andeq	r1, r0, r1, lsl #6
    1844:	0182892a 	orreq	r8, r2, sl, lsr #18
    1848:	31011101 	tstcc	r1, r1, lsl #2
    184c:	00130113 	andseq	r0, r3, r3, lsl r1
    1850:	82892b00 	addhi	r2, r9, #0, 22
    1854:	01110001 	tsteq	r1, r1
    1858:	00001331 	andeq	r1, r0, r1, lsr r3
    185c:	0300052c 	movweq	r0, #1324	; 0x52c
    1860:	3b0b3a0e 	blcc	2d00a0 <__bss_end__+0x2c5928>
    1864:	0213490b 	andseq	r4, r3, #180224	; 0x2c000
    1868:	2d000017 	stccs	0, cr0, [r0, #-92]	; 0xffffffa4
    186c:	08030034 	stmdaeq	r3, {r2, r4, r5}
    1870:	0b3b0b3a 	bleq	ec4560 <__bss_end__+0xeb9de8>
    1874:	18021349 	stmdane	r2, {r0, r3, r6, r8, r9, ip}
    1878:	2e2e0000 	cdpcs	0, 2, cr0, cr14, cr0, {0}
    187c:	3c193f00 	ldccc	15, cr3, [r9], {-0}
    1880:	030e6e19 	movweq	r6, #60953	; 0xee19
    1884:	3b0b3a0e 	blcc	2d00c4 <__bss_end__+0x2c594c>
    1888:	0000000b 	andeq	r0, r0, fp

Disassembly of section .debug_loc:

00000000 <.debug_loc>:
       0:	00000000 	andeq	r0, r0, r0
       4:	0000000f 	andeq	r0, r0, pc
       8:	0f500001 	svceq	0x00500001
       c:	38000000 	stmdacc	r0, {}	; <UNPREDICTABLE>
      10:	01000000 	mrseq	r0, (UNDEF: 0)
      14:	00005400 	andeq	r5, r0, r0, lsl #8
      18:	00000000 	andeq	r0, r0, r0
      1c:	00380000 	eorseq	r0, r8, r0
      20:	00440000 	subeq	r0, r4, r0
      24:	00010000 	andeq	r0, r1, r0
      28:	00004450 	andeq	r4, r0, r0, asr r4
      2c:	0000e800 	andeq	lr, r0, r0, lsl #16
      30:	f3000400 	vshl.u8	d0, d0, d0
      34:	009f5001 	addseq	r5, pc, r1
      38:	00000000 	andeq	r0, r0, r0
      3c:	e8000000 	stmda	r0, {}	; <UNPREDICTABLE>
      40:	ec000000 	stc	0, cr0, [r0], {-0}
      44:	01000000 	mrseq	r0, (UNDEF: 0)
      48:	00ec5000 	rsceq	r5, ip, r0
      4c:	00f00000 	rscseq	r0, r0, r0
      50:	00040000 	andeq	r0, r4, r0
      54:	9f5001f3 	svcls	0x005001f3
	...
      60:	00000110 	andeq	r0, r0, r0, lsl r1
      64:	0000012b 	andeq	r0, r0, fp, lsr #2
      68:	2b500001 	blcs	1400074 <__bss_end__+0x13f58fc>
      6c:	4c000001 	stcmi	0, cr0, [r0], {1}
      70:	04000001 	streq	r0, [r0], #-1
      74:	5001f300 	andpl	pc, r1, r0, lsl #6
      78:	00014c9f 	muleq	r1, pc, ip	; <UNPREDICTABLE>
      7c:	00015f00 	andeq	r5, r1, r0, lsl #30
      80:	50000100 	andpl	r0, r0, r0, lsl #2
      84:	0000015f 	andeq	r0, r0, pc, asr r1
      88:	00000180 	andeq	r0, r0, r0, lsl #3
      8c:	01f30004 	mvnseq	r0, r4
      90:	01809f50 	orreq	r9, r0, r0, asr pc
      94:	01840000 	orreq	r0, r4, r0
      98:	00010000 	andeq	r0, r1, r0
      9c:	00018450 	andeq	r8, r1, r0, asr r4
      a0:	0001a800 	andeq	sl, r1, r0, lsl #16
      a4:	f3000400 	vshl.u8	d0, d0, d0
      a8:	009f5001 	addseq	r5, pc, r1
	...
      b4:	23000000 	movwcs	r0, #0
      b8:	01000000 	mrseq	r0, (UNDEF: 0)
      bc:	00235000 	eoreq	r5, r3, r0
      c0:	00440000 	subeq	r0, r4, r0
      c4:	00040000 	andeq	r0, r4, r0
      c8:	9f5001f3 	svcls	0x005001f3
      cc:	00000044 	andeq	r0, r0, r4, asr #32
      d0:	0000005f 	andeq	r0, r0, pc, asr r0
      d4:	5f500001 	svcpl	0x00500001
      d8:	80000000 	andhi	r0, r0, r0
      dc:	04000000 	streq	r0, [r0], #-0
      e0:	5001f300 	andpl	pc, r1, r0, lsl #6
      e4:	0000809f 	muleq	r0, pc, r0	; <UNPREDICTABLE>
      e8:	0000b000 	andeq	fp, r0, r0
      ec:	50000100 	andpl	r0, r0, r0, lsl #2
	...
      fc:	00000023 	andeq	r0, r0, r3, lsr #32
     100:	23510001 	cmpcs	r1, #1
     104:	44000000 	strmi	r0, [r0], #-0
     108:	04000000 	streq	r0, [r0], #-0
     10c:	5101f300 	mrspl	pc, SP_irq	; <UNPREDICTABLE>
     110:	0000449f 	muleq	r0, pc, r4	; <UNPREDICTABLE>
     114:	00005f00 	andeq	r5, r0, r0, lsl #30
     118:	51000100 	mrspl	r0, (UNDEF: 16)
     11c:	0000005f 	andeq	r0, r0, pc, asr r0
     120:	00000080 	andeq	r0, r0, r0, lsl #1
     124:	01f30004 	mvnseq	r0, r4
     128:	00809f51 	addeq	r9, r0, r1, asr pc
     12c:	00b00000 	adcseq	r0, r0, r0
     130:	00010000 	andeq	r0, r1, r0
     134:	00000051 	andeq	r0, r0, r1, asr r0
     138:	00000000 	andeq	r0, r0, r0
     13c:	00001000 	andeq	r1, r0, r0
     140:	00002300 	andeq	r2, r0, r0, lsl #6
     144:	53000100 	movwpl	r0, #256	; 0x100
     148:	00000044 	andeq	r0, r0, r4, asr #32
     14c:	00000048 	andeq	r0, r0, r8, asr #32
     150:	48530001 	ldmdami	r3, {r0}^
     154:	b0000000 	andlt	r0, r0, r0
     158:	04000000 	streq	r0, [r0], #-0
     15c:	01ff0a00 	mvnseq	r0, r0, lsl #20
     160:	0000009f 	muleq	r0, pc, r0	; <UNPREDICTABLE>
     164:	00000000 	andeq	r0, r0, r0
     168:	00004400 	andeq	r4, r0, r0, lsl #8
     16c:	00005f00 	andeq	r5, r0, r0, lsl #30
     170:	50000100 	andpl	r0, r0, r0, lsl #2
     174:	0000005f 	andeq	r0, r0, pc, asr r0
     178:	00000080 	andeq	r0, r0, r0, lsl #1
     17c:	01f30004 	mvnseq	r0, r4
     180:	00809f50 	addeq	r9, r0, r0, asr pc
     184:	00b00000 	adcseq	r0, r0, r0
     188:	00010000 	andeq	r0, r1, r0
     18c:	00000050 	andeq	r0, r0, r0, asr r0
     190:	00000000 	andeq	r0, r0, r0
     194:	00000c00 	andeq	r0, r0, r0, lsl #24
     198:	00001000 	andeq	r1, r0, r0
     19c:	53000100 	movwpl	r0, #256	; 0x100
	...
     1a8:	00000010 	andeq	r0, r0, r0, lsl r0
     1ac:	00000023 	andeq	r0, r0, r3, lsr #32
     1b0:	44530001 	ldrbmi	r0, [r3], #-1
     1b4:	4c000000 	stcmi	0, cr0, [r0], {-0}
     1b8:	01000000 	mrseq	r0, (UNDEF: 0)
     1bc:	00005300 	andeq	r5, r0, r0, lsl #6
     1c0:	00000000 	andeq	r0, r0, r0
     1c4:	00180000 	andseq	r0, r8, r0
     1c8:	00230000 	eoreq	r0, r3, r0
     1cc:	00010000 	andeq	r0, r1, r0
     1d0:	00004452 	andeq	r4, r0, r2, asr r4
     1d4:	00005400 	andeq	r5, r0, r0, lsl #8
     1d8:	52000100 	andpl	r0, r0, #0, 2
	...
     1e4:	00000054 	andeq	r0, r0, r4, asr r0
     1e8:	0000005f 	andeq	r0, r0, pc, asr r0
     1ec:	80520001 	subshi	r0, r2, r1
     1f0:	b0000000 	andlt	r0, r0, r0
     1f4:	01000000 	mrseq	r0, (UNDEF: 0)
     1f8:	00005200 	andeq	r5, r0, r0, lsl #4
     1fc:	00000000 	andeq	r0, r0, r0
     200:	00b00000 	adcseq	r0, r0, r0
     204:	00d30000 	sbcseq	r0, r3, r0
     208:	00010000 	andeq	r0, r1, r0
     20c:	0000d350 	andeq	sp, r0, r0, asr r3
     210:	0000ec00 	andeq	lr, r0, r0, lsl #24
     214:	f3000400 	vshl.u8	d0, d0, d0
     218:	ec9f5001 	ldc	0, cr5, [pc], {1}
     21c:	ff000000 			; <UNDEFINED> instruction: 0xff000000
     220:	01000000 	mrseq	r0, (UNDEF: 0)
     224:	00ff5000 	rscseq	r5, pc, r0
     228:	01200000 	teqeq	r0, r0
     22c:	00040000 	andeq	r0, r4, r0
     230:	9f5001f3 	svcls	0x005001f3
     234:	00000120 	andeq	r0, r0, r0, lsr #2
     238:	00000133 	andeq	r0, r0, r3, lsr r1
     23c:	33500001 	cmpcc	r0, #1
     240:	54000001 	strpl	r0, [r0], #-1
     244:	04000001 	streq	r0, [r0], #-1
     248:	5001f300 	andpl	pc, r1, r0, lsl #6
     24c:	0001549f 	muleq	r1, pc, r4	; <UNPREDICTABLE>
     250:	00015c00 	andeq	r5, r1, r0, lsl #24
     254:	50000100 	andpl	r0, r0, r0, lsl #2
     258:	0000015c 	andeq	r0, r0, ip, asr r1
     25c:	0000015f 	andeq	r0, r0, pc, asr r1
     260:	5f510001 	svcpl	0x00510001
     264:	8c000001 	stchi	0, cr0, [r0], {1}
     268:	04000001 	streq	r0, [r0], #-1
     26c:	5001f300 	andpl	pc, r1, r0, lsl #6
     270:	0000009f 	muleq	r0, pc, r0	; <UNPREDICTABLE>
     274:	00000000 	andeq	r0, r0, r0
     278:	0000c400 	andeq	ip, r0, r0, lsl #8
     27c:	0000c800 	andeq	ip, r0, r0, lsl #16
     280:	53000100 	movwpl	r0, #256	; 0x100
	...
     28c:	000000f0 	strdeq	r0, [r0], -r0	; <UNPREDICTABLE>
     290:	000000f4 	strdeq	r0, [r0], -r4
     294:	f4530001 			; <UNDEFINED> instruction: 0xf4530001
     298:	ff000000 			; <UNDEFINED> instruction: 0xff000000
     29c:	03000000 	movweq	r0, #0
     2a0:	9f047300 	svcls	0x00047300
     2a4:	00000120 	andeq	r0, r0, r0, lsr #2
     2a8:	00000124 	andeq	r0, r0, r4, lsr #2
     2ac:	04730003 	ldrbteq	r0, [r3], #-3
     2b0:	0000009f 	muleq	r0, pc, r0	; <UNPREDICTABLE>
     2b4:	00000000 	andeq	r0, r0, r0
     2b8:	0001d000 	andeq	sp, r1, r0
     2bc:	0001d800 	andeq	sp, r1, r0, lsl #16
     2c0:	53000100 	movwpl	r0, #256	; 0x100
     2c4:	000001d8 	ldrdeq	r0, [r0], -r8
     2c8:	000001fc 	strdeq	r0, [r0], -ip
     2cc:	e70a0004 	str	r0, [sl, -r4]
     2d0:	00009f01 	andeq	r9, r0, r1, lsl #30
     2d4:	00000000 	andeq	r0, r0, r0
     2d8:	01cc0000 	biceq	r0, ip, r0
     2dc:	01d00000 	bicseq	r0, r0, r0
     2e0:	00010000 	andeq	r0, r1, r0
     2e4:	00000053 	andeq	r0, r0, r3, asr r0
     2e8:	00000000 	andeq	r0, r0, r0
     2ec:	0001d000 	andeq	sp, r1, r0
     2f0:	0001dc00 	andeq	sp, r1, r0, lsl #24
     2f4:	53000100 	movwpl	r0, #256	; 0x100
	...
     300:	000001fc 	strdeq	r0, [r0], -ip
     304:	0000021b 	andeq	r0, r0, fp, lsl r2
     308:	1b500001 	blne	1400314 <__bss_end__+0x13f5b9c>
     30c:	34000002 	strcc	r0, [r0], #-2
     310:	04000002 	streq	r0, [r0], #-2
     314:	5001f300 	andpl	pc, r1, r0, lsl #6
     318:	0002349f 	muleq	r2, pc, r4	; <UNPREDICTABLE>
     31c:	00024700 	andeq	r4, r2, r0, lsl #14
     320:	50000100 	andpl	r0, r0, r0, lsl #2
     324:	00000247 	andeq	r0, r0, r7, asr #4
     328:	00000268 	andeq	r0, r0, r8, ror #4
     32c:	01f30004 	mvnseq	r0, r4
     330:	02689f50 	rsbeq	r9, r8, #80, 30	; 0x140
     334:	02700000 	rsbseq	r0, r0, #0
     338:	00010000 	andeq	r0, r1, r0
     33c:	00027050 	andeq	r7, r2, r0, asr r0
     340:	00027300 	andeq	r7, r2, r0, lsl #6
     344:	51000100 	mrspl	r0, (UNDEF: 16)
     348:	00000273 	andeq	r0, r0, r3, ror r2
     34c:	00000294 	muleq	r0, r4, r2
     350:	01f30004 	mvnseq	r0, r4
     354:	00009f50 	andeq	r9, r0, r0, asr pc
     358:	00000000 	andeq	r0, r0, r0
     35c:	020c0000 	andeq	r0, ip, #0
     360:	02100000 	andseq	r0, r0, #0
     364:	00010000 	andeq	r0, r1, r0
     368:	00000053 	andeq	r0, r0, r3, asr r0
     36c:	00000000 	andeq	r0, r0, r0
     370:	0002cc00 	andeq	ip, r2, r0, lsl #24
     374:	0002d400 	andeq	sp, r2, r0, lsl #8
     378:	53000100 	movwpl	r0, #256	; 0x100
     37c:	000002d4 	ldrdeq	r0, [r0], -r4
     380:	000002f8 	strdeq	r0, [r0], -r8
     384:	e70c0006 	str	r0, [ip, -r6]
     388:	9f004001 	svcls	0x00004001
	...
     394:	000002c8 	andeq	r0, r0, r8, asr #5
     398:	000002cc 	andeq	r0, r0, ip, asr #5
     39c:	00530001 	subseq	r0, r3, r1
     3a0:	00000000 	andeq	r0, r0, r0
     3a4:	cc000000 	stcgt	0, cr0, [r0], {-0}
     3a8:	d8000002 	stmdale	r0, {r1}
     3ac:	01000002 	tsteq	r0, r2
     3b0:	00005300 	andeq	r5, r0, r0, lsl #6
     3b4:	00000000 	andeq	r0, r0, r0
     3b8:	03080000 	movweq	r0, #32768	; 0x8000
     3bc:	03240000 	teqeq	r4, #0
     3c0:	00010000 	andeq	r0, r1, r0
     3c4:	00032450 	andeq	r2, r3, r0, asr r4
     3c8:	00032800 	andeq	r2, r3, r0, lsl #16
     3cc:	f3000400 	vshl.u8	d0, d0, d0
     3d0:	289f5001 	ldmcs	pc, {r0, ip, lr}	; <UNPREDICTABLE>
     3d4:	40000003 	andmi	r0, r0, r3
     3d8:	01000003 	tsteq	r0, r3
     3dc:	03405000 	movteq	r5, #0
     3e0:	03480000 	movteq	r0, #32768	; 0x8000
     3e4:	00040000 	andeq	r0, r4, r0
     3e8:	9f5001f3 	svcls	0x005001f3
     3ec:	00000348 	andeq	r0, r0, r8, asr #6
     3f0:	00000354 	andeq	r0, r0, r4, asr r3
     3f4:	54500001 	ldrbpl	r0, [r0], #-1
     3f8:	64000003 	strvs	r0, [r0], #-3
     3fc:	04000003 	streq	r0, [r0], #-3
     400:	5001f300 	andpl	pc, r1, r0, lsl #6
     404:	0003649f 	muleq	r3, pc, r4	; <UNPREDICTABLE>
     408:	00036800 	andeq	r6, r3, r0, lsl #16
     40c:	50000100 	andpl	r0, r0, r0, lsl #2
     410:	00000368 	andeq	r0, r0, r8, ror #6
     414:	0000036c 	andeq	r0, r0, ip, ror #6
     418:	01f30004 	mvnseq	r0, r4
     41c:	036c9f50 	cmneq	ip, #80, 30	; 0x140
     420:	03700000 	cmneq	r0, #0
     424:	00010000 	andeq	r0, r1, r0
     428:	00037050 	andeq	r7, r3, r0, asr r0
     42c:	00037800 	andeq	r7, r3, r0, lsl #16
     430:	f3000400 	vshl.u8	d0, d0, d0
     434:	009f5001 	addseq	r5, pc, r1
     438:	00000000 	andeq	r0, r0, r0
     43c:	08000000 	stmdaeq	r0, {}	; <UNPREDICTABLE>
     440:	58000003 	stmdapl	r0, {r0, r1}
     444:	01000003 	tsteq	r0, r3
     448:	03585100 	cmpeq	r8, #0, 2
     44c:	03640000 	cmneq	r4, #0
     450:	00040000 	andeq	r0, r4, r0
     454:	9f5101f3 	svcls	0x005101f3
     458:	00000364 	andeq	r0, r0, r4, ror #6
     45c:	00000378 	andeq	r0, r0, r8, ror r3
     460:	00510001 	subseq	r0, r1, r1
     464:	00000000 	andeq	r0, r0, r0
     468:	14000000 	strne	r0, [r0], #-0
     46c:	34000003 	strcc	r0, [r0], #-3
     470:	01000003 	tsteq	r0, r3
     474:	03345300 	teqeq	r4, #0, 6
     478:	03400000 	movteq	r0, #0
     47c:	000a0000 	andeq	r0, sl, r0
     480:	0c060070 	stceq	0, cr0, [r6], {112}	; 0x70
     484:	00ffffff 	ldrshteq	pc, [pc], #255	; <UNPREDICTABLE>
     488:	03409f1a 	movteq	r9, #3866	; 0xf1a
     48c:	03440000 	movteq	r0, #16384	; 0x4000
     490:	000b0000 	andeq	r0, fp, r0
     494:	065001f3 			; <UNDEFINED> instruction: 0x065001f3
     498:	ffffff0c 			; <UNDEFINED> instruction: 0xffffff0c
     49c:	489f1a00 	ldmmi	pc, {r9, fp, ip}	; <UNPREDICTABLE>
     4a0:	5b000003 	blpl	4b4 <__code_start__-0x7b4c>
     4a4:	01000003 	tsteq	r0, r3
     4a8:	03645300 	cmneq	r4, #0, 6
     4ac:	03680000 	cmneq	r8, #0
     4b0:	000a0000 	andeq	r0, sl, r0
     4b4:	0c060070 	stceq	0, cr0, [r6], {112}	; 0x70
     4b8:	00ffffff 	ldrshteq	pc, [pc], #255	; <UNPREDICTABLE>
     4bc:	03689f1a 	cmneq	r8, #26, 30	; 0x68
     4c0:	036c0000 	cmneq	ip, #0
     4c4:	000b0000 	andeq	r0, fp, r0
     4c8:	065001f3 			; <UNDEFINED> instruction: 0x065001f3
     4cc:	ffffff0c 			; <UNDEFINED> instruction: 0xffffff0c
     4d0:	6c9f1a00 	vldmiavs	pc, {s2-s1}
     4d4:	78000003 	stmdavc	r0, {r0, r1}
     4d8:	01000003 	tsteq	r0, r3
     4dc:	00005300 	andeq	r5, r0, r0, lsl #6
	...
     4e8:	00240000 	eoreq	r0, r4, r0
     4ec:	00010000 	andeq	r0, r1, r0
     4f0:	00002450 	andeq	r2, r0, r0, asr r4
     4f4:	0001ac00 	andeq	sl, r1, r0, lsl #24
     4f8:	f3000400 	vshl.u8	d0, d0, d0
     4fc:	009f5001 	addseq	r5, pc, r1
	...
     508:	28000000 	stmdacs	r0, {}	; <UNPREDICTABLE>
     50c:	01000000 	mrseq	r0, (UNDEF: 0)
     510:	00285100 	eoreq	r5, r8, r0, lsl #2
     514:	01780000 	cmneq	r8, r0
     518:	00010000 	andeq	r0, r1, r0
     51c:	00017855 	andeq	r7, r1, r5, asr r8
     520:	0001ac00 	andeq	sl, r1, r0, lsl #24
     524:	f3000400 	vshl.u8	d0, d0, d0
     528:	009f5101 	addseq	r5, pc, r1, lsl #2
	...
     534:	2c000000 	stccs	0, cr0, [r0], {-0}
     538:	01000000 	mrseq	r0, (UNDEF: 0)
     53c:	002c5200 	eoreq	r5, ip, r0, lsl #4
     540:	01ac0000 			; <UNDEFINED> instruction: 0x01ac0000
     544:	00040000 	andeq	r0, r4, r0
     548:	9f5201f3 	svcls	0x005201f3
	...
     554:	00000068 	andeq	r0, r0, r8, rrx
     558:	00000178 	andeq	r0, r0, r8, ror r1
     55c:	00540001 	subseq	r0, r4, r1
     560:	00000000 	andeq	r0, r0, r0
     564:	38000000 	stmdacc	r0, {}	; <UNPREDICTABLE>
     568:	3c000000 	stccc	0, cr0, [r0], {-0}
     56c:	01000000 	mrseq	r0, (UNDEF: 0)
     570:	00005300 	andeq	r5, r0, r0, lsl #6
     574:	00000000 	andeq	r0, r0, r0
     578:	01ac0000 			; <UNDEFINED> instruction: 0x01ac0000
     57c:	01e80000 	mvneq	r0, r0
     580:	00010000 	andeq	r0, r1, r0
     584:	0001e850 	andeq	lr, r1, r0, asr r8
     588:	00062c00 	andeq	r2, r6, r0, lsl #24
     58c:	54000100 	strpl	r0, [r0], #-256	; 0x100
     590:	0000062c 	andeq	r0, r0, ip, lsr #12
     594:	0000068c 	andeq	r0, r0, ip, lsl #13
     598:	01f30004 	mvnseq	r0, r4
     59c:	00009f50 	andeq	r9, r0, r0, asr pc
     5a0:	00000000 	andeq	r0, r0, r0
     5a4:	01bc0000 			; <UNDEFINED> instruction: 0x01bc0000
     5a8:	05080000 	streq	r0, [r8, #-0]
     5ac:	00010000 	andeq	r0, r1, r0
     5b0:	00000058 	andeq	r0, r0, r8, asr r0
     5b4:	00000000 	andeq	r0, r0, r0
     5b8:	0002c000 	andeq	ip, r2, r0
     5bc:	00050800 	andeq	r0, r5, r0, lsl #16
     5c0:	58000100 	stmdapl	r0, {r8}
	...
     5cc:	000003e0 	andeq	r0, r0, r0, ror #7
     5d0:	0000062c 	andeq	r0, r0, ip, lsr #12
     5d4:	00550001 	subseq	r0, r5, r1
     5d8:	00000000 	andeq	r0, r0, r0
     5dc:	04000000 	streq	r0, [r0], #-0
     5e0:	08000005 	stmdaeq	r0, {r0, r2}
     5e4:	01000005 	tsteq	r0, r5
     5e8:	00005800 	andeq	r5, r0, r0, lsl #16
     5ec:	00000000 	andeq	r0, r0, r0
     5f0:	05740000 	ldrbeq	r0, [r4, #-0]!
     5f4:	05780000 	ldrbeq	r0, [r8, #-0]!
     5f8:	00010000 	andeq	r0, r1, r0
     5fc:	00000053 	andeq	r0, r0, r3, asr r0
     600:	00000000 	andeq	r0, r0, r0
     604:	00068c00 	andeq	r8, r6, r0, lsl #24
     608:	00069c00 	andeq	r9, r6, r0, lsl #24
     60c:	50000100 	andpl	r0, r0, r0, lsl #2
     610:	0000069c 	muleq	r0, ip, r6
     614:	00000710 	andeq	r0, r0, r0, lsl r7
     618:	00540001 	subseq	r0, r4, r1
     61c:	00000000 	andeq	r0, r0, r0
     620:	94000000 	strls	r0, [r0], #-0
     624:	9c000006 	stcls	0, cr0, [r0], {6}
     628:	02000006 	andeq	r0, r0, #6
     62c:	9c9f3000 	ldcls	0, cr3, [pc], {0}
     630:	10000006 	andne	r0, r0, r6
     634:	01000007 	tsteq	r0, r7
     638:	00005500 	andeq	r5, r0, r0, lsl #10
     63c:	00000000 	andeq	r0, r0, r0
     640:	07380000 	ldreq	r0, [r8, -r0]!
     644:	07430000 	strbeq	r0, [r3, -r0]
     648:	00010000 	andeq	r0, r1, r0
     64c:	00074350 	andeq	r4, r7, r0, asr r3
     650:	00078400 	andeq	r8, r7, r0, lsl #8
     654:	54000100 	strpl	r0, [r0], #-256	; 0x100
	...
     660:	0000002c 	andeq	r0, r0, ip, lsr #32
     664:	00000038 	andeq	r0, r0, r8, lsr r0
     668:	38500001 	ldmdacc	r0, {r0}^
     66c:	48000000 	stmdami	r0, {}	; <UNPREDICTABLE>
     670:	01000000 	mrseq	r0, (UNDEF: 0)
     674:	00485500 	subeq	r5, r8, r0, lsl #10
     678:	00580000 	subseq	r0, r8, r0
     67c:	00010000 	andeq	r0, r1, r0
     680:	00000050 	andeq	r0, r0, r0, asr r0
	...
     68c:	00000b00 	andeq	r0, r0, r0, lsl #22
     690:	50000100 	andpl	r0, r0, r0, lsl #2
     694:	0000000b 	andeq	r0, r0, fp
     698:	00000014 	andeq	r0, r0, r4, lsl r0
     69c:	00540001 	subseq	r0, r4, r1
	...
     6a8:	10000000 	andne	r0, r0, r0
     6ac:	01000000 	mrseq	r0, (UNDEF: 0)
     6b0:	00105000 	andseq	r5, r0, r0
     6b4:	00340000 	eorseq	r0, r4, r0
     6b8:	00010000 	andeq	r0, r1, r0
     6bc:	00000054 	andeq	r0, r0, r4, asr r0
	...
     6c8:	00000400 	andeq	r0, r0, r0, lsl #8
     6cc:	50000100 	andpl	r0, r0, r0, lsl #2
     6d0:	00000004 	andeq	r0, r0, r4
     6d4:	0000000c 	andeq	r0, r0, ip
     6d8:	30700003 	rsbscc	r0, r0, r3
     6dc:	00000c9f 	muleq	r0, pc, ip	; <UNPREDICTABLE>
     6e0:	00001400 	andeq	r1, r0, r0, lsl #8
     6e4:	f3000400 	vshl.u8	d0, d0, d0
     6e8:	009f5001 	addseq	r5, pc, r1
     6ec:	00000000 	andeq	r0, r0, r0
     6f0:	14000000 	strne	r0, [r0], #-0
     6f4:	20000000 	andcs	r0, r0, r0
     6f8:	01000000 	mrseq	r0, (UNDEF: 0)
     6fc:	00205000 	eoreq	r5, r0, r0
     700:	002c0000 	eoreq	r0, ip, r0
     704:	00030000 	andeq	r0, r3, r0
     708:	2c9f0170 	ldfcss	f0, [pc], {112}	; 0x70
     70c:	40000000 	andmi	r0, r0, r0
     710:	01000000 	mrseq	r0, (UNDEF: 0)
     714:	00005000 	andeq	r5, r0, r0
     718:	00000000 	andeq	r0, r0, r0
     71c:	00140000 	andseq	r0, r4, r0
     720:	00180000 	andseq	r0, r8, r0
     724:	00010000 	andeq	r0, r1, r0
     728:	00001851 	andeq	r1, r0, r1, asr r8
     72c:	00004000 	andeq	r4, r0, r0
     730:	f3000400 	vshl.u8	d0, d0, d0
     734:	009f5101 	addseq	r5, pc, r1, lsl #2
     738:	00000000 	andeq	r0, r0, r0
     73c:	40000000 	andmi	r0, r0, r0
     740:	60000000 	andvs	r0, r0, r0
     744:	01000000 	mrseq	r0, (UNDEF: 0)
     748:	00605000 	rsbeq	r5, r0, r0
     74c:	006c0000 	rsbeq	r0, ip, r0
     750:	00030000 	andeq	r0, r3, r0
     754:	6c9f0171 	ldfvss	f0, [pc], {113}	; 0x71
     758:	74000000 	strvc	r0, [r0], #-0
     75c:	01000000 	mrseq	r0, (UNDEF: 0)
     760:	00745100 	rsbseq	r5, r4, r0, lsl #2
     764:	00800000 	addeq	r0, r0, r0
     768:	00030000 	andeq	r0, r3, r0
     76c:	009f0171 	addseq	r0, pc, r1, ror r1	; <UNPREDICTABLE>
     770:	00000000 	andeq	r0, r0, r0
     774:	40000000 	andmi	r0, r0, r0
     778:	50000000 	andpl	r0, r0, r0
     77c:	01000000 	mrseq	r0, (UNDEF: 0)
     780:	00505100 	subseq	r5, r0, r0, lsl #2
     784:	00800000 	addeq	r0, r0, r0
     788:	00040000 	andeq	r0, r4, r0
     78c:	9f5101f3 	svcls	0x005101f3
	...
     798:	00000040 	andeq	r0, r0, r0, asr #32
     79c:	00000058 	andeq	r0, r0, r8, asr r0
     7a0:	58520001 	ldmdapl	r2, {r0}^
     7a4:	64000000 	strvs	r0, [r0], #-0
     7a8:	01000000 	mrseq	r0, (UNDEF: 0)
     7ac:	00645200 	rsbeq	r5, r4, r0, lsl #4
     7b0:	00680000 	rsbeq	r0, r8, r0
     7b4:	00030000 	andeq	r0, r3, r0
     7b8:	689f0172 	ldmvs	pc, {r1, r4, r5, r6, r8}	; <UNPREDICTABLE>
     7bc:	80000000 	andhi	r0, r0, r0
     7c0:	01000000 	mrseq	r0, (UNDEF: 0)
     7c4:	00005200 	andeq	r5, r0, r0, lsl #4
     7c8:	00000000 	andeq	r0, r0, r0
     7cc:	00400000 	subeq	r0, r0, r0
     7d0:	00540000 	subseq	r0, r4, r0
     7d4:	00010000 	andeq	r0, r1, r0
     7d8:	00005453 	andeq	r5, r0, r3, asr r4
     7dc:	00007800 	andeq	r7, r0, r0, lsl #16
     7e0:	53000100 	movwpl	r0, #256	; 0x100
	...
     7ec:	00000048 	andeq	r0, r0, r8, asr #32
     7f0:	00000060 	andeq	r0, r0, r0, rrx
     7f4:	605c0001 	subsvs	r0, ip, r1
     7f8:	80000000 	andhi	r0, r0, r0
     7fc:	0a000000 	beq	804 <__code_start__-0x77fc>
     800:	5201f300 	andpl	pc, r1, #0, 6
     804:	1c5301f3 	ldfnee	f0, [r3], {243}	; 0xf3
     808:	009f0123 	addseq	r0, pc, r3, lsr #2
     80c:	00000000 	andeq	r0, r0, r0
     810:	80000000 	andhi	r0, r0, r0
     814:	a4000000 	strge	r0, [r0], #-0
     818:	01000000 	mrseq	r0, (UNDEF: 0)
     81c:	00a45000 	adceq	r5, r4, r0
     820:	01180000 	tsteq	r8, r0
     824:	00030000 	andeq	r0, r3, r0
     828:	189f0270 	ldmne	pc, {r4, r5, r6, r9}	; <UNPREDICTABLE>
     82c:	3c000001 	stccc	0, cr0, [r0], {1}
     830:	04000002 	streq	r0, [r0], #-2
     834:	5001f300 	andpl	pc, r1, r0, lsl #6
     838:	0000009f 	muleq	r0, pc, r0	; <UNPREDICTABLE>
     83c:	00000000 	andeq	r0, r0, r0
     840:	00008000 	andeq	r8, r0, r0
     844:	0000f000 	andeq	pc, r0, r0
     848:	51000100 	mrspl	r0, (UNDEF: 16)
     84c:	000000f0 	strdeq	r0, [r0], -r0	; <UNPREDICTABLE>
     850:	00000160 	andeq	r0, r0, r0, ror #2
     854:	60550001 	subsvs	r0, r5, r1
     858:	6c000001 	stcvs	0, cr0, [r0], {1}
     85c:	01000001 	tsteq	r0, r1
     860:	016c5100 	cmneq	ip, r0, lsl #2
     864:	01a00000 	moveq	r0, r0
     868:	00010000 	andeq	r0, r1, r0
     86c:	0001a055 	andeq	sl, r1, r5, asr r0
     870:	0001b400 	andeq	fp, r1, r0, lsl #8
     874:	51000100 	mrspl	r0, (UNDEF: 16)
     878:	000001b4 			; <UNDEFINED> instruction: 0x000001b4
     87c:	000001d4 	ldrdeq	r0, [r0], -r4
     880:	d4550001 	ldrble	r0, [r5], #-1
     884:	d7000001 	strle	r0, [r0, -r1]
     888:	01000001 	tsteq	r0, r1
     88c:	01d75100 	bicseq	r5, r7, r0, lsl #2
     890:	021c0000 	andseq	r0, ip, #0
     894:	00010000 	andeq	r0, r1, r0
     898:	00021c55 	andeq	r1, r2, r5, asr ip
     89c:	00023c00 	andeq	r3, r2, r0, lsl #24
     8a0:	f3000400 	vshl.u8	d0, d0, d0
     8a4:	009f5101 	addseq	r5, pc, r1, lsl #2
     8a8:	00000000 	andeq	r0, r0, r0
     8ac:	80000000 	andhi	r0, r0, r0
     8b0:	94000000 	strls	r0, [r0], #-0
     8b4:	01000000 	mrseq	r0, (UNDEF: 0)
     8b8:	00945200 	addseq	r5, r4, r0, lsl #4
     8bc:	021c0000 	andseq	r0, ip, #0
     8c0:	00010000 	andeq	r0, r1, r0
     8c4:	00021c54 	andeq	r1, r2, r4, asr ip
     8c8:	00023c00 	andeq	r3, r2, r0, lsl #24
     8cc:	f3000400 	vshl.u8	d0, d0, d0
     8d0:	009f5201 	addseq	r5, pc, r1, lsl #4
     8d4:	00000000 	andeq	r0, r0, r0
     8d8:	80000000 	andhi	r0, r0, r0
     8dc:	00000000 	andeq	r0, r0, r0
     8e0:	01000001 	tsteq	r0, r1
     8e4:	01045300 	mrseq	r5, LR_abt
     8e8:	01080000 	mrseq	r0, (UNDEF: 8)
     8ec:	00010000 	andeq	r0, r1, r0
     8f0:	00016053 	andeq	r6, r1, r3, asr r0
     8f4:	00016400 	andeq	r6, r1, r0, lsl #8
     8f8:	53000100 	movwpl	r0, #256	; 0x100
     8fc:	00000164 	andeq	r0, r0, r4, ror #2
     900:	0000016c 	andeq	r0, r0, ip, ror #2
     904:	6c5c0001 	mrrcvs	0, 0, r0, ip, cr1
     908:	a0000001 	andge	r0, r0, r1
     90c:	04000001 	streq	r0, [r0], #-1
     910:	5301f300 	movwpl	pc, #4864	; 0x1300	; <UNPREDICTABLE>
     914:	0001a09f 	muleq	r1, pc, r0	; <UNPREDICTABLE>
     918:	0001b000 	andeq	fp, r1, r0
     91c:	53000100 	movwpl	r0, #256	; 0x100
     920:	000001b0 			; <UNDEFINED> instruction: 0x000001b0
     924:	000001b4 			; <UNDEFINED> instruction: 0x000001b4
     928:	b45c0001 	ldrblt	r0, [ip], #-1
     92c:	d4000001 	strle	r0, [r0], #-1
     930:	04000001 	streq	r0, [r0], #-1
     934:	5301f300 	movwpl	pc, #4864	; 0x1300	; <UNPREDICTABLE>
     938:	0001d49f 	muleq	r1, pc, r4	; <UNPREDICTABLE>
     93c:	0001d700 	andeq	sp, r1, r0, lsl #14
     940:	53000100 	movwpl	r0, #256	; 0x100
     944:	000001d7 	ldrdeq	r0, [r0], -r7
     948:	000001f8 	strdeq	r0, [r0], -r8
     94c:	01f30004 	mvnseq	r0, r4
     950:	00009f53 	andeq	r9, r0, r3, asr pc
     954:	00000000 	andeq	r0, r0, r0
     958:	00800000 	addeq	r0, r0, r0
     95c:	009c0000 	addseq	r0, ip, r0
     960:	00020000 	andeq	r0, r2, r0
     964:	009c0091 	umullseq	r0, ip, r1, r0
     968:	01d70000 	bicseq	r0, r7, r0
     96c:	00010000 	andeq	r0, r1, r0
     970:	0001f852 	andeq	pc, r1, r2, asr r8	; <UNPREDICTABLE>
     974:	0001ff00 	andeq	pc, r1, r0, lsl #30
     978:	52000100 	andpl	r0, r0, #0, 2
	...
     984:	0000009c 	muleq	r0, ip, r0
     988:	0000010c 	andeq	r0, r0, ip, lsl #2
     98c:	a0910004 	addsge	r0, r1, r4
     990:	010c9f7f 	tsteq	ip, pc, ror pc
     994:	01180000 	tsteq	r8, r0
     998:	00010000 	andeq	r0, r1, r0
     99c:	00011851 	andeq	r1, r1, r1, asr r8
     9a0:	00011c00 	andeq	r1, r1, r0, lsl #24
     9a4:	50000100 	andpl	r0, r0, r0, lsl #2
     9a8:	0000011c 	andeq	r0, r0, ip, lsl r1
     9ac:	00000120 	andeq	r0, r0, r0, lsr #2
     9b0:	20510001 	subscs	r0, r1, r1
     9b4:	60000001 	andvs	r0, r0, r1
     9b8:	01000001 	tsteq	r0, r1
     9bc:	01605000 	cmneq	r0, r0
     9c0:	01640000 	cmneq	r4, r0
     9c4:	00040000 	andeq	r0, r4, r0
     9c8:	9f7fa091 	svcls	0x007fa091
     9cc:	00000164 	andeq	r0, r0, r4, ror #2
     9d0:	0000016c 	andeq	r0, r0, ip, ror #2
     9d4:	6c530001 	mrrcvs	0, 0, r0, r3, cr1
     9d8:	70000001 	andvc	r0, r0, r1
     9dc:	01000001 	tsteq	r0, r1
     9e0:	01705000 	cmneq	r0, r0
     9e4:	01740000 	cmneq	r4, r0
     9e8:	00010000 	andeq	r0, r1, r0
     9ec:	00017453 	andeq	r7, r1, r3, asr r4
     9f0:	00018800 	andeq	r8, r1, r0, lsl #16
     9f4:	50000100 	andpl	r0, r0, r0, lsl #2
     9f8:	00000188 	andeq	r0, r0, r8, lsl #3
     9fc:	00000194 	muleq	r0, r4, r1
     a00:	01700003 	cmneq	r0, r3
     a04:	0001949f 	muleq	r1, pc, r4	; <UNPREDICTABLE>
     a08:	0001a000 	andeq	sl, r1, r0
     a0c:	50000100 	andpl	r0, r0, r0, lsl #2
     a10:	000001a0 	andeq	r0, r0, r0, lsr #3
     a14:	000001a8 	andeq	r0, r0, r8, lsr #3
     a18:	a1910004 	orrsge	r0, r1, r4
     a1c:	01a89f7f 			; <UNDEFINED> instruction: 0x01a89f7f
     a20:	01ac0000 			; <UNDEFINED> instruction: 0x01ac0000
     a24:	00010000 	andeq	r0, r1, r0
     a28:	0001ac50 	andeq	sl, r1, r0, asr ip
     a2c:	0001b000 	andeq	fp, r1, r0
     a30:	91000400 	tstls	r0, r0, lsl #8
     a34:	b09f7fa0 	addslt	r7, pc, r0, lsr #31
     a38:	b8000001 	stmdalt	r0, {r0}
     a3c:	01000001 	tsteq	r0, r1
     a40:	01b85300 			; <UNDEFINED> instruction: 0x01b85300
     a44:	01d40000 	bicseq	r0, r4, r0
     a48:	00010000 	andeq	r0, r1, r0
     a4c:	0001d450 	andeq	sp, r1, r0, asr r4
     a50:	0001f800 	andeq	pc, r1, r0, lsl #16
     a54:	91000400 	tstls	r0, r0, lsl #8
     a58:	f89f7fa0 			; <UNDEFINED> instruction: 0xf89f7fa0
     a5c:	ff000001 			; <UNDEFINED> instruction: 0xff000001
     a60:	01000001 	tsteq	r0, r1
     a64:	00005000 	andeq	r5, r0, r0
     a68:	00000000 	andeq	r0, r0, r0
     a6c:	00a00000 	adceq	r0, r0, r0
     a70:	00ec0000 	rsceq	r0, ip, r0
     a74:	00010000 	andeq	r0, r1, r0
     a78:	0000ec5c 	andeq	lr, r0, ip, asr ip
     a7c:	00010000 	andeq	r0, r1, r0
     a80:	53000100 	movwpl	r0, #256	; 0x100
     a84:	00000100 	andeq	r0, r0, r0, lsl #2
     a88:	00000104 	andeq	r0, r0, r4, lsl #2
     a8c:	045c0001 	ldrbeq	r0, [ip], #-1
     a90:	08000001 	stmdaeq	r0, {r0}
     a94:	01000001 	tsteq	r0, r1
     a98:	01085300 	mrseq	r5, (UNDEF: 56)
     a9c:	01600000 	cmneq	r0, r0
     aa0:	00010000 	andeq	r0, r1, r0
     aa4:	0001605c 	andeq	r6, r1, ip, asr r0
     aa8:	00016400 	andeq	r6, r1, r0, lsl #8
     aac:	53000100 	movwpl	r0, #256	; 0x100
     ab0:	00000164 	andeq	r0, r0, r4, ror #2
     ab4:	00000180 	andeq	r0, r0, r0, lsl #3
     ab8:	805c0001 	subshi	r0, ip, r1
     abc:	84000001 	strhi	r0, [r0], #-1
     ac0:	05000001 	streq	r0, [r0, #-1]
     ac4:	34007c00 	strcc	r7, [r0], #-3072	; 0xc00
     ac8:	01849f25 	orreq	r9, r4, r5, lsr #30
     acc:	01a00000 	moveq	r0, r0
     ad0:	00010000 	andeq	r0, r1, r0
     ad4:	0001a05c 	andeq	sl, r1, ip, asr r0
     ad8:	0001b000 	andeq	fp, r1, r0
     adc:	53000100 	movwpl	r0, #256	; 0x100
     ae0:	000001b0 			; <UNDEFINED> instruction: 0x000001b0
     ae4:	000001c4 	andeq	r0, r0, r4, asr #3
     ae8:	c45c0001 	ldrbgt	r0, [ip], #-1
     aec:	cc000001 	stcgt	0, cr0, [r0], {1}
     af0:	05000001 	streq	r0, [r0, #-1]
     af4:	31007c00 	tstcc	r0, r0, lsl #24
     af8:	01cc9f25 	biceq	r9, ip, r5, lsr #30
     afc:	01d40000 	bicseq	r0, r4, r0
     b00:	00010000 	andeq	r0, r1, r0
     b04:	0001d45c 	andeq	sp, r1, ip, asr r4
     b08:	0001d700 	andeq	sp, r1, r0, lsl #14
     b0c:	53000100 	movwpl	r0, #256	; 0x100
     b10:	000001d7 	ldrdeq	r0, [r0], -r7
     b14:	000001f8 	strdeq	r0, [r0], -r8
     b18:	01f30004 	mvnseq	r0, r4
     b1c:	01f89f53 	mvnseq	r9, r3, asr pc
     b20:	01ff0000 	mvnseq	r0, r0
     b24:	00010000 	andeq	r0, r1, r0
     b28:	0000005c 	andeq	r0, r0, ip, asr r0
     b2c:	00000000 	andeq	r0, r0, r0
     b30:	0000ec00 	andeq	lr, r0, r0, lsl #24
     b34:	0000fc00 	andeq	pc, r0, r0, lsl #24
     b38:	30000200 	andcc	r0, r0, r0, lsl #4
     b3c:	0000fc9f 	muleq	r0, pc, ip	; <UNPREDICTABLE>
     b40:	00010400 	andeq	r0, r1, r0, lsl #8
     b44:	31000200 	mrscc	r0, R8_usr
     b48:	0001049f 	muleq	r1, pc, r4	; <UNPREDICTABLE>
     b4c:	00010800 	andeq	r0, r1, r0, lsl #16
     b50:	30000200 	andcc	r0, r0, r0, lsl #4
     b54:	0000009f 	muleq	r0, pc, r0	; <UNPREDICTABLE>
     b58:	00000000 	andeq	r0, r0, r0
     b5c:	00023c00 	andeq	r3, r2, r0, lsl #24
     b60:	00024f00 	andeq	r4, r2, r0, lsl #30
     b64:	50000100 	andpl	r0, r0, r0, lsl #2
     b68:	0000024f 	andeq	r0, r0, pc, asr #4
     b6c:	00000270 	andeq	r0, r0, r0, ror r2
     b70:	01f30004 	mvnseq	r0, r4
     b74:	02709f50 	rsbseq	r9, r0, #80, 30	; 0x140
     b78:	02a40000 	adceq	r0, r4, #0
     b7c:	00010000 	andeq	r0, r1, r0
     b80:	00000050 	andeq	r0, r0, r0, asr r0
     b84:	00000000 	andeq	r0, r0, r0
     b88:	00023c00 	andeq	r3, r2, r0, lsl #24
     b8c:	00024f00 	andeq	r4, r2, r0, lsl #30
     b90:	51000100 	mrspl	r0, (UNDEF: 16)
     b94:	0000024f 	andeq	r0, r0, pc, asr #4
     b98:	00000270 	andeq	r0, r0, r0, ror r2
     b9c:	01f30004 	mvnseq	r0, r4
     ba0:	02709f51 	rsbseq	r9, r0, #324	; 0x144
     ba4:	02a40000 	adceq	r0, r4, #0
     ba8:	00010000 	andeq	r0, r1, r0
     bac:	00000051 	andeq	r0, r0, r1, asr r0
     bb0:	00000000 	andeq	r0, r0, r0
     bb4:	0002a400 	andeq	sl, r2, r0, lsl #8
     bb8:	0002d400 	andeq	sp, r2, r0, lsl #8
     bbc:	50000100 	andpl	r0, r0, r0, lsl #2
     bc0:	000002d4 	ldrdeq	r0, [r0], -r4
     bc4:	00000558 	andeq	r0, r0, r8, asr r5
     bc8:	585b0001 	ldmdapl	fp, {r0}^
     bcc:	78000005 	stmdavc	r0, {r0, r2}
     bd0:	04000005 	streq	r0, [r0], #-5
     bd4:	5001f300 	andpl	pc, r1, r0, lsl #6
     bd8:	0000009f 	muleq	r0, pc, r0	; <UNPREDICTABLE>
     bdc:	00000000 	andeq	r0, r0, r0
     be0:	0002a400 	andeq	sl, r2, r0, lsl #8
     be4:	0002bc00 	andeq	fp, r2, r0, lsl #24
     be8:	51000100 	mrspl	r0, (UNDEF: 16)
     bec:	000002bc 			; <UNDEFINED> instruction: 0x000002bc
     bf0:	000002d4 	ldrdeq	r0, [r0], -r4
     bf4:	01710003 	cmneq	r1, r3
     bf8:	0002d49f 	muleq	r2, pc, r4	; <UNPREDICTABLE>
     bfc:	00057800 	andeq	r7, r5, r0, lsl #16
     c00:	f3000400 	vshl.u8	d0, d0, d0
     c04:	009f5101 	addseq	r5, pc, r1, lsl #2
     c08:	00000000 	andeq	r0, r0, r0
     c0c:	a4000000 	strge	r0, [r0], #-0
     c10:	d4000002 	strle	r0, [r0], #-2
     c14:	01000002 	tsteq	r0, r2
     c18:	02d45200 	sbcseq	r5, r4, #0, 4
     c1c:	05580000 	ldrbeq	r0, [r8, #-0]
     c20:	00010000 	andeq	r0, r1, r0
     c24:	00000056 	andeq	r0, r0, r6, asr r0
     c28:	00000000 	andeq	r0, r0, r0
     c2c:	0002a400 	andeq	sl, r2, r0, lsl #8
     c30:	0002c400 	andeq	ip, r2, r0, lsl #8
     c34:	53000100 	movwpl	r0, #256	; 0x100
	...
     c40:	000002b8 			; <UNDEFINED> instruction: 0x000002b8
     c44:	000002d4 	ldrdeq	r0, [r0], -r4
     c48:	d4500001 	ldrble	r0, [r0], #-1
     c4c:	d8000002 	stmdale	r0, {r1}
     c50:	01000002 	tsteq	r0, r2
     c54:	02d85400 	sbcseq	r5, r8, #0, 8
     c58:	02e40000 	rsceq	r0, r4, #0
     c5c:	00030000 	andeq	r0, r3, r0
     c60:	e49f0174 	ldr	r0, [pc], #372	; c68 <__code_start__-0x7398>
     c64:	f0000002 			; <UNDEFINED> instruction: 0xf0000002
     c68:	01000002 	tsteq	r0, r2
     c6c:	02f05400 	rscseq	r5, r0, #0, 8
     c70:	02fc0000 	rscseq	r0, ip, #0
     c74:	00030000 	andeq	r0, r3, r0
     c78:	fc9f0174 	ldc2	1, cr0, [pc], {116}	; 0x74
     c7c:	0c000002 	stceq	0, cr0, [r0], {2}
     c80:	01000005 	tsteq	r0, r5
     c84:	050c5400 	streq	r5, [ip, #-1024]	; 0x400
     c88:	05180000 	ldreq	r0, [r8, #-0]
     c8c:	00030000 	andeq	r0, r3, r0
     c90:	189f0174 	ldmne	pc, {r2, r4, r5, r6, r8}	; <UNPREDICTABLE>
     c94:	44000005 	strmi	r0, [r0], #-5
     c98:	01000005 	tsteq	r0, r5
     c9c:	05445400 	strbeq	r5, [r4, #-1024]	; 0x400
     ca0:	05500000 	ldrbeq	r0, [r0, #-0]
     ca4:	00010000 	andeq	r0, r1, r0
     ca8:	00055050 	andeq	r5, r5, r0, asr r0
     cac:	00055800 	andeq	r5, r5, r0, lsl #16
     cb0:	74000300 	strvc	r0, [r0], #-768	; 0x300
     cb4:	00009f01 	andeq	r9, r0, r1, lsl #30
     cb8:	00000000 	andeq	r0, r0, r0
     cbc:	02c00000 	sbceq	r0, r0, #0
     cc0:	05580000 	ldrbeq	r0, [r8, #-0]
     cc4:	00010000 	andeq	r0, r1, r0
     cc8:	00055858 	andeq	r5, r5, r8, asr r8
     ccc:	00057800 	andeq	r7, r5, r0, lsl #16
     cd0:	f3000a00 	vpmax.u8	d0, d0, d0
     cd4:	01f35101 	mvnseq	r5, r1, lsl #2
     cd8:	1c312250 	lfmne	f2, 4, [r1], #-320	; 0xfffffec0
     cdc:	0000009f 	muleq	r0, pc, r0	; <UNPREDICTABLE>
     ce0:	00000000 	andeq	r0, r0, r0
     ce4:	0002c800 	andeq	ip, r2, r0, lsl #16
     ce8:	0002d400 	andeq	sp, r2, r0, lsl #8
     cec:	52000100 	andpl	r0, r0, #0, 2
     cf0:	000002d4 	ldrdeq	r0, [r0], -r4
     cf4:	00000578 	andeq	r0, r0, r8, ror r5
     cf8:	cc910003 	ldcgt	0, cr0, [r1], {3}
     cfc:	0000007e 	andeq	r0, r0, lr, ror r0
     d00:	00000000 	andeq	r0, r0, r0
     d04:	00041000 	andeq	r1, r4, r0
     d08:	00041400 	andeq	r1, r4, r0, lsl #8
     d0c:	50000100 	andpl	r0, r0, r0, lsl #2
     d10:	00000438 	andeq	r0, r0, r8, lsr r4
     d14:	0000043c 	andeq	r0, r0, ip, lsr r4
     d18:	60500001 	subsvs	r0, r0, r1
     d1c:	64000004 	strvs	r0, [r0], #-4
     d20:	01000004 	tsteq	r0, r4
     d24:	04885000 	streq	r5, [r8], #0
     d28:	048c0000 	streq	r0, [ip], #0
     d2c:	00010000 	andeq	r0, r1, r0
     d30:	00049450 	andeq	r9, r4, r0, asr r4
     d34:	00049800 	andeq	r9, r4, r0, lsl #16
     d38:	50000100 	andpl	r0, r0, r0, lsl #2
     d3c:	000004bc 			; <UNDEFINED> instruction: 0x000004bc
     d40:	000004c0 	andeq	r0, r0, r0, asr #9
     d44:	04500001 	ldrbeq	r0, [r0], #-1
     d48:	2c000005 	stccs	0, cr0, [r0], {5}
     d4c:	01000005 	tsteq	r0, r5
     d50:	00005000 	andeq	r5, r0, r0
     d54:	00000000 	andeq	r0, r0, r0
     d58:	03040000 	movweq	r0, #16384	; 0x4000
     d5c:	030c0000 	movweq	r0, #49152	; 0xc000
     d60:	00020000 	andeq	r0, r2, r0
     d64:	030c9f30 	movweq	r9, #53040	; 0xcf30
     d68:	03100000 	tsteq	r0, #0
     d6c:	00010000 	andeq	r0, r1, r0
     d70:	00031c57 	andeq	r1, r3, r7, asr ip
     d74:	00052c00 	andeq	r2, r5, r0, lsl #24
     d78:	57000100 	strpl	r0, [r0, -r0, lsl #2]
	...
     d84:	00000004 	andeq	r0, r0, r4
     d88:	00000008 	andeq	r0, r0, r8
     d8c:	00730007 	rsbseq	r0, r3, r7
     d90:	2110000a 	tstcs	r0, sl
     d94:	0000089f 	muleq	r0, pc, r8	; <UNPREDICTABLE>
     d98:	00001000 	andeq	r1, r0, r0
     d9c:	53000100 	movwpl	r0, #256	; 0x100
	...
     da8:	00000014 	andeq	r0, r0, r4, lsl r0
     dac:	00000018 	andeq	r0, r0, r8, lsl r0
     db0:	00730007 	rsbseq	r0, r3, r7
     db4:	1aefff0b 	bne	ffc009e8 <__bss_end__+0xffbf6270>
     db8:	0000189f 	muleq	r0, pc, r8	; <UNPREDICTABLE>
     dbc:	00002000 	andeq	r2, r0, r0
     dc0:	53000100 	movwpl	r0, #256	; 0x100
	...
     dcc:	00000014 	andeq	r0, r0, r4, lsl r0
     dd0:	0000001c 	andeq	r0, r0, ip, lsl r0
     dd4:	04730003 	ldrbteq	r0, [r3], #-3
     dd8:	00001c9f 	muleq	r0, pc, ip	; <UNPREDICTABLE>
     ddc:	00002700 	andeq	r2, r0, r0, lsl #14
     de0:	53000100 	movwpl	r0, #256	; 0x100
	...
     df0:	0000000f 	andeq	r0, r0, pc
     df4:	0f500001 	svceq	0x00500001
     df8:	44000000 	strmi	r0, [r0], #-0
     dfc:	01000000 	mrseq	r0, (UNDEF: 0)
     e00:	00005400 	andeq	r5, r0, r0, lsl #8
	...
     e0c:	000f0000 	andeq	r0, pc, r0
     e10:	00010000 	andeq	r0, r1, r0
     e14:	00000f50 	andeq	r0, r0, r0, asr pc
     e18:	00004400 	andeq	r4, r0, r0, lsl #8
     e1c:	54000100 	strpl	r0, [r0], #-256	; 0x100
	...
     e2c:	0000000f 	andeq	r0, r0, pc
     e30:	0f500001 	svceq	0x00500001
     e34:	44000000 	strmi	r0, [r0], #-0
     e38:	01000000 	mrseq	r0, (UNDEF: 0)
     e3c:	00005400 	andeq	r5, r0, r0, lsl #8
     e40:	00000000 	andeq	r0, r0, r0
     e44:	00340000 	eorseq	r0, r4, r0
     e48:	00400000 	subeq	r0, r0, r0
     e4c:	00020000 	andeq	r0, r2, r0
     e50:	00409f30 	subeq	r9, r0, r0, lsr pc
     e54:	006c0000 	rsbeq	r0, ip, r0
     e58:	00010000 	andeq	r0, r1, r0
     e5c:	00000053 	andeq	r0, r0, r3, asr r0
     e60:	00000000 	andeq	r0, r0, r0
     e64:	0096e000 	addseq	lr, r6, r0
     e68:	0096e400 	addseq	lr, r6, r0, lsl #8
     e6c:	30000200 	andcc	r0, r0, r0, lsl #4
     e70:	0096e49f 	umullseq	lr, r6, pc, r4	; <UNPREDICTABLE>
     e74:	0096e800 	addseq	lr, r6, r0, lsl #16
     e78:	50000100 	andpl	r0, r0, r0, lsl #2
	...
     e84:	000096f8 	strdeq	r9, [r0], -r8
     e88:	000096fc 	strdeq	r9, [r0], -ip
     e8c:	9f300002 	svcls	0x00300002
     e90:	000096fc 	strdeq	r9, [r0], -ip
     e94:	00009700 	andeq	r9, r0, r0, lsl #14
     e98:	04530001 	ldrbeq	r0, [r3], #-1
     e9c:	0c000097 	stceq	0, cr0, [r0], {151}	; 0x97
     ea0:	01000097 	swpeq	r0, r7, [r0]	; <UNPREDICTABLE>
     ea4:	00005300 	andeq	r5, r0, r0, lsl #6
	...
     eb0:	00040000 	andeq	r0, r4, r0
     eb4:	00010000 	andeq	r0, r1, r0
     eb8:	00000450 	andeq	r0, r0, r0, asr r4
     ebc:	00000c00 	andeq	r0, r0, r0, lsl #24
     ec0:	53000100 	movwpl	r0, #256	; 0x100
     ec4:	0000000c 	andeq	r0, r0, ip
     ec8:	00000010 	andeq	r0, r0, r0, lsl r0
     ecc:	10500001 	subsne	r0, r0, r1
     ed0:	1c000000 	stcne	0, cr0, [r0], {-0}
     ed4:	01000000 	mrseq	r0, (UNDEF: 0)
     ed8:	00005300 	andeq	r5, r0, r0, lsl #6
     edc:	00000000 	andeq	r0, r0, r0
     ee0:	00400000 	subeq	r0, r0, r0
     ee4:	00430000 	subeq	r0, r3, r0
     ee8:	00010000 	andeq	r0, r1, r0
     eec:	00004350 	andeq	r4, r0, r0, asr r3
     ef0:	00004c00 	andeq	r4, r0, r0, lsl #24
     ef4:	54000100 	strpl	r0, [r0], #-256	; 0x100
	...
     f00:	0000004c 	andeq	r0, r0, ip, asr #32
     f04:	00000057 	andeq	r0, r0, r7, asr r0
     f08:	57500001 	ldrbpl	r0, [r0, -r1]
     f0c:	70000000 	andvc	r0, r0, r0
     f10:	01000000 	mrseq	r0, (UNDEF: 0)
     f14:	00005500 	andeq	r5, r0, r0, lsl #10
     f18:	00000000 	andeq	r0, r0, r0
     f1c:	00600000 	rsbeq	r0, r0, r0
     f20:	00640000 	rsbeq	r0, r4, r0
     f24:	00010000 	andeq	r0, r1, r0
     f28:	00000050 	andeq	r0, r0, r0, asr r0
     f2c:	00000000 	andeq	r0, r0, r0
     f30:	00007000 	andeq	r7, r0, r0
     f34:	00007c00 	andeq	r7, r0, r0, lsl #24
     f38:	50000100 	andpl	r0, r0, r0, lsl #2
     f3c:	0000007c 	andeq	r0, r0, ip, ror r0
     f40:	00000084 	andeq	r0, r0, r4, lsl #1
     f44:	01f30004 	mvnseq	r0, r4
     f48:	00009f50 	andeq	r9, r0, r0, asr pc
     f4c:	00000000 	andeq	r0, r0, r0
     f50:	00840000 	addeq	r0, r4, r0
     f54:	00900000 	addseq	r0, r0, r0
     f58:	00010000 	andeq	r0, r1, r0
     f5c:	00009050 	andeq	r9, r0, r0, asr r0
     f60:	00009800 	andeq	r9, r0, r0, lsl #16
     f64:	f3000400 	vshl.u8	d0, d0, d0
     f68:	009f5001 	addseq	r5, pc, r1
     f6c:	00000000 	andeq	r0, r0, r0
     f70:	38000000 	stmdacc	r0, {}	; <UNPREDICTABLE>
     f74:	43000001 	movwmi	r0, #1
     f78:	01000001 	tsteq	r0, r1
     f7c:	01435000 	mrseq	r5, (UNDEF: 67)
     f80:	01680000 	cmneq	r8, r0
     f84:	00010000 	andeq	r0, r1, r0
     f88:	00000054 	andeq	r0, r0, r4, asr r0
	...
     f94:	00000f00 	andeq	r0, r0, r0, lsl #30
     f98:	50000100 	andpl	r0, r0, r0, lsl #2
     f9c:	0000000f 	andeq	r0, r0, pc
     fa0:	00000020 	andeq	r0, r0, r0, lsr #32
     fa4:	00540001 	subseq	r0, r4, r1
	...
     fb0:	0f000000 	svceq	0x00000000
     fb4:	01000000 	mrseq	r0, (UNDEF: 0)
     fb8:	000f5100 	andeq	r5, pc, r0, lsl #2
     fbc:	00200000 	eoreq	r0, r0, r0
     fc0:	00010000 	andeq	r0, r1, r0
     fc4:	00000055 	andeq	r0, r0, r5, asr r0
     fc8:	00000000 	andeq	r0, r0, r0
     fcc:	0000ec00 	andeq	lr, r0, r0, lsl #24
     fd0:	00010400 	andeq	r0, r1, r0, lsl #8
     fd4:	50000100 	andpl	r0, r0, r0, lsl #2
     fd8:	00000104 	andeq	r0, r0, r4, lsl #2
     fdc:	00000114 	andeq	r0, r0, r4, lsl r1
     fe0:	01f30004 	mvnseq	r0, r4
     fe4:	01149f50 	tsteq	r4, r0, asr pc
     fe8:	01180000 	tsteq	r8, r0
     fec:	00010000 	andeq	r0, r1, r0
     ff0:	00011850 	andeq	r1, r1, r0, asr r8
     ff4:	00012000 	andeq	r2, r1, r0
     ff8:	f3000400 	vshl.u8	d0, d0, d0
     ffc:	009f5001 	addseq	r5, pc, r1
    1000:	00000000 	andeq	r0, r0, r0
    1004:	f8000000 			; <UNDEFINED> instruction: 0xf8000000
    1008:	04000000 	streq	r0, [r0], #-0
    100c:	0b000001 	bleq	1018 <__code_start__-0x6fe8>
    1010:	35007000 	strcc	r7, [r0, #-0]
    1014:	80b42325 	adcshi	r2, r4, r5, lsr #6
    1018:	9f028180 	svcls	0x00028180
    101c:	00000104 	andeq	r0, r0, r4, lsl #2
    1020:	00000107 	andeq	r0, r0, r7, lsl #2
    1024:	07500001 	ldrbeq	r0, [r0, -r1]
    1028:	14000001 	strne	r0, [r0], #-1
    102c:	0c000001 	stceq	0, cr0, [r0], {1}
    1030:	5001f300 	andpl	pc, r1, r0, lsl #6
    1034:	b4232535 	strtlt	r2, [r3], #-1333	; 0x535
    1038:	02818080 	addeq	r8, r1, #128	; 0x80
    103c:	0000009f 	muleq	r0, pc, r0	; <UNPREDICTABLE>
    1040:	00000000 	andeq	r0, r0, r0
    1044:	0000fc00 	andeq	pc, r0, r0, lsl #24
    1048:	00011400 	andeq	r1, r1, r0, lsl #8
    104c:	54000100 	strpl	r0, [r0], #-256	; 0x100
	...
    1058:	000000d0 	ldrdeq	r0, [r0], -r0	; <UNPREDICTABLE>
    105c:	000000df 	ldrdeq	r0, [r0], -pc	; <UNPREDICTABLE>
    1060:	df500001 	svcle	0x00500001
    1064:	e4000000 	str	r0, [r0], #-0
    1068:	04000000 	streq	r0, [r0], #-0
    106c:	5001f300 	andpl	pc, r1, r0, lsl #6
    1070:	0000e49f 	muleq	r0, pc, r4	; <UNPREDICTABLE>
    1074:	0000e700 	andeq	lr, r0, r0, lsl #14
    1078:	50000100 	andpl	r0, r0, r0, lsl #2
    107c:	000000e7 	andeq	r0, r0, r7, ror #1
    1080:	000000ec 	andeq	r0, r0, ip, ror #1
    1084:	01f30004 	mvnseq	r0, r4
    1088:	00009f50 	andeq	r9, r0, r0, asr pc
    108c:	00000000 	andeq	r0, r0, r0
    1090:	00d00000 	sbcseq	r0, r0, r0
    1094:	00df0000 	sbcseq	r0, pc, r0
    1098:	00010000 	andeq	r0, r1, r0
    109c:	0000df51 	andeq	sp, r0, r1, asr pc
    10a0:	0000e400 	andeq	lr, r0, r0, lsl #8
    10a4:	f3000400 	vshl.u8	d0, d0, d0
    10a8:	e49f5101 	ldr	r5, [pc], #257	; 10b0 <__code_start__-0x6f50>
    10ac:	e7000000 	str	r0, [r0, -r0]
    10b0:	01000000 	mrseq	r0, (UNDEF: 0)
    10b4:	00e75100 	rsceq	r5, r7, r0, lsl #2
    10b8:	00ec0000 	rsceq	r0, ip, r0
    10bc:	00040000 	andeq	r0, r4, r0
    10c0:	9f5101f3 	svcls	0x005101f3
	...
    10cc:	000000c0 	andeq	r0, r0, r0, asr #1
    10d0:	000000cb 	andeq	r0, r0, fp, asr #1
    10d4:	cb500001 	blgt	14010e0 <__bss_end__+0x13f6968>
    10d8:	d0000000 	andle	r0, r0, r0
    10dc:	04000000 	streq	r0, [r0], #-0
    10e0:	5001f300 	andpl	pc, r1, r0, lsl #6
    10e4:	0000009f 	muleq	r0, pc, r0	; <UNPREDICTABLE>
    10e8:	00000000 	andeq	r0, r0, r0
    10ec:	00009c00 	andeq	r9, r0, r0, lsl #24
    10f0:	0000b400 	andeq	fp, r0, r0, lsl #8
    10f4:	50000100 	andpl	r0, r0, r0, lsl #2
    10f8:	000000b4 	strheq	r0, [r0], -r4
    10fc:	000000c0 	andeq	r0, r0, r0, asr #1
    1100:	01f30004 	mvnseq	r0, r4
    1104:	00009f50 	andeq	r9, r0, r0, asr pc
    1108:	00000000 	andeq	r0, r0, r0
    110c:	00780000 	rsbseq	r0, r8, r0
    1110:	00900000 	addseq	r0, r0, r0
    1114:	00010000 	andeq	r0, r1, r0
    1118:	00009050 	andeq	r9, r0, r0, asr r0
    111c:	00009c00 	andeq	r9, r0, r0, lsl #24
    1120:	f3000400 	vshl.u8	d0, d0, d0
    1124:	009f5001 	addseq	r5, pc, r1
    1128:	00000000 	andeq	r0, r0, r0
    112c:	68000000 	stmdavs	r0, {}	; <UNPREDICTABLE>
    1130:	73000000 	movwvc	r0, #0
    1134:	01000000 	mrseq	r0, (UNDEF: 0)
    1138:	00735000 	rsbseq	r5, r3, r0
    113c:	00780000 	rsbseq	r0, r8, r0
    1140:	00040000 	andeq	r0, r4, r0
    1144:	9f5001f3 	svcls	0x005001f3
	...
    1154:	00000048 	andeq	r0, r0, r8, asr #32
    1158:	48500001 	ldmdami	r0, {r0}^
    115c:	68000000 	stmdavs	r0, {}	; <UNPREDICTABLE>
    1160:	04000000 	streq	r0, [r0], #-0
    1164:	5001f300 	andpl	pc, r1, r0, lsl #6
    1168:	0000009f 	muleq	r0, pc, r0	; <UNPREDICTABLE>
	...
    1174:	00004b00 	andeq	r4, r0, r0, lsl #22
    1178:	51000100 	mrspl	r0, (UNDEF: 16)
    117c:	0000004b 	andeq	r0, r0, fp, asr #32
    1180:	00000068 	andeq	r0, r0, r8, rrx
    1184:	01f30004 	mvnseq	r0, r4
    1188:	00009f51 	andeq	r9, r0, r1, asr pc
    118c:	00000000 	andeq	r0, r0, r0
    1190:	004c0000 	subeq	r0, ip, r0
    1194:	00540000 	subseq	r0, r4, r0
    1198:	00010000 	andeq	r0, r1, r0
    119c:	00005450 	andeq	r5, r0, r0, asr r4
    11a0:	00005800 	andeq	r5, r0, r0, lsl #16
    11a4:	75000900 	strvc	r0, [r0, #-2304]	; 0x900
    11a8:	24007400 	strcs	r7, [r0], #-1024	; 0x400
    11ac:	9f210071 	svcls	0x00210071
    11b0:	00000058 	andeq	r0, r0, r8, asr r0
    11b4:	0000005f 	andeq	r0, r0, pc, asr r0
    11b8:	00510001 	subseq	r0, r1, r1
    11bc:	00000000 	andeq	r0, r0, r0
    11c0:	Address 0x00000000000011c0 is out of bounds.


Disassembly of section .debug_aranges:

00000000 <.debug_aranges>:
   0:	0000001c 	andeq	r0, r0, ip, lsl r0
   4:	00000002 	andeq	r0, r0, r2
   8:	00040000 	andeq	r0, r4, r0
   c:	00000000 	andeq	r0, r0, r0
  10:	00008020 	andeq	r8, r0, r0, lsr #32
  14:	00000288 	andeq	r0, r0, r8, lsl #5
	...
  20:	0000001c 	andeq	r0, r0, ip, lsl r0
  24:	06b80002 	ldrteq	r0, [r8], r2
  28:	00040000 	andeq	r0, r4, r0
  2c:	00000000 	andeq	r0, r0, r0
  30:	000082a8 	andeq	r8, r0, r8, lsr #5
  34:	00000378 	andeq	r0, r0, r8, ror r3
	...
  40:	0000001c 	andeq	r0, r0, ip, lsl r0
  44:	12930002 	addsne	r0, r3, #2
  48:	00040000 	andeq	r0, r4, r0
  4c:	00000000 	andeq	r0, r0, r0
  50:	00008758 	andeq	r8, r0, r8, asr r7
  54:	00000784 	andeq	r0, r0, r4, lsl #15
	...
  60:	0000001c 	andeq	r0, r0, ip, lsl r0
  64:	21960002 	orrscs	r0, r6, r2
  68:	00040000 	andeq	r0, r4, r0
  6c:	00000000 	andeq	r0, r0, r0
  70:	00008edc 	ldrdeq	r8, [r0], -ip
  74:	00000058 	andeq	r0, r0, r8, asr r0
	...
  80:	0000001c 	andeq	r0, r0, ip, lsl r0
  84:	232b0002 	teqcs	fp, #2
  88:	00040000 	andeq	r0, r4, r0
  8c:	00000000 	andeq	r0, r0, r0
  90:	00008f34 	andeq	r8, r0, r4, lsr pc
  94:	0000003c 	andeq	r0, r0, ip, lsr r0
	...
  a0:	0000001c 	andeq	r0, r0, ip, lsl r0
  a4:	24420002 	strbcs	r0, [r2], #-2
  a8:	00040000 	andeq	r0, r4, r0
  ac:	00000000 	andeq	r0, r0, r0
  b0:	00008f70 	andeq	r8, r0, r0, ror pc
  b4:	00000034 	andeq	r0, r0, r4, lsr r0
	...
  c0:	0000001c 	andeq	r0, r0, ip, lsl r0
  c4:	25340002 	ldrcs	r0, [r4, #-2]!
  c8:	00040000 	andeq	r0, r4, r0
  cc:	00000000 	andeq	r0, r0, r0
  d0:	00008fa4 	andeq	r8, r0, r4, lsr #31
  d4:	00000578 	andeq	r0, r0, r8, ror r5
	...
  e0:	0000001c 	andeq	r0, r0, ip, lsl r0
  e4:	2c1d0002 	ldccs	0, cr0, [sp], {2}
  e8:	00040000 	andeq	r0, r4, r0
  ec:	00000000 	andeq	r0, r0, r0
  f0:	0000951c 	andeq	r9, r0, ip, lsl r5
  f4:	00000020 	andeq	r0, r0, r0, lsr #32
	...
 100:	0000001c 	andeq	r0, r0, ip, lsl r0
 104:	2cd90002 	ldclcs	0, cr0, [r9], {2}
 108:	00040000 	andeq	r0, r4, r0
 10c:	00000000 	andeq	r0, r0, r0
 110:	0000953c 	andeq	r9, r0, ip, lsr r5
 114:	0000002c 	andeq	r0, r0, ip, lsr #32
	...
 120:	0000001c 	andeq	r0, r0, ip, lsl r0
 124:	2dec0002 	stclcs	0, cr0, [ip, #8]!
 128:	00040000 	andeq	r0, r4, r0
 12c:	00000000 	andeq	r0, r0, r0
 130:	00009568 	andeq	r9, r0, r8, ror #10
 134:	00000038 	andeq	r0, r0, r8, lsr r0
	...
 140:	0000001c 	andeq	r0, r0, ip, lsl r0
 144:	2eff0002 	cdpcs	0, 15, cr0, cr15, cr2, {0}
 148:	00040000 	andeq	r0, r4, r0
 14c:	00000000 	andeq	r0, r0, r0
 150:	000095a0 	andeq	r9, r0, r0, lsr #11
 154:	00000044 	andeq	r0, r0, r4, asr #32
	...
 160:	0000001c 	andeq	r0, r0, ip, lsl r0
 164:	30410002 	subcc	r0, r1, r2
 168:	00040000 	andeq	r0, r4, r0
 16c:	00000000 	andeq	r0, r0, r0
 170:	000095e4 	andeq	r9, r0, r4, ror #11
 174:	00000044 	andeq	r0, r0, r4, asr #32
	...
 180:	0000001c 	andeq	r0, r0, ip, lsl r0
 184:	31830002 	orrcc	r0, r3, r2
 188:	00040000 	andeq	r0, r4, r0
 18c:	00000000 	andeq	r0, r0, r0
 190:	00009628 	andeq	r9, r0, r8, lsr #12
 194:	00000044 	andeq	r0, r0, r4, asr #32
	...
 1a0:	0000001c 	andeq	r0, r0, ip, lsl r0
 1a4:	32c50002 	sbccc	r0, r5, #2
 1a8:	00040000 	andeq	r0, r4, r0
 1ac:	00000000 	andeq	r0, r0, r0
 1b0:	0000966c 	andeq	r9, r0, ip, ror #12
 1b4:	00000008 	andeq	r0, r0, r8
	...
 1c0:	0000001c 	andeq	r0, r0, ip, lsl r0
 1c4:	33610002 	cmncc	r1, #2
 1c8:	00040000 	andeq	r0, r4, r0
 1cc:	00000000 	andeq	r0, r0, r0
 1d0:	00009674 	andeq	r9, r0, r4, ror r6
 1d4:	0000006c 	andeq	r0, r0, ip, rrx
	...
 1e0:	0000001c 	andeq	r0, r0, ip, lsl r0
 1e4:	353c0002 	ldrcc	r0, [ip, #-2]!
 1e8:	00040000 	andeq	r0, r4, r0
 1ec:	00000000 	andeq	r0, r0, r0
 1f0:	000096e0 	andeq	r9, r0, r0, ror #13
 1f4:	00000074 	andeq	r0, r0, r4, ror r0
	...
 200:	0000001c 	andeq	r0, r0, ip, lsl r0
 204:	36ed0002 	strbtcc	r0, [sp], r2
 208:	00040000 	andeq	r0, r4, r0
 20c:	00000000 	andeq	r0, r0, r0
 210:	00009754 	andeq	r9, r0, r4, asr r7
 214:	00000098 	muleq	r0, r8, r0
	...
 220:	0000001c 	andeq	r0, r0, ip, lsl r0
 224:	38e80002 	stmiacc	r8!, {r1}^
 228:	00040000 	andeq	r0, r4, r0
 22c:	00000000 	andeq	r0, r0, r0
 230:	00009850 	andeq	r9, r0, r0, asr r8
 234:	00000178 	andeq	r0, r0, r8, ror r1
	...
 240:	0000001c 	andeq	r0, r0, ip, lsl r0
 244:	45b10002 	ldrmi	r0, [r1, #2]!
 248:	00040000 	andeq	r0, r4, r0
 24c:	00000000 	andeq	r0, r0, r0
 250:	000099c8 	andeq	r9, r0, r8, asr #19
 254:	00000120 	andeq	r0, r0, r0, lsr #2
	...

Disassembly of section .debug_line:

00000000 <.debug_line>:
       0:	00000179 	andeq	r0, r0, r9, ror r1
       4:	01210002 	teqeq	r1, r2
       8:	01020000 	mrseq	r0, (UNDEF: 2)
       c:	000d0efb 	strdeq	r0, [sp], -fp
      10:	01010101 	tsteq	r1, r1, lsl #2
      14:	01000000 	mrseq	r0, (UNDEF: 0)
      18:	74010000 	strvc	r0, [r1], #-0
      1c:	73747365 	cmnvc	r4, #-1811939327	; 0x94000001
      20:	00302e32 	eorseq	r2, r0, r2, lsr lr
      24:	752f002e 	strvc	r0, [pc, #-46]!	; fffffffe <__bss_end__+0xffff5886>
      28:	6c2f7273 	sfmvs	f7, 4, [pc], #-460	; fffffe64 <__bss_end__+0xffff56ec>
      2c:	6c61636f 	stclvs	3, cr6, [r1], #-444	; 0xfffffe44
      30:	6c65432f 	stclvs	3, cr4, [r5], #-188	; 0xffffff44
      34:	2f72616c 	svccs	0x0072616c
      38:	2d6d7261 	sfmcs	f7, 2, [sp, #-388]!	; 0xfffffe7c
      3c:	656e6f6e 	strbvs	r6, [lr, #-3950]!	; 0xf6e
      40:	6261652d 	rsbvs	r6, r1, #188743680	; 0xb400000
      44:	2e342f69 	cdpcs	15, 3, cr2, cr4, cr9, {3}
      48:	2d332e38 	ldccs	14, cr2, [r3, #-224]!	; 0xffffff20
      4c:	37317363 	ldrcc	r7, [r1, -r3, ror #6]!
      50:	6c2f6530 	cfstr32vs	mvfx6, [pc], #-192	; ffffff98 <__bss_end__+0xffff5820>
      54:	672f6269 	strvs	r6, [pc, -r9, ror #4]!
      58:	612f6363 	teqvs	pc, r3, ror #6
      5c:	6e2d6d72 	mcrvs	13, 1, r6, cr13, cr2, {3}
      60:	2d656e6f 	stclcs	14, cr6, [r5, #-444]!	; 0xfffffe44
      64:	69626165 	stmdbvs	r2!, {r0, r2, r5, r6, r8, sp, lr}^
      68:	382e342f 	stmdacc	lr!, {r0, r1, r2, r3, r5, sl, ip, sp}
      6c:	692f332e 	stmdbvs	pc!, {r1, r2, r3, r5, r8, r9, ip, sp}	; <UNPREDICTABLE>
      70:	756c636e 	strbvc	r6, [ip, #-878]!	; 0x36e
      74:	2f006564 	svccs	0x00006564
      78:	72657355 	rsbvc	r7, r5, #1409286145	; 0x54000001
      7c:	72622f73 	rsbvc	r2, r2, #460	; 0x1cc
      80:	6a6e6169 	bvs	1b9862c <__bss_end__+0x1b8deb4>
      84:	442f6e75 	strtmi	r6, [pc], #-3701	; 8c <__code_start__-0x7f74>
      88:	746b7365 	strbtvc	r7, [fp], #-869	; 0x365
      8c:	732f706f 	teqvc	pc, #111	; 0x6f
      90:	6f6f6863 	svcvs	0x006f6863
      94:	70532f6c 	subsvc	r2, r3, ip, ror #30
      98:	676e6972 			; <UNDEFINED> instruction: 0x676e6972
      9c:	30323931 	eorscc	r3, r2, r1, lsr r9
      a0:	3253432f 	subscc	r4, r3, #-1140850688	; 0xbc000000
      a4:	584c3034 	stmdapl	ip, {r2, r4, r5, ip, sp}^
      a8:	3273632f 	rsbscc	r6, r3, #-1140850688	; 0xbc000000
      ac:	786c3034 	stmdavc	ip!, {r2, r4, r5, ip, sp}^
      b0:	7330322d 	teqvc	r0, #-805306366	; 0xd0000002
      b4:	6c2f7270 	sfmvs	f7, 4, [pc], #-448	; fffffefc <__bss_end__+0xffff5784>
      b8:	69706269 	ldmdbvs	r0!, {r0, r3, r5, r6, r9, sp, lr}^
      bc:	636e692f 	cmnvs	lr, #770048	; 0xbc000
      c0:	6564756c 	strbvs	r7, [r4, #-1388]!	; 0x56c
      c4:	36310000 	ldrtcc	r0, [r1], -r0
      c8:	7261702d 	rsbvc	r7, r1, #45	; 0x2d
      cc:	742d3274 	strtvc	r3, [sp], #-628	; 0x274
      d0:	38747365 	ldmdacc	r4!, {r0, r2, r5, r6, r8, r9, ip, sp, lr}^
      d4:	0100632e 	tsteq	r0, lr, lsr #6
      d8:	69700000 	ldmdbvs	r0!, {}^	; <UNPREDICTABLE>
      dc:	7379732d 	cmnvc	r9, #-1275068416	; 0xb4000000
      e0:	636f6c2d 	cmnvs	pc, #11520	; 0x2d00
      e4:	00682e6b 	rsbeq	r2, r8, fp, ror #28
      e8:	63000002 	movwvs	r0, #2
      ec:	6b636568 	blvs	18d9694 <__bss_end__+0x18cef1c>
      f0:	746e692d 	strbtvc	r6, [lr], #-2349	; 0x92d
      f4:	656c7265 	strbvs	r7, [ip, #-613]!	; 0x265
      f8:	2e657661 	cdpcs	6, 6, cr7, cr5, cr1, {3}
      fc:	00020068 	andeq	r0, r2, r8, rrx
     100:	64747300 	ldrbtvs	r7, [r4], #-768	; 0x300
     104:	2d746e69 	ldclcs	14, cr6, [r4, #-420]!	; 0xfffffe5c
     108:	2e636367 	cdpcs	3, 6, cr6, cr3, cr7, {3}
     10c:	00030068 	andeq	r0, r3, r8, rrx
     110:	69707200 	ldmdbvs	r0!, {r9, ip, sp, lr}^
     114:	0400682e 	streq	r6, [r0], #-2094	; 0x82e
     118:	70630000 	rsbvc	r0, r3, r0
     11c:	642d3431 	strtvs	r3, [sp], #-1073	; 0x431
     120:	67756265 	ldrbvs	r6, [r5, -r5, ror #4]!
     124:	0200682e 	andeq	r6, r0, #3014656	; 0x2e0000
     128:	00000000 	andeq	r0, r0, r0
     12c:	80200205 	eorhi	r0, r0, r5, lsl #4
     130:	09030000 	stmdbeq	r3, {}	; <UNPREDICTABLE>
     134:	5b086701 	blpl	219d40 <__bss_end__+0x20f5c8>
     138:	04490204 	strbeq	r0, [r9], #-516	; 0x204
     13c:	d74b4c01 	strble	r4, [fp, -r1, lsl #24]
     140:	08890204 	stmeq	r9, {r2, r9}
     144:	03010491 	movweq	r0, #5265	; 0x1491
     148:	5a08667a 	bpl	219b38 <__bss_end__+0x20f3c0>
     14c:	04134c15 	ldreq	r4, [r3], #-3093	; 0xc15
     150:	666c0302 	strbtvs	r0, [ip], -r2, lsl #6
     154:	17030104 	strne	r0, [r3, -r4, lsl #2]
     158:	02004b9e 	andeq	r4, r0, #161792	; 0x27800
     15c:	82060104 	andhi	r0, r6, #4, 2
     160:	00210806 	eoreq	r0, r1, r6, lsl #16
     164:	06010402 	streq	r0, [r1], -r2, lsl #8
     168:	22080682 	andcs	r0, r8, #136314880	; 0x8200000
     16c:	02133e08 	andseq	r3, r3, #8, 28	; 0x80
     170:	4ca0192e 	stcmi	9, cr1, [r0], #184	; 0xb8
     174:	d8834c30 	stmle	r3, {r4, r5, sl, fp, lr}
     178:	01001802 	tsteq	r0, r2, lsl #16
     17c:	0001f401 	andeq	pc, r1, r1, lsl #8
     180:	ff000200 			; <UNDEFINED> instruction: 0xff000200
     184:	02000000 	andeq	r0, r0, #0
     188:	0d0efb01 	vstreq	d15, [lr, #-4]
     18c:	01010100 	mrseq	r0, (UNDEF: 17)
     190:	00000001 	andeq	r0, r0, r1
     194:	01000001 	tsteq	r0, r1
     198:	7273752f 	rsbsvc	r7, r3, #197132288	; 0xbc00000
     19c:	636f6c2f 	cmnvs	pc, #12032	; 0x2f00
     1a0:	432f6c61 	teqmi	pc, #24832	; 0x6100
     1a4:	616c6c65 	cmnvs	ip, r5, ror #24
     1a8:	72612f72 	rsbvc	r2, r1, #456	; 0x1c8
     1ac:	6f6e2d6d 	svcvs	0x006e2d6d
     1b0:	652d656e 	strvs	r6, [sp, #-1390]!	; 0x56e
     1b4:	2f696261 	svccs	0x00696261
     1b8:	2e382e34 	mrccs	14, 1, r2, cr8, cr4, {1}
     1bc:	73632d33 	cmnvc	r3, #3264	; 0xcc0
     1c0:	65303731 	ldrvs	r3, [r0, #-1841]!	; 0x731
     1c4:	62696c2f 	rsbvs	r6, r9, #12032	; 0x2f00
     1c8:	6363672f 	cmnvs	r3, #12320768	; 0xbc0000
     1cc:	6d72612f 	ldfvse	f6, [r2, #-188]!	; 0xffffff44
     1d0:	6e6f6e2d 	cdpvs	14, 6, cr6, cr15, cr13, {1}
     1d4:	61652d65 	cmnvs	r5, r5, ror #26
     1d8:	342f6962 	strtcc	r6, [pc], #-2402	; 1e0 <__code_start__-0x7e20>
     1dc:	332e382e 	teqcc	lr, #3014656	; 0x2e0000
     1e0:	636e692f 	cmnvs	lr, #770048	; 0xbc000
     1e4:	6564756c 	strbvs	r7, [r4, #-1388]!	; 0x56c
     1e8:	73552f00 	cmpvc	r5, #0, 30
     1ec:	2f737265 	svccs	0x00737265
     1f0:	61697262 	cmnvs	r9, r2, ror #4
     1f4:	6e756a6e 	vsubvs.f32	s13, s10, s29
     1f8:	7365442f 	cmnvc	r5, #788529152	; 0x2f000000
     1fc:	706f746b 	rsbvc	r7, pc, fp, ror #8
     200:	6863732f 	stmdavs	r3!, {r0, r1, r2, r3, r5, r8, r9, ip, sp, lr}^
     204:	2f6c6f6f 	svccs	0x006c6f6f
     208:	69727053 	ldmdbvs	r2!, {r0, r1, r4, r6, ip, sp, lr}^
     20c:	3931676e 	ldmdbcc	r1!, {r1, r2, r3, r5, r6, r8, r9, sl, sp, lr}
     210:	432f3032 	teqmi	pc, #50	; 0x32
     214:	30343253 	eorscc	r3, r4, r3, asr r2
     218:	632f584c 	teqvs	pc, #76, 16	; 0x4c0000
     21c:	30343273 	eorscc	r3, r4, r3, ror r2
     220:	322d786c 	eorcc	r7, sp, #108, 16	; 0x6c0000
     224:	72707330 	rsbsvc	r7, r0, #48, 6	; 0xc0000000
     228:	62696c2f 	rsbvs	r6, r9, #12032	; 0x2f00
     22c:	692f6970 	stmdbvs	pc!, {r4, r5, r6, r8, fp, sp, lr}	; <UNPREDICTABLE>
     230:	756c636e 	strbvc	r6, [ip, #-878]!	; 0x36e
     234:	00006564 	andeq	r6, r0, r4, ror #10
     238:	34317063 	ldrtcc	r7, [r1], #-99	; 0x63
     23c:	6265642d 	rsbvs	r6, r5, #754974720	; 0x2d000000
     240:	632e6775 	teqvs	lr, #30670848	; 0x1d40000
     244:	00000000 	andeq	r0, r0, r0
     248:	34317063 	ldrtcc	r7, [r1], #-99	; 0x63
     24c:	6265642d 	rsbvs	r6, r5, #754974720	; 0x2d000000
     250:	682e6775 	stmdavs	lr!, {r0, r2, r4, r5, r6, r8, r9, sl, sp, lr}
     254:	00000000 	andeq	r0, r0, r0
     258:	69647473 	stmdbvs	r4!, {r0, r1, r4, r5, r6, sl, ip, sp, lr}^
     25c:	672d746e 	strvs	r7, [sp, -lr, ror #8]!
     260:	682e6363 	stmdavs	lr!, {r0, r1, r5, r6, r8, r9, sp, lr}
     264:	00000100 	andeq	r0, r0, r0, lsl #2
     268:	2e697072 	mcrcs	0, 3, r7, cr9, cr2, {3}
     26c:	00020068 	andeq	r0, r2, r8, rrx
     270:	69707200 	ldmdbvs	r0!, {r9, ip, sp, lr}^
     274:	746e692d 	strbtvc	r6, [lr], #-2349	; 0x92d
     278:	75727265 	ldrbvc	r7, [r2, #-613]!	; 0x265
     27c:	2e737470 	mrccs	4, 3, r7, cr3, cr0, {3}
     280:	00020068 	andeq	r0, r2, r8, rrx
     284:	05000000 	streq	r0, [r0, #-0]
     288:	0082a802 	addeq	sl, r2, r2, lsl #16
     28c:	01350300 	teqeq	r5, r0, lsl #6
     290:	034a6203 	movteq	r6, #41475	; 0xa203
     294:	62032e24 	andvs	r2, r3, #36, 28	; 0x240
     298:	2e7a032e 	cdpcs	3, 7, cr0, cr10, cr14, {1}
     29c:	002e2903 	eoreq	r2, lr, r3, lsl #18
     2a0:	06010402 	streq	r0, [r1], -r2, lsl #8
     2a4:	6503064a 	strvs	r0, [r3, #-1610]	; 0x64a
     2a8:	78032008 	stmdavc	r3, {r3, sp}
     2ac:	4a7a032e 	bmi	1e80f6c <__bss_end__+0x1e767f4>
     2b0:	002e3a03 	eoreq	r3, lr, r3, lsl #20
     2b4:	06010402 	streq	r0, [r1], -r2, lsl #8
     2b8:	bb03064a 	bllt	c1be8 <__bss_end__+0xb7470>
     2bc:	0320087f 	teqeq	r0, #8323072	; 0x7f0000
     2c0:	4b4a00c8 	blmi	12805e8 <__bss_end__+0x1275e70>
     2c4:	6c0204f5 	cfstrsvs	mvf0, [r2], {245}	; 0xf5
     2c8:	344a1303 	strbcc	r1, [sl], #-771	; 0x303
     2cc:	d65d034b 	ldrble	r0, [sp], -fp, asr #6
     2d0:	11030104 	tstne	r3, r4, lsl #2
     2d4:	0402002e 	streq	r0, [r2], #-46	; 0x2e
     2d8:	06660601 	strbteq	r0, [r6], -r1, lsl #12
     2dc:	02002208 	andeq	r2, r0, #8, 4	; 0x80000000
     2e0:	82060104 	andhi	r0, r6, #4, 2
     2e4:	03060204 	movweq	r0, #25092	; 0x6204
     2e8:	0420087a 	strteq	r0, [r0], #-2170	; 0x87a
     2ec:	2e0c0301 	cdpcs	3, 0, cr0, cr12, cr1, {0}
     2f0:	315a084b 	cmpcc	sl, fp, asr #16
     2f4:	bb032f83 	bllt	cc108 <__bss_end__+0xc1990>
     2f8:	5b03667f 	blpl	d9cfc <__bss_end__+0xcf584>
     2fc:	019b034a 	orrseq	r0, fp, sl, asr #6
     300:	01650382 	smulbbeq	r5, r2, r3
     304:	032e1f03 	teqeq	lr, #3, 30
     308:	302c2e62 	eorcc	r2, ip, r2, ror #28
     30c:	4a7eff03 	bmi	1fbff20 <__bss_end__+0x1fb57a8>
     310:	4a01b303 	bmi	6cf24 <__bss_end__+0x627ac>
     314:	030204a2 	movweq	r0, #9378	; 0x24a2
     318:	04336662 	ldrteq	r6, [r3], #-1634	; 0x662
     31c:	2e1b0301 	cdpcs	3, 1, cr0, cr11, cr1, {0}
     320:	0200d74b 	andeq	sp, r0, #19660800	; 0x12c0000
     324:	82060104 	andhi	r0, r6, #4, 2
     328:	03060204 	movweq	r0, #25092	; 0x6204
     32c:	0420084f 	strteq	r0, [r0], #-2127	; 0x84f
     330:	2e330301 	cdpcs	3, 3, cr0, cr3, cr1, {0}
     334:	0b03f44b 	bleq	fd468 <__bss_end__+0xf2cf0>
     338:	082f012e 	stmdaeq	pc!, {r1, r2, r3, r5, r8}	; <UNPREDICTABLE>
     33c:	7fb1033f 	svcvc	0x00b1033f
     340:	00d30301 	sbcseq	r0, r3, r1, lsl #6
     344:	7fae032e 	svcvc	0x00ae032e
     348:	03302c2e 	teqeq	r0, #11776	; 0x2e00
     34c:	034a7eff 	movteq	r7, #44799	; 0xaeff
     350:	a24a01e7 	subge	r0, sl, #-1073741767	; 0xc0000039
     354:	017f9603 	cmneq	pc, r3, lsl #12
     358:	8200fb03 	andhi	pc, r0, #3072	; 0xc00
     35c:	034b4b31 	movteq	r4, #47921	; 0xbb31
     360:	71032e10 	tstvc	r3, r0, lsl lr
     364:	4b674c4a 	blmi	19d3494 <__bss_end__+0x19c8d1c>
     368:	03694e32 	cmneq	r9, #800	; 0x320
     36c:	354d4a77 	strbcc	r4, [sp, #-2679]	; 0xa77
     370:	01000402 	tsteq	r0, r2, lsl #8
     374:	00026701 	andeq	r6, r2, r1, lsl #14
     378:	3b000200 	blcc	b80 <__code_start__-0x7480>
     37c:	02000001 	andeq	r0, r0, #1
     380:	0d0efb01 	vstreq	d15, [lr, #-4]
     384:	01010100 	mrseq	r0, (UNDEF: 17)
     388:	00000001 	andeq	r0, r0, r1
     38c:	01000001 	tsteq	r0, r1
     390:	6573552f 	ldrbvs	r5, [r3, #-1327]!	; 0x52f
     394:	622f7372 	eorvs	r7, pc, #-939524095	; 0xc8000001
     398:	6e616972 	mcrvs	9, 3, r6, cr1, cr2, {3}
     39c:	2f6e756a 	svccs	0x006e756a
     3a0:	6b736544 	blvs	1cd98b8 <__bss_end__+0x1ccf140>
     3a4:	2f706f74 	svccs	0x00706f74
     3a8:	6f686373 	svcvs	0x00686373
     3ac:	532f6c6f 	teqpl	pc, #28416	; 0x6f00
     3b0:	6e697270 	mcrvs	2, 3, r7, cr9, cr0, {3}
     3b4:	32393167 	eorscc	r3, r9, #-1073741799	; 0xc0000019
     3b8:	53432f30 	movtpl	r2, #16176	; 0x3f30
     3bc:	4c303432 	cfldrsmi	mvf3, [r0], #-200	; 0xffffff38
     3c0:	73632f58 	cmnvc	r3, #88, 30	; 0x160
     3c4:	6c303432 	cfldrsvs	mvf3, [r0], #-200	; 0xffffff38
     3c8:	30322d78 	eorscc	r2, r2, r8, ror sp
     3cc:	2f727073 	svccs	0x00727073
     3d0:	7062696c 	rsbvc	r6, r2, ip, ror #18
     3d4:	6e692f69 	cdpvs	15, 6, cr2, cr9, cr9, {3}
     3d8:	64756c63 	ldrbtvs	r6, [r5], #-3171	; 0xc63
     3dc:	752f0065 	strvc	r0, [pc, #-101]!	; 37f <__code_start__-0x7c81>
     3e0:	6c2f7273 	sfmvs	f7, 4, [pc], #-460	; 21c <__code_start__-0x7de4>
     3e4:	6c61636f 	stclvs	3, cr6, [r1], #-444	; 0xfffffe44
     3e8:	6c65432f 	stclvs	3, cr4, [r5], #-188	; 0xffffff44
     3ec:	2f72616c 	svccs	0x0072616c
     3f0:	2d6d7261 	sfmcs	f7, 2, [sp, #-388]!	; 0xfffffe7c
     3f4:	656e6f6e 	strbvs	r6, [lr, #-3950]!	; 0xf6e
     3f8:	6261652d 	rsbvs	r6, r1, #188743680	; 0xb400000
     3fc:	2e342f69 	cdpcs	15, 3, cr2, cr4, cr9, {3}
     400:	2d332e38 	ldccs	14, cr2, [r3, #-224]!	; 0xffffff20
     404:	37317363 	ldrcc	r7, [r1, -r3, ror #6]!
     408:	6c2f6530 	cfstr32vs	mvfx6, [pc], #-192	; 350 <__code_start__-0x7cb0>
     40c:	672f6269 	strvs	r6, [pc, -r9, ror #4]!
     410:	612f6363 	teqvs	pc, r3, ror #6
     414:	6e2d6d72 	mcrvs	13, 1, r6, cr13, cr2, {3}
     418:	2d656e6f 	stclcs	14, cr6, [r5, #-444]!	; 0xfffffe44
     41c:	69626165 	stmdbvs	r2!, {r0, r2, r5, r6, r8, sp, lr}^
     420:	382e342f 	stmdacc	lr!, {r0, r1, r2, r3, r5, sl, ip, sp}
     424:	692f332e 	stmdbvs	pc!, {r1, r2, r3, r5, r8, r9, ip, sp}	; <UNPREDICTABLE>
     428:	756c636e 	strbvc	r6, [ip, #-878]!	; 0x36e
     42c:	00006564 	andeq	r6, r0, r4, ror #10
     430:	63656863 	cmnvs	r5, #6488064	; 0x630000
     434:	6e692d6b 	cdpvs	13, 6, cr2, cr9, cr11, {3}
     438:	6c726574 	cfldr64vs	mvdx6, [r2], #-464	; 0xfffffe30
     43c:	65766165 	ldrbvs	r6, [r6, #-357]!	; 0x165
     440:	0000632e 	andeq	r6, r0, lr, lsr #6
     444:	70630000 	rsbvc	r0, r3, r0
     448:	642d3431 	strtvs	r3, [sp], #-1073	; 0x431
     44c:	67756265 	ldrbvs	r6, [r5, -r5, ror #4]!
     450:	0000682e 	andeq	r6, r0, lr, lsr #16
     454:	70720000 	rsbsvc	r0, r2, r0
     458:	6e692d69 	cdpvs	13, 6, cr2, cr9, cr9, {3}
     45c:	72726574 	rsbsvc	r6, r2, #116, 10	; 0x1d000000
     460:	73747075 	cmnvc	r4, #117	; 0x75
     464:	0100682e 	tsteq	r0, lr, lsr #16
     468:	69620000 	stmdbvs	r2!, {}^	; <UNPREDICTABLE>
     46c:	75732d74 	ldrbvc	r2, [r3, #-3444]!	; 0xd74
     470:	726f7070 	rsbvc	r7, pc, #112	; 0x70
     474:	00682e74 	rsbeq	r2, r8, r4, ror lr
     478:	63000000 	movwvs	r0, #0
     47c:	2d727370 	ldclcs	3, cr7, [r2, #-448]!	; 0xfffffe40
     480:	6c697475 	cfstrdvs	mvd7, [r9], #-468	; 0xfffffe2c
     484:	0000682e 	andeq	r6, r0, lr, lsr #16
     488:	74730000 	ldrbtvc	r0, [r3], #-0
     48c:	746e6964 	strbtvc	r6, [lr], #-2404	; 0x964
     490:	6363672d 	cmnvs	r3, #11796480	; 0xb40000
     494:	0200682e 	andeq	r6, r0, #3014656	; 0x2e0000
     498:	68630000 	stmdavs	r3!, {}^	; <UNPREDICTABLE>
     49c:	2d6b6365 	stclcs	3, cr6, [fp, #-404]!	; 0xfffffe6c
     4a0:	65746e69 	ldrbvs	r6, [r4, #-3689]!	; 0xe69
     4a4:	61656c72 	smcvs	22210	; 0x56c2
     4a8:	682e6576 	stmdavs	lr!, {r1, r2, r4, r5, r6, r8, sl, sp, lr}
     4ac:	00000000 	andeq	r0, r0, r0
     4b0:	2e697072 	mcrcs	0, 3, r7, cr9, cr2, {3}
     4b4:	00010068 	andeq	r0, r1, r8, rrx
     4b8:	05000000 	streq	r0, [r0, #-0]
     4bc:	00875802 	addeq	r5, r7, r2, lsl #16
     4c0:	010a0300 	mrseq	r0, (UNDEF: 58)
     4c4:	04020067 	streq	r0, [r2], #-103	; 0x67
     4c8:	04820601 	streq	r0, [r2], #1537	; 0x601
     4cc:	9a030602 	bls	c1cdc <__bss_end__+0xb7564>
     4d0:	0433ba01 	ldrteq	fp, [r3], #-2561	; 0xa01
     4d4:	7ee20301 	cdpvc	3, 14, cr0, cr2, cr1, {0}
     4d8:	4dd84b2e 	vldrmi	d20, [r8, #184]	; 0xb8
     4dc:	4ba38383 	blmi	fe8e12f0 <__bss_end__+0xfe8d6b78>
     4e0:	4b674b2f 	blmi	19d31a4 <__bss_end__+0x19c8a2c>
     4e4:	02006830 	andeq	r6, r0, #48, 16	; 0x300000
     4e8:	82060104 	andhi	r0, r6, #4, 2
     4ec:	68210806 	stmdavs	r1!, {r1, r2, fp}
     4f0:	01040200 	mrseq	r0, R12_usr
     4f4:	bb068206 	bllt	1a0d14 <__bss_end__+0x19659c>
     4f8:	04020067 	streq	r0, [r2], #-103	; 0x67
     4fc:	06820601 	streq	r0, [r2], r1, lsl #12
     500:	04ca08bb 	strbeq	r0, [sl], #2235	; 0x8bb
     504:	04046303 	streq	r6, [r4], #-771	; 0x303
     508:	03050431 	movweq	r0, #21553	; 0x5431
     50c:	01042e6b 	tsteq	r4, fp, ror #28
     510:	4b2e1903 	blmi	b86924 <__bss_end__+0xb7c1ac>
     514:	682a844e 	stmdavs	sl!, {r1, r2, r3, r6, sl, pc}
     518:	01040200 	mrseq	r0, R12_usr
     51c:	d8066606 	stmdale	r6, {r1, r2, r9, sl, sp, lr}
     520:	314b676a 	cmpcc	fp, sl, ror #14
     524:	9f696784 	svcls	0x00696784
     528:	68686984 	stmdavs	r8!, {r2, r7, r8, fp, sp, lr}^
     52c:	51030404 	tstpl	r3, r4, lsl #8
     530:	03050482 	movweq	r0, #21634	; 0x5482
     534:	67652e6c 	strbvs	r2, [r5, -ip, ror #28]!
     538:	60082508 	andvs	r2, r8, r8, lsl #10
     53c:	4b152802 	blmi	54a54c <__bss_end__+0x53fdd4>
     540:	4b4b4b4b 	blmi	12d3274 <__bss_end__+0x12c8afc>
     544:	4bf27903 	blmi	ffc9e958 <__bss_end__+0xffc941e0>
     548:	38030104 	stmdacc	r3, {r2, r8}
     54c:	0303042e 	movweq	r0, #13358	; 0x342e
     550:	04046655 	streq	r6, [r4], #-1621	; 0x655
     554:	042e7803 	strteq	r7, [lr], #-2051	; 0x803
     558:	2e6c0305 	cdpcs	3, 6, cr0, cr12, cr5, {0}
     55c:	25086765 	strcs	r6, [r8, #-1893]	; 0x765
     560:	28026008 	stmdacs	r2, {r3, sp, lr}
     564:	4b4b4b15 	blmi	12d31c0 <__bss_end__+0x12c8a48>
     568:	79034b4b 	stmdbvc	r3, {r0, r1, r3, r6, r8, r9, fp, lr}
     56c:	03044bf2 	movweq	r4, #19442	; 0x4bf2
     570:	042e0d03 	strteq	r0, [lr], #-3331	; 0xd03
     574:	2e2c0301 	cdpcs	3, 2, cr0, cr12, cr1, {0}
     578:	0304044c 	movweq	r0, #17484	; 0x444c
     57c:	05044a4a 	streq	r4, [r4, #-2634]	; 0xa4a
     580:	652e6c03 	strvs	r6, [lr, #-3075]!	; 0xc03
     584:	04250867 	strteq	r0, [r5], #-2151	; 0x867
     588:	08170303 	ldmdaeq	r7, {r0, r1, r8, r9}
     58c:	03040458 	movweq	r0, #17496	; 0x4458
     590:	05042e78 	streq	r2, [r4, #-3704]	; 0xe78
     594:	652e6c03 	strvs	r6, [lr, #-3075]!	; 0xc03
     598:	04250867 	strteq	r0, [r5], #-2151	; 0x867
     59c:	00c70301 	sbceq	r0, r7, r1, lsl #6
     5a0:	02005808 	andeq	r5, r0, #8, 16	; 0x80000
     5a4:	4a060104 	bmi	1809bc <__bss_end__+0x176244>
     5a8:	4c240806 	stcmi	8, cr0, [r4], #-24	; 0xffffffe8
     5ac:	173a022f 	ldrne	r0, [sl, -pc, lsr #4]!
     5b0:	67684b4e 	strbvs	r4, [r8, -lr, asr #22]!
     5b4:	7a039f67 	bvc	e8358 <__bss_end__+0xddbe0>
     5b8:	040200d6 	streq	r0, [r2], #-214	; 0xd6
     5bc:	062e0601 	strteq	r0, [lr], -r1, lsl #12
     5c0:	a14a1203 	cmpge	sl, r3, lsl #4
     5c4:	2d2d491a 	stccs	9, cr4, [sp, #-104]!	; 0xffffff98
     5c8:	2d2d2d2d 	stccs	13, cr2, [sp, #-180]!	; 0xffffff4c
     5cc:	4b4a0a03 	blmi	1282de0 <__bss_end__+0x1278668>
     5d0:	02004b2f 	andeq	r4, r0, #48128	; 0xbc00
     5d4:	82060104 	andhi	r0, r6, #4, 2
     5d8:	029f0682 	addseq	r0, pc, #136314880	; 0x8200000
     5dc:	01010002 	tsteq	r1, r2
     5e0:	0000010c 	andeq	r0, r0, ip, lsl #2
     5e4:	00f50002 	rscseq	r0, r5, r2
     5e8:	01020000 	mrseq	r0, (UNDEF: 2)
     5ec:	000d0efb 	strdeq	r0, [sp], -fp
     5f0:	01010101 	tsteq	r1, r1, lsl #2
     5f4:	01000000 	mrseq	r0, (UNDEF: 0)
     5f8:	6c010000 	stcvs	0, cr0, [r1], {-0}
     5fc:	00636269 	rsbeq	r6, r3, r9, ror #4
     600:	7273752f 	rsbsvc	r7, r3, #197132288	; 0xbc00000
     604:	636f6c2f 	cmnvs	pc, #12032	; 0x2f00
     608:	432f6c61 	teqmi	pc, #24832	; 0x6100
     60c:	616c6c65 	cmnvs	ip, r5, ror #24
     610:	72612f72 	rsbvc	r2, r1, #456	; 0x1c8
     614:	6f6e2d6d 	svcvs	0x006e2d6d
     618:	652d656e 	strvs	r6, [sp, #-1390]!	; 0x56e
     61c:	2f696261 	svccs	0x00696261
     620:	2e382e34 	mrccs	14, 1, r2, cr8, cr4, {1}
     624:	73632d33 	cmnvc	r3, #3264	; 0xcc0
     628:	65303731 	ldrvs	r3, [r0, #-1841]!	; 0x731
     62c:	62696c2f 	rsbvs	r6, r9, #12032	; 0x2f00
     630:	6363672f 	cmnvs	r3, #12320768	; 0xbc0000
     634:	6d72612f 	ldfvse	f6, [r2, #-188]!	; 0xffffff44
     638:	6e6f6e2d 	cdpvs	14, 6, cr6, cr15, cr13, {1}
     63c:	61652d65 	cmnvs	r5, r5, ror #26
     640:	342f6962 	strtcc	r6, [pc], #-2402	; 648 <__code_start__-0x79b8>
     644:	332e382e 	teqcc	lr, #3014656	; 0x2e0000
     648:	636e692f 	cmnvs	lr, #770048	; 0xbc000
     64c:	6564756c 	strbvs	r7, [r4, #-1388]!	; 0x56c
     650:	73552f00 	cmpvc	r5, #0, 30
     654:	2f737265 	svccs	0x00737265
     658:	61697262 	cmnvs	r9, r2, ror #4
     65c:	6e756a6e 	vsubvs.f32	s13, s10, s29
     660:	7365442f 	cmnvc	r5, #788529152	; 0x2f000000
     664:	706f746b 	rsbvc	r7, pc, fp, ror #8
     668:	6863732f 	stmdavs	r3!, {r0, r1, r2, r3, r5, r8, r9, ip, sp, lr}^
     66c:	2f6c6f6f 	svccs	0x006c6f6f
     670:	69727053 	ldmdbvs	r2!, {r0, r1, r4, r6, ip, sp, lr}^
     674:	3931676e 	ldmdbcc	r1!, {r1, r2, r3, r5, r6, r8, r9, sl, sp, lr}
     678:	432f3032 	teqmi	pc, #50	; 0x32
     67c:	30343253 	eorscc	r3, r4, r3, asr r2
     680:	632f584c 	teqvs	pc, #76, 16	; 0x4c0000
     684:	30343273 	eorscc	r3, r4, r3, ror r2
     688:	322d786c 	eorcc	r7, sp, #108, 16	; 0x6c0000
     68c:	72707330 	rsbsvc	r7, r0, #48, 6	; 0xc0000000
     690:	62696c2f 	rsbvs	r6, r9, #12032	; 0x2f00
     694:	692f6970 	stmdbvs	pc!, {r4, r5, r6, r8, fp, sp, lr}	; <UNPREDICTABLE>
     698:	756c636e 	strbvc	r6, [ip, #-878]!	; 0x36e
     69c:	00006564 	andeq	r6, r0, r4, ror #10
     6a0:	6e697270 	mcrvs	2, 3, r7, cr9, cr0, {3}
     6a4:	632e6b74 	teqvs	lr, #116, 22	; 0x1d000
     6a8:	00000100 	andeq	r0, r0, r0, lsl #2
     6ac:	61647473 	smcvs	18243	; 0x4743
     6b0:	682e6772 	stmdavs	lr!, {r1, r4, r5, r6, r8, r9, sl, sp, lr}
     6b4:	00000200 	andeq	r0, r0, r0, lsl #4
     6b8:	6975623c 	ldmdbvs	r5!, {r2, r3, r4, r5, r9, sp, lr}^
     6bc:	692d746c 	pushvs	{r2, r3, r5, r6, sl, ip, sp, lr}
     6c0:	00003e6e 	andeq	r3, r0, lr, ror #28
     6c4:	70720000 	rsbsvc	r0, r2, r0
     6c8:	00682e69 	rsbeq	r2, r8, r9, ror #28
     6cc:	76000003 	strvc	r0, [r0], -r3
     6d0:	72702d61 	rsbsvc	r2, r0, #6208	; 0x1840
     6d4:	6b746e69 	blvs	1d1c080 <__bss_end__+0x1d11908>
     6d8:	0100682e 	tsteq	r0, lr, lsr #16
     6dc:	00000000 	andeq	r0, r0, r0
     6e0:	8edc0205 	cdphi	2, 13, cr0, cr12, cr5, {0}
     6e4:	6b170000 	blvs	5c06ec <__bss_end__+0x5b5f74>
     6e8:	0289bf4b 	addeq	fp, r9, #300	; 0x12c
     6ec:	0101000e 	tsteq	r1, lr
     6f0:	00000094 	muleq	r0, r4, r0
     6f4:	007c0002 	rsbseq	r0, ip, r2
     6f8:	01020000 	mrseq	r0, (UNDEF: 2)
     6fc:	000d0efb 	strdeq	r0, [sp], -fp
     700:	01010101 	tsteq	r1, r1, lsl #2
     704:	01000000 	mrseq	r0, (UNDEF: 0)
     708:	6c010000 	stcvs	0, cr0, [r1], {-0}
     70c:	00636269 	rsbeq	r6, r3, r9, ror #4
     710:	6573552f 	ldrbvs	r5, [r3, #-1327]!	; 0x52f
     714:	622f7372 	eorvs	r7, pc, #-939524095	; 0xc8000001
     718:	6e616972 	mcrvs	9, 3, r6, cr1, cr2, {3}
     71c:	2f6e756a 	svccs	0x006e756a
     720:	6b736544 	blvs	1cd9c38 <__bss_end__+0x1ccf4c0>
     724:	2f706f74 	svccs	0x00706f74
     728:	6f686373 	svcvs	0x00686373
     72c:	532f6c6f 	teqpl	pc, #28416	; 0x6f00
     730:	6e697270 	mcrvs	2, 3, r7, cr9, cr0, {3}
     734:	32393167 	eorscc	r3, r9, #-1073741799	; 0xc0000019
     738:	53432f30 	movtpl	r2, #16176	; 0x3f30
     73c:	4c303432 	cfldrsmi	mvf3, [r0], #-200	; 0xffffff38
     740:	73632f58 	cmnvc	r3, #88, 30	; 0x160
     744:	6c303432 	cfldrsvs	mvf3, [r0], #-200	; 0xffffff38
     748:	30322d78 	eorscc	r2, r2, r8, ror sp
     74c:	2f727073 	svccs	0x00727073
     750:	7062696c 	rsbvc	r6, r2, ip, ror #18
     754:	6e692f69 	cdpvs	15, 6, cr2, cr9, cr9, {3}
     758:	64756c63 	ldrbtvs	r6, [r5], #-3171	; 0xc63
     75c:	70000065 	andvc	r0, r0, r5, rrx
     760:	68637475 	stmdavs	r3!, {r0, r2, r4, r5, r6, sl, ip, sp, lr}^
     764:	632e7261 	teqvs	lr, #268435462	; 0x10000006
     768:	00000100 	andeq	r0, r0, r0, lsl #2
     76c:	2e697072 	mcrcs	0, 3, r7, cr9, cr2, {3}
     770:	00020068 	andeq	r0, r2, r8, rrx
     774:	05000000 	streq	r0, [r0, #-0]
     778:	008f3402 	addeq	r3, pc, r2, lsl #8
     77c:	6b4a1400 	blvs	1285784 <__bss_end__+0x127b00c>
     780:	0213bc13 	andseq	fp, r3, #4864	; 0x1300
     784:	01010008 	tsteq	r1, r8
     788:	000000a0 	andeq	r0, r0, r0, lsr #1
     78c:	00790002 	rsbseq	r0, r9, r2
     790:	01020000 	mrseq	r0, (UNDEF: 2)
     794:	000d0efb 	strdeq	r0, [sp], -fp
     798:	01010101 	tsteq	r1, r1, lsl #2
     79c:	01000000 	mrseq	r0, (UNDEF: 0)
     7a0:	6c010000 	stcvs	0, cr0, [r1], {-0}
     7a4:	00636269 	rsbeq	r6, r3, r9, ror #4
     7a8:	6573552f 	ldrbvs	r5, [r3, #-1327]!	; 0x52f
     7ac:	622f7372 	eorvs	r7, pc, #-939524095	; 0xc8000001
     7b0:	6e616972 	mcrvs	9, 3, r6, cr1, cr2, {3}
     7b4:	2f6e756a 	svccs	0x006e756a
     7b8:	6b736544 	blvs	1cd9cd0 <__bss_end__+0x1ccf558>
     7bc:	2f706f74 	svccs	0x00706f74
     7c0:	6f686373 	svcvs	0x00686373
     7c4:	532f6c6f 	teqpl	pc, #28416	; 0x6f00
     7c8:	6e697270 	mcrvs	2, 3, r7, cr9, cr0, {3}
     7cc:	32393167 	eorscc	r3, r9, #-1073741799	; 0xc0000019
     7d0:	53432f30 	movtpl	r2, #16176	; 0x3f30
     7d4:	4c303432 	cfldrsmi	mvf3, [r0], #-200	; 0xffffff38
     7d8:	73632f58 	cmnvc	r3, #88, 30	; 0x160
     7dc:	6c303432 	cfldrsvs	mvf3, [r0], #-200	; 0xffffff38
     7e0:	30322d78 	eorscc	r2, r2, r8, ror sp
     7e4:	2f727073 	svccs	0x00727073
     7e8:	7062696c 	rsbvc	r6, r2, ip, ror #18
     7ec:	6e692f69 	cdpvs	15, 6, cr2, cr9, cr9, {3}
     7f0:	64756c63 	ldrbtvs	r6, [r5], #-3171	; 0xc63
     7f4:	70000065 	andvc	r0, r0, r5, rrx
     7f8:	2e6b7475 	mcrcs	4, 3, r7, cr11, cr5, {3}
     7fc:	00010063 	andeq	r0, r1, r3, rrx
     800:	69707200 	ldmdbvs	r0!, {r9, ip, sp, lr}^
     804:	0200682e 	andeq	r6, r0, #3014656	; 0x2e0000
     808:	00000000 	andeq	r0, r0, r0
     80c:	8f700205 	svchi	0x00700205
     810:	4c150000 	ldcmi	0, cr0, [r5], {-0}
     814:	0402002d 	streq	r0, [r2], #-45	; 0x2d
     818:	02002f02 	andeq	r2, r0, #2, 30
     81c:	00490204 	subeq	r0, r9, r4, lsl #4
     820:	06010402 	streq	r0, [r1], -r2, lsl #8
     824:	026b062e 	rsbeq	r0, fp, #48234496	; 0x2e00000
     828:	01010006 	tsteq	r1, r6
     82c:	000001f1 	strdeq	r0, [r0], -r1
     830:	00e90002 	rsceq	r0, r9, r2
     834:	01020000 	mrseq	r0, (UNDEF: 2)
     838:	000d0efb 	strdeq	r0, [sp], -fp
     83c:	01010101 	tsteq	r1, r1, lsl #2
     840:	01000000 	mrseq	r0, (UNDEF: 0)
     844:	6c010000 	stcvs	0, cr0, [r1], {-0}
     848:	00636269 	rsbeq	r6, r3, r9, ror #4
     84c:	7273752f 	rsbsvc	r7, r3, #197132288	; 0xbc00000
     850:	636f6c2f 	cmnvs	pc, #12032	; 0x2f00
     854:	432f6c61 	teqmi	pc, #24832	; 0x6100
     858:	616c6c65 	cmnvs	ip, r5, ror #24
     85c:	72612f72 	rsbvc	r2, r1, #456	; 0x1c8
     860:	6f6e2d6d 	svcvs	0x006e2d6d
     864:	652d656e 	strvs	r6, [sp, #-1390]!	; 0x56e
     868:	2f696261 	svccs	0x00696261
     86c:	2e382e34 	mrccs	14, 1, r2, cr8, cr4, {1}
     870:	73632d33 	cmnvc	r3, #3264	; 0xcc0
     874:	65303731 	ldrvs	r3, [r0, #-1841]!	; 0x731
     878:	62696c2f 	rsbvs	r6, r9, #12032	; 0x2f00
     87c:	6363672f 	cmnvs	r3, #12320768	; 0xbc0000
     880:	6d72612f 	ldfvse	f6, [r2, #-188]!	; 0xffffff44
     884:	6e6f6e2d 	cdpvs	14, 6, cr6, cr15, cr13, {1}
     888:	61652d65 	cmnvs	r5, r5, ror #26
     88c:	342f6962 	strtcc	r6, [pc], #-2402	; 894 <__code_start__-0x776c>
     890:	332e382e 	teqcc	lr, #3014656	; 0x2e0000
     894:	636e692f 	cmnvs	lr, #770048	; 0xbc000
     898:	6564756c 	strbvs	r7, [r4, #-1388]!	; 0x56c
     89c:	73552f00 	cmpvc	r5, #0, 30
     8a0:	2f737265 	svccs	0x00737265
     8a4:	61697262 	cmnvs	r9, r2, ror #4
     8a8:	6e756a6e 	vsubvs.f32	s13, s10, s29
     8ac:	7365442f 	cmnvc	r5, #788529152	; 0x2f000000
     8b0:	706f746b 	rsbvc	r7, pc, fp, ror #8
     8b4:	6863732f 	stmdavs	r3!, {r0, r1, r2, r3, r5, r8, r9, ip, sp, lr}^
     8b8:	2f6c6f6f 	svccs	0x006c6f6f
     8bc:	69727053 	ldmdbvs	r2!, {r0, r1, r4, r6, ip, sp, lr}^
     8c0:	3931676e 	ldmdbcc	r1!, {r1, r2, r3, r5, r6, r8, r9, sl, sp, lr}
     8c4:	432f3032 	teqmi	pc, #50	; 0x32
     8c8:	30343253 	eorscc	r3, r4, r3, asr r2
     8cc:	632f584c 	teqvs	pc, #76, 16	; 0x4c0000
     8d0:	30343273 	eorscc	r3, r4, r3, ror r2
     8d4:	322d786c 	eorcc	r7, sp, #108, 16	; 0x6c0000
     8d8:	72707330 	rsbsvc	r7, r0, #48, 6	; 0xc0000000
     8dc:	62696c2f 	rsbvs	r6, r9, #12032	; 0x2f00
     8e0:	692f6970 	stmdbvs	pc!, {r4, r5, r6, r8, fp, sp, lr}	; <UNPREDICTABLE>
     8e4:	756c636e 	strbvc	r6, [ip, #-878]!	; 0x36e
     8e8:	00006564 	andeq	r6, r0, r4, ror #10
     8ec:	702d6176 	eorvc	r6, sp, r6, ror r1
     8f0:	746e6972 	strbtvc	r6, [lr], #-2418	; 0x972
     8f4:	00632e6b 	rsbeq	r2, r3, fp, ror #28
     8f8:	73000001 	movwvc	r0, #1
     8fc:	72616474 	rsbvc	r6, r1, #116, 8	; 0x74000000
     900:	00682e67 	rsbeq	r2, r8, r7, ror #28
     904:	72000002 	andvc	r0, r0, #2
     908:	682e6970 	stmdavs	lr!, {r4, r5, r6, r8, fp, sp, lr}
     90c:	00000300 	andeq	r0, r0, r0, lsl #6
     910:	6975623c 	ldmdbvs	r5!, {r2, r3, r4, r5, r9, sp, lr}^
     914:	692d746c 	pushvs	{r2, r3, r5, r6, sl, ip, sp, lr}
     918:	00003e6e 	andeq	r3, r0, lr, ror #28
     91c:	00000000 	andeq	r0, r0, r0
     920:	8fa40205 	svchi	0x00a40205
     924:	26030000 	strcs	r0, [r3], -r0
     928:	13a50101 			; <UNDEFINED> instruction: 0x13a50101
     92c:	02002d31 	andeq	r2, r0, #3136	; 0xc40
     930:	002f0204 	eoreq	r0, pc, r4, lsl #4
     934:	2d020402 	cfstrscs	mvf0, [r2, #-8]
     938:	02040200 	andeq	r0, r4, #0, 4
     93c:	0402002f 	streq	r0, [r2], #-47	; 0x2f
     940:	4c4c2d01 	mcrrmi	13, 0, r2, ip, cr1
     944:	2f4b1430 	svccs	0x004b1430
     948:	0402004f 	streq	r0, [r2], #-79	; 0x4f
     94c:	02006702 	andeq	r6, r0, #524288	; 0x80000
     950:	4c650104 	stfmie	f0, [r5], #-16
     954:	2fa0304d 	svccs	0x00a0304d
     958:	26023031 			; <UNDEFINED> instruction: 0x26023031
     95c:	2c2d8416 	cfstrscs	mvf8, [sp], #-88	; 0xffffffa8
     960:	01040200 	mrseq	r0, R12_usr
     964:	04020030 	streq	r0, [r2], #-48	; 0x30
     968:	66063301 	strvs	r3, [r6], -r1, lsl #6
     96c:	01040200 	mrseq	r0, R12_usr
     970:	0402002e 	streq	r0, [r2], #-46	; 0x2e
     974:	21080601 	tstcs	r8, r1, lsl #12
     978:	73032f67 	movwvc	r2, #16231	; 0x3f67
     97c:	2e130382 	cdpcs	3, 1, cr0, cr3, cr2, {4}
     980:	01040200 	mrseq	r0, R12_usr
     984:	02006606 	andeq	r6, r0, #6291456	; 0x600000
     988:	83060104 	movwhi	r0, #24836	; 0x6104
     98c:	31674b4b 	cmncc	r7, fp, asr #22
     990:	2e65034b 	cdpcs	3, 6, cr0, cr5, cr11, {2}
     994:	002e2303 	eoreq	r2, lr, r3, lsl #6
     998:	06010402 	streq	r0, [r1], -r2, lsl #8
     99c:	0402002e 	streq	r0, [r2], #-46	; 0x2e
     9a0:	009f0601 	addseq	r0, pc, r1, lsl #12
     9a4:	6a010402 	bvs	419b4 <__bss_end__+0x3723c>
     9a8:	03d72308 	bicseq	r2, r7, #8, 6	; 0x20000000
     9ac:	3c087fa4 	stccc	15, cr7, [r8], {164}	; 0xa4
     9b0:	0402004b 	streq	r0, [r2], #-75	; 0x4b
     9b4:	064a0601 	strbeq	r0, [sl], -r1, lsl #12
     9b8:	2f4b2108 	svccs	0x004b2108
     9bc:	00db034b 	sbcseq	r0, fp, fp, asr #6
     9c0:	484c9ff2 	stmdami	ip, {r1, r4, r5, r6, r7, r8, r9, sl, fp, ip, pc}^
     9c4:	842f4b32 	strthi	r4, [pc], #-2866	; 9cc <__code_start__-0x7634>
     9c8:	4d2d2f4b 	stcmi	15, cr2, [sp, #-300]!	; 0xfffffed4
     9cc:	832f3031 	teqhi	pc, #49	; 0x31
     9d0:	01040200 	mrseq	r0, R12_usr
     9d4:	0200be2c 	andeq	fp, r0, #44, 28	; 0x2c0
     9d8:	4a060104 	bmi	180df0 <__bss_end__+0x176678>
     9dc:	02220806 	eoreq	r0, r2, #393216	; 0x60000
     9e0:	0e031636 	mcreq	6, 0, r1, cr3, cr6, {1}
     9e4:	302108d6 	ldrdcc	r0, [r1], -r6	; <UNPREDICTABLE>
     9e8:	08312108 	ldmdaeq	r1!, {r3, r8, sp}
     9ec:	21083021 	tstcs	r8, r1, lsr #32
     9f0:	08304b30 	ldmdaeq	r0!, {r4, r5, r8, r9, fp, lr}
     9f4:	834b3021 	movthi	r3, #45089	; 0xb021
     9f8:	2f31d983 	svccs	0x0031d983
     9fc:	01040200 	mrseq	r0, R12_usr
     a00:	04020065 	streq	r0, [r2], #-101	; 0x65
     a04:	004a0602 	subeq	r0, sl, r2, lsl #12
     a08:	06010402 	streq	r0, [r1], -r2, lsl #8
     a0c:	667fbf03 	ldrbtvs	fp, [pc], -r3, lsl #30
     a10:	02040200 	andeq	r0, r4, #0, 4
     a14:	03066606 	movweq	r6, #26118	; 0x6606
     a18:	684a00c5 	stmdavs	sl, {r0, r2, r6, r7}^
     a1c:	01001602 	tsteq	r0, r2, lsl #12
     a20:	00004201 	andeq	r4, r0, r1, lsl #4
     a24:	28000200 	stmdacs	r0, {r9}
     a28:	02000000 	andeq	r0, r0, #0
     a2c:	0d0efb01 	vstreq	d15, [lr, #-4]
     a30:	01010100 	mrseq	r0, (UNDEF: 17)
     a34:	00000001 	andeq	r0, r0, r1
     a38:	01000001 	tsteq	r0, r1
     a3c:	66617473 			; <UNDEFINED> instruction: 0x66617473
     a40:	72732d66 	rsbsvc	r2, r3, #6528	; 0x1980
     a44:	63000063 	movwvs	r0, #99	; 0x63
     a48:	65686361 	strbvs	r6, [r8, #-865]!	; 0x361
     a4c:	0100632e 	tsteq	r0, lr, lsr #6
     a50:	00000000 	andeq	r0, r0, r0
     a54:	951c0205 	ldrls	r0, [ip, #-517]	; 0x205
     a58:	14140000 	ldrne	r0, [r4], #-0
     a5c:	144e2f30 	strbne	r2, [lr], #-3888	; 0xf30
     a60:	04022f31 	streq	r2, [r2], #-3889	; 0xf31
     a64:	9d010100 	stflss	f0, [r1, #-0]
     a68:	02000000 	andeq	r0, r0, #0
     a6c:	00008600 	andeq	r8, r0, r0, lsl #12
     a70:	fb010200 	blx	4127a <__bss_end__+0x36b02>
     a74:	01000d0e 	tsteq	r0, lr, lsl #26
     a78:	00010101 	andeq	r0, r1, r1, lsl #2
     a7c:	00010000 	andeq	r0, r1, r0
     a80:	74730100 	ldrbtvc	r0, [r3], #-256	; 0x100
     a84:	2d666661 	stclcs	6, cr6, [r6, #-388]!	; 0xfffffe7c
     a88:	00637273 	rsbeq	r7, r3, r3, ror r2
     a8c:	6573552f 	ldrbvs	r5, [r3, #-1327]!	; 0x52f
     a90:	622f7372 	eorvs	r7, pc, #-939524095	; 0xc8000001
     a94:	6e616972 	mcrvs	9, 3, r6, cr1, cr2, {3}
     a98:	2f6e756a 	svccs	0x006e756a
     a9c:	6b736544 	blvs	1cd9fb4 <__bss_end__+0x1ccf83c>
     aa0:	2f706f74 	svccs	0x00706f74
     aa4:	6f686373 	svcvs	0x00686373
     aa8:	532f6c6f 	teqpl	pc, #28416	; 0x6f00
     aac:	6e697270 	mcrvs	2, 3, r7, cr9, cr0, {3}
     ab0:	32393167 	eorscc	r3, r9, #-1073741799	; 0xc0000019
     ab4:	53432f30 	movtpl	r2, #16176	; 0x3f30
     ab8:	4c303432 	cfldrsmi	mvf3, [r0], #-200	; 0xffffff38
     abc:	73632f58 	cmnvc	r3, #88, 30	; 0x160
     ac0:	6c303432 	cfldrsvs	mvf3, [r0], #-200	; 0xffffff38
     ac4:	30322d78 	eorscc	r2, r2, r8, ror sp
     ac8:	2f727073 	svccs	0x00727073
     acc:	7062696c 	rsbvc	r6, r2, ip, ror #18
     ad0:	6e692f69 	cdpvs	15, 6, cr2, cr9, cr9, {3}
     ad4:	64756c63 	ldrbtvs	r6, [r5], #-3171	; 0xc63
     ad8:	63000065 	movwvs	r0, #101	; 0x65
     adc:	6e61656c 	cdpvs	5, 6, cr6, cr1, cr12, {3}
     ae0:	6265722d 	rsbvs	r7, r5, #-805306366	; 0xd0000002
     ae4:	2e746f6f 	cdpcs	15, 7, cr6, cr4, cr15, {3}
     ae8:	00010063 	andeq	r0, r1, r3, rrx
     aec:	69707200 	ldmdbvs	r0!, {r9, ip, sp, lr}^
     af0:	0200682e 	andeq	r6, r0, #3014656	; 0x2e0000
     af4:	00000000 	andeq	r0, r0, r0
     af8:	953c0205 	ldrls	r0, [ip, #-517]!	; 0x205
     afc:	2f150000 	svccs	0x00150000
     b00:	024b832f 	subeq	r8, fp, #-1140850688	; 0xbc000000
     b04:	01010006 	tsteq	r1, r6
     b08:	000000a6 	andeq	r0, r0, r6, lsr #1
     b0c:	00800002 	addeq	r0, r0, r2
     b10:	01020000 	mrseq	r0, (UNDEF: 2)
     b14:	000d0efb 	strdeq	r0, [sp], -fp
     b18:	01010101 	tsteq	r1, r1, lsl #2
     b1c:	01000000 	mrseq	r0, (UNDEF: 0)
     b20:	73010000 	movwvc	r0, #4096	; 0x1000
     b24:	66666174 			; <UNDEFINED> instruction: 0x66666174
     b28:	6372732d 	cmnvs	r2, #-1275068416	; 0xb4000000
     b2c:	73552f00 	cmpvc	r5, #0, 30
     b30:	2f737265 	svccs	0x00737265
     b34:	61697262 	cmnvs	r9, r2, ror #4
     b38:	6e756a6e 	vsubvs.f32	s13, s10, s29
     b3c:	7365442f 	cmnvc	r5, #788529152	; 0x2f000000
     b40:	706f746b 	rsbvc	r7, pc, fp, ror #8
     b44:	6863732f 	stmdavs	r3!, {r0, r1, r2, r3, r5, r8, r9, ip, sp, lr}^
     b48:	2f6c6f6f 	svccs	0x006c6f6f
     b4c:	69727053 	ldmdbvs	r2!, {r0, r1, r4, r6, ip, sp, lr}^
     b50:	3931676e 	ldmdbcc	r1!, {r1, r2, r3, r5, r6, r8, r9, sl, sp, lr}
     b54:	432f3032 	teqmi	pc, #50	; 0x32
     b58:	30343253 	eorscc	r3, r4, r3, asr r2
     b5c:	632f584c 	teqvs	pc, #76, 16	; 0x4c0000
     b60:	30343273 	eorscc	r3, r4, r3, ror r2
     b64:	322d786c 	eorcc	r7, sp, #108, 16	; 0x6c0000
     b68:	72707330 	rsbsvc	r7, r0, #48, 6	; 0xc0000000
     b6c:	62696c2f 	rsbvs	r6, r9, #12032	; 0x2f00
     b70:	692f6970 	stmdbvs	pc!, {r4, r5, r6, r8, fp, sp, lr}	; <UNPREDICTABLE>
     b74:	756c636e 	strbvc	r6, [ip, #-878]!	; 0x36e
     b78:	00006564 	andeq	r6, r0, r4, ror #10
     b7c:	61747363 	cmnvs	r4, r3, ror #6
     b80:	632e7472 	teqvs	lr, #1912602624	; 0x72000000
     b84:	00000100 	andeq	r0, r0, r0, lsl #2
     b88:	2e697072 	mcrcs	0, 3, r7, cr9, cr2, {3}
     b8c:	00020068 	andeq	r0, r2, r8, rrx
     b90:	05000000 	streq	r0, [r0, #-0]
     b94:	00956802 	addseq	r6, r5, r2, lsl #16
     b98:	010c0300 	mrseq	r0, LR_mon
     b9c:	2d2f3132 	stfcss	f3, [pc, #-200]!	; adc <__code_start__-0x7524>
     ba0:	0402002f 	streq	r0, [r2], #-47	; 0x2f
     ba4:	09034901 	stmdbeq	r3, {r0, r8, fp, lr}
     ba8:	2e0d034a 	cdpcs	3, 0, cr0, cr13, cr10, {2}
     bac:	0006022f 	andeq	r0, r6, pc, lsr #4
     bb0:	00a20101 	adceq	r0, r2, r1, lsl #2
     bb4:	00020000 	andeq	r0, r2, r0
     bb8:	0000008e 	andeq	r0, r0, lr, lsl #1
     bbc:	0efb0102 	cdpeq	1, 15, cr0, cr11, cr2, {0}
     bc0:	0101000d 	tsteq	r1, sp
     bc4:	00000101 	andeq	r0, r0, r1, lsl #2
     bc8:	00000100 	andeq	r0, r0, r0, lsl #2
     bcc:	61747301 	cmnvs	r4, r1, lsl #6
     bd0:	732d6666 	teqvc	sp, #106954752	; 0x6600000
     bd4:	2f006372 	svccs	0x00006372
     bd8:	72657355 	rsbvc	r7, r5, #1409286145	; 0x54000001
     bdc:	72622f73 	rsbvc	r2, r2, #460	; 0x1cc
     be0:	6a6e6169 	bvs	1b9918c <__bss_end__+0x1b8ea14>
     be4:	442f6e75 	strtmi	r6, [pc], #-3701	; bec <__code_start__-0x7414>
     be8:	746b7365 	strbtvc	r7, [fp], #-869	; 0x365
     bec:	732f706f 	teqvc	pc, #111	; 0x6f
     bf0:	6f6f6863 	svcvs	0x006f6863
     bf4:	70532f6c 	subsvc	r2, r3, ip, ror #30
     bf8:	676e6972 			; <UNDEFINED> instruction: 0x676e6972
     bfc:	30323931 	eorscc	r3, r2, r1, lsr r9
     c00:	3253432f 	subscc	r4, r3, #-1140850688	; 0xbc000000
     c04:	584c3034 	stmdapl	ip, {r2, r4, r5, ip, sp}^
     c08:	3273632f 	rsbscc	r6, r3, #-1140850688	; 0xbc000000
     c0c:	786c3034 	stmdavc	ip!, {r2, r4, r5, ip, sp}^
     c10:	7330322d 	teqvc	r0, #-805306366	; 0xd0000002
     c14:	6c2f7270 	sfmvs	f7, 4, [pc], #-448	; a5c <__code_start__-0x75a4>
     c18:	69706269 	ldmdbvs	r0!, {r0, r3, r5, r6, r9, sp, lr}^
     c1c:	636e692f 	cmnvs	lr, #770048	; 0xbc000
     c20:	6564756c 	strbvs	r7, [r4, #-1388]!	; 0x56c
     c24:	65640000 	strbvs	r0, [r4, #-0]!
     c28:	6c756166 	ldfvse	f6, [r5], #-408	; 0xfffffe68
     c2c:	61682d74 	smcvs	33492	; 0x82d4
     c30:	656c646e 	strbvs	r6, [ip, #-1134]!	; 0x46e
     c34:	61662d72 	smcvs	25298	; 0x62d2
     c38:	632e7473 	teqvs	lr, #1929379840	; 0x73000000
     c3c:	00000100 	andeq	r0, r0, r0, lsl #2
     c40:	2e697072 	mcrcs	0, 3, r7, cr9, cr2, {3}
     c44:	00020068 	andeq	r0, r2, r8, rrx
     c48:	05000000 	streq	r0, [r0, #-0]
     c4c:	0095a002 	addseq	sl, r5, r2
     c50:	02661300 	rsbeq	r1, r6, #0, 6
     c54:	0101001c 	tsteq	r1, ip, lsl r0
     c58:	000000a3 	andeq	r0, r0, r3, lsr #1
     c5c:	008f0002 	addeq	r0, pc, r2
     c60:	01020000 	mrseq	r0, (UNDEF: 2)
     c64:	000d0efb 	strdeq	r0, [sp], -fp
     c68:	01010101 	tsteq	r1, r1, lsl #2
     c6c:	01000000 	mrseq	r0, (UNDEF: 0)
     c70:	73010000 	movwvc	r0, #4096	; 0x1000
     c74:	66666174 			; <UNDEFINED> instruction: 0x66666174
     c78:	6372732d 	cmnvs	r2, #-1275068416	; 0xb4000000
     c7c:	73552f00 	cmpvc	r5, #0, 30
     c80:	2f737265 	svccs	0x00737265
     c84:	61697262 	cmnvs	r9, r2, ror #4
     c88:	6e756a6e 	vsubvs.f32	s13, s10, s29
     c8c:	7365442f 	cmnvc	r5, #788529152	; 0x2f000000
     c90:	706f746b 	rsbvc	r7, pc, fp, ror #8
     c94:	6863732f 	stmdavs	r3!, {r0, r1, r2, r3, r5, r8, r9, ip, sp, lr}^
     c98:	2f6c6f6f 	svccs	0x006c6f6f
     c9c:	69727053 	ldmdbvs	r2!, {r0, r1, r4, r6, ip, sp, lr}^
     ca0:	3931676e 	ldmdbcc	r1!, {r1, r2, r3, r5, r6, r8, r9, sl, sp, lr}
     ca4:	432f3032 	teqmi	pc, #50	; 0x32
     ca8:	30343253 	eorscc	r3, r4, r3, asr r2
     cac:	632f584c 	teqvs	pc, #76, 16	; 0x4c0000
     cb0:	30343273 	eorscc	r3, r4, r3, ror r2
     cb4:	322d786c 	eorcc	r7, sp, #108, 16	; 0x6c0000
     cb8:	72707330 	rsbsvc	r7, r0, #48, 6	; 0xc0000000
     cbc:	62696c2f 	rsbvs	r6, r9, #12032	; 0x2f00
     cc0:	692f6970 	stmdbvs	pc!, {r4, r5, r6, r8, fp, sp, lr}	; <UNPREDICTABLE>
     cc4:	756c636e 	strbvc	r6, [ip, #-878]!	; 0x36e
     cc8:	00006564 	andeq	r6, r0, r4, ror #10
     ccc:	61666564 	cmnvs	r6, r4, ror #10
     cd0:	2d746c75 	ldclcs	12, cr6, [r4, #-468]!	; 0xfffffe2c
     cd4:	646e6168 	strbtvs	r6, [lr], #-360	; 0x168
     cd8:	2d72656c 	cfldr64cs	mvdx6, [r2, #-432]!	; 0xfffffe50
     cdc:	65736572 	ldrbvs	r6, [r3, #-1394]!	; 0x572
     ce0:	00632e74 	rsbeq	r2, r3, r4, ror lr
     ce4:	72000001 	andvc	r0, r0, #1
     ce8:	682e6970 	stmdavs	lr!, {r4, r5, r6, r8, fp, sp, lr}
     cec:	00000200 	andeq	r0, r0, r0, lsl #4
     cf0:	02050000 	andeq	r0, r5, #0
     cf4:	000095e4 	andeq	r9, r0, r4, ror #11
     cf8:	1c026613 	stcne	6, cr6, [r2], {19}
     cfc:	ac010100 	stfges	f0, [r1], {-0}
     d00:	02000000 	andeq	r0, r0, #0
     d04:	00009800 	andeq	r9, r0, r0, lsl #16
     d08:	fb010200 	blx	41512 <__bss_end__+0x36d9a>
     d0c:	01000d0e 	tsteq	r0, lr, lsl #26
     d10:	00010101 	andeq	r0, r1, r1, lsl #2
     d14:	00010000 	andeq	r0, r1, r0
     d18:	74730100 	ldrbtvc	r0, [r3], #-256	; 0x100
     d1c:	2d666661 	stclcs	6, cr6, [r6, #-388]!	; 0xfffffe7c
     d20:	00637273 	rsbeq	r7, r3, r3, ror r2
     d24:	6573552f 	ldrbvs	r5, [r3, #-1327]!	; 0x52f
     d28:	622f7372 	eorvs	r7, pc, #-939524095	; 0xc8000001
     d2c:	6e616972 	mcrvs	9, 3, r6, cr1, cr2, {3}
     d30:	2f6e756a 	svccs	0x006e756a
     d34:	6b736544 	blvs	1cda24c <__bss_end__+0x1ccfad4>
     d38:	2f706f74 	svccs	0x00706f74
     d3c:	6f686373 	svcvs	0x00686373
     d40:	532f6c6f 	teqpl	pc, #28416	; 0x6f00
     d44:	6e697270 	mcrvs	2, 3, r7, cr9, cr0, {3}
     d48:	32393167 	eorscc	r3, r9, #-1073741799	; 0xc0000019
     d4c:	53432f30 	movtpl	r2, #16176	; 0x3f30
     d50:	4c303432 	cfldrsmi	mvf3, [r0], #-200	; 0xffffff38
     d54:	73632f58 	cmnvc	r3, #88, 30	; 0x160
     d58:	6c303432 	cfldrsvs	mvf3, [r0], #-200	; 0xffffff38
     d5c:	30322d78 	eorscc	r2, r2, r8, ror sp
     d60:	2f727073 	svccs	0x00727073
     d64:	7062696c 	rsbvc	r6, r2, ip, ror #18
     d68:	6e692f69 	cdpvs	15, 6, cr2, cr9, cr9, {3}
     d6c:	64756c63 	ldrbtvs	r6, [r5], #-3171	; 0xc63
     d70:	64000065 	strvs	r0, [r0], #-101	; 0x65
     d74:	75616665 	strbvc	r6, [r1, #-1637]!	; 0x665
     d78:	682d746c 	stmdavs	sp!, {r2, r3, r5, r6, sl, ip, sp, lr}
     d7c:	6c646e61 	stclvs	14, cr6, [r4], #-388	; 0xfffffe7c
     d80:	752d7265 	strvc	r7, [sp, #-613]!	; 0x265
     d84:	6665646e 	strbtvs	r6, [r5], -lr, ror #8
     d88:	64656e69 	strbtvs	r6, [r5], #-3689	; 0xe69
     d8c:	736e692d 	cmnvc	lr, #737280	; 0xb4000
     d90:	00632e74 	rsbeq	r2, r3, r4, ror lr
     d94:	72000001 	andvc	r0, r0, #1
     d98:	682e6970 	stmdavs	lr!, {r4, r5, r6, r8, fp, sp, lr}
     d9c:	00000200 	andeq	r0, r0, r0, lsl #4
     da0:	02050000 	andeq	r0, r5, #0
     da4:	00009628 	andeq	r9, r0, r8, lsr #12
     da8:	1c026613 	stcne	6, cr6, [r2], {19}
     dac:	47010100 	strmi	r0, [r1, -r0, lsl #2]
     db0:	02000000 	andeq	r0, r0, #0
     db4:	00003300 	andeq	r3, r0, r0, lsl #6
     db8:	fb010200 	blx	415c2 <__bss_end__+0x36e4a>
     dbc:	01000d0e 	tsteq	r0, lr, lsl #26
     dc0:	00010101 	andeq	r0, r1, r1, lsl #2
     dc4:	00010000 	andeq	r0, r1, r0
     dc8:	74730100 	ldrbtvc	r0, [r3], #-256	; 0x100
     dcc:	2d666661 	stclcs	6, cr6, [r6, #-388]!	; 0xfffffe7c
     dd0:	00637273 	rsbeq	r7, r3, r3, ror r2
     dd4:	66656400 	strbtvs	r6, [r5], -r0, lsl #8
     dd8:	746c7561 	strbtvc	r7, [ip], #-1377	; 0x561
     ddc:	6e61682d 	cdpvs	8, 6, cr6, cr1, cr13, {1}
     de0:	72656c64 	rsbvc	r6, r5, #100, 24	; 0x6400
     de4:	00632e73 	rsbeq	r2, r3, r3, ror lr
     de8:	00000001 	andeq	r0, r0, r1
     dec:	6c020500 	cfstr32vs	mvfx0, [r2], {-0}
     df0:	15000096 	strne	r0, [r0, #-150]	; 0x96
     df4:	0002022f 	andeq	r0, r2, pc, lsr #4
     df8:	00c90101 	sbceq	r0, r9, r1, lsl #2
     dfc:	00020000 	andeq	r0, r2, r0
     e00:	0000009a 	muleq	r0, sl, r0
     e04:	0efb0102 	cdpeq	1, 15, cr0, cr11, cr2, {0}
     e08:	0101000d 	tsteq	r1, sp
     e0c:	00000101 	andeq	r0, r0, r1, lsl #2
     e10:	00000100 	andeq	r0, r0, r0, lsl #2
     e14:	61747301 	cmnvs	r4, r1, lsl #6
     e18:	732d6666 	teqvc	sp, #106954752	; 0x6600000
     e1c:	2f006372 	svccs	0x00006372
     e20:	72657355 	rsbvc	r7, r5, #1409286145	; 0x54000001
     e24:	72622f73 	rsbvc	r2, r2, #460	; 0x1cc
     e28:	6a6e6169 	bvs	1b993d4 <__bss_end__+0x1b8ec5c>
     e2c:	442f6e75 	strtmi	r6, [pc], #-3701	; e34 <__code_start__-0x71cc>
     e30:	746b7365 	strbtvc	r7, [fp], #-869	; 0x365
     e34:	732f706f 	teqvc	pc, #111	; 0x6f
     e38:	6f6f6863 	svcvs	0x006f6863
     e3c:	70532f6c 	subsvc	r2, r3, ip, ror #30
     e40:	676e6972 			; <UNDEFINED> instruction: 0x676e6972
     e44:	30323931 	eorscc	r3, r2, r1, lsr r9
     e48:	3253432f 	subscc	r4, r3, #-1140850688	; 0xbc000000
     e4c:	584c3034 	stmdapl	ip, {r2, r4, r5, ip, sp}^
     e50:	3273632f 	rsbscc	r6, r3, #-1140850688	; 0xbc000000
     e54:	786c3034 	stmdavc	ip!, {r2, r4, r5, ip, sp}^
     e58:	7330322d 	teqvc	r0, #-805306366	; 0xd0000002
     e5c:	6c2f7270 	sfmvs	f7, 4, [pc], #-448	; ca4 <__code_start__-0x735c>
     e60:	69706269 	ldmdbvs	r0!, {r0, r3, r5, r6, r9, sp, lr}^
     e64:	636e692f 	cmnvs	lr, #770048	; 0xbc000
     e68:	6564756c 	strbvs	r7, [r4, #-1388]!	; 0x56c
     e6c:	6e690000 	cdpvs	0, 6, cr0, cr9, cr0, {0}
     e70:	72726574 	rsbsvc	r6, r2, #116, 10	; 0x1d000000
     e74:	73747075 	cmnvc	r4, #117	; 0x75
     e78:	632e632d 	teqvs	lr, #-1275068416	; 0xb4000000
     e7c:	00000100 	andeq	r0, r0, r0, lsl #2
     e80:	2d697072 	stclcs	0, cr7, [r9, #-456]!	; 0xfffffe38
     e84:	65746e69 	ldrbvs	r6, [r4, #-3689]!	; 0xe69
     e88:	70757272 	rsbsvc	r7, r5, r2, ror r2
     e8c:	682e7374 	stmdavs	lr!, {r2, r4, r5, r6, r8, r9, ip, sp, lr}
     e90:	00000200 	andeq	r0, r0, r0, lsl #4
     e94:	2e697072 	mcrcs	0, 3, r7, cr9, cr2, {3}
     e98:	00020068 	andeq	r0, r2, r8, rrx
     e9c:	05000000 	streq	r0, [r0, #-0]
     ea0:	00967402 	addseq	r7, r6, r2, lsl #8
     ea4:	011a0300 	tsteq	sl, r0, lsl #6
     ea8:	67672f31 			; <UNDEFINED> instruction: 0x67672f31
     eac:	2d2f8336 	stccs	3, cr8, [pc, #-216]!	; ddc <__code_start__-0x7224>
     eb0:	02040200 	andeq	r0, r4, #0, 4
     eb4:	0402002f 	streq	r0, [r2], #-47	; 0x2f
     eb8:	02006502 	andeq	r6, r0, #8388608	; 0x800000
     ebc:	2e060104 	adfcss	f0, f6, f4
     ec0:	0a024c06 	beq	93ee0 <__bss_end__+0x89768>
     ec4:	a2010100 	andge	r0, r1, #0, 2
     ec8:	02000000 	andeq	r0, r0, #0
     ecc:	00008000 	andeq	r8, r0, r0
     ed0:	fb010200 	blx	416da <__bss_end__+0x36f62>
     ed4:	01000d0e 	tsteq	r0, lr, lsl #26
     ed8:	00010101 	andeq	r0, r1, r1, lsl #2
     edc:	00010000 	andeq	r0, r1, r0
     ee0:	74730100 	ldrbtvc	r0, [r3], #-256	; 0x100
     ee4:	2d666661 	stclcs	6, cr6, [r6, #-388]!	; 0xfffffe7c
     ee8:	00637273 	rsbeq	r7, r3, r3, ror r2
     eec:	6573552f 	ldrbvs	r5, [r3, #-1327]!	; 0x52f
     ef0:	622f7372 	eorvs	r7, pc, #-939524095	; 0xc8000001
     ef4:	6e616972 	mcrvs	9, 3, r6, cr1, cr2, {3}
     ef8:	2f6e756a 	svccs	0x006e756a
     efc:	6b736544 	blvs	1cda414 <__bss_end__+0x1ccfc9c>
     f00:	2f706f74 	svccs	0x00706f74
     f04:	6f686373 	svcvs	0x00686373
     f08:	532f6c6f 	teqpl	pc, #28416	; 0x6f00
     f0c:	6e697270 	mcrvs	2, 3, r7, cr9, cr0, {3}
     f10:	32393167 	eorscc	r3, r9, #-1073741799	; 0xc0000019
     f14:	53432f30 	movtpl	r2, #16176	; 0x3f30
     f18:	4c303432 	cfldrsmi	mvf3, [r0], #-200	; 0xffffff38
     f1c:	73632f58 	cmnvc	r3, #88, 30	; 0x160
     f20:	6c303432 	cfldrsvs	mvf3, [r0], #-200	; 0xffffff38
     f24:	30322d78 	eorscc	r2, r2, r8, ror sp
     f28:	2f727073 	svccs	0x00727073
     f2c:	7062696c 	rsbvc	r6, r2, ip, ror #18
     f30:	6e692f69 	cdpvs	15, 6, cr2, cr9, cr9, {3}
     f34:	64756c63 	ldrbtvs	r6, [r5], #-3171	; 0xc63
     f38:	72000065 	andvc	r0, r0, #101	; 0x65
     f3c:	6f6f6265 	svcvs	0x006f6265
     f40:	00632e74 	rsbeq	r2, r3, r4, ror lr
     f44:	72000001 	andvc	r0, r0, #1
     f48:	682e6970 	stmdavs	lr!, {r4, r5, r6, r8, fp, sp, lr}
     f4c:	00000200 	andeq	r0, r0, r0, lsl #4
     f50:	02050000 	andeq	r0, r5, #0
     f54:	000096e0 	andeq	r9, r0, r0, ror #13
     f58:	14010d03 	strne	r0, [r1], #-3331	; 0xd03
     f5c:	15852f31 	strne	r2, [r5, #3889]	; 0xf31
     f60:	2f4d4b2f 	svccs	0x004d4b2f
     f64:	67523567 	ldrbvs	r3, [r2, -r7, ror #10]
     f68:	01001002 	tsteq	r0, r2
     f6c:	0000ae01 	andeq	sl, r0, r1, lsl #28
     f70:	7f000200 	svcvc	0x00000200
     f74:	02000000 	andeq	r0, r0, #0
     f78:	0d0efb01 	vstreq	d15, [lr, #-4]
     f7c:	01010100 	mrseq	r0, (UNDEF: 17)
     f80:	00000001 	andeq	r0, r0, r1
     f84:	01000001 	tsteq	r0, r1
     f88:	66617473 			; <UNDEFINED> instruction: 0x66617473
     f8c:	72732d66 	rsbsvc	r2, r3, #6528	; 0x1980
     f90:	552f0063 	strpl	r0, [pc, #-99]!	; f35 <__code_start__-0x70cb>
     f94:	73726573 	cmnvc	r2, #482344960	; 0x1cc00000
     f98:	6972622f 	ldmdbvs	r2!, {r0, r1, r2, r3, r5, r9, sp, lr}^
     f9c:	756a6e61 	strbvc	r6, [sl, #-3681]!	; 0xe61
     fa0:	65442f6e 	strbvs	r2, [r4, #-3950]	; 0xf6e
     fa4:	6f746b73 	svcvs	0x00746b73
     fa8:	63732f70 	cmnvs	r3, #112, 30	; 0x1c0
     fac:	6c6f6f68 	stclvs	15, cr6, [pc], #-416	; e14 <__code_start__-0x71ec>
     fb0:	7270532f 	rsbsvc	r5, r0, #-1140850688	; 0xbc000000
     fb4:	31676e69 	cmncc	r7, r9, ror #28
     fb8:	2f303239 	svccs	0x00303239
     fbc:	34325343 	ldrtcc	r5, [r2], #-835	; 0x343
     fc0:	2f584c30 	svccs	0x00584c30
     fc4:	34327363 	ldrtcc	r7, [r2], #-867	; 0x363
     fc8:	2d786c30 	ldclcs	12, cr6, [r8, #-192]!	; 0xffffff40
     fcc:	70733032 	rsbsvc	r3, r3, r2, lsr r0
     fd0:	696c2f72 	stmdbvs	ip!, {r1, r4, r5, r6, r8, r9, sl, fp, sp}^
     fd4:	2f697062 	svccs	0x00697062
     fd8:	6c636e69 	stclvs	14, cr6, [r3], #-420	; 0xfffffe5c
     fdc:	00656475 	rsbeq	r6, r5, r5, ror r4
     fe0:	6d697400 	cfstrdvs	mvd7, [r9, #-0]
     fe4:	632e7265 	teqvs	lr, #1342177286	; 0x50000006
     fe8:	00000100 	andeq	r0, r0, r0, lsl #2
     fec:	2e697072 	mcrcs	0, 3, r7, cr9, cr2, {3}
     ff0:	00020068 	andeq	r0, r2, r8, rrx
     ff4:	05000000 	streq	r0, [r0, #-0]
     ff8:	00975402 	addseq	r5, r7, r2, lsl #8
     ffc:	2f141600 	svccs	0x00141600
    1000:	0402002d 	streq	r0, [r2], #-45	; 0x2d
    1004:	062e0601 	strteq	r0, [lr], -r1, lsl #12
    1008:	4b2f316d 	blmi	bcd5c4 <__bss_end__+0xbc2e4c>
    100c:	4b2f314d 	blmi	bcd548 <__bss_end__+0xbc2dd0>
    1010:	4c4b4c30 	mcrrmi	12, 3, r4, fp, cr0
    1014:	2f2f6a2f 	svccs	0x002f6a2f
    1018:	08022f84 	stmdaeq	r2, {r2, r7, r8, r9, sl, fp, sp}
    101c:	48010100 	stmdami	r1, {r8}
    1020:	02000001 	andeq	r0, r0, #1
    1024:	00010200 	andeq	r0, r1, r0, lsl #4
    1028:	fb010200 	blx	41832 <__bss_end__+0x370ba>
    102c:	01000d0e 	tsteq	r0, lr, lsl #26
    1030:	00010101 	andeq	r0, r1, r1, lsl #2
    1034:	00010000 	andeq	r0, r1, r0
    1038:	752f0100 	strvc	r0, [pc, #-256]!	; f40 <__code_start__-0x70c0>
    103c:	692f7273 	stmdbvs	pc!, {r0, r1, r4, r5, r6, r9, ip, sp, lr}	; <UNPREDICTABLE>
    1040:	756c636e 	strbvc	r6, [ip, #-878]!	; 0x36e
    1044:	6e2f6564 	cfsh64vs	mvdx6, mvdx15, #52
    1048:	696c7765 	stmdbvs	ip!, {r0, r2, r5, r6, r8, r9, sl, ip, sp, lr}^
    104c:	79732f62 	ldmdbvc	r3!, {r1, r5, r6, r8, r9, sl, fp, sp}^
    1050:	752f0073 	strvc	r0, [pc, #-115]!	; fe5 <__code_start__-0x701b>
    1054:	6c2f7273 	sfmvs	f7, 4, [pc], #-460	; e90 <__code_start__-0x7170>
    1058:	672f6269 	strvs	r6, [pc, -r9, ror #4]!
    105c:	612f6363 	teqvs	pc, r3, ror #6
    1060:	6e2d6d72 	mcrvs	13, 1, r6, cr13, cr2, {3}
    1064:	2d656e6f 	stclcs	14, cr6, [r5, #-444]!	; 0xfffffe44
    1068:	69626165 	stmdbvs	r2!, {r0, r2, r5, r6, r8, sp, lr}^
    106c:	332e362f 	teqcc	lr, #49283072	; 0x2f00000
    1070:	692f312e 	stmdbvs	pc!, {r1, r2, r3, r5, r8, ip, sp}	; <UNPREDICTABLE>
    1074:	756c636e 	strbvc	r6, [ip, #-878]!	; 0x36e
    1078:	2f006564 	svccs	0x00006564
    107c:	656d6f68 	strbvs	r6, [sp, #-3944]!	; 0xf68
    1080:	676e652f 	strbvs	r6, [lr, -pc, lsr #10]!
    1084:	2f72656c 	svccs	0x0072656c
    1088:	73616c63 	cmnvc	r1, #25344	; 0x6300
    108c:	73632f73 	cmnvc	r3, #460	; 0x1cc
    1090:	6c303432 	cfldrsvs	mvf3, [r0], #-200	; 0xffffff38
    1094:	30322d78 	eorscc	r2, r2, r8, ror sp
    1098:	2f727073 	svccs	0x00727073
    109c:	62696c2f 	rsbvs	r6, r9, #12032	; 0x2f00
    10a0:	2f006970 	svccs	0x00006970
    10a4:	656d6f68 	strbvs	r6, [sp, #-3944]!	; 0xf68
    10a8:	676e652f 	strbvs	r6, [lr, -pc, lsr #10]!
    10ac:	2f72656c 	svccs	0x0072656c
    10b0:	73616c63 	cmnvc	r1, #25344	; 0x6300
    10b4:	73632f73 	cmnvc	r3, #460	; 0x1cc
    10b8:	6c303432 	cfldrsvs	mvf3, [r0], #-200	; 0xffffff38
    10bc:	30322d78 	eorscc	r2, r2, r8, ror sp
    10c0:	2f727073 	svccs	0x00727073
    10c4:	62696c2f 	rsbvs	r6, r9, #12032	; 0x2f00
    10c8:	732f6970 	teqvc	pc, #112, 18	; 0x1c0000
    10cc:	66666174 			; <UNDEFINED> instruction: 0x66666174
    10d0:	6372732d 	cmnvs	r2, #-1275068416	; 0xb4000000
    10d4:	61750000 	cmnvs	r5, r0
    10d8:	632e7472 	teqvs	lr, #1912602624	; 0x72000000
    10dc:	00000000 	andeq	r0, r0, r0
    10e0:	6b636f6c 	blvs	18dce98 <__bss_end__+0x18d2720>
    10e4:	0100682e 	tsteq	r0, lr, lsr #16
    10e8:	745f0000 	ldrbvc	r0, [pc], #-0	; 10f0 <__code_start__-0x6f10>
    10ec:	73657079 	cmnvc	r5, #121	; 0x79
    10f0:	0100682e 	tsteq	r0, lr, lsr #16
    10f4:	74730000 	ldrbtvc	r0, [r3], #-0
    10f8:	66656464 	strbtvs	r6, [r5], -r4, ror #8
    10fc:	0200682e 	andeq	r6, r0, #3014656	; 0x2e0000
    1100:	65720000 	ldrbvs	r0, [r2, #-0]!
    1104:	2e746e65 	cdpcs	14, 7, cr6, cr4, cr5, {3}
    1108:	00010068 	andeq	r0, r1, r8, rrx
    110c:	69707200 	ldmdbvs	r0!, {r9, ip, sp, lr}^
    1110:	0300682e 	movweq	r6, #2094	; 0x82e
    1114:	61750000 	cmnvs	r5, r0
    1118:	682e7472 	stmdavs	lr!, {r1, r4, r5, r6, sl, ip, sp, lr}
    111c:	00000400 	andeq	r0, r0, r0, lsl #8
    1120:	6f697067 	svcvs	0x00697067
    1124:	0400682e 	streq	r6, [r0], #-2094	; 0x82e
    1128:	00000000 	andeq	r0, r0, r0
    112c:	98500205 	ldmdals	r0, {r0, r2, r9}^
    1130:	2c030000 	stccs	0, cr0, [r3], {-0}
    1134:	0c036701 	stceq	7, cr6, [r3], {1}
    1138:	6867359e 	stmdavs	r7!, {r1, r2, r3, r4, r7, r8, sl, ip, sp}^
    113c:	0c036835 	stceq	8, cr6, [r3], {53}	; 0x35
    1140:	696b852e 	stmdbvs	fp!, {r1, r2, r3, r5, r8, sl, pc}^
    1144:	660c0369 	strvs	r0, [ip], -r9, ror #6
    1148:	4208676b 	andmi	r6, r8, #28049408	; 0x1ac0000
    114c:	364b6834 			; <UNDEFINED> instruction: 0x364b6834
    1150:	002f8768 	eoreq	r8, pc, r8, ror #14
    1154:	2f010402 	svccs	0x00010402
    1158:	67306768 	ldrvs	r6, [r0, -r8, ror #14]!
    115c:	0402004b 	streq	r0, [r2], #-75	; 0x4b
    1160:	67682f01 	strbvs	r2, [r8, -r1, lsl #30]!
    1164:	06022e69 	streq	r2, [r2], -r9, ror #28
    1168:	2b010100 	blcs	41570 <__bss_end__+0x36df8>
    116c:	02000001 	andeq	r0, r0, #1
    1170:	0000f800 	andeq	pc, r0, r0, lsl #16
    1174:	fb010200 	blx	4197e <__bss_end__+0x37206>
    1178:	01000d0e 	tsteq	r0, lr, lsl #26
    117c:	00010101 	andeq	r0, r1, r1, lsl #2
    1180:	00010000 	andeq	r0, r1, r0
    1184:	752f0100 	strvc	r0, [pc, #-256]!	; 108c <__code_start__-0x6f74>
    1188:	692f7273 	stmdbvs	pc!, {r0, r1, r4, r5, r6, r9, ip, sp, lr}	; <UNPREDICTABLE>
    118c:	756c636e 	strbvc	r6, [ip, #-878]!	; 0x36e
    1190:	6e2f6564 	cfsh64vs	mvdx6, mvdx15, #52
    1194:	696c7765 	stmdbvs	ip!, {r0, r2, r5, r6, r8, r9, sl, ip, sp, lr}^
    1198:	79732f62 	ldmdbvc	r3!, {r1, r5, r6, r8, r9, sl, fp, sp}^
    119c:	752f0073 	strvc	r0, [pc, #-115]!	; 1131 <__code_start__-0x6ecf>
    11a0:	6c2f7273 	sfmvs	f7, 4, [pc], #-460	; fdc <__code_start__-0x7024>
    11a4:	672f6269 	strvs	r6, [pc, -r9, ror #4]!
    11a8:	612f6363 	teqvs	pc, r3, ror #6
    11ac:	6e2d6d72 	mcrvs	13, 1, r6, cr13, cr2, {3}
    11b0:	2d656e6f 	stclcs	14, cr6, [r5, #-444]!	; 0xfffffe44
    11b4:	69626165 	stmdbvs	r2!, {r0, r2, r5, r6, r8, sp, lr}^
    11b8:	332e362f 	teqcc	lr, #49283072	; 0x2f00000
    11bc:	692f312e 	stmdbvs	pc!, {r1, r2, r3, r5, r8, ip, sp}	; <UNPREDICTABLE>
    11c0:	756c636e 	strbvc	r6, [ip, #-878]!	; 0x36e
    11c4:	2f006564 	svccs	0x00006564
    11c8:	656d6f68 	strbvs	r6, [sp, #-3944]!	; 0xf68
    11cc:	676e652f 	strbvs	r6, [lr, -pc, lsr #10]!
    11d0:	2f72656c 	svccs	0x0072656c
    11d4:	73616c63 	cmnvc	r1, #25344	; 0x6300
    11d8:	73632f73 	cmnvc	r3, #460	; 0x1cc
    11dc:	6c303432 	cfldrsvs	mvf3, [r0], #-200	; 0xffffff38
    11e0:	30322d78 	eorscc	r2, r2, r8, ror sp
    11e4:	2f727073 	svccs	0x00727073
    11e8:	62696c2f 	rsbvs	r6, r9, #12032	; 0x2f00
    11ec:	2f006970 	svccs	0x00006970
    11f0:	656d6f68 	strbvs	r6, [sp, #-3944]!	; 0xf68
    11f4:	676e652f 	strbvs	r6, [lr, -pc, lsr #10]!
    11f8:	2f72656c 	svccs	0x0072656c
    11fc:	73616c63 	cmnvc	r1, #25344	; 0x6300
    1200:	73632f73 	cmnvc	r3, #460	; 0x1cc
    1204:	6c303432 	cfldrsvs	mvf3, [r0], #-200	; 0xffffff38
    1208:	30322d78 	eorscc	r2, r2, r8, ror sp
    120c:	2f727073 	svccs	0x00727073
    1210:	62696c2f 	rsbvs	r6, r9, #12032	; 0x2f00
    1214:	732f6970 	teqvc	pc, #112, 18	; 0x1c0000
    1218:	66666174 			; <UNDEFINED> instruction: 0x66666174
    121c:	6372732d 	cmnvs	r2, #-1275068416	; 0xb4000000
    1220:	70670000 	rsbvc	r0, r7, r0
    1224:	632e6f69 	teqvs	lr, #420	; 0x1a4
    1228:	00000000 	andeq	r0, r0, r0
    122c:	6b636f6c 	blvs	18dcfe4 <__bss_end__+0x18d286c>
    1230:	0100682e 	tsteq	r0, lr, lsr #16
    1234:	745f0000 	ldrbvc	r0, [pc], #-0	; 123c <__code_start__-0x6dc4>
    1238:	73657079 	cmnvc	r5, #121	; 0x79
    123c:	0100682e 	tsteq	r0, lr, lsr #16
    1240:	74730000 	ldrbtvc	r0, [r3], #-0
    1244:	66656464 	strbtvs	r6, [r5], -r4, ror #8
    1248:	0200682e 	andeq	r6, r0, #3014656	; 0x2e0000
    124c:	65720000 	ldrbvs	r0, [r2, #-0]!
    1250:	2e746e65 	cdpcs	14, 7, cr6, cr4, cr5, {3}
    1254:	00010068 	andeq	r0, r1, r8, rrx
    1258:	69707200 	ldmdbvs	r0!, {r9, ip, sp, lr}^
    125c:	0300682e 	movweq	r6, #2094	; 0x82e
    1260:	70670000 	rsbvc	r0, r7, r0
    1264:	682e6f69 	stmdavs	lr!, {r0, r3, r5, r6, r8, r9, sl, fp, sp, lr}
    1268:	00000400 	andeq	r0, r0, r0, lsl #8
    126c:	02050000 	andeq	r0, r5, #0
    1270:	000099c8 	andeq	r9, r0, r8, asr #19
    1274:	13012703 	movwne	r2, #5891	; 0x1703
    1278:	f44f474c 	vst1.16	{d20}, [pc], ip
    127c:	a14c4b68 	cmpge	ip, r8, ror #22
    1280:	49136a2f 	ldmdbmi	r3, {r0, r1, r2, r3, r5, r9, fp, sp, lr}
    1284:	4913be31 	ldmdbmi	r3, {r0, r4, r5, r9, sl, fp, ip, sp, pc}
    1288:	6a2fbe31 	bvs	bf0b54 <__bss_end__+0xbe63dc>
    128c:	4f484d2f 	svcmi	0x00484d2f
    1290:	2f324913 	svccs	0x00324913
    1294:	000602b7 			; <UNDEFINED> instruction: 0x000602b7
    1298:	Address 0x0000000000001298 is out of bounds.


Disassembly of section .debug_str:

00000000 <.debug_str>:
   0:	5f746e63 	svcpl	0x00746e63
   4:	74696e69 	strbtvc	r6, [r9], #-3689	; 0xe69
   8:	73797300 	cmnvc	r9, #0, 6
   c:	636f6c5f 	cmnvs	pc, #24320	; 0x5f00
  10:	72745f6b 	rsbsvc	r5, r4, #428	; 0x1ac
  14:	746e0079 	strbtvc	r0, [lr], #-121	; 0x79
  18:	6c616972 	stclvs	9, cr6, [r1], #-456	; 0xfffffe38
  1c:	68630073 	stmdavs	r3!, {r0, r1, r4, r5, r6}^
  20:	656b6365 	strbvs	r6, [fp, #-869]!	; 0x365
  24:	00745f72 	rsbseq	r5, r4, r2, ror pc
  28:	74736e69 	ldrbtvc	r6, [r3], #-3689	; 0xe69
  2c:	756f635f 	strbvc	r6, [pc, #-863]!	; fffffcd5 <__bss_end__+0xffff555d>
  30:	6e00746e 	cdpvs	4, 0, cr7, cr0, cr14, {3}
  34:	616d746f 	cmnvs	sp, pc, ror #8
  38:	63006e69 	movwvs	r6, #3689	; 0xe69
  3c:	415f746e 	cmpmi	pc, lr, ror #8
  40:	746e6300 	strbtvc	r6, [lr], #-768	; 0x300
  44:	7400425f 	strvc	r4, [r0], #-607	; 0x25f
  48:	73747365 	cmnvc	r4, #-1811939327	; 0x94000001
  4c:	2f302e32 	svccs	0x00302e32
  50:	702d3631 	eorvc	r3, sp, r1, lsr r6
  54:	32747261 	rsbscc	r7, r4, #268435462	; 0x10000006
  58:	7365742d 	cmnvc	r5, #754974720	; 0x2d000000
  5c:	632e3874 	teqvs	lr, #116, 16	; 0x740000
  60:	69777300 	ldmdbvs	r7!, {r8, r9, ip, sp, lr}^
  64:	5f686374 	svcpl	0x00686374
  68:	695f6e6f 	ldmdbvs	pc, {r0, r1, r2, r3, r5, r6, r9, sl, fp, sp, lr}^	; <UNPREDICTABLE>
  6c:	5f74736e 	svcpl	0x0074736e
  70:	6e75006e 	cdpvs	0, 7, cr0, cr5, cr14, {3}
  74:	6e676973 	mcrvs	9, 3, r6, cr7, cr3, {3}
  78:	63206465 	teqvs	r0, #1694498816	; 0x65000000
  7c:	00726168 	rsbseq	r6, r2, r8, ror #2
  80:	61656c63 	cmnvs	r5, r3, ror #24
  84:	65725f6e 	ldrbvs	r5, [r2, #-3950]!	; 0xf6e
  88:	746f6f62 	strbtvc	r6, [pc], #-3938	; 90 <__code_start__-0x7f70>
  8c:	6f687300 	svcvs	0x00687300
  90:	75207472 	strvc	r7, [r0, #-1138]!	; 0x472
  94:	6769736e 	strbvs	r7, [r9, -lr, ror #6]!
  98:	2064656e 	rsbcs	r6, r4, lr, ror #10
  9c:	00746e69 	rsbseq	r6, r4, r9, ror #28
  a0:	7272656e 	rsbsvc	r6, r2, #461373440	; 0x1b800000
  a4:	0073726f 	rsbseq	r7, r3, pc, ror #4
  a8:	5f6b7262 	svcpl	0x006b7262
  ac:	62726576 	rsbsvs	r6, r2, #494927872	; 0x1d800000
  b0:	5f65736f 	svcpl	0x0065736f
  b4:	69700070 	ldmdbvs	r0!, {r4, r5, r6}^
  b8:	636f6c5f 	cmnvs	pc, #24320	; 0x5f00
  bc:	00745f6b 	rsbseq	r5, r4, fp, ror #30
  c0:	726f6873 	rsbvc	r6, pc, #7536640	; 0x730000
  c4:	6e692074 	mcrvs	0, 3, r2, cr9, cr4, {3}
  c8:	5f5f0074 	svcpl	0x005f0074
  cc:	434e5546 	movtmi	r5, #58694	; 0xe546
  d0:	4e4f4954 	mcrmi	9, 2, r4, cr15, cr4, {2}
  d4:	69005f5f 	stmdbvs	r0, {r0, r1, r2, r3, r4, r6, r8, r9, sl, fp, ip, lr}
  d8:	7265746e 	rsbvc	r7, r5, #1845493760	; 0x6e000000
  dc:	7661656c 	strbtvc	r6, [r1], -ip, ror #10
  e0:	5f676e69 	svcpl	0x00676e69
  e4:	6e630070 	mcrvs	0, 3, r0, cr3, cr0, {3}
  e8:	6b6d5f74 	blvs	1b57ec0 <__bss_end__+0x1b4d748>
  ec:	6568635f 	strbvs	r6, [r8, #-863]!	; 0x35f
  f0:	72656b63 	rsbvc	r6, r5, #101376	; 0x18c00
  f4:	554e4700 	strbpl	r4, [lr, #-1792]	; 0x700
  f8:	34204320 	strtcc	r4, [r0], #-800	; 0x320
  fc:	332e382e 	teqcc	lr, #3014656	; 0x2e0000
 100:	636d2d20 	cmnvs	sp, #32, 26	; 0x800
 104:	613d7570 	teqvs	sp, r0, ror r5
 108:	31316d72 	teqcc	r1, r2, ror sp
 10c:	7a6a3637 	bvc	1a8d9f0 <__bss_end__+0x1a83278>
 110:	20732d66 	rsbscs	r2, r3, r6, ror #26
 114:	75746d2d 	ldrbvc	r6, [r4, #-3373]!	; 0xd2d
 118:	613d656e 	teqvs	sp, lr, ror #10
 11c:	31316d72 	teqcc	r1, r2, ror sp
 120:	7a6a3637 	bvc	1a8da04 <__bss_end__+0x1a8328c>
 124:	20732d66 	rsbscs	r2, r3, r6, ror #26
 128:	6467672d 	strbtvs	r6, [r7], #-1837	; 0x72d
 12c:	4f2d2062 	svcmi	0x002d2062
 130:	732d2067 	teqvc	sp, #103	; 0x67
 134:	673d6474 			; <UNDEFINED> instruction: 0x673d6474
 138:	3939756e 	ldmdbcc	r9!, {r1, r2, r3, r5, r6, r8, sl, ip, sp, lr}
 13c:	66662d20 	strbtvs	r2, [r6], -r0, lsr #26
 140:	73656572 	cmnvc	r5, #478150656	; 0x1c800000
 144:	646e6174 	strbtvs	r6, [lr], #-372	; 0x174
 148:	20676e69 	rsbcs	r6, r7, r9, ror #28
 14c:	6f6e662d 	svcvs	0x006e662d
 150:	706f742d 	rsbvc	r7, pc, sp, lsr #8
 154:	6576656c 	ldrbvs	r6, [r6, #-1388]!	; 0x56c
 158:	65722d6c 	ldrbvs	r2, [r2, #-3436]!	; 0xd6c
 15c:	6564726f 	strbvs	r7, [r4, #-623]!	; 0x26f
 160:	6f6c0072 	svcvs	0x006c0072
 164:	6c20676e 	stcvs	7, cr6, [r0], #-440	; 0xfffffe48
 168:	20676e6f 	rsbcs	r6, r7, pc, ror #28
 16c:	69736e75 	ldmdbvs	r3!, {r0, r2, r4, r5, r6, r9, sl, fp, sp, lr}^
 170:	64656e67 	strbtvs	r6, [r5], #-3687	; 0xe67
 174:	746e6920 	strbtvc	r6, [lr], #-2336	; 0x920
 178:	77736e00 	ldrbvc	r6, [r3, -r0, lsl #28]!
 17c:	68637469 	stmdavs	r3!, {r0, r3, r5, r6, sl, ip, sp, lr}^
 180:	73007365 	movwvc	r7, #869	; 0x365
 184:	755f7379 	ldrbvc	r7, [pc, #-889]	; fffffe13 <__bss_end__+0xffff569b>
 188:	636f6c6e 	cmnvs	pc, #28160	; 0x6e00
 18c:	6973006b 	ldmdbvs	r3!, {r0, r1, r3, r5, r6}^
 190:	7974657a 	ldmdbvc	r4!, {r1, r3, r4, r5, r6, r8, sl, sp, lr}^
 194:	6c006570 	cfstr32vs	mvfx6, [r0], {112}	; 0x70
 198:	20676e6f 	rsbcs	r6, r7, pc, ror #28
 19c:	676e6f6c 	strbvs	r6, [lr, -ip, ror #30]!
 1a0:	746e6920 	strbtvc	r6, [lr], #-2336	; 0x920
 1a4:	69777300 	ldmdbvs	r7!, {r8, r9, ip, sp, lr}^
 1a8:	65686374 	strbvs	r6, [r8, #-884]!	; 0x374
 1ac:	00705f64 	rsbseq	r5, r0, r4, ror #30
 1b0:	74697773 	strbtvc	r7, [r9], #-1907	; 0x773
 1b4:	615f6863 	cmpvs	pc, r3, ror #16
 1b8:	00726464 	rsbseq	r6, r2, r4, ror #8
 1bc:	62616e65 	rsbvs	r6, r1, #1616	; 0x650
 1c0:	635f656c 	cmpvs	pc, #108, 10	; 0x1b000000
 1c4:	65686361 	strbvs	r6, [r8, #-865]!	; 0x361
 1c8:	73797300 	cmnvc	r9, #0, 6
 1cc:	636f6c5f 	cmnvs	pc, #24320	; 0x5f00
 1d0:	6e695f6b 	cdpvs	15, 6, cr5, cr9, cr11, {3}
 1d4:	70007469 	andvc	r7, r0, r9, ror #8
 1d8:	746e6972 	strbtvc	r6, [lr], #-2418	; 0x972
 1dc:	00726c5f 	rsbseq	r6, r2, pc, asr ip
 1e0:	5f746e63 	svcpl	0x00746e63
 1e4:	63656863 	cmnvs	r5, #6488064	; 0x630000
 1e8:	6975006b 	ldmdbvs	r5!, {r0, r1, r3, r5, r6}^
 1ec:	3233746e 	eorscc	r7, r3, #1845493760	; 0x6e000000
 1f0:	7300745f 	movwvc	r7, #1119	; 0x45f
 1f4:	745f7379 	ldrbvc	r7, [pc], #-889	; 1fc <__code_start__-0x7e04>
 1f8:	6c5f7972 	mrrcvs	9, 7, r7, pc, cr2	; <UNPREDICTABLE>
 1fc:	5f6b636f 	svcpl	0x006b636f
 200:	006d7361 	rsbeq	r7, sp, r1, ror #6
 204:	6573552f 	ldrbvs	r5, [r3, #-1327]!	; 0x52f
 208:	622f7372 	eorvs	r7, pc, #-939524095	; 0xc8000001
 20c:	6e616972 	mcrvs	9, 3, r6, cr1, cr2, {3}
 210:	2f6e756a 	svccs	0x006e756a
 214:	6b736544 	blvs	1cd972c <__bss_end__+0x1ccefb4>
 218:	2f706f74 	svccs	0x00706f74
 21c:	6f686373 	svcvs	0x00686373
 220:	532f6c6f 	teqpl	pc, #28416	; 0x6f00
 224:	6e697270 	mcrvs	2, 3, r7, cr9, cr0, {3}
 228:	32393167 	eorscc	r3, r9, #-1073741799	; 0xc0000019
 22c:	53432f30 	movtpl	r2, #16176	; 0x3f30
 230:	4c303432 	cfldrsmi	mvf3, [r0], #-200	; 0xffffff38
 234:	73632f58 	cmnvc	r3, #88, 30	; 0x160
 238:	6c303432 	cfldrsvs	mvf3, [r0], #-200	; 0xffffff38
 23c:	30322d78 	eorscc	r2, r2, r8, ror sp
 240:	2f727073 	svccs	0x00727073
 244:	7362616c 	cmnvc	r2, #108, 2
 248:	2d37312f 	ldfcss	f3, [r7, #-188]!	; 0xffffff44
 24c:	636d656d 	cmnvs	sp, #457179136	; 0x1b400000
 250:	6b636568 	blvs	18d97f8 <__bss_end__+0x18cf080>
 254:	7261702f 	rsbvc	r7, r1, #47	; 0x2f
 258:	732d3174 	teqvc	sp, #116, 2
 25c:	6c676e69 	stclvs	14, cr6, [r7], #-420	; 0xfffffe5c
 260:	74732d65 	ldrbtvc	r2, [r3], #-3429	; 0xd65
 264:	632f7065 	teqvs	pc, #101	; 0x65
 268:	0065646f 	rsbeq	r6, r5, pc, ror #8
 26c:	70696b73 	rsbvc	r6, r9, r3, ror fp
 270:	70720073 	rsbsvc	r0, r2, r3, ror r0
 274:	65725f69 	ldrbvs	r5, [r2, #-3945]!	; 0xf69
 278:	5f746573 	svcpl	0x00746573
 27c:	63747570 	cmnvs	r4, #112, 10	; 0x1c000000
 280:	74616400 	strbtvc	r6, [r1], #-1024	; 0x400
 284:	62615f61 	rsbvs	r5, r1, #388	; 0x184
 288:	5f74726f 	svcpl	0x0074726f
 28c:	74636576 	strbtvc	r6, [r3], #-1398	; 0x576
 290:	7000726f 	andvc	r7, r0, pc, ror #4
 294:	65666572 	strbvs	r6, [r6, #-1394]!	; 0x572
 298:	5f686374 	svcpl	0x00686374
 29c:	726f6261 	rsbvc	r6, pc, #268435462	; 0x10000006
 2a0:	65765f74 	ldrbvs	r5, [r6, #-3956]!	; 0xf74
 2a4:	726f7463 	rsbvc	r7, pc, #1660944384	; 0x63000000
 2a8:	73617700 	cmnvc	r1, #0, 14
 2ac:	6265645f 	rsbvs	r6, r5, #1593835520	; 0x5f000000
 2b0:	645f6775 	ldrbvs	r6, [pc], #-1909	; 2b8 <__code_start__-0x7d48>
 2b4:	66617461 	strbtvs	r7, [r1], -r1, ror #8
 2b8:	746c7561 	strbtvc	r7, [ip], #-1377	; 0x561
 2bc:	31706300 	cmncc	r0, r0, lsl #6
 2c0:	65642d34 	strbvs	r2, [r4, #-3380]!	; 0xd34
 2c4:	2e677562 	cdpcs	5, 6, cr7, cr7, cr2, {3}
 2c8:	61770063 	cmnvs	r7, r3, rrx
 2cc:	65645f73 	strbvs	r5, [r4, #-3955]!	; 0xf73
 2d0:	5f677562 	svcpl	0x00677562
 2d4:	74736e69 	ldrbtvc	r6, [r3], #-3689	; 0xe69
 2d8:	6c756166 	ldfvse	f6, [r5], #-408	; 0xfffffe68
 2dc:	73640074 	cmnvc	r4, #116	; 0x74
 2e0:	735f7263 	cmpvc	pc, #805306374	; 0x30000006
 2e4:	77007465 	strvc	r7, [r0, -r5, ror #8]
 2e8:	5f307263 	svcpl	0x00307263
 2ec:	00676572 	rsbeq	r6, r7, r2, ror r5
 2f0:	30726377 	rsbscc	r6, r2, r7, ror r3
 2f4:	7465675f 	strbtvc	r6, [r5], #-1887	; 0x75f
 2f8:	696e6900 	stmdbvs	lr!, {r8, fp, sp, lr}^
 2fc:	00705f74 	rsbseq	r5, r0, r4, ror pc
 300:	706b7262 	rsbvc	r7, fp, r2, ror #4
 304:	61685f74 	smcvs	34292	; 0x85f4
 308:	656c646e 	strbvs	r6, [ip, #-1134]!	; 0x46e
 30c:	63003072 	movwvs	r3, #114	; 0x72
 310:	5f343170 	svcpl	0x00343170
 314:	30726362 	rsbscc	r6, r2, r2, ror #6
 318:	7465735f 	strbtvc	r7, [r5], #-863	; 0x35f
 31c:	72767700 	rsbsvc	r7, r6, #0, 14
 320:	61765f30 	cmnvs	r6, r0, lsr pc
 324:	6177006c 	cmnvs	r7, ip, rrx
 328:	70686374 	rsbvc	r6, r8, r4, ror r3
 32c:	65735f74 	ldrbvs	r5, [r3, #-3956]!	; 0xf74
 330:	77003074 	smlsdxvc	r0, r4, r0, r3
 334:	5f307276 	svcpl	0x00307276
 338:	00746573 	rsbseq	r6, r4, r3, ror r5
 33c:	5f6b7262 	svcpl	0x006b7262
 340:	725f6f6e 	subsvc	r6, pc, #440	; 0x1b8
 344:	655f7465 	ldrbvs	r7, [pc, #-1125]	; fffffee7 <__bss_end__+0xffff576f>
 348:	726f7272 	rsbvc	r7, pc, #536870919	; 0x20000007
 34c:	31706300 	cmncc	r0, r0, lsl #6
 350:	63625f34 	cmnvs	r2, #52, 30	; 0xd0
 354:	675f3072 			; <UNDEFINED> instruction: 0x675f3072
 358:	62007465 	andvs	r7, r0, #1694498816	; 0x65000000
 35c:	74706b72 	ldrbtvc	r6, [r0], #-2930	; 0xb72
 360:	73696d5f 	cmnvc	r9, #6080	; 0x17c0
 364:	6374616d 	cmnvs	r4, #1073741851	; 0x4000001b
 368:	65735f68 	ldrbvs	r5, [r3, #-3944]!	; 0xf68
 36c:	64003074 	strvs	r3, [r0], #-116	; 0x74
 370:	5f727366 	svcpl	0x00727366
 374:	006c6176 	rsbeq	r6, ip, r6, ror r1
 378:	72616669 	rsbvc	r6, r1, #110100480	; 0x6900000
 37c:	7465675f 	strbtvc	r6, [r5], #-1887	; 0x75f
 380:	73666900 	cmnvc	r6, #0, 18
 384:	65675f72 	strbvs	r5, [r7, #-3954]!	; 0xf72
 388:	61770074 	cmnvs	r7, r4, ror r0
 38c:	70686374 	rsbvc	r6, r8, r4, ror r3
 390:	61685f74 	smcvs	34292	; 0x85f4
 394:	656c646e 	strbvs	r6, [ip, #-1134]!	; 0x46e
 398:	62003072 	andvs	r3, r0, #114	; 0x72
 39c:	74706b72 	ldrbtvc	r6, [r0], #-2930	; 0xb72
 3a0:	73696d5f 	cmnvc	r9, #6080	; 0x17c0
 3a4:	6374616d 	cmnvs	r4, #1073741851	; 0x4000001b
 3a8:	69645f68 	stmdbvs	r4!, {r3, r5, r6, r8, r9, sl, fp, ip, lr}^
 3ac:	6c626173 	stfvse	f6, [r2], #-460	; 0xfffffe34
 3b0:	64003065 	strvs	r3, [r0], #-101	; 0x65
 3b4:	66617461 	strbtvs	r7, [r1], -r1, ror #8
 3b8:	746c7561 	strbtvc	r7, [ip], #-1377	; 0x561
 3bc:	6f72665f 	svcvs	0x0072665f
 3c0:	646c5f6d 	strbtvs	r5, [ip], #-3949	; 0xf6d
 3c4:	31706300 	cmncc	r0, r0, lsl #6
 3c8:	76625f34 	uqasxvc	r5, r2, r4
 3cc:	735f3072 	cmpvc	pc, #114	; 0x72
 3d0:	77007465 	strvc	r7, [r0, -r5, ror #8]
 3d4:	645f7361 	ldrbvs	r7, [pc], #-865	; 3dc <__code_start__-0x7c24>
 3d8:	67756265 	ldrbvs	r6, [r5, -r5, ror #4]!
 3dc:	6c756166 	ldfvse	f6, [r5], #-408	; 0xfffffe68
 3e0:	00725f74 	rsbseq	r5, r2, r4, ror pc
 3e4:	34317063 	ldrtcc	r7, [r1], #-99	; 0x63
 3e8:	616e655f 	cmnvs	lr, pc, asr r5
 3ec:	00656c62 	rsbeq	r6, r5, r2, ror #24
 3f0:	7561666e 	strbvc	r6, [r1, #-1646]!	; 0x66e
 3f4:	0073746c 	rsbseq	r7, r3, ip, ror #8
 3f8:	30727662 	rsbscc	r7, r2, r2, ror #12
 3fc:	6c61765f 	stclvs	6, cr7, [r1], #-380	; 0xfffffe84
 400:	73666400 	cmnvc	r6, #0, 8
 404:	65675f72 	strbvs	r5, [r7, #-3954]!	; 0xf72
 408:	79730074 	ldmdbvc	r3!, {r2, r4, r5, r6}^
 40c:	6c616373 	stclvs	3, cr6, [r1], #-460	; 0xfffffe34
 410:	65765f6c 	ldrbvs	r5, [r6, #-3948]!	; 0xf6c
 414:	726f7463 	rsbvc	r7, pc, #1660944384	; 0x63000000
 418:	65727000 	ldrbvs	r7, [r2, #-0]!
 41c:	63746566 	cmnvs	r4, #427819008	; 0x19800000
 420:	6c665f68 	stclvs	15, cr5, [r6], #-416	; 0xfffffe60
 424:	5f687375 	svcpl	0x00687375
 428:	00746573 	rsbseq	r6, r4, r3, ror r5
 42c:	30726362 	rsbscc	r6, r2, r2, ror #6
 430:	6765725f 			; <UNDEFINED> instruction: 0x6765725f
 434:	6e616800 	cdpvs	8, 6, cr6, cr1, cr0, {0}
 438:	72656c64 	rsbvc	r6, r5, #100, 24	; 0x6400
 43c:	7700745f 	smlsdvc	r0, pc, r4, r7	; <UNPREDICTABLE>
 440:	5f726166 	svcpl	0x00726166
 444:	00746567 	rsbseq	r6, r4, r7, ror #10
 448:	5f737973 	svcpl	0x00737973
 44c:	006d756e 	rsbeq	r7, sp, lr, ror #10
 450:	706b7262 	rsbvc	r7, fp, r2, ror #4
 454:	65735f74 	ldrbvs	r5, [r3, #-3956]!	; 0xf74
 458:	77003074 	smlsdxvc	r0, r4, r0, r3
 45c:	5f307263 	svcpl	0x00307263
 460:	00746573 	rsbseq	r6, r4, r3, ror r5
 464:	5f746e69 	svcpl	0x00746e69
 468:	74696e69 	strbtvc	r6, [r9], #-3689	; 0xe69
 46c:	6e697300 	cdpvs	3, 6, cr7, cr9, cr0, {0}
 470:	5f656c67 	svcpl	0x00656c67
 474:	70657473 	rsbvc	r7, r5, r3, ror r4
 478:	6e61685f 	mcrvs	8, 3, r6, cr1, cr15, {2}
 47c:	72656c64 	rsbvc	r6, r5, #100, 24	; 0x6400
 480:	65686300 	strbvs	r6, [r8, #-768]!	; 0x300
 484:	7a5f6b63 	bvc	17db218 <__bss_end__+0x17d0aa0>
 488:	006f7265 	rsbeq	r7, pc, r5, ror #4
 48c:	63656863 	cmnvs	r5, #6488064	; 0x630000
 490:	6e692d6b 	cdpvs	13, 6, cr2, cr9, cr11, {3}
 494:	6c726574 	cfldr64vs	mvdx6, [r2], #-464	; 0xfffffe30
 498:	65766165 	ldrbvs	r6, [r6, #-357]!	; 0x165
 49c:	7500632e 	strvc	r6, [r0, #-814]	; 0x32e
 4a0:	5f726573 	svcpl	0x00726573
 4a4:	6d617274 	sfmvs	f7, 2, [r1, #-464]!	; 0xfffffe30
 4a8:	696c6f70 	stmdbvs	ip!, {r4, r5, r6, r8, r9, sl, fp, sp, lr}^
 4ac:	725f656e 	subsvc	r6, pc, #461373440	; 0x1b800000
 4b0:	63007465 	movwvs	r7, #1125	; 0x465
 4b4:	5f727370 	svcpl	0x00727370
 4b8:	00746567 	rsbseq	r6, r4, r7, ror #10
 4bc:	65707865 	ldrbvs	r7, [r0, #-2149]!	; 0x865
 4c0:	64657463 	strbtvs	r7, [r5], #-1123	; 0x463
 4c4:	6e61685f 	mcrvs	8, 3, r6, cr1, cr15, {2}
 4c8:	00656c64 	rsbeq	r6, r5, r4, ror #24
 4cc:	6b73616d 	blvs	1cd8a88 <__bss_end__+0x1cce310>
 4d0:	74696200 	strbtvc	r6, [r9], #-512	; 0x200
 4d4:	6c635f73 	stclvs	15, cr5, [r3], #-460	; 0xfffffe34
 4d8:	68630072 	stmdavs	r3!, {r1, r4, r5, r6}^
 4dc:	5f6b6365 	svcpl	0x006b6365
 4e0:	5f656e6f 	svcpl	0x00656e6f
 4e4:	69777363 	ldmdbvs	r7!, {r0, r1, r5, r6, r8, r9, ip, sp, lr}^
 4e8:	00686374 	rsbeq	r6, r8, r4, ror r3
 4ec:	65646f6d 	strbvs	r6, [r4, #-3949]!	; 0xf6d
 4f0:	7274735f 	rsbsvc	r7, r4, #2080374785	; 0x7c000001
 4f4:	646f6d00 	strbtvs	r6, [pc], #-3328	; 4fc <__code_start__-0x7b04>
 4f8:	65735f65 	ldrbvs	r5, [r3, #-3941]!	; 0xf65
 4fc:	68630074 	stmdavs	r3!, {r2, r4, r5, r6}^
 500:	5f6b6365 	svcpl	0x006b6365
 504:	75716573 	ldrbvc	r6, [r1, #-1395]!	; 0x573
 508:	69746e65 	ldmdbvs	r4!, {r0, r2, r5, r6, r9, sl, fp, sp, lr}^
 50c:	63006c61 	movwvs	r6, #3169	; 0xc61
 510:	5f727370 	svcpl	0x00727370
 514:	00646c6f 	rsbeq	r6, r4, pc, ror #24
 518:	73746962 	cmnvc	r4, #1605632	; 0x188000
 51c:	7465675f 	strbtvc	r6, [r5], #-1887	; 0x75f
 520:	73706300 	cmnvc	r0, #0, 6
 524:	73755f72 	cmnvc	r5, #456	; 0x1c8
 528:	63007265 	movwvs	r7, #613	; 0x265
 52c:	00727370 	rsbseq	r7, r2, r0, ror r3
 530:	65646f6d 	strbvs	r6, [r4, #-3949]!	; 0xf6d
 534:	67656c5f 			; <UNDEFINED> instruction: 0x67656c5f
 538:	6d006c61 	stcvs	12, cr6, [r0, #-388]	; 0xfffffe7c
 53c:	5f65646f 	svcpl	0x0065646f
 540:	00746567 	rsbseq	r6, r4, r7, ror #10
 544:	73676572 	cmnvc	r7, #478150656	; 0x1c800000
 548:	646f6d00 	strbtvs	r6, [pc], #-3328	; 550 <__code_start__-0x7ab0>
 54c:	5f5f0065 	svcpl	0x005f0065
 550:	63756e67 	cmnvs	r5, #1648	; 0x670
 554:	5f61765f 	svcpl	0x0061765f
 558:	7473696c 	ldrbtvc	r6, [r3], #-2412	; 0x96c
 55c:	62696c00 	rsbvs	r6, r9, #0, 24
 560:	72702f63 	rsbsvc	r2, r0, #396	; 0x18c
 564:	6b746e69 	blvs	1d1bf10 <__bss_end__+0x1d11798>
 568:	4700632e 	strmi	r6, [r0, -lr, lsr #6]
 56c:	4320554e 	teqmi	r0, #327155712	; 0x13800000
 570:	382e3420 	stmdacc	lr!, {r5, sl, ip, sp}
 574:	2d20332e 	stccs	3, cr3, [r0, #-184]!	; 0xffffff48
 578:	7570636d 	ldrbvc	r6, [r0, #-877]!	; 0x36d
 57c:	6d72613d 	ldfvse	f6, [r2, #-244]!	; 0xffffff0c
 580:	36373131 			; <UNDEFINED> instruction: 0x36373131
 584:	2d667a6a 	vstmdbcs	r6!, {s15-s120}
 588:	6d2d2073 	stcvs	0, cr2, [sp, #-460]!	; 0xfffffe34
 58c:	656e7574 	strbvs	r7, [lr, #-1396]!	; 0x574
 590:	6d72613d 	ldfvse	f6, [r2, #-244]!	; 0xffffff0c
 594:	36373131 			; <UNDEFINED> instruction: 0x36373131
 598:	2d667a6a 	vstmdbcs	r6!, {s15-s120}
 59c:	672d2073 			; <UNDEFINED> instruction: 0x672d2073
 5a0:	20626467 	rsbcs	r6, r2, r7, ror #8
 5a4:	20674f2d 	rsbcs	r4, r7, sp, lsr #30
 5a8:	6474732d 	ldrbtvs	r7, [r4], #-813	; 0x32d
 5ac:	756e673d 	strbvc	r6, [lr, #-1853]!	; 0x73d
 5b0:	2d203939 	stccs	9, cr3, [r0, #-228]!	; 0xffffff1c
 5b4:	65726666 	ldrbvs	r6, [r2, #-1638]!	; 0x666
 5b8:	61747365 	cmnvs	r4, r5, ror #6
 5bc:	6e69646e 	cdpvs	4, 6, cr6, cr9, cr14, {3}
 5c0:	61760067 	cmnvs	r6, r7, rrx
 5c4:	6972705f 	ldmdbvs	r2!, {r0, r1, r2, r3, r4, r6, ip, sp, lr}^
 5c8:	006b746e 	rsbeq	r7, fp, lr, ror #8
 5cc:	61765f5f 	cmnvs	r6, pc, asr pc
 5d0:	73696c5f 	cmnvc	r9, #24320	; 0x5f00
 5d4:	552f0074 	strpl	r0, [pc, #-116]!	; 568 <__code_start__-0x7a98>
 5d8:	73726573 	cmnvc	r2, #482344960	; 0x1cc00000
 5dc:	6972622f 	ldmdbvs	r2!, {r0, r1, r2, r3, r5, r9, sp, lr}^
 5e0:	756a6e61 	strbvc	r6, [sl, #-3681]!	; 0xe61
 5e4:	65442f6e 	strbvs	r2, [r4, #-3950]	; 0xf6e
 5e8:	6f746b73 	svcvs	0x00746b73
 5ec:	63732f70 	cmnvs	r3, #112, 30	; 0x1c0
 5f0:	6c6f6f68 	stclvs	15, cr6, [pc], #-416	; 458 <__code_start__-0x7ba8>
 5f4:	7270532f 	rsbsvc	r5, r0, #-1140850688	; 0xbc000000
 5f8:	31676e69 	cmncc	r7, r9, ror #28
 5fc:	2f303239 	svccs	0x00303239
 600:	34325343 	ldrtcc	r5, [r2], #-835	; 0x343
 604:	2f584c30 	svccs	0x00584c30
 608:	34327363 	ldrtcc	r7, [r2], #-867	; 0x363
 60c:	2d786c30 	ldclcs	12, cr6, [r8, #-192]!	; 0xffffff40
 610:	70733032 	rsbsvc	r3, r3, r2, lsr r0
 614:	696c2f72 	stmdbvs	ip!, {r1, r4, r5, r6, r8, r9, sl, fp, sp}^
 618:	00697062 	rsbeq	r7, r9, r2, rrx
 61c:	70615f5f 	rsbvc	r5, r1, pc, asr pc
 620:	72617500 	rsbvc	r7, r1, #0, 10
 624:	75705f74 	ldrbvc	r5, [r0, #-3956]!	; 0xf74
 628:	69006374 	stmdbvs	r0, {r2, r4, r5, r6, r8, r9, sp, lr}
 62c:	7265746e 	rsbvc	r7, r5, #1845493760	; 0x6e000000
 630:	5f6c616e 	svcpl	0x006c616e
 634:	63747570 	cmnvs	r4, #112, 10	; 0x1c000000
 638:	00726168 	rsbseq	r6, r2, r8, ror #2
 63c:	5f697072 	svcpl	0x00697072
 640:	63747570 	cmnvs	r4, #112, 10	; 0x1c000000
 644:	00726168 	rsbseq	r6, r2, r8, ror #2
 648:	6362696c 	cmnvs	r2, #108, 18	; 0x1b0000
 64c:	7475702f 	ldrbtvc	r7, [r5], #-47	; 0x2f
 650:	72616863 	rsbvc	r6, r1, #6488064	; 0x630000
 654:	7200632e 	andvc	r6, r0, #-1207959552	; 0xb8000000
 658:	735f6970 	cmpvc	pc, #112, 18	; 0x1c0000
 65c:	705f7465 	subsvc	r7, pc, r5, ror #8
 660:	00637475 	rsbeq	r7, r3, r5, ror r4
 664:	6362696c 	cmnvs	r2, #108, 18	; 0x1b0000
 668:	7475702f 	ldrbtvc	r7, [r5], #-47	; 0x2f
 66c:	00632e6b 	rsbeq	r2, r3, fp, ror #28
 670:	65746e69 	ldrbvs	r6, [r4, #-3689]!	; 0xe69
 674:	6c616e72 	stclvs	14, cr6, [r1], #-456	; 0xfffffe38
 678:	7475705f 	ldrbtvc	r7, [r5], #-95	; 0x5f
 67c:	6d66006b 	stclvs	0, cr0, [r6, #-428]!	; 0xfffffe54
 680:	74735f74 	ldrbtvc	r5, [r3], #-3956	; 0xf74
 684:	00747261 	rsbseq	r7, r4, r1, ror #4
 688:	5f67656e 	svcpl	0x0067656e
 68c:	65720070 	ldrbvs	r0, [r2, #-112]!	; 0x70
 690:	73726576 	cmnvc	r2, #494927872	; 0x1d800000
 694:	73690065 	cmnvc	r9, #101	; 0x65
 698:	69676964 	stmdbvs	r7!, {r2, r5, r6, r8, fp, sp, lr}^
 69c:	75700074 	ldrbvc	r0, [r0, #-116]!	; 0x74
 6a0:	665f7374 			; <UNDEFINED> instruction: 0x665f7374
 6a4:	69730070 	ldmdbvs	r3!, {r4, r5, r6}^
 6a8:	64656e67 	strbtvs	r6, [r5], #-3687	; 0xe67
 6ac:	6c00705f 	stcvs	0, cr7, [r0], {95}	; 0x5f
 6b0:	2f636269 	svccs	0x00636269
 6b4:	702d6176 	eorvc	r6, sp, r6, ror r1
 6b8:	746e6972 	strbtvc	r6, [lr], #-2418	; 0x972
 6bc:	00632e6b 	rsbeq	r2, r3, fp, ror #28
 6c0:	5f697072 	svcpl	0x00697072
 6c4:	5f746573 	svcpl	0x00746573
 6c8:	7074756f 	rsbsvc	r7, r4, pc, ror #10
 6cc:	77007475 	smlsdxvc	r0, r5, r4, r7
 6d0:	68746469 	ldmdavs	r4!, {r0, r3, r5, r6, sl, sp, lr}^
 6d4:	74757000 	ldrbtvc	r7, [r5], #-0
 6d8:	70665f63 	rsbvc	r5, r6, r3, ror #30
 6dc:	696d6500 	stmdbvs	sp!, {r8, sl, sp, lr}^
 6e0:	69640074 	stmdbvs	r4!, {r2, r4, r5, r6}^
 6e4:	6c626173 	stfvse	f6, [r2], #-460	; 0xfffffe34
 6e8:	61635f65 	cmnvs	r3, r5, ror #30
 6ec:	00656863 	rsbeq	r6, r5, r3, ror #16
 6f0:	66617473 			; <UNDEFINED> instruction: 0x66617473
 6f4:	72732d66 	rsbsvc	r2, r3, #6528	; 0x1980
 6f8:	61632f63 	cmnvs	r3, r3, ror #30
 6fc:	2e656863 	cdpcs	8, 6, cr6, cr5, cr3, {3}
 700:	65720063 	ldrbvs	r0, [r2, #-99]!	; 0x63
 704:	746f6f62 	strbtvc	r6, [pc], #-3938	; 70c <__code_start__-0x78f4>
 708:	6e61685f 	mcrvs	8, 3, r6, cr1, cr15, {2}
 70c:	72656c64 	rsbvc	r6, r5, #100, 24	; 0x6400
 710:	61747300 	cmnvs	r4, r0, lsl #6
 714:	732d6666 	teqvc	sp, #106954752	; 0x6600000
 718:	632f6372 	teqvs	pc, #-939524095	; 0xc8000001
 71c:	6e61656c 	cdpvs	5, 6, cr6, cr1, cr12, {3}
 720:	6265722d 	rsbvs	r7, r5, #-805306366	; 0xd0000002
 724:	2e746f6f 	cdpcs	15, 7, cr6, cr4, cr15, {3}
 728:	70720063 	rsbsvc	r0, r2, r3, rrx
 72c:	65725f69 	ldrbvs	r5, [r2, #-3945]!	; 0xf69
 730:	746f6f62 	strbtvc	r6, [pc], #-3938	; 738 <__code_start__-0x78c8>
 734:	6c656400 	cfstrdvs	mvd6, [r5], #-0
 738:	6d5f7961 	ldclvs	9, cr7, [pc, #-388]	; 5bc <__code_start__-0x7a44>
 73c:	5f5f0073 	svcpl	0x005f0073
 740:	5f737362 	svcpl	0x00737362
 744:	72617473 	rsbvc	r7, r1, #1929379840	; 0x73000000
 748:	005f5f74 	subseq	r5, pc, r4, ror pc	; <UNPREDICTABLE>
 74c:	73625f5f 	cmnvc	r2, #380	; 0x17c
 750:	6e655f73 	mcrvs	15, 3, r5, cr5, cr3, {3}
 754:	005f5f64 	subseq	r5, pc, r4, ror #30
 758:	61747363 	cmnvs	r4, r3, ror #6
 75c:	685f7472 	ldmdavs	pc, {r1, r4, r5, r6, sl, ip, sp, lr}^	; <UNPREDICTABLE>
 760:	6c646e61 	stclvs	14, cr6, [r4], #-388	; 0xfffffe7c
 764:	62007265 	andvs	r7, r0, #1342177286	; 0x50000006
 768:	655f7373 	ldrbvs	r7, [pc, #-883]	; 3fd <__code_start__-0x7c03>
 76c:	5f00646e 	svcpl	0x0000646e
 770:	61747363 	cmnvs	r4, r3, ror #6
 774:	73007472 	movwvc	r7, #1138	; 0x472
 778:	66666174 			; <UNDEFINED> instruction: 0x66666174
 77c:	6372732d 	cmnvs	r2, #-1275068416	; 0xb4000000
 780:	7473632f 	ldrbtvc	r6, [r3], #-815	; 0x32f
 784:	2e747261 	cdpcs	2, 7, cr7, cr4, cr1, {3}
 788:	74730063 	ldrbtvc	r0, [r3], #-99	; 0x63
 78c:	2d666661 	stclcs	6, cr6, [r6, #-388]!	; 0xfffffe7c
 790:	2f637273 	svccs	0x00637273
 794:	61666564 	cmnvs	r6, r4, ror #10
 798:	2d746c75 	ldclcs	12, cr6, [r4, #-468]!	; 0xfffffe2c
 79c:	646e6168 	strbtvs	r6, [lr], #-360	; 0x168
 7a0:	2d72656c 	cfldr64cs	mvdx6, [r2, #-432]!	; 0xfffffe50
 7a4:	74736166 	ldrbtvc	r6, [r3], #-358	; 0x166
 7a8:	6600632e 	strvs	r6, [r0], -lr, lsr #6
 7ac:	5f747361 	svcpl	0x00747361
 7b0:	65746e69 	ldrbvs	r6, [r4, #-3689]!	; 0xe69
 7b4:	70757272 	rsbsvc	r7, r5, r2, ror r2
 7b8:	65765f74 	ldrbvs	r5, [r6, #-3956]!	; 0xf74
 7bc:	726f7463 	rsbvc	r7, pc, #1660944384	; 0x63000000
 7c0:	73657200 	cmnvc	r5, #0, 4
 7c4:	765f7465 	ldrbvc	r7, [pc], -r5, ror #8
 7c8:	6f746365 	svcvs	0x00746365
 7cc:	74730072 	ldrbtvc	r0, [r3], #-114	; 0x72
 7d0:	2d666661 	stclcs	6, cr6, [r6, #-388]!	; 0xfffffe7c
 7d4:	2f637273 	svccs	0x00637273
 7d8:	61666564 	cmnvs	r6, r4, ror #10
 7dc:	2d746c75 	ldclcs	12, cr6, [r4, #-468]!	; 0xfffffe2c
 7e0:	646e6168 	strbtvs	r6, [lr], #-360	; 0x168
 7e4:	2d72656c 	cfldr64cs	mvdx6, [r2, #-432]!	; 0xfffffe50
 7e8:	65736572 	ldrbvs	r6, [r3, #-1394]!	; 0x572
 7ec:	00632e74 	rsbeq	r2, r3, r4, ror lr
 7f0:	66617473 			; <UNDEFINED> instruction: 0x66617473
 7f4:	72732d66 	rsbsvc	r2, r3, #6528	; 0x1980
 7f8:	65642f63 	strbvs	r2, [r4, #-3939]!	; 0xf63
 7fc:	6c756166 	ldfvse	f6, [r5], #-408	; 0xfffffe68
 800:	61682d74 	smcvs	33492	; 0x82d4
 804:	656c646e 	strbvs	r6, [ip, #-1134]!	; 0x46e
 808:	6e752d72 	mrcvs	13, 3, r2, cr5, cr2, {3}
 80c:	69666564 	stmdbvs	r6!, {r2, r5, r6, r8, sl, sp, lr}^
 810:	2d64656e 	cfstr64cs	mvdx6, [r4, #-440]!	; 0xfffffe48
 814:	74736e69 	ldrbtvc	r6, [r3], #-3689	; 0xe69
 818:	7500632e 	strvc	r6, [r0, #-814]	; 0x32e
 81c:	6665646e 	strbtvs	r6, [r5], -lr, ror #8
 820:	64656e69 	strbtvs	r6, [r5], #-3689	; 0xe69
 824:	736e695f 	cmnvc	lr, #1556480	; 0x17c000
 828:	63757274 	cmnvs	r5, #116, 4	; 0x40000007
 82c:	6e6f6974 	mcrvs	9, 3, r6, cr15, cr4, {3}
 830:	6365765f 	cmnvs	r5, #99614720	; 0x5f00000
 834:	00726f74 	rsbseq	r6, r2, r4, ror pc
 838:	66617473 			; <UNDEFINED> instruction: 0x66617473
 83c:	72732d66 	rsbsvc	r2, r3, #6528	; 0x1980
 840:	65642f63 	strbvs	r2, [r4, #-3939]!	; 0xf63
 844:	6c756166 	ldfvse	f6, [r5], #-408	; 0xfffffe68
 848:	61682d74 	smcvs	33492	; 0x82d4
 84c:	656c646e 	strbvs	r6, [ip, #-1134]!	; 0x46e
 850:	632e7372 	teqvs	lr, #-939524095	; 0xc8000001
 854:	51524900 	cmppl	r2, r0, lsl #18
 858:	6e65705f 	mcrvs	0, 3, r7, cr5, cr15, {2}
 85c:	676e6964 	strbvs	r6, [lr, -r4, ror #18]!
 860:	4400325f 	strmi	r3, [r0], #-607	; 0x25f
 864:	62617369 	rsbvs	r7, r1, #-1543503871	; 0xa4000001
 868:	425f656c 	subsmi	r6, pc, #108, 10	; 0x1b000000
 86c:	63697361 	cmnvs	r9, #-2080374783	; 0x84000001
 870:	5152495f 	cmppl	r2, pc, asr r9
 874:	49460073 	stmdbmi	r6, {r0, r1, r4, r5, r6}^
 878:	6f635f51 	svcvs	0x00635f51
 87c:	6f72746e 	svcvs	0x0072746e
 880:	695f006c 	ldmdbvs	pc, {r2, r3, r5, r6}^	; <UNPREDICTABLE>
 884:	7265746e 	rsbvc	r7, r5, #1845493760	; 0x6e000000
 888:	74707572 	ldrbtvc	r7, [r0], #-1394	; 0x572
 88c:	6261745f 	rsbvs	r7, r1, #1593835520	; 0x5f000000
 890:	4900656c 	stmdbmi	r0, {r2, r3, r5, r6, r8, sl, sp, lr}
 894:	625f5152 	subsvs	r5, pc, #-2147483628	; 0x80000014
 898:	63697361 	cmnvs	r9, #-2080374783	; 0x84000001
 89c:	6e65705f 	mcrvs	0, 3, r7, cr5, cr15, {2}
 8a0:	676e6964 	strbvs	r6, [lr, -r4, ror #18]!
 8a4:	616e4500 	cmnvs	lr, r0, lsl #10
 8a8:	5f656c62 	svcpl	0x00656c62
 8ac:	69736142 	ldmdbvs	r3!, {r1, r6, r8, sp, lr}^
 8b0:	52495f63 	subpl	r5, r9, #396	; 0x18c
 8b4:	45007351 	strmi	r7, [r0, #-849]	; 0x351
 8b8:	6c62616e 	stfvse	f6, [r2], #-440	; 0xfffffe48
 8bc:	52495f65 	subpl	r5, r9, #404	; 0x194
 8c0:	315f7351 	cmpcc	pc, r1, asr r3	; <UNPREDICTABLE>
 8c4:	616e4500 	cmnvs	lr, r0, lsl #10
 8c8:	5f656c62 	svcpl	0x00656c62
 8cc:	73515249 	cmpvc	r1, #-1879048188	; 0x90000004
 8d0:	5f00325f 	svcpl	0x0000325f
 8d4:	65746e69 	ldrbvs	r6, [r4, #-3689]!	; 0xe69
 8d8:	70757272 	rsbsvc	r7, r5, r2, ror r2
 8dc:	61745f74 	cmnvs	r4, r4, ror pc
 8e0:	5f656c62 	svcpl	0x00656c62
 8e4:	00646e65 	rsbeq	r6, r4, r5, ror #28
 8e8:	5f766564 	svcpl	0x00766564
 8ec:	72726162 	rsbsvc	r6, r2, #-2147483624	; 0x80000018
 8f0:	00726569 	rsbseq	r6, r2, r9, ror #10
 8f4:	66617473 			; <UNDEFINED> instruction: 0x66617473
 8f8:	72732d66 	rsbsvc	r2, r3, #6528	; 0x1980
 8fc:	6e692f63 	cdpvs	15, 6, cr2, cr9, cr3, {3}
 900:	72726574 	rsbsvc	r6, r2, #116, 10	; 0x1d000000
 904:	73747075 	cmnvc	r4, #117	; 0x75
 908:	632e632d 	teqvs	lr, #-1275068416	; 0xb4000000
 90c:	51524900 	cmppl	r2, r0, lsl #18
 910:	7361425f 	cmnvc	r1, #-268435451	; 0xf0000005
 914:	55500065 	ldrbpl	r0, [r0, #-101]	; 0x65
 918:	00323354 	eorseq	r3, r2, r4, asr r3
 91c:	61736944 	cmnvs	r3, r4, asr #18
 920:	5f656c62 	svcpl	0x00656c62
 924:	73515249 	cmpvc	r1, #-1879048188	; 0x90000004
 928:	4400315f 	strmi	r3, [r0], #-351	; 0x15f
 92c:	62617369 	rsbvs	r7, r1, #-1543503871	; 0xa4000001
 930:	495f656c 	ldmdbmi	pc, {r2, r3, r5, r6, r8, sl, sp, lr}^	; <UNPREDICTABLE>
 934:	5f735152 	svcpl	0x00735152
 938:	52490032 	subpl	r0, r9, #50	; 0x32
 93c:	65705f51 	ldrbvs	r5, [r0, #-3921]!	; 0xf51
 940:	6e69646e 	cdpvs	4, 6, cr6, cr9, cr14, {3}
 944:	00315f67 	eorseq	r5, r1, r7, ror #30
 948:	755f7461 	ldrbvc	r7, [pc, #-1121]	; 4ef <__code_start__-0x7b11>
 94c:	5f726573 	svcpl	0x00726573
 950:	6576656c 	ldrbvs	r6, [r6, #-1388]!	; 0x56c
 954:	7473006c 	ldrbtvc	r0, [r3], #-108	; 0x6c
 958:	2d666661 	stclcs	6, cr6, [r6, #-388]!	; 0xfffffe7c
 95c:	2f637273 	svccs	0x00637273
 960:	6f626572 	svcvs	0x00626572
 964:	632e746f 	teqvs	lr, #1862270976	; 0x6f000000
 968:	5f4d5000 	svcpl	0x004d5000
 96c:	43545352 	cmpmi	r4, #1207959553	; 0x48000001
 970:	4352575f 	cmpmi	r2, #24903680	; 0x17c0000
 974:	465f4746 	ldrbmi	r4, [pc], -r6, asr #14
 978:	5f4c4c55 	svcpl	0x004c4c55
 97c:	45534552 	ldrbmi	r4, [r3, #-1362]	; 0x552
 980:	4d500054 	ldclmi	0, cr0, [r0, #-336]	; 0xfffffeb0
 984:	4f44575f 	svcmi	0x0044575f
 988:	65730047 	ldrbvs	r0, [r3, #-71]!	; 0x47
 98c:	73755f74 	cmnvc	r5, #116, 30	; 0x1d0
 990:	6c5f7265 	lfmvs	f7, 2, [pc], {101}	; 0x65
 994:	6c657665 	stclvs	6, cr7, [r5], #-404	; 0xfffffe6c
 998:	5f4d5000 	svcpl	0x004d5000
 99c:	53534150 	cmppl	r3, #80, 2
 9a0:	44524f57 	ldrbmi	r4, [r2], #-3927	; 0xf57
 9a4:	5f4d5000 	svcpl	0x004d5000
 9a8:	43545352 	cmpmi	r4, #1207959553	; 0x48000001
 9ac:	6d697400 	cfstrdvs	mvd7, [r9, #-0]
 9b0:	675f7265 	ldrbvs	r7, [pc, -r5, ror #4]
 9b4:	755f7465 	ldrbvc	r7, [pc, #-1125]	; 557 <__code_start__-0x7aa9>
 9b8:	5f636573 	svcpl	0x00636573
 9bc:	00776172 	rsbseq	r6, r7, r2, ror r1
 9c0:	616c6564 	cmnvs	ip, r4, ror #10
 9c4:	65735f79 	ldrbvs	r5, [r3, #-3961]!	; 0xf79
 9c8:	74730063 	ldrbtvc	r0, [r3], #-99	; 0x63
 9cc:	2d666661 	stclcs	6, cr6, [r6, #-388]!	; 0xfffffe7c
 9d0:	2f637273 	svccs	0x00637273
 9d4:	656d6974 	strbvs	r6, [sp, #-2420]!	; 0x974
 9d8:	00632e72 	rsbeq	r2, r3, r2, ror lr
 9dc:	33544547 	cmpcc	r4, #297795584	; 0x11c00000
 9e0:	69740032 	ldmdbvs	r4!, {r1, r4, r5}^
 9e4:	00736b63 	rsbseq	r6, r3, r3, ror #22
 9e8:	616c6564 	cmnvs	ip, r4, ror #10
 9ec:	79635f79 	stmdbvc	r3!, {r0, r3, r4, r5, r6, r8, r9, sl, fp, ip, lr}^
 9f0:	73656c63 	cmnvc	r5, #25344	; 0x6300
 9f4:	6c656400 	cfstrdvs	mvd6, [r5], #-0
 9f8:	755f7961 	ldrbvc	r7, [pc, #-2401]	; 9f <__code_start__-0x7f61>
 9fc:	69740073 	ldmdbvs	r4!, {r0, r1, r4, r5, r6}^
 a00:	5f72656d 	svcpl	0x0072656d
 a04:	5f746567 	svcpl	0x00746567
 a08:	63657375 	cmnvs	r5, #-738197503	; 0xd4000001
 a0c:	73645f00 	cmnvc	r4, #0, 30
 a10:	61685f6f 	cmnvs	r8, pc, ror #30
 a14:	656c646e 	strbvs	r6, [ip, #-1134]!	; 0x46e
 a18:	69735f00 	ldmdbvs	r3!, {r8, r9, sl, fp, ip, lr}^
 a1c:	5f00657a 	svcpl	0x0000657a
 a20:	646e6172 	strbtvs	r6, [lr], #-370	; 0x172
 a24:	5f003834 	svcpl	0x00003834
 a28:	72656d65 	rsbvc	r6, r5, #6464	; 0x1940
 a2c:	636e6567 	cmnvs	lr, #432013312	; 0x19c00000
 a30:	61750079 	cmnvs	r5, r9, ror r0
 a34:	695f7472 	ldmdbvs	pc, {r1, r4, r5, r6, sl, ip, sp, lr}^	; <UNPREDICTABLE>
 a38:	0074696e 	rsbseq	r6, r4, lr, ror #18
 a3c:	7263775f 	rsbvc	r7, r3, #24903680	; 0x17c0000
 a40:	626d6f74 	rsbvs	r6, sp, #116, 30	; 0x1d0
 a44:	6174735f 	cmnvs	r4, pc, asr r3
 a48:	5f006574 	svcpl	0x00006574
 a4c:	72736377 	rsbsvc	r6, r3, #-603979775	; 0xdc000001
 a50:	626d6f74 	rsbvs	r6, sp, #116, 30	; 0x1d0
 a54:	74735f73 	ldrbtvc	r5, [r3], #-3955	; 0xf73
 a58:	00657461 	rsbeq	r7, r5, r1, ror #8
 a5c:	66626c5f 			; <UNDEFINED> instruction: 0x66626c5f
 a60:	657a6973 	ldrbvs	r6, [sl, #-2419]!	; 0x973
 a64:	49504700 	ldmdbmi	r0, {r8, r9, sl, lr}^
 a68:	55465f4f 	strbpl	r5, [r6, #-3919]	; 0xf4f
 a6c:	495f434e 	ldmdbmi	pc, {r1, r2, r3, r6, r8, r9, lr}^	; <UNPREDICTABLE>
 a70:	5455504e 	ldrbpl	r5, [r5], #-78	; 0x4e
 a74:	626d5f00 	rsbvs	r5, sp, #0, 30
 a78:	776f7472 			; <UNDEFINED> instruction: 0x776f7472
 a7c:	74735f63 	ldrbtvc	r5, [r3], #-3939	; 0xf63
 a80:	00657461 	rsbeq	r7, r5, r1, ror #8
 a84:	7463775f 	strbtvc	r7, [r3], #-1887	; 0x75f
 a88:	5f626d6f 	svcpl	0x00626d6f
 a8c:	74617473 	strbtvc	r7, [r1], #-1139	; 0x473
 a90:	5f5f0065 	svcpl	0x005f0065
 a94:	735f6d74 	cmpvc	pc, #116, 26	; 0x1d00
 a98:	73006365 	movwvc	r6, #869	; 0x365
 a9c:	00746174 	rsbseq	r6, r4, r4, ror r1
 aa0:	7562755f 	strbvc	r7, [r2, #-1375]!	; 0x55f
 aa4:	50470066 	subpl	r0, r7, r6, rrx
 aa8:	465f4f49 	ldrbmi	r4, [pc], -r9, asr #30
 aac:	5f434e55 	svcpl	0x00434e55
 ab0:	31544c41 	cmpcc	r4, r1, asr #24
 ab4:	61625f00 	cmnvs	r2, r0, lsl #30
 ab8:	63006573 	movwvs	r6, #1395	; 0x573
 abc:	006c746e 	rsbeq	r7, ip, lr, ror #8
 ac0:	6d745f5f 	ldclvs	15, cr5, [r4, #-380]!	; 0xfffffe84
 ac4:	756f685f 	strbvc	r6, [pc, #-2143]!	; 26d <__code_start__-0x7d93>
 ac8:	5f5f0072 	svcpl	0x005f0072
 acc:	5f006673 	svcpl	0x00006673
 ad0:	655f6e6f 	ldrbvs	r6, [pc, #-3695]	; fffffc69 <__bss_end__+0xffff54f1>
 ad4:	5f746978 	svcpl	0x00746978
 ad8:	73677261 	cmnvc	r7, #268435462	; 0x10000006
 adc:	6f635f00 	svcvs	0x00635f00
 ae0:	65696b6f 	strbvs	r6, [r9, #-2927]!	; 0xb6f
 ae4:	735f5f00 	cmpvc	pc, #0, 30
 ae8:	65756c67 	ldrbvs	r6, [r5, #-3175]!	; 0xc67
 aec:	6c665f00 	stclvs	15, cr5, [r6], #-0
 af0:	00736761 	rsbseq	r6, r3, r1, ror #14
 af4:	5f73695f 	svcpl	0x0073695f
 af8:	00617863 	rsbeq	r7, r1, r3, ror #16
 afc:	6474735f 	ldrbtvs	r7, [r4], #-863	; 0x35f
 b00:	5f006e69 	svcpl	0x00006e69
 b04:	736b6c62 	cmnvc	fp, #25088	; 0x6200
 b08:	00657a69 	rsbeq	r7, r5, r9, ror #20
 b0c:	74726175 	ldrbtvc	r6, [r2], #-373	; 0x175
 b10:	6100632e 	tstvs	r0, lr, lsr #6
 b14:	705f7875 	subsvc	r7, pc, r5, ror r8	; <UNPREDICTABLE>
 b18:	70697265 	rsbvc	r7, r9, r5, ror #4
 b1c:	5f007368 	svcpl	0x00007368
 b20:	62747663 	rsbsvs	r7, r4, #103809024	; 0x6300000
 b24:	2f006675 	svccs	0x00006675
 b28:	656d6f68 	strbvs	r6, [sp, #-3944]!	; 0xf68
 b2c:	676e652f 	strbvs	r6, [lr, -pc, lsr #10]!
 b30:	2f72656c 	svccs	0x0072656c
 b34:	73616c63 	cmnvc	r1, #25344	; 0x6300
 b38:	73632f73 	cmnvc	r3, #460	; 0x1cc
 b3c:	6c303432 	cfldrsvs	mvf3, [r0], #-200	; 0xffffff38
 b40:	30322d78 	eorscc	r2, r2, r8, ror sp
 b44:	2f727073 	svccs	0x00727073
 b48:	7062696c 	rsbvc	r6, r2, ip, ror #18
 b4c:	74732f69 	ldrbtvc	r2, [r3], #-3945	; 0xf69
 b50:	2d666661 	stclcs	6, cr6, [r6, #-388]!	; 0xfffffe7c
 b54:	76697270 			; <UNDEFINED> instruction: 0x76697270
 b58:	00657461 	rsbeq	r7, r5, r1, ror #8
 b5c:	73626d5f 	cmnvc	r2, #6080	; 0x17c0
 b60:	776f7472 			; <UNDEFINED> instruction: 0x776f7472
 b64:	735f7363 	cmpvc	pc, #-1946157055	; 0x8c000001
 b68:	65746174 	ldrbvs	r6, [r4, #-372]!	; 0x174
 b6c:	626d5f00 	rsbvs	r5, sp, #0, 30
 b70:	6e656c72 	mcrvs	12, 3, r6, cr5, cr2, {3}
 b74:	6174735f 	cmnvs	r4, pc, asr r3
 b78:	5f006574 	svcpl	0x00006574
 b7c:	72616e66 	rsbvc	r6, r1, #1632	; 0x660
 b80:	61007367 	tstvs	r0, r7, ror #6
 b84:	655f7875 	ldrbvs	r7, [pc, #-2165]	; 317 <__code_start__-0x7ce9>
 b88:	6c62616e 	stfvse	f6, [r2], #-440	; 0xfffffe48
 b8c:	5f007365 	svcpl	0x00007365
 b90:	00736e66 	rsbseq	r6, r3, r6, ror #28
 b94:	6769735f 			; <UNDEFINED> instruction: 0x6769735f
 b98:	6175006e 	cmnvs	r5, lr, rrx
 b9c:	635f7472 	cmpvs	pc, #1912602624	; 0x72000000
 ba0:	705f6e61 	subsvc	r6, pc, r1, ror #28
 ba4:	00637475 	rsbeq	r7, r3, r5, ror r4
 ba8:	6f6c665f 	svcvs	0x006c665f
 bac:	745f6b63 	ldrbvc	r6, [pc], #-2915	; bb4 <__code_start__-0x744c>
 bb0:	74735f00 	ldrbtvc	r5, [r3], #-3840	; 0xf00
 bb4:	72726564 	rsbsvc	r6, r2, #100, 10	; 0x19000000
 bb8:	69425f00 	stmdbvs	r2, {r8, r9, sl, fp, ip, lr}^
 bbc:	746e6967 	strbtvc	r6, [lr], #-2407	; 0x967
 bc0:	61675f00 	cmnvs	r7, r0, lsl #30
 bc4:	5f616d6d 	svcpl	0x00616d6d
 bc8:	6e676973 	mcrvs	9, 3, r6, cr7, cr3, {3}
 bcc:	006d6167 	rsbeq	r6, sp, r7, ror #2
 bd0:	7365725f 	cmnvc	r5, #-268435451	; 0xf0000005
 bd4:	5f746c75 	svcpl	0x00746c75
 bd8:	5f5f006b 	svcpl	0x005f006b
 bdc:	5f006d74 	svcpl	0x00006d74
 be0:	6863775f 	stmdavs	r3!, {r0, r1, r2, r3, r4, r6, r8, r9, sl, ip, sp, lr}^
 be4:	61750062 	cmnvs	r5, r2, rrx
 be8:	675f7472 			; <UNDEFINED> instruction: 0x675f7472
 bec:	00637465 	rsbeq	r7, r3, r5, ror #8
 bf0:	6474735f 	ldrbtvs	r7, [r4], #-863	; 0x35f
 bf4:	0074756f 	rsbseq	r7, r4, pc, ror #10
 bf8:	7476635f 	ldrbtvc	r6, [r6], #-863	; 0x35f
 bfc:	006e656c 	rsbeq	r6, lr, ip, ror #10
 c00:	6c69665f 	stclvs	6, cr6, [r9], #-380	; 0xfffffe84
 c04:	6e5f0065 	cdpvs	0, 5, cr0, cr15, cr5, {3}
 c08:	73626f69 	cmnvc	r2, #420	; 0x1a4
 c0c:	74615f00 	strbtvc	r5, [r1], #-3840	; 0xf00
 c10:	74697865 	strbtvc	r7, [r9], #-2149	; 0x865
 c14:	735f0030 	cmpvc	pc, #48	; 0x30
 c18:	616e6769 	cmnvs	lr, r9, ror #14
 c1c:	75625f6c 	strbvc	r5, [r2, #-3948]!	; 0xf6c
 c20:	615f0066 	cmpvs	pc, r6, rrx
 c24:	69746373 	ldmdbvs	r4!, {r0, r1, r4, r5, r6, r8, r9, sp, lr}^
 c28:	625f656d 	subsvs	r6, pc, #457179136	; 0x1b400000
 c2c:	5f006675 	svcpl	0x00006675
 c30:	75736572 	ldrbvc	r6, [r3, #-1394]!	; 0x572
 c34:	5f00746c 	svcpl	0x0000746c
 c38:	6863775f 	stmdavs	r3!, {r0, r1, r2, r3, r4, r6, r8, r9, sl, ip, sp, lr}^
 c3c:	49504700 	ldmdbmi	r0, {r8, r9, sl, lr}^
 c40:	55465f4f 	strbpl	r5, [r6, #-3919]	; 0xf4f
 c44:	415f434e 	cmpmi	pc, lr, asr #6
 c48:	0032544c 	eorseq	r5, r2, ip, asr #8
 c4c:	746e6977 	strbtvc	r6, [lr], #-2423	; 0x977
 c50:	5f00745f 	svcpl	0x0000745f
 c54:	6b636f6c 	blvs	18dca0c <__bss_end__+0x18d2294>
 c58:	6c665f00 	stclvs	15, cr5, [r6], #-0
 c5c:	32736761 	rsbscc	r6, r3, #25427968	; 0x1840000
 c60:	745f5f00 	ldrbvc	r5, [pc], #-3840	; c68 <__code_start__-0x7398>
 c64:	65795f6d 	ldrbvs	r5, [r9, #-3949]!	; 0xf6d
 c68:	5f007261 	svcpl	0x00007261
 c6c:	7366666f 	cmnvc	r6, #116391936	; 0x6f00000
 c70:	67007465 	strvs	r7, [r0, -r5, ror #8]
 c74:	5f6f6970 	svcpl	0x006f6970
 c78:	5f746573 	svcpl	0x00746573
 c7c:	636e7566 	cmnvs	lr, #427819008	; 0x19800000
 c80:	6e6f6974 	mcrvs	9, 3, r6, cr15, cr4, {3}
 c84:	656e5f00 	strbvs	r5, [lr, #-3840]!	; 0xf00
 c88:	00667478 	rsbeq	r7, r6, r8, ror r4
 c8c:	6d745f5f 	ldclvs	15, cr5, [r4, #-380]!	; 0xfffffe84
 c90:	6e6f6d5f 	mcrvs	13, 3, r6, cr15, cr15, {2}
 c94:	74615f00 	strbtvc	r5, [r1], #-3840	; 0xf00
 c98:	74697865 	strbtvc	r7, [r9], #-2149	; 0x865
 c9c:	735f5f00 	cmpvc	pc, #0, 30
 ca0:	69646964 	stmdbvs	r4!, {r2, r5, r6, r8, fp, sp, lr}^
 ca4:	0074696e 	rsbseq	r6, r4, lr, ror #18
 ca8:	66666f5f 	uqsaxvs	r6, r6, pc	; <UNPREDICTABLE>
 cac:	7500745f 	strvc	r7, [r0, #-1119]	; 0x45f
 cb0:	00747261 	rsbseq	r7, r4, r1, ror #4
 cb4:	6572665f 	ldrbvs	r6, [r2, #-1631]!	; 0x65f
 cb8:	73696c65 	cmnvc	r9, #25856	; 0x6500
 cbc:	4c5f0074 	mrrcmi	0, 7, r0, pc, cr4	; <UNPREDICTABLE>
 cc0:	5f4b434f 	svcpl	0x004b434f
 cc4:	55434552 	strbpl	r4, [r3, #-1362]	; 0x552
 cc8:	56495352 			; <UNDEFINED> instruction: 0x56495352
 ccc:	00545f45 	subseq	r5, r4, r5, asr #30
 cd0:	77656e5f 			; <UNDEFINED> instruction: 0x77656e5f
 cd4:	5f685f00 	svcpl	0x00685f00
 cd8:	6e727265 	cdpvs	2, 7, cr7, cr2, cr5, {3}
 cdc:	5f5f006f 	svcpl	0x005f006f
 ce0:	795f6d74 	ldmdbvc	pc, {r2, r4, r5, r6, r8, sl, fp, sp, lr}^	; <UNPREDICTABLE>
 ce4:	00796164 	rsbseq	r6, r9, r4, ror #2
 ce8:	62735f5f 	rsbsvs	r5, r3, #380	; 0x17c
 cec:	5f006675 	svcpl	0x00006675
 cf0:	73626f69 	cmnvc	r2, #420	; 0x1a4
 cf4:	465f5f00 	ldrbmi	r5, [pc], -r0, lsl #30
 cf8:	00454c49 	subeq	r4, r5, r9, asr #24
 cfc:	73626d5f 	cmnvc	r2, #6080	; 0x17c0
 d00:	65746174 	ldrbvs	r6, [r4, #-372]!	; 0x174
 d04:	5f00745f 	svcpl	0x0000745f
 d08:	4946735f 	stmdbmi	r6, {r0, r1, r2, r3, r4, r6, r8, r9, ip, sp, lr}^
 d0c:	5f00454c 	svcpl	0x0000454c
 d10:	7473626d 	ldrbtvc	r6, [r3], #-621	; 0x26d
 d14:	00657461 	rsbeq	r7, r5, r1, ror #8
 d18:	6e61725f 	mcrvs	2, 3, r7, cr1, cr15, {2}
 d1c:	656e5f64 	strbvs	r5, [lr, #-3940]!	; 0xf64
 d20:	5f007478 	svcpl	0x00007478
 d24:	656c626d 	strbvs	r6, [ip, #-621]!	; 0x26d
 d28:	74735f6e 	ldrbtvc	r5, [r3], #-3950	; 0xf6e
 d2c:	00657461 	rsbeq	r7, r5, r1, ror #8
 d30:	636e695f 	cmnvs	lr, #1556480	; 0x17c000
 d34:	6e695f00 	cdpvs	15, 6, cr5, cr9, cr0, {0}
 d38:	635f0064 	cmpvs	pc, #100	; 0x64
 d3c:	65727275 	ldrbvs	r7, [r2, #-629]!	; 0x275
 d40:	6c5f746e 	cfldrdvs	mvd7, [pc], {110}	; 0x6e
 d44:	6c61636f 	stclvs	3, cr6, [r1], #-444	; 0xfffffe44
 d48:	5f5f0065 	svcpl	0x005f0065
 d4c:	61656c63 	cmnvs	r5, r3, ror #24
 d50:	0070756e 	rsbseq	r7, r0, lr, ror #10
 d54:	78616d5f 	stmdavc	r1!, {r0, r1, r2, r3, r4, r6, r8, sl, fp, sp, lr}^
 d58:	00736477 	rsbseq	r6, r3, r7, ror r4
 d5c:	6565725f 	strbvs	r7, [r5, #-607]!	; 0x25f
 d60:	5f00746e 	svcpl	0x0000746e
 d64:	64656573 	strbtvs	r6, [r5], #-1395	; 0x573
 d68:	635f5f00 	cmpvs	pc, #0, 30
 d6c:	746e756f 	strbtvc	r7, [lr], #-1391	; 0x56f
 d70:	765f5f00 	ldrbvc	r5, [pc], -r0, lsl #30
 d74:	65756c61 	ldrbvs	r6, [r5, #-3169]!	; 0xc61
 d78:	65735f00 	ldrbvs	r5, [r3, #-3840]!	; 0xf00
 d7c:	62006b65 	andvs	r6, r0, #103424	; 0x19400
 d80:	00647561 	rsbeq	r7, r4, r1, ror #10
 d84:	6f70665f 	svcvs	0x0070665f
 d88:	00745f73 	rsbseq	r5, r4, r3, ror pc
 d8c:	6d745f5f 	ldclvs	15, cr5, [r4, #-380]!	; 0xfffffe84
 d90:	6e696d5f 	mcrvs	13, 3, r6, cr9, cr15, {2}
 d94:	72637300 	rsbvc	r7, r3, #0, 6
 d98:	68637461 	stmdavs	r3!, {r0, r5, r6, sl, ip, sp, lr}^
 d9c:	756d5f00 	strbvc	r5, [sp, #-3840]!	; 0xf00
 da0:	7000746c 	andvc	r7, r0, ip, ror #8
 da4:	32337475 	eorscc	r7, r3, #1962934272	; 0x75000000
 da8:	554e4700 	strbpl	r4, [lr, #-1792]	; 0x700
 dac:	39394320 	ldmdbcc	r9!, {r5, r8, r9, lr}
 db0:	332e3620 	teqcc	lr, #32, 12	; 0x2000000
 db4:	3220312e 	eorcc	r3, r0, #-2147483637	; 0x8000000b
 db8:	30373130 	eorscc	r3, r7, r0, lsr r1
 dbc:	20303236 	eorscs	r3, r0, r6, lsr r2
 dc0:	70636d2d 	rsbvc	r6, r3, sp, lsr #26
 dc4:	72613d75 	rsbvc	r3, r1, #7488	; 0x1d40
 dc8:	3731316d 	ldrcc	r3, [r1, -sp, ror #2]!
 dcc:	667a6a36 			; <UNDEFINED> instruction: 0x667a6a36
 dd0:	2d20732d 	stccs	3, cr7, [r0, #-180]!	; 0xffffff4c
 dd4:	6e75746d 	cdpvs	4, 7, cr7, cr5, cr13, {3}
 dd8:	72613d65 	rsbvc	r3, r1, #6464	; 0x1940
 ddc:	3731316d 	ldrcc	r3, [r1, -sp, ror #2]!
 de0:	667a6a36 			; <UNDEFINED> instruction: 0x667a6a36
 de4:	2d20732d 	stccs	3, cr7, [r0, #-180]!	; 0xffffff4c
 de8:	62646767 	rsbvs	r6, r4, #27000832	; 0x19c0000
 dec:	674f2d20 	strbvs	r2, [pc, -r0, lsr #26]
 df0:	74732d20 	ldrbtvc	r2, [r3], #-3360	; 0xd20
 df4:	6e673d64 	cdpvs	13, 6, cr3, cr7, cr4, {3}
 df8:	20393975 	eorscs	r3, r9, r5, ror r9
 dfc:	7266662d 	rsbvc	r6, r6, #47185920	; 0x2d00000
 e00:	74736565 	ldrbtvc	r6, [r3], #-1381	; 0x565
 e04:	69646e61 	stmdbvs	r4!, {r0, r5, r6, r9, sl, fp, sp, lr}^
 e08:	5f00676e 	svcpl	0x0000676e
 e0c:	74727473 	ldrbtvc	r7, [r2], #-1139	; 0x473
 e10:	6c5f6b6f 	mrrcvs	11, 6, r6, pc, cr15	; <UNPREDICTABLE>
 e14:	00747361 	rsbseq	r7, r4, r1, ror #6
 e18:	746e665f 	strbtvc	r6, [lr], #-1631	; 0x65f
 e1c:	73657079 	cmnvc	r5, #121	; 0x79
 e20:	64615f00 	strbtvs	r5, [r1], #-3840	; 0xf00
 e24:	5f5f0064 	svcpl	0x005f0064
 e28:	6e6f4c55 	mcrvs	12, 3, r4, cr15, cr5, {2}
 e2c:	675f0067 	ldrbvs	r0, [pc, -r7, rrx]
 e30:	61647465 	cmnvs	r4, r5, ror #8
 e34:	655f6574 	ldrbvs	r6, [pc, #-1396]	; 8c8 <__code_start__-0x7738>
 e38:	5f007272 	svcpl	0x00007272
 e3c:	626f6c67 	rsbvs	r6, pc, #26368	; 0x6700
 e40:	695f6c61 	ldmdbvs	pc, {r0, r5, r6, sl, fp, sp, lr}^	; <UNPREDICTABLE>
 e44:	7275706d 	rsbsvc	r7, r5, #109	; 0x6d
 e48:	74705f65 	ldrbtvc	r5, [r0], #-3941	; 0xf65
 e4c:	635f0072 	cmpvs	pc, #114	; 0x72
 e50:	65727275 	ldrbvs	r7, [r2, #-629]!	; 0x275
 e54:	635f746e 	cmpvs	pc, #1845493760	; 0x6e000000
 e58:	67657461 	strbvs	r7, [r5, -r1, ror #8]!
 e5c:	0079726f 	rsbseq	r7, r9, pc, ror #4
 e60:	756e755f 	strbvc	r7, [lr, #-1375]!	; 0x55f
 e64:	5f646573 	svcpl	0x00646573
 e68:	646e6172 	strbtvs	r6, [lr], #-370	; 0x172
 e6c:	64775f00 	ldrbtvs	r5, [r7], #-3840	; 0xf00
 e70:	5f5f0073 	svcpl	0x005f0073
 e74:	775f6d74 			; <UNDEFINED> instruction: 0x775f6d74
 e78:	00796164 	rsbseq	r6, r9, r4, ror #2
 e7c:	756c675f 	strbvc	r6, [ip, #-1887]!	; 0x75f
 e80:	50470065 	subpl	r0, r7, r5, rrx
 e84:	465f4f49 	ldrbmi	r4, [pc], -r9, asr #30
 e88:	5f434e55 	svcpl	0x00434e55
 e8c:	5054554f 	subspl	r5, r4, pc, asr #10
 e90:	5f005455 	svcpl	0x00005455
 e94:	6c616d6e 	stclvs	13, cr6, [r1], #-440	; 0xfffffe48
 e98:	00636f6c 	rsbeq	r6, r3, ip, ror #30
 e9c:	34366c5f 	ldrtcc	r6, [r6], #-3167	; 0xc5f
 ea0:	75625f61 	strbvc	r5, [r2, #-3937]!	; 0xf61
 ea4:	65670066 	strbvs	r0, [r7, #-102]!	; 0x66
 ea8:	00323374 	eorseq	r3, r2, r4, ror r3
 eac:	74726175 	ldrbtvc	r6, [r2], #-373	; 0x175
 eb0:	6e61635f 	mcrvs	3, 3, r6, cr1, cr15, {2}
 eb4:	7465675f 	strbtvc	r6, [r5], #-1887	; 0x75f
 eb8:	735f0063 	cmpvc	pc, #99	; 0x63
 ebc:	665f6769 	ldrbvs	r6, [pc], -r9, ror #14
 ec0:	00636e75 	rsbeq	r6, r3, r5, ror lr
 ec4:	695f726f 	ldmdbvs	pc, {r0, r1, r2, r3, r5, r6, r9, ip, sp, lr}^	; <UNPREDICTABLE>
 ec8:	0032336e 	eorseq	r3, r2, lr, ror #6
 ecc:	74726175 	ldrbtvc	r6, [r2], #-373	; 0x175
 ed0:	7361685f 	cmnvc	r1, #6225920	; 0x5f0000
 ed4:	7461645f 	strbtvc	r6, [r1], #-1119	; 0x45f
 ed8:	50470061 	subpl	r0, r7, r1, rrx
 edc:	465f4f49 	ldrbmi	r4, [pc], -r9, asr #30
 ee0:	5f434e55 	svcpl	0x00434e55
 ee4:	30544c41 	subscc	r4, r4, r1, asr #24
 ee8:	626e5f00 	rsbvs	r5, lr, #0, 30
 eec:	5f006675 	svcpl	0x00006675
 ef0:	73756e75 	cmnvc	r5, #1872	; 0x750
 ef4:	47006465 	strmi	r6, [r0, -r5, ror #8]
 ef8:	5f4f4950 	svcpl	0x004f4950
 efc:	434e5546 	movtmi	r5, #58694	; 0xe546
 f00:	544c415f 	strbpl	r4, [ip], #-351	; 0x15f
 f04:	50470033 	subpl	r0, r7, r3, lsr r0
 f08:	465f4f49 	ldrbmi	r4, [pc], -r9, asr #30
 f0c:	5f434e55 	svcpl	0x00434e55
 f10:	34544c41 	ldrbcc	r4, [r4], #-3137	; 0xc41
 f14:	49504700 	ldmdbmi	r0, {r8, r9, sl, lr}^
 f18:	55465f4f 	strbpl	r5, [r6, #-3919]	; 0xf4f
 f1c:	415f434e 	cmpmi	pc, lr, asr #6
 f20:	0035544c 	eorseq	r5, r5, ip, asr #8
 f24:	6d745f5f 	ldclvs	15, cr5, [r4, #-380]!	; 0xfffffe84
 f28:	6473695f 	ldrbtvs	r6, [r3], #-2399	; 0x95f
 f2c:	5f007473 	svcpl	0x00007473
 f30:	61636f6c 	cmnvs	r3, ip, ror #30
 f34:	6d69746c 	cfstrdvs	mvd7, [r9, #-432]!	; 0xfffffe50
 f38:	75625f65 	strbvc	r5, [r2, #-3941]!	; 0xf65
 f3c:	635f0066 	cmpvs	pc, #102	; 0x66
 f40:	65736f6c 	ldrbvs	r6, [r3, #-3948]!	; 0xf6c
 f44:	34725f00 	ldrbtcc	r5, [r2], #-3840	; 0xf00
 f48:	6d5f0038 	ldclvs	0, cr0, [pc, #-224]	; e70 <__code_start__-0x7190>
 f4c:	776f7462 	strbvc	r7, [pc, -r2, ror #8]!
 f50:	74735f63 	ldrbtvc	r5, [r3], #-3939	; 0xf63
 f54:	00657461 	rsbeq	r7, r5, r1, ror #8
 f58:	7335705f 	teqvc	r5, #95	; 0x5f
 f5c:	745f5f00 	ldrbvc	r5, [pc], #-3840	; f64 <__code_start__-0x709c>
 f60:	646d5f6d 	strbtvs	r5, [sp], #-3949	; 0xf6d
 f64:	67007961 	strvs	r7, [r0, -r1, ror #18]
 f68:	5f6f6970 	svcpl	0x006f6970
 f6c:	5f746573 	svcpl	0x00746573
 f70:	0066666f 	rsbeq	r6, r6, pc, ror #12
 f74:	6b6e6162 	blvs	1b99504 <__bss_end__+0x1b8ed8c>
 f78:	69706700 	ldmdbvs	r0!, {r8, r9, sl, sp, lr}^
 f7c:	00632e6f 	rsbeq	r2, r3, pc, ror #28
 f80:	6f697067 	svcvs	0x00697067
 f84:	6165725f 	cmnvs	r5, pc, asr r2
 f88:	70670064 	rsbvc	r0, r7, r4, rrx
 f8c:	735f6f69 	cmpvc	pc, #420	; 0x1a4
 f90:	6f5f7465 	svcvs	0x005f7465
 f94:	75707475 	ldrbvc	r7, [r0, #-1141]!	; 0x475
 f98:	70670074 	rsbvc	r0, r7, r4, ror r0
 f9c:	775f6f69 	ldrbvc	r6, [pc, -r9, ror #30]
 fa0:	65746972 	ldrbvs	r6, [r4, #-2418]!	; 0x972
 fa4:	69706700 	ldmdbvs	r0!, {r8, r9, sl, sp, lr}^
 fa8:	65735f6f 	ldrbvs	r5, [r3, #-3951]!	; 0xf6f
 fac:	67003074 	smlsdxvs	r0, r4, r0, r3
 fb0:	5f6f6970 	svcpl	0x006f6970
 fb4:	3076656c 	rsbscc	r6, r6, ip, ror #10
 fb8:	69706700 	ldmdbvs	r0!, {r8, r9, sl, sp, lr}^
 fbc:	65735f6f 	ldrbvs	r5, [r3, #-3951]!	; 0xf6f
 fc0:	6e695f74 	mcrvs	15, 3, r5, cr9, cr4, {3}
 fc4:	00747570 	rsbseq	r7, r4, r0, ror r5
 fc8:	6f697067 	svcvs	0x00697067
 fcc:	7465735f 	strbtvc	r7, [r5], #-863	; 0x35f
 fd0:	006e6f5f 	rsbeq	r6, lr, pc, asr pc
 fd4:	6f697067 	svcvs	0x00697067
 fd8:	6e75665f 	mrcvs	6, 3, r6, cr5, cr15, {2}
 fdc:	00745f63 	rsbseq	r5, r4, r3, ror #30
 fe0:	6f697067 	svcvs	0x00697067
 fe4:	726c635f 	rsbvc	r6, ip, #2080374785	; 0x7c000001
 fe8:	Address 0x0000000000000fe8 is out of bounds.


Disassembly of section .debug_frame:

00000000 <.debug_frame>:
   0:	0000000c 	andeq	r0, r0, ip
   4:	ffffffff 			; <UNDEFINED> instruction: 0xffffffff
   8:	7c020001 	stcvc	0, cr0, [r2], {1}
   c:	000d0c0e 	andeq	r0, sp, lr, lsl #24
  10:	00000014 	andeq	r0, r0, r4, lsl r0
  14:	00000000 	andeq	r0, r0, r0
  18:	00008020 	andeq	r8, r0, r0, lsr #32
  1c:	00000038 	andeq	r0, r0, r8, lsr r0
  20:	8e040e42 	cdphi	14, 0, cr0, cr4, cr2, {2}
  24:	100e4201 	andne	r4, lr, r1, lsl #4
  28:	00000014 	andeq	r0, r0, r4, lsl r0
  2c:	00000000 	andeq	r0, r0, r0
  30:	00008058 	andeq	r8, r0, r8, asr r0
  34:	000000b0 	strheq	r0, [r0], -r0	; <UNPREDICTABLE>
  38:	8e040e42 	cdphi	14, 0, cr0, cr4, cr2, {2}
  3c:	100e4201 	andne	r4, lr, r1, lsl #4
  40:	0000000c 	andeq	r0, r0, ip
  44:	00000000 	andeq	r0, r0, r0
  48:	00008108 	andeq	r8, r0, r8, lsl #2
  4c:	00000008 	andeq	r0, r0, r8
  50:	0000000c 	andeq	r0, r0, ip
  54:	00000000 	andeq	r0, r0, r0
  58:	00008110 	andeq	r8, r0, r0, lsl r1
  5c:	00000020 	andeq	r0, r0, r0, lsr #32
  60:	00000014 	andeq	r0, r0, r4, lsl r0
  64:	00000000 	andeq	r0, r0, r0
  68:	00008130 	andeq	r8, r0, r0, lsr r1
  6c:	00000098 	muleq	r0, r8, r0
  70:	8e040e42 	cdphi	14, 0, cr0, cr4, cr2, {2}
  74:	100e4201 	andne	r4, lr, r1, lsl #4
  78:	0000000c 	andeq	r0, r0, ip
  7c:	00000000 	andeq	r0, r0, r0
  80:	000081c8 	andeq	r8, r0, r8, asr #3
  84:	00000070 	andeq	r0, r0, r0, ror r0
  88:	00000014 	andeq	r0, r0, r4, lsl r0
  8c:	00000000 	andeq	r0, r0, r0
  90:	00008238 	andeq	r8, r0, r8, lsr r2
  94:	00000070 	andeq	r0, r0, r0, ror r0
  98:	8e040e42 	cdphi	14, 0, cr0, cr4, cr2, {2}
  9c:	400e4201 	andmi	r4, lr, r1, lsl #4
  a0:	0000000c 	andeq	r0, r0, ip
  a4:	ffffffff 			; <UNDEFINED> instruction: 0xffffffff
  a8:	7c020001 	stcvc	0, cr0, [r2], {1}
  ac:	000d0c0e 	andeq	r0, sp, lr, lsl #24
  b0:	00000014 	andeq	r0, r0, r4, lsl r0
  b4:	000000a0 	andeq	r0, r0, r0, lsr #1
  b8:	000082a8 	andeq	r8, r0, r8, lsr #5
  bc:	000000b0 	strheq	r0, [r0], -r0	; <UNPREDICTABLE>
  c0:	8e040e42 	cdphi	14, 0, cr0, cr4, cr2, {2}
  c4:	100e4201 	andne	r4, lr, r1, lsl #4
  c8:	00000014 	andeq	r0, r0, r4, lsl r0
  cc:	000000a0 	andeq	r0, r0, r0, lsr #1
  d0:	00008358 	andeq	r8, r0, r8, asr r3
  d4:	000000dc 	ldrdeq	r0, [r0], -ip
  d8:	8e040e42 	cdphi	14, 0, cr0, cr4, cr2, {2}
  dc:	100e4201 	andne	r4, lr, r1, lsl #4
  e0:	00000014 	andeq	r0, r0, r4, lsl r0
  e4:	000000a0 	andeq	r0, r0, r0, lsr #1
  e8:	00008434 	andeq	r8, r0, r4, lsr r4
  ec:	0000003c 	andeq	r0, r0, ip, lsr r0
  f0:	83080e42 	movwhi	r0, #36418	; 0x8e42
  f4:	00018e02 	andeq	r8, r1, r2, lsl #28
  f8:	0000000c 	andeq	r0, r0, ip
  fc:	000000a0 	andeq	r0, r0, r0, lsr #1
 100:	00008470 	andeq	r8, r0, r0, ror r4
 104:	00000034 	andeq	r0, r0, r4, lsr r0
 108:	00000014 	andeq	r0, r0, r4, lsl r0
 10c:	000000a0 	andeq	r0, r0, r0, lsr #1
 110:	000084a4 	andeq	r8, r0, r4, lsr #9
 114:	00000098 	muleq	r0, r8, r0
 118:	8e040e42 	cdphi	14, 0, cr0, cr4, cr2, {2}
 11c:	100e4201 	andne	r4, lr, r1, lsl #4
 120:	0000000c 	andeq	r0, r0, ip
 124:	000000a0 	andeq	r0, r0, r0, lsr #1
 128:	0000853c 	andeq	r8, r0, ip, lsr r5
 12c:	00000004 	andeq	r0, r0, r4
 130:	00000014 	andeq	r0, r0, r4, lsl r0
 134:	000000a0 	andeq	r0, r0, r0, lsr #1
 138:	00008540 	andeq	r8, r0, r0, asr #10
 13c:	0000002c 	andeq	r0, r0, ip, lsr #32
 140:	83080e42 	movwhi	r0, #36418	; 0x8e42
 144:	00018e02 	andeq	r8, r1, r2, lsl #28
 148:	0000000c 	andeq	r0, r0, ip
 14c:	000000a0 	andeq	r0, r0, r0, lsr #1
 150:	0000856c 	andeq	r8, r0, ip, ror #10
 154:	00000034 	andeq	r0, r0, r4, lsr r0
 158:	0000000c 	andeq	r0, r0, ip
 15c:	000000a0 	andeq	r0, r0, r0, lsr #1
 160:	000085a0 	andeq	r8, r0, r0, lsr #11
 164:	00000010 	andeq	r0, r0, r0, lsl r0
 168:	00000014 	andeq	r0, r0, r4, lsl r0
 16c:	000000a0 	andeq	r0, r0, r0, lsr #1
 170:	000085b0 			; <UNDEFINED> instruction: 0x000085b0
 174:	00000070 	andeq	r0, r0, r0, ror r0
 178:	83080e42 	movwhi	r0, #36418	; 0x8e42
 17c:	00018e02 	andeq	r8, r1, r2, lsl #28
 180:	0000000c 	andeq	r0, r0, ip
 184:	ffffffff 			; <UNDEFINED> instruction: 0xffffffff
 188:	7c020001 	stcvc	0, cr0, [r2], {1}
 18c:	000d0c0e 	andeq	r0, sp, lr, lsl #24
 190:	00000018 	andeq	r0, r0, r8, lsl r0
 194:	00000180 	andeq	r0, r0, r0, lsl #3
 198:	00008758 	andeq	r8, r0, r8, asr r7
 19c:	000001ac 	andeq	r0, r0, ip, lsr #3
 1a0:	840c0e42 	strhi	r0, [ip], #-3650	; 0xe42
 1a4:	8e028503 	cfsh32hi	mvfx8, mvfx2, #3
 1a8:	180e4201 	stmdane	lr, {r0, r9, lr}
 1ac:	00000024 	andeq	r0, r0, r4, lsr #32
 1b0:	00000180 	andeq	r0, r0, r0, lsl #3
 1b4:	00008904 	andeq	r8, r0, r4, lsl #18
 1b8:	000004e0 	andeq	r0, r0, r0, ror #9
 1bc:	84240e42 	strthi	r0, [r4], #-3650	; 0xe42
 1c0:	86088509 	strhi	r8, [r8], -r9, lsl #10
 1c4:	88068707 	stmdahi	r6, {r0, r1, r2, r8, r9, sl, pc}
 1c8:	8a048905 	bhi	1225e4 <__bss_end__+0x117e6c>
 1cc:	8e028b03 	vmlahi.f64	d8, d2, d3
 1d0:	300e4201 	andcc	r4, lr, r1, lsl #4
 1d4:	00000018 	andeq	r0, r0, r8, lsl r0
 1d8:	00000180 	andeq	r0, r0, r0, lsl #3
 1dc:	00008de4 	andeq	r8, r0, r4, ror #27
 1e0:	00000084 	andeq	r0, r0, r4, lsl #1
 1e4:	83100e42 	tsthi	r0, #1056	; 0x420
 1e8:	85038404 	strhi	r8, [r3, #-1028]	; 0x404
 1ec:	00018e02 	andeq	r8, r1, r2, lsl #28
 1f0:	0000000c 	andeq	r0, r0, ip
 1f4:	00000180 	andeq	r0, r0, r0, lsl #3
 1f8:	00008e68 	andeq	r8, r0, r8, ror #28
 1fc:	00000028 	andeq	r0, r0, r8, lsr #32
 200:	00000014 	andeq	r0, r0, r4, lsl r0
 204:	00000180 	andeq	r0, r0, r0, lsl #3
 208:	00008e90 	muleq	r0, r0, lr
 20c:	0000004c 	andeq	r0, r0, ip, asr #32
 210:	84080e42 	strhi	r0, [r8], #-3650	; 0xe42
 214:	00018e02 	andeq	r8, r1, r2, lsl #28
 218:	0000000c 	andeq	r0, r0, ip
 21c:	ffffffff 			; <UNDEFINED> instruction: 0xffffffff
 220:	7c020001 	stcvc	0, cr0, [r2], {1}
 224:	000d0c0e 	andeq	r0, sp, lr, lsl #24
 228:	00000024 	andeq	r0, r0, r4, lsr #32
 22c:	00000218 	andeq	r0, r0, r8, lsl r2
 230:	00008edc 	ldrdeq	r8, [r0], -ip
 234:	00000058 	andeq	r0, r0, r8, asr r0
 238:	80100e42 	andshi	r0, r0, r2, asr #28
 23c:	82038104 	andhi	r8, r3, #4, 2
 240:	42018302 	andmi	r8, r1, #134217728	; 0x8000000
 244:	07841c0e 	streq	r1, [r4, lr, lsl #24]
 248:	058e0685 	streq	r0, [lr, #1669]	; 0x685
 24c:	00280e42 	eoreq	r0, r8, r2, asr #28
 250:	0000000c 	andeq	r0, r0, ip
 254:	ffffffff 			; <UNDEFINED> instruction: 0xffffffff
 258:	7c020001 	stcvc	0, cr0, [r2], {1}
 25c:	000d0c0e 	andeq	r0, sp, lr, lsl #24
 260:	00000014 	andeq	r0, r0, r4, lsl r0
 264:	00000250 	andeq	r0, r0, r0, asr r2
 268:	00008f34 	andeq	r8, r0, r4, lsr pc
 26c:	00000014 	andeq	r0, r0, r4, lsl r0
 270:	84080e42 	strhi	r0, [r8], #-3650	; 0xe42
 274:	00018e02 	andeq	r8, r1, r2, lsl #28
 278:	0000000c 	andeq	r0, r0, ip
 27c:	00000250 	andeq	r0, r0, r0, asr r2
 280:	00008f48 	andeq	r8, r0, r8, asr #30
 284:	00000018 	andeq	r0, r0, r8, lsl r0
 288:	0000000c 	andeq	r0, r0, ip
 28c:	00000250 	andeq	r0, r0, r0, asr r2
 290:	00008f60 	andeq	r8, r0, r0, ror #30
 294:	00000010 	andeq	r0, r0, r0, lsl r0
 298:	0000000c 	andeq	r0, r0, ip
 29c:	ffffffff 			; <UNDEFINED> instruction: 0xffffffff
 2a0:	7c020001 	stcvc	0, cr0, [r2], {1}
 2a4:	000d0c0e 	andeq	r0, sp, lr, lsl #24
 2a8:	00000018 	andeq	r0, r0, r8, lsl r0
 2ac:	00000298 	muleq	r0, r8, r2
 2b0:	00008f70 	andeq	r8, r0, r0, ror pc
 2b4:	00000034 	andeq	r0, r0, r4, lsr r0
 2b8:	83100e42 	tsthi	r0, #1056	; 0x420
 2bc:	85038404 	strhi	r8, [r3, #-1028]	; 0x404
 2c0:	00018e02 	andeq	r8, r1, r2, lsl #28
 2c4:	0000000c 	andeq	r0, r0, ip
 2c8:	ffffffff 			; <UNDEFINED> instruction: 0xffffffff
 2cc:	7c020001 	stcvc	0, cr0, [r2], {1}
 2d0:	000d0c0e 	andeq	r0, sp, lr, lsl #24
 2d4:	0000000c 	andeq	r0, r0, ip
 2d8:	000002c4 	andeq	r0, r0, r4, asr #5
 2dc:	00008fa4 	andeq	r8, r0, r4, lsr #31
 2e0:	00000014 	andeq	r0, r0, r4, lsl r0
 2e4:	0000000c 	andeq	r0, r0, ip
 2e8:	000002c4 	andeq	r0, r0, r4, asr #5
 2ec:	00008fb8 			; <UNDEFINED> instruction: 0x00008fb8
 2f0:	0000002c 	andeq	r0, r0, ip, lsr #32
 2f4:	0000000c 	andeq	r0, r0, ip
 2f8:	000002c4 	andeq	r0, r0, r4, asr #5
 2fc:	00008fe4 	andeq	r8, r0, r4, ror #31
 300:	00000040 	andeq	r0, r0, r0, asr #32
 304:	00000020 	andeq	r0, r0, r0, lsr #32
 308:	000002c4 	andeq	r0, r0, r4, asr #5
 30c:	00009024 	andeq	r9, r0, r4, lsr #32
 310:	000001bc 			; <UNDEFINED> instruction: 0x000001bc
 314:	84180e42 	ldrhi	r0, [r8], #-3650	; 0xe42
 318:	86058506 	strhi	r8, [r5], -r6, lsl #10
 31c:	88038704 	stmdahi	r3, {r2, r8, r9, sl, pc}
 320:	42018e02 	andmi	r8, r1, #2, 28
 324:	0000600e 	andeq	r6, r0, lr
 328:	00000014 	andeq	r0, r0, r4, lsl r0
 32c:	000002c4 	andeq	r0, r0, r4, asr #5
 330:	000091e0 	andeq	r9, r0, r0, ror #3
 334:	00000068 	andeq	r0, r0, r8, rrx
 338:	8e040e42 	cdphi	14, 0, cr0, cr4, cr2, {2}
 33c:	100e4201 	andne	r4, lr, r1, lsl #4
 340:	00000028 	andeq	r0, r0, r8, lsr #32
 344:	000002c4 	andeq	r0, r0, r4, asr #5
 348:	00009248 	andeq	r9, r0, r8, asr #4
 34c:	000002d4 	ldrdeq	r0, [r0], -r4
 350:	84240e42 	strthi	r0, [r4], #-3650	; 0xe42
 354:	86088509 	strhi	r8, [r8], -r9, lsl #10
 358:	88068707 	stmdahi	r6, {r0, r1, r2, r8, r9, sl, pc}
 35c:	8a048905 	bhi	122778 <__bss_end__+0x118000>
 360:	8e028b03 	vmlahi.f64	d8, d2, d3
 364:	b80e4201 	stmdalt	lr, {r0, r9, lr}
 368:	00000001 	andeq	r0, r0, r1
 36c:	0000000c 	andeq	r0, r0, ip
 370:	ffffffff 			; <UNDEFINED> instruction: 0xffffffff
 374:	7c020001 	stcvc	0, cr0, [r2], {1}
 378:	000d0c0e 	andeq	r0, sp, lr, lsl #24
 37c:	0000000c 	andeq	r0, r0, ip
 380:	0000036c 	andeq	r0, r0, ip, ror #6
 384:	0000951c 	andeq	r9, r0, ip, lsl r5
 388:	00000010 	andeq	r0, r0, r0, lsl r0
 38c:	0000000c 	andeq	r0, r0, ip
 390:	0000036c 	andeq	r0, r0, ip, ror #6
 394:	0000952c 	andeq	r9, r0, ip, lsr #10
 398:	00000010 	andeq	r0, r0, r0, lsl r0
 39c:	0000000c 	andeq	r0, r0, ip
 3a0:	ffffffff 			; <UNDEFINED> instruction: 0xffffffff
 3a4:	7c020001 	stcvc	0, cr0, [r2], {1}
 3a8:	000d0c0e 	andeq	r0, sp, lr, lsl #24
 3ac:	00000014 	andeq	r0, r0, r4, lsl r0
 3b0:	0000039c 	muleq	r0, ip, r3
 3b4:	0000953c 	andeq	r9, r0, ip, lsr r5
 3b8:	0000002c 	andeq	r0, r0, ip, lsr #32
 3bc:	83080e42 	movwhi	r0, #36418	; 0x8e42
 3c0:	00018e02 	andeq	r8, r1, r2, lsl #28
 3c4:	0000000c 	andeq	r0, r0, ip
 3c8:	ffffffff 			; <UNDEFINED> instruction: 0xffffffff
 3cc:	7c020001 	stcvc	0, cr0, [r2], {1}
 3d0:	000d0c0e 	andeq	r0, sp, lr, lsl #24
 3d4:	00000014 	andeq	r0, r0, r4, lsl r0
 3d8:	000003c4 	andeq	r0, r0, r4, asr #7
 3dc:	00009568 	andeq	r9, r0, r8, ror #10
 3e0:	00000038 	andeq	r0, r0, r8, lsr r0
 3e4:	83080e42 	movwhi	r0, #36418	; 0x8e42
 3e8:	00018e02 	andeq	r8, r1, r2, lsl #28
 3ec:	0000000c 	andeq	r0, r0, ip
 3f0:	ffffffff 			; <UNDEFINED> instruction: 0xffffffff
 3f4:	7c020001 	stcvc	0, cr0, [r2], {1}
 3f8:	000d0c0e 	andeq	r0, sp, lr, lsl #24
 3fc:	00000014 	andeq	r0, r0, r4, lsl r0
 400:	000003ec 	andeq	r0, r0, ip, ror #7
 404:	000095a0 	andeq	r9, r0, r0, lsr #11
 408:	00000044 	andeq	r0, r0, r4, asr #32
 40c:	8e040e42 	cdphi	14, 0, cr0, cr4, cr2, {2}
 410:	100e4201 	andne	r4, lr, r1, lsl #4
 414:	0000000c 	andeq	r0, r0, ip
 418:	ffffffff 			; <UNDEFINED> instruction: 0xffffffff
 41c:	7c020001 	stcvc	0, cr0, [r2], {1}
 420:	000d0c0e 	andeq	r0, sp, lr, lsl #24
 424:	00000014 	andeq	r0, r0, r4, lsl r0
 428:	00000414 	andeq	r0, r0, r4, lsl r4
 42c:	000095e4 	andeq	r9, r0, r4, ror #11
 430:	00000044 	andeq	r0, r0, r4, asr #32
 434:	8e040e42 	cdphi	14, 0, cr0, cr4, cr2, {2}
 438:	100e4201 	andne	r4, lr, r1, lsl #4
 43c:	0000000c 	andeq	r0, r0, ip
 440:	ffffffff 			; <UNDEFINED> instruction: 0xffffffff
 444:	7c020001 	stcvc	0, cr0, [r2], {1}
 448:	000d0c0e 	andeq	r0, sp, lr, lsl #24
 44c:	00000014 	andeq	r0, r0, r4, lsl r0
 450:	0000043c 	andeq	r0, r0, ip, lsr r4
 454:	00009628 	andeq	r9, r0, r8, lsr #12
 458:	00000044 	andeq	r0, r0, r4, asr #32
 45c:	8e040e42 	cdphi	14, 0, cr0, cr4, cr2, {2}
 460:	100e4201 	andne	r4, lr, r1, lsl #4
 464:	0000000c 	andeq	r0, r0, ip
 468:	ffffffff 			; <UNDEFINED> instruction: 0xffffffff
 46c:	7c020001 	stcvc	0, cr0, [r2], {1}
 470:	000d0c0e 	andeq	r0, sp, lr, lsl #24
 474:	0000000c 	andeq	r0, r0, ip
 478:	00000464 	andeq	r0, r0, r4, ror #8
 47c:	0000966c 	andeq	r9, r0, ip, ror #12
 480:	00000004 	andeq	r0, r0, r4
 484:	0000000c 	andeq	r0, r0, ip
 488:	00000464 	andeq	r0, r0, r4, ror #8
 48c:	00009670 	andeq	r9, r0, r0, ror r6
 490:	00000004 	andeq	r0, r0, r4
 494:	0000000c 	andeq	r0, r0, ip
 498:	ffffffff 			; <UNDEFINED> instruction: 0xffffffff
 49c:	7c020001 	stcvc	0, cr0, [r2], {1}
 4a0:	000d0c0e 	andeq	r0, sp, lr, lsl #24
 4a4:	00000014 	andeq	r0, r0, r4, lsl r0
 4a8:	00000494 	muleq	r0, r4, r4
 4ac:	00009674 	andeq	r9, r0, r4, ror r6
 4b0:	0000006c 	andeq	r0, r0, ip, rrx
 4b4:	83080e42 	movwhi	r0, #36418	; 0x8e42
 4b8:	00018e02 	andeq	r8, r1, r2, lsl #28
 4bc:	0000000c 	andeq	r0, r0, ip
 4c0:	ffffffff 			; <UNDEFINED> instruction: 0xffffffff
 4c4:	7c020001 	stcvc	0, cr0, [r2], {1}
 4c8:	000d0c0e 	andeq	r0, sp, lr, lsl #24
 4cc:	0000000c 	andeq	r0, r0, ip
 4d0:	000004bc 			; <UNDEFINED> instruction: 0x000004bc
 4d4:	000096e0 	andeq	r9, r0, r0, ror #13
 4d8:	00000018 	andeq	r0, r0, r8, lsl r0
 4dc:	0000000c 	andeq	r0, r0, ip
 4e0:	000004bc 			; <UNDEFINED> instruction: 0x000004bc
 4e4:	000096f8 	strdeq	r9, [r0], -r8
 4e8:	00000014 	andeq	r0, r0, r4, lsl r0
 4ec:	00000014 	andeq	r0, r0, r4, lsl r0
 4f0:	000004bc 			; <UNDEFINED> instruction: 0x000004bc
 4f4:	0000970c 	andeq	r9, r0, ip, lsl #14
 4f8:	00000048 	andeq	r0, r0, r8, asr #32
 4fc:	83080e42 	movwhi	r0, #36418	; 0x8e42
 500:	00018e02 	andeq	r8, r1, r2, lsl #28
 504:	0000000c 	andeq	r0, r0, ip
 508:	ffffffff 			; <UNDEFINED> instruction: 0xffffffff
 50c:	7c020001 	stcvc	0, cr0, [r2], {1}
 510:	000d0c0e 	andeq	r0, sp, lr, lsl #24
 514:	0000000c 	andeq	r0, r0, ip
 518:	00000504 	andeq	r0, r0, r4, lsl #10
 51c:	00009754 	andeq	r9, r0, r4, asr r7
 520:	0000001c 	andeq	r0, r0, ip, lsl r0
 524:	00000014 	andeq	r0, r0, r4, lsl r0
 528:	00000504 	andeq	r0, r0, r4, lsl #10
 52c:	00009770 	andeq	r9, r0, r0, ror r7
 530:	00000014 	andeq	r0, r0, r4, lsl r0
 534:	83080e42 	movwhi	r0, #36418	; 0x8e42
 538:	00018e02 	andeq	r8, r1, r2, lsl #28
 53c:	00000014 	andeq	r0, r0, r4, lsl r0
 540:	00000504 	andeq	r0, r0, r4, lsl #10
 544:	00009784 	andeq	r9, r0, r4, lsl #15
 548:	0000001c 	andeq	r0, r0, ip, lsl r0
 54c:	84080e42 	strhi	r0, [r8], #-3650	; 0xe42
 550:	00018e02 	andeq	r8, r1, r2, lsl #28
 554:	00000018 	andeq	r0, r0, r8, lsl r0
 558:	00000504 	andeq	r0, r0, r4, lsl #10
 55c:	000097a0 	andeq	r9, r0, r0, lsr #15
 560:	00000024 	andeq	r0, r0, r4, lsr #32
 564:	83100e42 	tsthi	r0, #1056	; 0x420
 568:	85038404 	strhi	r8, [r3, #-1028]	; 0x404
 56c:	00018e02 	andeq	r8, r1, r2, lsl #28
 570:	00000014 	andeq	r0, r0, r4, lsl r0
 574:	00000504 	andeq	r0, r0, r4, lsl #10
 578:	000097c4 	andeq	r9, r0, r4, asr #15
 57c:	00000014 	andeq	r0, r0, r4, lsl r0
 580:	83080e42 	movwhi	r0, #36418	; 0x8e42
 584:	00018e02 	andeq	r8, r1, r2, lsl #28
 588:	00000014 	andeq	r0, r0, r4, lsl r0
 58c:	00000504 	andeq	r0, r0, r4, lsl #10
 590:	000097d8 	ldrdeq	r9, [r0], -r8
 594:	00000014 	andeq	r0, r0, r4, lsl r0
 598:	83080e42 	movwhi	r0, #36418	; 0x8e42
 59c:	00018e02 	andeq	r8, r1, r2, lsl #28
 5a0:	0000000c 	andeq	r0, r0, ip
 5a4:	ffffffff 			; <UNDEFINED> instruction: 0xffffffff
 5a8:	7c020001 	stcvc	0, cr0, [r2], {1}
 5ac:	000d0c0e 	andeq	r0, sp, lr, lsl #24
 5b0:	00000018 	andeq	r0, r0, r8, lsl r0
 5b4:	000005a0 	andeq	r0, r0, r0, lsr #11
 5b8:	00009850 	andeq	r9, r0, r0, asr r8
 5bc:	00000020 	andeq	r0, r0, r0, lsr #32
 5c0:	84100e42 	ldrhi	r0, [r0], #-3650	; 0xe42
 5c4:	86038504 	strhi	r8, [r3], -r4, lsl #10
 5c8:	00018e02 	andeq	r8, r1, r2, lsl #28
 5cc:	00000014 	andeq	r0, r0, r4, lsl r0
 5d0:	000005a0 	andeq	r0, r0, r0, lsr #11
 5d4:	00009870 	andeq	r9, r0, r0, ror r8
 5d8:	000000b0 	strheq	r0, [r0], -r0	; <UNPREDICTABLE>
 5dc:	84080e42 	strhi	r0, [r8], #-3650	; 0xe42
 5e0:	00018e02 	andeq	r8, r1, r2, lsl #28
 5e4:	00000014 	andeq	r0, r0, r4, lsl r0
 5e8:	000005a0 	andeq	r0, r0, r0, lsr #11
 5ec:	00009920 	andeq	r9, r0, r0, lsr #18
 5f0:	00000018 	andeq	r0, r0, r8, lsl r0
 5f4:	84080e42 	strhi	r0, [r8], #-3650	; 0xe42
 5f8:	00018e02 	andeq	r8, r1, r2, lsl #28
 5fc:	00000014 	andeq	r0, r0, r4, lsl r0
 600:	000005a0 	andeq	r0, r0, r0, lsr #11
 604:	00009938 	andeq	r9, r0, r8, lsr r9
 608:	00000020 	andeq	r0, r0, r0, lsr #32
 60c:	84080e42 	strhi	r0, [r8], #-3650	; 0xe42
 610:	00018e02 	andeq	r8, r1, r2, lsl #28
 614:	00000014 	andeq	r0, r0, r4, lsl r0
 618:	000005a0 	andeq	r0, r0, r0, lsr #11
 61c:	00009958 	andeq	r9, r0, r8, asr r9
 620:	00000030 	andeq	r0, r0, r0, lsr r0
 624:	84080e42 	strhi	r0, [r8], #-3650	; 0xe42
 628:	00018e02 	andeq	r8, r1, r2, lsl #28
 62c:	00000014 	andeq	r0, r0, r4, lsl r0
 630:	000005a0 	andeq	r0, r0, r0, lsr #11
 634:	00009988 	andeq	r9, r0, r8, lsl #19
 638:	00000030 	andeq	r0, r0, r0, lsr r0
 63c:	84080e42 	strhi	r0, [r8], #-3650	; 0xe42
 640:	00018e02 	andeq	r8, r1, r2, lsl #28
 644:	00000014 	andeq	r0, r0, r4, lsl r0
 648:	000005a0 	andeq	r0, r0, r0, lsr #11
 64c:	000099b8 			; <UNDEFINED> instruction: 0x000099b8
 650:	00000010 	andeq	r0, r0, r0, lsl r0
 654:	84080e42 	strhi	r0, [r8], #-3650	; 0xe42
 658:	00018e02 	andeq	r8, r1, r2, lsl #28
 65c:	0000000c 	andeq	r0, r0, ip
 660:	ffffffff 			; <UNDEFINED> instruction: 0xffffffff
 664:	7c020001 	stcvc	0, cr0, [r2], {1}
 668:	000d0c0e 	andeq	r0, sp, lr, lsl #24
 66c:	00000018 	andeq	r0, r0, r8, lsl r0
 670:	0000065c 	andeq	r0, r0, ip, asr r6
 674:	000099c8 	andeq	r9, r0, r8, asr #19
 678:	00000068 	andeq	r0, r0, r8, rrx
 67c:	84100e4a 	ldrhi	r0, [r0], #-3658	; 0xe4a
 680:	86038504 	strhi	r8, [r3], -r4, lsl #10
 684:	00018e02 	andeq	r8, r1, r2, lsl #28
 688:	00000014 	andeq	r0, r0, r4, lsl r0
 68c:	0000065c 	andeq	r0, r0, ip, asr r6
 690:	00009a30 	andeq	r9, r0, r0, lsr sl
 694:	00000010 	andeq	r0, r0, r0, lsl r0
 698:	84080e42 	strhi	r0, [r8], #-3650	; 0xe42
 69c:	00018e02 	andeq	r8, r1, r2, lsl #28
 6a0:	00000014 	andeq	r0, r0, r4, lsl r0
 6a4:	0000065c 	andeq	r0, r0, ip, asr r6
 6a8:	00009a40 	andeq	r9, r0, r0, asr #20
 6ac:	00000024 	andeq	r0, r0, r4, lsr #32
 6b0:	84080e46 	strhi	r0, [r8], #-3654	; 0xe46
 6b4:	00018e02 	andeq	r8, r1, r2, lsl #28
 6b8:	00000014 	andeq	r0, r0, r4, lsl r0
 6bc:	0000065c 	andeq	r0, r0, ip, asr r6
 6c0:	00009a64 	andeq	r9, r0, r4, ror #20
 6c4:	00000024 	andeq	r0, r0, r4, lsr #32
 6c8:	84080e46 	strhi	r0, [r8], #-3654	; 0xe46
 6cc:	00018e02 	andeq	r8, r1, r2, lsl #28
 6d0:	00000014 	andeq	r0, r0, r4, lsl r0
 6d4:	0000065c 	andeq	r0, r0, ip, asr r6
 6d8:	00009a88 	andeq	r9, r0, r8, lsl #21
 6dc:	00000010 	andeq	r0, r0, r0, lsl r0
 6e0:	84080e42 	strhi	r0, [r8], #-3650	; 0xe42
 6e4:	00018e02 	andeq	r8, r1, r2, lsl #28
 6e8:	00000014 	andeq	r0, r0, r4, lsl r0
 6ec:	0000065c 	andeq	r0, r0, ip, asr r6
 6f0:	00009a98 	muleq	r0, r8, sl
 6f4:	0000001c 	andeq	r0, r0, ip, lsl r0
 6f8:	84080e42 	strhi	r0, [r8], #-3650	; 0xe42
 6fc:	00018e02 	andeq	r8, r1, r2, lsl #28
 700:	00000018 	andeq	r0, r0, r8, lsl r0
 704:	0000065c 	andeq	r0, r0, ip, asr r6
 708:	00009ab4 			; <UNDEFINED> instruction: 0x00009ab4
 70c:	00000034 	andeq	r0, r0, r4, lsr r0
 710:	84080e46 	strhi	r0, [r8], #-3654	; 0xe46
 714:	4e018e02 	cdpmi	14, 0, cr8, cr1, cr2, {0}
 718:	cec4000e 	cdpgt	0, 12, cr0, cr4, cr14, {0}

Disassembly of section .debug_ranges:

00000000 <.debug_ranges>:
   0:	000096e0 	andeq	r9, r0, r0, ror #13
   4:	00009754 	andeq	r9, r0, r4, asr r7
	...
