
tests2.0/16-part2-test5.elf:     file format elf32-littlearm


Disassembly of section .text:

00008000 <__code_start__>:
    8000:	e3a00013 	mov	r0, #19
    8004:	e129f000 	msr	CPSR_fc, r0
    8008:	e3a01000 	mov	r1, #0
    800c:	ee073f95 	mcr	15, 0, r3, cr7, cr5, {4}
    8010:	e3a0d302 	mov	sp, #134217728	; 0x8000000
    8014:	e3a0b000 	mov	fp, #0
    8018:	eb000630 	bl	98e0 <_cstart>
    801c:	eb000698 	bl	9a84 <rpi_reboot>

00008020 <circq_A>:
    8020:	e92d4008 	push	{r3, lr}
    8024:	e59f3080 	ldr	r3, [pc, #128]	; 80ac <circq_A+0x8c>
    8028:	e59f2080 	ldr	r2, [pc, #128]	; 80b0 <circq_A+0x90>
    802c:	e7931002 	ldr	r1, [r3, r2]
    8030:	e7932002 	ldr	r2, [r3, r2]
    8034:	e2822001 	add	r2, r2, #1
    8038:	e1a02982 	lsl	r2, r2, #19
    803c:	e59f0070 	ldr	r0, [pc, #112]	; 80b4 <circq_A+0x94>
    8040:	e7933000 	ldr	r3, [r3, r0]
    8044:	e15309a2 	cmp	r3, r2, lsr #19
    8048:	0a000009 	beq	8074 <circq_A+0x54>
    804c:	e59f3058 	ldr	r3, [pc, #88]	; 80ac <circq_A+0x8c>
    8050:	e3a0200c 	mov	r2, #12
    8054:	e7c32001 	strb	r2, [r3, r1]
    8058:	e2811001 	add	r1, r1, #1
    805c:	e1a01981 	lsl	r1, r1, #19
    8060:	e1a019a1 	lsr	r1, r1, #19
    8064:	e59f2044 	ldr	r2, [pc, #68]	; 80b0 <circq_A+0x90>
    8068:	e7831002 	str	r1, [r3, r2]
    806c:	e3a03001 	mov	r3, #1
    8070:	ea000000 	b	8078 <circq_A+0x58>
    8074:	e3a03000 	mov	r3, #0
    8078:	e3530000 	cmp	r3, #0
    807c:	1a000006 	bne	809c <circq_A+0x7c>
    8080:	eb00048e 	bl	92c0 <rpi_reset_putc>
    8084:	e59f002c 	ldr	r0, [pc, #44]	; 80b8 <circq_A+0x98>
    8088:	e59f102c 	ldr	r1, [pc, #44]	; 80bc <circq_A+0x9c>
    808c:	e59f202c 	ldr	r2, [pc, #44]	; 80c0 <circq_A+0xa0>
    8090:	e3a0300b 	mov	r3, #11
    8094:	eb00046e 	bl	9254 <printk>
    8098:	eb000605 	bl	98b4 <clean_reboot>
    809c:	e3a0200c 	mov	r2, #12
    80a0:	e59f301c 	ldr	r3, [pc, #28]	; 80c4 <circq_A+0xa4>
    80a4:	e5832000 	str	r2, [r3]
    80a8:	e8bd8008 	pop	{r3, pc}
    80ac:	0000a7bc 			; <UNDEFINED> instruction: 0x0000a7bc
    80b0:	00002004 	andeq	r2, r0, r4
    80b4:	00002008 	andeq	r2, r0, r8
    80b8:	00009e68 	andeq	r9, r0, r8, ror #28
    80bc:	00009e8c 	andeq	r9, r0, ip, lsl #29
    80c0:	0000a0b4 	strheq	sl, [r0], -r4
    80c4:	0000a7b4 			; <UNDEFINED> instruction: 0x0000a7b4

000080c8 <circq_B>:
    80c8:	e52de004 	push	{lr}		; (str lr, [sp, #-4]!)
    80cc:	e24dd00c 	sub	sp, sp, #12
    80d0:	e59f3128 	ldr	r3, [pc, #296]	; 8200 <circq_B+0x138>
    80d4:	e59f2128 	ldr	r2, [pc, #296]	; 8204 <circq_B+0x13c>
    80d8:	e7932002 	ldr	r2, [r3, r2]
    80dc:	e59f1124 	ldr	r1, [pc, #292]	; 8208 <circq_B+0x140>
    80e0:	e7933001 	ldr	r3, [r3, r1]
    80e4:	e0633002 	rsb	r3, r3, r2
    80e8:	e1b03983 	lsls	r3, r3, #19
    80ec:	0a00003e 	beq	81ec <circq_B+0x124>
    80f0:	e59f3108 	ldr	r3, [pc, #264]	; 8200 <circq_B+0x138>
    80f4:	e59f2108 	ldr	r2, [pc, #264]	; 8204 <circq_B+0x13c>
    80f8:	e7932002 	ldr	r2, [r3, r2]
    80fc:	e7933001 	ldr	r3, [r3, r1]
    8100:	e1520003 	cmp	r2, r3
    8104:	0a000009 	beq	8130 <circq_B+0x68>
    8108:	e59f30f0 	ldr	r3, [pc, #240]	; 8200 <circq_B+0x138>
    810c:	e7930001 	ldr	r0, [r3, r1]
    8110:	e7d32000 	ldrb	r2, [r3, r0]
    8114:	e6ef2072 	uxtb	r2, r2
    8118:	e2800001 	add	r0, r0, #1
    811c:	e1a00980 	lsl	r0, r0, #19
    8120:	e1a009a0 	lsr	r0, r0, #19
    8124:	e7830001 	str	r0, [r3, r1]
    8128:	e3a03001 	mov	r3, #1
    812c:	ea000001 	b	8138 <circq_B+0x70>
    8130:	e3a02000 	mov	r2, #0
    8134:	e1a03002 	mov	r3, r2
    8138:	e3530000 	cmp	r3, #0
    813c:	1a000006 	bne	815c <circq_B+0x94>
    8140:	eb00045e 	bl	92c0 <rpi_reset_putc>
    8144:	e59f00c0 	ldr	r0, [pc, #192]	; 820c <circq_B+0x144>
    8148:	e59f10c0 	ldr	r1, [pc, #192]	; 8210 <circq_B+0x148>
    814c:	e59f20c0 	ldr	r2, [pc, #192]	; 8214 <circq_B+0x14c>
    8150:	e3a03051 	mov	r3, #81	; 0x51
    8154:	eb00043e 	bl	9254 <printk>
    8158:	eb0005d5 	bl	98b4 <clean_reboot>
    815c:	e59f309c 	ldr	r3, [pc, #156]	; 8200 <circq_B+0x138>
    8160:	e59f109c 	ldr	r1, [pc, #156]	; 8204 <circq_B+0x13c>
    8164:	e7931001 	ldr	r1, [r3, r1]
    8168:	e59f0098 	ldr	r0, [pc, #152]	; 8208 <circq_B+0x140>
    816c:	e7933000 	ldr	r3, [r3, r0]
    8170:	e0633001 	rsb	r3, r3, r1
    8174:	e1b03983 	lsls	r3, r3, #19
    8178:	0a000008 	beq	81a0 <circq_B+0xd8>
    817c:	eb00044f 	bl	92c0 <rpi_reset_putc>
    8180:	e59f3090 	ldr	r3, [pc, #144]	; 8218 <circq_B+0x150>
    8184:	e58d3000 	str	r3, [sp]
    8188:	e59f008c 	ldr	r0, [pc, #140]	; 821c <circq_B+0x154>
    818c:	e59f108c 	ldr	r1, [pc, #140]	; 8220 <circq_B+0x158>
    8190:	e59f208c 	ldr	r2, [pc, #140]	; 8224 <circq_B+0x15c>
    8194:	e3a03015 	mov	r3, #21
    8198:	eb00042d 	bl	9254 <printk>
    819c:	eb0005c4 	bl	98b4 <clean_reboot>
    81a0:	e59f3080 	ldr	r3, [pc, #128]	; 8228 <circq_B+0x160>
    81a4:	e5832000 	str	r2, [r3]
    81a8:	e59f3050 	ldr	r3, [pc, #80]	; 8200 <circq_B+0x138>
    81ac:	e59f2050 	ldr	r2, [pc, #80]	; 8204 <circq_B+0x13c>
    81b0:	e7932002 	ldr	r2, [r3, r2]
    81b4:	e59f104c 	ldr	r1, [pc, #76]	; 8208 <circq_B+0x140>
    81b8:	e7933001 	ldr	r3, [r3, r1]
    81bc:	e0633002 	rsb	r3, r3, r2
    81c0:	e1b03983 	lsls	r3, r3, #19
    81c4:	0a00000a 	beq	81f4 <circq_B+0x12c>
    81c8:	eb00043c 	bl	92c0 <rpi_reset_putc>
    81cc:	e59f3044 	ldr	r3, [pc, #68]	; 8218 <circq_B+0x150>
    81d0:	e58d3000 	str	r3, [sp]
    81d4:	e59f0040 	ldr	r0, [pc, #64]	; 821c <circq_B+0x154>
    81d8:	e59f1040 	ldr	r1, [pc, #64]	; 8220 <circq_B+0x158>
    81dc:	e59f2040 	ldr	r2, [pc, #64]	; 8224 <circq_B+0x15c>
    81e0:	e3a03017 	mov	r3, #23
    81e4:	eb00041a 	bl	9254 <printk>
    81e8:	eb0005b1 	bl	98b4 <clean_reboot>
    81ec:	e3a00000 	mov	r0, #0
    81f0:	ea000000 	b	81f8 <circq_B+0x130>
    81f4:	e3a00001 	mov	r0, #1
    81f8:	e28dd00c 	add	sp, sp, #12
    81fc:	e49df004 	pop	{pc}		; (ldr pc, [sp], #4)
    8200:	0000a7bc 			; <UNDEFINED> instruction: 0x0000a7bc
    8204:	00002004 	andeq	r2, r0, r4
    8208:	00002008 	andeq	r2, r0, r8
    820c:	00009ea8 	andeq	r9, r0, r8, lsr #29
    8210:	00009ee8 	andeq	r9, r0, r8, ror #29
    8214:	0000a0ac 	andeq	sl, r0, ip, lsr #1
    8218:	00009f54 	andeq	r9, r0, r4, asr pc
    821c:	00009f40 	andeq	r9, r0, r0, asr #30
    8220:	00009e8c 	andeq	r9, r0, ip, lsl #29
    8224:	0000a0a4 	andeq	sl, r0, r4, lsr #1
    8228:	0000a7b8 			; <UNDEFINED> instruction: 0x0000a7b8

0000822c <circq_init>:
    822c:	e92d4010 	push	{r4, lr}
    8230:	e24dd008 	sub	sp, sp, #8
    8234:	e59f41bc 	ldr	r4, [pc, #444]	; 83f8 <circq_init+0x1cc>
    8238:	e1a00004 	mov	r0, r4
    823c:	e3a01000 	mov	r1, #0
    8240:	e59f21b4 	ldr	r2, [pc, #436]	; 83fc <circq_init+0x1d0>
    8244:	eb0003fa 	bl	9234 <memset>
    8248:	e59f21b0 	ldr	r2, [pc, #432]	; 8400 <circq_init+0x1d4>
    824c:	e3a03a02 	mov	r3, #8192	; 0x2000
    8250:	e7842003 	str	r2, [r4, r3]
    8254:	e59f21a8 	ldr	r2, [pc, #424]	; 8404 <circq_init+0x1d8>
    8258:	e3a03000 	mov	r3, #0
    825c:	e7843002 	str	r3, [r4, r2]
    8260:	e59f11a0 	ldr	r1, [pc, #416]	; 8408 <circq_init+0x1dc>
    8264:	e7843001 	str	r3, [r4, r1]
    8268:	e59f019c 	ldr	r0, [pc, #412]	; 840c <circq_init+0x1e0>
    826c:	e7843000 	str	r3, [r4, r0]
    8270:	e59f3198 	ldr	r3, [pc, #408]	; 8410 <circq_init+0x1e4>
    8274:	e7d40003 	ldrb	r0, [r4, r3]
    8278:	e3c00001 	bic	r0, r0, #1
    827c:	e7c40003 	strb	r0, [r4, r3]
    8280:	e7941001 	ldr	r1, [r4, r1]
    8284:	e7943002 	ldr	r3, [r4, r2]
    8288:	e1510003 	cmp	r1, r3
    828c:	0a000008 	beq	82b4 <circq_init+0x88>
    8290:	eb00040a 	bl	92c0 <rpi_reset_putc>
    8294:	e59f3178 	ldr	r3, [pc, #376]	; 8414 <circq_init+0x1e8>
    8298:	e58d3000 	str	r3, [sp]
    829c:	e59f0174 	ldr	r0, [pc, #372]	; 8418 <circq_init+0x1ec>
    82a0:	e59f1174 	ldr	r1, [pc, #372]	; 841c <circq_init+0x1f0>
    82a4:	e59f2174 	ldr	r2, [pc, #372]	; 8420 <circq_init+0x1f4>
    82a8:	e3a0309f 	mov	r3, #159	; 0x9f
    82ac:	eb0003e8 	bl	9254 <printk>
    82b0:	eb00057f 	bl	98b4 <clean_reboot>
    82b4:	e59f313c 	ldr	r3, [pc, #316]	; 83f8 <circq_init+0x1cc>
    82b8:	e59f2148 	ldr	r2, [pc, #328]	; 8408 <circq_init+0x1dc>
    82bc:	e7932002 	ldr	r2, [r3, r2]
    82c0:	e2822001 	add	r2, r2, #1
    82c4:	e1a02982 	lsl	r2, r2, #19
    82c8:	e59f1134 	ldr	r1, [pc, #308]	; 8404 <circq_init+0x1d8>
    82cc:	e7933001 	ldr	r3, [r3, r1]
    82d0:	e15309a2 	cmp	r3, r2, lsr #19
    82d4:	1a000008 	bne	82fc <circq_init+0xd0>
    82d8:	eb0003f8 	bl	92c0 <rpi_reset_putc>
    82dc:	e59f3140 	ldr	r3, [pc, #320]	; 8424 <circq_init+0x1f8>
    82e0:	e58d3000 	str	r3, [sp]
    82e4:	e59f012c 	ldr	r0, [pc, #300]	; 8418 <circq_init+0x1ec>
    82e8:	e59f112c 	ldr	r1, [pc, #300]	; 841c <circq_init+0x1f0>
    82ec:	e59f212c 	ldr	r2, [pc, #300]	; 8420 <circq_init+0x1f4>
    82f0:	e3a030a0 	mov	r3, #160	; 0xa0
    82f4:	eb0003d6 	bl	9254 <printk>
    82f8:	eb00056d 	bl	98b4 <clean_reboot>
    82fc:	e59f30f4 	ldr	r3, [pc, #244]	; 83f8 <circq_init+0x1cc>
    8300:	e59f2100 	ldr	r2, [pc, #256]	; 8408 <circq_init+0x1dc>
    8304:	e7932002 	ldr	r2, [r3, r2]
    8308:	e59f10f4 	ldr	r1, [pc, #244]	; 8404 <circq_init+0x1d8>
    830c:	e7933001 	ldr	r3, [r3, r1]
    8310:	e0633002 	rsb	r3, r3, r2
    8314:	e1b03983 	lsls	r3, r3, #19
    8318:	0a000008 	beq	8340 <circq_init+0x114>
    831c:	eb0003e7 	bl	92c0 <rpi_reset_putc>
    8320:	e59f3100 	ldr	r3, [pc, #256]	; 8428 <circq_init+0x1fc>
    8324:	e58d3000 	str	r3, [sp]
    8328:	e59f00e8 	ldr	r0, [pc, #232]	; 8418 <circq_init+0x1ec>
    832c:	e59f10e8 	ldr	r1, [pc, #232]	; 841c <circq_init+0x1f0>
    8330:	e59f20e8 	ldr	r2, [pc, #232]	; 8420 <circq_init+0x1f4>
    8334:	e3a030a1 	mov	r3, #161	; 0xa1
    8338:	eb0003c5 	bl	9254 <printk>
    833c:	eb00055c 	bl	98b4 <clean_reboot>
    8340:	e59f30b0 	ldr	r3, [pc, #176]	; 83f8 <circq_init+0x1cc>
    8344:	e59f20bc 	ldr	r2, [pc, #188]	; 8408 <circq_init+0x1dc>
    8348:	e7932002 	ldr	r2, [r3, r2]
    834c:	e59f10b0 	ldr	r1, [pc, #176]	; 8404 <circq_init+0x1d8>
    8350:	e7933001 	ldr	r3, [r3, r1]
    8354:	e1520003 	cmp	r2, r3
    8358:	0a00000a 	beq	8388 <circq_init+0x15c>
    835c:	e59f3094 	ldr	r3, [pc, #148]	; 83f8 <circq_init+0x1cc>
    8360:	e1a02001 	mov	r2, r1
    8364:	e7931001 	ldr	r1, [r3, r1]
    8368:	e7d30001 	ldrb	r0, [r3, r1]
    836c:	e6ef0070 	uxtb	r0, r0
    8370:	e2811001 	add	r1, r1, #1
    8374:	e1a01981 	lsl	r1, r1, #19
    8378:	e1a019a1 	lsr	r1, r1, #19
    837c:	e7831002 	str	r1, [r3, r2]
    8380:	e3a03001 	mov	r3, #1
    8384:	ea000001 	b	8390 <circq_init+0x164>
    8388:	e3a00012 	mov	r0, #18
    838c:	e3a03000 	mov	r3, #0
    8390:	e3530000 	cmp	r3, #0
    8394:	1a000002 	bne	83a4 <circq_init+0x178>
    8398:	e3500012 	cmp	r0, #18
    839c:	0a000002 	beq	83ac <circq_init+0x180>
    83a0:	ea000002 	b	83b0 <circq_init+0x184>
    83a4:	e3a03000 	mov	r3, #0
    83a8:	ea000000 	b	83b0 <circq_init+0x184>
    83ac:	e3a03001 	mov	r3, #1
    83b0:	e3530000 	cmp	r3, #0
    83b4:	1a000008 	bne	83dc <circq_init+0x1b0>
    83b8:	eb0003c0 	bl	92c0 <rpi_reset_putc>
    83bc:	e59f3068 	ldr	r3, [pc, #104]	; 842c <circq_init+0x200>
    83c0:	e58d3000 	str	r3, [sp]
    83c4:	e59f004c 	ldr	r0, [pc, #76]	; 8418 <circq_init+0x1ec>
    83c8:	e59f104c 	ldr	r1, [pc, #76]	; 841c <circq_init+0x1f0>
    83cc:	e59f204c 	ldr	r2, [pc, #76]	; 8420 <circq_init+0x1f4>
    83d0:	e3a030a3 	mov	r3, #163	; 0xa3
    83d4:	eb00039e 	bl	9254 <printk>
    83d8:	eb000535 	bl	98b4 <clean_reboot>
    83dc:	e3a03000 	mov	r3, #0
    83e0:	e59f2048 	ldr	r2, [pc, #72]	; 8430 <circq_init+0x204>
    83e4:	e5823000 	str	r3, [r2]
    83e8:	e59f2044 	ldr	r2, [pc, #68]	; 8434 <circq_init+0x208>
    83ec:	e5823000 	str	r3, [r2]
    83f0:	e28dd008 	add	sp, sp, #8
    83f4:	e8bd8010 	pop	{r4, pc}
    83f8:	0000a7bc 			; <UNDEFINED> instruction: 0x0000a7bc
    83fc:	00002014 	andeq	r2, r0, r4, lsl r0
    8400:	12345678 	eorsne	r5, r4, #120, 12	; 0x7800000
    8404:	00002008 	andeq	r2, r0, r8
    8408:	00002004 	andeq	r2, r0, r4
    840c:	0000200c 	andeq	r2, r0, ip
    8410:	00002010 	andeq	r2, r0, r0, lsl r0
    8414:	00009f64 	andeq	r9, r0, r4, ror #30
    8418:	00009f40 	andeq	r9, r0, r0, asr #30
    841c:	00009ee8 	andeq	r9, r0, r8, ror #29
    8420:	0000a09c 	muleq	r0, ip, r0
    8424:	00009f70 	andeq	r9, r0, r0, ror pc
    8428:	00009f7c 	andeq	r9, r0, ip, ror pc
    842c:	00009f90 	muleq	r0, r0, pc	; <UNPREDICTABLE>
    8430:	0000a7b8 			; <UNDEFINED> instruction: 0x0000a7b8
    8434:	0000a7b4 			; <UNDEFINED> instruction: 0x0000a7b4

00008438 <circq_check>:
    8438:	e52de004 	push	{lr}		; (str lr, [sp, #-4]!)
    843c:	e24dd00c 	sub	sp, sp, #12
    8440:	e59f3048 	ldr	r3, [pc, #72]	; 8490 <circq_check+0x58>
    8444:	e5930000 	ldr	r0, [r3]
    8448:	e59f3044 	ldr	r3, [pc, #68]	; 8494 <circq_check+0x5c>
    844c:	e5933000 	ldr	r3, [r3]
    8450:	e1500003 	cmp	r0, r3
    8454:	0a000008 	beq	847c <circq_check+0x44>
    8458:	eb000398 	bl	92c0 <rpi_reset_putc>
    845c:	e59f3034 	ldr	r3, [pc, #52]	; 8498 <circq_check+0x60>
    8460:	e58d3000 	str	r3, [sp]
    8464:	e59f0030 	ldr	r0, [pc, #48]	; 849c <circq_check+0x64>
    8468:	e59f1030 	ldr	r1, [pc, #48]	; 84a0 <circq_check+0x68>
    846c:	e59f2030 	ldr	r2, [pc, #48]	; 84a4 <circq_check+0x6c>
    8470:	e3a03022 	mov	r3, #34	; 0x22
    8474:	eb000376 	bl	9254 <printk>
    8478:	eb00050d 	bl	98b4 <clean_reboot>
    847c:	e1500003 	cmp	r0, r3
    8480:	13a00000 	movne	r0, #0
    8484:	03a00001 	moveq	r0, #1
    8488:	e28dd00c 	add	sp, sp, #12
    848c:	e49df004 	pop	{pc}		; (ldr pc, [sp], #4)
    8490:	0000a7b4 			; <UNDEFINED> instruction: 0x0000a7b4
    8494:	0000a7b8 			; <UNDEFINED> instruction: 0x0000a7b8
    8498:	00009fb8 			; <UNDEFINED> instruction: 0x00009fb8
    849c:	00009f40 	andeq	r9, r0, r0, asr #30
    84a0:	00009e8c 	andeq	r9, r0, ip, lsl #29
    84a4:	0000a090 	muleq	r0, r0, r0

000084a8 <circq_mk_checker>:
    84a8:	e1a03000 	mov	r3, r0
    84ac:	e3a02000 	mov	r2, #0
    84b0:	e4832004 	str	r2, [r3], #4
    84b4:	e2833008 	add	r3, r3, #8
    84b8:	e4832004 	str	r2, [r3], #4
    84bc:	e4832004 	str	r2, [r3], #4
    84c0:	e4832004 	str	r2, [r3], #4
    84c4:	e4832004 	str	r2, [r3], #4
    84c8:	e4832004 	str	r2, [r3], #4
    84cc:	e4832004 	str	r2, [r3], #4
    84d0:	e4832004 	str	r2, [r3], #4
    84d4:	e4832004 	str	r2, [r3], #4
    84d8:	e4832004 	str	r2, [r3], #4
    84dc:	e4832004 	str	r2, [r3], #4
    84e0:	e5832000 	str	r2, [r3]
    84e4:	e59f301c 	ldr	r3, [pc, #28]	; 8508 <circq_mk_checker+0x60>
    84e8:	e5803004 	str	r3, [r0, #4]
    84ec:	e59f3018 	ldr	r3, [pc, #24]	; 850c <circq_mk_checker+0x64>
    84f0:	e5803008 	str	r3, [r0, #8]
    84f4:	e59f3014 	ldr	r3, [pc, #20]	; 8510 <circq_mk_checker+0x68>
    84f8:	e580300c 	str	r3, [r0, #12]
    84fc:	e59f3010 	ldr	r3, [pc, #16]	; 8514 <circq_mk_checker+0x6c>
    8500:	e5803010 	str	r3, [r0, #16]
    8504:	e12fff1e 	bx	lr
    8508:	00008020 	andeq	r8, r0, r0, lsr #32
    850c:	000080c8 	andeq	r8, r0, r8, asr #1
    8510:	0000822c 	andeq	r8, r0, ip, lsr #4
    8514:	00008438 	andeq	r8, r0, r8, lsr r4

00008518 <notmain>:
    8518:	e52de004 	push	{lr}		; (str lr, [sp, #-4]!)
    851c:	e24dd044 	sub	sp, sp, #68	; 0x44
    8520:	eb0004db 	bl	9894 <enable_cache>
    8524:	e28d0008 	add	r0, sp, #8
    8528:	ebffffde 	bl	84a8 <circq_mk_checker>
    852c:	e28d0008 	add	r0, sp, #8
    8530:	eb00032c 	bl	91e8 <check>
    8534:	e3500000 	cmp	r0, #0
    8538:	1a000016 	bne	8598 <notmain+0x80>
    853c:	e59d3034 	ldr	r3, [sp, #52]	; 0x34
    8540:	e3530000 	cmp	r3, #0
    8544:	1a000008 	bne	856c <notmain+0x54>
    8548:	eb00035c 	bl	92c0 <rpi_reset_putc>
    854c:	e59f308c 	ldr	r3, [pc, #140]	; 85e0 <notmain+0xc8>
    8550:	e58d3000 	str	r3, [sp]
    8554:	e59f0088 	ldr	r0, [pc, #136]	; 85e4 <notmain+0xcc>
    8558:	e59f1088 	ldr	r1, [pc, #136]	; 85e8 <notmain+0xd0>
    855c:	e59f2088 	ldr	r2, [pc, #136]	; 85ec <notmain+0xd4>
    8560:	e3a03037 	mov	r3, #55	; 0x37
    8564:	eb00033a 	bl	9254 <printk>
    8568:	eb0004d1 	bl	98b4 <clean_reboot>
    856c:	eb000353 	bl	92c0 <rpi_reset_putc>
    8570:	e59d3030 	ldr	r3, [sp, #48]	; 0x30
    8574:	e58d3000 	str	r3, [sp]
    8578:	e59d3034 	ldr	r3, [sp, #52]	; 0x34
    857c:	e58d3004 	str	r3, [sp, #4]
    8580:	e59f0068 	ldr	r0, [pc, #104]	; 85f0 <notmain+0xd8>
    8584:	e59f105c 	ldr	r1, [pc, #92]	; 85e8 <notmain+0xd0>
    8588:	e59f205c 	ldr	r2, [pc, #92]	; 85ec <notmain+0xd4>
    858c:	e3a03039 	mov	r3, #57	; 0x39
    8590:	eb00032f 	bl	9254 <printk>
    8594:	eb0004c6 	bl	98b4 <clean_reboot>
    8598:	e59d3034 	ldr	r3, [sp, #52]	; 0x34
    859c:	e3530000 	cmp	r3, #0
    85a0:	0a000008 	beq	85c8 <notmain+0xb0>
    85a4:	eb000345 	bl	92c0 <rpi_reset_putc>
    85a8:	e59f3044 	ldr	r3, [pc, #68]	; 85f4 <notmain+0xdc>
    85ac:	e58d3000 	str	r3, [sp]
    85b0:	e59f002c 	ldr	r0, [pc, #44]	; 85e4 <notmain+0xcc>
    85b4:	e59f102c 	ldr	r1, [pc, #44]	; 85e8 <notmain+0xd0>
    85b8:	e59f202c 	ldr	r2, [pc, #44]	; 85ec <notmain+0xd4>
    85bc:	e3a0303b 	mov	r3, #59	; 0x3b
    85c0:	eb000323 	bl	9254 <printk>
    85c4:	eb0004ba 	bl	98b4 <clean_reboot>
    85c8:	e59f0028 	ldr	r0, [pc, #40]	; 85f8 <notmain+0xe0>
    85cc:	eb000320 	bl	9254 <printk>
    85d0:	e59f0024 	ldr	r0, [pc, #36]	; 85fc <notmain+0xe4>
    85d4:	e59d1030 	ldr	r1, [sp, #48]	; 0x30
    85d8:	eb00031d 	bl	9254 <printk>
    85dc:	eb0004b4 	bl	98b4 <clean_reboot>
    85e0:	00009fd4 	ldrdeq	r9, [r0], -r4
    85e4:	00009f40 	andeq	r9, r0, r0, asr #30
    85e8:	00009e8c 	andeq	r9, r0, ip, lsl #29
    85ec:	0000a0bc 	strheq	sl, [r0], -ip
    85f0:	00009fe0 	andeq	r9, r0, r0, ror #31
    85f4:	0000a028 	andeq	sl, r0, r8, lsr #32
    85f8:	0000a034 	andeq	sl, r0, r4, lsr r0
    85fc:	0000a040 	andeq	sl, r0, r0, asr #32

00008600 <watchpt_set0>:
    8600:	e52de004 	push	{lr}		; (str lr, [sp, #-4]!)
    8604:	e24dd00c 	sub	sp, sp, #12
    8608:	ee103ef0 	mrc	14, 0, r3, cr0, cr0, {7}
    860c:	e3c33001 	bic	r3, r3, #1
    8610:	ee003ef0 	mcr	14, 0, r3, cr0, cr0, {7}
    8614:	ee102ef0 	mrc	14, 0, r2, cr0, cr0, {7}
    8618:	e1530002 	cmp	r3, r2
    861c:	0a000008 	beq	8644 <watchpt_set0+0x44>
    8620:	eb000326 	bl	92c0 <rpi_reset_putc>
    8624:	e59f306c 	ldr	r3, [pc, #108]	; 8698 <watchpt_set0+0x98>
    8628:	e58d3000 	str	r3, [sp]
    862c:	e59f0068 	ldr	r0, [pc, #104]	; 869c <watchpt_set0+0x9c>
    8630:	e59f1068 	ldr	r1, [pc, #104]	; 86a0 <watchpt_set0+0xa0>
    8634:	e59f2068 	ldr	r2, [pc, #104]	; 86a4 <watchpt_set0+0xa4>
    8638:	e3a03041 	mov	r3, #65	; 0x41
    863c:	eb000304 	bl	9254 <printk>
    8640:	eb00049b 	bl	98b4 <clean_reboot>
    8644:	ee000ed0 	mcr	14, 0, r0, cr0, cr0, {6}
    8648:	e59f3058 	ldr	r3, [pc, #88]	; 86a8 <watchpt_set0+0xa8>
    864c:	ee003ef0 	mcr	14, 0, r3, cr0, cr0, {7}
    8650:	ee102ef0 	mrc	14, 0, r2, cr0, cr0, {7}
    8654:	e1520003 	cmp	r2, r3
    8658:	0a000008 	beq	8680 <watchpt_set0+0x80>
    865c:	eb000317 	bl	92c0 <rpi_reset_putc>
    8660:	e59f3030 	ldr	r3, [pc, #48]	; 8698 <watchpt_set0+0x98>
    8664:	e58d3000 	str	r3, [sp]
    8668:	e59f002c 	ldr	r0, [pc, #44]	; 869c <watchpt_set0+0x9c>
    866c:	e59f102c 	ldr	r1, [pc, #44]	; 86a0 <watchpt_set0+0xa0>
    8670:	e59f202c 	ldr	r2, [pc, #44]	; 86a4 <watchpt_set0+0xa4>
    8674:	e3a03052 	mov	r3, #82	; 0x52
    8678:	eb0002f5 	bl	9254 <printk>
    867c:	eb00048c 	bl	98b4 <clean_reboot>
    8680:	e3a03000 	mov	r3, #0
    8684:	ee073f95 	mcr	15, 0, r3, cr7, cr5, {4}
    8688:	e59f301c 	ldr	r3, [pc, #28]	; 86ac <watchpt_set0+0xac>
    868c:	e5831000 	str	r1, [r3]
    8690:	e28dd00c 	add	sp, sp, #12
    8694:	e49df004 	pop	{pc}		; (ldr pc, [sp], #4)
    8698:	0000a0d4 	ldrdeq	sl, [r0], -r4
    869c:	00009f40 	andeq	r9, r0, r0, asr #30
    86a0:	0000a0c4 	andeq	sl, r0, r4, asr #1
    86a4:	0000a1ec 	andeq	sl, r0, ip, ror #3
    86a8:	000001ff 	strdeq	r0, [r0], -pc	; <UNPREDICTABLE>
    86ac:	0000c7d0 	ldrdeq	ip, [r0], -r0

000086b0 <data_abort_vector>:
    86b0:	e52de004 	push	{lr}		; (str lr, [sp, #-4]!)
    86b4:	e24dd00c 	sub	sp, sp, #12
    86b8:	e1a01000 	mov	r1, r0
    86bc:	ee153f10 	mrc	15, 0, r3, cr5, cr0, {0}
    86c0:	ee153f10 	mrc	15, 0, r3, cr5, cr0, {0}
    86c4:	e203300f 	and	r3, r3, #15
    86c8:	e3530002 	cmp	r3, #2
    86cc:	0a000006 	beq	86ec <data_abort_vector+0x3c>
    86d0:	eb0002fa 	bl	92c0 <rpi_reset_putc>
    86d4:	e59f008c 	ldr	r0, [pc, #140]	; 8768 <data_abort_vector+0xb8>
    86d8:	e59f108c 	ldr	r1, [pc, #140]	; 876c <data_abort_vector+0xbc>
    86dc:	e59f208c 	ldr	r2, [pc, #140]	; 8770 <data_abort_vector+0xc0>
    86e0:	e3a03079 	mov	r3, #121	; 0x79
    86e4:	eb0002da 	bl	9254 <printk>
    86e8:	eb000471 	bl	98b4 <clean_reboot>
    86ec:	ee103e16 	mrc	14, 0, r3, cr0, cr6, {0}
    86f0:	e2433004 	sub	r3, r3, #4
    86f4:	e1530000 	cmp	r3, r0
    86f8:	0a000008 	beq	8720 <data_abort_vector+0x70>
    86fc:	eb0002ef 	bl	92c0 <rpi_reset_putc>
    8700:	e59f306c 	ldr	r3, [pc, #108]	; 8774 <data_abort_vector+0xc4>
    8704:	e58d3000 	str	r3, [sp]
    8708:	e59f0068 	ldr	r0, [pc, #104]	; 8778 <data_abort_vector+0xc8>
    870c:	e59f1068 	ldr	r1, [pc, #104]	; 877c <data_abort_vector+0xcc>
    8710:	e59f2068 	ldr	r2, [pc, #104]	; 8780 <data_abort_vector+0xd0>
    8714:	e3a03067 	mov	r3, #103	; 0x67
    8718:	eb0002cd 	bl	9254 <printk>
    871c:	eb000464 	bl	98b4 <clean_reboot>
    8720:	e59f305c 	ldr	r3, [pc, #92]	; 8784 <data_abort_vector+0xd4>
    8724:	e5933000 	ldr	r3, [r3]
    8728:	e3530000 	cmp	r3, #0
    872c:	1a000008 	bne	8754 <data_abort_vector+0xa4>
    8730:	eb0002e2 	bl	92c0 <rpi_reset_putc>
    8734:	e59f304c 	ldr	r3, [pc, #76]	; 8788 <data_abort_vector+0xd8>
    8738:	e58d3000 	str	r3, [sp]
    873c:	e59f0034 	ldr	r0, [pc, #52]	; 8778 <data_abort_vector+0xc8>
    8740:	e59f1034 	ldr	r1, [pc, #52]	; 877c <data_abort_vector+0xcc>
    8744:	e59f2034 	ldr	r2, [pc, #52]	; 8780 <data_abort_vector+0xd0>
    8748:	e3a03069 	mov	r3, #105	; 0x69
    874c:	eb0002c0 	bl	9254 <printk>
    8750:	eb000457 	bl	98b4 <clean_reboot>
    8754:	ee162f10 	mrc	15, 0, r2, cr6, cr0, {0}
    8758:	e3a00000 	mov	r0, #0
    875c:	e12fff33 	blx	r3
    8760:	e28dd00c 	add	sp, sp, #12
    8764:	e49df004 	pop	{pc}		; (ldr pc, [sp], #4)
    8768:	0000a0ec 	andeq	sl, r0, ip, ror #1
    876c:	0000a124 	andeq	sl, r0, r4, lsr #2
    8770:	0000a210 	andeq	sl, r0, r0, lsl r2
    8774:	0000a134 	andeq	sl, r0, r4, lsr r1
    8778:	00009f40 	andeq	r9, r0, r0, asr #30
    877c:	0000a0c4 	andeq	sl, r0, r4, asr #1
    8780:	0000a1fc 	strdeq	sl, [r0], -ip
    8784:	0000c7d0 	ldrdeq	ip, [r0], -r0
    8788:	0000a148 	andeq	sl, r0, r8, asr #2

0000878c <cp14_enable>:
    878c:	e92d4008 	push	{r3, lr}
    8790:	e59f302c 	ldr	r3, [pc, #44]	; 87c4 <cp14_enable+0x38>
    8794:	e5933000 	ldr	r3, [r3]
    8798:	e3530000 	cmp	r3, #0
    879c:	1a000003 	bne	87b0 <cp14_enable+0x24>
    87a0:	eb000491 	bl	99ec <int_init>
    87a4:	e3a02001 	mov	r2, #1
    87a8:	e59f3014 	ldr	r3, [pc, #20]	; 87c4 <cp14_enable+0x38>
    87ac:	e5832000 	str	r2, [r3]
    87b0:	e3a03902 	mov	r3, #32768	; 0x8000
    87b4:	ee003e11 	mcr	14, 0, r3, cr0, cr1, {0}
    87b8:	e3a03000 	mov	r3, #0
    87bc:	ee073f95 	mcr	15, 0, r3, cr7, cr5, {4}
    87c0:	e8bd8008 	pop	{r3, pc}
    87c4:	0000c7e0 	andeq	ip, r0, r0, ror #15

000087c8 <brkpt_set0>:
    87c8:	ee103eb0 	mrc	14, 0, r3, cr0, cr0, {5}
    87cc:	e3c33001 	bic	r3, r3, #1
    87d0:	ee003eb0 	mcr	14, 0, r3, cr0, cr0, {5}
    87d4:	ee000e90 	mcr	14, 0, r0, cr0, cr0, {4}
    87d8:	e59f3014 	ldr	r3, [pc, #20]	; 87f4 <brkpt_set0+0x2c>
    87dc:	ee003eb0 	mcr	14, 0, r3, cr0, cr0, {5}
    87e0:	e3a03000 	mov	r3, #0
    87e4:	ee073f95 	mcr	15, 0, r3, cr7, cr5, {4}
    87e8:	e59f3008 	ldr	r3, [pc, #8]	; 87f8 <brkpt_set0+0x30>
    87ec:	e5831000 	str	r1, [r3]
    87f0:	e12fff1e 	bx	lr
    87f4:	000001e7 	andeq	r0, r0, r7, ror #3
    87f8:	0000c7d4 	ldrdeq	ip, [r0], -r4

000087fc <prefetch_abort_vector>:
    87fc:	e52de004 	push	{lr}		; (str lr, [sp, #-4]!)
    8800:	e24dd00c 	sub	sp, sp, #12
    8804:	e1a01000 	mov	r1, r0
    8808:	ee153f30 	mrc	15, 0, r3, cr5, cr0, {1}
    880c:	e203300f 	and	r3, r3, #15
    8810:	e3530002 	cmp	r3, #2
    8814:	0a000006 	beq	8834 <prefetch_abort_vector+0x38>
    8818:	eb0002a8 	bl	92c0 <rpi_reset_putc>
    881c:	e59f0058 	ldr	r0, [pc, #88]	; 887c <prefetch_abort_vector+0x80>
    8820:	e59f1058 	ldr	r1, [pc, #88]	; 8880 <prefetch_abort_vector+0x84>
    8824:	e59f2058 	ldr	r2, [pc, #88]	; 8884 <prefetch_abort_vector+0x88>
    8828:	e3a030c7 	mov	r3, #199	; 0xc7
    882c:	eb000288 	bl	9254 <printk>
    8830:	eb00041f 	bl	98b4 <clean_reboot>
    8834:	e59f304c 	ldr	r3, [pc, #76]	; 8888 <prefetch_abort_vector+0x8c>
    8838:	e5933000 	ldr	r3, [r3]
    883c:	e3530000 	cmp	r3, #0
    8840:	1a000008 	bne	8868 <prefetch_abort_vector+0x6c>
    8844:	eb00029d 	bl	92c0 <rpi_reset_putc>
    8848:	e59f303c 	ldr	r3, [pc, #60]	; 888c <prefetch_abort_vector+0x90>
    884c:	e58d3000 	str	r3, [sp]
    8850:	e59f0038 	ldr	r0, [pc, #56]	; 8890 <prefetch_abort_vector+0x94>
    8854:	e59f1024 	ldr	r1, [pc, #36]	; 8880 <prefetch_abort_vector+0x84>
    8858:	e59f2024 	ldr	r2, [pc, #36]	; 8884 <prefetch_abort_vector+0x88>
    885c:	e3a030c8 	mov	r3, #200	; 0xc8
    8860:	eb00027b 	bl	9254 <printk>
    8864:	eb000412 	bl	98b4 <clean_reboot>
    8868:	ee162f10 	mrc	15, 0, r2, cr6, cr0, {0}
    886c:	e3a00000 	mov	r0, #0
    8870:	e12fff33 	blx	r3
    8874:	e28dd00c 	add	sp, sp, #12
    8878:	e49df004 	pop	{pc}		; (ldr pc, [sp], #4)
    887c:	0000a15c 	andeq	sl, r0, ip, asr r1
    8880:	0000a0c4 	andeq	sl, r0, r4, asr #1
    8884:	0000a224 	andeq	sl, r0, r4, lsr #4
    8888:	0000c7d4 	ldrdeq	ip, [r0], -r4
    888c:	0000a194 	muleq	r0, r4, r1
    8890:	00009f40 	andeq	r9, r0, r0, asr #30

00008894 <interrupt_vector>:
    8894:	e12fff1e 	bx	lr

00008898 <brk_no_ret_error>:
    8898:	e92d4008 	push	{r3, lr}
    889c:	eb000287 	bl	92c0 <rpi_reset_putc>
    88a0:	e59f0010 	ldr	r0, [pc, #16]	; 88b8 <brk_no_ret_error+0x20>
    88a4:	e59f1010 	ldr	r1, [pc, #16]	; 88bc <brk_no_ret_error+0x24>
    88a8:	e59f2010 	ldr	r2, [pc, #16]	; 88c0 <brk_no_ret_error+0x28>
    88ac:	e3a030d9 	mov	r3, #217	; 0xd9
    88b0:	eb000267 	bl	9254 <printk>
    88b4:	eb0003fe 	bl	98b4 <clean_reboot>
    88b8:	0000a1a4 	andeq	sl, r0, r4, lsr #3
    88bc:	0000a0c4 	andeq	sl, r0, r4, asr #1
    88c0:	0000a23c 	andeq	sl, r0, ip, lsr r2

000088c4 <brkpt_mismatch_set0>:
    88c4:	ee103eb0 	mrc	14, 0, r3, cr0, cr0, {5}
    88c8:	e3c33001 	bic	r3, r3, #1
    88cc:	ee003eb0 	mcr	14, 0, r3, cr0, cr0, {5}
    88d0:	ee000e90 	mcr	14, 0, r0, cr0, cr0, {4}
    88d4:	e59f3014 	ldr	r3, [pc, #20]	; 88f0 <brkpt_mismatch_set0+0x2c>
    88d8:	ee003eb0 	mcr	14, 0, r3, cr0, cr0, {5}
    88dc:	e3a03000 	mov	r3, #0
    88e0:	ee073f95 	mcr	15, 0, r3, cr7, cr5, {4}
    88e4:	e59f3008 	ldr	r3, [pc, #8]	; 88f4 <brkpt_mismatch_set0+0x30>
    88e8:	e5831000 	str	r1, [r3]
    88ec:	e12fff1e 	bx	lr
    88f0:	004001e7 	subeq	r0, r0, r7, ror #3
    88f4:	0000c7d4 	ldrdeq	ip, [r0], -r4

000088f8 <brkpt_mismatch_disable0>:
    88f8:	e59f3004 	ldr	r3, [pc, #4]	; 8904 <brkpt_mismatch_disable0+0xc>
    88fc:	ee003eb0 	mcr	14, 0, r3, cr0, cr0, {5}
    8900:	e12fff1e 	bx	lr
    8904:	004001e6 	subeq	r0, r0, r6, ror #3

00008908 <syscall_vector>:
    8908:	e92d4008 	push	{r3, lr}
    890c:	e5903000 	ldr	r3, [r0]
    8910:	e3c334ff 	bic	r3, r3, #-16777216	; 0xff000000
    8914:	e3530001 	cmp	r3, #1
    8918:	1a000002 	bne	8928 <syscall_vector+0x20>
    891c:	e169f001 	msr	SPSR_fc, r1
    8920:	e3a00000 	mov	r0, #0
    8924:	e8bd8008 	pop	{r3, pc}
    8928:	e3530002 	cmp	r3, #2
    892c:	1a000005 	bne	8948 <syscall_vector+0x40>
    8930:	e5913000 	ldr	r3, [r1]
    8934:	e3530000 	cmp	r3, #0
    8938:	1a000009 	bne	8964 <syscall_vector+0x5c>
    893c:	e3a00001 	mov	r0, #1
    8940:	e5810000 	str	r0, [r1]
    8944:	e8bd8008 	pop	{r3, pc}
    8948:	e3530003 	cmp	r3, #3
    894c:	0a000006 	beq	896c <syscall_vector+0x64>
    8950:	e59f001c 	ldr	r0, [pc, #28]	; 8974 <syscall_vector+0x6c>
    8954:	e1a01003 	mov	r1, r3
    8958:	eb00023d 	bl	9254 <printk>
    895c:	e3a00000 	mov	r0, #0
    8960:	e8bd8008 	pop	{r3, pc}
    8964:	e3a00000 	mov	r0, #0
    8968:	e8bd8008 	pop	{r3, pc}
    896c:	e3a00003 	mov	r0, #3
    8970:	e8bd8008 	pop	{r3, pc}
    8974:	0000a1d4 	ldrdeq	sl, [r0], -r4

00008978 <_interrupt_table>:
    8978:	e59ff020 	ldr	pc, [pc, #32]	; 89a0 <_reset_asm>
    897c:	e59ff020 	ldr	pc, [pc, #32]	; 89a4 <_undefined_instruction_asm>
    8980:	e59ff020 	ldr	pc, [pc, #32]	; 89a8 <_software_interrupt_asm>
    8984:	e59ff020 	ldr	pc, [pc, #32]	; 89ac <_prefetch_abort_asm>
    8988:	e59ff020 	ldr	pc, [pc, #32]	; 89b0 <_data_abort_asm>
    898c:	e59ff00c 	ldr	pc, [pc, #12]	; 89a0 <_reset_asm>
    8990:	e59ff01c 	ldr	pc, [pc, #28]	; 89b4 <_interrupt_asm>

00008994 <fast_interrupt_asm>:
    8994:	e3a0d409 	mov	sp, #150994944	; 0x9000000
    8998:	e24ee004 	sub	lr, lr, #4
    899c:	eb0003dd 	bl	9918 <fast_interrupt_vector>

000089a0 <_reset_asm>:
    89a0:	000089d0 	ldrdeq	r8, [r0], -r0

000089a4 <_undefined_instruction_asm>:
    89a4:	00008a14 	andeq	r8, r0, r4, lsl sl

000089a8 <_software_interrupt_asm>:
    89a8:	00008a20 	andeq	r8, r0, r0, lsr #20

000089ac <_prefetch_abort_asm>:
    89ac:	000089f8 	strdeq	r8, [r0], -r8	; <UNPREDICTABLE>

000089b0 <_data_abort_asm>:
    89b0:	000089dc 	ldrdeq	r8, [r0], -ip

000089b4 <_interrupt_asm>:
    89b4:	000089b8 			; <UNDEFINED> instruction: 0x000089b8

000089b8 <_interrupt_table_end>:
    89b8:	e3a0d409 	mov	sp, #150994944	; 0x9000000
    89bc:	e24ee004 	sub	lr, lr, #4
    89c0:	e92d5fff 	push	{r0, r1, r2, r3, r4, r5, r6, r7, r8, r9, sl, fp, ip, lr}
    89c4:	e1a0000e 	mov	r0, lr
    89c8:	e8bd5fff 	pop	{r0, r1, r2, r3, r4, r5, r6, r7, r8, r9, sl, fp, ip, lr}
    89cc:	e1b0f00e 	movs	pc, lr

000089d0 <reset_asm>:
    89d0:	e3a0d409 	mov	sp, #150994944	; 0x9000000
    89d4:	e24ee004 	sub	lr, lr, #4
    89d8:	eb0003df 	bl	995c <reset_vector>

000089dc <data_abort_asm>:
    89dc:	e24ee008 	sub	lr, lr, #8
    89e0:	e3a0d409 	mov	sp, #150994944	; 0x9000000
    89e4:	e92d5fff 	push	{r0, r1, r2, r3, r4, r5, r6, r7, r8, r9, sl, fp, ip, lr}
    89e8:	e1a0000e 	mov	r0, lr
    89ec:	ebffff2f 	bl	86b0 <data_abort_vector>
    89f0:	e8bd5fff 	pop	{r0, r1, r2, r3, r4, r5, r6, r7, r8, r9, sl, fp, ip, lr}
    89f4:	e1b0f00e 	movs	pc, lr

000089f8 <prefetch_abort_asm>:
    89f8:	e24ee004 	sub	lr, lr, #4
    89fc:	e3a0d409 	mov	sp, #150994944	; 0x9000000
    8a00:	e92d5fff 	push	{r0, r1, r2, r3, r4, r5, r6, r7, r8, r9, sl, fp, ip, lr}
    8a04:	e1a0000e 	mov	r0, lr
    8a08:	ebffff7b 	bl	87fc <prefetch_abort_vector>
    8a0c:	e8bd5fff 	pop	{r0, r1, r2, r3, r4, r5, r6, r7, r8, r9, sl, fp, ip, lr}
    8a10:	e1b0f00e 	movs	pc, lr

00008a14 <undefined_instruction_asm>:
    8a14:	e3a0d409 	mov	sp, #150994944	; 0x9000000
    8a18:	e24ee004 	sub	lr, lr, #4
    8a1c:	eb0003df 	bl	99a0 <undefined_instruction_vector>

00008a20 <software_interrupt_asm>:
    8a20:	e92d5ff0 	push	{r4, r5, r6, r7, r8, r9, sl, fp, ip, lr}
    8a24:	e24ee004 	sub	lr, lr, #4
    8a28:	e1a01000 	mov	r1, r0
    8a2c:	e1a0000e 	mov	r0, lr
    8a30:	ebffffb4 	bl	8908 <syscall_vector>
    8a34:	e8bd5ff0 	pop	{r4, r5, r6, r7, r8, r9, sl, fp, ip, lr}
    8a38:	e1b0f00e 	movs	pc, lr

00008a3c <user_trampoline_no_ret>:
    8a3c:	e1a0200d 	mov	r2, sp
    8a40:	e129f000 	msr	CPSR_fc, r0
    8a44:	e10f5000 	mrs	r5, CPSR
    8a48:	ee070f95 	mcr	15, 0, r0, cr7, cr5, {4}
    8a4c:	e1a0d002 	mov	sp, r2
    8a50:	e92d5ff0 	push	{r4, r5, r6, r7, r8, r9, sl, fp, ip, lr}
    8a54:	e12fff31 	blx	r1
    8a58:	e8bd5ff0 	pop	{r4, r5, r6, r7, r8, r9, sl, fp, ip, lr}
    8a5c:	eb000394 	bl	98b4 <clean_reboot>
    8a60:	ebffff8c 	bl	8898 <brk_no_ret_error>

00008a64 <user_trampoline_ret>:
    8a64:	e92d5ff0 	push	{r4, r5, r6, r7, r8, r9, sl, fp, ip, lr}
    8a68:	e10f4000 	mrs	r4, CPSR
    8a6c:	e129f000 	msr	CPSR_fc, r0
    8a70:	ee070f95 	mcr	15, 0, r0, cr7, cr5, {4}
    8a74:	e3a0d407 	mov	sp, #117440512	; 0x7000000
    8a78:	e1a00002 	mov	r0, r2
    8a7c:	e12fff31 	blx	r1
    8a80:	e1a00004 	mov	r0, r4
    8a84:	ef000001 	svc	0x00000001
    8a88:	e8bd5ff0 	pop	{r4, r5, r6, r7, r8, r9, sl, fp, ip, lr}
    8a8c:	e12fff1e 	bx	lr

00008a90 <sys_try_lock_asm>:
    8a90:	e92d5ff0 	push	{r4, r5, r6, r7, r8, r9, sl, fp, ip, lr}
    8a94:	ef000002 	svc	0x00000002
    8a98:	e8bd5ff0 	pop	{r4, r5, r6, r7, r8, r9, sl, fp, ip, lr}
    8a9c:	e12fff1e 	bx	lr

00008aa0 <sys_foo_asm>:
    8aa0:	e92d5ff0 	push	{r4, r5, r6, r7, r8, r9, sl, fp, ip, lr}
    8aa4:	ef000003 	svc	0x00000003
    8aa8:	e8bd5ff0 	pop	{r4, r5, r6, r7, r8, r9, sl, fp, ip, lr}
    8aac:	e12fff1e 	bx	lr

00008ab0 <single_step_handler>:
    8ab0:	e92d4030 	push	{r4, r5, lr}
    8ab4:	e24dd00c 	sub	sp, sp, #12
    8ab8:	e1a05001 	mov	r5, r1
    8abc:	e59f3164 	ldr	r3, [pc, #356]	; 8c28 <single_step_handler+0x178>
    8ac0:	e5933000 	ldr	r3, [r3]
    8ac4:	e3530000 	cmp	r3, #0
    8ac8:	0a000005 	beq	8ae4 <single_step_handler+0x34>
    8acc:	e58d1000 	str	r1, [sp]
    8ad0:	e59f0154 	ldr	r0, [pc, #340]	; 8c2c <single_step_handler+0x17c>
    8ad4:	e59f1154 	ldr	r1, [pc, #340]	; 8c30 <single_step_handler+0x180>
    8ad8:	e59f2154 	ldr	r2, [pc, #340]	; 8c34 <single_step_handler+0x184>
    8adc:	e3a0300c 	mov	r3, #12
    8ae0:	eb0001db 	bl	9254 <printk>
    8ae4:	ee153f30 	mrc	15, 0, r3, cr5, cr0, {1}
    8ae8:	e203300f 	and	r3, r3, #15
    8aec:	e3530002 	cmp	r3, #2
    8af0:	0a000006 	beq	8b10 <single_step_handler+0x60>
    8af4:	eb0001f1 	bl	92c0 <rpi_reset_putc>
    8af8:	e59f0138 	ldr	r0, [pc, #312]	; 8c38 <single_step_handler+0x188>
    8afc:	e59f112c 	ldr	r1, [pc, #300]	; 8c30 <single_step_handler+0x180>
    8b00:	e59f212c 	ldr	r2, [pc, #300]	; 8c34 <single_step_handler+0x184>
    8b04:	e3a0300e 	mov	r3, #14
    8b08:	eb0001d1 	bl	9254 <printk>
    8b0c:	eb000368 	bl	98b4 <clean_reboot>
    8b10:	e59f3124 	ldr	r3, [pc, #292]	; 8c3c <single_step_handler+0x18c>
    8b14:	e5934000 	ldr	r4, [r3]
    8b18:	e594201c 	ldr	r2, [r4, #28]
    8b1c:	e5943018 	ldr	r3, [r4, #24]
    8b20:	e1520003 	cmp	r2, r3
    8b24:	1a000016 	bne	8b84 <single_step_handler+0xd4>
    8b28:	e59f0110 	ldr	r0, [pc, #272]	; 8c40 <single_step_handler+0x190>
    8b2c:	e1a01005 	mov	r1, r5
    8b30:	e5942008 	ldr	r2, [r4, #8]
    8b34:	eb0001c6 	bl	9254 <printk>
    8b38:	e5943008 	ldr	r3, [r4, #8]
    8b3c:	e1a00004 	mov	r0, r4
    8b40:	e12fff33 	blx	r3
    8b44:	e3500000 	cmp	r0, #0
    8b48:	0a00000a 	beq	8b78 <single_step_handler+0xc8>
    8b4c:	e1a00005 	mov	r0, r5
    8b50:	ebffff68 	bl	88f8 <brkpt_mismatch_disable0>
    8b54:	e5845020 	str	r5, [r4, #32]
    8b58:	e3a03001 	mov	r3, #1
    8b5c:	e5843024 	str	r3, [r4, #36]	; 0x24
    8b60:	e5943014 	ldr	r3, [r4, #20]
    8b64:	e2833001 	add	r3, r3, #1
    8b68:	e5843014 	str	r3, [r4, #20]
    8b6c:	e59f00d0 	ldr	r0, [pc, #208]	; 8c44 <single_step_handler+0x194>
    8b70:	eb0001b7 	bl	9254 <printk>
    8b74:	ea000029 	b	8c20 <single_step_handler+0x170>
    8b78:	e5943018 	ldr	r3, [r4, #24]
    8b7c:	e2833001 	add	r3, r3, #1
    8b80:	e5843018 	str	r3, [r4, #24]
    8b84:	e594201c 	ldr	r2, [r4, #28]
    8b88:	e5943018 	ldr	r3, [r4, #24]
    8b8c:	e1520003 	cmp	r2, r3
    8b90:	3a000008 	bcc	8bb8 <single_step_handler+0x108>
    8b94:	eb0001c9 	bl	92c0 <rpi_reset_putc>
    8b98:	e59f30a8 	ldr	r3, [pc, #168]	; 8c48 <single_step_handler+0x198>
    8b9c:	e58d3000 	str	r3, [sp]
    8ba0:	e59f00a4 	ldr	r0, [pc, #164]	; 8c4c <single_step_handler+0x19c>
    8ba4:	e59f1084 	ldr	r1, [pc, #132]	; 8c30 <single_step_handler+0x180>
    8ba8:	e59f2084 	ldr	r2, [pc, #132]	; 8c34 <single_step_handler+0x184>
    8bac:	e3a03023 	mov	r3, #35	; 0x23
    8bb0:	eb0001a7 	bl	9254 <printk>
    8bb4:	eb00033e 	bl	98b4 <clean_reboot>
    8bb8:	e594301c 	ldr	r3, [r4, #28]
    8bbc:	e2833001 	add	r3, r3, #1
    8bc0:	e584301c 	str	r3, [r4, #28]
    8bc4:	e59f305c 	ldr	r3, [pc, #92]	; 8c28 <single_step_handler+0x178>
    8bc8:	e5933000 	ldr	r3, [r3]
    8bcc:	e3530000 	cmp	r3, #0
    8bd0:	0a000005 	beq	8bec <single_step_handler+0x13c>
    8bd4:	e58d5000 	str	r5, [sp]
    8bd8:	e59f0070 	ldr	r0, [pc, #112]	; 8c50 <single_step_handler+0x1a0>
    8bdc:	e59f104c 	ldr	r1, [pc, #76]	; 8c30 <single_step_handler+0x180>
    8be0:	e59f204c 	ldr	r2, [pc, #76]	; 8c34 <single_step_handler+0x184>
    8be4:	e3a03026 	mov	r3, #38	; 0x26
    8be8:	eb000199 	bl	9254 <printk>
    8bec:	e1a00005 	mov	r0, r5
    8bf0:	e59f105c 	ldr	r1, [pc, #92]	; 8c54 <single_step_handler+0x1a4>
    8bf4:	ebffff32 	bl	88c4 <brkpt_mismatch_set0>
    8bf8:	e59f3028 	ldr	r3, [pc, #40]	; 8c28 <single_step_handler+0x178>
    8bfc:	e5933000 	ldr	r3, [r3]
    8c00:	e3530000 	cmp	r3, #0
    8c04:	0a000005 	beq	8c20 <single_step_handler+0x170>
    8c08:	e58d5000 	str	r5, [sp]
    8c0c:	e59f0044 	ldr	r0, [pc, #68]	; 8c58 <single_step_handler+0x1a8>
    8c10:	e59f1018 	ldr	r1, [pc, #24]	; 8c30 <single_step_handler+0x180>
    8c14:	e59f2018 	ldr	r2, [pc, #24]	; 8c34 <single_step_handler+0x184>
    8c18:	e3a03028 	mov	r3, #40	; 0x28
    8c1c:	eb00018c 	bl	9254 <printk>
    8c20:	e28dd00c 	add	sp, sp, #12
    8c24:	e8bd8030 	pop	{r4, r5, pc}
    8c28:	0000c7d8 	ldrdeq	ip, [r0], -r8
    8c2c:	0000a250 	andeq	sl, r0, r0, asr r2
    8c30:	0000a270 	andeq	sl, r0, r0, ror r2
    8c34:	0000a554 	andeq	sl, r0, r4, asr r5
    8c38:	0000a15c 	andeq	sl, r0, ip, asr r1
    8c3c:	0000c7e4 	andeq	ip, r0, r4, ror #15
    8c40:	0000a284 	andeq	sl, r0, r4, lsl #5
    8c44:	0000a2a4 	andeq	sl, r0, r4, lsr #5
    8c48:	0000a2cc 	andeq	sl, r0, ip, asr #5
    8c4c:	00009f40 	andeq	r9, r0, r0, asr #30
    8c50:	0000a2f0 	strdeq	sl, [r0], -r0
    8c54:	00008ab0 			; <UNDEFINED> instruction: 0x00008ab0
    8c58:	0000a318 	andeq	sl, r0, r8, lsl r3

00008c5c <check_one_cswitch>:
    8c5c:	e92d4ff0 	push	{r4, r5, r6, r7, r8, r9, sl, fp, lr}
    8c60:	e24dd00c 	sub	sp, sp, #12
    8c64:	e1a04000 	mov	r4, r0
    8c68:	e10f8000 	mrs	r8, CPSR
    8c6c:	e3c8701f 	bic	r7, r8, #31
    8c70:	e3877010 	orr	r7, r7, #16
    8c74:	e59f3460 	ldr	r3, [pc, #1120]	; 90dc <check_one_cswitch+0x480>
    8c78:	e5830000 	str	r0, [r3]
    8c7c:	e3a03001 	mov	r3, #1
    8c80:	e5803030 	str	r3, [r0, #48]	; 0x30
    8c84:	e59f6454 	ldr	r6, [pc, #1108]	; 90e0 <check_one_cswitch+0x484>
    8c88:	e59fb454 	ldr	fp, [pc, #1108]	; 90e4 <check_one_cswitch+0x488>
    8c8c:	e59fa454 	ldr	sl, [pc, #1108]	; 90e8 <check_one_cswitch+0x48c>
    8c90:	e59f9454 	ldr	r9, [pc, #1108]	; 90ec <check_one_cswitch+0x490>
    8c94:	e59f5454 	ldr	r5, [pc, #1108]	; 90f0 <check_one_cswitch+0x494>
    8c98:	e594300c 	ldr	r3, [r4, #12]
    8c9c:	e1a00004 	mov	r0, r4
    8ca0:	e12fff33 	blx	r3
    8ca4:	e5963000 	ldr	r3, [r6]
    8ca8:	e3530000 	cmp	r3, #0
    8cac:	0a000006 	beq	8ccc <check_one_cswitch+0x70>
    8cb0:	e5943028 	ldr	r3, [r4, #40]	; 0x28
    8cb4:	e58d3000 	str	r3, [sp]
    8cb8:	e1a0000b 	mov	r0, fp
    8cbc:	e1a0100a 	mov	r1, sl
    8cc0:	e1a02009 	mov	r2, r9
    8cc4:	e3a03034 	mov	r3, #52	; 0x34
    8cc8:	eb000161 	bl	9254 <printk>
    8ccc:	e3a00000 	mov	r0, #0
    8cd0:	e1a01005 	mov	r1, r5
    8cd4:	ebfffefa 	bl	88c4 <brkpt_mismatch_set0>
    8cd8:	e5943018 	ldr	r3, [r4, #24]
    8cdc:	e2833001 	add	r3, r3, #1
    8ce0:	e5843018 	str	r3, [r4, #24]
    8ce4:	e3a03000 	mov	r3, #0
    8ce8:	e584301c 	str	r3, [r4, #28]
    8cec:	e5843024 	str	r3, [r4, #36]	; 0x24
    8cf0:	e1a00007 	mov	r0, r7
    8cf4:	e5941004 	ldr	r1, [r4, #4]
    8cf8:	e1a02004 	mov	r2, r4
    8cfc:	ebffff58 	bl	8a64 <user_trampoline_ret>
    8d00:	e5943024 	ldr	r3, [r4, #36]	; 0x24
    8d04:	e3530000 	cmp	r3, #0
    8d08:	1a000002 	bne	8d18 <check_one_cswitch+0xbc>
    8d0c:	e5943008 	ldr	r3, [r4, #8]
    8d10:	e1a00004 	mov	r0, r4
    8d14:	e12fff33 	blx	r3
    8d18:	e5943010 	ldr	r3, [r4, #16]
    8d1c:	e1a00004 	mov	r0, r4
    8d20:	e12fff33 	blx	r3
    8d24:	e3500000 	cmp	r0, #0
    8d28:	1a000006 	bne	8d48 <check_one_cswitch+0xec>
    8d2c:	e5941020 	ldr	r1, [r4, #32]
    8d30:	e5942018 	ldr	r2, [r4, #24]
    8d34:	e59f03b8 	ldr	r0, [pc, #952]	; 90f4 <check_one_cswitch+0x498>
    8d38:	eb000145 	bl	9254 <printk>
    8d3c:	e594302c 	ldr	r3, [r4, #44]	; 0x2c
    8d40:	e2833001 	add	r3, r3, #1
    8d44:	e584302c 	str	r3, [r4, #44]	; 0x2c
    8d48:	e5942028 	ldr	r2, [r4, #40]	; 0x28
    8d4c:	e2822001 	add	r2, r2, #1
    8d50:	e5842028 	str	r2, [r4, #40]	; 0x28
    8d54:	e5943024 	ldr	r3, [r4, #36]	; 0x24
    8d58:	e3530000 	cmp	r3, #0
    8d5c:	1affffcd 	bne	8c98 <check_one_cswitch+0x3c>
    8d60:	e5941014 	ldr	r1, [r4, #20]
    8d64:	e59f038c 	ldr	r0, [pc, #908]	; 90f8 <check_one_cswitch+0x49c>
    8d68:	e594302c 	ldr	r3, [r4, #44]	; 0x2c
    8d6c:	eb000138 	bl	9254 <printk>
    8d70:	e208301f 	and	r3, r8, #31
    8d74:	e3530012 	cmp	r3, #18
    8d78:	13530010 	cmpne	r3, #16
    8d7c:	0a000006 	beq	8d9c <check_one_cswitch+0x140>
    8d80:	e3530017 	cmp	r3, #23
    8d84:	13530013 	cmpne	r3, #19
    8d88:	0a000005 	beq	8da4 <check_one_cswitch+0x148>
    8d8c:	e353001f 	cmp	r3, #31
    8d90:	1a000005 	bne	8dac <check_one_cswitch+0x150>
    8d94:	e3a02001 	mov	r2, #1
    8d98:	ea000004 	b	8db0 <check_one_cswitch+0x154>
    8d9c:	e3a02001 	mov	r2, #1
    8da0:	ea000002 	b	8db0 <check_one_cswitch+0x154>
    8da4:	e3a02001 	mov	r2, #1
    8da8:	ea000000 	b	8db0 <check_one_cswitch+0x154>
    8dac:	e3a02000 	mov	r2, #0
    8db0:	e3520000 	cmp	r2, #0
    8db4:	1a000008 	bne	8ddc <check_one_cswitch+0x180>
    8db8:	eb000140 	bl	92c0 <rpi_reset_putc>
    8dbc:	e59f3338 	ldr	r3, [pc, #824]	; 90fc <check_one_cswitch+0x4a0>
    8dc0:	e58d3000 	str	r3, [sp]
    8dc4:	e59f0334 	ldr	r0, [pc, #820]	; 9100 <check_one_cswitch+0x4a4>
    8dc8:	e59f1334 	ldr	r1, [pc, #820]	; 9104 <check_one_cswitch+0x4a8>
    8dcc:	e59f2334 	ldr	r2, [pc, #820]	; 9108 <check_one_cswitch+0x4ac>
    8dd0:	e3a03011 	mov	r3, #17
    8dd4:	eb00011e 	bl	9254 <printk>
    8dd8:	eb0002b5 	bl	98b4 <clean_reboot>
    8ddc:	e2433010 	sub	r3, r3, #16
    8de0:	e353000f 	cmp	r3, #15
    8de4:	979ff103 	ldrls	pc, [pc, r3, lsl #2]
    8de8:	ea000019 	b	8e54 <check_one_cswitch+0x1f8>
    8dec:	00008e74 	andeq	r8, r0, r4, ror lr
    8df0:	00008e7c 	andeq	r8, r0, ip, ror lr
    8df4:	00008e2c 	andeq	r8, r0, ip, lsr #28
    8df8:	00008e34 	andeq	r8, r0, r4, lsr lr
    8dfc:	00008e54 	andeq	r8, r0, r4, asr lr
    8e00:	00008e54 	andeq	r8, r0, r4, asr lr
    8e04:	00008e54 	andeq	r8, r0, r4, asr lr
    8e08:	00008e3c 	andeq	r8, r0, ip, lsr lr
    8e0c:	00008e54 	andeq	r8, r0, r4, asr lr
    8e10:	00008e54 	andeq	r8, r0, r4, asr lr
    8e14:	00008e54 	andeq	r8, r0, r4, asr lr
    8e18:	00008e44 	andeq	r8, r0, r4, asr #28
    8e1c:	00008e54 	andeq	r8, r0, r4, asr lr
    8e20:	00008e54 	andeq	r8, r0, r4, asr lr
    8e24:	00008e54 	andeq	r8, r0, r4, asr lr
    8e28:	00008e4c 	andeq	r8, r0, ip, asr #28
    8e2c:	e59f12d8 	ldr	r1, [pc, #728]	; 910c <check_one_cswitch+0x4b0>
    8e30:	ea000012 	b	8e80 <check_one_cswitch+0x224>
    8e34:	e59f12d4 	ldr	r1, [pc, #724]	; 9110 <check_one_cswitch+0x4b4>
    8e38:	ea000010 	b	8e80 <check_one_cswitch+0x224>
    8e3c:	e59f12d0 	ldr	r1, [pc, #720]	; 9114 <check_one_cswitch+0x4b8>
    8e40:	ea00000e 	b	8e80 <check_one_cswitch+0x224>
    8e44:	e59f12cc 	ldr	r1, [pc, #716]	; 9118 <check_one_cswitch+0x4bc>
    8e48:	ea00000c 	b	8e80 <check_one_cswitch+0x224>
    8e4c:	e59f12c8 	ldr	r1, [pc, #712]	; 911c <check_one_cswitch+0x4c0>
    8e50:	ea00000a 	b	8e80 <check_one_cswitch+0x224>
    8e54:	eb000119 	bl	92c0 <rpi_reset_putc>
    8e58:	e58d8000 	str	r8, [sp]
    8e5c:	e59f02bc 	ldr	r0, [pc, #700]	; 9120 <check_one_cswitch+0x4c4>
    8e60:	e59f129c 	ldr	r1, [pc, #668]	; 9104 <check_one_cswitch+0x4a8>
    8e64:	e59f22b8 	ldr	r2, [pc, #696]	; 9124 <check_one_cswitch+0x4c8>
    8e68:	e3a03021 	mov	r3, #33	; 0x21
    8e6c:	eb0000f8 	bl	9254 <printk>
    8e70:	eb00028f 	bl	98b4 <clean_reboot>
    8e74:	e59f12ac 	ldr	r1, [pc, #684]	; 9128 <check_one_cswitch+0x4cc>
    8e78:	ea000000 	b	8e80 <check_one_cswitch+0x224>
    8e7c:	e59f12a8 	ldr	r1, [pc, #680]	; 912c <check_one_cswitch+0x4d0>
    8e80:	e59f02a8 	ldr	r0, [pc, #680]	; 9130 <check_one_cswitch+0x4d4>
    8e84:	e1a02008 	mov	r2, r8
    8e88:	eb0000f1 	bl	9254 <printk>
    8e8c:	e10f5000 	mrs	r5, CPSR
    8e90:	e205301f 	and	r3, r5, #31
    8e94:	e3530012 	cmp	r3, #18
    8e98:	13530010 	cmpne	r3, #16
    8e9c:	0a000006 	beq	8ebc <check_one_cswitch+0x260>
    8ea0:	e3530017 	cmp	r3, #23
    8ea4:	13530013 	cmpne	r3, #19
    8ea8:	0a000005 	beq	8ec4 <check_one_cswitch+0x268>
    8eac:	e353001f 	cmp	r3, #31
    8eb0:	1a000005 	bne	8ecc <check_one_cswitch+0x270>
    8eb4:	e3a02001 	mov	r2, #1
    8eb8:	ea000004 	b	8ed0 <check_one_cswitch+0x274>
    8ebc:	e3a02001 	mov	r2, #1
    8ec0:	ea000002 	b	8ed0 <check_one_cswitch+0x274>
    8ec4:	e3a02001 	mov	r2, #1
    8ec8:	ea000000 	b	8ed0 <check_one_cswitch+0x274>
    8ecc:	e3a02000 	mov	r2, #0
    8ed0:	e3520000 	cmp	r2, #0
    8ed4:	1a000008 	bne	8efc <check_one_cswitch+0x2a0>
    8ed8:	eb0000f8 	bl	92c0 <rpi_reset_putc>
    8edc:	e59f3218 	ldr	r3, [pc, #536]	; 90fc <check_one_cswitch+0x4a0>
    8ee0:	e58d3000 	str	r3, [sp]
    8ee4:	e59f0214 	ldr	r0, [pc, #532]	; 9100 <check_one_cswitch+0x4a4>
    8ee8:	e59f1214 	ldr	r1, [pc, #532]	; 9104 <check_one_cswitch+0x4a8>
    8eec:	e59f2214 	ldr	r2, [pc, #532]	; 9108 <check_one_cswitch+0x4ac>
    8ef0:	e3a03011 	mov	r3, #17
    8ef4:	eb0000d6 	bl	9254 <printk>
    8ef8:	eb00026d 	bl	98b4 <clean_reboot>
    8efc:	e2433010 	sub	r3, r3, #16
    8f00:	e353000f 	cmp	r3, #15
    8f04:	979ff103 	ldrls	pc, [pc, r3, lsl #2]
    8f08:	ea000019 	b	8f74 <check_one_cswitch+0x318>
    8f0c:	00008f94 	muleq	r0, r4, pc	; <UNPREDICTABLE>
    8f10:	00008f9c 	muleq	r0, ip, pc	; <UNPREDICTABLE>
    8f14:	00008f4c 	andeq	r8, r0, ip, asr #30
    8f18:	00008f54 	andeq	r8, r0, r4, asr pc
    8f1c:	00008f74 	andeq	r8, r0, r4, ror pc
    8f20:	00008f74 	andeq	r8, r0, r4, ror pc
    8f24:	00008f74 	andeq	r8, r0, r4, ror pc
    8f28:	00008f5c 	andeq	r8, r0, ip, asr pc
    8f2c:	00008f74 	andeq	r8, r0, r4, ror pc
    8f30:	00008f74 	andeq	r8, r0, r4, ror pc
    8f34:	00008f74 	andeq	r8, r0, r4, ror pc
    8f38:	00008f64 	andeq	r8, r0, r4, ror #30
    8f3c:	00008f74 	andeq	r8, r0, r4, ror pc
    8f40:	00008f74 	andeq	r8, r0, r4, ror pc
    8f44:	00008f74 	andeq	r8, r0, r4, ror pc
    8f48:	00008f6c 	andeq	r8, r0, ip, ror #30
    8f4c:	e59f11b8 	ldr	r1, [pc, #440]	; 910c <check_one_cswitch+0x4b0>
    8f50:	ea000012 	b	8fa0 <check_one_cswitch+0x344>
    8f54:	e59f11b4 	ldr	r1, [pc, #436]	; 9110 <check_one_cswitch+0x4b4>
    8f58:	ea000010 	b	8fa0 <check_one_cswitch+0x344>
    8f5c:	e59f11b0 	ldr	r1, [pc, #432]	; 9114 <check_one_cswitch+0x4b8>
    8f60:	ea00000e 	b	8fa0 <check_one_cswitch+0x344>
    8f64:	e59f11ac 	ldr	r1, [pc, #428]	; 9118 <check_one_cswitch+0x4bc>
    8f68:	ea00000c 	b	8fa0 <check_one_cswitch+0x344>
    8f6c:	e59f11a8 	ldr	r1, [pc, #424]	; 911c <check_one_cswitch+0x4c0>
    8f70:	ea00000a 	b	8fa0 <check_one_cswitch+0x344>
    8f74:	eb0000d1 	bl	92c0 <rpi_reset_putc>
    8f78:	e58d5000 	str	r5, [sp]
    8f7c:	e59f019c 	ldr	r0, [pc, #412]	; 9120 <check_one_cswitch+0x4c4>
    8f80:	e59f117c 	ldr	r1, [pc, #380]	; 9104 <check_one_cswitch+0x4a8>
    8f84:	e59f2198 	ldr	r2, [pc, #408]	; 9124 <check_one_cswitch+0x4c8>
    8f88:	e3a03021 	mov	r3, #33	; 0x21
    8f8c:	eb0000b0 	bl	9254 <printk>
    8f90:	eb000247 	bl	98b4 <clean_reboot>
    8f94:	e59f118c 	ldr	r1, [pc, #396]	; 9128 <check_one_cswitch+0x4cc>
    8f98:	ea000000 	b	8fa0 <check_one_cswitch+0x344>
    8f9c:	e59f1188 	ldr	r1, [pc, #392]	; 912c <check_one_cswitch+0x4d0>
    8fa0:	e10f2000 	mrs	r2, CPSR
    8fa4:	e59f0188 	ldr	r0, [pc, #392]	; 9134 <check_one_cswitch+0x4d8>
    8fa8:	eb0000a9 	bl	9254 <printk>
    8fac:	e3a00000 	mov	r0, #0
    8fb0:	ebfffe50 	bl	88f8 <brkpt_mismatch_disable0>
    8fb4:	e208801f 	and	r8, r8, #31
    8fb8:	e3580012 	cmp	r8, #18
    8fbc:	13580010 	cmpne	r8, #16
    8fc0:	0a000006 	beq	8fe0 <check_one_cswitch+0x384>
    8fc4:	e3580017 	cmp	r8, #23
    8fc8:	13580013 	cmpne	r8, #19
    8fcc:	0a000005 	beq	8fe8 <check_one_cswitch+0x38c>
    8fd0:	e358001f 	cmp	r8, #31
    8fd4:	1a000005 	bne	8ff0 <check_one_cswitch+0x394>
    8fd8:	e3a03001 	mov	r3, #1
    8fdc:	ea000004 	b	8ff4 <check_one_cswitch+0x398>
    8fe0:	e3a03001 	mov	r3, #1
    8fe4:	ea000002 	b	8ff4 <check_one_cswitch+0x398>
    8fe8:	e3a03001 	mov	r3, #1
    8fec:	ea000000 	b	8ff4 <check_one_cswitch+0x398>
    8ff0:	e3a03000 	mov	r3, #0
    8ff4:	e3530000 	cmp	r3, #0
    8ff8:	1a000008 	bne	9020 <check_one_cswitch+0x3c4>
    8ffc:	eb0000af 	bl	92c0 <rpi_reset_putc>
    9000:	e59f30f4 	ldr	r3, [pc, #244]	; 90fc <check_one_cswitch+0x4a0>
    9004:	e58d3000 	str	r3, [sp]
    9008:	e59f00f0 	ldr	r0, [pc, #240]	; 9100 <check_one_cswitch+0x4a4>
    900c:	e59f10f0 	ldr	r1, [pc, #240]	; 9104 <check_one_cswitch+0x4a8>
    9010:	e59f20f0 	ldr	r2, [pc, #240]	; 9108 <check_one_cswitch+0x4ac>
    9014:	e3a03011 	mov	r3, #17
    9018:	eb00008d 	bl	9254 <printk>
    901c:	eb000224 	bl	98b4 <clean_reboot>
    9020:	e10f3000 	mrs	r3, CPSR
    9024:	e203301f 	and	r3, r3, #31
    9028:	e3530012 	cmp	r3, #18
    902c:	13530010 	cmpne	r3, #16
    9030:	0a000006 	beq	9050 <check_one_cswitch+0x3f4>
    9034:	e3530017 	cmp	r3, #23
    9038:	13530013 	cmpne	r3, #19
    903c:	0a000005 	beq	9058 <check_one_cswitch+0x3fc>
    9040:	e353001f 	cmp	r3, #31
    9044:	1a000005 	bne	9060 <check_one_cswitch+0x404>
    9048:	e3a02001 	mov	r2, #1
    904c:	ea000004 	b	9064 <check_one_cswitch+0x408>
    9050:	e3a02001 	mov	r2, #1
    9054:	ea000002 	b	9064 <check_one_cswitch+0x408>
    9058:	e3a02001 	mov	r2, #1
    905c:	ea000000 	b	9064 <check_one_cswitch+0x408>
    9060:	e3a02000 	mov	r2, #0
    9064:	e3520000 	cmp	r2, #0
    9068:	1a000008 	bne	9090 <check_one_cswitch+0x434>
    906c:	eb000093 	bl	92c0 <rpi_reset_putc>
    9070:	e59f3084 	ldr	r3, [pc, #132]	; 90fc <check_one_cswitch+0x4a0>
    9074:	e58d3000 	str	r3, [sp]
    9078:	e59f0080 	ldr	r0, [pc, #128]	; 9100 <check_one_cswitch+0x4a4>
    907c:	e59f1080 	ldr	r1, [pc, #128]	; 9104 <check_one_cswitch+0x4a8>
    9080:	e59f2080 	ldr	r2, [pc, #128]	; 9108 <check_one_cswitch+0x4ac>
    9084:	e3a03011 	mov	r3, #17
    9088:	eb000071 	bl	9254 <printk>
    908c:	eb000208 	bl	98b4 <clean_reboot>
    9090:	e1580003 	cmp	r8, r3
    9094:	0a000008 	beq	90bc <check_one_cswitch+0x460>
    9098:	eb000088 	bl	92c0 <rpi_reset_putc>
    909c:	e59f3094 	ldr	r3, [pc, #148]	; 9138 <check_one_cswitch+0x4dc>
    90a0:	e58d3000 	str	r3, [sp]
    90a4:	e59f0054 	ldr	r0, [pc, #84]	; 9100 <check_one_cswitch+0x4a4>
    90a8:	e59f1038 	ldr	r1, [pc, #56]	; 90e8 <check_one_cswitch+0x48c>
    90ac:	e59f2038 	ldr	r2, [pc, #56]	; 90ec <check_one_cswitch+0x490>
    90b0:	e3a03058 	mov	r3, #88	; 0x58
    90b4:	eb000066 	bl	9254 <printk>
    90b8:	eb0001fd 	bl	98b4 <clean_reboot>
    90bc:	e3a03000 	mov	r3, #0
    90c0:	e5843030 	str	r3, [r4, #48]	; 0x30
    90c4:	e594002c 	ldr	r0, [r4, #44]	; 0x2c
    90c8:	e1500003 	cmp	r0, r3
    90cc:	13a00000 	movne	r0, #0
    90d0:	03a00001 	moveq	r0, #1
    90d4:	e28dd00c 	add	sp, sp, #12
    90d8:	e8bd8ff0 	pop	{r4, r5, r6, r7, r8, r9, sl, fp, pc}
    90dc:	0000c7e4 	andeq	ip, r0, r4, ror #15
    90e0:	0000c7d8 	ldrdeq	ip, [r0], -r8
    90e4:	0000a398 	muleq	r0, r8, r3
    90e8:	0000a270 	andeq	sl, r0, r0, ror r2
    90ec:	0000a540 	andeq	sl, r0, r0, asr #10
    90f0:	00008ab0 			; <UNDEFINED> instruction: 0x00008ab0
    90f4:	0000a3d0 	ldrdeq	sl, [r0], -r0
    90f8:	0000a418 	andeq	sl, r0, r8, lsl r4
    90fc:	0000a458 	andeq	sl, r0, r8, asr r4
    9100:	00009f40 	andeq	r9, r0, r0, asr #30
    9104:	0000a44c 	andeq	sl, r0, ip, asr #8
    9108:	0000a58c 	andeq	sl, r0, ip, lsl #11
    910c:	0000a35c 	andeq	sl, r0, ip, asr r3
    9110:	0000a368 	andeq	sl, r0, r8, ror #6
    9114:	0000a374 	andeq	sl, r0, r4, ror r3
    9118:	0000a380 	andeq	sl, r0, r0, lsl #7
    911c:	0000a38c 	andeq	sl, r0, ip, lsl #7
    9120:	0000a46c 	andeq	sl, r0, ip, ror #8
    9124:	0000a580 	andeq	sl, r0, r0, lsl #11
    9128:	0000a344 	andeq	sl, r0, r4, asr #6
    912c:	0000a350 	andeq	sl, r0, r0, asr r3
    9130:	0000a490 	muleq	r0, r0, r4
    9134:	0000a4ac 	andeq	sl, r0, ip, lsr #9
    9138:	0000a4c4 	andeq	sl, r0, r4, asr #9

0000913c <check_sequential>:
    913c:	e92d4038 	push	{r3, r4, r5, lr}
    9140:	e1a04000 	mov	r4, r0
    9144:	e3a05000 	mov	r5, #0
    9148:	ea000015 	b	91a4 <check_sequential+0x68>
    914c:	e594300c 	ldr	r3, [r4, #12]
    9150:	e1a00004 	mov	r0, r4
    9154:	e12fff33 	blx	r3
    9158:	e5943004 	ldr	r3, [r4, #4]
    915c:	e1a00004 	mov	r0, r4
    9160:	e12fff33 	blx	r3
    9164:	e5943008 	ldr	r3, [r4, #8]
    9168:	e1a00004 	mov	r0, r4
    916c:	e12fff33 	blx	r3
    9170:	e5943010 	ldr	r3, [r4, #16]
    9174:	e1a00004 	mov	r0, r4
    9178:	e12fff33 	blx	r3
    917c:	e3500000 	cmp	r0, #0
    9180:	1a000006 	bne	91a0 <check_sequential+0x64>
    9184:	eb00004d 	bl	92c0 <rpi_reset_putc>
    9188:	e59f0024 	ldr	r0, [pc, #36]	; 91b4 <check_sequential+0x78>
    918c:	e59f1024 	ldr	r1, [pc, #36]	; 91b8 <check_sequential+0x7c>
    9190:	e59f2024 	ldr	r2, [pc, #36]	; 91bc <check_sequential+0x80>
    9194:	e3a0306e 	mov	r3, #110	; 0x6e
    9198:	eb00002d 	bl	9254 <printk>
    919c:	eb0001c4 	bl	98b4 <clean_reboot>
    91a0:	e2855001 	add	r5, r5, #1
    91a4:	e3550063 	cmp	r5, #99	; 0x63
    91a8:	9affffe7 	bls	914c <check_sequential+0x10>
    91ac:	e3a00001 	mov	r0, #1
    91b0:	e8bd8038 	pop	{r3, r4, r5, pc}
    91b4:	0000a4f0 	strdeq	sl, [r0], -r0
    91b8:	0000a270 	andeq	sl, r0, r0, ror r2
    91bc:	0000a52c 	andeq	sl, r0, ip, lsr #10

000091c0 <check_zero>:
    91c0:	e3a03000 	mov	r3, #0
    91c4:	e5803030 	str	r3, [r0, #48]	; 0x30
    91c8:	e580302c 	str	r3, [r0, #44]	; 0x2c
    91cc:	e5803028 	str	r3, [r0, #40]	; 0x28
    91d0:	e5803024 	str	r3, [r0, #36]	; 0x24
    91d4:	e5803020 	str	r3, [r0, #32]
    91d8:	e580301c 	str	r3, [r0, #28]
    91dc:	e5803018 	str	r3, [r0, #24]
    91e0:	e5803014 	str	r3, [r0, #20]
    91e4:	e12fff1e 	bx	lr

000091e8 <check>:
    91e8:	e92d4010 	push	{r4, lr}
    91ec:	e1a04000 	mov	r4, r0
    91f0:	ebfffd65 	bl	878c <cp14_enable>
    91f4:	e1a00004 	mov	r0, r4
    91f8:	ebfffff0 	bl	91c0 <check_zero>
    91fc:	e1a00004 	mov	r0, r4
    9200:	ebffffcd 	bl	913c <check_sequential>
    9204:	e3500000 	cmp	r0, #0
    9208:	0a000005 	beq	9224 <check+0x3c>
    920c:	e1a00004 	mov	r0, r4
    9210:	ebfffe91 	bl	8c5c <check_one_cswitch>
    9214:	e3500000 	cmp	r0, #0
    9218:	0a000003 	beq	922c <check+0x44>
    921c:	e3a00001 	mov	r0, #1
    9220:	e8bd8010 	pop	{r4, pc}
    9224:	e3a00000 	mov	r0, #0
    9228:	e8bd8010 	pop	{r4, pc}
    922c:	e3a00000 	mov	r0, #0
    9230:	e8bd8010 	pop	{r4, pc}

00009234 <memset>:
    9234:	e0802002 	add	r2, r0, r2
    9238:	e1a03000 	mov	r3, r0
    923c:	ea000001 	b	9248 <memset+0x14>
    9240:	e5c31000 	strb	r1, [r3]
    9244:	e2833001 	add	r3, r3, #1
    9248:	e1530002 	cmp	r3, r2
    924c:	3afffffb 	bcc	9240 <memset+0xc>
    9250:	e12fff1e 	bx	lr

00009254 <printk>:
    9254:	e92d000f 	push	{r0, r1, r2, r3}
    9258:	e92d4030 	push	{r4, r5, lr}
    925c:	e24dd00c 	sub	sp, sp, #12
    9260:	e28d301c 	add	r3, sp, #28
    9264:	e58d3004 	str	r3, [sp, #4]
    9268:	e59f4034 	ldr	r4, [pc, #52]	; 92a4 <printk+0x50>
    926c:	e1a00004 	mov	r0, r4
    9270:	e3a01b01 	mov	r1, #1024	; 0x400
    9274:	e59d2018 	ldr	r2, [sp, #24]
    9278:	eb0000d0 	bl	95c0 <va_printk>
    927c:	e1a05000 	mov	r5, r0
    9280:	e59f3020 	ldr	r3, [pc, #32]	; 92a8 <printk+0x54>
    9284:	e5933000 	ldr	r3, [r3]
    9288:	e1a00004 	mov	r0, r4
    928c:	e12fff33 	blx	r3
    9290:	e1a00005 	mov	r0, r5
    9294:	e28dd00c 	add	sp, sp, #12
    9298:	e8bd4030 	pop	{r4, r5, lr}
    929c:	e28dd010 	add	sp, sp, #16
    92a0:	e12fff1e 	bx	lr
    92a4:	0000c7ec 	andeq	ip, r0, ip, ror #15
    92a8:	00009e64 	andeq	r9, r0, r4, ror #28

000092ac <internal_putchar>:
    92ac:	e92d4010 	push	{r4, lr}
    92b0:	e1a04000 	mov	r4, r0
    92b4:	eb000291 	bl	9d00 <uart_putc>
    92b8:	e1a00004 	mov	r0, r4
    92bc:	e8bd8010 	pop	{r4, pc}

000092c0 <rpi_reset_putc>:
    92c0:	e59f2008 	ldr	r2, [pc, #8]	; 92d0 <rpi_reset_putc+0x10>
    92c4:	e59f3008 	ldr	r3, [pc, #8]	; 92d4 <rpi_reset_putc+0x14>
    92c8:	e5832000 	str	r2, [r3]
    92cc:	e12fff1e 	bx	lr
    92d0:	000092ac 	andeq	r9, r0, ip, lsr #5
    92d4:	00009e60 	andeq	r9, r0, r0, ror #28

000092d8 <rpi_set_putc>:
    92d8:	e59f3004 	ldr	r3, [pc, #4]	; 92e4 <rpi_set_putc+0xc>
    92dc:	e5830000 	str	r0, [r3]
    92e0:	e12fff1e 	bx	lr
    92e4:	00009e60 	andeq	r9, r0, r0, ror #28

000092e8 <internal_putk>:
    92e8:	e92d4038 	push	{r3, r4, r5, lr}
    92ec:	e1a04000 	mov	r4, r0
    92f0:	e59f5020 	ldr	r5, [pc, #32]	; 9318 <internal_putk+0x30>
    92f4:	ea000002 	b	9304 <internal_putk+0x1c>
    92f8:	e5953000 	ldr	r3, [r5]
    92fc:	e12fff33 	blx	r3
    9300:	e2844001 	add	r4, r4, #1
    9304:	e5d40000 	ldrb	r0, [r4]
    9308:	e3500000 	cmp	r0, #0
    930c:	1afffff9 	bne	92f8 <internal_putk+0x10>
    9310:	e3a00001 	mov	r0, #1
    9314:	e8bd8038 	pop	{r3, r4, r5, pc}
    9318:	00009e60 	andeq	r9, r0, r0, ror #28

0000931c <isdigit>:
    931c:	e2400030 	sub	r0, r0, #48	; 0x30
    9320:	e3500009 	cmp	r0, #9
    9324:	83a00000 	movhi	r0, #0
    9328:	93a00001 	movls	r0, #1
    932c:	e12fff1e 	bx	lr

00009330 <pad>:
    9330:	e0611000 	rsb	r1, r1, r0
    9334:	e3a03020 	mov	r3, #32
    9338:	ea000002 	b	9348 <pad+0x18>
    933c:	e5c03000 	strb	r3, [r0]
    9340:	e2811001 	add	r1, r1, #1
    9344:	e2800001 	add	r0, r0, #1
    9348:	e1510002 	cmp	r1, r2
    934c:	bafffffa 	blt	933c <pad+0xc>
    9350:	e3a03000 	mov	r3, #0
    9354:	e5c03000 	strb	r3, [r0]
    9358:	e12fff1e 	bx	lr

0000935c <reverse>:
    935c:	e063c002 	rsb	ip, r3, r2
    9360:	e28cc001 	add	ip, ip, #1
    9364:	e15c0001 	cmp	ip, r1
    9368:	c061100c 	rsbgt	r1, r1, ip
    936c:	c0833001 	addgt	r3, r3, r1
    9370:	e2422001 	sub	r2, r2, #1
    9374:	e1a01000 	mov	r1, r0
    9378:	ea000002 	b	9388 <reverse+0x2c>
    937c:	e452c001 	ldrb	ip, [r2], #-1
    9380:	e5c1c000 	strb	ip, [r1]
    9384:	e2811001 	add	r1, r1, #1
    9388:	e1520003 	cmp	r2, r3
    938c:	2afffffa 	bcs	937c <reverse+0x20>
    9390:	e3a03000 	mov	r3, #0
    9394:	e5c13000 	strb	r3, [r1]
    9398:	e12fff1e 	bx	lr

0000939c <emit>:
    939c:	e92d41f0 	push	{r4, r5, r6, r7, r8, lr}
    93a0:	e24dd048 	sub	sp, sp, #72	; 0x48
    93a4:	e1a05001 	mov	r5, r1
    93a8:	e1a04002 	mov	r4, r2
    93ac:	e59d2060 	ldr	r2, [sp, #96]	; 0x60
    93b0:	e1520004 	cmp	r2, r4
    93b4:	c2442001 	subgt	r2, r4, #1
    93b8:	e1a0c003 	mov	ip, r3
    93bc:	e2400002 	sub	r0, r0, #2
    93c0:	e350000e 	cmp	r0, #14
    93c4:	979ff100 	ldrls	pc, [pc, r0, lsl #2]
    93c8:	ea000048 	b	94f0 <emit+0x154>
    93cc:	000094c8 	andeq	r9, r0, r8, asr #9
    93d0:	000094f0 	strdeq	r9, [r0], -r0
    93d4:	000094f0 	strdeq	r9, [r0], -r0
    93d8:	000094f0 	strdeq	r9, [r0], -r0
    93dc:	000094f0 	strdeq	r9, [r0], -r0
    93e0:	000094f0 	strdeq	r9, [r0], -r0
    93e4:	000094bc 			; <UNDEFINED> instruction: 0x000094bc
    93e8:	000094f0 	strdeq	r9, [r0], -r0
    93ec:	00009408 	andeq	r9, r0, r8, lsl #8
    93f0:	000094f0 	strdeq	r9, [r0], -r0
    93f4:	000094f0 	strdeq	r9, [r0], -r0
    93f8:	000094f0 	strdeq	r9, [r0], -r0
    93fc:	000094f0 	strdeq	r9, [r0], -r0
    9400:	000094f0 	strdeq	r9, [r0], -r0
    9404:	0000947c 	andeq	r9, r0, ip, ror r4
    9408:	e59d1064 	ldr	r1, [sp, #100]	; 0x64
    940c:	e2911000 	adds	r1, r1, #0
    9410:	13a01001 	movne	r1, #1
    9414:	e0111fa3 	ands	r1, r1, r3, lsr #31
    9418:	1263c000 	rsbne	ip, r3, #0
    941c:	13a08001 	movne	r8, #1
    9420:	03a08000 	moveq	r8, #0
    9424:	e28d1008 	add	r1, sp, #8
    9428:	e59f7108 	ldr	r7, [pc, #264]	; 9538 <emit+0x19c>
    942c:	e59f6108 	ldr	r6, [pc, #264]	; 953c <emit+0x1a0>
    9430:	ea000000 	b	9438 <emit+0x9c>
    9434:	e1a01000 	mov	r1, r0
    9438:	e2810001 	add	r0, r1, #1
    943c:	e083ec97 	umull	lr, r3, r7, ip
    9440:	e1a031a3 	lsr	r3, r3, #3
    9444:	e1a0e003 	mov	lr, r3
    9448:	e0833103 	add	r3, r3, r3, lsl #2
    944c:	e1a03083 	lsl	r3, r3, #1
    9450:	e063300c 	rsb	r3, r3, ip
    9454:	e7d63003 	ldrb	r3, [r6, r3]
    9458:	e5c13000 	strb	r3, [r1]
    945c:	e1a0c00e 	mov	ip, lr
    9460:	e35e0000 	cmp	lr, #0
    9464:	1afffff2 	bne	9434 <emit+0x98>
    9468:	e3580000 	cmp	r8, #0
    946c:	12810002 	addne	r0, r1, #2
    9470:	13a0302d 	movne	r3, #45	; 0x2d
    9474:	15c13001 	strbne	r3, [r1, #1]
    9478:	ea000025 	b	9514 <emit+0x178>
    947c:	e28d3008 	add	r3, sp, #8
    9480:	e59fe0b8 	ldr	lr, [pc, #184]	; 9540 <emit+0x1a4>
    9484:	ea000000 	b	948c <emit+0xf0>
    9488:	e1a03000 	mov	r3, r0
    948c:	e2830001 	add	r0, r3, #1
    9490:	e20c100f 	and	r1, ip, #15
    9494:	e7de1001 	ldrb	r1, [lr, r1]
    9498:	e5c31000 	strb	r1, [r3]
    949c:	e1b0c22c 	lsrs	ip, ip, #4
    94a0:	1afffff8 	bne	9488 <emit+0xec>
    94a4:	e3a01078 	mov	r1, #120	; 0x78
    94a8:	e5c31001 	strb	r1, [r3, #1]
    94ac:	e2830003 	add	r0, r3, #3
    94b0:	e3a01030 	mov	r1, #48	; 0x30
    94b4:	e5c31002 	strb	r1, [r3, #2]
    94b8:	ea000015 	b	9514 <emit+0x178>
    94bc:	e5cd3008 	strb	r3, [sp, #8]
    94c0:	e28d0009 	add	r0, sp, #9
    94c4:	ea000012 	b	9514 <emit+0x178>
    94c8:	e28d3008 	add	r3, sp, #8
    94cc:	e59fe070 	ldr	lr, [pc, #112]	; 9544 <emit+0x1a8>
    94d0:	e2830001 	add	r0, r3, #1
    94d4:	e20c1001 	and	r1, ip, #1
    94d8:	e7de1001 	ldrb	r1, [lr, r1]
    94dc:	e5c31000 	strb	r1, [r3]
    94e0:	e1a03000 	mov	r3, r0
    94e4:	e1b0c0ac 	lsrs	ip, ip, #1
    94e8:	1afffff8 	bne	94d0 <emit+0x134>
    94ec:	ea000008 	b	9514 <emit+0x178>
    94f0:	ebffff72 	bl	92c0 <rpi_reset_putc>
    94f4:	e59f304c 	ldr	r3, [pc, #76]	; 9548 <emit+0x1ac>
    94f8:	e58d3000 	str	r3, [sp]
    94fc:	e59f0048 	ldr	r0, [pc, #72]	; 954c <emit+0x1b0>
    9500:	e59f1048 	ldr	r1, [pc, #72]	; 9550 <emit+0x1b4>
    9504:	e59f2048 	ldr	r2, [pc, #72]	; 9554 <emit+0x1b8>
    9508:	e3a03077 	mov	r3, #119	; 0x77
    950c:	ebffff50 	bl	9254 <printk>
    9510:	eb0000e7 	bl	98b4 <clean_reboot>
    9514:	e28d1008 	add	r1, sp, #8
    9518:	ebffff84 	bl	9330 <pad>
    951c:	e1a02000 	mov	r2, r0
    9520:	e1a00005 	mov	r0, r5
    9524:	e1a01004 	mov	r1, r4
    9528:	e28d3008 	add	r3, sp, #8
    952c:	ebffff8a 	bl	935c <reverse>
    9530:	e28dd048 	add	sp, sp, #72	; 0x48
    9534:	e8bd81f0 	pop	{r4, r5, r6, r7, r8, pc}
    9538:	cccccccd 	stclgt	12, cr12, [ip], {205}	; 0xcd
    953c:	0000a5e0 	andeq	sl, r0, r0, ror #11
    9540:	0000a5ec 	andeq	sl, r0, ip, ror #11
    9544:	0000a600 	andeq	sl, r0, r0, lsl #12
    9548:	0000a5dc 	ldrdeq	sl, [r0], -ip
    954c:	00009f40 	andeq	r9, r0, r0, asr #30
    9550:	0000a5c8 	andeq	sl, r0, r8, asr #11
    9554:	0000a5a4 	andeq	sl, r0, r4, lsr #11

00009558 <rpi_set_output>:
    9558:	e52de004 	push	{lr}		; (str lr, [sp, #-4]!)
    955c:	e24dd00c 	sub	sp, sp, #12
    9560:	e3500000 	cmp	r0, #0
    9564:	1a000008 	bne	958c <rpi_set_output+0x34>
    9568:	ebffff54 	bl	92c0 <rpi_reset_putc>
    956c:	e59f3034 	ldr	r3, [pc, #52]	; 95a8 <rpi_set_output+0x50>
    9570:	e58d3000 	str	r3, [sp]
    9574:	e59f0030 	ldr	r0, [pc, #48]	; 95ac <rpi_set_output+0x54>
    9578:	e59f1030 	ldr	r1, [pc, #48]	; 95b0 <rpi_set_output+0x58>
    957c:	e59f2030 	ldr	r2, [pc, #48]	; 95b4 <rpi_set_output+0x5c>
    9580:	e3a03020 	mov	r3, #32
    9584:	ebffff32 	bl	9254 <printk>
    9588:	eb0000c9 	bl	98b4 <clean_reboot>
    958c:	e59f3024 	ldr	r3, [pc, #36]	; 95b8 <rpi_set_output+0x60>
    9590:	e5830000 	str	r0, [r3]
    9594:	e3510000 	cmp	r1, #0
    9598:	159f301c 	ldrne	r3, [pc, #28]	; 95bc <rpi_set_output+0x64>
    959c:	15831000 	strne	r1, [r3]
    95a0:	e28dd00c 	add	sp, sp, #12
    95a4:	e49df004 	pop	{pc}		; (ldr pc, [sp], #4)
    95a8:	0000a604 	andeq	sl, r0, r4, lsl #12
    95ac:	00009f40 	andeq	r9, r0, r0, asr #30
    95b0:	0000a5c8 	andeq	sl, r0, r8, asr #11
    95b4:	0000a5ac 	andeq	sl, r0, ip, lsr #11
    95b8:	00009e60 	andeq	r9, r0, r0, ror #28
    95bc:	00009e64 	andeq	r9, r0, r4, ror #28

000095c0 <va_printk>:
    95c0:	e92d4ff0 	push	{r4, r5, r6, r7, r8, r9, sl, fp, lr}
    95c4:	e24dd094 	sub	sp, sp, #148	; 0x94
    95c8:	e1a0b000 	mov	fp, r0
    95cc:	e58d200c 	str	r2, [sp, #12]
    95d0:	e1a0a003 	mov	sl, r3
    95d4:	e2411001 	sub	r1, r1, #1
    95d8:	e0808001 	add	r8, r0, r1
    95dc:	e3a03000 	mov	r3, #0
    95e0:	e5c03000 	strb	r3, [r0]
    95e4:	e1a04000 	mov	r4, r0
    95e8:	e1a06002 	mov	r6, r2
    95ec:	ea000095 	b	9848 <va_printk+0x288>
    95f0:	e3530025 	cmp	r3, #37	; 0x25
    95f4:	12866001 	addne	r6, r6, #1
    95f8:	15c43000 	strbne	r3, [r4]
    95fc:	12844001 	addne	r4, r4, #1
    9600:	1a000090 	bne	9848 <va_printk+0x288>
    9604:	e5d62001 	ldrb	r2, [r6, #1]
    9608:	e3520025 	cmp	r2, #37	; 0x25
    960c:	05c43000 	strbeq	r3, [r4]
    9610:	02866002 	addeq	r6, r6, #2
    9614:	02844001 	addeq	r4, r4, #1
    9618:	0a00008a 	beq	9848 <va_printk+0x288>
    961c:	e2866001 	add	r6, r6, #1
    9620:	e3a07000 	mov	r7, #0
    9624:	ea000004 	b	963c <va_printk+0x7c>
    9628:	e0877107 	add	r7, r7, r7, lsl #2
    962c:	e1a07087 	lsl	r7, r7, #1
    9630:	e0877005 	add	r7, r7, r5
    9634:	e2477030 	sub	r7, r7, #48	; 0x30
    9638:	e2866001 	add	r6, r6, #1
    963c:	e5d65000 	ldrb	r5, [r6]
    9640:	e1a09005 	mov	r9, r5
    9644:	e1a00005 	mov	r0, r5
    9648:	ebffff33 	bl	931c <isdigit>
    964c:	e3500000 	cmp	r0, #0
    9650:	1afffff4 	bne	9628 <va_printk+0x68>
    9654:	e357001f 	cmp	r7, #31
    9658:	9a000008 	bls	9680 <va_printk+0xc0>
    965c:	ebffff17 	bl	92c0 <rpi_reset_putc>
    9660:	e59f320c 	ldr	r3, [pc, #524]	; 9874 <va_printk+0x2b4>
    9664:	e58d3000 	str	r3, [sp]
    9668:	e59f0208 	ldr	r0, [pc, #520]	; 9878 <va_printk+0x2b8>
    966c:	e59f1208 	ldr	r1, [pc, #520]	; 987c <va_printk+0x2bc>
    9670:	e59f2208 	ldr	r2, [pc, #520]	; 9880 <va_printk+0x2c0>
    9674:	e3a03095 	mov	r3, #149	; 0x95
    9678:	ebfffef5 	bl	9254 <printk>
    967c:	eb00008c 	bl	98b4 <clean_reboot>
    9680:	e2455062 	sub	r5, r5, #98	; 0x62
    9684:	e3550016 	cmp	r5, #22
    9688:	979ff105 	ldrls	pc, [pc, r5, lsl #2]
    968c:	ea000052 	b	97dc <va_printk+0x21c>
    9690:	00009780 	andeq	r9, r0, r0, lsl #15
    9694:	000097b4 			; <UNDEFINED> instruction: 0x000097b4
    9698:	00009708 	andeq	r9, r0, r8, lsl #14
    969c:	000097dc 	ldrdeq	r9, [r0], -ip
    96a0:	000096ec 	andeq	r9, r0, ip, ror #13
    96a4:	000097dc 	ldrdeq	r9, [r0], -ip
    96a8:	000097dc 	ldrdeq	r9, [r0], -ip
    96ac:	000097dc 	ldrdeq	r9, [r0], -ip
    96b0:	000097dc 	ldrdeq	r9, [r0], -ip
    96b4:	000097dc 	ldrdeq	r9, [r0], -ip
    96b8:	000097dc 	ldrdeq	r9, [r0], -ip
    96bc:	000097dc 	ldrdeq	r9, [r0], -ip
    96c0:	000097dc 	ldrdeq	r9, [r0], -ip
    96c4:	000097dc 	ldrdeq	r9, [r0], -ip
    96c8:	00009758 	andeq	r9, r0, r8, asr r7
    96cc:	000097dc 	ldrdeq	r9, [r0], -ip
    96d0:	000097dc 	ldrdeq	r9, [r0], -ip
    96d4:	000097a8 	andeq	r9, r0, r8, lsr #15
    96d8:	000097dc 	ldrdeq	r9, [r0], -ip
    96dc:	00009730 	andeq	r9, r0, r0, lsr r7
    96e0:	000097dc 	ldrdeq	r9, [r0], -ip
    96e4:	000097dc 	ldrdeq	r9, [r0], -ip
    96e8:	00009758 	andeq	r9, r0, r8, asr r7
    96ec:	ebfffef3 	bl	92c0 <rpi_reset_putc>
    96f0:	e59f018c 	ldr	r0, [pc, #396]	; 9884 <va_printk+0x2c4>
    96f4:	e59f1180 	ldr	r1, [pc, #384]	; 987c <va_printk+0x2bc>
    96f8:	e59f2180 	ldr	r2, [pc, #384]	; 9880 <va_printk+0x2c0>
    96fc:	e3a0309b 	mov	r3, #155	; 0x9b
    9700:	ebfffed3 	bl	9254 <printk>
    9704:	eb00006a 	bl	98b4 <clean_reboot>
    9708:	e59a3000 	ldr	r3, [sl]
    970c:	e28aa004 	add	sl, sl, #4
    9710:	e58d7000 	str	r7, [sp]
    9714:	e3a02001 	mov	r2, #1
    9718:	e58d2004 	str	r2, [sp, #4]
    971c:	e3a0000a 	mov	r0, #10
    9720:	e28d1010 	add	r1, sp, #16
    9724:	e3a02080 	mov	r2, #128	; 0x80
    9728:	ebffff1b 	bl	939c <emit>
    972c:	ea00003b 	b	9820 <va_printk+0x260>
    9730:	e59a3000 	ldr	r3, [sl]
    9734:	e28aa004 	add	sl, sl, #4
    9738:	e58d7000 	str	r7, [sp]
    973c:	e3a02000 	mov	r2, #0
    9740:	e58d2004 	str	r2, [sp, #4]
    9744:	e3a0000a 	mov	r0, #10
    9748:	e28d1010 	add	r1, sp, #16
    974c:	e3a02080 	mov	r2, #128	; 0x80
    9750:	ebffff11 	bl	939c <emit>
    9754:	ea000031 	b	9820 <va_printk+0x260>
    9758:	e59a3000 	ldr	r3, [sl]
    975c:	e28aa004 	add	sl, sl, #4
    9760:	e58d7000 	str	r7, [sp]
    9764:	e3a02000 	mov	r2, #0
    9768:	e58d2004 	str	r2, [sp, #4]
    976c:	e3a00010 	mov	r0, #16
    9770:	e08d1000 	add	r1, sp, r0
    9774:	e3a02080 	mov	r2, #128	; 0x80
    9778:	ebffff07 	bl	939c <emit>
    977c:	ea000027 	b	9820 <va_printk+0x260>
    9780:	e59a3000 	ldr	r3, [sl]
    9784:	e28aa004 	add	sl, sl, #4
    9788:	e58d7000 	str	r7, [sp]
    978c:	e3a02000 	mov	r2, #0
    9790:	e58d2004 	str	r2, [sp, #4]
    9794:	e3a00002 	mov	r0, #2
    9798:	e28d1010 	add	r1, sp, #16
    979c:	e3a02080 	mov	r2, #128	; 0x80
    97a0:	ebfffefd 	bl	939c <emit>
    97a4:	ea00001d 	b	9820 <va_printk+0x260>
    97a8:	e59a0000 	ldr	r0, [sl]
    97ac:	e28aa004 	add	sl, sl, #4
    97b0:	ea00001a 	b	9820 <va_printk+0x260>
    97b4:	e59a3000 	ldr	r3, [sl]
    97b8:	e28aa004 	add	sl, sl, #4
    97bc:	e58d7000 	str	r7, [sp]
    97c0:	e3a02000 	mov	r2, #0
    97c4:	e58d2004 	str	r2, [sp, #4]
    97c8:	e3a00008 	mov	r0, #8
    97cc:	e28d1010 	add	r1, sp, #16
    97d0:	e3a02080 	mov	r2, #128	; 0x80
    97d4:	ebfffef0 	bl	939c <emit>
    97d8:	ea000010 	b	9820 <va_printk+0x260>
    97dc:	e3a03000 	mov	r3, #0
    97e0:	e5c63001 	strb	r3, [r6, #1]
    97e4:	e59f009c 	ldr	r0, [pc, #156]	; 9888 <va_printk+0x2c8>
    97e8:	e1a01009 	mov	r1, r9
    97ec:	e1a02009 	mov	r2, r9
    97f0:	ebfffe97 	bl	9254 <printk>
    97f4:	e59f3090 	ldr	r3, [pc, #144]	; 988c <va_printk+0x2cc>
    97f8:	e5933000 	ldr	r3, [r3]
    97fc:	e59d000c 	ldr	r0, [sp, #12]
    9800:	e12fff33 	blx	r3
    9804:	ebfffead 	bl	92c0 <rpi_reset_putc>
    9808:	e59f0080 	ldr	r0, [pc, #128]	; 9890 <va_printk+0x2d0>
    980c:	e59f1068 	ldr	r1, [pc, #104]	; 987c <va_printk+0x2bc>
    9810:	e59f2068 	ldr	r2, [pc, #104]	; 9880 <va_printk+0x2c0>
    9814:	e3a030bf 	mov	r3, #191	; 0xbf
    9818:	ebfffe8d 	bl	9254 <printk>
    981c:	eb000024 	bl	98b4 <clean_reboot>
    9820:	e2866001 	add	r6, r6, #1
    9824:	ea000002 	b	9834 <va_printk+0x274>
    9828:	e2800001 	add	r0, r0, #1
    982c:	e5c43000 	strb	r3, [r4]
    9830:	e2844001 	add	r4, r4, #1
    9834:	e1540008 	cmp	r4, r8
    9838:	2a000002 	bcs	9848 <va_printk+0x288>
    983c:	e5d03000 	ldrb	r3, [r0]
    9840:	e3530000 	cmp	r3, #0
    9844:	1afffff7 	bne	9828 <va_printk+0x268>
    9848:	e5d63000 	ldrb	r3, [r6]
    984c:	e3530000 	cmp	r3, #0
    9850:	0a000001 	beq	985c <va_printk+0x29c>
    9854:	e1540008 	cmp	r4, r8
    9858:	3affff64 	bcc	95f0 <va_printk+0x30>
    985c:	e2840001 	add	r0, r4, #1
    9860:	e3a03000 	mov	r3, #0
    9864:	e5c43000 	strb	r3, [r4]
    9868:	e06b0000 	rsb	r0, fp, r0
    986c:	e28dd094 	add	sp, sp, #148	; 0x94
    9870:	e8bd8ff0 	pop	{r4, r5, r6, r7, r8, r9, sl, fp, pc}
    9874:	0000a60c 	andeq	sl, r0, ip, lsl #12
    9878:	00009f40 	andeq	r9, r0, r0, asr #30
    987c:	0000a5c8 	andeq	sl, r0, r8, asr #11
    9880:	0000a5bc 			; <UNDEFINED> instruction: 0x0000a5bc
    9884:	0000a618 	andeq	sl, r0, r8, lsl r6
    9888:	0000a640 	andeq	sl, r0, r0, asr #12
    988c:	00009e64 	andeq	r9, r0, r4, ror #28
    9890:	0000a670 	andeq	sl, r0, r0, ror r6

00009894 <enable_cache>:
    9894:	ee113f10 	mrc	15, 0, r3, cr1, cr0, {0}
    9898:	e3833b06 	orr	r3, r3, #6144	; 0x1800
    989c:	ee013f10 	mcr	15, 0, r3, cr1, cr0, {0}
    98a0:	e12fff1e 	bx	lr

000098a4 <disable_cache>:
    98a4:	ee113f10 	mrc	15, 0, r3, cr1, cr0, {0}
    98a8:	e3c33b06 	bic	r3, r3, #6144	; 0x1800
    98ac:	ee013f10 	mcr	15, 0, r3, cr1, cr0, {0}
    98b0:	e12fff1e 	bx	lr

000098b4 <clean_reboot>:
    98b4:	e92d4008 	push	{r3, lr}
    98b8:	eb00004a 	bl	99e8 <reboot_handler>
    98bc:	e59f3014 	ldr	r3, [pc, #20]	; 98d8 <clean_reboot+0x24>
    98c0:	e5933000 	ldr	r3, [r3]
    98c4:	e59f0010 	ldr	r0, [pc, #16]	; 98dc <clean_reboot+0x28>
    98c8:	e12fff33 	blx	r3
    98cc:	e3a00064 	mov	r0, #100	; 0x64
    98d0:	eb000099 	bl	9b3c <delay_ms>
    98d4:	eb00006a 	bl	9a84 <rpi_reboot>
    98d8:	00009e64 	andeq	r9, r0, r4, ror #28
    98dc:	0000a690 	muleq	r0, r0, r6

000098e0 <_cstart>:
    98e0:	e92d4008 	push	{r3, lr}
    98e4:	e59f3024 	ldr	r3, [pc, #36]	; 9910 <_cstart+0x30>
    98e8:	e59f2024 	ldr	r2, [pc, #36]	; 9914 <_cstart+0x34>
    98ec:	e3a01000 	mov	r1, #0
    98f0:	ea000001 	b	98fc <_cstart+0x1c>
    98f4:	e5831000 	str	r1, [r3]
    98f8:	e2833004 	add	r3, r3, #4
    98fc:	e1530002 	cmp	r3, r2
    9900:	3afffffb 	bcc	98f4 <_cstart+0x14>
    9904:	eb000036 	bl	99e4 <cstart_handler>
    9908:	ebfffb02 	bl	8518 <notmain>
    990c:	ebffffe8 	bl	98b4 <clean_reboot>
    9910:	0000a7b4 			; <UNDEFINED> instruction: 0x0000a7b4
    9914:	0000cbf0 	strdeq	ip, [r0], -r0

00009918 <fast_interrupt_vector>:
    9918:	e52de004 	push	{lr}		; (str lr, [sp, #-4]!)
    991c:	e24dd00c 	sub	sp, sp, #12
    9920:	e1a04000 	mov	r4, r0
    9924:	ebfffe65 	bl	92c0 <rpi_reset_putc>
    9928:	e59f301c 	ldr	r3, [pc, #28]	; 994c <fast_interrupt_vector+0x34>
    992c:	e58d3000 	str	r3, [sp]
    9930:	e58d4004 	str	r4, [sp, #4]
    9934:	e59f0014 	ldr	r0, [pc, #20]	; 9950 <fast_interrupt_vector+0x38>
    9938:	e59f1014 	ldr	r1, [pc, #20]	; 9954 <fast_interrupt_vector+0x3c>
    993c:	e59f2014 	ldr	r2, [pc, #20]	; 9958 <fast_interrupt_vector+0x40>
    9940:	e3a03002 	mov	r3, #2
    9944:	ebfffe42 	bl	9254 <printk>
    9948:	ebffffd9 	bl	98b4 <clean_reboot>
    994c:	0000a714 	andeq	sl, r0, r4, lsl r7
    9950:	0000a6b4 			; <UNDEFINED> instruction: 0x0000a6b4
    9954:	0000a6f0 	strdeq	sl, [r0], -r0
    9958:	0000a69c 	muleq	r0, ip, r6

0000995c <reset_vector>:
    995c:	e52de004 	push	{lr}		; (str lr, [sp, #-4]!)
    9960:	e24dd00c 	sub	sp, sp, #12
    9964:	e1a04000 	mov	r4, r0
    9968:	ebfffe54 	bl	92c0 <rpi_reset_putc>
    996c:	e59f301c 	ldr	r3, [pc, #28]	; 9990 <reset_vector+0x34>
    9970:	e58d3000 	str	r3, [sp]
    9974:	e58d4004 	str	r4, [sp, #4]
    9978:	e59f0014 	ldr	r0, [pc, #20]	; 9994 <reset_vector+0x38>
    997c:	e59f1014 	ldr	r1, [pc, #20]	; 9998 <reset_vector+0x3c>
    9980:	e59f2014 	ldr	r2, [pc, #20]	; 999c <reset_vector+0x40>
    9984:	e3a03002 	mov	r3, #2
    9988:	ebfffe31 	bl	9254 <printk>
    998c:	ebffffc8 	bl	98b4 <clean_reboot>
    9990:	0000a750 	andeq	sl, r0, r0, asr r7
    9994:	0000a6b4 			; <UNDEFINED> instruction: 0x0000a6b4
    9998:	0000a72c 	andeq	sl, r0, ip, lsr #14
    999c:	0000a71c 	andeq	sl, r0, ip, lsl r7

000099a0 <undefined_instruction_vector>:
    99a0:	e52de004 	push	{lr}		; (str lr, [sp, #-4]!)
    99a4:	e24dd00c 	sub	sp, sp, #12
    99a8:	e1a04000 	mov	r4, r0
    99ac:	ebfffe43 	bl	92c0 <rpi_reset_putc>
    99b0:	e59f301c 	ldr	r3, [pc, #28]	; 99d4 <undefined_instruction_vector+0x34>
    99b4:	e58d3000 	str	r3, [sp]
    99b8:	e58d4004 	str	r4, [sp, #4]
    99bc:	e59f0014 	ldr	r0, [pc, #20]	; 99d8 <undefined_instruction_vector+0x38>
    99c0:	e59f1014 	ldr	r1, [pc, #20]	; 99dc <undefined_instruction_vector+0x3c>
    99c4:	e59f2014 	ldr	r2, [pc, #20]	; 99e0 <undefined_instruction_vector+0x40>
    99c8:	e3a03002 	mov	r3, #2
    99cc:	ebfffe20 	bl	9254 <printk>
    99d0:	ebffffb7 	bl	98b4 <clean_reboot>
    99d4:	0000a7a4 	andeq	sl, r0, r4, lsr #15
    99d8:	0000a6b4 			; <UNDEFINED> instruction: 0x0000a6b4
    99dc:	0000a778 	andeq	sl, r0, r8, ror r7
    99e0:	0000a758 	andeq	sl, r0, r8, asr r7

000099e4 <cstart_handler>:
    99e4:	e12fff1e 	bx	lr

000099e8 <reboot_handler>:
    99e8:	e12fff1e 	bx	lr

000099ec <int_init>:
    99ec:	e92d4008 	push	{r3, lr}
    99f0:	eb00005b 	bl	9b64 <dev_barrier>
    99f4:	e59f004c 	ldr	r0, [pc, #76]	; 9a48 <int_init+0x5c>
    99f8:	e3e01000 	mvn	r1, #0
    99fc:	eb000060 	bl	9b84 <PUT32>
    9a00:	e59f0044 	ldr	r0, [pc, #68]	; 9a4c <int_init+0x60>
    9a04:	e3e01000 	mvn	r1, #0
    9a08:	eb00005d 	bl	9b84 <PUT32>
    9a0c:	eb000054 	bl	9b64 <dev_barrier>
    9a10:	e59f3038 	ldr	r3, [pc, #56]	; 9a50 <int_init+0x64>
    9a14:	e59f0038 	ldr	r0, [pc, #56]	; 9a54 <int_init+0x68>
    9a18:	e0630000 	rsb	r0, r3, r0
    9a1c:	e1a00140 	asr	r0, r0, #2
    9a20:	e3a03000 	mov	r3, #0
    9a24:	e59fc024 	ldr	ip, [pc, #36]	; 9a50 <int_init+0x64>
    9a28:	ea000003 	b	9a3c <int_init+0x50>
    9a2c:	e1a02103 	lsl	r2, r3, #2
    9a30:	e79c1103 	ldr	r1, [ip, r3, lsl #2]
    9a34:	e5821000 	str	r1, [r2]
    9a38:	e2833001 	add	r3, r3, #1
    9a3c:	e1530000 	cmp	r3, r0
    9a40:	3afffff9 	bcc	9a2c <int_init+0x40>
    9a44:	e8bd8008 	pop	{r3, pc}
    9a48:	2000b21c 	andcs	fp, r0, ip, lsl r2
    9a4c:	2000b220 	andcs	fp, r0, r0, lsr #4
    9a50:	00008978 	andeq	r8, r0, r8, ror r9
    9a54:	000089b8 			; <UNDEFINED> instruction: 0x000089b8

00009a58 <at_user_level>:
    9a58:	e10f0000 	mrs	r0, CPSR
    9a5c:	e200001f 	and	r0, r0, #31
    9a60:	e3500010 	cmp	r0, #16
    9a64:	13a00000 	movne	r0, #0
    9a68:	03a00001 	moveq	r0, #1
    9a6c:	e12fff1e 	bx	lr

00009a70 <set_user_level>:
    9a70:	e10f3000 	mrs	r3, CPSR
    9a74:	e3c3301f 	bic	r3, r3, #31
    9a78:	e3833010 	orr	r3, r3, #16
    9a7c:	e129f003 	msr	CPSR_fc, r3
    9a80:	e12fff1e 	bx	lr

00009a84 <rpi_reboot>:
    9a84:	e92d4008 	push	{r3, lr}
    9a88:	ebfffff2 	bl	9a58 <at_user_level>
    9a8c:	e3500000 	cmp	r0, #0
    9a90:	0a000000 	beq	9a98 <rpi_reboot+0x14>
    9a94:	ebfffff5 	bl	9a70 <set_user_level>
    9a98:	e3a0001e 	mov	r0, #30
    9a9c:	eb000026 	bl	9b3c <delay_ms>
    9aa0:	e59f0014 	ldr	r0, [pc, #20]	; 9abc <rpi_reboot+0x38>
    9aa4:	e59f1014 	ldr	r1, [pc, #20]	; 9ac0 <rpi_reboot+0x3c>
    9aa8:	eb000035 	bl	9b84 <PUT32>
    9aac:	e59f0010 	ldr	r0, [pc, #16]	; 9ac4 <rpi_reboot+0x40>
    9ab0:	e59f1010 	ldr	r1, [pc, #16]	; 9ac8 <rpi_reboot+0x44>
    9ab4:	eb000032 	bl	9b84 <PUT32>
    9ab8:	eafffffe 	b	9ab8 <rpi_reboot+0x34>
    9abc:	20100024 	andscs	r0, r0, r4, lsr #32
    9ac0:	5a000001 	bpl	9acc <delay_cycles>
    9ac4:	2010001c 	andscs	r0, r0, ip, lsl r0
    9ac8:	5a000020 	bpl	9b50 <delay_sec>

00009acc <delay_cycles>:
    9acc:	ea000001 	b	9ad8 <delay_cycles+0xc>
    9ad0:	e2811000 	add	r1, r1, #0
    9ad4:	e1a00003 	mov	r0, r3
    9ad8:	e2403001 	sub	r3, r0, #1
    9adc:	e3500000 	cmp	r0, #0
    9ae0:	1afffffa 	bne	9ad0 <delay_cycles+0x4>
    9ae4:	e12fff1e 	bx	lr

00009ae8 <timer_get_usec_raw>:
    9ae8:	e92d4008 	push	{r3, lr}
    9aec:	e59f0004 	ldr	r0, [pc, #4]	; 9af8 <timer_get_usec_raw+0x10>
    9af0:	eb00002f 	bl	9bb4 <GET32>
    9af4:	e8bd8008 	pop	{r3, pc}
    9af8:	20003004 	andcs	r3, r0, r4

00009afc <timer_get_usec>:
    9afc:	e92d4010 	push	{r4, lr}
    9b00:	eb000017 	bl	9b64 <dev_barrier>
    9b04:	ebfffff7 	bl	9ae8 <timer_get_usec_raw>
    9b08:	e1a04000 	mov	r4, r0
    9b0c:	eb000014 	bl	9b64 <dev_barrier>
    9b10:	e1a00004 	mov	r0, r4
    9b14:	e8bd8010 	pop	{r4, pc}

00009b18 <delay_us>:
    9b18:	e92d4038 	push	{r3, r4, r5, lr}
    9b1c:	e1a05000 	mov	r5, r0
    9b20:	ebfffff5 	bl	9afc <timer_get_usec>
    9b24:	e1a04000 	mov	r4, r0
    9b28:	ebfffff3 	bl	9afc <timer_get_usec>
    9b2c:	e0640000 	rsb	r0, r4, r0
    9b30:	e1500005 	cmp	r0, r5
    9b34:	3afffffb 	bcc	9b28 <delay_us+0x10>
    9b38:	e8bd8038 	pop	{r3, r4, r5, pc}

00009b3c <delay_ms>:
    9b3c:	e92d4008 	push	{r3, lr}
    9b40:	e3a03ffa 	mov	r3, #1000	; 0x3e8
    9b44:	e0000093 	mul	r0, r3, r0
    9b48:	ebfffff2 	bl	9b18 <delay_us>
    9b4c:	e8bd8008 	pop	{r3, pc}

00009b50 <delay_sec>:
    9b50:	e92d4008 	push	{r3, lr}
    9b54:	e3a03ffa 	mov	r3, #1000	; 0x3e8
    9b58:	e0000093 	mul	r0, r3, r0
    9b5c:	ebfffff6 	bl	9b3c <delay_ms>
    9b60:	e8bd8008 	pop	{r3, pc}

00009b64 <dev_barrier>:
    9b64:	ea000002 	b	9b74 <dsb>

00009b68 <dmb>:
    9b68:	e3a00000 	mov	r0, #0
    9b6c:	ee070fba 	mcr	15, 0, r0, cr7, cr10, {5}
    9b70:	e12fff1e 	bx	lr

00009b74 <dsb>:
    9b74:	ee070f9a 	mcr	15, 0, r0, cr7, cr10, {4}
    9b78:	e12fff1e 	bx	lr

00009b7c <put32>:
    9b7c:	e5801000 	str	r1, [r0]
    9b80:	e12fff1e 	bx	lr

00009b84 <PUT32>:
    9b84:	e5801000 	str	r1, [r0]
    9b88:	e12fff1e 	bx	lr

00009b8c <put16>:
    9b8c:	e1c010b0 	strh	r1, [r0]
    9b90:	e12fff1e 	bx	lr

00009b94 <PUT16>:
    9b94:	e1c010b0 	strh	r1, [r0]
    9b98:	e12fff1e 	bx	lr

00009b9c <put8>:
    9b9c:	e5c01000 	strb	r1, [r0]
    9ba0:	e12fff1e 	bx	lr

00009ba4 <PUT8>:
    9ba4:	e5c01000 	strb	r1, [r0]
    9ba8:	e12fff1e 	bx	lr

00009bac <get32>:
    9bac:	e5900000 	ldr	r0, [r0]
    9bb0:	e12fff1e 	bx	lr

00009bb4 <GET32>:
    9bb4:	e5900000 	ldr	r0, [r0]
    9bb8:	e12fff1e 	bx	lr

00009bbc <GETPC>:
    9bbc:	e1a0000e 	mov	r0, lr
    9bc0:	e12fff1e 	bx	lr

00009bc4 <dummy>:
    9bc4:	e12fff1e 	bx	lr

00009bc8 <or_in32>:
    9bc8:	e92d4070 	push	{r4, r5, r6, lr}
    9bcc:	e1a04000 	mov	r4, r0
    9bd0:	e1a05001 	mov	r5, r1
    9bd4:	ebfffff4 	bl	9bac <get32>
    9bd8:	e1801005 	orr	r1, r0, r5
    9bdc:	e1a00004 	mov	r0, r4
    9be0:	ebffffe5 	bl	9b7c <put32>
    9be4:	e8bd8070 	pop	{r4, r5, r6, pc}

00009be8 <uart_init>:
    9be8:	e92d4010 	push	{r4, lr}
    9bec:	e3a01002 	mov	r1, #2
    9bf0:	e3a0000e 	mov	r0, #14
    9bf4:	eb000051 	bl	9d40 <gpio_set_function>
    9bf8:	e3a01002 	mov	r1, #2
    9bfc:	e3a0000f 	mov	r0, #15
    9c00:	eb00004e 	bl	9d40 <gpio_set_function>
    9c04:	ebffffd6 	bl	9b64 <dev_barrier>
    9c08:	e3a01001 	mov	r1, #1
    9c0c:	e59f0064 	ldr	r0, [pc, #100]	; 9c78 <uart_init+0x90>
    9c10:	ebffffec 	bl	9bc8 <or_in32>
    9c14:	ebffffd2 	bl	9b64 <dev_barrier>
    9c18:	e59f405c 	ldr	r4, [pc, #92]	; 9c7c <uart_init+0x94>
    9c1c:	e3a01000 	mov	r1, #0
    9c20:	e1a00004 	mov	r0, r4
    9c24:	ebffffd4 	bl	9b7c <put32>
    9c28:	e3a01000 	mov	r1, #0
    9c2c:	e59f004c 	ldr	r0, [pc, #76]	; 9c80 <uart_init+0x98>
    9c30:	ebffffd1 	bl	9b7c <put32>
    9c34:	e3a01003 	mov	r1, #3
    9c38:	e59f0044 	ldr	r0, [pc, #68]	; 9c84 <uart_init+0x9c>
    9c3c:	ebffffce 	bl	9b7c <put32>
    9c40:	e3a01000 	mov	r1, #0
    9c44:	e59f003c 	ldr	r0, [pc, #60]	; 9c88 <uart_init+0xa0>
    9c48:	ebffffcb 	bl	9b7c <put32>
    9c4c:	e3a010c7 	mov	r1, #199	; 0xc7
    9c50:	e59f0034 	ldr	r0, [pc, #52]	; 9c8c <uart_init+0xa4>
    9c54:	ebffffc8 	bl	9b7c <put32>
    9c58:	e59f1030 	ldr	r1, [pc, #48]	; 9c90 <uart_init+0xa8>
    9c5c:	e59f0030 	ldr	r0, [pc, #48]	; 9c94 <uart_init+0xac>
    9c60:	ebffffc5 	bl	9b7c <put32>
    9c64:	e3a01003 	mov	r1, #3
    9c68:	e1a00004 	mov	r0, r4
    9c6c:	ebffffc2 	bl	9b7c <put32>
    9c70:	ebffffbb 	bl	9b64 <dev_barrier>
    9c74:	e8bd8010 	pop	{r4, pc}
    9c78:	20215004 	eorcs	r5, r1, r4
    9c7c:	20215060 	eorcs	r5, r1, r0, rrx
    9c80:	20215044 	eorcs	r5, r1, r4, asr #32
    9c84:	2021504c 	eorcs	r5, r1, ip, asr #32
    9c88:	20215050 	eorcs	r5, r1, r0, asr r0
    9c8c:	20215048 	eorcs	r5, r1, r8, asr #32
    9c90:	0000010e 	andeq	r0, r0, lr, lsl #2
    9c94:	20215068 	eorcs	r5, r1, r8, rrx

00009c98 <uart_can_getc>:
    9c98:	e92d4010 	push	{r4, lr}
    9c9c:	e59f0008 	ldr	r0, [pc, #8]	; 9cac <uart_can_getc+0x14>
    9ca0:	ebffffc1 	bl	9bac <get32>
    9ca4:	e2000001 	and	r0, r0, #1
    9ca8:	e8bd8010 	pop	{r4, pc}
    9cac:	20215064 	eorcs	r5, r1, r4, rrx

00009cb0 <uart_can_putc>:
    9cb0:	e92d4010 	push	{r4, lr}
    9cb4:	e59f0010 	ldr	r0, [pc, #16]	; 9ccc <uart_can_putc+0x1c>
    9cb8:	ebffffbb 	bl	9bac <get32>
    9cbc:	e3100002 	tst	r0, #2
    9cc0:	13a00001 	movne	r0, #1
    9cc4:	03a00000 	moveq	r0, #0
    9cc8:	e8bd8010 	pop	{r4, pc}
    9ccc:	20215064 	eorcs	r5, r1, r4, rrx

00009cd0 <uart_getc>:
    9cd0:	e92d4010 	push	{r4, lr}
    9cd4:	ebffffa2 	bl	9b64 <dev_barrier>
    9cd8:	ebffffee 	bl	9c98 <uart_can_getc>
    9cdc:	e3500000 	cmp	r0, #0
    9ce0:	0afffffc 	beq	9cd8 <uart_getc+0x8>
    9ce4:	e59f0010 	ldr	r0, [pc, #16]	; 9cfc <uart_getc+0x2c>
    9ce8:	ebffffaf 	bl	9bac <get32>
    9cec:	e6ef4070 	uxtb	r4, r0
    9cf0:	ebffff9b 	bl	9b64 <dev_barrier>
    9cf4:	e1a00004 	mov	r0, r4
    9cf8:	e8bd8010 	pop	{r4, pc}
    9cfc:	20215040 	eorcs	r5, r1, r0, asr #32

00009d00 <uart_putc>:
    9d00:	e92d4010 	push	{r4, lr}
    9d04:	e1a04000 	mov	r4, r0
    9d08:	ebffff95 	bl	9b64 <dev_barrier>
    9d0c:	ebffffe7 	bl	9cb0 <uart_can_putc>
    9d10:	e3500000 	cmp	r0, #0
    9d14:	0afffffc 	beq	9d0c <uart_putc+0xc>
    9d18:	e6ef1074 	uxtb	r1, r4
    9d1c:	e59f0008 	ldr	r0, [pc, #8]	; 9d2c <uart_putc+0x2c>
    9d20:	ebffff95 	bl	9b7c <put32>
    9d24:	ebffff8e 	bl	9b64 <dev_barrier>
    9d28:	e8bd8010 	pop	{r4, pc}
    9d2c:	20215040 	eorcs	r5, r1, r0, asr #32

00009d30 <uart_has_data>:
    9d30:	e92d4010 	push	{r4, lr}
    9d34:	ebffff8a 	bl	9b64 <dev_barrier>
    9d38:	ebffffd6 	bl	9c98 <uart_can_getc>
    9d3c:	e8bd8010 	pop	{r4, pc}

00009d40 <gpio_set_function>:
    9d40:	e350001f 	cmp	r0, #31
    9d44:	812fff1e 	bxhi	lr
    9d48:	e3d13007 	bics	r3, r1, #7
    9d4c:	112fff1e 	bxne	lr
    9d50:	e92d4070 	push	{r4, r5, r6, lr}
    9d54:	e1a05001 	mov	r5, r1
    9d58:	e59f3044 	ldr	r3, [pc, #68]	; 9da4 <gpio_set_function+0x64>
    9d5c:	e0832093 	umull	r2, r3, r3, r0
    9d60:	e1a031a3 	lsr	r3, r3, #3
    9d64:	e1a06003 	mov	r6, r3
    9d68:	e0833103 	add	r3, r3, r3, lsl #2
    9d6c:	e1a02083 	lsl	r2, r3, #1
    9d70:	e0403002 	sub	r3, r0, r2
    9d74:	e0834083 	add	r4, r3, r3, lsl #1
    9d78:	e2866302 	add	r6, r6, #134217728	; 0x8000000
    9d7c:	e2866702 	add	r6, r6, #524288	; 0x80000
    9d80:	e1a06106 	lsl	r6, r6, #2
    9d84:	e1a00006 	mov	r0, r6
    9d88:	ebffff89 	bl	9bb4 <GET32>
    9d8c:	e3a01007 	mov	r1, #7
    9d90:	e1c01411 	bic	r1, r0, r1, lsl r4
    9d94:	e1811415 	orr	r1, r1, r5, lsl r4
    9d98:	e1a00006 	mov	r0, r6
    9d9c:	ebffff78 	bl	9b84 <PUT32>
    9da0:	e8bd8070 	pop	{r4, r5, r6, pc}
    9da4:	cccccccd 	stclgt	12, cr12, [ip], {205}	; 0xcd

00009da8 <gpio_set_output>:
    9da8:	e92d4010 	push	{r4, lr}
    9dac:	e3a01001 	mov	r1, #1
    9db0:	ebffffe2 	bl	9d40 <gpio_set_function>
    9db4:	e8bd8010 	pop	{r4, pc}

00009db8 <gpio_set_on>:
    9db8:	e350001f 	cmp	r0, #31
    9dbc:	812fff1e 	bxhi	lr
    9dc0:	e92d4010 	push	{r4, lr}
    9dc4:	e3a01001 	mov	r1, #1
    9dc8:	e1a01011 	lsl	r1, r1, r0
    9dcc:	e59f0004 	ldr	r0, [pc, #4]	; 9dd8 <gpio_set_on+0x20>
    9dd0:	ebffff6b 	bl	9b84 <PUT32>
    9dd4:	e8bd8010 	pop	{r4, pc}
    9dd8:	2020001c 	eorcs	r0, r0, ip, lsl r0

00009ddc <gpio_set_off>:
    9ddc:	e350001f 	cmp	r0, #31
    9de0:	812fff1e 	bxhi	lr
    9de4:	e92d4010 	push	{r4, lr}
    9de8:	e3a01001 	mov	r1, #1
    9dec:	e1a01011 	lsl	r1, r1, r0
    9df0:	e59f0004 	ldr	r0, [pc, #4]	; 9dfc <gpio_set_off+0x20>
    9df4:	ebffff62 	bl	9b84 <PUT32>
    9df8:	e8bd8010 	pop	{r4, pc}
    9dfc:	20200028 	eorcs	r0, r0, r8, lsr #32

00009e00 <gpio_set_input>:
    9e00:	e92d4010 	push	{r4, lr}
    9e04:	e3a01000 	mov	r1, #0
    9e08:	ebffffcc 	bl	9d40 <gpio_set_function>
    9e0c:	e8bd8010 	pop	{r4, pc}

00009e10 <gpio_write>:
    9e10:	e92d4010 	push	{r4, lr}
    9e14:	e3510000 	cmp	r1, #0
    9e18:	1a000001 	bne	9e24 <gpio_write+0x14>
    9e1c:	ebffffee 	bl	9ddc <gpio_set_off>
    9e20:	e8bd8010 	pop	{r4, pc}
    9e24:	ebffffe3 	bl	9db8 <gpio_set_on>
    9e28:	e8bd8010 	pop	{r4, pc}

00009e2c <gpio_read>:
    9e2c:	e350001f 	cmp	r0, #31
    9e30:	8a000007 	bhi	9e54 <gpio_read+0x28>
    9e34:	e92d4010 	push	{r4, lr}
    9e38:	e200401f 	and	r4, r0, #31
    9e3c:	e59f3018 	ldr	r3, [pc, #24]	; 9e5c <gpio_read+0x30>
    9e40:	e08302a0 	add	r0, r3, r0, lsr #5
    9e44:	ebffff5a 	bl	9bb4 <GET32>
    9e48:	e1a00430 	lsr	r0, r0, r4
    9e4c:	e2000001 	and	r0, r0, #1
    9e50:	e8bd8010 	pop	{r4, pc}
    9e54:	e3e00000 	mvn	r0, #0
    9e58:	e12fff1e 	bx	lr
    9e5c:	20200034 	eorcs	r0, r0, r4, lsr r0

Disassembly of section .data:

00009e60 <__data_start__>:
    9e60:	000092ac 	andeq	r9, r0, ip, lsr #5

00009e64 <putk>:
    9e64:	000092e8 	andeq	r9, r0, r8, ror #5

Disassembly of section .rodata:

00009e68 <C.0.4499-0x1f0>:
    9e68:	494e4150 	stmdbmi	lr, {r4, r6, r8, lr}^
    9e6c:	73253a43 	teqvc	r5, #274432	; 0x43000
    9e70:	3a73253a 	bcc	1cd3360 <__bss_end__+0x1cc6770>
    9e74:	633a6425 	teqvs	sl, #620756992	; 0x25000000
    9e78:	646c756f 	strbtvs	r7, [ip], #-1391	; 0x56f
    9e7c:	746f6e20 	strbtvc	r6, [pc], #-3616	; 9e84 <__data_end__+0x1c>
    9e80:	73757020 	cmnvc	r5, #32
    9e84:	0a3f3f68 	beq	fd9c2c <__bss_end__+0xfcd03c>
    9e88:	0000000a 	andeq	r0, r0, sl
    9e8c:	74736574 	ldrbtvc	r6, [r3], #-1396	; 0x574
    9e90:	302e3273 	eorcc	r3, lr, r3, ror r2
    9e94:	2d36312f 	ldfcss	f3, [r6, #-188]!	; 0xffffff44
    9e98:	74726170 	ldrbtvc	r6, [r2], #-368	; 0x170
    9e9c:	65742d32 	ldrbvs	r2, [r4, #-3378]!	; 0xd32
    9ea0:	2e357473 	mrccs	4, 1, r7, cr5, cr3, {3}
    9ea4:	00000063 	andeq	r0, r0, r3, rrx
    9ea8:	494e4150 	stmdbmi	lr, {r4, r6, r8, lr}^
    9eac:	73253a43 	teqvc	r5, #274432	; 0x43000
    9eb0:	3a73253a 	bcc	1cd33a0 <__bss_end__+0x1cc67b0>
    9eb4:	773a6425 	ldrvc	r6, [sl, -r5, lsr #8]!
    9eb8:	206c6c69 	rsbcs	r6, ip, r9, ror #24
    9ebc:	64616564 	strbtvs	r6, [r1], #-1380	; 0x564
    9ec0:	6b636f6c 	blvs	18e5c78 <__bss_end__+0x18d9088>
    9ec4:	6e69203a 	mcrvs	0, 3, r2, cr9, cr10, {1}
    9ec8:	72726574 	rsbsvc	r6, r2, #116, 10	; 0x1d000000
    9ecc:	73747075 	cmnvc	r4, #117	; 0x75
    9ed0:	746f6e20 	strbtvc	r6, [pc], #-3616	; 9ed8 <__data_end__+0x70>
    9ed4:	616e6520 	cmnvs	lr, r0, lsr #10
    9ed8:	64656c62 	strbtvs	r6, [r5], #-3170	; 0xc62
    9edc:	49465b20 	stmdbmi	r6, {r5, r8, r9, fp, ip, lr}^
    9ee0:	5d454d58 	stclpl	13, cr4, [r5, #-352]	; 0xfffffea0
    9ee4:	00000a0a 	andeq	r0, r0, sl, lsl #20
    9ee8:	6573552f 	ldrbvs	r5, [r3, #-1327]!	; 0x52f
    9eec:	622f7372 	eorvs	r7, pc, #-939524095	; 0xc8000001
    9ef0:	6e616972 	mcrvs	9, 3, r6, cr1, cr2, {3}
    9ef4:	2f6e756a 	svccs	0x006e756a
    9ef8:	6b736544 	blvs	1ce3410 <__bss_end__+0x1cd6820>
    9efc:	2f706f74 	svccs	0x00706f74
    9f00:	6f686373 	svcvs	0x00686373
    9f04:	532f6c6f 	teqpl	pc, #28416	; 0x6f00
    9f08:	6e697270 	mcrvs	2, 3, r7, cr9, cr0, {3}
    9f0c:	32393167 	eorscc	r3, r9, #-1073741799	; 0xc0000019
    9f10:	53432f30 	movtpl	r2, #16176	; 0x3f30
    9f14:	4c303432 	cfldrsmi	mvf3, [r0], #-200	; 0xffffff38
    9f18:	73632f58 	cmnvc	r3, #88, 30	; 0x160
    9f1c:	6c303432 	cfldrsvs	mvf3, [r0], #-200	; 0xffffff38
    9f20:	30322d78 	eorscc	r2, r2, r8, ror sp
    9f24:	2f727073 	svccs	0x00727073
    9f28:	7062696c 	rsbvc	r6, r2, ip, ror #18
    9f2c:	696c2f69 	stmdbvs	ip!, {r0, r3, r5, r6, r8, r9, sl, fp, sp}^
    9f30:	632f6362 	teqvs	pc, #-2013265919	; 0x88000001
    9f34:	75637269 	strbvc	r7, [r3, #-617]!	; 0x269
    9f38:	2e72616c 	rpwcssz	f6, f2, #4.0
    9f3c:	00000068 	andeq	r0, r0, r8, rrx
    9f40:	494e4150 	stmdbmi	lr, {r4, r6, r8, lr}^
    9f44:	73253a43 	teqvc	r5, #274432	; 0x43000
    9f48:	3a73253a 	bcc	1cd3438 <__bss_end__+0x1cc6848>
    9f4c:	253a6425 	ldrcs	r6, [sl, #-1061]!	; 0x425
    9f50:	00000a73 	andeq	r0, r0, r3, ror sl
    9f54:	5f716321 	svcpl	0x00716321
    9f58:	656c656e 	strbvs	r6, [ip, #-1390]!	; 0x56e
    9f5c:	6326286d 	teqvs	r6, #7143424	; 0x6d0000
    9f60:	00002971 	andeq	r2, r0, r1, ror r9
    9f64:	655f7163 	ldrbvs	r7, [pc, #-355]	; 9e09 <gpio_set_input+0x9>
    9f68:	7974706d 	ldmdbvc	r4!, {r0, r2, r3, r5, r6, ip, sp, lr}^
    9f6c:	00296328 	eoreq	r6, r9, r8, lsr #6
    9f70:	5f716321 	svcpl	0x00716321
    9f74:	6c6c7566 	cfstr64vs	mvdx7, [ip], #-408	; 0xfffffe68
    9f78:	00296328 	eoreq	r6, r9, r8, lsr #6
    9f7c:	6e5f7163 	rdfvsez	f7, f7, f3
    9f80:	6d656c65 	stclvs	12, cr6, [r5, #-404]!	; 0xfffffe6c
    9f84:	20296328 	eorcs	r6, r9, r8, lsr #6
    9f88:	30203d3d 	eorcc	r3, r0, sp, lsr sp
    9f8c:	00000000 	andeq	r0, r0, r0
    9f90:	705f7163 	subsvc	r7, pc, r3, ror #2
    9f94:	6e5f706f 	cdpvs	0, 5, cr7, cr15, cr15, {3}
    9f98:	6c626e6f 	stclvs	14, cr6, [r2], #-444	; 0xfffffe44
    9f9c:	286b636f 	stmdacs	fp!, {r0, r1, r2, r3, r5, r6, r8, r9, sp, lr}^
    9fa0:	65262c63 	strvs	r2, [r6, #-3171]!	; 0xc63
    9fa4:	3d3d2029 	ldccc	0, cr2, [sp, #-164]!	; 0xffffff5c
    9fa8:	26203020 	strtcs	r3, [r0], -r0, lsr #32
    9fac:	20652026 	rsbcs	r2, r5, r6, lsr #32
    9fb0:	30203d3d 	eorcc	r3, r0, sp, lsr sp
    9fb4:	00323178 	eorseq	r3, r2, r8, ror r1
    9fb8:	65707865 	ldrbvs	r7, [r0, #-2149]!	; 0x865
    9fbc:	64657463 	strbtvs	r7, [r5], #-1123	; 0x463
    9fc0:	3d20415f 	stfccs	f4, [r0, #-380]!	; 0xfffffe84
    9fc4:	7865203d 	stmdavc	r5!, {r0, r2, r3, r4, r5, sp}^
    9fc8:	74636570 	strbtvc	r6, [r3], #-1392	; 0x570
    9fcc:	425f6465 	subsmi	r6, pc, #1694498816	; 0x65000000
    9fd0:	00000000 	andeq	r0, r0, r0
    9fd4:	656e2e63 	strbvs	r2, [lr, #-3683]!	; 0xe63
    9fd8:	726f7272 	rsbvc	r7, pc, #536870919	; 0x20000007
    9fdc:	00000073 	andeq	r0, r0, r3, ror r0
    9fe0:	494e4150 	stmdbmi	lr, {r4, r6, r8, lr}^
    9fe4:	73253a43 	teqvc	r5, #274432	; 0x43000
    9fe8:	3a73253a 	bcc	1cd34d8 <__bss_end__+0x1cc68e8>
    9fec:	633a6425 	teqvs	sl, #620756992	; 0x25000000
    9ff0:	6b636568 	blvs	18e3598 <__bss_end__+0x18d69a8>
    9ff4:	6f687320 	svcvs	0x00687320
    9ff8:	20646c75 	rsbcs	r6, r4, r5, ror ip
    9ffc:	20746f6e 	rsbscs	r6, r4, lr, ror #30
    a000:	65766168 	ldrbvs	r6, [r6, #-360]!	; 0x168
    a004:	69616620 	stmdbvs	r1!, {r5, r9, sl, sp, lr}^
    a008:	2c64656c 	cfstr64cs	mvdx6, [r4], #-432	; 0xfffffe50
    a00c:	69727420 	ldmdbvs	r2!, {r5, sl, ip, sp, lr}^
    a010:	3d736c61 	ldclcc	12, cr6, [r3, #-388]!	; 0xfffffe7c
    a014:	202c6425 	eorcs	r6, ip, r5, lsr #8
    a018:	6f727265 	svcvs	0x00727265
    a01c:	253d7372 	ldrcs	r7, [sp, #-882]!	; 0x372
    a020:	0a212164 	beq	8525b8 <__bss_end__+0x8459c8>
    a024:	0000000a 	andeq	r0, r0, sl
    a028:	6e2e6321 	cdpvs	3, 2, cr6, cr14, cr1, {1}
    a02c:	6f727265 	svcvs	0x00727265
    a030:	00007372 	andeq	r7, r0, r2, ror r3
    a034:	43435553 	movtmi	r5, #13651	; 0x3553
    a038:	3a535345 	bcc	14ded54 <__bss_end__+0x14d2164>
    a03c:	00000000 	andeq	r0, r0, r0
    a040:	6b726f77 	blvs	1ca5e24 <__bss_end__+0x1c99234>
    a044:	20216465 	eorcs	r6, r1, r5, ror #8
    a048:	72746e20 	rsbsvc	r6, r4, #32, 28	; 0x200
    a04c:	736c6169 	cmnvc	ip, #1073741850	; 0x4000001a
    a050:	0a64253d 	beq	191354c <__bss_end__+0x190695c>
    a054:	00000000 	andeq	r0, r0, r0

0000a058 <C.0.4499>:
    a058:	00000000 	andeq	r0, r0, r0
    a05c:	00008020 	andeq	r8, r0, r0, lsr #32
    a060:	000080c8 	andeq	r8, r0, r8, asr #1
    a064:	0000822c 	andeq	r8, r0, ip, lsr #4
    a068:	00008438 	andeq	r8, r0, r8, lsr r4
	...

0000a090 <__FUNCTION__.4495>:
    a090:	63726963 	cmnvs	r2, #1622016	; 0x18c000
    a094:	68635f71 	stmdavs	r3!, {r0, r4, r5, r6, r8, r9, sl, fp, ip, lr}^
    a098:	006b6365 	rsbeq	r6, fp, r5, ror #6

0000a09c <__FUNCTION__.4475>:
    a09c:	695f7163 	ldmdbvs	pc, {r0, r1, r5, r6, r8, ip, sp, lr}^	; <UNPREDICTABLE>
    a0a0:	0074696e 	rsbseq	r6, r4, lr, ror #18

0000a0a4 <__FUNCTION__.4488>:
    a0a4:	63726963 	cmnvs	r2, #1622016	; 0x18c000
    a0a8:	00425f71 	subeq	r5, r2, r1, ror pc

0000a0ac <__FUNCTION__.4416>:
    a0ac:	705f7163 	subsvc	r7, pc, r3, ror #2
    a0b0:	0000706f 	andeq	r7, r0, pc, rrx

0000a0b4 <__FUNCTION__.4483>:
    a0b4:	63726963 	cmnvs	r2, #1622016	; 0x18c000
    a0b8:	00415f71 	subeq	r5, r1, r1, ror pc

0000a0bc <__FUNCTION__.4505>:
    a0bc:	6d746f6e 	ldclvs	15, cr6, [r4, #-440]!	; 0xfffffe48
    a0c0:	006e6961 	rsbeq	r6, lr, r1, ror #18
    a0c4:	34317063 	ldrtcc	r7, [r1], #-99	; 0x63
    a0c8:	6265642d 	rsbvs	r6, r5, #754974720	; 0x2d000000
    a0cc:	632e6775 	teqvs	lr, #30670848	; 0x1d40000
    a0d0:	00000000 	andeq	r0, r0, r0
    a0d4:	30726377 	rsbscc	r6, r2, r7, ror r3
    a0d8:	6765725f 			; <UNDEFINED> instruction: 0x6765725f
    a0dc:	203d3d20 	eorscs	r3, sp, r0, lsr #26
    a0e0:	30726377 	rsbscc	r6, r2, r7, ror r3
    a0e4:	7465675f 	strbtvc	r6, [r5], #-1887	; 0x75f
    a0e8:	00002928 	andeq	r2, r0, r8, lsr #18
    a0ec:	494e4150 	stmdbmi	lr, {r4, r6, r8, lr}^
    a0f0:	73253a43 	teqvc	r5, #274432	; 0x43000
    a0f4:	3a73253a 	bcc	1cd35e4 <__bss_end__+0x1cc69f4>
    a0f8:	693a6425 	ldmdbvs	sl!, {r0, r2, r5, sl, sp, lr}
    a0fc:	736f706d 	cmnvc	pc, #109	; 0x6d
    a100:	6c626973 	stclvs	9, cr6, [r2], #-460	; 0xfffffe34
    a104:	73203a65 	teqvc	r0, #413696	; 0x65000
    a108:	6c756f68 	ldclvs	15, cr6, [r5], #-416	; 0xfffffe60
    a10c:	6e6f2064 	cdpvs	0, 6, cr2, cr15, cr4, {3}
    a110:	6720796c 	strvs	r7, [r0, -ip, ror #18]!
    a114:	64207465 	strtvs	r7, [r0], #-1125	; 0x465
    a118:	66617461 	strbtvs	r7, [r1], -r1, ror #8
    a11c:	746c7561 	strbtvc	r7, [ip], #-1377	; 0x561
    a120:	000a0a73 	andeq	r0, sl, r3, ror sl
    a124:	34317063 	ldrtcc	r7, [r1], #-99	; 0x63
    a128:	6265642d 	rsbvs	r6, r5, #754974720	; 0x2d000000
    a12c:	682e6775 	stmdavs	lr!, {r0, r2, r4, r5, r6, r8, r9, sl, sp, lr}
    a130:	00000000 	andeq	r0, r0, r0
    a134:	72616677 	rsbvc	r6, r1, #124780544	; 0x7700000
    a138:	7465675f 	strbtvc	r6, [r5], #-1887	; 0x75f
    a13c:	342d2928 	strtcc	r2, [sp], #-2344	; 0x928
    a140:	203d3d20 	eorscs	r3, sp, r0, lsr #26
    a144:	00006370 	andeq	r6, r0, r0, ror r3
    a148:	63746177 	cmnvs	r4, #-1073741795	; 0xc000001d
    a14c:	5f747068 	svcpl	0x00747068
    a150:	646e6168 	strbtvs	r6, [lr], #-360	; 0x168
    a154:	3072656c 	rsbscc	r6, r2, ip, ror #10
    a158:	00000000 	andeq	r0, r0, r0
    a15c:	494e4150 	stmdbmi	lr, {r4, r6, r8, lr}^
    a160:	73253a43 	teqvc	r5, #274432	; 0x43000
    a164:	3a73253a 	bcc	1cd3654 <__bss_end__+0x1cc6a64>
    a168:	693a6425 	ldmdbvs	sl!, {r0, r2, r5, sl, sp, lr}
    a16c:	736f706d 	cmnvc	pc, #109	; 0x6d
    a170:	6c626973 	stclvs	9, cr6, [r2], #-460	; 0xfffffe34
    a174:	73203a65 	teqvc	r0, #413696	; 0x65000
    a178:	6c756f68 	ldclvs	15, cr6, [r5], #-416	; 0xfffffe60
    a17c:	65672064 	strbvs	r2, [r7, #-100]!	; 0x64
    a180:	6f6e2074 	svcvs	0x006e2074
    a184:	68746f20 	ldmdavs	r4!, {r5, r8, r9, sl, fp, sp, lr}^
    a188:	66207265 	strtvs	r7, [r0], -r5, ror #4
    a18c:	746c7561 	strbtvc	r7, [ip], #-1377	; 0x561
    a190:	000a0a73 	andeq	r0, sl, r3, ror sl
    a194:	706b7262 	rsbvc	r7, fp, r2, ror #4
    a198:	61685f74 	smcvs	34292	; 0x85f4
    a19c:	656c646e 	strbvs	r6, [ip, #-1134]!	; 0x46e
    a1a0:	00003072 	andeq	r3, r0, r2, ror r0
    a1a4:	494e4150 	stmdbmi	lr, {r4, r6, r8, lr}^
    a1a8:	73253a43 	teqvc	r5, #274432	; 0x43000
    a1ac:	3a73253a 	bcc	1cd369c <__bss_end__+0x1cc6aac>
    a1b0:	723a6425 	eorsvc	r6, sl, #620756992	; 0x25000000
    a1b4:	72757465 	rsbsvc	r7, r5, #1694498816	; 0x65000000
    a1b8:	2064656e 	rsbcs	r6, r4, lr, ror #10
    a1bc:	20646e61 	rsbcs	r6, r4, r1, ror #28
    a1c0:	756f6873 	strbvc	r6, [pc, #-2163]!	; 9955 <fast_interrupt_vector+0x3d>
    a1c4:	6e20646c 	cdpvs	4, 2, cr6, cr0, cr12, {3}
    a1c8:	6820746f 	stmdavs	r0!, {r0, r1, r2, r3, r5, r6, sl, ip, sp, lr}
    a1cc:	21657661 	cmncs	r5, r1, ror #12
    a1d0:	00000a0a 	andeq	r0, r0, sl, lsl #20
    a1d4:	656c6c69 	strbvs	r6, [ip, #-3177]!	; 0xc69
    a1d8:	206c6167 	rsbcs	r6, ip, r7, ror #2
    a1dc:	74737973 	ldrbtvc	r7, [r3], #-2419	; 0x973
    a1e0:	63206d65 	teqvs	r0, #6464	; 0x1940
    a1e4:	206c6c61 	rsbcs	r6, ip, r1, ror #24
    a1e8:	000a6425 	andeq	r6, sl, r5, lsr #8

0000a1ec <__FUNCTION__.4393>:
    a1ec:	63746177 	cmnvs	r4, #-1073741795	; 0xc000001d
    a1f0:	5f747068 	svcpl	0x00747068
    a1f4:	30746573 	rsbscc	r6, r4, r3, ror r5
    a1f8:	00000000 	andeq	r0, r0, r0

0000a1fc <__FUNCTION__.4399>:
    a1fc:	61746164 	cmnvs	r4, r4, ror #2
    a200:	6f62615f 	svcvs	0x0062615f
    a204:	765f7472 			; <UNDEFINED> instruction: 0x765f7472
    a208:	6f746365 	svcvs	0x00746365
    a20c:	00000072 	andeq	r0, r0, r2, ror r0

0000a210 <__FUNCTION__.4306>:
    a210:	5f736177 	svcpl	0x00736177
    a214:	75626564 	strbvc	r6, [r2, #-1380]!	; 0x564
    a218:	61645f67 	cmnvs	r4, r7, ror #30
    a21c:	61666174 	smcvs	26132	; 0x6614
    a220:	00746c75 	rsbseq	r6, r4, r5, ror ip

0000a224 <__FUNCTION__.4443>:
    a224:	66657270 			; <UNDEFINED> instruction: 0x66657270
    a228:	68637465 	stmdavs	r3!, {r0, r2, r5, r6, sl, ip, sp, lr}^
    a22c:	6f62615f 	svcvs	0x0062615f
    a230:	765f7472 			; <UNDEFINED> instruction: 0x765f7472
    a234:	6f746365 	svcvs	0x00746365
    a238:	00000072 	andeq	r0, r0, r2, ror r0

0000a23c <__FUNCTION__.4451>:
    a23c:	5f6b7262 	svcpl	0x006b7262
    a240:	725f6f6e 	subsvc	r6, pc, #440	; 0x1b8
    a244:	655f7465 	ldrbvs	r7, [pc, #-1125]	; 9de7 <gpio_set_off+0xb>
    a248:	726f7272 	rsbvc	r7, pc, #536870919	; 0x20000007
    a24c:	00000000 	andeq	r0, r0, r0
    a250:	253a7325 	ldrcs	r7, [sl, #-805]!	; 0x325
    a254:	64253a73 	strtvs	r3, [r5], #-2675	; 0xa73
    a258:	6572703a 	ldrbvs	r7, [r2, #-58]!	; 0x3a
    a25c:	63746566 	cmnvs	r4, #427819008	; 0x19800000
    a260:	62612068 	rsbvs	r2, r1, #104	; 0x68
    a264:	2074726f 	rsbscs	r7, r4, pc, ror #4
    a268:	25207461 	strcs	r7, [r0, #-1121]!	; 0x461
    a26c:	00000a70 	andeq	r0, r0, r0, ror sl
    a270:	63656863 	cmnvs	r5, #6488064	; 0x630000
    a274:	6e692d6b 	cdpvs	13, 6, cr2, cr9, cr11, {3}
    a278:	6c726574 	cfldr64vs	mvdx6, [r2], #-464	; 0xfffffe30
    a27c:	65766165 	ldrbvs	r6, [r6, #-357]!	; 0x165
    a280:	0000632e 	andeq	r6, r0, lr, lsr #6
    a284:	756f6261 	strbvc	r6, [pc, #-609]!	; a02b <__data_end__+0x1c3>
    a288:	6f742074 	svcvs	0x00742074
    a28c:	69777320 	ldmdbvs	r7!, {r5, r8, r9, ip, sp, lr}^
    a290:	20686374 	rsbcs	r6, r8, r4, ror r3
    a294:	6d6f7266 	sfmvs	f7, 2, [pc, #-408]!	; a104 <__FUNCTION__.4505+0x48>
    a298:	20702520 	rsbscs	r2, r0, r0, lsr #10
    a29c:	25206f74 	strcs	r6, [r0, #-3956]!	; 0xf74
    a2a0:	00000a70 	andeq	r0, r0, r0, ror sl
    a2a4:	656e6f64 	strbvs	r6, [lr, #-3940]!	; 0xf64
    a2a8:	6e757220 	cdpvs	2, 7, cr7, cr5, cr0, {1}
    a2ac:	676e696e 	strbvs	r6, [lr, -lr, ror #18]!
    a2b0:	202c4220 	eorcs	r4, ip, r0, lsr #4
    a2b4:	6e696f67 	cdpvs	15, 6, cr6, cr9, cr7, {3}
    a2b8:	6f742067 	svcvs	0x00742067
    a2bc:	74657220 	strbtvc	r7, [r5], #-544	; 0x220
    a2c0:	206e7275 	rsbcs	r7, lr, r5, ror r2
    a2c4:	41206f74 	teqmi	r0, r4, ror pc
    a2c8:	0000000a 	andeq	r0, r0, sl
    a2cc:	693e2d63 	ldmdbvs	lr!, {r0, r1, r5, r6, r8, sl, fp, sp}
    a2d0:	5f74736e 	svcpl	0x0074736e
    a2d4:	6e756f63 	cdpvs	15, 7, cr6, cr5, cr3, {3}
    a2d8:	203c2074 	eorscs	r2, ip, r4, ror r0
    a2dc:	733e2d63 	teqvc	lr, #6336	; 0x18c0
    a2e0:	63746977 	cmnvs	r4, #1949696	; 0x1dc000
    a2e4:	6e6f5f68 	cdpvs	15, 6, cr5, cr15, cr8, {3}
    a2e8:	736e695f 	cmnvc	lr, #1556480	; 0x17c000
    a2ec:	006e5f74 	rsbeq	r5, lr, r4, ror pc
    a2f0:	253a7325 	ldrcs	r7, [sl, #-805]!	; 0x325
    a2f4:	64253a73 	strtvs	r3, [r5], #-2675	; 0xa73
    a2f8:	7465733a 	strbtvc	r7, [r5], #-826	; 0x33a
    a2fc:	676e6974 			; <UNDEFINED> instruction: 0x676e6974
    a300:	20707520 	rsbscs	r7, r0, r0, lsr #10
    a304:	696d2061 	stmdbvs	sp!, {r0, r5, r6, sp}^
    a308:	74616d73 	strbtvc	r6, [r1], #-3443	; 0xd73
    a30c:	6f206863 	svcvs	0x00206863
    a310:	7025206e 	eorvc	r2, r5, lr, rrx
    a314:	0000000a 	andeq	r0, r0, sl
    a318:	253a7325 	ldrcs	r7, [sl, #-805]!	; 0x325
    a31c:	64253a73 	strtvs	r3, [r5], #-2675	; 0xa73
    a320:	6e6f643a 	mcrvs	4, 3, r6, cr15, cr10, {1}
    a324:	65732065 	ldrbvs	r2, [r3, #-101]!	; 0x65
    a328:	6e697474 	mcrvs	4, 3, r7, cr9, cr4, {3}
    a32c:	70752067 	rsbsvc	r2, r5, r7, rrx
    a330:	6d206120 	stfvss	f6, [r0, #-128]!	; 0xffffff80
    a334:	616d7369 	cmnvs	sp, r9, ror #6
    a338:	20686374 	rsbcs	r6, r8, r4, ror r3
    a33c:	25206e6f 	strcs	r6, [r0, #-3695]!	; 0xe6f
    a340:	00000a70 	andeq	r0, r0, r0, ror sl
    a344:	52455355 	subpl	r5, r5, #1409286145	; 0x54000001
    a348:	444f4d20 	strbmi	r4, [pc], #-3360	; a350 <__FUNCTION__.4451+0x114>
    a34c:	00000045 	andeq	r0, r0, r5, asr #32
    a350:	20514946 	subscs	r4, r1, r6, asr #18
    a354:	45444f4d 	strbmi	r4, [r4, #-3917]	; 0xf4d
    a358:	00000000 	andeq	r0, r0, r0
    a35c:	20515249 	subscs	r5, r1, r9, asr #4
    a360:	45444f4d 	strbmi	r4, [r4, #-3917]	; 0xf4d
    a364:	00000000 	andeq	r0, r0, r0
    a368:	45505553 	ldrbmi	r5, [r0, #-1363]	; 0x553
    a36c:	4f4d2052 	svcmi	0x004d2052
    a370:	00004544 	andeq	r4, r0, r4, asr #10
    a374:	524f4241 	subpl	r4, pc, #268435460	; 0x10000004
    a378:	4f4d2054 	svcmi	0x004d2054
    a37c:	00004544 	andeq	r4, r0, r4, asr #10
    a380:	45444e55 	strbmi	r4, [r4, #-3669]	; 0xe55
    a384:	4f4d2046 	svcmi	0x004d2046
    a388:	00004544 	andeq	r4, r0, r4, asr #10
    a38c:	20535953 	subscs	r5, r3, r3, asr r9
    a390:	45444f4d 	strbmi	r4, [r4, #-3917]	; 0xf4d
    a394:	00000000 	andeq	r0, r0, r0
    a398:	253a7325 	ldrcs	r7, [sl, #-805]!	; 0x325
    a39c:	64253a73 	strtvs	r3, [r5], #-2675	; 0xa73
    a3a0:	6972743a 	ldmdbvs	r2!, {r1, r3, r4, r5, sl, ip, sp, lr}^
    a3a4:	253d6c61 	ldrcs	r6, [sp, #-3169]!	; 0xc61
    a3a8:	61203a64 	teqvs	r0, r4, ror #20
    a3ac:	74756f62 	ldrbtvc	r6, [r5], #-3938	; 0xf62
    a3b0:	206f7420 	rsbcs	r7, pc, r0, lsr #8
    a3b4:	20746573 	rsbscs	r6, r4, r3, ror r5
    a3b8:	6d73696d 	ldclvs	9, cr6, [r3, #-436]!	; 0xfffffe4c
    a3bc:	68637461 	stmdavs	r3!, {r0, r5, r6, sl, ip, sp, lr}^
    a3c0:	6b726220 	blvs	1ca2c48 <__bss_end__+0x1c96058>
    a3c4:	66207470 			; <UNDEFINED> instruction: 0x66207470
    a3c8:	4120726f 	teqmi	r0, pc, ror #4
    a3cc:	0000000a 	andeq	r0, r0, sl
    a3d0:	4f525245 	svcmi	0x00525245
    a3d4:	63203a52 	teqvs	r0, #335872	; 0x52000
    a3d8:	6b636568 	blvs	18e3980 <__bss_end__+0x18d6d90>
    a3dc:	69616620 	stmdbvs	r1!, {r5, r9, sl, sp, lr}^
    a3e0:	2064656c 	rsbcs	r6, r4, ip, ror #10
    a3e4:	6e656877 	mcrvs	8, 3, r6, cr5, cr7, {3}
    a3e8:	69777320 	ldmdbvs	r7!, {r5, r8, r9, ip, sp, lr}^
    a3ec:	65686374 	strbvs	r6, [r8, #-884]!	; 0x374
    a3f0:	6e6f2064 	cdpvs	0, 6, cr2, cr15, cr4, {3}
    a3f4:	64646120 	strbtvs	r6, [r4], #-288	; 0x120
    a3f8:	73736572 	cmnvc	r3, #478150656	; 0x1c800000
    a3fc:	2c702520 	cfldr64cs	mvdx2, [r0], #-128	; 0xffffff80
    a400:	74666120 	strbtvc	r6, [r6], #-288	; 0x120
    a404:	25207265 	strcs	r7, [r0, #-613]!	; 0x265
    a408:	6e692064 	cdpvs	0, 6, cr2, cr9, cr4, {3}
    a40c:	75727473 	ldrbvc	r7, [r2, #-1139]!	; 0x473
    a410:	6f697463 	svcvs	0x00697463
    a414:	000a736e 	andeq	r7, sl, lr, ror #6
    a418:	656e6f64 	strbvs	r6, [lr, #-3940]!	; 0xf64
    a41c:	64202021 	strtvs	r2, [r0], #-33	; 0x21
    a420:	63206469 	teqvs	r0, #1761607680	; 0x69000000
    a424:	736e3e2d 	cmnvc	lr, #720	; 0x2d0
    a428:	63746977 	cmnvs	r4, #1949696	; 0x1dc000
    a42c:	3d736568 	cfldr64cc	mvdx6, [r3, #-416]!	; 0xfffffe60
    a430:	202c6425 	eorcs	r6, ip, r5, lsr #8
    a434:	6972746e 	ldmdbvs	r2!, {r1, r2, r3, r5, r6, sl, ip, sp, lr}^
    a438:	3d736c61 	ldclcc	12, cr6, [r3, #-388]!	; 0xfffffe7c
    a43c:	202c6425 	eorcs	r6, ip, r5, lsr #8
    a440:	7272656e 	rsbsvc	r6, r2, #461373440	; 0x1b800000
    a444:	3d73726f 	lfmcc	f7, 2, [r3, #-444]!	; 0xfffffe44
    a448:	000a6425 	andeq	r6, sl, r5, lsr #8
    a44c:	72737063 	rsbsvc	r7, r3, #99	; 0x63
    a450:	6974752d 	ldmdbvs	r4!, {r0, r2, r3, r5, r8, sl, ip, sp, lr}^
    a454:	00682e6c 	rsbeq	r2, r8, ip, ror #28
    a458:	65646f6d 	strbvs	r6, [r4, #-3949]!	; 0xf6d
    a45c:	67656c5f 			; <UNDEFINED> instruction: 0x67656c5f
    a460:	6d286c61 	stcvs	12, cr6, [r8, #-388]!	; 0xfffffe7c
    a464:	2965646f 	stmdbcs	r5!, {r0, r1, r2, r3, r5, r6, sl, sp, lr}^
    a468:	00000000 	andeq	r0, r0, r0
    a46c:	494e4150 	stmdbmi	lr, {r4, r6, r8, lr}^
    a470:	73253a43 	teqvc	r5, #274432	; 0x43000
    a474:	3a73253a 	bcc	1cd3964 <__bss_end__+0x1cc6d74>
    a478:	753a6425 	ldrvc	r6, [sl, #-1061]!	; 0x425
    a47c:	6f6e6b6e 	svcvs	0x006e6b6e
    a480:	6d206e77 	stcvs	14, cr6, [r0, #-476]!	; 0xfffffe24
    a484:	3a65646f 	bcc	1963648 <__bss_end__+0x1956a58>
    a488:	78253c20 	stmdavc	r5!, {r5, sl, fp, ip, sp}
    a48c:	000a0a3e 	andeq	r0, sl, lr, lsr sl
    a490:	65707865 	ldrbvs	r7, [r0, #-2149]!	; 0x865
    a494:	64657463 	strbtvs	r7, [r5], #-1123	; 0x463
    a498:	646f6d20 	strbtvs	r6, [pc], #-3360	; a4a0 <__FUNCTION__.4451+0x264>
    a49c:	203d2065 	eorscs	r2, sp, r5, rrx
    a4a0:	28207325 	stmdacs	r0!, {r0, r2, r5, r8, r9, ip, sp, lr}
    a4a4:	0a297825 	beq	a68540 <__bss_end__+0xa5b950>
    a4a8:	00000000 	andeq	r0, r0, r0
    a4ac:	72727563 	rsbsvc	r7, r2, #415236096	; 0x18c00000
    a4b0:	20746e65 	rsbscs	r6, r4, r5, ror #28
    a4b4:	65646f6d 	strbvs	r6, [r4, #-3949]!	; 0xf6d
    a4b8:	25203d20 	strcs	r3, [r0, #-3360]!	; 0xd20
    a4bc:	25282073 	strcs	r2, [r8, #-115]!	; 0x73
    a4c0:	000a2978 	andeq	r2, sl, r8, ror r9
    a4c4:	65646f6d 	strbvs	r6, [r4, #-3949]!	; 0xf6d
    a4c8:	7465675f 	strbtvc	r6, [r5], #-1887	; 0x75f
    a4cc:	73706328 	cmnvc	r0, #40, 6	; 0xa0000000
    a4d0:	6c6f5f72 	stclvs	15, cr5, [pc], #-456	; a310 <__FUNCTION__.4451+0xd4>
    a4d4:	3d202964 	stccc	9, cr2, [r0, #-400]!	; 0xfffffe70
    a4d8:	6f6d203d 	svcvs	0x006d203d
    a4dc:	675f6564 	ldrbvs	r6, [pc, -r4, ror #10]
    a4e0:	63287465 	teqvs	r8, #1694498816	; 0x65000000
    a4e4:	5f727370 	svcpl	0x00727370
    a4e8:	28746567 	ldmdacs	r4!, {r0, r1, r2, r5, r6, r8, sl, sp, lr}^
    a4ec:	00002929 	andeq	r2, r0, r9, lsr #18
    a4f0:	494e4150 	stmdbmi	lr, {r4, r6, r8, lr}^
    a4f4:	73253a43 	teqvc	r5, #274432	; 0x43000
    a4f8:	3a73253a 	bcc	1cd39e8 <__bss_end__+0x1cc6df8>
    a4fc:	633a6425 	teqvs	sl, #620756992	; 0x25000000
    a500:	6b636568 	blvs	18e3aa8 <__bss_end__+0x18d6eb8>
    a504:	69616620 	stmdbvs	r1!, {r5, r9, sl, sp, lr}^
    a508:	2064656c 	rsbcs	r6, r4, ip, ror #10
    a50c:	75716573 	ldrbvc	r6, [r1, #-1395]!	; 0x573
    a510:	69746e65 	ldmdbvs	r4!, {r0, r2, r5, r6, r9, sl, fp, sp, lr}^
    a514:	796c6c61 	stmdbvc	ip!, {r0, r5, r6, sl, fp, sp, lr}^
    a518:	6f63203a 	svcvs	0x0063203a
    a51c:	69206564 	stmdbvs	r0!, {r2, r5, r6, r8, sl, sp, lr}
    a520:	72622073 	rsbvc	r2, r2, #115	; 0x73
    a524:	6e656b6f 	vnmulvs.f64	d22, d5, d31
    a528:	00000a0a 	andeq	r0, r0, sl, lsl #20

0000a52c <__FUNCTION__.4432>:
    a52c:	63656863 	cmnvs	r5, #6488064	; 0x630000
    a530:	65735f6b 	ldrbvs	r5, [r3, #-3947]!	; 0xf6b
    a534:	6e657571 	mcrvs	5, 3, r7, cr5, cr1, {3}
    a538:	6c616974 	stclvs	9, cr6, [r1], #-464	; 0xfffffe30
    a53c:	00000000 	andeq	r0, r0, r0

0000a540 <__FUNCTION__.4424>:
    a540:	63656863 	cmnvs	r5, #6488064	; 0x630000
    a544:	6e6f5f6b 	cdpvs	15, 6, cr5, cr15, cr11, {3}
    a548:	73635f65 	cmnvc	r3, #404	; 0x194
    a54c:	63746977 	cmnvs	r4, #1949696	; 0x1dc000
    a550:	00000068 	andeq	r0, r0, r8, rrx

0000a554 <__FUNCTION__.4417>:
    a554:	676e6973 			; <UNDEFINED> instruction: 0x676e6973
    a558:	735f656c 	cmpvc	pc, #108, 10	; 0x1b000000
    a55c:	5f706574 	svcpl	0x00706574
    a560:	646e6168 	strbtvs	r6, [lr], #-360	; 0x168
    a564:	0072656c 	rsbseq	r6, r2, ip, ror #10

0000a568 <__FUNCTION__.4397>:
    a568:	65646f6d 	strbvs	r6, [r4, #-3949]!	; 0xf6d
    a56c:	7465735f 	strbtvc	r7, [r5], #-863	; 0x35f
    a570:	00000000 	andeq	r0, r0, r0

0000a574 <__FUNCTION__.4258>:
    a574:	73746962 	cmnvc	r4, #1605632	; 0x188000
    a578:	726c635f 	rsbvc	r6, ip, #2080374785	; 0x7c000001
    a57c:	00000000 	andeq	r0, r0, r0

0000a580 <__FUNCTION__.4409>:
    a580:	65646f6d 	strbvs	r6, [r4, #-3949]!	; 0xf6d
    a584:	7274735f 	rsbsvc	r7, r4, #2080374785	; 0x7c000001
    a588:	00000000 	andeq	r0, r0, r0

0000a58c <__FUNCTION__.4392>:
    a58c:	65646f6d 	strbvs	r6, [r4, #-3949]!	; 0xf6d
    a590:	7465675f 	strbtvc	r6, [r5], #-1887	; 0x75f
    a594:	00000000 	andeq	r0, r0, r0

0000a598 <__FUNCTION__.4251>:
    a598:	73746962 	cmnvc	r4, #1605632	; 0x188000
    a59c:	7465675f 	strbtvc	r6, [r5], #-1887	; 0x75f
    a5a0:	00000000 	andeq	r0, r0, r0

0000a5a4 <__FUNCTION__.4249>:
    a5a4:	74696d65 	strbtvc	r6, [r9], #-3429	; 0xd65
    a5a8:	00000000 	andeq	r0, r0, r0

0000a5ac <__FUNCTION__.4197>:
    a5ac:	5f697072 	svcpl	0x00697072
    a5b0:	5f746573 	svcpl	0x00746573
    a5b4:	7074756f 	rsbsvc	r7, r4, pc, ror #10
    a5b8:	00007475 	andeq	r7, r0, r5, ror r4

0000a5bc <__FUNCTION__.4272>:
    a5bc:	705f6176 	subsvc	r6, pc, r6, ror r1	; <UNPREDICTABLE>
    a5c0:	746e6972 	strbtvc	r6, [lr], #-2418	; 0x972
    a5c4:	0000006b 	andeq	r0, r0, fp, rrx
    a5c8:	6362696c 	cmnvs	r2, #108, 18	; 0x1b0000
    a5cc:	2d61762f 	stclcs	6, cr7, [r1, #-188]!	; 0xffffff44
    a5d0:	6e697270 	mcrvs	2, 3, r7, cr9, cr0, {3}
    a5d4:	632e6b74 	teqvs	lr, #116, 22	; 0x1d000
    a5d8:	00000000 	andeq	r0, r0, r0
    a5dc:	00000030 	andeq	r0, r0, r0, lsr r0
    a5e0:	33323130 	teqcc	r2, #48, 2
    a5e4:	37363534 			; <UNDEFINED> instruction: 0x37363534
    a5e8:	00003938 	andeq	r3, r0, r8, lsr r9
    a5ec:	33323130 	teqcc	r2, #48, 2
    a5f0:	37363534 			; <UNDEFINED> instruction: 0x37363534
    a5f4:	62613938 	rsbvs	r3, r1, #56, 18	; 0xe0000
    a5f8:	66656463 	strbtvs	r6, [r5], -r3, ror #8
    a5fc:	00000000 	andeq	r0, r0, r0
    a600:	00003130 	andeq	r3, r0, r0, lsr r1
    a604:	63747570 	cmnvs	r4, #112, 10	; 0x1c000000
    a608:	0070665f 	rsbseq	r6, r0, pc, asr r6
    a60c:	74646977 	strbtvc	r6, [r4], #-2423	; 0x977
    a610:	203c2068 	eorscs	r2, ip, r8, rrx
    a614:	00003233 	andeq	r3, r0, r3, lsr r2
    a618:	494e4150 	stmdbmi	lr, {r4, r6, r8, lr}^
    a61c:	73253a43 	teqvc	r5, #274432	; 0x43000
    a620:	3a73253a 	bcc	1cd3b10 <__bss_end__+0x1cc6f20>
    a624:	663a6425 	ldrtvs	r6, [sl], -r5, lsr #8
    a628:	74616f6c 	strbtvc	r6, [r1], #-3948	; 0xf6c
    a62c:	746f6e20 	strbtvc	r6, [pc], #-3616	; a634 <__FUNCTION__.4272+0x78>
    a630:	616e6520 	cmnvs	lr, r0, lsr #10
    a634:	64656c62 	strbtvs	r6, [r5], #-3170	; 0xc62
    a638:	0a212121 	beq	852ac4 <__bss_end__+0x845ed4>
    a63c:	00000000 	andeq	r0, r0, r0
    a640:	6e697270 	mcrvs	2, 3, r7, cr9, cr0, {3}
    a644:	203a6b74 	eorscs	r6, sl, r4, ror fp
    a648:	20746f6e 	rsbscs	r6, r4, lr, ror #30
    a64c:	646e6168 	strbtvs	r6, [lr], #-360	; 0x168
    a650:	676e696c 	strbvs	r6, [lr, -ip, ror #18]!
    a654:	65707320 	ldrbvs	r7, [r0, #-800]!	; 0x320
    a658:	69666963 	stmdbvs	r6!, {r0, r1, r5, r6, r8, fp, sp, lr}^
    a65c:	27207265 	strcs	r7, [r0, -r5, ror #4]!
    a660:	20276325 	eorcs	r6, r7, r5, lsr #6
    a664:	63736128 	cmnvs	r3, #40, 2
    a668:	253d6969 	ldrcs	r6, [sp, #-2409]!	; 0x969
    a66c:	000a2964 	andeq	r2, sl, r4, ror #18
    a670:	494e4150 	stmdbmi	lr, {r4, r6, r8, lr}^
    a674:	73253a43 	teqvc	r5, #274432	; 0x43000
    a678:	3a73253a 	bcc	1cd3b68 <__bss_end__+0x1cc6f78>
    a67c:	703a6425 	eorsvc	r6, sl, r5, lsr #8
    a680:	746e6972 	strbtvc	r6, [lr], #-2418	; 0x972
    a684:	7265206b 	rsbvc	r2, r5, #107	; 0x6b
    a688:	0a726f72 	beq	1ca6458 <__bss_end__+0x1c99868>
    a68c:	0000000a 	andeq	r0, r0, sl
    a690:	454e4f44 	strbmi	r4, [lr, #-3908]	; 0xf44
    a694:	0a212121 	beq	852b20 <__bss_end__+0x845f30>
    a698:	00000000 	andeq	r0, r0, r0

0000a69c <__FUNCTION__.4220>:
    a69c:	74736166 	ldrbtvc	r6, [r3], #-358	; 0x166
    a6a0:	746e695f 	strbtvc	r6, [lr], #-2399	; 0x95f
    a6a4:	75727265 	ldrbvc	r7, [r2, #-613]!	; 0x265
    a6a8:	765f7470 			; <UNDEFINED> instruction: 0x765f7470
    a6ac:	6f746365 	svcvs	0x00746365
    a6b0:	00000072 	andeq	r0, r0, r2, ror r0
    a6b4:	494e4150 	stmdbmi	lr, {r4, r6, r8, lr}^
    a6b8:	73253a43 	teqvc	r5, #274432	; 0x43000
    a6bc:	3a73253a 	bcc	1cd3bac <__bss_end__+0x1cc6fbc>
    a6c0:	453a6425 	ldrmi	r6, [sl, #-1061]!	; 0x425
    a6c4:	524f5252 	subpl	r5, pc, #536870917	; 0x20000005
    a6c8:	6e75203a 	mrcvs	0, 3, r2, cr5, cr10, {1}
    a6cc:	646e6168 	strbtvs	r6, [lr], #-360	; 0x168
    a6d0:	2064656c 	rsbcs	r6, r4, ip, ror #10
    a6d4:	65637865 	strbvs	r7, [r3, #-2149]!	; 0x865
    a6d8:	6f697470 	svcvs	0x00697470
    a6dc:	253c206e 	ldrcs	r2, [ip, #-110]!	; 0x6e
    a6e0:	61203e73 	teqvs	r0, r3, ror lr
    a6e4:	43502074 	cmpmi	r0, #116	; 0x74
    a6e8:	0a78253d 	beq	1e13be4 <__bss_end__+0x1e06ff4>
    a6ec:	0000000a 	andeq	r0, r0, sl
    a6f0:	66617473 			; <UNDEFINED> instruction: 0x66617473
    a6f4:	72732d66 	rsbsvc	r2, r3, #6528	; 0x1980
    a6f8:	65642f63 	strbvs	r2, [r4, #-3939]!	; 0xf63
    a6fc:	6c756166 	ldfvse	f6, [r5], #-408	; 0xfffffe68
    a700:	61682d74 	smcvs	33492	; 0x82d4
    a704:	656c646e 	strbvs	r6, [ip, #-1134]!	; 0x46e
    a708:	61662d72 	smcvs	25298	; 0x62d2
    a70c:	632e7473 	teqvs	lr, #1929379840	; 0x73000000
    a710:	00000000 	andeq	r0, r0, r0
    a714:	74736166 	ldrbtvc	r6, [r3], #-358	; 0x166
    a718:	00000000 	andeq	r0, r0, r0

0000a71c <__FUNCTION__.4220>:
    a71c:	65736572 	ldrbvs	r6, [r3, #-1394]!	; 0x572
    a720:	65765f74 	ldrbvs	r5, [r6, #-3956]!	; 0xf74
    a724:	726f7463 	rsbvc	r7, pc, #1660944384	; 0x63000000
    a728:	00000000 	andeq	r0, r0, r0
    a72c:	66617473 			; <UNDEFINED> instruction: 0x66617473
    a730:	72732d66 	rsbsvc	r2, r3, #6528	; 0x1980
    a734:	65642f63 	strbvs	r2, [r4, #-3939]!	; 0xf63
    a738:	6c756166 	ldfvse	f6, [r5], #-408	; 0xfffffe68
    a73c:	61682d74 	smcvs	33492	; 0x82d4
    a740:	656c646e 	strbvs	r6, [ip, #-1134]!	; 0x46e
    a744:	65722d72 	ldrbvs	r2, [r2, #-3442]!	; 0xd72
    a748:	2e746573 	mrccs	5, 3, r6, cr4, cr3, {3}
    a74c:	00000063 	andeq	r0, r0, r3, rrx
    a750:	65736572 	ldrbvs	r6, [r3, #-1394]!	; 0x572
    a754:	00000074 	andeq	r0, r0, r4, ror r0

0000a758 <__FUNCTION__.4220>:
    a758:	65646e75 	strbvs	r6, [r4, #-3701]!	; 0xe75
    a75c:	656e6966 	strbvs	r6, [lr, #-2406]!	; 0x966
    a760:	6e695f64 	cdpvs	15, 6, cr5, cr9, cr4, {3}
    a764:	75727473 	ldrbvc	r7, [r2, #-1139]!	; 0x473
    a768:	6f697463 	svcvs	0x00697463
    a76c:	65765f6e 	ldrbvs	r5, [r6, #-3950]!	; 0xf6e
    a770:	726f7463 	rsbvc	r7, pc, #1660944384	; 0x63000000
    a774:	00000000 	andeq	r0, r0, r0
    a778:	66617473 			; <UNDEFINED> instruction: 0x66617473
    a77c:	72732d66 	rsbsvc	r2, r3, #6528	; 0x1980
    a780:	65642f63 	strbvs	r2, [r4, #-3939]!	; 0xf63
    a784:	6c756166 	ldfvse	f6, [r5], #-408	; 0xfffffe68
    a788:	61682d74 	smcvs	33492	; 0x82d4
    a78c:	656c646e 	strbvs	r6, [ip, #-1134]!	; 0x46e
    a790:	6e752d72 	mrcvs	13, 3, r2, cr5, cr2, {3}
    a794:	69666564 	stmdbvs	r6!, {r2, r5, r6, r8, sl, sp, lr}^
    a798:	2d64656e 	cfstr64cs	mvdx6, [r4, #-440]!	; 0xfffffe48
    a79c:	74736e69 	ldrbtvc	r6, [r3], #-3689	; 0xe69
    a7a0:	0000632e 	andeq	r6, r0, lr, lsr #6
    a7a4:	65646e75 	strbvs	r6, [r4, #-3701]!	; 0xe75
    a7a8:	656e6966 	strbvs	r6, [lr, #-2406]!	; 0x966
    a7ac:	6e692064 	cdpvs	0, 6, cr2, cr9, cr4, {3}
    a7b0:	00007473 	andeq	r7, r0, r3, ror r4

Disassembly of section .bss:

0000a7b4 <__bss_start__>:
    a7b4:	00000000 	andeq	r0, r0, r0

0000a7b8 <expected_B>:
    a7b8:	00000000 	andeq	r0, r0, r0

0000a7bc <cq>:
	...

0000c7d0 <watchpt_handler0>:
    c7d0:	00000000 	andeq	r0, r0, r0

0000c7d4 <brkpt_handler0>:
    c7d4:	00000000 	andeq	r0, r0, r0

0000c7d8 <brk_verbose_p>:
    c7d8:	00000000 	andeq	r0, r0, r0

0000c7dc <nfaults.4398>:
    c7dc:	00000000 	andeq	r0, r0, r0

0000c7e0 <init_p.4404>:
    c7e0:	00000000 	andeq	r0, r0, r0

0000c7e4 <checker>:
    c7e4:	00000000 	andeq	r0, r0, r0

0000c7e8 <expected_handle>:
    c7e8:	00000000 	andeq	r0, r0, r0

0000c7ec <buf.4189>:
	...

Disassembly of section .ARM.attributes:

00000000 <.ARM.attributes>:
   0:	00002a41 	andeq	r2, r0, r1, asr #20
   4:	61656100 	cmnvs	r5, r0, lsl #2
   8:	01006962 	tsteq	r0, r2, ror #18
   c:	00000020 	andeq	r0, r0, r0, lsr #32
  10:	4b5a3605 	blmi	168d82c <__bss_end__+0x1680c3c>
  14:	08070600 	stmdaeq	r7, {r9, sl}
  18:	12010901 	andne	r0, r1, #16384	; 0x4000
  1c:	15011404 	strne	r1, [r1, #-1028]	; 0x404
  20:	18031701 	stmdane	r3, {r0, r8, r9, sl, ip}
  24:	22011a01 	andcs	r1, r1, #4096	; 0x1000
  28:	Address 0x0000000000000028 is out of bounds.


Disassembly of section .comment:

00000000 <.comment>:
   0:	3a434347 	bcc	10d0d24 <__bss_end__+0x10c4134>
   4:	4e472820 	cdpmi	8, 4, cr2, cr7, cr0, {1}
   8:	34202955 	strtcc	r2, [r0], #-2389	; 0x955
   c:	332e382e 	teqcc	lr, #3014656	; 0x2e0000
  10:	43434700 	movtmi	r4, #14080	; 0x3700
  14:	3128203a 	teqcc	r8, sl, lsr r0
  18:	2e363a35 	mrccs	10, 1, r3, cr6, cr5, {1}
  1c:	2b312e33 	blcs	c4b8f0 <__bss_end__+0xc3ed00>
  20:	326e7673 	rsbcc	r7, lr, #120586240	; 0x7300000
  24:	33303335 	teqcc	r0, #-738197504	; 0xd4000000
  28:	62312d39 	eorsvs	r2, r1, #3648	; 0xe40
  2c:	646c6975 	strbtvs	r6, [ip], #-2421	; 0x975
  30:	36202931 			; <UNDEFINED> instruction: 0x36202931
  34:	312e332e 	teqcc	lr, lr, lsr #6
  38:	31303220 	teqcc	r0, r0, lsr #4
  3c:	32363037 	eorscc	r3, r6, #55	; 0x37
  40:	Address 0x0000000000000040 is out of bounds.


Disassembly of section .debug_info:

00000000 <.debug_info>:
       0:	00000b5b 	andeq	r0, r0, fp, asr fp
       4:	00000004 	andeq	r0, r0, r4
       8:	01040000 	mrseq	r0, (UNDEF: 4)
       c:	00000233 	andeq	r0, r0, r3, lsr r2
      10:	0000f201 	andeq	pc, r0, r1, lsl #4
      14:	00000000 	andeq	r0, r0, r0
      18:	00802000 	addeq	r2, r0, r0
      1c:	0005e000 	andeq	lr, r5, r0
      20:	00000000 	andeq	r0, r0, r0
      24:	05040200 	streq	r0, [r4, #-512]	; 0x200
      28:	00746e69 	rsbseq	r6, r4, r9, ror #28
      2c:	00006803 	andeq	r6, r0, r3, lsl #16
      30:	37d40300 	ldrbcc	r0, [r4, r0, lsl #6]
      34:	04000000 	streq	r0, [r0], #-0
      38:	00a70704 	adceq	r0, r7, r4, lsl #14
      3c:	01040000 	mrseq	r0, (UNDEF: 4)
      40:	0001a206 	andeq	sl, r1, r6, lsl #4
      44:	05020400 	streq	r0, [r2, #-1024]	; 0x400
      48:	000001c4 	andeq	r0, r0, r4, asr #3
      4c:	c8050404 	stmdagt	r5, {r2, sl}
      50:	04000000 	streq	r0, [r0], #-0
      54:	00c30508 	sbceq	r0, r3, r8, lsl #10
      58:	01040000 	mrseq	r0, (UNDEF: 4)
      5c:	0001a008 	andeq	sl, r1, r8
      60:	07020400 	streq	r0, [r2, -r0, lsl #8]
      64:	0000013f 	andeq	r0, r0, pc, lsr r1
      68:	0001ef03 	andeq	lr, r1, r3, lsl #30
      6c:	73340400 	teqvc	r4, #0, 8
      70:	04000000 	streq	r0, [r0], #-0
      74:	00a20704 	adceq	r0, r2, r4, lsl #14
      78:	08040000 	stmdaeq	r4, {}	; <UNPREDICTABLE>
      7c:	00009d07 	andeq	r9, r0, r7, lsl #26
      80:	07040400 	streq	r0, [r4, -r0, lsl #8]
      84:	00000164 	andeq	r0, r0, r4, ror #2
      88:	01040405 	tsteq	r4, r5, lsl #8
      8c:	0001a908 	andeq	sl, r1, r8, lsl #18
      90:	97040600 	strls	r0, [r4, -r0, lsl #12]
      94:	07000000 	streq	r0, [r0, -r0]
      98:	0000008a 	andeq	r0, r0, sl, lsl #1
      9c:	00008a08 	andeq	r8, r0, r8, lsl #20
      a0:	0000ac00 	andeq	sl, r0, r0, lsl #24
      a4:	00810900 	addeq	r0, r1, r0, lsl #18
      a8:	00070000 	andeq	r0, r7, r0
      ac:	00018e0a 	andeq	r8, r1, sl, lsl #28
      b0:	0a053800 	beq	14e0b8 <__bss_end__+0x1414c8>
      b4:	0000015d 	andeq	r0, r0, sp, asr r1
      b8:	000af00b 	andeq	pc, sl, fp
      bc:	5d0f0500 	cfstr32pl	mvfx0, [pc, #-0]	; c4 <__code_start__-0x7f3c>
      c0:	00000001 	andeq	r0, r0, r1
      c4:	0500410c 	streq	r4, [r0, #-268]	; 0x10c
      c8:	00017512 	andeq	r7, r1, r2, lsl r5
      cc:	420c0400 	andmi	r0, ip, #0, 8
      d0:	8a130500 	bhi	4c14d8 <__bss_end__+0x4b48e8>
      d4:	08000001 	stmdaeq	r0, {r0}
      d8:	0000dd0b 	andeq	sp, r0, fp, lsl #26
      dc:	75160500 	ldrvc	r0, [r6, #-1280]	; 0x500
      e0:	0c000001 	stceq	0, cr0, [r0], {1}
      e4:	0001fe0b 	andeq	pc, r1, fp, lsl #28
      e8:	8a180500 	bhi	6014f0 <__bss_end__+0x5f4900>
      ec:	10000001 	andne	r0, r0, r1
      f0:	0002b10b 	andeq	fp, r2, fp, lsl #2
      f4:	901f0500 	andsls	r0, pc, r0, lsl #10
      f8:	14000001 	strne	r0, [r0], #-1
      fc:	0002a00b 	andeq	sl, r2, fp
     100:	90310500 	eorsls	r0, r1, r0, lsl #10
     104:	18000001 	stmdane	r0, {r0}
     108:	00008a0b 	andeq	r8, r0, fp, lsl #20
     10c:	95360500 	ldrls	r0, [r6, #-1280]!	; 0x500
     110:	1c000001 	stcne	0, cr0, [r0], {1}
     114:	00006f0b 	andeq	r6, r0, fp, lsl #30
     118:	953a0500 	ldrls	r0, [sl, #-1280]!	; 0x500
     11c:	20000001 	andcs	r0, r0, r1
     120:	0002bb0b 	andeq	fp, r2, fp, lsl #22
     124:	903f0500 	eorsls	r0, pc, r0, lsl #10
     128:	24000001 	strcs	r0, [r0], #-1
     12c:	00017d0b 	andeq	r7, r1, fp, lsl #26
     130:	37420500 	strbcc	r0, [r2, -r0, lsl #10]
     134:	28000000 	stmdacs	r0, {}	; <UNPREDICTABLE>
     138:	00020a0b 	andeq	r0, r2, fp, lsl #20
     13c:	37430500 	strbcc	r0, [r3, -r0, lsl #10]
     140:	2c000000 	stccs	0, cr0, [r0], {-0}
     144:	0001d50b 	andeq	sp, r1, fp, lsl #10
     148:	37460500 	strbcc	r0, [r6, -r0, lsl #10]
     14c:	30000000 	andcc	r0, r0, r0
     150:	0000d10b 	andeq	sp, r0, fp, lsl #2
     154:	95480500 	strbls	r0, [r8, #-1280]	; 0x500
     158:	34000001 	strcc	r0, [r0], #-1
     15c:	63040600 	movwvs	r0, #17920	; 0x4600
     160:	0d000001 	stceq	0, cr0, [r0, #-4]
     164:	00016f0e 	andeq	r6, r1, lr, lsl #30
     168:	016f0f00 	cmneq	pc, r0, lsl #30
     16c:	06000000 	streq	r0, [r0], -r0
     170:	0000ac04 	andeq	sl, r0, r4, lsl #24
     174:	64040600 	strvs	r0, [r4], #-1536	; 0x600
     178:	10000001 	andne	r0, r0, r1
     17c:	00000025 	andeq	r0, r0, r5, lsr #32
     180:	0000018a 	andeq	r0, r0, sl, lsl #3
     184:	00016f0f 	andeq	r6, r1, pc, lsl #30
     188:	04060000 	streq	r0, [r6], #-0
     18c:	0000017b 	andeq	r0, r0, fp, ror r1
     190:	00003711 	andeq	r3, r0, r1, lsl r7
     194:	00681100 	rsbeq	r1, r8, r0, lsl #2
     198:	96030000 	strls	r0, [r3], -r0
     19c:	05000001 	streq	r0, [r0, #-1]
     1a0:	0000ac49 	andeq	sl, r0, r9, asr #24
     1a4:	01e40300 	mvneq	r0, r0, lsl #6
     1a8:	1c020000 	stcne	0, cr0, [r2], {-0}
     1ac:	0000005a 	andeq	r0, r0, sl, asr r0
     1b0:	02201412 	eoreq	r1, r0, #301989888	; 0x12000000
     1b4:	00020a28 	andeq	r0, r2, r8, lsr #20
     1b8:	00b40b00 	adcseq	r0, r4, r0, lsl #22
     1bc:	2a020000 	bcs	801c4 <__bss_end__+0x735d4>
     1c0:	0000021b 	andeq	r0, r0, fp, lsl r2
     1c4:	02041300 	andeq	r1, r4, #0, 6
     1c8:	2b020000 	blcs	801d0 <__bss_end__+0x735e0>
     1cc:	00000037 	andeq	r0, r0, r7, lsr r0
     1d0:	ea132000 	b	4c81d8 <__bss_end__+0x4bb5e8>
     1d4:	02000001 	andeq	r0, r0, #1
     1d8:	0001902c 	andeq	r9, r1, ip, lsr #32
     1dc:	13200400 	teqne	r0, #0, 8
     1e0:	0000015f 	andeq	r0, r0, pc, asr r1
     1e4:	01902c02 	orrseq	r2, r0, r2, lsl #24
     1e8:	20080000 	andcs	r0, r8, r0
     1ec:	0002ce13 	andeq	ip, r2, r3, lsl lr
     1f0:	902f0200 	eorls	r0, pc, r0, lsl #4
     1f4:	0c000001 	stceq	0, cr0, [r0], {1}
     1f8:	007b1420 	rsbseq	r1, fp, r0, lsr #8
     1fc:	31020000 	mrscc	r0, (UNDEF: 2)
     200:	00000037 	andeq	r0, r0, r7, lsr r0
     204:	101f0104 	andsne	r0, pc, r4, lsl #2
     208:	a5080020 	strge	r0, [r8, #-32]
     20c:	1b000001 	blne	218 <__code_start__-0x7de8>
     210:	15000002 	strne	r0, [r0, #-2]
     214:	00000081 	andeq	r0, r0, r1, lsl #1
     218:	11001fff 	strdne	r1, [r0, -pc]
     21c:	0000020a 	andeq	r0, r0, sl, lsl #4
     220:	00022103 	andeq	r2, r2, r3, lsl #2
     224:	2b320200 	blcs	c80a2c <__bss_end__+0xc73e3c>
     228:	11000002 	tstne	r0, r2
     22c:	000001b0 			; <UNDEFINED> instruction: 0x000001b0
     230:	0000ba16 	andeq	fp, r0, r6, lsl sl
     234:	25390200 	ldrcs	r0, [r9, #-512]!	; 0x200
     238:	03000000 	movweq	r0, #0
     23c:	0000024a 	andeq	r0, r0, sl, asr #4
     240:	02007117 	andeq	r7, r0, #-1073741819	; 0xc0000005
     244:	00024a39 	andeq	r4, r2, r9, lsr sl
     248:	04060000 	streq	r0, [r6], #-0
     24c:	00000220 	andeq	r0, r0, r0, lsr #4
     250:	0002c616 	andeq	ip, r2, r6, lsl r6
     254:	253c0200 	ldrcs	r0, [ip, #-512]!	; 0x200
     258:	03000000 	movweq	r0, #0
     25c:	0000026a 	andeq	r0, r0, sl, ror #4
     260:	02007117 	andeq	r7, r0, #-1073741819	; 0xc0000005
     264:	00024a3c 	andeq	r4, r2, ip, lsr sl
     268:	6d160000 	ldcvs	0, cr0, [r6, #-0]
     26c:	02000001 	andeq	r0, r0, #1
     270:	00002542 	andeq	r2, r0, r2, asr #10
     274:	02980300 	addseq	r0, r8, #0, 6
     278:	63170000 	tstvs	r7, #0
     27c:	4a420200 	bmi	1080a84 <__bss_end__+0x1073e94>
     280:	17000002 	strne	r0, [r0, -r2]
     284:	42020065 	andmi	r0, r2, #101	; 0x65
     288:	00000298 	muleq	r0, r8, r2
     28c:	00015f18 	andeq	r5, r1, r8, lsl pc
     290:	37450200 	strbcc	r0, [r5, -r0, lsl #4]
     294:	00000000 	andeq	r0, r0, r0
     298:	01a50406 			; <UNDEFINED> instruction: 0x01a50406
     29c:	36160000 	ldrcc	r0, [r6], -r0
     2a0:	02000001 	andeq	r0, r0, #1
     2a4:	0000373e 	andeq	r3, r0, lr, lsr r7
     2a8:	02b80300 	adcseq	r0, r8, #0, 6
     2ac:	71170000 	tstvc	r7, r0
     2b0:	4a3e0200 	bmi	f80ab8 <__bss_end__+0xf73ec8>
     2b4:	00000002 	andeq	r0, r0, r2
     2b8:	00021216 	andeq	r1, r2, r6, lsl r2
     2bc:	25560200 	ldrbcs	r0, [r6, #-512]	; 0x200
     2c0:	03000000 	movweq	r0, #0
     2c4:	000002e6 	andeq	r0, r0, r6, ror #5
     2c8:	02006317 	andeq	r6, r0, #1543503872	; 0x5c000000
     2cc:	00024a56 	andeq	r4, r2, r6, asr sl
     2d0:	00781700 	rsbseq	r1, r8, r0, lsl #14
     2d4:	01a55602 			; <UNDEFINED> instruction: 0x01a55602
     2d8:	ea180000 	b	6002e0 <__bss_end__+0x5f36f0>
     2dc:	02000001 	andeq	r0, r0, #1
     2e0:	00003757 	andeq	r3, r0, r7, asr r7
     2e4:	e2190000 	ands	r0, r9, #0
     2e8:	01000000 	mrseq	r0, (UNDEF: 0)
     2ec:	00802009 	addeq	r2, r0, r9
     2f0:	0000a800 	andeq	sl, r0, r0, lsl #16
     2f4:	ad9c0100 	ldfges	f0, [ip]
     2f8:	1a000003 	bne	30c <__code_start__-0x7cf4>
     2fc:	09010063 	stmdbeq	r1, {r0, r1, r5, r6}
     300:	000003ad 	andeq	r0, r0, sp, lsr #7
     304:	00000000 	andeq	r0, r0, r0
     308:	0001291b 	andeq	r2, r1, fp, lsl r9
     30c:	0003b300 	andeq	fp, r3, r0, lsl #6
     310:	b4030500 	strlt	r0, [r3], #-1280	; 0x500
     314:	1c0000a0 	stcne	0, cr0, [r0], {160}	; 0xa0
     318:	000002b8 			; <UNDEFINED> instruction: 0x000002b8
     31c:	00008024 	andeq	r8, r0, r4, lsr #32
     320:	00000054 	andeq	r0, r0, r4, asr r0
     324:	036c0a01 	cmneq	ip, #4096	; 0x1000
     328:	d11d0000 	tstle	sp, r0
     32c:	0c000002 	stceq	0, cr0, [r0], {2}
     330:	0002c81e 	andeq	ip, r2, lr, lsl r8
     334:	bc030600 	stclt	6, cr0, [r3], {-0}
     338:	9f0000a7 	svcls	0x000000a7
     33c:	0080241f 	addeq	r2, r0, pc, lsl r4
     340:	00005400 	andeq	r5, r0, r0, lsl #8
     344:	02da2000 	sbcseq	r2, sl, #0
     348:	00210000 	eoreq	r0, r1, r0
     34c:	50210000 	eorpl	r0, r1, r0
     350:	30000002 	andcc	r0, r0, r2
     354:	14000080 	strne	r0, [r0], #-128	; 0x80
     358:	02000000 	andeq	r0, r0, #0
     35c:	02601e58 	rsbeq	r1, r0, #88, 28	; 0x580
     360:	03060000 	movweq	r0, #24576	; 0x6000
     364:	0000a7bc 			; <UNDEFINED> instruction: 0x0000a7bc
     368:	0000009f 	muleq	r0, pc, r0	; <UNPREDICTABLE>
     36c:	00808422 	addeq	r8, r0, r2, lsr #8
     370:	000b0300 	andeq	r0, fp, r0, lsl #6
     374:	80982300 	addshi	r2, r8, r0, lsl #6
     378:	0b0a0000 	bleq	280380 <__bss_end__+0x273790>
     37c:	03a30000 			; <UNDEFINED> instruction: 0x03a30000
     380:	01240000 	teqeq	r4, r0
     384:	243b0153 	ldrtcs	r0, [fp], #-339	; 0x153
     388:	03055201 	movweq	r5, #20993	; 0x5201
     38c:	0000a0b4 	strheq	sl, [r0], -r4
     390:	05510124 	ldrbeq	r0, [r1, #-292]	; 0x124
     394:	009e8c03 	addseq	r8, lr, r3, lsl #24
     398:	50012400 	andpl	r2, r1, r0, lsl #8
     39c:	9e680305 	cdpls	3, 6, cr0, cr8, cr5, {0}
     3a0:	22000000 	andcs	r0, r0, #0
     3a4:	0000809c 	muleq	r0, ip, r0
     3a8:	00000b20 	andeq	r0, r0, r0, lsr #22
     3ac:	9a040600 	bls	101bb4 <__bss_end__+0xf4fc4>
     3b0:	07000001 	streq	r0, [r0, -r1]
     3b4:	0000009c 	muleq	r0, ip, r0
     3b8:	0001ce16 	andeq	ip, r1, r6, lsl lr
     3bc:	a54b0200 	strbge	r0, [fp, #-512]	; 0x200
     3c0:	03000001 	movweq	r0, #1
     3c4:	000003e8 	andeq	r0, r0, r8, ror #7
     3c8:	02006317 	andeq	r6, r0, #1543503872	; 0x5c000000
     3cc:	00024a4b 	andeq	r4, r2, fp, asr #20
     3d0:	00652500 	rsbeq	r2, r5, r0, lsl #10
     3d4:	01a54c02 			; <UNDEFINED> instruction: 0x01a54c02
     3d8:	29260000 	stmdbcs	r6!, {}	; <UNPREDICTABLE>
     3dc:	f8000001 			; <UNDEFINED> instruction: 0xf8000001
     3e0:	ce000003 	cdpgt	0, 0, cr0, cr0, cr3, {0}
     3e4:	00000001 	andeq	r0, r0, r1
     3e8:	00008a08 	andeq	r8, r0, r8, lsl #20
     3ec:	0003f800 	andeq	pc, r3, r0, lsl #16
     3f0:	00810900 	addeq	r0, r1, r0, lsl #18
     3f4:	00060000 	andeq	r0, r6, r0
     3f8:	0003e807 	andeq	lr, r3, r7, lsl #16
     3fc:	00ea2700 	rsceq	r2, sl, r0, lsl #14
     400:	0f010000 	svceq	0x00010000
     404:	00000025 	andeq	r0, r0, r5, lsr #32
     408:	000080c8 	andeq	r8, r0, r8, asr #1
     40c:	00000164 	andeq	r0, r0, r4, ror #2
     410:	05f49c01 	ldrbeq	r9, [r4, #3073]!	; 0xc01
     414:	631a0000 	tstvs	sl, #0
     418:	ad0f0100 	stfges	f0, [pc, #-0]	; 420 <__code_start__-0x7be0>
     41c:	4c000003 	stcmi	0, cr0, [r0], {3}
     420:	25000000 	strcs	r0, [r0, #-0]
     424:	14010065 	strne	r0, [r1], #-101	; 0x65
     428:	000001a5 	andeq	r0, r0, r5, lsr #3
     42c:	0001291b 	andeq	r2, r1, fp, lsl r9
     430:	0005f400 	andeq	pc, r5, r0, lsl #8
     434:	a4030500 	strge	r0, [r3], #-1280	; 0x500
     438:	1c0000a0 	stcne	0, cr0, [r0], {160}	; 0xa0
     43c:	0000029e 	muleq	r0, lr, r2
     440:	000080d0 	ldrdeq	r8, [r0], -r0
     444:	00000018 	andeq	r0, r0, r8, lsl r0
     448:	045b1101 	ldrbeq	r1, [fp], #-257	; 0x101
     44c:	ae1e0000 	cdpge	0, 1, cr0, cr14, cr0, {0}
     450:	06000002 	streq	r0, [r0], -r2
     454:	00a7bc03 	adceq	fp, r7, r3, lsl #24
     458:	1c009f00 	stcne	15, cr9, [r0], {-0}
     45c:	000003b8 			; <UNDEFINED> instruction: 0x000003b8
     460:	000080f0 	strdeq	r8, [r0], -r0
     464:	0000006c 	andeq	r0, r0, ip, rrx
     468:	05251401 	streq	r1, [r5, #-1025]!	; 0x401
     46c:	c8280000 	stmdagt	r8!, {}	; <UNPREDICTABLE>
     470:	9f000003 	svcls	0x00000003
     474:	1f000000 	svcne	0x00000000
     478:	000080f0 	strdeq	r8, [r0], -r0
     47c:	0000006c 	andeq	r0, r0, ip, rrx
     480:	0003d120 	andeq	sp, r3, r0, lsr #2
     484:	0000c700 	andeq	ip, r0, r0, lsl #14
     488:	03da2900 	bicseq	r2, sl, #0, 18
     48c:	03050000 	movweq	r0, #20480	; 0x5000
     490:	0000a0ac 	andeq	sl, r0, ip, lsr #1
     494:	00026a2a 	andeq	r6, r2, sl, lsr #20
     498:	0080f000 	addeq	pc, r0, r0
     49c:	00000000 	andeq	r0, r0, r0
     4a0:	e2500200 	subs	r0, r0, #0, 4
     4a4:	28000004 	stmdacs	r0, {r2}
     4a8:	00000283 	andeq	r0, r0, r3, lsl #5
     4ac:	00000131 	andeq	r0, r0, r1, lsr r1
     4b0:	00027a28 	andeq	r7, r2, r8, lsr #20
     4b4:	00009f00 	andeq	r9, r0, r0, lsl #30
     4b8:	00002b00 	andeq	r2, r0, r0, lsl #22
     4bc:	8c200000 	stchi	0, cr0, [r0], #-0
     4c0:	59000002 	stmdbpl	r0, {r1}
     4c4:	21000001 	tstcs	r0, r1
     4c8:	00000230 	andeq	r0, r0, r0, lsr r2
     4cc:	000080f0 	strdeq	r8, [r0], -r0
     4d0:	00000010 	andeq	r0, r0, r0, lsl r0
     4d4:	40284302 	eormi	r4, r8, r2, lsl #6
     4d8:	9f000002 	svcls	0x00000002
     4dc:	00000000 	andeq	r0, r0, r0
     4e0:	44220000 	strtmi	r0, [r2], #-0
     4e4:	03000081 	movweq	r0, #129	; 0x81
     4e8:	2300000b 	movwcs	r0, #11
     4ec:	00008158 	andeq	r8, r0, r8, asr r1
     4f0:	00000b0a 	andeq	r0, r0, sl, lsl #22
     4f4:	0000051a 	andeq	r0, r0, sl, lsl r5
     4f8:	02530124 	subseq	r0, r3, #36, 2
     4fc:	01245108 	teqeq	r4, r8, lsl #2
     500:	ac030552 	cfstr32ge	mvfx0, [r3], {82}	; 0x52
     504:	240000a0 	strcs	r0, [r0], #-160	; 0xa0
     508:	03055101 	movweq	r5, #20737	; 0x5101
     50c:	00009ee8 	andeq	r9, r0, r8, ror #29
     510:	05500124 	ldrbeq	r0, [r0, #-292]	; 0x124
     514:	009ea803 	addseq	sl, lr, r3, lsl #16
     518:	5c220000 	stcpl	0, cr0, [r2], #-0
     51c:	20000081 	andcs	r0, r0, r1, lsl #1
     520:	0000000b 	andeq	r0, r0, fp
     524:	029e1c00 	addseq	r1, lr, #0, 24
     528:	815c0000 	cmphi	ip, r0
     52c:	00180000 	andseq	r0, r8, r0
     530:	15010000 	strne	r0, [r1, #-0]
     534:	00000542 	andeq	r0, r0, r2, asr #10
     538:	0002ae28 	andeq	sl, r2, r8, lsr #28
     53c:	00017900 	andeq	r7, r1, r0, lsl #18
     540:	9e1c0000 	cdpls	0, 1, cr0, cr12, cr0, {0}
     544:	a8000002 	stmdage	r0, {r1}
     548:	18000081 	stmdane	r0, {r0, r7}
     54c:	01000000 	mrseq	r0, (UNDEF: 0)
     550:	00055f17 	andeq	r5, r5, r7, lsl pc
     554:	02ae2800 	adceq	r2, lr, #0, 16
     558:	01a10000 			; <UNDEFINED> instruction: 0x01a10000
     55c:	22000000 	andcs	r0, r0, #0
     560:	00008180 	andeq	r8, r0, r0, lsl #3
     564:	00000b03 	andeq	r0, r0, r3, lsl #22
     568:	00819c23 	addeq	r9, r1, r3, lsr #24
     56c:	000b0a00 	andeq	r0, fp, r0, lsl #20
     570:	0005a000 	andeq	sl, r5, r0
     574:	53012400 	movwpl	r2, #5120	; 0x1400
     578:	01244501 	teqeq	r4, r1, lsl #10
     57c:	a4030552 	strge	r0, [r3], #-1362	; 0x552
     580:	240000a0 	strcs	r0, [r0], #-160	; 0xa0
     584:	03055101 	movweq	r5, #20737	; 0x5101
     588:	00009e8c 	andeq	r9, r0, ip, lsl #29
     58c:	05500124 	ldrbeq	r0, [r0, #-292]	; 0x124
     590:	009f4003 	addseq	r4, pc, r3
     594:	7d022400 	cfstrsvc	mvf2, [r2, #-0]
     598:	54030500 	strpl	r0, [r3], #-1280	; 0x500
     59c:	0000009f 	muleq	r0, pc, r0	; <UNPREDICTABLE>
     5a0:	0081a022 	addeq	sl, r1, r2, lsr #32
     5a4:	000b2000 	andeq	r2, fp, r0
     5a8:	81cc2200 	bichi	r2, ip, r0, lsl #4
     5ac:	0b030000 	bleq	c05b4 <__bss_end__+0xb39c4>
     5b0:	e8230000 	stmda	r3!, {}	; <UNPREDICTABLE>
     5b4:	0a000081 	beq	7c0 <__code_start__-0x7840>
     5b8:	ea00000b 	b	5ec <__code_start__-0x7a14>
     5bc:	24000005 	strcs	r0, [r0], #-5
     5c0:	47015301 	strmi	r5, [r1, -r1, lsl #6]
     5c4:	05520124 	ldrbeq	r0, [r2, #-292]	; 0x124
     5c8:	00a0a403 	adceq	sl, r0, r3, lsl #8
     5cc:	51012400 	tstpl	r1, r0, lsl #8
     5d0:	9e8c0305 	cdpls	3, 8, cr0, cr12, cr5, {0}
     5d4:	01240000 	teqeq	r4, r0
     5d8:	40030550 	andmi	r0, r3, r0, asr r5
     5dc:	2400009f 	strcs	r0, [r0], #-159	; 0x9f
     5e0:	05007d02 	streq	r7, [r0, #-3330]	; 0xd02
     5e4:	009f5403 	addseq	r5, pc, r3, lsl #8
     5e8:	ec220000 	stc	0, cr0, [r2], #-0
     5ec:	20000081 	andcs	r0, r0, r1, lsl #1
     5f0:	0000000b 	andeq	r0, r0, fp
     5f4:	00009c07 	andeq	r9, r0, r7, lsl #24
     5f8:	00da2c00 	sbcseq	r2, sl, r0, lsl #24
     5fc:	99020000 	stmdbls	r2, {}	; <UNPREDICTABLE>
     600:	00063003 	andeq	r3, r6, r3
     604:	00631700 	rsbeq	r1, r3, r0, lsl #14
     608:	024a9902 	subeq	r9, sl, #32768	; 0x8000
     60c:	7b2d0000 	blvc	b40614 <__bss_end__+0xb33a24>
     610:	02000000 	andeq	r0, r0, #0
     614:	00003799 	muleq	r0, r9, r7
     618:	01292600 	teqeq	r9, r0, lsl #12
     61c:	06300000 	ldrteq	r0, [r0], -r0
     620:	00da0000 	sbcseq	r0, sl, r0
     624:	65250000 	strvs	r0, [r5, #-0]!
     628:	a5a20200 	strge	r0, [r2, #512]!	; 0x200
     62c:	00000001 	andeq	r0, r0, r1
     630:	00009c07 	andeq	r9, r0, r7, lsl #24
     634:	00d71900 	sbcseq	r1, r7, r0, lsl #18
     638:	1b010000 	blne	40640 <__bss_end__+0x33a50>
     63c:	0000822c 	andeq	r8, r0, ip, lsr #4
     640:	0000020c 	andeq	r0, r0, ip, lsl #4
     644:	089b9c01 	ldmeq	fp, {r0, sl, fp, ip, pc}
     648:	631a0000 	tstvs	sl, #0
     64c:	ad1b0100 	ldfges	f0, [fp, #-0]
     650:	c9000003 	stmdbgt	r0, {r0, r1}
     654:	21000001 	tstcs	r0, r1
     658:	000005f9 	strdeq	r0, [r0], -r9
     65c:	00008234 	andeq	r8, r0, r4, lsr r2
     660:	000001a8 	andeq	r0, r0, r8, lsr #3
     664:	0e1d1c01 	cdpeq	12, 1, cr1, cr13, cr1, {0}
     668:	00000006 	andeq	r0, r0, r6
     66c:	0006051e 	andeq	r0, r6, lr, lsl r5
     670:	bc030600 	stclt	6, cr0, [r3], {-0}
     674:	9f0000a7 	svcls	0x000000a7
     678:	0082341f 	addeq	r3, r2, pc, lsl r4
     67c:	0001a800 	andeq	sl, r1, r0, lsl #16
     680:	06262000 	strteq	r2, [r6], -r0
     684:	01ea0000 	mvneq	r0, r0
     688:	19290000 	stmdbne	r9!, {}	; <UNPREDICTABLE>
     68c:	05000006 	streq	r0, [r0, #-6]
     690:	00a09c03 	adceq	r9, r0, r3, lsl #24
     694:	02301c00 	eorseq	r1, r0, #0, 24
     698:	82800000 	addhi	r0, r0, #0
     69c:	00080000 	andeq	r0, r8, r0
     6a0:	9f020000 	svcls	0x00020000
     6a4:	000006b5 			; <UNDEFINED> instruction: 0x000006b5
     6a8:	0002401e 	andeq	r4, r2, lr, lsl r0
     6ac:	bc030600 	stclt	6, cr0, [r3], {-0}
     6b0:	9f0000a7 	svcls	0x000000a7
     6b4:	02501c00 	subseq	r1, r0, #0, 24
     6b8:	82b40000 	adcshi	r0, r4, #0
     6bc:	001c0000 	andseq	r0, ip, r0
     6c0:	a0020000 	andge	r0, r2, r0
     6c4:	000006d5 	ldrdeq	r0, [r0], -r5
     6c8:	0002601e 	andeq	r6, r2, lr, lsl r0
     6cc:	bc030600 	stclt	6, cr0, [r3], {-0}
     6d0:	9f0000a7 	svcls	0x000000a7
     6d4:	029e1c00 	addseq	r1, lr, #0, 24
     6d8:	82fc0000 	rscshi	r0, ip, #0
     6dc:	00180000 	andseq	r0, r8, r0
     6e0:	a1020000 	mrsge	r0, (UNDEF: 2)
     6e4:	000006f5 	strdeq	r0, [r0], -r5
     6e8:	0002ae1e 	andeq	sl, r2, lr, lsl lr
     6ec:	bc030600 	stclt	6, cr0, [r3], {-0}
     6f0:	9f0000a7 	svcls	0x000000a7
     6f4:	026a2a00 	rsbeq	r2, sl, #0, 20
     6f8:	83400000 	movthi	r0, #0
     6fc:	00180000 	andseq	r0, r8, r0
     700:	a3020000 	movwge	r0, #8192	; 0x2000
     704:	0000074c 	andeq	r0, r0, ip, asr #14
     708:	0002831e 	andeq	r8, r2, lr, lsl r3
     70c:	81f20600 	mvnshi	r0, r0, lsl #12
     710:	00000006 	andeq	r0, r0, r6
     714:	00027a1e 	andeq	r7, r2, lr, lsl sl
     718:	bc030600 	stclt	6, cr0, [r3], {-0}
     71c:	9f0000a7 	svcls	0x000000a7
     720:	0000182b 	andeq	r1, r0, fp, lsr #16
     724:	028c2000 	addeq	r2, ip, #0
     728:	022b0000 	eoreq	r0, fp, #0
     72c:	30210000 	eorcc	r0, r1, r0
     730:	40000002 	andmi	r0, r0, r2
     734:	14000083 	strne	r0, [r0], #-131	; 0x83
     738:	02000000 	andeq	r0, r0, #0
     73c:	02401e43 	subeq	r1, r0, #1072	; 0x430
     740:	03060000 	movweq	r0, #24576	; 0x6000
     744:	0000a7bc 			; <UNDEFINED> instruction: 0x0000a7bc
     748:	0000009f 	muleq	r0, pc, r0	; <UNPREDICTABLE>
     74c:	00824823 	addeq	r4, r2, r3, lsr #16
     750:	000b2700 	andeq	r2, fp, r0, lsl #14
     754:	00076c00 	andeq	r6, r7, r0, lsl #24
     758:	52012400 	andpl	r2, r1, #0, 8
     75c:	20140a03 	andscs	r0, r4, r3, lsl #20
     760:	01510124 	cmpeq	r1, r4, lsr #2
     764:	50012430 	andpl	r2, r1, r0, lsr r4
     768:	00007402 	andeq	r7, r0, r2, lsl #8
     76c:	00829422 	addeq	r9, r2, r2, lsr #8
     770:	000b0300 	andeq	r0, fp, r0, lsl #6
     774:	82b02300 	adcshi	r2, r0, #0, 6
     778:	0b0a0000 	bleq	280780 <__bss_end__+0x273b90>
     77c:	07ae0000 	streq	r0, [lr, r0]!
     780:	01240000 	teqeq	r4, r0
     784:	9f080253 	svcls	0x00080253
     788:	05520124 	ldrbeq	r0, [r2, #-292]	; 0x124
     78c:	00a09c03 	adceq	r9, r0, r3, lsl #24
     790:	51012400 	tstpl	r1, r0, lsl #8
     794:	9ee80305 	cdpls	3, 14, cr0, cr8, cr5, {0}
     798:	01240000 	teqeq	r4, r0
     79c:	40030550 	andmi	r0, r3, r0, asr r5
     7a0:	2400009f 	strcs	r0, [r0], #-159	; 0x9f
     7a4:	05007d02 	streq	r7, [r0, #-3330]	; 0xd02
     7a8:	009f6403 	addseq	r6, pc, r3, lsl #8
     7ac:	b4220000 	strtlt	r0, [r2], #-0
     7b0:	20000082 	andcs	r0, r0, r2, lsl #1
     7b4:	2200000b 	andcs	r0, r0, #11
     7b8:	000082dc 	ldrdeq	r8, [r0], -ip
     7bc:	00000b03 	andeq	r0, r0, r3, lsl #22
     7c0:	0082f823 	addeq	pc, r2, r3, lsr #16
     7c4:	000b0a00 	andeq	r0, fp, r0, lsl #20
     7c8:	0007f900 	andeq	pc, r7, r0, lsl #18
     7cc:	53012400 	movwpl	r2, #5120	; 0x1400
     7d0:	24a00802 	strtcs	r0, [r0], #2050	; 0x802
     7d4:	03055201 	movweq	r5, #20993	; 0x5201
     7d8:	0000a09c 	muleq	r0, ip, r0
     7dc:	05510124 	ldrbeq	r0, [r1, #-292]	; 0x124
     7e0:	009ee803 	addseq	lr, lr, r3, lsl #16
     7e4:	50012400 	andpl	r2, r1, r0, lsl #8
     7e8:	9f400305 	svcls	0x00400305
     7ec:	02240000 	eoreq	r0, r4, #0
     7f0:	0305007d 	movweq	r0, #20605	; 0x507d
     7f4:	00009f70 	andeq	r9, r0, r0, ror pc
     7f8:	82fc2200 	rscshi	r2, ip, #0, 4
     7fc:	0b200000 	bleq	800804 <__bss_end__+0x7f3c14>
     800:	20220000 	eorcs	r0, r2, r0
     804:	03000083 	movweq	r0, #131	; 0x83
     808:	2300000b 	movwcs	r0, #11
     80c:	0000833c 	andeq	r8, r0, ip, lsr r3
     810:	00000b0a 	andeq	r0, r0, sl, lsl #22
     814:	00000844 	andeq	r0, r0, r4, asr #16
     818:	02530124 	subseq	r0, r3, #36, 2
     81c:	0124a108 	teqeq	r4, r8, lsl #2
     820:	9c030552 	cfstr32ls	mvfx0, [r3], {82}	; 0x52
     824:	240000a0 	strcs	r0, [r0], #-160	; 0xa0
     828:	03055101 	movweq	r5, #20737	; 0x5101
     82c:	00009ee8 	andeq	r9, r0, r8, ror #29
     830:	05500124 	ldrbeq	r0, [r0, #-292]	; 0x124
     834:	009f4003 	addseq	r4, pc, r3
     838:	7d022400 	cfstrsvc	mvf2, [r2, #-0]
     83c:	7c030500 	cfstr32vc	mvfx0, [r3], {-0}
     840:	0000009f 	muleq	r0, pc, r0	; <UNPREDICTABLE>
     844:	00834022 	addeq	r4, r3, r2, lsr #32
     848:	000b2000 	andeq	r2, fp, r0
     84c:	83bc2200 			; <UNDEFINED> instruction: 0x83bc2200
     850:	0b030000 	bleq	c0858 <__bss_end__+0xb3c68>
     854:	d8230000 	stmdale	r3!, {}	; <UNPREDICTABLE>
     858:	0a000083 	beq	a6c <__code_start__-0x7594>
     85c:	8f00000b 	svchi	0x0000000b
     860:	24000008 	strcs	r0, [r0], #-8
     864:	08025301 	stmdaeq	r2, {r0, r8, r9, ip, lr}
     868:	520124a3 	andpl	r2, r1, #-1560281088	; 0xa3000000
     86c:	a09c0305 	addsge	r0, ip, r5, lsl #6
     870:	01240000 	teqeq	r4, r0
     874:	e8030551 	stmda	r3, {r0, r4, r6, r8, sl}
     878:	2400009e 	strcs	r0, [r0], #-158	; 0x9e
     87c:	03055001 	movweq	r5, #20481	; 0x5001
     880:	00009f40 	andeq	r9, r0, r0, asr #30
     884:	007d0224 	rsbseq	r0, sp, r4, lsr #4
     888:	9f900305 	svcls	0x00900305
     88c:	22000000 	andcs	r0, r0, #0
     890:	000083dc 	ldrdeq	r8, [r0], -ip
     894:	00000b20 	andeq	r0, r0, r0, lsr #22
     898:	27000000 	strcs	r0, [r0, -r0]
     89c:	000001f8 	strdeq	r0, [r0], -r8
     8a0:	00252101 	eoreq	r2, r5, r1, lsl #2
     8a4:	84380000 	ldrthi	r0, [r8], #-0
     8a8:	00700000 	rsbseq	r0, r0, r0
     8ac:	9c010000 	stcls	0, cr0, [r1], {-0}
     8b0:	0000091c 	andeq	r0, r0, ip, lsl r9
     8b4:	0100631a 	tsteq	r0, sl, lsl r3
     8b8:	0003ad21 	andeq	sl, r3, r1, lsr #26
     8bc:	00024b00 	andeq	r4, r2, r0, lsl #22
     8c0:	01291b00 	teqeq	r9, r0, lsl #22
     8c4:	092c0000 	stmdbeq	ip!, {}	; <UNPREDICTABLE>
     8c8:	03050000 	movweq	r0, #20480	; 0x5000
     8cc:	0000a090 	muleq	r0, r0, r0
     8d0:	00845c22 	addeq	r5, r4, r2, lsr #24
     8d4:	000b0300 	andeq	r0, fp, r0, lsl #6
     8d8:	84782300 	ldrbthi	r2, [r8], #-768	; 0x300
     8dc:	0b0a0000 	bleq	2808e4 <__bss_end__+0x273cf4>
     8e0:	09120000 	ldmdbeq	r2, {}	; <UNPREDICTABLE>
     8e4:	01240000 	teqeq	r4, r0
     8e8:	22080253 	andcs	r0, r8, #805306373	; 0x30000005
     8ec:	05520124 	ldrbeq	r0, [r2, #-292]	; 0x124
     8f0:	00a09003 	adceq	r9, r0, r3
     8f4:	51012400 	tstpl	r1, r0, lsl #8
     8f8:	9e8c0305 	cdpls	3, 8, cr0, cr12, cr5, {0}
     8fc:	01240000 	teqeq	r4, r0
     900:	40030550 	andmi	r0, r3, r0, asr r5
     904:	2400009f 	strcs	r0, [r0], #-159	; 0x9f
     908:	05007d02 	streq	r7, [r0, #-3330]	; 0xd02
     90c:	009fb803 	addseq	fp, pc, r3, lsl #16
     910:	7c220000 	stcvc	0, cr0, [r2], #-0
     914:	20000084 	andcs	r0, r0, r4, lsl #1
     918:	0000000b 	andeq	r0, r0, fp
     91c:	00008a08 	andeq	r8, r0, r8, lsl #20
     920:	00092c00 	andeq	r2, r9, r0, lsl #24
     924:	00810900 	addeq	r0, r1, r0, lsl #18
     928:	000b0000 	andeq	r0, fp, r0
     92c:	00091c07 	andeq	r1, r9, r7, lsl #24
     930:	01852e00 	orreq	r2, r5, r0, lsl #28
     934:	26010000 	strcs	r0, [r1], -r0
     938:	0000019a 	muleq	r0, sl, r1
     93c:	000084a8 	andeq	r8, r0, r8, lsr #9
     940:	00000070 	andeq	r0, r0, r0, ror r0
     944:	952f9c01 	strls	r9, [pc, #-3073]!	; fffffd4b <__bss_end__+0xffff315b>
     948:	01000000 	mrseq	r0, (UNDEF: 0)
     94c:	00851830 	addeq	r1, r5, r0, lsr r8
     950:	0000e800 	andeq	lr, r0, r0, lsl #16
     954:	c19c0100 	orrsgt	r0, ip, r0, lsl #2
     958:	3000000a 	andcc	r0, r0, sl
     95c:	34010063 	strcc	r0, [r1], #-99	; 0x63
     960:	000000ac 	andeq	r0, r0, ip, lsr #1
     964:	25409102 	strbcs	r9, [r0, #-258]	; 0x102
     968:	3501006e 	strcc	r0, [r1, #-110]	; 0x6e
     96c:	00000025 	andeq	r0, r0, r5, lsr #32
     970:	0001291b 	andeq	r2, r1, fp, lsl r9
     974:	000ac100 	andeq	ip, sl, r0, lsl #2
     978:	bc030500 	cfstr32lt	mvfx0, [r3], {-0}
     97c:	220000a0 	andcs	r0, r0, #160	; 0xa0
     980:	00008524 	andeq	r8, r0, r4, lsr #10
     984:	00000b46 	andeq	r0, r0, r6, asr #22
     988:	00852c23 	addeq	r2, r5, r3, lsr #24
     98c:	00093100 	andeq	r3, r9, r0, lsl #2
     990:	00099d00 	andeq	r9, r9, r0, lsl #26
     994:	50012400 	andpl	r2, r1, r0, lsl #8
     998:	7fb89103 	svcvc	0x00b89103
     99c:	85342300 	ldrhi	r2, [r4, #-768]!	; 0x300
     9a0:	0b4d0000 	bleq	13409a8 <__bss_end__+0x1333db8>
     9a4:	09b20000 	ldmibeq	r2!, {}	; <UNPREDICTABLE>
     9a8:	01240000 	teqeq	r4, r0
     9ac:	b8910350 	ldmlt	r1, {r4, r6, r8, r9}
     9b0:	4c22007f 	stcmi	0, cr0, [r2], #-508	; 0xfffffe04
     9b4:	03000085 	movweq	r0, #133	; 0x85
     9b8:	2300000b 	movwcs	r0, #11
     9bc:	00008568 	andeq	r8, r0, r8, ror #10
     9c0:	00000b0a 	andeq	r0, r0, sl, lsl #22
     9c4:	000009f4 	strdeq	r0, [r0], -r4
     9c8:	02530124 	subseq	r0, r3, #36, 2
     9cc:	01243708 	teqeq	r4, r8, lsl #14
     9d0:	bc030552 	cfstr32lt	mvfx0, [r3], {82}	; 0x52
     9d4:	240000a0 	strcs	r0, [r0], #-160	; 0xa0
     9d8:	03055101 	movweq	r5, #20737	; 0x5101
     9dc:	00009e8c 	andeq	r9, r0, ip, lsl #29
     9e0:	05500124 	ldrbeq	r0, [r0, #-292]	; 0x124
     9e4:	009f4003 	addseq	r4, pc, r3
     9e8:	7d022400 	cfstrsvc	mvf2, [r2, #-0]
     9ec:	d4030500 	strle	r0, [r3], #-1280	; 0x500
     9f0:	0000009f 	muleq	r0, pc, r0	; <UNPREDICTABLE>
     9f4:	00856c22 	addeq	r6, r5, r2, lsr #24
     9f8:	000b2000 	andeq	r2, fp, r0
     9fc:	85702200 	ldrbhi	r2, [r0, #-512]!	; 0x200
     a00:	0b030000 	bleq	c0a08 <__bss_end__+0xb3e18>
     a04:	94230000 	strtls	r0, [r3], #-0
     a08:	0a000085 	beq	c24 <__code_start__-0x73dc>
     a0c:	3500000b 	strcc	r0, [r0, #-11]
     a10:	2400000a 	strcs	r0, [r0], #-10
     a14:	08025301 	stmdaeq	r2, {r0, r8, r9, ip, lr}
     a18:	52012439 	andpl	r2, r1, #956301312	; 0x39000000
     a1c:	a0bc0305 	adcsge	r0, ip, r5, lsl #6
     a20:	01240000 	teqeq	r4, r0
     a24:	8c030551 	cfstr32hi	mvfx0, [r3], {81}	; 0x51
     a28:	2400009e 	strcs	r0, [r0], #-158	; 0x9e
     a2c:	03055001 	movweq	r5, #20481	; 0x5001
     a30:	00009fe0 	andeq	r9, r0, r0, ror #31
     a34:	85982200 	ldrhi	r2, [r8, #512]	; 0x200
     a38:	0b200000 	bleq	800a40 <__bss_end__+0x7f3e50>
     a3c:	a8220000 	stmdage	r2!, {}	; <UNPREDICTABLE>
     a40:	03000085 	movweq	r0, #133	; 0x85
     a44:	2300000b 	movwcs	r0, #11
     a48:	000085c4 	andeq	r8, r0, r4, asr #11
     a4c:	00000b0a 	andeq	r0, r0, sl, lsl #22
     a50:	00000a80 	andeq	r0, r0, r0, lsl #21
     a54:	02530124 	subseq	r0, r3, #36, 2
     a58:	01243b08 	teqeq	r4, r8, lsl #22
     a5c:	bc030552 	cfstr32lt	mvfx0, [r3], {82}	; 0x52
     a60:	240000a0 	strcs	r0, [r0], #-160	; 0xa0
     a64:	03055101 	movweq	r5, #20737	; 0x5101
     a68:	00009e8c 	andeq	r9, r0, ip, lsl #29
     a6c:	05500124 	ldrbeq	r0, [r0, #-292]	; 0x124
     a70:	009f4003 	addseq	r4, pc, r3
     a74:	7d022400 	cfstrsvc	mvf2, [r2, #-0]
     a78:	28030500 	stmdacs	r3, {r8, sl}
     a7c:	000000a0 	andeq	r0, r0, r0, lsr #1
     a80:	0085c822 	addeq	ip, r5, r2, lsr #16
     a84:	000b2000 	andeq	r2, fp, r0
     a88:	85d02300 	ldrbhi	r2, [r0, #768]	; 0x300
     a8c:	0b0a0000 	bleq	280a94 <__bss_end__+0x273ea4>
     a90:	0aa00000 	beq	fe800a98 <__bss_end__+0xfe7f3ea8>
     a94:	01240000 	teqeq	r4, r0
     a98:	34030550 	strcc	r0, [r3], #-1360	; 0x550
     a9c:	000000a0 	andeq	r0, r0, r0, lsr #1
     aa0:	0085dc23 	addeq	sp, r5, r3, lsr #24
     aa4:	000b0a00 	andeq	r0, fp, r0, lsl #20
     aa8:	000ab700 	andeq	fp, sl, r0, lsl #14
     aac:	50012400 	andpl	r2, r1, r0, lsl #8
     ab0:	a0400305 	subge	r0, r0, r5, lsl #6
     ab4:	22000000 	andcs	r0, r0, #0
     ab8:	000085e0 	andeq	r8, r0, r0, ror #11
     abc:	00000b20 	andeq	r0, r0, r0, lsr #22
     ac0:	009c0700 	addseq	r0, ip, r0, lsl #14
     ac4:	ae310000 	cdpge	0, 3, cr0, cr1, cr0, {0}
     ac8:	01000001 	tsteq	r0, r1
     acc:	00002506 	andeq	r2, r0, r6, lsl #10
     ad0:	b4030500 	strlt	r0, [r3], #-1280	; 0x500
     ad4:	310000a7 	smlatbcc	r0, r7, r0, r0
     ad8:	000001b9 			; <UNDEFINED> instruction: 0x000001b9
     adc:	00250601 	eoreq	r0, r5, r1, lsl #12
     ae0:	03050000 	movweq	r0, #20480	; 0x5000
     ae4:	0000a7b8 			; <UNDEFINED> instruction: 0x0000a7b8
     ae8:	00716330 	rsbseq	r6, r1, r0, lsr r3
     aec:	02200701 	eoreq	r0, r0, #262144	; 0x40000
     af0:	03050000 	movweq	r0, #20480	; 0x5000
     af4:	0000a7bc 			; <UNDEFINED> instruction: 0x0000a7bc
     af8:	00011b32 	andeq	r1, r1, r2, lsr fp
     afc:	25c20800 	strbcs	r0, [r2, #2048]	; 0x800
     b00:	33000000 	movwcc	r0, #0
     b04:	0000010c 	andeq	r0, r0, ip, lsl #2
     b08:	6f341e06 	svcvs	0x00341e06
     b0c:	06000006 	streq	r0, [r0], -r6
     b10:	00002529 	andeq	r2, r0, r9, lsr #10
     b14:	000b2000 	andeq	r2, fp, r0
     b18:	00910f00 	addseq	r0, r1, r0, lsl #30
     b1c:	00350000 	eorseq	r0, r5, r0
     b20:	00015233 	andeq	r5, r1, r3, lsr r2
     b24:	34650600 	strbtcc	r0, [r5], #-1536	; 0x600
     b28:	0000021a 	andeq	r0, r0, sl, lsl r2
     b2c:	00881b07 	addeq	r1, r8, r7, lsl #22
     b30:	0b460000 	bleq	1180b38 <__bss_end__+0x1173f48>
     b34:	880f0000 	stmdahi	pc, {}	; <UNPREDICTABLE>
     b38:	0f000000 	svceq	0x00000000
     b3c:	00000025 	andeq	r0, r0, r5, lsr #32
     b40:	00002c0f 	andeq	r2, r0, pc, lsl #24
     b44:	26330000 	ldrtcs	r0, [r3], -r0
     b48:	06000002 	streq	r0, [r0], -r2
     b4c:	01fe368d 	mvnseq	r3, sp, lsl #13
     b50:	4e050000 	cdpmi	0, 0, cr0, cr5, cr0, {0}
     b54:	00000025 	andeq	r0, r0, r5, lsr #32
     b58:	0003ad0f 	andeq	sl, r3, pc, lsl #26
     b5c:	d7000000 	strle	r0, [r0, -r0]
     b60:	0400000b 	streq	r0, [r0], #-11
     b64:	0002d400 	andeq	sp, r2, r0, lsl #8
     b68:	33010400 	movwcc	r0, #5120	; 0x1400
     b6c:	01000002 	tsteq	r0, r2
     b70:	00000313 	andeq	r0, r0, r3, lsl r3
     b74:	00000000 	andeq	r0, r0, r0
     b78:	00008600 	andeq	r8, r0, r0, lsl #12
     b7c:	00000378 	andeq	r0, r0, r8, ror r3
     b80:	000002ac 	andeq	r0, r0, ip, lsr #5
     b84:	69050402 	stmdbvs	r5, {r1, sl}
     b88:	0300746e 	movweq	r7, #1134	; 0x46e
     b8c:	00a70704 	adceq	r0, r7, r4, lsl #14
     b90:	01030000 	mrseq	r0, (UNDEF: 3)
     b94:	0001a206 	andeq	sl, r1, r6, lsl #4
     b98:	05020300 	streq	r0, [r2, #-768]	; 0x300
     b9c:	000001c4 	andeq	r0, r0, r4, asr #3
     ba0:	c8050403 	stmdagt	r5, {r0, r1, sl}
     ba4:	03000000 	movweq	r0, #0
     ba8:	00c30508 	sbceq	r0, r3, r8, lsl #10
     bac:	01030000 	mrseq	r0, (UNDEF: 3)
     bb0:	0001a008 	andeq	sl, r1, r8
     bb4:	07020300 	streq	r0, [r2, -r0, lsl #6]
     bb8:	0000013f 	andeq	r0, r0, pc, lsr r1
     bbc:	0001ef04 	andeq	lr, r1, r4, lsl #30
     bc0:	68340300 	ldmdavs	r4!, {r8, r9}
     bc4:	03000000 	movweq	r0, #0
     bc8:	00a20704 	adceq	r0, r2, r4, lsl #14
     bcc:	08030000 	stmdaeq	r3, {}	; <UNPREDICTABLE>
     bd0:	00009d07 	andeq	r9, r0, r7, lsl #26
     bd4:	07040300 	streq	r0, [r4, -r0, lsl #6]
     bd8:	00000164 	andeq	r0, r0, r4, ror #2
     bdc:	01030405 	tsteq	r3, r5, lsl #8
     be0:	0001a908 	andeq	sl, r1, r8, lsl #18
     be4:	8c040600 	stchi	6, cr0, [r4], {-0}
     be8:	07000000 	streq	r0, [r0, -r0]
     bec:	0000007f 	andeq	r0, r0, pc, ror r0
     bf0:	00048b04 	andeq	r8, r4, r4, lsl #22
     bf4:	9c8a0200 	sfmls	f0, 4, [sl], {0}
     bf8:	06000000 	streq	r0, [r0], -r0
     bfc:	0000a204 	andeq	sl, r0, r4, lsl #4
     c00:	00b70800 	adcseq	r0, r7, r0, lsl #16
     c04:	b7090000 	strlt	r0, [r9, -r0]
     c08:	09000000 	stmdbeq	r0, {}	; <UNPREDICTABLE>
     c0c:	0000005d 	andeq	r0, r0, sp, asr r0
     c10:	00005d09 	andeq	r5, r0, r9, lsl #26
     c14:	04060000 	streq	r0, [r6], #-0
     c18:	0000005d 	andeq	r0, r0, sp, asr r0
     c1c:	0004570a 	andeq	r5, r4, sl, lsl #14
     c20:	5d5f0200 	lfmpl	f0, 2, [pc, #-0]	; c28 <__code_start__-0x73d8>
     c24:	03000000 	movweq	r0, #0
     c28:	000000d9 	ldrdeq	r0, [r0], -r9
     c2c:	7465720b 	strbtvc	r7, [r5], #-523	; 0x20b
     c30:	5d5f0200 	lfmpl	f0, 2, [pc, #-0]	; c38 <__code_start__-0x73c8>
     c34:	00000000 	andeq	r0, r0, r0
     c38:	0003d70a 	andeq	sp, r3, sl, lsl #14
     c3c:	5da60200 	sfmpl	f0, 4, [r6]
     c40:	03000000 	movweq	r0, #0
     c44:	000000f5 	strdeq	r0, [r0], -r5
     c48:	7465720b 	strbtvc	r7, [r5], #-523	; 0x20b
     c4c:	5da60200 	sfmpl	f0, 4, [r6]
     c50:	00000000 	andeq	r0, r0, r0
     c54:	0004290a 	andeq	r2, r4, sl, lsl #18
     c58:	2c700200 	lfmcs	f0, 2, [r0], #-0
     c5c:	03000000 	movweq	r0, #0
     c60:	0000010f 	andeq	r0, r0, pc, lsl #2
     c64:	0200720c 	andeq	r7, r0, #12, 4	; 0xc0000000
     c68:	00005d70 	andeq	r5, r0, r0, ror sp
     c6c:	460a0000 	strmi	r0, [sl], -r0
     c70:	01000003 	tsteq	r0, r3
     c74:	00005d18 	andeq	r5, r0, r8, lsl sp
     c78:	012b0300 	teqeq	fp, r0, lsl #6
     c7c:	720b0000 	andvc	r0, fp, #0
     c80:	01007465 	tsteq	r0, r5, ror #8
     c84:	00005d18 	andeq	r5, r0, r8, lsl sp
     c88:	b10d0000 	mrslt	r0, (UNDEF: 13)
     c8c:	01000004 	tsteq	r0, r4
     c90:	0141031e 	cmpeq	r1, lr, lsl r3
     c94:	760c0000 	strvc	r0, [ip], -r0
     c98:	5d1e0100 	ldfpls	f0, [lr, #-0]
     c9c:	00000000 	andeq	r0, r0, r0
     ca0:	0003890d 	andeq	r8, r3, sp, lsl #18
     ca4:	03260100 	teqeq	r6, #0, 2
     ca8:	00000157 	andeq	r0, r0, r7, asr r1
     cac:	0100760c 	tsteq	r0, ip, lsl #12
     cb0:	00005d26 	andeq	r5, r0, r6, lsr #26
     cb4:	6f0d0000 	svcvs	0x000d0000
     cb8:	01000004 	tsteq	r0, r4
     cbc:	016d030d 	cmneq	sp, sp, lsl #6
     cc0:	760c0000 	strvc	r0, [ip], -r0
     cc4:	5d0d0100 	stfpls	f0, [sp, #-0]
     cc8:	00000000 	andeq	r0, r0, r0
     ccc:	0004090a 	andeq	r0, r4, sl, lsl #18
     cd0:	2c660200 	sfmcs	f0, 2, [r6], #-0
     cd4:	03000000 	movweq	r0, #0
     cd8:	00000189 	andeq	r0, r0, r9, lsl #3
     cdc:	0003c50e 	andeq	ip, r3, lr, lsl #10
     ce0:	5d670200 	sfmpl	f0, 2, [r7, #-0]
     ce4:	00000000 	andeq	r0, r0, r0
     ce8:	0004950a 	andeq	r9, r4, sl, lsl #10
     cec:	5d560200 	lfmpl	f0, 2, [r6, #-0]
     cf0:	03000000 	movweq	r0, #0
     cf4:	000001a5 	andeq	r0, r0, r5, lsr #3
     cf8:	7465720b 	strbtvc	r7, [r5], #-523	; 0x20b
     cfc:	5d560200 	lfmpl	f0, 2, [r6, #-0]
     d00:	00000000 	andeq	r0, r0, r0
     d04:	0003cf0a 	andeq	ip, r3, sl, lsl #30
     d08:	5d630200 	sfmpl	f0, 2, [r3, #-0]
     d0c:	03000000 	movweq	r0, #0
     d10:	000001c1 	andeq	r0, r0, r1, asr #3
     d14:	7465720b 	strbtvc	r7, [r5], #-523	; 0x20b
     d18:	5d630200 	sfmpl	f0, 2, [r3, #-0]
     d1c:	00000000 	andeq	r0, r0, r0
     d20:	0003340d 	andeq	r3, r3, sp, lsl #8
     d24:	03320100 	teqeq	r2, #0, 2
     d28:	000001d7 	ldrdeq	r0, [r0], -r7
     d2c:	0100760c 	tsteq	r0, ip, lsl #12
     d30:	00005d32 	andeq	r5, r0, r2, lsr sp
     d34:	a30a0000 	movwge	r0, #40960	; 0xa000
     d38:	01000003 	tsteq	r0, r3
     d3c:	00005d8d 	andeq	r5, r0, sp, lsl #27
     d40:	01f30300 	mvnseq	r0, r0, lsl #6
     d44:	720b0000 	andvc	r0, fp, #0
     d48:	01007465 	tsteq	r0, r5, ror #8
     d4c:	00005d8d 	andeq	r5, r0, sp, lsl #27
     d50:	650d0000 	strvs	r0, [sp, #-0]
     d54:	01000003 	tsteq	r0, r3
     d58:	0209038e 	andeq	r0, r9, #939524098	; 0x38000002
     d5c:	760c0000 	strvc	r0, [ip], -r0
     d60:	5d8e0100 	stfpls	f0, [lr]
     d64:	00000000 	andeq	r0, r0, r0
     d68:	00041b0d 	andeq	r1, r4, sp, lsl #22
     d6c:	038c0100 	orreq	r0, ip, #0, 2
     d70:	0000021f 	andeq	r0, r0, pc, lsl r2
     d74:	0100760c 	tsteq	r0, ip, lsl #12
     d78:	00005d8c 	andeq	r5, r0, ip, lsl #27
     d7c:	200a0000 	andcs	r0, sl, r0
     d80:	02000003 	andeq	r0, r0, #3
     d84:	00002ca9 	andeq	r2, r0, r9, lsr #25
     d88:	02390300 	eorseq	r0, r9, #0, 6
     d8c:	720b0000 	andvc	r0, fp, #0
     d90:	2caa0200 	sfmcs	f0, 4, [sl]
     d94:	00000000 	andeq	r0, r0, r0
     d98:	0003ce0a 	andeq	ip, r3, sl, lsl #28
     d9c:	5d970200 	lfmpl	f0, 4, [r7]
     da0:	03000000 	movweq	r0, #0
     da4:	00000255 	andeq	r0, r0, r5, asr r2
     da8:	7465720b 	strbtvc	r7, [r5], #-523	; 0x20b
     dac:	5d970200 	lfmpl	f0, 4, [r7]
     db0:	00000000 	andeq	r0, r0, r0
     db4:	00037c0f 	andeq	r7, r3, pc, lsl #24
     db8:	00360100 	eorseq	r0, r6, r0, lsl #2
     dbc:	b0000086 	andlt	r0, r0, r6, lsl #1
     dc0:	01000000 	mrseq	r0, (UNDEF: 0)
     dc4:	0004309c 	muleq	r4, ip, r0
     dc8:	00751000 	rsbseq	r1, r5, r0
     dcc:	36010000 	strcc	r0, [r1], -r0
     dd0:	0000007d 	andeq	r0, r0, sp, ror r0
     dd4:	0000026c 	andeq	r0, r0, ip, ror #4
     dd8:	0004cf10 	andeq	ip, r4, r0, lsl pc
     ddc:	91360100 	teqls	r6, r0, lsl #2
     de0:	b1000000 	mrslt	r0, (UNDEF: 0)
     de4:	11000002 	tstne	r0, r2
     de8:	0000033d 	andeq	r0, r0, sp, lsr r3
     dec:	005d3901 	subseq	r3, sp, r1, lsl #18
     df0:	02f60000 	rscseq	r0, r6, #0
     df4:	29120000 	ldmdbcs	r2, {}	; <UNPREDICTABLE>
     df8:	40000001 	andmi	r0, r0, r1
     dfc:	05000004 	streq	r0, [r0, #-4]
     e00:	00a1ec03 	adceq	lr, r1, r3, lsl #24
     e04:	03731100 	cmneq	r3, #0, 2
     e08:	43010000 	movwmi	r0, #4096	; 0x1000
     e0c:	0000005d 	andeq	r0, r0, sp, asr r0
     e10:	00000322 	andeq	r0, r0, r2, lsr #6
     e14:	00010f13 	andeq	r0, r1, r3, lsl pc
     e18:	00860800 	addeq	r0, r6, r0, lsl #16
     e1c:	00000400 	andeq	r0, r0, r0, lsl #8
     e20:	dc390100 	ldfles	f0, [r9], #-0
     e24:	14000002 	strne	r0, [r0], #-2
     e28:	00008608 	andeq	r8, r0, r8, lsl #12
     e2c:	00000004 	andeq	r0, r0, r4
     e30:	00011f15 	andeq	r1, r1, r5, lsl pc
     e34:	00034e00 	andeq	r4, r3, r0, lsl #28
     e38:	13000000 	movwne	r0, #0
     e3c:	0000012b 	andeq	r0, r0, fp, lsr #2
     e40:	00008610 	andeq	r8, r0, r0, lsl r6
     e44:	00000004 	andeq	r0, r0, r4
     e48:	02f93f01 	rscseq	r3, r9, #1, 30
     e4c:	37160000 	ldrcc	r0, [r6, -r0]
     e50:	61000001 	tstvs	r0, r1
     e54:	00000003 	andeq	r0, r0, r3
     e58:	00010f13 	andeq	r0, r1, r3, lsl pc
     e5c:	00861400 	addeq	r1, r6, r0, lsl #8
     e60:	00000400 	andeq	r0, r0, r0, lsl #8
     e64:	20410100 	subcs	r0, r1, r0, lsl #2
     e68:	14000003 	strne	r0, [r0], #-3
     e6c:	00008614 	andeq	r8, r0, r4, lsl r6
     e70:	00000004 	andeq	r0, r0, r4
     e74:	00011f15 	andeq	r1, r1, r5, lsl pc
     e78:	00037f00 	andeq	r7, r3, r0, lsl #30
     e7c:	13000000 	movwne	r0, #0
     e80:	00000141 	andeq	r0, r0, r1, asr #2
     e84:	00008644 	andeq	r8, r0, r4, asr #12
     e88:	00000004 	andeq	r0, r0, r4
     e8c:	033d4601 	teqeq	sp, #1048576	; 0x100000
     e90:	4d160000 	ldcmi	0, cr0, [r6, #-0]
     e94:	22000001 	andcs	r0, r0, #1
     e98:	00000003 	andeq	r0, r0, r3
     e9c:	00012b13 	andeq	r2, r1, r3, lsl fp
     ea0:	00864800 	addeq	r4, r6, r0, lsl #16
     ea4:	00000800 	andeq	r0, r0, r0, lsl #16
     ea8:	58500100 	ldmdapl	r0, {r8}^
     eac:	17000003 	strne	r0, [r0, -r3]
     eb0:	00000137 	andeq	r0, r0, r7, lsr r1
     eb4:	130001ff 	movwne	r0, #511	; 0x1ff
     eb8:	0000010f 	andeq	r0, r0, pc, lsl #2
     ebc:	00008650 	andeq	r8, r0, r0, asr r6
     ec0:	00000004 	andeq	r0, r0, r4
     ec4:	037f5201 	cmneq	pc, #268435456	; 0x10000000
     ec8:	50140000 	andspl	r0, r4, r0
     ecc:	04000086 	streq	r0, [r0], #-134	; 0x86
     ed0:	15000000 	strne	r0, [r0, #-0]
     ed4:	0000011f 	andeq	r0, r0, pc, lsl r1
     ed8:	0000039d 	muleq	r0, sp, r3
     edc:	57130000 	ldrpl	r0, [r3, -r0]
     ee0:	80000001 	andhi	r0, r0, r1
     ee4:	08000086 	stmdaeq	r0, {r1, r2, r7}
     ee8:	01000000 	mrseq	r0, (UNDEF: 0)
     eec:	00039954 	andeq	r9, r3, r4, asr r9
     ef0:	01631800 	cmneq	r3, r0, lsl #16
     ef4:	00000000 	andeq	r0, r0, r0
     ef8:	00862419 	addeq	r2, r6, r9, lsl r4
     efc:	000baf00 	andeq	sl, fp, r0, lsl #30
     f00:	86401a00 	strbhi	r1, [r0], -r0, lsl #20
     f04:	0bb60000 	bleq	fed80f0c <__bss_end__+0xfed7431c>
     f08:	03db0000 	bicseq	r0, fp, #0
     f0c:	011b0000 	tsteq	fp, r0
     f10:	41080253 	tstmi	r8, r3, asr r2
     f14:	0552011b 	ldrbeq	r0, [r2, #-283]	; 0x11b
     f18:	00a1ec03 	adceq	lr, r1, r3, lsl #24
     f1c:	51011b00 	tstpl	r1, r0, lsl #22
     f20:	a0c40305 	sbcge	r0, r4, r5, lsl #6
     f24:	011b0000 	tsteq	fp, r0
     f28:	40030550 	andmi	r0, r3, r0, asr r5
     f2c:	1b00009f 	blne	11b0 <__code_start__-0x6e50>
     f30:	05007d02 	streq	r7, [r0, #-3330]	; 0xd02
     f34:	00a0d403 	adceq	sp, r0, r3, lsl #8
     f38:	44190000 	ldrmi	r0, [r9], #-0
     f3c:	cc000086 	stcgt	0, cr0, [r0], {134}	; 0x86
     f40:	1900000b 	stmdbne	r0, {r0, r1, r3}
     f44:	00008660 	andeq	r8, r0, r0, ror #12
     f48:	00000baf 	andeq	r0, r0, pc, lsr #23
     f4c:	00867c1a 	addeq	r7, r6, sl, lsl ip
     f50:	000bb600 	andeq	fp, fp, r0, lsl #12
     f54:	00042600 	andeq	r2, r4, r0, lsl #12
     f58:	53011b00 	movwpl	r1, #6912	; 0x1b00
     f5c:	1b520802 	blne	1482f6c <__bss_end__+0x147637c>
     f60:	03055201 	movweq	r5, #20993	; 0x5201
     f64:	0000a1ec 	andeq	sl, r0, ip, ror #3
     f68:	0551011b 	ldrbeq	r0, [r1, #-283]	; 0x11b
     f6c:	00a0c403 	adceq	ip, r0, r3, lsl #8
     f70:	50011b00 	andpl	r1, r1, r0, lsl #22
     f74:	9f400305 	svcls	0x00400305
     f78:	021b0000 	andseq	r0, fp, #0
     f7c:	0305007d 	movweq	r0, #20605	; 0x507d
     f80:	0000a0d4 	ldrdeq	sl, [r0], -r4
     f84:	86801900 	strhi	r1, [r0], r0, lsl #18
     f88:	0bcc0000 	bleq	ff300f90 <__bss_end__+0xff2f43a0>
     f8c:	1c000000 	stcne	0, cr0, [r0], {-0}
     f90:	0000007f 	andeq	r0, r0, pc, ror r0
     f94:	00000440 	andeq	r0, r0, r0, asr #8
     f98:	0000761d 	andeq	r7, r0, sp, lsl r6
     f9c:	07000c00 	streq	r0, [r0, -r0, lsl #24]
     fa0:	00000430 	andeq	r0, r0, r0, lsr r4
     fa4:	0002ff0a 	andeq	pc, r2, sl, lsl #30
     fa8:	2c760200 	lfmcs	f0, 2, [r6], #-0
     fac:	03000000 	movweq	r0, #0
     fb0:	0000046c 	andeq	r0, r0, ip, ror #8
     fb4:	0200720b 	andeq	r7, r0, #-1342177280	; 0xb0000000
     fb8:	00002c77 	andeq	r2, r0, r7, ror ip
     fbc:	01291e00 	teqeq	r9, r0, lsl #28
     fc0:	047c0000 	ldrbteq	r0, [ip], #-0
     fc4:	02ff0000 	rscseq	r0, pc, #0
     fc8:	1c000000 	stcne	0, cr0, [r0], {-0}
     fcc:	0000007f 	andeq	r0, r0, pc, ror r0
     fd0:	0000047c 	andeq	r0, r0, ip, ror r4
     fd4:	0000761d 	andeq	r7, r0, sp, lsl r6
     fd8:	07001300 	streq	r1, [r0, -r0, lsl #6]
     fdc:	0000046c 	andeq	r0, r0, ip, ror #8
     fe0:	0002d70f 	andeq	sp, r2, pc, lsl #14
     fe4:	b0590100 	subslt	r0, r9, r0, lsl #2
     fe8:	dc000086 	stcle	0, cr0, [r0], {134}	; 0x86
     fec:	01000000 	mrseq	r0, (UNDEF: 0)
     ff0:	0006b09c 	muleq	r6, ip, r0
     ff4:	63701f00 	cmnvs	r0, #0, 30
     ff8:	2c590100 	ldfcse	f0, [r9], {-0}
     ffc:	bb000000 	bllt	1004 <__code_start__-0x6ffc>
    1000:	20000003 	andcs	r0, r0, r3
    1004:	00000446 	andeq	r0, r0, r6, asr #8
    1008:	00255a01 	eoreq	r5, r5, r1, lsl #20
    100c:	03050000 	movweq	r0, #20480	; 0x5000
    1010:	0000c7dc 	ldrdeq	ip, [r0], -ip	; <UNPREDICTABLE>
    1014:	00012912 	andeq	r2, r1, r2, lsl r9
    1018:	0006c000 	andeq	ip, r6, r0
    101c:	fc030500 	stc2	5, cr0, [r3], {-0}
    1020:	0e0000a1 	cdpeq	0, 0, cr0, cr0, cr1, {5}
    1024:	00000076 	andeq	r0, r0, r6, ror r0
    1028:	005d6b01 	subseq	r6, sp, r1, lsl #22
    102c:	6d130000 	ldcvs	0, cr0, [r3, #-0]
    1030:	bc000001 	stclt	0, cr0, [r0], {1}
    1034:	04000086 	streq	r0, [r0], #-134	; 0x86
    1038:	01000000 	mrseq	r0, (UNDEF: 0)
    103c:	0005115c 	andeq	r1, r5, ip, asr r1
    1040:	86bc1400 	ldrthi	r1, [ip], r0, lsl #8
    1044:	00040000 	andeq	r0, r4, r0
    1048:	7d210000 	stcvc	0, cr0, [r1, #-0]
    104c:	22000001 	andcs	r0, r0, #1
    1050:	000000bd 	strheq	r0, [r0], -sp
    1054:	000086bc 			; <UNDEFINED> instruction: 0x000086bc
    1058:	00000004 	andeq	r0, r0, r4
    105c:	bc146702 	ldclt	7, cr6, [r4], {2}
    1060:	04000086 	streq	r0, [r0], #-134	; 0x86
    1064:	21000000 	mrscs	r0, (UNDEF: 0)
    1068:	000000cd 	andeq	r0, r0, sp, asr #1
    106c:	00000000 	andeq	r0, r0, r0
    1070:	00044513 	andeq	r4, r4, r3, lsl r5
    1074:	0086c000 	addeq	ip, r6, r0
    1078:	00002c00 	andeq	r2, r0, r0, lsl #24
    107c:	c4620100 	strbtgt	r0, [r2], #-256	; 0x100
    1080:	14000005 	strne	r0, [r0], #-5
    1084:	000086c0 	andeq	r8, r0, r0, asr #13
    1088:	0000002c 	andeq	r0, r0, ip, lsr #32
    108c:	00045521 	andeq	r5, r4, r1, lsr #10
    1090:	045e2300 	ldrbeq	r2, [lr], #-768	; 0x300
    1094:	03050000 	movweq	r0, #20480	; 0x5000
    1098:	0000a210 	andeq	sl, r0, r0, lsl r2
    109c:	0000bd13 	andeq	fp, r0, r3, lsl sp
    10a0:	0086c000 	addeq	ip, r6, r0
    10a4:	00000400 	andeq	r0, r0, r0, lsl #8
    10a8:	64770200 	ldrbtvs	r0, [r7], #-512	; 0x200
    10ac:	14000005 	strne	r0, [r0], #-5
    10b0:	000086c0 	andeq	r8, r0, r0, asr #13
    10b4:	00000004 	andeq	r0, r0, r4
    10b8:	0000cd15 	andeq	ip, r0, r5, lsl sp
    10bc:	00043200 	andeq	r3, r4, r0, lsl #4
    10c0:	13000000 	movwne	r0, #0
    10c4:	000000f5 	strdeq	r0, [r0], -r5
    10c8:	000086c4 	andeq	r8, r0, r4, asr #13
    10cc:	00000004 	andeq	r0, r0, r4
    10d0:	05817802 	streq	r7, [r1, #2050]	; 0x802
    10d4:	05160000 	ldreq	r0, [r6, #-0]
    10d8:	32000001 	andcc	r0, r0, #1
    10dc:	00000004 	andeq	r0, r0, r4
    10e0:	0086d419 	addeq	sp, r6, r9, lsl r4
    10e4:	000baf00 	andeq	sl, fp, r0, lsl #30
    10e8:	86e81a00 	strbthi	r1, [r8], r0, lsl #20
    10ec:	0bb60000 	bleq	fed810f4 <__bss_end__+0xfed74504>
    10f0:	05b90000 	ldreq	r0, [r9, #0]!
    10f4:	011b0000 	tsteq	fp, r0
    10f8:	79080253 	stmdbvc	r8, {r0, r1, r4, r6, r9}
    10fc:	0552011b 	ldrbeq	r0, [r2, #-283]	; 0x11b
    1100:	00a21003 	adceq	r1, r2, r3
    1104:	51011b00 	tstpl	r1, r0, lsl #22
    1108:	a1240305 	teqge	r4, r5, lsl #6
    110c:	011b0000 	tsteq	fp, r0
    1110:	ec030550 	cfstr32	mvfx0, [r3], {80}	; 0x50
    1114:	000000a0 	andeq	r0, r0, r0, lsr #1
    1118:	0086ec19 	addeq	lr, r6, r9, lsl ip
    111c:	000bcc00 	andeq	ip, fp, r0, lsl #24
    1120:	13000000 	movwne	r0, #0
    1124:	00000189 	andeq	r0, r0, r9, lsl #3
    1128:	000086ec 	andeq	r8, r0, ip, ror #13
    112c:	00000004 	andeq	r0, r0, r4
    1130:	05eb6701 	strbeq	r6, [fp, #1793]!	; 0x701
    1134:	ec140000 	ldc	0, cr0, [r4], {-0}
    1138:	04000086 	streq	r0, [r0], #-134	; 0x86
    113c:	15000000 	strne	r0, [r0, #-0]
    1140:	00000199 	muleq	r0, r9, r1
    1144:	00000445 	andeq	r0, r0, r5, asr #8
    1148:	a5130000 	ldrge	r0, [r3, #-0]
    114c:	54000001 	strpl	r0, [r0], #-1
    1150:	04000087 	streq	r0, [r0], #-135	; 0x87
    1154:	01000000 	mrseq	r0, (UNDEF: 0)
    1158:	00060e6b 	andeq	r0, r6, fp, ror #28
    115c:	87541400 	ldrbhi	r1, [r4, -r0, lsl #8]
    1160:	00040000 	andeq	r0, r4, r0
    1164:	b5210000 	strlt	r0, [r1, #-0]!
    1168:	00000001 	andeq	r0, r0, r1
    116c:	87001900 	strhi	r1, [r0, -r0, lsl #18]
    1170:	0baf0000 	bleq	febc1178 <__bss_end__+0xfebb4588>
    1174:	1c1a0000 	ldcne	0, cr0, [sl], {-0}
    1178:	b6000087 	strlt	r0, [r0], -r7, lsl #1
    117c:	5000000b 	andpl	r0, r0, fp
    1180:	1b000006 	blne	11a0 <__code_start__-0x6e60>
    1184:	08025301 	stmdaeq	r2, {r0, r8, r9, ip, lr}
    1188:	52011b67 	andpl	r1, r1, #105472	; 0x19c00
    118c:	a1fc0305 	mvnsge	r0, r5, lsl #6
    1190:	011b0000 	tsteq	fp, r0
    1194:	c4030551 	strgt	r0, [r3], #-1361	; 0x551
    1198:	1b0000a0 	blne	1420 <__code_start__-0x6be0>
    119c:	03055001 	movweq	r5, #20481	; 0x5001
    11a0:	00009f40 	andeq	r9, r0, r0, asr #30
    11a4:	007d021b 	rsbseq	r0, sp, fp, lsl r2
    11a8:	a1340305 	teqge	r4, r5, lsl #6
    11ac:	19000000 	stmdbne	r0, {}	; <UNPREDICTABLE>
    11b0:	00008720 	andeq	r8, r0, r0, lsr #14
    11b4:	00000bcc 	andeq	r0, r0, ip, asr #23
    11b8:	00873419 	addeq	r3, r7, r9, lsl r4
    11bc:	000baf00 	andeq	sl, fp, r0, lsl #30
    11c0:	87501a00 	ldrbhi	r1, [r0, -r0, lsl #20]
    11c4:	0bb60000 	bleq	fed811cc <__bss_end__+0xfed745dc>
    11c8:	069b0000 	ldreq	r0, [fp], r0
    11cc:	011b0000 	tsteq	fp, r0
    11d0:	69080253 	stmdbvs	r8, {r0, r1, r4, r6, r9}
    11d4:	0552011b 	ldrbeq	r0, [r2, #-283]	; 0x11b
    11d8:	00a1fc03 	adceq	pc, r1, r3, lsl #24
    11dc:	51011b00 	tstpl	r1, r0, lsl #22
    11e0:	a0c40305 	sbcge	r0, r4, r5, lsl #6
    11e4:	011b0000 	tsteq	fp, r0
    11e8:	40030550 	andmi	r0, r3, r0, asr r5
    11ec:	1b00009f 	blne	1470 <__code_start__-0x6b90>
    11f0:	05007d02 	streq	r7, [r0, #-3330]	; 0xd02
    11f4:	00a14803 	adceq	r4, r1, r3, lsl #16
    11f8:	54190000 	ldrpl	r0, [r9], #-0
    11fc:	cc000087 	stcgt	0, cr0, [r0], {135}	; 0x87
    1200:	2400000b 	strcs	r0, [r0], #-11
    1204:	00008760 	andeq	r8, r0, r0, ror #14
    1208:	0150011b 	cmpeq	r0, fp, lsl r1
    120c:	1c000030 	stcne	0, cr0, [r0], {48}	; 0x30
    1210:	0000007f 	andeq	r0, r0, pc, ror r0
    1214:	000006c0 	andeq	r0, r0, r0, asr #13
    1218:	0000761d 	andeq	r7, r0, sp, lsl r6
    121c:	07001100 	streq	r1, [r0, -r0, lsl #2]
    1220:	000006b0 			; <UNDEFINED> instruction: 0x000006b0
    1224:	00043a0f 	andeq	r3, r4, pc, lsl #20
    1228:	8c720100 	ldfhie	f0, [r2], #-0
    122c:	3c000087 	stccc	0, cr0, [r0], {135}	; 0x87
    1230:	01000000 	mrseq	r0, (UNDEF: 0)
    1234:	0007359c 	muleq	r7, ip, r5
    1238:	034f2000 	movteq	r2, #61440	; 0xf000
    123c:	73010000 	movwvc	r0, #4096	; 0x1000
    1240:	00000025 	andeq	r0, r0, r5, lsr #32
    1244:	c7e00305 	strbgt	r0, [r0, r5, lsl #6]!
    1248:	76250000 	strtvc	r0, [r5], -r0
    124c:	5d7c0100 	ldfple	f0, [ip, #-0]
    1250:	00000000 	andeq	r0, r0, r0
    1254:	01c11380 	biceq	r1, r1, r0, lsl #7
    1258:	87b00000 	ldrhi	r0, [r0, r0]!
    125c:	00080000 	andeq	r0, r8, r0
    1260:	7e010000 	cdpvc	0, 0, cr0, cr1, cr0, {0}
    1264:	00000711 	andeq	r0, r0, r1, lsl r7
    1268:	0001cd17 	andeq	ip, r1, r7, lsl sp
    126c:	00800000 	addeq	r0, r0, r0
    1270:	00015713 	andeq	r5, r1, r3, lsl r7
    1274:	0087b800 	addeq	fp, r7, r0, lsl #16
    1278:	00001000 	andeq	r1, r0, r0
    127c:	2b800100 	blcs	fe001684 <__bss_end__+0xfdff4a94>
    1280:	18000007 	stmdane	r0, {r0, r1, r2}
    1284:	00000163 	andeq	r0, r0, r3, ror #2
    1288:	a4190000 	ldrge	r0, [r9], #-0
    128c:	d3000087 	movwle	r0, #135	; 0x87
    1290:	0000000b 	andeq	r0, r0, fp
    1294:	0004a60f 	andeq	sl, r4, pc, lsl #12
    1298:	c8a80100 	stmiagt	r8!, {r8}
    129c:	34000087 	strcc	r0, [r0], #-135	; 0x87
    12a0:	01000000 	mrseq	r0, (UNDEF: 0)
    12a4:	0008119c 	muleq	r8, ip, r1
    12a8:	00762600 	rsbseq	r2, r6, r0, lsl #12
    12ac:	a8010000 	stmdage	r1, {}	; <UNPREDICTABLE>
    12b0:	0000005d 	andeq	r0, r0, sp, asr r0
    12b4:	cf265001 	svcgt	0x00265001
    12b8:	01000004 	tsteq	r0, r4
    12bc:	000091a8 	andeq	r9, r0, r8, lsr #3
    12c0:	11510100 	cmpne	r1, r0, lsl #2
    12c4:	00000482 	andeq	r0, r0, r2, lsl #9
    12c8:	005da901 	subseq	sl, sp, r1, lsl #18
    12cc:	04720000 	ldrbteq	r0, [r2], #-0
    12d0:	4e200000 	cdpmi	0, 2, cr0, cr0, cr0, {0}
    12d4:	01000004 	tsteq	r0, r4
    12d8:	00005db1 			; <UNDEFINED> instruction: 0x00005db1
    12dc:	13500100 	cmpne	r0, #0, 2
    12e0:	000001d7 	ldrdeq	r0, [r0], -r7
    12e4:	000087c8 	andeq	r8, r0, r8, asr #15
    12e8:	00000004 	andeq	r0, r0, r4
    12ec:	07a7a901 	streq	sl, [r7, r1, lsl #18]!
    12f0:	c8140000 	ldmdagt	r4, {}	; <UNPREDICTABLE>
    12f4:	04000087 	streq	r0, [r0], #-135	; 0x87
    12f8:	15000000 	strne	r0, [r0, #-0]
    12fc:	000001e7 	andeq	r0, r0, r7, ror #3
    1300:	00000493 	muleq	r0, r3, r4
    1304:	f3130000 	vhadd.u16	d0, d3, d0
    1308:	d0000001 	andle	r0, r0, r1
    130c:	04000087 	streq	r0, [r0], #-135	; 0x87
    1310:	01000000 	mrseq	r0, (UNDEF: 0)
    1314:	0007c4af 	andeq	ip, r7, pc, lsr #9
    1318:	01ff1600 	mvnseq	r1, r0, lsl #12
    131c:	04a60000 	strteq	r0, [r6], #0
    1320:	13000000 	movwne	r0, #0
    1324:	00000209 	andeq	r0, r0, r9, lsl #4
    1328:	000087d4 	ldrdeq	r8, [r0], -r4
    132c:	00000004 	andeq	r0, r0, r4
    1330:	07dfb401 	ldrbeq	fp, [pc, r1, lsl #8]
    1334:	15270000 	strne	r0, [r7, #-0]!
    1338:	01000002 	tsteq	r0, r2
    133c:	f3130050 	vqadd.u16	q0, <illegal reg q1.5>, q0
    1340:	d8000001 	stmdale	r0, {r0}
    1344:	08000087 	stmdaeq	r0, {r0, r1, r2, r7}
    1348:	01000000 	mrseq	r0, (UNDEF: 0)
    134c:	0007fabe 			; <UNDEFINED> instruction: 0x0007fabe
    1350:	01ff1700 	mvnseq	r1, r0, lsl #14
    1354:	01e70000 	mvneq	r0, r0
    1358:	01572200 	cmpeq	r7, r0, lsl #4
    135c:	87e00000 	strbhi	r0, [r0, r0]!
    1360:	00080000 	andeq	r0, r8, r0
    1364:	bf010000 	svclt	0x00010000
    1368:	00016318 	andeq	r6, r1, r8, lsl r3
    136c:	00000000 	andeq	r0, r0, r0
    1370:	0002e90f 	andeq	lr, r2, pc, lsl #18
    1374:	fcc40100 	stc2l	1, cr0, [r4], {0}
    1378:	98000087 	stmdals	r0, {r0, r1, r2, r7}
    137c:	01000000 	mrseq	r0, (UNDEF: 0)
    1380:	0009449c 	muleq	r9, ip, r4
    1384:	63701f00 	cmnvs	r0, #0, 30
    1388:	2cc40100 	stfcse	f0, [r4], {0}
    138c:	b9000000 	stmdblt	r0, {}	; <UNPREDICTABLE>
    1390:	12000004 	andne	r0, r0, #4
    1394:	00000129 	andeq	r0, r0, r9, lsr #2
    1398:	00000954 	andeq	r0, r0, r4, asr r9
    139c:	a2240305 	eorge	r0, r4, #335544320	; 0x14000000
    13a0:	1f130000 	svcne	0x00130000
    13a4:	08000002 	stmdaeq	r0, {r1}
    13a8:	08000088 	stmdaeq	r0, {r3, r7}
    13ac:	01000000 	mrseq	r0, (UNDEF: 0)
    13b0:	000889c6 	andeq	r8, r8, r6, asr #19
    13b4:	88081400 	stmdahi	r8, {sl, ip}
    13b8:	00080000 	andeq	r0, r8, r0
    13bc:	2f210000 	svccs	0x00210000
    13c0:	22000002 	andcs	r0, r0, #2
    13c4:	000000d9 	ldrdeq	r0, [r0], -r9
    13c8:	00008808 	andeq	r8, r0, r8, lsl #16
    13cc:	00000004 	andeq	r0, r0, r4
    13d0:	0814aa02 	ldmdaeq	r4, {r1, r9, fp, sp, pc}
    13d4:	04000088 	streq	r0, [r0], #-136	; 0x88
    13d8:	15000000 	strne	r0, [r0, #-0]
    13dc:	000000e9 	andeq	r0, r0, r9, ror #1
    13e0:	00000517 	andeq	r0, r0, r7, lsl r5
    13e4:	00000000 	andeq	r0, r0, r0
    13e8:	00023913 	andeq	r3, r2, r3, lsl r9
    13ec:	00886800 	addeq	r6, r8, r0, lsl #16
    13f0:	00000400 	andeq	r0, r0, r0, lsl #8
    13f4:	acca0100 	stfgee	f0, [sl], {0}
    13f8:	14000008 	strne	r0, [r0], #-8
    13fc:	00008868 	andeq	r8, r0, r8, ror #16
    1400:	00000004 	andeq	r0, r0, r4
    1404:	00024921 	andeq	r4, r2, r1, lsr #18
    1408:	19000000 	stmdbne	r0, {}	; <UNPREDICTABLE>
    140c:	0000881c 	andeq	r8, r0, ip, lsl r8
    1410:	00000baf 	andeq	r0, r0, pc, lsr #23
    1414:	0088301a 	addeq	r3, r8, sl, lsl r0
    1418:	000bb600 	andeq	fp, fp, r0, lsl #12
    141c:	0008e400 	andeq	lr, r8, r0, lsl #8
    1420:	53011b00 	movwpl	r1, #6912	; 0x1b00
    1424:	1bc70802 	blne	ff1c3434 <__bss_end__+0xff1b6844>
    1428:	03055201 	movweq	r5, #20993	; 0x5201
    142c:	0000a224 	andeq	sl, r0, r4, lsr #4
    1430:	0551011b 	ldrbeq	r0, [r1, #-283]	; 0x11b
    1434:	00a0c403 	adceq	ip, r0, r3, lsl #8
    1438:	50011b00 	andpl	r1, r1, r0, lsl #22
    143c:	a15c0305 	cmpge	ip, r5, lsl #6
    1440:	19000000 	stmdbne	r0, {}	; <UNPREDICTABLE>
    1444:	00008834 	andeq	r8, r0, r4, lsr r8
    1448:	00000bcc 	andeq	r0, r0, ip, asr #23
    144c:	00884819 	addeq	r4, r8, r9, lsl r8
    1450:	000baf00 	andeq	sl, fp, r0, lsl #30
    1454:	88641a00 	stmdahi	r4!, {r9, fp, ip}^
    1458:	0bb60000 	bleq	fed81460 <__bss_end__+0xfed74870>
    145c:	092f0000 	stmdbeq	pc!, {}	; <UNPREDICTABLE>
    1460:	011b0000 	tsteq	fp, r0
    1464:	c8080253 	stmdagt	r8, {r0, r1, r4, r6, r9}
    1468:	0552011b 	ldrbeq	r0, [r2, #-283]	; 0x11b
    146c:	00a22403 	adceq	r2, r2, r3, lsl #8
    1470:	51011b00 	tstpl	r1, r0, lsl #22
    1474:	a0c40305 	sbcge	r0, r4, r5, lsl #6
    1478:	011b0000 	tsteq	fp, r0
    147c:	40030550 	andmi	r0, r3, r0, asr r5
    1480:	1b00009f 	blne	1704 <__code_start__-0x68fc>
    1484:	05007d02 	streq	r7, [r0, #-3330]	; 0xd02
    1488:	00a19403 	adceq	r9, r1, r3, lsl #8
    148c:	68190000 	ldmdavs	r9, {}	; <UNPREDICTABLE>
    1490:	cc000088 	stcgt	0, cr0, [r0], {136}	; 0x88
    1494:	2400000b 	strcs	r0, [r0], #-11
    1498:	00008874 	andeq	r8, r0, r4, ror r8
    149c:	0150011b 	cmpeq	r0, fp, lsl r1
    14a0:	1c000030 	stcne	0, cr0, [r0], {48}	; 0x30
    14a4:	0000007f 	andeq	r0, r0, pc, ror r0
    14a8:	00000954 	andeq	r0, r0, r4, asr r9
    14ac:	0000761d 	andeq	r7, r0, sp, lsl r6
    14b0:	07001500 	streq	r1, [r0, -r0, lsl #10]
    14b4:	00000944 	andeq	r0, r0, r4, asr #18
    14b8:	0008140f 	andeq	r1, r8, pc, lsl #8
    14bc:	94cd0100 	strbls	r0, [sp], #256	; 0x100
    14c0:	04000088 	streq	r0, [r0], #-136	; 0x88
    14c4:	01000000 	mrseq	r0, (UNDEF: 0)
    14c8:	00097b9c 	muleq	r9, ip, fp
    14cc:	63702800 	cmnvs	r0, #0, 16
    14d0:	2ccd0100 	stfcse	f0, [sp], {0}
    14d4:	01000000 	mrseq	r0, (UNDEF: 0)
    14d8:	920f0050 	andls	r0, pc, #80	; 0x50
    14dc:	01000003 	tsteq	r0, r3
    14e0:	008898d8 	ldrdeq	r9, [r8], r8
    14e4:	00002c00 	andeq	r2, r0, r0, lsl #24
    14e8:	e19c0100 	orrs	r0, ip, r0, lsl #2
    14ec:	12000009 	andne	r0, r0, #9
    14f0:	00000129 	andeq	r0, r0, r9, lsr #2
    14f4:	000009f1 	strdeq	r0, [r0], -r1
    14f8:	a23c0305 	eorsge	r0, ip, #335544320	; 0x14000000
    14fc:	a0190000 	andsge	r0, r9, r0
    1500:	af000088 	svcge	0x00000088
    1504:	1a00000b 	bne	1538 <__code_start__-0x6ac8>
    1508:	000088b4 			; <UNDEFINED> instruction: 0x000088b4
    150c:	00000bb6 			; <UNDEFINED> instruction: 0x00000bb6
    1510:	000009d7 	ldrdeq	r0, [r0], -r7
    1514:	0253011b 	subseq	r0, r3, #-1073741818	; 0xc0000006
    1518:	011bd908 	tsteq	fp, r8, lsl #18
    151c:	3c030552 	cfstr32cc	mvfx0, [r3], {82}	; 0x52
    1520:	1b0000a2 	blne	17b0 <__code_start__-0x6850>
    1524:	03055101 	movweq	r5, #20737	; 0x5101
    1528:	0000a0c4 	andeq	sl, r0, r4, asr #1
    152c:	0550011b 	ldrbeq	r0, [r0, #-283]	; 0x11b
    1530:	00a1a403 	adceq	sl, r1, r3, lsl #8
    1534:	b8190000 	ldmdalt	r9, {}	; <UNPREDICTABLE>
    1538:	cc000088 	stcgt	0, cr0, [r0], {136}	; 0x88
    153c:	0000000b 	andeq	r0, r0, fp
    1540:	00007f1c 	andeq	r7, r0, ip, lsl pc
    1544:	0009f100 	andeq	pc, r9, r0, lsl #2
    1548:	00761d00 	rsbseq	r1, r6, r0, lsl #26
    154c:	00100000 	andseq	r0, r0, r0
    1550:	0009e107 	andeq	lr, r9, r7, lsl #2
    1554:	03b10f00 			; <UNDEFINED> instruction: 0x03b10f00
    1558:	dc010000 	stcle	0, cr0, [r1], {-0}
    155c:	000088c4 	andeq	r8, r0, r4, asr #17
    1560:	00000034 	andeq	r0, r0, r4, lsr r0
    1564:	0ad49c01 	beq	ff528570 <__bss_end__+0xff51b980>
    1568:	76260000 	strtvc	r0, [r6], -r0
    156c:	01000000 	mrseq	r0, (UNDEF: 0)
    1570:	00005ddc 	ldrdeq	r5, [r0], -ip
    1574:	26500100 	ldrbcs	r0, [r0], -r0, lsl #2
    1578:	000004cf 	andeq	r0, r0, pc, asr #9
    157c:	0091dc01 	addseq	sp, r1, r1, lsl #24
    1580:	51010000 	mrspl	r0, (UNDEF: 1)
    1584:	00048211 	andeq	r8, r4, r1, lsl r2
    1588:	5ddd0100 	ldfple	f0, [sp]
    158c:	2a000000 	bcs	1594 <__code_start__-0x6a6c>
    1590:	20000005 	andcs	r0, r0, r5
    1594:	0000044e 	andeq	r0, r0, lr, asr #8
    1598:	005de501 	subseq	lr, sp, r1, lsl #10
    159c:	50010000 	andpl	r0, r1, r0
    15a0:	0001d713 	andeq	sp, r1, r3, lsl r7
    15a4:	0088c400 	addeq	ip, r8, r0, lsl #8
    15a8:	00000400 	andeq	r0, r0, r0, lsl #8
    15ac:	68dd0100 	ldmvs	sp, {r8}^
    15b0:	1400000a 	strne	r0, [r0], #-10
    15b4:	000088c4 	andeq	r8, r0, r4, asr #17
    15b8:	00000004 	andeq	r0, r0, r4
    15bc:	0001e715 	andeq	lr, r1, r5, lsl r7
    15c0:	00054d00 	andeq	r4, r5, r0, lsl #26
    15c4:	13000000 	movwne	r0, #0
    15c8:	000001f3 	strdeq	r0, [r0], -r3
    15cc:	000088cc 	andeq	r8, r0, ip, asr #17
    15d0:	00000004 	andeq	r0, r0, r4
    15d4:	0a85e301 	beq	fe17a1e0 <__bss_end__+0xfe16d5f0>
    15d8:	ff160000 			; <UNDEFINED> instruction: 0xff160000
    15dc:	60000001 	andvs	r0, r0, r1
    15e0:	00000005 	andeq	r0, r0, r5
    15e4:	00020913 	andeq	r0, r2, r3, lsl r9
    15e8:	0088d000 	addeq	sp, r8, r0
    15ec:	00000400 	andeq	r0, r0, r0, lsl #8
    15f0:	a0e80100 	rscge	r0, r8, r0, lsl #2
    15f4:	2700000a 	strcs	r0, [r0, -sl]
    15f8:	00000215 	andeq	r0, r0, r5, lsl r2
    15fc:	13005001 	movwne	r5, #1
    1600:	000001f3 	strdeq	r0, [r0], -r3
    1604:	000088d4 	ldrdeq	r8, [r0], -r4
    1608:	00000008 	andeq	r0, r0, r8
    160c:	0abdf201 	beq	fef7de18 <__bss_end__+0xfef71228>
    1610:	ff290000 			; <UNDEFINED> instruction: 0xff290000
    1614:	e7000001 	str	r0, [r0, -r1]
    1618:	00004001 	andeq	r4, r0, r1
    161c:	00015722 	andeq	r5, r1, r2, lsr #14
    1620:	0088dc00 	addeq	sp, r8, r0, lsl #24
    1624:	00000800 	andeq	r0, r0, r0, lsl #16
    1628:	18f30100 	ldmne	r3!, {r8}^
    162c:	00000163 	andeq	r0, r0, r3, ror #2
    1630:	0f000000 	svceq	0x00000000
    1634:	000003f1 	strdeq	r0, [r0], -r1
    1638:	88f8f801 	ldmhi	r8!, {r0, fp, ip, sp, lr, pc}^
    163c:	00100000 	andseq	r0, r0, r0
    1640:	9c010000 	stcls	0, cr0, [r1], {-0}
    1644:	00000b20 	andeq	r0, r0, r0, lsr #22
    1648:	00007626 	andeq	r7, r0, r6, lsr #12
    164c:	5df80100 	ldfple	f0, [r8]
    1650:	01000000 	mrseq	r0, (UNDEF: 0)
    1654:	04822a50 	streq	r2, [r2], #2640	; 0xa50
    1658:	f9010000 			; <UNDEFINED> instruction: 0xf9010000
    165c:	0000005d 	andeq	r0, r0, sp, asr r0
    1660:	004001e6 	subeq	r0, r0, r6, ror #3
    1664:	0001f32b 	andeq	pc, r1, fp, lsr #6
    1668:	0088f800 	addeq	pc, r8, r0, lsl #16
    166c:	00001000 	andeq	r1, r0, r0
    1670:	01000100 	mrseq	r0, (UNDEF: 16)
    1674:	0001ff29 	andeq	pc, r1, r9, lsr #30
    1678:	4001e600 	andmi	lr, r1, r0, lsl #12
    167c:	2c000000 	stccs	0, cr0, [r0], {-0}
    1680:	00000460 	andeq	r0, r0, r0, ror #8
    1684:	25010901 	strcs	r0, [r1, #-2305]	; 0x901
    1688:	08000000 	stmdaeq	r0, {}	; <UNPREDICTABLE>
    168c:	70000089 	andvc	r0, r0, r9, lsl #1
    1690:	01000000 	mrseq	r0, (UNDEF: 0)
    1694:	000b7c9c 	muleq	fp, ip, ip
    1698:	63702d00 	cmnvs	r0, #0, 26
    169c:	01090100 	mrseq	r0, (UNDEF: 25)
    16a0:	0000002c 	andeq	r0, r0, ip, lsr #32
    16a4:	00000573 	andeq	r0, r0, r3, ror r5
    16a8:	0030722d 	eorseq	r7, r0, sp, lsr #4
    16ac:	5d010901 	stcpl	9, cr0, [r1, #-4]
    16b0:	f8000000 			; <UNDEFINED> instruction: 0xf8000000
    16b4:	2e000005 	cdpcs	0, 0, cr0, cr0, cr5, {0}
    16b8:	0000049e 	muleq	r0, lr, r4
    16bc:	5d010a01 	vstrpl	s0, [r1, #-4]
    16c0:	24000000 	strcs	r0, [r0], #-0
    16c4:	2f000006 	svccs	0x00000006
    16c8:	0000895c 	andeq	r8, r0, ip, asr r9
    16cc:	00000bb6 			; <UNDEFINED> instruction: 0x00000bb6
    16d0:	0550011b 	ldrbeq	r0, [r0, #-283]	; 0x11b
    16d4:	00a1d403 	adceq	sp, r1, r3, lsl #8
    16d8:	20000000 	andcs	r0, r0, r0
    16dc:	000003e0 	andeq	r0, r0, r0, ror #7
    16e0:	00910b01 	addseq	r0, r1, r1, lsl #22
    16e4:	03050000 	movweq	r0, #20480	; 0x5000
    16e8:	0000c7d0 	ldrdeq	ip, [r0], -r0
    16ec:	00035620 	andeq	r5, r3, r0, lsr #12
    16f0:	91890100 	orrls	r0, r9, r0, lsl #2
    16f4:	05000000 	streq	r0, [r0, #-0]
    16f8:	00c7d403 	sbceq	sp, r7, r3, lsl #8
    16fc:	011b3000 	tsteq	fp, r0
    1700:	d5010000 	strle	r0, [r1, #-0]
    1704:	00000025 	andeq	r0, r0, r5, lsr #32
    1708:	c7d80305 	ldrbgt	r0, [r8, r5, lsl #6]
    170c:	0c310000 	ldceq	0, cr0, [r1], #-0
    1710:	04000001 	streq	r0, [r0], #-1
    1714:	066f321e 			; <UNDEFINED> instruction: 0x066f321e
    1718:	29040000 	stmdbcs	r4, {}	; <UNPREDICTABLE>
    171c:	00000025 	andeq	r0, r0, r5, lsr #32
    1720:	00000bcc 	andeq	r0, r0, ip, asr #23
    1724:	00008609 	andeq	r8, r0, r9, lsl #12
    1728:	31003300 	mrscc	r3, LR_irq
    172c:	00000152 	andeq	r0, r0, r2, asr r1
    1730:	ba316504 	blt	c5ab48 <__bss_end__+0xc4df58>
    1734:	05000004 	streq	r0, [r0, #-4]
    1738:	0eff0036 	mrceq	0, 7, r0, cr15, cr6, {1}
    173c:	00040000 	andeq	r0, r4, r0
    1740:	00000567 	andeq	r0, r0, r7, ror #10
    1744:	02330104 	eorseq	r0, r3, #4, 2
    1748:	e2010000 	and	r0, r1, #0
    174c:	00000004 	andeq	r0, r0, r4
    1750:	b0000000 	andlt	r0, r0, r0
    1754:	8400008a 	strhi	r0, [r0], #-138	; 0x8a
    1758:	a4000007 	strge	r0, [r0], #-7
    175c:	02000004 	andeq	r0, r0, #4
    1760:	6e690504 	cdpvs	5, 6, cr0, cr9, cr4, {0}
    1764:	04030074 	streq	r0, [r3], #-116	; 0x74
    1768:	0000a707 	andeq	sl, r0, r7, lsl #14
    176c:	06010300 	streq	r0, [r1], -r0, lsl #6
    1770:	000001a2 	andeq	r0, r0, r2, lsr #3
    1774:	c4050203 	strgt	r0, [r5], #-515	; 0x203
    1778:	03000001 	movweq	r0, #1
    177c:	00c80504 	sbceq	r0, r8, r4, lsl #10
    1780:	08030000 	stmdaeq	r3, {}	; <UNPREDICTABLE>
    1784:	0000c305 	andeq	ip, r0, r5, lsl #6
    1788:	08010300 	stmdaeq	r1, {r8, r9}
    178c:	000001a0 	andeq	r0, r0, r0, lsr #3
    1790:	3f070203 	svccc	0x00070203
    1794:	04000001 	streq	r0, [r0], #-1
    1798:	000001ef 	andeq	r0, r0, pc, ror #3
    179c:	00683406 	rsbeq	r3, r8, r6, lsl #8
    17a0:	04030000 	streq	r0, [r3], #-0
    17a4:	0000a207 	andeq	sl, r0, r7, lsl #4
    17a8:	07080300 	streq	r0, [r8, -r0, lsl #6]
    17ac:	0000009d 	muleq	r0, sp, r0
    17b0:	64070403 	strvs	r0, [r7], #-1027	; 0x403
    17b4:	05000001 	streq	r0, [r0, #-1]
    17b8:	08010304 	stmdaeq	r1, {r2, r8, r9}
    17bc:	000001a9 	andeq	r0, r0, r9, lsr #3
    17c0:	008c0406 	addeq	r0, ip, r6, lsl #8
    17c4:	7f070000 	svcvc	0x00070000
    17c8:	04000000 	streq	r0, [r0], #-0
    17cc:	0000048b 	andeq	r0, r0, fp, lsl #9
    17d0:	009c8a02 	addseq	r8, ip, r2, lsl #20
    17d4:	04060000 	streq	r0, [r6], #-0
    17d8:	000000a2 	andeq	r0, r0, r2, lsr #1
    17dc:	0000b708 	andeq	fp, r0, r8, lsl #14
    17e0:	00b70900 	adcseq	r0, r7, r0, lsl #18
    17e4:	5d090000 	stcpl	0, cr0, [r9, #-0]
    17e8:	09000000 	stmdbeq	r0, {}	; <UNPREDICTABLE>
    17ec:	0000005d 	andeq	r0, r0, sp, asr r0
    17f0:	5d040600 	stcpl	6, cr0, [r4, #-0]
    17f4:	0a000000 	beq	17fc <__code_start__-0x6804>
    17f8:	0000018e 	andeq	r0, r0, lr, lsl #3
    17fc:	6e0a0738 	mcrvs	7, 0, r0, cr10, cr8, {1}
    1800:	0b000001 	bleq	180c <__code_start__-0x67f4>
    1804:	00000af0 	strdeq	r0, [r0], -r0	; <UNPREDICTABLE>
    1808:	016e0f07 	cmneq	lr, r7, lsl #30
    180c:	0c000000 	stceq	0, cr0, [r0], {-0}
    1810:	12070041 	andne	r0, r7, #65	; 0x41
    1814:	00000186 	andeq	r0, r0, r6, lsl #3
    1818:	00420c04 	subeq	r0, r2, r4, lsl #24
    181c:	019b1307 	orrseq	r1, fp, r7, lsl #6
    1820:	0b080000 	bleq	201828 <__bss_end__+0x1f4c38>
    1824:	000000dd 	ldrdeq	r0, [r0], -sp
    1828:	01861607 	orreq	r1, r6, r7, lsl #12
    182c:	0b0c0000 	bleq	301834 <__bss_end__+0x2f4c44>
    1830:	000001fe 	strdeq	r0, [r0], -lr
    1834:	019b1807 	orrseq	r1, fp, r7, lsl #16
    1838:	0b100000 	bleq	401840 <__bss_end__+0x3f4c50>
    183c:	000002b1 			; <UNDEFINED> instruction: 0x000002b1
    1840:	01a11f07 			; <UNDEFINED> instruction: 0x01a11f07
    1844:	0b140000 	bleq	50184c <__bss_end__+0x4f4c5c>
    1848:	000002a0 	andeq	r0, r0, r0, lsr #5
    184c:	01a13107 			; <UNDEFINED> instruction: 0x01a13107
    1850:	0b180000 	bleq	601858 <__bss_end__+0x5f4c68>
    1854:	0000008a 	andeq	r0, r0, sl, lsl #1
    1858:	01a63607 			; <UNDEFINED> instruction: 0x01a63607
    185c:	0b1c0000 	bleq	701864 <__bss_end__+0x6f4c74>
    1860:	0000006f 	andeq	r0, r0, pc, rrx
    1864:	01a63a07 			; <UNDEFINED> instruction: 0x01a63a07
    1868:	0b200000 	bleq	801870 <__bss_end__+0x7f4c80>
    186c:	000002bb 			; <UNDEFINED> instruction: 0x000002bb
    1870:	01a13f07 			; <UNDEFINED> instruction: 0x01a13f07
    1874:	0b240000 	bleq	90187c <__bss_end__+0x8f4c8c>
    1878:	0000017d 	andeq	r0, r0, sp, ror r1
    187c:	002c4207 	eoreq	r4, ip, r7, lsl #4
    1880:	0b280000 	bleq	a01888 <__bss_end__+0x9f4c98>
    1884:	0000020a 	andeq	r0, r0, sl, lsl #4
    1888:	002c4307 	eoreq	r4, ip, r7, lsl #6
    188c:	0b2c0000 	bleq	b01894 <__bss_end__+0xaf4ca4>
    1890:	000001d5 	ldrdeq	r0, [r0], -r5
    1894:	002c4607 	eoreq	r4, ip, r7, lsl #12
    1898:	0b300000 	bleq	c018a0 <__bss_end__+0xbf4cb0>
    189c:	000000d1 	ldrdeq	r0, [r0], -r1
    18a0:	01a64807 			; <UNDEFINED> instruction: 0x01a64807
    18a4:	00340000 	eorseq	r0, r4, r0
    18a8:	01740406 	cmneq	r4, r6, lsl #8
    18ac:	080d0000 	stmdaeq	sp, {}	; <UNPREDICTABLE>
    18b0:	00000180 	andeq	r0, r0, r0, lsl #3
    18b4:	00018009 	andeq	r8, r1, r9
    18b8:	04060000 	streq	r0, [r6], #-0
    18bc:	000000bd 	strheq	r0, [r0], -sp
    18c0:	01750406 	cmneq	r5, r6, lsl #8
    18c4:	250e0000 	strcs	r0, [lr, #-0]
    18c8:	9b000000 	blls	18d0 <__code_start__-0x6730>
    18cc:	09000001 	stmdbeq	r0, {r0}
    18d0:	00000180 	andeq	r0, r0, r0, lsl #3
    18d4:	8c040600 	stchi	6, cr0, [r4], {-0}
    18d8:	0f000001 	svceq	0x00000001
    18dc:	0000002c 	andeq	r0, r0, ip, lsr #32
    18e0:	00005d0f 	andeq	r5, r0, pc, lsl #26
    18e4:	01960400 	orrseq	r0, r6, r0, lsl #8
    18e8:	49070000 	stmdbmi	r7, {}	; <UNPREDICTABLE>
    18ec:	000000bd 	strheq	r0, [r0], -sp
    18f0:	0003d710 	andeq	sp, r3, r0, lsl r7
    18f4:	5da60200 	sfmpl	f0, 4, [r6]
    18f8:	03000000 	movweq	r0, #0
    18fc:	000001d2 	ldrdeq	r0, [r0], -r2
    1900:	74657211 	strbtvc	r7, [r5], #-529	; 0x211
    1904:	5da60200 	sfmpl	f0, 4, [r6]
    1908:	00000000 	andeq	r0, r0, r0
    190c:	00058610 	andeq	r8, r5, r0, lsl r6
    1910:	25070500 	strcs	r0, [r7, #-1280]	; 0x500
    1914:	03000000 	movweq	r0, #0
    1918:	000001ee 	andeq	r0, r0, lr, ror #3
    191c:	00059f12 	andeq	r9, r5, r2, lsl pc
    1920:	2c070500 	cfstr32cs	mvfx0, [r7], {-0}
    1924:	00000000 	andeq	r0, r0, r0
    1928:	00050910 	andeq	r0, r5, r0, lsl r9
    192c:	5d260300 	stcpl	3, cr0, [r6, #-0]
    1930:	03000000 	movweq	r0, #0
    1934:	0000020a 	andeq	r0, r0, sl, lsl #4
    1938:	00058113 	andeq	r8, r5, r3, lsl r1
    193c:	5d270300 	stcpl	3, cr0, [r7, #-0]
    1940:	00000000 	andeq	r0, r0, r0
    1944:	00032010 	andeq	r2, r3, r0, lsl r0
    1948:	2ca90200 	sfmcs	f0, 4, [r9]
    194c:	03000000 	movweq	r0, #0
    1950:	00000224 	andeq	r0, r0, r4, lsr #4
    1954:	02007211 	andeq	r7, r0, #268435457	; 0x10000001
    1958:	00002caa 	andeq	r2, r0, sl, lsr #25
    195c:	c3140000 	tstgt	r4, #0
    1960:	01000004 	tsteq	r0, r4
    1964:	008ab00b 	addeq	fp, sl, fp
    1968:	0001ac00 	andeq	sl, r1, r0, lsl #24
    196c:	659c0100 	ldrvs	r0, [ip, #256]	; 0x100
    1970:	15000004 	strne	r0, [r0, #-4]
    1974:	0000059a 	muleq	r0, sl, r5
    1978:	00b70b01 	adcseq	r0, r7, r1, lsl #22
    197c:	069f0000 	ldreq	r0, [pc], r0
    1980:	70160000 	andsvc	r0, r6, r0
    1984:	0b010063 	bleq	41b18 <__bss_end__+0x34f28>
    1988:	0000005d 	andeq	r0, r0, sp, asr r0
    198c:	000006c0 	andeq	r0, r0, r0, asr #13
    1990:	00007615 	andeq	r7, r0, r5, lsl r6
    1994:	5d0b0100 	stfpls	f0, [fp, #-0]
    1998:	ec000000 	stc	0, cr0, [r0], {-0}
    199c:	17000006 	strne	r0, [r0, -r6]
    19a0:	00000129 	andeq	r0, r0, r9, lsr #2
    19a4:	00000475 	andeq	r0, r0, r5, ror r4
    19a8:	a5540305 	ldrbge	r0, [r4, #-773]	; 0x305
    19ac:	63180000 	tstvs	r8, #0
    19b0:	7a100100 	bvc	401db8 <__bss_end__+0x3f51c8>
    19b4:	0d000004 	stceq	0, cr0, [r0, #-16]
    19b8:	19000007 	stmdbne	r0, {r0, r1, r2}
    19bc:	0000020a 	andeq	r0, r0, sl, lsl #4
    19c0:	00008ae4 	andeq	r8, r0, r4, ror #21
    19c4:	00000008 	andeq	r0, r0, r8
    19c8:	02c70d01 	sbceq	r0, r7, #1, 26	; 0x40
    19cc:	e41a0000 	ldr	r0, [sl], #-0
    19d0:	0800008a 	stmdaeq	r0, {r1, r3, r7}
    19d4:	1b000000 	blne	19dc <__code_start__-0x6624>
    19d8:	0000021a 	andeq	r0, r0, sl, lsl r2
    19dc:	0001b61c 	andeq	fp, r1, ip, lsl r6
    19e0:	008ae400 	addeq	lr, sl, r0, lsl #8
    19e4:	00000400 	andeq	r0, r0, r0, lsl #8
    19e8:	1aaa0200 	bne	fea821f0 <__bss_end__+0xfea75600>
    19ec:	00008ae4 	andeq	r8, r0, r4, ror #21
    19f0:	00000004 	andeq	r0, r0, r4
    19f4:	0001c61d 	andeq	ip, r1, sp, lsl r6
    19f8:	00072000 	andeq	r2, r7, r0
    19fc:	00000000 	andeq	r0, r0, r0
    1a00:	8ae41e00 	bhi	ff909208 <__bss_end__+0xff8fc618>
    1a04:	0e840000 	cdpeq	0, 8, cr0, cr4, cr0, {0}
    1a08:	02fc0000 	rscseq	r0, ip, #0
    1a0c:	011f0000 	tsteq	pc, r0
    1a10:	1f3c0153 	svcne	0x003c0153
    1a14:	03055201 	movweq	r5, #20993	; 0x5201
    1a18:	0000a554 	andeq	sl, r0, r4, asr r5
    1a1c:	0551011f 	ldrbeq	r0, [r1, #-287]	; 0x11f
    1a20:	00a27003 	adceq	r7, r2, r3
    1a24:	50011f00 	andpl	r1, r1, r0, lsl #30
    1a28:	a2500305 	subsge	r0, r0, #335544320	; 0x14000000
    1a2c:	021f0000 	andseq	r0, pc, #0
    1a30:	7502007d 	strvc	r0, [r2, #-125]	; 0x7d
    1a34:	f8200000 			; <UNDEFINED> instruction: 0xf8200000
    1a38:	9a00008a 	bls	1c68 <__code_start__-0x6398>
    1a3c:	1e00000e 	cdpne	0, 0, cr0, cr0, cr14, {0}
    1a40:	00008b0c 	andeq	r8, r0, ip, lsl #22
    1a44:	00000e84 	andeq	r0, r0, r4, lsl #29
    1a48:	00000333 	andeq	r0, r0, r3, lsr r3
    1a4c:	0153011f 	cmpeq	r3, pc, lsl r1
    1a50:	52011f3e 	andpl	r1, r1, #62, 30	; 0xf8
    1a54:	a5540305 	ldrbge	r0, [r4, #-773]	; 0x305
    1a58:	011f0000 	tsteq	pc, r0
    1a5c:	70030551 	andvc	r0, r3, r1, asr r5
    1a60:	1f0000a2 	svcne	0x000000a2
    1a64:	03055001 	movweq	r5, #20481	; 0x5001
    1a68:	0000a15c 	andeq	sl, r0, ip, asr r1
    1a6c:	8b102000 	blhi	409a74 <__bss_end__+0x3fce84>
    1a70:	0ea10000 	cdpeq	0, 10, cr0, cr1, cr0, {0}
    1a74:	381e0000 	ldmdacc	lr, {}	; <UNPREDICTABLE>
    1a78:	8400008b 	strhi	r0, [r0], #-139	; 0x8b
    1a7c:	5900000e 	stmdbpl	r0, {r1, r2, r3}
    1a80:	1f000003 	svcne	0x00000003
    1a84:	75025101 	strvc	r5, [r2, #-257]	; 0x101
    1a88:	50011f00 	andpl	r1, r1, r0, lsl #30
    1a8c:	a2840305 	addge	r0, r4, #335544320	; 0x14000000
    1a90:	21000000 	mrscs	r0, (UNDEF: 0)
    1a94:	00008b44 	andeq	r8, r0, r4, asr #22
    1a98:	00000369 	andeq	r0, r0, r9, ror #6
    1a9c:	0250011f 	subseq	r0, r0, #-1073741817	; 0xc0000007
    1aa0:	1e000074 	mcrne	0, 0, r0, cr0, cr4, {3}
    1aa4:	00008b54 	andeq	r8, r0, r4, asr fp
    1aa8:	00000ea8 	andeq	r0, r0, r8, lsr #29
    1aac:	0000037d 	andeq	r0, r0, sp, ror r3
    1ab0:	0250011f 	subseq	r0, r0, #-1073741817	; 0xc0000007
    1ab4:	1e000075 	mcrne	0, 0, r0, cr0, cr5, {3}
    1ab8:	00008b74 	andeq	r8, r0, r4, ror fp
    1abc:	00000e84 	andeq	r0, r0, r4, lsl #29
    1ac0:	00000394 	muleq	r0, r4, r3
    1ac4:	0550011f 	ldrbeq	r0, [r0, #-287]	; 0x11f
    1ac8:	00a2a403 	adceq	sl, r2, r3, lsl #8
    1acc:	98200000 	stmdals	r0!, {}	; <UNPREDICTABLE>
    1ad0:	9a00008b 	bls	1d04 <__code_start__-0x62fc>
    1ad4:	1e00000e 	cdpne	0, 0, cr0, cr0, cr14, {0}
    1ad8:	00008bb4 			; <UNDEFINED> instruction: 0x00008bb4
    1adc:	00000e84 	andeq	r0, r0, r4, lsl #29
    1ae0:	000003d6 	ldrdeq	r0, [r0], -r6
    1ae4:	0253011f 	subseq	r0, r3, #-1073741817	; 0xc0000007
    1ae8:	011f2308 	tsteq	pc, r8, lsl #6
    1aec:	54030552 	strpl	r0, [r3], #-1362	; 0x552
    1af0:	1f0000a5 	svcne	0x000000a5
    1af4:	03055101 	movweq	r5, #20737	; 0x5101
    1af8:	0000a270 	andeq	sl, r0, r0, ror r2
    1afc:	0550011f 	ldrbeq	r0, [r0, #-287]	; 0x11f
    1b00:	009f4003 	addseq	r4, pc, r3
    1b04:	7d021f00 	stcvc	15, cr1, [r2, #-0]
    1b08:	cc030500 	cfstr32gt	mvfx0, [r3], {-0}
    1b0c:	000000a2 	andeq	r0, r0, r2, lsr #1
    1b10:	008bb820 	addeq	fp, fp, r0, lsr #16
    1b14:	000ea100 	andeq	sl, lr, r0, lsl #2
    1b18:	8bec1e00 	blhi	ffb09320 <__bss_end__+0xffafc730>
    1b1c:	0e840000 	cdpeq	0, 8, cr0, cr4, cr0, {0}
    1b20:	04150000 	ldreq	r0, [r5], #-0
    1b24:	011f0000 	tsteq	pc, r0
    1b28:	26080253 			; <UNDEFINED> instruction: 0x26080253
    1b2c:	0552011f 	ldrbeq	r0, [r2, #-287]	; 0x11f
    1b30:	00a55403 	adceq	r5, r5, r3, lsl #8
    1b34:	51011f00 	tstpl	r1, r0, lsl #30
    1b38:	a2700305 	rsbsge	r0, r0, #335544320	; 0x14000000
    1b3c:	011f0000 	tsteq	pc, r0
    1b40:	f0030550 			; <UNDEFINED> instruction: 0xf0030550
    1b44:	1f0000a2 	svcne	0x000000a2
    1b48:	02007d02 	andeq	r7, r0, #2, 26	; 0x80
    1b4c:	1e000075 	mcrne	0, 0, r0, cr0, cr5, {3}
    1b50:	00008bf8 	strdeq	r8, [r0], -r8	; <UNPREDICTABLE>
    1b54:	00000eb9 			; <UNDEFINED> instruction: 0x00000eb9
    1b58:	00000432 	andeq	r0, r0, r2, lsr r4
    1b5c:	0551011f 	ldrbeq	r0, [r1, #-287]	; 0x11f
    1b60:	008ab003 	addeq	fp, sl, r3
    1b64:	50011f00 	andpl	r1, r1, r0, lsl #30
    1b68:	00007502 	andeq	r7, r0, r2, lsl #10
    1b6c:	008c2022 	addeq	r2, ip, r2, lsr #32
    1b70:	000e8400 	andeq	r8, lr, r0, lsl #8
    1b74:	53011f00 	movwpl	r1, #7936	; 0x1f00
    1b78:	1f280802 	svcne	0x00280802
    1b7c:	03055201 	movweq	r5, #20993	; 0x5201
    1b80:	0000a554 	andeq	sl, r0, r4, asr r5
    1b84:	0551011f 	ldrbeq	r0, [r1, #-287]	; 0x11f
    1b88:	00a27003 	adceq	r7, r2, r3
    1b8c:	50011f00 	andpl	r1, r1, r0, lsl #30
    1b90:	a3180305 	tstge	r8, #335544320	; 0x14000000
    1b94:	021f0000 	andseq	r0, pc, #0
    1b98:	7502007d 	strvc	r0, [r2, #-125]	; 0x7d
    1b9c:	23000000 	movwcs	r0, #0
    1ba0:	0000007f 	andeq	r0, r0, pc, ror r0
    1ba4:	00000475 	andeq	r0, r0, r5, ror r4
    1ba8:	00007624 	andeq	r7, r0, r4, lsr #12
    1bac:	07001300 	streq	r1, [r0, -r0, lsl #6]
    1bb0:	00000465 	andeq	r0, r0, r5, ror #8
    1bb4:	01ab0406 			; <UNDEFINED> instruction: 0x01ab0406
    1bb8:	4b100000 	blmi	401bc0 <__bss_end__+0x3f4fd0>
    1bbc:	05000005 	streq	r0, [r0, #-5]
    1bc0:	00005d14 	andeq	r5, r0, r4, lsl sp
    1bc4:	04b40300 	ldrteq	r0, [r4], #768	; 0x300
    1bc8:	81120000 	tsthi	r2, r0
    1bcc:	05000005 	streq	r0, [r0, #-5]
    1bd0:	00005d14 	andeq	r5, r0, r4, lsl sp
    1bd4:	059f1200 	ldreq	r1, [pc, #512]	; 1ddc <__code_start__-0x6224>
    1bd8:	14050000 	strne	r0, [r5], #-0
    1bdc:	0000002c 	andeq	r0, r0, ip, lsr #32
    1be0:	00012925 	andeq	r2, r1, r5, lsr #18
    1be4:	0004c400 	andeq	ip, r4, r0, lsl #8
    1be8:	00054b00 	andeq	r4, r5, r0, lsl #22
    1bec:	7f230000 	svcvc	0x00230000
    1bf0:	c4000000 	strgt	r0, [r0], #-0
    1bf4:	24000004 	strcs	r0, [r0], #-4
    1bf8:	00000076 	andeq	r0, r0, r6, ror r0
    1bfc:	b4070008 	strlt	r0, [r7], #-8
    1c00:	10000004 	andne	r0, r0, r4
    1c04:	00000527 	andeq	r0, r0, r7, lsr #10
    1c08:	005d2504 	subseq	r2, sp, r4, lsl #10
    1c0c:	18030000 	stmdane	r3, {}	; <UNPREDICTABLE>
    1c10:	26000005 	strcs	r0, [r0], -r5
    1c14:	25040078 	strcs	r0, [r4, #-120]	; 0x78
    1c18:	0000005d 	andeq	r0, r0, sp, asr r0
    1c1c:	00626c26 	rsbeq	r6, r2, r6, lsr #24
    1c20:	002c2504 	eoreq	r2, ip, r4, lsl #10
    1c24:	75260000 	strvc	r0, [r6, #-0]!
    1c28:	25040062 	strcs	r0, [r4, #-98]	; 0x62
    1c2c:	0000002c 	andeq	r0, r0, ip, lsr #32
    1c30:	00012925 	andeq	r2, r1, r5, lsr #18
    1c34:	00051800 	andeq	r1, r5, r0, lsl #16
    1c38:	00052700 	andeq	r2, r5, r0, lsl #14
    1c3c:	006e1100 	rsbeq	r1, lr, r0, lsl #2
    1c40:	002c2804 	eoreq	r2, ip, r4, lsl #16
    1c44:	22130000 	andscs	r0, r3, #0
    1c48:	04000005 	streq	r0, [r0], #-5
    1c4c:	00002c2a 	andeq	r2, r0, sl, lsr #24
    1c50:	b4070000 	strlt	r0, [r7], #-0
    1c54:	10000004 	andne	r0, r0, r4
    1c58:	00000542 	andeq	r0, r0, r2, asr #10
    1c5c:	00861805 	addeq	r1, r6, r5, lsl #16
    1c60:	46030000 	strmi	r0, [r3], -r0
    1c64:	12000005 	andne	r0, r0, #5
    1c68:	00000581 	andeq	r0, r0, r1, lsl #11
    1c6c:	005d1805 	subseq	r1, sp, r5, lsl #16
    1c70:	29250000 	stmdbcs	r5!, {}	; <UNPREDICTABLE>
    1c74:	46000001 	strmi	r0, [r0], -r1
    1c78:	42000005 	andmi	r0, r0, #5
    1c7c:	00000005 	andeq	r0, r0, r5
    1c80:	0004b407 	andeq	fp, r4, r7, lsl #8
    1c84:	05911000 	ldreq	r1, [r1]
    1c88:	0f050000 	svceq	0x00050000
    1c8c:	0000005d 	andeq	r0, r0, sp, asr r0
    1c90:	00057f03 	andeq	r7, r5, r3, lsl #30
    1c94:	05811200 	streq	r1, [r1, #512]	; 0x200
    1c98:	0f050000 	svceq	0x00050000
    1c9c:	0000005d 	andeq	r0, r0, sp, asr r0
    1ca0:	00059f13 	andeq	r9, r5, r3, lsl pc
    1ca4:	2c100500 	cfldr32cs	mvfx0, [r0], {-0}
    1ca8:	25000000 	strcs	r0, [r0, #-0]
    1cac:	00000129 	andeq	r0, r0, r9, lsr #2
    1cb0:	0000057f 	andeq	r0, r0, pc, ror r5
    1cb4:	00000591 	muleq	r0, r1, r5
    1cb8:	04b40700 	ldrteq	r0, [r4], #1792	; 0x700
    1cbc:	6e100000 	cdpvs	0, 1, cr0, cr0, cr0, {0}
    1cc0:	04000005 	streq	r0, [r0], #-5
    1cc4:	00005d1c 	andeq	r5, r0, ip, lsl sp
    1cc8:	05c80300 	strbeq	r0, [r8, #768]	; 0x300
    1ccc:	78260000 	stmdavc	r6!, {}	; <UNPREDICTABLE>
    1cd0:	5d1c0400 	cfldrspl	mvf0, [ip, #-0]
    1cd4:	26000000 	strcs	r0, [r0], -r0
    1cd8:	0400626c 	streq	r6, [r0], #-620	; 0x26c
    1cdc:	00002c1c 	andeq	r2, r0, ip, lsl ip
    1ce0:	62752600 	rsbsvs	r2, r5, #0, 12
    1ce4:	2c1c0400 	cfldrscs	mvf0, [ip], {-0}
    1ce8:	25000000 	strcs	r0, [r0, #-0]
    1cec:	00000129 	andeq	r0, r0, r9, lsr #2
    1cf0:	000005c8 	andeq	r0, r0, r8, asr #11
    1cf4:	0000056e 	andeq	r0, r0, lr, ror #10
    1cf8:	04006e11 	streq	r6, [r0], #-3601	; 0xe11
    1cfc:	00002c1f 	andeq	r2, r0, pc, lsl ip
    1d00:	b4070000 	strlt	r0, [r7], #-0
    1d04:	27000004 	strcs	r0, [r0, -r4]
    1d08:	00000530 	andeq	r0, r0, r0, lsr r5
    1d0c:	002c2b01 	eoreq	r2, ip, r1, lsl #22
    1d10:	8c5c0000 	mrahi	r0, ip, acc0
    1d14:	04e00000 	strbteq	r0, [r0], #0
    1d18:	9c010000 	stcls	0, cr0, [r1], {-0}
    1d1c:	00000ce0 	andeq	r0, r0, r0, ror #25
    1d20:	01006316 	tsteq	r0, r6, lsl r3
    1d24:	00047a2b 	andeq	r7, r4, fp, lsr #20
    1d28:	00073300 	andeq	r3, r7, r0, lsl #6
    1d2c:	05652800 	strbeq	r2, [r5, #-2048]!	; 0x800
    1d30:	2c010000 	stccs	0, cr0, [r1], {-0}
    1d34:	0000005d 	andeq	r0, r0, sp, asr r0
    1d38:	77135801 	ldrvc	r5, [r3, -r1, lsl #16]
    1d3c:	01000005 	tsteq	r0, r5
    1d40:	00005d2d 	andeq	r5, r0, sp, lsr #26
    1d44:	01291700 	teqeq	r9, r0, lsl #14
    1d48:	0cf00000 	ldcleq	0, cr0, [r0]
    1d4c:	03050000 	movweq	r0, #20480	; 0x5000
    1d50:	0000a540 	andeq	sl, r0, r0, asr #10
    1d54:	0001ee19 	andeq	lr, r1, r9, lsl lr
    1d58:	008c6800 	addeq	r6, ip, r0, lsl #16
    1d5c:	00000400 	andeq	r0, r0, r0, lsl #8
    1d60:	412c0100 	teqmi	ip, r0, lsl #2
    1d64:	1a000006 	bne	1d84 <__code_start__-0x627c>
    1d68:	00008c68 	andeq	r8, r0, r8, ror #24
    1d6c:	00000004 	andeq	r0, r0, r4
    1d70:	0001fe1d 	andeq	pc, r1, sp, lsl lr	; <UNPREDICTABLE>
    1d74:	00075f00 	andeq	r5, r7, r0, lsl #30
    1d78:	19000000 	stmdbne	r0, {}	; <UNPREDICTABLE>
    1d7c:	00000480 	andeq	r0, r0, r0, lsl #9
    1d80:	00008c6c 	andeq	r8, r0, ip, ror #24
    1d84:	00000008 	andeq	r0, r0, r8
    1d88:	06bf2d01 	ldrteq	r2, [pc], r1, lsl #26
    1d8c:	9b290000 	blls	a41d94 <__bss_end__+0xa351a4>
    1d90:	10000004 	andne	r0, r0, r4
    1d94:	0004902a 	andeq	r9, r4, sl, lsr #32
    1d98:	00075f00 	andeq	r5, r7, r0, lsl #30
    1d9c:	8c6c1a00 	stclhi	10, cr1, [ip], #-0
    1da0:	00080000 	andeq	r0, r8, r0
    1da4:	a62b0000 	strtge	r0, [fp], -r0
    1da8:	05000004 	streq	r0, [r0, #-4]
    1dac:	00a56803 	adceq	r6, r5, r3, lsl #16
    1db0:	04c91c00 	strbeq	r1, [r9], #3072	; 0xc00
    1db4:	8c6c0000 	stclhi	0, cr0, [ip], #-0
    1db8:	00040000 	andeq	r0, r4, r0
    1dbc:	16050000 	strne	r0, [r5], -r0
    1dc0:	0004ec29 	andeq	lr, r4, r9, lsr #24
    1dc4:	e2290400 	eor	r0, r9, #0, 8
    1dc8:	00000004 	andeq	r0, r0, r4
    1dcc:	0004d92a 	andeq	sp, r4, sl, lsr #18
    1dd0:	00075f00 	andeq	r5, r7, r0, lsl #30
    1dd4:	8c6c1a00 	stclhi	10, cr1, [ip], #-0
    1dd8:	00040000 	andeq	r0, r4, r0
    1ddc:	032c0000 	teqeq	ip, #0
    1de0:	05000005 	streq	r0, [r0, #-5]
    1de4:	00050c2c 	andeq	r0, r5, ip, lsr #24
    1de8:	f62b1f00 			; <UNDEFINED> instruction: 0xf62b1f00
    1dec:	05000004 	streq	r0, [r0, #-4]
    1df0:	00a57403 	adceq	r7, r5, r3, lsl #8
    1df4:	00000000 	andeq	r0, r0, r0
    1df8:	051d1900 	ldreq	r1, [sp, #-2304]	; 0x900
    1dfc:	8d700000 	ldclhi	0, cr0, [r0, #-0]
    1e00:	01100000 	tsteq	r0, r0
    1e04:	53010000 	movwpl	r0, #4096	; 0x1000
    1e08:	00000817 	andeq	r0, r0, r7, lsl r8
    1e0c:	00052d2a 	andeq	r2, r5, sl, lsr #26
    1e10:	00077200 	andeq	r7, r7, r0, lsl #4
    1e14:	8d701a00 	vldmdbhi	r0!, {s3-s2}
    1e18:	01100000 	tsteq	r0, r0
    1e1c:	382b0000 	stmdacc	fp!, {}	; <UNPREDICTABLE>
    1e20:	05000005 	streq	r0, [r0, #-5]
    1e24:	00a58003 	adceq	r8, r5, r3
    1e28:	054b1900 	strbeq	r1, [fp, #-2304]	; 0x900
    1e2c:	8d700000 	ldclhi	0, cr0, [r0, #-0]
    1e30:	006c0000 	rsbeq	r0, ip, r0
    1e34:	19050000 	stmdbne	r5, {}	; <UNPREDICTABLE>
    1e38:	000007cd 	andeq	r0, r0, sp, asr #15
    1e3c:	00055b2a 	andeq	r5, r5, sl, lsr #22
    1e40:	00077200 	andeq	r7, r7, r0, lsl #4
    1e44:	8d701a00 	vldmdbhi	r0!, {s3-s2}
    1e48:	006c0000 	rsbeq	r0, ip, r0
    1e4c:	661b0000 	ldrvs	r0, [fp], -r0
    1e50:	2b000005 	blcs	1e6c <__code_start__-0x6194>
    1e54:	00000571 	andeq	r0, r0, r1, ror r5
    1e58:	a58c0305 	strge	r0, [ip, #773]	; 0x305
    1e5c:	84190000 	ldrhi	r0, [r9], #-0
    1e60:	70000005 	andvc	r0, r0, r5
    1e64:	0400008d 	streq	r0, [r0], #-141	; 0x8d
    1e68:	05000000 	streq	r0, [r0, #-0]
    1e6c:	00076810 	andeq	r6, r7, r0, lsl r8
    1e70:	05a72900 	streq	r2, [r7, #2304]!	; 0x900
    1e74:	29040000 	stmdbcs	r4, {}	; <UNPREDICTABLE>
    1e78:	0000059d 	muleq	r0, sp, r5
    1e7c:	05942a00 	ldreq	r2, [r4, #2560]	; 0xa00
    1e80:	07720000 	ldrbeq	r0, [r2, -r0]!
    1e84:	701a0000 	andsvc	r0, sl, r0
    1e88:	0400008d 	streq	r0, [r0], #-141	; 0x8d
    1e8c:	2c000000 	stccs	0, cr0, [r0], {-0}
    1e90:	000005be 			; <UNDEFINED> instruction: 0x000005be
    1e94:	05b12b05 	ldreq	r2, [r1, #2821]!	; 0xb05
    1e98:	03050000 	movweq	r0, #20480	; 0x5000
    1e9c:	0000a598 	muleq	r0, r8, r5
    1ea0:	d2190000 	andsle	r0, r9, #0
    1ea4:	74000001 	strvc	r0, [r0], #-1
    1ea8:	3c00008d 	stccc	0, cr0, [r0], {141}	; 0x8d
    1eac:	05000000 	streq	r0, [r0, #-0]
    1eb0:	00078111 	andeq	r8, r7, r1, lsl r1
    1eb4:	01e22d00 	mvneq	r2, r0, lsl #26
    1eb8:	20000000 	andcs	r0, r0, r0
    1ebc:	00008dbc 			; <UNDEFINED> instruction: 0x00008dbc
    1ec0:	00000e9a 	muleq	r0, sl, lr
    1ec4:	008dd81e 	addeq	sp, sp, lr, lsl r8
    1ec8:	000e8400 	andeq	r8, lr, r0, lsl #8
    1ecc:	0007c200 	andeq	ip, r7, r0, lsl #4
    1ed0:	53011f00 	movwpl	r1, #7936	; 0x1f00
    1ed4:	011f4101 	tsteq	pc, r1, lsl #2
    1ed8:	8c030552 	cfstr32hi	mvfx0, [r3], {82}	; 0x52
    1edc:	1f0000a5 	svcne	0x000000a5
    1ee0:	03055101 	movweq	r5, #20737	; 0x5101
    1ee4:	0000a44c 	andeq	sl, r0, ip, asr #8
    1ee8:	0550011f 	ldrbeq	r0, [r0, #-287]	; 0x11f
    1eec:	009f4003 	addseq	r4, pc, r3
    1ef0:	7d021f00 	stcvc	15, cr1, [r2, #-0]
    1ef4:	58030500 	stmdapl	r3, {r8, sl}
    1ef8:	000000a4 	andeq	r0, r0, r4, lsr #1
    1efc:	008ddc20 	addeq	sp, sp, r0, lsr #24
    1f00:	000ea100 	andeq	sl, lr, r0, lsl #2
    1f04:	20000000 	andcs	r0, r0, r0
    1f08:	00008e58 	andeq	r8, r0, r8, asr lr
    1f0c:	00000e9a 	muleq	r0, sl, lr
    1f10:	008e701e 	addeq	r7, lr, lr, lsl r0
    1f14:	000e8400 	andeq	r8, lr, r0, lsl #8
    1f18:	00080c00 	andeq	r0, r8, r0, lsl #24
    1f1c:	53011f00 	movwpl	r1, #7936	; 0x1f00
    1f20:	1f210802 	svcne	0x00210802
    1f24:	03055201 	movweq	r5, #20993	; 0x5201
    1f28:	0000a580 	andeq	sl, r0, r0, lsl #11
    1f2c:	0551011f 	ldrbeq	r0, [r1, #-287]	; 0x11f
    1f30:	00a44c03 	adceq	r4, r4, r3, lsl #24
    1f34:	50011f00 	andpl	r1, r1, r0, lsl #30
    1f38:	a46c0305 	strbtge	r0, [ip], #-773	; 0x305
    1f3c:	021f0000 	andseq	r0, pc, #0
    1f40:	7802007d 	stmdavc	r2, {r0, r2, r3, r4, r5, r6}
    1f44:	74200000 	strtvc	r0, [r0], #-0
    1f48:	a100008e 	smlabbge	r0, lr, r0, r0
    1f4c:	0000000e 	andeq	r0, r0, lr
    1f50:	01ee1900 	mvneq	r1, r0, lsl #18
    1f54:	8e8c0000 	cdphi	0, 8, cr0, cr12, cr0, {0}
    1f58:	00040000 	andeq	r0, r4, r0
    1f5c:	54010000 	strpl	r0, [r1], #-0
    1f60:	0000083e 	andeq	r0, r0, lr, lsr r8
    1f64:	008e8c1a 	addeq	r8, lr, sl, lsl ip
    1f68:	00000400 	andeq	r0, r0, r0, lsl #8
    1f6c:	01fe1d00 	mvnseq	r1, r0, lsl #26
    1f70:	07850000 	streq	r0, [r5, r0]
    1f74:	00000000 	andeq	r0, r0, r0
    1f78:	00051d19 	andeq	r1, r5, r9, lsl sp
    1f7c:	008e9000 	addeq	r9, lr, r0
    1f80:	00011000 	andeq	r1, r1, r0
    1f84:	96540100 	ldrbls	r0, [r4], -r0, lsl #2
    1f88:	2a000009 	bcs	1fb4 <__code_start__-0x604c>
    1f8c:	0000052d 	andeq	r0, r0, sp, lsr #10
    1f90:	00000785 	andeq	r0, r0, r5, lsl #15
    1f94:	008e901a 	addeq	r9, lr, sl, lsl r0
    1f98:	00011000 	andeq	r1, r1, r0
    1f9c:	05382b00 	ldreq	r2, [r8, #-2816]!	; 0xb00
    1fa0:	03050000 	movweq	r0, #20480	; 0x5000
    1fa4:	0000a580 	andeq	sl, r0, r0, lsl #11
    1fa8:	00054b19 	andeq	r4, r5, r9, lsl fp
    1fac:	008e9000 	addeq	r9, lr, r0
    1fb0:	00006c00 	andeq	r6, r0, r0, lsl #24
    1fb4:	4c190500 	cfldr32mi	mvfx0, [r9], {-0}
    1fb8:	2a000009 	bcs	1fe4 <__code_start__-0x601c>
    1fbc:	0000055b 	andeq	r0, r0, fp, asr r5
    1fc0:	00000785 	andeq	r0, r0, r5, lsl #15
    1fc4:	008e901a 	addeq	r9, lr, sl, lsl r0
    1fc8:	00006c00 	andeq	r6, r0, r0, lsl #24
    1fcc:	05661b00 	strbeq	r1, [r6, #-2816]!	; 0xb00
    1fd0:	712b0000 	teqvc	fp, r0
    1fd4:	05000005 	streq	r0, [r0, #-5]
    1fd8:	00a58c03 	adceq	r8, r5, r3, lsl #24
    1fdc:	05841900 	streq	r1, [r4, #2304]	; 0x900
    1fe0:	8e900000 	cdphi	0, 9, cr0, cr0, cr0, {0}
    1fe4:	00040000 	andeq	r0, r4, r0
    1fe8:	10050000 	andne	r0, r5, r0
    1fec:	000008e7 	andeq	r0, r0, r7, ror #17
    1ff0:	0005a729 	andeq	sl, r5, r9, lsr #14
    1ff4:	9d290400 	cfstrsls	mvf0, [r9, #-0]
    1ff8:	00000005 	andeq	r0, r0, r5
    1ffc:	0005942a 	andeq	r9, r5, sl, lsr #8
    2000:	00078500 	andeq	r8, r7, r0, lsl #10
    2004:	8e901a00 	vfnmshi.f32	s2, s0, s0
    2008:	00040000 	andeq	r0, r4, r0
    200c:	be2c0000 	cdplt	0, 2, cr0, cr12, cr0, {0}
    2010:	05000005 	streq	r0, [r0, #-5]
    2014:	0005b12b 	andeq	fp, r5, fp, lsr #2
    2018:	98030500 	stmdals	r3, {r8, sl}
    201c:	000000a5 	andeq	r0, r0, r5, lsr #1
    2020:	01d21900 	bicseq	r1, r2, r0, lsl #18
    2024:	8e940000 	cdphi	0, 9, cr0, cr4, cr0, {0}
    2028:	003c0000 	eorseq	r0, ip, r0
    202c:	11050000 	mrsne	r0, (UNDEF: 5)
    2030:	00000900 	andeq	r0, r0, r0, lsl #18
    2034:	0001e22d 	andeq	lr, r1, sp, lsr #4
    2038:	dc200000 	stcle	0, cr0, [r0], #-0
    203c:	9a00008e 	bls	227c <__code_start__-0x5d84>
    2040:	1e00000e 	cdpne	0, 0, cr0, cr0, cr14, {0}
    2044:	00008ef8 	strdeq	r8, [r0], -r8	; <UNPREDICTABLE>
    2048:	00000e84 	andeq	r0, r0, r4, lsl #29
    204c:	00000941 	andeq	r0, r0, r1, asr #18
    2050:	0153011f 	cmpeq	r3, pc, lsl r1
    2054:	52011f41 	andpl	r1, r1, #260	; 0x104
    2058:	a58c0305 	strge	r0, [ip, #773]	; 0x305
    205c:	011f0000 	tsteq	pc, r0
    2060:	4c030551 	cfstr32mi	mvfx0, [r3], {81}	; 0x51
    2064:	1f0000a4 	svcne	0x000000a4
    2068:	03055001 	movweq	r5, #20481	; 0x5001
    206c:	00009f40 	andeq	r9, r0, r0, asr #30
    2070:	007d021f 	rsbseq	r0, sp, pc, lsl r2
    2074:	a4580305 	ldrbge	r0, [r8], #-773	; 0x305
    2078:	20000000 	andcs	r0, r0, r0
    207c:	00008efc 	strdeq	r8, [r0], -ip
    2080:	00000ea1 	andeq	r0, r0, r1, lsr #29
    2084:	78200000 	stmdavc	r0!, {}	; <UNPREDICTABLE>
    2088:	9a00008f 	bls	22cc <__code_start__-0x5d34>
    208c:	1e00000e 	cdpne	0, 0, cr0, cr0, cr14, {0}
    2090:	00008f90 	muleq	r0, r0, pc	; <UNPREDICTABLE>
    2094:	00000e84 	andeq	r0, r0, r4, lsl #29
    2098:	0000098b 	andeq	r0, r0, fp, lsl #19
    209c:	0253011f 	subseq	r0, r3, #-1073741817	; 0xc0000007
    20a0:	011f2108 	tsteq	pc, r8, lsl #2
    20a4:	80030552 	andhi	r0, r3, r2, asr r5
    20a8:	1f0000a5 	svcne	0x000000a5
    20ac:	03055101 	movweq	r5, #20737	; 0x5101
    20b0:	0000a44c 	andeq	sl, r0, ip, asr #8
    20b4:	0550011f 	ldrbeq	r0, [r0, #-287]	; 0x11f
    20b8:	00a46c03 	adceq	r6, r4, r3, lsl #24
    20bc:	7d021f00 	stcvc	15, cr1, [r2, #-0]
    20c0:	00750200 	rsbseq	r0, r5, r0, lsl #4
    20c4:	8f942000 	svchi	0x00942000
    20c8:	0ea10000 	cdpeq	0, 10, cr0, cr1, cr0, {0}
    20cc:	00000000 	andeq	r0, r0, r0
    20d0:	0001ee19 	andeq	lr, r1, r9, lsl lr
    20d4:	008fa000 	addeq	sl, pc, r0
    20d8:	00000400 	andeq	r0, r0, r0, lsl #8
    20dc:	b9540100 	ldmdblt	r4, {r8}^
    20e0:	1a000009 	bne	210c <__code_start__-0x5ef4>
    20e4:	00008fa0 	andeq	r8, r0, r0, lsr #31
    20e8:	00000004 	andeq	r0, r0, r4
    20ec:	0001fe1b 	andeq	pc, r1, fp, lsl lr	; <UNPREDICTABLE>
    20f0:	19000000 	stmdbne	r0, {}	; <UNPREDICTABLE>
    20f4:	0000054b 	andeq	r0, r0, fp, asr #10
    20f8:	00008fb4 			; <UNDEFINED> instruction: 0x00008fb4
    20fc:	0000006c 	andeq	r0, r0, ip, rrx
    2100:	0a975801 	beq	fe5d810c <__bss_end__+0xfe5cb51c>
    2104:	5b2a0000 	blpl	a8210c <__bss_end__+0xa7551c>
    2108:	98000005 	stmdals	r0, {r0, r2}
    210c:	1a000007 	bne	2130 <__code_start__-0x5ed0>
    2110:	00008fb4 			; <UNDEFINED> instruction: 0x00008fb4
    2114:	0000006c 	andeq	r0, r0, ip, rrx
    2118:	0005661b 	andeq	r6, r5, fp, lsl r6
    211c:	05712b00 	ldrbeq	r2, [r1, #-2816]!	; 0xb00
    2120:	03050000 	movweq	r0, #20480	; 0x5000
    2124:	0000a58c 	andeq	sl, r0, ip, lsl #11
    2128:	00058419 	andeq	r8, r5, r9, lsl r4
    212c:	008fb400 	addeq	fp, pc, r0, lsl #8
    2130:	00000400 	andeq	r0, r0, r0, lsl #8
    2134:	32100500 	andscc	r0, r0, #0, 10
    2138:	2900000a 	stmdbcs	r0, {r1, r3}
    213c:	000005a7 	andeq	r0, r0, r7, lsr #11
    2140:	059d2904 	ldreq	r2, [sp, #2308]	; 0x904
    2144:	2a000000 	bcs	214c <__code_start__-0x5eb4>
    2148:	00000594 	muleq	r0, r4, r5
    214c:	00000798 	muleq	r0, r8, r7
    2150:	008fb41a 	addeq	fp, pc, sl, lsl r4	; <UNPREDICTABLE>
    2154:	00000400 	andeq	r0, r0, r0, lsl #8
    2158:	05be2c00 	ldreq	r2, [lr, #3072]!	; 0xc00
    215c:	2b050000 	blcs	142164 <__bss_end__+0x135574>
    2160:	000005b1 			; <UNDEFINED> instruction: 0x000005b1
    2164:	a5980305 	ldrge	r0, [r8, #773]	; 0x305
    2168:	00000000 	andeq	r0, r0, r0
    216c:	0001d219 	andeq	sp, r1, r9, lsl r2
    2170:	008fb800 	addeq	fp, pc, r0, lsl #16
    2174:	00003c00 	andeq	r3, r0, r0, lsl #24
    2178:	4b110500 	blmi	443580 <__bss_end__+0x436990>
    217c:	2d00000a 	stccs	0, cr0, [r0, #-40]	; 0xffffffd8
    2180:	000001e2 	andeq	r0, r0, r2, ror #3
    2184:	90002000 	andls	r2, r0, r0
    2188:	0e9a0000 	cdpeq	0, 9, cr0, cr10, cr0, {0}
    218c:	1c1e0000 	ldcne	0, cr0, [lr], {-0}
    2190:	84000090 	strhi	r0, [r0], #-144	; 0x90
    2194:	8c00000e 	stchi	0, cr0, [r0], {14}
    2198:	1f00000a 	svcne	0x0000000a
    219c:	41015301 	tstmi	r1, r1, lsl #6
    21a0:	0552011f 	ldrbeq	r0, [r2, #-287]	; 0x11f
    21a4:	00a58c03 	adceq	r8, r5, r3, lsl #24
    21a8:	51011f00 	tstpl	r1, r0, lsl #30
    21ac:	a44c0305 	strbge	r0, [ip], #-773	; 0x305
    21b0:	011f0000 	tsteq	pc, r0
    21b4:	40030550 	andmi	r0, r3, r0, asr r5
    21b8:	1f00009f 	svcne	0x0000009f
    21bc:	05007d02 	streq	r7, [r0, #-3330]	; 0xd02
    21c0:	00a45803 	adceq	r5, r4, r3, lsl #16
    21c4:	20200000 	eorcs	r0, r0, r0
    21c8:	a1000090 	swpge	r0, r0, [r0]	; <UNPREDICTABLE>
    21cc:	0000000e 	andeq	r0, r0, lr
    21d0:	01ee1900 	mvneq	r1, r0, lsl #18
    21d4:	90200000 	eorls	r0, r0, r0
    21d8:	00040000 	andeq	r0, r4, r0
    21dc:	58010000 	stmdapl	r1, {}	; <UNPREDICTABLE>
    21e0:	00000abe 			; <UNDEFINED> instruction: 0x00000abe
    21e4:	0090201a 	addseq	r2, r0, sl, lsl r0
    21e8:	00000400 	andeq	r0, r0, r0, lsl #8
    21ec:	01fe1d00 	mvnseq	r1, r0, lsl #26
    21f0:	07ab0000 	streq	r0, [fp, r0]!
    21f4:	00000000 	andeq	r0, r0, r0
    21f8:	00054b19 	andeq	r4, r5, r9, lsl fp
    21fc:	00902400 	addseq	r2, r0, r0, lsl #8
    2200:	00006c00 	andeq	r6, r0, r0, lsl #24
    2204:	9c580100 	ldflse	f0, [r8], {-0}
    2208:	2a00000b 	bcs	223c <__code_start__-0x5dc4>
    220c:	0000055b 	andeq	r0, r0, fp, asr r5
    2210:	000007ab 	andeq	r0, r0, fp, lsr #15
    2214:	0090241a 	addseq	r2, r0, sl, lsl r4
    2218:	00006c00 	andeq	r6, r0, r0, lsl #24
    221c:	05661b00 	strbeq	r1, [r6, #-2816]!	; 0xb00
    2220:	712b0000 	teqvc	fp, r0
    2224:	05000005 	streq	r0, [r0, #-5]
    2228:	00a58c03 	adceq	r8, r5, r3, lsl #24
    222c:	05841900 	streq	r1, [r4, #2304]	; 0x900
    2230:	90240000 	eorls	r0, r4, r0
    2234:	00040000 	andeq	r0, r4, r0
    2238:	10050000 	andne	r0, r5, r0
    223c:	00000b37 	andeq	r0, r0, r7, lsr fp
    2240:	0005a729 	andeq	sl, r5, r9, lsr #14
    2244:	9d290400 	cfstrsls	mvf0, [r9, #-0]
    2248:	00000005 	andeq	r0, r0, r5
    224c:	0005942a 	andeq	r9, r5, sl, lsr #8
    2250:	0007ab00 	andeq	sl, r7, r0, lsl #22
    2254:	90241a00 	eorls	r1, r4, r0, lsl #20
    2258:	00040000 	andeq	r0, r4, r0
    225c:	be2c0000 	cdplt	0, 2, cr0, cr12, cr0, {0}
    2260:	05000005 	streq	r0, [r0, #-5]
    2264:	0005b12b 	andeq	fp, r5, fp, lsr #2
    2268:	98030500 	stmdals	r3, {r8, sl}
    226c:	000000a5 	andeq	r0, r0, r5, lsr #1
    2270:	01d21900 	bicseq	r1, r2, r0, lsl #18
    2274:	90280000 	eorls	r0, r8, r0
    2278:	003c0000 	eorseq	r0, ip, r0
    227c:	11050000 	mrsne	r0, (UNDEF: 5)
    2280:	00000b50 	andeq	r0, r0, r0, asr fp
    2284:	0001e22d 	andeq	lr, r1, sp, lsr #4
    2288:	70200000 	eorvc	r0, r0, r0
    228c:	9a000090 	bls	24d4 <__code_start__-0x5b2c>
    2290:	1e00000e 	cdpne	0, 0, cr0, cr0, cr14, {0}
    2294:	0000908c 	andeq	r9, r0, ip, lsl #1
    2298:	00000e84 	andeq	r0, r0, r4, lsl #29
    229c:	00000b91 	muleq	r0, r1, fp
    22a0:	0153011f 	cmpeq	r3, pc, lsl r1
    22a4:	52011f41 	andpl	r1, r1, #260	; 0x104
    22a8:	a58c0305 	strge	r0, [ip, #773]	; 0x305
    22ac:	011f0000 	tsteq	pc, r0
    22b0:	4c030551 	cfstr32mi	mvfx0, [r3], {81}	; 0x51
    22b4:	1f0000a4 	svcne	0x000000a4
    22b8:	03055001 	movweq	r5, #20481	; 0x5001
    22bc:	00009f40 	andeq	r9, r0, r0, asr #30
    22c0:	007d021f 	rsbseq	r0, sp, pc, lsl r2
    22c4:	a4580305 	ldrbge	r0, [r8], #-773	; 0x305
    22c8:	20000000 	andcs	r0, r0, r0
    22cc:	00009090 	muleq	r0, r0, r0
    22d0:	00000ea1 	andeq	r0, r0, r1, lsr #29
    22d4:	a4210000 	strtge	r0, [r1], #-0
    22d8:	ac00008c 	stcge	0, cr0, [r0], {140}	; 0x8c
    22dc:	1f00000b 	svcne	0x0000000b
    22e0:	74025001 	strvc	r5, [r2], #-1
    22e4:	cc1e0000 	ldcgt	0, cr0, [lr], {-0}
    22e8:	8400008c 	strhi	r0, [r0], #-140	; 0x8c
    22ec:	d200000e 	andle	r0, r0, #14
    22f0:	1f00000b 	svcne	0x0000000b
    22f4:	08025301 	stmdaeq	r2, {r0, r8, r9, ip, lr}
    22f8:	52011f34 	andpl	r1, r1, #52, 30	; 0xd0
    22fc:	1f007902 	svcne	0x00007902
    2300:	7a025101 	bvc	9670c <__bss_end__+0x89b1c>
    2304:	50011f00 	andpl	r1, r1, r0, lsl #30
    2308:	00007b02 	andeq	r7, r0, r2, lsl #22
    230c:	008cd81e 	addeq	sp, ip, lr, lsl r8
    2310:	000eb900 	andeq	fp, lr, r0, lsl #18
    2314:	000beb00 	andeq	lr, fp, r0, lsl #22
    2318:	51011f00 	tstpl	r1, r0, lsl #30
    231c:	1f007502 	svcne	0x00007502
    2320:	30015001 	andcc	r5, r1, r1
    2324:	8d001e00 	stchi	14, cr1, [r0, #-0]
    2328:	0ecf0000 	cdpeq	0, 12, cr0, cr15, cr0, {0}
    232c:	0c050000 	stceq	0, cr0, [r5], {-0}
    2330:	011f0000 	tsteq	pc, r0
    2334:	00740252 	rsbseq	r0, r4, r2, asr r2
    2338:	0250011f 	subseq	r0, r0, #-1073741817	; 0xc0000007
    233c:	21000077 	tstcs	r0, r7, ror r0
    2340:	00008d18 	andeq	r8, r0, r8, lsl sp
    2344:	00000c15 	andeq	r0, r0, r5, lsl ip
    2348:	0250011f 	subseq	r0, r0, #-1073741817	; 0xc0000007
    234c:	21000074 	tstcs	r0, r4, ror r0
    2350:	00008d24 	andeq	r8, r0, r4, lsr #26
    2354:	00000c25 	andeq	r0, r0, r5, lsr #24
    2358:	0250011f 	subseq	r0, r0, #-1073741817	; 0xc0000007
    235c:	1e000074 	mcrne	0, 0, r0, cr0, cr4, {3}
    2360:	00008d3c 	andeq	r8, r0, ip, lsr sp
    2364:	00000e84 	andeq	r0, r0, r4, lsl #29
    2368:	00000c3c 	andeq	r0, r0, ip, lsr ip
    236c:	0550011f 	ldrbeq	r0, [r0, #-287]	; 0x11f
    2370:	00a3d003 	adceq	sp, r3, r3
    2374:	701e0000 	andsvc	r0, lr, r0
    2378:	8400008d 	strhi	r0, [r0], #-141	; 0x8d
    237c:	5300000e 	movwpl	r0, #14
    2380:	1f00000c 	svcne	0x0000000c
    2384:	03055001 	movweq	r5, #20481	; 0x5001
    2388:	0000a418 	andeq	sl, r0, r8, lsl r4
    238c:	8e8c1e00 	cdphi	14, 8, cr1, cr12, cr0, {0}
    2390:	0e840000 	cdpeq	0, 8, cr0, cr4, cr0, {0}
    2394:	0c700000 	ldcleq	0, cr0, [r0], #-0
    2398:	011f0000 	tsteq	pc, r0
    239c:	00780252 	rsbseq	r0, r8, r2, asr r2
    23a0:	0550011f 	ldrbeq	r0, [r0, #-287]	; 0x11f
    23a4:	00a49003 	adceq	r9, r4, r3
    23a8:	ac1e0000 	ldcge	0, cr0, [lr], {-0}
    23ac:	8400008f 	strhi	r0, [r0], #-143	; 0x8f
    23b0:	8700000e 	strhi	r0, [r0, -lr]
    23b4:	1f00000c 	svcne	0x0000000c
    23b8:	03055001 	movweq	r5, #20481	; 0x5001
    23bc:	0000a4ac 	andeq	sl, r0, ip, lsr #9
    23c0:	8fb41e00 	svchi	0x00b41e00
    23c4:	0ea80000 	cdpeq	0, 10, cr0, cr8, cr0, {0}
    23c8:	0c9a0000 	ldceq	0, cr0, [sl], {0}
    23cc:	011f0000 	tsteq	pc, r0
    23d0:	00300150 	eorseq	r0, r0, r0, asr r1
    23d4:	00909c20 	addseq	r9, r0, r0, lsr #24
    23d8:	000e9a00 	andeq	r9, lr, r0, lsl #20
    23dc:	90b81e00 	adcsls	r1, r8, r0, lsl #28
    23e0:	0e840000 	cdpeq	0, 8, cr0, cr4, cr0, {0}
    23e4:	0cd60000 	ldcleq	0, cr0, [r6], {0}
    23e8:	011f0000 	tsteq	pc, r0
    23ec:	58080253 	stmdapl	r8, {r0, r1, r4, r6, r9}
    23f0:	0252011f 	subseq	r0, r2, #-1073741817	; 0xc0000007
    23f4:	011f0079 	tsteq	pc, r9, ror r0	; <UNPREDICTABLE>
    23f8:	007a0251 	rsbseq	r0, sl, r1, asr r2
    23fc:	0550011f 	ldrbeq	r0, [r0, #-287]	; 0x11f
    2400:	009f4003 	addseq	r4, pc, r3
    2404:	7d021f00 	stcvc	15, cr1, [r2, #-0]
    2408:	c4030500 	strgt	r0, [r3], #-1280	; 0x500
    240c:	000000a4 	andeq	r0, r0, r4, lsr #1
    2410:	0090bc20 	addseq	fp, r0, r0, lsr #24
    2414:	000ea100 	andeq	sl, lr, r0, lsl #2
    2418:	7f230000 	svcvc	0x00230000
    241c:	f0000000 			; <UNDEFINED> instruction: 0xf0000000
    2420:	2400000c 	strcs	r0, [r0], #-12
    2424:	00000076 	andeq	r0, r0, r6, ror r0
    2428:	e0070011 	and	r0, r7, r1, lsl r0
    242c:	2700000c 	strcs	r0, [r0, -ip]
    2430:	00000554 	andeq	r0, r0, r4, asr r5
    2434:	002c6401 	eoreq	r6, ip, r1, lsl #8
    2438:	913c0000 	teqls	ip, r0
    243c:	00840000 	addeq	r0, r4, r0
    2440:	9c010000 	stcls	0, cr0, [r1], {-0}
    2444:	00000db9 			; <UNDEFINED> instruction: 0x00000db9
    2448:	01006316 	tsteq	r0, r6, lsl r3
    244c:	00047a64 	andeq	r7, r4, r4, ror #20
    2450:	0007be00 	andeq	fp, r7, r0, lsl #28
    2454:	00691800 	rsbeq	r1, r9, r0, lsl #16
    2458:	002c6701 	eoreq	r6, ip, r1, lsl #14
    245c:	07dc0000 	ldrbeq	r0, [ip, r0]
    2460:	29170000 	ldmdbcs	r7, {}	; <UNPREDICTABLE>
    2464:	c9000001 	stmdbgt	r0, {r0}
    2468:	0500000d 	streq	r0, [r0, #-13]
    246c:	00a52c03 	adceq	r2, r5, r3, lsl #24
    2470:	91582100 	cmpls	r8, r0, lsl #2
    2474:	0d470000 	stcleq	0, cr0, [r7, #-0]
    2478:	011f0000 	tsteq	pc, r0
    247c:	00740250 	rsbseq	r0, r4, r0, asr r2
    2480:	91642100 	cmnls	r4, r0, lsl #2
    2484:	0d570000 	ldcleq	0, cr0, [r7, #-0]
    2488:	011f0000 	tsteq	pc, r0
    248c:	00740250 	rsbseq	r0, r4, r0, asr r2
    2490:	91702100 	cmnls	r0, r0, lsl #2
    2494:	0d670000 	stcleq	0, cr0, [r7, #-0]
    2498:	011f0000 	tsteq	pc, r0
    249c:	00740250 	rsbseq	r0, r4, r0, asr r2
    24a0:	917c2100 	cmnls	ip, r0, lsl #2
    24a4:	0d770000 	ldcleq	0, cr0, [r7, #-0]
    24a8:	011f0000 	tsteq	pc, r0
    24ac:	00740250 	rsbseq	r0, r4, r0, asr r2
    24b0:	91882000 	orrls	r2, r8, r0
    24b4:	0e9a0000 	cdpeq	0, 9, cr0, cr10, cr0, {0}
    24b8:	9c1e0000 	ldcls	0, cr0, [lr], {-0}
    24bc:	84000091 	strhi	r0, [r0], #-145	; 0x91
    24c0:	af00000e 	svcge	0x0000000e
    24c4:	1f00000d 	svcne	0x0000000d
    24c8:	08025301 	stmdaeq	r2, {r0, r8, r9, ip, lr}
    24cc:	52011f6e 	andpl	r1, r1, #440	; 0x1b8
    24d0:	a52c0305 	strge	r0, [ip, #-773]!	; 0x305
    24d4:	011f0000 	tsteq	pc, r0
    24d8:	70030551 	andvc	r0, r3, r1, asr r5
    24dc:	1f0000a2 	svcne	0x000000a2
    24e0:	03055001 	movweq	r5, #20481	; 0x5001
    24e4:	0000a4f0 	strdeq	sl, [r0], -r0
    24e8:	91a02000 	movls	r2, r0
    24ec:	0ea10000 	cdpeq	0, 10, cr0, cr1, cr0, {0}
    24f0:	23000000 	movwcs	r0, #0
    24f4:	0000007f 	andeq	r0, r0, pc, ror r0
    24f8:	00000dc9 	andeq	r0, r0, r9, asr #27
    24fc:	00007624 	andeq	r7, r0, r4, lsr #12
    2500:	07001000 	streq	r1, [r0, -r0]
    2504:	00000db9 			; <UNDEFINED> instruction: 0x00000db9
    2508:	0004d714 	andeq	sp, r4, r4, lsl r7
    250c:	c07d0100 	rsbsgt	r0, sp, r0, lsl #2
    2510:	28000091 	stmdacs	r0, {r0, r4, r7}
    2514:	01000000 	mrseq	r0, (UNDEF: 0)
    2518:	000def9c 	muleq	sp, ip, pc	; <UNPREDICTABLE>
    251c:	00632e00 	rsbeq	r2, r3, r0, lsl #28
    2520:	047a7d01 	ldrbteq	r7, [sl], #-3329	; 0xd01
    2524:	50010000 	andpl	r0, r1, r0
    2528:	01fe2f00 	mvnseq	r2, r0, lsl #30
    252c:	88010000 	stmdahi	r1, {}	; <UNPREDICTABLE>
    2530:	00000025 	andeq	r0, r0, r5, lsr #32
    2534:	000091e8 	andeq	r9, r0, r8, ror #3
    2538:	0000004c 	andeq	r0, r0, ip, asr #32
    253c:	0e579c01 	cdpeq	12, 5, cr9, cr7, cr1, {0}
    2540:	63160000 	tstvs	r6, #0
    2544:	7a880100 	bvc	fe20294c <__bss_end__+0xfe1f5d5c>
    2548:	fb000004 	blx	2562 <__code_start__-0x5a9e>
    254c:	20000007 	andcs	r0, r0, r7
    2550:	000091f4 	strdeq	r9, [r0], -r4
    2554:	00000efb 	strdeq	r0, [r0], -fp
    2558:	0091fc1e 	addseq	pc, r1, lr, lsl ip	; <UNPREDICTABLE>
    255c:	000dce00 	andeq	ip, sp, r0, lsl #28
    2560:	000e3200 	andeq	r3, lr, r0, lsl #4
    2564:	50011f00 	andpl	r1, r1, r0, lsl #30
    2568:	00007402 	andeq	r7, r0, r2, lsl #8
    256c:	0092041e 	addseq	r0, r2, lr, lsl r4
    2570:	000cf500 	andeq	pc, ip, r0, lsl #10
    2574:	000e4600 	andeq	r4, lr, r0, lsl #12
    2578:	50011f00 	andpl	r1, r1, r0, lsl #30
    257c:	00007402 	andeq	r7, r0, r2, lsl #8
    2580:	00921422 	addseq	r1, r2, r2, lsr #8
    2584:	0005cd00 	andeq	ip, r5, r0, lsl #26
    2588:	50011f00 	andpl	r1, r1, r0, lsl #30
    258c:	00007402 	andeq	r7, r0, r2, lsl #8
    2590:	018e2800 	orreq	r2, lr, r0, lsl #16
    2594:	06010000 	streq	r0, [r1], -r0
    2598:	0000047a 	andeq	r0, r0, sl, ror r4
    259c:	c7e40305 	strbgt	r0, [r4, r5, lsl #6]!
    25a0:	12280000 	eorne	r0, r8, #0
    25a4:	01000005 	tsteq	r0, r5
    25a8:	00007d08 	andeq	r7, r0, r8, lsl #26
    25ac:	e8030500 	stmda	r3, {r8, sl}
    25b0:	300000c7 	andcc	r0, r0, r7, asr #1
    25b4:	0000011b 	andeq	r0, r0, fp, lsl r1
    25b8:	0025c202 	eoreq	ip, r5, r2, lsl #4
    25bc:	6f310000 	svcvs	0x00310000
    25c0:	08000006 	stmdaeq	r0, {r1, r2}
    25c4:	00002529 	andeq	r2, r0, r9, lsr #10
    25c8:	000e9a00 	andeq	r9, lr, r0, lsl #20
    25cc:	00860900 	addeq	r0, r6, r0, lsl #18
    25d0:	00320000 	eorseq	r0, r2, r0
    25d4:	00010c33 	andeq	r0, r1, r3, lsr ip
    25d8:	331e0800 	tstcc	lr, #0, 16
    25dc:	00000152 	andeq	r0, r0, r2, asr r1
    25e0:	f1346508 			; <UNDEFINED> instruction: 0xf1346508
    25e4:	02000003 	andeq	r0, r0, #3
    25e8:	000eb9e3 	andeq	fp, lr, r3, ror #19
    25ec:	005d0900 	subseq	r0, sp, r0, lsl #18
    25f0:	34000000 	strcc	r0, [r0], #-0
    25f4:	000003b1 			; <UNDEFINED> instruction: 0x000003b1
    25f8:	0ecfd902 	cdpeq	9, 12, cr13, cr15, cr2, {0}
    25fc:	5d090000 	stcpl	0, cr0, [r9, #-0]
    2600:	09000000 	stmdbeq	r0, {}	; <UNPREDICTABLE>
    2604:	00000091 	muleq	r0, r1, r0
    2608:	04f53400 	ldrbteq	r3, [r5], #1024	; 0x400
    260c:	f3020000 	vhadd.u8	d0, d2, d0
    2610:	00000eea 	andeq	r0, r0, sl, ror #29
    2614:	00005d09 	andeq	r5, r0, r9, lsl #26
    2618:	0eea0900 	cdpeq	9, 14, cr0, cr10, cr0, {0}
    261c:	7d090000 	stcvc	0, cr0, [r9, #-0]
    2620:	00000000 	andeq	r0, r0, r0
    2624:	0ef00406 	cdpeq	4, 15, cr0, cr0, cr6, {0}
    2628:	fb080000 	blx	202632 <__bss_end__+0x1f5a42>
    262c:	0900000e 	stmdbeq	r0, {r1, r2, r3}
    2630:	0000007d 	andeq	r0, r0, sp, ror r0
    2634:	043a3300 	ldrteq	r3, [sl], #-768	; 0x300
    2638:	90020000 	andls	r0, r2, r0
    263c:	0000db00 	andeq	sp, r0, r0, lsl #22
    2640:	02000400 	andeq	r0, r0, #0, 8
    2644:	04000008 	streq	r0, [r0], #-8
    2648:	0005f801 	andeq	pc, r5, r1, lsl #16
    264c:	05a40100 	streq	r0, [r4, #256]!	; 0x100
    2650:	05b20000 	ldreq	r0, [r2, #0]!
    2654:	92340000 	eorsls	r0, r4, #0
    2658:	00200000 	eoreq	r0, r0, r0
    265c:	070f0000 	streq	r0, [pc, -r0]
    2660:	01020000 	mrseq	r0, (UNDEF: 2)
    2664:	0001a206 	andeq	sl, r1, r6, lsl #4
    2668:	08010200 	stmdaeq	r1, {r9}
    266c:	000001a0 	andeq	r0, r0, r0, lsr #3
    2670:	c4050202 	strgt	r0, [r5], #-514	; 0x202
    2674:	02000001 	andeq	r0, r0, #1
    2678:	013f0702 	teqeq	pc, r2, lsl #14
    267c:	04030000 	streq	r0, [r3], #-0
    2680:	746e6905 	strbtvc	r6, [lr], #-2309	; 0x905
    2684:	07040200 	streq	r0, [r4, -r0, lsl #4]
    2688:	000000a7 	andeq	r0, r0, r7, lsr #1
    268c:	c3050802 	movwgt	r0, #22530	; 0x5802
    2690:	02000000 	andeq	r0, r0, #0
    2694:	009d0708 	addseq	r0, sp, r8, lsl #14
    2698:	04020000 	streq	r0, [r2], #-0
    269c:	0000c805 	andeq	ip, r0, r5, lsl #16
    26a0:	07040200 	streq	r0, [r4, -r0, lsl #4]
    26a4:	00000164 	andeq	r0, r0, r4, ror #2
    26a8:	04020404 	streq	r0, [r2], #-1028	; 0x404
    26ac:	0000a207 	andeq	sl, r0, r7, lsl #4
    26b0:	7a040500 	bvc	103ab8 <__bss_end__+0xf6ec8>
    26b4:	02000000 	andeq	r0, r0, #0
    26b8:	01a90801 			; <UNDEFINED> instruction: 0x01a90801
    26bc:	68060000 	stmdavs	r6, {}	; <UNPREDICTABLE>
    26c0:	02000000 	andeq	r0, r0, #0
    26c4:	000048d4 	ldrdeq	r4, [r0], -r4	; <UNPREDICTABLE>
    26c8:	021a0700 	andseq	r0, sl, #0, 14
    26cc:	1b030000 	blne	c26d4 <__bss_end__+0xb5ae4>
    26d0:	0000006b 	andeq	r0, r0, fp, rrx
    26d4:	00009234 	andeq	r9, r0, r4, lsr r2
    26d8:	00000020 	andeq	r0, r0, r0, lsr #32
    26dc:	5f089c01 	svcpl	0x00089c01
    26e0:	03010070 	movweq	r0, #4208	; 0x1070
    26e4:	0000006b 	andeq	r0, r0, fp, rrx
    26e8:	63085001 	movwvs	r5, #32769	; 0x8001
    26ec:	41030100 	mrsmi	r0, (UNDEF: 19)
    26f0:	01000000 	mrseq	r0, (UNDEF: 0)
    26f4:	006e0951 	rsbeq	r0, lr, r1, asr r9
    26f8:	00810301 	addeq	r0, r1, r1, lsl #6
    26fc:	08190000 	ldmdaeq	r9, {}	; <UNPREDICTABLE>
    2700:	700a0000 	andvc	r0, sl, r0
    2704:	74040100 	strvc	r0, [r4], #-256	; 0x100
    2708:	3a000000 	bcc	2710 <__code_start__-0x58f0>
    270c:	0b000008 	bleq	2734 <__code_start__-0x58cc>
    2710:	04010065 	streq	r0, [r1], #-101	; 0x65
    2714:	00000074 	andeq	r0, r0, r4, ror r0
    2718:	00005201 	andeq	r5, r0, r1, lsl #4
    271c:	00000191 	muleq	r0, r1, r1
    2720:	089f0004 	ldmeq	pc, {r2}	; <UNPREDICTABLE>
    2724:	01040000 	mrseq	r0, (UNDEF: 4)
    2728:	000005f8 	strdeq	r0, [r0], -r8
    272c:	00065e01 	andeq	r5, r6, r1, lsl #28
    2730:	0005b200 	andeq	fp, r5, r0, lsl #4
    2734:	00925400 	addseq	r5, r2, r0, lsl #8
    2738:	00005800 	andeq	r5, r0, r0, lsl #16
    273c:	0007ff00 	andeq	pc, r7, r0, lsl #30
    2740:	064f0200 	strbeq	r0, [pc], -r0, lsl #4
    2744:	28020000 	stmdacs	r2, {}	; <UNPREDICTABLE>
    2748:	00000030 	andeq	r0, r0, r0, lsr r0
    274c:	00067603 	andeq	r7, r6, r3, lsl #12
    2750:	00030400 	andeq	r0, r3, r0, lsl #8
    2754:	00000047 	andeq	r0, r0, r7, asr #32
    2758:	00068004 	andeq	r8, r6, r4
    275c:	00004700 	andeq	r4, r0, r0, lsl #14
    2760:	05000000 	streq	r0, [r0, #-0]
    2764:	06780204 	ldrbteq	r0, [r8], -r4, lsl #4
    2768:	62020000 	andvs	r0, r2, #0
    276c:	00000025 	andeq	r0, r0, r5, lsr #32
    2770:	69050406 	stmdbvs	r5, {r1, r2, sl}
    2774:	0700746e 	streq	r7, [r0, -lr, ror #8]
    2778:	00a70704 	adceq	r0, r7, r4, lsl #14
    277c:	01070000 	mrseq	r0, (UNDEF: 7)
    2780:	0001a206 	andeq	sl, r1, r6, lsl #4
    2784:	05020700 	streq	r0, [r2, #-1792]	; 0x700
    2788:	000001c4 	andeq	r0, r0, r4, asr #3
    278c:	c8050407 	stmdagt	r5, {r0, r1, r2, sl}
    2790:	07000000 	streq	r0, [r0, -r0]
    2794:	00c30508 	sbceq	r0, r3, r8, lsl #10
    2798:	01070000 	mrseq	r0, (UNDEF: 7)
    279c:	0001a008 	andeq	sl, r1, r8
    27a0:	07020700 	streq	r0, [r2, -r0, lsl #14]
    27a4:	0000013f 	andeq	r0, r0, pc, lsr r1
    27a8:	a2070407 	andge	r0, r7, #117440512	; 0x7000000
    27ac:	07000000 	streq	r0, [r0, -r0]
    27b0:	009d0708 	addseq	r0, sp, r8, lsl #14
    27b4:	04070000 	streq	r0, [r7], #-0
    27b8:	00016407 	andeq	r6, r1, r7, lsl #8
    27bc:	a7040800 	strge	r0, [r4, -r0, lsl #16]
    27c0:	07000000 	streq	r0, [r0, -r0]
    27c4:	01a90801 			; <UNDEFINED> instruction: 0x01a90801
    27c8:	04080000 	streq	r0, [r8], #-0
    27cc:	000000b4 	strheq	r0, [r0], -r4
    27d0:	0000a709 	andeq	sl, r0, r9, lsl #14
    27d4:	066f0a00 	strbteq	r0, [pc], -r0, lsl #20
    27d8:	06010000 	streq	r0, [r1], -r0
    27dc:	00000054 	andeq	r0, r0, r4, asr r0
    27e0:	00009254 	andeq	r9, r0, r4, asr r2
    27e4:	00000058 	andeq	r0, r0, r8, asr r0
    27e8:	01439c01 	cmpeq	r3, r1, lsl #24
    27ec:	660b0000 	strvs	r0, [fp], -r0
    27f0:	0100746d 	tsteq	r0, sp, ror #8
    27f4:	0000ae06 	andeq	sl, r0, r6, lsl #28
    27f8:	70910200 	addsvc	r0, r1, r0, lsl #4
    27fc:	75620d0c 	strbvc	r0, [r2, #-3340]!	; 0xd0c
    2800:	08010066 	stmdaeq	r1, {r1, r2, r5, r6}
    2804:	00000143 	andeq	r0, r0, r3, asr #2
    2808:	c7ec0305 	strbgt	r0, [ip, r5, lsl #6]!
    280c:	3c0e0000 	stccc	0, cr0, [lr], {-0}
    2810:	0100000b 	tsteq	r0, fp
    2814:	00004909 	andeq	r4, r0, r9, lsl #18
    2818:	5c910200 	lfmpl	f0, 4, [r1], {0}
    281c:	007a730f 	rsbseq	r7, sl, pc, lsl #6
    2820:	00540c01 	subseq	r0, r4, r1, lsl #24
    2824:	08650000 	stmdaeq	r5!, {}^	; <UNPREDICTABLE>
    2828:	7c100000 	ldcvc	0, cr0, [r0], {-0}
    282c:	74000092 	strvc	r0, [r0], #-146	; 0x92
    2830:	36000001 	strcc	r0, [r0], -r1
    2834:	11000001 	tstne	r0, r1
    2838:	91025301 	tstls	r2, r1, lsl #6
    283c:	5201114c 	andpl	r1, r1, #76, 2
    2840:	06489103 	strbeq	r9, [r8], -r3, lsl #2
    2844:	03510111 	cmpeq	r1, #1073741828	; 0x40000004
    2848:	1104000a 	tstne	r4, sl
    284c:	74025001 	strvc	r5, [r2], #-1
    2850:	90120000 	andsls	r0, r2, r0
    2854:	11000092 	swpne	r0, r2, [r0]	; <UNPREDICTABLE>
    2858:	74025001 	strvc	r5, [r2], #-1
    285c:	13000000 	movwne	r0, #0
    2860:	000000a7 	andeq	r0, r0, r7, lsr #1
    2864:	00000154 	andeq	r0, r0, r4, asr r1
    2868:	00009a14 	andeq	r9, r0, r4, lsl sl
    286c:	0003ff00 	andeq	pc, r3, r0, lsl #30
    2870:	00005415 	andeq	r5, r0, r5, lsl r4
    2874:	00016300 	andeq	r6, r1, r0, lsl #6
    2878:	00ae1600 	adceq	r1, lr, r0, lsl #12
    287c:	17000000 	strne	r0, [r0, -r0]
    2880:	000006dd 	ldrdeq	r0, [r0], -sp
    2884:	016e2204 	cmneq	lr, r4, lsl #4
    2888:	04080000 	streq	r0, [r8], #-0
    288c:	00000154 	andeq	r0, r0, r4, asr r1
    2890:	00066c18 	andeq	r6, r6, r8, lsl ip
    2894:	54020500 	strpl	r0, [r2], #-1280	; 0x500
    2898:	16000000 	strne	r0, [r0], -r0
    289c:	000000a1 	andeq	r0, r0, r1, lsr #1
    28a0:	00005416 	andeq	r5, r0, r6, lsl r4
    28a4:	00ae1600 	adceq	r1, lr, r0, lsl #12
    28a8:	49160000 	ldmdbmi	r6, {}	; <UNPREDICTABLE>
    28ac:	00000000 	andeq	r0, r0, r0
    28b0:	00011300 	andeq	r1, r1, r0, lsl #6
    28b4:	d0000400 	andle	r0, r0, r0, lsl #8
    28b8:	04000009 	streq	r0, [r0], #-9
    28bc:	0005f801 	andeq	pc, r5, r1, lsl #16
    28c0:	06ac0100 	strteq	r0, [ip], r0, lsl #2
    28c4:	05b20000 	ldreq	r0, [r2, #0]!
    28c8:	92ac0000 	adcls	r0, ip, #0
    28cc:	003c0000 	eorseq	r0, ip, r0
    28d0:	090f0000 	stmdbeq	pc, {}	; <UNPREDICTABLE>
    28d4:	04020000 	streq	r0, [r2], #-0
    28d8:	746e6905 	strbtvc	r6, [lr], #-2309	; 0x905
    28dc:	07040300 	streq	r0, [r4, -r0, lsl #6]
    28e0:	000000a7 	andeq	r0, r0, r7, lsr #1
    28e4:	a2060103 	andge	r0, r6, #-1073741824	; 0xc0000000
    28e8:	03000001 	movweq	r0, #1
    28ec:	01c40502 	biceq	r0, r4, r2, lsl #10
    28f0:	04030000 	streq	r0, [r3], #-0
    28f4:	0000c805 	andeq	ip, r0, r5, lsl #16
    28f8:	05080300 	streq	r0, [r8, #-768]	; 0x300
    28fc:	000000c3 	andeq	r0, r0, r3, asr #1
    2900:	a0080103 	andge	r0, r8, r3, lsl #2
    2904:	03000001 	movweq	r0, #1
    2908:	013f0702 	teqeq	pc, r2, lsl #14
    290c:	04030000 	streq	r0, [r3], #-0
    2910:	0000a207 	andeq	sl, r0, r7, lsl #4
    2914:	07080300 	streq	r0, [r8, -r0, lsl #6]
    2918:	0000009d 	muleq	r0, sp, r0
    291c:	64070403 	strvs	r0, [r7], #-1027	; 0x403
    2920:	03000001 	movweq	r0, #1
    2924:	01a90801 			; <UNDEFINED> instruction: 0x01a90801
    2928:	8f040000 	svchi	0x00040000
    292c:	01000006 	tsteq	r0, r6
    2930:	00002503 	andeq	r2, r0, r3, lsl #10
    2934:	0092ac00 	addseq	sl, r2, r0, lsl #24
    2938:	00001400 	andeq	r1, r0, r0, lsl #8
    293c:	b09c0100 	addslt	r0, ip, r0, lsl #2
    2940:	05000000 	streq	r0, [r0, #-0]
    2944:	03010063 	movweq	r0, #4195	; 0x1063
    2948:	00000025 	andeq	r0, r0, r5, lsr #32
    294c:	0000088e 	andeq	r0, r0, lr, lsl #17
    2950:	0092b806 	addseq	fp, r2, r6, lsl #16
    2954:	00010900 	andeq	r0, r1, r0, lsl #18
    2958:	50010700 	andpl	r0, r1, r0, lsl #14
    295c:	00007402 	andeq	r7, r0, r2, lsl #8
    2960:	010c0800 	tsteq	ip, r0, lsl #16
    2964:	08010000 	stmdaeq	r1, {}	; <UNPREDICTABLE>
    2968:	000092c0 	andeq	r9, r0, r0, asr #5
    296c:	00000018 	andeq	r0, r0, r8, lsl r0
    2970:	bb099c01 	bllt	26997c <__bss_end__+0x25cd8c>
    2974:	01000006 	tsteq	r0, r6
    2978:	0092d80b 	addseq	sp, r2, fp, lsl #16
    297c:	00001000 	andeq	r1, r0, r0
    2980:	e39c0100 	orrs	r0, ip, #0, 2
    2984:	0a000000 	beq	298c <__code_start__-0x5674>
    2988:	01007066 	tsteq	r0, r6, rrx
    298c:	0000f20b 	andeq	pc, r0, fp, lsl #4
    2990:	00500100 	subseq	r0, r0, r0, lsl #2
    2994:	0000250b 	andeq	r2, r0, fp, lsl #10
    2998:	0000f200 	andeq	pc, r0, r0, lsl #4
    299c:	00250c00 	eoreq	r0, r5, r0, lsl #24
    29a0:	0d000000 	stceq	0, cr0, [r0, #-0]
    29a4:	0000e304 	andeq	lr, r0, r4, lsl #6
    29a8:	06a00e00 	strteq	r0, [r0], r0, lsl #28
    29ac:	06010000 	streq	r0, [r1], -r0
    29b0:	000000f2 	strdeq	r0, [r0], -r2
    29b4:	9e600305 	cdpls	3, 6, cr0, cr0, cr5, {0}
    29b8:	850f0000 	strhi	r0, [pc, #-0]	; 29c0 <__code_start__-0x5640>
    29bc:	02000006 	andeq	r0, r0, #6
    29c0:	002c0c3c 	eoreq	r0, ip, ip, lsr ip
    29c4:	00000000 	andeq	r0, r0, r0
    29c8:	000000ee 	andeq	r0, r0, lr, ror #1
    29cc:	0ab80004 	beq	fee029e4 <__bss_end__+0xfedf5df4>
    29d0:	01040000 	mrseq	r0, (UNDEF: 4)
    29d4:	000005f8 	strdeq	r0, [r0], -r8
    29d8:	0006c801 	andeq	ip, r6, r1, lsl #16
    29dc:	0005b200 	andeq	fp, r5, r0, lsl #4
    29e0:	0092e800 	addseq	lr, r2, r0, lsl #16
    29e4:	00003400 	andeq	r3, r0, r0, lsl #8
    29e8:	0009a700 	andeq	sl, r9, r0, lsl #14
    29ec:	05040200 	streq	r0, [r4, #-512]	; 0x200
    29f0:	00746e69 	rsbseq	r6, r4, r9, ror #28
    29f4:	a7070403 	strge	r0, [r7, -r3, lsl #8]
    29f8:	03000000 	movweq	r0, #0
    29fc:	01a20601 			; <UNDEFINED> instruction: 0x01a20601
    2a00:	02030000 	andeq	r0, r3, #0
    2a04:	0001c405 	andeq	ip, r1, r5, lsl #8
    2a08:	05040300 	streq	r0, [r4, #-768]	; 0x300
    2a0c:	000000c8 	andeq	r0, r0, r8, asr #1
    2a10:	c3050803 	movwgt	r0, #22531	; 0x5803
    2a14:	03000000 	movweq	r0, #0
    2a18:	01a00801 	lsleq	r0, r1, #16
    2a1c:	02030000 	andeq	r0, r3, #0
    2a20:	00013f07 	andeq	r3, r1, r7, lsl #30
    2a24:	07040300 	streq	r0, [r4, -r0, lsl #6]
    2a28:	000000a2 	andeq	r0, r0, r2, lsr #1
    2a2c:	9d070803 	stcls	8, cr0, [r7, #-12]
    2a30:	03000000 	movweq	r0, #0
    2a34:	01640704 	cmneq	r4, r4, lsl #14
    2a38:	01030000 	mrseq	r0, (UNDEF: 3)
    2a3c:	0001a908 	andeq	sl, r1, r8, lsl #18
    2a40:	7f040400 	svcvc	0x00040400
    2a44:	05000000 	streq	r0, [r0, #-0]
    2a48:	00000072 	andeq	r0, r0, r2, ror r0
    2a4c:	0006d406 	andeq	sp, r6, r6, lsl #8
    2a50:	25040100 	strcs	r0, [r4, #-256]	; 0x100
    2a54:	e8000000 	stmda	r0, {}	; <UNPREDICTABLE>
    2a58:	34000092 	strcc	r0, [r0], #-146	; 0x92
    2a5c:	01000000 	mrseq	r0, (UNDEF: 0)
    2a60:	0000ab9c 	muleq	r0, ip, fp
    2a64:	00700700 	rsbseq	r0, r0, r0, lsl #14
    2a68:	00790401 	rsbseq	r0, r9, r1, lsl #8
    2a6c:	08ac0000 	stmiaeq	ip!, {}	; <UNPREDICTABLE>
    2a70:	08000000 	stmdaeq	r0, {}	; <UNPREDICTABLE>
    2a74:	00000025 	andeq	r0, r0, r5, lsr #32
    2a78:	000000ba 	strheq	r0, [r0], -sl
    2a7c:	00002509 	andeq	r2, r0, r9, lsl #10
    2a80:	a00a0000 	andge	r0, sl, r0
    2a84:	02000006 	andeq	r0, r0, #6
    2a88:	0000c51d 	andeq	ip, r0, sp, lsl r5
    2a8c:	ab040400 	blge	103a94 <__bss_end__+0xf6ea4>
    2a90:	08000000 	stmdaeq	r0, {}	; <UNPREDICTABLE>
    2a94:	00000025 	andeq	r0, r0, r5, lsr #32
    2a98:	000000da 	ldrdeq	r0, [r0], -sl
    2a9c:	00007909 	andeq	r7, r0, r9, lsl #18
    2aa0:	dd0b0000 	stcle	0, cr0, [fp, #-0]
    2aa4:	01000006 	tsteq	r0, r6
    2aa8:	0000eb0c 	andeq	lr, r0, ip, lsl #22
    2aac:	64030500 	strvs	r0, [r3], #-1280	; 0x500
    2ab0:	0400009e 	streq	r0, [r0], #-158	; 0x9e
    2ab4:	0000cb04 	andeq	ip, r0, r4, lsl #22
    2ab8:	06e50000 	strbteq	r0, [r5], r0
    2abc:	00040000 	andeq	r0, r4, r0
    2ac0:	00000b51 	andeq	r0, r0, r1, asr fp
    2ac4:	05f80104 	ldrbeq	r0, [r8, #260]!	; 0x104
    2ac8:	13010000 	movwne	r0, #4096	; 0x1000
    2acc:	b2000007 	andlt	r0, r0, #7
    2ad0:	1c000005 	stcne	0, cr0, [r0], {5}
    2ad4:	78000093 	stmdavc	r0, {r0, r1, r4, r7}
    2ad8:	4b000005 	blmi	2af4 <__code_start__-0x550c>
    2adc:	0200000a 	andeq	r0, r0, #10
    2ae0:	6e690504 	cdpvs	5, 6, cr0, cr9, cr4, {0}
    2ae4:	04030074 	streq	r0, [r3], #-116	; 0x74
    2ae8:	0000a707 	andeq	sl, r0, r7, lsl #14
    2aec:	06010300 	streq	r0, [r1], -r0, lsl #6
    2af0:	000001a2 	andeq	r0, r0, r2, lsr #3
    2af4:	c4050203 	strgt	r0, [r5], #-515	; 0x203
    2af8:	03000001 	movweq	r0, #1
    2afc:	00c80504 	sbceq	r0, r8, r4, lsl #10
    2b00:	08030000 	stmdaeq	r3, {}	; <UNPREDICTABLE>
    2b04:	0000c305 	andeq	ip, r0, r5, lsl #6
    2b08:	08010300 	stmdaeq	r1, {r8, r9}
    2b0c:	000001a0 	andeq	r0, r0, r0, lsr #3
    2b10:	3f070203 	svccc	0x00070203
    2b14:	03000001 	movweq	r0, #1
    2b18:	00a20704 	adceq	r0, r2, r4, lsl #14
    2b1c:	08030000 	stmdaeq	r3, {}	; <UNPREDICTABLE>
    2b20:	00009d07 	andeq	r9, r0, r7, lsl #26
    2b24:	07040300 	streq	r0, [r4, -r0, lsl #6]
    2b28:	00000164 	andeq	r0, r0, r4, ror #2
    2b2c:	04050404 	streq	r0, [r5], #-1028	; 0x404
    2b30:	0000007a 	andeq	r0, r0, sl, ror r0
    2b34:	a9080103 	stmdbge	r8, {r0, r1, r8}
    2b38:	05000001 	streq	r0, [r0, #-1]
    2b3c:	00008704 	andeq	r8, r0, r4, lsl #14
    2b40:	007a0600 	rsbseq	r0, sl, r0, lsl #12
    2b44:	4f070000 	svcmi	0x00070000
    2b48:	02000006 	andeq	r0, r0, #6
    2b4c:	00009728 	andeq	r9, r0, r8, lsr #14
    2b50:	06760800 	ldrbteq	r0, [r6], -r0, lsl #16
    2b54:	04040000 	streq	r0, [r4], #-0
    2b58:	0000ae00 	andeq	sl, r0, r0, lsl #28
    2b5c:	06800900 	streq	r0, [r0], r0, lsl #18
    2b60:	00720000 	rsbseq	r0, r2, r0
    2b64:	00000000 	andeq	r0, r0, r0
    2b68:	00067807 	andeq	r7, r6, r7, lsl #16
    2b6c:	8c620200 	sfmhi	f0, 2, [r2], #-0
    2b70:	0a000000 	beq	2b78 <__code_start__-0x5488>
    2b74:	000006fa 	strdeq	r0, [r0], -sl
    2b78:	00252701 	eoreq	r2, r5, r1, lsl #14
    2b7c:	931c0000 	tstls	ip, #0
    2b80:	00140000 	andseq	r0, r4, r0
    2b84:	9c010000 	stcls	0, cr0, [r1], {-0}
    2b88:	000000e0 	andeq	r0, r0, r0, ror #1
    2b8c:	0100630b 	tsteq	r0, fp, lsl #6
    2b90:	00002527 	andeq	r2, r0, r7, lsr #10
    2b94:	0008ca00 	andeq	ip, r8, r0, lsl #20
    2b98:	700c0000 	andvc	r0, ip, r0
    2b9c:	01006461 	tsteq	r0, r1, ror #8
    2ba0:	0000742e 	andeq	r7, r0, lr, lsr #8
    2ba4:	00933000 	addseq	r3, r3, r0
    2ba8:	00002c00 	andeq	r2, r0, r0, lsl #24
    2bac:	309c0100 	addscc	r0, ip, r0, lsl #2
    2bb0:	0b000001 	bleq	2bbc <__code_start__-0x5444>
    2bb4:	2e010070 	mcrcs	0, 0, r0, cr1, cr0, {3}
    2bb8:	00000074 	andeq	r0, r0, r4, ror r0
    2bbc:	000008f8 	strdeq	r0, [r0], -r8
    2bc0:	000b1a0d 	andeq	r1, fp, sp, lsl #20
    2bc4:	742e0100 	strtvc	r0, [lr], #-256	; 0x100
    2bc8:	23000000 	movwcs	r0, #0
    2bcc:	0e000009 	cdpeq	0, 0, cr0, cr0, cr9, {0}
    2bd0:	00000733 	andeq	r0, r0, r3, lsr r7
    2bd4:	00252e01 	eoreq	r2, r5, r1, lsl #28
    2bd8:	52010000 	andpl	r0, r1, #0
    2bdc:	6e656c0f 	cdpvs	12, 6, cr6, cr5, cr15, {0}
    2be0:	252f0100 	strcs	r0, [pc, #-256]!	; 2ae8 <__code_start__-0x5518>
    2be4:	01000000 	mrseq	r0, (UNDEF: 0)
    2be8:	f20a0051 	vqadd.s8	q0, q5, <illegal reg q0.5>
    2bec:	01000006 	tsteq	r0, r6
    2bf0:	00007437 	andeq	r7, r0, r7, lsr r4
    2bf4:	00935c00 	addseq	r5, r3, r0, lsl #24
    2bf8:	00004000 	andeq	r4, r0, r0
    2bfc:	9c9c0100 	ldflss	f0, [ip], {0}
    2c00:	0b000001 	bleq	2c0c <__code_start__-0x53f4>
    2c04:	00747364 	rsbseq	r7, r4, r4, ror #6
    2c08:	00743701 	rsbseq	r3, r4, r1, lsl #14
    2c0c:	09440000 	stmdbeq	r4, {}^	; <UNPREDICTABLE>
    2c10:	6e0b0000 	cdpvs	0, 0, cr0, cr11, cr0, {0}
    2c14:	25370100 	ldrcs	r0, [r7, #-256]!	; 0x100
    2c18:	7c000000 	stcvc	0, cr0, [r0], {-0}
    2c1c:	0b000009 	bleq	2c48 <__code_start__-0x53b8>
    2c20:	37010070 	smlsdxcc	r1, r0, r0, r0
    2c24:	00000074 	andeq	r0, r0, r4, ror r0
    2c28:	0000099d 	muleq	r0, sp, r9
    2c2c:	0006e60d 	andeq	lr, r6, sp, lsl #12
    2c30:	74370100 	ldrtvc	r0, [r7], #-256	; 0x100
    2c34:	d3000000 	movwle	r0, #0
    2c38:	10000009 	andne	r0, r0, r9
    2c3c:	006e656c 	rsbeq	r6, lr, ip, ror #10
    2c40:	00253901 	eoreq	r3, r5, r1, lsl #18
    2c44:	09f10000 	ldmibeq	r1!, {}^	; <UNPREDICTABLE>
    2c48:	730f0000 	movwvc	r0, #61440	; 0xf000
    2c4c:	743d0100 	ldrtvc	r0, [sp], #-256	; 0x100
    2c50:	01000000 	mrseq	r0, (UNDEF: 0)
    2c54:	410a0050 	qaddmi	r0, r0, sl
    2c58:	01000007 	tsteq	r0, r7
    2c5c:	00007447 	andeq	r7, r0, r7, asr #8
    2c60:	00939c00 	addseq	r9, r3, r0, lsl #24
    2c64:	0001bc00 	andeq	fp, r1, r0, lsl #24
    2c68:	df9c0100 	svcle	0x009c0100
    2c6c:	0d000002 	stceq	0, cr0, [r0, #-8]
    2c70:	00000b1a 	andeq	r0, r0, sl, lsl fp
    2c74:	002c4701 	eoreq	r4, ip, r1, lsl #14
    2c78:	0a180000 	beq	602c80 <__bss_end__+0x5f6090>
    2c7c:	640b0000 	strvs	r0, [fp], #-0
    2c80:	01007473 	tsteq	r0, r3, ror r4
    2c84:	00007447 	andeq	r7, r0, r7, asr #8
    2c88:	000a4600 	andeq	r4, sl, r0, lsl #12
    2c8c:	006e0b00 	rsbeq	r0, lr, r0, lsl #22
    2c90:	00254701 	eoreq	r4, r5, r1, lsl #14
    2c94:	0ab40000 	beq	fed02c9c <__bss_end__+0xfecf60ac>
    2c98:	760b0000 	strvc	r0, [fp], -r0
    2c9c:	01006c61 	tsteq	r0, r1, ror #24
    2ca0:	00002547 	andeq	r2, r0, r7, asr #10
    2ca4:	000ae000 	andeq	lr, sl, r0
    2ca8:	07330d00 	ldreq	r0, [r3, -r0, lsl #26]!
    2cac:	47010000 	strmi	r0, [r1, -r0]
    2cb0:	00000025 	andeq	r0, r0, r5, lsr #32
    2cb4:	00000b5f 	andeq	r0, r0, pc, asr fp
    2cb8:	00070a0e 	andeq	r0, r7, lr, lsl #20
    2cbc:	25470100 	strbcs	r0, [r7, #-256]	; 0x100
    2cc0:	02000000 	andeq	r0, r0, #0
    2cc4:	620f0491 	andvs	r0, pc, #-1862270976	; 0x91000000
    2cc8:	01006675 	tsteq	r0, r5, ror r6
    2ccc:	0002df4c 	andeq	sp, r2, ip, asr #30
    2cd0:	a8910300 	ldmge	r1, {r8, r9}
    2cd4:	0070107f 	rsbseq	r1, r0, pc, ror r0
    2cd8:	00744c01 	rsbseq	r4, r4, r1, lsl #24
    2cdc:	0b890000 	bleq	fe242ce4 <__bss_end__+0xfe2360f4>
    2ce0:	75100000 	ldrvc	r0, [r0, #-0]
    2ce4:	2c4d0100 	stfcse	f0, [sp], {-0}
    2ce8:	73000000 	movwvc	r0, #0
    2cec:	1100000c 	tstne	r0, ip
    2cf0:	00000129 	andeq	r0, r0, r9, lsr #2
    2cf4:	000002ff 	strdeq	r0, [r0], -pc	; <UNPREDICTABLE>
    2cf8:	a5a40305 	strge	r0, [r4, #773]!	; 0x305
    2cfc:	08120000 	ldmdaeq	r2, {}	; <UNPREDICTABLE>
    2d00:	74000094 	strvc	r0, [r0], #-148	; 0x94
    2d04:	61000000 	mrsvs	r0, (UNDEF: 0)
    2d08:	13000002 	movwne	r0, #2
    2d0c:	000006ec 	andeq	r0, r0, ip, ror #13
    2d10:	002c5201 	eoreq	r5, ip, r1, lsl #4
    2d14:	0d360000 	ldceq	0, cr0, [r6, #-0]
    2d18:	14000000 	strne	r0, [r0], #-0
    2d1c:	000094f4 	strdeq	r9, [r0], -r4
    2d20:	000006c4 	andeq	r0, r0, r4, asr #13
    2d24:	00951015 	addseq	r1, r5, r5, lsl r0
    2d28:	0006cb00 	andeq	ip, r6, r0, lsl #22
    2d2c:	0002a300 	andeq	sl, r2, r0, lsl #6
    2d30:	53011600 	movwpl	r1, #5632	; 0x1600
    2d34:	16770802 	ldrbtne	r0, [r7], -r2, lsl #16
    2d38:	03055201 	movweq	r5, #20993	; 0x5201
    2d3c:	0000a5a4 	andeq	sl, r0, r4, lsr #11
    2d40:	05510116 	ldrbeq	r0, [r1, #-278]	; 0x116
    2d44:	00a5c803 	adceq	ip, r5, r3, lsl #16
    2d48:	50011600 	andpl	r1, r1, r0, lsl #12
    2d4c:	9f400305 	svcls	0x00400305
    2d50:	02160000 	andseq	r0, r6, #0
    2d54:	0305007d 	movweq	r0, #20605	; 0x507d
    2d58:	0000a5dc 	ldrdeq	sl, [r0], -ip
    2d5c:	95141400 	ldrls	r1, [r4, #-1024]	; 0x400
    2d60:	06e10000 	strbteq	r0, [r1], r0
    2d64:	1c150000 	ldcne	0, cr0, [r5], {-0}
    2d68:	e0000095 	mul	r0, r5, r0
    2d6c:	c1000000 	mrsgt	r0, (UNDEF: 0)
    2d70:	16000002 	strne	r0, [r0], -r2
    2d74:	91035101 	tstls	r3, r1, lsl #2
    2d78:	17007fa0 	strne	r7, [r0, -r0, lsr #31]
    2d7c:	00009530 	andeq	r9, r0, r0, lsr r5
    2d80:	00000130 	andeq	r0, r0, r0, lsr r1
    2d84:	03530116 	cmpeq	r3, #-2147483643	; 0x80000005
    2d88:	167fa091 			; <UNDEFINED> instruction: 0x167fa091
    2d8c:	74025101 	strvc	r5, [r2], #-257	; 0x101
    2d90:	50011600 	andpl	r1, r1, r0, lsl #12
    2d94:	00007502 	andeq	r7, r0, r2, lsl #10
    2d98:	007a1800 	rsbseq	r1, sl, r0, lsl #16
    2d9c:	02ef0000 	rsceq	r0, pc, #0
    2da0:	6b190000 	blvs	642da8 <__bss_end__+0x6361b8>
    2da4:	3f000000 	svccc	0x00000000
    2da8:	007a1800 	rsbseq	r1, sl, r0, lsl #16
    2dac:	02ff0000 	rscseq	r0, pc, #0
    2db0:	6b190000 	blvs	642db8 <__bss_end__+0x6361c8>
    2db4:	04000000 	streq	r0, [r0], #-0
    2db8:	02ef0600 	rsceq	r0, pc, #0, 12
    2dbc:	241a0000 	ldrcs	r0, [sl], #-0
    2dc0:	01000007 	tsteq	r0, r7
    2dc4:	0095581f 	addseq	r5, r5, pc, lsl r8
    2dc8:	00006800 	andeq	r6, r0, r0, lsl #16
    2dcc:	929c0100 	addsls	r0, ip, #0, 2
    2dd0:	0d000003 	stceq	0, cr0, [r0, #-12]
    2dd4:	00000739 	andeq	r0, r0, r9, lsr r7
    2dd8:	03a11f01 			; <UNDEFINED> instruction: 0x03a11f01
    2ddc:	0d620000 	stcleq	0, cr0, [r2, #-0]
    2de0:	020d0000 	andeq	r0, sp, #0
    2de4:	01000007 	tsteq	r0, r7
    2de8:	0003b61f 	andeq	fp, r3, pc, lsl r6
    2dec:	000d8e00 	andeq	r8, sp, r0, lsl #28
    2df0:	01291100 	teqeq	r9, r0, lsl #2
    2df4:	03cc0000 	biceq	r0, ip, #0
    2df8:	03050000 	movweq	r0, #20480	; 0x5000
    2dfc:	0000a5ac 	andeq	sl, r0, ip, lsr #11
    2e00:	00956c14 	addseq	r6, r5, r4, lsl ip
    2e04:	0006c400 	andeq	ip, r6, r0, lsl #8
    2e08:	95881500 	strls	r1, [r8, #1280]	; 0x500
    2e0c:	06cb0000 	strbeq	r0, [fp], r0
    2e10:	03880000 	orreq	r0, r8, #0
    2e14:	01160000 	tsteq	r6, r0
    2e18:	20080253 	andcs	r0, r8, r3, asr r2
    2e1c:	05520116 	ldrbeq	r0, [r2, #-278]	; 0x116
    2e20:	00a5ac03 	adceq	sl, r5, r3, lsl #24
    2e24:	51011600 	tstpl	r1, r0, lsl #12
    2e28:	a5c80305 	strbge	r0, [r8, #773]	; 0x305
    2e2c:	01160000 	tsteq	r6, r0
    2e30:	40030550 	andmi	r0, r3, r0, asr r5
    2e34:	1600009f 			; <UNDEFINED> instruction: 0x1600009f
    2e38:	05007d02 	streq	r7, [r0, #-3330]	; 0xd02
    2e3c:	00a60403 	adceq	r0, r6, r3, lsl #8
    2e40:	8c140000 	ldchi	0, cr0, [r4], {-0}
    2e44:	e1000095 	swp	r0, r5, [r0]	; <UNPREDICTABLE>
    2e48:	00000006 	andeq	r0, r0, r6
    2e4c:	0000251b 	andeq	r2, r0, fp, lsl r5
    2e50:	0003a100 	andeq	sl, r3, r0, lsl #2
    2e54:	00251c00 	eoreq	r1, r5, r0, lsl #24
    2e58:	05000000 	streq	r0, [r0, #-0]
    2e5c:	00039204 	andeq	r9, r3, r4, lsl #4
    2e60:	00251b00 	eoreq	r1, r5, r0, lsl #22
    2e64:	03b60000 			; <UNDEFINED> instruction: 0x03b60000
    2e68:	811c0000 	tsthi	ip, r0
    2e6c:	00000000 	andeq	r0, r0, r0
    2e70:	03a70405 			; <UNDEFINED> instruction: 0x03a70405
    2e74:	7a180000 	bvc	602e7c <__bss_end__+0x5f628c>
    2e78:	cc000000 	stcgt	0, cr0, [r0], {-0}
    2e7c:	19000003 	stmdbne	r0, {r0, r1}
    2e80:	0000006b 	andeq	r0, r0, fp, rrx
    2e84:	bc06000e 	stclt	0, cr0, [r6], {14}
    2e88:	1d000003 	stcne	0, cr0, [r0, #-12]
    2e8c:	0000066c 	andeq	r0, r0, ip, ror #12
    2e90:	00257f01 	eoreq	r7, r5, r1, lsl #30
    2e94:	95c00000 	strbls	r0, [r0]
    2e98:	02d40000 	sbcseq	r0, r4, #0
    2e9c:	9c010000 	stcls	0, cr0, [r1], {-0}
    2ea0:	00000689 	andeq	r0, r0, r9, lsl #13
    2ea4:	6675620b 	ldrbtvs	r6, [r5], -fp, lsl #4
    2ea8:	747f0100 	ldrbtvc	r0, [pc], #-256	; 2eb0 <__code_start__-0x5150>
    2eac:	ba000000 	blt	2eb4 <__code_start__-0x514c>
    2eb0:	0b00000d 	bleq	2eec <__code_start__-0x5114>
    2eb4:	7f01006e 	svcvc	0x0001006e
    2eb8:	00000025 	andeq	r0, r0, r5, lsr #32
    2ebc:	00000de6 	andeq	r0, r0, r6, ror #27
    2ec0:	746d660b 	strbtvc	r6, [sp], #-1547	; 0x60b
    2ec4:	817f0100 	cmnhi	pc, r0, lsl #2
    2ec8:	14000000 	strne	r0, [r0], #-0
    2ecc:	0d00000e 	stceq	0, cr0, [r0, #-56]	; 0xffffffc8
    2ed0:	00000b3c 	andeq	r0, r0, ip, lsr fp
    2ed4:	00ae7f01 	adceq	r7, lr, r1, lsl #30
    2ed8:	0e320000 	cdpeq	0, 3, cr0, cr2, cr0, {0}
    2edc:	70100000 	andsvc	r0, r0, r0
    2ee0:	74800100 	strvc	r0, [r0], #256	; 0x100
    2ee4:	45000000 	strmi	r0, [r0, #-0]
    2ee8:	1000000e 	andne	r0, r0, lr
    2eec:	80010065 	andhi	r0, r1, r5, rrx
    2ef0:	00000074 	andeq	r0, r0, r4, ror r0
    2ef4:	00000ec3 	andeq	r0, r0, r3, asr #29
    2ef8:	0006e213 	andeq	lr, r6, r3, lsl r2
    2efc:	81830100 	orrhi	r0, r3, r0, lsl #2
    2f00:	ea000000 	b	2f08 <__code_start__-0x50f8>
    2f04:	1100000e 	tstne	r0, lr
    2f08:	00000129 	andeq	r0, r0, r9, lsr #2
    2f0c:	00000699 	muleq	r0, r9, r6
    2f10:	a5bc0305 	ldrge	r0, [ip, #773]!	; 0x305
    2f14:	1c1e0000 	ldcne	0, cr0, [lr], {-0}
    2f18:	2c000096 	stccs	0, cr0, [r0], {150}	; 0x96
    2f1c:	10000002 	andne	r0, r0, r2
    2f20:	8e010073 	mcrhi	0, 0, r0, cr1, cr3, {3}
    2f24:	00000074 	andeq	r0, r0, r4, ror r0
    2f28:	00000f0a 	andeq	r0, r0, sl, lsl #30
    2f2c:	6d756e0f 	ldclvs	14, cr6, [r5, #-60]!	; 0xffffffc4
    2f30:	9e8e0100 	rmflse	f0, f6, f0
    2f34:	03000006 	movweq	r0, #6
    2f38:	137ed891 	cmnne	lr, #9502720	; 0x910000
    2f3c:	00000733 	andeq	r0, r0, r3, lsr r7
    2f40:	002c8f01 	eoreq	r8, ip, r1, lsl #30
    2f44:	0f5f0000 	svceq	0x005f0000
    2f48:	4c150000 	ldcmi	0, cr0, [r5], {-0}
    2f4c:	b9000096 	stmdblt	r0, {r1, r2, r4, r7}
    2f50:	a4000000 	strge	r0, [r0], #-0
    2f54:	16000004 	strne	r0, [r0], -r4
    2f58:	75025001 	strvc	r5, [r2, #-1]
    2f5c:	60140000 	andsvs	r0, r4, r0
    2f60:	c4000096 	strgt	r0, [r0], #-150	; 0x96
    2f64:	15000006 	strne	r0, [r0, #-6]
    2f68:	0000967c 	andeq	r9, r0, ip, ror r6
    2f6c:	000006cb 	andeq	r0, r0, fp, asr #13
    2f70:	000004e6 	andeq	r0, r0, r6, ror #9
    2f74:	02530116 	subseq	r0, r3, #-2147483643	; 0x80000005
    2f78:	01169508 	tsteq	r6, r8, lsl #10
    2f7c:	bc030552 	cfstr32lt	mvfx0, [r3], {82}	; 0x52
    2f80:	160000a5 	strne	r0, [r0], -r5, lsr #1
    2f84:	03055101 	movweq	r5, #20737	; 0x5101
    2f88:	0000a5c8 	andeq	sl, r0, r8, asr #11
    2f8c:	05500116 	ldrbeq	r0, [r0, #-278]	; 0x116
    2f90:	009f4003 	addseq	r4, pc, r3
    2f94:	7d021600 	stcvc	6, cr1, [r2, #-0]
    2f98:	0c030500 	cfstr32eq	mvfx0, [r3], {-0}
    2f9c:	000000a6 	andeq	r0, r0, r6, lsr #1
    2fa0:	00968014 	addseq	r8, r6, r4, lsl r0
    2fa4:	0006e100 	andeq	lr, r6, r0, lsl #2
    2fa8:	96f01400 	ldrbtls	r1, [r0], r0, lsl #8
    2fac:	06c40000 	strbeq	r0, [r4], r0
    2fb0:	04150000 	ldreq	r0, [r5], #-0
    2fb4:	cb000097 	blgt	3218 <__code_start__-0x4de8>
    2fb8:	27000006 	strcs	r0, [r0, -r6]
    2fbc:	16000005 	strne	r0, [r0], -r5
    2fc0:	08025301 	stmdaeq	r2, {r0, r8, r9, ip, lr}
    2fc4:	5201169b 	andpl	r1, r1, #162529280	; 0x9b00000
    2fc8:	a5bc0305 	ldrge	r0, [ip, #773]!	; 0x305
    2fcc:	01160000 	tsteq	r6, r0
    2fd0:	c8030551 	stmdagt	r3, {r0, r4, r6, r8, sl}
    2fd4:	160000a5 	strne	r0, [r0], -r5, lsr #1
    2fd8:	03055001 	movweq	r5, #20481	; 0x5001
    2fdc:	0000a618 	andeq	sl, r0, r8, lsl r6
    2fe0:	97081400 	strls	r1, [r8, -r0, lsl #8]
    2fe4:	06e10000 	strbteq	r0, [r1], r0
    2fe8:	2c150000 	ldccs	0, cr0, [r5], {-0}
    2fec:	9c000097 	stcls	0, cr0, [r0], {151}	; 0x97
    2ff0:	5d000001 	stcpl	0, cr0, [r0, #-4]
    2ff4:	16000005 	strne	r0, [r0], -r5
    2ff8:	08025201 	stmdaeq	r2, {r0, r9, ip, lr}
    2ffc:	51011680 	smlabbpl	r1, r0, r6, r1
    3000:	7ed09103 	atnvcs	f1, f3
    3004:	01500116 	cmpeq	r0, r6, lsl r1
    3008:	7d02163a 	stcvc	6, cr1, [r2, #-232]	; 0xffffff18
    300c:	16310104 	ldrtne	r0, [r1], -r4, lsl #2
    3010:	02007d02 	andeq	r7, r0, #2, 26	; 0x80
    3014:	15000077 	strne	r0, [r0, #-119]	; 0x77
    3018:	00009754 	andeq	r9, r0, r4, asr r7
    301c:	0000019c 	muleq	r0, ip, r1
    3020:	0000058a 	andeq	r0, r0, sl, lsl #11
    3024:	02520116 	subseq	r0, r2, #-2147483643	; 0x80000005
    3028:	01168008 	tsteq	r6, r8
    302c:	d0910351 	addsle	r0, r1, r1, asr r3
    3030:	5001167e 	andpl	r1, r1, lr, ror r6
    3034:	02163a01 	andseq	r3, r6, #4096	; 0x1000
    3038:	3001047d 	andcc	r0, r1, sp, ror r4
    303c:	007d0216 	rsbseq	r0, sp, r6, lsl r2
    3040:	00007702 	andeq	r7, r0, r2, lsl #14
    3044:	00977c15 	addseq	r7, r7, r5, lsl ip
    3048:	00019c00 	andeq	r9, r1, r0, lsl #24
    304c:	0005b700 	andeq	fp, r5, r0, lsl #14
    3050:	52011600 	andpl	r1, r1, #0, 12
    3054:	16800802 	strne	r0, [r0], r2, lsl #16
    3058:	91035101 	tstls	r3, r1, lsl #2
    305c:	01167ed0 			; <UNDEFINED> instruction: 0x01167ed0
    3060:	16400150 			; <UNDEFINED> instruction: 0x16400150
    3064:	01047d02 	tsteq	r4, r2, lsl #26
    3068:	7d021630 	stcvc	6, cr1, [r2, #-192]	; 0xffffff40
    306c:	00770200 	rsbseq	r0, r7, r0, lsl #4
    3070:	97a41500 	strls	r1, [r4, r0, lsl #10]!
    3074:	019c0000 	orrseq	r0, ip, r0
    3078:	05e40000 	strbeq	r0, [r4, #0]!
    307c:	01160000 	tsteq	r6, r0
    3080:	80080252 	andhi	r0, r8, r2, asr r2
    3084:	03510116 	cmpeq	r1, #-2147483643	; 0x80000005
    3088:	167ed091 			; <UNDEFINED> instruction: 0x167ed091
    308c:	32015001 	andcc	r5, r1, #1
    3090:	047d0216 	ldrbteq	r0, [sp], #-534	; 0x216
    3094:	02163001 	andseq	r3, r6, #1
    3098:	7702007d 	smlsdxvc	r2, sp, r0, r0
    309c:	d8150000 	ldmdale	r5, {}	; <UNPREDICTABLE>
    30a0:	9c000097 	stcls	0, cr0, [r0], {151}	; 0x97
    30a4:	11000001 	tstne	r0, r1
    30a8:	16000006 	strne	r0, [r0], -r6
    30ac:	08025201 	stmdaeq	r2, {r0, r9, ip, lr}
    30b0:	51011680 	smlabbpl	r1, r0, r6, r1
    30b4:	7ed09103 	atnvcs	f1, f3
    30b8:	01500116 	cmpeq	r0, r6, lsl r1
    30bc:	7d021638 	stcvc	6, cr1, [r2, #-224]	; 0xffffff20
    30c0:	16300104 	ldrtne	r0, [r0], -r4, lsl #2
    30c4:	02007d02 	andeq	r7, r0, #2, 26	; 0x80
    30c8:	15000077 	strne	r0, [r0, #-119]	; 0x77
    30cc:	000097f4 	strdeq	r9, [r0], -r4
    30d0:	000006cb 	andeq	r0, r0, fp, asr #13
    30d4:	00000634 	andeq	r0, r0, r4, lsr r6
    30d8:	02520116 	subseq	r0, r2, #-2147483643	; 0x80000005
    30dc:	01160079 	tsteq	r6, r9, ror r0
    30e0:	00790251 	rsbseq	r0, r9, r1, asr r2
    30e4:	05500116 	ldrbeq	r0, [r0, #-278]	; 0x116
    30e8:	00a64003 	adceq	r4, r6, r3
    30ec:	041f0000 	ldreq	r0, [pc], #-0	; 30f4 <__code_start__-0x4f0c>
    30f0:	46000098 			; <UNDEFINED> instruction: 0x46000098
    30f4:	16000006 	strne	r0, [r0], -r6
    30f8:	91045001 	tstls	r4, r1
    30fc:	00067ecc 	andeq	r7, r6, ip, asr #29
    3100:	00980814 	addseq	r0, r8, r4, lsl r8
    3104:	0006c400 	andeq	ip, r6, r0, lsl #8
    3108:	981c1500 	ldmdals	ip, {r8, sl, ip}
    310c:	06cb0000 	strbeq	r0, [fp], r0
    3110:	067e0000 	ldrbteq	r0, [lr], -r0
    3114:	01160000 	tsteq	r6, r0
    3118:	bf080253 	svclt	0x00080253
    311c:	05520116 	ldrbeq	r0, [r2, #-278]	; 0x116
    3120:	00a5bc03 	adceq	fp, r5, r3, lsl #24
    3124:	51011600 	tstpl	r1, r0, lsl #12
    3128:	a5c80305 	strbge	r0, [r8, #773]	; 0x305
    312c:	01160000 	tsteq	r6, r0
    3130:	70030550 	andvc	r0, r3, r0, asr r5
    3134:	000000a6 	andeq	r0, r0, r6, lsr #1
    3138:	00982014 	addseq	r2, r8, r4, lsl r0
    313c:	0006e100 	andeq	lr, r6, r0, lsl #2
    3140:	18000000 	stmdane	r0, {}	; <UNPREDICTABLE>
    3144:	0000007a 	andeq	r0, r0, sl, ror r0
    3148:	00000699 	muleq	r0, r9, r6
    314c:	00006b19 	andeq	r6, r0, r9, lsl fp
    3150:	06000900 	streq	r0, [r0], -r0, lsl #18
    3154:	00000689 	andeq	r0, r0, r9, lsl #13
    3158:	00007a18 	andeq	r7, r0, r8, lsl sl
    315c:	0006ae00 	andeq	sl, r6, r0, lsl #28
    3160:	006b1900 	rsbeq	r1, fp, r0, lsl #18
    3164:	007f0000 	rsbseq	r0, pc, r0
    3168:	0006a020 	andeq	sl, r6, r0, lsr #32
    316c:	a11d0300 	tstge	sp, r0, lsl #6
    3170:	20000003 	andcs	r0, r0, r3
    3174:	000006dd 	ldrdeq	r0, [r0], -sp
    3178:	03b62203 			; <UNDEFINED> instruction: 0x03b62203
    317c:	0c210000 	stceq	0, cr0, [r1], #-0
    3180:	03000001 	movweq	r0, #1
    3184:	066f221e 			; <UNDEFINED> instruction: 0x066f221e
    3188:	29030000 	stmdbcs	r3, {}	; <UNPREDICTABLE>
    318c:	00000025 	andeq	r0, r0, r5, lsr #32
    3190:	000006e1 	andeq	r0, r0, r1, ror #13
    3194:	0000811c 	andeq	r8, r0, ip, lsl r1
    3198:	21002300 	mrscs	r2, LR_irq
    319c:	00000152 	andeq	r0, r0, r2, asr r1
    31a0:	b8006503 	stmdalt	r0, {r0, r1, r8, sl, sp, lr}
    31a4:	04000000 	streq	r0, [r0], #-0
    31a8:	000d3a00 	andeq	r3, sp, r0, lsl #20
    31ac:	f8010400 			; <UNDEFINED> instruction: 0xf8010400
    31b0:	01000005 	tsteq	r0, r5
    31b4:	00000754 	andeq	r0, r0, r4, asr r7
    31b8:	000005b2 			; <UNDEFINED> instruction: 0x000005b2
    31bc:	00009894 	muleq	r0, r4, r8
    31c0:	00000020 	andeq	r0, r0, r0, lsr #32
    31c4:	00000c40 	andeq	r0, r0, r0, asr #24
    31c8:	69050402 	stmdbvs	r5, {r1, sl}
    31cc:	0300746e 	movweq	r7, #1134	; 0x46e
    31d0:	00a70704 	adceq	r0, r7, r4, lsl #14
    31d4:	01030000 	mrseq	r0, (UNDEF: 3)
    31d8:	0001a206 	andeq	sl, r1, r6, lsl #4
    31dc:	05020300 	streq	r0, [r2, #-768]	; 0x300
    31e0:	000001c4 	andeq	r0, r0, r4, asr #3
    31e4:	c8050403 	stmdagt	r5, {r0, r1, sl}
    31e8:	03000000 	movweq	r0, #0
    31ec:	00c30508 	sbceq	r0, r3, r8, lsl #10
    31f0:	01030000 	mrseq	r0, (UNDEF: 3)
    31f4:	0001a008 	andeq	sl, r1, r8
    31f8:	07020300 	streq	r0, [r2, -r0, lsl #6]
    31fc:	0000013f 	andeq	r0, r0, pc, lsr r1
    3200:	a2070403 	andge	r0, r7, #50331648	; 0x3000000
    3204:	03000000 	movweq	r0, #0
    3208:	009d0708 	addseq	r0, sp, r8, lsl #14
    320c:	04030000 	streq	r0, [r3], #-0
    3210:	00016407 	andeq	r6, r1, r7, lsl #8
    3214:	08010300 	stmdaeq	r1, {r8, r9}
    3218:	000001a9 	andeq	r0, r0, r9, lsr #3
    321c:	00022604 	andeq	r2, r2, r4, lsl #12
    3220:	94030100 	strls	r0, [r3], #-256	; 0x100
    3224:	10000098 	mulne	r0, r8, r0
    3228:	01000000 	mrseq	r0, (UNDEF: 0)
    322c:	00009c9c 	muleq	r0, ip, ip
    3230:	00720500 	rsbseq	r0, r2, r0, lsl #10
    3234:	002c0401 	eoreq	r0, ip, r1, lsl #8
    3238:	0f890000 	svceq	0x00890000
    323c:	06000000 	streq	r0, [r0], -r0
    3240:	00000746 	andeq	r0, r0, r6, asr #14
    3244:	98a40c01 	stmials	r4!, {r0, sl, fp}
    3248:	00100000 	andseq	r0, r0, r0
    324c:	9c010000 	stcls	0, cr0, [r1], {-0}
    3250:	01007205 	tsteq	r0, r5, lsl #4
    3254:	00002c0d 	andeq	r2, r0, sp, lsl #24
    3258:	000fad00 	andeq	sl, pc, r0, lsl #26
    325c:	0f000000 	svceq	0x00000000
    3260:	04000001 	streq	r0, [r0], #-1
    3264:	000da500 	andeq	sl, sp, r0, lsl #10
    3268:	f8010400 			; <UNDEFINED> instruction: 0xf8010400
    326c:	01000005 	tsteq	r0, r5
    3270:	00000775 	andeq	r0, r0, r5, ror r7
    3274:	000005b2 			; <UNDEFINED> instruction: 0x000005b2
    3278:	000098b4 			; <UNDEFINED> instruction: 0x000098b4
    327c:	0000002c 	andeq	r0, r0, ip, lsr #32
    3280:	00000c86 	andeq	r0, r0, r6, lsl #25
    3284:	69050402 	stmdbvs	r5, {r1, sl}
    3288:	0300746e 	movweq	r7, #1134	; 0x46e
    328c:	00a70704 	adceq	r0, r7, r4, lsl #14
    3290:	01030000 	mrseq	r0, (UNDEF: 3)
    3294:	0001a206 	andeq	sl, r1, r6, lsl #4
    3298:	05020300 	streq	r0, [r2, #-768]	; 0x300
    329c:	000001c4 	andeq	r0, r0, r4, asr #3
    32a0:	c8050403 	stmdagt	r5, {r0, r1, sl}
    32a4:	03000000 	movweq	r0, #0
    32a8:	00c30508 	sbceq	r0, r3, r8, lsl #10
    32ac:	01030000 	mrseq	r0, (UNDEF: 3)
    32b0:	0001a008 	andeq	sl, r1, r8
    32b4:	07020300 	streq	r0, [r2, -r0, lsl #6]
    32b8:	0000013f 	andeq	r0, r0, pc, lsr r1
    32bc:	a2070403 	andge	r0, r7, #50331648	; 0x3000000
    32c0:	03000000 	movweq	r0, #0
    32c4:	009d0708 	addseq	r0, sp, r8, lsl #14
    32c8:	04030000 	streq	r0, [r3], #-0
    32cc:	00016407 	andeq	r6, r1, r7, lsl #8
    32d0:	08010300 	stmdaeq	r1, {r8, r9}
    32d4:	000001a9 	andeq	r0, r0, r9, lsr #3
    32d8:	007f0404 	rsbseq	r0, pc, r4, lsl #8
    32dc:	72050000 	andvc	r0, r5, #0
    32e0:	06000000 	streq	r0, [r0], -r0
    32e4:	00000152 	andeq	r0, r0, r2, asr r1
    32e8:	98b40401 	ldmls	r4!, {r0, sl}
    32ec:	002c0000 	eoreq	r0, ip, r0
    32f0:	9c010000 	stcls	0, cr0, [r1], {-0}
    32f4:	000000d3 	ldrdeq	r0, [r0], -r3
    32f8:	0098bc07 	addseq	fp, r8, r7, lsl #24
    32fc:	0000f300 	andeq	pc, r0, r0, lsl #6
    3300:	98cc0800 	stmials	ip, {fp}^
    3304:	00b50000 	adcseq	r0, r5, r0
    3308:	01090000 	mrseq	r0, (UNDEF: 9)
    330c:	90030550 	andls	r0, r3, r0, asr r5
    3310:	000000a6 	andeq	r0, r0, r6, lsr #1
    3314:	0098d40a 	addseq	sp, r8, sl, lsl #8
    3318:	0000fa00 	andeq	pc, r0, r0, lsl #20
    331c:	0000c900 	andeq	ip, r0, r0, lsl #18
    3320:	50010900 	andpl	r0, r1, r0, lsl #18
    3324:	00640802 	rsbeq	r0, r4, r2, lsl #16
    3328:	0098d807 	addseq	sp, r8, r7, lsl #16
    332c:	00010b00 	andeq	r0, r1, r0, lsl #22
    3330:	250b0000 	strcs	r0, [fp, #-0]
    3334:	e2000000 	and	r0, r0, #0
    3338:	0c000000 	stceq	0, cr0, [r0], {-0}
    333c:	00000079 	andeq	r0, r0, r9, ror r0
    3340:	06dd0d00 	ldrbeq	r0, [sp], r0, lsl #26
    3344:	22020000 	andcs	r0, r2, #0
    3348:	000000ed 	andeq	r0, r0, sp, ror #1
    334c:	00d30404 	sbcseq	r0, r3, r4, lsl #8
    3350:	660e0000 	strvs	r0, [lr], -r0
    3354:	02000007 	andeq	r0, r0, #7
    3358:	07990fdc 			; <UNDEFINED> instruction: 0x07990fdc
    335c:	4f020000 	svcmi	0x00020000
    3360:	0000010b 	andeq	r0, r0, fp, lsl #2
    3364:	00002c0c 	andeq	r2, r0, ip, lsl #24
    3368:	8e0e0000 	cdphi	0, 0, cr0, cr14, cr0, {0}
    336c:	02000007 	andeq	r0, r0, #7
    3370:	010f0062 	tsteq	pc, r2, rrx
    3374:	00040000 	andeq	r0, r4, r0
    3378:	00000e6f 	andeq	r0, r0, pc, ror #28
    337c:	05f80104 	ldrbeq	r0, [r8, #260]!	; 0x104
    3380:	db010000 	blle	43388 <__bss_end__+0x36798>
    3384:	b2000007 	andlt	r0, r0, #7
    3388:	e0000005 	and	r0, r0, r5
    338c:	38000098 	stmdacc	r0, {r3, r4, r7}
    3390:	27000000 	strcs	r0, [r0, -r0]
    3394:	0200000d 	andeq	r0, r0, #13
    3398:	6e690504 	cdpvs	5, 6, cr0, cr9, cr4, {0}
    339c:	04030074 	streq	r0, [r3], #-116	; 0x74
    33a0:	0000a707 	andeq	sl, r0, r7, lsl #14
    33a4:	06010300 	streq	r0, [r1], -r0, lsl #6
    33a8:	000001a2 	andeq	r0, r0, r2, lsr #3
    33ac:	c4050203 	strgt	r0, [r5], #-515	; 0x203
    33b0:	03000001 	movweq	r0, #1
    33b4:	00c80504 	sbceq	r0, r8, r4, lsl #10
    33b8:	08030000 	stmdaeq	r3, {}	; <UNPREDICTABLE>
    33bc:	0000c305 	andeq	ip, r0, r5, lsl #6
    33c0:	08010300 	stmdaeq	r1, {r8, r9}
    33c4:	000001a0 	andeq	r0, r0, r0, lsr #3
    33c8:	3f070203 	svccc	0x00070203
    33cc:	03000001 	movweq	r0, #1
    33d0:	00a20704 	adceq	r0, r2, r4, lsl #14
    33d4:	08030000 	stmdaeq	r3, {}	; <UNPREDICTABLE>
    33d8:	00009d07 	andeq	r9, r0, r7, lsl #26
    33dc:	07040300 	streq	r0, [r4, -r0, lsl #6]
    33e0:	00000164 	andeq	r0, r0, r4, ror #2
    33e4:	a9080103 	stmdbge	r8, {r0, r1, r8}
    33e8:	04000001 	streq	r0, [r0], #-1
    33ec:	000007d3 	ldrdeq	r0, [r0], -r3
    33f0:	98e00d01 	stmials	r0!, {r0, r8, sl, fp}^
    33f4:	00380000 	eorseq	r0, r8, r0
    33f8:	9c010000 	stcls	0, cr0, [r1], {-0}
    33fc:	000000e1 	andeq	r0, r0, r1, ror #1
    3400:	0007a205 	andeq	sl, r7, r5, lsl #4
    3404:	250e0100 	strcs	r0, [lr, #-256]	; 0x100
    3408:	05000000 	streq	r0, [r0, #-0]
    340c:	000007b0 			; <UNDEFINED> instruction: 0x000007b0
    3410:	00250e01 	eoreq	r0, r5, r1, lsl #28
    3414:	95060000 	strls	r0, [r6, #-0]
    3418:	01000000 	mrseq	r0, (UNDEF: 0)
    341c:	7362070f 	cmnvc	r2, #3932160	; 0x3c0000
    3420:	11010073 	tstne	r1, r3, ror r0
    3424:	000000e1 	andeq	r0, r0, r1, ror #1
    3428:	00000fd1 	ldrdeq	r0, [r0], -r1
    342c:	0007cb08 	andeq	ip, r7, r8, lsl #22
    3430:	e1120100 	tst	r2, r0, lsl #2
    3434:	09000000 	stmdbeq	r0, {}	; <UNPREDICTABLE>
    3438:	00009908 	andeq	r9, r0, r8, lsl #18
    343c:	000000fd 	strdeq	r0, [r0], -sp
    3440:	00990c09 	addseq	r0, r9, r9, lsl #24
    3444:	00010400 	andeq	r0, r1, r0, lsl #8
    3448:	99100900 	ldmdbls	r0, {r8, fp}
    344c:	010b0000 	mrseq	r0, (UNDEF: 11)
    3450:	0a000000 	beq	3458 <__code_start__-0x4ba8>
    3454:	00002504 	andeq	r2, r0, r4, lsl #10
    3458:	07a20500 	streq	r0, [r2, r0, lsl #10]!
    345c:	0e010000 	cdpeq	0, 0, cr0, cr1, cr0, {0}
    3460:	00000025 	andeq	r0, r0, r5, lsr #32
    3464:	0007b005 	andeq	fp, r7, r5
    3468:	250e0100 	strcs	r0, [lr, #-256]	; 0x100
    346c:	06000000 	streq	r0, [r0], -r0
    3470:	000007bc 			; <UNDEFINED> instruction: 0x000007bc
    3474:	9506da02 	strls	sp, [r6, #-2562]	; 0xa02
    3478:	02000000 	andeq	r0, r0, #0
    347c:	015206d7 	ldrsbeq	r0, [r2, #-103]	; 0xffffff99
    3480:	65020000 	strvs	r0, [r2, #-0]
    3484:	00013e00 	andeq	r3, r1, r0, lsl #28
    3488:	03000400 	movweq	r0, #1024	; 0x400
    348c:	0400000f 	streq	r0, [r0], #-15
    3490:	0005f801 	andeq	pc, r5, r1, lsl #16
    3494:	07ee0100 	strbeq	r0, [lr, r0, lsl #2]!
    3498:	05b20000 	ldreq	r0, [r2, #0]!
    349c:	99180000 	ldmdbls	r8, {}	; <UNPREDICTABLE>
    34a0:	00440000 	subeq	r0, r4, r0
    34a4:	0dd10000 	ldcleq	0, cr0, [r1]
    34a8:	04020000 	streq	r0, [r2], #-0
    34ac:	746e6905 	strbtvc	r6, [lr], #-2309	; 0x905
    34b0:	07040300 	streq	r0, [r4, -r0, lsl #6]
    34b4:	000000a7 	andeq	r0, r0, r7, lsr #1
    34b8:	a2060103 	andge	r0, r6, #-1073741824	; 0xc0000000
    34bc:	03000001 	movweq	r0, #1
    34c0:	01c40502 	biceq	r0, r4, r2, lsl #10
    34c4:	04030000 	streq	r0, [r3], #-0
    34c8:	0000c805 	andeq	ip, r0, r5, lsl #16
    34cc:	05080300 	streq	r0, [r8, #-768]	; 0x300
    34d0:	000000c3 	andeq	r0, r0, r3, asr #1
    34d4:	a0080103 	andge	r0, r8, r3, lsl #2
    34d8:	03000001 	movweq	r0, #1
    34dc:	013f0702 	teqeq	pc, r2, lsl #14
    34e0:	04030000 	streq	r0, [r3], #-0
    34e4:	0000a207 	andeq	sl, r0, r7, lsl #4
    34e8:	07080300 	streq	r0, [r8, -r0, lsl #6]
    34ec:	0000009d 	muleq	r0, sp, r0
    34f0:	64070403 	strvs	r0, [r7], #-1027	; 0x403
    34f4:	03000001 	movweq	r0, #1
    34f8:	01a90801 			; <UNDEFINED> instruction: 0x01a90801
    34fc:	04040000 	streq	r0, [r4], #-0
    3500:	0000007f 	andeq	r0, r0, pc, ror r0
    3504:	00007205 	andeq	r7, r0, r5, lsl #4
    3508:	080f0600 	stmdaeq	pc, {r9, sl}	; <UNPREDICTABLE>
    350c:	02010000 	andeq	r0, r1, #0
    3510:	00009918 	andeq	r9, r0, r8, lsl r9
    3514:	00000044 	andeq	r0, r0, r4, asr #32
    3518:	01089c01 	tsteq	r8, r1, lsl #24
    351c:	70070000 	andvc	r0, r7, r0
    3520:	02010063 	andeq	r0, r1, #99	; 0x63
    3524:	0000002c 	andeq	r0, r0, ip, lsr #32
    3528:	00000ff1 	strdeq	r0, [r0], -r1
    352c:	00012908 	andeq	r2, r1, r8, lsl #18
    3530:	00011800 	andeq	r1, r1, r0, lsl #16
    3534:	9c030500 	cfstr32ls	mvfx0, [r3], {-0}
    3538:	090000a6 	stmdbeq	r0, {r1, r2, r5, r7}
    353c:	00009928 	andeq	r9, r0, r8, lsr #18
    3540:	0000011d 	andeq	r0, r0, sp, lsl r1
    3544:	0099480a 	addseq	r4, r9, sl, lsl #16
    3548:	00012400 	andeq	r2, r1, r0, lsl #8
    354c:	0000fe00 	andeq	pc, r0, r0, lsl #28
    3550:	53010b00 	movwpl	r0, #6912	; 0x1b00
    3554:	010b3201 	tsteq	fp, r1, lsl #4
    3558:	9c030552 	cfstr32ls	mvfx0, [r3], {82}	; 0x52
    355c:	0b0000a6 	bleq	37fc <__code_start__-0x4804>
    3560:	03055101 	movweq	r5, #20737	; 0x5101
    3564:	0000a6f0 	strdeq	sl, [r0], -r0
    3568:	0550010b 	ldrbeq	r0, [r0, #-267]	; 0x10b
    356c:	00a6b403 	adceq	fp, r6, r3, lsl #8
    3570:	7d020b00 	vstrvc	d0, [r2, #-0]
    3574:	00740204 	rsbseq	r0, r4, r4, lsl #4
    3578:	007d020b 	rsbseq	r0, sp, fp, lsl #4
    357c:	a7140305 	ldrge	r0, [r4, -r5, lsl #6]
    3580:	09000000 	stmdbeq	r0, {}	; <UNPREDICTABLE>
    3584:	0000994c 	andeq	r9, r0, ip, asr #18
    3588:	0000013a 	andeq	r0, r0, sl, lsr r1
    358c:	00720c00 	rsbseq	r0, r2, r0, lsl #24
    3590:	01180000 	tsteq	r8, r0
    3594:	6b0d0000 	blvs	34359c <__bss_end__+0x3369ac>
    3598:	15000000 	strne	r0, [r0, #-0]
    359c:	01080500 	tsteq	r8, r0, lsl #10
    35a0:	0c0e0000 	stceq	0, cr0, [lr], {-0}
    35a4:	02000001 	andeq	r0, r0, #1
    35a8:	066f0f1e 	uqadd16eq	r0, pc, lr	; <UNPREDICTABLE>
    35ac:	29020000 	stmdbcs	r2, {}	; <UNPREDICTABLE>
    35b0:	00000025 	andeq	r0, r0, r5, lsr #32
    35b4:	0000013a 	andeq	r0, r0, sl, lsr r1
    35b8:	00007910 	andeq	r7, r0, r0, lsl r9
    35bc:	0e001100 	adfeqs	f1, f0, f0
    35c0:	00000152 	andeq	r0, r0, r2, asr r1
    35c4:	3e006502 	cfsh32cc	mvfx6, mvfx0, #2
    35c8:	04000001 	streq	r0, [r0], #-1
    35cc:	000fdb00 	andeq	sp, pc, r0, lsl #22
    35d0:	f8010400 			; <UNDEFINED> instruction: 0xf8010400
    35d4:	01000005 	tsteq	r0, r5
    35d8:	00000832 	andeq	r0, r0, r2, lsr r8
    35dc:	000005b2 			; <UNDEFINED> instruction: 0x000005b2
    35e0:	0000995c 	andeq	r9, r0, ip, asr r9
    35e4:	00000044 	andeq	r0, r0, r4, asr #32
    35e8:	00000e77 	andeq	r0, r0, r7, ror lr
    35ec:	69050402 	stmdbvs	r5, {r1, sl}
    35f0:	0300746e 	movweq	r7, #1134	; 0x46e
    35f4:	00a70704 	adceq	r0, r7, r4, lsl #14
    35f8:	01030000 	mrseq	r0, (UNDEF: 3)
    35fc:	0001a206 	andeq	sl, r1, r6, lsl #4
    3600:	05020300 	streq	r0, [r2, #-768]	; 0x300
    3604:	000001c4 	andeq	r0, r0, r4, asr #3
    3608:	c8050403 	stmdagt	r5, {r0, r1, sl}
    360c:	03000000 	movweq	r0, #0
    3610:	00c30508 	sbceq	r0, r3, r8, lsl #10
    3614:	01030000 	mrseq	r0, (UNDEF: 3)
    3618:	0001a008 	andeq	sl, r1, r8
    361c:	07020300 	streq	r0, [r2, -r0, lsl #6]
    3620:	0000013f 	andeq	r0, r0, pc, lsr r1
    3624:	a2070403 	andge	r0, r7, #50331648	; 0x3000000
    3628:	03000000 	movweq	r0, #0
    362c:	009d0708 	addseq	r0, sp, r8, lsl #14
    3630:	04030000 	streq	r0, [r3], #-0
    3634:	00016407 	andeq	r6, r1, r7, lsl #8
    3638:	08010300 	stmdaeq	r1, {r8, r9}
    363c:	000001a9 	andeq	r0, r0, r9, lsr #3
    3640:	007f0404 	rsbseq	r0, pc, r4, lsl #8
    3644:	72050000 	andvc	r0, r5, #0
    3648:	06000000 	streq	r0, [r0], -r0
    364c:	00000825 	andeq	r0, r0, r5, lsr #16
    3650:	995c0201 	ldmdbls	ip, {r0, r9}^
    3654:	00440000 	subeq	r0, r4, r0
    3658:	9c010000 	stcls	0, cr0, [r1], {-0}
    365c:	00000108 	andeq	r0, r0, r8, lsl #2
    3660:	00637007 	rsbeq	r7, r3, r7
    3664:	002c0201 	eoreq	r0, ip, r1, lsl #4
    3668:	100f0000 	andne	r0, pc, r0
    366c:	29080000 	stmdbcs	r8, {}	; <UNPREDICTABLE>
    3670:	18000001 	stmdane	r0, {r0}
    3674:	05000001 	streq	r0, [r0, #-1]
    3678:	00a71c03 	adceq	r1, r7, r3, lsl #24
    367c:	996c0900 	stmdbls	ip!, {r8, fp}^
    3680:	011d0000 	tsteq	sp, r0
    3684:	8c0a0000 	stchi	0, cr0, [sl], {-0}
    3688:	24000099 	strcs	r0, [r0], #-153	; 0x99
    368c:	fe000001 	cdp2	0, 0, cr0, cr0, cr1, {0}
    3690:	0b000000 	bleq	3698 <__code_start__-0x4968>
    3694:	32015301 	andcc	r5, r1, #67108864	; 0x4000000
    3698:	0552010b 	ldrbeq	r0, [r2, #-267]	; 0x10b
    369c:	00a71c03 	adceq	r1, r7, r3, lsl #24
    36a0:	51010b00 	tstpl	r1, r0, lsl #22
    36a4:	a72c0305 	strge	r0, [ip, -r5, lsl #6]!
    36a8:	010b0000 	mrseq	r0, (UNDEF: 11)
    36ac:	b4030550 	strlt	r0, [r3], #-1360	; 0x550
    36b0:	0b0000a6 	bleq	3950 <__code_start__-0x46b0>
    36b4:	02047d02 	andeq	r7, r4, #2, 26	; 0x80
    36b8:	020b0074 	andeq	r0, fp, #116	; 0x74
    36bc:	0305007d 	movweq	r0, #20605	; 0x507d
    36c0:	0000a750 	andeq	sl, r0, r0, asr r7
    36c4:	99900900 	ldmibls	r0, {r8, fp}
    36c8:	013a0000 	teqeq	sl, r0
    36cc:	0c000000 	stceq	0, cr0, [r0], {-0}
    36d0:	00000072 	andeq	r0, r0, r2, ror r0
    36d4:	00000118 	andeq	r0, r0, r8, lsl r1
    36d8:	00006b0d 	andeq	r6, r0, sp, lsl #22
    36dc:	05000c00 	streq	r0, [r0, #-3072]	; 0xc00
    36e0:	00000108 	andeq	r0, r0, r8, lsl #2
    36e4:	00010c0e 	andeq	r0, r1, lr, lsl #24
    36e8:	0f1e0200 	svceq	0x001e0200
    36ec:	0000066f 	andeq	r0, r0, pc, ror #12
    36f0:	00252902 	eoreq	r2, r5, r2, lsl #18
    36f4:	013a0000 	teqeq	sl, r0
    36f8:	79100000 	ldmdbvc	r0, {}	; <UNPREDICTABLE>
    36fc:	11000000 	mrsne	r0, (UNDEF: 0)
    3700:	01520e00 	cmpeq	r2, r0, lsl #28
    3704:	65020000 	strvs	r0, [r2, #-0]
    3708:	00013e00 	andeq	r3, r1, r0, lsl #28
    370c:	b3000400 	movwlt	r0, #1024	; 0x400
    3710:	04000010 	streq	r0, [r0], #-16
    3714:	0005f801 	andeq	pc, r5, r1, lsl #16
    3718:	08540100 	ldmdaeq	r4, {r8}^
    371c:	05b20000 	ldreq	r0, [r2, #0]!
    3720:	99a00000 	stmibls	r0!, {}	; <UNPREDICTABLE>
    3724:	00440000 	subeq	r0, r4, r0
    3728:	0f1e0000 	svceq	0x001e0000
    372c:	04020000 	streq	r0, [r2], #-0
    3730:	746e6905 	strbtvc	r6, [lr], #-2309	; 0x905
    3734:	07040300 	streq	r0, [r4, -r0, lsl #6]
    3738:	000000a7 	andeq	r0, r0, r7, lsr #1
    373c:	a2060103 	andge	r0, r6, #-1073741824	; 0xc0000000
    3740:	03000001 	movweq	r0, #1
    3744:	01c40502 	biceq	r0, r4, r2, lsl #10
    3748:	04030000 	streq	r0, [r3], #-0
    374c:	0000c805 	andeq	ip, r0, r5, lsl #16
    3750:	05080300 	streq	r0, [r8, #-768]	; 0x300
    3754:	000000c3 	andeq	r0, r0, r3, asr #1
    3758:	a0080103 	andge	r0, r8, r3, lsl #2
    375c:	03000001 	movweq	r0, #1
    3760:	013f0702 	teqeq	pc, r2, lsl #14
    3764:	04030000 	streq	r0, [r3], #-0
    3768:	0000a207 	andeq	sl, r0, r7, lsl #4
    376c:	07080300 	streq	r0, [r8, -r0, lsl #6]
    3770:	0000009d 	muleq	r0, sp, r0
    3774:	64070403 	strvs	r0, [r7], #-1027	; 0x403
    3778:	03000001 	movweq	r0, #1
    377c:	01a90801 			; <UNDEFINED> instruction: 0x01a90801
    3780:	04040000 	streq	r0, [r4], #-0
    3784:	0000007f 	andeq	r0, r0, pc, ror r0
    3788:	00007205 	andeq	r7, r0, r5, lsl #4
    378c:	087f0600 	ldmdaeq	pc!, {r9, sl}^	; <UNPREDICTABLE>
    3790:	02010000 	andeq	r0, r1, #0
    3794:	000099a0 	andeq	r9, r0, r0, lsr #19
    3798:	00000044 	andeq	r0, r0, r4, asr #32
    379c:	01089c01 	tsteq	r8, r1, lsl #24
    37a0:	70070000 	andvc	r0, r7, r0
    37a4:	02010063 	andeq	r0, r1, #99	; 0x63
    37a8:	0000002c 	andeq	r0, r0, ip, lsr #32
    37ac:	0000102d 	andeq	r1, r0, sp, lsr #32
    37b0:	00012908 	andeq	r2, r1, r8, lsl #18
    37b4:	00011800 	andeq	r1, r1, r0, lsl #16
    37b8:	58030500 	stmdapl	r3, {r8, sl}
    37bc:	090000a7 	stmdbeq	r0, {r0, r1, r2, r5, r7}
    37c0:	000099b0 			; <UNDEFINED> instruction: 0x000099b0
    37c4:	0000011d 	andeq	r0, r0, sp, lsl r1
    37c8:	0099d00a 	addseq	sp, r9, sl
    37cc:	00012400 	andeq	r2, r1, r0, lsl #8
    37d0:	0000fe00 	andeq	pc, r0, r0, lsl #28
    37d4:	53010b00 	movwpl	r0, #6912	; 0x1b00
    37d8:	010b3201 	tsteq	fp, r1, lsl #4
    37dc:	58030552 	stmdapl	r3, {r1, r4, r6, r8, sl}
    37e0:	0b0000a7 	bleq	3a84 <__code_start__-0x457c>
    37e4:	03055101 	movweq	r5, #20737	; 0x5101
    37e8:	0000a778 	andeq	sl, r0, r8, ror r7
    37ec:	0550010b 	ldrbeq	r0, [r0, #-267]	; 0x10b
    37f0:	00a6b403 	adceq	fp, r6, r3, lsl #8
    37f4:	7d020b00 	vstrvc	d0, [r2, #-0]
    37f8:	00740204 	rsbseq	r0, r4, r4, lsl #4
    37fc:	007d020b 	rsbseq	r0, sp, fp, lsl #4
    3800:	a7a40305 	strge	r0, [r4, r5, lsl #6]!
    3804:	09000000 	stmdbeq	r0, {}	; <UNPREDICTABLE>
    3808:	000099d4 	ldrdeq	r9, [r0], -r4
    380c:	0000013a 	andeq	r0, r0, sl, lsr r1
    3810:	00720c00 	rsbseq	r0, r2, r0, lsl #24
    3814:	01180000 	tsteq	r8, r0
    3818:	6b0d0000 	blvs	343820 <__bss_end__+0x336c30>
    381c:	1c000000 	stcne	0, cr0, [r0], {-0}
    3820:	01080500 	tsteq	r8, r0, lsl #10
    3824:	0c0e0000 	stceq	0, cr0, [lr], {-0}
    3828:	02000001 	andeq	r0, r0, #1
    382c:	066f0f1e 	uqadd16eq	r0, pc, lr	; <UNPREDICTABLE>
    3830:	29020000 	stmdbcs	r2, {}	; <UNPREDICTABLE>
    3834:	00000025 	andeq	r0, r0, r5, lsr #32
    3838:	0000013a 	andeq	r0, r0, sl, lsr r1
    383c:	00007910 	andeq	r7, r0, r0, lsl r9
    3840:	0e001100 	adfeqs	f1, f0, f0
    3844:	00000152 	andeq	r0, r0, r2, asr r1
    3848:	98006502 	stmdals	r0, {r1, r8, sl, sp, lr}
    384c:	04000000 	streq	r0, [r0], #-0
    3850:	00118b00 	andseq	r8, r1, r0, lsl #22
    3854:	f8010400 			; <UNDEFINED> instruction: 0xf8010400
    3858:	01000005 	tsteq	r0, r5
    385c:	0000089c 	muleq	r0, ip, r8
    3860:	000005b2 			; <UNDEFINED> instruction: 0x000005b2
    3864:	000099e4 	andeq	r9, r0, r4, ror #19
    3868:	00000008 	andeq	r0, r0, r8
    386c:	00000fce 	andeq	r0, r0, lr, asr #31
    3870:	69050402 	stmdbvs	r5, {r1, sl}
    3874:	0300746e 	movweq	r7, #1134	; 0x46e
    3878:	00a70704 	adceq	r0, r7, r4, lsl #14
    387c:	01030000 	mrseq	r0, (UNDEF: 3)
    3880:	0001a206 	andeq	sl, r1, r6, lsl #4
    3884:	05020300 	streq	r0, [r2, #-768]	; 0x300
    3888:	000001c4 	andeq	r0, r0, r4, asr #3
    388c:	c8050403 	stmdagt	r5, {r0, r1, sl}
    3890:	03000000 	movweq	r0, #0
    3894:	00c30508 	sbceq	r0, r3, r8, lsl #10
    3898:	01030000 	mrseq	r0, (UNDEF: 3)
    389c:	0001a008 	andeq	sl, r1, r8
    38a0:	07020300 	streq	r0, [r2, -r0, lsl #6]
    38a4:	0000013f 	andeq	r0, r0, pc, lsr r1
    38a8:	a2070403 	andge	r0, r7, #50331648	; 0x3000000
    38ac:	03000000 	movweq	r0, #0
    38b0:	009d0708 	addseq	r0, sp, r8, lsl #14
    38b4:	04030000 	streq	r0, [r3], #-0
    38b8:	00016407 	andeq	r6, r1, r7, lsl #8
    38bc:	08010300 	stmdaeq	r1, {r8, r9}
    38c0:	000001a9 	andeq	r0, r0, r9, lsr #3
    38c4:	0007bc04 	andeq	fp, r7, r4, lsl #24
    38c8:	e4040100 	str	r0, [r4], #-256	; 0x100
    38cc:	04000099 	streq	r0, [r0], #-153	; 0x99
    38d0:	01000000 	mrseq	r0, (UNDEF: 0)
    38d4:	0766049c 			; <UNDEFINED> instruction: 0x0766049c
    38d8:	05010000 	streq	r0, [r1, #-0]
    38dc:	000099e8 	andeq	r9, r0, r8, ror #19
    38e0:	00000004 	andeq	r0, r0, r4
    38e4:	d7009c01 	strle	r9, [r0, -r1, lsl #24]
    38e8:	04000001 	streq	r0, [r0], #-1
    38ec:	0011cd00 	andseq	ip, r1, r0, lsl #26
    38f0:	f8010400 			; <UNDEFINED> instruction: 0xf8010400
    38f4:	01000005 	tsteq	r0, r5
    38f8:	00000958 	andeq	r0, r0, r8, asr r9
    38fc:	000005b2 			; <UNDEFINED> instruction: 0x000005b2
    3900:	000099ec 	andeq	r9, r0, ip, ror #19
    3904:	0000006c 	andeq	r0, r0, ip, rrx
    3908:	00001019 	andeq	r1, r0, r9, lsl r0
    390c:	69050402 	stmdbvs	r5, {r1, sl}
    3910:	0300746e 	movweq	r7, #1134	; 0x46e
    3914:	00a70704 	adceq	r0, r7, r4, lsl #14
    3918:	01030000 	mrseq	r0, (UNDEF: 3)
    391c:	0001a206 	andeq	sl, r1, r6, lsl #4
    3920:	05020300 	streq	r0, [r2, #-768]	; 0x300
    3924:	000001c4 	andeq	r0, r0, r4, asr #3
    3928:	c8050403 	stmdagt	r5, {r0, r1, sl}
    392c:	03000000 	movweq	r0, #0
    3930:	00c30508 	sbceq	r0, r3, r8, lsl #10
    3934:	01030000 	mrseq	r0, (UNDEF: 3)
    3938:	0001a008 	andeq	sl, r1, r8
    393c:	07020300 	streq	r0, [r2, -r0, lsl #6]
    3940:	0000013f 	andeq	r0, r0, pc, lsr r1
    3944:	a2070403 	andge	r0, r7, #50331648	; 0x3000000
    3948:	03000000 	movweq	r0, #0
    394c:	009d0708 	addseq	r0, sp, r8, lsl #14
    3950:	04030000 	streq	r0, [r3], #-0
    3954:	00016407 	andeq	r6, r1, r7, lsl #8
    3958:	08010300 	stmdaeq	r1, {r8, r9}
    395c:	000001a9 	andeq	r0, r0, r9, lsr #3
    3960:	14020404 	strne	r0, [r2], #-1028	; 0x404
    3964:	000000f0 	strdeq	r0, [r0], -r0	; <UNPREDICTABLE>
    3968:	00097105 	andeq	r7, r9, r5, lsl #2
    396c:	82e48000 	rschi	r8, r4, #0
    3970:	f7050280 			; <UNDEFINED> instruction: 0xf7050280
    3974:	80000008 	andhi	r0, r0, r8
    3978:	028082e4 	addeq	r8, r0, #228, 4	; 0x4000000e
    397c:	00099e05 	andeq	r9, r9, r5, lsl #28
    3980:	82e48400 	rschi	r8, r4, #0, 8
    3984:	b9050280 	stmdblt	r5, {r7, r9}
    3988:	88000008 	stmdahi	r0, {r3}
    398c:	028082e4 	addeq	r8, r0, #228, 4	; 0x4000000e
    3990:	0008da05 	andeq	sp, r8, r5, lsl #20
    3994:	82e48c00 	rschi	r8, r4, #0, 24
    3998:	1b050280 	blne	1443a0 <__bss_end__+0x1377b0>
    399c:	90000009 	andls	r0, r0, r9
    39a0:	028082e4 	addeq	r8, r0, #228, 4	; 0x4000000e
    39a4:	00092905 	andeq	r2, r9, r5, lsl #18
    39a8:	82e49400 	rschi	r9, r4, #0, 8
    39ac:	09050280 	stmdbeq	r5, {r7, r9}
    39b0:	98000009 	stmdals	r0, {r0, r3}
    39b4:	028082e4 	addeq	r8, r0, #228, 4	; 0x4000000e
    39b8:	00098005 	andeq	r8, r9, r5
    39bc:	82e49c00 	rschi	r9, r4, #0, 24
    39c0:	8f050280 	svchi	0x00050280
    39c4:	a0000009 	andge	r0, r0, r9
    39c8:	028082e4 	addeq	r8, r0, #228, 4	; 0x4000000e
    39cc:	0008c705 	andeq	ip, r8, r5, lsl #14
    39d0:	82e4a400 	rschi	sl, r4, #0, 8
    39d4:	06000280 	streq	r0, [r0], -r0, lsl #5
    39d8:	000004ba 			; <UNDEFINED> instruction: 0x000004ba
    39dc:	99ec1b01 	stmibls	ip!, {r0, r8, r9, fp, ip}^
    39e0:	006c0000 	rsbeq	r0, ip, r0
    39e4:	9c010000 	stcls	0, cr0, [r1], {-0}
    39e8:	000001a5 	andeq	r0, r0, r5, lsr #3
    39ec:	0008e607 	andeq	lr, r8, r7, lsl #12
    39f0:	2c230100 	stfcss	f0, [r3], #-0
    39f4:	07000000 	streq	r0, [r0, -r0]
    39f8:	00000937 	andeq	r0, r0, r7, lsr r9
    39fc:	002c2401 	eoreq	r2, ip, r1, lsl #8
    3a00:	64080000 	strvs	r0, [r8], #-0
    3a04:	01007473 	tsteq	r0, r3, ror r4
    3a08:	0001a527 	andeq	sl, r1, r7, lsr #10
    3a0c:	73090000 	movwvc	r0, #36864	; 0x9000
    3a10:	01006372 	tsteq	r0, r2, ror r3
    3a14:	0001a528 	andeq	sl, r1, r8, lsr #10
    3a18:	006e0a00 	rsbeq	r0, lr, r0, lsl #20
    3a1c:	002c2901 	eoreq	r2, ip, r1, lsl #18
    3a20:	50010000 	andpl	r0, r1, r0
    3a24:	009a200b 	addseq	r2, sl, fp
    3a28:	00002400 	andeq	r2, r0, r0, lsl #8
    3a2c:	00015800 	andeq	r5, r1, r0, lsl #16
    3a30:	00690c00 	rsbeq	r0, r9, r0, lsl #24
    3a34:	00252a01 	eoreq	r2, r5, r1, lsl #20
    3a38:	104b0000 	subne	r0, fp, r0
    3a3c:	0d000000 	stceq	0, cr0, [r0, #-0]
    3a40:	000099f4 	strdeq	r9, [r0], -r4
    3a44:	000001c1 	andeq	r0, r0, r1, asr #3
    3a48:	009a000e 	addseq	r0, sl, lr
    3a4c:	0001c800 	andeq	ip, r1, r0, lsl #16
    3a50:	00017e00 	andeq	r7, r1, r0, lsl #28
    3a54:	51010f00 	tstpl	r1, r0, lsl #30
    3a58:	0fff0902 	svceq	0x00ff0902
    3a5c:	0c055001 	stceq	0, cr5, [r5], {1}
    3a60:	2000b21c 	andcs	fp, r0, ip, lsl r2
    3a64:	9a0c0e00 	bls	30726c <__bss_end__+0x2fa67c>
    3a68:	01c80000 	biceq	r0, r8, r0
    3a6c:	019b0000 	orrseq	r0, fp, r0
    3a70:	010f0000 	mrseq	r0, CPSR
    3a74:	ff090251 			; <UNDEFINED> instruction: 0xff090251
    3a78:	0550010f 	ldrbeq	r0, [r0, #-271]	; 0x10f
    3a7c:	00b2200c 	adcseq	r2, r2, ip
    3a80:	100d0020 	andne	r0, sp, r0, lsr #32
    3a84:	c100009a 	swpgt	r0, sl, [r0]	; <UNPREDICTABLE>
    3a88:	00000001 	andeq	r0, r0, r1
    3a8c:	002c0410 	eoreq	r0, ip, r0, lsl r4
    3a90:	e6070000 	str	r0, [r7], -r0
    3a94:	01000008 	tsteq	r0, r8
    3a98:	00002c23 	andeq	r2, r0, r3, lsr #24
    3a9c:	09370700 	ldmdbeq	r7!, {r8, r9, sl}
    3aa0:	24010000 	strcs	r0, [r1], #-0
    3aa4:	0000002c 	andeq	r0, r0, ip, lsr #32
    3aa8:	00094c11 	andeq	r4, r9, r1, lsl ip
    3aac:	12890300 	addne	r0, r9, #0, 6
    3ab0:	0000097a 	andeq	r0, r0, sl, ror r9
    3ab4:	2c139b03 	ldccs	11, cr9, [r3], {3}
    3ab8:	13000000 	movwne	r0, #0
    3abc:	0000002c 	andeq	r0, r0, ip, lsr #32
    3ac0:	01ad0000 			; <UNDEFINED> instruction: 0x01ad0000
    3ac4:	00040000 	andeq	r0, r4, r0
    3ac8:	000012d3 	ldrdeq	r1, [r0], -r3
    3acc:	05f80104 	ldrbeq	r0, [r8, #260]!	; 0x104
    3ad0:	ba010000 	blt	43ad8 <__bss_end__+0x36ee8>
    3ad4:	b2000009 	andlt	r0, r0, #9
    3ad8:	30000005 	andcc	r0, r0, r5
    3adc:	00000000 	andeq	r0, r0, r0
    3ae0:	e6000000 	str	r0, [r0], -r0
    3ae4:	02000010 	andeq	r0, r0, #16
    3ae8:	6e690504 	cdpvs	5, 6, cr0, cr9, cr4, {0}
    3aec:	04030074 	streq	r0, [r3], #-116	; 0x74
    3af0:	0000a707 	andeq	sl, r0, r7, lsl #14
    3af4:	06010300 	streq	r0, [r1], -r0, lsl #6
    3af8:	000001a2 	andeq	r0, r0, r2, lsr #3
    3afc:	c4050203 	strgt	r0, [r5], #-515	; 0x203
    3b00:	03000001 	movweq	r0, #1
    3b04:	00c80504 	sbceq	r0, r8, r4, lsl #10
    3b08:	08030000 	stmdaeq	r3, {}	; <UNPREDICTABLE>
    3b0c:	0000c305 	andeq	ip, r0, r5, lsl #6
    3b10:	08010300 	stmdaeq	r1, {r8, r9}
    3b14:	000001a0 	andeq	r0, r0, r0, lsr #3
    3b18:	3f070203 	svccc	0x00070203
    3b1c:	03000001 	movweq	r0, #1
    3b20:	00a20704 	adceq	r0, r2, r4, lsl #14
    3b24:	08030000 	stmdaeq	r3, {}	; <UNPREDICTABLE>
    3b28:	00009d07 	andeq	r9, r0, r7, lsl #26
    3b2c:	07040300 	streq	r0, [r4, -r0, lsl #6]
    3b30:	00000164 	andeq	r0, r0, r4, ror #2
    3b34:	a9080103 	stmdbge	r8, {r0, r1, r8}
    3b38:	04000001 	streq	r0, [r0], #-1
    3b3c:	000009ac 	andeq	r0, r0, ip, lsr #19
    3b40:	00250e01 	eoreq	r0, r5, r1, lsl #28
    3b44:	9a580000 	bls	1603b4c <__bss_end__+0x15f6f5c>
    3b48:	00180000 	andseq	r0, r8, r0
    3b4c:	9c010000 	stcls	0, cr0, [r1], {-0}
    3b50:	000000a2 	andeq	r0, r0, r2, lsr #1
    3b54:	00058105 	andeq	r8, r5, r5, lsl #2
    3b58:	2c0f0100 	stfcss	f0, [pc], {-0}
    3b5c:	6a000000 	bvs	3b64 <__code_start__-0x449c>
    3b60:	00000010 	andeq	r0, r0, r0, lsl r0
    3b64:	0009ee06 	andeq	lr, r9, r6, lsl #28
    3b68:	70170100 	andsvc	r0, r7, r0, lsl #2
    3b6c:	1400009a 	strne	r0, [r0], #-154	; 0x9a
    3b70:	01000000 	mrseq	r0, (UNDEF: 0)
    3b74:	0000c79c 	muleq	r0, ip, r7
    3b78:	05810500 	streq	r0, [r1, #1280]	; 0x500
    3b7c:	18010000 	stmdane	r1, {}	; <UNPREDICTABLE>
    3b80:	0000002c 	andeq	r0, r0, ip, lsr #32
    3b84:	00001089 	andeq	r1, r0, r9, lsl #1
    3b88:	078e0600 	streq	r0, [lr, r0, lsl #12]
    3b8c:	1f010000 	svcne	0x00010000
    3b90:	00009a84 	andeq	r9, r0, r4, lsl #21
    3b94:	00000048 	andeq	r0, r0, r8, asr #32
    3b98:	01779c01 	cmneq	r7, r1, lsl #24
    3b9c:	09070000 	stmdbeq	r7, {}	; <UNPREDICTABLE>
    3ba0:	0100000a 	tsteq	r0, sl
    3ba4:	0001772a 	andeq	r7, r1, sl, lsr #14
    3ba8:	10001c00 	andne	r1, r0, r0, lsl #24
    3bac:	09e60720 	stmibeq	r6!, {r5, r8, r9, sl}^
    3bb0:	2b010000 	blcs	43bb8 <__bss_end__+0x36fc8>
    3bb4:	00000177 	andeq	r0, r0, r7, ror r1
    3bb8:	20100024 	andscs	r0, r0, r4, lsr #32
    3bbc:	0009fd07 	andeq	pc, r9, r7, lsl #26
    3bc0:	772c0100 	strvc	r0, [ip, -r0, lsl #2]!
    3bc4:	00000001 	andeq	r0, r0, r1
    3bc8:	085a0000 	ldmdaeq	sl, {}^	; <UNPREDICTABLE>
    3bcc:	000009cd 	andeq	r0, r0, sp, asr #19
    3bd0:	01772d01 	cmneq	r7, r1, lsl #26
    3bd4:	09200000 	stmdbeq	r0!, {}	; <UNPREDICTABLE>
    3bd8:	00009a8c 	andeq	r9, r0, ip, lsl #21
    3bdc:	00000079 	andeq	r0, r0, r9, ror r0
    3be0:	009a9809 	addseq	r9, sl, r9, lsl #16
    3be4:	0000a200 	andeq	sl, r0, r0, lsl #4
    3be8:	9aa00a00 	bls	fe8063f0 <__bss_end__+0xfe7f9800>
    3bec:	018d0000 	orreq	r0, sp, r0
    3bf0:	013a0000 	teqeq	sl, r0
    3bf4:	010b0000 	mrseq	r0, (UNDEF: 11)
    3bf8:	004e0150 	subeq	r0, lr, r0, asr r1
    3bfc:	009aac0a 	addseq	sl, sl, sl, lsl #24
    3c00:	00019e00 	andeq	r9, r1, r0, lsl #28
    3c04:	00015a00 	andeq	r5, r1, r0, lsl #20
    3c08:	51010b00 	tstpl	r1, r0, lsl #22
    3c0c:	00010c05 	andeq	r0, r1, r5, lsl #24
    3c10:	010b5a00 	tsteq	fp, r0, lsl #20
    3c14:	240c0550 	strcs	r0, [ip], #-1360	; 0x550
    3c18:	00201000 	eoreq	r1, r0, r0
    3c1c:	009ab80c 	addseq	fp, sl, ip, lsl #16
    3c20:	00019e00 	andeq	r9, r1, r0, lsl #28
    3c24:	51010b00 	tstpl	r1, r0, lsl #22
    3c28:	00200c05 	eoreq	r0, r0, r5, lsl #24
    3c2c:	010b5a00 	tsteq	fp, r0, lsl #20
    3c30:	1c0c0550 	cfstr32ne	mvfx0, [ip], {80}	; 0x50
    3c34:	00201000 	eoreq	r1, r0, r0
    3c38:	00250d00 	eoreq	r0, r5, r0, lsl #26
    3c3c:	af080000 	svcge	0x00080000
    3c40:	01000009 	tsteq	r0, r9
    3c44:	0001880d 	andeq	r8, r1, sp, lsl #16
    3c48:	2c0d1000 	stccs	0, cr1, [sp], {-0}
    3c4c:	0e000000 	cdpeq	0, 0, cr0, cr0, cr0, {0}
    3c50:	00000799 	muleq	r0, r9, r7
    3c54:	019e4f02 	orrseq	r4, lr, r2, lsl #30
    3c58:	2c0f0000 	stccs	0, cr0, [pc], {-0}
    3c5c:	00000000 	andeq	r0, r0, r0
    3c60:	00097a10 	andeq	r7, r9, r0, lsl sl
    3c64:	0f9b0200 	svceq	0x009b0200
    3c68:	0000002c 	andeq	r0, r0, ip, lsr #32
    3c6c:	00002c0f 	andeq	r2, r0, pc, lsl #24
    3c70:	f7000000 			; <UNDEFINED> instruction: 0xf7000000
    3c74:	04000001 	streq	r0, [r0], #-1
    3c78:	0013c100 	andseq	ip, r3, r0, lsl #2
    3c7c:	f8010400 			; <UNDEFINED> instruction: 0xf8010400
    3c80:	01000005 	tsteq	r0, r5
    3c84:	00000a2e 	andeq	r0, r0, lr, lsr #20
    3c88:	000005b2 			; <UNDEFINED> instruction: 0x000005b2
    3c8c:	00009acc 	andeq	r9, r0, ip, asr #21
    3c90:	00000098 	muleq	r0, r8, r0
    3c94:	0000118c 	andeq	r1, r0, ip, lsl #3
    3c98:	69050402 	stmdbvs	r5, {r1, sl}
    3c9c:	0300746e 	movweq	r7, #1134	; 0x46e
    3ca0:	00a70704 	adceq	r0, r7, r4, lsl #14
    3ca4:	01030000 	mrseq	r0, (UNDEF: 3)
    3ca8:	0001a206 	andeq	sl, r1, r6, lsl #4
    3cac:	05020300 	streq	r0, [r2, #-768]	; 0x300
    3cb0:	000001c4 	andeq	r0, r0, r4, asr #3
    3cb4:	c8050403 	stmdagt	r5, {r0, r1, sl}
    3cb8:	03000000 	movweq	r0, #0
    3cbc:	00c30508 	sbceq	r0, r3, r8, lsl #10
    3cc0:	01030000 	mrseq	r0, (UNDEF: 3)
    3cc4:	0001a008 	andeq	sl, r1, r8
    3cc8:	07020300 	streq	r0, [r2, -r0, lsl #6]
    3ccc:	0000013f 	andeq	r0, r0, pc, lsr r1
    3cd0:	a2070403 	andge	r0, r7, #50331648	; 0x3000000
    3cd4:	03000000 	movweq	r0, #0
    3cd8:	009d0708 	addseq	r0, sp, r8, lsl #14
    3cdc:	04030000 	streq	r0, [r3], #-0
    3ce0:	00016407 	andeq	r6, r1, r7, lsl #8
    3ce4:	08010300 	stmdaeq	r1, {r8, r9}
    3ce8:	000001a9 	andeq	r0, r0, r9, lsr #3
    3cec:	000a4c04 	andeq	r4, sl, r4, lsl #24
    3cf0:	cc050100 	stfgts	f0, [r5], {-0}
    3cf4:	1c00009a 	stcne	0, cr0, [r0], {154}	; 0x9a
    3cf8:	01000000 	mrseq	r0, (UNDEF: 0)
    3cfc:	00009e9c 	muleq	r0, ip, lr
    3d00:	0a460500 	beq	1185108 <__bss_end__+0x1178518>
    3d04:	05010000 	streq	r0, [r1, #-0]
    3d08:	0000002c 	andeq	r0, r0, ip, lsr #32
    3d0c:	000010b3 	strheq	r1, [r0], -r3
    3d10:	0a110600 	beq	445518 <__bss_end__+0x438928>
    3d14:	11010000 	mrsne	r0, (UNDEF: 1)
    3d18:	0000002c 	andeq	r0, r0, ip, lsr #32
    3d1c:	00009ae8 	andeq	r9, r0, r8, ror #21
    3d20:	00000014 	andeq	r0, r0, r4, lsl r0
    3d24:	00cb9c01 	sbceq	r9, fp, r1, lsl #24
    3d28:	f4070000 	vst4.8	{d0-d3}, [r7], r0
    3d2c:	de00009a 	mcrle	0, 0, r0, cr0, cr10, {4}
    3d30:	08000001 	stmdaeq	r0, {r0}
    3d34:	0c055001 	stceq	0, cr5, [r5], {1}
    3d38:	20003004 	andcs	r3, r0, r4
    3d3c:	62060000 	andvs	r0, r6, #0
    3d40:	0100000a 	tsteq	r0, sl
    3d44:	00002c16 	andeq	r2, r0, r6, lsl ip
    3d48:	009afc00 	addseq	pc, sl, r0, lsl #24
    3d4c:	00001c00 	andeq	r1, r0, r0, lsl #24
    3d50:	0d9c0100 	ldfeqs	f0, [ip]
    3d54:	09000001 	stmdbeq	r0, {r0}
    3d58:	1a010075 	bne	43f34 <__bss_end__+0x37344>
    3d5c:	0000002c 	andeq	r0, r0, ip, lsr #32
    3d60:	000010e7 	andeq	r1, r0, r7, ror #1
    3d64:	009b040a 	addseq	r0, fp, sl, lsl #8
    3d68:	0001f300 	andeq	pc, r1, r0, lsl #6
    3d6c:	9b080a00 	blls	206574 <__bss_end__+0x1f9984>
    3d70:	009e0000 	addseq	r0, lr, r0
    3d74:	100a0000 	andne	r0, sl, r0
    3d78:	f300009b 	vqadd.u8	d0, d16, d11
    3d7c:	00000001 	andeq	r0, r0, r1
    3d80:	000a5904 	andeq	r5, sl, r4, lsl #18
    3d84:	181f0100 	ldmdane	pc, {r8}	; <UNPREDICTABLE>
    3d88:	2400009b 	strcs	r0, [r0], #-155	; 0x9b
    3d8c:	01000000 	mrseq	r0, (UNDEF: 0)
    3d90:	00016b9c 	muleq	r1, ip, fp
    3d94:	73750b00 	cmnvc	r5, #0, 22
    3d98:	2c1f0100 	ldfcss	f0, [pc], {-0}
    3d9c:	05000000 	streq	r0, [r0, #-0]
    3da0:	0c000011 	stceq	0, cr0, [r0], {17}
    3da4:	01006272 	tsteq	r0, r2, ror r2
    3da8:	00002c20 	andeq	r2, r0, r0, lsr #24
    3dac:	0d540100 	ldfeqe	f0, [r4, #-0]
    3db0:	00009b28 	andeq	r9, r0, r8, lsr #22
    3db4:	00000010 	andeq	r0, r0, r0, lsl r0
    3db8:	00000161 	andeq	r0, r0, r1, ror #2
    3dbc:	00617209 	rsbeq	r7, r1, r9, lsl #4
    3dc0:	002c2201 	eoreq	r2, ip, r1, lsl #4
    3dc4:	11230000 	teqne	r3, r0
    3dc8:	2c0a0000 	stccs	0, cr0, [sl], {-0}
    3dcc:	cb00009b 	blgt	4040 <__code_start__-0x3fc0>
    3dd0:	00000000 	andeq	r0, r0, r0
    3dd4:	009b240a 	addseq	r2, fp, sl, lsl #8
    3dd8:	0000cb00 	andeq	ip, r0, r0, lsl #22
    3ddc:	99040000 	stmdbls	r4, {}	; <UNPREDICTABLE>
    3de0:	01000007 	tsteq	r0, r7
    3de4:	009b3c28 	addseq	r3, fp, r8, lsr #24
    3de8:	00001400 	andeq	r1, r0, r0, lsl #8
    3dec:	a49c0100 	ldrge	r0, [ip], #256	; 0x100
    3df0:	0b000001 	bleq	3dfc <__code_start__-0x4204>
    3df4:	0100736d 	tsteq	r0, sp, ror #6
    3df8:	00002c28 	andeq	r2, r0, r8, lsr #24
    3dfc:	00113600 	andseq	r3, r1, r0, lsl #12
    3e00:	9b4c0700 	blls	1305a08 <__bss_end__+0x12f8e18>
    3e04:	010d0000 	mrseq	r0, (UNDEF: 13)
    3e08:	01080000 	mrseq	r0, (UNDEF: 8)
    3e0c:	01f30750 	mvnseq	r0, r0, asr r7
    3e10:	03e80a50 	mvneq	r0, #80, 20	; 0x50000
    3e14:	0400001e 	streq	r0, [r0], #-30
    3e18:	00000a24 	andeq	r0, r0, r4, lsr #20
    3e1c:	9b502b01 	blls	140ea28 <__bss_end__+0x1401e38>
    3e20:	00140000 	andseq	r0, r4, r0
    3e24:	9c010000 	stcls	0, cr0, [r1], {-0}
    3e28:	000001de 	ldrdeq	r0, [r0], -lr
    3e2c:	6365730b 	cmnvs	r5, #738197504	; 0x2c000000
    3e30:	2c2b0100 	stfcss	f0, [fp], #-0
    3e34:	57000000 	strpl	r0, [r0, -r0]
    3e38:	07000011 	smladeq	r0, r1, r0, r0
    3e3c:	00009b60 	andeq	r9, r0, r0, ror #22
    3e40:	0000016b 	andeq	r0, r0, fp, ror #2
    3e44:	07500108 	ldrbeq	r0, [r0, -r8, lsl #2]
    3e48:	0a5001f3 	beq	140461c <__bss_end__+0x13f7a2c>
    3e4c:	001e03e8 	andseq	r0, lr, r8, ror #7
    3e50:	0a400e00 	beq	1007658 <__bss_end__+0xffaa68>
    3e54:	a7020000 	strge	r0, [r2, -r0]
    3e58:	0000002c 	andeq	r0, r0, ip, lsr #32
    3e5c:	000001f3 	strdeq	r0, [r0], -r3
    3e60:	00002c0f 	andeq	r2, r0, pc, lsl #24
    3e64:	4c100000 	ldcmi	0, cr0, [r0], {-0}
    3e68:	02000009 	andeq	r0, r0, #9
    3e6c:	0cc50089 	stcleq	0, cr0, [r5], {137}	; 0x89
    3e70:	00040000 	andeq	r0, r4, r0
    3e74:	000014b7 			; <UNDEFINED> instruction: 0x000014b7
    3e78:	0e0d0104 	adfeqe	f0, f5, f4
    3e7c:	700c0000 	andvc	r0, ip, r0
    3e80:	8b00000b 	blhi	3eb4 <__code_start__-0x414c>
    3e84:	c800000b 	stmdagt	r0, {r0, r1, r3}
    3e88:	7800009b 	stmdavc	r0, {r0, r1, r3, r4, r7}
    3e8c:	3e000001 	cdpcc	0, 0, cr0, cr0, cr1, {0}
    3e90:	02000012 	andeq	r0, r0, #18
    3e94:	6e690504 	cdpvs	5, 6, cr0, cr9, cr4, {0}
    3e98:	04030074 	streq	r0, [r3], #-116	; 0x74
    3e9c:	0000a707 	andeq	sl, r0, r7, lsl #14
    3ea0:	002c0400 	eoreq	r0, ip, r0, lsl #8
    3ea4:	01030000 	mrseq	r0, (UNDEF: 3)
    3ea8:	0001a206 	andeq	sl, r1, r6, lsl #4
    3eac:	05020300 	streq	r0, [r2, #-768]	; 0x300
    3eb0:	000001c4 	andeq	r0, r0, r4, asr #3
    3eb4:	c8050403 	stmdagt	r5, {r0, r1, sl}
    3eb8:	03000000 	movweq	r0, #0
    3ebc:	00c30508 	sbceq	r0, r3, r8, lsl #10
    3ec0:	01030000 	mrseq	r0, (UNDEF: 3)
    3ec4:	0001a008 	andeq	sl, r1, r8
    3ec8:	07020300 	streq	r0, [r2, -r0, lsl #6]
    3ecc:	0000013f 	andeq	r0, r0, pc, lsr r1
    3ed0:	a2070403 	andge	r0, r7, #50331648	; 0x3000000
    3ed4:	03000000 	movweq	r0, #0
    3ed8:	009d0708 	addseq	r0, sp, r8, lsl #14
    3edc:	22050000 	andcs	r0, r5, #0
    3ee0:	0200000d 	andeq	r0, r0, #13
    3ee4:	00002507 	andeq	r2, r0, r7, lsl #10
    3ee8:	0d0c0500 	cfstr32eq	mvfx0, [ip, #-0]
    3eec:	2c030000 	stccs	0, cr0, [r3], {-0}
    3ef0:	00000046 	andeq	r0, r0, r6, asr #32
    3ef4:	000de805 	andeq	lr, sp, r5, lsl #16
    3ef8:	46720300 	ldrbtmi	r0, [r2], -r0, lsl #6
    3efc:	06000000 	streq	r0, [r0], -r0
    3f00:	00000cb0 			; <UNDEFINED> instruction: 0x00000cb0
    3f04:	2c016504 	cfstr32cs	mvfx6, [r1], {4}
    3f08:	07000000 	streq	r0, [r0, -r0]
    3f0c:	bca60304 	stclt	3, cr0, [r6], #16
    3f10:	08000000 	stmdaeq	r0, {}	; <UNPREDICTABLE>
    3f14:	00000c9b 	muleq	r0, fp, ip
    3f18:	0091a803 	addseq	sl, r1, r3, lsl #16
    3f1c:	43080000 	movwmi	r0, #32768	; 0x8000
    3f20:	0300000c 	movweq	r0, #12
    3f24:	0000bca9 	andeq	fp, r0, r9, lsr #25
    3f28:	54090000 	strpl	r0, [r9], #-0
    3f2c:	cc000000 	stcgt	0, cr0, [r0], {-0}
    3f30:	0a000000 	beq	3f38 <__code_start__-0x40c8>
    3f34:	000000cc 	andeq	r0, r0, ip, asr #1
    3f38:	04030003 	streq	r0, [r3], #-3
    3f3c:	00016407 	andeq	r6, r1, r7, lsl #8
    3f40:	03080b00 	movweq	r0, #35584	; 0x8b00
    3f44:	0000f4a3 	andeq	pc, r0, r3, lsr #9
    3f48:	0dcd0c00 	stcleq	12, cr0, [sp]
    3f4c:	a5030000 	strge	r0, [r3, #-0]
    3f50:	00000025 	andeq	r0, r0, r5, lsr #32
    3f54:	0dd50c00 	ldcleq	12, cr0, [r5]
    3f58:	aa030000 	bge	c3f60 <__bss_end__+0xb7370>
    3f5c:	0000009d 	muleq	r0, sp, r0
    3f60:	60050004 	andvs	r0, r5, r4
    3f64:	0300000d 	movweq	r0, #13
    3f68:	0000d3ab 	andeq	sp, r0, fp, lsr #7
    3f6c:	0c0c0500 	cfstr32eq	mvfx0, [ip], {-0}
    3f70:	af030000 	svcge	0x00030000
    3f74:	00000070 	andeq	r0, r0, r0, ror r0
    3f78:	040e040d 	streq	r0, [lr], #-1037	; 0x40d
    3f7c:	00000112 	andeq	r0, r0, r2, lsl r1
    3f80:	a9080103 	stmdbge	r8, {r0, r1, r8}
    3f84:	0f000001 	svceq	0x00000001
    3f88:	00000112 	andeq	r0, r0, r2, lsl r1
    3f8c:	000e8a05 	andeq	r8, lr, r5, lsl #20
    3f90:	62160500 	andsvs	r0, r6, #0, 10
    3f94:	10000000 	andne	r0, r0, r0
    3f98:	00000c1d 	andeq	r0, r0, sp, lsl ip
    3f9c:	7c2d0518 	cfstr32vc	mvfx0, [sp], #-96	; 0xffffffa0
    3fa0:	0c000001 	stceq	0, cr0, [r0], {1}
    3fa4:	00000d81 	andeq	r0, r0, r1, lsl #27
    3fa8:	017c2f05 	cmneq	ip, r5, lsl #30
    3fac:	11000000 	mrsne	r0, (UNDEF: 0)
    3fb0:	05006b5f 	streq	r6, [r0, #-2911]	; 0xb5f
    3fb4:	00002530 	andeq	r2, r0, r0, lsr r5
    3fb8:	b80c0400 	stmdalt	ip, {sl}
    3fbc:	0500000d 	streq	r0, [r0, #-13]
    3fc0:	00002530 	andeq	r2, r0, r0, lsr r5
    3fc4:	f80c0800 			; <UNDEFINED> instruction: 0xf80c0800
    3fc8:	0500000b 	streq	r0, [r0, #-11]
    3fcc:	00002530 	andeq	r2, r0, r0, lsr r5
    3fd0:	d10c0c00 	tstle	ip, r0, lsl #24
    3fd4:	0500000e 	streq	r0, [r0, #-14]
    3fd8:	00002530 	andeq	r2, r0, r0, lsr r5
    3fdc:	5f111000 	svcpl	0x00111000
    3fe0:	31050078 	tstcc	r5, r8, ror r0
    3fe4:	00000182 	andeq	r0, r0, r2, lsl #3
    3fe8:	040e0014 	streq	r0, [lr], #-20
    3fec:	00000129 	andeq	r0, r0, r9, lsr #2
    3ff0:	00011e09 	andeq	r1, r1, r9, lsl #28
    3ff4:	00019200 	andeq	r9, r1, r0, lsl #4
    3ff8:	00cc0a00 	sbceq	r0, ip, r0, lsl #20
    3ffc:	00000000 	andeq	r0, r0, r0
    4000:	000c3e10 	andeq	r3, ip, r0, lsl lr
    4004:	35052400 	strcc	r2, [r5, #-1024]	; 0x400
    4008:	0000020b 	andeq	r0, r0, fp, lsl #4
    400c:	000af60c 	andeq	pc, sl, ip, lsl #12
    4010:	25370500 	ldrcs	r0, [r7, #-1280]!	; 0x500
    4014:	00000000 	andeq	r0, r0, r0
    4018:	000df00c 	andeq	pc, sp, ip
    401c:	25380500 	ldrcs	r0, [r8, #-1280]!	; 0x500
    4020:	04000000 	streq	r0, [r0], #-0
    4024:	000b240c 	andeq	r2, fp, ip, lsl #8
    4028:	25390500 	ldrcs	r0, [r9, #-1280]!	; 0x500
    402c:	08000000 	stmdaeq	r0, {}	; <UNPREDICTABLE>
    4030:	000fc10c 	andeq	ip, pc, ip, lsl #2
    4034:	253a0500 	ldrcs	r0, [sl, #-1280]!	; 0x500
    4038:	0c000000 	stceq	0, cr0, [r0], {-0}
    403c:	000cf00c 	andeq	pc, ip, ip
    4040:	253b0500 	ldrcs	r0, [fp, #-1280]!	; 0x500
    4044:	10000000 	andne	r0, r0, r0
    4048:	000cc50c 	andeq	ip, ip, ip, lsl #10
    404c:	253c0500 	ldrcs	r0, [ip, #-1280]!	; 0x500
    4050:	14000000 	strne	r0, [r0], #-0
    4054:	000ed60c 	andeq	sp, lr, ip, lsl #12
    4058:	253d0500 	ldrcs	r0, [sp, #-1280]!	; 0x500
    405c:	18000000 	stmdane	r0, {}	; <UNPREDICTABLE>
    4060:	000d420c 	andeq	r4, sp, ip, lsl #4
    4064:	253e0500 	ldrcs	r0, [lr, #-1280]!	; 0x500
    4068:	1c000000 	stcne	0, cr0, [r0], {-0}
    406c:	000f880c 	andeq	r8, pc, ip, lsl #16
    4070:	253f0500 	ldrcs	r0, [pc, #-1280]!	; 3b78 <__code_start__-0x4488>
    4074:	20000000 	andcs	r0, r0, r0
    4078:	0b331200 	bleq	cc8880 <__bss_end__+0xcbbc90>
    407c:	01080000 	mrseq	r0, (UNDEF: 8)
    4080:	024b4805 	subeq	r4, fp, #327680	; 0x50000
    4084:	df0c0000 	svcle	0x000c0000
    4088:	0500000b 	streq	r0, [r0, #-11]
    408c:	00024b49 	andeq	r4, r2, r9, asr #22
    4090:	710c0000 	mrsvc	r0, (UNDEF: 12)
    4094:	0500000a 	streq	r0, [r0, #-10]
    4098:	00024b4a 	andeq	r4, r2, sl, asr #22
    409c:	7c138000 	ldcvc	0, cr8, [r3], {-0}
    40a0:	0500000e 	streq	r0, [r0, #-14]
    40a4:	00011e4c 	andeq	r1, r1, ip, asr #28
    40a8:	13010000 	movwne	r0, #4096	; 0x1000
    40ac:	00000b58 	andeq	r0, r0, r8, asr fp
    40b0:	011e4f05 	tsteq	lr, r5, lsl #30
    40b4:	01040000 	mrseq	r0, (UNDEF: 4)
    40b8:	010a0900 	tsteq	sl, r0, lsl #18
    40bc:	025b0000 	subseq	r0, fp, #0
    40c0:	cc0a0000 	stcgt	0, cr0, [sl], {-0}
    40c4:	1f000000 	svcne	0x00000000
    40c8:	0cf91200 	lfmeq	f1, 2, [r9]
    40cc:	01900000 	orrseq	r0, r0, r0
    40d0:	02995b05 	addseq	r5, r9, #5120	; 0x1400
    40d4:	810c0000 	mrshi	r0, (UNDEF: 12)
    40d8:	0500000d 	streq	r0, [r0, #-13]
    40dc:	0002995c 	andeq	r9, r2, ip, asr r9
    40e0:	990c0000 	stmdbls	ip, {}	; <UNPREDICTABLE>
    40e4:	0500000d 	streq	r0, [r0, #-13]
    40e8:	0000255d 	andeq	r2, r0, sp, asr r5
    40ec:	f30c0400 	vshl.u8	d0, d0, d12
    40f0:	0500000b 	streq	r0, [r0, #-11]
    40f4:	00029f5f 	andeq	r9, r2, pc, asr pc
    40f8:	330c0800 	movwcc	r0, #51200	; 0xc800
    40fc:	0500000b 	streq	r0, [r0, #-11]
    4100:	00020b60 	andeq	r0, r2, r0, ror #22
    4104:	0e008800 	cdpeq	8, 0, cr8, cr0, cr0, {0}
    4108:	00025b04 	andeq	r5, r2, r4, lsl #22
    410c:	02af0900 	adceq	r0, pc, #0, 18
    4110:	02af0000 	adceq	r0, pc, #0
    4114:	cc0a0000 	stcgt	0, cr0, [sl], {-0}
    4118:	1f000000 	svcne	0x00000000
    411c:	b5040e00 	strlt	r0, [r4, #-3584]	; 0xe00
    4120:	14000002 	strne	r0, [r0], #-2
    4124:	000d4c10 	andeq	r4, sp, r0, lsl ip
    4128:	73050800 	movwvc	r0, #22528	; 0x5800
    412c:	000002db 	ldrdeq	r0, [r0], -fp
    4130:	000b190c 	andeq	r1, fp, ip, lsl #18
    4134:	db740500 	blle	1d0553c <__bss_end__+0x1cf894c>
    4138:	00000002 	andeq	r0, r0, r2
    413c:	000a7d0c 	andeq	r7, sl, ip, lsl #26
    4140:	25750500 	ldrbcs	r0, [r5, #-1280]!	; 0x500
    4144:	04000000 	streq	r0, [r0], #-0
    4148:	54040e00 	strpl	r0, [r4], #-3584	; 0xe00
    414c:	10000000 	andne	r0, r0, r0
    4150:	00000d6b 	andeq	r0, r0, fp, ror #26
    4154:	0bb30568 	bleq	fecc56fc <__bss_end__+0xfecb8b0c>
    4158:	11000004 	tstne	r0, r4
    415c:	0500705f 	streq	r7, [r0, #-95]	; 0x5f
    4160:	0002dbb4 			; <UNDEFINED> instruction: 0x0002dbb4
    4164:	5f110000 	svcpl	0x00110000
    4168:	b5050072 	strlt	r0, [r5, #-114]	; 0x72
    416c:	00000025 	andeq	r0, r0, r5, lsr #32
    4170:	775f1104 	ldrbvc	r1, [pc, -r4, lsl #2]
    4174:	25b60500 	ldrcs	r0, [r6, #1280]!	; 0x500
    4178:	08000000 	stmdaeq	r0, {}	; <UNPREDICTABLE>
    417c:	000b510c 	andeq	r5, fp, ip, lsl #2
    4180:	3fb70500 	svccc	0x00b70500
    4184:	0c000000 	stceq	0, cr0, [r0], {-0}
    4188:	000c640c 	andeq	r6, ip, ip, lsl #8
    418c:	3fb80500 	svccc	0x00b80500
    4190:	0e000000 	cdpeq	0, 0, cr0, cr0, cr0, {0}
    4194:	66625f11 	uqadd16vs	r5, r2, r1
    4198:	b6b90500 	ldrtlt	r0, [r9], r0, lsl #10
    419c:	10000002 	andne	r0, r0, r2
    41a0:	000ac00c 	andeq	ip, sl, ip
    41a4:	25ba0500 	ldrcs	r0, [sl, #1280]!	; 0x500
    41a8:	18000000 	stmdane	r0, {}	; <UNPREDICTABLE>
    41ac:	000b410c 	andeq	r4, fp, ip, lsl #2
    41b0:	0ac10500 	beq	ff0455b8 <__bss_end__+0xff0389c8>
    41b4:	1c000001 	stcne	0, cr0, [r0], {1}
    41b8:	000fe80c 	andeq	lr, pc, ip, lsl #16
    41bc:	66c30500 	strbvs	r0, [r3], r0, lsl #10
    41c0:	20000005 	andcs	r0, r0, r5
    41c4:	0010020c 	andseq	r0, r0, ip, lsl #4
    41c8:	90c50500 	sbcls	r0, r5, r0, lsl #10
    41cc:	24000005 	strcs	r0, [r0], #-5
    41d0:	000ddd0c 	andeq	sp, sp, ip, lsl #26
    41d4:	b4c80500 	strblt	r0, [r8], #1280	; 0x500
    41d8:	28000005 	stmdacs	r0, {r0, r2}
    41dc:	000fa20c 	andeq	sl, pc, ip, lsl #4
    41e0:	cec90500 	cdpgt	5, 12, cr0, cr9, cr0, {0}
    41e4:	2c000005 	stccs	0, cr0, [r0], {5}
    41e8:	62755f11 	rsbsvs	r5, r5, #17, 30	; 0x44
    41ec:	b6cc0500 	strblt	r0, [ip], r0, lsl #10
    41f0:	30000002 	andcc	r0, r0, r2
    41f4:	70755f11 	rsbsvc	r5, r5, r1, lsl pc
    41f8:	dbcd0500 	blle	ff345600 <__bss_end__+0xff338a10>
    41fc:	38000002 	stmdacc	r0, {r1}
    4200:	72755f11 	rsbsvc	r5, r5, #17, 30	; 0x44
    4204:	25ce0500 	strbcs	r0, [lr, #1280]	; 0x500
    4208:	3c000000 	stccc	0, cr0, [r0], {-0}
    420c:	000b040c 	andeq	r0, fp, ip, lsl #8
    4210:	d4d10500 	ldrble	r0, [r1], #1280	; 0x500
    4214:	40000005 	andmi	r0, r0, r5
    4218:	000f4d0c 	andeq	r4, pc, ip, lsl #26
    421c:	e4d20500 	ldrb	r0, [r2], #1280	; 0x500
    4220:	43000005 	movwmi	r0, #5
    4224:	626c5f11 	rsbvs	r5, ip, #17, 30	; 0x44
    4228:	b6d50500 	ldrblt	r0, [r5], r0, lsl #10
    422c:	44000002 	strmi	r0, [r0], #-2
    4230:	000b670c 	andeq	r6, fp, ip, lsl #14
    4234:	25d80500 	ldrbcs	r0, [r8, #1280]	; 0x500
    4238:	4c000000 	stcmi	0, cr0, [r0], {-0}
    423c:	000ccf0c 	andeq	ip, ip, ip, lsl #30
    4240:	7bd90500 	blvc	ff645648 <__bss_end__+0xff638a58>
    4244:	50000000 	andpl	r0, r0, r0
    4248:	000f380c 	andeq	r3, pc, ip, lsl #16
    424c:	29dc0500 	ldmibcs	ip, {r8, sl}^
    4250:	54000004 	strpl	r0, [r0], #-4
    4254:	000cb70c 	andeq	fp, ip, ip, lsl #14
    4258:	ffe00500 			; <UNDEFINED> instruction: 0xffe00500
    425c:	58000000 	stmdapl	r0, {}	; <UNPREDICTABLE>
    4260:	000d730c 	andeq	r7, sp, ip, lsl #6
    4264:	f4e20500 	vld2.16	{d16[0],d17[0]}, [r2], r0
    4268:	5c000000 	stcpl	0, cr0, [r0], {-0}
    426c:	000cbd0c 	andeq	fp, ip, ip, lsl #26
    4270:	25e30500 	strbcs	r0, [r3, #1280]!	; 0x500
    4274:	64000000 	strvs	r0, [r0], #-0
    4278:	00251500 	eoreq	r1, r5, r0, lsl #10
    427c:	04290000 	strteq	r0, [r9], #-0
    4280:	29160000 	ldmdbcs	r6, {}	; <UNPREDICTABLE>
    4284:	16000004 	strne	r0, [r0], -r4
    4288:	0000010a 	andeq	r0, r0, sl, lsl #2
    428c:	00010c16 	andeq	r0, r1, r6, lsl ip
    4290:	00251600 	eoreq	r1, r5, r0, lsl #12
    4294:	0e000000 	cdpeq	0, 0, cr0, cr0, cr0, {0}
    4298:	00043404 	andeq	r3, r4, r4, lsl #8
    429c:	04290f00 	strteq	r0, [r9], #-3840	; 0xf00
    42a0:	c0170000 	andsgt	r0, r7, r0
    42a4:	2800000d 	stmdacs	r0, {r0, r2, r3}
    42a8:	02380504 	eorseq	r0, r8, #4, 10	; 0x1000000
    42ac:	00000566 	andeq	r0, r0, r6, ror #10
    42b0:	000d3b18 	andeq	r3, sp, r8, lsl fp
    42b4:	023a0500 	eorseq	r0, sl, #0, 10
    42b8:	00000025 	andeq	r0, r0, r5, lsr #32
    42bc:	0b601800 	bleq	180a2c4 <__bss_end__+0x17fd6d4>
    42c0:	3f050000 	svccc	0x00050000
    42c4:	00063b02 	andeq	r3, r6, r2, lsl #22
    42c8:	54180400 	ldrpl	r0, [r8], #-1024	; 0x400
    42cc:	0500000c 	streq	r0, [r0, #-12]
    42d0:	063b023f 			; <UNDEFINED> instruction: 0x063b023f
    42d4:	18080000 	stmdane	r8, {}	; <UNPREDICTABLE>
    42d8:	00000c15 	andeq	r0, r0, r5, lsl ip
    42dc:	3b023f05 	blcc	93ef8 <__bss_end__+0x87308>
    42e0:	0c000006 	stceq	0, cr0, [r0], {6}
    42e4:	000d9418 	andeq	r9, sp, r8, lsl r4
    42e8:	02410500 	subeq	r0, r1, #0, 10
    42ec:	00000025 	andeq	r0, r0, r5, lsr #32
    42f0:	0a8b1810 	beq	fe2ca338 <__bss_end__+0xfe2bd748>
    42f4:	42050000 	andmi	r0, r5, #0
    42f8:	00081d02 	andeq	r1, r8, r2, lsl #26
    42fc:	b2181400 	andslt	r1, r8, #0, 8
    4300:	0500000e 	streq	r0, [r0, #-14]
    4304:	00250244 	eoreq	r0, r5, r4, asr #4
    4308:	18300000 	ldmdane	r0!, {}	; <UNPREDICTABLE>
    430c:	00000d9e 	muleq	r0, lr, sp
    4310:	8a024505 	bhi	9572c <__bss_end__+0x88b3c>
    4314:	34000005 	strcc	r0, [r0], #-5
    4318:	000d0118 	andeq	r0, sp, r8, lsl r1
    431c:	02470500 	subeq	r0, r7, #0, 10
    4320:	00000025 	andeq	r0, r0, r5, lsr #32
    4324:	0dae1838 	stceq	8, cr1, [lr, #224]!	; 0xe0
    4328:	49050000 	stmdbmi	r5, {}	; <UNPREDICTABLE>
    432c:	00083802 	andeq	r3, r8, r2, lsl #16
    4330:	93183c00 	tstls	r8, #0, 24
    4334:	0500000c 	streq	r0, [r0, #-12]
    4338:	017c024c 	cmneq	ip, ip, asr #4
    433c:	18400000 	stmdane	r0, {}^	; <UNPREDICTABLE>
    4340:	00000c34 	andeq	r0, r0, r4, lsr ip
    4344:	25024d05 	strcs	r4, [r2, #-3333]	; 0xd05
    4348:	44000000 	strmi	r0, [r0], #-0
    434c:	000fbc18 	andeq	fp, pc, r8, lsl ip	; <UNPREDICTABLE>
    4350:	024e0500 	subeq	r0, lr, #0, 10
    4354:	0000017c 	andeq	r0, r0, ip, ror r1
    4358:	0d181848 	ldceq	8, cr1, [r8, #-288]	; 0xfffffee0
    435c:	4f050000 	svcmi	0x00050000
    4360:	00083e02 	andeq	r3, r8, r2, lsl #28
    4364:	5c184c00 	ldcpl	12, cr4, [r8], {-0}
    4368:	0500000c 	streq	r0, [r0, #-12]
    436c:	00250252 	eoreq	r0, r5, r2, asr r2
    4370:	18500000 	ldmdane	r0, {}^	; <UNPREDICTABLE>
    4374:	00000b83 	andeq	r0, r0, r3, lsl #23
    4378:	0c025305 	stceq	3, cr5, [r2], {5}
    437c:	54000001 	strpl	r0, [r0], #-1
    4380:	000d3418 	andeq	r3, sp, r8, lsl r4
    4384:	02760500 	rsbseq	r0, r6, #0, 10
    4388:	000007fb 	strdeq	r0, [r0], -fp
    438c:	0cf91958 	ldcleq	9, cr1, [r9], #352	; 0x160
    4390:	7a050000 	bvc	144398 <__bss_end__+0x1377a8>
    4394:	00029902 	andeq	r9, r2, r2, lsl #18
    4398:	19014800 	stmdbne	r1, {fp, lr}
    439c:	00000c71 	andeq	r0, r0, r1, ror ip
    43a0:	5b027b05 	blpl	a2fbc <__bss_end__+0x963cc>
    43a4:	4c000002 	stcmi	0, cr0, [r0], {2}
    43a8:	0f1e1901 	svceq	0x001e1901
    43ac:	7f050000 	svcvc	0x00050000
    43b0:	00084f02 	andeq	r4, r8, r2, lsl #30
    43b4:	1902dc00 	stmdbne	r2, {sl, fp, ip, lr, pc}
    43b8:	00000b49 	andeq	r0, r0, r9, asr #22
    43bc:	00028405 	andeq	r8, r2, r5, lsl #8
    43c0:	e0000006 	and	r0, r0, r6
    43c4:	0b2e1902 	bleq	b8a7d4 <__bss_end__+0xb7dbe4>
    43c8:	85050000 	strhi	r0, [r5, #-0]
    43cc:	00085b02 	andeq	r5, r8, r2, lsl #22
    43d0:	0002ec00 	andeq	lr, r2, r0, lsl #24
    43d4:	040b040e 	streq	r0, [fp], #-1038	; 0x40e
    43d8:	25150000 	ldrcs	r0, [r5, #-0]
    43dc:	8a000000 	bhi	43e4 <__code_start__-0x3c1c>
    43e0:	16000005 	strne	r0, [r0], -r5
    43e4:	00000429 	andeq	r0, r0, r9, lsr #8
    43e8:	00010a16 	andeq	r0, r1, r6, lsl sl
    43ec:	058a1600 	streq	r1, [sl, #1536]	; 0x600
    43f0:	25160000 	ldrcs	r0, [r6, #-0]
    43f4:	00000000 	andeq	r0, r0, r0
    43f8:	0119040e 	tsteq	r9, lr, lsl #8
    43fc:	040e0000 	streq	r0, [lr], #-0
    4400:	0000056c 	andeq	r0, r0, ip, ror #10
    4404:	00008615 	andeq	r8, r0, r5, lsl r6
    4408:	0005b400 	andeq	fp, r5, r0, lsl #8
    440c:	04291600 	strteq	r1, [r9], #-1536	; 0x600
    4410:	0a160000 	beq	584418 <__bss_end__+0x577828>
    4414:	16000001 	strne	r0, [r0], -r1
    4418:	00000086 	andeq	r0, r0, r6, lsl #1
    441c:	00002516 	andeq	r2, r0, r6, lsl r5
    4420:	040e0000 	streq	r0, [lr], #-0
    4424:	00000596 	muleq	r0, r6, r5
    4428:	00002515 	andeq	r2, r0, r5, lsl r5
    442c:	0005ce00 	andeq	ip, r5, r0, lsl #28
    4430:	04291600 	strteq	r1, [r9], #-1536	; 0x600
    4434:	0a160000 	beq	58443c <__bss_end__+0x57784c>
    4438:	00000001 	andeq	r0, r0, r1
    443c:	05ba040e 	ldreq	r0, [sl, #1038]!	; 0x40e
    4440:	54090000 	strpl	r0, [r9], #-0
    4444:	e4000000 	str	r0, [r0], #-0
    4448:	0a000005 	beq	4464 <__code_start__-0x3b9c>
    444c:	000000cc 	andeq	r0, r0, ip, asr #1
    4450:	54090002 	strpl	r0, [r9], #-2
    4454:	f4000000 	vst4.8	{d0-d3}, [r0], r0
    4458:	0a000005 	beq	4474 <__code_start__-0x3b8c>
    445c:	000000cc 	andeq	r0, r0, ip, asr #1
    4460:	59060000 	stmdbpl	r6, {}	; <UNPREDICTABLE>
    4464:	0500000d 	streq	r0, [r0, #-13]
    4468:	02e1011d 	rsceq	r0, r1, #1073741831	; 0x40000007
    446c:	e01a0000 	ands	r0, sl, r0
    4470:	0c00000e 	stceq	0, cr0, [r0], {14}
    4474:	35012105 	strcc	r2, [r1, #-261]	; 0x105
    4478:	18000006 	stmdane	r0, {r1, r2}
    447c:	00000d81 	andeq	r0, r0, r1, lsl #27
    4480:	35012305 	strcc	r2, [r1, #-773]	; 0x305
    4484:	00000006 	andeq	r0, r0, r6
    4488:	000c6a18 	andeq	r6, ip, r8, lsl sl
    448c:	01240500 	teqeq	r4, r0, lsl #10
    4490:	00000025 	andeq	r0, r0, r5, lsr #32
    4494:	0d531804 	ldcleq	8, cr1, [r3, #-16]
    4498:	25050000 	strcs	r0, [r5, #-0]
    449c:	00063b01 	andeq	r3, r6, r1, lsl #22
    44a0:	0e000800 	cdpeq	8, 0, cr0, cr0, cr0, {0}
    44a4:	00060004 	andeq	r0, r6, r4
    44a8:	f4040e00 			; <UNDEFINED> instruction: 0xf4040e00
    44ac:	1a000005 	bne	44c8 <__code_start__-0x3b38>
    44b0:	00000a83 	andeq	r0, r0, r3, lsl #21
    44b4:	013d050e 	teqeq	sp, lr, lsl #10
    44b8:	00000676 	andeq	r0, r0, r6, ror r6
    44bc:	000dc718 	andeq	ip, sp, r8, lsl r7
    44c0:	013e0500 	teqeq	lr, r0, lsl #10
    44c4:	00000676 	andeq	r0, r0, r6, ror r6
    44c8:	0e011800 	cdpeq	8, 0, cr1, cr1, cr0, {0}
    44cc:	3f050000 	svccc	0x00050000
    44d0:	00067601 	andeq	r7, r6, r1, lsl #12
    44d4:	85180600 	ldrhi	r0, [r8, #-1536]	; 0x600
    44d8:	0500000e 	streq	r0, [r0, #-14]
    44dc:	005b0140 	subseq	r0, fp, r0, asr #2
    44e0:	000c0000 	andeq	r0, ip, r0
    44e4:	00005b09 	andeq	r5, r0, r9, lsl #22
    44e8:	00068600 	andeq	r8, r6, r0, lsl #12
    44ec:	00cc0a00 	sbceq	r0, ip, r0, lsl #20
    44f0:	00020000 	andeq	r0, r2, r0
    44f4:	5705d01b 	smladpl	r5, fp, r0, sp
    44f8:	00078702 	andeq	r8, r7, r2, lsl #14
    44fc:	0ec41800 	cdpeq	8, 12, cr1, cr4, cr0, {0}
    4500:	59050000 	stmdbpl	r5, {}	; <UNPREDICTABLE>
    4504:	00002c02 	andeq	r2, r0, r2, lsl #24
    4508:	6f180000 	svcvs	0x00180000
    450c:	0500000e 	streq	r0, [r0, #-14]
    4510:	010c025a 	tsteq	ip, sl, asr r2
    4514:	18040000 	stmdane	r4, {}	; <UNPREDICTABLE>
    4518:	00000c86 	andeq	r0, r0, r6, lsl #25
    451c:	87025b05 	strhi	r5, [r2, -r5, lsl #22]
    4520:	08000007 	stmdaeq	r0, {r0, r1, r2}
    4524:	000f9318 	andeq	r9, pc, r8, lsl r3	; <UNPREDICTABLE>
    4528:	025c0500 	subseq	r0, ip, #0, 10
    452c:	00000192 	muleq	r0, r2, r1
    4530:	0c251824 	stceq	8, cr1, [r5], #-144	; 0xffffff70
    4534:	5d050000 	stcpl	0, cr0, [r5, #-0]
    4538:	00002502 	andeq	r2, r0, r2, lsl #10
    453c:	7c184800 	ldcvc	8, cr4, [r8], {-0}
    4540:	0500000d 	streq	r0, [r0, #-13]
    4544:	0069025e 	rsbeq	r0, r9, lr, asr r2
    4548:	18500000 	ldmdane	r0, {}^	; <UNPREDICTABLE>
    454c:	00000fa9 	andeq	r0, r0, r9, lsr #31
    4550:	41025f05 	tstmi	r2, r5, lsl #30
    4554:	58000006 	stmdapl	r0, {r1, r2}
    4558:	000d8718 	andeq	r8, sp, r8, lsl r7
    455c:	02600500 	rsbeq	r0, r0, #0, 10
    4560:	000000f4 	strdeq	r0, [r0], -r4
    4564:	0fae1868 	svceq	0x00ae1868
    4568:	61050000 	mrsvs	r0, (UNDEF: 5)
    456c:	0000f402 	andeq	pc, r0, r2, lsl #8
    4570:	e8187000 	ldmda	r8, {ip, sp, lr}
    4574:	0500000a 	streq	r0, [r0, #-10]
    4578:	00f40262 	rscseq	r0, r4, r2, ror #4
    457c:	18780000 	ldmdane	r8!, {}^	; <UNPREDICTABLE>
    4580:	00000f00 	andeq	r0, r0, r0, lsl #30
    4584:	97026305 	strls	r6, [r2, -r5, lsl #6]
    4588:	80000007 	andhi	r0, r0, r7
    458c:	000c7a18 	andeq	r7, ip, r8, lsl sl
    4590:	02640500 	rsbeq	r0, r4, #0, 10
    4594:	000007a7 	andeq	r0, r0, r7, lsr #15
    4598:	0e921888 	cdpeq	8, 9, cr1, cr2, cr8, {4}
    459c:	65050000 	strvs	r0, [r5, #-0]
    45a0:	00002502 	andeq	r2, r0, r2, lsl #10
    45a4:	d118a000 	tstle	r8, r0
    45a8:	0500000b 	streq	r0, [r0, #-11]
    45ac:	00f40266 	rscseq	r0, r4, r6, ror #4
    45b0:	18a40000 	stmiane	r4!, {}	; <UNPREDICTABLE>
    45b4:	00000ad9 	ldrdeq	r0, [r0], -r9
    45b8:	f4026705 	vst1.8	{d6}, [r2], r5
    45bc:	ac000000 	stcge	0, cr0, [r0], {-0}
    45c0:	000bc018 	andeq	ip, fp, r8, lsl r0
    45c4:	02680500 	rsbeq	r0, r8, #0, 10
    45c8:	000000f4 	strdeq	r0, [r0], -r4
    45cc:	0aa018b4 	beq	fe80a8a4 <__bss_end__+0xfe7fdcb4>
    45d0:	69050000 	stmdbvs	r5, {}	; <UNPREDICTABLE>
    45d4:	0000f402 	andeq	pc, r0, r2, lsl #8
    45d8:	af18bc00 	svcge	0x0018bc00
    45dc:	0500000a 	streq	r0, [r0, #-10]
    45e0:	00f4026a 	rscseq	r0, r4, sl, ror #4
    45e4:	18c40000 	stmiane	r4, {}^	; <UNPREDICTABLE>
    45e8:	00000d39 	andeq	r0, r0, r9, lsr sp
    45ec:	25026b05 	strcs	r6, [r2, #-2821]	; 0xb05
    45f0:	cc000000 	stcgt	0, cr0, [r0], {-0}
    45f4:	01120900 	tsteq	r2, r0, lsl #18
    45f8:	07970000 	ldreq	r0, [r7, r0]
    45fc:	cc0a0000 	stcgt	0, cr0, [sl], {-0}
    4600:	19000000 	stmdbne	r0, {}	; <UNPREDICTABLE>
    4604:	01120900 	tsteq	r2, r0, lsl #18
    4608:	07a70000 	streq	r0, [r7, r0]!
    460c:	cc0a0000 	stcgt	0, cr0, [sl], {-0}
    4610:	07000000 	streq	r0, [r0, -r0]
    4614:	01120900 	tsteq	r2, r0, lsl #18
    4618:	07b70000 	ldreq	r0, [r7, r0]!
    461c:	cc0a0000 	stcgt	0, cr0, [sl], {-0}
    4620:	17000000 	strne	r0, [r0, -r0]
    4624:	05f01b00 	ldrbeq	r1, [r0, #2816]!	; 0xb00
    4628:	07db0270 			; <UNDEFINED> instruction: 0x07db0270
    462c:	e9180000 	ldmdb	r8, {}	; <UNPREDICTABLE>
    4630:	0500000c 	streq	r0, [r0, #-12]
    4634:	07db0273 			; <UNDEFINED> instruction: 0x07db0273
    4638:	18000000 	stmdane	r0, {}	; <UNPREDICTABLE>
    463c:	00000ef7 	strdeq	r0, [r0], -r7
    4640:	eb027405 	bl	a165c <__bss_end__+0x94a6c>
    4644:	78000007 	stmdavc	r0, {r0, r1, r2}
    4648:	02db0900 	sbcseq	r0, fp, #0, 18
    464c:	07eb0000 	strbeq	r0, [fp, r0]!
    4650:	cc0a0000 	stcgt	0, cr0, [sl], {-0}
    4654:	1d000000 	stcne	0, cr0, [r0, #-0]
    4658:	002c0900 	eoreq	r0, ip, r0, lsl #18
    465c:	07fb0000 	ldrbeq	r0, [fp, r0]!
    4660:	cc0a0000 	stcgt	0, cr0, [sl], {-0}
    4664:	1d000000 	stcne	0, cr0, [r0, #-0]
    4668:	05f01c00 	ldrbeq	r1, [r0, #3072]!	; 0xc00
    466c:	081d0255 	ldmdaeq	sp, {r0, r2, r4, r6, r9}
    4670:	c01d0000 	andsgt	r0, sp, r0
    4674:	0500000d 	streq	r0, [r0, #-13]
    4678:	0686026c 	streq	r0, [r6], ip, ror #4
    467c:	531d0000 	tstpl	sp, #0
    4680:	0500000f 	streq	r0, [r0, #-15]
    4684:	07b70275 			; <UNDEFINED> instruction: 0x07b70275
    4688:	09000000 	stmdbeq	r0, {}	; <UNPREDICTABLE>
    468c:	00000112 	andeq	r0, r0, r2, lsl r1
    4690:	0000082d 	andeq	r0, r0, sp, lsr #16
    4694:	0000cc0a 	andeq	ip, r0, sl, lsl #24
    4698:	1e001800 	cdpne	8, 0, cr1, cr0, cr0, {0}
    469c:	00000838 	andeq	r0, r0, r8, lsr r8
    46a0:	00042916 	andeq	r2, r4, r6, lsl r9
    46a4:	040e0000 	streq	r0, [lr], #-0
    46a8:	0000082d 	andeq	r0, r0, sp, lsr #16
    46ac:	017c040e 	cmneq	ip, lr, lsl #8
    46b0:	4f1e0000 	svcmi	0x001e0000
    46b4:	16000008 	strne	r0, [r0], -r8
    46b8:	00000025 	andeq	r0, r0, r5, lsr #32
    46bc:	55040e00 	strpl	r0, [r4, #-3584]	; 0xe00
    46c0:	0e000008 	cdpeq	0, 0, cr0, cr0, cr8, {0}
    46c4:	00084404 	andeq	r4, r8, r4, lsl #8
    46c8:	05f40900 	ldrbeq	r0, [r4, #2304]!	; 0x900
    46cc:	086b0000 	stmdaeq	fp!, {}^	; <UNPREDICTABLE>
    46d0:	cc0a0000 	stcgt	0, cr0, [sl], {-0}
    46d4:	02000000 	andeq	r0, r0, #0
    46d8:	0ea61f00 	cdpeq	15, 10, cr1, cr6, cr0, {0}
    46dc:	fd050000 	stc2	0, cr0, [r5, #-0]
    46e0:	00042902 	andeq	r2, r4, r2, lsl #18
    46e4:	0e9f1f00 	cdpeq	15, 9, cr1, cr15, cr0, {0}
    46e8:	fe050000 	cdp2	0, 0, cr0, cr5, cr0, {0}
    46ec:	00042f02 	andeq	r2, r4, r2, lsl #30
    46f0:	00251500 	eoreq	r1, r5, r0, lsl #10
    46f4:	08920000 	ldmeq	r2, {}	; <UNPREDICTABLE>
    46f8:	25160000 	ldrcs	r0, [r6, #-0]
    46fc:	00000000 	andeq	r0, r0, r0
    4700:	0006a020 	andeq	sl, r6, r0, lsr #32
    4704:	9d1d0600 	ldcls	6, cr0, [sp, #-0]
    4708:	0e000008 	cdpeq	0, 0, cr0, cr0, cr8, {0}
    470c:	00088304 	andeq	r8, r8, r4, lsl #6
    4710:	00251500 	eoreq	r1, r5, r0, lsl #10
    4714:	08b20000 	ldmeq	r2!, {}	; <UNPREDICTABLE>
    4718:	8a160000 	bhi	584720 <__bss_end__+0x577b30>
    471c:	00000005 	andeq	r0, r0, r5
    4720:	0006dd20 	andeq	sp, r6, r0, lsr #26
    4724:	bd220600 	stclt	6, cr0, [r2, #-0]
    4728:	0e000008 	cdpeq	0, 0, cr0, cr0, cr8, {0}
    472c:	0008a304 	andeq	sl, r8, r4, lsl #6
    4730:	54012100 	strpl	r2, [r1], #-256	; 0x100
    4734:	08000000 	stmdaeq	r0, {}	; <UNPREDICTABLE>
    4738:	0009000c 	andeq	r0, r9, ip
    473c:	0ac92200 	beq	ff24cf44 <__bss_end__+0xff240354>
    4740:	22000000 	andcs	r0, r0, #0
    4744:	00000ee6 	andeq	r0, r0, r6, ror #29
    4748:	0f3e2201 	svceq	0x003e2201
    474c:	22040000 	andcs	r0, r4, #0
    4750:	00000b0a 	andeq	r0, r0, sl, lsl #22
    4754:	0ca12205 	sfmeq	f2, 4, [r1], #20
    4758:	22060000 	andcs	r0, r6, #0
    475c:	00000f5b 	andeq	r0, r0, fp, asr pc
    4760:	0f6a2207 	svceq	0x006a2207
    4764:	22030000 	andcs	r0, r3, #0
    4768:	00000f79 	andeq	r0, r0, r9, ror pc
    476c:	77100002 	ldrvc	r0, [r0, -r2]
    4770:	2c00000b 	stccs	0, cr0, [r0], {11}
    4774:	09900607 	ldmibeq	r0, {r0, r1, r2, r9, sl}
    4778:	69110000 	ldmdbvs	r1, {}	; <UNPREDICTABLE>
    477c:	0907006f 	stmdbeq	r7, {r0, r1, r2, r3, r5, r6}
    4780:	00000033 	andeq	r0, r0, r3, lsr r0
    4784:	65691100 	strbvs	r1, [r9, #-256]!	; 0x100
    4788:	0a070072 	beq	1c4958 <__bss_end__+0x1b7d68>
    478c:	00000033 	andeq	r0, r0, r3, lsr r0
    4790:	69691104 	stmdbvs	r9!, {r2, r8, ip}^
    4794:	11070072 	tstne	r7, r2, ror r0
    4798:	00000033 	andeq	r0, r0, r3, lsr r0
    479c:	636c1108 	cmnvs	ip, #8, 2
    47a0:	13070072 	movwne	r0, #28786	; 0x7072
    47a4:	00000033 	andeq	r0, r0, r3, lsr r0
    47a8:	636d110c 	cmnvs	sp, #12, 2
    47ac:	14070072 	strne	r0, [r7], #-114	; 0x72
    47b0:	00000033 	andeq	r0, r0, r3, lsr r0
    47b4:	736c1110 	cmnvc	ip, #16, 2
    47b8:	15070072 	strne	r0, [r7, #-114]	; 0x72
    47bc:	00000033 	andeq	r0, r0, r3, lsr r0
    47c0:	736d1114 	cmnvc	sp, #20, 2
    47c4:	16070072 			; <UNDEFINED> instruction: 0x16070072
    47c8:	00000033 	andeq	r0, r0, r3, lsr r0
    47cc:	0df90c18 	ldcleq	12, cr0, [r9, #96]!	; 0x60
    47d0:	17070000 	strne	r0, [r7, -r0]
    47d4:	00000033 	andeq	r0, r0, r3, lsr r0
    47d8:	0b1f0c1c 	bleq	7c7850 <__bss_end__+0x7bac60>
    47dc:	1b070000 	blne	1c47e4 <__bss_end__+0x1b7bf4>
    47e0:	00000033 	andeq	r0, r0, r3, lsr r0
    47e4:	0aff0c20 	beq	fffc786c <__bss_end__+0xfffbac7c>
    47e8:	1d070000 	stcne	0, cr0, [r7, #-0]
    47ec:	00000033 	andeq	r0, r0, r3, lsr r0
    47f0:	0de30c24 	stcleq	12, cr0, [r3, #144]!	; 0x90
    47f4:	1e070000 	cdpne	0, 0, cr0, cr7, cr0, {0}
    47f8:	00000033 	andeq	r0, r0, r3, lsr r0
    47fc:	e7230028 	str	r0, [r3, -r8, lsr #32]!
    4800:	0100000b 	tsteq	r0, fp
    4804:	0009a507 	andeq	sl, r9, r7, lsl #10
    4808:	21500400 	cmpcs	r0, r0, lsl #8
    480c:	33040e20 	movwcc	r0, #20000	; 0x4e20
    4810:	0f000000 	svceq	0x00000000
    4814:	0000099f 	muleq	r0, pc, r9	; <UNPREDICTABLE>
    4818:	000d1323 	andeq	r1, sp, r3, lsr #6
    481c:	bf280100 	svclt	0x00280100
    4820:	40000009 	andmi	r0, r0, r9
    4824:	0e202150 	mcreq	1, 1, r2, cr0, cr0, {2}
    4828:	00090004 	andeq	r0, r9, r4
    482c:	09b90f00 	ldmibeq	r9!, {r8, r9, sl, fp}
    4830:	30240000 	eorcc	r0, r4, r0
    4834:	0100000f 	tsteq	r0, pc
    4838:	000025a7 	andeq	r2, r0, r7, lsr #11
    483c:	009d3000 	addseq	r3, sp, r0
    4840:	00001000 	andeq	r1, r0, r0
    4844:	f09c0100 			; <UNDEFINED> instruction: 0xf09c0100
    4848:	25000009 	strcs	r0, [r0, #-9]
    484c:	00009d38 	andeq	r9, r0, r8, lsr sp
    4850:	00000c9c 	muleq	r0, ip, ip
    4854:	009d3c25 	addseq	r3, sp, r5, lsr #24
    4858:	000ad200 	andeq	sp, sl, r0, lsl #4
    485c:	85260000 	strhi	r0, [r6, #-0]!
    4860:	01000006 	tsteq	r0, r6
    4864:	009d009f 	umullseq	r0, sp, pc, r0	; <UNPREDICTABLE>
    4868:	00003000 	andeq	r3, r0, r0
    486c:	4e9c0100 	fmlmie	f0, f4, f0
    4870:	2700000a 	strcs	r0, [r0, -sl]
    4874:	9f010063 	svcls	0x00010063
    4878:	0000002c 	andeq	r0, r0, ip, lsr #32
    487c:	00001178 	andeq	r1, r0, r8, ror r1
    4880:	009d0c25 	addseq	r0, sp, r5, lsr #24
    4884:	000c9c00 	andeq	r9, ip, r0, lsl #24
    4888:	9d102500 	cfldr32ls	mvfx2, [r0, #-0]
    488c:	0aa50000 	beq	fe944894 <__bss_end__+0xfe937ca4>
    4890:	24280000 	strtcs	r0, [r8], #-0
    4894:	a700009d 			; <UNDEFINED> instruction: 0xa700009d
    4898:	4400000c 	strmi	r0, [r0], #-12
    489c:	2900000a 	stmdbcs	r0, {r1, r3}
    48a0:	0c055001 	stceq	0, cr5, [r5], {1}
    48a4:	20215040 	eorcs	r5, r1, r0, asr #32
    48a8:	05510129 	ldrbeq	r0, [r1, #-297]	; 0x129
    48ac:	ff080074 			; <UNDEFINED> instruction: 0xff080074
    48b0:	2825001a 	stmdacs	r5!, {r1, r3, r4}
    48b4:	9c00009d 	stcls	0, cr0, [r0], {157}	; 0x9d
    48b8:	0000000c 	andeq	r0, r0, ip
    48bc:	000c4a24 	andeq	r4, ip, r4, lsr #20
    48c0:	25970100 	ldrcs	r0, [r7, #256]	; 0x100
    48c4:	d0000000 	andle	r0, r0, r0
    48c8:	3000009c 	mulcc	r0, ip, r0
    48cc:	01000000 	mrseq	r0, (UNDEF: 0)
    48d0:	000aa59c 	muleq	sl, ip, r5
    48d4:	00632a00 	rsbeq	r2, r3, r0, lsl #20
    48d8:	00259b01 	eoreq	r9, r5, r1, lsl #22
    48dc:	54010000 	strpl	r0, [r1], #-0
    48e0:	009cd825 	addseq	sp, ip, r5, lsr #16
    48e4:	000c9c00 	andeq	r9, ip, r0, lsl #24
    48e8:	9cdc2500 	cfldr64ls	mvdx2, [ip], {0}
    48ec:	0ad20000 	beq	ff4848f4 <__bss_end__+0xff477d04>
    48f0:	ec280000 	stc	0, cr0, [r8], #-0
    48f4:	b200009c 	andlt	r0, r0, #156	; 0x9c
    48f8:	9b00000c 	blls	4930 <__code_start__-0x36d0>
    48fc:	2900000a 	stmdbcs	r0, {r1, r3}
    4900:	0c055001 	stceq	0, cr5, [r5], {1}
    4904:	20215040 	eorcs	r5, r1, r0, asr #32
    4908:	9cf42500 	cfldr64ls	mvdx2, [r4]
    490c:	0c9c0000 	ldceq	0, cr0, [ip], {0}
    4910:	24000000 	strcs	r0, [r0], #-0
    4914:	00000bfe 	strdeq	r0, [r0], -lr
    4918:	00258801 	eoreq	r8, r5, r1, lsl #16
    491c:	9cb00000 	ldcls	0, cr0, [r0]
    4920:	00200000 	eoreq	r0, r0, r0
    4924:	9c010000 	stcls	0, cr0, [r1], {-0}
    4928:	00000ad2 	ldrdeq	r0, [r0], -r2
    492c:	009cbc2b 	addseq	fp, ip, fp, lsr #24
    4930:	000cb200 	andeq	fp, ip, r0, lsl #4
    4934:	50012900 	andpl	r2, r1, r0, lsl #18
    4938:	50640c05 	rsbpl	r0, r4, r5, lsl #24
    493c:	00002021 	andeq	r2, r0, r1, lsr #32
    4940:	000f1024 	andeq	r1, pc, r4, lsr #32
    4944:	257f0100 	ldrbcs	r0, [pc, #-256]!	; 484c <__code_start__-0x37b4>
    4948:	98000000 	stmdals	r0, {}	; <UNPREDICTABLE>
    494c:	1800009c 	stmdane	r0, {r2, r3, r4, r7}
    4950:	01000000 	mrseq	r0, (UNDEF: 0)
    4954:	000aff9c 	muleq	sl, ip, pc	; <UNPREDICTABLE>
    4958:	9ca42b00 	vstmials	r4!, {d2-d1}
    495c:	0cb20000 	ldceq	0, cr0, [r2]
    4960:	01290000 	teqeq	r9, r0
    4964:	640c0550 	strvs	r0, [ip], #-1360	; 0x550
    4968:	00202150 	eoreq	r2, r0, r0, asr r1
    496c:	0a962600 	beq	fe58e174 <__bss_end__+0xfe581584>
    4970:	3a010000 	bcc	44978 <__bss_end__+0x37d88>
    4974:	00009be8 	andeq	r9, r0, r8, ror #23
    4978:	000000b0 	strheq	r0, [r0], -r0	; <UNPREDICTABLE>
    497c:	0c3d9c01 	ldceq	12, cr9, [sp], #-4
    4980:	f8280000 			; <UNDEFINED> instruction: 0xf8280000
    4984:	bd00009b 	stclt	0, cr0, [r0, #-620]	; 0xfffffd94
    4988:	2c00000c 	stccs	0, cr0, [r0], {12}
    498c:	2900000b 	stmdbcs	r0, {r0, r1, r3}
    4990:	3e015001 	cdpcc	0, 0, cr5, cr1, cr1, {0}
    4994:	01510129 	cmpeq	r1, r9, lsr #2
    4998:	04280032 	strteq	r0, [r8], #-50	; 0x32
    499c:	bd00009c 	stclt	0, cr0, [r0, #-624]	; 0xfffffd90
    49a0:	4400000c 	strmi	r0, [r0], #-12
    49a4:	2900000b 	stmdbcs	r0, {r0, r1, r3}
    49a8:	3f015001 	svccc	0x00015001
    49ac:	01510129 	cmpeq	r1, r9, lsr #2
    49b0:	08250032 	stmdaeq	r5!, {r1, r4, r5}
    49b4:	9c00009c 	stcls	0, cr0, [r0], {156}	; 0x9c
    49b8:	2800000c 	stmdacs	r0, {r2, r3}
    49bc:	00009c14 	andeq	r9, r0, r4, lsl ip
    49c0:	00000c3d 	andeq	r0, r0, sp, lsr ip
    49c4:	00000b69 	andeq	r0, r0, r9, ror #22
    49c8:	05500129 	ldrbeq	r0, [r0, #-297]	; 0x129
    49cc:	2150040c 	cmpcs	r0, ip, lsl #8
    49d0:	51012920 	tstpl	r1, r0, lsr #18
    49d4:	25003101 	strcs	r3, [r0, #-257]	; 0x101
    49d8:	00009c18 	andeq	r9, r0, r8, lsl ip
    49dc:	00000c9c 	muleq	r0, ip, ip
    49e0:	009c2828 	addseq	r2, ip, r8, lsr #16
    49e4:	000ca700 	andeq	sl, ip, r0, lsl #14
    49e8:	000b8b00 	andeq	r8, fp, r0, lsl #22
    49ec:	50012900 	andpl	r2, r1, r0, lsl #18
    49f0:	29007402 	stmdbcs	r0, {r1, sl, ip, sp, lr}
    49f4:	30015101 	andcc	r5, r1, r1, lsl #2
    49f8:	9c342800 	ldcls	8, cr2, [r4], #-0
    49fc:	0ca70000 	stceq	0, cr0, [r7]
    4a00:	0ba70000 	bleq	fe9c4a08 <__bss_end__+0xfe9b7e18>
    4a04:	01290000 	teqeq	r9, r0
    4a08:	440c0550 	strmi	r0, [ip], #-1360	; 0x550
    4a0c:	29202150 	stmdbcs	r0!, {r4, r6, r8, sp}
    4a10:	30015101 	andcc	r5, r1, r1, lsl #2
    4a14:	9c402800 	mcrrls	8, 0, r2, r0, cr0
    4a18:	0ca70000 	stceq	0, cr0, [r7]
    4a1c:	0bc30000 	bleq	ff0c4a24 <__bss_end__+0xff0b7e34>
    4a20:	01290000 	teqeq	r9, r0
    4a24:	4c0c0550 	cfstr32mi	mvfx0, [ip], {80}	; 0x50
    4a28:	29202150 	stmdbcs	r0!, {r4, r6, r8, sp}
    4a2c:	33015101 	movwcc	r5, #4353	; 0x1101
    4a30:	9c4c2800 	mcrrls	8, 0, r2, ip, cr0
    4a34:	0ca70000 	stceq	0, cr0, [r7]
    4a38:	0bdf0000 	bleq	ff7c4a40 <__bss_end__+0xff7b7e50>
    4a3c:	01290000 	teqeq	r9, r0
    4a40:	500c0550 	andpl	r0, ip, r0, asr r5
    4a44:	29202150 	stmdbcs	r0!, {r4, r6, r8, sp}
    4a48:	30015101 	andcc	r5, r1, r1, lsl #2
    4a4c:	9c582800 	mrrcls	8, 0, r2, r8, cr0
    4a50:	0ca70000 	stceq	0, cr0, [r7]
    4a54:	0bfc0000 	bleq	fff04a5c <__bss_end__+0xffef7e6c>
    4a58:	01290000 	teqeq	r9, r0
    4a5c:	480c0550 	stmdami	ip, {r4, r6, r8, sl}
    4a60:	29202150 	stmdbcs	r0!, {r4, r6, r8, sp}
    4a64:	08025101 	stmdaeq	r2, {r0, r8, ip, lr}
    4a68:	642800c7 	strtvs	r0, [r8], #-199	; 0xc7
    4a6c:	a700009c 			; <UNDEFINED> instruction: 0xa700009c
    4a70:	1a00000c 	bne	4aa8 <__code_start__-0x3558>
    4a74:	2900000c 	stmdbcs	r0, {r2, r3}
    4a78:	0c055001 	stceq	0, cr5, [r5], {1}
    4a7c:	20215068 	eorcs	r5, r1, r8, rrx
    4a80:	03510129 	cmpeq	r1, #1073741834	; 0x4000000a
    4a84:	00010e0a 	andeq	r0, r1, sl, lsl #28
    4a88:	009c7028 	addseq	r7, ip, r8, lsr #32
    4a8c:	000ca700 	andeq	sl, ip, r0, lsl #14
    4a90:	000c3300 	andeq	r3, ip, r0, lsl #6
    4a94:	50012900 	andpl	r2, r1, r0, lsl #18
    4a98:	29007402 	stmdbcs	r0, {r1, sl, ip, sp, lr}
    4a9c:	33015101 	movwcc	r5, #4353	; 0x1101
    4aa0:	9c742500 	cfldr64ls	mvdx2, [r4], #-0
    4aa4:	0c9c0000 	ldceq	0, cr0, [ip], {0}
    4aa8:	2c000000 	stccs	0, cr0, [r0], {-0}
    4aac:	00000f28 	andeq	r0, r0, r8, lsr #30
    4ab0:	9bc82d01 	blls	ff20febc <__bss_end__+0xff2032cc>
    4ab4:	00200000 	eoreq	r0, r0, r0
    4ab8:	9c010000 	stcls	0, cr0, [r1], {-0}
    4abc:	00000c95 	muleq	r0, r5, ip
    4ac0:	0000762d 	andeq	r7, r0, sp, lsr #12
    4ac4:	952d0100 	strls	r0, [sp, #-256]!	; 0x100
    4ac8:	9600000c 	strls	r0, [r0], -ip
    4acc:	27000011 	smladcs	r0, r1, r0, r0
    4ad0:	006c6176 	rsbeq	r6, ip, r6, ror r1
    4ad4:	002c2d01 	eoreq	r2, ip, r1, lsl #26
    4ad8:	11b40000 			; <UNDEFINED> instruction: 0x11b40000
    4adc:	d8280000 	stmdale	r8!, {}	; <UNPREDICTABLE>
    4ae0:	b200009b 	andlt	r0, r0, #155	; 0x9b
    4ae4:	8400000c 	strhi	r0, [r0], #-12
    4ae8:	2900000c 	stmdbcs	r0, {r2, r3}
    4aec:	74025001 	strvc	r5, [r2], #-1
    4af0:	e42b0000 	strt	r0, [fp], #-0
    4af4:	a700009b 			; <UNDEFINED> instruction: 0xa700009b
    4af8:	2900000c 	stmdbcs	r0, {r2, r3}
    4afc:	74025001 	strvc	r5, [r2], #-1
    4b00:	0e000000 	cdpeq	0, 0, cr0, cr0, cr0, {0}
    4b04:	000c9b04 	andeq	r9, ip, r4, lsl #22
    4b08:	4c2f2e00 	stcmi	14, cr2, [pc], #-0	; 4b10 <__code_start__-0x34f0>
    4b0c:	4c000009 	stcmi	0, cr0, [r0], {9}
    4b10:	06000009 	streq	r0, [r0], -r9
    4b14:	0e072f89 	cdpeq	15, 0, cr2, cr7, cr9, {4}
    4b18:	0e070000 	cdpeq	0, 0, cr0, cr7, cr0, {0}
    4b1c:	9c060000 	stcls	0, cr0, [r6], {-0}
    4b20:	000f0a2f 	andeq	r0, pc, pc, lsr #20
    4b24:	000f0a00 	andeq	r0, pc, r0, lsl #20
    4b28:	2fa80600 	svccs	0x00a80600
    4b2c:	00000cd7 	ldrdeq	r0, [r0], -r7
    4b30:	00000cd7 	ldrdeq	r0, [r0], -r7
    4b34:	70001908 	andvc	r1, r0, r8, lsl #18
    4b38:	0400000b 	streq	r0, [r0], #-11
    4b3c:	00172b00 	andseq	r2, r7, r0, lsl #22
    4b40:	0d010400 	cfstrseq	mvf0, [r1, #-0]
    4b44:	0c00000e 	stceq	0, cr0, [r0], {14}
    4b48:	00000fdd 	ldrdeq	r0, [r0], -sp
    4b4c:	00000b8b 	andeq	r0, r0, fp, lsl #23
    4b50:	00009d40 	andeq	r9, r0, r0, asr #26
    4b54:	00000120 	andeq	r0, r0, r0, lsr #2
    4b58:	0000138a 	andeq	r1, r0, sl, lsl #7
    4b5c:	69050402 	stmdbvs	r5, {r1, sl}
    4b60:	0300746e 	movweq	r7, #1134	; 0x46e
    4b64:	00a70704 	adceq	r0, r7, r4, lsl #14
    4b68:	2c040000 	stccs	0, cr0, [r4], {-0}
    4b6c:	03000000 	movweq	r0, #0
    4b70:	01a20601 			; <UNDEFINED> instruction: 0x01a20601
    4b74:	02030000 	andeq	r0, r3, #0
    4b78:	0001c405 	andeq	ip, r1, r5, lsl #8
    4b7c:	05040300 	streq	r0, [r4, #-768]	; 0x300
    4b80:	000000c8 	andeq	r0, r0, r8, asr #1
    4b84:	c3050803 	movwgt	r0, #22531	; 0x5803
    4b88:	03000000 	movweq	r0, #0
    4b8c:	01a00801 	lsleq	r0, r1, #16
    4b90:	02030000 	andeq	r0, r3, #0
    4b94:	00013f07 	andeq	r3, r1, r7, lsl #30
    4b98:	07040300 	streq	r0, [r4, -r0, lsl #6]
    4b9c:	000000a2 	andeq	r0, r0, r2, lsr #1
    4ba0:	9d070803 	stcls	8, cr0, [r7, #-12]
    4ba4:	05000000 	streq	r0, [r0, #-0]
    4ba8:	00000d22 	andeq	r0, r0, r2, lsr #26
    4bac:	00250702 	eoreq	r0, r5, r2, lsl #14
    4bb0:	0c050000 	stceq	0, cr0, [r5], {-0}
    4bb4:	0300000d 	movweq	r0, #13
    4bb8:	0000462c 	andeq	r4, r0, ip, lsr #12
    4bbc:	0de80500 	cfstr64eq	mvdx0, [r8]
    4bc0:	72030000 	andvc	r0, r3, #0
    4bc4:	00000046 	andeq	r0, r0, r6, asr #32
    4bc8:	000cb006 	andeq	fp, ip, r6
    4bcc:	01650400 	cmneq	r5, r0, lsl #8
    4bd0:	0000002c 	andeq	r0, r0, ip, lsr #32
    4bd4:	a6030407 	strge	r0, [r3], -r7, lsl #8
    4bd8:	000000bc 	strheq	r0, [r0], -ip
    4bdc:	000c9b08 	andeq	r9, ip, r8, lsl #22
    4be0:	91a80300 			; <UNDEFINED> instruction: 0x91a80300
    4be4:	08000000 	stmdaeq	r0, {}	; <UNPREDICTABLE>
    4be8:	00000c43 	andeq	r0, r0, r3, asr #24
    4bec:	00bca903 	adcseq	sl, ip, r3, lsl #18
    4bf0:	09000000 	stmdbeq	r0, {}	; <UNPREDICTABLE>
    4bf4:	00000054 	andeq	r0, r0, r4, asr r0
    4bf8:	000000cc 	andeq	r0, r0, ip, asr #1
    4bfc:	0000cc0a 	andeq	ip, r0, sl, lsl #24
    4c00:	03000300 	movweq	r0, #768	; 0x300
    4c04:	01640704 	cmneq	r4, r4, lsl #14
    4c08:	080b0000 	stmdaeq	fp, {}	; <UNPREDICTABLE>
    4c0c:	00f4a303 	rscseq	sl, r4, r3, lsl #6
    4c10:	cd0c0000 	stcgt	0, cr0, [ip, #-0]
    4c14:	0300000d 	movweq	r0, #13
    4c18:	000025a5 	andeq	r2, r0, r5, lsr #11
    4c1c:	d50c0000 	strle	r0, [ip, #-0]
    4c20:	0300000d 	movweq	r0, #13
    4c24:	00009daa 	andeq	r9, r0, sl, lsr #27
    4c28:	05000400 	streq	r0, [r0, #-1024]	; 0x400
    4c2c:	00000d60 	andeq	r0, r0, r0, ror #26
    4c30:	00d3ab03 	sbcseq	sl, r3, r3, lsl #22
    4c34:	0c050000 	stceq	0, cr0, [r5], {-0}
    4c38:	0300000c 	movweq	r0, #12
    4c3c:	000070af 	andeq	r7, r0, pc, lsr #1
    4c40:	0e040d00 	cdpeq	13, 0, cr0, cr4, cr0, {0}
    4c44:	00011204 	andeq	r1, r1, r4, lsl #4
    4c48:	08010300 	stmdaeq	r1, {r8, r9}
    4c4c:	000001a9 	andeq	r0, r0, r9, lsr #3
    4c50:	00011204 	andeq	r1, r1, r4, lsl #4
    4c54:	0e8a0500 	cdpeq	5, 8, cr0, cr10, cr0, {0}
    4c58:	16050000 	strne	r0, [r5], -r0
    4c5c:	00000062 	andeq	r0, r0, r2, rrx
    4c60:	000c1d0f 	andeq	r1, ip, pc, lsl #26
    4c64:	2d051800 	stccs	8, cr1, [r5, #-0]
    4c68:	0000017c 	andeq	r0, r0, ip, ror r1
    4c6c:	000d810c 	andeq	r8, sp, ip, lsl #2
    4c70:	7c2f0500 	cfstr32vc	mvfx0, [pc], #-0	; 4c78 <__code_start__-0x3388>
    4c74:	00000001 	andeq	r0, r0, r1
    4c78:	006b5f10 	rsbeq	r5, fp, r0, lsl pc
    4c7c:	00253005 	eoreq	r3, r5, r5
    4c80:	0c040000 	stceq	0, cr0, [r4], {-0}
    4c84:	00000db8 			; <UNDEFINED> instruction: 0x00000db8
    4c88:	00253005 	eoreq	r3, r5, r5
    4c8c:	0c080000 	stceq	0, cr0, [r8], {-0}
    4c90:	00000bf8 	strdeq	r0, [r0], -r8
    4c94:	00253005 	eoreq	r3, r5, r5
    4c98:	0c0c0000 	stceq	0, cr0, [ip], {-0}
    4c9c:	00000ed1 	ldrdeq	r0, [r0], -r1
    4ca0:	00253005 	eoreq	r3, r5, r5
    4ca4:	10100000 	andsne	r0, r0, r0
    4ca8:	0500785f 	streq	r7, [r0, #-2143]	; 0x85f
    4cac:	00018231 	andeq	r8, r1, r1, lsr r2
    4cb0:	0e001400 	cfcpyseq	mvf1, mvf0
    4cb4:	00012904 	andeq	r2, r1, r4, lsl #18
    4cb8:	011e0900 	tsteq	lr, r0, lsl #18
    4cbc:	01920000 	orrseq	r0, r2, r0
    4cc0:	cc0a0000 	stcgt	0, cr0, [sl], {-0}
    4cc4:	00000000 	andeq	r0, r0, r0
    4cc8:	0c3e0f00 	ldceq	15, cr0, [lr], #-0
    4ccc:	05240000 	streq	r0, [r4, #-0]!
    4cd0:	00020b35 	andeq	r0, r2, r5, lsr fp
    4cd4:	0af60c00 	beq	ffd87cdc <__bss_end__+0xffd7b0ec>
    4cd8:	37050000 	strcc	r0, [r5, -r0]
    4cdc:	00000025 	andeq	r0, r0, r5, lsr #32
    4ce0:	0df00c00 	ldcleq	12, cr0, [r0]
    4ce4:	38050000 	stmdacc	r5, {}	; <UNPREDICTABLE>
    4ce8:	00000025 	andeq	r0, r0, r5, lsr #32
    4cec:	0b240c04 	bleq	907d04 <__bss_end__+0x8fb114>
    4cf0:	39050000 	stmdbcc	r5, {}	; <UNPREDICTABLE>
    4cf4:	00000025 	andeq	r0, r0, r5, lsr #32
    4cf8:	0fc10c08 	svceq	0x00c10c08
    4cfc:	3a050000 	bcc	144d04 <__bss_end__+0x138114>
    4d00:	00000025 	andeq	r0, r0, r5, lsr #32
    4d04:	0cf00c0c 	ldcleq	12, cr0, [r0], #48	; 0x30
    4d08:	3b050000 	blcc	144d10 <__bss_end__+0x138120>
    4d0c:	00000025 	andeq	r0, r0, r5, lsr #32
    4d10:	0cc50c10 	stcleq	12, cr0, [r5], {16}
    4d14:	3c050000 	stccc	0, cr0, [r5], {-0}
    4d18:	00000025 	andeq	r0, r0, r5, lsr #32
    4d1c:	0ed60c14 	mrceq	12, 6, r0, cr6, cr4, {0}
    4d20:	3d050000 	stccc	0, cr0, [r5, #-0]
    4d24:	00000025 	andeq	r0, r0, r5, lsr #32
    4d28:	0d420c18 	stcleq	12, cr0, [r2, #-96]	; 0xffffffa0
    4d2c:	3e050000 	cdpcc	0, 0, cr0, cr5, cr0, {0}
    4d30:	00000025 	andeq	r0, r0, r5, lsr #32
    4d34:	0f880c1c 	svceq	0x00880c1c
    4d38:	3f050000 	svccc	0x00050000
    4d3c:	00000025 	andeq	r0, r0, r5, lsr #32
    4d40:	33110020 	tstcc	r1, #32
    4d44:	0800000b 	stmdaeq	r0, {r0, r1, r3}
    4d48:	4b480501 	blmi	1206154 <__bss_end__+0x11f9564>
    4d4c:	0c000002 	stceq	0, cr0, [r0], {2}
    4d50:	00000bdf 	ldrdeq	r0, [r0], -pc	; <UNPREDICTABLE>
    4d54:	024b4905 	subeq	r4, fp, #81920	; 0x14000
    4d58:	0c000000 	stceq	0, cr0, [r0], {-0}
    4d5c:	00000a71 	andeq	r0, r0, r1, ror sl
    4d60:	024b4a05 	subeq	r4, fp, #20480	; 0x5000
    4d64:	12800000 	addne	r0, r0, #0
    4d68:	00000e7c 	andeq	r0, r0, ip, ror lr
    4d6c:	011e4c05 	tsteq	lr, r5, lsl #24
    4d70:	01000000 	mrseq	r0, (UNDEF: 0)
    4d74:	000b5812 	andeq	r5, fp, r2, lsl r8
    4d78:	1e4f0500 	cdpne	5, 4, cr0, cr15, cr0, {0}
    4d7c:	04000001 	streq	r0, [r0], #-1
    4d80:	0a090001 	beq	244d8c <__bss_end__+0x23819c>
    4d84:	5b000001 	blpl	4d90 <__code_start__-0x3270>
    4d88:	0a000002 	beq	4d98 <__code_start__-0x3268>
    4d8c:	000000cc 	andeq	r0, r0, ip, asr #1
    4d90:	f911001f 			; <UNDEFINED> instruction: 0xf911001f
    4d94:	9000000c 	andls	r0, r0, ip
    4d98:	995b0501 	ldmdbls	fp, {r0, r8, sl}^
    4d9c:	0c000002 	stceq	0, cr0, [r0], {2}
    4da0:	00000d81 	andeq	r0, r0, r1, lsl #27
    4da4:	02995c05 	addseq	r5, r9, #1280	; 0x500
    4da8:	0c000000 	stceq	0, cr0, [r0], {-0}
    4dac:	00000d99 	muleq	r0, r9, sp
    4db0:	00255d05 	eoreq	r5, r5, r5, lsl #26
    4db4:	0c040000 	stceq	0, cr0, [r4], {-0}
    4db8:	00000bf3 	strdeq	r0, [r0], -r3
    4dbc:	029f5f05 	addseq	r5, pc, #5, 30
    4dc0:	0c080000 	stceq	0, cr0, [r8], {-0}
    4dc4:	00000b33 	andeq	r0, r0, r3, lsr fp
    4dc8:	020b6005 	andeq	r6, fp, #5
    4dcc:	00880000 	addeq	r0, r8, r0
    4dd0:	025b040e 	subseq	r0, fp, #234881024	; 0xe000000
    4dd4:	af090000 	svcge	0x00090000
    4dd8:	af000002 	svcge	0x00000002
    4ddc:	0a000002 	beq	4dec <__code_start__-0x3214>
    4de0:	000000cc 	andeq	r0, r0, ip, asr #1
    4de4:	040e001f 	streq	r0, [lr], #-31
    4de8:	000002b5 			; <UNDEFINED> instruction: 0x000002b5
    4dec:	0d4c0f13 	stcleq	15, cr0, [ip, #-76]	; 0xffffffb4
    4df0:	05080000 	streq	r0, [r8, #-0]
    4df4:	0002db73 	andeq	sp, r2, r3, ror fp
    4df8:	0b190c00 	bleq	647e00 <__bss_end__+0x63b210>
    4dfc:	74050000 	strvc	r0, [r5], #-0
    4e00:	000002db 	ldrdeq	r0, [r0], -fp
    4e04:	0a7d0c00 	beq	1f47e0c <__bss_end__+0x1f3b21c>
    4e08:	75050000 	strvc	r0, [r5, #-0]
    4e0c:	00000025 	andeq	r0, r0, r5, lsr #32
    4e10:	040e0004 	streq	r0, [lr], #-4
    4e14:	00000054 	andeq	r0, r0, r4, asr r0
    4e18:	000d6b0f 	andeq	r6, sp, pc, lsl #22
    4e1c:	b3056800 	movwlt	r6, #22528	; 0x5800
    4e20:	0000040b 	andeq	r0, r0, fp, lsl #8
    4e24:	00705f10 	rsbseq	r5, r0, r0, lsl pc
    4e28:	02dbb405 	sbcseq	fp, fp, #83886080	; 0x5000000
    4e2c:	10000000 	andne	r0, r0, r0
    4e30:	0500725f 	streq	r7, [r0, #-607]	; 0x25f
    4e34:	000025b5 			; <UNDEFINED> instruction: 0x000025b5
    4e38:	5f100400 	svcpl	0x00100400
    4e3c:	b6050077 			; <UNDEFINED> instruction: 0xb6050077
    4e40:	00000025 	andeq	r0, r0, r5, lsr #32
    4e44:	0b510c08 	bleq	1447e6c <__bss_end__+0x143b27c>
    4e48:	b7050000 	strlt	r0, [r5, -r0]
    4e4c:	0000003f 	andeq	r0, r0, pc, lsr r0
    4e50:	0c640c0c 	stcleq	12, cr0, [r4], #-48	; 0xffffffd0
    4e54:	b8050000 	stmdalt	r5, {}	; <UNPREDICTABLE>
    4e58:	0000003f 	andeq	r0, r0, pc, lsr r0
    4e5c:	625f100e 	subsvs	r1, pc, #14
    4e60:	b9050066 	stmdblt	r5, {r1, r2, r5, r6}
    4e64:	000002b6 			; <UNDEFINED> instruction: 0x000002b6
    4e68:	0ac00c10 	beq	ff007eb0 <__bss_end__+0xfeffb2c0>
    4e6c:	ba050000 	blt	144e74 <__bss_end__+0x138284>
    4e70:	00000025 	andeq	r0, r0, r5, lsr #32
    4e74:	0b410c18 	bleq	1047edc <__bss_end__+0x103b2ec>
    4e78:	c1050000 	mrsgt	r0, (UNDEF: 5)
    4e7c:	0000010a 	andeq	r0, r0, sl, lsl #2
    4e80:	0fe80c1c 	svceq	0x00e80c1c
    4e84:	c3050000 	movwgt	r0, #20480	; 0x5000
    4e88:	00000566 	andeq	r0, r0, r6, ror #10
    4e8c:	10020c20 	andne	r0, r2, r0, lsr #24
    4e90:	c5050000 	strgt	r0, [r5, #-0]
    4e94:	00000590 	muleq	r0, r0, r5
    4e98:	0ddd0c24 	ldcleq	12, cr0, [sp, #144]	; 0x90
    4e9c:	c8050000 	stmdagt	r5, {}	; <UNPREDICTABLE>
    4ea0:	000005b4 			; <UNDEFINED> instruction: 0x000005b4
    4ea4:	0fa20c28 	svceq	0x00a20c28
    4ea8:	c9050000 	stmdbgt	r5, {}	; <UNPREDICTABLE>
    4eac:	000005ce 	andeq	r0, r0, lr, asr #11
    4eb0:	755f102c 	ldrbvc	r1, [pc, #-44]	; 4e8c <__code_start__-0x3174>
    4eb4:	cc050062 	stcgt	0, cr0, [r5], {98}	; 0x62
    4eb8:	000002b6 			; <UNDEFINED> instruction: 0x000002b6
    4ebc:	755f1030 	ldrbvc	r1, [pc, #-48]	; 4e94 <__code_start__-0x316c>
    4ec0:	cd050070 	stcgt	0, cr0, [r5, #-448]	; 0xfffffe40
    4ec4:	000002db 	ldrdeq	r0, [r0], -fp
    4ec8:	755f1038 	ldrbvc	r1, [pc, #-56]	; 4e98 <__code_start__-0x3168>
    4ecc:	ce050072 	mcrgt	0, 0, r0, cr5, cr2, {3}
    4ed0:	00000025 	andeq	r0, r0, r5, lsr #32
    4ed4:	0b040c3c 	bleq	107fcc <__bss_end__+0xfb3dc>
    4ed8:	d1050000 	mrsle	r0, (UNDEF: 5)
    4edc:	000005d4 	ldrdeq	r0, [r0], -r4
    4ee0:	0f4d0c40 	svceq	0x004d0c40
    4ee4:	d2050000 	andle	r0, r5, #0
    4ee8:	000005e4 	andeq	r0, r0, r4, ror #11
    4eec:	6c5f1043 	mrrcvs	0, 4, r1, pc, cr3	; <UNPREDICTABLE>
    4ef0:	d5050062 	strle	r0, [r5, #-98]	; 0x62
    4ef4:	000002b6 			; <UNDEFINED> instruction: 0x000002b6
    4ef8:	0b670c44 	bleq	19c8010 <__bss_end__+0x19bb420>
    4efc:	d8050000 	stmdale	r5, {}	; <UNPREDICTABLE>
    4f00:	00000025 	andeq	r0, r0, r5, lsr #32
    4f04:	0ccf0c4c 	stcleq	12, cr0, [pc], {76}	; 0x4c
    4f08:	d9050000 	stmdble	r5, {}	; <UNPREDICTABLE>
    4f0c:	0000007b 	andeq	r0, r0, fp, ror r0
    4f10:	0f380c50 	svceq	0x00380c50
    4f14:	dc050000 	stcle	0, cr0, [r5], {-0}
    4f18:	00000429 	andeq	r0, r0, r9, lsr #8
    4f1c:	0cb70c54 	ldceq	12, cr0, [r7], #336	; 0x150
    4f20:	e0050000 	and	r0, r5, r0
    4f24:	000000ff 	strdeq	r0, [r0], -pc	; <UNPREDICTABLE>
    4f28:	0d730c58 	ldcleq	12, cr0, [r3, #-352]!	; 0xfffffea0
    4f2c:	e2050000 	and	r0, r5, #0
    4f30:	000000f4 	strdeq	r0, [r0], -r4
    4f34:	0cbd0c5c 	ldceq	12, cr0, [sp], #368	; 0x170
    4f38:	e3050000 	movw	r0, #20480	; 0x5000
    4f3c:	00000025 	andeq	r0, r0, r5, lsr #32
    4f40:	25140064 	ldrcs	r0, [r4, #-100]	; 0x64
    4f44:	29000000 	stmdbcs	r0, {}	; <UNPREDICTABLE>
    4f48:	15000004 	strne	r0, [r0, #-4]
    4f4c:	00000429 	andeq	r0, r0, r9, lsr #8
    4f50:	00010a15 	andeq	r0, r1, r5, lsl sl
    4f54:	010c1500 	tsteq	ip, r0, lsl #10
    4f58:	25150000 	ldrcs	r0, [r5, #-0]
    4f5c:	00000000 	andeq	r0, r0, r0
    4f60:	0434040e 	ldrteq	r0, [r4], #-1038	; 0x40e
    4f64:	29040000 	stmdbcs	r4, {}	; <UNPREDICTABLE>
    4f68:	16000004 	strne	r0, [r0], -r4
    4f6c:	00000dc0 	andeq	r0, r0, r0, asr #27
    4f70:	38050428 	stmdacc	r5, {r3, r5, sl}
    4f74:	00056602 	andeq	r6, r5, r2, lsl #12
    4f78:	0d3b1700 	ldceq	7, cr1, [fp, #-0]
    4f7c:	3a050000 	bcc	144f84 <__bss_end__+0x138394>
    4f80:	00002502 	andeq	r2, r0, r2, lsl #10
    4f84:	60170000 	andsvs	r0, r7, r0
    4f88:	0500000b 	streq	r0, [r0, #-11]
    4f8c:	063b023f 			; <UNDEFINED> instruction: 0x063b023f
    4f90:	17040000 	strne	r0, [r4, -r0]
    4f94:	00000c54 	andeq	r0, r0, r4, asr ip
    4f98:	3b023f05 	blcc	94bb4 <__bss_end__+0x87fc4>
    4f9c:	08000006 	stmdaeq	r0, {r1, r2}
    4fa0:	000c1517 	andeq	r1, ip, r7, lsl r5
    4fa4:	023f0500 	eorseq	r0, pc, #0, 10
    4fa8:	0000063b 	andeq	r0, r0, fp, lsr r6
    4fac:	0d94170c 	ldceq	7, cr1, [r4, #48]	; 0x30
    4fb0:	41050000 	mrsmi	r0, (UNDEF: 5)
    4fb4:	00002502 	andeq	r2, r0, r2, lsl #10
    4fb8:	8b171000 	blhi	5c8fc0 <__bss_end__+0x5bc3d0>
    4fbc:	0500000a 	streq	r0, [r0, #-10]
    4fc0:	081d0242 	ldmdaeq	sp, {r1, r6, r9}
    4fc4:	17140000 	ldrne	r0, [r4, -r0]
    4fc8:	00000eb2 			; <UNDEFINED> instruction: 0x00000eb2
    4fcc:	25024405 	strcs	r4, [r2, #-1029]	; 0x405
    4fd0:	30000000 	andcc	r0, r0, r0
    4fd4:	000d9e17 	andeq	r9, sp, r7, lsl lr
    4fd8:	02450500 	subeq	r0, r5, #0, 10
    4fdc:	0000058a 	andeq	r0, r0, sl, lsl #11
    4fe0:	0d011734 	stceq	7, cr1, [r1, #-208]	; 0xffffff30
    4fe4:	47050000 	strmi	r0, [r5, -r0]
    4fe8:	00002502 	andeq	r2, r0, r2, lsl #10
    4fec:	ae173800 	cdpge	8, 1, cr3, cr7, cr0, {0}
    4ff0:	0500000d 	streq	r0, [r0, #-13]
    4ff4:	08380249 	ldmdaeq	r8!, {r0, r3, r6, r9}
    4ff8:	173c0000 	ldrne	r0, [ip, -r0]!
    4ffc:	00000c93 	muleq	r0, r3, ip
    5000:	7c024c05 	stcvc	12, cr4, [r2], {5}
    5004:	40000001 	andmi	r0, r0, r1
    5008:	000c3417 	andeq	r3, ip, r7, lsl r4
    500c:	024d0500 	subeq	r0, sp, #0, 10
    5010:	00000025 	andeq	r0, r0, r5, lsr #32
    5014:	0fbc1744 	svceq	0x00bc1744
    5018:	4e050000 	cdpmi	0, 0, cr0, cr5, cr0, {0}
    501c:	00017c02 	andeq	r7, r1, r2, lsl #24
    5020:	18174800 	ldmdane	r7, {fp, lr}
    5024:	0500000d 	streq	r0, [r0, #-13]
    5028:	083e024f 	ldmdaeq	lr!, {r0, r1, r2, r3, r6, r9}
    502c:	174c0000 	strbne	r0, [ip, -r0]
    5030:	00000c5c 	andeq	r0, r0, ip, asr ip
    5034:	25025205 	strcs	r5, [r2, #-517]	; 0x205
    5038:	50000000 	andpl	r0, r0, r0
    503c:	000b8317 	andeq	r8, fp, r7, lsl r3
    5040:	02530500 	subseq	r0, r3, #0, 10
    5044:	0000010c 	andeq	r0, r0, ip, lsl #2
    5048:	0d341754 	ldceq	7, cr1, [r4, #-336]!	; 0xfffffeb0
    504c:	76050000 	strvc	r0, [r5], -r0
    5050:	0007fb02 	andeq	pc, r7, r2, lsl #22
    5054:	f9185800 			; <UNDEFINED> instruction: 0xf9185800
    5058:	0500000c 	streq	r0, [r0, #-12]
    505c:	0299027a 	addseq	r0, r9, #-1610612729	; 0xa0000007
    5060:	01480000 	mrseq	r0, (UNDEF: 72)
    5064:	000c7118 	andeq	r7, ip, r8, lsl r1
    5068:	027b0500 	rsbseq	r0, fp, #0, 10
    506c:	0000025b 	andeq	r0, r0, fp, asr r2
    5070:	1e18014c 	mufneem	f0, f0, #4.0
    5074:	0500000f 	streq	r0, [r0, #-15]
    5078:	084f027f 	stmdaeq	pc, {r0, r1, r2, r3, r4, r5, r6, r9}^	; <UNPREDICTABLE>
    507c:	02dc0000 	sbcseq	r0, ip, #0
    5080:	000b4918 	andeq	r4, fp, r8, lsl r9
    5084:	02840500 	addeq	r0, r4, #0, 10
    5088:	00000600 	andeq	r0, r0, r0, lsl #12
    508c:	2e1802e0 	cdpcs	2, 1, cr0, cr8, cr0, {7}
    5090:	0500000b 	streq	r0, [r0, #-11]
    5094:	085b0285 	ldmdaeq	fp, {r0, r2, r7, r9}^
    5098:	02ec0000 	rsceq	r0, ip, #0
    509c:	0b040e00 	bleq	1088a4 <__bss_end__+0xfbcb4>
    50a0:	14000004 	strne	r0, [r0], #-4
    50a4:	00000025 	andeq	r0, r0, r5, lsr #32
    50a8:	0000058a 	andeq	r0, r0, sl, lsl #11
    50ac:	00042915 	andeq	r2, r4, r5, lsl r9
    50b0:	010a1500 	tsteq	sl, r0, lsl #10
    50b4:	8a150000 	bhi	5450bc <__bss_end__+0x5384cc>
    50b8:	15000005 	strne	r0, [r0, #-5]
    50bc:	00000025 	andeq	r0, r0, r5, lsr #32
    50c0:	19040e00 	stmdbne	r4, {r9, sl, fp}
    50c4:	0e000001 	cdpeq	0, 0, cr0, cr0, cr1, {0}
    50c8:	00056c04 	andeq	r6, r5, r4, lsl #24
    50cc:	00861400 	addeq	r1, r6, r0, lsl #8
    50d0:	05b40000 	ldreq	r0, [r4, #0]!
    50d4:	29150000 	ldmdbcs	r5, {}	; <UNPREDICTABLE>
    50d8:	15000004 	strne	r0, [r0, #-4]
    50dc:	0000010a 	andeq	r0, r0, sl, lsl #2
    50e0:	00008615 	andeq	r8, r0, r5, lsl r6
    50e4:	00251500 	eoreq	r1, r5, r0, lsl #10
    50e8:	0e000000 	cdpeq	0, 0, cr0, cr0, cr0, {0}
    50ec:	00059604 	andeq	r9, r5, r4, lsl #12
    50f0:	00251400 	eoreq	r1, r5, r0, lsl #8
    50f4:	05ce0000 	strbeq	r0, [lr]
    50f8:	29150000 	ldmdbcs	r5, {}	; <UNPREDICTABLE>
    50fc:	15000004 	strne	r0, [r0, #-4]
    5100:	0000010a 	andeq	r0, r0, sl, lsl #2
    5104:	ba040e00 	blt	10890c <__bss_end__+0xfbd1c>
    5108:	09000005 	stmdbeq	r0, {r0, r2}
    510c:	00000054 	andeq	r0, r0, r4, asr r0
    5110:	000005e4 	andeq	r0, r0, r4, ror #11
    5114:	0000cc0a 	andeq	ip, r0, sl, lsl #24
    5118:	09000200 	stmdbeq	r0, {r9}
    511c:	00000054 	andeq	r0, r0, r4, asr r0
    5120:	000005f4 	strdeq	r0, [r0], -r4
    5124:	0000cc0a 	andeq	ip, r0, sl, lsl #24
    5128:	06000000 	streq	r0, [r0], -r0
    512c:	00000d59 	andeq	r0, r0, r9, asr sp
    5130:	e1011d05 	tst	r1, r5, lsl #26
    5134:	19000002 	stmdbne	r0, {r1}
    5138:	00000ee0 	andeq	r0, r0, r0, ror #29
    513c:	0121050c 	teqeq	r1, ip, lsl #10
    5140:	00000635 	andeq	r0, r0, r5, lsr r6
    5144:	000d8117 	andeq	r8, sp, r7, lsl r1
    5148:	01230500 	teqeq	r3, r0, lsl #10
    514c:	00000635 	andeq	r0, r0, r5, lsr r6
    5150:	0c6a1700 	stcleq	7, cr1, [sl], #-0
    5154:	24050000 	strcs	r0, [r5], #-0
    5158:	00002501 	andeq	r2, r0, r1, lsl #10
    515c:	53170400 	tstpl	r7, #0, 8
    5160:	0500000d 	streq	r0, [r0, #-13]
    5164:	063b0125 	ldrteq	r0, [fp], -r5, lsr #2
    5168:	00080000 	andeq	r0, r8, r0
    516c:	0600040e 	streq	r0, [r0], -lr, lsl #8
    5170:	040e0000 	streq	r0, [lr], #-0
    5174:	000005f4 	strdeq	r0, [r0], -r4
    5178:	000a8319 	andeq	r8, sl, r9, lsl r3
    517c:	3d050e00 	stccc	14, cr0, [r5, #-0]
    5180:	00067601 	andeq	r7, r6, r1, lsl #12
    5184:	0dc71700 	stcleq	7, cr1, [r7]
    5188:	3e050000 	cdpcc	0, 0, cr0, cr5, cr0, {0}
    518c:	00067601 	andeq	r7, r6, r1, lsl #12
    5190:	01170000 	tsteq	r7, r0
    5194:	0500000e 	streq	r0, [r0, #-14]
    5198:	0676013f 			; <UNDEFINED> instruction: 0x0676013f
    519c:	17060000 	strne	r0, [r6, -r0]
    51a0:	00000e85 	andeq	r0, r0, r5, lsl #29
    51a4:	5b014005 	blpl	551c0 <__bss_end__+0x485d0>
    51a8:	0c000000 	stceq	0, cr0, [r0], {-0}
    51ac:	005b0900 	subseq	r0, fp, r0, lsl #18
    51b0:	06860000 	streq	r0, [r6], r0
    51b4:	cc0a0000 	stcgt	0, cr0, [sl], {-0}
    51b8:	02000000 	andeq	r0, r0, #0
    51bc:	05d01a00 	ldrbeq	r1, [r0, #2560]	; 0xa00
    51c0:	07870257 			; <UNDEFINED> instruction: 0x07870257
    51c4:	c4170000 	ldrgt	r0, [r7], #-0
    51c8:	0500000e 	streq	r0, [r0, #-14]
    51cc:	002c0259 	eoreq	r0, ip, r9, asr r2
    51d0:	17000000 	strne	r0, [r0, -r0]
    51d4:	00000e6f 	andeq	r0, r0, pc, ror #28
    51d8:	0c025a05 	stceq	10, cr5, [r2], {5}
    51dc:	04000001 	streq	r0, [r0], #-1
    51e0:	000c8617 	andeq	r8, ip, r7, lsl r6
    51e4:	025b0500 	subseq	r0, fp, #0, 10
    51e8:	00000787 	andeq	r0, r0, r7, lsl #15
    51ec:	0f931708 	svceq	0x00931708
    51f0:	5c050000 	stcpl	0, cr0, [r5], {-0}
    51f4:	00019202 	andeq	r9, r1, r2, lsl #4
    51f8:	25172400 	ldrcs	r2, [r7, #-1024]	; 0x400
    51fc:	0500000c 	streq	r0, [r0, #-12]
    5200:	0025025d 	eoreq	r0, r5, sp, asr r2
    5204:	17480000 	strbne	r0, [r8, -r0]
    5208:	00000d7c 	andeq	r0, r0, ip, ror sp
    520c:	69025e05 	stmdbvs	r2, {r0, r2, r9, sl, fp, ip, lr}
    5210:	50000000 	andpl	r0, r0, r0
    5214:	000fa917 	andeq	sl, pc, r7, lsl r9	; <UNPREDICTABLE>
    5218:	025f0500 	subseq	r0, pc, #0, 10
    521c:	00000641 	andeq	r0, r0, r1, asr #12
    5220:	0d871758 	stceq	7, cr1, [r7, #352]	; 0x160
    5224:	60050000 	andvs	r0, r5, r0
    5228:	0000f402 	andeq	pc, r0, r2, lsl #8
    522c:	ae176800 	cdpge	8, 1, cr6, cr7, cr0, {0}
    5230:	0500000f 	streq	r0, [r0, #-15]
    5234:	00f40261 	rscseq	r0, r4, r1, ror #4
    5238:	17700000 	ldrbne	r0, [r0, -r0]!
    523c:	00000ae8 	andeq	r0, r0, r8, ror #21
    5240:	f4026205 	vst1.8	{d6-d9}, [r2], r5
    5244:	78000000 	stmdavc	r0, {}	; <UNPREDICTABLE>
    5248:	000f0017 	andeq	r0, pc, r7, lsl r0	; <UNPREDICTABLE>
    524c:	02630500 	rsbeq	r0, r3, #0, 10
    5250:	00000797 	muleq	r0, r7, r7
    5254:	0c7a1780 	ldcleq	7, cr1, [sl], #-512	; 0xfffffe00
    5258:	64050000 	strvs	r0, [r5], #-0
    525c:	0007a702 	andeq	sl, r7, r2, lsl #14
    5260:	92178800 	andsls	r8, r7, #0, 16
    5264:	0500000e 	streq	r0, [r0, #-14]
    5268:	00250265 	eoreq	r0, r5, r5, ror #4
    526c:	17a00000 	strne	r0, [r0, r0]!
    5270:	00000bd1 	ldrdeq	r0, [r0], -r1
    5274:	f4026605 	vst1.8	{d6-d8}, [r2], r5
    5278:	a4000000 	strge	r0, [r0], #-0
    527c:	000ad917 	andeq	sp, sl, r7, lsl r9
    5280:	02670500 	rsbeq	r0, r7, #0, 10
    5284:	000000f4 	strdeq	r0, [r0], -r4
    5288:	0bc017ac 	bleq	ff00b140 <__bss_end__+0xfeffe550>
    528c:	68050000 	stmdavs	r5, {}	; <UNPREDICTABLE>
    5290:	0000f402 	andeq	pc, r0, r2, lsl #8
    5294:	a017b400 	andsge	fp, r7, r0, lsl #8
    5298:	0500000a 	streq	r0, [r0, #-10]
    529c:	00f40269 	rscseq	r0, r4, r9, ror #4
    52a0:	17bc0000 	ldrne	r0, [ip, r0]!
    52a4:	00000aaf 	andeq	r0, r0, pc, lsr #21
    52a8:	f4026a05 	vst1.8	{d6-d7}, [r2], r5
    52ac:	c4000000 	strgt	r0, [r0], #-0
    52b0:	000d3917 	andeq	r3, sp, r7, lsl r9
    52b4:	026b0500 	rsbeq	r0, fp, #0, 10
    52b8:	00000025 	andeq	r0, r0, r5, lsr #32
    52bc:	120900cc 	andne	r0, r9, #204	; 0xcc
    52c0:	97000001 	strls	r0, [r0, -r1]
    52c4:	0a000007 	beq	52e8 <__code_start__-0x2d18>
    52c8:	000000cc 	andeq	r0, r0, ip, asr #1
    52cc:	12090019 	andne	r0, r9, #25
    52d0:	a7000001 	strge	r0, [r0, -r1]
    52d4:	0a000007 	beq	52f8 <__code_start__-0x2d08>
    52d8:	000000cc 	andeq	r0, r0, ip, asr #1
    52dc:	12090007 	andne	r0, r9, #7
    52e0:	b7000001 	strlt	r0, [r0, -r1]
    52e4:	0a000007 	beq	5308 <__code_start__-0x2cf8>
    52e8:	000000cc 	andeq	r0, r0, ip, asr #1
    52ec:	f01a0017 			; <UNDEFINED> instruction: 0xf01a0017
    52f0:	db027005 	blle	a130c <__bss_end__+0x9471c>
    52f4:	17000007 	strne	r0, [r0, -r7]
    52f8:	00000ce9 	andeq	r0, r0, r9, ror #25
    52fc:	db027305 	blle	a1f18 <__bss_end__+0x95328>
    5300:	00000007 	andeq	r0, r0, r7
    5304:	000ef717 	andeq	pc, lr, r7, lsl r7	; <UNPREDICTABLE>
    5308:	02740500 	rsbseq	r0, r4, #0, 10
    530c:	000007eb 	andeq	r0, r0, fp, ror #15
    5310:	db090078 	blle	2454f8 <__bss_end__+0x238908>
    5314:	eb000002 	bl	5324 <__code_start__-0x2cdc>
    5318:	0a000007 	beq	533c <__code_start__-0x2cc4>
    531c:	000000cc 	andeq	r0, r0, ip, asr #1
    5320:	2c09001d 	stccs	0, cr0, [r9], {29}
    5324:	fb000000 	blx	532e <__code_start__-0x2cd2>
    5328:	0a000007 	beq	534c <__code_start__-0x2cb4>
    532c:	000000cc 	andeq	r0, r0, ip, asr #1
    5330:	f01b001d 			; <UNDEFINED> instruction: 0xf01b001d
    5334:	1d025505 	cfstr32ne	mvfx5, [r2, #-20]	; 0xffffffec
    5338:	1c000008 	stcne	0, cr0, [r0], {8}
    533c:	00000dc0 	andeq	r0, r0, r0, asr #27
    5340:	86026c05 	strhi	r6, [r2], -r5, lsl #24
    5344:	1c000006 	stcne	0, cr0, [r0], {6}
    5348:	00000f53 	andeq	r0, r0, r3, asr pc
    534c:	b7027505 	strlt	r7, [r2, -r5, lsl #10]
    5350:	00000007 	andeq	r0, r0, r7
    5354:	00011209 	andeq	r1, r1, r9, lsl #4
    5358:	00082d00 	andeq	r2, r8, r0, lsl #26
    535c:	00cc0a00 	sbceq	r0, ip, r0, lsl #20
    5360:	00180000 	andseq	r0, r8, r0
    5364:	0008381d 	andeq	r3, r8, sp, lsl r8
    5368:	04291500 	strteq	r1, [r9], #-1280	; 0x500
    536c:	0e000000 	cdpeq	0, 0, cr0, cr0, cr0, {0}
    5370:	00082d04 	andeq	r2, r8, r4, lsl #26
    5374:	7c040e00 	stcvc	14, cr0, [r4], {-0}
    5378:	1d000001 	stcne	0, cr0, [r0, #-4]
    537c:	0000084f 	andeq	r0, r0, pc, asr #16
    5380:	00002515 	andeq	r2, r0, r5, lsl r5
    5384:	040e0000 	streq	r0, [lr], #-0
    5388:	00000855 	andeq	r0, r0, r5, asr r8
    538c:	0844040e 	stmdaeq	r4, {r1, r2, r3, sl}^
    5390:	f4090000 	vst4.8	{d0-d3}, [r9], r0
    5394:	6b000005 	blvs	53b0 <__code_start__-0x2c50>
    5398:	0a000008 	beq	53c0 <__code_start__-0x2c40>
    539c:	000000cc 	andeq	r0, r0, ip, asr #1
    53a0:	a61e0002 	ldrge	r0, [lr], -r2
    53a4:	0500000e 	streq	r0, [r0, #-14]
    53a8:	042902fd 	strteq	r0, [r9], #-765	; 0x2fd
    53ac:	9f1e0000 	svcls	0x001e0000
    53b0:	0500000e 	streq	r0, [r0, #-14]
    53b4:	042f02fe 	strteq	r0, [pc], #-766	; 53bc <__code_start__-0x2c44>
    53b8:	25140000 	ldrcs	r0, [r4, #-0]
    53bc:	92000000 	andls	r0, r0, #0
    53c0:	15000008 	strne	r0, [r0, #-8]
    53c4:	00000025 	andeq	r0, r0, r5, lsr #32
    53c8:	06a01f00 	strteq	r1, [r0], r0, lsl #30
    53cc:	1d060000 	stcne	0, cr0, [r6, #-0]
    53d0:	0000089d 	muleq	r0, sp, r8
    53d4:	0883040e 	stmeq	r3, {r1, r2, r3, sl}
    53d8:	25140000 	ldrcs	r0, [r4, #-0]
    53dc:	b2000000 	andlt	r0, r0, #0
    53e0:	15000008 	strne	r0, [r0, #-8]
    53e4:	0000058a 	andeq	r0, r0, sl, lsl #11
    53e8:	06dd1f00 	ldrbeq	r1, [sp], r0, lsl #30
    53ec:	22060000 	andcs	r0, r6, #0
    53f0:	000008bd 			; <UNDEFINED> instruction: 0x000008bd
    53f4:	08a3040e 	stmiaeq	r3!, {r1, r2, r3, sl}
    53f8:	01200000 	teqeq	r0, r0
    53fc:	00000054 	andeq	r0, r0, r4, asr r0
    5400:	09000c07 	stmdbeq	r0, {r0, r1, r2, sl, fp}
    5404:	c9210000 	stmdbgt	r1!, {}	; <UNPREDICTABLE>
    5408:	0000000a 	andeq	r0, r0, sl
    540c:	000ee621 	andeq	lr, lr, r1, lsr #12
    5410:	3e210100 	sufccs	f0, f1, f0
    5414:	0400000f 	streq	r0, [r0], #-15
    5418:	000b0a21 	andeq	r0, fp, r1, lsr #20
    541c:	a1210500 	teqge	r1, r0, lsl #10
    5420:	0600000c 	streq	r0, [r0], -ip
    5424:	000f5b21 	andeq	r5, pc, r1, lsr #22
    5428:	6a210700 	bvs	847030 <__bss_end__+0x83a440>
    542c:	0300000f 	movweq	r0, #15
    5430:	000f7921 	andeq	r7, pc, r1, lsr #18
    5434:	05000200 	streq	r0, [r0, #-512]	; 0x200
    5438:	00001038 	andeq	r1, r0, r8, lsr r0
    543c:	08c31507 	stmiaeq	r3, {r0, r1, r2, r8, sl, ip}^
    5440:	09220000 	stmdbeq	r2!, {}	; <UNPREDICTABLE>
    5444:	01000010 	tsteq	r0, r0, lsl r0
    5448:	0000331d 	andeq	r3, r0, sp, lsl r3
    544c:	20001c00 	andcs	r1, r0, r0, lsl #24
    5450:	10442220 	subne	r2, r4, r0, lsr #4
    5454:	1e010000 	cdpne	0, 0, cr0, cr1, cr0, {0}
    5458:	00000033 	andeq	r0, r0, r3, lsr r0
    545c:	20200028 	eorcs	r0, r0, r8, lsr #32
    5460:	00101322 	andseq	r1, r0, r2, lsr #6
    5464:	331f0100 	tstcc	pc, #0, 2
    5468:	34000000 	strcc	r0, [r0], #-0
    546c:	23202000 	teqcs	r0, #0
    5470:	00000fe4 	andeq	r0, r0, r4, ror #31
    5474:	00255601 	eoreq	r5, r5, r1, lsl #12
    5478:	9e2c0000 	cdpls	0, 2, cr0, cr12, cr0, {0}
    547c:	00340000 	eorseq	r0, r4, r0
    5480:	9c010000 	stcls	0, cr0, [r1], {-0}
    5484:	00000998 	muleq	r0, r8, r9
    5488:	6e697024 	cdpvs	0, 6, cr7, cr9, cr4, {1}
    548c:	2c560100 	ldfcse	f0, [r6], {-0}
    5490:	d2000000 	andle	r0, r0, #0
    5494:	25000011 	strcs	r0, [r0, #-17]
    5498:	00000fd8 	ldrdeq	r0, [r0], -r8
    549c:	002c5901 	eoreq	r5, ip, r1, lsl #18
    54a0:	120c0000 	andne	r0, ip, #0
    54a4:	6f260000 	svcvs	0x00260000
    54a8:	01006666 	tsteq	r0, r6, ror #12
    54ac:	00002c5a 	andeq	r2, r0, sl, asr ip
    54b0:	00124a00 	andseq	r4, r2, r0, lsl #20
    54b4:	9e482700 	cdpls	7, 4, cr2, cr8, cr0, {0}
    54b8:	0b5d0000 	bleq	17454c0 <__bss_end__+0x17388d0>
    54bc:	01280000 	teqeq	r8, r0
    54c0:	01f30b50 	mvnseq	r0, r0, asr fp
    54c4:	23253550 	teqcs	r5, #80, 10	; 0x14000000
    54c8:	818080b4 	strhhi	r8, [r0, r4]
    54cc:	29000002 	stmdbcs	r0, {r1}
    54d0:	00000ffe 	strdeq	r0, [r0], -lr
    54d4:	9e104f01 	cdpls	15, 1, cr4, cr0, cr1, {0}
    54d8:	001c0000 	andseq	r0, ip, r0
    54dc:	9c010000 	stcls	0, cr0, [r1], {-0}
    54e0:	000009e8 	andeq	r0, r0, r8, ror #19
    54e4:	6e697024 	cdpvs	0, 6, cr7, cr9, cr4, {1}
    54e8:	2c4f0100 	stfcse	f0, [pc], {-0}
    54ec:	5d000000 	stcpl	0, cr0, [r0, #-0]
    54f0:	24000012 	strcs	r0, [r0], #-18
    54f4:	4f010076 	svcmi	0x00010076
    54f8:	0000002c 	andeq	r0, r0, ip, lsr #32
    54fc:	00001297 	muleq	r0, r7, r2
    5500:	009e202a 	addseq	r2, lr, sl, lsr #32
    5504:	000a2300 	andeq	r2, sl, r0, lsl #6
    5508:	0009de00 	andeq	sp, r9, r0, lsl #28
    550c:	50012800 	andpl	r2, r1, r0, lsl #16
    5510:	5001f303 	andpl	pc, r1, r3, lsl #6
    5514:	9e282b00 	vmulls.f64	d2, d8, d0
    5518:	0a640000 	beq	1905520 <__bss_end__+0x18f8930>
    551c:	29000000 	stmdbcs	r0, {}	; <UNPREDICTABLE>
    5520:	0000101d 	andeq	r1, r0, sp, lsl r0
    5524:	9e004a01 	vmlals.f32	s8, s0, s2
    5528:	00100000 	andseq	r0, r0, r0
    552c:	9c010000 	stcls	0, cr0, [r1], {-0}
    5530:	00000a23 	andeq	r0, r0, r3, lsr #20
    5534:	6e697024 	cdpvs	0, 6, cr7, cr9, cr4, {1}
    5538:	2c4a0100 	stfcse	f0, [sl], {-0}
    553c:	d1000000 	mrsle	r0, (UNDEF: 0)
    5540:	27000012 	smladcs	r0, r2, r0, r0
    5544:	00009e0c 	andeq	r9, r0, ip, lsl #28
    5548:	00000ae0 	andeq	r0, r0, r0, ror #21
    554c:	03500128 	cmpeq	r0, #40, 2
    5550:	285001f3 	ldmdacs	r0, {r0, r1, r4, r5, r6, r7, r8}^
    5554:	30015101 	andcc	r5, r1, r1, lsl #2
    5558:	cb290000 	blgt	a45560 <__bss_end__+0xa38970>
    555c:	0100000f 	tsteq	r0, pc
    5560:	009ddc43 	addseq	sp, sp, r3, asr #24
    5564:	00002400 	andeq	r2, r0, r0, lsl #8
    5568:	649c0100 	ldrvs	r0, [ip], #256	; 0x100
    556c:	2400000a 	strcs	r0, [r0], #-10
    5570:	006e6970 	rsbeq	r6, lr, r0, ror r9
    5574:	002c4301 	eoreq	r4, ip, r1, lsl #6
    5578:	12f20000 	rscsne	r0, r2, #0
    557c:	f8270000 			; <UNDEFINED> instruction: 0xf8270000
    5580:	6800009d 	stmdavs	r0, {r0, r2, r3, r4, r7}
    5584:	2800000b 	stmdacs	r0, {r0, r1, r3}
    5588:	0c055001 	stceq	0, cr5, [r5], {1}
    558c:	20200028 	eorcs	r0, r0, r8, lsr #32
    5590:	05510128 	ldrbeq	r0, [r1, #-296]	; 0x128
    5594:	5001f331 	andpl	pc, r1, r1, lsr r3	; <UNPREDICTABLE>
    5598:	29000024 	stmdbcs	r0, {r2, r5}
    559c:	0000102c 	andeq	r1, r0, ip, lsr #32
    55a0:	9db83c01 	ldcls	12, cr3, [r8, #4]!
    55a4:	00240000 	eoreq	r0, r4, r0
    55a8:	9c010000 	stcls	0, cr0, [r1], {-0}
    55ac:	00000aa5 	andeq	r0, r0, r5, lsr #21
    55b0:	6e697024 	cdpvs	0, 6, cr7, cr9, cr4, {1}
    55b4:	2c3c0100 	ldfcss	f0, [ip], #-0
    55b8:	13000000 	movwne	r0, #0
    55bc:	27000013 	smladcs	r0, r3, r0, r0
    55c0:	00009dd4 	ldrdeq	r9, [r0], -r4
    55c4:	00000b68 	andeq	r0, r0, r8, ror #22
    55c8:	05500128 	ldrbeq	r0, [r0, #-296]	; 0x128
    55cc:	20001c0c 	andcs	r1, r0, ip, lsl #24
    55d0:	51012820 	tstpl	r1, r0, lsr #16
    55d4:	01f33105 	mvnseq	r3, r5, lsl #2
    55d8:	00002450 	andeq	r2, r0, r0, asr r4
    55dc:	000fee29 	andeq	lr, pc, r9, lsr #28
    55e0:	a8370100 	ldmdage	r7!, {r8}
    55e4:	1000009d 	mulne	r0, sp, r0
    55e8:	01000000 	mrseq	r0, (UNDEF: 0)
    55ec:	000ae09c 	muleq	sl, ip, r0
    55f0:	69702400 	ldmdbvs	r0!, {sl, sp}^
    55f4:	3701006e 	strcc	r0, [r1, -lr, rrx]
    55f8:	0000002c 	andeq	r0, r0, ip, lsr #32
    55fc:	00001334 	andeq	r1, r0, r4, lsr r3
    5600:	009db427 	addseq	fp, sp, r7, lsr #8
    5604:	000ae000 	andeq	lr, sl, r0
    5608:	50012800 	andpl	r2, r1, r0, lsl #16
    560c:	5001f303 	andpl	pc, r1, r3, lsl #6
    5610:	01510128 	cmpeq	r1, r8, lsr #2
    5614:	29000031 	stmdbcs	r0, {r0, r4, r5}
    5618:	00000cd7 	ldrdeq	r0, [r0], -r7
    561c:	9d402801 	stclls	8, cr2, [r0, #-4]
    5620:	00680000 	rsbeq	r0, r8, r0
    5624:	9c010000 	stcls	0, cr0, [r1], {-0}
    5628:	00000b5d 	andeq	r0, r0, sp, asr fp
    562c:	6e697024 	cdpvs	0, 6, cr7, cr9, cr4, {1}
    5630:	2c280100 	stfcss	f0, [r8], #-0
    5634:	55000000 	strpl	r0, [r0, #-0]
    5638:	2c000013 	stccs	0, cr0, [r0], {19}
    563c:	00000f23 	andeq	r0, r0, r3, lsr #30
    5640:	09002801 	stmdbeq	r0, {r0, fp, sp}
    5644:	13760000 	cmnne	r6, #0
    5648:	6f2d0000 	svcvs	0x002d0000
    564c:	01006666 	tsteq	r0, r6, ror #12
    5650:	00002c2d 	andeq	r2, r0, sp, lsr #24
    5654:	2d540100 	ldfcse	f0, [r4, #-0]
    5658:	2f010067 	svccs	0x00010067
    565c:	0000002c 	andeq	r0, r0, ip, lsr #32
    5660:	76265601 	strtvc	r5, [r6], -r1, lsl #12
    5664:	2c310100 	ldfcss	f0, [r1], #-0
    5668:	97000000 	strls	r0, [r0, -r0]
    566c:	2a000013 	bcs	56c0 <__code_start__-0x2940>
    5670:	00009d8c 	andeq	r9, r0, ip, lsl #27
    5674:	00000b5d 	andeq	r0, r0, sp, asr fp
    5678:	00000b4c 	andeq	r0, r0, ip, asr #22
    567c:	02500128 	subseq	r0, r0, #40, 2
    5680:	27000076 	smlsdxcs	r0, r6, r0, r0
    5684:	00009da0 	andeq	r9, r0, r0, lsr #27
    5688:	00000b68 	andeq	r0, r0, r8, ror #22
    568c:	02500128 	subseq	r0, r0, #40, 2
    5690:	00000076 	andeq	r0, r0, r6, ror r0
    5694:	000a402e 	andeq	r4, sl, lr, lsr #32
    5698:	000a4000 	andeq	r4, sl, r0
    569c:	2ea70600 	cdpcs	6, 10, cr0, cr7, cr0, {0}
    56a0:	0000097a 	andeq	r0, r0, sl, ror r9
    56a4:	0000097a 	andeq	r0, r0, sl, ror r9
    56a8:	Address 0x00000000000056a8 is out of bounds.


Disassembly of section .debug_abbrev:

00000000 <.debug_abbrev>:
       0:	25011101 	strcs	r1, [r1, #-257]	; 0x101
       4:	030b130e 	movweq	r1, #45838	; 0xb30e
       8:	110e1b0e 	tstne	lr, lr, lsl #22
       c:	10061201 	andne	r1, r6, r1, lsl #4
      10:	02000017 	andeq	r0, r0, #23
      14:	0b0b0024 	bleq	2c00ac <__bss_end__+0x2b34bc>
      18:	08030b3e 	stmdaeq	r3, {r1, r2, r3, r4, r5, r8, r9, fp}
      1c:	16030000 	strne	r0, [r3], -r0
      20:	3a0e0300 	bcc	380c28 <__bss_end__+0x374038>
      24:	490b3b0b 	stmdbmi	fp, {r0, r1, r3, r8, r9, fp, ip, sp}
      28:	04000013 	streq	r0, [r0], #-19
      2c:	0b0b0024 	bleq	2c00c4 <__bss_end__+0x2b34d4>
      30:	0e030b3e 	vmoveq.16	d3[0], r0
      34:	0f050000 	svceq	0x00050000
      38:	000b0b00 	andeq	r0, fp, r0, lsl #22
      3c:	000f0600 	andeq	r0, pc, r0, lsl #12
      40:	13490b0b 	movtne	r0, #39691	; 0x9b0b
      44:	26070000 	strcs	r0, [r7], -r0
      48:	00134900 	andseq	r4, r3, r0, lsl #18
      4c:	01010800 	tsteq	r1, r0, lsl #16
      50:	13011349 	movwne	r1, #4937	; 0x1349
      54:	21090000 	mrscs	r0, (UNDEF: 9)
      58:	2f134900 	svccs	0x00134900
      5c:	0a00000b 	beq	90 <__code_start__-0x7f70>
      60:	0e030113 	mcreq	1, 0, r0, cr3, cr3, {0}
      64:	0b3a0b0b 	bleq	e82c98 <__bss_end__+0xe760a8>
      68:	13010b3b 	movwne	r0, #6971	; 0x1b3b
      6c:	0d0b0000 	stceq	0, cr0, [fp, #-0]
      70:	3a0e0300 	bcc	380c78 <__bss_end__+0x374088>
      74:	490b3b0b 	stmdbmi	fp, {r0, r1, r3, r8, r9, fp, ip, sp}
      78:	000b3813 	andeq	r3, fp, r3, lsl r8
      7c:	000d0c00 	andeq	r0, sp, r0, lsl #24
      80:	0b3a0803 	bleq	e82094 <__bss_end__+0xe754a4>
      84:	13490b3b 	movtne	r0, #39739	; 0x9b3b
      88:	00000b38 	andeq	r0, r0, r8, lsr fp
      8c:	0000350d 	andeq	r3, r0, sp, lsl #10
      90:	01150e00 	tsteq	r5, r0, lsl #28
      94:	13011927 	movwne	r1, #6439	; 0x1927
      98:	050f0000 	streq	r0, [pc, #-0]	; a0 <__code_start__-0x7f60>
      9c:	00134900 	andseq	r4, r3, r0, lsl #18
      a0:	01151000 	tsteq	r5, r0
      a4:	13491927 	movtne	r1, #39207	; 0x9927
      a8:	00001301 	andeq	r1, r0, r1, lsl #6
      ac:	49003511 	stmdbmi	r0, {r0, r4, r8, sl, ip, sp}
      b0:	12000013 	andne	r0, r0, #19
      b4:	050b0113 	streq	r0, [fp, #-275]	; 0x113
      b8:	0b3b0b3a 	bleq	ec2da8 <__bss_end__+0xeb61b8>
      bc:	00001301 	andeq	r1, r0, r1, lsl #6
      c0:	03000d13 	movweq	r0, #3347	; 0xd13
      c4:	3b0b3a0e 	blcc	2ce904 <__bss_end__+0x2c1d14>
      c8:	3813490b 	ldmdacc	r3, {r0, r1, r3, r8, fp, lr}
      cc:	14000005 	strne	r0, [r0], #-5
      d0:	0e03000d 	cdpeq	0, 0, cr0, cr3, cr13, {0}
      d4:	0b3b0b3a 	bleq	ec2dc4 <__bss_end__+0xeb61d4>
      d8:	0b0b1349 	bleq	2c4e04 <__bss_end__+0x2b8214>
      dc:	0b0c0b0d 	bleq	302d18 <__bss_end__+0x2f6128>
      e0:	00000538 	andeq	r0, r0, r8, lsr r5
      e4:	49002115 	stmdbmi	r0, {r0, r2, r4, r8, sp}
      e8:	00052f13 	andeq	r2, r5, r3, lsl pc
      ec:	012e1600 	teqeq	lr, r0, lsl #12
      f0:	0b3a0e03 	bleq	e83904 <__bss_end__+0xe76d14>
      f4:	19270b3b 	stmdbne	r7!, {r0, r1, r3, r4, r5, r8, r9, fp}
      f8:	0b201349 	bleq	804e24 <__bss_end__+0x7f8234>
      fc:	00001301 	andeq	r1, r0, r1, lsl #6
     100:	03000517 	movweq	r0, #1303	; 0x517
     104:	3b0b3a08 	blcc	2ce92c <__bss_end__+0x2c1d3c>
     108:	0013490b 	andseq	r4, r3, fp, lsl #18
     10c:	00341800 	eorseq	r1, r4, r0, lsl #16
     110:	0b3a0e03 	bleq	e83924 <__bss_end__+0xe76d34>
     114:	13490b3b 	movtne	r0, #39739	; 0x9b3b
     118:	2e190000 	cdpcs	0, 1, cr0, cr9, cr0, {0}
     11c:	3a0e0301 	bcc	380d28 <__bss_end__+0x374138>
     120:	270b3b0b 	strcs	r3, [fp, -fp, lsl #22]
     124:	12011119 	andne	r1, r1, #1073741830	; 0x40000006
     128:	97184006 	ldrls	r4, [r8, -r6]
     12c:	13011942 	movwne	r1, #6466	; 0x1942
     130:	051a0000 	ldreq	r0, [sl, #-0]
     134:	3a080300 	bcc	200d3c <__bss_end__+0x1f414c>
     138:	490b3b0b 	stmdbmi	fp, {r0, r1, r3, r8, r9, fp, ip, sp}
     13c:	00170213 	andseq	r0, r7, r3, lsl r2
     140:	00341b00 	eorseq	r1, r4, r0, lsl #22
     144:	13490e03 	movtne	r0, #40451	; 0x9e03
     148:	18021934 	stmdane	r2, {r2, r4, r5, r8, fp, ip}
     14c:	1d1c0000 	ldcne	0, cr0, [ip, #-0]
     150:	11133101 	tstne	r3, r1, lsl #2
     154:	58061201 	stmdapl	r6, {r0, r9, ip}
     158:	010b590b 	tsteq	fp, fp, lsl #18
     15c:	1d000013 	stcne	0, cr0, [r0, #-76]	; 0xffffffb4
     160:	13310005 	teqne	r1, #5
     164:	00000b1c 	andeq	r0, r0, ip, lsl fp
     168:	3100051e 	tstcc	r0, lr, lsl r5
     16c:	00180213 	andseq	r0, r8, r3, lsl r2
     170:	010b1f00 	tsteq	fp, r0, lsl #30
     174:	06120111 			; <UNDEFINED> instruction: 0x06120111
     178:	34200000 	strtcc	r0, [r0], #-0
     17c:	02133100 	andseq	r3, r3, #0, 2
     180:	21000017 	tstcs	r0, r7, lsl r0
     184:	1331011d 	teqne	r1, #1073741831	; 0x40000007
     188:	06120111 			; <UNDEFINED> instruction: 0x06120111
     18c:	0b590b58 	bleq	1642ef4 <__bss_end__+0x1636304>
     190:	89220000 	stmdbhi	r2!, {}	; <UNPREDICTABLE>
     194:	11000182 	smlabbne	r0, r2, r1, r0
     198:	00133101 	andseq	r3, r3, r1, lsl #2
     19c:	82892300 	addhi	r2, r9, #0, 6
     1a0:	01110101 	tsteq	r1, r1, lsl #2
     1a4:	13011331 	movwne	r1, #4913	; 0x1331
     1a8:	8a240000 	bhi	9001b0 <__bss_end__+0x8f35c0>
     1ac:	02000182 	andeq	r0, r0, #-2147483616	; 0x80000020
     1b0:	18429118 	stmdane	r2, {r3, r4, r8, ip, pc}^
     1b4:	34250000 	strtcc	r0, [r5], #-0
     1b8:	3a080300 	bcc	200dc0 <__bss_end__+0x1f41d0>
     1bc:	490b3b0b 	stmdbmi	fp, {r0, r1, r3, r8, r9, fp, ip, sp}
     1c0:	26000013 			; <UNDEFINED> instruction: 0x26000013
     1c4:	0e030034 	mcreq	0, 0, r0, cr3, cr4, {1}
     1c8:	19341349 	ldmdbne	r4!, {r0, r3, r6, r8, r9, ip}
     1cc:	00000e1c 	andeq	r0, r0, ip, lsl lr
     1d0:	03012e27 	movweq	r2, #7719	; 0x1e27
     1d4:	3b0b3a0e 	blcc	2cea14 <__bss_end__+0x2c1e24>
     1d8:	4919270b 	ldmdbmi	r9, {r0, r1, r3, r8, r9, sl, sp}
     1dc:	12011113 	andne	r1, r1, #-1073741820	; 0xc0000004
     1e0:	97184006 	ldrls	r4, [r8, -r6]
     1e4:	13011942 	movwne	r1, #6466	; 0x1942
     1e8:	05280000 	streq	r0, [r8, #-0]!
     1ec:	02133100 	andseq	r3, r3, #0, 2
     1f0:	29000017 	stmdbcs	r0, {r0, r1, r2, r4}
     1f4:	13310034 	teqne	r1, #52	; 0x34
     1f8:	00001802 	andeq	r1, r0, r2, lsl #16
     1fc:	31011d2a 	tstcc	r1, sl, lsr #26
     200:	55015213 	strpl	r5, [r1, #-531]	; 0x213
     204:	590b5817 	stmdbpl	fp, {r0, r1, r2, r4, fp, ip, lr}
     208:	0013010b 	andseq	r0, r3, fp, lsl #2
     20c:	010b2b00 	tsteq	fp, r0, lsl #22
     210:	00001755 	andeq	r1, r0, r5, asr r7
     214:	03012e2c 	movweq	r2, #7724	; 0x1e2c
     218:	3b0b3a0e 	blcc	2cea58 <__bss_end__+0x2c1e68>
     21c:	2019270b 	andscs	r2, r9, fp, lsl #14
     220:	0013010b 	andseq	r0, r3, fp, lsl #2
     224:	00052d00 	andeq	r2, r5, r0, lsl #26
     228:	0b3a0e03 	bleq	e83a3c <__bss_end__+0xe76e4c>
     22c:	13490b3b 	movtne	r0, #39739	; 0x9b3b
     230:	2e2e0000 	cdpcs	0, 2, cr0, cr14, cr0, {0}
     234:	03193f00 	tsteq	r9, #0, 30
     238:	3b0b3a0e 	blcc	2cea78 <__bss_end__+0x2c1e88>
     23c:	4919270b 	ldmdbmi	r9, {r0, r1, r3, r8, r9, sl, sp}
     240:	12011113 	andne	r1, r1, #-1073741820	; 0xc0000004
     244:	97184006 	ldrls	r4, [r8, -r6]
     248:	00001942 	andeq	r1, r0, r2, asr #18
     24c:	3f012e2f 	svccc	0x00012e2f
     250:	3a0e0319 	bcc	380ebc <__bss_end__+0x3742cc>
     254:	270b3b0b 	strcs	r3, [fp, -fp, lsl #22]
     258:	12011119 	andne	r1, r1, #1073741830	; 0x40000006
     25c:	97184006 	ldrls	r4, [r8, -r6]
     260:	13011942 	movwne	r1, #6466	; 0x1942
     264:	34300000 	ldrtcc	r0, [r0], #-0
     268:	3a080300 	bcc	200e70 <__bss_end__+0x1f4280>
     26c:	490b3b0b 	stmdbmi	fp, {r0, r1, r3, r8, r9, fp, ip, sp}
     270:	00180213 	andseq	r0, r8, r3, lsl r2
     274:	00343100 	eorseq	r3, r4, r0, lsl #2
     278:	0b3a0e03 	bleq	e83a8c <__bss_end__+0xe76e9c>
     27c:	13490b3b 	movtne	r0, #39739	; 0x9b3b
     280:	00001802 	andeq	r1, r0, r2, lsl #16
     284:	03003432 	movweq	r3, #1074	; 0x432
     288:	3b0b3a0e 	blcc	2ceac8 <__bss_end__+0x2c1ed8>
     28c:	3f13490b 	svccc	0x0013490b
     290:	00193c19 	andseq	r3, r9, r9, lsl ip
     294:	002e3300 	eoreq	r3, lr, r0, lsl #6
     298:	0e03193f 	mcreq	9, 0, r1, cr3, cr15, {1}
     29c:	0b3b0b3a 	bleq	ec2f8c <__bss_end__+0xeb639c>
     2a0:	193c1927 	ldmdbne	ip!, {r0, r1, r2, r5, r8, fp, ip}
     2a4:	2e340000 	cdpcs	0, 3, cr0, cr4, cr0, {0}
     2a8:	03193f01 	tsteq	r9, #1, 30
     2ac:	3b0b3a0e 	blcc	2ceaec <__bss_end__+0x2c1efc>
     2b0:	4919270b 	ldmdbmi	r9, {r0, r1, r3, r8, r9, sl, sp}
     2b4:	01193c13 	tsteq	r9, r3, lsl ip
     2b8:	35000013 	strcc	r0, [r0, #-19]
     2bc:	00000018 	andeq	r0, r0, r8, lsl r0
     2c0:	3f012e36 	svccc	0x00012e36
     2c4:	3a0e0319 	bcc	380f30 <__bss_end__+0x374340>
     2c8:	270b3b0b 	strcs	r3, [fp, -fp, lsl #22]
     2cc:	3c134919 	ldccc	9, cr4, [r3], {25}
     2d0:	00000019 	andeq	r0, r0, r9, lsl r0
     2d4:	25011101 	strcs	r1, [r1, #-257]	; 0x101
     2d8:	030b130e 	movweq	r1, #45838	; 0xb30e
     2dc:	110e1b0e 	tstne	lr, lr, lsl #22
     2e0:	10061201 	andne	r1, r6, r1, lsl #4
     2e4:	02000017 	andeq	r0, r0, #23
     2e8:	0b0b0024 	bleq	2c0380 <__bss_end__+0x2b3790>
     2ec:	08030b3e 	stmdaeq	r3, {r1, r2, r3, r4, r5, r8, r9, fp}
     2f0:	24030000 	strcs	r0, [r3], #-0
     2f4:	3e0b0b00 	vmlacc.f64	d0, d11, d0
     2f8:	000e030b 	andeq	r0, lr, fp, lsl #6
     2fc:	00160400 	andseq	r0, r6, r0, lsl #8
     300:	0b3a0e03 	bleq	e83b14 <__bss_end__+0xe76f24>
     304:	13490b3b 	movtne	r0, #39739	; 0x9b3b
     308:	0f050000 	svceq	0x00050000
     30c:	000b0b00 	andeq	r0, fp, r0, lsl #22
     310:	000f0600 	andeq	r0, pc, r0, lsl #12
     314:	13490b0b 	movtne	r0, #39691	; 0x9b0b
     318:	26070000 	strcs	r0, [r7], -r0
     31c:	00134900 	andseq	r4, r3, r0, lsl #18
     320:	01150800 	tsteq	r5, r0, lsl #16
     324:	13011927 	movwne	r1, #6439	; 0x1927
     328:	05090000 	streq	r0, [r9, #-0]
     32c:	00134900 	andseq	r4, r3, r0, lsl #18
     330:	012e0a00 	teqeq	lr, r0, lsl #20
     334:	0b3a0e03 	bleq	e83b48 <__bss_end__+0xe76f58>
     338:	19270b3b 	stmdbne	r7!, {r0, r1, r3, r4, r5, r8, r9, fp}
     33c:	0b201349 	bleq	805068 <__bss_end__+0x7f8478>
     340:	00001301 	andeq	r1, r0, r1, lsl #6
     344:	0300340b 	movweq	r3, #1035	; 0x40b
     348:	3b0b3a08 	blcc	2ceb70 <__bss_end__+0x2c1f80>
     34c:	0013490b 	andseq	r4, r3, fp, lsl #18
     350:	00050c00 	andeq	r0, r5, r0, lsl #24
     354:	0b3a0803 	bleq	e82368 <__bss_end__+0xe75778>
     358:	13490b3b 	movtne	r0, #39739	; 0x9b3b
     35c:	2e0d0000 	cdpcs	0, 0, cr0, cr13, cr0, {0}
     360:	3a0e0301 	bcc	380f6c <__bss_end__+0x37437c>
     364:	270b3b0b 	strcs	r3, [fp, -fp, lsl #22]
     368:	010b2019 	tsteq	fp, r9, lsl r0
     36c:	0e000013 	mcreq	0, 0, r0, cr0, cr3, {0}
     370:	0e030034 	mcreq	0, 0, r0, cr3, cr4, {1}
     374:	0b3b0b3a 	bleq	ec3064 <__bss_end__+0xeb6474>
     378:	00001349 	andeq	r1, r0, r9, asr #6
     37c:	3f012e0f 	svccc	0x00012e0f
     380:	3a0e0319 	bcc	380fec <__bss_end__+0x3743fc>
     384:	270b3b0b 	strcs	r3, [fp, -fp, lsl #22]
     388:	12011119 	andne	r1, r1, #1073741830	; 0x40000006
     38c:	97184006 	ldrls	r4, [r8, -r6]
     390:	13011942 	movwne	r1, #6466	; 0x1942
     394:	05100000 	ldreq	r0, [r0, #-0]
     398:	3a0e0300 	bcc	380fa0 <__bss_end__+0x3743b0>
     39c:	490b3b0b 	stmdbmi	fp, {r0, r1, r3, r8, r9, fp, ip, sp}
     3a0:	00170213 	andseq	r0, r7, r3, lsl r2
     3a4:	00341100 	eorseq	r1, r4, r0, lsl #2
     3a8:	0b3a0e03 	bleq	e83bbc <__bss_end__+0xe76fcc>
     3ac:	13490b3b 	movtne	r0, #39739	; 0x9b3b
     3b0:	00001702 	andeq	r1, r0, r2, lsl #14
     3b4:	03003412 	movweq	r3, #1042	; 0x412
     3b8:	3413490e 	ldrcc	r4, [r3], #-2318	; 0x90e
     3bc:	00180219 	andseq	r0, r8, r9, lsl r2
     3c0:	011d1300 	tsteq	sp, r0, lsl #6
     3c4:	01111331 	tsteq	r1, r1, lsr r3
     3c8:	0b580612 	bleq	1601c18 <__bss_end__+0x15f5028>
     3cc:	13010b59 	movwne	r0, #7001	; 0x1b59
     3d0:	0b140000 	bleq	5003d8 <__bss_end__+0x4f37e8>
     3d4:	12011101 	andne	r1, r1, #1073741824	; 0x40000000
     3d8:	15000006 	strne	r0, [r0, #-6]
     3dc:	13310034 	teqne	r1, #52	; 0x34
     3e0:	00001702 	andeq	r1, r0, r2, lsl #14
     3e4:	31000516 	tstcc	r0, r6, lsl r5
     3e8:	00170213 	andseq	r0, r7, r3, lsl r2
     3ec:	00051700 	andeq	r1, r5, r0, lsl #14
     3f0:	051c1331 	ldreq	r1, [ip, #-817]	; 0x331
     3f4:	05180000 	ldreq	r0, [r8, #-0]
     3f8:	1c133100 	ldfnes	f3, [r3], {-0}
     3fc:	1900000b 	stmdbne	r0, {r0, r1, r3}
     400:	00018289 	andeq	r8, r1, r9, lsl #5
     404:	13310111 	teqne	r1, #1073741828	; 0x40000004
     408:	891a0000 	ldmdbhi	sl, {}	; <UNPREDICTABLE>
     40c:	11010182 	smlabbne	r1, r2, r1, r0
     410:	01133101 	tsteq	r3, r1, lsl #2
     414:	1b000013 	blne	468 <__code_start__-0x7b98>
     418:	0001828a 	andeq	r8, r1, sl, lsl #5
     41c:	42911802 	addsmi	r1, r1, #131072	; 0x20000
     420:	1c000018 	stcne	0, cr0, [r0], {24}
     424:	13490101 	movtne	r0, #37121	; 0x9101
     428:	00001301 	andeq	r1, r0, r1, lsl #6
     42c:	4900211d 	stmdbmi	r0, {r0, r2, r3, r4, r8, sp}
     430:	000b2f13 	andeq	r2, fp, r3, lsl pc
     434:	00341e00 	eorseq	r1, r4, r0, lsl #28
     438:	13490e03 	movtne	r0, #40451	; 0x9e03
     43c:	0e1c1934 	mrceq	9, 0, r1, cr12, cr4, {1}
     440:	051f0000 	ldreq	r0, [pc, #-0]	; 448 <__code_start__-0x7bb8>
     444:	3a080300 	bcc	20104c <__bss_end__+0x1f445c>
     448:	490b3b0b 	stmdbmi	fp, {r0, r1, r3, r8, r9, fp, ip, sp}
     44c:	00170213 	andseq	r0, r7, r3, lsl r2
     450:	00342000 	eorseq	r2, r4, r0
     454:	0b3a0e03 	bleq	e83c68 <__bss_end__+0xe77078>
     458:	13490b3b 	movtne	r0, #39739	; 0x9b3b
     45c:	00001802 	andeq	r1, r0, r2, lsl #16
     460:	31003421 	tstcc	r0, r1, lsr #8
     464:	22000013 	andcs	r0, r0, #19
     468:	1331011d 	teqne	r1, #1073741831	; 0x40000007
     46c:	06120111 			; <UNDEFINED> instruction: 0x06120111
     470:	0b590b58 	bleq	16431d8 <__bss_end__+0x16365e8>
     474:	34230000 	strtcc	r0, [r3], #-0
     478:	02133100 	andseq	r3, r3, #0, 2
     47c:	24000018 	strcs	r0, [r0], #-24
     480:	01018289 	smlabbeq	r1, r9, r2, r8
     484:	00000111 	andeq	r0, r0, r1, lsl r1
     488:	03003425 	movweq	r3, #1061	; 0x425
     48c:	3b0b3a08 	blcc	2cecb4 <__bss_end__+0x2c20c4>
     490:	1c13490b 	ldcne	9, cr4, [r3], {11}
     494:	26000005 	strcs	r0, [r0], -r5
     498:	0e030005 	cdpeq	0, 0, cr0, cr3, cr5, {0}
     49c:	0b3b0b3a 	bleq	ec318c <__bss_end__+0xeb659c>
     4a0:	18021349 	stmdane	r2, {r0, r3, r6, r8, r9, ip}
     4a4:	05270000 	streq	r0, [r7, #-0]!
     4a8:	02133100 	andseq	r3, r3, #0, 2
     4ac:	28000018 	stmdacs	r0, {r3, r4}
     4b0:	08030005 	stmdaeq	r3, {r0, r2}
     4b4:	0b3b0b3a 	bleq	ec31a4 <__bss_end__+0xeb65b4>
     4b8:	18021349 	stmdane	r2, {r0, r3, r6, r8, r9, ip}
     4bc:	05290000 	streq	r0, [r9, #-0]!
     4c0:	1c133100 	ldfnes	f3, [r3], {-0}
     4c4:	2a000006 	bcs	4e4 <__code_start__-0x7b1c>
     4c8:	0e030034 	mcreq	0, 0, r0, cr3, cr4, {1}
     4cc:	0b3b0b3a 	bleq	ec31bc <__bss_end__+0xeb65cc>
     4d0:	061c1349 	ldreq	r1, [ip], -r9, asr #6
     4d4:	1d2b0000 	stcne	0, cr0, [fp, #-0]
     4d8:	11133101 	tstne	r3, r1, lsl #2
     4dc:	58061201 	stmdapl	r6, {r0, r9, ip}
     4e0:	0005590b 	andeq	r5, r5, fp, lsl #18
     4e4:	012e2c00 	teqeq	lr, r0, lsl #24
     4e8:	0e03193f 	mcreq	9, 0, r1, cr3, cr15, {1}
     4ec:	053b0b3a 	ldreq	r0, [fp, #-2874]!	; 0xb3a
     4f0:	13491927 	movtne	r1, #39207	; 0x9927
     4f4:	06120111 			; <UNDEFINED> instruction: 0x06120111
     4f8:	42971840 	addsmi	r1, r7, #64, 16	; 0x400000
     4fc:	00130119 	andseq	r0, r3, r9, lsl r1
     500:	00052d00 	andeq	r2, r5, r0, lsl #26
     504:	0b3a0803 	bleq	e82518 <__bss_end__+0xe75928>
     508:	1349053b 	movtne	r0, #38203	; 0x953b
     50c:	00001702 	andeq	r1, r0, r2, lsl #14
     510:	0300342e 	movweq	r3, #1070	; 0x42e
     514:	3b0b3a0e 	blcc	2ced54 <__bss_end__+0x2c2164>
     518:	02134905 	andseq	r4, r3, #81920	; 0x14000
     51c:	2f000017 	svccs	0x00000017
     520:	01018289 	smlabbeq	r1, r9, r2, r8
     524:	13310111 	teqne	r1, #1073741828	; 0x40000004
     528:	34300000 	ldrtcc	r0, [r0], #-0
     52c:	3a0e0300 	bcc	381134 <__bss_end__+0x374544>
     530:	490b3b0b 	stmdbmi	fp, {r0, r1, r3, r8, r9, fp, ip, sp}
     534:	02193f13 	andseq	r3, r9, #19, 30	; 0x4c
     538:	31000018 	tstcc	r0, r8, lsl r0
     53c:	193f002e 	ldmdbne	pc!, {r1, r2, r3, r5}	; <UNPREDICTABLE>
     540:	0b3a0e03 	bleq	e83d54 <__bss_end__+0xe77164>
     544:	19270b3b 	stmdbne	r7!, {r0, r1, r3, r4, r5, r8, r9, fp}
     548:	0000193c 	andeq	r1, r0, ip, lsr r9
     54c:	3f012e32 	svccc	0x00012e32
     550:	3a0e0319 	bcc	3811bc <__bss_end__+0x3745cc>
     554:	270b3b0b 	strcs	r3, [fp, -fp, lsl #22]
     558:	3c134919 	ldccc	9, cr4, [r3], {25}
     55c:	00130119 	andseq	r0, r3, r9, lsl r1
     560:	00183300 	andseq	r3, r8, r0, lsl #6
     564:	01000000 	mrseq	r0, (UNDEF: 0)
     568:	0e250111 	mcreq	1, 1, r0, cr5, cr1, {0}
     56c:	0e030b13 	vmoveq.32	d3[0], r0
     570:	01110e1b 	tsteq	r1, fp, lsl lr
     574:	17100612 			; <UNDEFINED> instruction: 0x17100612
     578:	24020000 	strcs	r0, [r2], #-0
     57c:	3e0b0b00 	vmlacc.f64	d0, d11, d0
     580:	0008030b 	andeq	r0, r8, fp, lsl #6
     584:	00240300 	eoreq	r0, r4, r0, lsl #6
     588:	0b3e0b0b 	bleq	f831bc <__bss_end__+0xf765cc>
     58c:	00000e03 	andeq	r0, r0, r3, lsl #28
     590:	03001604 	movweq	r1, #1540	; 0x604
     594:	3b0b3a0e 	blcc	2cedd4 <__bss_end__+0x2c21e4>
     598:	0013490b 	andseq	r4, r3, fp, lsl #18
     59c:	000f0500 	andeq	r0, pc, r0, lsl #10
     5a0:	00000b0b 	andeq	r0, r0, fp, lsl #22
     5a4:	0b000f06 	bleq	41c4 <__code_start__-0x3e3c>
     5a8:	0013490b 	andseq	r4, r3, fp, lsl #18
     5ac:	00260700 	eoreq	r0, r6, r0, lsl #14
     5b0:	00001349 	andeq	r1, r0, r9, asr #6
     5b4:	27011508 	strcs	r1, [r1, -r8, lsl #10]
     5b8:	00130119 	andseq	r0, r3, r9, lsl r1
     5bc:	00050900 	andeq	r0, r5, r0, lsl #18
     5c0:	00001349 	andeq	r1, r0, r9, asr #6
     5c4:	0301130a 	movweq	r1, #4874	; 0x130a
     5c8:	3a0b0b0e 	bcc	2c3208 <__bss_end__+0x2b6618>
     5cc:	010b3b0b 	tsteq	fp, fp, lsl #22
     5d0:	0b000013 	bleq	624 <__code_start__-0x79dc>
     5d4:	0e03000d 	cdpeq	0, 0, cr0, cr3, cr13, {0}
     5d8:	0b3b0b3a 	bleq	ec32c8 <__bss_end__+0xeb66d8>
     5dc:	0b381349 	bleq	e05308 <__bss_end__+0xdf8718>
     5e0:	0d0c0000 	stceq	0, cr0, [ip, #-0]
     5e4:	3a080300 	bcc	2011ec <__bss_end__+0x1f45fc>
     5e8:	490b3b0b 	stmdbmi	fp, {r0, r1, r3, r8, r9, fp, ip, sp}
     5ec:	000b3813 	andeq	r3, fp, r3, lsl r8
     5f0:	00350d00 	eorseq	r0, r5, r0, lsl #26
     5f4:	150e0000 	strne	r0, [lr, #-0]
     5f8:	49192701 	ldmdbmi	r9, {r0, r8, r9, sl, sp}
     5fc:	00130113 	andseq	r0, r3, r3, lsl r1
     600:	00350f00 	eorseq	r0, r5, r0, lsl #30
     604:	00001349 	andeq	r1, r0, r9, asr #6
     608:	03012e10 	movweq	r2, #7696	; 0x1e10
     60c:	3b0b3a0e 	blcc	2cee4c <__bss_end__+0x2c225c>
     610:	4919270b 	ldmdbmi	r9, {r0, r1, r3, r8, r9, sl, sp}
     614:	010b2013 	tsteq	fp, r3, lsl r0
     618:	11000013 	tstne	r0, r3, lsl r0
     61c:	08030034 	stmdaeq	r3, {r2, r4, r5}
     620:	0b3b0b3a 	bleq	ec3310 <__bss_end__+0xeb6720>
     624:	00001349 	andeq	r1, r0, r9, asr #6
     628:	03000512 	movweq	r0, #1298	; 0x512
     62c:	3b0b3a0e 	blcc	2cee6c <__bss_end__+0x2c227c>
     630:	0013490b 	andseq	r4, r3, fp, lsl #18
     634:	00341300 	eorseq	r1, r4, r0, lsl #6
     638:	0b3a0e03 	bleq	e83e4c <__bss_end__+0xe7725c>
     63c:	13490b3b 	movtne	r0, #39739	; 0x9b3b
     640:	2e140000 	cdpcs	0, 1, cr0, cr4, cr0, {0}
     644:	3a0e0301 	bcc	381250 <__bss_end__+0x374660>
     648:	270b3b0b 	strcs	r3, [fp, -fp, lsl #22]
     64c:	12011119 	andne	r1, r1, #1073741830	; 0x40000006
     650:	97184006 	ldrls	r4, [r8, -r6]
     654:	13011942 	movwne	r1, #6466	; 0x1942
     658:	05150000 	ldreq	r0, [r5, #-0]
     65c:	3a0e0300 	bcc	381264 <__bss_end__+0x374674>
     660:	490b3b0b 	stmdbmi	fp, {r0, r1, r3, r8, r9, fp, ip, sp}
     664:	00170213 	andseq	r0, r7, r3, lsl r2
     668:	00051600 	andeq	r1, r5, r0, lsl #12
     66c:	0b3a0803 	bleq	e82680 <__bss_end__+0xe75a90>
     670:	13490b3b 	movtne	r0, #39739	; 0x9b3b
     674:	00001702 	andeq	r1, r0, r2, lsl #14
     678:	03003417 	movweq	r3, #1047	; 0x417
     67c:	3413490e 	ldrcc	r4, [r3], #-2318	; 0x90e
     680:	00180219 	andseq	r0, r8, r9, lsl r2
     684:	00341800 	eorseq	r1, r4, r0, lsl #16
     688:	0b3a0803 	bleq	e8269c <__bss_end__+0xe75aac>
     68c:	13490b3b 	movtne	r0, #39739	; 0x9b3b
     690:	00001702 	andeq	r1, r0, r2, lsl #14
     694:	31011d19 	tstcc	r1, r9, lsl sp
     698:	12011113 	andne	r1, r1, #-1073741820	; 0xc0000004
     69c:	590b5806 	stmdbpl	fp, {r1, r2, fp, ip, lr}
     6a0:	0013010b 	andseq	r0, r3, fp, lsl #2
     6a4:	010b1a00 	tsteq	fp, r0, lsl #20
     6a8:	06120111 			; <UNDEFINED> instruction: 0x06120111
     6ac:	341b0000 	ldrcc	r0, [fp], #-0
     6b0:	00133100 	andseq	r3, r3, r0, lsl #2
     6b4:	011d1c00 	tsteq	sp, r0, lsl #24
     6b8:	01111331 	tsteq	r1, r1, lsr r3
     6bc:	0b580612 	bleq	1601f0c <__bss_end__+0x15f531c>
     6c0:	00000b59 	andeq	r0, r0, r9, asr fp
     6c4:	3100341d 	tstcc	r0, sp, lsl r4
     6c8:	00170213 	andseq	r0, r7, r3, lsl r2
     6cc:	82891e00 	addhi	r1, r9, #0, 28
     6d0:	01110101 	tsteq	r1, r1, lsl #2
     6d4:	13011331 	movwne	r1, #4913	; 0x1331
     6d8:	8a1f0000 	bhi	7c06e0 <__bss_end__+0x7b3af0>
     6dc:	02000182 	andeq	r0, r0, #-2147483616	; 0x80000020
     6e0:	18429118 	stmdane	r2, {r3, r4, r8, ip, pc}^
     6e4:	89200000 	stmdbhi	r0!, {}	; <UNPREDICTABLE>
     6e8:	11000182 	smlabbne	r0, r2, r1, r0
     6ec:	00133101 	andseq	r3, r3, r1, lsl #2
     6f0:	82892100 	addhi	r2, r9, #0, 2
     6f4:	01110101 	tsteq	r1, r1, lsl #2
     6f8:	00001301 	andeq	r1, r0, r1, lsl #6
     6fc:	01828922 	orreq	r8, r2, r2, lsr #18
     700:	31011101 	tstcc	r1, r1, lsl #2
     704:	23000013 	movwcs	r0, #19
     708:	13490101 	movtne	r0, #37121	; 0x9101
     70c:	00001301 	andeq	r1, r0, r1, lsl #6
     710:	49002124 	stmdbmi	r0, {r2, r5, r8, sp}
     714:	000b2f13 	andeq	r2, fp, r3, lsl pc
     718:	00342500 	eorseq	r2, r4, r0, lsl #10
     71c:	13490e03 	movtne	r0, #40451	; 0x9e03
     720:	0e1c1934 	mrceq	9, 0, r1, cr12, cr4, {1}
     724:	05260000 	streq	r0, [r6, #-0]!
     728:	3a080300 	bcc	201330 <__bss_end__+0x1f4740>
     72c:	490b3b0b 	stmdbmi	fp, {r0, r1, r3, r8, r9, fp, ip, sp}
     730:	27000013 	smladcs	r0, r3, r0, r0
     734:	0e03012e 	adfeqsp	f0, f3, #0.5
     738:	0b3b0b3a 	bleq	ec3428 <__bss_end__+0xeb6838>
     73c:	13491927 	movtne	r1, #39207	; 0x9927
     740:	06120111 			; <UNDEFINED> instruction: 0x06120111
     744:	42971840 	addsmi	r1, r7, #64, 16	; 0x400000
     748:	00130119 	andseq	r0, r3, r9, lsl r1
     74c:	00342800 	eorseq	r2, r4, r0, lsl #16
     750:	0b3a0e03 	bleq	e83f64 <__bss_end__+0xe77374>
     754:	13490b3b 	movtne	r0, #39739	; 0x9b3b
     758:	00001802 	andeq	r1, r0, r2, lsl #16
     75c:	31000529 	tstcc	r0, r9, lsr #10
     760:	000b1c13 	andeq	r1, fp, r3, lsl ip
     764:	00052a00 	andeq	r2, r5, r0, lsl #20
     768:	17021331 	smladxne	r2, r1, r3, r1
     76c:	342b0000 	strtcc	r0, [fp], #-0
     770:	02133100 	andseq	r3, r3, #0, 2
     774:	2c000018 	stccs	0, cr0, [r0], {24}
     778:	13310034 	teqne	r1, #52	; 0x34
     77c:	00000b1c 	andeq	r0, r0, ip, lsl fp
     780:	3100052d 	tstcc	r0, sp, lsr #10
     784:	2e000013 	mcrcs	0, 0, r0, cr0, cr3, {0}
     788:	08030005 	stmdaeq	r3, {r0, r2}
     78c:	0b3b0b3a 	bleq	ec347c <__bss_end__+0xeb688c>
     790:	18021349 	stmdane	r2, {r0, r3, r6, r8, r9, ip}
     794:	2e2f0000 	cdpcs	0, 2, cr0, cr15, cr0, {0}
     798:	03193f01 	tsteq	r9, #1, 30
     79c:	3b0b3a0e 	blcc	2cefdc <__bss_end__+0x2c23ec>
     7a0:	4919270b 	ldmdbmi	r9, {r0, r1, r3, r8, r9, sl, sp}
     7a4:	12011113 	andne	r1, r1, #-1073741820	; 0xc0000004
     7a8:	97184006 	ldrls	r4, [r8, -r6]
     7ac:	13011942 	movwne	r1, #6466	; 0x1942
     7b0:	34300000 	ldrtcc	r0, [r0], #-0
     7b4:	3a0e0300 	bcc	3813bc <__bss_end__+0x3747cc>
     7b8:	490b3b0b 	stmdbmi	fp, {r0, r1, r3, r8, r9, fp, ip, sp}
     7bc:	3c193f13 	ldccc	15, cr3, [r9], {19}
     7c0:	31000019 	tstcc	r0, r9, lsl r0
     7c4:	193f012e 	ldmdbne	pc!, {r1, r2, r3, r5, r8}	; <UNPREDICTABLE>
     7c8:	0b3a0e03 	bleq	e83fdc <__bss_end__+0xe773ec>
     7cc:	19270b3b 	stmdbne	r7!, {r0, r1, r3, r4, r5, r8, r9, fp}
     7d0:	193c1349 	ldmdbne	ip!, {r0, r3, r6, r8, r9, ip}
     7d4:	00001301 	andeq	r1, r0, r1, lsl #6
     7d8:	00001832 	andeq	r1, r0, r2, lsr r8
     7dc:	002e3300 	eoreq	r3, lr, r0, lsl #6
     7e0:	0e03193f 	mcreq	9, 0, r1, cr3, cr15, {1}
     7e4:	0b3b0b3a 	bleq	ec34d4 <__bss_end__+0xeb68e4>
     7e8:	193c1927 	ldmdbne	ip!, {r0, r1, r2, r5, r8, fp, ip}
     7ec:	2e340000 	cdpcs	0, 3, cr0, cr4, cr0, {0}
     7f0:	03193f01 	tsteq	r9, #1, 30
     7f4:	3b0b3a0e 	blcc	2cf034 <__bss_end__+0x2c2444>
     7f8:	3c19270b 	ldccc	7, cr2, [r9], {11}
     7fc:	00130119 	andseq	r0, r3, r9, lsl r1
     800:	11010000 	mrsne	r0, (UNDEF: 1)
     804:	130e2501 	movwne	r2, #58625	; 0xe501
     808:	1b0e030b 	blne	38143c <__bss_end__+0x37484c>
     80c:	1201110e 	andne	r1, r1, #-2147483645	; 0x80000003
     810:	00171006 	andseq	r1, r7, r6
     814:	00240200 	eoreq	r0, r4, r0, lsl #4
     818:	0b3e0b0b 	bleq	f8344c <__bss_end__+0xf7685c>
     81c:	00000e03 	andeq	r0, r0, r3, lsl #28
     820:	0b002403 	bleq	9834 <va_printk+0x274>
     824:	030b3e0b 	movweq	r3, #48651	; 0xbe0b
     828:	04000008 	streq	r0, [r0], #-8
     82c:	0b0b000f 	bleq	2c0870 <__bss_end__+0x2b3c80>
     830:	0f050000 	svceq	0x00050000
     834:	490b0b00 	stmdbmi	fp, {r8, r9, fp}
     838:	06000013 			; <UNDEFINED> instruction: 0x06000013
     83c:	0e030016 	mcreq	0, 0, r0, cr3, cr6, {0}
     840:	0b3b0b3a 	bleq	ec3530 <__bss_end__+0xeb6940>
     844:	00001349 	andeq	r1, r0, r9, asr #6
     848:	3f012e07 	svccc	0x00012e07
     84c:	3a0e0319 	bcc	3814b8 <__bss_end__+0x3748c8>
     850:	270b3b0b 	strcs	r3, [fp, -fp, lsl #22]
     854:	11134919 	tstne	r3, r9, lsl r9
     858:	40061201 	andmi	r1, r6, r1, lsl #4
     85c:	19429718 	stmdbne	r2, {r3, r4, r8, r9, sl, ip, pc}^
     860:	05080000 	streq	r0, [r8, #-0]
     864:	3a080300 	bcc	20146c <__bss_end__+0x1f487c>
     868:	490b3b0b 	stmdbmi	fp, {r0, r1, r3, r8, r9, fp, ip, sp}
     86c:	00180213 	andseq	r0, r8, r3, lsl r2
     870:	00050900 	andeq	r0, r5, r0, lsl #18
     874:	0b3a0803 	bleq	e82888 <__bss_end__+0xe75c98>
     878:	13490b3b 	movtne	r0, #39739	; 0x9b3b
     87c:	00001702 	andeq	r1, r0, r2, lsl #14
     880:	0300340a 	movweq	r3, #1034	; 0x40a
     884:	3b0b3a08 	blcc	2cf0ac <__bss_end__+0x2c24bc>
     888:	0213490b 	andseq	r4, r3, #180224	; 0x2c000
     88c:	0b000017 	bleq	8f0 <__code_start__-0x7710>
     890:	08030034 	stmdaeq	r3, {r2, r4, r5}
     894:	0b3b0b3a 	bleq	ec3584 <__bss_end__+0xeb6994>
     898:	18021349 	stmdane	r2, {r0, r3, r6, r8, r9, ip}
     89c:	01000000 	mrseq	r0, (UNDEF: 0)
     8a0:	0e250111 	mcreq	1, 1, r0, cr5, cr1, {0}
     8a4:	0e030b13 	vmoveq.32	d3[0], r0
     8a8:	01110e1b 	tsteq	r1, fp, lsl lr
     8ac:	17100612 			; <UNDEFINED> instruction: 0x17100612
     8b0:	16020000 	strne	r0, [r2], -r0
     8b4:	3a0e0300 	bcc	3814bc <__bss_end__+0x3748cc>
     8b8:	490b3b0b 	stmdbmi	fp, {r0, r1, r3, r8, r9, fp, ip, sp}
     8bc:	03000013 	movweq	r0, #19
     8c0:	0e030113 	mcreq	1, 0, r0, cr3, cr3, {0}
     8c4:	0b3a0b0b 	bleq	e834f8 <__bss_end__+0xe76908>
     8c8:	13010b3b 	movwne	r0, #6971	; 0x1b3b
     8cc:	0d040000 	stceq	0, cr0, [r4, #-0]
     8d0:	490e0300 	stmdbmi	lr, {r8, r9}
     8d4:	340b3813 	strcc	r3, [fp], #-2067	; 0x813
     8d8:	05000019 	streq	r0, [r0, #-25]
     8dc:	0b0b000f 	bleq	2c0920 <__bss_end__+0x2b3d30>
     8e0:	24060000 	strcs	r0, [r6], #-0
     8e4:	3e0b0b00 	vmlacc.f64	d0, d11, d0
     8e8:	0008030b 	andeq	r0, r8, fp, lsl #6
     8ec:	00240700 	eoreq	r0, r4, r0, lsl #14
     8f0:	0b3e0b0b 	bleq	f83524 <__bss_end__+0xf76934>
     8f4:	00000e03 	andeq	r0, r0, r3, lsl #28
     8f8:	0b000f08 	bleq	4520 <__code_start__-0x3ae0>
     8fc:	0013490b 	andseq	r4, r3, fp, lsl #18
     900:	00260900 	eoreq	r0, r6, r0, lsl #18
     904:	00001349 	andeq	r1, r0, r9, asr #6
     908:	3f012e0a 	svccc	0x00012e0a
     90c:	3a0e0319 	bcc	381578 <__bss_end__+0x374988>
     910:	270b3b0b 	strcs	r3, [fp, -fp, lsl #22]
     914:	11134919 	tstne	r3, r9, lsl r9
     918:	40061201 	andmi	r1, r6, r1, lsl #4
     91c:	19429718 	stmdbne	r2, {r3, r4, r8, r9, sl, ip, pc}^
     920:	00001301 	andeq	r1, r0, r1, lsl #6
     924:	0300050b 	movweq	r0, #1291	; 0x50b
     928:	3b0b3a08 	blcc	2cf150 <__bss_end__+0x2c2560>
     92c:	0213490b 	andseq	r4, r3, #180224	; 0x2c000
     930:	0c000018 	stceq	0, cr0, [r0], {24}
     934:	00000018 	andeq	r0, r0, r8, lsl r0
     938:	0300340d 	movweq	r3, #1037	; 0x40d
     93c:	3b0b3a08 	blcc	2cf164 <__bss_end__+0x2c2574>
     940:	0213490b 	andseq	r4, r3, #180224	; 0x2c000
     944:	0e000018 	mcreq	0, 0, r0, cr0, cr8, {0}
     948:	0e030034 	mcreq	0, 0, r0, cr3, cr4, {1}
     94c:	0b3b0b3a 	bleq	ec363c <__bss_end__+0xeb6a4c>
     950:	18021349 	stmdane	r2, {r0, r3, r6, r8, r9, ip}
     954:	340f0000 	strcc	r0, [pc], #-0	; 95c <__code_start__-0x76a4>
     958:	3a080300 	bcc	201560 <__bss_end__+0x1f4970>
     95c:	490b3b0b 	stmdbmi	fp, {r0, r1, r3, r8, r9, fp, ip, sp}
     960:	00170213 	andseq	r0, r7, r3, lsl r2
     964:	82891000 	addhi	r1, r9, #0
     968:	01110101 	tsteq	r1, r1, lsl #2
     96c:	13011331 	movwne	r1, #4913	; 0x1331
     970:	8a110000 	bhi	440978 <__bss_end__+0x433d88>
     974:	02000182 	andeq	r0, r0, #-2147483616	; 0x80000020
     978:	18429118 	stmdane	r2, {r3, r4, r8, ip, pc}^
     97c:	89120000 	ldmdbhi	r2, {}	; <UNPREDICTABLE>
     980:	11010182 	smlabbne	r1, r2, r1, r0
     984:	13000001 	movwne	r0, #1
     988:	13490101 	movtne	r0, #37121	; 0x9101
     98c:	00001301 	andeq	r1, r0, r1, lsl #6
     990:	49002114 	stmdbmi	r0, {r2, r4, r8, sp}
     994:	00052f13 	andeq	r2, r5, r3, lsl pc
     998:	01151500 	tsteq	r5, r0, lsl #10
     99c:	13491927 	movtne	r1, #39207	; 0x9927
     9a0:	00001301 	andeq	r1, r0, r1, lsl #6
     9a4:	49000516 	stmdbmi	r0, {r1, r2, r4, r8, sl}
     9a8:	17000013 	smladne	r0, r3, r0, r0
     9ac:	0e030034 	mcreq	0, 0, r0, cr3, cr4, {1}
     9b0:	0b3b0b3a 	bleq	ec36a0 <__bss_end__+0xeb6ab0>
     9b4:	193f1349 	ldmdbne	pc!, {r0, r3, r6, r8, r9, ip}	; <UNPREDICTABLE>
     9b8:	0000193c 	andeq	r1, r0, ip, lsr r9
     9bc:	3f012e18 	svccc	0x00012e18
     9c0:	3a0e0319 	bcc	38162c <__bss_end__+0x374a3c>
     9c4:	270b3b0b 	strcs	r3, [fp, -fp, lsl #22]
     9c8:	3c134919 	ldccc	9, cr4, [r3], {25}
     9cc:	00000019 	andeq	r0, r0, r9, lsl r0
     9d0:	25011101 	strcs	r1, [r1, #-257]	; 0x101
     9d4:	030b130e 	movweq	r1, #45838	; 0xb30e
     9d8:	110e1b0e 	tstne	lr, lr, lsl #22
     9dc:	10061201 	andne	r1, r6, r1, lsl #4
     9e0:	02000017 	andeq	r0, r0, #23
     9e4:	0b0b0024 	bleq	2c0a7c <__bss_end__+0x2b3e8c>
     9e8:	08030b3e 	stmdaeq	r3, {r1, r2, r3, r4, r5, r8, r9, fp}
     9ec:	24030000 	strcs	r0, [r3], #-0
     9f0:	3e0b0b00 	vmlacc.f64	d0, d11, d0
     9f4:	000e030b 	andeq	r0, lr, fp, lsl #6
     9f8:	012e0400 	teqeq	lr, r0, lsl #8
     9fc:	0b3a0e03 	bleq	e84210 <__bss_end__+0xe77620>
     a00:	19270b3b 	stmdbne	r7!, {r0, r1, r3, r4, r5, r8, r9, fp}
     a04:	01111349 	tsteq	r1, r9, asr #6
     a08:	18400612 	stmdane	r0, {r1, r4, r9, sl}^
     a0c:	01194297 			; <UNDEFINED> instruction: 0x01194297
     a10:	05000013 	streq	r0, [r0, #-19]
     a14:	08030005 	stmdaeq	r3, {r0, r2}
     a18:	0b3b0b3a 	bleq	ec3708 <__bss_end__+0xeb6b18>
     a1c:	17021349 	strne	r1, [r2, -r9, asr #6]
     a20:	89060000 	stmdbhi	r6, {}	; <UNPREDICTABLE>
     a24:	11010182 	smlabbne	r1, r2, r1, r0
     a28:	00133101 	andseq	r3, r3, r1, lsl #2
     a2c:	828a0700 	addhi	r0, sl, #0, 14
     a30:	18020001 	stmdane	r2, {r0}
     a34:	00184291 	mulseq	r8, r1, r2
     a38:	002e0800 	eoreq	r0, lr, r0, lsl #16
     a3c:	0e03193f 	mcreq	9, 0, r1, cr3, cr15, {1}
     a40:	0b3b0b3a 	bleq	ec3730 <__bss_end__+0xeb6b40>
     a44:	01111927 	tsteq	r1, r7, lsr #18
     a48:	18400612 	stmdane	r0, {r1, r4, r9, sl}^
     a4c:	00194297 	mulseq	r9, r7, r2
     a50:	012e0900 	teqeq	lr, r0, lsl #18
     a54:	0e03193f 	mcreq	9, 0, r1, cr3, cr15, {1}
     a58:	0b3b0b3a 	bleq	ec3748 <__bss_end__+0xeb6b58>
     a5c:	01111927 	tsteq	r1, r7, lsr #18
     a60:	18400612 	stmdane	r0, {r1, r4, r9, sl}^
     a64:	01194297 			; <UNDEFINED> instruction: 0x01194297
     a68:	0a000013 	beq	abc <__code_start__-0x7544>
     a6c:	08030005 	stmdaeq	r3, {r0, r2}
     a70:	0b3b0b3a 	bleq	ec3760 <__bss_end__+0xeb6b70>
     a74:	18021349 	stmdane	r2, {r0, r3, r6, r8, r9, ip}
     a78:	150b0000 	strne	r0, [fp, #-0]
     a7c:	49192701 	ldmdbmi	r9, {r0, r8, r9, sl, sp}
     a80:	00130113 	andseq	r0, r3, r3, lsl r1
     a84:	00050c00 	andeq	r0, r5, r0, lsl #24
     a88:	00001349 	andeq	r1, r0, r9, asr #6
     a8c:	0b000f0d 	bleq	46c8 <__code_start__-0x3938>
     a90:	0013490b 	andseq	r4, r3, fp, lsl #18
     a94:	00340e00 	eorseq	r0, r4, r0, lsl #28
     a98:	0b3a0e03 	bleq	e842ac <__bss_end__+0xe776bc>
     a9c:	13490b3b 	movtne	r0, #39739	; 0x9b3b
     aa0:	1802193f 	stmdane	r2, {r0, r1, r2, r3, r4, r5, r8, fp, ip}
     aa4:	2e0f0000 	cdpcs	0, 0, cr0, cr15, cr0, {0}
     aa8:	03193f01 	tsteq	r9, #1, 30
     aac:	3b0b3a0e 	blcc	2cf2ec <__bss_end__+0x2c26fc>
     ab0:	3c19270b 	ldccc	7, cr2, [r9], {11}
     ab4:	00000019 	andeq	r0, r0, r9, lsl r0
     ab8:	25011101 	strcs	r1, [r1, #-257]	; 0x101
     abc:	030b130e 	movweq	r1, #45838	; 0xb30e
     ac0:	110e1b0e 	tstne	lr, lr, lsl #22
     ac4:	10061201 	andne	r1, r6, r1, lsl #4
     ac8:	02000017 	andeq	r0, r0, #23
     acc:	0b0b0024 	bleq	2c0b64 <__bss_end__+0x2b3f74>
     ad0:	08030b3e 	stmdaeq	r3, {r1, r2, r3, r4, r5, r8, r9, fp}
     ad4:	24030000 	strcs	r0, [r3], #-0
     ad8:	3e0b0b00 	vmlacc.f64	d0, d11, d0
     adc:	000e030b 	andeq	r0, lr, fp, lsl #6
     ae0:	000f0400 	andeq	r0, pc, r0, lsl #8
     ae4:	13490b0b 	movtne	r0, #39691	; 0x9b0b
     ae8:	26050000 	strcs	r0, [r5], -r0
     aec:	00134900 	andseq	r4, r3, r0, lsl #18
     af0:	012e0600 	teqeq	lr, r0, lsl #12
     af4:	0e03193f 	mcreq	9, 0, r1, cr3, cr15, {1}
     af8:	0b3b0b3a 	bleq	ec37e8 <__bss_end__+0xeb6bf8>
     afc:	13491927 	movtne	r1, #39207	; 0x9927
     b00:	06120111 			; <UNDEFINED> instruction: 0x06120111
     b04:	42961840 	addsmi	r1, r6, #64, 16	; 0x400000
     b08:	00130119 	andseq	r0, r3, r9, lsl r1
     b0c:	00050700 	andeq	r0, r5, r0, lsl #14
     b10:	0b3a0803 	bleq	e82b24 <__bss_end__+0xe75f34>
     b14:	13490b3b 	movtne	r0, #39739	; 0x9b3b
     b18:	00001702 	andeq	r1, r0, r2, lsl #14
     b1c:	27011508 	strcs	r1, [r1, -r8, lsl #10]
     b20:	01134919 	tsteq	r3, r9, lsl r9
     b24:	09000013 	stmdbeq	r0, {r0, r1, r4}
     b28:	13490005 	movtne	r0, #36869	; 0x9005
     b2c:	340a0000 	strcc	r0, [sl], #-0
     b30:	3a0e0300 	bcc	381738 <__bss_end__+0x374b48>
     b34:	490b3b0b 	stmdbmi	fp, {r0, r1, r3, r8, r9, fp, ip, sp}
     b38:	3c193f13 	ldccc	15, cr3, [r9], {19}
     b3c:	0b000019 	bleq	ba8 <__code_start__-0x7458>
     b40:	0e030034 	mcreq	0, 0, r0, cr3, cr4, {1}
     b44:	0b3b0b3a 	bleq	ec3834 <__bss_end__+0xeb6c44>
     b48:	193f1349 	ldmdbne	pc!, {r0, r3, r6, r8, r9, ip}	; <UNPREDICTABLE>
     b4c:	00001802 	andeq	r1, r0, r2, lsl #16
     b50:	01110100 	tsteq	r1, r0, lsl #2
     b54:	0b130e25 	bleq	4c43f0 <__bss_end__+0x4b7800>
     b58:	0e1b0e03 	cdpeq	14, 1, cr0, cr11, cr3, {0}
     b5c:	06120111 			; <UNDEFINED> instruction: 0x06120111
     b60:	00001710 	andeq	r1, r0, r0, lsl r7
     b64:	0b002402 	bleq	9b74 <dsb>
     b68:	030b3e0b 	movweq	r3, #48651	; 0xbe0b
     b6c:	03000008 	movweq	r0, #8
     b70:	0b0b0024 	bleq	2c0c08 <__bss_end__+0x2b4018>
     b74:	0e030b3e 	vmoveq.16	d3[0], r0
     b78:	0f040000 	svceq	0x00040000
     b7c:	000b0b00 	andeq	r0, fp, r0, lsl #22
     b80:	000f0500 	andeq	r0, pc, r0, lsl #10
     b84:	13490b0b 	movtne	r0, #39691	; 0x9b0b
     b88:	26060000 	strcs	r0, [r6], -r0
     b8c:	00134900 	andseq	r4, r3, r0, lsl #18
     b90:	00160700 	andseq	r0, r6, r0, lsl #14
     b94:	0b3a0e03 	bleq	e843a8 <__bss_end__+0xe777b8>
     b98:	13490b3b 	movtne	r0, #39739	; 0x9b3b
     b9c:	13080000 	movwne	r0, #32768	; 0x8000
     ba0:	0b0e0301 	bleq	3817ac <__bss_end__+0x374bbc>
     ba4:	3b0b3a0b 	blcc	2cf3d8 <__bss_end__+0x2c27e8>
     ba8:	0013010b 	andseq	r0, r3, fp, lsl #2
     bac:	000d0900 	andeq	r0, sp, r0, lsl #18
     bb0:	13490e03 	movtne	r0, #40451	; 0x9e03
     bb4:	19340b38 	ldmdbne	r4!, {r3, r4, r5, r8, r9, fp}
     bb8:	2e0a0000 	cdpcs	0, 0, cr0, cr10, cr0, {0}
     bbc:	3a0e0301 	bcc	3817c8 <__bss_end__+0x374bd8>
     bc0:	270b3b0b 	strcs	r3, [fp, -fp, lsl #22]
     bc4:	11134919 	tstne	r3, r9, lsl r9
     bc8:	40061201 	andmi	r1, r6, r1, lsl #4
     bcc:	19429718 	stmdbne	r2, {r3, r4, r8, r9, sl, ip, pc}^
     bd0:	00001301 	andeq	r1, r0, r1, lsl #6
     bd4:	0300050b 	movweq	r0, #1291	; 0x50b
     bd8:	3b0b3a08 	blcc	2cf400 <__bss_end__+0x2c2810>
     bdc:	0213490b 	andseq	r4, r3, #180224	; 0x2c000
     be0:	0c000017 	stceq	0, cr0, [r0], {23}
     be4:	0803012e 	stmdaeq	r3, {r1, r2, r3, r5, r8}
     be8:	0b3b0b3a 	bleq	ec38d8 <__bss_end__+0xeb6ce8>
     bec:	13491927 	movtne	r1, #39207	; 0x9927
     bf0:	06120111 			; <UNDEFINED> instruction: 0x06120111
     bf4:	42971840 	addsmi	r1, r7, #64, 16	; 0x400000
     bf8:	00130119 	andseq	r0, r3, r9, lsl r1
     bfc:	00050d00 	andeq	r0, r5, r0, lsl #26
     c00:	0b3a0e03 	bleq	e84414 <__bss_end__+0xe77824>
     c04:	13490b3b 	movtne	r0, #39739	; 0x9b3b
     c08:	00001702 	andeq	r1, r0, r2, lsl #14
     c0c:	0300050e 	movweq	r0, #1294	; 0x50e
     c10:	3b0b3a0e 	blcc	2cf450 <__bss_end__+0x2c2860>
     c14:	0213490b 	andseq	r4, r3, #180224	; 0x2c000
     c18:	0f000018 	svceq	0x00000018
     c1c:	08030034 	stmdaeq	r3, {r2, r4, r5}
     c20:	0b3b0b3a 	bleq	ec3910 <__bss_end__+0xeb6d20>
     c24:	18021349 	stmdane	r2, {r0, r3, r6, r8, r9, ip}
     c28:	34100000 	ldrcc	r0, [r0], #-0
     c2c:	3a080300 	bcc	201834 <__bss_end__+0x1f4c44>
     c30:	490b3b0b 	stmdbmi	fp, {r0, r1, r3, r8, r9, fp, ip, sp}
     c34:	00170213 	andseq	r0, r7, r3, lsl r2
     c38:	00341100 	eorseq	r1, r4, r0, lsl #2
     c3c:	13490e03 	movtne	r0, #40451	; 0x9e03
     c40:	18021934 	stmdane	r2, {r2, r4, r5, r8, fp, ip}
     c44:	0b120000 	bleq	480c4c <__bss_end__+0x47405c>
     c48:	12011101 	andne	r1, r1, #1073741824	; 0x40000000
     c4c:	00130106 	andseq	r0, r3, r6, lsl #2
     c50:	00341300 	eorseq	r1, r4, r0, lsl #6
     c54:	0b3a0e03 	bleq	e84468 <__bss_end__+0xe77878>
     c58:	13490b3b 	movtne	r0, #39739	; 0x9b3b
     c5c:	00001702 	andeq	r1, r0, r2, lsl #14
     c60:	01828914 	orreq	r8, r2, r4, lsl r9
     c64:	31011100 	mrscc	r1, (UNDEF: 17)
     c68:	15000013 	strne	r0, [r0, #-19]
     c6c:	01018289 	smlabbeq	r1, r9, r2, r8
     c70:	13310111 	teqne	r1, #1073741828	; 0x40000004
     c74:	00001301 	andeq	r1, r0, r1, lsl #6
     c78:	01828a16 	orreq	r8, r2, r6, lsl sl
     c7c:	91180200 	tstls	r8, r0, lsl #4
     c80:	00001842 	andeq	r1, r0, r2, asr #16
     c84:	01828917 	orreq	r8, r2, r7, lsl r9
     c88:	31011101 	tstcc	r1, r1, lsl #2
     c8c:	18000013 	stmdane	r0, {r0, r1, r4}
     c90:	13490101 	movtne	r0, #37121	; 0x9101
     c94:	00001301 	andeq	r1, r0, r1, lsl #6
     c98:	49002119 	stmdbmi	r0, {r0, r3, r4, r8, sp}
     c9c:	000b2f13 	andeq	r2, fp, r3, lsl pc
     ca0:	012e1a00 	teqeq	lr, r0, lsl #20
     ca4:	0e03193f 	mcreq	9, 0, r1, cr3, cr15, {1}
     ca8:	0b3b0b3a 	bleq	ec3998 <__bss_end__+0xeb6da8>
     cac:	01111927 	tsteq	r1, r7, lsr #18
     cb0:	18400612 	stmdane	r0, {r1, r4, r9, sl}^
     cb4:	01194297 			; <UNDEFINED> instruction: 0x01194297
     cb8:	1b000013 	blne	d0c <__code_start__-0x72f4>
     cbc:	19270115 	stmdbne	r7!, {r0, r2, r4, r8}
     cc0:	13011349 	movwne	r1, #4937	; 0x1349
     cc4:	051c0000 	ldreq	r0, [ip, #-0]
     cc8:	00134900 	andseq	r4, r3, r0, lsl #18
     ccc:	012e1d00 	teqeq	lr, r0, lsl #26
     cd0:	0e03193f 	mcreq	9, 0, r1, cr3, cr15, {1}
     cd4:	0b3b0b3a 	bleq	ec39c4 <__bss_end__+0xeb6dd4>
     cd8:	13491927 	movtne	r1, #39207	; 0x9927
     cdc:	06120111 			; <UNDEFINED> instruction: 0x06120111
     ce0:	42971840 	addsmi	r1, r7, #64, 16	; 0x400000
     ce4:	00130119 	andseq	r0, r3, r9, lsl r1
     ce8:	010b1e00 	tsteq	fp, r0, lsl #28
     cec:	06120111 			; <UNDEFINED> instruction: 0x06120111
     cf0:	891f0000 	ldmdbhi	pc, {}	; <UNPREDICTABLE>
     cf4:	11010182 	smlabbne	r1, r2, r1, r0
     cf8:	00130101 	andseq	r0, r3, r1, lsl #2
     cfc:	00342000 	eorseq	r2, r4, r0
     d00:	0b3a0e03 	bleq	e84514 <__bss_end__+0xe77924>
     d04:	13490b3b 	movtne	r0, #39739	; 0x9b3b
     d08:	193c193f 	ldmdbne	ip!, {r0, r1, r2, r3, r4, r5, r8, fp, ip}
     d0c:	2e210000 	cdpcs	0, 2, cr0, cr1, cr0, {0}
     d10:	03193f00 	tsteq	r9, #0, 30
     d14:	3b0b3a0e 	blcc	2cf554 <__bss_end__+0x2c2964>
     d18:	3c19270b 	ldccc	7, cr2, [r9], {11}
     d1c:	22000019 	andcs	r0, r0, #25
     d20:	193f012e 	ldmdbne	pc!, {r1, r2, r3, r5, r8}	; <UNPREDICTABLE>
     d24:	0b3a0e03 	bleq	e84538 <__bss_end__+0xe77948>
     d28:	19270b3b 	stmdbne	r7!, {r0, r1, r3, r4, r5, r8, r9, fp}
     d2c:	193c1349 	ldmdbne	ip!, {r0, r3, r6, r8, r9, ip}
     d30:	00001301 	andeq	r1, r0, r1, lsl #6
     d34:	00001823 	andeq	r1, r0, r3, lsr #16
     d38:	11010000 	mrsne	r0, (UNDEF: 1)
     d3c:	130e2501 	movwne	r2, #58625	; 0xe501
     d40:	1b0e030b 	blne	381974 <__bss_end__+0x374d84>
     d44:	1201110e 	andne	r1, r1, #-2147483645	; 0x80000003
     d48:	00171006 	andseq	r1, r7, r6
     d4c:	00240200 	eoreq	r0, r4, r0, lsl #4
     d50:	0b3e0b0b 	bleq	f83984 <__bss_end__+0xf76d94>
     d54:	00000803 	andeq	r0, r0, r3, lsl #16
     d58:	0b002403 	bleq	9d6c <gpio_set_function+0x2c>
     d5c:	030b3e0b 	movweq	r3, #48651	; 0xbe0b
     d60:	0400000e 	streq	r0, [r0], #-14
     d64:	193f012e 	ldmdbne	pc!, {r1, r2, r3, r5, r8}	; <UNPREDICTABLE>
     d68:	0b3a0e03 	bleq	e8457c <__bss_end__+0xe7798c>
     d6c:	19270b3b 	stmdbne	r7!, {r0, r1, r3, r4, r5, r8, r9, fp}
     d70:	06120111 			; <UNDEFINED> instruction: 0x06120111
     d74:	42971840 	addsmi	r1, r7, #64, 16	; 0x400000
     d78:	00130119 	andseq	r0, r3, r9, lsl r1
     d7c:	00340500 	eorseq	r0, r4, r0, lsl #10
     d80:	0b3a0803 	bleq	e82d94 <__bss_end__+0xe761a4>
     d84:	13490b3b 	movtne	r0, #39739	; 0x9b3b
     d88:	00001702 	andeq	r1, r0, r2, lsl #14
     d8c:	3f012e06 	svccc	0x00012e06
     d90:	3a0e0319 	bcc	3819fc <__bss_end__+0x374e0c>
     d94:	270b3b0b 	strcs	r3, [fp, -fp, lsl #22]
     d98:	12011119 	andne	r1, r1, #1073741830	; 0x40000006
     d9c:	97184006 	ldrls	r4, [r8, -r6]
     da0:	00001942 	andeq	r1, r0, r2, asr #18
     da4:	01110100 	tsteq	r1, r0, lsl #2
     da8:	0b130e25 	bleq	4c4644 <__bss_end__+0x4b7a54>
     dac:	0e1b0e03 	cdpeq	14, 1, cr0, cr11, cr3, {0}
     db0:	06120111 			; <UNDEFINED> instruction: 0x06120111
     db4:	00001710 	andeq	r1, r0, r0, lsl r7
     db8:	0b002402 	bleq	9dc8 <gpio_set_on+0x10>
     dbc:	030b3e0b 	movweq	r3, #48651	; 0xbe0b
     dc0:	03000008 	movweq	r0, #8
     dc4:	0b0b0024 	bleq	2c0e5c <__bss_end__+0x2b426c>
     dc8:	0e030b3e 	vmoveq.16	d3[0], r0
     dcc:	0f040000 	svceq	0x00040000
     dd0:	490b0b00 	stmdbmi	fp, {r8, r9, fp}
     dd4:	05000013 	streq	r0, [r0, #-19]
     dd8:	13490026 	movtne	r0, #36902	; 0x9026
     ddc:	2e060000 	cdpcs	0, 0, cr0, cr6, cr0, {0}
     de0:	03193f01 	tsteq	r9, #1, 30
     de4:	3b0b3a0e 	blcc	2cf624 <__bss_end__+0x2c2a34>
     de8:	1119270b 	tstne	r9, fp, lsl #14
     dec:	40061201 	andmi	r1, r6, r1, lsl #4
     df0:	19429718 	stmdbne	r2, {r3, r4, r8, r9, sl, ip, pc}^
     df4:	00001301 	andeq	r1, r0, r1, lsl #6
     df8:	01828907 	orreq	r8, r2, r7, lsl #18
     dfc:	31011100 	mrscc	r1, (UNDEF: 17)
     e00:	08000013 	stmdaeq	r0, {r0, r1, r4}
     e04:	01018289 	smlabbeq	r1, r9, r2, r8
     e08:	13010111 	movwne	r0, #4369	; 0x1111
     e0c:	8a090000 	bhi	240e14 <__bss_end__+0x234224>
     e10:	02000182 	andeq	r0, r0, #-2147483616	; 0x80000020
     e14:	18429118 	stmdane	r2, {r3, r4, r8, ip, pc}^
     e18:	890a0000 	stmdbhi	sl, {}	; <UNPREDICTABLE>
     e1c:	11010182 	smlabbne	r1, r2, r1, r0
     e20:	01133101 	tsteq	r3, r1, lsl #2
     e24:	0b000013 	bleq	e78 <__code_start__-0x7188>
     e28:	19270115 	stmdbne	r7!, {r0, r2, r4, r8}
     e2c:	13011349 	movwne	r1, #4937	; 0x1349
     e30:	050c0000 	streq	r0, [ip, #-0]
     e34:	00134900 	andseq	r4, r3, r0, lsl #18
     e38:	00340d00 	eorseq	r0, r4, r0, lsl #26
     e3c:	0b3a0e03 	bleq	e84650 <__bss_end__+0xe77a60>
     e40:	13490b3b 	movtne	r0, #39739	; 0x9b3b
     e44:	193c193f 	ldmdbne	ip!, {r0, r1, r2, r3, r4, r5, r8, fp, ip}
     e48:	2e0e0000 	cdpcs	0, 0, cr0, cr14, cr0, {0}
     e4c:	03193f00 	tsteq	r9, #0, 30
     e50:	3b0b3a0e 	blcc	2cf690 <__bss_end__+0x2c2aa0>
     e54:	3c19270b 	ldccc	7, cr2, [r9], {11}
     e58:	0f000019 	svceq	0x00000019
     e5c:	193f012e 	ldmdbne	pc!, {r1, r2, r3, r5, r8}	; <UNPREDICTABLE>
     e60:	0b3a0e03 	bleq	e84674 <__bss_end__+0xe77a84>
     e64:	19270b3b 	stmdbne	r7!, {r0, r1, r3, r4, r5, r8, r9, fp}
     e68:	1301193c 	movwne	r1, #6460	; 0x193c
     e6c:	01000000 	mrseq	r0, (UNDEF: 0)
     e70:	0e250111 	mcreq	1, 1, r0, cr5, cr1, {0}
     e74:	0e030b13 	vmoveq.32	d3[0], r0
     e78:	01110e1b 	tsteq	r1, fp, lsl lr
     e7c:	17100612 			; <UNDEFINED> instruction: 0x17100612
     e80:	24020000 	strcs	r0, [r2], #-0
     e84:	3e0b0b00 	vmlacc.f64	d0, d11, d0
     e88:	0008030b 	andeq	r0, r8, fp, lsl #6
     e8c:	00240300 	eoreq	r0, r4, r0, lsl #6
     e90:	0b3e0b0b 	bleq	f83ac4 <__bss_end__+0xf76ed4>
     e94:	00000e03 	andeq	r0, r0, r3, lsl #28
     e98:	3f012e04 	svccc	0x00012e04
     e9c:	3a0e0319 	bcc	381b08 <__bss_end__+0x374f18>
     ea0:	110b3b0b 	tstne	fp, fp, lsl #22
     ea4:	40061201 	andmi	r1, r6, r1, lsl #4
     ea8:	19429718 	stmdbne	r2, {r3, r4, r8, r9, sl, ip, pc}^
     eac:	00001301 	andeq	r1, r0, r1, lsl #6
     eb0:	03003405 	movweq	r3, #1029	; 0x405
     eb4:	3b0b3a0e 	blcc	2cf6f4 <__bss_end__+0x2c2b04>
     eb8:	3f13490b 	svccc	0x0013490b
     ebc:	00193c19 	andseq	r3, r9, r9, lsl ip
     ec0:	002e0600 	eoreq	r0, lr, r0, lsl #12
     ec4:	0e03193f 	mcreq	9, 0, r1, cr3, cr15, {1}
     ec8:	0b3b0b3a 	bleq	ec3bb8 <__bss_end__+0xeb6fc8>
     ecc:	193c1927 	ldmdbne	ip!, {r0, r1, r2, r5, r8, fp, ip}
     ed0:	34070000 	strcc	r0, [r7], #-0
     ed4:	3a080300 	bcc	201adc <__bss_end__+0x1f4eec>
     ed8:	490b3b0b 	stmdbmi	fp, {r0, r1, r3, r8, r9, fp, ip, sp}
     edc:	00170213 	andseq	r0, r7, r3, lsl r2
     ee0:	00340800 	eorseq	r0, r4, r0, lsl #16
     ee4:	0b3a0e03 	bleq	e846f8 <__bss_end__+0xe77b08>
     ee8:	13490b3b 	movtne	r0, #39739	; 0x9b3b
     eec:	89090000 	stmdbhi	r9, {}	; <UNPREDICTABLE>
     ef0:	11000182 	smlabbne	r0, r2, r1, r0
     ef4:	00133101 	andseq	r3, r3, r1, lsl #2
     ef8:	000f0a00 	andeq	r0, pc, r0, lsl #20
     efc:	13490b0b 	movtne	r0, #39691	; 0x9b0b
     f00:	01000000 	mrseq	r0, (UNDEF: 0)
     f04:	0e250111 	mcreq	1, 1, r0, cr5, cr1, {0}
     f08:	0e030b13 	vmoveq.32	d3[0], r0
     f0c:	01110e1b 	tsteq	r1, fp, lsl lr
     f10:	17100612 			; <UNDEFINED> instruction: 0x17100612
     f14:	24020000 	strcs	r0, [r2], #-0
     f18:	3e0b0b00 	vmlacc.f64	d0, d11, d0
     f1c:	0008030b 	andeq	r0, r8, fp, lsl #6
     f20:	00240300 	eoreq	r0, r4, r0, lsl #6
     f24:	0b3e0b0b 	bleq	f83b58 <__bss_end__+0xf76f68>
     f28:	00000e03 	andeq	r0, r0, r3, lsl #28
     f2c:	0b000f04 	bleq	4b44 <__code_start__-0x34bc>
     f30:	0013490b 	andseq	r4, r3, fp, lsl #18
     f34:	00260500 	eoreq	r0, r6, r0, lsl #10
     f38:	00001349 	andeq	r1, r0, r9, asr #6
     f3c:	3f012e06 	svccc	0x00012e06
     f40:	3a0e0319 	bcc	381bac <__bss_end__+0x374fbc>
     f44:	270b3b0b 	strcs	r3, [fp, -fp, lsl #22]
     f48:	12011119 	andne	r1, r1, #1073741830	; 0x40000006
     f4c:	97184006 	ldrls	r4, [r8, -r6]
     f50:	13011942 	movwne	r1, #6466	; 0x1942
     f54:	05070000 	streq	r0, [r7, #-0]
     f58:	3a080300 	bcc	201b60 <__bss_end__+0x1f4f70>
     f5c:	490b3b0b 	stmdbmi	fp, {r0, r1, r3, r8, r9, fp, ip, sp}
     f60:	00170213 	andseq	r0, r7, r3, lsl r2
     f64:	00340800 	eorseq	r0, r4, r0, lsl #16
     f68:	13490e03 	movtne	r0, #40451	; 0x9e03
     f6c:	18021934 	stmdane	r2, {r2, r4, r5, r8, fp, ip}
     f70:	89090000 	stmdbhi	r9, {}	; <UNPREDICTABLE>
     f74:	11000182 	smlabbne	r0, r2, r1, r0
     f78:	00133101 	andseq	r3, r3, r1, lsl #2
     f7c:	82890a00 	addhi	r0, r9, #0, 20
     f80:	01110101 	tsteq	r1, r1, lsl #2
     f84:	13011331 	movwne	r1, #4913	; 0x1331
     f88:	8a0b0000 	bhi	2c0f90 <__bss_end__+0x2b43a0>
     f8c:	02000182 	andeq	r0, r0, #-2147483616	; 0x80000020
     f90:	18429118 	stmdane	r2, {r3, r4, r8, ip, pc}^
     f94:	010c0000 	mrseq	r0, (UNDEF: 12)
     f98:	01134901 	tsteq	r3, r1, lsl #18
     f9c:	0d000013 	stceq	0, cr0, [r0, #-76]	; 0xffffffb4
     fa0:	13490021 	movtne	r0, #36897	; 0x9021
     fa4:	00000b2f 	andeq	r0, r0, pc, lsr #22
     fa8:	3f002e0e 	svccc	0x00002e0e
     fac:	3a0e0319 	bcc	381c18 <__bss_end__+0x375028>
     fb0:	270b3b0b 	strcs	r3, [fp, -fp, lsl #22]
     fb4:	00193c19 	andseq	r3, r9, r9, lsl ip
     fb8:	012e0f00 	teqeq	lr, r0, lsl #30
     fbc:	0e03193f 	mcreq	9, 0, r1, cr3, cr15, {1}
     fc0:	0b3b0b3a 	bleq	ec3cb0 <__bss_end__+0xeb70c0>
     fc4:	13491927 	movtne	r1, #39207	; 0x9927
     fc8:	1301193c 	movwne	r1, #6460	; 0x193c
     fcc:	05100000 	ldreq	r0, [r0, #-0]
     fd0:	00134900 	andseq	r4, r3, r0, lsl #18
     fd4:	00181100 	andseq	r1, r8, r0, lsl #2
     fd8:	01000000 	mrseq	r0, (UNDEF: 0)
     fdc:	0e250111 	mcreq	1, 1, r0, cr5, cr1, {0}
     fe0:	0e030b13 	vmoveq.32	d3[0], r0
     fe4:	01110e1b 	tsteq	r1, fp, lsl lr
     fe8:	17100612 			; <UNDEFINED> instruction: 0x17100612
     fec:	24020000 	strcs	r0, [r2], #-0
     ff0:	3e0b0b00 	vmlacc.f64	d0, d11, d0
     ff4:	0008030b 	andeq	r0, r8, fp, lsl #6
     ff8:	00240300 	eoreq	r0, r4, r0, lsl #6
     ffc:	0b3e0b0b 	bleq	f83c30 <__bss_end__+0xf77040>
    1000:	00000e03 	andeq	r0, r0, r3, lsl #28
    1004:	0b000f04 	bleq	4c1c <__code_start__-0x33e4>
    1008:	0013490b 	andseq	r4, r3, fp, lsl #18
    100c:	00260500 	eoreq	r0, r6, r0, lsl #10
    1010:	00001349 	andeq	r1, r0, r9, asr #6
    1014:	3f012e06 	svccc	0x00012e06
    1018:	3a0e0319 	bcc	381c84 <__bss_end__+0x375094>
    101c:	270b3b0b 	strcs	r3, [fp, -fp, lsl #22]
    1020:	12011119 	andne	r1, r1, #1073741830	; 0x40000006
    1024:	97184006 	ldrls	r4, [r8, -r6]
    1028:	13011942 	movwne	r1, #6466	; 0x1942
    102c:	05070000 	streq	r0, [r7, #-0]
    1030:	3a080300 	bcc	201c38 <__bss_end__+0x1f5048>
    1034:	490b3b0b 	stmdbmi	fp, {r0, r1, r3, r8, r9, fp, ip, sp}
    1038:	00170213 	andseq	r0, r7, r3, lsl r2
    103c:	00340800 	eorseq	r0, r4, r0, lsl #16
    1040:	13490e03 	movtne	r0, #40451	; 0x9e03
    1044:	18021934 	stmdane	r2, {r2, r4, r5, r8, fp, ip}
    1048:	89090000 	stmdbhi	r9, {}	; <UNPREDICTABLE>
    104c:	11000182 	smlabbne	r0, r2, r1, r0
    1050:	00133101 	andseq	r3, r3, r1, lsl #2
    1054:	82890a00 	addhi	r0, r9, #0, 20
    1058:	01110101 	tsteq	r1, r1, lsl #2
    105c:	13011331 	movwne	r1, #4913	; 0x1331
    1060:	8a0b0000 	bhi	2c1068 <__bss_end__+0x2b4478>
    1064:	02000182 	andeq	r0, r0, #-2147483616	; 0x80000020
    1068:	18429118 	stmdane	r2, {r3, r4, r8, ip, pc}^
    106c:	010c0000 	mrseq	r0, (UNDEF: 12)
    1070:	01134901 	tsteq	r3, r1, lsl #18
    1074:	0d000013 	stceq	0, cr0, [r0, #-76]	; 0xffffffb4
    1078:	13490021 	movtne	r0, #36897	; 0x9021
    107c:	00000b2f 	andeq	r0, r0, pc, lsr #22
    1080:	3f002e0e 	svccc	0x00002e0e
    1084:	3a0e0319 	bcc	381cf0 <__bss_end__+0x375100>
    1088:	270b3b0b 	strcs	r3, [fp, -fp, lsl #22]
    108c:	00193c19 	andseq	r3, r9, r9, lsl ip
    1090:	012e0f00 	teqeq	lr, r0, lsl #30
    1094:	0e03193f 	mcreq	9, 0, r1, cr3, cr15, {1}
    1098:	0b3b0b3a 	bleq	ec3d88 <__bss_end__+0xeb7198>
    109c:	13491927 	movtne	r1, #39207	; 0x9927
    10a0:	1301193c 	movwne	r1, #6460	; 0x193c
    10a4:	05100000 	ldreq	r0, [r0, #-0]
    10a8:	00134900 	andseq	r4, r3, r0, lsl #18
    10ac:	00181100 	andseq	r1, r8, r0, lsl #2
    10b0:	01000000 	mrseq	r0, (UNDEF: 0)
    10b4:	0e250111 	mcreq	1, 1, r0, cr5, cr1, {0}
    10b8:	0e030b13 	vmoveq.32	d3[0], r0
    10bc:	01110e1b 	tsteq	r1, fp, lsl lr
    10c0:	17100612 			; <UNDEFINED> instruction: 0x17100612
    10c4:	24020000 	strcs	r0, [r2], #-0
    10c8:	3e0b0b00 	vmlacc.f64	d0, d11, d0
    10cc:	0008030b 	andeq	r0, r8, fp, lsl #6
    10d0:	00240300 	eoreq	r0, r4, r0, lsl #6
    10d4:	0b3e0b0b 	bleq	f83d08 <__bss_end__+0xf77118>
    10d8:	00000e03 	andeq	r0, r0, r3, lsl #28
    10dc:	0b000f04 	bleq	4cf4 <__code_start__-0x330c>
    10e0:	0013490b 	andseq	r4, r3, fp, lsl #18
    10e4:	00260500 	eoreq	r0, r6, r0, lsl #10
    10e8:	00001349 	andeq	r1, r0, r9, asr #6
    10ec:	3f012e06 	svccc	0x00012e06
    10f0:	3a0e0319 	bcc	381d5c <__bss_end__+0x37516c>
    10f4:	270b3b0b 	strcs	r3, [fp, -fp, lsl #22]
    10f8:	12011119 	andne	r1, r1, #1073741830	; 0x40000006
    10fc:	97184006 	ldrls	r4, [r8, -r6]
    1100:	13011942 	movwne	r1, #6466	; 0x1942
    1104:	05070000 	streq	r0, [r7, #-0]
    1108:	3a080300 	bcc	201d10 <__bss_end__+0x1f5120>
    110c:	490b3b0b 	stmdbmi	fp, {r0, r1, r3, r8, r9, fp, ip, sp}
    1110:	00170213 	andseq	r0, r7, r3, lsl r2
    1114:	00340800 	eorseq	r0, r4, r0, lsl #16
    1118:	13490e03 	movtne	r0, #40451	; 0x9e03
    111c:	18021934 	stmdane	r2, {r2, r4, r5, r8, fp, ip}
    1120:	89090000 	stmdbhi	r9, {}	; <UNPREDICTABLE>
    1124:	11000182 	smlabbne	r0, r2, r1, r0
    1128:	00133101 	andseq	r3, r3, r1, lsl #2
    112c:	82890a00 	addhi	r0, r9, #0, 20
    1130:	01110101 	tsteq	r1, r1, lsl #2
    1134:	13011331 	movwne	r1, #4913	; 0x1331
    1138:	8a0b0000 	bhi	2c1140 <__bss_end__+0x2b4550>
    113c:	02000182 	andeq	r0, r0, #-2147483616	; 0x80000020
    1140:	18429118 	stmdane	r2, {r3, r4, r8, ip, pc}^
    1144:	010c0000 	mrseq	r0, (UNDEF: 12)
    1148:	01134901 	tsteq	r3, r1, lsl #18
    114c:	0d000013 	stceq	0, cr0, [r0, #-76]	; 0xffffffb4
    1150:	13490021 	movtne	r0, #36897	; 0x9021
    1154:	00000b2f 	andeq	r0, r0, pc, lsr #22
    1158:	3f002e0e 	svccc	0x00002e0e
    115c:	3a0e0319 	bcc	381dc8 <__bss_end__+0x3751d8>
    1160:	270b3b0b 	strcs	r3, [fp, -fp, lsl #22]
    1164:	00193c19 	andseq	r3, r9, r9, lsl ip
    1168:	012e0f00 	teqeq	lr, r0, lsl #30
    116c:	0e03193f 	mcreq	9, 0, r1, cr3, cr15, {1}
    1170:	0b3b0b3a 	bleq	ec3e60 <__bss_end__+0xeb7270>
    1174:	13491927 	movtne	r1, #39207	; 0x9927
    1178:	1301193c 	movwne	r1, #6460	; 0x193c
    117c:	05100000 	ldreq	r0, [r0, #-0]
    1180:	00134900 	andseq	r4, r3, r0, lsl #18
    1184:	00181100 	andseq	r1, r8, r0, lsl #2
    1188:	01000000 	mrseq	r0, (UNDEF: 0)
    118c:	0e250111 	mcreq	1, 1, r0, cr5, cr1, {0}
    1190:	0e030b13 	vmoveq.32	d3[0], r0
    1194:	01110e1b 	tsteq	r1, fp, lsl lr
    1198:	17100612 			; <UNDEFINED> instruction: 0x17100612
    119c:	24020000 	strcs	r0, [r2], #-0
    11a0:	3e0b0b00 	vmlacc.f64	d0, d11, d0
    11a4:	0008030b 	andeq	r0, r8, fp, lsl #6
    11a8:	00240300 	eoreq	r0, r4, r0, lsl #6
    11ac:	0b3e0b0b 	bleq	f83de0 <__bss_end__+0xf771f0>
    11b0:	00000e03 	andeq	r0, r0, r3, lsl #28
    11b4:	3f002e04 	svccc	0x00002e04
    11b8:	3a0e0319 	bcc	381e24 <__bss_end__+0x375234>
    11bc:	270b3b0b 	strcs	r3, [fp, -fp, lsl #22]
    11c0:	12011119 	andne	r1, r1, #1073741830	; 0x40000006
    11c4:	97184006 	ldrls	r4, [r8, -r6]
    11c8:	00001942 	andeq	r1, r0, r2, asr #18
    11cc:	01110100 	tsteq	r1, r0, lsl #2
    11d0:	0b130e25 	bleq	4c4a6c <__bss_end__+0x4b7e7c>
    11d4:	0e1b0e03 	cdpeq	14, 1, cr0, cr11, cr3, {0}
    11d8:	06120111 			; <UNDEFINED> instruction: 0x06120111
    11dc:	00001710 	andeq	r1, r0, r0, lsl r7
    11e0:	0b002402 	bleq	a1f0 <__FUNCTION__.4393+0x4>
    11e4:	030b3e0b 	movweq	r3, #48651	; 0xbe0b
    11e8:	03000008 	movweq	r0, #8
    11ec:	0b0b0024 	bleq	2c1284 <__bss_end__+0x2b4694>
    11f0:	0e030b3e 	vmoveq.16	d3[0], r0
    11f4:	04040000 	streq	r0, [r4], #-0
    11f8:	3a0b0b01 	bcc	2c3e04 <__bss_end__+0x2b7214>
    11fc:	010b3b0b 	tsteq	fp, fp, lsl #22
    1200:	05000013 	streq	r0, [r0, #-19]
    1204:	0e030028 	cdpeq	0, 0, cr0, cr3, cr8, {1}
    1208:	00000d1c 	andeq	r0, r0, ip, lsl sp
    120c:	3f012e06 	svccc	0x00012e06
    1210:	3a0e0319 	bcc	381e7c <__bss_end__+0x37528c>
    1214:	270b3b0b 	strcs	r3, [fp, -fp, lsl #22]
    1218:	12011119 	andne	r1, r1, #1073741830	; 0x40000006
    121c:	97184006 	ldrls	r4, [r8, -r6]
    1220:	13011942 	movwne	r1, #6466	; 0x1942
    1224:	34070000 	strcc	r0, [r7], #-0
    1228:	3a0e0300 	bcc	381e30 <__bss_end__+0x375240>
    122c:	490b3b0b 	stmdbmi	fp, {r0, r1, r3, r8, r9, fp, ip, sp}
    1230:	3c193f13 	ldccc	15, cr3, [r9], {19}
    1234:	08000019 	stmdaeq	r0, {r0, r3, r4}
    1238:	08030034 	stmdaeq	r3, {r2, r4, r5}
    123c:	0b3b0b3a 	bleq	ec3f2c <__bss_end__+0xeb733c>
    1240:	0b1c1349 	bleq	705f6c <__bss_end__+0x6f937c>
    1244:	34090000 	strcc	r0, [r9], #-0
    1248:	3a080300 	bcc	201e50 <__bss_end__+0x1f5260>
    124c:	490b3b0b 	stmdbmi	fp, {r0, r1, r3, r8, r9, fp, ip, sp}
    1250:	0a000013 	beq	12a4 <__code_start__-0x6d5c>
    1254:	08030034 	stmdaeq	r3, {r2, r4, r5}
    1258:	0b3b0b3a 	bleq	ec3f48 <__bss_end__+0xeb7358>
    125c:	18021349 	stmdane	r2, {r0, r3, r6, r8, r9, ip}
    1260:	0b0b0000 	bleq	2c1268 <__bss_end__+0x2b4678>
    1264:	12011101 	andne	r1, r1, #1073741824	; 0x40000000
    1268:	00130106 	andseq	r0, r3, r6, lsl #2
    126c:	00340c00 	eorseq	r0, r4, r0, lsl #24
    1270:	0b3a0803 	bleq	e83284 <__bss_end__+0xe76694>
    1274:	13490b3b 	movtne	r0, #39739	; 0x9b3b
    1278:	00001702 	andeq	r1, r0, r2, lsl #14
    127c:	0182890d 	orreq	r8, r2, sp, lsl #18
    1280:	31011100 	mrscc	r1, (UNDEF: 17)
    1284:	0e000013 	mcreq	0, 0, r0, cr0, cr3, {0}
    1288:	01018289 	smlabbeq	r1, r9, r2, r8
    128c:	13310111 	teqne	r1, #1073741828	; 0x40000004
    1290:	00001301 	andeq	r1, r0, r1, lsl #6
    1294:	01828a0f 	orreq	r8, r2, pc, lsl #20
    1298:	91180200 	tstls	r8, r0, lsl #4
    129c:	00001842 	andeq	r1, r0, r2, asr #16
    12a0:	0b000f10 	bleq	4ee8 <__code_start__-0x3118>
    12a4:	0013490b 	andseq	r4, r3, fp, lsl #18
    12a8:	002e1100 	eoreq	r1, lr, r0, lsl #2
    12ac:	0e03193f 	mcreq	9, 0, r1, cr3, cr15, {1}
    12b0:	0b3b0b3a 	bleq	ec3fa0 <__bss_end__+0xeb73b0>
    12b4:	193c1927 	ldmdbne	ip!, {r0, r1, r2, r5, r8, fp, ip}
    12b8:	2e120000 	cdpcs	0, 1, cr0, cr2, cr0, {0}
    12bc:	03193f01 	tsteq	r9, #1, 30
    12c0:	3b0b3a0e 	blcc	2cfb00 <__bss_end__+0x2c2f10>
    12c4:	3c19270b 	ldccc	7, cr2, [r9], {11}
    12c8:	13000019 	movwne	r0, #25
    12cc:	13490005 	movtne	r0, #36869	; 0x9005
    12d0:	01000000 	mrseq	r0, (UNDEF: 0)
    12d4:	0e250111 	mcreq	1, 1, r0, cr5, cr1, {0}
    12d8:	0e030b13 	vmoveq.32	d3[0], r0
    12dc:	17550e1b 	smmlane	r5, fp, lr, r0
    12e0:	17100111 			; <UNDEFINED> instruction: 0x17100111
    12e4:	24020000 	strcs	r0, [r2], #-0
    12e8:	3e0b0b00 	vmlacc.f64	d0, d11, d0
    12ec:	0008030b 	andeq	r0, r8, fp, lsl #6
    12f0:	00240300 	eoreq	r0, r4, r0, lsl #6
    12f4:	0b3e0b0b 	bleq	f83f28 <__bss_end__+0xf77338>
    12f8:	00000e03 	andeq	r0, r0, r3, lsl #28
    12fc:	3f012e04 	svccc	0x00012e04
    1300:	3a0e0319 	bcc	381f6c <__bss_end__+0x37537c>
    1304:	270b3b0b 	strcs	r3, [fp, -fp, lsl #22]
    1308:	11134919 	tstne	r3, r9, lsl r9
    130c:	40061201 	andmi	r1, r6, r1, lsl #4
    1310:	19429718 	stmdbne	r2, {r3, r4, r8, r9, sl, ip, pc}^
    1314:	00001301 	andeq	r1, r0, r1, lsl #6
    1318:	03003405 	movweq	r3, #1029	; 0x405
    131c:	3b0b3a0e 	blcc	2cfb5c <__bss_end__+0x2c2f6c>
    1320:	0213490b 	andseq	r4, r3, #180224	; 0x2c000
    1324:	06000017 			; <UNDEFINED> instruction: 0x06000017
    1328:	193f012e 	ldmdbne	pc!, {r1, r2, r3, r5, r8}	; <UNPREDICTABLE>
    132c:	0b3a0e03 	bleq	e84b40 <__bss_end__+0xe77f50>
    1330:	19270b3b 	stmdbne	r7!, {r0, r1, r3, r4, r5, r8, r9, fp}
    1334:	06120111 			; <UNDEFINED> instruction: 0x06120111
    1338:	42971840 	addsmi	r1, r7, #64, 16	; 0x400000
    133c:	00130119 	andseq	r0, r3, r9, lsl r1
    1340:	00340700 	eorseq	r0, r4, r0, lsl #14
    1344:	0b3a0e03 	bleq	e84b58 <__bss_end__+0xe77f68>
    1348:	13490b3b 	movtne	r0, #39739	; 0x9b3b
    134c:	0000061c 	andeq	r0, r0, ip, lsl r6
    1350:	03003408 	movweq	r3, #1032	; 0x408
    1354:	3b0b3a0e 	blcc	2cfb94 <__bss_end__+0x2c2fa4>
    1358:	1c13490b 	ldcne	9, cr4, [r3], {11}
    135c:	0900000b 	stmdbeq	r0, {r0, r1, r3}
    1360:	00018289 	andeq	r8, r1, r9, lsl #5
    1364:	13310111 	teqne	r1, #1073741828	; 0x40000004
    1368:	890a0000 	stmdbhi	sl, {}	; <UNPREDICTABLE>
    136c:	11010182 	smlabbne	r1, r2, r1, r0
    1370:	01133101 	tsteq	r3, r1, lsl #2
    1374:	0b000013 	bleq	13c8 <__code_start__-0x6c38>
    1378:	0001828a 	andeq	r8, r1, sl, lsl #5
    137c:	42911802 	addsmi	r1, r1, #131072	; 0x20000
    1380:	0c000018 	stceq	0, cr0, [r0], {24}
    1384:	01018289 	smlabbeq	r1, r9, r2, r8
    1388:	13310111 	teqne	r1, #1073741828	; 0x40000004
    138c:	260d0000 	strcs	r0, [sp], -r0
    1390:	00134900 	andseq	r4, r3, r0, lsl #18
    1394:	012e0e00 	teqeq	lr, r0, lsl #28
    1398:	0e03193f 	mcreq	9, 0, r1, cr3, cr15, {1}
    139c:	0b3b0b3a 	bleq	ec408c <__bss_end__+0xeb749c>
    13a0:	193c1927 	ldmdbne	ip!, {r0, r1, r2, r5, r8, fp, ip}
    13a4:	00001301 	andeq	r1, r0, r1, lsl #6
    13a8:	4900050f 	stmdbmi	r0, {r0, r1, r2, r3, r8, sl}
    13ac:	10000013 	andne	r0, r0, r3, lsl r0
    13b0:	193f012e 	ldmdbne	pc!, {r1, r2, r3, r5, r8}	; <UNPREDICTABLE>
    13b4:	0b3a0e03 	bleq	e84bc8 <__bss_end__+0xe77fd8>
    13b8:	19270b3b 	stmdbne	r7!, {r0, r1, r3, r4, r5, r8, r9, fp}
    13bc:	0000193c 	andeq	r1, r0, ip, lsr r9
    13c0:	01110100 	tsteq	r1, r0, lsl #2
    13c4:	0b130e25 	bleq	4c4c60 <__bss_end__+0x4b8070>
    13c8:	0e1b0e03 	cdpeq	14, 1, cr0, cr11, cr3, {0}
    13cc:	06120111 			; <UNDEFINED> instruction: 0x06120111
    13d0:	00001710 	andeq	r1, r0, r0, lsl r7
    13d4:	0b002402 	bleq	a3e4 <__FUNCTION__.4451+0x1a8>
    13d8:	030b3e0b 	movweq	r3, #48651	; 0xbe0b
    13dc:	03000008 	movweq	r0, #8
    13e0:	0b0b0024 	bleq	2c1478 <__bss_end__+0x2b4888>
    13e4:	0e030b3e 	vmoveq.16	d3[0], r0
    13e8:	2e040000 	cdpcs	0, 0, cr0, cr4, cr0, {0}
    13ec:	03193f01 	tsteq	r9, #1, 30
    13f0:	3b0b3a0e 	blcc	2cfc30 <__bss_end__+0x2c3040>
    13f4:	1119270b 	tstne	r9, fp, lsl #14
    13f8:	40061201 	andmi	r1, r6, r1, lsl #4
    13fc:	19429718 	stmdbne	r2, {r3, r4, r8, r9, sl, ip, pc}^
    1400:	00001301 	andeq	r1, r0, r1, lsl #6
    1404:	03000505 	movweq	r0, #1285	; 0x505
    1408:	3b0b3a0e 	blcc	2cfc48 <__bss_end__+0x2c3058>
    140c:	0213490b 	andseq	r4, r3, #180224	; 0x2c000
    1410:	06000017 			; <UNDEFINED> instruction: 0x06000017
    1414:	193f012e 	ldmdbne	pc!, {r1, r2, r3, r5, r8}	; <UNPREDICTABLE>
    1418:	0b3a0e03 	bleq	e84c2c <__bss_end__+0xe7803c>
    141c:	19270b3b 	stmdbne	r7!, {r0, r1, r3, r4, r5, r8, r9, fp}
    1420:	01111349 	tsteq	r1, r9, asr #6
    1424:	18400612 	stmdane	r0, {r1, r4, r9, sl}^
    1428:	01194297 			; <UNDEFINED> instruction: 0x01194297
    142c:	07000013 	smladeq	r0, r3, r0, r0
    1430:	01018289 	smlabbeq	r1, r9, r2, r8
    1434:	13310111 	teqne	r1, #1073741828	; 0x40000004
    1438:	8a080000 	bhi	201440 <__bss_end__+0x1f4850>
    143c:	02000182 	andeq	r0, r0, #-2147483616	; 0x80000020
    1440:	18429118 	stmdane	r2, {r3, r4, r8, ip, pc}^
    1444:	34090000 	strcc	r0, [r9], #-0
    1448:	3a080300 	bcc	202050 <__bss_end__+0x1f5460>
    144c:	490b3b0b 	stmdbmi	fp, {r0, r1, r3, r8, r9, fp, ip, sp}
    1450:	00170213 	andseq	r0, r7, r3, lsl r2
    1454:	82890a00 	addhi	r0, r9, #0, 20
    1458:	01110001 	tsteq	r1, r1
    145c:	00001331 	andeq	r1, r0, r1, lsr r3
    1460:	0300050b 	movweq	r0, #1291	; 0x50b
    1464:	3b0b3a08 	blcc	2cfc8c <__bss_end__+0x2c309c>
    1468:	0213490b 	andseq	r4, r3, #180224	; 0x2c000
    146c:	0c000017 	stceq	0, cr0, [r0], {23}
    1470:	08030034 	stmdaeq	r3, {r2, r4, r5}
    1474:	0b3b0b3a 	bleq	ec4164 <__bss_end__+0xeb7574>
    1478:	18021349 	stmdane	r2, {r0, r3, r6, r8, r9, ip}
    147c:	0b0d0000 	bleq	341484 <__bss_end__+0x334894>
    1480:	12011101 	andne	r1, r1, #1073741824	; 0x40000000
    1484:	00130106 	andseq	r0, r3, r6, lsl #2
    1488:	012e0e00 	teqeq	lr, r0, lsl #28
    148c:	0e03193f 	mcreq	9, 0, r1, cr3, cr15, {1}
    1490:	0b3b0b3a 	bleq	ec4180 <__bss_end__+0xeb7590>
    1494:	13491927 	movtne	r1, #39207	; 0x9927
    1498:	1301193c 	movwne	r1, #6460	; 0x193c
    149c:	050f0000 	streq	r0, [pc, #-0]	; 14a4 <__code_start__-0x6b5c>
    14a0:	00134900 	andseq	r4, r3, r0, lsl #18
    14a4:	002e1000 	eoreq	r1, lr, r0
    14a8:	0e03193f 	mcreq	9, 0, r1, cr3, cr15, {1}
    14ac:	0b3b0b3a 	bleq	ec419c <__bss_end__+0xeb75ac>
    14b0:	193c1927 	ldmdbne	ip!, {r0, r1, r2, r5, r8, fp, ip}
    14b4:	01000000 	mrseq	r0, (UNDEF: 0)
    14b8:	0e250111 	mcreq	1, 1, r0, cr5, cr1, {0}
    14bc:	0e030b13 	vmoveq.32	d3[0], r0
    14c0:	01110e1b 	tsteq	r1, fp, lsl lr
    14c4:	17100612 			; <UNDEFINED> instruction: 0x17100612
    14c8:	24020000 	strcs	r0, [r2], #-0
    14cc:	3e0b0b00 	vmlacc.f64	d0, d11, d0
    14d0:	0008030b 	andeq	r0, r8, fp, lsl #6
    14d4:	00240300 	eoreq	r0, r4, r0, lsl #6
    14d8:	0b3e0b0b 	bleq	f8410c <__bss_end__+0xf7751c>
    14dc:	00000e03 	andeq	r0, r0, r3, lsl #28
    14e0:	49003504 	stmdbmi	r0, {r2, r8, sl, ip, sp}
    14e4:	05000013 	streq	r0, [r0, #-19]
    14e8:	0e030016 	mcreq	0, 0, r0, cr3, cr6, {0}
    14ec:	0b3b0b3a 	bleq	ec41dc <__bss_end__+0xeb75ec>
    14f0:	00001349 	andeq	r1, r0, r9, asr #6
    14f4:	03001606 	movweq	r1, #1542	; 0x606
    14f8:	3b0b3a0e 	blcc	2cfd38 <__bss_end__+0x2c3148>
    14fc:	00134905 	andseq	r4, r3, r5, lsl #18
    1500:	01170700 	tsteq	r7, r0, lsl #14
    1504:	0b3a0b0b 	bleq	e84138 <__bss_end__+0xe77548>
    1508:	13010b3b 	movwne	r0, #6971	; 0x1b3b
    150c:	0d080000 	stceq	0, cr0, [r8, #-0]
    1510:	3a0e0300 	bcc	382118 <__bss_end__+0x375528>
    1514:	490b3b0b 	stmdbmi	fp, {r0, r1, r3, r8, r9, fp, ip, sp}
    1518:	09000013 	stmdbeq	r0, {r0, r1, r4}
    151c:	13490101 	movtne	r0, #37121	; 0x9101
    1520:	00001301 	andeq	r1, r0, r1, lsl #6
    1524:	4900210a 	stmdbmi	r0, {r1, r3, r8, sp}
    1528:	000b2f13 	andeq	r2, fp, r3, lsl pc
    152c:	01130b00 	tsteq	r3, r0, lsl #22
    1530:	0b3a0b0b 	bleq	e84164 <__bss_end__+0xe77574>
    1534:	13010b3b 	movwne	r0, #6971	; 0x1b3b
    1538:	0d0c0000 	stceq	0, cr0, [ip, #-0]
    153c:	3a0e0300 	bcc	382144 <__bss_end__+0x375554>
    1540:	490b3b0b 	stmdbmi	fp, {r0, r1, r3, r8, r9, fp, ip, sp}
    1544:	000b3813 	andeq	r3, fp, r3, lsl r8
    1548:	000f0d00 	andeq	r0, pc, r0, lsl #26
    154c:	00000b0b 	andeq	r0, r0, fp, lsl #22
    1550:	0b000f0e 	bleq	5190 <__code_start__-0x2e70>
    1554:	0013490b 	andseq	r4, r3, fp, lsl #18
    1558:	00260f00 	eoreq	r0, r6, r0, lsl #30
    155c:	00001349 	andeq	r1, r0, r9, asr #6
    1560:	03011310 	movweq	r1, #4880	; 0x1310
    1564:	3a0b0b0e 	bcc	2c41a4 <__bss_end__+0x2b75b4>
    1568:	010b3b0b 	tsteq	fp, fp, lsl #22
    156c:	11000013 	tstne	r0, r3, lsl r0
    1570:	0803000d 	stmdaeq	r3, {r0, r2, r3}
    1574:	0b3b0b3a 	bleq	ec4264 <__bss_end__+0xeb7674>
    1578:	0b381349 	bleq	e062a4 <__bss_end__+0xdf96b4>
    157c:	13120000 	tstne	r2, #0
    1580:	0b0e0301 	bleq	38218c <__bss_end__+0x37559c>
    1584:	3b0b3a05 	blcc	2cfda0 <__bss_end__+0x2c31b0>
    1588:	0013010b 	andseq	r0, r3, fp, lsl #2
    158c:	000d1300 	andeq	r1, sp, r0, lsl #6
    1590:	0b3a0e03 	bleq	e84da4 <__bss_end__+0xe781b4>
    1594:	13490b3b 	movtne	r0, #39739	; 0x9b3b
    1598:	00000538 	andeq	r0, r0, r8, lsr r5
    159c:	27001514 	smladcs	r0, r4, r5, r1
    15a0:	15000019 	strne	r0, [r0, #-25]
    15a4:	19270115 	stmdbne	r7!, {r0, r2, r4, r8}
    15a8:	13011349 	movwne	r1, #4937	; 0x1349
    15ac:	05160000 	ldreq	r0, [r6, #-0]
    15b0:	00134900 	andseq	r4, r3, r0, lsl #18
    15b4:	01131700 	tsteq	r3, r0, lsl #14
    15b8:	050b0e03 	streq	r0, [fp, #-3587]	; 0xe03
    15bc:	053b0b3a 	ldreq	r0, [fp, #-2874]!	; 0xb3a
    15c0:	00001301 	andeq	r1, r0, r1, lsl #6
    15c4:	03000d18 	movweq	r0, #3352	; 0xd18
    15c8:	3b0b3a0e 	blcc	2cfe08 <__bss_end__+0x2c3218>
    15cc:	38134905 	ldmdacc	r3, {r0, r2, r8, fp, lr}
    15d0:	1900000b 	stmdbne	r0, {r0, r1, r3}
    15d4:	0e03000d 	cdpeq	0, 0, cr0, cr3, cr13, {0}
    15d8:	053b0b3a 	ldreq	r0, [fp, #-2874]!	; 0xb3a
    15dc:	05381349 	ldreq	r1, [r8, #-841]!	; 0x349
    15e0:	131a0000 	tstne	sl, #0
    15e4:	0b0e0301 	bleq	3821f0 <__bss_end__+0x375600>
    15e8:	3b0b3a0b 	blcc	2cfe1c <__bss_end__+0x2c322c>
    15ec:	00130105 	andseq	r0, r3, r5, lsl #2
    15f0:	01131b00 	tsteq	r3, r0, lsl #22
    15f4:	0b3a0b0b 	bleq	e84228 <__bss_end__+0xe77638>
    15f8:	1301053b 	movwne	r0, #5435	; 0x153b
    15fc:	171c0000 	ldrne	r0, [ip, -r0]
    1600:	3a0b0b01 	bcc	2c420c <__bss_end__+0x2b761c>
    1604:	01053b0b 	tsteq	r5, fp, lsl #22
    1608:	1d000013 	stcne	0, cr0, [r0, #-76]	; 0xffffffb4
    160c:	0e03000d 	cdpeq	0, 0, cr0, cr3, cr13, {0}
    1610:	053b0b3a 	ldreq	r0, [fp, #-2874]!	; 0xb3a
    1614:	00001349 	andeq	r1, r0, r9, asr #6
    1618:	2701151e 	smladcs	r1, lr, r5, r1
    161c:	00130119 	andseq	r0, r3, r9, lsl r1
    1620:	00341f00 	eorseq	r1, r4, r0, lsl #30
    1624:	0b3a0e03 	bleq	e84e38 <__bss_end__+0xe78248>
    1628:	1349053b 	movtne	r0, #38203	; 0x953b
    162c:	193c193f 	ldmdbne	ip!, {r0, r1, r2, r3, r4, r5, r8, fp, ip}
    1630:	34200000 	strtcc	r0, [r0], #-0
    1634:	3a0e0300 	bcc	38223c <__bss_end__+0x37564c>
    1638:	490b3b0b 	stmdbmi	fp, {r0, r1, r3, r8, r9, fp, ip, sp}
    163c:	3c193f13 	ldccc	15, cr3, [r9], {19}
    1640:	21000019 	tstcs	r0, r9, lsl r0
    1644:	0b0b0104 	bleq	2c1a5c <__bss_end__+0x2b4e6c>
    1648:	0b3a1349 	bleq	e86374 <__bss_end__+0xe79784>
    164c:	13010b3b 	movwne	r0, #6971	; 0x1b3b
    1650:	28220000 	stmdacs	r2!, {}	; <UNPREDICTABLE>
    1654:	1c0e0300 	stcne	3, cr0, [lr], {-0}
    1658:	2300000b 	movwcs	r0, #11
    165c:	0e030034 	mcreq	0, 0, r0, cr3, cr4, {1}
    1660:	0b3b0b3a 	bleq	ec4350 <__bss_end__+0xeb7760>
    1664:	061c1349 	ldreq	r1, [ip], -r9, asr #6
    1668:	2e240000 	cdpcs	0, 2, cr0, cr4, cr0, {0}
    166c:	03193f01 	tsteq	r9, #1, 30
    1670:	3b0b3a0e 	blcc	2cfeb0 <__bss_end__+0x2c32c0>
    1674:	4919270b 	ldmdbmi	r9, {r0, r1, r3, r8, r9, sl, sp}
    1678:	12011113 	andne	r1, r1, #-1073741820	; 0xc0000004
    167c:	97184006 	ldrls	r4, [r8, -r6]
    1680:	13011942 	movwne	r1, #6466	; 0x1942
    1684:	89250000 	stmdbhi	r5!, {}	; <UNPREDICTABLE>
    1688:	11000182 	smlabbne	r0, r2, r1, r0
    168c:	00133101 	andseq	r3, r3, r1, lsl #2
    1690:	012e2600 	teqeq	lr, r0, lsl #12
    1694:	0e03193f 	mcreq	9, 0, r1, cr3, cr15, {1}
    1698:	0b3b0b3a 	bleq	ec4388 <__bss_end__+0xeb7798>
    169c:	01111927 	tsteq	r1, r7, lsr #18
    16a0:	18400612 	stmdane	r0, {r1, r4, r9, sl}^
    16a4:	01194297 			; <UNDEFINED> instruction: 0x01194297
    16a8:	27000013 	smladcs	r0, r3, r0, r0
    16ac:	08030005 	stmdaeq	r3, {r0, r2}
    16b0:	0b3b0b3a 	bleq	ec43a0 <__bss_end__+0xeb77b0>
    16b4:	17021349 	strne	r1, [r2, -r9, asr #6]
    16b8:	89280000 	stmdbhi	r8!, {}	; <UNPREDICTABLE>
    16bc:	11010182 	smlabbne	r1, r2, r1, r0
    16c0:	01133101 	tsteq	r3, r1, lsl #2
    16c4:	29000013 	stmdbcs	r0, {r0, r1, r4}
    16c8:	0001828a 	andeq	r8, r1, sl, lsl #5
    16cc:	42911802 	addsmi	r1, r1, #131072	; 0x20000
    16d0:	2a000018 	bcs	1738 <__code_start__-0x68c8>
    16d4:	08030034 	stmdaeq	r3, {r2, r4, r5}
    16d8:	0b3b0b3a 	bleq	ec43c8 <__bss_end__+0xeb77d8>
    16dc:	18021349 	stmdane	r2, {r0, r3, r6, r8, r9, ip}
    16e0:	892b0000 	stmdbhi	fp!, {}	; <UNPREDICTABLE>
    16e4:	11010182 	smlabbne	r1, r2, r1, r0
    16e8:	00133101 	andseq	r3, r3, r1, lsl #2
    16ec:	012e2c00 	teqeq	lr, r0, lsl #24
    16f0:	0b3a0e03 	bleq	e84f04 <__bss_end__+0xe78314>
    16f4:	19270b3b 	stmdbne	r7!, {r0, r1, r3, r4, r5, r8, r9, fp}
    16f8:	06120111 			; <UNDEFINED> instruction: 0x06120111
    16fc:	42971840 	addsmi	r1, r7, #64, 16	; 0x400000
    1700:	00130119 	andseq	r0, r3, r9, lsl r1
    1704:	00052d00 	andeq	r2, r5, r0, lsl #26
    1708:	0b3a0e03 	bleq	e84f1c <__bss_end__+0xe7832c>
    170c:	13490b3b 	movtne	r0, #39739	; 0x9b3b
    1710:	00001702 	andeq	r1, r0, r2, lsl #14
    1714:	0000352e 	andeq	r3, r0, lr, lsr #10
    1718:	002e2f00 	eoreq	r2, lr, r0, lsl #30
    171c:	193c193f 	ldmdbne	ip!, {r0, r1, r2, r3, r4, r5, r8, fp, ip}
    1720:	0e030e6e 	cdpeq	14, 0, cr0, cr3, cr14, {3}
    1724:	0b3b0b3a 	bleq	ec4414 <__bss_end__+0xeb7824>
    1728:	01000000 	mrseq	r0, (UNDEF: 0)
    172c:	0e250111 	mcreq	1, 1, r0, cr5, cr1, {0}
    1730:	0e030b13 	vmoveq.32	d3[0], r0
    1734:	01110e1b 	tsteq	r1, fp, lsl lr
    1738:	17100612 			; <UNDEFINED> instruction: 0x17100612
    173c:	24020000 	strcs	r0, [r2], #-0
    1740:	3e0b0b00 	vmlacc.f64	d0, d11, d0
    1744:	0008030b 	andeq	r0, r8, fp, lsl #6
    1748:	00240300 	eoreq	r0, r4, r0, lsl #6
    174c:	0b3e0b0b 	bleq	f84380 <__bss_end__+0xf77790>
    1750:	00000e03 	andeq	r0, r0, r3, lsl #28
    1754:	49002604 	stmdbmi	r0, {r2, r9, sl, sp}
    1758:	05000013 	streq	r0, [r0, #-19]
    175c:	0e030016 	mcreq	0, 0, r0, cr3, cr6, {0}
    1760:	0b3b0b3a 	bleq	ec4450 <__bss_end__+0xeb7860>
    1764:	00001349 	andeq	r1, r0, r9, asr #6
    1768:	03001606 	movweq	r1, #1542	; 0x606
    176c:	3b0b3a0e 	blcc	2cffac <__bss_end__+0x2c33bc>
    1770:	00134905 	andseq	r4, r3, r5, lsl #18
    1774:	01170700 	tsteq	r7, r0, lsl #14
    1778:	0b3a0b0b 	bleq	e843ac <__bss_end__+0xe777bc>
    177c:	13010b3b 	movwne	r0, #6971	; 0x1b3b
    1780:	0d080000 	stceq	0, cr0, [r8, #-0]
    1784:	3a0e0300 	bcc	38238c <__bss_end__+0x37579c>
    1788:	490b3b0b 	stmdbmi	fp, {r0, r1, r3, r8, r9, fp, ip, sp}
    178c:	09000013 	stmdbeq	r0, {r0, r1, r4}
    1790:	13490101 	movtne	r0, #37121	; 0x9101
    1794:	00001301 	andeq	r1, r0, r1, lsl #6
    1798:	4900210a 	stmdbmi	r0, {r1, r3, r8, sp}
    179c:	000b2f13 	andeq	r2, fp, r3, lsl pc
    17a0:	01130b00 	tsteq	r3, r0, lsl #22
    17a4:	0b3a0b0b 	bleq	e843d8 <__bss_end__+0xe777e8>
    17a8:	13010b3b 	movwne	r0, #6971	; 0x1b3b
    17ac:	0d0c0000 	stceq	0, cr0, [ip, #-0]
    17b0:	3a0e0300 	bcc	3823b8 <__bss_end__+0x3757c8>
    17b4:	490b3b0b 	stmdbmi	fp, {r0, r1, r3, r8, r9, fp, ip, sp}
    17b8:	000b3813 	andeq	r3, fp, r3, lsl r8
    17bc:	000f0d00 	andeq	r0, pc, r0, lsl #26
    17c0:	00000b0b 	andeq	r0, r0, fp, lsl #22
    17c4:	0b000f0e 	bleq	5404 <__code_start__-0x2bfc>
    17c8:	0013490b 	andseq	r4, r3, fp, lsl #18
    17cc:	01130f00 	tsteq	r3, r0, lsl #30
    17d0:	0b0b0e03 	bleq	2c4fe4 <__bss_end__+0x2b83f4>
    17d4:	0b3b0b3a 	bleq	ec44c4 <__bss_end__+0xeb78d4>
    17d8:	00001301 	andeq	r1, r0, r1, lsl #6
    17dc:	03000d10 	movweq	r0, #3344	; 0xd10
    17e0:	3b0b3a08 	blcc	2d0008 <__bss_end__+0x2c3418>
    17e4:	3813490b 	ldmdacc	r3, {r0, r1, r3, r8, fp, lr}
    17e8:	1100000b 	tstne	r0, fp
    17ec:	0e030113 	mcreq	1, 0, r0, cr3, cr3, {0}
    17f0:	0b3a050b 	bleq	e82c24 <__bss_end__+0xe76034>
    17f4:	13010b3b 	movwne	r0, #6971	; 0x1b3b
    17f8:	0d120000 	ldceq	0, cr0, [r2, #-0]
    17fc:	3a0e0300 	bcc	382404 <__bss_end__+0x375814>
    1800:	490b3b0b 	stmdbmi	fp, {r0, r1, r3, r8, r9, fp, ip, sp}
    1804:	00053813 	andeq	r3, r5, r3, lsl r8
    1808:	00151300 	andseq	r1, r5, r0, lsl #6
    180c:	00001927 	andeq	r1, r0, r7, lsr #18
    1810:	27011514 	smladcs	r1, r4, r5, r1
    1814:	01134919 	tsteq	r3, r9, lsl r9
    1818:	15000013 	strne	r0, [r0, #-19]
    181c:	13490005 	movtne	r0, #36869	; 0x9005
    1820:	13160000 	tstne	r6, #0
    1824:	0b0e0301 	bleq	382430 <__bss_end__+0x375840>
    1828:	3b0b3a05 	blcc	2d0044 <__bss_end__+0x2c3454>
    182c:	00130105 	andseq	r0, r3, r5, lsl #2
    1830:	000d1700 	andeq	r1, sp, r0, lsl #14
    1834:	0b3a0e03 	bleq	e85048 <__bss_end__+0xe78458>
    1838:	1349053b 	movtne	r0, #38203	; 0x953b
    183c:	00000b38 	andeq	r0, r0, r8, lsr fp
    1840:	03000d18 	movweq	r0, #3352	; 0xd18
    1844:	3b0b3a0e 	blcc	2d0084 <__bss_end__+0x2c3494>
    1848:	38134905 	ldmdacc	r3, {r0, r2, r8, fp, lr}
    184c:	19000005 	stmdbne	r0, {r0, r2}
    1850:	0e030113 	mcreq	1, 0, r0, cr3, cr3, {0}
    1854:	0b3a0b0b 	bleq	e84488 <__bss_end__+0xe77898>
    1858:	1301053b 	movwne	r0, #5435	; 0x153b
    185c:	131a0000 	tstne	sl, #0
    1860:	3a0b0b01 	bcc	2c446c <__bss_end__+0x2b787c>
    1864:	01053b0b 	tsteq	r5, fp, lsl #22
    1868:	1b000013 	blne	18bc <__code_start__-0x6744>
    186c:	0b0b0117 	bleq	2c1cd0 <__bss_end__+0x2b50e0>
    1870:	053b0b3a 	ldreq	r0, [fp, #-2874]!	; 0xb3a
    1874:	00001301 	andeq	r1, r0, r1, lsl #6
    1878:	03000d1c 	movweq	r0, #3356	; 0xd1c
    187c:	3b0b3a0e 	blcc	2d00bc <__bss_end__+0x2c34cc>
    1880:	00134905 	andseq	r4, r3, r5, lsl #18
    1884:	01151d00 	tsteq	r5, r0, lsl #26
    1888:	13011927 	movwne	r1, #6439	; 0x1927
    188c:	341e0000 	ldrcc	r0, [lr], #-0
    1890:	3a0e0300 	bcc	382498 <__bss_end__+0x3758a8>
    1894:	49053b0b 	stmdbmi	r5, {r0, r1, r3, r8, r9, fp, ip, sp}
    1898:	3c193f13 	ldccc	15, cr3, [r9], {19}
    189c:	1f000019 	svcne	0x00000019
    18a0:	0e030034 	mcreq	0, 0, r0, cr3, cr4, {1}
    18a4:	0b3b0b3a 	bleq	ec4594 <__bss_end__+0xeb79a4>
    18a8:	193f1349 	ldmdbne	pc!, {r0, r3, r6, r8, r9, ip}	; <UNPREDICTABLE>
    18ac:	0000193c 	andeq	r1, r0, ip, lsr r9
    18b0:	0b010420 	bleq	42938 <__bss_end__+0x35d48>
    18b4:	3a13490b 	bcc	4d3ce8 <__bss_end__+0x4c70f8>
    18b8:	010b3b0b 	tsteq	fp, fp, lsl #22
    18bc:	21000013 	tstcs	r0, r3, lsl r0
    18c0:	0e030028 	cdpeq	0, 0, cr0, cr3, cr8, {1}
    18c4:	00000b1c 	andeq	r0, r0, ip, lsl fp
    18c8:	03003422 	movweq	r3, #1058	; 0x422
    18cc:	3b0b3a0e 	blcc	2d010c <__bss_end__+0x2c351c>
    18d0:	1c13490b 	ldcne	9, cr4, [r3], {11}
    18d4:	23000006 	movwcs	r0, #6
    18d8:	193f012e 	ldmdbne	pc!, {r1, r2, r3, r5, r8}	; <UNPREDICTABLE>
    18dc:	0b3a0e03 	bleq	e850f0 <__bss_end__+0xe78500>
    18e0:	19270b3b 	stmdbne	r7!, {r0, r1, r3, r4, r5, r8, r9, fp}
    18e4:	01111349 	tsteq	r1, r9, asr #6
    18e8:	18400612 	stmdane	r0, {r1, r4, r9, sl}^
    18ec:	01194297 			; <UNDEFINED> instruction: 0x01194297
    18f0:	24000013 	strcs	r0, [r0], #-19
    18f4:	08030005 	stmdaeq	r3, {r0, r2}
    18f8:	0b3b0b3a 	bleq	ec45e8 <__bss_end__+0xeb79f8>
    18fc:	17021349 	strne	r1, [r2, -r9, asr #6]
    1900:	34250000 	strtcc	r0, [r5], #-0
    1904:	3a0e0300 	bcc	38250c <__bss_end__+0x37591c>
    1908:	490b3b0b 	stmdbmi	fp, {r0, r1, r3, r8, r9, fp, ip, sp}
    190c:	00170213 	andseq	r0, r7, r3, lsl r2
    1910:	00342600 	eorseq	r2, r4, r0, lsl #12
    1914:	0b3a0803 	bleq	e83928 <__bss_end__+0xe76d38>
    1918:	13490b3b 	movtne	r0, #39739	; 0x9b3b
    191c:	00001702 	andeq	r1, r0, r2, lsl #14
    1920:	01828927 	orreq	r8, r2, r7, lsr #18
    1924:	31011101 	tstcc	r1, r1, lsl #2
    1928:	28000013 	stmdacs	r0, {r0, r1, r4}
    192c:	0001828a 	andeq	r8, r1, sl, lsl #5
    1930:	42911802 	addsmi	r1, r1, #131072	; 0x20000
    1934:	29000018 	stmdbcs	r0, {r3, r4}
    1938:	193f012e 	ldmdbne	pc!, {r1, r2, r3, r5, r8}	; <UNPREDICTABLE>
    193c:	0b3a0e03 	bleq	e85150 <__bss_end__+0xe78560>
    1940:	19270b3b 	stmdbne	r7!, {r0, r1, r3, r4, r5, r8, r9, fp}
    1944:	06120111 			; <UNDEFINED> instruction: 0x06120111
    1948:	42971840 	addsmi	r1, r7, #64, 16	; 0x400000
    194c:	00130119 	andseq	r0, r3, r9, lsl r1
    1950:	82892a00 	addhi	r2, r9, #0, 20
    1954:	01110101 	tsteq	r1, r1, lsl #2
    1958:	13011331 	movwne	r1, #4913	; 0x1331
    195c:	892b0000 	stmdbhi	fp!, {}	; <UNPREDICTABLE>
    1960:	11000182 	smlabbne	r0, r2, r1, r0
    1964:	00133101 	andseq	r3, r3, r1, lsl #2
    1968:	00052c00 	andeq	r2, r5, r0, lsl #24
    196c:	0b3a0e03 	bleq	e85180 <__bss_end__+0xe78590>
    1970:	13490b3b 	movtne	r0, #39739	; 0x9b3b
    1974:	00001702 	andeq	r1, r0, r2, lsl #14
    1978:	0300342d 	movweq	r3, #1069	; 0x42d
    197c:	3b0b3a08 	blcc	2d01a4 <__bss_end__+0x2c35b4>
    1980:	0213490b 	andseq	r4, r3, #180224	; 0x2c000
    1984:	2e000018 	mcrcs	0, 0, r0, cr0, cr8, {0}
    1988:	193f002e 	ldmdbne	pc!, {r1, r2, r3, r5}	; <UNPREDICTABLE>
    198c:	0e6e193c 	mcreq	9, 3, r1, cr14, cr12, {1}
    1990:	0b3a0e03 	bleq	e851a4 <__bss_end__+0xe785b4>
    1994:	00000b3b 	andeq	r0, r0, fp, lsr fp
	...

Disassembly of section .debug_loc:

00000000 <.debug_loc>:
       0:	00000000 	andeq	r0, r0, r0
       4:	00000020 	andeq	r0, r0, r0, lsr #32
       8:	20500001 	subscs	r0, r0, r1
       c:	a8000000 	stmdage	r0, {}	; <UNPREDICTABLE>
      10:	04000000 	streq	r0, [r0], #-0
      14:	5001f300 	andpl	pc, r1, r0, lsl #6
      18:	0000009f 	muleq	r0, pc, r0	; <UNPREDICTABLE>
      1c:	00000000 	andeq	r0, r0, r0
      20:	00001000 	andeq	r1, r0, r0
      24:	00003c00 	andeq	r3, r0, r0, lsl #24
      28:	51000100 	mrspl	r0, (UNDEF: 16)
      2c:	0000003c 	andeq	r0, r0, ip, lsr r0
      30:	00000040 	andeq	r0, r0, r0, asr #32
      34:	7f710003 	svcvc	0x00710003
      38:	0000549f 	muleq	r0, pc, r4	; <UNPREDICTABLE>
      3c:	00005800 	andeq	r5, r0, r0, lsl #16
      40:	51000100 	mrspl	r0, (UNDEF: 16)
	...
      4c:	000000a8 	andeq	r0, r0, r8, lsr #1
      50:	000000f0 	strdeq	r0, [r0], -r0	; <UNPREDICTABLE>
      54:	f0500001 			; <UNDEFINED> instruction: 0xf0500001
      58:	10000000 	andne	r0, r0, r0
      5c:	04000001 	streq	r0, [r0], #-1
      60:	5001f300 	andpl	pc, r1, r0, lsl #6
      64:	0001109f 	muleq	r1, pc, r0	; <UNPREDICTABLE>
      68:	00011800 	andeq	r1, r1, r0, lsl #16
      6c:	50000100 	andpl	r0, r0, r0, lsl #2
      70:	00000118 	andeq	r0, r0, r8, lsl r1
      74:	000001cc 	andeq	r0, r0, ip, asr #3
      78:	01f30004 	mvnseq	r0, r4
      7c:	01cc9f50 	biceq	r9, ip, r0, asr pc
      80:	01d00000 	bicseq	r0, r0, r0
      84:	00010000 	andeq	r0, r1, r0
      88:	0001d050 	andeq	sp, r1, r0, asr r0
      8c:	00020c00 	andeq	r0, r2, r0, lsl #24
      90:	f3000400 	vshl.u8	d0, d0, d0
      94:	009f5001 	addseq	r5, pc, r1
      98:	00000000 	andeq	r0, r0, r0
      9c:	d0000000 	andle	r0, r0, r0
      a0:	cc000000 	stcgt	0, cr0, [r0], {-0}
      a4:	06000001 	streq	r0, [r0], -r1
      a8:	a7bc0300 	ldrge	r0, [ip, r0, lsl #6]!
      ac:	d49f0000 	ldrle	r0, [pc], #0	; b4 <__code_start__-0x7f4c>
      b0:	d8000001 	stmdale	r0, {r0}
      b4:	06000001 	streq	r0, [r0], -r1
      b8:	a7bc0300 	ldrge	r0, [ip, r0, lsl #6]!
      bc:	009f0000 	addseq	r0, pc, r0
      c0:	00000000 	andeq	r0, r0, r0
      c4:	d0000000 	andle	r0, r0, r0
      c8:	f8000000 			; <UNDEFINED> instruction: 0xf8000000
      cc:	02000000 	andeq	r0, r0, #0
      d0:	f89f3000 			; <UNDEFINED> instruction: 0xf89f3000
      d4:	10000000 	andne	r0, r0, r0
      d8:	01000001 	tsteq	r0, r1
      dc:	01105200 	tsteq	r0, r0, lsl #4
      e0:	01180000 	tsteq	r8, r0
      e4:	00020000 	andeq	r0, r2, r0
      e8:	01189f30 	tsteq	r8, r0, lsr pc
      ec:	01230000 	teqeq	r3, r0
      f0:	00010000 	andeq	r0, r1, r0
      f4:	00013c52 	andeq	r3, r1, r2, asr ip
      f8:	00015f00 	andeq	r5, r1, r0, lsl #30
      fc:	52000100 	andpl	r0, r0, #0, 2
     100:	00000180 	andeq	r0, r0, r0, lsl #3
     104:	00000190 	muleq	r0, r0, r1
     108:	90520001 	subsls	r0, r2, r1
     10c:	ab000001 	blge	118 <__code_start__-0x7ee8>
     110:	05000001 	streq	r0, [r0, #-1]
     114:	a7b80300 	ldrge	r0, [r8, r0, lsl #6]!
     118:	01d40000 	bicseq	r0, r4, r0
     11c:	01d80000 	bicseq	r0, r8, r0
     120:	00050000 	andeq	r0, r5, r0
     124:	00a7b803 	adceq	fp, r7, r3, lsl #16
	...
     130:	0000d000 	andeq	sp, r0, r0
     134:	0001cc00 	andeq	ip, r1, r0, lsl #24
     138:	f2000600 	vmax.s8	d0, d0, d0
     13c:	00000480 	andeq	r0, r0, r0, lsl #9
     140:	0001d400 	andeq	sp, r1, r0, lsl #8
     144:	0001d800 	andeq	sp, r1, r0, lsl #16
     148:	f2000600 	vmax.s8	d0, d0, d0
     14c:	00000480 	andeq	r0, r0, r0, lsl #9
	...
     158:	0000f000 	andeq	pc, r0, r0
     15c:	0000fc00 	andeq	pc, r0, r0, lsl #24
     160:	50000100 	andpl	r0, r0, r0, lsl #2
     164:	000000fc 	strdeq	r0, [r0], -ip
     168:	00000100 	andeq	r0, r0, r0, lsl #2
     16c:	7f700003 	svcvc	0x00700003
     170:	0000009f 	muleq	r0, pc, r0	; <UNPREDICTABLE>
     174:	00000000 	andeq	r0, r0, r0
     178:	00013c00 	andeq	r3, r1, r0, lsl #24
     17c:	0001cc00 	andeq	ip, r1, r0, lsl #24
     180:	03000600 	movweq	r0, #1536	; 0x600
     184:	0000a7bc 			; <UNDEFINED> instruction: 0x0000a7bc
     188:	0001d49f 	muleq	r1, pc, r4	; <UNPREDICTABLE>
     18c:	0001d800 	andeq	sp, r1, r0, lsl #16
     190:	03000600 	movweq	r0, #1536	; 0x600
     194:	0000a7bc 			; <UNDEFINED> instruction: 0x0000a7bc
     198:	0000009f 	muleq	r0, pc, r0	; <UNPREDICTABLE>
     19c:	00000000 	andeq	r0, r0, r0
     1a0:	00018800 	andeq	r8, r1, r0, lsl #16
     1a4:	0001cc00 	andeq	ip, r1, r0, lsl #24
     1a8:	03000600 	movweq	r0, #1536	; 0x600
     1ac:	0000a7bc 			; <UNDEFINED> instruction: 0x0000a7bc
     1b0:	0001d49f 	muleq	r1, pc, r4	; <UNPREDICTABLE>
     1b4:	0001d800 	andeq	sp, r1, r0, lsl #16
     1b8:	03000600 	movweq	r0, #1536	; 0x600
     1bc:	0000a7bc 			; <UNDEFINED> instruction: 0x0000a7bc
     1c0:	0000009f 	muleq	r0, pc, r0	; <UNPREDICTABLE>
     1c4:	00000000 	andeq	r0, r0, r0
     1c8:	00020c00 	andeq	r0, r2, r0, lsl #24
     1cc:	00021c00 	andeq	r1, r2, r0, lsl #24
     1d0:	50000100 	andpl	r0, r0, r0, lsl #2
     1d4:	0000021c 	andeq	r0, r0, ip, lsl r2
     1d8:	00000418 	andeq	r0, r0, r8, lsl r4
     1dc:	01f30004 	mvnseq	r0, r4
     1e0:	00009f50 	andeq	r9, r0, r0, asr pc
     1e4:	00000000 	andeq	r0, r0, r0
     1e8:	03200000 	teqeq	r0, #0
     1ec:	03500000 	cmpeq	r0, #0
     1f0:	00020000 	andeq	r0, r2, r0
     1f4:	03509f42 	cmpeq	r0, #264	; 0x108
     1f8:	03680000 	cmneq	r8, #0
     1fc:	00010000 	andeq	r0, r1, r0
     200:	00036850 	andeq	r6, r3, r0, asr r8
     204:	00037000 	andeq	r7, r3, r0
     208:	42000200 	andmi	r0, r0, #0, 4
     20c:	0003709f 	muleq	r3, pc, r0	; <UNPREDICTABLE>
     210:	00039b00 	andeq	r9, r3, r0, lsl #22
     214:	50000100 	andpl	r0, r0, r0, lsl #2
     218:	000003bc 			; <UNDEFINED> instruction: 0x000003bc
     21c:	00000418 	andeq	r0, r0, r8, lsl r4
     220:	00500001 	subseq	r0, r0, r1
     224:	00000000 	andeq	r0, r0, r0
     228:	48000000 	stmdami	r0, {}	; <UNPREDICTABLE>
     22c:	54000003 	strpl	r0, [r0], #-3
     230:	01000003 	tsteq	r0, r3
     234:	03545100 	cmpeq	r4, #0, 2
     238:	03580000 	cmpeq	r8, #0
     23c:	00030000 	andeq	r0, r3, r0
     240:	009f7f71 	addseq	r7, pc, r1, ror pc	; <UNPREDICTABLE>
     244:	00000000 	andeq	r0, r0, r0
     248:	18000000 	stmdane	r0, {}	; <UNPREDICTABLE>
     24c:	28000004 	stmdacs	r0, {r2}
     250:	01000004 	tsteq	r0, r4
     254:	04285000 	strteq	r5, [r8], #-0
     258:	04880000 	streq	r0, [r8], #0
     25c:	00040000 	andeq	r0, r4, r0
     260:	9f5001f3 	svcls	0x005001f3
	...
     270:	00000023 	andeq	r0, r0, r3, lsr #32
     274:	23500001 	cmpcs	r0, #1
     278:	44000000 	strmi	r0, [r0], #-0
     27c:	04000000 	streq	r0, [r0], #-0
     280:	5001f300 	andpl	pc, r1, r0, lsl #6
     284:	0000449f 	muleq	r0, pc, r4	; <UNPREDICTABLE>
     288:	00005f00 	andeq	r5, r0, r0, lsl #30
     28c:	50000100 	andpl	r0, r0, r0, lsl #2
     290:	0000005f 	andeq	r0, r0, pc, asr r0
     294:	00000080 	andeq	r0, r0, r0, lsl #1
     298:	01f30004 	mvnseq	r0, r4
     29c:	00809f50 	addeq	r9, r0, r0, asr pc
     2a0:	00b00000 	adcseq	r0, r0, r0
     2a4:	00010000 	andeq	r0, r1, r0
     2a8:	00000050 	andeq	r0, r0, r0, asr r0
	...
     2b4:	00002300 	andeq	r2, r0, r0, lsl #6
     2b8:	51000100 	mrspl	r0, (UNDEF: 16)
     2bc:	00000023 	andeq	r0, r0, r3, lsr #32
     2c0:	00000044 	andeq	r0, r0, r4, asr #32
     2c4:	01f30004 	mvnseq	r0, r4
     2c8:	00449f51 	subeq	r9, r4, r1, asr pc
     2cc:	005f0000 	subseq	r0, pc, r0
     2d0:	00010000 	andeq	r0, r1, r0
     2d4:	00005f51 	andeq	r5, r0, r1, asr pc
     2d8:	00008000 	andeq	r8, r0, r0
     2dc:	f3000400 	vshl.u8	d0, d0, d0
     2e0:	809f5101 	addshi	r5, pc, r1, lsl #2
     2e4:	b0000000 	andlt	r0, r0, r0
     2e8:	01000000 	mrseq	r0, (UNDEF: 0)
     2ec:	00005100 	andeq	r5, r0, r0, lsl #2
     2f0:	00000000 	andeq	r0, r0, r0
     2f4:	00100000 	andseq	r0, r0, r0
     2f8:	00230000 	eoreq	r0, r3, r0
     2fc:	00010000 	andeq	r0, r1, r0
     300:	00004453 	andeq	r4, r0, r3, asr r4
     304:	00004800 	andeq	r4, r0, r0, lsl #16
     308:	53000100 	movwpl	r0, #256	; 0x100
     30c:	00000048 	andeq	r0, r0, r8, asr #32
     310:	000000b0 	strheq	r0, [r0], -r0	; <UNPREDICTABLE>
     314:	ff0a0004 			; <UNDEFINED> instruction: 0xff0a0004
     318:	00009f01 	andeq	r9, r0, r1, lsl #30
     31c:	00000000 	andeq	r0, r0, r0
     320:	00440000 	subeq	r0, r4, r0
     324:	005f0000 	subseq	r0, pc, r0
     328:	00010000 	andeq	r0, r1, r0
     32c:	00005f50 	andeq	r5, r0, r0, asr pc
     330:	00008000 	andeq	r8, r0, r0
     334:	f3000400 	vshl.u8	d0, d0, d0
     338:	809f5001 	addshi	r5, pc, r1
     33c:	b0000000 	andlt	r0, r0, r0
     340:	01000000 	mrseq	r0, (UNDEF: 0)
     344:	00005000 	andeq	r5, r0, r0
     348:	00000000 	andeq	r0, r0, r0
     34c:	000c0000 	andeq	r0, ip, r0
     350:	00100000 	andseq	r0, r0, r0
     354:	00010000 	andeq	r0, r1, r0
     358:	00000053 	andeq	r0, r0, r3, asr r0
     35c:	00000000 	andeq	r0, r0, r0
     360:	00001000 	andeq	r1, r0, r0
     364:	00002300 	andeq	r2, r0, r0, lsl #6
     368:	53000100 	movwpl	r0, #256	; 0x100
     36c:	00000044 	andeq	r0, r0, r4, asr #32
     370:	0000004c 	andeq	r0, r0, ip, asr #32
     374:	00530001 	subseq	r0, r3, r1
     378:	00000000 	andeq	r0, r0, r0
     37c:	18000000 	stmdane	r0, {}	; <UNPREDICTABLE>
     380:	23000000 	movwcs	r0, #0
     384:	01000000 	mrseq	r0, (UNDEF: 0)
     388:	00445200 	subeq	r5, r4, r0, lsl #4
     38c:	00540000 	subseq	r0, r4, r0
     390:	00010000 	andeq	r0, r1, r0
     394:	00000052 	andeq	r0, r0, r2, asr r0
     398:	00000000 	andeq	r0, r0, r0
     39c:	00005400 	andeq	r5, r0, r0, lsl #8
     3a0:	00005f00 	andeq	r5, r0, r0, lsl #30
     3a4:	52000100 	andpl	r0, r0, #0, 2
     3a8:	00000080 	andeq	r0, r0, r0, lsl #1
     3ac:	000000b0 	strheq	r0, [r0], -r0	; <UNPREDICTABLE>
     3b0:	00520001 	subseq	r0, r2, r1
     3b4:	00000000 	andeq	r0, r0, r0
     3b8:	b0000000 	andlt	r0, r0, r0
     3bc:	d3000000 	movwle	r0, #0
     3c0:	01000000 	mrseq	r0, (UNDEF: 0)
     3c4:	00d35000 	sbcseq	r5, r3, r0
     3c8:	00ec0000 	rsceq	r0, ip, r0
     3cc:	00040000 	andeq	r0, r4, r0
     3d0:	9f5001f3 	svcls	0x005001f3
     3d4:	000000ec 	andeq	r0, r0, ip, ror #1
     3d8:	000000ff 	strdeq	r0, [r0], -pc	; <UNPREDICTABLE>
     3dc:	ff500001 			; <UNDEFINED> instruction: 0xff500001
     3e0:	20000000 	andcs	r0, r0, r0
     3e4:	04000001 	streq	r0, [r0], #-1
     3e8:	5001f300 	andpl	pc, r1, r0, lsl #6
     3ec:	0001209f 	muleq	r1, pc, r0	; <UNPREDICTABLE>
     3f0:	00013300 	andeq	r3, r1, r0, lsl #6
     3f4:	50000100 	andpl	r0, r0, r0, lsl #2
     3f8:	00000133 	andeq	r0, r0, r3, lsr r1
     3fc:	00000154 	andeq	r0, r0, r4, asr r1
     400:	01f30004 	mvnseq	r0, r4
     404:	01549f50 	cmpeq	r4, r0, asr pc
     408:	015c0000 	cmpeq	ip, r0
     40c:	00010000 	andeq	r0, r1, r0
     410:	00015c50 	andeq	r5, r1, r0, asr ip
     414:	00015f00 	andeq	r5, r1, r0, lsl #30
     418:	51000100 	mrspl	r0, (UNDEF: 16)
     41c:	0000015f 	andeq	r0, r0, pc, asr r1
     420:	0000018c 	andeq	r0, r0, ip, lsl #3
     424:	01f30004 	mvnseq	r0, r4
     428:	00009f50 	andeq	r9, r0, r0, asr pc
     42c:	00000000 	andeq	r0, r0, r0
     430:	00c40000 	sbceq	r0, r4, r0
     434:	00c80000 	sbceq	r0, r8, r0
     438:	00010000 	andeq	r0, r1, r0
     43c:	00000053 	andeq	r0, r0, r3, asr r0
     440:	00000000 	andeq	r0, r0, r0
     444:	0000f000 	andeq	pc, r0, r0
     448:	0000f400 	andeq	pc, r0, r0, lsl #8
     44c:	53000100 	movwpl	r0, #256	; 0x100
     450:	000000f4 	strdeq	r0, [r0], -r4
     454:	000000ff 	strdeq	r0, [r0], -pc	; <UNPREDICTABLE>
     458:	04730003 	ldrbteq	r0, [r3], #-3
     45c:	0001209f 	muleq	r1, pc, r0	; <UNPREDICTABLE>
     460:	00012400 	andeq	r2, r1, r0, lsl #8
     464:	73000300 	movwvc	r0, #768	; 0x300
     468:	00009f04 	andeq	r9, r0, r4, lsl #30
     46c:	00000000 	andeq	r0, r0, r0
     470:	01d00000 	bicseq	r0, r0, r0
     474:	01d80000 	bicseq	r0, r8, r0
     478:	00010000 	andeq	r0, r1, r0
     47c:	0001d853 	andeq	sp, r1, r3, asr r8
     480:	0001fc00 	andeq	pc, r1, r0, lsl #24
     484:	0a000400 	beq	148c <__code_start__-0x6b74>
     488:	009f01e7 	addseq	r0, pc, r7, ror #3
     48c:	00000000 	andeq	r0, r0, r0
     490:	cc000000 	stcgt	0, cr0, [r0], {-0}
     494:	d0000001 	andle	r0, r0, r1
     498:	01000001 	tsteq	r0, r1
     49c:	00005300 	andeq	r5, r0, r0, lsl #6
     4a0:	00000000 	andeq	r0, r0, r0
     4a4:	01d00000 	bicseq	r0, r0, r0
     4a8:	01dc0000 	bicseq	r0, ip, r0
     4ac:	00010000 	andeq	r0, r1, r0
     4b0:	00000053 	andeq	r0, r0, r3, asr r0
     4b4:	00000000 	andeq	r0, r0, r0
     4b8:	0001fc00 	andeq	pc, r1, r0, lsl #24
     4bc:	00021b00 	andeq	r1, r2, r0, lsl #22
     4c0:	50000100 	andpl	r0, r0, r0, lsl #2
     4c4:	0000021b 	andeq	r0, r0, fp, lsl r2
     4c8:	00000234 	andeq	r0, r0, r4, lsr r2
     4cc:	01f30004 	mvnseq	r0, r4
     4d0:	02349f50 	eorseq	r9, r4, #80, 30	; 0x140
     4d4:	02470000 	subeq	r0, r7, #0
     4d8:	00010000 	andeq	r0, r1, r0
     4dc:	00024750 	andeq	r4, r2, r0, asr r7
     4e0:	00026800 	andeq	r6, r2, r0, lsl #16
     4e4:	f3000400 	vshl.u8	d0, d0, d0
     4e8:	689f5001 	ldmvs	pc, {r0, ip, lr}	; <UNPREDICTABLE>
     4ec:	70000002 	andvc	r0, r0, r2
     4f0:	01000002 	tsteq	r0, r2
     4f4:	02705000 	rsbseq	r5, r0, #0
     4f8:	02730000 	rsbseq	r0, r3, #0
     4fc:	00010000 	andeq	r0, r1, r0
     500:	00027351 	andeq	r7, r2, r1, asr r3
     504:	00029400 	andeq	r9, r2, r0, lsl #8
     508:	f3000400 	vshl.u8	d0, d0, d0
     50c:	009f5001 	addseq	r5, pc, r1
     510:	00000000 	andeq	r0, r0, r0
     514:	0c000000 	stceq	0, cr0, [r0], {-0}
     518:	10000002 	andne	r0, r0, r2
     51c:	01000002 	tsteq	r0, r2
     520:	00005300 	andeq	r5, r0, r0, lsl #6
     524:	00000000 	andeq	r0, r0, r0
     528:	02cc0000 	sbceq	r0, ip, #0
     52c:	02d40000 	sbcseq	r0, r4, #0
     530:	00010000 	andeq	r0, r1, r0
     534:	0002d453 	andeq	sp, r2, r3, asr r4
     538:	0002f800 	andeq	pc, r2, r0, lsl #16
     53c:	0c000600 	stceq	6, cr0, [r0], {-0}
     540:	004001e7 	subeq	r0, r0, r7, ror #3
     544:	0000009f 	muleq	r0, pc, r0	; <UNPREDICTABLE>
     548:	00000000 	andeq	r0, r0, r0
     54c:	0002c800 	andeq	ip, r2, r0, lsl #16
     550:	0002cc00 	andeq	ip, r2, r0, lsl #24
     554:	53000100 	movwpl	r0, #256	; 0x100
	...
     560:	000002cc 	andeq	r0, r0, ip, asr #5
     564:	000002d8 	ldrdeq	r0, [r0], -r8
     568:	00530001 	subseq	r0, r3, r1
     56c:	00000000 	andeq	r0, r0, r0
     570:	08000000 	stmdaeq	r0, {}	; <UNPREDICTABLE>
     574:	24000003 	strcs	r0, [r0], #-3
     578:	01000003 	tsteq	r0, r3
     57c:	03245000 	teqeq	r4, #0
     580:	03280000 	teqeq	r8, #0
     584:	00040000 	andeq	r0, r4, r0
     588:	9f5001f3 	svcls	0x005001f3
     58c:	00000328 	andeq	r0, r0, r8, lsr #6
     590:	00000340 	andeq	r0, r0, r0, asr #6
     594:	40500001 	subsmi	r0, r0, r1
     598:	48000003 	stmdami	r0, {r0, r1}
     59c:	04000003 	streq	r0, [r0], #-3
     5a0:	5001f300 	andpl	pc, r1, r0, lsl #6
     5a4:	0003489f 	muleq	r3, pc, r8	; <UNPREDICTABLE>
     5a8:	00035400 	andeq	r5, r3, r0, lsl #8
     5ac:	50000100 	andpl	r0, r0, r0, lsl #2
     5b0:	00000354 	andeq	r0, r0, r4, asr r3
     5b4:	00000364 	andeq	r0, r0, r4, ror #6
     5b8:	01f30004 	mvnseq	r0, r4
     5bc:	03649f50 	cmneq	r4, #80, 30	; 0x140
     5c0:	03680000 	cmneq	r8, #0
     5c4:	00010000 	andeq	r0, r1, r0
     5c8:	00036850 	andeq	r6, r3, r0, asr r8
     5cc:	00036c00 	andeq	r6, r3, r0, lsl #24
     5d0:	f3000400 	vshl.u8	d0, d0, d0
     5d4:	6c9f5001 	ldcvs	0, cr5, [pc], {1}
     5d8:	70000003 	andvc	r0, r0, r3
     5dc:	01000003 	tsteq	r0, r3
     5e0:	03705000 	cmneq	r0, #0
     5e4:	03780000 	cmneq	r8, #0
     5e8:	00040000 	andeq	r0, r4, r0
     5ec:	9f5001f3 	svcls	0x005001f3
	...
     5f8:	00000308 	andeq	r0, r0, r8, lsl #6
     5fc:	00000358 	andeq	r0, r0, r8, asr r3
     600:	58510001 	ldmdapl	r1, {r0}^
     604:	64000003 	strvs	r0, [r0], #-3
     608:	04000003 	streq	r0, [r0], #-3
     60c:	5101f300 	mrspl	pc, SP_irq	; <UNPREDICTABLE>
     610:	0003649f 	muleq	r3, pc, r4	; <UNPREDICTABLE>
     614:	00037800 	andeq	r7, r3, r0, lsl #16
     618:	51000100 	mrspl	r0, (UNDEF: 16)
	...
     624:	00000314 	andeq	r0, r0, r4, lsl r3
     628:	00000334 	andeq	r0, r0, r4, lsr r3
     62c:	34530001 	ldrbcc	r0, [r3], #-1
     630:	40000003 	andmi	r0, r0, r3
     634:	0a000003 	beq	648 <__code_start__-0x79b8>
     638:	06007000 	streq	r7, [r0], -r0
     63c:	ffffff0c 			; <UNDEFINED> instruction: 0xffffff0c
     640:	409f1a00 	addsmi	r1, pc, r0, lsl #20
     644:	44000003 	strmi	r0, [r0], #-3
     648:	0b000003 	bleq	65c <__code_start__-0x79a4>
     64c:	5001f300 	andpl	pc, r1, r0, lsl #6
     650:	ffff0c06 			; <UNDEFINED> instruction: 0xffff0c06
     654:	9f1a00ff 	svcls	0x001a00ff
     658:	00000348 	andeq	r0, r0, r8, asr #6
     65c:	0000035b 	andeq	r0, r0, fp, asr r3
     660:	64530001 	ldrbvs	r0, [r3], #-1
     664:	68000003 	stmdavs	r0, {r0, r1}
     668:	0a000003 	beq	67c <__code_start__-0x7984>
     66c:	06007000 	streq	r7, [r0], -r0
     670:	ffffff0c 			; <UNDEFINED> instruction: 0xffffff0c
     674:	689f1a00 	ldmvs	pc, {r9, fp, ip}	; <UNPREDICTABLE>
     678:	6c000003 	stcvs	0, cr0, [r0], {3}
     67c:	0b000003 	bleq	690 <__code_start__-0x7970>
     680:	5001f300 	andpl	pc, r1, r0, lsl #6
     684:	ffff0c06 			; <UNDEFINED> instruction: 0xffff0c06
     688:	9f1a00ff 	svcls	0x001a00ff
     68c:	0000036c 	andeq	r0, r0, ip, ror #6
     690:	00000378 	andeq	r0, r0, r8, ror r3
     694:	00530001 	subseq	r0, r3, r1
	...
     6a0:	24000000 	strcs	r0, [r0], #-0
     6a4:	01000000 	mrseq	r0, (UNDEF: 0)
     6a8:	00245000 	eoreq	r5, r4, r0
     6ac:	01ac0000 			; <UNDEFINED> instruction: 0x01ac0000
     6b0:	00040000 	andeq	r0, r4, r0
     6b4:	9f5001f3 	svcls	0x005001f3
	...
     6c4:	00000028 	andeq	r0, r0, r8, lsr #32
     6c8:	28510001 	ldmdacs	r1, {r0}^
     6cc:	78000000 	stmdavc	r0, {}	; <UNPREDICTABLE>
     6d0:	01000001 	tsteq	r0, r1
     6d4:	01785500 	cmneq	r8, r0, lsl #10
     6d8:	01ac0000 			; <UNDEFINED> instruction: 0x01ac0000
     6dc:	00040000 	andeq	r0, r4, r0
     6e0:	9f5101f3 	svcls	0x005101f3
	...
     6f0:	0000002c 	andeq	r0, r0, ip, lsr #32
     6f4:	2c520001 	mrrccs	0, 0, r0, r2, cr1
     6f8:	ac000000 	stcge	0, cr0, [r0], {-0}
     6fc:	04000001 	streq	r0, [r0], #-1
     700:	5201f300 	andpl	pc, r1, #0, 6
     704:	0000009f 	muleq	r0, pc, r0	; <UNPREDICTABLE>
     708:	00000000 	andeq	r0, r0, r0
     70c:	00006800 	andeq	r6, r0, r0, lsl #16
     710:	00017800 	andeq	r7, r1, r0, lsl #16
     714:	54000100 	strpl	r0, [r0], #-256	; 0x100
	...
     720:	00000038 	andeq	r0, r0, r8, lsr r0
     724:	0000003c 	andeq	r0, r0, ip, lsr r0
     728:	00530001 	subseq	r0, r3, r1
     72c:	00000000 	andeq	r0, r0, r0
     730:	ac000000 	stcge	0, cr0, [r0], {-0}
     734:	e8000001 	stmda	r0, {r0}
     738:	01000001 	tsteq	r0, r1
     73c:	01e85000 	mvneq	r5, r0
     740:	062c0000 	strteq	r0, [ip], -r0
     744:	00010000 	andeq	r0, r1, r0
     748:	00062c54 	andeq	r2, r6, r4, asr ip
     74c:	00068c00 	andeq	r8, r6, r0, lsl #24
     750:	f3000400 	vshl.u8	d0, d0, d0
     754:	009f5001 	addseq	r5, pc, r1
     758:	00000000 	andeq	r0, r0, r0
     75c:	bc000000 	stclt	0, cr0, [r0], {-0}
     760:	08000001 	stmdaeq	r0, {r0}
     764:	01000005 	tsteq	r0, r5
     768:	00005800 	andeq	r5, r0, r0, lsl #16
     76c:	00000000 	andeq	r0, r0, r0
     770:	02c00000 	sbceq	r0, r0, #0
     774:	05080000 	streq	r0, [r8, #-0]
     778:	00010000 	andeq	r0, r1, r0
     77c:	00000058 	andeq	r0, r0, r8, asr r0
     780:	00000000 	andeq	r0, r0, r0
     784:	0003e000 	andeq	lr, r3, r0
     788:	00062c00 	andeq	r2, r6, r0, lsl #24
     78c:	55000100 	strpl	r0, [r0, #-256]	; 0x100
	...
     798:	00000504 	andeq	r0, r0, r4, lsl #10
     79c:	00000508 	andeq	r0, r0, r8, lsl #10
     7a0:	00580001 	subseq	r0, r8, r1
     7a4:	00000000 	andeq	r0, r0, r0
     7a8:	74000000 	strvc	r0, [r0], #-0
     7ac:	78000005 	stmdavc	r0, {r0, r2}
     7b0:	01000005 	tsteq	r0, r5
     7b4:	00005300 	andeq	r5, r0, r0, lsl #6
     7b8:	00000000 	andeq	r0, r0, r0
     7bc:	068c0000 	streq	r0, [ip], r0
     7c0:	069c0000 	ldreq	r0, [ip], r0
     7c4:	00010000 	andeq	r0, r1, r0
     7c8:	00069c50 	andeq	r9, r6, r0, asr ip
     7cc:	00071000 	andeq	r1, r7, r0
     7d0:	54000100 	strpl	r0, [r0], #-256	; 0x100
	...
     7dc:	00000694 	muleq	r0, r4, r6
     7e0:	0000069c 	muleq	r0, ip, r6
     7e4:	9f300002 	svcls	0x00300002
     7e8:	0000069c 	muleq	r0, ip, r6
     7ec:	00000710 	andeq	r0, r0, r0, lsl r7
     7f0:	00550001 	subseq	r0, r5, r1
     7f4:	00000000 	andeq	r0, r0, r0
     7f8:	38000000 	stmdacc	r0, {}	; <UNPREDICTABLE>
     7fc:	43000007 	movwmi	r0, #7
     800:	01000007 	tsteq	r0, r7
     804:	07435000 	strbeq	r5, [r3, -r0]
     808:	07840000 	streq	r0, [r4, r0]
     80c:	00010000 	andeq	r0, r1, r0
     810:	00000054 	andeq	r0, r0, r4, asr r0
	...
     81c:	00000400 	andeq	r0, r0, r0, lsl #8
     820:	52000100 	andpl	r0, r0, #0, 2
     824:	00000004 	andeq	r0, r0, r4
     828:	00000020 	andeq	r0, r0, r0, lsr #32
     82c:	01f30004 	mvnseq	r0, r4
     830:	00009f52 	andeq	r9, r0, r2, asr pc
	...
     83c:	000c0000 	andeq	r0, ip, r0
     840:	00010000 	andeq	r0, r1, r0
     844:	00000c50 	andeq	r0, r0, r0, asr ip
     848:	00001400 	andeq	r1, r0, r0, lsl #8
     84c:	73000300 	movwvc	r0, #768	; 0x300
     850:	00149f01 	andseq	r9, r4, r1, lsl #30
     854:	00200000 	eoreq	r0, r0, r0
     858:	00010000 	andeq	r0, r1, r0
     85c:	00000053 	andeq	r0, r0, r3, asr r0
     860:	00000000 	andeq	r0, r0, r0
     864:	00002c00 	andeq	r2, r0, r0, lsl #24
     868:	00003800 	andeq	r3, r0, r0, lsl #16
     86c:	50000100 	andpl	r0, r0, r0, lsl #2
     870:	00000038 	andeq	r0, r0, r8, lsr r0
     874:	00000048 	andeq	r0, r0, r8, asr #32
     878:	48550001 	ldmdami	r5, {r0}^
     87c:	58000000 	stmdapl	r0, {}	; <UNPREDICTABLE>
     880:	01000000 	mrseq	r0, (UNDEF: 0)
     884:	00005000 	andeq	r5, r0, r0
	...
     890:	000b0000 	andeq	r0, fp, r0
     894:	00010000 	andeq	r0, r1, r0
     898:	00000b50 	andeq	r0, r0, r0, asr fp
     89c:	00001400 	andeq	r1, r0, r0, lsl #8
     8a0:	54000100 	strpl	r0, [r0], #-256	; 0x100
	...
     8b0:	00000010 	andeq	r0, r0, r0, lsl r0
     8b4:	10500001 	subsne	r0, r0, r1
     8b8:	34000000 	strcc	r0, [r0], #-0
     8bc:	01000000 	mrseq	r0, (UNDEF: 0)
     8c0:	00005400 	andeq	r5, r0, r0, lsl #8
	...
     8cc:	00040000 	andeq	r0, r4, r0
     8d0:	00010000 	andeq	r0, r1, r0
     8d4:	00000450 	andeq	r0, r0, r0, asr r4
     8d8:	00000c00 	andeq	r0, r0, r0, lsl #24
     8dc:	70000300 	andvc	r0, r0, r0, lsl #6
     8e0:	000c9f30 	andeq	r9, ip, r0, lsr pc
     8e4:	00140000 	andseq	r0, r4, r0
     8e8:	00040000 	andeq	r0, r4, r0
     8ec:	9f5001f3 	svcls	0x005001f3
	...
     8f8:	00000014 	andeq	r0, r0, r4, lsl r0
     8fc:	00000020 	andeq	r0, r0, r0, lsr #32
     900:	20500001 	subscs	r0, r0, r1
     904:	2c000000 	stccs	0, cr0, [r0], {-0}
     908:	03000000 	movweq	r0, #0
     90c:	9f017000 	svcls	0x00017000
     910:	0000002c 	andeq	r0, r0, ip, lsr #32
     914:	00000040 	andeq	r0, r0, r0, asr #32
     918:	00500001 	subseq	r0, r0, r1
     91c:	00000000 	andeq	r0, r0, r0
     920:	14000000 	strne	r0, [r0], #-0
     924:	18000000 	stmdane	r0, {}	; <UNPREDICTABLE>
     928:	01000000 	mrseq	r0, (UNDEF: 0)
     92c:	00185100 	andseq	r5, r8, r0, lsl #2
     930:	00400000 	subeq	r0, r0, r0
     934:	00040000 	andeq	r0, r4, r0
     938:	9f5101f3 	svcls	0x005101f3
	...
     944:	00000040 	andeq	r0, r0, r0, asr #32
     948:	00000060 	andeq	r0, r0, r0, rrx
     94c:	60500001 	subsvs	r0, r0, r1
     950:	6c000000 	stcvs	0, cr0, [r0], {-0}
     954:	03000000 	movweq	r0, #0
     958:	9f017100 	svcls	0x00017100
     95c:	0000006c 	andeq	r0, r0, ip, rrx
     960:	00000074 	andeq	r0, r0, r4, ror r0
     964:	74510001 	ldrbvc	r0, [r1], #-1
     968:	80000000 	andhi	r0, r0, r0
     96c:	03000000 	movweq	r0, #0
     970:	9f017100 	svcls	0x00017100
	...
     97c:	00000040 	andeq	r0, r0, r0, asr #32
     980:	00000050 	andeq	r0, r0, r0, asr r0
     984:	50510001 	subspl	r0, r1, r1
     988:	80000000 	andhi	r0, r0, r0
     98c:	04000000 	streq	r0, [r0], #-0
     990:	5101f300 	mrspl	pc, SP_irq	; <UNPREDICTABLE>
     994:	0000009f 	muleq	r0, pc, r0	; <UNPREDICTABLE>
     998:	00000000 	andeq	r0, r0, r0
     99c:	00004000 	andeq	r4, r0, r0
     9a0:	00005800 	andeq	r5, r0, r0, lsl #16
     9a4:	52000100 	andpl	r0, r0, #0, 2
     9a8:	00000058 	andeq	r0, r0, r8, asr r0
     9ac:	00000064 	andeq	r0, r0, r4, rrx
     9b0:	64520001 	ldrbvs	r0, [r2], #-1
     9b4:	68000000 	stmdavs	r0, {}	; <UNPREDICTABLE>
     9b8:	03000000 	movweq	r0, #0
     9bc:	9f017200 	svcls	0x00017200
     9c0:	00000068 	andeq	r0, r0, r8, rrx
     9c4:	00000080 	andeq	r0, r0, r0, lsl #1
     9c8:	00520001 	subseq	r0, r2, r1
     9cc:	00000000 	andeq	r0, r0, r0
     9d0:	40000000 	andmi	r0, r0, r0
     9d4:	54000000 	strpl	r0, [r0], #-0
     9d8:	01000000 	mrseq	r0, (UNDEF: 0)
     9dc:	00545300 	subseq	r5, r4, r0, lsl #6
     9e0:	00780000 	rsbseq	r0, r8, r0
     9e4:	00010000 	andeq	r0, r1, r0
     9e8:	00000053 	andeq	r0, r0, r3, asr r0
     9ec:	00000000 	andeq	r0, r0, r0
     9f0:	00004800 	andeq	r4, r0, r0, lsl #16
     9f4:	00006000 	andeq	r6, r0, r0
     9f8:	5c000100 	stfpls	f0, [r0], {-0}
     9fc:	00000060 	andeq	r0, r0, r0, rrx
     a00:	00000080 	andeq	r0, r0, r0, lsl #1
     a04:	01f3000a 	mvnseq	r0, sl
     a08:	5301f352 	movwpl	pc, #4946	; 0x1352	; <UNPREDICTABLE>
     a0c:	9f01231c 	svcls	0x0001231c
	...
     a18:	00000080 	andeq	r0, r0, r0, lsl #1
     a1c:	000000a4 	andeq	r0, r0, r4, lsr #1
     a20:	a4500001 	ldrbge	r0, [r0], #-1
     a24:	18000000 	stmdane	r0, {}	; <UNPREDICTABLE>
     a28:	03000001 	movweq	r0, #1
     a2c:	9f027000 	svcls	0x00027000
     a30:	00000118 	andeq	r0, r0, r8, lsl r1
     a34:	0000023c 	andeq	r0, r0, ip, lsr r2
     a38:	01f30004 	mvnseq	r0, r4
     a3c:	00009f50 	andeq	r9, r0, r0, asr pc
     a40:	00000000 	andeq	r0, r0, r0
     a44:	00800000 	addeq	r0, r0, r0
     a48:	00f00000 	rscseq	r0, r0, r0
     a4c:	00010000 	andeq	r0, r1, r0
     a50:	0000f051 	andeq	pc, r0, r1, asr r0	; <UNPREDICTABLE>
     a54:	00016000 	andeq	r6, r1, r0
     a58:	55000100 	strpl	r0, [r0, #-256]	; 0x100
     a5c:	00000160 	andeq	r0, r0, r0, ror #2
     a60:	0000016c 	andeq	r0, r0, ip, ror #2
     a64:	6c510001 	mrrcvs	0, 0, r0, r1, cr1
     a68:	a0000001 	andge	r0, r0, r1
     a6c:	01000001 	tsteq	r0, r1
     a70:	01a05500 	lsleq	r5, r0, #10
     a74:	01b40000 			; <UNDEFINED> instruction: 0x01b40000
     a78:	00010000 	andeq	r0, r1, r0
     a7c:	0001b451 	andeq	fp, r1, r1, asr r4
     a80:	0001d400 	andeq	sp, r1, r0, lsl #8
     a84:	55000100 	strpl	r0, [r0, #-256]	; 0x100
     a88:	000001d4 	ldrdeq	r0, [r0], -r4
     a8c:	000001d7 	ldrdeq	r0, [r0], -r7
     a90:	d7510001 	ldrble	r0, [r1, -r1]
     a94:	1c000001 	stcne	0, cr0, [r0], {1}
     a98:	01000002 	tsteq	r0, r2
     a9c:	021c5500 	andseq	r5, ip, #0, 10
     aa0:	023c0000 	eorseq	r0, ip, #0
     aa4:	00040000 	andeq	r0, r4, r0
     aa8:	9f5101f3 	svcls	0x005101f3
	...
     ab4:	00000080 	andeq	r0, r0, r0, lsl #1
     ab8:	00000094 	muleq	r0, r4, r0
     abc:	94520001 	ldrbls	r0, [r2], #-1
     ac0:	1c000000 	stcne	0, cr0, [r0], {-0}
     ac4:	01000002 	tsteq	r0, r2
     ac8:	021c5400 	andseq	r5, ip, #0, 8
     acc:	023c0000 	eorseq	r0, ip, #0
     ad0:	00040000 	andeq	r0, r4, r0
     ad4:	9f5201f3 	svcls	0x005201f3
	...
     ae0:	00000080 	andeq	r0, r0, r0, lsl #1
     ae4:	00000100 	andeq	r0, r0, r0, lsl #2
     ae8:	04530001 	ldrbeq	r0, [r3], #-1
     aec:	08000001 	stmdaeq	r0, {r0}
     af0:	01000001 	tsteq	r0, r1
     af4:	01605300 	cmneq	r0, r0, lsl #6
     af8:	01640000 	cmneq	r4, r0
     afc:	00010000 	andeq	r0, r1, r0
     b00:	00016453 	andeq	r6, r1, r3, asr r4
     b04:	00016c00 	andeq	r6, r1, r0, lsl #24
     b08:	5c000100 	stfpls	f0, [r0], {-0}
     b0c:	0000016c 	andeq	r0, r0, ip, ror #2
     b10:	000001a0 	andeq	r0, r0, r0, lsr #3
     b14:	01f30004 	mvnseq	r0, r4
     b18:	01a09f53 	asreq	r9, r3, pc
     b1c:	01b00000 	movseq	r0, r0
     b20:	00010000 	andeq	r0, r1, r0
     b24:	0001b053 	andeq	fp, r1, r3, asr r0
     b28:	0001b400 	andeq	fp, r1, r0, lsl #8
     b2c:	5c000100 	stfpls	f0, [r0], {-0}
     b30:	000001b4 			; <UNDEFINED> instruction: 0x000001b4
     b34:	000001d4 	ldrdeq	r0, [r0], -r4
     b38:	01f30004 	mvnseq	r0, r4
     b3c:	01d49f53 	bicseq	r9, r4, r3, asr pc
     b40:	01d70000 	bicseq	r0, r7, r0
     b44:	00010000 	andeq	r0, r1, r0
     b48:	0001d753 	andeq	sp, r1, r3, asr r7
     b4c:	0001f800 	andeq	pc, r1, r0, lsl #16
     b50:	f3000400 	vshl.u8	d0, d0, d0
     b54:	009f5301 	addseq	r5, pc, r1, lsl #6
     b58:	00000000 	andeq	r0, r0, r0
     b5c:	80000000 	andhi	r0, r0, r0
     b60:	9c000000 	stcls	0, cr0, [r0], {-0}
     b64:	02000000 	andeq	r0, r0, #0
     b68:	9c009100 	stflsd	f1, [r0], {-0}
     b6c:	d7000000 	strle	r0, [r0, -r0]
     b70:	01000001 	tsteq	r0, r1
     b74:	01f85200 	mvnseq	r5, r0, lsl #4
     b78:	01ff0000 	mvnseq	r0, r0
     b7c:	00010000 	andeq	r0, r1, r0
     b80:	00000052 	andeq	r0, r0, r2, asr r0
     b84:	00000000 	andeq	r0, r0, r0
     b88:	00009c00 	andeq	r9, r0, r0, lsl #24
     b8c:	00010c00 	andeq	r0, r1, r0, lsl #24
     b90:	91000400 	tstls	r0, r0, lsl #8
     b94:	0c9f7fa0 	ldceq	15, cr7, [pc], {160}	; 0xa0
     b98:	18000001 	stmdane	r0, {r0}
     b9c:	01000001 	tsteq	r0, r1
     ba0:	01185100 	tsteq	r8, r0, lsl #2
     ba4:	011c0000 	tsteq	ip, r0
     ba8:	00010000 	andeq	r0, r1, r0
     bac:	00011c50 	andeq	r1, r1, r0, asr ip
     bb0:	00012000 	andeq	r2, r1, r0
     bb4:	51000100 	mrspl	r0, (UNDEF: 16)
     bb8:	00000120 	andeq	r0, r0, r0, lsr #2
     bbc:	00000160 	andeq	r0, r0, r0, ror #2
     bc0:	60500001 	subsvs	r0, r0, r1
     bc4:	64000001 	strvs	r0, [r0], #-1
     bc8:	04000001 	streq	r0, [r0], #-1
     bcc:	7fa09100 	svcvc	0x00a09100
     bd0:	0001649f 	muleq	r1, pc, r4	; <UNPREDICTABLE>
     bd4:	00016c00 	andeq	r6, r1, r0, lsl #24
     bd8:	53000100 	movwpl	r0, #256	; 0x100
     bdc:	0000016c 	andeq	r0, r0, ip, ror #2
     be0:	00000170 	andeq	r0, r0, r0, ror r1
     be4:	70500001 	subsvc	r0, r0, r1
     be8:	74000001 	strvc	r0, [r0], #-1
     bec:	01000001 	tsteq	r0, r1
     bf0:	01745300 	cmneq	r4, r0, lsl #6
     bf4:	01880000 	orreq	r0, r8, r0
     bf8:	00010000 	andeq	r0, r1, r0
     bfc:	00018850 	andeq	r8, r1, r0, asr r8
     c00:	00019400 	andeq	r9, r1, r0, lsl #8
     c04:	70000300 	andvc	r0, r0, r0, lsl #6
     c08:	01949f01 	orrseq	r9, r4, r1, lsl #30
     c0c:	01a00000 	moveq	r0, r0
     c10:	00010000 	andeq	r0, r1, r0
     c14:	0001a050 	andeq	sl, r1, r0, asr r0
     c18:	0001a800 	andeq	sl, r1, r0, lsl #16
     c1c:	91000400 	tstls	r0, r0, lsl #8
     c20:	a89f7fa1 	ldmge	pc, {r0, r5, r7, r8, r9, sl, fp, ip, sp, lr}	; <UNPREDICTABLE>
     c24:	ac000001 	stcge	0, cr0, [r0], {1}
     c28:	01000001 	tsteq	r0, r1
     c2c:	01ac5000 			; <UNDEFINED> instruction: 0x01ac5000
     c30:	01b00000 	movseq	r0, r0
     c34:	00040000 	andeq	r0, r4, r0
     c38:	9f7fa091 	svcls	0x007fa091
     c3c:	000001b0 			; <UNDEFINED> instruction: 0x000001b0
     c40:	000001b8 			; <UNDEFINED> instruction: 0x000001b8
     c44:	b8530001 	ldmdalt	r3, {r0}^
     c48:	d4000001 	strle	r0, [r0], #-1
     c4c:	01000001 	tsteq	r0, r1
     c50:	01d45000 	bicseq	r5, r4, r0
     c54:	01f80000 	mvnseq	r0, r0
     c58:	00040000 	andeq	r0, r4, r0
     c5c:	9f7fa091 	svcls	0x007fa091
     c60:	000001f8 	strdeq	r0, [r0], -r8
     c64:	000001ff 	strdeq	r0, [r0], -pc	; <UNPREDICTABLE>
     c68:	00500001 	subseq	r0, r0, r1
     c6c:	00000000 	andeq	r0, r0, r0
     c70:	a0000000 	andge	r0, r0, r0
     c74:	ec000000 	stc	0, cr0, [r0], {-0}
     c78:	01000000 	mrseq	r0, (UNDEF: 0)
     c7c:	00ec5c00 	rsceq	r5, ip, r0, lsl #24
     c80:	01000000 	mrseq	r0, (UNDEF: 0)
     c84:	00010000 	andeq	r0, r1, r0
     c88:	00010053 	andeq	r0, r1, r3, asr r0
     c8c:	00010400 	andeq	r0, r1, r0, lsl #8
     c90:	5c000100 	stfpls	f0, [r0], {-0}
     c94:	00000104 	andeq	r0, r0, r4, lsl #2
     c98:	00000108 	andeq	r0, r0, r8, lsl #2
     c9c:	08530001 	ldmdaeq	r3, {r0}^
     ca0:	60000001 	andvs	r0, r0, r1
     ca4:	01000001 	tsteq	r0, r1
     ca8:	01605c00 	cmneq	r0, r0, lsl #24
     cac:	01640000 	cmneq	r4, r0
     cb0:	00010000 	andeq	r0, r1, r0
     cb4:	00016453 	andeq	r6, r1, r3, asr r4
     cb8:	00018000 	andeq	r8, r1, r0
     cbc:	5c000100 	stfpls	f0, [r0], {-0}
     cc0:	00000180 	andeq	r0, r0, r0, lsl #3
     cc4:	00000184 	andeq	r0, r0, r4, lsl #3
     cc8:	007c0005 	rsbseq	r0, ip, r5
     ccc:	849f2534 	ldrhi	r2, [pc], #1332	; cd4 <__code_start__-0x732c>
     cd0:	a0000001 	andge	r0, r0, r1
     cd4:	01000001 	tsteq	r0, r1
     cd8:	01a05c00 	lsleq	r5, r0, #24
     cdc:	01b00000 	movseq	r0, r0
     ce0:	00010000 	andeq	r0, r1, r0
     ce4:	0001b053 	andeq	fp, r1, r3, asr r0
     ce8:	0001c400 	andeq	ip, r1, r0, lsl #8
     cec:	5c000100 	stfpls	f0, [r0], {-0}
     cf0:	000001c4 	andeq	r0, r0, r4, asr #3
     cf4:	000001cc 	andeq	r0, r0, ip, asr #3
     cf8:	007c0005 	rsbseq	r0, ip, r5
     cfc:	cc9f2531 	cfldr32gt	mvfx2, [pc], {49}	; 0x31
     d00:	d4000001 	strle	r0, [r0], #-1
     d04:	01000001 	tsteq	r0, r1
     d08:	01d45c00 	bicseq	r5, r4, r0, lsl #24
     d0c:	01d70000 	bicseq	r0, r7, r0
     d10:	00010000 	andeq	r0, r1, r0
     d14:	0001d753 	andeq	sp, r1, r3, asr r7
     d18:	0001f800 	andeq	pc, r1, r0, lsl #16
     d1c:	f3000400 	vshl.u8	d0, d0, d0
     d20:	f89f5301 			; <UNDEFINED> instruction: 0xf89f5301
     d24:	ff000001 			; <UNDEFINED> instruction: 0xff000001
     d28:	01000001 	tsteq	r0, r1
     d2c:	00005c00 	andeq	r5, r0, r0, lsl #24
     d30:	00000000 	andeq	r0, r0, r0
     d34:	00ec0000 	rsceq	r0, ip, r0
     d38:	00fc0000 	rscseq	r0, ip, r0
     d3c:	00020000 	andeq	r0, r2, r0
     d40:	00fc9f30 	rscseq	r9, ip, r0, lsr pc
     d44:	01040000 	mrseq	r0, (UNDEF: 4)
     d48:	00020000 	andeq	r0, r2, r0
     d4c:	01049f31 	tsteq	r4, r1, lsr pc
     d50:	01080000 	mrseq	r0, (UNDEF: 8)
     d54:	00020000 	andeq	r0, r2, r0
     d58:	00009f30 	andeq	r9, r0, r0, lsr pc
     d5c:	00000000 	andeq	r0, r0, r0
     d60:	023c0000 	eorseq	r0, ip, #0
     d64:	024f0000 	subeq	r0, pc, #0
     d68:	00010000 	andeq	r0, r1, r0
     d6c:	00024f50 	andeq	r4, r2, r0, asr pc
     d70:	00027000 	andeq	r7, r2, r0
     d74:	f3000400 	vshl.u8	d0, d0, d0
     d78:	709f5001 	addsvc	r5, pc, r1
     d7c:	a4000002 	strge	r0, [r0], #-2
     d80:	01000002 	tsteq	r0, r2
     d84:	00005000 	andeq	r5, r0, r0
     d88:	00000000 	andeq	r0, r0, r0
     d8c:	023c0000 	eorseq	r0, ip, #0
     d90:	024f0000 	subeq	r0, pc, #0
     d94:	00010000 	andeq	r0, r1, r0
     d98:	00024f51 	andeq	r4, r2, r1, asr pc
     d9c:	00027000 	andeq	r7, r2, r0
     da0:	f3000400 	vshl.u8	d0, d0, d0
     da4:	709f5101 	addsvc	r5, pc, r1, lsl #2
     da8:	a4000002 	strge	r0, [r0], #-2
     dac:	01000002 	tsteq	r0, r2
     db0:	00005100 	andeq	r5, r0, r0, lsl #2
     db4:	00000000 	andeq	r0, r0, r0
     db8:	02a40000 	adceq	r0, r4, #0
     dbc:	02d40000 	sbcseq	r0, r4, #0
     dc0:	00010000 	andeq	r0, r1, r0
     dc4:	0002d450 	andeq	sp, r2, r0, asr r4
     dc8:	00055800 	andeq	r5, r5, r0, lsl #16
     dcc:	5b000100 	blpl	11d4 <__code_start__-0x6e2c>
     dd0:	00000558 	andeq	r0, r0, r8, asr r5
     dd4:	00000578 	andeq	r0, r0, r8, ror r5
     dd8:	01f30004 	mvnseq	r0, r4
     ddc:	00009f50 	andeq	r9, r0, r0, asr pc
     de0:	00000000 	andeq	r0, r0, r0
     de4:	02a40000 	adceq	r0, r4, #0
     de8:	02bc0000 	adcseq	r0, ip, #0
     dec:	00010000 	andeq	r0, r1, r0
     df0:	0002bc51 	andeq	fp, r2, r1, asr ip
     df4:	0002d400 	andeq	sp, r2, r0, lsl #8
     df8:	71000300 	mrsvc	r0, LR_irq
     dfc:	02d49f01 	sbcseq	r9, r4, #1, 30
     e00:	05780000 	ldrbeq	r0, [r8, #-0]!
     e04:	00040000 	andeq	r0, r4, r0
     e08:	9f5101f3 	svcls	0x005101f3
	...
     e14:	000002a4 	andeq	r0, r0, r4, lsr #5
     e18:	000002d4 	ldrdeq	r0, [r0], -r4
     e1c:	d4520001 	ldrble	r0, [r2], #-1
     e20:	58000002 	stmdapl	r0, {r1}
     e24:	01000005 	tsteq	r0, r5
     e28:	00005600 	andeq	r5, r0, r0, lsl #12
     e2c:	00000000 	andeq	r0, r0, r0
     e30:	02a40000 	adceq	r0, r4, #0
     e34:	02c40000 	sbceq	r0, r4, #0
     e38:	00010000 	andeq	r0, r1, r0
     e3c:	00000053 	andeq	r0, r0, r3, asr r0
     e40:	00000000 	andeq	r0, r0, r0
     e44:	0002b800 	andeq	fp, r2, r0, lsl #16
     e48:	0002d400 	andeq	sp, r2, r0, lsl #8
     e4c:	50000100 	andpl	r0, r0, r0, lsl #2
     e50:	000002d4 	ldrdeq	r0, [r0], -r4
     e54:	000002d8 	ldrdeq	r0, [r0], -r8
     e58:	d8540001 	ldmdale	r4, {r0}^
     e5c:	e4000002 	str	r0, [r0], #-2
     e60:	03000002 	movweq	r0, #2
     e64:	9f017400 	svcls	0x00017400
     e68:	000002e4 	andeq	r0, r0, r4, ror #5
     e6c:	000002f0 	strdeq	r0, [r0], -r0	; <UNPREDICTABLE>
     e70:	f0540001 			; <UNDEFINED> instruction: 0xf0540001
     e74:	fc000002 	stc2	0, cr0, [r0], {2}
     e78:	03000002 	movweq	r0, #2
     e7c:	9f017400 	svcls	0x00017400
     e80:	000002fc 	strdeq	r0, [r0], -ip
     e84:	0000050c 	andeq	r0, r0, ip, lsl #10
     e88:	0c540001 	mrrceq	0, 0, r0, r4, cr1
     e8c:	18000005 	stmdane	r0, {r0, r2}
     e90:	03000005 	movweq	r0, #5
     e94:	9f017400 	svcls	0x00017400
     e98:	00000518 	andeq	r0, r0, r8, lsl r5
     e9c:	00000544 	andeq	r0, r0, r4, asr #10
     ea0:	44540001 	ldrbmi	r0, [r4], #-1
     ea4:	50000005 	andpl	r0, r0, r5
     ea8:	01000005 	tsteq	r0, r5
     eac:	05505000 	ldrbeq	r5, [r0, #-0]
     eb0:	05580000 	ldrbeq	r0, [r8, #-0]
     eb4:	00030000 	andeq	r0, r3, r0
     eb8:	009f0174 	addseq	r0, pc, r4, ror r1	; <UNPREDICTABLE>
     ebc:	00000000 	andeq	r0, r0, r0
     ec0:	c0000000 	andgt	r0, r0, r0
     ec4:	58000002 	stmdapl	r0, {r1}
     ec8:	01000005 	tsteq	r0, r5
     ecc:	05585800 	ldrbeq	r5, [r8, #-2048]	; 0x800
     ed0:	05780000 	ldrbeq	r0, [r8, #-0]!
     ed4:	000a0000 	andeq	r0, sl, r0
     ed8:	f35101f3 	vbsl	q8, <illegal reg q8.5>, <illegal reg q9.5>
     edc:	31225001 	teqcc	r2, r1
     ee0:	00009f1c 	andeq	r9, r0, ip, lsl pc
     ee4:	00000000 	andeq	r0, r0, r0
     ee8:	02c80000 	sbceq	r0, r8, #0
     eec:	02d40000 	sbcseq	r0, r4, #0
     ef0:	00010000 	andeq	r0, r1, r0
     ef4:	0002d452 	andeq	sp, r2, r2, asr r4
     ef8:	00057800 	andeq	r7, r5, r0, lsl #16
     efc:	91000300 	mrsls	r0, LR_irq
     f00:	00007ecc 	andeq	r7, r0, ip, asr #29
     f04:	00000000 	andeq	r0, r0, r0
     f08:	04100000 	ldreq	r0, [r0], #-0
     f0c:	04140000 	ldreq	r0, [r4], #-0
     f10:	00010000 	andeq	r0, r1, r0
     f14:	00043850 	andeq	r3, r4, r0, asr r8
     f18:	00043c00 	andeq	r3, r4, r0, lsl #24
     f1c:	50000100 	andpl	r0, r0, r0, lsl #2
     f20:	00000460 	andeq	r0, r0, r0, ror #8
     f24:	00000464 	andeq	r0, r0, r4, ror #8
     f28:	88500001 	ldmdahi	r0, {r0}^
     f2c:	8c000004 	stchi	0, cr0, [r0], {4}
     f30:	01000004 	tsteq	r0, r4
     f34:	04945000 	ldreq	r5, [r4], #0
     f38:	04980000 	ldreq	r0, [r8], #0
     f3c:	00010000 	andeq	r0, r1, r0
     f40:	0004bc50 	andeq	fp, r4, r0, asr ip
     f44:	0004c000 	andeq	ip, r4, r0
     f48:	50000100 	andpl	r0, r0, r0, lsl #2
     f4c:	00000504 	andeq	r0, r0, r4, lsl #10
     f50:	0000052c 	andeq	r0, r0, ip, lsr #10
     f54:	00500001 	subseq	r0, r0, r1
     f58:	00000000 	andeq	r0, r0, r0
     f5c:	04000000 	streq	r0, [r0], #-0
     f60:	0c000003 	stceq	0, cr0, [r0], {3}
     f64:	02000003 	andeq	r0, r0, #3
     f68:	0c9f3000 	ldceq	0, cr3, [pc], {0}
     f6c:	10000003 	andne	r0, r0, r3
     f70:	01000003 	tsteq	r0, r3
     f74:	031c5700 	tsteq	ip, #0, 14
     f78:	052c0000 	streq	r0, [ip, #-0]!
     f7c:	00010000 	andeq	r0, r1, r0
     f80:	00000057 	andeq	r0, r0, r7, asr r0
     f84:	00000000 	andeq	r0, r0, r0
     f88:	00000400 	andeq	r0, r0, r0, lsl #8
     f8c:	00000800 	andeq	r0, r0, r0, lsl #16
     f90:	73000700 	movwvc	r0, #1792	; 0x700
     f94:	10000a00 	andne	r0, r0, r0, lsl #20
     f98:	00089f21 	andeq	r9, r8, r1, lsr #30
     f9c:	00100000 	andseq	r0, r0, r0
     fa0:	00010000 	andeq	r0, r1, r0
     fa4:	00000053 	andeq	r0, r0, r3, asr r0
     fa8:	00000000 	andeq	r0, r0, r0
     fac:	00001400 	andeq	r1, r0, r0, lsl #8
     fb0:	00001800 	andeq	r1, r0, r0, lsl #16
     fb4:	73000700 	movwvc	r0, #1792	; 0x700
     fb8:	efff0b00 	svc	0x00ff0b00
     fbc:	00189f1a 	andseq	r9, r8, sl, lsl pc
     fc0:	00200000 	eoreq	r0, r0, r0
     fc4:	00010000 	andeq	r0, r1, r0
     fc8:	00000053 	andeq	r0, r0, r3, asr r0
     fcc:	00000000 	andeq	r0, r0, r0
     fd0:	00001400 	andeq	r1, r0, r0, lsl #8
     fd4:	00001c00 	andeq	r1, r0, r0, lsl #24
     fd8:	73000300 	movwvc	r0, #768	; 0x300
     fdc:	001c9f04 	andseq	r9, ip, r4, lsl #30
     fe0:	00270000 	eoreq	r0, r7, r0
     fe4:	00010000 	andeq	r0, r1, r0
     fe8:	00000053 	andeq	r0, r0, r3, asr r0
	...
     ff4:	00000f00 	andeq	r0, r0, r0, lsl #30
     ff8:	50000100 	andpl	r0, r0, r0, lsl #2
     ffc:	0000000f 	andeq	r0, r0, pc
    1000:	00000044 	andeq	r0, r0, r4, asr #32
    1004:	00540001 	subseq	r0, r4, r1
	...
    1010:	0f000000 	svceq	0x00000000
    1014:	01000000 	mrseq	r0, (UNDEF: 0)
    1018:	000f5000 	andeq	r5, pc, r0
    101c:	00440000 	subeq	r0, r4, r0
    1020:	00010000 	andeq	r0, r1, r0
    1024:	00000054 	andeq	r0, r0, r4, asr r0
	...
    1030:	00000f00 	andeq	r0, r0, r0, lsl #30
    1034:	50000100 	andpl	r0, r0, r0, lsl #2
    1038:	0000000f 	andeq	r0, r0, pc
    103c:	00000044 	andeq	r0, r0, r4, asr #32
    1040:	00540001 	subseq	r0, r4, r1
    1044:	00000000 	andeq	r0, r0, r0
    1048:	34000000 	strcc	r0, [r0], #-0
    104c:	40000000 	andmi	r0, r0, r0
    1050:	02000000 	andeq	r0, r0, #0
    1054:	409f3000 	addsmi	r3, pc, r0
    1058:	6c000000 	stcvs	0, cr0, [r0], {-0}
    105c:	01000000 	mrseq	r0, (UNDEF: 0)
    1060:	00005300 	andeq	r5, r0, r0, lsl #6
    1064:	00000000 	andeq	r0, r0, r0
    1068:	9a580000 	bls	1601070 <__bss_end__+0x15f4480>
    106c:	9a5c0000 	bls	1701074 <__bss_end__+0x16f4484>
    1070:	00020000 	andeq	r0, r2, r0
    1074:	9a5c9f30 	bls	1728d3c <__bss_end__+0x171c14c>
    1078:	9a600000 	bls	1801080 <__bss_end__+0x17f4490>
    107c:	00010000 	andeq	r0, r1, r0
    1080:	00000050 	andeq	r0, r0, r0, asr r0
    1084:	00000000 	andeq	r0, r0, r0
    1088:	009a7000 	addseq	r7, sl, r0
    108c:	009a7400 	addseq	r7, sl, r0, lsl #8
    1090:	30000200 	andcc	r0, r0, r0, lsl #4
    1094:	009a749f 	umullseq	r7, sl, pc, r4	; <UNPREDICTABLE>
    1098:	009a7800 	addseq	r7, sl, r0, lsl #16
    109c:	53000100 	movwpl	r0, #256	; 0x100
    10a0:	00009a7c 	andeq	r9, r0, ip, ror sl
    10a4:	00009a84 	andeq	r9, r0, r4, lsl #21
    10a8:	00530001 	subseq	r0, r3, r1
	...
    10b4:	04000000 	streq	r0, [r0], #-0
    10b8:	01000000 	mrseq	r0, (UNDEF: 0)
    10bc:	00045000 	andeq	r5, r4, r0
    10c0:	000c0000 	andeq	r0, ip, r0
    10c4:	00010000 	andeq	r0, r1, r0
    10c8:	00000c53 	andeq	r0, r0, r3, asr ip
    10cc:	00001000 	andeq	r1, r0, r0
    10d0:	50000100 	andpl	r0, r0, r0, lsl #2
    10d4:	00000010 	andeq	r0, r0, r0, lsl r0
    10d8:	0000001c 	andeq	r0, r0, ip, lsl r0
    10dc:	00530001 	subseq	r0, r3, r1
    10e0:	00000000 	andeq	r0, r0, r0
    10e4:	40000000 	andmi	r0, r0, r0
    10e8:	43000000 	movwmi	r0, #0
    10ec:	01000000 	mrseq	r0, (UNDEF: 0)
    10f0:	00435000 	subeq	r5, r3, r0
    10f4:	004c0000 	subeq	r0, ip, r0
    10f8:	00010000 	andeq	r0, r1, r0
    10fc:	00000054 	andeq	r0, r0, r4, asr r0
    1100:	00000000 	andeq	r0, r0, r0
    1104:	00004c00 	andeq	r4, r0, r0, lsl #24
    1108:	00005700 	andeq	r5, r0, r0, lsl #14
    110c:	50000100 	andpl	r0, r0, r0, lsl #2
    1110:	00000057 	andeq	r0, r0, r7, asr r0
    1114:	00000070 	andeq	r0, r0, r0, ror r0
    1118:	00550001 	subseq	r0, r5, r1
    111c:	00000000 	andeq	r0, r0, r0
    1120:	60000000 	andvs	r0, r0, r0
    1124:	64000000 	strvs	r0, [r0], #-0
    1128:	01000000 	mrseq	r0, (UNDEF: 0)
    112c:	00005000 	andeq	r5, r0, r0
    1130:	00000000 	andeq	r0, r0, r0
    1134:	00700000 	rsbseq	r0, r0, r0
    1138:	007c0000 	rsbseq	r0, ip, r0
    113c:	00010000 	andeq	r0, r1, r0
    1140:	00007c50 	andeq	r7, r0, r0, asr ip
    1144:	00008400 	andeq	r8, r0, r0, lsl #8
    1148:	f3000400 	vshl.u8	d0, d0, d0
    114c:	009f5001 	addseq	r5, pc, r1
    1150:	00000000 	andeq	r0, r0, r0
    1154:	84000000 	strhi	r0, [r0], #-0
    1158:	90000000 	andls	r0, r0, r0
    115c:	01000000 	mrseq	r0, (UNDEF: 0)
    1160:	00905000 	addseq	r5, r0, r0
    1164:	00980000 	addseq	r0, r8, r0
    1168:	00040000 	andeq	r0, r4, r0
    116c:	9f5001f3 	svcls	0x005001f3
	...
    1178:	00000138 	andeq	r0, r0, r8, lsr r1
    117c:	00000143 	andeq	r0, r0, r3, asr #2
    1180:	43500001 	cmpmi	r0, #1
    1184:	68000001 	stmdavs	r0, {r0}
    1188:	01000001 	tsteq	r0, r1
    118c:	00005400 	andeq	r5, r0, r0, lsl #8
	...
    1198:	000f0000 	andeq	r0, pc, r0
    119c:	00010000 	andeq	r0, r1, r0
    11a0:	00000f50 	andeq	r0, r0, r0, asr pc
    11a4:	00002000 	andeq	r2, r0, r0
    11a8:	54000100 	strpl	r0, [r0], #-256	; 0x100
	...
    11b8:	0000000f 	andeq	r0, r0, pc
    11bc:	0f510001 	svceq	0x00510001
    11c0:	20000000 	andcs	r0, r0, r0
    11c4:	01000000 	mrseq	r0, (UNDEF: 0)
    11c8:	00005500 	andeq	r5, r0, r0, lsl #10
    11cc:	00000000 	andeq	r0, r0, r0
    11d0:	00ec0000 	rsceq	r0, ip, r0
    11d4:	01040000 	mrseq	r0, (UNDEF: 4)
    11d8:	00010000 	andeq	r0, r1, r0
    11dc:	00010450 	andeq	r0, r1, r0, asr r4
    11e0:	00011400 	andeq	r1, r1, r0, lsl #8
    11e4:	f3000400 	vshl.u8	d0, d0, d0
    11e8:	149f5001 	ldrne	r5, [pc], #1	; 11f0 <__code_start__-0x6e10>
    11ec:	18000001 	stmdane	r0, {r0}
    11f0:	01000001 	tsteq	r0, r1
    11f4:	01185000 	tsteq	r8, r0
    11f8:	01200000 	teqeq	r0, r0
    11fc:	00040000 	andeq	r0, r4, r0
    1200:	9f5001f3 	svcls	0x005001f3
	...
    120c:	000000f8 	strdeq	r0, [r0], -r8
    1210:	00000104 	andeq	r0, r0, r4, lsl #2
    1214:	0070000b 	rsbseq	r0, r0, fp
    1218:	b4232535 	strtlt	r2, [r3], #-1333	; 0x535
    121c:	02818080 	addeq	r8, r1, #128	; 0x80
    1220:	0001049f 	muleq	r1, pc, r4	; <UNPREDICTABLE>
    1224:	00010700 	andeq	r0, r1, r0, lsl #14
    1228:	50000100 	andpl	r0, r0, r0, lsl #2
    122c:	00000107 	andeq	r0, r0, r7, lsl #2
    1230:	00000114 	andeq	r0, r0, r4, lsl r1
    1234:	01f3000c 	mvnseq	r0, ip
    1238:	23253550 	teqcs	r5, #80, 10	; 0x14000000
    123c:	818080b4 	strhhi	r8, [r0, r4]
    1240:	00009f02 	andeq	r9, r0, r2, lsl #30
    1244:	00000000 	andeq	r0, r0, r0
    1248:	00fc0000 	rscseq	r0, ip, r0
    124c:	01140000 	tsteq	r4, r0
    1250:	00010000 	andeq	r0, r1, r0
    1254:	00000054 	andeq	r0, r0, r4, asr r0
    1258:	00000000 	andeq	r0, r0, r0
    125c:	0000d000 	andeq	sp, r0, r0
    1260:	0000df00 	andeq	sp, r0, r0, lsl #30
    1264:	50000100 	andpl	r0, r0, r0, lsl #2
    1268:	000000df 	ldrdeq	r0, [r0], -pc	; <UNPREDICTABLE>
    126c:	000000e4 	andeq	r0, r0, r4, ror #1
    1270:	01f30004 	mvnseq	r0, r4
    1274:	00e49f50 	rsceq	r9, r4, r0, asr pc
    1278:	00e70000 	rsceq	r0, r7, r0
    127c:	00010000 	andeq	r0, r1, r0
    1280:	0000e750 	andeq	lr, r0, r0, asr r7
    1284:	0000ec00 	andeq	lr, r0, r0, lsl #24
    1288:	f3000400 	vshl.u8	d0, d0, d0
    128c:	009f5001 	addseq	r5, pc, r1
    1290:	00000000 	andeq	r0, r0, r0
    1294:	d0000000 	andle	r0, r0, r0
    1298:	df000000 	svcle	0x00000000
    129c:	01000000 	mrseq	r0, (UNDEF: 0)
    12a0:	00df5100 	sbcseq	r5, pc, r0, lsl #2
    12a4:	00e40000 	rsceq	r0, r4, r0
    12a8:	00040000 	andeq	r0, r4, r0
    12ac:	9f5101f3 	svcls	0x005101f3
    12b0:	000000e4 	andeq	r0, r0, r4, ror #1
    12b4:	000000e7 	andeq	r0, r0, r7, ror #1
    12b8:	e7510001 	ldrb	r0, [r1, -r1]
    12bc:	ec000000 	stc	0, cr0, [r0], {-0}
    12c0:	04000000 	streq	r0, [r0], #-0
    12c4:	5101f300 	mrspl	pc, SP_irq	; <UNPREDICTABLE>
    12c8:	0000009f 	muleq	r0, pc, r0	; <UNPREDICTABLE>
    12cc:	00000000 	andeq	r0, r0, r0
    12d0:	0000c000 	andeq	ip, r0, r0
    12d4:	0000cb00 	andeq	ip, r0, r0, lsl #22
    12d8:	50000100 	andpl	r0, r0, r0, lsl #2
    12dc:	000000cb 	andeq	r0, r0, fp, asr #1
    12e0:	000000d0 	ldrdeq	r0, [r0], -r0	; <UNPREDICTABLE>
    12e4:	01f30004 	mvnseq	r0, r4
    12e8:	00009f50 	andeq	r9, r0, r0, asr pc
    12ec:	00000000 	andeq	r0, r0, r0
    12f0:	009c0000 	addseq	r0, ip, r0
    12f4:	00b40000 	adcseq	r0, r4, r0
    12f8:	00010000 	andeq	r0, r1, r0
    12fc:	0000b450 	andeq	fp, r0, r0, asr r4
    1300:	0000c000 	andeq	ip, r0, r0
    1304:	f3000400 	vshl.u8	d0, d0, d0
    1308:	009f5001 	addseq	r5, pc, r1
    130c:	00000000 	andeq	r0, r0, r0
    1310:	78000000 	stmdavc	r0, {}	; <UNPREDICTABLE>
    1314:	90000000 	andls	r0, r0, r0
    1318:	01000000 	mrseq	r0, (UNDEF: 0)
    131c:	00905000 	addseq	r5, r0, r0
    1320:	009c0000 	addseq	r0, ip, r0
    1324:	00040000 	andeq	r0, r4, r0
    1328:	9f5001f3 	svcls	0x005001f3
	...
    1334:	00000068 	andeq	r0, r0, r8, rrx
    1338:	00000073 	andeq	r0, r0, r3, ror r0
    133c:	73500001 	cmpvc	r0, #1
    1340:	78000000 	stmdavc	r0, {}	; <UNPREDICTABLE>
    1344:	04000000 	streq	r0, [r0], #-0
    1348:	5001f300 	andpl	pc, r1, r0, lsl #6
    134c:	0000009f 	muleq	r0, pc, r0	; <UNPREDICTABLE>
	...
    1358:	00004800 	andeq	r4, r0, r0, lsl #16
    135c:	50000100 	andpl	r0, r0, r0, lsl #2
    1360:	00000048 	andeq	r0, r0, r8, asr #32
    1364:	00000068 	andeq	r0, r0, r8, rrx
    1368:	01f30004 	mvnseq	r0, r4
    136c:	00009f50 	andeq	r9, r0, r0, asr pc
	...
    1378:	004b0000 	subeq	r0, fp, r0
    137c:	00010000 	andeq	r0, r1, r0
    1380:	00004b51 	andeq	r4, r0, r1, asr fp
    1384:	00006800 	andeq	r6, r0, r0, lsl #16
    1388:	f3000400 	vshl.u8	d0, d0, d0
    138c:	009f5101 	addseq	r5, pc, r1, lsl #2
    1390:	00000000 	andeq	r0, r0, r0
    1394:	4c000000 	stcmi	0, cr0, [r0], {-0}
    1398:	54000000 	strpl	r0, [r0], #-0
    139c:	01000000 	mrseq	r0, (UNDEF: 0)
    13a0:	00545000 	subseq	r5, r4, r0
    13a4:	00580000 	subseq	r0, r8, r0
    13a8:	00090000 	andeq	r0, r9, r0
    13ac:	00740075 	rsbseq	r0, r4, r5, ror r0
    13b0:	21007124 	tstcs	r0, r4, lsr #2
    13b4:	0000589f 	muleq	r0, pc, r8	; <UNPREDICTABLE>
    13b8:	00005f00 	andeq	r5, r0, r0, lsl #30
    13bc:	51000100 	mrspl	r0, (UNDEF: 16)
	...

Disassembly of section .debug_aranges:

00000000 <.debug_aranges>:
   0:	0000001c 	andeq	r0, r0, ip, lsl r0
   4:	00000002 	andeq	r0, r0, r2
   8:	00040000 	andeq	r0, r4, r0
   c:	00000000 	andeq	r0, r0, r0
  10:	00008020 	andeq	r8, r0, r0, lsr #32
  14:	000005e0 	andeq	r0, r0, r0, ror #11
	...
  20:	0000001c 	andeq	r0, r0, ip, lsl r0
  24:	0b5f0002 	bleq	17c0034 <__bss_end__+0x17b3444>
  28:	00040000 	andeq	r0, r4, r0
  2c:	00000000 	andeq	r0, r0, r0
  30:	00008600 	andeq	r8, r0, r0, lsl #12
  34:	00000378 	andeq	r0, r0, r8, ror r3
	...
  40:	0000001c 	andeq	r0, r0, ip, lsl r0
  44:	173a0002 	ldrne	r0, [sl, -r2]!
  48:	00040000 	andeq	r0, r4, r0
  4c:	00000000 	andeq	r0, r0, r0
  50:	00008ab0 			; <UNDEFINED> instruction: 0x00008ab0
  54:	00000784 	andeq	r0, r0, r4, lsl #15
	...
  60:	0000001c 	andeq	r0, r0, ip, lsl r0
  64:	263d0002 	ldrtcs	r0, [sp], -r2
  68:	00040000 	andeq	r0, r4, r0
  6c:	00000000 	andeq	r0, r0, r0
  70:	00009234 	andeq	r9, r0, r4, lsr r2
  74:	00000020 	andeq	r0, r0, r0, lsr #32
	...
  80:	0000001c 	andeq	r0, r0, ip, lsl r0
  84:	271c0002 	ldrcs	r0, [ip, -r2]
  88:	00040000 	andeq	r0, r4, r0
  8c:	00000000 	andeq	r0, r0, r0
  90:	00009254 	andeq	r9, r0, r4, asr r2
  94:	00000058 	andeq	r0, r0, r8, asr r0
	...
  a0:	0000001c 	andeq	r0, r0, ip, lsl r0
  a4:	28b10002 	ldmcs	r1!, {r1}
  a8:	00040000 	andeq	r0, r4, r0
  ac:	00000000 	andeq	r0, r0, r0
  b0:	000092ac 	andeq	r9, r0, ip, lsr #5
  b4:	0000003c 	andeq	r0, r0, ip, lsr r0
	...
  c0:	0000001c 	andeq	r0, r0, ip, lsl r0
  c4:	29c80002 	stmibcs	r8, {r1}^
  c8:	00040000 	andeq	r0, r4, r0
  cc:	00000000 	andeq	r0, r0, r0
  d0:	000092e8 	andeq	r9, r0, r8, ror #5
  d4:	00000034 	andeq	r0, r0, r4, lsr r0
	...
  e0:	0000001c 	andeq	r0, r0, ip, lsl r0
  e4:	2aba0002 	bcs	fee800f4 <__bss_end__+0xfee73504>
  e8:	00040000 	andeq	r0, r4, r0
  ec:	00000000 	andeq	r0, r0, r0
  f0:	0000931c 	andeq	r9, r0, ip, lsl r3
  f4:	00000578 	andeq	r0, r0, r8, ror r5
	...
 100:	0000001c 	andeq	r0, r0, ip, lsl r0
 104:	31a30002 			; <UNDEFINED> instruction: 0x31a30002
 108:	00040000 	andeq	r0, r4, r0
 10c:	00000000 	andeq	r0, r0, r0
 110:	00009894 	muleq	r0, r4, r8
 114:	00000020 	andeq	r0, r0, r0, lsr #32
	...
 120:	0000001c 	andeq	r0, r0, ip, lsl r0
 124:	325f0002 	subscc	r0, pc, #2
 128:	00040000 	andeq	r0, r4, r0
 12c:	00000000 	andeq	r0, r0, r0
 130:	000098b4 			; <UNDEFINED> instruction: 0x000098b4
 134:	0000002c 	andeq	r0, r0, ip, lsr #32
	...
 140:	0000001c 	andeq	r0, r0, ip, lsl r0
 144:	33720002 	cmncc	r2, #2
 148:	00040000 	andeq	r0, r4, r0
 14c:	00000000 	andeq	r0, r0, r0
 150:	000098e0 	andeq	r9, r0, r0, ror #17
 154:	00000038 	andeq	r0, r0, r8, lsr r0
	...
 160:	0000001c 	andeq	r0, r0, ip, lsl r0
 164:	34850002 	strcc	r0, [r5], #2
 168:	00040000 	andeq	r0, r4, r0
 16c:	00000000 	andeq	r0, r0, r0
 170:	00009918 	andeq	r9, r0, r8, lsl r9
 174:	00000044 	andeq	r0, r0, r4, asr #32
	...
 180:	0000001c 	andeq	r0, r0, ip, lsl r0
 184:	35c70002 	strbcc	r0, [r7, #2]
 188:	00040000 	andeq	r0, r4, r0
 18c:	00000000 	andeq	r0, r0, r0
 190:	0000995c 	andeq	r9, r0, ip, asr r9
 194:	00000044 	andeq	r0, r0, r4, asr #32
	...
 1a0:	0000001c 	andeq	r0, r0, ip, lsl r0
 1a4:	37090002 	strcc	r0, [r9, -r2]
 1a8:	00040000 	andeq	r0, r4, r0
 1ac:	00000000 	andeq	r0, r0, r0
 1b0:	000099a0 	andeq	r9, r0, r0, lsr #19
 1b4:	00000044 	andeq	r0, r0, r4, asr #32
	...
 1c0:	0000001c 	andeq	r0, r0, ip, lsl r0
 1c4:	384b0002 	stmdacc	fp, {r1}^
 1c8:	00040000 	andeq	r0, r4, r0
 1cc:	00000000 	andeq	r0, r0, r0
 1d0:	000099e4 	andeq	r9, r0, r4, ror #19
 1d4:	00000008 	andeq	r0, r0, r8
	...
 1e0:	0000001c 	andeq	r0, r0, ip, lsl r0
 1e4:	38e70002 	stmiacc	r7!, {r1}^
 1e8:	00040000 	andeq	r0, r4, r0
 1ec:	00000000 	andeq	r0, r0, r0
 1f0:	000099ec 	andeq	r9, r0, ip, ror #19
 1f4:	0000006c 	andeq	r0, r0, ip, rrx
	...
 200:	0000001c 	andeq	r0, r0, ip, lsl r0
 204:	3ac20002 	bcc	ff080214 <__bss_end__+0xff073624>
 208:	00040000 	andeq	r0, r4, r0
 20c:	00000000 	andeq	r0, r0, r0
 210:	00009a58 	andeq	r9, r0, r8, asr sl
 214:	00000074 	andeq	r0, r0, r4, ror r0
	...
 220:	0000001c 	andeq	r0, r0, ip, lsl r0
 224:	3c730002 	ldclcc	0, cr0, [r3], #-8
 228:	00040000 	andeq	r0, r4, r0
 22c:	00000000 	andeq	r0, r0, r0
 230:	00009acc 	andeq	r9, r0, ip, asr #21
 234:	00000098 	muleq	r0, r8, r0
	...
 240:	0000001c 	andeq	r0, r0, ip, lsl r0
 244:	3e6e0002 	cdpcc	0, 6, cr0, cr14, cr2, {0}
 248:	00040000 	andeq	r0, r4, r0
 24c:	00000000 	andeq	r0, r0, r0
 250:	00009bc8 	andeq	r9, r0, r8, asr #23
 254:	00000178 	andeq	r0, r0, r8, ror r1
	...
 260:	0000001c 	andeq	r0, r0, ip, lsl r0
 264:	4b370002 	blmi	dc0274 <__bss_end__+0xdb3684>
 268:	00040000 	andeq	r0, r4, r0
 26c:	00000000 	andeq	r0, r0, r0
 270:	00009d40 	andeq	r9, r0, r0, asr #26
 274:	00000120 	andeq	r0, r0, r0, lsr #2
	...

Disassembly of section .debug_ranges:

00000000 <.debug_ranges>:
   0:	000000d0 	ldrdeq	r0, [r0], -r0	; <UNPREDICTABLE>
   4:	00000110 	andeq	r0, r0, r0, lsl r1
   8:	00000114 	andeq	r0, r0, r4, lsl r1
   c:	00000118 	andeq	r0, r0, r8, lsl r1
	...
  18:	00000320 	andeq	r0, r0, r0, lsr #6
  1c:	00000368 	andeq	r0, r0, r8, ror #6
  20:	0000036c 	andeq	r0, r0, ip, ror #6
  24:	00000370 	andeq	r0, r0, r0, ror r3
	...
  30:	00009a58 	andeq	r9, r0, r8, asr sl
  34:	00009acc 	andeq	r9, r0, ip, asr #21
	...

Disassembly of section .debug_line:

00000000 <.debug_line>:
       0:	000002a8 	andeq	r0, r0, r8, lsr #5
       4:	01c40002 	biceq	r0, r4, r2
       8:	01020000 	mrseq	r0, (UNDEF: 2)
       c:	000d0efb 	strdeq	r0, [sp], -fp
      10:	01010101 	tsteq	r1, r1, lsl #2
      14:	01000000 	mrseq	r0, (UNDEF: 0)
      18:	74010000 	strvc	r0, [r1], #-0
      1c:	73747365 	cmnvc	r4, #-1811939327	; 0x94000001
      20:	00302e32 	eorseq	r2, r0, r2, lsr lr
      24:	6573552f 	ldrbvs	r5, [r3, #-1327]!	; 0x52f
      28:	622f7372 	eorvs	r7, pc, #-939524095	; 0xc8000001
      2c:	6e616972 	mcrvs	9, 3, r6, cr1, cr2, {3}
      30:	2f6e756a 	svccs	0x006e756a
      34:	6b736544 	blvs	1cd954c <__bss_end__+0x1ccc95c>
      38:	2f706f74 	svccs	0x00706f74
      3c:	6f686373 	svcvs	0x00686373
      40:	532f6c6f 	teqpl	pc, #28416	; 0x6f00
      44:	6e697270 	mcrvs	2, 3, r7, cr9, cr0, {3}
      48:	32393167 	eorscc	r3, r9, #-1073741799	; 0xc0000019
      4c:	53432f30 	movtpl	r2, #16176	; 0x3f30
      50:	4c303432 	cfldrsmi	mvf3, [r0], #-200	; 0xffffff38
      54:	73632f58 	cmnvc	r3, #88, 30	; 0x160
      58:	6c303432 	cfldrsvs	mvf3, [r0], #-200	; 0xffffff38
      5c:	30322d78 	eorscc	r2, r2, r8, ror sp
      60:	2f727073 	svccs	0x00727073
      64:	7062696c 	rsbvc	r6, r2, ip, ror #18
      68:	696c2f69 	stmdbvs	ip!, {r0, r3, r5, r6, r8, r9, sl, fp, sp}^
      6c:	2f006362 	svccs	0x00006362
      70:	2f727375 	svccs	0x00727375
      74:	61636f6c 	cmnvs	r3, ip, ror #30
      78:	65432f6c 	strbvs	r2, [r3, #-3948]	; 0xf6c
      7c:	72616c6c 	rsbvc	r6, r1, #108, 24	; 0x6c00
      80:	6d72612f 	ldfvse	f6, [r2, #-188]!	; 0xffffff44
      84:	6e6f6e2d 	cdpvs	14, 6, cr6, cr15, cr13, {1}
      88:	61652d65 	cmnvs	r5, r5, ror #26
      8c:	342f6962 	strtcc	r6, [pc], #-2402	; 94 <__code_start__-0x7f6c>
      90:	332e382e 	teqcc	lr, #3014656	; 0x2e0000
      94:	3173632d 	cmncc	r3, sp, lsr #6
      98:	2f653037 	svccs	0x00653037
      9c:	2f62696c 	svccs	0x0062696c
      a0:	2f636367 	svccs	0x00636367
      a4:	2d6d7261 	sfmcs	f7, 2, [sp, #-388]!	; 0xfffffe7c
      a8:	656e6f6e 	strbvs	r6, [lr, #-3950]!	; 0xf6e
      ac:	6261652d 	rsbvs	r6, r1, #188743680	; 0xb400000
      b0:	2e342f69 	cdpcs	15, 3, cr2, cr4, cr9, {3}
      b4:	2f332e38 	svccs	0x00332e38
      b8:	6c636e69 	stclvs	14, cr6, [r3], #-420	; 0xfffffe5c
      bc:	00656475 	rsbeq	r6, r5, r5, ror r4
      c0:	552f002e 	strpl	r0, [pc, #-46]!	; 9a <__code_start__-0x7f66>
      c4:	73726573 	cmnvc	r2, #482344960	; 0x1cc00000
      c8:	6972622f 	ldmdbvs	r2!, {r0, r1, r2, r3, r5, r9, sp, lr}^
      cc:	756a6e61 	strbvc	r6, [sl, #-3681]!	; 0xe61
      d0:	65442f6e 	strbvs	r2, [r4, #-3950]	; 0xf6e
      d4:	6f746b73 	svcvs	0x00746b73
      d8:	63732f70 	cmnvs	r3, #112, 30	; 0x1c0
      dc:	6c6f6f68 	stclvs	15, cr6, [pc], #-416	; ffffff44 <__bss_end__+0xffff3354>
      e0:	7270532f 	rsbsvc	r5, r0, #-1140850688	; 0xbc000000
      e4:	31676e69 	cmncc	r7, r9, ror #28
      e8:	2f303239 	svccs	0x00303239
      ec:	34325343 	ldrtcc	r5, [r2], #-835	; 0x343
      f0:	2f584c30 	svccs	0x00584c30
      f4:	34327363 	ldrtcc	r7, [r2], #-867	; 0x363
      f8:	2d786c30 	ldclcs	12, cr6, [r8, #-192]!	; 0xffffff40
      fc:	70733032 	rsbsvc	r3, r3, r2, lsr r0
     100:	696c2f72 	stmdbvs	ip!, {r1, r4, r5, r6, r8, r9, sl, fp, sp}^
     104:	2f697062 	svccs	0x00697062
     108:	6c636e69 	stclvs	14, cr6, [r3], #-420	; 0xfffffe5c
     10c:	00656475 	rsbeq	r6, r5, r5, ror r4
     110:	7273752f 	rsbsvc	r7, r3, #197132288	; 0xbc00000
     114:	636f6c2f 	cmnvs	pc, #12032	; 0x2f00
     118:	432f6c61 	teqmi	pc, #24832	; 0x6100
     11c:	616c6c65 	cmnvs	ip, r5, ror #24
     120:	72612f72 	rsbvc	r2, r1, #456	; 0x1c8
     124:	6f6e2d6d 	svcvs	0x006e2d6d
     128:	652d656e 	strvs	r6, [sp, #-1390]!	; 0x56e
     12c:	2f696261 	svccs	0x00696261
     130:	2e382e34 	mrccs	14, 1, r2, cr8, cr4, {1}
     134:	73632d33 	cmnvc	r3, #3264	; 0xcc0
     138:	65303731 	ldrvs	r3, [r0, #-1841]!	; 0x731
     13c:	6d72612f 	ldfvse	f6, [r2, #-188]!	; 0xffffff44
     140:	6e6f6e2d 	cdpvs	14, 6, cr6, cr15, cr13, {1}
     144:	61652d65 	cmnvs	r5, r5, ror #26
     148:	692f6962 	stmdbvs	pc!, {r1, r5, r6, r8, fp, sp, lr}	; <UNPREDICTABLE>
     14c:	756c636e 	strbvc	r6, [ip, #-878]!	; 0x36e
     150:	00006564 	andeq	r6, r0, r4, ror #10
     154:	702d3631 	eorvc	r3, sp, r1, lsr r6
     158:	32747261 	rsbscc	r7, r4, #268435462	; 0x10000006
     15c:	7365742d 	cmnvc	r5, #754974720	; 0x2d000000
     160:	632e3574 	teqvs	lr, #116, 10	; 0x1d000000
     164:	00000100 	andeq	r0, r0, r0, lsl #2
     168:	63726963 	cmnvs	r2, #1622016	; 0x18c000
     16c:	72616c75 	rsbvc	r6, r1, #29952	; 0x7500
     170:	0200682e 	andeq	r6, r0, #3014656	; 0x2e0000
     174:	74730000 	ldrbtvc	r0, [r3], #-0
     178:	66656464 	strbtvs	r6, [r5], -r4, ror #8
     17c:	0300682e 	movweq	r6, #2094	; 0x82e
     180:	74730000 	ldrbtvc	r0, [r3], #-0
     184:	746e6964 	strbtvc	r6, [lr], #-2404	; 0x964
     188:	6363672d 	cmnvs	r3, #11796480	; 0xb40000
     18c:	0300682e 	movweq	r6, #2094	; 0x82e
     190:	68630000 	stmdavs	r3!, {}^	; <UNPREDICTABLE>
     194:	2d6b6365 	stclcs	3, cr6, [fp, #-404]!	; 0xfffffe6c
     198:	65746e69 	ldrbvs	r6, [r4, #-3689]!	; 0xe69
     19c:	61656c72 	smcvs	22210	; 0x56c2
     1a0:	682e6576 	stmdavs	lr!, {r1, r2, r4, r5, r6, r8, sl, sp, lr}
     1a4:	00000400 	andeq	r0, r0, r0, lsl #8
     1a8:	2e697072 	mcrcs	0, 3, r7, cr9, cr2, {3}
     1ac:	00050068 	andeq	r0, r5, r8, rrx
     1b0:	72747300 	rsbsvc	r7, r4, #0, 6
     1b4:	2e676e69 	cdpcs	14, 6, cr6, cr7, cr9, {3}
     1b8:	00060068 	andeq	r0, r6, r8, rrx
     1bc:	31706300 	cmncc	r0, r0, lsl #6
     1c0:	65642d34 	strbvs	r2, [r4, #-3380]!	; 0xd34
     1c4:	2e677562 	cdpcs	5, 6, cr7, cr7, cr2, {3}
     1c8:	00040068 	andeq	r0, r4, r8, rrx
     1cc:	05000000 	streq	r0, [r0, #-0]
     1d0:	00802002 	addeq	r2, r0, r2
     1d4:	02041a00 	andeq	r1, r4, #0, 20
     1d8:	2e00ce03 	cdpcs	14, 0, cr12, cr0, cr3, {0}
     1dc:	03666503 	cmneq	r6, #12582912	; 0xc00000
     1e0:	674c9e1c 	smlaldvs	r9, ip, ip, lr
     1e4:	0104479f 			; <UNDEFINED> instruction: 0x0104479f
     1e8:	2e7fb103 	expcse	f3, f3
     1ec:	5b08d74b 	blpl	235f20 <__bss_end__+0x229330>
     1f0:	2f030204 	svccs	0x00030204
     1f4:	0301044a 	movweq	r0, #5194	; 0x144a
     1f8:	0204ba53 	andeq	fp, r4, #339968	; 0x53000
     1fc:	034a2803 	movteq	r2, #43011	; 0xa803
     200:	4b4c820a 	blmi	1320a30 <__bss_end__+0x1313e40>
     204:	034e834b 	movteq	r8, #58187	; 0xe34b
     208:	0c032e78 	stceq	14, cr2, [r3], {120}	; 0x78
     20c:	6d034b2e 	vstrvs	d4, [r3, #-184]	; 0xffffff48
     210:	030104d6 	movweq	r0, #5334	; 0x14d6
     214:	0200ba57 	andeq	fp, r0, #356352	; 0x57000
     218:	4a060104 	bmi	180630 <__bss_end__+0x173a40>
     21c:	04210806 	strteq	r0, [r1], #-2054	; 0x806
     220:	4a280302 	bmi	a00e30 <__bss_end__+0x9f4240>
     224:	59030104 	stmdbpl	r3, {r2, r8}
     228:	040200ba 	streq	r0, [r2], #-186	; 0xba
     22c:	064a0601 	strbeq	r0, [sl], -r1, lsl #12
     230:	2f501b08 	svccs	0x00501b08
     234:	02049208 	andeq	r9, r4, #8, 4	; 0x80000000
     238:	4a00ff03 	bmi	3fe4c <__bss_end__+0x3325c>
     23c:	4b9f679f 	blmi	fe7da0c0 <__bss_end__+0xfe7cd4d0>
     240:	827f9b03 	rsbshi	r9, pc, #3072	; 0xc00
     244:	4a00e603 	bmi	39a58 <__bss_end__+0x2ce68>
     248:	087f9d03 	ldmdaeq	pc!, {r0, r1, r8, sl, fp, ip, pc}^	; <UNPREDICTABLE>
     24c:	00e40358 	rsceq	r0, r4, r8, asr r3
     250:	7f9e03d6 	svcvc	0x009e03d6
     254:	e3035808 	movw	r5, #14344	; 0x3808
     258:	9803ba00 	stmdals	r3, {r9, fp, ip, sp, pc}
     25c:	0358087f 	cmpeq	r8, #8323072	; 0x7f0000
     260:	674c9e0a 	strbvs	r9, [ip, -sl, lsl #28]
     264:	da03834b 	ble	e0f98 <__bss_end__+0xd43a8>
     268:	a2034a00 	andge	r4, r3, #0, 20
     26c:	df032e7f 	svcle	0x00032e7f
     270:	01042e00 	tsteq	r4, r0, lsl #28
     274:	027efa03 	rsbseq	pc, lr, #12288	; 0x3000
     278:	029f0126 	addseq	r0, pc, #-2147483639	; 0x80000009
     27c:	004b1524 	subeq	r1, fp, r4, lsr #10
     280:	06010402 	streq	r0, [r1], -r2, lsl #8
     284:	220806ba 	andcs	r0, r8, #195035136	; 0xba00000
     288:	02135a08 	andseq	r5, r3, #8, 20	; 0x8000
     28c:	4ca0192e 	stcmi	9, cr1, [r0], #184	; 0xb8
     290:	00834c30 	addeq	r4, r3, r0, lsr ip
     294:	06010402 	streq	r0, [r1], -r2, lsl #8
     298:	21080666 	tstcs	r8, r6, ror #12
     29c:	02005b08 	andeq	r5, r0, #8, 22	; 0x2000
     2a0:	66060104 	strvs	r0, [r6], -r4, lsl #2
     2a4:	02210806 	eoreq	r0, r1, #393216	; 0x60000
     2a8:	0101001c 	tsteq	r1, ip, lsl r0
     2ac:	000001f4 	strdeq	r0, [r0], -r4
     2b0:	00ff0002 	rscseq	r0, pc, r2
     2b4:	01020000 	mrseq	r0, (UNDEF: 2)
     2b8:	000d0efb 	strdeq	r0, [sp], -fp
     2bc:	01010101 	tsteq	r1, r1, lsl #2
     2c0:	01000000 	mrseq	r0, (UNDEF: 0)
     2c4:	2f010000 	svccs	0x00010000
     2c8:	2f727375 	svccs	0x00727375
     2cc:	61636f6c 	cmnvs	r3, ip, ror #30
     2d0:	65432f6c 	strbvs	r2, [r3, #-3948]	; 0xf6c
     2d4:	72616c6c 	rsbvc	r6, r1, #108, 24	; 0x6c00
     2d8:	6d72612f 	ldfvse	f6, [r2, #-188]!	; 0xffffff44
     2dc:	6e6f6e2d 	cdpvs	14, 6, cr6, cr15, cr13, {1}
     2e0:	61652d65 	cmnvs	r5, r5, ror #26
     2e4:	342f6962 	strtcc	r6, [pc], #-2402	; 2ec <__code_start__-0x7d14>
     2e8:	332e382e 	teqcc	lr, #3014656	; 0x2e0000
     2ec:	3173632d 	cmncc	r3, sp, lsr #6
     2f0:	2f653037 	svccs	0x00653037
     2f4:	2f62696c 	svccs	0x0062696c
     2f8:	2f636367 	svccs	0x00636367
     2fc:	2d6d7261 	sfmcs	f7, 2, [sp, #-388]!	; 0xfffffe7c
     300:	656e6f6e 	strbvs	r6, [lr, #-3950]!	; 0xf6e
     304:	6261652d 	rsbvs	r6, r1, #188743680	; 0xb400000
     308:	2e342f69 	cdpcs	15, 3, cr2, cr4, cr9, {3}
     30c:	2f332e38 	svccs	0x00332e38
     310:	6c636e69 	stclvs	14, cr6, [r3], #-420	; 0xfffffe5c
     314:	00656475 	rsbeq	r6, r5, r5, ror r4
     318:	6573552f 	ldrbvs	r5, [r3, #-1327]!	; 0x52f
     31c:	622f7372 	eorvs	r7, pc, #-939524095	; 0xc8000001
     320:	6e616972 	mcrvs	9, 3, r6, cr1, cr2, {3}
     324:	2f6e756a 	svccs	0x006e756a
     328:	6b736544 	blvs	1cd9840 <__bss_end__+0x1cccc50>
     32c:	2f706f74 	svccs	0x00706f74
     330:	6f686373 	svcvs	0x00686373
     334:	532f6c6f 	teqpl	pc, #28416	; 0x6f00
     338:	6e697270 	mcrvs	2, 3, r7, cr9, cr0, {3}
     33c:	32393167 	eorscc	r3, r9, #-1073741799	; 0xc0000019
     340:	53432f30 	movtpl	r2, #16176	; 0x3f30
     344:	4c303432 	cfldrsmi	mvf3, [r0], #-200	; 0xffffff38
     348:	73632f58 	cmnvc	r3, #88, 30	; 0x160
     34c:	6c303432 	cfldrsvs	mvf3, [r0], #-200	; 0xffffff38
     350:	30322d78 	eorscc	r2, r2, r8, ror sp
     354:	2f727073 	svccs	0x00727073
     358:	7062696c 	rsbvc	r6, r2, ip, ror #18
     35c:	6e692f69 	cdpvs	15, 6, cr2, cr9, cr9, {3}
     360:	64756c63 	ldrbtvs	r6, [r5], #-3171	; 0xc63
     364:	63000065 	movwvs	r0, #101	; 0x65
     368:	2d343170 	ldfcss	f3, [r4, #-448]!	; 0xfffffe40
     36c:	75626564 	strbvc	r6, [r2, #-1380]!	; 0x564
     370:	00632e67 	rsbeq	r2, r3, r7, ror #28
     374:	63000000 	movwvs	r0, #0
     378:	2d343170 	ldfcss	f3, [r4, #-448]!	; 0xfffffe40
     37c:	75626564 	strbvc	r6, [r2, #-1380]!	; 0x564
     380:	00682e67 	rsbeq	r2, r8, r7, ror #28
     384:	73000000 	movwvc	r0, #0
     388:	6e696474 	mcrvs	4, 3, r6, cr9, cr4, {3}
     38c:	63672d74 	cmnvs	r7, #116, 26	; 0x1d00
     390:	00682e63 	rsbeq	r2, r8, r3, ror #28
     394:	72000001 	andvc	r0, r0, #1
     398:	682e6970 	stmdavs	lr!, {r4, r5, r6, r8, fp, sp, lr}
     39c:	00000200 	andeq	r0, r0, r0, lsl #4
     3a0:	2d697072 	stclcs	0, cr7, [r9, #-456]!	; 0xfffffe38
     3a4:	65746e69 	ldrbvs	r6, [r4, #-3689]!	; 0xe69
     3a8:	70757272 	rsbsvc	r7, r5, r2, ror r2
     3ac:	682e7374 	stmdavs	lr!, {r2, r4, r5, r6, r8, r9, ip, sp, lr}
     3b0:	00000200 	andeq	r0, r0, r0, lsl #4
     3b4:	02050000 	andeq	r0, r5, #0
     3b8:	00008600 	andeq	r8, r0, r0, lsl #12
     3bc:	03013503 	movweq	r3, #5379	; 0x1503
     3c0:	24034a62 	strcs	r4, [r3], #-2658	; 0xa62
     3c4:	2e62032e 	cdpcs	3, 6, cr0, cr2, cr14, {1}
     3c8:	032e7a03 	teqeq	lr, #12288	; 0x3000
     3cc:	02002e29 	andeq	r2, r0, #656	; 0x290
     3d0:	4a060104 	bmi	1807e8 <__bss_end__+0x173bf8>
     3d4:	08650306 	stmdaeq	r5!, {r1, r2, r8, r9}^
     3d8:	2e780320 	cdpcs	3, 7, cr0, cr8, cr0, {1}
     3dc:	034a7a03 	movteq	r7, #43523	; 0xaa03
     3e0:	02002e3a 	andeq	r2, r0, #928	; 0x3a0
     3e4:	4a060104 	bmi	1807fc <__bss_end__+0x173c0c>
     3e8:	7fbb0306 	svcvc	0x00bb0306
     3ec:	c8032008 	stmdagt	r3, {r3, sp}
     3f0:	f54b4a00 			; <UNDEFINED> instruction: 0xf54b4a00
     3f4:	036c0204 	cmneq	ip, #4, 4	; 0x40000000
     3f8:	4b344a13 	blmi	d12c4c <__bss_end__+0xd0605c>
     3fc:	04d65d03 	ldrbeq	r5, [r6], #3331	; 0xd03
     400:	2e110301 	cdpcs	3, 1, cr0, cr1, cr1, {0}
     404:	01040200 	mrseq	r0, R12_usr
     408:	08066606 	stmdaeq	r6, {r1, r2, r9, sl, sp, lr}
     40c:	04020022 	streq	r0, [r2], #-34	; 0x22
     410:	04820601 	streq	r0, [r2], #1537	; 0x601
     414:	7a030602 	bvc	c1c24 <__bss_end__+0xb5034>
     418:	01042008 	tsteq	r4, r8
     41c:	4b2e0c03 	blmi	b83430 <__bss_end__+0xb76840>
     420:	83315a08 	teqhi	r1, #8, 20	; 0x8000
     424:	7fbb032f 	svcvc	0x00bb032f
     428:	4a5b0366 	bmi	16c11c8 <__bss_end__+0x16b45d8>
     42c:	82019b03 	andhi	r9, r1, #3072	; 0xc00
     430:	03016503 	movweq	r6, #5379	; 0x1503
     434:	62032e1f 	andvs	r2, r3, #496	; 0x1f0
     438:	03302c2e 	teqeq	r0, #11776	; 0x2e00
     43c:	034a7eff 	movteq	r7, #44799	; 0xaeff
     440:	a24a01b3 	subge	r0, sl, #-1073741780	; 0xc000002c
     444:	62030204 	andvs	r0, r3, #4, 4	; 0x40000000
     448:	01043366 	tsteq	r4, r6, ror #6
     44c:	4b2e1b03 	blmi	b87060 <__bss_end__+0xb7a470>
     450:	040200d7 	streq	r0, [r2], #-215	; 0xd7
     454:	04820601 	streq	r0, [r2], #1537	; 0x601
     458:	4f030602 	svcmi	0x00030602
     45c:	01042008 	tsteq	r4, r8
     460:	4b2e3303 	blmi	b8d074 <__bss_end__+0xb80484>
     464:	2e0b03f4 	mcrcs	3, 0, r0, cr11, cr4, {7}
     468:	3f082f01 	svccc	0x00082f01
     46c:	017fb103 	cmneq	pc, r3, lsl #2
     470:	2e00d303 	cdpcs	3, 0, cr13, cr0, cr3, {0}
     474:	2e7fae03 	cdpcs	14, 7, cr10, cr15, cr3, {0}
     478:	ff03302c 			; <UNDEFINED> instruction: 0xff03302c
     47c:	e7034a7e 	smlsdx	r3, lr, sl, r4
     480:	03a24a01 			; <UNDEFINED> instruction: 0x03a24a01
     484:	03017f96 	movweq	r7, #8086	; 0x1f96
     488:	318200fb 	strdcc	r0, [r2, fp]
     48c:	10034b4b 	andne	r4, r3, fp, asr #22
     490:	4a71032e 	bmi	1c41150 <__bss_end__+0x1c34560>
     494:	324b674c 	subcc	r6, fp, #76, 14	; 0x1300000
     498:	7703694e 	strvc	r6, [r3, -lr, asr #18]
     49c:	02354d4a 	eorseq	r4, r5, #4736	; 0x1280
     4a0:	01010004 	tsteq	r1, r4
     4a4:	00000267 	andeq	r0, r0, r7, ror #4
     4a8:	013b0002 	teqeq	fp, r2
     4ac:	01020000 	mrseq	r0, (UNDEF: 2)
     4b0:	000d0efb 	strdeq	r0, [sp], -fp
     4b4:	01010101 	tsteq	r1, r1, lsl #2
     4b8:	01000000 	mrseq	r0, (UNDEF: 0)
     4bc:	2f010000 	svccs	0x00010000
     4c0:	72657355 	rsbvc	r7, r5, #1409286145	; 0x54000001
     4c4:	72622f73 	rsbvc	r2, r2, #460	; 0x1cc
     4c8:	6a6e6169 	bvs	1b98a74 <__bss_end__+0x1b8be84>
     4cc:	442f6e75 	strtmi	r6, [pc], #-3701	; 4d4 <__code_start__-0x7b2c>
     4d0:	746b7365 	strbtvc	r7, [fp], #-869	; 0x365
     4d4:	732f706f 	teqvc	pc, #111	; 0x6f
     4d8:	6f6f6863 	svcvs	0x006f6863
     4dc:	70532f6c 	subsvc	r2, r3, ip, ror #30
     4e0:	676e6972 			; <UNDEFINED> instruction: 0x676e6972
     4e4:	30323931 	eorscc	r3, r2, r1, lsr r9
     4e8:	3253432f 	subscc	r4, r3, #-1140850688	; 0xbc000000
     4ec:	584c3034 	stmdapl	ip, {r2, r4, r5, ip, sp}^
     4f0:	3273632f 	rsbscc	r6, r3, #-1140850688	; 0xbc000000
     4f4:	786c3034 	stmdavc	ip!, {r2, r4, r5, ip, sp}^
     4f8:	7330322d 	teqvc	r0, #-805306366	; 0xd0000002
     4fc:	6c2f7270 	sfmvs	f7, 4, [pc], #-448	; 344 <__code_start__-0x7cbc>
     500:	69706269 	ldmdbvs	r0!, {r0, r3, r5, r6, r9, sp, lr}^
     504:	636e692f 	cmnvs	lr, #770048	; 0xbc000
     508:	6564756c 	strbvs	r7, [r4, #-1388]!	; 0x56c
     50c:	73752f00 	cmnvc	r5, #0, 30
     510:	6f6c2f72 	svcvs	0x006c2f72
     514:	2f6c6163 	svccs	0x006c6163
     518:	6c6c6543 	cfstr64vs	mvdx6, [ip], #-268	; 0xfffffef4
     51c:	612f7261 	teqvs	pc, r1, ror #4
     520:	6e2d6d72 	mcrvs	13, 1, r6, cr13, cr2, {3}
     524:	2d656e6f 	stclcs	14, cr6, [r5, #-444]!	; 0xfffffe44
     528:	69626165 	stmdbvs	r2!, {r0, r2, r5, r6, r8, sp, lr}^
     52c:	382e342f 	stmdacc	lr!, {r0, r1, r2, r3, r5, sl, ip, sp}
     530:	632d332e 	teqvs	sp, #-1207959552	; 0xb8000000
     534:	30373173 	eorscc	r3, r7, r3, ror r1
     538:	696c2f65 	stmdbvs	ip!, {r0, r2, r5, r6, r8, r9, sl, fp, sp}^
     53c:	63672f62 	cmnvs	r7, #392	; 0x188
     540:	72612f63 	rsbvc	r2, r1, #396	; 0x18c
     544:	6f6e2d6d 	svcvs	0x006e2d6d
     548:	652d656e 	strvs	r6, [sp, #-1390]!	; 0x56e
     54c:	2f696261 	svccs	0x00696261
     550:	2e382e34 	mrccs	14, 1, r2, cr8, cr4, {1}
     554:	6e692f33 	mcrvs	15, 3, r2, cr9, cr3, {1}
     558:	64756c63 	ldrbtvs	r6, [r5], #-3171	; 0xc63
     55c:	63000065 	movwvs	r0, #101	; 0x65
     560:	6b636568 	blvs	18d9b08 <__bss_end__+0x18ccf18>
     564:	746e692d 	strbtvc	r6, [lr], #-2349	; 0x92d
     568:	656c7265 	strbvs	r7, [ip, #-613]!	; 0x265
     56c:	2e657661 	cdpcs	6, 6, cr7, cr5, cr1, {3}
     570:	00000063 	andeq	r0, r0, r3, rrx
     574:	31706300 	cmncc	r0, r0, lsl #6
     578:	65642d34 	strbvs	r2, [r4, #-3380]!	; 0xd34
     57c:	2e677562 	cdpcs	5, 6, cr7, cr7, cr2, {3}
     580:	00000068 	andeq	r0, r0, r8, rrx
     584:	69707200 	ldmdbvs	r0!, {r9, ip, sp, lr}^
     588:	746e692d 	strbtvc	r6, [lr], #-2349	; 0x92d
     58c:	75727265 	ldrbvc	r7, [r2, #-613]!	; 0x265
     590:	2e737470 	mrccs	4, 3, r7, cr3, cr0, {3}
     594:	00010068 	andeq	r0, r1, r8, rrx
     598:	74696200 	strbtvc	r6, [r9], #-512	; 0x200
     59c:	7075732d 	rsbsvc	r7, r5, sp, lsr #6
     5a0:	74726f70 	ldrbtvc	r6, [r2], #-3952	; 0xf70
     5a4:	0000682e 	andeq	r6, r0, lr, lsr #16
     5a8:	70630000 	rsbvc	r0, r3, r0
     5ac:	752d7273 	strvc	r7, [sp, #-627]!	; 0x273
     5b0:	2e6c6974 	mcrcs	9, 3, r6, cr12, cr4, {3}
     5b4:	00000068 	andeq	r0, r0, r8, rrx
     5b8:	64747300 	ldrbtvs	r7, [r4], #-768	; 0x300
     5bc:	2d746e69 	ldclcs	14, cr6, [r4, #-420]!	; 0xfffffe5c
     5c0:	2e636367 	cdpcs	3, 6, cr6, cr3, cr7, {3}
     5c4:	00020068 	andeq	r0, r2, r8, rrx
     5c8:	65686300 	strbvs	r6, [r8, #-768]!	; 0x300
     5cc:	692d6b63 	pushvs	{r0, r1, r5, r6, r8, r9, fp, sp, lr}
     5d0:	7265746e 	rsbvc	r7, r5, #1845493760	; 0x6e000000
     5d4:	7661656c 	strbtvc	r6, [r1], -ip, ror #10
     5d8:	00682e65 	rsbeq	r2, r8, r5, ror #28
     5dc:	72000000 	andvc	r0, r0, #0
     5e0:	682e6970 	stmdavs	lr!, {r4, r5, r6, r8, fp, sp, lr}
     5e4:	00000100 	andeq	r0, r0, r0, lsl #2
     5e8:	02050000 	andeq	r0, r5, #0
     5ec:	00008ab0 			; <UNDEFINED> instruction: 0x00008ab0
     5f0:	67010a03 	strvs	r0, [r1, -r3, lsl #20]
     5f4:	01040200 	mrseq	r0, R12_usr
     5f8:	02048206 	andeq	r8, r4, #1610612736	; 0x60000000
     5fc:	019a0306 	orrseq	r0, sl, r6, lsl #6
     600:	010433ba 			; <UNDEFINED> instruction: 0x010433ba
     604:	2e7ee203 	cdpcs	2, 7, cr14, cr14, cr3, {0}
     608:	834dd84b 	movthi	sp, #55371	; 0xd84b
     60c:	2f4ba383 	svccs	0x004ba383
     610:	304b674b 	subcc	r6, fp, fp, asr #14
     614:	04020068 	streq	r0, [r2], #-104	; 0x68
     618:	06820601 	streq	r0, [r2], r1, lsl #12
     61c:	00682108 	rsbeq	r2, r8, r8, lsl #2
     620:	06010402 	streq	r0, [r1], -r2, lsl #8
     624:	67bb0682 	ldrvs	r0, [fp, r2, lsl #13]!
     628:	01040200 	mrseq	r0, R12_usr
     62c:	bb068206 	bllt	1a0e4c <__bss_end__+0x19425c>
     630:	0304ca08 	movweq	ip, #18952	; 0x4a08
     634:	31040463 	tstcc	r4, r3, ror #8
     638:	6b030504 	blvs	c1a50 <__bss_end__+0xb4e60>
     63c:	0301042e 	movweq	r0, #5166	; 0x142e
     640:	4e4b2e19 	mcrmi	14, 2, r2, cr11, cr9, {0}
     644:	00682a84 	rsbeq	r2, r8, r4, lsl #21
     648:	06010402 	streq	r0, [r1], -r2, lsl #8
     64c:	6ad80666 	bvs	ff601fec <__bss_end__+0xff5f53fc>
     650:	84314b67 	ldrthi	r4, [r1], #-2919	; 0xb67
     654:	849f6967 	ldrhi	r6, [pc], #2407	; 65c <__code_start__-0x79a4>
     658:	04686869 	strbteq	r6, [r8], #-2153	; 0x869
     65c:	82510304 	subshi	r0, r1, #4, 6	; 0x10000000
     660:	6c030504 	cfstr32vs	mvfx0, [r3], {4}
     664:	0867652e 	stmdaeq	r7!, {r1, r2, r3, r5, r8, sl, sp, lr}^
     668:	02600825 	rsbeq	r0, r0, #2424832	; 0x250000
     66c:	4b4b1528 	blmi	12c5b14 <__bss_end__+0x12b8f24>
     670:	034b4b4b 	movteq	r4, #47947	; 0xbb4b
     674:	044bf279 	strbeq	pc, [fp], #-633	; 0x279	; <UNPREDICTABLE>
     678:	2e380301 	cdpcs	3, 3, cr0, cr8, cr1, {0}
     67c:	55030304 	strpl	r0, [r3, #-772]	; 0x304
     680:	03040466 	movweq	r0, #17510	; 0x4466
     684:	05042e78 	streq	r2, [r4, #-3704]	; 0xe78
     688:	652e6c03 	strvs	r6, [lr, #-3075]!	; 0xc03
     68c:	08250867 	stmdaeq	r5!, {r0, r1, r2, r5, r6, fp}
     690:	15280260 	strne	r0, [r8, #-608]!	; 0x260
     694:	4b4b4b4b 	blmi	12d33c8 <__bss_end__+0x12c67d8>
     698:	f279034b 	vcgt.s<illegal width 64>	q8, <illegal reg q4.5>, <illegal reg q5.5>
     69c:	0303044b 	movweq	r0, #13387	; 0x344b
     6a0:	01042e0d 	tsteq	r4, sp, lsl #28
     6a4:	4c2e2c03 	stcmi	12, cr2, [lr], #-12
     6a8:	4a030404 	bmi	c16c0 <__bss_end__+0xb4ad0>
     6ac:	0305044a 	movweq	r0, #21578	; 0x544a
     6b0:	67652e6c 	strbvs	r2, [r5, -ip, ror #28]!
     6b4:	03042508 	movweq	r2, #17672	; 0x4508
     6b8:	58081703 	stmdapl	r8, {r0, r1, r8, r9, sl, ip}
     6bc:	78030404 	stmdavc	r3, {r2, sl}
     6c0:	0305042e 	movweq	r0, #21550	; 0x542e
     6c4:	67652e6c 	strbvs	r2, [r5, -ip, ror #28]!
     6c8:	01042508 	tsteq	r4, r8, lsl #10
     6cc:	0800c703 	stmdaeq	r0, {r0, r1, r8, r9, sl, lr, pc}
     6d0:	04020058 	streq	r0, [r2], #-88	; 0x58
     6d4:	064a0601 	strbeq	r0, [sl], -r1, lsl #12
     6d8:	2f4c2408 	svccs	0x004c2408
     6dc:	4e173a02 	vnmlsmi.f32	s6, s14, s4
     6e0:	6767684b 	strbvs	r6, [r7, -fp, asr #16]!
     6e4:	d67a039f 			; <UNDEFINED> instruction: 0xd67a039f
     6e8:	01040200 	mrseq	r0, R12_usr
     6ec:	03062e06 	movweq	r2, #28166	; 0x6e06
     6f0:	1aa14a12 	bne	fe852f40 <__bss_end__+0xfe846350>
     6f4:	2d2d2d49 	stccs	13, cr2, [sp, #-292]!	; 0xfffffedc
     6f8:	032d2d2d 	teqeq	sp, #2880	; 0xb40
     6fc:	2f4b4a0a 	svccs	0x004b4a0a
     700:	0402004b 	streq	r0, [r2], #-75	; 0x4b
     704:	82820601 	addhi	r0, r2, #1048576	; 0x100000
     708:	02029f06 	andeq	r9, r2, #6, 30
     70c:	ec010100 	stfs	f0, [r1], {-0}
     710:	02000000 	andeq	r0, r0, #0
     714:	0000d000 	andeq	sp, r0, r0
     718:	fb010200 	blx	40f22 <__bss_end__+0x34332>
     71c:	01000d0e 	tsteq	r0, lr, lsl #26
     720:	00010101 	andeq	r0, r1, r1, lsl #2
     724:	00010000 	andeq	r0, r1, r0
     728:	696c0100 	stmdbvs	ip!, {r8}^
     72c:	2f006362 	svccs	0x00006362
     730:	2f727375 	svccs	0x00727375
     734:	61636f6c 	cmnvs	r3, ip, ror #30
     738:	65432f6c 	strbvs	r2, [r3, #-3948]	; 0xf6c
     73c:	72616c6c 	rsbvc	r6, r1, #108, 24	; 0x6c00
     740:	6d72612f 	ldfvse	f6, [r2, #-188]!	; 0xffffff44
     744:	6e6f6e2d 	cdpvs	14, 6, cr6, cr15, cr13, {1}
     748:	61652d65 	cmnvs	r5, r5, ror #26
     74c:	342f6962 	strtcc	r6, [pc], #-2402	; 754 <__code_start__-0x78ac>
     750:	332e382e 	teqcc	lr, #3014656	; 0x2e0000
     754:	3173632d 	cmncc	r3, sp, lsr #6
     758:	2f653037 	svccs	0x00653037
     75c:	2f62696c 	svccs	0x0062696c
     760:	2f636367 	svccs	0x00636367
     764:	2d6d7261 	sfmcs	f7, 2, [sp, #-388]!	; 0xfffffe7c
     768:	656e6f6e 	strbvs	r6, [lr, #-3950]!	; 0xf6e
     76c:	6261652d 	rsbvs	r6, r1, #188743680	; 0xb400000
     770:	2e342f69 	cdpcs	15, 3, cr2, cr4, cr9, {3}
     774:	2f332e38 	svccs	0x00332e38
     778:	6c636e69 	stclvs	14, cr6, [r3], #-420	; 0xfffffe5c
     77c:	00656475 	rsbeq	r6, r5, r5, ror r4
     780:	7273752f 	rsbsvc	r7, r3, #197132288	; 0xbc00000
     784:	636f6c2f 	cmnvs	pc, #12032	; 0x2f00
     788:	432f6c61 	teqmi	pc, #24832	; 0x6100
     78c:	616c6c65 	cmnvs	ip, r5, ror #24
     790:	72612f72 	rsbvc	r2, r1, #456	; 0x1c8
     794:	6f6e2d6d 	svcvs	0x006e2d6d
     798:	652d656e 	strvs	r6, [sp, #-1390]!	; 0x56e
     79c:	2f696261 	svccs	0x00696261
     7a0:	2e382e34 	mrccs	14, 1, r2, cr8, cr4, {1}
     7a4:	73632d33 	cmnvc	r3, #3264	; 0xcc0
     7a8:	65303731 	ldrvs	r3, [r0, #-1841]!	; 0x731
     7ac:	6d72612f 	ldfvse	f6, [r2, #-188]!	; 0xffffff44
     7b0:	6e6f6e2d 	cdpvs	14, 6, cr6, cr15, cr13, {1}
     7b4:	61652d65 	cmnvs	r5, r5, ror #26
     7b8:	692f6962 	stmdbvs	pc!, {r1, r5, r6, r8, fp, sp, lr}	; <UNPREDICTABLE>
     7bc:	756c636e 	strbvc	r6, [ip, #-878]!	; 0x36e
     7c0:	00006564 	andeq	r6, r0, r4, ror #10
     7c4:	736d656d 	cmnvc	sp, #457179136	; 0x1b400000
     7c8:	632e7465 	teqvs	lr, #1694498816	; 0x65000000
     7cc:	00000100 	andeq	r0, r0, r0, lsl #2
     7d0:	64647473 	strbtvs	r7, [r4], #-1139	; 0x473
     7d4:	682e6665 	stmdavs	lr!, {r0, r2, r5, r6, r9, sl, sp, lr}
     7d8:	00000200 	andeq	r0, r0, r0, lsl #4
     7dc:	69727473 	ldmdbvs	r2!, {r0, r1, r4, r5, r6, sl, ip, sp, lr}^
     7e0:	682e676e 	stmdavs	lr!, {r1, r2, r3, r5, r6, r8, r9, sl, sp, lr}
     7e4:	00000300 	andeq	r0, r0, r0, lsl #6
     7e8:	02050000 	andeq	r0, r5, #0
     7ec:	00009234 	andeq	r9, r0, r4, lsr r2
     7f0:	2f4c1314 	svccs	0x004c1314
     7f4:	01040200 	mrseq	r0, R12_usr
     7f8:	02024d49 	andeq	r4, r2, #4672	; 0x1240
     7fc:	0c010100 	stfeqs	f0, [r1], {-0}
     800:	02000001 	andeq	r0, r0, #1
     804:	0000f500 	andeq	pc, r0, r0, lsl #10
     808:	fb010200 	blx	41012 <__bss_end__+0x34422>
     80c:	01000d0e 	tsteq	r0, lr, lsl #26
     810:	00010101 	andeq	r0, r1, r1, lsl #2
     814:	00010000 	andeq	r0, r1, r0
     818:	696c0100 	stmdbvs	ip!, {r8}^
     81c:	2f006362 	svccs	0x00006362
     820:	2f727375 	svccs	0x00727375
     824:	61636f6c 	cmnvs	r3, ip, ror #30
     828:	65432f6c 	strbvs	r2, [r3, #-3948]	; 0xf6c
     82c:	72616c6c 	rsbvc	r6, r1, #108, 24	; 0x6c00
     830:	6d72612f 	ldfvse	f6, [r2, #-188]!	; 0xffffff44
     834:	6e6f6e2d 	cdpvs	14, 6, cr6, cr15, cr13, {1}
     838:	61652d65 	cmnvs	r5, r5, ror #26
     83c:	342f6962 	strtcc	r6, [pc], #-2402	; 844 <__code_start__-0x77bc>
     840:	332e382e 	teqcc	lr, #3014656	; 0x2e0000
     844:	3173632d 	cmncc	r3, sp, lsr #6
     848:	2f653037 	svccs	0x00653037
     84c:	2f62696c 	svccs	0x0062696c
     850:	2f636367 	svccs	0x00636367
     854:	2d6d7261 	sfmcs	f7, 2, [sp, #-388]!	; 0xfffffe7c
     858:	656e6f6e 	strbvs	r6, [lr, #-3950]!	; 0xf6e
     85c:	6261652d 	rsbvs	r6, r1, #188743680	; 0xb400000
     860:	2e342f69 	cdpcs	15, 3, cr2, cr4, cr9, {3}
     864:	2f332e38 	svccs	0x00332e38
     868:	6c636e69 	stclvs	14, cr6, [r3], #-420	; 0xfffffe5c
     86c:	00656475 	rsbeq	r6, r5, r5, ror r4
     870:	6573552f 	ldrbvs	r5, [r3, #-1327]!	; 0x52f
     874:	622f7372 	eorvs	r7, pc, #-939524095	; 0xc8000001
     878:	6e616972 	mcrvs	9, 3, r6, cr1, cr2, {3}
     87c:	2f6e756a 	svccs	0x006e756a
     880:	6b736544 	blvs	1cd9d98 <__bss_end__+0x1ccd1a8>
     884:	2f706f74 	svccs	0x00706f74
     888:	6f686373 	svcvs	0x00686373
     88c:	532f6c6f 	teqpl	pc, #28416	; 0x6f00
     890:	6e697270 	mcrvs	2, 3, r7, cr9, cr0, {3}
     894:	32393167 	eorscc	r3, r9, #-1073741799	; 0xc0000019
     898:	53432f30 	movtpl	r2, #16176	; 0x3f30
     89c:	4c303432 	cfldrsmi	mvf3, [r0], #-200	; 0xffffff38
     8a0:	73632f58 	cmnvc	r3, #88, 30	; 0x160
     8a4:	6c303432 	cfldrsvs	mvf3, [r0], #-200	; 0xffffff38
     8a8:	30322d78 	eorscc	r2, r2, r8, ror sp
     8ac:	2f727073 	svccs	0x00727073
     8b0:	7062696c 	rsbvc	r6, r2, ip, ror #18
     8b4:	6e692f69 	cdpvs	15, 6, cr2, cr9, cr9, {3}
     8b8:	64756c63 	ldrbtvs	r6, [r5], #-3171	; 0xc63
     8bc:	70000065 	andvc	r0, r0, r5, rrx
     8c0:	746e6972 	strbtvc	r6, [lr], #-2418	; 0x972
     8c4:	00632e6b 	rsbeq	r2, r3, fp, ror #28
     8c8:	73000001 	movwvc	r0, #1
     8cc:	72616474 	rsbvc	r6, r1, #116, 8	; 0x74000000
     8d0:	00682e67 	rsbeq	r2, r8, r7, ror #28
     8d4:	3c000002 	stccc	0, cr0, [r0], {2}
     8d8:	6c697562 	cfstr64vs	mvdx7, [r9], #-392	; 0xfffffe78
     8dc:	6e692d74 	mcrvs	13, 3, r2, cr9, cr4, {3}
     8e0:	0000003e 	andeq	r0, r0, lr, lsr r0
     8e4:	69707200 	ldmdbvs	r0!, {r9, ip, sp, lr}^
     8e8:	0300682e 	movweq	r6, #2094	; 0x82e
     8ec:	61760000 	cmnvs	r6, r0
     8f0:	6972702d 	ldmdbvs	r2!, {r0, r2, r3, r5, ip, sp, lr}^
     8f4:	2e6b746e 	cdpcs	4, 6, cr7, cr11, cr14, {3}
     8f8:	00010068 	andeq	r0, r1, r8, rrx
     8fc:	05000000 	streq	r0, [r0, #-0]
     900:	00925402 	addseq	r5, r2, r2, lsl #8
     904:	4b6b1700 	blmi	1ac650c <__bss_end__+0x1ab991c>
     908:	0e0289bf 	mcreq	9, 0, r8, cr2, cr15, {5}
     90c:	94010100 	strls	r0, [r1], #-256	; 0x100
     910:	02000000 	andeq	r0, r0, #0
     914:	00007c00 	andeq	r7, r0, r0, lsl #24
     918:	fb010200 	blx	41122 <__bss_end__+0x34532>
     91c:	01000d0e 	tsteq	r0, lr, lsl #26
     920:	00010101 	andeq	r0, r1, r1, lsl #2
     924:	00010000 	andeq	r0, r1, r0
     928:	696c0100 	stmdbvs	ip!, {r8}^
     92c:	2f006362 	svccs	0x00006362
     930:	72657355 	rsbvc	r7, r5, #1409286145	; 0x54000001
     934:	72622f73 	rsbvc	r2, r2, #460	; 0x1cc
     938:	6a6e6169 	bvs	1b98ee4 <__bss_end__+0x1b8c2f4>
     93c:	442f6e75 	strtmi	r6, [pc], #-3701	; 944 <__code_start__-0x76bc>
     940:	746b7365 	strbtvc	r7, [fp], #-869	; 0x365
     944:	732f706f 	teqvc	pc, #111	; 0x6f
     948:	6f6f6863 	svcvs	0x006f6863
     94c:	70532f6c 	subsvc	r2, r3, ip, ror #30
     950:	676e6972 			; <UNDEFINED> instruction: 0x676e6972
     954:	30323931 	eorscc	r3, r2, r1, lsr r9
     958:	3253432f 	subscc	r4, r3, #-1140850688	; 0xbc000000
     95c:	584c3034 	stmdapl	ip, {r2, r4, r5, ip, sp}^
     960:	3273632f 	rsbscc	r6, r3, #-1140850688	; 0xbc000000
     964:	786c3034 	stmdavc	ip!, {r2, r4, r5, ip, sp}^
     968:	7330322d 	teqvc	r0, #-805306366	; 0xd0000002
     96c:	6c2f7270 	sfmvs	f7, 4, [pc], #-448	; 7b4 <__code_start__-0x784c>
     970:	69706269 	ldmdbvs	r0!, {r0, r3, r5, r6, r9, sp, lr}^
     974:	636e692f 	cmnvs	lr, #770048	; 0xbc000
     978:	6564756c 	strbvs	r7, [r4, #-1388]!	; 0x56c
     97c:	75700000 	ldrbvc	r0, [r0, #-0]!
     980:	61686374 	smcvs	34356	; 0x8634
     984:	00632e72 	rsbeq	r2, r3, r2, ror lr
     988:	72000001 	andvc	r0, r0, #1
     98c:	682e6970 	stmdavs	lr!, {r4, r5, r6, r8, fp, sp, lr}
     990:	00000200 	andeq	r0, r0, r0, lsl #4
     994:	02050000 	andeq	r0, r5, #0
     998:	000092ac 	andeq	r9, r0, ip, lsr #5
     99c:	136b4a14 	cmnne	fp, #20, 20	; 0x14000
     9a0:	080213bc 	stmdaeq	r2, {r2, r3, r4, r5, r7, r8, r9, ip}
     9a4:	a0010100 	andge	r0, r1, r0, lsl #2
     9a8:	02000000 	andeq	r0, r0, #0
     9ac:	00007900 	andeq	r7, r0, r0, lsl #18
     9b0:	fb010200 	blx	411ba <__bss_end__+0x345ca>
     9b4:	01000d0e 	tsteq	r0, lr, lsl #26
     9b8:	00010101 	andeq	r0, r1, r1, lsl #2
     9bc:	00010000 	andeq	r0, r1, r0
     9c0:	696c0100 	stmdbvs	ip!, {r8}^
     9c4:	2f006362 	svccs	0x00006362
     9c8:	72657355 	rsbvc	r7, r5, #1409286145	; 0x54000001
     9cc:	72622f73 	rsbvc	r2, r2, #460	; 0x1cc
     9d0:	6a6e6169 	bvs	1b98f7c <__bss_end__+0x1b8c38c>
     9d4:	442f6e75 	strtmi	r6, [pc], #-3701	; 9dc <__code_start__-0x7624>
     9d8:	746b7365 	strbtvc	r7, [fp], #-869	; 0x365
     9dc:	732f706f 	teqvc	pc, #111	; 0x6f
     9e0:	6f6f6863 	svcvs	0x006f6863
     9e4:	70532f6c 	subsvc	r2, r3, ip, ror #30
     9e8:	676e6972 			; <UNDEFINED> instruction: 0x676e6972
     9ec:	30323931 	eorscc	r3, r2, r1, lsr r9
     9f0:	3253432f 	subscc	r4, r3, #-1140850688	; 0xbc000000
     9f4:	584c3034 	stmdapl	ip, {r2, r4, r5, ip, sp}^
     9f8:	3273632f 	rsbscc	r6, r3, #-1140850688	; 0xbc000000
     9fc:	786c3034 	stmdavc	ip!, {r2, r4, r5, ip, sp}^
     a00:	7330322d 	teqvc	r0, #-805306366	; 0xd0000002
     a04:	6c2f7270 	sfmvs	f7, 4, [pc], #-448	; 84c <__code_start__-0x77b4>
     a08:	69706269 	ldmdbvs	r0!, {r0, r3, r5, r6, r9, sp, lr}^
     a0c:	636e692f 	cmnvs	lr, #770048	; 0xbc000
     a10:	6564756c 	strbvs	r7, [r4, #-1388]!	; 0x56c
     a14:	75700000 	ldrbvc	r0, [r0, #-0]!
     a18:	632e6b74 	teqvs	lr, #116, 22	; 0x1d000
     a1c:	00000100 	andeq	r0, r0, r0, lsl #2
     a20:	2e697072 	mcrcs	0, 3, r7, cr9, cr2, {3}
     a24:	00020068 	andeq	r0, r2, r8, rrx
     a28:	05000000 	streq	r0, [r0, #-0]
     a2c:	0092e802 	addseq	lr, r2, r2, lsl #16
     a30:	2d4c1500 	cfstr64cs	mvdx1, [ip, #-0]
     a34:	02040200 	andeq	r0, r4, #0, 4
     a38:	0402002f 	streq	r0, [r2], #-47	; 0x2f
     a3c:	02004902 	andeq	r4, r0, #32768	; 0x8000
     a40:	2e060104 	adfcss	f0, f6, f4
     a44:	06026b06 	streq	r6, [r2], -r6, lsl #22
     a48:	f1010100 	setend	le
     a4c:	02000001 	andeq	r0, r0, #1
     a50:	0000e900 	andeq	lr, r0, r0, lsl #18
     a54:	fb010200 	blx	4125e <__bss_end__+0x3466e>
     a58:	01000d0e 	tsteq	r0, lr, lsl #26
     a5c:	00010101 	andeq	r0, r1, r1, lsl #2
     a60:	00010000 	andeq	r0, r1, r0
     a64:	696c0100 	stmdbvs	ip!, {r8}^
     a68:	2f006362 	svccs	0x00006362
     a6c:	2f727375 	svccs	0x00727375
     a70:	61636f6c 	cmnvs	r3, ip, ror #30
     a74:	65432f6c 	strbvs	r2, [r3, #-3948]	; 0xf6c
     a78:	72616c6c 	rsbvc	r6, r1, #108, 24	; 0x6c00
     a7c:	6d72612f 	ldfvse	f6, [r2, #-188]!	; 0xffffff44
     a80:	6e6f6e2d 	cdpvs	14, 6, cr6, cr15, cr13, {1}
     a84:	61652d65 	cmnvs	r5, r5, ror #26
     a88:	342f6962 	strtcc	r6, [pc], #-2402	; a90 <__code_start__-0x7570>
     a8c:	332e382e 	teqcc	lr, #3014656	; 0x2e0000
     a90:	3173632d 	cmncc	r3, sp, lsr #6
     a94:	2f653037 	svccs	0x00653037
     a98:	2f62696c 	svccs	0x0062696c
     a9c:	2f636367 	svccs	0x00636367
     aa0:	2d6d7261 	sfmcs	f7, 2, [sp, #-388]!	; 0xfffffe7c
     aa4:	656e6f6e 	strbvs	r6, [lr, #-3950]!	; 0xf6e
     aa8:	6261652d 	rsbvs	r6, r1, #188743680	; 0xb400000
     aac:	2e342f69 	cdpcs	15, 3, cr2, cr4, cr9, {3}
     ab0:	2f332e38 	svccs	0x00332e38
     ab4:	6c636e69 	stclvs	14, cr6, [r3], #-420	; 0xfffffe5c
     ab8:	00656475 	rsbeq	r6, r5, r5, ror r4
     abc:	6573552f 	ldrbvs	r5, [r3, #-1327]!	; 0x52f
     ac0:	622f7372 	eorvs	r7, pc, #-939524095	; 0xc8000001
     ac4:	6e616972 	mcrvs	9, 3, r6, cr1, cr2, {3}
     ac8:	2f6e756a 	svccs	0x006e756a
     acc:	6b736544 	blvs	1cd9fe4 <__bss_end__+0x1ccd3f4>
     ad0:	2f706f74 	svccs	0x00706f74
     ad4:	6f686373 	svcvs	0x00686373
     ad8:	532f6c6f 	teqpl	pc, #28416	; 0x6f00
     adc:	6e697270 	mcrvs	2, 3, r7, cr9, cr0, {3}
     ae0:	32393167 	eorscc	r3, r9, #-1073741799	; 0xc0000019
     ae4:	53432f30 	movtpl	r2, #16176	; 0x3f30
     ae8:	4c303432 	cfldrsmi	mvf3, [r0], #-200	; 0xffffff38
     aec:	73632f58 	cmnvc	r3, #88, 30	; 0x160
     af0:	6c303432 	cfldrsvs	mvf3, [r0], #-200	; 0xffffff38
     af4:	30322d78 	eorscc	r2, r2, r8, ror sp
     af8:	2f727073 	svccs	0x00727073
     afc:	7062696c 	rsbvc	r6, r2, ip, ror #18
     b00:	6e692f69 	cdpvs	15, 6, cr2, cr9, cr9, {3}
     b04:	64756c63 	ldrbtvs	r6, [r5], #-3171	; 0xc63
     b08:	76000065 	strvc	r0, [r0], -r5, rrx
     b0c:	72702d61 	rsbsvc	r2, r0, #6208	; 0x1840
     b10:	6b746e69 	blvs	1d1c4bc <__bss_end__+0x1d0f8cc>
     b14:	0100632e 	tsteq	r0, lr, lsr #6
     b18:	74730000 	ldrbtvc	r0, [r3], #-0
     b1c:	67726164 	ldrbvs	r6, [r2, -r4, ror #2]!
     b20:	0200682e 	andeq	r6, r0, #3014656	; 0x2e0000
     b24:	70720000 	rsbsvc	r0, r2, r0
     b28:	00682e69 	rsbeq	r2, r8, r9, ror #28
     b2c:	3c000003 	stccc	0, cr0, [r0], {3}
     b30:	6c697562 	cfstr64vs	mvdx7, [r9], #-392	; 0xfffffe78
     b34:	6e692d74 	mcrvs	13, 3, r2, cr9, cr4, {3}
     b38:	0000003e 	andeq	r0, r0, lr, lsr r0
     b3c:	05000000 	streq	r0, [r0, #-0]
     b40:	00931c02 	addseq	r1, r3, r2, lsl #24
     b44:	01260300 	teqeq	r6, r0, lsl #6
     b48:	3113a501 	tstcc	r3, r1, lsl #10
     b4c:	0402002d 	streq	r0, [r2], #-45	; 0x2d
     b50:	02002f02 	andeq	r2, r0, #2, 30
     b54:	002d0204 	eoreq	r0, sp, r4, lsl #4
     b58:	2f020402 	svccs	0x00020402
     b5c:	01040200 	mrseq	r0, R12_usr
     b60:	304c4c2d 	subcc	r4, ip, sp, lsr #24
     b64:	4f2f4b14 	svcmi	0x002f4b14
     b68:	02040200 	andeq	r0, r4, #0, 4
     b6c:	04020067 	streq	r0, [r2], #-103	; 0x67
     b70:	4d4c6501 	cfstr64mi	mvdx6, [ip, #-4]
     b74:	312fa030 	teqcc	pc, r0, lsr r0	; <UNPREDICTABLE>
     b78:	16260230 			; <UNDEFINED> instruction: 0x16260230
     b7c:	002c2d84 	eoreq	r2, ip, r4, lsl #27
     b80:	30010402 	andcc	r0, r1, r2, lsl #8
     b84:	01040200 	mrseq	r0, R12_usr
     b88:	00660633 	rsbeq	r0, r6, r3, lsr r6
     b8c:	2e010402 	cdpcs	4, 0, cr0, cr1, cr2, {0}
     b90:	01040200 	mrseq	r0, R12_usr
     b94:	67210806 	strvs	r0, [r1, -r6, lsl #16]!
     b98:	8273032f 	rsbshi	r0, r3, #-1140850688	; 0xbc000000
     b9c:	002e1303 	eoreq	r1, lr, r3, lsl #6
     ba0:	06010402 	streq	r0, [r1], -r2, lsl #8
     ba4:	04020066 	streq	r0, [r2], #-102	; 0x66
     ba8:	4b830601 	blmi	fe0c23b4 <__bss_end__+0xfe0b57c4>
     bac:	4b31674b 	blmi	c5a8e0 <__bss_end__+0xc4dcf0>
     bb0:	032e6503 	teqeq	lr, #12582912	; 0xc00000
     bb4:	02002e23 	andeq	r2, r0, #560	; 0x230
     bb8:	2e060104 	adfcss	f0, f6, f4
     bbc:	01040200 	mrseq	r0, R12_usr
     bc0:	02009f06 	andeq	r9, r0, #6, 30
     bc4:	086a0104 	stmdaeq	sl!, {r2, r8}^
     bc8:	a403d723 	strge	sp, [r3], #-1827	; 0x723
     bcc:	4b3c087f 	blmi	f02dd0 <__bss_end__+0xef61e0>
     bd0:	01040200 	mrseq	r0, R12_usr
     bd4:	08064a06 	stmdaeq	r6, {r1, r2, r9, fp, lr}
     bd8:	4b2f4b21 	blmi	bd3864 <__bss_end__+0xbc6c74>
     bdc:	f200db03 	vqdmulh.s<illegal width 8>	d13, d0, d3
     be0:	32484c9f 	subcc	r4, r8, #40704	; 0x9f00
     be4:	4b842f4b 	blmi	fe10c918 <__bss_end__+0xfe0ffd28>
     be8:	314d2d2f 	cmpcc	sp, pc, lsr #26
     bec:	00832f30 	addeq	r2, r3, r0, lsr pc
     bf0:	2c010402 	cfstrscs	mvf0, [r1], {2}
     bf4:	040200be 	streq	r0, [r2], #-190	; 0xbe
     bf8:	064a0601 	strbeq	r0, [sl], -r1, lsl #12
     bfc:	36022208 	strcc	r2, [r2], -r8, lsl #4
     c00:	d60e0316 			; <UNDEFINED> instruction: 0xd60e0316
     c04:	08302108 	ldmdaeq	r0!, {r3, r8, sp}
     c08:	21083121 	tstcs	r8, r1, lsr #2
     c0c:	30210830 	eorcc	r0, r1, r0, lsr r8
     c10:	2108304b 	tstcs	r8, fp, asr #32
     c14:	83834b30 	orrhi	r4, r3, #48, 22	; 0xc000
     c18:	002f31d9 	ldrdeq	r3, [pc], -r9	; <UNPREDICTABLE>
     c1c:	65010402 	strvs	r0, [r1, #-1026]	; 0x402
     c20:	02040200 	andeq	r0, r4, #0, 4
     c24:	02004a06 	andeq	r4, r0, #24576	; 0x6000
     c28:	03060104 	movweq	r0, #24836	; 0x6104
     c2c:	00667fbf 	strhteq	r7, [r6], #-255	; 0xffffff01
     c30:	06020402 	streq	r0, [r2], -r2, lsl #8
     c34:	c5030666 	strgt	r0, [r3, #-1638]	; 0x666
     c38:	02684a00 	rsbeq	r4, r8, #0, 20
     c3c:	01010016 	tsteq	r1, r6, lsl r0
     c40:	00000042 	andeq	r0, r0, r2, asr #32
     c44:	00280002 	eoreq	r0, r8, r2
     c48:	01020000 	mrseq	r0, (UNDEF: 2)
     c4c:	000d0efb 	strdeq	r0, [sp], -fp
     c50:	01010101 	tsteq	r1, r1, lsl #2
     c54:	01000000 	mrseq	r0, (UNDEF: 0)
     c58:	73010000 	movwvc	r0, #4096	; 0x1000
     c5c:	66666174 			; <UNDEFINED> instruction: 0x66666174
     c60:	6372732d 	cmnvs	r2, #-1275068416	; 0xb4000000
     c64:	61630000 	cmnvs	r3, r0
     c68:	2e656863 	cdpcs	8, 6, cr6, cr5, cr3, {3}
     c6c:	00010063 	andeq	r0, r1, r3, rrx
     c70:	05000000 	streq	r0, [r0, #-0]
     c74:	00989402 	addseq	r9, r8, r2, lsl #8
     c78:	30141400 	andscc	r1, r4, r0, lsl #8
     c7c:	31144e2f 	tstcc	r4, pc, lsr #28
     c80:	0004022f 	andeq	r0, r4, pc, lsr #4
     c84:	009d0101 	addseq	r0, sp, r1, lsl #2
     c88:	00020000 	andeq	r0, r2, r0
     c8c:	00000086 	andeq	r0, r0, r6, lsl #1
     c90:	0efb0102 	cdpeq	1, 15, cr0, cr11, cr2, {0}
     c94:	0101000d 	tsteq	r1, sp
     c98:	00000101 	andeq	r0, r0, r1, lsl #2
     c9c:	00000100 	andeq	r0, r0, r0, lsl #2
     ca0:	61747301 	cmnvs	r4, r1, lsl #6
     ca4:	732d6666 	teqvc	sp, #106954752	; 0x6600000
     ca8:	2f006372 	svccs	0x00006372
     cac:	72657355 	rsbvc	r7, r5, #1409286145	; 0x54000001
     cb0:	72622f73 	rsbvc	r2, r2, #460	; 0x1cc
     cb4:	6a6e6169 	bvs	1b99260 <__bss_end__+0x1b8c670>
     cb8:	442f6e75 	strtmi	r6, [pc], #-3701	; cc0 <__code_start__-0x7340>
     cbc:	746b7365 	strbtvc	r7, [fp], #-869	; 0x365
     cc0:	732f706f 	teqvc	pc, #111	; 0x6f
     cc4:	6f6f6863 	svcvs	0x006f6863
     cc8:	70532f6c 	subsvc	r2, r3, ip, ror #30
     ccc:	676e6972 			; <UNDEFINED> instruction: 0x676e6972
     cd0:	30323931 	eorscc	r3, r2, r1, lsr r9
     cd4:	3253432f 	subscc	r4, r3, #-1140850688	; 0xbc000000
     cd8:	584c3034 	stmdapl	ip, {r2, r4, r5, ip, sp}^
     cdc:	3273632f 	rsbscc	r6, r3, #-1140850688	; 0xbc000000
     ce0:	786c3034 	stmdavc	ip!, {r2, r4, r5, ip, sp}^
     ce4:	7330322d 	teqvc	r0, #-805306366	; 0xd0000002
     ce8:	6c2f7270 	sfmvs	f7, 4, [pc], #-448	; b30 <__code_start__-0x74d0>
     cec:	69706269 	ldmdbvs	r0!, {r0, r3, r5, r6, r9, sp, lr}^
     cf0:	636e692f 	cmnvs	lr, #770048	; 0xbc000
     cf4:	6564756c 	strbvs	r7, [r4, #-1388]!	; 0x56c
     cf8:	6c630000 	stclvs	0, cr0, [r3], #-0
     cfc:	2d6e6165 	stfcse	f6, [lr, #-404]!	; 0xfffffe6c
     d00:	6f626572 	svcvs	0x00626572
     d04:	632e746f 	teqvs	lr, #1862270976	; 0x6f000000
     d08:	00000100 	andeq	r0, r0, r0, lsl #2
     d0c:	2e697072 	mcrcs	0, 3, r7, cr9, cr2, {3}
     d10:	00020068 	andeq	r0, r2, r8, rrx
     d14:	05000000 	streq	r0, [r0, #-0]
     d18:	0098b402 	addseq	fp, r8, r2, lsl #8
     d1c:	2f2f1500 	svccs	0x002f1500
     d20:	06024b83 	streq	r4, [r2], -r3, lsl #23
     d24:	a6010100 	strge	r0, [r1], -r0, lsl #2
     d28:	02000000 	andeq	r0, r0, #0
     d2c:	00008000 	andeq	r8, r0, r0
     d30:	fb010200 	blx	4153a <__bss_end__+0x3494a>
     d34:	01000d0e 	tsteq	r0, lr, lsl #26
     d38:	00010101 	andeq	r0, r1, r1, lsl #2
     d3c:	00010000 	andeq	r0, r1, r0
     d40:	74730100 	ldrbtvc	r0, [r3], #-256	; 0x100
     d44:	2d666661 	stclcs	6, cr6, [r6, #-388]!	; 0xfffffe7c
     d48:	00637273 	rsbeq	r7, r3, r3, ror r2
     d4c:	6573552f 	ldrbvs	r5, [r3, #-1327]!	; 0x52f
     d50:	622f7372 	eorvs	r7, pc, #-939524095	; 0xc8000001
     d54:	6e616972 	mcrvs	9, 3, r6, cr1, cr2, {3}
     d58:	2f6e756a 	svccs	0x006e756a
     d5c:	6b736544 	blvs	1cda274 <__bss_end__+0x1ccd684>
     d60:	2f706f74 	svccs	0x00706f74
     d64:	6f686373 	svcvs	0x00686373
     d68:	532f6c6f 	teqpl	pc, #28416	; 0x6f00
     d6c:	6e697270 	mcrvs	2, 3, r7, cr9, cr0, {3}
     d70:	32393167 	eorscc	r3, r9, #-1073741799	; 0xc0000019
     d74:	53432f30 	movtpl	r2, #16176	; 0x3f30
     d78:	4c303432 	cfldrsmi	mvf3, [r0], #-200	; 0xffffff38
     d7c:	73632f58 	cmnvc	r3, #88, 30	; 0x160
     d80:	6c303432 	cfldrsvs	mvf3, [r0], #-200	; 0xffffff38
     d84:	30322d78 	eorscc	r2, r2, r8, ror sp
     d88:	2f727073 	svccs	0x00727073
     d8c:	7062696c 	rsbvc	r6, r2, ip, ror #18
     d90:	6e692f69 	cdpvs	15, 6, cr2, cr9, cr9, {3}
     d94:	64756c63 	ldrbtvs	r6, [r5], #-3171	; 0xc63
     d98:	63000065 	movwvs	r0, #101	; 0x65
     d9c:	72617473 	rsbvc	r7, r1, #1929379840	; 0x73000000
     da0:	00632e74 	rsbeq	r2, r3, r4, ror lr
     da4:	72000001 	andvc	r0, r0, #1
     da8:	682e6970 	stmdavs	lr!, {r4, r5, r6, r8, fp, sp, lr}
     dac:	00000200 	andeq	r0, r0, r0, lsl #4
     db0:	02050000 	andeq	r0, r5, #0
     db4:	000098e0 	andeq	r9, r0, r0, ror #17
     db8:	32010c03 	andcc	r0, r1, #768	; 0x300
     dbc:	2f2d2f31 	svccs	0x002d2f31
     dc0:	01040200 	mrseq	r0, R12_usr
     dc4:	4a090349 	bmi	241af0 <__bss_end__+0x234f00>
     dc8:	2f2e0d03 	svccs	0x002e0d03
     dcc:	01000602 	tsteq	r0, r2, lsl #12
     dd0:	0000a201 	andeq	sl, r0, r1, lsl #4
     dd4:	8e000200 	cdphi	2, 0, cr0, cr0, cr0, {0}
     dd8:	02000000 	andeq	r0, r0, #0
     ddc:	0d0efb01 	vstreq	d15, [lr, #-4]
     de0:	01010100 	mrseq	r0, (UNDEF: 17)
     de4:	00000001 	andeq	r0, r0, r1
     de8:	01000001 	tsteq	r0, r1
     dec:	66617473 			; <UNDEFINED> instruction: 0x66617473
     df0:	72732d66 	rsbsvc	r2, r3, #6528	; 0x1980
     df4:	552f0063 	strpl	r0, [pc, #-99]!	; d99 <__code_start__-0x7267>
     df8:	73726573 	cmnvc	r2, #482344960	; 0x1cc00000
     dfc:	6972622f 	ldmdbvs	r2!, {r0, r1, r2, r3, r5, r9, sp, lr}^
     e00:	756a6e61 	strbvc	r6, [sl, #-3681]!	; 0xe61
     e04:	65442f6e 	strbvs	r2, [r4, #-3950]	; 0xf6e
     e08:	6f746b73 	svcvs	0x00746b73
     e0c:	63732f70 	cmnvs	r3, #112, 30	; 0x1c0
     e10:	6c6f6f68 	stclvs	15, cr6, [pc], #-416	; c78 <__code_start__-0x7388>
     e14:	7270532f 	rsbsvc	r5, r0, #-1140850688	; 0xbc000000
     e18:	31676e69 	cmncc	r7, r9, ror #28
     e1c:	2f303239 	svccs	0x00303239
     e20:	34325343 	ldrtcc	r5, [r2], #-835	; 0x343
     e24:	2f584c30 	svccs	0x00584c30
     e28:	34327363 	ldrtcc	r7, [r2], #-867	; 0x363
     e2c:	2d786c30 	ldclcs	12, cr6, [r8, #-192]!	; 0xffffff40
     e30:	70733032 	rsbsvc	r3, r3, r2, lsr r0
     e34:	696c2f72 	stmdbvs	ip!, {r1, r4, r5, r6, r8, r9, sl, fp, sp}^
     e38:	2f697062 	svccs	0x00697062
     e3c:	6c636e69 	stclvs	14, cr6, [r3], #-420	; 0xfffffe5c
     e40:	00656475 	rsbeq	r6, r5, r5, ror r4
     e44:	66656400 	strbtvs	r6, [r5], -r0, lsl #8
     e48:	746c7561 	strbtvc	r7, [ip], #-1377	; 0x561
     e4c:	6e61682d 	cdpvs	8, 6, cr6, cr1, cr13, {1}
     e50:	72656c64 	rsbvc	r6, r5, #100, 24	; 0x6400
     e54:	7361662d 	cmnvc	r1, #47185920	; 0x2d00000
     e58:	00632e74 	rsbeq	r2, r3, r4, ror lr
     e5c:	72000001 	andvc	r0, r0, #1
     e60:	682e6970 	stmdavs	lr!, {r4, r5, r6, r8, fp, sp, lr}
     e64:	00000200 	andeq	r0, r0, r0, lsl #4
     e68:	02050000 	andeq	r0, r5, #0
     e6c:	00009918 	andeq	r9, r0, r8, lsl r9
     e70:	1c026613 	stcne	6, cr6, [r2], {19}
     e74:	a3010100 	movwge	r0, #4352	; 0x1100
     e78:	02000000 	andeq	r0, r0, #0
     e7c:	00008f00 	andeq	r8, r0, r0, lsl #30
     e80:	fb010200 	blx	4168a <__bss_end__+0x34a9a>
     e84:	01000d0e 	tsteq	r0, lr, lsl #26
     e88:	00010101 	andeq	r0, r1, r1, lsl #2
     e8c:	00010000 	andeq	r0, r1, r0
     e90:	74730100 	ldrbtvc	r0, [r3], #-256	; 0x100
     e94:	2d666661 	stclcs	6, cr6, [r6, #-388]!	; 0xfffffe7c
     e98:	00637273 	rsbeq	r7, r3, r3, ror r2
     e9c:	6573552f 	ldrbvs	r5, [r3, #-1327]!	; 0x52f
     ea0:	622f7372 	eorvs	r7, pc, #-939524095	; 0xc8000001
     ea4:	6e616972 	mcrvs	9, 3, r6, cr1, cr2, {3}
     ea8:	2f6e756a 	svccs	0x006e756a
     eac:	6b736544 	blvs	1cda3c4 <__bss_end__+0x1ccd7d4>
     eb0:	2f706f74 	svccs	0x00706f74
     eb4:	6f686373 	svcvs	0x00686373
     eb8:	532f6c6f 	teqpl	pc, #28416	; 0x6f00
     ebc:	6e697270 	mcrvs	2, 3, r7, cr9, cr0, {3}
     ec0:	32393167 	eorscc	r3, r9, #-1073741799	; 0xc0000019
     ec4:	53432f30 	movtpl	r2, #16176	; 0x3f30
     ec8:	4c303432 	cfldrsmi	mvf3, [r0], #-200	; 0xffffff38
     ecc:	73632f58 	cmnvc	r3, #88, 30	; 0x160
     ed0:	6c303432 	cfldrsvs	mvf3, [r0], #-200	; 0xffffff38
     ed4:	30322d78 	eorscc	r2, r2, r8, ror sp
     ed8:	2f727073 	svccs	0x00727073
     edc:	7062696c 	rsbvc	r6, r2, ip, ror #18
     ee0:	6e692f69 	cdpvs	15, 6, cr2, cr9, cr9, {3}
     ee4:	64756c63 	ldrbtvs	r6, [r5], #-3171	; 0xc63
     ee8:	64000065 	strvs	r0, [r0], #-101	; 0x65
     eec:	75616665 	strbvc	r6, [r1, #-1637]!	; 0x665
     ef0:	682d746c 	stmdavs	sp!, {r2, r3, r5, r6, sl, ip, sp, lr}
     ef4:	6c646e61 	stclvs	14, cr6, [r4], #-388	; 0xfffffe7c
     ef8:	722d7265 	eorvc	r7, sp, #1342177286	; 0x50000006
     efc:	74657365 	strbtvc	r7, [r5], #-869	; 0x365
     f00:	0100632e 	tsteq	r0, lr, lsr #6
     f04:	70720000 	rsbsvc	r0, r2, r0
     f08:	00682e69 	rsbeq	r2, r8, r9, ror #28
     f0c:	00000002 	andeq	r0, r0, r2
     f10:	5c020500 	cfstr32pl	mvfx0, [r2], {-0}
     f14:	13000099 	movwne	r0, #153	; 0x99
     f18:	001c0266 	andseq	r0, ip, r6, ror #4
     f1c:	00ac0101 	adceq	r0, ip, r1, lsl #2
     f20:	00020000 	andeq	r0, r2, r0
     f24:	00000098 	muleq	r0, r8, r0
     f28:	0efb0102 	cdpeq	1, 15, cr0, cr11, cr2, {0}
     f2c:	0101000d 	tsteq	r1, sp
     f30:	00000101 	andeq	r0, r0, r1, lsl #2
     f34:	00000100 	andeq	r0, r0, r0, lsl #2
     f38:	61747301 	cmnvs	r4, r1, lsl #6
     f3c:	732d6666 	teqvc	sp, #106954752	; 0x6600000
     f40:	2f006372 	svccs	0x00006372
     f44:	72657355 	rsbvc	r7, r5, #1409286145	; 0x54000001
     f48:	72622f73 	rsbvc	r2, r2, #460	; 0x1cc
     f4c:	6a6e6169 	bvs	1b994f8 <__bss_end__+0x1b8c908>
     f50:	442f6e75 	strtmi	r6, [pc], #-3701	; f58 <__code_start__-0x70a8>
     f54:	746b7365 	strbtvc	r7, [fp], #-869	; 0x365
     f58:	732f706f 	teqvc	pc, #111	; 0x6f
     f5c:	6f6f6863 	svcvs	0x006f6863
     f60:	70532f6c 	subsvc	r2, r3, ip, ror #30
     f64:	676e6972 			; <UNDEFINED> instruction: 0x676e6972
     f68:	30323931 	eorscc	r3, r2, r1, lsr r9
     f6c:	3253432f 	subscc	r4, r3, #-1140850688	; 0xbc000000
     f70:	584c3034 	stmdapl	ip, {r2, r4, r5, ip, sp}^
     f74:	3273632f 	rsbscc	r6, r3, #-1140850688	; 0xbc000000
     f78:	786c3034 	stmdavc	ip!, {r2, r4, r5, ip, sp}^
     f7c:	7330322d 	teqvc	r0, #-805306366	; 0xd0000002
     f80:	6c2f7270 	sfmvs	f7, 4, [pc], #-448	; dc8 <__code_start__-0x7238>
     f84:	69706269 	ldmdbvs	r0!, {r0, r3, r5, r6, r9, sp, lr}^
     f88:	636e692f 	cmnvs	lr, #770048	; 0xbc000
     f8c:	6564756c 	strbvs	r7, [r4, #-1388]!	; 0x56c
     f90:	65640000 	strbvs	r0, [r4, #-0]!
     f94:	6c756166 	ldfvse	f6, [r5], #-408	; 0xfffffe68
     f98:	61682d74 	smcvs	33492	; 0x82d4
     f9c:	656c646e 	strbvs	r6, [ip, #-1134]!	; 0x46e
     fa0:	6e752d72 	mrcvs	13, 3, r2, cr5, cr2, {3}
     fa4:	69666564 	stmdbvs	r6!, {r2, r5, r6, r8, sl, sp, lr}^
     fa8:	2d64656e 	cfstr64cs	mvdx6, [r4, #-440]!	; 0xfffffe48
     fac:	74736e69 	ldrbtvc	r6, [r3], #-3689	; 0xe69
     fb0:	0100632e 	tsteq	r0, lr, lsr #6
     fb4:	70720000 	rsbsvc	r0, r2, r0
     fb8:	00682e69 	rsbeq	r2, r8, r9, ror #28
     fbc:	00000002 	andeq	r0, r0, r2
     fc0:	a0020500 	andge	r0, r2, r0, lsl #10
     fc4:	13000099 	movwne	r0, #153	; 0x99
     fc8:	001c0266 	andseq	r0, ip, r6, ror #4
     fcc:	00470101 	subeq	r0, r7, r1, lsl #2
     fd0:	00020000 	andeq	r0, r2, r0
     fd4:	00000033 	andeq	r0, r0, r3, lsr r0
     fd8:	0efb0102 	cdpeq	1, 15, cr0, cr11, cr2, {0}
     fdc:	0101000d 	tsteq	r1, sp
     fe0:	00000101 	andeq	r0, r0, r1, lsl #2
     fe4:	00000100 	andeq	r0, r0, r0, lsl #2
     fe8:	61747301 	cmnvs	r4, r1, lsl #6
     fec:	732d6666 	teqvc	sp, #106954752	; 0x6600000
     ff0:	00006372 	andeq	r6, r0, r2, ror r3
     ff4:	61666564 	cmnvs	r6, r4, ror #10
     ff8:	2d746c75 	ldclcs	12, cr6, [r4, #-468]!	; 0xfffffe2c
     ffc:	646e6168 	strbtvs	r6, [lr], #-360	; 0x168
    1000:	7372656c 	cmnvc	r2, #108, 10	; 0x1b000000
    1004:	0100632e 	tsteq	r0, lr, lsr #6
    1008:	00000000 	andeq	r0, r0, r0
    100c:	99e40205 	stmibls	r4!, {r0, r2, r9}^
    1010:	2f150000 	svccs	0x00150000
    1014:	01000202 	tsteq	r0, r2, lsl #4
    1018:	0000c901 	andeq	ip, r0, r1, lsl #18
    101c:	9a000200 	bls	1824 <__code_start__-0x67dc>
    1020:	02000000 	andeq	r0, r0, #0
    1024:	0d0efb01 	vstreq	d15, [lr, #-4]
    1028:	01010100 	mrseq	r0, (UNDEF: 17)
    102c:	00000001 	andeq	r0, r0, r1
    1030:	01000001 	tsteq	r0, r1
    1034:	66617473 			; <UNDEFINED> instruction: 0x66617473
    1038:	72732d66 	rsbsvc	r2, r3, #6528	; 0x1980
    103c:	552f0063 	strpl	r0, [pc, #-99]!	; fe1 <__code_start__-0x701f>
    1040:	73726573 	cmnvc	r2, #482344960	; 0x1cc00000
    1044:	6972622f 	ldmdbvs	r2!, {r0, r1, r2, r3, r5, r9, sp, lr}^
    1048:	756a6e61 	strbvc	r6, [sl, #-3681]!	; 0xe61
    104c:	65442f6e 	strbvs	r2, [r4, #-3950]	; 0xf6e
    1050:	6f746b73 	svcvs	0x00746b73
    1054:	63732f70 	cmnvs	r3, #112, 30	; 0x1c0
    1058:	6c6f6f68 	stclvs	15, cr6, [pc], #-416	; ec0 <__code_start__-0x7140>
    105c:	7270532f 	rsbsvc	r5, r0, #-1140850688	; 0xbc000000
    1060:	31676e69 	cmncc	r7, r9, ror #28
    1064:	2f303239 	svccs	0x00303239
    1068:	34325343 	ldrtcc	r5, [r2], #-835	; 0x343
    106c:	2f584c30 	svccs	0x00584c30
    1070:	34327363 	ldrtcc	r7, [r2], #-867	; 0x363
    1074:	2d786c30 	ldclcs	12, cr6, [r8, #-192]!	; 0xffffff40
    1078:	70733032 	rsbsvc	r3, r3, r2, lsr r0
    107c:	696c2f72 	stmdbvs	ip!, {r1, r4, r5, r6, r8, r9, sl, fp, sp}^
    1080:	2f697062 	svccs	0x00697062
    1084:	6c636e69 	stclvs	14, cr6, [r3], #-420	; 0xfffffe5c
    1088:	00656475 	rsbeq	r6, r5, r5, ror r4
    108c:	746e6900 	strbtvc	r6, [lr], #-2304	; 0x900
    1090:	75727265 	ldrbvc	r7, [r2, #-613]!	; 0x265
    1094:	2d737470 	cfldrdcs	mvd7, [r3, #-448]!	; 0xfffffe40
    1098:	00632e63 	rsbeq	r2, r3, r3, ror #28
    109c:	72000001 	andvc	r0, r0, #1
    10a0:	692d6970 	pushvs	{r4, r5, r6, r8, fp, sp, lr}
    10a4:	7265746e 	rsbvc	r7, r5, #1845493760	; 0x6e000000
    10a8:	74707572 	ldrbtvc	r7, [r0], #-1394	; 0x572
    10ac:	00682e73 	rsbeq	r2, r8, r3, ror lr
    10b0:	72000002 	andvc	r0, r0, #2
    10b4:	682e6970 	stmdavs	lr!, {r4, r5, r6, r8, fp, sp, lr}
    10b8:	00000200 	andeq	r0, r0, r0, lsl #4
    10bc:	02050000 	andeq	r0, r5, #0
    10c0:	000099ec 	andeq	r9, r0, ip, ror #19
    10c4:	31011a03 	tstcc	r1, r3, lsl #20
    10c8:	3667672f 	strbtcc	r6, [r7], -pc, lsr #14
    10cc:	002d2f83 	eoreq	r2, sp, r3, lsl #31
    10d0:	2f020402 	svccs	0x00020402
    10d4:	02040200 	andeq	r0, r4, #0, 4
    10d8:	04020065 	streq	r0, [r2], #-101	; 0x65
    10dc:	062e0601 	strteq	r0, [lr], -r1, lsl #12
    10e0:	000a024c 	andeq	r0, sl, ip, asr #4
    10e4:	00a20101 	adceq	r0, r2, r1, lsl #2
    10e8:	00020000 	andeq	r0, r2, r0
    10ec:	00000080 	andeq	r0, r0, r0, lsl #1
    10f0:	0efb0102 	cdpeq	1, 15, cr0, cr11, cr2, {0}
    10f4:	0101000d 	tsteq	r1, sp
    10f8:	00000101 	andeq	r0, r0, r1, lsl #2
    10fc:	00000100 	andeq	r0, r0, r0, lsl #2
    1100:	61747301 	cmnvs	r4, r1, lsl #6
    1104:	732d6666 	teqvc	sp, #106954752	; 0x6600000
    1108:	2f006372 	svccs	0x00006372
    110c:	72657355 	rsbvc	r7, r5, #1409286145	; 0x54000001
    1110:	72622f73 	rsbvc	r2, r2, #460	; 0x1cc
    1114:	6a6e6169 	bvs	1b996c0 <__bss_end__+0x1b8cad0>
    1118:	442f6e75 	strtmi	r6, [pc], #-3701	; 1120 <__code_start__-0x6ee0>
    111c:	746b7365 	strbtvc	r7, [fp], #-869	; 0x365
    1120:	732f706f 	teqvc	pc, #111	; 0x6f
    1124:	6f6f6863 	svcvs	0x006f6863
    1128:	70532f6c 	subsvc	r2, r3, ip, ror #30
    112c:	676e6972 			; <UNDEFINED> instruction: 0x676e6972
    1130:	30323931 	eorscc	r3, r2, r1, lsr r9
    1134:	3253432f 	subscc	r4, r3, #-1140850688	; 0xbc000000
    1138:	584c3034 	stmdapl	ip, {r2, r4, r5, ip, sp}^
    113c:	3273632f 	rsbscc	r6, r3, #-1140850688	; 0xbc000000
    1140:	786c3034 	stmdavc	ip!, {r2, r4, r5, ip, sp}^
    1144:	7330322d 	teqvc	r0, #-805306366	; 0xd0000002
    1148:	6c2f7270 	sfmvs	f7, 4, [pc], #-448	; f90 <__code_start__-0x7070>
    114c:	69706269 	ldmdbvs	r0!, {r0, r3, r5, r6, r9, sp, lr}^
    1150:	636e692f 	cmnvs	lr, #770048	; 0xbc000
    1154:	6564756c 	strbvs	r7, [r4, #-1388]!	; 0x56c
    1158:	65720000 	ldrbvs	r0, [r2, #-0]!
    115c:	746f6f62 	strbtvc	r6, [pc], #-3938	; 1164 <__code_start__-0x6e9c>
    1160:	0100632e 	tsteq	r0, lr, lsr #6
    1164:	70720000 	rsbsvc	r0, r2, r0
    1168:	00682e69 	rsbeq	r2, r8, r9, ror #28
    116c:	00000002 	andeq	r0, r0, r2
    1170:	58020500 	stmdapl	r2, {r8, sl}
    1174:	0300009a 	movweq	r0, #154	; 0x9a
    1178:	3114010d 	tstcc	r4, sp, lsl #2
    117c:	2f15852f 	svccs	0x0015852f
    1180:	672f4d4b 	strvs	r4, [pc, -fp, asr #26]!
    1184:	02675235 	rsbeq	r5, r7, #1342177283	; 0x50000003
    1188:	01010010 	tsteq	r1, r0, lsl r0
    118c:	000000ae 	andeq	r0, r0, lr, lsr #1
    1190:	007f0002 	rsbseq	r0, pc, r2
    1194:	01020000 	mrseq	r0, (UNDEF: 2)
    1198:	000d0efb 	strdeq	r0, [sp], -fp
    119c:	01010101 	tsteq	r1, r1, lsl #2
    11a0:	01000000 	mrseq	r0, (UNDEF: 0)
    11a4:	73010000 	movwvc	r0, #4096	; 0x1000
    11a8:	66666174 			; <UNDEFINED> instruction: 0x66666174
    11ac:	6372732d 	cmnvs	r2, #-1275068416	; 0xb4000000
    11b0:	73552f00 	cmpvc	r5, #0, 30
    11b4:	2f737265 	svccs	0x00737265
    11b8:	61697262 	cmnvs	r9, r2, ror #4
    11bc:	6e756a6e 	vsubvs.f32	s13, s10, s29
    11c0:	7365442f 	cmnvc	r5, #788529152	; 0x2f000000
    11c4:	706f746b 	rsbvc	r7, pc, fp, ror #8
    11c8:	6863732f 	stmdavs	r3!, {r0, r1, r2, r3, r5, r8, r9, ip, sp, lr}^
    11cc:	2f6c6f6f 	svccs	0x006c6f6f
    11d0:	69727053 	ldmdbvs	r2!, {r0, r1, r4, r6, ip, sp, lr}^
    11d4:	3931676e 	ldmdbcc	r1!, {r1, r2, r3, r5, r6, r8, r9, sl, sp, lr}
    11d8:	432f3032 	teqmi	pc, #50	; 0x32
    11dc:	30343253 	eorscc	r3, r4, r3, asr r2
    11e0:	632f584c 	teqvs	pc, #76, 16	; 0x4c0000
    11e4:	30343273 	eorscc	r3, r4, r3, ror r2
    11e8:	322d786c 	eorcc	r7, sp, #108, 16	; 0x6c0000
    11ec:	72707330 	rsbsvc	r7, r0, #48, 6	; 0xc0000000
    11f0:	62696c2f 	rsbvs	r6, r9, #12032	; 0x2f00
    11f4:	692f6970 	stmdbvs	pc!, {r4, r5, r6, r8, fp, sp, lr}	; <UNPREDICTABLE>
    11f8:	756c636e 	strbvc	r6, [ip, #-878]!	; 0x36e
    11fc:	00006564 	andeq	r6, r0, r4, ror #10
    1200:	656d6974 	strbvs	r6, [sp, #-2420]!	; 0x974
    1204:	00632e72 	rsbeq	r2, r3, r2, ror lr
    1208:	72000001 	andvc	r0, r0, #1
    120c:	682e6970 	stmdavs	lr!, {r4, r5, r6, r8, fp, sp, lr}
    1210:	00000200 	andeq	r0, r0, r0, lsl #4
    1214:	02050000 	andeq	r0, r5, #0
    1218:	00009acc 	andeq	r9, r0, ip, asr #21
    121c:	2d2f1416 	cfstrscs	mvf1, [pc, #-88]!	; 11cc <__code_start__-0x6e34>
    1220:	01040200 	mrseq	r0, R12_usr
    1224:	6d062e06 	stcvs	14, cr2, [r6, #-24]	; 0xffffffe8
    1228:	4d4b2f31 	stclmi	15, cr2, [fp, #-196]	; 0xffffff3c
    122c:	304b2f31 	subcc	r2, fp, r1, lsr pc
    1230:	2f4c4b4c 	svccs	0x004c4b4c
    1234:	842f2f6a 	strthi	r2, [pc], #-3946	; 123c <__code_start__-0x6dc4>
    1238:	0008022f 	andeq	r0, r8, pc, lsr #4
    123c:	01480101 	cmpeq	r8, r1, lsl #2
    1240:	00020000 	andeq	r0, r2, r0
    1244:	00000102 	andeq	r0, r0, r2, lsl #2
    1248:	0efb0102 	cdpeq	1, 15, cr0, cr11, cr2, {0}
    124c:	0101000d 	tsteq	r1, sp
    1250:	00000101 	andeq	r0, r0, r1, lsl #2
    1254:	00000100 	andeq	r0, r0, r0, lsl #2
    1258:	73752f01 	cmnvc	r5, #1, 30
    125c:	6e692f72 	mcrvs	15, 3, r2, cr9, cr2, {3}
    1260:	64756c63 	ldrbtvs	r6, [r5], #-3171	; 0xc63
    1264:	656e2f65 	strbvs	r2, [lr, #-3941]!	; 0xf65
    1268:	62696c77 	rsbvs	r6, r9, #30464	; 0x7700
    126c:	7379732f 	cmnvc	r9, #-1140850688	; 0xbc000000
    1270:	73752f00 	cmnvc	r5, #0, 30
    1274:	696c2f72 	stmdbvs	ip!, {r1, r4, r5, r6, r8, r9, sl, fp, sp}^
    1278:	63672f62 	cmnvs	r7, #392	; 0x188
    127c:	72612f63 	rsbvc	r2, r1, #396	; 0x18c
    1280:	6f6e2d6d 	svcvs	0x006e2d6d
    1284:	652d656e 	strvs	r6, [sp, #-1390]!	; 0x56e
    1288:	2f696261 	svccs	0x00696261
    128c:	2e332e36 	mrccs	14, 1, r2, cr3, cr6, {1}
    1290:	6e692f31 	mcrvs	15, 3, r2, cr9, cr1, {1}
    1294:	64756c63 	ldrbtvs	r6, [r5], #-3171	; 0xc63
    1298:	682f0065 	stmdavs	pc!, {r0, r2, r5, r6}	; <UNPREDICTABLE>
    129c:	2f656d6f 	svccs	0x00656d6f
    12a0:	6c676e65 	stclvs	14, cr6, [r7], #-404	; 0xfffffe6c
    12a4:	632f7265 	teqvs	pc, #1342177286	; 0x50000006
    12a8:	7373616c 	cmnvc	r3, #108, 2
    12ac:	3273632f 	rsbscc	r6, r3, #-1140850688	; 0xbc000000
    12b0:	786c3034 	stmdavc	ip!, {r2, r4, r5, ip, sp}^
    12b4:	7330322d 	teqvc	r0, #-805306366	; 0xd0000002
    12b8:	2f2f7270 	svccs	0x002f7270
    12bc:	7062696c 	rsbvc	r6, r2, ip, ror #18
    12c0:	682f0069 	stmdavs	pc!, {r0, r3, r5, r6}	; <UNPREDICTABLE>
    12c4:	2f656d6f 	svccs	0x00656d6f
    12c8:	6c676e65 	stclvs	14, cr6, [r7], #-404	; 0xfffffe6c
    12cc:	632f7265 	teqvs	pc, #1342177286	; 0x50000006
    12d0:	7373616c 	cmnvc	r3, #108, 2
    12d4:	3273632f 	rsbscc	r6, r3, #-1140850688	; 0xbc000000
    12d8:	786c3034 	stmdavc	ip!, {r2, r4, r5, ip, sp}^
    12dc:	7330322d 	teqvc	r0, #-805306366	; 0xd0000002
    12e0:	2f2f7270 	svccs	0x002f7270
    12e4:	7062696c 	rsbvc	r6, r2, ip, ror #18
    12e8:	74732f69 	ldrbtvc	r2, [r3], #-3945	; 0xf69
    12ec:	2d666661 	stclcs	6, cr6, [r6, #-388]!	; 0xfffffe7c
    12f0:	00637273 	rsbeq	r7, r3, r3, ror r2
    12f4:	72617500 	rsbvc	r7, r1, #0, 10
    12f8:	00632e74 	rsbeq	r2, r3, r4, ror lr
    12fc:	6c000000 	stcvs	0, cr0, [r0], {-0}
    1300:	2e6b636f 	cdpcs	3, 6, cr6, cr11, cr15, {3}
    1304:	00010068 	andeq	r0, r1, r8, rrx
    1308:	79745f00 	ldmdbvc	r4!, {r8, r9, sl, fp, ip, lr}^
    130c:	2e736570 	mrccs	5, 3, r6, cr3, cr0, {3}
    1310:	00010068 	andeq	r0, r1, r8, rrx
    1314:	64747300 	ldrbtvs	r7, [r4], #-768	; 0x300
    1318:	2e666564 	cdpcs	5, 6, cr6, cr6, cr4, {3}
    131c:	00020068 	andeq	r0, r2, r8, rrx
    1320:	65657200 	strbvs	r7, [r5, #-512]!	; 0x200
    1324:	682e746e 	stmdavs	lr!, {r1, r2, r3, r5, r6, sl, ip, sp, lr}
    1328:	00000100 	andeq	r0, r0, r0, lsl #2
    132c:	2e697072 	mcrcs	0, 3, r7, cr9, cr2, {3}
    1330:	00030068 	andeq	r0, r3, r8, rrx
    1334:	72617500 	rsbvc	r7, r1, #0, 10
    1338:	00682e74 	rsbeq	r2, r8, r4, ror lr
    133c:	67000004 	strvs	r0, [r0, -r4]
    1340:	2e6f6970 	mcrcs	9, 3, r6, cr15, cr0, {3}
    1344:	00040068 	andeq	r0, r4, r8, rrx
    1348:	05000000 	streq	r0, [r0, #-0]
    134c:	009bc802 	addseq	ip, fp, r2, lsl #16
    1350:	012c0300 	teqeq	ip, r0, lsl #6
    1354:	9e0c0367 	cdpls	3, 0, cr0, cr12, cr7, {3}
    1358:	35686735 	strbcc	r6, [r8, #-1845]!	; 0x735
    135c:	2e0c0368 	cdpcs	3, 0, cr0, cr12, cr8, {3}
    1360:	69696b85 	stmdbvs	r9!, {r0, r2, r7, r8, r9, fp, sp, lr}^
    1364:	6b660c03 	blvs	1984378 <__bss_end__+0x1977788>
    1368:	34420867 	strbcc	r0, [r2], #-2151	; 0x867
    136c:	68364b68 	ldmdavs	r6!, {r3, r5, r6, r8, r9, fp, lr}
    1370:	02002f87 	andeq	r2, r0, #540	; 0x21c
    1374:	682f0104 	stmdavs	pc!, {r2, r8}	; <UNPREDICTABLE>
    1378:	4b673067 	blmi	19cd51c <__bss_end__+0x19c092c>
    137c:	01040200 	mrseq	r0, R12_usr
    1380:	6967682f 	stmdbvs	r7!, {r0, r1, r2, r3, r5, fp, sp, lr}^
    1384:	0006022e 	andeq	r0, r6, lr, lsr #4
    1388:	012b0101 	teqeq	fp, r1, lsl #2
    138c:	00020000 	andeq	r0, r2, r0
    1390:	000000f8 	strdeq	r0, [r0], -r8
    1394:	0efb0102 	cdpeq	1, 15, cr0, cr11, cr2, {0}
    1398:	0101000d 	tsteq	r1, sp
    139c:	00000101 	andeq	r0, r0, r1, lsl #2
    13a0:	00000100 	andeq	r0, r0, r0, lsl #2
    13a4:	73752f01 	cmnvc	r5, #1, 30
    13a8:	6e692f72 	mcrvs	15, 3, r2, cr9, cr2, {3}
    13ac:	64756c63 	ldrbtvs	r6, [r5], #-3171	; 0xc63
    13b0:	656e2f65 	strbvs	r2, [lr, #-3941]!	; 0xf65
    13b4:	62696c77 	rsbvs	r6, r9, #30464	; 0x7700
    13b8:	7379732f 	cmnvc	r9, #-1140850688	; 0xbc000000
    13bc:	73752f00 	cmnvc	r5, #0, 30
    13c0:	696c2f72 	stmdbvs	ip!, {r1, r4, r5, r6, r8, r9, sl, fp, sp}^
    13c4:	63672f62 	cmnvs	r7, #392	; 0x188
    13c8:	72612f63 	rsbvc	r2, r1, #396	; 0x18c
    13cc:	6f6e2d6d 	svcvs	0x006e2d6d
    13d0:	652d656e 	strvs	r6, [sp, #-1390]!	; 0x56e
    13d4:	2f696261 	svccs	0x00696261
    13d8:	2e332e36 	mrccs	14, 1, r2, cr3, cr6, {1}
    13dc:	6e692f31 	mcrvs	15, 3, r2, cr9, cr1, {1}
    13e0:	64756c63 	ldrbtvs	r6, [r5], #-3171	; 0xc63
    13e4:	682f0065 	stmdavs	pc!, {r0, r2, r5, r6}	; <UNPREDICTABLE>
    13e8:	2f656d6f 	svccs	0x00656d6f
    13ec:	6c676e65 	stclvs	14, cr6, [r7], #-404	; 0xfffffe6c
    13f0:	632f7265 	teqvs	pc, #1342177286	; 0x50000006
    13f4:	7373616c 	cmnvc	r3, #108, 2
    13f8:	3273632f 	rsbscc	r6, r3, #-1140850688	; 0xbc000000
    13fc:	786c3034 	stmdavc	ip!, {r2, r4, r5, ip, sp}^
    1400:	7330322d 	teqvc	r0, #-805306366	; 0xd0000002
    1404:	2f2f7270 	svccs	0x002f7270
    1408:	7062696c 	rsbvc	r6, r2, ip, ror #18
    140c:	682f0069 	stmdavs	pc!, {r0, r3, r5, r6}	; <UNPREDICTABLE>
    1410:	2f656d6f 	svccs	0x00656d6f
    1414:	6c676e65 	stclvs	14, cr6, [r7], #-404	; 0xfffffe6c
    1418:	632f7265 	teqvs	pc, #1342177286	; 0x50000006
    141c:	7373616c 	cmnvc	r3, #108, 2
    1420:	3273632f 	rsbscc	r6, r3, #-1140850688	; 0xbc000000
    1424:	786c3034 	stmdavc	ip!, {r2, r4, r5, ip, sp}^
    1428:	7330322d 	teqvc	r0, #-805306366	; 0xd0000002
    142c:	2f2f7270 	svccs	0x002f7270
    1430:	7062696c 	rsbvc	r6, r2, ip, ror #18
    1434:	74732f69 	ldrbtvc	r2, [r3], #-3945	; 0xf69
    1438:	2d666661 	stclcs	6, cr6, [r6, #-388]!	; 0xfffffe7c
    143c:	00637273 	rsbeq	r7, r3, r3, ror r2
    1440:	69706700 	ldmdbvs	r0!, {r8, r9, sl, sp, lr}^
    1444:	00632e6f 	rsbeq	r2, r3, pc, ror #28
    1448:	6c000000 	stcvs	0, cr0, [r0], {-0}
    144c:	2e6b636f 	cdpcs	3, 6, cr6, cr11, cr15, {3}
    1450:	00010068 	andeq	r0, r1, r8, rrx
    1454:	79745f00 	ldmdbvc	r4!, {r8, r9, sl, fp, ip, lr}^
    1458:	2e736570 	mrccs	5, 3, r6, cr3, cr0, {3}
    145c:	00010068 	andeq	r0, r1, r8, rrx
    1460:	64747300 	ldrbtvs	r7, [r4], #-768	; 0x300
    1464:	2e666564 	cdpcs	5, 6, cr6, cr6, cr4, {3}
    1468:	00020068 	andeq	r0, r2, r8, rrx
    146c:	65657200 	strbvs	r7, [r5, #-512]!	; 0x200
    1470:	682e746e 	stmdavs	lr!, {r1, r2, r3, r5, r6, sl, ip, sp, lr}
    1474:	00000100 	andeq	r0, r0, r0, lsl #2
    1478:	2e697072 	mcrcs	0, 3, r7, cr9, cr2, {3}
    147c:	00030068 	andeq	r0, r3, r8, rrx
    1480:	69706700 	ldmdbvs	r0!, {r8, r9, sl, sp, lr}^
    1484:	00682e6f 	rsbeq	r2, r8, pc, ror #28
    1488:	00000004 	andeq	r0, r0, r4
    148c:	40020500 	andmi	r0, r2, r0, lsl #10
    1490:	0300009d 	movweq	r0, #157	; 0x9d
    1494:	4c130127 	ldfmis	f0, [r3], {39}	; 0x27
    1498:	68f44f47 	ldmvs	r4!, {r0, r1, r2, r6, r8, r9, sl, fp, lr}^
    149c:	2fa14c4b 	svccs	0x00a14c4b
    14a0:	3149136a 	cmpcc	r9, sl, ror #6
    14a4:	314913be 	strhcc	r1, [r9, #-62]	; 0xffffffc2
    14a8:	2f6a2fbe 	svccs	0x006a2fbe
    14ac:	134f484d 	movtne	r4, #63565	; 0xf84d
    14b0:	b72f3249 	strlt	r3, [pc, -r9, asr #4]!
    14b4:	01000602 	tsteq	r0, r2, lsl #12
    14b8:	Address 0x00000000000014b8 is out of bounds.


Disassembly of section .debug_str:

00000000 <.debug_str>:
       0:	6573552f 	ldrbvs	r5, [r3, #-1327]!	; 0x52f
       4:	622f7372 	eorvs	r7, pc, #-939524095	; 0xc8000001
       8:	6e616972 	mcrvs	9, 3, r6, cr1, cr2, {3}
       c:	2f6e756a 	svccs	0x006e756a
      10:	6b736544 	blvs	1cd9528 <__bss_end__+0x1ccc938>
      14:	2f706f74 	svccs	0x00706f74
      18:	6f686373 	svcvs	0x00686373
      1c:	532f6c6f 	teqpl	pc, #28416	; 0x6f00
      20:	6e697270 	mcrvs	2, 3, r7, cr9, cr0, {3}
      24:	32393167 	eorscc	r3, r9, #-1073741799	; 0xc0000019
      28:	53432f30 	movtpl	r2, #16176	; 0x3f30
      2c:	4c303432 	cfldrsmi	mvf3, [r0], #-200	; 0xffffff38
      30:	73632f58 	cmnvc	r3, #88, 30	; 0x160
      34:	6c303432 	cfldrsvs	mvf3, [r0], #-200	; 0xffffff38
      38:	30322d78 	eorscc	r2, r2, r8, ror sp
      3c:	2f727073 	svccs	0x00727073
      40:	7362616c 	cmnvc	r2, #108, 2
      44:	2d37312f 	ldfcss	f3, [r7, #-188]!	; 0xffffff44
      48:	636d656d 	cmnvs	sp, #457179136	; 0x1b400000
      4c:	6b636568 	blvs	18d95f4 <__bss_end__+0x18cca04>
      50:	7261702f 	rsbvc	r7, r1, #47	; 0x2f
      54:	732d3174 	teqvc	sp, #116, 2
      58:	6c676e69 	stclvs	14, cr6, [r7], #-420	; 0xfffffe5c
      5c:	74732d65 	ldrbtvc	r2, [r3], #-3429	; 0xd65
      60:	632f7065 	teqvs	pc, #101	; 0x65
      64:	0065646f 	rsbeq	r6, r5, pc, ror #8
      68:	657a6973 	ldrbvs	r6, [sl, #-2419]!	; 0x973
      6c:	7300745f 	movwvc	r7, #1119	; 0x45f
      70:	63746977 	cmnvs	r4, #1949696	; 0x1dc000
      74:	64615f68 	strbtvs	r5, [r1], #-3944	; 0xf68
      78:	65007264 	strvs	r7, [r0, #-612]	; 0x264
      7c:	726f7272 	rsbvc	r7, pc, #536870919	; 0x20000007
      80:	61665f73 	smcvs	26099	; 0x65f3
      84:	5f6c6174 	svcpl	0x006c6174
      88:	6e690070 	mcrvs	0, 3, r0, cr9, cr0, {3}
      8c:	635f7473 	cmpvs	pc, #1929379840	; 0x73000000
      90:	746e756f 	strbtvc	r7, [lr], #-1391	; 0x56f
      94:	746f6e00 	strbtvc	r6, [pc], #-3584	; 9c <__code_start__-0x7f64>
      98:	6e69616d 	powvsez	f6, f1, #5.0
      9c:	6e6f6c00 	cdpvs	12, 6, cr6, cr15, cr0, {0}
      a0:	6f6c2067 	svcvs	0x006c2067
      a4:	7520676e 	strvc	r6, [r0, #-1902]!	; 0x76e
      a8:	6769736e 	strbvs	r7, [r9, -lr, ror #6]!
      ac:	2064656e 	rsbcs	r6, r4, lr, ror #10
      b0:	00746e69 	rsbseq	r6, r4, r9, ror #28
      b4:	75625f63 	strbvc	r5, [r2, #-3939]!	; 0xf63
      b8:	71630066 	cmnvc	r3, r6, rrx
      bc:	706d655f 	rsbvc	r6, sp, pc, asr r5
      c0:	6c007974 	stcvs	9, cr7, [r0], {116}	; 0x74
      c4:	20676e6f 	rsbcs	r6, r7, pc, ror #28
      c8:	676e6f6c 	strbvs	r6, [lr, -ip, ror #30]!
      cc:	746e6920 	strbtvc	r6, [lr], #-2336	; 0x920
      d0:	696b7300 	stmdbvs	fp!, {r8, r9, ip, sp, lr}^
      d4:	63007370 	movwvs	r7, #880	; 0x370
      d8:	71637269 	cmnvc	r3, r9, ror #4
      dc:	696e695f 	stmdbvs	lr!, {r0, r1, r2, r3, r4, r6, r8, fp, sp, lr}^
      e0:	69630074 	stmdbvs	r3!, {r2, r4, r5, r6}^
      e4:	5f716372 	svcpl	0x00716372
      e8:	69630041 	stmdbvs	r3!, {r0, r6}^
      ec:	5f716372 	svcpl	0x00716372
      f0:	65740042 	ldrbvs	r0, [r4, #-66]!	; 0x42
      f4:	32737473 	rsbscc	r7, r3, #1929379840	; 0x73000000
      f8:	312f302e 	teqcc	pc, lr, lsr #32
      fc:	61702d36 	cmnvs	r0, r6, lsr sp
     100:	2d327472 	cfldrscs	mvf7, [r2, #-456]!	; 0xfffffe38
     104:	74736574 	ldrbtvc	r6, [r3], #-1396	; 0x574
     108:	00632e35 	rsbeq	r2, r3, r5, lsr lr
     10c:	5f697072 	svcpl	0x00697072
     110:	65736572 	ldrbvs	r6, [r3, #-1394]!	; 0x572
     114:	75705f74 	ldrbvc	r5, [r0, #-3956]!	; 0xf74
     118:	62006374 	andvs	r6, r0, #116, 6	; 0xd0000001
     11c:	765f6b72 			; <UNDEFINED> instruction: 0x765f6b72
     120:	6f627265 	svcvs	0x00627265
     124:	705f6573 	subsvc	r6, pc, r3, ror r5	; <UNPREDICTABLE>
     128:	465f5f00 	ldrbmi	r5, [pc], -r0, lsl #30
     12c:	54434e55 	strbpl	r4, [r3], #-3669	; 0xe55
     130:	5f4e4f49 	svcpl	0x004e4f49
     134:	7163005f 	qdsubvc	r0, pc, r3	; <UNPREDICTABLE>
     138:	6c656e5f 	stclvs	14, cr6, [r5], #-380	; 0xfffffe84
     13c:	73006d65 	movwvc	r6, #3429	; 0xd65
     140:	74726f68 	ldrbtvc	r6, [r2], #-3944	; 0xf68
     144:	736e7520 	cmnvc	lr, #32, 10	; 0x8000000
     148:	656e6769 	strbvs	r6, [lr, #-1897]!	; 0x769
     14c:	6e692064 	cdpvs	0, 6, cr2, cr9, cr4, {3}
     150:	6c630074 	stclvs	0, cr0, [r3], #-464	; 0xfffffe30
     154:	5f6e6165 	svcpl	0x006e6165
     158:	6f626572 	svcvs	0x00626572
     15c:	7400746f 	strvc	r7, [r0], #-1135	; 0x46f
     160:	006c6961 	rsbeq	r6, ip, r1, ror #18
     164:	657a6973 	ldrbvs	r6, [sl, #-2419]!	; 0x973
     168:	65707974 	ldrbvs	r7, [r0, #-2420]!	; 0x974
     16c:	5f716300 	svcpl	0x00716300
     170:	5f706f70 	svcpl	0x00706f70
     174:	626e6f6e 	rsbvs	r6, lr, #440	; 0x1b8
     178:	6b636f6c 	blvs	18dbf30 <__bss_end__+0x18cf340>
     17c:	72746e00 	rsbsvc	r6, r4, #0, 28
     180:	736c6169 	cmnvc	ip, #1073741850	; 0x4000001a
     184:	72696300 	rsbvc	r6, r9, #0, 6
     188:	6d5f7163 	ldfvse	f7, [pc, #-396]	; 4 <__code_start__-0x7ffc>
     18c:	68635f6b 	stmdavs	r3!, {r0, r1, r3, r5, r6, r8, r9, sl, fp, ip, lr}^
     190:	656b6365 	strbvs	r6, [fp, #-869]!	; 0x365
     194:	68630072 	stmdavs	r3!, {r1, r4, r5, r6}^
     198:	656b6365 	strbvs	r6, [fp, #-869]!	; 0x365
     19c:	00745f72 	rsbseq	r5, r4, r2, ror pc
     1a0:	69736e75 	ldmdbvs	r3!, {r0, r2, r4, r5, r6, r9, sl, fp, sp, lr}^
     1a4:	64656e67 	strbtvs	r6, [r5], #-3687	; 0xe67
     1a8:	61686320 	cmnvs	r8, r0, lsr #6
     1ac:	78650072 	stmdavc	r5!, {r1, r4, r5, r6}^
     1b0:	74636570 	strbtvc	r6, [r3], #-1392	; 0x570
     1b4:	415f6465 	cmpmi	pc, r5, ror #8
     1b8:	70786500 	rsbsvc	r6, r8, r0, lsl #10
     1bc:	65746365 	ldrbvs	r6, [r4, #-869]!	; 0x365
     1c0:	00425f64 	subeq	r5, r2, r4, ror #30
     1c4:	726f6873 	rsbvc	r6, pc, #7536640	; 0x730000
     1c8:	6e692074 	mcrvs	0, 3, r2, cr9, cr4, {3}
     1cc:	71630074 	smcvc	12292	; 0x3004
     1d0:	706f705f 	rsbvc	r7, pc, pc, asr r0	; <UNPREDICTABLE>
     1d4:	746e6900 	strbtvc	r6, [lr], #-2304	; 0x900
     1d8:	656c7265 	strbvs	r7, [ip, #-613]!	; 0x265
     1dc:	6e697661 	cdpvs	6, 6, cr7, cr9, cr1, {3}
     1e0:	00705f67 	rsbseq	r5, r0, r7, ror #30
     1e4:	5f657163 	svcpl	0x00657163
     1e8:	65680074 	strbvs	r0, [r8, #-116]!	; 0x74
     1ec:	75006461 	strvc	r6, [r0, #-1121]	; 0x461
     1f0:	33746e69 	cmncc	r4, #1680	; 0x690
     1f4:	00745f32 	rsbseq	r5, r4, r2, lsr pc
     1f8:	63726963 	cmnvs	r2, #1622016	; 0x18c000
     1fc:	68635f71 	stmdavs	r3!, {r0, r4, r5, r6, r8, r9, sl, fp, ip, lr}^
     200:	006b6365 	rsbeq	r6, fp, r5, ror #6
     204:	636e6566 	cmnvs	lr, #427819008	; 0x19800000
     208:	656e0065 	strbvs	r0, [lr, #-101]!	; 0x65
     20c:	726f7272 	rsbvc	r7, pc, #536870919	; 0x20000007
     210:	71630073 	smcvc	12291	; 0x3003
     214:	7375705f 	cmnvc	r5, #95	; 0x5f
     218:	656d0068 	strbvs	r0, [sp, #-104]!	; 0x68
     21c:	7465736d 	strbtvc	r7, [r5], #-877	; 0x36d
     220:	5f716300 	svcpl	0x00716300
     224:	6e650074 	mcrvs	0, 3, r0, cr5, cr4, {3}
     228:	656c6261 	strbvs	r6, [ip, #-609]!	; 0x261
     22c:	6361635f 	cmnvs	r1, #2080374785	; 0x7c000001
     230:	47006568 	strmi	r6, [r0, -r8, ror #10]
     234:	4320554e 	teqmi	r0, #327155712	; 0x13800000
     238:	382e3420 	stmdacc	lr!, {r5, sl, ip, sp}
     23c:	2d20332e 	stccs	3, cr3, [r0, #-184]!	; 0xffffff48
     240:	7570636d 	ldrbvc	r6, [r0, #-877]!	; 0x36d
     244:	6d72613d 	ldfvse	f6, [r2, #-244]!	; 0xffffff0c
     248:	36373131 			; <UNDEFINED> instruction: 0x36373131
     24c:	2d667a6a 	vstmdbcs	r6!, {s15-s120}
     250:	6d2d2073 	stcvs	0, cr2, [sp, #-460]!	; 0xfffffe34
     254:	656e7574 	strbvs	r7, [lr, #-1396]!	; 0x574
     258:	6d72613d 	ldfvse	f6, [r2, #-244]!	; 0xffffff0c
     25c:	36373131 			; <UNDEFINED> instruction: 0x36373131
     260:	2d667a6a 	vstmdbcs	r6!, {s15-s120}
     264:	672d2073 			; <UNDEFINED> instruction: 0x672d2073
     268:	20626467 	rsbcs	r6, r2, r7, ror #8
     26c:	20674f2d 	rsbcs	r4, r7, sp, lsr #30
     270:	6474732d 	ldrbtvs	r7, [r4], #-813	; 0x32d
     274:	756e673d 	strbvc	r6, [lr, #-1853]!	; 0x73d
     278:	2d203939 	stccs	9, cr3, [r0, #-228]!	; 0xffffff1c
     27c:	65726666 	ldrbvs	r6, [r2, #-1638]!	; 0x666
     280:	61747365 	cmnvs	r4, r5, ror #6
     284:	6e69646e 	cdpvs	4, 6, cr6, cr9, cr14, {3}
     288:	662d2067 	strtvs	r2, [sp], -r7, rrx
     28c:	742d6f6e 	strtvc	r6, [sp], #-3950	; 0xf6e
     290:	656c706f 	strbvs	r7, [ip, #-111]!	; 0x6f
     294:	2d6c6576 	cfstr64cs	mvdx6, [ip, #-472]!	; 0xfffffe28
     298:	726f6572 	rsbvc	r6, pc, #478150656	; 0x1c800000
     29c:	00726564 	rsbseq	r6, r2, r4, ror #10
     2a0:	74697773 	strbtvc	r7, [r9], #-1907	; 0x773
     2a4:	6f5f6863 	svcvs	0x005f6863
     2a8:	6e695f6e 	cdpvs	15, 6, cr5, cr9, cr14, {3}
     2ac:	6e5f7473 	mrcvs	4, 2, r7, cr15, cr3, {3}
     2b0:	77736e00 	ldrbvc	r6, [r3, -r0, lsl #28]!
     2b4:	68637469 	stmdavs	r3!, {r0, r3, r5, r6, sl, ip, sp, lr}^
     2b8:	73007365 	movwvc	r7, #869	; 0x365
     2bc:	63746977 	cmnvs	r4, #1949696	; 0x1dc000
     2c0:	5f646568 	svcpl	0x00646568
     2c4:	71630070 	smcvc	12288	; 0x3000
     2c8:	6c75665f 	ldclvs	6, cr6, [r5], #-380	; 0xfffffe84
     2cc:	766f006c 	strbtvc	r0, [pc], -ip, rrx
     2d0:	6c667265 	sfmvs	f7, 2, [r6], #-404	; 0xfffffe6c
     2d4:	6400776f 	strvs	r7, [r0], #-1903	; 0x76f
     2d8:	5f617461 	svcpl	0x00617461
     2dc:	726f6261 	rsbvc	r6, pc, #268435462	; 0x10000006
     2e0:	65765f74 	ldrbvs	r5, [r6, #-3956]!	; 0xf74
     2e4:	726f7463 	rsbvc	r7, pc, #1660944384	; 0x63000000
     2e8:	65727000 	ldrbvs	r7, [r2, #-0]!
     2ec:	63746566 	cmnvs	r4, #427819008	; 0x19800000
     2f0:	62615f68 	rsbvs	r5, r1, #104, 30	; 0x1a0
     2f4:	5f74726f 	svcpl	0x0074726f
     2f8:	74636576 	strbtvc	r6, [r3], #-1398	; 0x576
     2fc:	7700726f 	strvc	r7, [r0, -pc, ror #4]
     300:	645f7361 	ldrbvs	r7, [pc], #-865	; 308 <__code_start__-0x7cf8>
     304:	67756265 	ldrbvs	r6, [r5, -r5, ror #4]!
     308:	7461645f 	strbtvc	r6, [r1], #-1119	; 0x45f
     30c:	75616661 	strbvc	r6, [r1, #-1633]!	; 0x661
     310:	6300746c 	movwvs	r7, #1132	; 0x46c
     314:	2d343170 	ldfcss	f3, [r4, #-448]!	; 0xfffffe40
     318:	75626564 	strbvc	r6, [r2, #-1380]!	; 0x564
     31c:	00632e67 	rsbeq	r2, r3, r7, ror #28
     320:	5f736177 	svcpl	0x00736177
     324:	75626564 	strbvc	r6, [r2, #-1380]!	; 0x564
     328:	6e695f67 	cdpvs	15, 6, cr5, cr9, cr7, {3}
     32c:	61667473 	smcvs	26435	; 0x6743
     330:	00746c75 	rsbseq	r6, r4, r5, ror ip
     334:	72637364 	rsbvc	r7, r3, #100, 6	; 0x90000001
     338:	7465735f 	strbtvc	r7, [r5], #-863	; 0x35f
     33c:	72637700 	rsbvc	r7, r3, #0, 14
     340:	65725f30 	ldrbvs	r5, [r2, #-3888]!	; 0xf30
     344:	63770067 	cmnvs	r7, #103	; 0x67
     348:	675f3072 			; <UNDEFINED> instruction: 0x675f3072
     34c:	69007465 	stmdbvs	r0, {r0, r2, r5, r6, sl, ip, sp, lr}
     350:	5f74696e 	svcpl	0x0074696e
     354:	72620070 	rsbvc	r0, r2, #112	; 0x70
     358:	5f74706b 	svcpl	0x0074706b
     35c:	646e6168 	strbtvs	r6, [lr], #-360	; 0x168
     360:	3072656c 	rsbscc	r6, r2, ip, ror #10
     364:	31706300 	cmncc	r0, r0, lsl #6
     368:	63625f34 	cmnvs	r2, #52, 30	; 0xd0
     36c:	735f3072 	cmpvc	pc, #114	; 0x72
     370:	77007465 	strvc	r7, [r0, -r5, ror #8]
     374:	5f307276 	svcpl	0x00307276
     378:	006c6176 	rsbeq	r6, ip, r6, ror r1
     37c:	63746177 	cmnvs	r4, #-1073741795	; 0xc000001d
     380:	5f747068 	svcpl	0x00747068
     384:	30746573 	rsbscc	r6, r4, r3, ror r5
     388:	72767700 	rsbsvc	r7, r6, #0, 14
     38c:	65735f30 	ldrbvs	r5, [r3, #-3888]!	; 0xf30
     390:	72620074 	rsbvc	r0, r2, #116	; 0x74
     394:	6f6e5f6b 	svcvs	0x006e5f6b
     398:	7465725f 	strbtvc	r7, [r5], #-607	; 0x25f
     39c:	7272655f 	rsbsvc	r6, r2, #398458880	; 0x17c00000
     3a0:	6300726f 	movwvs	r7, #623	; 0x26f
     3a4:	5f343170 	svcpl	0x00343170
     3a8:	30726362 	rsbscc	r6, r2, r2, ror #6
     3ac:	7465675f 	strbtvc	r6, [r5], #-1887	; 0x75f
     3b0:	6b726200 	blvs	1c98bb8 <__bss_end__+0x1c8bfc8>
     3b4:	6d5f7470 	cfldrdvs	mvd7, [pc, #-448]	; 1fc <__code_start__-0x7e04>
     3b8:	616d7369 	cmnvs	sp, r9, ror #6
     3bc:	5f686374 	svcpl	0x00686374
     3c0:	30746573 	rsbscc	r6, r4, r3, ror r5
     3c4:	73666400 	cmnvc	r6, #0, 8
     3c8:	61765f72 	cmnvs	r6, r2, ror pc
     3cc:	6669006c 	strbtvs	r0, [r9], -ip, rrx
     3d0:	675f7261 	ldrbvs	r7, [pc, -r1, ror #4]
     3d4:	69007465 	stmdbvs	r0, {r0, r2, r5, r6, sl, ip, sp, lr}
     3d8:	5f727366 	svcpl	0x00727366
     3dc:	00746567 	rsbseq	r6, r4, r7, ror #10
     3e0:	63746177 	cmnvs	r4, #-1073741795	; 0xc000001d
     3e4:	5f747068 	svcpl	0x00747068
     3e8:	646e6168 	strbtvs	r6, [lr], #-360	; 0x168
     3ec:	3072656c 	rsbscc	r6, r2, ip, ror #10
     3f0:	6b726200 	blvs	1c98bf8 <__bss_end__+0x1c8c008>
     3f4:	6d5f7470 	cfldrdvs	mvd7, [pc, #-448]	; 23c <__code_start__-0x7dc4>
     3f8:	616d7369 	cmnvs	sp, r9, ror #6
     3fc:	5f686374 	svcpl	0x00686374
     400:	61736964 	cmnvs	r3, r4, ror #18
     404:	30656c62 	rsbcc	r6, r5, r2, ror #24
     408:	74616400 	strbtvc	r6, [r1], #-1024	; 0x400
     40c:	75616661 	strbvc	r6, [r1, #-1633]!	; 0x661
     410:	665f746c 	ldrbvs	r7, [pc], -ip, ror #8
     414:	5f6d6f72 	svcpl	0x006d6f72
     418:	6300646c 	movwvs	r6, #1132	; 0x46c
     41c:	5f343170 	svcpl	0x00343170
     420:	30727662 	rsbscc	r7, r2, r2, ror #12
     424:	7465735f 	strbtvc	r7, [r5], #-863	; 0x35f
     428:	73617700 	cmnvc	r1, #0, 14
     42c:	6265645f 	rsbvs	r6, r5, #1593835520	; 0x5f000000
     430:	61666775 	smcvs	26229	; 0x6675
     434:	5f746c75 	svcpl	0x00746c75
     438:	70630072 	rsbvc	r0, r3, r2, ror r0
     43c:	655f3431 	ldrbvs	r3, [pc, #-1073]	; 13 <__code_start__-0x7fed>
     440:	6c62616e 	stfvse	f6, [r2], #-440	; 0xfffffe48
     444:	666e0065 	strbtvs	r0, [lr], -r5, rrx
     448:	746c7561 	strbtvc	r7, [ip], #-1377	; 0x561
     44c:	76620073 			; <UNDEFINED> instruction: 0x76620073
     450:	765f3072 			; <UNDEFINED> instruction: 0x765f3072
     454:	64006c61 	strvs	r6, [r0], #-3169	; 0xc61
     458:	5f727366 	svcpl	0x00727366
     45c:	00746567 	rsbseq	r6, r4, r7, ror #10
     460:	63737973 	cmnvs	r3, #1884160	; 0x1cc000
     464:	5f6c6c61 	svcpl	0x006c6c61
     468:	74636576 	strbtvc	r6, [r3], #-1398	; 0x576
     46c:	7000726f 	andvc	r7, r0, pc, ror #4
     470:	65666572 	strbvs	r6, [r6, #-1394]!	; 0x572
     474:	5f686374 	svcpl	0x00686374
     478:	73756c66 	cmnvc	r5, #26112	; 0x6600
     47c:	65735f68 	ldrbvs	r5, [r3, #-3944]!	; 0xf68
     480:	63620074 	cmnvs	r2, #116	; 0x74
     484:	725f3072 	subsvc	r3, pc, #114	; 0x72
     488:	68006765 	stmdavs	r0, {r0, r2, r5, r6, r8, r9, sl, sp, lr}
     48c:	6c646e61 	stclvs	14, cr6, [r4], #-388	; 0xfffffe7c
     490:	745f7265 	ldrbvc	r7, [pc], #-613	; 498 <__code_start__-0x7b68>
     494:	61667700 	cmnvs	r6, r0, lsl #14
     498:	65675f72 	strbvs	r5, [r7, #-3954]!	; 0xf72
     49c:	79730074 	ldmdbvc	r3!, {r2, r4, r5, r6}^
     4a0:	756e5f73 	strbvc	r5, [lr, #-3955]!	; 0xf73
     4a4:	7262006d 	rsbvc	r0, r2, #109	; 0x6d
     4a8:	5f74706b 	svcpl	0x0074706b
     4ac:	30746573 	rsbscc	r6, r4, r3, ror r5
     4b0:	72637700 	rsbvc	r7, r3, #0, 14
     4b4:	65735f30 	ldrbvs	r5, [r3, #-3888]!	; 0xf30
     4b8:	6e690074 	mcrvs	0, 3, r0, cr9, cr4, {3}
     4bc:	6e695f74 	mcrvs	15, 3, r5, cr9, cr4, {3}
     4c0:	73007469 	movwvc	r7, #1129	; 0x469
     4c4:	6c676e69 	stclvs	14, cr6, [r7], #-420	; 0xfffffe5c
     4c8:	74735f65 	ldrbtvc	r5, [r3], #-3941	; 0xf65
     4cc:	685f7065 	ldmdavs	pc, {r0, r2, r5, r6, ip, sp, lr}^	; <UNPREDICTABLE>
     4d0:	6c646e61 	stclvs	14, cr6, [r4], #-388	; 0xfffffe7c
     4d4:	63007265 	movwvs	r7, #613	; 0x265
     4d8:	6b636568 	blvs	18d9a80 <__bss_end__+0x18cce90>
     4dc:	72657a5f 	rsbvc	r7, r5, #389120	; 0x5f000
     4e0:	6863006f 	stmdavs	r3!, {r0, r1, r2, r3, r5, r6}^
     4e4:	2d6b6365 	stclcs	3, cr6, [fp, #-404]!	; 0xfffffe6c
     4e8:	65746e69 	ldrbvs	r6, [r4, #-3689]!	; 0xe69
     4ec:	61656c72 	smcvs	22210	; 0x56c2
     4f0:	632e6576 	teqvs	lr, #494927872	; 0x1d800000
     4f4:	65737500 	ldrbvs	r7, [r3, #-1280]!	; 0x500
     4f8:	72745f72 	rsbsvc	r5, r4, #456	; 0x1c8
     4fc:	6f706d61 	svcvs	0x00706d61
     500:	656e696c 	strbvs	r6, [lr, #-2412]!	; 0x96c
     504:	7465725f 	strbtvc	r7, [r5], #-607	; 0x25f
     508:	73706300 	cmnvc	r0, #0, 6
     50c:	65675f72 	strbvs	r5, [r7, #-3954]!	; 0xf72
     510:	78650074 	stmdavc	r5!, {r2, r4, r5, r6}^
     514:	74636570 	strbtvc	r6, [r3], #-1392	; 0x570
     518:	685f6465 	ldmdavs	pc, {r0, r2, r5, r6, sl, sp, lr}^	; <UNPREDICTABLE>
     51c:	6c646e61 	stclvs	14, cr6, [r4], #-388	; 0xfffffe7c
     520:	616d0065 	cmnvs	sp, r5, rrx
     524:	62006b73 	andvs	r6, r0, #117760	; 0x1cc00
     528:	5f737469 	svcpl	0x00737469
     52c:	00726c63 	rsbseq	r6, r2, r3, ror #24
     530:	63656863 	cmnvs	r5, #6488064	; 0x630000
     534:	6e6f5f6b 	cdpvs	15, 6, cr5, cr15, cr11, {3}
     538:	73635f65 	cmnvc	r3, #404	; 0x194
     53c:	63746977 	cmnvs	r4, #1949696	; 0x1dc000
     540:	6f6d0068 	svcvs	0x006d0068
     544:	735f6564 	cmpvc	pc, #100, 10	; 0x19000000
     548:	6d007274 	sfmvs	f7, 4, [r0, #-464]	; 0xfffffe30
     54c:	5f65646f 	svcpl	0x0065646f
     550:	00746573 	rsbseq	r6, r4, r3, ror r5
     554:	63656863 	cmnvs	r5, #6488064	; 0x630000
     558:	65735f6b 	ldrbvs	r5, [r3, #-3947]!	; 0xf6b
     55c:	6e657571 	mcrvs	5, 3, r7, cr5, cr1, {3}
     560:	6c616974 	stclvs	9, cr6, [r1], #-464	; 0xfffffe30
     564:	73706300 	cmnvc	r0, #0, 6
     568:	6c6f5f72 	stclvs	15, cr5, [pc], #-456	; 3a8 <__code_start__-0x7c58>
     56c:	69620064 	stmdbvs	r2!, {r2, r5, r6}^
     570:	675f7374 			; <UNDEFINED> instruction: 0x675f7374
     574:	63007465 	movwvs	r7, #1125	; 0x465
     578:	5f727370 	svcpl	0x00727370
     57c:	72657375 	rsbvc	r7, r5, #-738197503	; 0xd4000001
     580:	73706300 	cmnvc	r0, #0, 6
     584:	6f6d0072 	svcvs	0x006d0072
     588:	6c5f6564 	cfldr64vs	mvdx6, [pc], {100}	; 0x64
     58c:	6c616765 	stclvs	7, cr6, [r1], #-404	; 0xfffffe6c
     590:	646f6d00 	strbtvs	r6, [pc], #-3328	; 598 <__code_start__-0x7a68>
     594:	65675f65 	strbvs	r5, [r7, #-3941]!	; 0xf65
     598:	65720074 	ldrbvs	r0, [r2, #-116]!	; 0x74
     59c:	6d007367 	stcvs	3, cr7, [r0, #-412]	; 0xfffffe64
     5a0:	0065646f 	rsbeq	r6, r5, pc, ror #8
     5a4:	6362696c 	cmnvs	r2, #108, 18	; 0x1b0000
     5a8:	6d656d2f 	stclvs	13, cr6, [r5, #-188]!	; 0xffffff44
     5ac:	2e746573 	mrccs	5, 3, r6, cr4, cr3, {3}
     5b0:	552f0063 	strpl	r0, [pc, #-99]!	; 555 <__code_start__-0x7aab>
     5b4:	73726573 	cmnvc	r2, #482344960	; 0x1cc00000
     5b8:	6972622f 	ldmdbvs	r2!, {r0, r1, r2, r3, r5, r9, sp, lr}^
     5bc:	756a6e61 	strbvc	r6, [sl, #-3681]!	; 0xe61
     5c0:	65442f6e 	strbvs	r2, [r4, #-3950]	; 0xf6e
     5c4:	6f746b73 	svcvs	0x00746b73
     5c8:	63732f70 	cmnvs	r3, #112, 30	; 0x1c0
     5cc:	6c6f6f68 	stclvs	15, cr6, [pc], #-416	; 434 <__code_start__-0x7bcc>
     5d0:	7270532f 	rsbsvc	r5, r0, #-1140850688	; 0xbc000000
     5d4:	31676e69 	cmncc	r7, r9, ror #28
     5d8:	2f303239 	svccs	0x00303239
     5dc:	34325343 	ldrtcc	r5, [r2], #-835	; 0x343
     5e0:	2f584c30 	svccs	0x00584c30
     5e4:	34327363 	ldrtcc	r7, [r2], #-867	; 0x363
     5e8:	2d786c30 	ldclcs	12, cr6, [r8, #-192]!	; 0xffffff40
     5ec:	70733032 	rsbsvc	r3, r3, r2, lsr r0
     5f0:	696c2f72 	stmdbvs	ip!, {r1, r4, r5, r6, r8, r9, sl, fp, sp}^
     5f4:	00697062 	rsbeq	r7, r9, r2, rrx
     5f8:	20554e47 	subscs	r4, r5, r7, asr #28
     5fc:	2e342043 	cdpcs	0, 3, cr2, cr4, cr3, {2}
     600:	20332e38 	eorscs	r2, r3, r8, lsr lr
     604:	70636d2d 	rsbvc	r6, r3, sp, lsr #26
     608:	72613d75 	rsbvc	r3, r1, #7488	; 0x1d40
     60c:	3731316d 	ldrcc	r3, [r1, -sp, ror #2]!
     610:	667a6a36 			; <UNDEFINED> instruction: 0x667a6a36
     614:	2d20732d 	stccs	3, cr7, [r0, #-180]!	; 0xffffff4c
     618:	6e75746d 	cdpvs	4, 7, cr7, cr5, cr13, {3}
     61c:	72613d65 	rsbvc	r3, r1, #6464	; 0x1940
     620:	3731316d 	ldrcc	r3, [r1, -sp, ror #2]!
     624:	667a6a36 			; <UNDEFINED> instruction: 0x667a6a36
     628:	2d20732d 	stccs	3, cr7, [r0, #-180]!	; 0xffffff4c
     62c:	62646767 	rsbvs	r6, r4, #27000832	; 0x19c0000
     630:	674f2d20 	strbvs	r2, [pc, -r0, lsr #26]
     634:	74732d20 	ldrbtvc	r2, [r3], #-3360	; 0xd20
     638:	6e673d64 	cdpvs	13, 6, cr3, cr7, cr4, {3}
     63c:	20393975 	eorscs	r3, r9, r5, ror r9
     640:	7266662d 	rsbvc	r6, r6, #47185920	; 0x2d00000
     644:	74736565 	ldrbtvc	r6, [r3], #-1381	; 0x565
     648:	69646e61 	stmdbvs	r4!, {r0, r5, r6, r9, sl, fp, sp, lr}^
     64c:	5f00676e 	svcpl	0x0000676e
     650:	756e675f 	strbvc	r6, [lr, #-1887]!	; 0x75f
     654:	61765f63 	cmnvs	r6, r3, ror #30
     658:	73696c5f 	cmnvc	r9, #24320	; 0x5f00
     65c:	696c0074 	stmdbvs	ip!, {r2, r4, r5, r6}^
     660:	702f6362 	eorvc	r6, pc, r2, ror #6
     664:	746e6972 	strbtvc	r6, [lr], #-2418	; 0x972
     668:	00632e6b 	rsbeq	r2, r3, fp, ror #28
     66c:	705f6176 	subsvc	r6, pc, r6, ror r1	; <UNPREDICTABLE>
     670:	746e6972 	strbtvc	r6, [lr], #-2418	; 0x972
     674:	5f5f006b 	svcpl	0x005f006b
     678:	6c5f6176 	ldfvse	f6, [pc], {118}	; 0x76
     67c:	00747369 	rsbseq	r7, r4, r9, ror #6
     680:	70615f5f 	rsbvc	r5, r1, pc, asr pc
     684:	72617500 	rsbvc	r7, r1, #0, 10
     688:	75705f74 	ldrbvc	r5, [r0, #-3956]!	; 0xf74
     68c:	69006374 	stmdbvs	r0, {r2, r4, r5, r6, r8, r9, sp, lr}
     690:	7265746e 	rsbvc	r7, r5, #1845493760	; 0x6e000000
     694:	5f6c616e 	svcpl	0x006c616e
     698:	63747570 	cmnvs	r4, #112, 10	; 0x1c000000
     69c:	00726168 	rsbseq	r6, r2, r8, ror #2
     6a0:	5f697072 	svcpl	0x00697072
     6a4:	63747570 	cmnvs	r4, #112, 10	; 0x1c000000
     6a8:	00726168 	rsbseq	r6, r2, r8, ror #2
     6ac:	6362696c 	cmnvs	r2, #108, 18	; 0x1b0000
     6b0:	7475702f 	ldrbtvc	r7, [r5], #-47	; 0x2f
     6b4:	72616863 	rsbvc	r6, r1, #6488064	; 0x630000
     6b8:	7200632e 	andvc	r6, r0, #-1207959552	; 0xb8000000
     6bc:	735f6970 	cmpvc	pc, #112, 18	; 0x1c0000
     6c0:	705f7465 	subsvc	r7, pc, r5, ror #8
     6c4:	00637475 	rsbeq	r7, r3, r5, ror r4
     6c8:	6362696c 	cmnvs	r2, #108, 18	; 0x1b0000
     6cc:	7475702f 	ldrbtvc	r7, [r5], #-47	; 0x2f
     6d0:	00632e6b 	rsbeq	r2, r3, fp, ror #28
     6d4:	65746e69 	ldrbvs	r6, [r4, #-3689]!	; 0xe69
     6d8:	6c616e72 	stclvs	14, cr6, [r1], #-456	; 0xfffffe38
     6dc:	7475705f 	ldrbtvc	r7, [r5], #-95	; 0x5f
     6e0:	6d66006b 	stclvs	0, cr0, [r6, #-428]!	; 0xfffffe54
     6e4:	74735f74 	ldrbtvc	r5, [r3], #-3956	; 0xf74
     6e8:	00747261 	rsbseq	r7, r4, r1, ror #4
     6ec:	5f67656e 	svcpl	0x0067656e
     6f0:	65720070 	ldrbvs	r0, [r2, #-112]!	; 0x70
     6f4:	73726576 	cmnvc	r2, #494927872	; 0x1d800000
     6f8:	73690065 	cmnvc	r9, #101	; 0x65
     6fc:	69676964 	stmdbvs	r7!, {r2, r5, r6, r8, fp, sp, lr}^
     700:	75700074 	ldrbvc	r0, [r0, #-116]!	; 0x74
     704:	665f7374 			; <UNDEFINED> instruction: 0x665f7374
     708:	69730070 	ldmdbvs	r3!, {r4, r5, r6}^
     70c:	64656e67 	strbtvs	r6, [r5], #-3687	; 0xe67
     710:	6c00705f 	stcvs	0, cr7, [r0], {95}	; 0x5f
     714:	2f636269 	svccs	0x00636269
     718:	702d6176 	eorvc	r6, sp, r6, ror r1
     71c:	746e6972 	strbtvc	r6, [lr], #-2418	; 0x972
     720:	00632e6b 	rsbeq	r2, r3, fp, ror #28
     724:	5f697072 	svcpl	0x00697072
     728:	5f746573 	svcpl	0x00746573
     72c:	7074756f 	rsbsvc	r7, r4, pc, ror #10
     730:	77007475 	smlsdxvc	r0, r5, r4, r7
     734:	68746469 	ldmdavs	r4!, {r0, r3, r5, r6, sl, sp, lr}^
     738:	74757000 	ldrbtvc	r7, [r5], #-0
     73c:	70665f63 	rsbvc	r5, r6, r3, ror #30
     740:	696d6500 	stmdbvs	sp!, {r8, sl, sp, lr}^
     744:	69640074 	stmdbvs	r4!, {r2, r4, r5, r6}^
     748:	6c626173 	stfvse	f6, [r2], #-460	; 0xfffffe34
     74c:	61635f65 	cmnvs	r3, r5, ror #30
     750:	00656863 	rsbeq	r6, r5, r3, ror #16
     754:	66617473 			; <UNDEFINED> instruction: 0x66617473
     758:	72732d66 	rsbsvc	r2, r3, #6528	; 0x1980
     75c:	61632f63 	cmnvs	r3, r3, ror #30
     760:	2e656863 	cdpcs	8, 6, cr6, cr5, cr3, {3}
     764:	65720063 	ldrbvs	r0, [r2, #-99]!	; 0x63
     768:	746f6f62 	strbtvc	r6, [pc], #-3938	; 770 <__code_start__-0x7890>
     76c:	6e61685f 	mcrvs	8, 3, r6, cr1, cr15, {2}
     770:	72656c64 	rsbvc	r6, r5, #100, 24	; 0x6400
     774:	61747300 	cmnvs	r4, r0, lsl #6
     778:	732d6666 	teqvc	sp, #106954752	; 0x6600000
     77c:	632f6372 	teqvs	pc, #-939524095	; 0xc8000001
     780:	6e61656c 	cdpvs	5, 6, cr6, cr1, cr12, {3}
     784:	6265722d 	rsbvs	r7, r5, #-805306366	; 0xd0000002
     788:	2e746f6f 	cdpcs	15, 7, cr6, cr4, cr15, {3}
     78c:	70720063 	rsbsvc	r0, r2, r3, rrx
     790:	65725f69 	ldrbvs	r5, [r2, #-3945]!	; 0xf69
     794:	746f6f62 	strbtvc	r6, [pc], #-3938	; 79c <__code_start__-0x7864>
     798:	6c656400 	cfstrdvs	mvd6, [r5], #-0
     79c:	6d5f7961 	ldclvs	9, cr7, [pc, #-388]	; 620 <__code_start__-0x79e0>
     7a0:	5f5f0073 	svcpl	0x005f0073
     7a4:	5f737362 	svcpl	0x00737362
     7a8:	72617473 	rsbvc	r7, r1, #1929379840	; 0x73000000
     7ac:	005f5f74 	subseq	r5, pc, r4, ror pc	; <UNPREDICTABLE>
     7b0:	73625f5f 	cmnvc	r2, #380	; 0x17c
     7b4:	6e655f73 	mcrvs	15, 3, r5, cr5, cr3, {3}
     7b8:	005f5f64 	subseq	r5, pc, r4, ror #30
     7bc:	61747363 	cmnvs	r4, r3, ror #6
     7c0:	685f7472 	ldmdavs	pc, {r1, r4, r5, r6, sl, ip, sp, lr}^	; <UNPREDICTABLE>
     7c4:	6c646e61 	stclvs	14, cr6, [r4], #-388	; 0xfffffe7c
     7c8:	62007265 	andvs	r7, r0, #1342177286	; 0x50000006
     7cc:	655f7373 	ldrbvs	r7, [pc, #-883]	; 461 <__code_start__-0x7b9f>
     7d0:	5f00646e 	svcpl	0x0000646e
     7d4:	61747363 	cmnvs	r4, r3, ror #6
     7d8:	73007472 	movwvc	r7, #1138	; 0x472
     7dc:	66666174 			; <UNDEFINED> instruction: 0x66666174
     7e0:	6372732d 	cmnvs	r2, #-1275068416	; 0xb4000000
     7e4:	7473632f 	ldrbtvc	r6, [r3], #-815	; 0x32f
     7e8:	2e747261 	cdpcs	2, 7, cr7, cr4, cr1, {3}
     7ec:	74730063 	ldrbtvc	r0, [r3], #-99	; 0x63
     7f0:	2d666661 	stclcs	6, cr6, [r6, #-388]!	; 0xfffffe7c
     7f4:	2f637273 	svccs	0x00637273
     7f8:	61666564 	cmnvs	r6, r4, ror #10
     7fc:	2d746c75 	ldclcs	12, cr6, [r4, #-468]!	; 0xfffffe2c
     800:	646e6168 	strbtvs	r6, [lr], #-360	; 0x168
     804:	2d72656c 	cfldr64cs	mvdx6, [r2, #-432]!	; 0xfffffe50
     808:	74736166 	ldrbtvc	r6, [r3], #-358	; 0x166
     80c:	6600632e 	strvs	r6, [r0], -lr, lsr #6
     810:	5f747361 	svcpl	0x00747361
     814:	65746e69 	ldrbvs	r6, [r4, #-3689]!	; 0xe69
     818:	70757272 	rsbsvc	r7, r5, r2, ror r2
     81c:	65765f74 	ldrbvs	r5, [r6, #-3956]!	; 0xf74
     820:	726f7463 	rsbvc	r7, pc, #1660944384	; 0x63000000
     824:	73657200 	cmnvc	r5, #0, 4
     828:	765f7465 	ldrbvc	r7, [pc], -r5, ror #8
     82c:	6f746365 	svcvs	0x00746365
     830:	74730072 	ldrbtvc	r0, [r3], #-114	; 0x72
     834:	2d666661 	stclcs	6, cr6, [r6, #-388]!	; 0xfffffe7c
     838:	2f637273 	svccs	0x00637273
     83c:	61666564 	cmnvs	r6, r4, ror #10
     840:	2d746c75 	ldclcs	12, cr6, [r4, #-468]!	; 0xfffffe2c
     844:	646e6168 	strbtvs	r6, [lr], #-360	; 0x168
     848:	2d72656c 	cfldr64cs	mvdx6, [r2, #-432]!	; 0xfffffe50
     84c:	65736572 	ldrbvs	r6, [r3, #-1394]!	; 0x572
     850:	00632e74 	rsbeq	r2, r3, r4, ror lr
     854:	66617473 			; <UNDEFINED> instruction: 0x66617473
     858:	72732d66 	rsbsvc	r2, r3, #6528	; 0x1980
     85c:	65642f63 	strbvs	r2, [r4, #-3939]!	; 0xf63
     860:	6c756166 	ldfvse	f6, [r5], #-408	; 0xfffffe68
     864:	61682d74 	smcvs	33492	; 0x82d4
     868:	656c646e 	strbvs	r6, [ip, #-1134]!	; 0x46e
     86c:	6e752d72 	mrcvs	13, 3, r2, cr5, cr2, {3}
     870:	69666564 	stmdbvs	r6!, {r2, r5, r6, r8, sl, sp, lr}^
     874:	2d64656e 	cfstr64cs	mvdx6, [r4, #-440]!	; 0xfffffe48
     878:	74736e69 	ldrbtvc	r6, [r3], #-3689	; 0xe69
     87c:	7500632e 	strvc	r6, [r0, #-814]	; 0x32e
     880:	6665646e 	strbtvs	r6, [r5], -lr, ror #8
     884:	64656e69 	strbtvs	r6, [r5], #-3689	; 0xe69
     888:	736e695f 	cmnvc	lr, #1556480	; 0x17c000
     88c:	63757274 	cmnvs	r5, #116, 4	; 0x40000007
     890:	6e6f6974 	mcrvs	9, 3, r6, cr15, cr4, {3}
     894:	6365765f 	cmnvs	r5, #99614720	; 0x5f00000
     898:	00726f74 	rsbseq	r6, r2, r4, ror pc
     89c:	66617473 			; <UNDEFINED> instruction: 0x66617473
     8a0:	72732d66 	rsbsvc	r2, r3, #6528	; 0x1980
     8a4:	65642f63 	strbvs	r2, [r4, #-3939]!	; 0xf63
     8a8:	6c756166 	ldfvse	f6, [r5], #-408	; 0xfffffe68
     8ac:	61682d74 	smcvs	33492	; 0x82d4
     8b0:	656c646e 	strbvs	r6, [ip, #-1134]!	; 0x46e
     8b4:	632e7372 	teqvs	lr, #-939524095	; 0xc8000001
     8b8:	51524900 	cmppl	r2, r0, lsl #18
     8bc:	6e65705f 	mcrvs	0, 3, r7, cr5, cr15, {2}
     8c0:	676e6964 	strbvs	r6, [lr, -r4, ror #18]!
     8c4:	4400325f 	strmi	r3, [r0], #-607	; 0x25f
     8c8:	62617369 	rsbvs	r7, r1, #-1543503871	; 0xa4000001
     8cc:	425f656c 	subsmi	r6, pc, #108, 10	; 0x1b000000
     8d0:	63697361 	cmnvs	r9, #-2080374783	; 0x84000001
     8d4:	5152495f 	cmppl	r2, pc, asr r9
     8d8:	49460073 	stmdbmi	r6, {r0, r1, r4, r5, r6}^
     8dc:	6f635f51 	svcvs	0x00635f51
     8e0:	6f72746e 	svcvs	0x0072746e
     8e4:	695f006c 	ldmdbvs	pc, {r2, r3, r5, r6}^	; <UNPREDICTABLE>
     8e8:	7265746e 	rsbvc	r7, r5, #1845493760	; 0x6e000000
     8ec:	74707572 	ldrbtvc	r7, [r0], #-1394	; 0x572
     8f0:	6261745f 	rsbvs	r7, r1, #1593835520	; 0x5f000000
     8f4:	4900656c 	stmdbmi	r0, {r2, r3, r5, r6, r8, sl, sp, lr}
     8f8:	625f5152 	subsvs	r5, pc, #-2147483628	; 0x80000014
     8fc:	63697361 	cmnvs	r9, #-2080374783	; 0x84000001
     900:	6e65705f 	mcrvs	0, 3, r7, cr5, cr15, {2}
     904:	676e6964 	strbvs	r6, [lr, -r4, ror #18]!
     908:	616e4500 	cmnvs	lr, r0, lsl #10
     90c:	5f656c62 	svcpl	0x00656c62
     910:	69736142 	ldmdbvs	r3!, {r1, r6, r8, sp, lr}^
     914:	52495f63 	subpl	r5, r9, #396	; 0x18c
     918:	45007351 	strmi	r7, [r0, #-849]	; 0x351
     91c:	6c62616e 	stfvse	f6, [r2], #-440	; 0xfffffe48
     920:	52495f65 	subpl	r5, r9, #404	; 0x194
     924:	315f7351 	cmpcc	pc, r1, asr r3	; <UNPREDICTABLE>
     928:	616e4500 	cmnvs	lr, r0, lsl #10
     92c:	5f656c62 	svcpl	0x00656c62
     930:	73515249 	cmpvc	r1, #-1879048188	; 0x90000004
     934:	5f00325f 	svcpl	0x0000325f
     938:	65746e69 	ldrbvs	r6, [r4, #-3689]!	; 0xe69
     93c:	70757272 	rsbsvc	r7, r5, r2, ror r2
     940:	61745f74 	cmnvs	r4, r4, ror pc
     944:	5f656c62 	svcpl	0x00656c62
     948:	00646e65 	rsbeq	r6, r4, r5, ror #28
     94c:	5f766564 	svcpl	0x00766564
     950:	72726162 	rsbsvc	r6, r2, #-2147483624	; 0x80000018
     954:	00726569 	rsbseq	r6, r2, r9, ror #10
     958:	66617473 			; <UNDEFINED> instruction: 0x66617473
     95c:	72732d66 	rsbsvc	r2, r3, #6528	; 0x1980
     960:	6e692f63 	cdpvs	15, 6, cr2, cr9, cr3, {3}
     964:	72726574 	rsbsvc	r6, r2, #116, 10	; 0x1d000000
     968:	73747075 	cmnvc	r4, #117	; 0x75
     96c:	632e632d 	teqvs	lr, #-1275068416	; 0xb4000000
     970:	51524900 	cmppl	r2, r0, lsl #18
     974:	7361425f 	cmnvc	r1, #-268435451	; 0xf0000005
     978:	55500065 	ldrbpl	r0, [r0, #-101]	; 0x65
     97c:	00323354 	eorseq	r3, r2, r4, asr r3
     980:	61736944 	cmnvs	r3, r4, asr #18
     984:	5f656c62 	svcpl	0x00656c62
     988:	73515249 	cmpvc	r1, #-1879048188	; 0x90000004
     98c:	4400315f 	strmi	r3, [r0], #-351	; 0x15f
     990:	62617369 	rsbvs	r7, r1, #-1543503871	; 0xa4000001
     994:	495f656c 	ldmdbmi	pc, {r2, r3, r5, r6, r8, sl, sp, lr}^	; <UNPREDICTABLE>
     998:	5f735152 	svcpl	0x00735152
     99c:	52490032 	subpl	r0, r9, #50	; 0x32
     9a0:	65705f51 	ldrbvs	r5, [r0, #-3921]!	; 0xf51
     9a4:	6e69646e 	cdpvs	4, 6, cr6, cr9, cr14, {3}
     9a8:	00315f67 	eorseq	r5, r1, r7, ror #30
     9ac:	755f7461 	ldrbvc	r7, [pc, #-1121]	; 553 <__code_start__-0x7aad>
     9b0:	5f726573 	svcpl	0x00726573
     9b4:	6576656c 	ldrbvs	r6, [r6, #-1388]!	; 0x56c
     9b8:	7473006c 	ldrbtvc	r0, [r3], #-108	; 0x6c
     9bc:	2d666661 	stclcs	6, cr6, [r6, #-388]!	; 0xfffffe7c
     9c0:	2f637273 	svccs	0x00637273
     9c4:	6f626572 	svcvs	0x00626572
     9c8:	632e746f 	teqvs	lr, #1862270976	; 0x6f000000
     9cc:	5f4d5000 	svcpl	0x004d5000
     9d0:	43545352 	cmpmi	r4, #1207959553	; 0x48000001
     9d4:	4352575f 	cmpmi	r2, #24903680	; 0x17c0000
     9d8:	465f4746 	ldrbmi	r4, [pc], -r6, asr #14
     9dc:	5f4c4c55 	svcpl	0x004c4c55
     9e0:	45534552 	ldrbmi	r4, [r3, #-1362]	; 0x552
     9e4:	4d500054 	ldclmi	0, cr0, [r0, #-336]	; 0xfffffeb0
     9e8:	4f44575f 	svcmi	0x0044575f
     9ec:	65730047 	ldrbvs	r0, [r3, #-71]!	; 0x47
     9f0:	73755f74 	cmnvc	r5, #116, 30	; 0x1d0
     9f4:	6c5f7265 	lfmvs	f7, 2, [pc], {101}	; 0x65
     9f8:	6c657665 	stclvs	6, cr7, [r5], #-404	; 0xfffffe6c
     9fc:	5f4d5000 	svcpl	0x004d5000
     a00:	53534150 	cmppl	r3, #80, 2
     a04:	44524f57 	ldrbmi	r4, [r2], #-3927	; 0xf57
     a08:	5f4d5000 	svcpl	0x004d5000
     a0c:	43545352 	cmpmi	r4, #1207959553	; 0x48000001
     a10:	6d697400 	cfstrdvs	mvd7, [r9, #-0]
     a14:	675f7265 	ldrbvs	r7, [pc, -r5, ror #4]
     a18:	755f7465 	ldrbvc	r7, [pc, #-1125]	; 5bb <__code_start__-0x7a45>
     a1c:	5f636573 	svcpl	0x00636573
     a20:	00776172 	rsbseq	r6, r7, r2, ror r1
     a24:	616c6564 	cmnvs	ip, r4, ror #10
     a28:	65735f79 	ldrbvs	r5, [r3, #-3961]!	; 0xf79
     a2c:	74730063 	ldrbtvc	r0, [r3], #-99	; 0x63
     a30:	2d666661 	stclcs	6, cr6, [r6, #-388]!	; 0xfffffe7c
     a34:	2f637273 	svccs	0x00637273
     a38:	656d6974 	strbvs	r6, [sp, #-2420]!	; 0x974
     a3c:	00632e72 	rsbeq	r2, r3, r2, ror lr
     a40:	33544547 	cmpcc	r4, #297795584	; 0x11c00000
     a44:	69740032 	ldmdbvs	r4!, {r1, r4, r5}^
     a48:	00736b63 	rsbseq	r6, r3, r3, ror #22
     a4c:	616c6564 	cmnvs	ip, r4, ror #10
     a50:	79635f79 	stmdbvc	r3!, {r0, r3, r4, r5, r6, r8, r9, sl, fp, ip, lr}^
     a54:	73656c63 	cmnvc	r5, #25344	; 0x6300
     a58:	6c656400 	cfstrdvs	mvd6, [r5], #-0
     a5c:	755f7961 	ldrbvc	r7, [pc, #-2401]	; 103 <__code_start__-0x7efd>
     a60:	69740073 	ldmdbvs	r4!, {r0, r1, r4, r5, r6}^
     a64:	5f72656d 	svcpl	0x0072656d
     a68:	5f746567 	svcpl	0x00746567
     a6c:	63657375 	cmnvs	r5, #-738197503	; 0xd4000001
     a70:	73645f00 	cmnvc	r4, #0, 30
     a74:	61685f6f 	cmnvs	r8, pc, ror #30
     a78:	656c646e 	strbvs	r6, [ip, #-1134]!	; 0x46e
     a7c:	69735f00 	ldmdbvs	r3!, {r8, r9, sl, fp, ip, lr}^
     a80:	5f00657a 	svcpl	0x0000657a
     a84:	646e6172 	strbtvs	r6, [lr], #-370	; 0x172
     a88:	5f003834 	svcpl	0x00003834
     a8c:	72656d65 	rsbvc	r6, r5, #6464	; 0x1940
     a90:	636e6567 	cmnvs	lr, #432013312	; 0x19c00000
     a94:	61750079 	cmnvs	r5, r9, ror r0
     a98:	695f7472 	ldmdbvs	pc, {r1, r4, r5, r6, sl, ip, sp, lr}^	; <UNPREDICTABLE>
     a9c:	0074696e 	rsbseq	r6, r4, lr, ror #18
     aa0:	7263775f 	rsbvc	r7, r3, #24903680	; 0x17c0000
     aa4:	626d6f74 	rsbvs	r6, sp, #116, 30	; 0x1d0
     aa8:	6174735f 	cmnvs	r4, pc, asr r3
     aac:	5f006574 	svcpl	0x00006574
     ab0:	72736377 	rsbsvc	r6, r3, #-603979775	; 0xdc000001
     ab4:	626d6f74 	rsbvs	r6, sp, #116, 30	; 0x1d0
     ab8:	74735f73 	ldrbtvc	r5, [r3], #-3955	; 0xf73
     abc:	00657461 	rsbeq	r7, r5, r1, ror #8
     ac0:	66626c5f 			; <UNDEFINED> instruction: 0x66626c5f
     ac4:	657a6973 	ldrbvs	r6, [sl, #-2419]!	; 0x973
     ac8:	49504700 	ldmdbmi	r0, {r8, r9, sl, lr}^
     acc:	55465f4f 	strbpl	r5, [r6, #-3919]	; 0xf4f
     ad0:	495f434e 	ldmdbmi	pc, {r1, r2, r3, r6, r8, r9, lr}^	; <UNPREDICTABLE>
     ad4:	5455504e 	ldrbpl	r5, [r5], #-78	; 0x4e
     ad8:	626d5f00 	rsbvs	r5, sp, #0, 30
     adc:	776f7472 			; <UNDEFINED> instruction: 0x776f7472
     ae0:	74735f63 	ldrbtvc	r5, [r3], #-3939	; 0xf63
     ae4:	00657461 	rsbeq	r7, r5, r1, ror #8
     ae8:	7463775f 	strbtvc	r7, [r3], #-1887	; 0x75f
     aec:	5f626d6f 	svcpl	0x00626d6f
     af0:	74617473 	strbtvc	r7, [r1], #-1139	; 0x473
     af4:	5f5f0065 	svcpl	0x005f0065
     af8:	735f6d74 	cmpvc	pc, #116, 26	; 0x1d00
     afc:	73006365 	movwvc	r6, #869	; 0x365
     b00:	00746174 	rsbseq	r6, r4, r4, ror r1
     b04:	7562755f 	strbvc	r7, [r2, #-1375]!	; 0x55f
     b08:	50470066 	subpl	r0, r7, r6, rrx
     b0c:	465f4f49 	ldrbmi	r4, [pc], -r9, asr #30
     b10:	5f434e55 	svcpl	0x00434e55
     b14:	31544c41 	cmpcc	r4, r1, asr #24
     b18:	61625f00 	cmnvs	r2, r0, lsl #30
     b1c:	63006573 	movwvs	r6, #1395	; 0x573
     b20:	006c746e 	rsbeq	r7, ip, lr, ror #8
     b24:	6d745f5f 	ldclvs	15, cr5, [r4, #-380]!	; 0xfffffe84
     b28:	756f685f 	strbvc	r6, [pc, #-2143]!	; 2d1 <__code_start__-0x7d2f>
     b2c:	5f5f0072 	svcpl	0x005f0072
     b30:	5f006673 	svcpl	0x00006673
     b34:	655f6e6f 	ldrbvs	r6, [pc, #-3695]	; fffffccd <__bss_end__+0xffff30dd>
     b38:	5f746978 	svcpl	0x00746978
     b3c:	73677261 	cmnvc	r7, #268435462	; 0x10000006
     b40:	6f635f00 	svcvs	0x00635f00
     b44:	65696b6f 	strbvs	r6, [r9, #-2927]!	; 0xb6f
     b48:	735f5f00 	cmpvc	pc, #0, 30
     b4c:	65756c67 	ldrbvs	r6, [r5, #-3175]!	; 0xc67
     b50:	6c665f00 	stclvs	15, cr5, [r6], #-0
     b54:	00736761 	rsbseq	r6, r3, r1, ror #14
     b58:	5f73695f 	svcpl	0x0073695f
     b5c:	00617863 	rsbeq	r7, r1, r3, ror #16
     b60:	6474735f 	ldrbtvs	r7, [r4], #-863	; 0x35f
     b64:	5f006e69 	svcpl	0x00006e69
     b68:	736b6c62 	cmnvc	fp, #25088	; 0x6200
     b6c:	00657a69 	rsbeq	r7, r5, r9, ror #20
     b70:	74726175 	ldrbtvc	r6, [r2], #-373	; 0x175
     b74:	6100632e 	tstvs	r0, lr, lsr #6
     b78:	705f7875 	subsvc	r7, pc, r5, ror r8	; <UNPREDICTABLE>
     b7c:	70697265 	rsbvc	r7, r9, r5, ror #4
     b80:	5f007368 	svcpl	0x00007368
     b84:	62747663 	rsbsvs	r7, r4, #103809024	; 0x6300000
     b88:	2f006675 	svccs	0x00006675
     b8c:	656d6f68 	strbvs	r6, [sp, #-3944]!	; 0xf68
     b90:	676e652f 	strbvs	r6, [lr, -pc, lsr #10]!
     b94:	2f72656c 	svccs	0x0072656c
     b98:	73616c63 	cmnvc	r1, #25344	; 0x6300
     b9c:	73632f73 	cmnvc	r3, #460	; 0x1cc
     ba0:	6c303432 	cfldrsvs	mvf3, [r0], #-200	; 0xffffff38
     ba4:	30322d78 	eorscc	r2, r2, r8, ror sp
     ba8:	2f727073 	svccs	0x00727073
     bac:	7062696c 	rsbvc	r6, r2, ip, ror #18
     bb0:	74732f69 	ldrbtvc	r2, [r3], #-3945	; 0xf69
     bb4:	2d666661 	stclcs	6, cr6, [r6, #-388]!	; 0xfffffe7c
     bb8:	76697270 			; <UNDEFINED> instruction: 0x76697270
     bbc:	00657461 	rsbeq	r7, r5, r1, ror #8
     bc0:	73626d5f 	cmnvc	r2, #6080	; 0x17c0
     bc4:	776f7472 			; <UNDEFINED> instruction: 0x776f7472
     bc8:	735f7363 	cmpvc	pc, #-1946157055	; 0x8c000001
     bcc:	65746174 	ldrbvs	r6, [r4, #-372]!	; 0x174
     bd0:	626d5f00 	rsbvs	r5, sp, #0, 30
     bd4:	6e656c72 	mcrvs	12, 3, r6, cr5, cr2, {3}
     bd8:	6174735f 	cmnvs	r4, pc, asr r3
     bdc:	5f006574 	svcpl	0x00006574
     be0:	72616e66 	rsbvc	r6, r1, #1632	; 0x660
     be4:	61007367 	tstvs	r0, r7, ror #6
     be8:	655f7875 	ldrbvs	r7, [pc, #-2165]	; 37b <__code_start__-0x7c85>
     bec:	6c62616e 	stfvse	f6, [r2], #-440	; 0xfffffe48
     bf0:	5f007365 	svcpl	0x00007365
     bf4:	00736e66 	rsbseq	r6, r3, r6, ror #28
     bf8:	6769735f 			; <UNDEFINED> instruction: 0x6769735f
     bfc:	6175006e 	cmnvs	r5, lr, rrx
     c00:	635f7472 	cmpvs	pc, #1912602624	; 0x72000000
     c04:	705f6e61 	subsvc	r6, pc, r1, ror #28
     c08:	00637475 	rsbeq	r7, r3, r5, ror r4
     c0c:	6f6c665f 	svcvs	0x006c665f
     c10:	745f6b63 	ldrbvc	r6, [pc], #-2915	; c18 <__code_start__-0x73e8>
     c14:	74735f00 	ldrbtvc	r5, [r3], #-3840	; 0xf00
     c18:	72726564 	rsbsvc	r6, r2, #100, 10	; 0x19000000
     c1c:	69425f00 	stmdbvs	r2, {r8, r9, sl, fp, ip, lr}^
     c20:	746e6967 	strbtvc	r6, [lr], #-2407	; 0x967
     c24:	61675f00 	cmnvs	r7, r0, lsl #30
     c28:	5f616d6d 	svcpl	0x00616d6d
     c2c:	6e676973 	mcrvs	9, 3, r6, cr7, cr3, {3}
     c30:	006d6167 	rsbeq	r6, sp, r7, ror #2
     c34:	7365725f 	cmnvc	r5, #-268435451	; 0xf0000005
     c38:	5f746c75 	svcpl	0x00746c75
     c3c:	5f5f006b 	svcpl	0x005f006b
     c40:	5f006d74 	svcpl	0x00006d74
     c44:	6863775f 	stmdavs	r3!, {r0, r1, r2, r3, r4, r6, r8, r9, sl, ip, sp, lr}^
     c48:	61750062 	cmnvs	r5, r2, rrx
     c4c:	675f7472 			; <UNDEFINED> instruction: 0x675f7472
     c50:	00637465 	rsbeq	r7, r3, r5, ror #8
     c54:	6474735f 	ldrbtvs	r7, [r4], #-863	; 0x35f
     c58:	0074756f 	rsbseq	r7, r4, pc, ror #10
     c5c:	7476635f 	ldrbtvc	r6, [r6], #-863	; 0x35f
     c60:	006e656c 	rsbeq	r6, lr, ip, ror #10
     c64:	6c69665f 	stclvs	6, cr6, [r9], #-380	; 0xfffffe84
     c68:	6e5f0065 	cdpvs	0, 5, cr0, cr15, cr5, {3}
     c6c:	73626f69 	cmnvc	r2, #420	; 0x1a4
     c70:	74615f00 	strbtvc	r5, [r1], #-3840	; 0xf00
     c74:	74697865 	strbtvc	r7, [r9], #-2149	; 0x865
     c78:	735f0030 	cmpvc	pc, #48	; 0x30
     c7c:	616e6769 	cmnvs	lr, r9, ror #14
     c80:	75625f6c 	strbvc	r5, [r2, #-3948]!	; 0xf6c
     c84:	615f0066 	cmpvs	pc, r6, rrx
     c88:	69746373 	ldmdbvs	r4!, {r0, r1, r4, r5, r6, r8, r9, sp, lr}^
     c8c:	625f656d 	subsvs	r6, pc, #457179136	; 0x1b400000
     c90:	5f006675 	svcpl	0x00006675
     c94:	75736572 	ldrbvc	r6, [r3, #-1394]!	; 0x572
     c98:	5f00746c 	svcpl	0x0000746c
     c9c:	6863775f 	stmdavs	r3!, {r0, r1, r2, r3, r4, r6, r8, r9, sl, ip, sp, lr}^
     ca0:	49504700 	ldmdbmi	r0, {r8, r9, sl, lr}^
     ca4:	55465f4f 	strbpl	r5, [r6, #-3919]	; 0xf4f
     ca8:	415f434e 	cmpmi	pc, lr, asr #6
     cac:	0032544c 	eorseq	r5, r2, ip, asr #8
     cb0:	746e6977 	strbtvc	r6, [lr], #-2423	; 0x977
     cb4:	5f00745f 	svcpl	0x0000745f
     cb8:	6b636f6c 	blvs	18dca70 <__bss_end__+0x18cfe80>
     cbc:	6c665f00 	stclvs	15, cr5, [r6], #-0
     cc0:	32736761 	rsbscc	r6, r3, #25427968	; 0x1840000
     cc4:	745f5f00 	ldrbvc	r5, [pc], #-3840	; ccc <__code_start__-0x7334>
     cc8:	65795f6d 	ldrbvs	r5, [r9, #-3949]!	; 0xf6d
     ccc:	5f007261 	svcpl	0x00007261
     cd0:	7366666f 	cmnvc	r6, #116391936	; 0x6f00000
     cd4:	67007465 	strvs	r7, [r0, -r5, ror #8]
     cd8:	5f6f6970 	svcpl	0x006f6970
     cdc:	5f746573 	svcpl	0x00746573
     ce0:	636e7566 	cmnvs	lr, #427819008	; 0x19800000
     ce4:	6e6f6974 	mcrvs	9, 3, r6, cr15, cr4, {3}
     ce8:	656e5f00 	strbvs	r5, [lr, #-3840]!	; 0xf00
     cec:	00667478 	rsbeq	r7, r6, r8, ror r4
     cf0:	6d745f5f 	ldclvs	15, cr5, [r4, #-380]!	; 0xfffffe84
     cf4:	6e6f6d5f 	mcrvs	13, 3, r6, cr15, cr15, {2}
     cf8:	74615f00 	strbtvc	r5, [r1], #-3840	; 0xf00
     cfc:	74697865 	strbtvc	r7, [r9], #-2149	; 0x865
     d00:	735f5f00 	cmpvc	pc, #0, 30
     d04:	69646964 	stmdbvs	r4!, {r2, r5, r6, r8, fp, sp, lr}^
     d08:	0074696e 	rsbseq	r6, r4, lr, ror #18
     d0c:	66666f5f 	uqsaxvs	r6, r6, pc	; <UNPREDICTABLE>
     d10:	7500745f 	strvc	r7, [r0, #-1119]	; 0x45f
     d14:	00747261 	rsbseq	r7, r4, r1, ror #4
     d18:	6572665f 	ldrbvs	r6, [r2, #-1631]!	; 0x65f
     d1c:	73696c65 	cmnvc	r9, #25856	; 0x6500
     d20:	4c5f0074 	mrrcmi	0, 7, r0, pc, cr4	; <UNPREDICTABLE>
     d24:	5f4b434f 	svcpl	0x004b434f
     d28:	55434552 	strbpl	r4, [r3, #-1362]	; 0x552
     d2c:	56495352 			; <UNDEFINED> instruction: 0x56495352
     d30:	00545f45 	subseq	r5, r4, r5, asr #30
     d34:	77656e5f 			; <UNDEFINED> instruction: 0x77656e5f
     d38:	5f685f00 	svcpl	0x00685f00
     d3c:	6e727265 	cdpvs	2, 7, cr7, cr2, cr5, {3}
     d40:	5f5f006f 	svcpl	0x005f006f
     d44:	795f6d74 	ldmdbvc	pc, {r2, r4, r5, r6, r8, sl, fp, sp, lr}^	; <UNPREDICTABLE>
     d48:	00796164 	rsbseq	r6, r9, r4, ror #2
     d4c:	62735f5f 	rsbsvs	r5, r3, #380	; 0x17c
     d50:	5f006675 	svcpl	0x00006675
     d54:	73626f69 	cmnvc	r2, #420	; 0x1a4
     d58:	465f5f00 	ldrbmi	r5, [pc], -r0, lsl #30
     d5c:	00454c49 	subeq	r4, r5, r9, asr #24
     d60:	73626d5f 	cmnvc	r2, #6080	; 0x17c0
     d64:	65746174 	ldrbvs	r6, [r4, #-372]!	; 0x174
     d68:	5f00745f 	svcpl	0x0000745f
     d6c:	4946735f 	stmdbmi	r6, {r0, r1, r2, r3, r4, r6, r8, r9, ip, sp, lr}^
     d70:	5f00454c 	svcpl	0x0000454c
     d74:	7473626d 	ldrbtvc	r6, [r3], #-621	; 0x26d
     d78:	00657461 	rsbeq	r7, r5, r1, ror #8
     d7c:	6e61725f 	mcrvs	2, 3, r7, cr1, cr15, {2}
     d80:	656e5f64 	strbvs	r5, [lr, #-3940]!	; 0xf64
     d84:	5f007478 	svcpl	0x00007478
     d88:	656c626d 	strbvs	r6, [ip, #-621]!	; 0x26d
     d8c:	74735f6e 	ldrbtvc	r5, [r3], #-3950	; 0xf6e
     d90:	00657461 	rsbeq	r7, r5, r1, ror #8
     d94:	636e695f 	cmnvs	lr, #1556480	; 0x17c000
     d98:	6e695f00 	cdpvs	15, 6, cr5, cr9, cr0, {0}
     d9c:	635f0064 	cmpvs	pc, #100	; 0x64
     da0:	65727275 	ldrbvs	r7, [r2, #-629]!	; 0x275
     da4:	6c5f746e 	cfldrdvs	mvd7, [pc], {110}	; 0x6e
     da8:	6c61636f 	stclvs	3, cr6, [r1], #-444	; 0xfffffe44
     dac:	5f5f0065 	svcpl	0x005f0065
     db0:	61656c63 	cmnvs	r5, r3, ror #24
     db4:	0070756e 	rsbseq	r7, r0, lr, ror #10
     db8:	78616d5f 	stmdavc	r1!, {r0, r1, r2, r3, r4, r6, r8, sl, fp, sp, lr}^
     dbc:	00736477 	rsbseq	r6, r3, r7, ror r4
     dc0:	6565725f 	strbvs	r7, [r5, #-607]!	; 0x25f
     dc4:	5f00746e 	svcpl	0x0000746e
     dc8:	64656573 	strbtvs	r6, [r5], #-1395	; 0x573
     dcc:	635f5f00 	cmpvs	pc, #0, 30
     dd0:	746e756f 	strbtvc	r7, [lr], #-1391	; 0x56f
     dd4:	765f5f00 	ldrbvc	r5, [pc], -r0, lsl #30
     dd8:	65756c61 	ldrbvs	r6, [r5, #-3169]!	; 0xc61
     ddc:	65735f00 	ldrbvs	r5, [r3, #-3840]!	; 0xf00
     de0:	62006b65 	andvs	r6, r0, #103424	; 0x19400
     de4:	00647561 	rsbeq	r7, r4, r1, ror #10
     de8:	6f70665f 	svcvs	0x0070665f
     dec:	00745f73 	rsbseq	r5, r4, r3, ror pc
     df0:	6d745f5f 	ldclvs	15, cr5, [r4, #-380]!	; 0xfffffe84
     df4:	6e696d5f 	mcrvs	13, 3, r6, cr9, cr15, {2}
     df8:	72637300 	rsbvc	r7, r3, #0, 6
     dfc:	68637461 	stmdavs	r3!, {r0, r5, r6, sl, ip, sp, lr}^
     e00:	756d5f00 	strbvc	r5, [sp, #-3840]!	; 0xf00
     e04:	7000746c 	andvc	r7, r0, ip, ror #8
     e08:	32337475 	eorscc	r7, r3, #1962934272	; 0x75000000
     e0c:	554e4700 	strbpl	r4, [lr, #-1792]	; 0x700
     e10:	39394320 	ldmdbcc	r9!, {r5, r8, r9, lr}
     e14:	332e3620 	teqcc	lr, #32, 12	; 0x2000000
     e18:	3220312e 	eorcc	r3, r0, #-2147483637	; 0x8000000b
     e1c:	30373130 	eorscc	r3, r7, r0, lsr r1
     e20:	20303236 	eorscs	r3, r0, r6, lsr r2
     e24:	70636d2d 	rsbvc	r6, r3, sp, lsr #26
     e28:	72613d75 	rsbvc	r3, r1, #7488	; 0x1d40
     e2c:	3731316d 	ldrcc	r3, [r1, -sp, ror #2]!
     e30:	667a6a36 			; <UNDEFINED> instruction: 0x667a6a36
     e34:	2d20732d 	stccs	3, cr7, [r0, #-180]!	; 0xffffff4c
     e38:	6e75746d 	cdpvs	4, 7, cr7, cr5, cr13, {3}
     e3c:	72613d65 	rsbvc	r3, r1, #6464	; 0x1940
     e40:	3731316d 	ldrcc	r3, [r1, -sp, ror #2]!
     e44:	667a6a36 			; <UNDEFINED> instruction: 0x667a6a36
     e48:	2d20732d 	stccs	3, cr7, [r0, #-180]!	; 0xffffff4c
     e4c:	62646767 	rsbvs	r6, r4, #27000832	; 0x19c0000
     e50:	674f2d20 	strbvs	r2, [pc, -r0, lsr #26]
     e54:	74732d20 	ldrbtvc	r2, [r3], #-3360	; 0xd20
     e58:	6e673d64 	cdpvs	13, 6, cr3, cr7, cr4, {3}
     e5c:	20393975 	eorscs	r3, r9, r5, ror r9
     e60:	7266662d 	rsbvc	r6, r6, #47185920	; 0x2d00000
     e64:	74736565 	ldrbtvc	r6, [r3], #-1381	; 0x565
     e68:	69646e61 	stmdbvs	r4!, {r0, r5, r6, r9, sl, fp, sp, lr}^
     e6c:	5f00676e 	svcpl	0x0000676e
     e70:	74727473 	ldrbtvc	r7, [r2], #-1139	; 0x473
     e74:	6c5f6b6f 	mrrcvs	11, 6, r6, pc, cr15	; <UNPREDICTABLE>
     e78:	00747361 	rsbseq	r7, r4, r1, ror #6
     e7c:	746e665f 	strbtvc	r6, [lr], #-1631	; 0x65f
     e80:	73657079 	cmnvc	r5, #121	; 0x79
     e84:	64615f00 	strbtvs	r5, [r1], #-3840	; 0xf00
     e88:	5f5f0064 	svcpl	0x005f0064
     e8c:	6e6f4c55 	mcrvs	12, 3, r4, cr15, cr5, {2}
     e90:	675f0067 	ldrbvs	r0, [pc, -r7, rrx]
     e94:	61647465 	cmnvs	r4, r5, ror #8
     e98:	655f6574 	ldrbvs	r6, [pc, #-1396]	; 92c <__code_start__-0x76d4>
     e9c:	5f007272 	svcpl	0x00007272
     ea0:	626f6c67 	rsbvs	r6, pc, #26368	; 0x6700
     ea4:	695f6c61 	ldmdbvs	pc, {r0, r5, r6, sl, fp, sp, lr}^	; <UNPREDICTABLE>
     ea8:	7275706d 	rsbsvc	r7, r5, #109	; 0x6d
     eac:	74705f65 	ldrbtvc	r5, [r0], #-3941	; 0xf65
     eb0:	635f0072 	cmpvs	pc, #114	; 0x72
     eb4:	65727275 	ldrbvs	r7, [r2, #-629]!	; 0x275
     eb8:	635f746e 	cmpvs	pc, #1845493760	; 0x6e000000
     ebc:	67657461 	strbvs	r7, [r5, -r1, ror #8]!
     ec0:	0079726f 	rsbseq	r7, r9, pc, ror #4
     ec4:	756e755f 	strbvc	r7, [lr, #-1375]!	; 0x55f
     ec8:	5f646573 	svcpl	0x00646573
     ecc:	646e6172 	strbtvs	r6, [lr], #-370	; 0x172
     ed0:	64775f00 	ldrbtvs	r5, [r7], #-3840	; 0xf00
     ed4:	5f5f0073 	svcpl	0x005f0073
     ed8:	775f6d74 			; <UNDEFINED> instruction: 0x775f6d74
     edc:	00796164 	rsbseq	r6, r9, r4, ror #2
     ee0:	756c675f 	strbvc	r6, [ip, #-1887]!	; 0x75f
     ee4:	50470065 	subpl	r0, r7, r5, rrx
     ee8:	465f4f49 	ldrbmi	r4, [pc], -r9, asr #30
     eec:	5f434e55 	svcpl	0x00434e55
     ef0:	5054554f 	subspl	r5, r4, pc, asr #10
     ef4:	5f005455 	svcpl	0x00005455
     ef8:	6c616d6e 	stclvs	13, cr6, [r1], #-440	; 0xfffffe48
     efc:	00636f6c 	rsbeq	r6, r3, ip, ror #30
     f00:	34366c5f 	ldrtcc	r6, [r6], #-3167	; 0xc5f
     f04:	75625f61 	strbvc	r5, [r2, #-3937]!	; 0xf61
     f08:	65670066 	strbvs	r0, [r7, #-102]!	; 0x66
     f0c:	00323374 	eorseq	r3, r2, r4, ror r3
     f10:	74726175 	ldrbtvc	r6, [r2], #-373	; 0x175
     f14:	6e61635f 	mcrvs	3, 3, r6, cr1, cr15, {2}
     f18:	7465675f 	strbtvc	r6, [r5], #-1887	; 0x75f
     f1c:	735f0063 	cmpvc	pc, #99	; 0x63
     f20:	665f6769 	ldrbvs	r6, [pc], -r9, ror #14
     f24:	00636e75 	rsbeq	r6, r3, r5, ror lr
     f28:	695f726f 	ldmdbvs	pc, {r0, r1, r2, r3, r5, r6, r9, ip, sp, lr}^	; <UNPREDICTABLE>
     f2c:	0032336e 	eorseq	r3, r2, lr, ror #6
     f30:	74726175 	ldrbtvc	r6, [r2], #-373	; 0x175
     f34:	7361685f 	cmnvc	r1, #6225920	; 0x5f0000
     f38:	7461645f 	strbtvc	r6, [r1], #-1119	; 0x45f
     f3c:	50470061 	subpl	r0, r7, r1, rrx
     f40:	465f4f49 	ldrbmi	r4, [pc], -r9, asr #30
     f44:	5f434e55 	svcpl	0x00434e55
     f48:	30544c41 	subscc	r4, r4, r1, asr #24
     f4c:	626e5f00 	rsbvs	r5, lr, #0, 30
     f50:	5f006675 	svcpl	0x00006675
     f54:	73756e75 	cmnvc	r5, #1872	; 0x750
     f58:	47006465 	strmi	r6, [r0, -r5, ror #8]
     f5c:	5f4f4950 	svcpl	0x004f4950
     f60:	434e5546 	movtmi	r5, #58694	; 0xe546
     f64:	544c415f 	strbpl	r4, [ip], #-351	; 0x15f
     f68:	50470033 	subpl	r0, r7, r3, lsr r0
     f6c:	465f4f49 	ldrbmi	r4, [pc], -r9, asr #30
     f70:	5f434e55 	svcpl	0x00434e55
     f74:	34544c41 	ldrbcc	r4, [r4], #-3137	; 0xc41
     f78:	49504700 	ldmdbmi	r0, {r8, r9, sl, lr}^
     f7c:	55465f4f 	strbpl	r5, [r6, #-3919]	; 0xf4f
     f80:	415f434e 	cmpmi	pc, lr, asr #6
     f84:	0035544c 	eorseq	r5, r5, ip, asr #8
     f88:	6d745f5f 	ldclvs	15, cr5, [r4, #-380]!	; 0xfffffe84
     f8c:	6473695f 	ldrbtvs	r6, [r3], #-2399	; 0x95f
     f90:	5f007473 	svcpl	0x00007473
     f94:	61636f6c 	cmnvs	r3, ip, ror #30
     f98:	6d69746c 	cfstrdvs	mvd7, [r9, #-432]!	; 0xfffffe50
     f9c:	75625f65 	strbvc	r5, [r2, #-3941]!	; 0xf65
     fa0:	635f0066 	cmpvs	pc, #102	; 0x66
     fa4:	65736f6c 	ldrbvs	r6, [r3, #-3948]!	; 0xf6c
     fa8:	34725f00 	ldrbtcc	r5, [r2], #-3840	; 0xf00
     fac:	6d5f0038 	ldclvs	0, cr0, [pc, #-224]	; ed4 <__code_start__-0x712c>
     fb0:	776f7462 	strbvc	r7, [pc, -r2, ror #8]!
     fb4:	74735f63 	ldrbtvc	r5, [r3], #-3939	; 0xf63
     fb8:	00657461 	rsbeq	r7, r5, r1, ror #8
     fbc:	7335705f 	teqvc	r5, #95	; 0x5f
     fc0:	745f5f00 	ldrbvc	r5, [pc], #-3840	; fc8 <__code_start__-0x7038>
     fc4:	646d5f6d 	strbtvs	r5, [sp], #-3949	; 0xf6d
     fc8:	67007961 	strvs	r7, [r0, -r1, ror #18]
     fcc:	5f6f6970 	svcpl	0x006f6970
     fd0:	5f746573 	svcpl	0x00746573
     fd4:	0066666f 	rsbeq	r6, r6, pc, ror #12
     fd8:	6b6e6162 	blvs	1b99568 <__bss_end__+0x1b8c978>
     fdc:	69706700 	ldmdbvs	r0!, {r8, r9, sl, sp, lr}^
     fe0:	00632e6f 	rsbeq	r2, r3, pc, ror #28
     fe4:	6f697067 	svcvs	0x00697067
     fe8:	6165725f 	cmnvs	r5, pc, asr r2
     fec:	70670064 	rsbvc	r0, r7, r4, rrx
     ff0:	735f6f69 	cmpvc	pc, #420	; 0x1a4
     ff4:	6f5f7465 	svcvs	0x005f7465
     ff8:	75707475 	ldrbvc	r7, [r0, #-1141]!	; 0x475
     ffc:	70670074 	rsbvc	r0, r7, r4, ror r0
    1000:	775f6f69 	ldrbvc	r6, [pc, -r9, ror #30]
    1004:	65746972 	ldrbvs	r6, [r4, #-2418]!	; 0x972
    1008:	69706700 	ldmdbvs	r0!, {r8, r9, sl, sp, lr}^
    100c:	65735f6f 	ldrbvs	r5, [r3, #-3951]!	; 0xf6f
    1010:	67003074 	smlsdxvs	r0, r4, r0, r3
    1014:	5f6f6970 	svcpl	0x006f6970
    1018:	3076656c 	rsbscc	r6, r6, ip, ror #10
    101c:	69706700 	ldmdbvs	r0!, {r8, r9, sl, sp, lr}^
    1020:	65735f6f 	ldrbvs	r5, [r3, #-3951]!	; 0xf6f
    1024:	6e695f74 	mcrvs	15, 3, r5, cr9, cr4, {3}
    1028:	00747570 	rsbseq	r7, r4, r0, ror r5
    102c:	6f697067 	svcvs	0x00697067
    1030:	7465735f 	strbtvc	r7, [r5], #-863	; 0x35f
    1034:	006e6f5f 	rsbeq	r6, lr, pc, asr pc
    1038:	6f697067 	svcvs	0x00697067
    103c:	6e75665f 	mrcvs	6, 3, r6, cr5, cr15, {2}
    1040:	00745f63 	rsbseq	r5, r4, r3, ror #30
    1044:	6f697067 	svcvs	0x00697067
    1048:	726c635f 	rsbvc	r6, ip, #2080374785	; 0x7c000001
    104c:	Address 0x000000000000104c is out of bounds.


Disassembly of section .debug_frame:

00000000 <.debug_frame>:
   0:	0000000c 	andeq	r0, r0, ip
   4:	ffffffff 			; <UNDEFINED> instruction: 0xffffffff
   8:	7c020001 	stcvc	0, cr0, [r2], {1}
   c:	000d0c0e 	andeq	r0, sp, lr, lsl #24
  10:	00000014 	andeq	r0, r0, r4, lsl r0
  14:	00000000 	andeq	r0, r0, r0
  18:	00008020 	andeq	r8, r0, r0, lsr #32
  1c:	000000a8 	andeq	r0, r0, r8, lsr #1
  20:	83080e42 	movwhi	r0, #36418	; 0x8e42
  24:	00018e02 	andeq	r8, r1, r2, lsl #28
  28:	00000014 	andeq	r0, r0, r4, lsl r0
  2c:	00000000 	andeq	r0, r0, r0
  30:	000080c8 	andeq	r8, r0, r8, asr #1
  34:	00000164 	andeq	r0, r0, r4, ror #2
  38:	8e040e42 	cdphi	14, 0, cr0, cr4, cr2, {2}
  3c:	100e4201 	andne	r4, lr, r1, lsl #4
  40:	00000018 	andeq	r0, r0, r8, lsl r0
  44:	00000000 	andeq	r0, r0, r0
  48:	0000822c 	andeq	r8, r0, ip, lsr #4
  4c:	0000020c 	andeq	r0, r0, ip, lsl #4
  50:	84080e42 	strhi	r0, [r8], #-3650	; 0xe42
  54:	42018e02 	andmi	r8, r1, #2, 28
  58:	0000100e 	andeq	r1, r0, lr
  5c:	00000014 	andeq	r0, r0, r4, lsl r0
  60:	00000000 	andeq	r0, r0, r0
  64:	00008438 	andeq	r8, r0, r8, lsr r4
  68:	00000070 	andeq	r0, r0, r0, ror r0
  6c:	8e040e42 	cdphi	14, 0, cr0, cr4, cr2, {2}
  70:	100e4201 	andne	r4, lr, r1, lsl #4
  74:	0000000c 	andeq	r0, r0, ip
  78:	00000000 	andeq	r0, r0, r0
  7c:	000084a8 	andeq	r8, r0, r8, lsr #9
  80:	00000070 	andeq	r0, r0, r0, ror r0
  84:	00000014 	andeq	r0, r0, r4, lsl r0
  88:	00000000 	andeq	r0, r0, r0
  8c:	00008518 	andeq	r8, r0, r8, lsl r5
  90:	000000e8 	andeq	r0, r0, r8, ror #1
  94:	8e040e42 	cdphi	14, 0, cr0, cr4, cr2, {2}
  98:	480e4201 	stmdami	lr, {r0, r9, lr}
  9c:	0000000c 	andeq	r0, r0, ip
  a0:	ffffffff 			; <UNDEFINED> instruction: 0xffffffff
  a4:	7c020001 	stcvc	0, cr0, [r2], {1}
  a8:	000d0c0e 	andeq	r0, sp, lr, lsl #24
  ac:	00000014 	andeq	r0, r0, r4, lsl r0
  b0:	0000009c 	muleq	r0, ip, r0
  b4:	00008600 	andeq	r8, r0, r0, lsl #12
  b8:	000000b0 	strheq	r0, [r0], -r0	; <UNPREDICTABLE>
  bc:	8e040e42 	cdphi	14, 0, cr0, cr4, cr2, {2}
  c0:	100e4201 	andne	r4, lr, r1, lsl #4
  c4:	00000014 	andeq	r0, r0, r4, lsl r0
  c8:	0000009c 	muleq	r0, ip, r0
  cc:	000086b0 			; <UNDEFINED> instruction: 0x000086b0
  d0:	000000dc 	ldrdeq	r0, [r0], -ip
  d4:	8e040e42 	cdphi	14, 0, cr0, cr4, cr2, {2}
  d8:	100e4201 	andne	r4, lr, r1, lsl #4
  dc:	00000014 	andeq	r0, r0, r4, lsl r0
  e0:	0000009c 	muleq	r0, ip, r0
  e4:	0000878c 	andeq	r8, r0, ip, lsl #15
  e8:	0000003c 	andeq	r0, r0, ip, lsr r0
  ec:	83080e42 	movwhi	r0, #36418	; 0x8e42
  f0:	00018e02 	andeq	r8, r1, r2, lsl #28
  f4:	0000000c 	andeq	r0, r0, ip
  f8:	0000009c 	muleq	r0, ip, r0
  fc:	000087c8 	andeq	r8, r0, r8, asr #15
 100:	00000034 	andeq	r0, r0, r4, lsr r0
 104:	00000014 	andeq	r0, r0, r4, lsl r0
 108:	0000009c 	muleq	r0, ip, r0
 10c:	000087fc 	strdeq	r8, [r0], -ip
 110:	00000098 	muleq	r0, r8, r0
 114:	8e040e42 	cdphi	14, 0, cr0, cr4, cr2, {2}
 118:	100e4201 	andne	r4, lr, r1, lsl #4
 11c:	0000000c 	andeq	r0, r0, ip
 120:	0000009c 	muleq	r0, ip, r0
 124:	00008894 	muleq	r0, r4, r8
 128:	00000004 	andeq	r0, r0, r4
 12c:	00000014 	andeq	r0, r0, r4, lsl r0
 130:	0000009c 	muleq	r0, ip, r0
 134:	00008898 	muleq	r0, r8, r8
 138:	0000002c 	andeq	r0, r0, ip, lsr #32
 13c:	83080e42 	movwhi	r0, #36418	; 0x8e42
 140:	00018e02 	andeq	r8, r1, r2, lsl #28
 144:	0000000c 	andeq	r0, r0, ip
 148:	0000009c 	muleq	r0, ip, r0
 14c:	000088c4 	andeq	r8, r0, r4, asr #17
 150:	00000034 	andeq	r0, r0, r4, lsr r0
 154:	0000000c 	andeq	r0, r0, ip
 158:	0000009c 	muleq	r0, ip, r0
 15c:	000088f8 	strdeq	r8, [r0], -r8	; <UNPREDICTABLE>
 160:	00000010 	andeq	r0, r0, r0, lsl r0
 164:	00000014 	andeq	r0, r0, r4, lsl r0
 168:	0000009c 	muleq	r0, ip, r0
 16c:	00008908 	andeq	r8, r0, r8, lsl #18
 170:	00000070 	andeq	r0, r0, r0, ror r0
 174:	83080e42 	movwhi	r0, #36418	; 0x8e42
 178:	00018e02 	andeq	r8, r1, r2, lsl #28
 17c:	0000000c 	andeq	r0, r0, ip
 180:	ffffffff 			; <UNDEFINED> instruction: 0xffffffff
 184:	7c020001 	stcvc	0, cr0, [r2], {1}
 188:	000d0c0e 	andeq	r0, sp, lr, lsl #24
 18c:	00000018 	andeq	r0, r0, r8, lsl r0
 190:	0000017c 	andeq	r0, r0, ip, ror r1
 194:	00008ab0 			; <UNDEFINED> instruction: 0x00008ab0
 198:	000001ac 	andeq	r0, r0, ip, lsr #3
 19c:	840c0e42 	strhi	r0, [ip], #-3650	; 0xe42
 1a0:	8e028503 	cfsh32hi	mvfx8, mvfx2, #3
 1a4:	180e4201 	stmdane	lr, {r0, r9, lr}
 1a8:	00000024 	andeq	r0, r0, r4, lsr #32
 1ac:	0000017c 	andeq	r0, r0, ip, ror r1
 1b0:	00008c5c 	andeq	r8, r0, ip, asr ip
 1b4:	000004e0 	andeq	r0, r0, r0, ror #9
 1b8:	84240e42 	strthi	r0, [r4], #-3650	; 0xe42
 1bc:	86088509 	strhi	r8, [r8], -r9, lsl #10
 1c0:	88068707 	stmdahi	r6, {r0, r1, r2, r8, r9, sl, pc}
 1c4:	8a048905 	bhi	1225e0 <__bss_end__+0x1159f0>
 1c8:	8e028b03 	vmlahi.f64	d8, d2, d3
 1cc:	300e4201 	andcc	r4, lr, r1, lsl #4
 1d0:	00000018 	andeq	r0, r0, r8, lsl r0
 1d4:	0000017c 	andeq	r0, r0, ip, ror r1
 1d8:	0000913c 	andeq	r9, r0, ip, lsr r1
 1dc:	00000084 	andeq	r0, r0, r4, lsl #1
 1e0:	83100e42 	tsthi	r0, #1056	; 0x420
 1e4:	85038404 	strhi	r8, [r3, #-1028]	; 0x404
 1e8:	00018e02 	andeq	r8, r1, r2, lsl #28
 1ec:	0000000c 	andeq	r0, r0, ip
 1f0:	0000017c 	andeq	r0, r0, ip, ror r1
 1f4:	000091c0 	andeq	r9, r0, r0, asr #3
 1f8:	00000028 	andeq	r0, r0, r8, lsr #32
 1fc:	00000014 	andeq	r0, r0, r4, lsl r0
 200:	0000017c 	andeq	r0, r0, ip, ror r1
 204:	000091e8 	andeq	r9, r0, r8, ror #3
 208:	0000004c 	andeq	r0, r0, ip, asr #32
 20c:	84080e42 	strhi	r0, [r8], #-3650	; 0xe42
 210:	00018e02 	andeq	r8, r1, r2, lsl #28
 214:	0000000c 	andeq	r0, r0, ip
 218:	ffffffff 			; <UNDEFINED> instruction: 0xffffffff
 21c:	7c020001 	stcvc	0, cr0, [r2], {1}
 220:	000d0c0e 	andeq	r0, sp, lr, lsl #24
 224:	0000000c 	andeq	r0, r0, ip
 228:	00000214 	andeq	r0, r0, r4, lsl r2
 22c:	00009234 	andeq	r9, r0, r4, lsr r2
 230:	00000020 	andeq	r0, r0, r0, lsr #32
 234:	0000000c 	andeq	r0, r0, ip
 238:	ffffffff 			; <UNDEFINED> instruction: 0xffffffff
 23c:	7c020001 	stcvc	0, cr0, [r2], {1}
 240:	000d0c0e 	andeq	r0, sp, lr, lsl #24
 244:	00000024 	andeq	r0, r0, r4, lsr #32
 248:	00000234 	andeq	r0, r0, r4, lsr r2
 24c:	00009254 	andeq	r9, r0, r4, asr r2
 250:	00000058 	andeq	r0, r0, r8, asr r0
 254:	80100e42 	andshi	r0, r0, r2, asr #28
 258:	82038104 	andhi	r8, r3, #4, 2
 25c:	42018302 	andmi	r8, r1, #134217728	; 0x8000000
 260:	07841c0e 	streq	r1, [r4, lr, lsl #24]
 264:	058e0685 	streq	r0, [lr, #1669]	; 0x685
 268:	00280e42 	eoreq	r0, r8, r2, asr #28
 26c:	0000000c 	andeq	r0, r0, ip
 270:	ffffffff 			; <UNDEFINED> instruction: 0xffffffff
 274:	7c020001 	stcvc	0, cr0, [r2], {1}
 278:	000d0c0e 	andeq	r0, sp, lr, lsl #24
 27c:	00000014 	andeq	r0, r0, r4, lsl r0
 280:	0000026c 	andeq	r0, r0, ip, ror #4
 284:	000092ac 	andeq	r9, r0, ip, lsr #5
 288:	00000014 	andeq	r0, r0, r4, lsl r0
 28c:	84080e42 	strhi	r0, [r8], #-3650	; 0xe42
 290:	00018e02 	andeq	r8, r1, r2, lsl #28
 294:	0000000c 	andeq	r0, r0, ip
 298:	0000026c 	andeq	r0, r0, ip, ror #4
 29c:	000092c0 	andeq	r9, r0, r0, asr #5
 2a0:	00000018 	andeq	r0, r0, r8, lsl r0
 2a4:	0000000c 	andeq	r0, r0, ip
 2a8:	0000026c 	andeq	r0, r0, ip, ror #4
 2ac:	000092d8 	ldrdeq	r9, [r0], -r8
 2b0:	00000010 	andeq	r0, r0, r0, lsl r0
 2b4:	0000000c 	andeq	r0, r0, ip
 2b8:	ffffffff 			; <UNDEFINED> instruction: 0xffffffff
 2bc:	7c020001 	stcvc	0, cr0, [r2], {1}
 2c0:	000d0c0e 	andeq	r0, sp, lr, lsl #24
 2c4:	00000018 	andeq	r0, r0, r8, lsl r0
 2c8:	000002b4 			; <UNDEFINED> instruction: 0x000002b4
 2cc:	000092e8 	andeq	r9, r0, r8, ror #5
 2d0:	00000034 	andeq	r0, r0, r4, lsr r0
 2d4:	83100e42 	tsthi	r0, #1056	; 0x420
 2d8:	85038404 	strhi	r8, [r3, #-1028]	; 0x404
 2dc:	00018e02 	andeq	r8, r1, r2, lsl #28
 2e0:	0000000c 	andeq	r0, r0, ip
 2e4:	ffffffff 			; <UNDEFINED> instruction: 0xffffffff
 2e8:	7c020001 	stcvc	0, cr0, [r2], {1}
 2ec:	000d0c0e 	andeq	r0, sp, lr, lsl #24
 2f0:	0000000c 	andeq	r0, r0, ip
 2f4:	000002e0 	andeq	r0, r0, r0, ror #5
 2f8:	0000931c 	andeq	r9, r0, ip, lsl r3
 2fc:	00000014 	andeq	r0, r0, r4, lsl r0
 300:	0000000c 	andeq	r0, r0, ip
 304:	000002e0 	andeq	r0, r0, r0, ror #5
 308:	00009330 	andeq	r9, r0, r0, lsr r3
 30c:	0000002c 	andeq	r0, r0, ip, lsr #32
 310:	0000000c 	andeq	r0, r0, ip
 314:	000002e0 	andeq	r0, r0, r0, ror #5
 318:	0000935c 	andeq	r9, r0, ip, asr r3
 31c:	00000040 	andeq	r0, r0, r0, asr #32
 320:	00000020 	andeq	r0, r0, r0, lsr #32
 324:	000002e0 	andeq	r0, r0, r0, ror #5
 328:	0000939c 	muleq	r0, ip, r3
 32c:	000001bc 			; <UNDEFINED> instruction: 0x000001bc
 330:	84180e42 	ldrhi	r0, [r8], #-3650	; 0xe42
 334:	86058506 	strhi	r8, [r5], -r6, lsl #10
 338:	88038704 	stmdahi	r3, {r2, r8, r9, sl, pc}
 33c:	42018e02 	andmi	r8, r1, #2, 28
 340:	0000600e 	andeq	r6, r0, lr
 344:	00000014 	andeq	r0, r0, r4, lsl r0
 348:	000002e0 	andeq	r0, r0, r0, ror #5
 34c:	00009558 	andeq	r9, r0, r8, asr r5
 350:	00000068 	andeq	r0, r0, r8, rrx
 354:	8e040e42 	cdphi	14, 0, cr0, cr4, cr2, {2}
 358:	100e4201 	andne	r4, lr, r1, lsl #4
 35c:	00000028 	andeq	r0, r0, r8, lsr #32
 360:	000002e0 	andeq	r0, r0, r0, ror #5
 364:	000095c0 	andeq	r9, r0, r0, asr #11
 368:	000002d4 	ldrdeq	r0, [r0], -r4
 36c:	84240e42 	strthi	r0, [r4], #-3650	; 0xe42
 370:	86088509 	strhi	r8, [r8], -r9, lsl #10
 374:	88068707 	stmdahi	r6, {r0, r1, r2, r8, r9, sl, pc}
 378:	8a048905 	bhi	122794 <__bss_end__+0x115ba4>
 37c:	8e028b03 	vmlahi.f64	d8, d2, d3
 380:	b80e4201 	stmdalt	lr, {r0, r9, lr}
 384:	00000001 	andeq	r0, r0, r1
 388:	0000000c 	andeq	r0, r0, ip
 38c:	ffffffff 			; <UNDEFINED> instruction: 0xffffffff
 390:	7c020001 	stcvc	0, cr0, [r2], {1}
 394:	000d0c0e 	andeq	r0, sp, lr, lsl #24
 398:	0000000c 	andeq	r0, r0, ip
 39c:	00000388 	andeq	r0, r0, r8, lsl #7
 3a0:	00009894 	muleq	r0, r4, r8
 3a4:	00000010 	andeq	r0, r0, r0, lsl r0
 3a8:	0000000c 	andeq	r0, r0, ip
 3ac:	00000388 	andeq	r0, r0, r8, lsl #7
 3b0:	000098a4 	andeq	r9, r0, r4, lsr #17
 3b4:	00000010 	andeq	r0, r0, r0, lsl r0
 3b8:	0000000c 	andeq	r0, r0, ip
 3bc:	ffffffff 			; <UNDEFINED> instruction: 0xffffffff
 3c0:	7c020001 	stcvc	0, cr0, [r2], {1}
 3c4:	000d0c0e 	andeq	r0, sp, lr, lsl #24
 3c8:	00000014 	andeq	r0, r0, r4, lsl r0
 3cc:	000003b8 			; <UNDEFINED> instruction: 0x000003b8
 3d0:	000098b4 			; <UNDEFINED> instruction: 0x000098b4
 3d4:	0000002c 	andeq	r0, r0, ip, lsr #32
 3d8:	83080e42 	movwhi	r0, #36418	; 0x8e42
 3dc:	00018e02 	andeq	r8, r1, r2, lsl #28
 3e0:	0000000c 	andeq	r0, r0, ip
 3e4:	ffffffff 			; <UNDEFINED> instruction: 0xffffffff
 3e8:	7c020001 	stcvc	0, cr0, [r2], {1}
 3ec:	000d0c0e 	andeq	r0, sp, lr, lsl #24
 3f0:	00000014 	andeq	r0, r0, r4, lsl r0
 3f4:	000003e0 	andeq	r0, r0, r0, ror #7
 3f8:	000098e0 	andeq	r9, r0, r0, ror #17
 3fc:	00000038 	andeq	r0, r0, r8, lsr r0
 400:	83080e42 	movwhi	r0, #36418	; 0x8e42
 404:	00018e02 	andeq	r8, r1, r2, lsl #28
 408:	0000000c 	andeq	r0, r0, ip
 40c:	ffffffff 			; <UNDEFINED> instruction: 0xffffffff
 410:	7c020001 	stcvc	0, cr0, [r2], {1}
 414:	000d0c0e 	andeq	r0, sp, lr, lsl #24
 418:	00000014 	andeq	r0, r0, r4, lsl r0
 41c:	00000408 	andeq	r0, r0, r8, lsl #8
 420:	00009918 	andeq	r9, r0, r8, lsl r9
 424:	00000044 	andeq	r0, r0, r4, asr #32
 428:	8e040e42 	cdphi	14, 0, cr0, cr4, cr2, {2}
 42c:	100e4201 	andne	r4, lr, r1, lsl #4
 430:	0000000c 	andeq	r0, r0, ip
 434:	ffffffff 			; <UNDEFINED> instruction: 0xffffffff
 438:	7c020001 	stcvc	0, cr0, [r2], {1}
 43c:	000d0c0e 	andeq	r0, sp, lr, lsl #24
 440:	00000014 	andeq	r0, r0, r4, lsl r0
 444:	00000430 	andeq	r0, r0, r0, lsr r4
 448:	0000995c 	andeq	r9, r0, ip, asr r9
 44c:	00000044 	andeq	r0, r0, r4, asr #32
 450:	8e040e42 	cdphi	14, 0, cr0, cr4, cr2, {2}
 454:	100e4201 	andne	r4, lr, r1, lsl #4
 458:	0000000c 	andeq	r0, r0, ip
 45c:	ffffffff 			; <UNDEFINED> instruction: 0xffffffff
 460:	7c020001 	stcvc	0, cr0, [r2], {1}
 464:	000d0c0e 	andeq	r0, sp, lr, lsl #24
 468:	00000014 	andeq	r0, r0, r4, lsl r0
 46c:	00000458 	andeq	r0, r0, r8, asr r4
 470:	000099a0 	andeq	r9, r0, r0, lsr #19
 474:	00000044 	andeq	r0, r0, r4, asr #32
 478:	8e040e42 	cdphi	14, 0, cr0, cr4, cr2, {2}
 47c:	100e4201 	andne	r4, lr, r1, lsl #4
 480:	0000000c 	andeq	r0, r0, ip
 484:	ffffffff 			; <UNDEFINED> instruction: 0xffffffff
 488:	7c020001 	stcvc	0, cr0, [r2], {1}
 48c:	000d0c0e 	andeq	r0, sp, lr, lsl #24
 490:	0000000c 	andeq	r0, r0, ip
 494:	00000480 	andeq	r0, r0, r0, lsl #9
 498:	000099e4 	andeq	r9, r0, r4, ror #19
 49c:	00000004 	andeq	r0, r0, r4
 4a0:	0000000c 	andeq	r0, r0, ip
 4a4:	00000480 	andeq	r0, r0, r0, lsl #9
 4a8:	000099e8 	andeq	r9, r0, r8, ror #19
 4ac:	00000004 	andeq	r0, r0, r4
 4b0:	0000000c 	andeq	r0, r0, ip
 4b4:	ffffffff 			; <UNDEFINED> instruction: 0xffffffff
 4b8:	7c020001 	stcvc	0, cr0, [r2], {1}
 4bc:	000d0c0e 	andeq	r0, sp, lr, lsl #24
 4c0:	00000014 	andeq	r0, r0, r4, lsl r0
 4c4:	000004b0 			; <UNDEFINED> instruction: 0x000004b0
 4c8:	000099ec 	andeq	r9, r0, ip, ror #19
 4cc:	0000006c 	andeq	r0, r0, ip, rrx
 4d0:	83080e42 	movwhi	r0, #36418	; 0x8e42
 4d4:	00018e02 	andeq	r8, r1, r2, lsl #28
 4d8:	0000000c 	andeq	r0, r0, ip
 4dc:	ffffffff 			; <UNDEFINED> instruction: 0xffffffff
 4e0:	7c020001 	stcvc	0, cr0, [r2], {1}
 4e4:	000d0c0e 	andeq	r0, sp, lr, lsl #24
 4e8:	0000000c 	andeq	r0, r0, ip
 4ec:	000004d8 	ldrdeq	r0, [r0], -r8
 4f0:	00009a58 	andeq	r9, r0, r8, asr sl
 4f4:	00000018 	andeq	r0, r0, r8, lsl r0
 4f8:	0000000c 	andeq	r0, r0, ip
 4fc:	000004d8 	ldrdeq	r0, [r0], -r8
 500:	00009a70 	andeq	r9, r0, r0, ror sl
 504:	00000014 	andeq	r0, r0, r4, lsl r0
 508:	00000014 	andeq	r0, r0, r4, lsl r0
 50c:	000004d8 	ldrdeq	r0, [r0], -r8
 510:	00009a84 	andeq	r9, r0, r4, lsl #21
 514:	00000048 	andeq	r0, r0, r8, asr #32
 518:	83080e42 	movwhi	r0, #36418	; 0x8e42
 51c:	00018e02 	andeq	r8, r1, r2, lsl #28
 520:	0000000c 	andeq	r0, r0, ip
 524:	ffffffff 			; <UNDEFINED> instruction: 0xffffffff
 528:	7c020001 	stcvc	0, cr0, [r2], {1}
 52c:	000d0c0e 	andeq	r0, sp, lr, lsl #24
 530:	0000000c 	andeq	r0, r0, ip
 534:	00000520 	andeq	r0, r0, r0, lsr #10
 538:	00009acc 	andeq	r9, r0, ip, asr #21
 53c:	0000001c 	andeq	r0, r0, ip, lsl r0
 540:	00000014 	andeq	r0, r0, r4, lsl r0
 544:	00000520 	andeq	r0, r0, r0, lsr #10
 548:	00009ae8 	andeq	r9, r0, r8, ror #21
 54c:	00000014 	andeq	r0, r0, r4, lsl r0
 550:	83080e42 	movwhi	r0, #36418	; 0x8e42
 554:	00018e02 	andeq	r8, r1, r2, lsl #28
 558:	00000014 	andeq	r0, r0, r4, lsl r0
 55c:	00000520 	andeq	r0, r0, r0, lsr #10
 560:	00009afc 	strdeq	r9, [r0], -ip
 564:	0000001c 	andeq	r0, r0, ip, lsl r0
 568:	84080e42 	strhi	r0, [r8], #-3650	; 0xe42
 56c:	00018e02 	andeq	r8, r1, r2, lsl #28
 570:	00000018 	andeq	r0, r0, r8, lsl r0
 574:	00000520 	andeq	r0, r0, r0, lsr #10
 578:	00009b18 	andeq	r9, r0, r8, lsl fp
 57c:	00000024 	andeq	r0, r0, r4, lsr #32
 580:	83100e42 	tsthi	r0, #1056	; 0x420
 584:	85038404 	strhi	r8, [r3, #-1028]	; 0x404
 588:	00018e02 	andeq	r8, r1, r2, lsl #28
 58c:	00000014 	andeq	r0, r0, r4, lsl r0
 590:	00000520 	andeq	r0, r0, r0, lsr #10
 594:	00009b3c 	andeq	r9, r0, ip, lsr fp
 598:	00000014 	andeq	r0, r0, r4, lsl r0
 59c:	83080e42 	movwhi	r0, #36418	; 0x8e42
 5a0:	00018e02 	andeq	r8, r1, r2, lsl #28
 5a4:	00000014 	andeq	r0, r0, r4, lsl r0
 5a8:	00000520 	andeq	r0, r0, r0, lsr #10
 5ac:	00009b50 	andeq	r9, r0, r0, asr fp
 5b0:	00000014 	andeq	r0, r0, r4, lsl r0
 5b4:	83080e42 	movwhi	r0, #36418	; 0x8e42
 5b8:	00018e02 	andeq	r8, r1, r2, lsl #28
 5bc:	0000000c 	andeq	r0, r0, ip
 5c0:	ffffffff 			; <UNDEFINED> instruction: 0xffffffff
 5c4:	7c020001 	stcvc	0, cr0, [r2], {1}
 5c8:	000d0c0e 	andeq	r0, sp, lr, lsl #24
 5cc:	00000018 	andeq	r0, r0, r8, lsl r0
 5d0:	000005bc 			; <UNDEFINED> instruction: 0x000005bc
 5d4:	00009bc8 	andeq	r9, r0, r8, asr #23
 5d8:	00000020 	andeq	r0, r0, r0, lsr #32
 5dc:	84100e42 	ldrhi	r0, [r0], #-3650	; 0xe42
 5e0:	86038504 	strhi	r8, [r3], -r4, lsl #10
 5e4:	00018e02 	andeq	r8, r1, r2, lsl #28
 5e8:	00000014 	andeq	r0, r0, r4, lsl r0
 5ec:	000005bc 			; <UNDEFINED> instruction: 0x000005bc
 5f0:	00009be8 	andeq	r9, r0, r8, ror #23
 5f4:	000000b0 	strheq	r0, [r0], -r0	; <UNPREDICTABLE>
 5f8:	84080e42 	strhi	r0, [r8], #-3650	; 0xe42
 5fc:	00018e02 	andeq	r8, r1, r2, lsl #28
 600:	00000014 	andeq	r0, r0, r4, lsl r0
 604:	000005bc 			; <UNDEFINED> instruction: 0x000005bc
 608:	00009c98 	muleq	r0, r8, ip
 60c:	00000018 	andeq	r0, r0, r8, lsl r0
 610:	84080e42 	strhi	r0, [r8], #-3650	; 0xe42
 614:	00018e02 	andeq	r8, r1, r2, lsl #28
 618:	00000014 	andeq	r0, r0, r4, lsl r0
 61c:	000005bc 			; <UNDEFINED> instruction: 0x000005bc
 620:	00009cb0 			; <UNDEFINED> instruction: 0x00009cb0
 624:	00000020 	andeq	r0, r0, r0, lsr #32
 628:	84080e42 	strhi	r0, [r8], #-3650	; 0xe42
 62c:	00018e02 	andeq	r8, r1, r2, lsl #28
 630:	00000014 	andeq	r0, r0, r4, lsl r0
 634:	000005bc 			; <UNDEFINED> instruction: 0x000005bc
 638:	00009cd0 	ldrdeq	r9, [r0], -r0
 63c:	00000030 	andeq	r0, r0, r0, lsr r0
 640:	84080e42 	strhi	r0, [r8], #-3650	; 0xe42
 644:	00018e02 	andeq	r8, r1, r2, lsl #28
 648:	00000014 	andeq	r0, r0, r4, lsl r0
 64c:	000005bc 			; <UNDEFINED> instruction: 0x000005bc
 650:	00009d00 	andeq	r9, r0, r0, lsl #26
 654:	00000030 	andeq	r0, r0, r0, lsr r0
 658:	84080e42 	strhi	r0, [r8], #-3650	; 0xe42
 65c:	00018e02 	andeq	r8, r1, r2, lsl #28
 660:	00000014 	andeq	r0, r0, r4, lsl r0
 664:	000005bc 			; <UNDEFINED> instruction: 0x000005bc
 668:	00009d30 	andeq	r9, r0, r0, lsr sp
 66c:	00000010 	andeq	r0, r0, r0, lsl r0
 670:	84080e42 	strhi	r0, [r8], #-3650	; 0xe42
 674:	00018e02 	andeq	r8, r1, r2, lsl #28
 678:	0000000c 	andeq	r0, r0, ip
 67c:	ffffffff 			; <UNDEFINED> instruction: 0xffffffff
 680:	7c020001 	stcvc	0, cr0, [r2], {1}
 684:	000d0c0e 	andeq	r0, sp, lr, lsl #24
 688:	00000018 	andeq	r0, r0, r8, lsl r0
 68c:	00000678 	andeq	r0, r0, r8, ror r6
 690:	00009d40 	andeq	r9, r0, r0, asr #26
 694:	00000068 	andeq	r0, r0, r8, rrx
 698:	84100e4a 	ldrhi	r0, [r0], #-3658	; 0xe4a
 69c:	86038504 	strhi	r8, [r3], -r4, lsl #10
 6a0:	00018e02 	andeq	r8, r1, r2, lsl #28
 6a4:	00000014 	andeq	r0, r0, r4, lsl r0
 6a8:	00000678 	andeq	r0, r0, r8, ror r6
 6ac:	00009da8 	andeq	r9, r0, r8, lsr #27
 6b0:	00000010 	andeq	r0, r0, r0, lsl r0
 6b4:	84080e42 	strhi	r0, [r8], #-3650	; 0xe42
 6b8:	00018e02 	andeq	r8, r1, r2, lsl #28
 6bc:	00000014 	andeq	r0, r0, r4, lsl r0
 6c0:	00000678 	andeq	r0, r0, r8, ror r6
 6c4:	00009db8 			; <UNDEFINED> instruction: 0x00009db8
 6c8:	00000024 	andeq	r0, r0, r4, lsr #32
 6cc:	84080e46 	strhi	r0, [r8], #-3654	; 0xe46
 6d0:	00018e02 	andeq	r8, r1, r2, lsl #28
 6d4:	00000014 	andeq	r0, r0, r4, lsl r0
 6d8:	00000678 	andeq	r0, r0, r8, ror r6
 6dc:	00009ddc 	ldrdeq	r9, [r0], -ip
 6e0:	00000024 	andeq	r0, r0, r4, lsr #32
 6e4:	84080e46 	strhi	r0, [r8], #-3654	; 0xe46
 6e8:	00018e02 	andeq	r8, r1, r2, lsl #28
 6ec:	00000014 	andeq	r0, r0, r4, lsl r0
 6f0:	00000678 	andeq	r0, r0, r8, ror r6
 6f4:	00009e00 	andeq	r9, r0, r0, lsl #28
 6f8:	00000010 	andeq	r0, r0, r0, lsl r0
 6fc:	84080e42 	strhi	r0, [r8], #-3650	; 0xe42
 700:	00018e02 	andeq	r8, r1, r2, lsl #28
 704:	00000014 	andeq	r0, r0, r4, lsl r0
 708:	00000678 	andeq	r0, r0, r8, ror r6
 70c:	00009e10 	andeq	r9, r0, r0, lsl lr
 710:	0000001c 	andeq	r0, r0, ip, lsl r0
 714:	84080e42 	strhi	r0, [r8], #-3650	; 0xe42
 718:	00018e02 	andeq	r8, r1, r2, lsl #28
 71c:	00000018 	andeq	r0, r0, r8, lsl r0
 720:	00000678 	andeq	r0, r0, r8, ror r6
 724:	00009e2c 	andeq	r9, r0, ip, lsr #28
 728:	00000034 	andeq	r0, r0, r4, lsr r0
 72c:	84080e46 	strhi	r0, [r8], #-3654	; 0xe46
 730:	4e018e02 	cdpmi	14, 0, cr8, cr1, cr2, {0}
 734:	cec4000e 	cdpgt	0, 12, cr0, cr4, cr14, {0}
