
tests2.0/16-part2-test9.elf:     file format elf32-littlearm


Disassembly of section .text:

00008000 <__code_start__>:
    8000:	e3a00013 	mov	r0, #19
    8004:	e129f000 	msr	CPSR_fc, r0
    8008:	e3a01000 	mov	r1, #0
    800c:	ee073f95 	mcr	15, 0, r3, cr7, cr5, {4}
    8010:	e3a0d302 	mov	sp, #134217728	; 0x8000000
    8014:	e3a0b000 	mov	fp, #0
    8018:	eb00063e 	bl	9918 <_cstart>
    801c:	eb0006a6 	bl	9abc <rpi_reboot>

00008020 <mode_get>:
    8020:	e52de004 	push	{lr}		; (str lr, [sp, #-4]!)
    8024:	e24dd00c 	sub	sp, sp, #12
    8028:	e200001f 	and	r0, r0, #31
    802c:	e3500012 	cmp	r0, #18
    8030:	13500010 	cmpne	r0, #16
    8034:	0a000006 	beq	8054 <mode_get+0x34>
    8038:	e3500017 	cmp	r0, #23
    803c:	13500013 	cmpne	r0, #19
    8040:	0a000005 	beq	805c <mode_get+0x3c>
    8044:	e350001f 	cmp	r0, #31
    8048:	1a000005 	bne	8064 <mode_get+0x44>
    804c:	e3a03001 	mov	r3, #1
    8050:	ea000004 	b	8068 <mode_get+0x48>
    8054:	e3a03001 	mov	r3, #1
    8058:	ea000002 	b	8068 <mode_get+0x48>
    805c:	e3a03001 	mov	r3, #1
    8060:	ea000000 	b	8068 <mode_get+0x48>
    8064:	e3a03000 	mov	r3, #0
    8068:	e3530000 	cmp	r3, #0
    806c:	1a000008 	bne	8094 <mode_get+0x74>
    8070:	eb0004a0 	bl	92f8 <rpi_reset_putc>
    8074:	e59f3020 	ldr	r3, [pc, #32]	; 809c <mode_get+0x7c>
    8078:	e58d3000 	str	r3, [sp]
    807c:	e59f001c 	ldr	r0, [pc, #28]	; 80a0 <mode_get+0x80>
    8080:	e59f101c 	ldr	r1, [pc, #28]	; 80a4 <mode_get+0x84>
    8084:	e59f201c 	ldr	r2, [pc, #28]	; 80a8 <mode_get+0x88>
    8088:	e3a03011 	mov	r3, #17
    808c:	eb00047e 	bl	928c <printk>
    8090:	eb000615 	bl	98ec <clean_reboot>
    8094:	e28dd00c 	add	sp, sp, #12
    8098:	e49df004 	pop	{pc}		; (ldr pc, [sp], #4)
    809c:	00009ec4 	andeq	r9, r0, r4, asr #29
    80a0:	00009ea0 	andeq	r9, r0, r0, lsr #29
    80a4:	00009eb4 			; <UNDEFINED> instruction: 0x00009eb4
    80a8:	0000a0e4 	andeq	sl, r0, r4, ror #1

000080ac <cnt_A>:
    80ac:	e92d4010 	push	{r4, lr}
    80b0:	e24dd008 	sub	sp, sp, #8
    80b4:	e1a04000 	mov	r4, r0
    80b8:	e59f0140 	ldr	r0, [pc, #320]	; 8200 <cnt_A+0x154>
    80bc:	eb000289 	bl	8ae8 <sys_try_lock_asm>
    80c0:	e3500000 	cmp	r0, #0
    80c4:	1a000006 	bne	80e4 <cnt_A+0x38>
    80c8:	eb00048a 	bl	92f8 <rpi_reset_putc>
    80cc:	e59f0130 	ldr	r0, [pc, #304]	; 8204 <cnt_A+0x158>
    80d0:	e59f1130 	ldr	r1, [pc, #304]	; 8208 <cnt_A+0x15c>
    80d4:	e59f2130 	ldr	r2, [pc, #304]	; 820c <cnt_A+0x160>
    80d8:	e3a0300d 	mov	r3, #13
    80dc:	eb00046a 	bl	928c <printk>
    80e0:	eb000601 	bl	98ec <clean_reboot>
    80e4:	e59f3124 	ldr	r3, [pc, #292]	; 8210 <cnt_A+0x164>
    80e8:	e5932000 	ldr	r2, [r3]
    80ec:	e2822001 	add	r2, r2, #1
    80f0:	e5832000 	str	r2, [r3]
    80f4:	e59f3104 	ldr	r3, [pc, #260]	; 8200 <cnt_A+0x154>
    80f8:	e5933000 	ldr	r3, [r3]
    80fc:	e3530001 	cmp	r3, #1
    8100:	0a000008 	beq	8128 <cnt_A+0x7c>
    8104:	eb00047b 	bl	92f8 <rpi_reset_putc>
    8108:	e59f3104 	ldr	r3, [pc, #260]	; 8214 <cnt_A+0x168>
    810c:	e58d3000 	str	r3, [sp]
    8110:	e59f0100 	ldr	r0, [pc, #256]	; 8218 <cnt_A+0x16c>
    8114:	e59f1100 	ldr	r1, [pc, #256]	; 821c <cnt_A+0x170>
    8118:	e59f2100 	ldr	r2, [pc, #256]	; 8220 <cnt_A+0x174>
    811c:	e3a03018 	mov	r3, #24
    8120:	eb000459 	bl	928c <printk>
    8124:	eb0005f0 	bl	98ec <clean_reboot>
    8128:	e3a02000 	mov	r2, #0
    812c:	e59f30cc 	ldr	r3, [pc, #204]	; 8200 <cnt_A+0x154>
    8130:	e5832000 	str	r2, [r3]
    8134:	e5943030 	ldr	r3, [r4, #48]	; 0x30
    8138:	e1530002 	cmp	r3, r2
    813c:	0a00001f 	beq	81c0 <cnt_A+0x114>
    8140:	e10f3000 	mrs	r3, CPSR
    8144:	e203301f 	and	r3, r3, #31
    8148:	e3530012 	cmp	r3, #18
    814c:	13530010 	cmpne	r3, #16
    8150:	0a000006 	beq	8170 <cnt_A+0xc4>
    8154:	e3530017 	cmp	r3, #23
    8158:	13530013 	cmpne	r3, #19
    815c:	0a000005 	beq	8178 <cnt_A+0xcc>
    8160:	e353001f 	cmp	r3, #31
    8164:	1a000005 	bne	8180 <cnt_A+0xd4>
    8168:	e3a02001 	mov	r2, #1
    816c:	ea000004 	b	8184 <cnt_A+0xd8>
    8170:	e3a02001 	mov	r2, #1
    8174:	ea000002 	b	8184 <cnt_A+0xd8>
    8178:	e3a02001 	mov	r2, #1
    817c:	ea000000 	b	8184 <cnt_A+0xd8>
    8180:	e3a02000 	mov	r2, #0
    8184:	e3520000 	cmp	r2, #0
    8188:	1a000008 	bne	81b0 <cnt_A+0x104>
    818c:	eb000459 	bl	92f8 <rpi_reset_putc>
    8190:	e59f308c 	ldr	r3, [pc, #140]	; 8224 <cnt_A+0x178>
    8194:	e58d3000 	str	r3, [sp]
    8198:	e59f0078 	ldr	r0, [pc, #120]	; 8218 <cnt_A+0x16c>
    819c:	e59f1084 	ldr	r1, [pc, #132]	; 8228 <cnt_A+0x17c>
    81a0:	e59f2084 	ldr	r2, [pc, #132]	; 822c <cnt_A+0x180>
    81a4:	e3a03011 	mov	r3, #17
    81a8:	eb000437 	bl	928c <printk>
    81ac:	eb0005ce 	bl	98ec <clean_reboot>
    81b0:	e3530010 	cmp	r3, #16
    81b4:	0a000003 	beq	81c8 <cnt_A+0x11c>
    81b8:	e3a03000 	mov	r3, #0
    81bc:	ea000002 	b	81cc <cnt_A+0x120>
    81c0:	e3a03001 	mov	r3, #1
    81c4:	ea000000 	b	81cc <cnt_A+0x120>
    81c8:	e3a03001 	mov	r3, #1
    81cc:	e3530000 	cmp	r3, #0
    81d0:	1a000008 	bne	81f8 <cnt_A+0x14c>
    81d4:	eb000447 	bl	92f8 <rpi_reset_putc>
    81d8:	e59f3050 	ldr	r3, [pc, #80]	; 8230 <cnt_A+0x184>
    81dc:	e58d3000 	str	r3, [sp]
    81e0:	e59f0030 	ldr	r0, [pc, #48]	; 8218 <cnt_A+0x16c>
    81e4:	e59f101c 	ldr	r1, [pc, #28]	; 8208 <cnt_A+0x15c>
    81e8:	e59f201c 	ldr	r2, [pc, #28]	; 820c <cnt_A+0x160>
    81ec:	e3a03010 	mov	r3, #16
    81f0:	eb000425 	bl	928c <printk>
    81f4:	eb0005bc 	bl	98ec <clean_reboot>
    81f8:	e28dd008 	add	sp, sp, #8
    81fc:	e8bd8010 	pop	{r4, pc}
    8200:	0000a778 	andeq	sl, r0, r8, ror r7
    8204:	00009ed8 	ldrdeq	r9, [r0], -r8
    8208:	00009ef4 	strdeq	r9, [r0], -r4
    820c:	0000a0dc 	ldrdeq	sl, [r0], -ip
    8210:	0000a774 	andeq	sl, r0, r4, ror r7
    8214:	00009f20 	andeq	r9, r0, r0, lsr #30
    8218:	00009ea0 	andeq	r9, r0, r0, lsr #29
    821c:	00009f10 	andeq	r9, r0, r0, lsl pc
    8220:	0000a0d0 	ldrdeq	sl, [r0], -r0
    8224:	00009ec4 	andeq	r9, r0, r4, asr #29
    8228:	00009eb4 			; <UNDEFINED> instruction: 0x00009eb4
    822c:	0000a0e4 	andeq	sl, r0, r4, ror #1
    8230:	00009f28 	andeq	r9, r0, r8, lsr #30

00008234 <cnt_B>:
    8234:	e52de004 	push	{lr}		; (str lr, [sp, #-4]!)
    8238:	e24dd00c 	sub	sp, sp, #12
    823c:	e59f0060 	ldr	r0, [pc, #96]	; 82a4 <cnt_B+0x70>
    8240:	eb000228 	bl	8ae8 <sys_try_lock_asm>
    8244:	e3500000 	cmp	r0, #0
    8248:	0a000013 	beq	829c <cnt_B+0x68>
    824c:	e59f3054 	ldr	r3, [pc, #84]	; 82a8 <cnt_B+0x74>
    8250:	e5932000 	ldr	r2, [r3]
    8254:	e2822001 	add	r2, r2, #1
    8258:	e5832000 	str	r2, [r3]
    825c:	e59f3040 	ldr	r3, [pc, #64]	; 82a4 <cnt_B+0x70>
    8260:	e5930000 	ldr	r0, [r3]
    8264:	e3500001 	cmp	r0, #1
    8268:	0a000008 	beq	8290 <cnt_B+0x5c>
    826c:	eb000421 	bl	92f8 <rpi_reset_putc>
    8270:	e59f3034 	ldr	r3, [pc, #52]	; 82ac <cnt_B+0x78>
    8274:	e58d3000 	str	r3, [sp]
    8278:	e59f0030 	ldr	r0, [pc, #48]	; 82b0 <cnt_B+0x7c>
    827c:	e59f1030 	ldr	r1, [pc, #48]	; 82b4 <cnt_B+0x80>
    8280:	e59f2030 	ldr	r2, [pc, #48]	; 82b8 <cnt_B+0x84>
    8284:	e3a03018 	mov	r3, #24
    8288:	eb0003ff 	bl	928c <printk>
    828c:	eb000596 	bl	98ec <clean_reboot>
    8290:	e3a02000 	mov	r2, #0
    8294:	e59f3008 	ldr	r3, [pc, #8]	; 82a4 <cnt_B+0x70>
    8298:	e5832000 	str	r2, [r3]
    829c:	e28dd00c 	add	sp, sp, #12
    82a0:	e49df004 	pop	{pc}		; (ldr pc, [sp], #4)
    82a4:	0000a778 	andeq	sl, r0, r8, ror r7
    82a8:	0000a774 	andeq	sl, r0, r4, ror r7
    82ac:	00009f20 	andeq	r9, r0, r0, lsr #30
    82b0:	00009ea0 	andeq	r9, r0, r0, lsr #29
    82b4:	00009f10 	andeq	r9, r0, r0, lsl pc
    82b8:	0000a0d0 	ldrdeq	sl, [r0], -r0

000082bc <cnt_init>:
    82bc:	e3a03000 	mov	r3, #0
    82c0:	e59f200c 	ldr	r2, [pc, #12]	; 82d4 <cnt_init+0x18>
    82c4:	e5823000 	str	r3, [r2]
    82c8:	e59f2008 	ldr	r2, [pc, #8]	; 82d8 <cnt_init+0x1c>
    82cc:	e5823000 	str	r3, [r2]
    82d0:	e12fff1e 	bx	lr
    82d4:	0000a774 	andeq	sl, r0, r4, ror r7
    82d8:	0000a778 	andeq	sl, r0, r8, ror r7

000082dc <cnt_check>:
    82dc:	e52de004 	push	{lr}		; (str lr, [sp, #-4]!)
    82e0:	e24dd00c 	sub	sp, sp, #12
    82e4:	e59f3048 	ldr	r3, [pc, #72]	; 8334 <cnt_check+0x58>
    82e8:	e5933000 	ldr	r3, [r3]
    82ec:	e3530002 	cmp	r3, #2
    82f0:	0a000008 	beq	8318 <cnt_check+0x3c>
    82f4:	eb0003ff 	bl	92f8 <rpi_reset_putc>
    82f8:	e59f3038 	ldr	r3, [pc, #56]	; 8338 <cnt_check+0x5c>
    82fc:	e58d3000 	str	r3, [sp]
    8300:	e59f0034 	ldr	r0, [pc, #52]	; 833c <cnt_check+0x60>
    8304:	e59f1034 	ldr	r1, [pc, #52]	; 8340 <cnt_check+0x64>
    8308:	e59f2034 	ldr	r2, [pc, #52]	; 8344 <cnt_check+0x68>
    830c:	e3a03021 	mov	r3, #33	; 0x21
    8310:	eb0003dd 	bl	928c <printk>
    8314:	eb000574 	bl	98ec <clean_reboot>
    8318:	e59f3014 	ldr	r3, [pc, #20]	; 8334 <cnt_check+0x58>
    831c:	e5930000 	ldr	r0, [r3]
    8320:	e3500002 	cmp	r0, #2
    8324:	13a00000 	movne	r0, #0
    8328:	03a00001 	moveq	r0, #1
    832c:	e28dd00c 	add	sp, sp, #12
    8330:	e49df004 	pop	{pc}		; (ldr pc, [sp], #4)
    8334:	0000a774 	andeq	sl, r0, r4, ror r7
    8338:	00009f60 	andeq	r9, r0, r0, ror #30
    833c:	00009ea0 	andeq	r9, r0, r0, lsr #29
    8340:	00009ef4 	strdeq	r9, [r0], -r4
    8344:	0000a0c4 	andeq	sl, r0, r4, asr #1

00008348 <cnt_mk_checker>:
    8348:	e1a03000 	mov	r3, r0
    834c:	e3a02000 	mov	r2, #0
    8350:	e4832004 	str	r2, [r3], #4
    8354:	e2833008 	add	r3, r3, #8
    8358:	e4832004 	str	r2, [r3], #4
    835c:	e4832004 	str	r2, [r3], #4
    8360:	e4832004 	str	r2, [r3], #4
    8364:	e4832004 	str	r2, [r3], #4
    8368:	e4832004 	str	r2, [r3], #4
    836c:	e4832004 	str	r2, [r3], #4
    8370:	e4832004 	str	r2, [r3], #4
    8374:	e4832004 	str	r2, [r3], #4
    8378:	e4832004 	str	r2, [r3], #4
    837c:	e4832004 	str	r2, [r3], #4
    8380:	e5832000 	str	r2, [r3]
    8384:	e59f301c 	ldr	r3, [pc, #28]	; 83a8 <cnt_mk_checker+0x60>
    8388:	e5803004 	str	r3, [r0, #4]
    838c:	e59f3018 	ldr	r3, [pc, #24]	; 83ac <cnt_mk_checker+0x64>
    8390:	e5803008 	str	r3, [r0, #8]
    8394:	e59f3014 	ldr	r3, [pc, #20]	; 83b0 <cnt_mk_checker+0x68>
    8398:	e580300c 	str	r3, [r0, #12]
    839c:	e59f3010 	ldr	r3, [pc, #16]	; 83b4 <cnt_mk_checker+0x6c>
    83a0:	e5803010 	str	r3, [r0, #16]
    83a4:	e12fff1e 	bx	lr
    83a8:	000080ac 	andeq	r8, r0, ip, lsr #1
    83ac:	00008234 	andeq	r8, r0, r4, lsr r2
    83b0:	000082bc 			; <UNDEFINED> instruction: 0x000082bc
    83b4:	000082dc 	ldrdeq	r8, [r0], -ip

000083b8 <notmain>:
    83b8:	e92d4070 	push	{r4, r5, r6, lr}
    83bc:	e24dd040 	sub	sp, sp, #64	; 0x40
    83c0:	eb000541 	bl	98cc <enable_cache>
    83c4:	eb000596 	bl	9a24 <int_init>
    83c8:	e10f4000 	mrs	r4, CPSR
    83cc:	e1a00004 	mov	r0, r4
    83d0:	ebffff12 	bl	8020 <mode_get>
    83d4:	e2400010 	sub	r0, r0, #16
    83d8:	e350000f 	cmp	r0, #15
    83dc:	979ff100 	ldrls	pc, [pc, r0, lsl #2]
    83e0:	ea000019 	b	844c <notmain+0x94>
    83e4:	0000846c 	andeq	r8, r0, ip, ror #8
    83e8:	00008474 	andeq	r8, r0, r4, ror r4
    83ec:	00008424 	andeq	r8, r0, r4, lsr #8
    83f0:	0000842c 	andeq	r8, r0, ip, lsr #8
    83f4:	0000844c 	andeq	r8, r0, ip, asr #8
    83f8:	0000844c 	andeq	r8, r0, ip, asr #8
    83fc:	0000844c 	andeq	r8, r0, ip, asr #8
    8400:	00008434 	andeq	r8, r0, r4, lsr r4
    8404:	0000844c 	andeq	r8, r0, ip, asr #8
    8408:	0000844c 	andeq	r8, r0, ip, asr #8
    840c:	0000844c 	andeq	r8, r0, ip, asr #8
    8410:	0000843c 	andeq	r8, r0, ip, lsr r4
    8414:	0000844c 	andeq	r8, r0, ip, asr #8
    8418:	0000844c 	andeq	r8, r0, ip, asr #8
    841c:	0000844c 	andeq	r8, r0, ip, asr #8
    8420:	00008444 	andeq	r8, r0, r4, asr #8
    8424:	e59f11d0 	ldr	r1, [pc, #464]	; 85fc <notmain+0x244>
    8428:	ea000012 	b	8478 <notmain+0xc0>
    842c:	e59f11cc 	ldr	r1, [pc, #460]	; 8600 <notmain+0x248>
    8430:	ea000010 	b	8478 <notmain+0xc0>
    8434:	e59f11c8 	ldr	r1, [pc, #456]	; 8604 <notmain+0x24c>
    8438:	ea00000e 	b	8478 <notmain+0xc0>
    843c:	e59f11c4 	ldr	r1, [pc, #452]	; 8608 <notmain+0x250>
    8440:	ea00000c 	b	8478 <notmain+0xc0>
    8444:	e59f11c0 	ldr	r1, [pc, #448]	; 860c <notmain+0x254>
    8448:	ea00000a 	b	8478 <notmain+0xc0>
    844c:	eb0003a9 	bl	92f8 <rpi_reset_putc>
    8450:	e58d4000 	str	r4, [sp]
    8454:	e59f01b4 	ldr	r0, [pc, #436]	; 8610 <notmain+0x258>
    8458:	e59f11b4 	ldr	r1, [pc, #436]	; 8614 <notmain+0x25c>
    845c:	e59f21b4 	ldr	r2, [pc, #436]	; 8618 <notmain+0x260>
    8460:	e3a03021 	mov	r3, #33	; 0x21
    8464:	eb000388 	bl	928c <printk>
    8468:	eb00051f 	bl	98ec <clean_reboot>
    846c:	e59f11a8 	ldr	r1, [pc, #424]	; 861c <notmain+0x264>
    8470:	ea000000 	b	8478 <notmain+0xc0>
    8474:	e59f11a4 	ldr	r1, [pc, #420]	; 8620 <notmain+0x268>
    8478:	e59f01a4 	ldr	r0, [pc, #420]	; 8624 <notmain+0x26c>
    847c:	eb000382 	bl	928c <printk>
    8480:	e59f01a0 	ldr	r0, [pc, #416]	; 8628 <notmain+0x270>
    8484:	e3a03000 	mov	r3, #0
    8488:	e5803000 	str	r3, [r0]
    848c:	eb000195 	bl	8ae8 <sys_try_lock_asm>
    8490:	e3500000 	cmp	r0, #0
    8494:	1a00003f 	bne	8598 <notmain+0x1e0>
    8498:	eb000396 	bl	92f8 <rpi_reset_putc>
    849c:	e59f3188 	ldr	r3, [pc, #392]	; 862c <notmain+0x274>
    84a0:	e58d3000 	str	r3, [sp]
    84a4:	e59f0184 	ldr	r0, [pc, #388]	; 8630 <notmain+0x278>
    84a8:	e59f1184 	ldr	r1, [pc, #388]	; 8634 <notmain+0x27c>
    84ac:	e59f2184 	ldr	r2, [pc, #388]	; 8638 <notmain+0x280>
    84b0:	e3a03038 	mov	r3, #56	; 0x38
    84b4:	eb000374 	bl	928c <printk>
    84b8:	eb00050b 	bl	98ec <clean_reboot>
    84bc:	e5846000 	str	r6, [r4]
    84c0:	e1a00004 	mov	r0, r4
    84c4:	eb000187 	bl	8ae8 <sys_try_lock_asm>
    84c8:	e3500000 	cmp	r0, #0
    84cc:	1a000008 	bne	84f4 <notmain+0x13c>
    84d0:	eb000388 	bl	92f8 <rpi_reset_putc>
    84d4:	e59f3150 	ldr	r3, [pc, #336]	; 862c <notmain+0x274>
    84d8:	e58d3000 	str	r3, [sp]
    84dc:	e59f014c 	ldr	r0, [pc, #332]	; 8630 <notmain+0x278>
    84e0:	e59f114c 	ldr	r1, [pc, #332]	; 8634 <notmain+0x27c>
    84e4:	e59f214c 	ldr	r2, [pc, #332]	; 8638 <notmain+0x280>
    84e8:	e3a0303b 	mov	r3, #59	; 0x3b
    84ec:	eb000366 	bl	928c <printk>
    84f0:	eb0004fd 	bl	98ec <clean_reboot>
    84f4:	e1a00004 	mov	r0, r4
    84f8:	eb00017a 	bl	8ae8 <sys_try_lock_asm>
    84fc:	e3500000 	cmp	r0, #0
    8500:	0a000008 	beq	8528 <notmain+0x170>
    8504:	eb00037b 	bl	92f8 <rpi_reset_putc>
    8508:	e59f312c 	ldr	r3, [pc, #300]	; 863c <notmain+0x284>
    850c:	e58d3000 	str	r3, [sp]
    8510:	e59f0118 	ldr	r0, [pc, #280]	; 8630 <notmain+0x278>
    8514:	e59f1118 	ldr	r1, [pc, #280]	; 8634 <notmain+0x27c>
    8518:	e59f2118 	ldr	r2, [pc, #280]	; 8638 <notmain+0x280>
    851c:	e3a0303c 	mov	r3, #60	; 0x3c
    8520:	eb000359 	bl	928c <printk>
    8524:	eb0004f0 	bl	98ec <clean_reboot>
    8528:	e5943000 	ldr	r3, [r4]
    852c:	e3530001 	cmp	r3, #1
    8530:	0a000008 	beq	8558 <notmain+0x1a0>
    8534:	eb00036f 	bl	92f8 <rpi_reset_putc>
    8538:	e59f3100 	ldr	r3, [pc, #256]	; 8640 <notmain+0x288>
    853c:	e58d3000 	str	r3, [sp]
    8540:	e59f00e8 	ldr	r0, [pc, #232]	; 8630 <notmain+0x278>
    8544:	e59f10f8 	ldr	r1, [pc, #248]	; 8644 <notmain+0x28c>
    8548:	e59f20f8 	ldr	r2, [pc, #248]	; 8648 <notmain+0x290>
    854c:	e3a03018 	mov	r3, #24
    8550:	eb00034d 	bl	928c <printk>
    8554:	eb0004e4 	bl	98ec <clean_reboot>
    8558:	e5846000 	str	r6, [r4]
    855c:	e1a00004 	mov	r0, r4
    8560:	eb000160 	bl	8ae8 <sys_try_lock_asm>
    8564:	e3500000 	cmp	r0, #0
    8568:	1a000008 	bne	8590 <notmain+0x1d8>
    856c:	eb000361 	bl	92f8 <rpi_reset_putc>
    8570:	e59f30b4 	ldr	r3, [pc, #180]	; 862c <notmain+0x274>
    8574:	e58d3000 	str	r3, [sp]
    8578:	e59f00b0 	ldr	r0, [pc, #176]	; 8630 <notmain+0x278>
    857c:	e59f10b0 	ldr	r1, [pc, #176]	; 8634 <notmain+0x27c>
    8580:	e59f20b0 	ldr	r2, [pc, #176]	; 8638 <notmain+0x280>
    8584:	e3a0303e 	mov	r3, #62	; 0x3e
    8588:	eb00033f 	bl	928c <printk>
    858c:	eb0004d6 	bl	98ec <clean_reboot>
    8590:	e2855001 	add	r5, r5, #1
    8594:	ea000002 	b	85a4 <notmain+0x1ec>
    8598:	e3a05000 	mov	r5, #0
    859c:	e59f4084 	ldr	r4, [pc, #132]	; 8628 <notmain+0x270>
    85a0:	e1a06005 	mov	r6, r5
    85a4:	e3550063 	cmp	r5, #99	; 0x63
    85a8:	daffffc3 	ble	84bc <notmain+0x104>
    85ac:	e28d0008 	add	r0, sp, #8
    85b0:	ebffff64 	bl	8348 <cnt_mk_checker>
    85b4:	e28d0008 	add	r0, sp, #8
    85b8:	eb000320 	bl	9240 <check>
    85bc:	e3500000 	cmp	r0, #0
    85c0:	1a000006 	bne	85e0 <notmain+0x228>
    85c4:	eb00034b 	bl	92f8 <rpi_reset_putc>
    85c8:	e59f007c 	ldr	r0, [pc, #124]	; 864c <notmain+0x294>
    85cc:	e59f1060 	ldr	r1, [pc, #96]	; 8634 <notmain+0x27c>
    85d0:	e59f2060 	ldr	r2, [pc, #96]	; 8638 <notmain+0x280>
    85d4:	e3a03044 	mov	r3, #68	; 0x44
    85d8:	eb00032b 	bl	928c <printk>
    85dc:	eb0004c2 	bl	98ec <clean_reboot>
    85e0:	e59f0068 	ldr	r0, [pc, #104]	; 8650 <notmain+0x298>
    85e4:	eb000328 	bl	928c <printk>
    85e8:	e59f0064 	ldr	r0, [pc, #100]	; 8654 <notmain+0x29c>
    85ec:	e59d1030 	ldr	r1, [sp, #48]	; 0x30
    85f0:	e59d2034 	ldr	r2, [sp, #52]	; 0x34
    85f4:	eb000324 	bl	928c <printk>
    85f8:	eb0004bb 	bl	98ec <clean_reboot>
    85fc:	00009f80 	andeq	r9, r0, r0, lsl #31
    8600:	00009f8c 	andeq	r9, r0, ip, lsl #31
    8604:	00009f98 	muleq	r0, r8, pc	; <UNPREDICTABLE>
    8608:	00009fa4 	andeq	r9, r0, r4, lsr #31
    860c:	00009fb0 			; <UNDEFINED> instruction: 0x00009fb0
    8610:	00009fbc 			; <UNDEFINED> instruction: 0x00009fbc
    8614:	00009eb4 			; <UNDEFINED> instruction: 0x00009eb4
    8618:	0000a104 	andeq	sl, r0, r4, lsl #2
    861c:	00009f68 	andeq	r9, r0, r8, ror #30
    8620:	00009f74 	andeq	r9, r0, r4, ror pc
    8624:	00009fe0 	andeq	r9, r0, r0, ror #31
    8628:	0000a778 	andeq	sl, r0, r8, ror r7
    862c:	00009fec 	andeq	r9, r0, ip, ror #31
    8630:	00009ea0 	andeq	r9, r0, r0, lsr #29
    8634:	00009ef4 	strdeq	r9, [r0], -r4
    8638:	0000a0fc 	strdeq	sl, [r0], -ip
    863c:	0000a000 	andeq	sl, r0, r0
    8640:	00009f20 	andeq	r9, r0, r0, lsr #30
    8644:	00009f10 	andeq	r9, r0, r0, lsl pc
    8648:	0000a0d0 	ldrdeq	sl, [r0], -r0
    864c:	0000a014 	andeq	sl, r0, r4, lsl r0
    8650:	0000a044 	andeq	sl, r0, r4, asr #32
    8654:	0000a050 	andeq	sl, r0, r0, asr r0

00008658 <watchpt_set0>:
    8658:	e52de004 	push	{lr}		; (str lr, [sp, #-4]!)
    865c:	e24dd00c 	sub	sp, sp, #12
    8660:	ee103ef0 	mrc	14, 0, r3, cr0, cr0, {7}
    8664:	e3c33001 	bic	r3, r3, #1
    8668:	ee003ef0 	mcr	14, 0, r3, cr0, cr0, {7}
    866c:	ee102ef0 	mrc	14, 0, r2, cr0, cr0, {7}
    8670:	e1530002 	cmp	r3, r2
    8674:	0a000008 	beq	869c <watchpt_set0+0x44>
    8678:	eb00031e 	bl	92f8 <rpi_reset_putc>
    867c:	e59f306c 	ldr	r3, [pc, #108]	; 86f0 <watchpt_set0+0x98>
    8680:	e58d3000 	str	r3, [sp]
    8684:	e59f0068 	ldr	r0, [pc, #104]	; 86f4 <watchpt_set0+0x9c>
    8688:	e59f1068 	ldr	r1, [pc, #104]	; 86f8 <watchpt_set0+0xa0>
    868c:	e59f2068 	ldr	r2, [pc, #104]	; 86fc <watchpt_set0+0xa4>
    8690:	e3a03041 	mov	r3, #65	; 0x41
    8694:	eb0002fc 	bl	928c <printk>
    8698:	eb000493 	bl	98ec <clean_reboot>
    869c:	ee000ed0 	mcr	14, 0, r0, cr0, cr0, {6}
    86a0:	e59f3058 	ldr	r3, [pc, #88]	; 8700 <watchpt_set0+0xa8>
    86a4:	ee003ef0 	mcr	14, 0, r3, cr0, cr0, {7}
    86a8:	ee102ef0 	mrc	14, 0, r2, cr0, cr0, {7}
    86ac:	e1520003 	cmp	r2, r3
    86b0:	0a000008 	beq	86d8 <watchpt_set0+0x80>
    86b4:	eb00030f 	bl	92f8 <rpi_reset_putc>
    86b8:	e59f3030 	ldr	r3, [pc, #48]	; 86f0 <watchpt_set0+0x98>
    86bc:	e58d3000 	str	r3, [sp]
    86c0:	e59f002c 	ldr	r0, [pc, #44]	; 86f4 <watchpt_set0+0x9c>
    86c4:	e59f102c 	ldr	r1, [pc, #44]	; 86f8 <watchpt_set0+0xa0>
    86c8:	e59f202c 	ldr	r2, [pc, #44]	; 86fc <watchpt_set0+0xa4>
    86cc:	e3a03052 	mov	r3, #82	; 0x52
    86d0:	eb0002ed 	bl	928c <printk>
    86d4:	eb000484 	bl	98ec <clean_reboot>
    86d8:	e3a03000 	mov	r3, #0
    86dc:	ee073f95 	mcr	15, 0, r3, cr7, cr5, {4}
    86e0:	e59f301c 	ldr	r3, [pc, #28]	; 8704 <watchpt_set0+0xac>
    86e4:	e5831000 	str	r1, [r3]
    86e8:	e28dd00c 	add	sp, sp, #12
    86ec:	e49df004 	pop	{pc}		; (ldr pc, [sp], #4)
    86f0:	0000a120 	andeq	sl, r0, r0, lsr #2
    86f4:	00009ea0 	andeq	r9, r0, r0, lsr #29
    86f8:	0000a110 	andeq	sl, r0, r0, lsl r1
    86fc:	0000a238 	andeq	sl, r0, r8, lsr r2
    8700:	000001ff 	strdeq	r0, [r0], -pc	; <UNPREDICTABLE>
    8704:	0000a77c 	andeq	sl, r0, ip, ror r7

00008708 <data_abort_vector>:
    8708:	e52de004 	push	{lr}		; (str lr, [sp, #-4]!)
    870c:	e24dd00c 	sub	sp, sp, #12
    8710:	e1a01000 	mov	r1, r0
    8714:	ee153f10 	mrc	15, 0, r3, cr5, cr0, {0}
    8718:	ee153f10 	mrc	15, 0, r3, cr5, cr0, {0}
    871c:	e203300f 	and	r3, r3, #15
    8720:	e3530002 	cmp	r3, #2
    8724:	0a000006 	beq	8744 <data_abort_vector+0x3c>
    8728:	eb0002f2 	bl	92f8 <rpi_reset_putc>
    872c:	e59f008c 	ldr	r0, [pc, #140]	; 87c0 <data_abort_vector+0xb8>
    8730:	e59f108c 	ldr	r1, [pc, #140]	; 87c4 <data_abort_vector+0xbc>
    8734:	e59f208c 	ldr	r2, [pc, #140]	; 87c8 <data_abort_vector+0xc0>
    8738:	e3a03079 	mov	r3, #121	; 0x79
    873c:	eb0002d2 	bl	928c <printk>
    8740:	eb000469 	bl	98ec <clean_reboot>
    8744:	ee103e16 	mrc	14, 0, r3, cr0, cr6, {0}
    8748:	e2433004 	sub	r3, r3, #4
    874c:	e1530000 	cmp	r3, r0
    8750:	0a000008 	beq	8778 <data_abort_vector+0x70>
    8754:	eb0002e7 	bl	92f8 <rpi_reset_putc>
    8758:	e59f306c 	ldr	r3, [pc, #108]	; 87cc <data_abort_vector+0xc4>
    875c:	e58d3000 	str	r3, [sp]
    8760:	e59f0068 	ldr	r0, [pc, #104]	; 87d0 <data_abort_vector+0xc8>
    8764:	e59f1068 	ldr	r1, [pc, #104]	; 87d4 <data_abort_vector+0xcc>
    8768:	e59f2068 	ldr	r2, [pc, #104]	; 87d8 <data_abort_vector+0xd0>
    876c:	e3a03067 	mov	r3, #103	; 0x67
    8770:	eb0002c5 	bl	928c <printk>
    8774:	eb00045c 	bl	98ec <clean_reboot>
    8778:	e59f305c 	ldr	r3, [pc, #92]	; 87dc <data_abort_vector+0xd4>
    877c:	e5933000 	ldr	r3, [r3]
    8780:	e3530000 	cmp	r3, #0
    8784:	1a000008 	bne	87ac <data_abort_vector+0xa4>
    8788:	eb0002da 	bl	92f8 <rpi_reset_putc>
    878c:	e59f304c 	ldr	r3, [pc, #76]	; 87e0 <data_abort_vector+0xd8>
    8790:	e58d3000 	str	r3, [sp]
    8794:	e59f0034 	ldr	r0, [pc, #52]	; 87d0 <data_abort_vector+0xc8>
    8798:	e59f1034 	ldr	r1, [pc, #52]	; 87d4 <data_abort_vector+0xcc>
    879c:	e59f2034 	ldr	r2, [pc, #52]	; 87d8 <data_abort_vector+0xd0>
    87a0:	e3a03069 	mov	r3, #105	; 0x69
    87a4:	eb0002b8 	bl	928c <printk>
    87a8:	eb00044f 	bl	98ec <clean_reboot>
    87ac:	ee162f10 	mrc	15, 0, r2, cr6, cr0, {0}
    87b0:	e3a00000 	mov	r0, #0
    87b4:	e12fff33 	blx	r3
    87b8:	e28dd00c 	add	sp, sp, #12
    87bc:	e49df004 	pop	{pc}		; (ldr pc, [sp], #4)
    87c0:	0000a138 	andeq	sl, r0, r8, lsr r1
    87c4:	0000a170 	andeq	sl, r0, r0, ror r1
    87c8:	0000a25c 	andeq	sl, r0, ip, asr r2
    87cc:	0000a180 	andeq	sl, r0, r0, lsl #3
    87d0:	00009ea0 	andeq	r9, r0, r0, lsr #29
    87d4:	0000a110 	andeq	sl, r0, r0, lsl r1
    87d8:	0000a248 	andeq	sl, r0, r8, asr #4
    87dc:	0000a77c 	andeq	sl, r0, ip, ror r7
    87e0:	0000a194 	muleq	r0, r4, r1

000087e4 <cp14_enable>:
    87e4:	e92d4008 	push	{r3, lr}
    87e8:	e59f302c 	ldr	r3, [pc, #44]	; 881c <cp14_enable+0x38>
    87ec:	e5933000 	ldr	r3, [r3]
    87f0:	e3530000 	cmp	r3, #0
    87f4:	1a000003 	bne	8808 <cp14_enable+0x24>
    87f8:	eb000489 	bl	9a24 <int_init>
    87fc:	e3a02001 	mov	r2, #1
    8800:	e59f3014 	ldr	r3, [pc, #20]	; 881c <cp14_enable+0x38>
    8804:	e5832000 	str	r2, [r3]
    8808:	e3a03902 	mov	r3, #32768	; 0x8000
    880c:	ee003e11 	mcr	14, 0, r3, cr0, cr1, {0}
    8810:	e3a03000 	mov	r3, #0
    8814:	ee073f95 	mcr	15, 0, r3, cr7, cr5, {4}
    8818:	e8bd8008 	pop	{r3, pc}
    881c:	0000a78c 	andeq	sl, r0, ip, lsl #15

00008820 <brkpt_set0>:
    8820:	ee103eb0 	mrc	14, 0, r3, cr0, cr0, {5}
    8824:	e3c33001 	bic	r3, r3, #1
    8828:	ee003eb0 	mcr	14, 0, r3, cr0, cr0, {5}
    882c:	ee000e90 	mcr	14, 0, r0, cr0, cr0, {4}
    8830:	e59f3014 	ldr	r3, [pc, #20]	; 884c <brkpt_set0+0x2c>
    8834:	ee003eb0 	mcr	14, 0, r3, cr0, cr0, {5}
    8838:	e3a03000 	mov	r3, #0
    883c:	ee073f95 	mcr	15, 0, r3, cr7, cr5, {4}
    8840:	e59f3008 	ldr	r3, [pc, #8]	; 8850 <brkpt_set0+0x30>
    8844:	e5831000 	str	r1, [r3]
    8848:	e12fff1e 	bx	lr
    884c:	000001e7 	andeq	r0, r0, r7, ror #3
    8850:	0000a780 	andeq	sl, r0, r0, lsl #15

00008854 <prefetch_abort_vector>:
    8854:	e52de004 	push	{lr}		; (str lr, [sp, #-4]!)
    8858:	e24dd00c 	sub	sp, sp, #12
    885c:	e1a01000 	mov	r1, r0
    8860:	ee153f30 	mrc	15, 0, r3, cr5, cr0, {1}
    8864:	e203300f 	and	r3, r3, #15
    8868:	e3530002 	cmp	r3, #2
    886c:	0a000006 	beq	888c <prefetch_abort_vector+0x38>
    8870:	eb0002a0 	bl	92f8 <rpi_reset_putc>
    8874:	e59f0058 	ldr	r0, [pc, #88]	; 88d4 <prefetch_abort_vector+0x80>
    8878:	e59f1058 	ldr	r1, [pc, #88]	; 88d8 <prefetch_abort_vector+0x84>
    887c:	e59f2058 	ldr	r2, [pc, #88]	; 88dc <prefetch_abort_vector+0x88>
    8880:	e3a030c7 	mov	r3, #199	; 0xc7
    8884:	eb000280 	bl	928c <printk>
    8888:	eb000417 	bl	98ec <clean_reboot>
    888c:	e59f304c 	ldr	r3, [pc, #76]	; 88e0 <prefetch_abort_vector+0x8c>
    8890:	e5933000 	ldr	r3, [r3]
    8894:	e3530000 	cmp	r3, #0
    8898:	1a000008 	bne	88c0 <prefetch_abort_vector+0x6c>
    889c:	eb000295 	bl	92f8 <rpi_reset_putc>
    88a0:	e59f303c 	ldr	r3, [pc, #60]	; 88e4 <prefetch_abort_vector+0x90>
    88a4:	e58d3000 	str	r3, [sp]
    88a8:	e59f0038 	ldr	r0, [pc, #56]	; 88e8 <prefetch_abort_vector+0x94>
    88ac:	e59f1024 	ldr	r1, [pc, #36]	; 88d8 <prefetch_abort_vector+0x84>
    88b0:	e59f2024 	ldr	r2, [pc, #36]	; 88dc <prefetch_abort_vector+0x88>
    88b4:	e3a030c8 	mov	r3, #200	; 0xc8
    88b8:	eb000273 	bl	928c <printk>
    88bc:	eb00040a 	bl	98ec <clean_reboot>
    88c0:	ee162f10 	mrc	15, 0, r2, cr6, cr0, {0}
    88c4:	e3a00000 	mov	r0, #0
    88c8:	e12fff33 	blx	r3
    88cc:	e28dd00c 	add	sp, sp, #12
    88d0:	e49df004 	pop	{pc}		; (ldr pc, [sp], #4)
    88d4:	0000a1a8 	andeq	sl, r0, r8, lsr #3
    88d8:	0000a110 	andeq	sl, r0, r0, lsl r1
    88dc:	0000a270 	andeq	sl, r0, r0, ror r2
    88e0:	0000a780 	andeq	sl, r0, r0, lsl #15
    88e4:	0000a1e0 	andeq	sl, r0, r0, ror #3
    88e8:	00009ea0 	andeq	r9, r0, r0, lsr #29

000088ec <interrupt_vector>:
    88ec:	e12fff1e 	bx	lr

000088f0 <brk_no_ret_error>:
    88f0:	e92d4008 	push	{r3, lr}
    88f4:	eb00027f 	bl	92f8 <rpi_reset_putc>
    88f8:	e59f0010 	ldr	r0, [pc, #16]	; 8910 <brk_no_ret_error+0x20>
    88fc:	e59f1010 	ldr	r1, [pc, #16]	; 8914 <brk_no_ret_error+0x24>
    8900:	e59f2010 	ldr	r2, [pc, #16]	; 8918 <brk_no_ret_error+0x28>
    8904:	e3a030d9 	mov	r3, #217	; 0xd9
    8908:	eb00025f 	bl	928c <printk>
    890c:	eb0003f6 	bl	98ec <clean_reboot>
    8910:	0000a1f0 	strdeq	sl, [r0], -r0
    8914:	0000a110 	andeq	sl, r0, r0, lsl r1
    8918:	0000a288 	andeq	sl, r0, r8, lsl #5

0000891c <brkpt_mismatch_set0>:
    891c:	ee103eb0 	mrc	14, 0, r3, cr0, cr0, {5}
    8920:	e3c33001 	bic	r3, r3, #1
    8924:	ee003eb0 	mcr	14, 0, r3, cr0, cr0, {5}
    8928:	ee000e90 	mcr	14, 0, r0, cr0, cr0, {4}
    892c:	e59f3014 	ldr	r3, [pc, #20]	; 8948 <brkpt_mismatch_set0+0x2c>
    8930:	ee003eb0 	mcr	14, 0, r3, cr0, cr0, {5}
    8934:	e3a03000 	mov	r3, #0
    8938:	ee073f95 	mcr	15, 0, r3, cr7, cr5, {4}
    893c:	e59f3008 	ldr	r3, [pc, #8]	; 894c <brkpt_mismatch_set0+0x30>
    8940:	e5831000 	str	r1, [r3]
    8944:	e12fff1e 	bx	lr
    8948:	004001e7 	subeq	r0, r0, r7, ror #3
    894c:	0000a780 	andeq	sl, r0, r0, lsl #15

00008950 <brkpt_mismatch_disable0>:
    8950:	e59f3004 	ldr	r3, [pc, #4]	; 895c <brkpt_mismatch_disable0+0xc>
    8954:	ee003eb0 	mcr	14, 0, r3, cr0, cr0, {5}
    8958:	e12fff1e 	bx	lr
    895c:	004001e6 	subeq	r0, r0, r6, ror #3

00008960 <syscall_vector>:
    8960:	e92d4008 	push	{r3, lr}
    8964:	e5903000 	ldr	r3, [r0]
    8968:	e3c334ff 	bic	r3, r3, #-16777216	; 0xff000000
    896c:	e3530001 	cmp	r3, #1
    8970:	1a000002 	bne	8980 <syscall_vector+0x20>
    8974:	e169f001 	msr	SPSR_fc, r1
    8978:	e3a00000 	mov	r0, #0
    897c:	e8bd8008 	pop	{r3, pc}
    8980:	e3530002 	cmp	r3, #2
    8984:	1a000005 	bne	89a0 <syscall_vector+0x40>
    8988:	e5913000 	ldr	r3, [r1]
    898c:	e3530000 	cmp	r3, #0
    8990:	1a000009 	bne	89bc <syscall_vector+0x5c>
    8994:	e3a00001 	mov	r0, #1
    8998:	e5810000 	str	r0, [r1]
    899c:	e8bd8008 	pop	{r3, pc}
    89a0:	e3530003 	cmp	r3, #3
    89a4:	0a000006 	beq	89c4 <syscall_vector+0x64>
    89a8:	e59f001c 	ldr	r0, [pc, #28]	; 89cc <syscall_vector+0x6c>
    89ac:	e1a01003 	mov	r1, r3
    89b0:	eb000235 	bl	928c <printk>
    89b4:	e3a00000 	mov	r0, #0
    89b8:	e8bd8008 	pop	{r3, pc}
    89bc:	e3a00000 	mov	r0, #0
    89c0:	e8bd8008 	pop	{r3, pc}
    89c4:	e3a00003 	mov	r0, #3
    89c8:	e8bd8008 	pop	{r3, pc}
    89cc:	0000a220 	andeq	sl, r0, r0, lsr #4

000089d0 <_interrupt_table>:
    89d0:	e59ff020 	ldr	pc, [pc, #32]	; 89f8 <_reset_asm>
    89d4:	e59ff020 	ldr	pc, [pc, #32]	; 89fc <_undefined_instruction_asm>
    89d8:	e59ff020 	ldr	pc, [pc, #32]	; 8a00 <_software_interrupt_asm>
    89dc:	e59ff020 	ldr	pc, [pc, #32]	; 8a04 <_prefetch_abort_asm>
    89e0:	e59ff020 	ldr	pc, [pc, #32]	; 8a08 <_data_abort_asm>
    89e4:	e59ff00c 	ldr	pc, [pc, #12]	; 89f8 <_reset_asm>
    89e8:	e59ff01c 	ldr	pc, [pc, #28]	; 8a0c <_interrupt_asm>

000089ec <fast_interrupt_asm>:
    89ec:	e3a0d409 	mov	sp, #150994944	; 0x9000000
    89f0:	e24ee004 	sub	lr, lr, #4
    89f4:	eb0003d5 	bl	9950 <fast_interrupt_vector>

000089f8 <_reset_asm>:
    89f8:	00008a28 	andeq	r8, r0, r8, lsr #20

000089fc <_undefined_instruction_asm>:
    89fc:	00008a6c 	andeq	r8, r0, ip, ror #20

00008a00 <_software_interrupt_asm>:
    8a00:	00008a78 	andeq	r8, r0, r8, ror sl

00008a04 <_prefetch_abort_asm>:
    8a04:	00008a50 	andeq	r8, r0, r0, asr sl

00008a08 <_data_abort_asm>:
    8a08:	00008a34 	andeq	r8, r0, r4, lsr sl

00008a0c <_interrupt_asm>:
    8a0c:	00008a10 	andeq	r8, r0, r0, lsl sl

00008a10 <_interrupt_table_end>:
    8a10:	e3a0d409 	mov	sp, #150994944	; 0x9000000
    8a14:	e24ee004 	sub	lr, lr, #4
    8a18:	e92d5fff 	push	{r0, r1, r2, r3, r4, r5, r6, r7, r8, r9, sl, fp, ip, lr}
    8a1c:	e1a0000e 	mov	r0, lr
    8a20:	e8bd5fff 	pop	{r0, r1, r2, r3, r4, r5, r6, r7, r8, r9, sl, fp, ip, lr}
    8a24:	e1b0f00e 	movs	pc, lr

00008a28 <reset_asm>:
    8a28:	e3a0d409 	mov	sp, #150994944	; 0x9000000
    8a2c:	e24ee004 	sub	lr, lr, #4
    8a30:	eb0003d7 	bl	9994 <reset_vector>

00008a34 <data_abort_asm>:
    8a34:	e24ee008 	sub	lr, lr, #8
    8a38:	e3a0d409 	mov	sp, #150994944	; 0x9000000
    8a3c:	e92d5fff 	push	{r0, r1, r2, r3, r4, r5, r6, r7, r8, r9, sl, fp, ip, lr}
    8a40:	e1a0000e 	mov	r0, lr
    8a44:	ebffff2f 	bl	8708 <data_abort_vector>
    8a48:	e8bd5fff 	pop	{r0, r1, r2, r3, r4, r5, r6, r7, r8, r9, sl, fp, ip, lr}
    8a4c:	e1b0f00e 	movs	pc, lr

00008a50 <prefetch_abort_asm>:
    8a50:	e24ee004 	sub	lr, lr, #4
    8a54:	e3a0d409 	mov	sp, #150994944	; 0x9000000
    8a58:	e92d5fff 	push	{r0, r1, r2, r3, r4, r5, r6, r7, r8, r9, sl, fp, ip, lr}
    8a5c:	e1a0000e 	mov	r0, lr
    8a60:	ebffff7b 	bl	8854 <prefetch_abort_vector>
    8a64:	e8bd5fff 	pop	{r0, r1, r2, r3, r4, r5, r6, r7, r8, r9, sl, fp, ip, lr}
    8a68:	e1b0f00e 	movs	pc, lr

00008a6c <undefined_instruction_asm>:
    8a6c:	e3a0d409 	mov	sp, #150994944	; 0x9000000
    8a70:	e24ee004 	sub	lr, lr, #4
    8a74:	eb0003d7 	bl	99d8 <undefined_instruction_vector>

00008a78 <software_interrupt_asm>:
    8a78:	e92d5ff0 	push	{r4, r5, r6, r7, r8, r9, sl, fp, ip, lr}
    8a7c:	e24ee004 	sub	lr, lr, #4
    8a80:	e1a01000 	mov	r1, r0
    8a84:	e1a0000e 	mov	r0, lr
    8a88:	ebffffb4 	bl	8960 <syscall_vector>
    8a8c:	e8bd5ff0 	pop	{r4, r5, r6, r7, r8, r9, sl, fp, ip, lr}
    8a90:	e1b0f00e 	movs	pc, lr

00008a94 <user_trampoline_no_ret>:
    8a94:	e1a0200d 	mov	r2, sp
    8a98:	e129f000 	msr	CPSR_fc, r0
    8a9c:	e10f5000 	mrs	r5, CPSR
    8aa0:	ee070f95 	mcr	15, 0, r0, cr7, cr5, {4}
    8aa4:	e1a0d002 	mov	sp, r2
    8aa8:	e92d5ff0 	push	{r4, r5, r6, r7, r8, r9, sl, fp, ip, lr}
    8aac:	e12fff31 	blx	r1
    8ab0:	e8bd5ff0 	pop	{r4, r5, r6, r7, r8, r9, sl, fp, ip, lr}
    8ab4:	eb00038c 	bl	98ec <clean_reboot>
    8ab8:	ebffff8c 	bl	88f0 <brk_no_ret_error>

00008abc <user_trampoline_ret>:
    8abc:	e92d5ff0 	push	{r4, r5, r6, r7, r8, r9, sl, fp, ip, lr}
    8ac0:	e10f4000 	mrs	r4, CPSR
    8ac4:	e129f000 	msr	CPSR_fc, r0
    8ac8:	ee070f95 	mcr	15, 0, r0, cr7, cr5, {4}
    8acc:	e3a0d407 	mov	sp, #117440512	; 0x7000000
    8ad0:	e1a00002 	mov	r0, r2
    8ad4:	e12fff31 	blx	r1
    8ad8:	e1a00004 	mov	r0, r4
    8adc:	ef000001 	svc	0x00000001
    8ae0:	e8bd5ff0 	pop	{r4, r5, r6, r7, r8, r9, sl, fp, ip, lr}
    8ae4:	e12fff1e 	bx	lr

00008ae8 <sys_try_lock_asm>:
    8ae8:	e92d5ff0 	push	{r4, r5, r6, r7, r8, r9, sl, fp, ip, lr}
    8aec:	ef000002 	svc	0x00000002
    8af0:	e8bd5ff0 	pop	{r4, r5, r6, r7, r8, r9, sl, fp, ip, lr}
    8af4:	e12fff1e 	bx	lr

00008af8 <sys_foo_asm>:
    8af8:	e92d5ff0 	push	{r4, r5, r6, r7, r8, r9, sl, fp, ip, lr}
    8afc:	ef000003 	svc	0x00000003
    8b00:	e8bd5ff0 	pop	{r4, r5, r6, r7, r8, r9, sl, fp, ip, lr}
    8b04:	e12fff1e 	bx	lr

00008b08 <single_step_handler>:
    8b08:	e92d4030 	push	{r4, r5, lr}
    8b0c:	e24dd00c 	sub	sp, sp, #12
    8b10:	e1a05001 	mov	r5, r1
    8b14:	e59f3164 	ldr	r3, [pc, #356]	; 8c80 <single_step_handler+0x178>
    8b18:	e5933000 	ldr	r3, [r3]
    8b1c:	e3530000 	cmp	r3, #0
    8b20:	0a000005 	beq	8b3c <single_step_handler+0x34>
    8b24:	e58d1000 	str	r1, [sp]
    8b28:	e59f0154 	ldr	r0, [pc, #340]	; 8c84 <single_step_handler+0x17c>
    8b2c:	e59f1154 	ldr	r1, [pc, #340]	; 8c88 <single_step_handler+0x180>
    8b30:	e59f2154 	ldr	r2, [pc, #340]	; 8c8c <single_step_handler+0x184>
    8b34:	e3a0300c 	mov	r3, #12
    8b38:	eb0001d3 	bl	928c <printk>
    8b3c:	ee153f30 	mrc	15, 0, r3, cr5, cr0, {1}
    8b40:	e203300f 	and	r3, r3, #15
    8b44:	e3530002 	cmp	r3, #2
    8b48:	0a000006 	beq	8b68 <single_step_handler+0x60>
    8b4c:	eb0001e9 	bl	92f8 <rpi_reset_putc>
    8b50:	e59f0138 	ldr	r0, [pc, #312]	; 8c90 <single_step_handler+0x188>
    8b54:	e59f112c 	ldr	r1, [pc, #300]	; 8c88 <single_step_handler+0x180>
    8b58:	e59f212c 	ldr	r2, [pc, #300]	; 8c8c <single_step_handler+0x184>
    8b5c:	e3a0300e 	mov	r3, #14
    8b60:	eb0001c9 	bl	928c <printk>
    8b64:	eb000360 	bl	98ec <clean_reboot>
    8b68:	e59f3124 	ldr	r3, [pc, #292]	; 8c94 <single_step_handler+0x18c>
    8b6c:	e5934000 	ldr	r4, [r3]
    8b70:	e594201c 	ldr	r2, [r4, #28]
    8b74:	e5943018 	ldr	r3, [r4, #24]
    8b78:	e1520003 	cmp	r2, r3
    8b7c:	1a000016 	bne	8bdc <single_step_handler+0xd4>
    8b80:	e59f0110 	ldr	r0, [pc, #272]	; 8c98 <single_step_handler+0x190>
    8b84:	e1a01005 	mov	r1, r5
    8b88:	e5942008 	ldr	r2, [r4, #8]
    8b8c:	eb0001be 	bl	928c <printk>
    8b90:	e5943008 	ldr	r3, [r4, #8]
    8b94:	e1a00004 	mov	r0, r4
    8b98:	e12fff33 	blx	r3
    8b9c:	e3500000 	cmp	r0, #0
    8ba0:	0a00000a 	beq	8bd0 <single_step_handler+0xc8>
    8ba4:	e1a00005 	mov	r0, r5
    8ba8:	ebffff68 	bl	8950 <brkpt_mismatch_disable0>
    8bac:	e5845020 	str	r5, [r4, #32]
    8bb0:	e3a03001 	mov	r3, #1
    8bb4:	e5843024 	str	r3, [r4, #36]	; 0x24
    8bb8:	e5943014 	ldr	r3, [r4, #20]
    8bbc:	e2833001 	add	r3, r3, #1
    8bc0:	e5843014 	str	r3, [r4, #20]
    8bc4:	e59f00d0 	ldr	r0, [pc, #208]	; 8c9c <single_step_handler+0x194>
    8bc8:	eb0001af 	bl	928c <printk>
    8bcc:	ea000029 	b	8c78 <single_step_handler+0x170>
    8bd0:	e5943018 	ldr	r3, [r4, #24]
    8bd4:	e2833001 	add	r3, r3, #1
    8bd8:	e5843018 	str	r3, [r4, #24]
    8bdc:	e594201c 	ldr	r2, [r4, #28]
    8be0:	e5943018 	ldr	r3, [r4, #24]
    8be4:	e1520003 	cmp	r2, r3
    8be8:	3a000008 	bcc	8c10 <single_step_handler+0x108>
    8bec:	eb0001c1 	bl	92f8 <rpi_reset_putc>
    8bf0:	e59f30a8 	ldr	r3, [pc, #168]	; 8ca0 <single_step_handler+0x198>
    8bf4:	e58d3000 	str	r3, [sp]
    8bf8:	e59f00a4 	ldr	r0, [pc, #164]	; 8ca4 <single_step_handler+0x19c>
    8bfc:	e59f1084 	ldr	r1, [pc, #132]	; 8c88 <single_step_handler+0x180>
    8c00:	e59f2084 	ldr	r2, [pc, #132]	; 8c8c <single_step_handler+0x184>
    8c04:	e3a03023 	mov	r3, #35	; 0x23
    8c08:	eb00019f 	bl	928c <printk>
    8c0c:	eb000336 	bl	98ec <clean_reboot>
    8c10:	e594301c 	ldr	r3, [r4, #28]
    8c14:	e2833001 	add	r3, r3, #1
    8c18:	e584301c 	str	r3, [r4, #28]
    8c1c:	e59f305c 	ldr	r3, [pc, #92]	; 8c80 <single_step_handler+0x178>
    8c20:	e5933000 	ldr	r3, [r3]
    8c24:	e3530000 	cmp	r3, #0
    8c28:	0a000005 	beq	8c44 <single_step_handler+0x13c>
    8c2c:	e58d5000 	str	r5, [sp]
    8c30:	e59f0070 	ldr	r0, [pc, #112]	; 8ca8 <single_step_handler+0x1a0>
    8c34:	e59f104c 	ldr	r1, [pc, #76]	; 8c88 <single_step_handler+0x180>
    8c38:	e59f204c 	ldr	r2, [pc, #76]	; 8c8c <single_step_handler+0x184>
    8c3c:	e3a03026 	mov	r3, #38	; 0x26
    8c40:	eb000191 	bl	928c <printk>
    8c44:	e1a00005 	mov	r0, r5
    8c48:	e59f105c 	ldr	r1, [pc, #92]	; 8cac <single_step_handler+0x1a4>
    8c4c:	ebffff32 	bl	891c <brkpt_mismatch_set0>
    8c50:	e59f3028 	ldr	r3, [pc, #40]	; 8c80 <single_step_handler+0x178>
    8c54:	e5933000 	ldr	r3, [r3]
    8c58:	e3530000 	cmp	r3, #0
    8c5c:	0a000005 	beq	8c78 <single_step_handler+0x170>
    8c60:	e58d5000 	str	r5, [sp]
    8c64:	e59f0044 	ldr	r0, [pc, #68]	; 8cb0 <single_step_handler+0x1a8>
    8c68:	e59f1018 	ldr	r1, [pc, #24]	; 8c88 <single_step_handler+0x180>
    8c6c:	e59f2018 	ldr	r2, [pc, #24]	; 8c8c <single_step_handler+0x184>
    8c70:	e3a03028 	mov	r3, #40	; 0x28
    8c74:	eb000184 	bl	928c <printk>
    8c78:	e28dd00c 	add	sp, sp, #12
    8c7c:	e8bd8030 	pop	{r4, r5, pc}
    8c80:	0000a784 	andeq	sl, r0, r4, lsl #15
    8c84:	0000a29c 	muleq	r0, ip, r2
    8c88:	0000a2bc 			; <UNDEFINED> instruction: 0x0000a2bc
    8c8c:	0000a514 	andeq	sl, r0, r4, lsl r5
    8c90:	0000a1a8 	andeq	sl, r0, r8, lsr #3
    8c94:	0000a790 	muleq	r0, r0, r7
    8c98:	0000a2d0 	ldrdeq	sl, [r0], -r0
    8c9c:	0000a2f0 	strdeq	sl, [r0], -r0
    8ca0:	0000a318 	andeq	sl, r0, r8, lsl r3
    8ca4:	00009ea0 	andeq	r9, r0, r0, lsr #29
    8ca8:	0000a33c 	andeq	sl, r0, ip, lsr r3
    8cac:	00008b08 	andeq	r8, r0, r8, lsl #22
    8cb0:	0000a364 	andeq	sl, r0, r4, ror #6

00008cb4 <check_one_cswitch>:
    8cb4:	e92d4ff0 	push	{r4, r5, r6, r7, r8, r9, sl, fp, lr}
    8cb8:	e24dd00c 	sub	sp, sp, #12
    8cbc:	e1a04000 	mov	r4, r0
    8cc0:	e10f8000 	mrs	r8, CPSR
    8cc4:	e3c8701f 	bic	r7, r8, #31
    8cc8:	e3877010 	orr	r7, r7, #16
    8ccc:	e59f3460 	ldr	r3, [pc, #1120]	; 9134 <check_one_cswitch+0x480>
    8cd0:	e5830000 	str	r0, [r3]
    8cd4:	e3a03001 	mov	r3, #1
    8cd8:	e5803030 	str	r3, [r0, #48]	; 0x30
    8cdc:	e59f6454 	ldr	r6, [pc, #1108]	; 9138 <check_one_cswitch+0x484>
    8ce0:	e59fb454 	ldr	fp, [pc, #1108]	; 913c <check_one_cswitch+0x488>
    8ce4:	e59fa454 	ldr	sl, [pc, #1108]	; 9140 <check_one_cswitch+0x48c>
    8ce8:	e59f9454 	ldr	r9, [pc, #1108]	; 9144 <check_one_cswitch+0x490>
    8cec:	e59f5454 	ldr	r5, [pc, #1108]	; 9148 <check_one_cswitch+0x494>
    8cf0:	e594300c 	ldr	r3, [r4, #12]
    8cf4:	e1a00004 	mov	r0, r4
    8cf8:	e12fff33 	blx	r3
    8cfc:	e5963000 	ldr	r3, [r6]
    8d00:	e3530000 	cmp	r3, #0
    8d04:	0a000006 	beq	8d24 <check_one_cswitch+0x70>
    8d08:	e5943028 	ldr	r3, [r4, #40]	; 0x28
    8d0c:	e58d3000 	str	r3, [sp]
    8d10:	e1a0000b 	mov	r0, fp
    8d14:	e1a0100a 	mov	r1, sl
    8d18:	e1a02009 	mov	r2, r9
    8d1c:	e3a03034 	mov	r3, #52	; 0x34
    8d20:	eb000159 	bl	928c <printk>
    8d24:	e3a00000 	mov	r0, #0
    8d28:	e1a01005 	mov	r1, r5
    8d2c:	ebfffefa 	bl	891c <brkpt_mismatch_set0>
    8d30:	e5943018 	ldr	r3, [r4, #24]
    8d34:	e2833001 	add	r3, r3, #1
    8d38:	e5843018 	str	r3, [r4, #24]
    8d3c:	e3a03000 	mov	r3, #0
    8d40:	e584301c 	str	r3, [r4, #28]
    8d44:	e5843024 	str	r3, [r4, #36]	; 0x24
    8d48:	e1a00007 	mov	r0, r7
    8d4c:	e5941004 	ldr	r1, [r4, #4]
    8d50:	e1a02004 	mov	r2, r4
    8d54:	ebffff58 	bl	8abc <user_trampoline_ret>
    8d58:	e5943024 	ldr	r3, [r4, #36]	; 0x24
    8d5c:	e3530000 	cmp	r3, #0
    8d60:	1a000002 	bne	8d70 <check_one_cswitch+0xbc>
    8d64:	e5943008 	ldr	r3, [r4, #8]
    8d68:	e1a00004 	mov	r0, r4
    8d6c:	e12fff33 	blx	r3
    8d70:	e5943010 	ldr	r3, [r4, #16]
    8d74:	e1a00004 	mov	r0, r4
    8d78:	e12fff33 	blx	r3
    8d7c:	e3500000 	cmp	r0, #0
    8d80:	1a000006 	bne	8da0 <check_one_cswitch+0xec>
    8d84:	e5941020 	ldr	r1, [r4, #32]
    8d88:	e5942018 	ldr	r2, [r4, #24]
    8d8c:	e59f03b8 	ldr	r0, [pc, #952]	; 914c <check_one_cswitch+0x498>
    8d90:	eb00013d 	bl	928c <printk>
    8d94:	e594302c 	ldr	r3, [r4, #44]	; 0x2c
    8d98:	e2833001 	add	r3, r3, #1
    8d9c:	e584302c 	str	r3, [r4, #44]	; 0x2c
    8da0:	e5942028 	ldr	r2, [r4, #40]	; 0x28
    8da4:	e2822001 	add	r2, r2, #1
    8da8:	e5842028 	str	r2, [r4, #40]	; 0x28
    8dac:	e5943024 	ldr	r3, [r4, #36]	; 0x24
    8db0:	e3530000 	cmp	r3, #0
    8db4:	1affffcd 	bne	8cf0 <check_one_cswitch+0x3c>
    8db8:	e5941014 	ldr	r1, [r4, #20]
    8dbc:	e59f038c 	ldr	r0, [pc, #908]	; 9150 <check_one_cswitch+0x49c>
    8dc0:	e594302c 	ldr	r3, [r4, #44]	; 0x2c
    8dc4:	eb000130 	bl	928c <printk>
    8dc8:	e208301f 	and	r3, r8, #31
    8dcc:	e3530012 	cmp	r3, #18
    8dd0:	13530010 	cmpne	r3, #16
    8dd4:	0a000006 	beq	8df4 <check_one_cswitch+0x140>
    8dd8:	e3530017 	cmp	r3, #23
    8ddc:	13530013 	cmpne	r3, #19
    8de0:	0a000005 	beq	8dfc <check_one_cswitch+0x148>
    8de4:	e353001f 	cmp	r3, #31
    8de8:	1a000005 	bne	8e04 <check_one_cswitch+0x150>
    8dec:	e3a02001 	mov	r2, #1
    8df0:	ea000004 	b	8e08 <check_one_cswitch+0x154>
    8df4:	e3a02001 	mov	r2, #1
    8df8:	ea000002 	b	8e08 <check_one_cswitch+0x154>
    8dfc:	e3a02001 	mov	r2, #1
    8e00:	ea000000 	b	8e08 <check_one_cswitch+0x154>
    8e04:	e3a02000 	mov	r2, #0
    8e08:	e3520000 	cmp	r2, #0
    8e0c:	1a000008 	bne	8e34 <check_one_cswitch+0x180>
    8e10:	eb000138 	bl	92f8 <rpi_reset_putc>
    8e14:	e59f3338 	ldr	r3, [pc, #824]	; 9154 <check_one_cswitch+0x4a0>
    8e18:	e58d3000 	str	r3, [sp]
    8e1c:	e59f0334 	ldr	r0, [pc, #820]	; 9158 <check_one_cswitch+0x4a4>
    8e20:	e59f1334 	ldr	r1, [pc, #820]	; 915c <check_one_cswitch+0x4a8>
    8e24:	e59f2334 	ldr	r2, [pc, #820]	; 9160 <check_one_cswitch+0x4ac>
    8e28:	e3a03011 	mov	r3, #17
    8e2c:	eb000116 	bl	928c <printk>
    8e30:	eb0002ad 	bl	98ec <clean_reboot>
    8e34:	e2433010 	sub	r3, r3, #16
    8e38:	e353000f 	cmp	r3, #15
    8e3c:	979ff103 	ldrls	pc, [pc, r3, lsl #2]
    8e40:	ea000019 	b	8eac <check_one_cswitch+0x1f8>
    8e44:	00008ecc 	andeq	r8, r0, ip, asr #29
    8e48:	00008ed4 	ldrdeq	r8, [r0], -r4
    8e4c:	00008e84 	andeq	r8, r0, r4, lsl #29
    8e50:	00008e8c 	andeq	r8, r0, ip, lsl #29
    8e54:	00008eac 	andeq	r8, r0, ip, lsr #29
    8e58:	00008eac 	andeq	r8, r0, ip, lsr #29
    8e5c:	00008eac 	andeq	r8, r0, ip, lsr #29
    8e60:	00008e94 	muleq	r0, r4, lr
    8e64:	00008eac 	andeq	r8, r0, ip, lsr #29
    8e68:	00008eac 	andeq	r8, r0, ip, lsr #29
    8e6c:	00008eac 	andeq	r8, r0, ip, lsr #29
    8e70:	00008e9c 	muleq	r0, ip, lr
    8e74:	00008eac 	andeq	r8, r0, ip, lsr #29
    8e78:	00008eac 	andeq	r8, r0, ip, lsr #29
    8e7c:	00008eac 	andeq	r8, r0, ip, lsr #29
    8e80:	00008ea4 	andeq	r8, r0, r4, lsr #29
    8e84:	e59f12d8 	ldr	r1, [pc, #728]	; 9164 <check_one_cswitch+0x4b0>
    8e88:	ea000012 	b	8ed8 <check_one_cswitch+0x224>
    8e8c:	e59f12d4 	ldr	r1, [pc, #724]	; 9168 <check_one_cswitch+0x4b4>
    8e90:	ea000010 	b	8ed8 <check_one_cswitch+0x224>
    8e94:	e59f12d0 	ldr	r1, [pc, #720]	; 916c <check_one_cswitch+0x4b8>
    8e98:	ea00000e 	b	8ed8 <check_one_cswitch+0x224>
    8e9c:	e59f12cc 	ldr	r1, [pc, #716]	; 9170 <check_one_cswitch+0x4bc>
    8ea0:	ea00000c 	b	8ed8 <check_one_cswitch+0x224>
    8ea4:	e59f12c8 	ldr	r1, [pc, #712]	; 9174 <check_one_cswitch+0x4c0>
    8ea8:	ea00000a 	b	8ed8 <check_one_cswitch+0x224>
    8eac:	eb000111 	bl	92f8 <rpi_reset_putc>
    8eb0:	e58d8000 	str	r8, [sp]
    8eb4:	e59f02bc 	ldr	r0, [pc, #700]	; 9178 <check_one_cswitch+0x4c4>
    8eb8:	e59f129c 	ldr	r1, [pc, #668]	; 915c <check_one_cswitch+0x4a8>
    8ebc:	e59f22b8 	ldr	r2, [pc, #696]	; 917c <check_one_cswitch+0x4c8>
    8ec0:	e3a03021 	mov	r3, #33	; 0x21
    8ec4:	eb0000f0 	bl	928c <printk>
    8ec8:	eb000287 	bl	98ec <clean_reboot>
    8ecc:	e59f12ac 	ldr	r1, [pc, #684]	; 9180 <check_one_cswitch+0x4cc>
    8ed0:	ea000000 	b	8ed8 <check_one_cswitch+0x224>
    8ed4:	e59f12a8 	ldr	r1, [pc, #680]	; 9184 <check_one_cswitch+0x4d0>
    8ed8:	e59f02a8 	ldr	r0, [pc, #680]	; 9188 <check_one_cswitch+0x4d4>
    8edc:	e1a02008 	mov	r2, r8
    8ee0:	eb0000e9 	bl	928c <printk>
    8ee4:	e10f5000 	mrs	r5, CPSR
    8ee8:	e205301f 	and	r3, r5, #31
    8eec:	e3530012 	cmp	r3, #18
    8ef0:	13530010 	cmpne	r3, #16
    8ef4:	0a000006 	beq	8f14 <check_one_cswitch+0x260>
    8ef8:	e3530017 	cmp	r3, #23
    8efc:	13530013 	cmpne	r3, #19
    8f00:	0a000005 	beq	8f1c <check_one_cswitch+0x268>
    8f04:	e353001f 	cmp	r3, #31
    8f08:	1a000005 	bne	8f24 <check_one_cswitch+0x270>
    8f0c:	e3a02001 	mov	r2, #1
    8f10:	ea000004 	b	8f28 <check_one_cswitch+0x274>
    8f14:	e3a02001 	mov	r2, #1
    8f18:	ea000002 	b	8f28 <check_one_cswitch+0x274>
    8f1c:	e3a02001 	mov	r2, #1
    8f20:	ea000000 	b	8f28 <check_one_cswitch+0x274>
    8f24:	e3a02000 	mov	r2, #0
    8f28:	e3520000 	cmp	r2, #0
    8f2c:	1a000008 	bne	8f54 <check_one_cswitch+0x2a0>
    8f30:	eb0000f0 	bl	92f8 <rpi_reset_putc>
    8f34:	e59f3218 	ldr	r3, [pc, #536]	; 9154 <check_one_cswitch+0x4a0>
    8f38:	e58d3000 	str	r3, [sp]
    8f3c:	e59f0214 	ldr	r0, [pc, #532]	; 9158 <check_one_cswitch+0x4a4>
    8f40:	e59f1214 	ldr	r1, [pc, #532]	; 915c <check_one_cswitch+0x4a8>
    8f44:	e59f2214 	ldr	r2, [pc, #532]	; 9160 <check_one_cswitch+0x4ac>
    8f48:	e3a03011 	mov	r3, #17
    8f4c:	eb0000ce 	bl	928c <printk>
    8f50:	eb000265 	bl	98ec <clean_reboot>
    8f54:	e2433010 	sub	r3, r3, #16
    8f58:	e353000f 	cmp	r3, #15
    8f5c:	979ff103 	ldrls	pc, [pc, r3, lsl #2]
    8f60:	ea000019 	b	8fcc <check_one_cswitch+0x318>
    8f64:	00008fec 	andeq	r8, r0, ip, ror #31
    8f68:	00008ff4 	strdeq	r8, [r0], -r4
    8f6c:	00008fa4 	andeq	r8, r0, r4, lsr #31
    8f70:	00008fac 	andeq	r8, r0, ip, lsr #31
    8f74:	00008fcc 	andeq	r8, r0, ip, asr #31
    8f78:	00008fcc 	andeq	r8, r0, ip, asr #31
    8f7c:	00008fcc 	andeq	r8, r0, ip, asr #31
    8f80:	00008fb4 			; <UNDEFINED> instruction: 0x00008fb4
    8f84:	00008fcc 	andeq	r8, r0, ip, asr #31
    8f88:	00008fcc 	andeq	r8, r0, ip, asr #31
    8f8c:	00008fcc 	andeq	r8, r0, ip, asr #31
    8f90:	00008fbc 			; <UNDEFINED> instruction: 0x00008fbc
    8f94:	00008fcc 	andeq	r8, r0, ip, asr #31
    8f98:	00008fcc 	andeq	r8, r0, ip, asr #31
    8f9c:	00008fcc 	andeq	r8, r0, ip, asr #31
    8fa0:	00008fc4 	andeq	r8, r0, r4, asr #31
    8fa4:	e59f11b8 	ldr	r1, [pc, #440]	; 9164 <check_one_cswitch+0x4b0>
    8fa8:	ea000012 	b	8ff8 <check_one_cswitch+0x344>
    8fac:	e59f11b4 	ldr	r1, [pc, #436]	; 9168 <check_one_cswitch+0x4b4>
    8fb0:	ea000010 	b	8ff8 <check_one_cswitch+0x344>
    8fb4:	e59f11b0 	ldr	r1, [pc, #432]	; 916c <check_one_cswitch+0x4b8>
    8fb8:	ea00000e 	b	8ff8 <check_one_cswitch+0x344>
    8fbc:	e59f11ac 	ldr	r1, [pc, #428]	; 9170 <check_one_cswitch+0x4bc>
    8fc0:	ea00000c 	b	8ff8 <check_one_cswitch+0x344>
    8fc4:	e59f11a8 	ldr	r1, [pc, #424]	; 9174 <check_one_cswitch+0x4c0>
    8fc8:	ea00000a 	b	8ff8 <check_one_cswitch+0x344>
    8fcc:	eb0000c9 	bl	92f8 <rpi_reset_putc>
    8fd0:	e58d5000 	str	r5, [sp]
    8fd4:	e59f019c 	ldr	r0, [pc, #412]	; 9178 <check_one_cswitch+0x4c4>
    8fd8:	e59f117c 	ldr	r1, [pc, #380]	; 915c <check_one_cswitch+0x4a8>
    8fdc:	e59f2198 	ldr	r2, [pc, #408]	; 917c <check_one_cswitch+0x4c8>
    8fe0:	e3a03021 	mov	r3, #33	; 0x21
    8fe4:	eb0000a8 	bl	928c <printk>
    8fe8:	eb00023f 	bl	98ec <clean_reboot>
    8fec:	e59f118c 	ldr	r1, [pc, #396]	; 9180 <check_one_cswitch+0x4cc>
    8ff0:	ea000000 	b	8ff8 <check_one_cswitch+0x344>
    8ff4:	e59f1188 	ldr	r1, [pc, #392]	; 9184 <check_one_cswitch+0x4d0>
    8ff8:	e10f2000 	mrs	r2, CPSR
    8ffc:	e59f0188 	ldr	r0, [pc, #392]	; 918c <check_one_cswitch+0x4d8>
    9000:	eb0000a1 	bl	928c <printk>
    9004:	e3a00000 	mov	r0, #0
    9008:	ebfffe50 	bl	8950 <brkpt_mismatch_disable0>
    900c:	e208801f 	and	r8, r8, #31
    9010:	e3580012 	cmp	r8, #18
    9014:	13580010 	cmpne	r8, #16
    9018:	0a000006 	beq	9038 <check_one_cswitch+0x384>
    901c:	e3580017 	cmp	r8, #23
    9020:	13580013 	cmpne	r8, #19
    9024:	0a000005 	beq	9040 <check_one_cswitch+0x38c>
    9028:	e358001f 	cmp	r8, #31
    902c:	1a000005 	bne	9048 <check_one_cswitch+0x394>
    9030:	e3a03001 	mov	r3, #1
    9034:	ea000004 	b	904c <check_one_cswitch+0x398>
    9038:	e3a03001 	mov	r3, #1
    903c:	ea000002 	b	904c <check_one_cswitch+0x398>
    9040:	e3a03001 	mov	r3, #1
    9044:	ea000000 	b	904c <check_one_cswitch+0x398>
    9048:	e3a03000 	mov	r3, #0
    904c:	e3530000 	cmp	r3, #0
    9050:	1a000008 	bne	9078 <check_one_cswitch+0x3c4>
    9054:	eb0000a7 	bl	92f8 <rpi_reset_putc>
    9058:	e59f30f4 	ldr	r3, [pc, #244]	; 9154 <check_one_cswitch+0x4a0>
    905c:	e58d3000 	str	r3, [sp]
    9060:	e59f00f0 	ldr	r0, [pc, #240]	; 9158 <check_one_cswitch+0x4a4>
    9064:	e59f10f0 	ldr	r1, [pc, #240]	; 915c <check_one_cswitch+0x4a8>
    9068:	e59f20f0 	ldr	r2, [pc, #240]	; 9160 <check_one_cswitch+0x4ac>
    906c:	e3a03011 	mov	r3, #17
    9070:	eb000085 	bl	928c <printk>
    9074:	eb00021c 	bl	98ec <clean_reboot>
    9078:	e10f3000 	mrs	r3, CPSR
    907c:	e203301f 	and	r3, r3, #31
    9080:	e3530012 	cmp	r3, #18
    9084:	13530010 	cmpne	r3, #16
    9088:	0a000006 	beq	90a8 <check_one_cswitch+0x3f4>
    908c:	e3530017 	cmp	r3, #23
    9090:	13530013 	cmpne	r3, #19
    9094:	0a000005 	beq	90b0 <check_one_cswitch+0x3fc>
    9098:	e353001f 	cmp	r3, #31
    909c:	1a000005 	bne	90b8 <check_one_cswitch+0x404>
    90a0:	e3a02001 	mov	r2, #1
    90a4:	ea000004 	b	90bc <check_one_cswitch+0x408>
    90a8:	e3a02001 	mov	r2, #1
    90ac:	ea000002 	b	90bc <check_one_cswitch+0x408>
    90b0:	e3a02001 	mov	r2, #1
    90b4:	ea000000 	b	90bc <check_one_cswitch+0x408>
    90b8:	e3a02000 	mov	r2, #0
    90bc:	e3520000 	cmp	r2, #0
    90c0:	1a000008 	bne	90e8 <check_one_cswitch+0x434>
    90c4:	eb00008b 	bl	92f8 <rpi_reset_putc>
    90c8:	e59f3084 	ldr	r3, [pc, #132]	; 9154 <check_one_cswitch+0x4a0>
    90cc:	e58d3000 	str	r3, [sp]
    90d0:	e59f0080 	ldr	r0, [pc, #128]	; 9158 <check_one_cswitch+0x4a4>
    90d4:	e59f1080 	ldr	r1, [pc, #128]	; 915c <check_one_cswitch+0x4a8>
    90d8:	e59f2080 	ldr	r2, [pc, #128]	; 9160 <check_one_cswitch+0x4ac>
    90dc:	e3a03011 	mov	r3, #17
    90e0:	eb000069 	bl	928c <printk>
    90e4:	eb000200 	bl	98ec <clean_reboot>
    90e8:	e1580003 	cmp	r8, r3
    90ec:	0a000008 	beq	9114 <check_one_cswitch+0x460>
    90f0:	eb000080 	bl	92f8 <rpi_reset_putc>
    90f4:	e59f3094 	ldr	r3, [pc, #148]	; 9190 <check_one_cswitch+0x4dc>
    90f8:	e58d3000 	str	r3, [sp]
    90fc:	e59f0054 	ldr	r0, [pc, #84]	; 9158 <check_one_cswitch+0x4a4>
    9100:	e59f1038 	ldr	r1, [pc, #56]	; 9140 <check_one_cswitch+0x48c>
    9104:	e59f2038 	ldr	r2, [pc, #56]	; 9144 <check_one_cswitch+0x490>
    9108:	e3a03058 	mov	r3, #88	; 0x58
    910c:	eb00005e 	bl	928c <printk>
    9110:	eb0001f5 	bl	98ec <clean_reboot>
    9114:	e3a03000 	mov	r3, #0
    9118:	e5843030 	str	r3, [r4, #48]	; 0x30
    911c:	e594002c 	ldr	r0, [r4, #44]	; 0x2c
    9120:	e1500003 	cmp	r0, r3
    9124:	13a00000 	movne	r0, #0
    9128:	03a00001 	moveq	r0, #1
    912c:	e28dd00c 	add	sp, sp, #12
    9130:	e8bd8ff0 	pop	{r4, r5, r6, r7, r8, r9, sl, fp, pc}
    9134:	0000a790 	muleq	r0, r0, r7
    9138:	0000a784 	andeq	sl, r0, r4, lsl #15
    913c:	0000a390 	muleq	r0, r0, r3
    9140:	0000a2bc 			; <UNDEFINED> instruction: 0x0000a2bc
    9144:	0000a500 	andeq	sl, r0, r0, lsl #10
    9148:	00008b08 	andeq	r8, r0, r8, lsl #22
    914c:	0000a3c8 	andeq	sl, r0, r8, asr #7
    9150:	0000a410 	andeq	sl, r0, r0, lsl r4
    9154:	00009ec4 	andeq	r9, r0, r4, asr #29
    9158:	00009ea0 	andeq	r9, r0, r0, lsr #29
    915c:	0000a444 	andeq	sl, r0, r4, asr #8
    9160:	0000a54c 	andeq	sl, r0, ip, asr #10
    9164:	00009f80 	andeq	r9, r0, r0, lsl #31
    9168:	00009f8c 	andeq	r9, r0, ip, lsl #31
    916c:	00009f98 	muleq	r0, r8, pc	; <UNPREDICTABLE>
    9170:	00009fa4 	andeq	r9, r0, r4, lsr #31
    9174:	00009fb0 			; <UNDEFINED> instruction: 0x00009fb0
    9178:	00009fbc 			; <UNDEFINED> instruction: 0x00009fbc
    917c:	0000a540 	andeq	sl, r0, r0, asr #10
    9180:	00009f68 	andeq	r9, r0, r8, ror #30
    9184:	00009f74 	andeq	r9, r0, r4, ror pc
    9188:	0000a450 	andeq	sl, r0, r0, asr r4
    918c:	0000a46c 	andeq	sl, r0, ip, ror #8
    9190:	0000a484 	andeq	sl, r0, r4, lsl #9

00009194 <check_sequential>:
    9194:	e92d4038 	push	{r3, r4, r5, lr}
    9198:	e1a04000 	mov	r4, r0
    919c:	e3a05000 	mov	r5, #0
    91a0:	ea000015 	b	91fc <check_sequential+0x68>
    91a4:	e594300c 	ldr	r3, [r4, #12]
    91a8:	e1a00004 	mov	r0, r4
    91ac:	e12fff33 	blx	r3
    91b0:	e5943004 	ldr	r3, [r4, #4]
    91b4:	e1a00004 	mov	r0, r4
    91b8:	e12fff33 	blx	r3
    91bc:	e5943008 	ldr	r3, [r4, #8]
    91c0:	e1a00004 	mov	r0, r4
    91c4:	e12fff33 	blx	r3
    91c8:	e5943010 	ldr	r3, [r4, #16]
    91cc:	e1a00004 	mov	r0, r4
    91d0:	e12fff33 	blx	r3
    91d4:	e3500000 	cmp	r0, #0
    91d8:	1a000006 	bne	91f8 <check_sequential+0x64>
    91dc:	eb000045 	bl	92f8 <rpi_reset_putc>
    91e0:	e59f0024 	ldr	r0, [pc, #36]	; 920c <check_sequential+0x78>
    91e4:	e59f1024 	ldr	r1, [pc, #36]	; 9210 <check_sequential+0x7c>
    91e8:	e59f2024 	ldr	r2, [pc, #36]	; 9214 <check_sequential+0x80>
    91ec:	e3a0306e 	mov	r3, #110	; 0x6e
    91f0:	eb000025 	bl	928c <printk>
    91f4:	eb0001bc 	bl	98ec <clean_reboot>
    91f8:	e2855001 	add	r5, r5, #1
    91fc:	e3550063 	cmp	r5, #99	; 0x63
    9200:	9affffe7 	bls	91a4 <check_sequential+0x10>
    9204:	e3a00001 	mov	r0, #1
    9208:	e8bd8038 	pop	{r3, r4, r5, pc}
    920c:	0000a4b0 			; <UNDEFINED> instruction: 0x0000a4b0
    9210:	0000a2bc 			; <UNDEFINED> instruction: 0x0000a2bc
    9214:	0000a4ec 	andeq	sl, r0, ip, ror #9

00009218 <check_zero>:
    9218:	e3a03000 	mov	r3, #0
    921c:	e5803030 	str	r3, [r0, #48]	; 0x30
    9220:	e580302c 	str	r3, [r0, #44]	; 0x2c
    9224:	e5803028 	str	r3, [r0, #40]	; 0x28
    9228:	e5803024 	str	r3, [r0, #36]	; 0x24
    922c:	e5803020 	str	r3, [r0, #32]
    9230:	e580301c 	str	r3, [r0, #28]
    9234:	e5803018 	str	r3, [r0, #24]
    9238:	e5803014 	str	r3, [r0, #20]
    923c:	e12fff1e 	bx	lr

00009240 <check>:
    9240:	e92d4010 	push	{r4, lr}
    9244:	e1a04000 	mov	r4, r0
    9248:	ebfffd65 	bl	87e4 <cp14_enable>
    924c:	e1a00004 	mov	r0, r4
    9250:	ebfffff0 	bl	9218 <check_zero>
    9254:	e1a00004 	mov	r0, r4
    9258:	ebffffcd 	bl	9194 <check_sequential>
    925c:	e3500000 	cmp	r0, #0
    9260:	0a000005 	beq	927c <check+0x3c>
    9264:	e1a00004 	mov	r0, r4
    9268:	ebfffe91 	bl	8cb4 <check_one_cswitch>
    926c:	e3500000 	cmp	r0, #0
    9270:	0a000003 	beq	9284 <check+0x44>
    9274:	e3a00001 	mov	r0, #1
    9278:	e8bd8010 	pop	{r4, pc}
    927c:	e3a00000 	mov	r0, #0
    9280:	e8bd8010 	pop	{r4, pc}
    9284:	e3a00000 	mov	r0, #0
    9288:	e8bd8010 	pop	{r4, pc}

0000928c <printk>:
    928c:	e92d000f 	push	{r0, r1, r2, r3}
    9290:	e92d4030 	push	{r4, r5, lr}
    9294:	e24dd00c 	sub	sp, sp, #12
    9298:	e28d301c 	add	r3, sp, #28
    929c:	e58d3004 	str	r3, [sp, #4]
    92a0:	e59f4034 	ldr	r4, [pc, #52]	; 92dc <printk+0x50>
    92a4:	e1a00004 	mov	r0, r4
    92a8:	e3a01b01 	mov	r1, #1024	; 0x400
    92ac:	e59d2018 	ldr	r2, [sp, #24]
    92b0:	eb0000d0 	bl	95f8 <va_printk>
    92b4:	e1a05000 	mov	r5, r0
    92b8:	e59f3020 	ldr	r3, [pc, #32]	; 92e0 <printk+0x54>
    92bc:	e5933000 	ldr	r3, [r3]
    92c0:	e1a00004 	mov	r0, r4
    92c4:	e12fff33 	blx	r3
    92c8:	e1a00005 	mov	r0, r5
    92cc:	e28dd00c 	add	sp, sp, #12
    92d0:	e8bd4030 	pop	{r4, r5, lr}
    92d4:	e28dd010 	add	sp, sp, #16
    92d8:	e12fff1e 	bx	lr
    92dc:	0000a798 	muleq	r0, r8, r7
    92e0:	00009e9c 	muleq	r0, ip, lr

000092e4 <internal_putchar>:
    92e4:	e92d4010 	push	{r4, lr}
    92e8:	e1a04000 	mov	r4, r0
    92ec:	eb000291 	bl	9d38 <uart_putc>
    92f0:	e1a00004 	mov	r0, r4
    92f4:	e8bd8010 	pop	{r4, pc}

000092f8 <rpi_reset_putc>:
    92f8:	e59f2008 	ldr	r2, [pc, #8]	; 9308 <rpi_reset_putc+0x10>
    92fc:	e59f3008 	ldr	r3, [pc, #8]	; 930c <rpi_reset_putc+0x14>
    9300:	e5832000 	str	r2, [r3]
    9304:	e12fff1e 	bx	lr
    9308:	000092e4 	andeq	r9, r0, r4, ror #5
    930c:	00009e98 	muleq	r0, r8, lr

00009310 <rpi_set_putc>:
    9310:	e59f3004 	ldr	r3, [pc, #4]	; 931c <rpi_set_putc+0xc>
    9314:	e5830000 	str	r0, [r3]
    9318:	e12fff1e 	bx	lr
    931c:	00009e98 	muleq	r0, r8, lr

00009320 <internal_putk>:
    9320:	e92d4038 	push	{r3, r4, r5, lr}
    9324:	e1a04000 	mov	r4, r0
    9328:	e59f5020 	ldr	r5, [pc, #32]	; 9350 <internal_putk+0x30>
    932c:	ea000002 	b	933c <internal_putk+0x1c>
    9330:	e5953000 	ldr	r3, [r5]
    9334:	e12fff33 	blx	r3
    9338:	e2844001 	add	r4, r4, #1
    933c:	e5d40000 	ldrb	r0, [r4]
    9340:	e3500000 	cmp	r0, #0
    9344:	1afffff9 	bne	9330 <internal_putk+0x10>
    9348:	e3a00001 	mov	r0, #1
    934c:	e8bd8038 	pop	{r3, r4, r5, pc}
    9350:	00009e98 	muleq	r0, r8, lr

00009354 <isdigit>:
    9354:	e2400030 	sub	r0, r0, #48	; 0x30
    9358:	e3500009 	cmp	r0, #9
    935c:	83a00000 	movhi	r0, #0
    9360:	93a00001 	movls	r0, #1
    9364:	e12fff1e 	bx	lr

00009368 <pad>:
    9368:	e0611000 	rsb	r1, r1, r0
    936c:	e3a03020 	mov	r3, #32
    9370:	ea000002 	b	9380 <pad+0x18>
    9374:	e5c03000 	strb	r3, [r0]
    9378:	e2811001 	add	r1, r1, #1
    937c:	e2800001 	add	r0, r0, #1
    9380:	e1510002 	cmp	r1, r2
    9384:	bafffffa 	blt	9374 <pad+0xc>
    9388:	e3a03000 	mov	r3, #0
    938c:	e5c03000 	strb	r3, [r0]
    9390:	e12fff1e 	bx	lr

00009394 <reverse>:
    9394:	e063c002 	rsb	ip, r3, r2
    9398:	e28cc001 	add	ip, ip, #1
    939c:	e15c0001 	cmp	ip, r1
    93a0:	c061100c 	rsbgt	r1, r1, ip
    93a4:	c0833001 	addgt	r3, r3, r1
    93a8:	e2422001 	sub	r2, r2, #1
    93ac:	e1a01000 	mov	r1, r0
    93b0:	ea000002 	b	93c0 <reverse+0x2c>
    93b4:	e452c001 	ldrb	ip, [r2], #-1
    93b8:	e5c1c000 	strb	ip, [r1]
    93bc:	e2811001 	add	r1, r1, #1
    93c0:	e1520003 	cmp	r2, r3
    93c4:	2afffffa 	bcs	93b4 <reverse+0x20>
    93c8:	e3a03000 	mov	r3, #0
    93cc:	e5c13000 	strb	r3, [r1]
    93d0:	e12fff1e 	bx	lr

000093d4 <emit>:
    93d4:	e92d41f0 	push	{r4, r5, r6, r7, r8, lr}
    93d8:	e24dd048 	sub	sp, sp, #72	; 0x48
    93dc:	e1a05001 	mov	r5, r1
    93e0:	e1a04002 	mov	r4, r2
    93e4:	e59d2060 	ldr	r2, [sp, #96]	; 0x60
    93e8:	e1520004 	cmp	r2, r4
    93ec:	c2442001 	subgt	r2, r4, #1
    93f0:	e1a0c003 	mov	ip, r3
    93f4:	e2400002 	sub	r0, r0, #2
    93f8:	e350000e 	cmp	r0, #14
    93fc:	979ff100 	ldrls	pc, [pc, r0, lsl #2]
    9400:	ea000048 	b	9528 <emit+0x154>
    9404:	00009500 	andeq	r9, r0, r0, lsl #10
    9408:	00009528 	andeq	r9, r0, r8, lsr #10
    940c:	00009528 	andeq	r9, r0, r8, lsr #10
    9410:	00009528 	andeq	r9, r0, r8, lsr #10
    9414:	00009528 	andeq	r9, r0, r8, lsr #10
    9418:	00009528 	andeq	r9, r0, r8, lsr #10
    941c:	000094f4 	strdeq	r9, [r0], -r4
    9420:	00009528 	andeq	r9, r0, r8, lsr #10
    9424:	00009440 	andeq	r9, r0, r0, asr #8
    9428:	00009528 	andeq	r9, r0, r8, lsr #10
    942c:	00009528 	andeq	r9, r0, r8, lsr #10
    9430:	00009528 	andeq	r9, r0, r8, lsr #10
    9434:	00009528 	andeq	r9, r0, r8, lsr #10
    9438:	00009528 	andeq	r9, r0, r8, lsr #10
    943c:	000094b4 			; <UNDEFINED> instruction: 0x000094b4
    9440:	e59d1064 	ldr	r1, [sp, #100]	; 0x64
    9444:	e2911000 	adds	r1, r1, #0
    9448:	13a01001 	movne	r1, #1
    944c:	e0111fa3 	ands	r1, r1, r3, lsr #31
    9450:	1263c000 	rsbne	ip, r3, #0
    9454:	13a08001 	movne	r8, #1
    9458:	03a08000 	moveq	r8, #0
    945c:	e28d1008 	add	r1, sp, #8
    9460:	e59f7108 	ldr	r7, [pc, #264]	; 9570 <emit+0x19c>
    9464:	e59f6108 	ldr	r6, [pc, #264]	; 9574 <emit+0x1a0>
    9468:	ea000000 	b	9470 <emit+0x9c>
    946c:	e1a01000 	mov	r1, r0
    9470:	e2810001 	add	r0, r1, #1
    9474:	e083ec97 	umull	lr, r3, r7, ip
    9478:	e1a031a3 	lsr	r3, r3, #3
    947c:	e1a0e003 	mov	lr, r3
    9480:	e0833103 	add	r3, r3, r3, lsl #2
    9484:	e1a03083 	lsl	r3, r3, #1
    9488:	e063300c 	rsb	r3, r3, ip
    948c:	e7d63003 	ldrb	r3, [r6, r3]
    9490:	e5c13000 	strb	r3, [r1]
    9494:	e1a0c00e 	mov	ip, lr
    9498:	e35e0000 	cmp	lr, #0
    949c:	1afffff2 	bne	946c <emit+0x98>
    94a0:	e3580000 	cmp	r8, #0
    94a4:	12810002 	addne	r0, r1, #2
    94a8:	13a0302d 	movne	r3, #45	; 0x2d
    94ac:	15c13001 	strbne	r3, [r1, #1]
    94b0:	ea000025 	b	954c <emit+0x178>
    94b4:	e28d3008 	add	r3, sp, #8
    94b8:	e59fe0b8 	ldr	lr, [pc, #184]	; 9578 <emit+0x1a4>
    94bc:	ea000000 	b	94c4 <emit+0xf0>
    94c0:	e1a03000 	mov	r3, r0
    94c4:	e2830001 	add	r0, r3, #1
    94c8:	e20c100f 	and	r1, ip, #15
    94cc:	e7de1001 	ldrb	r1, [lr, r1]
    94d0:	e5c31000 	strb	r1, [r3]
    94d4:	e1b0c22c 	lsrs	ip, ip, #4
    94d8:	1afffff8 	bne	94c0 <emit+0xec>
    94dc:	e3a01078 	mov	r1, #120	; 0x78
    94e0:	e5c31001 	strb	r1, [r3, #1]
    94e4:	e2830003 	add	r0, r3, #3
    94e8:	e3a01030 	mov	r1, #48	; 0x30
    94ec:	e5c31002 	strb	r1, [r3, #2]
    94f0:	ea000015 	b	954c <emit+0x178>
    94f4:	e5cd3008 	strb	r3, [sp, #8]
    94f8:	e28d0009 	add	r0, sp, #9
    94fc:	ea000012 	b	954c <emit+0x178>
    9500:	e28d3008 	add	r3, sp, #8
    9504:	e59fe070 	ldr	lr, [pc, #112]	; 957c <emit+0x1a8>
    9508:	e2830001 	add	r0, r3, #1
    950c:	e20c1001 	and	r1, ip, #1
    9510:	e7de1001 	ldrb	r1, [lr, r1]
    9514:	e5c31000 	strb	r1, [r3]
    9518:	e1a03000 	mov	r3, r0
    951c:	e1b0c0ac 	lsrs	ip, ip, #1
    9520:	1afffff8 	bne	9508 <emit+0x134>
    9524:	ea000008 	b	954c <emit+0x178>
    9528:	ebffff72 	bl	92f8 <rpi_reset_putc>
    952c:	e59f304c 	ldr	r3, [pc, #76]	; 9580 <emit+0x1ac>
    9530:	e58d3000 	str	r3, [sp]
    9534:	e59f0048 	ldr	r0, [pc, #72]	; 9584 <emit+0x1b0>
    9538:	e59f1048 	ldr	r1, [pc, #72]	; 9588 <emit+0x1b4>
    953c:	e59f2048 	ldr	r2, [pc, #72]	; 958c <emit+0x1b8>
    9540:	e3a03077 	mov	r3, #119	; 0x77
    9544:	ebffff50 	bl	928c <printk>
    9548:	eb0000e7 	bl	98ec <clean_reboot>
    954c:	e28d1008 	add	r1, sp, #8
    9550:	ebffff84 	bl	9368 <pad>
    9554:	e1a02000 	mov	r2, r0
    9558:	e1a00005 	mov	r0, r5
    955c:	e1a01004 	mov	r1, r4
    9560:	e28d3008 	add	r3, sp, #8
    9564:	ebffff8a 	bl	9394 <reverse>
    9568:	e28dd048 	add	sp, sp, #72	; 0x48
    956c:	e8bd81f0 	pop	{r4, r5, r6, r7, r8, pc}
    9570:	cccccccd 	stclgt	12, cr12, [ip], {205}	; 0xcd
    9574:	0000a5a0 	andeq	sl, r0, r0, lsr #11
    9578:	0000a5ac 	andeq	sl, r0, ip, lsr #11
    957c:	0000a5c0 	andeq	sl, r0, r0, asr #11
    9580:	0000a59c 	muleq	r0, ip, r5
    9584:	00009ea0 	andeq	r9, r0, r0, lsr #29
    9588:	0000a588 	andeq	sl, r0, r8, lsl #11
    958c:	0000a564 	andeq	sl, r0, r4, ror #10

00009590 <rpi_set_output>:
    9590:	e52de004 	push	{lr}		; (str lr, [sp, #-4]!)
    9594:	e24dd00c 	sub	sp, sp, #12
    9598:	e3500000 	cmp	r0, #0
    959c:	1a000008 	bne	95c4 <rpi_set_output+0x34>
    95a0:	ebffff54 	bl	92f8 <rpi_reset_putc>
    95a4:	e59f3034 	ldr	r3, [pc, #52]	; 95e0 <rpi_set_output+0x50>
    95a8:	e58d3000 	str	r3, [sp]
    95ac:	e59f0030 	ldr	r0, [pc, #48]	; 95e4 <rpi_set_output+0x54>
    95b0:	e59f1030 	ldr	r1, [pc, #48]	; 95e8 <rpi_set_output+0x58>
    95b4:	e59f2030 	ldr	r2, [pc, #48]	; 95ec <rpi_set_output+0x5c>
    95b8:	e3a03020 	mov	r3, #32
    95bc:	ebffff32 	bl	928c <printk>
    95c0:	eb0000c9 	bl	98ec <clean_reboot>
    95c4:	e59f3024 	ldr	r3, [pc, #36]	; 95f0 <rpi_set_output+0x60>
    95c8:	e5830000 	str	r0, [r3]
    95cc:	e3510000 	cmp	r1, #0
    95d0:	159f301c 	ldrne	r3, [pc, #28]	; 95f4 <rpi_set_output+0x64>
    95d4:	15831000 	strne	r1, [r3]
    95d8:	e28dd00c 	add	sp, sp, #12
    95dc:	e49df004 	pop	{pc}		; (ldr pc, [sp], #4)
    95e0:	0000a5c4 	andeq	sl, r0, r4, asr #11
    95e4:	00009ea0 	andeq	r9, r0, r0, lsr #29
    95e8:	0000a588 	andeq	sl, r0, r8, lsl #11
    95ec:	0000a56c 	andeq	sl, r0, ip, ror #10
    95f0:	00009e98 	muleq	r0, r8, lr
    95f4:	00009e9c 	muleq	r0, ip, lr

000095f8 <va_printk>:
    95f8:	e92d4ff0 	push	{r4, r5, r6, r7, r8, r9, sl, fp, lr}
    95fc:	e24dd094 	sub	sp, sp, #148	; 0x94
    9600:	e1a0b000 	mov	fp, r0
    9604:	e58d200c 	str	r2, [sp, #12]
    9608:	e1a0a003 	mov	sl, r3
    960c:	e2411001 	sub	r1, r1, #1
    9610:	e0808001 	add	r8, r0, r1
    9614:	e3a03000 	mov	r3, #0
    9618:	e5c03000 	strb	r3, [r0]
    961c:	e1a04000 	mov	r4, r0
    9620:	e1a06002 	mov	r6, r2
    9624:	ea000095 	b	9880 <va_printk+0x288>
    9628:	e3530025 	cmp	r3, #37	; 0x25
    962c:	12866001 	addne	r6, r6, #1
    9630:	15c43000 	strbne	r3, [r4]
    9634:	12844001 	addne	r4, r4, #1
    9638:	1a000090 	bne	9880 <va_printk+0x288>
    963c:	e5d62001 	ldrb	r2, [r6, #1]
    9640:	e3520025 	cmp	r2, #37	; 0x25
    9644:	05c43000 	strbeq	r3, [r4]
    9648:	02866002 	addeq	r6, r6, #2
    964c:	02844001 	addeq	r4, r4, #1
    9650:	0a00008a 	beq	9880 <va_printk+0x288>
    9654:	e2866001 	add	r6, r6, #1
    9658:	e3a07000 	mov	r7, #0
    965c:	ea000004 	b	9674 <va_printk+0x7c>
    9660:	e0877107 	add	r7, r7, r7, lsl #2
    9664:	e1a07087 	lsl	r7, r7, #1
    9668:	e0877005 	add	r7, r7, r5
    966c:	e2477030 	sub	r7, r7, #48	; 0x30
    9670:	e2866001 	add	r6, r6, #1
    9674:	e5d65000 	ldrb	r5, [r6]
    9678:	e1a09005 	mov	r9, r5
    967c:	e1a00005 	mov	r0, r5
    9680:	ebffff33 	bl	9354 <isdigit>
    9684:	e3500000 	cmp	r0, #0
    9688:	1afffff4 	bne	9660 <va_printk+0x68>
    968c:	e357001f 	cmp	r7, #31
    9690:	9a000008 	bls	96b8 <va_printk+0xc0>
    9694:	ebffff17 	bl	92f8 <rpi_reset_putc>
    9698:	e59f320c 	ldr	r3, [pc, #524]	; 98ac <va_printk+0x2b4>
    969c:	e58d3000 	str	r3, [sp]
    96a0:	e59f0208 	ldr	r0, [pc, #520]	; 98b0 <va_printk+0x2b8>
    96a4:	e59f1208 	ldr	r1, [pc, #520]	; 98b4 <va_printk+0x2bc>
    96a8:	e59f2208 	ldr	r2, [pc, #520]	; 98b8 <va_printk+0x2c0>
    96ac:	e3a03095 	mov	r3, #149	; 0x95
    96b0:	ebfffef5 	bl	928c <printk>
    96b4:	eb00008c 	bl	98ec <clean_reboot>
    96b8:	e2455062 	sub	r5, r5, #98	; 0x62
    96bc:	e3550016 	cmp	r5, #22
    96c0:	979ff105 	ldrls	pc, [pc, r5, lsl #2]
    96c4:	ea000052 	b	9814 <va_printk+0x21c>
    96c8:	000097b8 			; <UNDEFINED> instruction: 0x000097b8
    96cc:	000097ec 	andeq	r9, r0, ip, ror #15
    96d0:	00009740 	andeq	r9, r0, r0, asr #14
    96d4:	00009814 	andeq	r9, r0, r4, lsl r8
    96d8:	00009724 	andeq	r9, r0, r4, lsr #14
    96dc:	00009814 	andeq	r9, r0, r4, lsl r8
    96e0:	00009814 	andeq	r9, r0, r4, lsl r8
    96e4:	00009814 	andeq	r9, r0, r4, lsl r8
    96e8:	00009814 	andeq	r9, r0, r4, lsl r8
    96ec:	00009814 	andeq	r9, r0, r4, lsl r8
    96f0:	00009814 	andeq	r9, r0, r4, lsl r8
    96f4:	00009814 	andeq	r9, r0, r4, lsl r8
    96f8:	00009814 	andeq	r9, r0, r4, lsl r8
    96fc:	00009814 	andeq	r9, r0, r4, lsl r8
    9700:	00009790 	muleq	r0, r0, r7
    9704:	00009814 	andeq	r9, r0, r4, lsl r8
    9708:	00009814 	andeq	r9, r0, r4, lsl r8
    970c:	000097e0 	andeq	r9, r0, r0, ror #15
    9710:	00009814 	andeq	r9, r0, r4, lsl r8
    9714:	00009768 	andeq	r9, r0, r8, ror #14
    9718:	00009814 	andeq	r9, r0, r4, lsl r8
    971c:	00009814 	andeq	r9, r0, r4, lsl r8
    9720:	00009790 	muleq	r0, r0, r7
    9724:	ebfffef3 	bl	92f8 <rpi_reset_putc>
    9728:	e59f018c 	ldr	r0, [pc, #396]	; 98bc <va_printk+0x2c4>
    972c:	e59f1180 	ldr	r1, [pc, #384]	; 98b4 <va_printk+0x2bc>
    9730:	e59f2180 	ldr	r2, [pc, #384]	; 98b8 <va_printk+0x2c0>
    9734:	e3a0309b 	mov	r3, #155	; 0x9b
    9738:	ebfffed3 	bl	928c <printk>
    973c:	eb00006a 	bl	98ec <clean_reboot>
    9740:	e59a3000 	ldr	r3, [sl]
    9744:	e28aa004 	add	sl, sl, #4
    9748:	e58d7000 	str	r7, [sp]
    974c:	e3a02001 	mov	r2, #1
    9750:	e58d2004 	str	r2, [sp, #4]
    9754:	e3a0000a 	mov	r0, #10
    9758:	e28d1010 	add	r1, sp, #16
    975c:	e3a02080 	mov	r2, #128	; 0x80
    9760:	ebffff1b 	bl	93d4 <emit>
    9764:	ea00003b 	b	9858 <va_printk+0x260>
    9768:	e59a3000 	ldr	r3, [sl]
    976c:	e28aa004 	add	sl, sl, #4
    9770:	e58d7000 	str	r7, [sp]
    9774:	e3a02000 	mov	r2, #0
    9778:	e58d2004 	str	r2, [sp, #4]
    977c:	e3a0000a 	mov	r0, #10
    9780:	e28d1010 	add	r1, sp, #16
    9784:	e3a02080 	mov	r2, #128	; 0x80
    9788:	ebffff11 	bl	93d4 <emit>
    978c:	ea000031 	b	9858 <va_printk+0x260>
    9790:	e59a3000 	ldr	r3, [sl]
    9794:	e28aa004 	add	sl, sl, #4
    9798:	e58d7000 	str	r7, [sp]
    979c:	e3a02000 	mov	r2, #0
    97a0:	e58d2004 	str	r2, [sp, #4]
    97a4:	e3a00010 	mov	r0, #16
    97a8:	e08d1000 	add	r1, sp, r0
    97ac:	e3a02080 	mov	r2, #128	; 0x80
    97b0:	ebffff07 	bl	93d4 <emit>
    97b4:	ea000027 	b	9858 <va_printk+0x260>
    97b8:	e59a3000 	ldr	r3, [sl]
    97bc:	e28aa004 	add	sl, sl, #4
    97c0:	e58d7000 	str	r7, [sp]
    97c4:	e3a02000 	mov	r2, #0
    97c8:	e58d2004 	str	r2, [sp, #4]
    97cc:	e3a00002 	mov	r0, #2
    97d0:	e28d1010 	add	r1, sp, #16
    97d4:	e3a02080 	mov	r2, #128	; 0x80
    97d8:	ebfffefd 	bl	93d4 <emit>
    97dc:	ea00001d 	b	9858 <va_printk+0x260>
    97e0:	e59a0000 	ldr	r0, [sl]
    97e4:	e28aa004 	add	sl, sl, #4
    97e8:	ea00001a 	b	9858 <va_printk+0x260>
    97ec:	e59a3000 	ldr	r3, [sl]
    97f0:	e28aa004 	add	sl, sl, #4
    97f4:	e58d7000 	str	r7, [sp]
    97f8:	e3a02000 	mov	r2, #0
    97fc:	e58d2004 	str	r2, [sp, #4]
    9800:	e3a00008 	mov	r0, #8
    9804:	e28d1010 	add	r1, sp, #16
    9808:	e3a02080 	mov	r2, #128	; 0x80
    980c:	ebfffef0 	bl	93d4 <emit>
    9810:	ea000010 	b	9858 <va_printk+0x260>
    9814:	e3a03000 	mov	r3, #0
    9818:	e5c63001 	strb	r3, [r6, #1]
    981c:	e59f009c 	ldr	r0, [pc, #156]	; 98c0 <va_printk+0x2c8>
    9820:	e1a01009 	mov	r1, r9
    9824:	e1a02009 	mov	r2, r9
    9828:	ebfffe97 	bl	928c <printk>
    982c:	e59f3090 	ldr	r3, [pc, #144]	; 98c4 <va_printk+0x2cc>
    9830:	e5933000 	ldr	r3, [r3]
    9834:	e59d000c 	ldr	r0, [sp, #12]
    9838:	e12fff33 	blx	r3
    983c:	ebfffead 	bl	92f8 <rpi_reset_putc>
    9840:	e59f0080 	ldr	r0, [pc, #128]	; 98c8 <va_printk+0x2d0>
    9844:	e59f1068 	ldr	r1, [pc, #104]	; 98b4 <va_printk+0x2bc>
    9848:	e59f2068 	ldr	r2, [pc, #104]	; 98b8 <va_printk+0x2c0>
    984c:	e3a030bf 	mov	r3, #191	; 0xbf
    9850:	ebfffe8d 	bl	928c <printk>
    9854:	eb000024 	bl	98ec <clean_reboot>
    9858:	e2866001 	add	r6, r6, #1
    985c:	ea000002 	b	986c <va_printk+0x274>
    9860:	e2800001 	add	r0, r0, #1
    9864:	e5c43000 	strb	r3, [r4]
    9868:	e2844001 	add	r4, r4, #1
    986c:	e1540008 	cmp	r4, r8
    9870:	2a000002 	bcs	9880 <va_printk+0x288>
    9874:	e5d03000 	ldrb	r3, [r0]
    9878:	e3530000 	cmp	r3, #0
    987c:	1afffff7 	bne	9860 <va_printk+0x268>
    9880:	e5d63000 	ldrb	r3, [r6]
    9884:	e3530000 	cmp	r3, #0
    9888:	0a000001 	beq	9894 <va_printk+0x29c>
    988c:	e1540008 	cmp	r4, r8
    9890:	3affff64 	bcc	9628 <va_printk+0x30>
    9894:	e2840001 	add	r0, r4, #1
    9898:	e3a03000 	mov	r3, #0
    989c:	e5c43000 	strb	r3, [r4]
    98a0:	e06b0000 	rsb	r0, fp, r0
    98a4:	e28dd094 	add	sp, sp, #148	; 0x94
    98a8:	e8bd8ff0 	pop	{r4, r5, r6, r7, r8, r9, sl, fp, pc}
    98ac:	0000a5cc 	andeq	sl, r0, ip, asr #11
    98b0:	00009ea0 	andeq	r9, r0, r0, lsr #29
    98b4:	0000a588 	andeq	sl, r0, r8, lsl #11
    98b8:	0000a57c 	andeq	sl, r0, ip, ror r5
    98bc:	0000a5d8 	ldrdeq	sl, [r0], -r8
    98c0:	0000a600 	andeq	sl, r0, r0, lsl #12
    98c4:	00009e9c 	muleq	r0, ip, lr
    98c8:	0000a630 	andeq	sl, r0, r0, lsr r6

000098cc <enable_cache>:
    98cc:	ee113f10 	mrc	15, 0, r3, cr1, cr0, {0}
    98d0:	e3833b06 	orr	r3, r3, #6144	; 0x1800
    98d4:	ee013f10 	mcr	15, 0, r3, cr1, cr0, {0}
    98d8:	e12fff1e 	bx	lr

000098dc <disable_cache>:
    98dc:	ee113f10 	mrc	15, 0, r3, cr1, cr0, {0}
    98e0:	e3c33b06 	bic	r3, r3, #6144	; 0x1800
    98e4:	ee013f10 	mcr	15, 0, r3, cr1, cr0, {0}
    98e8:	e12fff1e 	bx	lr

000098ec <clean_reboot>:
    98ec:	e92d4008 	push	{r3, lr}
    98f0:	eb00004a 	bl	9a20 <reboot_handler>
    98f4:	e59f3014 	ldr	r3, [pc, #20]	; 9910 <clean_reboot+0x24>
    98f8:	e5933000 	ldr	r3, [r3]
    98fc:	e59f0010 	ldr	r0, [pc, #16]	; 9914 <clean_reboot+0x28>
    9900:	e12fff33 	blx	r3
    9904:	e3a00064 	mov	r0, #100	; 0x64
    9908:	eb000099 	bl	9b74 <delay_ms>
    990c:	eb00006a 	bl	9abc <rpi_reboot>
    9910:	00009e9c 	muleq	r0, ip, lr
    9914:	0000a650 	andeq	sl, r0, r0, asr r6

00009918 <_cstart>:
    9918:	e92d4008 	push	{r3, lr}
    991c:	e59f3024 	ldr	r3, [pc, #36]	; 9948 <_cstart+0x30>
    9920:	e59f2024 	ldr	r2, [pc, #36]	; 994c <_cstart+0x34>
    9924:	e3a01000 	mov	r1, #0
    9928:	ea000001 	b	9934 <_cstart+0x1c>
    992c:	e5831000 	str	r1, [r3]
    9930:	e2833004 	add	r3, r3, #4
    9934:	e1530002 	cmp	r3, r2
    9938:	3afffffb 	bcc	992c <_cstart+0x14>
    993c:	eb000036 	bl	9a1c <cstart_handler>
    9940:	ebfffa9c 	bl	83b8 <notmain>
    9944:	ebffffe8 	bl	98ec <clean_reboot>
    9948:	0000a774 	andeq	sl, r0, r4, ror r7
    994c:	0000ab98 	muleq	r0, r8, fp

00009950 <fast_interrupt_vector>:
    9950:	e52de004 	push	{lr}		; (str lr, [sp, #-4]!)
    9954:	e24dd00c 	sub	sp, sp, #12
    9958:	e1a04000 	mov	r4, r0
    995c:	ebfffe65 	bl	92f8 <rpi_reset_putc>
    9960:	e59f301c 	ldr	r3, [pc, #28]	; 9984 <fast_interrupt_vector+0x34>
    9964:	e58d3000 	str	r3, [sp]
    9968:	e58d4004 	str	r4, [sp, #4]
    996c:	e59f0014 	ldr	r0, [pc, #20]	; 9988 <fast_interrupt_vector+0x38>
    9970:	e59f1014 	ldr	r1, [pc, #20]	; 998c <fast_interrupt_vector+0x3c>
    9974:	e59f2014 	ldr	r2, [pc, #20]	; 9990 <fast_interrupt_vector+0x40>
    9978:	e3a03002 	mov	r3, #2
    997c:	ebfffe42 	bl	928c <printk>
    9980:	ebffffd9 	bl	98ec <clean_reboot>
    9984:	0000a6d4 	ldrdeq	sl, [r0], -r4
    9988:	0000a674 	andeq	sl, r0, r4, ror r6
    998c:	0000a6b0 			; <UNDEFINED> instruction: 0x0000a6b0
    9990:	0000a65c 	andeq	sl, r0, ip, asr r6

00009994 <reset_vector>:
    9994:	e52de004 	push	{lr}		; (str lr, [sp, #-4]!)
    9998:	e24dd00c 	sub	sp, sp, #12
    999c:	e1a04000 	mov	r4, r0
    99a0:	ebfffe54 	bl	92f8 <rpi_reset_putc>
    99a4:	e59f301c 	ldr	r3, [pc, #28]	; 99c8 <reset_vector+0x34>
    99a8:	e58d3000 	str	r3, [sp]
    99ac:	e58d4004 	str	r4, [sp, #4]
    99b0:	e59f0014 	ldr	r0, [pc, #20]	; 99cc <reset_vector+0x38>
    99b4:	e59f1014 	ldr	r1, [pc, #20]	; 99d0 <reset_vector+0x3c>
    99b8:	e59f2014 	ldr	r2, [pc, #20]	; 99d4 <reset_vector+0x40>
    99bc:	e3a03002 	mov	r3, #2
    99c0:	ebfffe31 	bl	928c <printk>
    99c4:	ebffffc8 	bl	98ec <clean_reboot>
    99c8:	0000a710 	andeq	sl, r0, r0, lsl r7
    99cc:	0000a674 	andeq	sl, r0, r4, ror r6
    99d0:	0000a6ec 	andeq	sl, r0, ip, ror #13
    99d4:	0000a6dc 	ldrdeq	sl, [r0], -ip

000099d8 <undefined_instruction_vector>:
    99d8:	e52de004 	push	{lr}		; (str lr, [sp, #-4]!)
    99dc:	e24dd00c 	sub	sp, sp, #12
    99e0:	e1a04000 	mov	r4, r0
    99e4:	ebfffe43 	bl	92f8 <rpi_reset_putc>
    99e8:	e59f301c 	ldr	r3, [pc, #28]	; 9a0c <undefined_instruction_vector+0x34>
    99ec:	e58d3000 	str	r3, [sp]
    99f0:	e58d4004 	str	r4, [sp, #4]
    99f4:	e59f0014 	ldr	r0, [pc, #20]	; 9a10 <undefined_instruction_vector+0x38>
    99f8:	e59f1014 	ldr	r1, [pc, #20]	; 9a14 <undefined_instruction_vector+0x3c>
    99fc:	e59f2014 	ldr	r2, [pc, #20]	; 9a18 <undefined_instruction_vector+0x40>
    9a00:	e3a03002 	mov	r3, #2
    9a04:	ebfffe20 	bl	928c <printk>
    9a08:	ebffffb7 	bl	98ec <clean_reboot>
    9a0c:	0000a764 	andeq	sl, r0, r4, ror #14
    9a10:	0000a674 	andeq	sl, r0, r4, ror r6
    9a14:	0000a738 	andeq	sl, r0, r8, lsr r7
    9a18:	0000a718 	andeq	sl, r0, r8, lsl r7

00009a1c <cstart_handler>:
    9a1c:	e12fff1e 	bx	lr

00009a20 <reboot_handler>:
    9a20:	e12fff1e 	bx	lr

00009a24 <int_init>:
    9a24:	e92d4008 	push	{r3, lr}
    9a28:	eb00005b 	bl	9b9c <dev_barrier>
    9a2c:	e59f004c 	ldr	r0, [pc, #76]	; 9a80 <int_init+0x5c>
    9a30:	e3e01000 	mvn	r1, #0
    9a34:	eb000060 	bl	9bbc <PUT32>
    9a38:	e59f0044 	ldr	r0, [pc, #68]	; 9a84 <int_init+0x60>
    9a3c:	e3e01000 	mvn	r1, #0
    9a40:	eb00005d 	bl	9bbc <PUT32>
    9a44:	eb000054 	bl	9b9c <dev_barrier>
    9a48:	e59f3038 	ldr	r3, [pc, #56]	; 9a88 <int_init+0x64>
    9a4c:	e59f0038 	ldr	r0, [pc, #56]	; 9a8c <int_init+0x68>
    9a50:	e0630000 	rsb	r0, r3, r0
    9a54:	e1a00140 	asr	r0, r0, #2
    9a58:	e3a03000 	mov	r3, #0
    9a5c:	e59fc024 	ldr	ip, [pc, #36]	; 9a88 <int_init+0x64>
    9a60:	ea000003 	b	9a74 <int_init+0x50>
    9a64:	e1a02103 	lsl	r2, r3, #2
    9a68:	e79c1103 	ldr	r1, [ip, r3, lsl #2]
    9a6c:	e5821000 	str	r1, [r2]
    9a70:	e2833001 	add	r3, r3, #1
    9a74:	e1530000 	cmp	r3, r0
    9a78:	3afffff9 	bcc	9a64 <int_init+0x40>
    9a7c:	e8bd8008 	pop	{r3, pc}
    9a80:	2000b21c 	andcs	fp, r0, ip, lsl r2
    9a84:	2000b220 	andcs	fp, r0, r0, lsr #4
    9a88:	000089d0 	ldrdeq	r8, [r0], -r0
    9a8c:	00008a10 	andeq	r8, r0, r0, lsl sl

00009a90 <at_user_level>:
    9a90:	e10f0000 	mrs	r0, CPSR
    9a94:	e200001f 	and	r0, r0, #31
    9a98:	e3500010 	cmp	r0, #16
    9a9c:	13a00000 	movne	r0, #0
    9aa0:	03a00001 	moveq	r0, #1
    9aa4:	e12fff1e 	bx	lr

00009aa8 <set_user_level>:
    9aa8:	e10f3000 	mrs	r3, CPSR
    9aac:	e3c3301f 	bic	r3, r3, #31
    9ab0:	e3833010 	orr	r3, r3, #16
    9ab4:	e129f003 	msr	CPSR_fc, r3
    9ab8:	e12fff1e 	bx	lr

00009abc <rpi_reboot>:
    9abc:	e92d4008 	push	{r3, lr}
    9ac0:	ebfffff2 	bl	9a90 <at_user_level>
    9ac4:	e3500000 	cmp	r0, #0
    9ac8:	0a000000 	beq	9ad0 <rpi_reboot+0x14>
    9acc:	ebfffff5 	bl	9aa8 <set_user_level>
    9ad0:	e3a0001e 	mov	r0, #30
    9ad4:	eb000026 	bl	9b74 <delay_ms>
    9ad8:	e59f0014 	ldr	r0, [pc, #20]	; 9af4 <rpi_reboot+0x38>
    9adc:	e59f1014 	ldr	r1, [pc, #20]	; 9af8 <rpi_reboot+0x3c>
    9ae0:	eb000035 	bl	9bbc <PUT32>
    9ae4:	e59f0010 	ldr	r0, [pc, #16]	; 9afc <rpi_reboot+0x40>
    9ae8:	e59f1010 	ldr	r1, [pc, #16]	; 9b00 <rpi_reboot+0x44>
    9aec:	eb000032 	bl	9bbc <PUT32>
    9af0:	eafffffe 	b	9af0 <rpi_reboot+0x34>
    9af4:	20100024 	andscs	r0, r0, r4, lsr #32
    9af8:	5a000001 	bpl	9b04 <delay_cycles>
    9afc:	2010001c 	andscs	r0, r0, ip, lsl r0
    9b00:	5a000020 	bpl	9b88 <delay_sec>

00009b04 <delay_cycles>:
    9b04:	ea000001 	b	9b10 <delay_cycles+0xc>
    9b08:	e2811000 	add	r1, r1, #0
    9b0c:	e1a00003 	mov	r0, r3
    9b10:	e2403001 	sub	r3, r0, #1
    9b14:	e3500000 	cmp	r0, #0
    9b18:	1afffffa 	bne	9b08 <delay_cycles+0x4>
    9b1c:	e12fff1e 	bx	lr

00009b20 <timer_get_usec_raw>:
    9b20:	e92d4008 	push	{r3, lr}
    9b24:	e59f0004 	ldr	r0, [pc, #4]	; 9b30 <timer_get_usec_raw+0x10>
    9b28:	eb00002f 	bl	9bec <GET32>
    9b2c:	e8bd8008 	pop	{r3, pc}
    9b30:	20003004 	andcs	r3, r0, r4

00009b34 <timer_get_usec>:
    9b34:	e92d4010 	push	{r4, lr}
    9b38:	eb000017 	bl	9b9c <dev_barrier>
    9b3c:	ebfffff7 	bl	9b20 <timer_get_usec_raw>
    9b40:	e1a04000 	mov	r4, r0
    9b44:	eb000014 	bl	9b9c <dev_barrier>
    9b48:	e1a00004 	mov	r0, r4
    9b4c:	e8bd8010 	pop	{r4, pc}

00009b50 <delay_us>:
    9b50:	e92d4038 	push	{r3, r4, r5, lr}
    9b54:	e1a05000 	mov	r5, r0
    9b58:	ebfffff5 	bl	9b34 <timer_get_usec>
    9b5c:	e1a04000 	mov	r4, r0
    9b60:	ebfffff3 	bl	9b34 <timer_get_usec>
    9b64:	e0640000 	rsb	r0, r4, r0
    9b68:	e1500005 	cmp	r0, r5
    9b6c:	3afffffb 	bcc	9b60 <delay_us+0x10>
    9b70:	e8bd8038 	pop	{r3, r4, r5, pc}

00009b74 <delay_ms>:
    9b74:	e92d4008 	push	{r3, lr}
    9b78:	e3a03ffa 	mov	r3, #1000	; 0x3e8
    9b7c:	e0000093 	mul	r0, r3, r0
    9b80:	ebfffff2 	bl	9b50 <delay_us>
    9b84:	e8bd8008 	pop	{r3, pc}

00009b88 <delay_sec>:
    9b88:	e92d4008 	push	{r3, lr}
    9b8c:	e3a03ffa 	mov	r3, #1000	; 0x3e8
    9b90:	e0000093 	mul	r0, r3, r0
    9b94:	ebfffff6 	bl	9b74 <delay_ms>
    9b98:	e8bd8008 	pop	{r3, pc}

00009b9c <dev_barrier>:
    9b9c:	ea000002 	b	9bac <dsb>

00009ba0 <dmb>:
    9ba0:	e3a00000 	mov	r0, #0
    9ba4:	ee070fba 	mcr	15, 0, r0, cr7, cr10, {5}
    9ba8:	e12fff1e 	bx	lr

00009bac <dsb>:
    9bac:	ee070f9a 	mcr	15, 0, r0, cr7, cr10, {4}
    9bb0:	e12fff1e 	bx	lr

00009bb4 <put32>:
    9bb4:	e5801000 	str	r1, [r0]
    9bb8:	e12fff1e 	bx	lr

00009bbc <PUT32>:
    9bbc:	e5801000 	str	r1, [r0]
    9bc0:	e12fff1e 	bx	lr

00009bc4 <put16>:
    9bc4:	e1c010b0 	strh	r1, [r0]
    9bc8:	e12fff1e 	bx	lr

00009bcc <PUT16>:
    9bcc:	e1c010b0 	strh	r1, [r0]
    9bd0:	e12fff1e 	bx	lr

00009bd4 <put8>:
    9bd4:	e5c01000 	strb	r1, [r0]
    9bd8:	e12fff1e 	bx	lr

00009bdc <PUT8>:
    9bdc:	e5c01000 	strb	r1, [r0]
    9be0:	e12fff1e 	bx	lr

00009be4 <get32>:
    9be4:	e5900000 	ldr	r0, [r0]
    9be8:	e12fff1e 	bx	lr

00009bec <GET32>:
    9bec:	e5900000 	ldr	r0, [r0]
    9bf0:	e12fff1e 	bx	lr

00009bf4 <GETPC>:
    9bf4:	e1a0000e 	mov	r0, lr
    9bf8:	e12fff1e 	bx	lr

00009bfc <dummy>:
    9bfc:	e12fff1e 	bx	lr

00009c00 <or_in32>:
    9c00:	e92d4070 	push	{r4, r5, r6, lr}
    9c04:	e1a04000 	mov	r4, r0
    9c08:	e1a05001 	mov	r5, r1
    9c0c:	ebfffff4 	bl	9be4 <get32>
    9c10:	e1801005 	orr	r1, r0, r5
    9c14:	e1a00004 	mov	r0, r4
    9c18:	ebffffe5 	bl	9bb4 <put32>
    9c1c:	e8bd8070 	pop	{r4, r5, r6, pc}

00009c20 <uart_init>:
    9c20:	e92d4010 	push	{r4, lr}
    9c24:	e3a01002 	mov	r1, #2
    9c28:	e3a0000e 	mov	r0, #14
    9c2c:	eb000051 	bl	9d78 <gpio_set_function>
    9c30:	e3a01002 	mov	r1, #2
    9c34:	e3a0000f 	mov	r0, #15
    9c38:	eb00004e 	bl	9d78 <gpio_set_function>
    9c3c:	ebffffd6 	bl	9b9c <dev_barrier>
    9c40:	e3a01001 	mov	r1, #1
    9c44:	e59f0064 	ldr	r0, [pc, #100]	; 9cb0 <uart_init+0x90>
    9c48:	ebffffec 	bl	9c00 <or_in32>
    9c4c:	ebffffd2 	bl	9b9c <dev_barrier>
    9c50:	e59f405c 	ldr	r4, [pc, #92]	; 9cb4 <uart_init+0x94>
    9c54:	e3a01000 	mov	r1, #0
    9c58:	e1a00004 	mov	r0, r4
    9c5c:	ebffffd4 	bl	9bb4 <put32>
    9c60:	e3a01000 	mov	r1, #0
    9c64:	e59f004c 	ldr	r0, [pc, #76]	; 9cb8 <uart_init+0x98>
    9c68:	ebffffd1 	bl	9bb4 <put32>
    9c6c:	e3a01003 	mov	r1, #3
    9c70:	e59f0044 	ldr	r0, [pc, #68]	; 9cbc <uart_init+0x9c>
    9c74:	ebffffce 	bl	9bb4 <put32>
    9c78:	e3a01000 	mov	r1, #0
    9c7c:	e59f003c 	ldr	r0, [pc, #60]	; 9cc0 <uart_init+0xa0>
    9c80:	ebffffcb 	bl	9bb4 <put32>
    9c84:	e3a010c7 	mov	r1, #199	; 0xc7
    9c88:	e59f0034 	ldr	r0, [pc, #52]	; 9cc4 <uart_init+0xa4>
    9c8c:	ebffffc8 	bl	9bb4 <put32>
    9c90:	e59f1030 	ldr	r1, [pc, #48]	; 9cc8 <uart_init+0xa8>
    9c94:	e59f0030 	ldr	r0, [pc, #48]	; 9ccc <uart_init+0xac>
    9c98:	ebffffc5 	bl	9bb4 <put32>
    9c9c:	e3a01003 	mov	r1, #3
    9ca0:	e1a00004 	mov	r0, r4
    9ca4:	ebffffc2 	bl	9bb4 <put32>
    9ca8:	ebffffbb 	bl	9b9c <dev_barrier>
    9cac:	e8bd8010 	pop	{r4, pc}
    9cb0:	20215004 	eorcs	r5, r1, r4
    9cb4:	20215060 	eorcs	r5, r1, r0, rrx
    9cb8:	20215044 	eorcs	r5, r1, r4, asr #32
    9cbc:	2021504c 	eorcs	r5, r1, ip, asr #32
    9cc0:	20215050 	eorcs	r5, r1, r0, asr r0
    9cc4:	20215048 	eorcs	r5, r1, r8, asr #32
    9cc8:	0000010e 	andeq	r0, r0, lr, lsl #2
    9ccc:	20215068 	eorcs	r5, r1, r8, rrx

00009cd0 <uart_can_getc>:
    9cd0:	e92d4010 	push	{r4, lr}
    9cd4:	e59f0008 	ldr	r0, [pc, #8]	; 9ce4 <uart_can_getc+0x14>
    9cd8:	ebffffc1 	bl	9be4 <get32>
    9cdc:	e2000001 	and	r0, r0, #1
    9ce0:	e8bd8010 	pop	{r4, pc}
    9ce4:	20215064 	eorcs	r5, r1, r4, rrx

00009ce8 <uart_can_putc>:
    9ce8:	e92d4010 	push	{r4, lr}
    9cec:	e59f0010 	ldr	r0, [pc, #16]	; 9d04 <uart_can_putc+0x1c>
    9cf0:	ebffffbb 	bl	9be4 <get32>
    9cf4:	e3100002 	tst	r0, #2
    9cf8:	13a00001 	movne	r0, #1
    9cfc:	03a00000 	moveq	r0, #0
    9d00:	e8bd8010 	pop	{r4, pc}
    9d04:	20215064 	eorcs	r5, r1, r4, rrx

00009d08 <uart_getc>:
    9d08:	e92d4010 	push	{r4, lr}
    9d0c:	ebffffa2 	bl	9b9c <dev_barrier>
    9d10:	ebffffee 	bl	9cd0 <uart_can_getc>
    9d14:	e3500000 	cmp	r0, #0
    9d18:	0afffffc 	beq	9d10 <uart_getc+0x8>
    9d1c:	e59f0010 	ldr	r0, [pc, #16]	; 9d34 <uart_getc+0x2c>
    9d20:	ebffffaf 	bl	9be4 <get32>
    9d24:	e6ef4070 	uxtb	r4, r0
    9d28:	ebffff9b 	bl	9b9c <dev_barrier>
    9d2c:	e1a00004 	mov	r0, r4
    9d30:	e8bd8010 	pop	{r4, pc}
    9d34:	20215040 	eorcs	r5, r1, r0, asr #32

00009d38 <uart_putc>:
    9d38:	e92d4010 	push	{r4, lr}
    9d3c:	e1a04000 	mov	r4, r0
    9d40:	ebffff95 	bl	9b9c <dev_barrier>
    9d44:	ebffffe7 	bl	9ce8 <uart_can_putc>
    9d48:	e3500000 	cmp	r0, #0
    9d4c:	0afffffc 	beq	9d44 <uart_putc+0xc>
    9d50:	e6ef1074 	uxtb	r1, r4
    9d54:	e59f0008 	ldr	r0, [pc, #8]	; 9d64 <uart_putc+0x2c>
    9d58:	ebffff95 	bl	9bb4 <put32>
    9d5c:	ebffff8e 	bl	9b9c <dev_barrier>
    9d60:	e8bd8010 	pop	{r4, pc}
    9d64:	20215040 	eorcs	r5, r1, r0, asr #32

00009d68 <uart_has_data>:
    9d68:	e92d4010 	push	{r4, lr}
    9d6c:	ebffff8a 	bl	9b9c <dev_barrier>
    9d70:	ebffffd6 	bl	9cd0 <uart_can_getc>
    9d74:	e8bd8010 	pop	{r4, pc}

00009d78 <gpio_set_function>:
    9d78:	e350001f 	cmp	r0, #31
    9d7c:	812fff1e 	bxhi	lr
    9d80:	e3d13007 	bics	r3, r1, #7
    9d84:	112fff1e 	bxne	lr
    9d88:	e92d4070 	push	{r4, r5, r6, lr}
    9d8c:	e1a05001 	mov	r5, r1
    9d90:	e59f3044 	ldr	r3, [pc, #68]	; 9ddc <gpio_set_function+0x64>
    9d94:	e0832093 	umull	r2, r3, r3, r0
    9d98:	e1a031a3 	lsr	r3, r3, #3
    9d9c:	e1a06003 	mov	r6, r3
    9da0:	e0833103 	add	r3, r3, r3, lsl #2
    9da4:	e1a02083 	lsl	r2, r3, #1
    9da8:	e0403002 	sub	r3, r0, r2
    9dac:	e0834083 	add	r4, r3, r3, lsl #1
    9db0:	e2866302 	add	r6, r6, #134217728	; 0x8000000
    9db4:	e2866702 	add	r6, r6, #524288	; 0x80000
    9db8:	e1a06106 	lsl	r6, r6, #2
    9dbc:	e1a00006 	mov	r0, r6
    9dc0:	ebffff89 	bl	9bec <GET32>
    9dc4:	e3a01007 	mov	r1, #7
    9dc8:	e1c01411 	bic	r1, r0, r1, lsl r4
    9dcc:	e1811415 	orr	r1, r1, r5, lsl r4
    9dd0:	e1a00006 	mov	r0, r6
    9dd4:	ebffff78 	bl	9bbc <PUT32>
    9dd8:	e8bd8070 	pop	{r4, r5, r6, pc}
    9ddc:	cccccccd 	stclgt	12, cr12, [ip], {205}	; 0xcd

00009de0 <gpio_set_output>:
    9de0:	e92d4010 	push	{r4, lr}
    9de4:	e3a01001 	mov	r1, #1
    9de8:	ebffffe2 	bl	9d78 <gpio_set_function>
    9dec:	e8bd8010 	pop	{r4, pc}

00009df0 <gpio_set_on>:
    9df0:	e350001f 	cmp	r0, #31
    9df4:	812fff1e 	bxhi	lr
    9df8:	e92d4010 	push	{r4, lr}
    9dfc:	e3a01001 	mov	r1, #1
    9e00:	e1a01011 	lsl	r1, r1, r0
    9e04:	e59f0004 	ldr	r0, [pc, #4]	; 9e10 <gpio_set_on+0x20>
    9e08:	ebffff6b 	bl	9bbc <PUT32>
    9e0c:	e8bd8010 	pop	{r4, pc}
    9e10:	2020001c 	eorcs	r0, r0, ip, lsl r0

00009e14 <gpio_set_off>:
    9e14:	e350001f 	cmp	r0, #31
    9e18:	812fff1e 	bxhi	lr
    9e1c:	e92d4010 	push	{r4, lr}
    9e20:	e3a01001 	mov	r1, #1
    9e24:	e1a01011 	lsl	r1, r1, r0
    9e28:	e59f0004 	ldr	r0, [pc, #4]	; 9e34 <gpio_set_off+0x20>
    9e2c:	ebffff62 	bl	9bbc <PUT32>
    9e30:	e8bd8010 	pop	{r4, pc}
    9e34:	20200028 	eorcs	r0, r0, r8, lsr #32

00009e38 <gpio_set_input>:
    9e38:	e92d4010 	push	{r4, lr}
    9e3c:	e3a01000 	mov	r1, #0
    9e40:	ebffffcc 	bl	9d78 <gpio_set_function>
    9e44:	e8bd8010 	pop	{r4, pc}

00009e48 <gpio_write>:
    9e48:	e92d4010 	push	{r4, lr}
    9e4c:	e3510000 	cmp	r1, #0
    9e50:	1a000001 	bne	9e5c <gpio_write+0x14>
    9e54:	ebffffee 	bl	9e14 <gpio_set_off>
    9e58:	e8bd8010 	pop	{r4, pc}
    9e5c:	ebffffe3 	bl	9df0 <gpio_set_on>
    9e60:	e8bd8010 	pop	{r4, pc}

00009e64 <gpio_read>:
    9e64:	e350001f 	cmp	r0, #31
    9e68:	8a000007 	bhi	9e8c <gpio_read+0x28>
    9e6c:	e92d4010 	push	{r4, lr}
    9e70:	e200401f 	and	r4, r0, #31
    9e74:	e59f3018 	ldr	r3, [pc, #24]	; 9e94 <gpio_read+0x30>
    9e78:	e08302a0 	add	r0, r3, r0, lsr #5
    9e7c:	ebffff5a 	bl	9bec <GET32>
    9e80:	e1a00430 	lsr	r0, r0, r4
    9e84:	e2000001 	and	r0, r0, #1
    9e88:	e8bd8010 	pop	{r4, pc}
    9e8c:	e3e00000 	mvn	r0, #0
    9e90:	e12fff1e 	bx	lr
    9e94:	20200034 	eorcs	r0, r0, r4, lsr r0

Disassembly of section .data:

00009e98 <__data_start__>:
    9e98:	000092e4 	andeq	r9, r0, r4, ror #5

00009e9c <putk>:
    9e9c:	00009320 	andeq	r9, r0, r0, lsr #6

Disassembly of section .rodata:

00009ea0 <C.0.4443-0x1ec>:
    9ea0:	494e4150 	stmdbmi	lr, {r4, r6, r8, lr}^
    9ea4:	73253a43 	teqvc	r5, #274432	; 0x43000
    9ea8:	3a73253a 	bcc	1cd3398 <__bss_end__+0x1cc8800>
    9eac:	253a6425 	ldrcs	r6, [sl, #-1061]!	; 0x425
    9eb0:	00000a73 	andeq	r0, r0, r3, ror sl
    9eb4:	70632f2e 	rsbvc	r2, r3, lr, lsr #30
    9eb8:	752d7273 	strvc	r7, [sp, #-627]!	; 0x273
    9ebc:	2e6c6974 	mcrcs	9, 3, r6, cr12, cr4, {3}
    9ec0:	00000068 	andeq	r0, r0, r8, rrx
    9ec4:	65646f6d 	strbvs	r6, [r4, #-3949]!	; 0xf6d
    9ec8:	67656c5f 			; <UNDEFINED> instruction: 0x67656c5f
    9ecc:	6d286c61 	stcvs	12, cr6, [r8, #-388]!	; 0xfffffe7c
    9ed0:	2965646f 	stmdbcs	r5!, {r0, r1, r2, r3, r5, r6, sl, sp, lr}^
    9ed4:	00000000 	andeq	r0, r0, r0
    9ed8:	494e4150 	stmdbmi	lr, {r4, r6, r8, lr}^
    9edc:	73253a43 	teqvc	r5, #274432	; 0x43000
    9ee0:	3a73253a 	bcc	1cd33d0 <__bss_end__+0x1cc8838>
    9ee4:	693a6425 	ldmdbvs	sl!, {r0, r2, r5, sl, sp, lr}
    9ee8:	736f706d 	cmnvc	pc, #109	; 0x6d
    9eec:	6c626973 	stclvs	9, cr6, [r2], #-460	; 0xfffffe34
    9ef0:	000a0a65 	andeq	r0, sl, r5, ror #20
    9ef4:	74736574 	ldrbtvc	r6, [r3], #-1396	; 0x574
    9ef8:	302e3273 	eorcc	r3, lr, r3, ror r2
    9efc:	2d36312f 	ldfcss	f3, [r6, #-188]!	; 0xffffff44
    9f00:	74726170 	ldrbtvc	r6, [r2], #-368	; 0x170
    9f04:	65742d32 	ldrbvs	r2, [r4, #-3378]!	; 0xd32
    9f08:	2e397473 	mrccs	4, 1, r7, cr9, cr3, {3}
    9f0c:	00000063 	andeq	r0, r0, r3, rrx
    9f10:	69702f2e 	ldmdbvs	r0!, {r1, r2, r3, r5, r8, r9, sl, fp, sp}^
    9f14:	7379732d 	cmnvc	r9, #-1275068416	; 0xb4000000
    9f18:	636f6c2d 	cmnvs	pc, #11520	; 0x2d00
    9f1c:	00682e6b 	rsbeq	r2, r8, fp, ror #28
    9f20:	3d206c2a 	stccc	12, cr6, [r0, #-168]!	; 0xffffff58
    9f24:	0031203d 	eorseq	r2, r1, sp, lsr r0
    9f28:	3e2d6321 	cdpcc	3, 2, cr6, cr13, cr1, {1}
    9f2c:	65746e69 	ldrbvs	r6, [r4, #-3689]!	; 0xe69
    9f30:	61656c72 	smcvs	22210	; 0x56c2
    9f34:	676e6976 			; <UNDEFINED> instruction: 0x676e6976
    9f38:	7c20705f 	stcvc	0, cr7, [r0], #-380	; 0xfffffe84
    9f3c:	6f6d207c 	svcvs	0x006d207c
    9f40:	675f6564 	ldrbvs	r6, [pc, -r4, ror #10]
    9f44:	63287465 	teqvs	r8, #1694498816	; 0x65000000
    9f48:	5f727370 	svcpl	0x00727370
    9f4c:	28746567 	ldmdacs	r4!, {r0, r1, r2, r5, r6, r8, sl, sp, lr}^
    9f50:	3d202929 	stccc	9, cr2, [r0, #-164]!	; 0xffffff5c
    9f54:	5355203d 	cmppl	r5, #61	; 0x3d
    9f58:	4d5f5245 	lfmmi	f5, 2, [pc, #-276]	; 9e4c <gpio_write+0x4>
    9f5c:	0045444f 	subeq	r4, r5, pc, asr #8
    9f60:	3d746e63 	ldclcc	14, cr6, [r4, #-396]!	; 0xfffffe74
    9f64:	0000323d 	andeq	r3, r0, sp, lsr r2
    9f68:	52455355 	subpl	r5, r5, #1409286145	; 0x54000001
    9f6c:	444f4d20 	strbmi	r4, [pc], #-3360	; 9f74 <__data_end__+0xd4>
    9f70:	00000045 	andeq	r0, r0, r5, asr #32
    9f74:	20514946 	subscs	r4, r1, r6, asr #18
    9f78:	45444f4d 	strbmi	r4, [r4, #-3917]	; 0xf4d
    9f7c:	00000000 	andeq	r0, r0, r0
    9f80:	20515249 	subscs	r5, r1, r9, asr #4
    9f84:	45444f4d 	strbmi	r4, [r4, #-3917]	; 0xf4d
    9f88:	00000000 	andeq	r0, r0, r0
    9f8c:	45505553 	ldrbmi	r5, [r0, #-1363]	; 0x553
    9f90:	4f4d2052 	svcmi	0x004d2052
    9f94:	00004544 	andeq	r4, r0, r4, asr #10
    9f98:	524f4241 	subpl	r4, pc, #268435460	; 0x10000004
    9f9c:	4f4d2054 	svcmi	0x004d2054
    9fa0:	00004544 	andeq	r4, r0, r4, asr #10
    9fa4:	45444e55 	strbmi	r4, [r4, #-3669]	; 0xe55
    9fa8:	4f4d2046 	svcmi	0x004d2046
    9fac:	00004544 	andeq	r4, r0, r4, asr #10
    9fb0:	20535953 	subscs	r5, r3, r3, asr r9
    9fb4:	45444f4d 	strbmi	r4, [r4, #-3917]	; 0xf4d
    9fb8:	00000000 	andeq	r0, r0, r0
    9fbc:	494e4150 	stmdbmi	lr, {r4, r6, r8, lr}^
    9fc0:	73253a43 	teqvc	r5, #274432	; 0x43000
    9fc4:	3a73253a 	bcc	1cd34b4 <__bss_end__+0x1cc891c>
    9fc8:	753a6425 	ldrvc	r6, [sl, #-1061]!	; 0x425
    9fcc:	6f6e6b6e 	svcvs	0x006e6b6e
    9fd0:	6d206e77 	stcvs	14, cr6, [r0, #-476]!	; 0xfffffe24
    9fd4:	3a65646f 	bcc	1963198 <__bss_end__+0x1958600>
    9fd8:	78253c20 	stmdavc	r5!, {r5, sl, fp, ip, sp}
    9fdc:	000a0a3e 	andeq	r0, sl, lr, lsr sl
    9fe0:	65646f6d 	strbvs	r6, [r4, #-3949]!	; 0xf6d
    9fe4:	25203d20 	strcs	r3, [r0, #-3360]!	; 0xd20
    9fe8:	00000a73 	andeq	r0, r0, r3, ror sl
    9fec:	5f737973 	svcpl	0x00737973
    9ff0:	6b636f6c 	blvs	18e5da8 <__bss_end__+0x18db210>
    9ff4:	7972745f 	ldmdbvc	r2!, {r0, r1, r2, r3, r4, r6, sl, ip, sp, lr}^
    9ff8:	296c2628 	stmdbcs	ip!, {r3, r5, r9, sl, sp}^
    9ffc:	00000000 	andeq	r0, r0, r0
    a000:	73797321 	cmnvc	r9, #-2080374784	; 0x84000000
    a004:	636f6c5f 	cmnvs	pc, #24320	; 0x5f00
    a008:	72745f6b 	rsbsvc	r5, r4, #428	; 0x1ac
    a00c:	6c262879 	stcvs	8, cr2, [r6], #-484	; 0xfffffe1c
    a010:	00000029 	andeq	r0, r0, r9, lsr #32
    a014:	494e4150 	stmdbmi	lr, {r4, r6, r8, lr}^
    a018:	73253a43 	teqvc	r5, #274432	; 0x43000
    a01c:	3a73253a 	bcc	1cd350c <__bss_end__+0x1cc8974>
    a020:	633a6425 	teqvs	sl, #620756992	; 0x25000000
    a024:	6b636568 	blvs	18e35cc <__bss_end__+0x18d8a34>
    a028:	6f687320 	svcvs	0x00687320
    a02c:	20646c75 	rsbcs	r6, r4, r5, ror ip
    a030:	20746f6e 	rsbscs	r6, r4, lr, ror #30
    a034:	65766168 	ldrbvs	r6, [r6, #-360]!	; 0x168
    a038:	69616620 	stmdbvs	r1!, {r5, r9, sl, sp, lr}^
    a03c:	2164656c 	cmncs	r4, ip, ror #10
    a040:	00000a0a 	andeq	r0, r0, sl, lsl #20
    a044:	43435553 	movtmi	r5, #13651	; 0x3553
    a048:	3a535345 	bcc	14ded64 <__bss_end__+0x14d41cc>
    a04c:	00000000 	andeq	r0, r0, r0
    a050:	63656863 	cmnvs	r5, #6488064	; 0x630000
    a054:	7573206b 	ldrbvc	r2, [r3, #-107]!	; 0x6b
    a058:	65656363 	strbvs	r6, [r5, #-867]!	; 0x363
    a05c:	20646564 	rsbcs	r6, r4, r4, ror #10
    a060:	69207361 	stmdbvs	r0!, {r0, r5, r6, r8, r9, ip, sp, lr}
    a064:	68732074 	ldmdavs	r3!, {r2, r4, r5, r6, sp}^
    a068:	646c756f 	strbtvs	r7, [ip], #-1391	; 0x56f
    a06c:	76616820 	strbtvc	r6, [r1], -r0, lsr #16
    a070:	6e202c65 	cdpvs	12, 2, cr2, cr0, cr5, {3}
    a074:	61697274 	smcvs	38692	; 0x9724
    a078:	253d736c 	ldrcs	r7, [sp, #-876]!	; 0x36c
    a07c:	6e202c64 	cdpvs	12, 2, cr2, cr0, cr4, {3}
    a080:	6f727265 	svcvs	0x00727265
    a084:	253d7372 	ldrcs	r7, [sp, #-882]!	; 0x372
    a088:	00000a64 	andeq	r0, r0, r4, ror #20

0000a08c <C.0.4443>:
    a08c:	00000000 	andeq	r0, r0, r0
    a090:	000080ac 	andeq	r8, r0, ip, lsr #1
    a094:	00008234 	andeq	r8, r0, r4, lsr r2
    a098:	000082bc 			; <UNDEFINED> instruction: 0x000082bc
    a09c:	000082dc 	ldrdeq	r8, [r0], -ip
	...

0000a0c4 <__FUNCTION__.4439>:
    a0c4:	5f746e63 	svcpl	0x00746e63
    a0c8:	63656863 	cmnvs	r5, #6488064	; 0x630000
    a0cc:	0000006b 	andeq	r0, r0, fp, rrx

0000a0d0 <__FUNCTION__.4398>:
    a0d0:	5f737973 	svcpl	0x00737973
    a0d4:	6f6c6e75 	svcvs	0x006c6e75
    a0d8:	00006b63 	andeq	r6, r0, r3, ror #22

0000a0dc <__FUNCTION__.4429>:
    a0dc:	5f746e63 	svcpl	0x00746e63
    a0e0:	00000041 	andeq	r0, r0, r1, asr #32

0000a0e4 <__FUNCTION__.4406>:
    a0e4:	65646f6d 	strbvs	r6, [r4, #-3949]!	; 0xf6d
    a0e8:	7465675f 	strbtvc	r6, [r5], #-1887	; 0x75f
    a0ec:	00000000 	andeq	r0, r0, r0

0000a0f0 <__FUNCTION__.4251>:
    a0f0:	73746962 	cmnvc	r4, #1605632	; 0x188000
    a0f4:	7465675f 	strbtvc	r6, [r5], #-1887	; 0x75f
    a0f8:	00000000 	andeq	r0, r0, r0

0000a0fc <__FUNCTION__.4447>:
    a0fc:	6d746f6e 	ldclvs	15, cr6, [r4, #-440]!	; 0xfffffe48
    a100:	006e6961 	rsbeq	r6, lr, r1, ror #18

0000a104 <__FUNCTION__.4423>:
    a104:	65646f6d 	strbvs	r6, [r4, #-3949]!	; 0xf6d
    a108:	7274735f 	rsbsvc	r7, r4, #2080374785	; 0x7c000001
    a10c:	00000000 	andeq	r0, r0, r0
    a110:	34317063 	ldrtcc	r7, [r1], #-99	; 0x63
    a114:	6265642d 	rsbvs	r6, r5, #754974720	; 0x2d000000
    a118:	632e6775 	teqvs	lr, #30670848	; 0x1d40000
    a11c:	00000000 	andeq	r0, r0, r0
    a120:	30726377 	rsbscc	r6, r2, r7, ror r3
    a124:	6765725f 			; <UNDEFINED> instruction: 0x6765725f
    a128:	203d3d20 	eorscs	r3, sp, r0, lsr #26
    a12c:	30726377 	rsbscc	r6, r2, r7, ror r3
    a130:	7465675f 	strbtvc	r6, [r5], #-1887	; 0x75f
    a134:	00002928 	andeq	r2, r0, r8, lsr #18
    a138:	494e4150 	stmdbmi	lr, {r4, r6, r8, lr}^
    a13c:	73253a43 	teqvc	r5, #274432	; 0x43000
    a140:	3a73253a 	bcc	1cd3630 <__bss_end__+0x1cc8a98>
    a144:	693a6425 	ldmdbvs	sl!, {r0, r2, r5, sl, sp, lr}
    a148:	736f706d 	cmnvc	pc, #109	; 0x6d
    a14c:	6c626973 	stclvs	9, cr6, [r2], #-460	; 0xfffffe34
    a150:	73203a65 	teqvc	r0, #413696	; 0x65000
    a154:	6c756f68 	ldclvs	15, cr6, [r5], #-416	; 0xfffffe60
    a158:	6e6f2064 	cdpvs	0, 6, cr2, cr15, cr4, {3}
    a15c:	6720796c 	strvs	r7, [r0, -ip, ror #18]!
    a160:	64207465 	strtvs	r7, [r0], #-1125	; 0x465
    a164:	66617461 	strbtvs	r7, [r1], -r1, ror #8
    a168:	746c7561 	strbtvc	r7, [ip], #-1377	; 0x561
    a16c:	000a0a73 	andeq	r0, sl, r3, ror sl
    a170:	34317063 	ldrtcc	r7, [r1], #-99	; 0x63
    a174:	6265642d 	rsbvs	r6, r5, #754974720	; 0x2d000000
    a178:	682e6775 	stmdavs	lr!, {r0, r2, r4, r5, r6, r8, r9, sl, sp, lr}
    a17c:	00000000 	andeq	r0, r0, r0
    a180:	72616677 	rsbvc	r6, r1, #124780544	; 0x7700000
    a184:	7465675f 	strbtvc	r6, [r5], #-1887	; 0x75f
    a188:	342d2928 	strtcc	r2, [sp], #-2344	; 0x928
    a18c:	203d3d20 	eorscs	r3, sp, r0, lsr #26
    a190:	00006370 	andeq	r6, r0, r0, ror r3
    a194:	63746177 	cmnvs	r4, #-1073741795	; 0xc000001d
    a198:	5f747068 	svcpl	0x00747068
    a19c:	646e6168 	strbtvs	r6, [lr], #-360	; 0x168
    a1a0:	3072656c 	rsbscc	r6, r2, ip, ror #10
    a1a4:	00000000 	andeq	r0, r0, r0
    a1a8:	494e4150 	stmdbmi	lr, {r4, r6, r8, lr}^
    a1ac:	73253a43 	teqvc	r5, #274432	; 0x43000
    a1b0:	3a73253a 	bcc	1cd36a0 <__bss_end__+0x1cc8b08>
    a1b4:	693a6425 	ldmdbvs	sl!, {r0, r2, r5, sl, sp, lr}
    a1b8:	736f706d 	cmnvc	pc, #109	; 0x6d
    a1bc:	6c626973 	stclvs	9, cr6, [r2], #-460	; 0xfffffe34
    a1c0:	73203a65 	teqvc	r0, #413696	; 0x65000
    a1c4:	6c756f68 	ldclvs	15, cr6, [r5], #-416	; 0xfffffe60
    a1c8:	65672064 	strbvs	r2, [r7, #-100]!	; 0x64
    a1cc:	6f6e2074 	svcvs	0x006e2074
    a1d0:	68746f20 	ldmdavs	r4!, {r5, r8, r9, sl, fp, sp, lr}^
    a1d4:	66207265 	strtvs	r7, [r0], -r5, ror #4
    a1d8:	746c7561 	strbtvc	r7, [ip], #-1377	; 0x561
    a1dc:	000a0a73 	andeq	r0, sl, r3, ror sl
    a1e0:	706b7262 	rsbvc	r7, fp, r2, ror #4
    a1e4:	61685f74 	smcvs	34292	; 0x85f4
    a1e8:	656c646e 	strbvs	r6, [ip, #-1134]!	; 0x46e
    a1ec:	00003072 	andeq	r3, r0, r2, ror r0
    a1f0:	494e4150 	stmdbmi	lr, {r4, r6, r8, lr}^
    a1f4:	73253a43 	teqvc	r5, #274432	; 0x43000
    a1f8:	3a73253a 	bcc	1cd36e8 <__bss_end__+0x1cc8b50>
    a1fc:	723a6425 	eorsvc	r6, sl, #620756992	; 0x25000000
    a200:	72757465 	rsbsvc	r7, r5, #1694498816	; 0x65000000
    a204:	2064656e 	rsbcs	r6, r4, lr, ror #10
    a208:	20646e61 	rsbcs	r6, r4, r1, ror #28
    a20c:	756f6873 	strbvc	r6, [pc, #-2163]!	; 99a1 <reset_vector+0xd>
    a210:	6e20646c 	cdpvs	4, 2, cr6, cr0, cr12, {3}
    a214:	6820746f 	stmdavs	r0!, {r0, r1, r2, r3, r5, r6, sl, ip, sp, lr}
    a218:	21657661 	cmncs	r5, r1, ror #12
    a21c:	00000a0a 	andeq	r0, r0, sl, lsl #20
    a220:	656c6c69 	strbvs	r6, [ip, #-3177]!	; 0xc69
    a224:	206c6167 	rsbcs	r6, ip, r7, ror #2
    a228:	74737973 	ldrbtvc	r7, [r3], #-2419	; 0x973
    a22c:	63206d65 	teqvs	r0, #6464	; 0x1940
    a230:	206c6c61 	rsbcs	r6, ip, r1, ror #24
    a234:	000a6425 	andeq	r6, sl, r5, lsr #8

0000a238 <__FUNCTION__.4393>:
    a238:	63746177 	cmnvs	r4, #-1073741795	; 0xc000001d
    a23c:	5f747068 	svcpl	0x00747068
    a240:	30746573 	rsbscc	r6, r4, r3, ror r5
    a244:	00000000 	andeq	r0, r0, r0

0000a248 <__FUNCTION__.4399>:
    a248:	61746164 	cmnvs	r4, r4, ror #2
    a24c:	6f62615f 	svcvs	0x0062615f
    a250:	765f7472 			; <UNDEFINED> instruction: 0x765f7472
    a254:	6f746365 	svcvs	0x00746365
    a258:	00000072 	andeq	r0, r0, r2, ror r0

0000a25c <__FUNCTION__.4306>:
    a25c:	5f736177 	svcpl	0x00736177
    a260:	75626564 	strbvc	r6, [r2, #-1380]!	; 0x564
    a264:	61645f67 	cmnvs	r4, r7, ror #30
    a268:	61666174 	smcvs	26132	; 0x6614
    a26c:	00746c75 	rsbseq	r6, r4, r5, ror ip

0000a270 <__FUNCTION__.4443>:
    a270:	66657270 			; <UNDEFINED> instruction: 0x66657270
    a274:	68637465 	stmdavs	r3!, {r0, r2, r5, r6, sl, ip, sp, lr}^
    a278:	6f62615f 	svcvs	0x0062615f
    a27c:	765f7472 			; <UNDEFINED> instruction: 0x765f7472
    a280:	6f746365 	svcvs	0x00746365
    a284:	00000072 	andeq	r0, r0, r2, ror r0

0000a288 <__FUNCTION__.4451>:
    a288:	5f6b7262 	svcpl	0x006b7262
    a28c:	725f6f6e 	subsvc	r6, pc, #440	; 0x1b8
    a290:	655f7465 	ldrbvs	r7, [pc, #-1125]	; 9e33 <gpio_set_off+0x1f>
    a294:	726f7272 	rsbvc	r7, pc, #536870919	; 0x20000007
    a298:	00000000 	andeq	r0, r0, r0
    a29c:	253a7325 	ldrcs	r7, [sl, #-805]!	; 0x325
    a2a0:	64253a73 	strtvs	r3, [r5], #-2675	; 0xa73
    a2a4:	6572703a 	ldrbvs	r7, [r2, #-58]!	; 0x3a
    a2a8:	63746566 	cmnvs	r4, #427819008	; 0x19800000
    a2ac:	62612068 	rsbvs	r2, r1, #104	; 0x68
    a2b0:	2074726f 	rsbscs	r7, r4, pc, ror #4
    a2b4:	25207461 	strcs	r7, [r0, #-1121]!	; 0x461
    a2b8:	00000a70 	andeq	r0, r0, r0, ror sl
    a2bc:	63656863 	cmnvs	r5, #6488064	; 0x630000
    a2c0:	6e692d6b 	cdpvs	13, 6, cr2, cr9, cr11, {3}
    a2c4:	6c726574 	cfldr64vs	mvdx6, [r2], #-464	; 0xfffffe30
    a2c8:	65766165 	ldrbvs	r6, [r6, #-357]!	; 0x165
    a2cc:	0000632e 	andeq	r6, r0, lr, lsr #6
    a2d0:	756f6261 	strbvc	r6, [pc, #-609]!	; a077 <__data_end__+0x1d7>
    a2d4:	6f742074 	svcvs	0x00742074
    a2d8:	69777320 	ldmdbvs	r7!, {r5, r8, r9, ip, sp, lr}^
    a2dc:	20686374 	rsbcs	r6, r8, r4, ror r3
    a2e0:	6d6f7266 	sfmvs	f7, 2, [pc, #-408]!	; a150 <__FUNCTION__.4423+0x4c>
    a2e4:	20702520 	rsbscs	r2, r0, r0, lsr #10
    a2e8:	25206f74 	strcs	r6, [r0, #-3956]!	; 0xf74
    a2ec:	00000a70 	andeq	r0, r0, r0, ror sl
    a2f0:	656e6f64 	strbvs	r6, [lr, #-3940]!	; 0xf64
    a2f4:	6e757220 	cdpvs	2, 7, cr7, cr5, cr0, {1}
    a2f8:	676e696e 	strbvs	r6, [lr, -lr, ror #18]!
    a2fc:	202c4220 	eorcs	r4, ip, r0, lsr #4
    a300:	6e696f67 	cdpvs	15, 6, cr6, cr9, cr7, {3}
    a304:	6f742067 	svcvs	0x00742067
    a308:	74657220 	strbtvc	r7, [r5], #-544	; 0x220
    a30c:	206e7275 	rsbcs	r7, lr, r5, ror r2
    a310:	41206f74 	teqmi	r0, r4, ror pc
    a314:	0000000a 	andeq	r0, r0, sl
    a318:	693e2d63 	ldmdbvs	lr!, {r0, r1, r5, r6, r8, sl, fp, sp}
    a31c:	5f74736e 	svcpl	0x0074736e
    a320:	6e756f63 	cdpvs	15, 7, cr6, cr5, cr3, {3}
    a324:	203c2074 	eorscs	r2, ip, r4, ror r0
    a328:	733e2d63 	teqvc	lr, #6336	; 0x18c0
    a32c:	63746977 	cmnvs	r4, #1949696	; 0x1dc000
    a330:	6e6f5f68 	cdpvs	15, 6, cr5, cr15, cr8, {3}
    a334:	736e695f 	cmnvc	lr, #1556480	; 0x17c000
    a338:	006e5f74 	rsbeq	r5, lr, r4, ror pc
    a33c:	253a7325 	ldrcs	r7, [sl, #-805]!	; 0x325
    a340:	64253a73 	strtvs	r3, [r5], #-2675	; 0xa73
    a344:	7465733a 	strbtvc	r7, [r5], #-826	; 0x33a
    a348:	676e6974 			; <UNDEFINED> instruction: 0x676e6974
    a34c:	20707520 	rsbscs	r7, r0, r0, lsr #10
    a350:	696d2061 	stmdbvs	sp!, {r0, r5, r6, sp}^
    a354:	74616d73 	strbtvc	r6, [r1], #-3443	; 0xd73
    a358:	6f206863 	svcvs	0x00206863
    a35c:	7025206e 	eorvc	r2, r5, lr, rrx
    a360:	0000000a 	andeq	r0, r0, sl
    a364:	253a7325 	ldrcs	r7, [sl, #-805]!	; 0x325
    a368:	64253a73 	strtvs	r3, [r5], #-2675	; 0xa73
    a36c:	6e6f643a 	mcrvs	4, 3, r6, cr15, cr10, {1}
    a370:	65732065 	ldrbvs	r2, [r3, #-101]!	; 0x65
    a374:	6e697474 	mcrvs	4, 3, r7, cr9, cr4, {3}
    a378:	70752067 	rsbsvc	r2, r5, r7, rrx
    a37c:	6d206120 	stfvss	f6, [r0, #-128]!	; 0xffffff80
    a380:	616d7369 	cmnvs	sp, r9, ror #6
    a384:	20686374 	rsbcs	r6, r8, r4, ror r3
    a388:	25206e6f 	strcs	r6, [r0, #-3695]!	; 0xe6f
    a38c:	00000a70 	andeq	r0, r0, r0, ror sl
    a390:	253a7325 	ldrcs	r7, [sl, #-805]!	; 0x325
    a394:	64253a73 	strtvs	r3, [r5], #-2675	; 0xa73
    a398:	6972743a 	ldmdbvs	r2!, {r1, r3, r4, r5, sl, ip, sp, lr}^
    a39c:	253d6c61 	ldrcs	r6, [sp, #-3169]!	; 0xc61
    a3a0:	61203a64 	teqvs	r0, r4, ror #20
    a3a4:	74756f62 	ldrbtvc	r6, [r5], #-3938	; 0xf62
    a3a8:	206f7420 	rsbcs	r7, pc, r0, lsr #8
    a3ac:	20746573 	rsbscs	r6, r4, r3, ror r5
    a3b0:	6d73696d 	ldclvs	9, cr6, [r3, #-436]!	; 0xfffffe4c
    a3b4:	68637461 	stmdavs	r3!, {r0, r5, r6, sl, ip, sp, lr}^
    a3b8:	6b726220 	blvs	1ca2c40 <__bss_end__+0x1c980a8>
    a3bc:	66207470 			; <UNDEFINED> instruction: 0x66207470
    a3c0:	4120726f 	teqmi	r0, pc, ror #4
    a3c4:	0000000a 	andeq	r0, r0, sl
    a3c8:	4f525245 	svcmi	0x00525245
    a3cc:	63203a52 	teqvs	r0, #335872	; 0x52000
    a3d0:	6b636568 	blvs	18e3978 <__bss_end__+0x18d8de0>
    a3d4:	69616620 	stmdbvs	r1!, {r5, r9, sl, sp, lr}^
    a3d8:	2064656c 	rsbcs	r6, r4, ip, ror #10
    a3dc:	6e656877 	mcrvs	8, 3, r6, cr5, cr7, {3}
    a3e0:	69777320 	ldmdbvs	r7!, {r5, r8, r9, ip, sp, lr}^
    a3e4:	65686374 	strbvs	r6, [r8, #-884]!	; 0x374
    a3e8:	6e6f2064 	cdpvs	0, 6, cr2, cr15, cr4, {3}
    a3ec:	64646120 	strbtvs	r6, [r4], #-288	; 0x120
    a3f0:	73736572 	cmnvc	r3, #478150656	; 0x1c800000
    a3f4:	2c702520 	cfldr64cs	mvdx2, [r0], #-128	; 0xffffff80
    a3f8:	74666120 	strbtvc	r6, [r6], #-288	; 0x120
    a3fc:	25207265 	strcs	r7, [r0, #-613]!	; 0x265
    a400:	6e692064 	cdpvs	0, 6, cr2, cr9, cr4, {3}
    a404:	75727473 	ldrbvc	r7, [r2, #-1139]!	; 0x473
    a408:	6f697463 	svcvs	0x00697463
    a40c:	000a736e 	andeq	r7, sl, lr, ror #6
    a410:	656e6f64 	strbvs	r6, [lr, #-3940]!	; 0xf64
    a414:	64202021 	strtvs	r2, [r0], #-33	; 0x21
    a418:	63206469 	teqvs	r0, #1761607680	; 0x69000000
    a41c:	736e3e2d 	cmnvc	lr, #720	; 0x2d0
    a420:	63746977 	cmnvs	r4, #1949696	; 0x1dc000
    a424:	3d736568 	cfldr64cc	mvdx6, [r3, #-416]!	; 0xfffffe60
    a428:	202c6425 	eorcs	r6, ip, r5, lsr #8
    a42c:	6972746e 	ldmdbvs	r2!, {r1, r2, r3, r5, r6, sl, ip, sp, lr}^
    a430:	3d736c61 	ldclcc	12, cr6, [r3, #-388]!	; 0xfffffe7c
    a434:	202c6425 	eorcs	r6, ip, r5, lsr #8
    a438:	7272656e 	rsbsvc	r6, r2, #461373440	; 0x1b800000
    a43c:	3d73726f 	lfmcc	f7, 2, [r3, #-444]!	; 0xfffffe44
    a440:	000a6425 	andeq	r6, sl, r5, lsr #8
    a444:	72737063 	rsbsvc	r7, r3, #99	; 0x63
    a448:	6974752d 	ldmdbvs	r4!, {r0, r2, r3, r5, r8, sl, ip, sp, lr}^
    a44c:	00682e6c 	rsbeq	r2, r8, ip, ror #28
    a450:	65707865 	ldrbvs	r7, [r0, #-2149]!	; 0x865
    a454:	64657463 	strbtvs	r7, [r5], #-1123	; 0x463
    a458:	646f6d20 	strbtvs	r6, [pc], #-3360	; a460 <__FUNCTION__.4451+0x1d8>
    a45c:	203d2065 	eorscs	r2, sp, r5, rrx
    a460:	28207325 	stmdacs	r0!, {r0, r2, r5, r8, r9, ip, sp, lr}
    a464:	0a297825 	beq	a68500 <__bss_end__+0xa5d968>
    a468:	00000000 	andeq	r0, r0, r0
    a46c:	72727563 	rsbsvc	r7, r2, #415236096	; 0x18c00000
    a470:	20746e65 	rsbscs	r6, r4, r5, ror #28
    a474:	65646f6d 	strbvs	r6, [r4, #-3949]!	; 0xf6d
    a478:	25203d20 	strcs	r3, [r0, #-3360]!	; 0xd20
    a47c:	25282073 	strcs	r2, [r8, #-115]!	; 0x73
    a480:	000a2978 	andeq	r2, sl, r8, ror r9
    a484:	65646f6d 	strbvs	r6, [r4, #-3949]!	; 0xf6d
    a488:	7465675f 	strbtvc	r6, [r5], #-1887	; 0x75f
    a48c:	73706328 	cmnvc	r0, #40, 6	; 0xa0000000
    a490:	6c6f5f72 	stclvs	15, cr5, [pc], #-456	; a2d0 <__FUNCTION__.4451+0x48>
    a494:	3d202964 	stccc	9, cr2, [r0, #-400]!	; 0xfffffe70
    a498:	6f6d203d 	svcvs	0x006d203d
    a49c:	675f6564 	ldrbvs	r6, [pc, -r4, ror #10]
    a4a0:	63287465 	teqvs	r8, #1694498816	; 0x65000000
    a4a4:	5f727370 	svcpl	0x00727370
    a4a8:	28746567 	ldmdacs	r4!, {r0, r1, r2, r5, r6, r8, sl, sp, lr}^
    a4ac:	00002929 	andeq	r2, r0, r9, lsr #18
    a4b0:	494e4150 	stmdbmi	lr, {r4, r6, r8, lr}^
    a4b4:	73253a43 	teqvc	r5, #274432	; 0x43000
    a4b8:	3a73253a 	bcc	1cd39a8 <__bss_end__+0x1cc8e10>
    a4bc:	633a6425 	teqvs	sl, #620756992	; 0x25000000
    a4c0:	6b636568 	blvs	18e3a68 <__bss_end__+0x18d8ed0>
    a4c4:	69616620 	stmdbvs	r1!, {r5, r9, sl, sp, lr}^
    a4c8:	2064656c 	rsbcs	r6, r4, ip, ror #10
    a4cc:	75716573 	ldrbvc	r6, [r1, #-1395]!	; 0x573
    a4d0:	69746e65 	ldmdbvs	r4!, {r0, r2, r5, r6, r9, sl, fp, sp, lr}^
    a4d4:	796c6c61 	stmdbvc	ip!, {r0, r5, r6, sl, fp, sp, lr}^
    a4d8:	6f63203a 	svcvs	0x0063203a
    a4dc:	69206564 	stmdbvs	r0!, {r2, r5, r6, r8, sl, sp, lr}
    a4e0:	72622073 	rsbvc	r2, r2, #115	; 0x73
    a4e4:	6e656b6f 	vnmulvs.f64	d22, d5, d31
    a4e8:	00000a0a 	andeq	r0, r0, sl, lsl #20

0000a4ec <__FUNCTION__.4432>:
    a4ec:	63656863 	cmnvs	r5, #6488064	; 0x630000
    a4f0:	65735f6b 	ldrbvs	r5, [r3, #-3947]!	; 0xf6b
    a4f4:	6e657571 	mcrvs	5, 3, r7, cr5, cr1, {3}
    a4f8:	6c616974 	stclvs	9, cr6, [r1], #-464	; 0xfffffe30
    a4fc:	00000000 	andeq	r0, r0, r0

0000a500 <__FUNCTION__.4424>:
    a500:	63656863 	cmnvs	r5, #6488064	; 0x630000
    a504:	6e6f5f6b 	cdpvs	15, 6, cr5, cr15, cr11, {3}
    a508:	73635f65 	cmnvc	r3, #404	; 0x194
    a50c:	63746977 	cmnvs	r4, #1949696	; 0x1dc000
    a510:	00000068 	andeq	r0, r0, r8, rrx

0000a514 <__FUNCTION__.4417>:
    a514:	676e6973 			; <UNDEFINED> instruction: 0x676e6973
    a518:	735f656c 	cmpvc	pc, #108, 10	; 0x1b000000
    a51c:	5f706574 	svcpl	0x00706574
    a520:	646e6168 	strbtvs	r6, [lr], #-360	; 0x168
    a524:	0072656c 	rsbseq	r6, r2, ip, ror #10

0000a528 <__FUNCTION__.4397>:
    a528:	65646f6d 	strbvs	r6, [r4, #-3949]!	; 0xf6d
    a52c:	7465735f 	strbtvc	r7, [r5], #-863	; 0x35f
    a530:	00000000 	andeq	r0, r0, r0

0000a534 <__FUNCTION__.4258>:
    a534:	73746962 	cmnvc	r4, #1605632	; 0x188000
    a538:	726c635f 	rsbvc	r6, ip, #2080374785	; 0x7c000001
    a53c:	00000000 	andeq	r0, r0, r0

0000a540 <__FUNCTION__.4409>:
    a540:	65646f6d 	strbvs	r6, [r4, #-3949]!	; 0xf6d
    a544:	7274735f 	rsbsvc	r7, r4, #2080374785	; 0x7c000001
    a548:	00000000 	andeq	r0, r0, r0

0000a54c <__FUNCTION__.4392>:
    a54c:	65646f6d 	strbvs	r6, [r4, #-3949]!	; 0xf6d
    a550:	7465675f 	strbtvc	r6, [r5], #-1887	; 0x75f
    a554:	00000000 	andeq	r0, r0, r0

0000a558 <__FUNCTION__.4251>:
    a558:	73746962 	cmnvc	r4, #1605632	; 0x188000
    a55c:	7465675f 	strbtvc	r6, [r5], #-1887	; 0x75f
    a560:	00000000 	andeq	r0, r0, r0

0000a564 <__FUNCTION__.4249>:
    a564:	74696d65 	strbtvc	r6, [r9], #-3429	; 0xd65
    a568:	00000000 	andeq	r0, r0, r0

0000a56c <__FUNCTION__.4197>:
    a56c:	5f697072 	svcpl	0x00697072
    a570:	5f746573 	svcpl	0x00746573
    a574:	7074756f 	rsbsvc	r7, r4, pc, ror #10
    a578:	00007475 	andeq	r7, r0, r5, ror r4

0000a57c <__FUNCTION__.4272>:
    a57c:	705f6176 	subsvc	r6, pc, r6, ror r1	; <UNPREDICTABLE>
    a580:	746e6972 	strbtvc	r6, [lr], #-2418	; 0x972
    a584:	0000006b 	andeq	r0, r0, fp, rrx
    a588:	6362696c 	cmnvs	r2, #108, 18	; 0x1b0000
    a58c:	2d61762f 	stclcs	6, cr7, [r1, #-188]!	; 0xffffff44
    a590:	6e697270 	mcrvs	2, 3, r7, cr9, cr0, {3}
    a594:	632e6b74 	teqvs	lr, #116, 22	; 0x1d000
    a598:	00000000 	andeq	r0, r0, r0
    a59c:	00000030 	andeq	r0, r0, r0, lsr r0
    a5a0:	33323130 	teqcc	r2, #48, 2
    a5a4:	37363534 			; <UNDEFINED> instruction: 0x37363534
    a5a8:	00003938 	andeq	r3, r0, r8, lsr r9
    a5ac:	33323130 	teqcc	r2, #48, 2
    a5b0:	37363534 			; <UNDEFINED> instruction: 0x37363534
    a5b4:	62613938 	rsbvs	r3, r1, #56, 18	; 0xe0000
    a5b8:	66656463 	strbtvs	r6, [r5], -r3, ror #8
    a5bc:	00000000 	andeq	r0, r0, r0
    a5c0:	00003130 	andeq	r3, r0, r0, lsr r1
    a5c4:	63747570 	cmnvs	r4, #112, 10	; 0x1c000000
    a5c8:	0070665f 	rsbseq	r6, r0, pc, asr r6
    a5cc:	74646977 	strbtvc	r6, [r4], #-2423	; 0x977
    a5d0:	203c2068 	eorscs	r2, ip, r8, rrx
    a5d4:	00003233 	andeq	r3, r0, r3, lsr r2
    a5d8:	494e4150 	stmdbmi	lr, {r4, r6, r8, lr}^
    a5dc:	73253a43 	teqvc	r5, #274432	; 0x43000
    a5e0:	3a73253a 	bcc	1cd3ad0 <__bss_end__+0x1cc8f38>
    a5e4:	663a6425 	ldrtvs	r6, [sl], -r5, lsr #8
    a5e8:	74616f6c 	strbtvc	r6, [r1], #-3948	; 0xf6c
    a5ec:	746f6e20 	strbtvc	r6, [pc], #-3616	; a5f4 <__FUNCTION__.4272+0x78>
    a5f0:	616e6520 	cmnvs	lr, r0, lsr #10
    a5f4:	64656c62 	strbtvs	r6, [r5], #-3170	; 0xc62
    a5f8:	0a212121 	beq	852a84 <__bss_end__+0x847eec>
    a5fc:	00000000 	andeq	r0, r0, r0
    a600:	6e697270 	mcrvs	2, 3, r7, cr9, cr0, {3}
    a604:	203a6b74 	eorscs	r6, sl, r4, ror fp
    a608:	20746f6e 	rsbscs	r6, r4, lr, ror #30
    a60c:	646e6168 	strbtvs	r6, [lr], #-360	; 0x168
    a610:	676e696c 	strbvs	r6, [lr, -ip, ror #18]!
    a614:	65707320 	ldrbvs	r7, [r0, #-800]!	; 0x320
    a618:	69666963 	stmdbvs	r6!, {r0, r1, r5, r6, r8, fp, sp, lr}^
    a61c:	27207265 	strcs	r7, [r0, -r5, ror #4]!
    a620:	20276325 	eorcs	r6, r7, r5, lsr #6
    a624:	63736128 	cmnvs	r3, #40, 2
    a628:	253d6969 	ldrcs	r6, [sp, #-2409]!	; 0x969
    a62c:	000a2964 	andeq	r2, sl, r4, ror #18
    a630:	494e4150 	stmdbmi	lr, {r4, r6, r8, lr}^
    a634:	73253a43 	teqvc	r5, #274432	; 0x43000
    a638:	3a73253a 	bcc	1cd3b28 <__bss_end__+0x1cc8f90>
    a63c:	703a6425 	eorsvc	r6, sl, r5, lsr #8
    a640:	746e6972 	strbtvc	r6, [lr], #-2418	; 0x972
    a644:	7265206b 	rsbvc	r2, r5, #107	; 0x6b
    a648:	0a726f72 	beq	1ca6418 <__bss_end__+0x1c9b880>
    a64c:	0000000a 	andeq	r0, r0, sl
    a650:	454e4f44 	strbmi	r4, [lr, #-3908]	; 0xf44
    a654:	0a212121 	beq	852ae0 <__bss_end__+0x847f48>
    a658:	00000000 	andeq	r0, r0, r0

0000a65c <__FUNCTION__.4220>:
    a65c:	74736166 	ldrbtvc	r6, [r3], #-358	; 0x166
    a660:	746e695f 	strbtvc	r6, [lr], #-2399	; 0x95f
    a664:	75727265 	ldrbvc	r7, [r2, #-613]!	; 0x265
    a668:	765f7470 			; <UNDEFINED> instruction: 0x765f7470
    a66c:	6f746365 	svcvs	0x00746365
    a670:	00000072 	andeq	r0, r0, r2, ror r0
    a674:	494e4150 	stmdbmi	lr, {r4, r6, r8, lr}^
    a678:	73253a43 	teqvc	r5, #274432	; 0x43000
    a67c:	3a73253a 	bcc	1cd3b6c <__bss_end__+0x1cc8fd4>
    a680:	453a6425 	ldrmi	r6, [sl, #-1061]!	; 0x425
    a684:	524f5252 	subpl	r5, pc, #536870917	; 0x20000005
    a688:	6e75203a 	mrcvs	0, 3, r2, cr5, cr10, {1}
    a68c:	646e6168 	strbtvs	r6, [lr], #-360	; 0x168
    a690:	2064656c 	rsbcs	r6, r4, ip, ror #10
    a694:	65637865 	strbvs	r7, [r3, #-2149]!	; 0x865
    a698:	6f697470 	svcvs	0x00697470
    a69c:	253c206e 	ldrcs	r2, [ip, #-110]!	; 0x6e
    a6a0:	61203e73 	teqvs	r0, r3, ror lr
    a6a4:	43502074 	cmpmi	r0, #116	; 0x74
    a6a8:	0a78253d 	beq	1e13ba4 <__bss_end__+0x1e0900c>
    a6ac:	0000000a 	andeq	r0, r0, sl
    a6b0:	66617473 			; <UNDEFINED> instruction: 0x66617473
    a6b4:	72732d66 	rsbsvc	r2, r3, #6528	; 0x1980
    a6b8:	65642f63 	strbvs	r2, [r4, #-3939]!	; 0xf63
    a6bc:	6c756166 	ldfvse	f6, [r5], #-408	; 0xfffffe68
    a6c0:	61682d74 	smcvs	33492	; 0x82d4
    a6c4:	656c646e 	strbvs	r6, [ip, #-1134]!	; 0x46e
    a6c8:	61662d72 	smcvs	25298	; 0x62d2
    a6cc:	632e7473 	teqvs	lr, #1929379840	; 0x73000000
    a6d0:	00000000 	andeq	r0, r0, r0
    a6d4:	74736166 	ldrbtvc	r6, [r3], #-358	; 0x166
    a6d8:	00000000 	andeq	r0, r0, r0

0000a6dc <__FUNCTION__.4220>:
    a6dc:	65736572 	ldrbvs	r6, [r3, #-1394]!	; 0x572
    a6e0:	65765f74 	ldrbvs	r5, [r6, #-3956]!	; 0xf74
    a6e4:	726f7463 	rsbvc	r7, pc, #1660944384	; 0x63000000
    a6e8:	00000000 	andeq	r0, r0, r0
    a6ec:	66617473 			; <UNDEFINED> instruction: 0x66617473
    a6f0:	72732d66 	rsbsvc	r2, r3, #6528	; 0x1980
    a6f4:	65642f63 	strbvs	r2, [r4, #-3939]!	; 0xf63
    a6f8:	6c756166 	ldfvse	f6, [r5], #-408	; 0xfffffe68
    a6fc:	61682d74 	smcvs	33492	; 0x82d4
    a700:	656c646e 	strbvs	r6, [ip, #-1134]!	; 0x46e
    a704:	65722d72 	ldrbvs	r2, [r2, #-3442]!	; 0xd72
    a708:	2e746573 	mrccs	5, 3, r6, cr4, cr3, {3}
    a70c:	00000063 	andeq	r0, r0, r3, rrx
    a710:	65736572 	ldrbvs	r6, [r3, #-1394]!	; 0x572
    a714:	00000074 	andeq	r0, r0, r4, ror r0

0000a718 <__FUNCTION__.4220>:
    a718:	65646e75 	strbvs	r6, [r4, #-3701]!	; 0xe75
    a71c:	656e6966 	strbvs	r6, [lr, #-2406]!	; 0x966
    a720:	6e695f64 	cdpvs	15, 6, cr5, cr9, cr4, {3}
    a724:	75727473 	ldrbvc	r7, [r2, #-1139]!	; 0x473
    a728:	6f697463 	svcvs	0x00697463
    a72c:	65765f6e 	ldrbvs	r5, [r6, #-3950]!	; 0xf6e
    a730:	726f7463 	rsbvc	r7, pc, #1660944384	; 0x63000000
    a734:	00000000 	andeq	r0, r0, r0
    a738:	66617473 			; <UNDEFINED> instruction: 0x66617473
    a73c:	72732d66 	rsbsvc	r2, r3, #6528	; 0x1980
    a740:	65642f63 	strbvs	r2, [r4, #-3939]!	; 0xf63
    a744:	6c756166 	ldfvse	f6, [r5], #-408	; 0xfffffe68
    a748:	61682d74 	smcvs	33492	; 0x82d4
    a74c:	656c646e 	strbvs	r6, [ip, #-1134]!	; 0x46e
    a750:	6e752d72 	mrcvs	13, 3, r2, cr5, cr2, {3}
    a754:	69666564 	stmdbvs	r6!, {r2, r5, r6, r8, sl, sp, lr}^
    a758:	2d64656e 	cfstr64cs	mvdx6, [r4, #-440]!	; 0xfffffe48
    a75c:	74736e69 	ldrbtvc	r6, [r3], #-3689	; 0xe69
    a760:	0000632e 	andeq	r6, r0, lr, lsr #6
    a764:	65646e75 	strbvs	r6, [r4, #-3701]!	; 0xe75
    a768:	656e6966 	strbvs	r6, [lr, #-2406]!	; 0x966
    a76c:	6e692064 	cdpvs	0, 6, cr2, cr9, cr4, {3}
    a770:	00007473 	andeq	r7, r0, r3, ror r4

Disassembly of section .bss:

0000a774 <__bss_start__>:
    a774:	00000000 	andeq	r0, r0, r0

0000a778 <l>:
    a778:	00000000 	andeq	r0, r0, r0

0000a77c <watchpt_handler0>:
    a77c:	00000000 	andeq	r0, r0, r0

0000a780 <brkpt_handler0>:
    a780:	00000000 	andeq	r0, r0, r0

0000a784 <brk_verbose_p>:
    a784:	00000000 	andeq	r0, r0, r0

0000a788 <nfaults.4398>:
    a788:	00000000 	andeq	r0, r0, r0

0000a78c <init_p.4404>:
    a78c:	00000000 	andeq	r0, r0, r0

0000a790 <checker>:
    a790:	00000000 	andeq	r0, r0, r0

0000a794 <expected_handle>:
    a794:	00000000 	andeq	r0, r0, r0

0000a798 <buf.4189>:
	...

Disassembly of section .ARM.attributes:

00000000 <.ARM.attributes>:
   0:	00002a41 	andeq	r2, r0, r1, asr #20
   4:	61656100 	cmnvs	r5, r0, lsl #2
   8:	01006962 	tsteq	r0, r2, ror #18
   c:	00000020 	andeq	r0, r0, r0, lsr #32
  10:	4b5a3605 	blmi	168d82c <__bss_end__+0x1682c94>
  14:	08070600 	stmdaeq	r7, {r9, sl}
  18:	12010901 	andne	r0, r1, #16384	; 0x4000
  1c:	15011404 	strne	r1, [r1, #-1028]	; 0x404
  20:	18031701 	stmdane	r3, {r0, r8, r9, sl, ip}
  24:	22011a01 	andcs	r1, r1, #4096	; 0x1000
  28:	Address 0x0000000000000028 is out of bounds.


Disassembly of section .comment:

00000000 <.comment>:
   0:	3a434347 	bcc	10d0d24 <__bss_end__+0x10c618c>
   4:	4e472820 	cdpmi	8, 4, cr2, cr7, cr0, {1}
   8:	34202955 	strtcc	r2, [r0], #-2389	; 0x955
   c:	332e382e 	teqcc	lr, #3014656	; 0x2e0000
  10:	43434700 	movtmi	r4, #14080	; 0x3700
  14:	3128203a 	teqcc	r8, sl, lsr r0
  18:	2e363a35 	mrccs	10, 1, r3, cr6, cr5, {1}
  1c:	2b312e33 	blcs	c4b8f0 <__bss_end__+0xc40d58>
  20:	326e7673 	rsbcc	r7, lr, #120586240	; 0x7300000
  24:	33303335 	teqcc	r0, #-738197504	; 0xd4000000
  28:	62312d39 	eorsvs	r2, r1, #3648	; 0xe40
  2c:	646c6975 	strbtvs	r6, [ip], #-2421	; 0x975
  30:	36202931 			; <UNDEFINED> instruction: 0x36202931
  34:	312e332e 	teqcc	lr, lr, lsr #6
  38:	31303220 	teqcc	r0, r0, lsr #4
  3c:	32363037 	eorscc	r3, r6, #55	; 0x37
  40:	Address 0x0000000000000040 is out of bounds.


Disassembly of section .debug_info:

00000000 <.debug_info>:
       0:	00000d71 	andeq	r0, r0, r1, ror sp
       4:	00000004 	andeq	r0, r0, r4
       8:	01040000 	mrseq	r0, (UNDEF: 4)
       c:	00000209 	andeq	r0, r0, r9, lsl #4
      10:	00014a01 	andeq	r4, r1, r1, lsl #20
      14:	00000d00 	andeq	r0, r0, r0, lsl #26
      18:	00802000 	addeq	r2, r0, r0
      1c:	00063800 	andeq	r3, r6, r0, lsl #16
      20:	00000000 	andeq	r0, r0, r0
      24:	05040200 	streq	r0, [r4, #-512]	; 0x200
      28:	00746e69 	rsbseq	r6, r4, r9, ror #28
      2c:	9e070403 	cdpls	4, 0, cr0, cr7, cr3, {0}
      30:	03000000 	movweq	r0, #0
      34:	017e0601 	cmneq	lr, r1, lsl #12
      38:	02030000 	andeq	r0, r3, #0
      3c:	0001a105 	andeq	sl, r1, r5, lsl #2
      40:	05040300 	streq	r0, [r4, #-768]	; 0x300
      44:	000000b0 	strheq	r0, [r0], -r0	; <UNPREDICTABLE>
      48:	ab050803 	blge	14205c <__bss_end__+0x1374c4>
      4c:	03000000 	movweq	r0, #0
      50:	017c0801 	cmneq	ip, r1, lsl #16
      54:	02030000 	andeq	r0, r3, #0
      58:	0000f007 	andeq	pc, r0, r7
      5c:	01d30400 	bicseq	r0, r3, r0, lsl #8
      60:	34070000 	strcc	r0, [r7], #-0
      64:	00000068 	andeq	r0, r0, r8, rrx
      68:	99070403 	stmdbls	r7, {r0, r1, sl}
      6c:	03000000 	movweq	r0, #0
      70:	00940708 	addseq	r0, r4, r8, lsl #14
      74:	04030000 	streq	r0, [r3], #-0
      78:	00012107 	andeq	r2, r1, r7, lsl #2
      7c:	08010300 	stmdaeq	r1, {r8, r9}
      80:	00000185 	andeq	r0, r0, r5, lsl #3
      84:	008a0405 	addeq	r0, sl, r5, lsl #8
      88:	7d060000 	stcvc	0, cr0, [r6, #-0]
      8c:	07000000 	streq	r0, [r0, -r0]
      90:	0000007d 	andeq	r0, r0, sp, ror r0
      94:	0000009f 	muleq	r0, pc, r0	; <UNPREDICTABLE>
      98:	00007608 	andeq	r7, r0, r8, lsl #12
      9c:	09000700 	stmdbeq	r0, {r8, r9, sl}
      a0:	00000142 	andeq	r0, r0, r2, asr #2
      a4:	500a0638 	andpl	r0, sl, r8, lsr r6
      a8:	0a000001 	beq	b4 <__code_start__-0x7f4c>
      ac:	00000a83 	andeq	r0, r0, r3, lsl #21
      b0:	01500f06 	cmpeq	r0, r6, lsl #30
      b4:	0b000000 	bleq	bc <__code_start__-0x7f44>
      b8:	12060041 	andne	r0, r6, #65	; 0x41
      bc:	00000168 	andeq	r0, r0, r8, ror #2
      c0:	00420b04 	subeq	r0, r2, r4, lsl #22
      c4:	017d1306 	cmneq	sp, r6, lsl #6
      c8:	0a080000 	beq	2000d0 <__bss_end__+0x1f5538>
      cc:	0000016d 	andeq	r0, r0, sp, ror #2
      d0:	01681606 	cmneq	r8, r6, lsl #12
      d4:	0a0c0000 	beq	3000dc <__bss_end__+0x2f5544>
      d8:	000001f6 	strdeq	r0, [r0], -r6
      dc:	017d1806 	cmneq	sp, r6, lsl #16
      e0:	0a100000 	beq	4000e8 <__bss_end__+0x3f5550>
      e4:	0000029c 	muleq	r0, ip, r2
      e8:	01831f06 	orreq	r1, r3, r6, lsl #30
      ec:	0a140000 	beq	5000f4 <__bss_end__+0x4f555c>
      f0:	0000028b 	andeq	r0, r0, fp, lsl #5
      f4:	01833106 	orreq	r3, r3, r6, lsl #2
      f8:	0a180000 	beq	600100 <__bss_end__+0x5f5568>
      fc:	00000081 	andeq	r0, r0, r1, lsl #1
     100:	01883606 	orreq	r3, r8, r6, lsl #12
     104:	0a1c0000 	beq	70010c <__bss_end__+0x6f5574>
     108:	00000075 	andeq	r0, r0, r5, ror r0
     10c:	01883a06 	orreq	r3, r8, r6, lsl #20
     110:	0a200000 	beq	800118 <__bss_end__+0x7f5580>
     114:	000002a6 	andeq	r0, r0, r6, lsr #5
     118:	01833f06 	orreq	r3, r3, r6, lsl #30
     11c:	0a240000 	beq	900124 <__bss_end__+0x8f558c>
     120:	00000133 	andeq	r0, r0, r3, lsr r1
     124:	002c4206 	eoreq	r4, ip, r6, lsl #4
     128:	0a280000 	beq	a00130 <__bss_end__+0x9f5598>
     12c:	000001e1 	andeq	r0, r0, r1, ror #3
     130:	002c4306 	eoreq	r4, ip, r6, lsl #6
     134:	0a2c0000 	beq	b0013c <__bss_end__+0xaf55a4>
     138:	000001b0 			; <UNDEFINED> instruction: 0x000001b0
     13c:	002c4606 	eoreq	r4, ip, r6, lsl #12
     140:	0a300000 	beq	c00148 <__bss_end__+0xbf55b0>
     144:	000000ce 	andeq	r0, r0, lr, asr #1
     148:	01884806 	orreq	r4, r8, r6, lsl #16
     14c:	00340000 	eorseq	r0, r4, r0
     150:	01560405 	cmpeq	r6, r5, lsl #8
     154:	0d0c0000 	stceq	0, cr0, [ip, #-0]
     158:	00000162 	andeq	r0, r0, r2, ror #2
     15c:	0001620e 	andeq	r6, r1, lr, lsl #4
     160:	04050000 	streq	r0, [r5], #-0
     164:	0000009f 	muleq	r0, pc, r0	; <UNPREDICTABLE>
     168:	01570405 	cmpeq	r7, r5, lsl #8
     16c:	250f0000 	strcs	r0, [pc, #-0]	; 174 <__code_start__-0x7e8c>
     170:	7d000000 	stcvc	0, cr0, [r0, #-0]
     174:	0e000001 	cdpeq	0, 0, cr0, cr0, cr1, {0}
     178:	00000162 	andeq	r0, r0, r2, ror #2
     17c:	6e040500 	cfsh32vs	mvfx0, mvfx4, #0
     180:	10000001 	andne	r0, r0, r1
     184:	0000002c 	andeq	r0, r0, ip, lsr #32
     188:	00005d10 	andeq	r5, r0, r0, lsl sp
     18c:	01720400 	cmneq	r2, r0, lsl #8
     190:	49060000 	stmdbmi	r6, {}	; <UNPREDICTABLE>
     194:	0000009f 	muleq	r0, pc, r0	; <UNPREDICTABLE>
     198:	00028104 	andeq	r8, r2, r4, lsl #2
     19c:	a3050400 	movwge	r0, #21504	; 0x5400
     1a0:	10000001 	andne	r0, r0, r1
     1a4:	00000025 	andeq	r0, r0, r5, lsr #32
     1a8:	00016411 	andeq	r6, r1, r1, lsl r4
     1ac:	03070400 	movweq	r0, #29696	; 0x7400
     1b0:	000001be 			; <UNDEFINED> instruction: 0x000001be
     1b4:	04006c12 	streq	r6, [r0], #-3090	; 0xc12
     1b8:	0001be07 	andeq	fp, r1, r7, lsl #28
     1bc:	04050000 	streq	r0, [r5], #-0
     1c0:	00000198 	muleq	r0, r8, r1
     1c4:	0001bf13 	andeq	fp, r1, r3, lsl pc
     1c8:	25070100 	strcs	r0, [r7, #-256]	; 0x100
     1cc:	03000000 	movweq	r0, #0
     1d0:	000001e0 	andeq	r0, r0, r0, ror #3
     1d4:	0001dc14 	andeq	sp, r1, r4, lsl ip
     1d8:	2c070100 	stfcss	f0, [r7], {-0}
     1dc:	00000000 	andeq	r0, r0, r0
     1e0:	00000013 	andeq	r0, r0, r3, lsl r0
     1e4:	250a0400 	strcs	r0, [sl, #-1024]	; 0x400
     1e8:	03000000 	movweq	r0, #0
     1ec:	00000206 	andeq	r0, r0, r6, lsl #4
     1f0:	04006c12 	streq	r6, [r0], #-3090	; 0xc12
     1f4:	0001be0a 	andeq	fp, r1, sl, lsl #28
     1f8:	01031500 	tsteq	r3, r0, lsl #10
     1fc:	0c040000 	stceq	0, cr0, [r4], {-0}
     200:	00000025 	andeq	r0, r0, r5, lsr #32
     204:	b9130000 	ldmdblt	r3, {}	; <UNPREDICTABLE>
     208:	05000000 	streq	r0, [r0, #-0]
     20c:	00005d26 	andeq	r5, r0, r6, lsr #26
     210:	02220300 	eoreq	r0, r2, #0, 6
     214:	ab160000 	blge	58021c <__bss_end__+0x575684>
     218:	05000001 	streq	r0, [r0, #-1]
     21c:	00005d27 	andeq	r5, r0, r7, lsr #26
     220:	ca130000 	bgt	4c0228 <__bss_end__+0x4b5690>
     224:	01000001 	tsteq	r0, r1
     228:	00005d0f 	andeq	r5, r0, pc, lsl #26
     22c:	02560300 	subseq	r0, r6, #0, 6
     230:	ab140000 	blge	500238 <__bss_end__+0x4f56a0>
     234:	01000001 	tsteq	r0, r1
     238:	00005d0f 	andeq	r5, r0, pc, lsl #26
     23c:	01dc1600 	bicseq	r1, ip, r0, lsl #12
     240:	10010000 	andne	r0, r1, r0
     244:	0000002c 	andeq	r0, r0, ip, lsr #32
     248:	0000e317 	andeq	lr, r0, r7, lsl r3
     24c:	00026600 	andeq	r6, r2, r0, lsl #12
     250:	0001ca00 	andeq	ip, r1, r0, lsl #20
     254:	7d070000 	stcvc	0, cr0, [r7, #-0]
     258:	66000000 	strvs	r0, [r0], -r0
     25c:	08000002 	stmdaeq	r0, {r1}
     260:	00000076 	andeq	r0, r0, r6, ror r0
     264:	56060008 	strpl	r0, [r6], -r8
     268:	13000002 	movwne	r0, #2
     26c:	00000198 	muleq	r0, r8, r1
     270:	005d1c02 	subseq	r1, sp, r2, lsl #24
     274:	af030000 	svcge	0x00030000
     278:	12000002 	andne	r0, r0, #2
     27c:	1c020078 	stcne	0, cr0, [r2], {120}	; 0x78
     280:	0000005d 	andeq	r0, r0, sp, asr r0
     284:	00626c12 	rsbeq	r6, r2, r2, lsl ip
     288:	002c1c02 	eoreq	r1, ip, r2, lsl #24
     28c:	75120000 	ldrvc	r0, [r2, #-0]
     290:	1c020062 	stcne	0, cr0, [r2], {98}	; 0x62
     294:	0000002c 	andeq	r0, r0, ip, lsr #32
     298:	0000e317 	andeq	lr, r0, r7, lsl r3
     29c:	0002af00 	andeq	sl, r2, r0, lsl #30
     2a0:	00019800 	andeq	r9, r1, r0, lsl #16
     2a4:	006e1800 	rsbeq	r1, lr, r0, lsl #16
     2a8:	002c1f02 	eoreq	r1, ip, r2, lsl #30
     2ac:	06000000 	streq	r0, [r0], -r0
     2b0:	00000256 	andeq	r0, r0, r6, asr r2
     2b4:	00022219 	andeq	r2, r2, r9, lsl r2
     2b8:	00802000 	addeq	r2, r0, r0
     2bc:	00008c00 	andeq	r8, r0, r0, lsl #24
     2c0:	889c0100 	ldmhi	ip, {r8}
     2c4:	1a000003 	bne	2d8 <__code_start__-0x7d28>
     2c8:	00000232 	andeq	r0, r0, r2, lsr r2
     2cc:	00000000 	andeq	r0, r0, r0
     2d0:	00023d1b 	andeq	r3, r2, fp, lsl sp
     2d4:	02481c00 	subeq	r1, r8, #0, 24
     2d8:	03050000 	movweq	r0, #20480	; 0x5000
     2dc:	0000a0e4 	andeq	sl, r0, r4, ror #1
     2e0:	00026b1d 	andeq	r6, r2, sp, lsl fp
     2e4:	00802800 	addeq	r2, r0, r0, lsl #16
     2e8:	00000400 	andeq	r0, r0, r0, lsl #8
     2ec:	24100100 	ldrcs	r0, [r0], #-256	; 0x100
     2f0:	1e000003 	cdpne	0, 0, cr0, cr0, cr3, {0}
     2f4:	0000028e 	andeq	r0, r0, lr, lsl #5
     2f8:	02841e04 	addeq	r1, r4, #4, 28	; 0x40
     2fc:	1a000000 	bne	304 <__code_start__-0x7cfc>
     300:	0000027b 	andeq	r0, r0, fp, ror r2
     304:	00000021 	andeq	r0, r0, r1, lsr #32
     308:	0080281f 	addeq	r2, r0, pc, lsl r8
     30c:	00000400 	andeq	r0, r0, r0, lsl #8
     310:	02a52000 	adceq	r2, r5, #0
     314:	1c050000 	stcne	0, cr0, [r5], {-0}
     318:	00000298 	muleq	r0, r8, r2
     31c:	a0f00305 	rscsge	r0, r0, r5, lsl #6
     320:	00000000 	andeq	r0, r0, r0
     324:	0001c41d 	andeq	ip, r1, sp, lsl r4
     328:	00802c00 	addeq	r2, r0, r0, lsl #24
     32c:	00003c00 	andeq	r3, r0, r0, lsl #24
     330:	3d110100 	ldfccs	f0, [r1, #-0]
     334:	21000003 	tstcs	r0, r3
     338:	000001d4 	ldrdeq	r0, [r0], -r4
     33c:	80742200 	rsbshi	r2, r4, r0, lsl #4
     340:	0d1c0000 	ldceq	0, cr0, [ip, #-0]
     344:	90230000 	eorls	r0, r3, r0
     348:	23000080 	movwcs	r0, #128	; 0x80
     34c:	7e00000d 	cdpvc	0, 0, cr0, cr0, cr13, {0}
     350:	24000003 	strcs	r0, [r0], #-3
     354:	41015301 	tstmi	r1, r1, lsl #6
     358:	05520124 	ldrbeq	r0, [r2, #-292]	; 0x124
     35c:	00a0e403 	adceq	lr, r0, r3, lsl #8
     360:	51012400 	tstpl	r1, r0, lsl #8
     364:	9eb40305 	cdpls	3, 11, cr0, cr4, cr5, {0}
     368:	01240000 	teqeq	r4, r0
     36c:	a0030550 	andge	r0, r3, r0, asr r5
     370:	2400009e 	strcs	r0, [r0], #-158	; 0x9e
     374:	05007d02 	streq	r7, [r0, #-3330]	; 0xd02
     378:	009ec403 	addseq	ip, lr, r3, lsl #8
     37c:	94220000 	strtls	r0, [r2], #-0
     380:	39000080 	stmdbcc	r0, {r7}
     384:	0000000d 	andeq	r0, r0, sp
     388:	00027611 	andeq	r7, r2, r1, lsl r6
     38c:	03170400 	tsteq	r7, #0, 8
     390:	000003ab 	andeq	r0, r0, fp, lsr #7
     394:	04006c12 	streq	r6, [r0], #-3090	; 0xc12
     398:	0001be17 	andeq	fp, r1, r7, lsl lr
     39c:	00e31700 	rsceq	r1, r3, r0, lsl #14
     3a0:	03bb0000 			; <UNDEFINED> instruction: 0x03bb0000
     3a4:	02760000 	rsbseq	r0, r6, #0
     3a8:	07000000 	streq	r0, [r0, -r0]
     3ac:	0000007d 	andeq	r0, r0, sp, ror r0
     3b0:	000003bb 			; <UNDEFINED> instruction: 0x000003bb
     3b4:	00007608 	andeq	r7, r0, r8, lsl #12
     3b8:	06000a00 	streq	r0, [r0], -r0, lsl #20
     3bc:	000003ab 	andeq	r0, r0, fp, lsr #7
     3c0:	0000c225 	andeq	ip, r0, r5, lsr #4
     3c4:	ac0b0300 	stcge	3, cr0, [fp], {-0}
     3c8:	88000080 	stmdahi	r0, {r7}
     3cc:	01000001 	tsteq	r0, r1
     3d0:	0006469c 	muleq	r6, ip, r6
     3d4:	00632600 	rsbeq	r2, r3, r0, lsl #12
     3d8:	06460b03 	strbeq	r0, [r6], -r3, lsl #22
     3dc:	00420000 	subeq	r0, r2, r0
     3e0:	e3270000 	teq	r7, #0
     3e4:	5c000000 	stcpl	0, cr0, [r0], {-0}
     3e8:	05000006 	streq	r0, [r0, #-6]
     3ec:	00a0dc03 	adceq	sp, r0, r3, lsl #24
     3f0:	01e01d00 	mvneq	r1, r0, lsl #26
     3f4:	80b80000 	adcshi	r0, r8, r0
     3f8:	00080000 	andeq	r0, r8, r0
     3fc:	0c030000 	stceq	0, cr0, [r3], {-0}
     400:	0000042e 	andeq	r0, r0, lr, lsr #8
     404:	0001f028 	andeq	pc, r1, r8, lsr #32
     408:	78030600 	stmdavc	r3, {r9, sl}
     40c:	9f0000a7 	svcls	0x000000a7
     410:	0080b81f 	addeq	fp, r0, pc, lsl r8
     414:	00000800 	andeq	r0, r0, r0, lsl #16
     418:	80c02900 	sbchi	r2, r0, r0, lsl #18
     41c:	0d400000 	stcleq	0, cr0, [r0, #-0]
     420:	01240000 	teqeq	r4, r0
     424:	78030550 	stmdavc	r3, {r4, r6, r8, sl}
     428:	000000a7 	andeq	r0, r0, r7, lsr #1
     42c:	881d0000 	ldmdahi	sp, {}	; <UNPREDICTABLE>
     430:	f4000003 	vst4.8	{d0-d3}, [r0], r3
     434:	40000080 	andmi	r0, r0, r0, lsl #1
     438:	03000000 	movweq	r0, #0
     43c:	0004ad0f 	andeq	sl, r4, pc, lsl #26
     440:	03942800 	orrseq	r2, r4, #0, 16
     444:	03060000 	movweq	r0, #24576	; 0x6000
     448:	0000a778 	andeq	sl, r0, r8, ror r7
     44c:	80f41f9f 	smlalshi	r1, r4, pc, pc	; <UNPREDICTABLE>
     450:	00400000 	subeq	r0, r0, r0
     454:	9d1c0000 	ldcls	0, cr0, [ip, #-0]
     458:	05000003 	streq	r0, [r0, #-3]
     45c:	00a0d003 	adceq	sp, r0, r3
     460:	81082200 	mrshi	r2, R8_fiq
     464:	0d1c0000 	ldceq	0, cr0, [ip, #-0]
     468:	24230000 	strtcs	r0, [r3], #-0
     46c:	23000081 	movwcs	r0, #129	; 0x81
     470:	a200000d 	andge	r0, r0, #13
     474:	24000004 	strcs	r0, [r0], #-4
     478:	48015301 	stmdami	r1, {r0, r8, r9, ip, lr}
     47c:	05520124 	ldrbeq	r0, [r2, #-292]	; 0x124
     480:	00a0d003 	adceq	sp, r0, r3
     484:	51012400 	tstpl	r1, r0, lsl #8
     488:	9f100305 	svcls	0x00100305
     48c:	01240000 	teqeq	r4, r0
     490:	a0030550 	andge	r0, r3, r0, asr r5
     494:	2400009e 	strcs	r0, [r0], #-158	; 0x9e
     498:	05007d02 	streq	r7, [r0, #-3330]	; 0xd02
     49c:	009f2003 	addseq	r2, pc, r3
     4a0:	28220000 	stmdacs	r2!, {}	; <UNPREDICTABLE>
     4a4:	39000081 	stmdbcc	r0, {r0, r7}
     4a8:	0000000d 	andeq	r0, r0, sp
     4ac:	02061d00 	andeq	r1, r6, #0, 26
     4b0:	81400000 	mrshi	r0, (UNDEF: 64)
     4b4:	00040000 	andeq	r0, r4, r0
     4b8:	10030000 	andne	r0, r3, r0
     4bc:	000004d4 	ldrdeq	r0, [r0], -r4
     4c0:	0081401f 	addeq	r4, r1, pc, lsl r0
     4c4:	00000400 	andeq	r0, r0, r0, lsl #8
     4c8:	02162a00 	andseq	r2, r6, #0, 20
     4cc:	006e0000 	rsbeq	r0, lr, r0
     4d0:	00000000 	andeq	r0, r0, r0
     4d4:	0002221d 	andeq	r2, r2, sp, lsl r2
     4d8:	00814400 	addeq	r4, r1, r0, lsl #8
     4dc:	00006c00 	andeq	r6, r0, r0, lsl #24
     4e0:	bb100300 	bllt	4010e8 <__bss_end__+0x3f6550>
     4e4:	1a000005 	bne	500 <__code_start__-0x7b00>
     4e8:	00000232 	andeq	r0, r0, r2, lsr r2
     4ec:	0000006e 	andeq	r0, r0, lr, rrx
     4f0:	0081441f 	addeq	r4, r1, pc, lsl r4
     4f4:	00006c00 	andeq	r6, r0, r0, lsl #24
     4f8:	023d1b00 	eorseq	r1, sp, #0, 22
     4fc:	481c0000 	ldmdami	ip, {}	; <UNPREDICTABLE>
     500:	05000002 	streq	r0, [r0, #-2]
     504:	00a0e403 	adceq	lr, r0, r3, lsl #8
     508:	026b1d00 	rsbeq	r1, fp, #0, 26
     50c:	81440000 	mrshi	r0, (UNDEF: 68)
     510:	00040000 	andeq	r0, r4, r0
     514:	10010000 	andne	r0, r1, r0
     518:	00000556 	andeq	r0, r0, r6, asr r5
     51c:	00028e1a 	andeq	r8, r2, sl, lsl lr
     520:	00008100 	andeq	r8, r0, r0, lsl #2
     524:	02841a00 	addeq	r1, r4, #0, 20
     528:	00a10000 	adceq	r0, r1, r0
     52c:	7b1a0000 	blvc	680534 <__bss_end__+0x67599c>
     530:	6e000002 	cdpvs	0, 0, cr0, cr0, cr2, {0}
     534:	1f000000 	svcne	0x00000000
     538:	00008144 	andeq	r8, r0, r4, asr #2
     53c:	00000004 	andeq	r0, r0, r4
     540:	0002a52a 	andeq	sl, r2, sl, lsr #10
     544:	0000c100 	andeq	ip, r0, r0, lsl #2
     548:	02981c00 	addseq	r1, r8, #0, 24
     54c:	03050000 	movweq	r0, #20480	; 0x5000
     550:	0000a0f0 	strdeq	sl, [r0], -r0
     554:	c41d0000 	ldrgt	r0, [sp], #-0
     558:	48000001 	stmdami	r0, {r0}
     55c:	3c000081 	stccc	0, cr0, [r0], {129}	; 0x81
     560:	01000000 	mrseq	r0, (UNDEF: 0)
     564:	00056f11 	andeq	r6, r5, r1, lsl pc
     568:	01d42100 	bicseq	r2, r4, r0, lsl #2
     56c:	22000000 	andcs	r0, r0, #0
     570:	00008190 	muleq	r0, r0, r1
     574:	00000d1c 	andeq	r0, r0, ip, lsl sp
     578:	0081ac23 	addeq	sl, r1, r3, lsr #24
     57c:	000d2300 	andeq	r2, sp, r0, lsl #6
     580:	0005b000 	andeq	fp, r5, r0
     584:	53012400 	movwpl	r2, #5120	; 0x1400
     588:	01244101 	teqeq	r4, r1, lsl #2
     58c:	e4030552 	str	r0, [r3], #-1362	; 0x552
     590:	240000a0 	strcs	r0, [r0], #-160	; 0xa0
     594:	03055101 	movweq	r5, #20737	; 0x5101
     598:	00009eb4 			; <UNDEFINED> instruction: 0x00009eb4
     59c:	05500124 	ldrbeq	r0, [r0, #-292]	; 0x124
     5a0:	009ea003 	addseq	sl, lr, r3
     5a4:	7d022400 	cfstrsvc	mvf2, [r2, #-0]
     5a8:	c4030500 	strgt	r0, [r3], #-1280	; 0x500
     5ac:	0000009e 	muleq	r0, lr, r0
     5b0:	0081b022 	addeq	fp, r1, r2, lsr #32
     5b4:	000d3900 	andeq	r3, sp, r0, lsl #18
     5b8:	22000000 	andcs	r0, r0, #0
     5bc:	000080cc 	andeq	r8, r0, ip, asr #1
     5c0:	00000d1c 	andeq	r0, r0, ip, lsl sp
     5c4:	0080e023 	addeq	lr, r0, r3, lsr #32
     5c8:	000d2300 	andeq	r2, sp, r0, lsl #6
     5cc:	0005f200 	andeq	pc, r5, r0, lsl #4
     5d0:	53012400 	movwpl	r2, #5120	; 0x1400
     5d4:	01243d01 	teqeq	r4, r1, lsl #26
     5d8:	dc030552 	cfstr32le	mvfx0, [r3], {82}	; 0x52
     5dc:	240000a0 	strcs	r0, [r0], #-160	; 0xa0
     5e0:	03055101 	movweq	r5, #20737	; 0x5101
     5e4:	00009ef4 	strdeq	r9, [r0], -r4
     5e8:	05500124 	ldrbeq	r0, [r0, #-292]	; 0x124
     5ec:	009ed803 	addseq	sp, lr, r3, lsl #16
     5f0:	e4220000 	strt	r0, [r2], #-0
     5f4:	39000080 	stmdbcc	r0, {r7}
     5f8:	2200000d 	andcs	r0, r0, #13
     5fc:	000081d8 	ldrdeq	r8, [r0], -r8	; <UNPREDICTABLE>
     600:	00000d1c 	andeq	r0, r0, ip, lsl sp
     604:	0081f423 	addeq	pc, r1, r3, lsr #8
     608:	000d2300 	andeq	r2, sp, r0, lsl #6
     60c:	00063c00 	andeq	r3, r6, r0, lsl #24
     610:	53012400 	movwpl	r2, #5120	; 0x1400
     614:	01244001 	teqeq	r4, r1
     618:	dc030552 	cfstr32le	mvfx0, [r3], {82}	; 0x52
     61c:	240000a0 	strcs	r0, [r0], #-160	; 0xa0
     620:	03055101 	movweq	r5, #20737	; 0x5101
     624:	00009ef4 	strdeq	r9, [r0], -r4
     628:	05500124 	ldrbeq	r0, [r0, #-292]	; 0x124
     62c:	009ea003 	addseq	sl, lr, r3
     630:	7d022400 	cfstrsvc	mvf2, [r2, #-0]
     634:	28030500 	stmdacs	r3, {r8, sl}
     638:	0000009f 	muleq	r0, pc, r0	; <UNPREDICTABLE>
     63c:	0081f822 	addeq	pc, r1, r2, lsr #16
     640:	000d3900 	andeq	r3, sp, r0, lsl #18
     644:	04050000 	streq	r0, [r5], #-0
     648:	0000018d 	andeq	r0, r0, sp, lsl #3
     64c:	00007d07 	andeq	r7, r0, r7, lsl #26
     650:	00065c00 	andeq	r5, r6, r0, lsl #24
     654:	00760800 	rsbseq	r0, r6, r0, lsl #16
     658:	00050000 	andeq	r0, r5, r0
     65c:	00064c06 	andeq	r4, r6, r6, lsl #24
     660:	00c82b00 	sbceq	r2, r8, r0, lsl #22
     664:	14030000 	strne	r0, [r3], #-0
     668:	00000025 	andeq	r0, r0, r5, lsr #32
     66c:	00008234 	andeq	r8, r0, r4, lsr r2
     670:	00000088 	andeq	r0, r0, r8, lsl #1
     674:	073d9c01 	ldreq	r9, [sp, -r1, lsl #24]!
     678:	63260000 	teqvs	r6, #0
     67c:	46140300 	ldrmi	r0, [r4], -r0, lsl #6
     680:	e1000006 	tst	r0, r6
     684:	1d000000 	stcne	0, cr0, [r0, #-0]
     688:	000001e0 	andeq	r0, r0, r0, ror #3
     68c:	0000823c 	andeq	r8, r0, ip, lsr r2
     690:	00000008 	andeq	r0, r0, r8
     694:	06c41503 	strbeq	r1, [r4], r3, lsl #10
     698:	f0280000 			; <UNDEFINED> instruction: 0xf0280000
     69c:	06000001 	streq	r0, [r0], -r1
     6a0:	00a77803 	adceq	r7, r7, r3, lsl #16
     6a4:	3c1f9f00 	ldccc	15, cr9, [pc], {-0}
     6a8:	08000082 	stmdaeq	r0, {r1, r7}
     6ac:	29000000 	stmdbcs	r0, {}	; <UNPREDICTABLE>
     6b0:	00008244 	andeq	r8, r0, r4, asr #4
     6b4:	00000d40 	andeq	r0, r0, r0, asr #26
     6b8:	05500124 	ldrbeq	r0, [r0, #-292]	; 0x124
     6bc:	00a77803 	adceq	r7, r7, r3, lsl #16
     6c0:	00000000 	andeq	r0, r0, r0
     6c4:	0003882c 	andeq	r8, r3, ip, lsr #16
     6c8:	00825c00 	addeq	r5, r2, r0, lsl #24
     6cc:	00004000 	andeq	r4, r0, r0
     6d0:	1a180300 	bne	6012d8 <__bss_end__+0x5f6740>
     6d4:	00000394 	muleq	r0, r4, r3
     6d8:	00000102 	andeq	r0, r0, r2, lsl #2
     6dc:	00825c1f 	addeq	r5, r2, pc, lsl ip
     6e0:	00004000 	andeq	r4, r0, r0
     6e4:	039d1c00 	orrseq	r1, sp, #0, 24
     6e8:	03050000 	movweq	r0, #20480	; 0x5000
     6ec:	0000a0d0 	ldrdeq	sl, [r0], -r0
     6f0:	00827022 	addeq	r7, r2, r2, lsr #32
     6f4:	000d1c00 	andeq	r1, sp, r0, lsl #24
     6f8:	828c2300 	addhi	r2, ip, #0, 6
     6fc:	0d230000 	stceq	0, cr0, [r3, #-0]
     700:	07310000 	ldreq	r0, [r1, -r0]!
     704:	01240000 	teqeq	r4, r0
     708:	24480153 	strbcs	r0, [r8], #-339	; 0x153
     70c:	03055201 	movweq	r5, #20993	; 0x5201
     710:	0000a0d0 	ldrdeq	sl, [r0], -r0
     714:	05510124 	ldrbeq	r0, [r1, #-292]	; 0x124
     718:	009f1003 	addseq	r1, pc, r3
     71c:	50012400 	andpl	r2, r1, r0, lsl #8
     720:	9ea00305 	cdpls	3, 10, cr0, cr0, cr5, {0}
     724:	02240000 	eoreq	r0, r4, #0
     728:	0305007d 	movweq	r0, #20605	; 0x507d
     72c:	00009f20 	andeq	r9, r0, r0, lsr #30
     730:	82902200 	addshi	r2, r0, #0, 4
     734:	0d390000 	ldceq	0, cr0, [r9, #-0]
     738:	00000000 	andeq	r0, r0, r0
     73c:	01e92500 	mvneq	r2, r0, lsl #10
     740:	1c030000 	stcne	0, cr0, [r3], {-0}
     744:	000082bc 			; <UNDEFINED> instruction: 0x000082bc
     748:	00000020 	andeq	r0, r0, r0, lsr #32
     74c:	077a9c01 	ldrbeq	r9, [sl, -r1, lsl #24]!
     750:	632d0000 	teqvs	sp, #0
     754:	461c0300 	ldrmi	r0, [ip], -r0, lsl #6
     758:	01000006 	tsteq	r0, r6
     75c:	01a82c50 			; <UNDEFINED> instruction: 0x01a82c50
     760:	82c80000 	sbchi	r0, r8, #0
     764:	00140000 	andseq	r0, r4, r0
     768:	1e030000 	cdpne	0, 0, cr0, cr3, cr0, {0}
     76c:	0001b428 	andeq	fp, r1, r8, lsr #8
     770:	78030600 	stmdavc	r3, {r9, sl}
     774:	9f0000a7 	svcls	0x000000a7
     778:	f22b0000 	vhadd.s32	d0, d11, d0
     77c:	03000001 	movweq	r0, #1
     780:	00002520 	andeq	r2, r0, r0, lsr #10
     784:	0082dc00 	addeq	sp, r2, r0, lsl #24
     788:	00006c00 	andeq	r6, r0, r0, lsl #24
     78c:	fb9c0100 	blx	fe700b96 <__bss_end__+0xfe6f5ffe>
     790:	26000007 	strcs	r0, [r0], -r7
     794:	20030063 	andcs	r0, r3, r3, rrx
     798:	00000646 	andeq	r0, r0, r6, asr #12
     79c:	0000011a 	andeq	r0, r0, sl, lsl r1
     7a0:	0000e327 	andeq	lr, r0, r7, lsr #6
     7a4:	00080b00 	andeq	r0, r8, r0, lsl #22
     7a8:	c4030500 	strgt	r0, [r3], #-1280	; 0x500
     7ac:	220000a0 	andcs	r0, r0, #160	; 0xa0
     7b0:	000082f8 	strdeq	r8, [r0], -r8	; <UNPREDICTABLE>
     7b4:	00000d1c 	andeq	r0, r0, ip, lsl sp
     7b8:	00831423 	addeq	r1, r3, r3, lsr #8
     7bc:	000d2300 	andeq	r2, sp, r0, lsl #6
     7c0:	0007f100 	andeq	pc, r7, r0, lsl #2
     7c4:	53012400 	movwpl	r2, #5120	; 0x1400
     7c8:	24210802 	strtcs	r0, [r1], #-2050	; 0x802
     7cc:	03055201 	movweq	r5, #20993	; 0x5201
     7d0:	0000a0c4 	andeq	sl, r0, r4, asr #1
     7d4:	05510124 	ldrbeq	r0, [r1, #-292]	; 0x124
     7d8:	009ef403 	addseq	pc, lr, r3, lsl #8
     7dc:	50012400 	andpl	r2, r1, r0, lsl #8
     7e0:	9ea00305 	cdpls	3, 10, cr0, cr0, cr5, {0}
     7e4:	02240000 	eoreq	r0, r4, #0
     7e8:	0305007d 	movweq	r0, #20605	; 0x507d
     7ec:	00009f60 	andeq	r9, r0, r0, ror #30
     7f0:	83182200 	tsthi	r8, #0, 4
     7f4:	0d390000 	ldceq	0, cr0, [r9, #-0]
     7f8:	07000000 	streq	r0, [r0, -r0]
     7fc:	0000007d 	andeq	r0, r0, sp, ror r0
     800:	0000080b 	andeq	r0, r0, fp, lsl #16
     804:	00007608 	andeq	r7, r0, r8, lsl #12
     808:	06000900 	streq	r0, [r0], -r0, lsl #18
     80c:	000007fb 	strdeq	r0, [r0], -fp
     810:	00013b2e 	andeq	r3, r1, lr, lsr #22
     814:	8d250300 	stchi	3, cr0, [r5, #-0]
     818:	48000001 	stmdami	r0, {r0}
     81c:	70000083 	andvc	r0, r0, r3, lsl #1
     820:	01000000 	mrseq	r0, (UNDEF: 0)
     824:	012a139c 			; <UNDEFINED> instruction: 0x012a139c
     828:	18010000 	stmdane	r1, {}	; <UNPREDICTABLE>
     82c:	00000084 	andeq	r0, r0, r4, lsl #1
     830:	00084e03 	andeq	r4, r8, r3, lsl #28
     834:	01ab1400 			; <UNDEFINED> instruction: 0x01ab1400
     838:	18010000 	stmdane	r1, {}	; <UNPREDICTABLE>
     83c:	0000005d 	andeq	r0, r0, sp, asr r0
     840:	0000e317 	andeq	lr, r0, r7, lsl r3
     844:	00084e00 	andeq	r4, r8, r0, lsl #28
     848:	00012a00 	andeq	r2, r1, r0, lsl #20
     84c:	56060000 	strpl	r0, [r6], -r0
     850:	2f000002 	svccs	0x00000002
     854:	0000008c 	andeq	r0, r0, ip, lsl #1
     858:	83b82f03 			; <UNDEFINED> instruction: 0x83b82f03
     85c:	02a00000 	adceq	r0, r0, #0
     860:	9c010000 	stcls	0, cr0, [r1], {-0}
     864:	00000cec 	andeq	r0, r0, ip, ror #25
     868:	0000e327 	andeq	lr, r0, r7, lsr #6
     86c:	000cec00 	andeq	lr, ip, r0, lsl #24
     870:	fc030500 	stc2	5, cr0, [r3], {-0}
     874:	300000a0 	andcc	r0, r0, r0, lsr #1
     878:	41030063 	tstmi	r3, r3, rrx
     87c:	0000009f 	muleq	r0, pc, r0	; <UNPREDICTABLE>
     880:	7fb89103 	svcvc	0x00b89103
     884:	03006e18 	movweq	r6, #3608	; 0xe18
     888:	00002542 	andeq	r2, r0, r2, asr #10
     88c:	02061d00 	andeq	r1, r6, #0, 26
     890:	83c80000 	bichi	r0, r8, #0
     894:	00040000 	andeq	r0, r4, r0
     898:	35030000 	strcc	r0, [r3, #-0]
     89c:	000008b4 			; <UNDEFINED> instruction: 0x000008b4
     8a0:	0083c81f 	addeq	ip, r3, pc, lsl r8
     8a4:	00000400 	andeq	r0, r0, r0, lsl #8
     8a8:	02162a00 	andseq	r2, r6, #0, 20
     8ac:	01540000 	cmpeq	r4, r0
     8b0:	00000000 	andeq	r0, r0, r0
     8b4:	0008251d 	andeq	r2, r8, sp, lsl r5
     8b8:	0083cc00 	addeq	ip, r3, r0, lsl #24
     8bc:	0000ac00 	andeq	sl, r0, r0, lsl #24
     8c0:	42350300 	eorsmi	r0, r5, #0, 6
     8c4:	1a000009 	bne	8f0 <__code_start__-0x7710>
     8c8:	00000835 	andeq	r0, r0, r5, lsr r8
     8cc:	00000154 	andeq	r0, r0, r4, asr r1
     8d0:	0083cc1f 	addeq	ip, r3, pc, lsl ip
     8d4:	0000ac00 	andeq	sl, r0, r0, lsl #24
     8d8:	08401c00 	stmdaeq	r0, {sl, fp, ip}^
     8dc:	03050000 	movweq	r0, #20480	; 0x5000
     8e0:	0000a104 	andeq	sl, r0, r4, lsl #2
     8e4:	0083d423 	addeq	sp, r3, r3, lsr #8
     8e8:	00022200 	andeq	r2, r2, r0, lsl #4
     8ec:	0008f800 	andeq	pc, r8, r0, lsl #16
     8f0:	50012400 	andpl	r2, r1, r0, lsl #8
     8f4:	00007402 	andeq	r7, r0, r2, lsl #8
     8f8:	00845022 	addeq	r5, r4, r2, lsr #32
     8fc:	000d1c00 	andeq	r1, sp, r0, lsl #24
     900:	84682300 	strbthi	r2, [r8], #-768	; 0x300
     904:	0d230000 	stceq	0, cr0, [r3, #-0]
     908:	09370000 	ldmdbeq	r7!, {}	; <UNPREDICTABLE>
     90c:	01240000 	teqeq	r4, r0
     910:	21080253 	tstcs	r8, r3, asr r2
     914:	05520124 	ldrbeq	r0, [r2, #-292]	; 0x124
     918:	00a10403 	adceq	r0, r1, r3, lsl #8
     91c:	51012400 	tstpl	r1, r0, lsl #8
     920:	9eb40305 	cdpls	3, 11, cr0, cr4, cr5, {0}
     924:	01240000 	teqeq	r4, r0
     928:	bc030550 	cfstr32lt	mvfx0, [r3], {80}	; 0x50
     92c:	2400009f 	strcs	r0, [r0], #-159	; 0x9f
     930:	02007d02 	andeq	r7, r0, #2, 26	; 0x80
     934:	22000074 	andcs	r0, r0, #116	; 0x74
     938:	0000846c 	andeq	r8, r0, ip, ror #8
     93c:	00000d39 	andeq	r0, r0, r9, lsr sp
     940:	a81d0000 	ldmdage	sp, {}	; <UNPREDICTABLE>
     944:	80000001 	andhi	r0, r0, r1
     948:	0c000084 	stceq	0, cr0, [r0], {132}	; 0x84
     94c:	03000000 	movweq	r0, #0
     950:	00096237 	andeq	r6, r9, r7, lsr r2
     954:	01b42800 			; <UNDEFINED> instruction: 0x01b42800
     958:	03060000 	movweq	r0, #24576	; 0x6000
     95c:	0000a778 	andeq	sl, r0, r8, ror r7
     960:	e01d009f 	muls	sp, pc, r0	; <UNPREDICTABLE>
     964:	8c000001 	stchi	0, cr0, [r0], {1}
     968:	04000084 	streq	r0, [r0], #-132	; 0x84
     96c:	03000000 	movweq	r0, #0
     970:	00099f38 	andeq	r9, r9, r8, lsr pc
     974:	01f02800 	mvnseq	r2, r0, lsl #16
     978:	03060000 	movweq	r0, #24576	; 0x6000
     97c:	0000a778 	andeq	sl, r0, r8, ror r7
     980:	848c1f9f 	strhi	r1, [ip], #3999	; 0xf9f
     984:	00040000 	andeq	r0, r4, r0
     988:	90290000 	eorls	r0, r9, r0
     98c:	40000084 	andmi	r0, r0, r4, lsl #1
     990:	2400000d 	strcs	r0, [r0], #-13
     994:	03055001 	movweq	r5, #20481	; 0x5001
     998:	0000a778 	andeq	sl, r0, r8, ror r7
     99c:	31000000 	mrscc	r0, (UNDEF: 0)
     9a0:	00000000 	andeq	r0, r0, r0
     9a4:	00000bd5 	ldrdeq	r0, [r0], -r5
     9a8:	03006932 	movweq	r6, #2354	; 0x932
     9ac:	00002539 	andeq	r2, r0, r9, lsr r5
     9b0:	00017200 	andeq	r7, r1, r0, lsl #4
     9b4:	01a83300 			; <UNDEFINED> instruction: 0x01a83300
     9b8:	84bc0000 	ldrthi	r0, [ip], #0
     9bc:	00180000 	andseq	r0, r8, r0
     9c0:	3a030000 	bcc	c09c8 <__bss_end__+0xb5e30>
     9c4:	000009d2 	ldrdeq	r0, [r0], -r2
     9c8:	0001b41a 	andeq	fp, r1, sl, lsl r4
     9cc:	00019000 	andeq	r9, r1, r0
     9d0:	e01d0000 	ands	r0, sp, r0
     9d4:	c0000001 	andgt	r0, r0, r1
     9d8:	08000084 	stmdaeq	r0, {r2, r7}
     9dc:	03000000 	movweq	r0, #0
     9e0:	000a093b 	andeq	r0, sl, fp, lsr r9
     9e4:	01f01a00 	mvnseq	r1, r0, lsl #20
     9e8:	01a80000 			; <UNDEFINED> instruction: 0x01a80000
     9ec:	c01f0000 	andsgt	r0, pc, r0
     9f0:	08000084 	stmdaeq	r0, {r2, r7}
     9f4:	29000000 	stmdbcs	r0, {}	; <UNPREDICTABLE>
     9f8:	000084c8 	andeq	r8, r0, r8, asr #9
     9fc:	00000d40 	andeq	r0, r0, r0, asr #26
     a00:	02500124 	subseq	r0, r0, #36, 2
     a04:	00000074 	andeq	r0, r0, r4, ror r0
     a08:	01e01d00 	mvneq	r1, r0, lsl #26
     a0c:	84f40000 	ldrbthi	r0, [r4], #0
     a10:	00080000 	andeq	r0, r8, r0
     a14:	3c030000 	stccc	0, cr0, [r3], {-0}
     a18:	00000a40 	andeq	r0, r0, r0, asr #20
     a1c:	0001f01a 	andeq	pc, r1, sl, lsl r0	; <UNPREDICTABLE>
     a20:	0001c000 	andeq	ip, r1, r0
     a24:	84f41f00 	ldrbthi	r1, [r4], #3840	; 0xf00
     a28:	00080000 	andeq	r0, r8, r0
     a2c:	fc290000 	stc2	0, cr0, [r9], #-0
     a30:	40000084 	andmi	r0, r0, r4, lsl #1
     a34:	2400000d 	strcs	r0, [r0], #-13
     a38:	74025001 	strvc	r5, [r2], #-1
     a3c:	00000000 	andeq	r0, r0, r0
     a40:	0003881d 	andeq	r8, r3, sp, lsl r8
     a44:	00852800 	addeq	r2, r5, r0, lsl #16
     a48:	00003400 	andeq	r3, r0, r0, lsl #8
     a4c:	bc3d0300 	ldclt	3, cr0, [sp], #-0
     a50:	1a00000a 	bne	a80 <__code_start__-0x7580>
     a54:	00000394 	muleq	r0, r4, r3
     a58:	000001d8 	ldrdeq	r0, [r0], -r8
     a5c:	0085281f 	addeq	r2, r5, pc, lsl r8
     a60:	00003400 	andeq	r3, r0, r0, lsl #8
     a64:	039d1c00 	orrseq	r1, sp, #0, 24
     a68:	03050000 	movweq	r0, #20480	; 0x5000
     a6c:	0000a0d0 	ldrdeq	sl, [r0], -r0
     a70:	00853822 	addeq	r3, r5, r2, lsr #16
     a74:	000d1c00 	andeq	r1, sp, r0, lsl #24
     a78:	85542300 	ldrbhi	r2, [r4, #-768]	; 0x300
     a7c:	0d230000 	stceq	0, cr0, [r3, #-0]
     a80:	0ab10000 	beq	fec40a88 <__bss_end__+0xfec35ef0>
     a84:	01240000 	teqeq	r4, r0
     a88:	24480153 	strbcs	r0, [r8], #-339	; 0x153
     a8c:	03055201 	movweq	r5, #20993	; 0x5201
     a90:	0000a0d0 	ldrdeq	sl, [r0], -r0
     a94:	05510124 	ldrbeq	r0, [r1, #-292]	; 0x124
     a98:	009f1003 	addseq	r1, pc, r3
     a9c:	50012400 	andpl	r2, r1, r0, lsl #8
     aa0:	9ea00305 	cdpls	3, 10, cr0, cr0, cr5, {0}
     aa4:	02240000 	eoreq	r0, r4, #0
     aa8:	0305007d 	movweq	r0, #20605	; 0x507d
     aac:	00009f20 	andeq	r9, r0, r0, lsr #30
     ab0:	85582200 	ldrbhi	r2, [r8, #-512]	; 0x200
     ab4:	0d390000 	ldceq	0, cr0, [r9, #-0]
     ab8:	00000000 	andeq	r0, r0, r0
     abc:	0001e01d 	andeq	lr, r1, sp, lsl r0
     ac0:	00855c00 	addeq	r5, r5, r0, lsl #24
     ac4:	00000800 	andeq	r0, r0, r0, lsl #16
     ac8:	f33e0300 	vcgt.u<illegal width 64>	d0, d14, d0
     acc:	1a00000a 	bne	afc <__code_start__-0x7504>
     ad0:	000001f0 	strdeq	r0, [r0], -r0	; <UNPREDICTABLE>
     ad4:	000001f0 	strdeq	r0, [r0], -r0	; <UNPREDICTABLE>
     ad8:	00855c1f 	addeq	r5, r5, pc, lsl ip
     adc:	00000800 	andeq	r0, r0, r0, lsl #16
     ae0:	85642900 	strbhi	r2, [r4, #-2304]!	; 0x900
     ae4:	0d400000 	stcleq	0, cr0, [r0, #-0]
     ae8:	01240000 	teqeq	r4, r0
     aec:	00740250 	rsbseq	r0, r4, r0, asr r2
     af0:	22000000 	andcs	r0, r0, #0
     af4:	000084d4 	ldrdeq	r8, [r0], -r4
     af8:	00000d1c 	andeq	r0, r0, ip, lsl sp
     afc:	0084f023 	addeq	pc, r4, r3, lsr #32
     b00:	000d2300 	andeq	r2, sp, r0, lsl #6
     b04:	000b3500 	andeq	r3, fp, r0, lsl #10
     b08:	53012400 	movwpl	r2, #5120	; 0x1400
     b0c:	243b0802 	ldrtcs	r0, [fp], #-2050	; 0x802
     b10:	03055201 	movweq	r5, #20993	; 0x5201
     b14:	0000a0fc 	strdeq	sl, [r0], -ip
     b18:	05510124 	ldrbeq	r0, [r1, #-292]	; 0x124
     b1c:	009ef403 	addseq	pc, lr, r3, lsl #8
     b20:	50012400 	andpl	r2, r1, r0, lsl #8
     b24:	9ea00305 	cdpls	3, 10, cr0, cr0, cr5, {0}
     b28:	02240000 	eoreq	r0, r4, #0
     b2c:	0305007d 	movweq	r0, #20605	; 0x507d
     b30:	00009fec 	andeq	r9, r0, ip, ror #31
     b34:	84f42200 	ldrbthi	r2, [r4], #512	; 0x200
     b38:	0d390000 	ldceq	0, cr0, [r9, #-0]
     b3c:	08220000 	stmdaeq	r2!, {}	; <UNPREDICTABLE>
     b40:	1c000085 	stcne	0, cr0, [r0], {133}	; 0x85
     b44:	2300000d 	movwcs	r0, #13
     b48:	00008524 	andeq	r8, r0, r4, lsr #10
     b4c:	00000d23 	andeq	r0, r0, r3, lsr #26
     b50:	00000b80 	andeq	r0, r0, r0, lsl #23
     b54:	02530124 	subseq	r0, r3, #36, 2
     b58:	01243c08 	teqeq	r4, r8, lsl #24
     b5c:	fc030552 	stc2	5, cr0, [r3], {82}	; 0x52
     b60:	240000a0 	strcs	r0, [r0], #-160	; 0xa0
     b64:	03055101 	movweq	r5, #20737	; 0x5101
     b68:	00009ef4 	strdeq	r9, [r0], -r4
     b6c:	05500124 	ldrbeq	r0, [r0, #-292]	; 0x124
     b70:	009ea003 	addseq	sl, lr, r3
     b74:	7d022400 	cfstrsvc	mvf2, [r2, #-0]
     b78:	00030500 	andeq	r0, r3, r0, lsl #10
     b7c:	000000a0 	andeq	r0, r0, r0, lsr #1
     b80:	00852822 	addeq	r2, r5, r2, lsr #16
     b84:	000d3900 	andeq	r3, sp, r0, lsl #18
     b88:	85702200 	ldrbhi	r2, [r0, #-512]!	; 0x200
     b8c:	0d1c0000 	ldceq	0, cr0, [ip, #-0]
     b90:	8c230000 	stchi	0, cr0, [r3], #-0
     b94:	23000085 	movwcs	r0, #133	; 0x85
     b98:	cb00000d 	blgt	bd4 <__code_start__-0x742c>
     b9c:	2400000b 	strcs	r0, [r0], #-11
     ba0:	08025301 	stmdaeq	r2, {r0, r8, r9, ip, lr}
     ba4:	5201243e 	andpl	r2, r1, #1040187392	; 0x3e000000
     ba8:	a0fc0305 	rscsge	r0, ip, r5, lsl #6
     bac:	01240000 	teqeq	r4, r0
     bb0:	f4030551 	vst3.16	{d0,d2,d4}, [r3 :64], r1
     bb4:	2400009e 	strcs	r0, [r0], #-158	; 0x9e
     bb8:	03055001 	movweq	r5, #20481	; 0x5001
     bbc:	00009ea0 	andeq	r9, r0, r0, lsr #29
     bc0:	007d0224 	rsbseq	r0, sp, r4, lsr #4
     bc4:	9fec0305 	svcls	0x00ec0305
     bc8:	22000000 	andcs	r0, r0, #0
     bcc:	00008590 	muleq	r0, r0, r5
     bd0:	00000d39 	andeq	r0, r0, r9, lsr sp
     bd4:	83c42200 	bichi	r2, r4, #0, 4
     bd8:	0d550000 	ldcleq	0, cr0, [r5, #-0]
     bdc:	c8220000 	stmdagt	r2!, {}	; <UNPREDICTABLE>
     be0:	5c000083 	stcpl	0, cr0, [r0], {131}	; 0x83
     be4:	2300000d 	movwcs	r0, #13
     be8:	00008480 	andeq	r8, r0, r0, lsl #9
     bec:	00000d23 	andeq	r0, r0, r3, lsr #26
     bf0:	00000bfe 	strdeq	r0, [r0], -lr
     bf4:	05500124 	ldrbeq	r0, [r0, #-292]	; 0x124
     bf8:	009fe003 	addseq	lr, pc, r3
     bfc:	9c220000 	stcls	0, cr0, [r2], #-0
     c00:	1c000084 	stcne	0, cr0, [r0], {132}	; 0x84
     c04:	2300000d 	movwcs	r0, #13
     c08:	000084b8 			; <UNDEFINED> instruction: 0x000084b8
     c0c:	00000d23 	andeq	r0, r0, r3, lsr #26
     c10:	00000c40 	andeq	r0, r0, r0, asr #24
     c14:	02530124 	subseq	r0, r3, #36, 2
     c18:	01243808 	teqeq	r4, r8, lsl #16
     c1c:	fc030552 	stc2	5, cr0, [r3], {82}	; 0x52
     c20:	240000a0 	strcs	r0, [r0], #-160	; 0xa0
     c24:	03055101 	movweq	r5, #20737	; 0x5101
     c28:	00009ef4 	strdeq	r9, [r0], -r4
     c2c:	05500124 	ldrbeq	r0, [r0, #-292]	; 0x124
     c30:	009ea003 	addseq	sl, lr, r3
     c34:	7d022400 	cfstrsvc	mvf2, [r2, #-0]
     c38:	ec030500 	cfstr32	mvfx0, [r3], {-0}
     c3c:	0000009f 	muleq	r0, pc, r0	; <UNPREDICTABLE>
     c40:	0084bc22 	addeq	fp, r4, r2, lsr #24
     c44:	000d3900 	andeq	r3, sp, r0, lsl #18
     c48:	85b42300 	ldrhi	r2, [r4, #768]!	; 0x300
     c4c:	08100000 	ldmdaeq	r0, {}	; <UNPREDICTABLE>
     c50:	0c5e0000 	mraeq	r0, lr, acc0
     c54:	01240000 	teqeq	r4, r0
     c58:	b0910350 	addslt	r0, r1, r0, asr r3
     c5c:	bc23007f 	stclt	0, cr0, [r3], #-508	; 0xfffffe04
     c60:	63000085 	movwvs	r0, #133	; 0x85
     c64:	7300000d 	movwvc	r0, #13
     c68:	2400000c 	strcs	r0, [r0], #-12
     c6c:	91035001 	tstls	r3, r1
     c70:	22007fb0 	andcs	r7, r0, #176, 30	; 0x2c0
     c74:	000085c8 	andeq	r8, r0, r8, asr #11
     c78:	00000d1c 	andeq	r0, r0, ip, lsl sp
     c7c:	0085dc23 	addeq	sp, r5, r3, lsr #24
     c80:	000d2300 	andeq	r2, sp, r0, lsl #6
     c84:	000cab00 	andeq	sl, ip, r0, lsl #22
     c88:	53012400 	movwpl	r2, #5120	; 0x1400
     c8c:	24440802 	strbcs	r0, [r4], #-2050	; 0x802
     c90:	03055201 	movweq	r5, #20993	; 0x5201
     c94:	0000a0fc 	strdeq	sl, [r0], -ip
     c98:	05510124 	ldrbeq	r0, [r1, #-292]	; 0x124
     c9c:	009ef403 	addseq	pc, lr, r3, lsl #8
     ca0:	50012400 	andpl	r2, r1, r0, lsl #8
     ca4:	a0140305 	andsge	r0, r4, r5, lsl #6
     ca8:	22000000 	andcs	r0, r0, #0
     cac:	000085e0 	andeq	r8, r0, r0, ror #11
     cb0:	00000d39 	andeq	r0, r0, r9, lsr sp
     cb4:	0085e823 	addeq	lr, r5, r3, lsr #16
     cb8:	000d2300 	andeq	r2, sp, r0, lsl #6
     cbc:	000ccb00 	andeq	ip, ip, r0, lsl #22
     cc0:	50012400 	andpl	r2, r1, r0, lsl #8
     cc4:	a0440305 	subge	r0, r4, r5, lsl #6
     cc8:	23000000 	movwcs	r0, #0
     ccc:	000085f8 	strdeq	r8, [r0], -r8	; <UNPREDICTABLE>
     cd0:	00000d23 	andeq	r0, r0, r3, lsr #26
     cd4:	00000ce2 	andeq	r0, r0, r2, ror #25
     cd8:	05500124 	ldrbeq	r0, [r0, #-292]	; 0x124
     cdc:	00a05003 	adceq	r5, r0, r3
     ce0:	fc220000 	stc2	0, cr0, [r2], #-0
     ce4:	39000085 	stmdbcc	r0, {r0, r2, r7}
     ce8:	0000000d 	andeq	r0, r0, sp
     cec:	00008f06 	andeq	r8, r0, r6, lsl #30
     cf0:	6e633000 	cdpvs	0, 6, cr3, cr3, cr0, {0}
     cf4:	08030074 	stmdaeq	r3, {r2, r4, r5, r6}
     cf8:	000001a3 	andeq	r0, r0, r3, lsr #3
     cfc:	a7740305 	ldrbge	r0, [r4, -r5, lsl #6]!
     d00:	6c300000 	ldcvs	0, cr0, [r0], #-0
     d04:	98090300 	stmdals	r9, {r8, r9}
     d08:	05000001 	streq	r0, [r0, #-1]
     d0c:	00a77803 	adceq	r7, r7, r3, lsl #16
     d10:	018a3400 	orreq	r3, sl, r0, lsl #8
     d14:	c2090000 	andgt	r0, r9, #0
     d18:	00000025 	andeq	r0, r0, r5, lsr #32
     d1c:	0000d435 	andeq	sp, r0, r5, lsr r4
     d20:	361e0800 	ldrcc	r0, [lr], -r0, lsl #16
     d24:	000005bc 			; <UNDEFINED> instruction: 0x000005bc
     d28:	00252908 	eoreq	r2, r5, r8, lsl #18
     d2c:	0d390000 	ldceq	0, cr0, [r9, #-0]
     d30:	840e0000 	strhi	r0, [lr], #-0
     d34:	37000000 	strcc	r0, [r0, -r0]
     d38:	01143500 	tsteq	r4, r0, lsl #10
     d3c:	65080000 	strvs	r0, [r8, #-0]
     d40:	00010336 	andeq	r0, r1, r6, lsr r3
     d44:	250c0400 	strcs	r0, [ip, #-1024]	; 0x400
     d48:	55000000 	strpl	r0, [r0, #-0]
     d4c:	0e00000d 	cdpeq	0, 0, cr0, cr0, cr13, {0}
     d50:	000001be 			; <UNDEFINED> instruction: 0x000001be
     d54:	01fc3500 	mvnseq	r3, r0, lsl #10
     d58:	8d080000 	stchi	0, cr0, [r8, #-0]
     d5c:	0002b135 	andeq	fp, r2, r5, lsr r1
     d60:	38360500 	ldmdacc	r6!, {r8, sl}
     d64:	000001f6 	strdeq	r0, [r0], -r6
     d68:	00254e06 	eoreq	r4, r5, r6, lsl #28
     d6c:	460e0000 	strmi	r0, [lr], -r0
     d70:	00000006 	andeq	r0, r0, r6
     d74:	000bd700 	andeq	sp, fp, r0, lsl #14
     d78:	eb000400 	bl	1d80 <__code_start__-0x6280>
     d7c:	04000002 	streq	r0, [r0], #-2
     d80:	00020901 	andeq	r0, r2, r1, lsl #18
     d84:	02f60100 	rscseq	r0, r6, #0, 2
     d88:	000d0000 	andeq	r0, sp, r0
     d8c:	86580000 	ldrbhi	r0, [r8], -r0
     d90:	03780000 	cmneq	r8, #0
     d94:	02730000 	rsbseq	r0, r3, #0
     d98:	04020000 	streq	r0, [r2], #-0
     d9c:	746e6905 	strbtvc	r6, [lr], #-2309	; 0x905
     da0:	07040300 	streq	r0, [r4, -r0, lsl #6]
     da4:	0000009e 	muleq	r0, lr, r0
     da8:	7e060103 	adfvcs	f0, f6, f3
     dac:	03000001 	movweq	r0, #1
     db0:	01a10502 			; <UNDEFINED> instruction: 0x01a10502
     db4:	04030000 	streq	r0, [r3], #-0
     db8:	0000b005 	andeq	fp, r0, r5
     dbc:	05080300 	streq	r0, [r8, #-768]	; 0x300
     dc0:	000000ab 	andeq	r0, r0, fp, lsr #1
     dc4:	7c080103 	stfvcs	f0, [r8], {3}
     dc8:	03000001 	movweq	r0, #1
     dcc:	00f00702 	rscseq	r0, r0, r2, lsl #14
     dd0:	d3040000 	movwle	r0, #16384	; 0x4000
     dd4:	03000001 	movweq	r0, #1
     dd8:	00006834 	andeq	r6, r0, r4, lsr r8
     ddc:	07040300 	streq	r0, [r4, -r0, lsl #6]
     de0:	00000099 	muleq	r0, r9, r0
     de4:	94070803 	strls	r0, [r7], #-2051	; 0x803
     de8:	03000000 	movweq	r0, #0
     dec:	01210704 	teqeq	r1, r4, lsl #14
     df0:	04050000 	streq	r0, [r5], #-0
     df4:	85080103 	strhi	r0, [r8, #-259]	; 0x103
     df8:	06000001 	streq	r0, [r0], -r1
     dfc:	00008c04 	andeq	r8, r0, r4, lsl #24
     e00:	007f0700 	rsbseq	r0, pc, r0, lsl #14
     e04:	6e040000 	cdpvs	0, 0, cr0, cr4, cr0, {0}
     e08:	02000004 	andeq	r0, r0, #4
     e0c:	00009c8a 	andeq	r9, r0, sl, lsl #25
     e10:	a2040600 	andge	r0, r4, #0, 12
     e14:	08000000 	stmdaeq	r0, {}	; <UNPREDICTABLE>
     e18:	000000b7 	strheq	r0, [r0], -r7
     e1c:	0000b709 	andeq	fp, r0, r9, lsl #14
     e20:	005d0900 	subseq	r0, sp, r0, lsl #18
     e24:	5d090000 	stcpl	0, cr0, [r9, #-0]
     e28:	00000000 	andeq	r0, r0, r0
     e2c:	005d0406 	subseq	r0, sp, r6, lsl #8
     e30:	3a0a0000 	bcc	280e38 <__bss_end__+0x2762a0>
     e34:	02000004 	andeq	r0, r0, #4
     e38:	00005d5f 	andeq	r5, r0, pc, asr sp
     e3c:	00d90300 	sbcseq	r0, r9, r0, lsl #6
     e40:	720b0000 	andvc	r0, fp, #0
     e44:	02007465 	andeq	r7, r0, #1694498816	; 0x65000000
     e48:	00005d5f 	andeq	r5, r0, pc, asr sp
     e4c:	ba0a0000 	blt	280e54 <__bss_end__+0x2762bc>
     e50:	02000003 	andeq	r0, r0, #3
     e54:	00005da6 	andeq	r5, r0, r6, lsr #27
     e58:	00f50300 	rscseq	r0, r5, r0, lsl #6
     e5c:	720b0000 	andvc	r0, fp, #0
     e60:	02007465 	andeq	r7, r0, #1694498816	; 0x65000000
     e64:	00005da6 	andeq	r5, r0, r6, lsr #27
     e68:	0c0a0000 	stceq	0, cr0, [sl], {-0}
     e6c:	02000004 	andeq	r0, r0, #4
     e70:	00002c70 	andeq	r2, r0, r0, ror ip
     e74:	010f0300 	mrseq	r0, SP_hyp
     e78:	720c0000 	andvc	r0, ip, #0
     e7c:	5d700200 	lfmpl	f0, 2, [r0, #-0]
     e80:	00000000 	andeq	r0, r0, r0
     e84:	0003290a 	andeq	r2, r3, sl, lsl #18
     e88:	5d180100 	ldfpls	f0, [r8, #-0]
     e8c:	03000000 	movweq	r0, #0
     e90:	0000012b 	andeq	r0, r0, fp, lsr #2
     e94:	7465720b 	strbtvc	r7, [r5], #-523	; 0x20b
     e98:	5d180100 	ldfpls	f0, [r8, #-0]
     e9c:	00000000 	andeq	r0, r0, r0
     ea0:	0004940d 	andeq	r9, r4, sp, lsl #8
     ea4:	031e0100 	tsteq	lr, #0, 2
     ea8:	00000141 	andeq	r0, r0, r1, asr #2
     eac:	0100760c 	tsteq	r0, ip, lsl #12
     eb0:	00005d1e 	andeq	r5, r0, lr, lsl sp
     eb4:	6c0d0000 	stcvs	0, cr0, [sp], {-0}
     eb8:	01000003 	tsteq	r0, r3
     ebc:	01570326 	cmpeq	r7, r6, lsr #6
     ec0:	760c0000 	strvc	r0, [ip], -r0
     ec4:	5d260100 	stfpls	f0, [r6, #-0]
     ec8:	00000000 	andeq	r0, r0, r0
     ecc:	0004520d 	andeq	r5, r4, sp, lsl #4
     ed0:	030d0100 	movweq	r0, #53504	; 0xd100
     ed4:	0000016d 	andeq	r0, r0, sp, ror #2
     ed8:	0100760c 	tsteq	r0, ip, lsl #12
     edc:	00005d0d 	andeq	r5, r0, sp, lsl #26
     ee0:	ec0a0000 	stc	0, cr0, [sl], {-0}
     ee4:	02000003 	andeq	r0, r0, #3
     ee8:	00002c66 	andeq	r2, r0, r6, ror #24
     eec:	01890300 	orreq	r0, r9, r0, lsl #6
     ef0:	a80e0000 	stmdage	lr, {}	; <UNPREDICTABLE>
     ef4:	02000003 	andeq	r0, r0, #3
     ef8:	00005d67 	andeq	r5, r0, r7, ror #26
     efc:	780a0000 	stmdavc	sl, {}	; <UNPREDICTABLE>
     f00:	02000004 	andeq	r0, r0, #4
     f04:	00005d56 	andeq	r5, r0, r6, asr sp
     f08:	01a50300 			; <UNDEFINED> instruction: 0x01a50300
     f0c:	720b0000 	andvc	r0, fp, #0
     f10:	02007465 	andeq	r7, r0, #1694498816	; 0x65000000
     f14:	00005d56 	andeq	r5, r0, r6, asr sp
     f18:	b20a0000 	andlt	r0, sl, #0
     f1c:	02000003 	andeq	r0, r0, #3
     f20:	00005d63 	andeq	r5, r0, r3, ror #26
     f24:	01c10300 	biceq	r0, r1, r0, lsl #6
     f28:	720b0000 	andvc	r0, fp, #0
     f2c:	02007465 	andeq	r7, r0, #1694498816	; 0x65000000
     f30:	00005d63 	andeq	r5, r0, r3, ror #26
     f34:	170d0000 	strne	r0, [sp, -r0]
     f38:	01000003 	tsteq	r0, r3
     f3c:	01d70332 	bicseq	r0, r7, r2, lsr r3
     f40:	760c0000 	strvc	r0, [ip], -r0
     f44:	5d320100 	ldfpls	f0, [r2, #-0]
     f48:	00000000 	andeq	r0, r0, r0
     f4c:	0003860a 	andeq	r8, r3, sl, lsl #12
     f50:	5d8d0100 	stfpls	f0, [sp]
     f54:	03000000 	movweq	r0, #0
     f58:	000001f3 	strdeq	r0, [r0], -r3
     f5c:	7465720b 	strbtvc	r7, [r5], #-523	; 0x20b
     f60:	5d8d0100 	stfpls	f0, [sp]
     f64:	00000000 	andeq	r0, r0, r0
     f68:	0003480d 	andeq	r4, r3, sp, lsl #16
     f6c:	038e0100 	orreq	r0, lr, #0, 2
     f70:	00000209 	andeq	r0, r0, r9, lsl #4
     f74:	0100760c 	tsteq	r0, ip, lsl #12
     f78:	00005d8e 	andeq	r5, r0, lr, lsl #27
     f7c:	fe0d0000 	cdp2	0, 0, cr0, cr13, cr0, {0}
     f80:	01000003 	tsteq	r0, r3
     f84:	021f038c 	andseq	r0, pc, #140, 6	; 0x30000002
     f88:	760c0000 	strvc	r0, [ip], -r0
     f8c:	5d8c0100 	stfpls	f0, [ip]
     f90:	00000000 	andeq	r0, r0, r0
     f94:	0003030a 	andeq	r0, r3, sl, lsl #6
     f98:	2ca90200 	sfmcs	f0, 4, [r9]
     f9c:	03000000 	movweq	r0, #0
     fa0:	00000239 	andeq	r0, r0, r9, lsr r2
     fa4:	0200720b 	andeq	r7, r0, #-1342177280	; 0xb0000000
     fa8:	00002caa 	andeq	r2, r0, sl, lsr #25
     fac:	b10a0000 	mrslt	r0, (UNDEF: 10)
     fb0:	02000003 	andeq	r0, r0, #3
     fb4:	00005d97 	muleq	r0, r7, sp
     fb8:	02550300 	subseq	r0, r5, #0, 6
     fbc:	720b0000 	andvc	r0, fp, #0
     fc0:	02007465 	andeq	r7, r0, #1694498816	; 0x65000000
     fc4:	00005d97 	muleq	r0, r7, sp
     fc8:	5f0f0000 	svcpl	0x000f0000
     fcc:	01000003 	tsteq	r0, r3
     fd0:	00865836 	addeq	r5, r6, r6, lsr r8
     fd4:	0000b000 	andeq	fp, r0, r0
     fd8:	309c0100 	addscc	r0, ip, r0, lsl #2
     fdc:	10000004 	andne	r0, r0, r4
     fe0:	0000007b 	andeq	r0, r0, fp, ror r0
     fe4:	007d3601 	rsbseq	r3, sp, r1, lsl #12
     fe8:	02080000 	andeq	r0, r8, #0
     fec:	a9100000 	ldmdbge	r0, {}	; <UNPREDICTABLE>
     ff0:	01000004 	tsteq	r0, r4
     ff4:	00009136 	andeq	r9, r0, r6, lsr r1
     ff8:	00024d00 	andeq	r4, r2, r0, lsl #26
     ffc:	03201100 	teqeq	r0, #0, 2
    1000:	39010000 	stmdbcc	r1, {}	; <UNPREDICTABLE>
    1004:	0000005d 	andeq	r0, r0, sp, asr r0
    1008:	00000292 	muleq	r0, r2, r2
    100c:	0000e312 	andeq	lr, r0, r2, lsl r3
    1010:	00044000 	andeq	r4, r4, r0
    1014:	38030500 	stmdacc	r3, {r8, sl}
    1018:	110000a2 	smlatbne	r0, r2, r0, r0
    101c:	00000356 	andeq	r0, r0, r6, asr r3
    1020:	005d4301 	subseq	r4, sp, r1, lsl #6
    1024:	02be0000 	adcseq	r0, lr, #0
    1028:	0f130000 	svceq	0x00130000
    102c:	60000001 	andvs	r0, r0, r1
    1030:	04000086 	streq	r0, [r0], #-134	; 0x86
    1034:	01000000 	mrseq	r0, (UNDEF: 0)
    1038:	0002dc39 	andeq	sp, r2, r9, lsr ip
    103c:	86601400 	strbthi	r1, [r0], -r0, lsl #8
    1040:	00040000 	andeq	r0, r4, r0
    1044:	1f150000 	svcne	0x00150000
    1048:	ea000001 	b	1054 <__code_start__-0x6fac>
    104c:	00000002 	andeq	r0, r0, r2
    1050:	012b1300 	teqeq	fp, r0, lsl #6
    1054:	86680000 	strbthi	r0, [r8], -r0
    1058:	00040000 	andeq	r0, r4, r0
    105c:	3f010000 	svccc	0x00010000
    1060:	000002f9 	strdeq	r0, [r0], -r9
    1064:	00013716 	andeq	r3, r1, r6, lsl r7
    1068:	0002fd00 	andeq	pc, r2, r0, lsl #26
    106c:	0f130000 	svceq	0x00130000
    1070:	6c000001 	stcvs	0, cr0, [r0], {1}
    1074:	04000086 	streq	r0, [r0], #-134	; 0x86
    1078:	01000000 	mrseq	r0, (UNDEF: 0)
    107c:	00032041 	andeq	r2, r3, r1, asr #32
    1080:	866c1400 	strbthi	r1, [ip], -r0, lsl #8
    1084:	00040000 	andeq	r0, r4, r0
    1088:	1f150000 	svcne	0x00150000
    108c:	1b000001 	blne	1098 <__code_start__-0x6f68>
    1090:	00000003 	andeq	r0, r0, r3
    1094:	01411300 	mrseq	r1, (UNDEF: 113)
    1098:	869c0000 	ldrhi	r0, [ip], r0
    109c:	00040000 	andeq	r0, r4, r0
    10a0:	46010000 	strmi	r0, [r1], -r0
    10a4:	0000033d 	andeq	r0, r0, sp, lsr r3
    10a8:	00014d16 	andeq	r4, r1, r6, lsl sp
    10ac:	0002be00 	andeq	fp, r2, r0, lsl #28
    10b0:	2b130000 	blcs	4c10b8 <__bss_end__+0x4b6520>
    10b4:	a0000001 	andge	r0, r0, r1
    10b8:	08000086 	stmdaeq	r0, {r1, r2, r7}
    10bc:	01000000 	mrseq	r0, (UNDEF: 0)
    10c0:	00035850 	andeq	r5, r3, r0, asr r8
    10c4:	01371700 	teqeq	r7, r0, lsl #14
    10c8:	01ff0000 	mvnseq	r0, r0
    10cc:	010f1300 	mrseq	r1, SP_hyp
    10d0:	86a80000 	strthi	r0, [r8], r0
    10d4:	00040000 	andeq	r0, r4, r0
    10d8:	52010000 	andpl	r0, r1, #0
    10dc:	0000037f 	andeq	r0, r0, pc, ror r3
    10e0:	0086a814 	addeq	sl, r6, r4, lsl r8
    10e4:	00000400 	andeq	r0, r0, r0, lsl #8
    10e8:	011f1500 	tsteq	pc, r0, lsl #10
    10ec:	03390000 	teqeq	r9, #0
    10f0:	00000000 	andeq	r0, r0, r0
    10f4:	00015713 	andeq	r5, r1, r3, lsl r7
    10f8:	0086d800 	addeq	sp, r6, r0, lsl #16
    10fc:	00000800 	andeq	r0, r0, r0, lsl #16
    1100:	99540100 	ldmdbls	r4, {r8}^
    1104:	18000003 	stmdane	r0, {r0, r1}
    1108:	00000163 	andeq	r0, r0, r3, ror #2
    110c:	7c190000 	ldcvc	0, cr0, [r9], {-0}
    1110:	af000086 	svcge	0x00000086
    1114:	1a00000b 	bne	1148 <__code_start__-0x6eb8>
    1118:	00008698 	muleq	r0, r8, r6
    111c:	00000bb6 			; <UNDEFINED> instruction: 0x00000bb6
    1120:	000003db 	ldrdeq	r0, [r0], -fp
    1124:	0253011b 	subseq	r0, r3, #-1073741818	; 0xc0000006
    1128:	011b4108 	tsteq	fp, r8, lsl #2
    112c:	38030552 	stmdacc	r3, {r1, r4, r6, r8, sl}
    1130:	1b0000a2 	blne	13c0 <__code_start__-0x6c40>
    1134:	03055101 	movweq	r5, #20737	; 0x5101
    1138:	0000a110 	andeq	sl, r0, r0, lsl r1
    113c:	0550011b 	ldrbeq	r0, [r0, #-283]	; 0x11b
    1140:	009ea003 	addseq	sl, lr, r3
    1144:	7d021b00 	vstrvc	d1, [r2, #-0]
    1148:	20030500 	andcs	r0, r3, r0, lsl #10
    114c:	000000a1 	andeq	r0, r0, r1, lsr #1
    1150:	00869c19 	addeq	r9, r6, r9, lsl ip
    1154:	000bcc00 	andeq	ip, fp, r0, lsl #24
    1158:	86b81900 	ldrthi	r1, [r8], r0, lsl #18
    115c:	0baf0000 	bleq	febc1164 <__bss_end__+0xfebb65cc>
    1160:	d41a0000 	ldrle	r0, [sl], #-0
    1164:	b6000086 	strlt	r0, [r0], -r6, lsl #1
    1168:	2600000b 	strcs	r0, [r0], -fp
    116c:	1b000004 	blne	1184 <__code_start__-0x6e7c>
    1170:	08025301 	stmdaeq	r2, {r0, r8, r9, ip, lr}
    1174:	52011b52 	andpl	r1, r1, #83968	; 0x14800
    1178:	a2380305 	eorsge	r0, r8, #335544320	; 0x14000000
    117c:	011b0000 	tsteq	fp, r0
    1180:	10030551 	andne	r0, r3, r1, asr r5
    1184:	1b0000a1 	blne	1410 <__code_start__-0x6bf0>
    1188:	03055001 	movweq	r5, #20481	; 0x5001
    118c:	00009ea0 	andeq	r9, r0, r0, lsr #29
    1190:	007d021b 	rsbseq	r0, sp, fp, lsl r2
    1194:	a1200305 	teqge	r0, r5, lsl #6
    1198:	19000000 	stmdbne	r0, {}	; <UNPREDICTABLE>
    119c:	000086d8 	ldrdeq	r8, [r0], -r8	; <UNPREDICTABLE>
    11a0:	00000bcc 	andeq	r0, r0, ip, asr #23
    11a4:	007f1c00 	rsbseq	r1, pc, r0, lsl #24
    11a8:	04400000 	strbeq	r0, [r0], #-0
    11ac:	761d0000 	ldrvc	r0, [sp], -r0
    11b0:	0c000000 	stceq	0, cr0, [r0], {-0}
    11b4:	04300700 	ldrteq	r0, [r0], #-1792	; 0x700
    11b8:	e20a0000 	and	r0, sl, #0
    11bc:	02000002 	andeq	r0, r0, #2
    11c0:	00002c76 	andeq	r2, r0, r6, ror ip
    11c4:	046c0300 	strbteq	r0, [ip], #-768	; 0x300
    11c8:	720b0000 	andvc	r0, fp, #0
    11cc:	2c770200 	lfmcs	f0, 2, [r7], #-0
    11d0:	1e000000 	cdpne	0, 0, cr0, cr0, cr0, {0}
    11d4:	000000e3 	andeq	r0, r0, r3, ror #1
    11d8:	0000047c 	andeq	r0, r0, ip, ror r4
    11dc:	000002e2 	andeq	r0, r0, r2, ror #5
    11e0:	007f1c00 	rsbseq	r1, pc, r0, lsl #24
    11e4:	047c0000 	ldrbteq	r0, [ip], #-0
    11e8:	761d0000 	ldrvc	r0, [sp], -r0
    11ec:	13000000 	movwne	r0, #0
    11f0:	046c0700 	strbteq	r0, [ip], #-1792	; 0x700
    11f4:	ba0f0000 	blt	3c11fc <__bss_end__+0x3b6664>
    11f8:	01000002 	tsteq	r0, r2
    11fc:	00870859 	addeq	r0, r7, r9, asr r8
    1200:	0000dc00 	andeq	sp, r0, r0, lsl #24
    1204:	b09c0100 	addslt	r0, ip, r0, lsl #2
    1208:	1f000006 	svcne	0x00000006
    120c:	01006370 	tsteq	r0, r0, ror r3
    1210:	00002c59 	andeq	r2, r0, r9, asr ip
    1214:	00035700 	andeq	r5, r3, r0, lsl #14
    1218:	04292000 	strteq	r2, [r9], #-0
    121c:	5a010000 	bpl	41224 <__bss_end__+0x3668c>
    1220:	00000025 	andeq	r0, r0, r5, lsr #32
    1224:	a7880305 	strge	r0, [r8, r5, lsl #6]
    1228:	e3120000 	tst	r2, #0
    122c:	c0000000 	andgt	r0, r0, r0
    1230:	05000006 	streq	r0, [r0, #-6]
    1234:	00a24803 	adceq	r4, r2, r3, lsl #16
    1238:	007c0e00 	rsbseq	r0, ip, r0, lsl #28
    123c:	6b010000 	blvs	41244 <__bss_end__+0x366ac>
    1240:	0000005d 	andeq	r0, r0, sp, asr r0
    1244:	00016d13 	andeq	r6, r1, r3, lsl sp
    1248:	00871400 	addeq	r1, r7, r0, lsl #8
    124c:	00000400 	andeq	r0, r0, r0, lsl #8
    1250:	115c0100 	cmpne	ip, r0, lsl #2
    1254:	14000005 	strne	r0, [r0], #-5
    1258:	00008714 	andeq	r8, r0, r4, lsl r7
    125c:	00000004 	andeq	r0, r0, r4
    1260:	00017d21 	andeq	r7, r1, r1, lsr #26
    1264:	00bd2200 	adcseq	r2, sp, r0, lsl #4
    1268:	87140000 	ldrhi	r0, [r4, -r0]
    126c:	00040000 	andeq	r0, r4, r0
    1270:	67020000 	strvs	r0, [r2, -r0]
    1274:	00871414 	addeq	r1, r7, r4, lsl r4
    1278:	00000400 	andeq	r0, r0, r0, lsl #8
    127c:	00cd2100 	sbceq	r2, sp, r0, lsl #2
    1280:	00000000 	andeq	r0, r0, r0
    1284:	45130000 	ldrmi	r0, [r3, #-0]
    1288:	18000004 	stmdane	r0, {r2}
    128c:	2c000087 	stccs	0, cr0, [r0], {135}	; 0x87
    1290:	01000000 	mrseq	r0, (UNDEF: 0)
    1294:	0005c462 	andeq	ip, r5, r2, ror #8
    1298:	87181400 	ldrhi	r1, [r8, -r0, lsl #8]
    129c:	002c0000 	eoreq	r0, ip, r0
    12a0:	55210000 	strpl	r0, [r1, #-0]!
    12a4:	23000004 	movwcs	r0, #4
    12a8:	0000045e 	andeq	r0, r0, lr, asr r4
    12ac:	a25c0305 	subsge	r0, ip, #335544320	; 0x14000000
    12b0:	bd130000 	ldclt	0, cr0, [r3, #-0]
    12b4:	18000000 	stmdane	r0, {}	; <UNPREDICTABLE>
    12b8:	04000087 	streq	r0, [r0], #-135	; 0x87
    12bc:	02000000 	andeq	r0, r0, #0
    12c0:	00056477 	andeq	r6, r5, r7, ror r4
    12c4:	87181400 	ldrhi	r1, [r8, -r0, lsl #8]
    12c8:	00040000 	andeq	r0, r4, r0
    12cc:	cd150000 	ldcgt	0, cr0, [r5, #-0]
    12d0:	ce000000 	cdpgt	0, 0, cr0, cr0, cr0, {0}
    12d4:	00000003 	andeq	r0, r0, r3
    12d8:	00f51300 	rscseq	r1, r5, r0, lsl #6
    12dc:	871c0000 	ldrhi	r0, [ip, -r0]
    12e0:	00040000 	andeq	r0, r4, r0
    12e4:	78020000 	stmdavc	r2, {}	; <UNPREDICTABLE>
    12e8:	00000581 	andeq	r0, r0, r1, lsl #11
    12ec:	00010516 	andeq	r0, r1, r6, lsl r5
    12f0:	0003ce00 	andeq	ip, r3, r0, lsl #28
    12f4:	2c190000 	ldccs	0, cr0, [r9], {-0}
    12f8:	af000087 	svcge	0x00000087
    12fc:	1a00000b 	bne	1330 <__code_start__-0x6cd0>
    1300:	00008740 	andeq	r8, r0, r0, asr #14
    1304:	00000bb6 			; <UNDEFINED> instruction: 0x00000bb6
    1308:	000005b9 			; <UNDEFINED> instruction: 0x000005b9
    130c:	0253011b 	subseq	r0, r3, #-1073741818	; 0xc0000006
    1310:	011b7908 	tsteq	fp, r8, lsl #18
    1314:	5c030552 	cfstr32pl	mvfx0, [r3], {82}	; 0x52
    1318:	1b0000a2 	blne	15a8 <__code_start__-0x6a58>
    131c:	03055101 	movweq	r5, #20737	; 0x5101
    1320:	0000a170 	andeq	sl, r0, r0, ror r1
    1324:	0550011b 	ldrbeq	r0, [r0, #-283]	; 0x11b
    1328:	00a13803 	adceq	r3, r1, r3, lsl #16
    132c:	44190000 	ldrmi	r0, [r9], #-0
    1330:	cc000087 	stcgt	0, cr0, [r0], {135}	; 0x87
    1334:	0000000b 	andeq	r0, r0, fp
    1338:	01891300 	orreq	r1, r9, r0, lsl #6
    133c:	87440000 	strbhi	r0, [r4, -r0]
    1340:	00040000 	andeq	r0, r4, r0
    1344:	67010000 	strvs	r0, [r1, -r0]
    1348:	000005eb 	andeq	r0, r0, fp, ror #11
    134c:	00874414 	addeq	r4, r7, r4, lsl r4
    1350:	00000400 	andeq	r0, r0, r0, lsl #8
    1354:	01991500 	orrseq	r1, r9, r0, lsl #10
    1358:	03e10000 	mvneq	r0, #0
    135c:	00000000 	andeq	r0, r0, r0
    1360:	0001a513 	andeq	sl, r1, r3, lsl r5
    1364:	0087ac00 	addeq	sl, r7, r0, lsl #24
    1368:	00000400 	andeq	r0, r0, r0, lsl #8
    136c:	0e6b0100 	poweqe	f0, f3, f0
    1370:	14000006 	strne	r0, [r0], #-6
    1374:	000087ac 	andeq	r8, r0, ip, lsr #15
    1378:	00000004 	andeq	r0, r0, r4
    137c:	0001b521 	andeq	fp, r1, r1, lsr #10
    1380:	19000000 	stmdbne	r0, {}	; <UNPREDICTABLE>
    1384:	00008758 	andeq	r8, r0, r8, asr r7
    1388:	00000baf 	andeq	r0, r0, pc, lsr #23
    138c:	0087741a 	addeq	r7, r7, sl, lsl r4
    1390:	000bb600 	andeq	fp, fp, r0, lsl #12
    1394:	00065000 	andeq	r5, r6, r0
    1398:	53011b00 	movwpl	r1, #6912	; 0x1b00
    139c:	1b670802 	blne	19c33ac <__bss_end__+0x19b8814>
    13a0:	03055201 	movweq	r5, #20993	; 0x5201
    13a4:	0000a248 	andeq	sl, r0, r8, asr #4
    13a8:	0551011b 	ldrbeq	r0, [r1, #-283]	; 0x11b
    13ac:	00a11003 	adceq	r1, r1, r3
    13b0:	50011b00 	andpl	r1, r1, r0, lsl #22
    13b4:	9ea00305 	cdpls	3, 10, cr0, cr0, cr5, {0}
    13b8:	021b0000 	andseq	r0, fp, #0
    13bc:	0305007d 	movweq	r0, #20605	; 0x507d
    13c0:	0000a180 	andeq	sl, r0, r0, lsl #3
    13c4:	87781900 	ldrbhi	r1, [r8, -r0, lsl #18]!
    13c8:	0bcc0000 	bleq	ff3013d0 <__bss_end__+0xff2f6838>
    13cc:	8c190000 	ldchi	0, cr0, [r9], {-0}
    13d0:	af000087 	svcge	0x00000087
    13d4:	1a00000b 	bne	1408 <__code_start__-0x6bf8>
    13d8:	000087a8 	andeq	r8, r0, r8, lsr #15
    13dc:	00000bb6 			; <UNDEFINED> instruction: 0x00000bb6
    13e0:	0000069b 	muleq	r0, fp, r6
    13e4:	0253011b 	subseq	r0, r3, #-1073741818	; 0xc0000006
    13e8:	011b6908 	tsteq	fp, r8, lsl #18
    13ec:	48030552 	stmdami	r3, {r1, r4, r6, r8, sl}
    13f0:	1b0000a2 	blne	1680 <__code_start__-0x6980>
    13f4:	03055101 	movweq	r5, #20737	; 0x5101
    13f8:	0000a110 	andeq	sl, r0, r0, lsl r1
    13fc:	0550011b 	ldrbeq	r0, [r0, #-283]	; 0x11b
    1400:	009ea003 	addseq	sl, lr, r3
    1404:	7d021b00 	vstrvc	d1, [r2, #-0]
    1408:	94030500 	strls	r0, [r3], #-1280	; 0x500
    140c:	000000a1 	andeq	r0, r0, r1, lsr #1
    1410:	0087ac19 	addeq	sl, r7, r9, lsl ip
    1414:	000bcc00 	andeq	ip, fp, r0, lsl #24
    1418:	87b82400 	ldrhi	r2, [r8, r0, lsl #8]!
    141c:	011b0000 	tsteq	fp, r0
    1420:	00300150 	eorseq	r0, r0, r0, asr r1
    1424:	007f1c00 	rsbseq	r1, pc, r0, lsl #24
    1428:	06c00000 	strbeq	r0, [r0], r0
    142c:	761d0000 	ldrvc	r0, [sp], -r0
    1430:	11000000 	mrsne	r0, (UNDEF: 0)
    1434:	06b00700 	ldrteq	r0, [r0], r0, lsl #14
    1438:	1d0f0000 	stcne	0, cr0, [pc, #-0]	; 1440 <__code_start__-0x6bc0>
    143c:	01000004 	tsteq	r0, r4
    1440:	0087e472 	addeq	lr, r7, r2, ror r4
    1444:	00003c00 	andeq	r3, r0, r0, lsl #24
    1448:	359c0100 	ldrcc	r0, [ip, #256]	; 0x100
    144c:	20000007 	andcs	r0, r0, r7
    1450:	00000332 	andeq	r0, r0, r2, lsr r3
    1454:	00257301 	eoreq	r7, r5, r1, lsl #6
    1458:	03050000 	movweq	r0, #20480	; 0x5000
    145c:	0000a78c 	andeq	sl, r0, ip, lsl #15
    1460:	01007625 	tsteq	r0, r5, lsr #12
    1464:	00005d7c 	andeq	r5, r0, ip, ror sp
    1468:	13800000 	orrne	r0, r0, #0
    146c:	000001c1 	andeq	r0, r0, r1, asr #3
    1470:	00008808 	andeq	r8, r0, r8, lsl #16
    1474:	00000008 	andeq	r0, r0, r8
    1478:	07117e01 	ldreq	r7, [r1, -r1, lsl #28]
    147c:	cd170000 	ldcgt	0, cr0, [r7, #-0]
    1480:	00000001 	andeq	r0, r0, r1
    1484:	57130080 	ldrpl	r0, [r3, -r0, lsl #1]
    1488:	10000001 	andne	r0, r0, r1
    148c:	10000088 	andne	r0, r0, r8, lsl #1
    1490:	01000000 	mrseq	r0, (UNDEF: 0)
    1494:	00072b80 	andeq	r2, r7, r0, lsl #23
    1498:	01631800 	cmneq	r3, r0, lsl #16
    149c:	00000000 	andeq	r0, r0, r0
    14a0:	0087fc19 	addeq	pc, r7, r9, lsl ip	; <UNPREDICTABLE>
    14a4:	000bd300 	andeq	sp, fp, r0, lsl #6
    14a8:	890f0000 	stmdbhi	pc, {}	; <UNPREDICTABLE>
    14ac:	01000004 	tsteq	r0, r4
    14b0:	008820a8 	addeq	r2, r8, r8, lsr #1
    14b4:	00003400 	andeq	r3, r0, r0, lsl #8
    14b8:	119c0100 	orrsne	r0, ip, r0, lsl #2
    14bc:	26000008 	strcs	r0, [r0], -r8
    14c0:	0000007c 	andeq	r0, r0, ip, ror r0
    14c4:	005da801 	subseq	sl, sp, r1, lsl #16
    14c8:	50010000 	andpl	r0, r1, r0
    14cc:	0004a926 	andeq	sl, r4, r6, lsr #18
    14d0:	91a80100 			; <UNDEFINED> instruction: 0x91a80100
    14d4:	01000000 	mrseq	r0, (UNDEF: 0)
    14d8:	04651151 	strbteq	r1, [r5], #-337	; 0x151
    14dc:	a9010000 	stmdbge	r1, {}	; <UNPREDICTABLE>
    14e0:	0000005d 	andeq	r0, r0, sp, asr r0
    14e4:	0000040e 	andeq	r0, r0, lr, lsl #8
    14e8:	00043120 	andeq	r3, r4, r0, lsr #2
    14ec:	5db10100 	ldfpls	f0, [r1]
    14f0:	01000000 	mrseq	r0, (UNDEF: 0)
    14f4:	01d71350 	bicseq	r1, r7, r0, asr r3
    14f8:	88200000 	stmdahi	r0!, {}	; <UNPREDICTABLE>
    14fc:	00040000 	andeq	r0, r4, r0
    1500:	a9010000 	stmdbge	r1, {}	; <UNPREDICTABLE>
    1504:	000007a7 	andeq	r0, r0, r7, lsr #15
    1508:	00882014 	addeq	r2, r8, r4, lsl r0
    150c:	00000400 	andeq	r0, r0, r0, lsl #8
    1510:	01e71500 	mvneq	r1, r0, lsl #10
    1514:	042f0000 	strteq	r0, [pc], #-0	; 151c <__code_start__-0x6ae4>
    1518:	00000000 	andeq	r0, r0, r0
    151c:	0001f313 	andeq	pc, r1, r3, lsl r3	; <UNPREDICTABLE>
    1520:	00882800 	addeq	r2, r8, r0, lsl #16
    1524:	00000400 	andeq	r0, r0, r0, lsl #8
    1528:	c4af0100 	strtgt	r0, [pc], #256	; 1530 <__code_start__-0x6ad0>
    152c:	16000007 	strne	r0, [r0], -r7
    1530:	000001ff 	strdeq	r0, [r0], -pc	; <UNPREDICTABLE>
    1534:	00000442 	andeq	r0, r0, r2, asr #8
    1538:	02091300 	andeq	r1, r9, #0, 6
    153c:	882c0000 	stmdahi	ip!, {}	; <UNPREDICTABLE>
    1540:	00040000 	andeq	r0, r4, r0
    1544:	b4010000 	strlt	r0, [r1], #-0
    1548:	000007df 	ldrdeq	r0, [r0], -pc	; <UNPREDICTABLE>
    154c:	00021527 	andeq	r1, r2, r7, lsr #10
    1550:	00500100 	subseq	r0, r0, r0, lsl #2
    1554:	0001f313 	andeq	pc, r1, r3, lsl r3	; <UNPREDICTABLE>
    1558:	00883000 	addeq	r3, r8, r0
    155c:	00000800 	andeq	r0, r0, r0, lsl #16
    1560:	fabe0100 	blx	fef81968 <__bss_end__+0xfef76dd0>
    1564:	17000007 	strne	r0, [r0, -r7]
    1568:	000001ff 	strdeq	r0, [r0], -pc	; <UNPREDICTABLE>
    156c:	220001e7 	andcs	r0, r0, #-1073741767	; 0xc0000039
    1570:	00000157 	andeq	r0, r0, r7, asr r1
    1574:	00008838 	andeq	r8, r0, r8, lsr r8
    1578:	00000008 	andeq	r0, r0, r8
    157c:	6318bf01 	tstvs	r8, #1, 30
    1580:	00000001 	andeq	r0, r0, r1
    1584:	cc0f0000 	stcgt	0, cr0, [pc], {-0}
    1588:	01000002 	tsteq	r0, r2
    158c:	008854c4 	addeq	r5, r8, r4, asr #9
    1590:	00009800 	andeq	r9, r0, r0, lsl #16
    1594:	449c0100 	ldrmi	r0, [ip], #256	; 0x100
    1598:	1f000009 	svcne	0x00000009
    159c:	01006370 	tsteq	r0, r0, ror r3
    15a0:	00002cc4 	andeq	r2, r0, r4, asr #25
    15a4:	00045500 	andeq	r5, r4, r0, lsl #10
    15a8:	00e31200 	rsceq	r1, r3, r0, lsl #4
    15ac:	09540000 	ldmdbeq	r4, {}^	; <UNPREDICTABLE>
    15b0:	03050000 	movweq	r0, #20480	; 0x5000
    15b4:	0000a270 	andeq	sl, r0, r0, ror r2
    15b8:	00021f13 	andeq	r1, r2, r3, lsl pc
    15bc:	00886000 	addeq	r6, r8, r0
    15c0:	00000800 	andeq	r0, r0, r0, lsl #16
    15c4:	89c60100 	stmibhi	r6, {r8}^
    15c8:	14000008 	strne	r0, [r0], #-8
    15cc:	00008860 	andeq	r8, r0, r0, ror #16
    15d0:	00000008 	andeq	r0, r0, r8
    15d4:	00022f21 	andeq	r2, r2, r1, lsr #30
    15d8:	00d92200 	sbcseq	r2, r9, r0, lsl #4
    15dc:	88600000 	stmdahi	r0!, {}^	; <UNPREDICTABLE>
    15e0:	00040000 	andeq	r0, r4, r0
    15e4:	aa020000 	bge	815ec <__bss_end__+0x76a54>
    15e8:	00886014 	addeq	r6, r8, r4, lsl r0
    15ec:	00000400 	andeq	r0, r0, r0, lsl #8
    15f0:	00e91500 	rsceq	r1, r9, r0, lsl #10
    15f4:	04b30000 	ldrteq	r0, [r3], #0
    15f8:	00000000 	andeq	r0, r0, r0
    15fc:	39130000 	ldmdbcc	r3, {}	; <UNPREDICTABLE>
    1600:	c0000002 	andgt	r0, r0, r2
    1604:	04000088 	streq	r0, [r0], #-136	; 0x88
    1608:	01000000 	mrseq	r0, (UNDEF: 0)
    160c:	0008acca 	andeq	sl, r8, sl, asr #25
    1610:	88c01400 	stmiahi	r0, {sl, ip}^
    1614:	00040000 	andeq	r0, r4, r0
    1618:	49210000 	stmdbmi	r1!, {}	; <UNPREDICTABLE>
    161c:	00000002 	andeq	r0, r0, r2
    1620:	88741900 	ldmdahi	r4!, {r8, fp, ip}^
    1624:	0baf0000 	bleq	febc162c <__bss_end__+0xfebb6a94>
    1628:	881a0000 	ldmdahi	sl, {}	; <UNPREDICTABLE>
    162c:	b6000088 	strlt	r0, [r0], -r8, lsl #1
    1630:	e400000b 	str	r0, [r0], #-11
    1634:	1b000008 	blne	165c <__code_start__-0x69a4>
    1638:	08025301 	stmdaeq	r2, {r0, r8, r9, ip, lr}
    163c:	52011bc7 	andpl	r1, r1, #203776	; 0x31c00
    1640:	a2700305 	rsbsge	r0, r0, #335544320	; 0x14000000
    1644:	011b0000 	tsteq	fp, r0
    1648:	10030551 	andne	r0, r3, r1, asr r5
    164c:	1b0000a1 	blne	18d8 <__code_start__-0x6728>
    1650:	03055001 	movweq	r5, #20481	; 0x5001
    1654:	0000a1a8 	andeq	sl, r0, r8, lsr #3
    1658:	888c1900 	stmhi	ip, {r8, fp, ip}
    165c:	0bcc0000 	bleq	ff301664 <__bss_end__+0xff2f6acc>
    1660:	a0190000 	andsge	r0, r9, r0
    1664:	af000088 	svcge	0x00000088
    1668:	1a00000b 	bne	169c <__code_start__-0x6964>
    166c:	000088bc 			; <UNDEFINED> instruction: 0x000088bc
    1670:	00000bb6 			; <UNDEFINED> instruction: 0x00000bb6
    1674:	0000092f 	andeq	r0, r0, pc, lsr #18
    1678:	0253011b 	subseq	r0, r3, #-1073741818	; 0xc0000006
    167c:	011bc808 	tsteq	fp, r8, lsl #16
    1680:	70030552 	andvc	r0, r3, r2, asr r5
    1684:	1b0000a2 	blne	1914 <__code_start__-0x66ec>
    1688:	03055101 	movweq	r5, #20737	; 0x5101
    168c:	0000a110 	andeq	sl, r0, r0, lsl r1
    1690:	0550011b 	ldrbeq	r0, [r0, #-283]	; 0x11b
    1694:	009ea003 	addseq	sl, lr, r3
    1698:	7d021b00 	vstrvc	d1, [r2, #-0]
    169c:	e0030500 	and	r0, r3, r0, lsl #10
    16a0:	000000a1 	andeq	r0, r0, r1, lsr #1
    16a4:	0088c019 	addeq	ip, r8, r9, lsl r0
    16a8:	000bcc00 	andeq	ip, fp, r0, lsl #24
    16ac:	88cc2400 	stmiahi	ip, {sl, sp}^
    16b0:	011b0000 	tsteq	fp, r0
    16b4:	00300150 	eorseq	r0, r0, r0, asr r1
    16b8:	007f1c00 	rsbseq	r1, pc, r0, lsl #24
    16bc:	09540000 	ldmdbeq	r4, {}^	; <UNPREDICTABLE>
    16c0:	761d0000 	ldrvc	r0, [sp], -r0
    16c4:	15000000 	strne	r0, [r0, #-0]
    16c8:	09440700 	stmdbeq	r4, {r8, r9, sl}^
    16cc:	a70f0000 	strge	r0, [pc, -r0]
    16d0:	01000007 	tsteq	r0, r7
    16d4:	0088eccd 	addeq	lr, r8, sp, asr #25
    16d8:	00000400 	andeq	r0, r0, r0, lsl #8
    16dc:	7b9c0100 	blvc	fe701ae4 <__bss_end__+0xfe6f6f4c>
    16e0:	28000009 	stmdacs	r0, {r0, r3}
    16e4:	01006370 	tsteq	r0, r0, ror r3
    16e8:	00002ccd 	andeq	r2, r0, sp, asr #25
    16ec:	00500100 	subseq	r0, r0, r0, lsl #2
    16f0:	0003750f 	andeq	r7, r3, pc, lsl #10
    16f4:	f0d80100 			; <UNDEFINED> instruction: 0xf0d80100
    16f8:	2c000088 	stccs	0, cr0, [r0], {136}	; 0x88
    16fc:	01000000 	mrseq	r0, (UNDEF: 0)
    1700:	0009e19c 	muleq	r9, ip, r1
    1704:	00e31200 	rsceq	r1, r3, r0, lsl #4
    1708:	09f10000 	ldmibeq	r1!, {}^	; <UNPREDICTABLE>
    170c:	03050000 	movweq	r0, #20480	; 0x5000
    1710:	0000a288 	andeq	sl, r0, r8, lsl #5
    1714:	0088f819 	addeq	pc, r8, r9, lsl r8	; <UNPREDICTABLE>
    1718:	000baf00 	andeq	sl, fp, r0, lsl #30
    171c:	890c1a00 	stmdbhi	ip, {r9, fp, ip}
    1720:	0bb60000 	bleq	fed81728 <__bss_end__+0xfed76b90>
    1724:	09d70000 	ldmibeq	r7, {}^	; <UNPREDICTABLE>
    1728:	011b0000 	tsteq	fp, r0
    172c:	d9080253 	stmdble	r8, {r0, r1, r4, r6, r9}
    1730:	0552011b 	ldrbeq	r0, [r2, #-283]	; 0x11b
    1734:	00a28803 	adceq	r8, r2, r3, lsl #16
    1738:	51011b00 	tstpl	r1, r0, lsl #22
    173c:	a1100305 	tstge	r0, r5, lsl #6
    1740:	011b0000 	tsteq	fp, r0
    1744:	f0030550 			; <UNDEFINED> instruction: 0xf0030550
    1748:	000000a1 	andeq	r0, r0, r1, lsr #1
    174c:	00891019 	addeq	r1, r9, r9, lsl r0
    1750:	000bcc00 	andeq	ip, fp, r0, lsl #24
    1754:	7f1c0000 	svcvc	0x001c0000
    1758:	f1000000 	cps	#0
    175c:	1d000009 	stcne	0, cr0, [r0, #-36]	; 0xffffffdc
    1760:	00000076 	andeq	r0, r0, r6, ror r0
    1764:	e1070010 	tst	r7, r0, lsl r0
    1768:	0f000009 	svceq	0x00000009
    176c:	00000394 	muleq	r0, r4, r3
    1770:	891cdc01 	ldmdbhi	ip, {r0, sl, fp, ip, lr, pc}
    1774:	00340000 	eorseq	r0, r4, r0
    1778:	9c010000 	stcls	0, cr0, [r1], {-0}
    177c:	00000ad4 	ldrdeq	r0, [r0], -r4
    1780:	00007c26 	andeq	r7, r0, r6, lsr #24
    1784:	5ddc0100 	ldfple	f0, [ip]
    1788:	01000000 	mrseq	r0, (UNDEF: 0)
    178c:	04a92650 	strteq	r2, [r9], #1616	; 0x650
    1790:	dc010000 	stcle	0, cr0, [r1], {-0}
    1794:	00000091 	muleq	r0, r1, r0
    1798:	65115101 	ldrvs	r5, [r1, #-257]	; 0x101
    179c:	01000004 	tsteq	r0, r4
    17a0:	00005ddd 	ldrdeq	r5, [r0], -sp
    17a4:	0004c600 	andeq	ip, r4, r0, lsl #12
    17a8:	04312000 	ldrteq	r2, [r1], #-0
    17ac:	e5010000 	str	r0, [r1, #-0]
    17b0:	0000005d 	andeq	r0, r0, sp, asr r0
    17b4:	d7135001 	ldrle	r5, [r3, -r1]
    17b8:	1c000001 	stcne	0, cr0, [r0], {1}
    17bc:	04000089 	streq	r0, [r0], #-137	; 0x89
    17c0:	01000000 	mrseq	r0, (UNDEF: 0)
    17c4:	000a68dd 	ldrdeq	r6, [sl], -sp
    17c8:	891c1400 	ldmdbhi	ip, {sl, ip}
    17cc:	00040000 	andeq	r0, r4, r0
    17d0:	e7150000 	ldr	r0, [r5, -r0]
    17d4:	e9000001 	stmdb	r0, {r0}
    17d8:	00000004 	andeq	r0, r0, r4
    17dc:	01f31300 	mvnseq	r1, r0, lsl #6
    17e0:	89240000 	stmdbhi	r4!, {}	; <UNPREDICTABLE>
    17e4:	00040000 	andeq	r0, r4, r0
    17e8:	e3010000 	movw	r0, #4096	; 0x1000
    17ec:	00000a85 	andeq	r0, r0, r5, lsl #21
    17f0:	0001ff16 	andeq	pc, r1, r6, lsl pc	; <UNPREDICTABLE>
    17f4:	0004fc00 	andeq	pc, r4, r0, lsl #24
    17f8:	09130000 	ldmdbeq	r3, {}	; <UNPREDICTABLE>
    17fc:	28000002 	stmdacs	r0, {r1}
    1800:	04000089 	streq	r0, [r0], #-137	; 0x89
    1804:	01000000 	mrseq	r0, (UNDEF: 0)
    1808:	000aa0e8 	andeq	sl, sl, r8, ror #1
    180c:	02152700 	andseq	r2, r5, #0, 14
    1810:	50010000 	andpl	r0, r1, r0
    1814:	01f31300 	mvnseq	r1, r0, lsl #6
    1818:	892c0000 	stmdbhi	ip!, {}	; <UNPREDICTABLE>
    181c:	00080000 	andeq	r0, r8, r0
    1820:	f2010000 	vhadd.s8	d0, d1, d0
    1824:	00000abd 			; <UNDEFINED> instruction: 0x00000abd
    1828:	0001ff29 	andeq	pc, r1, r9, lsr #30
    182c:	4001e700 	andmi	lr, r1, r0, lsl #14
    1830:	57220000 	strpl	r0, [r2, -r0]!
    1834:	34000001 	strcc	r0, [r0], #-1
    1838:	08000089 	stmdaeq	r0, {r0, r3, r7}
    183c:	01000000 	mrseq	r0, (UNDEF: 0)
    1840:	016318f3 	strdeq	r1, [r3, #-131]!	; 0xffffff7d
    1844:	00000000 	andeq	r0, r0, r0
    1848:	03d40f00 	bicseq	r0, r4, #0, 30
    184c:	f8010000 			; <UNDEFINED> instruction: 0xf8010000
    1850:	00008950 	andeq	r8, r0, r0, asr r9
    1854:	00000010 	andeq	r0, r0, r0, lsl r0
    1858:	0b209c01 	bleq	828864 <__bss_end__+0x81dccc>
    185c:	7c260000 	stcvc	0, cr0, [r6], #-0
    1860:	01000000 	mrseq	r0, (UNDEF: 0)
    1864:	00005df8 	strdeq	r5, [r0], -r8
    1868:	2a500100 	bcs	1401c70 <__bss_end__+0x13f70d8>
    186c:	00000465 	andeq	r0, r0, r5, ror #8
    1870:	005df901 	subseq	pc, sp, r1, lsl #18
    1874:	01e60000 	mvneq	r0, r0
    1878:	f32b0040 	vhadd.u32	q0, <illegal reg q5.5>, q0
    187c:	50000001 	andpl	r0, r0, r1
    1880:	10000089 	andne	r0, r0, r9, lsl #1
    1884:	01000000 	mrseq	r0, (UNDEF: 0)
    1888:	ff290100 			; <UNDEFINED> instruction: 0xff290100
    188c:	e6000001 	str	r0, [r0], -r1
    1890:	00004001 	andeq	r4, r0, r1
    1894:	04432c00 	strbeq	r2, [r3], #-3072	; 0xc00
    1898:	09010000 	stmdbeq	r1, {}	; <UNPREDICTABLE>
    189c:	00002501 	andeq	r2, r0, r1, lsl #10
    18a0:	00896000 	addeq	r6, r9, r0
    18a4:	00007000 	andeq	r7, r0, r0
    18a8:	7c9c0100 	ldfvcs	f0, [ip], {0}
    18ac:	2d00000b 	stccs	0, cr0, [r0, #-44]	; 0xffffffd4
    18b0:	01006370 	tsteq	r0, r0, ror r3
    18b4:	002c0109 	eoreq	r0, ip, r9, lsl #2
    18b8:	050f0000 	streq	r0, [pc, #-0]	; 18c0 <__code_start__-0x6740>
    18bc:	722d0000 	eorvc	r0, sp, #0
    18c0:	09010030 	stmdbeq	r1, {r4, r5}
    18c4:	00005d01 	andeq	r5, r0, r1, lsl #26
    18c8:	00059400 	andeq	r9, r5, r0, lsl #8
    18cc:	04812e00 	streq	r2, [r1], #3584	; 0xe00
    18d0:	0a010000 	beq	418d8 <__bss_end__+0x36d40>
    18d4:	00005d01 	andeq	r5, r0, r1, lsl #26
    18d8:	0005c000 	andeq	ip, r5, r0
    18dc:	89b42f00 	ldmibhi	r4!, {r8, r9, sl, fp, sp}
    18e0:	0bb60000 	bleq	fed818e8 <__bss_end__+0xfed76d50>
    18e4:	011b0000 	tsteq	fp, r0
    18e8:	20030550 	andcs	r0, r3, r0, asr r5
    18ec:	000000a2 	andeq	r0, r0, r2, lsr #1
    18f0:	03c32000 	biceq	r2, r3, #0
    18f4:	0b010000 	bleq	418fc <__bss_end__+0x36d64>
    18f8:	00000091 	muleq	r0, r1, r0
    18fc:	a77c0305 	ldrbge	r0, [ip, -r5, lsl #6]!
    1900:	39200000 	stmdbcc	r0!, {}	; <UNPREDICTABLE>
    1904:	01000003 	tsteq	r0, r3
    1908:	00009189 	andeq	r9, r0, r9, lsl #3
    190c:	80030500 	andhi	r0, r3, r0, lsl #10
    1910:	300000a7 	andcc	r0, r0, r7, lsr #1
    1914:	0000018a 	andeq	r0, r0, sl, lsl #3
    1918:	0025d501 	eoreq	sp, r5, r1, lsl #10
    191c:	03050000 	movweq	r0, #20480	; 0x5000
    1920:	0000a784 	andeq	sl, r0, r4, lsl #15
    1924:	0000d431 	andeq	sp, r0, r1, lsr r4
    1928:	321e0400 	andscc	r0, lr, #0, 8
    192c:	000005bc 			; <UNDEFINED> instruction: 0x000005bc
    1930:	00252904 	eoreq	r2, r5, r4, lsl #18
    1934:	0bcc0000 	bleq	ff30193c <__bss_end__+0xff2f6da4>
    1938:	86090000 	strhi	r0, [r9], -r0
    193c:	33000000 	movwcc	r0, #0
    1940:	01143100 	tsteq	r4, r0, lsl #2
    1944:	65040000 	strvs	r0, [r4, #-0]
    1948:	0002b131 	andeq	fp, r2, r1, lsr r1
    194c:	00360500 	eorseq	r0, r6, r0, lsl #10
    1950:	00000eff 	strdeq	r0, [r0], -pc	; <UNPREDICTABLE>
    1954:	057e0004 	ldrbeq	r0, [lr, #-4]!
    1958:	01040000 	mrseq	r0, (UNDEF: 4)
    195c:	00000209 	andeq	r0, r0, r9, lsl #4
    1960:	0004bc01 	andeq	fp, r4, r1, lsl #24
    1964:	00000d00 	andeq	r0, r0, r0, lsl #26
    1968:	008b0800 	addeq	r0, fp, r0, lsl #16
    196c:	00078400 	andeq	r8, r7, r0, lsl #8
    1970:	00046b00 	andeq	r6, r4, r0, lsl #22
    1974:	05040200 	streq	r0, [r4, #-512]	; 0x200
    1978:	00746e69 	rsbseq	r6, r4, r9, ror #28
    197c:	9e070403 	cdpls	4, 0, cr0, cr7, cr3, {0}
    1980:	03000000 	movweq	r0, #0
    1984:	017e0601 	cmneq	lr, r1, lsl #12
    1988:	02030000 	andeq	r0, r3, #0
    198c:	0001a105 	andeq	sl, r1, r5, lsl #2
    1990:	05040300 	streq	r0, [r4, #-768]	; 0x300
    1994:	000000b0 	strheq	r0, [r0], -r0	; <UNPREDICTABLE>
    1998:	ab050803 	blge	1439ac <__bss_end__+0x138e14>
    199c:	03000000 	movweq	r0, #0
    19a0:	017c0801 	cmneq	ip, r1, lsl #16
    19a4:	02030000 	andeq	r0, r3, #0
    19a8:	0000f007 	andeq	pc, r0, r7
    19ac:	01d30400 	bicseq	r0, r3, r0, lsl #8
    19b0:	34060000 	strcc	r0, [r6], #-0
    19b4:	00000068 	andeq	r0, r0, r8, rrx
    19b8:	99070403 	stmdbls	r7, {r0, r1, sl}
    19bc:	03000000 	movweq	r0, #0
    19c0:	00940708 	addseq	r0, r4, r8, lsl #14
    19c4:	04030000 	streq	r0, [r3], #-0
    19c8:	00012107 	andeq	r2, r1, r7, lsl #2
    19cc:	03040500 	movweq	r0, #17664	; 0x4500
    19d0:	01850801 	orreq	r0, r5, r1, lsl #16
    19d4:	04060000 	streq	r0, [r6], #-0
    19d8:	0000008c 	andeq	r0, r0, ip, lsl #1
    19dc:	00007f07 	andeq	r7, r0, r7, lsl #30
    19e0:	046e0400 	strbteq	r0, [lr], #-1024	; 0x400
    19e4:	8a020000 	bhi	819ec <__bss_end__+0x76e54>
    19e8:	0000009c 	muleq	r0, ip, r0
    19ec:	00a20406 	adceq	r0, r2, r6, lsl #8
    19f0:	b7080000 	strlt	r0, [r8, -r0]
    19f4:	09000000 	stmdbeq	r0, {}	; <UNPREDICTABLE>
    19f8:	000000b7 	strheq	r0, [r0], -r7
    19fc:	00005d09 	andeq	r5, r0, r9, lsl #26
    1a00:	005d0900 	subseq	r0, sp, r0, lsl #18
    1a04:	06000000 	streq	r0, [r0], -r0
    1a08:	00005d04 	andeq	r5, r0, r4, lsl #26
    1a0c:	01420a00 	cmpeq	r2, r0, lsl #20
    1a10:	07380000 	ldreq	r0, [r8, -r0]!
    1a14:	00016e0a 	andeq	r6, r1, sl, lsl #28
    1a18:	0a830b00 	beq	fe0c4620 <__bss_end__+0xfe0b9a88>
    1a1c:	0f070000 	svceq	0x00070000
    1a20:	0000016e 	andeq	r0, r0, lr, ror #2
    1a24:	00410c00 	subeq	r0, r1, r0, lsl #24
    1a28:	01861207 	orreq	r1, r6, r7, lsl #4
    1a2c:	0c040000 	stceq	0, cr0, [r4], {-0}
    1a30:	13070042 	movwne	r0, #28738	; 0x7042
    1a34:	0000019b 	muleq	r0, fp, r1
    1a38:	016d0b08 	cmneq	sp, r8, lsl #22
    1a3c:	16070000 	strne	r0, [r7], -r0
    1a40:	00000186 	andeq	r0, r0, r6, lsl #3
    1a44:	01f60b0c 	mvnseq	r0, ip, lsl #22
    1a48:	18070000 	stmdane	r7, {}	; <UNPREDICTABLE>
    1a4c:	0000019b 	muleq	r0, fp, r1
    1a50:	029c0b10 	addseq	r0, ip, #16, 22	; 0x4000
    1a54:	1f070000 	svcne	0x00070000
    1a58:	000001a1 	andeq	r0, r0, r1, lsr #3
    1a5c:	028b0b14 	addeq	r0, fp, #20, 22	; 0x5000
    1a60:	31070000 	mrscc	r0, (UNDEF: 7)
    1a64:	000001a1 	andeq	r0, r0, r1, lsr #3
    1a68:	00810b18 	addeq	r0, r1, r8, lsl fp
    1a6c:	36070000 	strcc	r0, [r7], -r0
    1a70:	000001a6 	andeq	r0, r0, r6, lsr #3
    1a74:	00750b1c 	rsbseq	r0, r5, ip, lsl fp
    1a78:	3a070000 	bcc	1c1a80 <__bss_end__+0x1b6ee8>
    1a7c:	000001a6 	andeq	r0, r0, r6, lsr #3
    1a80:	02a60b20 	adceq	r0, r6, #32, 22	; 0x8000
    1a84:	3f070000 	svccc	0x00070000
    1a88:	000001a1 	andeq	r0, r0, r1, lsr #3
    1a8c:	01330b24 	teqeq	r3, r4, lsr #22
    1a90:	42070000 	andmi	r0, r7, #0
    1a94:	0000002c 	andeq	r0, r0, ip, lsr #32
    1a98:	01e10b28 	mvneq	r0, r8, lsr #22
    1a9c:	43070000 	movwmi	r0, #28672	; 0x7000
    1aa0:	0000002c 	andeq	r0, r0, ip, lsr #32
    1aa4:	01b00b2c 	lsrseq	r0, ip, #22
    1aa8:	46070000 	strmi	r0, [r7], -r0
    1aac:	0000002c 	andeq	r0, r0, ip, lsr #32
    1ab0:	00ce0b30 	sbceq	r0, lr, r0, lsr fp
    1ab4:	48070000 	stmdami	r7, {}	; <UNPREDICTABLE>
    1ab8:	000001a6 	andeq	r0, r0, r6, lsr #3
    1abc:	04060034 	streq	r0, [r6], #-52	; 0x34
    1ac0:	00000174 	andeq	r0, r0, r4, ror r1
    1ac4:	0180080d 	orreq	r0, r0, sp, lsl #16
    1ac8:	80090000 	andhi	r0, r9, r0
    1acc:	00000001 	andeq	r0, r0, r1
    1ad0:	00bd0406 	adcseq	r0, sp, r6, lsl #8
    1ad4:	04060000 	streq	r0, [r6], #-0
    1ad8:	00000175 	andeq	r0, r0, r5, ror r1
    1adc:	0000250e 	andeq	r2, r0, lr, lsl #10
    1ae0:	00019b00 	andeq	r9, r1, r0, lsl #22
    1ae4:	01800900 	orreq	r0, r0, r0, lsl #18
    1ae8:	06000000 	streq	r0, [r0], -r0
    1aec:	00018c04 	andeq	r8, r1, r4, lsl #24
    1af0:	002c0f00 	eoreq	r0, ip, r0, lsl #30
    1af4:	5d0f0000 	stcpl	0, cr0, [pc, #-0]	; 1afc <__code_start__-0x6504>
    1af8:	04000000 	streq	r0, [r0], #-0
    1afc:	00000172 	andeq	r0, r0, r2, ror r1
    1b00:	00bd4907 	adcseq	r4, sp, r7, lsl #18
    1b04:	ba100000 	blt	401b0c <__bss_end__+0x3f6f74>
    1b08:	02000003 	andeq	r0, r0, #3
    1b0c:	00005da6 	andeq	r5, r0, r6, lsr #27
    1b10:	01d20300 	bicseq	r0, r2, r0, lsl #6
    1b14:	72110000 	andsvc	r0, r1, #0
    1b18:	02007465 	andeq	r7, r0, #1694498816	; 0x65000000
    1b1c:	00005da6 	andeq	r5, r0, r6, lsr #27
    1b20:	bf100000 	svclt	0x00100000
    1b24:	05000001 	streq	r0, [r0, #-1]
    1b28:	00002507 	andeq	r2, r0, r7, lsl #10
    1b2c:	01ee0300 	mvneq	r0, r0, lsl #6
    1b30:	dc120000 	ldcle	0, cr0, [r2], {-0}
    1b34:	05000001 	streq	r0, [r0, #-1]
    1b38:	00002c07 	andeq	r2, r0, r7, lsl #24
    1b3c:	b9100000 	ldmdblt	r0, {}	; <UNPREDICTABLE>
    1b40:	03000000 	movweq	r0, #0
    1b44:	00005d26 	andeq	r5, r0, r6, lsr #26
    1b48:	020a0300 	andeq	r0, sl, #0, 6
    1b4c:	ab130000 	blge	4c1b54 <__bss_end__+0x4b6fbc>
    1b50:	03000001 	movweq	r0, #1
    1b54:	00005d27 	andeq	r5, r0, r7, lsr #26
    1b58:	03100000 	tsteq	r0, #0
    1b5c:	02000003 	andeq	r0, r0, #3
    1b60:	00002ca9 	andeq	r2, r0, r9, lsr #25
    1b64:	02240300 	eoreq	r0, r4, #0, 6
    1b68:	72110000 	andsvc	r0, r1, #0
    1b6c:	2caa0200 	sfmcs	f0, 4, [sl]
    1b70:	00000000 	andeq	r0, r0, r0
    1b74:	00049d14 	andeq	r9, r4, r4, lsl sp
    1b78:	080b0100 	stmdaeq	fp, {r8}
    1b7c:	ac00008b 	stcge	0, cr0, [r0], {139}	; 0x8b
    1b80:	01000001 	tsteq	r0, r1
    1b84:	0004659c 	muleq	r4, ip, r5
    1b88:	05401500 	strbeq	r1, [r0, #-1280]	; 0x500
    1b8c:	0b010000 	bleq	41b94 <__bss_end__+0x36ffc>
    1b90:	000000b7 	strheq	r0, [r0], -r7
    1b94:	0000063b 	andeq	r0, r0, fp, lsr r6
    1b98:	00637016 	rsbeq	r7, r3, r6, lsl r0
    1b9c:	005d0b01 	subseq	r0, sp, r1, lsl #22
    1ba0:	065c0000 	ldrbeq	r0, [ip], -r0
    1ba4:	7c150000 	ldcvc	0, cr0, [r5], {-0}
    1ba8:	01000000 	mrseq	r0, (UNDEF: 0)
    1bac:	00005d0b 	andeq	r5, r0, fp, lsl #26
    1bb0:	00068800 	andeq	r8, r6, r0, lsl #16
    1bb4:	00e31700 	rsceq	r1, r3, r0, lsl #14
    1bb8:	04750000 	ldrbteq	r0, [r5], #-0
    1bbc:	03050000 	movweq	r0, #20480	; 0x5000
    1bc0:	0000a514 	andeq	sl, r0, r4, lsl r5
    1bc4:	01006318 	tsteq	r0, r8, lsl r3
    1bc8:	00047a10 	andeq	r7, r4, r0, lsl sl
    1bcc:	0006a900 	andeq	sl, r6, r0, lsl #18
    1bd0:	020a1900 	andeq	r1, sl, #0, 18
    1bd4:	8b3c0000 	blhi	f01bdc <__bss_end__+0xef7044>
    1bd8:	00080000 	andeq	r0, r8, r0
    1bdc:	0d010000 	stceq	0, cr0, [r1, #-0]
    1be0:	000002c7 	andeq	r0, r0, r7, asr #5
    1be4:	008b3c1a 	addeq	r3, fp, sl, lsl ip
    1be8:	00000800 	andeq	r0, r0, r0, lsl #16
    1bec:	021a1b00 	andseq	r1, sl, #0, 22
    1bf0:	b61c0000 	ldrlt	r0, [ip], -r0
    1bf4:	3c000001 	stccc	0, cr0, [r0], {1}
    1bf8:	0400008b 	streq	r0, [r0], #-139	; 0x8b
    1bfc:	02000000 	andeq	r0, r0, #0
    1c00:	8b3c1aaa 	blhi	f086b0 <__bss_end__+0xefdb18>
    1c04:	00040000 	andeq	r0, r4, r0
    1c08:	c61d0000 	ldrgt	r0, [sp], -r0
    1c0c:	bc000001 	stclt	0, cr0, [r0], {1}
    1c10:	00000006 	andeq	r0, r0, r6
    1c14:	1e000000 	cdpne	0, 0, cr0, cr0, cr0, {0}
    1c18:	00008b3c 	andeq	r8, r0, ip, lsr fp
    1c1c:	00000e84 	andeq	r0, r0, r4, lsl #29
    1c20:	000002fc 	strdeq	r0, [r0], -ip
    1c24:	0153011f 	cmpeq	r3, pc, lsl r1
    1c28:	52011f3c 	andpl	r1, r1, #60, 30	; 0xf0
    1c2c:	a5140305 	ldrge	r0, [r4, #-773]	; 0x305
    1c30:	011f0000 	tsteq	pc, r0
    1c34:	bc030551 	cfstr32lt	mvfx0, [r3], {81}	; 0x51
    1c38:	1f0000a2 	svcne	0x000000a2
    1c3c:	03055001 	movweq	r5, #20481	; 0x5001
    1c40:	0000a29c 	muleq	r0, ip, r2
    1c44:	007d021f 	rsbseq	r0, sp, pc, lsl r2
    1c48:	00007502 	andeq	r7, r0, r2, lsl #10
    1c4c:	008b5020 	addeq	r5, fp, r0, lsr #32
    1c50:	000e9a00 	andeq	r9, lr, r0, lsl #20
    1c54:	8b641e00 	blhi	190945c <__bss_end__+0x18fe8c4>
    1c58:	0e840000 	cdpeq	0, 8, cr0, cr4, cr0, {0}
    1c5c:	03330000 	teqeq	r3, #0
    1c60:	011f0000 	tsteq	pc, r0
    1c64:	1f3e0153 	svcne	0x003e0153
    1c68:	03055201 	movweq	r5, #20993	; 0x5201
    1c6c:	0000a514 	andeq	sl, r0, r4, lsl r5
    1c70:	0551011f 	ldrbeq	r0, [r1, #-287]	; 0x11f
    1c74:	00a2bc03 	adceq	fp, r2, r3, lsl #24
    1c78:	50011f00 	andpl	r1, r1, r0, lsl #30
    1c7c:	a1a80305 			; <UNDEFINED> instruction: 0xa1a80305
    1c80:	20000000 	andcs	r0, r0, r0
    1c84:	00008b68 	andeq	r8, r0, r8, ror #22
    1c88:	00000ea1 	andeq	r0, r0, r1, lsr #29
    1c8c:	008b901e 	addeq	r9, fp, lr, lsl r0
    1c90:	000e8400 	andeq	r8, lr, r0, lsl #8
    1c94:	00035900 	andeq	r5, r3, r0, lsl #18
    1c98:	51011f00 	tstpl	r1, r0, lsl #30
    1c9c:	1f007502 	svcne	0x00007502
    1ca0:	03055001 	movweq	r5, #20481	; 0x5001
    1ca4:	0000a2d0 	ldrdeq	sl, [r0], -r0
    1ca8:	8b9c2100 	blhi	fe70a0b0 <__bss_end__+0xfe6ff518>
    1cac:	03690000 	cmneq	r9, #0
    1cb0:	011f0000 	tsteq	pc, r0
    1cb4:	00740250 	rsbseq	r0, r4, r0, asr r2
    1cb8:	8bac1e00 	blhi	feb094c0 <__bss_end__+0xfeafe928>
    1cbc:	0ea80000 	cdpeq	0, 10, cr0, cr8, cr0, {0}
    1cc0:	037d0000 	cmneq	sp, #0
    1cc4:	011f0000 	tsteq	pc, r0
    1cc8:	00750250 	rsbseq	r0, r5, r0, asr r2
    1ccc:	8bcc1e00 	blhi	ff3094d4 <__bss_end__+0xff2fe93c>
    1cd0:	0e840000 	cdpeq	0, 8, cr0, cr4, cr0, {0}
    1cd4:	03940000 	orrseq	r0, r4, #0
    1cd8:	011f0000 	tsteq	pc, r0
    1cdc:	f0030550 			; <UNDEFINED> instruction: 0xf0030550
    1ce0:	000000a2 	andeq	r0, r0, r2, lsr #1
    1ce4:	008bf020 	addeq	pc, fp, r0, lsr #32
    1ce8:	000e9a00 	andeq	r9, lr, r0, lsl #20
    1cec:	8c0c1e00 	stchi	14, cr1, [ip], {-0}
    1cf0:	0e840000 	cdpeq	0, 8, cr0, cr4, cr0, {0}
    1cf4:	03d60000 	bicseq	r0, r6, #0
    1cf8:	011f0000 	tsteq	pc, r0
    1cfc:	23080253 	movwcs	r0, #33363	; 0x8253
    1d00:	0552011f 	ldrbeq	r0, [r2, #-287]	; 0x11f
    1d04:	00a51403 	adceq	r1, r5, r3, lsl #8
    1d08:	51011f00 	tstpl	r1, r0, lsl #30
    1d0c:	a2bc0305 	adcsge	r0, ip, #335544320	; 0x14000000
    1d10:	011f0000 	tsteq	pc, r0
    1d14:	a0030550 	andge	r0, r3, r0, asr r5
    1d18:	1f00009e 	svcne	0x0000009e
    1d1c:	05007d02 	streq	r7, [r0, #-3330]	; 0xd02
    1d20:	00a31803 	adceq	r1, r3, r3, lsl #16
    1d24:	10200000 	eorne	r0, r0, r0
    1d28:	a100008c 	smlabbge	r0, ip, r0, r0
    1d2c:	1e00000e 	cdpne	0, 0, cr0, cr0, cr14, {0}
    1d30:	00008c44 	andeq	r8, r0, r4, asr #24
    1d34:	00000e84 	andeq	r0, r0, r4, lsl #29
    1d38:	00000415 	andeq	r0, r0, r5, lsl r4
    1d3c:	0253011f 	subseq	r0, r3, #-1073741817	; 0xc0000007
    1d40:	011f2608 	tsteq	pc, r8, lsl #12
    1d44:	14030552 	strne	r0, [r3], #-1362	; 0x552
    1d48:	1f0000a5 	svcne	0x000000a5
    1d4c:	03055101 	movweq	r5, #20737	; 0x5101
    1d50:	0000a2bc 			; <UNDEFINED> instruction: 0x0000a2bc
    1d54:	0550011f 	ldrbeq	r0, [r0, #-287]	; 0x11f
    1d58:	00a33c03 	adceq	r3, r3, r3, lsl #24
    1d5c:	7d021f00 	stcvc	15, cr1, [r2, #-0]
    1d60:	00750200 	rsbseq	r0, r5, r0, lsl #4
    1d64:	8c501e00 	mrrchi	14, 0, r1, r0, cr0
    1d68:	0eb90000 	cdpeq	0, 11, cr0, cr9, cr0, {0}
    1d6c:	04320000 	ldrteq	r0, [r2], #-0
    1d70:	011f0000 	tsteq	pc, r0
    1d74:	08030551 	stmdaeq	r3, {r0, r4, r6, r8, sl}
    1d78:	1f00008b 	svcne	0x0000008b
    1d7c:	75025001 	strvc	r5, [r2, #-1]
    1d80:	78220000 	stmdavc	r2!, {}	; <UNPREDICTABLE>
    1d84:	8400008c 	strhi	r0, [r0], #-140	; 0x8c
    1d88:	1f00000e 	svcne	0x0000000e
    1d8c:	08025301 	stmdaeq	r2, {r0, r8, r9, ip, lr}
    1d90:	52011f28 	andpl	r1, r1, #40, 30	; 0xa0
    1d94:	a5140305 	ldrge	r0, [r4, #-773]	; 0x305
    1d98:	011f0000 	tsteq	pc, r0
    1d9c:	bc030551 	cfstr32lt	mvfx0, [r3], {81}	; 0x51
    1da0:	1f0000a2 	svcne	0x000000a2
    1da4:	03055001 	movweq	r5, #20481	; 0x5001
    1da8:	0000a364 	andeq	sl, r0, r4, ror #6
    1dac:	007d021f 	rsbseq	r0, sp, pc, lsl r2
    1db0:	00007502 	andeq	r7, r0, r2, lsl #10
    1db4:	007f2300 	rsbseq	r2, pc, r0, lsl #6
    1db8:	04750000 	ldrbteq	r0, [r5], #-0
    1dbc:	76240000 	strtvc	r0, [r4], -r0
    1dc0:	13000000 	movwne	r0, #0
    1dc4:	04650700 	strbteq	r0, [r5], #-1792	; 0x700
    1dc8:	04060000 	streq	r0, [r6], #-0
    1dcc:	000001ab 	andeq	r0, r0, fp, lsr #3
    1dd0:	00051310 	andeq	r1, r5, r0, lsl r3
    1dd4:	5d140500 	cfldr32pl	mvfx0, [r4, #-0]
    1dd8:	03000000 	movweq	r0, #0
    1ddc:	000004b4 			; <UNDEFINED> instruction: 0x000004b4
    1de0:	0001ab12 	andeq	sl, r1, r2, lsl fp
    1de4:	5d140500 	cfldr32pl	mvfx0, [r4, #-0]
    1de8:	12000000 	andne	r0, r0, #0
    1dec:	000001dc 	ldrdeq	r0, [r0], -ip
    1df0:	002c1405 	eoreq	r1, ip, r5, lsl #8
    1df4:	e3250000 	teq	r5, #0
    1df8:	c4000000 	strgt	r0, [r0], #-0
    1dfc:	13000004 	movwne	r0, #4
    1e00:	00000005 	andeq	r0, r0, r5
    1e04:	00007f23 	andeq	r7, r0, r3, lsr #30
    1e08:	0004c400 	andeq	ip, r4, r0, lsl #8
    1e0c:	00762400 	rsbseq	r2, r6, r0, lsl #8
    1e10:	00080000 	andeq	r0, r8, r0
    1e14:	0004b407 	andeq	fp, r4, r7, lsl #8
    1e18:	04f81000 	ldrbteq	r1, [r8], #0
    1e1c:	25040000 	strcs	r0, [r4, #-0]
    1e20:	0000005d 	andeq	r0, r0, sp, asr r0
    1e24:	00051803 	andeq	r1, r5, r3, lsl #16
    1e28:	00782600 	rsbseq	r2, r8, r0, lsl #12
    1e2c:	005d2504 	subseq	r2, sp, r4, lsl #10
    1e30:	6c260000 	stcvs	0, cr0, [r6], #-0
    1e34:	25040062 	strcs	r0, [r4, #-98]	; 0x62
    1e38:	0000002c 	andeq	r0, r0, ip, lsr #32
    1e3c:	00627526 	rsbeq	r7, r2, r6, lsr #10
    1e40:	002c2504 	eoreq	r2, ip, r4, lsl #10
    1e44:	e3250000 	teq	r5, #0
    1e48:	18000000 	stmdane	r0, {}	; <UNPREDICTABLE>
    1e4c:	f8000005 			; <UNDEFINED> instruction: 0xf8000005
    1e50:	11000004 	tstne	r0, r4
    1e54:	2804006e 	stmdacs	r4, {r1, r2, r3, r5, r6}
    1e58:	0000002c 	andeq	r0, r0, ip, lsr #32
    1e5c:	0004f313 	andeq	pc, r4, r3, lsl r3	; <UNPREDICTABLE>
    1e60:	2c2a0400 	cfstrscs	mvf0, [sl], #-0
    1e64:	00000000 	andeq	r0, r0, r0
    1e68:	0004b407 	andeq	fp, r4, r7, lsl #8
    1e6c:	012a1000 	teqeq	sl, r0
    1e70:	18050000 	stmdane	r5, {}	; <UNPREDICTABLE>
    1e74:	00000086 	andeq	r0, r0, r6, lsl #1
    1e78:	00054603 	andeq	r4, r5, r3, lsl #12
    1e7c:	01ab1200 			; <UNDEFINED> instruction: 0x01ab1200
    1e80:	18050000 	stmdane	r5, {}	; <UNPREDICTABLE>
    1e84:	0000005d 	andeq	r0, r0, sp, asr r0
    1e88:	0000e325 	andeq	lr, r0, r5, lsr #6
    1e8c:	00054600 	andeq	r4, r5, r0, lsl #12
    1e90:	00012a00 	andeq	r2, r1, r0, lsl #20
    1e94:	b4070000 	strlt	r0, [r7], #-0
    1e98:	10000004 	andne	r0, r0, r4
    1e9c:	000001ca 	andeq	r0, r0, sl, asr #3
    1ea0:	005d0f05 	subseq	r0, sp, r5, lsl #30
    1ea4:	7f030000 	svcvc	0x00030000
    1ea8:	12000005 	andne	r0, r0, #5
    1eac:	000001ab 	andeq	r0, r0, fp, lsr #3
    1eb0:	005d0f05 	subseq	r0, sp, r5, lsl #30
    1eb4:	dc130000 	ldcle	0, cr0, [r3], {-0}
    1eb8:	05000001 	streq	r0, [r0, #-1]
    1ebc:	00002c10 	andeq	r2, r0, r0, lsl ip
    1ec0:	00e32500 	rsceq	r2, r3, r0, lsl #10
    1ec4:	057f0000 	ldrbeq	r0, [pc, #-0]!	; 1ecc <__code_start__-0x6134>
    1ec8:	01ca0000 	biceq	r0, sl, r0
    1ecc:	07000000 	streq	r0, [r0, -r0]
    1ed0:	000004b4 			; <UNDEFINED> instruction: 0x000004b4
    1ed4:	00019810 	andeq	r9, r1, r0, lsl r8
    1ed8:	5d1c0400 	cfldrspl	mvf0, [ip, #-0]
    1edc:	03000000 	movweq	r0, #0
    1ee0:	000005c8 	andeq	r0, r0, r8, asr #11
    1ee4:	04007826 	streq	r7, [r0], #-2086	; 0x826
    1ee8:	00005d1c 	andeq	r5, r0, ip, lsl sp
    1eec:	626c2600 	rsbvs	r2, ip, #0, 12
    1ef0:	2c1c0400 	cfldrscs	mvf0, [ip], {-0}
    1ef4:	26000000 	strcs	r0, [r0], -r0
    1ef8:	04006275 	streq	r6, [r0], #-629	; 0x275
    1efc:	00002c1c 	andeq	r2, r0, ip, lsl ip
    1f00:	00e32500 	rsceq	r2, r3, r0, lsl #10
    1f04:	05c80000 	strbeq	r0, [r8]
    1f08:	01980000 	orrseq	r0, r8, r0
    1f0c:	6e110000 	cdpvs	0, 1, cr0, cr1, cr0, {0}
    1f10:	2c1f0400 	cfldrscs	mvf0, [pc], {-0}
    1f14:	00000000 	andeq	r0, r0, r0
    1f18:	0004b407 	andeq	fp, r4, r7, lsl #8
    1f1c:	05012700 	streq	r2, [r1, #-1792]	; 0x700
    1f20:	2b010000 	blcs	41f28 <__bss_end__+0x37390>
    1f24:	0000002c 	andeq	r0, r0, ip, lsr #32
    1f28:	00008cb4 			; <UNDEFINED> instruction: 0x00008cb4
    1f2c:	000004e0 	andeq	r0, r0, r0, ror #9
    1f30:	0ce09c01 	stcleq	12, cr9, [r0], #4
    1f34:	63160000 	tstvs	r6, #0
    1f38:	7a2b0100 	bvc	ac2340 <__bss_end__+0xab77a8>
    1f3c:	cf000004 	svcgt	0x00000004
    1f40:	28000006 	stmdacs	r0, {r1, r2}
    1f44:	0000052d 	andeq	r0, r0, sp, lsr #10
    1f48:	005d2c01 	subseq	r2, sp, r1, lsl #24
    1f4c:	58010000 	stmdapl	r1, {}	; <UNPREDICTABLE>
    1f50:	00053613 	andeq	r3, r5, r3, lsl r6
    1f54:	5d2d0100 	stfpls	f0, [sp, #-0]
    1f58:	17000000 	strne	r0, [r0, -r0]
    1f5c:	000000e3 	andeq	r0, r0, r3, ror #1
    1f60:	00000cf0 	strdeq	r0, [r0], -r0	; <UNPREDICTABLE>
    1f64:	a5000305 	strge	r0, [r0, #-773]	; 0x305
    1f68:	ee190000 	cdp	0, 1, cr0, cr9, cr0, {0}
    1f6c:	c0000001 	andgt	r0, r0, r1
    1f70:	0400008c 	streq	r0, [r0], #-140	; 0x8c
    1f74:	01000000 	mrseq	r0, (UNDEF: 0)
    1f78:	0006412c 	andeq	r4, r6, ip, lsr #2
    1f7c:	8cc01a00 	vstmiahi	r0, {s3-s2}
    1f80:	00040000 	andeq	r0, r4, r0
    1f84:	fe1d0000 	cdp2	0, 1, cr0, cr13, cr0, {0}
    1f88:	fb000001 	blx	1f96 <__code_start__-0x606a>
    1f8c:	00000006 	andeq	r0, r0, r6
    1f90:	04801900 	streq	r1, [r0], #2304	; 0x900
    1f94:	8cc40000 	stclhi	0, cr0, [r4], {0}
    1f98:	00080000 	andeq	r0, r8, r0
    1f9c:	2d010000 	stccs	0, cr0, [r1, #-0]
    1fa0:	000006bf 			; <UNDEFINED> instruction: 0x000006bf
    1fa4:	00049b29 	andeq	r9, r4, r9, lsr #22
    1fa8:	902a1000 	eorls	r1, sl, r0
    1fac:	fb000004 	blx	1fc6 <__code_start__-0x603a>
    1fb0:	1a000006 	bne	1fd0 <__code_start__-0x6030>
    1fb4:	00008cc4 	andeq	r8, r0, r4, asr #25
    1fb8:	00000008 	andeq	r0, r0, r8
    1fbc:	0004a62b 	andeq	sl, r4, fp, lsr #12
    1fc0:	28030500 	stmdacs	r3, {r8, sl}
    1fc4:	1c0000a5 	stcne	0, cr0, [r0], {165}	; 0xa5
    1fc8:	000004c9 	andeq	r0, r0, r9, asr #9
    1fcc:	00008cc4 	andeq	r8, r0, r4, asr #25
    1fd0:	00000004 	andeq	r0, r0, r4
    1fd4:	ec291605 	stc	6, cr1, [r9], #-20	; 0xffffffec
    1fd8:	04000004 	streq	r0, [r0], #-4
    1fdc:	0004e229 	andeq	lr, r4, r9, lsr #4
    1fe0:	d92a0000 	stmdble	sl!, {}	; <UNPREDICTABLE>
    1fe4:	fb000004 	blx	1ffe <__code_start__-0x6002>
    1fe8:	1a000006 	bne	2008 <__code_start__-0x5ff8>
    1fec:	00008cc4 	andeq	r8, r0, r4, asr #25
    1ff0:	00000004 	andeq	r0, r0, r4
    1ff4:	0005032c 	andeq	r0, r5, ip, lsr #6
    1ff8:	0c2c0500 	cfstr32eq	mvfx0, [ip], #-0
    1ffc:	1f000005 	svcne	0x00000005
    2000:	0004f62b 	andeq	pc, r4, fp, lsr #12
    2004:	34030500 	strcc	r0, [r3], #-1280	; 0x500
    2008:	000000a5 	andeq	r0, r0, r5, lsr #1
    200c:	19000000 	stmdbne	r0, {}	; <UNPREDICTABLE>
    2010:	0000051d 	andeq	r0, r0, sp, lsl r5
    2014:	00008dc8 	andeq	r8, r0, r8, asr #27
    2018:	00000110 	andeq	r0, r0, r0, lsl r1
    201c:	08175301 	ldmdaeq	r7, {r0, r8, r9, ip, lr}
    2020:	2d2a0000 	stccs	0, cr0, [sl, #-0]
    2024:	0e000005 	cdpeq	0, 0, cr0, cr0, cr5, {0}
    2028:	1a000007 	bne	204c <__code_start__-0x5fb4>
    202c:	00008dc8 	andeq	r8, r0, r8, asr #27
    2030:	00000110 	andeq	r0, r0, r0, lsl r1
    2034:	0005382b 	andeq	r3, r5, fp, lsr #16
    2038:	40030500 	andmi	r0, r3, r0, lsl #10
    203c:	190000a5 	stmdbne	r0, {r0, r2, r5, r7}
    2040:	0000054b 	andeq	r0, r0, fp, asr #10
    2044:	00008dc8 	andeq	r8, r0, r8, asr #27
    2048:	0000006c 	andeq	r0, r0, ip, rrx
    204c:	07cd1905 	strbeq	r1, [sp, r5, lsl #18]
    2050:	5b2a0000 	blpl	a82058 <__bss_end__+0xa774c0>
    2054:	0e000005 	cdpeq	0, 0, cr0, cr0, cr5, {0}
    2058:	1a000007 	bne	207c <__code_start__-0x5f84>
    205c:	00008dc8 	andeq	r8, r0, r8, asr #27
    2060:	0000006c 	andeq	r0, r0, ip, rrx
    2064:	0005661b 	andeq	r6, r5, fp, lsl r6
    2068:	05712b00 	ldrbeq	r2, [r1, #-2816]!	; 0xb00
    206c:	03050000 	movweq	r0, #20480	; 0x5000
    2070:	0000a54c 	andeq	sl, r0, ip, asr #10
    2074:	00058419 	andeq	r8, r5, r9, lsl r4
    2078:	008dc800 	addeq	ip, sp, r0, lsl #16
    207c:	00000400 	andeq	r0, r0, r0, lsl #8
    2080:	68100500 	ldmdavs	r0, {r8, sl}
    2084:	29000007 	stmdbcs	r0, {r0, r1, r2}
    2088:	000005a7 	andeq	r0, r0, r7, lsr #11
    208c:	059d2904 	ldreq	r2, [sp, #2308]	; 0x904
    2090:	2a000000 	bcs	2098 <__code_start__-0x5f68>
    2094:	00000594 	muleq	r0, r4, r5
    2098:	0000070e 	andeq	r0, r0, lr, lsl #14
    209c:	008dc81a 	addeq	ip, sp, sl, lsl r8
    20a0:	00000400 	andeq	r0, r0, r0, lsl #8
    20a4:	05be2c00 	ldreq	r2, [lr, #3072]!	; 0xc00
    20a8:	2b050000 	blcs	1420b0 <__bss_end__+0x137518>
    20ac:	000005b1 			; <UNDEFINED> instruction: 0x000005b1
    20b0:	a5580305 	ldrbge	r0, [r8, #-773]	; 0x305
    20b4:	00000000 	andeq	r0, r0, r0
    20b8:	0001d219 	andeq	sp, r1, r9, lsl r2
    20bc:	008dcc00 	addeq	ip, sp, r0, lsl #24
    20c0:	00003c00 	andeq	r3, r0, r0, lsl #24
    20c4:	81110500 	tsthi	r1, r0, lsl #10
    20c8:	2d000007 	stccs	0, cr0, [r0, #-28]	; 0xffffffe4
    20cc:	000001e2 	andeq	r0, r0, r2, ror #3
    20d0:	8e142000 	cdphi	0, 1, cr2, cr4, cr0, {0}
    20d4:	0e9a0000 	cdpeq	0, 9, cr0, cr10, cr0, {0}
    20d8:	301e0000 	andscc	r0, lr, r0
    20dc:	8400008e 	strhi	r0, [r0], #-142	; 0x8e
    20e0:	c200000e 	andgt	r0, r0, #14
    20e4:	1f000007 	svcne	0x00000007
    20e8:	41015301 	tstmi	r1, r1, lsl #6
    20ec:	0552011f 	ldrbeq	r0, [r2, #-287]	; 0x11f
    20f0:	00a54c03 	adceq	r4, r5, r3, lsl #24
    20f4:	51011f00 	tstpl	r1, r0, lsl #30
    20f8:	a4440305 	strbge	r0, [r4], #-773	; 0x305
    20fc:	011f0000 	tsteq	pc, r0
    2100:	a0030550 	andge	r0, r3, r0, asr r5
    2104:	1f00009e 	svcne	0x0000009e
    2108:	05007d02 	streq	r7, [r0, #-3330]	; 0xd02
    210c:	009ec403 	addseq	ip, lr, r3, lsl #8
    2110:	34200000 	strtcc	r0, [r0], #-0
    2114:	a100008e 	smlabbge	r0, lr, r0, r0
    2118:	0000000e 	andeq	r0, r0, lr
    211c:	8eb02000 	cdphi	0, 11, cr2, cr0, cr0, {0}
    2120:	0e9a0000 	cdpeq	0, 9, cr0, cr10, cr0, {0}
    2124:	c81e0000 	ldmdagt	lr, {}	; <UNPREDICTABLE>
    2128:	8400008e 	strhi	r0, [r0], #-142	; 0x8e
    212c:	0c00000e 	stceq	0, cr0, [r0], {14}
    2130:	1f000008 	svcne	0x00000008
    2134:	08025301 	stmdaeq	r2, {r0, r8, r9, ip, lr}
    2138:	52011f21 	andpl	r1, r1, #33, 30	; 0x84
    213c:	a5400305 	strbge	r0, [r0, #-773]	; 0x305
    2140:	011f0000 	tsteq	pc, r0
    2144:	44030551 	strmi	r0, [r3], #-1361	; 0x551
    2148:	1f0000a4 	svcne	0x000000a4
    214c:	03055001 	movweq	r5, #20481	; 0x5001
    2150:	00009fbc 			; <UNDEFINED> instruction: 0x00009fbc
    2154:	007d021f 	rsbseq	r0, sp, pc, lsl r2
    2158:	00007802 	andeq	r7, r0, r2, lsl #16
    215c:	008ecc20 	addeq	ip, lr, r0, lsr #24
    2160:	000ea100 	andeq	sl, lr, r0, lsl #2
    2164:	19000000 	stmdbne	r0, {}	; <UNPREDICTABLE>
    2168:	000001ee 	andeq	r0, r0, lr, ror #3
    216c:	00008ee4 	andeq	r8, r0, r4, ror #29
    2170:	00000004 	andeq	r0, r0, r4
    2174:	083e5401 	ldmdaeq	lr!, {r0, sl, ip, lr}
    2178:	e41a0000 	ldr	r0, [sl], #-0
    217c:	0400008e 	streq	r0, [r0], #-142	; 0x8e
    2180:	1d000000 	stcne	0, cr0, [r0, #-0]
    2184:	000001fe 	strdeq	r0, [r0], -lr
    2188:	00000721 	andeq	r0, r0, r1, lsr #14
    218c:	1d190000 	ldcne	0, cr0, [r9, #-0]
    2190:	e8000005 	stmda	r0, {r0, r2}
    2194:	1000008e 	andne	r0, r0, lr, lsl #1
    2198:	01000001 	tsteq	r0, r1
    219c:	00099654 	andeq	r9, r9, r4, asr r6
    21a0:	052d2a00 	streq	r2, [sp, #-2560]!	; 0xa00
    21a4:	07210000 	streq	r0, [r1, -r0]!
    21a8:	e81a0000 	ldmda	sl, {}	; <UNPREDICTABLE>
    21ac:	1000008e 	andne	r0, r0, lr, lsl #1
    21b0:	2b000001 	blcs	21bc <__code_start__-0x5e44>
    21b4:	00000538 	andeq	r0, r0, r8, lsr r5
    21b8:	a5400305 	strbge	r0, [r0, #-773]	; 0x305
    21bc:	4b190000 	blmi	6421c4 <__bss_end__+0x63762c>
    21c0:	e8000005 	stmda	r0, {r0, r2}
    21c4:	6c00008e 	stcvs	0, cr0, [r0], {142}	; 0x8e
    21c8:	05000000 	streq	r0, [r0, #-0]
    21cc:	00094c19 	andeq	r4, r9, r9, lsl ip
    21d0:	055b2a00 	ldrbeq	r2, [fp, #-2560]	; 0xa00
    21d4:	07210000 	streq	r0, [r1, -r0]!
    21d8:	e81a0000 	ldmda	sl, {}	; <UNPREDICTABLE>
    21dc:	6c00008e 	stcvs	0, cr0, [r0], {142}	; 0x8e
    21e0:	1b000000 	blne	21e8 <__code_start__-0x5e18>
    21e4:	00000566 	andeq	r0, r0, r6, ror #10
    21e8:	0005712b 	andeq	r7, r5, fp, lsr #2
    21ec:	4c030500 	cfstr32mi	mvfx0, [r3], {-0}
    21f0:	190000a5 	stmdbne	r0, {r0, r2, r5, r7}
    21f4:	00000584 	andeq	r0, r0, r4, lsl #11
    21f8:	00008ee8 	andeq	r8, r0, r8, ror #29
    21fc:	00000004 	andeq	r0, r0, r4
    2200:	08e71005 	stmiaeq	r7!, {r0, r2, ip}^
    2204:	a7290000 	strge	r0, [r9, -r0]!
    2208:	04000005 	streq	r0, [r0], #-5
    220c:	00059d29 	andeq	r9, r5, r9, lsr #26
    2210:	942a0000 	strtls	r0, [sl], #-0
    2214:	21000005 	tstcs	r0, r5
    2218:	1a000007 	bne	223c <__code_start__-0x5dc4>
    221c:	00008ee8 	andeq	r8, r0, r8, ror #29
    2220:	00000004 	andeq	r0, r0, r4
    2224:	0005be2c 	andeq	fp, r5, ip, lsr #28
    2228:	b12b0500 	teqlt	fp, r0, lsl #10
    222c:	05000005 	streq	r0, [r0, #-5]
    2230:	00a55803 	adceq	r5, r5, r3, lsl #16
    2234:	19000000 	stmdbne	r0, {}	; <UNPREDICTABLE>
    2238:	000001d2 	ldrdeq	r0, [r0], -r2
    223c:	00008eec 	andeq	r8, r0, ip, ror #29
    2240:	0000003c 	andeq	r0, r0, ip, lsr r0
    2244:	09001105 	stmdbeq	r0, {r0, r2, r8, ip}
    2248:	e22d0000 	eor	r0, sp, #0
    224c:	00000001 	andeq	r0, r0, r1
    2250:	008f3420 	addeq	r3, pc, r0, lsr #8
    2254:	000e9a00 	andeq	r9, lr, r0, lsl #20
    2258:	8f501e00 	svchi	0x00501e00
    225c:	0e840000 	cdpeq	0, 8, cr0, cr4, cr0, {0}
    2260:	09410000 	stmdbeq	r1, {}^	; <UNPREDICTABLE>
    2264:	011f0000 	tsteq	pc, r0
    2268:	1f410153 	svcne	0x00410153
    226c:	03055201 	movweq	r5, #20993	; 0x5201
    2270:	0000a54c 	andeq	sl, r0, ip, asr #10
    2274:	0551011f 	ldrbeq	r0, [r1, #-287]	; 0x11f
    2278:	00a44403 	adceq	r4, r4, r3, lsl #8
    227c:	50011f00 	andpl	r1, r1, r0, lsl #30
    2280:	9ea00305 	cdpls	3, 10, cr0, cr0, cr5, {0}
    2284:	021f0000 	andseq	r0, pc, #0
    2288:	0305007d 	movweq	r0, #20605	; 0x507d
    228c:	00009ec4 	andeq	r9, r0, r4, asr #29
    2290:	8f542000 	svchi	0x00542000
    2294:	0ea10000 	cdpeq	0, 10, cr0, cr1, cr0, {0}
    2298:	00000000 	andeq	r0, r0, r0
    229c:	008fd020 	addeq	sp, pc, r0, lsr #32
    22a0:	000e9a00 	andeq	r9, lr, r0, lsl #20
    22a4:	8fe81e00 	svchi	0x00e81e00
    22a8:	0e840000 	cdpeq	0, 8, cr0, cr4, cr0, {0}
    22ac:	098b0000 	stmibeq	fp, {}	; <UNPREDICTABLE>
    22b0:	011f0000 	tsteq	pc, r0
    22b4:	21080253 	tstcs	r8, r3, asr r2
    22b8:	0552011f 	ldrbeq	r0, [r2, #-287]	; 0x11f
    22bc:	00a54003 	adceq	r4, r5, r3
    22c0:	51011f00 	tstpl	r1, r0, lsl #30
    22c4:	a4440305 	strbge	r0, [r4], #-773	; 0x305
    22c8:	011f0000 	tsteq	pc, r0
    22cc:	bc030550 	cfstr32lt	mvfx0, [r3], {80}	; 0x50
    22d0:	1f00009f 	svcne	0x0000009f
    22d4:	02007d02 	andeq	r7, r0, #2, 26	; 0x80
    22d8:	20000075 	andcs	r0, r0, r5, ror r0
    22dc:	00008fec 	andeq	r8, r0, ip, ror #31
    22e0:	00000ea1 	andeq	r0, r0, r1, lsr #29
    22e4:	ee190000 	cdp	0, 1, cr0, cr9, cr0, {0}
    22e8:	f8000001 			; <UNDEFINED> instruction: 0xf8000001
    22ec:	0400008f 	streq	r0, [r0], #-143	; 0x8f
    22f0:	01000000 	mrseq	r0, (UNDEF: 0)
    22f4:	0009b954 	andeq	fp, r9, r4, asr r9
    22f8:	8ff81a00 	svchi	0x00f81a00
    22fc:	00040000 	andeq	r0, r4, r0
    2300:	fe1b0000 	cdp2	0, 1, cr0, cr11, cr0, {0}
    2304:	00000001 	andeq	r0, r0, r1
    2308:	054b1900 	strbeq	r1, [fp, #-2304]	; 0x900
    230c:	900c0000 	andls	r0, ip, r0
    2310:	006c0000 	rsbeq	r0, ip, r0
    2314:	58010000 	stmdapl	r1, {}	; <UNPREDICTABLE>
    2318:	00000a97 	muleq	r0, r7, sl
    231c:	00055b2a 	andeq	r5, r5, sl, lsr #22
    2320:	00073400 	andeq	r3, r7, r0, lsl #8
    2324:	900c1a00 	andls	r1, ip, r0, lsl #20
    2328:	006c0000 	rsbeq	r0, ip, r0
    232c:	661b0000 	ldrvs	r0, [fp], -r0
    2330:	2b000005 	blcs	234c <__code_start__-0x5cb4>
    2334:	00000571 	andeq	r0, r0, r1, ror r5
    2338:	a54c0305 	strbge	r0, [ip, #-773]	; 0x305
    233c:	84190000 	ldrhi	r0, [r9], #-0
    2340:	0c000005 	stceq	0, cr0, [r0], {5}
    2344:	04000090 	streq	r0, [r0], #-144	; 0x90
    2348:	05000000 	streq	r0, [r0, #-0]
    234c:	000a3210 	andeq	r3, sl, r0, lsl r2
    2350:	05a72900 	streq	r2, [r7, #2304]!	; 0x900
    2354:	29040000 	stmdbcs	r4, {}	; <UNPREDICTABLE>
    2358:	0000059d 	muleq	r0, sp, r5
    235c:	05942a00 	ldreq	r2, [r4, #2560]	; 0xa00
    2360:	07340000 	ldreq	r0, [r4, -r0]!
    2364:	0c1a0000 	ldceq	0, cr0, [sl], {-0}
    2368:	04000090 	streq	r0, [r0], #-144	; 0x90
    236c:	2c000000 	stccs	0, cr0, [r0], {-0}
    2370:	000005be 			; <UNDEFINED> instruction: 0x000005be
    2374:	05b12b05 	ldreq	r2, [r1, #2821]!	; 0xb05
    2378:	03050000 	movweq	r0, #20480	; 0x5000
    237c:	0000a558 	andeq	sl, r0, r8, asr r5
    2380:	d2190000 	andsle	r0, r9, #0
    2384:	10000001 	andne	r0, r0, r1
    2388:	3c000090 	stccc	0, cr0, [r0], {144}	; 0x90
    238c:	05000000 	streq	r0, [r0, #-0]
    2390:	000a4b11 	andeq	r4, sl, r1, lsl fp
    2394:	01e22d00 	mvneq	r2, r0, lsl #26
    2398:	20000000 	andcs	r0, r0, r0
    239c:	00009058 	andeq	r9, r0, r8, asr r0
    23a0:	00000e9a 	muleq	r0, sl, lr
    23a4:	0090741e 	addseq	r7, r0, lr, lsl r4
    23a8:	000e8400 	andeq	r8, lr, r0, lsl #8
    23ac:	000a8c00 	andeq	r8, sl, r0, lsl #24
    23b0:	53011f00 	movwpl	r1, #7936	; 0x1f00
    23b4:	011f4101 	tsteq	pc, r1, lsl #2
    23b8:	4c030552 	cfstr32mi	mvfx0, [r3], {82}	; 0x52
    23bc:	1f0000a5 	svcne	0x000000a5
    23c0:	03055101 	movweq	r5, #20737	; 0x5101
    23c4:	0000a444 	andeq	sl, r0, r4, asr #8
    23c8:	0550011f 	ldrbeq	r0, [r0, #-287]	; 0x11f
    23cc:	009ea003 	addseq	sl, lr, r3
    23d0:	7d021f00 	stcvc	15, cr1, [r2, #-0]
    23d4:	c4030500 	strgt	r0, [r3], #-1280	; 0x500
    23d8:	0000009e 	muleq	r0, lr, r0
    23dc:	00907820 	addseq	r7, r0, r0, lsr #16
    23e0:	000ea100 	andeq	sl, lr, r0, lsl #2
    23e4:	19000000 	stmdbne	r0, {}	; <UNPREDICTABLE>
    23e8:	000001ee 	andeq	r0, r0, lr, ror #3
    23ec:	00009078 	andeq	r9, r0, r8, ror r0
    23f0:	00000004 	andeq	r0, r0, r4
    23f4:	0abe5801 	beq	fef98400 <__bss_end__+0xfef8d868>
    23f8:	781a0000 	ldmdavc	sl, {}	; <UNPREDICTABLE>
    23fc:	04000090 	streq	r0, [r0], #-144	; 0x90
    2400:	1d000000 	stcne	0, cr0, [r0, #-0]
    2404:	000001fe 	strdeq	r0, [r0], -lr
    2408:	00000747 	andeq	r0, r0, r7, asr #14
    240c:	4b190000 	blmi	642414 <__bss_end__+0x63787c>
    2410:	7c000005 	stcvc	0, cr0, [r0], {5}
    2414:	6c000090 	stcvs	0, cr0, [r0], {144}	; 0x90
    2418:	01000000 	mrseq	r0, (UNDEF: 0)
    241c:	000b9c58 	andeq	r9, fp, r8, asr ip
    2420:	055b2a00 	ldrbeq	r2, [fp, #-2560]	; 0xa00
    2424:	07470000 	strbeq	r0, [r7, -r0]
    2428:	7c1a0000 	ldcvc	0, cr0, [sl], {-0}
    242c:	6c000090 	stcvs	0, cr0, [r0], {144}	; 0x90
    2430:	1b000000 	blne	2438 <__code_start__-0x5bc8>
    2434:	00000566 	andeq	r0, r0, r6, ror #10
    2438:	0005712b 	andeq	r7, r5, fp, lsr #2
    243c:	4c030500 	cfstr32mi	mvfx0, [r3], {-0}
    2440:	190000a5 	stmdbne	r0, {r0, r2, r5, r7}
    2444:	00000584 	andeq	r0, r0, r4, lsl #11
    2448:	0000907c 	andeq	r9, r0, ip, ror r0
    244c:	00000004 	andeq	r0, r0, r4
    2450:	0b371005 	bleq	dc646c <__bss_end__+0xdbb8d4>
    2454:	a7290000 	strge	r0, [r9, -r0]!
    2458:	04000005 	streq	r0, [r0], #-5
    245c:	00059d29 	andeq	r9, r5, r9, lsr #26
    2460:	942a0000 	strtls	r0, [sl], #-0
    2464:	47000005 	strmi	r0, [r0, -r5]
    2468:	1a000007 	bne	248c <__code_start__-0x5b74>
    246c:	0000907c 	andeq	r9, r0, ip, ror r0
    2470:	00000004 	andeq	r0, r0, r4
    2474:	0005be2c 	andeq	fp, r5, ip, lsr #28
    2478:	b12b0500 	teqlt	fp, r0, lsl #10
    247c:	05000005 	streq	r0, [r0, #-5]
    2480:	00a55803 	adceq	r5, r5, r3, lsl #16
    2484:	19000000 	stmdbne	r0, {}	; <UNPREDICTABLE>
    2488:	000001d2 	ldrdeq	r0, [r0], -r2
    248c:	00009080 	andeq	r9, r0, r0, lsl #1
    2490:	0000003c 	andeq	r0, r0, ip, lsr r0
    2494:	0b501105 	bleq	14068b0 <__bss_end__+0x13fbd18>
    2498:	e22d0000 	eor	r0, sp, #0
    249c:	00000001 	andeq	r0, r0, r1
    24a0:	0090c820 	addseq	ip, r0, r0, lsr #16
    24a4:	000e9a00 	andeq	r9, lr, r0, lsl #20
    24a8:	90e41e00 	rscls	r1, r4, r0, lsl #28
    24ac:	0e840000 	cdpeq	0, 8, cr0, cr4, cr0, {0}
    24b0:	0b910000 	bleq	fe4424b8 <__bss_end__+0xfe437920>
    24b4:	011f0000 	tsteq	pc, r0
    24b8:	1f410153 	svcne	0x00410153
    24bc:	03055201 	movweq	r5, #20993	; 0x5201
    24c0:	0000a54c 	andeq	sl, r0, ip, asr #10
    24c4:	0551011f 	ldrbeq	r0, [r1, #-287]	; 0x11f
    24c8:	00a44403 	adceq	r4, r4, r3, lsl #8
    24cc:	50011f00 	andpl	r1, r1, r0, lsl #30
    24d0:	9ea00305 	cdpls	3, 10, cr0, cr0, cr5, {0}
    24d4:	021f0000 	andseq	r0, pc, #0
    24d8:	0305007d 	movweq	r0, #20605	; 0x507d
    24dc:	00009ec4 	andeq	r9, r0, r4, asr #29
    24e0:	90e82000 	rscls	r2, r8, r0
    24e4:	0ea10000 	cdpeq	0, 10, cr0, cr1, cr0, {0}
    24e8:	00000000 	andeq	r0, r0, r0
    24ec:	008cfc21 	addeq	pc, ip, r1, lsr #24
    24f0:	000bac00 	andeq	sl, fp, r0, lsl #24
    24f4:	50011f00 	andpl	r1, r1, r0, lsl #30
    24f8:	00007402 	andeq	r7, r0, r2, lsl #8
    24fc:	008d241e 	addeq	r2, sp, lr, lsl r4
    2500:	000e8400 	andeq	r8, lr, r0, lsl #8
    2504:	000bd200 	andeq	sp, fp, r0, lsl #4
    2508:	53011f00 	movwpl	r1, #7936	; 0x1f00
    250c:	1f340802 	svcne	0x00340802
    2510:	79025201 	stmdbvc	r2, {r0, r9, ip, lr}
    2514:	51011f00 	tstpl	r1, r0, lsl #30
    2518:	1f007a02 	svcne	0x00007a02
    251c:	7b025001 	blvc	96528 <__bss_end__+0x8b990>
    2520:	301e0000 	andscc	r0, lr, r0
    2524:	b900008d 	stmdblt	r0, {r0, r2, r3, r7}
    2528:	eb00000e 	bl	2568 <__code_start__-0x5a98>
    252c:	1f00000b 	svcne	0x0000000b
    2530:	75025101 	strvc	r5, [r2, #-257]	; 0x101
    2534:	50011f00 	andpl	r1, r1, r0, lsl #30
    2538:	1e003001 	cdpne	0, 0, cr3, cr0, cr1, {0}
    253c:	00008d58 	andeq	r8, r0, r8, asr sp
    2540:	00000ecf 	andeq	r0, r0, pc, asr #29
    2544:	00000c05 	andeq	r0, r0, r5, lsl #24
    2548:	0252011f 	subseq	r0, r2, #-1073741817	; 0xc0000007
    254c:	011f0074 	tsteq	pc, r4, ror r0	; <UNPREDICTABLE>
    2550:	00770250 	rsbseq	r0, r7, r0, asr r2
    2554:	8d702100 	ldfhie	f2, [r0, #-0]
    2558:	0c150000 	ldceq	0, cr0, [r5], {-0}
    255c:	011f0000 	tsteq	pc, r0
    2560:	00740250 	rsbseq	r0, r4, r0, asr r2
    2564:	8d7c2100 	ldfhie	f2, [ip, #-0]
    2568:	0c250000 	stceq	0, cr0, [r5], #-0
    256c:	011f0000 	tsteq	pc, r0
    2570:	00740250 	rsbseq	r0, r4, r0, asr r2
    2574:	8d941e00 	ldchi	14, cr1, [r4]
    2578:	0e840000 	cdpeq	0, 8, cr0, cr4, cr0, {0}
    257c:	0c3c0000 	ldceq	0, cr0, [ip], #-0
    2580:	011f0000 	tsteq	pc, r0
    2584:	c8030550 	stmdagt	r3, {r4, r6, r8, sl}
    2588:	000000a3 	andeq	r0, r0, r3, lsr #1
    258c:	008dc81e 	addeq	ip, sp, lr, lsl r8
    2590:	000e8400 	andeq	r8, lr, r0, lsl #8
    2594:	000c5300 	andeq	r5, ip, r0, lsl #6
    2598:	50011f00 	andpl	r1, r1, r0, lsl #30
    259c:	a4100305 	ldrge	r0, [r0], #-773	; 0x305
    25a0:	1e000000 	cdpne	0, 0, cr0, cr0, cr0, {0}
    25a4:	00008ee4 	andeq	r8, r0, r4, ror #29
    25a8:	00000e84 	andeq	r0, r0, r4, lsl #29
    25ac:	00000c70 	andeq	r0, r0, r0, ror ip
    25b0:	0252011f 	subseq	r0, r2, #-1073741817	; 0xc0000007
    25b4:	011f0078 	tsteq	pc, r8, ror r0	; <UNPREDICTABLE>
    25b8:	50030550 	andpl	r0, r3, r0, asr r5
    25bc:	000000a4 	andeq	r0, r0, r4, lsr #1
    25c0:	0090041e 	addseq	r0, r0, lr, lsl r4
    25c4:	000e8400 	andeq	r8, lr, r0, lsl #8
    25c8:	000c8700 	andeq	r8, ip, r0, lsl #14
    25cc:	50011f00 	andpl	r1, r1, r0, lsl #30
    25d0:	a46c0305 	strbtge	r0, [ip], #-773	; 0x305
    25d4:	1e000000 	cdpne	0, 0, cr0, cr0, cr0, {0}
    25d8:	0000900c 	andeq	r9, r0, ip
    25dc:	00000ea8 	andeq	r0, r0, r8, lsr #29
    25e0:	00000c9a 	muleq	r0, sl, ip
    25e4:	0150011f 	cmpeq	r0, pc, lsl r1
    25e8:	f4200030 	vld4.8	{d0-d3}, [r0 :256], r0
    25ec:	9a000090 	bls	2834 <__code_start__-0x57cc>
    25f0:	1e00000e 	cdpne	0, 0, cr0, cr0, cr14, {0}
    25f4:	00009110 	andeq	r9, r0, r0, lsl r1
    25f8:	00000e84 	andeq	r0, r0, r4, lsl #29
    25fc:	00000cd6 	ldrdeq	r0, [r0], -r6
    2600:	0253011f 	subseq	r0, r3, #-1073741817	; 0xc0000007
    2604:	011f5808 	tsteq	pc, r8, lsl #16
    2608:	00790252 	rsbseq	r0, r9, r2, asr r2
    260c:	0251011f 	subseq	r0, r1, #-1073741817	; 0xc0000007
    2610:	011f007a 	tsteq	pc, sl, ror r0	; <UNPREDICTABLE>
    2614:	a0030550 	andge	r0, r3, r0, asr r5
    2618:	1f00009e 	svcne	0x0000009e
    261c:	05007d02 	streq	r7, [r0, #-3330]	; 0xd02
    2620:	00a48403 	adceq	r8, r4, r3, lsl #8
    2624:	14200000 	strtne	r0, [r0], #-0
    2628:	a1000091 	swpge	r0, r1, [r0]	; <UNPREDICTABLE>
    262c:	0000000e 	andeq	r0, r0, lr
    2630:	00007f23 	andeq	r7, r0, r3, lsr #30
    2634:	000cf000 	andeq	pc, ip, r0
    2638:	00762400 	rsbseq	r2, r6, r0, lsl #8
    263c:	00110000 	andseq	r0, r1, r0
    2640:	000ce007 	andeq	lr, ip, r7
    2644:	051c2700 	ldreq	r2, [ip, #-1792]	; 0x700
    2648:	64010000 	strvs	r0, [r1], #-0
    264c:	0000002c 	andeq	r0, r0, ip, lsr #32
    2650:	00009194 	muleq	r0, r4, r1
    2654:	00000084 	andeq	r0, r0, r4, lsl #1
    2658:	0db99c01 	ldceq	12, cr9, [r9, #4]!
    265c:	63160000 	tstvs	r6, #0
    2660:	7a640100 	bvc	1902a68 <__bss_end__+0x18f7ed0>
    2664:	5a000004 	bpl	267c <__code_start__-0x5984>
    2668:	18000007 	stmdane	r0, {r0, r1, r2}
    266c:	67010069 	strvs	r0, [r1, -r9, rrx]
    2670:	0000002c 	andeq	r0, r0, ip, lsr #32
    2674:	00000778 	andeq	r0, r0, r8, ror r7
    2678:	0000e317 	andeq	lr, r0, r7, lsl r3
    267c:	000dc900 	andeq	ip, sp, r0, lsl #18
    2680:	ec030500 	cfstr32	mvfx0, [r3], {-0}
    2684:	210000a4 	smlatbcs	r0, r4, r0, r0
    2688:	000091b0 			; <UNDEFINED> instruction: 0x000091b0
    268c:	00000d47 	andeq	r0, r0, r7, asr #26
    2690:	0250011f 	subseq	r0, r0, #-1073741817	; 0xc0000007
    2694:	21000074 	tstcs	r0, r4, ror r0
    2698:	000091bc 			; <UNDEFINED> instruction: 0x000091bc
    269c:	00000d57 	andeq	r0, r0, r7, asr sp
    26a0:	0250011f 	subseq	r0, r0, #-1073741817	; 0xc0000007
    26a4:	21000074 	tstcs	r0, r4, ror r0
    26a8:	000091c8 	andeq	r9, r0, r8, asr #3
    26ac:	00000d67 	andeq	r0, r0, r7, ror #26
    26b0:	0250011f 	subseq	r0, r0, #-1073741817	; 0xc0000007
    26b4:	21000074 	tstcs	r0, r4, ror r0
    26b8:	000091d4 	ldrdeq	r9, [r0], -r4
    26bc:	00000d77 	andeq	r0, r0, r7, ror sp
    26c0:	0250011f 	subseq	r0, r0, #-1073741817	; 0xc0000007
    26c4:	20000074 	andcs	r0, r0, r4, ror r0
    26c8:	000091e0 	andeq	r9, r0, r0, ror #3
    26cc:	00000e9a 	muleq	r0, sl, lr
    26d0:	0091f41e 	addseq	pc, r1, lr, lsl r4	; <UNPREDICTABLE>
    26d4:	000e8400 	andeq	r8, lr, r0, lsl #8
    26d8:	000daf00 	andeq	sl, sp, r0, lsl #30
    26dc:	53011f00 	movwpl	r1, #7936	; 0x1f00
    26e0:	1f6e0802 	svcne	0x006e0802
    26e4:	03055201 	movweq	r5, #20993	; 0x5201
    26e8:	0000a4ec 	andeq	sl, r0, ip, ror #9
    26ec:	0551011f 	ldrbeq	r0, [r1, #-287]	; 0x11f
    26f0:	00a2bc03 	adceq	fp, r2, r3, lsl #24
    26f4:	50011f00 	andpl	r1, r1, r0, lsl #30
    26f8:	a4b00305 	ldrtge	r0, [r0], #773	; 0x305
    26fc:	20000000 	andcs	r0, r0, r0
    2700:	000091f8 	strdeq	r9, [r0], -r8
    2704:	00000ea1 	andeq	r0, r0, r1, lsr #29
    2708:	007f2300 	rsbseq	r2, pc, r0, lsl #6
    270c:	0dc90000 	stcleq	0, cr0, [r9]
    2710:	76240000 	strtvc	r0, [r4], -r0
    2714:	10000000 	andne	r0, r0, r0
    2718:	0db90700 	ldceq	7, cr0, [r9]
    271c:	b1140000 	tstlt	r4, r0
    2720:	01000004 	tsteq	r0, r4
    2724:	0092187d 	addseq	r1, r2, sp, ror r8
    2728:	00002800 	andeq	r2, r0, r0, lsl #16
    272c:	ef9c0100 	svc	0x009c0100
    2730:	2e00000d 	cdpcs	0, 0, cr0, cr0, cr13, {0}
    2734:	7d010063 	stcvc	0, cr0, [r1, #-396]	; 0xfffffe74
    2738:	0000047a 	andeq	r0, r0, sl, ror r4
    273c:	2f005001 	svccs	0x00005001
    2740:	000001f6 	strdeq	r0, [r0], -r6
    2744:	00258801 	eoreq	r8, r5, r1, lsl #16
    2748:	92400000 	subls	r0, r0, #0
    274c:	004c0000 	subeq	r0, ip, r0
    2750:	9c010000 	stcls	0, cr0, [r1], {-0}
    2754:	00000e57 	andeq	r0, r0, r7, asr lr
    2758:	01006316 	tsteq	r0, r6, lsl r3
    275c:	00047a88 	andeq	r7, r4, r8, lsl #21
    2760:	00079700 	andeq	r9, r7, r0, lsl #14
    2764:	924c2000 	subls	r2, ip, #0
    2768:	0efb0000 	cdpeq	0, 15, cr0, cr11, cr0, {0}
    276c:	541e0000 	ldrpl	r0, [lr], #-0
    2770:	ce000092 	mcrgt	0, 0, r0, cr0, cr2, {4}
    2774:	3200000d 	andcc	r0, r0, #13
    2778:	1f00000e 	svcne	0x0000000e
    277c:	74025001 	strvc	r5, [r2], #-1
    2780:	5c1e0000 	ldcpl	0, cr0, [lr], {-0}
    2784:	f5000092 			; <UNDEFINED> instruction: 0xf5000092
    2788:	4600000c 	strmi	r0, [r0], -ip
    278c:	1f00000e 	svcne	0x0000000e
    2790:	74025001 	strvc	r5, [r2], #-1
    2794:	6c220000 	stcvs	0, cr0, [r2], #-0
    2798:	cd000092 	stcgt	0, cr0, [r0, #-584]	; 0xfffffdb8
    279c:	1f000005 	svcne	0x00000005
    27a0:	74025001 	strvc	r5, [r2], #-1
    27a4:	28000000 	stmdacs	r0, {}	; <UNPREDICTABLE>
    27a8:	00000142 	andeq	r0, r0, r2, asr #2
    27ac:	047a0601 	ldrbteq	r0, [sl], #-1537	; 0x601
    27b0:	03050000 	movweq	r0, #20480	; 0x5000
    27b4:	0000a790 	muleq	r0, r0, r7
    27b8:	0004e328 	andeq	lr, r4, r8, lsr #6
    27bc:	7d080100 	stfvcs	f0, [r8, #-0]
    27c0:	05000000 	streq	r0, [r0, #-0]
    27c4:	00a79403 	adceq	r9, r7, r3, lsl #8
    27c8:	018a3000 	orreq	r3, sl, r0
    27cc:	c2020000 	andgt	r0, r2, #0
    27d0:	00000025 	andeq	r0, r0, r5, lsr #32
    27d4:	0005bc31 	andeq	fp, r5, r1, lsr ip
    27d8:	25290800 	strcs	r0, [r9, #-2048]!	; 0x800
    27dc:	9a000000 	bls	27e4 <__code_start__-0x581c>
    27e0:	0900000e 	stmdbeq	r0, {r1, r2, r3}
    27e4:	00000086 	andeq	r0, r0, r6, lsl #1
    27e8:	d4330032 	ldrtle	r0, [r3], #-50	; 0x32
    27ec:	08000000 	stmdaeq	r0, {}	; <UNPREDICTABLE>
    27f0:	0114331e 	tsteq	r4, lr, lsl r3
    27f4:	65080000 	strvs	r0, [r8, #-0]
    27f8:	0003d434 	andeq	sp, r3, r4, lsr r4
    27fc:	b9e30200 	stmiblt	r3!, {r9}^
    2800:	0900000e 	stmdbeq	r0, {r1, r2, r3}
    2804:	0000005d 	andeq	r0, r0, sp, asr r0
    2808:	03943400 	orrseq	r3, r4, #0, 8
    280c:	d9020000 	stmdble	r2, {}	; <UNPREDICTABLE>
    2810:	00000ecf 	andeq	r0, r0, pc, asr #29
    2814:	00005d09 	andeq	r5, r0, r9, lsl #26
    2818:	00910900 	addseq	r0, r1, r0, lsl #18
    281c:	34000000 	strcc	r0, [r0], #-0
    2820:	000004cf 	andeq	r0, r0, pc, asr #9
    2824:	0eeaf302 	cdpeq	3, 14, cr15, cr10, cr2, {0}
    2828:	5d090000 	stcpl	0, cr0, [r9, #-0]
    282c:	09000000 	stmdbeq	r0, {}	; <UNPREDICTABLE>
    2830:	00000eea 	andeq	r0, r0, sl, ror #29
    2834:	00007d09 	andeq	r7, r0, r9, lsl #26
    2838:	04060000 	streq	r0, [r6], #-0
    283c:	00000ef0 	strdeq	r0, [r0], -r0	; <UNPREDICTABLE>
    2840:	000efb08 	andeq	pc, lr, r8, lsl #22
    2844:	007d0900 	rsbseq	r0, sp, r0, lsl #18
    2848:	33000000 	movwcc	r0, #0
    284c:	0000041d 	andeq	r0, r0, sp, lsl r4
    2850:	91009002 	tstls	r0, r2
    2854:	04000001 	streq	r0, [r0], #-1
    2858:	00081900 	andeq	r1, r8, r0, lsl #18
    285c:	62010400 	andvs	r0, r1, #0, 8
    2860:	01000005 	tsteq	r0, r5
    2864:	00000554 	andeq	r0, r0, r4, asr r5
    2868:	000005cd 	andeq	r0, r0, sp, asr #11
    286c:	0000928c 	andeq	r9, r0, ip, lsl #5
    2870:	00000058 	andeq	r0, r0, r8, asr r0
    2874:	000006d6 	ldrdeq	r0, [r0], -r6
    2878:	00054502 	andeq	r4, r5, r2, lsl #10
    287c:	30280200 	eorcc	r0, r8, r0, lsl #4
    2880:	03000000 	movweq	r0, #0
    2884:	000005c3 	andeq	r0, r0, r3, asr #11
    2888:	47000304 	strmi	r0, [r0, -r4, lsl #6]
    288c:	04000000 	streq	r0, [r0], #-0
    2890:	00000613 	andeq	r0, r0, r3, lsl r6
    2894:	00000047 	andeq	r0, r0, r7, asr #32
    2898:	04050000 	streq	r0, [r5], #-0
    289c:	0005c502 	andeq	ip, r5, r2, lsl #10
    28a0:	25620200 	strbcs	r0, [r2, #-512]!	; 0x200
    28a4:	06000000 	streq	r0, [r0], -r0
    28a8:	6e690504 	cdpvs	5, 6, cr0, cr9, cr4, {0}
    28ac:	04070074 	streq	r0, [r7], #-116	; 0x74
    28b0:	00009e07 	andeq	r9, r0, r7, lsl #28
    28b4:	06010700 	streq	r0, [r1], -r0, lsl #14
    28b8:	0000017e 	andeq	r0, r0, lr, ror r1
    28bc:	a1050207 	tstge	r5, r7, lsl #4
    28c0:	07000001 	streq	r0, [r0, -r1]
    28c4:	00b00504 	adcseq	r0, r0, r4, lsl #10
    28c8:	08070000 	stmdaeq	r7, {}	; <UNPREDICTABLE>
    28cc:	0000ab05 	andeq	sl, r0, r5, lsl #22
    28d0:	08010700 	stmdaeq	r1, {r8, r9, sl}
    28d4:	0000017c 	andeq	r0, r0, ip, ror r1
    28d8:	f0070207 			; <UNDEFINED> instruction: 0xf0070207
    28dc:	07000000 	streq	r0, [r0, -r0]
    28e0:	00990704 	addseq	r0, r9, r4, lsl #14
    28e4:	08070000 	stmdaeq	r7, {}	; <UNPREDICTABLE>
    28e8:	00009407 	andeq	r9, r0, r7, lsl #8
    28ec:	07040700 	streq	r0, [r4, -r0, lsl #14]
    28f0:	00000121 	andeq	r0, r0, r1, lsr #2
    28f4:	00a70408 	adceq	r0, r7, r8, lsl #8
    28f8:	01070000 	mrseq	r0, (UNDEF: 7)
    28fc:	00018508 	andeq	r8, r1, r8, lsl #10
    2900:	b4040800 	strlt	r0, [r4], #-2048	; 0x800
    2904:	09000000 	stmdbeq	r0, {}	; <UNPREDICTABLE>
    2908:	000000a7 	andeq	r0, r0, r7, lsr #1
    290c:	0005bc0a 	andeq	fp, r5, sl, lsl #24
    2910:	54060100 	strpl	r0, [r6], #-256	; 0x100
    2914:	8c000000 	stchi	0, cr0, [r0], {-0}
    2918:	58000092 	stmdapl	r0, {r1, r4, r7}
    291c:	01000000 	mrseq	r0, (UNDEF: 0)
    2920:	0001439c 	muleq	r1, ip, r3
    2924:	6d660b00 	vstmdbvs	r6!, {d16-d15}
    2928:	06010074 			; <UNDEFINED> instruction: 0x06010074
    292c:	000000ae 	andeq	r0, r0, lr, lsr #1
    2930:	0c709102 	ldfeqp	f1, [r0], #-8
    2934:	6675620d 	ldrbtvs	r6, [r5], -sp, lsl #4
    2938:	43080100 	movwmi	r0, #33024	; 0x8100
    293c:	05000001 	streq	r0, [r0, #-1]
    2940:	00a79803 	adceq	r9, r7, r3, lsl #16
    2944:	0acf0e00 	beq	ff3c614c <__bss_end__+0xff3bb5b4>
    2948:	09010000 	stmdbeq	r1, {}	; <UNPREDICTABLE>
    294c:	00000049 	andeq	r0, r0, r9, asr #32
    2950:	0f5c9102 	svceq	0x005c9102
    2954:	01007a73 	tsteq	r0, r3, ror sl
    2958:	0000540c 	andeq	r5, r0, ip, lsl #8
    295c:	0007b500 	andeq	fp, r7, r0, lsl #10
    2960:	92b41000 	adcsls	r1, r4, #0
    2964:	01740000 	cmneq	r4, r0
    2968:	01360000 	teqeq	r6, r0
    296c:	01110000 	tsteq	r1, r0
    2970:	4c910253 	lfmmi	f0, 4, [r1], {83}	; 0x53
    2974:	03520111 	cmpeq	r2, #1073741828	; 0x40000004
    2978:	11064891 			; <UNDEFINED> instruction: 0x11064891
    297c:	0a035101 	beq	d6d88 <__bss_end__+0xcc1f0>
    2980:	01110400 	tsteq	r1, r0, lsl #8
    2984:	00740250 	rsbseq	r0, r4, r0, asr r2
    2988:	92c81200 	sbcls	r1, r8, #0, 4
    298c:	01110000 	tsteq	r1, r0
    2990:	00740250 	rsbseq	r0, r4, r0, asr r2
    2994:	a7130000 	ldrge	r0, [r3, -r0]
    2998:	54000000 	strpl	r0, [r0], #-0
    299c:	14000001 	strne	r0, [r0], #-1
    29a0:	0000009a 	muleq	r0, sl, r0
    29a4:	150003ff 	strne	r0, [r0, #-1023]	; 0x3ff
    29a8:	00000054 	andeq	r0, r0, r4, asr r0
    29ac:	00000163 	andeq	r0, r0, r3, ror #2
    29b0:	0000ae16 	andeq	sl, r0, r6, lsl lr
    29b4:	70170000 	andsvc	r0, r7, r0
    29b8:	04000006 	streq	r0, [r0], #-6
    29bc:	00016e22 	andeq	r6, r1, r2, lsr #28
    29c0:	54040800 	strpl	r0, [r4], #-2048	; 0x800
    29c4:	18000001 	stmdane	r0, {r0}
    29c8:	000005b9 			; <UNDEFINED> instruction: 0x000005b9
    29cc:	00540205 	subseq	r0, r4, r5, lsl #4
    29d0:	a1160000 	tstge	r6, r0
    29d4:	16000000 	strne	r0, [r0], -r0
    29d8:	00000054 	andeq	r0, r0, r4, asr r0
    29dc:	0000ae16 	andeq	sl, r0, r6, lsl lr
    29e0:	00491600 	subeq	r1, r9, r0, lsl #12
    29e4:	00000000 	andeq	r0, r0, r0
    29e8:	00000113 	andeq	r0, r0, r3, lsl r1
    29ec:	094a0004 	stmdbeq	sl, {r2}^
    29f0:	01040000 	mrseq	r0, (UNDEF: 4)
    29f4:	00000562 	andeq	r0, r0, r2, ror #10
    29f8:	00063f01 	andeq	r3, r6, r1, lsl #30
    29fc:	0005cd00 	andeq	ip, r5, r0, lsl #26
    2a00:	0092e400 	addseq	lr, r2, r0, lsl #8
    2a04:	00003c00 	andeq	r3, r0, r0, lsl #24
    2a08:	0007e600 	andeq	lr, r7, r0, lsl #12
    2a0c:	05040200 	streq	r0, [r4, #-512]	; 0x200
    2a10:	00746e69 	rsbseq	r6, r4, r9, ror #28
    2a14:	9e070403 	cdpls	4, 0, cr0, cr7, cr3, {0}
    2a18:	03000000 	movweq	r0, #0
    2a1c:	017e0601 	cmneq	lr, r1, lsl #12
    2a20:	02030000 	andeq	r0, r3, #0
    2a24:	0001a105 	andeq	sl, r1, r5, lsl #2
    2a28:	05040300 	streq	r0, [r4, #-768]	; 0x300
    2a2c:	000000b0 	strheq	r0, [r0], -r0	; <UNPREDICTABLE>
    2a30:	ab050803 	blge	144a44 <__bss_end__+0x139eac>
    2a34:	03000000 	movweq	r0, #0
    2a38:	017c0801 	cmneq	ip, r1, lsl #16
    2a3c:	02030000 	andeq	r0, r3, #0
    2a40:	0000f007 	andeq	pc, r0, r7
    2a44:	07040300 	streq	r0, [r4, -r0, lsl #6]
    2a48:	00000099 	muleq	r0, r9, r0
    2a4c:	94070803 	strls	r0, [r7], #-2051	; 0x803
    2a50:	03000000 	movweq	r0, #0
    2a54:	01210704 	teqeq	r1, r4, lsl #14
    2a58:	01030000 	mrseq	r0, (UNDEF: 3)
    2a5c:	00018508 	andeq	r8, r1, r8, lsl #10
    2a60:	06220400 	strteq	r0, [r2], -r0, lsl #8
    2a64:	03010000 	movweq	r0, #4096	; 0x1000
    2a68:	00000025 	andeq	r0, r0, r5, lsr #32
    2a6c:	000092e4 	andeq	r9, r0, r4, ror #5
    2a70:	00000014 	andeq	r0, r0, r4, lsl r0
    2a74:	00b09c01 	adcseq	r9, r0, r1, lsl #24
    2a78:	63050000 	movwvs	r0, #20480	; 0x5000
    2a7c:	25030100 	strcs	r0, [r3, #-256]	; 0x100
    2a80:	de000000 	cdple	0, 0, cr0, cr0, cr0, {0}
    2a84:	06000007 	streq	r0, [r0], -r7
    2a88:	000092f0 	strdeq	r9, [r0], -r0
    2a8c:	00000109 	andeq	r0, r0, r9, lsl #2
    2a90:	02500107 	subseq	r0, r0, #-1073741823	; 0xc0000001
    2a94:	00000074 	andeq	r0, r0, r4, ror r0
    2a98:	0000d408 	andeq	sp, r0, r8, lsl #8
    2a9c:	f8080100 			; <UNDEFINED> instruction: 0xf8080100
    2aa0:	18000092 	stmdane	r0, {r1, r4, r7}
    2aa4:	01000000 	mrseq	r0, (UNDEF: 0)
    2aa8:	064e099c 			; <UNDEFINED> instruction: 0x064e099c
    2aac:	0b010000 	bleq	42ab4 <__bss_end__+0x37f1c>
    2ab0:	00009310 	andeq	r9, r0, r0, lsl r3
    2ab4:	00000010 	andeq	r0, r0, r0, lsl r0
    2ab8:	00e39c01 	rsceq	r9, r3, r1, lsl #24
    2abc:	660a0000 	strvs	r0, [sl], -r0
    2ac0:	0b010070 	bleq	42c88 <__bss_end__+0x380f0>
    2ac4:	000000f2 	strdeq	r0, [r0], -r2
    2ac8:	0b005001 	bleq	16ad4 <__bss_end__+0xbf3c>
    2acc:	00000025 	andeq	r0, r0, r5, lsr #32
    2ad0:	000000f2 	strdeq	r0, [r0], -r2
    2ad4:	0000250c 	andeq	r2, r0, ip, lsl #10
    2ad8:	040d0000 	streq	r0, [sp], #-0
    2adc:	000000e3 	andeq	r0, r0, r3, ror #1
    2ae0:	0006330e 	andeq	r3, r6, lr, lsl #6
    2ae4:	f2060100 	vrhadd.s8	d0, d6, d0
    2ae8:	05000000 	streq	r0, [r0, #-0]
    2aec:	009e9803 	addseq	r9, lr, r3, lsl #16
    2af0:	06180f00 	ldreq	r0, [r8], -r0, lsl #30
    2af4:	3c020000 	stccc	0, cr0, [r2], {-0}
    2af8:	00002c0c 	andeq	r2, r0, ip, lsl #24
    2afc:	ee000000 	cdp	0, 0, cr0, cr0, cr0, {0}
    2b00:	04000000 	streq	r0, [r0], #-0
    2b04:	000a3200 	andeq	r3, sl, r0, lsl #4
    2b08:	62010400 	andvs	r0, r1, #0, 8
    2b0c:	01000005 	tsteq	r0, r5
    2b10:	0000065b 	andeq	r0, r0, fp, asr r6
    2b14:	000005cd 	andeq	r0, r0, sp, asr #11
    2b18:	00009320 	andeq	r9, r0, r0, lsr #6
    2b1c:	00000034 	andeq	r0, r0, r4, lsr r0
    2b20:	0000087e 	andeq	r0, r0, lr, ror r8
    2b24:	69050402 	stmdbvs	r5, {r1, sl}
    2b28:	0300746e 	movweq	r7, #1134	; 0x46e
    2b2c:	009e0704 	addseq	r0, lr, r4, lsl #14
    2b30:	01030000 	mrseq	r0, (UNDEF: 3)
    2b34:	00017e06 	andeq	r7, r1, r6, lsl #28
    2b38:	05020300 	streq	r0, [r2, #-768]	; 0x300
    2b3c:	000001a1 	andeq	r0, r0, r1, lsr #3
    2b40:	b0050403 	andlt	r0, r5, r3, lsl #8
    2b44:	03000000 	movweq	r0, #0
    2b48:	00ab0508 	adceq	r0, fp, r8, lsl #10
    2b4c:	01030000 	mrseq	r0, (UNDEF: 3)
    2b50:	00017c08 	andeq	r7, r1, r8, lsl #24
    2b54:	07020300 	streq	r0, [r2, -r0, lsl #6]
    2b58:	000000f0 	strdeq	r0, [r0], -r0	; <UNPREDICTABLE>
    2b5c:	99070403 	stmdbls	r7, {r0, r1, sl}
    2b60:	03000000 	movweq	r0, #0
    2b64:	00940708 	addseq	r0, r4, r8, lsl #14
    2b68:	04030000 	streq	r0, [r3], #-0
    2b6c:	00012107 	andeq	r2, r1, r7, lsl #2
    2b70:	08010300 	stmdaeq	r1, {r8, r9}
    2b74:	00000185 	andeq	r0, r0, r5, lsl #3
    2b78:	007f0404 	rsbseq	r0, pc, r4, lsl #8
    2b7c:	72050000 	andvc	r0, r5, #0
    2b80:	06000000 	streq	r0, [r0], -r0
    2b84:	00000667 	andeq	r0, r0, r7, ror #12
    2b88:	00250401 	eoreq	r0, r5, r1, lsl #8
    2b8c:	93200000 	teqls	r0, #0
    2b90:	00340000 	eorseq	r0, r4, r0
    2b94:	9c010000 	stcls	0, cr0, [r1], {-0}
    2b98:	000000ab 	andeq	r0, r0, fp, lsr #1
    2b9c:	01007007 	tsteq	r0, r7
    2ba0:	00007904 	andeq	r7, r0, r4, lsl #18
    2ba4:	0007fc00 	andeq	pc, r7, r0, lsl #24
    2ba8:	25080000 	strcs	r0, [r8, #-0]
    2bac:	ba000000 	blt	2bb4 <__code_start__-0x544c>
    2bb0:	09000000 	stmdbeq	r0, {}	; <UNPREDICTABLE>
    2bb4:	00000025 	andeq	r0, r0, r5, lsr #32
    2bb8:	06330a00 	ldrteq	r0, [r3], -r0, lsl #20
    2bbc:	1d020000 	stcne	0, cr0, [r2, #-0]
    2bc0:	000000c5 	andeq	r0, r0, r5, asr #1
    2bc4:	00ab0404 	adceq	r0, fp, r4, lsl #8
    2bc8:	25080000 	strcs	r0, [r8, #-0]
    2bcc:	da000000 	ble	2bd4 <__code_start__-0x542c>
    2bd0:	09000000 	stmdbeq	r0, {}	; <UNPREDICTABLE>
    2bd4:	00000079 	andeq	r0, r0, r9, ror r0
    2bd8:	06700b00 	ldrbteq	r0, [r0], -r0, lsl #22
    2bdc:	0c010000 	stceq	0, cr0, [r1], {-0}
    2be0:	000000eb 	andeq	r0, r0, fp, ror #1
    2be4:	9e9c0305 	cdpls	3, 9, cr0, cr12, cr5, {0}
    2be8:	04040000 	streq	r0, [r4], #-0
    2bec:	000000cb 	andeq	r0, r0, fp, asr #1
    2bf0:	0006e500 	andeq	lr, r6, r0, lsl #10
    2bf4:	cb000400 	blgt	3bfc <__code_start__-0x4404>
    2bf8:	0400000a 	streq	r0, [r0], #-10
    2bfc:	00056201 	andeq	r6, r5, r1, lsl #4
    2c00:	06a60100 	strteq	r0, [r6], r0, lsl #2
    2c04:	05cd0000 	strbeq	r0, [sp]
    2c08:	93540000 	cmpls	r4, #0
    2c0c:	05780000 	ldrbeq	r0, [r8, #-0]!
    2c10:	09220000 	stmdbeq	r2!, {}	; <UNPREDICTABLE>
    2c14:	04020000 	streq	r0, [r2], #-0
    2c18:	746e6905 	strbtvc	r6, [lr], #-2309	; 0x905
    2c1c:	07040300 	streq	r0, [r4, -r0, lsl #6]
    2c20:	0000009e 	muleq	r0, lr, r0
    2c24:	7e060103 	adfvcs	f0, f6, f3
    2c28:	03000001 	movweq	r0, #1
    2c2c:	01a10502 			; <UNDEFINED> instruction: 0x01a10502
    2c30:	04030000 	streq	r0, [r3], #-0
    2c34:	0000b005 	andeq	fp, r0, r5
    2c38:	05080300 	streq	r0, [r8, #-768]	; 0x300
    2c3c:	000000ab 	andeq	r0, r0, fp, lsr #1
    2c40:	7c080103 	stfvcs	f0, [r8], {3}
    2c44:	03000001 	movweq	r0, #1
    2c48:	00f00702 	rscseq	r0, r0, r2, lsl #14
    2c4c:	04030000 	streq	r0, [r3], #-0
    2c50:	00009907 	andeq	r9, r0, r7, lsl #18
    2c54:	07080300 	streq	r0, [r8, -r0, lsl #6]
    2c58:	00000094 	muleq	r0, r4, r0
    2c5c:	21070403 	tstcs	r7, r3, lsl #8
    2c60:	04000001 	streq	r0, [r0], #-1
    2c64:	7a040504 	bvc	10407c <__bss_end__+0xf94e4>
    2c68:	03000000 	movweq	r0, #0
    2c6c:	01850801 	orreq	r0, r5, r1, lsl #16
    2c70:	04050000 	streq	r0, [r5], #-0
    2c74:	00000087 	andeq	r0, r0, r7, lsl #1
    2c78:	00007a06 	andeq	r7, r0, r6, lsl #20
    2c7c:	05450700 	strbeq	r0, [r5, #-1792]	; 0x700
    2c80:	28020000 	stmdacs	r2, {}	; <UNPREDICTABLE>
    2c84:	00000097 	muleq	r0, r7, r0
    2c88:	0005c308 	andeq	ip, r5, r8, lsl #6
    2c8c:	00040400 	andeq	r0, r4, r0, lsl #8
    2c90:	000000ae 	andeq	r0, r0, lr, lsr #1
    2c94:	00061309 	andeq	r1, r6, r9, lsl #6
    2c98:	00007200 	andeq	r7, r0, r0, lsl #4
    2c9c:	07000000 	streq	r0, [r0, -r0]
    2ca0:	000005c5 	andeq	r0, r0, r5, asr #11
    2ca4:	008c6202 	addeq	r6, ip, r2, lsl #4
    2ca8:	8d0a0000 	stchi	0, cr0, [sl, #-0]
    2cac:	01000006 	tsteq	r0, r6
    2cb0:	00002527 	andeq	r2, r0, r7, lsr #10
    2cb4:	00935400 	addseq	r5, r3, r0, lsl #8
    2cb8:	00001400 	andeq	r1, r0, r0, lsl #8
    2cbc:	e09c0100 	adds	r0, ip, r0, lsl #2
    2cc0:	0b000000 	bleq	2cc8 <__code_start__-0x5338>
    2cc4:	27010063 	strcs	r0, [r1, -r3, rrx]
    2cc8:	00000025 	andeq	r0, r0, r5, lsr #32
    2ccc:	0000081a 	andeq	r0, r0, sl, lsl r8
    2cd0:	61700c00 	cmnvs	r0, r0, lsl #24
    2cd4:	2e010064 	cdpcs	0, 0, cr0, cr1, cr4, {3}
    2cd8:	00000074 	andeq	r0, r0, r4, ror r0
    2cdc:	00009368 	andeq	r9, r0, r8, ror #6
    2ce0:	0000002c 	andeq	r0, r0, ip, lsr #32
    2ce4:	01309c01 	teqeq	r0, r1, lsl #24
    2ce8:	700b0000 	andvc	r0, fp, r0
    2cec:	742e0100 	strtvc	r0, [lr], #-256	; 0x100
    2cf0:	48000000 	stmdami	r0, {}	; <UNPREDICTABLE>
    2cf4:	0d000008 	stceq	0, cr0, [r0, #-32]	; 0xffffffe0
    2cf8:	00000aad 	andeq	r0, r0, sp, lsr #21
    2cfc:	00742e01 	rsbseq	r2, r4, r1, lsl #28
    2d00:	08730000 	ldmdaeq	r3!, {}^	; <UNPREDICTABLE>
    2d04:	c60e0000 	strgt	r0, [lr], -r0
    2d08:	01000006 	tsteq	r0, r6
    2d0c:	0000252e 	andeq	r2, r0, lr, lsr #10
    2d10:	0f520100 	svceq	0x00520100
    2d14:	006e656c 	rsbeq	r6, lr, ip, ror #10
    2d18:	00252f01 	eoreq	r2, r5, r1, lsl #30
    2d1c:	51010000 	mrspl	r0, (UNDEF: 1)
    2d20:	06850a00 	streq	r0, [r5], r0, lsl #20
    2d24:	37010000 	strcc	r0, [r1, -r0]
    2d28:	00000074 	andeq	r0, r0, r4, ror r0
    2d2c:	00009394 	muleq	r0, r4, r3
    2d30:	00000040 	andeq	r0, r0, r0, asr #32
    2d34:	019c9c01 	orrseq	r9, ip, r1, lsl #24
    2d38:	640b0000 	strvs	r0, [fp], #-0
    2d3c:	01007473 	tsteq	r0, r3, ror r4
    2d40:	00007437 	andeq	r7, r0, r7, lsr r4
    2d44:	00089400 	andeq	r9, r8, r0, lsl #8
    2d48:	006e0b00 	rsbeq	r0, lr, r0, lsl #22
    2d4c:	00253701 	eoreq	r3, r5, r1, lsl #14
    2d50:	08cc0000 	stmiaeq	ip, {}^	; <UNPREDICTABLE>
    2d54:	700b0000 	andvc	r0, fp, r0
    2d58:	74370100 	ldrtvc	r0, [r7], #-256	; 0x100
    2d5c:	ed000000 	stc	0, cr0, [r0, #-0]
    2d60:	0d000008 	stceq	0, cr0, [r0, #-32]	; 0xffffffe0
    2d64:	00000679 	andeq	r0, r0, r9, ror r6
    2d68:	00743701 	rsbseq	r3, r4, r1, lsl #14
    2d6c:	09230000 	stmdbeq	r3!, {}	; <UNPREDICTABLE>
    2d70:	6c100000 	ldcvs	0, cr0, [r0], {-0}
    2d74:	01006e65 	tsteq	r0, r5, ror #28
    2d78:	00002539 	andeq	r2, r0, r9, lsr r5
    2d7c:	00094100 	andeq	r4, r9, r0, lsl #2
    2d80:	00730f00 	rsbseq	r0, r3, r0, lsl #30
    2d84:	00743d01 	rsbseq	r3, r4, r1, lsl #26
    2d88:	50010000 	andpl	r0, r1, r0
    2d8c:	06d40a00 	ldrbeq	r0, [r4], r0, lsl #20
    2d90:	47010000 	strmi	r0, [r1, -r0]
    2d94:	00000074 	andeq	r0, r0, r4, ror r0
    2d98:	000093d4 	ldrdeq	r9, [r0], -r4
    2d9c:	000001bc 			; <UNDEFINED> instruction: 0x000001bc
    2da0:	02df9c01 	sbcseq	r9, pc, #256	; 0x100
    2da4:	ad0d0000 	stcge	0, cr0, [sp, #-0]
    2da8:	0100000a 	tsteq	r0, sl
    2dac:	00002c47 	andeq	r2, r0, r7, asr #24
    2db0:	00096800 	andeq	r6, r9, r0, lsl #16
    2db4:	73640b00 	cmnvc	r4, #0, 22
    2db8:	47010074 	smlsdxmi	r1, r4, r0, r0
    2dbc:	00000074 	andeq	r0, r0, r4, ror r0
    2dc0:	00000996 	muleq	r0, r6, r9
    2dc4:	01006e0b 	tsteq	r0, fp, lsl #28
    2dc8:	00002547 	andeq	r2, r0, r7, asr #10
    2dcc:	000a0400 	andeq	r0, sl, r0, lsl #8
    2dd0:	61760b00 	cmnvs	r6, r0, lsl #22
    2dd4:	4701006c 	strmi	r0, [r1, -ip, rrx]
    2dd8:	00000025 	andeq	r0, r0, r5, lsr #32
    2ddc:	00000a30 	andeq	r0, r0, r0, lsr sl
    2de0:	0006c60d 	andeq	ip, r6, sp, lsl #12
    2de4:	25470100 	strbcs	r0, [r7, #-256]	; 0x100
    2de8:	af000000 	svcge	0x00000000
    2dec:	0e00000a 	cdpeq	0, 0, cr0, cr0, cr10, {0}
    2df0:	0000069d 	muleq	r0, sp, r6
    2df4:	00254701 	eoreq	r4, r5, r1, lsl #14
    2df8:	91020000 	mrsls	r0, (UNDEF: 2)
    2dfc:	75620f04 	strbvc	r0, [r2, #-3844]!	; 0xf04
    2e00:	4c010066 	stcmi	0, cr0, [r1], {102}	; 0x66
    2e04:	000002df 	ldrdeq	r0, [r0], -pc	; <UNPREDICTABLE>
    2e08:	7fa89103 	svcvc	0x00a89103
    2e0c:	01007010 	tsteq	r0, r0, lsl r0
    2e10:	0000744c 	andeq	r7, r0, ip, asr #8
    2e14:	000ad900 	andeq	sp, sl, r0, lsl #18
    2e18:	00751000 	rsbseq	r1, r5, r0
    2e1c:	002c4d01 	eoreq	r4, ip, r1, lsl #26
    2e20:	0bc30000 	bleq	ff0c2e28 <__bss_end__+0xff0b8290>
    2e24:	e3110000 	tst	r1, #0
    2e28:	ff000000 			; <UNDEFINED> instruction: 0xff000000
    2e2c:	05000002 	streq	r0, [r0, #-2]
    2e30:	00a56403 	adceq	r6, r5, r3, lsl #8
    2e34:	94401200 	strbls	r1, [r0], #-512	; 0x200
    2e38:	00740000 	rsbseq	r0, r4, r0
    2e3c:	02610000 	rsbeq	r0, r1, #0
    2e40:	7f130000 	svcvc	0x00130000
    2e44:	01000006 	tsteq	r0, r6
    2e48:	00002c52 	andeq	r2, r0, r2, asr ip
    2e4c:	000c8600 	andeq	r8, ip, r0, lsl #12
    2e50:	2c140000 	ldccs	0, cr0, [r4], {-0}
    2e54:	c4000095 	strgt	r0, [r0], #-149	; 0x95
    2e58:	15000006 	strne	r0, [r0, #-6]
    2e5c:	00009548 	andeq	r9, r0, r8, asr #10
    2e60:	000006cb 	andeq	r0, r0, fp, asr #13
    2e64:	000002a3 	andeq	r0, r0, r3, lsr #5
    2e68:	02530116 	subseq	r0, r3, #-2147483643	; 0x80000005
    2e6c:	01167708 	tsteq	r6, r8, lsl #14
    2e70:	64030552 	strvs	r0, [r3], #-1362	; 0x552
    2e74:	160000a5 	strne	r0, [r0], -r5, lsr #1
    2e78:	03055101 	movweq	r5, #20737	; 0x5101
    2e7c:	0000a588 	andeq	sl, r0, r8, lsl #11
    2e80:	05500116 	ldrbeq	r0, [r0, #-278]	; 0x116
    2e84:	009ea003 	addseq	sl, lr, r3
    2e88:	7d021600 	stcvc	6, cr1, [r2, #-0]
    2e8c:	9c030500 	cfstr32ls	mvfx0, [r3], {-0}
    2e90:	000000a5 	andeq	r0, r0, r5, lsr #1
    2e94:	00954c14 	addseq	r4, r5, r4, lsl ip
    2e98:	0006e100 	andeq	lr, r6, r0, lsl #2
    2e9c:	95541500 	ldrbls	r1, [r4, #-1280]	; 0x500
    2ea0:	00e00000 	rsceq	r0, r0, r0
    2ea4:	02c10000 	sbceq	r0, r1, #0
    2ea8:	01160000 	tsteq	r6, r0
    2eac:	a0910351 	addsge	r0, r1, r1, asr r3
    2eb0:	6817007f 	ldmdavs	r7, {r0, r1, r2, r3, r4, r5, r6}
    2eb4:	30000095 	mulcc	r0, r5, r0
    2eb8:	16000001 	strne	r0, [r0], -r1
    2ebc:	91035301 	tstls	r3, r1, lsl #6
    2ec0:	01167fa0 	tsteq	r6, r0, lsr #31
    2ec4:	00740251 	rsbseq	r0, r4, r1, asr r2
    2ec8:	02500116 	subseq	r0, r0, #-2147483643	; 0x80000005
    2ecc:	00000075 	andeq	r0, r0, r5, ror r0
    2ed0:	00007a18 	andeq	r7, r0, r8, lsl sl
    2ed4:	0002ef00 	andeq	lr, r2, r0, lsl #30
    2ed8:	006b1900 	rsbeq	r1, fp, r0, lsl #18
    2edc:	003f0000 	eorseq	r0, pc, r0
    2ee0:	00007a18 	andeq	r7, r0, r8, lsl sl
    2ee4:	0002ff00 	andeq	pc, r2, r0, lsl #30
    2ee8:	006b1900 	rsbeq	r1, fp, r0, lsl #18
    2eec:	00040000 	andeq	r0, r4, r0
    2ef0:	0002ef06 	andeq	lr, r2, r6, lsl #30
    2ef4:	06b71a00 	ldrteq	r1, [r7], r0, lsl #20
    2ef8:	1f010000 	svcne	0x00010000
    2efc:	00009590 	muleq	r0, r0, r5
    2f00:	00000068 	andeq	r0, r0, r8, rrx
    2f04:	03929c01 	orrseq	r9, r2, #256	; 0x100
    2f08:	cc0d0000 	stcgt	0, cr0, [sp], {-0}
    2f0c:	01000006 	tsteq	r0, r6
    2f10:	0003a11f 	andeq	sl, r3, pc, lsl r1
    2f14:	000cb200 	andeq	fp, ip, r0, lsl #4
    2f18:	06950d00 	ldreq	r0, [r5], r0, lsl #26
    2f1c:	1f010000 	svcne	0x00010000
    2f20:	000003b6 			; <UNDEFINED> instruction: 0x000003b6
    2f24:	00000cde 	ldrdeq	r0, [r0], -lr
    2f28:	0000e311 	andeq	lr, r0, r1, lsl r3
    2f2c:	0003cc00 	andeq	ip, r3, r0, lsl #24
    2f30:	6c030500 	cfstr32vs	mvfx0, [r3], {-0}
    2f34:	140000a5 	strne	r0, [r0], #-165	; 0xa5
    2f38:	000095a4 	andeq	r9, r0, r4, lsr #11
    2f3c:	000006c4 	andeq	r0, r0, r4, asr #13
    2f40:	0095c015 	addseq	ip, r5, r5, lsl r0
    2f44:	0006cb00 	andeq	ip, r6, r0, lsl #22
    2f48:	00038800 	andeq	r8, r3, r0, lsl #16
    2f4c:	53011600 	movwpl	r1, #5632	; 0x1600
    2f50:	16200802 	strtne	r0, [r0], -r2, lsl #16
    2f54:	03055201 	movweq	r5, #20993	; 0x5201
    2f58:	0000a56c 	andeq	sl, r0, ip, ror #10
    2f5c:	05510116 	ldrbeq	r0, [r1, #-278]	; 0x116
    2f60:	00a58803 	adceq	r8, r5, r3, lsl #16
    2f64:	50011600 	andpl	r1, r1, r0, lsl #12
    2f68:	9ea00305 	cdpls	3, 10, cr0, cr0, cr5, {0}
    2f6c:	02160000 	andseq	r0, r6, #0
    2f70:	0305007d 	movweq	r0, #20605	; 0x507d
    2f74:	0000a5c4 	andeq	sl, r0, r4, asr #11
    2f78:	95c41400 	strbls	r1, [r4, #1024]	; 0x400
    2f7c:	06e10000 	strbteq	r0, [r1], r0
    2f80:	1b000000 	blne	2f88 <__code_start__-0x5078>
    2f84:	00000025 	andeq	r0, r0, r5, lsr #32
    2f88:	000003a1 	andeq	r0, r0, r1, lsr #7
    2f8c:	0000251c 	andeq	r2, r0, ip, lsl r5
    2f90:	04050000 	streq	r0, [r5], #-0
    2f94:	00000392 	muleq	r0, r2, r3
    2f98:	0000251b 	andeq	r2, r0, fp, lsl r5
    2f9c:	0003b600 	andeq	fp, r3, r0, lsl #12
    2fa0:	00811c00 	addeq	r1, r1, r0, lsl #24
    2fa4:	05000000 	streq	r0, [r0, #-0]
    2fa8:	0003a704 	andeq	sl, r3, r4, lsl #14
    2fac:	007a1800 	rsbseq	r1, sl, r0, lsl #16
    2fb0:	03cc0000 	biceq	r0, ip, #0
    2fb4:	6b190000 	blvs	642fbc <__bss_end__+0x638424>
    2fb8:	0e000000 	cdpeq	0, 0, cr0, cr0, cr0, {0}
    2fbc:	03bc0600 			; <UNDEFINED> instruction: 0x03bc0600
    2fc0:	b91d0000 	ldmdblt	sp, {}	; <UNPREDICTABLE>
    2fc4:	01000005 	tsteq	r0, r5
    2fc8:	0000257f 	andeq	r2, r0, pc, ror r5
    2fcc:	0095f800 	addseq	pc, r5, r0, lsl #16
    2fd0:	0002d400 	andeq	sp, r2, r0, lsl #8
    2fd4:	899c0100 	ldmibhi	ip, {r8}
    2fd8:	0b000006 	bleq	2ff8 <__code_start__-0x5008>
    2fdc:	00667562 	rsbeq	r7, r6, r2, ror #10
    2fe0:	00747f01 	rsbseq	r7, r4, r1, lsl #30
    2fe4:	0d0a0000 	stceq	0, cr0, [sl, #-0]
    2fe8:	6e0b0000 	cdpvs	0, 0, cr0, cr11, cr0, {0}
    2fec:	257f0100 	ldrbcs	r0, [pc, #-256]!	; 2ef4 <__code_start__-0x510c>
    2ff0:	36000000 	strcc	r0, [r0], -r0
    2ff4:	0b00000d 	bleq	3030 <__code_start__-0x4fd0>
    2ff8:	00746d66 	rsbseq	r6, r4, r6, ror #26
    2ffc:	00817f01 	addeq	r7, r1, r1, lsl #30
    3000:	0d640000 	stcleq	0, cr0, [r4, #-0]
    3004:	cf0d0000 	svcgt	0x000d0000
    3008:	0100000a 	tsteq	r0, sl
    300c:	0000ae7f 	andeq	sl, r0, pc, ror lr
    3010:	000d8200 	andeq	r8, sp, r0, lsl #4
    3014:	00701000 	rsbseq	r1, r0, r0
    3018:	00748001 	rsbseq	r8, r4, r1
    301c:	0d950000 	ldceq	0, cr0, [r5]
    3020:	65100000 	ldrvs	r0, [r0, #-0]
    3024:	74800100 	strvc	r0, [r0], #256	; 0x100
    3028:	13000000 	movwne	r0, #0
    302c:	1300000e 	movwne	r0, #14
    3030:	00000675 	andeq	r0, r0, r5, ror r6
    3034:	00818301 	addeq	r8, r1, r1, lsl #6
    3038:	0e3a0000 	cdpeq	0, 3, cr0, cr10, cr0, {0}
    303c:	e3110000 	tst	r1, #0
    3040:	99000000 	stmdbls	r0, {}	; <UNPREDICTABLE>
    3044:	05000006 	streq	r0, [r0, #-6]
    3048:	00a57c03 	adceq	r7, r5, r3, lsl #24
    304c:	96541e00 	ldrbls	r1, [r4], -r0, lsl #28
    3050:	022c0000 	eoreq	r0, ip, #0
    3054:	73100000 	tstvc	r0, #0
    3058:	748e0100 	strvc	r0, [lr], #256	; 0x100
    305c:	5a000000 	bpl	3064 <__code_start__-0x4f9c>
    3060:	0f00000e 	svceq	0x0000000e
    3064:	006d756e 	rsbeq	r7, sp, lr, ror #10
    3068:	069e8e01 	ldreq	r8, [lr], r1, lsl #28
    306c:	91030000 	mrsls	r0, (UNDEF: 3)
    3070:	c6137ed8 			; <UNDEFINED> instruction: 0xc6137ed8
    3074:	01000006 	tsteq	r0, r6
    3078:	00002c8f 	andeq	r2, r0, pc, lsl #25
    307c:	000eaf00 	andeq	sl, lr, r0, lsl #30
    3080:	96841500 	strls	r1, [r4], r0, lsl #10
    3084:	00b90000 	adcseq	r0, r9, r0
    3088:	04a40000 	strteq	r0, [r4], #0
    308c:	01160000 	tsteq	r6, r0
    3090:	00750250 	rsbseq	r0, r5, r0, asr r2
    3094:	96981400 	ldrls	r1, [r8], r0, lsl #8
    3098:	06c40000 	strbeq	r0, [r4], r0
    309c:	b4150000 	ldrlt	r0, [r5], #-0
    30a0:	cb000096 	blgt	3300 <__code_start__-0x4d00>
    30a4:	e6000006 	str	r0, [r0], -r6
    30a8:	16000004 	strne	r0, [r0], -r4
    30ac:	08025301 	stmdaeq	r2, {r0, r8, r9, ip, lr}
    30b0:	52011695 	andpl	r1, r1, #156237824	; 0x9500000
    30b4:	a57c0305 	ldrbge	r0, [ip, #-773]!	; 0x305
    30b8:	01160000 	tsteq	r6, r0
    30bc:	88030551 	stmdahi	r3, {r0, r4, r6, r8, sl}
    30c0:	160000a5 	strne	r0, [r0], -r5, lsr #1
    30c4:	03055001 	movweq	r5, #20481	; 0x5001
    30c8:	00009ea0 	andeq	r9, r0, r0, lsr #29
    30cc:	007d0216 	rsbseq	r0, sp, r6, lsl r2
    30d0:	a5cc0305 	strbge	r0, [ip, #773]	; 0x305
    30d4:	14000000 	strne	r0, [r0], #-0
    30d8:	000096b8 			; <UNDEFINED> instruction: 0x000096b8
    30dc:	000006e1 	andeq	r0, r0, r1, ror #13
    30e0:	00972814 	addseq	r2, r7, r4, lsl r8
    30e4:	0006c400 	andeq	ip, r6, r0, lsl #8
    30e8:	973c1500 	ldrls	r1, [ip, -r0, lsl #10]!
    30ec:	06cb0000 	strbeq	r0, [fp], r0
    30f0:	05270000 	streq	r0, [r7, #-0]!
    30f4:	01160000 	tsteq	r6, r0
    30f8:	9b080253 	blls	203a4c <__bss_end__+0x1f8eb4>
    30fc:	05520116 	ldrbeq	r0, [r2, #-278]	; 0x116
    3100:	00a57c03 	adceq	r7, r5, r3, lsl #24
    3104:	51011600 	tstpl	r1, r0, lsl #12
    3108:	a5880305 	strge	r0, [r8, #773]	; 0x305
    310c:	01160000 	tsteq	r6, r0
    3110:	d8030550 	stmdale	r3, {r4, r6, r8, sl}
    3114:	000000a5 	andeq	r0, r0, r5, lsr #1
    3118:	00974014 	addseq	r4, r7, r4, lsl r0
    311c:	0006e100 	andeq	lr, r6, r0, lsl #2
    3120:	97641500 	strbls	r1, [r4, -r0, lsl #10]!
    3124:	019c0000 	orrseq	r0, ip, r0
    3128:	055d0000 	ldrbeq	r0, [sp, #-0]
    312c:	01160000 	tsteq	r6, r0
    3130:	80080252 	andhi	r0, r8, r2, asr r2
    3134:	03510116 	cmpeq	r1, #-2147483643	; 0x80000005
    3138:	167ed091 			; <UNDEFINED> instruction: 0x167ed091
    313c:	3a015001 	bcc	57148 <__bss_end__+0x4c5b0>
    3140:	047d0216 	ldrbteq	r0, [sp], #-534	; 0x216
    3144:	02163101 	andseq	r3, r6, #1073741824	; 0x40000000
    3148:	7702007d 	smlsdxvc	r2, sp, r0, r0
    314c:	8c150000 	ldchi	0, cr0, [r5], {-0}
    3150:	9c000097 	stcls	0, cr0, [r0], {151}	; 0x97
    3154:	8a000001 	bhi	3160 <__code_start__-0x4ea0>
    3158:	16000005 	strne	r0, [r0], -r5
    315c:	08025201 	stmdaeq	r2, {r0, r9, ip, lr}
    3160:	51011680 	smlabbpl	r1, r0, r6, r1
    3164:	7ed09103 	atnvcs	f1, f3
    3168:	01500116 	cmpeq	r0, r6, lsl r1
    316c:	7d02163a 	stcvc	6, cr1, [r2, #-232]	; 0xffffff18
    3170:	16300104 	ldrtne	r0, [r0], -r4, lsl #2
    3174:	02007d02 	andeq	r7, r0, #2, 26	; 0x80
    3178:	15000077 	strne	r0, [r0, #-119]	; 0x77
    317c:	000097b4 			; <UNDEFINED> instruction: 0x000097b4
    3180:	0000019c 	muleq	r0, ip, r1
    3184:	000005b7 			; <UNDEFINED> instruction: 0x000005b7
    3188:	02520116 	subseq	r0, r2, #-2147483643	; 0x80000005
    318c:	01168008 	tsteq	r6, r8
    3190:	d0910351 	addsle	r0, r1, r1, asr r3
    3194:	5001167e 	andpl	r1, r1, lr, ror r6
    3198:	02164001 	andseq	r4, r6, #1
    319c:	3001047d 	andcc	r0, r1, sp, ror r4
    31a0:	007d0216 	rsbseq	r0, sp, r6, lsl r2
    31a4:	00007702 	andeq	r7, r0, r2, lsl #14
    31a8:	0097dc15 	addseq	sp, r7, r5, lsl ip
    31ac:	00019c00 	andeq	r9, r1, r0, lsl #24
    31b0:	0005e400 	andeq	lr, r5, r0, lsl #8
    31b4:	52011600 	andpl	r1, r1, #0, 12
    31b8:	16800802 	strne	r0, [r0], r2, lsl #16
    31bc:	91035101 	tstls	r3, r1, lsl #2
    31c0:	01167ed0 			; <UNDEFINED> instruction: 0x01167ed0
    31c4:	16320150 			; <UNDEFINED> instruction: 0x16320150
    31c8:	01047d02 	tsteq	r4, r2, lsl #26
    31cc:	7d021630 	stcvc	6, cr1, [r2, #-192]	; 0xffffff40
    31d0:	00770200 	rsbseq	r0, r7, r0, lsl #4
    31d4:	98101500 	ldmdals	r0, {r8, sl, ip}
    31d8:	019c0000 	orrseq	r0, ip, r0
    31dc:	06110000 	ldreq	r0, [r1], -r0
    31e0:	01160000 	tsteq	r6, r0
    31e4:	80080252 	andhi	r0, r8, r2, asr r2
    31e8:	03510116 	cmpeq	r1, #-2147483643	; 0x80000005
    31ec:	167ed091 			; <UNDEFINED> instruction: 0x167ed091
    31f0:	38015001 	stmdacc	r1, {r0, ip, lr}
    31f4:	047d0216 	ldrbteq	r0, [sp], #-534	; 0x216
    31f8:	02163001 	andseq	r3, r6, #1
    31fc:	7702007d 	smlsdxvc	r2, sp, r0, r0
    3200:	2c150000 	ldccs	0, cr0, [r5], {-0}
    3204:	cb000098 	blgt	346c <__code_start__-0x4b94>
    3208:	34000006 	strcc	r0, [r0], #-6
    320c:	16000006 	strne	r0, [r0], -r6
    3210:	79025201 	stmdbvc	r2, {r0, r9, ip, lr}
    3214:	51011600 	tstpl	r1, r0, lsl #12
    3218:	16007902 	strne	r7, [r0], -r2, lsl #18
    321c:	03055001 	movweq	r5, #20481	; 0x5001
    3220:	0000a600 	andeq	sl, r0, r0, lsl #12
    3224:	983c1f00 	ldmdals	ip!, {r8, r9, sl, fp, ip}
    3228:	06460000 	strbeq	r0, [r6], -r0
    322c:	01160000 	tsteq	r6, r0
    3230:	cc910450 	cfldrsgt	mvf0, [r1], {80}	; 0x50
    3234:	1400067e 	strne	r0, [r0], #-1662	; 0x67e
    3238:	00009840 	andeq	r9, r0, r0, asr #16
    323c:	000006c4 	andeq	r0, r0, r4, asr #13
    3240:	00985415 	addseq	r5, r8, r5, lsl r4
    3244:	0006cb00 	andeq	ip, r6, r0, lsl #22
    3248:	00067e00 	andeq	r7, r6, r0, lsl #28
    324c:	53011600 	movwpl	r1, #5632	; 0x1600
    3250:	16bf0802 	ldrtne	r0, [pc], r2, lsl #16
    3254:	03055201 	movweq	r5, #20993	; 0x5201
    3258:	0000a57c 	andeq	sl, r0, ip, ror r5
    325c:	05510116 	ldrbeq	r0, [r1, #-278]	; 0x116
    3260:	00a58803 	adceq	r8, r5, r3, lsl #16
    3264:	50011600 	andpl	r1, r1, r0, lsl #12
    3268:	a6300305 	ldrtge	r0, [r0], -r5, lsl #6
    326c:	14000000 	strne	r0, [r0], #-0
    3270:	00009858 	andeq	r9, r0, r8, asr r8
    3274:	000006e1 	andeq	r0, r0, r1, ror #13
    3278:	7a180000 	bvc	603280 <__bss_end__+0x5f86e8>
    327c:	99000000 	stmdbls	r0, {}	; <UNPREDICTABLE>
    3280:	19000006 	stmdbne	r0, {r1, r2}
    3284:	0000006b 	andeq	r0, r0, fp, rrx
    3288:	89060009 	stmdbhi	r6, {r0, r3}
    328c:	18000006 	stmdane	r0, {r1, r2}
    3290:	0000007a 	andeq	r0, r0, sl, ror r0
    3294:	000006ae 	andeq	r0, r0, lr, lsr #13
    3298:	00006b19 	andeq	r6, r0, r9, lsl fp
    329c:	20007f00 	andcs	r7, r0, r0, lsl #30
    32a0:	00000633 	andeq	r0, r0, r3, lsr r6
    32a4:	03a11d03 			; <UNDEFINED> instruction: 0x03a11d03
    32a8:	70200000 	eorvc	r0, r0, r0
    32ac:	03000006 	movweq	r0, #6
    32b0:	0003b622 	andeq	fp, r3, r2, lsr #12
    32b4:	00d42100 	sbcseq	r2, r4, r0, lsl #2
    32b8:	1e030000 	cdpne	0, 0, cr0, cr3, cr0, {0}
    32bc:	0005bc22 	andeq	fp, r5, r2, lsr #24
    32c0:	25290300 	strcs	r0, [r9, #-768]!	; 0x300
    32c4:	e1000000 	mrs	r0, (UNDEF: 0)
    32c8:	1c000006 	stcne	0, cr0, [r0], {6}
    32cc:	00000081 	andeq	r0, r0, r1, lsl #1
    32d0:	14210023 	strtne	r0, [r1], #-35	; 0x23
    32d4:	03000001 	movweq	r0, #1
    32d8:	00b80065 	adcseq	r0, r8, r5, rrx
    32dc:	00040000 	andeq	r0, r4, r0
    32e0:	00000cb4 			; <UNDEFINED> instruction: 0x00000cb4
    32e4:	05620104 	strbeq	r0, [r2, #-260]!	; 0x104
    32e8:	e7010000 	str	r0, [r1, -r0]
    32ec:	cd000006 	stcgt	0, cr0, [r0, #-24]	; 0xffffffe8
    32f0:	cc000005 	stcgt	0, cr0, [r0], {5}
    32f4:	20000098 	mulcs	r0, r8, r0
    32f8:	17000000 	strne	r0, [r0, -r0]
    32fc:	0200000b 	andeq	r0, r0, #11
    3300:	6e690504 	cdpvs	5, 6, cr0, cr9, cr4, {0}
    3304:	04030074 	streq	r0, [r3], #-116	; 0x74
    3308:	00009e07 	andeq	r9, r0, r7, lsl #28
    330c:	06010300 	streq	r0, [r1], -r0, lsl #6
    3310:	0000017e 	andeq	r0, r0, lr, ror r1
    3314:	a1050203 	tstge	r5, r3, lsl #4
    3318:	03000001 	movweq	r0, #1
    331c:	00b00504 	adcseq	r0, r0, r4, lsl #10
    3320:	08030000 	stmdaeq	r3, {}	; <UNPREDICTABLE>
    3324:	0000ab05 	andeq	sl, r0, r5, lsl #22
    3328:	08010300 	stmdaeq	r1, {r8, r9}
    332c:	0000017c 	andeq	r0, r0, ip, ror r1
    3330:	f0070203 			; <UNDEFINED> instruction: 0xf0070203
    3334:	03000000 	movweq	r0, #0
    3338:	00990704 	addseq	r0, r9, r4, lsl #14
    333c:	08030000 	stmdaeq	r3, {}	; <UNPREDICTABLE>
    3340:	00009407 	andeq	r9, r0, r7, lsl #8
    3344:	07040300 	streq	r0, [r4, -r0, lsl #6]
    3348:	00000121 	andeq	r0, r0, r1, lsr #2
    334c:	85080103 	strhi	r0, [r8, #-259]	; 0x103
    3350:	04000001 	streq	r0, [r0], #-1
    3354:	000001fc 	strdeq	r0, [r0], -ip
    3358:	98cc0301 	stmials	ip, {r0, r8, r9}^
    335c:	00100000 	andseq	r0, r0, r0
    3360:	9c010000 	stcls	0, cr0, [r1], {-0}
    3364:	0000009c 	muleq	r0, ip, r0
    3368:	01007205 	tsteq	r0, r5, lsl #4
    336c:	00002c04 	andeq	r2, r0, r4, lsl #24
    3370:	000ed900 	andeq	sp, lr, r0, lsl #18
    3374:	d9060000 	stmdble	r6, {}	; <UNPREDICTABLE>
    3378:	01000006 	tsteq	r0, r6
    337c:	0098dc0c 	addseq	sp, r8, ip, lsl #24
    3380:	00001000 	andeq	r1, r0, r0
    3384:	059c0100 	ldreq	r0, [ip, #256]	; 0x100
    3388:	0d010072 	stceq	0, cr0, [r1, #-456]	; 0xfffffe38
    338c:	0000002c 	andeq	r0, r0, ip, lsr #32
    3390:	00000efd 	strdeq	r0, [r0], -sp
    3394:	010f0000 	mrseq	r0, CPSR
    3398:	00040000 	andeq	r0, r4, r0
    339c:	00000d1f 	andeq	r0, r0, pc, lsl sp
    33a0:	05620104 	strbeq	r0, [r2, #-260]!	; 0x104
    33a4:	08010000 	stmdaeq	r1, {}	; <UNPREDICTABLE>
    33a8:	cd000007 	stcgt	0, cr0, [r0, #-28]	; 0xffffffe4
    33ac:	ec000005 	stc	0, cr0, [r0], {5}
    33b0:	2c000098 	stccs	0, cr0, [r0], {152}	; 0x98
    33b4:	5d000000 	stcpl	0, cr0, [r0, #-0]
    33b8:	0200000b 	andeq	r0, r0, #11
    33bc:	6e690504 	cdpvs	5, 6, cr0, cr9, cr4, {0}
    33c0:	04030074 	streq	r0, [r3], #-116	; 0x74
    33c4:	00009e07 	andeq	r9, r0, r7, lsl #28
    33c8:	06010300 	streq	r0, [r1], -r0, lsl #6
    33cc:	0000017e 	andeq	r0, r0, lr, ror r1
    33d0:	a1050203 	tstge	r5, r3, lsl #4
    33d4:	03000001 	movweq	r0, #1
    33d8:	00b00504 	adcseq	r0, r0, r4, lsl #10
    33dc:	08030000 	stmdaeq	r3, {}	; <UNPREDICTABLE>
    33e0:	0000ab05 	andeq	sl, r0, r5, lsl #22
    33e4:	08010300 	stmdaeq	r1, {r8, r9}
    33e8:	0000017c 	andeq	r0, r0, ip, ror r1
    33ec:	f0070203 			; <UNDEFINED> instruction: 0xf0070203
    33f0:	03000000 	movweq	r0, #0
    33f4:	00990704 	addseq	r0, r9, r4, lsl #14
    33f8:	08030000 	stmdaeq	r3, {}	; <UNPREDICTABLE>
    33fc:	00009407 	andeq	r9, r0, r7, lsl #8
    3400:	07040300 	streq	r0, [r4, -r0, lsl #6]
    3404:	00000121 	andeq	r0, r0, r1, lsr #2
    3408:	85080103 	strhi	r0, [r8, #-259]	; 0x103
    340c:	04000001 	streq	r0, [r0], #-1
    3410:	00007f04 	andeq	r7, r0, r4, lsl #30
    3414:	00720500 	rsbseq	r0, r2, r0, lsl #10
    3418:	14060000 	strne	r0, [r6], #-0
    341c:	01000001 	tsteq	r0, r1
    3420:	0098ec04 	addseq	lr, r8, r4, lsl #24
    3424:	00002c00 	andeq	r2, r0, r0, lsl #24
    3428:	d39c0100 	orrsle	r0, ip, #0, 2
    342c:	07000000 	streq	r0, [r0, -r0]
    3430:	000098f4 	strdeq	r9, [r0], -r4
    3434:	000000f3 	strdeq	r0, [r0], -r3
    3438:	00990408 	addseq	r0, r9, r8, lsl #8
    343c:	0000b500 	andeq	fp, r0, r0, lsl #10
    3440:	50010900 	andpl	r0, r1, r0, lsl #18
    3444:	a6500305 	ldrbge	r0, [r0], -r5, lsl #6
    3448:	0a000000 	beq	3450 <__code_start__-0x4bb0>
    344c:	0000990c 	andeq	r9, r0, ip, lsl #18
    3450:	000000fa 	strdeq	r0, [r0], -sl
    3454:	000000c9 	andeq	r0, r0, r9, asr #1
    3458:	02500109 	subseq	r0, r0, #1073741826	; 0x40000002
    345c:	07006408 	streq	r6, [r0, -r8, lsl #8]
    3460:	00009910 	andeq	r9, r0, r0, lsl r9
    3464:	0000010b 	andeq	r0, r0, fp, lsl #2
    3468:	00250b00 	eoreq	r0, r5, r0, lsl #22
    346c:	00e20000 	rsceq	r0, r2, r0
    3470:	790c0000 	stmdbvc	ip, {}	; <UNPREDICTABLE>
    3474:	00000000 	andeq	r0, r0, r0
    3478:	0006700d 	andeq	r7, r6, sp
    347c:	ed220200 	sfm	f0, 4, [r2, #-0]
    3480:	04000000 	streq	r0, [r0], #-0
    3484:	0000d304 	andeq	sp, r0, r4, lsl #6
    3488:	06f90e00 	ldrbteq	r0, [r9], r0, lsl #28
    348c:	dc020000 	stcle	0, cr0, [r2], {-0}
    3490:	00072c0f 	andeq	r2, r7, pc, lsl #24
    3494:	0b4f0200 	bleq	13c3c9c <__bss_end__+0x13b9104>
    3498:	0c000001 	stceq	0, cr0, [r0], {1}
    349c:	0000002c 	andeq	r0, r0, ip, lsr #32
    34a0:	07210e00 	streq	r0, [r1, -r0, lsl #28]!
    34a4:	62020000 	andvs	r0, r2, #0
    34a8:	00010f00 	andeq	r0, r1, r0, lsl #30
    34ac:	e9000400 	stmdb	r0, {sl}
    34b0:	0400000d 	streq	r0, [r0], #-13
    34b4:	00056201 	andeq	r6, r5, r1, lsl #4
    34b8:	076e0100 	strbeq	r0, [lr, -r0, lsl #2]!
    34bc:	05cd0000 	strbeq	r0, [sp]
    34c0:	99180000 	ldmdbls	r8, {}	; <UNPREDICTABLE>
    34c4:	00380000 	eorseq	r0, r8, r0
    34c8:	0bfe0000 	bleq	fff834d0 <__bss_end__+0xfff78938>
    34cc:	04020000 	streq	r0, [r2], #-0
    34d0:	746e6905 	strbtvc	r6, [lr], #-2309	; 0x905
    34d4:	07040300 	streq	r0, [r4, -r0, lsl #6]
    34d8:	0000009e 	muleq	r0, lr, r0
    34dc:	7e060103 	adfvcs	f0, f6, f3
    34e0:	03000001 	movweq	r0, #1
    34e4:	01a10502 			; <UNDEFINED> instruction: 0x01a10502
    34e8:	04030000 	streq	r0, [r3], #-0
    34ec:	0000b005 	andeq	fp, r0, r5
    34f0:	05080300 	streq	r0, [r8, #-768]	; 0x300
    34f4:	000000ab 	andeq	r0, r0, fp, lsr #1
    34f8:	7c080103 	stfvcs	f0, [r8], {3}
    34fc:	03000001 	movweq	r0, #1
    3500:	00f00702 	rscseq	r0, r0, r2, lsl #14
    3504:	04030000 	streq	r0, [r3], #-0
    3508:	00009907 	andeq	r9, r0, r7, lsl #18
    350c:	07080300 	streq	r0, [r8, -r0, lsl #6]
    3510:	00000094 	muleq	r0, r4, r0
    3514:	21070403 	tstcs	r7, r3, lsl #8
    3518:	03000001 	movweq	r0, #1
    351c:	01850801 	orreq	r0, r5, r1, lsl #16
    3520:	66040000 	strvs	r0, [r4], -r0
    3524:	01000007 	tsteq	r0, r7
    3528:	0099180d 	addseq	r1, r9, sp, lsl #16
    352c:	00003800 	andeq	r3, r0, r0, lsl #16
    3530:	e19c0100 	orrs	r0, ip, r0, lsl #2
    3534:	05000000 	streq	r0, [r0, #-0]
    3538:	00000735 	andeq	r0, r0, r5, lsr r7
    353c:	00250e01 	eoreq	r0, r5, r1, lsl #28
    3540:	43050000 	movwmi	r0, #20480	; 0x5000
    3544:	01000007 	tsteq	r0, r7
    3548:	0000250e 	andeq	r2, r0, lr, lsl #10
    354c:	008c0600 	addeq	r0, ip, r0, lsl #12
    3550:	0f010000 	svceq	0x00010000
    3554:	73736207 	cmnvc	r3, #1879048192	; 0x70000000
    3558:	e1110100 	tst	r1, r0, lsl #2
    355c:	21000000 	mrscs	r0, (UNDEF: 0)
    3560:	0800000f 	stmdaeq	r0, {r0, r1, r2, r3}
    3564:	0000075e 	andeq	r0, r0, lr, asr r7
    3568:	00e11201 	rsceq	r1, r1, r1, lsl #4
    356c:	40090000 	andmi	r0, r9, r0
    3570:	fd000099 	stc2	0, cr0, [r0, #-612]	; 0xfffffd9c
    3574:	09000000 	stmdbeq	r0, {}	; <UNPREDICTABLE>
    3578:	00009944 	andeq	r9, r0, r4, asr #18
    357c:	00000104 	andeq	r0, r0, r4, lsl #2
    3580:	00994809 	addseq	r4, r9, r9, lsl #16
    3584:	00010b00 	andeq	r0, r1, r0, lsl #22
    3588:	040a0000 	streq	r0, [sl], #-0
    358c:	00000025 	andeq	r0, r0, r5, lsr #32
    3590:	00073505 	andeq	r3, r7, r5, lsl #10
    3594:	250e0100 	strcs	r0, [lr, #-256]	; 0x100
    3598:	05000000 	streq	r0, [r0, #-0]
    359c:	00000743 	andeq	r0, r0, r3, asr #14
    35a0:	00250e01 	eoreq	r0, r5, r1, lsl #28
    35a4:	4f060000 	svcmi	0x00060000
    35a8:	02000007 	andeq	r0, r0, #7
    35ac:	008c06da 	ldrdeq	r0, [ip], sl
    35b0:	d7020000 	strle	r0, [r2, -r0]
    35b4:	00011406 	andeq	r1, r1, r6, lsl #8
    35b8:	00650200 	rsbeq	r0, r5, r0, lsl #4
    35bc:	0000013e 	andeq	r0, r0, lr, lsr r1
    35c0:	0e7d0004 	cdpeq	0, 7, cr0, cr13, cr4, {0}
    35c4:	01040000 	mrseq	r0, (UNDEF: 4)
    35c8:	00000562 	andeq	r0, r0, r2, ror #10
    35cc:	00078101 	andeq	r8, r7, r1, lsl #2
    35d0:	0005cd00 	andeq	ip, r5, r0, lsl #26
    35d4:	00995000 	addseq	r5, r9, r0
    35d8:	00004400 	andeq	r4, r0, r0, lsl #8
    35dc:	000ca800 	andeq	sl, ip, r0, lsl #16
    35e0:	05040200 	streq	r0, [r4, #-512]	; 0x200
    35e4:	00746e69 	rsbseq	r6, r4, r9, ror #28
    35e8:	9e070403 	cdpls	4, 0, cr0, cr7, cr3, {0}
    35ec:	03000000 	movweq	r0, #0
    35f0:	017e0601 	cmneq	lr, r1, lsl #12
    35f4:	02030000 	andeq	r0, r3, #0
    35f8:	0001a105 	andeq	sl, r1, r5, lsl #2
    35fc:	05040300 	streq	r0, [r4, #-768]	; 0x300
    3600:	000000b0 	strheq	r0, [r0], -r0	; <UNPREDICTABLE>
    3604:	ab050803 	blge	145618 <__bss_end__+0x13aa80>
    3608:	03000000 	movweq	r0, #0
    360c:	017c0801 	cmneq	ip, r1, lsl #16
    3610:	02030000 	andeq	r0, r3, #0
    3614:	0000f007 	andeq	pc, r0, r7
    3618:	07040300 	streq	r0, [r4, -r0, lsl #6]
    361c:	00000099 	muleq	r0, r9, r0
    3620:	94070803 	strls	r0, [r7], #-2051	; 0x803
    3624:	03000000 	movweq	r0, #0
    3628:	01210704 	teqeq	r1, r4, lsl #14
    362c:	01030000 	mrseq	r0, (UNDEF: 3)
    3630:	00018508 	andeq	r8, r1, r8, lsl #10
    3634:	7f040400 	svcvc	0x00040400
    3638:	05000000 	streq	r0, [r0, #-0]
    363c:	00000072 	andeq	r0, r0, r2, ror r0
    3640:	0007a206 	andeq	sl, r7, r6, lsl #4
    3644:	50020100 	andpl	r0, r2, r0, lsl #2
    3648:	44000099 	strmi	r0, [r0], #-153	; 0x99
    364c:	01000000 	mrseq	r0, (UNDEF: 0)
    3650:	0001089c 	muleq	r1, ip, r8
    3654:	63700700 	cmnvs	r0, #0, 14
    3658:	2c020100 	stfcss	f0, [r2], {-0}
    365c:	41000000 	mrsmi	r0, (UNDEF: 0)
    3660:	0800000f 	stmdaeq	r0, {r0, r1, r2, r3}
    3664:	000000e3 	andeq	r0, r0, r3, ror #1
    3668:	00000118 	andeq	r0, r0, r8, lsl r1
    366c:	a65c0305 	ldrbge	r0, [ip], -r5, lsl #6
    3670:	60090000 	andvs	r0, r9, r0
    3674:	1d000099 	stcne	0, cr0, [r0, #-612]	; 0xfffffd9c
    3678:	0a000001 	beq	3684 <__code_start__-0x497c>
    367c:	00009980 	andeq	r9, r0, r0, lsl #19
    3680:	00000124 	andeq	r0, r0, r4, lsr #2
    3684:	000000fe 	strdeq	r0, [r0], -lr
    3688:	0153010b 	cmpeq	r3, fp, lsl #2
    368c:	52010b32 	andpl	r0, r1, #51200	; 0xc800
    3690:	a65c0305 	ldrbge	r0, [ip], -r5, lsl #6
    3694:	010b0000 	mrseq	r0, (UNDEF: 11)
    3698:	b0030551 	andlt	r0, r3, r1, asr r5
    369c:	0b0000a6 	bleq	393c <__code_start__-0x46c4>
    36a0:	03055001 	movweq	r5, #20481	; 0x5001
    36a4:	0000a674 	andeq	sl, r0, r4, ror r6
    36a8:	047d020b 	ldrbteq	r0, [sp], #-523	; 0x20b
    36ac:	0b007402 	bleq	206bc <__bss_end__+0x15b24>
    36b0:	05007d02 	streq	r7, [r0, #-3330]	; 0xd02
    36b4:	00a6d403 	adceq	sp, r6, r3, lsl #8
    36b8:	84090000 	strhi	r0, [r9], #-0
    36bc:	3a000099 	bcc	3928 <__code_start__-0x46d8>
    36c0:	00000001 	andeq	r0, r0, r1
    36c4:	0000720c 	andeq	r7, r0, ip, lsl #4
    36c8:	00011800 	andeq	r1, r1, r0, lsl #16
    36cc:	006b0d00 	rsbeq	r0, fp, r0, lsl #26
    36d0:	00150000 	andseq	r0, r5, r0
    36d4:	00010805 	andeq	r0, r1, r5, lsl #16
    36d8:	00d40e00 	sbcseq	r0, r4, r0, lsl #28
    36dc:	1e020000 	cdpne	0, 0, cr0, cr2, cr0, {0}
    36e0:	0005bc0f 	andeq	fp, r5, pc, lsl #24
    36e4:	25290200 	strcs	r0, [r9, #-512]!	; 0x200
    36e8:	3a000000 	bcc	36f0 <__code_start__-0x4910>
    36ec:	10000001 	andne	r0, r0, r1
    36f0:	00000079 	andeq	r0, r0, r9, ror r0
    36f4:	140e0011 	strne	r0, [lr], #-17
    36f8:	02000001 	andeq	r0, r0, #1
    36fc:	013e0065 	teqeq	lr, r5, rrx
    3700:	00040000 	andeq	r0, r4, r0
    3704:	00000f55 	andeq	r0, r0, r5, asr pc
    3708:	05620104 	strbeq	r0, [r2, #-260]!	; 0x104
    370c:	c5010000 	strgt	r0, [r1, #-0]
    3710:	cd000007 	stcgt	0, cr0, [r0, #-28]	; 0xffffffe4
    3714:	94000005 	strls	r0, [r0], #-5
    3718:	44000099 	strmi	r0, [r0], #-153	; 0x99
    371c:	4e000000 	cdpmi	0, 0, cr0, cr0, cr0, {0}
    3720:	0200000d 	andeq	r0, r0, #13
    3724:	6e690504 	cdpvs	5, 6, cr0, cr9, cr4, {0}
    3728:	04030074 	streq	r0, [r3], #-116	; 0x74
    372c:	00009e07 	andeq	r9, r0, r7, lsl #28
    3730:	06010300 	streq	r0, [r1], -r0, lsl #6
    3734:	0000017e 	andeq	r0, r0, lr, ror r1
    3738:	a1050203 	tstge	r5, r3, lsl #4
    373c:	03000001 	movweq	r0, #1
    3740:	00b00504 	adcseq	r0, r0, r4, lsl #10
    3744:	08030000 	stmdaeq	r3, {}	; <UNPREDICTABLE>
    3748:	0000ab05 	andeq	sl, r0, r5, lsl #22
    374c:	08010300 	stmdaeq	r1, {r8, r9}
    3750:	0000017c 	andeq	r0, r0, ip, ror r1
    3754:	f0070203 			; <UNDEFINED> instruction: 0xf0070203
    3758:	03000000 	movweq	r0, #0
    375c:	00990704 	addseq	r0, r9, r4, lsl #14
    3760:	08030000 	stmdaeq	r3, {}	; <UNPREDICTABLE>
    3764:	00009407 	andeq	r9, r0, r7, lsl #8
    3768:	07040300 	streq	r0, [r4, -r0, lsl #6]
    376c:	00000121 	andeq	r0, r0, r1, lsr #2
    3770:	85080103 	strhi	r0, [r8, #-259]	; 0x103
    3774:	04000001 	streq	r0, [r0], #-1
    3778:	00007f04 	andeq	r7, r0, r4, lsl #30
    377c:	00720500 	rsbseq	r0, r2, r0, lsl #10
    3780:	b8060000 	stmdalt	r6, {}	; <UNPREDICTABLE>
    3784:	01000007 	tsteq	r0, r7
    3788:	00999402 	addseq	r9, r9, r2, lsl #8
    378c:	00004400 	andeq	r4, r0, r0, lsl #8
    3790:	089c0100 	ldmeq	ip, {r8}
    3794:	07000001 	streq	r0, [r0, -r1]
    3798:	01006370 	tsteq	r0, r0, ror r3
    379c:	00002c02 	andeq	r2, r0, r2, lsl #24
    37a0:	000f5f00 	andeq	r5, pc, r0, lsl #30
    37a4:	00e30800 	rsceq	r0, r3, r0, lsl #16
    37a8:	01180000 	tsteq	r8, r0
    37ac:	03050000 	movweq	r0, #20480	; 0x5000
    37b0:	0000a6dc 	ldrdeq	sl, [r0], -ip
    37b4:	0099a409 	addseq	sl, r9, r9, lsl #8
    37b8:	00011d00 	andeq	r1, r1, r0, lsl #26
    37bc:	99c40a00 	stmibls	r4, {r9, fp}^
    37c0:	01240000 	teqeq	r4, r0
    37c4:	00fe0000 	rscseq	r0, lr, r0
    37c8:	010b0000 	mrseq	r0, (UNDEF: 11)
    37cc:	0b320153 	bleq	c83d20 <__bss_end__+0xc79188>
    37d0:	03055201 	movweq	r5, #20993	; 0x5201
    37d4:	0000a6dc 	ldrdeq	sl, [r0], -ip
    37d8:	0551010b 	ldrbeq	r0, [r1, #-267]	; 0x10b
    37dc:	00a6ec03 	adceq	lr, r6, r3, lsl #24
    37e0:	50010b00 	andpl	r0, r1, r0, lsl #22
    37e4:	a6740305 	ldrbtge	r0, [r4], -r5, lsl #6
    37e8:	020b0000 	andeq	r0, fp, #0
    37ec:	7402047d 	strvc	r0, [r2], #-1149	; 0x47d
    37f0:	7d020b00 	vstrvc	d0, [r2, #-0]
    37f4:	10030500 	andne	r0, r3, r0, lsl #10
    37f8:	000000a7 	andeq	r0, r0, r7, lsr #1
    37fc:	0099c809 	addseq	ip, r9, r9, lsl #16
    3800:	00013a00 	andeq	r3, r1, r0, lsl #20
    3804:	720c0000 	andvc	r0, ip, #0
    3808:	18000000 	stmdane	r0, {}	; <UNPREDICTABLE>
    380c:	0d000001 	stceq	0, cr0, [r0, #-4]
    3810:	0000006b 	andeq	r0, r0, fp, rrx
    3814:	0805000c 	stmdaeq	r5, {r2, r3}
    3818:	0e000001 	cdpeq	0, 0, cr0, cr0, cr1, {0}
    381c:	000000d4 	ldrdeq	r0, [r0], -r4
    3820:	bc0f1e02 	stclt	14, cr1, [pc], {2}
    3824:	02000005 	andeq	r0, r0, #5
    3828:	00002529 	andeq	r2, r0, r9, lsr #10
    382c:	00013a00 	andeq	r3, r1, r0, lsl #20
    3830:	00791000 	rsbseq	r1, r9, r0
    3834:	00110000 	andseq	r0, r1, r0
    3838:	0001140e 	andeq	r1, r1, lr, lsl #8
    383c:	00650200 	rsbeq	r0, r5, r0, lsl #4
    3840:	0000013e 	andeq	r0, r0, lr, lsr r1
    3844:	102d0004 	eorne	r0, sp, r4
    3848:	01040000 	mrseq	r0, (UNDEF: 4)
    384c:	00000562 	andeq	r0, r0, r2, ror #10
    3850:	0007e701 	andeq	lr, r7, r1, lsl #14
    3854:	0005cd00 	andeq	ip, r5, r0, lsl #26
    3858:	0099d800 	addseq	sp, r9, r0, lsl #16
    385c:	00004400 	andeq	r4, r0, r0, lsl #8
    3860:	000df500 	andeq	pc, sp, r0, lsl #10
    3864:	05040200 	streq	r0, [r4, #-512]	; 0x200
    3868:	00746e69 	rsbseq	r6, r4, r9, ror #28
    386c:	9e070403 	cdpls	4, 0, cr0, cr7, cr3, {0}
    3870:	03000000 	movweq	r0, #0
    3874:	017e0601 	cmneq	lr, r1, lsl #12
    3878:	02030000 	andeq	r0, r3, #0
    387c:	0001a105 	andeq	sl, r1, r5, lsl #2
    3880:	05040300 	streq	r0, [r4, #-768]	; 0x300
    3884:	000000b0 	strheq	r0, [r0], -r0	; <UNPREDICTABLE>
    3888:	ab050803 	blge	14589c <__bss_end__+0x13ad04>
    388c:	03000000 	movweq	r0, #0
    3890:	017c0801 	cmneq	ip, r1, lsl #16
    3894:	02030000 	andeq	r0, r3, #0
    3898:	0000f007 	andeq	pc, r0, r7
    389c:	07040300 	streq	r0, [r4, -r0, lsl #6]
    38a0:	00000099 	muleq	r0, r9, r0
    38a4:	94070803 	strls	r0, [r7], #-2051	; 0x803
    38a8:	03000000 	movweq	r0, #0
    38ac:	01210704 	teqeq	r1, r4, lsl #14
    38b0:	01030000 	mrseq	r0, (UNDEF: 3)
    38b4:	00018508 	andeq	r8, r1, r8, lsl #10
    38b8:	7f040400 	svcvc	0x00040400
    38bc:	05000000 	streq	r0, [r0, #-0]
    38c0:	00000072 	andeq	r0, r0, r2, ror r0
    38c4:	00081206 	andeq	r1, r8, r6, lsl #4
    38c8:	d8020100 	stmdale	r2, {r8}
    38cc:	44000099 	strmi	r0, [r0], #-153	; 0x99
    38d0:	01000000 	mrseq	r0, (UNDEF: 0)
    38d4:	0001089c 	muleq	r1, ip, r8
    38d8:	63700700 	cmnvs	r0, #0, 14
    38dc:	2c020100 	stfcss	f0, [r2], {-0}
    38e0:	7d000000 	stcvc	0, cr0, [r0, #-0]
    38e4:	0800000f 	stmdaeq	r0, {r0, r1, r2, r3}
    38e8:	000000e3 	andeq	r0, r0, r3, ror #1
    38ec:	00000118 	andeq	r0, r0, r8, lsl r1
    38f0:	a7180305 	ldrge	r0, [r8, -r5, lsl #6]
    38f4:	e8090000 	stmda	r9, {}	; <UNPREDICTABLE>
    38f8:	1d000099 	stcne	0, cr0, [r0, #-612]	; 0xfffffd9c
    38fc:	0a000001 	beq	3908 <__code_start__-0x46f8>
    3900:	00009a08 	andeq	r9, r0, r8, lsl #20
    3904:	00000124 	andeq	r0, r0, r4, lsr #2
    3908:	000000fe 	strdeq	r0, [r0], -lr
    390c:	0153010b 	cmpeq	r3, fp, lsl #2
    3910:	52010b32 	andpl	r0, r1, #51200	; 0xc800
    3914:	a7180305 	ldrge	r0, [r8, -r5, lsl #6]
    3918:	010b0000 	mrseq	r0, (UNDEF: 11)
    391c:	38030551 	stmdacc	r3, {r0, r4, r6, r8, sl}
    3920:	0b0000a7 	bleq	3bc4 <__code_start__-0x443c>
    3924:	03055001 	movweq	r5, #20481	; 0x5001
    3928:	0000a674 	andeq	sl, r0, r4, ror r6
    392c:	047d020b 	ldrbteq	r0, [sp], #-523	; 0x20b
    3930:	0b007402 	bleq	20940 <__bss_end__+0x15da8>
    3934:	05007d02 	streq	r7, [r0, #-3330]	; 0xd02
    3938:	00a76403 	adceq	r6, r7, r3, lsl #8
    393c:	0c090000 	stceq	0, cr0, [r9], {-0}
    3940:	3a00009a 	bcc	3bb0 <__code_start__-0x4450>
    3944:	00000001 	andeq	r0, r0, r1
    3948:	0000720c 	andeq	r7, r0, ip, lsl #4
    394c:	00011800 	andeq	r1, r1, r0, lsl #16
    3950:	006b0d00 	rsbeq	r0, fp, r0, lsl #26
    3954:	001c0000 	andseq	r0, ip, r0
    3958:	00010805 	andeq	r0, r1, r5, lsl #16
    395c:	00d40e00 	sbcseq	r0, r4, r0, lsl #28
    3960:	1e020000 	cdpne	0, 0, cr0, cr2, cr0, {0}
    3964:	0005bc0f 	andeq	fp, r5, pc, lsl #24
    3968:	25290200 	strcs	r0, [r9, #-512]!	; 0x200
    396c:	3a000000 	bcc	3974 <__code_start__-0x468c>
    3970:	10000001 	andne	r0, r0, r1
    3974:	00000079 	andeq	r0, r0, r9, ror r0
    3978:	140e0011 	strne	r0, [lr], #-17
    397c:	02000001 	andeq	r0, r0, #1
    3980:	00980065 	addseq	r0, r8, r5, rrx
    3984:	00040000 	andeq	r0, r4, r0
    3988:	00001105 	andeq	r1, r0, r5, lsl #2
    398c:	05620104 	strbeq	r0, [r2, #-260]!	; 0x104
    3990:	2f010000 	svccs	0x00010000
    3994:	cd000008 	stcgt	0, cr0, [r0, #-32]	; 0xffffffe0
    3998:	1c000005 	stcne	0, cr0, [r0], {5}
    399c:	0800009a 	stmdaeq	r0, {r1, r3, r4, r7}
    39a0:	a5000000 	strge	r0, [r0, #-0]
    39a4:	0200000e 	andeq	r0, r0, #14
    39a8:	6e690504 	cdpvs	5, 6, cr0, cr9, cr4, {0}
    39ac:	04030074 	streq	r0, [r3], #-116	; 0x74
    39b0:	00009e07 	andeq	r9, r0, r7, lsl #28
    39b4:	06010300 	streq	r0, [r1], -r0, lsl #6
    39b8:	0000017e 	andeq	r0, r0, lr, ror r1
    39bc:	a1050203 	tstge	r5, r3, lsl #4
    39c0:	03000001 	movweq	r0, #1
    39c4:	00b00504 	adcseq	r0, r0, r4, lsl #10
    39c8:	08030000 	stmdaeq	r3, {}	; <UNPREDICTABLE>
    39cc:	0000ab05 	andeq	sl, r0, r5, lsl #22
    39d0:	08010300 	stmdaeq	r1, {r8, r9}
    39d4:	0000017c 	andeq	r0, r0, ip, ror r1
    39d8:	f0070203 			; <UNDEFINED> instruction: 0xf0070203
    39dc:	03000000 	movweq	r0, #0
    39e0:	00990704 	addseq	r0, r9, r4, lsl #14
    39e4:	08030000 	stmdaeq	r3, {}	; <UNPREDICTABLE>
    39e8:	00009407 	andeq	r9, r0, r7, lsl #8
    39ec:	07040300 	streq	r0, [r4, -r0, lsl #6]
    39f0:	00000121 	andeq	r0, r0, r1, lsr #2
    39f4:	85080103 	strhi	r0, [r8, #-259]	; 0x103
    39f8:	04000001 	streq	r0, [r0], #-1
    39fc:	0000074f 	andeq	r0, r0, pc, asr #14
    3a00:	9a1c0401 	bls	704a0c <__bss_end__+0x6f9e74>
    3a04:	00040000 	andeq	r0, r4, r0
    3a08:	9c010000 	stcls	0, cr0, [r1], {-0}
    3a0c:	0006f904 	andeq	pc, r6, r4, lsl #18
    3a10:	20050100 	andcs	r0, r5, r0, lsl #2
    3a14:	0400009a 	streq	r0, [r0], #-154	; 0x9a
    3a18:	01000000 	mrseq	r0, (UNDEF: 0)
    3a1c:	01d7009c 			; <UNDEFINED> instruction: 0x01d7009c
    3a20:	00040000 	andeq	r0, r4, r0
    3a24:	00001147 	andeq	r1, r0, r7, asr #2
    3a28:	05620104 	strbeq	r0, [r2, #-260]!	; 0x104
    3a2c:	eb010000 	bl	43a34 <__bss_end__+0x38e9c>
    3a30:	cd000008 	stcgt	0, cr0, [r0, #-32]	; 0xffffffe0
    3a34:	24000005 	strcs	r0, [r0], #-5
    3a38:	6c00009a 	stcvs	0, cr0, [r0], {154}	; 0x9a
    3a3c:	f0000000 			; <UNDEFINED> instruction: 0xf0000000
    3a40:	0200000e 	andeq	r0, r0, #14
    3a44:	6e690504 	cdpvs	5, 6, cr0, cr9, cr4, {0}
    3a48:	04030074 	streq	r0, [r3], #-116	; 0x74
    3a4c:	00009e07 	andeq	r9, r0, r7, lsl #28
    3a50:	06010300 	streq	r0, [r1], -r0, lsl #6
    3a54:	0000017e 	andeq	r0, r0, lr, ror r1
    3a58:	a1050203 	tstge	r5, r3, lsl #4
    3a5c:	03000001 	movweq	r0, #1
    3a60:	00b00504 	adcseq	r0, r0, r4, lsl #10
    3a64:	08030000 	stmdaeq	r3, {}	; <UNPREDICTABLE>
    3a68:	0000ab05 	andeq	sl, r0, r5, lsl #22
    3a6c:	08010300 	stmdaeq	r1, {r8, r9}
    3a70:	0000017c 	andeq	r0, r0, ip, ror r1
    3a74:	f0070203 			; <UNDEFINED> instruction: 0xf0070203
    3a78:	03000000 	movweq	r0, #0
    3a7c:	00990704 	addseq	r0, r9, r4, lsl #14
    3a80:	08030000 	stmdaeq	r3, {}	; <UNPREDICTABLE>
    3a84:	00009407 	andeq	r9, r0, r7, lsl #8
    3a88:	07040300 	streq	r0, [r4, -r0, lsl #6]
    3a8c:	00000121 	andeq	r0, r0, r1, lsr #2
    3a90:	85080103 	strhi	r0, [r8, #-259]	; 0x103
    3a94:	04000001 	streq	r0, [r0], #-1
    3a98:	f0140204 			; <UNDEFINED> instruction: 0xf0140204
    3a9c:	05000000 	streq	r0, [r0, #-0]
    3aa0:	00000904 	andeq	r0, r0, r4, lsl #18
    3aa4:	8082e480 	addhi	lr, r2, r0, lsl #9
    3aa8:	088a0502 	stmeq	sl, {r1, r8, sl}
    3aac:	e4800000 	str	r0, [r0], #0
    3ab0:	05028082 	streq	r8, [r2, #-130]	; 0x82
    3ab4:	00000931 	andeq	r0, r0, r1, lsr r9
    3ab8:	8082e484 	addhi	lr, r2, r4, lsl #9
    3abc:	084c0502 	stmdaeq	ip, {r1, r8, sl}^
    3ac0:	e4880000 	str	r0, [r8], #0
    3ac4:	05028082 	streq	r8, [r2, #-130]	; 0x82
    3ac8:	0000086d 	andeq	r0, r0, sp, ror #16
    3acc:	8082e48c 	addhi	lr, r2, ip, lsl #9
    3ad0:	08ae0502 	stmiaeq	lr!, {r1, r8, sl}
    3ad4:	e4900000 	ldr	r0, [r0], #0
    3ad8:	05028082 	streq	r8, [r2, #-130]	; 0x82
    3adc:	000008bc 			; <UNDEFINED> instruction: 0x000008bc
    3ae0:	8082e494 	umullhi	lr, r2, r4, r4
    3ae4:	089c0502 	ldmeq	ip, {r1, r8, sl}
    3ae8:	e4980000 	ldr	r0, [r8], #0
    3aec:	05028082 	streq	r8, [r2, #-130]	; 0x82
    3af0:	00000913 	andeq	r0, r0, r3, lsl r9
    3af4:	8082e49c 	umullhi	lr, r2, ip, r4
    3af8:	09220502 	stmdbeq	r2!, {r1, r8, sl}
    3afc:	e4a00000 	strt	r0, [r0], #0
    3b00:	05028082 	streq	r8, [r2, #-130]	; 0x82
    3b04:	0000085a 	andeq	r0, r0, sl, asr r8
    3b08:	8082e4a4 	addhi	lr, r2, r4, lsr #9
    3b0c:	b1060002 	tstlt	r6, r2
    3b10:	01000002 	tsteq	r0, r2
    3b14:	009a241b 	addseq	r2, sl, fp, lsl r4
    3b18:	00006c00 	andeq	r6, r0, r0, lsl #24
    3b1c:	a59c0100 	ldrge	r0, [ip, #256]	; 0x100
    3b20:	07000001 	streq	r0, [r0, -r1]
    3b24:	00000879 	andeq	r0, r0, r9, ror r8
    3b28:	002c2301 	eoreq	r2, ip, r1, lsl #6
    3b2c:	ca070000 	bgt	1c3b34 <__bss_end__+0x1b8f9c>
    3b30:	01000008 	tsteq	r0, r8
    3b34:	00002c24 	andeq	r2, r0, r4, lsr #24
    3b38:	73640800 	cmnvc	r4, #0, 16
    3b3c:	27010074 	smlsdxcs	r1, r4, r0, r0
    3b40:	000001a5 	andeq	r0, r0, r5, lsr #3
    3b44:	72730900 	rsbsvc	r0, r3, #0, 18
    3b48:	28010063 	stmdacs	r1, {r0, r1, r5, r6}
    3b4c:	000001a5 	andeq	r0, r0, r5, lsr #3
    3b50:	01006e0a 	tsteq	r0, sl, lsl #28
    3b54:	00002c29 	andeq	r2, r0, r9, lsr #24
    3b58:	0b500100 	bleq	1403f60 <__bss_end__+0x13f93c8>
    3b5c:	00009a58 	andeq	r9, r0, r8, asr sl
    3b60:	00000024 	andeq	r0, r0, r4, lsr #32
    3b64:	00000158 	andeq	r0, r0, r8, asr r1
    3b68:	0100690c 	tsteq	r0, ip, lsl #18
    3b6c:	0000252a 	andeq	r2, r0, sl, lsr #10
    3b70:	000f9b00 	andeq	r9, pc, r0, lsl #22
    3b74:	2c0d0000 	stccs	0, cr0, [sp], {-0}
    3b78:	c100009a 	swpgt	r0, sl, [r0]	; <UNPREDICTABLE>
    3b7c:	0e000001 	cdpeq	0, 0, cr0, cr0, cr1, {0}
    3b80:	00009a38 	andeq	r9, r0, r8, lsr sl
    3b84:	000001c8 	andeq	r0, r0, r8, asr #3
    3b88:	0000017e 	andeq	r0, r0, lr, ror r1
    3b8c:	0251010f 	subseq	r0, r1, #-1073741821	; 0xc0000003
    3b90:	010fff09 	tsteq	pc, r9, lsl #30
    3b94:	1c0c0550 	cfstr32ne	mvfx0, [ip], {80}	; 0x50
    3b98:	002000b2 	strhteq	r0, [r0], -r2
    3b9c:	009a440e 	addseq	r4, sl, lr, lsl #8
    3ba0:	0001c800 	andeq	ip, r1, r0, lsl #16
    3ba4:	00019b00 	andeq	r9, r1, r0, lsl #22
    3ba8:	51010f00 	tstpl	r1, r0, lsl #30
    3bac:	0fff0902 	svceq	0x00ff0902
    3bb0:	0c055001 	stceq	0, cr5, [r5], {1}
    3bb4:	2000b220 	andcs	fp, r0, r0, lsr #4
    3bb8:	9a480d00 	bls	1206fc0 <__bss_end__+0x11fc428>
    3bbc:	01c10000 	biceq	r0, r1, r0
    3bc0:	10000000 	andne	r0, r0, r0
    3bc4:	00002c04 	andeq	r2, r0, r4, lsl #24
    3bc8:	08790700 	ldmdaeq	r9!, {r8, r9, sl}^
    3bcc:	23010000 	movwcs	r0, #4096	; 0x1000
    3bd0:	0000002c 	andeq	r0, r0, ip, lsr #32
    3bd4:	0008ca07 	andeq	ip, r8, r7, lsl #20
    3bd8:	2c240100 	stfcss	f0, [r4], #-0
    3bdc:	11000000 	mrsne	r0, (UNDEF: 0)
    3be0:	000008df 	ldrdeq	r0, [r0], -pc	; <UNPREDICTABLE>
    3be4:	0d128903 	ldceq	9, cr8, [r2, #-12]
    3be8:	03000009 	movweq	r0, #9
    3bec:	002c139b 	mlaeq	ip, fp, r3, r1
    3bf0:	2c130000 	ldccs	0, cr0, [r3], {-0}
    3bf4:	00000000 	andeq	r0, r0, r0
    3bf8:	0001ad00 	andeq	sl, r1, r0, lsl #26
    3bfc:	4d000400 	cfstrsmi	mvf0, [r0, #-0]
    3c00:	04000012 	streq	r0, [r0], #-18
    3c04:	00056201 	andeq	r6, r5, r1, lsl #4
    3c08:	094d0100 	stmdbeq	sp, {r8}^
    3c0c:	05cd0000 	strbeq	r0, [sp]
    3c10:	00300000 	eorseq	r0, r0, r0
    3c14:	00000000 	andeq	r0, r0, r0
    3c18:	0fbd0000 	svceq	0x00bd0000
    3c1c:	04020000 	streq	r0, [r2], #-0
    3c20:	746e6905 	strbtvc	r6, [lr], #-2309	; 0x905
    3c24:	07040300 	streq	r0, [r4, -r0, lsl #6]
    3c28:	0000009e 	muleq	r0, lr, r0
    3c2c:	7e060103 	adfvcs	f0, f6, f3
    3c30:	03000001 	movweq	r0, #1
    3c34:	01a10502 			; <UNDEFINED> instruction: 0x01a10502
    3c38:	04030000 	streq	r0, [r3], #-0
    3c3c:	0000b005 	andeq	fp, r0, r5
    3c40:	05080300 	streq	r0, [r8, #-768]	; 0x300
    3c44:	000000ab 	andeq	r0, r0, fp, lsr #1
    3c48:	7c080103 	stfvcs	f0, [r8], {3}
    3c4c:	03000001 	movweq	r0, #1
    3c50:	00f00702 	rscseq	r0, r0, r2, lsl #14
    3c54:	04030000 	streq	r0, [r3], #-0
    3c58:	00009907 	andeq	r9, r0, r7, lsl #18
    3c5c:	07080300 	streq	r0, [r8, -r0, lsl #6]
    3c60:	00000094 	muleq	r0, r4, r0
    3c64:	21070403 	tstcs	r7, r3, lsl #8
    3c68:	03000001 	movweq	r0, #1
    3c6c:	01850801 	orreq	r0, r5, r1, lsl #16
    3c70:	3f040000 	svccc	0x00040000
    3c74:	01000009 	tsteq	r0, r9
    3c78:	0000250e 	andeq	r2, r0, lr, lsl #10
    3c7c:	009a9000 	addseq	r9, sl, r0
    3c80:	00001800 	andeq	r1, r0, r0, lsl #16
    3c84:	a29c0100 	addsge	r0, ip, #0, 2
    3c88:	05000000 	streq	r0, [r0, #-0]
    3c8c:	000001ab 	andeq	r0, r0, fp, lsr #3
    3c90:	002c0f01 	eoreq	r0, ip, r1, lsl #30
    3c94:	0fba0000 	svceq	0x00ba0000
    3c98:	06000000 	streq	r0, [r0], -r0
    3c9c:	00000981 	andeq	r0, r0, r1, lsl #19
    3ca0:	9aa81701 	bls	fea098ac <__bss_end__+0xfe9fed14>
    3ca4:	00140000 	andseq	r0, r4, r0
    3ca8:	9c010000 	stcls	0, cr0, [r1], {-0}
    3cac:	000000c7 	andeq	r0, r0, r7, asr #1
    3cb0:	0001ab05 	andeq	sl, r1, r5, lsl #22
    3cb4:	2c180100 	ldfcss	f0, [r8], {-0}
    3cb8:	d9000000 	stmdble	r0, {}	; <UNPREDICTABLE>
    3cbc:	0000000f 	andeq	r0, r0, pc
    3cc0:	00072106 	andeq	r2, r7, r6, lsl #2
    3cc4:	bc1f0100 	ldflts	f0, [pc], {-0}
    3cc8:	4800009a 	stmdami	r0, {r1, r3, r4, r7}
    3ccc:	01000000 	mrseq	r0, (UNDEF: 0)
    3cd0:	0001779c 	muleq	r1, ip, r7
    3cd4:	099c0700 	ldmibeq	ip, {r8, r9, sl}
    3cd8:	2a010000 	bcs	43ce0 <__bss_end__+0x39148>
    3cdc:	00000177 	andeq	r0, r0, r7, ror r1
    3ce0:	2010001c 	andscs	r0, r0, ip, lsl r0
    3ce4:	00097907 	andeq	r7, r9, r7, lsl #18
    3ce8:	772b0100 	strvc	r0, [fp, -r0, lsl #2]!
    3cec:	24000001 	strcs	r0, [r0], #-1
    3cf0:	07201000 	streq	r1, [r0, -r0]!
    3cf4:	00000990 	muleq	r0, r0, r9
    3cf8:	01772c01 	cmneq	r7, r1, lsl #24
    3cfc:	00000000 	andeq	r0, r0, r0
    3d00:	60085a00 	andvs	r5, r8, r0, lsl #20
    3d04:	01000009 	tsteq	r0, r9
    3d08:	0001772d 	andeq	r7, r1, sp, lsr #14
    3d0c:	c4092000 	strgt	r2, [r9], #-0
    3d10:	7900009a 	stmdbvc	r0, {r1, r3, r4, r7}
    3d14:	09000000 	stmdbeq	r0, {}	; <UNPREDICTABLE>
    3d18:	00009ad0 	ldrdeq	r9, [r0], -r0
    3d1c:	000000a2 	andeq	r0, r0, r2, lsr #1
    3d20:	009ad80a 	addseq	sp, sl, sl, lsl #16
    3d24:	00018d00 	andeq	r8, r1, r0, lsl #26
    3d28:	00013a00 	andeq	r3, r1, r0, lsl #20
    3d2c:	50010b00 	andpl	r0, r1, r0, lsl #22
    3d30:	0a004e01 	beq	1753c <__bss_end__+0xc9a4>
    3d34:	00009ae4 	andeq	r9, r0, r4, ror #21
    3d38:	0000019e 	muleq	r0, lr, r1
    3d3c:	0000015a 	andeq	r0, r0, sl, asr r1
    3d40:	0551010b 	ldrbeq	r0, [r1, #-267]	; 0x10b
    3d44:	0000010c 	andeq	r0, r0, ip, lsl #2
    3d48:	50010b5a 	andpl	r0, r1, sl, asr fp
    3d4c:	00240c05 	eoreq	r0, r4, r5, lsl #24
    3d50:	0c002010 	stceq	0, cr2, [r0], {16}
    3d54:	00009af0 	strdeq	r9, [r0], -r0
    3d58:	0000019e 	muleq	r0, lr, r1
    3d5c:	0551010b 	ldrbeq	r0, [r1, #-267]	; 0x10b
    3d60:	0000200c 	andeq	r2, r0, ip
    3d64:	50010b5a 	andpl	r0, r1, sl, asr fp
    3d68:	001c0c05 	andseq	r0, ip, r5, lsl #24
    3d6c:	00002010 	andeq	r2, r0, r0, lsl r0
    3d70:	0000250d 	andeq	r2, r0, sp, lsl #10
    3d74:	09420800 	stmdbeq	r2, {fp}^
    3d78:	0d010000 	stceq	0, cr0, [r1, #-0]
    3d7c:	00000188 	andeq	r0, r0, r8, lsl #3
    3d80:	002c0d10 	eoreq	r0, ip, r0, lsl sp
    3d84:	2c0e0000 	stccs	0, cr0, [lr], {-0}
    3d88:	02000007 	andeq	r0, r0, #7
    3d8c:	00019e4f 	andeq	r9, r1, pc, asr #28
    3d90:	002c0f00 	eoreq	r0, ip, r0, lsl #30
    3d94:	10000000 	andne	r0, r0, r0
    3d98:	0000090d 	andeq	r0, r0, sp, lsl #18
    3d9c:	2c0f9b02 	stccs	11, cr9, [pc], {2}
    3da0:	0f000000 	svceq	0x00000000
    3da4:	0000002c 	andeq	r0, r0, ip, lsr #32
    3da8:	01f70000 	mvnseq	r0, r0
    3dac:	00040000 	andeq	r0, r4, r0
    3db0:	0000133b 	andeq	r1, r0, fp, lsr r3
    3db4:	05620104 	strbeq	r0, [r2, #-260]!	; 0x104
    3db8:	c1010000 	mrsgt	r0, (UNDEF: 1)
    3dbc:	cd000009 	stcgt	0, cr0, [r0, #-36]	; 0xffffffdc
    3dc0:	04000005 	streq	r0, [r0], #-5
    3dc4:	9800009b 	stmdals	r0, {r0, r1, r3, r4, r7}
    3dc8:	63000000 	movwvs	r0, #0
    3dcc:	02000010 	andeq	r0, r0, #16
    3dd0:	6e690504 	cdpvs	5, 6, cr0, cr9, cr4, {0}
    3dd4:	04030074 	streq	r0, [r3], #-116	; 0x74
    3dd8:	00009e07 	andeq	r9, r0, r7, lsl #28
    3ddc:	06010300 	streq	r0, [r1], -r0, lsl #6
    3de0:	0000017e 	andeq	r0, r0, lr, ror r1
    3de4:	a1050203 	tstge	r5, r3, lsl #4
    3de8:	03000001 	movweq	r0, #1
    3dec:	00b00504 	adcseq	r0, r0, r4, lsl #10
    3df0:	08030000 	stmdaeq	r3, {}	; <UNPREDICTABLE>
    3df4:	0000ab05 	andeq	sl, r0, r5, lsl #22
    3df8:	08010300 	stmdaeq	r1, {r8, r9}
    3dfc:	0000017c 	andeq	r0, r0, ip, ror r1
    3e00:	f0070203 			; <UNDEFINED> instruction: 0xf0070203
    3e04:	03000000 	movweq	r0, #0
    3e08:	00990704 	addseq	r0, r9, r4, lsl #14
    3e0c:	08030000 	stmdaeq	r3, {}	; <UNPREDICTABLE>
    3e10:	00009407 	andeq	r9, r0, r7, lsl #8
    3e14:	07040300 	streq	r0, [r4, -r0, lsl #6]
    3e18:	00000121 	andeq	r0, r0, r1, lsr #2
    3e1c:	85080103 	strhi	r0, [r8, #-259]	; 0x103
    3e20:	04000001 	streq	r0, [r0], #-1
    3e24:	000009df 	ldrdeq	r0, [r0], -pc	; <UNPREDICTABLE>
    3e28:	9b040501 	blls	105234 <__bss_end__+0xfa69c>
    3e2c:	001c0000 	andseq	r0, ip, r0
    3e30:	9c010000 	stcls	0, cr0, [r1], {-0}
    3e34:	0000009e 	muleq	r0, lr, r0
    3e38:	0009d905 	andeq	sp, r9, r5, lsl #18
    3e3c:	2c050100 	stfcss	f0, [r5], {-0}
    3e40:	03000000 	movweq	r0, #0
    3e44:	00000010 	andeq	r0, r0, r0, lsl r0
    3e48:	0009a406 	andeq	sl, r9, r6, lsl #8
    3e4c:	2c110100 	ldfcss	f0, [r1], {-0}
    3e50:	20000000 	andcs	r0, r0, r0
    3e54:	1400009b 	strne	r0, [r0], #-155	; 0x9b
    3e58:	01000000 	mrseq	r0, (UNDEF: 0)
    3e5c:	0000cb9c 	muleq	r0, ip, fp
    3e60:	9b2c0700 	blls	b05a68 <__bss_end__+0xafaed0>
    3e64:	01de0000 	bicseq	r0, lr, r0
    3e68:	01080000 	mrseq	r0, (UNDEF: 8)
    3e6c:	040c0550 	streq	r0, [ip], #-1360	; 0x550
    3e70:	00200030 	eoreq	r0, r0, r0, lsr r0
    3e74:	09f50600 	ldmibeq	r5!, {r9, sl}^
    3e78:	16010000 	strne	r0, [r1], -r0
    3e7c:	0000002c 	andeq	r0, r0, ip, lsr #32
    3e80:	00009b34 	andeq	r9, r0, r4, lsr fp
    3e84:	0000001c 	andeq	r0, r0, ip, lsl r0
    3e88:	010d9c01 	tsteq	sp, r1, lsl #24
    3e8c:	75090000 	strvc	r0, [r9, #-0]
    3e90:	2c1a0100 	ldfcss	f0, [sl], {-0}
    3e94:	37000000 	strcc	r0, [r0, -r0]
    3e98:	0a000010 	beq	3ee0 <__code_start__-0x4120>
    3e9c:	00009b3c 	andeq	r9, r0, ip, lsr fp
    3ea0:	000001f3 	strdeq	r0, [r0], -r3
    3ea4:	009b400a 	addseq	r4, fp, sl
    3ea8:	00009e00 	andeq	r9, r0, r0, lsl #28
    3eac:	9b480a00 	blls	12066b4 <__bss_end__+0x11fbb1c>
    3eb0:	01f30000 	mvnseq	r0, r0
    3eb4:	04000000 	streq	r0, [r0], #-0
    3eb8:	000009ec 	andeq	r0, r0, ip, ror #19
    3ebc:	9b501f01 	blls	140bac8 <__bss_end__+0x1400f30>
    3ec0:	00240000 	eoreq	r0, r4, r0
    3ec4:	9c010000 	stcls	0, cr0, [r1], {-0}
    3ec8:	0000016b 	andeq	r0, r0, fp, ror #2
    3ecc:	0073750b 	rsbseq	r7, r3, fp, lsl #10
    3ed0:	002c1f01 	eoreq	r1, ip, r1, lsl #30
    3ed4:	10550000 	subsne	r0, r5, r0
    3ed8:	720c0000 	andvc	r0, ip, #0
    3edc:	20010062 	andcs	r0, r1, r2, rrx
    3ee0:	0000002c 	andeq	r0, r0, ip, lsr #32
    3ee4:	600d5401 	andvs	r5, sp, r1, lsl #8
    3ee8:	1000009b 	mulne	r0, fp, r0
    3eec:	61000000 	mrsvs	r0, (UNDEF: 0)
    3ef0:	09000001 	stmdbeq	r0, {r0}
    3ef4:	01006172 	tsteq	r0, r2, ror r1
    3ef8:	00002c22 	andeq	r2, r0, r2, lsr #24
    3efc:	00107300 	andseq	r7, r0, r0, lsl #6
    3f00:	9b640a00 	blls	1906708 <__bss_end__+0x18fbb70>
    3f04:	00cb0000 	sbceq	r0, fp, r0
    3f08:	0a000000 	beq	3f10 <__code_start__-0x40f0>
    3f0c:	00009b5c 	andeq	r9, r0, ip, asr fp
    3f10:	000000cb 	andeq	r0, r0, fp, asr #1
    3f14:	072c0400 	streq	r0, [ip, -r0, lsl #8]!
    3f18:	28010000 	stmdacs	r1, {}	; <UNPREDICTABLE>
    3f1c:	00009b74 	andeq	r9, r0, r4, ror fp
    3f20:	00000014 	andeq	r0, r0, r4, lsl r0
    3f24:	01a49c01 			; <UNDEFINED> instruction: 0x01a49c01
    3f28:	6d0b0000 	stcvs	0, cr0, [fp, #-0]
    3f2c:	28010073 	stmdacs	r1, {r0, r1, r4, r5, r6}
    3f30:	0000002c 	andeq	r0, r0, ip, lsr #32
    3f34:	00001086 	andeq	r1, r0, r6, lsl #1
    3f38:	009b8407 	addseq	r8, fp, r7, lsl #8
    3f3c:	00010d00 	andeq	r0, r1, r0, lsl #26
    3f40:	50010800 	andpl	r0, r1, r0, lsl #16
    3f44:	5001f307 	andpl	pc, r1, r7, lsl #6
    3f48:	1e03e80a 	cdpne	8, 0, cr14, cr3, cr10, {0}
    3f4c:	b7040000 	strlt	r0, [r4, -r0]
    3f50:	01000009 	tsteq	r0, r9
    3f54:	009b882b 	addseq	r8, fp, fp, lsr #16
    3f58:	00001400 	andeq	r1, r0, r0, lsl #8
    3f5c:	de9c0100 	fmllee	f0, f4, f0
    3f60:	0b000001 	bleq	3f6c <__code_start__-0x4094>
    3f64:	00636573 	rsbeq	r6, r3, r3, ror r5
    3f68:	002c2b01 	eoreq	r2, ip, r1, lsl #22
    3f6c:	10a70000 	adcne	r0, r7, r0
    3f70:	98070000 	stmdals	r7, {}	; <UNPREDICTABLE>
    3f74:	6b00009b 	blvs	41e8 <__code_start__-0x3e18>
    3f78:	08000001 	stmdaeq	r0, {r0}
    3f7c:	f3075001 	vhadd.u8	d5, d7, d1
    3f80:	e80a5001 	stmda	sl, {r0, ip, lr}
    3f84:	00001e03 	andeq	r1, r0, r3, lsl #28
    3f88:	0009d30e 	andeq	sp, r9, lr, lsl #6
    3f8c:	2ca70200 	sfmcs	f0, 4, [r7]
    3f90:	f3000000 	vhadd.u8	d0, d0, d0
    3f94:	0f000001 	svceq	0x00000001
    3f98:	0000002c 	andeq	r0, r0, ip, lsr #32
    3f9c:	08df1000 	ldmeq	pc, {ip}^	; <UNPREDICTABLE>
    3fa0:	89020000 	stmdbhi	r2, {}	; <UNPREDICTABLE>
    3fa4:	000cc500 	andeq	ip, ip, r0, lsl #10
    3fa8:	31000400 	tstcc	r0, r0, lsl #8
    3fac:	04000014 	streq	r0, [r0], #-20
    3fb0:	000da001 	andeq	sl, sp, r1
    3fb4:	0b030c00 	bleq	c6fbc <__bss_end__+0xbc424>
    3fb8:	0b1e0000 	bleq	783fc0 <__bss_end__+0x779428>
    3fbc:	9c000000 	stcls	0, cr0, [r0], {-0}
    3fc0:	01780000 	cmneq	r8, r0
    3fc4:	11150000 	tstne	r5, r0
    3fc8:	04020000 	streq	r0, [r2], #-0
    3fcc:	746e6905 	strbtvc	r6, [lr], #-2309	; 0x905
    3fd0:	07040300 	streq	r0, [r4, -r0, lsl #6]
    3fd4:	0000009e 	muleq	r0, lr, r0
    3fd8:	00002c04 	andeq	r2, r0, r4, lsl #24
    3fdc:	06010300 	streq	r0, [r1], -r0, lsl #6
    3fe0:	0000017e 	andeq	r0, r0, lr, ror r1
    3fe4:	a1050203 	tstge	r5, r3, lsl #4
    3fe8:	03000001 	movweq	r0, #1
    3fec:	00b00504 	adcseq	r0, r0, r4, lsl #10
    3ff0:	08030000 	stmdaeq	r3, {}	; <UNPREDICTABLE>
    3ff4:	0000ab05 	andeq	sl, r0, r5, lsl #22
    3ff8:	08010300 	stmdaeq	r1, {r8, r9}
    3ffc:	0000017c 	andeq	r0, r0, ip, ror r1
    4000:	f0070203 			; <UNDEFINED> instruction: 0xf0070203
    4004:	03000000 	movweq	r0, #0
    4008:	00990704 	addseq	r0, r9, r4, lsl #14
    400c:	08030000 	stmdaeq	r3, {}	; <UNPREDICTABLE>
    4010:	00009407 	andeq	r9, r0, r7, lsl #8
    4014:	0cb50500 	cfldr32eq	mvfx0, [r5]
    4018:	07020000 	streq	r0, [r2, -r0]
    401c:	00000025 	andeq	r0, r0, r5, lsr #32
    4020:	000c9f05 	andeq	r9, ip, r5, lsl #30
    4024:	462c0300 	strtmi	r0, [ip], -r0, lsl #6
    4028:	05000000 	streq	r0, [r0, #-0]
    402c:	00000d7b 	andeq	r0, r0, fp, ror sp
    4030:	00467203 	subeq	r7, r6, r3, lsl #4
    4034:	43060000 	movwmi	r0, #24576	; 0x6000
    4038:	0400000c 	streq	r0, [r0], #-12
    403c:	002c0165 	eoreq	r0, ip, r5, ror #2
    4040:	04070000 	streq	r0, [r7], #-0
    4044:	00bca603 	adcseq	sl, ip, r3, lsl #12
    4048:	2e080000 	cdpcs	0, 0, cr0, cr8, cr0, {0}
    404c:	0300000c 	movweq	r0, #12
    4050:	000091a8 	andeq	r9, r0, r8, lsr #3
    4054:	0bd60800 	bleq	ff58605c <__bss_end__+0xff57b4c4>
    4058:	a9030000 	stmdbge	r3, {}	; <UNPREDICTABLE>
    405c:	000000bc 	strheq	r0, [r0], -ip
    4060:	00540900 	subseq	r0, r4, r0, lsl #18
    4064:	00cc0000 	sbceq	r0, ip, r0
    4068:	cc0a0000 	stcgt	0, cr0, [sl], {-0}
    406c:	03000000 	movweq	r0, #0
    4070:	07040300 	streq	r0, [r4, -r0, lsl #6]
    4074:	00000121 	andeq	r0, r0, r1, lsr #2
    4078:	a303080b 	movwge	r0, #14347	; 0x380b
    407c:	000000f4 	strdeq	r0, [r0], -r4
    4080:	000d600c 	andeq	r6, sp, ip
    4084:	25a50300 	strcs	r0, [r5, #768]!	; 0x300
    4088:	00000000 	andeq	r0, r0, r0
    408c:	000d680c 	andeq	r6, sp, ip, lsl #16
    4090:	9daa0300 	stcls	3, cr0, [sl]
    4094:	04000000 	streq	r0, [r0], #-0
    4098:	0cf30500 	cfldr64eq	mvdx0, [r3]
    409c:	ab030000 	blge	c40a4 <__bss_end__+0xb950c>
    40a0:	000000d3 	ldrdeq	r0, [r0], -r3
    40a4:	000b9f05 	andeq	r9, fp, r5, lsl #30
    40a8:	70af0300 	adcvc	r0, pc, r0, lsl #6
    40ac:	0d000000 	stceq	0, cr0, [r0, #-0]
    40b0:	12040e04 	andne	r0, r4, #4, 28	; 0x40
    40b4:	03000001 	movweq	r0, #1
    40b8:	01850801 	orreq	r0, r5, r1, lsl #16
    40bc:	120f0000 	andne	r0, pc, #0
    40c0:	05000001 	streq	r0, [r0, #-1]
    40c4:	00000e1d 	andeq	r0, r0, sp, lsl lr
    40c8:	00621605 	rsbeq	r1, r2, r5, lsl #12
    40cc:	b0100000 	andslt	r0, r0, r0
    40d0:	1800000b 	stmdane	r0, {r0, r1, r3}
    40d4:	017c2d05 	cmneq	ip, r5, lsl #26
    40d8:	140c0000 	strne	r0, [ip], #-0
    40dc:	0500000d 	streq	r0, [r0, #-13]
    40e0:	00017c2f 	andeq	r7, r1, pc, lsr #24
    40e4:	5f110000 	svcpl	0x00110000
    40e8:	3005006b 	andcc	r0, r5, fp, rrx
    40ec:	00000025 	andeq	r0, r0, r5, lsr #32
    40f0:	0d4b0c04 	stcleq	12, cr0, [fp, #-16]
    40f4:	30050000 	andcc	r0, r5, r0
    40f8:	00000025 	andeq	r0, r0, r5, lsr #32
    40fc:	0b8b0c08 	bleq	fe2c7124 <__bss_end__+0xfe2bc58c>
    4100:	30050000 	andcc	r0, r5, r0
    4104:	00000025 	andeq	r0, r0, r5, lsr #32
    4108:	0e640c0c 	cdpeq	12, 6, cr0, cr4, cr12, {0}
    410c:	30050000 	andcc	r0, r5, r0
    4110:	00000025 	andeq	r0, r0, r5, lsr #32
    4114:	785f1110 	ldmdavc	pc, {r4, r8, ip}^	; <UNPREDICTABLE>
    4118:	82310500 	eorshi	r0, r1, #0, 10
    411c:	14000001 	strne	r0, [r0], #-1
    4120:	29040e00 	stmdbcs	r4, {r9, sl, fp}
    4124:	09000001 	stmdbeq	r0, {r0}
    4128:	0000011e 	andeq	r0, r0, lr, lsl r1
    412c:	00000192 	muleq	r0, r2, r1
    4130:	0000cc0a 	andeq	ip, r0, sl, lsl #24
    4134:	10000000 	andne	r0, r0, r0
    4138:	00000bd1 	ldrdeq	r0, [r0], -r1
    413c:	0b350524 	bleq	d455d4 <__bss_end__+0xd3aa3c>
    4140:	0c000002 	stceq	0, cr0, [r0], {2}
    4144:	00000a89 	andeq	r0, r0, r9, lsl #21
    4148:	00253705 	eoreq	r3, r5, r5, lsl #14
    414c:	0c000000 	stceq	0, cr0, [r0], {-0}
    4150:	00000d83 	andeq	r0, r0, r3, lsl #27
    4154:	00253805 	eoreq	r3, r5, r5, lsl #16
    4158:	0c040000 	stceq	0, cr0, [r4], {-0}
    415c:	00000ab7 			; <UNDEFINED> instruction: 0x00000ab7
    4160:	00253905 	eoreq	r3, r5, r5, lsl #18
    4164:	0c080000 	stceq	0, cr0, [r8], {-0}
    4168:	00000f54 	andeq	r0, r0, r4, asr pc
    416c:	00253a05 	eoreq	r3, r5, r5, lsl #20
    4170:	0c0c0000 	stceq	0, cr0, [ip], {-0}
    4174:	00000c83 	andeq	r0, r0, r3, lsl #25
    4178:	00253b05 	eoreq	r3, r5, r5, lsl #22
    417c:	0c100000 	ldceq	0, cr0, [r0], {-0}
    4180:	00000c58 	andeq	r0, r0, r8, asr ip
    4184:	00253c05 	eoreq	r3, r5, r5, lsl #24
    4188:	0c140000 	ldceq	0, cr0, [r4], {-0}
    418c:	00000e69 	andeq	r0, r0, r9, ror #28
    4190:	00253d05 	eoreq	r3, r5, r5, lsl #26
    4194:	0c180000 	ldceq	0, cr0, [r8], {-0}
    4198:	00000cd5 	ldrdeq	r0, [r0], -r5
    419c:	00253e05 	eoreq	r3, r5, r5, lsl #28
    41a0:	0c1c0000 	ldceq	0, cr0, [ip], {-0}
    41a4:	00000f1b 	andeq	r0, r0, fp, lsl pc
    41a8:	00253f05 	eoreq	r3, r5, r5, lsl #30
    41ac:	00200000 	eoreq	r0, r0, r0
    41b0:	000ac612 	andeq	ip, sl, r2, lsl r6
    41b4:	05010800 	streq	r0, [r1, #-2048]	; 0x800
    41b8:	00024b48 	andeq	r4, r2, r8, asr #22
    41bc:	0b720c00 	bleq	1c871c4 <__bss_end__+0x1c7c62c>
    41c0:	49050000 	stmdbmi	r5, {}	; <UNPREDICTABLE>
    41c4:	0000024b 	andeq	r0, r0, fp, asr #4
    41c8:	0a040c00 	beq	1071d0 <__bss_end__+0xfc638>
    41cc:	4a050000 	bmi	1441d4 <__bss_end__+0x13963c>
    41d0:	0000024b 	andeq	r0, r0, fp, asr #4
    41d4:	0e0f1380 	cdpeq	3, 0, cr1, cr15, cr0, {4}
    41d8:	4c050000 	stcmi	0, cr0, [r5], {-0}
    41dc:	0000011e 	andeq	r0, r0, lr, lsl r1
    41e0:	eb130100 	bl	4c45e8 <__bss_end__+0x4b9a50>
    41e4:	0500000a 	streq	r0, [r0, #-10]
    41e8:	00011e4f 	andeq	r1, r1, pc, asr #28
    41ec:	00010400 	andeq	r0, r1, r0, lsl #8
    41f0:	00010a09 	andeq	r0, r1, r9, lsl #20
    41f4:	00025b00 	andeq	r5, r2, r0, lsl #22
    41f8:	00cc0a00 	sbceq	r0, ip, r0, lsl #20
    41fc:	001f0000 	andseq	r0, pc, r0
    4200:	000c8c12 	andeq	r8, ip, r2, lsl ip
    4204:	05019000 	streq	r9, [r1, #-0]
    4208:	0002995b 	andeq	r9, r2, fp, asr r9
    420c:	0d140c00 	ldceq	12, cr0, [r4, #-0]
    4210:	5c050000 	stcpl	0, cr0, [r5], {-0}
    4214:	00000299 	muleq	r0, r9, r2
    4218:	0d2c0c00 	stceq	12, cr0, [ip, #-0]
    421c:	5d050000 	stcpl	0, cr0, [r5, #-0]
    4220:	00000025 	andeq	r0, r0, r5, lsr #32
    4224:	0b860c04 	bleq	fe18723c <__bss_end__+0xfe17c6a4>
    4228:	5f050000 	svcpl	0x00050000
    422c:	0000029f 	muleq	r0, pc, r2	; <UNPREDICTABLE>
    4230:	0ac60c08 	beq	ff187258 <__bss_end__+0xff17c6c0>
    4234:	60050000 	andvs	r0, r5, r0
    4238:	0000020b 	andeq	r0, r0, fp, lsl #4
    423c:	040e0088 	streq	r0, [lr], #-136	; 0x88
    4240:	0000025b 	andeq	r0, r0, fp, asr r2
    4244:	0002af09 	andeq	sl, r2, r9, lsl #30
    4248:	0002af00 	andeq	sl, r2, r0, lsl #30
    424c:	00cc0a00 	sbceq	r0, ip, r0, lsl #20
    4250:	001f0000 	andseq	r0, pc, r0
    4254:	02b5040e 	adcseq	r0, r5, #234881024	; 0xe000000
    4258:	10140000 	andsne	r0, r4, r0
    425c:	00000cdf 	ldrdeq	r0, [r0], -pc	; <UNPREDICTABLE>
    4260:	db730508 	blle	1cc5688 <__bss_end__+0x1cbaaf0>
    4264:	0c000002 	stceq	0, cr0, [r0], {2}
    4268:	00000aac 	andeq	r0, r0, ip, lsr #21
    426c:	02db7405 	sbcseq	r7, fp, #83886080	; 0x5000000
    4270:	0c000000 	stceq	0, cr0, [r0], {-0}
    4274:	00000a10 	andeq	r0, r0, r0, lsl sl
    4278:	00257505 	eoreq	r7, r5, r5, lsl #10
    427c:	00040000 	andeq	r0, r4, r0
    4280:	0054040e 	subseq	r0, r4, lr, lsl #8
    4284:	fe100000 	cdp2	0, 1, cr0, cr0, cr0, {0}
    4288:	6800000c 	stmdavs	r0, {r2, r3}
    428c:	040bb305 	streq	fp, [fp], #-773	; 0x305
    4290:	5f110000 	svcpl	0x00110000
    4294:	b4050070 	strlt	r0, [r5], #-112	; 0x70
    4298:	000002db 	ldrdeq	r0, [r0], -fp
    429c:	725f1100 	subsvc	r1, pc, #0, 2
    42a0:	25b50500 	ldrcs	r0, [r5, #1280]!	; 0x500
    42a4:	04000000 	streq	r0, [r0], #-0
    42a8:	00775f11 	rsbseq	r5, r7, r1, lsl pc
    42ac:	0025b605 	eoreq	fp, r5, r5, lsl #12
    42b0:	0c080000 	stceq	0, cr0, [r8], {-0}
    42b4:	00000ae4 	andeq	r0, r0, r4, ror #21
    42b8:	003fb705 	eorseq	fp, pc, r5, lsl #14
    42bc:	0c0c0000 	stceq	0, cr0, [ip], {-0}
    42c0:	00000bf7 	strdeq	r0, [r0], -r7
    42c4:	003fb805 	eorseq	fp, pc, r5, lsl #16
    42c8:	110e0000 	mrsne	r0, (UNDEF: 14)
    42cc:	0066625f 	rsbeq	r6, r6, pc, asr r2
    42d0:	02b6b905 	adcseq	fp, r6, #81920	; 0x14000
    42d4:	0c100000 	ldceq	0, cr0, [r0], {-0}
    42d8:	00000a53 	andeq	r0, r0, r3, asr sl
    42dc:	0025ba05 	eoreq	fp, r5, r5, lsl #20
    42e0:	0c180000 	ldceq	0, cr0, [r8], {-0}
    42e4:	00000ad4 	ldrdeq	r0, [r0], -r4
    42e8:	010ac105 	tsteq	sl, r5, lsl #2
    42ec:	0c1c0000 	ldceq	0, cr0, [ip], {-0}
    42f0:	00000f7b 	andeq	r0, r0, fp, ror pc
    42f4:	0566c305 	strbeq	ip, [r6, #-773]!	; 0x305
    42f8:	0c200000 	stceq	0, cr0, [r0], #-0
    42fc:	00000f95 	muleq	r0, r5, pc	; <UNPREDICTABLE>
    4300:	0590c505 	ldreq	ip, [r0, #1285]	; 0x505
    4304:	0c240000 	stceq	0, cr0, [r4], #-0
    4308:	00000d70 	andeq	r0, r0, r0, ror sp
    430c:	05b4c805 	ldreq	ip, [r4, #2053]!	; 0x805
    4310:	0c280000 	stceq	0, cr0, [r8], #-0
    4314:	00000f35 	andeq	r0, r0, r5, lsr pc
    4318:	05cec905 	strbeq	ip, [lr, #2309]	; 0x905
    431c:	112c0000 	teqne	ip, r0
    4320:	0062755f 	rsbeq	r7, r2, pc, asr r5
    4324:	02b6cc05 	adcseq	ip, r6, #1280	; 0x500
    4328:	11300000 	teqne	r0, r0
    432c:	0070755f 	rsbseq	r7, r0, pc, asr r5
    4330:	02dbcd05 	sbcseq	ip, fp, #320	; 0x140
    4334:	11380000 	teqne	r8, r0
    4338:	0072755f 	rsbseq	r7, r2, pc, asr r5
    433c:	0025ce05 	eoreq	ip, r5, r5, lsl #28
    4340:	0c3c0000 	ldceq	0, cr0, [ip], #-0
    4344:	00000a97 	muleq	r0, r7, sl
    4348:	05d4d105 	ldrbeq	sp, [r4, #261]	; 0x105
    434c:	0c400000 	mareq	acc0, r0, r0
    4350:	00000ee0 	andeq	r0, r0, r0, ror #29
    4354:	05e4d205 	strbeq	sp, [r4, #517]!	; 0x205
    4358:	11430000 	mrsne	r0, (UNDEF: 67)
    435c:	00626c5f 	rsbeq	r6, r2, pc, asr ip
    4360:	02b6d505 	adcseq	sp, r6, #20971520	; 0x1400000
    4364:	0c440000 	mareq	acc0, r0, r4
    4368:	00000afa 	strdeq	r0, [r0], -sl
    436c:	0025d805 	eoreq	sp, r5, r5, lsl #16
    4370:	0c4c0000 	mareq	acc0, r0, ip
    4374:	00000c62 	andeq	r0, r0, r2, ror #24
    4378:	007bd905 	rsbseq	sp, fp, r5, lsl #18
    437c:	0c500000 	mraeq	r0, r0, acc0
    4380:	00000ecb 	andeq	r0, r0, fp, asr #29
    4384:	0429dc05 	strteq	sp, [r9], #-3077	; 0xc05
    4388:	0c540000 	mraeq	r0, r4, acc0
    438c:	00000c4a 	andeq	r0, r0, sl, asr #24
    4390:	00ffe005 	rscseq	lr, pc, r5
    4394:	0c580000 	mraeq	r0, r8, acc0
    4398:	00000d06 	andeq	r0, r0, r6, lsl #26
    439c:	00f4e205 	rscseq	lr, r4, r5, lsl #4
    43a0:	0c5c0000 	mraeq	r0, ip, acc0
    43a4:	00000c50 	andeq	r0, r0, r0, asr ip
    43a8:	0025e305 	eoreq	lr, r5, r5, lsl #6
    43ac:	00640000 	rsbeq	r0, r4, r0
    43b0:	00002515 	andeq	r2, r0, r5, lsl r5
    43b4:	00042900 	andeq	r2, r4, r0, lsl #18
    43b8:	04291600 	strteq	r1, [r9], #-1536	; 0x600
    43bc:	0a160000 	beq	5843c4 <__bss_end__+0x57982c>
    43c0:	16000001 	strne	r0, [r0], -r1
    43c4:	0000010c 	andeq	r0, r0, ip, lsl #2
    43c8:	00002516 	andeq	r2, r0, r6, lsl r5
    43cc:	040e0000 	streq	r0, [lr], #-0
    43d0:	00000434 	andeq	r0, r0, r4, lsr r4
    43d4:	0004290f 	andeq	r2, r4, pc, lsl #18
    43d8:	0d531700 	ldcleq	7, cr1, [r3, #-0]
    43dc:	04280000 	strteq	r0, [r8], #-0
    43e0:	66023805 	strvs	r3, [r2], -r5, lsl #16
    43e4:	18000005 	stmdane	r0, {r0, r2}
    43e8:	00000cce 	andeq	r0, r0, lr, asr #25
    43ec:	25023a05 	strcs	r3, [r2, #-2565]	; 0xa05
    43f0:	00000000 	andeq	r0, r0, r0
    43f4:	000af318 	andeq	pc, sl, r8, lsl r3	; <UNPREDICTABLE>
    43f8:	023f0500 	eorseq	r0, pc, #0, 10
    43fc:	0000063b 	andeq	r0, r0, fp, lsr r6
    4400:	0be71804 	bleq	ff9ca418 <__bss_end__+0xff9bf880>
    4404:	3f050000 	svccc	0x00050000
    4408:	00063b02 	andeq	r3, r6, r2, lsl #22
    440c:	a8180800 	ldmdage	r8, {fp}
    4410:	0500000b 	streq	r0, [r0, #-11]
    4414:	063b023f 			; <UNDEFINED> instruction: 0x063b023f
    4418:	180c0000 	stmdane	ip, {}	; <UNPREDICTABLE>
    441c:	00000d27 	andeq	r0, r0, r7, lsr #26
    4420:	25024105 	strcs	r4, [r2, #-261]	; 0x105
    4424:	10000000 	andne	r0, r0, r0
    4428:	000a1e18 	andeq	r1, sl, r8, lsl lr
    442c:	02420500 	subeq	r0, r2, #0, 10
    4430:	0000081d 	andeq	r0, r0, sp, lsl r8
    4434:	0e451814 	mcreq	8, 2, r1, cr5, cr4, {0}
    4438:	44050000 	strmi	r0, [r5], #-0
    443c:	00002502 	andeq	r2, r0, r2, lsl #10
    4440:	31183000 	tstcc	r8, r0
    4444:	0500000d 	streq	r0, [r0, #-13]
    4448:	058a0245 	streq	r0, [sl, #581]	; 0x245
    444c:	18340000 	ldmdane	r4!, {}	; <UNPREDICTABLE>
    4450:	00000c94 	muleq	r0, r4, ip
    4454:	25024705 	strcs	r4, [r2, #-1797]	; 0x705
    4458:	38000000 	stmdacc	r0, {}	; <UNPREDICTABLE>
    445c:	000d4118 	andeq	r4, sp, r8, lsl r1
    4460:	02490500 	subeq	r0, r9, #0, 10
    4464:	00000838 	andeq	r0, r0, r8, lsr r8
    4468:	0c26183c 	stceq	8, cr1, [r6], #-240	; 0xffffff10
    446c:	4c050000 	stcmi	0, cr0, [r5], {-0}
    4470:	00017c02 	andeq	r7, r1, r2, lsl #24
    4474:	c7184000 	ldrgt	r4, [r8, -r0]
    4478:	0500000b 	streq	r0, [r0, #-11]
    447c:	0025024d 	eoreq	r0, r5, sp, asr #4
    4480:	18440000 	stmdane	r4, {}^	; <UNPREDICTABLE>
    4484:	00000f4f 	andeq	r0, r0, pc, asr #30
    4488:	7c024e05 	stcvc	14, cr4, [r2], {5}
    448c:	48000001 	stmdami	r0, {r0}
    4490:	000cab18 	andeq	sl, ip, r8, lsl fp
    4494:	024f0500 	subeq	r0, pc, #0, 10
    4498:	0000083e 	andeq	r0, r0, lr, lsr r8
    449c:	0bef184c 	bleq	ffbca5d4 <__bss_end__+0xffbbfa3c>
    44a0:	52050000 	andpl	r0, r5, #0
    44a4:	00002502 	andeq	r2, r0, r2, lsl #10
    44a8:	16185000 	ldrne	r5, [r8], -r0
    44ac:	0500000b 	streq	r0, [r0, #-11]
    44b0:	010c0253 	tsteq	ip, r3, asr r2
    44b4:	18540000 	ldmdane	r4, {}^	; <UNPREDICTABLE>
    44b8:	00000cc7 	andeq	r0, r0, r7, asr #25
    44bc:	fb027605 	blx	a1cda <__bss_end__+0x97142>
    44c0:	58000007 	stmdapl	r0, {r0, r1, r2}
    44c4:	000c8c19 	andeq	r8, ip, r9, lsl ip
    44c8:	027a0500 	rsbseq	r0, sl, #0, 10
    44cc:	00000299 	muleq	r0, r9, r2
    44d0:	04190148 	ldreq	r0, [r9], #-328	; 0x148
    44d4:	0500000c 	streq	r0, [r0, #-12]
    44d8:	025b027b 	subseq	r0, fp, #-1342177273	; 0xb0000007
    44dc:	014c0000 	mrseq	r0, (UNDEF: 76)
    44e0:	000eb119 	andeq	fp, lr, r9, lsl r1
    44e4:	027f0500 	rsbseq	r0, pc, #0, 10
    44e8:	0000084f 	andeq	r0, r0, pc, asr #16
    44ec:	dc1902dc 	lfmle	f0, 4, [r9], {220}	; 0xdc
    44f0:	0500000a 	streq	r0, [r0, #-10]
    44f4:	06000284 	streq	r0, [r0], -r4, lsl #5
    44f8:	02e00000 	rsceq	r0, r0, #0
    44fc:	000ac119 	andeq	ip, sl, r9, lsl r1
    4500:	02850500 	addeq	r0, r5, #0, 10
    4504:	0000085b 	andeq	r0, r0, fp, asr r8
    4508:	0e0002ec 	cdpeq	2, 0, cr0, cr0, cr12, {7}
    450c:	00040b04 	andeq	r0, r4, r4, lsl #22
    4510:	00251500 	eoreq	r1, r5, r0, lsl #10
    4514:	058a0000 	streq	r0, [sl]
    4518:	29160000 	ldmdbcs	r6, {}	; <UNPREDICTABLE>
    451c:	16000004 	strne	r0, [r0], -r4
    4520:	0000010a 	andeq	r0, r0, sl, lsl #2
    4524:	00058a16 	andeq	r8, r5, r6, lsl sl
    4528:	00251600 	eoreq	r1, r5, r0, lsl #12
    452c:	0e000000 	cdpeq	0, 0, cr0, cr0, cr0, {0}
    4530:	00011904 	andeq	r1, r1, r4, lsl #18
    4534:	6c040e00 	stcvs	14, cr0, [r4], {-0}
    4538:	15000005 	strne	r0, [r0, #-5]
    453c:	00000086 	andeq	r0, r0, r6, lsl #1
    4540:	000005b4 			; <UNDEFINED> instruction: 0x000005b4
    4544:	00042916 	andeq	r2, r4, r6, lsl r9
    4548:	010a1600 	tsteq	sl, r0, lsl #12
    454c:	86160000 	ldrhi	r0, [r6], -r0
    4550:	16000000 	strne	r0, [r0], -r0
    4554:	00000025 	andeq	r0, r0, r5, lsr #32
    4558:	96040e00 	strls	r0, [r4], -r0, lsl #28
    455c:	15000005 	strne	r0, [r0, #-5]
    4560:	00000025 	andeq	r0, r0, r5, lsr #32
    4564:	000005ce 	andeq	r0, r0, lr, asr #11
    4568:	00042916 	andeq	r2, r4, r6, lsl r9
    456c:	010a1600 	tsteq	sl, r0, lsl #12
    4570:	0e000000 	cdpeq	0, 0, cr0, cr0, cr0, {0}
    4574:	0005ba04 	andeq	fp, r5, r4, lsl #20
    4578:	00540900 	subseq	r0, r4, r0, lsl #18
    457c:	05e40000 	strbeq	r0, [r4, #0]!
    4580:	cc0a0000 	stcgt	0, cr0, [sl], {-0}
    4584:	02000000 	andeq	r0, r0, #0
    4588:	00540900 	subseq	r0, r4, r0, lsl #18
    458c:	05f40000 	ldrbeq	r0, [r4, #0]!
    4590:	cc0a0000 	stcgt	0, cr0, [sl], {-0}
    4594:	00000000 	andeq	r0, r0, r0
    4598:	0cec0600 	stcleq	6, cr0, [ip]
    459c:	1d050000 	stcne	0, cr0, [r5, #-0]
    45a0:	0002e101 	andeq	lr, r2, r1, lsl #2
    45a4:	0e731a00 	vaddeq.f32	s3, s6, s0
    45a8:	050c0000 	streq	r0, [ip, #-0]
    45ac:	06350121 	ldrteq	r0, [r5], -r1, lsr #2
    45b0:	14180000 	ldrne	r0, [r8], #-0
    45b4:	0500000d 	streq	r0, [r0, #-13]
    45b8:	06350123 	ldrteq	r0, [r5], -r3, lsr #2
    45bc:	18000000 	stmdane	r0, {}	; <UNPREDICTABLE>
    45c0:	00000bfd 	strdeq	r0, [r0], -sp
    45c4:	25012405 	strcs	r2, [r1, #-1029]	; 0x405
    45c8:	04000000 	streq	r0, [r0], #-0
    45cc:	000ce618 	andeq	lr, ip, r8, lsl r6
    45d0:	01250500 	teqeq	r5, r0, lsl #10
    45d4:	0000063b 	andeq	r0, r0, fp, lsr r6
    45d8:	040e0008 	streq	r0, [lr], #-8
    45dc:	00000600 	andeq	r0, r0, r0, lsl #12
    45e0:	05f4040e 	ldrbeq	r0, [r4, #1038]!	; 0x40e
    45e4:	161a0000 	ldrne	r0, [sl], -r0
    45e8:	0e00000a 	cdpeq	0, 0, cr0, cr0, cr10, {0}
    45ec:	76013d05 	strvc	r3, [r1], -r5, lsl #26
    45f0:	18000006 	stmdane	r0, {r1, r2}
    45f4:	00000d5a 	andeq	r0, r0, sl, asr sp
    45f8:	76013e05 	strvc	r3, [r1], -r5, lsl #28
    45fc:	00000006 	andeq	r0, r0, r6
    4600:	000d9418 	andeq	r9, sp, r8, lsl r4
    4604:	013f0500 	teqeq	pc, r0, lsl #10
    4608:	00000676 	andeq	r0, r0, r6, ror r6
    460c:	0e181806 	cdpeq	8, 1, cr1, cr8, cr6, {0}
    4610:	40050000 	andmi	r0, r5, r0
    4614:	00005b01 	andeq	r5, r0, r1, lsl #22
    4618:	09000c00 	stmdbeq	r0, {sl, fp}
    461c:	0000005b 	andeq	r0, r0, fp, asr r0
    4620:	00000686 	andeq	r0, r0, r6, lsl #13
    4624:	0000cc0a 	andeq	ip, r0, sl, lsl #24
    4628:	1b000200 	blne	4e30 <__code_start__-0x31d0>
    462c:	025705d0 	subseq	r0, r7, #208, 10	; 0x34000000
    4630:	00000787 	andeq	r0, r0, r7, lsl #15
    4634:	000e5718 	andeq	r5, lr, r8, lsl r7
    4638:	02590500 	subseq	r0, r9, #0, 10
    463c:	0000002c 	andeq	r0, r0, ip, lsr #32
    4640:	0e021800 	cdpeq	8, 0, cr1, cr2, cr0, {0}
    4644:	5a050000 	bpl	14464c <__bss_end__+0x139ab4>
    4648:	00010c02 	andeq	r0, r1, r2, lsl #24
    464c:	19180400 	ldmdbne	r8, {sl}
    4650:	0500000c 	streq	r0, [r0, #-12]
    4654:	0787025b 			; <UNDEFINED> instruction: 0x0787025b
    4658:	18080000 	stmdane	r8, {}	; <UNPREDICTABLE>
    465c:	00000f26 	andeq	r0, r0, r6, lsr #30
    4660:	92025c05 	andls	r5, r2, #1280	; 0x500
    4664:	24000001 	strcs	r0, [r0], #-1
    4668:	000bb818 	andeq	fp, fp, r8, lsl r8
    466c:	025d0500 	subseq	r0, sp, #0, 10
    4670:	00000025 	andeq	r0, r0, r5, lsr #32
    4674:	0d0f1848 	stceq	8, cr1, [pc, #-288]	; 455c <__code_start__-0x3aa4>
    4678:	5e050000 	cdppl	0, 0, cr0, cr5, cr0, {0}
    467c:	00006902 	andeq	r6, r0, r2, lsl #18
    4680:	3c185000 	ldccc	0, cr5, [r8], {-0}
    4684:	0500000f 	streq	r0, [r0, #-15]
    4688:	0641025f 			; <UNDEFINED> instruction: 0x0641025f
    468c:	18580000 	ldmdane	r8, {}^	; <UNPREDICTABLE>
    4690:	00000d1a 	andeq	r0, r0, sl, lsl sp
    4694:	f4026005 	vst4.8	{d6-d9}, [r2], r5
    4698:	68000000 	stmdavs	r0, {}	; <UNPREDICTABLE>
    469c:	000f4118 	andeq	r4, pc, r8, lsl r1	; <UNPREDICTABLE>
    46a0:	02610500 	rsbeq	r0, r1, #0, 10
    46a4:	000000f4 	strdeq	r0, [r0], -r4
    46a8:	0a7b1870 	beq	1eca870 <__bss_end__+0x1ebfcd8>
    46ac:	62050000 	andvs	r0, r5, #0
    46b0:	0000f402 	andeq	pc, r0, r2, lsl #8
    46b4:	93187800 	tstls	r8, #0, 16
    46b8:	0500000e 	streq	r0, [r0, #-14]
    46bc:	07970263 	ldreq	r0, [r7, r3, ror #4]
    46c0:	18800000 	stmne	r0, {}	; <UNPREDICTABLE>
    46c4:	00000c0d 	andeq	r0, r0, sp, lsl #24
    46c8:	a7026405 	strge	r6, [r2, -r5, lsl #8]
    46cc:	88000007 	stmdahi	r0, {r0, r1, r2}
    46d0:	000e2518 	andeq	r2, lr, r8, lsl r5
    46d4:	02650500 	rsbeq	r0, r5, #0, 10
    46d8:	00000025 	andeq	r0, r0, r5, lsr #32
    46dc:	0b6418a0 	bleq	190a964 <__bss_end__+0x18ffdcc>
    46e0:	66050000 	strvs	r0, [r5], -r0
    46e4:	0000f402 	andeq	pc, r0, r2, lsl #8
    46e8:	6c18a400 	cfldrsvs	mvf10, [r8], {-0}
    46ec:	0500000a 	streq	r0, [r0, #-10]
    46f0:	00f40267 	rscseq	r0, r4, r7, ror #4
    46f4:	18ac0000 	stmiane	ip!, {}	; <UNPREDICTABLE>
    46f8:	00000b53 	andeq	r0, r0, r3, asr fp
    46fc:	f4026805 	vst2.8	{d6-d7}, [r2], r5
    4700:	b4000000 	strlt	r0, [r0], #-0
    4704:	000a3318 	andeq	r3, sl, r8, lsl r3
    4708:	02690500 	rsbeq	r0, r9, #0, 10
    470c:	000000f4 	strdeq	r0, [r0], -r4
    4710:	0a4218bc 	beq	108aa08 <__bss_end__+0x107fe70>
    4714:	6a050000 	bvs	14471c <__bss_end__+0x139b84>
    4718:	0000f402 	andeq	pc, r0, r2, lsl #8
    471c:	cc18c400 	cfldrsgt	mvf12, [r8], {-0}
    4720:	0500000c 	streq	r0, [r0, #-12]
    4724:	0025026b 	eoreq	r0, r5, fp, ror #4
    4728:	00cc0000 	sbceq	r0, ip, r0
    472c:	00011209 	andeq	r1, r1, r9, lsl #4
    4730:	00079700 	andeq	r9, r7, r0, lsl #14
    4734:	00cc0a00 	sbceq	r0, ip, r0, lsl #20
    4738:	00190000 	andseq	r0, r9, r0
    473c:	00011209 	andeq	r1, r1, r9, lsl #4
    4740:	0007a700 	andeq	sl, r7, r0, lsl #14
    4744:	00cc0a00 	sbceq	r0, ip, r0, lsl #20
    4748:	00070000 	andeq	r0, r7, r0
    474c:	00011209 	andeq	r1, r1, r9, lsl #4
    4750:	0007b700 	andeq	fp, r7, r0, lsl #14
    4754:	00cc0a00 	sbceq	r0, ip, r0, lsl #20
    4758:	00170000 	andseq	r0, r7, r0
    475c:	7005f01b 	andvc	pc, r5, fp, lsl r0	; <UNPREDICTABLE>
    4760:	0007db02 	andeq	sp, r7, r2, lsl #22
    4764:	0c7c1800 	ldcleq	8, cr1, [ip], #-0
    4768:	73050000 	movwvc	r0, #20480	; 0x5000
    476c:	0007db02 	andeq	sp, r7, r2, lsl #22
    4770:	8a180000 	bhi	604778 <__bss_end__+0x5f9be0>
    4774:	0500000e 	streq	r0, [r0, #-14]
    4778:	07eb0274 			; <UNDEFINED> instruction: 0x07eb0274
    477c:	00780000 	rsbseq	r0, r8, r0
    4780:	0002db09 	andeq	sp, r2, r9, lsl #22
    4784:	0007eb00 	andeq	lr, r7, r0, lsl #22
    4788:	00cc0a00 	sbceq	r0, ip, r0, lsl #20
    478c:	001d0000 	andseq	r0, sp, r0
    4790:	00002c09 	andeq	r2, r0, r9, lsl #24
    4794:	0007fb00 	andeq	pc, r7, r0, lsl #22
    4798:	00cc0a00 	sbceq	r0, ip, r0, lsl #20
    479c:	001d0000 	andseq	r0, sp, r0
    47a0:	5505f01c 	strpl	pc, [r5, #-28]
    47a4:	00081d02 	andeq	r1, r8, r2, lsl #26
    47a8:	0d531d00 	ldcleq	13, cr1, [r3, #-0]
    47ac:	6c050000 	stcvs	0, cr0, [r5], {-0}
    47b0:	00068602 	andeq	r8, r6, r2, lsl #12
    47b4:	0ee61d00 	cdpeq	13, 14, cr1, cr6, cr0, {0}
    47b8:	75050000 	strvc	r0, [r5, #-0]
    47bc:	0007b702 	andeq	fp, r7, r2, lsl #14
    47c0:	12090000 	andne	r0, r9, #0
    47c4:	2d000001 	stccs	0, cr0, [r0, #-4]
    47c8:	0a000008 	beq	47f0 <__code_start__-0x3810>
    47cc:	000000cc 	andeq	r0, r0, ip, asr #1
    47d0:	381e0018 	ldmdacc	lr, {r3, r4}
    47d4:	16000008 	strne	r0, [r0], -r8
    47d8:	00000429 	andeq	r0, r0, r9, lsr #8
    47dc:	2d040e00 	stccs	14, cr0, [r4, #-0]
    47e0:	0e000008 	cdpeq	0, 0, cr0, cr0, cr8, {0}
    47e4:	00017c04 	andeq	r7, r1, r4, lsl #24
    47e8:	084f1e00 	stmdaeq	pc, {r9, sl, fp, ip}^	; <UNPREDICTABLE>
    47ec:	25160000 	ldrcs	r0, [r6, #-0]
    47f0:	00000000 	andeq	r0, r0, r0
    47f4:	0855040e 	ldmdaeq	r5, {r1, r2, r3, sl}^
    47f8:	040e0000 	streq	r0, [lr], #-0
    47fc:	00000844 	andeq	r0, r0, r4, asr #16
    4800:	0005f409 	andeq	pc, r5, r9, lsl #8
    4804:	00086b00 	andeq	r6, r8, r0, lsl #22
    4808:	00cc0a00 	sbceq	r0, ip, r0, lsl #20
    480c:	00020000 	andeq	r0, r2, r0
    4810:	000e391f 	andeq	r3, lr, pc, lsl r9
    4814:	02fd0500 	rscseq	r0, sp, #0, 10
    4818:	00000429 	andeq	r0, r0, r9, lsr #8
    481c:	000e321f 	andeq	r3, lr, pc, lsl r2
    4820:	02fe0500 	rscseq	r0, lr, #0, 10
    4824:	0000042f 	andeq	r0, r0, pc, lsr #8
    4828:	00002515 	andeq	r2, r0, r5, lsl r5
    482c:	00089200 	andeq	r9, r8, r0, lsl #4
    4830:	00251600 	eoreq	r1, r5, r0, lsl #12
    4834:	20000000 	andcs	r0, r0, r0
    4838:	00000633 	andeq	r0, r0, r3, lsr r6
    483c:	089d1d06 	ldmeq	sp, {r1, r2, r8, sl, fp, ip}
    4840:	040e0000 	streq	r0, [lr], #-0
    4844:	00000883 	andeq	r0, r0, r3, lsl #17
    4848:	00002515 	andeq	r2, r0, r5, lsl r5
    484c:	0008b200 	andeq	fp, r8, r0, lsl #4
    4850:	058a1600 	streq	r1, [sl, #1536]	; 0x600
    4854:	20000000 	andcs	r0, r0, r0
    4858:	00000670 	andeq	r0, r0, r0, ror r6
    485c:	08bd2206 	popeq	{r1, r2, r9, sp}
    4860:	040e0000 	streq	r0, [lr], #-0
    4864:	000008a3 	andeq	r0, r0, r3, lsr #17
    4868:	00540121 	subseq	r0, r4, r1, lsr #2
    486c:	0c080000 	stceq	0, cr0, [r8], {-0}
    4870:	00000900 	andeq	r0, r0, r0, lsl #18
    4874:	000a5c22 	andeq	r5, sl, r2, lsr #24
    4878:	79220000 	stmdbvc	r2!, {}	; <UNPREDICTABLE>
    487c:	0100000e 	tsteq	r0, lr
    4880:	000ed122 	andeq	sp, lr, r2, lsr #2
    4884:	9d220400 	cfstrsls	mvf0, [r2, #-0]
    4888:	0500000a 	streq	r0, [r0, #-10]
    488c:	000c3422 	andeq	r3, ip, r2, lsr #8
    4890:	ee220600 	cfmadda32	mvax0, mvax0, mvfx2, mvfx0
    4894:	0700000e 	streq	r0, [r0, -lr]
    4898:	000efd22 	andeq	pc, lr, r2, lsr #26
    489c:	0c220300 	stceq	3, cr0, [r2], #-0
    48a0:	0200000f 	andeq	r0, r0, #15
    48a4:	0b0a1000 	bleq	2888ac <__bss_end__+0x27dd14>
    48a8:	072c0000 	streq	r0, [ip, -r0]!
    48ac:	00099006 	andeq	r9, r9, r6
    48b0:	6f691100 	svcvs	0x00691100
    48b4:	33090700 	movwcc	r0, #38656	; 0x9700
    48b8:	00000000 	andeq	r0, r0, r0
    48bc:	72656911 	rsbvc	r6, r5, #278528	; 0x44000
    48c0:	330a0700 	movwcc	r0, #42752	; 0xa700
    48c4:	04000000 	streq	r0, [r0], #-0
    48c8:	72696911 	rsbvc	r6, r9, #278528	; 0x44000
    48cc:	33110700 	tstcc	r1, #0, 14
    48d0:	08000000 	stmdaeq	r0, {}	; <UNPREDICTABLE>
    48d4:	72636c11 	rsbvc	r6, r3, #4352	; 0x1100
    48d8:	33130700 	tstcc	r3, #0, 14
    48dc:	0c000000 	stceq	0, cr0, [r0], {-0}
    48e0:	72636d11 	rsbvc	r6, r3, #1088	; 0x440
    48e4:	33140700 	tstcc	r4, #0, 14
    48e8:	10000000 	andne	r0, r0, r0
    48ec:	72736c11 	rsbsvc	r6, r3, #4352	; 0x1100
    48f0:	33150700 	tstcc	r5, #0, 14
    48f4:	14000000 	strne	r0, [r0], #-0
    48f8:	72736d11 	rsbsvc	r6, r3, #1088	; 0x440
    48fc:	33160700 	tstcc	r6, #0, 14
    4900:	18000000 	stmdane	r0, {}	; <UNPREDICTABLE>
    4904:	000d8c0c 	andeq	r8, sp, ip, lsl #24
    4908:	33170700 	tstcc	r7, #0, 14
    490c:	1c000000 	stcne	0, cr0, [r0], {-0}
    4910:	000ab20c 	andeq	fp, sl, ip, lsl #4
    4914:	331b0700 	tstcc	fp, #0, 14
    4918:	20000000 	andcs	r0, r0, r0
    491c:	000a920c 	andeq	r9, sl, ip, lsl #4
    4920:	331d0700 	tstcc	sp, #0, 14
    4924:	24000000 	strcs	r0, [r0], #-0
    4928:	000d760c 	andeq	r7, sp, ip, lsl #12
    492c:	331e0700 	tstcc	lr, #0, 14
    4930:	28000000 	stmdacs	r0, {}	; <UNPREDICTABLE>
    4934:	0b7a2300 	bleq	1e8d53c <__bss_end__+0x1e829a4>
    4938:	07010000 	streq	r0, [r1, -r0]
    493c:	000009a5 	andeq	r0, r0, r5, lsr #19
    4940:	20215004 	eorcs	r5, r1, r4
    4944:	0033040e 	eorseq	r0, r3, lr, lsl #8
    4948:	9f0f0000 	svcls	0x000f0000
    494c:	23000009 	movwcs	r0, #9
    4950:	00000ca6 	andeq	r0, r0, r6, lsr #25
    4954:	09bf2801 	ldmibeq	pc!, {r0, fp, sp}	; <UNPREDICTABLE>
    4958:	50400000 	subpl	r0, r0, r0
    495c:	040e2021 	streq	r2, [lr], #-33	; 0x21
    4960:	00000900 	andeq	r0, r0, r0, lsl #18
    4964:	0009b90f 	andeq	fp, r9, pc, lsl #18
    4968:	0ec32400 	cdpeq	4, 12, cr2, cr3, cr0, {0}
    496c:	a7010000 	strge	r0, [r1, -r0]
    4970:	00000025 	andeq	r0, r0, r5, lsr #32
    4974:	00009d68 	andeq	r9, r0, r8, ror #26
    4978:	00000010 	andeq	r0, r0, r0, lsl r0
    497c:	09f09c01 	ldmibeq	r0!, {r0, sl, fp, ip, pc}^
    4980:	70250000 	eorvc	r0, r5, r0
    4984:	9c00009d 	stcls	0, cr0, [r0], {157}	; 0x9d
    4988:	2500000c 	strcs	r0, [r0, #-12]
    498c:	00009d74 	andeq	r9, r0, r4, ror sp
    4990:	00000ad2 	ldrdeq	r0, [r0], -r2
    4994:	06182600 	ldreq	r2, [r8], -r0, lsl #12
    4998:	9f010000 	svcls	0x00010000
    499c:	00009d38 	andeq	r9, r0, r8, lsr sp
    49a0:	00000030 	andeq	r0, r0, r0, lsr r0
    49a4:	0a4e9c01 	beq	13ab9b0 <__bss_end__+0x13a0e18>
    49a8:	63270000 	teqvs	r7, #0
    49ac:	2c9f0100 	ldfcss	f0, [pc], {0}
    49b0:	c8000000 	stmdagt	r0, {}	; <UNPREDICTABLE>
    49b4:	25000010 	strcs	r0, [r0, #-16]
    49b8:	00009d44 	andeq	r9, r0, r4, asr #26
    49bc:	00000c9c 	muleq	r0, ip, ip
    49c0:	009d4825 	addseq	r4, sp, r5, lsr #16
    49c4:	000aa500 	andeq	sl, sl, r0, lsl #10
    49c8:	9d5c2800 	ldclls	8, cr2, [ip, #-0]
    49cc:	0ca70000 	stceq	0, cr0, [r7]
    49d0:	0a440000 	beq	11049d8 <__bss_end__+0x10f9e40>
    49d4:	01290000 	teqeq	r9, r0
    49d8:	400c0550 	andmi	r0, ip, r0, asr r5
    49dc:	29202150 	stmdbcs	r0!, {r4, r6, r8, sp}
    49e0:	74055101 	strvc	r5, [r5], #-257	; 0x101
    49e4:	1aff0800 	bne	fffc69ec <__bss_end__+0xfffbbe54>
    49e8:	9d602500 	cfstr64ls	mvdx2, [r0, #-0]
    49ec:	0c9c0000 	ldceq	0, cr0, [ip], {0}
    49f0:	24000000 	strcs	r0, [r0], #-0
    49f4:	00000bdd 	ldrdeq	r0, [r0], -sp
    49f8:	00259701 	eoreq	r9, r5, r1, lsl #14
    49fc:	9d080000 	stcls	0, cr0, [r8, #-0]
    4a00:	00300000 	eorseq	r0, r0, r0
    4a04:	9c010000 	stcls	0, cr0, [r1], {-0}
    4a08:	00000aa5 	andeq	r0, r0, r5, lsr #21
    4a0c:	0100632a 	tsteq	r0, sl, lsr #6
    4a10:	0000259b 	muleq	r0, fp, r5
    4a14:	25540100 	ldrbcs	r0, [r4, #-256]	; 0x100
    4a18:	00009d10 	andeq	r9, r0, r0, lsl sp
    4a1c:	00000c9c 	muleq	r0, ip, ip
    4a20:	009d1425 	addseq	r1, sp, r5, lsr #8
    4a24:	000ad200 	andeq	sp, sl, r0, lsl #4
    4a28:	9d242800 	stcls	8, cr2, [r4, #-0]
    4a2c:	0cb20000 	ldceq	0, cr0, [r2]
    4a30:	0a9b0000 	beq	fe6c4a38 <__bss_end__+0xfe6b9ea0>
    4a34:	01290000 	teqeq	r9, r0
    4a38:	400c0550 	andmi	r0, ip, r0, asr r5
    4a3c:	00202150 	eoreq	r2, r0, r0, asr r1
    4a40:	009d2c25 	addseq	r2, sp, r5, lsr #24
    4a44:	000c9c00 	andeq	r9, ip, r0, lsl #24
    4a48:	91240000 	teqls	r4, r0
    4a4c:	0100000b 	tsteq	r0, fp
    4a50:	00002588 	andeq	r2, r0, r8, lsl #11
    4a54:	009ce800 	addseq	lr, ip, r0, lsl #16
    4a58:	00002000 	andeq	r2, r0, r0
    4a5c:	d29c0100 	addsle	r0, ip, #0, 2
    4a60:	2b00000a 	blcs	4a90 <__code_start__-0x3570>
    4a64:	00009cf4 	strdeq	r9, [r0], -r4
    4a68:	00000cb2 			; <UNDEFINED> instruction: 0x00000cb2
    4a6c:	05500129 	ldrbeq	r0, [r0, #-297]	; 0x129
    4a70:	2150640c 	cmpcs	r0, ip, lsl #8
    4a74:	24000020 	strcs	r0, [r0], #-32
    4a78:	00000ea3 	andeq	r0, r0, r3, lsr #29
    4a7c:	00257f01 	eoreq	r7, r5, r1, lsl #30
    4a80:	9cd00000 	ldclls	0, cr0, [r0], {0}
    4a84:	00180000 	andseq	r0, r8, r0
    4a88:	9c010000 	stcls	0, cr0, [r1], {-0}
    4a8c:	00000aff 	strdeq	r0, [r0], -pc	; <UNPREDICTABLE>
    4a90:	009cdc2b 	addseq	sp, ip, fp, lsr #24
    4a94:	000cb200 	andeq	fp, ip, r0, lsl #4
    4a98:	50012900 	andpl	r2, r1, r0, lsl #18
    4a9c:	50640c05 	rsbpl	r0, r4, r5, lsl #24
    4aa0:	00002021 	andeq	r2, r0, r1, lsr #32
    4aa4:	000a2926 	andeq	r2, sl, r6, lsr #18
    4aa8:	203a0100 	eorscs	r0, sl, r0, lsl #2
    4aac:	b000009c 	mullt	r0, ip, r0
    4ab0:	01000000 	mrseq	r0, (UNDEF: 0)
    4ab4:	000c3d9c 	muleq	ip, ip, sp
    4ab8:	9c302800 	ldcls	8, cr2, [r0], #-0
    4abc:	0cbd0000 	ldceq	0, cr0, [sp]
    4ac0:	0b2c0000 	bleq	b04ac8 <__bss_end__+0xaf9f30>
    4ac4:	01290000 	teqeq	r9, r0
    4ac8:	293e0150 	ldmdbcs	lr!, {r4, r6, r8}
    4acc:	32015101 	andcc	r5, r1, #1073741824	; 0x40000000
    4ad0:	9c3c2800 	ldcls	8, cr2, [ip], #-0
    4ad4:	0cbd0000 	ldceq	0, cr0, [sp]
    4ad8:	0b440000 	bleq	1104ae0 <__bss_end__+0x10f9f48>
    4adc:	01290000 	teqeq	r9, r0
    4ae0:	293f0150 	ldmdbcs	pc!, {r4, r6, r8}	; <UNPREDICTABLE>
    4ae4:	32015101 	andcc	r5, r1, #1073741824	; 0x40000000
    4ae8:	9c402500 	cfstr64ls	mvdx2, [r0], {-0}
    4aec:	0c9c0000 	ldceq	0, cr0, [ip], {0}
    4af0:	4c280000 	stcmi	0, cr0, [r8], #-0
    4af4:	3d00009c 	stccc	0, cr0, [r0, #-624]	; 0xfffffd90
    4af8:	6900000c 	stmdbvs	r0, {r2, r3}
    4afc:	2900000b 	stmdbcs	r0, {r0, r1, r3}
    4b00:	0c055001 	stceq	0, cr5, [r5], {1}
    4b04:	20215004 	eorcs	r5, r1, r4
    4b08:	01510129 	cmpeq	r1, r9, lsr #2
    4b0c:	50250031 	eorpl	r0, r5, r1, lsr r0
    4b10:	9c00009c 	stcls	0, cr0, [r0], {156}	; 0x9c
    4b14:	2800000c 	stmdacs	r0, {r2, r3}
    4b18:	00009c60 	andeq	r9, r0, r0, ror #24
    4b1c:	00000ca7 	andeq	r0, r0, r7, lsr #25
    4b20:	00000b8b 	andeq	r0, r0, fp, lsl #23
    4b24:	02500129 	subseq	r0, r0, #1073741834	; 0x4000000a
    4b28:	01290074 	teqeq	r9, r4, ror r0
    4b2c:	00300151 	eorseq	r0, r0, r1, asr r1
    4b30:	009c6c28 	addseq	r6, ip, r8, lsr #24
    4b34:	000ca700 	andeq	sl, ip, r0, lsl #14
    4b38:	000ba700 	andeq	sl, fp, r0, lsl #14
    4b3c:	50012900 	andpl	r2, r1, r0, lsl #18
    4b40:	50440c05 	subpl	r0, r4, r5, lsl #24
    4b44:	01292021 	teqeq	r9, r1, lsr #32
    4b48:	00300151 	eorseq	r0, r0, r1, asr r1
    4b4c:	009c7828 	addseq	r7, ip, r8, lsr #16
    4b50:	000ca700 	andeq	sl, ip, r0, lsl #14
    4b54:	000bc300 	andeq	ip, fp, r0, lsl #6
    4b58:	50012900 	andpl	r2, r1, r0, lsl #18
    4b5c:	504c0c05 	subpl	r0, ip, r5, lsl #24
    4b60:	01292021 	teqeq	r9, r1, lsr #32
    4b64:	00330151 	eorseq	r0, r3, r1, asr r1
    4b68:	009c8428 	addseq	r8, ip, r8, lsr #8
    4b6c:	000ca700 	andeq	sl, ip, r0, lsl #14
    4b70:	000bdf00 	andeq	sp, fp, r0, lsl #30
    4b74:	50012900 	andpl	r2, r1, r0, lsl #18
    4b78:	50500c05 	subspl	r0, r0, r5, lsl #24
    4b7c:	01292021 	teqeq	r9, r1, lsr #32
    4b80:	00300151 	eorseq	r0, r0, r1, asr r1
    4b84:	009c9028 	addseq	r9, ip, r8, lsr #32
    4b88:	000ca700 	andeq	sl, ip, r0, lsl #14
    4b8c:	000bfc00 	andeq	pc, fp, r0, lsl #24
    4b90:	50012900 	andpl	r2, r1, r0, lsl #18
    4b94:	50480c05 	subpl	r0, r8, r5, lsl #24
    4b98:	01292021 	teqeq	r9, r1, lsr #32
    4b9c:	c7080251 	smlsdgt	r8, r1, r2, r0
    4ba0:	9c9c2800 	ldcls	8, cr2, [ip], {0}
    4ba4:	0ca70000 	stceq	0, cr0, [r7]
    4ba8:	0c1a0000 	ldceq	0, cr0, [sl], {-0}
    4bac:	01290000 	teqeq	r9, r0
    4bb0:	680c0550 	stmdavs	ip, {r4, r6, r8, sl}
    4bb4:	29202150 	stmdbcs	r0!, {r4, r6, r8, sp}
    4bb8:	0a035101 	beq	d8fc4 <__bss_end__+0xce42c>
    4bbc:	2800010e 	stmdacs	r0, {r1, r2, r3, r8}
    4bc0:	00009ca8 	andeq	r9, r0, r8, lsr #25
    4bc4:	00000ca7 	andeq	r0, r0, r7, lsr #25
    4bc8:	00000c33 	andeq	r0, r0, r3, lsr ip
    4bcc:	02500129 	subseq	r0, r0, #1073741834	; 0x4000000a
    4bd0:	01290074 	teqeq	r9, r4, ror r0
    4bd4:	00330151 	eorseq	r0, r3, r1, asr r1
    4bd8:	009cac25 	addseq	sl, ip, r5, lsr #24
    4bdc:	000c9c00 	andeq	r9, ip, r0, lsl #24
    4be0:	bb2c0000 	bllt	b04be8 <__bss_end__+0xafa050>
    4be4:	0100000e 	tsteq	r0, lr
    4be8:	009c002d 	addseq	r0, ip, sp, lsr #32
    4bec:	00002000 	andeq	r2, r0, r0
    4bf0:	959c0100 	ldrls	r0, [ip, #256]	; 0x100
    4bf4:	2d00000c 	stccs	0, cr0, [r0, #-48]	; 0xffffffd0
    4bf8:	0000007c 	andeq	r0, r0, ip, ror r0
    4bfc:	0c952d01 	ldceq	13, cr2, [r5], {1}
    4c00:	10e60000 	rscne	r0, r6, r0
    4c04:	76270000 	strtvc	r0, [r7], -r0
    4c08:	01006c61 	tsteq	r0, r1, ror #24
    4c0c:	00002c2d 	andeq	r2, r0, sp, lsr #24
    4c10:	00110400 	andseq	r0, r1, r0, lsl #8
    4c14:	9c102800 	ldcls	8, cr2, [r0], {-0}
    4c18:	0cb20000 	ldceq	0, cr0, [r2]
    4c1c:	0c840000 	stceq	0, cr0, [r4], {0}
    4c20:	01290000 	teqeq	r9, r0
    4c24:	00740250 	rsbseq	r0, r4, r0, asr r2
    4c28:	9c1c2b00 	ldcls	11, cr2, [ip], {-0}
    4c2c:	0ca70000 	stceq	0, cr0, [r7]
    4c30:	01290000 	teqeq	r9, r0
    4c34:	00740250 	rsbseq	r0, r4, r0, asr r2
    4c38:	040e0000 	streq	r0, [lr], #-0
    4c3c:	00000c9b 	muleq	r0, fp, ip
    4c40:	08df2f2e 	ldmeq	pc, {r1, r2, r3, r5, r8, r9, sl, fp, sp}^	; <UNPREDICTABLE>
    4c44:	08df0000 	ldmeq	pc, {}^	; <UNPREDICTABLE>
    4c48:	89060000 	stmdbhi	r6, {}	; <UNPREDICTABLE>
    4c4c:	000d9a2f 	andeq	r9, sp, pc, lsr #20
    4c50:	000d9a00 	andeq	r9, sp, r0, lsl #20
    4c54:	2f9c0600 	svccs	0x009c0600
    4c58:	00000e9d 	muleq	r0, sp, lr
    4c5c:	00000e9d 	muleq	r0, sp, lr
    4c60:	6a2fa806 	bvs	beec80 <__bss_end__+0xbe40e8>
    4c64:	6a00000c 	bvs	4c9c <__code_start__-0x3364>
    4c68:	0800000c 	stmdaeq	r0, {r2, r3}
    4c6c:	0b700019 	bleq	1c04cd8 <__bss_end__+0x1bfa140>
    4c70:	00040000 	andeq	r0, r4, r0
    4c74:	000016a5 	andeq	r1, r0, r5, lsr #13
    4c78:	0da00104 	stfeqs	f0, [r0, #16]!
    4c7c:	700c0000 	andvc	r0, ip, r0
    4c80:	1e00000f 	cdpne	0, 0, cr0, cr0, cr15, {0}
    4c84:	7800000b 	stmdavc	r0, {r0, r1, r3}
    4c88:	2000009d 	mulcs	r0, sp, r0
    4c8c:	61000001 	tstvs	r0, r1
    4c90:	02000012 	andeq	r0, r0, #18
    4c94:	6e690504 	cdpvs	5, 6, cr0, cr9, cr4, {0}
    4c98:	04030074 	streq	r0, [r3], #-116	; 0x74
    4c9c:	00009e07 	andeq	r9, r0, r7, lsl #28
    4ca0:	002c0400 	eoreq	r0, ip, r0, lsl #8
    4ca4:	01030000 	mrseq	r0, (UNDEF: 3)
    4ca8:	00017e06 	andeq	r7, r1, r6, lsl #28
    4cac:	05020300 	streq	r0, [r2, #-768]	; 0x300
    4cb0:	000001a1 	andeq	r0, r0, r1, lsr #3
    4cb4:	b0050403 	andlt	r0, r5, r3, lsl #8
    4cb8:	03000000 	movweq	r0, #0
    4cbc:	00ab0508 	adceq	r0, fp, r8, lsl #10
    4cc0:	01030000 	mrseq	r0, (UNDEF: 3)
    4cc4:	00017c08 	andeq	r7, r1, r8, lsl #24
    4cc8:	07020300 	streq	r0, [r2, -r0, lsl #6]
    4ccc:	000000f0 	strdeq	r0, [r0], -r0	; <UNPREDICTABLE>
    4cd0:	99070403 	stmdbls	r7, {r0, r1, sl}
    4cd4:	03000000 	movweq	r0, #0
    4cd8:	00940708 	addseq	r0, r4, r8, lsl #14
    4cdc:	b5050000 	strlt	r0, [r5, #-0]
    4ce0:	0200000c 	andeq	r0, r0, #12
    4ce4:	00002507 	andeq	r2, r0, r7, lsl #10
    4ce8:	0c9f0500 	cfldr32eq	mvfx0, [pc], {0}
    4cec:	2c030000 	stccs	0, cr0, [r3], {-0}
    4cf0:	00000046 	andeq	r0, r0, r6, asr #32
    4cf4:	000d7b05 	andeq	r7, sp, r5, lsl #22
    4cf8:	46720300 	ldrbtmi	r0, [r2], -r0, lsl #6
    4cfc:	06000000 	streq	r0, [r0], -r0
    4d00:	00000c43 	andeq	r0, r0, r3, asr #24
    4d04:	2c016504 	cfstr32cs	mvfx6, [r1], {4}
    4d08:	07000000 	streq	r0, [r0, -r0]
    4d0c:	bca60304 	stclt	3, cr0, [r6], #16
    4d10:	08000000 	stmdaeq	r0, {}	; <UNPREDICTABLE>
    4d14:	00000c2e 	andeq	r0, r0, lr, lsr #24
    4d18:	0091a803 	addseq	sl, r1, r3, lsl #16
    4d1c:	d6080000 	strle	r0, [r8], -r0
    4d20:	0300000b 	movweq	r0, #11
    4d24:	0000bca9 	andeq	fp, r0, r9, lsr #25
    4d28:	54090000 	strpl	r0, [r9], #-0
    4d2c:	cc000000 	stcgt	0, cr0, [r0], {-0}
    4d30:	0a000000 	beq	4d38 <__code_start__-0x32c8>
    4d34:	000000cc 	andeq	r0, r0, ip, asr #1
    4d38:	04030003 	streq	r0, [r3], #-3
    4d3c:	00012107 	andeq	r2, r1, r7, lsl #2
    4d40:	03080b00 	movweq	r0, #35584	; 0x8b00
    4d44:	0000f4a3 	andeq	pc, r0, r3, lsr #9
    4d48:	0d600c00 	stcleq	12, cr0, [r0, #-0]
    4d4c:	a5030000 	strge	r0, [r3, #-0]
    4d50:	00000025 	andeq	r0, r0, r5, lsr #32
    4d54:	0d680c00 	stcleq	12, cr0, [r8, #-0]
    4d58:	aa030000 	bge	c4d60 <__bss_end__+0xba1c8>
    4d5c:	0000009d 	muleq	r0, sp, r0
    4d60:	f3050004 	vhadd.u8	d0, d5, d4
    4d64:	0300000c 	movweq	r0, #12
    4d68:	0000d3ab 	andeq	sp, r0, fp, lsr #7
    4d6c:	0b9f0500 	bleq	fe7c6174 <__bss_end__+0xfe7bb5dc>
    4d70:	af030000 	svcge	0x00030000
    4d74:	00000070 	andeq	r0, r0, r0, ror r0
    4d78:	040e040d 	streq	r0, [lr], #-1037	; 0x40d
    4d7c:	00000112 	andeq	r0, r0, r2, lsl r1
    4d80:	85080103 	strhi	r0, [r8, #-259]	; 0x103
    4d84:	04000001 	streq	r0, [r0], #-1
    4d88:	00000112 	andeq	r0, r0, r2, lsl r1
    4d8c:	000e1d05 	andeq	r1, lr, r5, lsl #26
    4d90:	62160500 	andsvs	r0, r6, #0, 10
    4d94:	0f000000 	svceq	0x00000000
    4d98:	00000bb0 			; <UNDEFINED> instruction: 0x00000bb0
    4d9c:	7c2d0518 	cfstr32vc	mvfx0, [sp], #-96	; 0xffffffa0
    4da0:	0c000001 	stceq	0, cr0, [r0], {1}
    4da4:	00000d14 	andeq	r0, r0, r4, lsl sp
    4da8:	017c2f05 	cmneq	ip, r5, lsl #30
    4dac:	10000000 	andne	r0, r0, r0
    4db0:	05006b5f 	streq	r6, [r0, #-2911]	; 0xb5f
    4db4:	00002530 	andeq	r2, r0, r0, lsr r5
    4db8:	4b0c0400 	blmi	305dc0 <__bss_end__+0x2fb228>
    4dbc:	0500000d 	streq	r0, [r0, #-13]
    4dc0:	00002530 	andeq	r2, r0, r0, lsr r5
    4dc4:	8b0c0800 	blhi	306dcc <__bss_end__+0x2fc234>
    4dc8:	0500000b 	streq	r0, [r0, #-11]
    4dcc:	00002530 	andeq	r2, r0, r0, lsr r5
    4dd0:	640c0c00 	strvs	r0, [ip], #-3072	; 0xc00
    4dd4:	0500000e 	streq	r0, [r0, #-14]
    4dd8:	00002530 	andeq	r2, r0, r0, lsr r5
    4ddc:	5f101000 	svcpl	0x00101000
    4de0:	31050078 	tstcc	r5, r8, ror r0
    4de4:	00000182 	andeq	r0, r0, r2, lsl #3
    4de8:	040e0014 	streq	r0, [lr], #-20
    4dec:	00000129 	andeq	r0, r0, r9, lsr #2
    4df0:	00011e09 	andeq	r1, r1, r9, lsl #28
    4df4:	00019200 	andeq	r9, r1, r0, lsl #4
    4df8:	00cc0a00 	sbceq	r0, ip, r0, lsl #20
    4dfc:	00000000 	andeq	r0, r0, r0
    4e00:	000bd10f 	andeq	sp, fp, pc, lsl #2
    4e04:	35052400 	strcc	r2, [r5, #-1024]	; 0x400
    4e08:	0000020b 	andeq	r0, r0, fp, lsl #4
    4e0c:	000a890c 	andeq	r8, sl, ip, lsl #18
    4e10:	25370500 	ldrcs	r0, [r7, #-1280]!	; 0x500
    4e14:	00000000 	andeq	r0, r0, r0
    4e18:	000d830c 	andeq	r8, sp, ip, lsl #6
    4e1c:	25380500 	ldrcs	r0, [r8, #-1280]!	; 0x500
    4e20:	04000000 	streq	r0, [r0], #-0
    4e24:	000ab70c 	andeq	fp, sl, ip, lsl #14
    4e28:	25390500 	ldrcs	r0, [r9, #-1280]!	; 0x500
    4e2c:	08000000 	stmdaeq	r0, {}	; <UNPREDICTABLE>
    4e30:	000f540c 	andeq	r5, pc, ip, lsl #8
    4e34:	253a0500 	ldrcs	r0, [sl, #-1280]!	; 0x500
    4e38:	0c000000 	stceq	0, cr0, [r0], {-0}
    4e3c:	000c830c 	andeq	r8, ip, ip, lsl #6
    4e40:	253b0500 	ldrcs	r0, [fp, #-1280]!	; 0x500
    4e44:	10000000 	andne	r0, r0, r0
    4e48:	000c580c 	andeq	r5, ip, ip, lsl #16
    4e4c:	253c0500 	ldrcs	r0, [ip, #-1280]!	; 0x500
    4e50:	14000000 	strne	r0, [r0], #-0
    4e54:	000e690c 	andeq	r6, lr, ip, lsl #18
    4e58:	253d0500 	ldrcs	r0, [sp, #-1280]!	; 0x500
    4e5c:	18000000 	stmdane	r0, {}	; <UNPREDICTABLE>
    4e60:	000cd50c 	andeq	sp, ip, ip, lsl #10
    4e64:	253e0500 	ldrcs	r0, [lr, #-1280]!	; 0x500
    4e68:	1c000000 	stcne	0, cr0, [r0], {-0}
    4e6c:	000f1b0c 	andeq	r1, pc, ip, lsl #22
    4e70:	253f0500 	ldrcs	r0, [pc, #-1280]!	; 4978 <__code_start__-0x3688>
    4e74:	20000000 	andcs	r0, r0, r0
    4e78:	0ac61100 	beq	ff189280 <__bss_end__+0xff17e6e8>
    4e7c:	01080000 	mrseq	r0, (UNDEF: 8)
    4e80:	024b4805 	subeq	r4, fp, #327680	; 0x50000
    4e84:	720c0000 	andvc	r0, ip, #0
    4e88:	0500000b 	streq	r0, [r0, #-11]
    4e8c:	00024b49 	andeq	r4, r2, r9, asr #22
    4e90:	040c0000 	streq	r0, [ip], #-0
    4e94:	0500000a 	streq	r0, [r0, #-10]
    4e98:	00024b4a 	andeq	r4, r2, sl, asr #22
    4e9c:	0f128000 	svceq	0x00128000
    4ea0:	0500000e 	streq	r0, [r0, #-14]
    4ea4:	00011e4c 	andeq	r1, r1, ip, asr #28
    4ea8:	12010000 	andne	r0, r1, #0
    4eac:	00000aeb 	andeq	r0, r0, fp, ror #21
    4eb0:	011e4f05 	tsteq	lr, r5, lsl #30
    4eb4:	01040000 	mrseq	r0, (UNDEF: 4)
    4eb8:	010a0900 	tsteq	sl, r0, lsl #18
    4ebc:	025b0000 	subseq	r0, fp, #0
    4ec0:	cc0a0000 	stcgt	0, cr0, [sl], {-0}
    4ec4:	1f000000 	svcne	0x00000000
    4ec8:	0c8c1100 	stfeqs	f1, [ip], {0}
    4ecc:	01900000 	orrseq	r0, r0, r0
    4ed0:	02995b05 	addseq	r5, r9, #5120	; 0x1400
    4ed4:	140c0000 	strne	r0, [ip], #-0
    4ed8:	0500000d 	streq	r0, [r0, #-13]
    4edc:	0002995c 	andeq	r9, r2, ip, asr r9
    4ee0:	2c0c0000 	stccs	0, cr0, [ip], {-0}
    4ee4:	0500000d 	streq	r0, [r0, #-13]
    4ee8:	0000255d 	andeq	r2, r0, sp, asr r5
    4eec:	860c0400 	strhi	r0, [ip], -r0, lsl #8
    4ef0:	0500000b 	streq	r0, [r0, #-11]
    4ef4:	00029f5f 	andeq	r9, r2, pc, asr pc
    4ef8:	c60c0800 	strgt	r0, [ip], -r0, lsl #16
    4efc:	0500000a 	streq	r0, [r0, #-10]
    4f00:	00020b60 	andeq	r0, r2, r0, ror #22
    4f04:	0e008800 	cdpeq	8, 0, cr8, cr0, cr0, {0}
    4f08:	00025b04 	andeq	r5, r2, r4, lsl #22
    4f0c:	02af0900 	adceq	r0, pc, #0, 18
    4f10:	02af0000 	adceq	r0, pc, #0
    4f14:	cc0a0000 	stcgt	0, cr0, [sl], {-0}
    4f18:	1f000000 	svcne	0x00000000
    4f1c:	b5040e00 	strlt	r0, [r4, #-3584]	; 0xe00
    4f20:	13000002 	movwne	r0, #2
    4f24:	000cdf0f 	andeq	sp, ip, pc, lsl #30
    4f28:	73050800 	movwvc	r0, #22528	; 0x5800
    4f2c:	000002db 	ldrdeq	r0, [r0], -fp
    4f30:	000aac0c 	andeq	sl, sl, ip, lsl #24
    4f34:	db740500 	blle	1d0633c <__bss_end__+0x1cfb7a4>
    4f38:	00000002 	andeq	r0, r0, r2
    4f3c:	000a100c 	andeq	r1, sl, ip
    4f40:	25750500 	ldrbcs	r0, [r5, #-1280]!	; 0x500
    4f44:	04000000 	streq	r0, [r0], #-0
    4f48:	54040e00 	strpl	r0, [r4], #-3584	; 0xe00
    4f4c:	0f000000 	svceq	0x00000000
    4f50:	00000cfe 	strdeq	r0, [r0], -lr
    4f54:	0bb30568 	bleq	fecc64fc <__bss_end__+0xfecbb964>
    4f58:	10000004 	andne	r0, r0, r4
    4f5c:	0500705f 	streq	r7, [r0, #-95]	; 0x5f
    4f60:	0002dbb4 			; <UNDEFINED> instruction: 0x0002dbb4
    4f64:	5f100000 	svcpl	0x00100000
    4f68:	b5050072 	strlt	r0, [r5, #-114]	; 0x72
    4f6c:	00000025 	andeq	r0, r0, r5, lsr #32
    4f70:	775f1004 	ldrbvc	r1, [pc, -r4]
    4f74:	25b60500 	ldrcs	r0, [r6, #1280]!	; 0x500
    4f78:	08000000 	stmdaeq	r0, {}	; <UNPREDICTABLE>
    4f7c:	000ae40c 	andeq	lr, sl, ip, lsl #8
    4f80:	3fb70500 	svccc	0x00b70500
    4f84:	0c000000 	stceq	0, cr0, [r0], {-0}
    4f88:	000bf70c 	andeq	pc, fp, ip, lsl #14
    4f8c:	3fb80500 	svccc	0x00b80500
    4f90:	0e000000 	cdpeq	0, 0, cr0, cr0, cr0, {0}
    4f94:	66625f10 	uqadd16vs	r5, r2, r0
    4f98:	b6b90500 	ldrtlt	r0, [r9], r0, lsl #10
    4f9c:	10000002 	andne	r0, r0, r2
    4fa0:	000a530c 	andeq	r5, sl, ip, lsl #6
    4fa4:	25ba0500 	ldrcs	r0, [sl, #1280]!	; 0x500
    4fa8:	18000000 	stmdane	r0, {}	; <UNPREDICTABLE>
    4fac:	000ad40c 	andeq	sp, sl, ip, lsl #8
    4fb0:	0ac10500 	beq	ff0463b8 <__bss_end__+0xff03b820>
    4fb4:	1c000001 	stcne	0, cr0, [r0], {1}
    4fb8:	000f7b0c 	andeq	r7, pc, ip, lsl #22
    4fbc:	66c30500 	strbvs	r0, [r3], r0, lsl #10
    4fc0:	20000005 	andcs	r0, r0, r5
    4fc4:	000f950c 	andeq	r9, pc, ip, lsl #10
    4fc8:	90c50500 	sbcls	r0, r5, r0, lsl #10
    4fcc:	24000005 	strcs	r0, [r0], #-5
    4fd0:	000d700c 	andeq	r7, sp, ip
    4fd4:	b4c80500 	strblt	r0, [r8], #1280	; 0x500
    4fd8:	28000005 	stmdacs	r0, {r0, r2}
    4fdc:	000f350c 	andeq	r3, pc, ip, lsl #10
    4fe0:	cec90500 	cdpgt	5, 12, cr0, cr9, cr0, {0}
    4fe4:	2c000005 	stccs	0, cr0, [r0], {5}
    4fe8:	62755f10 	rsbsvs	r5, r5, #16, 30	; 0x40
    4fec:	b6cc0500 	strblt	r0, [ip], r0, lsl #10
    4ff0:	30000002 	andcc	r0, r0, r2
    4ff4:	70755f10 	rsbsvc	r5, r5, r0, lsl pc
    4ff8:	dbcd0500 	blle	ff346400 <__bss_end__+0xff33b868>
    4ffc:	38000002 	stmdacc	r0, {r1}
    5000:	72755f10 	rsbsvc	r5, r5, #16, 30	; 0x40
    5004:	25ce0500 	strbcs	r0, [lr, #1280]	; 0x500
    5008:	3c000000 	stccc	0, cr0, [r0], {-0}
    500c:	000a970c 	andeq	r9, sl, ip, lsl #14
    5010:	d4d10500 	ldrble	r0, [r1], #1280	; 0x500
    5014:	40000005 	andmi	r0, r0, r5
    5018:	000ee00c 	andeq	lr, lr, ip
    501c:	e4d20500 	ldrb	r0, [r2], #1280	; 0x500
    5020:	43000005 	movwmi	r0, #5
    5024:	626c5f10 	rsbvs	r5, ip, #16, 30	; 0x40
    5028:	b6d50500 	ldrblt	r0, [r5], r0, lsl #10
    502c:	44000002 	strmi	r0, [r0], #-2
    5030:	000afa0c 	andeq	pc, sl, ip, lsl #20
    5034:	25d80500 	ldrbcs	r0, [r8, #1280]	; 0x500
    5038:	4c000000 	stcmi	0, cr0, [r0], {-0}
    503c:	000c620c 	andeq	r6, ip, ip, lsl #4
    5040:	7bd90500 	blvc	ff646448 <__bss_end__+0xff63b8b0>
    5044:	50000000 	andpl	r0, r0, r0
    5048:	000ecb0c 	andeq	ip, lr, ip, lsl #22
    504c:	29dc0500 	ldmibcs	ip, {r8, sl}^
    5050:	54000004 	strpl	r0, [r0], #-4
    5054:	000c4a0c 	andeq	r4, ip, ip, lsl #20
    5058:	ffe00500 			; <UNDEFINED> instruction: 0xffe00500
    505c:	58000000 	stmdapl	r0, {}	; <UNPREDICTABLE>
    5060:	000d060c 	andeq	r0, sp, ip, lsl #12
    5064:	f4e20500 	vld2.16	{d16[0],d17[0]}, [r2], r0
    5068:	5c000000 	stcpl	0, cr0, [r0], {-0}
    506c:	000c500c 	andeq	r5, ip, ip
    5070:	25e30500 	strbcs	r0, [r3, #1280]!	; 0x500
    5074:	64000000 	strvs	r0, [r0], #-0
    5078:	00251400 	eoreq	r1, r5, r0, lsl #8
    507c:	04290000 	strteq	r0, [r9], #-0
    5080:	29150000 	ldmdbcs	r5, {}	; <UNPREDICTABLE>
    5084:	15000004 	strne	r0, [r0, #-4]
    5088:	0000010a 	andeq	r0, r0, sl, lsl #2
    508c:	00010c15 	andeq	r0, r1, r5, lsl ip
    5090:	00251500 	eoreq	r1, r5, r0, lsl #10
    5094:	0e000000 	cdpeq	0, 0, cr0, cr0, cr0, {0}
    5098:	00043404 	andeq	r3, r4, r4, lsl #8
    509c:	04290400 	strteq	r0, [r9], #-1024	; 0x400
    50a0:	53160000 	tstpl	r6, #0
    50a4:	2800000d 	stmdacs	r0, {r0, r2, r3}
    50a8:	02380504 	eorseq	r0, r8, #4, 10	; 0x1000000
    50ac:	00000566 	andeq	r0, r0, r6, ror #10
    50b0:	000cce17 	andeq	ip, ip, r7, lsl lr
    50b4:	023a0500 	eorseq	r0, sl, #0, 10
    50b8:	00000025 	andeq	r0, r0, r5, lsr #32
    50bc:	0af31700 	beq	ffccacc4 <__bss_end__+0xffcc012c>
    50c0:	3f050000 	svccc	0x00050000
    50c4:	00063b02 	andeq	r3, r6, r2, lsl #22
    50c8:	e7170400 	ldr	r0, [r7, -r0, lsl #8]
    50cc:	0500000b 	streq	r0, [r0, #-11]
    50d0:	063b023f 			; <UNDEFINED> instruction: 0x063b023f
    50d4:	17080000 	strne	r0, [r8, -r0]
    50d8:	00000ba8 	andeq	r0, r0, r8, lsr #23
    50dc:	3b023f05 	blcc	94cf8 <__bss_end__+0x8a160>
    50e0:	0c000006 	stceq	0, cr0, [r0], {6}
    50e4:	000d2717 	andeq	r2, sp, r7, lsl r7
    50e8:	02410500 	subeq	r0, r1, #0, 10
    50ec:	00000025 	andeq	r0, r0, r5, lsr #32
    50f0:	0a1e1710 	beq	78ad38 <__bss_end__+0x7801a0>
    50f4:	42050000 	andmi	r0, r5, #0
    50f8:	00081d02 	andeq	r1, r8, r2, lsl #26
    50fc:	45171400 	ldrmi	r1, [r7, #-1024]	; 0x400
    5100:	0500000e 	streq	r0, [r0, #-14]
    5104:	00250244 	eoreq	r0, r5, r4, asr #4
    5108:	17300000 	ldrne	r0, [r0, -r0]!
    510c:	00000d31 	andeq	r0, r0, r1, lsr sp
    5110:	8a024505 	bhi	9652c <__bss_end__+0x8b994>
    5114:	34000005 	strcc	r0, [r0], #-5
    5118:	000c9417 	andeq	r9, ip, r7, lsl r4
    511c:	02470500 	subeq	r0, r7, #0, 10
    5120:	00000025 	andeq	r0, r0, r5, lsr #32
    5124:	0d411738 	stcleq	7, cr1, [r1, #-224]	; 0xffffff20
    5128:	49050000 	stmdbmi	r5, {}	; <UNPREDICTABLE>
    512c:	00083802 	andeq	r3, r8, r2, lsl #16
    5130:	26173c00 	ldrcs	r3, [r7], -r0, lsl #24
    5134:	0500000c 	streq	r0, [r0, #-12]
    5138:	017c024c 	cmneq	ip, ip, asr #4
    513c:	17400000 	strbne	r0, [r0, -r0]
    5140:	00000bc7 	andeq	r0, r0, r7, asr #23
    5144:	25024d05 	strcs	r4, [r2, #-3333]	; 0xd05
    5148:	44000000 	strmi	r0, [r0], #-0
    514c:	000f4f17 	andeq	r4, pc, r7, lsl pc	; <UNPREDICTABLE>
    5150:	024e0500 	subeq	r0, lr, #0, 10
    5154:	0000017c 	andeq	r0, r0, ip, ror r1
    5158:	0cab1748 	stceq	7, cr1, [fp], #288	; 0x120
    515c:	4f050000 	svcmi	0x00050000
    5160:	00083e02 	andeq	r3, r8, r2, lsl #28
    5164:	ef174c00 	svc	0x00174c00
    5168:	0500000b 	streq	r0, [r0, #-11]
    516c:	00250252 	eoreq	r0, r5, r2, asr r2
    5170:	17500000 	ldrbne	r0, [r0, -r0]
    5174:	00000b16 	andeq	r0, r0, r6, lsl fp
    5178:	0c025305 	stceq	3, cr5, [r2], {5}
    517c:	54000001 	strpl	r0, [r0], #-1
    5180:	000cc717 	andeq	ip, ip, r7, lsl r7
    5184:	02760500 	rsbseq	r0, r6, #0, 10
    5188:	000007fb 	strdeq	r0, [r0], -fp
    518c:	0c8c1858 	stceq	8, cr1, [ip], {88}	; 0x58
    5190:	7a050000 	bvc	145198 <__bss_end__+0x13a600>
    5194:	00029902 	andeq	r9, r2, r2, lsl #18
    5198:	18014800 	stmdane	r1, {fp, lr}
    519c:	00000c04 	andeq	r0, r0, r4, lsl #24
    51a0:	5b027b05 	blpl	a3dbc <__bss_end__+0x99224>
    51a4:	4c000002 	stcmi	0, cr0, [r0], {2}
    51a8:	0eb11801 	cdpeq	8, 11, cr1, cr1, cr1, {0}
    51ac:	7f050000 	svcvc	0x00050000
    51b0:	00084f02 	andeq	r4, r8, r2, lsl #30
    51b4:	1802dc00 	stmdane	r2, {sl, fp, ip, lr, pc}
    51b8:	00000adc 	ldrdeq	r0, [r0], -ip
    51bc:	00028405 	andeq	r8, r2, r5, lsl #8
    51c0:	e0000006 	and	r0, r0, r6
    51c4:	0ac11802 	beq	ff04b1d4 <__bss_end__+0xff04063c>
    51c8:	85050000 	strhi	r0, [r5, #-0]
    51cc:	00085b02 	andeq	r5, r8, r2, lsl #22
    51d0:	0002ec00 	andeq	lr, r2, r0, lsl #24
    51d4:	040b040e 	streq	r0, [fp], #-1038	; 0x40e
    51d8:	25140000 	ldrcs	r0, [r4, #-0]
    51dc:	8a000000 	bhi	51e4 <__code_start__-0x2e1c>
    51e0:	15000005 	strne	r0, [r0, #-5]
    51e4:	00000429 	andeq	r0, r0, r9, lsr #8
    51e8:	00010a15 	andeq	r0, r1, r5, lsl sl
    51ec:	058a1500 	streq	r1, [sl, #1280]	; 0x500
    51f0:	25150000 	ldrcs	r0, [r5, #-0]
    51f4:	00000000 	andeq	r0, r0, r0
    51f8:	0119040e 	tsteq	r9, lr, lsl #8
    51fc:	040e0000 	streq	r0, [lr], #-0
    5200:	0000056c 	andeq	r0, r0, ip, ror #10
    5204:	00008614 	andeq	r8, r0, r4, lsl r6
    5208:	0005b400 	andeq	fp, r5, r0, lsl #8
    520c:	04291500 	strteq	r1, [r9], #-1280	; 0x500
    5210:	0a150000 	beq	545218 <__bss_end__+0x53a680>
    5214:	15000001 	strne	r0, [r0, #-1]
    5218:	00000086 	andeq	r0, r0, r6, lsl #1
    521c:	00002515 	andeq	r2, r0, r5, lsl r5
    5220:	040e0000 	streq	r0, [lr], #-0
    5224:	00000596 	muleq	r0, r6, r5
    5228:	00002514 	andeq	r2, r0, r4, lsl r5
    522c:	0005ce00 	andeq	ip, r5, r0, lsl #28
    5230:	04291500 	strteq	r1, [r9], #-1280	; 0x500
    5234:	0a150000 	beq	54523c <__bss_end__+0x53a6a4>
    5238:	00000001 	andeq	r0, r0, r1
    523c:	05ba040e 	ldreq	r0, [sl, #1038]!	; 0x40e
    5240:	54090000 	strpl	r0, [r9], #-0
    5244:	e4000000 	str	r0, [r0], #-0
    5248:	0a000005 	beq	5264 <__code_start__-0x2d9c>
    524c:	000000cc 	andeq	r0, r0, ip, asr #1
    5250:	54090002 	strpl	r0, [r9], #-2
    5254:	f4000000 	vst4.8	{d0-d3}, [r0], r0
    5258:	0a000005 	beq	5274 <__code_start__-0x2d8c>
    525c:	000000cc 	andeq	r0, r0, ip, asr #1
    5260:	ec060000 	stc	0, cr0, [r6], {-0}
    5264:	0500000c 	streq	r0, [r0, #-12]
    5268:	02e1011d 	rsceq	r0, r1, #1073741831	; 0x40000007
    526c:	73190000 	tstvc	r9, #0
    5270:	0c00000e 	stceq	0, cr0, [r0], {14}
    5274:	35012105 	strcc	r2, [r1, #-261]	; 0x105
    5278:	17000006 	strne	r0, [r0, -r6]
    527c:	00000d14 	andeq	r0, r0, r4, lsl sp
    5280:	35012305 	strcc	r2, [r1, #-773]	; 0x305
    5284:	00000006 	andeq	r0, r0, r6
    5288:	000bfd17 	andeq	pc, fp, r7, lsl sp	; <UNPREDICTABLE>
    528c:	01240500 	teqeq	r4, r0, lsl #10
    5290:	00000025 	andeq	r0, r0, r5, lsr #32
    5294:	0ce61704 	stcleq	7, cr1, [r6], #16
    5298:	25050000 	strcs	r0, [r5, #-0]
    529c:	00063b01 	andeq	r3, r6, r1, lsl #22
    52a0:	0e000800 	cdpeq	8, 0, cr0, cr0, cr0, {0}
    52a4:	00060004 	andeq	r0, r6, r4
    52a8:	f4040e00 			; <UNDEFINED> instruction: 0xf4040e00
    52ac:	19000005 	stmdbne	r0, {r0, r2}
    52b0:	00000a16 	andeq	r0, r0, r6, lsl sl
    52b4:	013d050e 	teqeq	sp, lr, lsl #10
    52b8:	00000676 	andeq	r0, r0, r6, ror r6
    52bc:	000d5a17 	andeq	r5, sp, r7, lsl sl
    52c0:	013e0500 	teqeq	lr, r0, lsl #10
    52c4:	00000676 	andeq	r0, r0, r6, ror r6
    52c8:	0d941700 	ldceq	7, cr1, [r4]
    52cc:	3f050000 	svccc	0x00050000
    52d0:	00067601 	andeq	r7, r6, r1, lsl #12
    52d4:	18170600 	ldmdane	r7, {r9, sl}
    52d8:	0500000e 	streq	r0, [r0, #-14]
    52dc:	005b0140 	subseq	r0, fp, r0, asr #2
    52e0:	000c0000 	andeq	r0, ip, r0
    52e4:	00005b09 	andeq	r5, r0, r9, lsl #22
    52e8:	00068600 	andeq	r8, r6, r0, lsl #12
    52ec:	00cc0a00 	sbceq	r0, ip, r0, lsl #20
    52f0:	00020000 	andeq	r0, r2, r0
    52f4:	5705d01a 	smladpl	r5, sl, r0, sp
    52f8:	00078702 	andeq	r8, r7, r2, lsl #14
    52fc:	0e571700 	cdpeq	7, 5, cr1, cr7, cr0, {0}
    5300:	59050000 	stmdbpl	r5, {}	; <UNPREDICTABLE>
    5304:	00002c02 	andeq	r2, r0, r2, lsl #24
    5308:	02170000 	andseq	r0, r7, #0
    530c:	0500000e 	streq	r0, [r0, #-14]
    5310:	010c025a 	tsteq	ip, sl, asr r2
    5314:	17040000 	strne	r0, [r4, -r0]
    5318:	00000c19 	andeq	r0, r0, r9, lsl ip
    531c:	87025b05 	strhi	r5, [r2, -r5, lsl #22]
    5320:	08000007 	stmdaeq	r0, {r0, r1, r2}
    5324:	000f2617 	andeq	r2, pc, r7, lsl r6	; <UNPREDICTABLE>
    5328:	025c0500 	subseq	r0, ip, #0, 10
    532c:	00000192 	muleq	r0, r2, r1
    5330:	0bb81724 	bleq	fee0afc8 <__bss_end__+0xfee00430>
    5334:	5d050000 	stcpl	0, cr0, [r5, #-0]
    5338:	00002502 	andeq	r2, r0, r2, lsl #10
    533c:	0f174800 	svceq	0x00174800
    5340:	0500000d 	streq	r0, [r0, #-13]
    5344:	0069025e 	rsbeq	r0, r9, lr, asr r2
    5348:	17500000 	ldrbne	r0, [r0, -r0]
    534c:	00000f3c 	andeq	r0, r0, ip, lsr pc
    5350:	41025f05 	tstmi	r2, r5, lsl #30
    5354:	58000006 	stmdapl	r0, {r1, r2}
    5358:	000d1a17 	andeq	r1, sp, r7, lsl sl
    535c:	02600500 	rsbeq	r0, r0, #0, 10
    5360:	000000f4 	strdeq	r0, [r0], -r4
    5364:	0f411768 	svceq	0x00411768
    5368:	61050000 	mrsvs	r0, (UNDEF: 5)
    536c:	0000f402 	andeq	pc, r0, r2, lsl #8
    5370:	7b177000 	blvc	5e1378 <__bss_end__+0x5d67e0>
    5374:	0500000a 	streq	r0, [r0, #-10]
    5378:	00f40262 	rscseq	r0, r4, r2, ror #4
    537c:	17780000 	ldrbne	r0, [r8, -r0]!
    5380:	00000e93 	muleq	r0, r3, lr
    5384:	97026305 	strls	r6, [r2, -r5, lsl #6]
    5388:	80000007 	andhi	r0, r0, r7
    538c:	000c0d17 	andeq	r0, ip, r7, lsl sp
    5390:	02640500 	rsbeq	r0, r4, #0, 10
    5394:	000007a7 	andeq	r0, r0, r7, lsr #15
    5398:	0e251788 	cdpeq	7, 2, cr1, cr5, cr8, {4}
    539c:	65050000 	strvs	r0, [r5, #-0]
    53a0:	00002502 	andeq	r2, r0, r2, lsl #10
    53a4:	6417a000 	ldrvs	sl, [r7], #-0
    53a8:	0500000b 	streq	r0, [r0, #-11]
    53ac:	00f40266 	rscseq	r0, r4, r6, ror #4
    53b0:	17a40000 	strne	r0, [r4, r0]!
    53b4:	00000a6c 	andeq	r0, r0, ip, ror #20
    53b8:	f4026705 	vst1.8	{d6}, [r2], r5
    53bc:	ac000000 	stcge	0, cr0, [r0], {-0}
    53c0:	000b5317 	andeq	r5, fp, r7, lsl r3
    53c4:	02680500 	rsbeq	r0, r8, #0, 10
    53c8:	000000f4 	strdeq	r0, [r0], -r4
    53cc:	0a3317b4 	beq	ccb2a4 <__bss_end__+0xcc070c>
    53d0:	69050000 	stmdbvs	r5, {}	; <UNPREDICTABLE>
    53d4:	0000f402 	andeq	pc, r0, r2, lsl #8
    53d8:	4217bc00 	andsmi	fp, r7, #0, 24
    53dc:	0500000a 	streq	r0, [r0, #-10]
    53e0:	00f4026a 	rscseq	r0, r4, sl, ror #4
    53e4:	17c40000 	strbne	r0, [r4, r0]
    53e8:	00000ccc 	andeq	r0, r0, ip, asr #25
    53ec:	25026b05 	strcs	r6, [r2, #-2821]	; 0xb05
    53f0:	cc000000 	stcgt	0, cr0, [r0], {-0}
    53f4:	01120900 	tsteq	r2, r0, lsl #18
    53f8:	07970000 	ldreq	r0, [r7, r0]
    53fc:	cc0a0000 	stcgt	0, cr0, [sl], {-0}
    5400:	19000000 	stmdbne	r0, {}	; <UNPREDICTABLE>
    5404:	01120900 	tsteq	r2, r0, lsl #18
    5408:	07a70000 	streq	r0, [r7, r0]!
    540c:	cc0a0000 	stcgt	0, cr0, [sl], {-0}
    5410:	07000000 	streq	r0, [r0, -r0]
    5414:	01120900 	tsteq	r2, r0, lsl #18
    5418:	07b70000 	ldreq	r0, [r7, r0]!
    541c:	cc0a0000 	stcgt	0, cr0, [sl], {-0}
    5420:	17000000 	strne	r0, [r0, -r0]
    5424:	05f01a00 	ldrbeq	r1, [r0, #2560]!	; 0xa00
    5428:	07db0270 			; <UNDEFINED> instruction: 0x07db0270
    542c:	7c170000 	ldcvc	0, cr0, [r7], {-0}
    5430:	0500000c 	streq	r0, [r0, #-12]
    5434:	07db0273 			; <UNDEFINED> instruction: 0x07db0273
    5438:	17000000 	strne	r0, [r0, -r0]
    543c:	00000e8a 	andeq	r0, r0, sl, lsl #29
    5440:	eb027405 	bl	a245c <__bss_end__+0x978c4>
    5444:	78000007 	stmdavc	r0, {r0, r1, r2}
    5448:	02db0900 	sbcseq	r0, fp, #0, 18
    544c:	07eb0000 	strbeq	r0, [fp, r0]!
    5450:	cc0a0000 	stcgt	0, cr0, [sl], {-0}
    5454:	1d000000 	stcne	0, cr0, [r0, #-0]
    5458:	002c0900 	eoreq	r0, ip, r0, lsl #18
    545c:	07fb0000 	ldrbeq	r0, [fp, r0]!
    5460:	cc0a0000 	stcgt	0, cr0, [sl], {-0}
    5464:	1d000000 	stcne	0, cr0, [r0, #-0]
    5468:	05f01b00 	ldrbeq	r1, [r0, #2816]!	; 0xb00
    546c:	081d0255 	ldmdaeq	sp, {r0, r2, r4, r6, r9}
    5470:	531c0000 	tstpl	ip, #0
    5474:	0500000d 	streq	r0, [r0, #-13]
    5478:	0686026c 	streq	r0, [r6], ip, ror #4
    547c:	e61c0000 	ldr	r0, [ip], -r0
    5480:	0500000e 	streq	r0, [r0, #-14]
    5484:	07b70275 			; <UNDEFINED> instruction: 0x07b70275
    5488:	09000000 	stmdbeq	r0, {}	; <UNPREDICTABLE>
    548c:	00000112 	andeq	r0, r0, r2, lsl r1
    5490:	0000082d 	andeq	r0, r0, sp, lsr #16
    5494:	0000cc0a 	andeq	ip, r0, sl, lsl #24
    5498:	1d001800 	stcne	8, cr1, [r0, #-0]
    549c:	00000838 	andeq	r0, r0, r8, lsr r8
    54a0:	00042915 	andeq	r2, r4, r5, lsl r9
    54a4:	040e0000 	streq	r0, [lr], #-0
    54a8:	0000082d 	andeq	r0, r0, sp, lsr #16
    54ac:	017c040e 	cmneq	ip, lr, lsl #8
    54b0:	4f1d0000 	svcmi	0x001d0000
    54b4:	15000008 	strne	r0, [r0, #-8]
    54b8:	00000025 	andeq	r0, r0, r5, lsr #32
    54bc:	55040e00 	strpl	r0, [r4, #-3584]	; 0xe00
    54c0:	0e000008 	cdpeq	0, 0, cr0, cr0, cr8, {0}
    54c4:	00084404 	andeq	r4, r8, r4, lsl #8
    54c8:	05f40900 	ldrbeq	r0, [r4, #2304]!	; 0x900
    54cc:	086b0000 	stmdaeq	fp!, {}^	; <UNPREDICTABLE>
    54d0:	cc0a0000 	stcgt	0, cr0, [sl], {-0}
    54d4:	02000000 	andeq	r0, r0, #0
    54d8:	0e391e00 	cdpeq	14, 3, cr1, cr9, cr0, {0}
    54dc:	fd050000 	stc2	0, cr0, [r5, #-0]
    54e0:	00042902 	andeq	r2, r4, r2, lsl #18
    54e4:	0e321e00 	cdpeq	14, 3, cr1, cr2, cr0, {0}
    54e8:	fe050000 	cdp2	0, 0, cr0, cr5, cr0, {0}
    54ec:	00042f02 	andeq	r2, r4, r2, lsl #30
    54f0:	00251400 	eoreq	r1, r5, r0, lsl #8
    54f4:	08920000 	ldmeq	r2, {}	; <UNPREDICTABLE>
    54f8:	25150000 	ldrcs	r0, [r5, #-0]
    54fc:	00000000 	andeq	r0, r0, r0
    5500:	0006331f 	andeq	r3, r6, pc, lsl r3
    5504:	9d1d0600 	ldcls	6, cr0, [sp, #-0]
    5508:	0e000008 	cdpeq	0, 0, cr0, cr0, cr8, {0}
    550c:	00088304 	andeq	r8, r8, r4, lsl #6
    5510:	00251400 	eoreq	r1, r5, r0, lsl #8
    5514:	08b20000 	ldmeq	r2!, {}	; <UNPREDICTABLE>
    5518:	8a150000 	bhi	545520 <__bss_end__+0x53a988>
    551c:	00000005 	andeq	r0, r0, r5
    5520:	0006701f 	andeq	r7, r6, pc, lsl r0
    5524:	bd220600 	stclt	6, cr0, [r2, #-0]
    5528:	0e000008 	cdpeq	0, 0, cr0, cr0, cr8, {0}
    552c:	0008a304 	andeq	sl, r8, r4, lsl #6
    5530:	54012000 	strpl	r2, [r1], #-0
    5534:	07000000 	streq	r0, [r0, -r0]
    5538:	0009000c 	andeq	r0, r9, ip
    553c:	0a5c2100 	beq	170d944 <__bss_end__+0x1702dac>
    5540:	21000000 	mrscs	r0, (UNDEF: 0)
    5544:	00000e79 	andeq	r0, r0, r9, ror lr
    5548:	0ed12101 	cdpeq	1, 13, cr2, cr1, cr1, {0}
    554c:	21040000 	mrscs	r0, (UNDEF: 4)
    5550:	00000a9d 	muleq	r0, sp, sl
    5554:	0c342105 	ldfeqs	f2, [r4], #-20	; 0xffffffec
    5558:	21060000 	mrscs	r0, (UNDEF: 6)
    555c:	00000eee 	andeq	r0, r0, lr, ror #29
    5560:	0efd2107 	cdpeq	1, 15, cr2, cr13, cr7, {0}
    5564:	21030000 	mrscs	r0, (UNDEF: 3)
    5568:	00000f0c 	andeq	r0, r0, ip, lsl #30
    556c:	cb050002 	blgt	14557c <__bss_end__+0x13a9e4>
    5570:	0700000f 	streq	r0, [r0, -pc]
    5574:	0008c315 	andeq	ip, r8, r5, lsl r3
    5578:	0f9c2200 	svceq	0x009c2200
    557c:	1d010000 	stcne	0, cr0, [r1, #-0]
    5580:	00000033 	andeq	r0, r0, r3, lsr r0
    5584:	2020001c 	eorcs	r0, r0, ip, lsl r0
    5588:	000fd722 	andeq	sp, pc, r2, lsr #14
    558c:	331e0100 	tstcc	lr, #0, 2
    5590:	28000000 	stmdacs	r0, {}	; <UNPREDICTABLE>
    5594:	22202000 	eorcs	r2, r0, #0
    5598:	00000fa6 	andeq	r0, r0, r6, lsr #31
    559c:	00331f01 	eorseq	r1, r3, r1, lsl #30
    55a0:	00340000 	eorseq	r0, r4, r0
    55a4:	77232020 	strvc	r2, [r3, -r0, lsr #32]!
    55a8:	0100000f 	tsteq	r0, pc
    55ac:	00002556 	andeq	r2, r0, r6, asr r5
    55b0:	009e6400 	addseq	r6, lr, r0, lsl #8
    55b4:	00003400 	andeq	r3, r0, r0, lsl #8
    55b8:	989c0100 	ldmls	ip, {r8}
    55bc:	24000009 	strcs	r0, [r0], #-9
    55c0:	006e6970 	rsbeq	r6, lr, r0, ror r9
    55c4:	002c5601 	eoreq	r5, ip, r1, lsl #12
    55c8:	11220000 	teqne	r2, r0
    55cc:	6b250000 	blvs	9455d4 <__bss_end__+0x93aa3c>
    55d0:	0100000f 	tsteq	r0, pc
    55d4:	00002c59 	andeq	r2, r0, r9, asr ip
    55d8:	00115c00 	andseq	r5, r1, r0, lsl #24
    55dc:	666f2600 	strbtvs	r2, [pc], -r0, lsl #12
    55e0:	5a010066 	bpl	45780 <__bss_end__+0x3abe8>
    55e4:	0000002c 	andeq	r0, r0, ip, lsr #32
    55e8:	0000119a 	muleq	r0, sl, r1
    55ec:	009e8027 	addseq	r8, lr, r7, lsr #32
    55f0:	000b5d00 	andeq	r5, fp, r0, lsl #26
    55f4:	50012800 	andpl	r2, r1, r0, lsl #16
    55f8:	5001f30b 	andpl	pc, r1, fp, lsl #6
    55fc:	b4232535 	strtlt	r2, [r3], #-1333	; 0x535
    5600:	02818080 	addeq	r8, r1, #128	; 0x80
    5604:	91290000 	teqls	r9, r0
    5608:	0100000f 	tsteq	r0, pc
    560c:	009e484f 	addseq	r4, lr, pc, asr #16
    5610:	00001c00 	andeq	r1, r0, r0, lsl #24
    5614:	e89c0100 	ldm	ip, {r8}
    5618:	24000009 	strcs	r0, [r0], #-9
    561c:	006e6970 	rsbeq	r6, lr, r0, ror r9
    5620:	002c4f01 	eoreq	r4, ip, r1, lsl #30
    5624:	11ad0000 			; <UNDEFINED> instruction: 0x11ad0000
    5628:	76240000 	strtvc	r0, [r4], -r0
    562c:	2c4f0100 	stfcse	f0, [pc], {-0}
    5630:	e7000000 	str	r0, [r0, -r0]
    5634:	2a000011 	bcs	5680 <__code_start__-0x2980>
    5638:	00009e58 	andeq	r9, r0, r8, asr lr
    563c:	00000a23 	andeq	r0, r0, r3, lsr #20
    5640:	000009de 	ldrdeq	r0, [r0], -lr
    5644:	03500128 	cmpeq	r0, #40, 2
    5648:	005001f3 	ldrsheq	r0, [r0], #-19	; 0xffffffed
    564c:	009e602b 	addseq	r6, lr, fp, lsr #32
    5650:	000a6400 	andeq	r6, sl, r0, lsl #8
    5654:	b0290000 	eorlt	r0, r9, r0
    5658:	0100000f 	tsteq	r0, pc
    565c:	009e384a 	addseq	r3, lr, sl, asr #16
    5660:	00001000 	andeq	r1, r0, r0
    5664:	239c0100 	orrscs	r0, ip, #0, 2
    5668:	2400000a 	strcs	r0, [r0], #-10
    566c:	006e6970 	rsbeq	r6, lr, r0, ror r9
    5670:	002c4a01 	eoreq	r4, ip, r1, lsl #20
    5674:	12210000 	eorne	r0, r1, #0
    5678:	44270000 	strtmi	r0, [r7], #-0
    567c:	e000009e 	mul	r0, lr, r0
    5680:	2800000a 	stmdacs	r0, {r1, r3}
    5684:	f3035001 	vhadd.u8	d5, d3, d1
    5688:	01285001 	teqeq	r8, r1
    568c:	00300151 	eorseq	r0, r0, r1, asr r1
    5690:	0f5e2900 	svceq	0x005e2900
    5694:	43010000 	movwmi	r0, #4096	; 0x1000
    5698:	00009e14 	andeq	r9, r0, r4, lsl lr
    569c:	00000024 	andeq	r0, r0, r4, lsr #32
    56a0:	0a649c01 	beq	192c6ac <__bss_end__+0x1921b14>
    56a4:	70240000 	eorvc	r0, r4, r0
    56a8:	01006e69 	tsteq	r0, r9, ror #28
    56ac:	00002c43 	andeq	r2, r0, r3, asr #24
    56b0:	00124200 	andseq	r4, r2, r0, lsl #4
    56b4:	9e302700 	cdpls	7, 3, cr2, cr0, cr0, {0}
    56b8:	0b680000 	bleq	1a056c0 <__bss_end__+0x19fab28>
    56bc:	01280000 	teqeq	r8, r0
    56c0:	280c0550 	stmdacs	ip, {r4, r6, r8, sl}
    56c4:	28202000 	stmdacs	r0!, {sp}
    56c8:	31055101 	tstcc	r5, r1, lsl #2
    56cc:	245001f3 	ldrbcs	r0, [r0], #-499	; 0x1f3
    56d0:	bf290000 	svclt	0x00290000
    56d4:	0100000f 	tsteq	r0, pc
    56d8:	009df03c 	addseq	pc, sp, ip, lsr r0	; <UNPREDICTABLE>
    56dc:	00002400 	andeq	r2, r0, r0, lsl #8
    56e0:	a59c0100 	ldrge	r0, [ip, #256]	; 0x100
    56e4:	2400000a 	strcs	r0, [r0], #-10
    56e8:	006e6970 	rsbeq	r6, lr, r0, ror r9
    56ec:	002c3c01 	eoreq	r3, ip, r1, lsl #24
    56f0:	12630000 	rsbne	r0, r3, #0
    56f4:	0c270000 	stceq	0, cr0, [r7], #-0
    56f8:	6800009e 	stmdavs	r0, {r1, r2, r3, r4, r7}
    56fc:	2800000b 	stmdacs	r0, {r0, r1, r3}
    5700:	0c055001 	stceq	0, cr5, [r5], {1}
    5704:	2020001c 	eorcs	r0, r0, ip, lsl r0
    5708:	05510128 	ldrbeq	r0, [r1, #-296]	; 0x128
    570c:	5001f331 	andpl	pc, r1, r1, lsr r3	; <UNPREDICTABLE>
    5710:	29000024 	stmdbcs	r0, {r2, r5}
    5714:	00000f81 	andeq	r0, r0, r1, lsl #31
    5718:	9de03701 	stclls	7, cr3, [r0, #4]!
    571c:	00100000 	andseq	r0, r0, r0
    5720:	9c010000 	stcls	0, cr0, [r1], {-0}
    5724:	00000ae0 	andeq	r0, r0, r0, ror #21
    5728:	6e697024 	cdpvs	0, 6, cr7, cr9, cr4, {1}
    572c:	2c370100 	ldfcss	f0, [r7], #-0
    5730:	84000000 	strhi	r0, [r0], #-0
    5734:	27000012 	smladcs	r0, r2, r0, r0
    5738:	00009dec 	andeq	r9, r0, ip, ror #27
    573c:	00000ae0 	andeq	r0, r0, r0, ror #21
    5740:	03500128 	cmpeq	r0, #40, 2
    5744:	285001f3 	ldmdacs	r0, {r0, r1, r4, r5, r6, r7, r8}^
    5748:	31015101 	tstcc	r1, r1, lsl #2
    574c:	6a290000 	bvs	a45754 <__bss_end__+0xa3abbc>
    5750:	0100000c 	tsteq	r0, ip
    5754:	009d7828 	addseq	r7, sp, r8, lsr #16
    5758:	00006800 	andeq	r6, r0, r0, lsl #16
    575c:	5d9c0100 	ldfpls	f0, [ip]
    5760:	2400000b 	strcs	r0, [r0], #-11
    5764:	006e6970 	rsbeq	r6, lr, r0, ror r9
    5768:	002c2801 	eoreq	r2, ip, r1, lsl #16
    576c:	12a50000 	adcne	r0, r5, #0
    5770:	b62c0000 	strtlt	r0, [ip], -r0
    5774:	0100000e 	tsteq	r0, lr
    5778:	00090028 	andeq	r0, r9, r8, lsr #32
    577c:	0012c600 	andseq	ip, r2, r0, lsl #12
    5780:	666f2d00 	strbtvs	r2, [pc], -r0, lsl #26
    5784:	2d010066 	stccs	0, cr0, [r1, #-408]	; 0xfffffe68
    5788:	0000002c 	andeq	r0, r0, ip, lsr #32
    578c:	672d5401 	strvs	r5, [sp, -r1, lsl #8]!
    5790:	2c2f0100 	stfcss	f0, [pc], #-0	; 5798 <__code_start__-0x2868>
    5794:	01000000 	mrseq	r0, (UNDEF: 0)
    5798:	00762656 	rsbseq	r2, r6, r6, asr r6
    579c:	002c3101 	eoreq	r3, ip, r1, lsl #2
    57a0:	12e70000 	rscne	r0, r7, #0
    57a4:	c42a0000 	strtgt	r0, [sl], #-0
    57a8:	5d00009d 	stcpl	0, cr0, [r0, #-628]	; 0xfffffd8c
    57ac:	4c00000b 	stcmi	0, cr0, [r0], {11}
    57b0:	2800000b 	stmdacs	r0, {r0, r1, r3}
    57b4:	76025001 	strvc	r5, [r2], -r1
    57b8:	d8270000 	stmdale	r7!, {}	; <UNPREDICTABLE>
    57bc:	6800009d 	stmdavs	r0, {r0, r2, r3, r4, r7}
    57c0:	2800000b 	stmdacs	r0, {r0, r1, r3}
    57c4:	76025001 	strvc	r5, [r2], -r1
    57c8:	2e000000 	cdpcs	0, 0, cr0, cr0, cr0, {0}
    57cc:	000009d3 	ldrdeq	r0, [r0], -r3
    57d0:	000009d3 	ldrdeq	r0, [r0], -r3
    57d4:	0d2ea706 	stceq	7, cr10, [lr, #-24]!	; 0xffffffe8
    57d8:	0d000009 	stceq	0, cr0, [r0, #-36]	; 0xffffffdc
    57dc:	06000009 	streq	r0, [r0], -r9
    57e0:	Address 0x00000000000057e0 is out of bounds.


Disassembly of section .debug_abbrev:

00000000 <.debug_abbrev>:
       0:	25011101 	strcs	r1, [r1, #-257]	; 0x101
       4:	030b130e 	movweq	r1, #45838	; 0xb30e
       8:	110e1b0e 	tstne	lr, lr, lsl #22
       c:	10061201 	andne	r1, r6, r1, lsl #4
      10:	02000017 	andeq	r0, r0, #23
      14:	0b0b0024 	bleq	2c00ac <__bss_end__+0x2b5514>
      18:	08030b3e 	stmdaeq	r3, {r1, r2, r3, r4, r5, r8, r9, fp}
      1c:	24030000 	strcs	r0, [r3], #-0
      20:	3e0b0b00 	vmlacc.f64	d0, d11, d0
      24:	000e030b 	andeq	r0, lr, fp, lsl #6
      28:	00160400 	andseq	r0, r6, r0, lsl #8
      2c:	0b3a0e03 	bleq	e83840 <__bss_end__+0xe78ca8>
      30:	13490b3b 	movtne	r0, #39739	; 0x9b3b
      34:	0f050000 	svceq	0x00050000
      38:	490b0b00 	stmdbmi	fp, {r8, r9, fp}
      3c:	06000013 			; <UNDEFINED> instruction: 0x06000013
      40:	13490026 	movtne	r0, #36902	; 0x9026
      44:	01070000 	mrseq	r0, (UNDEF: 7)
      48:	01134901 	tsteq	r3, r1, lsl #18
      4c:	08000013 	stmdaeq	r0, {r0, r1, r4}
      50:	13490021 	movtne	r0, #36897	; 0x9021
      54:	00000b2f 	andeq	r0, r0, pc, lsr #22
      58:	03011309 	movweq	r1, #4873	; 0x1309
      5c:	3a0b0b0e 	bcc	2c2c9c <__bss_end__+0x2b8104>
      60:	010b3b0b 	tsteq	fp, fp, lsl #22
      64:	0a000013 	beq	b8 <__code_start__-0x7f48>
      68:	0e03000d 	cdpeq	0, 0, cr0, cr3, cr13, {0}
      6c:	0b3b0b3a 	bleq	ec2d5c <__bss_end__+0xeb81c4>
      70:	0b381349 	bleq	e04d9c <__bss_end__+0xdfa204>
      74:	0d0b0000 	stceq	0, cr0, [fp, #-0]
      78:	3a080300 	bcc	200c80 <__bss_end__+0x1f60e8>
      7c:	490b3b0b 	stmdbmi	fp, {r0, r1, r3, r8, r9, fp, ip, sp}
      80:	000b3813 	andeq	r3, fp, r3, lsl r8
      84:	00350c00 	eorseq	r0, r5, r0, lsl #24
      88:	150d0000 	strne	r0, [sp, #-0]
      8c:	01192701 	tsteq	r9, r1, lsl #14
      90:	0e000013 	mcreq	0, 0, r0, cr0, cr3, {0}
      94:	13490005 	movtne	r0, #36869	; 0x9005
      98:	150f0000 	strne	r0, [pc, #-0]	; a0 <__code_start__-0x7f60>
      9c:	49192701 	ldmdbmi	r9, {r0, r8, r9, sl, sp}
      a0:	00130113 	andseq	r0, r3, r3, lsl r1
      a4:	00351000 	eorseq	r1, r5, r0
      a8:	00001349 	andeq	r1, r0, r9, asr #6
      ac:	03012e11 	movweq	r2, #7697	; 0x1e11
      b0:	3b0b3a0e 	blcc	2ce8f0 <__bss_end__+0x2c3d58>
      b4:	2019270b 	andscs	r2, r9, fp, lsl #14
      b8:	0013010b 	andseq	r0, r3, fp, lsl #2
      bc:	00051200 	andeq	r1, r5, r0, lsl #4
      c0:	0b3a0803 	bleq	e820d4 <__bss_end__+0xe7753c>
      c4:	13490b3b 	movtne	r0, #39739	; 0x9b3b
      c8:	2e130000 	cdpcs	0, 1, cr0, cr3, cr0, {0}
      cc:	3a0e0301 	bcc	380cd8 <__bss_end__+0x376140>
      d0:	270b3b0b 	strcs	r3, [fp, -fp, lsl #22]
      d4:	20134919 	andscs	r4, r3, r9, lsl r9
      d8:	0013010b 	andseq	r0, r3, fp, lsl #2
      dc:	00051400 	andeq	r1, r5, r0, lsl #8
      e0:	0b3a0e03 	bleq	e838f4 <__bss_end__+0xe78d5c>
      e4:	13490b3b 	movtne	r0, #39739	; 0x9b3b
      e8:	2e150000 	cdpcs	0, 1, cr0, cr5, cr0, {0}
      ec:	03193f00 	tsteq	r9, #0, 30
      f0:	3b0b3a0e 	blcc	2ce930 <__bss_end__+0x2c3d98>
      f4:	4919270b 	ldmdbmi	r9, {r0, r1, r3, r8, r9, sl, sp}
      f8:	000b2013 	andeq	r2, fp, r3, lsl r0
      fc:	00341600 	eorseq	r1, r4, r0, lsl #12
     100:	0b3a0e03 	bleq	e83914 <__bss_end__+0xe78d7c>
     104:	13490b3b 	movtne	r0, #39739	; 0x9b3b
     108:	34170000 	ldrcc	r0, [r7], #-0
     10c:	490e0300 	stmdbmi	lr, {r8, r9}
     110:	1c193413 	cfldrsne	mvf3, [r9], {19}
     114:	1800000e 	stmdane	r0, {r1, r2, r3}
     118:	08030034 	stmdaeq	r3, {r2, r4, r5}
     11c:	0b3b0b3a 	bleq	ec2e0c <__bss_end__+0xeb8274>
     120:	00001349 	andeq	r1, r0, r9, asr #6
     124:	31012e19 	tstcc	r1, r9, lsl lr
     128:	12011113 	andne	r1, r1, #-1073741820	; 0xc0000004
     12c:	97184006 	ldrls	r4, [r8, -r6]
     130:	13011942 	movwne	r1, #6466	; 0x1942
     134:	051a0000 	ldreq	r0, [sl, #-0]
     138:	02133100 	andseq	r3, r3, #0, 2
     13c:	1b000017 	blne	1a0 <__code_start__-0x7e60>
     140:	13310034 	teqne	r1, #52	; 0x34
     144:	341c0000 	ldrcc	r0, [ip], #-0
     148:	02133100 	andseq	r3, r3, #0, 2
     14c:	1d000018 	stcne	0, cr0, [r0, #-96]	; 0xffffffa0
     150:	1331011d 	teqne	r1, #1073741831	; 0x40000007
     154:	06120111 			; <UNDEFINED> instruction: 0x06120111
     158:	0b590b58 	bleq	1642ec0 <__bss_end__+0x1638328>
     15c:	00001301 	andeq	r1, r0, r1, lsl #6
     160:	3100051e 	tstcc	r0, lr, lsl r5
     164:	000b1c13 	andeq	r1, fp, r3, lsl ip
     168:	010b1f00 	tsteq	fp, r0, lsl #30
     16c:	06120111 			; <UNDEFINED> instruction: 0x06120111
     170:	34200000 	strtcc	r0, [r0], #-0
     174:	1c133100 	ldfnes	f3, [r3], {-0}
     178:	2100000b 	tstcs	r0, fp
     17c:	13310005 	teqne	r1, #5
     180:	89220000 	stmdbhi	r2!, {}	; <UNPREDICTABLE>
     184:	11000182 	smlabbne	r0, r2, r1, r0
     188:	00133101 	andseq	r3, r3, r1, lsl #2
     18c:	82892300 	addhi	r2, r9, #0, 6
     190:	01110101 	tsteq	r1, r1, lsl #2
     194:	13011331 	movwne	r1, #4913	; 0x1331
     198:	8a240000 	bhi	9001a0 <__bss_end__+0x8f5608>
     19c:	02000182 	andeq	r0, r0, #-2147483616	; 0x80000020
     1a0:	18429118 	stmdane	r2, {r3, r4, r8, ip, pc}^
     1a4:	2e250000 	cdpcs	0, 2, cr0, cr5, cr0, {0}
     1a8:	3a0e0301 	bcc	380db4 <__bss_end__+0x37621c>
     1ac:	270b3b0b 	strcs	r3, [fp, -fp, lsl #22]
     1b0:	12011119 	andne	r1, r1, #1073741830	; 0x40000006
     1b4:	97184006 	ldrls	r4, [r8, -r6]
     1b8:	13011942 	movwne	r1, #6466	; 0x1942
     1bc:	05260000 	streq	r0, [r6, #-0]!
     1c0:	3a080300 	bcc	200dc8 <__bss_end__+0x1f6230>
     1c4:	490b3b0b 	stmdbmi	fp, {r0, r1, r3, r8, r9, fp, ip, sp}
     1c8:	00170213 	andseq	r0, r7, r3, lsl r2
     1cc:	00342700 	eorseq	r2, r4, r0, lsl #14
     1d0:	13490e03 	movtne	r0, #40451	; 0x9e03
     1d4:	18021934 	stmdane	r2, {r2, r4, r5, r8, fp, ip}
     1d8:	05280000 	streq	r0, [r8, #-0]!
     1dc:	02133100 	andseq	r3, r3, #0, 2
     1e0:	29000018 	stmdbcs	r0, {r3, r4}
     1e4:	01018289 	smlabbeq	r1, r9, r2, r8
     1e8:	13310111 	teqne	r1, #1073741828	; 0x40000004
     1ec:	342a0000 	strtcc	r0, [sl], #-0
     1f0:	02133100 	andseq	r3, r3, #0, 2
     1f4:	2b000017 	blcs	258 <__code_start__-0x7da8>
     1f8:	0e03012e 	adfeqsp	f0, f3, #0.5
     1fc:	0b3b0b3a 	bleq	ec2eec <__bss_end__+0xeb8354>
     200:	13491927 	movtne	r1, #39207	; 0x9927
     204:	06120111 			; <UNDEFINED> instruction: 0x06120111
     208:	42971840 	addsmi	r1, r7, #64, 16	; 0x400000
     20c:	00130119 	andseq	r0, r3, r9, lsl r1
     210:	011d2c00 	tsteq	sp, r0, lsl #24
     214:	01111331 	tsteq	r1, r1, lsr r3
     218:	0b580612 	bleq	1601a68 <__bss_end__+0x15f6ed0>
     21c:	00000b59 	andeq	r0, r0, r9, asr fp
     220:	0300052d 	movweq	r0, #1325	; 0x52d
     224:	3b0b3a08 	blcc	2cea4c <__bss_end__+0x2c3eb4>
     228:	0213490b 	andseq	r4, r3, #180224	; 0x2c000
     22c:	2e000018 	mcrcs	0, 0, r0, cr0, cr8, {0}
     230:	193f002e 	ldmdbne	pc!, {r1, r2, r3, r5}	; <UNPREDICTABLE>
     234:	0b3a0e03 	bleq	e83a48 <__bss_end__+0xe78eb0>
     238:	19270b3b 	stmdbne	r7!, {r0, r1, r3, r4, r5, r8, r9, fp}
     23c:	01111349 	tsteq	r1, r9, asr #6
     240:	18400612 	stmdane	r0, {r1, r4, r9, sl}^
     244:	00194297 	mulseq	r9, r7, r2
     248:	012e2f00 	teqeq	lr, r0, lsl #30
     24c:	0e03193f 	mcreq	9, 0, r1, cr3, cr15, {1}
     250:	0b3b0b3a 	bleq	ec2f40 <__bss_end__+0xeb83a8>
     254:	01111927 	tsteq	r1, r7, lsr #18
     258:	18400612 	stmdane	r0, {r1, r4, r9, sl}^
     25c:	01194297 			; <UNDEFINED> instruction: 0x01194297
     260:	30000013 	andcc	r0, r0, r3, lsl r0
     264:	08030034 	stmdaeq	r3, {r2, r4, r5}
     268:	0b3b0b3a 	bleq	ec2f58 <__bss_end__+0xeb83c0>
     26c:	18021349 	stmdane	r2, {r0, r3, r6, r8, r9, ip}
     270:	0b310000 	bleq	c40278 <__bss_end__+0xc356e0>
     274:	01175501 	tsteq	r7, r1, lsl #10
     278:	32000013 	andcc	r0, r0, #19
     27c:	08030034 	stmdaeq	r3, {r2, r4, r5}
     280:	0b3b0b3a 	bleq	ec2f70 <__bss_end__+0xeb83d8>
     284:	17021349 	strne	r1, [r2, -r9, asr #6]
     288:	1d330000 	ldcne	0, cr0, [r3, #-0]
     28c:	52133101 	andspl	r3, r3, #1073741824	; 0x40000000
     290:	58175501 	ldmdapl	r7, {r0, r8, sl, ip, lr}
     294:	010b590b 	tsteq	fp, fp, lsl #18
     298:	34000013 	strcc	r0, [r0], #-19
     29c:	0e030034 	mcreq	0, 0, r0, cr3, cr4, {1}
     2a0:	0b3b0b3a 	bleq	ec2f90 <__bss_end__+0xeb83f8>
     2a4:	193f1349 	ldmdbne	pc!, {r0, r3, r6, r8, r9, ip}	; <UNPREDICTABLE>
     2a8:	0000193c 	andeq	r1, r0, ip, lsr r9
     2ac:	3f002e35 	svccc	0x00002e35
     2b0:	3a0e0319 	bcc	380f1c <__bss_end__+0x376384>
     2b4:	270b3b0b 	strcs	r3, [fp, -fp, lsl #22]
     2b8:	00193c19 	andseq	r3, r9, r9, lsl ip
     2bc:	012e3600 	teqeq	lr, r0, lsl #12
     2c0:	0e03193f 	mcreq	9, 0, r1, cr3, cr15, {1}
     2c4:	0b3b0b3a 	bleq	ec2fb4 <__bss_end__+0xeb841c>
     2c8:	13491927 	movtne	r1, #39207	; 0x9927
     2cc:	1301193c 	movwne	r1, #6460	; 0x193c
     2d0:	18370000 	ldmdane	r7!, {}	; <UNPREDICTABLE>
     2d4:	38000000 	stmdacc	r0, {}	; <UNPREDICTABLE>
     2d8:	193f012e 	ldmdbne	pc!, {r1, r2, r3, r5, r8}	; <UNPREDICTABLE>
     2dc:	0b3a0e03 	bleq	e83af0 <__bss_end__+0xe78f58>
     2e0:	19270b3b 	stmdbne	r7!, {r0, r1, r3, r4, r5, r8, r9, fp}
     2e4:	193c1349 	ldmdbne	ip!, {r0, r3, r6, r8, r9, ip}
     2e8:	01000000 	mrseq	r0, (UNDEF: 0)
     2ec:	0e250111 	mcreq	1, 1, r0, cr5, cr1, {0}
     2f0:	0e030b13 	vmoveq.32	d3[0], r0
     2f4:	01110e1b 	tsteq	r1, fp, lsl lr
     2f8:	17100612 			; <UNDEFINED> instruction: 0x17100612
     2fc:	24020000 	strcs	r0, [r2], #-0
     300:	3e0b0b00 	vmlacc.f64	d0, d11, d0
     304:	0008030b 	andeq	r0, r8, fp, lsl #6
     308:	00240300 	eoreq	r0, r4, r0, lsl #6
     30c:	0b3e0b0b 	bleq	f82f40 <__bss_end__+0xf783a8>
     310:	00000e03 	andeq	r0, r0, r3, lsl #28
     314:	03001604 	movweq	r1, #1540	; 0x604
     318:	3b0b3a0e 	blcc	2ceb58 <__bss_end__+0x2c3fc0>
     31c:	0013490b 	andseq	r4, r3, fp, lsl #18
     320:	000f0500 	andeq	r0, pc, r0, lsl #10
     324:	00000b0b 	andeq	r0, r0, fp, lsl #22
     328:	0b000f06 	bleq	3f48 <__code_start__-0x40b8>
     32c:	0013490b 	andseq	r4, r3, fp, lsl #18
     330:	00260700 	eoreq	r0, r6, r0, lsl #14
     334:	00001349 	andeq	r1, r0, r9, asr #6
     338:	27011508 	strcs	r1, [r1, -r8, lsl #10]
     33c:	00130119 	andseq	r0, r3, r9, lsl r1
     340:	00050900 	andeq	r0, r5, r0, lsl #18
     344:	00001349 	andeq	r1, r0, r9, asr #6
     348:	03012e0a 	movweq	r2, #7690	; 0x1e0a
     34c:	3b0b3a0e 	blcc	2ceb8c <__bss_end__+0x2c3ff4>
     350:	4919270b 	ldmdbmi	r9, {r0, r1, r3, r8, r9, sl, sp}
     354:	010b2013 	tsteq	fp, r3, lsl r0
     358:	0b000013 	bleq	3ac <__code_start__-0x7c54>
     35c:	08030034 	stmdaeq	r3, {r2, r4, r5}
     360:	0b3b0b3a 	bleq	ec3050 <__bss_end__+0xeb84b8>
     364:	00001349 	andeq	r1, r0, r9, asr #6
     368:	0300050c 	movweq	r0, #1292	; 0x50c
     36c:	3b0b3a08 	blcc	2ceb94 <__bss_end__+0x2c3ffc>
     370:	0013490b 	andseq	r4, r3, fp, lsl #18
     374:	012e0d00 	teqeq	lr, r0, lsl #26
     378:	0b3a0e03 	bleq	e83b8c <__bss_end__+0xe78ff4>
     37c:	19270b3b 	stmdbne	r7!, {r0, r1, r3, r4, r5, r8, r9, fp}
     380:	13010b20 	movwne	r0, #6944	; 0x1b20
     384:	340e0000 	strcc	r0, [lr], #-0
     388:	3a0e0300 	bcc	380f90 <__bss_end__+0x3763f8>
     38c:	490b3b0b 	stmdbmi	fp, {r0, r1, r3, r8, r9, fp, ip, sp}
     390:	0f000013 	svceq	0x00000013
     394:	193f012e 	ldmdbne	pc!, {r1, r2, r3, r5, r8}	; <UNPREDICTABLE>
     398:	0b3a0e03 	bleq	e83bac <__bss_end__+0xe79014>
     39c:	19270b3b 	stmdbne	r7!, {r0, r1, r3, r4, r5, r8, r9, fp}
     3a0:	06120111 			; <UNDEFINED> instruction: 0x06120111
     3a4:	42971840 	addsmi	r1, r7, #64, 16	; 0x400000
     3a8:	00130119 	andseq	r0, r3, r9, lsl r1
     3ac:	00051000 	andeq	r1, r5, r0
     3b0:	0b3a0e03 	bleq	e83bc4 <__bss_end__+0xe7902c>
     3b4:	13490b3b 	movtne	r0, #39739	; 0x9b3b
     3b8:	00001702 	andeq	r1, r0, r2, lsl #14
     3bc:	03003411 	movweq	r3, #1041	; 0x411
     3c0:	3b0b3a0e 	blcc	2cec00 <__bss_end__+0x2c4068>
     3c4:	0213490b 	andseq	r4, r3, #180224	; 0x2c000
     3c8:	12000017 	andne	r0, r0, #23
     3cc:	0e030034 	mcreq	0, 0, r0, cr3, cr4, {1}
     3d0:	19341349 	ldmdbne	r4!, {r0, r3, r6, r8, r9, ip}
     3d4:	00001802 	andeq	r1, r0, r2, lsl #16
     3d8:	31011d13 	tstcc	r1, r3, lsl sp
     3dc:	12011113 	andne	r1, r1, #-1073741820	; 0xc0000004
     3e0:	590b5806 	stmdbpl	fp, {r1, r2, fp, ip, lr}
     3e4:	0013010b 	andseq	r0, r3, fp, lsl #2
     3e8:	010b1400 	tsteq	fp, r0, lsl #8
     3ec:	06120111 			; <UNDEFINED> instruction: 0x06120111
     3f0:	34150000 	ldrcc	r0, [r5], #-0
     3f4:	02133100 	andseq	r3, r3, #0, 2
     3f8:	16000017 			; <UNDEFINED> instruction: 0x16000017
     3fc:	13310005 	teqne	r1, #5
     400:	00001702 	andeq	r1, r0, r2, lsl #14
     404:	31000517 	tstcc	r0, r7, lsl r5
     408:	00051c13 	andeq	r1, r5, r3, lsl ip
     40c:	00051800 	andeq	r1, r5, r0, lsl #16
     410:	0b1c1331 	bleq	7050dc <__bss_end__+0x6fa544>
     414:	89190000 	ldmdbhi	r9, {}	; <UNPREDICTABLE>
     418:	11000182 	smlabbne	r0, r2, r1, r0
     41c:	00133101 	andseq	r3, r3, r1, lsl #2
     420:	82891a00 	addhi	r1, r9, #0, 20
     424:	01110101 	tsteq	r1, r1, lsl #2
     428:	13011331 	movwne	r1, #4913	; 0x1331
     42c:	8a1b0000 	bhi	6c0434 <__bss_end__+0x6b589c>
     430:	02000182 	andeq	r0, r0, #-2147483616	; 0x80000020
     434:	18429118 	stmdane	r2, {r3, r4, r8, ip, pc}^
     438:	011c0000 	tsteq	ip, r0
     43c:	01134901 	tsteq	r3, r1, lsl #18
     440:	1d000013 	stcne	0, cr0, [r0, #-76]	; 0xffffffb4
     444:	13490021 	movtne	r0, #36897	; 0x9021
     448:	00000b2f 	andeq	r0, r0, pc, lsr #22
     44c:	0300341e 	movweq	r3, #1054	; 0x41e
     450:	3413490e 	ldrcc	r4, [r3], #-2318	; 0x90e
     454:	000e1c19 	andeq	r1, lr, r9, lsl ip
     458:	00051f00 	andeq	r1, r5, r0, lsl #30
     45c:	0b3a0803 	bleq	e82470 <__bss_end__+0xe778d8>
     460:	13490b3b 	movtne	r0, #39739	; 0x9b3b
     464:	00001702 	andeq	r1, r0, r2, lsl #14
     468:	03003420 	movweq	r3, #1056	; 0x420
     46c:	3b0b3a0e 	blcc	2cecac <__bss_end__+0x2c4114>
     470:	0213490b 	andseq	r4, r3, #180224	; 0x2c000
     474:	21000018 	tstcs	r0, r8, lsl r0
     478:	13310034 	teqne	r1, #52	; 0x34
     47c:	1d220000 	stcne	0, cr0, [r2, #-0]
     480:	11133101 	tstne	r3, r1, lsl #2
     484:	58061201 	stmdapl	r6, {r0, r9, ip}
     488:	000b590b 	andeq	r5, fp, fp, lsl #18
     48c:	00342300 	eorseq	r2, r4, r0, lsl #6
     490:	18021331 	stmdane	r2, {r0, r4, r5, r8, r9, ip}
     494:	89240000 	stmdbhi	r4!, {}	; <UNPREDICTABLE>
     498:	11010182 	smlabbne	r1, r2, r1, r0
     49c:	25000001 	strcs	r0, [r0, #-1]
     4a0:	08030034 	stmdaeq	r3, {r2, r4, r5}
     4a4:	0b3b0b3a 	bleq	ec3194 <__bss_end__+0xeb85fc>
     4a8:	051c1349 	ldreq	r1, [ip, #-841]	; 0x349
     4ac:	05260000 	streq	r0, [r6, #-0]!
     4b0:	3a0e0300 	bcc	3810b8 <__bss_end__+0x376520>
     4b4:	490b3b0b 	stmdbmi	fp, {r0, r1, r3, r8, r9, fp, ip, sp}
     4b8:	00180213 	andseq	r0, r8, r3, lsl r2
     4bc:	00052700 	andeq	r2, r5, r0, lsl #14
     4c0:	18021331 	stmdane	r2, {r0, r4, r5, r8, r9, ip}
     4c4:	05280000 	streq	r0, [r8, #-0]!
     4c8:	3a080300 	bcc	2010d0 <__bss_end__+0x1f6538>
     4cc:	490b3b0b 	stmdbmi	fp, {r0, r1, r3, r8, r9, fp, ip, sp}
     4d0:	00180213 	andseq	r0, r8, r3, lsl r2
     4d4:	00052900 	andeq	r2, r5, r0, lsl #18
     4d8:	061c1331 			; <UNDEFINED> instruction: 0x061c1331
     4dc:	342a0000 	strtcc	r0, [sl], #-0
     4e0:	3a0e0300 	bcc	3810e8 <__bss_end__+0x376550>
     4e4:	490b3b0b 	stmdbmi	fp, {r0, r1, r3, r8, r9, fp, ip, sp}
     4e8:	00061c13 	andeq	r1, r6, r3, lsl ip
     4ec:	011d2b00 	tsteq	sp, r0, lsl #22
     4f0:	01111331 	tsteq	r1, r1, lsr r3
     4f4:	0b580612 	bleq	1601d44 <__bss_end__+0x15f71ac>
     4f8:	00000559 	andeq	r0, r0, r9, asr r5
     4fc:	3f012e2c 	svccc	0x00012e2c
     500:	3a0e0319 	bcc	38116c <__bss_end__+0x3765d4>
     504:	27053b0b 	strcs	r3, [r5, -fp, lsl #22]
     508:	11134919 	tstne	r3, r9, lsl r9
     50c:	40061201 	andmi	r1, r6, r1, lsl #4
     510:	19429718 	stmdbne	r2, {r3, r4, r8, r9, sl, ip, pc}^
     514:	00001301 	andeq	r1, r0, r1, lsl #6
     518:	0300052d 	movweq	r0, #1325	; 0x52d
     51c:	3b0b3a08 	blcc	2ced44 <__bss_end__+0x2c41ac>
     520:	02134905 	andseq	r4, r3, #81920	; 0x14000
     524:	2e000017 	mcrcs	0, 0, r0, cr0, cr7, {0}
     528:	0e030034 	mcreq	0, 0, r0, cr3, cr4, {1}
     52c:	053b0b3a 	ldreq	r0, [fp, #-2874]!	; 0xb3a
     530:	17021349 	strne	r1, [r2, -r9, asr #6]
     534:	892f0000 	stmdbhi	pc!, {}	; <UNPREDICTABLE>
     538:	11010182 	smlabbne	r1, r2, r1, r0
     53c:	00133101 	andseq	r3, r3, r1, lsl #2
     540:	00343000 	eorseq	r3, r4, r0
     544:	0b3a0e03 	bleq	e83d58 <__bss_end__+0xe791c0>
     548:	13490b3b 	movtne	r0, #39739	; 0x9b3b
     54c:	1802193f 	stmdane	r2, {r0, r1, r2, r3, r4, r5, r8, fp, ip}
     550:	2e310000 	cdpcs	0, 3, cr0, cr1, cr0, {0}
     554:	03193f00 	tsteq	r9, #0, 30
     558:	3b0b3a0e 	blcc	2ced98 <__bss_end__+0x2c4200>
     55c:	3c19270b 	ldccc	7, cr2, [r9], {11}
     560:	32000019 	andcc	r0, r0, #25
     564:	193f012e 	ldmdbne	pc!, {r1, r2, r3, r5, r8}	; <UNPREDICTABLE>
     568:	0b3a0e03 	bleq	e83d7c <__bss_end__+0xe791e4>
     56c:	19270b3b 	stmdbne	r7!, {r0, r1, r3, r4, r5, r8, r9, fp}
     570:	193c1349 	ldmdbne	ip!, {r0, r3, r6, r8, r9, ip}
     574:	00001301 	andeq	r1, r0, r1, lsl #6
     578:	00001833 	andeq	r1, r0, r3, lsr r8
     57c:	11010000 	mrsne	r0, (UNDEF: 1)
     580:	130e2501 	movwne	r2, #58625	; 0xe501
     584:	1b0e030b 	blne	3811b8 <__bss_end__+0x376620>
     588:	1201110e 	andne	r1, r1, #-2147483645	; 0x80000003
     58c:	00171006 	andseq	r1, r7, r6
     590:	00240200 	eoreq	r0, r4, r0, lsl #4
     594:	0b3e0b0b 	bleq	f831c8 <__bss_end__+0xf78630>
     598:	00000803 	andeq	r0, r0, r3, lsl #16
     59c:	0b002403 	bleq	95b0 <rpi_set_output+0x20>
     5a0:	030b3e0b 	movweq	r3, #48651	; 0xbe0b
     5a4:	0400000e 	streq	r0, [r0], #-14
     5a8:	0e030016 	mcreq	0, 0, r0, cr3, cr6, {0}
     5ac:	0b3b0b3a 	bleq	ec329c <__bss_end__+0xeb8704>
     5b0:	00001349 	andeq	r1, r0, r9, asr #6
     5b4:	0b000f05 	bleq	41d0 <__code_start__-0x3e30>
     5b8:	0600000b 	streq	r0, [r0], -fp
     5bc:	0b0b000f 	bleq	2c0600 <__bss_end__+0x2b5a68>
     5c0:	00001349 	andeq	r1, r0, r9, asr #6
     5c4:	49002607 	stmdbmi	r0, {r0, r1, r2, r9, sl, sp}
     5c8:	08000013 	stmdaeq	r0, {r0, r1, r4}
     5cc:	19270115 	stmdbne	r7!, {r0, r2, r4, r8}
     5d0:	00001301 	andeq	r1, r0, r1, lsl #6
     5d4:	49000509 	stmdbmi	r0, {r0, r3, r8, sl}
     5d8:	0a000013 	beq	62c <__code_start__-0x79d4>
     5dc:	0e030113 	mcreq	1, 0, r0, cr3, cr3, {0}
     5e0:	0b3a0b0b 	bleq	e83214 <__bss_end__+0xe7867c>
     5e4:	13010b3b 	movwne	r0, #6971	; 0x1b3b
     5e8:	0d0b0000 	stceq	0, cr0, [fp, #-0]
     5ec:	3a0e0300 	bcc	3811f4 <__bss_end__+0x37665c>
     5f0:	490b3b0b 	stmdbmi	fp, {r0, r1, r3, r8, r9, fp, ip, sp}
     5f4:	000b3813 	andeq	r3, fp, r3, lsl r8
     5f8:	000d0c00 	andeq	r0, sp, r0, lsl #24
     5fc:	0b3a0803 	bleq	e82610 <__bss_end__+0xe77a78>
     600:	13490b3b 	movtne	r0, #39739	; 0x9b3b
     604:	00000b38 	andeq	r0, r0, r8, lsr fp
     608:	0000350d 	andeq	r3, r0, sp, lsl #10
     60c:	01150e00 	tsteq	r5, r0, lsl #28
     610:	13491927 	movtne	r1, #39207	; 0x9927
     614:	00001301 	andeq	r1, r0, r1, lsl #6
     618:	4900350f 	stmdbmi	r0, {r0, r1, r2, r3, r8, sl, ip, sp}
     61c:	10000013 	andne	r0, r0, r3, lsl r0
     620:	0e03012e 	adfeqsp	f0, f3, #0.5
     624:	0b3b0b3a 	bleq	ec3314 <__bss_end__+0xeb877c>
     628:	13491927 	movtne	r1, #39207	; 0x9927
     62c:	13010b20 	movwne	r0, #6944	; 0x1b20
     630:	34110000 	ldrcc	r0, [r1], #-0
     634:	3a080300 	bcc	20123c <__bss_end__+0x1f66a4>
     638:	490b3b0b 	stmdbmi	fp, {r0, r1, r3, r8, r9, fp, ip, sp}
     63c:	12000013 	andne	r0, r0, #19
     640:	0e030005 	cdpeq	0, 0, cr0, cr3, cr5, {0}
     644:	0b3b0b3a 	bleq	ec3334 <__bss_end__+0xeb879c>
     648:	00001349 	andeq	r1, r0, r9, asr #6
     64c:	03003413 	movweq	r3, #1043	; 0x413
     650:	3b0b3a0e 	blcc	2cee90 <__bss_end__+0x2c42f8>
     654:	0013490b 	andseq	r4, r3, fp, lsl #18
     658:	012e1400 	teqeq	lr, r0, lsl #8
     65c:	0b3a0e03 	bleq	e83e70 <__bss_end__+0xe792d8>
     660:	19270b3b 	stmdbne	r7!, {r0, r1, r3, r4, r5, r8, r9, fp}
     664:	06120111 			; <UNDEFINED> instruction: 0x06120111
     668:	42971840 	addsmi	r1, r7, #64, 16	; 0x400000
     66c:	00130119 	andseq	r0, r3, r9, lsl r1
     670:	00051500 	andeq	r1, r5, r0, lsl #10
     674:	0b3a0e03 	bleq	e83e88 <__bss_end__+0xe792f0>
     678:	13490b3b 	movtne	r0, #39739	; 0x9b3b
     67c:	00001702 	andeq	r1, r0, r2, lsl #14
     680:	03000516 	movweq	r0, #1302	; 0x516
     684:	3b0b3a08 	blcc	2ceeac <__bss_end__+0x2c4314>
     688:	0213490b 	andseq	r4, r3, #180224	; 0x2c000
     68c:	17000017 	smladne	r0, r7, r0, r0
     690:	0e030034 	mcreq	0, 0, r0, cr3, cr4, {1}
     694:	19341349 	ldmdbne	r4!, {r0, r3, r6, r8, r9, ip}
     698:	00001802 	andeq	r1, r0, r2, lsl #16
     69c:	03003418 	movweq	r3, #1048	; 0x418
     6a0:	3b0b3a08 	blcc	2ceec8 <__bss_end__+0x2c4330>
     6a4:	0213490b 	andseq	r4, r3, #180224	; 0x2c000
     6a8:	19000017 	stmdbne	r0, {r0, r1, r2, r4}
     6ac:	1331011d 	teqne	r1, #1073741831	; 0x40000007
     6b0:	06120111 			; <UNDEFINED> instruction: 0x06120111
     6b4:	0b590b58 	bleq	164341c <__bss_end__+0x1638884>
     6b8:	00001301 	andeq	r1, r0, r1, lsl #6
     6bc:	11010b1a 	tstne	r1, sl, lsl fp
     6c0:	00061201 	andeq	r1, r6, r1, lsl #4
     6c4:	00341b00 	eorseq	r1, r4, r0, lsl #22
     6c8:	00001331 	andeq	r1, r0, r1, lsr r3
     6cc:	31011d1c 	tstcc	r1, ip, lsl sp
     6d0:	12011113 	andne	r1, r1, #-1073741820	; 0xc0000004
     6d4:	590b5806 	stmdbpl	fp, {r1, r2, fp, ip, lr}
     6d8:	1d00000b 	stcne	0, cr0, [r0, #-44]	; 0xffffffd4
     6dc:	13310034 	teqne	r1, #52	; 0x34
     6e0:	00001702 	andeq	r1, r0, r2, lsl #14
     6e4:	0182891e 	orreq	r8, r2, lr, lsl r9
     6e8:	31011101 	tstcc	r1, r1, lsl #2
     6ec:	00130113 	andseq	r0, r3, r3, lsl r1
     6f0:	828a1f00 	addhi	r1, sl, #0, 30
     6f4:	18020001 	stmdane	r2, {r0}
     6f8:	00184291 	mulseq	r8, r1, r2
     6fc:	82892000 	addhi	r2, r9, #0
     700:	01110001 	tsteq	r1, r1
     704:	00001331 	andeq	r1, r0, r1, lsr r3
     708:	01828921 	orreq	r8, r2, r1, lsr #18
     70c:	01011101 	tsteq	r1, r1, lsl #2
     710:	22000013 	andcs	r0, r0, #19
     714:	01018289 	smlabbeq	r1, r9, r2, r8
     718:	13310111 	teqne	r1, #1073741828	; 0x40000004
     71c:	01230000 	teqeq	r3, r0
     720:	01134901 	tsteq	r3, r1, lsl #18
     724:	24000013 	strcs	r0, [r0], #-19
     728:	13490021 	movtne	r0, #36897	; 0x9021
     72c:	00000b2f 	andeq	r0, r0, pc, lsr #22
     730:	03003425 	movweq	r3, #1061	; 0x425
     734:	3413490e 	ldrcc	r4, [r3], #-2318	; 0x90e
     738:	000e1c19 	andeq	r1, lr, r9, lsl ip
     73c:	00052600 	andeq	r2, r5, r0, lsl #12
     740:	0b3a0803 	bleq	e82754 <__bss_end__+0xe77bbc>
     744:	13490b3b 	movtne	r0, #39739	; 0x9b3b
     748:	2e270000 	cdpcs	0, 2, cr0, cr7, cr0, {0}
     74c:	3a0e0301 	bcc	381358 <__bss_end__+0x3767c0>
     750:	270b3b0b 	strcs	r3, [fp, -fp, lsl #22]
     754:	11134919 	tstne	r3, r9, lsl r9
     758:	40061201 	andmi	r1, r6, r1, lsl #4
     75c:	19429718 	stmdbne	r2, {r3, r4, r8, r9, sl, ip, pc}^
     760:	00001301 	andeq	r1, r0, r1, lsl #6
     764:	03003428 	movweq	r3, #1064	; 0x428
     768:	3b0b3a0e 	blcc	2cefa8 <__bss_end__+0x2c4410>
     76c:	0213490b 	andseq	r4, r3, #180224	; 0x2c000
     770:	29000018 	stmdbcs	r0, {r3, r4}
     774:	13310005 	teqne	r1, #5
     778:	00000b1c 	andeq	r0, r0, ip, lsl fp
     77c:	3100052a 	tstcc	r0, sl, lsr #10
     780:	00170213 	andseq	r0, r7, r3, lsl r2
     784:	00342b00 	eorseq	r2, r4, r0, lsl #22
     788:	18021331 	stmdane	r2, {r0, r4, r5, r8, r9, ip}
     78c:	342c0000 	strtcc	r0, [ip], #-0
     790:	1c133100 	ldfnes	f3, [r3], {-0}
     794:	2d00000b 	stccs	0, cr0, [r0, #-44]	; 0xffffffd4
     798:	13310005 	teqne	r1, #5
     79c:	052e0000 	streq	r0, [lr, #-0]!
     7a0:	3a080300 	bcc	2013a8 <__bss_end__+0x1f6810>
     7a4:	490b3b0b 	stmdbmi	fp, {r0, r1, r3, r8, r9, fp, ip, sp}
     7a8:	00180213 	andseq	r0, r8, r3, lsl r2
     7ac:	012e2f00 	teqeq	lr, r0, lsl #30
     7b0:	0e03193f 	mcreq	9, 0, r1, cr3, cr15, {1}
     7b4:	0b3b0b3a 	bleq	ec34a4 <__bss_end__+0xeb890c>
     7b8:	13491927 	movtne	r1, #39207	; 0x9927
     7bc:	06120111 			; <UNDEFINED> instruction: 0x06120111
     7c0:	42971840 	addsmi	r1, r7, #64, 16	; 0x400000
     7c4:	00130119 	andseq	r0, r3, r9, lsl r1
     7c8:	00343000 	eorseq	r3, r4, r0
     7cc:	0b3a0e03 	bleq	e83fe0 <__bss_end__+0xe79448>
     7d0:	13490b3b 	movtne	r0, #39739	; 0x9b3b
     7d4:	193c193f 	ldmdbne	ip!, {r0, r1, r2, r3, r4, r5, r8, fp, ip}
     7d8:	2e310000 	cdpcs	0, 3, cr0, cr1, cr0, {0}
     7dc:	03193f01 	tsteq	r9, #1, 30
     7e0:	3b0b3a0e 	blcc	2cf020 <__bss_end__+0x2c4488>
     7e4:	4919270b 	ldmdbmi	r9, {r0, r1, r3, r8, r9, sl, sp}
     7e8:	01193c13 	tsteq	r9, r3, lsl ip
     7ec:	32000013 	andcc	r0, r0, #19
     7f0:	00000018 	andeq	r0, r0, r8, lsl r0
     7f4:	3f002e33 	svccc	0x00002e33
     7f8:	3a0e0319 	bcc	381464 <__bss_end__+0x3768cc>
     7fc:	270b3b0b 	strcs	r3, [fp, -fp, lsl #22]
     800:	00193c19 	andseq	r3, r9, r9, lsl ip
     804:	012e3400 	teqeq	lr, r0, lsl #8
     808:	0e03193f 	mcreq	9, 0, r1, cr3, cr15, {1}
     80c:	0b3b0b3a 	bleq	ec34fc <__bss_end__+0xeb8964>
     810:	193c1927 	ldmdbne	ip!, {r0, r1, r2, r5, r8, fp, ip}
     814:	00001301 	andeq	r1, r0, r1, lsl #6
     818:	01110100 	tsteq	r1, r0, lsl #2
     81c:	0b130e25 	bleq	4c40b8 <__bss_end__+0x4b9520>
     820:	0e1b0e03 	cdpeq	14, 1, cr0, cr11, cr3, {0}
     824:	06120111 			; <UNDEFINED> instruction: 0x06120111
     828:	00001710 	andeq	r1, r0, r0, lsl r7
     82c:	03001602 	movweq	r1, #1538	; 0x602
     830:	3b0b3a0e 	blcc	2cf070 <__bss_end__+0x2c44d8>
     834:	0013490b 	andseq	r4, r3, fp, lsl #18
     838:	01130300 	tsteq	r3, r0, lsl #6
     83c:	0b0b0e03 	bleq	2c4050 <__bss_end__+0x2b94b8>
     840:	0b3b0b3a 	bleq	ec3530 <__bss_end__+0xeb8998>
     844:	00001301 	andeq	r1, r0, r1, lsl #6
     848:	03000d04 	movweq	r0, #3332	; 0xd04
     84c:	3813490e 	ldmdacc	r3, {r1, r2, r3, r8, fp, lr}
     850:	0019340b 	andseq	r3, r9, fp, lsl #8
     854:	000f0500 	andeq	r0, pc, r0, lsl #10
     858:	00000b0b 	andeq	r0, r0, fp, lsl #22
     85c:	0b002406 	bleq	987c <va_printk+0x284>
     860:	030b3e0b 	movweq	r3, #48651	; 0xbe0b
     864:	07000008 	streq	r0, [r0, -r8]
     868:	0b0b0024 	bleq	2c0900 <__bss_end__+0x2b5d68>
     86c:	0e030b3e 	vmoveq.16	d3[0], r0
     870:	0f080000 	svceq	0x00080000
     874:	490b0b00 	stmdbmi	fp, {r8, r9, fp}
     878:	09000013 	stmdbeq	r0, {r0, r1, r4}
     87c:	13490026 	movtne	r0, #36902	; 0x9026
     880:	2e0a0000 	cdpcs	0, 0, cr0, cr10, cr0, {0}
     884:	03193f01 	tsteq	r9, #1, 30
     888:	3b0b3a0e 	blcc	2cf0c8 <__bss_end__+0x2c4530>
     88c:	4919270b 	ldmdbmi	r9, {r0, r1, r3, r8, r9, sl, sp}
     890:	12011113 	andne	r1, r1, #-1073741820	; 0xc0000004
     894:	97184006 	ldrls	r4, [r8, -r6]
     898:	13011942 	movwne	r1, #6466	; 0x1942
     89c:	050b0000 	streq	r0, [fp, #-0]
     8a0:	3a080300 	bcc	2014a8 <__bss_end__+0x1f6910>
     8a4:	490b3b0b 	stmdbmi	fp, {r0, r1, r3, r8, r9, fp, ip, sp}
     8a8:	00180213 	andseq	r0, r8, r3, lsl r2
     8ac:	00180c00 	andseq	r0, r8, r0, lsl #24
     8b0:	340d0000 	strcc	r0, [sp], #-0
     8b4:	3a080300 	bcc	2014bc <__bss_end__+0x1f6924>
     8b8:	490b3b0b 	stmdbmi	fp, {r0, r1, r3, r8, r9, fp, ip, sp}
     8bc:	00180213 	andseq	r0, r8, r3, lsl r2
     8c0:	00340e00 	eorseq	r0, r4, r0, lsl #28
     8c4:	0b3a0e03 	bleq	e840d8 <__bss_end__+0xe79540>
     8c8:	13490b3b 	movtne	r0, #39739	; 0x9b3b
     8cc:	00001802 	andeq	r1, r0, r2, lsl #16
     8d0:	0300340f 	movweq	r3, #1039	; 0x40f
     8d4:	3b0b3a08 	blcc	2cf0fc <__bss_end__+0x2c4564>
     8d8:	0213490b 	andseq	r4, r3, #180224	; 0x2c000
     8dc:	10000017 	andne	r0, r0, r7, lsl r0
     8e0:	01018289 	smlabbeq	r1, r9, r2, r8
     8e4:	13310111 	teqne	r1, #1073741828	; 0x40000004
     8e8:	00001301 	andeq	r1, r0, r1, lsl #6
     8ec:	01828a11 	orreq	r8, r2, r1, lsl sl
     8f0:	91180200 	tstls	r8, r0, lsl #4
     8f4:	00001842 	andeq	r1, r0, r2, asr #16
     8f8:	01828912 	orreq	r8, r2, r2, lsl r9
     8fc:	00011101 	andeq	r1, r1, r1, lsl #2
     900:	01011300 	mrseq	r1, SP_irq
     904:	13011349 	movwne	r1, #4937	; 0x1349
     908:	21140000 	tstcs	r4, r0
     90c:	2f134900 	svccs	0x00134900
     910:	15000005 	strne	r0, [r0, #-5]
     914:	19270115 	stmdbne	r7!, {r0, r2, r4, r8}
     918:	13011349 	movwne	r1, #4937	; 0x1349
     91c:	05160000 	ldreq	r0, [r6, #-0]
     920:	00134900 	andseq	r4, r3, r0, lsl #18
     924:	00341700 	eorseq	r1, r4, r0, lsl #14
     928:	0b3a0e03 	bleq	e8413c <__bss_end__+0xe795a4>
     92c:	13490b3b 	movtne	r0, #39739	; 0x9b3b
     930:	193c193f 	ldmdbne	ip!, {r0, r1, r2, r3, r4, r5, r8, fp, ip}
     934:	2e180000 	cdpcs	0, 1, cr0, cr8, cr0, {0}
     938:	03193f01 	tsteq	r9, #1, 30
     93c:	3b0b3a0e 	blcc	2cf17c <__bss_end__+0x2c45e4>
     940:	4919270b 	ldmdbmi	r9, {r0, r1, r3, r8, r9, sl, sp}
     944:	00193c13 	andseq	r3, r9, r3, lsl ip
     948:	11010000 	mrsne	r0, (UNDEF: 1)
     94c:	130e2501 	movwne	r2, #58625	; 0xe501
     950:	1b0e030b 	blne	381584 <__bss_end__+0x3769ec>
     954:	1201110e 	andne	r1, r1, #-2147483645	; 0x80000003
     958:	00171006 	andseq	r1, r7, r6
     95c:	00240200 	eoreq	r0, r4, r0, lsl #4
     960:	0b3e0b0b 	bleq	f83594 <__bss_end__+0xf789fc>
     964:	00000803 	andeq	r0, r0, r3, lsl #16
     968:	0b002403 	bleq	997c <fast_interrupt_vector+0x2c>
     96c:	030b3e0b 	movweq	r3, #48651	; 0xbe0b
     970:	0400000e 	streq	r0, [r0], #-14
     974:	0e03012e 	adfeqsp	f0, f3, #0.5
     978:	0b3b0b3a 	bleq	ec3668 <__bss_end__+0xeb8ad0>
     97c:	13491927 	movtne	r1, #39207	; 0x9927
     980:	06120111 			; <UNDEFINED> instruction: 0x06120111
     984:	42971840 	addsmi	r1, r7, #64, 16	; 0x400000
     988:	00130119 	andseq	r0, r3, r9, lsl r1
     98c:	00050500 	andeq	r0, r5, r0, lsl #10
     990:	0b3a0803 	bleq	e829a4 <__bss_end__+0xe77e0c>
     994:	13490b3b 	movtne	r0, #39739	; 0x9b3b
     998:	00001702 	andeq	r1, r0, r2, lsl #14
     99c:	01828906 	orreq	r8, r2, r6, lsl #18
     9a0:	31011101 	tstcc	r1, r1, lsl #2
     9a4:	07000013 	smladeq	r0, r3, r0, r0
     9a8:	0001828a 	andeq	r8, r1, sl, lsl #5
     9ac:	42911802 	addsmi	r1, r1, #131072	; 0x20000
     9b0:	08000018 	stmdaeq	r0, {r3, r4}
     9b4:	193f002e 	ldmdbne	pc!, {r1, r2, r3, r5}	; <UNPREDICTABLE>
     9b8:	0b3a0e03 	bleq	e841cc <__bss_end__+0xe79634>
     9bc:	19270b3b 	stmdbne	r7!, {r0, r1, r3, r4, r5, r8, r9, fp}
     9c0:	06120111 			; <UNDEFINED> instruction: 0x06120111
     9c4:	42971840 	addsmi	r1, r7, #64, 16	; 0x400000
     9c8:	09000019 	stmdbeq	r0, {r0, r3, r4}
     9cc:	193f012e 	ldmdbne	pc!, {r1, r2, r3, r5, r8}	; <UNPREDICTABLE>
     9d0:	0b3a0e03 	bleq	e841e4 <__bss_end__+0xe7964c>
     9d4:	19270b3b 	stmdbne	r7!, {r0, r1, r3, r4, r5, r8, r9, fp}
     9d8:	06120111 			; <UNDEFINED> instruction: 0x06120111
     9dc:	42971840 	addsmi	r1, r7, #64, 16	; 0x400000
     9e0:	00130119 	andseq	r0, r3, r9, lsl r1
     9e4:	00050a00 	andeq	r0, r5, r0, lsl #20
     9e8:	0b3a0803 	bleq	e829fc <__bss_end__+0xe77e64>
     9ec:	13490b3b 	movtne	r0, #39739	; 0x9b3b
     9f0:	00001802 	andeq	r1, r0, r2, lsl #16
     9f4:	2701150b 	strcs	r1, [r1, -fp, lsl #10]
     9f8:	01134919 	tsteq	r3, r9, lsl r9
     9fc:	0c000013 	stceq	0, cr0, [r0], {19}
     a00:	13490005 	movtne	r0, #36869	; 0x9005
     a04:	0f0d0000 	svceq	0x000d0000
     a08:	490b0b00 	stmdbmi	fp, {r8, r9, fp}
     a0c:	0e000013 	mcreq	0, 0, r0, cr0, cr3, {0}
     a10:	0e030034 	mcreq	0, 0, r0, cr3, cr4, {1}
     a14:	0b3b0b3a 	bleq	ec3704 <__bss_end__+0xeb8b6c>
     a18:	193f1349 	ldmdbne	pc!, {r0, r3, r6, r8, r9, ip}	; <UNPREDICTABLE>
     a1c:	00001802 	andeq	r1, r0, r2, lsl #16
     a20:	3f012e0f 	svccc	0x00012e0f
     a24:	3a0e0319 	bcc	381690 <__bss_end__+0x376af8>
     a28:	270b3b0b 	strcs	r3, [fp, -fp, lsl #22]
     a2c:	00193c19 	andseq	r3, r9, r9, lsl ip
     a30:	11010000 	mrsne	r0, (UNDEF: 1)
     a34:	130e2501 	movwne	r2, #58625	; 0xe501
     a38:	1b0e030b 	blne	38166c <__bss_end__+0x376ad4>
     a3c:	1201110e 	andne	r1, r1, #-2147483645	; 0x80000003
     a40:	00171006 	andseq	r1, r7, r6
     a44:	00240200 	eoreq	r0, r4, r0, lsl #4
     a48:	0b3e0b0b 	bleq	f8367c <__bss_end__+0xf78ae4>
     a4c:	00000803 	andeq	r0, r0, r3, lsl #16
     a50:	0b002403 	bleq	9a64 <int_init+0x40>
     a54:	030b3e0b 	movweq	r3, #48651	; 0xbe0b
     a58:	0400000e 	streq	r0, [r0], #-14
     a5c:	0b0b000f 	bleq	2c0aa0 <__bss_end__+0x2b5f08>
     a60:	00001349 	andeq	r1, r0, r9, asr #6
     a64:	49002605 	stmdbmi	r0, {r0, r2, r9, sl, sp}
     a68:	06000013 			; <UNDEFINED> instruction: 0x06000013
     a6c:	193f012e 	ldmdbne	pc!, {r1, r2, r3, r5, r8}	; <UNPREDICTABLE>
     a70:	0b3a0e03 	bleq	e84284 <__bss_end__+0xe796ec>
     a74:	19270b3b 	stmdbne	r7!, {r0, r1, r3, r4, r5, r8, r9, fp}
     a78:	01111349 	tsteq	r1, r9, asr #6
     a7c:	18400612 	stmdane	r0, {r1, r4, r9, sl}^
     a80:	01194296 			; <UNDEFINED> instruction: 0x01194296
     a84:	07000013 	smladeq	r0, r3, r0, r0
     a88:	08030005 	stmdaeq	r3, {r0, r2}
     a8c:	0b3b0b3a 	bleq	ec377c <__bss_end__+0xeb8be4>
     a90:	17021349 	strne	r1, [r2, -r9, asr #6]
     a94:	15080000 	strne	r0, [r8, #-0]
     a98:	49192701 	ldmdbmi	r9, {r0, r8, r9, sl, sp}
     a9c:	00130113 	andseq	r0, r3, r3, lsl r1
     aa0:	00050900 	andeq	r0, r5, r0, lsl #18
     aa4:	00001349 	andeq	r1, r0, r9, asr #6
     aa8:	0300340a 	movweq	r3, #1034	; 0x40a
     aac:	3b0b3a0e 	blcc	2cf2ec <__bss_end__+0x2c4754>
     ab0:	3f13490b 	svccc	0x0013490b
     ab4:	00193c19 	andseq	r3, r9, r9, lsl ip
     ab8:	00340b00 	eorseq	r0, r4, r0, lsl #22
     abc:	0b3a0e03 	bleq	e842d0 <__bss_end__+0xe79738>
     ac0:	13490b3b 	movtne	r0, #39739	; 0x9b3b
     ac4:	1802193f 	stmdane	r2, {r0, r1, r2, r3, r4, r5, r8, fp, ip}
     ac8:	01000000 	mrseq	r0, (UNDEF: 0)
     acc:	0e250111 	mcreq	1, 1, r0, cr5, cr1, {0}
     ad0:	0e030b13 	vmoveq.32	d3[0], r0
     ad4:	01110e1b 	tsteq	r1, fp, lsl lr
     ad8:	17100612 			; <UNDEFINED> instruction: 0x17100612
     adc:	24020000 	strcs	r0, [r2], #-0
     ae0:	3e0b0b00 	vmlacc.f64	d0, d11, d0
     ae4:	0008030b 	andeq	r0, r8, fp, lsl #6
     ae8:	00240300 	eoreq	r0, r4, r0, lsl #6
     aec:	0b3e0b0b 	bleq	f83720 <__bss_end__+0xf78b88>
     af0:	00000e03 	andeq	r0, r0, r3, lsl #28
     af4:	0b000f04 	bleq	470c <__code_start__-0x38f4>
     af8:	0500000b 	streq	r0, [r0, #-11]
     afc:	0b0b000f 	bleq	2c0b40 <__bss_end__+0x2b5fa8>
     b00:	00001349 	andeq	r1, r0, r9, asr #6
     b04:	49002606 	stmdbmi	r0, {r1, r2, r9, sl, sp}
     b08:	07000013 	smladeq	r0, r3, r0, r0
     b0c:	0e030016 	mcreq	0, 0, r0, cr3, cr6, {0}
     b10:	0b3b0b3a 	bleq	ec3800 <__bss_end__+0xeb8c68>
     b14:	00001349 	andeq	r1, r0, r9, asr #6
     b18:	03011308 	movweq	r1, #4872	; 0x1308
     b1c:	3a0b0b0e 	bcc	2c375c <__bss_end__+0x2b8bc4>
     b20:	010b3b0b 	tsteq	fp, fp, lsl #22
     b24:	09000013 	stmdbeq	r0, {r0, r1, r4}
     b28:	0e03000d 	cdpeq	0, 0, cr0, cr3, cr13, {0}
     b2c:	0b381349 	bleq	e05858 <__bss_end__+0xdfacc0>
     b30:	00001934 	andeq	r1, r0, r4, lsr r9
     b34:	03012e0a 	movweq	r2, #7690	; 0x1e0a
     b38:	3b0b3a0e 	blcc	2cf378 <__bss_end__+0x2c47e0>
     b3c:	4919270b 	ldmdbmi	r9, {r0, r1, r3, r8, r9, sl, sp}
     b40:	12011113 	andne	r1, r1, #-1073741820	; 0xc0000004
     b44:	97184006 	ldrls	r4, [r8, -r6]
     b48:	13011942 	movwne	r1, #6466	; 0x1942
     b4c:	050b0000 	streq	r0, [fp, #-0]
     b50:	3a080300 	bcc	201758 <__bss_end__+0x1f6bc0>
     b54:	490b3b0b 	stmdbmi	fp, {r0, r1, r3, r8, r9, fp, ip, sp}
     b58:	00170213 	andseq	r0, r7, r3, lsl r2
     b5c:	012e0c00 	teqeq	lr, r0, lsl #24
     b60:	0b3a0803 	bleq	e82b74 <__bss_end__+0xe77fdc>
     b64:	19270b3b 	stmdbne	r7!, {r0, r1, r3, r4, r5, r8, r9, fp}
     b68:	01111349 	tsteq	r1, r9, asr #6
     b6c:	18400612 	stmdane	r0, {r1, r4, r9, sl}^
     b70:	01194297 			; <UNDEFINED> instruction: 0x01194297
     b74:	0d000013 	stceq	0, cr0, [r0, #-76]	; 0xffffffb4
     b78:	0e030005 	cdpeq	0, 0, cr0, cr3, cr5, {0}
     b7c:	0b3b0b3a 	bleq	ec386c <__bss_end__+0xeb8cd4>
     b80:	17021349 	strne	r1, [r2, -r9, asr #6]
     b84:	050e0000 	streq	r0, [lr, #-0]
     b88:	3a0e0300 	bcc	381790 <__bss_end__+0x376bf8>
     b8c:	490b3b0b 	stmdbmi	fp, {r0, r1, r3, r8, r9, fp, ip, sp}
     b90:	00180213 	andseq	r0, r8, r3, lsl r2
     b94:	00340f00 	eorseq	r0, r4, r0, lsl #30
     b98:	0b3a0803 	bleq	e82bac <__bss_end__+0xe78014>
     b9c:	13490b3b 	movtne	r0, #39739	; 0x9b3b
     ba0:	00001802 	andeq	r1, r0, r2, lsl #16
     ba4:	03003410 	movweq	r3, #1040	; 0x410
     ba8:	3b0b3a08 	blcc	2cf3d0 <__bss_end__+0x2c4838>
     bac:	0213490b 	andseq	r4, r3, #180224	; 0x2c000
     bb0:	11000017 	tstne	r0, r7, lsl r0
     bb4:	0e030034 	mcreq	0, 0, r0, cr3, cr4, {1}
     bb8:	19341349 	ldmdbne	r4!, {r0, r3, r6, r8, r9, ip}
     bbc:	00001802 	andeq	r1, r0, r2, lsl #16
     bc0:	11010b12 	tstne	r1, r2, lsl fp
     bc4:	01061201 	tsteq	r6, r1, lsl #4
     bc8:	13000013 	movwne	r0, #19
     bcc:	0e030034 	mcreq	0, 0, r0, cr3, cr4, {1}
     bd0:	0b3b0b3a 	bleq	ec38c0 <__bss_end__+0xeb8d28>
     bd4:	17021349 	strne	r1, [r2, -r9, asr #6]
     bd8:	89140000 	ldmdbhi	r4, {}	; <UNPREDICTABLE>
     bdc:	11000182 	smlabbne	r0, r2, r1, r0
     be0:	00133101 	andseq	r3, r3, r1, lsl #2
     be4:	82891500 	addhi	r1, r9, #0, 10
     be8:	01110101 	tsteq	r1, r1, lsl #2
     bec:	13011331 	movwne	r1, #4913	; 0x1331
     bf0:	8a160000 	bhi	580bf8 <__bss_end__+0x576060>
     bf4:	02000182 	andeq	r0, r0, #-2147483616	; 0x80000020
     bf8:	18429118 	stmdane	r2, {r3, r4, r8, ip, pc}^
     bfc:	89170000 	ldmdbhi	r7, {}	; <UNPREDICTABLE>
     c00:	11010182 	smlabbne	r1, r2, r1, r0
     c04:	00133101 	andseq	r3, r3, r1, lsl #2
     c08:	01011800 	tsteq	r1, r0, lsl #16
     c0c:	13011349 	movwne	r1, #4937	; 0x1349
     c10:	21190000 	tstcs	r9, r0
     c14:	2f134900 	svccs	0x00134900
     c18:	1a00000b 	bne	c4c <__code_start__-0x73b4>
     c1c:	193f012e 	ldmdbne	pc!, {r1, r2, r3, r5, r8}	; <UNPREDICTABLE>
     c20:	0b3a0e03 	bleq	e84434 <__bss_end__+0xe7989c>
     c24:	19270b3b 	stmdbne	r7!, {r0, r1, r3, r4, r5, r8, r9, fp}
     c28:	06120111 			; <UNDEFINED> instruction: 0x06120111
     c2c:	42971840 	addsmi	r1, r7, #64, 16	; 0x400000
     c30:	00130119 	andseq	r0, r3, r9, lsl r1
     c34:	01151b00 	tsteq	r5, r0, lsl #22
     c38:	13491927 	movtne	r1, #39207	; 0x9927
     c3c:	00001301 	andeq	r1, r0, r1, lsl #6
     c40:	4900051c 	stmdbmi	r0, {r2, r3, r4, r8, sl}
     c44:	1d000013 	stcne	0, cr0, [r0, #-76]	; 0xffffffb4
     c48:	193f012e 	ldmdbne	pc!, {r1, r2, r3, r5, r8}	; <UNPREDICTABLE>
     c4c:	0b3a0e03 	bleq	e84460 <__bss_end__+0xe798c8>
     c50:	19270b3b 	stmdbne	r7!, {r0, r1, r3, r4, r5, r8, r9, fp}
     c54:	01111349 	tsteq	r1, r9, asr #6
     c58:	18400612 	stmdane	r0, {r1, r4, r9, sl}^
     c5c:	01194297 			; <UNDEFINED> instruction: 0x01194297
     c60:	1e000013 	mcrne	0, 0, r0, cr0, cr3, {0}
     c64:	0111010b 	tsteq	r1, fp, lsl #2
     c68:	00000612 	andeq	r0, r0, r2, lsl r6
     c6c:	0182891f 	orreq	r8, r2, pc, lsl r9
     c70:	01011101 	tsteq	r1, r1, lsl #2
     c74:	20000013 	andcs	r0, r0, r3, lsl r0
     c78:	0e030034 	mcreq	0, 0, r0, cr3, cr4, {1}
     c7c:	0b3b0b3a 	bleq	ec396c <__bss_end__+0xeb8dd4>
     c80:	193f1349 	ldmdbne	pc!, {r0, r3, r6, r8, r9, ip}	; <UNPREDICTABLE>
     c84:	0000193c 	andeq	r1, r0, ip, lsr r9
     c88:	3f002e21 	svccc	0x00002e21
     c8c:	3a0e0319 	bcc	3818f8 <__bss_end__+0x376d60>
     c90:	270b3b0b 	strcs	r3, [fp, -fp, lsl #22]
     c94:	00193c19 	andseq	r3, r9, r9, lsl ip
     c98:	012e2200 	teqeq	lr, r0, lsl #4
     c9c:	0e03193f 	mcreq	9, 0, r1, cr3, cr15, {1}
     ca0:	0b3b0b3a 	bleq	ec3990 <__bss_end__+0xeb8df8>
     ca4:	13491927 	movtne	r1, #39207	; 0x9927
     ca8:	1301193c 	movwne	r1, #6460	; 0x193c
     cac:	18230000 	stmdane	r3!, {}	; <UNPREDICTABLE>
     cb0:	00000000 	andeq	r0, r0, r0
     cb4:	25011101 	strcs	r1, [r1, #-257]	; 0x101
     cb8:	030b130e 	movweq	r1, #45838	; 0xb30e
     cbc:	110e1b0e 	tstne	lr, lr, lsl #22
     cc0:	10061201 	andne	r1, r6, r1, lsl #4
     cc4:	02000017 	andeq	r0, r0, #23
     cc8:	0b0b0024 	bleq	2c0d60 <__bss_end__+0x2b61c8>
     ccc:	08030b3e 	stmdaeq	r3, {r1, r2, r3, r4, r5, r8, r9, fp}
     cd0:	24030000 	strcs	r0, [r3], #-0
     cd4:	3e0b0b00 	vmlacc.f64	d0, d11, d0
     cd8:	000e030b 	andeq	r0, lr, fp, lsl #6
     cdc:	012e0400 	teqeq	lr, r0, lsl #8
     ce0:	0e03193f 	mcreq	9, 0, r1, cr3, cr15, {1}
     ce4:	0b3b0b3a 	bleq	ec39d4 <__bss_end__+0xeb8e3c>
     ce8:	01111927 	tsteq	r1, r7, lsr #18
     cec:	18400612 	stmdane	r0, {r1, r4, r9, sl}^
     cf0:	01194297 			; <UNDEFINED> instruction: 0x01194297
     cf4:	05000013 	streq	r0, [r0, #-19]
     cf8:	08030034 	stmdaeq	r3, {r2, r4, r5}
     cfc:	0b3b0b3a 	bleq	ec39ec <__bss_end__+0xeb8e54>
     d00:	17021349 	strne	r1, [r2, -r9, asr #6]
     d04:	2e060000 	cdpcs	0, 0, cr0, cr6, cr0, {0}
     d08:	03193f01 	tsteq	r9, #1, 30
     d0c:	3b0b3a0e 	blcc	2cf54c <__bss_end__+0x2c49b4>
     d10:	1119270b 	tstne	r9, fp, lsl #14
     d14:	40061201 	andmi	r1, r6, r1, lsl #4
     d18:	19429718 	stmdbne	r2, {r3, r4, r8, r9, sl, ip, pc}^
     d1c:	01000000 	mrseq	r0, (UNDEF: 0)
     d20:	0e250111 	mcreq	1, 1, r0, cr5, cr1, {0}
     d24:	0e030b13 	vmoveq.32	d3[0], r0
     d28:	01110e1b 	tsteq	r1, fp, lsl lr
     d2c:	17100612 			; <UNDEFINED> instruction: 0x17100612
     d30:	24020000 	strcs	r0, [r2], #-0
     d34:	3e0b0b00 	vmlacc.f64	d0, d11, d0
     d38:	0008030b 	andeq	r0, r8, fp, lsl #6
     d3c:	00240300 	eoreq	r0, r4, r0, lsl #6
     d40:	0b3e0b0b 	bleq	f83974 <__bss_end__+0xf78ddc>
     d44:	00000e03 	andeq	r0, r0, r3, lsl #28
     d48:	0b000f04 	bleq	4960 <__code_start__-0x36a0>
     d4c:	0013490b 	andseq	r4, r3, fp, lsl #18
     d50:	00260500 	eoreq	r0, r6, r0, lsl #10
     d54:	00001349 	andeq	r1, r0, r9, asr #6
     d58:	3f012e06 	svccc	0x00012e06
     d5c:	3a0e0319 	bcc	3819c8 <__bss_end__+0x376e30>
     d60:	270b3b0b 	strcs	r3, [fp, -fp, lsl #22]
     d64:	12011119 	andne	r1, r1, #1073741830	; 0x40000006
     d68:	97184006 	ldrls	r4, [r8, -r6]
     d6c:	13011942 	movwne	r1, #6466	; 0x1942
     d70:	89070000 	stmdbhi	r7, {}	; <UNPREDICTABLE>
     d74:	11000182 	smlabbne	r0, r2, r1, r0
     d78:	00133101 	andseq	r3, r3, r1, lsl #2
     d7c:	82890800 	addhi	r0, r9, #0, 16
     d80:	01110101 	tsteq	r1, r1, lsl #2
     d84:	00001301 	andeq	r1, r0, r1, lsl #6
     d88:	01828a09 	orreq	r8, r2, r9, lsl #20
     d8c:	91180200 	tstls	r8, r0, lsl #4
     d90:	00001842 	andeq	r1, r0, r2, asr #16
     d94:	0182890a 	orreq	r8, r2, sl, lsl #18
     d98:	31011101 	tstcc	r1, r1, lsl #2
     d9c:	00130113 	andseq	r0, r3, r3, lsl r1
     da0:	01150b00 	tsteq	r5, r0, lsl #22
     da4:	13491927 	movtne	r1, #39207	; 0x9927
     da8:	00001301 	andeq	r1, r0, r1, lsl #6
     dac:	4900050c 	stmdbmi	r0, {r2, r3, r8, sl}
     db0:	0d000013 	stceq	0, cr0, [r0, #-76]	; 0xffffffb4
     db4:	0e030034 	mcreq	0, 0, r0, cr3, cr4, {1}
     db8:	0b3b0b3a 	bleq	ec3aa8 <__bss_end__+0xeb8f10>
     dbc:	193f1349 	ldmdbne	pc!, {r0, r3, r6, r8, r9, ip}	; <UNPREDICTABLE>
     dc0:	0000193c 	andeq	r1, r0, ip, lsr r9
     dc4:	3f002e0e 	svccc	0x00002e0e
     dc8:	3a0e0319 	bcc	381a34 <__bss_end__+0x376e9c>
     dcc:	270b3b0b 	strcs	r3, [fp, -fp, lsl #22]
     dd0:	00193c19 	andseq	r3, r9, r9, lsl ip
     dd4:	012e0f00 	teqeq	lr, r0, lsl #30
     dd8:	0e03193f 	mcreq	9, 0, r1, cr3, cr15, {1}
     ddc:	0b3b0b3a 	bleq	ec3acc <__bss_end__+0xeb8f34>
     de0:	193c1927 	ldmdbne	ip!, {r0, r1, r2, r5, r8, fp, ip}
     de4:	00001301 	andeq	r1, r0, r1, lsl #6
     de8:	01110100 	tsteq	r1, r0, lsl #2
     dec:	0b130e25 	bleq	4c4688 <__bss_end__+0x4b9af0>
     df0:	0e1b0e03 	cdpeq	14, 1, cr0, cr11, cr3, {0}
     df4:	06120111 			; <UNDEFINED> instruction: 0x06120111
     df8:	00001710 	andeq	r1, r0, r0, lsl r7
     dfc:	0b002402 	bleq	9e0c <gpio_set_on+0x1c>
     e00:	030b3e0b 	movweq	r3, #48651	; 0xbe0b
     e04:	03000008 	movweq	r0, #8
     e08:	0b0b0024 	bleq	2c0ea0 <__bss_end__+0x2b6308>
     e0c:	0e030b3e 	vmoveq.16	d3[0], r0
     e10:	2e040000 	cdpcs	0, 0, cr0, cr4, cr0, {0}
     e14:	03193f01 	tsteq	r9, #1, 30
     e18:	3b0b3a0e 	blcc	2cf658 <__bss_end__+0x2c4ac0>
     e1c:	1201110b 	andne	r1, r1, #-1073741822	; 0xc0000002
     e20:	97184006 	ldrls	r4, [r8, -r6]
     e24:	13011942 	movwne	r1, #6466	; 0x1942
     e28:	34050000 	strcc	r0, [r5], #-0
     e2c:	3a0e0300 	bcc	381a34 <__bss_end__+0x376e9c>
     e30:	490b3b0b 	stmdbmi	fp, {r0, r1, r3, r8, r9, fp, ip, sp}
     e34:	3c193f13 	ldccc	15, cr3, [r9], {19}
     e38:	06000019 			; <UNDEFINED> instruction: 0x06000019
     e3c:	193f002e 	ldmdbne	pc!, {r1, r2, r3, r5}	; <UNPREDICTABLE>
     e40:	0b3a0e03 	bleq	e84654 <__bss_end__+0xe79abc>
     e44:	19270b3b 	stmdbne	r7!, {r0, r1, r3, r4, r5, r8, r9, fp}
     e48:	0000193c 	andeq	r1, r0, ip, lsr r9
     e4c:	03003407 	movweq	r3, #1031	; 0x407
     e50:	3b0b3a08 	blcc	2cf678 <__bss_end__+0x2c4ae0>
     e54:	0213490b 	andseq	r4, r3, #180224	; 0x2c000
     e58:	08000017 	stmdaeq	r0, {r0, r1, r2, r4}
     e5c:	0e030034 	mcreq	0, 0, r0, cr3, cr4, {1}
     e60:	0b3b0b3a 	bleq	ec3b50 <__bss_end__+0xeb8fb8>
     e64:	00001349 	andeq	r1, r0, r9, asr #6
     e68:	01828909 	orreq	r8, r2, r9, lsl #18
     e6c:	31011100 	mrscc	r1, (UNDEF: 17)
     e70:	0a000013 	beq	ec4 <__code_start__-0x713c>
     e74:	0b0b000f 	bleq	2c0eb8 <__bss_end__+0x2b6320>
     e78:	00001349 	andeq	r1, r0, r9, asr #6
     e7c:	01110100 	tsteq	r1, r0, lsl #2
     e80:	0b130e25 	bleq	4c471c <__bss_end__+0x4b9b84>
     e84:	0e1b0e03 	cdpeq	14, 1, cr0, cr11, cr3, {0}
     e88:	06120111 			; <UNDEFINED> instruction: 0x06120111
     e8c:	00001710 	andeq	r1, r0, r0, lsl r7
     e90:	0b002402 	bleq	9ea0 <__data_end__>
     e94:	030b3e0b 	movweq	r3, #48651	; 0xbe0b
     e98:	03000008 	movweq	r0, #8
     e9c:	0b0b0024 	bleq	2c0f34 <__bss_end__+0x2b639c>
     ea0:	0e030b3e 	vmoveq.16	d3[0], r0
     ea4:	0f040000 	svceq	0x00040000
     ea8:	490b0b00 	stmdbmi	fp, {r8, r9, fp}
     eac:	05000013 	streq	r0, [r0, #-19]
     eb0:	13490026 	movtne	r0, #36902	; 0x9026
     eb4:	2e060000 	cdpcs	0, 0, cr0, cr6, cr0, {0}
     eb8:	03193f01 	tsteq	r9, #1, 30
     ebc:	3b0b3a0e 	blcc	2cf6fc <__bss_end__+0x2c4b64>
     ec0:	1119270b 	tstne	r9, fp, lsl #14
     ec4:	40061201 	andmi	r1, r6, r1, lsl #4
     ec8:	19429718 	stmdbne	r2, {r3, r4, r8, r9, sl, ip, pc}^
     ecc:	00001301 	andeq	r1, r0, r1, lsl #6
     ed0:	03000507 	movweq	r0, #1287	; 0x507
     ed4:	3b0b3a08 	blcc	2cf6fc <__bss_end__+0x2c4b64>
     ed8:	0213490b 	andseq	r4, r3, #180224	; 0x2c000
     edc:	08000017 	stmdaeq	r0, {r0, r1, r2, r4}
     ee0:	0e030034 	mcreq	0, 0, r0, cr3, cr4, {1}
     ee4:	19341349 	ldmdbne	r4!, {r0, r3, r6, r8, r9, ip}
     ee8:	00001802 	andeq	r1, r0, r2, lsl #16
     eec:	01828909 	orreq	r8, r2, r9, lsl #18
     ef0:	31011100 	mrscc	r1, (UNDEF: 17)
     ef4:	0a000013 	beq	f48 <__code_start__-0x70b8>
     ef8:	01018289 	smlabbeq	r1, r9, r2, r8
     efc:	13310111 	teqne	r1, #1073741828	; 0x40000004
     f00:	00001301 	andeq	r1, r0, r1, lsl #6
     f04:	01828a0b 	orreq	r8, r2, fp, lsl #20
     f08:	91180200 	tstls	r8, r0, lsl #4
     f0c:	00001842 	andeq	r1, r0, r2, asr #16
     f10:	4901010c 	stmdbmi	r1, {r2, r3, r8}
     f14:	00130113 	andseq	r0, r3, r3, lsl r1
     f18:	00210d00 	eoreq	r0, r1, r0, lsl #26
     f1c:	0b2f1349 	bleq	bc5c48 <__bss_end__+0xbbb0b0>
     f20:	2e0e0000 	cdpcs	0, 0, cr0, cr14, cr0, {0}
     f24:	03193f00 	tsteq	r9, #0, 30
     f28:	3b0b3a0e 	blcc	2cf768 <__bss_end__+0x2c4bd0>
     f2c:	3c19270b 	ldccc	7, cr2, [r9], {11}
     f30:	0f000019 	svceq	0x00000019
     f34:	193f012e 	ldmdbne	pc!, {r1, r2, r3, r5, r8}	; <UNPREDICTABLE>
     f38:	0b3a0e03 	bleq	e8474c <__bss_end__+0xe79bb4>
     f3c:	19270b3b 	stmdbne	r7!, {r0, r1, r3, r4, r5, r8, r9, fp}
     f40:	193c1349 	ldmdbne	ip!, {r0, r3, r6, r8, r9, ip}
     f44:	00001301 	andeq	r1, r0, r1, lsl #6
     f48:	49000510 	stmdbmi	r0, {r4, r8, sl}
     f4c:	11000013 	tstne	r0, r3, lsl r0
     f50:	00000018 	andeq	r0, r0, r8, lsl r0
     f54:	01110100 	tsteq	r1, r0, lsl #2
     f58:	0b130e25 	bleq	4c47f4 <__bss_end__+0x4b9c5c>
     f5c:	0e1b0e03 	cdpeq	14, 1, cr0, cr11, cr3, {0}
     f60:	06120111 			; <UNDEFINED> instruction: 0x06120111
     f64:	00001710 	andeq	r1, r0, r0, lsl r7
     f68:	0b002402 	bleq	9f78 <__data_end__+0xd8>
     f6c:	030b3e0b 	movweq	r3, #48651	; 0xbe0b
     f70:	03000008 	movweq	r0, #8
     f74:	0b0b0024 	bleq	2c100c <__bss_end__+0x2b6474>
     f78:	0e030b3e 	vmoveq.16	d3[0], r0
     f7c:	0f040000 	svceq	0x00040000
     f80:	490b0b00 	stmdbmi	fp, {r8, r9, fp}
     f84:	05000013 	streq	r0, [r0, #-19]
     f88:	13490026 	movtne	r0, #36902	; 0x9026
     f8c:	2e060000 	cdpcs	0, 0, cr0, cr6, cr0, {0}
     f90:	03193f01 	tsteq	r9, #1, 30
     f94:	3b0b3a0e 	blcc	2cf7d4 <__bss_end__+0x2c4c3c>
     f98:	1119270b 	tstne	r9, fp, lsl #14
     f9c:	40061201 	andmi	r1, r6, r1, lsl #4
     fa0:	19429718 	stmdbne	r2, {r3, r4, r8, r9, sl, ip, pc}^
     fa4:	00001301 	andeq	r1, r0, r1, lsl #6
     fa8:	03000507 	movweq	r0, #1287	; 0x507
     fac:	3b0b3a08 	blcc	2cf7d4 <__bss_end__+0x2c4c3c>
     fb0:	0213490b 	andseq	r4, r3, #180224	; 0x2c000
     fb4:	08000017 	stmdaeq	r0, {r0, r1, r2, r4}
     fb8:	0e030034 	mcreq	0, 0, r0, cr3, cr4, {1}
     fbc:	19341349 	ldmdbne	r4!, {r0, r3, r6, r8, r9, ip}
     fc0:	00001802 	andeq	r1, r0, r2, lsl #16
     fc4:	01828909 	orreq	r8, r2, r9, lsl #18
     fc8:	31011100 	mrscc	r1, (UNDEF: 17)
     fcc:	0a000013 	beq	1020 <__code_start__-0x6fe0>
     fd0:	01018289 	smlabbeq	r1, r9, r2, r8
     fd4:	13310111 	teqne	r1, #1073741828	; 0x40000004
     fd8:	00001301 	andeq	r1, r0, r1, lsl #6
     fdc:	01828a0b 	orreq	r8, r2, fp, lsl #20
     fe0:	91180200 	tstls	r8, r0, lsl #4
     fe4:	00001842 	andeq	r1, r0, r2, asr #16
     fe8:	4901010c 	stmdbmi	r1, {r2, r3, r8}
     fec:	00130113 	andseq	r0, r3, r3, lsl r1
     ff0:	00210d00 	eoreq	r0, r1, r0, lsl #26
     ff4:	0b2f1349 	bleq	bc5d20 <__bss_end__+0xbbb188>
     ff8:	2e0e0000 	cdpcs	0, 0, cr0, cr14, cr0, {0}
     ffc:	03193f00 	tsteq	r9, #0, 30
    1000:	3b0b3a0e 	blcc	2cf840 <__bss_end__+0x2c4ca8>
    1004:	3c19270b 	ldccc	7, cr2, [r9], {11}
    1008:	0f000019 	svceq	0x00000019
    100c:	193f012e 	ldmdbne	pc!, {r1, r2, r3, r5, r8}	; <UNPREDICTABLE>
    1010:	0b3a0e03 	bleq	e84824 <__bss_end__+0xe79c8c>
    1014:	19270b3b 	stmdbne	r7!, {r0, r1, r3, r4, r5, r8, r9, fp}
    1018:	193c1349 	ldmdbne	ip!, {r0, r3, r6, r8, r9, ip}
    101c:	00001301 	andeq	r1, r0, r1, lsl #6
    1020:	49000510 	stmdbmi	r0, {r4, r8, sl}
    1024:	11000013 	tstne	r0, r3, lsl r0
    1028:	00000018 	andeq	r0, r0, r8, lsl r0
    102c:	01110100 	tsteq	r1, r0, lsl #2
    1030:	0b130e25 	bleq	4c48cc <__bss_end__+0x4b9d34>
    1034:	0e1b0e03 	cdpeq	14, 1, cr0, cr11, cr3, {0}
    1038:	06120111 			; <UNDEFINED> instruction: 0x06120111
    103c:	00001710 	andeq	r1, r0, r0, lsl r7
    1040:	0b002402 	bleq	a050 <__data_end__+0x1b0>
    1044:	030b3e0b 	movweq	r3, #48651	; 0xbe0b
    1048:	03000008 	movweq	r0, #8
    104c:	0b0b0024 	bleq	2c10e4 <__bss_end__+0x2b654c>
    1050:	0e030b3e 	vmoveq.16	d3[0], r0
    1054:	0f040000 	svceq	0x00040000
    1058:	490b0b00 	stmdbmi	fp, {r8, r9, fp}
    105c:	05000013 	streq	r0, [r0, #-19]
    1060:	13490026 	movtne	r0, #36902	; 0x9026
    1064:	2e060000 	cdpcs	0, 0, cr0, cr6, cr0, {0}
    1068:	03193f01 	tsteq	r9, #1, 30
    106c:	3b0b3a0e 	blcc	2cf8ac <__bss_end__+0x2c4d14>
    1070:	1119270b 	tstne	r9, fp, lsl #14
    1074:	40061201 	andmi	r1, r6, r1, lsl #4
    1078:	19429718 	stmdbne	r2, {r3, r4, r8, r9, sl, ip, pc}^
    107c:	00001301 	andeq	r1, r0, r1, lsl #6
    1080:	03000507 	movweq	r0, #1287	; 0x507
    1084:	3b0b3a08 	blcc	2cf8ac <__bss_end__+0x2c4d14>
    1088:	0213490b 	andseq	r4, r3, #180224	; 0x2c000
    108c:	08000017 	stmdaeq	r0, {r0, r1, r2, r4}
    1090:	0e030034 	mcreq	0, 0, r0, cr3, cr4, {1}
    1094:	19341349 	ldmdbne	r4!, {r0, r3, r6, r8, r9, ip}
    1098:	00001802 	andeq	r1, r0, r2, lsl #16
    109c:	01828909 	orreq	r8, r2, r9, lsl #18
    10a0:	31011100 	mrscc	r1, (UNDEF: 17)
    10a4:	0a000013 	beq	10f8 <__code_start__-0x6f08>
    10a8:	01018289 	smlabbeq	r1, r9, r2, r8
    10ac:	13310111 	teqne	r1, #1073741828	; 0x40000004
    10b0:	00001301 	andeq	r1, r0, r1, lsl #6
    10b4:	01828a0b 	orreq	r8, r2, fp, lsl #20
    10b8:	91180200 	tstls	r8, r0, lsl #4
    10bc:	00001842 	andeq	r1, r0, r2, asr #16
    10c0:	4901010c 	stmdbmi	r1, {r2, r3, r8}
    10c4:	00130113 	andseq	r0, r3, r3, lsl r1
    10c8:	00210d00 	eoreq	r0, r1, r0, lsl #26
    10cc:	0b2f1349 	bleq	bc5df8 <__bss_end__+0xbbb260>
    10d0:	2e0e0000 	cdpcs	0, 0, cr0, cr14, cr0, {0}
    10d4:	03193f00 	tsteq	r9, #0, 30
    10d8:	3b0b3a0e 	blcc	2cf918 <__bss_end__+0x2c4d80>
    10dc:	3c19270b 	ldccc	7, cr2, [r9], {11}
    10e0:	0f000019 	svceq	0x00000019
    10e4:	193f012e 	ldmdbne	pc!, {r1, r2, r3, r5, r8}	; <UNPREDICTABLE>
    10e8:	0b3a0e03 	bleq	e848fc <__bss_end__+0xe79d64>
    10ec:	19270b3b 	stmdbne	r7!, {r0, r1, r3, r4, r5, r8, r9, fp}
    10f0:	193c1349 	ldmdbne	ip!, {r0, r3, r6, r8, r9, ip}
    10f4:	00001301 	andeq	r1, r0, r1, lsl #6
    10f8:	49000510 	stmdbmi	r0, {r4, r8, sl}
    10fc:	11000013 	tstne	r0, r3, lsl r0
    1100:	00000018 	andeq	r0, r0, r8, lsl r0
    1104:	01110100 	tsteq	r1, r0, lsl #2
    1108:	0b130e25 	bleq	4c49a4 <__bss_end__+0x4b9e0c>
    110c:	0e1b0e03 	cdpeq	14, 1, cr0, cr11, cr3, {0}
    1110:	06120111 			; <UNDEFINED> instruction: 0x06120111
    1114:	00001710 	andeq	r1, r0, r0, lsl r7
    1118:	0b002402 	bleq	a128 <__FUNCTION__.4423+0x24>
    111c:	030b3e0b 	movweq	r3, #48651	; 0xbe0b
    1120:	03000008 	movweq	r0, #8
    1124:	0b0b0024 	bleq	2c11bc <__bss_end__+0x2b6624>
    1128:	0e030b3e 	vmoveq.16	d3[0], r0
    112c:	2e040000 	cdpcs	0, 0, cr0, cr4, cr0, {0}
    1130:	03193f00 	tsteq	r9, #0, 30
    1134:	3b0b3a0e 	blcc	2cf974 <__bss_end__+0x2c4ddc>
    1138:	1119270b 	tstne	r9, fp, lsl #14
    113c:	40061201 	andmi	r1, r6, r1, lsl #4
    1140:	19429718 	stmdbne	r2, {r3, r4, r8, r9, sl, ip, pc}^
    1144:	01000000 	mrseq	r0, (UNDEF: 0)
    1148:	0e250111 	mcreq	1, 1, r0, cr5, cr1, {0}
    114c:	0e030b13 	vmoveq.32	d3[0], r0
    1150:	01110e1b 	tsteq	r1, fp, lsl lr
    1154:	17100612 			; <UNDEFINED> instruction: 0x17100612
    1158:	24020000 	strcs	r0, [r2], #-0
    115c:	3e0b0b00 	vmlacc.f64	d0, d11, d0
    1160:	0008030b 	andeq	r0, r8, fp, lsl #6
    1164:	00240300 	eoreq	r0, r4, r0, lsl #6
    1168:	0b3e0b0b 	bleq	f83d9c <__bss_end__+0xf79204>
    116c:	00000e03 	andeq	r0, r0, r3, lsl #28
    1170:	0b010404 	bleq	42188 <__bss_end__+0x375f0>
    1174:	3b0b3a0b 	blcc	2cf9a8 <__bss_end__+0x2c4e10>
    1178:	0013010b 	andseq	r0, r3, fp, lsl #2
    117c:	00280500 	eoreq	r0, r8, r0, lsl #10
    1180:	0d1c0e03 	ldceq	14, cr0, [ip, #-12]
    1184:	2e060000 	cdpcs	0, 0, cr0, cr6, cr0, {0}
    1188:	03193f01 	tsteq	r9, #1, 30
    118c:	3b0b3a0e 	blcc	2cf9cc <__bss_end__+0x2c4e34>
    1190:	1119270b 	tstne	r9, fp, lsl #14
    1194:	40061201 	andmi	r1, r6, r1, lsl #4
    1198:	19429718 	stmdbne	r2, {r3, r4, r8, r9, sl, ip, pc}^
    119c:	00001301 	andeq	r1, r0, r1, lsl #6
    11a0:	03003407 	movweq	r3, #1031	; 0x407
    11a4:	3b0b3a0e 	blcc	2cf9e4 <__bss_end__+0x2c4e4c>
    11a8:	3f13490b 	svccc	0x0013490b
    11ac:	00193c19 	andseq	r3, r9, r9, lsl ip
    11b0:	00340800 	eorseq	r0, r4, r0, lsl #16
    11b4:	0b3a0803 	bleq	e831c8 <__bss_end__+0xe78630>
    11b8:	13490b3b 	movtne	r0, #39739	; 0x9b3b
    11bc:	00000b1c 	andeq	r0, r0, ip, lsl fp
    11c0:	03003409 	movweq	r3, #1033	; 0x409
    11c4:	3b0b3a08 	blcc	2cf9ec <__bss_end__+0x2c4e54>
    11c8:	0013490b 	andseq	r4, r3, fp, lsl #18
    11cc:	00340a00 	eorseq	r0, r4, r0, lsl #20
    11d0:	0b3a0803 	bleq	e831e4 <__bss_end__+0xe7864c>
    11d4:	13490b3b 	movtne	r0, #39739	; 0x9b3b
    11d8:	00001802 	andeq	r1, r0, r2, lsl #16
    11dc:	11010b0b 	tstne	r1, fp, lsl #22
    11e0:	01061201 	tsteq	r6, r1, lsl #4
    11e4:	0c000013 	stceq	0, cr0, [r0], {19}
    11e8:	08030034 	stmdaeq	r3, {r2, r4, r5}
    11ec:	0b3b0b3a 	bleq	ec3edc <__bss_end__+0xeb9344>
    11f0:	17021349 	strne	r1, [r2, -r9, asr #6]
    11f4:	890d0000 	stmdbhi	sp, {}	; <UNPREDICTABLE>
    11f8:	11000182 	smlabbne	r0, r2, r1, r0
    11fc:	00133101 	andseq	r3, r3, r1, lsl #2
    1200:	82890e00 	addhi	r0, r9, #0, 28
    1204:	01110101 	tsteq	r1, r1, lsl #2
    1208:	13011331 	movwne	r1, #4913	; 0x1331
    120c:	8a0f0000 	bhi	3c1214 <__bss_end__+0x3b667c>
    1210:	02000182 	andeq	r0, r0, #-2147483616	; 0x80000020
    1214:	18429118 	stmdane	r2, {r3, r4, r8, ip, pc}^
    1218:	0f100000 	svceq	0x00100000
    121c:	490b0b00 	stmdbmi	fp, {r8, r9, fp}
    1220:	11000013 	tstne	r0, r3, lsl r0
    1224:	193f002e 	ldmdbne	pc!, {r1, r2, r3, r5}	; <UNPREDICTABLE>
    1228:	0b3a0e03 	bleq	e84a3c <__bss_end__+0xe79ea4>
    122c:	19270b3b 	stmdbne	r7!, {r0, r1, r3, r4, r5, r8, r9, fp}
    1230:	0000193c 	andeq	r1, r0, ip, lsr r9
    1234:	3f012e12 	svccc	0x00012e12
    1238:	3a0e0319 	bcc	381ea4 <__bss_end__+0x37730c>
    123c:	270b3b0b 	strcs	r3, [fp, -fp, lsl #22]
    1240:	00193c19 	andseq	r3, r9, r9, lsl ip
    1244:	00051300 	andeq	r1, r5, r0, lsl #6
    1248:	00001349 	andeq	r1, r0, r9, asr #6
    124c:	01110100 	tsteq	r1, r0, lsl #2
    1250:	0b130e25 	bleq	4c4aec <__bss_end__+0x4b9f54>
    1254:	0e1b0e03 	cdpeq	14, 1, cr0, cr11, cr3, {0}
    1258:	01111755 	tsteq	r1, r5, asr r7
    125c:	00001710 	andeq	r1, r0, r0, lsl r7
    1260:	0b002402 	bleq	a270 <__FUNCTION__.4443>
    1264:	030b3e0b 	movweq	r3, #48651	; 0xbe0b
    1268:	03000008 	movweq	r0, #8
    126c:	0b0b0024 	bleq	2c1304 <__bss_end__+0x2b676c>
    1270:	0e030b3e 	vmoveq.16	d3[0], r0
    1274:	2e040000 	cdpcs	0, 0, cr0, cr4, cr0, {0}
    1278:	03193f01 	tsteq	r9, #1, 30
    127c:	3b0b3a0e 	blcc	2cfabc <__bss_end__+0x2c4f24>
    1280:	4919270b 	ldmdbmi	r9, {r0, r1, r3, r8, r9, sl, sp}
    1284:	12011113 	andne	r1, r1, #-1073741820	; 0xc0000004
    1288:	97184006 	ldrls	r4, [r8, -r6]
    128c:	13011942 	movwne	r1, #6466	; 0x1942
    1290:	34050000 	strcc	r0, [r5], #-0
    1294:	3a0e0300 	bcc	381e9c <__bss_end__+0x377304>
    1298:	490b3b0b 	stmdbmi	fp, {r0, r1, r3, r8, r9, fp, ip, sp}
    129c:	00170213 	andseq	r0, r7, r3, lsl r2
    12a0:	012e0600 	teqeq	lr, r0, lsl #12
    12a4:	0e03193f 	mcreq	9, 0, r1, cr3, cr15, {1}
    12a8:	0b3b0b3a 	bleq	ec3f98 <__bss_end__+0xeb9400>
    12ac:	01111927 	tsteq	r1, r7, lsr #18
    12b0:	18400612 	stmdane	r0, {r1, r4, r9, sl}^
    12b4:	01194297 			; <UNDEFINED> instruction: 0x01194297
    12b8:	07000013 	smladeq	r0, r3, r0, r0
    12bc:	0e030034 	mcreq	0, 0, r0, cr3, cr4, {1}
    12c0:	0b3b0b3a 	bleq	ec3fb0 <__bss_end__+0xeb9418>
    12c4:	061c1349 	ldreq	r1, [ip], -r9, asr #6
    12c8:	34080000 	strcc	r0, [r8], #-0
    12cc:	3a0e0300 	bcc	381ed4 <__bss_end__+0x37733c>
    12d0:	490b3b0b 	stmdbmi	fp, {r0, r1, r3, r8, r9, fp, ip, sp}
    12d4:	000b1c13 	andeq	r1, fp, r3, lsl ip
    12d8:	82890900 	addhi	r0, r9, #0, 18
    12dc:	01110001 	tsteq	r1, r1
    12e0:	00001331 	andeq	r1, r0, r1, lsr r3
    12e4:	0182890a 	orreq	r8, r2, sl, lsl #18
    12e8:	31011101 	tstcc	r1, r1, lsl #2
    12ec:	00130113 	andseq	r0, r3, r3, lsl r1
    12f0:	828a0b00 	addhi	r0, sl, #0, 22
    12f4:	18020001 	stmdane	r2, {r0}
    12f8:	00184291 	mulseq	r8, r1, r2
    12fc:	82890c00 	addhi	r0, r9, #0, 24
    1300:	01110101 	tsteq	r1, r1, lsl #2
    1304:	00001331 	andeq	r1, r0, r1, lsr r3
    1308:	4900260d 	stmdbmi	r0, {r0, r2, r3, r9, sl, sp}
    130c:	0e000013 	mcreq	0, 0, r0, cr0, cr3, {0}
    1310:	193f012e 	ldmdbne	pc!, {r1, r2, r3, r5, r8}	; <UNPREDICTABLE>
    1314:	0b3a0e03 	bleq	e84b28 <__bss_end__+0xe79f90>
    1318:	19270b3b 	stmdbne	r7!, {r0, r1, r3, r4, r5, r8, r9, fp}
    131c:	1301193c 	movwne	r1, #6460	; 0x193c
    1320:	050f0000 	streq	r0, [pc, #-0]	; 1328 <__code_start__-0x6cd8>
    1324:	00134900 	andseq	r4, r3, r0, lsl #18
    1328:	012e1000 	teqeq	lr, r0
    132c:	0e03193f 	mcreq	9, 0, r1, cr3, cr15, {1}
    1330:	0b3b0b3a 	bleq	ec4020 <__bss_end__+0xeb9488>
    1334:	193c1927 	ldmdbne	ip!, {r0, r1, r2, r5, r8, fp, ip}
    1338:	01000000 	mrseq	r0, (UNDEF: 0)
    133c:	0e250111 	mcreq	1, 1, r0, cr5, cr1, {0}
    1340:	0e030b13 	vmoveq.32	d3[0], r0
    1344:	01110e1b 	tsteq	r1, fp, lsl lr
    1348:	17100612 			; <UNDEFINED> instruction: 0x17100612
    134c:	24020000 	strcs	r0, [r2], #-0
    1350:	3e0b0b00 	vmlacc.f64	d0, d11, d0
    1354:	0008030b 	andeq	r0, r8, fp, lsl #6
    1358:	00240300 	eoreq	r0, r4, r0, lsl #6
    135c:	0b3e0b0b 	bleq	f83f90 <__bss_end__+0xf793f8>
    1360:	00000e03 	andeq	r0, r0, r3, lsl #28
    1364:	3f012e04 	svccc	0x00012e04
    1368:	3a0e0319 	bcc	381fd4 <__bss_end__+0x37743c>
    136c:	270b3b0b 	strcs	r3, [fp, -fp, lsl #22]
    1370:	12011119 	andne	r1, r1, #1073741830	; 0x40000006
    1374:	97184006 	ldrls	r4, [r8, -r6]
    1378:	13011942 	movwne	r1, #6466	; 0x1942
    137c:	05050000 	streq	r0, [r5, #-0]
    1380:	3a0e0300 	bcc	381f88 <__bss_end__+0x3773f0>
    1384:	490b3b0b 	stmdbmi	fp, {r0, r1, r3, r8, r9, fp, ip, sp}
    1388:	00170213 	andseq	r0, r7, r3, lsl r2
    138c:	012e0600 	teqeq	lr, r0, lsl #12
    1390:	0e03193f 	mcreq	9, 0, r1, cr3, cr15, {1}
    1394:	0b3b0b3a 	bleq	ec4084 <__bss_end__+0xeb94ec>
    1398:	13491927 	movtne	r1, #39207	; 0x9927
    139c:	06120111 			; <UNDEFINED> instruction: 0x06120111
    13a0:	42971840 	addsmi	r1, r7, #64, 16	; 0x400000
    13a4:	00130119 	andseq	r0, r3, r9, lsl r1
    13a8:	82890700 	addhi	r0, r9, #0, 14
    13ac:	01110101 	tsteq	r1, r1, lsl #2
    13b0:	00001331 	andeq	r1, r0, r1, lsr r3
    13b4:	01828a08 	orreq	r8, r2, r8, lsl #20
    13b8:	91180200 	tstls	r8, r0, lsl #4
    13bc:	00001842 	andeq	r1, r0, r2, asr #16
    13c0:	03003409 	movweq	r3, #1033	; 0x409
    13c4:	3b0b3a08 	blcc	2cfbec <__bss_end__+0x2c5054>
    13c8:	0213490b 	andseq	r4, r3, #180224	; 0x2c000
    13cc:	0a000017 	beq	1430 <__code_start__-0x6bd0>
    13d0:	00018289 	andeq	r8, r1, r9, lsl #5
    13d4:	13310111 	teqne	r1, #1073741828	; 0x40000004
    13d8:	050b0000 	streq	r0, [fp, #-0]
    13dc:	3a080300 	bcc	201fe4 <__bss_end__+0x1f744c>
    13e0:	490b3b0b 	stmdbmi	fp, {r0, r1, r3, r8, r9, fp, ip, sp}
    13e4:	00170213 	andseq	r0, r7, r3, lsl r2
    13e8:	00340c00 	eorseq	r0, r4, r0, lsl #24
    13ec:	0b3a0803 	bleq	e83400 <__bss_end__+0xe78868>
    13f0:	13490b3b 	movtne	r0, #39739	; 0x9b3b
    13f4:	00001802 	andeq	r1, r0, r2, lsl #16
    13f8:	11010b0d 	tstne	r1, sp, lsl #22
    13fc:	01061201 	tsteq	r6, r1, lsl #4
    1400:	0e000013 	mcreq	0, 0, r0, cr0, cr3, {0}
    1404:	193f012e 	ldmdbne	pc!, {r1, r2, r3, r5, r8}	; <UNPREDICTABLE>
    1408:	0b3a0e03 	bleq	e84c1c <__bss_end__+0xe7a084>
    140c:	19270b3b 	stmdbne	r7!, {r0, r1, r3, r4, r5, r8, r9, fp}
    1410:	193c1349 	ldmdbne	ip!, {r0, r3, r6, r8, r9, ip}
    1414:	00001301 	andeq	r1, r0, r1, lsl #6
    1418:	4900050f 	stmdbmi	r0, {r0, r1, r2, r3, r8, sl}
    141c:	10000013 	andne	r0, r0, r3, lsl r0
    1420:	193f002e 	ldmdbne	pc!, {r1, r2, r3, r5}	; <UNPREDICTABLE>
    1424:	0b3a0e03 	bleq	e84c38 <__bss_end__+0xe7a0a0>
    1428:	19270b3b 	stmdbne	r7!, {r0, r1, r3, r4, r5, r8, r9, fp}
    142c:	0000193c 	andeq	r1, r0, ip, lsr r9
    1430:	01110100 	tsteq	r1, r0, lsl #2
    1434:	0b130e25 	bleq	4c4cd0 <__bss_end__+0x4ba138>
    1438:	0e1b0e03 	cdpeq	14, 1, cr0, cr11, cr3, {0}
    143c:	06120111 			; <UNDEFINED> instruction: 0x06120111
    1440:	00001710 	andeq	r1, r0, r0, lsl r7
    1444:	0b002402 	bleq	a454 <__FUNCTION__.4451+0x1cc>
    1448:	030b3e0b 	movweq	r3, #48651	; 0xbe0b
    144c:	03000008 	movweq	r0, #8
    1450:	0b0b0024 	bleq	2c14e8 <__bss_end__+0x2b6950>
    1454:	0e030b3e 	vmoveq.16	d3[0], r0
    1458:	35040000 	strcc	r0, [r4, #-0]
    145c:	00134900 	andseq	r4, r3, r0, lsl #18
    1460:	00160500 	andseq	r0, r6, r0, lsl #10
    1464:	0b3a0e03 	bleq	e84c78 <__bss_end__+0xe7a0e0>
    1468:	13490b3b 	movtne	r0, #39739	; 0x9b3b
    146c:	16060000 	strne	r0, [r6], -r0
    1470:	3a0e0300 	bcc	382078 <__bss_end__+0x3774e0>
    1474:	49053b0b 	stmdbmi	r5, {r0, r1, r3, r8, r9, fp, ip, sp}
    1478:	07000013 	smladeq	r0, r3, r0, r0
    147c:	0b0b0117 	bleq	2c18e0 <__bss_end__+0x2b6d48>
    1480:	0b3b0b3a 	bleq	ec4170 <__bss_end__+0xeb95d8>
    1484:	00001301 	andeq	r1, r0, r1, lsl #6
    1488:	03000d08 	movweq	r0, #3336	; 0xd08
    148c:	3b0b3a0e 	blcc	2cfccc <__bss_end__+0x2c5134>
    1490:	0013490b 	andseq	r4, r3, fp, lsl #18
    1494:	01010900 	tsteq	r1, r0, lsl #18
    1498:	13011349 	movwne	r1, #4937	; 0x1349
    149c:	210a0000 	mrscs	r0, (UNDEF: 10)
    14a0:	2f134900 	svccs	0x00134900
    14a4:	0b00000b 	bleq	14d8 <__code_start__-0x6b28>
    14a8:	0b0b0113 	bleq	2c18fc <__bss_end__+0x2b6d64>
    14ac:	0b3b0b3a 	bleq	ec419c <__bss_end__+0xeb9604>
    14b0:	00001301 	andeq	r1, r0, r1, lsl #6
    14b4:	03000d0c 	movweq	r0, #3340	; 0xd0c
    14b8:	3b0b3a0e 	blcc	2cfcf8 <__bss_end__+0x2c5160>
    14bc:	3813490b 	ldmdacc	r3, {r0, r1, r3, r8, fp, lr}
    14c0:	0d00000b 	stceq	0, cr0, [r0, #-44]	; 0xffffffd4
    14c4:	0b0b000f 	bleq	2c1508 <__bss_end__+0x2b6970>
    14c8:	0f0e0000 	svceq	0x000e0000
    14cc:	490b0b00 	stmdbmi	fp, {r8, r9, fp}
    14d0:	0f000013 	svceq	0x00000013
    14d4:	13490026 	movtne	r0, #36902	; 0x9026
    14d8:	13100000 	tstne	r0, #0
    14dc:	0b0e0301 	bleq	3820e8 <__bss_end__+0x377550>
    14e0:	3b0b3a0b 	blcc	2cfd14 <__bss_end__+0x2c517c>
    14e4:	0013010b 	andseq	r0, r3, fp, lsl #2
    14e8:	000d1100 	andeq	r1, sp, r0, lsl #2
    14ec:	0b3a0803 	bleq	e83500 <__bss_end__+0xe78968>
    14f0:	13490b3b 	movtne	r0, #39739	; 0x9b3b
    14f4:	00000b38 	andeq	r0, r0, r8, lsr fp
    14f8:	03011312 	movweq	r1, #4882	; 0x1312
    14fc:	3a050b0e 	bcc	14413c <__bss_end__+0x1395a4>
    1500:	010b3b0b 	tsteq	fp, fp, lsl #22
    1504:	13000013 	movwne	r0, #19
    1508:	0e03000d 	cdpeq	0, 0, cr0, cr3, cr13, {0}
    150c:	0b3b0b3a 	bleq	ec41fc <__bss_end__+0xeb9664>
    1510:	05381349 	ldreq	r1, [r8, #-841]!	; 0x349
    1514:	15140000 	ldrne	r0, [r4, #-0]
    1518:	00192700 	andseq	r2, r9, r0, lsl #14
    151c:	01151500 	tsteq	r5, r0, lsl #10
    1520:	13491927 	movtne	r1, #39207	; 0x9927
    1524:	00001301 	andeq	r1, r0, r1, lsl #6
    1528:	49000516 	stmdbmi	r0, {r1, r2, r4, r8, sl}
    152c:	17000013 	smladne	r0, r3, r0, r0
    1530:	0e030113 	mcreq	1, 0, r0, cr3, cr3, {0}
    1534:	0b3a050b 	bleq	e82968 <__bss_end__+0xe77dd0>
    1538:	1301053b 	movwne	r0, #5435	; 0x153b
    153c:	0d180000 	ldceq	0, cr0, [r8, #-0]
    1540:	3a0e0300 	bcc	382148 <__bss_end__+0x3775b0>
    1544:	49053b0b 	stmdbmi	r5, {r0, r1, r3, r8, r9, fp, ip, sp}
    1548:	000b3813 	andeq	r3, fp, r3, lsl r8
    154c:	000d1900 	andeq	r1, sp, r0, lsl #18
    1550:	0b3a0e03 	bleq	e84d64 <__bss_end__+0xe7a1cc>
    1554:	1349053b 	movtne	r0, #38203	; 0x953b
    1558:	00000538 	andeq	r0, r0, r8, lsr r5
    155c:	0301131a 	movweq	r1, #4890	; 0x131a
    1560:	3a0b0b0e 	bcc	2c41a0 <__bss_end__+0x2b9608>
    1564:	01053b0b 	tsteq	r5, fp, lsl #22
    1568:	1b000013 	blne	15bc <__code_start__-0x6a44>
    156c:	0b0b0113 	bleq	2c19c0 <__bss_end__+0x2b6e28>
    1570:	053b0b3a 	ldreq	r0, [fp, #-2874]!	; 0xb3a
    1574:	00001301 	andeq	r1, r0, r1, lsl #6
    1578:	0b01171c 	bleq	471f0 <__bss_end__+0x3c658>
    157c:	3b0b3a0b 	blcc	2cfdb0 <__bss_end__+0x2c5218>
    1580:	00130105 	andseq	r0, r3, r5, lsl #2
    1584:	000d1d00 	andeq	r1, sp, r0, lsl #26
    1588:	0b3a0e03 	bleq	e84d9c <__bss_end__+0xe7a204>
    158c:	1349053b 	movtne	r0, #38203	; 0x953b
    1590:	151e0000 	ldrne	r0, [lr, #-0]
    1594:	01192701 	tsteq	r9, r1, lsl #14
    1598:	1f000013 	svcne	0x00000013
    159c:	0e030034 	mcreq	0, 0, r0, cr3, cr4, {1}
    15a0:	053b0b3a 	ldreq	r0, [fp, #-2874]!	; 0xb3a
    15a4:	193f1349 	ldmdbne	pc!, {r0, r3, r6, r8, r9, ip}	; <UNPREDICTABLE>
    15a8:	0000193c 	andeq	r1, r0, ip, lsr r9
    15ac:	03003420 	movweq	r3, #1056	; 0x420
    15b0:	3b0b3a0e 	blcc	2cfdf0 <__bss_end__+0x2c5258>
    15b4:	3f13490b 	svccc	0x0013490b
    15b8:	00193c19 	andseq	r3, r9, r9, lsl ip
    15bc:	01042100 	mrseq	r2, (UNDEF: 20)
    15c0:	13490b0b 	movtne	r0, #39691	; 0x9b0b
    15c4:	0b3b0b3a 	bleq	ec42b4 <__bss_end__+0xeb971c>
    15c8:	00001301 	andeq	r1, r0, r1, lsl #6
    15cc:	03002822 	movweq	r2, #2082	; 0x822
    15d0:	000b1c0e 	andeq	r1, fp, lr, lsl #24
    15d4:	00342300 	eorseq	r2, r4, r0, lsl #6
    15d8:	0b3a0e03 	bleq	e84dec <__bss_end__+0xe7a254>
    15dc:	13490b3b 	movtne	r0, #39739	; 0x9b3b
    15e0:	0000061c 	andeq	r0, r0, ip, lsl r6
    15e4:	3f012e24 	svccc	0x00012e24
    15e8:	3a0e0319 	bcc	382254 <__bss_end__+0x3776bc>
    15ec:	270b3b0b 	strcs	r3, [fp, -fp, lsl #22]
    15f0:	11134919 	tstne	r3, r9, lsl r9
    15f4:	40061201 	andmi	r1, r6, r1, lsl #4
    15f8:	19429718 	stmdbne	r2, {r3, r4, r8, r9, sl, ip, pc}^
    15fc:	00001301 	andeq	r1, r0, r1, lsl #6
    1600:	01828925 	orreq	r8, r2, r5, lsr #18
    1604:	31011100 	mrscc	r1, (UNDEF: 17)
    1608:	26000013 			; <UNDEFINED> instruction: 0x26000013
    160c:	193f012e 	ldmdbne	pc!, {r1, r2, r3, r5, r8}	; <UNPREDICTABLE>
    1610:	0b3a0e03 	bleq	e84e24 <__bss_end__+0xe7a28c>
    1614:	19270b3b 	stmdbne	r7!, {r0, r1, r3, r4, r5, r8, r9, fp}
    1618:	06120111 			; <UNDEFINED> instruction: 0x06120111
    161c:	42971840 	addsmi	r1, r7, #64, 16	; 0x400000
    1620:	00130119 	andseq	r0, r3, r9, lsl r1
    1624:	00052700 	andeq	r2, r5, r0, lsl #14
    1628:	0b3a0803 	bleq	e8363c <__bss_end__+0xe78aa4>
    162c:	13490b3b 	movtne	r0, #39739	; 0x9b3b
    1630:	00001702 	andeq	r1, r0, r2, lsl #14
    1634:	01828928 	orreq	r8, r2, r8, lsr #18
    1638:	31011101 	tstcc	r1, r1, lsl #2
    163c:	00130113 	andseq	r0, r3, r3, lsl r1
    1640:	828a2900 	addhi	r2, sl, #0, 18
    1644:	18020001 	stmdane	r2, {r0}
    1648:	00184291 	mulseq	r8, r1, r2
    164c:	00342a00 	eorseq	r2, r4, r0, lsl #20
    1650:	0b3a0803 	bleq	e83664 <__bss_end__+0xe78acc>
    1654:	13490b3b 	movtne	r0, #39739	; 0x9b3b
    1658:	00001802 	andeq	r1, r0, r2, lsl #16
    165c:	0182892b 	orreq	r8, r2, fp, lsr #18
    1660:	31011101 	tstcc	r1, r1, lsl #2
    1664:	2c000013 	stccs	0, cr0, [r0], {19}
    1668:	0e03012e 	adfeqsp	f0, f3, #0.5
    166c:	0b3b0b3a 	bleq	ec435c <__bss_end__+0xeb97c4>
    1670:	01111927 	tsteq	r1, r7, lsr #18
    1674:	18400612 	stmdane	r0, {r1, r4, r9, sl}^
    1678:	01194297 			; <UNDEFINED> instruction: 0x01194297
    167c:	2d000013 	stccs	0, cr0, [r0, #-76]	; 0xffffffb4
    1680:	0e030005 	cdpeq	0, 0, cr0, cr3, cr5, {0}
    1684:	0b3b0b3a 	bleq	ec4374 <__bss_end__+0xeb97dc>
    1688:	17021349 	strne	r1, [r2, -r9, asr #6]
    168c:	352e0000 	strcc	r0, [lr, #-0]!
    1690:	2f000000 	svccs	0x00000000
    1694:	193f002e 	ldmdbne	pc!, {r1, r2, r3, r5}	; <UNPREDICTABLE>
    1698:	0e6e193c 	mcreq	9, 3, r1, cr14, cr12, {1}
    169c:	0b3a0e03 	bleq	e84eb0 <__bss_end__+0xe7a318>
    16a0:	00000b3b 	andeq	r0, r0, fp, lsr fp
    16a4:	01110100 	tsteq	r1, r0, lsl #2
    16a8:	0b130e25 	bleq	4c4f44 <__bss_end__+0x4ba3ac>
    16ac:	0e1b0e03 	cdpeq	14, 1, cr0, cr11, cr3, {0}
    16b0:	06120111 			; <UNDEFINED> instruction: 0x06120111
    16b4:	00001710 	andeq	r1, r0, r0, lsl r7
    16b8:	0b002402 	bleq	a6c8 <__FUNCTION__.4220+0x6c>
    16bc:	030b3e0b 	movweq	r3, #48651	; 0xbe0b
    16c0:	03000008 	movweq	r0, #8
    16c4:	0b0b0024 	bleq	2c175c <__bss_end__+0x2b6bc4>
    16c8:	0e030b3e 	vmoveq.16	d3[0], r0
    16cc:	26040000 	strcs	r0, [r4], -r0
    16d0:	00134900 	andseq	r4, r3, r0, lsl #18
    16d4:	00160500 	andseq	r0, r6, r0, lsl #10
    16d8:	0b3a0e03 	bleq	e84eec <__bss_end__+0xe7a354>
    16dc:	13490b3b 	movtne	r0, #39739	; 0x9b3b
    16e0:	16060000 	strne	r0, [r6], -r0
    16e4:	3a0e0300 	bcc	3822ec <__bss_end__+0x377754>
    16e8:	49053b0b 	stmdbmi	r5, {r0, r1, r3, r8, r9, fp, ip, sp}
    16ec:	07000013 	smladeq	r0, r3, r0, r0
    16f0:	0b0b0117 	bleq	2c1b54 <__bss_end__+0x2b6fbc>
    16f4:	0b3b0b3a 	bleq	ec43e4 <__bss_end__+0xeb984c>
    16f8:	00001301 	andeq	r1, r0, r1, lsl #6
    16fc:	03000d08 	movweq	r0, #3336	; 0xd08
    1700:	3b0b3a0e 	blcc	2cff40 <__bss_end__+0x2c53a8>
    1704:	0013490b 	andseq	r4, r3, fp, lsl #18
    1708:	01010900 	tsteq	r1, r0, lsl #18
    170c:	13011349 	movwne	r1, #4937	; 0x1349
    1710:	210a0000 	mrscs	r0, (UNDEF: 10)
    1714:	2f134900 	svccs	0x00134900
    1718:	0b00000b 	bleq	174c <__code_start__-0x68b4>
    171c:	0b0b0113 	bleq	2c1b70 <__bss_end__+0x2b6fd8>
    1720:	0b3b0b3a 	bleq	ec4410 <__bss_end__+0xeb9878>
    1724:	00001301 	andeq	r1, r0, r1, lsl #6
    1728:	03000d0c 	movweq	r0, #3340	; 0xd0c
    172c:	3b0b3a0e 	blcc	2cff6c <__bss_end__+0x2c53d4>
    1730:	3813490b 	ldmdacc	r3, {r0, r1, r3, r8, fp, lr}
    1734:	0d00000b 	stceq	0, cr0, [r0, #-44]	; 0xffffffd4
    1738:	0b0b000f 	bleq	2c177c <__bss_end__+0x2b6be4>
    173c:	0f0e0000 	svceq	0x000e0000
    1740:	490b0b00 	stmdbmi	fp, {r8, r9, fp}
    1744:	0f000013 	svceq	0x00000013
    1748:	0e030113 	mcreq	1, 0, r0, cr3, cr3, {0}
    174c:	0b3a0b0b 	bleq	e84380 <__bss_end__+0xe797e8>
    1750:	13010b3b 	movwne	r0, #6971	; 0x1b3b
    1754:	0d100000 	ldceq	0, cr0, [r0, #-0]
    1758:	3a080300 	bcc	202360 <__bss_end__+0x1f77c8>
    175c:	490b3b0b 	stmdbmi	fp, {r0, r1, r3, r8, r9, fp, ip, sp}
    1760:	000b3813 	andeq	r3, fp, r3, lsl r8
    1764:	01131100 	tsteq	r3, r0, lsl #2
    1768:	050b0e03 	streq	r0, [fp, #-3587]	; 0xe03
    176c:	0b3b0b3a 	bleq	ec445c <__bss_end__+0xeb98c4>
    1770:	00001301 	andeq	r1, r0, r1, lsl #6
    1774:	03000d12 	movweq	r0, #3346	; 0xd12
    1778:	3b0b3a0e 	blcc	2cffb8 <__bss_end__+0x2c5420>
    177c:	3813490b 	ldmdacc	r3, {r0, r1, r3, r8, fp, lr}
    1780:	13000005 	movwne	r0, #5
    1784:	19270015 	stmdbne	r7!, {r0, r2, r4}
    1788:	15140000 	ldrne	r0, [r4, #-0]
    178c:	49192701 	ldmdbmi	r9, {r0, r8, r9, sl, sp}
    1790:	00130113 	andseq	r0, r3, r3, lsl r1
    1794:	00051500 	andeq	r1, r5, r0, lsl #10
    1798:	00001349 	andeq	r1, r0, r9, asr #6
    179c:	03011316 	movweq	r1, #4886	; 0x1316
    17a0:	3a050b0e 	bcc	1443e0 <__bss_end__+0x139848>
    17a4:	01053b0b 	tsteq	r5, fp, lsl #22
    17a8:	17000013 	smladne	r0, r3, r0, r0
    17ac:	0e03000d 	cdpeq	0, 0, cr0, cr3, cr13, {0}
    17b0:	053b0b3a 	ldreq	r0, [fp, #-2874]!	; 0xb3a
    17b4:	0b381349 	bleq	e064e0 <__bss_end__+0xdfb948>
    17b8:	0d180000 	ldceq	0, cr0, [r8, #-0]
    17bc:	3a0e0300 	bcc	3823c4 <__bss_end__+0x37782c>
    17c0:	49053b0b 	stmdbmi	r5, {r0, r1, r3, r8, r9, fp, ip, sp}
    17c4:	00053813 	andeq	r3, r5, r3, lsl r8
    17c8:	01131900 	tsteq	r3, r0, lsl #18
    17cc:	0b0b0e03 	bleq	2c4fe0 <__bss_end__+0x2ba448>
    17d0:	053b0b3a 	ldreq	r0, [fp, #-2874]!	; 0xb3a
    17d4:	00001301 	andeq	r1, r0, r1, lsl #6
    17d8:	0b01131a 	bleq	46448 <__bss_end__+0x3b8b0>
    17dc:	3b0b3a0b 	blcc	2d0010 <__bss_end__+0x2c5478>
    17e0:	00130105 	andseq	r0, r3, r5, lsl #2
    17e4:	01171b00 	tsteq	r7, r0, lsl #22
    17e8:	0b3a0b0b 	bleq	e8441c <__bss_end__+0xe79884>
    17ec:	1301053b 	movwne	r0, #5435	; 0x153b
    17f0:	0d1c0000 	ldceq	0, cr0, [ip, #-0]
    17f4:	3a0e0300 	bcc	3823fc <__bss_end__+0x377864>
    17f8:	49053b0b 	stmdbmi	r5, {r0, r1, r3, r8, r9, fp, ip, sp}
    17fc:	1d000013 	stcne	0, cr0, [r0, #-76]	; 0xffffffb4
    1800:	19270115 	stmdbne	r7!, {r0, r2, r4, r8}
    1804:	00001301 	andeq	r1, r0, r1, lsl #6
    1808:	0300341e 	movweq	r3, #1054	; 0x41e
    180c:	3b0b3a0e 	blcc	2d004c <__bss_end__+0x2c54b4>
    1810:	3f134905 	svccc	0x00134905
    1814:	00193c19 	andseq	r3, r9, r9, lsl ip
    1818:	00341f00 	eorseq	r1, r4, r0, lsl #30
    181c:	0b3a0e03 	bleq	e85030 <__bss_end__+0xe7a498>
    1820:	13490b3b 	movtne	r0, #39739	; 0x9b3b
    1824:	193c193f 	ldmdbne	ip!, {r0, r1, r2, r3, r4, r5, r8, fp, ip}
    1828:	04200000 	strteq	r0, [r0], #-0
    182c:	490b0b01 	stmdbmi	fp, {r0, r8, r9, fp}
    1830:	3b0b3a13 	blcc	2d0084 <__bss_end__+0x2c54ec>
    1834:	0013010b 	andseq	r0, r3, fp, lsl #2
    1838:	00282100 	eoreq	r2, r8, r0, lsl #2
    183c:	0b1c0e03 	bleq	705050 <__bss_end__+0x6fa4b8>
    1840:	34220000 	strtcc	r0, [r2], #-0
    1844:	3a0e0300 	bcc	38244c <__bss_end__+0x3778b4>
    1848:	490b3b0b 	stmdbmi	fp, {r0, r1, r3, r8, r9, fp, ip, sp}
    184c:	00061c13 	andeq	r1, r6, r3, lsl ip
    1850:	012e2300 	teqeq	lr, r0, lsl #6
    1854:	0e03193f 	mcreq	9, 0, r1, cr3, cr15, {1}
    1858:	0b3b0b3a 	bleq	ec4548 <__bss_end__+0xeb99b0>
    185c:	13491927 	movtne	r1, #39207	; 0x9927
    1860:	06120111 			; <UNDEFINED> instruction: 0x06120111
    1864:	42971840 	addsmi	r1, r7, #64, 16	; 0x400000
    1868:	00130119 	andseq	r0, r3, r9, lsl r1
    186c:	00052400 	andeq	r2, r5, r0, lsl #8
    1870:	0b3a0803 	bleq	e83884 <__bss_end__+0xe78cec>
    1874:	13490b3b 	movtne	r0, #39739	; 0x9b3b
    1878:	00001702 	andeq	r1, r0, r2, lsl #14
    187c:	03003425 	movweq	r3, #1061	; 0x425
    1880:	3b0b3a0e 	blcc	2d00c0 <__bss_end__+0x2c5528>
    1884:	0213490b 	andseq	r4, r3, #180224	; 0x2c000
    1888:	26000017 			; <UNDEFINED> instruction: 0x26000017
    188c:	08030034 	stmdaeq	r3, {r2, r4, r5}
    1890:	0b3b0b3a 	bleq	ec4580 <__bss_end__+0xeb99e8>
    1894:	17021349 	strne	r1, [r2, -r9, asr #6]
    1898:	89270000 	stmdbhi	r7!, {}	; <UNPREDICTABLE>
    189c:	11010182 	smlabbne	r1, r2, r1, r0
    18a0:	00133101 	andseq	r3, r3, r1, lsl #2
    18a4:	828a2800 	addhi	r2, sl, #0, 16
    18a8:	18020001 	stmdane	r2, {r0}
    18ac:	00184291 	mulseq	r8, r1, r2
    18b0:	012e2900 	teqeq	lr, r0, lsl #18
    18b4:	0e03193f 	mcreq	9, 0, r1, cr3, cr15, {1}
    18b8:	0b3b0b3a 	bleq	ec45a8 <__bss_end__+0xeb9a10>
    18bc:	01111927 	tsteq	r1, r7, lsr #18
    18c0:	18400612 	stmdane	r0, {r1, r4, r9, sl}^
    18c4:	01194297 			; <UNDEFINED> instruction: 0x01194297
    18c8:	2a000013 	bcs	191c <__code_start__-0x66e4>
    18cc:	01018289 	smlabbeq	r1, r9, r2, r8
    18d0:	13310111 	teqne	r1, #1073741828	; 0x40000004
    18d4:	00001301 	andeq	r1, r0, r1, lsl #6
    18d8:	0182892b 	orreq	r8, r2, fp, lsr #18
    18dc:	31011100 	mrscc	r1, (UNDEF: 17)
    18e0:	2c000013 	stccs	0, cr0, [r0], {19}
    18e4:	0e030005 	cdpeq	0, 0, cr0, cr3, cr5, {0}
    18e8:	0b3b0b3a 	bleq	ec45d8 <__bss_end__+0xeb9a40>
    18ec:	17021349 	strne	r1, [r2, -r9, asr #6]
    18f0:	342d0000 	strtcc	r0, [sp], #-0
    18f4:	3a080300 	bcc	2024fc <__bss_end__+0x1f7964>
    18f8:	490b3b0b 	stmdbmi	fp, {r0, r1, r3, r8, r9, fp, ip, sp}
    18fc:	00180213 	andseq	r0, r8, r3, lsl r2
    1900:	002e2e00 	eoreq	r2, lr, r0, lsl #28
    1904:	193c193f 	ldmdbne	ip!, {r0, r1, r2, r3, r4, r5, r8, fp, ip}
    1908:	0e030e6e 	cdpeq	14, 0, cr0, cr3, cr14, {3}
    190c:	0b3b0b3a 	bleq	ec45fc <__bss_end__+0xeb9a64>
    1910:	Address 0x0000000000001910 is out of bounds.


Disassembly of section .debug_loc:

00000000 <.debug_loc>:
       0:	00000000 	andeq	r0, r0, r0
       4:	0000000c 	andeq	r0, r0, ip
       8:	0c500001 	mrrceq	0, 0, r0, r0, cr1	; <UNPREDICTABLE>
       c:	8c000000 	stchi	0, cr0, [r0], {-0}
      10:	04000000 	streq	r0, [r0], #-0
      14:	5001f300 	andpl	pc, r1, r0, lsl #6
      18:	0000009f 	muleq	r0, pc, r0	; <UNPREDICTABLE>
      1c:	00000000 	andeq	r0, r0, r0
      20:	00000800 	andeq	r0, r0, r0, lsl #16
      24:	00000c00 	andeq	r0, r0, r0, lsl #24
      28:	50000100 	andpl	r0, r0, r0, lsl #2
      2c:	0000000c 	andeq	r0, r0, ip
      30:	0000008c 	andeq	r0, r0, ip, lsl #1
      34:	01f30004 	mvnseq	r0, r4
      38:	00009f50 	andeq	r9, r0, r0, asr pc
      3c:	00000000 	andeq	r0, r0, r0
      40:	008c0000 	addeq	r0, ip, r0
      44:	009c0000 	addseq	r0, ip, r0
      48:	00010000 	andeq	r0, r1, r0
      4c:	00009c50 	andeq	r9, r0, r0, asr ip
      50:	0001e000 	andeq	lr, r1, r0
      54:	54000100 	strpl	r0, [r0], #-256	; 0x100
      58:	000001e0 	andeq	r0, r0, r0, ror #3
      5c:	00000214 	andeq	r0, r0, r4, lsl r2
      60:	01f30004 	mvnseq	r0, r4
      64:	00009f50 	andeq	r9, r0, r0, asr pc
      68:	00000000 	andeq	r0, r0, r0
      6c:	01240000 	teqeq	r4, r0
      70:	01280000 	teqeq	r8, r0
      74:	00010000 	andeq	r0, r1, r0
      78:	00000053 	andeq	r0, r0, r3, asr r0
      7c:	00000000 	andeq	r0, r0, r0
      80:	00012400 	andeq	r2, r1, r0, lsl #8
      84:	0001a000 	andeq	sl, r1, r0
      88:	34000200 	strcc	r0, [r0], #-512	; 0x200
      8c:	0001a89f 	muleq	r1, pc, r8	; <UNPREDICTABLE>
      90:	0001ac00 	andeq	sl, r1, r0, lsl #24
      94:	34000200 	strcc	r0, [r0], #-512	; 0x200
      98:	0000009f 	muleq	r0, pc, r0	; <UNPREDICTABLE>
      9c:	00000000 	andeq	r0, r0, r0
      a0:	00012400 	andeq	r2, r1, r0, lsl #8
      a4:	0001a000 	andeq	sl, r1, r0
      a8:	30000200 	andcc	r0, r0, r0, lsl #4
      ac:	0001a89f 	muleq	r1, pc, r8	; <UNPREDICTABLE>
      b0:	0001ac00 	andeq	sl, r1, r0, lsl #24
      b4:	30000200 	andcc	r0, r0, r0, lsl #4
      b8:	0000009f 	muleq	r0, pc, r0	; <UNPREDICTABLE>
      bc:	00000000 	andeq	r0, r0, r0
      c0:	00012400 	andeq	r2, r1, r0, lsl #8
      c4:	0001a000 	andeq	sl, r1, r0
      c8:	35000200 	strcc	r0, [r0, #-512]	; 0x200
      cc:	0001a89f 	muleq	r1, pc, r8	; <UNPREDICTABLE>
      d0:	0001ac00 	andeq	sl, r1, r0, lsl #24
      d4:	35000200 	strcc	r0, [r0, #-512]	; 0x200
      d8:	0000009f 	muleq	r0, pc, r0	; <UNPREDICTABLE>
      dc:	00000000 	andeq	r0, r0, r0
      e0:	00021400 	andeq	r1, r2, r0, lsl #8
      e4:	00022000 	andeq	r2, r2, r0
      e8:	50000100 	andpl	r0, r0, r0, lsl #2
      ec:	00000220 	andeq	r0, r0, r0, lsr #4
      f0:	0000029c 	muleq	r0, ip, r2
      f4:	01f30004 	mvnseq	r0, r4
      f8:	00009f50 	andeq	r9, r0, r0, asr pc
      fc:	00000000 	andeq	r0, r0, r0
     100:	023c0000 	eorseq	r0, ip, #0
     104:	027c0000 	rsbseq	r0, ip, #0
     108:	00060000 	andeq	r0, r6, r0
     10c:	00a77803 	adceq	r7, r7, r3, lsl #16
     110:	00009f00 	andeq	r9, r0, r0, lsl #30
     114:	00000000 	andeq	r0, r0, r0
     118:	02bc0000 	adcseq	r0, ip, #0
     11c:	02d70000 	sbcseq	r0, r7, #0
     120:	00010000 	andeq	r0, r1, r0
     124:	0002d750 	andeq	sp, r2, r0, asr r7
     128:	0002f800 	andeq	pc, r2, r0, lsl #16
     12c:	f3000400 	vshl.u8	d0, d0, d0
     130:	f89f5001 			; <UNDEFINED> instruction: 0xf89f5001
     134:	00000002 	andeq	r0, r0, r2
     138:	01000003 	tsteq	r0, r3
     13c:	03005000 	movweq	r5, #0
     140:	03280000 	teqeq	r8, #0
     144:	00040000 	andeq	r0, r4, r0
     148:	9f5001f3 	svcls	0x005001f3
	...
     154:	000003ac 	andeq	r0, r0, ip, lsr #7
     158:	0000049c 	muleq	r0, ip, r4
     15c:	78540001 	ldmdavc	r4, {r0}^
     160:	80000005 	andhi	r0, r0, r5
     164:	01000005 	tsteq	r0, r5
     168:	00005400 	andeq	r5, r0, r0, lsl #8
     16c:	00000000 	andeq	r0, r0, r0
     170:	049c0000 	ldreq	r0, [ip], #0
     174:	05780000 	ldrbeq	r0, [r8, #-0]!
     178:	00010000 	andeq	r0, r1, r0
     17c:	00058455 	andeq	r8, r5, r5, asr r4
     180:	00063800 	andeq	r3, r6, r0, lsl #16
     184:	55000100 	strpl	r0, [r0, #-256]	; 0x100
	...
     190:	0000049c 	muleq	r0, ip, r4
     194:	00000578 	andeq	r0, r0, r8, ror r5
     198:	78030006 	stmdavc	r3, {r1, r2}
     19c:	9f0000a7 	svcls	0x000000a7
	...
     1a8:	000004a0 	andeq	r0, r0, r0, lsr #9
     1ac:	00000578 	andeq	r0, r0, r8, ror r5
     1b0:	78030006 	stmdavc	r3, {r1, r2}
     1b4:	9f0000a7 	svcls	0x000000a7
	...
     1c0:	000004d4 	ldrdeq	r0, [r0], -r4
     1c4:	00000578 	andeq	r0, r0, r8, ror r5
     1c8:	78030006 	stmdavc	r3, {r1, r2}
     1cc:	9f0000a7 	svcls	0x000000a7
	...
     1d8:	00000508 	andeq	r0, r0, r8, lsl #10
     1dc:	00000578 	andeq	r0, r0, r8, ror r5
     1e0:	78030006 	stmdavc	r3, {r1, r2}
     1e4:	9f0000a7 	svcls	0x000000a7
	...
     1f0:	0000053c 	andeq	r0, r0, ip, lsr r5
     1f4:	00000578 	andeq	r0, r0, r8, ror r5
     1f8:	78030006 	stmdavc	r3, {r1, r2}
     1fc:	9f0000a7 	svcls	0x000000a7
	...
     20c:	00000023 	andeq	r0, r0, r3, lsr #32
     210:	23500001 	cmpcs	r0, #1
     214:	44000000 	strmi	r0, [r0], #-0
     218:	04000000 	streq	r0, [r0], #-0
     21c:	5001f300 	andpl	pc, r1, r0, lsl #6
     220:	0000449f 	muleq	r0, pc, r4	; <UNPREDICTABLE>
     224:	00005f00 	andeq	r5, r0, r0, lsl #30
     228:	50000100 	andpl	r0, r0, r0, lsl #2
     22c:	0000005f 	andeq	r0, r0, pc, asr r0
     230:	00000080 	andeq	r0, r0, r0, lsl #1
     234:	01f30004 	mvnseq	r0, r4
     238:	00809f50 	addeq	r9, r0, r0, asr pc
     23c:	00b00000 	adcseq	r0, r0, r0
     240:	00010000 	andeq	r0, r1, r0
     244:	00000050 	andeq	r0, r0, r0, asr r0
	...
     250:	00002300 	andeq	r2, r0, r0, lsl #6
     254:	51000100 	mrspl	r0, (UNDEF: 16)
     258:	00000023 	andeq	r0, r0, r3, lsr #32
     25c:	00000044 	andeq	r0, r0, r4, asr #32
     260:	01f30004 	mvnseq	r0, r4
     264:	00449f51 	subeq	r9, r4, r1, asr pc
     268:	005f0000 	subseq	r0, pc, r0
     26c:	00010000 	andeq	r0, r1, r0
     270:	00005f51 	andeq	r5, r0, r1, asr pc
     274:	00008000 	andeq	r8, r0, r0
     278:	f3000400 	vshl.u8	d0, d0, d0
     27c:	809f5101 	addshi	r5, pc, r1, lsl #2
     280:	b0000000 	andlt	r0, r0, r0
     284:	01000000 	mrseq	r0, (UNDEF: 0)
     288:	00005100 	andeq	r5, r0, r0, lsl #2
     28c:	00000000 	andeq	r0, r0, r0
     290:	00100000 	andseq	r0, r0, r0
     294:	00230000 	eoreq	r0, r3, r0
     298:	00010000 	andeq	r0, r1, r0
     29c:	00004453 	andeq	r4, r0, r3, asr r4
     2a0:	00004800 	andeq	r4, r0, r0, lsl #16
     2a4:	53000100 	movwpl	r0, #256	; 0x100
     2a8:	00000048 	andeq	r0, r0, r8, asr #32
     2ac:	000000b0 	strheq	r0, [r0], -r0	; <UNPREDICTABLE>
     2b0:	ff0a0004 			; <UNDEFINED> instruction: 0xff0a0004
     2b4:	00009f01 	andeq	r9, r0, r1, lsl #30
     2b8:	00000000 	andeq	r0, r0, r0
     2bc:	00440000 	subeq	r0, r4, r0
     2c0:	005f0000 	subseq	r0, pc, r0
     2c4:	00010000 	andeq	r0, r1, r0
     2c8:	00005f50 	andeq	r5, r0, r0, asr pc
     2cc:	00008000 	andeq	r8, r0, r0
     2d0:	f3000400 	vshl.u8	d0, d0, d0
     2d4:	809f5001 	addshi	r5, pc, r1
     2d8:	b0000000 	andlt	r0, r0, r0
     2dc:	01000000 	mrseq	r0, (UNDEF: 0)
     2e0:	00005000 	andeq	r5, r0, r0
     2e4:	00000000 	andeq	r0, r0, r0
     2e8:	000c0000 	andeq	r0, ip, r0
     2ec:	00100000 	andseq	r0, r0, r0
     2f0:	00010000 	andeq	r0, r1, r0
     2f4:	00000053 	andeq	r0, r0, r3, asr r0
     2f8:	00000000 	andeq	r0, r0, r0
     2fc:	00001000 	andeq	r1, r0, r0
     300:	00002300 	andeq	r2, r0, r0, lsl #6
     304:	53000100 	movwpl	r0, #256	; 0x100
     308:	00000044 	andeq	r0, r0, r4, asr #32
     30c:	0000004c 	andeq	r0, r0, ip, asr #32
     310:	00530001 	subseq	r0, r3, r1
     314:	00000000 	andeq	r0, r0, r0
     318:	18000000 	stmdane	r0, {}	; <UNPREDICTABLE>
     31c:	23000000 	movwcs	r0, #0
     320:	01000000 	mrseq	r0, (UNDEF: 0)
     324:	00445200 	subeq	r5, r4, r0, lsl #4
     328:	00540000 	subseq	r0, r4, r0
     32c:	00010000 	andeq	r0, r1, r0
     330:	00000052 	andeq	r0, r0, r2, asr r0
     334:	00000000 	andeq	r0, r0, r0
     338:	00005400 	andeq	r5, r0, r0, lsl #8
     33c:	00005f00 	andeq	r5, r0, r0, lsl #30
     340:	52000100 	andpl	r0, r0, #0, 2
     344:	00000080 	andeq	r0, r0, r0, lsl #1
     348:	000000b0 	strheq	r0, [r0], -r0	; <UNPREDICTABLE>
     34c:	00520001 	subseq	r0, r2, r1
     350:	00000000 	andeq	r0, r0, r0
     354:	b0000000 	andlt	r0, r0, r0
     358:	d3000000 	movwle	r0, #0
     35c:	01000000 	mrseq	r0, (UNDEF: 0)
     360:	00d35000 	sbcseq	r5, r3, r0
     364:	00ec0000 	rsceq	r0, ip, r0
     368:	00040000 	andeq	r0, r4, r0
     36c:	9f5001f3 	svcls	0x005001f3
     370:	000000ec 	andeq	r0, r0, ip, ror #1
     374:	000000ff 	strdeq	r0, [r0], -pc	; <UNPREDICTABLE>
     378:	ff500001 			; <UNDEFINED> instruction: 0xff500001
     37c:	20000000 	andcs	r0, r0, r0
     380:	04000001 	streq	r0, [r0], #-1
     384:	5001f300 	andpl	pc, r1, r0, lsl #6
     388:	0001209f 	muleq	r1, pc, r0	; <UNPREDICTABLE>
     38c:	00013300 	andeq	r3, r1, r0, lsl #6
     390:	50000100 	andpl	r0, r0, r0, lsl #2
     394:	00000133 	andeq	r0, r0, r3, lsr r1
     398:	00000154 	andeq	r0, r0, r4, asr r1
     39c:	01f30004 	mvnseq	r0, r4
     3a0:	01549f50 	cmpeq	r4, r0, asr pc
     3a4:	015c0000 	cmpeq	ip, r0
     3a8:	00010000 	andeq	r0, r1, r0
     3ac:	00015c50 	andeq	r5, r1, r0, asr ip
     3b0:	00015f00 	andeq	r5, r1, r0, lsl #30
     3b4:	51000100 	mrspl	r0, (UNDEF: 16)
     3b8:	0000015f 	andeq	r0, r0, pc, asr r1
     3bc:	0000018c 	andeq	r0, r0, ip, lsl #3
     3c0:	01f30004 	mvnseq	r0, r4
     3c4:	00009f50 	andeq	r9, r0, r0, asr pc
     3c8:	00000000 	andeq	r0, r0, r0
     3cc:	00c40000 	sbceq	r0, r4, r0
     3d0:	00c80000 	sbceq	r0, r8, r0
     3d4:	00010000 	andeq	r0, r1, r0
     3d8:	00000053 	andeq	r0, r0, r3, asr r0
     3dc:	00000000 	andeq	r0, r0, r0
     3e0:	0000f000 	andeq	pc, r0, r0
     3e4:	0000f400 	andeq	pc, r0, r0, lsl #8
     3e8:	53000100 	movwpl	r0, #256	; 0x100
     3ec:	000000f4 	strdeq	r0, [r0], -r4
     3f0:	000000ff 	strdeq	r0, [r0], -pc	; <UNPREDICTABLE>
     3f4:	04730003 	ldrbteq	r0, [r3], #-3
     3f8:	0001209f 	muleq	r1, pc, r0	; <UNPREDICTABLE>
     3fc:	00012400 	andeq	r2, r1, r0, lsl #8
     400:	73000300 	movwvc	r0, #768	; 0x300
     404:	00009f04 	andeq	r9, r0, r4, lsl #30
     408:	00000000 	andeq	r0, r0, r0
     40c:	01d00000 	bicseq	r0, r0, r0
     410:	01d80000 	bicseq	r0, r8, r0
     414:	00010000 	andeq	r0, r1, r0
     418:	0001d853 	andeq	sp, r1, r3, asr r8
     41c:	0001fc00 	andeq	pc, r1, r0, lsl #24
     420:	0a000400 	beq	1428 <__code_start__-0x6bd8>
     424:	009f01e7 	addseq	r0, pc, r7, ror #3
     428:	00000000 	andeq	r0, r0, r0
     42c:	cc000000 	stcgt	0, cr0, [r0], {-0}
     430:	d0000001 	andle	r0, r0, r1
     434:	01000001 	tsteq	r0, r1
     438:	00005300 	andeq	r5, r0, r0, lsl #6
     43c:	00000000 	andeq	r0, r0, r0
     440:	01d00000 	bicseq	r0, r0, r0
     444:	01dc0000 	bicseq	r0, ip, r0
     448:	00010000 	andeq	r0, r1, r0
     44c:	00000053 	andeq	r0, r0, r3, asr r0
     450:	00000000 	andeq	r0, r0, r0
     454:	0001fc00 	andeq	pc, r1, r0, lsl #24
     458:	00021b00 	andeq	r1, r2, r0, lsl #22
     45c:	50000100 	andpl	r0, r0, r0, lsl #2
     460:	0000021b 	andeq	r0, r0, fp, lsl r2
     464:	00000234 	andeq	r0, r0, r4, lsr r2
     468:	01f30004 	mvnseq	r0, r4
     46c:	02349f50 	eorseq	r9, r4, #80, 30	; 0x140
     470:	02470000 	subeq	r0, r7, #0
     474:	00010000 	andeq	r0, r1, r0
     478:	00024750 	andeq	r4, r2, r0, asr r7
     47c:	00026800 	andeq	r6, r2, r0, lsl #16
     480:	f3000400 	vshl.u8	d0, d0, d0
     484:	689f5001 	ldmvs	pc, {r0, ip, lr}	; <UNPREDICTABLE>
     488:	70000002 	andvc	r0, r0, r2
     48c:	01000002 	tsteq	r0, r2
     490:	02705000 	rsbseq	r5, r0, #0
     494:	02730000 	rsbseq	r0, r3, #0
     498:	00010000 	andeq	r0, r1, r0
     49c:	00027351 	andeq	r7, r2, r1, asr r3
     4a0:	00029400 	andeq	r9, r2, r0, lsl #8
     4a4:	f3000400 	vshl.u8	d0, d0, d0
     4a8:	009f5001 	addseq	r5, pc, r1
     4ac:	00000000 	andeq	r0, r0, r0
     4b0:	0c000000 	stceq	0, cr0, [r0], {-0}
     4b4:	10000002 	andne	r0, r0, r2
     4b8:	01000002 	tsteq	r0, r2
     4bc:	00005300 	andeq	r5, r0, r0, lsl #6
     4c0:	00000000 	andeq	r0, r0, r0
     4c4:	02cc0000 	sbceq	r0, ip, #0
     4c8:	02d40000 	sbcseq	r0, r4, #0
     4cc:	00010000 	andeq	r0, r1, r0
     4d0:	0002d453 	andeq	sp, r2, r3, asr r4
     4d4:	0002f800 	andeq	pc, r2, r0, lsl #16
     4d8:	0c000600 	stceq	6, cr0, [r0], {-0}
     4dc:	004001e7 	subeq	r0, r0, r7, ror #3
     4e0:	0000009f 	muleq	r0, pc, r0	; <UNPREDICTABLE>
     4e4:	00000000 	andeq	r0, r0, r0
     4e8:	0002c800 	andeq	ip, r2, r0, lsl #16
     4ec:	0002cc00 	andeq	ip, r2, r0, lsl #24
     4f0:	53000100 	movwpl	r0, #256	; 0x100
	...
     4fc:	000002cc 	andeq	r0, r0, ip, asr #5
     500:	000002d8 	ldrdeq	r0, [r0], -r8
     504:	00530001 	subseq	r0, r3, r1
     508:	00000000 	andeq	r0, r0, r0
     50c:	08000000 	stmdaeq	r0, {}	; <UNPREDICTABLE>
     510:	24000003 	strcs	r0, [r0], #-3
     514:	01000003 	tsteq	r0, r3
     518:	03245000 	teqeq	r4, #0
     51c:	03280000 	teqeq	r8, #0
     520:	00040000 	andeq	r0, r4, r0
     524:	9f5001f3 	svcls	0x005001f3
     528:	00000328 	andeq	r0, r0, r8, lsr #6
     52c:	00000340 	andeq	r0, r0, r0, asr #6
     530:	40500001 	subsmi	r0, r0, r1
     534:	48000003 	stmdami	r0, {r0, r1}
     538:	04000003 	streq	r0, [r0], #-3
     53c:	5001f300 	andpl	pc, r1, r0, lsl #6
     540:	0003489f 	muleq	r3, pc, r8	; <UNPREDICTABLE>
     544:	00035400 	andeq	r5, r3, r0, lsl #8
     548:	50000100 	andpl	r0, r0, r0, lsl #2
     54c:	00000354 	andeq	r0, r0, r4, asr r3
     550:	00000364 	andeq	r0, r0, r4, ror #6
     554:	01f30004 	mvnseq	r0, r4
     558:	03649f50 	cmneq	r4, #80, 30	; 0x140
     55c:	03680000 	cmneq	r8, #0
     560:	00010000 	andeq	r0, r1, r0
     564:	00036850 	andeq	r6, r3, r0, asr r8
     568:	00036c00 	andeq	r6, r3, r0, lsl #24
     56c:	f3000400 	vshl.u8	d0, d0, d0
     570:	6c9f5001 	ldcvs	0, cr5, [pc], {1}
     574:	70000003 	andvc	r0, r0, r3
     578:	01000003 	tsteq	r0, r3
     57c:	03705000 	cmneq	r0, #0
     580:	03780000 	cmneq	r8, #0
     584:	00040000 	andeq	r0, r4, r0
     588:	9f5001f3 	svcls	0x005001f3
	...
     594:	00000308 	andeq	r0, r0, r8, lsl #6
     598:	00000358 	andeq	r0, r0, r8, asr r3
     59c:	58510001 	ldmdapl	r1, {r0}^
     5a0:	64000003 	strvs	r0, [r0], #-3
     5a4:	04000003 	streq	r0, [r0], #-3
     5a8:	5101f300 	mrspl	pc, SP_irq	; <UNPREDICTABLE>
     5ac:	0003649f 	muleq	r3, pc, r4	; <UNPREDICTABLE>
     5b0:	00037800 	andeq	r7, r3, r0, lsl #16
     5b4:	51000100 	mrspl	r0, (UNDEF: 16)
	...
     5c0:	00000314 	andeq	r0, r0, r4, lsl r3
     5c4:	00000334 	andeq	r0, r0, r4, lsr r3
     5c8:	34530001 	ldrbcc	r0, [r3], #-1
     5cc:	40000003 	andmi	r0, r0, r3
     5d0:	0a000003 	beq	5e4 <__code_start__-0x7a1c>
     5d4:	06007000 	streq	r7, [r0], -r0
     5d8:	ffffff0c 			; <UNDEFINED> instruction: 0xffffff0c
     5dc:	409f1a00 	addsmi	r1, pc, r0, lsl #20
     5e0:	44000003 	strmi	r0, [r0], #-3
     5e4:	0b000003 	bleq	5f8 <__code_start__-0x7a08>
     5e8:	5001f300 	andpl	pc, r1, r0, lsl #6
     5ec:	ffff0c06 			; <UNDEFINED> instruction: 0xffff0c06
     5f0:	9f1a00ff 	svcls	0x001a00ff
     5f4:	00000348 	andeq	r0, r0, r8, asr #6
     5f8:	0000035b 	andeq	r0, r0, fp, asr r3
     5fc:	64530001 	ldrbvs	r0, [r3], #-1
     600:	68000003 	stmdavs	r0, {r0, r1}
     604:	0a000003 	beq	618 <__code_start__-0x79e8>
     608:	06007000 	streq	r7, [r0], -r0
     60c:	ffffff0c 			; <UNDEFINED> instruction: 0xffffff0c
     610:	689f1a00 	ldmvs	pc, {r9, fp, ip}	; <UNPREDICTABLE>
     614:	6c000003 	stcvs	0, cr0, [r0], {3}
     618:	0b000003 	bleq	62c <__code_start__-0x79d4>
     61c:	5001f300 	andpl	pc, r1, r0, lsl #6
     620:	ffff0c06 			; <UNDEFINED> instruction: 0xffff0c06
     624:	9f1a00ff 	svcls	0x001a00ff
     628:	0000036c 	andeq	r0, r0, ip, ror #6
     62c:	00000378 	andeq	r0, r0, r8, ror r3
     630:	00530001 	subseq	r0, r3, r1
	...
     63c:	24000000 	strcs	r0, [r0], #-0
     640:	01000000 	mrseq	r0, (UNDEF: 0)
     644:	00245000 	eoreq	r5, r4, r0
     648:	01ac0000 			; <UNDEFINED> instruction: 0x01ac0000
     64c:	00040000 	andeq	r0, r4, r0
     650:	9f5001f3 	svcls	0x005001f3
	...
     660:	00000028 	andeq	r0, r0, r8, lsr #32
     664:	28510001 	ldmdacs	r1, {r0}^
     668:	78000000 	stmdavc	r0, {}	; <UNPREDICTABLE>
     66c:	01000001 	tsteq	r0, r1
     670:	01785500 	cmneq	r8, r0, lsl #10
     674:	01ac0000 			; <UNDEFINED> instruction: 0x01ac0000
     678:	00040000 	andeq	r0, r4, r0
     67c:	9f5101f3 	svcls	0x005101f3
	...
     68c:	0000002c 	andeq	r0, r0, ip, lsr #32
     690:	2c520001 	mrrccs	0, 0, r0, r2, cr1
     694:	ac000000 	stcge	0, cr0, [r0], {-0}
     698:	04000001 	streq	r0, [r0], #-1
     69c:	5201f300 	andpl	pc, r1, #0, 6
     6a0:	0000009f 	muleq	r0, pc, r0	; <UNPREDICTABLE>
     6a4:	00000000 	andeq	r0, r0, r0
     6a8:	00006800 	andeq	r6, r0, r0, lsl #16
     6ac:	00017800 	andeq	r7, r1, r0, lsl #16
     6b0:	54000100 	strpl	r0, [r0], #-256	; 0x100
	...
     6bc:	00000038 	andeq	r0, r0, r8, lsr r0
     6c0:	0000003c 	andeq	r0, r0, ip, lsr r0
     6c4:	00530001 	subseq	r0, r3, r1
     6c8:	00000000 	andeq	r0, r0, r0
     6cc:	ac000000 	stcge	0, cr0, [r0], {-0}
     6d0:	e8000001 	stmda	r0, {r0}
     6d4:	01000001 	tsteq	r0, r1
     6d8:	01e85000 	mvneq	r5, r0
     6dc:	062c0000 	strteq	r0, [ip], -r0
     6e0:	00010000 	andeq	r0, r1, r0
     6e4:	00062c54 	andeq	r2, r6, r4, asr ip
     6e8:	00068c00 	andeq	r8, r6, r0, lsl #24
     6ec:	f3000400 	vshl.u8	d0, d0, d0
     6f0:	009f5001 	addseq	r5, pc, r1
     6f4:	00000000 	andeq	r0, r0, r0
     6f8:	bc000000 	stclt	0, cr0, [r0], {-0}
     6fc:	08000001 	stmdaeq	r0, {r0}
     700:	01000005 	tsteq	r0, r5
     704:	00005800 	andeq	r5, r0, r0, lsl #16
     708:	00000000 	andeq	r0, r0, r0
     70c:	02c00000 	sbceq	r0, r0, #0
     710:	05080000 	streq	r0, [r8, #-0]
     714:	00010000 	andeq	r0, r1, r0
     718:	00000058 	andeq	r0, r0, r8, asr r0
     71c:	00000000 	andeq	r0, r0, r0
     720:	0003e000 	andeq	lr, r3, r0
     724:	00062c00 	andeq	r2, r6, r0, lsl #24
     728:	55000100 	strpl	r0, [r0, #-256]	; 0x100
	...
     734:	00000504 	andeq	r0, r0, r4, lsl #10
     738:	00000508 	andeq	r0, r0, r8, lsl #10
     73c:	00580001 	subseq	r0, r8, r1
     740:	00000000 	andeq	r0, r0, r0
     744:	74000000 	strvc	r0, [r0], #-0
     748:	78000005 	stmdavc	r0, {r0, r2}
     74c:	01000005 	tsteq	r0, r5
     750:	00005300 	andeq	r5, r0, r0, lsl #6
     754:	00000000 	andeq	r0, r0, r0
     758:	068c0000 	streq	r0, [ip], r0
     75c:	069c0000 	ldreq	r0, [ip], r0
     760:	00010000 	andeq	r0, r1, r0
     764:	00069c50 	andeq	r9, r6, r0, asr ip
     768:	00071000 	andeq	r1, r7, r0
     76c:	54000100 	strpl	r0, [r0], #-256	; 0x100
	...
     778:	00000694 	muleq	r0, r4, r6
     77c:	0000069c 	muleq	r0, ip, r6
     780:	9f300002 	svcls	0x00300002
     784:	0000069c 	muleq	r0, ip, r6
     788:	00000710 	andeq	r0, r0, r0, lsl r7
     78c:	00550001 	subseq	r0, r5, r1
     790:	00000000 	andeq	r0, r0, r0
     794:	38000000 	stmdacc	r0, {}	; <UNPREDICTABLE>
     798:	43000007 	movwmi	r0, #7
     79c:	01000007 	tsteq	r0, r7
     7a0:	07435000 	strbeq	r5, [r3, -r0]
     7a4:	07840000 	streq	r0, [r4, r0]
     7a8:	00010000 	andeq	r0, r1, r0
     7ac:	00000054 	andeq	r0, r0, r4, asr r0
     7b0:	00000000 	andeq	r0, r0, r0
     7b4:	00002c00 	andeq	r2, r0, r0, lsl #24
     7b8:	00003800 	andeq	r3, r0, r0, lsl #16
     7bc:	50000100 	andpl	r0, r0, r0, lsl #2
     7c0:	00000038 	andeq	r0, r0, r8, lsr r0
     7c4:	00000048 	andeq	r0, r0, r8, asr #32
     7c8:	48550001 	ldmdami	r5, {r0}^
     7cc:	58000000 	stmdapl	r0, {}	; <UNPREDICTABLE>
     7d0:	01000000 	mrseq	r0, (UNDEF: 0)
     7d4:	00005000 	andeq	r5, r0, r0
	...
     7e0:	000b0000 	andeq	r0, fp, r0
     7e4:	00010000 	andeq	r0, r1, r0
     7e8:	00000b50 	andeq	r0, r0, r0, asr fp
     7ec:	00001400 	andeq	r1, r0, r0, lsl #8
     7f0:	54000100 	strpl	r0, [r0], #-256	; 0x100
	...
     800:	00000010 	andeq	r0, r0, r0, lsl r0
     804:	10500001 	subsne	r0, r0, r1
     808:	34000000 	strcc	r0, [r0], #-0
     80c:	01000000 	mrseq	r0, (UNDEF: 0)
     810:	00005400 	andeq	r5, r0, r0, lsl #8
	...
     81c:	00040000 	andeq	r0, r4, r0
     820:	00010000 	andeq	r0, r1, r0
     824:	00000450 	andeq	r0, r0, r0, asr r4
     828:	00000c00 	andeq	r0, r0, r0, lsl #24
     82c:	70000300 	andvc	r0, r0, r0, lsl #6
     830:	000c9f30 	andeq	r9, ip, r0, lsr pc
     834:	00140000 	andseq	r0, r4, r0
     838:	00040000 	andeq	r0, r4, r0
     83c:	9f5001f3 	svcls	0x005001f3
	...
     848:	00000014 	andeq	r0, r0, r4, lsl r0
     84c:	00000020 	andeq	r0, r0, r0, lsr #32
     850:	20500001 	subscs	r0, r0, r1
     854:	2c000000 	stccs	0, cr0, [r0], {-0}
     858:	03000000 	movweq	r0, #0
     85c:	9f017000 	svcls	0x00017000
     860:	0000002c 	andeq	r0, r0, ip, lsr #32
     864:	00000040 	andeq	r0, r0, r0, asr #32
     868:	00500001 	subseq	r0, r0, r1
     86c:	00000000 	andeq	r0, r0, r0
     870:	14000000 	strne	r0, [r0], #-0
     874:	18000000 	stmdane	r0, {}	; <UNPREDICTABLE>
     878:	01000000 	mrseq	r0, (UNDEF: 0)
     87c:	00185100 	andseq	r5, r8, r0, lsl #2
     880:	00400000 	subeq	r0, r0, r0
     884:	00040000 	andeq	r0, r4, r0
     888:	9f5101f3 	svcls	0x005101f3
	...
     894:	00000040 	andeq	r0, r0, r0, asr #32
     898:	00000060 	andeq	r0, r0, r0, rrx
     89c:	60500001 	subsvs	r0, r0, r1
     8a0:	6c000000 	stcvs	0, cr0, [r0], {-0}
     8a4:	03000000 	movweq	r0, #0
     8a8:	9f017100 	svcls	0x00017100
     8ac:	0000006c 	andeq	r0, r0, ip, rrx
     8b0:	00000074 	andeq	r0, r0, r4, ror r0
     8b4:	74510001 	ldrbvc	r0, [r1], #-1
     8b8:	80000000 	andhi	r0, r0, r0
     8bc:	03000000 	movweq	r0, #0
     8c0:	9f017100 	svcls	0x00017100
	...
     8cc:	00000040 	andeq	r0, r0, r0, asr #32
     8d0:	00000050 	andeq	r0, r0, r0, asr r0
     8d4:	50510001 	subspl	r0, r1, r1
     8d8:	80000000 	andhi	r0, r0, r0
     8dc:	04000000 	streq	r0, [r0], #-0
     8e0:	5101f300 	mrspl	pc, SP_irq	; <UNPREDICTABLE>
     8e4:	0000009f 	muleq	r0, pc, r0	; <UNPREDICTABLE>
     8e8:	00000000 	andeq	r0, r0, r0
     8ec:	00004000 	andeq	r4, r0, r0
     8f0:	00005800 	andeq	r5, r0, r0, lsl #16
     8f4:	52000100 	andpl	r0, r0, #0, 2
     8f8:	00000058 	andeq	r0, r0, r8, asr r0
     8fc:	00000064 	andeq	r0, r0, r4, rrx
     900:	64520001 	ldrbvs	r0, [r2], #-1
     904:	68000000 	stmdavs	r0, {}	; <UNPREDICTABLE>
     908:	03000000 	movweq	r0, #0
     90c:	9f017200 	svcls	0x00017200
     910:	00000068 	andeq	r0, r0, r8, rrx
     914:	00000080 	andeq	r0, r0, r0, lsl #1
     918:	00520001 	subseq	r0, r2, r1
     91c:	00000000 	andeq	r0, r0, r0
     920:	40000000 	andmi	r0, r0, r0
     924:	54000000 	strpl	r0, [r0], #-0
     928:	01000000 	mrseq	r0, (UNDEF: 0)
     92c:	00545300 	subseq	r5, r4, r0, lsl #6
     930:	00780000 	rsbseq	r0, r8, r0
     934:	00010000 	andeq	r0, r1, r0
     938:	00000053 	andeq	r0, r0, r3, asr r0
     93c:	00000000 	andeq	r0, r0, r0
     940:	00004800 	andeq	r4, r0, r0, lsl #16
     944:	00006000 	andeq	r6, r0, r0
     948:	5c000100 	stfpls	f0, [r0], {-0}
     94c:	00000060 	andeq	r0, r0, r0, rrx
     950:	00000080 	andeq	r0, r0, r0, lsl #1
     954:	01f3000a 	mvnseq	r0, sl
     958:	5301f352 	movwpl	pc, #4946	; 0x1352	; <UNPREDICTABLE>
     95c:	9f01231c 	svcls	0x0001231c
	...
     968:	00000080 	andeq	r0, r0, r0, lsl #1
     96c:	000000a4 	andeq	r0, r0, r4, lsr #1
     970:	a4500001 	ldrbge	r0, [r0], #-1
     974:	18000000 	stmdane	r0, {}	; <UNPREDICTABLE>
     978:	03000001 	movweq	r0, #1
     97c:	9f027000 	svcls	0x00027000
     980:	00000118 	andeq	r0, r0, r8, lsl r1
     984:	0000023c 	andeq	r0, r0, ip, lsr r2
     988:	01f30004 	mvnseq	r0, r4
     98c:	00009f50 	andeq	r9, r0, r0, asr pc
     990:	00000000 	andeq	r0, r0, r0
     994:	00800000 	addeq	r0, r0, r0
     998:	00f00000 	rscseq	r0, r0, r0
     99c:	00010000 	andeq	r0, r1, r0
     9a0:	0000f051 	andeq	pc, r0, r1, asr r0	; <UNPREDICTABLE>
     9a4:	00016000 	andeq	r6, r1, r0
     9a8:	55000100 	strpl	r0, [r0, #-256]	; 0x100
     9ac:	00000160 	andeq	r0, r0, r0, ror #2
     9b0:	0000016c 	andeq	r0, r0, ip, ror #2
     9b4:	6c510001 	mrrcvs	0, 0, r0, r1, cr1
     9b8:	a0000001 	andge	r0, r0, r1
     9bc:	01000001 	tsteq	r0, r1
     9c0:	01a05500 	lsleq	r5, r0, #10
     9c4:	01b40000 			; <UNDEFINED> instruction: 0x01b40000
     9c8:	00010000 	andeq	r0, r1, r0
     9cc:	0001b451 	andeq	fp, r1, r1, asr r4
     9d0:	0001d400 	andeq	sp, r1, r0, lsl #8
     9d4:	55000100 	strpl	r0, [r0, #-256]	; 0x100
     9d8:	000001d4 	ldrdeq	r0, [r0], -r4
     9dc:	000001d7 	ldrdeq	r0, [r0], -r7
     9e0:	d7510001 	ldrble	r0, [r1, -r1]
     9e4:	1c000001 	stcne	0, cr0, [r0], {1}
     9e8:	01000002 	tsteq	r0, r2
     9ec:	021c5500 	andseq	r5, ip, #0, 10
     9f0:	023c0000 	eorseq	r0, ip, #0
     9f4:	00040000 	andeq	r0, r4, r0
     9f8:	9f5101f3 	svcls	0x005101f3
	...
     a04:	00000080 	andeq	r0, r0, r0, lsl #1
     a08:	00000094 	muleq	r0, r4, r0
     a0c:	94520001 	ldrbls	r0, [r2], #-1
     a10:	1c000000 	stcne	0, cr0, [r0], {-0}
     a14:	01000002 	tsteq	r0, r2
     a18:	021c5400 	andseq	r5, ip, #0, 8
     a1c:	023c0000 	eorseq	r0, ip, #0
     a20:	00040000 	andeq	r0, r4, r0
     a24:	9f5201f3 	svcls	0x005201f3
	...
     a30:	00000080 	andeq	r0, r0, r0, lsl #1
     a34:	00000100 	andeq	r0, r0, r0, lsl #2
     a38:	04530001 	ldrbeq	r0, [r3], #-1
     a3c:	08000001 	stmdaeq	r0, {r0}
     a40:	01000001 	tsteq	r0, r1
     a44:	01605300 	cmneq	r0, r0, lsl #6
     a48:	01640000 	cmneq	r4, r0
     a4c:	00010000 	andeq	r0, r1, r0
     a50:	00016453 	andeq	r6, r1, r3, asr r4
     a54:	00016c00 	andeq	r6, r1, r0, lsl #24
     a58:	5c000100 	stfpls	f0, [r0], {-0}
     a5c:	0000016c 	andeq	r0, r0, ip, ror #2
     a60:	000001a0 	andeq	r0, r0, r0, lsr #3
     a64:	01f30004 	mvnseq	r0, r4
     a68:	01a09f53 	asreq	r9, r3, pc
     a6c:	01b00000 	movseq	r0, r0
     a70:	00010000 	andeq	r0, r1, r0
     a74:	0001b053 	andeq	fp, r1, r3, asr r0
     a78:	0001b400 	andeq	fp, r1, r0, lsl #8
     a7c:	5c000100 	stfpls	f0, [r0], {-0}
     a80:	000001b4 			; <UNDEFINED> instruction: 0x000001b4
     a84:	000001d4 	ldrdeq	r0, [r0], -r4
     a88:	01f30004 	mvnseq	r0, r4
     a8c:	01d49f53 	bicseq	r9, r4, r3, asr pc
     a90:	01d70000 	bicseq	r0, r7, r0
     a94:	00010000 	andeq	r0, r1, r0
     a98:	0001d753 	andeq	sp, r1, r3, asr r7
     a9c:	0001f800 	andeq	pc, r1, r0, lsl #16
     aa0:	f3000400 	vshl.u8	d0, d0, d0
     aa4:	009f5301 	addseq	r5, pc, r1, lsl #6
     aa8:	00000000 	andeq	r0, r0, r0
     aac:	80000000 	andhi	r0, r0, r0
     ab0:	9c000000 	stcls	0, cr0, [r0], {-0}
     ab4:	02000000 	andeq	r0, r0, #0
     ab8:	9c009100 	stflsd	f1, [r0], {-0}
     abc:	d7000000 	strle	r0, [r0, -r0]
     ac0:	01000001 	tsteq	r0, r1
     ac4:	01f85200 	mvnseq	r5, r0, lsl #4
     ac8:	01ff0000 	mvnseq	r0, r0
     acc:	00010000 	andeq	r0, r1, r0
     ad0:	00000052 	andeq	r0, r0, r2, asr r0
     ad4:	00000000 	andeq	r0, r0, r0
     ad8:	00009c00 	andeq	r9, r0, r0, lsl #24
     adc:	00010c00 	andeq	r0, r1, r0, lsl #24
     ae0:	91000400 	tstls	r0, r0, lsl #8
     ae4:	0c9f7fa0 	ldceq	15, cr7, [pc], {160}	; 0xa0
     ae8:	18000001 	stmdane	r0, {r0}
     aec:	01000001 	tsteq	r0, r1
     af0:	01185100 	tsteq	r8, r0, lsl #2
     af4:	011c0000 	tsteq	ip, r0
     af8:	00010000 	andeq	r0, r1, r0
     afc:	00011c50 	andeq	r1, r1, r0, asr ip
     b00:	00012000 	andeq	r2, r1, r0
     b04:	51000100 	mrspl	r0, (UNDEF: 16)
     b08:	00000120 	andeq	r0, r0, r0, lsr #2
     b0c:	00000160 	andeq	r0, r0, r0, ror #2
     b10:	60500001 	subsvs	r0, r0, r1
     b14:	64000001 	strvs	r0, [r0], #-1
     b18:	04000001 	streq	r0, [r0], #-1
     b1c:	7fa09100 	svcvc	0x00a09100
     b20:	0001649f 	muleq	r1, pc, r4	; <UNPREDICTABLE>
     b24:	00016c00 	andeq	r6, r1, r0, lsl #24
     b28:	53000100 	movwpl	r0, #256	; 0x100
     b2c:	0000016c 	andeq	r0, r0, ip, ror #2
     b30:	00000170 	andeq	r0, r0, r0, ror r1
     b34:	70500001 	subsvc	r0, r0, r1
     b38:	74000001 	strvc	r0, [r0], #-1
     b3c:	01000001 	tsteq	r0, r1
     b40:	01745300 	cmneq	r4, r0, lsl #6
     b44:	01880000 	orreq	r0, r8, r0
     b48:	00010000 	andeq	r0, r1, r0
     b4c:	00018850 	andeq	r8, r1, r0, asr r8
     b50:	00019400 	andeq	r9, r1, r0, lsl #8
     b54:	70000300 	andvc	r0, r0, r0, lsl #6
     b58:	01949f01 	orrseq	r9, r4, r1, lsl #30
     b5c:	01a00000 	moveq	r0, r0
     b60:	00010000 	andeq	r0, r1, r0
     b64:	0001a050 	andeq	sl, r1, r0, asr r0
     b68:	0001a800 	andeq	sl, r1, r0, lsl #16
     b6c:	91000400 	tstls	r0, r0, lsl #8
     b70:	a89f7fa1 	ldmge	pc, {r0, r5, r7, r8, r9, sl, fp, ip, sp, lr}	; <UNPREDICTABLE>
     b74:	ac000001 	stcge	0, cr0, [r0], {1}
     b78:	01000001 	tsteq	r0, r1
     b7c:	01ac5000 			; <UNDEFINED> instruction: 0x01ac5000
     b80:	01b00000 	movseq	r0, r0
     b84:	00040000 	andeq	r0, r4, r0
     b88:	9f7fa091 	svcls	0x007fa091
     b8c:	000001b0 			; <UNDEFINED> instruction: 0x000001b0
     b90:	000001b8 			; <UNDEFINED> instruction: 0x000001b8
     b94:	b8530001 	ldmdalt	r3, {r0}^
     b98:	d4000001 	strle	r0, [r0], #-1
     b9c:	01000001 	tsteq	r0, r1
     ba0:	01d45000 	bicseq	r5, r4, r0
     ba4:	01f80000 	mvnseq	r0, r0
     ba8:	00040000 	andeq	r0, r4, r0
     bac:	9f7fa091 	svcls	0x007fa091
     bb0:	000001f8 	strdeq	r0, [r0], -r8
     bb4:	000001ff 	strdeq	r0, [r0], -pc	; <UNPREDICTABLE>
     bb8:	00500001 	subseq	r0, r0, r1
     bbc:	00000000 	andeq	r0, r0, r0
     bc0:	a0000000 	andge	r0, r0, r0
     bc4:	ec000000 	stc	0, cr0, [r0], {-0}
     bc8:	01000000 	mrseq	r0, (UNDEF: 0)
     bcc:	00ec5c00 	rsceq	r5, ip, r0, lsl #24
     bd0:	01000000 	mrseq	r0, (UNDEF: 0)
     bd4:	00010000 	andeq	r0, r1, r0
     bd8:	00010053 	andeq	r0, r1, r3, asr r0
     bdc:	00010400 	andeq	r0, r1, r0, lsl #8
     be0:	5c000100 	stfpls	f0, [r0], {-0}
     be4:	00000104 	andeq	r0, r0, r4, lsl #2
     be8:	00000108 	andeq	r0, r0, r8, lsl #2
     bec:	08530001 	ldmdaeq	r3, {r0}^
     bf0:	60000001 	andvs	r0, r0, r1
     bf4:	01000001 	tsteq	r0, r1
     bf8:	01605c00 	cmneq	r0, r0, lsl #24
     bfc:	01640000 	cmneq	r4, r0
     c00:	00010000 	andeq	r0, r1, r0
     c04:	00016453 	andeq	r6, r1, r3, asr r4
     c08:	00018000 	andeq	r8, r1, r0
     c0c:	5c000100 	stfpls	f0, [r0], {-0}
     c10:	00000180 	andeq	r0, r0, r0, lsl #3
     c14:	00000184 	andeq	r0, r0, r4, lsl #3
     c18:	007c0005 	rsbseq	r0, ip, r5
     c1c:	849f2534 	ldrhi	r2, [pc], #1332	; c24 <__code_start__-0x73dc>
     c20:	a0000001 	andge	r0, r0, r1
     c24:	01000001 	tsteq	r0, r1
     c28:	01a05c00 	lsleq	r5, r0, #24
     c2c:	01b00000 	movseq	r0, r0
     c30:	00010000 	andeq	r0, r1, r0
     c34:	0001b053 	andeq	fp, r1, r3, asr r0
     c38:	0001c400 	andeq	ip, r1, r0, lsl #8
     c3c:	5c000100 	stfpls	f0, [r0], {-0}
     c40:	000001c4 	andeq	r0, r0, r4, asr #3
     c44:	000001cc 	andeq	r0, r0, ip, asr #3
     c48:	007c0005 	rsbseq	r0, ip, r5
     c4c:	cc9f2531 	cfldr32gt	mvfx2, [pc], {49}	; 0x31
     c50:	d4000001 	strle	r0, [r0], #-1
     c54:	01000001 	tsteq	r0, r1
     c58:	01d45c00 	bicseq	r5, r4, r0, lsl #24
     c5c:	01d70000 	bicseq	r0, r7, r0
     c60:	00010000 	andeq	r0, r1, r0
     c64:	0001d753 	andeq	sp, r1, r3, asr r7
     c68:	0001f800 	andeq	pc, r1, r0, lsl #16
     c6c:	f3000400 	vshl.u8	d0, d0, d0
     c70:	f89f5301 			; <UNDEFINED> instruction: 0xf89f5301
     c74:	ff000001 			; <UNDEFINED> instruction: 0xff000001
     c78:	01000001 	tsteq	r0, r1
     c7c:	00005c00 	andeq	r5, r0, r0, lsl #24
     c80:	00000000 	andeq	r0, r0, r0
     c84:	00ec0000 	rsceq	r0, ip, r0
     c88:	00fc0000 	rscseq	r0, ip, r0
     c8c:	00020000 	andeq	r0, r2, r0
     c90:	00fc9f30 	rscseq	r9, ip, r0, lsr pc
     c94:	01040000 	mrseq	r0, (UNDEF: 4)
     c98:	00020000 	andeq	r0, r2, r0
     c9c:	01049f31 	tsteq	r4, r1, lsr pc
     ca0:	01080000 	mrseq	r0, (UNDEF: 8)
     ca4:	00020000 	andeq	r0, r2, r0
     ca8:	00009f30 	andeq	r9, r0, r0, lsr pc
     cac:	00000000 	andeq	r0, r0, r0
     cb0:	023c0000 	eorseq	r0, ip, #0
     cb4:	024f0000 	subeq	r0, pc, #0
     cb8:	00010000 	andeq	r0, r1, r0
     cbc:	00024f50 	andeq	r4, r2, r0, asr pc
     cc0:	00027000 	andeq	r7, r2, r0
     cc4:	f3000400 	vshl.u8	d0, d0, d0
     cc8:	709f5001 	addsvc	r5, pc, r1
     ccc:	a4000002 	strge	r0, [r0], #-2
     cd0:	01000002 	tsteq	r0, r2
     cd4:	00005000 	andeq	r5, r0, r0
     cd8:	00000000 	andeq	r0, r0, r0
     cdc:	023c0000 	eorseq	r0, ip, #0
     ce0:	024f0000 	subeq	r0, pc, #0
     ce4:	00010000 	andeq	r0, r1, r0
     ce8:	00024f51 	andeq	r4, r2, r1, asr pc
     cec:	00027000 	andeq	r7, r2, r0
     cf0:	f3000400 	vshl.u8	d0, d0, d0
     cf4:	709f5101 	addsvc	r5, pc, r1, lsl #2
     cf8:	a4000002 	strge	r0, [r0], #-2
     cfc:	01000002 	tsteq	r0, r2
     d00:	00005100 	andeq	r5, r0, r0, lsl #2
     d04:	00000000 	andeq	r0, r0, r0
     d08:	02a40000 	adceq	r0, r4, #0
     d0c:	02d40000 	sbcseq	r0, r4, #0
     d10:	00010000 	andeq	r0, r1, r0
     d14:	0002d450 	andeq	sp, r2, r0, asr r4
     d18:	00055800 	andeq	r5, r5, r0, lsl #16
     d1c:	5b000100 	blpl	1124 <__code_start__-0x6edc>
     d20:	00000558 	andeq	r0, r0, r8, asr r5
     d24:	00000578 	andeq	r0, r0, r8, ror r5
     d28:	01f30004 	mvnseq	r0, r4
     d2c:	00009f50 	andeq	r9, r0, r0, asr pc
     d30:	00000000 	andeq	r0, r0, r0
     d34:	02a40000 	adceq	r0, r4, #0
     d38:	02bc0000 	adcseq	r0, ip, #0
     d3c:	00010000 	andeq	r0, r1, r0
     d40:	0002bc51 	andeq	fp, r2, r1, asr ip
     d44:	0002d400 	andeq	sp, r2, r0, lsl #8
     d48:	71000300 	mrsvc	r0, LR_irq
     d4c:	02d49f01 	sbcseq	r9, r4, #1, 30
     d50:	05780000 	ldrbeq	r0, [r8, #-0]!
     d54:	00040000 	andeq	r0, r4, r0
     d58:	9f5101f3 	svcls	0x005101f3
	...
     d64:	000002a4 	andeq	r0, r0, r4, lsr #5
     d68:	000002d4 	ldrdeq	r0, [r0], -r4
     d6c:	d4520001 	ldrble	r0, [r2], #-1
     d70:	58000002 	stmdapl	r0, {r1}
     d74:	01000005 	tsteq	r0, r5
     d78:	00005600 	andeq	r5, r0, r0, lsl #12
     d7c:	00000000 	andeq	r0, r0, r0
     d80:	02a40000 	adceq	r0, r4, #0
     d84:	02c40000 	sbceq	r0, r4, #0
     d88:	00010000 	andeq	r0, r1, r0
     d8c:	00000053 	andeq	r0, r0, r3, asr r0
     d90:	00000000 	andeq	r0, r0, r0
     d94:	0002b800 	andeq	fp, r2, r0, lsl #16
     d98:	0002d400 	andeq	sp, r2, r0, lsl #8
     d9c:	50000100 	andpl	r0, r0, r0, lsl #2
     da0:	000002d4 	ldrdeq	r0, [r0], -r4
     da4:	000002d8 	ldrdeq	r0, [r0], -r8
     da8:	d8540001 	ldmdale	r4, {r0}^
     dac:	e4000002 	str	r0, [r0], #-2
     db0:	03000002 	movweq	r0, #2
     db4:	9f017400 	svcls	0x00017400
     db8:	000002e4 	andeq	r0, r0, r4, ror #5
     dbc:	000002f0 	strdeq	r0, [r0], -r0	; <UNPREDICTABLE>
     dc0:	f0540001 			; <UNDEFINED> instruction: 0xf0540001
     dc4:	fc000002 	stc2	0, cr0, [r0], {2}
     dc8:	03000002 	movweq	r0, #2
     dcc:	9f017400 	svcls	0x00017400
     dd0:	000002fc 	strdeq	r0, [r0], -ip
     dd4:	0000050c 	andeq	r0, r0, ip, lsl #10
     dd8:	0c540001 	mrrceq	0, 0, r0, r4, cr1
     ddc:	18000005 	stmdane	r0, {r0, r2}
     de0:	03000005 	movweq	r0, #5
     de4:	9f017400 	svcls	0x00017400
     de8:	00000518 	andeq	r0, r0, r8, lsl r5
     dec:	00000544 	andeq	r0, r0, r4, asr #10
     df0:	44540001 	ldrbmi	r0, [r4], #-1
     df4:	50000005 	andpl	r0, r0, r5
     df8:	01000005 	tsteq	r0, r5
     dfc:	05505000 	ldrbeq	r5, [r0, #-0]
     e00:	05580000 	ldrbeq	r0, [r8, #-0]
     e04:	00030000 	andeq	r0, r3, r0
     e08:	009f0174 	addseq	r0, pc, r4, ror r1	; <UNPREDICTABLE>
     e0c:	00000000 	andeq	r0, r0, r0
     e10:	c0000000 	andgt	r0, r0, r0
     e14:	58000002 	stmdapl	r0, {r1}
     e18:	01000005 	tsteq	r0, r5
     e1c:	05585800 	ldrbeq	r5, [r8, #-2048]	; 0x800
     e20:	05780000 	ldrbeq	r0, [r8, #-0]!
     e24:	000a0000 	andeq	r0, sl, r0
     e28:	f35101f3 	vbsl	q8, <illegal reg q8.5>, <illegal reg q9.5>
     e2c:	31225001 	teqcc	r2, r1
     e30:	00009f1c 	andeq	r9, r0, ip, lsl pc
     e34:	00000000 	andeq	r0, r0, r0
     e38:	02c80000 	sbceq	r0, r8, #0
     e3c:	02d40000 	sbcseq	r0, r4, #0
     e40:	00010000 	andeq	r0, r1, r0
     e44:	0002d452 	andeq	sp, r2, r2, asr r4
     e48:	00057800 	andeq	r7, r5, r0, lsl #16
     e4c:	91000300 	mrsls	r0, LR_irq
     e50:	00007ecc 	andeq	r7, r0, ip, asr #29
     e54:	00000000 	andeq	r0, r0, r0
     e58:	04100000 	ldreq	r0, [r0], #-0
     e5c:	04140000 	ldreq	r0, [r4], #-0
     e60:	00010000 	andeq	r0, r1, r0
     e64:	00043850 	andeq	r3, r4, r0, asr r8
     e68:	00043c00 	andeq	r3, r4, r0, lsl #24
     e6c:	50000100 	andpl	r0, r0, r0, lsl #2
     e70:	00000460 	andeq	r0, r0, r0, ror #8
     e74:	00000464 	andeq	r0, r0, r4, ror #8
     e78:	88500001 	ldmdahi	r0, {r0}^
     e7c:	8c000004 	stchi	0, cr0, [r0], {4}
     e80:	01000004 	tsteq	r0, r4
     e84:	04945000 	ldreq	r5, [r4], #0
     e88:	04980000 	ldreq	r0, [r8], #0
     e8c:	00010000 	andeq	r0, r1, r0
     e90:	0004bc50 	andeq	fp, r4, r0, asr ip
     e94:	0004c000 	andeq	ip, r4, r0
     e98:	50000100 	andpl	r0, r0, r0, lsl #2
     e9c:	00000504 	andeq	r0, r0, r4, lsl #10
     ea0:	0000052c 	andeq	r0, r0, ip, lsr #10
     ea4:	00500001 	subseq	r0, r0, r1
     ea8:	00000000 	andeq	r0, r0, r0
     eac:	04000000 	streq	r0, [r0], #-0
     eb0:	0c000003 	stceq	0, cr0, [r0], {3}
     eb4:	02000003 	andeq	r0, r0, #3
     eb8:	0c9f3000 	ldceq	0, cr3, [pc], {0}
     ebc:	10000003 	andne	r0, r0, r3
     ec0:	01000003 	tsteq	r0, r3
     ec4:	031c5700 	tsteq	ip, #0, 14
     ec8:	052c0000 	streq	r0, [ip, #-0]!
     ecc:	00010000 	andeq	r0, r1, r0
     ed0:	00000057 	andeq	r0, r0, r7, asr r0
     ed4:	00000000 	andeq	r0, r0, r0
     ed8:	00000400 	andeq	r0, r0, r0, lsl #8
     edc:	00000800 	andeq	r0, r0, r0, lsl #16
     ee0:	73000700 	movwvc	r0, #1792	; 0x700
     ee4:	10000a00 	andne	r0, r0, r0, lsl #20
     ee8:	00089f21 	andeq	r9, r8, r1, lsr #30
     eec:	00100000 	andseq	r0, r0, r0
     ef0:	00010000 	andeq	r0, r1, r0
     ef4:	00000053 	andeq	r0, r0, r3, asr r0
     ef8:	00000000 	andeq	r0, r0, r0
     efc:	00001400 	andeq	r1, r0, r0, lsl #8
     f00:	00001800 	andeq	r1, r0, r0, lsl #16
     f04:	73000700 	movwvc	r0, #1792	; 0x700
     f08:	efff0b00 	svc	0x00ff0b00
     f0c:	00189f1a 	andseq	r9, r8, sl, lsl pc
     f10:	00200000 	eoreq	r0, r0, r0
     f14:	00010000 	andeq	r0, r1, r0
     f18:	00000053 	andeq	r0, r0, r3, asr r0
     f1c:	00000000 	andeq	r0, r0, r0
     f20:	00001400 	andeq	r1, r0, r0, lsl #8
     f24:	00001c00 	andeq	r1, r0, r0, lsl #24
     f28:	73000300 	movwvc	r0, #768	; 0x300
     f2c:	001c9f04 	andseq	r9, ip, r4, lsl #30
     f30:	00270000 	eoreq	r0, r7, r0
     f34:	00010000 	andeq	r0, r1, r0
     f38:	00000053 	andeq	r0, r0, r3, asr r0
	...
     f44:	00000f00 	andeq	r0, r0, r0, lsl #30
     f48:	50000100 	andpl	r0, r0, r0, lsl #2
     f4c:	0000000f 	andeq	r0, r0, pc
     f50:	00000044 	andeq	r0, r0, r4, asr #32
     f54:	00540001 	subseq	r0, r4, r1
	...
     f60:	0f000000 	svceq	0x00000000
     f64:	01000000 	mrseq	r0, (UNDEF: 0)
     f68:	000f5000 	andeq	r5, pc, r0
     f6c:	00440000 	subeq	r0, r4, r0
     f70:	00010000 	andeq	r0, r1, r0
     f74:	00000054 	andeq	r0, r0, r4, asr r0
	...
     f80:	00000f00 	andeq	r0, r0, r0, lsl #30
     f84:	50000100 	andpl	r0, r0, r0, lsl #2
     f88:	0000000f 	andeq	r0, r0, pc
     f8c:	00000044 	andeq	r0, r0, r4, asr #32
     f90:	00540001 	subseq	r0, r4, r1
     f94:	00000000 	andeq	r0, r0, r0
     f98:	34000000 	strcc	r0, [r0], #-0
     f9c:	40000000 	andmi	r0, r0, r0
     fa0:	02000000 	andeq	r0, r0, #0
     fa4:	409f3000 	addsmi	r3, pc, r0
     fa8:	6c000000 	stcvs	0, cr0, [r0], {-0}
     fac:	01000000 	mrseq	r0, (UNDEF: 0)
     fb0:	00005300 	andeq	r5, r0, r0, lsl #6
     fb4:	00000000 	andeq	r0, r0, r0
     fb8:	9a900000 	bls	fe400fc0 <__bss_end__+0xfe3f6428>
     fbc:	9a940000 	bls	fe500fc4 <__bss_end__+0xfe4f642c>
     fc0:	00020000 	andeq	r0, r2, r0
     fc4:	9a949f30 	bls	fe528c8c <__bss_end__+0xfe51e0f4>
     fc8:	9a980000 	bls	fe600fd0 <__bss_end__+0xfe5f6438>
     fcc:	00010000 	andeq	r0, r1, r0
     fd0:	00000050 	andeq	r0, r0, r0, asr r0
     fd4:	00000000 	andeq	r0, r0, r0
     fd8:	009aa800 	addseq	sl, sl, r0, lsl #16
     fdc:	009aac00 	addseq	sl, sl, r0, lsl #24
     fe0:	30000200 	andcc	r0, r0, r0, lsl #4
     fe4:	009aac9f 	umullseq	sl, sl, pc, ip	; <UNPREDICTABLE>
     fe8:	009ab000 	addseq	fp, sl, r0
     fec:	53000100 	movwpl	r0, #256	; 0x100
     ff0:	00009ab4 			; <UNDEFINED> instruction: 0x00009ab4
     ff4:	00009abc 			; <UNDEFINED> instruction: 0x00009abc
     ff8:	00530001 	subseq	r0, r3, r1
	...
    1004:	04000000 	streq	r0, [r0], #-0
    1008:	01000000 	mrseq	r0, (UNDEF: 0)
    100c:	00045000 	andeq	r5, r4, r0
    1010:	000c0000 	andeq	r0, ip, r0
    1014:	00010000 	andeq	r0, r1, r0
    1018:	00000c53 	andeq	r0, r0, r3, asr ip
    101c:	00001000 	andeq	r1, r0, r0
    1020:	50000100 	andpl	r0, r0, r0, lsl #2
    1024:	00000010 	andeq	r0, r0, r0, lsl r0
    1028:	0000001c 	andeq	r0, r0, ip, lsl r0
    102c:	00530001 	subseq	r0, r3, r1
    1030:	00000000 	andeq	r0, r0, r0
    1034:	40000000 	andmi	r0, r0, r0
    1038:	43000000 	movwmi	r0, #0
    103c:	01000000 	mrseq	r0, (UNDEF: 0)
    1040:	00435000 	subeq	r5, r3, r0
    1044:	004c0000 	subeq	r0, ip, r0
    1048:	00010000 	andeq	r0, r1, r0
    104c:	00000054 	andeq	r0, r0, r4, asr r0
    1050:	00000000 	andeq	r0, r0, r0
    1054:	00004c00 	andeq	r4, r0, r0, lsl #24
    1058:	00005700 	andeq	r5, r0, r0, lsl #14
    105c:	50000100 	andpl	r0, r0, r0, lsl #2
    1060:	00000057 	andeq	r0, r0, r7, asr r0
    1064:	00000070 	andeq	r0, r0, r0, ror r0
    1068:	00550001 	subseq	r0, r5, r1
    106c:	00000000 	andeq	r0, r0, r0
    1070:	60000000 	andvs	r0, r0, r0
    1074:	64000000 	strvs	r0, [r0], #-0
    1078:	01000000 	mrseq	r0, (UNDEF: 0)
    107c:	00005000 	andeq	r5, r0, r0
    1080:	00000000 	andeq	r0, r0, r0
    1084:	00700000 	rsbseq	r0, r0, r0
    1088:	007c0000 	rsbseq	r0, ip, r0
    108c:	00010000 	andeq	r0, r1, r0
    1090:	00007c50 	andeq	r7, r0, r0, asr ip
    1094:	00008400 	andeq	r8, r0, r0, lsl #8
    1098:	f3000400 	vshl.u8	d0, d0, d0
    109c:	009f5001 	addseq	r5, pc, r1
    10a0:	00000000 	andeq	r0, r0, r0
    10a4:	84000000 	strhi	r0, [r0], #-0
    10a8:	90000000 	andls	r0, r0, r0
    10ac:	01000000 	mrseq	r0, (UNDEF: 0)
    10b0:	00905000 	addseq	r5, r0, r0
    10b4:	00980000 	addseq	r0, r8, r0
    10b8:	00040000 	andeq	r0, r4, r0
    10bc:	9f5001f3 	svcls	0x005001f3
	...
    10c8:	00000138 	andeq	r0, r0, r8, lsr r1
    10cc:	00000143 	andeq	r0, r0, r3, asr #2
    10d0:	43500001 	cmpmi	r0, #1
    10d4:	68000001 	stmdavs	r0, {r0}
    10d8:	01000001 	tsteq	r0, r1
    10dc:	00005400 	andeq	r5, r0, r0, lsl #8
	...
    10e8:	000f0000 	andeq	r0, pc, r0
    10ec:	00010000 	andeq	r0, r1, r0
    10f0:	00000f50 	andeq	r0, r0, r0, asr pc
    10f4:	00002000 	andeq	r2, r0, r0
    10f8:	54000100 	strpl	r0, [r0], #-256	; 0x100
	...
    1108:	0000000f 	andeq	r0, r0, pc
    110c:	0f510001 	svceq	0x00510001
    1110:	20000000 	andcs	r0, r0, r0
    1114:	01000000 	mrseq	r0, (UNDEF: 0)
    1118:	00005500 	andeq	r5, r0, r0, lsl #10
    111c:	00000000 	andeq	r0, r0, r0
    1120:	00ec0000 	rsceq	r0, ip, r0
    1124:	01040000 	mrseq	r0, (UNDEF: 4)
    1128:	00010000 	andeq	r0, r1, r0
    112c:	00010450 	andeq	r0, r1, r0, asr r4
    1130:	00011400 	andeq	r1, r1, r0, lsl #8
    1134:	f3000400 	vshl.u8	d0, d0, d0
    1138:	149f5001 	ldrne	r5, [pc], #1	; 1140 <__code_start__-0x6ec0>
    113c:	18000001 	stmdane	r0, {r0}
    1140:	01000001 	tsteq	r0, r1
    1144:	01185000 	tsteq	r8, r0
    1148:	01200000 	teqeq	r0, r0
    114c:	00040000 	andeq	r0, r4, r0
    1150:	9f5001f3 	svcls	0x005001f3
	...
    115c:	000000f8 	strdeq	r0, [r0], -r8
    1160:	00000104 	andeq	r0, r0, r4, lsl #2
    1164:	0070000b 	rsbseq	r0, r0, fp
    1168:	b4232535 	strtlt	r2, [r3], #-1333	; 0x535
    116c:	02818080 	addeq	r8, r1, #128	; 0x80
    1170:	0001049f 	muleq	r1, pc, r4	; <UNPREDICTABLE>
    1174:	00010700 	andeq	r0, r1, r0, lsl #14
    1178:	50000100 	andpl	r0, r0, r0, lsl #2
    117c:	00000107 	andeq	r0, r0, r7, lsl #2
    1180:	00000114 	andeq	r0, r0, r4, lsl r1
    1184:	01f3000c 	mvnseq	r0, ip
    1188:	23253550 	teqcs	r5, #80, 10	; 0x14000000
    118c:	818080b4 	strhhi	r8, [r0, r4]
    1190:	00009f02 	andeq	r9, r0, r2, lsl #30
    1194:	00000000 	andeq	r0, r0, r0
    1198:	00fc0000 	rscseq	r0, ip, r0
    119c:	01140000 	tsteq	r4, r0
    11a0:	00010000 	andeq	r0, r1, r0
    11a4:	00000054 	andeq	r0, r0, r4, asr r0
    11a8:	00000000 	andeq	r0, r0, r0
    11ac:	0000d000 	andeq	sp, r0, r0
    11b0:	0000df00 	andeq	sp, r0, r0, lsl #30
    11b4:	50000100 	andpl	r0, r0, r0, lsl #2
    11b8:	000000df 	ldrdeq	r0, [r0], -pc	; <UNPREDICTABLE>
    11bc:	000000e4 	andeq	r0, r0, r4, ror #1
    11c0:	01f30004 	mvnseq	r0, r4
    11c4:	00e49f50 	rsceq	r9, r4, r0, asr pc
    11c8:	00e70000 	rsceq	r0, r7, r0
    11cc:	00010000 	andeq	r0, r1, r0
    11d0:	0000e750 	andeq	lr, r0, r0, asr r7
    11d4:	0000ec00 	andeq	lr, r0, r0, lsl #24
    11d8:	f3000400 	vshl.u8	d0, d0, d0
    11dc:	009f5001 	addseq	r5, pc, r1
    11e0:	00000000 	andeq	r0, r0, r0
    11e4:	d0000000 	andle	r0, r0, r0
    11e8:	df000000 	svcle	0x00000000
    11ec:	01000000 	mrseq	r0, (UNDEF: 0)
    11f0:	00df5100 	sbcseq	r5, pc, r0, lsl #2
    11f4:	00e40000 	rsceq	r0, r4, r0
    11f8:	00040000 	andeq	r0, r4, r0
    11fc:	9f5101f3 	svcls	0x005101f3
    1200:	000000e4 	andeq	r0, r0, r4, ror #1
    1204:	000000e7 	andeq	r0, r0, r7, ror #1
    1208:	e7510001 	ldrb	r0, [r1, -r1]
    120c:	ec000000 	stc	0, cr0, [r0], {-0}
    1210:	04000000 	streq	r0, [r0], #-0
    1214:	5101f300 	mrspl	pc, SP_irq	; <UNPREDICTABLE>
    1218:	0000009f 	muleq	r0, pc, r0	; <UNPREDICTABLE>
    121c:	00000000 	andeq	r0, r0, r0
    1220:	0000c000 	andeq	ip, r0, r0
    1224:	0000cb00 	andeq	ip, r0, r0, lsl #22
    1228:	50000100 	andpl	r0, r0, r0, lsl #2
    122c:	000000cb 	andeq	r0, r0, fp, asr #1
    1230:	000000d0 	ldrdeq	r0, [r0], -r0	; <UNPREDICTABLE>
    1234:	01f30004 	mvnseq	r0, r4
    1238:	00009f50 	andeq	r9, r0, r0, asr pc
    123c:	00000000 	andeq	r0, r0, r0
    1240:	009c0000 	addseq	r0, ip, r0
    1244:	00b40000 	adcseq	r0, r4, r0
    1248:	00010000 	andeq	r0, r1, r0
    124c:	0000b450 	andeq	fp, r0, r0, asr r4
    1250:	0000c000 	andeq	ip, r0, r0
    1254:	f3000400 	vshl.u8	d0, d0, d0
    1258:	009f5001 	addseq	r5, pc, r1
    125c:	00000000 	andeq	r0, r0, r0
    1260:	78000000 	stmdavc	r0, {}	; <UNPREDICTABLE>
    1264:	90000000 	andls	r0, r0, r0
    1268:	01000000 	mrseq	r0, (UNDEF: 0)
    126c:	00905000 	addseq	r5, r0, r0
    1270:	009c0000 	addseq	r0, ip, r0
    1274:	00040000 	andeq	r0, r4, r0
    1278:	9f5001f3 	svcls	0x005001f3
	...
    1284:	00000068 	andeq	r0, r0, r8, rrx
    1288:	00000073 	andeq	r0, r0, r3, ror r0
    128c:	73500001 	cmpvc	r0, #1
    1290:	78000000 	stmdavc	r0, {}	; <UNPREDICTABLE>
    1294:	04000000 	streq	r0, [r0], #-0
    1298:	5001f300 	andpl	pc, r1, r0, lsl #6
    129c:	0000009f 	muleq	r0, pc, r0	; <UNPREDICTABLE>
	...
    12a8:	00004800 	andeq	r4, r0, r0, lsl #16
    12ac:	50000100 	andpl	r0, r0, r0, lsl #2
    12b0:	00000048 	andeq	r0, r0, r8, asr #32
    12b4:	00000068 	andeq	r0, r0, r8, rrx
    12b8:	01f30004 	mvnseq	r0, r4
    12bc:	00009f50 	andeq	r9, r0, r0, asr pc
	...
    12c8:	004b0000 	subeq	r0, fp, r0
    12cc:	00010000 	andeq	r0, r1, r0
    12d0:	00004b51 	andeq	r4, r0, r1, asr fp
    12d4:	00006800 	andeq	r6, r0, r0, lsl #16
    12d8:	f3000400 	vshl.u8	d0, d0, d0
    12dc:	009f5101 	addseq	r5, pc, r1, lsl #2
    12e0:	00000000 	andeq	r0, r0, r0
    12e4:	4c000000 	stcmi	0, cr0, [r0], {-0}
    12e8:	54000000 	strpl	r0, [r0], #-0
    12ec:	01000000 	mrseq	r0, (UNDEF: 0)
    12f0:	00545000 	subseq	r5, r4, r0
    12f4:	00580000 	subseq	r0, r8, r0
    12f8:	00090000 	andeq	r0, r9, r0
    12fc:	00740075 	rsbseq	r0, r4, r5, ror r0
    1300:	21007124 	tstcs	r0, r4, lsr #2
    1304:	0000589f 	muleq	r0, pc, r8	; <UNPREDICTABLE>
    1308:	00005f00 	andeq	r5, r0, r0, lsl #30
    130c:	51000100 	mrspl	r0, (UNDEF: 16)
	...

Disassembly of section .debug_aranges:

00000000 <.debug_aranges>:
   0:	0000001c 	andeq	r0, r0, ip, lsl r0
   4:	00000002 	andeq	r0, r0, r2
   8:	00040000 	andeq	r0, r4, r0
   c:	00000000 	andeq	r0, r0, r0
  10:	00008020 	andeq	r8, r0, r0, lsr #32
  14:	00000638 	andeq	r0, r0, r8, lsr r6
	...
  20:	0000001c 	andeq	r0, r0, ip, lsl r0
  24:	0d750002 	ldcleq	0, cr0, [r5, #-8]!
  28:	00040000 	andeq	r0, r4, r0
  2c:	00000000 	andeq	r0, r0, r0
  30:	00008658 	andeq	r8, r0, r8, asr r6
  34:	00000378 	andeq	r0, r0, r8, ror r3
	...
  40:	0000001c 	andeq	r0, r0, ip, lsl r0
  44:	19500002 	ldmdbne	r0, {r1}^
  48:	00040000 	andeq	r0, r4, r0
  4c:	00000000 	andeq	r0, r0, r0
  50:	00008b08 	andeq	r8, r0, r8, lsl #22
  54:	00000784 	andeq	r0, r0, r4, lsl #15
	...
  60:	0000001c 	andeq	r0, r0, ip, lsl r0
  64:	28530002 	ldmdacs	r3, {r1}^
  68:	00040000 	andeq	r0, r4, r0
  6c:	00000000 	andeq	r0, r0, r0
  70:	0000928c 	andeq	r9, r0, ip, lsl #5
  74:	00000058 	andeq	r0, r0, r8, asr r0
	...
  80:	0000001c 	andeq	r0, r0, ip, lsl r0
  84:	29e80002 	stmibcs	r8!, {r1}^
  88:	00040000 	andeq	r0, r4, r0
  8c:	00000000 	andeq	r0, r0, r0
  90:	000092e4 	andeq	r9, r0, r4, ror #5
  94:	0000003c 	andeq	r0, r0, ip, lsr r0
	...
  a0:	0000001c 	andeq	r0, r0, ip, lsl r0
  a4:	2aff0002 	bcs	fffc00b4 <__bss_end__+0xfffb551c>
  a8:	00040000 	andeq	r0, r4, r0
  ac:	00000000 	andeq	r0, r0, r0
  b0:	00009320 	andeq	r9, r0, r0, lsr #6
  b4:	00000034 	andeq	r0, r0, r4, lsr r0
	...
  c0:	0000001c 	andeq	r0, r0, ip, lsl r0
  c4:	2bf10002 	blcs	ffc400d4 <__bss_end__+0xffc3553c>
  c8:	00040000 	andeq	r0, r4, r0
  cc:	00000000 	andeq	r0, r0, r0
  d0:	00009354 	andeq	r9, r0, r4, asr r3
  d4:	00000578 	andeq	r0, r0, r8, ror r5
	...
  e0:	0000001c 	andeq	r0, r0, ip, lsl r0
  e4:	32da0002 	sbcscc	r0, sl, #2
  e8:	00040000 	andeq	r0, r4, r0
  ec:	00000000 	andeq	r0, r0, r0
  f0:	000098cc 	andeq	r9, r0, ip, asr #17
  f4:	00000020 	andeq	r0, r0, r0, lsr #32
	...
 100:	0000001c 	andeq	r0, r0, ip, lsl r0
 104:	33960002 	orrscc	r0, r6, #2
 108:	00040000 	andeq	r0, r4, r0
 10c:	00000000 	andeq	r0, r0, r0
 110:	000098ec 	andeq	r9, r0, ip, ror #17
 114:	0000002c 	andeq	r0, r0, ip, lsr #32
	...
 120:	0000001c 	andeq	r0, r0, ip, lsl r0
 124:	34a90002 	strtcc	r0, [r9], #2
 128:	00040000 	andeq	r0, r4, r0
 12c:	00000000 	andeq	r0, r0, r0
 130:	00009918 	andeq	r9, r0, r8, lsl r9
 134:	00000038 	andeq	r0, r0, r8, lsr r0
	...
 140:	0000001c 	andeq	r0, r0, ip, lsl r0
 144:	35bc0002 	ldrcc	r0, [ip, #2]!
 148:	00040000 	andeq	r0, r4, r0
 14c:	00000000 	andeq	r0, r0, r0
 150:	00009950 	andeq	r9, r0, r0, asr r9
 154:	00000044 	andeq	r0, r0, r4, asr #32
	...
 160:	0000001c 	andeq	r0, r0, ip, lsl r0
 164:	36fe0002 	ldrbtcc	r0, [lr], r2
 168:	00040000 	andeq	r0, r4, r0
 16c:	00000000 	andeq	r0, r0, r0
 170:	00009994 	muleq	r0, r4, r9
 174:	00000044 	andeq	r0, r0, r4, asr #32
	...
 180:	0000001c 	andeq	r0, r0, ip, lsl r0
 184:	38400002 	stmdacc	r0, {r1}^
 188:	00040000 	andeq	r0, r4, r0
 18c:	00000000 	andeq	r0, r0, r0
 190:	000099d8 	ldrdeq	r9, [r0], -r8
 194:	00000044 	andeq	r0, r0, r4, asr #32
	...
 1a0:	0000001c 	andeq	r0, r0, ip, lsl r0
 1a4:	39820002 	stmibcc	r2, {r1}
 1a8:	00040000 	andeq	r0, r4, r0
 1ac:	00000000 	andeq	r0, r0, r0
 1b0:	00009a1c 	andeq	r9, r0, ip, lsl sl
 1b4:	00000008 	andeq	r0, r0, r8
	...
 1c0:	0000001c 	andeq	r0, r0, ip, lsl r0
 1c4:	3a1e0002 	bcc	7801d4 <__bss_end__+0x77563c>
 1c8:	00040000 	andeq	r0, r4, r0
 1cc:	00000000 	andeq	r0, r0, r0
 1d0:	00009a24 	andeq	r9, r0, r4, lsr #20
 1d4:	0000006c 	andeq	r0, r0, ip, rrx
	...
 1e0:	0000001c 	andeq	r0, r0, ip, lsl r0
 1e4:	3bf90002 	blcc	ffe401f4 <__bss_end__+0xffe3565c>
 1e8:	00040000 	andeq	r0, r4, r0
 1ec:	00000000 	andeq	r0, r0, r0
 1f0:	00009a90 	muleq	r0, r0, sl
 1f4:	00000074 	andeq	r0, r0, r4, ror r0
	...
 200:	0000001c 	andeq	r0, r0, ip, lsl r0
 204:	3daa0002 	stccc	0, cr0, [sl, #8]!
 208:	00040000 	andeq	r0, r4, r0
 20c:	00000000 	andeq	r0, r0, r0
 210:	00009b04 	andeq	r9, r0, r4, lsl #22
 214:	00000098 	muleq	r0, r8, r0
	...
 220:	0000001c 	andeq	r0, r0, ip, lsl r0
 224:	3fa50002 	svccc	0x00a50002
 228:	00040000 	andeq	r0, r4, r0
 22c:	00000000 	andeq	r0, r0, r0
 230:	00009c00 	andeq	r9, r0, r0, lsl #24
 234:	00000178 	andeq	r0, r0, r8, ror r1
	...
 240:	0000001c 	andeq	r0, r0, ip, lsl r0
 244:	4c6e0002 	stclmi	0, cr0, [lr], #-8
 248:	00040000 	andeq	r0, r4, r0
 24c:	00000000 	andeq	r0, r0, r0
 250:	00009d78 	andeq	r9, r0, r8, ror sp
 254:	00000120 	andeq	r0, r0, r0, lsr #2
	...

Disassembly of section .debug_ranges:

00000000 <.debug_ranges>:
   0:	0000049c 	muleq	r0, ip, r4
   4:	00000578 	andeq	r0, r0, r8, ror r5
   8:	0000057c 	andeq	r0, r0, ip, ror r5
   c:	0000058c 	andeq	r0, r0, ip, lsl #11
	...
  18:	0000049c 	muleq	r0, ip, r4
  1c:	000004a0 	andeq	r0, r0, r0, lsr #9
  20:	0000057c 	andeq	r0, r0, ip, ror r5
  24:	00000584 	andeq	r0, r0, r4, lsl #11
	...
  30:	00009a90 	muleq	r0, r0, sl
  34:	00009b04 	andeq	r9, r0, r4, lsl #22
	...

Disassembly of section .debug_line:

00000000 <.debug_line>:
       0:	0000026f 	andeq	r0, r0, pc, ror #4
       4:	01550002 	cmpeq	r5, r2
       8:	01020000 	mrseq	r0, (UNDEF: 2)
       c:	000d0efb 	strdeq	r0, [sp], -fp
      10:	01010101 	tsteq	r1, r1, lsl #2
      14:	01000000 	mrseq	r0, (UNDEF: 0)
      18:	2e010000 	cdpcs	0, 0, cr0, cr1, cr0, {0}
      1c:	73657400 	cmnvc	r5, #0, 8
      20:	2e327374 	mrccs	3, 1, r7, cr2, cr4, {3}
      24:	552f0030 	strpl	r0, [pc, #-48]!	; fffffffc <__bss_end__+0xffff5464>
      28:	73726573 	cmnvc	r2, #482344960	; 0x1cc00000
      2c:	6972622f 	ldmdbvs	r2!, {r0, r1, r2, r3, r5, r9, sp, lr}^
      30:	756a6e61 	strbvc	r6, [sl, #-3681]!	; 0xe61
      34:	65442f6e 	strbvs	r2, [r4, #-3950]	; 0xf6e
      38:	6f746b73 	svcvs	0x00746b73
      3c:	63732f70 	cmnvs	r3, #112, 30	; 0x1c0
      40:	6c6f6f68 	stclvs	15, cr6, [pc], #-416	; fffffea8 <__bss_end__+0xffff5310>
      44:	7270532f 	rsbsvc	r5, r0, #-1140850688	; 0xbc000000
      48:	31676e69 	cmncc	r7, r9, ror #28
      4c:	2f303239 	svccs	0x00303239
      50:	34325343 	ldrtcc	r5, [r2], #-835	; 0x343
      54:	2f584c30 	svccs	0x00584c30
      58:	34327363 	ldrtcc	r7, [r2], #-867	; 0x363
      5c:	2d786c30 	ldclcs	12, cr6, [r8, #-192]!	; 0xffffff40
      60:	70733032 	rsbsvc	r3, r3, r2, lsr r0
      64:	696c2f72 	stmdbvs	ip!, {r1, r4, r5, r6, r8, r9, sl, fp, sp}^
      68:	2f697062 	svccs	0x00697062
      6c:	6c636e69 	stclvs	14, cr6, [r3], #-420	; 0xfffffe5c
      70:	00656475 	rsbeq	r6, r5, r5, ror r4
      74:	7273752f 	rsbsvc	r7, r3, #197132288	; 0xbc00000
      78:	636f6c2f 	cmnvs	pc, #12032	; 0x2f00
      7c:	432f6c61 	teqmi	pc, #24832	; 0x6100
      80:	616c6c65 	cmnvs	ip, r5, ror #24
      84:	72612f72 	rsbvc	r2, r1, #456	; 0x1c8
      88:	6f6e2d6d 	svcvs	0x006e2d6d
      8c:	652d656e 	strvs	r6, [sp, #-1390]!	; 0x56e
      90:	2f696261 	svccs	0x00696261
      94:	2e382e34 	mrccs	14, 1, r2, cr8, cr4, {1}
      98:	73632d33 	cmnvc	r3, #3264	; 0xcc0
      9c:	65303731 	ldrvs	r3, [r0, #-1841]!	; 0x731
      a0:	62696c2f 	rsbvs	r6, r9, #12032	; 0x2f00
      a4:	6363672f 	cmnvs	r3, #12320768	; 0xbc0000
      a8:	6d72612f 	ldfvse	f6, [r2, #-188]!	; 0xffffff44
      ac:	6e6f6e2d 	cdpvs	14, 6, cr6, cr15, cr13, {1}
      b0:	61652d65 	cmnvs	r5, r5, ror #26
      b4:	342f6962 	strtcc	r6, [pc], #-2402	; bc <__code_start__-0x7f44>
      b8:	332e382e 	teqcc	lr, #3014656	; 0x2e0000
      bc:	636e692f 	cmnvs	lr, #770048	; 0xbc000
      c0:	6564756c 	strbvs	r7, [r4, #-1388]!	; 0x56c
      c4:	70630000 	rsbvc	r0, r3, r0
      c8:	752d7273 	strvc	r7, [sp, #-627]!	; 0x273
      cc:	2e6c6974 	mcrcs	9, 3, r6, cr12, cr4, {3}
      d0:	00010068 	andeq	r0, r1, r8, rrx
      d4:	74696200 	strbtvc	r6, [r9], #-512	; 0x200
      d8:	7075732d 	rsbsvc	r7, r5, sp, lsr #6
      dc:	74726f70 	ldrbtvc	r6, [r2], #-3952	; 0xf70
      e0:	0100682e 	tsteq	r0, lr, lsr #16
      e4:	36310000 	ldrtcc	r0, [r1], -r0
      e8:	7261702d 	rsbvc	r7, r1, #45	; 0x2d
      ec:	742d3274 	strtvc	r3, [sp], #-628	; 0x274
      f0:	39747365 	ldmdbcc	r4!, {r0, r2, r5, r6, r8, r9, ip, sp, lr}^
      f4:	0200632e 	andeq	r6, r0, #-1207959552	; 0xb8000000
      f8:	69700000 	ldmdbvs	r0!, {}^	; <UNPREDICTABLE>
      fc:	7379732d 	cmnvc	r9, #-1275068416	; 0xb4000000
     100:	636f6c2d 	cmnvs	pc, #11520	; 0x2d00
     104:	00682e6b 	rsbeq	r2, r8, fp, ror #28
     108:	72000001 	andvc	r0, r0, #1
     10c:	692d6970 	pushvs	{r4, r5, r6, r8, fp, sp, lr}
     110:	7265746e 	rsbvc	r7, r5, #1845493760	; 0x6e000000
     114:	74707572 	ldrbtvc	r7, [r0], #-1394	; 0x572
     118:	00682e73 	rsbeq	r2, r8, r3, ror lr
     11c:	63000003 	movwvs	r0, #3
     120:	6b636568 	blvs	18d96c8 <__bss_end__+0x18ceb30>
     124:	746e692d 	strbtvc	r6, [lr], #-2349	; 0x92d
     128:	656c7265 	strbvs	r7, [ip, #-613]!	; 0x265
     12c:	2e657661 	cdpcs	6, 6, cr7, cr5, cr1, {3}
     130:	00010068 	andeq	r0, r1, r8, rrx
     134:	64747300 	ldrbtvs	r7, [r4], #-768	; 0x300
     138:	2d746e69 	ldclcs	14, cr6, [r4, #-420]!	; 0xfffffe5c
     13c:	2e636367 	cdpcs	3, 6, cr6, cr3, cr7, {3}
     140:	00040068 	andeq	r0, r4, r8, rrx
     144:	69707200 	ldmdbvs	r0!, {r9, ip, sp, lr}^
     148:	0300682e 	movweq	r6, #2094	; 0x82e
     14c:	70630000 	rsbvc	r0, r3, r0
     150:	642d3431 	strtvs	r3, [sp], #-1073	; 0x431
     154:	67756265 	ldrbvs	r6, [r5, -r5, ror #4]!
     158:	0100682e 	tsteq	r0, lr, lsr #16
     15c:	00000000 	andeq	r0, r0, r0
     160:	80200205 	eorhi	r0, r0, r5, lsl #4
     164:	0e030000 	cdpeq	0, 0, cr0, cr3, cr0, {0}
     168:	03020401 	movweq	r0, #9217	; 0x2401
     16c:	01044a11 	tsteq	r4, r1, lsl sl
     170:	652e6c03 	strvs	r6, [lr, #-3075]!	; 0xc03
     174:	00250867 	eoreq	r0, r5, r7, ror #16
     178:	06010402 	streq	r0, [r1], -r2, lsl #8
     17c:	2208064a 	andcs	r0, r8, #77594624	; 0x4a00000
     180:	78030304 	stmdavc	r3, {r2, r8, r9}
     184:	680404ba 	stmdavs	r4, {r1, r3, r4, r5, r7, sl}
     188:	4b490304 	blmi	1240da0 <__bss_end__+0x1236208>
     18c:	030404d7 	movweq	r0, #17623	; 0x44d7
     190:	9108820a 	tstls	r8, sl, lsl #4
     194:	77030304 	strvc	r0, [r3, -r4, lsl #6]
     198:	03050466 	movweq	r0, #21606	; 0x5466
     19c:	02046618 	andeq	r6, r4, #24, 12	; 0x1800000
     1a0:	042e7803 	strteq	r7, [lr], #-2051	; 0x803
     1a4:	2e6c0301 	cdpcs	3, 6, cr0, cr12, cr1, {0}
     1a8:	25086765 	strcs	r6, [r8, #-1893]	; 0x765
     1ac:	57080304 	strpl	r0, [r8, -r4, lsl #6]
     1b0:	04040200 	streq	r0, [r4], #-512	; 0x200
     1b4:	0200d606 	andeq	sp, r0, #6291456	; 0x600000
     1b8:	064a0104 	strbeq	r0, [sl], -r4, lsl #2
     1bc:	cb082108 	blgt	2085e4 <__bss_end__+0x1fda4c>
     1c0:	79030404 	stmdbvc	r3, {r2, sl}
     1c4:	5203044a 	andpl	r0, r3, #1241513984	; 0x4a000000
     1c8:	8304044c 	movwhi	r0, #17484	; 0x444c
     1cc:	03049108 	movweq	r9, #16648	; 0x4108
     1d0:	0413f467 	ldreq	pc, [r3], #-1127	; 0x467
     1d4:	666a0304 	strbtvs	r0, [sl], -r4, lsl #6
     1d8:	19030304 	stmdbne	r3, {r2, r8, r9}
     1dc:	02004b9e 	andeq	r4, r0, #161792	; 0x27800
     1e0:	82060104 	andhi	r0, r6, #4, 2
     1e4:	4b210806 	blmi	842204 <__bss_end__+0x83766c>
     1e8:	02133e08 	andseq	r3, r3, #8, 28	; 0x80
     1ec:	4ca0192e 	stcmi	9, cr1, [r0], #184	; 0xb8
     1f0:	03050431 	movweq	r0, #21553	; 0x5431
     1f4:	01042e74 	tsteq	r4, r4, ror lr
     1f8:	022e7103 	eoreq	r7, lr, #-1073741824	; 0xc0000000
     1fc:	4b4b152c 	blmi	12c56b4 <__bss_end__+0x12bab1c>
     200:	034b4b4b 	movteq	r4, #47947	; 0xbb4b
     204:	044bf279 	strbeq	pc, [fp], #-633	; 0x279	; <UNPREDICTABLE>
     208:	2e1a0303 	cdpcs	3, 1, cr0, cr10, cr3, {0}
     20c:	52030404 	andpl	r0, r3, #4, 8	; 0x4000000
     210:	03046c4a 	movweq	r6, #19530	; 0x4c4a
     214:	002e2b03 	eoreq	r2, lr, r3, lsl #22
     218:	06010402 	streq	r0, [r1], -r2, lsl #8
     21c:	0604044a 	streq	r0, [r4], -sl, asr #8
     220:	20084f03 	andcs	r4, r8, r3, lsl #30
     224:	03030434 	movweq	r0, #13364	; 0x3434
     228:	02004a2e 	andeq	r4, r0, #188416	; 0x2e000
     22c:	4a060104 	bmi	180644 <__bss_end__+0x175aac>
     230:	03060404 	movweq	r0, #25604	; 0x6404
     234:	04200852 	strteq	r0, [r0], #-2130	; 0x852
     238:	4a2f0303 	bmi	bc0e4c <__bss_end__+0xbb62b4>
     23c:	01040200 	mrseq	r0, R12_usr
     240:	04044a06 	streq	r4, [r4], #-2566	; 0xa06
     244:	085c0306 	ldmdaeq	ip, {r1, r2, r8, r9}^
     248:	03750820 	cmneq	r5, #32, 16	; 0x200000
     24c:	03042e74 	movweq	r2, #20084	; 0x4e74
     250:	004a3103 	subeq	r3, sl, r3, lsl #2
     254:	06010402 	streq	r0, [r1], -r2, lsl #8
     258:	1b08064a 	blne	201b88 <__bss_end__+0x1f6ff0>
     25c:	4e030404 	cdpmi	4, 0, cr0, cr3, cr4, {0}
     260:	00030466 	andeq	r0, r3, r6, ror #8
     264:	03010402 	movweq	r0, #5122	; 0x1402
     268:	4c524a32 	vmovmi	r4, r2, s5, s6
     26c:	3c02d883 	stccc	8, cr13, [r2], {131}	; 0x83
     270:	f4010100 	vst4.8	{d0,d2,d4,d6}, [r1], r0
     274:	02000001 	andeq	r0, r0, #1
     278:	0000ff00 	andeq	pc, r0, r0, lsl #30
     27c:	fb010200 	blx	40a86 <__bss_end__+0x35eee>
     280:	01000d0e 	tsteq	r0, lr, lsl #26
     284:	00010101 	andeq	r0, r1, r1, lsl #2
     288:	00010000 	andeq	r0, r1, r0
     28c:	752f0100 	strvc	r0, [pc, #-256]!	; 194 <__code_start__-0x7e6c>
     290:	6c2f7273 	sfmvs	f7, 4, [pc], #-460	; cc <__code_start__-0x7f34>
     294:	6c61636f 	stclvs	3, cr6, [r1], #-444	; 0xfffffe44
     298:	6c65432f 	stclvs	3, cr4, [r5], #-188	; 0xffffff44
     29c:	2f72616c 	svccs	0x0072616c
     2a0:	2d6d7261 	sfmcs	f7, 2, [sp, #-388]!	; 0xfffffe7c
     2a4:	656e6f6e 	strbvs	r6, [lr, #-3950]!	; 0xf6e
     2a8:	6261652d 	rsbvs	r6, r1, #188743680	; 0xb400000
     2ac:	2e342f69 	cdpcs	15, 3, cr2, cr4, cr9, {3}
     2b0:	2d332e38 	ldccs	14, cr2, [r3, #-224]!	; 0xffffff20
     2b4:	37317363 	ldrcc	r7, [r1, -r3, ror #6]!
     2b8:	6c2f6530 	cfstr32vs	mvfx6, [pc], #-192	; 200 <__code_start__-0x7e00>
     2bc:	672f6269 	strvs	r6, [pc, -r9, ror #4]!
     2c0:	612f6363 	teqvs	pc, r3, ror #6
     2c4:	6e2d6d72 	mcrvs	13, 1, r6, cr13, cr2, {3}
     2c8:	2d656e6f 	stclcs	14, cr6, [r5, #-444]!	; 0xfffffe44
     2cc:	69626165 	stmdbvs	r2!, {r0, r2, r5, r6, r8, sp, lr}^
     2d0:	382e342f 	stmdacc	lr!, {r0, r1, r2, r3, r5, sl, ip, sp}
     2d4:	692f332e 	stmdbvs	pc!, {r1, r2, r3, r5, r8, r9, ip, sp}	; <UNPREDICTABLE>
     2d8:	756c636e 	strbvc	r6, [ip, #-878]!	; 0x36e
     2dc:	2f006564 	svccs	0x00006564
     2e0:	72657355 	rsbvc	r7, r5, #1409286145	; 0x54000001
     2e4:	72622f73 	rsbvc	r2, r2, #460	; 0x1cc
     2e8:	6a6e6169 	bvs	1b98894 <__bss_end__+0x1b8dcfc>
     2ec:	442f6e75 	strtmi	r6, [pc], #-3701	; 2f4 <__code_start__-0x7d0c>
     2f0:	746b7365 	strbtvc	r7, [fp], #-869	; 0x365
     2f4:	732f706f 	teqvc	pc, #111	; 0x6f
     2f8:	6f6f6863 	svcvs	0x006f6863
     2fc:	70532f6c 	subsvc	r2, r3, ip, ror #30
     300:	676e6972 			; <UNDEFINED> instruction: 0x676e6972
     304:	30323931 	eorscc	r3, r2, r1, lsr r9
     308:	3253432f 	subscc	r4, r3, #-1140850688	; 0xbc000000
     30c:	584c3034 	stmdapl	ip, {r2, r4, r5, ip, sp}^
     310:	3273632f 	rsbscc	r6, r3, #-1140850688	; 0xbc000000
     314:	786c3034 	stmdavc	ip!, {r2, r4, r5, ip, sp}^
     318:	7330322d 	teqvc	r0, #-805306366	; 0xd0000002
     31c:	6c2f7270 	sfmvs	f7, 4, [pc], #-448	; 164 <__code_start__-0x7e9c>
     320:	69706269 	ldmdbvs	r0!, {r0, r3, r5, r6, r9, sp, lr}^
     324:	636e692f 	cmnvs	lr, #770048	; 0xbc000
     328:	6564756c 	strbvs	r7, [r4, #-1388]!	; 0x56c
     32c:	70630000 	rsbvc	r0, r3, r0
     330:	642d3431 	strtvs	r3, [sp], #-1073	; 0x431
     334:	67756265 	ldrbvs	r6, [r5, -r5, ror #4]!
     338:	0000632e 	andeq	r6, r0, lr, lsr #6
     33c:	70630000 	rsbvc	r0, r3, r0
     340:	642d3431 	strtvs	r3, [sp], #-1073	; 0x431
     344:	67756265 	ldrbvs	r6, [r5, -r5, ror #4]!
     348:	0000682e 	andeq	r6, r0, lr, lsr #16
     34c:	74730000 	ldrbtvc	r0, [r3], #-0
     350:	746e6964 	strbtvc	r6, [lr], #-2404	; 0x964
     354:	6363672d 	cmnvs	r3, #11796480	; 0xb40000
     358:	0100682e 	tsteq	r0, lr, lsr #16
     35c:	70720000 	rsbsvc	r0, r2, r0
     360:	00682e69 	rsbeq	r2, r8, r9, ror #28
     364:	72000002 	andvc	r0, r0, #2
     368:	692d6970 	pushvs	{r4, r5, r6, r8, fp, sp, lr}
     36c:	7265746e 	rsbvc	r7, r5, #1845493760	; 0x6e000000
     370:	74707572 	ldrbtvc	r7, [r0], #-1394	; 0x572
     374:	00682e73 	rsbeq	r2, r8, r3, ror lr
     378:	00000002 	andeq	r0, r0, r2
     37c:	58020500 	stmdapl	r2, {r8, sl}
     380:	03000086 	movweq	r0, #134	; 0x86
     384:	62030135 	andvs	r0, r3, #1073741837	; 0x4000000d
     388:	2e24034a 	cdpcs	3, 2, cr0, cr4, cr10, {2}
     38c:	032e6203 	teqeq	lr, #805306368	; 0x30000000
     390:	29032e7a 	stmdbcs	r3, {r1, r3, r4, r5, r6, r9, sl, fp, sp}
     394:	0402002e 	streq	r0, [r2], #-46	; 0x2e
     398:	064a0601 	strbeq	r0, [sl], -r1, lsl #12
     39c:	20086503 	andcs	r6, r8, r3, lsl #10
     3a0:	032e7803 	teqeq	lr, #196608	; 0x30000
     3a4:	3a034a7a 	bcc	d2d94 <__bss_end__+0xc81fc>
     3a8:	0402002e 	streq	r0, [r2], #-46	; 0x2e
     3ac:	064a0601 	strbeq	r0, [sl], -r1, lsl #12
     3b0:	087fbb03 	ldmdaeq	pc!, {r0, r1, r8, r9, fp, ip, sp, pc}^	; <UNPREDICTABLE>
     3b4:	00c80320 	sbceq	r0, r8, r0, lsr #6
     3b8:	04f54b4a 	ldrbteq	r4, [r5], #2890	; 0xb4a
     3bc:	13036c02 	movwne	r6, #15362	; 0x3c02
     3c0:	034b344a 	movteq	r3, #46154	; 0xb44a
     3c4:	0104d65d 	tsteq	r4, sp, asr r6
     3c8:	002e1103 	eoreq	r1, lr, r3, lsl #2
     3cc:	06010402 	streq	r0, [r1], -r2, lsl #8
     3d0:	22080666 	andcs	r0, r8, #106954752	; 0x6600000
     3d4:	01040200 	mrseq	r0, R12_usr
     3d8:	02048206 	andeq	r8, r4, #1610612736	; 0x60000000
     3dc:	087a0306 	ldmdaeq	sl!, {r1, r2, r8, r9}^
     3e0:	03010420 	movweq	r0, #5152	; 0x1420
     3e4:	084b2e0c 	stmdaeq	fp, {r2, r3, r9, sl, fp, sp}^
     3e8:	2f83315a 	svccs	0x0083315a
     3ec:	667fbb03 	ldrbtvs	fp, [pc], -r3, lsl #22
     3f0:	034a5b03 	movteq	r5, #43779	; 0xab03
     3f4:	0382019b 	orreq	r0, r2, #-1073741786	; 0xc0000026
     3f8:	1f030165 	svcne	0x00030165
     3fc:	2e62032e 	cdpcs	3, 6, cr0, cr2, cr14, {1}
     400:	ff03302c 			; <UNDEFINED> instruction: 0xff03302c
     404:	b3034a7e 	movwlt	r4, #14974	; 0x3a7e
     408:	04a24a01 	strteq	r4, [r2], #2561	; 0xa01
     40c:	66620302 	strbtvs	r0, [r2], -r2, lsl #6
     410:	03010433 	movweq	r0, #5171	; 0x1433
     414:	d74b2e1b 	smlaldle	r2, fp, fp, lr
     418:	01040200 	mrseq	r0, R12_usr
     41c:	02048206 	andeq	r8, r4, #1610612736	; 0x60000000
     420:	084f0306 	stmdaeq	pc, {r1, r2, r8, r9}^	; <UNPREDICTABLE>
     424:	03010420 	movweq	r0, #5152	; 0x1420
     428:	f44b2e33 			; <UNDEFINED> instruction: 0xf44b2e33
     42c:	012e0b03 	teqeq	lr, r3, lsl #22
     430:	033f082f 	teqeq	pc, #3080192	; 0x2f0000
     434:	03017fb1 	movweq	r7, #8113	; 0x1fb1
     438:	032e00d3 	teqeq	lr, #211	; 0xd3
     43c:	2c2e7fae 	stccs	15, cr7, [lr], #-696	; 0xfffffd48
     440:	7eff0330 	mrcvc	3, 7, r0, cr15, cr0, {1}
     444:	01e7034a 	mvneq	r0, sl, asr #6
     448:	9603a24a 	strls	sl, [r3], -sl, asr #4
     44c:	fb03017f 	blx	c0a52 <__bss_end__+0xb5eba>
     450:	4b318200 	blmi	c60c58 <__bss_end__+0xc560c0>
     454:	2e10034b 	cdpcs	3, 1, cr0, cr0, cr11, {2}
     458:	4c4a7103 	stfmie	f7, [sl], {3}
     45c:	4e324b67 	vsubmi.f64	d4, d2, d23
     460:	4a770369 	bmi	1dc120c <__bss_end__+0x1db6674>
     464:	0402354d 	streq	r3, [r2], #-1357	; 0x54d
     468:	67010100 	strvs	r0, [r1, -r0, lsl #2]
     46c:	02000002 	andeq	r0, r0, #2
     470:	00013b00 	andeq	r3, r1, r0, lsl #22
     474:	fb010200 	blx	40c7e <__bss_end__+0x360e6>
     478:	01000d0e 	tsteq	r0, lr, lsl #26
     47c:	00010101 	andeq	r0, r1, r1, lsl #2
     480:	00010000 	andeq	r0, r1, r0
     484:	552f0100 	strpl	r0, [pc, #-256]!	; 38c <__code_start__-0x7c74>
     488:	73726573 	cmnvc	r2, #482344960	; 0x1cc00000
     48c:	6972622f 	ldmdbvs	r2!, {r0, r1, r2, r3, r5, r9, sp, lr}^
     490:	756a6e61 	strbvc	r6, [sl, #-3681]!	; 0xe61
     494:	65442f6e 	strbvs	r2, [r4, #-3950]	; 0xf6e
     498:	6f746b73 	svcvs	0x00746b73
     49c:	63732f70 	cmnvs	r3, #112, 30	; 0x1c0
     4a0:	6c6f6f68 	stclvs	15, cr6, [pc], #-416	; 308 <__code_start__-0x7cf8>
     4a4:	7270532f 	rsbsvc	r5, r0, #-1140850688	; 0xbc000000
     4a8:	31676e69 	cmncc	r7, r9, ror #28
     4ac:	2f303239 	svccs	0x00303239
     4b0:	34325343 	ldrtcc	r5, [r2], #-835	; 0x343
     4b4:	2f584c30 	svccs	0x00584c30
     4b8:	34327363 	ldrtcc	r7, [r2], #-867	; 0x363
     4bc:	2d786c30 	ldclcs	12, cr6, [r8, #-192]!	; 0xffffff40
     4c0:	70733032 	rsbsvc	r3, r3, r2, lsr r0
     4c4:	696c2f72 	stmdbvs	ip!, {r1, r4, r5, r6, r8, r9, sl, fp, sp}^
     4c8:	2f697062 	svccs	0x00697062
     4cc:	6c636e69 	stclvs	14, cr6, [r3], #-420	; 0xfffffe5c
     4d0:	00656475 	rsbeq	r6, r5, r5, ror r4
     4d4:	7273752f 	rsbsvc	r7, r3, #197132288	; 0xbc00000
     4d8:	636f6c2f 	cmnvs	pc, #12032	; 0x2f00
     4dc:	432f6c61 	teqmi	pc, #24832	; 0x6100
     4e0:	616c6c65 	cmnvs	ip, r5, ror #24
     4e4:	72612f72 	rsbvc	r2, r1, #456	; 0x1c8
     4e8:	6f6e2d6d 	svcvs	0x006e2d6d
     4ec:	652d656e 	strvs	r6, [sp, #-1390]!	; 0x56e
     4f0:	2f696261 	svccs	0x00696261
     4f4:	2e382e34 	mrccs	14, 1, r2, cr8, cr4, {1}
     4f8:	73632d33 	cmnvc	r3, #3264	; 0xcc0
     4fc:	65303731 	ldrvs	r3, [r0, #-1841]!	; 0x731
     500:	62696c2f 	rsbvs	r6, r9, #12032	; 0x2f00
     504:	6363672f 	cmnvs	r3, #12320768	; 0xbc0000
     508:	6d72612f 	ldfvse	f6, [r2, #-188]!	; 0xffffff44
     50c:	6e6f6e2d 	cdpvs	14, 6, cr6, cr15, cr13, {1}
     510:	61652d65 	cmnvs	r5, r5, ror #26
     514:	342f6962 	strtcc	r6, [pc], #-2402	; 51c <__code_start__-0x7ae4>
     518:	332e382e 	teqcc	lr, #3014656	; 0x2e0000
     51c:	636e692f 	cmnvs	lr, #770048	; 0xbc000
     520:	6564756c 	strbvs	r7, [r4, #-1388]!	; 0x56c
     524:	68630000 	stmdavs	r3!, {}^	; <UNPREDICTABLE>
     528:	2d6b6365 	stclcs	3, cr6, [fp, #-404]!	; 0xfffffe6c
     52c:	65746e69 	ldrbvs	r6, [r4, #-3689]!	; 0xe69
     530:	61656c72 	smcvs	22210	; 0x56c2
     534:	632e6576 	teqvs	lr, #494927872	; 0x1d800000
     538:	00000000 	andeq	r0, r0, r0
     53c:	34317063 	ldrtcc	r7, [r1], #-99	; 0x63
     540:	6265642d 	rsbvs	r6, r5, #754974720	; 0x2d000000
     544:	682e6775 	stmdavs	lr!, {r0, r2, r4, r5, r6, r8, r9, sl, sp, lr}
     548:	00000000 	andeq	r0, r0, r0
     54c:	2d697072 	stclcs	0, cr7, [r9, #-456]!	; 0xfffffe38
     550:	65746e69 	ldrbvs	r6, [r4, #-3689]!	; 0xe69
     554:	70757272 	rsbsvc	r7, r5, r2, ror r2
     558:	682e7374 	stmdavs	lr!, {r2, r4, r5, r6, r8, r9, ip, sp, lr}
     55c:	00000100 	andeq	r0, r0, r0, lsl #2
     560:	2d746962 	ldclcs	9, cr6, [r4, #-392]!	; 0xfffffe78
     564:	70707573 	rsbsvc	r7, r0, r3, ror r5
     568:	2e74726f 	cdpcs	2, 7, cr7, cr4, cr15, {3}
     56c:	00000068 	andeq	r0, r0, r8, rrx
     570:	73706300 	cmnvc	r0, #0, 6
     574:	74752d72 	ldrbtvc	r2, [r5], #-3442	; 0xd72
     578:	682e6c69 	stmdavs	lr!, {r0, r3, r5, r6, sl, fp, sp, lr}
     57c:	00000000 	andeq	r0, r0, r0
     580:	69647473 	stmdbvs	r4!, {r0, r1, r4, r5, r6, sl, ip, sp, lr}^
     584:	672d746e 	strvs	r7, [sp, -lr, ror #8]!
     588:	682e6363 	stmdavs	lr!, {r0, r1, r5, r6, r8, r9, sp, lr}
     58c:	00000200 	andeq	r0, r0, r0, lsl #4
     590:	63656863 	cmnvs	r5, #6488064	; 0x630000
     594:	6e692d6b 	cdpvs	13, 6, cr2, cr9, cr11, {3}
     598:	6c726574 	cfldr64vs	mvdx6, [r2], #-464	; 0xfffffe30
     59c:	65766165 	ldrbvs	r6, [r6, #-357]!	; 0x165
     5a0:	0000682e 	andeq	r6, r0, lr, lsr #16
     5a4:	70720000 	rsbsvc	r0, r2, r0
     5a8:	00682e69 	rsbeq	r2, r8, r9, ror #28
     5ac:	00000001 	andeq	r0, r0, r1
     5b0:	08020500 	stmdaeq	r2, {r8, sl}
     5b4:	0300008b 	movweq	r0, #139	; 0x8b
     5b8:	0067010a 	rsbeq	r0, r7, sl, lsl #2
     5bc:	06010402 	streq	r0, [r1], -r2, lsl #8
     5c0:	06020482 	streq	r0, [r2], -r2, lsl #9
     5c4:	ba019a03 	blt	66dd8 <__bss_end__+0x5c240>
     5c8:	03010433 	movweq	r0, #5171	; 0x1433
     5cc:	4b2e7ee2 	blmi	ba015c <__bss_end__+0xb955c4>
     5d0:	83834dd8 	orrhi	r4, r3, #216, 26	; 0x3600
     5d4:	4b2f4ba3 	blmi	bd3468 <__bss_end__+0xbc88d0>
     5d8:	68304b67 	ldmdavs	r0!, {r0, r1, r2, r5, r6, r8, r9, fp, lr}
     5dc:	01040200 	mrseq	r0, R12_usr
     5e0:	08068206 	stmdaeq	r6, {r1, r2, r9, pc}
     5e4:	02006821 	andeq	r6, r0, #2162688	; 0x210000
     5e8:	82060104 	andhi	r0, r6, #4, 2
     5ec:	0067bb06 	rsbeq	fp, r7, r6, lsl #22
     5f0:	06010402 	streq	r0, [r1], -r2, lsl #8
     5f4:	08bb0682 	ldmeq	fp!, {r1, r7, r9, sl}
     5f8:	630304ca 	movwvs	r0, #13514	; 0x34ca
     5fc:	04310404 	ldrteq	r0, [r1], #-1028	; 0x404
     600:	2e6b0305 	cdpcs	3, 6, cr0, cr11, cr5, {0}
     604:	19030104 	stmdbne	r3, {r2, r8}
     608:	844e4b2e 	strbhi	r4, [lr], #-2862	; 0xb2e
     60c:	0200682a 	andeq	r6, r0, #2752512	; 0x2a0000
     610:	66060104 	strvs	r0, [r6], -r4, lsl #2
     614:	676ad806 	strbvs	sp, [sl, -r6, lsl #16]!
     618:	6784314b 	strvs	r3, [r4, fp, asr #2]
     61c:	69849f69 	stmibvs	r4, {r0, r3, r5, r6, r8, r9, sl, fp, ip, pc}
     620:	04046868 	streq	r6, [r4], #-2152	; 0x868
     624:	04825103 	streq	r5, [r2], #259	; 0x103
     628:	2e6c0305 	cdpcs	3, 6, cr0, cr12, cr5, {0}
     62c:	25086765 	strcs	r6, [r8, #-1893]	; 0x765
     630:	28026008 	stmdacs	r2, {r3, sp, lr}
     634:	4b4b4b15 	blmi	12d3290 <__bss_end__+0x12c86f8>
     638:	79034b4b 	stmdbvc	r3, {r0, r1, r3, r6, r8, r9, fp, lr}
     63c:	01044bf2 	strdeq	r4, [r4, -r2]
     640:	042e3803 	strteq	r3, [lr], #-2051	; 0x803
     644:	66550303 	ldrbvs	r0, [r5], -r3, lsl #6
     648:	78030404 	stmdavc	r3, {r2, sl}
     64c:	0305042e 	movweq	r0, #21550	; 0x542e
     650:	67652e6c 	strbvs	r2, [r5, -ip, ror #28]!
     654:	60082508 	andvs	r2, r8, r8, lsl #10
     658:	4b152802 	blmi	54a668 <__bss_end__+0x53fad0>
     65c:	4b4b4b4b 	blmi	12d3390 <__bss_end__+0x12c87f8>
     660:	4bf27903 	blmi	ffc9ea74 <__bss_end__+0xffc93edc>
     664:	0d030304 	stceq	3, cr0, [r3, #-16]
     668:	0301042e 	movweq	r0, #5166	; 0x142e
     66c:	044c2e2c 	strbeq	r2, [ip], #-3628	; 0xe2c
     670:	4a4a0304 	bmi	1281288 <__bss_end__+0x12766f0>
     674:	6c030504 	cfstr32vs	mvfx0, [r3], {4}
     678:	0867652e 	stmdaeq	r7!, {r1, r2, r3, r5, r8, sl, sp, lr}^
     67c:	03030425 	movweq	r0, #13349	; 0x3425
     680:	04580817 	ldrbeq	r0, [r8], #-2071	; 0x817
     684:	2e780304 	cdpcs	3, 7, cr0, cr8, cr4, {0}
     688:	6c030504 	cfstr32vs	mvfx0, [r3], {4}
     68c:	0867652e 	stmdaeq	r7!, {r1, r2, r3, r5, r8, sl, sp, lr}^
     690:	03010425 	movweq	r0, #5157	; 0x1425
     694:	580800c7 	stmdapl	r8, {r0, r1, r2, r6, r7}
     698:	01040200 	mrseq	r0, R12_usr
     69c:	08064a06 	stmdaeq	r6, {r1, r2, r9, fp, lr}
     6a0:	022f4c24 	eoreq	r4, pc, #36, 24	; 0x2400
     6a4:	4b4e173a 	blmi	1386394 <__bss_end__+0x137b7fc>
     6a8:	9f676768 	svcls	0x00676768
     6ac:	00d67a03 	sbcseq	r7, r6, r3, lsl #20
     6b0:	06010402 	streq	r0, [r1], -r2, lsl #8
     6b4:	1203062e 	andne	r0, r3, #48234496	; 0x2e00000
     6b8:	491aa14a 	ldmdbmi	sl, {r1, r3, r6, r8, sp, pc}
     6bc:	2d2d2d2d 	stccs	13, cr2, [sp, #-180]!	; 0xffffff4c
     6c0:	0a032d2d 	beq	cbb7c <__bss_end__+0xc0fe4>
     6c4:	4b2f4b4a 	blmi	bd33f4 <__bss_end__+0xbc885c>
     6c8:	01040200 	mrseq	r0, R12_usr
     6cc:	06828206 	streq	r8, [r2], r6, lsl #4
     6d0:	0002029f 	muleq	r2, pc, r2	; <UNPREDICTABLE>
     6d4:	010c0101 	tsteq	ip, r1, lsl #2
     6d8:	00020000 	andeq	r0, r2, r0
     6dc:	000000f5 	strdeq	r0, [r0], -r5
     6e0:	0efb0102 	cdpeq	1, 15, cr0, cr11, cr2, {0}
     6e4:	0101000d 	tsteq	r1, sp
     6e8:	00000101 	andeq	r0, r0, r1, lsl #2
     6ec:	00000100 	andeq	r0, r0, r0, lsl #2
     6f0:	62696c01 	rsbvs	r6, r9, #256	; 0x100
     6f4:	752f0063 	strvc	r0, [pc, #-99]!	; 699 <__code_start__-0x7967>
     6f8:	6c2f7273 	sfmvs	f7, 4, [pc], #-460	; 534 <__code_start__-0x7acc>
     6fc:	6c61636f 	stclvs	3, cr6, [r1], #-444	; 0xfffffe44
     700:	6c65432f 	stclvs	3, cr4, [r5], #-188	; 0xffffff44
     704:	2f72616c 	svccs	0x0072616c
     708:	2d6d7261 	sfmcs	f7, 2, [sp, #-388]!	; 0xfffffe7c
     70c:	656e6f6e 	strbvs	r6, [lr, #-3950]!	; 0xf6e
     710:	6261652d 	rsbvs	r6, r1, #188743680	; 0xb400000
     714:	2e342f69 	cdpcs	15, 3, cr2, cr4, cr9, {3}
     718:	2d332e38 	ldccs	14, cr2, [r3, #-224]!	; 0xffffff20
     71c:	37317363 	ldrcc	r7, [r1, -r3, ror #6]!
     720:	6c2f6530 	cfstr32vs	mvfx6, [pc], #-192	; 668 <__code_start__-0x7998>
     724:	672f6269 	strvs	r6, [pc, -r9, ror #4]!
     728:	612f6363 	teqvs	pc, r3, ror #6
     72c:	6e2d6d72 	mcrvs	13, 1, r6, cr13, cr2, {3}
     730:	2d656e6f 	stclcs	14, cr6, [r5, #-444]!	; 0xfffffe44
     734:	69626165 	stmdbvs	r2!, {r0, r2, r5, r6, r8, sp, lr}^
     738:	382e342f 	stmdacc	lr!, {r0, r1, r2, r3, r5, sl, ip, sp}
     73c:	692f332e 	stmdbvs	pc!, {r1, r2, r3, r5, r8, r9, ip, sp}	; <UNPREDICTABLE>
     740:	756c636e 	strbvc	r6, [ip, #-878]!	; 0x36e
     744:	2f006564 	svccs	0x00006564
     748:	72657355 	rsbvc	r7, r5, #1409286145	; 0x54000001
     74c:	72622f73 	rsbvc	r2, r2, #460	; 0x1cc
     750:	6a6e6169 	bvs	1b98cfc <__bss_end__+0x1b8e164>
     754:	442f6e75 	strtmi	r6, [pc], #-3701	; 75c <__code_start__-0x78a4>
     758:	746b7365 	strbtvc	r7, [fp], #-869	; 0x365
     75c:	732f706f 	teqvc	pc, #111	; 0x6f
     760:	6f6f6863 	svcvs	0x006f6863
     764:	70532f6c 	subsvc	r2, r3, ip, ror #30
     768:	676e6972 			; <UNDEFINED> instruction: 0x676e6972
     76c:	30323931 	eorscc	r3, r2, r1, lsr r9
     770:	3253432f 	subscc	r4, r3, #-1140850688	; 0xbc000000
     774:	584c3034 	stmdapl	ip, {r2, r4, r5, ip, sp}^
     778:	3273632f 	rsbscc	r6, r3, #-1140850688	; 0xbc000000
     77c:	786c3034 	stmdavc	ip!, {r2, r4, r5, ip, sp}^
     780:	7330322d 	teqvc	r0, #-805306366	; 0xd0000002
     784:	6c2f7270 	sfmvs	f7, 4, [pc], #-448	; 5cc <__code_start__-0x7a34>
     788:	69706269 	ldmdbvs	r0!, {r0, r3, r5, r6, r9, sp, lr}^
     78c:	636e692f 	cmnvs	lr, #770048	; 0xbc000
     790:	6564756c 	strbvs	r7, [r4, #-1388]!	; 0x56c
     794:	72700000 	rsbsvc	r0, r0, #0
     798:	6b746e69 	blvs	1d1c144 <__bss_end__+0x1d115ac>
     79c:	0100632e 	tsteq	r0, lr, lsr #6
     7a0:	74730000 	ldrbtvc	r0, [r3], #-0
     7a4:	67726164 	ldrbvs	r6, [r2, -r4, ror #2]!
     7a8:	0200682e 	andeq	r6, r0, #3014656	; 0x2e0000
     7ac:	623c0000 	eorsvs	r0, ip, #0
     7b0:	746c6975 	strbtvc	r6, [ip], #-2421	; 0x975
     7b4:	3e6e692d 	cdpcc	9, 6, cr6, cr14, cr13, {1}
     7b8:	00000000 	andeq	r0, r0, r0
     7bc:	2e697072 	mcrcs	0, 3, r7, cr9, cr2, {3}
     7c0:	00030068 	andeq	r0, r3, r8, rrx
     7c4:	2d617600 	stclcs	6, cr7, [r1, #-0]
     7c8:	6e697270 	mcrvs	2, 3, r7, cr9, cr0, {3}
     7cc:	682e6b74 	stmdavs	lr!, {r2, r4, r5, r6, r8, r9, fp, sp, lr}
     7d0:	00000100 	andeq	r0, r0, r0, lsl #2
     7d4:	02050000 	andeq	r0, r5, #0
     7d8:	0000928c 	andeq	r9, r0, ip, lsl #5
     7dc:	bf4b6b17 	svclt	0x004b6b17
     7e0:	000e0289 	andeq	r0, lr, r9, lsl #5
     7e4:	00940101 	addseq	r0, r4, r1, lsl #2
     7e8:	00020000 	andeq	r0, r2, r0
     7ec:	0000007c 	andeq	r0, r0, ip, ror r0
     7f0:	0efb0102 	cdpeq	1, 15, cr0, cr11, cr2, {0}
     7f4:	0101000d 	tsteq	r1, sp
     7f8:	00000101 	andeq	r0, r0, r1, lsl #2
     7fc:	00000100 	andeq	r0, r0, r0, lsl #2
     800:	62696c01 	rsbvs	r6, r9, #256	; 0x100
     804:	552f0063 	strpl	r0, [pc, #-99]!	; 7a9 <__code_start__-0x7857>
     808:	73726573 	cmnvc	r2, #482344960	; 0x1cc00000
     80c:	6972622f 	ldmdbvs	r2!, {r0, r1, r2, r3, r5, r9, sp, lr}^
     810:	756a6e61 	strbvc	r6, [sl, #-3681]!	; 0xe61
     814:	65442f6e 	strbvs	r2, [r4, #-3950]	; 0xf6e
     818:	6f746b73 	svcvs	0x00746b73
     81c:	63732f70 	cmnvs	r3, #112, 30	; 0x1c0
     820:	6c6f6f68 	stclvs	15, cr6, [pc], #-416	; 688 <__code_start__-0x7978>
     824:	7270532f 	rsbsvc	r5, r0, #-1140850688	; 0xbc000000
     828:	31676e69 	cmncc	r7, r9, ror #28
     82c:	2f303239 	svccs	0x00303239
     830:	34325343 	ldrtcc	r5, [r2], #-835	; 0x343
     834:	2f584c30 	svccs	0x00584c30
     838:	34327363 	ldrtcc	r7, [r2], #-867	; 0x363
     83c:	2d786c30 	ldclcs	12, cr6, [r8, #-192]!	; 0xffffff40
     840:	70733032 	rsbsvc	r3, r3, r2, lsr r0
     844:	696c2f72 	stmdbvs	ip!, {r1, r4, r5, r6, r8, r9, sl, fp, sp}^
     848:	2f697062 	svccs	0x00697062
     84c:	6c636e69 	stclvs	14, cr6, [r3], #-420	; 0xfffffe5c
     850:	00656475 	rsbeq	r6, r5, r5, ror r4
     854:	74757000 	ldrbtvc	r7, [r5], #-0
     858:	72616863 	rsbvc	r6, r1, #6488064	; 0x630000
     85c:	0100632e 	tsteq	r0, lr, lsr #6
     860:	70720000 	rsbsvc	r0, r2, r0
     864:	00682e69 	rsbeq	r2, r8, r9, ror #28
     868:	00000002 	andeq	r0, r0, r2
     86c:	e4020500 	str	r0, [r2], #-1280	; 0x500
     870:	14000092 	strne	r0, [r0], #-146	; 0x92
     874:	bc136b4a 	ldclt	11, cr6, [r3], {74}	; 0x4a
     878:	00080213 	andeq	r0, r8, r3, lsl r2
     87c:	00a00101 	adceq	r0, r0, r1, lsl #2
     880:	00020000 	andeq	r0, r2, r0
     884:	00000079 	andeq	r0, r0, r9, ror r0
     888:	0efb0102 	cdpeq	1, 15, cr0, cr11, cr2, {0}
     88c:	0101000d 	tsteq	r1, sp
     890:	00000101 	andeq	r0, r0, r1, lsl #2
     894:	00000100 	andeq	r0, r0, r0, lsl #2
     898:	62696c01 	rsbvs	r6, r9, #256	; 0x100
     89c:	552f0063 	strpl	r0, [pc, #-99]!	; 841 <__code_start__-0x77bf>
     8a0:	73726573 	cmnvc	r2, #482344960	; 0x1cc00000
     8a4:	6972622f 	ldmdbvs	r2!, {r0, r1, r2, r3, r5, r9, sp, lr}^
     8a8:	756a6e61 	strbvc	r6, [sl, #-3681]!	; 0xe61
     8ac:	65442f6e 	strbvs	r2, [r4, #-3950]	; 0xf6e
     8b0:	6f746b73 	svcvs	0x00746b73
     8b4:	63732f70 	cmnvs	r3, #112, 30	; 0x1c0
     8b8:	6c6f6f68 	stclvs	15, cr6, [pc], #-416	; 720 <__code_start__-0x78e0>
     8bc:	7270532f 	rsbsvc	r5, r0, #-1140850688	; 0xbc000000
     8c0:	31676e69 	cmncc	r7, r9, ror #28
     8c4:	2f303239 	svccs	0x00303239
     8c8:	34325343 	ldrtcc	r5, [r2], #-835	; 0x343
     8cc:	2f584c30 	svccs	0x00584c30
     8d0:	34327363 	ldrtcc	r7, [r2], #-867	; 0x363
     8d4:	2d786c30 	ldclcs	12, cr6, [r8, #-192]!	; 0xffffff40
     8d8:	70733032 	rsbsvc	r3, r3, r2, lsr r0
     8dc:	696c2f72 	stmdbvs	ip!, {r1, r4, r5, r6, r8, r9, sl, fp, sp}^
     8e0:	2f697062 	svccs	0x00697062
     8e4:	6c636e69 	stclvs	14, cr6, [r3], #-420	; 0xfffffe5c
     8e8:	00656475 	rsbeq	r6, r5, r5, ror r4
     8ec:	74757000 	ldrbtvc	r7, [r5], #-0
     8f0:	00632e6b 	rsbeq	r2, r3, fp, ror #28
     8f4:	72000001 	andvc	r0, r0, #1
     8f8:	682e6970 	stmdavs	lr!, {r4, r5, r6, r8, fp, sp, lr}
     8fc:	00000200 	andeq	r0, r0, r0, lsl #4
     900:	02050000 	andeq	r0, r5, #0
     904:	00009320 	andeq	r9, r0, r0, lsr #6
     908:	002d4c15 	eoreq	r4, sp, r5, lsl ip
     90c:	2f020402 	svccs	0x00020402
     910:	02040200 	andeq	r0, r4, #0, 4
     914:	04020049 	streq	r0, [r2], #-73	; 0x49
     918:	062e0601 	strteq	r0, [lr], -r1, lsl #12
     91c:	0006026b 	andeq	r0, r6, fp, ror #4
     920:	01f10101 	mvnseq	r0, r1, lsl #2
     924:	00020000 	andeq	r0, r2, r0
     928:	000000e9 	andeq	r0, r0, r9, ror #1
     92c:	0efb0102 	cdpeq	1, 15, cr0, cr11, cr2, {0}
     930:	0101000d 	tsteq	r1, sp
     934:	00000101 	andeq	r0, r0, r1, lsl #2
     938:	00000100 	andeq	r0, r0, r0, lsl #2
     93c:	62696c01 	rsbvs	r6, r9, #256	; 0x100
     940:	752f0063 	strvc	r0, [pc, #-99]!	; 8e5 <__code_start__-0x771b>
     944:	6c2f7273 	sfmvs	f7, 4, [pc], #-460	; 780 <__code_start__-0x7880>
     948:	6c61636f 	stclvs	3, cr6, [r1], #-444	; 0xfffffe44
     94c:	6c65432f 	stclvs	3, cr4, [r5], #-188	; 0xffffff44
     950:	2f72616c 	svccs	0x0072616c
     954:	2d6d7261 	sfmcs	f7, 2, [sp, #-388]!	; 0xfffffe7c
     958:	656e6f6e 	strbvs	r6, [lr, #-3950]!	; 0xf6e
     95c:	6261652d 	rsbvs	r6, r1, #188743680	; 0xb400000
     960:	2e342f69 	cdpcs	15, 3, cr2, cr4, cr9, {3}
     964:	2d332e38 	ldccs	14, cr2, [r3, #-224]!	; 0xffffff20
     968:	37317363 	ldrcc	r7, [r1, -r3, ror #6]!
     96c:	6c2f6530 	cfstr32vs	mvfx6, [pc], #-192	; 8b4 <__code_start__-0x774c>
     970:	672f6269 	strvs	r6, [pc, -r9, ror #4]!
     974:	612f6363 	teqvs	pc, r3, ror #6
     978:	6e2d6d72 	mcrvs	13, 1, r6, cr13, cr2, {3}
     97c:	2d656e6f 	stclcs	14, cr6, [r5, #-444]!	; 0xfffffe44
     980:	69626165 	stmdbvs	r2!, {r0, r2, r5, r6, r8, sp, lr}^
     984:	382e342f 	stmdacc	lr!, {r0, r1, r2, r3, r5, sl, ip, sp}
     988:	692f332e 	stmdbvs	pc!, {r1, r2, r3, r5, r8, r9, ip, sp}	; <UNPREDICTABLE>
     98c:	756c636e 	strbvc	r6, [ip, #-878]!	; 0x36e
     990:	2f006564 	svccs	0x00006564
     994:	72657355 	rsbvc	r7, r5, #1409286145	; 0x54000001
     998:	72622f73 	rsbvc	r2, r2, #460	; 0x1cc
     99c:	6a6e6169 	bvs	1b98f48 <__bss_end__+0x1b8e3b0>
     9a0:	442f6e75 	strtmi	r6, [pc], #-3701	; 9a8 <__code_start__-0x7658>
     9a4:	746b7365 	strbtvc	r7, [fp], #-869	; 0x365
     9a8:	732f706f 	teqvc	pc, #111	; 0x6f
     9ac:	6f6f6863 	svcvs	0x006f6863
     9b0:	70532f6c 	subsvc	r2, r3, ip, ror #30
     9b4:	676e6972 			; <UNDEFINED> instruction: 0x676e6972
     9b8:	30323931 	eorscc	r3, r2, r1, lsr r9
     9bc:	3253432f 	subscc	r4, r3, #-1140850688	; 0xbc000000
     9c0:	584c3034 	stmdapl	ip, {r2, r4, r5, ip, sp}^
     9c4:	3273632f 	rsbscc	r6, r3, #-1140850688	; 0xbc000000
     9c8:	786c3034 	stmdavc	ip!, {r2, r4, r5, ip, sp}^
     9cc:	7330322d 	teqvc	r0, #-805306366	; 0xd0000002
     9d0:	6c2f7270 	sfmvs	f7, 4, [pc], #-448	; 818 <__code_start__-0x77e8>
     9d4:	69706269 	ldmdbvs	r0!, {r0, r3, r5, r6, r9, sp, lr}^
     9d8:	636e692f 	cmnvs	lr, #770048	; 0xbc000
     9dc:	6564756c 	strbvs	r7, [r4, #-1388]!	; 0x56c
     9e0:	61760000 	cmnvs	r6, r0
     9e4:	6972702d 	ldmdbvs	r2!, {r0, r2, r3, r5, ip, sp, lr}^
     9e8:	2e6b746e 	cdpcs	4, 6, cr7, cr11, cr14, {3}
     9ec:	00010063 	andeq	r0, r1, r3, rrx
     9f0:	64747300 	ldrbtvs	r7, [r4], #-768	; 0x300
     9f4:	2e677261 	cdpcs	2, 6, cr7, cr7, cr1, {3}
     9f8:	00020068 	andeq	r0, r2, r8, rrx
     9fc:	69707200 	ldmdbvs	r0!, {r9, ip, sp, lr}^
     a00:	0300682e 	movweq	r6, #2094	; 0x82e
     a04:	623c0000 	eorsvs	r0, ip, #0
     a08:	746c6975 	strbtvc	r6, [ip], #-2421	; 0x975
     a0c:	3e6e692d 	cdpcc	9, 6, cr6, cr14, cr13, {1}
     a10:	00000000 	andeq	r0, r0, r0
     a14:	02050000 	andeq	r0, r5, #0
     a18:	00009354 	andeq	r9, r0, r4, asr r3
     a1c:	01012603 	tsteq	r1, r3, lsl #12
     a20:	2d3113a5 	ldccs	3, cr1, [r1, #-660]!	; 0xfffffd6c
     a24:	02040200 	andeq	r0, r4, #0, 4
     a28:	0402002f 	streq	r0, [r2], #-47	; 0x2f
     a2c:	02002d02 	andeq	r2, r0, #2, 26	; 0x80
     a30:	002f0204 	eoreq	r0, pc, r4, lsl #4
     a34:	2d010402 	cfstrscs	mvf0, [r1, #-8]
     a38:	14304c4c 	ldrtne	r4, [r0], #-3148	; 0xc4c
     a3c:	004f2f4b 	subeq	r2, pc, fp, asr #30
     a40:	67020402 	strvs	r0, [r2, -r2, lsl #8]
     a44:	01040200 	mrseq	r0, R12_usr
     a48:	304d4c65 	subcc	r4, sp, r5, ror #24
     a4c:	30312fa0 	eorscc	r2, r1, r0, lsr #31
     a50:	84162602 	ldrhi	r2, [r6], #-1538	; 0x602
     a54:	02002c2d 	andeq	r2, r0, #11520	; 0x2d00
     a58:	00300104 	eorseq	r0, r0, r4, lsl #2
     a5c:	33010402 	movwcc	r0, #5122	; 0x1402
     a60:	02006606 	andeq	r6, r0, #6291456	; 0x600000
     a64:	002e0104 	eoreq	r0, lr, r4, lsl #2
     a68:	06010402 	streq	r0, [r1], -r2, lsl #8
     a6c:	2f672108 	svccs	0x00672108
     a70:	03827303 	orreq	r7, r2, #201326592	; 0xc000000
     a74:	02002e13 	andeq	r2, r0, #304	; 0x130
     a78:	66060104 	strvs	r0, [r6], -r4, lsl #2
     a7c:	01040200 	mrseq	r0, R12_usr
     a80:	4b4b8306 	blmi	12e16a0 <__bss_end__+0x12d6b08>
     a84:	034b3167 	movteq	r3, #45415	; 0xb167
     a88:	23032e65 	movwcs	r2, #15973	; 0x3e65
     a8c:	0402002e 	streq	r0, [r2], #-46	; 0x2e
     a90:	002e0601 	eoreq	r0, lr, r1, lsl #12
     a94:	06010402 	streq	r0, [r1], -r2, lsl #8
     a98:	0402009f 	streq	r0, [r2], #-159	; 0x9f
     a9c:	23086a01 	movwcs	r6, #35329	; 0x8a01
     aa0:	7fa403d7 	svcvc	0x00a403d7
     aa4:	004b3c08 	subeq	r3, fp, r8, lsl #24
     aa8:	06010402 	streq	r0, [r1], -r2, lsl #8
     aac:	2108064a 	tstcs	r8, sl, asr #12
     ab0:	034b2f4b 	movteq	r2, #48971	; 0xbf4b
     ab4:	9ff200db 	svcls	0x00f200db
     ab8:	4b32484c 	blmi	c92bf0 <__bss_end__+0xc88058>
     abc:	2f4b842f 	svccs	0x004b842f
     ac0:	30314d2d 	eorscc	r4, r1, sp, lsr #26
     ac4:	0200832f 	andeq	r8, r0, #-1140850688	; 0xbc000000
     ac8:	be2c0104 	suflte	f0, f4, f4
     acc:	01040200 	mrseq	r0, R12_usr
     ad0:	08064a06 	stmdaeq	r6, {r1, r2, r9, fp, lr}
     ad4:	16360222 	ldrtne	r0, [r6], -r2, lsr #4
     ad8:	08d60e03 	ldmeq	r6, {r0, r1, r9, sl, fp}^
     adc:	21083021 	tstcs	r8, r1, lsr #32
     ae0:	30210831 	eorcc	r0, r1, r1, lsr r8
     ae4:	4b302108 	blmi	c08f0c <__bss_end__+0xbfe374>
     ae8:	30210830 	eorcc	r0, r1, r0, lsr r8
     aec:	d983834b 	stmible	r3, {r0, r1, r3, r6, r8, r9, pc}
     af0:	02002f31 	andeq	r2, r0, #49, 30	; 0xc4
     af4:	00650104 	rsbeq	r0, r5, r4, lsl #2
     af8:	06020402 	streq	r0, [r2], -r2, lsl #8
     afc:	0402004a 	streq	r0, [r2], #-74	; 0x4a
     b00:	bf030601 	svclt	0x00030601
     b04:	0200667f 	andeq	r6, r0, #133169152	; 0x7f00000
     b08:	66060204 	strvs	r0, [r6], -r4, lsl #4
     b0c:	00c50306 	sbceq	r0, r5, r6, lsl #6
     b10:	1602684a 	strne	r6, [r2], -sl, asr #16
     b14:	42010100 	andmi	r0, r1, #0, 2
     b18:	02000000 	andeq	r0, r0, #0
     b1c:	00002800 	andeq	r2, r0, r0, lsl #16
     b20:	fb010200 	blx	4132a <__bss_end__+0x36792>
     b24:	01000d0e 	tsteq	r0, lr, lsl #26
     b28:	00010101 	andeq	r0, r1, r1, lsl #2
     b2c:	00010000 	andeq	r0, r1, r0
     b30:	74730100 	ldrbtvc	r0, [r3], #-256	; 0x100
     b34:	2d666661 	stclcs	6, cr6, [r6, #-388]!	; 0xfffffe7c
     b38:	00637273 	rsbeq	r7, r3, r3, ror r2
     b3c:	63616300 	cmnvs	r1, #0, 6
     b40:	632e6568 	teqvs	lr, #104, 10	; 0x1a000000
     b44:	00000100 	andeq	r0, r0, r0, lsl #2
     b48:	02050000 	andeq	r0, r5, #0
     b4c:	000098cc 	andeq	r9, r0, ip, asr #17
     b50:	2f301414 	svccs	0x00301414
     b54:	2f31144e 	svccs	0x0031144e
     b58:	01000402 	tsteq	r0, r2, lsl #8
     b5c:	00009d01 	andeq	r9, r0, r1, lsl #26
     b60:	86000200 	strhi	r0, [r0], -r0, lsl #4
     b64:	02000000 	andeq	r0, r0, #0
     b68:	0d0efb01 	vstreq	d15, [lr, #-4]
     b6c:	01010100 	mrseq	r0, (UNDEF: 17)
     b70:	00000001 	andeq	r0, r0, r1
     b74:	01000001 	tsteq	r0, r1
     b78:	66617473 			; <UNDEFINED> instruction: 0x66617473
     b7c:	72732d66 	rsbsvc	r2, r3, #6528	; 0x1980
     b80:	552f0063 	strpl	r0, [pc, #-99]!	; b25 <__code_start__-0x74db>
     b84:	73726573 	cmnvc	r2, #482344960	; 0x1cc00000
     b88:	6972622f 	ldmdbvs	r2!, {r0, r1, r2, r3, r5, r9, sp, lr}^
     b8c:	756a6e61 	strbvc	r6, [sl, #-3681]!	; 0xe61
     b90:	65442f6e 	strbvs	r2, [r4, #-3950]	; 0xf6e
     b94:	6f746b73 	svcvs	0x00746b73
     b98:	63732f70 	cmnvs	r3, #112, 30	; 0x1c0
     b9c:	6c6f6f68 	stclvs	15, cr6, [pc], #-416	; a04 <__code_start__-0x75fc>
     ba0:	7270532f 	rsbsvc	r5, r0, #-1140850688	; 0xbc000000
     ba4:	31676e69 	cmncc	r7, r9, ror #28
     ba8:	2f303239 	svccs	0x00303239
     bac:	34325343 	ldrtcc	r5, [r2], #-835	; 0x343
     bb0:	2f584c30 	svccs	0x00584c30
     bb4:	34327363 	ldrtcc	r7, [r2], #-867	; 0x363
     bb8:	2d786c30 	ldclcs	12, cr6, [r8, #-192]!	; 0xffffff40
     bbc:	70733032 	rsbsvc	r3, r3, r2, lsr r0
     bc0:	696c2f72 	stmdbvs	ip!, {r1, r4, r5, r6, r8, r9, sl, fp, sp}^
     bc4:	2f697062 	svccs	0x00697062
     bc8:	6c636e69 	stclvs	14, cr6, [r3], #-420	; 0xfffffe5c
     bcc:	00656475 	rsbeq	r6, r5, r5, ror r4
     bd0:	656c6300 	strbvs	r6, [ip, #-768]!	; 0x300
     bd4:	722d6e61 	eorvc	r6, sp, #1552	; 0x610
     bd8:	6f6f6265 	svcvs	0x006f6265
     bdc:	00632e74 	rsbeq	r2, r3, r4, ror lr
     be0:	72000001 	andvc	r0, r0, #1
     be4:	682e6970 	stmdavs	lr!, {r4, r5, r6, r8, fp, sp, lr}
     be8:	00000200 	andeq	r0, r0, r0, lsl #4
     bec:	02050000 	andeq	r0, r5, #0
     bf0:	000098ec 	andeq	r9, r0, ip, ror #17
     bf4:	832f2f15 	teqhi	pc, #21, 30	; 0x54
     bf8:	0006024b 	andeq	r0, r6, fp, asr #4
     bfc:	00a60101 	adceq	r0, r6, r1, lsl #2
     c00:	00020000 	andeq	r0, r2, r0
     c04:	00000080 	andeq	r0, r0, r0, lsl #1
     c08:	0efb0102 	cdpeq	1, 15, cr0, cr11, cr2, {0}
     c0c:	0101000d 	tsteq	r1, sp
     c10:	00000101 	andeq	r0, r0, r1, lsl #2
     c14:	00000100 	andeq	r0, r0, r0, lsl #2
     c18:	61747301 	cmnvs	r4, r1, lsl #6
     c1c:	732d6666 	teqvc	sp, #106954752	; 0x6600000
     c20:	2f006372 	svccs	0x00006372
     c24:	72657355 	rsbvc	r7, r5, #1409286145	; 0x54000001
     c28:	72622f73 	rsbvc	r2, r2, #460	; 0x1cc
     c2c:	6a6e6169 	bvs	1b991d8 <__bss_end__+0x1b8e640>
     c30:	442f6e75 	strtmi	r6, [pc], #-3701	; c38 <__code_start__-0x73c8>
     c34:	746b7365 	strbtvc	r7, [fp], #-869	; 0x365
     c38:	732f706f 	teqvc	pc, #111	; 0x6f
     c3c:	6f6f6863 	svcvs	0x006f6863
     c40:	70532f6c 	subsvc	r2, r3, ip, ror #30
     c44:	676e6972 			; <UNDEFINED> instruction: 0x676e6972
     c48:	30323931 	eorscc	r3, r2, r1, lsr r9
     c4c:	3253432f 	subscc	r4, r3, #-1140850688	; 0xbc000000
     c50:	584c3034 	stmdapl	ip, {r2, r4, r5, ip, sp}^
     c54:	3273632f 	rsbscc	r6, r3, #-1140850688	; 0xbc000000
     c58:	786c3034 	stmdavc	ip!, {r2, r4, r5, ip, sp}^
     c5c:	7330322d 	teqvc	r0, #-805306366	; 0xd0000002
     c60:	6c2f7270 	sfmvs	f7, 4, [pc], #-448	; aa8 <__code_start__-0x7558>
     c64:	69706269 	ldmdbvs	r0!, {r0, r3, r5, r6, r9, sp, lr}^
     c68:	636e692f 	cmnvs	lr, #770048	; 0xbc000
     c6c:	6564756c 	strbvs	r7, [r4, #-1388]!	; 0x56c
     c70:	73630000 	cmnvc	r3, #0
     c74:	74726174 	ldrbtvc	r6, [r2], #-372	; 0x174
     c78:	0100632e 	tsteq	r0, lr, lsr #6
     c7c:	70720000 	rsbsvc	r0, r2, r0
     c80:	00682e69 	rsbeq	r2, r8, r9, ror #28
     c84:	00000002 	andeq	r0, r0, r2
     c88:	18020500 	stmdane	r2, {r8, sl}
     c8c:	03000099 	movweq	r0, #153	; 0x99
     c90:	3132010c 	teqcc	r2, ip, lsl #2
     c94:	002f2d2f 	eoreq	r2, pc, pc, lsr #26
     c98:	49010402 	stmdbmi	r1, {r1, sl}
     c9c:	034a0903 	movteq	r0, #43267	; 0xa903
     ca0:	022f2e0d 	eoreq	r2, pc, #13, 28	; 0xd0
     ca4:	01010006 	tsteq	r1, r6
     ca8:	000000a2 	andeq	r0, r0, r2, lsr #1
     cac:	008e0002 	addeq	r0, lr, r2
     cb0:	01020000 	mrseq	r0, (UNDEF: 2)
     cb4:	000d0efb 	strdeq	r0, [sp], -fp
     cb8:	01010101 	tsteq	r1, r1, lsl #2
     cbc:	01000000 	mrseq	r0, (UNDEF: 0)
     cc0:	73010000 	movwvc	r0, #4096	; 0x1000
     cc4:	66666174 			; <UNDEFINED> instruction: 0x66666174
     cc8:	6372732d 	cmnvs	r2, #-1275068416	; 0xb4000000
     ccc:	73552f00 	cmpvc	r5, #0, 30
     cd0:	2f737265 	svccs	0x00737265
     cd4:	61697262 	cmnvs	r9, r2, ror #4
     cd8:	6e756a6e 	vsubvs.f32	s13, s10, s29
     cdc:	7365442f 	cmnvc	r5, #788529152	; 0x2f000000
     ce0:	706f746b 	rsbvc	r7, pc, fp, ror #8
     ce4:	6863732f 	stmdavs	r3!, {r0, r1, r2, r3, r5, r8, r9, ip, sp, lr}^
     ce8:	2f6c6f6f 	svccs	0x006c6f6f
     cec:	69727053 	ldmdbvs	r2!, {r0, r1, r4, r6, ip, sp, lr}^
     cf0:	3931676e 	ldmdbcc	r1!, {r1, r2, r3, r5, r6, r8, r9, sl, sp, lr}
     cf4:	432f3032 	teqmi	pc, #50	; 0x32
     cf8:	30343253 	eorscc	r3, r4, r3, asr r2
     cfc:	632f584c 	teqvs	pc, #76, 16	; 0x4c0000
     d00:	30343273 	eorscc	r3, r4, r3, ror r2
     d04:	322d786c 	eorcc	r7, sp, #108, 16	; 0x6c0000
     d08:	72707330 	rsbsvc	r7, r0, #48, 6	; 0xc0000000
     d0c:	62696c2f 	rsbvs	r6, r9, #12032	; 0x2f00
     d10:	692f6970 	stmdbvs	pc!, {r4, r5, r6, r8, fp, sp, lr}	; <UNPREDICTABLE>
     d14:	756c636e 	strbvc	r6, [ip, #-878]!	; 0x36e
     d18:	00006564 	andeq	r6, r0, r4, ror #10
     d1c:	61666564 	cmnvs	r6, r4, ror #10
     d20:	2d746c75 	ldclcs	12, cr6, [r4, #-468]!	; 0xfffffe2c
     d24:	646e6168 	strbtvs	r6, [lr], #-360	; 0x168
     d28:	2d72656c 	cfldr64cs	mvdx6, [r2, #-432]!	; 0xfffffe50
     d2c:	74736166 	ldrbtvc	r6, [r3], #-358	; 0x166
     d30:	0100632e 	tsteq	r0, lr, lsr #6
     d34:	70720000 	rsbsvc	r0, r2, r0
     d38:	00682e69 	rsbeq	r2, r8, r9, ror #28
     d3c:	00000002 	andeq	r0, r0, r2
     d40:	50020500 	andpl	r0, r2, r0, lsl #10
     d44:	13000099 	movwne	r0, #153	; 0x99
     d48:	001c0266 	andseq	r0, ip, r6, ror #4
     d4c:	00a30101 	adceq	r0, r3, r1, lsl #2
     d50:	00020000 	andeq	r0, r2, r0
     d54:	0000008f 	andeq	r0, r0, pc, lsl #1
     d58:	0efb0102 	cdpeq	1, 15, cr0, cr11, cr2, {0}
     d5c:	0101000d 	tsteq	r1, sp
     d60:	00000101 	andeq	r0, r0, r1, lsl #2
     d64:	00000100 	andeq	r0, r0, r0, lsl #2
     d68:	61747301 	cmnvs	r4, r1, lsl #6
     d6c:	732d6666 	teqvc	sp, #106954752	; 0x6600000
     d70:	2f006372 	svccs	0x00006372
     d74:	72657355 	rsbvc	r7, r5, #1409286145	; 0x54000001
     d78:	72622f73 	rsbvc	r2, r2, #460	; 0x1cc
     d7c:	6a6e6169 	bvs	1b99328 <__bss_end__+0x1b8e790>
     d80:	442f6e75 	strtmi	r6, [pc], #-3701	; d88 <__code_start__-0x7278>
     d84:	746b7365 	strbtvc	r7, [fp], #-869	; 0x365
     d88:	732f706f 	teqvc	pc, #111	; 0x6f
     d8c:	6f6f6863 	svcvs	0x006f6863
     d90:	70532f6c 	subsvc	r2, r3, ip, ror #30
     d94:	676e6972 			; <UNDEFINED> instruction: 0x676e6972
     d98:	30323931 	eorscc	r3, r2, r1, lsr r9
     d9c:	3253432f 	subscc	r4, r3, #-1140850688	; 0xbc000000
     da0:	584c3034 	stmdapl	ip, {r2, r4, r5, ip, sp}^
     da4:	3273632f 	rsbscc	r6, r3, #-1140850688	; 0xbc000000
     da8:	786c3034 	stmdavc	ip!, {r2, r4, r5, ip, sp}^
     dac:	7330322d 	teqvc	r0, #-805306366	; 0xd0000002
     db0:	6c2f7270 	sfmvs	f7, 4, [pc], #-448	; bf8 <__code_start__-0x7408>
     db4:	69706269 	ldmdbvs	r0!, {r0, r3, r5, r6, r9, sp, lr}^
     db8:	636e692f 	cmnvs	lr, #770048	; 0xbc000
     dbc:	6564756c 	strbvs	r7, [r4, #-1388]!	; 0x56c
     dc0:	65640000 	strbvs	r0, [r4, #-0]!
     dc4:	6c756166 	ldfvse	f6, [r5], #-408	; 0xfffffe68
     dc8:	61682d74 	smcvs	33492	; 0x82d4
     dcc:	656c646e 	strbvs	r6, [ip, #-1134]!	; 0x46e
     dd0:	65722d72 	ldrbvs	r2, [r2, #-3442]!	; 0xd72
     dd4:	2e746573 	mrccs	5, 3, r6, cr4, cr3, {3}
     dd8:	00010063 	andeq	r0, r1, r3, rrx
     ddc:	69707200 	ldmdbvs	r0!, {r9, ip, sp, lr}^
     de0:	0200682e 	andeq	r6, r0, #3014656	; 0x2e0000
     de4:	00000000 	andeq	r0, r0, r0
     de8:	99940205 	ldmibls	r4, {r0, r2, r9}
     dec:	66130000 	ldrvs	r0, [r3], -r0
     df0:	01001c02 	tsteq	r0, r2, lsl #24
     df4:	0000ac01 	andeq	sl, r0, r1, lsl #24
     df8:	98000200 	stmdals	r0, {r9}
     dfc:	02000000 	andeq	r0, r0, #0
     e00:	0d0efb01 	vstreq	d15, [lr, #-4]
     e04:	01010100 	mrseq	r0, (UNDEF: 17)
     e08:	00000001 	andeq	r0, r0, r1
     e0c:	01000001 	tsteq	r0, r1
     e10:	66617473 			; <UNDEFINED> instruction: 0x66617473
     e14:	72732d66 	rsbsvc	r2, r3, #6528	; 0x1980
     e18:	552f0063 	strpl	r0, [pc, #-99]!	; dbd <__code_start__-0x7243>
     e1c:	73726573 	cmnvc	r2, #482344960	; 0x1cc00000
     e20:	6972622f 	ldmdbvs	r2!, {r0, r1, r2, r3, r5, r9, sp, lr}^
     e24:	756a6e61 	strbvc	r6, [sl, #-3681]!	; 0xe61
     e28:	65442f6e 	strbvs	r2, [r4, #-3950]	; 0xf6e
     e2c:	6f746b73 	svcvs	0x00746b73
     e30:	63732f70 	cmnvs	r3, #112, 30	; 0x1c0
     e34:	6c6f6f68 	stclvs	15, cr6, [pc], #-416	; c9c <__code_start__-0x7364>
     e38:	7270532f 	rsbsvc	r5, r0, #-1140850688	; 0xbc000000
     e3c:	31676e69 	cmncc	r7, r9, ror #28
     e40:	2f303239 	svccs	0x00303239
     e44:	34325343 	ldrtcc	r5, [r2], #-835	; 0x343
     e48:	2f584c30 	svccs	0x00584c30
     e4c:	34327363 	ldrtcc	r7, [r2], #-867	; 0x363
     e50:	2d786c30 	ldclcs	12, cr6, [r8, #-192]!	; 0xffffff40
     e54:	70733032 	rsbsvc	r3, r3, r2, lsr r0
     e58:	696c2f72 	stmdbvs	ip!, {r1, r4, r5, r6, r8, r9, sl, fp, sp}^
     e5c:	2f697062 	svccs	0x00697062
     e60:	6c636e69 	stclvs	14, cr6, [r3], #-420	; 0xfffffe5c
     e64:	00656475 	rsbeq	r6, r5, r5, ror r4
     e68:	66656400 	strbtvs	r6, [r5], -r0, lsl #8
     e6c:	746c7561 	strbtvc	r7, [ip], #-1377	; 0x561
     e70:	6e61682d 	cdpvs	8, 6, cr6, cr1, cr13, {1}
     e74:	72656c64 	rsbvc	r6, r5, #100, 24	; 0x6400
     e78:	646e752d 	strbtvs	r7, [lr], #-1325	; 0x52d
     e7c:	6e696665 	cdpvs	6, 6, cr6, cr9, cr5, {3}
     e80:	692d6465 	pushvs	{r0, r2, r5, r6, sl, sp, lr}
     e84:	2e74736e 	cdpcs	3, 7, cr7, cr4, cr14, {3}
     e88:	00010063 	andeq	r0, r1, r3, rrx
     e8c:	69707200 	ldmdbvs	r0!, {r9, ip, sp, lr}^
     e90:	0200682e 	andeq	r6, r0, #3014656	; 0x2e0000
     e94:	00000000 	andeq	r0, r0, r0
     e98:	99d80205 	ldmibls	r8, {r0, r2, r9}^
     e9c:	66130000 	ldrvs	r0, [r3], -r0
     ea0:	01001c02 	tsteq	r0, r2, lsl #24
     ea4:	00004701 	andeq	r4, r0, r1, lsl #14
     ea8:	33000200 	movwcc	r0, #512	; 0x200
     eac:	02000000 	andeq	r0, r0, #0
     eb0:	0d0efb01 	vstreq	d15, [lr, #-4]
     eb4:	01010100 	mrseq	r0, (UNDEF: 17)
     eb8:	00000001 	andeq	r0, r0, r1
     ebc:	01000001 	tsteq	r0, r1
     ec0:	66617473 			; <UNDEFINED> instruction: 0x66617473
     ec4:	72732d66 	rsbsvc	r2, r3, #6528	; 0x1980
     ec8:	64000063 	strvs	r0, [r0], #-99	; 0x63
     ecc:	75616665 	strbvc	r6, [r1, #-1637]!	; 0x665
     ed0:	682d746c 	stmdavs	sp!, {r2, r3, r5, r6, sl, ip, sp, lr}
     ed4:	6c646e61 	stclvs	14, cr6, [r4], #-388	; 0xfffffe7c
     ed8:	2e737265 	cdpcs	2, 7, cr7, cr3, cr5, {3}
     edc:	00010063 	andeq	r0, r1, r3, rrx
     ee0:	05000000 	streq	r0, [r0, #-0]
     ee4:	009a1c02 	addseq	r1, sl, r2, lsl #24
     ee8:	022f1500 	eoreq	r1, pc, #0, 10
     eec:	01010002 	tsteq	r1, r2
     ef0:	000000c9 	andeq	r0, r0, r9, asr #1
     ef4:	009a0002 	addseq	r0, sl, r2
     ef8:	01020000 	mrseq	r0, (UNDEF: 2)
     efc:	000d0efb 	strdeq	r0, [sp], -fp
     f00:	01010101 	tsteq	r1, r1, lsl #2
     f04:	01000000 	mrseq	r0, (UNDEF: 0)
     f08:	73010000 	movwvc	r0, #4096	; 0x1000
     f0c:	66666174 			; <UNDEFINED> instruction: 0x66666174
     f10:	6372732d 	cmnvs	r2, #-1275068416	; 0xb4000000
     f14:	73552f00 	cmpvc	r5, #0, 30
     f18:	2f737265 	svccs	0x00737265
     f1c:	61697262 	cmnvs	r9, r2, ror #4
     f20:	6e756a6e 	vsubvs.f32	s13, s10, s29
     f24:	7365442f 	cmnvc	r5, #788529152	; 0x2f000000
     f28:	706f746b 	rsbvc	r7, pc, fp, ror #8
     f2c:	6863732f 	stmdavs	r3!, {r0, r1, r2, r3, r5, r8, r9, ip, sp, lr}^
     f30:	2f6c6f6f 	svccs	0x006c6f6f
     f34:	69727053 	ldmdbvs	r2!, {r0, r1, r4, r6, ip, sp, lr}^
     f38:	3931676e 	ldmdbcc	r1!, {r1, r2, r3, r5, r6, r8, r9, sl, sp, lr}
     f3c:	432f3032 	teqmi	pc, #50	; 0x32
     f40:	30343253 	eorscc	r3, r4, r3, asr r2
     f44:	632f584c 	teqvs	pc, #76, 16	; 0x4c0000
     f48:	30343273 	eorscc	r3, r4, r3, ror r2
     f4c:	322d786c 	eorcc	r7, sp, #108, 16	; 0x6c0000
     f50:	72707330 	rsbsvc	r7, r0, #48, 6	; 0xc0000000
     f54:	62696c2f 	rsbvs	r6, r9, #12032	; 0x2f00
     f58:	692f6970 	stmdbvs	pc!, {r4, r5, r6, r8, fp, sp, lr}	; <UNPREDICTABLE>
     f5c:	756c636e 	strbvc	r6, [ip, #-878]!	; 0x36e
     f60:	00006564 	andeq	r6, r0, r4, ror #10
     f64:	65746e69 	ldrbvs	r6, [r4, #-3689]!	; 0xe69
     f68:	70757272 	rsbsvc	r7, r5, r2, ror r2
     f6c:	632d7374 	teqvs	sp, #116, 6	; 0xd0000001
     f70:	0100632e 	tsteq	r0, lr, lsr #6
     f74:	70720000 	rsbsvc	r0, r2, r0
     f78:	6e692d69 	cdpvs	13, 6, cr2, cr9, cr9, {3}
     f7c:	72726574 	rsbsvc	r6, r2, #116, 10	; 0x1d000000
     f80:	73747075 	cmnvc	r4, #117	; 0x75
     f84:	0200682e 	andeq	r6, r0, #3014656	; 0x2e0000
     f88:	70720000 	rsbsvc	r0, r2, r0
     f8c:	00682e69 	rsbeq	r2, r8, r9, ror #28
     f90:	00000002 	andeq	r0, r0, r2
     f94:	24020500 	strcs	r0, [r2], #-1280	; 0x500
     f98:	0300009a 	movweq	r0, #154	; 0x9a
     f9c:	2f31011a 	svccs	0x0031011a
     fa0:	83366767 	teqhi	r6, #27000832	; 0x19c0000
     fa4:	02002d2f 	andeq	r2, r0, #3008	; 0xbc0
     fa8:	002f0204 	eoreq	r0, pc, r4, lsl #4
     fac:	65020402 	strvs	r0, [r2, #-1026]	; 0x402
     fb0:	01040200 	mrseq	r0, R12_usr
     fb4:	4c062e06 	stcmi	14, cr2, [r6], {6}
     fb8:	01000a02 	tsteq	r0, r2, lsl #20
     fbc:	0000a201 	andeq	sl, r0, r1, lsl #4
     fc0:	80000200 	andhi	r0, r0, r0, lsl #4
     fc4:	02000000 	andeq	r0, r0, #0
     fc8:	0d0efb01 	vstreq	d15, [lr, #-4]
     fcc:	01010100 	mrseq	r0, (UNDEF: 17)
     fd0:	00000001 	andeq	r0, r0, r1
     fd4:	01000001 	tsteq	r0, r1
     fd8:	66617473 			; <UNDEFINED> instruction: 0x66617473
     fdc:	72732d66 	rsbsvc	r2, r3, #6528	; 0x1980
     fe0:	552f0063 	strpl	r0, [pc, #-99]!	; f85 <__code_start__-0x707b>
     fe4:	73726573 	cmnvc	r2, #482344960	; 0x1cc00000
     fe8:	6972622f 	ldmdbvs	r2!, {r0, r1, r2, r3, r5, r9, sp, lr}^
     fec:	756a6e61 	strbvc	r6, [sl, #-3681]!	; 0xe61
     ff0:	65442f6e 	strbvs	r2, [r4, #-3950]	; 0xf6e
     ff4:	6f746b73 	svcvs	0x00746b73
     ff8:	63732f70 	cmnvs	r3, #112, 30	; 0x1c0
     ffc:	6c6f6f68 	stclvs	15, cr6, [pc], #-416	; e64 <__code_start__-0x719c>
    1000:	7270532f 	rsbsvc	r5, r0, #-1140850688	; 0xbc000000
    1004:	31676e69 	cmncc	r7, r9, ror #28
    1008:	2f303239 	svccs	0x00303239
    100c:	34325343 	ldrtcc	r5, [r2], #-835	; 0x343
    1010:	2f584c30 	svccs	0x00584c30
    1014:	34327363 	ldrtcc	r7, [r2], #-867	; 0x363
    1018:	2d786c30 	ldclcs	12, cr6, [r8, #-192]!	; 0xffffff40
    101c:	70733032 	rsbsvc	r3, r3, r2, lsr r0
    1020:	696c2f72 	stmdbvs	ip!, {r1, r4, r5, r6, r8, r9, sl, fp, sp}^
    1024:	2f697062 	svccs	0x00697062
    1028:	6c636e69 	stclvs	14, cr6, [r3], #-420	; 0xfffffe5c
    102c:	00656475 	rsbeq	r6, r5, r5, ror r4
    1030:	62657200 	rsbvs	r7, r5, #0, 4
    1034:	2e746f6f 	cdpcs	15, 7, cr6, cr4, cr15, {3}
    1038:	00010063 	andeq	r0, r1, r3, rrx
    103c:	69707200 	ldmdbvs	r0!, {r9, ip, sp, lr}^
    1040:	0200682e 	andeq	r6, r0, #3014656	; 0x2e0000
    1044:	00000000 	andeq	r0, r0, r0
    1048:	9a900205 	bls	fe401864 <__bss_end__+0xfe3f6ccc>
    104c:	0d030000 	stceq	0, cr0, [r3, #-0]
    1050:	2f311401 	svccs	0x00311401
    1054:	4b2f1585 	blmi	bc6670 <__bss_end__+0xbbbad8>
    1058:	35672f4d 	strbcc	r2, [r7, #-3917]!	; 0xf4d
    105c:	10026752 	andne	r6, r2, r2, asr r7
    1060:	ae010100 	adfges	f0, f1, f0
    1064:	02000000 	andeq	r0, r0, #0
    1068:	00007f00 	andeq	r7, r0, r0, lsl #30
    106c:	fb010200 	blx	41876 <__bss_end__+0x36cde>
    1070:	01000d0e 	tsteq	r0, lr, lsl #26
    1074:	00010101 	andeq	r0, r1, r1, lsl #2
    1078:	00010000 	andeq	r0, r1, r0
    107c:	74730100 	ldrbtvc	r0, [r3], #-256	; 0x100
    1080:	2d666661 	stclcs	6, cr6, [r6, #-388]!	; 0xfffffe7c
    1084:	00637273 	rsbeq	r7, r3, r3, ror r2
    1088:	6573552f 	ldrbvs	r5, [r3, #-1327]!	; 0x52f
    108c:	622f7372 	eorvs	r7, pc, #-939524095	; 0xc8000001
    1090:	6e616972 	mcrvs	9, 3, r6, cr1, cr2, {3}
    1094:	2f6e756a 	svccs	0x006e756a
    1098:	6b736544 	blvs	1cda5b0 <__bss_end__+0x1ccfa18>
    109c:	2f706f74 	svccs	0x00706f74
    10a0:	6f686373 	svcvs	0x00686373
    10a4:	532f6c6f 	teqpl	pc, #28416	; 0x6f00
    10a8:	6e697270 	mcrvs	2, 3, r7, cr9, cr0, {3}
    10ac:	32393167 	eorscc	r3, r9, #-1073741799	; 0xc0000019
    10b0:	53432f30 	movtpl	r2, #16176	; 0x3f30
    10b4:	4c303432 	cfldrsmi	mvf3, [r0], #-200	; 0xffffff38
    10b8:	73632f58 	cmnvc	r3, #88, 30	; 0x160
    10bc:	6c303432 	cfldrsvs	mvf3, [r0], #-200	; 0xffffff38
    10c0:	30322d78 	eorscc	r2, r2, r8, ror sp
    10c4:	2f727073 	svccs	0x00727073
    10c8:	7062696c 	rsbvc	r6, r2, ip, ror #18
    10cc:	6e692f69 	cdpvs	15, 6, cr2, cr9, cr9, {3}
    10d0:	64756c63 	ldrbtvs	r6, [r5], #-3171	; 0xc63
    10d4:	74000065 	strvc	r0, [r0], #-101	; 0x65
    10d8:	72656d69 	rsbvc	r6, r5, #6720	; 0x1a40
    10dc:	0100632e 	tsteq	r0, lr, lsr #6
    10e0:	70720000 	rsbsvc	r0, r2, r0
    10e4:	00682e69 	rsbeq	r2, r8, r9, ror #28
    10e8:	00000002 	andeq	r0, r0, r2
    10ec:	04020500 	streq	r0, [r2], #-1280	; 0x500
    10f0:	1600009b 			; <UNDEFINED> instruction: 0x1600009b
    10f4:	002d2f14 	eoreq	r2, sp, r4, lsl pc
    10f8:	06010402 	streq	r0, [r1], -r2, lsl #8
    10fc:	316d062e 	cmncc	sp, lr, lsr #12
    1100:	314d4b2f 	cmpcc	sp, pc, lsr #22
    1104:	4c304b2f 	ldcmi	11, cr4, [r0], #-188	; 0xffffff44
    1108:	6a2f4c4b 	bvs	bd423c <__bss_end__+0xbc96a4>
    110c:	2f842f2f 	svccs	0x00842f2f
    1110:	01000802 	tsteq	r0, r2, lsl #16
    1114:	00014801 	andeq	r4, r1, r1, lsl #16
    1118:	02000200 	andeq	r0, r0, #0, 4
    111c:	02000001 	andeq	r0, r0, #1
    1120:	0d0efb01 	vstreq	d15, [lr, #-4]
    1124:	01010100 	mrseq	r0, (UNDEF: 17)
    1128:	00000001 	andeq	r0, r0, r1
    112c:	01000001 	tsteq	r0, r1
    1130:	7273752f 	rsbsvc	r7, r3, #197132288	; 0xbc00000
    1134:	636e692f 	cmnvs	lr, #770048	; 0xbc000
    1138:	6564756c 	strbvs	r7, [r4, #-1388]!	; 0x56c
    113c:	77656e2f 	strbvc	r6, [r5, -pc, lsr #28]!
    1140:	2f62696c 	svccs	0x0062696c
    1144:	00737973 	rsbseq	r7, r3, r3, ror r9
    1148:	7273752f 	rsbsvc	r7, r3, #197132288	; 0xbc00000
    114c:	62696c2f 	rsbvs	r6, r9, #12032	; 0x2f00
    1150:	6363672f 	cmnvs	r3, #12320768	; 0xbc0000
    1154:	6d72612f 	ldfvse	f6, [r2, #-188]!	; 0xffffff44
    1158:	6e6f6e2d 	cdpvs	14, 6, cr6, cr15, cr13, {1}
    115c:	61652d65 	cmnvs	r5, r5, ror #26
    1160:	362f6962 	strtcc	r6, [pc], -r2, ror #18
    1164:	312e332e 	teqcc	lr, lr, lsr #6
    1168:	636e692f 	cmnvs	lr, #770048	; 0xbc000
    116c:	6564756c 	strbvs	r7, [r4, #-1388]!	; 0x56c
    1170:	6f682f00 	svcvs	0x00682f00
    1174:	652f656d 	strvs	r6, [pc, #-1389]!	; c0f <__code_start__-0x73f1>
    1178:	656c676e 	strbvs	r6, [ip, #-1902]!	; 0x76e
    117c:	6c632f72 	stclvs	15, cr2, [r3], #-456	; 0xfffffe38
    1180:	2f737361 	svccs	0x00737361
    1184:	34327363 	ldrtcc	r7, [r2], #-867	; 0x363
    1188:	2d786c30 	ldclcs	12, cr6, [r8, #-192]!	; 0xffffff40
    118c:	70733032 	rsbsvc	r3, r3, r2, lsr r0
    1190:	6c2f2f72 	stcvs	15, cr2, [pc], #-456	; fd0 <__code_start__-0x7030>
    1194:	69706269 	ldmdbvs	r0!, {r0, r3, r5, r6, r9, sp, lr}^
    1198:	6f682f00 	svcvs	0x00682f00
    119c:	652f656d 	strvs	r6, [pc, #-1389]!	; c37 <__code_start__-0x73c9>
    11a0:	656c676e 	strbvs	r6, [ip, #-1902]!	; 0x76e
    11a4:	6c632f72 	stclvs	15, cr2, [r3], #-456	; 0xfffffe38
    11a8:	2f737361 	svccs	0x00737361
    11ac:	34327363 	ldrtcc	r7, [r2], #-867	; 0x363
    11b0:	2d786c30 	ldclcs	12, cr6, [r8, #-192]!	; 0xffffff40
    11b4:	70733032 	rsbsvc	r3, r3, r2, lsr r0
    11b8:	6c2f2f72 	stcvs	15, cr2, [pc], #-456	; ff8 <__code_start__-0x7008>
    11bc:	69706269 	ldmdbvs	r0!, {r0, r3, r5, r6, r9, sp, lr}^
    11c0:	6174732f 	cmnvs	r4, pc, lsr #6
    11c4:	732d6666 	teqvc	sp, #106954752	; 0x6600000
    11c8:	00006372 	andeq	r6, r0, r2, ror r3
    11cc:	74726175 	ldrbtvc	r6, [r2], #-373	; 0x175
    11d0:	0000632e 	andeq	r6, r0, lr, lsr #6
    11d4:	6f6c0000 	svcvs	0x006c0000
    11d8:	682e6b63 	stmdavs	lr!, {r0, r1, r5, r6, r8, r9, fp, sp, lr}
    11dc:	00000100 	andeq	r0, r0, r0, lsl #2
    11e0:	7079745f 	rsbsvc	r7, r9, pc, asr r4
    11e4:	682e7365 	stmdavs	lr!, {r0, r2, r5, r6, r8, r9, ip, sp, lr}
    11e8:	00000100 	andeq	r0, r0, r0, lsl #2
    11ec:	64647473 	strbtvs	r7, [r4], #-1139	; 0x473
    11f0:	682e6665 	stmdavs	lr!, {r0, r2, r5, r6, r9, sl, sp, lr}
    11f4:	00000200 	andeq	r0, r0, r0, lsl #4
    11f8:	6e656572 	mcrvs	5, 3, r6, cr5, cr2, {3}
    11fc:	00682e74 	rsbeq	r2, r8, r4, ror lr
    1200:	72000001 	andvc	r0, r0, #1
    1204:	682e6970 	stmdavs	lr!, {r4, r5, r6, r8, fp, sp, lr}
    1208:	00000300 	andeq	r0, r0, r0, lsl #6
    120c:	74726175 	ldrbtvc	r6, [r2], #-373	; 0x175
    1210:	0400682e 	streq	r6, [r0], #-2094	; 0x82e
    1214:	70670000 	rsbvc	r0, r7, r0
    1218:	682e6f69 	stmdavs	lr!, {r0, r3, r5, r6, r8, r9, sl, fp, sp, lr}
    121c:	00000400 	andeq	r0, r0, r0, lsl #8
    1220:	02050000 	andeq	r0, r5, #0
    1224:	00009c00 	andeq	r9, r0, r0, lsl #24
    1228:	67012c03 	strvs	r2, [r1, -r3, lsl #24]
    122c:	359e0c03 	ldrcc	r0, [lr, #3075]	; 0xc03
    1230:	68356867 	ldmdavs	r5!, {r0, r1, r2, r5, r6, fp, sp, lr}
    1234:	852e0c03 	strhi	r0, [lr, #-3075]!	; 0xc03
    1238:	0369696b 	cmneq	r9, #1753088	; 0x1ac000
    123c:	676b660c 	strbvs	r6, [fp, -ip, lsl #12]!
    1240:	68344208 	ldmdavs	r4!, {r3, r9, lr}
    1244:	8768364b 	strbhi	r3, [r8, -fp, asr #12]!
    1248:	0402002f 	streq	r0, [r2], #-47	; 0x2f
    124c:	67682f01 	strbvs	r2, [r8, -r1, lsl #30]!
    1250:	004b6730 	subeq	r6, fp, r0, lsr r7
    1254:	2f010402 	svccs	0x00010402
    1258:	2e696768 	cdpcs	7, 6, cr6, cr9, cr8, {3}
    125c:	01000602 	tsteq	r0, r2, lsl #12
    1260:	00012b01 	andeq	r2, r1, r1, lsl #22
    1264:	f8000200 			; <UNDEFINED> instruction: 0xf8000200
    1268:	02000000 	andeq	r0, r0, #0
    126c:	0d0efb01 	vstreq	d15, [lr, #-4]
    1270:	01010100 	mrseq	r0, (UNDEF: 17)
    1274:	00000001 	andeq	r0, r0, r1
    1278:	01000001 	tsteq	r0, r1
    127c:	7273752f 	rsbsvc	r7, r3, #197132288	; 0xbc00000
    1280:	636e692f 	cmnvs	lr, #770048	; 0xbc000
    1284:	6564756c 	strbvs	r7, [r4, #-1388]!	; 0x56c
    1288:	77656e2f 	strbvc	r6, [r5, -pc, lsr #28]!
    128c:	2f62696c 	svccs	0x0062696c
    1290:	00737973 	rsbseq	r7, r3, r3, ror r9
    1294:	7273752f 	rsbsvc	r7, r3, #197132288	; 0xbc00000
    1298:	62696c2f 	rsbvs	r6, r9, #12032	; 0x2f00
    129c:	6363672f 	cmnvs	r3, #12320768	; 0xbc0000
    12a0:	6d72612f 	ldfvse	f6, [r2, #-188]!	; 0xffffff44
    12a4:	6e6f6e2d 	cdpvs	14, 6, cr6, cr15, cr13, {1}
    12a8:	61652d65 	cmnvs	r5, r5, ror #26
    12ac:	362f6962 	strtcc	r6, [pc], -r2, ror #18
    12b0:	312e332e 	teqcc	lr, lr, lsr #6
    12b4:	636e692f 	cmnvs	lr, #770048	; 0xbc000
    12b8:	6564756c 	strbvs	r7, [r4, #-1388]!	; 0x56c
    12bc:	6f682f00 	svcvs	0x00682f00
    12c0:	652f656d 	strvs	r6, [pc, #-1389]!	; d5b <__code_start__-0x72a5>
    12c4:	656c676e 	strbvs	r6, [ip, #-1902]!	; 0x76e
    12c8:	6c632f72 	stclvs	15, cr2, [r3], #-456	; 0xfffffe38
    12cc:	2f737361 	svccs	0x00737361
    12d0:	34327363 	ldrtcc	r7, [r2], #-867	; 0x363
    12d4:	2d786c30 	ldclcs	12, cr6, [r8, #-192]!	; 0xffffff40
    12d8:	70733032 	rsbsvc	r3, r3, r2, lsr r0
    12dc:	6c2f2f72 	stcvs	15, cr2, [pc], #-456	; 111c <__code_start__-0x6ee4>
    12e0:	69706269 	ldmdbvs	r0!, {r0, r3, r5, r6, r9, sp, lr}^
    12e4:	6f682f00 	svcvs	0x00682f00
    12e8:	652f656d 	strvs	r6, [pc, #-1389]!	; d83 <__code_start__-0x727d>
    12ec:	656c676e 	strbvs	r6, [ip, #-1902]!	; 0x76e
    12f0:	6c632f72 	stclvs	15, cr2, [r3], #-456	; 0xfffffe38
    12f4:	2f737361 	svccs	0x00737361
    12f8:	34327363 	ldrtcc	r7, [r2], #-867	; 0x363
    12fc:	2d786c30 	ldclcs	12, cr6, [r8, #-192]!	; 0xffffff40
    1300:	70733032 	rsbsvc	r3, r3, r2, lsr r0
    1304:	6c2f2f72 	stcvs	15, cr2, [pc], #-456	; 1144 <__code_start__-0x6ebc>
    1308:	69706269 	ldmdbvs	r0!, {r0, r3, r5, r6, r9, sp, lr}^
    130c:	6174732f 	cmnvs	r4, pc, lsr #6
    1310:	732d6666 	teqvc	sp, #106954752	; 0x6600000
    1314:	00006372 	andeq	r6, r0, r2, ror r3
    1318:	6f697067 	svcvs	0x00697067
    131c:	0000632e 	andeq	r6, r0, lr, lsr #6
    1320:	6f6c0000 	svcvs	0x006c0000
    1324:	682e6b63 	stmdavs	lr!, {r0, r1, r5, r6, r8, r9, fp, sp, lr}
    1328:	00000100 	andeq	r0, r0, r0, lsl #2
    132c:	7079745f 	rsbsvc	r7, r9, pc, asr r4
    1330:	682e7365 	stmdavs	lr!, {r0, r2, r5, r6, r8, r9, ip, sp, lr}
    1334:	00000100 	andeq	r0, r0, r0, lsl #2
    1338:	64647473 	strbtvs	r7, [r4], #-1139	; 0x473
    133c:	682e6665 	stmdavs	lr!, {r0, r2, r5, r6, r9, sl, sp, lr}
    1340:	00000200 	andeq	r0, r0, r0, lsl #4
    1344:	6e656572 	mcrvs	5, 3, r6, cr5, cr2, {3}
    1348:	00682e74 	rsbeq	r2, r8, r4, ror lr
    134c:	72000001 	andvc	r0, r0, #1
    1350:	682e6970 	stmdavs	lr!, {r4, r5, r6, r8, fp, sp, lr}
    1354:	00000300 	andeq	r0, r0, r0, lsl #6
    1358:	6f697067 	svcvs	0x00697067
    135c:	0400682e 	streq	r6, [r0], #-2094	; 0x82e
    1360:	00000000 	andeq	r0, r0, r0
    1364:	9d780205 	lfmls	f0, 2, [r8, #-20]!	; 0xffffffec
    1368:	27030000 	strcs	r0, [r3, -r0]
    136c:	474c1301 	strbmi	r1, [ip, -r1, lsl #6]
    1370:	4b68f44f 	blmi	1a3e4b4 <__bss_end__+0x1a3391c>
    1374:	6a2fa14c 	bvs	be98ac <__bss_end__+0xbded14>
    1378:	be314913 	mrclt	9, 1, r4, cr1, cr3, {0}
    137c:	be314913 	mrclt	9, 1, r4, cr1, cr3, {0}
    1380:	4d2f6a2f 	vstmdbmi	pc!, {s12-s58}
    1384:	49134f48 	ldmdbmi	r3, {r3, r6, r8, r9, sl, fp, lr}
    1388:	02b72f32 	adcseq	r2, r7, #50, 30	; 0xc8
    138c:	01010006 	tsteq	r1, r6

Disassembly of section .debug_str:

00000000 <.debug_str>:
   0:	5f737973 	svcpl	0x00737973
   4:	6b636f6c 	blvs	18dbdbc <__bss_end__+0x18d1224>
   8:	7972745f 	ldmdbvc	r2!, {r0, r1, r2, r3, r4, r6, sl, ip, sp, lr}^
   c:	73552f00 	cmpvc	r5, #0, 30
  10:	2f737265 	svccs	0x00737265
  14:	61697262 	cmnvs	r9, r2, ror #4
  18:	6e756a6e 	vsubvs.f32	s13, s10, s29
  1c:	7365442f 	cmnvc	r5, #788529152	; 0x2f000000
  20:	706f746b 	rsbvc	r7, pc, fp, ror #8
  24:	6863732f 	stmdavs	r3!, {r0, r1, r2, r3, r5, r8, r9, ip, sp, lr}^
  28:	2f6c6f6f 	svccs	0x006c6f6f
  2c:	69727053 	ldmdbvs	r2!, {r0, r1, r4, r6, ip, sp, lr}^
  30:	3931676e 	ldmdbcc	r1!, {r1, r2, r3, r5, r6, r8, r9, sl, sp, lr}
  34:	432f3032 	teqmi	pc, #50	; 0x32
  38:	30343253 	eorscc	r3, r4, r3, asr r2
  3c:	632f584c 	teqvs	pc, #76, 16	; 0x4c0000
  40:	30343273 	eorscc	r3, r4, r3, ror r2
  44:	322d786c 	eorcc	r7, sp, #108, 16	; 0x6c0000
  48:	72707330 	rsbsvc	r7, r0, #48, 6	; 0xc0000000
  4c:	62616c2f 	rsbvs	r6, r1, #12032	; 0x2f00
  50:	37312f73 			; <UNDEFINED> instruction: 0x37312f73
  54:	6d656d2d 	stclvs	13, cr6, [r5, #-180]!	; 0xffffff4c
  58:	63656863 	cmnvs	r5, #6488064	; 0x630000
  5c:	61702f6b 	cmnvs	r0, fp, ror #30
  60:	2d317472 	cfldrscs	mvf7, [r1, #-456]!	; 0xfffffe38
  64:	676e6973 			; <UNDEFINED> instruction: 0x676e6973
  68:	732d656c 	teqvc	sp, #108, 10	; 0x1b000000
  6c:	2f706574 	svccs	0x00706574
  70:	65646f63 	strbvs	r6, [r4, #-3939]!	; 0xf63
  74:	69777300 	ldmdbvs	r7!, {r8, r9, ip, sp, lr}^
  78:	5f686374 	svcpl	0x00686374
  7c:	72646461 	rsbvc	r6, r4, #1627389952	; 0x61000000
  80:	736e6900 	cmnvc	lr, #0, 18
  84:	6f635f74 	svcvs	0x00635f74
  88:	00746e75 	rsbseq	r6, r4, r5, ror lr
  8c:	6d746f6e 	ldclvs	15, cr6, [r4, #-440]!	; 0xfffffe48
  90:	006e6961 	rsbeq	r6, lr, r1, ror #18
  94:	676e6f6c 	strbvs	r6, [lr, -ip, ror #30]!
  98:	6e6f6c20 	cdpvs	12, 6, cr6, cr15, cr0, {1}
  9c:	6e752067 	cdpvs	0, 7, cr2, cr5, cr7, {3}
  a0:	6e676973 	mcrvs	9, 3, r6, cr7, cr3, {3}
  a4:	69206465 	stmdbvs	r0!, {r0, r2, r5, r6, sl, sp, lr}
  a8:	6c00746e 	cfstrsvs	mvf7, [r0], {110}	; 0x6e
  ac:	20676e6f 	rsbcs	r6, r7, pc, ror #28
  b0:	676e6f6c 	strbvs	r6, [lr, -ip, ror #30]!
  b4:	746e6920 	strbtvc	r6, [lr], #-2336	; 0x920
  b8:	73706300 	cmnvc	r0, #0, 6
  bc:	65675f72 	strbvs	r5, [r7, #-3954]!	; 0xf72
  c0:	6e630074 	mcrvs	0, 3, r0, cr3, cr4, {3}
  c4:	00415f74 	subeq	r5, r1, r4, ror pc
  c8:	5f746e63 	svcpl	0x00746e63
  cc:	6b730042 	blvs	1cc01dc <__bss_end__+0x1cb5644>
  d0:	00737069 	rsbseq	r7, r3, r9, rrx
  d4:	5f697072 	svcpl	0x00697072
  d8:	65736572 	ldrbvs	r6, [r3, #-1394]!	; 0x572
  dc:	75705f74 	ldrbvc	r5, [r0, #-3956]!	; 0xf74
  e0:	5f006374 	svcpl	0x00006374
  e4:	4e55465f 	mrcmi	6, 2, r4, cr5, cr15, {2}
  e8:	4f495443 	svcmi	0x00495443
  ec:	005f5f4e 	subseq	r5, pc, lr, asr #30
  f0:	726f6873 	rsbvc	r6, pc, #7536640	; 0x730000
  f4:	6e752074 	mrcvs	0, 3, r2, cr5, cr4, {3}
  f8:	6e676973 	mcrvs	9, 3, r6, cr7, cr3, {3}
  fc:	69206465 	stmdbvs	r0!, {r0, r2, r5, r6, sl, sp, lr}
 100:	7300746e 	movwvc	r7, #1134	; 0x46e
 104:	745f7379 	ldrbvc	r7, [pc], #-889	; 10c <__code_start__-0x7ef4>
 108:	6c5f7972 	mrrcvs	9, 7, r7, pc, cr2	; <UNPREDICTABLE>
 10c:	5f6b636f 	svcpl	0x006b636f
 110:	006d7361 	rsbeq	r7, sp, r1, ror #6
 114:	61656c63 	cmnvs	r5, r3, ror #24
 118:	65725f6e 	ldrbvs	r5, [r2, #-3950]!	; 0xf6e
 11c:	746f6f62 	strbtvc	r6, [pc], #-3938	; 124 <__code_start__-0x7edc>
 120:	7a697300 	bvc	1a5cd28 <__bss_end__+0x1a52190>
 124:	70797465 	rsbsvc	r7, r9, r5, ror #8
 128:	6f6d0065 	svcvs	0x006d0065
 12c:	735f6564 	cmpvc	pc, #100, 10	; 0x19000000
 130:	6e007274 	mcrvs	2, 0, r7, cr0, cr4, {3}
 134:	61697274 	smcvs	38692	; 0x9724
 138:	6300736c 	movwvs	r7, #876	; 0x36c
 13c:	6d5f746e 	cfldrdvs	mvd7, [pc, #-440]	; ffffff8c <__bss_end__+0xffff53f4>
 140:	68635f6b 	stmdavs	r3!, {r0, r1, r3, r5, r6, r8, r9, sl, fp, ip, lr}^
 144:	656b6365 	strbvs	r6, [fp, #-869]!	; 0x365
 148:	65740072 	ldrbvs	r0, [r4, #-114]!	; 0x72
 14c:	32737473 	rsbscc	r7, r3, #1929379840	; 0x73000000
 150:	312f302e 	teqcc	pc, lr, lsr #32
 154:	61702d36 	cmnvs	r0, r6, lsr sp
 158:	2d327472 	cfldrscs	mvf7, [r2, #-456]!	; 0xfffffe38
 15c:	74736574 	ldrbtvc	r6, [r3], #-1396	; 0x574
 160:	00632e39 	rsbeq	r2, r3, r9, lsr lr
 164:	5f737973 	svcpl	0x00737973
 168:	6b636f6c 	blvs	18dbf20 <__bss_end__+0x18d1388>
 16c:	696e695f 	stmdbvs	lr!, {r0, r1, r2, r3, r4, r6, r8, fp, sp, lr}^
 170:	68630074 	stmdavs	r3!, {r2, r4, r5, r6}^
 174:	656b6365 	strbvs	r6, [fp, #-869]!	; 0x365
 178:	00745f72 	rsbseq	r5, r4, r2, ror pc
 17c:	69736e75 	ldmdbvs	r3!, {r0, r2, r4, r5, r6, r9, sl, fp, sp, lr}^
 180:	64656e67 	strbtvs	r6, [r5], #-3687	; 0xe67
 184:	61686320 	cmnvs	r8, r0, lsr #6
 188:	72620072 	rsbvc	r0, r2, #114	; 0x72
 18c:	65765f6b 	ldrbvs	r5, [r6, #-3947]!	; 0xf6b
 190:	736f6272 	cmnvc	pc, #536870919	; 0x20000007
 194:	00705f65 	rsbseq	r5, r0, r5, ror #30
 198:	73746962 	cmnvc	r4, #1605632	; 0x188000
 19c:	7465675f 	strbtvc	r6, [r5], #-1887	; 0x75f
 1a0:	6f687300 	svcvs	0x00687300
 1a4:	69207472 	stmdbvs	r0!, {r1, r4, r5, r6, sl, ip, sp, lr}
 1a8:	6300746e 	movwvs	r7, #1134	; 0x46e
 1ac:	00727370 	rsbseq	r7, r2, r0, ror r3
 1b0:	65746e69 	ldrbvs	r6, [r4, #-3689]!	; 0xe69
 1b4:	61656c72 	smcvs	22210	; 0x56c2
 1b8:	676e6976 			; <UNDEFINED> instruction: 0x676e6976
 1bc:	6d00705f 	stcvs	0, cr7, [r0, #-380]	; 0xfffffe84
 1c0:	5f65646f 	svcpl	0x0065646f
 1c4:	6167656c 	cmnvs	r7, ip, ror #10
 1c8:	6f6d006c 	svcvs	0x006d006c
 1cc:	675f6564 	ldrbvs	r6, [pc, -r4, ror #10]
 1d0:	75007465 	strvc	r7, [r0, #-1125]	; 0x465
 1d4:	33746e69 	cmncc	r4, #1680	; 0x690
 1d8:	00745f32 	rsbseq	r5, r4, r2, lsr pc
 1dc:	65646f6d 	strbvs	r6, [r4, #-3949]!	; 0xf6d
 1e0:	72656e00 	rsbvc	r6, r5, #0, 28
 1e4:	73726f72 	cmnvc	r2, #456	; 0x1c8
 1e8:	746e6300 	strbtvc	r6, [lr], #-768	; 0x300
 1ec:	696e695f 	stmdbvs	lr!, {r0, r1, r2, r3, r4, r6, r8, fp, sp, lr}^
 1f0:	6e630074 	mcrvs	0, 3, r0, cr3, cr4, {3}
 1f4:	68635f74 	stmdavs	r3!, {r2, r4, r5, r6, r8, r9, sl, fp, ip, lr}^
 1f8:	006b6365 	rsbeq	r6, fp, r5, ror #6
 1fc:	62616e65 	rsbvs	r6, r1, #1616	; 0x650
 200:	635f656c 	cmpvs	pc, #108, 10	; 0x1b000000
 204:	65686361 	strbvs	r6, [r8, #-865]!	; 0x361
 208:	554e4700 	strbpl	r4, [lr, #-1792]	; 0x700
 20c:	34204320 	strtcc	r4, [r0], #-800	; 0x320
 210:	332e382e 	teqcc	lr, #3014656	; 0x2e0000
 214:	636d2d20 	cmnvs	sp, #32, 26	; 0x800
 218:	613d7570 	teqvs	sp, r0, ror r5
 21c:	31316d72 	teqcc	r1, r2, ror sp
 220:	7a6a3637 	bvc	1a8db04 <__bss_end__+0x1a82f6c>
 224:	20732d66 	rsbscs	r2, r3, r6, ror #26
 228:	75746d2d 	ldrbvc	r6, [r4, #-3373]!	; 0xd2d
 22c:	613d656e 	teqvs	sp, lr, ror #10
 230:	31316d72 	teqcc	r1, r2, ror sp
 234:	7a6a3637 	bvc	1a8db18 <__bss_end__+0x1a82f80>
 238:	20732d66 	rsbscs	r2, r3, r6, ror #26
 23c:	6467672d 	strbtvs	r6, [r7], #-1837	; 0x72d
 240:	4f2d2062 	svcmi	0x002d2062
 244:	732d2067 	teqvc	sp, #103	; 0x67
 248:	673d6474 			; <UNDEFINED> instruction: 0x673d6474
 24c:	3939756e 	ldmdbcc	r9!, {r1, r2, r3, r5, r6, r8, sl, ip, sp, lr}
 250:	66662d20 	strbtvs	r2, [r6], -r0, lsr #26
 254:	73656572 	cmnvc	r5, #478150656	; 0x1c800000
 258:	646e6174 	strbtvs	r6, [lr], #-372	; 0x174
 25c:	20676e69 	rsbcs	r6, r7, r9, ror #28
 260:	6f6e662d 	svcvs	0x006e662d
 264:	706f742d 	rsbvc	r7, pc, sp, lsr #8
 268:	6576656c 	ldrbvs	r6, [r6, #-1388]!	; 0x56c
 26c:	65722d6c 	ldrbvs	r2, [r2, #-3436]!	; 0xd6c
 270:	6564726f 	strbvs	r7, [r4, #-623]!	; 0x26f
 274:	79730072 	ldmdbvc	r3!, {r1, r4, r5, r6}^
 278:	6e755f73 	mrcvs	15, 3, r5, cr5, cr3, {3}
 27c:	6b636f6c 	blvs	18dc034 <__bss_end__+0x18d149c>
 280:	5f697000 	svcpl	0x00697000
 284:	6b636f6c 	blvs	18dc03c <__bss_end__+0x18d14a4>
 288:	7300745f 	movwvc	r7, #1119	; 0x45f
 28c:	63746977 	cmnvs	r4, #1949696	; 0x1dc000
 290:	6e6f5f68 	cdpvs	15, 6, cr5, cr15, cr8, {3}
 294:	736e695f 	cmnvc	lr, #1556480	; 0x17c000
 298:	006e5f74 	rsbeq	r5, lr, r4, ror pc
 29c:	6977736e 	ldmdbvs	r7!, {r1, r2, r3, r5, r6, r8, r9, ip, sp, lr}^
 2a0:	65686374 	strbvs	r6, [r8, #-884]!	; 0x374
 2a4:	77730073 			; <UNDEFINED> instruction: 0x77730073
 2a8:	68637469 	stmdavs	r3!, {r0, r3, r5, r6, sl, ip, sp, lr}^
 2ac:	705f6465 	subsvc	r6, pc, r5, ror #8
 2b0:	746e6900 	strbtvc	r6, [lr], #-2304	; 0x900
 2b4:	696e695f 	stmdbvs	lr!, {r0, r1, r2, r3, r4, r6, r8, fp, sp, lr}^
 2b8:	61640074 	smcvs	16388	; 0x4004
 2bc:	615f6174 	cmpvs	pc, r4, ror r1	; <UNPREDICTABLE>
 2c0:	74726f62 	ldrbtvc	r6, [r2], #-3938	; 0xf62
 2c4:	6365765f 	cmnvs	r5, #99614720	; 0x5f00000
 2c8:	00726f74 	rsbseq	r6, r2, r4, ror pc
 2cc:	66657270 			; <UNDEFINED> instruction: 0x66657270
 2d0:	68637465 	stmdavs	r3!, {r0, r2, r5, r6, sl, ip, sp, lr}^
 2d4:	6f62615f 	svcvs	0x0062615f
 2d8:	765f7472 			; <UNDEFINED> instruction: 0x765f7472
 2dc:	6f746365 	svcvs	0x00746365
 2e0:	61770072 	cmnvs	r7, r2, ror r0
 2e4:	65645f73 	strbvs	r5, [r4, #-3955]!	; 0xf73
 2e8:	5f677562 	svcpl	0x00677562
 2ec:	61746164 	cmnvs	r4, r4, ror #2
 2f0:	6c756166 	ldfvse	f6, [r5], #-408	; 0xfffffe68
 2f4:	70630074 	rsbvc	r0, r3, r4, ror r0
 2f8:	642d3431 	strtvs	r3, [sp], #-1073	; 0x431
 2fc:	67756265 	ldrbvs	r6, [r5, -r5, ror #4]!
 300:	7700632e 	strvc	r6, [r0, -lr, lsr #6]
 304:	645f7361 	ldrbvs	r7, [pc], #-865	; 30c <__code_start__-0x7cf4>
 308:	67756265 	ldrbvs	r6, [r5, -r5, ror #4]!
 30c:	736e695f 	cmnvc	lr, #1556480	; 0x17c000
 310:	75616674 	strbvc	r6, [r1, #-1652]!	; 0x674
 314:	6400746c 	strvs	r7, [r0], #-1132	; 0x46c
 318:	5f726373 	svcpl	0x00726373
 31c:	00746573 	rsbseq	r6, r4, r3, ror r5
 320:	30726377 	rsbscc	r6, r2, r7, ror r3
 324:	6765725f 			; <UNDEFINED> instruction: 0x6765725f
 328:	72637700 	rsbvc	r7, r3, #0, 14
 32c:	65675f30 	strbvs	r5, [r7, #-3888]!	; 0xf30
 330:	6e690074 	mcrvs	0, 3, r0, cr9, cr4, {3}
 334:	705f7469 	subsvc	r7, pc, r9, ror #8
 338:	6b726200 	blvs	1c98b40 <__bss_end__+0x1c8dfa8>
 33c:	685f7470 	ldmdavs	pc, {r4, r5, r6, sl, ip, sp, lr}^	; <UNPREDICTABLE>
 340:	6c646e61 	stclvs	14, cr6, [r4], #-388	; 0xfffffe7c
 344:	00307265 	eorseq	r7, r0, r5, ror #4
 348:	34317063 	ldrtcc	r7, [r1], #-99	; 0x63
 34c:	7263625f 	rsbvc	r6, r3, #-268435451	; 0xf0000005
 350:	65735f30 	ldrbvs	r5, [r3, #-3888]!	; 0xf30
 354:	76770074 			; <UNDEFINED> instruction: 0x76770074
 358:	765f3072 			; <UNDEFINED> instruction: 0x765f3072
 35c:	77006c61 	strvc	r6, [r0, -r1, ror #24]
 360:	68637461 	stmdavs	r3!, {r0, r5, r6, sl, ip, sp, lr}^
 364:	735f7470 	cmpvc	pc, #112, 8	; 0x70000000
 368:	00307465 	eorseq	r7, r0, r5, ror #8
 36c:	30727677 	rsbscc	r7, r2, r7, ror r6
 370:	7465735f 	strbtvc	r7, [r5], #-863	; 0x35f
 374:	6b726200 	blvs	1c98b7c <__bss_end__+0x1c8dfe4>
 378:	5f6f6e5f 	svcpl	0x006f6e5f
 37c:	5f746572 	svcpl	0x00746572
 380:	6f727265 	svcvs	0x00727265
 384:	70630072 	rsbvc	r0, r3, r2, ror r0
 388:	625f3431 	subsvs	r3, pc, #822083584	; 0x31000000
 38c:	5f307263 	svcpl	0x00307263
 390:	00746567 	rsbseq	r6, r4, r7, ror #10
 394:	706b7262 	rsbvc	r7, fp, r2, ror #4
 398:	696d5f74 	stmdbvs	sp!, {r2, r4, r5, r6, r8, r9, sl, fp, ip, lr}^
 39c:	74616d73 	strbtvc	r6, [r1], #-3443	; 0xd73
 3a0:	735f6863 	cmpvc	pc, #6488064	; 0x630000
 3a4:	00307465 	eorseq	r7, r0, r5, ror #8
 3a8:	72736664 	rsbsvc	r6, r3, #100, 12	; 0x6400000
 3ac:	6c61765f 	stclvs	6, cr7, [r1], #-380	; 0xfffffe84
 3b0:	61666900 	cmnvs	r6, r0, lsl #18
 3b4:	65675f72 	strbvs	r5, [r7, #-3954]!	; 0xf72
 3b8:	66690074 			; <UNDEFINED> instruction: 0x66690074
 3bc:	675f7273 			; <UNDEFINED> instruction: 0x675f7273
 3c0:	77007465 	strvc	r7, [r0, -r5, ror #8]
 3c4:	68637461 	stmdavs	r3!, {r0, r5, r6, sl, ip, sp, lr}^
 3c8:	685f7470 	ldmdavs	pc, {r4, r5, r6, sl, ip, sp, lr}^	; <UNPREDICTABLE>
 3cc:	6c646e61 	stclvs	14, cr6, [r4], #-388	; 0xfffffe7c
 3d0:	00307265 	eorseq	r7, r0, r5, ror #4
 3d4:	706b7262 	rsbvc	r7, fp, r2, ror #4
 3d8:	696d5f74 	stmdbvs	sp!, {r2, r4, r5, r6, r8, r9, sl, fp, ip, lr}^
 3dc:	74616d73 	strbtvc	r6, [r1], #-3443	; 0xd73
 3e0:	645f6863 	ldrbvs	r6, [pc], #-2147	; 3e8 <__code_start__-0x7c18>
 3e4:	62617369 	rsbvs	r7, r1, #-1543503871	; 0xa4000001
 3e8:	0030656c 	eorseq	r6, r0, ip, ror #10
 3ec:	61746164 	cmnvs	r4, r4, ror #2
 3f0:	6c756166 	ldfvse	f6, [r5], #-408	; 0xfffffe68
 3f4:	72665f74 	rsbvc	r5, r6, #116, 30	; 0x1d0
 3f8:	6c5f6d6f 	mrrcvs	13, 6, r6, pc, cr15	; <UNPREDICTABLE>
 3fc:	70630064 	rsbvc	r0, r3, r4, rrx
 400:	625f3431 	subsvs	r3, pc, #822083584	; 0x31000000
 404:	5f307276 	svcpl	0x00307276
 408:	00746573 	rsbseq	r6, r4, r3, ror r5
 40c:	5f736177 	svcpl	0x00736177
 410:	75626564 	strbvc	r6, [r2, #-1380]!	; 0x564
 414:	75616667 	strbvc	r6, [r1, #-1639]!	; 0x667
 418:	725f746c 	subsvc	r7, pc, #108, 8	; 0x6c000000
 41c:	31706300 	cmncc	r0, r0, lsl #6
 420:	6e655f34 	mcrvs	15, 3, r5, cr5, cr4, {1}
 424:	656c6261 	strbvs	r6, [ip, #-609]!	; 0x261
 428:	61666e00 	cmnvs	r6, r0, lsl #28
 42c:	73746c75 	cmnvc	r4, #29952	; 0x7500
 430:	72766200 	rsbsvc	r6, r6, #0, 4
 434:	61765f30 	cmnvs	r6, r0, lsr pc
 438:	6664006c 	strbtvs	r0, [r4], -ip, rrx
 43c:	675f7273 			; <UNDEFINED> instruction: 0x675f7273
 440:	73007465 	movwvc	r7, #1125	; 0x465
 444:	61637379 	smcvs	14137	; 0x3739
 448:	765f6c6c 	ldrbvc	r6, [pc], -ip, ror #24
 44c:	6f746365 	svcvs	0x00746365
 450:	72700072 	rsbsvc	r0, r0, #114	; 0x72
 454:	74656665 	strbtvc	r6, [r5], #-1637	; 0x665
 458:	665f6863 	ldrbvs	r6, [pc], -r3, ror #16
 45c:	6873756c 	ldmdavs	r3!, {r2, r3, r5, r6, r8, sl, ip, sp, lr}^
 460:	7465735f 	strbtvc	r7, [r5], #-863	; 0x35f
 464:	72636200 	rsbvc	r6, r3, #0, 4
 468:	65725f30 	ldrbvs	r5, [r2, #-3888]!	; 0xf30
 46c:	61680067 	cmnvs	r8, r7, rrx
 470:	656c646e 	strbvs	r6, [ip, #-1134]!	; 0x46e
 474:	00745f72 	rsbseq	r5, r4, r2, ror pc
 478:	72616677 	rsbvc	r6, r1, #124780544	; 0x7700000
 47c:	7465675f 	strbtvc	r6, [r5], #-1887	; 0x75f
 480:	73797300 	cmnvc	r9, #0, 6
 484:	6d756e5f 	ldclvs	14, cr6, [r5, #-380]!	; 0xfffffe84
 488:	6b726200 	blvs	1c98c90 <__bss_end__+0x1c8e0f8>
 48c:	735f7470 	cmpvc	pc, #112, 8	; 0x70000000
 490:	00307465 	eorseq	r7, r0, r5, ror #8
 494:	30726377 	rsbscc	r6, r2, r7, ror r3
 498:	7465735f 	strbtvc	r7, [r5], #-863	; 0x35f
 49c:	6e697300 	cdpvs	3, 6, cr7, cr9, cr0, {0}
 4a0:	5f656c67 	svcpl	0x00656c67
 4a4:	70657473 	rsbvc	r7, r5, r3, ror r4
 4a8:	6e61685f 	mcrvs	8, 3, r6, cr1, cr15, {2}
 4ac:	72656c64 	rsbvc	r6, r5, #100, 24	; 0x6400
 4b0:	65686300 	strbvs	r6, [r8, #-768]!	; 0x300
 4b4:	7a5f6b63 	bvc	17db248 <__bss_end__+0x17d06b0>
 4b8:	006f7265 	rsbeq	r7, pc, r5, ror #4
 4bc:	63656863 	cmnvs	r5, #6488064	; 0x630000
 4c0:	6e692d6b 	cdpvs	13, 6, cr2, cr9, cr11, {3}
 4c4:	6c726574 	cfldr64vs	mvdx6, [r2], #-464	; 0xfffffe30
 4c8:	65766165 	ldrbvs	r6, [r6, #-357]!	; 0x165
 4cc:	7500632e 	strvc	r6, [r0, #-814]	; 0x32e
 4d0:	5f726573 	svcpl	0x00726573
 4d4:	6d617274 	sfmvs	f7, 2, [r1, #-464]!	; 0xfffffe30
 4d8:	696c6f70 	stmdbvs	ip!, {r4, r5, r6, r8, r9, sl, fp, sp, lr}^
 4dc:	725f656e 	subsvc	r6, pc, #461373440	; 0x1b800000
 4e0:	65007465 	strvs	r7, [r0, #-1125]	; 0x465
 4e4:	63657078 	cmnvs	r5, #120	; 0x78
 4e8:	5f646574 	svcpl	0x00646574
 4ec:	646e6168 	strbtvs	r6, [lr], #-360	; 0x168
 4f0:	6d00656c 	cfstr32vs	mvfx6, [r0, #-432]	; 0xfffffe50
 4f4:	006b7361 	rsbeq	r7, fp, r1, ror #6
 4f8:	73746962 	cmnvc	r4, #1605632	; 0x188000
 4fc:	726c635f 	rsbvc	r6, ip, #2080374785	; 0x7c000001
 500:	65686300 	strbvs	r6, [r8, #-768]!	; 0x300
 504:	6f5f6b63 	svcvs	0x005f6b63
 508:	635f656e 	cmpvs	pc, #461373440	; 0x1b800000
 50c:	74697773 	strbtvc	r7, [r9], #-1907	; 0x773
 510:	6d006863 	stcvs	8, cr6, [r0, #-396]	; 0xfffffe74
 514:	5f65646f 	svcpl	0x0065646f
 518:	00746573 	rsbseq	r6, r4, r3, ror r5
 51c:	63656863 	cmnvs	r5, #6488064	; 0x630000
 520:	65735f6b 	ldrbvs	r5, [r3, #-3947]!	; 0xf6b
 524:	6e657571 	mcrvs	5, 3, r7, cr5, cr1, {3}
 528:	6c616974 	stclvs	9, cr6, [r1], #-464	; 0xfffffe30
 52c:	73706300 	cmnvc	r0, #0, 6
 530:	6c6f5f72 	stclvs	15, cr5, [pc], #-456	; 370 <__code_start__-0x7c90>
 534:	70630064 	rsbvc	r0, r3, r4, rrx
 538:	755f7273 	ldrbvc	r7, [pc, #-627]	; 2cd <__code_start__-0x7d33>
 53c:	00726573 	rsbseq	r6, r2, r3, ror r5
 540:	73676572 	cmnvc	r7, #478150656	; 0x1c800000
 544:	675f5f00 	ldrbvs	r5, [pc, -r0, lsl #30]
 548:	5f63756e 	svcpl	0x0063756e
 54c:	6c5f6176 	ldfvse	f6, [pc], {118}	; 0x76
 550:	00747369 	rsbseq	r7, r4, r9, ror #6
 554:	6362696c 	cmnvs	r2, #108, 18	; 0x1b0000
 558:	6972702f 	ldmdbvs	r2!, {r0, r1, r2, r3, r5, ip, sp, lr}^
 55c:	2e6b746e 	cdpcs	4, 6, cr7, cr11, cr14, {3}
 560:	4e470063 	cdpmi	0, 4, cr0, cr7, cr3, {3}
 564:	20432055 	subcs	r2, r3, r5, asr r0
 568:	2e382e34 	mrccs	14, 1, r2, cr8, cr4, {1}
 56c:	6d2d2033 	stcvs	0, cr2, [sp, #-204]!	; 0xffffff34
 570:	3d757063 	ldclcc	0, cr7, [r5, #-396]!	; 0xfffffe74
 574:	316d7261 	cmncc	sp, r1, ror #4
 578:	6a363731 	bvs	d8e244 <__bss_end__+0xd836ac>
 57c:	732d667a 	teqvc	sp, #127926272	; 0x7a00000
 580:	746d2d20 	strbtvc	r2, [sp], #-3360	; 0xd20
 584:	3d656e75 	stclcc	14, cr6, [r5, #-468]!	; 0xfffffe2c
 588:	316d7261 	cmncc	sp, r1, ror #4
 58c:	6a363731 	bvs	d8e258 <__bss_end__+0xd836c0>
 590:	732d667a 	teqvc	sp, #127926272	; 0x7a00000
 594:	67672d20 	strbvs	r2, [r7, -r0, lsr #26]!
 598:	2d206264 	sfmcs	f6, 4, [r0, #-400]!	; 0xfffffe70
 59c:	2d20674f 	stccs	7, cr6, [r0, #-316]!	; 0xfffffec4
 5a0:	3d647473 	cfstrdcc	mvd7, [r4, #-460]!	; 0xfffffe34
 5a4:	39756e67 	ldmdbcc	r5!, {r0, r1, r2, r5, r6, r9, sl, fp, sp, lr}^
 5a8:	662d2039 			; <UNDEFINED> instruction: 0x662d2039
 5ac:	65657266 	strbvs	r7, [r5, #-614]!	; 0x266
 5b0:	6e617473 	mcrvs	4, 3, r7, cr1, cr3, {3}
 5b4:	676e6964 	strbvs	r6, [lr, -r4, ror #18]!
 5b8:	5f617600 	svcpl	0x00617600
 5bc:	6e697270 	mcrvs	2, 3, r7, cr9, cr0, {3}
 5c0:	5f006b74 	svcpl	0x00006b74
 5c4:	5f61765f 	svcpl	0x0061765f
 5c8:	7473696c 	ldrbtvc	r6, [r3], #-2412	; 0x96c
 5cc:	73552f00 	cmpvc	r5, #0, 30
 5d0:	2f737265 	svccs	0x00737265
 5d4:	61697262 	cmnvs	r9, r2, ror #4
 5d8:	6e756a6e 	vsubvs.f32	s13, s10, s29
 5dc:	7365442f 	cmnvc	r5, #788529152	; 0x2f000000
 5e0:	706f746b 	rsbvc	r7, pc, fp, ror #8
 5e4:	6863732f 	stmdavs	r3!, {r0, r1, r2, r3, r5, r8, r9, ip, sp, lr}^
 5e8:	2f6c6f6f 	svccs	0x006c6f6f
 5ec:	69727053 	ldmdbvs	r2!, {r0, r1, r4, r6, ip, sp, lr}^
 5f0:	3931676e 	ldmdbcc	r1!, {r1, r2, r3, r5, r6, r8, r9, sl, sp, lr}
 5f4:	432f3032 	teqmi	pc, #50	; 0x32
 5f8:	30343253 	eorscc	r3, r4, r3, asr r2
 5fc:	632f584c 	teqvs	pc, #76, 16	; 0x4c0000
 600:	30343273 	eorscc	r3, r4, r3, ror r2
 604:	322d786c 	eorcc	r7, sp, #108, 16	; 0x6c0000
 608:	72707330 	rsbsvc	r7, r0, #48, 6	; 0xc0000000
 60c:	62696c2f 	rsbvs	r6, r9, #12032	; 0x2f00
 610:	5f006970 	svcpl	0x00006970
 614:	0070615f 	rsbseq	r6, r0, pc, asr r1
 618:	74726175 	ldrbtvc	r6, [r2], #-373	; 0x175
 61c:	7475705f 	ldrbtvc	r7, [r5], #-95	; 0x5f
 620:	6e690063 	cdpvs	0, 6, cr0, cr9, cr3, {3}
 624:	6e726574 	mrcvs	5, 3, r6, cr2, cr4, {3}
 628:	705f6c61 	subsvc	r6, pc, r1, ror #24
 62c:	68637475 	stmdavs	r3!, {r0, r2, r4, r5, r6, sl, ip, sp, lr}^
 630:	72007261 	andvc	r7, r0, #268435462	; 0x10000006
 634:	705f6970 	subsvc	r6, pc, r0, ror r9	; <UNPREDICTABLE>
 638:	68637475 	stmdavs	r3!, {r0, r2, r4, r5, r6, sl, ip, sp, lr}^
 63c:	6c007261 	sfmvs	f7, 4, [r0], {97}	; 0x61
 640:	2f636269 	svccs	0x00636269
 644:	63747570 	cmnvs	r4, #112, 10	; 0x1c000000
 648:	2e726168 	rpwcssz	f6, f2, #0.0
 64c:	70720063 	rsbsvc	r0, r2, r3, rrx
 650:	65735f69 	ldrbvs	r5, [r3, #-3945]!	; 0xf69
 654:	75705f74 	ldrbvc	r5, [r0, #-3956]!	; 0xf74
 658:	6c006374 	stcvs	3, cr6, [r0], {116}	; 0x74
 65c:	2f636269 	svccs	0x00636269
 660:	6b747570 	blvs	1d1dc28 <__bss_end__+0x1d13090>
 664:	6900632e 	stmdbvs	r0, {r1, r2, r3, r5, r8, r9, sp, lr}
 668:	7265746e 	rsbvc	r7, r5, #1845493760	; 0x6e000000
 66c:	5f6c616e 	svcpl	0x006c616e
 670:	6b747570 	blvs	1d1dc38 <__bss_end__+0x1d130a0>
 674:	746d6600 	strbtvc	r6, [sp], #-1536	; 0x600
 678:	6174735f 	cmnvs	r4, pc, asr r3
 67c:	6e007472 	mcrvs	4, 0, r7, cr0, cr2, {3}
 680:	705f6765 	subsvc	r6, pc, r5, ror #14
 684:	76657200 	strbtvc	r7, [r5], -r0, lsl #4
 688:	65737265 	ldrbvs	r7, [r3, #-613]!	; 0x265
 68c:	64736900 	ldrbtvs	r6, [r3], #-2304	; 0x900
 690:	74696769 	strbtvc	r6, [r9], #-1897	; 0x769
 694:	74757000 	ldrbtvc	r7, [r5], #-0
 698:	70665f73 	rsbvc	r5, r6, r3, ror pc
 69c:	67697300 	strbvs	r7, [r9, -r0, lsl #6]!
 6a0:	5f64656e 	svcpl	0x0064656e
 6a4:	696c0070 	stmdbvs	ip!, {r4, r5, r6}^
 6a8:	762f6362 	strtvc	r6, [pc], -r2, ror #6
 6ac:	72702d61 	rsbsvc	r2, r0, #6208	; 0x1840
 6b0:	6b746e69 	blvs	1d1c05c <__bss_end__+0x1d114c4>
 6b4:	7200632e 	andvc	r6, r0, #-1207959552	; 0xb8000000
 6b8:	735f6970 	cmpvc	pc, #112, 18	; 0x1c0000
 6bc:	6f5f7465 	svcvs	0x005f7465
 6c0:	75707475 	ldrbvc	r7, [r0, #-1141]!	; 0x475
 6c4:	69770074 	ldmdbvs	r7!, {r2, r4, r5, r6}^
 6c8:	00687464 	rsbeq	r7, r8, r4, ror #8
 6cc:	63747570 	cmnvs	r4, #112, 10	; 0x1c000000
 6d0:	0070665f 	rsbseq	r6, r0, pc, asr r6
 6d4:	74696d65 	strbtvc	r6, [r9], #-3429	; 0xd65
 6d8:	73696400 	cmnvc	r9, #0, 8
 6dc:	656c6261 	strbvs	r6, [ip, #-609]!	; 0x261
 6e0:	6361635f 	cmnvs	r1, #2080374785	; 0x7c000001
 6e4:	73006568 	movwvc	r6, #1384	; 0x568
 6e8:	66666174 			; <UNDEFINED> instruction: 0x66666174
 6ec:	6372732d 	cmnvs	r2, #-1275068416	; 0xb4000000
 6f0:	6361632f 	cmnvs	r1, #-1140850688	; 0xbc000000
 6f4:	632e6568 	teqvs	lr, #104, 10	; 0x1a000000
 6f8:	62657200 	rsbvs	r7, r5, #0, 4
 6fc:	5f746f6f 	svcpl	0x00746f6f
 700:	646e6168 	strbtvs	r6, [lr], #-360	; 0x168
 704:	0072656c 	rsbseq	r6, r2, ip, ror #10
 708:	66617473 			; <UNDEFINED> instruction: 0x66617473
 70c:	72732d66 	rsbsvc	r2, r3, #6528	; 0x1980
 710:	6c632f63 	stclvs	15, cr2, [r3], #-396	; 0xfffffe74
 714:	2d6e6165 	stfcse	f6, [lr, #-404]!	; 0xfffffe6c
 718:	6f626572 	svcvs	0x00626572
 71c:	632e746f 	teqvs	lr, #1862270976	; 0x6f000000
 720:	69707200 	ldmdbvs	r0!, {r9, ip, sp, lr}^
 724:	6265725f 	rsbvs	r7, r5, #-268435451	; 0xf0000005
 728:	00746f6f 	rsbseq	r6, r4, pc, ror #30
 72c:	616c6564 	cmnvs	ip, r4, ror #10
 730:	736d5f79 	cmnvc	sp, #484	; 0x1e4
 734:	625f5f00 	subsvs	r5, pc, #0, 30
 738:	735f7373 	cmpvc	pc, #-872415231	; 0xcc000001
 73c:	74726174 	ldrbtvc	r6, [r2], #-372	; 0x174
 740:	5f005f5f 	svcpl	0x00005f5f
 744:	7373625f 	cmnvc	r3, #-268435451	; 0xf0000005
 748:	646e655f 	strbtvs	r6, [lr], #-1375	; 0x55f
 74c:	63005f5f 	movwvs	r5, #3935	; 0xf5f
 750:	72617473 	rsbvc	r7, r1, #1929379840	; 0x73000000
 754:	61685f74 	smcvs	34292	; 0x85f4
 758:	656c646e 	strbvs	r6, [ip, #-1134]!	; 0x46e
 75c:	73620072 	cmnvc	r2, #114	; 0x72
 760:	6e655f73 	mcrvs	15, 3, r5, cr5, cr3, {3}
 764:	635f0064 	cmpvs	pc, #100	; 0x64
 768:	72617473 	rsbvc	r7, r1, #1929379840	; 0x73000000
 76c:	74730074 	ldrbtvc	r0, [r3], #-116	; 0x74
 770:	2d666661 	stclcs	6, cr6, [r6, #-388]!	; 0xfffffe7c
 774:	2f637273 	svccs	0x00637273
 778:	61747363 	cmnvs	r4, r3, ror #6
 77c:	632e7472 	teqvs	lr, #1912602624	; 0x72000000
 780:	61747300 	cmnvs	r4, r0, lsl #6
 784:	732d6666 	teqvc	sp, #106954752	; 0x6600000
 788:	642f6372 	strtvs	r6, [pc], #-882	; 790 <__code_start__-0x7870>
 78c:	75616665 	strbvc	r6, [r1, #-1637]!	; 0x665
 790:	682d746c 	stmdavs	sp!, {r2, r3, r5, r6, sl, ip, sp, lr}
 794:	6c646e61 	stclvs	14, cr6, [r4], #-388	; 0xfffffe7c
 798:	662d7265 	strtvs	r7, [sp], -r5, ror #4
 79c:	2e747361 	cdpcs	3, 7, cr7, cr4, cr1, {3}
 7a0:	61660063 	cmnvs	r6, r3, rrx
 7a4:	695f7473 	ldmdbvs	pc, {r0, r1, r4, r5, r6, sl, ip, sp, lr}^	; <UNPREDICTABLE>
 7a8:	7265746e 	rsbvc	r7, r5, #1845493760	; 0x6e000000
 7ac:	74707572 	ldrbtvc	r7, [r0], #-1394	; 0x572
 7b0:	6365765f 	cmnvs	r5, #99614720	; 0x5f00000
 7b4:	00726f74 	rsbseq	r6, r2, r4, ror pc
 7b8:	65736572 	ldrbvs	r6, [r3, #-1394]!	; 0x572
 7bc:	65765f74 	ldrbvs	r5, [r6, #-3956]!	; 0xf74
 7c0:	726f7463 	rsbvc	r7, pc, #1660944384	; 0x63000000
 7c4:	61747300 	cmnvs	r4, r0, lsl #6
 7c8:	732d6666 	teqvc	sp, #106954752	; 0x6600000
 7cc:	642f6372 	strtvs	r6, [pc], #-882	; 7d4 <__code_start__-0x782c>
 7d0:	75616665 	strbvc	r6, [r1, #-1637]!	; 0x665
 7d4:	682d746c 	stmdavs	sp!, {r2, r3, r5, r6, sl, ip, sp, lr}
 7d8:	6c646e61 	stclvs	14, cr6, [r4], #-388	; 0xfffffe7c
 7dc:	722d7265 	eorvc	r7, sp, #1342177286	; 0x50000006
 7e0:	74657365 	strbtvc	r7, [r5], #-869	; 0x365
 7e4:	7300632e 	movwvc	r6, #814	; 0x32e
 7e8:	66666174 			; <UNDEFINED> instruction: 0x66666174
 7ec:	6372732d 	cmnvs	r2, #-1275068416	; 0xb4000000
 7f0:	6665642f 	strbtvs	r6, [r5], -pc, lsr #8
 7f4:	746c7561 	strbtvc	r7, [ip], #-1377	; 0x561
 7f8:	6e61682d 	cdpvs	8, 6, cr6, cr1, cr13, {1}
 7fc:	72656c64 	rsbvc	r6, r5, #100, 24	; 0x6400
 800:	646e752d 	strbtvs	r7, [lr], #-1325	; 0x52d
 804:	6e696665 	cdpvs	6, 6, cr6, cr9, cr5, {3}
 808:	692d6465 	pushvs	{r0, r2, r5, r6, sl, sp, lr}
 80c:	2e74736e 	cdpcs	3, 7, cr7, cr4, cr14, {3}
 810:	6e750063 	cdpvs	0, 7, cr0, cr5, cr3, {3}
 814:	69666564 	stmdbvs	r6!, {r2, r5, r6, r8, sl, sp, lr}^
 818:	5f64656e 	svcpl	0x0064656e
 81c:	74736e69 	ldrbtvc	r6, [r3], #-3689	; 0xe69
 820:	74637572 	strbtvc	r7, [r3], #-1394	; 0x572
 824:	5f6e6f69 	svcpl	0x006e6f69
 828:	74636576 	strbtvc	r6, [r3], #-1398	; 0x576
 82c:	7300726f 	movwvc	r7, #623	; 0x26f
 830:	66666174 			; <UNDEFINED> instruction: 0x66666174
 834:	6372732d 	cmnvs	r2, #-1275068416	; 0xb4000000
 838:	6665642f 	strbtvs	r6, [r5], -pc, lsr #8
 83c:	746c7561 	strbtvc	r7, [ip], #-1377	; 0x561
 840:	6e61682d 	cdpvs	8, 6, cr6, cr1, cr13, {1}
 844:	72656c64 	rsbvc	r6, r5, #100, 24	; 0x6400
 848:	00632e73 	rsbeq	r2, r3, r3, ror lr
 84c:	5f515249 	svcpl	0x00515249
 850:	646e6570 	strbtvs	r6, [lr], #-1392	; 0x570
 854:	5f676e69 	svcpl	0x00676e69
 858:	69440032 	stmdbvs	r4, {r1, r4, r5}^
 85c:	6c626173 	stfvse	f6, [r2], #-460	; 0xfffffe34
 860:	61425f65 	cmpvs	r2, r5, ror #30
 864:	5f636973 	svcpl	0x00636973
 868:	73515249 	cmpvc	r1, #-1879048188	; 0x90000004
 86c:	51494600 	cmppl	r9, r0, lsl #12
 870:	6e6f635f 	mcrvs	3, 3, r6, cr15, cr15, {2}
 874:	6c6f7274 	sfmvs	f7, 2, [pc], #-464	; 6ac <__code_start__-0x7954>
 878:	6e695f00 	cdpvs	15, 6, cr5, cr9, cr0, {0}
 87c:	72726574 	rsbsvc	r6, r2, #116, 10	; 0x1d000000
 880:	5f747075 	svcpl	0x00747075
 884:	6c626174 	stfvse	f6, [r2], #-464	; 0xfffffe30
 888:	52490065 	subpl	r0, r9, #101	; 0x65
 88c:	61625f51 	cmnvs	r2, r1, asr pc
 890:	5f636973 	svcpl	0x00636973
 894:	646e6570 	strbtvs	r6, [lr], #-1392	; 0x570
 898:	00676e69 	rsbeq	r6, r7, r9, ror #28
 89c:	62616e45 	rsbvs	r6, r1, #1104	; 0x450
 8a0:	425f656c 	subsmi	r6, pc, #108, 10	; 0x1b000000
 8a4:	63697361 	cmnvs	r9, #-2080374783	; 0x84000001
 8a8:	5152495f 	cmppl	r2, pc, asr r9
 8ac:	6e450073 	mcrvs	0, 2, r0, cr5, cr3, {3}
 8b0:	656c6261 	strbvs	r6, [ip, #-609]!	; 0x261
 8b4:	5152495f 	cmppl	r2, pc, asr r9
 8b8:	00315f73 	eorseq	r5, r1, r3, ror pc
 8bc:	62616e45 	rsbvs	r6, r1, #1104	; 0x450
 8c0:	495f656c 	ldmdbmi	pc, {r2, r3, r5, r6, r8, sl, sp, lr}^	; <UNPREDICTABLE>
 8c4:	5f735152 	svcpl	0x00735152
 8c8:	695f0032 	ldmdbvs	pc, {r1, r4, r5}^	; <UNPREDICTABLE>
 8cc:	7265746e 	rsbvc	r7, r5, #1845493760	; 0x6e000000
 8d0:	74707572 	ldrbtvc	r7, [r0], #-1394	; 0x572
 8d4:	6261745f 	rsbvs	r7, r1, #1593835520	; 0x5f000000
 8d8:	655f656c 	ldrbvs	r6, [pc, #-1388]	; 374 <__code_start__-0x7c8c>
 8dc:	6400646e 	strvs	r6, [r0], #-1134	; 0x46e
 8e0:	625f7665 	subsvs	r7, pc, #105906176	; 0x6500000
 8e4:	69727261 	ldmdbvs	r2!, {r0, r5, r6, r9, ip, sp, lr}^
 8e8:	73007265 	movwvc	r7, #613	; 0x265
 8ec:	66666174 			; <UNDEFINED> instruction: 0x66666174
 8f0:	6372732d 	cmnvs	r2, #-1275068416	; 0xb4000000
 8f4:	746e692f 	strbtvc	r6, [lr], #-2351	; 0x92f
 8f8:	75727265 	ldrbvc	r7, [r2, #-613]!	; 0x265
 8fc:	2d737470 	cfldrdcs	mvd7, [r3, #-448]!	; 0xfffffe40
 900:	00632e63 	rsbeq	r2, r3, r3, ror #28
 904:	5f515249 	svcpl	0x00515249
 908:	65736142 	ldrbvs	r6, [r3, #-322]!	; 0x142
 90c:	54555000 	ldrbpl	r5, [r5], #-0
 910:	44003233 	strmi	r3, [r0], #-563	; 0x233
 914:	62617369 	rsbvs	r7, r1, #-1543503871	; 0xa4000001
 918:	495f656c 	ldmdbmi	pc, {r2, r3, r5, r6, r8, sl, sp, lr}^	; <UNPREDICTABLE>
 91c:	5f735152 	svcpl	0x00735152
 920:	69440031 	stmdbvs	r4, {r0, r4, r5}^
 924:	6c626173 	stfvse	f6, [r2], #-460	; 0xfffffe34
 928:	52495f65 	subpl	r5, r9, #404	; 0x194
 92c:	325f7351 	subscc	r7, pc, #1140850689	; 0x44000001
 930:	51524900 	cmppl	r2, r0, lsl #18
 934:	6e65705f 	mcrvs	0, 3, r7, cr5, cr15, {2}
 938:	676e6964 	strbvs	r6, [lr, -r4, ror #18]!
 93c:	6100315f 	tstvs	r0, pc, asr r1
 940:	73755f74 	cmnvc	r5, #116, 30	; 0x1d0
 944:	6c5f7265 	lfmvs	f7, 2, [pc], {101}	; 0x65
 948:	6c657665 	stclvs	6, cr7, [r5], #-404	; 0xfffffe6c
 94c:	61747300 	cmnvs	r4, r0, lsl #6
 950:	732d6666 	teqvc	sp, #106954752	; 0x6600000
 954:	722f6372 	eorvc	r6, pc, #-939524095	; 0xc8000001
 958:	6f6f6265 	svcvs	0x006f6265
 95c:	00632e74 	rsbeq	r2, r3, r4, ror lr
 960:	525f4d50 	subspl	r4, pc, #80, 26	; 0x1400
 964:	5f435453 	svcpl	0x00435453
 968:	46435257 			; <UNDEFINED> instruction: 0x46435257
 96c:	55465f47 	strbpl	r5, [r6, #-3911]	; 0xf47
 970:	525f4c4c 	subspl	r4, pc, #76, 24	; 0x4c00
 974:	54455345 	strbpl	r5, [r5], #-837	; 0x345
 978:	5f4d5000 	svcpl	0x004d5000
 97c:	474f4457 	smlsldmi	r4, pc, r7, r4	; <UNPREDICTABLE>
 980:	74657300 	strbtvc	r7, [r5], #-768	; 0x300
 984:	6573755f 	ldrbvs	r7, [r3, #-1375]!	; 0x55f
 988:	656c5f72 	strbvs	r5, [ip, #-3954]!	; 0xf72
 98c:	006c6576 	rsbeq	r6, ip, r6, ror r5
 990:	505f4d50 	subspl	r4, pc, r0, asr sp	; <UNPREDICTABLE>
 994:	57535341 	ldrbpl	r5, [r3, -r1, asr #6]
 998:	0044524f 	subeq	r5, r4, pc, asr #4
 99c:	525f4d50 	subspl	r4, pc, #80, 26	; 0x1400
 9a0:	00435453 	subeq	r5, r3, r3, asr r4
 9a4:	656d6974 	strbvs	r6, [sp, #-2420]!	; 0x974
 9a8:	65675f72 	strbvs	r5, [r7, #-3954]!	; 0xf72
 9ac:	73755f74 	cmnvc	r5, #116, 30	; 0x1d0
 9b0:	725f6365 	subsvc	r6, pc, #-1811939327	; 0x94000001
 9b4:	64007761 	strvs	r7, [r0], #-1889	; 0x761
 9b8:	79616c65 	stmdbvc	r1!, {r0, r2, r5, r6, sl, fp, sp, lr}^
 9bc:	6365735f 	cmnvs	r5, #2080374785	; 0x7c000001
 9c0:	61747300 	cmnvs	r4, r0, lsl #6
 9c4:	732d6666 	teqvc	sp, #106954752	; 0x6600000
 9c8:	742f6372 	strtvc	r6, [pc], #-882	; 9d0 <__code_start__-0x7630>
 9cc:	72656d69 	rsbvc	r6, r5, #6720	; 0x1a40
 9d0:	4700632e 	strmi	r6, [r0, -lr, lsr #6]
 9d4:	32335445 	eorscc	r5, r3, #1157627904	; 0x45000000
 9d8:	63697400 	cmnvs	r9, #0, 8
 9dc:	6400736b 	strvs	r7, [r0], #-875	; 0x36b
 9e0:	79616c65 	stmdbvc	r1!, {r0, r2, r5, r6, sl, fp, sp, lr}^
 9e4:	6379635f 	cmnvs	r9, #2080374785	; 0x7c000001
 9e8:	0073656c 	rsbseq	r6, r3, ip, ror #10
 9ec:	616c6564 	cmnvs	ip, r4, ror #10
 9f0:	73755f79 	cmnvc	r5, #484	; 0x1e4
 9f4:	6d697400 	cfstrdvs	mvd7, [r9, #-0]
 9f8:	675f7265 	ldrbvs	r7, [pc, -r5, ror #4]
 9fc:	755f7465 	ldrbvc	r7, [pc, #-1125]	; 59f <__code_start__-0x7a61>
 a00:	00636573 	rsbeq	r6, r3, r3, ror r5
 a04:	6f73645f 	svcvs	0x0073645f
 a08:	6e61685f 	mcrvs	8, 3, r6, cr1, cr15, {2}
 a0c:	00656c64 	rsbeq	r6, r5, r4, ror #24
 a10:	7a69735f 	bvc	1a5d794 <__bss_end__+0x1a52bfc>
 a14:	725f0065 	subsvc	r0, pc, #101	; 0x65
 a18:	34646e61 	strbtcc	r6, [r4], #-3681	; 0xe61
 a1c:	655f0038 	ldrbvs	r0, [pc, #-56]	; 9ec <__code_start__-0x7614>
 a20:	6772656d 	ldrbvs	r6, [r2, -sp, ror #10]!
 a24:	79636e65 	stmdbvc	r3!, {r0, r2, r5, r6, r9, sl, fp, sp, lr}^
 a28:	72617500 	rsbvc	r7, r1, #0, 10
 a2c:	6e695f74 	mcrvs	15, 3, r5, cr9, cr4, {3}
 a30:	5f007469 	svcpl	0x00007469
 a34:	74726377 	ldrbtvc	r6, [r2], #-887	; 0x377
 a38:	5f626d6f 	svcpl	0x00626d6f
 a3c:	74617473 	strbtvc	r7, [r1], #-1139	; 0x473
 a40:	775f0065 	ldrbvc	r0, [pc, -r5, rrx]
 a44:	74727363 	ldrbtvc	r7, [r2], #-867	; 0x363
 a48:	73626d6f 	cmnvc	r2, #7104	; 0x1bc0
 a4c:	6174735f 	cmnvs	r4, pc, asr r3
 a50:	5f006574 	svcpl	0x00006574
 a54:	7366626c 	cmnvc	r6, #108, 4	; 0xc0000006
 a58:	00657a69 	rsbeq	r7, r5, r9, ror #20
 a5c:	4f495047 	svcmi	0x00495047
 a60:	4e55465f 	mrcmi	6, 2, r4, cr5, cr15, {2}
 a64:	4e495f43 	cdpmi	15, 4, cr5, cr9, cr3, {2}
 a68:	00545550 	subseq	r5, r4, r0, asr r5
 a6c:	72626d5f 	rsbvc	r6, r2, #6080	; 0x17c0
 a70:	63776f74 	cmnvs	r7, #116, 30	; 0x1d0
 a74:	6174735f 	cmnvs	r4, pc, asr r3
 a78:	5f006574 	svcpl	0x00006574
 a7c:	6f746377 	svcvs	0x00746377
 a80:	735f626d 	cmpvc	pc, #-805306362	; 0xd0000006
 a84:	65746174 	ldrbvs	r6, [r4, #-372]!	; 0x174
 a88:	745f5f00 	ldrbvc	r5, [pc], #-3840	; a90 <__code_start__-0x7570>
 a8c:	65735f6d 	ldrbvs	r5, [r3, #-3949]!	; 0xf6d
 a90:	74730063 	ldrbtvc	r0, [r3], #-99	; 0x63
 a94:	5f007461 	svcpl	0x00007461
 a98:	66756275 			; <UNDEFINED> instruction: 0x66756275
 a9c:	49504700 	ldmdbmi	r0, {r8, r9, sl, lr}^
 aa0:	55465f4f 	strbpl	r5, [r6, #-3919]	; 0xf4f
 aa4:	415f434e 	cmpmi	pc, lr, asr #6
 aa8:	0031544c 	eorseq	r5, r1, ip, asr #8
 aac:	7361625f 	cmnvc	r1, #-268435451	; 0xf0000005
 ab0:	6e630065 	cdpvs	0, 6, cr0, cr3, cr5, {3}
 ab4:	5f006c74 	svcpl	0x00006c74
 ab8:	5f6d745f 	svcpl	0x006d745f
 abc:	72756f68 	rsbsvc	r6, r5, #104, 30	; 0x1a0
 ac0:	735f5f00 	cmpvc	pc, #0, 30
 ac4:	6f5f0066 	svcvs	0x005f0066
 ac8:	78655f6e 	stmdavc	r5!, {r1, r2, r3, r5, r6, r8, r9, sl, fp, ip, lr}^
 acc:	615f7469 	cmpvs	pc, r9, ror #8
 ad0:	00736772 	rsbseq	r6, r3, r2, ror r7
 ad4:	6f6f635f 	svcvs	0x006f635f
 ad8:	0065696b 	rsbeq	r6, r5, fp, ror #18
 adc:	67735f5f 			; <UNDEFINED> instruction: 0x67735f5f
 ae0:	0065756c 	rsbeq	r7, r5, ip, ror #10
 ae4:	616c665f 	cmnvs	ip, pc, asr r6
 ae8:	5f007367 	svcpl	0x00007367
 aec:	635f7369 	cmpvs	pc, #-1543503871	; 0xa4000001
 af0:	5f006178 	svcpl	0x00006178
 af4:	69647473 	stmdbvs	r4!, {r0, r1, r4, r5, r6, sl, ip, sp, lr}^
 af8:	625f006e 	subsvs	r0, pc, #110	; 0x6e
 afc:	69736b6c 	ldmdbvs	r3!, {r2, r3, r5, r6, r8, r9, fp, sp, lr}^
 b00:	7500657a 	strvc	r6, [r0, #-1402]	; 0x57a
 b04:	2e747261 	cdpcs	2, 7, cr7, cr4, cr1, {3}
 b08:	75610063 	strbvc	r0, [r1, #-99]!	; 0x63
 b0c:	65705f78 	ldrbvs	r5, [r0, #-3960]!	; 0xf78
 b10:	68706972 	ldmdavs	r0!, {r1, r4, r5, r6, r8, fp, sp, lr}^
 b14:	635f0073 	cmpvs	pc, #115	; 0x73
 b18:	75627476 	strbvc	r7, [r2, #-1142]!	; 0x476
 b1c:	682f0066 	stmdavs	pc!, {r1, r2, r5, r6}	; <UNPREDICTABLE>
 b20:	2f656d6f 	svccs	0x00656d6f
 b24:	6c676e65 	stclvs	14, cr6, [r7], #-404	; 0xfffffe6c
 b28:	632f7265 	teqvs	pc, #1342177286	; 0x50000006
 b2c:	7373616c 	cmnvc	r3, #108, 2
 b30:	3273632f 	rsbscc	r6, r3, #-1140850688	; 0xbc000000
 b34:	786c3034 	stmdavc	ip!, {r2, r4, r5, ip, sp}^
 b38:	7330322d 	teqvc	r0, #-805306366	; 0xd0000002
 b3c:	6c2f7270 	sfmvs	f7, 4, [pc], #-448	; 984 <__code_start__-0x767c>
 b40:	69706269 	ldmdbvs	r0!, {r0, r3, r5, r6, r9, sp, lr}^
 b44:	6174732f 	cmnvs	r4, pc, lsr #6
 b48:	702d6666 	eorvc	r6, sp, r6, ror #12
 b4c:	61766972 	cmnvs	r6, r2, ror r9
 b50:	5f006574 	svcpl	0x00006574
 b54:	7273626d 	rsbsvc	r6, r3, #-805306362	; 0xd0000006
 b58:	63776f74 	cmnvs	r7, #116, 30	; 0x1d0
 b5c:	74735f73 	ldrbtvc	r5, [r3], #-3955	; 0xf73
 b60:	00657461 	rsbeq	r7, r5, r1, ror #8
 b64:	72626d5f 	rsbvc	r6, r2, #6080	; 0x17c0
 b68:	5f6e656c 	svcpl	0x006e656c
 b6c:	74617473 	strbtvc	r7, [r1], #-1139	; 0x473
 b70:	665f0065 	ldrbvs	r0, [pc], -r5, rrx
 b74:	6772616e 	ldrbvs	r6, [r2, -lr, ror #2]!
 b78:	75610073 	strbvc	r0, [r1, #-115]!	; 0x73
 b7c:	6e655f78 	mcrvs	15, 3, r5, cr5, cr8, {3}
 b80:	656c6261 	strbvs	r6, [ip, #-609]!	; 0x261
 b84:	665f0073 			; <UNDEFINED> instruction: 0x665f0073
 b88:	5f00736e 	svcpl	0x0000736e
 b8c:	6e676973 	mcrvs	9, 3, r6, cr7, cr3, {3}
 b90:	72617500 	rsbvc	r7, r1, #0, 10
 b94:	61635f74 	smcvs	13812	; 0x35f4
 b98:	75705f6e 	ldrbvc	r5, [r0, #-3950]!	; 0xf6e
 b9c:	5f006374 	svcpl	0x00006374
 ba0:	636f6c66 	cmnvs	pc, #26112	; 0x6600
 ba4:	00745f6b 	rsbseq	r5, r4, fp, ror #30
 ba8:	6474735f 	ldrbtvs	r7, [r4], #-863	; 0x35f
 bac:	00727265 	rsbseq	r7, r2, r5, ror #4
 bb0:	6769425f 			; <UNDEFINED> instruction: 0x6769425f
 bb4:	00746e69 	rsbseq	r6, r4, r9, ror #28
 bb8:	6d61675f 	stclvs	7, cr6, [r1, #-380]!	; 0xfffffe84
 bbc:	735f616d 	cmpvc	pc, #1073741851	; 0x4000001b
 bc0:	676e6769 	strbvs	r6, [lr, -r9, ror #14]!
 bc4:	5f006d61 	svcpl	0x00006d61
 bc8:	75736572 	ldrbvc	r6, [r3, #-1394]!	; 0x572
 bcc:	6b5f746c 	blvs	17ddd84 <__bss_end__+0x17d31ec>
 bd0:	745f5f00 	ldrbvc	r5, [pc], #-3840	; bd8 <__code_start__-0x7428>
 bd4:	5f5f006d 	svcpl	0x005f006d
 bd8:	62686377 	rsbvs	r6, r8, #-603979775	; 0xdc000001
 bdc:	72617500 	rsbvc	r7, r1, #0, 10
 be0:	65675f74 	strbvs	r5, [r7, #-3956]!	; 0xf74
 be4:	5f006374 	svcpl	0x00006374
 be8:	6f647473 	svcvs	0x00647473
 bec:	5f007475 	svcpl	0x00007475
 bf0:	6c747663 	ldclvs	6, cr7, [r4], #-396	; 0xfffffe74
 bf4:	5f006e65 	svcpl	0x00006e65
 bf8:	656c6966 	strbvs	r6, [ip, #-2406]!	; 0x966
 bfc:	696e5f00 	stmdbvs	lr!, {r8, r9, sl, fp, ip, lr}^
 c00:	0073626f 	rsbseq	r6, r3, pc, ror #4
 c04:	6574615f 	ldrbvs	r6, [r4, #-351]!	; 0x15f
 c08:	30746978 	rsbscc	r6, r4, r8, ror r9
 c0c:	69735f00 	ldmdbvs	r3!, {r8, r9, sl, fp, ip, lr}^
 c10:	6c616e67 	stclvs	14, cr6, [r1], #-412	; 0xfffffe64
 c14:	6675625f 			; <UNDEFINED> instruction: 0x6675625f
 c18:	73615f00 	cmnvc	r1, #0, 30
 c1c:	6d697463 	cfstrdvs	mvd7, [r9, #-396]!	; 0xfffffe74
 c20:	75625f65 	strbvc	r5, [r2, #-3941]!	; 0xf65
 c24:	725f0066 	subsvc	r0, pc, #102	; 0x66
 c28:	6c757365 	ldclvs	3, cr7, [r5], #-404	; 0xfffffe6c
 c2c:	5f5f0074 	svcpl	0x005f0074
 c30:	00686377 	rsbeq	r6, r8, r7, ror r3
 c34:	4f495047 	svcmi	0x00495047
 c38:	4e55465f 	mrcmi	6, 2, r4, cr5, cr15, {2}
 c3c:	4c415f43 	mcrrmi	15, 4, r5, r1, cr3
 c40:	77003254 	smlsdvc	r0, r4, r2, r3
 c44:	5f746e69 	svcpl	0x00746e69
 c48:	6c5f0074 	mrrcvs	0, 7, r0, pc, cr4	; <UNPREDICTABLE>
 c4c:	006b636f 	rsbeq	r6, fp, pc, ror #6
 c50:	616c665f 	cmnvs	ip, pc, asr r6
 c54:	00327367 	eorseq	r7, r2, r7, ror #6
 c58:	6d745f5f 	ldclvs	15, cr5, [r4, #-380]!	; 0xfffffe84
 c5c:	6165795f 	cmnvs	r5, pc, asr r9
 c60:	6f5f0072 	svcvs	0x005f0072
 c64:	65736666 	ldrbvs	r6, [r3, #-1638]!	; 0x666
 c68:	70670074 	rsbvc	r0, r7, r4, ror r0
 c6c:	735f6f69 	cmpvc	pc, #420	; 0x1a4
 c70:	665f7465 	ldrbvs	r7, [pc], -r5, ror #8
 c74:	74636e75 	strbtvc	r6, [r3], #-3701	; 0xe75
 c78:	006e6f69 	rsbeq	r6, lr, r9, ror #30
 c7c:	78656e5f 	stmdavc	r5!, {r0, r1, r2, r3, r4, r6, r9, sl, fp, sp, lr}^
 c80:	5f006674 	svcpl	0x00006674
 c84:	5f6d745f 	svcpl	0x006d745f
 c88:	006e6f6d 	rsbeq	r6, lr, sp, ror #30
 c8c:	6574615f 	ldrbvs	r6, [r4, #-351]!	; 0x15f
 c90:	00746978 	rsbseq	r6, r4, r8, ror r9
 c94:	64735f5f 	ldrbtvs	r5, [r3], #-3935	; 0xf5f
 c98:	6e696469 	cdpvs	4, 6, cr6, cr9, cr9, {3}
 c9c:	5f007469 	svcpl	0x00007469
 ca0:	5f66666f 	svcpl	0x0066666f
 ca4:	61750074 	cmnvs	r5, r4, ror r0
 ca8:	5f007472 	svcpl	0x00007472
 cac:	65657266 	strbvs	r7, [r5, #-614]!	; 0x266
 cb0:	7473696c 	ldrbtvc	r6, [r3], #-2412	; 0x96c
 cb4:	4f4c5f00 	svcmi	0x004c5f00
 cb8:	525f4b43 	subspl	r4, pc, #68608	; 0x10c00
 cbc:	52554345 	subspl	r4, r5, #335544321	; 0x14000001
 cc0:	45564953 	ldrbmi	r4, [r6, #-2387]	; 0x953
 cc4:	5f00545f 	svcpl	0x0000545f
 cc8:	0077656e 	rsbseq	r6, r7, lr, ror #10
 ccc:	655f685f 	ldrbvs	r6, [pc, #-2143]	; 475 <__code_start__-0x7b8b>
 cd0:	6f6e7272 	svcvs	0x006e7272
 cd4:	745f5f00 	ldrbvc	r5, [pc], #-3840	; cdc <__code_start__-0x7324>
 cd8:	64795f6d 	ldrbtvs	r5, [r9], #-3949	; 0xf6d
 cdc:	5f007961 	svcpl	0x00007961
 ce0:	7562735f 	strbvc	r7, [r2, #-863]!	; 0x35f
 ce4:	695f0066 	ldmdbvs	pc, {r1, r2, r5, r6}^	; <UNPREDICTABLE>
 ce8:	0073626f 	rsbseq	r6, r3, pc, ror #4
 cec:	49465f5f 	stmdbmi	r6, {r0, r1, r2, r3, r4, r6, r8, r9, sl, fp, ip, lr}^
 cf0:	5f00454c 	svcpl	0x0000454c
 cf4:	7473626d 	ldrbtvc	r6, [r3], #-621	; 0x26d
 cf8:	5f657461 	svcpl	0x00657461
 cfc:	5f5f0074 	svcpl	0x005f0074
 d00:	4c494673 	mcrrmi	6, 7, r4, r9, cr3
 d04:	6d5f0045 	ldclvs	0, cr0, [pc, #-276]	; bf8 <__code_start__-0x7408>
 d08:	61747362 	cmnvs	r4, r2, ror #6
 d0c:	5f006574 	svcpl	0x00006574
 d10:	646e6172 	strbtvs	r6, [lr], #-370	; 0x172
 d14:	78656e5f 	stmdavc	r5!, {r0, r1, r2, r3, r4, r6, r9, sl, fp, sp, lr}^
 d18:	6d5f0074 	ldclvs	0, cr0, [pc, #-464]	; b50 <__code_start__-0x74b0>
 d1c:	6e656c62 	cdpvs	12, 6, cr6, cr5, cr2, {3}
 d20:	6174735f 	cmnvs	r4, pc, asr r3
 d24:	5f006574 	svcpl	0x00006574
 d28:	00636e69 	rsbeq	r6, r3, r9, ror #28
 d2c:	646e695f 	strbtvs	r6, [lr], #-2399	; 0x95f
 d30:	75635f00 	strbvc	r5, [r3, #-3840]!	; 0xf00
 d34:	6e657272 	mcrvs	2, 3, r7, cr5, cr2, {3}
 d38:	6f6c5f74 	svcvs	0x006c5f74
 d3c:	656c6163 	strbvs	r6, [ip, #-355]!	; 0x163
 d40:	635f5f00 	cmpvs	pc, #0, 30
 d44:	6e61656c 	cdpvs	5, 6, cr6, cr1, cr12, {3}
 d48:	5f007075 	svcpl	0x00007075
 d4c:	7778616d 	ldrbvc	r6, [r8, -sp, ror #2]!
 d50:	5f007364 	svcpl	0x00007364
 d54:	6e656572 	mcrvs	5, 3, r6, cr5, cr2, {3}
 d58:	735f0074 	cmpvc	pc, #116	; 0x74
 d5c:	00646565 	rsbeq	r6, r4, r5, ror #10
 d60:	6f635f5f 	svcvs	0x00635f5f
 d64:	00746e75 	rsbseq	r6, r4, r5, ror lr
 d68:	61765f5f 	cmnvs	r6, pc, asr pc
 d6c:	0065756c 	rsbeq	r7, r5, ip, ror #10
 d70:	6565735f 	strbvs	r7, [r5, #-863]!	; 0x35f
 d74:	6162006b 	cmnvs	r2, fp, rrx
 d78:	5f006475 	svcpl	0x00006475
 d7c:	736f7066 	cmnvc	pc, #102	; 0x66
 d80:	5f00745f 	svcpl	0x0000745f
 d84:	5f6d745f 	svcpl	0x006d745f
 d88:	006e696d 	rsbeq	r6, lr, sp, ror #18
 d8c:	61726373 	cmnvs	r2, r3, ror r3
 d90:	00686374 	rsbeq	r6, r8, r4, ror r3
 d94:	6c756d5f 	ldclvs	13, cr6, [r5], #-380	; 0xfffffe84
 d98:	75700074 	ldrbvc	r0, [r0, #-116]!	; 0x74
 d9c:	00323374 	eorseq	r3, r2, r4, ror r3
 da0:	20554e47 	subscs	r4, r5, r7, asr #28
 da4:	20393943 	eorscs	r3, r9, r3, asr #18
 da8:	2e332e36 	mrccs	14, 1, r2, cr3, cr6, {1}
 dac:	30322031 	eorscc	r2, r2, r1, lsr r0
 db0:	36303731 			; <UNDEFINED> instruction: 0x36303731
 db4:	2d203032 	stccs	0, cr3, [r0, #-200]!	; 0xffffff38
 db8:	7570636d 	ldrbvc	r6, [r0, #-877]!	; 0x36d
 dbc:	6d72613d 	ldfvse	f6, [r2, #-244]!	; 0xffffff0c
 dc0:	36373131 			; <UNDEFINED> instruction: 0x36373131
 dc4:	2d667a6a 	vstmdbcs	r6!, {s15-s120}
 dc8:	6d2d2073 	stcvs	0, cr2, [sp, #-460]!	; 0xfffffe34
 dcc:	656e7574 	strbvs	r7, [lr, #-1396]!	; 0x574
 dd0:	6d72613d 	ldfvse	f6, [r2, #-244]!	; 0xffffff0c
 dd4:	36373131 			; <UNDEFINED> instruction: 0x36373131
 dd8:	2d667a6a 	vstmdbcs	r6!, {s15-s120}
 ddc:	672d2073 			; <UNDEFINED> instruction: 0x672d2073
 de0:	20626467 	rsbcs	r6, r2, r7, ror #8
 de4:	20674f2d 	rsbcs	r4, r7, sp, lsr #30
 de8:	6474732d 	ldrbtvs	r7, [r4], #-813	; 0x32d
 dec:	756e673d 	strbvc	r6, [lr, #-1853]!	; 0x73d
 df0:	2d203939 	stccs	9, cr3, [r0, #-228]!	; 0xffffff1c
 df4:	65726666 	ldrbvs	r6, [r2, #-1638]!	; 0x666
 df8:	61747365 	cmnvs	r4, r5, ror #6
 dfc:	6e69646e 	cdpvs	4, 6, cr6, cr9, cr14, {3}
 e00:	735f0067 	cmpvc	pc, #103	; 0x67
 e04:	6f747274 	svcvs	0x00747274
 e08:	616c5f6b 	cmnvs	ip, fp, ror #30
 e0c:	5f007473 	svcpl	0x00007473
 e10:	79746e66 	ldmdbvc	r4!, {r1, r2, r5, r6, r9, sl, fp, sp, lr}^
 e14:	00736570 	rsbseq	r6, r3, r0, ror r5
 e18:	6464615f 	strbtvs	r6, [r4], #-351	; 0x15f
 e1c:	555f5f00 	ldrbpl	r5, [pc, #-3840]	; ffffff24 <__bss_end__+0xffff538c>
 e20:	676e6f4c 	strbvs	r6, [lr, -ip, asr #30]!
 e24:	65675f00 	strbvs	r5, [r7, #-3840]!	; 0xf00
 e28:	74616474 	strbtvc	r6, [r1], #-1140	; 0x474
 e2c:	72655f65 	rsbvc	r5, r5, #404	; 0x194
 e30:	675f0072 			; <UNDEFINED> instruction: 0x675f0072
 e34:	61626f6c 	cmnvs	r2, ip, ror #30
 e38:	6d695f6c 	stclvs	15, cr5, [r9, #-432]!	; 0xfffffe50
 e3c:	65727570 	ldrbvs	r7, [r2, #-1392]!	; 0x570
 e40:	7274705f 	rsbsvc	r7, r4, #95	; 0x5f
 e44:	75635f00 	strbvc	r5, [r3, #-3840]!	; 0xf00
 e48:	6e657272 	mcrvs	2, 3, r7, cr5, cr2, {3}
 e4c:	61635f74 	smcvs	13812	; 0x35f4
 e50:	6f676574 	svcvs	0x00676574
 e54:	5f007972 	svcpl	0x00007972
 e58:	73756e75 	cmnvc	r5, #1872	; 0x750
 e5c:	725f6465 	subsvc	r6, pc, #1694498816	; 0x65000000
 e60:	00646e61 	rsbeq	r6, r4, r1, ror #28
 e64:	7364775f 	cmnvc	r4, #24903680	; 0x17c0000
 e68:	745f5f00 	ldrbvc	r5, [pc], #-3840	; e70 <__code_start__-0x7190>
 e6c:	64775f6d 	ldrbtvs	r5, [r7], #-3949	; 0xf6d
 e70:	5f007961 	svcpl	0x00007961
 e74:	65756c67 	ldrbvs	r6, [r5, #-3175]!	; 0xc67
 e78:	49504700 	ldmdbmi	r0, {r8, r9, sl, lr}^
 e7c:	55465f4f 	strbpl	r5, [r6, #-3919]	; 0xf4f
 e80:	4f5f434e 	svcmi	0x005f434e
 e84:	55505455 	ldrbpl	r5, [r0, #-1109]	; 0x455
 e88:	6e5f0054 	mrcvs	0, 2, r0, cr15, cr4, {2}
 e8c:	6c6c616d 	stfvse	f6, [ip], #-436	; 0xfffffe4c
 e90:	5f00636f 	svcpl	0x0000636f
 e94:	6134366c 	teqvs	r4, ip, ror #12
 e98:	6675625f 			; <UNDEFINED> instruction: 0x6675625f
 e9c:	74656700 	strbtvc	r6, [r5], #-1792	; 0x700
 ea0:	75003233 	strvc	r3, [r0, #-563]	; 0x233
 ea4:	5f747261 	svcpl	0x00747261
 ea8:	5f6e6163 	svcpl	0x006e6163
 eac:	63746567 	cmnvs	r4, #432013312	; 0x19c00000
 eb0:	69735f00 	ldmdbvs	r3!, {r8, r9, sl, fp, ip, lr}^
 eb4:	75665f67 	strbvc	r5, [r6, #-3943]!	; 0xf67
 eb8:	6f00636e 	svcvs	0x0000636e
 ebc:	6e695f72 	mcrvs	15, 3, r5, cr9, cr2, {3}
 ec0:	75003233 	strvc	r3, [r0, #-563]	; 0x233
 ec4:	5f747261 	svcpl	0x00747261
 ec8:	5f736168 	svcpl	0x00736168
 ecc:	61746164 	cmnvs	r4, r4, ror #2
 ed0:	49504700 	ldmdbmi	r0, {r8, r9, sl, lr}^
 ed4:	55465f4f 	strbpl	r5, [r6, #-3919]	; 0xf4f
 ed8:	415f434e 	cmpmi	pc, lr, asr #6
 edc:	0030544c 	eorseq	r5, r0, ip, asr #8
 ee0:	75626e5f 	strbvc	r6, [r2, #-3679]!	; 0xe5f
 ee4:	755f0066 	ldrbvc	r0, [pc, #-102]	; e86 <__code_start__-0x717a>
 ee8:	6573756e 	ldrbvs	r7, [r3, #-1390]!	; 0x56e
 eec:	50470064 	subpl	r0, r7, r4, rrx
 ef0:	465f4f49 	ldrbmi	r4, [pc], -r9, asr #30
 ef4:	5f434e55 	svcpl	0x00434e55
 ef8:	33544c41 	cmpcc	r4, #16640	; 0x4100
 efc:	49504700 	ldmdbmi	r0, {r8, r9, sl, lr}^
 f00:	55465f4f 	strbpl	r5, [r6, #-3919]	; 0xf4f
 f04:	415f434e 	cmpmi	pc, lr, asr #6
 f08:	0034544c 	eorseq	r5, r4, ip, asr #8
 f0c:	4f495047 	svcmi	0x00495047
 f10:	4e55465f 	mrcmi	6, 2, r4, cr5, cr15, {2}
 f14:	4c415f43 	mcrrmi	15, 4, r5, r1, cr3
 f18:	5f003554 	svcpl	0x00003554
 f1c:	5f6d745f 	svcpl	0x006d745f
 f20:	73647369 	cmnvc	r4, #-1543503871	; 0xa4000001
 f24:	6c5f0074 	mrrcvs	0, 7, r0, pc, cr4	; <UNPREDICTABLE>
 f28:	6c61636f 	stclvs	3, cr6, [r1], #-444	; 0xfffffe44
 f2c:	656d6974 	strbvs	r6, [sp, #-2420]!	; 0x974
 f30:	6675625f 			; <UNDEFINED> instruction: 0x6675625f
 f34:	6c635f00 	stclvs	15, cr5, [r3], #-0
 f38:	0065736f 	rsbeq	r7, r5, pc, ror #6
 f3c:	3834725f 	ldmdacc	r4!, {r0, r1, r2, r3, r4, r6, r9, ip, sp, lr}
 f40:	626d5f00 	rsbvs	r5, sp, #0, 30
 f44:	63776f74 	cmnvs	r7, #116, 30	; 0x1d0
 f48:	6174735f 	cmnvs	r4, pc, asr r3
 f4c:	5f006574 	svcpl	0x00006574
 f50:	00733570 	rsbseq	r3, r3, r0, ror r5
 f54:	6d745f5f 	ldclvs	15, cr5, [r4, #-380]!	; 0xfffffe84
 f58:	61646d5f 	cmnvs	r4, pc, asr sp
 f5c:	70670079 	rsbvc	r0, r7, r9, ror r0
 f60:	735f6f69 	cmpvc	pc, #420	; 0x1a4
 f64:	6f5f7465 	svcvs	0x005f7465
 f68:	62006666 	andvs	r6, r0, #106954752	; 0x6600000
 f6c:	006b6e61 	rsbeq	r6, fp, r1, ror #28
 f70:	6f697067 	svcvs	0x00697067
 f74:	6700632e 	strvs	r6, [r0, -lr, lsr #6]
 f78:	5f6f6970 	svcpl	0x006f6970
 f7c:	64616572 	strbtvs	r6, [r1], #-1394	; 0x572
 f80:	69706700 	ldmdbvs	r0!, {r8, r9, sl, sp, lr}^
 f84:	65735f6f 	ldrbvs	r5, [r3, #-3951]!	; 0xf6f
 f88:	756f5f74 	strbvc	r5, [pc, #-3956]!	; 1c <__code_start__-0x7fe4>
 f8c:	74757074 	ldrbtvc	r7, [r5], #-116	; 0x74
 f90:	69706700 	ldmdbvs	r0!, {r8, r9, sl, sp, lr}^
 f94:	72775f6f 	rsbsvc	r5, r7, #444	; 0x1bc
 f98:	00657469 	rsbeq	r7, r5, r9, ror #8
 f9c:	6f697067 	svcvs	0x00697067
 fa0:	7465735f 	strbtvc	r7, [r5], #-863	; 0x35f
 fa4:	70670030 	rsbvc	r0, r7, r0, lsr r0
 fa8:	6c5f6f69 	mrrcvs	15, 6, r6, pc, cr9	; <UNPREDICTABLE>
 fac:	00307665 	eorseq	r7, r0, r5, ror #12
 fb0:	6f697067 	svcvs	0x00697067
 fb4:	7465735f 	strbtvc	r7, [r5], #-863	; 0x35f
 fb8:	706e695f 	rsbvc	r6, lr, pc, asr r9
 fbc:	67007475 	smlsdxvs	r0, r5, r4, r7
 fc0:	5f6f6970 	svcpl	0x006f6970
 fc4:	5f746573 	svcpl	0x00746573
 fc8:	67006e6f 	strvs	r6, [r0, -pc, ror #28]
 fcc:	5f6f6970 	svcpl	0x006f6970
 fd0:	636e7566 	cmnvs	lr, #427819008	; 0x19800000
 fd4:	6700745f 	smlsdvs	r0, pc, r4, r7	; <UNPREDICTABLE>
 fd8:	5f6f6970 	svcpl	0x006f6970
 fdc:	30726c63 	rsbscc	r6, r2, r3, ror #24
	...

Disassembly of section .debug_frame:

00000000 <.debug_frame>:
   0:	0000000c 	andeq	r0, r0, ip
   4:	ffffffff 			; <UNDEFINED> instruction: 0xffffffff
   8:	7c020001 	stcvc	0, cr0, [r2], {1}
   c:	000d0c0e 	andeq	r0, sp, lr, lsl #24
  10:	00000014 	andeq	r0, r0, r4, lsl r0
  14:	00000000 	andeq	r0, r0, r0
  18:	00008020 	andeq	r8, r0, r0, lsr #32
  1c:	0000008c 	andeq	r0, r0, ip, lsl #1
  20:	8e040e42 	cdphi	14, 0, cr0, cr4, cr2, {2}
  24:	100e4201 	andne	r4, lr, r1, lsl #4
  28:	00000018 	andeq	r0, r0, r8, lsl r0
  2c:	00000000 	andeq	r0, r0, r0
  30:	000080ac 	andeq	r8, r0, ip, lsr #1
  34:	00000188 	andeq	r0, r0, r8, lsl #3
  38:	84080e42 	strhi	r0, [r8], #-3650	; 0xe42
  3c:	42018e02 	andmi	r8, r1, #2, 28
  40:	0000100e 	andeq	r1, r0, lr
  44:	00000014 	andeq	r0, r0, r4, lsl r0
  48:	00000000 	andeq	r0, r0, r0
  4c:	00008234 	andeq	r8, r0, r4, lsr r2
  50:	00000088 	andeq	r0, r0, r8, lsl #1
  54:	8e040e42 	cdphi	14, 0, cr0, cr4, cr2, {2}
  58:	100e4201 	andne	r4, lr, r1, lsl #4
  5c:	0000000c 	andeq	r0, r0, ip
  60:	00000000 	andeq	r0, r0, r0
  64:	000082bc 			; <UNDEFINED> instruction: 0x000082bc
  68:	00000020 	andeq	r0, r0, r0, lsr #32
  6c:	00000014 	andeq	r0, r0, r4, lsl r0
  70:	00000000 	andeq	r0, r0, r0
  74:	000082dc 	ldrdeq	r8, [r0], -ip
  78:	0000006c 	andeq	r0, r0, ip, rrx
  7c:	8e040e42 	cdphi	14, 0, cr0, cr4, cr2, {2}
  80:	100e4201 	andne	r4, lr, r1, lsl #4
  84:	0000000c 	andeq	r0, r0, ip
  88:	00000000 	andeq	r0, r0, r0
  8c:	00008348 	andeq	r8, r0, r8, asr #6
  90:	00000070 	andeq	r0, r0, r0, ror r0
  94:	0000001c 	andeq	r0, r0, ip, lsl r0
  98:	00000000 	andeq	r0, r0, r0
  9c:	000083b8 			; <UNDEFINED> instruction: 0x000083b8
  a0:	000002a0 	andeq	r0, r0, r0, lsr #5
  a4:	84100e42 	ldrhi	r0, [r0], #-3650	; 0xe42
  a8:	86038504 	strhi	r8, [r3], -r4, lsl #10
  ac:	42018e02 	andmi	r8, r1, #2, 28
  b0:	0000500e 	andeq	r5, r0, lr
  b4:	0000000c 	andeq	r0, r0, ip
  b8:	ffffffff 			; <UNDEFINED> instruction: 0xffffffff
  bc:	7c020001 	stcvc	0, cr0, [r2], {1}
  c0:	000d0c0e 	andeq	r0, sp, lr, lsl #24
  c4:	00000014 	andeq	r0, r0, r4, lsl r0
  c8:	000000b4 	strheq	r0, [r0], -r4
  cc:	00008658 	andeq	r8, r0, r8, asr r6
  d0:	000000b0 	strheq	r0, [r0], -r0	; <UNPREDICTABLE>
  d4:	8e040e42 	cdphi	14, 0, cr0, cr4, cr2, {2}
  d8:	100e4201 	andne	r4, lr, r1, lsl #4
  dc:	00000014 	andeq	r0, r0, r4, lsl r0
  e0:	000000b4 	strheq	r0, [r0], -r4
  e4:	00008708 	andeq	r8, r0, r8, lsl #14
  e8:	000000dc 	ldrdeq	r0, [r0], -ip
  ec:	8e040e42 	cdphi	14, 0, cr0, cr4, cr2, {2}
  f0:	100e4201 	andne	r4, lr, r1, lsl #4
  f4:	00000014 	andeq	r0, r0, r4, lsl r0
  f8:	000000b4 	strheq	r0, [r0], -r4
  fc:	000087e4 	andeq	r8, r0, r4, ror #15
 100:	0000003c 	andeq	r0, r0, ip, lsr r0
 104:	83080e42 	movwhi	r0, #36418	; 0x8e42
 108:	00018e02 	andeq	r8, r1, r2, lsl #28
 10c:	0000000c 	andeq	r0, r0, ip
 110:	000000b4 	strheq	r0, [r0], -r4
 114:	00008820 	andeq	r8, r0, r0, lsr #16
 118:	00000034 	andeq	r0, r0, r4, lsr r0
 11c:	00000014 	andeq	r0, r0, r4, lsl r0
 120:	000000b4 	strheq	r0, [r0], -r4
 124:	00008854 	andeq	r8, r0, r4, asr r8
 128:	00000098 	muleq	r0, r8, r0
 12c:	8e040e42 	cdphi	14, 0, cr0, cr4, cr2, {2}
 130:	100e4201 	andne	r4, lr, r1, lsl #4
 134:	0000000c 	andeq	r0, r0, ip
 138:	000000b4 	strheq	r0, [r0], -r4
 13c:	000088ec 	andeq	r8, r0, ip, ror #17
 140:	00000004 	andeq	r0, r0, r4
 144:	00000014 	andeq	r0, r0, r4, lsl r0
 148:	000000b4 	strheq	r0, [r0], -r4
 14c:	000088f0 	strdeq	r8, [r0], -r0
 150:	0000002c 	andeq	r0, r0, ip, lsr #32
 154:	83080e42 	movwhi	r0, #36418	; 0x8e42
 158:	00018e02 	andeq	r8, r1, r2, lsl #28
 15c:	0000000c 	andeq	r0, r0, ip
 160:	000000b4 	strheq	r0, [r0], -r4
 164:	0000891c 	andeq	r8, r0, ip, lsl r9
 168:	00000034 	andeq	r0, r0, r4, lsr r0
 16c:	0000000c 	andeq	r0, r0, ip
 170:	000000b4 	strheq	r0, [r0], -r4
 174:	00008950 	andeq	r8, r0, r0, asr r9
 178:	00000010 	andeq	r0, r0, r0, lsl r0
 17c:	00000014 	andeq	r0, r0, r4, lsl r0
 180:	000000b4 	strheq	r0, [r0], -r4
 184:	00008960 	andeq	r8, r0, r0, ror #18
 188:	00000070 	andeq	r0, r0, r0, ror r0
 18c:	83080e42 	movwhi	r0, #36418	; 0x8e42
 190:	00018e02 	andeq	r8, r1, r2, lsl #28
 194:	0000000c 	andeq	r0, r0, ip
 198:	ffffffff 			; <UNDEFINED> instruction: 0xffffffff
 19c:	7c020001 	stcvc	0, cr0, [r2], {1}
 1a0:	000d0c0e 	andeq	r0, sp, lr, lsl #24
 1a4:	00000018 	andeq	r0, r0, r8, lsl r0
 1a8:	00000194 	muleq	r0, r4, r1
 1ac:	00008b08 	andeq	r8, r0, r8, lsl #22
 1b0:	000001ac 	andeq	r0, r0, ip, lsr #3
 1b4:	840c0e42 	strhi	r0, [ip], #-3650	; 0xe42
 1b8:	8e028503 	cfsh32hi	mvfx8, mvfx2, #3
 1bc:	180e4201 	stmdane	lr, {r0, r9, lr}
 1c0:	00000024 	andeq	r0, r0, r4, lsr #32
 1c4:	00000194 	muleq	r0, r4, r1
 1c8:	00008cb4 			; <UNDEFINED> instruction: 0x00008cb4
 1cc:	000004e0 	andeq	r0, r0, r0, ror #9
 1d0:	84240e42 	strthi	r0, [r4], #-3650	; 0xe42
 1d4:	86088509 	strhi	r8, [r8], -r9, lsl #10
 1d8:	88068707 	stmdahi	r6, {r0, r1, r2, r8, r9, sl, pc}
 1dc:	8a048905 	bhi	1225f8 <__bss_end__+0x117a60>
 1e0:	8e028b03 	vmlahi.f64	d8, d2, d3
 1e4:	300e4201 	andcc	r4, lr, r1, lsl #4
 1e8:	00000018 	andeq	r0, r0, r8, lsl r0
 1ec:	00000194 	muleq	r0, r4, r1
 1f0:	00009194 	muleq	r0, r4, r1
 1f4:	00000084 	andeq	r0, r0, r4, lsl #1
 1f8:	83100e42 	tsthi	r0, #1056	; 0x420
 1fc:	85038404 	strhi	r8, [r3, #-1028]	; 0x404
 200:	00018e02 	andeq	r8, r1, r2, lsl #28
 204:	0000000c 	andeq	r0, r0, ip
 208:	00000194 	muleq	r0, r4, r1
 20c:	00009218 	andeq	r9, r0, r8, lsl r2
 210:	00000028 	andeq	r0, r0, r8, lsr #32
 214:	00000014 	andeq	r0, r0, r4, lsl r0
 218:	00000194 	muleq	r0, r4, r1
 21c:	00009240 	andeq	r9, r0, r0, asr #4
 220:	0000004c 	andeq	r0, r0, ip, asr #32
 224:	84080e42 	strhi	r0, [r8], #-3650	; 0xe42
 228:	00018e02 	andeq	r8, r1, r2, lsl #28
 22c:	0000000c 	andeq	r0, r0, ip
 230:	ffffffff 			; <UNDEFINED> instruction: 0xffffffff
 234:	7c020001 	stcvc	0, cr0, [r2], {1}
 238:	000d0c0e 	andeq	r0, sp, lr, lsl #24
 23c:	00000024 	andeq	r0, r0, r4, lsr #32
 240:	0000022c 	andeq	r0, r0, ip, lsr #4
 244:	0000928c 	andeq	r9, r0, ip, lsl #5
 248:	00000058 	andeq	r0, r0, r8, asr r0
 24c:	80100e42 	andshi	r0, r0, r2, asr #28
 250:	82038104 	andhi	r8, r3, #4, 2
 254:	42018302 	andmi	r8, r1, #134217728	; 0x8000000
 258:	07841c0e 	streq	r1, [r4, lr, lsl #24]
 25c:	058e0685 	streq	r0, [lr, #1669]	; 0x685
 260:	00280e42 	eoreq	r0, r8, r2, asr #28
 264:	0000000c 	andeq	r0, r0, ip
 268:	ffffffff 			; <UNDEFINED> instruction: 0xffffffff
 26c:	7c020001 	stcvc	0, cr0, [r2], {1}
 270:	000d0c0e 	andeq	r0, sp, lr, lsl #24
 274:	00000014 	andeq	r0, r0, r4, lsl r0
 278:	00000264 	andeq	r0, r0, r4, ror #4
 27c:	000092e4 	andeq	r9, r0, r4, ror #5
 280:	00000014 	andeq	r0, r0, r4, lsl r0
 284:	84080e42 	strhi	r0, [r8], #-3650	; 0xe42
 288:	00018e02 	andeq	r8, r1, r2, lsl #28
 28c:	0000000c 	andeq	r0, r0, ip
 290:	00000264 	andeq	r0, r0, r4, ror #4
 294:	000092f8 	strdeq	r9, [r0], -r8
 298:	00000018 	andeq	r0, r0, r8, lsl r0
 29c:	0000000c 	andeq	r0, r0, ip
 2a0:	00000264 	andeq	r0, r0, r4, ror #4
 2a4:	00009310 	andeq	r9, r0, r0, lsl r3
 2a8:	00000010 	andeq	r0, r0, r0, lsl r0
 2ac:	0000000c 	andeq	r0, r0, ip
 2b0:	ffffffff 			; <UNDEFINED> instruction: 0xffffffff
 2b4:	7c020001 	stcvc	0, cr0, [r2], {1}
 2b8:	000d0c0e 	andeq	r0, sp, lr, lsl #24
 2bc:	00000018 	andeq	r0, r0, r8, lsl r0
 2c0:	000002ac 	andeq	r0, r0, ip, lsr #5
 2c4:	00009320 	andeq	r9, r0, r0, lsr #6
 2c8:	00000034 	andeq	r0, r0, r4, lsr r0
 2cc:	83100e42 	tsthi	r0, #1056	; 0x420
 2d0:	85038404 	strhi	r8, [r3, #-1028]	; 0x404
 2d4:	00018e02 	andeq	r8, r1, r2, lsl #28
 2d8:	0000000c 	andeq	r0, r0, ip
 2dc:	ffffffff 			; <UNDEFINED> instruction: 0xffffffff
 2e0:	7c020001 	stcvc	0, cr0, [r2], {1}
 2e4:	000d0c0e 	andeq	r0, sp, lr, lsl #24
 2e8:	0000000c 	andeq	r0, r0, ip
 2ec:	000002d8 	ldrdeq	r0, [r0], -r8
 2f0:	00009354 	andeq	r9, r0, r4, asr r3
 2f4:	00000014 	andeq	r0, r0, r4, lsl r0
 2f8:	0000000c 	andeq	r0, r0, ip
 2fc:	000002d8 	ldrdeq	r0, [r0], -r8
 300:	00009368 	andeq	r9, r0, r8, ror #6
 304:	0000002c 	andeq	r0, r0, ip, lsr #32
 308:	0000000c 	andeq	r0, r0, ip
 30c:	000002d8 	ldrdeq	r0, [r0], -r8
 310:	00009394 	muleq	r0, r4, r3
 314:	00000040 	andeq	r0, r0, r0, asr #32
 318:	00000020 	andeq	r0, r0, r0, lsr #32
 31c:	000002d8 	ldrdeq	r0, [r0], -r8
 320:	000093d4 	ldrdeq	r9, [r0], -r4
 324:	000001bc 			; <UNDEFINED> instruction: 0x000001bc
 328:	84180e42 	ldrhi	r0, [r8], #-3650	; 0xe42
 32c:	86058506 	strhi	r8, [r5], -r6, lsl #10
 330:	88038704 	stmdahi	r3, {r2, r8, r9, sl, pc}
 334:	42018e02 	andmi	r8, r1, #2, 28
 338:	0000600e 	andeq	r6, r0, lr
 33c:	00000014 	andeq	r0, r0, r4, lsl r0
 340:	000002d8 	ldrdeq	r0, [r0], -r8
 344:	00009590 	muleq	r0, r0, r5
 348:	00000068 	andeq	r0, r0, r8, rrx
 34c:	8e040e42 	cdphi	14, 0, cr0, cr4, cr2, {2}
 350:	100e4201 	andne	r4, lr, r1, lsl #4
 354:	00000028 	andeq	r0, r0, r8, lsr #32
 358:	000002d8 	ldrdeq	r0, [r0], -r8
 35c:	000095f8 	strdeq	r9, [r0], -r8
 360:	000002d4 	ldrdeq	r0, [r0], -r4
 364:	84240e42 	strthi	r0, [r4], #-3650	; 0xe42
 368:	86088509 	strhi	r8, [r8], -r9, lsl #10
 36c:	88068707 	stmdahi	r6, {r0, r1, r2, r8, r9, sl, pc}
 370:	8a048905 	bhi	12278c <__bss_end__+0x117bf4>
 374:	8e028b03 	vmlahi.f64	d8, d2, d3
 378:	b80e4201 	stmdalt	lr, {r0, r9, lr}
 37c:	00000001 	andeq	r0, r0, r1
 380:	0000000c 	andeq	r0, r0, ip
 384:	ffffffff 			; <UNDEFINED> instruction: 0xffffffff
 388:	7c020001 	stcvc	0, cr0, [r2], {1}
 38c:	000d0c0e 	andeq	r0, sp, lr, lsl #24
 390:	0000000c 	andeq	r0, r0, ip
 394:	00000380 	andeq	r0, r0, r0, lsl #7
 398:	000098cc 	andeq	r9, r0, ip, asr #17
 39c:	00000010 	andeq	r0, r0, r0, lsl r0
 3a0:	0000000c 	andeq	r0, r0, ip
 3a4:	00000380 	andeq	r0, r0, r0, lsl #7
 3a8:	000098dc 	ldrdeq	r9, [r0], -ip
 3ac:	00000010 	andeq	r0, r0, r0, lsl r0
 3b0:	0000000c 	andeq	r0, r0, ip
 3b4:	ffffffff 			; <UNDEFINED> instruction: 0xffffffff
 3b8:	7c020001 	stcvc	0, cr0, [r2], {1}
 3bc:	000d0c0e 	andeq	r0, sp, lr, lsl #24
 3c0:	00000014 	andeq	r0, r0, r4, lsl r0
 3c4:	000003b0 			; <UNDEFINED> instruction: 0x000003b0
 3c8:	000098ec 	andeq	r9, r0, ip, ror #17
 3cc:	0000002c 	andeq	r0, r0, ip, lsr #32
 3d0:	83080e42 	movwhi	r0, #36418	; 0x8e42
 3d4:	00018e02 	andeq	r8, r1, r2, lsl #28
 3d8:	0000000c 	andeq	r0, r0, ip
 3dc:	ffffffff 			; <UNDEFINED> instruction: 0xffffffff
 3e0:	7c020001 	stcvc	0, cr0, [r2], {1}
 3e4:	000d0c0e 	andeq	r0, sp, lr, lsl #24
 3e8:	00000014 	andeq	r0, r0, r4, lsl r0
 3ec:	000003d8 	ldrdeq	r0, [r0], -r8
 3f0:	00009918 	andeq	r9, r0, r8, lsl r9
 3f4:	00000038 	andeq	r0, r0, r8, lsr r0
 3f8:	83080e42 	movwhi	r0, #36418	; 0x8e42
 3fc:	00018e02 	andeq	r8, r1, r2, lsl #28
 400:	0000000c 	andeq	r0, r0, ip
 404:	ffffffff 			; <UNDEFINED> instruction: 0xffffffff
 408:	7c020001 	stcvc	0, cr0, [r2], {1}
 40c:	000d0c0e 	andeq	r0, sp, lr, lsl #24
 410:	00000014 	andeq	r0, r0, r4, lsl r0
 414:	00000400 	andeq	r0, r0, r0, lsl #8
 418:	00009950 	andeq	r9, r0, r0, asr r9
 41c:	00000044 	andeq	r0, r0, r4, asr #32
 420:	8e040e42 	cdphi	14, 0, cr0, cr4, cr2, {2}
 424:	100e4201 	andne	r4, lr, r1, lsl #4
 428:	0000000c 	andeq	r0, r0, ip
 42c:	ffffffff 			; <UNDEFINED> instruction: 0xffffffff
 430:	7c020001 	stcvc	0, cr0, [r2], {1}
 434:	000d0c0e 	andeq	r0, sp, lr, lsl #24
 438:	00000014 	andeq	r0, r0, r4, lsl r0
 43c:	00000428 	andeq	r0, r0, r8, lsr #8
 440:	00009994 	muleq	r0, r4, r9
 444:	00000044 	andeq	r0, r0, r4, asr #32
 448:	8e040e42 	cdphi	14, 0, cr0, cr4, cr2, {2}
 44c:	100e4201 	andne	r4, lr, r1, lsl #4
 450:	0000000c 	andeq	r0, r0, ip
 454:	ffffffff 			; <UNDEFINED> instruction: 0xffffffff
 458:	7c020001 	stcvc	0, cr0, [r2], {1}
 45c:	000d0c0e 	andeq	r0, sp, lr, lsl #24
 460:	00000014 	andeq	r0, r0, r4, lsl r0
 464:	00000450 	andeq	r0, r0, r0, asr r4
 468:	000099d8 	ldrdeq	r9, [r0], -r8
 46c:	00000044 	andeq	r0, r0, r4, asr #32
 470:	8e040e42 	cdphi	14, 0, cr0, cr4, cr2, {2}
 474:	100e4201 	andne	r4, lr, r1, lsl #4
 478:	0000000c 	andeq	r0, r0, ip
 47c:	ffffffff 			; <UNDEFINED> instruction: 0xffffffff
 480:	7c020001 	stcvc	0, cr0, [r2], {1}
 484:	000d0c0e 	andeq	r0, sp, lr, lsl #24
 488:	0000000c 	andeq	r0, r0, ip
 48c:	00000478 	andeq	r0, r0, r8, ror r4
 490:	00009a1c 	andeq	r9, r0, ip, lsl sl
 494:	00000004 	andeq	r0, r0, r4
 498:	0000000c 	andeq	r0, r0, ip
 49c:	00000478 	andeq	r0, r0, r8, ror r4
 4a0:	00009a20 	andeq	r9, r0, r0, lsr #20
 4a4:	00000004 	andeq	r0, r0, r4
 4a8:	0000000c 	andeq	r0, r0, ip
 4ac:	ffffffff 			; <UNDEFINED> instruction: 0xffffffff
 4b0:	7c020001 	stcvc	0, cr0, [r2], {1}
 4b4:	000d0c0e 	andeq	r0, sp, lr, lsl #24
 4b8:	00000014 	andeq	r0, r0, r4, lsl r0
 4bc:	000004a8 	andeq	r0, r0, r8, lsr #9
 4c0:	00009a24 	andeq	r9, r0, r4, lsr #20
 4c4:	0000006c 	andeq	r0, r0, ip, rrx
 4c8:	83080e42 	movwhi	r0, #36418	; 0x8e42
 4cc:	00018e02 	andeq	r8, r1, r2, lsl #28
 4d0:	0000000c 	andeq	r0, r0, ip
 4d4:	ffffffff 			; <UNDEFINED> instruction: 0xffffffff
 4d8:	7c020001 	stcvc	0, cr0, [r2], {1}
 4dc:	000d0c0e 	andeq	r0, sp, lr, lsl #24
 4e0:	0000000c 	andeq	r0, r0, ip
 4e4:	000004d0 	ldrdeq	r0, [r0], -r0	; <UNPREDICTABLE>
 4e8:	00009a90 	muleq	r0, r0, sl
 4ec:	00000018 	andeq	r0, r0, r8, lsl r0
 4f0:	0000000c 	andeq	r0, r0, ip
 4f4:	000004d0 	ldrdeq	r0, [r0], -r0	; <UNPREDICTABLE>
 4f8:	00009aa8 	andeq	r9, r0, r8, lsr #21
 4fc:	00000014 	andeq	r0, r0, r4, lsl r0
 500:	00000014 	andeq	r0, r0, r4, lsl r0
 504:	000004d0 	ldrdeq	r0, [r0], -r0	; <UNPREDICTABLE>
 508:	00009abc 			; <UNDEFINED> instruction: 0x00009abc
 50c:	00000048 	andeq	r0, r0, r8, asr #32
 510:	83080e42 	movwhi	r0, #36418	; 0x8e42
 514:	00018e02 	andeq	r8, r1, r2, lsl #28
 518:	0000000c 	andeq	r0, r0, ip
 51c:	ffffffff 			; <UNDEFINED> instruction: 0xffffffff
 520:	7c020001 	stcvc	0, cr0, [r2], {1}
 524:	000d0c0e 	andeq	r0, sp, lr, lsl #24
 528:	0000000c 	andeq	r0, r0, ip
 52c:	00000518 	andeq	r0, r0, r8, lsl r5
 530:	00009b04 	andeq	r9, r0, r4, lsl #22
 534:	0000001c 	andeq	r0, r0, ip, lsl r0
 538:	00000014 	andeq	r0, r0, r4, lsl r0
 53c:	00000518 	andeq	r0, r0, r8, lsl r5
 540:	00009b20 	andeq	r9, r0, r0, lsr #22
 544:	00000014 	andeq	r0, r0, r4, lsl r0
 548:	83080e42 	movwhi	r0, #36418	; 0x8e42
 54c:	00018e02 	andeq	r8, r1, r2, lsl #28
 550:	00000014 	andeq	r0, r0, r4, lsl r0
 554:	00000518 	andeq	r0, r0, r8, lsl r5
 558:	00009b34 	andeq	r9, r0, r4, lsr fp
 55c:	0000001c 	andeq	r0, r0, ip, lsl r0
 560:	84080e42 	strhi	r0, [r8], #-3650	; 0xe42
 564:	00018e02 	andeq	r8, r1, r2, lsl #28
 568:	00000018 	andeq	r0, r0, r8, lsl r0
 56c:	00000518 	andeq	r0, r0, r8, lsl r5
 570:	00009b50 	andeq	r9, r0, r0, asr fp
 574:	00000024 	andeq	r0, r0, r4, lsr #32
 578:	83100e42 	tsthi	r0, #1056	; 0x420
 57c:	85038404 	strhi	r8, [r3, #-1028]	; 0x404
 580:	00018e02 	andeq	r8, r1, r2, lsl #28
 584:	00000014 	andeq	r0, r0, r4, lsl r0
 588:	00000518 	andeq	r0, r0, r8, lsl r5
 58c:	00009b74 	andeq	r9, r0, r4, ror fp
 590:	00000014 	andeq	r0, r0, r4, lsl r0
 594:	83080e42 	movwhi	r0, #36418	; 0x8e42
 598:	00018e02 	andeq	r8, r1, r2, lsl #28
 59c:	00000014 	andeq	r0, r0, r4, lsl r0
 5a0:	00000518 	andeq	r0, r0, r8, lsl r5
 5a4:	00009b88 	andeq	r9, r0, r8, lsl #23
 5a8:	00000014 	andeq	r0, r0, r4, lsl r0
 5ac:	83080e42 	movwhi	r0, #36418	; 0x8e42
 5b0:	00018e02 	andeq	r8, r1, r2, lsl #28
 5b4:	0000000c 	andeq	r0, r0, ip
 5b8:	ffffffff 			; <UNDEFINED> instruction: 0xffffffff
 5bc:	7c020001 	stcvc	0, cr0, [r2], {1}
 5c0:	000d0c0e 	andeq	r0, sp, lr, lsl #24
 5c4:	00000018 	andeq	r0, r0, r8, lsl r0
 5c8:	000005b4 			; <UNDEFINED> instruction: 0x000005b4
 5cc:	00009c00 	andeq	r9, r0, r0, lsl #24
 5d0:	00000020 	andeq	r0, r0, r0, lsr #32
 5d4:	84100e42 	ldrhi	r0, [r0], #-3650	; 0xe42
 5d8:	86038504 	strhi	r8, [r3], -r4, lsl #10
 5dc:	00018e02 	andeq	r8, r1, r2, lsl #28
 5e0:	00000014 	andeq	r0, r0, r4, lsl r0
 5e4:	000005b4 			; <UNDEFINED> instruction: 0x000005b4
 5e8:	00009c20 	andeq	r9, r0, r0, lsr #24
 5ec:	000000b0 	strheq	r0, [r0], -r0	; <UNPREDICTABLE>
 5f0:	84080e42 	strhi	r0, [r8], #-3650	; 0xe42
 5f4:	00018e02 	andeq	r8, r1, r2, lsl #28
 5f8:	00000014 	andeq	r0, r0, r4, lsl r0
 5fc:	000005b4 			; <UNDEFINED> instruction: 0x000005b4
 600:	00009cd0 	ldrdeq	r9, [r0], -r0
 604:	00000018 	andeq	r0, r0, r8, lsl r0
 608:	84080e42 	strhi	r0, [r8], #-3650	; 0xe42
 60c:	00018e02 	andeq	r8, r1, r2, lsl #28
 610:	00000014 	andeq	r0, r0, r4, lsl r0
 614:	000005b4 			; <UNDEFINED> instruction: 0x000005b4
 618:	00009ce8 	andeq	r9, r0, r8, ror #25
 61c:	00000020 	andeq	r0, r0, r0, lsr #32
 620:	84080e42 	strhi	r0, [r8], #-3650	; 0xe42
 624:	00018e02 	andeq	r8, r1, r2, lsl #28
 628:	00000014 	andeq	r0, r0, r4, lsl r0
 62c:	000005b4 			; <UNDEFINED> instruction: 0x000005b4
 630:	00009d08 	andeq	r9, r0, r8, lsl #26
 634:	00000030 	andeq	r0, r0, r0, lsr r0
 638:	84080e42 	strhi	r0, [r8], #-3650	; 0xe42
 63c:	00018e02 	andeq	r8, r1, r2, lsl #28
 640:	00000014 	andeq	r0, r0, r4, lsl r0
 644:	000005b4 			; <UNDEFINED> instruction: 0x000005b4
 648:	00009d38 	andeq	r9, r0, r8, lsr sp
 64c:	00000030 	andeq	r0, r0, r0, lsr r0
 650:	84080e42 	strhi	r0, [r8], #-3650	; 0xe42
 654:	00018e02 	andeq	r8, r1, r2, lsl #28
 658:	00000014 	andeq	r0, r0, r4, lsl r0
 65c:	000005b4 			; <UNDEFINED> instruction: 0x000005b4
 660:	00009d68 	andeq	r9, r0, r8, ror #26
 664:	00000010 	andeq	r0, r0, r0, lsl r0
 668:	84080e42 	strhi	r0, [r8], #-3650	; 0xe42
 66c:	00018e02 	andeq	r8, r1, r2, lsl #28
 670:	0000000c 	andeq	r0, r0, ip
 674:	ffffffff 			; <UNDEFINED> instruction: 0xffffffff
 678:	7c020001 	stcvc	0, cr0, [r2], {1}
 67c:	000d0c0e 	andeq	r0, sp, lr, lsl #24
 680:	00000018 	andeq	r0, r0, r8, lsl r0
 684:	00000670 	andeq	r0, r0, r0, ror r6
 688:	00009d78 	andeq	r9, r0, r8, ror sp
 68c:	00000068 	andeq	r0, r0, r8, rrx
 690:	84100e4a 	ldrhi	r0, [r0], #-3658	; 0xe4a
 694:	86038504 	strhi	r8, [r3], -r4, lsl #10
 698:	00018e02 	andeq	r8, r1, r2, lsl #28
 69c:	00000014 	andeq	r0, r0, r4, lsl r0
 6a0:	00000670 	andeq	r0, r0, r0, ror r6
 6a4:	00009de0 	andeq	r9, r0, r0, ror #27
 6a8:	00000010 	andeq	r0, r0, r0, lsl r0
 6ac:	84080e42 	strhi	r0, [r8], #-3650	; 0xe42
 6b0:	00018e02 	andeq	r8, r1, r2, lsl #28
 6b4:	00000014 	andeq	r0, r0, r4, lsl r0
 6b8:	00000670 	andeq	r0, r0, r0, ror r6
 6bc:	00009df0 	strdeq	r9, [r0], -r0
 6c0:	00000024 	andeq	r0, r0, r4, lsr #32
 6c4:	84080e46 	strhi	r0, [r8], #-3654	; 0xe46
 6c8:	00018e02 	andeq	r8, r1, r2, lsl #28
 6cc:	00000014 	andeq	r0, r0, r4, lsl r0
 6d0:	00000670 	andeq	r0, r0, r0, ror r6
 6d4:	00009e14 	andeq	r9, r0, r4, lsl lr
 6d8:	00000024 	andeq	r0, r0, r4, lsr #32
 6dc:	84080e46 	strhi	r0, [r8], #-3654	; 0xe46
 6e0:	00018e02 	andeq	r8, r1, r2, lsl #28
 6e4:	00000014 	andeq	r0, r0, r4, lsl r0
 6e8:	00000670 	andeq	r0, r0, r0, ror r6
 6ec:	00009e38 	andeq	r9, r0, r8, lsr lr
 6f0:	00000010 	andeq	r0, r0, r0, lsl r0
 6f4:	84080e42 	strhi	r0, [r8], #-3650	; 0xe42
 6f8:	00018e02 	andeq	r8, r1, r2, lsl #28
 6fc:	00000014 	andeq	r0, r0, r4, lsl r0
 700:	00000670 	andeq	r0, r0, r0, ror r6
 704:	00009e48 	andeq	r9, r0, r8, asr #28
 708:	0000001c 	andeq	r0, r0, ip, lsl r0
 70c:	84080e42 	strhi	r0, [r8], #-3650	; 0xe42
 710:	00018e02 	andeq	r8, r1, r2, lsl #28
 714:	00000018 	andeq	r0, r0, r8, lsl r0
 718:	00000670 	andeq	r0, r0, r0, ror r6
 71c:	00009e64 	andeq	r9, r0, r4, ror #28
 720:	00000034 	andeq	r0, r0, r4, lsr r0
 724:	84080e46 	strhi	r0, [r8], #-3654	; 0xe46
 728:	4e018e02 	cdpmi	14, 0, cr8, cr1, cr2, {0}
 72c:	cec4000e 	cdpgt	0, 12, cr0, cr4, cr14, {0}
